; Listing generated by Microsoft (R) Optimizing Compiler Version 13.10.6030 

	TITLE	.\DatabaseServer.cpp
	.386P
include listing.inc
if @Version gt 510
.model FLAT
else
_TEXT	SEGMENT PARA USE32 PUBLIC 'CODE'
_TEXT	ENDS
_DATA	SEGMENT DWORD USE32 PUBLIC 'DATA'
_DATA	ENDS
CONST	SEGMENT DWORD USE32 PUBLIC 'CONST'
CONST	ENDS
_BSS	SEGMENT PARA USE32 PUBLIC 'BSS'
_BSS	ENDS
$$SYMBOLS	SEGMENT BYTE USE32 'DEBSYM'
$$SYMBOLS	ENDS
_TLS	SEGMENT DWORD USE32 PUBLIC 'TLS'
_TLS	ENDS
;	COMDAT ??_C@_0BC@MOGJFHKK@tr1?3?3bad_weak_ptr?$AA@
CONST	SEGMENT DWORD USE32 PUBLIC 'CONST'
CONST	ENDS
;	COMDAT ??_C@_0BD@IOHNFIBA@SetLOD?5?3?5lv?$DN?$CFd?0?5?$CFs?$AA@
CONST	SEGMENT DWORD USE32 PUBLIC 'CONST'
CONST	ENDS
;	COMDAT ??_C@_02PCIJFNDE@?$AN?6?$AA@
CONST	SEGMENT DWORD USE32 PUBLIC 'CONST'
CONST	ENDS
;	COMDAT ??_C@_01DNKMNLPK@?$HM?$AA@
CONST	SEGMENT DWORD USE32 PUBLIC 'CONST'
CONST	ENDS
;	COMDAT ??_C@_0DB@BEDINLHB@RANKING?4RANKING_DBF?4dbo?4RANKING_@
CONST	SEGMENT DWORD USE32 PUBLIC 'CONST'
CONST	ENDS
;	COMDAT ??_C@_0CN@HNMEKJGP@CDbManager?3?3UpdateGuildRanking?$LP?$KB@
CONST	SEGMENT DWORD USE32 PUBLIC 'CONST'
CONST	ENDS
;	COMDAT ??_C@_08LJMBJH@m_dwLogo?$AA@
CONST	SEGMENT DWORD USE32 PUBLIC 'CONST'
CONST	ENDS
;	COMDAT ??_C@_09NKFNPOPN@m_szGuild?$AA@
CONST	SEGMENT DWORD USE32 PUBLIC 'CONST'
CONST	ENDS
;	COMDAT ??_C@_08HDDJDJAG@m_szName?$AA@
CONST	SEGMENT DWORD USE32 PUBLIC 'CONST'
CONST	ENDS
;	COMDAT ??_C@_06LJIKPPDH@m_nWin?$AA@
CONST	SEGMENT DWORD USE32 PUBLIC 'CONST'
CONST	ENDS
;	COMDAT ??_C@_07IGCLHJHO@m_nLose?$AA@
CONST	SEGMENT DWORD USE32 PUBLIC 'CONST'
CONST	ENDS
;	COMDAT ??_C@_0N@BBOGLCAO@m_nSurrender?$AA@
CONST	SEGMENT DWORD USE32 PUBLIC 'CONST'
CONST	ENDS
;	COMDAT ??_C@_0L@EKKIFFNL@m_AvgLevel?$AA@
CONST	SEGMENT DWORD USE32 PUBLIC 'CONST'
CONST	ENDS
;	COMDAT ??_C@_0M@EMHJODPK@m_nWinPoint?$AA@
CONST	SEGMENT DWORD USE32 PUBLIC 'CONST'
CONST	ENDS
;	COMDAT ??_C@_0BG@CJGBCKAI@MAKE_RANKING_STR?5?8?$CFd?8?$AA@
CONST	SEGMENT DWORD USE32 PUBLIC 'CONST'
CONST	ENDS
;	COMDAT ??_C@_0CG@IPKIBOKB@CDbManager?3?3RankingDBUpdate?5?$CI?$CFs?$CJ@
CONST	SEGMENT DWORD USE32 PUBLIC 'CONST'
CONST	ENDS
;	COMDAT ??_C@_0BD@BGDLFGME@FAIL?5read?5ini?5?9?5?$CFs?$AA@
CONST	SEGMENT DWORD USE32 PUBLIC 'CONST'
CONST	ENDS
;	COMDAT ??_C@_0BJ@POMECNAN@EnableConnectionPooling?6?$AA@
CONST	SEGMENT DWORD USE32 PUBLIC 'CONST'
CONST	ENDS
;	COMDAT ??_C@_0BH@DEJALFOO@LoadRemoveItemList?4ini?$AA@
CONST	SEGMENT DWORD USE32 PUBLIC 'CONST'
CONST	ENDS
;	COMDAT ??_C@_0BN@LPGCIDJ@LoadRemoveItemList?4ini?5FAILE?$AA@
CONST	SEGMENT DWORD USE32 PUBLIC 'CONST'
CONST	ENDS
;	COMDAT ??_C@_0BC@NIICKMCD@ConvItem?5Success?$CB?$AA@
CONST	SEGMENT DWORD USE32 PUBLIC 'CONST'
CONST	ENDS
;	COMDAT ??_C@_0O@KGDKAKJB@propEvent?4inc?$AA@
CONST	SEGMENT DWORD USE32 PUBLIC 'CONST'
CONST	ENDS
;	COMDAT ??_C@_0O@OJGHAJEB@propevent?4inc?$AA@
CONST	SEGMENT DWORD USE32 PUBLIC 'CONST'
CONST	ENDS
;	COMDAT ??_C@_07NPJJGNLP@SquireD?$AA@
CONST	SEGMENT DWORD USE32 PUBLIC 'CONST'
CONST	ENDS
;	COMDAT ??_C@_0BC@FBAMFINP@?$CFY?1?$CFm?1?$CFd?5?$CFH?3?$CFM?3?$CFS?$AA@
CONST	SEGMENT DWORD USE32 PUBLIC 'CONST'
CONST	ENDS
;	COMDAT ??_C@_02DKCKIIND@?$CFs?$AA@
CONST	SEGMENT DWORD USE32 PUBLIC 'CONST'
CONST	ENDS
;	COMDAT ??_C@_0P@LOHDAGAN@ResourceFolder?$AA@
CONST	SEGMENT DWORD USE32 PUBLIC 'CONST'
CONST	ENDS
;	COMDAT ??_C@_0BF@HNCPIIMN@Folder?5not?5found?0?5?$CFs?$AA@
CONST	SEGMENT DWORD USE32 PUBLIC 'CONST'
CONST	ENDS
;	COMDAT ??_C@_06DJIHEMFI@status?$AA@
CONST	SEGMENT DWORD USE32 PUBLIC 'CONST'
CONST	ENDS
;	COMDAT ??_C@_03FIDBPJEF@Sys?$AA@
CONST	SEGMENT DWORD USE32 PUBLIC 'CONST'
CONST	ENDS
;	COMDAT ??_C@_04NNFNFJKG@dwId?$AA@
CONST	SEGMENT DWORD USE32 PUBLIC 'CONST'
CONST	ENDS
;	COMDAT ??_C@_07FENCDID@Account?$AA@
CONST	SEGMENT DWORD USE32 PUBLIC 'CONST'
CONST	ENDS
;	COMDAT ??_C@_0BD@MHKJENCN@DSN_NAME_CHARACTER?$AA@
CONST	SEGMENT DWORD USE32 PUBLIC 'CONST'
CONST	ENDS
;	COMDAT ??_C@_0BG@HLPNCKNG@DB_ADMIN_ID_CHARACTER?$AA@
CONST	SEGMENT DWORD USE32 PUBLIC 'CONST'
CONST	ENDS
;	COMDAT ??_C@_0N@CMCKBMLA@DSN_NAME_LOG?$AA@
CONST	SEGMENT DWORD USE32 PUBLIC 'CONST'
CONST	ENDS
;	COMDAT ??_C@_0BA@KGJHOKPM@DB_ADMIN_ID_LOG?$AA@
CONST	SEGMENT DWORD USE32 PUBLIC 'CONST'
CONST	ENDS
;	COMDAT ??_C@_0BE@GBLGMHPJ@DSN_NAME_BACKSYSTEM?$AA@
CONST	SEGMENT DWORD USE32 PUBLIC 'CONST'
CONST	ENDS
;	COMDAT ??_C@_0BH@ELGFLIAK@DB_ADMIN_ID_BACKSYSTEM?$AA@
CONST	SEGMENT DWORD USE32 PUBLIC 'CONST'
CONST	ENDS
;	COMDAT ??_C@_0O@KOOOCHBP@BACKENDSYSTEM?$AA@
CONST	SEGMENT DWORD USE32 PUBLIC 'CONST'
CONST	ENDS
;	COMDAT ??_C@_0BE@BCIALBJO@DSN_NAME_ITEMUPDATE?$AA@
CONST	SEGMENT DWORD USE32 PUBLIC 'CONST'
CONST	ENDS
;	COMDAT ??_C@_0BH@DIFDMOGN@DB_ADMIN_ID_ITEMUPDATE?$AA@
CONST	SEGMENT DWORD USE32 PUBLIC 'CONST'
CONST	ENDS
;	COMDAT ??_C@_0L@LKBMOMCF@ITEMUPDATE?$AA@
CONST	SEGMENT DWORD USE32 PUBLIC 'CONST'
CONST	ENDS
;	COMDAT ??_C@_0O@MKHDOMGP@ConvStartItem?$AA@
CONST	SEGMENT DWORD USE32 PUBLIC 'CONST'
CONST	ENDS
;	COMDAT ??_C@_09CCDMIBGH@SAVE_TEXT?$AA@
CONST	SEGMENT DWORD USE32 PUBLIC 'CONST'
CONST	ENDS
;	COMDAT ??_C@_0BA@EPDGNAAI@REMOVE_ITEM_ALL?$AA@
CONST	SEGMENT DWORD USE32 PUBLIC 'CONST'
CONST	ENDS
;	COMDAT ??_C@_0BE@EMCNIGPJ@REMOVE_ITEM_ALL_PAY?$AA@
CONST	SEGMENT DWORD USE32 PUBLIC 'CONST'
CONST	ENDS
;	COMDAT ??_C@_0BB@HDGGMKPA@PIERCING_CONFIRM?$AA@
CONST	SEGMENT DWORD USE32 PUBLIC 'CONST'
CONST	ENDS
;	COMDAT ??_C@_0BC@KCBPOKMH@BankToItemSendTbl?$AA@
CONST	SEGMENT DWORD USE32 PUBLIC 'CONST'
CONST	ENDS
;	COMDAT ??_C@_0BH@BEBEMMJA@InventoryToItemSendTbl?$AA@
CONST	SEGMENT DWORD USE32 PUBLIC 'CONST'
CONST	ENDS
;	COMDAT ??_C@_0BC@EDCGHAPB@__ITEM_REMOVE0203?$AA@
CONST	SEGMENT DWORD USE32 PUBLIC 'CONST'
CONST	ENDS
;	COMDAT ??_C@_0BE@DOEKBAIP@REMOVE_INVALID_ITEM?$AA@
CONST	SEGMENT DWORD USE32 PUBLIC 'CONST'
CONST	ENDS
;	COMDAT ??_C@_0L@ENKPLNGB@DB_PWD_LOG?$AA@
CONST	SEGMENT DWORD USE32 PUBLIC 'CONST'
CONST	ENDS
;	COMDAT ??_C@_0BB@MABONDJP@DB_PWD_CHARACTER?$AA@
CONST	SEGMENT DWORD USE32 PUBLIC 'CONST'
CONST	ENDS
;	COMDAT ??_C@_0P@NMDCKAML@DB_PWD_BACKEND?$AA@
CONST	SEGMENT DWORD USE32 PUBLIC 'CONST'
CONST	ENDS
;	COMDAT ??_C@_0BC@DHOINEKA@DB_PWD_ITEMUPDATE?$AA@
CONST	SEGMENT DWORD USE32 PUBLIC 'CONST'
CONST	ENDS
;	COMDAT ??_C@_07PMFDBAGJ@ITEM_ID?$AA@
CONST	SEGMENT DWORD USE32 PUBLIC 'CONST'
CONST	ENDS
;	COMDAT ??_C@_0M@EMECFGFM@RESTORE_PET?$AA@
CONST	SEGMENT DWORD USE32 PUBLIC 'CONST'
CONST	ENDS
;	COMDAT ??_C@_0N@NNJOKFBG@REMOVE_QUEST?$AA@
CONST	SEGMENT DWORD USE32 PUBLIC 'CONST'
CONST	ENDS
;	COMDAT ??_C@_0P@LPNJPKHP@masquerade?4prj?$AA@
CONST	SEGMENT DWORD USE32 PUBLIC 'CONST'
CONST	ENDS
;	COMDAT ??_C@_0BF@NHLHHCKP@Fail?5to?5open?5project?$AA@
CONST	SEGMENT DWORD USE32 PUBLIC 'CONST'
CONST	ENDS
;	COMDAT ??_C@_0BG@DBHAGMCH@BankToItemSendTbl?4txt?$AA@
CONST	SEGMENT DWORD USE32 PUBLIC 'CONST'
CONST	ENDS
;	COMDAT ??_C@_0BL@JKJMKOBM@InventoryToItemSendTbl?4txt?$AA@
CONST	SEGMENT DWORD USE32 PUBLIC 'CONST'
CONST	ENDS
;	COMDAT ??_C@_0P@CNCAIPIG@ItemRemove?4txt?$AA@
CONST	SEGMENT DWORD USE32 PUBLIC 'CONST'
CONST	ENDS
;	COMDAT ??_C@_08PIDMBOPH@conv?4txt?$AA@
CONST	SEGMENT DWORD USE32 PUBLIC 'CONST'
CONST	ENDS
;	COMDAT ??_C@_0P@OHOOLBKB@restorepet?4txt?$AA@
CONST	SEGMENT DWORD USE32 PUBLIC 'CONST'
CONST	ENDS
;	COMDAT ??_C@_0BF@FNEPOGMA@end?5?9?5restorepet?4txt?$AA@
CONST	SEGMENT DWORD USE32 PUBLIC 'CONST'
CONST	ENDS
;	COMDAT ??_C@_05GMBADOLI@Ready?$AA@
CONST	SEGMENT DWORD USE32 PUBLIC 'CONST'
CONST	ENDS
;	COMDAT ??_C@_0BG@MNCFBEJM@Fail?5to?5open?5file?0?5?$CFs?$AA@
CONST	SEGMENT DWORD USE32 PUBLIC 'CONST'
CONST	ENDS
xdata$x	SEGMENT DWORD USE32 PUBLIC 'CONST'
xdata$x	ENDS
;	COMDAT ?what@bad_weak_ptr@boost@@UBEPBDXZ
_TEXT	SEGMENT PARA USE32 PUBLIC 'CODE'
_TEXT	ENDS
;	COMDAT ??1sp_counted_base@detail@boost@@UAE@XZ
_TEXT	SEGMENT PARA USE32 PUBLIC 'CODE'
_TEXT	ENDS
;	COMDAT ?destroy@sp_counted_base@detail@boost@@UAEXXZ
_TEXT	SEGMENT PARA USE32 PUBLIC 'CODE'
_TEXT	ENDS
;	COMDAT ?add_ref_copy@sp_counted_base@detail@boost@@QAEXXZ
_TEXT	SEGMENT PARA USE32 PUBLIC 'CODE'
_TEXT	ENDS
;	COMDAT ?add_ref_lock@sp_counted_base@detail@boost@@QAE_NXZ
_TEXT	SEGMENT PARA USE32 PUBLIC 'CODE'
_TEXT	ENDS
;	COMDAT ?release@sp_counted_base@detail@boost@@QAEXXZ
_TEXT	SEGMENT PARA USE32 PUBLIC 'CODE'
_TEXT	ENDS
;	COMDAT ?weak_add_ref@sp_counted_base@detail@boost@@QAEXXZ
_TEXT	SEGMENT PARA USE32 PUBLIC 'CODE'
_TEXT	ENDS
;	COMDAT ?weak_release@sp_counted_base@detail@boost@@QAEXXZ
_TEXT	SEGMENT PARA USE32 PUBLIC 'CODE'
_TEXT	ENDS
;	COMDAT ?use_count@sp_counted_base@detail@boost@@QBEJXZ
_TEXT	SEGMENT PARA USE32 PUBLIC 'CODE'
_TEXT	ENDS
;	COMDAT ??_Gsp_counted_base@detail@boost@@UAEPAXI@Z
_TEXT	SEGMENT PARA USE32 PUBLIC 'CODE'
_TEXT	ENDS
;	COMDAT ?use_count@shared_count@detail@boost@@QBEJXZ
_TEXT	SEGMENT PARA USE32 PUBLIC 'CODE'
_TEXT	ENDS
;	COMDAT ??0bad_weak_ptr@boost@@QAE@XZ
_TEXT	SEGMENT PARA USE32 PUBLIC 'CODE'
_TEXT	ENDS
;	COMDAT ??1bad_weak_ptr@boost@@UAE@XZ
_TEXT	SEGMENT PARA USE32 PUBLIC 'CODE'
_TEXT	ENDS
;	COMDAT ??_Gbad_weak_ptr@boost@@UAEPAXI@Z
_TEXT	SEGMENT PARA USE32 PUBLIC 'CODE'
_TEXT	ENDS
;	COMDAT ?GetCooltime@CLordSkillComponent@@QAEHXZ
_TEXT	SEGMENT PARA USE32 PUBLIC 'CODE'
_TEXT	ENDS
;	COMDAT ?SetTick@CLordSkillComponent@@QAEXH@Z
_TEXT	SEGMENT PARA USE32 PUBLIC 'CODE'
_TEXT	ENDS
;	COMDAT ??1CLordSkillComponentExecutable@@UAE@XZ
_TEXT	SEGMENT PARA USE32 PUBLIC 'CODE'
_TEXT	ENDS
;	COMDAT ?Use@CLordSkillComponentExecutable@@IAEXXZ
_TEXT	SEGMENT PARA USE32 PUBLIC 'CODE'
_TEXT	ENDS
;	COMDAT ?Execute@CLordSkillComponentExecutable@@UAEXKKPAX@Z
_TEXT	SEGMENT PARA USE32 PUBLIC 'CODE'
_TEXT	ENDS
;	COMDAT ??_GCLordSkillComponentExecutable@@UAEPAXI@Z
_TEXT	SEGMENT PARA USE32 PUBLIC 'CODE'
_TEXT	ENDS
;	COMDAT ?GetDeposit@CCandidate@@QBE_JXZ
_TEXT	SEGMENT PARA USE32 PUBLIC 'CODE'
_TEXT	ENDS
;	COMDAT ?GetVote@CCandidate@@QAEHXZ
_TEXT	SEGMENT PARA USE32 PUBLIC 'CODE'
_TEXT	ENDS
;	COMDAT ?GetCreate@CCandidate@@QAEJXZ
_TEXT	SEGMENT PARA USE32 PUBLIC 'CODE'
_TEXT	ENDS
;	COMDAT ?IsRun@CQuiz@@QAEHXZ
_TEXT	SEGMENT PARA USE32 PUBLIC 'CODE'
_TEXT	ENDS
;	COMDAT ?Initialize@CMyTrace@@QAEXPAUHWND__@@PBDKK@Z
_TEXT	SEGMENT PARA USE32 PUBLIC 'CODE'
_TEXT	ENDS
;	COMDAT ??0_GUILDQUEST@@QAE@XZ
_TEXT	SEGMENT PARA USE32 PUBLIC 'CODE'
_TEXT	ENDS
;	COMDAT ?GetQueryObject@CDbController@@QAEPAVCQuery@@XZ
_TEXT	SEGMENT PARA USE32 PUBLIC 'CODE'
_TEXT	ENDS
;	COMDAT ??1CSPEvent@@UAE@XZ
_TEXT	SEGMENT PARA USE32 PUBLIC 'CODE'
_TEXT	ENDS
;	COMDAT ??_GCSPEvent@@UAEPAXI@Z
_TEXT	SEGMENT PARA USE32 PUBLIC 'CODE'
_TEXT	ENDS
;	COMDAT ??1CEventItem@@UAE@XZ
_TEXT	SEGMENT PARA USE32 PUBLIC 'CODE'
_TEXT	ENDS
;	COMDAT ??_GCEventItem@@UAEPAXI@Z
_TEXT	SEGMENT PARA USE32 PUBLIC 'CODE'
_TEXT	ENDS
;	COMDAT ?GetFlag@CEventGeneric@@QAEKXZ
_TEXT	SEGMENT PARA USE32 PUBLIC 'CODE'
_TEXT	ENDS
;	COMDAT ??0__TAXDETAIL@@QAE@XZ
_TEXT	SEGMENT PARA USE32 PUBLIC 'CODE'
_TEXT	ENDS
;	COMDAT ??1?$map@EPAU__TAXDETAIL@@U?$less@E@std@@V?$allocator@U?$pair@$$CBEPAU__TAXDETAIL@@@std@@@3@@std@@QAE@XZ
_TEXT	SEGMENT PARA USE32 PUBLIC 'CODE'
_TEXT	ENDS
;	COMDAT ?PostRequest@CGuildHouseDBMng@@QAEHHPAEHK@Z
_TEXT	SEGMENT PARA USE32 PUBLIC 'CODE'
_TEXT	ENDS
;	COMDAT ?IsEmpty@CCampusMng@@QAEHXZ
_TEXT	SEGMENT PARA USE32 PUBLIC 'CODE'
_TEXT	ENDS
;	COMDAT ?RemovePlayerId2CampusId@CCampusMng@@QAEXK@Z
_TEXT	SEGMENT PARA USE32 PUBLIC 'CODE'
_TEXT	ENDS
;	COMDAT ?PostRequest@CCampusHelper@@QAEHHPAEHK@Z
_TEXT	SEGMENT PARA USE32 PUBLIC 'CODE'
_TEXT	ENDS
;	COMDAT ?InitLanguageFromResource@@YAXPAUHINSTANCE__@@@Z
_TEXT	SEGMENT PARA USE32 PUBLIC 'CODE'
_TEXT	ENDS
;	COMDAT _WinMain@16
_TEXT	SEGMENT PARA USE32 PUBLIC 'CODE'
_TEXT	ENDS
;	COMDAT ?MyRegisterClass@@YAGPAUHINSTANCE__@@@Z
_TEXT	SEGMENT PARA USE32 PUBLIC 'CODE'
_TEXT	ENDS
;	COMDAT ?InitInstance@@YAHPAUHINSTANCE__@@H@Z
_TEXT	SEGMENT PARA USE32 PUBLIC 'CODE'
_TEXT	ENDS
;	COMDAT ?ExitInstance@@YAXXZ
_TEXT	SEGMENT PARA USE32 PUBLIC 'CODE'
_TEXT	ENDS
;	COMDAT ??_G?$MemPooler@VCGuildMember@@@@QAEPAXI@Z
_TEXT	SEGMENT PARA USE32 PUBLIC 'CODE'
_TEXT	ENDS
;	COMDAT ??_G?$MemPooler@VCGuild@@@@QAEPAXI@Z
_TEXT	SEGMENT PARA USE32 PUBLIC 'CODE'
_TEXT	ENDS
;	COMDAT ??_G?$MemPooler@VCMover@@@@QAEPAXI@Z
_TEXT	SEGMENT PARA USE32 PUBLIC 'CODE'
_TEXT	ENDS
;	COMDAT ?WndProc@@YGJPAUHWND__@@IIJ@Z
_TEXT	SEGMENT PARA USE32 PUBLIC 'CODE'
_TEXT	ENDS
;	COMDAT ??0?$map@EHU?$less@E@std@@V?$allocator@U?$pair@$$CBEH@std@@@2@@std@@QAE@ABV01@@Z
_TEXT	SEGMENT PARA USE32 PUBLIC 'CODE'
_TEXT	ENDS
;	COMDAT ??1?$map@EHU?$less@E@std@@V?$allocator@U?$pair@$$CBEH@std@@@2@@std@@QAE@XZ
_TEXT	SEGMENT PARA USE32 PUBLIC 'CODE'
_TEXT	ENDS
;	COMDAT ?Script@@YAHPBD@Z
_TEXT	SEGMENT PARA USE32 PUBLIC 'CODE'
_TEXT	ENDS
;	COMDAT ?LoadRemoveItem@@YAHPBD@Z
_TEXT	SEGMENT PARA USE32 PUBLIC 'CODE'
_TEXT	ENDS
;	COMDAT ?Replace@?$CStringT@DV?$StrTraitMFC@DV?$ChTraitsCRT@D@ATL@@@@@ATL@@QAEHPBD0@Z
_TEXT	SEGMENT PARA USE32 PUBLIC 'CODE'
_TEXT	ENDS
;	COMDAT ??8ATL@@YA_NABV?$CStringT@DV?$StrTraitMFC@DV?$ChTraitsCRT@D@ATL@@@@@0@PBD@Z
_TEXT	SEGMENT PARA USE32 PUBLIC 'CODE'
_TEXT	ENDS
;	COMDAT ?compare@?$basic_string@DU?$char_traits@D@std@@V?$allocator@D@2@@std@@QBEHABV12@@Z
_TEXT	SEGMENT PARA USE32 PUBLIC 'CODE'
_TEXT	ENDS
;	COMDAT ??0?$_Tree@V?$_Tmap_traits@EHU?$less@E@std@@V?$allocator@U?$pair@$$CBEH@std@@@2@$0A@@std@@@std@@QAE@ABV01@@Z
_TEXT	SEGMENT PARA USE32 PUBLIC 'CODE'
_TEXT	ENDS
;	COMDAT ??1?$_Tree@V?$_Tmap_traits@EHU?$less@E@std@@V?$allocator@U?$pair@$$CBEH@std@@@2@$0A@@std@@@std@@QAE@XZ
_TEXT	SEGMENT PARA USE32 PUBLIC 'CODE'
_TEXT	ENDS
;	COMDAT ?insert@?$_Tree@V?$_Tset_traits@V?$basic_string@DU?$char_traits@D@std@@V?$allocator@D@2@@std@@U?$less@V?$basic_string@DU?$char_traits@D@std@@V?$allocator@D@2@@std@@@2@V?$allocator@V?$basic_string@DU?$char_traits@D@std@@V?$allocator@D@2@@std@@@2@$0A@@std@@@std@@QAE?AU?$pair@Viterator@?$_Tree@V?$_Tset_traits@V?$basic_string@DU?$char_traits@D@std@@V?$allocator@D@2@@std@@U?$less@V?$basic_string@DU?$char_traits@D@std@@V?$allocator@D@2@@std@@@2@V?$allocator@V?$basic_string@DU?$char_traits@D@std@@V?$allocator@D@2@@std@@@2@$0A@@std@@@std@@_N@2@ABV?$basic_string@DU?$char_traits@D@std@@V?$allocator@D@2@@2@@Z
_TEXT	SEGMENT PARA USE32 PUBLIC 'CODE'
_TEXT	ENDS
;	COMDAT ??1?$MemPooler@VCMover@@@@QAE@XZ
_TEXT	SEGMENT PARA USE32 PUBLIC 'CODE'
_TEXT	ENDS
;	COMDAT ?end@?$_Tree@V?$_Tmap_traits@KP8CDPLoginSrvr@@AEXAAVCAr@@KPAEK@ZU?$less@K@std@@V?$allocator@U?$pair@$$CBKP8CDPLoginSrvr@@AEXAAVCAr@@KPAEK@Z@std@@@4@$0A@@std@@@std@@QAE?AViterator@12@XZ
_TEXT	SEGMENT PARA USE32 PUBLIC 'CODE'
_TEXT	ENDS
;	COMDAT ?find@?$_Tree@V?$_Tmap_traits@KP8CDPLoginSrvr@@AEXAAVCAr@@KPAEK@ZU?$less@K@std@@V?$allocator@U?$pair@$$CBKP8CDPLoginSrvr@@AEXAAVCAr@@KPAEK@Z@std@@@4@$0A@@std@@@std@@QAE?AViterator@12@ABK@Z
_TEXT	SEGMENT PARA USE32 PUBLIC 'CODE'
_TEXT	ENDS
;	COMDAT ??Citerator@?$_Tree@V?$_Tmap_traits@KP8CDPLoginSrvr@@AEXAAVCAr@@KPAEK@ZU?$less@K@std@@V?$allocator@U?$pair@$$CBKP8CDPLoginSrvr@@AEXAAVCAr@@KPAEK@Z@std@@@4@$0A@@std@@@std@@QBEPAU?$pair@$$CBKP8CDPLoginSrvr@@AEXAAVCAr@@KPAEK@Z@2@XZ
_TEXT	SEGMENT PARA USE32 PUBLIC 'CODE'
_TEXT	ENDS
;	COMDAT ??9const_iterator@?$_Tree@V?$_Tmap_traits@KP8CDPLoginSrvr@@AEXAAVCAr@@KPAEK@ZU?$less@K@std@@V?$allocator@U?$pair@$$CBKP8CDPLoginSrvr@@AEXAAVCAr@@KPAEK@Z@std@@@4@$0A@@std@@@std@@QBE_NABV012@@Z
_TEXT	SEGMENT PARA USE32 PUBLIC 'CODE'
_TEXT	ENDS
;	COMDAT ??R?$less@PAVsp_counted_base@detail@boost@@@std@@QBE_NABQAVsp_counted_base@detail@boost@@0@Z
_TEXT	SEGMENT PARA USE32 PUBLIC 'CODE'
_TEXT	ENDS
;	COMDAT ?size@?$vector@PAVCLordSkillComponentExecutable@@V?$allocator@PAVCLordSkillComponentExecutable@@@std@@@std@@QBEIXZ
_TEXT	SEGMENT PARA USE32 PUBLIC 'CODE'
_TEXT	ENDS
;	COMDAT ?size@?$vector@V?$shared_ptr@VCCandidate@@@boost@@V?$allocator@V?$shared_ptr@VCCandidate@@@boost@@@std@@@std@@QBEIXZ
_TEXT	SEGMENT PARA USE32 PUBLIC 'CODE'
_TEXT	ENDS
;	COMDAT ??0?$vector@MV?$allocator@M@std@@@std@@QAE@XZ
_TEXT	SEGMENT PARA USE32 PUBLIC 'CODE'
_TEXT	ENDS
;	COMDAT ??1?$vector@MV?$allocator@M@std@@@std@@QAE@XZ
_TEXT	SEGMENT PARA USE32 PUBLIC 'CODE'
_TEXT	ENDS
;	COMDAT ??0?$vector@HV?$allocator@H@std@@@std@@QAE@XZ
_TEXT	SEGMENT PARA USE32 PUBLIC 'CODE'
_TEXT	ENDS
;	COMDAT ??1?$vector@HV?$allocator@H@std@@@std@@QAE@XZ
_TEXT	SEGMENT PARA USE32 PUBLIC 'CODE'
_TEXT	ENDS
;	COMDAT ??C?$shared_ptr@VCCandidate@@@boost@@QBEPAVCCandidate@@XZ
_TEXT	SEGMENT PARA USE32 PUBLIC 'CODE'
_TEXT	ENDS
;	COMDAT ?size@?$vector@PAVCLEComponent@@V?$allocator@PAVCLEComponent@@@std@@@std@@QBEIXZ
_TEXT	SEGMENT PARA USE32 PUBLIC 'CODE'
_TEXT	ENDS
;	COMDAT ?size@?$vector@U?$pair@M_J@std@@V?$allocator@U?$pair@M_J@std@@@2@@std@@QBEIXZ
_TEXT	SEGMENT PARA USE32 PUBLIC 'CODE'
_TEXT	ENDS
;	COMDAT ?size@?$_Tree@V?$_Tmap_traits@KPAU_PlayerData@@U?$less@K@std@@V?$allocator@U?$pair@$$CBKPAU_PlayerData@@@std@@@3@$0A@@std@@@std@@QBEIXZ
_TEXT	SEGMENT PARA USE32 PUBLIC 'CODE'
_TEXT	ENDS
;	COMDAT ?end@?$_Tree@V?$_Tmap_traits@KP8CDPTrans@@AEXAAVCAr@@KKKPAEK@ZU?$less@K@std@@V?$allocator@U?$pair@$$CBKP8CDPTrans@@AEXAAVCAr@@KKKPAEK@Z@std@@@4@$0A@@std@@@std@@QAE?AViterator@12@XZ
_TEXT	SEGMENT PARA USE32 PUBLIC 'CODE'
_TEXT	ENDS
;	COMDAT ?find@?$_Tree@V?$_Tmap_traits@KP8CDPTrans@@AEXAAVCAr@@KKKPAEK@ZU?$less@K@std@@V?$allocator@U?$pair@$$CBKP8CDPTrans@@AEXAAVCAr@@KKKPAEK@Z@std@@@4@$0A@@std@@@std@@QAE?AViterator@12@ABK@Z
_TEXT	SEGMENT PARA USE32 PUBLIC 'CODE'
_TEXT	ENDS
;	COMDAT ??Citerator@?$_Tree@V?$_Tmap_traits@KP8CDPTrans@@AEXAAVCAr@@KKKPAEK@ZU?$less@K@std@@V?$allocator@U?$pair@$$CBKP8CDPTrans@@AEXAAVCAr@@KKKPAEK@Z@std@@@4@$0A@@std@@@std@@QBEPAU?$pair@$$CBKP8CDPTrans@@AEXAAVCAr@@KKKPAEK@Z@2@XZ
_TEXT	SEGMENT PARA USE32 PUBLIC 'CODE'
_TEXT	ENDS
;	COMDAT ??9const_iterator@?$_Tree@V?$_Tmap_traits@KP8CDPTrans@@AEXAAVCAr@@KKKPAEK@ZU?$less@K@std@@V?$allocator@U?$pair@$$CBKP8CDPTrans@@AEXAAVCAr@@KKKPAEK@Z@std@@@4@$0A@@std@@@std@@QBE_NABV012@@Z
_TEXT	SEGMENT PARA USE32 PUBLIC 'CODE'
_TEXT	ENDS
;	COMDAT ?end@?$_Tree@V?$_Tmap_traits@KP8CDPAccountClient@@AEXAAVCAr@@PAEK@ZU?$less@K@std@@V?$allocator@U?$pair@$$CBKP8CDPAccountClient@@AEXAAVCAr@@PAEK@Z@std@@@4@$0A@@std@@@std@@QAE?AViterator@12@XZ
_TEXT	SEGMENT PARA USE32 PUBLIC 'CODE'
_TEXT	ENDS
;	COMDAT ?find@?$_Tree@V?$_Tmap_traits@KP8CDPAccountClient@@AEXAAVCAr@@PAEK@ZU?$less@K@std@@V?$allocator@U?$pair@$$CBKP8CDPAccountClient@@AEXAAVCAr@@PAEK@Z@std@@@4@$0A@@std@@@std@@QAE?AViterator@12@ABK@Z
_TEXT	SEGMENT PARA USE32 PUBLIC 'CODE'
_TEXT	ENDS
;	COMDAT ??Citerator@?$_Tree@V?$_Tmap_traits@KP8CDPAccountClient@@AEXAAVCAr@@PAEK@ZU?$less@K@std@@V?$allocator@U?$pair@$$CBKP8CDPAccountClient@@AEXAAVCAr@@PAEK@Z@std@@@4@$0A@@std@@@std@@QBEPAU?$pair@$$CBKP8CDPAccountClient@@AEXAAVCAr@@PAEK@Z@2@XZ
_TEXT	SEGMENT PARA USE32 PUBLIC 'CODE'
_TEXT	ENDS
;	COMDAT ??9const_iterator@?$_Tree@V?$_Tmap_traits@KP8CDPAccountClient@@AEXAAVCAr@@PAEK@ZU?$less@K@std@@V?$allocator@U?$pair@$$CBKP8CDPAccountClient@@AEXAAVCAr@@PAEK@Z@std@@@4@$0A@@std@@@std@@QBE_NABV012@@Z
_TEXT	SEGMENT PARA USE32 PUBLIC 'CODE'
_TEXT	ENDS
;	COMDAT ??1?$MemPooler@VCGuildMember@@@@QAE@XZ
_TEXT	SEGMENT PARA USE32 PUBLIC 'CODE'
_TEXT	ENDS
;	COMDAT ?Alloc@?$MemPooler@VCGuildMember@@@@QAEPAVCGuildMember@@XZ
_TEXT	SEGMENT PARA USE32 PUBLIC 'CODE'
_TEXT	ENDS
;	COMDAT ?Free@?$MemPooler@VCGuildMember@@@@QAEHPAVCGuildMember@@@Z
_TEXT	SEGMENT PARA USE32 PUBLIC 'CODE'
_TEXT	ENDS
;	COMDAT ?size@?$_Tree@V?$_Tmap_traits@KPAVCGuildMember@@U?$less@K@std@@V?$allocator@U?$pair@$$CBKPAVCGuildMember@@@std@@@3@$0A@@std@@@std@@QBEIXZ
_TEXT	SEGMENT PARA USE32 PUBLIC 'CODE'
_TEXT	ENDS
;	COMDAT ??1?$MemPooler@VCGuild@@@@QAE@XZ
_TEXT	SEGMENT PARA USE32 PUBLIC 'CODE'
_TEXT	ENDS
;	COMDAT ?Alloc@?$MemPooler@VCGuild@@@@QAEPAVCGuild@@XZ
_TEXT	SEGMENT PARA USE32 PUBLIC 'CODE'
_TEXT	ENDS
;	COMDAT ?Free@?$MemPooler@VCGuild@@@@QAEHPAVCGuild@@@Z
_TEXT	SEGMENT PARA USE32 PUBLIC 'CODE'
_TEXT	ENDS
;	COMDAT ?size@?$_Tree@V?$_Tmap_traits@KPAVCGuild@@U?$less@K@std@@V?$allocator@U?$pair@$$CBKPAVCGuild@@@std@@@3@$0A@@std@@@std@@QBEIXZ
_TEXT	SEGMENT PARA USE32 PUBLIC 'CODE'
_TEXT	ENDS
;	COMDAT ?end@?$_Tree@V?$_Tmap_traits@KP8CDPCoreSrvr@@AEXAAVCAr@@PAEK@ZU?$less@K@std@@V?$allocator@U?$pair@$$CBKP8CDPCoreSrvr@@AEXAAVCAr@@PAEK@Z@std@@@4@$0A@@std@@@std@@QAE?AViterator@12@XZ
_TEXT	SEGMENT PARA USE32 PUBLIC 'CODE'
_TEXT	ENDS
;	COMDAT ?find@?$_Tree@V?$_Tmap_traits@KP8CDPCoreSrvr@@AEXAAVCAr@@PAEK@ZU?$less@K@std@@V?$allocator@U?$pair@$$CBKP8CDPCoreSrvr@@AEXAAVCAr@@PAEK@Z@std@@@4@$0A@@std@@@std@@QAE?AViterator@12@ABK@Z
_TEXT	SEGMENT PARA USE32 PUBLIC 'CODE'
_TEXT	ENDS
;	COMDAT ??Citerator@?$_Tree@V?$_Tmap_traits@KP8CDPCoreSrvr@@AEXAAVCAr@@PAEK@ZU?$less@K@std@@V?$allocator@U?$pair@$$CBKP8CDPCoreSrvr@@AEXAAVCAr@@PAEK@Z@std@@@4@$0A@@std@@@std@@QBEPAU?$pair@$$CBKP8CDPCoreSrvr@@AEXAAVCAr@@PAEK@Z@2@XZ
_TEXT	SEGMENT PARA USE32 PUBLIC 'CODE'
_TEXT	ENDS
;	COMDAT ??9const_iterator@?$_Tree@V?$_Tmap_traits@KP8CDPCoreSrvr@@AEXAAVCAr@@PAEK@ZU?$less@K@std@@V?$allocator@U?$pair@$$CBKP8CDPCoreSrvr@@AEXAAVCAr@@PAEK@Z@std@@@4@$0A@@std@@@std@@QBE_NABV012@@Z
_TEXT	SEGMENT PARA USE32 PUBLIC 'CODE'
_TEXT	ENDS
;	COMDAT ??0?$map@EPAU__TAXDETAIL@@U?$less@E@std@@V?$allocator@U?$pair@$$CBEPAU__TAXDETAIL@@@std@@@3@@std@@QAE@XZ
_TEXT	SEGMENT PARA USE32 PUBLIC 'CODE'
_TEXT	ENDS
;	COMDAT ??1?$_Tree@V?$_Tmap_traits@EPAU__TAXDETAIL@@U?$less@E@std@@V?$allocator@U?$pair@$$CBEPAU__TAXDETAIL@@@std@@@3@$0A@@std@@@std@@QAE@XZ
_TEXT	SEGMENT PARA USE32 PUBLIC 'CODE'
_TEXT	ENDS
;	COMDAT ?insert@?$_Tree@V?$_Tmap_traits@EPAU__TAXDETAIL@@U?$less@E@std@@V?$allocator@U?$pair@$$CBEPAU__TAXDETAIL@@@std@@@3@$0A@@std@@@std@@QAE?AU?$pair@Viterator@?$_Tree@V?$_Tmap_traits@EPAU__TAXDETAIL@@U?$less@E@std@@V?$allocator@U?$pair@$$CBEPAU__TAXDETAIL@@@std@@@3@$0A@@std@@@std@@_N@2@ABU?$pair@$$CBEPAU__TAXDETAIL@@@2@@Z
_TEXT	SEGMENT PARA USE32 PUBLIC 'CODE'
_TEXT	ENDS
;	COMDAT ?size@?$vector@UGuildHouse_Furniture_Info@CGuildHouseBase@@V?$allocator@UGuildHouse_Furniture_Info@CGuildHouseBase@@@std@@@std@@QBEIXZ
_TEXT	SEGMENT PARA USE32 PUBLIC 'CODE'
_TEXT	ENDS
;	COMDAT ??A?$vector@UGuildHouse_Furniture_Info@CGuildHouseBase@@V?$allocator@UGuildHouse_Furniture_Info@CGuildHouseBase@@@std@@@std@@QAEAAUGuildHouse_Furniture_Info@CGuildHouseBase@@I@Z
_TEXT	SEGMENT PARA USE32 PUBLIC 'CODE'
_TEXT	ENDS
;	COMDAT ?empty@?$_Tree@V?$_Tmap_traits@KPAVCGuildHouseBase@@U?$less@K@std@@V?$allocator@U?$pair@$$CBKPAVCGuildHouseBase@@@std@@@3@$0A@@std@@@std@@QBE_NXZ
_TEXT	SEGMENT PARA USE32 PUBLIC 'CODE'
_TEXT	ENDS
;	COMDAT ?insert@?$_Tree@V?$_Tmap_traits@KPAVCGuildHouseBase@@U?$less@K@std@@V?$allocator@U?$pair@$$CBKPAVCGuildHouseBase@@@std@@@3@$0A@@std@@@std@@QAE?AU?$pair@Viterator@?$_Tree@V?$_Tmap_traits@KPAVCGuildHouseBase@@U?$less@K@std@@V?$allocator@U?$pair@$$CBKPAVCGuildHouseBase@@@std@@@3@$0A@@std@@@std@@_N@2@ABU?$pair@$$CBKPAVCGuildHouseBase@@@2@@Z
_TEXT	SEGMENT PARA USE32 PUBLIC 'CODE'
_TEXT	ENDS
;	COMDAT ?size@?$_Tree@V?$_Tmap_traits@KPAVCCampusMember@@U?$less@K@std@@V?$allocator@U?$pair@$$CBKPAVCCampusMember@@@std@@@3@$0A@@std@@@std@@QBEIXZ
_TEXT	SEGMENT PARA USE32 PUBLIC 'CODE'
_TEXT	ENDS
;	COMDAT ?empty@?$_Tree@V?$_Tmap_traits@KPAVCCampus@@U?$less@K@std@@V?$allocator@U?$pair@$$CBKPAVCCampus@@@std@@@3@$0A@@std@@@std@@QBE_NXZ
_TEXT	SEGMENT PARA USE32 PUBLIC 'CODE'
_TEXT	ENDS
;	COMDAT ?erase@?$_Tree@V?$_Tmap_traits@KKU?$less@K@std@@V?$allocator@U?$pair@$$CBKK@std@@@2@$0A@@std@@@std@@QAEIABK@Z
_TEXT	SEGMENT PARA USE32 PUBLIC 'CODE'
_TEXT	ENDS
;	COMDAT ?Compare@?$CStringT@DV?$StrTraitMFC@DV?$ChTraitsCRT@D@ATL@@@@@ATL@@QBEHPBD@Z
_TEXT	SEGMENT PARA USE32 PUBLIC 'CODE'
_TEXT	ENDS
;	COMDAT ?StringFindString@?$ChTraitsCRT@D@ATL@@SAPADPADPBD@Z
_TEXT	SEGMENT PARA USE32 PUBLIC 'CODE'
_TEXT	ENDS
;	COMDAT ?SafeStringLen@?$ChTraitsCRT@D@ATL@@SAHPBD@Z
_TEXT	SEGMENT PARA USE32 PUBLIC 'CODE'
_TEXT	ENDS
;	COMDAT ?compare@?$basic_string@DU?$char_traits@D@std@@V?$allocator@D@2@@std@@QBEHIIPBDI@Z
_TEXT	SEGMENT PARA USE32 PUBLIC 'CODE'
_TEXT	ENDS
;	COMDAT ?get_allocator@?$_Tree@V?$_Tmap_traits@EHU?$less@E@std@@V?$allocator@U?$pair@$$CBEH@std@@@2@$0A@@std@@@std@@QBE?AV?$allocator@U?$pair@$$CBEH@std@@@2@XZ
_TEXT	SEGMENT PARA USE32 PUBLIC 'CODE'
_TEXT	ENDS
;	COMDAT ?key_comp@?$_Tree@V?$_Tmap_traits@EHU?$less@E@std@@V?$allocator@U?$pair@$$CBEH@std@@@2@$0A@@std@@@std@@QBE?AU?$less@E@2@XZ
_TEXT	SEGMENT PARA USE32 PUBLIC 'CODE'
_TEXT	ENDS
;	COMDAT ?_Copy@?$_Tree@V?$_Tmap_traits@EHU?$less@E@std@@V?$allocator@U?$pair@$$CBEH@std@@@2@$0A@@std@@@std@@IAEXABV12@@Z
_TEXT	SEGMENT PARA USE32 PUBLIC 'CODE'
_TEXT	ENDS
;	COMDAT ?_Init@?$_Tree@V?$_Tmap_traits@EHU?$less@E@std@@V?$allocator@U?$pair@$$CBEH@std@@@2@$0A@@std@@@std@@IAEXXZ
_TEXT	SEGMENT PARA USE32 PUBLIC 'CODE'
_TEXT	ENDS
;	COMDAT ?_Tidy@?$_Tree@V?$_Tmap_traits@EHU?$less@E@std@@V?$allocator@U?$pair@$$CBEH@std@@@2@$0A@@std@@@std@@IAEXXZ
_TEXT	SEGMENT PARA USE32 PUBLIC 'CODE'
_TEXT	ENDS
;	COMDAT ??0?$_Tree_val@V?$_Tmap_traits@EHU?$less@E@std@@V?$allocator@U?$pair@$$CBEH@std@@@2@$0A@@std@@@std@@IAE@ABU?$less@E@1@V?$allocator@U?$pair@$$CBEH@std@@@1@@Z
_TEXT	SEGMENT PARA USE32 PUBLIC 'CODE'
_TEXT	ENDS
;	COMDAT ??R?$less@E@std@@QBE_NABE0@Z
_TEXT	SEGMENT PARA USE32 PUBLIC 'CODE'
_TEXT	ENDS
;	COMDAT ?_Isnil@?$_Tree@V?$_Tset_traits@V?$basic_string@DU?$char_traits@D@std@@V?$allocator@D@2@@std@@U?$less@V?$basic_string@DU?$char_traits@D@std@@V?$allocator@D@2@@std@@@2@V?$allocator@V?$basic_string@DU?$char_traits@D@std@@V?$allocator@D@2@@std@@@2@$0A@@std@@@std@@KAAADPAU_Node@?$_Tree_nod@V?$_Tset_traits@V?$basic_string@DU?$char_traits@D@std@@V?$allocator@D@2@@std@@U?$less@V?$basic_string@DU?$char_traits@D@std@@V?$allocator@D@2@@std@@@2@V?$allocator@V?$basic_string@DU?$char_traits@D@std@@V?$allocator@D@2@@std@@@2@$0A@@std@@@2@@Z
_TEXT	SEGMENT PARA USE32 PUBLIC 'CODE'
_TEXT	ENDS
;	COMDAT ?_Key@?$_Tree@V?$_Tset_traits@V?$basic_string@DU?$char_traits@D@std@@V?$allocator@D@2@@std@@U?$less@V?$basic_string@DU?$char_traits@D@std@@V?$allocator@D@2@@std@@@2@V?$allocator@V?$basic_string@DU?$char_traits@D@std@@V?$allocator@D@2@@std@@@2@$0A@@std@@@std@@KAABV?$basic_string@DU?$char_traits@D@std@@V?$allocator@D@2@@2@PAU_Node@?$_Tree_nod@V?$_Tset_traits@V?$basic_string@DU?$char_traits@D@std@@V?$allocator@D@2@@std@@U?$less@V?$basic_string@DU?$char_traits@D@std@@V?$allocator@D@2@@std@@@2@V?$allocator@V?$basic_string@DU?$char_traits@D@std@@V?$allocator@D@2@@std@@@2@$0A@@std@@@2@@Z
_TEXT	SEGMENT PARA USE32 PUBLIC 'CODE'
_TEXT	ENDS
;	COMDAT ?_Left@?$_Tree@V?$_Tset_traits@V?$basic_string@DU?$char_traits@D@std@@V?$allocator@D@2@@std@@U?$less@V?$basic_string@DU?$char_traits@D@std@@V?$allocator@D@2@@std@@@2@V?$allocator@V?$basic_string@DU?$char_traits@D@std@@V?$allocator@D@2@@std@@@2@$0A@@std@@@std@@KAAAPAU_Node@?$_Tree_nod@V?$_Tset_traits@V?$basic_string@DU?$char_traits@D@std@@V?$allocator@D@2@@std@@U?$less@V?$basic_string@DU?$char_traits@D@std@@V?$allocator@D@2@@std@@@2@V?$allocator@V?$basic_string@DU?$char_traits@D@std@@V?$allocator@D@2@@std@@@2@$0A@@std@@@2@PAU342@@Z
_TEXT	SEGMENT PARA USE32 PUBLIC 'CODE'
_TEXT	ENDS
;	COMDAT ?_Right@?$_Tree@V?$_Tset_traits@V?$basic_string@DU?$char_traits@D@std@@V?$allocator@D@2@@std@@U?$less@V?$basic_string@DU?$char_traits@D@std@@V?$allocator@D@2@@std@@@2@V?$allocator@V?$basic_string@DU?$char_traits@D@std@@V?$allocator@D@2@@std@@@2@$0A@@std@@@std@@KAAAPAU_Node@?$_Tree_nod@V?$_Tset_traits@V?$basic_string@DU?$char_traits@D@std@@V?$allocator@D@2@@std@@U?$less@V?$basic_string@DU?$char_traits@D@std@@V?$allocator@D@2@@std@@@2@V?$allocator@V?$basic_string@DU?$char_traits@D@std@@V?$allocator@D@2@@std@@@2@$0A@@std@@@2@PAU342@@Z
_TEXT	SEGMENT PARA USE32 PUBLIC 'CODE'
_TEXT	ENDS
;	COMDAT ?begin@?$_Tree@V?$_Tset_traits@V?$basic_string@DU?$char_traits@D@std@@V?$allocator@D@2@@std@@U?$less@V?$basic_string@DU?$char_traits@D@std@@V?$allocator@D@2@@std@@@2@V?$allocator@V?$basic_string@DU?$char_traits@D@std@@V?$allocator@D@2@@std@@@2@$0A@@std@@@std@@QAE?AViterator@12@XZ
_TEXT	SEGMENT PARA USE32 PUBLIC 'CODE'
_TEXT	ENDS
;	COMDAT ?_Insert@?$_Tree@V?$_Tset_traits@V?$basic_string@DU?$char_traits@D@std@@V?$allocator@D@2@@std@@U?$less@V?$basic_string@DU?$char_traits@D@std@@V?$allocator@D@2@@std@@@2@V?$allocator@V?$basic_string@DU?$char_traits@D@std@@V?$allocator@D@2@@std@@@2@$0A@@std@@@std@@IAE?AViterator@12@_NPAU_Node@?$_Tree_nod@V?$_Tset_traits@V?$basic_string@DU?$char_traits@D@std@@V?$allocator@D@2@@std@@U?$less@V?$basic_string@DU?$char_traits@D@std@@V?$allocator@D@2@@std@@@2@V?$allocator@V?$basic_string@DU?$char_traits@D@std@@V?$allocator@D@2@@std@@@2@$0A@@std@@@2@ABV?$basic_string@DU?$char_traits@D@std@@V?$allocator@D@2@@2@@Z
_TEXT	SEGMENT PARA USE32 PUBLIC 'CODE'
_TEXT	ENDS
;	COMDAT ?_Root@?$_Tree@V?$_Tset_traits@V?$basic_string@DU?$char_traits@D@std@@V?$allocator@D@2@@std@@U?$less@V?$basic_string@DU?$char_traits@D@std@@V?$allocator@D@2@@std@@@2@V?$allocator@V?$basic_string@DU?$char_traits@D@std@@V?$allocator@D@2@@std@@@2@$0A@@std@@@std@@IAEAAPAU_Node@?$_Tree_nod@V?$_Tset_traits@V?$basic_string@DU?$char_traits@D@std@@V?$allocator@D@2@@std@@U?$less@V?$basic_string@DU?$char_traits@D@std@@V?$allocator@D@2@@std@@@2@V?$allocator@V?$basic_string@DU?$char_traits@D@std@@V?$allocator@D@2@@std@@@2@$0A@@std@@@2@XZ
_TEXT	SEGMENT PARA USE32 PUBLIC 'CODE'
_TEXT	ENDS
;	COMDAT ?_Kfn@?$_Tset_traits@V?$basic_string@DU?$char_traits@D@std@@V?$allocator@D@2@@std@@U?$less@V?$basic_string@DU?$char_traits@D@std@@V?$allocator@D@2@@std@@@2@V?$allocator@V?$basic_string@DU?$char_traits@D@std@@V?$allocator@D@2@@std@@@2@$0A@@std@@SAABV?$basic_string@DU?$char_traits@D@std@@V?$allocator@D@2@@2@ABV32@@Z
_TEXT	SEGMENT PARA USE32 PUBLIC 'CODE'
_TEXT	ENDS
;	COMDAT ??1?$list@PAXV?$allocator@PAX@std@@@std@@QAE@XZ
_TEXT	SEGMENT PARA USE32 PUBLIC 'CODE'
_TEXT	ENDS
;	COMDAT ?Destroy@?$MemPooler@VCMover@@@@IAEXXZ
_TEXT	SEGMENT PARA USE32 PUBLIC 'CODE'
_TEXT	ENDS
;	COMDAT ??0?$allocator@H@std@@QAE@XZ
_TEXT	SEGMENT PARA USE32 PUBLIC 'CODE'
_TEXT	ENDS
;	COMDAT ?_Key@?$_Tree@V?$_Tmap_traits@KP8CDPLoginSrvr@@AEXAAVCAr@@KPAEK@ZU?$less@K@std@@V?$allocator@U?$pair@$$CBKP8CDPLoginSrvr@@AEXAAVCAr@@KPAEK@Z@std@@@4@$0A@@std@@@std@@KAABKPAU_Node@?$_Tree_nod@V?$_Tmap_traits@KP8CDPLoginSrvr@@AEXAAVCAr@@KPAEK@ZU?$less@K@std@@V?$allocator@U?$pair@$$CBKP8CDPLoginSrvr@@AEXAAVCAr@@KPAEK@Z@std@@@4@$0A@@std@@@2@@Z
_TEXT	SEGMENT PARA USE32 PUBLIC 'CODE'
_TEXT	ENDS
;	COMDAT ?lower_bound@?$_Tree@V?$_Tmap_traits@KP8CDPLoginSrvr@@AEXAAVCAr@@KPAEK@ZU?$less@K@std@@V?$allocator@U?$pair@$$CBKP8CDPLoginSrvr@@AEXAAVCAr@@KPAEK@Z@std@@@4@$0A@@std@@@std@@QAE?AViterator@12@ABK@Z
_TEXT	SEGMENT PARA USE32 PUBLIC 'CODE'
_TEXT	ENDS
;	COMDAT ??0iterator@?$_Tree@V?$_Tmap_traits@KP8CDPLoginSrvr@@AEXAAVCAr@@KPAEK@ZU?$less@K@std@@V?$allocator@U?$pair@$$CBKP8CDPLoginSrvr@@AEXAAVCAr@@KPAEK@Z@std@@@4@$0A@@std@@@std@@QAE@PAU_Node@?$_Tree_nod@V?$_Tmap_traits@KP8CDPLoginSrvr@@AEXAAVCAr@@KPAEK@ZU?$less@K@std@@V?$allocator@U?$pair@$$CBKP8CDPLoginSrvr@@AEXAAVCAr@@KPAEK@Z@std@@@4@$0A@@std@@@2@@Z
_TEXT	SEGMENT PARA USE32 PUBLIC 'CODE'
_TEXT	ENDS
;	COMDAT ??Diterator@?$_Tree@V?$_Tmap_traits@KP8CDPLoginSrvr@@AEXAAVCAr@@KPAEK@ZU?$less@K@std@@V?$allocator@U?$pair@$$CBKP8CDPLoginSrvr@@AEXAAVCAr@@KPAEK@Z@std@@@4@$0A@@std@@@std@@QBEAAU?$pair@$$CBKP8CDPLoginSrvr@@AEXAAVCAr@@KPAEK@Z@2@XZ
_TEXT	SEGMENT PARA USE32 PUBLIC 'CODE'
_TEXT	ENDS
;	COMDAT ??8const_iterator@?$_Tree@V?$_Tmap_traits@KP8CDPLoginSrvr@@AEXAAVCAr@@KPAEK@ZU?$less@K@std@@V?$allocator@U?$pair@$$CBKP8CDPLoginSrvr@@AEXAAVCAr@@KPAEK@Z@std@@@4@$0A@@std@@@std@@QBE_NABV012@@Z
_TEXT	SEGMENT PARA USE32 PUBLIC 'CODE'
_TEXT	ENDS
;	COMDAT ?_Mynode@const_iterator@?$_Tree@V?$_Tmap_traits@KP8CDPLoginSrvr@@AEXAAVCAr@@KPAEK@ZU?$less@K@std@@V?$allocator@U?$pair@$$CBKP8CDPLoginSrvr@@AEXAAVCAr@@KPAEK@Z@std@@@4@$0A@@std@@@std@@QBEPAU_Node@?$_Tree_nod@V?$_Tmap_traits@KP8CDPLoginSrvr@@AEXAAVCAr@@KPAEK@ZU?$less@K@std@@V?$allocator@U?$pair@$$CBKP8CDPLoginSrvr@@AEXAAVCAr@@KPAEK@Z@std@@@4@$0A@@std@@@3@XZ
_TEXT	SEGMENT PARA USE32 PUBLIC 'CODE'
_TEXT	ENDS
;	COMDAT ?_Buy@?$vector@MV?$allocator@M@std@@@std@@IAE_NI@Z
_TEXT	SEGMENT PARA USE32 PUBLIC 'CODE'
_TEXT	ENDS
;	COMDAT ?_Tidy@?$vector@MV?$allocator@M@std@@@std@@IAEXXZ
_TEXT	SEGMENT PARA USE32 PUBLIC 'CODE'
_TEXT	ENDS
;	COMDAT ??0?$_Vector_val@MV?$allocator@M@std@@@std@@IAE@V?$allocator@M@1@@Z
_TEXT	SEGMENT PARA USE32 PUBLIC 'CODE'
_TEXT	ENDS
;	COMDAT ??0?$allocator@M@std@@QAE@XZ
_TEXT	SEGMENT PARA USE32 PUBLIC 'CODE'
_TEXT	ENDS
;	COMDAT ?_Buy@?$vector@HV?$allocator@H@std@@@std@@IAE_NI@Z
_TEXT	SEGMENT PARA USE32 PUBLIC 'CODE'
_TEXT	ENDS
;	COMDAT ?_Tidy@?$vector@HV?$allocator@H@std@@@std@@IAEXXZ
_TEXT	SEGMENT PARA USE32 PUBLIC 'CODE'
_TEXT	ENDS
;	COMDAT ??0?$_Vector_val@HV?$allocator@H@std@@@std@@IAE@V?$allocator@H@1@@Z
_TEXT	SEGMENT PARA USE32 PUBLIC 'CODE'
_TEXT	ENDS
;	COMDAT ?_Key@?$_Tree@V?$_Tmap_traits@KP8CDPTrans@@AEXAAVCAr@@KKKPAEK@ZU?$less@K@std@@V?$allocator@U?$pair@$$CBKP8CDPTrans@@AEXAAVCAr@@KKKPAEK@Z@std@@@4@$0A@@std@@@std@@KAABKPAU_Node@?$_Tree_nod@V?$_Tmap_traits@KP8CDPTrans@@AEXAAVCAr@@KKKPAEK@ZU?$less@K@std@@V?$allocator@U?$pair@$$CBKP8CDPTrans@@AEXAAVCAr@@KKKPAEK@Z@std@@@4@$0A@@std@@@2@@Z
_TEXT	SEGMENT PARA USE32 PUBLIC 'CODE'
_TEXT	ENDS
;	COMDAT ?lower_bound@?$_Tree@V?$_Tmap_traits@KP8CDPTrans@@AEXAAVCAr@@KKKPAEK@ZU?$less@K@std@@V?$allocator@U?$pair@$$CBKP8CDPTrans@@AEXAAVCAr@@KKKPAEK@Z@std@@@4@$0A@@std@@@std@@QAE?AViterator@12@ABK@Z
_TEXT	SEGMENT PARA USE32 PUBLIC 'CODE'
_TEXT	ENDS
;	COMDAT ??0iterator@?$_Tree@V?$_Tmap_traits@KP8CDPTrans@@AEXAAVCAr@@KKKPAEK@ZU?$less@K@std@@V?$allocator@U?$pair@$$CBKP8CDPTrans@@AEXAAVCAr@@KKKPAEK@Z@std@@@4@$0A@@std@@@std@@QAE@PAU_Node@?$_Tree_nod@V?$_Tmap_traits@KP8CDPTrans@@AEXAAVCAr@@KKKPAEK@ZU?$less@K@std@@V?$allocator@U?$pair@$$CBKP8CDPTrans@@AEXAAVCAr@@KKKPAEK@Z@std@@@4@$0A@@std@@@2@@Z
_TEXT	SEGMENT PARA USE32 PUBLIC 'CODE'
_TEXT	ENDS
;	COMDAT ??Diterator@?$_Tree@V?$_Tmap_traits@KP8CDPTrans@@AEXAAVCAr@@KKKPAEK@ZU?$less@K@std@@V?$allocator@U?$pair@$$CBKP8CDPTrans@@AEXAAVCAr@@KKKPAEK@Z@std@@@4@$0A@@std@@@std@@QBEAAU?$pair@$$CBKP8CDPTrans@@AEXAAVCAr@@KKKPAEK@Z@2@XZ
_TEXT	SEGMENT PARA USE32 PUBLIC 'CODE'
_TEXT	ENDS
;	COMDAT ??8const_iterator@?$_Tree@V?$_Tmap_traits@KP8CDPTrans@@AEXAAVCAr@@KKKPAEK@ZU?$less@K@std@@V?$allocator@U?$pair@$$CBKP8CDPTrans@@AEXAAVCAr@@KKKPAEK@Z@std@@@4@$0A@@std@@@std@@QBE_NABV012@@Z
_TEXT	SEGMENT PARA USE32 PUBLIC 'CODE'
_TEXT	ENDS
;	COMDAT ?_Mynode@const_iterator@?$_Tree@V?$_Tmap_traits@KP8CDPTrans@@AEXAAVCAr@@KKKPAEK@ZU?$less@K@std@@V?$allocator@U?$pair@$$CBKP8CDPTrans@@AEXAAVCAr@@KKKPAEK@Z@std@@@4@$0A@@std@@@std@@QBEPAU_Node@?$_Tree_nod@V?$_Tmap_traits@KP8CDPTrans@@AEXAAVCAr@@KKKPAEK@ZU?$less@K@std@@V?$allocator@U?$pair@$$CBKP8CDPTrans@@AEXAAVCAr@@KKKPAEK@Z@std@@@4@$0A@@std@@@3@XZ
_TEXT	SEGMENT PARA USE32 PUBLIC 'CODE'
_TEXT	ENDS
;	COMDAT ?_Key@?$_Tree@V?$_Tmap_traits@KP8CDPAccountClient@@AEXAAVCAr@@PAEK@ZU?$less@K@std@@V?$allocator@U?$pair@$$CBKP8CDPAccountClient@@AEXAAVCAr@@PAEK@Z@std@@@4@$0A@@std@@@std@@KAABKPAU_Node@?$_Tree_nod@V?$_Tmap_traits@KP8CDPAccountClient@@AEXAAVCAr@@PAEK@ZU?$less@K@std@@V?$allocator@U?$pair@$$CBKP8CDPAccountClient@@AEXAAVCAr@@PAEK@Z@std@@@4@$0A@@std@@@2@@Z
_TEXT	SEGMENT PARA USE32 PUBLIC 'CODE'
_TEXT	ENDS
;	COMDAT ?lower_bound@?$_Tree@V?$_Tmap_traits@KP8CDPAccountClient@@AEXAAVCAr@@PAEK@ZU?$less@K@std@@V?$allocator@U?$pair@$$CBKP8CDPAccountClient@@AEXAAVCAr@@PAEK@Z@std@@@4@$0A@@std@@@std@@QAE?AViterator@12@ABK@Z
_TEXT	SEGMENT PARA USE32 PUBLIC 'CODE'
_TEXT	ENDS
;	COMDAT ??0iterator@?$_Tree@V?$_Tmap_traits@KP8CDPAccountClient@@AEXAAVCAr@@PAEK@ZU?$less@K@std@@V?$allocator@U?$pair@$$CBKP8CDPAccountClient@@AEXAAVCAr@@PAEK@Z@std@@@4@$0A@@std@@@std@@QAE@PAU_Node@?$_Tree_nod@V?$_Tmap_traits@KP8CDPAccountClient@@AEXAAVCAr@@PAEK@ZU?$less@K@std@@V?$allocator@U?$pair@$$CBKP8CDPAccountClient@@AEXAAVCAr@@PAEK@Z@std@@@4@$0A@@std@@@2@@Z
_TEXT	SEGMENT PARA USE32 PUBLIC 'CODE'
_TEXT	ENDS
;	COMDAT ??Diterator@?$_Tree@V?$_Tmap_traits@KP8CDPAccountClient@@AEXAAVCAr@@PAEK@ZU?$less@K@std@@V?$allocator@U?$pair@$$CBKP8CDPAccountClient@@AEXAAVCAr@@PAEK@Z@std@@@4@$0A@@std@@@std@@QBEAAU?$pair@$$CBKP8CDPAccountClient@@AEXAAVCAr@@PAEK@Z@2@XZ
_TEXT	SEGMENT PARA USE32 PUBLIC 'CODE'
_TEXT	ENDS
;	COMDAT ??8const_iterator@?$_Tree@V?$_Tmap_traits@KP8CDPAccountClient@@AEXAAVCAr@@PAEK@ZU?$less@K@std@@V?$allocator@U?$pair@$$CBKP8CDPAccountClient@@AEXAAVCAr@@PAEK@Z@std@@@4@$0A@@std@@@std@@QBE_NABV012@@Z
_TEXT	SEGMENT PARA USE32 PUBLIC 'CODE'
_TEXT	ENDS
;	COMDAT ?_Mynode@const_iterator@?$_Tree@V?$_Tmap_traits@KP8CDPAccountClient@@AEXAAVCAr@@PAEK@ZU?$less@K@std@@V?$allocator@U?$pair@$$CBKP8CDPAccountClient@@AEXAAVCAr@@PAEK@Z@std@@@4@$0A@@std@@@std@@QBEPAU_Node@?$_Tree_nod@V?$_Tmap_traits@KP8CDPAccountClient@@AEXAAVCAr@@PAEK@ZU?$less@K@std@@V?$allocator@U?$pair@$$CBKP8CDPAccountClient@@AEXAAVCAr@@PAEK@Z@std@@@4@$0A@@std@@@3@XZ
_TEXT	SEGMENT PARA USE32 PUBLIC 'CODE'
_TEXT	ENDS
;	COMDAT ?Create@?$MemPooler@VCGuildMember@@@@IAEXXZ
_TEXT	SEGMENT PARA USE32 PUBLIC 'CODE'
_TEXT	ENDS
;	COMDAT ?Destroy@?$MemPooler@VCGuildMember@@@@IAEXXZ
_TEXT	SEGMENT PARA USE32 PUBLIC 'CODE'
_TEXT	ENDS
;	COMDAT ?Create@?$MemPooler@VCGuild@@@@IAEXXZ
_TEXT	SEGMENT PARA USE32 PUBLIC 'CODE'
_TEXT	ENDS
;	COMDAT ?Destroy@?$MemPooler@VCGuild@@@@IAEXXZ
_TEXT	SEGMENT PARA USE32 PUBLIC 'CODE'
_TEXT	ENDS
;	COMDAT ?_Key@?$_Tree@V?$_Tmap_traits@KP8CDPCoreSrvr@@AEXAAVCAr@@PAEK@ZU?$less@K@std@@V?$allocator@U?$pair@$$CBKP8CDPCoreSrvr@@AEXAAVCAr@@PAEK@Z@std@@@4@$0A@@std@@@std@@KAABKPAU_Node@?$_Tree_nod@V?$_Tmap_traits@KP8CDPCoreSrvr@@AEXAAVCAr@@PAEK@ZU?$less@K@std@@V?$allocator@U?$pair@$$CBKP8CDPCoreSrvr@@AEXAAVCAr@@PAEK@Z@std@@@4@$0A@@std@@@2@@Z
_TEXT	SEGMENT PARA USE32 PUBLIC 'CODE'
_TEXT	ENDS
;	COMDAT ?lower_bound@?$_Tree@V?$_Tmap_traits@KP8CDPCoreSrvr@@AEXAAVCAr@@PAEK@ZU?$less@K@std@@V?$allocator@U?$pair@$$CBKP8CDPCoreSrvr@@AEXAAVCAr@@PAEK@Z@std@@@4@$0A@@std@@@std@@QAE?AViterator@12@ABK@Z
_TEXT	SEGMENT PARA USE32 PUBLIC 'CODE'
_TEXT	ENDS
;	COMDAT ??0iterator@?$_Tree@V?$_Tmap_traits@KP8CDPCoreSrvr@@AEXAAVCAr@@PAEK@ZU?$less@K@std@@V?$allocator@U?$pair@$$CBKP8CDPCoreSrvr@@AEXAAVCAr@@PAEK@Z@std@@@4@$0A@@std@@@std@@QAE@PAU_Node@?$_Tree_nod@V?$_Tmap_traits@KP8CDPCoreSrvr@@AEXAAVCAr@@PAEK@ZU?$less@K@std@@V?$allocator@U?$pair@$$CBKP8CDPCoreSrvr@@AEXAAVCAr@@PAEK@Z@std@@@4@$0A@@std@@@2@@Z
_TEXT	SEGMENT PARA USE32 PUBLIC 'CODE'
_TEXT	ENDS
;	COMDAT ??Diterator@?$_Tree@V?$_Tmap_traits@KP8CDPCoreSrvr@@AEXAAVCAr@@PAEK@ZU?$less@K@std@@V?$allocator@U?$pair@$$CBKP8CDPCoreSrvr@@AEXAAVCAr@@PAEK@Z@std@@@4@$0A@@std@@@std@@QBEAAU?$pair@$$CBKP8CDPCoreSrvr@@AEXAAVCAr@@PAEK@Z@2@XZ
_TEXT	SEGMENT PARA USE32 PUBLIC 'CODE'
_TEXT	ENDS
;	COMDAT ??8const_iterator@?$_Tree@V?$_Tmap_traits@KP8CDPCoreSrvr@@AEXAAVCAr@@PAEK@ZU?$less@K@std@@V?$allocator@U?$pair@$$CBKP8CDPCoreSrvr@@AEXAAVCAr@@PAEK@Z@std@@@4@$0A@@std@@@std@@QBE_NABV012@@Z
_TEXT	SEGMENT PARA USE32 PUBLIC 'CODE'
_TEXT	ENDS
;	COMDAT ?_Mynode@const_iterator@?$_Tree@V?$_Tmap_traits@KP8CDPCoreSrvr@@AEXAAVCAr@@PAEK@ZU?$less@K@std@@V?$allocator@U?$pair@$$CBKP8CDPCoreSrvr@@AEXAAVCAr@@PAEK@Z@std@@@4@$0A@@std@@@std@@QBEPAU_Node@?$_Tree_nod@V?$_Tmap_traits@KP8CDPCoreSrvr@@AEXAAVCAr@@PAEK@ZU?$less@K@std@@V?$allocator@U?$pair@$$CBKP8CDPCoreSrvr@@AEXAAVCAr@@PAEK@Z@std@@@4@$0A@@std@@@3@XZ
_TEXT	SEGMENT PARA USE32 PUBLIC 'CODE'
_TEXT	ENDS
;	COMDAT ?_Isnil@?$_Tree@V?$_Tmap_traits@EPAU__TAXDETAIL@@U?$less@E@std@@V?$allocator@U?$pair@$$CBEPAU__TAXDETAIL@@@std@@@3@$0A@@std@@@std@@KAAADPAU_Node@?$_Tree_nod@V?$_Tmap_traits@EPAU__TAXDETAIL@@U?$less@E@std@@V?$allocator@U?$pair@$$CBEPAU__TAXDETAIL@@@std@@@3@$0A@@std@@@2@@Z
_TEXT	SEGMENT PARA USE32 PUBLIC 'CODE'
_TEXT	ENDS
;	COMDAT ?_Key@?$_Tree@V?$_Tmap_traits@EPAU__TAXDETAIL@@U?$less@E@std@@V?$allocator@U?$pair@$$CBEPAU__TAXDETAIL@@@std@@@3@$0A@@std@@@std@@KAABEPAU_Node@?$_Tree_nod@V?$_Tmap_traits@EPAU__TAXDETAIL@@U?$less@E@std@@V?$allocator@U?$pair@$$CBEPAU__TAXDETAIL@@@std@@@3@$0A@@std@@@2@@Z
_TEXT	SEGMENT PARA USE32 PUBLIC 'CODE'
_TEXT	ENDS
;	COMDAT ?_Left@?$_Tree@V?$_Tmap_traits@EPAU__TAXDETAIL@@U?$less@E@std@@V?$allocator@U?$pair@$$CBEPAU__TAXDETAIL@@@std@@@3@$0A@@std@@@std@@KAAAPAU_Node@?$_Tree_nod@V?$_Tmap_traits@EPAU__TAXDETAIL@@U?$less@E@std@@V?$allocator@U?$pair@$$CBEPAU__TAXDETAIL@@@std@@@3@$0A@@std@@@2@PAU342@@Z
_TEXT	SEGMENT PARA USE32 PUBLIC 'CODE'
_TEXT	ENDS
;	COMDAT ?_Right@?$_Tree@V?$_Tmap_traits@EPAU__TAXDETAIL@@U?$less@E@std@@V?$allocator@U?$pair@$$CBEPAU__TAXDETAIL@@@std@@@3@$0A@@std@@@std@@KAAAPAU_Node@?$_Tree_nod@V?$_Tmap_traits@EPAU__TAXDETAIL@@U?$less@E@std@@V?$allocator@U?$pair@$$CBEPAU__TAXDETAIL@@@std@@@3@$0A@@std@@@2@PAU342@@Z
_TEXT	SEGMENT PARA USE32 PUBLIC 'CODE'
_TEXT	ENDS
;	COMDAT ??0?$_Tree@V?$_Tmap_traits@EPAU__TAXDETAIL@@U?$less@E@std@@V?$allocator@U?$pair@$$CBEPAU__TAXDETAIL@@@std@@@3@$0A@@std@@@std@@QAE@ABU?$less@E@1@ABV?$allocator@U?$pair@$$CBEPAU__TAXDETAIL@@@std@@@1@@Z
_TEXT	SEGMENT PARA USE32 PUBLIC 'CODE'
_TEXT	ENDS
;	COMDAT ?begin@?$_Tree@V?$_Tmap_traits@EPAU__TAXDETAIL@@U?$less@E@std@@V?$allocator@U?$pair@$$CBEPAU__TAXDETAIL@@@std@@@3@$0A@@std@@@std@@QAE?AViterator@12@XZ
_TEXT	SEGMENT PARA USE32 PUBLIC 'CODE'
_TEXT	ENDS
;	COMDAT ?_Insert@?$_Tree@V?$_Tmap_traits@EPAU__TAXDETAIL@@U?$less@E@std@@V?$allocator@U?$pair@$$CBEPAU__TAXDETAIL@@@std@@@3@$0A@@std@@@std@@IAE?AViterator@12@_NPAU_Node@?$_Tree_nod@V?$_Tmap_traits@EPAU__TAXDETAIL@@U?$less@E@std@@V?$allocator@U?$pair@$$CBEPAU__TAXDETAIL@@@std@@@3@$0A@@std@@@2@ABU?$pair@$$CBEPAU__TAXDETAIL@@@2@@Z
_TEXT	SEGMENT PARA USE32 PUBLIC 'CODE'
_TEXT	ENDS
;	COMDAT ?_Root@?$_Tree@V?$_Tmap_traits@EPAU__TAXDETAIL@@U?$less@E@std@@V?$allocator@U?$pair@$$CBEPAU__TAXDETAIL@@@std@@@3@$0A@@std@@@std@@IAEAAPAU_Node@?$_Tree_nod@V?$_Tmap_traits@EPAU__TAXDETAIL@@U?$less@E@std@@V?$allocator@U?$pair@$$CBEPAU__TAXDETAIL@@@std@@@3@$0A@@std@@@2@XZ
_TEXT	SEGMENT PARA USE32 PUBLIC 'CODE'
_TEXT	ENDS
;	COMDAT ?_Tidy@?$_Tree@V?$_Tmap_traits@EPAU__TAXDETAIL@@U?$less@E@std@@V?$allocator@U?$pair@$$CBEPAU__TAXDETAIL@@@std@@@3@$0A@@std@@@std@@IAEXXZ
_TEXT	SEGMENT PARA USE32 PUBLIC 'CODE'
_TEXT	ENDS
;	COMDAT ?_Kfn@?$_Tmap_traits@EPAU__TAXDETAIL@@U?$less@E@std@@V?$allocator@U?$pair@$$CBEPAU__TAXDETAIL@@@std@@@3@$0A@@std@@SAABEABU?$pair@$$CBEPAU__TAXDETAIL@@@2@@Z
_TEXT	SEGMENT PARA USE32 PUBLIC 'CODE'
_TEXT	ENDS
;	COMDAT ??0?$allocator@U?$pair@$$CBEPAU__TAXDETAIL@@@std@@@std@@QAE@XZ
_TEXT	SEGMENT PARA USE32 PUBLIC 'CODE'
_TEXT	ENDS
;	COMDAT ??0?$pair@Viterator@?$_Tree@V?$_Tmap_traits@EPAU__TAXDETAIL@@U?$less@E@std@@V?$allocator@U?$pair@$$CBEPAU__TAXDETAIL@@@std@@@3@$0A@@std@@@std@@_N@std@@QAE@ABViterator@?$_Tree@V?$_Tmap_traits@EPAU__TAXDETAIL@@U?$less@E@std@@V?$allocator@U?$pair@$$CBEPAU__TAXDETAIL@@@std@@@3@$0A@@std@@@1@AB_N@Z
_TEXT	SEGMENT PARA USE32 PUBLIC 'CODE'
_TEXT	ENDS
;	COMDAT ??0iterator@?$_Tree@V?$_Tmap_traits@EPAU__TAXDETAIL@@U?$less@E@std@@V?$allocator@U?$pair@$$CBEPAU__TAXDETAIL@@@std@@@3@$0A@@std@@@std@@QAE@PAU_Node@?$_Tree_nod@V?$_Tmap_traits@EPAU__TAXDETAIL@@U?$less@E@std@@V?$allocator@U?$pair@$$CBEPAU__TAXDETAIL@@@std@@@3@$0A@@std@@@2@@Z
_TEXT	SEGMENT PARA USE32 PUBLIC 'CODE'
_TEXT	ENDS
;	COMDAT ??Fiterator@?$_Tree@V?$_Tmap_traits@EPAU__TAXDETAIL@@U?$less@E@std@@V?$allocator@U?$pair@$$CBEPAU__TAXDETAIL@@@std@@@3@$0A@@std@@@std@@QAEAAV012@XZ
_TEXT	SEGMENT PARA USE32 PUBLIC 'CODE'
_TEXT	ENDS
;	COMDAT ??8const_iterator@?$_Tree@V?$_Tmap_traits@EPAU__TAXDETAIL@@U?$less@E@std@@V?$allocator@U?$pair@$$CBEPAU__TAXDETAIL@@@std@@@3@$0A@@std@@@std@@QBE_NABV012@@Z
_TEXT	SEGMENT PARA USE32 PUBLIC 'CODE'
_TEXT	ENDS
;	COMDAT ?_Mynode@const_iterator@?$_Tree@V?$_Tmap_traits@EPAU__TAXDETAIL@@U?$less@E@std@@V?$allocator@U?$pair@$$CBEPAU__TAXDETAIL@@@std@@@3@$0A@@std@@@std@@QBEPAU_Node@?$_Tree_nod@V?$_Tmap_traits@EPAU__TAXDETAIL@@U?$less@E@std@@V?$allocator@U?$pair@$$CBEPAU__TAXDETAIL@@@std@@@3@$0A@@std@@@3@XZ
_TEXT	SEGMENT PARA USE32 PUBLIC 'CODE'
_TEXT	ENDS
;	COMDAT ?begin@?$vector@UGuildHouse_Furniture_Info@CGuildHouseBase@@V?$allocator@UGuildHouse_Furniture_Info@CGuildHouseBase@@@std@@@std@@QAE?AViterator@12@XZ
_TEXT	SEGMENT PARA USE32 PUBLIC 'CODE'
_TEXT	ENDS
;	COMDAT ?_Isnil@?$_Tree@V?$_Tmap_traits@KPAVCGuildHouseBase@@U?$less@K@std@@V?$allocator@U?$pair@$$CBKPAVCGuildHouseBase@@@std@@@3@$0A@@std@@@std@@KAAADPAU_Node@?$_Tree_nod@V?$_Tmap_traits@KPAVCGuildHouseBase@@U?$less@K@std@@V?$allocator@U?$pair@$$CBKPAVCGuildHouseBase@@@std@@@3@$0A@@std@@@2@@Z
_TEXT	SEGMENT PARA USE32 PUBLIC 'CODE'
_TEXT	ENDS
;	COMDAT ?_Key@?$_Tree@V?$_Tmap_traits@KPAVCGuildHouseBase@@U?$less@K@std@@V?$allocator@U?$pair@$$CBKPAVCGuildHouseBase@@@std@@@3@$0A@@std@@@std@@KAABKPAU_Node@?$_Tree_nod@V?$_Tmap_traits@KPAVCGuildHouseBase@@U?$less@K@std@@V?$allocator@U?$pair@$$CBKPAVCGuildHouseBase@@@std@@@3@$0A@@std@@@2@@Z
_TEXT	SEGMENT PARA USE32 PUBLIC 'CODE'
_TEXT	ENDS
;	COMDAT ?_Left@?$_Tree@V?$_Tmap_traits@KPAVCGuildHouseBase@@U?$less@K@std@@V?$allocator@U?$pair@$$CBKPAVCGuildHouseBase@@@std@@@3@$0A@@std@@@std@@KAAAPAU_Node@?$_Tree_nod@V?$_Tmap_traits@KPAVCGuildHouseBase@@U?$less@K@std@@V?$allocator@U?$pair@$$CBKPAVCGuildHouseBase@@@std@@@3@$0A@@std@@@2@PAU342@@Z
_TEXT	SEGMENT PARA USE32 PUBLIC 'CODE'
_TEXT	ENDS
;	COMDAT ?_Right@?$_Tree@V?$_Tmap_traits@KPAVCGuildHouseBase@@U?$less@K@std@@V?$allocator@U?$pair@$$CBKPAVCGuildHouseBase@@@std@@@3@$0A@@std@@@std@@KAAAPAU_Node@?$_Tree_nod@V?$_Tmap_traits@KPAVCGuildHouseBase@@U?$less@K@std@@V?$allocator@U?$pair@$$CBKPAVCGuildHouseBase@@@std@@@3@$0A@@std@@@2@PAU342@@Z
_TEXT	SEGMENT PARA USE32 PUBLIC 'CODE'
_TEXT	ENDS
;	COMDAT ?begin@?$_Tree@V?$_Tmap_traits@KPAVCGuildHouseBase@@U?$less@K@std@@V?$allocator@U?$pair@$$CBKPAVCGuildHouseBase@@@std@@@3@$0A@@std@@@std@@QAE?AViterator@12@XZ
_TEXT	SEGMENT PARA USE32 PUBLIC 'CODE'
_TEXT	ENDS
;	COMDAT ?size@?$_Tree@V?$_Tmap_traits@KPAVCGuildHouseBase@@U?$less@K@std@@V?$allocator@U?$pair@$$CBKPAVCGuildHouseBase@@@std@@@3@$0A@@std@@@std@@QBEIXZ
_TEXT	SEGMENT PARA USE32 PUBLIC 'CODE'
_TEXT	ENDS
;	COMDAT ?_Insert@?$_Tree@V?$_Tmap_traits@KPAVCGuildHouseBase@@U?$less@K@std@@V?$allocator@U?$pair@$$CBKPAVCGuildHouseBase@@@std@@@3@$0A@@std@@@std@@IAE?AViterator@12@_NPAU_Node@?$_Tree_nod@V?$_Tmap_traits@KPAVCGuildHouseBase@@U?$less@K@std@@V?$allocator@U?$pair@$$CBKPAVCGuildHouseBase@@@std@@@3@$0A@@std@@@2@ABU?$pair@$$CBKPAVCGuildHouseBase@@@2@@Z
_TEXT	SEGMENT PARA USE32 PUBLIC 'CODE'
_TEXT	ENDS
;	COMDAT ?_Root@?$_Tree@V?$_Tmap_traits@KPAVCGuildHouseBase@@U?$less@K@std@@V?$allocator@U?$pair@$$CBKPAVCGuildHouseBase@@@std@@@3@$0A@@std@@@std@@IAEAAPAU_Node@?$_Tree_nod@V?$_Tmap_traits@KPAVCGuildHouseBase@@U?$less@K@std@@V?$allocator@U?$pair@$$CBKPAVCGuildHouseBase@@@std@@@3@$0A@@std@@@2@XZ
_TEXT	SEGMENT PARA USE32 PUBLIC 'CODE'
_TEXT	ENDS
;	COMDAT ?_Kfn@?$_Tmap_traits@KPAVCGuildHouseBase@@U?$less@K@std@@V?$allocator@U?$pair@$$CBKPAVCGuildHouseBase@@@std@@@3@$0A@@std@@SAABKABU?$pair@$$CBKPAVCGuildHouseBase@@@2@@Z
_TEXT	SEGMENT PARA USE32 PUBLIC 'CODE'
_TEXT	ENDS
;	COMDAT ??0?$pair@Viterator@?$_Tree@V?$_Tmap_traits@KPAVCGuildHouseBase@@U?$less@K@std@@V?$allocator@U?$pair@$$CBKPAVCGuildHouseBase@@@std@@@3@$0A@@std@@@std@@_N@std@@QAE@ABViterator@?$_Tree@V?$_Tmap_traits@KPAVCGuildHouseBase@@U?$less@K@std@@V?$allocator@U?$pair@$$CBKPAVCGuildHouseBase@@@std@@@3@$0A@@std@@@1@AB_N@Z
_TEXT	SEGMENT PARA USE32 PUBLIC 'CODE'
_TEXT	ENDS
;	COMDAT ??0iterator@?$_Tree@V?$_Tmap_traits@KPAVCGuildHouseBase@@U?$less@K@std@@V?$allocator@U?$pair@$$CBKPAVCGuildHouseBase@@@std@@@3@$0A@@std@@@std@@QAE@PAU_Node@?$_Tree_nod@V?$_Tmap_traits@KPAVCGuildHouseBase@@U?$less@K@std@@V?$allocator@U?$pair@$$CBKPAVCGuildHouseBase@@@std@@@3@$0A@@std@@@2@@Z
_TEXT	SEGMENT PARA USE32 PUBLIC 'CODE'
_TEXT	ENDS
;	COMDAT ??Fiterator@?$_Tree@V?$_Tmap_traits@KPAVCGuildHouseBase@@U?$less@K@std@@V?$allocator@U?$pair@$$CBKPAVCGuildHouseBase@@@std@@@3@$0A@@std@@@std@@QAEAAV012@XZ
_TEXT	SEGMENT PARA USE32 PUBLIC 'CODE'
_TEXT	ENDS
;	COMDAT ??8const_iterator@?$_Tree@V?$_Tmap_traits@KPAVCGuildHouseBase@@U?$less@K@std@@V?$allocator@U?$pair@$$CBKPAVCGuildHouseBase@@@std@@@3@$0A@@std@@@std@@QBE_NABV012@@Z
_TEXT	SEGMENT PARA USE32 PUBLIC 'CODE'
_TEXT	ENDS
;	COMDAT ?_Mynode@const_iterator@?$_Tree@V?$_Tmap_traits@KPAVCGuildHouseBase@@U?$less@K@std@@V?$allocator@U?$pair@$$CBKPAVCGuildHouseBase@@@std@@@3@$0A@@std@@@std@@QBEPAU_Node@?$_Tree_nod@V?$_Tmap_traits@KPAVCGuildHouseBase@@U?$less@K@std@@V?$allocator@U?$pair@$$CBKPAVCGuildHouseBase@@@std@@@3@$0A@@std@@@3@XZ
_TEXT	SEGMENT PARA USE32 PUBLIC 'CODE'
_TEXT	ENDS
;	COMDAT ?size@?$_Tree@V?$_Tmap_traits@KPAVCCampus@@U?$less@K@std@@V?$allocator@U?$pair@$$CBKPAVCCampus@@@std@@@3@$0A@@std@@@std@@QBEIXZ
_TEXT	SEGMENT PARA USE32 PUBLIC 'CODE'
_TEXT	ENDS
;	COMDAT ?erase@?$_Tree@V?$_Tmap_traits@KKU?$less@K@std@@V?$allocator@U?$pair@$$CBKK@std@@@2@$0A@@std@@@std@@QAE?AViterator@12@V312@0@Z
_TEXT	SEGMENT PARA USE32 PUBLIC 'CODE'
_TEXT	ENDS
;	COMDAT ?equal_range@?$_Tree@V?$_Tmap_traits@KKU?$less@K@std@@V?$allocator@U?$pair@$$CBKK@std@@@2@$0A@@std@@@std@@QAE?AU?$pair@Viterator@?$_Tree@V?$_Tmap_traits@KKU?$less@K@std@@V?$allocator@U?$pair@$$CBKK@std@@@2@$0A@@std@@@std@@V123@@2@ABK@Z
_TEXT	SEGMENT PARA USE32 PUBLIC 'CODE'
_TEXT	ENDS
;	COMDAT ??0?$pair@Viterator@?$_Tree@V?$_Tset_traits@V?$basic_string@DU?$char_traits@D@std@@V?$allocator@D@2@@std@@U?$less@V?$basic_string@DU?$char_traits@D@std@@V?$allocator@D@2@@std@@@2@V?$allocator@V?$basic_string@DU?$char_traits@D@std@@V?$allocator@D@2@@std@@@2@$0A@@std@@@std@@_N@std@@QAE@ABViterator@?$_Tree@V?$_Tset_traits@V?$basic_string@DU?$char_traits@D@std@@V?$allocator@D@2@@std@@U?$less@V?$basic_string@DU?$char_traits@D@std@@V?$allocator@D@2@@std@@@2@V?$allocator@V?$basic_string@DU?$char_traits@D@std@@V?$allocator@D@2@@std@@@2@$0A@@std@@@1@AB_N@Z
_TEXT	SEGMENT PARA USE32 PUBLIC 'CODE'
_TEXT	ENDS
;	COMDAT ??0iterator@?$_Tree@V?$_Tset_traits@V?$basic_string@DU?$char_traits@D@std@@V?$allocator@D@2@@std@@U?$less@V?$basic_string@DU?$char_traits@D@std@@V?$allocator@D@2@@std@@@2@V?$allocator@V?$basic_string@DU?$char_traits@D@std@@V?$allocator@D@2@@std@@@2@$0A@@std@@@std@@QAE@PAU_Node@?$_Tree_nod@V?$_Tset_traits@V?$basic_string@DU?$char_traits@D@std@@V?$allocator@D@2@@std@@U?$less@V?$basic_string@DU?$char_traits@D@std@@V?$allocator@D@2@@std@@@2@V?$allocator@V?$basic_string@DU?$char_traits@D@std@@V?$allocator@D@2@@std@@@2@$0A@@std@@@2@@Z
_TEXT	SEGMENT PARA USE32 PUBLIC 'CODE'
_TEXT	ENDS
;	COMDAT ??Fiterator@?$_Tree@V?$_Tset_traits@V?$basic_string@DU?$char_traits@D@std@@V?$allocator@D@2@@std@@U?$less@V?$basic_string@DU?$char_traits@D@std@@V?$allocator@D@2@@std@@@2@V?$allocator@V?$basic_string@DU?$char_traits@D@std@@V?$allocator@D@2@@std@@@2@$0A@@std@@@std@@QAEAAV012@XZ
_TEXT	SEGMENT PARA USE32 PUBLIC 'CODE'
_TEXT	ENDS
;	COMDAT ??8const_iterator@?$_Tree@V?$_Tset_traits@V?$basic_string@DU?$char_traits@D@std@@V?$allocator@D@2@@std@@U?$less@V?$basic_string@DU?$char_traits@D@std@@V?$allocator@D@2@@std@@@2@V?$allocator@V?$basic_string@DU?$char_traits@D@std@@V?$allocator@D@2@@std@@@2@$0A@@std@@@std@@QBE_NABV012@@Z
_TEXT	SEGMENT PARA USE32 PUBLIC 'CODE'
_TEXT	ENDS
;	COMDAT ?_Mynode@const_iterator@?$_Tree@V?$_Tset_traits@V?$basic_string@DU?$char_traits@D@std@@V?$allocator@D@2@@std@@U?$less@V?$basic_string@DU?$char_traits@D@std@@V?$allocator@D@2@@std@@@2@V?$allocator@V?$basic_string@DU?$char_traits@D@std@@V?$allocator@D@2@@std@@@2@$0A@@std@@@std@@QBEPAU_Node@?$_Tree_nod@V?$_Tset_traits@V?$basic_string@DU?$char_traits@D@std@@V?$allocator@D@2@@std@@U?$less@V?$basic_string@DU?$char_traits@D@std@@V?$allocator@D@2@@std@@@2@V?$allocator@V?$basic_string@DU?$char_traits@D@std@@V?$allocator@D@2@@std@@@2@$0A@@std@@@3@XZ
_TEXT	SEGMENT PARA USE32 PUBLIC 'CODE'
_TEXT	ENDS
;	COMDAT ??Diterator@?$vector@UGuildHouse_Furniture_Info@CGuildHouseBase@@V?$allocator@UGuildHouse_Furniture_Info@CGuildHouseBase@@@std@@@std@@QBEAAUGuildHouse_Furniture_Info@CGuildHouseBase@@XZ
_TEXT	SEGMENT PARA USE32 PUBLIC 'CODE'
_TEXT	ENDS
;	COMDAT ??Hiterator@?$vector@UGuildHouse_Furniture_Info@CGuildHouseBase@@V?$allocator@UGuildHouse_Furniture_Info@CGuildHouseBase@@@std@@@std@@QBE?AV012@H@Z
_TEXT	SEGMENT PARA USE32 PUBLIC 'CODE'
_TEXT	ENDS
;	COMDAT ?StringCompare@?$ChTraitsCRT@D@ATL@@SAHPBD0@Z
_TEXT	SEGMENT PARA USE32 PUBLIC 'CODE'
_TEXT	ENDS
;	COMDAT ?_Isnil@?$_Tree@V?$_Tmap_traits@EHU?$less@E@std@@V?$allocator@U?$pair@$$CBEH@std@@@2@$0A@@std@@@std@@KAAADPAU_Node@?$_Tree_nod@V?$_Tmap_traits@EHU?$less@E@std@@V?$allocator@U?$pair@$$CBEH@std@@@2@$0A@@std@@@2@@Z
_TEXT	SEGMENT PARA USE32 PUBLIC 'CODE'
_TEXT	ENDS
;	COMDAT ?_Left@?$_Tree@V?$_Tmap_traits@EHU?$less@E@std@@V?$allocator@U?$pair@$$CBEH@std@@@2@$0A@@std@@@std@@KAAAPAU_Node@?$_Tree_nod@V?$_Tmap_traits@EHU?$less@E@std@@V?$allocator@U?$pair@$$CBEH@std@@@2@$0A@@std@@@2@PAU342@@Z
_TEXT	SEGMENT PARA USE32 PUBLIC 'CODE'
_TEXT	ENDS
;	COMDAT ?_Parent@?$_Tree@V?$_Tmap_traits@EHU?$less@E@std@@V?$allocator@U?$pair@$$CBEH@std@@@2@$0A@@std@@@std@@KAAAPAU_Node@?$_Tree_nod@V?$_Tmap_traits@EHU?$less@E@std@@V?$allocator@U?$pair@$$CBEH@std@@@2@$0A@@std@@@2@PAU342@@Z
_TEXT	SEGMENT PARA USE32 PUBLIC 'CODE'
_TEXT	ENDS
;	COMDAT ?_Right@?$_Tree@V?$_Tmap_traits@EHU?$less@E@std@@V?$allocator@U?$pair@$$CBEH@std@@@2@$0A@@std@@@std@@KAAAPAU_Node@?$_Tree_nod@V?$_Tmap_traits@EHU?$less@E@std@@V?$allocator@U?$pair@$$CBEH@std@@@2@$0A@@std@@@2@PAU342@@Z
_TEXT	SEGMENT PARA USE32 PUBLIC 'CODE'
_TEXT	ENDS
;	COMDAT ?begin@?$_Tree@V?$_Tmap_traits@EHU?$less@E@std@@V?$allocator@U?$pair@$$CBEH@std@@@2@$0A@@std@@@std@@QAE?AViterator@12@XZ
_TEXT	SEGMENT PARA USE32 PUBLIC 'CODE'
_TEXT	ENDS
;	COMDAT ?end@?$_Tree@V?$_Tmap_traits@EHU?$less@E@std@@V?$allocator@U?$pair@$$CBEH@std@@@2@$0A@@std@@@std@@QAE?AViterator@12@XZ
_TEXT	SEGMENT PARA USE32 PUBLIC 'CODE'
_TEXT	ENDS
;	COMDAT ?size@?$_Tree@V?$_Tmap_traits@EHU?$less@E@std@@V?$allocator@U?$pair@$$CBEH@std@@@2@$0A@@std@@@std@@QBEIXZ
_TEXT	SEGMENT PARA USE32 PUBLIC 'CODE'
_TEXT	ENDS
;	COMDAT ?erase@?$_Tree@V?$_Tmap_traits@EHU?$less@E@std@@V?$allocator@U?$pair@$$CBEH@std@@@2@$0A@@std@@@std@@QAE?AViterator@12@V312@0@Z
_TEXT	SEGMENT PARA USE32 PUBLIC 'CODE'
_TEXT	ENDS
;	COMDAT ?_Copy@?$_Tree@V?$_Tmap_traits@EHU?$less@E@std@@V?$allocator@U?$pair@$$CBEH@std@@@2@$0A@@std@@@std@@IAEPAU_Node@?$_Tree_nod@V?$_Tmap_traits@EHU?$less@E@std@@V?$allocator@U?$pair@$$CBEH@std@@@2@$0A@@std@@@2@PAU342@0@Z
_TEXT	SEGMENT PARA USE32 PUBLIC 'CODE'
_TEXT	ENDS
;	COMDAT ?_Lmost@?$_Tree@V?$_Tmap_traits@EHU?$less@E@std@@V?$allocator@U?$pair@$$CBEH@std@@@2@$0A@@std@@@std@@IAEAAPAU_Node@?$_Tree_nod@V?$_Tmap_traits@EHU?$less@E@std@@V?$allocator@U?$pair@$$CBEH@std@@@2@$0A@@std@@@2@XZ
_TEXT	SEGMENT PARA USE32 PUBLIC 'CODE'
_TEXT	ENDS
;	COMDAT ?_Max@?$_Tree@V?$_Tmap_traits@EHU?$less@E@std@@V?$allocator@U?$pair@$$CBEH@std@@@2@$0A@@std@@@std@@KAPAU_Node@?$_Tree_nod@V?$_Tmap_traits@EHU?$less@E@std@@V?$allocator@U?$pair@$$CBEH@std@@@2@$0A@@std@@@2@PAU342@@Z
_TEXT	SEGMENT PARA USE32 PUBLIC 'CODE'
_TEXT	ENDS
;	COMDAT ?_Min@?$_Tree@V?$_Tmap_traits@EHU?$less@E@std@@V?$allocator@U?$pair@$$CBEH@std@@@2@$0A@@std@@@std@@KAPAU_Node@?$_Tree_nod@V?$_Tmap_traits@EHU?$less@E@std@@V?$allocator@U?$pair@$$CBEH@std@@@2@$0A@@std@@@2@PAU342@@Z
_TEXT	SEGMENT PARA USE32 PUBLIC 'CODE'
_TEXT	ENDS
;	COMDAT ?_Rmost@?$_Tree@V?$_Tmap_traits@EHU?$less@E@std@@V?$allocator@U?$pair@$$CBEH@std@@@2@$0A@@std@@@std@@IAEAAPAU_Node@?$_Tree_nod@V?$_Tmap_traits@EHU?$less@E@std@@V?$allocator@U?$pair@$$CBEH@std@@@2@$0A@@std@@@2@XZ
_TEXT	SEGMENT PARA USE32 PUBLIC 'CODE'
_TEXT	ENDS
;	COMDAT ?_Root@?$_Tree@V?$_Tmap_traits@EHU?$less@E@std@@V?$allocator@U?$pair@$$CBEH@std@@@2@$0A@@std@@@std@@IAEAAPAU_Node@?$_Tree_nod@V?$_Tmap_traits@EHU?$less@E@std@@V?$allocator@U?$pair@$$CBEH@std@@@2@$0A@@std@@@2@XZ
_TEXT	SEGMENT PARA USE32 PUBLIC 'CODE'
_TEXT	ENDS
;	COMDAT ?_Root@?$_Tree@V?$_Tmap_traits@EHU?$less@E@std@@V?$allocator@U?$pair@$$CBEH@std@@@2@$0A@@std@@@std@@IBEAAPAU_Node@?$_Tree_nod@V?$_Tmap_traits@EHU?$less@E@std@@V?$allocator@U?$pair@$$CBEH@std@@@2@$0A@@std@@@2@XZ
_TEXT	SEGMENT PARA USE32 PUBLIC 'CODE'
_TEXT	ENDS
;	COMDAT ?_Buynode@?$_Tree@V?$_Tmap_traits@EHU?$less@E@std@@V?$allocator@U?$pair@$$CBEH@std@@@2@$0A@@std@@@std@@IAEPAU_Node@?$_Tree_nod@V?$_Tmap_traits@EHU?$less@E@std@@V?$allocator@U?$pair@$$CBEH@std@@@2@$0A@@std@@@2@XZ
_TEXT	SEGMENT PARA USE32 PUBLIC 'CODE'
_TEXT	ENDS
;	COMDAT ??0?$_Tree_ptr@V?$_Tmap_traits@EHU?$less@E@std@@V?$allocator@U?$pair@$$CBEH@std@@@2@$0A@@std@@@std@@IAE@ABU?$less@E@1@V?$allocator@U?$pair@$$CBEH@std@@@1@@Z
_TEXT	SEGMENT PARA USE32 PUBLIC 'CODE'
_TEXT	ENDS
;	COMDAT ??0?$allocator@U?$pair@$$CBEH@std@@@std@@QAE@ABV01@@Z
_TEXT	SEGMENT PARA USE32 PUBLIC 'CODE'
_TEXT	ENDS
;	COMDAT ?deallocate@?$allocator@U_Node@?$_Tree_nod@V?$_Tmap_traits@EHU?$less@E@std@@V?$allocator@U?$pair@$$CBEH@std@@@2@$0A@@std@@@std@@@std@@QAEXPAU_Node@?$_Tree_nod@V?$_Tmap_traits@EHU?$less@E@std@@V?$allocator@U?$pair@$$CBEH@std@@@2@$0A@@std@@@2@I@Z
_TEXT	SEGMENT PARA USE32 PUBLIC 'CODE'
_TEXT	ENDS
;	COMDAT ?destroy@?$allocator@PAU_Node@?$_Tree_nod@V?$_Tmap_traits@EHU?$less@E@std@@V?$allocator@U?$pair@$$CBEH@std@@@2@$0A@@std@@@std@@@std@@QAEXPAPAU_Node@?$_Tree_nod@V?$_Tmap_traits@EHU?$less@E@std@@V?$allocator@U?$pair@$$CBEH@std@@@2@$0A@@std@@@2@@Z
_TEXT	SEGMENT PARA USE32 PUBLIC 'CODE'
_TEXT	ENDS
;	COMDAT ?_Color@?$_Tree@V?$_Tset_traits@V?$basic_string@DU?$char_traits@D@std@@V?$allocator@D@2@@std@@U?$less@V?$basic_string@DU?$char_traits@D@std@@V?$allocator@D@2@@std@@@2@V?$allocator@V?$basic_string@DU?$char_traits@D@std@@V?$allocator@D@2@@std@@@2@$0A@@std@@@std@@KAAADPAU_Node@?$_Tree_nod@V?$_Tset_traits@V?$basic_string@DU?$char_traits@D@std@@V?$allocator@D@2@@std@@U?$less@V?$basic_string@DU?$char_traits@D@std@@V?$allocator@D@2@@std@@@2@V?$allocator@V?$basic_string@DU?$char_traits@D@std@@V?$allocator@D@2@@std@@@2@$0A@@std@@@2@@Z
_TEXT	SEGMENT PARA USE32 PUBLIC 'CODE'
_TEXT	ENDS
;	COMDAT ?_Parent@?$_Tree@V?$_Tset_traits@V?$basic_string@DU?$char_traits@D@std@@V?$allocator@D@2@@std@@U?$less@V?$basic_string@DU?$char_traits@D@std@@V?$allocator@D@2@@std@@@2@V?$allocator@V?$basic_string@DU?$char_traits@D@std@@V?$allocator@D@2@@std@@@2@$0A@@std@@@std@@KAAAPAU_Node@?$_Tree_nod@V?$_Tset_traits@V?$basic_string@DU?$char_traits@D@std@@V?$allocator@D@2@@std@@U?$less@V?$basic_string@DU?$char_traits@D@std@@V?$allocator@D@2@@std@@@2@V?$allocator@V?$basic_string@DU?$char_traits@D@std@@V?$allocator@D@2@@std@@@2@$0A@@std@@@2@PAU342@@Z
_TEXT	SEGMENT PARA USE32 PUBLIC 'CODE'
_TEXT	ENDS
;	COMDAT ?_Myval@?$_Tree@V?$_Tset_traits@V?$basic_string@DU?$char_traits@D@std@@V?$allocator@D@2@@std@@U?$less@V?$basic_string@DU?$char_traits@D@std@@V?$allocator@D@2@@std@@@2@V?$allocator@V?$basic_string@DU?$char_traits@D@std@@V?$allocator@D@2@@std@@@2@$0A@@std@@@std@@KAAAV?$basic_string@DU?$char_traits@D@std@@V?$allocator@D@2@@2@PAU_Node@?$_Tree_nod@V?$_Tset_traits@V?$basic_string@DU?$char_traits@D@std@@V?$allocator@D@2@@std@@U?$less@V?$basic_string@DU?$char_traits@D@std@@V?$allocator@D@2@@std@@@2@V?$allocator@V?$basic_string@DU?$char_traits@D@std@@V?$allocator@D@2@@std@@@2@$0A@@std@@@2@@Z
_TEXT	SEGMENT PARA USE32 PUBLIC 'CODE'
_TEXT	ENDS
;	COMDAT ?max_size@?$_Tree@V?$_Tset_traits@V?$basic_string@DU?$char_traits@D@std@@V?$allocator@D@2@@std@@U?$less@V?$basic_string@DU?$char_traits@D@std@@V?$allocator@D@2@@std@@@2@V?$allocator@V?$basic_string@DU?$char_traits@D@std@@V?$allocator@D@2@@std@@@2@$0A@@std@@@std@@QBEIXZ
_TEXT	SEGMENT PARA USE32 PUBLIC 'CODE'
_TEXT	ENDS
;	COMDAT ?_Lmost@?$_Tree@V?$_Tset_traits@V?$basic_string@DU?$char_traits@D@std@@V?$allocator@D@2@@std@@U?$less@V?$basic_string@DU?$char_traits@D@std@@V?$allocator@D@2@@std@@@2@V?$allocator@V?$basic_string@DU?$char_traits@D@std@@V?$allocator@D@2@@std@@@2@$0A@@std@@@std@@IAEAAPAU_Node@?$_Tree_nod@V?$_Tset_traits@V?$basic_string@DU?$char_traits@D@std@@V?$allocator@D@2@@std@@U?$less@V?$basic_string@DU?$char_traits@D@std@@V?$allocator@D@2@@std@@@2@V?$allocator@V?$basic_string@DU?$char_traits@D@std@@V?$allocator@D@2@@std@@@2@$0A@@std@@@2@XZ
_TEXT	SEGMENT PARA USE32 PUBLIC 'CODE'
_TEXT	ENDS
;	COMDAT ?_Lrotate@?$_Tree@V?$_Tset_traits@V?$basic_string@DU?$char_traits@D@std@@V?$allocator@D@2@@std@@U?$less@V?$basic_string@DU?$char_traits@D@std@@V?$allocator@D@2@@std@@@2@V?$allocator@V?$basic_string@DU?$char_traits@D@std@@V?$allocator@D@2@@std@@@2@$0A@@std@@@std@@IAEXPAU_Node@?$_Tree_nod@V?$_Tset_traits@V?$basic_string@DU?$char_traits@D@std@@V?$allocator@D@2@@std@@U?$less@V?$basic_string@DU?$char_traits@D@std@@V?$allocator@D@2@@std@@@2@V?$allocator@V?$basic_string@DU?$char_traits@D@std@@V?$allocator@D@2@@std@@@2@$0A@@std@@@2@@Z
_TEXT	SEGMENT PARA USE32 PUBLIC 'CODE'
_TEXT	ENDS
;	COMDAT ?_Rmost@?$_Tree@V?$_Tset_traits@V?$basic_string@DU?$char_traits@D@std@@V?$allocator@D@2@@std@@U?$less@V?$basic_string@DU?$char_traits@D@std@@V?$allocator@D@2@@std@@@2@V?$allocator@V?$basic_string@DU?$char_traits@D@std@@V?$allocator@D@2@@std@@@2@$0A@@std@@@std@@IAEAAPAU_Node@?$_Tree_nod@V?$_Tset_traits@V?$basic_string@DU?$char_traits@D@std@@V?$allocator@D@2@@std@@U?$less@V?$basic_string@DU?$char_traits@D@std@@V?$allocator@D@2@@std@@@2@V?$allocator@V?$basic_string@DU?$char_traits@D@std@@V?$allocator@D@2@@std@@@2@$0A@@std@@@2@XZ
_TEXT	SEGMENT PARA USE32 PUBLIC 'CODE'
_TEXT	ENDS
;	COMDAT ?_Rrotate@?$_Tree@V?$_Tset_traits@V?$basic_string@DU?$char_traits@D@std@@V?$allocator@D@2@@std@@U?$less@V?$basic_string@DU?$char_traits@D@std@@V?$allocator@D@2@@std@@@2@V?$allocator@V?$basic_string@DU?$char_traits@D@std@@V?$allocator@D@2@@std@@@2@$0A@@std@@@std@@IAEXPAU_Node@?$_Tree_nod@V?$_Tset_traits@V?$basic_string@DU?$char_traits@D@std@@V?$allocator@D@2@@std@@U?$less@V?$basic_string@DU?$char_traits@D@std@@V?$allocator@D@2@@std@@@2@V?$allocator@V?$basic_string@DU?$char_traits@D@std@@V?$allocator@D@2@@std@@@2@$0A@@std@@@2@@Z
_TEXT	SEGMENT PARA USE32 PUBLIC 'CODE'
_TEXT	ENDS
;	COMDAT ?_Buynode@?$_Tree@V?$_Tset_traits@V?$basic_string@DU?$char_traits@D@std@@V?$allocator@D@2@@std@@U?$less@V?$basic_string@DU?$char_traits@D@std@@V?$allocator@D@2@@std@@@2@V?$allocator@V?$basic_string@DU?$char_traits@D@std@@V?$allocator@D@2@@std@@@2@$0A@@std@@@std@@IAEPAU_Node@?$_Tree_nod@V?$_Tset_traits@V?$basic_string@DU?$char_traits@D@std@@V?$allocator@D@2@@std@@U?$less@V?$basic_string@DU?$char_traits@D@std@@V?$allocator@D@2@@std@@@2@V?$allocator@V?$basic_string@DU?$char_traits@D@std@@V?$allocator@D@2@@std@@@2@$0A@@std@@@2@PAU342@00ABV?$basic_string@DU?$char_traits@D@std@@V?$allocator@D@2@@2@D@Z
_TEXT	SEGMENT PARA USE32 PUBLIC 'CODE'
_TEXT	ENDS
;	COMDAT ?begin@?$list@PAXV?$allocator@PAX@std@@@std@@QAE?AViterator@12@XZ
_TEXT	SEGMENT PARA USE32 PUBLIC 'CODE'
_TEXT	ENDS
;	COMDAT ?clear@?$list@PAXV?$allocator@PAX@std@@@std@@QAEXXZ
_TEXT	SEGMENT PARA USE32 PUBLIC 'CODE'
_TEXT	ENDS
;	COMDAT ?_Tidy@?$list@PAXV?$allocator@PAX@std@@@std@@IAEXXZ
_TEXT	SEGMENT PARA USE32 PUBLIC 'CODE'
_TEXT	ENDS
;	COMDAT ??0?$allocator@H@std@@QAE@ABV01@@Z
_TEXT	SEGMENT PARA USE32 PUBLIC 'CODE'
_TEXT	ENDS
;	COMDAT ?deallocate@?$allocator@H@std@@QAEXPAHI@Z
_TEXT	SEGMENT PARA USE32 PUBLIC 'CODE'
_TEXT	ENDS
;	COMDAT ?allocate@?$allocator@H@std@@QAEPAHI@Z
_TEXT	SEGMENT PARA USE32 PUBLIC 'CODE'
_TEXT	ENDS
;	COMDAT ??Diterator@?$list@PAXV?$allocator@PAX@std@@@std@@QBEAAPAXXZ
_TEXT	SEGMENT PARA USE32 PUBLIC 'CODE'
_TEXT	ENDS
;	COMDAT ??Eiterator@?$list@PAXV?$allocator@PAX@std@@@std@@QAEAAV012@XZ
_TEXT	SEGMENT PARA USE32 PUBLIC 'CODE'
_TEXT	ENDS
;	COMDAT ??9const_iterator@?$list@PAXV?$allocator@PAX@std@@@std@@QBE_NABV012@@Z
_TEXT	SEGMENT PARA USE32 PUBLIC 'CODE'
_TEXT	ENDS
;	COMDAT ?_Myval@?$_Tree@V?$_Tmap_traits@KP8CDPLoginSrvr@@AEXAAVCAr@@KPAEK@ZU?$less@K@std@@V?$allocator@U?$pair@$$CBKP8CDPLoginSrvr@@AEXAAVCAr@@KPAEK@Z@std@@@4@$0A@@std@@@std@@KAAAU?$pair@$$CBKP8CDPLoginSrvr@@AEXAAVCAr@@KPAEK@Z@2@PAU_Node@?$_Tree_nod@V?$_Tmap_traits@KP8CDPLoginSrvr@@AEXAAVCAr@@KPAEK@ZU?$less@K@std@@V?$allocator@U?$pair@$$CBKP8CDPLoginSrvr@@AEXAAVCAr@@KPAEK@Z@std@@@4@$0A@@std@@@2@@Z
_TEXT	SEGMENT PARA USE32 PUBLIC 'CODE'
_TEXT	ENDS
;	COMDAT ?_Lbound@?$_Tree@V?$_Tmap_traits@KP8CDPLoginSrvr@@AEXAAVCAr@@KPAEK@ZU?$less@K@std@@V?$allocator@U?$pair@$$CBKP8CDPLoginSrvr@@AEXAAVCAr@@KPAEK@Z@std@@@4@$0A@@std@@@std@@IBEPAU_Node@?$_Tree_nod@V?$_Tmap_traits@KP8CDPLoginSrvr@@AEXAAVCAr@@KPAEK@ZU?$less@K@std@@V?$allocator@U?$pair@$$CBKP8CDPLoginSrvr@@AEXAAVCAr@@KPAEK@Z@std@@@4@$0A@@std@@@2@ABK@Z
_TEXT	SEGMENT PARA USE32 PUBLIC 'CODE'
_TEXT	ENDS
;	COMDAT ?_Kfn@?$_Tmap_traits@KP8CDPLoginSrvr@@AEXAAVCAr@@KPAEK@ZU?$less@K@std@@V?$allocator@U?$pair@$$CBKP8CDPLoginSrvr@@AEXAAVCAr@@KPAEK@Z@std@@@4@$0A@@std@@SAABKABU?$pair@$$CBKP8CDPLoginSrvr@@AEXAAVCAr@@KPAEK@Z@2@@Z
_TEXT	SEGMENT PARA USE32 PUBLIC 'CODE'
_TEXT	ENDS
;	COMDAT ??0const_iterator@?$_Tree@V?$_Tmap_traits@KP8CDPLoginSrvr@@AEXAAVCAr@@KPAEK@ZU?$less@K@std@@V?$allocator@U?$pair@$$CBKP8CDPLoginSrvr@@AEXAAVCAr@@KPAEK@Z@std@@@4@$0A@@std@@@std@@QAE@PAU_Node@?$_Tree_nod@V?$_Tmap_traits@KP8CDPLoginSrvr@@AEXAAVCAr@@KPAEK@ZU?$less@K@std@@V?$allocator@U?$pair@$$CBKP8CDPLoginSrvr@@AEXAAVCAr@@KPAEK@Z@std@@@4@$0A@@std@@@2@@Z
_TEXT	SEGMENT PARA USE32 PUBLIC 'CODE'
_TEXT	ENDS
;	COMDAT ??Dconst_iterator@?$_Tree@V?$_Tmap_traits@KP8CDPLoginSrvr@@AEXAAVCAr@@KPAEK@ZU?$less@K@std@@V?$allocator@U?$pair@$$CBKP8CDPLoginSrvr@@AEXAAVCAr@@KPAEK@Z@std@@@4@$0A@@std@@@std@@QBEABU?$pair@$$CBKP8CDPLoginSrvr@@AEXAAVCAr@@KPAEK@Z@2@XZ
_TEXT	SEGMENT PARA USE32 PUBLIC 'CODE'
_TEXT	ENDS
;	COMDAT ?max_size@?$vector@MV?$allocator@M@std@@@std@@QBEIXZ
_TEXT	SEGMENT PARA USE32 PUBLIC 'CODE'
_TEXT	ENDS
;	COMDAT ?_Destroy@?$vector@MV?$allocator@M@std@@@std@@IAEXPAM0@Z
_TEXT	SEGMENT PARA USE32 PUBLIC 'CODE'
_TEXT	ENDS
;	COMDAT ?_Xlen@?$vector@MV?$allocator@M@std@@@std@@IBEXXZ
_TEXT	SEGMENT PARA USE32 PUBLIC 'CODE'
_TEXT	ENDS
;	COMDAT ??0?$allocator@M@std@@QAE@ABV01@@Z
_TEXT	SEGMENT PARA USE32 PUBLIC 'CODE'
_TEXT	ENDS
;	COMDAT ?deallocate@?$allocator@M@std@@QAEXPAMI@Z
_TEXT	SEGMENT PARA USE32 PUBLIC 'CODE'
_TEXT	ENDS
;	COMDAT ?allocate@?$allocator@M@std@@QAEPAMI@Z
_TEXT	SEGMENT PARA USE32 PUBLIC 'CODE'
_TEXT	ENDS
;	COMDAT ?max_size@?$vector@HV?$allocator@H@std@@@std@@QBEIXZ
_TEXT	SEGMENT PARA USE32 PUBLIC 'CODE'
_TEXT	ENDS
;	COMDAT ?_Destroy@?$vector@HV?$allocator@H@std@@@std@@IAEXPAH0@Z
_TEXT	SEGMENT PARA USE32 PUBLIC 'CODE'
_TEXT	ENDS
;	COMDAT ?_Xlen@?$vector@HV?$allocator@H@std@@@std@@IBEXXZ
_TEXT	SEGMENT PARA USE32 PUBLIC 'CODE'
_TEXT	ENDS
;	COMDAT ?_Myval@?$_Tree@V?$_Tmap_traits@KP8CDPTrans@@AEXAAVCAr@@KKKPAEK@ZU?$less@K@std@@V?$allocator@U?$pair@$$CBKP8CDPTrans@@AEXAAVCAr@@KKKPAEK@Z@std@@@4@$0A@@std@@@std@@KAAAU?$pair@$$CBKP8CDPTrans@@AEXAAVCAr@@KKKPAEK@Z@2@PAU_Node@?$_Tree_nod@V?$_Tmap_traits@KP8CDPTrans@@AEXAAVCAr@@KKKPAEK@ZU?$less@K@std@@V?$allocator@U?$pair@$$CBKP8CDPTrans@@AEXAAVCAr@@KKKPAEK@Z@std@@@4@$0A@@std@@@2@@Z
_TEXT	SEGMENT PARA USE32 PUBLIC 'CODE'
_TEXT	ENDS
;	COMDAT ?_Lbound@?$_Tree@V?$_Tmap_traits@KP8CDPTrans@@AEXAAVCAr@@KKKPAEK@ZU?$less@K@std@@V?$allocator@U?$pair@$$CBKP8CDPTrans@@AEXAAVCAr@@KKKPAEK@Z@std@@@4@$0A@@std@@@std@@IBEPAU_Node@?$_Tree_nod@V?$_Tmap_traits@KP8CDPTrans@@AEXAAVCAr@@KKKPAEK@ZU?$less@K@std@@V?$allocator@U?$pair@$$CBKP8CDPTrans@@AEXAAVCAr@@KKKPAEK@Z@std@@@4@$0A@@std@@@2@ABK@Z
_TEXT	SEGMENT PARA USE32 PUBLIC 'CODE'
_TEXT	ENDS
;	COMDAT ?_Kfn@?$_Tmap_traits@KP8CDPTrans@@AEXAAVCAr@@KKKPAEK@ZU?$less@K@std@@V?$allocator@U?$pair@$$CBKP8CDPTrans@@AEXAAVCAr@@KKKPAEK@Z@std@@@4@$0A@@std@@SAABKABU?$pair@$$CBKP8CDPTrans@@AEXAAVCAr@@KKKPAEK@Z@2@@Z
_TEXT	SEGMENT PARA USE32 PUBLIC 'CODE'
_TEXT	ENDS
;	COMDAT ??0const_iterator@?$_Tree@V?$_Tmap_traits@KP8CDPTrans@@AEXAAVCAr@@KKKPAEK@ZU?$less@K@std@@V?$allocator@U?$pair@$$CBKP8CDPTrans@@AEXAAVCAr@@KKKPAEK@Z@std@@@4@$0A@@std@@@std@@QAE@PAU_Node@?$_Tree_nod@V?$_Tmap_traits@KP8CDPTrans@@AEXAAVCAr@@KKKPAEK@ZU?$less@K@std@@V?$allocator@U?$pair@$$CBKP8CDPTrans@@AEXAAVCAr@@KKKPAEK@Z@std@@@4@$0A@@std@@@2@@Z
_TEXT	SEGMENT PARA USE32 PUBLIC 'CODE'
_TEXT	ENDS
;	COMDAT ??Dconst_iterator@?$_Tree@V?$_Tmap_traits@KP8CDPTrans@@AEXAAVCAr@@KKKPAEK@ZU?$less@K@std@@V?$allocator@U?$pair@$$CBKP8CDPTrans@@AEXAAVCAr@@KKKPAEK@Z@std@@@4@$0A@@std@@@std@@QBEABU?$pair@$$CBKP8CDPTrans@@AEXAAVCAr@@KKKPAEK@Z@2@XZ
_TEXT	SEGMENT PARA USE32 PUBLIC 'CODE'
_TEXT	ENDS
;	COMDAT ?_Myval@?$_Tree@V?$_Tmap_traits@KP8CDPAccountClient@@AEXAAVCAr@@PAEK@ZU?$less@K@std@@V?$allocator@U?$pair@$$CBKP8CDPAccountClient@@AEXAAVCAr@@PAEK@Z@std@@@4@$0A@@std@@@std@@KAAAU?$pair@$$CBKP8CDPAccountClient@@AEXAAVCAr@@PAEK@Z@2@PAU_Node@?$_Tree_nod@V?$_Tmap_traits@KP8CDPAccountClient@@AEXAAVCAr@@PAEK@ZU?$less@K@std@@V?$allocator@U?$pair@$$CBKP8CDPAccountClient@@AEXAAVCAr@@PAEK@Z@std@@@4@$0A@@std@@@2@@Z
_TEXT	SEGMENT PARA USE32 PUBLIC 'CODE'
_TEXT	ENDS
;	COMDAT ?_Lbound@?$_Tree@V?$_Tmap_traits@KP8CDPAccountClient@@AEXAAVCAr@@PAEK@ZU?$less@K@std@@V?$allocator@U?$pair@$$CBKP8CDPAccountClient@@AEXAAVCAr@@PAEK@Z@std@@@4@$0A@@std@@@std@@IBEPAU_Node@?$_Tree_nod@V?$_Tmap_traits@KP8CDPAccountClient@@AEXAAVCAr@@PAEK@ZU?$less@K@std@@V?$allocator@U?$pair@$$CBKP8CDPAccountClient@@AEXAAVCAr@@PAEK@Z@std@@@4@$0A@@std@@@2@ABK@Z
_TEXT	SEGMENT PARA USE32 PUBLIC 'CODE'
_TEXT	ENDS
;	COMDAT ?_Kfn@?$_Tmap_traits@KP8CDPAccountClient@@AEXAAVCAr@@PAEK@ZU?$less@K@std@@V?$allocator@U?$pair@$$CBKP8CDPAccountClient@@AEXAAVCAr@@PAEK@Z@std@@@4@$0A@@std@@SAABKABU?$pair@$$CBKP8CDPAccountClient@@AEXAAVCAr@@PAEK@Z@2@@Z
_TEXT	SEGMENT PARA USE32 PUBLIC 'CODE'
_TEXT	ENDS
;	COMDAT ??0const_iterator@?$_Tree@V?$_Tmap_traits@KP8CDPAccountClient@@AEXAAVCAr@@PAEK@ZU?$less@K@std@@V?$allocator@U?$pair@$$CBKP8CDPAccountClient@@AEXAAVCAr@@PAEK@Z@std@@@4@$0A@@std@@@std@@QAE@PAU_Node@?$_Tree_nod@V?$_Tmap_traits@KP8CDPAccountClient@@AEXAAVCAr@@PAEK@ZU?$less@K@std@@V?$allocator@U?$pair@$$CBKP8CDPAccountClient@@AEXAAVCAr@@PAEK@Z@std@@@4@$0A@@std@@@2@@Z
_TEXT	SEGMENT PARA USE32 PUBLIC 'CODE'
_TEXT	ENDS
;	COMDAT ??Dconst_iterator@?$_Tree@V?$_Tmap_traits@KP8CDPAccountClient@@AEXAAVCAr@@PAEK@ZU?$less@K@std@@V?$allocator@U?$pair@$$CBKP8CDPAccountClient@@AEXAAVCAr@@PAEK@Z@std@@@4@$0A@@std@@@std@@QBEABU?$pair@$$CBKP8CDPAccountClient@@AEXAAVCAr@@PAEK@Z@2@XZ
_TEXT	SEGMENT PARA USE32 PUBLIC 'CODE'
_TEXT	ENDS
;	COMDAT ?_Myval@?$_Tree@V?$_Tmap_traits@KP8CDPCoreSrvr@@AEXAAVCAr@@PAEK@ZU?$less@K@std@@V?$allocator@U?$pair@$$CBKP8CDPCoreSrvr@@AEXAAVCAr@@PAEK@Z@std@@@4@$0A@@std@@@std@@KAAAU?$pair@$$CBKP8CDPCoreSrvr@@AEXAAVCAr@@PAEK@Z@2@PAU_Node@?$_Tree_nod@V?$_Tmap_traits@KP8CDPCoreSrvr@@AEXAAVCAr@@PAEK@ZU?$less@K@std@@V?$allocator@U?$pair@$$CBKP8CDPCoreSrvr@@AEXAAVCAr@@PAEK@Z@std@@@4@$0A@@std@@@2@@Z
_TEXT	SEGMENT PARA USE32 PUBLIC 'CODE'
_TEXT	ENDS
;	COMDAT ?_Lbound@?$_Tree@V?$_Tmap_traits@KP8CDPCoreSrvr@@AEXAAVCAr@@PAEK@ZU?$less@K@std@@V?$allocator@U?$pair@$$CBKP8CDPCoreSrvr@@AEXAAVCAr@@PAEK@Z@std@@@4@$0A@@std@@@std@@IBEPAU_Node@?$_Tree_nod@V?$_Tmap_traits@KP8CDPCoreSrvr@@AEXAAVCAr@@PAEK@ZU?$less@K@std@@V?$allocator@U?$pair@$$CBKP8CDPCoreSrvr@@AEXAAVCAr@@PAEK@Z@std@@@4@$0A@@std@@@2@ABK@Z
_TEXT	SEGMENT PARA USE32 PUBLIC 'CODE'
_TEXT	ENDS
;	COMDAT ?_Kfn@?$_Tmap_traits@KP8CDPCoreSrvr@@AEXAAVCAr@@PAEK@ZU?$less@K@std@@V?$allocator@U?$pair@$$CBKP8CDPCoreSrvr@@AEXAAVCAr@@PAEK@Z@std@@@4@$0A@@std@@SAABKABU?$pair@$$CBKP8CDPCoreSrvr@@AEXAAVCAr@@PAEK@Z@2@@Z
_TEXT	SEGMENT PARA USE32 PUBLIC 'CODE'
_TEXT	ENDS
;	COMDAT ??0const_iterator@?$_Tree@V?$_Tmap_traits@KP8CDPCoreSrvr@@AEXAAVCAr@@PAEK@ZU?$less@K@std@@V?$allocator@U?$pair@$$CBKP8CDPCoreSrvr@@AEXAAVCAr@@PAEK@Z@std@@@4@$0A@@std@@@std@@QAE@PAU_Node@?$_Tree_nod@V?$_Tmap_traits@KP8CDPCoreSrvr@@AEXAAVCAr@@PAEK@ZU?$less@K@std@@V?$allocator@U?$pair@$$CBKP8CDPCoreSrvr@@AEXAAVCAr@@PAEK@Z@std@@@4@$0A@@std@@@2@@Z
_TEXT	SEGMENT PARA USE32 PUBLIC 'CODE'
_TEXT	ENDS
;	COMDAT ??Dconst_iterator@?$_Tree@V?$_Tmap_traits@KP8CDPCoreSrvr@@AEXAAVCAr@@PAEK@ZU?$less@K@std@@V?$allocator@U?$pair@$$CBKP8CDPCoreSrvr@@AEXAAVCAr@@PAEK@Z@std@@@4@$0A@@std@@@std@@QBEABU?$pair@$$CBKP8CDPCoreSrvr@@AEXAAVCAr@@PAEK@Z@2@XZ
_TEXT	SEGMENT PARA USE32 PUBLIC 'CODE'
_TEXT	ENDS
;	COMDAT ?_Color@?$_Tree@V?$_Tmap_traits@EPAU__TAXDETAIL@@U?$less@E@std@@V?$allocator@U?$pair@$$CBEPAU__TAXDETAIL@@@std@@@3@$0A@@std@@@std@@KAAADPAU_Node@?$_Tree_nod@V?$_Tmap_traits@EPAU__TAXDETAIL@@U?$less@E@std@@V?$allocator@U?$pair@$$CBEPAU__TAXDETAIL@@@std@@@3@$0A@@std@@@2@@Z
_TEXT	SEGMENT PARA USE32 PUBLIC 'CODE'
_TEXT	ENDS
;	COMDAT ?_Parent@?$_Tree@V?$_Tmap_traits@EPAU__TAXDETAIL@@U?$less@E@std@@V?$allocator@U?$pair@$$CBEPAU__TAXDETAIL@@@std@@@3@$0A@@std@@@std@@KAAAPAU_Node@?$_Tree_nod@V?$_Tmap_traits@EPAU__TAXDETAIL@@U?$less@E@std@@V?$allocator@U?$pair@$$CBEPAU__TAXDETAIL@@@std@@@3@$0A@@std@@@2@PAU342@@Z
_TEXT	SEGMENT PARA USE32 PUBLIC 'CODE'
_TEXT	ENDS
;	COMDAT ?_Myval@?$_Tree@V?$_Tmap_traits@EPAU__TAXDETAIL@@U?$less@E@std@@V?$allocator@U?$pair@$$CBEPAU__TAXDETAIL@@@std@@@3@$0A@@std@@@std@@KAAAU?$pair@$$CBEPAU__TAXDETAIL@@@2@PAU_Node@?$_Tree_nod@V?$_Tmap_traits@EPAU__TAXDETAIL@@U?$less@E@std@@V?$allocator@U?$pair@$$CBEPAU__TAXDETAIL@@@std@@@3@$0A@@std@@@2@@Z
_TEXT	SEGMENT PARA USE32 PUBLIC 'CODE'
_TEXT	ENDS
;	COMDAT ?end@?$_Tree@V?$_Tmap_traits@EPAU__TAXDETAIL@@U?$less@E@std@@V?$allocator@U?$pair@$$CBEPAU__TAXDETAIL@@@std@@@3@$0A@@std@@@std@@QAE?AViterator@12@XZ
_TEXT	SEGMENT PARA USE32 PUBLIC 'CODE'
_TEXT	ENDS
;	COMDAT ?max_size@?$_Tree@V?$_Tmap_traits@EPAU__TAXDETAIL@@U?$less@E@std@@V?$allocator@U?$pair@$$CBEPAU__TAXDETAIL@@@std@@@3@$0A@@std@@@std@@QBEIXZ
_TEXT	SEGMENT PARA USE32 PUBLIC 'CODE'
_TEXT	ENDS
;	COMDAT ?erase@?$_Tree@V?$_Tmap_traits@EPAU__TAXDETAIL@@U?$less@E@std@@V?$allocator@U?$pair@$$CBEPAU__TAXDETAIL@@@std@@@3@$0A@@std@@@std@@QAE?AViterator@12@V312@0@Z
_TEXT	SEGMENT PARA USE32 PUBLIC 'CODE'
_TEXT	ENDS
;	COMDAT ?_Init@?$_Tree@V?$_Tmap_traits@EPAU__TAXDETAIL@@U?$less@E@std@@V?$allocator@U?$pair@$$CBEPAU__TAXDETAIL@@@std@@@3@$0A@@std@@@std@@IAEXXZ
_TEXT	SEGMENT PARA USE32 PUBLIC 'CODE'
_TEXT	ENDS
;	COMDAT ?_Lmost@?$_Tree@V?$_Tmap_traits@EPAU__TAXDETAIL@@U?$less@E@std@@V?$allocator@U?$pair@$$CBEPAU__TAXDETAIL@@@std@@@3@$0A@@std@@@std@@IAEAAPAU_Node@?$_Tree_nod@V?$_Tmap_traits@EPAU__TAXDETAIL@@U?$less@E@std@@V?$allocator@U?$pair@$$CBEPAU__TAXDETAIL@@@std@@@3@$0A@@std@@@2@XZ
_TEXT	SEGMENT PARA USE32 PUBLIC 'CODE'
_TEXT	ENDS
;	COMDAT ?_Lrotate@?$_Tree@V?$_Tmap_traits@EPAU__TAXDETAIL@@U?$less@E@std@@V?$allocator@U?$pair@$$CBEPAU__TAXDETAIL@@@std@@@3@$0A@@std@@@std@@IAEXPAU_Node@?$_Tree_nod@V?$_Tmap_traits@EPAU__TAXDETAIL@@U?$less@E@std@@V?$allocator@U?$pair@$$CBEPAU__TAXDETAIL@@@std@@@3@$0A@@std@@@2@@Z
_TEXT	SEGMENT PARA USE32 PUBLIC 'CODE'
_TEXT	ENDS
;	COMDAT ?_Rmost@?$_Tree@V?$_Tmap_traits@EPAU__TAXDETAIL@@U?$less@E@std@@V?$allocator@U?$pair@$$CBEPAU__TAXDETAIL@@@std@@@3@$0A@@std@@@std@@IAEAAPAU_Node@?$_Tree_nod@V?$_Tmap_traits@EPAU__TAXDETAIL@@U?$less@E@std@@V?$allocator@U?$pair@$$CBEPAU__TAXDETAIL@@@std@@@3@$0A@@std@@@2@XZ
_TEXT	SEGMENT PARA USE32 PUBLIC 'CODE'
_TEXT	ENDS
;	COMDAT ?_Rrotate@?$_Tree@V?$_Tmap_traits@EPAU__TAXDETAIL@@U?$less@E@std@@V?$allocator@U?$pair@$$CBEPAU__TAXDETAIL@@@std@@@3@$0A@@std@@@std@@IAEXPAU_Node@?$_Tree_nod@V?$_Tmap_traits@EPAU__TAXDETAIL@@U?$less@E@std@@V?$allocator@U?$pair@$$CBEPAU__TAXDETAIL@@@std@@@3@$0A@@std@@@2@@Z
_TEXT	SEGMENT PARA USE32 PUBLIC 'CODE'
_TEXT	ENDS
;	COMDAT ?_Buynode@?$_Tree@V?$_Tmap_traits@EPAU__TAXDETAIL@@U?$less@E@std@@V?$allocator@U?$pair@$$CBEPAU__TAXDETAIL@@@std@@@3@$0A@@std@@@std@@IAEPAU_Node@?$_Tree_nod@V?$_Tmap_traits@EPAU__TAXDETAIL@@U?$less@E@std@@V?$allocator@U?$pair@$$CBEPAU__TAXDETAIL@@@std@@@3@$0A@@std@@@2@PAU342@00ABU?$pair@$$CBEPAU__TAXDETAIL@@@2@D@Z
_TEXT	SEGMENT PARA USE32 PUBLIC 'CODE'
_TEXT	ENDS
;	COMDAT ??0?$_Tree_val@V?$_Tmap_traits@EPAU__TAXDETAIL@@U?$less@E@std@@V?$allocator@U?$pair@$$CBEPAU__TAXDETAIL@@@std@@@3@$0A@@std@@@std@@IAE@ABU?$less@E@1@V?$allocator@U?$pair@$$CBEPAU__TAXDETAIL@@@std@@@1@@Z
_TEXT	SEGMENT PARA USE32 PUBLIC 'CODE'
_TEXT	ENDS
;	COMDAT ??0?$allocator@U?$pair@$$CBEPAU__TAXDETAIL@@@std@@@std@@QAE@ABV01@@Z
_TEXT	SEGMENT PARA USE32 PUBLIC 'CODE'
_TEXT	ENDS
;	COMDAT ?deallocate@?$allocator@U_Node@?$_Tree_nod@V?$_Tmap_traits@EPAU__TAXDETAIL@@U?$less@E@std@@V?$allocator@U?$pair@$$CBEPAU__TAXDETAIL@@@std@@@3@$0A@@std@@@std@@@std@@QAEXPAU_Node@?$_Tree_nod@V?$_Tmap_traits@EPAU__TAXDETAIL@@U?$less@E@std@@V?$allocator@U?$pair@$$CBEPAU__TAXDETAIL@@@std@@@3@$0A@@std@@@2@I@Z
_TEXT	SEGMENT PARA USE32 PUBLIC 'CODE'
_TEXT	ENDS
;	COMDAT ?destroy@?$allocator@PAU_Node@?$_Tree_nod@V?$_Tmap_traits@EPAU__TAXDETAIL@@U?$less@E@std@@V?$allocator@U?$pair@$$CBEPAU__TAXDETAIL@@@std@@@3@$0A@@std@@@std@@@std@@QAEXPAPAU_Node@?$_Tree_nod@V?$_Tmap_traits@EPAU__TAXDETAIL@@U?$less@E@std@@V?$allocator@U?$pair@$$CBEPAU__TAXDETAIL@@@std@@@3@$0A@@std@@@2@@Z
_TEXT	SEGMENT PARA USE32 PUBLIC 'CODE'
_TEXT	ENDS
;	COMDAT ??0const_iterator@?$_Tree@V?$_Tmap_traits@EPAU__TAXDETAIL@@U?$less@E@std@@V?$allocator@U?$pair@$$CBEPAU__TAXDETAIL@@@std@@@3@$0A@@std@@@std@@QAE@PAU_Node@?$_Tree_nod@V?$_Tmap_traits@EPAU__TAXDETAIL@@U?$less@E@std@@V?$allocator@U?$pair@$$CBEPAU__TAXDETAIL@@@std@@@3@$0A@@std@@@2@@Z
_TEXT	SEGMENT PARA USE32 PUBLIC 'CODE'
_TEXT	ENDS
;	COMDAT ??Fconst_iterator@?$_Tree@V?$_Tmap_traits@EPAU__TAXDETAIL@@U?$less@E@std@@V?$allocator@U?$pair@$$CBEPAU__TAXDETAIL@@@std@@@3@$0A@@std@@@std@@QAEAAV012@XZ
_TEXT	SEGMENT PARA USE32 PUBLIC 'CODE'
_TEXT	ENDS
;	COMDAT ?_Color@?$_Tree@V?$_Tmap_traits@KPAVCGuildHouseBase@@U?$less@K@std@@V?$allocator@U?$pair@$$CBKPAVCGuildHouseBase@@@std@@@3@$0A@@std@@@std@@KAAADPAU_Node@?$_Tree_nod@V?$_Tmap_traits@KPAVCGuildHouseBase@@U?$less@K@std@@V?$allocator@U?$pair@$$CBKPAVCGuildHouseBase@@@std@@@3@$0A@@std@@@2@@Z
_TEXT	SEGMENT PARA USE32 PUBLIC 'CODE'
_TEXT	ENDS
;	COMDAT ?_Parent@?$_Tree@V?$_Tmap_traits@KPAVCGuildHouseBase@@U?$less@K@std@@V?$allocator@U?$pair@$$CBKPAVCGuildHouseBase@@@std@@@3@$0A@@std@@@std@@KAAAPAU_Node@?$_Tree_nod@V?$_Tmap_traits@KPAVCGuildHouseBase@@U?$less@K@std@@V?$allocator@U?$pair@$$CBKPAVCGuildHouseBase@@@std@@@3@$0A@@std@@@2@PAU342@@Z
_TEXT	SEGMENT PARA USE32 PUBLIC 'CODE'
_TEXT	ENDS
;	COMDAT ?_Myval@?$_Tree@V?$_Tmap_traits@KPAVCGuildHouseBase@@U?$less@K@std@@V?$allocator@U?$pair@$$CBKPAVCGuildHouseBase@@@std@@@3@$0A@@std@@@std@@KAAAU?$pair@$$CBKPAVCGuildHouseBase@@@2@PAU_Node@?$_Tree_nod@V?$_Tmap_traits@KPAVCGuildHouseBase@@U?$less@K@std@@V?$allocator@U?$pair@$$CBKPAVCGuildHouseBase@@@std@@@3@$0A@@std@@@2@@Z
_TEXT	SEGMENT PARA USE32 PUBLIC 'CODE'
_TEXT	ENDS
;	COMDAT ?max_size@?$_Tree@V?$_Tmap_traits@KPAVCGuildHouseBase@@U?$less@K@std@@V?$allocator@U?$pair@$$CBKPAVCGuildHouseBase@@@std@@@3@$0A@@std@@@std@@QBEIXZ
_TEXT	SEGMENT PARA USE32 PUBLIC 'CODE'
_TEXT	ENDS
;	COMDAT ?_Lmost@?$_Tree@V?$_Tmap_traits@KPAVCGuildHouseBase@@U?$less@K@std@@V?$allocator@U?$pair@$$CBKPAVCGuildHouseBase@@@std@@@3@$0A@@std@@@std@@IAEAAPAU_Node@?$_Tree_nod@V?$_Tmap_traits@KPAVCGuildHouseBase@@U?$less@K@std@@V?$allocator@U?$pair@$$CBKPAVCGuildHouseBase@@@std@@@3@$0A@@std@@@2@XZ
_TEXT	SEGMENT PARA USE32 PUBLIC 'CODE'
_TEXT	ENDS
;	COMDAT ?_Lrotate@?$_Tree@V?$_Tmap_traits@KPAVCGuildHouseBase@@U?$less@K@std@@V?$allocator@U?$pair@$$CBKPAVCGuildHouseBase@@@std@@@3@$0A@@std@@@std@@IAEXPAU_Node@?$_Tree_nod@V?$_Tmap_traits@KPAVCGuildHouseBase@@U?$less@K@std@@V?$allocator@U?$pair@$$CBKPAVCGuildHouseBase@@@std@@@3@$0A@@std@@@2@@Z
_TEXT	SEGMENT PARA USE32 PUBLIC 'CODE'
_TEXT	ENDS
;	COMDAT ?_Rmost@?$_Tree@V?$_Tmap_traits@KPAVCGuildHouseBase@@U?$less@K@std@@V?$allocator@U?$pair@$$CBKPAVCGuildHouseBase@@@std@@@3@$0A@@std@@@std@@IAEAAPAU_Node@?$_Tree_nod@V?$_Tmap_traits@KPAVCGuildHouseBase@@U?$less@K@std@@V?$allocator@U?$pair@$$CBKPAVCGuildHouseBase@@@std@@@3@$0A@@std@@@2@XZ
_TEXT	SEGMENT PARA USE32 PUBLIC 'CODE'
_TEXT	ENDS
;	COMDAT ?_Rrotate@?$_Tree@V?$_Tmap_traits@KPAVCGuildHouseBase@@U?$less@K@std@@V?$allocator@U?$pair@$$CBKPAVCGuildHouseBase@@@std@@@3@$0A@@std@@@std@@IAEXPAU_Node@?$_Tree_nod@V?$_Tmap_traits@KPAVCGuildHouseBase@@U?$less@K@std@@V?$allocator@U?$pair@$$CBKPAVCGuildHouseBase@@@std@@@3@$0A@@std@@@2@@Z
_TEXT	SEGMENT PARA USE32 PUBLIC 'CODE'
_TEXT	ENDS
;	COMDAT ?_Buynode@?$_Tree@V?$_Tmap_traits@KPAVCGuildHouseBase@@U?$less@K@std@@V?$allocator@U?$pair@$$CBKPAVCGuildHouseBase@@@std@@@3@$0A@@std@@@std@@IAEPAU_Node@?$_Tree_nod@V?$_Tmap_traits@KPAVCGuildHouseBase@@U?$less@K@std@@V?$allocator@U?$pair@$$CBKPAVCGuildHouseBase@@@std@@@3@$0A@@std@@@2@PAU342@00ABU?$pair@$$CBKPAVCGuildHouseBase@@@2@D@Z
_TEXT	SEGMENT PARA USE32 PUBLIC 'CODE'
_TEXT	ENDS
;	COMDAT ??0const_iterator@?$_Tree@V?$_Tmap_traits@KPAVCGuildHouseBase@@U?$less@K@std@@V?$allocator@U?$pair@$$CBKPAVCGuildHouseBase@@@std@@@3@$0A@@std@@@std@@QAE@PAU_Node@?$_Tree_nod@V?$_Tmap_traits@KPAVCGuildHouseBase@@U?$less@K@std@@V?$allocator@U?$pair@$$CBKPAVCGuildHouseBase@@@std@@@3@$0A@@std@@@2@@Z
_TEXT	SEGMENT PARA USE32 PUBLIC 'CODE'
_TEXT	ENDS
;	COMDAT ??Fconst_iterator@?$_Tree@V?$_Tmap_traits@KPAVCGuildHouseBase@@U?$less@K@std@@V?$allocator@U?$pair@$$CBKPAVCGuildHouseBase@@@std@@@3@$0A@@std@@@std@@QAEAAV012@XZ
_TEXT	SEGMENT PARA USE32 PUBLIC 'CODE'
_TEXT	ENDS
;	COMDAT ?begin@?$_Tree@V?$_Tmap_traits@KKU?$less@K@std@@V?$allocator@U?$pair@$$CBKK@std@@@2@$0A@@std@@@std@@QAE?AViterator@12@XZ
_TEXT	SEGMENT PARA USE32 PUBLIC 'CODE'
_TEXT	ENDS
;	COMDAT ?end@?$_Tree@V?$_Tmap_traits@KKU?$less@K@std@@V?$allocator@U?$pair@$$CBKK@std@@@2@$0A@@std@@@std@@QAE?AViterator@12@XZ
_TEXT	SEGMENT PARA USE32 PUBLIC 'CODE'
_TEXT	ENDS
;	COMDAT ?erase@?$_Tree@V?$_Tmap_traits@KKU?$less@K@std@@V?$allocator@U?$pair@$$CBKK@std@@@2@$0A@@std@@@std@@QAE?AViterator@12@V312@@Z
_TEXT	SEGMENT PARA USE32 PUBLIC 'CODE'
_TEXT	ENDS
;	COMDAT ?clear@?$_Tree@V?$_Tmap_traits@KKU?$less@K@std@@V?$allocator@U?$pair@$$CBKK@std@@@2@$0A@@std@@@std@@QAEXXZ
_TEXT	SEGMENT PARA USE32 PUBLIC 'CODE'
_TEXT	ENDS
;	COMDAT ?lower_bound@?$_Tree@V?$_Tmap_traits@KKU?$less@K@std@@V?$allocator@U?$pair@$$CBKK@std@@@2@$0A@@std@@@std@@QAE?AViterator@12@ABK@Z
_TEXT	SEGMENT PARA USE32 PUBLIC 'CODE'
_TEXT	ENDS
;	COMDAT ?upper_bound@?$_Tree@V?$_Tmap_traits@KKU?$less@K@std@@V?$allocator@U?$pair@$$CBKK@std@@@2@$0A@@std@@@std@@QAE?AViterator@12@ABK@Z
_TEXT	SEGMENT PARA USE32 PUBLIC 'CODE'
_TEXT	ENDS
;	COMDAT ??Eiterator@?$_Tree@V?$_Tmap_traits@KKU?$less@K@std@@V?$allocator@U?$pair@$$CBKK@std@@@2@$0A@@std@@@std@@QAE?AV012@H@Z
_TEXT	SEGMENT PARA USE32 PUBLIC 'CODE'
_TEXT	ENDS
;	COMDAT ??8const_iterator@?$_Tree@V?$_Tmap_traits@KKU?$less@K@std@@V?$allocator@U?$pair@$$CBKK@std@@@2@$0A@@std@@@std@@QBE_NABV012@@Z
_TEXT	SEGMENT PARA USE32 PUBLIC 'CODE'
_TEXT	ENDS
;	COMDAT ??9const_iterator@?$_Tree@V?$_Tmap_traits@KKU?$less@K@std@@V?$allocator@U?$pair@$$CBKK@std@@@2@$0A@@std@@@std@@QBE_NABV012@@Z
_TEXT	SEGMENT PARA USE32 PUBLIC 'CODE'
_TEXT	ENDS
;	COMDAT ??0const_iterator@?$_Tree@V?$_Tset_traits@V?$basic_string@DU?$char_traits@D@std@@V?$allocator@D@2@@std@@U?$less@V?$basic_string@DU?$char_traits@D@std@@V?$allocator@D@2@@std@@@2@V?$allocator@V?$basic_string@DU?$char_traits@D@std@@V?$allocator@D@2@@std@@@2@$0A@@std@@@std@@QAE@PAU_Node@?$_Tree_nod@V?$_Tset_traits@V?$basic_string@DU?$char_traits@D@std@@V?$allocator@D@2@@std@@U?$less@V?$basic_string@DU?$char_traits@D@std@@V?$allocator@D@2@@std@@@2@V?$allocator@V?$basic_string@DU?$char_traits@D@std@@V?$allocator@D@2@@std@@@2@$0A@@std@@@2@@Z
_TEXT	SEGMENT PARA USE32 PUBLIC 'CODE'
_TEXT	ENDS
;	COMDAT ??Fconst_iterator@?$_Tree@V?$_Tset_traits@V?$basic_string@DU?$char_traits@D@std@@V?$allocator@D@2@@std@@U?$less@V?$basic_string@DU?$char_traits@D@std@@V?$allocator@D@2@@std@@@2@V?$allocator@V?$basic_string@DU?$char_traits@D@std@@V?$allocator@D@2@@std@@@2@$0A@@std@@@std@@QAEAAV012@XZ
_TEXT	SEGMENT PARA USE32 PUBLIC 'CODE'
_TEXT	ENDS
;	COMDAT ??0iterator@?$vector@UGuildHouse_Furniture_Info@CGuildHouseBase@@V?$allocator@UGuildHouse_Furniture_Info@CGuildHouseBase@@@std@@@std@@QAE@PAUGuildHouse_Furniture_Info@CGuildHouseBase@@@Z
_TEXT	SEGMENT PARA USE32 PUBLIC 'CODE'
_TEXT	ENDS
;	COMDAT ??Yiterator@?$vector@UGuildHouse_Furniture_Info@CGuildHouseBase@@V?$allocator@UGuildHouse_Furniture_Info@CGuildHouseBase@@@std@@@std@@QAEAAV012@H@Z
_TEXT	SEGMENT PARA USE32 PUBLIC 'CODE'
_TEXT	ENDS
;	COMDAT ??Dconst_iterator@?$vector@UGuildHouse_Furniture_Info@CGuildHouseBase@@V?$allocator@UGuildHouse_Furniture_Info@CGuildHouseBase@@@std@@@std@@QBEABUGuildHouse_Furniture_Info@CGuildHouseBase@@XZ
_TEXT	SEGMENT PARA USE32 PUBLIC 'CODE'
_TEXT	ENDS
;	COMDAT ??0?$pair@Viterator@?$_Tree@V?$_Tmap_traits@KKU?$less@K@std@@V?$allocator@U?$pair@$$CBKK@std@@@2@$0A@@std@@@std@@V123@@std@@QAE@ABViterator@?$_Tree@V?$_Tmap_traits@KKU?$less@K@std@@V?$allocator@U?$pair@$$CBKK@std@@@2@$0A@@std@@@1@0@Z
_TEXT	SEGMENT PARA USE32 PUBLIC 'CODE'
_TEXT	ENDS
;	COMDAT ?max_size@?$allocator@V?$basic_string@DU?$char_traits@D@std@@V?$allocator@D@2@@std@@@std@@QBEIXZ
_TEXT	SEGMENT PARA USE32 PUBLIC 'CODE'
_TEXT	ENDS
;	COMDAT ?_Color@?$_Tree@V?$_Tmap_traits@EHU?$less@E@std@@V?$allocator@U?$pair@$$CBEH@std@@@2@$0A@@std@@@std@@KAAADPAU_Node@?$_Tree_nod@V?$_Tmap_traits@EHU?$less@E@std@@V?$allocator@U?$pair@$$CBEH@std@@@2@$0A@@std@@@2@@Z
_TEXT	SEGMENT PARA USE32 PUBLIC 'CODE'
_TEXT	ENDS
;	COMDAT ?_Myval@?$_Tree@V?$_Tmap_traits@EHU?$less@E@std@@V?$allocator@U?$pair@$$CBEH@std@@@2@$0A@@std@@@std@@KAAAU?$pair@$$CBEH@2@PAU_Node@?$_Tree_nod@V?$_Tmap_traits@EHU?$less@E@std@@V?$allocator@U?$pair@$$CBEH@std@@@2@$0A@@std@@@2@@Z
_TEXT	SEGMENT PARA USE32 PUBLIC 'CODE'
_TEXT	ENDS
;	COMDAT ?erase@?$_Tree@V?$_Tmap_traits@EHU?$less@E@std@@V?$allocator@U?$pair@$$CBEH@std@@@2@$0A@@std@@@std@@QAE?AViterator@12@V312@@Z
_TEXT	SEGMENT PARA USE32 PUBLIC 'CODE'
_TEXT	ENDS
;	COMDAT ?clear@?$_Tree@V?$_Tmap_traits@EHU?$less@E@std@@V?$allocator@U?$pair@$$CBEH@std@@@2@$0A@@std@@@std@@QAEXXZ
_TEXT	SEGMENT PARA USE32 PUBLIC 'CODE'
_TEXT	ENDS
;	COMDAT ?_Erase@?$_Tree@V?$_Tmap_traits@EHU?$less@E@std@@V?$allocator@U?$pair@$$CBEH@std@@@2@$0A@@std@@@std@@IAEXPAU_Node@?$_Tree_nod@V?$_Tmap_traits@EHU?$less@E@std@@V?$allocator@U?$pair@$$CBEH@std@@@2@$0A@@std@@@2@@Z
_TEXT	SEGMENT PARA USE32 PUBLIC 'CODE'
_TEXT	ENDS
;	COMDAT ?_Buynode@?$_Tree@V?$_Tmap_traits@EHU?$less@E@std@@V?$allocator@U?$pair@$$CBEH@std@@@2@$0A@@std@@@std@@IAEPAU_Node@?$_Tree_nod@V?$_Tmap_traits@EHU?$less@E@std@@V?$allocator@U?$pair@$$CBEH@std@@@2@$0A@@std@@@2@PAU342@00ABU?$pair@$$CBEH@2@D@Z
_TEXT	SEGMENT PARA USE32 PUBLIC 'CODE'
_TEXT	ENDS
;	COMDAT ??0?$_Tree_nod@V?$_Tmap_traits@EHU?$less@E@std@@V?$allocator@U?$pair@$$CBEH@std@@@2@$0A@@std@@@std@@IAE@ABU?$less@E@1@V?$allocator@U?$pair@$$CBEH@std@@@1@@Z
_TEXT	SEGMENT PARA USE32 PUBLIC 'CODE'
_TEXT	ENDS
;	COMDAT ?allocate@?$allocator@U_Node@?$_Tree_nod@V?$_Tmap_traits@EHU?$less@E@std@@V?$allocator@U?$pair@$$CBEH@std@@@2@$0A@@std@@@std@@@std@@QAEPAU_Node@?$_Tree_nod@V?$_Tmap_traits@EHU?$less@E@std@@V?$allocator@U?$pair@$$CBEH@std@@@2@$0A@@std@@@2@I@Z
_TEXT	SEGMENT PARA USE32 PUBLIC 'CODE'
_TEXT	ENDS
;	COMDAT ?construct@?$allocator@PAU_Node@?$_Tree_nod@V?$_Tmap_traits@EHU?$less@E@std@@V?$allocator@U?$pair@$$CBEH@std@@@2@$0A@@std@@@std@@@std@@QAEXPAPAU_Node@?$_Tree_nod@V?$_Tmap_traits@EHU?$less@E@std@@V?$allocator@U?$pair@$$CBEH@std@@@2@$0A@@std@@@2@ABQAU342@@Z
_TEXT	SEGMENT PARA USE32 PUBLIC 'CODE'
_TEXT	ENDS
;	COMDAT ?deallocate@?$allocator@U_Node@?$_Tree_nod@V?$_Tset_traits@V?$basic_string@DU?$char_traits@D@std@@V?$allocator@D@2@@std@@U?$less@V?$basic_string@DU?$char_traits@D@std@@V?$allocator@D@2@@std@@@2@V?$allocator@V?$basic_string@DU?$char_traits@D@std@@V?$allocator@D@2@@std@@@2@$0A@@std@@@std@@@std@@QAEXPAU_Node@?$_Tree_nod@V?$_Tset_traits@V?$basic_string@DU?$char_traits@D@std@@V?$allocator@D@2@@std@@U?$less@V?$basic_string@DU?$char_traits@D@std@@V?$allocator@D@2@@std@@@2@V?$allocator@V?$basic_string@DU?$char_traits@D@std@@V?$allocator@D@2@@std@@@2@$0A@@std@@@2@I@Z
_TEXT	SEGMENT PARA USE32 PUBLIC 'CODE'
_TEXT	ENDS
;	COMDAT ?allocate@?$allocator@U_Node@?$_Tree_nod@V?$_Tset_traits@V?$basic_string@DU?$char_traits@D@std@@V?$allocator@D@2@@std@@U?$less@V?$basic_string@DU?$char_traits@D@std@@V?$allocator@D@2@@std@@@2@V?$allocator@V?$basic_string@DU?$char_traits@D@std@@V?$allocator@D@2@@std@@@2@$0A@@std@@@std@@@std@@QAEPAU_Node@?$_Tree_nod@V?$_Tset_traits@V?$basic_string@DU?$char_traits@D@std@@V?$allocator@D@2@@std@@U?$less@V?$basic_string@DU?$char_traits@D@std@@V?$allocator@D@2@@std@@@2@V?$allocator@V?$basic_string@DU?$char_traits@D@std@@V?$allocator@D@2@@std@@@2@$0A@@std@@@2@I@Z
_TEXT	SEGMENT PARA USE32 PUBLIC 'CODE'
_TEXT	ENDS
;	COMDAT ?destroy@?$allocator@U_Node@?$_List_nod@PAXV?$allocator@PAX@std@@@std@@@std@@QAEXPAU_Node@?$_List_nod@PAXV?$allocator@PAX@std@@@2@@Z
_TEXT	SEGMENT PARA USE32 PUBLIC 'CODE'
_TEXT	ENDS
;	COMDAT ?destroy@?$allocator@PAU_Node@?$_List_nod@PAXV?$allocator@PAX@std@@@std@@@std@@QAEXPAPAU_Node@?$_List_nod@PAXV?$allocator@PAX@std@@@2@@Z
_TEXT	SEGMENT PARA USE32 PUBLIC 'CODE'
_TEXT	ENDS
;	COMDAT ?max_size@?$allocator@H@std@@QBEIXZ
_TEXT	SEGMENT PARA USE32 PUBLIC 'CODE'
_TEXT	ENDS
;	COMDAT ??Dconst_iterator@?$list@PAXV?$allocator@PAX@std@@@std@@QBEABQAXXZ
_TEXT	SEGMENT PARA USE32 PUBLIC 'CODE'
_TEXT	ENDS
;	COMDAT ??Econst_iterator@?$list@PAXV?$allocator@PAX@std@@@std@@QAEAAV012@XZ
_TEXT	SEGMENT PARA USE32 PUBLIC 'CODE'
_TEXT	ENDS
;	COMDAT ??8const_iterator@?$list@PAXV?$allocator@PAX@std@@@std@@QBE_NABV012@@Z
_TEXT	SEGMENT PARA USE32 PUBLIC 'CODE'
_TEXT	ENDS
;	COMDAT ?_Isnil@?$_Tree@V?$_Tmap_traits@KP8CDPLoginSrvr@@AEXAAVCAr@@KPAEK@ZU?$less@K@std@@V?$allocator@U?$pair@$$CBKP8CDPLoginSrvr@@AEXAAVCAr@@KPAEK@Z@std@@@4@$0A@@std@@@std@@KAAADPAU_Node@?$_Tree_nod@V?$_Tmap_traits@KP8CDPLoginSrvr@@AEXAAVCAr@@KPAEK@ZU?$less@K@std@@V?$allocator@U?$pair@$$CBKP8CDPLoginSrvr@@AEXAAVCAr@@KPAEK@Z@std@@@4@$0A@@std@@@2@@Z
_TEXT	SEGMENT PARA USE32 PUBLIC 'CODE'
_TEXT	ENDS
;	COMDAT ?_Left@?$_Tree@V?$_Tmap_traits@KP8CDPLoginSrvr@@AEXAAVCAr@@KPAEK@ZU?$less@K@std@@V?$allocator@U?$pair@$$CBKP8CDPLoginSrvr@@AEXAAVCAr@@KPAEK@Z@std@@@4@$0A@@std@@@std@@KAAAPAU_Node@?$_Tree_nod@V?$_Tmap_traits@KP8CDPLoginSrvr@@AEXAAVCAr@@KPAEK@ZU?$less@K@std@@V?$allocator@U?$pair@$$CBKP8CDPLoginSrvr@@AEXAAVCAr@@KPAEK@Z@std@@@4@$0A@@std@@@2@PAU342@@Z
_TEXT	SEGMENT PARA USE32 PUBLIC 'CODE'
_TEXT	ENDS
;	COMDAT ?_Right@?$_Tree@V?$_Tmap_traits@KP8CDPLoginSrvr@@AEXAAVCAr@@KPAEK@ZU?$less@K@std@@V?$allocator@U?$pair@$$CBKP8CDPLoginSrvr@@AEXAAVCAr@@KPAEK@Z@std@@@4@$0A@@std@@@std@@KAAAPAU_Node@?$_Tree_nod@V?$_Tmap_traits@KP8CDPLoginSrvr@@AEXAAVCAr@@KPAEK@ZU?$less@K@std@@V?$allocator@U?$pair@$$CBKP8CDPLoginSrvr@@AEXAAVCAr@@KPAEK@Z@std@@@4@$0A@@std@@@2@PAU342@@Z
_TEXT	SEGMENT PARA USE32 PUBLIC 'CODE'
_TEXT	ENDS
;	COMDAT ?_Root@?$_Tree@V?$_Tmap_traits@KP8CDPLoginSrvr@@AEXAAVCAr@@KPAEK@ZU?$less@K@std@@V?$allocator@U?$pair@$$CBKP8CDPLoginSrvr@@AEXAAVCAr@@KPAEK@Z@std@@@4@$0A@@std@@@std@@IBEAAPAU_Node@?$_Tree_nod@V?$_Tmap_traits@KP8CDPLoginSrvr@@AEXAAVCAr@@KPAEK@ZU?$less@K@std@@V?$allocator@U?$pair@$$CBKP8CDPLoginSrvr@@AEXAAVCAr@@KPAEK@Z@std@@@4@$0A@@std@@@2@XZ
_TEXT	SEGMENT PARA USE32 PUBLIC 'CODE'
_TEXT	ENDS
;	COMDAT ?max_size@?$allocator@M@std@@QBEIXZ
_TEXT	SEGMENT PARA USE32 PUBLIC 'CODE'
_TEXT	ENDS
;	COMDAT ?_Isnil@?$_Tree@V?$_Tmap_traits@KP8CDPTrans@@AEXAAVCAr@@KKKPAEK@ZU?$less@K@std@@V?$allocator@U?$pair@$$CBKP8CDPTrans@@AEXAAVCAr@@KKKPAEK@Z@std@@@4@$0A@@std@@@std@@KAAADPAU_Node@?$_Tree_nod@V?$_Tmap_traits@KP8CDPTrans@@AEXAAVCAr@@KKKPAEK@ZU?$less@K@std@@V?$allocator@U?$pair@$$CBKP8CDPTrans@@AEXAAVCAr@@KKKPAEK@Z@std@@@4@$0A@@std@@@2@@Z
_TEXT	SEGMENT PARA USE32 PUBLIC 'CODE'
_TEXT	ENDS
;	COMDAT ?_Left@?$_Tree@V?$_Tmap_traits@KP8CDPTrans@@AEXAAVCAr@@KKKPAEK@ZU?$less@K@std@@V?$allocator@U?$pair@$$CBKP8CDPTrans@@AEXAAVCAr@@KKKPAEK@Z@std@@@4@$0A@@std@@@std@@KAAAPAU_Node@?$_Tree_nod@V?$_Tmap_traits@KP8CDPTrans@@AEXAAVCAr@@KKKPAEK@ZU?$less@K@std@@V?$allocator@U?$pair@$$CBKP8CDPTrans@@AEXAAVCAr@@KKKPAEK@Z@std@@@4@$0A@@std@@@2@PAU342@@Z
_TEXT	SEGMENT PARA USE32 PUBLIC 'CODE'
_TEXT	ENDS
;	COMDAT ?_Right@?$_Tree@V?$_Tmap_traits@KP8CDPTrans@@AEXAAVCAr@@KKKPAEK@ZU?$less@K@std@@V?$allocator@U?$pair@$$CBKP8CDPTrans@@AEXAAVCAr@@KKKPAEK@Z@std@@@4@$0A@@std@@@std@@KAAAPAU_Node@?$_Tree_nod@V?$_Tmap_traits@KP8CDPTrans@@AEXAAVCAr@@KKKPAEK@ZU?$less@K@std@@V?$allocator@U?$pair@$$CBKP8CDPTrans@@AEXAAVCAr@@KKKPAEK@Z@std@@@4@$0A@@std@@@2@PAU342@@Z
_TEXT	SEGMENT PARA USE32 PUBLIC 'CODE'
_TEXT	ENDS
;	COMDAT ?_Root@?$_Tree@V?$_Tmap_traits@KP8CDPTrans@@AEXAAVCAr@@KKKPAEK@ZU?$less@K@std@@V?$allocator@U?$pair@$$CBKP8CDPTrans@@AEXAAVCAr@@KKKPAEK@Z@std@@@4@$0A@@std@@@std@@IBEAAPAU_Node@?$_Tree_nod@V?$_Tmap_traits@KP8CDPTrans@@AEXAAVCAr@@KKKPAEK@ZU?$less@K@std@@V?$allocator@U?$pair@$$CBKP8CDPTrans@@AEXAAVCAr@@KKKPAEK@Z@std@@@4@$0A@@std@@@2@XZ
_TEXT	SEGMENT PARA USE32 PUBLIC 'CODE'
_TEXT	ENDS
;	COMDAT ?_Isnil@?$_Tree@V?$_Tmap_traits@KP8CDPAccountClient@@AEXAAVCAr@@PAEK@ZU?$less@K@std@@V?$allocator@U?$pair@$$CBKP8CDPAccountClient@@AEXAAVCAr@@PAEK@Z@std@@@4@$0A@@std@@@std@@KAAADPAU_Node@?$_Tree_nod@V?$_Tmap_traits@KP8CDPAccountClient@@AEXAAVCAr@@PAEK@ZU?$less@K@std@@V?$allocator@U?$pair@$$CBKP8CDPAccountClient@@AEXAAVCAr@@PAEK@Z@std@@@4@$0A@@std@@@2@@Z
_TEXT	SEGMENT PARA USE32 PUBLIC 'CODE'
_TEXT	ENDS
;	COMDAT ?_Left@?$_Tree@V?$_Tmap_traits@KP8CDPAccountClient@@AEXAAVCAr@@PAEK@ZU?$less@K@std@@V?$allocator@U?$pair@$$CBKP8CDPAccountClient@@AEXAAVCAr@@PAEK@Z@std@@@4@$0A@@std@@@std@@KAAAPAU_Node@?$_Tree_nod@V?$_Tmap_traits@KP8CDPAccountClient@@AEXAAVCAr@@PAEK@ZU?$less@K@std@@V?$allocator@U?$pair@$$CBKP8CDPAccountClient@@AEXAAVCAr@@PAEK@Z@std@@@4@$0A@@std@@@2@PAU342@@Z
_TEXT	SEGMENT PARA USE32 PUBLIC 'CODE'
_TEXT	ENDS
;	COMDAT ?_Right@?$_Tree@V?$_Tmap_traits@KP8CDPAccountClient@@AEXAAVCAr@@PAEK@ZU?$less@K@std@@V?$allocator@U?$pair@$$CBKP8CDPAccountClient@@AEXAAVCAr@@PAEK@Z@std@@@4@$0A@@std@@@std@@KAAAPAU_Node@?$_Tree_nod@V?$_Tmap_traits@KP8CDPAccountClient@@AEXAAVCAr@@PAEK@ZU?$less@K@std@@V?$allocator@U?$pair@$$CBKP8CDPAccountClient@@AEXAAVCAr@@PAEK@Z@std@@@4@$0A@@std@@@2@PAU342@@Z
_TEXT	SEGMENT PARA USE32 PUBLIC 'CODE'
_TEXT	ENDS
;	COMDAT ?_Root@?$_Tree@V?$_Tmap_traits@KP8CDPAccountClient@@AEXAAVCAr@@PAEK@ZU?$less@K@std@@V?$allocator@U?$pair@$$CBKP8CDPAccountClient@@AEXAAVCAr@@PAEK@Z@std@@@4@$0A@@std@@@std@@IBEAAPAU_Node@?$_Tree_nod@V?$_Tmap_traits@KP8CDPAccountClient@@AEXAAVCAr@@PAEK@ZU?$less@K@std@@V?$allocator@U?$pair@$$CBKP8CDPAccountClient@@AEXAAVCAr@@PAEK@Z@std@@@4@$0A@@std@@@2@XZ
_TEXT	SEGMENT PARA USE32 PUBLIC 'CODE'
_TEXT	ENDS
;	COMDAT ?_Isnil@?$_Tree@V?$_Tmap_traits@KP8CDPCoreSrvr@@AEXAAVCAr@@PAEK@ZU?$less@K@std@@V?$allocator@U?$pair@$$CBKP8CDPCoreSrvr@@AEXAAVCAr@@PAEK@Z@std@@@4@$0A@@std@@@std@@KAAADPAU_Node@?$_Tree_nod@V?$_Tmap_traits@KP8CDPCoreSrvr@@AEXAAVCAr@@PAEK@ZU?$less@K@std@@V?$allocator@U?$pair@$$CBKP8CDPCoreSrvr@@AEXAAVCAr@@PAEK@Z@std@@@4@$0A@@std@@@2@@Z
_TEXT	SEGMENT PARA USE32 PUBLIC 'CODE'
_TEXT	ENDS
;	COMDAT ?_Left@?$_Tree@V?$_Tmap_traits@KP8CDPCoreSrvr@@AEXAAVCAr@@PAEK@ZU?$less@K@std@@V?$allocator@U?$pair@$$CBKP8CDPCoreSrvr@@AEXAAVCAr@@PAEK@Z@std@@@4@$0A@@std@@@std@@KAAAPAU_Node@?$_Tree_nod@V?$_Tmap_traits@KP8CDPCoreSrvr@@AEXAAVCAr@@PAEK@ZU?$less@K@std@@V?$allocator@U?$pair@$$CBKP8CDPCoreSrvr@@AEXAAVCAr@@PAEK@Z@std@@@4@$0A@@std@@@2@PAU342@@Z
_TEXT	SEGMENT PARA USE32 PUBLIC 'CODE'
_TEXT	ENDS
;	COMDAT ?_Right@?$_Tree@V?$_Tmap_traits@KP8CDPCoreSrvr@@AEXAAVCAr@@PAEK@ZU?$less@K@std@@V?$allocator@U?$pair@$$CBKP8CDPCoreSrvr@@AEXAAVCAr@@PAEK@Z@std@@@4@$0A@@std@@@std@@KAAAPAU_Node@?$_Tree_nod@V?$_Tmap_traits@KP8CDPCoreSrvr@@AEXAAVCAr@@PAEK@ZU?$less@K@std@@V?$allocator@U?$pair@$$CBKP8CDPCoreSrvr@@AEXAAVCAr@@PAEK@Z@std@@@4@$0A@@std@@@2@PAU342@@Z
_TEXT	SEGMENT PARA USE32 PUBLIC 'CODE'
_TEXT	ENDS
;	COMDAT ?_Root@?$_Tree@V?$_Tmap_traits@KP8CDPCoreSrvr@@AEXAAVCAr@@PAEK@ZU?$less@K@std@@V?$allocator@U?$pair@$$CBKP8CDPCoreSrvr@@AEXAAVCAr@@PAEK@Z@std@@@4@$0A@@std@@@std@@IBEAAPAU_Node@?$_Tree_nod@V?$_Tmap_traits@KP8CDPCoreSrvr@@AEXAAVCAr@@PAEK@ZU?$less@K@std@@V?$allocator@U?$pair@$$CBKP8CDPCoreSrvr@@AEXAAVCAr@@PAEK@Z@std@@@4@$0A@@std@@@2@XZ
_TEXT	SEGMENT PARA USE32 PUBLIC 'CODE'
_TEXT	ENDS
;	COMDAT ?erase@?$_Tree@V?$_Tmap_traits@EPAU__TAXDETAIL@@U?$less@E@std@@V?$allocator@U?$pair@$$CBEPAU__TAXDETAIL@@@std@@@3@$0A@@std@@@std@@QAE?AViterator@12@V312@@Z
_TEXT	SEGMENT PARA USE32 PUBLIC 'CODE'
_TEXT	ENDS
;	COMDAT ?clear@?$_Tree@V?$_Tmap_traits@EPAU__TAXDETAIL@@U?$less@E@std@@V?$allocator@U?$pair@$$CBEPAU__TAXDETAIL@@@std@@@3@$0A@@std@@@std@@QAEXXZ
_TEXT	SEGMENT PARA USE32 PUBLIC 'CODE'
_TEXT	ENDS
;	COMDAT ?_Buynode@?$_Tree@V?$_Tmap_traits@EPAU__TAXDETAIL@@U?$less@E@std@@V?$allocator@U?$pair@$$CBEPAU__TAXDETAIL@@@std@@@3@$0A@@std@@@std@@IAEPAU_Node@?$_Tree_nod@V?$_Tmap_traits@EPAU__TAXDETAIL@@U?$less@E@std@@V?$allocator@U?$pair@$$CBEPAU__TAXDETAIL@@@std@@@3@$0A@@std@@@2@XZ
_TEXT	SEGMENT PARA USE32 PUBLIC 'CODE'
_TEXT	ENDS
;	COMDAT ??0?$_Tree_ptr@V?$_Tmap_traits@EPAU__TAXDETAIL@@U?$less@E@std@@V?$allocator@U?$pair@$$CBEPAU__TAXDETAIL@@@std@@@3@$0A@@std@@@std@@IAE@ABU?$less@E@1@V?$allocator@U?$pair@$$CBEPAU__TAXDETAIL@@@std@@@1@@Z
_TEXT	SEGMENT PARA USE32 PUBLIC 'CODE'
_TEXT	ENDS
;	COMDAT ?max_size@?$allocator@U?$pair@$$CBEPAU__TAXDETAIL@@@std@@@std@@QBEIXZ
_TEXT	SEGMENT PARA USE32 PUBLIC 'CODE'
_TEXT	ENDS
;	COMDAT ?allocate@?$allocator@U_Node@?$_Tree_nod@V?$_Tmap_traits@EPAU__TAXDETAIL@@U?$less@E@std@@V?$allocator@U?$pair@$$CBEPAU__TAXDETAIL@@@std@@@3@$0A@@std@@@std@@@std@@QAEPAU_Node@?$_Tree_nod@V?$_Tmap_traits@EPAU__TAXDETAIL@@U?$less@E@std@@V?$allocator@U?$pair@$$CBEPAU__TAXDETAIL@@@std@@@3@$0A@@std@@@2@I@Z
_TEXT	SEGMENT PARA USE32 PUBLIC 'CODE'
_TEXT	ENDS
;	COMDAT ??Eiterator@?$_Tree@V?$_Tmap_traits@EPAU__TAXDETAIL@@U?$less@E@std@@V?$allocator@U?$pair@$$CBEPAU__TAXDETAIL@@@std@@@3@$0A@@std@@@std@@QAE?AV012@H@Z
_TEXT	SEGMENT PARA USE32 PUBLIC 'CODE'
_TEXT	ENDS
;	COMDAT ??9const_iterator@?$_Tree@V?$_Tmap_traits@EPAU__TAXDETAIL@@U?$less@E@std@@V?$allocator@U?$pair@$$CBEPAU__TAXDETAIL@@@std@@@3@$0A@@std@@@std@@QBE_NABV012@@Z
_TEXT	SEGMENT PARA USE32 PUBLIC 'CODE'
_TEXT	ENDS
;	COMDAT ?_Dec@const_iterator@?$_Tree@V?$_Tmap_traits@EPAU__TAXDETAIL@@U?$less@E@std@@V?$allocator@U?$pair@$$CBEPAU__TAXDETAIL@@@std@@@3@$0A@@std@@@std@@QAEXXZ
_TEXT	SEGMENT PARA USE32 PUBLIC 'CODE'
_TEXT	ENDS
;	COMDAT ?max_size@?$allocator@U?$pair@$$CBKPAVCGuildHouseBase@@@std@@@std@@QBEIXZ
_TEXT	SEGMENT PARA USE32 PUBLIC 'CODE'
_TEXT	ENDS
;	COMDAT ?deallocate@?$allocator@U_Node@?$_Tree_nod@V?$_Tmap_traits@KPAVCGuildHouseBase@@U?$less@K@std@@V?$allocator@U?$pair@$$CBKPAVCGuildHouseBase@@@std@@@3@$0A@@std@@@std@@@std@@QAEXPAU_Node@?$_Tree_nod@V?$_Tmap_traits@KPAVCGuildHouseBase@@U?$less@K@std@@V?$allocator@U?$pair@$$CBKPAVCGuildHouseBase@@@std@@@3@$0A@@std@@@2@I@Z
_TEXT	SEGMENT PARA USE32 PUBLIC 'CODE'
_TEXT	ENDS
;	COMDAT ?allocate@?$allocator@U_Node@?$_Tree_nod@V?$_Tmap_traits@KPAVCGuildHouseBase@@U?$less@K@std@@V?$allocator@U?$pair@$$CBKPAVCGuildHouseBase@@@std@@@3@$0A@@std@@@std@@@std@@QAEPAU_Node@?$_Tree_nod@V?$_Tmap_traits@KPAVCGuildHouseBase@@U?$less@K@std@@V?$allocator@U?$pair@$$CBKPAVCGuildHouseBase@@@std@@@3@$0A@@std@@@2@I@Z
_TEXT	SEGMENT PARA USE32 PUBLIC 'CODE'
_TEXT	ENDS
;	COMDAT ?_Dec@const_iterator@?$_Tree@V?$_Tmap_traits@KPAVCGuildHouseBase@@U?$less@K@std@@V?$allocator@U?$pair@$$CBKPAVCGuildHouseBase@@@std@@@3@$0A@@std@@@std@@QAEXXZ
_TEXT	SEGMENT PARA USE32 PUBLIC 'CODE'
_TEXT	ENDS
;	COMDAT ?_Color@?$_Tree@V?$_Tmap_traits@KKU?$less@K@std@@V?$allocator@U?$pair@$$CBKK@std@@@2@$0A@@std@@@std@@KAAADPAU_Node@?$_Tree_nod@V?$_Tmap_traits@KKU?$less@K@std@@V?$allocator@U?$pair@$$CBKK@std@@@2@$0A@@std@@@2@@Z
_TEXT	SEGMENT PARA USE32 PUBLIC 'CODE'
_TEXT	ENDS
;	COMDAT ?_Isnil@?$_Tree@V?$_Tmap_traits@KKU?$less@K@std@@V?$allocator@U?$pair@$$CBKK@std@@@2@$0A@@std@@@std@@KAAADPAU_Node@?$_Tree_nod@V?$_Tmap_traits@KKU?$less@K@std@@V?$allocator@U?$pair@$$CBKK@std@@@2@$0A@@std@@@2@@Z
_TEXT	SEGMENT PARA USE32 PUBLIC 'CODE'
_TEXT	ENDS
;	COMDAT ?_Left@?$_Tree@V?$_Tmap_traits@KKU?$less@K@std@@V?$allocator@U?$pair@$$CBKK@std@@@2@$0A@@std@@@std@@KAAAPAU_Node@?$_Tree_nod@V?$_Tmap_traits@KKU?$less@K@std@@V?$allocator@U?$pair@$$CBKK@std@@@2@$0A@@std@@@2@PAU342@@Z
_TEXT	SEGMENT PARA USE32 PUBLIC 'CODE'
_TEXT	ENDS
;	COMDAT ?_Parent@?$_Tree@V?$_Tmap_traits@KKU?$less@K@std@@V?$allocator@U?$pair@$$CBKK@std@@@2@$0A@@std@@@std@@KAAAPAU_Node@?$_Tree_nod@V?$_Tmap_traits@KKU?$less@K@std@@V?$allocator@U?$pair@$$CBKK@std@@@2@$0A@@std@@@2@PAU342@@Z
_TEXT	SEGMENT PARA USE32 PUBLIC 'CODE'
_TEXT	ENDS
;	COMDAT ?_Right@?$_Tree@V?$_Tmap_traits@KKU?$less@K@std@@V?$allocator@U?$pair@$$CBKK@std@@@2@$0A@@std@@@std@@KAAAPAU_Node@?$_Tree_nod@V?$_Tmap_traits@KKU?$less@K@std@@V?$allocator@U?$pair@$$CBKK@std@@@2@$0A@@std@@@2@PAU342@@Z
_TEXT	SEGMENT PARA USE32 PUBLIC 'CODE'
_TEXT	ENDS
;	COMDAT ?_Erase@?$_Tree@V?$_Tmap_traits@KKU?$less@K@std@@V?$allocator@U?$pair@$$CBKK@std@@@2@$0A@@std@@@std@@IAEXPAU_Node@?$_Tree_nod@V?$_Tmap_traits@KKU?$less@K@std@@V?$allocator@U?$pair@$$CBKK@std@@@2@$0A@@std@@@2@@Z
_TEXT	SEGMENT PARA USE32 PUBLIC 'CODE'
_TEXT	ENDS
;	COMDAT ?_Lbound@?$_Tree@V?$_Tmap_traits@KKU?$less@K@std@@V?$allocator@U?$pair@$$CBKK@std@@@2@$0A@@std@@@std@@IBEPAU_Node@?$_Tree_nod@V?$_Tmap_traits@KKU?$less@K@std@@V?$allocator@U?$pair@$$CBKK@std@@@2@$0A@@std@@@2@ABK@Z
_TEXT	SEGMENT PARA USE32 PUBLIC 'CODE'
_TEXT	ENDS
;	COMDAT ?_Lmost@?$_Tree@V?$_Tmap_traits@KKU?$less@K@std@@V?$allocator@U?$pair@$$CBKK@std@@@2@$0A@@std@@@std@@IAEAAPAU_Node@?$_Tree_nod@V?$_Tmap_traits@KKU?$less@K@std@@V?$allocator@U?$pair@$$CBKK@std@@@2@$0A@@std@@@2@XZ
_TEXT	SEGMENT PARA USE32 PUBLIC 'CODE'
_TEXT	ENDS
;	COMDAT ?_Lrotate@?$_Tree@V?$_Tmap_traits@KKU?$less@K@std@@V?$allocator@U?$pair@$$CBKK@std@@@2@$0A@@std@@@std@@IAEXPAU_Node@?$_Tree_nod@V?$_Tmap_traits@KKU?$less@K@std@@V?$allocator@U?$pair@$$CBKK@std@@@2@$0A@@std@@@2@@Z
_TEXT	SEGMENT PARA USE32 PUBLIC 'CODE'
_TEXT	ENDS
;	COMDAT ?_Max@?$_Tree@V?$_Tmap_traits@KKU?$less@K@std@@V?$allocator@U?$pair@$$CBKK@std@@@2@$0A@@std@@@std@@KAPAU_Node@?$_Tree_nod@V?$_Tmap_traits@KKU?$less@K@std@@V?$allocator@U?$pair@$$CBKK@std@@@2@$0A@@std@@@2@PAU342@@Z
_TEXT	SEGMENT PARA USE32 PUBLIC 'CODE'
_TEXT	ENDS
;	COMDAT ?_Min@?$_Tree@V?$_Tmap_traits@KKU?$less@K@std@@V?$allocator@U?$pair@$$CBKK@std@@@2@$0A@@std@@@std@@KAPAU_Node@?$_Tree_nod@V?$_Tmap_traits@KKU?$less@K@std@@V?$allocator@U?$pair@$$CBKK@std@@@2@$0A@@std@@@2@PAU342@@Z
_TEXT	SEGMENT PARA USE32 PUBLIC 'CODE'
_TEXT	ENDS
;	COMDAT ?_Rmost@?$_Tree@V?$_Tmap_traits@KKU?$less@K@std@@V?$allocator@U?$pair@$$CBKK@std@@@2@$0A@@std@@@std@@IAEAAPAU_Node@?$_Tree_nod@V?$_Tmap_traits@KKU?$less@K@std@@V?$allocator@U?$pair@$$CBKK@std@@@2@$0A@@std@@@2@XZ
_TEXT	SEGMENT PARA USE32 PUBLIC 'CODE'
_TEXT	ENDS
;	COMDAT ?_Root@?$_Tree@V?$_Tmap_traits@KKU?$less@K@std@@V?$allocator@U?$pair@$$CBKK@std@@@2@$0A@@std@@@std@@IAEAAPAU_Node@?$_Tree_nod@V?$_Tmap_traits@KKU?$less@K@std@@V?$allocator@U?$pair@$$CBKK@std@@@2@$0A@@std@@@2@XZ
_TEXT	SEGMENT PARA USE32 PUBLIC 'CODE'
_TEXT	ENDS
;	COMDAT ?_Rrotate@?$_Tree@V?$_Tmap_traits@KKU?$less@K@std@@V?$allocator@U?$pair@$$CBKK@std@@@2@$0A@@std@@@std@@IAEXPAU_Node@?$_Tree_nod@V?$_Tmap_traits@KKU?$less@K@std@@V?$allocator@U?$pair@$$CBKK@std@@@2@$0A@@std@@@2@@Z
_TEXT	SEGMENT PARA USE32 PUBLIC 'CODE'
_TEXT	ENDS
;	COMDAT ?_Ubound@?$_Tree@V?$_Tmap_traits@KKU?$less@K@std@@V?$allocator@U?$pair@$$CBKK@std@@@2@$0A@@std@@@std@@IBEPAU_Node@?$_Tree_nod@V?$_Tmap_traits@KKU?$less@K@std@@V?$allocator@U?$pair@$$CBKK@std@@@2@$0A@@std@@@2@ABK@Z
_TEXT	SEGMENT PARA USE32 PUBLIC 'CODE'
_TEXT	ENDS
;	COMDAT ?deallocate@?$allocator@U_Node@?$_Tree_nod@V?$_Tmap_traits@KKU?$less@K@std@@V?$allocator@U?$pair@$$CBKK@std@@@2@$0A@@std@@@std@@@std@@QAEXPAU_Node@?$_Tree_nod@V?$_Tmap_traits@KKU?$less@K@std@@V?$allocator@U?$pair@$$CBKK@std@@@2@$0A@@std@@@2@I@Z
_TEXT	SEGMENT PARA USE32 PUBLIC 'CODE'
_TEXT	ENDS
;	COMDAT ?destroy@?$allocator@U_Node@?$_Tree_nod@V?$_Tmap_traits@KKU?$less@K@std@@V?$allocator@U?$pair@$$CBKK@std@@@2@$0A@@std@@@std@@@std@@QAEXPAU_Node@?$_Tree_nod@V?$_Tmap_traits@KKU?$less@K@std@@V?$allocator@U?$pair@$$CBKK@std@@@2@$0A@@std@@@2@@Z
_TEXT	SEGMENT PARA USE32 PUBLIC 'CODE'
_TEXT	ENDS
;	COMDAT ??0iterator@?$_Tree@V?$_Tmap_traits@KKU?$less@K@std@@V?$allocator@U?$pair@$$CBKK@std@@@2@$0A@@std@@@std@@QAE@PAU_Node@?$_Tree_nod@V?$_Tmap_traits@KKU?$less@K@std@@V?$allocator@U?$pair@$$CBKK@std@@@2@$0A@@std@@@2@@Z
_TEXT	SEGMENT PARA USE32 PUBLIC 'CODE'
_TEXT	ENDS
;	COMDAT ??Eiterator@?$_Tree@V?$_Tmap_traits@KKU?$less@K@std@@V?$allocator@U?$pair@$$CBKK@std@@@2@$0A@@std@@@std@@QAEAAV012@XZ
_TEXT	SEGMENT PARA USE32 PUBLIC 'CODE'
_TEXT	ENDS
;	COMDAT ?_Mynode@const_iterator@?$_Tree@V?$_Tmap_traits@KKU?$less@K@std@@V?$allocator@U?$pair@$$CBKK@std@@@2@$0A@@std@@@std@@QBEPAU_Node@?$_Tree_nod@V?$_Tmap_traits@KKU?$less@K@std@@V?$allocator@U?$pair@$$CBKK@std@@@2@$0A@@std@@@3@XZ
_TEXT	SEGMENT PARA USE32 PUBLIC 'CODE'
_TEXT	ENDS
;	COMDAT ?_Dec@const_iterator@?$_Tree@V?$_Tset_traits@V?$basic_string@DU?$char_traits@D@std@@V?$allocator@D@2@@std@@U?$less@V?$basic_string@DU?$char_traits@D@std@@V?$allocator@D@2@@std@@@2@V?$allocator@V?$basic_string@DU?$char_traits@D@std@@V?$allocator@D@2@@std@@@2@$0A@@std@@@std@@QAEXXZ
_TEXT	SEGMENT PARA USE32 PUBLIC 'CODE'
_TEXT	ENDS
;	COMDAT ??0const_iterator@?$vector@UGuildHouse_Furniture_Info@CGuildHouseBase@@V?$allocator@UGuildHouse_Furniture_Info@CGuildHouseBase@@@std@@@std@@QAE@PAUGuildHouse_Furniture_Info@CGuildHouseBase@@@Z
_TEXT	SEGMENT PARA USE32 PUBLIC 'CODE'
_TEXT	ENDS
;	COMDAT ??0iterator@?$_Tree@V?$_Tmap_traits@EHU?$less@E@std@@V?$allocator@U?$pair@$$CBEH@std@@@2@$0A@@std@@@std@@QAE@PAU_Node@?$_Tree_nod@V?$_Tmap_traits@EHU?$less@E@std@@V?$allocator@U?$pair@$$CBEH@std@@@2@$0A@@std@@@2@@Z
_TEXT	SEGMENT PARA USE32 PUBLIC 'CODE'
_TEXT	ENDS
;	COMDAT ??Eiterator@?$_Tree@V?$_Tmap_traits@EHU?$less@E@std@@V?$allocator@U?$pair@$$CBEH@std@@@2@$0A@@std@@@std@@QAE?AV012@H@Z
_TEXT	SEGMENT PARA USE32 PUBLIC 'CODE'
_TEXT	ENDS
;	COMDAT ??8const_iterator@?$_Tree@V?$_Tmap_traits@EHU?$less@E@std@@V?$allocator@U?$pair@$$CBEH@std@@@2@$0A@@std@@@std@@QBE_NABV012@@Z
_TEXT	SEGMENT PARA USE32 PUBLIC 'CODE'
_TEXT	ENDS
;	COMDAT ??9const_iterator@?$_Tree@V?$_Tmap_traits@EHU?$less@E@std@@V?$allocator@U?$pair@$$CBEH@std@@@2@$0A@@std@@@std@@QBE_NABV012@@Z
_TEXT	SEGMENT PARA USE32 PUBLIC 'CODE'
_TEXT	ENDS
;	COMDAT ??0_Node@?$_Tree_nod@V?$_Tset_traits@V?$basic_string@DU?$char_traits@D@std@@V?$allocator@D@2@@std@@U?$less@V?$basic_string@DU?$char_traits@D@std@@V?$allocator@D@2@@std@@@2@V?$allocator@V?$basic_string@DU?$char_traits@D@std@@V?$allocator@D@2@@std@@@2@$0A@@std@@@std@@QAE@PAU012@00ABV?$basic_string@DU?$char_traits@D@std@@V?$allocator@D@2@@2@D@Z
_TEXT	SEGMENT PARA USE32 PUBLIC 'CODE'
_TEXT	ENDS
;	COMDAT ??0_Node@?$_Tree_nod@V?$_Tmap_traits@EPAU__TAXDETAIL@@U?$less@E@std@@V?$allocator@U?$pair@$$CBEPAU__TAXDETAIL@@@std@@@3@$0A@@std@@@std@@QAE@PAU012@00ABU?$pair@$$CBEPAU__TAXDETAIL@@@2@D@Z
_TEXT	SEGMENT PARA USE32 PUBLIC 'CODE'
_TEXT	ENDS
;	COMDAT ??0_Node@?$_Tree_nod@V?$_Tmap_traits@KPAVCGuildHouseBase@@U?$less@K@std@@V?$allocator@U?$pair@$$CBKPAVCGuildHouseBase@@@std@@@3@$0A@@std@@@std@@QAE@PAU012@00ABU?$pair@$$CBKPAVCGuildHouseBase@@@2@D@Z
_TEXT	SEGMENT PARA USE32 PUBLIC 'CODE'
_TEXT	ENDS
;	COMDAT ?_Lrotate@?$_Tree@V?$_Tmap_traits@EHU?$less@E@std@@V?$allocator@U?$pair@$$CBEH@std@@@2@$0A@@std@@@std@@IAEXPAU_Node@?$_Tree_nod@V?$_Tmap_traits@EHU?$less@E@std@@V?$allocator@U?$pair@$$CBEH@std@@@2@$0A@@std@@@2@@Z
_TEXT	SEGMENT PARA USE32 PUBLIC 'CODE'
_TEXT	ENDS
;	COMDAT ?_Rrotate@?$_Tree@V?$_Tmap_traits@EHU?$less@E@std@@V?$allocator@U?$pair@$$CBEH@std@@@2@$0A@@std@@@std@@IAEXPAU_Node@?$_Tree_nod@V?$_Tmap_traits@EHU?$less@E@std@@V?$allocator@U?$pair@$$CBEH@std@@@2@$0A@@std@@@2@@Z
_TEXT	SEGMENT PARA USE32 PUBLIC 'CODE'
_TEXT	ENDS
;	COMDAT ??0?$_Tmap_traits@EHU?$less@E@std@@V?$allocator@U?$pair@$$CBEH@std@@@2@$0A@@std@@QAE@U?$less@E@1@@Z
_TEXT	SEGMENT PARA USE32 PUBLIC 'CODE'
_TEXT	ENDS
;	COMDAT ?destroy@?$allocator@U_Node@?$_Tree_nod@V?$_Tmap_traits@EHU?$less@E@std@@V?$allocator@U?$pair@$$CBEH@std@@@2@$0A@@std@@@std@@@std@@QAEXPAU_Node@?$_Tree_nod@V?$_Tmap_traits@EHU?$less@E@std@@V?$allocator@U?$pair@$$CBEH@std@@@2@$0A@@std@@@2@@Z
_TEXT	SEGMENT PARA USE32 PUBLIC 'CODE'
_TEXT	ENDS
;	COMDAT ?_Max@?$_Tree@V?$_Tset_traits@V?$basic_string@DU?$char_traits@D@std@@V?$allocator@D@2@@std@@U?$less@V?$basic_string@DU?$char_traits@D@std@@V?$allocator@D@2@@std@@@2@V?$allocator@V?$basic_string@DU?$char_traits@D@std@@V?$allocator@D@2@@std@@@2@$0A@@std@@@std@@KAPAU_Node@?$_Tree_nod@V?$_Tset_traits@V?$basic_string@DU?$char_traits@D@std@@V?$allocator@D@2@@std@@U?$less@V?$basic_string@DU?$char_traits@D@std@@V?$allocator@D@2@@std@@@2@V?$allocator@V?$basic_string@DU?$char_traits@D@std@@V?$allocator@D@2@@std@@@2@$0A@@std@@@2@PAU342@@Z
_TEXT	SEGMENT PARA USE32 PUBLIC 'CODE'
_TEXT	ENDS
;	COMDAT ?_Myval@?$list@PAXV?$allocator@PAX@std@@@std@@KAAAPAXPAU_Node@?$_List_nod@PAXV?$allocator@PAX@std@@@2@@Z
_TEXT	SEGMENT PARA USE32 PUBLIC 'CODE'
_TEXT	ENDS
;	COMDAT ?_Parent@?$_Tree@V?$_Tmap_traits@KP8CDPLoginSrvr@@AEXAAVCAr@@KPAEK@ZU?$less@K@std@@V?$allocator@U?$pair@$$CBKP8CDPLoginSrvr@@AEXAAVCAr@@KPAEK@Z@std@@@4@$0A@@std@@@std@@KAAAPAU_Node@?$_Tree_nod@V?$_Tmap_traits@KP8CDPLoginSrvr@@AEXAAVCAr@@KPAEK@ZU?$less@K@std@@V?$allocator@U?$pair@$$CBKP8CDPLoginSrvr@@AEXAAVCAr@@KPAEK@Z@std@@@4@$0A@@std@@@2@PAU342@@Z
_TEXT	SEGMENT PARA USE32 PUBLIC 'CODE'
_TEXT	ENDS
;	COMDAT ?_Parent@?$_Tree@V?$_Tmap_traits@KP8CDPTrans@@AEXAAVCAr@@KKKPAEK@ZU?$less@K@std@@V?$allocator@U?$pair@$$CBKP8CDPTrans@@AEXAAVCAr@@KKKPAEK@Z@std@@@4@$0A@@std@@@std@@KAAAPAU_Node@?$_Tree_nod@V?$_Tmap_traits@KP8CDPTrans@@AEXAAVCAr@@KKKPAEK@ZU?$less@K@std@@V?$allocator@U?$pair@$$CBKP8CDPTrans@@AEXAAVCAr@@KKKPAEK@Z@std@@@4@$0A@@std@@@2@PAU342@@Z
_TEXT	SEGMENT PARA USE32 PUBLIC 'CODE'
_TEXT	ENDS
;	COMDAT ?_Parent@?$_Tree@V?$_Tmap_traits@KP8CDPAccountClient@@AEXAAVCAr@@PAEK@ZU?$less@K@std@@V?$allocator@U?$pair@$$CBKP8CDPAccountClient@@AEXAAVCAr@@PAEK@Z@std@@@4@$0A@@std@@@std@@KAAAPAU_Node@?$_Tree_nod@V?$_Tmap_traits@KP8CDPAccountClient@@AEXAAVCAr@@PAEK@ZU?$less@K@std@@V?$allocator@U?$pair@$$CBKP8CDPAccountClient@@AEXAAVCAr@@PAEK@Z@std@@@4@$0A@@std@@@2@PAU342@@Z
_TEXT	SEGMENT PARA USE32 PUBLIC 'CODE'
_TEXT	ENDS
;	COMDAT ?_Parent@?$_Tree@V?$_Tmap_traits@KP8CDPCoreSrvr@@AEXAAVCAr@@PAEK@ZU?$less@K@std@@V?$allocator@U?$pair@$$CBKP8CDPCoreSrvr@@AEXAAVCAr@@PAEK@Z@std@@@4@$0A@@std@@@std@@KAAAPAU_Node@?$_Tree_nod@V?$_Tmap_traits@KP8CDPCoreSrvr@@AEXAAVCAr@@PAEK@ZU?$less@K@std@@V?$allocator@U?$pair@$$CBKP8CDPCoreSrvr@@AEXAAVCAr@@PAEK@Z@std@@@4@$0A@@std@@@2@PAU342@@Z
_TEXT	SEGMENT PARA USE32 PUBLIC 'CODE'
_TEXT	ENDS
;	COMDAT ?_Erase@?$_Tree@V?$_Tmap_traits@EPAU__TAXDETAIL@@U?$less@E@std@@V?$allocator@U?$pair@$$CBEPAU__TAXDETAIL@@@std@@@3@$0A@@std@@@std@@IAEXPAU_Node@?$_Tree_nod@V?$_Tmap_traits@EPAU__TAXDETAIL@@U?$less@E@std@@V?$allocator@U?$pair@$$CBEPAU__TAXDETAIL@@@std@@@3@$0A@@std@@@2@@Z
_TEXT	SEGMENT PARA USE32 PUBLIC 'CODE'
_TEXT	ENDS
;	COMDAT ?_Max@?$_Tree@V?$_Tmap_traits@EPAU__TAXDETAIL@@U?$less@E@std@@V?$allocator@U?$pair@$$CBEPAU__TAXDETAIL@@@std@@@3@$0A@@std@@@std@@KAPAU_Node@?$_Tree_nod@V?$_Tmap_traits@EPAU__TAXDETAIL@@U?$less@E@std@@V?$allocator@U?$pair@$$CBEPAU__TAXDETAIL@@@std@@@3@$0A@@std@@@2@PAU342@@Z
_TEXT	SEGMENT PARA USE32 PUBLIC 'CODE'
_TEXT	ENDS
;	COMDAT ?_Min@?$_Tree@V?$_Tmap_traits@EPAU__TAXDETAIL@@U?$less@E@std@@V?$allocator@U?$pair@$$CBEPAU__TAXDETAIL@@@std@@@3@$0A@@std@@@std@@KAPAU_Node@?$_Tree_nod@V?$_Tmap_traits@EPAU__TAXDETAIL@@U?$less@E@std@@V?$allocator@U?$pair@$$CBEPAU__TAXDETAIL@@@std@@@3@$0A@@std@@@2@PAU342@@Z
_TEXT	SEGMENT PARA USE32 PUBLIC 'CODE'
_TEXT	ENDS
;	COMDAT ??0?$_Tree_nod@V?$_Tmap_traits@EPAU__TAXDETAIL@@U?$less@E@std@@V?$allocator@U?$pair@$$CBEPAU__TAXDETAIL@@@std@@@3@$0A@@std@@@std@@IAE@ABU?$less@E@1@V?$allocator@U?$pair@$$CBEPAU__TAXDETAIL@@@std@@@1@@Z
_TEXT	SEGMENT PARA USE32 PUBLIC 'CODE'
_TEXT	ENDS
;	COMDAT ?destroy@?$allocator@U_Node@?$_Tree_nod@V?$_Tmap_traits@EPAU__TAXDETAIL@@U?$less@E@std@@V?$allocator@U?$pair@$$CBEPAU__TAXDETAIL@@@std@@@3@$0A@@std@@@std@@@std@@QAEXPAU_Node@?$_Tree_nod@V?$_Tmap_traits@EPAU__TAXDETAIL@@U?$less@E@std@@V?$allocator@U?$pair@$$CBEPAU__TAXDETAIL@@@std@@@3@$0A@@std@@@2@@Z
_TEXT	SEGMENT PARA USE32 PUBLIC 'CODE'
_TEXT	ENDS
;	COMDAT ?construct@?$allocator@PAU_Node@?$_Tree_nod@V?$_Tmap_traits@EPAU__TAXDETAIL@@U?$less@E@std@@V?$allocator@U?$pair@$$CBEPAU__TAXDETAIL@@@std@@@3@$0A@@std@@@std@@@std@@QAEXPAPAU_Node@?$_Tree_nod@V?$_Tmap_traits@EPAU__TAXDETAIL@@U?$less@E@std@@V?$allocator@U?$pair@$$CBEPAU__TAXDETAIL@@@std@@@3@$0A@@std@@@2@ABQAU342@@Z
_TEXT	SEGMENT PARA USE32 PUBLIC 'CODE'
_TEXT	ENDS
;	COMDAT ??Eiterator@?$_Tree@V?$_Tmap_traits@EPAU__TAXDETAIL@@U?$less@E@std@@V?$allocator@U?$pair@$$CBEPAU__TAXDETAIL@@@std@@@3@$0A@@std@@@std@@QAEAAV012@XZ
_TEXT	SEGMENT PARA USE32 PUBLIC 'CODE'
_TEXT	ENDS
;	COMDAT ?_Max@?$_Tree@V?$_Tmap_traits@KPAVCGuildHouseBase@@U?$less@K@std@@V?$allocator@U?$pair@$$CBKPAVCGuildHouseBase@@@std@@@3@$0A@@std@@@std@@KAPAU_Node@?$_Tree_nod@V?$_Tmap_traits@KPAVCGuildHouseBase@@U?$less@K@std@@V?$allocator@U?$pair@$$CBKPAVCGuildHouseBase@@@std@@@3@$0A@@std@@@2@PAU342@@Z
_TEXT	SEGMENT PARA USE32 PUBLIC 'CODE'
_TEXT	ENDS
;	COMDAT ?_Key@?$_Tree@V?$_Tmap_traits@KKU?$less@K@std@@V?$allocator@U?$pair@$$CBKK@std@@@2@$0A@@std@@@std@@KAABKPAU_Node@?$_Tree_nod@V?$_Tmap_traits@KKU?$less@K@std@@V?$allocator@U?$pair@$$CBKK@std@@@2@$0A@@std@@@2@@Z
_TEXT	SEGMENT PARA USE32 PUBLIC 'CODE'
_TEXT	ENDS
;	COMDAT ?_Root@?$_Tree@V?$_Tmap_traits@KKU?$less@K@std@@V?$allocator@U?$pair@$$CBKK@std@@@2@$0A@@std@@@std@@IBEAAPAU_Node@?$_Tree_nod@V?$_Tmap_traits@KKU?$less@K@std@@V?$allocator@U?$pair@$$CBKK@std@@@2@$0A@@std@@@2@XZ
_TEXT	SEGMENT PARA USE32 PUBLIC 'CODE'
_TEXT	ENDS
;	COMDAT ??0const_iterator@?$_Tree@V?$_Tmap_traits@KKU?$less@K@std@@V?$allocator@U?$pair@$$CBKK@std@@@2@$0A@@std@@@std@@QAE@PAU_Node@?$_Tree_nod@V?$_Tmap_traits@KKU?$less@K@std@@V?$allocator@U?$pair@$$CBKK@std@@@2@$0A@@std@@@2@@Z
_TEXT	SEGMENT PARA USE32 PUBLIC 'CODE'
_TEXT	ENDS
;	COMDAT ??Econst_iterator@?$_Tree@V?$_Tmap_traits@KKU?$less@K@std@@V?$allocator@U?$pair@$$CBKK@std@@@2@$0A@@std@@@std@@QAEAAV012@XZ
_TEXT	SEGMENT PARA USE32 PUBLIC 'CODE'
_TEXT	ENDS
;	COMDAT ??Eiterator@?$_Tree@V?$_Tmap_traits@EHU?$less@E@std@@V?$allocator@U?$pair@$$CBEH@std@@@2@$0A@@std@@@std@@QAEAAV012@XZ
_TEXT	SEGMENT PARA USE32 PUBLIC 'CODE'
_TEXT	ENDS
;	COMDAT ??0const_iterator@?$_Tree@V?$_Tmap_traits@EHU?$less@E@std@@V?$allocator@U?$pair@$$CBEH@std@@@2@$0A@@std@@@std@@QAE@PAU_Node@?$_Tree_nod@V?$_Tmap_traits@EHU?$less@E@std@@V?$allocator@U?$pair@$$CBEH@std@@@2@$0A@@std@@@2@@Z
_TEXT	SEGMENT PARA USE32 PUBLIC 'CODE'
_TEXT	ENDS
;	COMDAT ?_Mynode@const_iterator@?$_Tree@V?$_Tmap_traits@EHU?$less@E@std@@V?$allocator@U?$pair@$$CBEH@std@@@2@$0A@@std@@@std@@QBEPAU_Node@?$_Tree_nod@V?$_Tmap_traits@EHU?$less@E@std@@V?$allocator@U?$pair@$$CBEH@std@@@2@$0A@@std@@@3@XZ
_TEXT	SEGMENT PARA USE32 PUBLIC 'CODE'
_TEXT	ENDS
;	COMDAT ??0_Node@?$_Tree_nod@V?$_Tmap_traits@EHU?$less@E@std@@V?$allocator@U?$pair@$$CBEH@std@@@2@$0A@@std@@@std@@QAE@PAU012@00ABU?$pair@$$CBEH@2@D@Z
_TEXT	SEGMENT PARA USE32 PUBLIC 'CODE'
_TEXT	ENDS
;	COMDAT ??0?$_Tmap_traits@EPAU__TAXDETAIL@@U?$less@E@std@@V?$allocator@U?$pair@$$CBEPAU__TAXDETAIL@@@std@@@3@$0A@@std@@QAE@U?$less@E@1@@Z
_TEXT	SEGMENT PARA USE32 PUBLIC 'CODE'
_TEXT	ENDS
;	COMDAT ??Econst_iterator@?$_Tree@V?$_Tmap_traits@EPAU__TAXDETAIL@@U?$less@E@std@@V?$allocator@U?$pair@$$CBEPAU__TAXDETAIL@@@std@@@3@$0A@@std@@@std@@QAEAAV012@XZ
_TEXT	SEGMENT PARA USE32 PUBLIC 'CODE'
_TEXT	ENDS
;	COMDAT ?_Myval@?$_Tree@V?$_Tmap_traits@KKU?$less@K@std@@V?$allocator@U?$pair@$$CBKK@std@@@2@$0A@@std@@@std@@KAAAU?$pair@$$CBKK@2@PAU_Node@?$_Tree_nod@V?$_Tmap_traits@KKU?$less@K@std@@V?$allocator@U?$pair@$$CBKK@std@@@2@$0A@@std@@@2@@Z
_TEXT	SEGMENT PARA USE32 PUBLIC 'CODE'
_TEXT	ENDS
;	COMDAT ?_Kfn@?$_Tmap_traits@KKU?$less@K@std@@V?$allocator@U?$pair@$$CBKK@std@@@2@$0A@@std@@SAABKABU?$pair@$$CBKK@2@@Z
_TEXT	SEGMENT PARA USE32 PUBLIC 'CODE'
_TEXT	ENDS
;	COMDAT ?_Inc@const_iterator@?$_Tree@V?$_Tmap_traits@KKU?$less@K@std@@V?$allocator@U?$pair@$$CBKK@std@@@2@$0A@@std@@@std@@QAEXXZ
_TEXT	SEGMENT PARA USE32 PUBLIC 'CODE'
_TEXT	ENDS
;	COMDAT ??Econst_iterator@?$_Tree@V?$_Tmap_traits@EHU?$less@E@std@@V?$allocator@U?$pair@$$CBEH@std@@@2@$0A@@std@@@std@@QAEAAV012@XZ
_TEXT	SEGMENT PARA USE32 PUBLIC 'CODE'
_TEXT	ENDS
;	COMDAT ?_Inc@const_iterator@?$_Tree@V?$_Tmap_traits@EPAU__TAXDETAIL@@U?$less@E@std@@V?$allocator@U?$pair@$$CBEPAU__TAXDETAIL@@@std@@@3@$0A@@std@@@std@@QAEXXZ
_TEXT	SEGMENT PARA USE32 PUBLIC 'CODE'
_TEXT	ENDS
;	COMDAT ?_Inc@const_iterator@?$_Tree@V?$_Tmap_traits@EHU?$less@E@std@@V?$allocator@U?$pair@$$CBEH@std@@@2@$0A@@std@@@std@@QAEXXZ
_TEXT	SEGMENT PARA USE32 PUBLIC 'CODE'
_TEXT	ENDS
;	COMDAT ??$_Iter_cat@Viterator@?$_Tree@V?$_Tmap_traits@KU_Friend@@U?$less@K@std@@V?$allocator@U?$pair@$$CBKU_Friend@@@std@@@3@$0A@@std@@@std@@@std@@YA?AUbidirectional_iterator_tag@0@ABViterator@?$_Tree@V?$_Tmap_traits@KU_Friend@@U?$less@K@std@@V?$allocator@U?$pair@$$CBKU_Friend@@@std@@@3@$0A@@std@@@0@@Z
_TEXT	SEGMENT PARA USE32 PUBLIC 'CODE'
_TEXT	ENDS
;	COMDAT ??$_Distance2@Viterator@?$_Tree@V?$_Tmap_traits@KU_Friend@@U?$less@K@std@@V?$allocator@U?$pair@$$CBKU_Friend@@@std@@@3@$0A@@std@@@std@@I@std@@YAXViterator@?$_Tree@V?$_Tmap_traits@KU_Friend@@U?$less@K@std@@V?$allocator@U?$pair@$$CBKU_Friend@@@std@@@3@$0A@@std@@@0@0AAIUbidirectional_iterator_tag@0@@Z
_TEXT	SEGMENT PARA USE32 PUBLIC 'CODE'
_TEXT	ENDS
;	COMDAT ??$_Copy_opt@PAJPAJ@std@@YAPAJPAJ00U_Scalar_ptr_iterator_tag@0@@Z
_TEXT	SEGMENT PARA USE32 PUBLIC 'CODE'
_TEXT	ENDS
;	COMDAT ??$_Uninitialized_copy@PAJPAJV?$allocator@J@std@@@std@@YAPAJPAJ00AAV?$allocator@J@0@@Z
_TEXT	SEGMENT PARA USE32 PUBLIC 'CODE'
_TEXT	ENDS
;	COMDAT ??$_Copy_backward_opt@PAJPAJ@std@@YAPAJPAJ00U_Scalar_ptr_iterator_tag@0@@Z
_TEXT	SEGMENT PARA USE32 PUBLIC 'CODE'
_TEXT	ENDS
;	COMDAT ??$_Ptr_cat@PAUtagDROPITEM@@PAU1@@std@@YA?AU_Nonscalar_ptr_iterator_tag@0@AAPAUtagDROPITEM@@0@Z
_TEXT	SEGMENT PARA USE32 PUBLIC 'CODE'
_TEXT	ENDS
;	COMDAT ??$_Destroy_range@UtagDROPITEM@@V?$allocator@UtagDROPITEM@@@std@@@std@@YAXPAUtagDROPITEM@@0AAV?$allocator@UtagDROPITEM@@@0@U_Nonscalar_ptr_iterator_tag@0@@Z
_TEXT	SEGMENT PARA USE32 PUBLIC 'CODE'
_TEXT	ENDS
;	COMDAT ??$_Destroy_range@KV?$allocator@K@std@@@std@@YAXPAK0AAV?$allocator@K@0@U_Scalar_ptr_iterator_tag@0@@Z
_TEXT	SEGMENT PARA USE32 PUBLIC 'CODE'
_TEXT	ENDS
;	COMDAT ??$_Destroy_range@JV?$allocator@J@std@@@std@@YAXPAJ0AAV?$allocator@J@0@U_Scalar_ptr_iterator_tag@0@@Z
_TEXT	SEGMENT PARA USE32 PUBLIC 'CODE'
_TEXT	ENDS
;	COMDAT ??$_Uninit_fill_n@JIJ@std@@YAXPAJIABJAAV?$allocator@J@0@U_Scalar_ptr_iterator_tag@0@@Z
_TEXT	SEGMENT PARA USE32 PUBLIC 'CODE'
_TEXT	ENDS
;	COMDAT ??$throw_exception@Vbad_weak_ptr@boost@@@boost@@YAXABVbad_weak_ptr@0@@Z
_TEXT	SEGMENT PARA USE32 PUBLIC 'CODE'
_TEXT	ENDS
;	COMDAT ??$make_pair@EPAU__TAXDETAIL@@@std@@YA?AU?$pair@EPAU__TAXDETAIL@@@0@EPAU__TAXDETAIL@@@Z
_TEXT	SEGMENT PARA USE32 PUBLIC 'CODE'
_TEXT	ENDS
;	COMDAT ??$?0EPAU__TAXDETAIL@@@?$pair@$$CBEPAU__TAXDETAIL@@@std@@QAE@ABU?$pair@EPAU__TAXDETAIL@@@1@@Z
_TEXT	SEGMENT PARA USE32 PUBLIC 'CODE'
_TEXT	ENDS
;	COMDAT ??$make_pair@KPAVCGuildHouseBase@@@std@@YA?AU?$pair@KPAVCGuildHouseBase@@@0@KPAVCGuildHouseBase@@@Z
_TEXT	SEGMENT PARA USE32 PUBLIC 'CODE'
_TEXT	ENDS
;	COMDAT ??$?0KPAVCGuildHouseBase@@@?$pair@$$CBKPAVCGuildHouseBase@@@std@@QAE@ABU?$pair@KPAVCGuildHouseBase@@@1@@Z
_TEXT	SEGMENT PARA USE32 PUBLIC 'CODE'
_TEXT	ENDS
;	COMDAT ??$_Distance@Viterator@?$_Tree@V?$_Tmap_traits@KKU?$less@K@std@@V?$allocator@U?$pair@$$CBKK@std@@@2@$0A@@std@@@std@@I@std@@YAXViterator@?$_Tree@V?$_Tmap_traits@KKU?$less@K@std@@V?$allocator@U?$pair@$$CBKK@std@@@2@$0A@@std@@@0@0AAI@Z
_TEXT	SEGMENT PARA USE32 PUBLIC 'CODE'
_TEXT	ENDS
;	COMDAT ??$?0U?$pair@$$CBEH@std@@@?$allocator@PAU_Node@?$_Tree_nod@V?$_Tmap_traits@EHU?$less@E@std@@V?$allocator@U?$pair@$$CBEH@std@@@2@$0A@@std@@@std@@@std@@QAE@ABV?$allocator@U?$pair@$$CBEH@std@@@1@@Z
_TEXT	SEGMENT PARA USE32 PUBLIC 'CODE'
_TEXT	ENDS
;	COMDAT ??$_Destroy@PAU_Node@?$_Tree_nod@V?$_Tmap_traits@EHU?$less@E@std@@V?$allocator@U?$pair@$$CBEH@std@@@2@$0A@@std@@@std@@@std@@YAXPAPAU_Node@?$_Tree_nod@V?$_Tmap_traits@EHU?$less@E@std@@V?$allocator@U?$pair@$$CBEH@std@@@2@$0A@@std@@@0@@Z
_TEXT	SEGMENT PARA USE32 PUBLIC 'CODE'
_TEXT	ENDS
;	COMDAT ??$_Allocate@H@std@@YAPAHIPAH@Z
_TEXT	SEGMENT PARA USE32 PUBLIC 'CODE'
_TEXT	ENDS
;	COMDAT ??$_Destroy_range@MV?$allocator@M@std@@@std@@YAXPAM0AAV?$allocator@M@0@@Z
_TEXT	SEGMENT PARA USE32 PUBLIC 'CODE'
_TEXT	ENDS
;	COMDAT ??$_Allocate@M@std@@YAPAMIPAM@Z
_TEXT	SEGMENT PARA USE32 PUBLIC 'CODE'
_TEXT	ENDS
;	COMDAT ??$_Destroy_range@HV?$allocator@H@std@@@std@@YAXPAH0AAV?$allocator@H@0@@Z
_TEXT	SEGMENT PARA USE32 PUBLIC 'CODE'
_TEXT	ENDS
;	COMDAT ??$_Destroy@PAU_Node@?$_Tree_nod@V?$_Tmap_traits@EPAU__TAXDETAIL@@U?$less@E@std@@V?$allocator@U?$pair@$$CBEPAU__TAXDETAIL@@@std@@@3@$0A@@std@@@std@@@std@@YAXPAPAU_Node@?$_Tree_nod@V?$_Tmap_traits@EPAU__TAXDETAIL@@U?$less@E@std@@V?$allocator@U?$pair@$$CBEPAU__TAXDETAIL@@@std@@@3@$0A@@std@@@0@@Z
_TEXT	SEGMENT PARA USE32 PUBLIC 'CODE'
_TEXT	ENDS
;	COMDAT ??$?0U?$pair@$$CBEH@std@@@?$allocator@U_Node@?$_Tree_nod@V?$_Tmap_traits@EHU?$less@E@std@@V?$allocator@U?$pair@$$CBEH@std@@@2@$0A@@std@@@std@@@std@@QAE@ABV?$allocator@U?$pair@$$CBEH@std@@@1@@Z
_TEXT	SEGMENT PARA USE32 PUBLIC 'CODE'
_TEXT	ENDS
;	COMDAT ??$_Allocate@U_Node@?$_Tree_nod@V?$_Tmap_traits@EHU?$less@E@std@@V?$allocator@U?$pair@$$CBEH@std@@@2@$0A@@std@@@std@@@std@@YAPAU_Node@?$_Tree_nod@V?$_Tmap_traits@EHU?$less@E@std@@V?$allocator@U?$pair@$$CBEH@std@@@2@$0A@@std@@@0@IPAU120@@Z
_TEXT	SEGMENT PARA USE32 PUBLIC 'CODE'
_TEXT	ENDS
;	COMDAT ??$_Construct@PAU_Node@?$_Tree_nod@V?$_Tmap_traits@EHU?$less@E@std@@V?$allocator@U?$pair@$$CBEH@std@@@2@$0A@@std@@@std@@PAU123@@std@@YAXPAPAU_Node@?$_Tree_nod@V?$_Tmap_traits@EHU?$less@E@std@@V?$allocator@U?$pair@$$CBEH@std@@@2@$0A@@std@@@0@ABQAU120@@Z
_TEXT	SEGMENT PARA USE32 PUBLIC 'CODE'
_TEXT	ENDS
;	COMDAT ??$_Allocate@U_Node@?$_Tree_nod@V?$_Tset_traits@V?$basic_string@DU?$char_traits@D@std@@V?$allocator@D@2@@std@@U?$less@V?$basic_string@DU?$char_traits@D@std@@V?$allocator@D@2@@std@@@2@V?$allocator@V?$basic_string@DU?$char_traits@D@std@@V?$allocator@D@2@@std@@@2@$0A@@std@@@std@@@std@@YAPAU_Node@?$_Tree_nod@V?$_Tset_traits@V?$basic_string@DU?$char_traits@D@std@@V?$allocator@D@2@@std@@U?$less@V?$basic_string@DU?$char_traits@D@std@@V?$allocator@D@2@@std@@@2@V?$allocator@V?$basic_string@DU?$char_traits@D@std@@V?$allocator@D@2@@std@@@2@$0A@@std@@@0@IPAU120@@Z
_TEXT	SEGMENT PARA USE32 PUBLIC 'CODE'
_TEXT	ENDS
;	COMDAT ??$_Destroy@U_Node@?$_List_nod@PAXV?$allocator@PAX@std@@@std@@@std@@YAXPAU_Node@?$_List_nod@PAXV?$allocator@PAX@std@@@0@@Z
_TEXT	SEGMENT PARA USE32 PUBLIC 'CODE'
_TEXT	ENDS
;	COMDAT ??$_Destroy@PAU_Node@?$_List_nod@PAXV?$allocator@PAX@std@@@std@@@std@@YAXPAPAU_Node@?$_List_nod@PAXV?$allocator@PAX@std@@@0@@Z
_TEXT	SEGMENT PARA USE32 PUBLIC 'CODE'
_TEXT	ENDS
;	COMDAT ??$?0U?$pair@$$CBEPAU__TAXDETAIL@@@std@@@?$allocator@PAU_Node@?$_Tree_nod@V?$_Tmap_traits@EPAU__TAXDETAIL@@U?$less@E@std@@V?$allocator@U?$pair@$$CBEPAU__TAXDETAIL@@@std@@@3@$0A@@std@@@std@@@std@@QAE@ABV?$allocator@U?$pair@$$CBEPAU__TAXDETAIL@@@std@@@1@@Z
_TEXT	SEGMENT PARA USE32 PUBLIC 'CODE'
_TEXT	ENDS
;	COMDAT ??$_Allocate@U_Node@?$_Tree_nod@V?$_Tmap_traits@EPAU__TAXDETAIL@@U?$less@E@std@@V?$allocator@U?$pair@$$CBEPAU__TAXDETAIL@@@std@@@3@$0A@@std@@@std@@@std@@YAPAU_Node@?$_Tree_nod@V?$_Tmap_traits@EPAU__TAXDETAIL@@U?$less@E@std@@V?$allocator@U?$pair@$$CBEPAU__TAXDETAIL@@@std@@@3@$0A@@std@@@0@IPAU120@@Z
_TEXT	SEGMENT PARA USE32 PUBLIC 'CODE'
_TEXT	ENDS
;	COMDAT ??$_Allocate@U_Node@?$_Tree_nod@V?$_Tmap_traits@KPAVCGuildHouseBase@@U?$less@K@std@@V?$allocator@U?$pair@$$CBKPAVCGuildHouseBase@@@std@@@3@$0A@@std@@@std@@@std@@YAPAU_Node@?$_Tree_nod@V?$_Tmap_traits@KPAVCGuildHouseBase@@U?$less@K@std@@V?$allocator@U?$pair@$$CBKPAVCGuildHouseBase@@@std@@@3@$0A@@std@@@0@IPAU120@@Z
_TEXT	SEGMENT PARA USE32 PUBLIC 'CODE'
_TEXT	ENDS
;	COMDAT ??$_Destroy@U_Node@?$_Tree_nod@V?$_Tmap_traits@KKU?$less@K@std@@V?$allocator@U?$pair@$$CBKK@std@@@2@$0A@@std@@@std@@@std@@YAXPAU_Node@?$_Tree_nod@V?$_Tmap_traits@KKU?$less@K@std@@V?$allocator@U?$pair@$$CBKK@std@@@2@$0A@@std@@@0@@Z
_TEXT	SEGMENT PARA USE32 PUBLIC 'CODE'
_TEXT	ENDS
;	COMDAT ??$_Destroy@U_Node@?$_Tree_nod@V?$_Tmap_traits@EHU?$less@E@std@@V?$allocator@U?$pair@$$CBEH@std@@@2@$0A@@std@@@std@@@std@@YAXPAU_Node@?$_Tree_nod@V?$_Tmap_traits@EHU?$less@E@std@@V?$allocator@U?$pair@$$CBEH@std@@@2@$0A@@std@@@0@@Z
_TEXT	SEGMENT PARA USE32 PUBLIC 'CODE'
_TEXT	ENDS
;	COMDAT ??$?0U?$pair@$$CBEPAU__TAXDETAIL@@@std@@@?$allocator@U_Node@?$_Tree_nod@V?$_Tmap_traits@EPAU__TAXDETAIL@@U?$less@E@std@@V?$allocator@U?$pair@$$CBEPAU__TAXDETAIL@@@std@@@3@$0A@@std@@@std@@@std@@QAE@ABV?$allocator@U?$pair@$$CBEPAU__TAXDETAIL@@@std@@@1@@Z
_TEXT	SEGMENT PARA USE32 PUBLIC 'CODE'
_TEXT	ENDS
;	COMDAT ??$_Destroy@U_Node@?$_Tree_nod@V?$_Tmap_traits@EPAU__TAXDETAIL@@U?$less@E@std@@V?$allocator@U?$pair@$$CBEPAU__TAXDETAIL@@@std@@@3@$0A@@std@@@std@@@std@@YAXPAU_Node@?$_Tree_nod@V?$_Tmap_traits@EPAU__TAXDETAIL@@U?$less@E@std@@V?$allocator@U?$pair@$$CBEPAU__TAXDETAIL@@@std@@@3@$0A@@std@@@0@@Z
_TEXT	SEGMENT PARA USE32 PUBLIC 'CODE'
_TEXT	ENDS
;	COMDAT ??$_Construct@PAU_Node@?$_Tree_nod@V?$_Tmap_traits@EPAU__TAXDETAIL@@U?$less@E@std@@V?$allocator@U?$pair@$$CBEPAU__TAXDETAIL@@@std@@@3@$0A@@std@@@std@@PAU123@@std@@YAXPAPAU_Node@?$_Tree_nod@V?$_Tmap_traits@EPAU__TAXDETAIL@@U?$less@E@std@@V?$allocator@U?$pair@$$CBEPAU__TAXDETAIL@@@std@@@3@$0A@@std@@@0@ABQAU120@@Z
_TEXT	SEGMENT PARA USE32 PUBLIC 'CODE'
_TEXT	ENDS
;	COMDAT ??0bad_weak_ptr@boost@@QAE@ABV01@@Z
_TEXT	SEGMENT PARA USE32 PUBLIC 'CODE'
_TEXT	ENDS
;	COMDAT ?destroy@?$allocator@UtagDROPITEM@@@std@@QAEXPAUtagDROPITEM@@@Z
_TEXT	SEGMENT PARA USE32 PUBLIC 'CODE'
_TEXT	ENDS
;	COMDAT ??0?$pair@EPAU__TAXDETAIL@@@std@@QAE@ABEABQAU__TAXDETAIL@@@Z
_TEXT	SEGMENT PARA USE32 PUBLIC 'CODE'
_TEXT	ENDS
;	COMDAT ??0?$pair@KPAVCGuildHouseBase@@@std@@QAE@ABKABQAVCGuildHouseBase@@@Z
_TEXT	SEGMENT PARA USE32 PUBLIC 'CODE'
_TEXT	ENDS
;	COMDAT ??$_Uninit_copy@JJ@std@@YAPAJPAJ00AAV?$allocator@J@0@U_Scalar_ptr_iterator_tag@0@@Z
_TEXT	SEGMENT PARA USE32 PUBLIC 'CODE'
_TEXT	ENDS
;	COMDAT ??$fill_n@PAJIJ@std@@YAXPAJIABJ@Z
_TEXT	SEGMENT PARA USE32 PUBLIC 'CODE'
_TEXT	ENDS
;	COMDAT ??$_Iter_cat@Viterator@?$_Tree@V?$_Tmap_traits@KKU?$less@K@std@@V?$allocator@U?$pair@$$CBKK@std@@@2@$0A@@std@@@std@@@std@@YA?AUbidirectional_iterator_tag@0@ABViterator@?$_Tree@V?$_Tmap_traits@KKU?$less@K@std@@V?$allocator@U?$pair@$$CBKK@std@@@2@$0A@@std@@@0@@Z
_TEXT	SEGMENT PARA USE32 PUBLIC 'CODE'
_TEXT	ENDS
;	COMDAT ??$_Distance2@Viterator@?$_Tree@V?$_Tmap_traits@KKU?$less@K@std@@V?$allocator@U?$pair@$$CBKK@std@@@2@$0A@@std@@@std@@I@std@@YAXViterator@?$_Tree@V?$_Tmap_traits@KKU?$less@K@std@@V?$allocator@U?$pair@$$CBKK@std@@@2@$0A@@std@@@0@0AAIUbidirectional_iterator_tag@0@@Z
_TEXT	SEGMENT PARA USE32 PUBLIC 'CODE'
_TEXT	ENDS
;	COMDAT ??$_Destroy_range@MV?$allocator@M@std@@@std@@YAXPAM0AAV?$allocator@M@0@U_Scalar_ptr_iterator_tag@0@@Z
_TEXT	SEGMENT PARA USE32 PUBLIC 'CODE'
_TEXT	ENDS
;	COMDAT ??$_Destroy_range@HV?$allocator@H@std@@@std@@YAXPAH0AAV?$allocator@H@0@U_Scalar_ptr_iterator_tag@0@@Z
_TEXT	SEGMENT PARA USE32 PUBLIC 'CODE'
_TEXT	ENDS
;	COMDAT ??$_Destroy@UtagDROPITEM@@@std@@YAXPAUtagDROPITEM@@@Z
_TEXT	SEGMENT PARA USE32 PUBLIC 'CODE'
_TEXT	ENDS
;	COMDAT ?_Ptr_cat@std@@YA?AU_Scalar_ptr_iterator_tag@1@PAH0@Z
_TEXT	SEGMENT PARA USE32 PUBLIC 'CODE'
_TEXT	ENDS
;	COMDAT ?_Ptr_cat@std@@YA?AU_Scalar_ptr_iterator_tag@1@PAM0@Z
_TEXT	SEGMENT PARA USE32 PUBLIC 'CODE'
_TEXT	ENDS
;	COMDAT __CTA2?AVbad_weak_ptr@boost@@
xdata$x	SEGMENT DWORD USE32 PUBLIC 'CONST'
xdata$x	ENDS
;	COMDAT __CT??_R0?AVexception@@@8??0exception@@QAE@ABV0@@Z12
xdata$x	SEGMENT DWORD USE32 PUBLIC 'CONST'
xdata$x	ENDS
;	COMDAT ??_R0?AVexception@@@8
_DATA	SEGMENT DWORD USE32 PUBLIC 'DATA'
_DATA	ENDS
;	COMDAT __CT??_R0?AVbad_weak_ptr@boost@@@8??0bad_weak_ptr@boost@@QAE@ABV01@@Z12
xdata$x	SEGMENT DWORD USE32 PUBLIC 'CONST'
xdata$x	ENDS
;	COMDAT ??_R0?AVbad_weak_ptr@boost@@@8
_DATA	SEGMENT DWORD USE32 PUBLIC 'DATA'
_DATA	ENDS
;	COMDAT __TI2?AVbad_weak_ptr@boost@@
xdata$x	SEGMENT DWORD USE32 PUBLIC 'CONST'
xdata$x	ENDS
;	COMDAT ?_Ptr_cat@std@@YA?AU_Scalar_ptr_iterator_tag@1@PAJ0@Z
_TEXT	SEGMENT PARA USE32 PUBLIC 'CODE'
_TEXT	ENDS
;	COMDAT ??9const_iterator@?$_Tree@V?$_Tmap_traits@KU_Friend@@U?$less@K@std@@V?$allocator@U?$pair@$$CBKU_Friend@@@std@@@3@$0A@@std@@@std@@QBE_NABV012@@Z
_TEXT	SEGMENT PARA USE32 PUBLIC 'CODE'
_TEXT	ENDS
;	COMDAT ??8const_iterator@?$_Tree@V?$_Tmap_traits@KU_Friend@@U?$less@K@std@@V?$allocator@U?$pair@$$CBKU_Friend@@@std@@@3@$0A@@std@@@std@@QBE_NABV012@@Z
_TEXT	SEGMENT PARA USE32 PUBLIC 'CODE'
_TEXT	ENDS
;	COMDAT ??Eiterator@?$_Tree@V?$_Tmap_traits@KU_Friend@@U?$less@K@std@@V?$allocator@U?$pair@$$CBKU_Friend@@@std@@@3@$0A@@std@@@std@@QAEAAV012@XZ
_TEXT	SEGMENT PARA USE32 PUBLIC 'CODE'
_TEXT	ENDS
;	COMDAT ??Econst_iterator@?$_Tree@V?$_Tmap_traits@KU_Friend@@U?$less@K@std@@V?$allocator@U?$pair@$$CBKU_Friend@@@std@@@3@$0A@@std@@@std@@QAEAAV012@XZ
_TEXT	SEGMENT PARA USE32 PUBLIC 'CODE'
_TEXT	ENDS
;	COMDAT ?_Inc@const_iterator@?$_Tree@V?$_Tmap_traits@KU_Friend@@U?$less@K@std@@V?$allocator@U?$pair@$$CBKU_Friend@@@std@@@3@$0A@@std@@@std@@QAEXXZ
_TEXT	SEGMENT PARA USE32 PUBLIC 'CODE'
_TEXT	ENDS
;	COMDAT ?_Min@?$_Tree@V?$_Tmap_traits@KU_Friend@@U?$less@K@std@@V?$allocator@U?$pair@$$CBKU_Friend@@@std@@@3@$0A@@std@@@std@@KAPAU_Node@?$_Tree_nod@V?$_Tmap_traits@KU_Friend@@U?$less@K@std@@V?$allocator@U?$pair@$$CBKU_Friend@@@std@@@3@$0A@@std@@@2@PAU342@@Z
_TEXT	SEGMENT PARA USE32 PUBLIC 'CODE'
_TEXT	ENDS
;	COMDAT ?_Left@?$_Tree@V?$_Tmap_traits@KU_Friend@@U?$less@K@std@@V?$allocator@U?$pair@$$CBKU_Friend@@@std@@@3@$0A@@std@@@std@@KAAAPAU_Node@?$_Tree_nod@V?$_Tmap_traits@KU_Friend@@U?$less@K@std@@V?$allocator@U?$pair@$$CBKU_Friend@@@std@@@3@$0A@@std@@@2@PAU342@@Z
_TEXT	SEGMENT PARA USE32 PUBLIC 'CODE'
_TEXT	ENDS
;	COMDAT ?_Isnil@?$_Tree@V?$_Tmap_traits@KU_Friend@@U?$less@K@std@@V?$allocator@U?$pair@$$CBKU_Friend@@@std@@@3@$0A@@std@@@std@@KAAADPAU_Node@?$_Tree_nod@V?$_Tmap_traits@KU_Friend@@U?$less@K@std@@V?$allocator@U?$pair@$$CBKU_Friend@@@std@@@3@$0A@@std@@@2@@Z
_TEXT	SEGMENT PARA USE32 PUBLIC 'CODE'
_TEXT	ENDS
;	COMDAT ?_Parent@?$_Tree@V?$_Tmap_traits@KU_Friend@@U?$less@K@std@@V?$allocator@U?$pair@$$CBKU_Friend@@@std@@@3@$0A@@std@@@std@@KAAAPAU_Node@?$_Tree_nod@V?$_Tmap_traits@KU_Friend@@U?$less@K@std@@V?$allocator@U?$pair@$$CBKU_Friend@@@std@@@3@$0A@@std@@@2@PAU342@@Z
_TEXT	SEGMENT PARA USE32 PUBLIC 'CODE'
_TEXT	ENDS
;	COMDAT ?_Right@?$_Tree@V?$_Tmap_traits@KU_Friend@@U?$less@K@std@@V?$allocator@U?$pair@$$CBKU_Friend@@@std@@@3@$0A@@std@@@std@@KAAAPAU_Node@?$_Tree_nod@V?$_Tmap_traits@KU_Friend@@U?$less@K@std@@V?$allocator@U?$pair@$$CBKU_Friend@@@std@@@3@$0A@@std@@@2@PAU342@@Z
_TEXT	SEGMENT PARA USE32 PUBLIC 'CODE'
_TEXT	ENDS
;	COMDAT ?_Psave@?$_Facetptr@V?$ctype@G@std@@@std@@2PBVfacet@locale@2@B
_DATA	SEGMENT DWORD USE32 PUBLIC 'DATA'
_DATA	ENDS
;	COMDAT ?_Psave@?$_Facetptr@V?$ctype@D@std@@@std@@2PBVfacet@locale@2@B
_DATA	SEGMENT DWORD USE32 PUBLIC 'DATA'
_DATA	ENDS
;	COMDAT ??0?$basic_string@DU?$char_traits@D@std@@V?$allocator@D@2@@std@@QAE@ABV01@@Z
_TEXT	SEGMENT PARA USE32 PUBLIC 'CODE'
_TEXT	ENDS
;	COMDAT ??0?$_String_val@DV?$allocator@D@std@@@std@@IAE@V?$allocator@D@1@@Z
_TEXT	SEGMENT PARA USE32 PUBLIC 'CODE'
_TEXT	ENDS
;	COMDAT ??0?$allocator@D@std@@QAE@ABV01@@Z
_TEXT	SEGMENT PARA USE32 PUBLIC 'CODE'
_TEXT	ENDS
;	COMDAT ?_Tidy@?$basic_string@DU?$char_traits@D@std@@V?$allocator@D@2@@std@@IAEX_NI@Z
_TEXT	SEGMENT PARA USE32 PUBLIC 'CODE'
_TEXT	ENDS
;	COMDAT ?copy@?$char_traits@D@std@@SAPADPADPBDI@Z
_TEXT	SEGMENT PARA USE32 PUBLIC 'CODE'
_TEXT	ENDS
;	COMDAT ?deallocate@?$allocator@D@std@@QAEXPADI@Z
_TEXT	SEGMENT PARA USE32 PUBLIC 'CODE'
_TEXT	ENDS
;	COMDAT ?_Eos@?$basic_string@DU?$char_traits@D@std@@V?$allocator@D@2@@std@@IAEXI@Z
_TEXT	SEGMENT PARA USE32 PUBLIC 'CODE'
_TEXT	ENDS
;	COMDAT ?assign@?$char_traits@D@std@@SAXAADABD@Z
_TEXT	SEGMENT PARA USE32 PUBLIC 'CODE'
_TEXT	ENDS
;	COMDAT ?_Myptr@?$basic_string@DU?$char_traits@D@std@@V?$allocator@D@2@@std@@QAEPADXZ
_TEXT	SEGMENT PARA USE32 PUBLIC 'CODE'
_TEXT	ENDS
;	COMDAT ?assign@?$basic_string@DU?$char_traits@D@std@@V?$allocator@D@2@@std@@QAEAAV12@ABV12@II@Z
_TEXT	SEGMENT PARA USE32 PUBLIC 'CODE'
_TEXT	ENDS
;	COMDAT ?erase@?$basic_string@DU?$char_traits@D@std@@V?$allocator@D@2@@std@@QAEAAV12@II@Z
_TEXT	SEGMENT PARA USE32 PUBLIC 'CODE'
_TEXT	ENDS
;	COMDAT ?move@?$char_traits@D@std@@SAPADPADPBDI@Z
_TEXT	SEGMENT PARA USE32 PUBLIC 'CODE'
_TEXT	ENDS
;	COMDAT ?_Grow@?$basic_string@DU?$char_traits@D@std@@V?$allocator@D@2@@std@@IAE_NI_N@Z
_TEXT	SEGMENT PARA USE32 PUBLIC 'CODE'
_TEXT	ENDS
;	COMDAT ?max_size@?$basic_string@DU?$char_traits@D@std@@V?$allocator@D@2@@std@@QBEIXZ
_TEXT	SEGMENT PARA USE32 PUBLIC 'CODE'
_TEXT	ENDS
;	COMDAT ?max_size@?$allocator@D@std@@QBEIXZ
_TEXT	SEGMENT PARA USE32 PUBLIC 'CODE'
_TEXT	ENDS
;	COMDAT ?_Copy@?$basic_string@DU?$char_traits@D@std@@V?$allocator@D@2@@std@@IAEXII@Z
_TEXT	SEGMENT PARA USE32 PUBLIC 'CODE'
_TEXT	ENDS
;	COMDAT ?allocate@?$allocator@D@std@@QAEPADI@Z
_TEXT	SEGMENT PARA USE32 PUBLIC 'CODE'
_TEXT	ENDS
;	COMDAT ??$_Allocate@D@std@@YAPADIPAD@Z
_TEXT	SEGMENT PARA USE32 PUBLIC 'CODE'
_TEXT	ENDS
;	COMDAT ?npos@?$basic_string@DU?$char_traits@D@std@@V?$allocator@D@2@@std@@2IB
CONST	SEGMENT DWORD USE32 PUBLIC 'CONST'
CONST	ENDS
;	COMDAT ??$swap@D@std@@YAXAAD0@Z
_TEXT	SEGMENT PARA USE32 PUBLIC 'CODE'
_TEXT	ENDS
;	COMDAT __TI3?AVout_of_range@std@@
xdata$x	SEGMENT DWORD USE32 PUBLIC 'CONST'
xdata$x	ENDS
;	COMDAT ??1out_of_range@std@@UAE@XZ
_TEXT	SEGMENT PARA USE32 PUBLIC 'CODE'
_TEXT	ENDS
;	COMDAT ??_7out_of_range@std@@6B@
CONST	SEGMENT DWORD USE32 PUBLIC 'CONST'
CONST	ENDS
;	COMDAT ??_Gout_of_range@std@@UAEPAXI@Z
_TEXT	SEGMENT PARA USE32 PUBLIC 'CODE'
_TEXT	ENDS
;	COMDAT ?what@logic_error@std@@UBEPBDXZ
_TEXT	SEGMENT PARA USE32 PUBLIC 'CODE'
_TEXT	ENDS
;	COMDAT ?c_str@?$basic_string@DU?$char_traits@D@std@@V?$allocator@D@2@@std@@QBEPBDXZ
_TEXT	SEGMENT PARA USE32 PUBLIC 'CODE'
_TEXT	ENDS
;	COMDAT ??1logic_error@std@@UAE@XZ
_TEXT	SEGMENT PARA USE32 PUBLIC 'CODE'
_TEXT	ENDS
;	COMDAT ??_7logic_error@std@@6B@
CONST	SEGMENT DWORD USE32 PUBLIC 'CONST'
CONST	ENDS
;	COMDAT ??_Glogic_error@std@@UAEPAXI@Z
_TEXT	SEGMENT PARA USE32 PUBLIC 'CODE'
_TEXT	ENDS
;	COMDAT __CTA3?AVout_of_range@std@@
xdata$x	SEGMENT DWORD USE32 PUBLIC 'CONST'
xdata$x	ENDS
;	COMDAT __CT??_R0?AVout_of_range@std@@@8??0out_of_range@std@@QAE@ABV01@@Z40
xdata$x	SEGMENT DWORD USE32 PUBLIC 'CONST'
xdata$x	ENDS
;	COMDAT ??_R0?AVout_of_range@std@@@8
_DATA	SEGMENT DWORD USE32 PUBLIC 'DATA'
_DATA	ENDS
;	COMDAT ??0out_of_range@std@@QAE@ABV01@@Z
_TEXT	SEGMENT PARA USE32 PUBLIC 'CODE'
_TEXT	ENDS
;	COMDAT ??0logic_error@std@@QAE@ABV01@@Z
_TEXT	SEGMENT PARA USE32 PUBLIC 'CODE'
_TEXT	ENDS
;	COMDAT __CT??_R0?AVlogic_error@std@@@8??0logic_error@std@@QAE@ABV01@@Z40
xdata$x	SEGMENT DWORD USE32 PUBLIC 'CONST'
xdata$x	ENDS
;	COMDAT ??_R0?AVlogic_error@std@@@8
_DATA	SEGMENT DWORD USE32 PUBLIC 'DATA'
_DATA	ENDS
;	COMDAT ??_C@_0BM@PAPJHAGI@invalid?5map?1set?$DMT?$DO?5iterator?$AA@
CONST	SEGMENT DWORD USE32 PUBLIC 'CONST'
CONST	ENDS
;	COMDAT ??0out_of_range@std@@QAE@ABV?$basic_string@DU?$char_traits@D@std@@V?$allocator@D@2@@1@@Z
_TEXT	SEGMENT PARA USE32 PUBLIC 'CODE'
_TEXT	ENDS
;	COMDAT ??0logic_error@std@@QAE@ABV?$basic_string@DU?$char_traits@D@std@@V?$allocator@D@2@@1@@Z
_TEXT	SEGMENT PARA USE32 PUBLIC 'CODE'
_TEXT	ENDS
;	COMDAT ??_C@_0BD@OLBABOEK@vector?$DMT?$DO?5too?5long?$AA@
CONST	SEGMENT DWORD USE32 PUBLIC 'CONST'
CONST	ENDS
;	COMDAT ?deallocate@?$allocator@U_Node@?$_List_nod@PAXV?$allocator@PAX@std@@@std@@@std@@QAEXPAU_Node@?$_List_nod@PAXV?$allocator@PAX@std@@@2@I@Z
_TEXT	SEGMENT PARA USE32 PUBLIC 'CODE'
_TEXT	ENDS
;	COMDAT ?_Prevnode@?$list@PAXV?$allocator@PAX@std@@@std@@KAAAPAU_Node@?$_List_nod@PAXV?$allocator@PAX@std@@@2@PAU342@@Z
_TEXT	SEGMENT PARA USE32 PUBLIC 'CODE'
_TEXT	ENDS
;	COMDAT ?_Nextnode@?$list@PAXV?$allocator@PAX@std@@@std@@KAAAPAU_Node@?$_List_nod@PAXV?$allocator@PAX@std@@@2@PAU342@@Z
_TEXT	SEGMENT PARA USE32 PUBLIC 'CODE'
_TEXT	ENDS
;	COMDAT ??0iterator@?$list@PAXV?$allocator@PAX@std@@@std@@QAE@PAU_Node@?$_List_nod@PAXV?$allocator@PAX@std@@@2@@Z
_TEXT	SEGMENT PARA USE32 PUBLIC 'CODE'
_TEXT	ENDS
;	COMDAT ??0const_iterator@?$list@PAXV?$allocator@PAX@std@@@std@@QAE@PAU_Node@?$_List_nod@PAXV?$allocator@PAX@std@@@2@@Z
_TEXT	SEGMENT PARA USE32 PUBLIC 'CODE'
_TEXT	ENDS
;	COMDAT ??3@YAXPAX0@Z
_TEXT	SEGMENT PARA USE32 PUBLIC 'CODE'
_TEXT	ENDS
;	COMDAT ??2@YAPAXIPAX@Z
_TEXT	SEGMENT PARA USE32 PUBLIC 'CODE'
_TEXT	ENDS
;	COMDAT ?push_back@?$list@PAXV?$allocator@PAX@std@@@std@@QAEXABQAX@Z
_TEXT	SEGMENT PARA USE32 PUBLIC 'CODE'
_TEXT	ENDS
;	COMDAT ?_Insert@?$list@PAXV?$allocator@PAX@std@@@std@@QAEXViterator@12@ABQAX@Z
_TEXT	SEGMENT PARA USE32 PUBLIC 'CODE'
_TEXT	ENDS
;	COMDAT ?_Mynode@const_iterator@?$list@PAXV?$allocator@PAX@std@@@std@@QBEPAU_Node@?$_List_nod@PAXV?$allocator@PAX@std@@@3@XZ
_TEXT	SEGMENT PARA USE32 PUBLIC 'CODE'
_TEXT	ENDS
;	COMDAT ?_Buynode@?$list@PAXV?$allocator@PAX@std@@@std@@IAEPAU_Node@?$_List_nod@PAXV?$allocator@PAX@std@@@2@PAU342@0ABQAX@Z
_TEXT	SEGMENT PARA USE32 PUBLIC 'CODE'
_TEXT	ENDS
;	COMDAT ?allocate@?$allocator@U_Node@?$_List_nod@PAXV?$allocator@PAX@std@@@std@@@std@@QAEPAU_Node@?$_List_nod@PAXV?$allocator@PAX@std@@@2@I@Z
_TEXT	SEGMENT PARA USE32 PUBLIC 'CODE'
_TEXT	ENDS
;	COMDAT ??$_Allocate@U_Node@?$_List_nod@PAXV?$allocator@PAX@std@@@std@@@std@@YAPAU_Node@?$_List_nod@PAXV?$allocator@PAX@std@@@0@IPAU120@@Z
_TEXT	SEGMENT PARA USE32 PUBLIC 'CODE'
_TEXT	ENDS
;	COMDAT ??0_Node@?$_List_nod@PAXV?$allocator@PAX@std@@@std@@QAE@PAU012@0ABQAX@Z
_TEXT	SEGMENT PARA USE32 PUBLIC 'CODE'
_TEXT	ENDS
;	COMDAT ?_Incsize@?$list@PAXV?$allocator@PAX@std@@@std@@IAEXI@Z
_TEXT	SEGMENT PARA USE32 PUBLIC 'CODE'
_TEXT	ENDS
;	COMDAT ?max_size@?$list@PAXV?$allocator@PAX@std@@@std@@QBEIXZ
_TEXT	SEGMENT PARA USE32 PUBLIC 'CODE'
_TEXT	ENDS
;	COMDAT ?max_size@?$allocator@PAX@std@@QBEIXZ
_TEXT	SEGMENT PARA USE32 PUBLIC 'CODE'
_TEXT	ENDS
;	COMDAT ??_C@_0BB@MOGOBHAF@list?$DMT?$DO?5too?5long?$AA@
CONST	SEGMENT DWORD USE32 PUBLIC 'CONST'
CONST	ENDS
;	COMDAT ??_C@_09PKKCPLIP@bad?5alloc?$AA@
CONST	SEGMENT DWORD USE32 PUBLIC 'CONST'
CONST	ENDS
;	COMDAT ?end@?$list@PAXV?$allocator@PAX@std@@@std@@QAE?AViterator@12@XZ
_TEXT	SEGMENT PARA USE32 PUBLIC 'CODE'
_TEXT	ENDS
;	COMDAT __TI3?AVlength_error@std@@
xdata$x	SEGMENT DWORD USE32 PUBLIC 'CONST'
xdata$x	ENDS
;	COMDAT ??1length_error@std@@UAE@XZ
_TEXT	SEGMENT PARA USE32 PUBLIC 'CODE'
_TEXT	ENDS
;	COMDAT ??_7length_error@std@@6B@
CONST	SEGMENT DWORD USE32 PUBLIC 'CONST'
CONST	ENDS
;	COMDAT ??_Glength_error@std@@UAEPAXI@Z
_TEXT	SEGMENT PARA USE32 PUBLIC 'CODE'
_TEXT	ENDS
;	COMDAT __CTA3?AVlength_error@std@@
xdata$x	SEGMENT DWORD USE32 PUBLIC 'CONST'
xdata$x	ENDS
;	COMDAT __CT??_R0?AVlength_error@std@@@8??0length_error@std@@QAE@ABV01@@Z40
xdata$x	SEGMENT DWORD USE32 PUBLIC 'CONST'
xdata$x	ENDS
;	COMDAT ??_R0?AVlength_error@std@@@8
_DATA	SEGMENT DWORD USE32 PUBLIC 'DATA'
_DATA	ENDS
;	COMDAT ??0length_error@std@@QAE@ABV01@@Z
_TEXT	SEGMENT PARA USE32 PUBLIC 'CODE'
_TEXT	ENDS
;	COMDAT ??_C@_0BE@JONHPENG@map?1set?$DMT?$DO?5too?5long?$AA@
CONST	SEGMENT DWORD USE32 PUBLIC 'CONST'
CONST	ENDS
;	COMDAT ??0length_error@std@@QAE@ABV?$basic_string@DU?$char_traits@D@std@@V?$allocator@D@2@@1@@Z
_TEXT	SEGMENT PARA USE32 PUBLIC 'CODE'
_TEXT	ENDS
;	COMDAT ?compare@?$char_traits@D@std@@SAHPBD0I@Z
_TEXT	SEGMENT PARA USE32 PUBLIC 'CODE'
_TEXT	ENDS
;	COMDAT ??R?$less@K@std@@QBE_NABK0@Z
_TEXT	SEGMENT PARA USE32 PUBLIC 'CODE'
_TEXT	ENDS
;	COMDAT ??R?$less@V?$basic_string@DU?$char_traits@D@std@@V?$allocator@D@2@@std@@@std@@QBE_NABV?$basic_string@DU?$char_traits@D@std@@V?$allocator@D@2@@1@0@Z
_TEXT	SEGMENT PARA USE32 PUBLIC 'CODE'
_TEXT	ENDS
;	COMDAT ??$?MDU?$char_traits@D@std@@V?$allocator@D@1@@std@@YA_NABV?$basic_string@DU?$char_traits@D@std@@V?$allocator@D@2@@0@0@Z
_TEXT	SEGMENT PARA USE32 PUBLIC 'CODE'
_TEXT	ENDS
;	COMDAT ?_Myptr@?$basic_string@DU?$char_traits@D@std@@V?$allocator@D@2@@std@@QBEPBDXZ
_TEXT	SEGMENT PARA USE32 PUBLIC 'CODE'
_TEXT	ENDS
;	COMDAT ?size@?$basic_string@DU?$char_traits@D@std@@V?$allocator@D@2@@std@@QBEIXZ
_TEXT	SEGMENT PARA USE32 PUBLIC 'CODE'
_TEXT	ENDS
;	COMDAT ?ReleaseBufferSetLength@?$CSimpleStringT@D$0A@@ATL@@QAEXH@Z
_TEXT	SEGMENT PARA USE32 PUBLIC 'CODE'
_TEXT	ENDS
;	COMDAT ?SetLength@?$CSimpleStringT@D$0A@@ATL@@AAEXH@Z
_TEXT	SEGMENT PARA USE32 PUBLIC 'CODE'
_TEXT	ENDS
;	COMDAT ?AtlThrow@ATL@@YGXJ@Z
_TEXT	SEGMENT PARA USE32 PUBLIC 'CODE'
_TEXT	ENDS
;	COMDAT ?GetData@?$CSimpleStringT@D$0A@@ATL@@ABEPAUCStringData@2@XZ
_TEXT	SEGMENT PARA USE32 PUBLIC 'CODE'
_TEXT	ENDS
;	COMDAT ?GetBuffer@?$CSimpleStringT@D$0A@@ATL@@QAEPADH@Z
_TEXT	SEGMENT PARA USE32 PUBLIC 'CODE'
_TEXT	ENDS
;	COMDAT ?PrepareWrite@?$CSimpleStringT@D$0A@@ATL@@AAEPADH@Z
_TEXT	SEGMENT PARA USE32 PUBLIC 'CODE'
_TEXT	ENDS
;	COMDAT ?PrepareWrite2@?$CSimpleStringT@D$0A@@ATL@@AAEXH@Z
_TEXT	SEGMENT PARA USE32 PUBLIC 'CODE'
_TEXT	ENDS
;	COMDAT ?IsShared@CStringData@ATL@@QBE_NXZ
_TEXT	SEGMENT PARA USE32 PUBLIC 'CODE'
_TEXT	ENDS
;	COMDAT ?Fork@?$CSimpleStringT@D$0A@@ATL@@AAEXH@Z
_TEXT	SEGMENT PARA USE32 PUBLIC 'CODE'
_TEXT	ENDS
;	COMDAT ?ThrowMemoryException@?$CSimpleStringT@D$0A@@ATL@@KAXXZ
_TEXT	SEGMENT PARA USE32 PUBLIC 'CODE'
_TEXT	ENDS
;	COMDAT ?CopyChars@?$CSimpleStringT@D$0A@@ATL@@SAXPADPBDH@Z
_TEXT	SEGMENT PARA USE32 PUBLIC 'CODE'
_TEXT	ENDS
;	COMDAT ?data@CStringData@ATL@@QAEPAXXZ
_TEXT	SEGMENT PARA USE32 PUBLIC 'CODE'
_TEXT	ENDS
;	COMDAT ?Release@CStringData@ATL@@QAEXXZ
_TEXT	SEGMENT PARA USE32 PUBLIC 'CODE'
_TEXT	ENDS
;	COMDAT ?Attach@?$CSimpleStringT@D$0A@@ATL@@AAEXPAUCStringData@2@@Z
_TEXT	SEGMENT PARA USE32 PUBLIC 'CODE'
_TEXT	ENDS
;	COMDAT ?Reallocate@?$CSimpleStringT@D$0A@@ATL@@AAEXH@Z
_TEXT	SEGMENT PARA USE32 PUBLIC 'CODE'
_TEXT	ENDS
;	COMDAT ?StringFindString@?$ChTraitsCRT@D@ATL@@SAPBDPBD0@Z
_TEXT	SEGMENT PARA USE32 PUBLIC 'CODE'
_TEXT	ENDS
;	COMDAT ?GetLength@?$CSimpleStringT@D$0A@@ATL@@QBEHXZ
_TEXT	SEGMENT PARA USE32 PUBLIC 'CODE'
_TEXT	ENDS
;	COMDAT ?GetString@?$CSimpleStringT@D$0A@@ATL@@QBEPBDXZ
_TEXT	SEGMENT PARA USE32 PUBLIC 'CODE'
_TEXT	ENDS
;	COMDAT ??1?$basic_string@DU?$char_traits@D@std@@V?$allocator@D@2@@std@@QAE@XZ
_TEXT	SEGMENT PARA USE32 PUBLIC 'CODE'
_TEXT	ENDS
;	COMDAT ??0?$basic_string@DU?$char_traits@D@std@@V?$allocator@D@2@@std@@QAE@PBD@Z
_TEXT	SEGMENT PARA USE32 PUBLIC 'CODE'
_TEXT	ENDS
;	COMDAT ??0?$allocator@D@std@@QAE@XZ
_TEXT	SEGMENT PARA USE32 PUBLIC 'CODE'
_TEXT	ENDS
;	COMDAT ?assign@?$basic_string@DU?$char_traits@D@std@@V?$allocator@D@2@@std@@QAEAAV12@PBD@Z
_TEXT	SEGMENT PARA USE32 PUBLIC 'CODE'
_TEXT	ENDS
;	COMDAT ?assign@?$basic_string@DU?$char_traits@D@std@@V?$allocator@D@2@@std@@QAEAAV12@PBDI@Z
_TEXT	SEGMENT PARA USE32 PUBLIC 'CODE'
_TEXT	ENDS
;	COMDAT ?_Inside@?$basic_string@DU?$char_traits@D@std@@V?$allocator@D@2@@std@@IAE_NPBD@Z
_TEXT	SEGMENT PARA USE32 PUBLIC 'CODE'
_TEXT	ENDS
;	COMDAT ?length@?$char_traits@D@std@@SAIPBD@Z
_TEXT	SEGMENT PARA USE32 PUBLIC 'CODE'
_TEXT	ENDS
;	COMDAT ??1?$CStringT@DV?$StrTraitMFC@DV?$ChTraitsCRT@D@ATL@@@@@ATL@@QAE@XZ
_TEXT	SEGMENT PARA USE32 PUBLIC 'CODE'
_TEXT	ENDS
;	COMDAT ??1?$CSimpleStringT@D$0A@@ATL@@QAE@XZ
_TEXT	SEGMENT PARA USE32 PUBLIC 'CODE'
_TEXT	ENDS
;	COMDAT ?Format@CTime@ATL@@QBE?AV?$CStringT@DV?$StrTraitMFC@DV?$ChTraitsCRT@D@ATL@@@@@2@PBD@Z
_TEXT	SEGMENT PARA USE32 PUBLIC 'CODE'
_TEXT	ENDS
;	COMDAT ??0?$CStringT@DV?$StrTraitMFC@DV?$ChTraitsCRT@D@ATL@@@@@ATL@@QAE@PBD@Z
_TEXT	SEGMENT PARA USE32 PUBLIC 'CODE'
_TEXT	ENDS
;	COMDAT ??0?$CSimpleStringT@D$0A@@ATL@@QAE@PAUIAtlStringMgr@1@@Z
_TEXT	SEGMENT PARA USE32 PUBLIC 'CODE'
_TEXT	ENDS
;	COMDAT ?GetDefaultManager@?$StrTraitMFC@DV?$ChTraitsCRT@D@ATL@@@@SAPAUIAtlStringMgr@ATL@@XZ
_TEXT	SEGMENT PARA USE32 PUBLIC 'CODE'
_TEXT	ENDS
;	COMDAT ?CheckImplicitLoad@?$CStringT@DV?$StrTraitMFC@DV?$ChTraitsCRT@D@ATL@@@@@ATL@@AAE_NPBX@Z
_TEXT	SEGMENT PARA USE32 PUBLIC 'CODE'
_TEXT	ENDS
;	COMDAT ?LoadStringA@?$CStringT@DV?$StrTraitMFC@DV?$ChTraitsCRT@D@ATL@@@@@ATL@@QAEHI@Z
_TEXT	SEGMENT PARA USE32 PUBLIC 'CODE'
_TEXT	ENDS
;	COMDAT ?FindStringResourceInstance@?$StrTraitMFC@DV?$ChTraitsCRT@D@ATL@@@@SAPAUHINSTANCE__@@I@Z
_TEXT	SEGMENT PARA USE32 PUBLIC 'CODE'
_TEXT	ENDS
;	COMDAT ?LoadStringA@?$CStringT@DV?$StrTraitMFC@DV?$ChTraitsCRT@D@ATL@@@@@ATL@@QAEHPAUHINSTANCE__@@I@Z
_TEXT	SEGMENT PARA USE32 PUBLIC 'CODE'
_TEXT	ENDS
;	COMDAT ?AtlGetStringResourceImage@ATL@@YAPBUATLSTRINGRESOURCEIMAGE@1@PAUHINSTANCE__@@I@Z
_TEXT	SEGMENT PARA USE32 PUBLIC 'CODE'
_TEXT	ENDS
;	COMDAT ?_AtlGetStringResourceImage@ATL@@YAPBUATLSTRINGRESOURCEIMAGE@1@PAUHINSTANCE__@@PAUHRSRC__@@I@Z
_TEXT	SEGMENT PARA USE32 PUBLIC 'CODE'
_TEXT	ENDS
;	COMDAT ?GetBaseTypeLength@?$ChTraitsCRT@D@ATL@@SAHPBGH@Z
_TEXT	SEGMENT PARA USE32 PUBLIC 'CODE'
_TEXT	ENDS
;	COMDAT ?_AtlGetConversionACP@ATL@@YGIXZ
_TEXT	SEGMENT PARA USE32 PUBLIC 'CODE'
_TEXT	ENDS
;	COMDAT ?g_pfnGetThreadACP@ATL@@3P6GIXZA
_DATA	SEGMENT DWORD USE32 PUBLIC 'DATA'
_DATA	ENDS
;	COMDAT ?_AtlGetThreadACPThunk@ATL@@YGIXZ
_TEXT	SEGMENT PARA USE32 PUBLIC 'CODE'
_TEXT	ENDS
;	COMDAT ?_AtlGetThreadACPReal@ATL@@YGIXZ
_TEXT	SEGMENT PARA USE32 PUBLIC 'CODE'
_TEXT	ENDS
;	COMDAT ?_AtlGetThreadACPFake@ATL@@YGIXZ
_TEXT	SEGMENT PARA USE32 PUBLIC 'CODE'
_TEXT	ENDS
;	COMDAT ?InterlockedExchangePointer@@YGPAXPAPAXPAX@Z
_TEXT	SEGMENT PARA USE32 PUBLIC 'CODE'
_TEXT	ENDS
;	COMDAT ?ConvertToBaseType@?$ChTraitsCRT@D@ATL@@SAXPADHPBGH@Z
_TEXT	SEGMENT PARA USE32 PUBLIC 'CODE'
_TEXT	ENDS
;	COMDAT ?NotifyProcessStart@@YAXK@Z
_TEXT	SEGMENT PARA USE32 PUBLIC 'CODE'
_TEXT	ENDS
;	COMDAT ?ConnectToServer@CDPMng@@QAEHPBDGHW4BUFFER_TYPE@@@Z
_TEXT	SEGMENT PARA USE32 PUBLIC 'CODE'
_TEXT	ENDS
;	COMDAT ?StartServer@CDPMng@@QAEHGHW4BUFFER_TYPE@@@Z
_TEXT	SEGMENT PARA USE32 PUBLIC 'CODE'
_TEXT	ENDS
;	COMDAT ??_7CEventItem@@6B@
CONST	SEGMENT DWORD USE32 PUBLIC 'CONST'
CONST	ENDS
;	COMDAT ??_7CSPEvent@@6B@
CONST	SEGMENT DWORD USE32 PUBLIC 'CONST'
CONST	ENDS
;	COMDAT ?Leave@CMclCritSec@@QAEXXZ
_TEXT	SEGMENT PARA USE32 PUBLIC 'CODE'
_TEXT	ENDS
;	COMDAT ?Enter@CMclCritSec@@QAEXXZ
_TEXT	SEGMENT PARA USE32 PUBLIC 'CODE'
_TEXT	ENDS
;	COMDAT ??0CTime@ATL@@QAE@XZ
_TEXT	SEGMENT PARA USE32 PUBLIC 'CODE'
_TEXT	ENDS
;	COMDAT ??1CMclCritSec@@UAE@XZ
_TEXT	SEGMENT PARA USE32 PUBLIC 'CODE'
_TEXT	ENDS
;	COMDAT ??_7CMclCritSec@@6B@
CONST	SEGMENT DWORD USE32 PUBLIC 'CONST'
CONST	ENDS
;	COMDAT ??_GCMclCritSec@@UAEPAXI@Z
_TEXT	SEGMENT PARA USE32 PUBLIC 'CODE'
_TEXT	ENDS
;	COMDAT ??0CMclCritSec@@QAE@XZ
_TEXT	SEGMENT PARA USE32 PUBLIC 'CODE'
_TEXT	ENDS
;	COMDAT ??0D3DXVECTOR3@@QAE@XZ
_TEXT	SEGMENT PARA USE32 PUBLIC 'CODE'
_TEXT	ENDS
;	COMDAT ??4?$CStringT@DV?$StrTraitMFC@DV?$ChTraitsCRT@D@ATL@@@@@ATL@@QAEAAV01@PBD@Z
_TEXT	SEGMENT PARA USE32 PUBLIC 'CODE'
_TEXT	ENDS
;	COMDAT ??4?$CSimpleStringT@D$0A@@ATL@@QAEAAV01@PBD@Z
_TEXT	SEGMENT PARA USE32 PUBLIC 'CODE'
_TEXT	ENDS
;	COMDAT ?SetString@?$CSimpleStringT@D$0A@@ATL@@QAEXPBD@Z
_TEXT	SEGMENT PARA USE32 PUBLIC 'CODE'
_TEXT	ENDS
;	COMDAT ?SetString@?$CSimpleStringT@D$0A@@ATL@@QAEXPBDH@Z
_TEXT	SEGMENT PARA USE32 PUBLIC 'CODE'
_TEXT	ENDS
;	COMDAT ?Empty@?$CSimpleStringT@D$0A@@ATL@@QAEXXZ
_TEXT	SEGMENT PARA USE32 PUBLIC 'CODE'
_TEXT	ENDS
;	COMDAT ?IsLocked@CStringData@ATL@@QBE_NXZ
_TEXT	SEGMENT PARA USE32 PUBLIC 'CODE'
_TEXT	ENDS
;	COMDAT ?CopyCharsOverlapped@?$CSimpleStringT@D$0A@@ATL@@SAXPADPBDH@Z
_TEXT	SEGMENT PARA USE32 PUBLIC 'CODE'
_TEXT	ENDS
;	COMDAT ?StringLength@?$CSimpleStringT@D$0A@@ATL@@SAHPBD@Z
_TEXT	SEGMENT PARA USE32 PUBLIC 'CODE'
_TEXT	ENDS
;	COMDAT ??B?$CSimpleStringT@D$0A@@ATL@@QBEPBDXZ
_TEXT	SEGMENT PARA USE32 PUBLIC 'CODE'
_TEXT	ENDS
;	COMDAT ??5@YAAAVCAr@@AAV0@AAUD3DXVECTOR3@@@Z
_TEXT	SEGMENT PARA USE32 PUBLIC 'CODE'
_TEXT	ENDS
;	COMDAT ??5CAr@@QAEAAV0@AAM@Z
_TEXT	SEGMENT PARA USE32 PUBLIC 'CODE'
_TEXT	ENDS
;	COMDAT ??5CAr@@QAEAAV0@AAK@Z
_TEXT	SEGMENT PARA USE32 PUBLIC 'CODE'
_TEXT	ENDS
;	COMDAT ??5CAr@@QAEAAV0@AAJ@Z
_TEXT	SEGMENT PARA USE32 PUBLIC 'CODE'
_TEXT	ENDS
;	COMDAT ?time_null@@YAJXZ
_TEXT	SEGMENT PARA USE32 PUBLIC 'CODE'
_TEXT	ENDS
;	COMDAT ??6CAr@@QAEAAV0@K@Z
_TEXT	SEGMENT PARA USE32 PUBLIC 'CODE'
_TEXT	ENDS
;	COMDAT ??6CAr@@QAEAAV0@J@Z
_TEXT	SEGMENT PARA USE32 PUBLIC 'CODE'
_TEXT	ENDS
;	COMDAT ??6@YAAAVCAr@@AAV0@UD3DXVECTOR3@@@Z
_TEXT	SEGMENT PARA USE32 PUBLIC 'CODE'
_TEXT	ENDS
;	COMDAT ??6CAr@@QAEAAV0@M@Z
_TEXT	SEGMENT PARA USE32 PUBLIC 'CODE'
_TEXT	ENDS
;	COMDAT ?IsStoring@CAr@@QBEHXZ
_TEXT	SEGMENT PARA USE32 PUBLIC 'CODE'
_TEXT	ENDS
;	COMDAT ?GetTime@CTime@ATL@@QBE_JXZ
_TEXT	SEGMENT PARA USE32 PUBLIC 'CODE'
_TEXT	ENDS
;	COMDAT ??0CTimeSpan@ATL@@QAE@JHHH@Z
_TEXT	SEGMENT PARA USE32 PUBLIC 'CODE'
_TEXT	ENDS
;	COMDAT ?GetTickCount@CTime@ATL@@SG?AV12@XZ
_TEXT	SEGMENT PARA USE32 PUBLIC 'CODE'
_TEXT	ENDS
;	COMDAT ??0CTime@ATL@@QAE@_J@Z
_TEXT	SEGMENT PARA USE32 PUBLIC 'CODE'
_TEXT	ENDS
;	COMDAT ??HCTime@ATL@@QBE?AV01@VCTimeSpan@1@@Z
_TEXT	SEGMENT PARA USE32 PUBLIC 'CODE'
_TEXT	ENDS
;	COMDAT ?GetTimeSpan@CTimeSpan@ATL@@QBE_JXZ
_TEXT	SEGMENT PARA USE32 PUBLIC 'CODE'
_TEXT	ENDS
;	COMDAT ?GetItemProp@CProject@@QAEPAUItemProp@@H@Z
_TEXT	SEGMENT PARA USE32 PUBLIC 'CODE'
_TEXT	ENDS
;	COMDAT ?GetAt@?$CFixedArray@UItemProp@@@@QAEPAUItemProp@@K@Z
_TEXT	SEGMENT PARA USE32 PUBLIC 'CODE'
_TEXT	ENDS
;	COMDAT ??0D3DXVECTOR3@@QAE@MMM@Z
_TEXT	SEGMENT PARA USE32 PUBLIC 'CODE'
_TEXT	ENDS
;	COMDAT ??5CAr@@QAEAAV0@AAH@Z
_TEXT	SEGMENT PARA USE32 PUBLIC 'CODE'
_TEXT	ENDS
;	COMDAT ??6CAr@@QAEAAV0@H@Z
_TEXT	SEGMENT PARA USE32 PUBLIC 'CODE'
_TEXT	ENDS
;	COMDAT ??_7CLordSkillComponentExecutable@@6B@
CONST	SEGMENT DWORD USE32 PUBLIC 'CONST'
CONST	ENDS
;	COMDAT ??_7bad_weak_ptr@boost@@6B@
CONST	SEGMENT DWORD USE32 PUBLIC 'CONST'
CONST	ENDS
;	COMDAT ??_7sp_counted_base@detail@boost@@6B@
CONST	SEGMENT DWORD USE32 PUBLIC 'CONST'
CONST	ENDS
sxdata	SEGMENT DWORD USE32 'SXDATA'
sxdata	ENDS
FLAT	GROUP _DATA, CONST, _BSS
	ASSUME	CS: FLAT, DS: FLAT, SS: FLAT
endif

INCLUDELIB LIBCMT
INCLUDELIB OLDNAMES

PUBLIC	?szTitle@@3PADA					; szTitle
PUBLIC	?szWindowClass@@3PADA				; szWindowClass
PUBLIC	?g_pfnGetThreadACP@ATL@@3P6GIXZA		; ATL::g_pfnGetThreadACP
PUBLIC	?_AtlGetThreadACPThunk@ATL@@YGIXZ		; ATL::_AtlGetThreadACPThunk
PUBLIC	?lpConnection@@3PADA				; lpConnection
PUBLIC	?m_bBankToItemSendTbl@@3HA			; m_bBankToItemSendTbl
PUBLIC	?m_bInventoryToItemSendTbl@@3HA			; m_bInventoryToItemSendTbl
PUBLIC	?s_bItemRemove@@3HA				; s_bItemRemove
PUBLIC	?s_bRemoveInvalidItem@@3HA			; s_bRemoveInvalidItem
_BSS	SEGMENT
?szTitle@@3PADA DB 064H DUP (?)				; szTitle
?szWindowClass@@3PADA DB 064H DUP (?)			; szWindowClass
?lpConnection@@3PADA DB 010H DUP (?)			; lpConnection
?m_bBankToItemSendTbl@@3HA DD 01H DUP (?)		; m_bBankToItemSendTbl
?m_bInventoryToItemSendTbl@@3HA DD 01H DUP (?)		; m_bInventoryToItemSendTbl
?s_bItemRemove@@3HA DD 01H DUP (?)			; s_bItemRemove
?s_bRemoveInvalidItem@@3HA DD 01H DUP (?)		; s_bRemoveInvalidItem
_BSS	ENDS
_DATA	SEGMENT
_g_szINI DB	'..\script\databaseserver.ini', 00H
_DATA	ENDS
;	COMDAT ?g_pfnGetThreadACP@ATL@@3P6GIXZA
_DATA	SEGMENT
?g_pfnGetThreadACP@ATL@@3P6GIXZA DD FLAT:?_AtlGetThreadACPThunk@ATL@@YGIXZ ; ATL::g_pfnGetThreadACP
_DATA	ENDS
PUBLIC	??2@YAPAXIPAX@Z					; operator new
; Function compile flags: /Ogty
; File c:\program files\microsoft visual studio .net 2003\vc7\include\new.h
;	COMDAT ??2@YAPAXIPAX@Z
_TEXT	SEGMENT
___formal$ = 8						; size = 4
__P$ = 12						; size = 4
??2@YAPAXIPAX@Z PROC NEAR				; operator new, COMDAT

; 109  :         {return (_P); }

  00000	8b 44 24 08	 mov	 eax, DWORD PTR __P$[esp-4]
  00004	c3		 ret	 0
??2@YAPAXIPAX@Z ENDP					; operator new
_TEXT	ENDS
PUBLIC	??3@YAXPAX0@Z					; operator delete
; Function compile flags: /Ogty
;	COMDAT ??3@YAXPAX0@Z
_TEXT	SEGMENT
___formal$ = 8						; size = 4
___formal$ = 12						; size = 4
??3@YAXPAX0@Z PROC NEAR					; operator delete, COMDAT

; 112  :         {return; }

  00000	c3		 ret	 0
??3@YAXPAX0@Z ENDP					; operator delete
_TEXT	ENDS
PUBLIC	?InterlockedExchangePointer@@YGPAXPAPAXPAX@Z	; InterlockedExchangePointer
EXTRN	__imp__InterlockedExchange@8:NEAR
; Function compile flags: /Ogty
; File c:\program files\microsoft visual studio .net 2003\vc7\atlmfc\include\atlconv.h
;	COMDAT ?InterlockedExchangePointer@@YGPAXPAPAXPAX@Z
_TEXT	SEGMENT
_pp$ = 8						; size = 4
_pNew$ = 12						; size = 4
?InterlockedExchangePointer@@YGPAXPAPAXPAX@Z PROC NEAR	; InterlockedExchangePointer, COMDAT

; 92   : 	return( reinterpret_cast<void*>(static_cast<LONG_PTR>(::InterlockedExchange(reinterpret_cast<LONG*>(pp), static_cast<LONG>(reinterpret_cast<LONG_PTR>(pNew))))) );

  00000	ff 25 00 00 00
	00		 jmp	 DWORD PTR __imp__InterlockedExchange@8
?InterlockedExchangePointer@@YGPAXPAPAXPAX@Z ENDP	; InterlockedExchangePointer
_TEXT	ENDS
PUBLIC	?_AtlGetThreadACPFake@ATL@@YGIXZ		; ATL::_AtlGetThreadACPFake
EXTRN	__imp__GetThreadLocale@0:NEAR
EXTRN	___security_cookie:DWORD
EXTRN	@__security_check_cookie@4:NEAR
EXTRN	__imp__GetACP@0:NEAR
EXTRN	__imp__GetLocaleInfoA@16:NEAR
; Function compile flags: /Ogty
;	COMDAT ?_AtlGetThreadACPFake@ATL@@YGIXZ
_TEXT	SEGMENT
_szACP$ = -12						; size = 7
__$ArrayPad$ = -4					; size = 4
__$ReturnAddr$ = 4					; size = 4
?_AtlGetThreadACPFake@ATL@@YGIXZ PROC NEAR		; ATL::_AtlGetThreadACPFake, COMDAT

; 101  : {

  00000	83 ec 0c	 sub	 esp, 12			; 0000000cH
  00003	a1 00 00 00 00	 mov	 eax, DWORD PTR ___security_cookie
  00008	33 c4		 xor	 eax, esp
  0000a	56		 push	 esi
  0000b	89 44 24 0c	 mov	 DWORD PTR __$ArrayPad$[esp+16], eax

; 102  : 	UINT nACP = 0;

  0000f	33 f6		 xor	 esi, esi

; 103  : 
; 104  : 	LCID lcidThread = ::GetThreadLocale();

  00011	ff 15 00 00 00
	00		 call	 DWORD PTR __imp__GetThreadLocale@0

; 105  : 
; 106  : 	char szACP[7];
; 107  : 	// GetLocaleInfoA will fail for a Unicode-only LCID, but those are only supported on 
; 108  : 	// Windows 2000.  Since Windows 2000 supports CP_THREAD_ACP, this code path is never
; 109  : 	// executed on Windows 2000.
; 110  : 	if (::GetLocaleInfoA(lcidThread, LOCALE_IDEFAULTANSICODEPAGE, szACP, 7) != 0)

  00017	6a 07		 push	 7
  00019	8d 4c 24 08	 lea	 ecx, DWORD PTR _szACP$[esp+20]
  0001d	51		 push	 ecx
  0001e	68 04 10 00 00	 push	 4100			; 00001004H
  00023	50		 push	 eax
  00024	ff 15 00 00 00
	00		 call	 DWORD PTR __imp__GetLocaleInfoA@16
  0002a	85 c0		 test	 eax, eax
  0002c	74 27		 je	 SHORT $L216808

; 111  : 	{
; 112  : 		char* pch = szACP;
; 113  : 		while (*pch != '\0')

  0002e	8a 44 24 04	 mov	 al, BYTE PTR _szACP$[esp+16]
  00032	84 c0		 test	 al, al
  00034	8d 4c 24 04	 lea	 ecx, DWORD PTR _szACP$[esp+16]
  00038	74 1b		 je	 SHORT $L216808
  0003a	8d 9b 00 00 00
	00		 npad	 6
$L38554:

; 114  : 		{
; 115  : 			nACP *= 10;
; 116  : 			nACP += *pch++ - '0';

  00040	0f be c0	 movsx	 eax, al
  00043	8d 14 b6	 lea	 edx, DWORD PTR [esi+esi*4]
  00046	41		 inc	 ecx
  00047	8d 74 50 d0	 lea	 esi, DWORD PTR [eax+edx*2-48]
  0004b	8a 01		 mov	 al, BYTE PTR [ecx]
  0004d	84 c0		 test	 al, al
  0004f	75 ef		 jne	 SHORT $L38554

; 117  : 		}
; 118  : 	}
; 119  : 	// Use the Default ANSI Code Page if we were unable to get the thread ACP or if one does not exist.
; 120  : 	if (nACP == 0)

  00051	85 f6		 test	 esi, esi
  00053	75 16		 jne	 SHORT $L216809
$L216808:

; 121  : 		nACP = ::GetACP();

  00055	ff 15 00 00 00
	00		 call	 DWORD PTR __imp__GetACP@0
  0005b	5e		 pop	 esi

; 122  : 
; 123  : 	return nACP;
; 124  : }

  0005c	8b 4c 24 08	 mov	 ecx, DWORD PTR __$ArrayPad$[esp+12]
  00060	33 cc		 xor	 ecx, esp
  00062	e8 00 00 00 00	 call	 @__security_check_cookie@4
  00067	83 c4 0c	 add	 esp, 12			; 0000000cH
  0006a	c3		 ret	 0
$L216809:
  0006b	8b 4c 24 0c	 mov	 ecx, DWORD PTR __$ArrayPad$[esp+16]
  0006f	8b c6		 mov	 eax, esi
  00071	5e		 pop	 esi
  00072	33 cc		 xor	 ecx, esp
  00074	e8 00 00 00 00	 call	 @__security_check_cookie@4
  00079	83 c4 0c	 add	 esp, 12			; 0000000cH
  0007c	c3		 ret	 0
?_AtlGetThreadACPFake@ATL@@YGIXZ ENDP			; ATL::_AtlGetThreadACPFake
_TEXT	ENDS
PUBLIC	?_AtlGetThreadACPReal@ATL@@YGIXZ		; ATL::_AtlGetThreadACPReal
; Function compile flags: /Ogty
;	COMDAT ?_AtlGetThreadACPReal@ATL@@YGIXZ
_TEXT	SEGMENT
?_AtlGetThreadACPReal@ATL@@YGIXZ PROC NEAR		; ATL::_AtlGetThreadACPReal, COMDAT

; 128  : 	return( CP_THREAD_ACP );

  00000	b8 03 00 00 00	 mov	 eax, 3

; 129  : }

  00005	c3		 ret	 0
?_AtlGetThreadACPReal@ATL@@YGIXZ ENDP			; ATL::_AtlGetThreadACPReal
_TEXT	ENDS
EXTRN	__imp__GetVersionExA@4:NEAR
; Function compile flags: /Ogty
;	COMDAT ?_AtlGetThreadACPThunk@ATL@@YGIXZ
_TEXT	SEGMENT
_ver$ = -152						; size = 148
__$ArrayPad$ = -4					; size = 4
__$ReturnAddr$ = 4					; size = 4
?_AtlGetThreadACPThunk@ATL@@YGIXZ PROC NEAR		; ATL::_AtlGetThreadACPThunk, COMDAT

; 134  : {

  00000	81 ec 98 00 00
	00		 sub	 esp, 152		; 00000098H
  00006	a1 00 00 00 00	 mov	 eax, DWORD PTR ___security_cookie
  0000b	33 c4		 xor	 eax, esp
  0000d	89 84 24 94 00
	00 00		 mov	 DWORD PTR __$ArrayPad$[esp+152], eax

; 135  : 	OSVERSIONINFO ver;
; 136  : 	ATLGETTHREADACP pfnGetThreadACP;
; 137  : 
; 138  : 	ver.dwOSVersionInfoSize = sizeof( ver );
; 139  : 	::GetVersionEx( &ver );

  00014	8d 04 24	 lea	 eax, DWORD PTR _ver$[esp+152]
  00017	50		 push	 eax
  00018	c7 44 24 04 94
	00 00 00	 mov	 DWORD PTR _ver$[esp+156], 148 ; 00000094H
  00020	ff 15 00 00 00
	00		 call	 DWORD PTR __imp__GetVersionExA@4

; 140  : 	if( (ver.dwPlatformId == VER_PLATFORM_WIN32_NT) && (ver.dwMajorVersion >= 5) )

  00026	83 7c 24 10 02	 cmp	 DWORD PTR _ver$[esp+168], 2
  0002b	75 0c		 jne	 SHORT $L38564
  0002d	83 7c 24 04 05	 cmp	 DWORD PTR _ver$[esp+156], 5

; 141  : 	{
; 142  : 		// On Win2K, CP_THREAD_ACP is supported
; 143  : 		pfnGetThreadACP = _AtlGetThreadACPReal;

  00032	b8 00 00 00 00	 mov	 eax, OFFSET FLAT:?_AtlGetThreadACPReal@ATL@@YGIXZ ; ATL::_AtlGetThreadACPReal
  00037	73 05		 jae	 SHORT $L38565
$L38564:

; 144  : 	}
; 145  : 	else
; 146  : 	{
; 147  : 		pfnGetThreadACP = _AtlGetThreadACPFake;

  00039	b8 00 00 00 00	 mov	 eax, OFFSET FLAT:?_AtlGetThreadACPFake@ATL@@YGIXZ ; ATL::_AtlGetThreadACPFake
$L38565:

; 148  : 	}
; 149  : 	InterlockedExchangePointer( reinterpret_cast< void** >(&g_pfnGetThreadACP), pfnGetThreadACP );

  0003e	50		 push	 eax
  0003f	68 00 00 00 00	 push	 OFFSET FLAT:?g_pfnGetThreadACP@ATL@@3P6GIXZA ; ATL::g_pfnGetThreadACP
  00044	ff 15 00 00 00
	00		 call	 DWORD PTR __imp__InterlockedExchange@8

; 150  : 
; 151  : 	return( g_pfnGetThreadACP() );

  0004a	ff 15 00 00 00
	00		 call	 DWORD PTR ?g_pfnGetThreadACP@ATL@@3P6GIXZA ; ATL::g_pfnGetThreadACP

; 152  : }

  00050	8b 8c 24 94 00
	00 00		 mov	 ecx, DWORD PTR __$ArrayPad$[esp+152]
  00057	33 cc		 xor	 ecx, esp
  00059	e8 00 00 00 00	 call	 @__security_check_cookie@4
  0005e	81 c4 98 00 00
	00		 add	 esp, 152		; 00000098H
  00064	c3		 ret	 0
?_AtlGetThreadACPThunk@ATL@@YGIXZ ENDP			; ATL::_AtlGetThreadACPThunk
_TEXT	ENDS
PUBLIC	?_AtlGetConversionACP@ATL@@YGIXZ		; ATL::_AtlGetConversionACP
; Function compile flags: /Ogty
;	COMDAT ?_AtlGetConversionACP@ATL@@YGIXZ
_TEXT	SEGMENT
?_AtlGetConversionACP@ATL@@YGIXZ PROC NEAR		; ATL::_AtlGetConversionACP, COMDAT

; 158  : 	return( g_pfnGetThreadACP() );

  00000	ff 25 00 00 00
	00		 jmp	 DWORD PTR ?g_pfnGetThreadACP@ATL@@3P6GIXZA ; ATL::g_pfnGetThreadACP
?_AtlGetConversionACP@ATL@@YGIXZ ENDP			; ATL::_AtlGetConversionACP
_TEXT	ENDS
PUBLIC	?AtlThrow@ATL@@YGXJ@Z				; ATL::AtlThrow
EXTRN	?AfxThrowMemoryException@@YGXXZ:NEAR		; AfxThrowMemoryException
EXTRN	?AfxThrowOleException@@YGXJ@Z:NEAR		; AfxThrowOleException
; Function compile flags: /Ogty
; File c:\program files\microsoft visual studio .net 2003\vc7\atlmfc\include\atlexcept.h
;	COMDAT ?AtlThrow@ATL@@YGXJ@Z
_TEXT	SEGMENT
_hr$ = 8						; size = 4
?AtlThrow@ATL@@YGXJ@Z PROC NEAR				; ATL::AtlThrow, COMDAT

; 62   : 	ATLTRACE(atlTraceException, 0, _T("AtlThrow: hr = 0x%x\n"), hr );
; 63   : #ifdef _AFX
; 64   : 	if( hr == E_OUTOFMEMORY )

  00000	8b 44 24 04	 mov	 eax, DWORD PTR _hr$[esp-4]
  00004	3d 0e 00 07 80	 cmp	 eax, -2147024882	; 8007000eH
  00009	75 05		 jne	 SHORT $L39166

; 65   : 	{
; 66   : 		AfxThrowMemoryException();

  0000b	e8 00 00 00 00	 call	 ?AfxThrowMemoryException@@YGXXZ ; AfxThrowMemoryException
$L39166:

; 67   : 	}
; 68   : 	else
; 69   : 	{
; 70   : 		AfxThrowOleException( hr );

  00010	50		 push	 eax
  00011	e8 00 00 00 00	 call	 ?AfxThrowOleException@@YGXJ@Z ; AfxThrowOleException
$L216827:
  00016	cc		 int	 3
?AtlThrow@ATL@@YGXJ@Z ENDP				; ATL::AtlThrow
_TEXT	ENDS
PUBLIC	?IsRun@CQuiz@@QAEHXZ				; CQuiz::IsRun
; Function compile flags: /Ogty
; File c:\documents and settings\test\mes documents\source\virtuos_v17\build\program\_common\quiz.h
;	COMDAT ?IsRun@CQuiz@@QAEHXZ
_TEXT	SEGMENT
?IsRun@CQuiz@@QAEHXZ PROC NEAR				; CQuiz::IsRun, COMDAT
; _this$ = ecx

; 78   : 	BOOL	IsRun()		{	return m_bRun;	}

  00000	8b 41 08	 mov	 eax, DWORD PTR [ecx+8]
  00003	c3		 ret	 0
?IsRun@CQuiz@@QAEHXZ ENDP				; CQuiz::IsRun
_TEXT	ENDS
PUBLIC	?Initialize@CMyTrace@@QAEXPAUHWND__@@PBDKK@Z	; CMyTrace::Initialize
EXTRN	__imp__CreateFontA@56:NEAR
; Function compile flags: /Ogty
; File c:\documents and settings\test\mes documents\source\virtuos_v17\build\program\_network\misc\include\mytrace.h
;	COMDAT ?Initialize@CMyTrace@@QAEXPAUHWND__@@PBDKK@Z
_TEXT	SEGMENT
_hWnd$ = 8						; size = 4
_lpszFace$ = 12						; size = 4
_cr$ = 16						; size = 4
_crBk$ = 20						; size = 4
?Initialize@CMyTrace@@QAEXPAUHWND__@@PBDKK@Z PROC NEAR	; CMyTrace::Initialize, COMDAT
; _this$ = ecx

; 46   : 		{	m_hWnd	= hWnd;

  00000	8b 44 24 04	 mov	 eax, DWORD PTR _hWnd$[esp-4]
  00004	56		 push	 esi
  00005	8b f1		 mov	 esi, ecx

; 47   : 			m_cr	= cr;

  00007	8b 4c 24 10	 mov	 ecx, DWORD PTR _cr$[esp]

; 48   : 			m_crBk	= crBk;

  0000b	8b 54 24 14	 mov	 edx, DWORD PTR _crBk$[esp]
  0000f	89 86 20 11 00
	00		 mov	 DWORD PTR [esi+4384], eax

; 49   : 			m_hfont		= CreateFont( 24, 0, 0, 0, 0, 0, 0, 0, DEFAULT_CHARSET, 0, 0, PROOF_QUALITY, VARIABLE_PITCH | FF_DONTCARE, lpszFace );

  00015	8b 44 24 0c	 mov	 eax, DWORD PTR _lpszFace$[esp]
  00019	50		 push	 eax
  0001a	6a 02		 push	 2
  0001c	6a 02		 push	 2
  0001e	6a 00		 push	 0
  00020	6a 00		 push	 0
  00022	6a 01		 push	 1
  00024	6a 00		 push	 0
  00026	6a 00		 push	 0
  00028	6a 00		 push	 0
  0002a	6a 00		 push	 0
  0002c	6a 00		 push	 0
  0002e	6a 00		 push	 0
  00030	6a 00		 push	 0
  00032	6a 18		 push	 24			; 00000018H
  00034	89 8e 24 11 00
	00		 mov	 DWORD PTR [esi+4388], ecx
  0003a	89 96 28 11 00
	00		 mov	 DWORD PTR [esi+4392], edx
  00040	ff 15 00 00 00
	00		 call	 DWORD PTR __imp__CreateFontA@56
  00046	89 86 1c 11 00
	00		 mov	 DWORD PTR [esi+4380], eax
  0004c	5e		 pop	 esi

; 50   : 		}

  0004d	c2 10 00	 ret	 16			; 00000010H
?Initialize@CMyTrace@@QAEXPAUHWND__@@PBDKK@Z ENDP	; CMyTrace::Initialize
_TEXT	ENDS
PUBLIC	?_AtlGetStringResourceImage@ATL@@YAPBUATLSTRINGRESOURCEIMAGE@1@PAUHINSTANCE__@@PAUHRSRC__@@I@Z ; ATL::_AtlGetStringResourceImage
EXTRN	__imp__LoadResource@8:NEAR
EXTRN	__imp__SizeofResource@8:NEAR
EXTRN	__imp__LockResource@4:NEAR
; Function compile flags: /Ogty
; File c:\program files\microsoft visual studio .net 2003\vc7\atlmfc\include\atlcore.h
;	COMDAT ?_AtlGetStringResourceImage@ATL@@YAPBUATLSTRINGRESOURCEIMAGE@1@PAUHINSTANCE__@@PAUHRSRC__@@I@Z
_TEXT	SEGMENT
_hInstance$ = 8						; size = 4
_hResource$ = 12					; size = 4
_id$ = 16						; size = 4
?_AtlGetStringResourceImage@ATL@@YAPBUATLSTRINGRESOURCEIMAGE@1@PAUHINSTANCE__@@PAUHRSRC__@@I@Z PROC NEAR ; ATL::_AtlGetStringResourceImage, COMDAT

; 239  : {

  00000	53		 push	 ebx

; 240  : 	const ATLSTRINGRESOURCEIMAGE* pImage;
; 241  : 	const ATLSTRINGRESOURCEIMAGE* pImageEnd;
; 242  : 	ULONG nResourceSize;
; 243  : 	HGLOBAL hGlobal;
; 244  : 	UINT iIndex;
; 245  : 
; 246  : 	hGlobal = ::LoadResource( hInstance, hResource );

  00001	8b 5c 24 08	 mov	 ebx, DWORD PTR _hInstance$[esp]
  00005	57		 push	 edi
  00006	8b 7c 24 10	 mov	 edi, DWORD PTR _hResource$[esp+4]
  0000a	57		 push	 edi
  0000b	53		 push	 ebx
  0000c	ff 15 00 00 00
	00		 call	 DWORD PTR __imp__LoadResource@8

; 247  : 	if( hGlobal == NULL )

  00012	85 c0		 test	 eax, eax
  00014	75 03		 jne	 SHORT $L39520
  00016	5f		 pop	 edi
  00017	5b		 pop	 ebx

; 272  : 	{
; 273  : 		return( NULL );
; 274  : 	}
; 275  : 
; 276  : 	return( pImage );
; 277  : }

  00018	c3		 ret	 0
$L39520:
  00019	56		 push	 esi

; 248  : 	{
; 249  : 		return( NULL );
; 250  : 	}
; 251  : 
; 252  : 	pImage = (const ATLSTRINGRESOURCEIMAGE*)::LockResource( hGlobal );

  0001a	50		 push	 eax
  0001b	ff 15 00 00 00
	00		 call	 DWORD PTR __imp__LockResource@4
  00021	8b f0		 mov	 esi, eax

; 253  : 	if( pImage == NULL )

  00023	85 f6		 test	 esi, esi
  00025	75 06		 jne	 SHORT $L39522
$L216836:
  00027	5e		 pop	 esi
  00028	5f		 pop	 edi

; 254  : 	{
; 255  : 		return( NULL );

  00029	33 c0		 xor	 eax, eax
  0002b	5b		 pop	 ebx

; 272  : 	{
; 273  : 		return( NULL );
; 274  : 	}
; 275  : 
; 276  : 	return( pImage );
; 277  : }

  0002c	c3		 ret	 0
$L39522:

; 256  : 	}
; 257  : 
; 258  : 	nResourceSize = ::SizeofResource( hInstance, hResource );

  0002d	57		 push	 edi
  0002e	53		 push	 ebx
  0002f	ff 15 00 00 00
	00		 call	 DWORD PTR __imp__SizeofResource@8

; 259  : 	pImageEnd = (const ATLSTRINGRESOURCEIMAGE*)(LPBYTE( pImage )+nResourceSize);
; 260  : 	iIndex = id&0x000f;

  00035	8b 4c 24 18	 mov	 ecx, DWORD PTR _id$[esp+8]
  00039	03 c6		 add	 eax, esi
  0003b	83 e1 0f	 and	 ecx, 15			; 0000000fH

; 261  : 
; 262  : 	while( (iIndex > 0) && (pImage < pImageEnd) )

  0003e	76 0e		 jbe	 SHORT $L39526
$L39525:
  00040	3b f0		 cmp	 esi, eax
  00042	73 e3		 jae	 SHORT $L216836

; 263  : 	{
; 264  : 		pImage = (const ATLSTRINGRESOURCEIMAGE*)(LPBYTE( pImage )+(sizeof( ATLSTRINGRESOURCEIMAGE )+(pImage->nLength*sizeof( WCHAR ))));
; 265  : 		iIndex--;

  00044	49		 dec	 ecx
  00045	0f b7 16	 movzx	 edx, WORD PTR [esi]
  00048	8d 74 56 02	 lea	 esi, DWORD PTR [esi+edx*2+2]
  0004c	75 f2		 jne	 SHORT $L39525
$L39526:

; 266  : 	}
; 267  : 	if( pImage >= pImageEnd )

  0004e	3b f0		 cmp	 esi, eax

; 268  : 	{
; 269  : 		return( NULL );

  00050	73 d5		 jae	 SHORT $L216836

; 270  : 	}
; 271  : 	if( pImage->nLength == 0 )

  00052	66 8b 06	 mov	 ax, WORD PTR [esi]
  00055	66 f7 d8	 neg	 ax
  00058	1b c0		 sbb	 eax, eax
  0005a	23 c6		 and	 eax, esi
  0005c	5e		 pop	 esi
  0005d	5f		 pop	 edi
  0005e	5b		 pop	 ebx

; 272  : 	{
; 273  : 		return( NULL );
; 274  : 	}
; 275  : 
; 276  : 	return( pImage );
; 277  : }

  0005f	c3		 ret	 0
?_AtlGetStringResourceImage@ATL@@YAPBUATLSTRINGRESOURCEIMAGE@1@PAUHINSTANCE__@@PAUHRSRC__@@I@Z ENDP ; ATL::_AtlGetStringResourceImage
_TEXT	ENDS
PUBLIC	?AtlGetStringResourceImage@ATL@@YAPBUATLSTRINGRESOURCEIMAGE@1@PAUHINSTANCE__@@I@Z ; ATL::AtlGetStringResourceImage
EXTRN	__imp__FindResourceA@12:NEAR
; Function compile flags: /Ogty
;	COMDAT ?AtlGetStringResourceImage@ATL@@YAPBUATLSTRINGRESOURCEIMAGE@1@PAUHINSTANCE__@@I@Z
_TEXT	SEGMENT
_hInstance$ = 8						; size = 4
_id$ = 12						; size = 4
?AtlGetStringResourceImage@ATL@@YAPBUATLSTRINGRESOURCEIMAGE@1@PAUHINSTANCE__@@I@Z PROC NEAR ; ATL::AtlGetStringResourceImage, COMDAT

; 280  : {

  00000	56		 push	 esi

; 281  : 	HRSRC hResource;
; 282  : 
; 283  : 	hResource = ::FindResource( hInstance, MAKEINTRESOURCE( ((id>>4)+1) ), RT_STRING );

  00001	8b 74 24 0c	 mov	 esi, DWORD PTR _id$[esp]
  00005	8b c6		 mov	 eax, esi
  00007	c1 e8 04	 shr	 eax, 4
  0000a	57		 push	 edi
  0000b	8b 7c 24 0c	 mov	 edi, DWORD PTR _hInstance$[esp+4]
  0000f	40		 inc	 eax
  00010	0f b7 c8	 movzx	 ecx, ax
  00013	6a 06		 push	 6
  00015	51		 push	 ecx
  00016	57		 push	 edi
  00017	ff 15 00 00 00
	00		 call	 DWORD PTR __imp__FindResourceA@12

; 284  : 	if( hResource == NULL )

  0001d	85 c0		 test	 eax, eax
  0001f	75 03		 jne	 SHORT $L39543
  00021	5f		 pop	 edi
  00022	5e		 pop	 esi

; 290  : }

  00023	c3		 ret	 0
$L39543:

; 285  : 	{
; 286  : 		return( NULL );
; 287  : 	}
; 288  : 
; 289  : 	return _AtlGetStringResourceImage( hInstance, hResource, id );

  00024	56		 push	 esi
  00025	50		 push	 eax
  00026	57		 push	 edi
  00027	e8 00 00 00 00	 call	 ?_AtlGetStringResourceImage@ATL@@YAPBUATLSTRINGRESOURCEIMAGE@1@PAUHINSTANCE__@@PAUHRSRC__@@I@Z ; ATL::_AtlGetStringResourceImage
  0002c	83 c4 0c	 add	 esp, 12			; 0000000cH
  0002f	5f		 pop	 edi
  00030	5e		 pop	 esi

; 290  : }

  00031	c3		 ret	 0
?AtlGetStringResourceImage@ATL@@YAPBUATLSTRINGRESOURCEIMAGE@1@PAUHINSTANCE__@@I@Z ENDP ; ATL::AtlGetStringResourceImage
_TEXT	ENDS
PUBLIC	?data@CStringData@ATL@@QAEPAXXZ			; ATL::CStringData::data
; Function compile flags: /Ogty
; File c:\program files\microsoft visual studio .net 2003\vc7\atlmfc\include\atlsimpstr.h
;	COMDAT ?data@CStringData@ATL@@QAEPAXXZ
_TEXT	SEGMENT
?data@CStringData@ATL@@QAEPAXXZ PROC NEAR		; ATL::CStringData::data, COMDAT
; _this$ = ecx

; 66   : 		return (this+1);

  00000	8d 41 10	 lea	 eax, DWORD PTR [ecx+16]

; 67   : 	}

  00003	c3		 ret	 0
?data@CStringData@ATL@@QAEPAXXZ ENDP			; ATL::CStringData::data
_TEXT	ENDS
PUBLIC	?IsLocked@CStringData@ATL@@QBE_NXZ		; ATL::CStringData::IsLocked
; Function compile flags: /Ogty
;	COMDAT ?IsLocked@CStringData@ATL@@QBE_NXZ
_TEXT	SEGMENT
?IsLocked@CStringData@ATL@@QBE_NXZ PROC NEAR		; ATL::CStringData::IsLocked, COMDAT
; _this$ = ecx

; 76   : 		return nRefs < 0;

  00000	8b 51 0c	 mov	 edx, DWORD PTR [ecx+12]
  00003	33 c0		 xor	 eax, eax
  00005	85 d2		 test	 edx, edx
  00007	0f 9c c0	 setl	 al

; 77   : 	}

  0000a	c3		 ret	 0
?IsLocked@CStringData@ATL@@QBE_NXZ ENDP			; ATL::CStringData::IsLocked
_TEXT	ENDS
PUBLIC	?IsShared@CStringData@ATL@@QBE_NXZ		; ATL::CStringData::IsShared
; Function compile flags: /Ogty
;	COMDAT ?IsShared@CStringData@ATL@@QBE_NXZ
_TEXT	SEGMENT
?IsShared@CStringData@ATL@@QBE_NXZ PROC NEAR		; ATL::CStringData::IsShared, COMDAT
; _this$ = ecx

; 80   : 		return( nRefs > 1 ); 

  00000	8b 51 0c	 mov	 edx, DWORD PTR [ecx+12]
  00003	33 c0		 xor	 eax, eax
  00005	83 fa 01	 cmp	 edx, 1
  00008	0f 9f c0	 setg	 al

; 81   : 	}

  0000b	c3		 ret	 0
?IsShared@CStringData@ATL@@QBE_NXZ ENDP			; ATL::CStringData::IsShared
_TEXT	ENDS
PUBLIC	?Release@CStringData@ATL@@QAEXXZ		; ATL::CStringData::Release
; Function compile flags: /Ogty
;	COMDAT ?Release@CStringData@ATL@@QAEXXZ
_TEXT	SEGMENT
?Release@CStringData@ATL@@QAEXXZ PROC NEAR		; ATL::CStringData::Release, COMDAT
; _this$ = ecx

; 93   : 		ATLASSERT( nRefs != 0 );
; 94   : 
; 95   : 		if( _InterlockedDecrement( &nRefs ) <= 0 )

  00000	8d 41 0c	 lea	 eax, DWORD PTR [ecx+12]
  00003	83 ca ff	 or	 edx, -1
  00006	f0 0f c1 10	 lock	  xadd	 DWORD PTR [eax], edx
  0000a	4a		 dec	 edx
  0000b	85 d2		 test	 edx, edx
  0000d	7f 0a		 jg	 SHORT $L39883

; 96   : 		{
; 97   : 			pStringMgr->Free( this );

  0000f	8b 01		 mov	 eax, DWORD PTR [ecx]
  00011	8b 10		 mov	 edx, DWORD PTR [eax]
  00013	51		 push	 ecx
  00014	8b c8		 mov	 ecx, eax
  00016	ff 52 04	 call	 DWORD PTR [edx+4]
$L39883:

; 98   : 		}
; 99   : 	}

  00019	c3		 ret	 0
?Release@CStringData@ATL@@QAEXXZ ENDP			; ATL::CStringData::Release
_TEXT	ENDS
PUBLIC	?GetFlag@CEventGeneric@@QAEKXZ			; CEventGeneric::GetFlag
; Function compile flags: /Ogty
; File c:\documents and settings\test\mes documents\source\virtuos_v17\build\program\_common\spevent.h
;	COMDAT ?GetFlag@CEventGeneric@@QAEKXZ
_TEXT	SEGMENT
?GetFlag@CEventGeneric@@QAEKXZ PROC NEAR		; CEventGeneric::GetFlag, COMDAT
; _this$ = ecx

; 177  : 	DWORD	GetFlag( void )		{	return m_dwFlag;	}

  00000	8b 41 04	 mov	 eax, DWORD PTR [ecx+4]
  00003	c3		 ret	 0
?GetFlag@CEventGeneric@@QAEKXZ ENDP			; CEventGeneric::GetFlag
_TEXT	ENDS
PUBLIC	?PostRequest@CGuildHouseDBMng@@QAEHHPAEHK@Z	; CGuildHouseDBMng::PostRequest
EXTRN	?PostRequest@CDbController@@QAEHHPAEHK@Z:NEAR	; CDbController::PostRequest
; Function compile flags: /Ogty
; File c:\documents and settings\test\mes documents\source\virtuos_v17\build\program\databaseserver\guildhousedbctrl.h
;	COMDAT ?PostRequest@CGuildHouseDBMng@@QAEHHPAEHK@Z
_TEXT	SEGMENT
_nQuery$ = 8						; size = 4
_lpBuf$ = 12						; size = 4
_nBufSize$ = 16						; size = 4
_dwCompletionKey$ = 20					; size = 4
?PostRequest@CGuildHouseDBMng@@QAEHHPAEHK@Z PROC NEAR	; CGuildHouseDBMng::PostRequest, COMDAT
; _this$ = ecx

; 87   : 	{ return m_GHDBCtrl.PostRequest( nQuery, lpBuf, nBufSize, dwCompletionKey );	}

  00000	e9 00 00 00 00	 jmp	 ?PostRequest@CDbController@@QAEHHPAEHK@Z ; CDbController::PostRequest
?PostRequest@CGuildHouseDBMng@@QAEHHPAEHK@Z ENDP	; CGuildHouseDBMng::PostRequest
_TEXT	ENDS
PUBLIC	?PostRequest@CCampusHelper@@QAEHHPAEHK@Z	; CCampusHelper::PostRequest
; Function compile flags: /Ogty
; File c:\documents and settings\test\mes documents\source\virtuos_v17\build\program\databaseserver\campusdbctrl.h
;	COMDAT ?PostRequest@CCampusHelper@@QAEHHPAEHK@Z
_TEXT	SEGMENT
_nQuery$ = 8						; size = 4
_lpBuf$ = 12						; size = 4
_nBufSize$ = 16						; size = 4
_dwCompletionKey$ = 20					; size = 4
?PostRequest@CCampusHelper@@QAEHHPAEHK@Z PROC NEAR	; CCampusHelper::PostRequest, COMDAT
; _this$ = ecx

; 72   : 	{ return m_CampusDBCtrl.PostRequest( nQuery, lpBuf, nBufSize, dwCompletionKey );	}

  00000	e9 00 00 00 00	 jmp	 ?PostRequest@CDbController@@QAEHHPAEHK@Z ; CDbController::PostRequest
?PostRequest@CCampusHelper@@QAEHHPAEHK@Z ENDP		; CCampusHelper::PostRequest
_TEXT	ENDS
PUBLIC	?InitLanguageFromResource@@YAXPAUHINSTANCE__@@@Z ; InitLanguageFromResource
EXTRN	?g_codePage@@3GA:WORD				; g_codePage
EXTRN	__imp__LoadStringA@16:NEAR
EXTRN	_atoi:NEAR
EXTRN	?SetLanguageInfo@@YAXHH@Z:NEAR			; SetLanguageInfo
EXTRN	?SetUse2ndPassWord@@YAXH@Z:NEAR			; SetUse2ndPassWord
; Function compile flags: /Ogty
; File c:\documents and settings\test\mes documents\source\virtuos_v17\build\program\databaseserver\databaseserver.cpp
;	COMDAT ?InitLanguageFromResource@@YAXPAUHINSTANCE__@@@Z
_TEXT	SEGMENT
_sz2ndPassWord$ = -56					; size = 2
_szCodePage$ = -52					; size = 16
_szSubLang$ = -36					; size = 16
_szLang$ = -20						; size = 16
__$ArrayPad$ = -4					; size = 4
__$ReturnAddr$ = 4					; size = 4
_hInstance$ = 8						; size = 4
?InitLanguageFromResource@@YAXPAUHINSTANCE__@@@Z PROC NEAR ; InitLanguageFromResource, COMDAT

; 125  : {

  00000	83 ec 38	 sub	 esp, 56			; 00000038H
  00003	a1 00 00 00 00	 mov	 eax, DWORD PTR ___security_cookie
  00008	33 c4		 xor	 eax, esp
  0000a	56		 push	 esi
  0000b	8b 74 24 40	 mov	 esi, DWORD PTR _hInstance$[esp+56]
  0000f	57		 push	 edi

; 126  : 	char szLang[16], szSubLang[16];
; 127  : 	LoadString(hInstance, IDS_LANG, szLang, 16);	

  00010	8b 3d 00 00 00
	00		 mov	 edi, DWORD PTR __imp__LoadStringA@16
  00016	89 44 24 3c	 mov	 DWORD PTR __$ArrayPad$[esp+64], eax
  0001a	6a 10		 push	 16			; 00000010H
  0001c	8d 44 24 30	 lea	 eax, DWORD PTR _szLang$[esp+68]
  00020	50		 push	 eax
  00021	6a 02		 push	 2
  00023	56		 push	 esi
  00024	ff d7		 call	 edi

; 128  : 	LoadString(hInstance, IDS_SUBLANG, szSubLang, 16);	

  00026	6a 10		 push	 16			; 00000010H
  00028	8d 4c 24 20	 lea	 ecx, DWORD PTR _szSubLang$[esp+68]
  0002c	51		 push	 ecx
  0002d	6a 03		 push	 3
  0002f	56		 push	 esi
  00030	ff d7		 call	 edi

; 129  : 	
; 130  : 	char szCodePage[16];
; 131  : 	LoadString(hInstance, IDS_CODEPAGE, szCodePage, 16);	

  00032	6a 10		 push	 16			; 00000010H
  00034	8d 54 24 10	 lea	 edx, DWORD PTR _szCodePage$[esp+68]
  00038	52		 push	 edx
  00039	6a 04		 push	 4
  0003b	56		 push	 esi
  0003c	ff d7		 call	 edi

; 132  : 	g_codePage = atoi( szCodePage );

  0003e	8d 44 24 0c	 lea	 eax, DWORD PTR _szCodePage$[esp+64]
  00042	50		 push	 eax
  00043	e8 00 00 00 00	 call	 _atoi

; 133  : 
; 134  : 	::SetLanguageInfo( atoi( szLang ), atoi( szSubLang ) );

  00048	8d 4c 24 20	 lea	 ecx, DWORD PTR _szSubLang$[esp+68]
  0004c	51		 push	 ecx
  0004d	66 a3 00 00 00
	00		 mov	 WORD PTR ?g_codePage@@3GA, ax ; g_codePage
  00053	e8 00 00 00 00	 call	 _atoi
  00058	83 c4 08	 add	 esp, 8
  0005b	50		 push	 eax
  0005c	8d 54 24 30	 lea	 edx, DWORD PTR _szLang$[esp+68]
  00060	52		 push	 edx
  00061	e8 00 00 00 00	 call	 _atoi
  00066	83 c4 04	 add	 esp, 4
  00069	50		 push	 eax
  0006a	e8 00 00 00 00	 call	 ?SetLanguageInfo@@YAXHH@Z ; SetLanguageInfo
  0006f	83 c4 08	 add	 esp, 8

; 135  : 
; 136  : #if __VER >= 15 // __2ND_PASSWORD_SYSTEM
; 137  : 	char sz2ndPassWord[2];
; 138  : 	LoadString( hInstance, IDS_2ND_PASSWORD, sz2ndPassWord, 2 );

  00072	6a 02		 push	 2
  00074	8d 44 24 0c	 lea	 eax, DWORD PTR _sz2ndPassWord$[esp+68]
  00078	50		 push	 eax
  00079	6a 05		 push	 5
  0007b	56		 push	 esi
  0007c	ff d7		 call	 edi

; 139  : 	::SetUse2ndPassWord( static_cast<BOOL>( atoi( sz2ndPassWord ) ) );

  0007e	8d 4c 24 08	 lea	 ecx, DWORD PTR _sz2ndPassWord$[esp+64]
  00082	51		 push	 ecx
  00083	e8 00 00 00 00	 call	 _atoi
  00088	50		 push	 eax
  00089	e8 00 00 00 00	 call	 ?SetUse2ndPassWord@@YAXH@Z ; SetUse2ndPassWord

; 140  : #endif // __2ND_PASSWORD_SYSTEM
; 141  : }

  0008e	8b 4c 24 44	 mov	 ecx, DWORD PTR __$ArrayPad$[esp+72]
  00092	83 c4 08	 add	 esp, 8
  00095	5f		 pop	 edi
  00096	5e		 pop	 esi
  00097	33 cc		 xor	 ecx, esp
  00099	e8 00 00 00 00	 call	 @__security_check_cookie@4
  0009e	83 c4 38	 add	 esp, 56			; 00000038H
  000a1	c3		 ret	 0
?InitLanguageFromResource@@YAXPAUHINSTANCE__@@@Z ENDP	; InitLanguageFromResource
_TEXT	ENDS
PUBLIC	??0CTime@ATL@@QAE@_J@Z				; ATL::CTime::CTime
; Function compile flags: /Ogty
; File c:\program files\microsoft visual studio .net 2003\vc7\atlmfc\include\atltime.inl
;	COMDAT ??0CTime@ATL@@QAE@_J@Z
_TEXT	SEGMENT
_time$ = 8						; size = 8
??0CTime@ATL@@QAE@_J@Z PROC NEAR			; ATL::CTime::CTime, COMDAT
; _this$ = ecx

; 167  : {

  00000	8b 54 24 08	 mov	 edx, DWORD PTR _time$[esp]
  00004	8b c1		 mov	 eax, ecx
  00006	8b 4c 24 04	 mov	 ecx, DWORD PTR _time$[esp-4]
  0000a	89 08		 mov	 DWORD PTR [eax], ecx
  0000c	89 50 04	 mov	 DWORD PTR [eax+4], edx

; 168  : }

  0000f	c2 08 00	 ret	 8
??0CTime@ATL@@QAE@_J@Z ENDP				; ATL::CTime::CTime
_TEXT	ENDS
PUBLIC	?key_comp@?$_Tree@V?$_Tmap_traits@EHU?$less@E@std@@V?$allocator@U?$pair@$$CBEH@std@@@2@$0A@@std@@@std@@QBE?AU?$less@E@2@XZ ; std::_Tree<std::_Tmap_traits<unsigned char,int,std::less<unsigned char>,std::allocator<std::pair<unsigned char const ,int> >,0> >::key_comp
; Function compile flags: /Ogty
; File c:\program files\microsoft visual studio .net 2003\vc7\include\xtree
;	COMDAT ?key_comp@?$_Tree@V?$_Tmap_traits@EHU?$less@E@std@@V?$allocator@U?$pair@$$CBEH@std@@@2@$0A@@std@@@std@@QBE?AU?$less@E@2@XZ
_TEXT	SEGMENT
___$ReturnUdt$ = 8					; size = 4
?key_comp@?$_Tree@V?$_Tmap_traits@EHU?$less@E@std@@V?$allocator@U?$pair@$$CBEH@std@@@2@$0A@@std@@@std@@QBE?AU?$less@E@2@XZ PROC NEAR ; std::_Tree<std::_Tmap_traits<unsigned char,int,std::less<unsigned char>,std::allocator<std::pair<unsigned char const ,int> >,0> >::key_comp, COMDAT
; _this$ = ecx

; 468  : 		return (this->comp);

  00000	8b 44 24 04	 mov	 eax, DWORD PTR ___$ReturnUdt$[esp-4]

; 469  : 		}

  00004	c2 04 00	 ret	 4
?key_comp@?$_Tree@V?$_Tmap_traits@EHU?$less@E@std@@V?$allocator@U?$pair@$$CBEH@std@@@2@$0A@@std@@@std@@QBE?AU?$less@E@2@XZ ENDP ; std::_Tree<std::_Tmap_traits<unsigned char,int,std::less<unsigned char>,std::allocator<std::pair<unsigned char const ,int> >,0> >::key_comp
_TEXT	ENDS
PUBLIC	?_Isnil@?$_Tree@V?$_Tset_traits@V?$basic_string@DU?$char_traits@D@std@@V?$allocator@D@2@@std@@U?$less@V?$basic_string@DU?$char_traits@D@std@@V?$allocator@D@2@@std@@@2@V?$allocator@V?$basic_string@DU?$char_traits@D@std@@V?$allocator@D@2@@std@@@2@$0A@@std@@@std@@KAAADPAU_Node@?$_Tree_nod@V?$_Tset_traits@V?$basic_string@DU?$char_traits@D@std@@V?$allocator@D@2@@std@@U?$less@V?$basic_string@DU?$char_traits@D@std@@V?$allocator@D@2@@std@@@2@V?$allocator@V?$basic_string@DU?$char_traits@D@std@@V?$allocator@D@2@@std@@@2@$0A@@std@@@2@@Z ; std::_Tree<std::_Tset_traits<std::basic_string<char,std::char_traits<char>,std::allocator<char> >,std::less<std::basic_string<char,std::char_traits<char>,std::allocator<char> > >,std::allocator<std::basic_string<char,std::char_traits<char>,std::allocator<char> > >,0> >::_Isnil
; Function compile flags: /Ogty
;	COMDAT ?_Isnil@?$_Tree@V?$_Tset_traits@V?$basic_string@DU?$char_traits@D@std@@V?$allocator@D@2@@std@@U?$less@V?$basic_string@DU?$char_traits@D@std@@V?$allocator@D@2@@std@@@2@V?$allocator@V?$basic_string@DU?$char_traits@D@std@@V?$allocator@D@2@@std@@@2@$0A@@std@@@std@@KAAADPAU_Node@?$_Tree_nod@V?$_Tset_traits@V?$basic_string@DU?$char_traits@D@std@@V?$allocator@D@2@@std@@U?$less@V?$basic_string@DU?$char_traits@D@std@@V?$allocator@D@2@@std@@@2@V?$allocator@V?$basic_string@DU?$char_traits@D@std@@V?$allocator@D@2@@std@@@2@$0A@@std@@@2@@Z
_TEXT	SEGMENT
__Pnode$ = 8						; size = 4
?_Isnil@?$_Tree@V?$_Tset_traits@V?$basic_string@DU?$char_traits@D@std@@V?$allocator@D@2@@std@@U?$less@V?$basic_string@DU?$char_traits@D@std@@V?$allocator@D@2@@std@@@2@V?$allocator@V?$basic_string@DU?$char_traits@D@std@@V?$allocator@D@2@@std@@@2@$0A@@std@@@std@@KAAADPAU_Node@?$_Tree_nod@V?$_Tset_traits@V?$basic_string@DU?$char_traits@D@std@@V?$allocator@D@2@@std@@U?$less@V?$basic_string@DU?$char_traits@D@std@@V?$allocator@D@2@@std@@@2@V?$allocator@V?$basic_string@DU?$char_traits@D@std@@V?$allocator@D@2@@std@@@2@$0A@@std@@@2@@Z PROC NEAR ; std::_Tree<std::_Tset_traits<std::basic_string<char,std::char_traits<char>,std::allocator<char> >,std::less<std::basic_string<char,std::char_traits<char>,std::allocator<char> > >,std::allocator<std::basic_string<char,std::char_traits<char>,std::allocator<char> > >,0> >::_Isnil, COMDAT

; 137  : 		return ((_Charref)(*_Pnode)._Isnil);

  00000	8b 44 24 04	 mov	 eax, DWORD PTR __Pnode$[esp-4]
  00004	83 c0 29	 add	 eax, 41			; 00000029H

; 138  : 		}

  00007	c3		 ret	 0
?_Isnil@?$_Tree@V?$_Tset_traits@V?$basic_string@DU?$char_traits@D@std@@V?$allocator@D@2@@std@@U?$less@V?$basic_string@DU?$char_traits@D@std@@V?$allocator@D@2@@std@@@2@V?$allocator@V?$basic_string@DU?$char_traits@D@std@@V?$allocator@D@2@@std@@@2@$0A@@std@@@std@@KAAADPAU_Node@?$_Tree_nod@V?$_Tset_traits@V?$basic_string@DU?$char_traits@D@std@@V?$allocator@D@2@@std@@U?$less@V?$basic_string@DU?$char_traits@D@std@@V?$allocator@D@2@@std@@@2@V?$allocator@V?$basic_string@DU?$char_traits@D@std@@V?$allocator@D@2@@std@@@2@$0A@@std@@@2@@Z ENDP ; std::_Tree<std::_Tset_traits<std::basic_string<char,std::char_traits<char>,std::allocator<char> >,std::less<std::basic_string<char,std::char_traits<char>,std::allocator<char> > >,std::allocator<std::basic_string<char,std::char_traits<char>,std::allocator<char> > >,0> >::_Isnil
_TEXT	ENDS
PUBLIC	?_Left@?$_Tree@V?$_Tset_traits@V?$basic_string@DU?$char_traits@D@std@@V?$allocator@D@2@@std@@U?$less@V?$basic_string@DU?$char_traits@D@std@@V?$allocator@D@2@@std@@@2@V?$allocator@V?$basic_string@DU?$char_traits@D@std@@V?$allocator@D@2@@std@@@2@$0A@@std@@@std@@KAAAPAU_Node@?$_Tree_nod@V?$_Tset_traits@V?$basic_string@DU?$char_traits@D@std@@V?$allocator@D@2@@std@@U?$less@V?$basic_string@DU?$char_traits@D@std@@V?$allocator@D@2@@std@@@2@V?$allocator@V?$basic_string@DU?$char_traits@D@std@@V?$allocator@D@2@@std@@@2@$0A@@std@@@2@PAU342@@Z ; std::_Tree<std::_Tset_traits<std::basic_string<char,std::char_traits<char>,std::allocator<char> >,std::less<std::basic_string<char,std::char_traits<char>,std::allocator<char> > >,std::allocator<std::basic_string<char,std::char_traits<char>,std::allocator<char> > >,0> >::_Left
; Function compile flags: /Ogty
;	COMDAT ?_Left@?$_Tree@V?$_Tset_traits@V?$basic_string@DU?$char_traits@D@std@@V?$allocator@D@2@@std@@U?$less@V?$basic_string@DU?$char_traits@D@std@@V?$allocator@D@2@@std@@@2@V?$allocator@V?$basic_string@DU?$char_traits@D@std@@V?$allocator@D@2@@std@@@2@$0A@@std@@@std@@KAAAPAU_Node@?$_Tree_nod@V?$_Tset_traits@V?$basic_string@DU?$char_traits@D@std@@V?$allocator@D@2@@std@@U?$less@V?$basic_string@DU?$char_traits@D@std@@V?$allocator@D@2@@std@@@2@V?$allocator@V?$basic_string@DU?$char_traits@D@std@@V?$allocator@D@2@@std@@@2@$0A@@std@@@2@PAU342@@Z
_TEXT	SEGMENT
__Pnode$ = 8						; size = 4
?_Left@?$_Tree@V?$_Tset_traits@V?$basic_string@DU?$char_traits@D@std@@V?$allocator@D@2@@std@@U?$less@V?$basic_string@DU?$char_traits@D@std@@V?$allocator@D@2@@std@@@2@V?$allocator@V?$basic_string@DU?$char_traits@D@std@@V?$allocator@D@2@@std@@@2@$0A@@std@@@std@@KAAAPAU_Node@?$_Tree_nod@V?$_Tset_traits@V?$basic_string@DU?$char_traits@D@std@@V?$allocator@D@2@@std@@U?$less@V?$basic_string@DU?$char_traits@D@std@@V?$allocator@D@2@@std@@@2@V?$allocator@V?$basic_string@DU?$char_traits@D@std@@V?$allocator@D@2@@std@@@2@$0A@@std@@@2@PAU342@@Z PROC NEAR ; std::_Tree<std::_Tset_traits<std::basic_string<char,std::char_traits<char>,std::allocator<char> >,std::less<std::basic_string<char,std::char_traits<char>,std::allocator<char> > >,std::allocator<std::basic_string<char,std::char_traits<char>,std::allocator<char> > >,0> >::_Left, COMDAT

; 147  : 		return ((_Nodepref)(*_Pnode)._Left);

  00000	8b 44 24 04	 mov	 eax, DWORD PTR __Pnode$[esp-4]

; 148  : 		}

  00004	c3		 ret	 0
?_Left@?$_Tree@V?$_Tset_traits@V?$basic_string@DU?$char_traits@D@std@@V?$allocator@D@2@@std@@U?$less@V?$basic_string@DU?$char_traits@D@std@@V?$allocator@D@2@@std@@@2@V?$allocator@V?$basic_string@DU?$char_traits@D@std@@V?$allocator@D@2@@std@@@2@$0A@@std@@@std@@KAAAPAU_Node@?$_Tree_nod@V?$_Tset_traits@V?$basic_string@DU?$char_traits@D@std@@V?$allocator@D@2@@std@@U?$less@V?$basic_string@DU?$char_traits@D@std@@V?$allocator@D@2@@std@@@2@V?$allocator@V?$basic_string@DU?$char_traits@D@std@@V?$allocator@D@2@@std@@@2@$0A@@std@@@2@PAU342@@Z ENDP ; std::_Tree<std::_Tset_traits<std::basic_string<char,std::char_traits<char>,std::allocator<char> >,std::less<std::basic_string<char,std::char_traits<char>,std::allocator<char> > >,std::allocator<std::basic_string<char,std::char_traits<char>,std::allocator<char> > >,0> >::_Left
_TEXT	ENDS
PUBLIC	?_Right@?$_Tree@V?$_Tset_traits@V?$basic_string@DU?$char_traits@D@std@@V?$allocator@D@2@@std@@U?$less@V?$basic_string@DU?$char_traits@D@std@@V?$allocator@D@2@@std@@@2@V?$allocator@V?$basic_string@DU?$char_traits@D@std@@V?$allocator@D@2@@std@@@2@$0A@@std@@@std@@KAAAPAU_Node@?$_Tree_nod@V?$_Tset_traits@V?$basic_string@DU?$char_traits@D@std@@V?$allocator@D@2@@std@@U?$less@V?$basic_string@DU?$char_traits@D@std@@V?$allocator@D@2@@std@@@2@V?$allocator@V?$basic_string@DU?$char_traits@D@std@@V?$allocator@D@2@@std@@@2@$0A@@std@@@2@PAU342@@Z ; std::_Tree<std::_Tset_traits<std::basic_string<char,std::char_traits<char>,std::allocator<char> >,std::less<std::basic_string<char,std::char_traits<char>,std::allocator<char> > >,std::allocator<std::basic_string<char,std::char_traits<char>,std::allocator<char> > >,0> >::_Right
; Function compile flags: /Ogty
;	COMDAT ?_Right@?$_Tree@V?$_Tset_traits@V?$basic_string@DU?$char_traits@D@std@@V?$allocator@D@2@@std@@U?$less@V?$basic_string@DU?$char_traits@D@std@@V?$allocator@D@2@@std@@@2@V?$allocator@V?$basic_string@DU?$char_traits@D@std@@V?$allocator@D@2@@std@@@2@$0A@@std@@@std@@KAAAPAU_Node@?$_Tree_nod@V?$_Tset_traits@V?$basic_string@DU?$char_traits@D@std@@V?$allocator@D@2@@std@@U?$less@V?$basic_string@DU?$char_traits@D@std@@V?$allocator@D@2@@std@@@2@V?$allocator@V?$basic_string@DU?$char_traits@D@std@@V?$allocator@D@2@@std@@@2@$0A@@std@@@2@PAU342@@Z
_TEXT	SEGMENT
__Pnode$ = 8						; size = 4
?_Right@?$_Tree@V?$_Tset_traits@V?$basic_string@DU?$char_traits@D@std@@V?$allocator@D@2@@std@@U?$less@V?$basic_string@DU?$char_traits@D@std@@V?$allocator@D@2@@std@@@2@V?$allocator@V?$basic_string@DU?$char_traits@D@std@@V?$allocator@D@2@@std@@@2@$0A@@std@@@std@@KAAAPAU_Node@?$_Tree_nod@V?$_Tset_traits@V?$basic_string@DU?$char_traits@D@std@@V?$allocator@D@2@@std@@U?$less@V?$basic_string@DU?$char_traits@D@std@@V?$allocator@D@2@@std@@@2@V?$allocator@V?$basic_string@DU?$char_traits@D@std@@V?$allocator@D@2@@std@@@2@$0A@@std@@@2@PAU342@@Z PROC NEAR ; std::_Tree<std::_Tset_traits<std::basic_string<char,std::char_traits<char>,std::allocator<char> >,std::less<std::basic_string<char,std::char_traits<char>,std::allocator<char> > >,std::allocator<std::basic_string<char,std::char_traits<char>,std::allocator<char> > >,0> >::_Right, COMDAT

; 157  : 		return ((_Nodepref)(*_Pnode)._Right);

  00000	8b 44 24 04	 mov	 eax, DWORD PTR __Pnode$[esp-4]
  00004	83 c0 08	 add	 eax, 8

; 158  : 		}

  00007	c3		 ret	 0
?_Right@?$_Tree@V?$_Tset_traits@V?$basic_string@DU?$char_traits@D@std@@V?$allocator@D@2@@std@@U?$less@V?$basic_string@DU?$char_traits@D@std@@V?$allocator@D@2@@std@@@2@V?$allocator@V?$basic_string@DU?$char_traits@D@std@@V?$allocator@D@2@@std@@@2@$0A@@std@@@std@@KAAAPAU_Node@?$_Tree_nod@V?$_Tset_traits@V?$basic_string@DU?$char_traits@D@std@@V?$allocator@D@2@@std@@U?$less@V?$basic_string@DU?$char_traits@D@std@@V?$allocator@D@2@@std@@@2@V?$allocator@V?$basic_string@DU?$char_traits@D@std@@V?$allocator@D@2@@std@@@2@$0A@@std@@@2@PAU342@@Z ENDP ; std::_Tree<std::_Tset_traits<std::basic_string<char,std::char_traits<char>,std::allocator<char> >,std::less<std::basic_string<char,std::char_traits<char>,std::allocator<char> > >,std::allocator<std::basic_string<char,std::char_traits<char>,std::allocator<char> > >,0> >::_Right
_TEXT	ENDS
PUBLIC	?_Kfn@?$_Tset_traits@V?$basic_string@DU?$char_traits@D@std@@V?$allocator@D@2@@std@@U?$less@V?$basic_string@DU?$char_traits@D@std@@V?$allocator@D@2@@std@@@2@V?$allocator@V?$basic_string@DU?$char_traits@D@std@@V?$allocator@D@2@@std@@@2@$0A@@std@@SAABV?$basic_string@DU?$char_traits@D@std@@V?$allocator@D@2@@2@ABV32@@Z ; std::_Tset_traits<std::basic_string<char,std::char_traits<char>,std::allocator<char> >,std::less<std::basic_string<char,std::char_traits<char>,std::allocator<char> > >,std::allocator<std::basic_string<char,std::char_traits<char>,std::allocator<char> > >,0>::_Kfn
; Function compile flags: /Ogty
; File c:\program files\microsoft visual studio .net 2003\vc7\include\set
;	COMDAT ?_Kfn@?$_Tset_traits@V?$basic_string@DU?$char_traits@D@std@@V?$allocator@D@2@@std@@U?$less@V?$basic_string@DU?$char_traits@D@std@@V?$allocator@D@2@@std@@@2@V?$allocator@V?$basic_string@DU?$char_traits@D@std@@V?$allocator@D@2@@std@@@2@$0A@@std@@SAABV?$basic_string@DU?$char_traits@D@std@@V?$allocator@D@2@@2@ABV32@@Z
_TEXT	SEGMENT
__Val$ = 8						; size = 4
?_Kfn@?$_Tset_traits@V?$basic_string@DU?$char_traits@D@std@@V?$allocator@D@2@@std@@U?$less@V?$basic_string@DU?$char_traits@D@std@@V?$allocator@D@2@@std@@@2@V?$allocator@V?$basic_string@DU?$char_traits@D@std@@V?$allocator@D@2@@std@@@2@$0A@@std@@SAABV?$basic_string@DU?$char_traits@D@std@@V?$allocator@D@2@@2@ABV32@@Z PROC NEAR ; std::_Tset_traits<std::basic_string<char,std::char_traits<char>,std::allocator<char> >,std::less<std::basic_string<char,std::char_traits<char>,std::allocator<char> > >,std::allocator<std::basic_string<char,std::char_traits<char>,std::allocator<char> > >,0>::_Kfn, COMDAT

; 45   : 		return (_Val);

  00000	8b 44 24 04	 mov	 eax, DWORD PTR __Val$[esp-4]

; 46   : 		}

  00004	c3		 ret	 0
?_Kfn@?$_Tset_traits@V?$basic_string@DU?$char_traits@D@std@@V?$allocator@D@2@@std@@U?$less@V?$basic_string@DU?$char_traits@D@std@@V?$allocator@D@2@@std@@@2@V?$allocator@V?$basic_string@DU?$char_traits@D@std@@V?$allocator@D@2@@std@@@2@$0A@@std@@SAABV?$basic_string@DU?$char_traits@D@std@@V?$allocator@D@2@@2@ABV32@@Z ENDP ; std::_Tset_traits<std::basic_string<char,std::char_traits<char>,std::allocator<char> >,std::less<std::basic_string<char,std::char_traits<char>,std::allocator<char> > >,std::allocator<std::basic_string<char,std::char_traits<char>,std::allocator<char> > >,0>::_Kfn
_TEXT	ENDS
PUBLIC	??0?$pair@Viterator@?$_Tree@V?$_Tset_traits@V?$basic_string@DU?$char_traits@D@std@@V?$allocator@D@2@@std@@U?$less@V?$basic_string@DU?$char_traits@D@std@@V?$allocator@D@2@@std@@@2@V?$allocator@V?$basic_string@DU?$char_traits@D@std@@V?$allocator@D@2@@std@@@2@$0A@@std@@@std@@_N@std@@QAE@ABViterator@?$_Tree@V?$_Tset_traits@V?$basic_string@DU?$char_traits@D@std@@V?$allocator@D@2@@std@@U?$less@V?$basic_string@DU?$char_traits@D@std@@V?$allocator@D@2@@std@@@2@V?$allocator@V?$basic_string@DU?$char_traits@D@std@@V?$allocator@D@2@@std@@@2@$0A@@std@@@1@AB_N@Z ; std::pair<std::_Tree<std::_Tset_traits<std::basic_string<char,std::char_traits<char>,std::allocator<char> >,std::less<std::basic_string<char,std::char_traits<char>,std::allocator<char> > >,std::allocator<std::basic_string<char,std::char_traits<char>,std::allocator<char> > >,0> >::iterator,bool>::pair<std::_Tree<std::_Tset_traits<std::basic_string<char,std::char_traits<char>,std::allocator<char> >,std::less<std::basic_string<char,std::char_traits<char>,std::allocator<char> > >,std::allocator<std::basic_string<char,std::char_traits<char>,std::allocator<char> > >,0> >::iterator,bool>
; Function compile flags: /Ogty
; File c:\program files\microsoft visual studio .net 2003\vc7\include\utility
;	COMDAT ??0?$pair@Viterator@?$_Tree@V?$_Tset_traits@V?$basic_string@DU?$char_traits@D@std@@V?$allocator@D@2@@std@@U?$less@V?$basic_string@DU?$char_traits@D@std@@V?$allocator@D@2@@std@@@2@V?$allocator@V?$basic_string@DU?$char_traits@D@std@@V?$allocator@D@2@@std@@@2@$0A@@std@@@std@@_N@std@@QAE@ABViterator@?$_Tree@V?$_Tset_traits@V?$basic_string@DU?$char_traits@D@std@@V?$allocator@D@2@@std@@U?$less@V?$basic_string@DU?$char_traits@D@std@@V?$allocator@D@2@@std@@@2@V?$allocator@V?$basic_string@DU?$char_traits@D@std@@V?$allocator@D@2@@std@@@2@$0A@@std@@@1@AB_N@Z
_TEXT	SEGMENT
__Val1$ = 8						; size = 4
__Val2$ = 12						; size = 4
??0?$pair@Viterator@?$_Tree@V?$_Tset_traits@V?$basic_string@DU?$char_traits@D@std@@V?$allocator@D@2@@std@@U?$less@V?$basic_string@DU?$char_traits@D@std@@V?$allocator@D@2@@std@@@2@V?$allocator@V?$basic_string@DU?$char_traits@D@std@@V?$allocator@D@2@@std@@@2@$0A@@std@@@std@@_N@std@@QAE@ABViterator@?$_Tree@V?$_Tset_traits@V?$basic_string@DU?$char_traits@D@std@@V?$allocator@D@2@@std@@U?$less@V?$basic_string@DU?$char_traits@D@std@@V?$allocator@D@2@@std@@@2@V?$allocator@V?$basic_string@DU?$char_traits@D@std@@V?$allocator@D@2@@std@@@2@$0A@@std@@@1@AB_N@Z PROC NEAR ; std::pair<std::_Tree<std::_Tset_traits<std::basic_string<char,std::char_traits<char>,std::allocator<char> >,std::less<std::basic_string<char,std::char_traits<char>,std::allocator<char> > >,std::allocator<std::basic_string<char,std::char_traits<char>,std::allocator<char> > >,0> >::iterator,bool>::pair<std::_Tree<std::_Tset_traits<std::basic_string<char,std::char_traits<char>,std::allocator<char> >,std::less<std::basic_string<char,std::char_traits<char>,std::allocator<char> > >,std::allocator<std::basic_string<char,std::char_traits<char>,std::allocator<char> > >,0> >::iterator,bool>, COMDAT
; _this$ = ecx

; 34   : 		{	// construct from specified values

  00000	8b c1		 mov	 eax, ecx
  00002	8b 4c 24 04	 mov	 ecx, DWORD PTR __Val1$[esp-4]
  00006	8b 11		 mov	 edx, DWORD PTR [ecx]
  00008	8b 4c 24 08	 mov	 ecx, DWORD PTR __Val2$[esp-4]
  0000c	89 10		 mov	 DWORD PTR [eax], edx
  0000e	8a 11		 mov	 dl, BYTE PTR [ecx]
  00010	88 50 04	 mov	 BYTE PTR [eax+4], dl

; 35   : 		}

  00013	c2 08 00	 ret	 8
??0?$pair@Viterator@?$_Tree@V?$_Tset_traits@V?$basic_string@DU?$char_traits@D@std@@V?$allocator@D@2@@std@@U?$less@V?$basic_string@DU?$char_traits@D@std@@V?$allocator@D@2@@std@@@2@V?$allocator@V?$basic_string@DU?$char_traits@D@std@@V?$allocator@D@2@@std@@@2@$0A@@std@@@std@@_N@std@@QAE@ABViterator@?$_Tree@V?$_Tset_traits@V?$basic_string@DU?$char_traits@D@std@@V?$allocator@D@2@@std@@U?$less@V?$basic_string@DU?$char_traits@D@std@@V?$allocator@D@2@@std@@@2@V?$allocator@V?$basic_string@DU?$char_traits@D@std@@V?$allocator@D@2@@std@@@2@$0A@@std@@@1@AB_N@Z ENDP ; std::pair<std::_Tree<std::_Tset_traits<std::basic_string<char,std::char_traits<char>,std::allocator<char> >,std::less<std::basic_string<char,std::char_traits<char>,std::allocator<char> > >,std::allocator<std::basic_string<char,std::char_traits<char>,std::allocator<char> > >,0> >::iterator,bool>::pair<std::_Tree<std::_Tset_traits<std::basic_string<char,std::char_traits<char>,std::allocator<char> >,std::less<std::basic_string<char,std::char_traits<char>,std::allocator<char> > >,std::allocator<std::basic_string<char,std::char_traits<char>,std::allocator<char> > >,0> >::iterator,bool>
_TEXT	ENDS
PUBLIC	??8const_iterator@?$_Tree@V?$_Tset_traits@V?$basic_string@DU?$char_traits@D@std@@V?$allocator@D@2@@std@@U?$less@V?$basic_string@DU?$char_traits@D@std@@V?$allocator@D@2@@std@@@2@V?$allocator@V?$basic_string@DU?$char_traits@D@std@@V?$allocator@D@2@@std@@@2@$0A@@std@@@std@@QBE_NABV012@@Z ; std::_Tree<std::_Tset_traits<std::basic_string<char,std::char_traits<char>,std::allocator<char> >,std::less<std::basic_string<char,std::char_traits<char>,std::allocator<char> > >,std::allocator<std::basic_string<char,std::char_traits<char>,std::allocator<char> > >,0> >::const_iterator::operator==
; Function compile flags: /Ogty
; File c:\program files\microsoft visual studio .net 2003\vc7\include\xtree
;	COMDAT ??8const_iterator@?$_Tree@V?$_Tset_traits@V?$basic_string@DU?$char_traits@D@std@@V?$allocator@D@2@@std@@U?$less@V?$basic_string@DU?$char_traits@D@std@@V?$allocator@D@2@@std@@@2@V?$allocator@V?$basic_string@DU?$char_traits@D@std@@V?$allocator@D@2@@std@@@2@$0A@@std@@@std@@QBE_NABV012@@Z
_TEXT	SEGMENT
__Right$ = 8						; size = 4
??8const_iterator@?$_Tree@V?$_Tset_traits@V?$basic_string@DU?$char_traits@D@std@@V?$allocator@D@2@@std@@U?$less@V?$basic_string@DU?$char_traits@D@std@@V?$allocator@D@2@@std@@@2@V?$allocator@V?$basic_string@DU?$char_traits@D@std@@V?$allocator@D@2@@std@@@2@$0A@@std@@@std@@QBE_NABV012@@Z PROC NEAR ; std::_Tree<std::_Tset_traits<std::basic_string<char,std::char_traits<char>,std::allocator<char> >,std::less<std::basic_string<char,std::char_traits<char>,std::allocator<char> > >,std::allocator<std::basic_string<char,std::char_traits<char>,std::allocator<char> > >,0> >::const_iterator::operator==, COMDAT
; _this$ = ecx

; 241  : 			return (_Ptr == _Right._Ptr);

  00000	8b 01		 mov	 eax, DWORD PTR [ecx]
  00002	8b 4c 24 04	 mov	 ecx, DWORD PTR __Right$[esp-4]
  00006	2b 01		 sub	 eax, DWORD PTR [ecx]
  00008	f7 d8		 neg	 eax
  0000a	1b c0		 sbb	 eax, eax
  0000c	40		 inc	 eax

; 242  : 			}

  0000d	c2 04 00	 ret	 4
??8const_iterator@?$_Tree@V?$_Tset_traits@V?$basic_string@DU?$char_traits@D@std@@V?$allocator@D@2@@std@@U?$less@V?$basic_string@DU?$char_traits@D@std@@V?$allocator@D@2@@std@@@2@V?$allocator@V?$basic_string@DU?$char_traits@D@std@@V?$allocator@D@2@@std@@@2@$0A@@std@@@std@@QBE_NABV012@@Z ENDP ; std::_Tree<std::_Tset_traits<std::basic_string<char,std::char_traits<char>,std::allocator<char> >,std::less<std::basic_string<char,std::char_traits<char>,std::allocator<char> > >,std::allocator<std::basic_string<char,std::char_traits<char>,std::allocator<char> > >,0> >::const_iterator::operator==
_TEXT	ENDS
PUBLIC	?_Mynode@const_iterator@?$_Tree@V?$_Tset_traits@V?$basic_string@DU?$char_traits@D@std@@V?$allocator@D@2@@std@@U?$less@V?$basic_string@DU?$char_traits@D@std@@V?$allocator@D@2@@std@@@2@V?$allocator@V?$basic_string@DU?$char_traits@D@std@@V?$allocator@D@2@@std@@@2@$0A@@std@@@std@@QBEPAU_Node@?$_Tree_nod@V?$_Tset_traits@V?$basic_string@DU?$char_traits@D@std@@V?$allocator@D@2@@std@@U?$less@V?$basic_string@DU?$char_traits@D@std@@V?$allocator@D@2@@std@@@2@V?$allocator@V?$basic_string@DU?$char_traits@D@std@@V?$allocator@D@2@@std@@@2@$0A@@std@@@3@XZ ; std::_Tree<std::_Tset_traits<std::basic_string<char,std::char_traits<char>,std::allocator<char> >,std::less<std::basic_string<char,std::char_traits<char>,std::allocator<char> > >,std::allocator<std::basic_string<char,std::char_traits<char>,std::allocator<char> > >,0> >::const_iterator::_Mynode
; Function compile flags: /Ogty
;	COMDAT ?_Mynode@const_iterator@?$_Tree@V?$_Tset_traits@V?$basic_string@DU?$char_traits@D@std@@V?$allocator@D@2@@std@@U?$less@V?$basic_string@DU?$char_traits@D@std@@V?$allocator@D@2@@std@@@2@V?$allocator@V?$basic_string@DU?$char_traits@D@std@@V?$allocator@D@2@@std@@@2@$0A@@std@@@std@@QBEPAU_Node@?$_Tree_nod@V?$_Tset_traits@V?$basic_string@DU?$char_traits@D@std@@V?$allocator@D@2@@std@@U?$less@V?$basic_string@DU?$char_traits@D@std@@V?$allocator@D@2@@std@@@2@V?$allocator@V?$basic_string@DU?$char_traits@D@std@@V?$allocator@D@2@@std@@@2@$0A@@std@@@3@XZ
_TEXT	SEGMENT
?_Mynode@const_iterator@?$_Tree@V?$_Tset_traits@V?$basic_string@DU?$char_traits@D@std@@V?$allocator@D@2@@std@@U?$less@V?$basic_string@DU?$char_traits@D@std@@V?$allocator@D@2@@std@@@2@V?$allocator@V?$basic_string@DU?$char_traits@D@std@@V?$allocator@D@2@@std@@@2@$0A@@std@@@std@@QBEPAU_Node@?$_Tree_nod@V?$_Tset_traits@V?$basic_string@DU?$char_traits@D@std@@V?$allocator@D@2@@std@@U?$less@V?$basic_string@DU?$char_traits@D@std@@V?$allocator@D@2@@std@@@2@V?$allocator@V?$basic_string@DU?$char_traits@D@std@@V?$allocator@D@2@@std@@@2@$0A@@std@@@3@XZ PROC NEAR ; std::_Tree<std::_Tset_traits<std::basic_string<char,std::char_traits<char>,std::allocator<char> >,std::less<std::basic_string<char,std::char_traits<char>,std::allocator<char> > >,std::allocator<std::basic_string<char,std::char_traits<char>,std::allocator<char> > >,0> >::const_iterator::_Mynode, COMDAT
; _this$ = ecx

; 284  : 			return (_Ptr);

  00000	8b 01		 mov	 eax, DWORD PTR [ecx]

; 285  : 			}

  00002	c3		 ret	 0
?_Mynode@const_iterator@?$_Tree@V?$_Tset_traits@V?$basic_string@DU?$char_traits@D@std@@V?$allocator@D@2@@std@@U?$less@V?$basic_string@DU?$char_traits@D@std@@V?$allocator@D@2@@std@@@2@V?$allocator@V?$basic_string@DU?$char_traits@D@std@@V?$allocator@D@2@@std@@@2@$0A@@std@@@std@@QBEPAU_Node@?$_Tree_nod@V?$_Tset_traits@V?$basic_string@DU?$char_traits@D@std@@V?$allocator@D@2@@std@@U?$less@V?$basic_string@DU?$char_traits@D@std@@V?$allocator@D@2@@std@@@2@V?$allocator@V?$basic_string@DU?$char_traits@D@std@@V?$allocator@D@2@@std@@@2@$0A@@std@@@3@XZ ENDP ; std::_Tree<std::_Tset_traits<std::basic_string<char,std::char_traits<char>,std::allocator<char> >,std::less<std::basic_string<char,std::char_traits<char>,std::allocator<char> > >,std::allocator<std::basic_string<char,std::char_traits<char>,std::allocator<char> > >,0> >::const_iterator::_Mynode
_TEXT	ENDS
PUBLIC	?StringCompare@?$ChTraitsCRT@D@ATL@@SAHPBD0@Z	; ATL::ChTraitsCRT<char>::StringCompare
EXTRN	__mbscmp:NEAR
; Function compile flags: /Ogty
; File c:\program files\microsoft visual studio .net 2003\vc7\atlmfc\include\cstringt.h
;	COMDAT ?StringCompare@?$ChTraitsCRT@D@ATL@@SAHPBD0@Z
_TEXT	SEGMENT
_pszA$ = 8						; size = 4
_pszB$ = 12						; size = 4
?StringCompare@?$ChTraitsCRT@D@ATL@@SAHPBD0@Z PROC NEAR	; ATL::ChTraitsCRT<char>::StringCompare, COMDAT

; 336  : 		return _mbscmp( reinterpret_cast< const unsigned char* >( pszA ), reinterpret_cast< const unsigned char* >( pszB ) );

  00000	e9 00 00 00 00	 jmp	 __mbscmp
?StringCompare@?$ChTraitsCRT@D@ATL@@SAHPBD0@Z ENDP	; ATL::ChTraitsCRT<char>::StringCompare
_TEXT	ENDS
PUBLIC	?_Isnil@?$_Tree@V?$_Tmap_traits@EHU?$less@E@std@@V?$allocator@U?$pair@$$CBEH@std@@@2@$0A@@std@@@std@@KAAADPAU_Node@?$_Tree_nod@V?$_Tmap_traits@EHU?$less@E@std@@V?$allocator@U?$pair@$$CBEH@std@@@2@$0A@@std@@@2@@Z ; std::_Tree<std::_Tmap_traits<unsigned char,int,std::less<unsigned char>,std::allocator<std::pair<unsigned char const ,int> >,0> >::_Isnil
; Function compile flags: /Ogty
; File c:\program files\microsoft visual studio .net 2003\vc7\include\xtree
;	COMDAT ?_Isnil@?$_Tree@V?$_Tmap_traits@EHU?$less@E@std@@V?$allocator@U?$pair@$$CBEH@std@@@2@$0A@@std@@@std@@KAAADPAU_Node@?$_Tree_nod@V?$_Tmap_traits@EHU?$less@E@std@@V?$allocator@U?$pair@$$CBEH@std@@@2@$0A@@std@@@2@@Z
_TEXT	SEGMENT
__Pnode$ = 8						; size = 4
?_Isnil@?$_Tree@V?$_Tmap_traits@EHU?$less@E@std@@V?$allocator@U?$pair@$$CBEH@std@@@2@$0A@@std@@@std@@KAAADPAU_Node@?$_Tree_nod@V?$_Tmap_traits@EHU?$less@E@std@@V?$allocator@U?$pair@$$CBEH@std@@@2@$0A@@std@@@2@@Z PROC NEAR ; std::_Tree<std::_Tmap_traits<unsigned char,int,std::less<unsigned char>,std::allocator<std::pair<unsigned char const ,int> >,0> >::_Isnil, COMDAT

; 137  : 		return ((_Charref)(*_Pnode)._Isnil);

  00000	8b 44 24 04	 mov	 eax, DWORD PTR __Pnode$[esp-4]
  00004	83 c0 15	 add	 eax, 21			; 00000015H

; 138  : 		}

  00007	c3		 ret	 0
?_Isnil@?$_Tree@V?$_Tmap_traits@EHU?$less@E@std@@V?$allocator@U?$pair@$$CBEH@std@@@2@$0A@@std@@@std@@KAAADPAU_Node@?$_Tree_nod@V?$_Tmap_traits@EHU?$less@E@std@@V?$allocator@U?$pair@$$CBEH@std@@@2@$0A@@std@@@2@@Z ENDP ; std::_Tree<std::_Tmap_traits<unsigned char,int,std::less<unsigned char>,std::allocator<std::pair<unsigned char const ,int> >,0> >::_Isnil
_TEXT	ENDS
PUBLIC	?_Left@?$_Tree@V?$_Tmap_traits@EHU?$less@E@std@@V?$allocator@U?$pair@$$CBEH@std@@@2@$0A@@std@@@std@@KAAAPAU_Node@?$_Tree_nod@V?$_Tmap_traits@EHU?$less@E@std@@V?$allocator@U?$pair@$$CBEH@std@@@2@$0A@@std@@@2@PAU342@@Z ; std::_Tree<std::_Tmap_traits<unsigned char,int,std::less<unsigned char>,std::allocator<std::pair<unsigned char const ,int> >,0> >::_Left
; Function compile flags: /Ogty
;	COMDAT ?_Left@?$_Tree@V?$_Tmap_traits@EHU?$less@E@std@@V?$allocator@U?$pair@$$CBEH@std@@@2@$0A@@std@@@std@@KAAAPAU_Node@?$_Tree_nod@V?$_Tmap_traits@EHU?$less@E@std@@V?$allocator@U?$pair@$$CBEH@std@@@2@$0A@@std@@@2@PAU342@@Z
_TEXT	SEGMENT
__Pnode$ = 8						; size = 4
?_Left@?$_Tree@V?$_Tmap_traits@EHU?$less@E@std@@V?$allocator@U?$pair@$$CBEH@std@@@2@$0A@@std@@@std@@KAAAPAU_Node@?$_Tree_nod@V?$_Tmap_traits@EHU?$less@E@std@@V?$allocator@U?$pair@$$CBEH@std@@@2@$0A@@std@@@2@PAU342@@Z PROC NEAR ; std::_Tree<std::_Tmap_traits<unsigned char,int,std::less<unsigned char>,std::allocator<std::pair<unsigned char const ,int> >,0> >::_Left, COMDAT

; 147  : 		return ((_Nodepref)(*_Pnode)._Left);

  00000	8b 44 24 04	 mov	 eax, DWORD PTR __Pnode$[esp-4]

; 148  : 		}

  00004	c3		 ret	 0
?_Left@?$_Tree@V?$_Tmap_traits@EHU?$less@E@std@@V?$allocator@U?$pair@$$CBEH@std@@@2@$0A@@std@@@std@@KAAAPAU_Node@?$_Tree_nod@V?$_Tmap_traits@EHU?$less@E@std@@V?$allocator@U?$pair@$$CBEH@std@@@2@$0A@@std@@@2@PAU342@@Z ENDP ; std::_Tree<std::_Tmap_traits<unsigned char,int,std::less<unsigned char>,std::allocator<std::pair<unsigned char const ,int> >,0> >::_Left
_TEXT	ENDS
PUBLIC	?_Parent@?$_Tree@V?$_Tmap_traits@EHU?$less@E@std@@V?$allocator@U?$pair@$$CBEH@std@@@2@$0A@@std@@@std@@KAAAPAU_Node@?$_Tree_nod@V?$_Tmap_traits@EHU?$less@E@std@@V?$allocator@U?$pair@$$CBEH@std@@@2@$0A@@std@@@2@PAU342@@Z ; std::_Tree<std::_Tmap_traits<unsigned char,int,std::less<unsigned char>,std::allocator<std::pair<unsigned char const ,int> >,0> >::_Parent
; Function compile flags: /Ogty
;	COMDAT ?_Parent@?$_Tree@V?$_Tmap_traits@EHU?$less@E@std@@V?$allocator@U?$pair@$$CBEH@std@@@2@$0A@@std@@@std@@KAAAPAU_Node@?$_Tree_nod@V?$_Tmap_traits@EHU?$less@E@std@@V?$allocator@U?$pair@$$CBEH@std@@@2@$0A@@std@@@2@PAU342@@Z
_TEXT	SEGMENT
__Pnode$ = 8						; size = 4
?_Parent@?$_Tree@V?$_Tmap_traits@EHU?$less@E@std@@V?$allocator@U?$pair@$$CBEH@std@@@2@$0A@@std@@@std@@KAAAPAU_Node@?$_Tree_nod@V?$_Tmap_traits@EHU?$less@E@std@@V?$allocator@U?$pair@$$CBEH@std@@@2@$0A@@std@@@2@PAU342@@Z PROC NEAR ; std::_Tree<std::_Tmap_traits<unsigned char,int,std::less<unsigned char>,std::allocator<std::pair<unsigned char const ,int> >,0> >::_Parent, COMDAT

; 152  : 		return ((_Nodepref)(*_Pnode)._Parent);

  00000	8b 44 24 04	 mov	 eax, DWORD PTR __Pnode$[esp-4]
  00004	83 c0 04	 add	 eax, 4

; 153  : 		}

  00007	c3		 ret	 0
?_Parent@?$_Tree@V?$_Tmap_traits@EHU?$less@E@std@@V?$allocator@U?$pair@$$CBEH@std@@@2@$0A@@std@@@std@@KAAAPAU_Node@?$_Tree_nod@V?$_Tmap_traits@EHU?$less@E@std@@V?$allocator@U?$pair@$$CBEH@std@@@2@$0A@@std@@@2@PAU342@@Z ENDP ; std::_Tree<std::_Tmap_traits<unsigned char,int,std::less<unsigned char>,std::allocator<std::pair<unsigned char const ,int> >,0> >::_Parent
_TEXT	ENDS
PUBLIC	?_Right@?$_Tree@V?$_Tmap_traits@EHU?$less@E@std@@V?$allocator@U?$pair@$$CBEH@std@@@2@$0A@@std@@@std@@KAAAPAU_Node@?$_Tree_nod@V?$_Tmap_traits@EHU?$less@E@std@@V?$allocator@U?$pair@$$CBEH@std@@@2@$0A@@std@@@2@PAU342@@Z ; std::_Tree<std::_Tmap_traits<unsigned char,int,std::less<unsigned char>,std::allocator<std::pair<unsigned char const ,int> >,0> >::_Right
; Function compile flags: /Ogty
;	COMDAT ?_Right@?$_Tree@V?$_Tmap_traits@EHU?$less@E@std@@V?$allocator@U?$pair@$$CBEH@std@@@2@$0A@@std@@@std@@KAAAPAU_Node@?$_Tree_nod@V?$_Tmap_traits@EHU?$less@E@std@@V?$allocator@U?$pair@$$CBEH@std@@@2@$0A@@std@@@2@PAU342@@Z
_TEXT	SEGMENT
__Pnode$ = 8						; size = 4
?_Right@?$_Tree@V?$_Tmap_traits@EHU?$less@E@std@@V?$allocator@U?$pair@$$CBEH@std@@@2@$0A@@std@@@std@@KAAAPAU_Node@?$_Tree_nod@V?$_Tmap_traits@EHU?$less@E@std@@V?$allocator@U?$pair@$$CBEH@std@@@2@$0A@@std@@@2@PAU342@@Z PROC NEAR ; std::_Tree<std::_Tmap_traits<unsigned char,int,std::less<unsigned char>,std::allocator<std::pair<unsigned char const ,int> >,0> >::_Right, COMDAT

; 157  : 		return ((_Nodepref)(*_Pnode)._Right);

  00000	8b 44 24 04	 mov	 eax, DWORD PTR __Pnode$[esp-4]
  00004	83 c0 08	 add	 eax, 8

; 158  : 		}

  00007	c3		 ret	 0
?_Right@?$_Tree@V?$_Tmap_traits@EHU?$less@E@std@@V?$allocator@U?$pair@$$CBEH@std@@@2@$0A@@std@@@std@@KAAAPAU_Node@?$_Tree_nod@V?$_Tmap_traits@EHU?$less@E@std@@V?$allocator@U?$pair@$$CBEH@std@@@2@$0A@@std@@@2@PAU342@@Z ENDP ; std::_Tree<std::_Tmap_traits<unsigned char,int,std::less<unsigned char>,std::allocator<std::pair<unsigned char const ,int> >,0> >::_Right
_TEXT	ENDS
PUBLIC	?size@?$_Tree@V?$_Tmap_traits@EHU?$less@E@std@@V?$allocator@U?$pair@$$CBEH@std@@@2@$0A@@std@@@std@@QBEIXZ ; std::_Tree<std::_Tmap_traits<unsigned char,int,std::less<unsigned char>,std::allocator<std::pair<unsigned char const ,int> >,0> >::size
; Function compile flags: /Ogty
;	COMDAT ?size@?$_Tree@V?$_Tmap_traits@EHU?$less@E@std@@V?$allocator@U?$pair@$$CBEH@std@@@2@$0A@@std@@@std@@QBEIXZ
_TEXT	SEGMENT
?size@?$_Tree@V?$_Tmap_traits@EHU?$less@E@std@@V?$allocator@U?$pair@$$CBEH@std@@@2@$0A@@std@@@std@@QBEIXZ PROC NEAR ; std::_Tree<std::_Tmap_traits<unsigned char,int,std::less<unsigned char>,std::allocator<std::pair<unsigned char const ,int> >,0> >::size, COMDAT
; _this$ = ecx

; 448  : 		return (_Mysize);

  00000	8b 41 08	 mov	 eax, DWORD PTR [ecx+8]

; 449  : 		}

  00003	c3		 ret	 0
?size@?$_Tree@V?$_Tmap_traits@EHU?$less@E@std@@V?$allocator@U?$pair@$$CBEH@std@@@2@$0A@@std@@@std@@QBEIXZ ENDP ; std::_Tree<std::_Tmap_traits<unsigned char,int,std::less<unsigned char>,std::allocator<std::pair<unsigned char const ,int> >,0> >::size
_TEXT	ENDS
PUBLIC	?_Lmost@?$_Tree@V?$_Tmap_traits@EHU?$less@E@std@@V?$allocator@U?$pair@$$CBEH@std@@@2@$0A@@std@@@std@@IAEAAPAU_Node@?$_Tree_nod@V?$_Tmap_traits@EHU?$less@E@std@@V?$allocator@U?$pair@$$CBEH@std@@@2@$0A@@std@@@2@XZ ; std::_Tree<std::_Tmap_traits<unsigned char,int,std::less<unsigned char>,std::allocator<std::pair<unsigned char const ,int> >,0> >::_Lmost
; Function compile flags: /Ogty
;	COMDAT ?_Lmost@?$_Tree@V?$_Tmap_traits@EHU?$less@E@std@@V?$allocator@U?$pair@$$CBEH@std@@@2@$0A@@std@@@std@@IAEAAPAU_Node@?$_Tree_nod@V?$_Tmap_traits@EHU?$less@E@std@@V?$allocator@U?$pair@$$CBEH@std@@@2@$0A@@std@@@2@XZ
_TEXT	SEGMENT
?_Lmost@?$_Tree@V?$_Tmap_traits@EHU?$less@E@std@@V?$allocator@U?$pair@$$CBEH@std@@@2@$0A@@std@@@std@@IAEAAPAU_Node@?$_Tree_nod@V?$_Tmap_traits@EHU?$less@E@std@@V?$allocator@U?$pair@$$CBEH@std@@@2@$0A@@std@@@2@XZ PROC NEAR ; std::_Tree<std::_Tmap_traits<unsigned char,int,std::less<unsigned char>,std::allocator<std::pair<unsigned char const ,int> >,0> >::_Lmost, COMDAT
; _this$ = ecx

; 1005 : 		return (_Left(_Myhead));

  00000	8b 41 04	 mov	 eax, DWORD PTR [ecx+4]

; 1006 : 		}

  00003	c3		 ret	 0
?_Lmost@?$_Tree@V?$_Tmap_traits@EHU?$less@E@std@@V?$allocator@U?$pair@$$CBEH@std@@@2@$0A@@std@@@std@@IAEAAPAU_Node@?$_Tree_nod@V?$_Tmap_traits@EHU?$less@E@std@@V?$allocator@U?$pair@$$CBEH@std@@@2@$0A@@std@@@2@XZ ENDP ; std::_Tree<std::_Tmap_traits<unsigned char,int,std::less<unsigned char>,std::allocator<std::pair<unsigned char const ,int> >,0> >::_Lmost
_TEXT	ENDS
PUBLIC	?_Max@?$_Tree@V?$_Tmap_traits@EHU?$less@E@std@@V?$allocator@U?$pair@$$CBEH@std@@@2@$0A@@std@@@std@@KAPAU_Node@?$_Tree_nod@V?$_Tmap_traits@EHU?$less@E@std@@V?$allocator@U?$pair@$$CBEH@std@@@2@$0A@@std@@@2@PAU342@@Z ; std::_Tree<std::_Tmap_traits<unsigned char,int,std::less<unsigned char>,std::allocator<std::pair<unsigned char const ,int> >,0> >::_Max
; Function compile flags: /Ogty
;	COMDAT ?_Max@?$_Tree@V?$_Tmap_traits@EHU?$less@E@std@@V?$allocator@U?$pair@$$CBEH@std@@@2@$0A@@std@@@std@@KAPAU_Node@?$_Tree_nod@V?$_Tmap_traits@EHU?$less@E@std@@V?$allocator@U?$pair@$$CBEH@std@@@2@$0A@@std@@@2@PAU342@@Z
_TEXT	SEGMENT
__Pnode$ = 8						; size = 4
?_Max@?$_Tree@V?$_Tmap_traits@EHU?$less@E@std@@V?$allocator@U?$pair@$$CBEH@std@@@2@$0A@@std@@@std@@KAPAU_Node@?$_Tree_nod@V?$_Tmap_traits@EHU?$less@E@std@@V?$allocator@U?$pair@$$CBEH@std@@@2@$0A@@std@@@2@PAU342@@Z PROC NEAR ; std::_Tree<std::_Tmap_traits<unsigned char,int,std::less<unsigned char>,std::allocator<std::pair<unsigned char const ,int> >,0> >::_Max, COMDAT

; 1035 : 		while (!_Isnil(_Right(_Pnode)))

  00000	8b 44 24 04	 mov	 eax, DWORD PTR __Pnode$[esp-4]
  00004	8b 48 08	 mov	 ecx, DWORD PTR [eax+8]
  00007	8a 51 15	 mov	 dl, BYTE PTR [ecx+21]
  0000a	84 d2		 test	 dl, dl
  0000c	75 0e		 jne	 SHORT $L214692
  0000e	8b ff		 npad	 2
$L214691:

; 1036 : 			_Pnode = _Right(_Pnode);

  00010	8b c1		 mov	 eax, ecx
  00012	8b 48 08	 mov	 ecx, DWORD PTR [eax+8]
  00015	8a 51 15	 mov	 dl, BYTE PTR [ecx+21]
  00018	84 d2		 test	 dl, dl
  0001a	74 f4		 je	 SHORT $L214691
$L214692:

; 1037 : 		return (_Pnode);
; 1038 : 		}

  0001c	c3		 ret	 0
?_Max@?$_Tree@V?$_Tmap_traits@EHU?$less@E@std@@V?$allocator@U?$pair@$$CBEH@std@@@2@$0A@@std@@@std@@KAPAU_Node@?$_Tree_nod@V?$_Tmap_traits@EHU?$less@E@std@@V?$allocator@U?$pair@$$CBEH@std@@@2@$0A@@std@@@2@PAU342@@Z ENDP ; std::_Tree<std::_Tmap_traits<unsigned char,int,std::less<unsigned char>,std::allocator<std::pair<unsigned char const ,int> >,0> >::_Max
_TEXT	ENDS
PUBLIC	?_Min@?$_Tree@V?$_Tmap_traits@EHU?$less@E@std@@V?$allocator@U?$pair@$$CBEH@std@@@2@$0A@@std@@@std@@KAPAU_Node@?$_Tree_nod@V?$_Tmap_traits@EHU?$less@E@std@@V?$allocator@U?$pair@$$CBEH@std@@@2@$0A@@std@@@2@PAU342@@Z ; std::_Tree<std::_Tmap_traits<unsigned char,int,std::less<unsigned char>,std::allocator<std::pair<unsigned char const ,int> >,0> >::_Min
; Function compile flags: /Ogty
;	COMDAT ?_Min@?$_Tree@V?$_Tmap_traits@EHU?$less@E@std@@V?$allocator@U?$pair@$$CBEH@std@@@2@$0A@@std@@@std@@KAPAU_Node@?$_Tree_nod@V?$_Tmap_traits@EHU?$less@E@std@@V?$allocator@U?$pair@$$CBEH@std@@@2@$0A@@std@@@2@PAU342@@Z
_TEXT	SEGMENT
__Pnode$ = 8						; size = 4
?_Min@?$_Tree@V?$_Tmap_traits@EHU?$less@E@std@@V?$allocator@U?$pair@$$CBEH@std@@@2@$0A@@std@@@std@@KAPAU_Node@?$_Tree_nod@V?$_Tmap_traits@EHU?$less@E@std@@V?$allocator@U?$pair@$$CBEH@std@@@2@$0A@@std@@@2@PAU342@@Z PROC NEAR ; std::_Tree<std::_Tmap_traits<unsigned char,int,std::less<unsigned char>,std::allocator<std::pair<unsigned char const ,int> >,0> >::_Min, COMDAT

; 1042 : 		while (!_Isnil(_Left(_Pnode)))

  00000	8b 44 24 04	 mov	 eax, DWORD PTR __Pnode$[esp-4]
  00004	8b 08		 mov	 ecx, DWORD PTR [eax]
  00006	8a 51 15	 mov	 dl, BYTE PTR [ecx+21]
  00009	84 d2		 test	 dl, dl
  0000b	75 0e		 jne	 SHORT $L214696
  0000d	8d 49 00	 npad	 3
$L214695:

; 1043 : 			_Pnode = _Left(_Pnode);

  00010	8b c1		 mov	 eax, ecx
  00012	8b 08		 mov	 ecx, DWORD PTR [eax]
  00014	8a 51 15	 mov	 dl, BYTE PTR [ecx+21]
  00017	84 d2		 test	 dl, dl
  00019	74 f5		 je	 SHORT $L214695
$L214696:

; 1044 : 		return (_Pnode);
; 1045 : 		}

  0001b	c3		 ret	 0
?_Min@?$_Tree@V?$_Tmap_traits@EHU?$less@E@std@@V?$allocator@U?$pair@$$CBEH@std@@@2@$0A@@std@@@std@@KAPAU_Node@?$_Tree_nod@V?$_Tmap_traits@EHU?$less@E@std@@V?$allocator@U?$pair@$$CBEH@std@@@2@$0A@@std@@@2@PAU342@@Z ENDP ; std::_Tree<std::_Tmap_traits<unsigned char,int,std::less<unsigned char>,std::allocator<std::pair<unsigned char const ,int> >,0> >::_Min
_TEXT	ENDS
PUBLIC	?_Rmost@?$_Tree@V?$_Tmap_traits@EHU?$less@E@std@@V?$allocator@U?$pair@$$CBEH@std@@@2@$0A@@std@@@std@@IAEAAPAU_Node@?$_Tree_nod@V?$_Tmap_traits@EHU?$less@E@std@@V?$allocator@U?$pair@$$CBEH@std@@@2@$0A@@std@@@2@XZ ; std::_Tree<std::_Tmap_traits<unsigned char,int,std::less<unsigned char>,std::allocator<std::pair<unsigned char const ,int> >,0> >::_Rmost
; Function compile flags: /Ogty
;	COMDAT ?_Rmost@?$_Tree@V?$_Tmap_traits@EHU?$less@E@std@@V?$allocator@U?$pair@$$CBEH@std@@@2@$0A@@std@@@std@@IAEAAPAU_Node@?$_Tree_nod@V?$_Tmap_traits@EHU?$less@E@std@@V?$allocator@U?$pair@$$CBEH@std@@@2@$0A@@std@@@2@XZ
_TEXT	SEGMENT
?_Rmost@?$_Tree@V?$_Tmap_traits@EHU?$less@E@std@@V?$allocator@U?$pair@$$CBEH@std@@@2@$0A@@std@@@std@@IAEAAPAU_Node@?$_Tree_nod@V?$_Tmap_traits@EHU?$less@E@std@@V?$allocator@U?$pair@$$CBEH@std@@@2@$0A@@std@@@2@XZ PROC NEAR ; std::_Tree<std::_Tmap_traits<unsigned char,int,std::less<unsigned char>,std::allocator<std::pair<unsigned char const ,int> >,0> >::_Rmost, COMDAT
; _this$ = ecx

; 1049 : 		return (_Right(_Myhead));

  00000	8b 41 04	 mov	 eax, DWORD PTR [ecx+4]
  00003	83 c0 08	 add	 eax, 8

; 1050 : 		}

  00006	c3		 ret	 0
?_Rmost@?$_Tree@V?$_Tmap_traits@EHU?$less@E@std@@V?$allocator@U?$pair@$$CBEH@std@@@2@$0A@@std@@@std@@IAEAAPAU_Node@?$_Tree_nod@V?$_Tmap_traits@EHU?$less@E@std@@V?$allocator@U?$pair@$$CBEH@std@@@2@$0A@@std@@@2@XZ ENDP ; std::_Tree<std::_Tmap_traits<unsigned char,int,std::less<unsigned char>,std::allocator<std::pair<unsigned char const ,int> >,0> >::_Rmost
_TEXT	ENDS
PUBLIC	?_Root@?$_Tree@V?$_Tmap_traits@EHU?$less@E@std@@V?$allocator@U?$pair@$$CBEH@std@@@2@$0A@@std@@@std@@IAEAAPAU_Node@?$_Tree_nod@V?$_Tmap_traits@EHU?$less@E@std@@V?$allocator@U?$pair@$$CBEH@std@@@2@$0A@@std@@@2@XZ ; std::_Tree<std::_Tmap_traits<unsigned char,int,std::less<unsigned char>,std::allocator<std::pair<unsigned char const ,int> >,0> >::_Root
; Function compile flags: /Ogty
;	COMDAT ?_Root@?$_Tree@V?$_Tmap_traits@EHU?$less@E@std@@V?$allocator@U?$pair@$$CBEH@std@@@2@$0A@@std@@@std@@IAEAAPAU_Node@?$_Tree_nod@V?$_Tmap_traits@EHU?$less@E@std@@V?$allocator@U?$pair@$$CBEH@std@@@2@$0A@@std@@@2@XZ
_TEXT	SEGMENT
?_Root@?$_Tree@V?$_Tmap_traits@EHU?$less@E@std@@V?$allocator@U?$pair@$$CBEH@std@@@2@$0A@@std@@@std@@IAEAAPAU_Node@?$_Tree_nod@V?$_Tmap_traits@EHU?$less@E@std@@V?$allocator@U?$pair@$$CBEH@std@@@2@$0A@@std@@@2@XZ PROC NEAR ; std::_Tree<std::_Tmap_traits<unsigned char,int,std::less<unsigned char>,std::allocator<std::pair<unsigned char const ,int> >,0> >::_Root, COMDAT
; _this$ = ecx

; 1059 : 		return (_Parent(_Myhead));

  00000	8b 41 04	 mov	 eax, DWORD PTR [ecx+4]
  00003	83 c0 04	 add	 eax, 4

; 1060 : 		}

  00006	c3		 ret	 0
?_Root@?$_Tree@V?$_Tmap_traits@EHU?$less@E@std@@V?$allocator@U?$pair@$$CBEH@std@@@2@$0A@@std@@@std@@IAEAAPAU_Node@?$_Tree_nod@V?$_Tmap_traits@EHU?$less@E@std@@V?$allocator@U?$pair@$$CBEH@std@@@2@$0A@@std@@@2@XZ ENDP ; std::_Tree<std::_Tmap_traits<unsigned char,int,std::less<unsigned char>,std::allocator<std::pair<unsigned char const ,int> >,0> >::_Root
_TEXT	ENDS
PUBLIC	?_Root@?$_Tree@V?$_Tmap_traits@EHU?$less@E@std@@V?$allocator@U?$pair@$$CBEH@std@@@2@$0A@@std@@@std@@IBEAAPAU_Node@?$_Tree_nod@V?$_Tmap_traits@EHU?$less@E@std@@V?$allocator@U?$pair@$$CBEH@std@@@2@$0A@@std@@@2@XZ ; std::_Tree<std::_Tmap_traits<unsigned char,int,std::less<unsigned char>,std::allocator<std::pair<unsigned char const ,int> >,0> >::_Root
; Function compile flags: /Ogty
;	COMDAT ?_Root@?$_Tree@V?$_Tmap_traits@EHU?$less@E@std@@V?$allocator@U?$pair@$$CBEH@std@@@2@$0A@@std@@@std@@IBEAAPAU_Node@?$_Tree_nod@V?$_Tmap_traits@EHU?$less@E@std@@V?$allocator@U?$pair@$$CBEH@std@@@2@$0A@@std@@@2@XZ
_TEXT	SEGMENT
?_Root@?$_Tree@V?$_Tmap_traits@EHU?$less@E@std@@V?$allocator@U?$pair@$$CBEH@std@@@2@$0A@@std@@@std@@IBEAAPAU_Node@?$_Tree_nod@V?$_Tmap_traits@EHU?$less@E@std@@V?$allocator@U?$pair@$$CBEH@std@@@2@$0A@@std@@@2@XZ PROC NEAR ; std::_Tree<std::_Tmap_traits<unsigned char,int,std::less<unsigned char>,std::allocator<std::pair<unsigned char const ,int> >,0> >::_Root, COMDAT
; _this$ = ecx

; 1064 : 		return (_Parent(_Myhead));

  00000	8b 41 04	 mov	 eax, DWORD PTR [ecx+4]
  00003	83 c0 04	 add	 eax, 4

; 1065 : 		}

  00006	c3		 ret	 0
?_Root@?$_Tree@V?$_Tmap_traits@EHU?$less@E@std@@V?$allocator@U?$pair@$$CBEH@std@@@2@$0A@@std@@@std@@IBEAAPAU_Node@?$_Tree_nod@V?$_Tmap_traits@EHU?$less@E@std@@V?$allocator@U?$pair@$$CBEH@std@@@2@$0A@@std@@@2@XZ ENDP ; std::_Tree<std::_Tmap_traits<unsigned char,int,std::less<unsigned char>,std::allocator<std::pair<unsigned char const ,int> >,0> >::_Root
_TEXT	ENDS
PUBLIC	??0?$allocator@U?$pair@$$CBEH@std@@@std@@QAE@ABV01@@Z ; std::allocator<std::pair<unsigned char const ,int> >::allocator<std::pair<unsigned char const ,int> >
; Function compile flags: /Ogty
; File c:\program files\microsoft visual studio .net 2003\vc7\include\xmemory
;	COMDAT ??0?$allocator@U?$pair@$$CBEH@std@@@std@@QAE@ABV01@@Z
_TEXT	SEGMENT
___formal$ = 8						; size = 4
??0?$allocator@U?$pair@$$CBEH@std@@@std@@QAE@ABV01@@Z PROC NEAR ; std::allocator<std::pair<unsigned char const ,int> >::allocator<std::pair<unsigned char const ,int> >, COMDAT
; _this$ = ecx

; 115  : 	allocator(const allocator<_Ty>&)

  00000	8b c1		 mov	 eax, ecx

; 116  : 		{	// construct by copying (do nothing)
; 117  : 		}

  00002	c2 04 00	 ret	 4
??0?$allocator@U?$pair@$$CBEH@std@@@std@@QAE@ABV01@@Z ENDP ; std::allocator<std::pair<unsigned char const ,int> >::allocator<std::pair<unsigned char const ,int> >
_TEXT	ENDS
PUBLIC	?deallocate@?$allocator@U_Node@?$_Tree_nod@V?$_Tmap_traits@EHU?$less@E@std@@V?$allocator@U?$pair@$$CBEH@std@@@2@$0A@@std@@@std@@@std@@QAEXPAU_Node@?$_Tree_nod@V?$_Tmap_traits@EHU?$less@E@std@@V?$allocator@U?$pair@$$CBEH@std@@@2@$0A@@std@@@2@I@Z ; std::allocator<std::_Tree_nod<std::_Tmap_traits<unsigned char,int,std::less<unsigned char>,std::allocator<std::pair<unsigned char const ,int> >,0> >::_Node>::deallocate
EXTRN	??3@YAXPAX@Z:NEAR				; operator delete
; Function compile flags: /Ogty
;	COMDAT ?deallocate@?$allocator@U_Node@?$_Tree_nod@V?$_Tmap_traits@EHU?$less@E@std@@V?$allocator@U?$pair@$$CBEH@std@@@2@$0A@@std@@@std@@@std@@QAEXPAU_Node@?$_Tree_nod@V?$_Tmap_traits@EHU?$less@E@std@@V?$allocator@U?$pair@$$CBEH@std@@@2@$0A@@std@@@2@I@Z
_TEXT	SEGMENT
__Ptr$ = 8						; size = 4
___formal$ = 12						; size = 4
?deallocate@?$allocator@U_Node@?$_Tree_nod@V?$_Tmap_traits@EHU?$less@E@std@@V?$allocator@U?$pair@$$CBEH@std@@@2@$0A@@std@@@std@@@std@@QAEXPAU_Node@?$_Tree_nod@V?$_Tmap_traits@EHU?$less@E@std@@V?$allocator@U?$pair@$$CBEH@std@@@2@$0A@@std@@@2@I@Z PROC NEAR ; std::allocator<std::_Tree_nod<std::_Tmap_traits<unsigned char,int,std::less<unsigned char>,std::allocator<std::pair<unsigned char const ,int> >,0> >::_Node>::deallocate, COMDAT
; _this$ = ecx

; 132  : 		operator delete(_Ptr);

  00000	8b 44 24 04	 mov	 eax, DWORD PTR __Ptr$[esp-4]
  00004	50		 push	 eax
  00005	e8 00 00 00 00	 call	 ??3@YAXPAX@Z		; operator delete
  0000a	59		 pop	 ecx

; 133  : 		}

  0000b	c2 08 00	 ret	 8
?deallocate@?$allocator@U_Node@?$_Tree_nod@V?$_Tmap_traits@EHU?$less@E@std@@V?$allocator@U?$pair@$$CBEH@std@@@2@$0A@@std@@@std@@@std@@QAEXPAU_Node@?$_Tree_nod@V?$_Tmap_traits@EHU?$less@E@std@@V?$allocator@U?$pair@$$CBEH@std@@@2@$0A@@std@@@2@I@Z ENDP ; std::allocator<std::_Tree_nod<std::_Tmap_traits<unsigned char,int,std::less<unsigned char>,std::allocator<std::pair<unsigned char const ,int> >,0> >::_Node>::deallocate
_TEXT	ENDS
PUBLIC	?_Color@?$_Tree@V?$_Tset_traits@V?$basic_string@DU?$char_traits@D@std@@V?$allocator@D@2@@std@@U?$less@V?$basic_string@DU?$char_traits@D@std@@V?$allocator@D@2@@std@@@2@V?$allocator@V?$basic_string@DU?$char_traits@D@std@@V?$allocator@D@2@@std@@@2@$0A@@std@@@std@@KAAADPAU_Node@?$_Tree_nod@V?$_Tset_traits@V?$basic_string@DU?$char_traits@D@std@@V?$allocator@D@2@@std@@U?$less@V?$basic_string@DU?$char_traits@D@std@@V?$allocator@D@2@@std@@@2@V?$allocator@V?$basic_string@DU?$char_traits@D@std@@V?$allocator@D@2@@std@@@2@$0A@@std@@@2@@Z ; std::_Tree<std::_Tset_traits<std::basic_string<char,std::char_traits<char>,std::allocator<char> >,std::less<std::basic_string<char,std::char_traits<char>,std::allocator<char> > >,std::allocator<std::basic_string<char,std::char_traits<char>,std::allocator<char> > >,0> >::_Color
; Function compile flags: /Ogty
; File c:\program files\microsoft visual studio .net 2003\vc7\include\xtree
;	COMDAT ?_Color@?$_Tree@V?$_Tset_traits@V?$basic_string@DU?$char_traits@D@std@@V?$allocator@D@2@@std@@U?$less@V?$basic_string@DU?$char_traits@D@std@@V?$allocator@D@2@@std@@@2@V?$allocator@V?$basic_string@DU?$char_traits@D@std@@V?$allocator@D@2@@std@@@2@$0A@@std@@@std@@KAAADPAU_Node@?$_Tree_nod@V?$_Tset_traits@V?$basic_string@DU?$char_traits@D@std@@V?$allocator@D@2@@std@@U?$less@V?$basic_string@DU?$char_traits@D@std@@V?$allocator@D@2@@std@@@2@V?$allocator@V?$basic_string@DU?$char_traits@D@std@@V?$allocator@D@2@@std@@@2@$0A@@std@@@2@@Z
_TEXT	SEGMENT
__Pnode$ = 8						; size = 4
?_Color@?$_Tree@V?$_Tset_traits@V?$basic_string@DU?$char_traits@D@std@@V?$allocator@D@2@@std@@U?$less@V?$basic_string@DU?$char_traits@D@std@@V?$allocator@D@2@@std@@@2@V?$allocator@V?$basic_string@DU?$char_traits@D@std@@V?$allocator@D@2@@std@@@2@$0A@@std@@@std@@KAAADPAU_Node@?$_Tree_nod@V?$_Tset_traits@V?$basic_string@DU?$char_traits@D@std@@V?$allocator@D@2@@std@@U?$less@V?$basic_string@DU?$char_traits@D@std@@V?$allocator@D@2@@std@@@2@V?$allocator@V?$basic_string@DU?$char_traits@D@std@@V?$allocator@D@2@@std@@@2@$0A@@std@@@2@@Z PROC NEAR ; std::_Tree<std::_Tset_traits<std::basic_string<char,std::char_traits<char>,std::allocator<char> >,std::less<std::basic_string<char,std::char_traits<char>,std::allocator<char> > >,std::allocator<std::basic_string<char,std::char_traits<char>,std::allocator<char> > >,0> >::_Color, COMDAT

; 132  : 		return ((_Charref)(*_Pnode)._Color);

  00000	8b 44 24 04	 mov	 eax, DWORD PTR __Pnode$[esp-4]
  00004	83 c0 28	 add	 eax, 40			; 00000028H

; 133  : 		}

  00007	c3		 ret	 0
?_Color@?$_Tree@V?$_Tset_traits@V?$basic_string@DU?$char_traits@D@std@@V?$allocator@D@2@@std@@U?$less@V?$basic_string@DU?$char_traits@D@std@@V?$allocator@D@2@@std@@@2@V?$allocator@V?$basic_string@DU?$char_traits@D@std@@V?$allocator@D@2@@std@@@2@$0A@@std@@@std@@KAAADPAU_Node@?$_Tree_nod@V?$_Tset_traits@V?$basic_string@DU?$char_traits@D@std@@V?$allocator@D@2@@std@@U?$less@V?$basic_string@DU?$char_traits@D@std@@V?$allocator@D@2@@std@@@2@V?$allocator@V?$basic_string@DU?$char_traits@D@std@@V?$allocator@D@2@@std@@@2@$0A@@std@@@2@@Z ENDP ; std::_Tree<std::_Tset_traits<std::basic_string<char,std::char_traits<char>,std::allocator<char> >,std::less<std::basic_string<char,std::char_traits<char>,std::allocator<char> > >,std::allocator<std::basic_string<char,std::char_traits<char>,std::allocator<char> > >,0> >::_Color
_TEXT	ENDS
PUBLIC	?_Parent@?$_Tree@V?$_Tset_traits@V?$basic_string@DU?$char_traits@D@std@@V?$allocator@D@2@@std@@U?$less@V?$basic_string@DU?$char_traits@D@std@@V?$allocator@D@2@@std@@@2@V?$allocator@V?$basic_string@DU?$char_traits@D@std@@V?$allocator@D@2@@std@@@2@$0A@@std@@@std@@KAAAPAU_Node@?$_Tree_nod@V?$_Tset_traits@V?$basic_string@DU?$char_traits@D@std@@V?$allocator@D@2@@std@@U?$less@V?$basic_string@DU?$char_traits@D@std@@V?$allocator@D@2@@std@@@2@V?$allocator@V?$basic_string@DU?$char_traits@D@std@@V?$allocator@D@2@@std@@@2@$0A@@std@@@2@PAU342@@Z ; std::_Tree<std::_Tset_traits<std::basic_string<char,std::char_traits<char>,std::allocator<char> >,std::less<std::basic_string<char,std::char_traits<char>,std::allocator<char> > >,std::allocator<std::basic_string<char,std::char_traits<char>,std::allocator<char> > >,0> >::_Parent
; Function compile flags: /Ogty
;	COMDAT ?_Parent@?$_Tree@V?$_Tset_traits@V?$basic_string@DU?$char_traits@D@std@@V?$allocator@D@2@@std@@U?$less@V?$basic_string@DU?$char_traits@D@std@@V?$allocator@D@2@@std@@@2@V?$allocator@V?$basic_string@DU?$char_traits@D@std@@V?$allocator@D@2@@std@@@2@$0A@@std@@@std@@KAAAPAU_Node@?$_Tree_nod@V?$_Tset_traits@V?$basic_string@DU?$char_traits@D@std@@V?$allocator@D@2@@std@@U?$less@V?$basic_string@DU?$char_traits@D@std@@V?$allocator@D@2@@std@@@2@V?$allocator@V?$basic_string@DU?$char_traits@D@std@@V?$allocator@D@2@@std@@@2@$0A@@std@@@2@PAU342@@Z
_TEXT	SEGMENT
__Pnode$ = 8						; size = 4
?_Parent@?$_Tree@V?$_Tset_traits@V?$basic_string@DU?$char_traits@D@std@@V?$allocator@D@2@@std@@U?$less@V?$basic_string@DU?$char_traits@D@std@@V?$allocator@D@2@@std@@@2@V?$allocator@V?$basic_string@DU?$char_traits@D@std@@V?$allocator@D@2@@std@@@2@$0A@@std@@@std@@KAAAPAU_Node@?$_Tree_nod@V?$_Tset_traits@V?$basic_string@DU?$char_traits@D@std@@V?$allocator@D@2@@std@@U?$less@V?$basic_string@DU?$char_traits@D@std@@V?$allocator@D@2@@std@@@2@V?$allocator@V?$basic_string@DU?$char_traits@D@std@@V?$allocator@D@2@@std@@@2@$0A@@std@@@2@PAU342@@Z PROC NEAR ; std::_Tree<std::_Tset_traits<std::basic_string<char,std::char_traits<char>,std::allocator<char> >,std::less<std::basic_string<char,std::char_traits<char>,std::allocator<char> > >,std::allocator<std::basic_string<char,std::char_traits<char>,std::allocator<char> > >,0> >::_Parent, COMDAT

; 152  : 		return ((_Nodepref)(*_Pnode)._Parent);

  00000	8b 44 24 04	 mov	 eax, DWORD PTR __Pnode$[esp-4]
  00004	83 c0 04	 add	 eax, 4

; 153  : 		}

  00007	c3		 ret	 0
?_Parent@?$_Tree@V?$_Tset_traits@V?$basic_string@DU?$char_traits@D@std@@V?$allocator@D@2@@std@@U?$less@V?$basic_string@DU?$char_traits@D@std@@V?$allocator@D@2@@std@@@2@V?$allocator@V?$basic_string@DU?$char_traits@D@std@@V?$allocator@D@2@@std@@@2@$0A@@std@@@std@@KAAAPAU_Node@?$_Tree_nod@V?$_Tset_traits@V?$basic_string@DU?$char_traits@D@std@@V?$allocator@D@2@@std@@U?$less@V?$basic_string@DU?$char_traits@D@std@@V?$allocator@D@2@@std@@@2@V?$allocator@V?$basic_string@DU?$char_traits@D@std@@V?$allocator@D@2@@std@@@2@$0A@@std@@@2@PAU342@@Z ENDP ; std::_Tree<std::_Tset_traits<std::basic_string<char,std::char_traits<char>,std::allocator<char> >,std::less<std::basic_string<char,std::char_traits<char>,std::allocator<char> > >,std::allocator<std::basic_string<char,std::char_traits<char>,std::allocator<char> > >,0> >::_Parent
_TEXT	ENDS
PUBLIC	?_Myval@?$_Tree@V?$_Tset_traits@V?$basic_string@DU?$char_traits@D@std@@V?$allocator@D@2@@std@@U?$less@V?$basic_string@DU?$char_traits@D@std@@V?$allocator@D@2@@std@@@2@V?$allocator@V?$basic_string@DU?$char_traits@D@std@@V?$allocator@D@2@@std@@@2@$0A@@std@@@std@@KAAAV?$basic_string@DU?$char_traits@D@std@@V?$allocator@D@2@@2@PAU_Node@?$_Tree_nod@V?$_Tset_traits@V?$basic_string@DU?$char_traits@D@std@@V?$allocator@D@2@@std@@U?$less@V?$basic_string@DU?$char_traits@D@std@@V?$allocator@D@2@@std@@@2@V?$allocator@V?$basic_string@DU?$char_traits@D@std@@V?$allocator@D@2@@std@@@2@$0A@@std@@@2@@Z ; std::_Tree<std::_Tset_traits<std::basic_string<char,std::char_traits<char>,std::allocator<char> >,std::less<std::basic_string<char,std::char_traits<char>,std::allocator<char> > >,std::allocator<std::basic_string<char,std::char_traits<char>,std::allocator<char> > >,0> >::_Myval
; Function compile flags: /Ogty
;	COMDAT ?_Myval@?$_Tree@V?$_Tset_traits@V?$basic_string@DU?$char_traits@D@std@@V?$allocator@D@2@@std@@U?$less@V?$basic_string@DU?$char_traits@D@std@@V?$allocator@D@2@@std@@@2@V?$allocator@V?$basic_string@DU?$char_traits@D@std@@V?$allocator@D@2@@std@@@2@$0A@@std@@@std@@KAAAV?$basic_string@DU?$char_traits@D@std@@V?$allocator@D@2@@2@PAU_Node@?$_Tree_nod@V?$_Tset_traits@V?$basic_string@DU?$char_traits@D@std@@V?$allocator@D@2@@std@@U?$less@V?$basic_string@DU?$char_traits@D@std@@V?$allocator@D@2@@std@@@2@V?$allocator@V?$basic_string@DU?$char_traits@D@std@@V?$allocator@D@2@@std@@@2@$0A@@std@@@2@@Z
_TEXT	SEGMENT
__Pnode$ = 8						; size = 4
?_Myval@?$_Tree@V?$_Tset_traits@V?$basic_string@DU?$char_traits@D@std@@V?$allocator@D@2@@std@@U?$less@V?$basic_string@DU?$char_traits@D@std@@V?$allocator@D@2@@std@@@2@V?$allocator@V?$basic_string@DU?$char_traits@D@std@@V?$allocator@D@2@@std@@@2@$0A@@std@@@std@@KAAAV?$basic_string@DU?$char_traits@D@std@@V?$allocator@D@2@@2@PAU_Node@?$_Tree_nod@V?$_Tset_traits@V?$basic_string@DU?$char_traits@D@std@@V?$allocator@D@2@@std@@U?$less@V?$basic_string@DU?$char_traits@D@std@@V?$allocator@D@2@@std@@@2@V?$allocator@V?$basic_string@DU?$char_traits@D@std@@V?$allocator@D@2@@std@@@2@$0A@@std@@@2@@Z PROC NEAR ; std::_Tree<std::_Tset_traits<std::basic_string<char,std::char_traits<char>,std::allocator<char> >,std::less<std::basic_string<char,std::char_traits<char>,std::allocator<char> > >,std::allocator<std::basic_string<char,std::char_traits<char>,std::allocator<char> > >,0> >::_Myval, COMDAT

; 162  : 		return ((_Vref)(*_Pnode)._Myval);

  00000	8b 44 24 04	 mov	 eax, DWORD PTR __Pnode$[esp-4]
  00004	83 c0 0c	 add	 eax, 12			; 0000000cH

; 163  : 		}

  00007	c3		 ret	 0
?_Myval@?$_Tree@V?$_Tset_traits@V?$basic_string@DU?$char_traits@D@std@@V?$allocator@D@2@@std@@U?$less@V?$basic_string@DU?$char_traits@D@std@@V?$allocator@D@2@@std@@@2@V?$allocator@V?$basic_string@DU?$char_traits@D@std@@V?$allocator@D@2@@std@@@2@$0A@@std@@@std@@KAAAV?$basic_string@DU?$char_traits@D@std@@V?$allocator@D@2@@2@PAU_Node@?$_Tree_nod@V?$_Tset_traits@V?$basic_string@DU?$char_traits@D@std@@V?$allocator@D@2@@std@@U?$less@V?$basic_string@DU?$char_traits@D@std@@V?$allocator@D@2@@std@@@2@V?$allocator@V?$basic_string@DU?$char_traits@D@std@@V?$allocator@D@2@@std@@@2@$0A@@std@@@2@@Z ENDP ; std::_Tree<std::_Tset_traits<std::basic_string<char,std::char_traits<char>,std::allocator<char> >,std::less<std::basic_string<char,std::char_traits<char>,std::allocator<char> > >,std::allocator<std::basic_string<char,std::char_traits<char>,std::allocator<char> > >,0> >::_Myval
_TEXT	ENDS
PUBLIC	?_Lmost@?$_Tree@V?$_Tset_traits@V?$basic_string@DU?$char_traits@D@std@@V?$allocator@D@2@@std@@U?$less@V?$basic_string@DU?$char_traits@D@std@@V?$allocator@D@2@@std@@@2@V?$allocator@V?$basic_string@DU?$char_traits@D@std@@V?$allocator@D@2@@std@@@2@$0A@@std@@@std@@IAEAAPAU_Node@?$_Tree_nod@V?$_Tset_traits@V?$basic_string@DU?$char_traits@D@std@@V?$allocator@D@2@@std@@U?$less@V?$basic_string@DU?$char_traits@D@std@@V?$allocator@D@2@@std@@@2@V?$allocator@V?$basic_string@DU?$char_traits@D@std@@V?$allocator@D@2@@std@@@2@$0A@@std@@@2@XZ ; std::_Tree<std::_Tset_traits<std::basic_string<char,std::char_traits<char>,std::allocator<char> >,std::less<std::basic_string<char,std::char_traits<char>,std::allocator<char> > >,std::allocator<std::basic_string<char,std::char_traits<char>,std::allocator<char> > >,0> >::_Lmost
; Function compile flags: /Ogty
;	COMDAT ?_Lmost@?$_Tree@V?$_Tset_traits@V?$basic_string@DU?$char_traits@D@std@@V?$allocator@D@2@@std@@U?$less@V?$basic_string@DU?$char_traits@D@std@@V?$allocator@D@2@@std@@@2@V?$allocator@V?$basic_string@DU?$char_traits@D@std@@V?$allocator@D@2@@std@@@2@$0A@@std@@@std@@IAEAAPAU_Node@?$_Tree_nod@V?$_Tset_traits@V?$basic_string@DU?$char_traits@D@std@@V?$allocator@D@2@@std@@U?$less@V?$basic_string@DU?$char_traits@D@std@@V?$allocator@D@2@@std@@@2@V?$allocator@V?$basic_string@DU?$char_traits@D@std@@V?$allocator@D@2@@std@@@2@$0A@@std@@@2@XZ
_TEXT	SEGMENT
?_Lmost@?$_Tree@V?$_Tset_traits@V?$basic_string@DU?$char_traits@D@std@@V?$allocator@D@2@@std@@U?$less@V?$basic_string@DU?$char_traits@D@std@@V?$allocator@D@2@@std@@@2@V?$allocator@V?$basic_string@DU?$char_traits@D@std@@V?$allocator@D@2@@std@@@2@$0A@@std@@@std@@IAEAAPAU_Node@?$_Tree_nod@V?$_Tset_traits@V?$basic_string@DU?$char_traits@D@std@@V?$allocator@D@2@@std@@U?$less@V?$basic_string@DU?$char_traits@D@std@@V?$allocator@D@2@@std@@@2@V?$allocator@V?$basic_string@DU?$char_traits@D@std@@V?$allocator@D@2@@std@@@2@$0A@@std@@@2@XZ PROC NEAR ; std::_Tree<std::_Tset_traits<std::basic_string<char,std::char_traits<char>,std::allocator<char> >,std::less<std::basic_string<char,std::char_traits<char>,std::allocator<char> > >,std::allocator<std::basic_string<char,std::char_traits<char>,std::allocator<char> > >,0> >::_Lmost, COMDAT
; _this$ = ecx

; 1005 : 		return (_Left(_Myhead));

  00000	8b 41 04	 mov	 eax, DWORD PTR [ecx+4]

; 1006 : 		}

  00003	c3		 ret	 0
?_Lmost@?$_Tree@V?$_Tset_traits@V?$basic_string@DU?$char_traits@D@std@@V?$allocator@D@2@@std@@U?$less@V?$basic_string@DU?$char_traits@D@std@@V?$allocator@D@2@@std@@@2@V?$allocator@V?$basic_string@DU?$char_traits@D@std@@V?$allocator@D@2@@std@@@2@$0A@@std@@@std@@IAEAAPAU_Node@?$_Tree_nod@V?$_Tset_traits@V?$basic_string@DU?$char_traits@D@std@@V?$allocator@D@2@@std@@U?$less@V?$basic_string@DU?$char_traits@D@std@@V?$allocator@D@2@@std@@@2@V?$allocator@V?$basic_string@DU?$char_traits@D@std@@V?$allocator@D@2@@std@@@2@$0A@@std@@@2@XZ ENDP ; std::_Tree<std::_Tset_traits<std::basic_string<char,std::char_traits<char>,std::allocator<char> >,std::less<std::basic_string<char,std::char_traits<char>,std::allocator<char> > >,std::allocator<std::basic_string<char,std::char_traits<char>,std::allocator<char> > >,0> >::_Lmost
_TEXT	ENDS
PUBLIC	?_Rmost@?$_Tree@V?$_Tset_traits@V?$basic_string@DU?$char_traits@D@std@@V?$allocator@D@2@@std@@U?$less@V?$basic_string@DU?$char_traits@D@std@@V?$allocator@D@2@@std@@@2@V?$allocator@V?$basic_string@DU?$char_traits@D@std@@V?$allocator@D@2@@std@@@2@$0A@@std@@@std@@IAEAAPAU_Node@?$_Tree_nod@V?$_Tset_traits@V?$basic_string@DU?$char_traits@D@std@@V?$allocator@D@2@@std@@U?$less@V?$basic_string@DU?$char_traits@D@std@@V?$allocator@D@2@@std@@@2@V?$allocator@V?$basic_string@DU?$char_traits@D@std@@V?$allocator@D@2@@std@@@2@$0A@@std@@@2@XZ ; std::_Tree<std::_Tset_traits<std::basic_string<char,std::char_traits<char>,std::allocator<char> >,std::less<std::basic_string<char,std::char_traits<char>,std::allocator<char> > >,std::allocator<std::basic_string<char,std::char_traits<char>,std::allocator<char> > >,0> >::_Rmost
; Function compile flags: /Ogty
;	COMDAT ?_Rmost@?$_Tree@V?$_Tset_traits@V?$basic_string@DU?$char_traits@D@std@@V?$allocator@D@2@@std@@U?$less@V?$basic_string@DU?$char_traits@D@std@@V?$allocator@D@2@@std@@@2@V?$allocator@V?$basic_string@DU?$char_traits@D@std@@V?$allocator@D@2@@std@@@2@$0A@@std@@@std@@IAEAAPAU_Node@?$_Tree_nod@V?$_Tset_traits@V?$basic_string@DU?$char_traits@D@std@@V?$allocator@D@2@@std@@U?$less@V?$basic_string@DU?$char_traits@D@std@@V?$allocator@D@2@@std@@@2@V?$allocator@V?$basic_string@DU?$char_traits@D@std@@V?$allocator@D@2@@std@@@2@$0A@@std@@@2@XZ
_TEXT	SEGMENT
?_Rmost@?$_Tree@V?$_Tset_traits@V?$basic_string@DU?$char_traits@D@std@@V?$allocator@D@2@@std@@U?$less@V?$basic_string@DU?$char_traits@D@std@@V?$allocator@D@2@@std@@@2@V?$allocator@V?$basic_string@DU?$char_traits@D@std@@V?$allocator@D@2@@std@@@2@$0A@@std@@@std@@IAEAAPAU_Node@?$_Tree_nod@V?$_Tset_traits@V?$basic_string@DU?$char_traits@D@std@@V?$allocator@D@2@@std@@U?$less@V?$basic_string@DU?$char_traits@D@std@@V?$allocator@D@2@@std@@@2@V?$allocator@V?$basic_string@DU?$char_traits@D@std@@V?$allocator@D@2@@std@@@2@$0A@@std@@@2@XZ PROC NEAR ; std::_Tree<std::_Tset_traits<std::basic_string<char,std::char_traits<char>,std::allocator<char> >,std::less<std::basic_string<char,std::char_traits<char>,std::allocator<char> > >,std::allocator<std::basic_string<char,std::char_traits<char>,std::allocator<char> > >,0> >::_Rmost, COMDAT
; _this$ = ecx

; 1049 : 		return (_Right(_Myhead));

  00000	8b 41 04	 mov	 eax, DWORD PTR [ecx+4]
  00003	83 c0 08	 add	 eax, 8

; 1050 : 		}

  00006	c3		 ret	 0
?_Rmost@?$_Tree@V?$_Tset_traits@V?$basic_string@DU?$char_traits@D@std@@V?$allocator@D@2@@std@@U?$less@V?$basic_string@DU?$char_traits@D@std@@V?$allocator@D@2@@std@@@2@V?$allocator@V?$basic_string@DU?$char_traits@D@std@@V?$allocator@D@2@@std@@@2@$0A@@std@@@std@@IAEAAPAU_Node@?$_Tree_nod@V?$_Tset_traits@V?$basic_string@DU?$char_traits@D@std@@V?$allocator@D@2@@std@@U?$less@V?$basic_string@DU?$char_traits@D@std@@V?$allocator@D@2@@std@@@2@V?$allocator@V?$basic_string@DU?$char_traits@D@std@@V?$allocator@D@2@@std@@@2@$0A@@std@@@2@XZ ENDP ; std::_Tree<std::_Tset_traits<std::basic_string<char,std::char_traits<char>,std::allocator<char> >,std::less<std::basic_string<char,std::char_traits<char>,std::allocator<char> > >,std::allocator<std::basic_string<char,std::char_traits<char>,std::allocator<char> > >,0> >::_Rmost
_TEXT	ENDS
PUBLIC	??0const_iterator@?$_Tree@V?$_Tset_traits@V?$basic_string@DU?$char_traits@D@std@@V?$allocator@D@2@@std@@U?$less@V?$basic_string@DU?$char_traits@D@std@@V?$allocator@D@2@@std@@@2@V?$allocator@V?$basic_string@DU?$char_traits@D@std@@V?$allocator@D@2@@std@@@2@$0A@@std@@@std@@QAE@PAU_Node@?$_Tree_nod@V?$_Tset_traits@V?$basic_string@DU?$char_traits@D@std@@V?$allocator@D@2@@std@@U?$less@V?$basic_string@DU?$char_traits@D@std@@V?$allocator@D@2@@std@@@2@V?$allocator@V?$basic_string@DU?$char_traits@D@std@@V?$allocator@D@2@@std@@@2@$0A@@std@@@2@@Z ; std::_Tree<std::_Tset_traits<std::basic_string<char,std::char_traits<char>,std::allocator<char> >,std::less<std::basic_string<char,std::char_traits<char>,std::allocator<char> > >,std::allocator<std::basic_string<char,std::char_traits<char>,std::allocator<char> > >,0> >::const_iterator::const_iterator
; Function compile flags: /Ogty
;	COMDAT ??0const_iterator@?$_Tree@V?$_Tset_traits@V?$basic_string@DU?$char_traits@D@std@@V?$allocator@D@2@@std@@U?$less@V?$basic_string@DU?$char_traits@D@std@@V?$allocator@D@2@@std@@@2@V?$allocator@V?$basic_string@DU?$char_traits@D@std@@V?$allocator@D@2@@std@@@2@$0A@@std@@@std@@QAE@PAU_Node@?$_Tree_nod@V?$_Tset_traits@V?$basic_string@DU?$char_traits@D@std@@V?$allocator@D@2@@std@@U?$less@V?$basic_string@DU?$char_traits@D@std@@V?$allocator@D@2@@std@@@2@V?$allocator@V?$basic_string@DU?$char_traits@D@std@@V?$allocator@D@2@@std@@@2@$0A@@std@@@2@@Z
_TEXT	SEGMENT
__Pnode$ = 8						; size = 4
??0const_iterator@?$_Tree@V?$_Tset_traits@V?$basic_string@DU?$char_traits@D@std@@V?$allocator@D@2@@std@@U?$less@V?$basic_string@DU?$char_traits@D@std@@V?$allocator@D@2@@std@@@2@V?$allocator@V?$basic_string@DU?$char_traits@D@std@@V?$allocator@D@2@@std@@@2@$0A@@std@@@std@@QAE@PAU_Node@?$_Tree_nod@V?$_Tset_traits@V?$basic_string@DU?$char_traits@D@std@@V?$allocator@D@2@@std@@U?$less@V?$basic_string@DU?$char_traits@D@std@@V?$allocator@D@2@@std@@@2@V?$allocator@V?$basic_string@DU?$char_traits@D@std@@V?$allocator@D@2@@std@@@2@$0A@@std@@@2@@Z PROC NEAR ; std::_Tree<std::_Tset_traits<std::basic_string<char,std::char_traits<char>,std::allocator<char> >,std::less<std::basic_string<char,std::char_traits<char>,std::allocator<char> > >,std::allocator<std::basic_string<char,std::char_traits<char>,std::allocator<char> > >,0> >::const_iterator::const_iterator, COMDAT
; _this$ = ecx

; 200  : 			{	// construct with node pointer _Pnode

  00000	8b c1		 mov	 eax, ecx
  00002	8b 4c 24 04	 mov	 ecx, DWORD PTR __Pnode$[esp-4]
  00006	89 08		 mov	 DWORD PTR [eax], ecx

; 201  : 			}

  00008	c2 04 00	 ret	 4
??0const_iterator@?$_Tree@V?$_Tset_traits@V?$basic_string@DU?$char_traits@D@std@@V?$allocator@D@2@@std@@U?$less@V?$basic_string@DU?$char_traits@D@std@@V?$allocator@D@2@@std@@@2@V?$allocator@V?$basic_string@DU?$char_traits@D@std@@V?$allocator@D@2@@std@@@2@$0A@@std@@@std@@QAE@PAU_Node@?$_Tree_nod@V?$_Tset_traits@V?$basic_string@DU?$char_traits@D@std@@V?$allocator@D@2@@std@@U?$less@V?$basic_string@DU?$char_traits@D@std@@V?$allocator@D@2@@std@@@2@V?$allocator@V?$basic_string@DU?$char_traits@D@std@@V?$allocator@D@2@@std@@@2@$0A@@std@@@2@@Z ENDP ; std::_Tree<std::_Tset_traits<std::basic_string<char,std::char_traits<char>,std::allocator<char> >,std::less<std::basic_string<char,std::char_traits<char>,std::allocator<char> > >,std::allocator<std::basic_string<char,std::char_traits<char>,std::allocator<char> > >,0> >::const_iterator::const_iterator
_TEXT	ENDS
PUBLIC	?max_size@?$allocator@V?$basic_string@DU?$char_traits@D@std@@V?$allocator@D@2@@std@@@std@@QBEIXZ ; std::allocator<std::basic_string<char,std::char_traits<char>,std::allocator<char> > >::max_size
; Function compile flags: /Ogty
; File c:\program files\microsoft visual studio .net 2003\vc7\include\xmemory
;	COMDAT ?max_size@?$allocator@V?$basic_string@DU?$char_traits@D@std@@V?$allocator@D@2@@std@@@std@@QBEIXZ
_TEXT	SEGMENT
?max_size@?$allocator@V?$basic_string@DU?$char_traits@D@std@@V?$allocator@D@2@@std@@@std@@QBEIXZ PROC NEAR ; std::allocator<std::basic_string<char,std::char_traits<char>,std::allocator<char> > >::max_size, COMDAT
; _this$ = ecx

; 157  : 		_SIZT _Count = (_SIZT)(-1) / sizeof (_Ty);
; 158  : 		return (0 < _Count ? _Count : 1);

  00000	b8 49 92 24 09	 mov	 eax, 153391689		; 09249249H

; 159  : 		}

  00005	c3		 ret	 0
?max_size@?$allocator@V?$basic_string@DU?$char_traits@D@std@@V?$allocator@D@2@@std@@@std@@QBEIXZ ENDP ; std::allocator<std::basic_string<char,std::char_traits<char>,std::allocator<char> > >::max_size
_TEXT	ENDS
PUBLIC	?_Color@?$_Tree@V?$_Tmap_traits@EHU?$less@E@std@@V?$allocator@U?$pair@$$CBEH@std@@@2@$0A@@std@@@std@@KAAADPAU_Node@?$_Tree_nod@V?$_Tmap_traits@EHU?$less@E@std@@V?$allocator@U?$pair@$$CBEH@std@@@2@$0A@@std@@@2@@Z ; std::_Tree<std::_Tmap_traits<unsigned char,int,std::less<unsigned char>,std::allocator<std::pair<unsigned char const ,int> >,0> >::_Color
; Function compile flags: /Ogty
; File c:\program files\microsoft visual studio .net 2003\vc7\include\xtree
;	COMDAT ?_Color@?$_Tree@V?$_Tmap_traits@EHU?$less@E@std@@V?$allocator@U?$pair@$$CBEH@std@@@2@$0A@@std@@@std@@KAAADPAU_Node@?$_Tree_nod@V?$_Tmap_traits@EHU?$less@E@std@@V?$allocator@U?$pair@$$CBEH@std@@@2@$0A@@std@@@2@@Z
_TEXT	SEGMENT
__Pnode$ = 8						; size = 4
?_Color@?$_Tree@V?$_Tmap_traits@EHU?$less@E@std@@V?$allocator@U?$pair@$$CBEH@std@@@2@$0A@@std@@@std@@KAAADPAU_Node@?$_Tree_nod@V?$_Tmap_traits@EHU?$less@E@std@@V?$allocator@U?$pair@$$CBEH@std@@@2@$0A@@std@@@2@@Z PROC NEAR ; std::_Tree<std::_Tmap_traits<unsigned char,int,std::less<unsigned char>,std::allocator<std::pair<unsigned char const ,int> >,0> >::_Color, COMDAT

; 132  : 		return ((_Charref)(*_Pnode)._Color);

  00000	8b 44 24 04	 mov	 eax, DWORD PTR __Pnode$[esp-4]
  00004	83 c0 14	 add	 eax, 20			; 00000014H

; 133  : 		}

  00007	c3		 ret	 0
?_Color@?$_Tree@V?$_Tmap_traits@EHU?$less@E@std@@V?$allocator@U?$pair@$$CBEH@std@@@2@$0A@@std@@@std@@KAAADPAU_Node@?$_Tree_nod@V?$_Tmap_traits@EHU?$less@E@std@@V?$allocator@U?$pair@$$CBEH@std@@@2@$0A@@std@@@2@@Z ENDP ; std::_Tree<std::_Tmap_traits<unsigned char,int,std::less<unsigned char>,std::allocator<std::pair<unsigned char const ,int> >,0> >::_Color
_TEXT	ENDS
PUBLIC	?_Myval@?$_Tree@V?$_Tmap_traits@EHU?$less@E@std@@V?$allocator@U?$pair@$$CBEH@std@@@2@$0A@@std@@@std@@KAAAU?$pair@$$CBEH@2@PAU_Node@?$_Tree_nod@V?$_Tmap_traits@EHU?$less@E@std@@V?$allocator@U?$pair@$$CBEH@std@@@2@$0A@@std@@@2@@Z ; std::_Tree<std::_Tmap_traits<unsigned char,int,std::less<unsigned char>,std::allocator<std::pair<unsigned char const ,int> >,0> >::_Myval
; Function compile flags: /Ogty
;	COMDAT ?_Myval@?$_Tree@V?$_Tmap_traits@EHU?$less@E@std@@V?$allocator@U?$pair@$$CBEH@std@@@2@$0A@@std@@@std@@KAAAU?$pair@$$CBEH@2@PAU_Node@?$_Tree_nod@V?$_Tmap_traits@EHU?$less@E@std@@V?$allocator@U?$pair@$$CBEH@std@@@2@$0A@@std@@@2@@Z
_TEXT	SEGMENT
__Pnode$ = 8						; size = 4
?_Myval@?$_Tree@V?$_Tmap_traits@EHU?$less@E@std@@V?$allocator@U?$pair@$$CBEH@std@@@2@$0A@@std@@@std@@KAAAU?$pair@$$CBEH@2@PAU_Node@?$_Tree_nod@V?$_Tmap_traits@EHU?$less@E@std@@V?$allocator@U?$pair@$$CBEH@std@@@2@$0A@@std@@@2@@Z PROC NEAR ; std::_Tree<std::_Tmap_traits<unsigned char,int,std::less<unsigned char>,std::allocator<std::pair<unsigned char const ,int> >,0> >::_Myval, COMDAT

; 162  : 		return ((_Vref)(*_Pnode)._Myval);

  00000	8b 44 24 04	 mov	 eax, DWORD PTR __Pnode$[esp-4]
  00004	83 c0 0c	 add	 eax, 12			; 0000000cH

; 163  : 		}

  00007	c3		 ret	 0
?_Myval@?$_Tree@V?$_Tmap_traits@EHU?$less@E@std@@V?$allocator@U?$pair@$$CBEH@std@@@2@$0A@@std@@@std@@KAAAU?$pair@$$CBEH@2@PAU_Node@?$_Tree_nod@V?$_Tmap_traits@EHU?$less@E@std@@V?$allocator@U?$pair@$$CBEH@std@@@2@$0A@@std@@@2@@Z ENDP ; std::_Tree<std::_Tmap_traits<unsigned char,int,std::less<unsigned char>,std::allocator<std::pair<unsigned char const ,int> >,0> >::_Myval
_TEXT	ENDS
PUBLIC	?deallocate@?$allocator@U_Node@?$_Tree_nod@V?$_Tset_traits@V?$basic_string@DU?$char_traits@D@std@@V?$allocator@D@2@@std@@U?$less@V?$basic_string@DU?$char_traits@D@std@@V?$allocator@D@2@@std@@@2@V?$allocator@V?$basic_string@DU?$char_traits@D@std@@V?$allocator@D@2@@std@@@2@$0A@@std@@@std@@@std@@QAEXPAU_Node@?$_Tree_nod@V?$_Tset_traits@V?$basic_string@DU?$char_traits@D@std@@V?$allocator@D@2@@std@@U?$less@V?$basic_string@DU?$char_traits@D@std@@V?$allocator@D@2@@std@@@2@V?$allocator@V?$basic_string@DU?$char_traits@D@std@@V?$allocator@D@2@@std@@@2@$0A@@std@@@2@I@Z ; std::allocator<std::_Tree_nod<std::_Tset_traits<std::basic_string<char,std::char_traits<char>,std::allocator<char> >,std::less<std::basic_string<char,std::char_traits<char>,std::allocator<char> > >,std::allocator<std::basic_string<char,std::char_traits<char>,std::allocator<char> > >,0> >::_Node>::deallocate
; Function compile flags: /Ogty
; File c:\program files\microsoft visual studio .net 2003\vc7\include\xmemory
;	COMDAT ?deallocate@?$allocator@U_Node@?$_Tree_nod@V?$_Tset_traits@V?$basic_string@DU?$char_traits@D@std@@V?$allocator@D@2@@std@@U?$less@V?$basic_string@DU?$char_traits@D@std@@V?$allocator@D@2@@std@@@2@V?$allocator@V?$basic_string@DU?$char_traits@D@std@@V?$allocator@D@2@@std@@@2@$0A@@std@@@std@@@std@@QAEXPAU_Node@?$_Tree_nod@V?$_Tset_traits@V?$basic_string@DU?$char_traits@D@std@@V?$allocator@D@2@@std@@U?$less@V?$basic_string@DU?$char_traits@D@std@@V?$allocator@D@2@@std@@@2@V?$allocator@V?$basic_string@DU?$char_traits@D@std@@V?$allocator@D@2@@std@@@2@$0A@@std@@@2@I@Z
_TEXT	SEGMENT
__Ptr$ = 8						; size = 4
___formal$ = 12						; size = 4
?deallocate@?$allocator@U_Node@?$_Tree_nod@V?$_Tset_traits@V?$basic_string@DU?$char_traits@D@std@@V?$allocator@D@2@@std@@U?$less@V?$basic_string@DU?$char_traits@D@std@@V?$allocator@D@2@@std@@@2@V?$allocator@V?$basic_string@DU?$char_traits@D@std@@V?$allocator@D@2@@std@@@2@$0A@@std@@@std@@@std@@QAEXPAU_Node@?$_Tree_nod@V?$_Tset_traits@V?$basic_string@DU?$char_traits@D@std@@V?$allocator@D@2@@std@@U?$less@V?$basic_string@DU?$char_traits@D@std@@V?$allocator@D@2@@std@@@2@V?$allocator@V?$basic_string@DU?$char_traits@D@std@@V?$allocator@D@2@@std@@@2@$0A@@std@@@2@I@Z PROC NEAR ; std::allocator<std::_Tree_nod<std::_Tset_traits<std::basic_string<char,std::char_traits<char>,std::allocator<char> >,std::less<std::basic_string<char,std::char_traits<char>,std::allocator<char> > >,std::allocator<std::basic_string<char,std::char_traits<char>,std::allocator<char> > >,0> >::_Node>::deallocate, COMDAT
; _this$ = ecx

; 132  : 		operator delete(_Ptr);

  00000	8b 44 24 04	 mov	 eax, DWORD PTR __Ptr$[esp-4]
  00004	50		 push	 eax
  00005	e8 00 00 00 00	 call	 ??3@YAXPAX@Z		; operator delete
  0000a	59		 pop	 ecx

; 133  : 		}

  0000b	c2 08 00	 ret	 8
?deallocate@?$allocator@U_Node@?$_Tree_nod@V?$_Tset_traits@V?$basic_string@DU?$char_traits@D@std@@V?$allocator@D@2@@std@@U?$less@V?$basic_string@DU?$char_traits@D@std@@V?$allocator@D@2@@std@@@2@V?$allocator@V?$basic_string@DU?$char_traits@D@std@@V?$allocator@D@2@@std@@@2@$0A@@std@@@std@@@std@@QAEXPAU_Node@?$_Tree_nod@V?$_Tset_traits@V?$basic_string@DU?$char_traits@D@std@@V?$allocator@D@2@@std@@U?$less@V?$basic_string@DU?$char_traits@D@std@@V?$allocator@D@2@@std@@@2@V?$allocator@V?$basic_string@DU?$char_traits@D@std@@V?$allocator@D@2@@std@@@2@$0A@@std@@@2@I@Z ENDP ; std::allocator<std::_Tree_nod<std::_Tset_traits<std::basic_string<char,std::char_traits<char>,std::allocator<char> >,std::less<std::basic_string<char,std::char_traits<char>,std::allocator<char> > >,std::allocator<std::basic_string<char,std::char_traits<char>,std::allocator<char> > >,0> >::_Node>::deallocate
_TEXT	ENDS
PUBLIC	??8const_iterator@?$list@PAXV?$allocator@PAX@std@@@std@@QBE_NABV012@@Z ; std::list<void *,std::allocator<void *> >::const_iterator::operator==
; Function compile flags: /Ogty
; File c:\program files\microsoft visual studio .net 2003\vc7\include\list
;	COMDAT ??8const_iterator@?$list@PAXV?$allocator@PAX@std@@@std@@QBE_NABV012@@Z
_TEXT	SEGMENT
__Right$ = 8						; size = 4
??8const_iterator@?$list@PAXV?$allocator@PAX@std@@@std@@QBE_NABV012@@Z PROC NEAR ; std::list<void *,std::allocator<void *> >::const_iterator::operator==, COMDAT
; _this$ = ecx

; 197  : 			return (_Ptr == _Right._Ptr);

  00000	8b 01		 mov	 eax, DWORD PTR [ecx]
  00002	8b 4c 24 04	 mov	 ecx, DWORD PTR __Right$[esp-4]
  00006	2b 01		 sub	 eax, DWORD PTR [ecx]
  00008	f7 d8		 neg	 eax
  0000a	1b c0		 sbb	 eax, eax
  0000c	40		 inc	 eax

; 198  : 			}

  0000d	c2 04 00	 ret	 4
??8const_iterator@?$list@PAXV?$allocator@PAX@std@@@std@@QBE_NABV012@@Z ENDP ; std::list<void *,std::allocator<void *> >::const_iterator::operator==
_TEXT	ENDS
PUBLIC	??8const_iterator@?$_Tree@V?$_Tmap_traits@EHU?$less@E@std@@V?$allocator@U?$pair@$$CBEH@std@@@2@$0A@@std@@@std@@QBE_NABV012@@Z ; std::_Tree<std::_Tmap_traits<unsigned char,int,std::less<unsigned char>,std::allocator<std::pair<unsigned char const ,int> >,0> >::const_iterator::operator==
; Function compile flags: /Ogty
; File c:\program files\microsoft visual studio .net 2003\vc7\include\xtree
;	COMDAT ??8const_iterator@?$_Tree@V?$_Tmap_traits@EHU?$less@E@std@@V?$allocator@U?$pair@$$CBEH@std@@@2@$0A@@std@@@std@@QBE_NABV012@@Z
_TEXT	SEGMENT
__Right$ = 8						; size = 4
??8const_iterator@?$_Tree@V?$_Tmap_traits@EHU?$less@E@std@@V?$allocator@U?$pair@$$CBEH@std@@@2@$0A@@std@@@std@@QBE_NABV012@@Z PROC NEAR ; std::_Tree<std::_Tmap_traits<unsigned char,int,std::less<unsigned char>,std::allocator<std::pair<unsigned char const ,int> >,0> >::const_iterator::operator==, COMDAT
; _this$ = ecx

; 241  : 			return (_Ptr == _Right._Ptr);

  00000	8b 01		 mov	 eax, DWORD PTR [ecx]
  00002	8b 4c 24 04	 mov	 ecx, DWORD PTR __Right$[esp-4]
  00006	2b 01		 sub	 eax, DWORD PTR [ecx]
  00008	f7 d8		 neg	 eax
  0000a	1b c0		 sbb	 eax, eax
  0000c	40		 inc	 eax

; 242  : 			}

  0000d	c2 04 00	 ret	 4
??8const_iterator@?$_Tree@V?$_Tmap_traits@EHU?$less@E@std@@V?$allocator@U?$pair@$$CBEH@std@@@2@$0A@@std@@@std@@QBE_NABV012@@Z ENDP ; std::_Tree<std::_Tmap_traits<unsigned char,int,std::less<unsigned char>,std::allocator<std::pair<unsigned char const ,int> >,0> >::const_iterator::operator==
_TEXT	ENDS
PUBLIC	??9const_iterator@?$_Tree@V?$_Tmap_traits@EHU?$less@E@std@@V?$allocator@U?$pair@$$CBEH@std@@@2@$0A@@std@@@std@@QBE_NABV012@@Z ; std::_Tree<std::_Tmap_traits<unsigned char,int,std::less<unsigned char>,std::allocator<std::pair<unsigned char const ,int> >,0> >::const_iterator::operator!=
; Function compile flags: /Ogty
;	COMDAT ??9const_iterator@?$_Tree@V?$_Tmap_traits@EHU?$less@E@std@@V?$allocator@U?$pair@$$CBEH@std@@@2@$0A@@std@@@std@@QBE_NABV012@@Z
_TEXT	SEGMENT
__Right$ = 8						; size = 4
??9const_iterator@?$_Tree@V?$_Tmap_traits@EHU?$less@E@std@@V?$allocator@U?$pair@$$CBEH@std@@@2@$0A@@std@@@std@@QBE_NABV012@@Z PROC NEAR ; std::_Tree<std::_Tmap_traits<unsigned char,int,std::less<unsigned char>,std::allocator<std::pair<unsigned char const ,int> >,0> >::const_iterator::operator!=, COMDAT
; _this$ = ecx

; 246  : 			return (!(*this == _Right));

  00000	8b 01		 mov	 eax, DWORD PTR [ecx]
  00002	8b 54 24 04	 mov	 edx, DWORD PTR __Right$[esp-4]
  00006	56		 push	 esi
  00007	8b 32		 mov	 esi, DWORD PTR [edx]
  00009	33 c9		 xor	 ecx, ecx
  0000b	3b c6		 cmp	 eax, esi
  0000d	0f 95 c1	 setne	 cl
  00010	8a c1		 mov	 al, cl
  00012	5e		 pop	 esi

; 247  : 			}

  00013	c2 04 00	 ret	 4
??9const_iterator@?$_Tree@V?$_Tmap_traits@EHU?$less@E@std@@V?$allocator@U?$pair@$$CBEH@std@@@2@$0A@@std@@@std@@QBE_NABV012@@Z ENDP ; std::_Tree<std::_Tmap_traits<unsigned char,int,std::less<unsigned char>,std::allocator<std::pair<unsigned char const ,int> >,0> >::const_iterator::operator!=
_TEXT	ENDS
PUBLIC	?_Lrotate@?$_Tree@V?$_Tmap_traits@EHU?$less@E@std@@V?$allocator@U?$pair@$$CBEH@std@@@2@$0A@@std@@@std@@IAEXPAU_Node@?$_Tree_nod@V?$_Tmap_traits@EHU?$less@E@std@@V?$allocator@U?$pair@$$CBEH@std@@@2@$0A@@std@@@2@@Z ; std::_Tree<std::_Tmap_traits<unsigned char,int,std::less<unsigned char>,std::allocator<std::pair<unsigned char const ,int> >,0> >::_Lrotate
; Function compile flags: /Ogty
;	COMDAT ?_Lrotate@?$_Tree@V?$_Tmap_traits@EHU?$less@E@std@@V?$allocator@U?$pair@$$CBEH@std@@@2@$0A@@std@@@std@@IAEXPAU_Node@?$_Tree_nod@V?$_Tmap_traits@EHU?$less@E@std@@V?$allocator@U?$pair@$$CBEH@std@@@2@$0A@@std@@@2@@Z
_TEXT	SEGMENT
__Wherenode$ = 8					; size = 4
?_Lrotate@?$_Tree@V?$_Tmap_traits@EHU?$less@E@std@@V?$allocator@U?$pair@$$CBEH@std@@@2@$0A@@std@@@std@@IAEXPAU_Node@?$_Tree_nod@V?$_Tmap_traits@EHU?$less@E@std@@V?$allocator@U?$pair@$$CBEH@std@@@2@$0A@@std@@@2@@Z PROC NEAR ; std::_Tree<std::_Tmap_traits<unsigned char,int,std::less<unsigned char>,std::allocator<std::pair<unsigned char const ,int> >,0> >::_Lrotate, COMDAT
; _this$ = ecx

; 1015 : 		_Nodeptr _Pnode = _Right(_Wherenode);

  00000	8b 54 24 04	 mov	 edx, DWORD PTR __Wherenode$[esp-4]
  00004	8b 42 08	 mov	 eax, DWORD PTR [edx+8]
  00007	53		 push	 ebx
  00008	56		 push	 esi

; 1016 : 		_Right(_Wherenode) = _Left(_Pnode);

  00009	8b 30		 mov	 esi, DWORD PTR [eax]
  0000b	89 72 08	 mov	 DWORD PTR [edx+8], esi

; 1017 : 
; 1018 : 		if (!_Isnil(_Left(_Pnode)))

  0000e	8b 30		 mov	 esi, DWORD PTR [eax]
  00010	8a 5e 15	 mov	 bl, BYTE PTR [esi+21]
  00013	84 db		 test	 bl, bl
  00015	75 03		 jne	 SHORT $L215615

; 1019 : 			_Parent(_Left(_Pnode)) = _Wherenode;

  00017	89 56 04	 mov	 DWORD PTR [esi+4], edx
$L215615:

; 1020 : 		_Parent(_Pnode) = _Parent(_Wherenode);

  0001a	8b 72 04	 mov	 esi, DWORD PTR [edx+4]
  0001d	89 70 04	 mov	 DWORD PTR [eax+4], esi

; 1021 : 
; 1022 : 		if (_Wherenode == _Root())

  00020	8b 49 04	 mov	 ecx, DWORD PTR [ecx+4]
  00023	3b 51 04	 cmp	 edx, DWORD PTR [ecx+4]
  00026	75 0d		 jne	 SHORT $L215616

; 1023 : 			_Root() = _Pnode;

  00028	89 41 04	 mov	 DWORD PTR [ecx+4], eax
  0002b	5e		 pop	 esi

; 1028 : 
; 1029 : 		_Left(_Pnode) = _Wherenode;

  0002c	89 10		 mov	 DWORD PTR [eax], edx

; 1030 : 		_Parent(_Wherenode) = _Pnode;

  0002e	89 42 04	 mov	 DWORD PTR [edx+4], eax
  00031	5b		 pop	 ebx

; 1031 : 		}

  00032	c2 04 00	 ret	 4
$L215616:

; 1024 : 		else if (_Wherenode == _Left(_Parent(_Wherenode)))

  00035	8b 4a 04	 mov	 ecx, DWORD PTR [edx+4]
  00038	3b 11		 cmp	 edx, DWORD PTR [ecx]
  0003a	75 0c		 jne	 SHORT $L215618

; 1025 : 			_Left(_Parent(_Wherenode)) = _Pnode;

  0003c	89 01		 mov	 DWORD PTR [ecx], eax
  0003e	5e		 pop	 esi

; 1028 : 
; 1029 : 		_Left(_Pnode) = _Wherenode;

  0003f	89 10		 mov	 DWORD PTR [eax], edx

; 1030 : 		_Parent(_Wherenode) = _Pnode;

  00041	89 42 04	 mov	 DWORD PTR [edx+4], eax
  00044	5b		 pop	 ebx

; 1031 : 		}

  00045	c2 04 00	 ret	 4
$L215618:

; 1026 : 		else
; 1027 : 			_Right(_Parent(_Wherenode)) = _Pnode;

  00048	89 41 08	 mov	 DWORD PTR [ecx+8], eax
  0004b	5e		 pop	 esi

; 1028 : 
; 1029 : 		_Left(_Pnode) = _Wherenode;

  0004c	89 10		 mov	 DWORD PTR [eax], edx

; 1030 : 		_Parent(_Wherenode) = _Pnode;

  0004e	89 42 04	 mov	 DWORD PTR [edx+4], eax
  00051	5b		 pop	 ebx

; 1031 : 		}

  00052	c2 04 00	 ret	 4
?_Lrotate@?$_Tree@V?$_Tmap_traits@EHU?$less@E@std@@V?$allocator@U?$pair@$$CBEH@std@@@2@$0A@@std@@@std@@IAEXPAU_Node@?$_Tree_nod@V?$_Tmap_traits@EHU?$less@E@std@@V?$allocator@U?$pair@$$CBEH@std@@@2@$0A@@std@@@2@@Z ENDP ; std::_Tree<std::_Tmap_traits<unsigned char,int,std::less<unsigned char>,std::allocator<std::pair<unsigned char const ,int> >,0> >::_Lrotate
_TEXT	ENDS
PUBLIC	?_Rrotate@?$_Tree@V?$_Tmap_traits@EHU?$less@E@std@@V?$allocator@U?$pair@$$CBEH@std@@@2@$0A@@std@@@std@@IAEXPAU_Node@?$_Tree_nod@V?$_Tmap_traits@EHU?$less@E@std@@V?$allocator@U?$pair@$$CBEH@std@@@2@$0A@@std@@@2@@Z ; std::_Tree<std::_Tmap_traits<unsigned char,int,std::less<unsigned char>,std::allocator<std::pair<unsigned char const ,int> >,0> >::_Rrotate
; Function compile flags: /Ogty
;	COMDAT ?_Rrotate@?$_Tree@V?$_Tmap_traits@EHU?$less@E@std@@V?$allocator@U?$pair@$$CBEH@std@@@2@$0A@@std@@@std@@IAEXPAU_Node@?$_Tree_nod@V?$_Tmap_traits@EHU?$less@E@std@@V?$allocator@U?$pair@$$CBEH@std@@@2@$0A@@std@@@2@@Z
_TEXT	SEGMENT
__Wherenode$ = 8					; size = 4
?_Rrotate@?$_Tree@V?$_Tmap_traits@EHU?$less@E@std@@V?$allocator@U?$pair@$$CBEH@std@@@2@$0A@@std@@@std@@IAEXPAU_Node@?$_Tree_nod@V?$_Tmap_traits@EHU?$less@E@std@@V?$allocator@U?$pair@$$CBEH@std@@@2@$0A@@std@@@2@@Z PROC NEAR ; std::_Tree<std::_Tmap_traits<unsigned char,int,std::less<unsigned char>,std::allocator<std::pair<unsigned char const ,int> >,0> >::_Rrotate, COMDAT
; _this$ = ecx

; 1069 : 		_Nodeptr _Pnode = _Left(_Wherenode);

  00000	8b 54 24 04	 mov	 edx, DWORD PTR __Wherenode$[esp-4]
  00004	8b 02		 mov	 eax, DWORD PTR [edx]
  00006	53		 push	 ebx
  00007	56		 push	 esi

; 1070 : 		_Left(_Wherenode) = _Right(_Pnode);

  00008	8b 70 08	 mov	 esi, DWORD PTR [eax+8]
  0000b	89 32		 mov	 DWORD PTR [edx], esi

; 1071 : 
; 1072 : 		if (!_Isnil(_Right(_Pnode)))

  0000d	8b 70 08	 mov	 esi, DWORD PTR [eax+8]
  00010	8a 5e 15	 mov	 bl, BYTE PTR [esi+21]
  00013	84 db		 test	 bl, bl
  00015	75 03		 jne	 SHORT $L215623

; 1073 : 			_Parent(_Right(_Pnode)) = _Wherenode;

  00017	89 56 04	 mov	 DWORD PTR [esi+4], edx
$L215623:

; 1074 : 		_Parent(_Pnode) = _Parent(_Wherenode);

  0001a	8b 72 04	 mov	 esi, DWORD PTR [edx+4]
  0001d	89 70 04	 mov	 DWORD PTR [eax+4], esi

; 1075 : 
; 1076 : 		if (_Wherenode == _Root())

  00020	8b 49 04	 mov	 ecx, DWORD PTR [ecx+4]
  00023	3b 51 04	 cmp	 edx, DWORD PTR [ecx+4]
  00026	75 0e		 jne	 SHORT $L215624

; 1077 : 			_Root() = _Pnode;

  00028	89 41 04	 mov	 DWORD PTR [ecx+4], eax
  0002b	5e		 pop	 esi

; 1082 : 
; 1083 : 		_Right(_Pnode) = _Wherenode;

  0002c	89 50 08	 mov	 DWORD PTR [eax+8], edx

; 1084 : 		_Parent(_Wherenode) = _Pnode;

  0002f	89 42 04	 mov	 DWORD PTR [edx+4], eax
  00032	5b		 pop	 ebx

; 1085 : 		}

  00033	c2 04 00	 ret	 4
$L215624:

; 1078 : 		else if (_Wherenode == _Right(_Parent(_Wherenode)))

  00036	8b 4a 04	 mov	 ecx, DWORD PTR [edx+4]
  00039	3b 51 08	 cmp	 edx, DWORD PTR [ecx+8]
  0003c	75 0e		 jne	 SHORT $L215626

; 1079 : 			_Right(_Parent(_Wherenode)) = _Pnode;

  0003e	89 41 08	 mov	 DWORD PTR [ecx+8], eax
  00041	5e		 pop	 esi

; 1082 : 
; 1083 : 		_Right(_Pnode) = _Wherenode;

  00042	89 50 08	 mov	 DWORD PTR [eax+8], edx

; 1084 : 		_Parent(_Wherenode) = _Pnode;

  00045	89 42 04	 mov	 DWORD PTR [edx+4], eax
  00048	5b		 pop	 ebx

; 1085 : 		}

  00049	c2 04 00	 ret	 4
$L215626:

; 1080 : 		else
; 1081 : 			_Left(_Parent(_Wherenode)) = _Pnode;

  0004c	89 01		 mov	 DWORD PTR [ecx], eax
  0004e	5e		 pop	 esi

; 1082 : 
; 1083 : 		_Right(_Pnode) = _Wherenode;

  0004f	89 50 08	 mov	 DWORD PTR [eax+8], edx

; 1084 : 		_Parent(_Wherenode) = _Pnode;

  00052	89 42 04	 mov	 DWORD PTR [edx+4], eax
  00055	5b		 pop	 ebx

; 1085 : 		}

  00056	c2 04 00	 ret	 4
?_Rrotate@?$_Tree@V?$_Tmap_traits@EHU?$less@E@std@@V?$allocator@U?$pair@$$CBEH@std@@@2@$0A@@std@@@std@@IAEXPAU_Node@?$_Tree_nod@V?$_Tmap_traits@EHU?$less@E@std@@V?$allocator@U?$pair@$$CBEH@std@@@2@$0A@@std@@@2@@Z ENDP ; std::_Tree<std::_Tmap_traits<unsigned char,int,std::less<unsigned char>,std::allocator<std::pair<unsigned char const ,int> >,0> >::_Rrotate
_TEXT	ENDS
PUBLIC	??0?$_Tmap_traits@EHU?$less@E@std@@V?$allocator@U?$pair@$$CBEH@std@@@2@$0A@@std@@QAE@U?$less@E@1@@Z ; std::_Tmap_traits<unsigned char,int,std::less<unsigned char>,std::allocator<std::pair<unsigned char const ,int> >,0>::_Tmap_traits<unsigned char,int,std::less<unsigned char>,std::allocator<std::pair<unsigned char const ,int> >,0>
; Function compile flags: /Ogty
; File c:\program files\microsoft visual studio .net 2003\vc7\include\map
;	COMDAT ??0?$_Tmap_traits@EHU?$less@E@std@@V?$allocator@U?$pair@$$CBEH@std@@@2@$0A@@std@@QAE@U?$less@E@1@@Z
_TEXT	SEGMENT
__Parg$ = 8						; size = 1
??0?$_Tmap_traits@EHU?$less@E@std@@V?$allocator@U?$pair@$$CBEH@std@@@2@$0A@@std@@QAE@U?$less@E@1@@Z PROC NEAR ; std::_Tmap_traits<unsigned char,int,std::less<unsigned char>,std::allocator<std::pair<unsigned char const ,int> >,0>::_Tmap_traits<unsigned char,int,std::less<unsigned char>,std::allocator<std::pair<unsigned char const ,int> >,0>, COMDAT
; _this$ = ecx

; 38   : 		{	// construct with specified comparator

  00000	8b c1		 mov	 eax, ecx

; 39   : 		}

  00002	c2 04 00	 ret	 4
??0?$_Tmap_traits@EHU?$less@E@std@@V?$allocator@U?$pair@$$CBEH@std@@@2@$0A@@std@@QAE@U?$less@E@1@@Z ENDP ; std::_Tmap_traits<unsigned char,int,std::less<unsigned char>,std::allocator<std::pair<unsigned char const ,int> >,0>::_Tmap_traits<unsigned char,int,std::less<unsigned char>,std::allocator<std::pair<unsigned char const ,int> >,0>
_TEXT	ENDS
PUBLIC	?_Max@?$_Tree@V?$_Tset_traits@V?$basic_string@DU?$char_traits@D@std@@V?$allocator@D@2@@std@@U?$less@V?$basic_string@DU?$char_traits@D@std@@V?$allocator@D@2@@std@@@2@V?$allocator@V?$basic_string@DU?$char_traits@D@std@@V?$allocator@D@2@@std@@@2@$0A@@std@@@std@@KAPAU_Node@?$_Tree_nod@V?$_Tset_traits@V?$basic_string@DU?$char_traits@D@std@@V?$allocator@D@2@@std@@U?$less@V?$basic_string@DU?$char_traits@D@std@@V?$allocator@D@2@@std@@@2@V?$allocator@V?$basic_string@DU?$char_traits@D@std@@V?$allocator@D@2@@std@@@2@$0A@@std@@@2@PAU342@@Z ; std::_Tree<std::_Tset_traits<std::basic_string<char,std::char_traits<char>,std::allocator<char> >,std::less<std::basic_string<char,std::char_traits<char>,std::allocator<char> > >,std::allocator<std::basic_string<char,std::char_traits<char>,std::allocator<char> > >,0> >::_Max
; Function compile flags: /Ogty
; File c:\program files\microsoft visual studio .net 2003\vc7\include\xtree
;	COMDAT ?_Max@?$_Tree@V?$_Tset_traits@V?$basic_string@DU?$char_traits@D@std@@V?$allocator@D@2@@std@@U?$less@V?$basic_string@DU?$char_traits@D@std@@V?$allocator@D@2@@std@@@2@V?$allocator@V?$basic_string@DU?$char_traits@D@std@@V?$allocator@D@2@@std@@@2@$0A@@std@@@std@@KAPAU_Node@?$_Tree_nod@V?$_Tset_traits@V?$basic_string@DU?$char_traits@D@std@@V?$allocator@D@2@@std@@U?$less@V?$basic_string@DU?$char_traits@D@std@@V?$allocator@D@2@@std@@@2@V?$allocator@V?$basic_string@DU?$char_traits@D@std@@V?$allocator@D@2@@std@@@2@$0A@@std@@@2@PAU342@@Z
_TEXT	SEGMENT
__Pnode$ = 8						; size = 4
?_Max@?$_Tree@V?$_Tset_traits@V?$basic_string@DU?$char_traits@D@std@@V?$allocator@D@2@@std@@U?$less@V?$basic_string@DU?$char_traits@D@std@@V?$allocator@D@2@@std@@@2@V?$allocator@V?$basic_string@DU?$char_traits@D@std@@V?$allocator@D@2@@std@@@2@$0A@@std@@@std@@KAPAU_Node@?$_Tree_nod@V?$_Tset_traits@V?$basic_string@DU?$char_traits@D@std@@V?$allocator@D@2@@std@@U?$less@V?$basic_string@DU?$char_traits@D@std@@V?$allocator@D@2@@std@@@2@V?$allocator@V?$basic_string@DU?$char_traits@D@std@@V?$allocator@D@2@@std@@@2@$0A@@std@@@2@PAU342@@Z PROC NEAR ; std::_Tree<std::_Tset_traits<std::basic_string<char,std::char_traits<char>,std::allocator<char> >,std::less<std::basic_string<char,std::char_traits<char>,std::allocator<char> > >,std::allocator<std::basic_string<char,std::char_traits<char>,std::allocator<char> > >,0> >::_Max, COMDAT

; 1035 : 		while (!_Isnil(_Right(_Pnode)))

  00000	8b 44 24 04	 mov	 eax, DWORD PTR __Pnode$[esp-4]
  00004	8b 48 08	 mov	 ecx, DWORD PTR [eax+8]
  00007	8a 51 29	 mov	 dl, BYTE PTR [ecx+41]
  0000a	84 d2		 test	 dl, dl
  0000c	75 0e		 jne	 SHORT $L215639
  0000e	8b ff		 npad	 2
$L215638:

; 1036 : 			_Pnode = _Right(_Pnode);

  00010	8b c1		 mov	 eax, ecx
  00012	8b 48 08	 mov	 ecx, DWORD PTR [eax+8]
  00015	8a 51 29	 mov	 dl, BYTE PTR [ecx+41]
  00018	84 d2		 test	 dl, dl
  0001a	74 f4		 je	 SHORT $L215638
$L215639:

; 1037 : 		return (_Pnode);
; 1038 : 		}

  0001c	c3		 ret	 0
?_Max@?$_Tree@V?$_Tset_traits@V?$basic_string@DU?$char_traits@D@std@@V?$allocator@D@2@@std@@U?$less@V?$basic_string@DU?$char_traits@D@std@@V?$allocator@D@2@@std@@@2@V?$allocator@V?$basic_string@DU?$char_traits@D@std@@V?$allocator@D@2@@std@@@2@$0A@@std@@@std@@KAPAU_Node@?$_Tree_nod@V?$_Tset_traits@V?$basic_string@DU?$char_traits@D@std@@V?$allocator@D@2@@std@@U?$less@V?$basic_string@DU?$char_traits@D@std@@V?$allocator@D@2@@std@@@2@V?$allocator@V?$basic_string@DU?$char_traits@D@std@@V?$allocator@D@2@@std@@@2@$0A@@std@@@2@PAU342@@Z ENDP ; std::_Tree<std::_Tset_traits<std::basic_string<char,std::char_traits<char>,std::allocator<char> >,std::less<std::basic_string<char,std::char_traits<char>,std::allocator<char> > >,std::allocator<std::basic_string<char,std::char_traits<char>,std::allocator<char> > >,0> >::_Max
_TEXT	ENDS
PUBLIC	?_Myval@?$list@PAXV?$allocator@PAX@std@@@std@@KAAAPAXPAU_Node@?$_List_nod@PAXV?$allocator@PAX@std@@@2@@Z ; std::list<void *,std::allocator<void *> >::_Myval
; Function compile flags: /Ogty
; File c:\program files\microsoft visual studio .net 2003\vc7\include\list
;	COMDAT ?_Myval@?$list@PAXV?$allocator@PAX@std@@@std@@KAAAPAXPAU_Node@?$_List_nod@PAXV?$allocator@PAX@std@@@2@@Z
_TEXT	SEGMENT
__Pnode$ = 8						; size = 4
?_Myval@?$list@PAXV?$allocator@PAX@std@@@std@@KAAAPAXPAU_Node@?$_List_nod@PAXV?$allocator@PAX@std@@@2@@Z PROC NEAR ; std::list<void *,std::allocator<void *> >::_Myval, COMDAT

; 118  : 		return ((_Vref)(*_Pnode)._Myval);

  00000	8b 44 24 04	 mov	 eax, DWORD PTR __Pnode$[esp-4]
  00004	83 c0 08	 add	 eax, 8

; 119  : 		}

  00007	c3		 ret	 0
?_Myval@?$list@PAXV?$allocator@PAX@std@@@std@@KAAAPAXPAU_Node@?$_List_nod@PAXV?$allocator@PAX@std@@@2@@Z ENDP ; std::list<void *,std::allocator<void *> >::_Myval
_TEXT	ENDS
PUBLIC	??0const_iterator@?$_Tree@V?$_Tmap_traits@EHU?$less@E@std@@V?$allocator@U?$pair@$$CBEH@std@@@2@$0A@@std@@@std@@QAE@PAU_Node@?$_Tree_nod@V?$_Tmap_traits@EHU?$less@E@std@@V?$allocator@U?$pair@$$CBEH@std@@@2@$0A@@std@@@2@@Z ; std::_Tree<std::_Tmap_traits<unsigned char,int,std::less<unsigned char>,std::allocator<std::pair<unsigned char const ,int> >,0> >::const_iterator::const_iterator
; Function compile flags: /Ogty
; File c:\program files\microsoft visual studio .net 2003\vc7\include\xtree
;	COMDAT ??0const_iterator@?$_Tree@V?$_Tmap_traits@EHU?$less@E@std@@V?$allocator@U?$pair@$$CBEH@std@@@2@$0A@@std@@@std@@QAE@PAU_Node@?$_Tree_nod@V?$_Tmap_traits@EHU?$less@E@std@@V?$allocator@U?$pair@$$CBEH@std@@@2@$0A@@std@@@2@@Z
_TEXT	SEGMENT
__Pnode$ = 8						; size = 4
??0const_iterator@?$_Tree@V?$_Tmap_traits@EHU?$less@E@std@@V?$allocator@U?$pair@$$CBEH@std@@@2@$0A@@std@@@std@@QAE@PAU_Node@?$_Tree_nod@V?$_Tmap_traits@EHU?$less@E@std@@V?$allocator@U?$pair@$$CBEH@std@@@2@$0A@@std@@@2@@Z PROC NEAR ; std::_Tree<std::_Tmap_traits<unsigned char,int,std::less<unsigned char>,std::allocator<std::pair<unsigned char const ,int> >,0> >::const_iterator::const_iterator, COMDAT
; _this$ = ecx

; 200  : 			{	// construct with node pointer _Pnode

  00000	8b c1		 mov	 eax, ecx
  00002	8b 4c 24 04	 mov	 ecx, DWORD PTR __Pnode$[esp-4]
  00006	89 08		 mov	 DWORD PTR [eax], ecx

; 201  : 			}

  00008	c2 04 00	 ret	 4
??0const_iterator@?$_Tree@V?$_Tmap_traits@EHU?$less@E@std@@V?$allocator@U?$pair@$$CBEH@std@@@2@$0A@@std@@@std@@QAE@PAU_Node@?$_Tree_nod@V?$_Tmap_traits@EHU?$less@E@std@@V?$allocator@U?$pair@$$CBEH@std@@@2@$0A@@std@@@2@@Z ENDP ; std::_Tree<std::_Tmap_traits<unsigned char,int,std::less<unsigned char>,std::allocator<std::pair<unsigned char const ,int> >,0> >::const_iterator::const_iterator
_TEXT	ENDS
PUBLIC	?_Mynode@const_iterator@?$_Tree@V?$_Tmap_traits@EHU?$less@E@std@@V?$allocator@U?$pair@$$CBEH@std@@@2@$0A@@std@@@std@@QBEPAU_Node@?$_Tree_nod@V?$_Tmap_traits@EHU?$less@E@std@@V?$allocator@U?$pair@$$CBEH@std@@@2@$0A@@std@@@3@XZ ; std::_Tree<std::_Tmap_traits<unsigned char,int,std::less<unsigned char>,std::allocator<std::pair<unsigned char const ,int> >,0> >::const_iterator::_Mynode
; Function compile flags: /Ogty
;	COMDAT ?_Mynode@const_iterator@?$_Tree@V?$_Tmap_traits@EHU?$less@E@std@@V?$allocator@U?$pair@$$CBEH@std@@@2@$0A@@std@@@std@@QBEPAU_Node@?$_Tree_nod@V?$_Tmap_traits@EHU?$less@E@std@@V?$allocator@U?$pair@$$CBEH@std@@@2@$0A@@std@@@3@XZ
_TEXT	SEGMENT
?_Mynode@const_iterator@?$_Tree@V?$_Tmap_traits@EHU?$less@E@std@@V?$allocator@U?$pair@$$CBEH@std@@@2@$0A@@std@@@std@@QBEPAU_Node@?$_Tree_nod@V?$_Tmap_traits@EHU?$less@E@std@@V?$allocator@U?$pair@$$CBEH@std@@@2@$0A@@std@@@3@XZ PROC NEAR ; std::_Tree<std::_Tmap_traits<unsigned char,int,std::less<unsigned char>,std::allocator<std::pair<unsigned char const ,int> >,0> >::const_iterator::_Mynode, COMDAT
; _this$ = ecx

; 284  : 			return (_Ptr);

  00000	8b 01		 mov	 eax, DWORD PTR [ecx]

; 285  : 			}

  00002	c3		 ret	 0
?_Mynode@const_iterator@?$_Tree@V?$_Tmap_traits@EHU?$less@E@std@@V?$allocator@U?$pair@$$CBEH@std@@@2@$0A@@std@@@std@@QBEPAU_Node@?$_Tree_nod@V?$_Tmap_traits@EHU?$less@E@std@@V?$allocator@U?$pair@$$CBEH@std@@@2@$0A@@std@@@3@XZ ENDP ; std::_Tree<std::_Tmap_traits<unsigned char,int,std::less<unsigned char>,std::allocator<std::pair<unsigned char const ,int> >,0> >::const_iterator::_Mynode
_TEXT	ENDS
PUBLIC	??0_Node@?$_Tree_nod@V?$_Tmap_traits@EHU?$less@E@std@@V?$allocator@U?$pair@$$CBEH@std@@@2@$0A@@std@@@std@@QAE@PAU012@00ABU?$pair@$$CBEH@2@D@Z ; std::_Tree_nod<std::_Tmap_traits<unsigned char,int,std::less<unsigned char>,std::allocator<std::pair<unsigned char const ,int> >,0> >::_Node::_Node
; Function compile flags: /Ogty
;	COMDAT ??0_Node@?$_Tree_nod@V?$_Tmap_traits@EHU?$less@E@std@@V?$allocator@U?$pair@$$CBEH@std@@@2@$0A@@std@@@std@@QAE@PAU012@00ABU?$pair@$$CBEH@2@D@Z
_TEXT	SEGMENT
__Larg$ = 8						; size = 4
__Parg$ = 12						; size = 4
__Rarg$ = 16						; size = 4
__Val$ = 20						; size = 4
__Carg$ = 24						; size = 1
??0_Node@?$_Tree_nod@V?$_Tmap_traits@EHU?$less@E@std@@V?$allocator@U?$pair@$$CBEH@std@@@2@$0A@@std@@@std@@QAE@PAU012@00ABU?$pair@$$CBEH@2@D@Z PROC NEAR ; std::_Tree_nod<std::_Tmap_traits<unsigned char,int,std::less<unsigned char>,std::allocator<std::pair<unsigned char const ,int> >,0> >::_Node::_Node, COMDAT
; _this$ = ecx

; 40   : 			{	// construct a node with value

  00000	8b 54 24 08	 mov	 edx, DWORD PTR __Parg$[esp-4]
  00004	8b c1		 mov	 eax, ecx
  00006	8b 4c 24 04	 mov	 ecx, DWORD PTR __Larg$[esp-4]
  0000a	89 08		 mov	 DWORD PTR [eax], ecx
  0000c	8b 4c 24 0c	 mov	 ecx, DWORD PTR __Rarg$[esp-4]
  00010	89 48 08	 mov	 DWORD PTR [eax+8], ecx
  00013	8b 4c 24 10	 mov	 ecx, DWORD PTR __Val$[esp-4]
  00017	89 50 04	 mov	 DWORD PTR [eax+4], edx
  0001a	8b 11		 mov	 edx, DWORD PTR [ecx]
  0001c	89 50 0c	 mov	 DWORD PTR [eax+12], edx
  0001f	8b 49 04	 mov	 ecx, DWORD PTR [ecx+4]
  00022	8a 54 24 14	 mov	 dl, BYTE PTR __Carg$[esp-4]
  00026	89 48 10	 mov	 DWORD PTR [eax+16], ecx
  00029	88 50 14	 mov	 BYTE PTR [eax+20], dl
  0002c	c6 40 15 00	 mov	 BYTE PTR [eax+21], 0

; 41   : 			}

  00030	c2 14 00	 ret	 20			; 00000014H
??0_Node@?$_Tree_nod@V?$_Tmap_traits@EHU?$less@E@std@@V?$allocator@U?$pair@$$CBEH@std@@@2@$0A@@std@@@std@@QAE@PAU012@00ABU?$pair@$$CBEH@2@D@Z ENDP ; std::_Tree_nod<std::_Tmap_traits<unsigned char,int,std::less<unsigned char>,std::allocator<std::pair<unsigned char const ,int> >,0> >::_Node::_Node
_TEXT	ENDS
PUBLIC	?_Inc@const_iterator@?$_Tree@V?$_Tmap_traits@EHU?$less@E@std@@V?$allocator@U?$pair@$$CBEH@std@@@2@$0A@@std@@@std@@QAEXXZ ; std::_Tree<std::_Tmap_traits<unsigned char,int,std::less<unsigned char>,std::allocator<std::pair<unsigned char const ,int> >,0> >::const_iterator::_Inc
; Function compile flags: /Ogty
;	COMDAT ?_Inc@const_iterator@?$_Tree@V?$_Tmap_traits@EHU?$less@E@std@@V?$allocator@U?$pair@$$CBEH@std@@@2@$0A@@std@@@std@@QAEXXZ
_TEXT	SEGMENT
?_Inc@const_iterator@?$_Tree@V?$_Tmap_traits@EHU?$less@E@std@@V?$allocator@U?$pair@$$CBEH@std@@@2@$0A@@std@@@std@@QAEXXZ PROC NEAR ; std::_Tree<std::_Tmap_traits<unsigned char,int,std::less<unsigned char>,std::allocator<std::pair<unsigned char const ,int> >,0> >::const_iterator::_Inc, COMDAT
; _this$ = ecx

; 268  : 			if (_Isnil(_Ptr))

  00000	8b 01		 mov	 eax, DWORD PTR [ecx]
  00002	8a 50 15	 mov	 dl, BYTE PTR [eax+21]
  00005	84 d2		 test	 dl, dl
  00007	75 4d		 jne	 SHORT $L215744

; 269  : 				;	// end() shouldn't be incremented, don't move
; 270  : 			else if (!_Isnil(_Right(_Ptr)))

  00009	8b 50 08	 mov	 edx, DWORD PTR [eax+8]
  0000c	53		 push	 ebx
  0000d	8a 5a 15	 mov	 bl, BYTE PTR [edx+21]
  00010	84 db		 test	 bl, bl
  00012	75 1b		 jne	 SHORT $L217195

; 271  : 				_Ptr = _Min(_Right(_Ptr));	// ==> smallest of right subtree

  00014	8b 02		 mov	 eax, DWORD PTR [edx]
  00016	8a 58 15	 mov	 bl, BYTE PTR [eax+21]
  00019	84 db		 test	 bl, bl
  0001b	75 0e		 jne	 SHORT $L217183
  0001d	8d 49 00	 npad	 3
$L217182:
  00020	8b d0		 mov	 edx, eax
  00022	8b 02		 mov	 eax, DWORD PTR [edx]
  00024	8a 58 15	 mov	 bl, BYTE PTR [eax+21]
  00027	84 db		 test	 bl, bl
  00029	74 f5		 je	 SHORT $L217182
$L217183:
  0002b	89 11		 mov	 DWORD PTR [ecx], edx
  0002d	5b		 pop	 ebx

; 279  : 				}
; 280  : 			}

  0002e	c3		 ret	 0
$L217195:

; 272  : 			else
; 273  : 				{	// climb looking for right subtree
; 274  : 				_Nodeptr _Pnode;
; 275  : 				while (!_Isnil(_Pnode = _Parent(_Ptr))
; 276  : 					&& _Ptr == _Right(_Pnode))

  0002f	8b 40 04	 mov	 eax, DWORD PTR [eax+4]
  00032	8a 50 15	 mov	 dl, BYTE PTR [eax+21]
  00035	84 d2		 test	 dl, dl
  00037	75 1a		 jne	 SHORT $L215748
  00039	8d a4 24 00 00
	00 00		 npad	 7
$L215747:
  00040	8b 11		 mov	 edx, DWORD PTR [ecx]
  00042	3b 50 08	 cmp	 edx, DWORD PTR [eax+8]
  00045	75 0c		 jne	 SHORT $L215748

; 277  : 					_Ptr = _Pnode;	// ==> parent while right subtree

  00047	89 01		 mov	 DWORD PTR [ecx], eax
  00049	8b 40 04	 mov	 eax, DWORD PTR [eax+4]
  0004c	8a 50 15	 mov	 dl, BYTE PTR [eax+21]
  0004f	84 d2		 test	 dl, dl
  00051	74 ed		 je	 SHORT $L215747
$L215748:

; 278  : 				_Ptr = _Pnode;	// ==> parent (head if end())

  00053	89 01		 mov	 DWORD PTR [ecx], eax
  00055	5b		 pop	 ebx
$L215744:

; 279  : 				}
; 280  : 			}

  00056	c3		 ret	 0
?_Inc@const_iterator@?$_Tree@V?$_Tmap_traits@EHU?$less@E@std@@V?$allocator@U?$pair@$$CBEH@std@@@2@$0A@@std@@@std@@QAEXXZ ENDP ; std::_Tree<std::_Tmap_traits<unsigned char,int,std::less<unsigned char>,std::allocator<std::pair<unsigned char const ,int> >,0> >::const_iterator::_Inc
_TEXT	ENDS
PUBLIC	??$?0U?$pair@$$CBEH@std@@@?$allocator@PAU_Node@?$_Tree_nod@V?$_Tmap_traits@EHU?$less@E@std@@V?$allocator@U?$pair@$$CBEH@std@@@2@$0A@@std@@@std@@@std@@QAE@ABV?$allocator@U?$pair@$$CBEH@std@@@1@@Z ; std::allocator<std::_Tree_nod<std::_Tmap_traits<unsigned char,int,std::less<unsigned char>,std::allocator<std::pair<unsigned char const ,int> >,0> >::_Node *>::allocator<std::_Tree_nod<std::_Tmap_traits<unsigned char,int,std::less<unsigned char>,std::allocator<std::pair<unsigned char const ,int> >,0> >::_Node *><std::pair<unsigned char const ,int> >
; Function compile flags: /Ogty
; File c:\program files\microsoft visual studio .net 2003\vc7\include\xmemory
;	COMDAT ??$?0U?$pair@$$CBEH@std@@@?$allocator@PAU_Node@?$_Tree_nod@V?$_Tmap_traits@EHU?$less@E@std@@V?$allocator@U?$pair@$$CBEH@std@@@2@$0A@@std@@@std@@@std@@QAE@ABV?$allocator@U?$pair@$$CBEH@std@@@1@@Z
_TEXT	SEGMENT
___formal$ = 8						; size = 4
??$?0U?$pair@$$CBEH@std@@@?$allocator@PAU_Node@?$_Tree_nod@V?$_Tmap_traits@EHU?$less@E@std@@V?$allocator@U?$pair@$$CBEH@std@@@2@$0A@@std@@@std@@@std@@QAE@ABV?$allocator@U?$pair@$$CBEH@std@@@1@@Z PROC NEAR ; std::allocator<std::_Tree_nod<std::_Tmap_traits<unsigned char,int,std::less<unsigned char>,std::allocator<std::pair<unsigned char const ,int> >,0> >::_Node *>::allocator<std::_Tree_nod<std::_Tmap_traits<unsigned char,int,std::less<unsigned char>,std::allocator<std::pair<unsigned char const ,int> >,0> >::_Node *><std::pair<unsigned char const ,int> >, COMDAT
; _this$ = ecx

; 120  : 		allocator(const allocator<_Other>&)

  00000	8b c1		 mov	 eax, ecx

; 121  : 		{	// construct from a related allocator (do nothing)
; 122  : 		}

  00002	c2 04 00	 ret	 4
??$?0U?$pair@$$CBEH@std@@@?$allocator@PAU_Node@?$_Tree_nod@V?$_Tmap_traits@EHU?$less@E@std@@V?$allocator@U?$pair@$$CBEH@std@@@2@$0A@@std@@@std@@@std@@QAE@ABV?$allocator@U?$pair@$$CBEH@std@@@1@@Z ENDP ; std::allocator<std::_Tree_nod<std::_Tmap_traits<unsigned char,int,std::less<unsigned char>,std::allocator<std::pair<unsigned char const ,int> >,0> >::_Node *>::allocator<std::_Tree_nod<std::_Tmap_traits<unsigned char,int,std::less<unsigned char>,std::allocator<std::pair<unsigned char const ,int> >,0> >::_Node *><std::pair<unsigned char const ,int> >
_TEXT	ENDS
PUBLIC	??$_Destroy@PAU_Node@?$_Tree_nod@V?$_Tmap_traits@EHU?$less@E@std@@V?$allocator@U?$pair@$$CBEH@std@@@2@$0A@@std@@@std@@@std@@YAXPAPAU_Node@?$_Tree_nod@V?$_Tmap_traits@EHU?$less@E@std@@V?$allocator@U?$pair@$$CBEH@std@@@2@$0A@@std@@@0@@Z ; std::_Destroy<std::_Tree_nod<std::_Tmap_traits<unsigned char,int,std::less<unsigned char>,std::allocator<std::pair<unsigned char const ,int> >,0> >::_Node *>
; Function compile flags: /Ogty
;	COMDAT ??$_Destroy@PAU_Node@?$_Tree_nod@V?$_Tmap_traits@EHU?$less@E@std@@V?$allocator@U?$pair@$$CBEH@std@@@2@$0A@@std@@@std@@@std@@YAXPAPAU_Node@?$_Tree_nod@V?$_Tmap_traits@EHU?$less@E@std@@V?$allocator@U?$pair@$$CBEH@std@@@2@$0A@@std@@@0@@Z
_TEXT	SEGMENT
__Ptr$ = 8						; size = 4
??$_Destroy@PAU_Node@?$_Tree_nod@V?$_Tmap_traits@EHU?$less@E@std@@V?$allocator@U?$pair@$$CBEH@std@@@2@$0A@@std@@@std@@@std@@YAXPAPAU_Node@?$_Tree_nod@V?$_Tmap_traits@EHU?$less@E@std@@V?$allocator@U?$pair@$$CBEH@std@@@2@$0A@@std@@@0@@Z PROC NEAR ; std::_Destroy<std::_Tree_nod<std::_Tmap_traits<unsigned char,int,std::less<unsigned char>,std::allocator<std::pair<unsigned char const ,int> >,0> >::_Node *>, COMDAT

; 49   : 	_DESTRUCTOR(_Ty, _Ptr);
; 50   : 	}

  00000	c3		 ret	 0
??$_Destroy@PAU_Node@?$_Tree_nod@V?$_Tmap_traits@EHU?$less@E@std@@V?$allocator@U?$pair@$$CBEH@std@@@2@$0A@@std@@@std@@@std@@YAXPAPAU_Node@?$_Tree_nod@V?$_Tmap_traits@EHU?$less@E@std@@V?$allocator@U?$pair@$$CBEH@std@@@2@$0A@@std@@@0@@Z ENDP ; std::_Destroy<std::_Tree_nod<std::_Tmap_traits<unsigned char,int,std::less<unsigned char>,std::allocator<std::pair<unsigned char const ,int> >,0> >::_Node *>
_TEXT	ENDS
PUBLIC	??$?0U?$pair@$$CBEH@std@@@?$allocator@U_Node@?$_Tree_nod@V?$_Tmap_traits@EHU?$less@E@std@@V?$allocator@U?$pair@$$CBEH@std@@@2@$0A@@std@@@std@@@std@@QAE@ABV?$allocator@U?$pair@$$CBEH@std@@@1@@Z ; std::allocator<std::_Tree_nod<std::_Tmap_traits<unsigned char,int,std::less<unsigned char>,std::allocator<std::pair<unsigned char const ,int> >,0> >::_Node>::allocator<std::_Tree_nod<std::_Tmap_traits<unsigned char,int,std::less<unsigned char>,std::allocator<std::pair<unsigned char const ,int> >,0> >::_Node><std::pair<unsigned char const ,int> >
; Function compile flags: /Ogty
;	COMDAT ??$?0U?$pair@$$CBEH@std@@@?$allocator@U_Node@?$_Tree_nod@V?$_Tmap_traits@EHU?$less@E@std@@V?$allocator@U?$pair@$$CBEH@std@@@2@$0A@@std@@@std@@@std@@QAE@ABV?$allocator@U?$pair@$$CBEH@std@@@1@@Z
_TEXT	SEGMENT
___formal$ = 8						; size = 4
??$?0U?$pair@$$CBEH@std@@@?$allocator@U_Node@?$_Tree_nod@V?$_Tmap_traits@EHU?$less@E@std@@V?$allocator@U?$pair@$$CBEH@std@@@2@$0A@@std@@@std@@@std@@QAE@ABV?$allocator@U?$pair@$$CBEH@std@@@1@@Z PROC NEAR ; std::allocator<std::_Tree_nod<std::_Tmap_traits<unsigned char,int,std::less<unsigned char>,std::allocator<std::pair<unsigned char const ,int> >,0> >::_Node>::allocator<std::_Tree_nod<std::_Tmap_traits<unsigned char,int,std::less<unsigned char>,std::allocator<std::pair<unsigned char const ,int> >,0> >::_Node><std::pair<unsigned char const ,int> >, COMDAT
; _this$ = ecx

; 120  : 		allocator(const allocator<_Other>&)

  00000	8b c1		 mov	 eax, ecx

; 121  : 		{	// construct from a related allocator (do nothing)
; 122  : 		}

  00002	c2 04 00	 ret	 4
??$?0U?$pair@$$CBEH@std@@@?$allocator@U_Node@?$_Tree_nod@V?$_Tmap_traits@EHU?$less@E@std@@V?$allocator@U?$pair@$$CBEH@std@@@2@$0A@@std@@@std@@@std@@QAE@ABV?$allocator@U?$pair@$$CBEH@std@@@1@@Z ENDP ; std::allocator<std::_Tree_nod<std::_Tmap_traits<unsigned char,int,std::less<unsigned char>,std::allocator<std::pair<unsigned char const ,int> >,0> >::_Node>::allocator<std::_Tree_nod<std::_Tmap_traits<unsigned char,int,std::less<unsigned char>,std::allocator<std::pair<unsigned char const ,int> >,0> >::_Node><std::pair<unsigned char const ,int> >
_TEXT	ENDS
PUBLIC	??$_Allocate@U_Node@?$_Tree_nod@V?$_Tmap_traits@EHU?$less@E@std@@V?$allocator@U?$pair@$$CBEH@std@@@2@$0A@@std@@@std@@@std@@YAPAU_Node@?$_Tree_nod@V?$_Tmap_traits@EHU?$less@E@std@@V?$allocator@U?$pair@$$CBEH@std@@@2@$0A@@std@@@0@IPAU120@@Z ; std::_Allocate<std::_Tree_nod<std::_Tmap_traits<unsigned char,int,std::less<unsigned char>,std::allocator<std::pair<unsigned char const ,int> >,0> >::_Node>
EXTRN	??2@YAPAXI@Z:NEAR				; operator new
; Function compile flags: /Ogty
;	COMDAT ??$_Allocate@U_Node@?$_Tree_nod@V?$_Tmap_traits@EHU?$less@E@std@@V?$allocator@U?$pair@$$CBEH@std@@@2@$0A@@std@@@std@@@std@@YAPAU_Node@?$_Tree_nod@V?$_Tmap_traits@EHU?$less@E@std@@V?$allocator@U?$pair@$$CBEH@std@@@2@$0A@@std@@@0@IPAU120@@Z
_TEXT	SEGMENT
__Count$ = 8						; size = 4
___formal$ = 12						; size = 4
??$_Allocate@U_Node@?$_Tree_nod@V?$_Tmap_traits@EHU?$less@E@std@@V?$allocator@U?$pair@$$CBEH@std@@@2@$0A@@std@@@std@@@std@@YAPAU_Node@?$_Tree_nod@V?$_Tmap_traits@EHU?$less@E@std@@V?$allocator@U?$pair@$$CBEH@std@@@2@$0A@@std@@@0@IPAU120@@Z PROC NEAR ; std::_Allocate<std::_Tree_nod<std::_Tmap_traits<unsigned char,int,std::less<unsigned char>,std::allocator<std::pair<unsigned char const ,int> >,0> >::_Node>, COMDAT

; 34   : 	return ((_Ty _FARQ *)operator new(_Count * sizeof (_Ty)));

  00000	8b 44 24 04	 mov	 eax, DWORD PTR __Count$[esp-4]
  00004	8d 04 40	 lea	 eax, DWORD PTR [eax+eax*2]
  00007	c1 e0 03	 shl	 eax, 3
  0000a	50		 push	 eax
  0000b	e8 00 00 00 00	 call	 ??2@YAPAXI@Z		; operator new
  00010	83 c4 04	 add	 esp, 4

; 35   : 	}

  00013	c3		 ret	 0
??$_Allocate@U_Node@?$_Tree_nod@V?$_Tmap_traits@EHU?$less@E@std@@V?$allocator@U?$pair@$$CBEH@std@@@2@$0A@@std@@@std@@@std@@YAPAU_Node@?$_Tree_nod@V?$_Tmap_traits@EHU?$less@E@std@@V?$allocator@U?$pair@$$CBEH@std@@@2@$0A@@std@@@0@IPAU120@@Z ENDP ; std::_Allocate<std::_Tree_nod<std::_Tmap_traits<unsigned char,int,std::less<unsigned char>,std::allocator<std::pair<unsigned char const ,int> >,0> >::_Node>
_TEXT	ENDS
PUBLIC	??$_Construct@PAU_Node@?$_Tree_nod@V?$_Tmap_traits@EHU?$less@E@std@@V?$allocator@U?$pair@$$CBEH@std@@@2@$0A@@std@@@std@@PAU123@@std@@YAXPAPAU_Node@?$_Tree_nod@V?$_Tmap_traits@EHU?$less@E@std@@V?$allocator@U?$pair@$$CBEH@std@@@2@$0A@@std@@@0@ABQAU120@@Z ; std::_Construct<std::_Tree_nod<std::_Tmap_traits<unsigned char,int,std::less<unsigned char>,std::allocator<std::pair<unsigned char const ,int> >,0> >::_Node *,std::_Tree_nod<std::_Tmap_traits<unsigned char,int,std::less<unsigned char>,std::allocator<std::pair<unsigned char const ,int> >,0> >::_Node *>
; Function compile flags: /Ogty
;	COMDAT ??$_Construct@PAU_Node@?$_Tree_nod@V?$_Tmap_traits@EHU?$less@E@std@@V?$allocator@U?$pair@$$CBEH@std@@@2@$0A@@std@@@std@@PAU123@@std@@YAXPAPAU_Node@?$_Tree_nod@V?$_Tmap_traits@EHU?$less@E@std@@V?$allocator@U?$pair@$$CBEH@std@@@2@$0A@@std@@@0@ABQAU120@@Z
_TEXT	SEGMENT
__Ptr$ = 8						; size = 4
__Val$ = 12						; size = 4
??$_Construct@PAU_Node@?$_Tree_nod@V?$_Tmap_traits@EHU?$less@E@std@@V?$allocator@U?$pair@$$CBEH@std@@@2@$0A@@std@@@std@@PAU123@@std@@YAXPAPAU_Node@?$_Tree_nod@V?$_Tmap_traits@EHU?$less@E@std@@V?$allocator@U?$pair@$$CBEH@std@@@2@$0A@@std@@@0@ABQAU120@@Z PROC NEAR ; std::_Construct<std::_Tree_nod<std::_Tmap_traits<unsigned char,int,std::less<unsigned char>,std::allocator<std::pair<unsigned char const ,int> >,0> >::_Node *,std::_Tree_nod<std::_Tmap_traits<unsigned char,int,std::less<unsigned char>,std::allocator<std::pair<unsigned char const ,int> >,0> >::_Node *>, COMDAT

; 42   : 	new ((void _FARQ *)_Ptr) _T1(_Val);

  00000	8b 44 24 04	 mov	 eax, DWORD PTR __Ptr$[esp-4]
  00004	85 c0		 test	 eax, eax
  00006	74 08		 je	 SHORT $L217210
  00008	8b 4c 24 08	 mov	 ecx, DWORD PTR __Val$[esp-4]
  0000c	8b 11		 mov	 edx, DWORD PTR [ecx]
  0000e	89 10		 mov	 DWORD PTR [eax], edx
$L217210:

; 43   : 	}

  00010	c3		 ret	 0
??$_Construct@PAU_Node@?$_Tree_nod@V?$_Tmap_traits@EHU?$less@E@std@@V?$allocator@U?$pair@$$CBEH@std@@@2@$0A@@std@@@std@@PAU123@@std@@YAXPAPAU_Node@?$_Tree_nod@V?$_Tmap_traits@EHU?$less@E@std@@V?$allocator@U?$pair@$$CBEH@std@@@2@$0A@@std@@@0@ABQAU120@@Z ENDP ; std::_Construct<std::_Tree_nod<std::_Tmap_traits<unsigned char,int,std::less<unsigned char>,std::allocator<std::pair<unsigned char const ,int> >,0> >::_Node *,std::_Tree_nod<std::_Tmap_traits<unsigned char,int,std::less<unsigned char>,std::allocator<std::pair<unsigned char const ,int> >,0> >::_Node *>
_TEXT	ENDS
PUBLIC	??$_Allocate@U_Node@?$_Tree_nod@V?$_Tset_traits@V?$basic_string@DU?$char_traits@D@std@@V?$allocator@D@2@@std@@U?$less@V?$basic_string@DU?$char_traits@D@std@@V?$allocator@D@2@@std@@@2@V?$allocator@V?$basic_string@DU?$char_traits@D@std@@V?$allocator@D@2@@std@@@2@$0A@@std@@@std@@@std@@YAPAU_Node@?$_Tree_nod@V?$_Tset_traits@V?$basic_string@DU?$char_traits@D@std@@V?$allocator@D@2@@std@@U?$less@V?$basic_string@DU?$char_traits@D@std@@V?$allocator@D@2@@std@@@2@V?$allocator@V?$basic_string@DU?$char_traits@D@std@@V?$allocator@D@2@@std@@@2@$0A@@std@@@0@IPAU120@@Z ; std::_Allocate<std::_Tree_nod<std::_Tset_traits<std::basic_string<char,std::char_traits<char>,std::allocator<char> >,std::less<std::basic_string<char,std::char_traits<char>,std::allocator<char> > >,std::allocator<std::basic_string<char,std::char_traits<char>,std::allocator<char> > >,0> >::_Node>
; Function compile flags: /Ogty
;	COMDAT ??$_Allocate@U_Node@?$_Tree_nod@V?$_Tset_traits@V?$basic_string@DU?$char_traits@D@std@@V?$allocator@D@2@@std@@U?$less@V?$basic_string@DU?$char_traits@D@std@@V?$allocator@D@2@@std@@@2@V?$allocator@V?$basic_string@DU?$char_traits@D@std@@V?$allocator@D@2@@std@@@2@$0A@@std@@@std@@@std@@YAPAU_Node@?$_Tree_nod@V?$_Tset_traits@V?$basic_string@DU?$char_traits@D@std@@V?$allocator@D@2@@std@@U?$less@V?$basic_string@DU?$char_traits@D@std@@V?$allocator@D@2@@std@@@2@V?$allocator@V?$basic_string@DU?$char_traits@D@std@@V?$allocator@D@2@@std@@@2@$0A@@std@@@0@IPAU120@@Z
_TEXT	SEGMENT
__Count$ = 8						; size = 4
___formal$ = 12						; size = 4
??$_Allocate@U_Node@?$_Tree_nod@V?$_Tset_traits@V?$basic_string@DU?$char_traits@D@std@@V?$allocator@D@2@@std@@U?$less@V?$basic_string@DU?$char_traits@D@std@@V?$allocator@D@2@@std@@@2@V?$allocator@V?$basic_string@DU?$char_traits@D@std@@V?$allocator@D@2@@std@@@2@$0A@@std@@@std@@@std@@YAPAU_Node@?$_Tree_nod@V?$_Tset_traits@V?$basic_string@DU?$char_traits@D@std@@V?$allocator@D@2@@std@@U?$less@V?$basic_string@DU?$char_traits@D@std@@V?$allocator@D@2@@std@@@2@V?$allocator@V?$basic_string@DU?$char_traits@D@std@@V?$allocator@D@2@@std@@@2@$0A@@std@@@0@IPAU120@@Z PROC NEAR ; std::_Allocate<std::_Tree_nod<std::_Tset_traits<std::basic_string<char,std::char_traits<char>,std::allocator<char> >,std::less<std::basic_string<char,std::char_traits<char>,std::allocator<char> > >,std::allocator<std::basic_string<char,std::char_traits<char>,std::allocator<char> > >,0> >::_Node>, COMDAT

; 34   : 	return ((_Ty _FARQ *)operator new(_Count * sizeof (_Ty)));

  00000	8b 44 24 04	 mov	 eax, DWORD PTR __Count$[esp-4]
  00004	6b c0 2c	 imul	 eax, 44			; 0000002cH
  00007	50		 push	 eax
  00008	e8 00 00 00 00	 call	 ??2@YAPAXI@Z		; operator new
  0000d	83 c4 04	 add	 esp, 4

; 35   : 	}

  00010	c3		 ret	 0
??$_Allocate@U_Node@?$_Tree_nod@V?$_Tset_traits@V?$basic_string@DU?$char_traits@D@std@@V?$allocator@D@2@@std@@U?$less@V?$basic_string@DU?$char_traits@D@std@@V?$allocator@D@2@@std@@@2@V?$allocator@V?$basic_string@DU?$char_traits@D@std@@V?$allocator@D@2@@std@@@2@$0A@@std@@@std@@@std@@YAPAU_Node@?$_Tree_nod@V?$_Tset_traits@V?$basic_string@DU?$char_traits@D@std@@V?$allocator@D@2@@std@@U?$less@V?$basic_string@DU?$char_traits@D@std@@V?$allocator@D@2@@std@@@2@V?$allocator@V?$basic_string@DU?$char_traits@D@std@@V?$allocator@D@2@@std@@@2@$0A@@std@@@0@IPAU120@@Z ENDP ; std::_Allocate<std::_Tree_nod<std::_Tset_traits<std::basic_string<char,std::char_traits<char>,std::allocator<char> >,std::less<std::basic_string<char,std::char_traits<char>,std::allocator<char> > >,std::allocator<std::basic_string<char,std::char_traits<char>,std::allocator<char> > >,0> >::_Node>
_TEXT	ENDS
PUBLIC	??$_Destroy@U_Node@?$_List_nod@PAXV?$allocator@PAX@std@@@std@@@std@@YAXPAU_Node@?$_List_nod@PAXV?$allocator@PAX@std@@@0@@Z ; std::_Destroy<std::_List_nod<void *,std::allocator<void *> >::_Node>
; Function compile flags: /Ogty
;	COMDAT ??$_Destroy@U_Node@?$_List_nod@PAXV?$allocator@PAX@std@@@std@@@std@@YAXPAU_Node@?$_List_nod@PAXV?$allocator@PAX@std@@@0@@Z
_TEXT	SEGMENT
__Ptr$ = 8						; size = 4
??$_Destroy@U_Node@?$_List_nod@PAXV?$allocator@PAX@std@@@std@@@std@@YAXPAU_Node@?$_List_nod@PAXV?$allocator@PAX@std@@@0@@Z PROC NEAR ; std::_Destroy<std::_List_nod<void *,std::allocator<void *> >::_Node>, COMDAT

; 49   : 	_DESTRUCTOR(_Ty, _Ptr);
; 50   : 	}

  00000	c3		 ret	 0
??$_Destroy@U_Node@?$_List_nod@PAXV?$allocator@PAX@std@@@std@@@std@@YAXPAU_Node@?$_List_nod@PAXV?$allocator@PAX@std@@@0@@Z ENDP ; std::_Destroy<std::_List_nod<void *,std::allocator<void *> >::_Node>
_TEXT	ENDS
PUBLIC	??$_Destroy@PAU_Node@?$_List_nod@PAXV?$allocator@PAX@std@@@std@@@std@@YAXPAPAU_Node@?$_List_nod@PAXV?$allocator@PAX@std@@@0@@Z ; std::_Destroy<std::_List_nod<void *,std::allocator<void *> >::_Node *>
; Function compile flags: /Ogty
;	COMDAT ??$_Destroy@PAU_Node@?$_List_nod@PAXV?$allocator@PAX@std@@@std@@@std@@YAXPAPAU_Node@?$_List_nod@PAXV?$allocator@PAX@std@@@0@@Z
_TEXT	SEGMENT
__Ptr$ = 8						; size = 4
??$_Destroy@PAU_Node@?$_List_nod@PAXV?$allocator@PAX@std@@@std@@@std@@YAXPAPAU_Node@?$_List_nod@PAXV?$allocator@PAX@std@@@0@@Z PROC NEAR ; std::_Destroy<std::_List_nod<void *,std::allocator<void *> >::_Node *>, COMDAT

; 49   : 	_DESTRUCTOR(_Ty, _Ptr);
; 50   : 	}

  00000	c3		 ret	 0
??$_Destroy@PAU_Node@?$_List_nod@PAXV?$allocator@PAX@std@@@std@@@std@@YAXPAPAU_Node@?$_List_nod@PAXV?$allocator@PAX@std@@@0@@Z ENDP ; std::_Destroy<std::_List_nod<void *,std::allocator<void *> >::_Node *>
_TEXT	ENDS
PUBLIC	??$_Destroy@U_Node@?$_Tree_nod@V?$_Tmap_traits@EHU?$less@E@std@@V?$allocator@U?$pair@$$CBEH@std@@@2@$0A@@std@@@std@@@std@@YAXPAU_Node@?$_Tree_nod@V?$_Tmap_traits@EHU?$less@E@std@@V?$allocator@U?$pair@$$CBEH@std@@@2@$0A@@std@@@0@@Z ; std::_Destroy<std::_Tree_nod<std::_Tmap_traits<unsigned char,int,std::less<unsigned char>,std::allocator<std::pair<unsigned char const ,int> >,0> >::_Node>
; Function compile flags: /Ogty
;	COMDAT ??$_Destroy@U_Node@?$_Tree_nod@V?$_Tmap_traits@EHU?$less@E@std@@V?$allocator@U?$pair@$$CBEH@std@@@2@$0A@@std@@@std@@@std@@YAXPAU_Node@?$_Tree_nod@V?$_Tmap_traits@EHU?$less@E@std@@V?$allocator@U?$pair@$$CBEH@std@@@2@$0A@@std@@@0@@Z
_TEXT	SEGMENT
__Ptr$ = 8						; size = 4
??$_Destroy@U_Node@?$_Tree_nod@V?$_Tmap_traits@EHU?$less@E@std@@V?$allocator@U?$pair@$$CBEH@std@@@2@$0A@@std@@@std@@@std@@YAXPAU_Node@?$_Tree_nod@V?$_Tmap_traits@EHU?$less@E@std@@V?$allocator@U?$pair@$$CBEH@std@@@2@$0A@@std@@@0@@Z PROC NEAR ; std::_Destroy<std::_Tree_nod<std::_Tmap_traits<unsigned char,int,std::less<unsigned char>,std::allocator<std::pair<unsigned char const ,int> >,0> >::_Node>, COMDAT

; 49   : 	_DESTRUCTOR(_Ty, _Ptr);
; 50   : 	}

  00000	c3		 ret	 0
??$_Destroy@U_Node@?$_Tree_nod@V?$_Tmap_traits@EHU?$less@E@std@@V?$allocator@U?$pair@$$CBEH@std@@@2@$0A@@std@@@std@@@std@@YAXPAU_Node@?$_Tree_nod@V?$_Tmap_traits@EHU?$less@E@std@@V?$allocator@U?$pair@$$CBEH@std@@@2@$0A@@std@@@0@@Z ENDP ; std::_Destroy<std::_Tree_nod<std::_Tmap_traits<unsigned char,int,std::less<unsigned char>,std::allocator<std::pair<unsigned char const ,int> >,0> >::_Node>
_TEXT	ENDS
PUBLIC	?assign@?$char_traits@D@std@@SAXAADABD@Z	; std::char_traits<char>::assign
; Function compile flags: /Ogty
; File c:\program files\microsoft visual studio .net 2003\vc7\include\iosfwd
;	COMDAT ?assign@?$char_traits@D@std@@SAXAADABD@Z
_TEXT	SEGMENT
__Left$ = 8						; size = 4
__Right$ = 12						; size = 4
?assign@?$char_traits@D@std@@SAXAADABD@Z PROC NEAR	; std::char_traits<char>::assign, COMDAT

; 331  : 		_Left = _Right;

  00000	8b 44 24 08	 mov	 eax, DWORD PTR __Right$[esp-4]
  00004	8a 08		 mov	 cl, BYTE PTR [eax]
  00006	8b 54 24 04	 mov	 edx, DWORD PTR __Left$[esp-4]
  0000a	88 0a		 mov	 BYTE PTR [edx], cl

; 332  : 		}

  0000c	c3		 ret	 0
?assign@?$char_traits@D@std@@SAXAADABD@Z ENDP		; std::char_traits<char>::assign
_TEXT	ENDS
PUBLIC	?compare@?$char_traits@D@std@@SAHPBD0I@Z	; std::char_traits<char>::compare
; Function compile flags: /Ogty
;	COMDAT ?compare@?$char_traits@D@std@@SAHPBD0I@Z
_TEXT	SEGMENT
__First1$ = 8						; size = 4
__First2$ = 12						; size = 4
__Count$ = 16						; size = 4
?compare@?$char_traits@D@std@@SAHPBD0I@Z PROC NEAR	; std::char_traits<char>::compare, COMDAT

; 347  : 		return (::memcmp(_First1, _First2, _Count));

  00000	8b 4c 24 0c	 mov	 ecx, DWORD PTR __Count$[esp-4]
  00004	56		 push	 esi
  00005	8b 74 24 08	 mov	 esi, DWORD PTR __First1$[esp]
  00009	57		 push	 edi
  0000a	8b 7c 24 10	 mov	 edi, DWORD PTR __First2$[esp+4]
  0000e	33 c0		 xor	 eax, eax
  00010	f3 a6		 repe cmpsb
  00012	5f		 pop	 edi
  00013	5e		 pop	 esi
  00014	74 05		 je	 SHORT $L217227
  00016	1b c0		 sbb	 eax, eax
  00018	83 d8 ff	 sbb	 eax, -1
$L217227:

; 348  : 		}

  0001b	c3		 ret	 0
?compare@?$char_traits@D@std@@SAHPBD0I@Z ENDP		; std::char_traits<char>::compare
_TEXT	ENDS
PUBLIC	?length@?$char_traits@D@std@@SAIPBD@Z		; std::char_traits<char>::length
; Function compile flags: /Ogty
;	COMDAT ?length@?$char_traits@D@std@@SAIPBD@Z
_TEXT	SEGMENT
__First$ = 8						; size = 4
?length@?$char_traits@D@std@@SAIPBD@Z PROC NEAR		; std::char_traits<char>::length, COMDAT

; 352  : 		return (::strlen(_First));

  00000	8b 44 24 04	 mov	 eax, DWORD PTR __First$[esp-4]
  00004	8d 50 01	 lea	 edx, DWORD PTR [eax+1]
$L217231:
  00007	8a 08		 mov	 cl, BYTE PTR [eax]
  00009	40		 inc	 eax
  0000a	84 c9		 test	 cl, cl
  0000c	75 f9		 jne	 SHORT $L217231
  0000e	2b c2		 sub	 eax, edx

; 353  : 		}

  00010	c3		 ret	 0
?length@?$char_traits@D@std@@SAIPBD@Z ENDP		; std::char_traits<char>::length
_TEXT	ENDS
PUBLIC	?copy@?$char_traits@D@std@@SAPADPADPBDI@Z	; std::char_traits<char>::copy
; Function compile flags: /Ogty
;	COMDAT ?copy@?$char_traits@D@std@@SAPADPADPBDI@Z
_TEXT	SEGMENT
__First1$ = 8						; size = 4
__First2$ = 12						; size = 4
__Count$ = 16						; size = 4
?copy@?$char_traits@D@std@@SAPADPADPBDI@Z PROC NEAR	; std::char_traits<char>::copy, COMDAT

; 358  : 		return ((_Elem *)::memcpy(_First1, _First2, _Count));

  00000	8b 4c 24 0c	 mov	 ecx, DWORD PTR __Count$[esp-4]
  00004	56		 push	 esi
  00005	8b 74 24 0c	 mov	 esi, DWORD PTR __First2$[esp]
  00009	57		 push	 edi
  0000a	8b 7c 24 0c	 mov	 edi, DWORD PTR __First1$[esp+4]
  0000e	8b c1		 mov	 eax, ecx
  00010	8b d7		 mov	 edx, edi
  00012	c1 e9 02	 shr	 ecx, 2
  00015	f3 a5		 rep movsd
  00017	8b c8		 mov	 ecx, eax
  00019	83 e1 03	 and	 ecx, 3
  0001c	f3 a4		 rep movsb
  0001e	5f		 pop	 edi
  0001f	8b c2		 mov	 eax, edx
  00021	5e		 pop	 esi

; 359  : 		}

  00022	c3		 ret	 0
?copy@?$char_traits@D@std@@SAPADPADPBDI@Z ENDP		; std::char_traits<char>::copy
_TEXT	ENDS
PUBLIC	?move@?$char_traits@D@std@@SAPADPADPBDI@Z	; std::char_traits<char>::move
EXTRN	_memmove:NEAR
; Function compile flags: /Ogty
;	COMDAT ?move@?$char_traits@D@std@@SAPADPADPBDI@Z
_TEXT	SEGMENT
__First1$ = 8						; size = 4
__First2$ = 12						; size = 4
__Count$ = 16						; size = 4
?move@?$char_traits@D@std@@SAPADPADPBDI@Z PROC NEAR	; std::char_traits<char>::move, COMDAT

; 370  : 		return ((_Elem *)::memmove(_First1, _First2, _Count));

  00000	e9 00 00 00 00	 jmp	 _memmove
?move@?$char_traits@D@std@@SAPADPADPBDI@Z ENDP		; std::char_traits<char>::move
_TEXT	ENDS
PUBLIC	?Enter@CMclCritSec@@QAEXXZ			; CMclCritSec::Enter
EXTRN	__imp__EnterCriticalSection@4:NEAR
; Function compile flags: /Ogty
; File c:\documents and settings\test\mes documents\source\virtuos_v17\build\program\_network\mcl\include\cmclcritsec.h
;	COMDAT ?Enter@CMclCritSec@@QAEXXZ
_TEXT	SEGMENT
?Enter@CMclCritSec@@QAEXXZ PROC NEAR			; CMclCritSec::Enter, COMDAT
; _this$ = ecx

; 33   : 		::EnterCriticalSection( &m_CritSec );

  00000	83 c1 04	 add	 ecx, 4
  00003	51		 push	 ecx
  00004	ff 15 00 00 00
	00		 call	 DWORD PTR __imp__EnterCriticalSection@4

; 34   : 	}

  0000a	c3		 ret	 0
?Enter@CMclCritSec@@QAEXXZ ENDP				; CMclCritSec::Enter
_TEXT	ENDS
PUBLIC	?Leave@CMclCritSec@@QAEXXZ			; CMclCritSec::Leave
EXTRN	__imp__LeaveCriticalSection@4:NEAR
; Function compile flags: /Ogty
;	COMDAT ?Leave@CMclCritSec@@QAEXXZ
_TEXT	SEGMENT
?Leave@CMclCritSec@@QAEXXZ PROC NEAR			; CMclCritSec::Leave, COMDAT
; _this$ = ecx

; 39   : 		::LeaveCriticalSection( &m_CritSec );

  00000	83 c1 04	 add	 ecx, 4
  00003	51		 push	 ecx
  00004	ff 15 00 00 00
	00		 call	 DWORD PTR __imp__LeaveCriticalSection@4

; 40   : 	}

  0000a	c3		 ret	 0
?Leave@CMclCritSec@@QAEXXZ ENDP				; CMclCritSec::Leave
_TEXT	ENDS
PUBLIC	?NotifyProcessStart@@YAXK@Z			; NotifyProcessStart
EXTRN	__imp__GetStdHandle@4:NEAR
EXTRN	__imp__WriteFile@20:NEAR
; Function compile flags: /Ogty
; File c:\documents and settings\test\mes documents\source\virtuos_v17\build\program\_network\cmnhdr.h
;	COMDAT ?NotifyProcessStart@@YAXK@Z
_TEXT	SEGMENT
_dwData$ = -8						; size = 4
_dwBytesWritten$ = -4					; size = 4
_dwId$ = 8						; size = 4
?NotifyProcessStart@@YAXK@Z PROC NEAR			; NotifyProcessStart, COMDAT

; 397  : {

  00000	83 ec 08	 sub	 esp, 8

; 398  : #ifdef __NOTIFYSTART0706
; 399  : 
; 400  : 	char szName[256];
; 401  : 	sprintf( szName, "%d", dwId );
; 402  : 	HANDLE hEvent = OpenEvent( EVENT_MODIFY_STATE, FALSE, szName );
; 403  : 	if( hEvent )
; 404  : 	{
; 405  : 		SetEvent( hEvent );
; 406  : 		CloseHandle( hEvent );
; 407  : 	}
; 408  : 	else
; 409  : 	{
; 410  : 		char szBuffer[256];
; 411  : 		sprintf( szBuffer, "NotifyProcessStart() - can't open Event:%s\n", szName );
; 412  : 		OutputDebugString( szBuffer );
; 413  : 	}
; 414  : 
; 415  : #else
; 416  : 
; 417  : 	DWORD dwData = 0x00000001;
; 418  : 	HANDLE	hWriteHandle	= GetStdHandle( STD_OUTPUT_HANDLE );

  00003	6a f5		 push	 -11			; fffffff5H
  00005	c7 44 24 04 01
	00 00 00	 mov	 DWORD PTR _dwData$[esp+12], 1
  0000d	ff 15 00 00 00
	00		 call	 DWORD PTR __imp__GetStdHandle@4

; 419  : 	DWORD dwBytesWritten;
; 420  : 	WriteFile( hWriteHandle, &dwData, sizeof(dwData), &dwBytesWritten, NULL );	

  00013	6a 00		 push	 0
  00015	8d 4c 24 08	 lea	 ecx, DWORD PTR _dwBytesWritten$[esp+12]
  00019	51		 push	 ecx
  0001a	6a 04		 push	 4
  0001c	8d 54 24 0c	 lea	 edx, DWORD PTR _dwData$[esp+20]
  00020	52		 push	 edx
  00021	50		 push	 eax
  00022	ff 15 00 00 00
	00		 call	 DWORD PTR __imp__WriteFile@20

; 421  : 
; 422  : #endif
; 423  : }

  00028	83 c4 08	 add	 esp, 8
  0002b	c3		 ret	 0
?NotifyProcessStart@@YAXK@Z ENDP			; NotifyProcessStart
_TEXT	ENDS
PUBLIC	??6CAr@@QAEAAV0@J@Z				; CAr::operator<<
EXTRN	?CheckBuf@CAr@@QAEXI@Z:NEAR			; CAr::CheckBuf
; Function compile flags: /Ogty
; File c:\documents and settings\test\mes documents\source\virtuos_v17\build\program\_network\misc\include\ar.h
;	COMDAT ??6CAr@@QAEAAV0@J@Z
_TEXT	SEGMENT
_l$ = 8							; size = 4
??6CAr@@QAEAAV0@J@Z PROC NEAR				; CAr::operator<<, COMDAT
; _this$ = ecx

; 113  : 	{ CheckBuf( sizeof(LONG) );

  00000	56		 push	 esi
  00001	6a 04		 push	 4
  00003	8b f1		 mov	 esi, ecx
  00005	e8 00 00 00 00	 call	 ?CheckBuf@CAr@@QAEXI@Z	; CAr::CheckBuf

; 114  : 		*(UNALIGNED LONG*)m_lpBufCur = l; m_lpBufCur += sizeof(LONG); return *this; }

  0000a	8b 46 08	 mov	 eax, DWORD PTR [esi+8]
  0000d	8b 4c 24 08	 mov	 ecx, DWORD PTR _l$[esp]
  00011	89 08		 mov	 DWORD PTR [eax], ecx
  00013	83 46 08 04	 add	 DWORD PTR [esi+8], 4
  00017	8b c6		 mov	 eax, esi
  00019	5e		 pop	 esi
  0001a	c2 04 00	 ret	 4
??6CAr@@QAEAAV0@J@Z ENDP				; CAr::operator<<
_TEXT	ENDS
PUBLIC	?StartServer@CDPMng@@QAEHGHW4BUFFER_TYPE@@@Z	; CDPMng::StartServer
EXTRN	?CreateDPObject@CDPMng@@QAEHH@Z:NEAR		; CDPMng::CreateDPObject
EXTRN	?InitConnection@CDPMng@@QAEHPAXG@Z:NEAR		; CDPMng::InitConnection
EXTRN	?CreateSession@CDPMng@@QAEHPBDW4BUFFER_TYPE@@@Z:NEAR ; CDPMng::CreateSession
; Function compile flags: /Ogty
; File c:\documents and settings\test\mes documents\source\virtuos_v17\build\program\_network\net\include\dpmng.h
;	COMDAT ?StartServer@CDPMng@@QAEHGHW4BUFFER_TYPE@@@Z
_TEXT	SEGMENT
_uPort$ = 8						; size = 2
_bSingleThreaded$ = 12					; size = 4
_nBufferType$ = 16					; size = 4
?StartServer@CDPMng@@QAEHGHW4BUFFER_TYPE@@@Z PROC NEAR	; CDPMng::StartServer, COMDAT
; _this$ = ecx

; 157  : 		return( CreateDPObject( bSingleThreaded ) && 
; 158  : 			    InitConnection( (LPVOID)NULL, uPort ) && 
; 159  : 				CreateSession( NULL, nBufferType ) );	

  00000	8b 44 24 08	 mov	 eax, DWORD PTR _bSingleThreaded$[esp-4]
  00004	56		 push	 esi
  00005	50		 push	 eax
  00006	8b f1		 mov	 esi, ecx
  00008	e8 00 00 00 00	 call	 ?CreateDPObject@CDPMng@@QAEHH@Z ; CDPMng::CreateDPObject
  0000d	85 c0		 test	 eax, eax
  0000f	74 2d		 je	 SHORT $L217247
  00011	8b 4c 24 08	 mov	 ecx, DWORD PTR _uPort$[esp]
  00015	51		 push	 ecx
  00016	6a 00		 push	 0
  00018	8b ce		 mov	 ecx, esi
  0001a	e8 00 00 00 00	 call	 ?InitConnection@CDPMng@@QAEHPAXG@Z ; CDPMng::InitConnection
  0001f	85 c0		 test	 eax, eax
  00021	74 1b		 je	 SHORT $L217247
  00023	8b 54 24 10	 mov	 edx, DWORD PTR _nBufferType$[esp]
  00027	52		 push	 edx
  00028	6a 00		 push	 0
  0002a	8b ce		 mov	 ecx, esi
  0002c	e8 00 00 00 00	 call	 ?CreateSession@CDPMng@@QAEHPBDW4BUFFER_TYPE@@@Z ; CDPMng::CreateSession
  00031	85 c0		 test	 eax, eax
  00033	74 09		 je	 SHORT $L217247
  00035	b8 01 00 00 00	 mov	 eax, 1
  0003a	5e		 pop	 esi

; 160  : 	}

  0003b	c2 0c 00	 ret	 12			; 0000000cH
$L217247:

; 157  : 		return( CreateDPObject( bSingleThreaded ) && 
; 158  : 			    InitConnection( (LPVOID)NULL, uPort ) && 
; 159  : 				CreateSession( NULL, nBufferType ) );	

  0003e	33 c0		 xor	 eax, eax
  00040	5e		 pop	 esi

; 160  : 	}

  00041	c2 0c 00	 ret	 12			; 0000000cH
?StartServer@CDPMng@@QAEHGHW4BUFFER_TYPE@@@Z ENDP	; CDPMng::StartServer
_TEXT	ENDS
PUBLIC	?ConnectToServer@CDPMng@@QAEHPBDGHW4BUFFER_TYPE@@@Z ; CDPMng::ConnectToServer
EXTRN	?JoinSession@CDPMng@@QAEHPBDW4BUFFER_TYPE@@@Z:NEAR ; CDPMng::JoinSession
; Function compile flags: /Ogty
;	COMDAT ?ConnectToServer@CDPMng@@QAEHPBDGHW4BUFFER_TYPE@@@Z
_TEXT	SEGMENT
_lpConnection$ = 8					; size = 4
_uPort$ = 12						; size = 2
_bSingleThreaded$ = 16					; size = 4
_nBufferType$ = 20					; size = 4
?ConnectToServer@CDPMng@@QAEHPBDGHW4BUFFER_TYPE@@@Z PROC NEAR ; CDPMng::ConnectToServer, COMDAT
; _this$ = ecx

; 163  : 		return( CreateDPObject( bSingleThreaded ) && 
; 164  : 			    InitConnection( (LPVOID)lpConnection, uPort ) && 
; 165  : 				JoinSession( NULL, nBufferType ) );	

  00000	8b 44 24 0c	 mov	 eax, DWORD PTR _bSingleThreaded$[esp-4]
  00004	56		 push	 esi
  00005	50		 push	 eax
  00006	8b f1		 mov	 esi, ecx
  00008	e8 00 00 00 00	 call	 ?CreateDPObject@CDPMng@@QAEHH@Z ; CDPMng::CreateDPObject
  0000d	85 c0		 test	 eax, eax
  0000f	74 30		 je	 SHORT $L217251
  00011	8b 4c 24 0c	 mov	 ecx, DWORD PTR _uPort$[esp]
  00015	8b 54 24 08	 mov	 edx, DWORD PTR _lpConnection$[esp]
  00019	51		 push	 ecx
  0001a	52		 push	 edx
  0001b	8b ce		 mov	 ecx, esi
  0001d	e8 00 00 00 00	 call	 ?InitConnection@CDPMng@@QAEHPAXG@Z ; CDPMng::InitConnection
  00022	85 c0		 test	 eax, eax
  00024	74 1b		 je	 SHORT $L217251
  00026	8b 44 24 14	 mov	 eax, DWORD PTR _nBufferType$[esp]
  0002a	50		 push	 eax
  0002b	6a 00		 push	 0
  0002d	8b ce		 mov	 ecx, esi
  0002f	e8 00 00 00 00	 call	 ?JoinSession@CDPMng@@QAEHPBDW4BUFFER_TYPE@@@Z ; CDPMng::JoinSession
  00034	85 c0		 test	 eax, eax
  00036	74 09		 je	 SHORT $L217251
  00038	b8 01 00 00 00	 mov	 eax, 1
  0003d	5e		 pop	 esi

; 166  : 	}

  0003e	c2 10 00	 ret	 16			; 00000010H
$L217251:

; 163  : 		return( CreateDPObject( bSingleThreaded ) && 
; 164  : 			    InitConnection( (LPVOID)lpConnection, uPort ) && 
; 165  : 				JoinSession( NULL, nBufferType ) );	

  00041	33 c0		 xor	 eax, eax
  00043	5e		 pop	 esi

; 166  : 	}

  00044	c2 10 00	 ret	 16			; 00000010H
?ConnectToServer@CDPMng@@QAEHPBDGHW4BUFFER_TYPE@@@Z ENDP ; CDPMng::ConnectToServer
_TEXT	ENDS
PUBLIC	??B?$CSimpleStringT@D$0A@@ATL@@QBEPBDXZ		; ATL::CSimpleStringT<char,0>::operator char const *
; Function compile flags: /Ogty
; File c:\program files\microsoft visual studio .net 2003\vc7\atlmfc\include\atlsimpstr.h
;	COMDAT ??B?$CSimpleStringT@D$0A@@ATL@@QBEPBDXZ
_TEXT	SEGMENT
??B?$CSimpleStringT@D$0A@@ATL@@QBEPBDXZ PROC NEAR	; ATL::CSimpleStringT<char,0>::operator char const *, COMDAT
; _this$ = ecx

; 379  : 		return( m_pszData );

  00000	8b 01		 mov	 eax, DWORD PTR [ecx]

; 380  : 	}

  00002	c3		 ret	 0
??B?$CSimpleStringT@D$0A@@ATL@@QBEPBDXZ ENDP		; ATL::CSimpleStringT<char,0>::operator char const *
_TEXT	ENDS
PUBLIC	?size@?$basic_string@DU?$char_traits@D@std@@V?$allocator@D@2@@std@@QBEIXZ ; std::basic_string<char,std::char_traits<char>,std::allocator<char> >::size
; Function compile flags: /Ogty
; File c:\program files\microsoft visual studio .net 2003\vc7\include\xstring
;	COMDAT ?size@?$basic_string@DU?$char_traits@D@std@@V?$allocator@D@2@@std@@QBEIXZ
_TEXT	SEGMENT
?size@?$basic_string@DU?$char_traits@D@std@@V?$allocator@D@2@@std@@QBEIXZ PROC NEAR ; std::basic_string<char,std::char_traits<char>,std::allocator<char> >::size, COMDAT
; _this$ = ecx

; 1109 : 		return (_Mysize);

  00000	8b 41 14	 mov	 eax, DWORD PTR [ecx+20]

; 1110 : 		}

  00003	c3		 ret	 0
?size@?$basic_string@DU?$char_traits@D@std@@V?$allocator@D@2@@std@@QBEIXZ ENDP ; std::basic_string<char,std::char_traits<char>,std::allocator<char> >::size
_TEXT	ENDS
PUBLIC	?GetString@?$CSimpleStringT@D$0A@@ATL@@QBEPBDXZ	; ATL::CSimpleStringT<char,0>::GetString
; Function compile flags: /Ogty
; File c:\program files\microsoft visual studio .net 2003\vc7\atlmfc\include\atlsimpstr.h
;	COMDAT ?GetString@?$CSimpleStringT@D$0A@@ATL@@QBEPBDXZ
_TEXT	SEGMENT
?GetString@?$CSimpleStringT@D$0A@@ATL@@QBEPBDXZ PROC NEAR ; ATL::CSimpleStringT<char,0>::GetString, COMDAT
; _this$ = ecx

; 510  : 		return( m_pszData );

  00000	8b 01		 mov	 eax, DWORD PTR [ecx]

; 511  : 	}

  00002	c3		 ret	 0
?GetString@?$CSimpleStringT@D$0A@@ATL@@QBEPBDXZ ENDP	; ATL::CSimpleStringT<char,0>::GetString
_TEXT	ENDS
PUBLIC	?StringLength@?$CSimpleStringT@D$0A@@ATL@@SAHPBD@Z ; ATL::CSimpleStringT<char,0>::StringLength
; Function compile flags: /Ogty
;	COMDAT ?StringLength@?$CSimpleStringT@D$0A@@ATL@@SAHPBD@Z
_TEXT	SEGMENT
_psz$ = 8						; size = 4
?StringLength@?$CSimpleStringT@D$0A@@ATL@@SAHPBD@Z PROC NEAR ; ATL::CSimpleStringT<char,0>::StringLength, COMDAT

; 678  : 		if( psz == NULL )

  00000	8b 44 24 04	 mov	 eax, DWORD PTR _psz$[esp-4]
  00004	85 c0		 test	 eax, eax
  00006	75 01		 jne	 SHORT $L184226

; 683  : 	}

  00008	c3		 ret	 0
$L184226:

; 679  : 		{
; 680  : 			return( 0 );
; 681  : 		}
; 682  : 		return( int( strlen( psz ) ) );

  00009	8d 50 01	 lea	 edx, DWORD PTR [eax+1]
  0000c	8d 64 24 00	 npad	 4
$L217261:
  00010	8a 08		 mov	 cl, BYTE PTR [eax]
  00012	40		 inc	 eax
  00013	84 c9		 test	 cl, cl
  00015	75 f9		 jne	 SHORT $L217261
  00017	2b c2		 sub	 eax, edx

; 683  : 	}

  00019	c3		 ret	 0
?StringLength@?$CSimpleStringT@D$0A@@ATL@@SAHPBD@Z ENDP	; ATL::CSimpleStringT<char,0>::StringLength
_TEXT	ENDS
PUBLIC	?GetData@?$CSimpleStringT@D$0A@@ATL@@ABEPAUCStringData@2@XZ ; ATL::CSimpleStringT<char,0>::GetData
; Function compile flags: /Ogty
;	COMDAT ?GetData@?$CSimpleStringT@D$0A@@ATL@@ABEPAUCStringData@2@XZ
_TEXT	SEGMENT
?GetData@?$CSimpleStringT@D$0A@@ATL@@ABEPAUCStringData@2@XZ PROC NEAR ; ATL::CSimpleStringT<char,0>::GetData, COMDAT
; _this$ = ecx

; 731  : 		return( reinterpret_cast< CStringData* >( m_pszData )-1 );

  00000	8b 01		 mov	 eax, DWORD PTR [ecx]
  00002	83 e8 10	 sub	 eax, 16			; 00000010H

; 732  : 	}

  00005	c3		 ret	 0
?GetData@?$CSimpleStringT@D$0A@@ATL@@ABEPAUCStringData@2@XZ ENDP ; ATL::CSimpleStringT<char,0>::GetData
_TEXT	ENDS
PUBLIC	?SetLength@?$CSimpleStringT@D$0A@@ATL@@AAEXH@Z	; ATL::CSimpleStringT<char,0>::SetLength
; Function compile flags: /Ogty
;	COMDAT ?SetLength@?$CSimpleStringT@D$0A@@ATL@@AAEXH@Z
_TEXT	SEGMENT
_nLength$ = 8						; size = 4
?SetLength@?$CSimpleStringT@D$0A@@ATL@@AAEXH@Z PROC NEAR ; ATL::CSimpleStringT<char,0>::SetLength, COMDAT
; _this$ = ecx

; 790  : 		ATLASSERT( nLength >= 0 );
; 791  : 		ATLASSERT( nLength <= GetData()->nAllocLength );
; 792  : 
; 793  : 		if( nLength < 0 || nLength > GetData()->nAllocLength)

  00000	8b 44 24 04	 mov	 eax, DWORD PTR _nLength$[esp-4]
  00004	85 c0		 test	 eax, eax
  00006	7c 13		 jl	 SHORT $L184241
  00008	8b 11		 mov	 edx, DWORD PTR [ecx]
  0000a	3b 42 f8	 cmp	 eax, DWORD PTR [edx-8]
  0000d	7f 0c		 jg	 SHORT $L184241

; 794  : 			AtlThrow(E_INVALIDARG);
; 795  : 			
; 796  : 		GetData()->nDataLength = nLength;

  0000f	89 42 f4	 mov	 DWORD PTR [edx-12], eax

; 797  : 		m_pszData[nLength] = 0;

  00012	8b 09		 mov	 ecx, DWORD PTR [ecx]
  00014	c6 04 08 00	 mov	 BYTE PTR [eax+ecx], 0

; 798  : 	}

  00018	c2 04 00	 ret	 4
$L184241:
  0001b	68 57 00 07 80	 push	 -2147024809		; 80070057H
  00020	e8 00 00 00 00	 call	 ?AtlThrow@ATL@@YGXJ@Z	; ATL::AtlThrow
$L217272:
  00025	cc		 int	 3
?SetLength@?$CSimpleStringT@D$0A@@ATL@@AAEXH@Z ENDP	; ATL::CSimpleStringT<char,0>::SetLength
_TEXT	ENDS
PUBLIC	?FindStringResourceInstance@?$StrTraitMFC@DV?$ChTraitsCRT@D@ATL@@@@SAPAUHINSTANCE__@@I@Z ; StrTraitMFC<char,ATL::ChTraitsCRT<char> >::FindStringResourceInstance
EXTRN	?AfxFindStringResourceHandle@@YGPAUHINSTANCE__@@I@Z:NEAR ; AfxFindStringResourceHandle
; Function compile flags: /Ogty
; File c:\program files\microsoft visual studio .net 2003\vc7\atlmfc\include\afxstr.h
;	COMDAT ?FindStringResourceInstance@?$StrTraitMFC@DV?$ChTraitsCRT@D@ATL@@@@SAPAUHINSTANCE__@@I@Z
_TEXT	SEGMENT
_nID$ = 8						; size = 4
?FindStringResourceInstance@?$StrTraitMFC@DV?$ChTraitsCRT@D@ATL@@@@SAPAUHINSTANCE__@@I@Z PROC NEAR ; StrTraitMFC<char,ATL::ChTraitsCRT<char> >::FindStringResourceInstance, COMDAT

; 45   : 		return( AfxFindStringResourceHandle( nID ) );

  00000	8b 44 24 04	 mov	 eax, DWORD PTR _nID$[esp-4]
  00004	50		 push	 eax
  00005	e8 00 00 00 00	 call	 ?AfxFindStringResourceHandle@@YGPAUHINSTANCE__@@I@Z ; AfxFindStringResourceHandle

; 46   : 	}

  0000a	c3		 ret	 0
?FindStringResourceInstance@?$StrTraitMFC@DV?$ChTraitsCRT@D@ATL@@@@SAPAUHINSTANCE__@@I@Z ENDP ; StrTraitMFC<char,ATL::ChTraitsCRT<char> >::FindStringResourceInstance
_TEXT	ENDS
PUBLIC	?GetDefaultManager@?$StrTraitMFC@DV?$ChTraitsCRT@D@ATL@@@@SAPAUIAtlStringMgr@ATL@@XZ ; StrTraitMFC<char,ATL::ChTraitsCRT<char> >::GetDefaultManager
EXTRN	?AfxGetStringManager@@YGPAUIAtlStringMgr@ATL@@XZ:NEAR ; AfxGetStringManager
; Function compile flags: /Ogty
;	COMDAT ?GetDefaultManager@?$StrTraitMFC@DV?$ChTraitsCRT@D@ATL@@@@SAPAUIAtlStringMgr@ATL@@XZ
_TEXT	SEGMENT
?GetDefaultManager@?$StrTraitMFC@DV?$ChTraitsCRT@D@ATL@@@@SAPAUIAtlStringMgr@ATL@@XZ PROC NEAR ; StrTraitMFC<char,ATL::ChTraitsCRT<char> >::GetDefaultManager, COMDAT

; 50   : 		return( AfxGetStringManager() );

  00000	e9 00 00 00 00	 jmp	 ?AfxGetStringManager@@YGPAUIAtlStringMgr@ATL@@XZ ; AfxGetStringManager
?GetDefaultManager@?$StrTraitMFC@DV?$ChTraitsCRT@D@ATL@@@@SAPAUIAtlStringMgr@ATL@@XZ ENDP ; StrTraitMFC<char,ATL::ChTraitsCRT<char> >::GetDefaultManager
_TEXT	ENDS
PUBLIC	?_Myptr@?$basic_string@DU?$char_traits@D@std@@V?$allocator@D@2@@std@@QBEPBDXZ ; std::basic_string<char,std::char_traits<char>,std::allocator<char> >::_Myptr
; Function compile flags: /Ogty
; File c:\program files\microsoft visual studio .net 2003\vc7\include\xstring
;	COMDAT ?_Myptr@?$basic_string@DU?$char_traits@D@std@@V?$allocator@D@2@@std@@QBEPBDXZ
_TEXT	SEGMENT
?_Myptr@?$basic_string@DU?$char_traits@D@std@@V?$allocator@D@2@@std@@QBEPBDXZ PROC NEAR ; std::basic_string<char,std::char_traits<char>,std::allocator<char> >::_Myptr, COMDAT
; _this$ = ecx

; 1537 : 		return (_BUF_SIZE <= _Myres ? _Bx._Ptr : _Bx._Buf);

  00000	83 79 18 10	 cmp	 DWORD PTR [ecx+24], 16	; 00000010H
  00004	72 04		 jb	 SHORT $L217280
  00006	8b 41 04	 mov	 eax, DWORD PTR [ecx+4]

; 1538 : 		}

  00009	c3		 ret	 0
$L217280:

; 1537 : 		return (_BUF_SIZE <= _Myres ? _Bx._Ptr : _Bx._Buf);

  0000a	8d 41 04	 lea	 eax, DWORD PTR [ecx+4]

; 1538 : 		}

  0000d	c3		 ret	 0
?_Myptr@?$basic_string@DU?$char_traits@D@std@@V?$allocator@D@2@@std@@QBEPBDXZ ENDP ; std::basic_string<char,std::char_traits<char>,std::allocator<char> >::_Myptr
_TEXT	ENDS
PUBLIC	??0?$allocator@D@std@@QAE@XZ			; std::allocator<char>::allocator<char>
; Function compile flags: /Ogty
; File c:\program files\microsoft visual studio .net 2003\vc7\include\xmemory
;	COMDAT ??0?$allocator@D@std@@QAE@XZ
_TEXT	SEGMENT
??0?$allocator@D@std@@QAE@XZ PROC NEAR			; std::allocator<char>::allocator<char>, COMDAT
; _this$ = ecx

; 111  : 	allocator()

  00000	8b c1		 mov	 eax, ecx

; 112  : 		{	// construct default allocator (do nothing)
; 113  : 		}

  00002	c3		 ret	 0
??0?$allocator@D@std@@QAE@XZ ENDP			; std::allocator<char>::allocator<char>
_TEXT	ENDS
PUBLIC	??0?$allocator@D@std@@QAE@ABV01@@Z		; std::allocator<char>::allocator<char>
; Function compile flags: /Ogty
;	COMDAT ??0?$allocator@D@std@@QAE@ABV01@@Z
_TEXT	SEGMENT
___formal$ = 8						; size = 4
??0?$allocator@D@std@@QAE@ABV01@@Z PROC NEAR		; std::allocator<char>::allocator<char>, COMDAT
; _this$ = ecx

; 115  : 	allocator(const allocator<_Ty>&)

  00000	8b c1		 mov	 eax, ecx

; 116  : 		{	// construct by copying (do nothing)
; 117  : 		}

  00002	c2 04 00	 ret	 4
??0?$allocator@D@std@@QAE@ABV01@@Z ENDP			; std::allocator<char>::allocator<char>
_TEXT	ENDS
PUBLIC	?Attach@?$CSimpleStringT@D$0A@@ATL@@AAEXPAUCStringData@2@@Z ; ATL::CSimpleStringT<char,0>::Attach
; Function compile flags: /Ogty
; File c:\program files\microsoft visual studio .net 2003\vc7\atlmfc\include\atlsimpstr.h
;	COMDAT ?Attach@?$CSimpleStringT@D$0A@@ATL@@AAEXPAUCStringData@2@@Z
_TEXT	SEGMENT
_pData$ = 8						; size = 4
?Attach@?$CSimpleStringT@D$0A@@ATL@@AAEXPAUCStringData@2@@Z PROC NEAR ; ATL::CSimpleStringT<char,0>::Attach, COMDAT
; _this$ = ecx

; 712  : 		m_pszData = static_cast< PXSTR >( pData->data() );

  00000	8b 44 24 04	 mov	 eax, DWORD PTR _pData$[esp-4]
  00004	83 c0 10	 add	 eax, 16			; 00000010H
  00007	89 01		 mov	 DWORD PTR [ecx], eax

; 713  : 	}

  00009	c2 04 00	 ret	 4
?Attach@?$CSimpleStringT@D$0A@@ATL@@AAEXPAUCStringData@2@@Z ENDP ; ATL::CSimpleStringT<char,0>::Attach
_TEXT	ENDS
PUBLIC	?GetBaseTypeLength@?$ChTraitsCRT@D@ATL@@SAHPBGH@Z ; ATL::ChTraitsCRT<char>::GetBaseTypeLength
EXTRN	__imp__WideCharToMultiByte@32:NEAR
; Function compile flags: /Ogty
; File c:\program files\microsoft visual studio .net 2003\vc7\atlmfc\include\cstringt.h
;	COMDAT ?GetBaseTypeLength@?$ChTraitsCRT@D@ATL@@SAHPBGH@Z
_TEXT	SEGMENT
_pszSource$ = 8						; size = 4
_nLength$ = 12						; size = 4
?GetBaseTypeLength@?$ChTraitsCRT@D@ATL@@SAHPBGH@Z PROC NEAR ; ATL::ChTraitsCRT<char>::GetBaseTypeLength, COMDAT

; 437  : 		// Returns required buffer length in XCHARs
; 438  : 		return ::WideCharToMultiByte( _AtlGetConversionACP(), 0, pszSource, nLength, NULL, 0, NULL, NULL );

  00000	ff 15 00 00 00
	00		 call	 DWORD PTR ?g_pfnGetThreadACP@ATL@@3P6GIXZA ; ATL::g_pfnGetThreadACP
  00006	8b 4c 24 08	 mov	 ecx, DWORD PTR _nLength$[esp-4]
  0000a	8b 54 24 04	 mov	 edx, DWORD PTR _pszSource$[esp-4]
  0000e	6a 00		 push	 0
  00010	6a 00		 push	 0
  00012	6a 00		 push	 0
  00014	6a 00		 push	 0
  00016	51		 push	 ecx
  00017	52		 push	 edx
  00018	6a 00		 push	 0
  0001a	50		 push	 eax
  0001b	ff 15 00 00 00
	00		 call	 DWORD PTR __imp__WideCharToMultiByte@32

; 439  : 	}

  00021	c3		 ret	 0
?GetBaseTypeLength@?$ChTraitsCRT@D@ATL@@SAHPBGH@Z ENDP	; ATL::ChTraitsCRT<char>::GetBaseTypeLength
_TEXT	ENDS
PUBLIC	?ConvertToBaseType@?$ChTraitsCRT@D@ATL@@SAXPADHPBGH@Z ; ATL::ChTraitsCRT<char>::ConvertToBaseType
; Function compile flags: /Ogty
;	COMDAT ?ConvertToBaseType@?$ChTraitsCRT@D@ATL@@SAXPADHPBGH@Z
_TEXT	SEGMENT
_pszDest$ = 8						; size = 4
_nDestLength$ = 12					; size = 4
_pszSrc$ = 16						; size = 4
_nSrcLength$ = 20					; size = 4
?ConvertToBaseType@?$ChTraitsCRT@D@ATL@@SAXPADHPBGH@Z PROC NEAR ; ATL::ChTraitsCRT<char>::ConvertToBaseType, COMDAT

; 452  : 		// nLen is in XCHARs
; 453  : 		::WideCharToMultiByte( _AtlGetConversionACP(), 0, pszSrc, nSrcLength, pszDest, nDestLength, NULL, NULL );

  00000	8b 44 24 08	 mov	 eax, DWORD PTR _nDestLength$[esp-4]
  00004	8b 4c 24 04	 mov	 ecx, DWORD PTR _pszDest$[esp-4]
  00008	8b 54 24 10	 mov	 edx, DWORD PTR _nSrcLength$[esp-4]
  0000c	6a 00		 push	 0
  0000e	6a 00		 push	 0
  00010	50		 push	 eax
  00011	8b 44 24 18	 mov	 eax, DWORD PTR _pszSrc$[esp+8]
  00015	51		 push	 ecx
  00016	52		 push	 edx
  00017	50		 push	 eax
  00018	6a 00		 push	 0
  0001a	ff 15 00 00 00
	00		 call	 DWORD PTR ?g_pfnGetThreadACP@ATL@@3P6GIXZA ; ATL::g_pfnGetThreadACP
  00020	50		 push	 eax
  00021	ff 15 00 00 00
	00		 call	 DWORD PTR __imp__WideCharToMultiByte@32

; 454  : 	}

  00027	c3		 ret	 0
?ConvertToBaseType@?$ChTraitsCRT@D@ATL@@SAXPADHPBGH@Z ENDP ; ATL::ChTraitsCRT<char>::ConvertToBaseType
_TEXT	ENDS
PUBLIC	?_Myptr@?$basic_string@DU?$char_traits@D@std@@V?$allocator@D@2@@std@@QAEPADXZ ; std::basic_string<char,std::char_traits<char>,std::allocator<char> >::_Myptr
; Function compile flags: /Ogty
; File c:\program files\microsoft visual studio .net 2003\vc7\include\xstring
;	COMDAT ?_Myptr@?$basic_string@DU?$char_traits@D@std@@V?$allocator@D@2@@std@@QAEPADXZ
_TEXT	SEGMENT
?_Myptr@?$basic_string@DU?$char_traits@D@std@@V?$allocator@D@2@@std@@QAEPADXZ PROC NEAR ; std::basic_string<char,std::char_traits<char>,std::allocator<char> >::_Myptr, COMDAT
; _this$ = ecx

; 1532 : 		return (_BUF_SIZE <= _Myres ? _Bx._Ptr : _Bx._Buf);

  00000	83 79 18 10	 cmp	 DWORD PTR [ecx+24], 16	; 00000010H
  00004	72 04		 jb	 SHORT $L217304
  00006	8b 41 04	 mov	 eax, DWORD PTR [ecx+4]

; 1533 : 		}

  00009	c3		 ret	 0
$L217304:

; 1532 : 		return (_BUF_SIZE <= _Myres ? _Bx._Ptr : _Bx._Buf);

  0000a	8d 41 04	 lea	 eax, DWORD PTR [ecx+4]

; 1533 : 		}

  0000d	c3		 ret	 0
?_Myptr@?$basic_string@DU?$char_traits@D@std@@V?$allocator@D@2@@std@@QAEPADXZ ENDP ; std::basic_string<char,std::char_traits<char>,std::allocator<char> >::_Myptr
_TEXT	ENDS
PUBLIC	?deallocate@?$allocator@D@std@@QAEXPADI@Z	; std::allocator<char>::deallocate
; Function compile flags: /Ogty
; File c:\program files\microsoft visual studio .net 2003\vc7\include\xmemory
;	COMDAT ?deallocate@?$allocator@D@std@@QAEXPADI@Z
_TEXT	SEGMENT
__Ptr$ = 8						; size = 4
___formal$ = 12						; size = 4
?deallocate@?$allocator@D@std@@QAEXPADI@Z PROC NEAR	; std::allocator<char>::deallocate, COMDAT
; _this$ = ecx

; 132  : 		operator delete(_Ptr);

  00000	8b 44 24 04	 mov	 eax, DWORD PTR __Ptr$[esp-4]
  00004	50		 push	 eax
  00005	e8 00 00 00 00	 call	 ??3@YAXPAX@Z		; operator delete
  0000a	59		 pop	 ecx

; 133  : 		}

  0000b	c2 08 00	 ret	 8
?deallocate@?$allocator@D@std@@QAEXPADI@Z ENDP		; std::allocator<char>::deallocate
_TEXT	ENDS
PUBLIC	?CopyChars@?$CSimpleStringT@D$0A@@ATL@@SAXPADPBDH@Z ; ATL::CSimpleStringT<char,0>::CopyChars
; Function compile flags: /Ogty
; File c:\program files\microsoft visual studio .net 2003\vc7\atlmfc\include\atlsimpstr.h
;	COMDAT ?CopyChars@?$CSimpleStringT@D$0A@@ATL@@SAXPADPBDH@Z
_TEXT	SEGMENT
_pchDest$ = 8						; size = 4
_pchSrc$ = 12						; size = 4
_nChars$ = 16						; size = 4
?CopyChars@?$CSimpleStringT@D$0A@@ATL@@SAXPADPBDH@Z PROC NEAR ; ATL::CSimpleStringT<char,0>::CopyChars, COMDAT

; 653  : 		memcpy( pchDest, pchSrc, nChars*sizeof( XCHAR ) );

  00000	8b 4c 24 0c	 mov	 ecx, DWORD PTR _nChars$[esp-4]
  00004	56		 push	 esi
  00005	8b 74 24 0c	 mov	 esi, DWORD PTR _pchSrc$[esp]
  00009	8b c1		 mov	 eax, ecx
  0000b	57		 push	 edi
  0000c	8b 7c 24 0c	 mov	 edi, DWORD PTR _pchDest$[esp+4]
  00010	c1 e9 02	 shr	 ecx, 2
  00013	f3 a5		 rep movsd
  00015	8b c8		 mov	 ecx, eax
  00017	83 e1 03	 and	 ecx, 3
  0001a	f3 a4		 rep movsb
  0001c	5f		 pop	 edi
  0001d	5e		 pop	 esi

; 654  : 	}

  0001e	c3		 ret	 0
?CopyChars@?$CSimpleStringT@D$0A@@ATL@@SAXPADPBDH@Z ENDP ; ATL::CSimpleStringT<char,0>::CopyChars
_TEXT	ENDS
PUBLIC	?CopyCharsOverlapped@?$CSimpleStringT@D$0A@@ATL@@SAXPADPBDH@Z ; ATL::CSimpleStringT<char,0>::CopyCharsOverlapped
; Function compile flags: /Ogty
;	COMDAT ?CopyCharsOverlapped@?$CSimpleStringT@D$0A@@ATL@@SAXPADPBDH@Z
_TEXT	SEGMENT
_pchDest$ = 8						; size = 4
_pchSrc$ = 12						; size = 4
_nChars$ = 16						; size = 4
?CopyCharsOverlapped@?$CSimpleStringT@D$0A@@ATL@@SAXPADPBDH@Z PROC NEAR ; ATL::CSimpleStringT<char,0>::CopyCharsOverlapped, COMDAT

; 657  : 		memmove( pchDest, pchSrc, nChars*sizeof( XCHAR ) );

  00000	e9 00 00 00 00	 jmp	 _memmove
?CopyCharsOverlapped@?$CSimpleStringT@D$0A@@ATL@@SAXPADPBDH@Z ENDP ; ATL::CSimpleStringT<char,0>::CopyCharsOverlapped
_TEXT	ENDS
PUBLIC	?ThrowMemoryException@?$CSimpleStringT@D$0A@@ATL@@KAXXZ ; ATL::CSimpleStringT<char,0>::ThrowMemoryException
; Function compile flags: /Ogty
;	COMDAT ?ThrowMemoryException@?$CSimpleStringT@D$0A@@ATL@@KAXXZ
_TEXT	SEGMENT
?ThrowMemoryException@?$CSimpleStringT@D$0A@@ATL@@KAXXZ PROC NEAR ; ATL::CSimpleStringT<char,0>::ThrowMemoryException, COMDAT

; 705  : 		AtlThrow( E_OUTOFMEMORY );

  00000	68 0e 00 07 80	 push	 -2147024882		; 8007000eH
  00005	e8 00 00 00 00	 call	 ?AtlThrow@ATL@@YGXJ@Z	; ATL::AtlThrow
$L217314:
  0000a	cc		 int	 3
?ThrowMemoryException@?$CSimpleStringT@D$0A@@ATL@@KAXXZ ENDP ; ATL::CSimpleStringT<char,0>::ThrowMemoryException
_TEXT	ENDS
PUBLIC	?Fork@?$CSimpleStringT@D$0A@@ATL@@AAEXH@Z	; ATL::CSimpleStringT<char,0>::Fork
; Function compile flags: /Ogty
;	COMDAT ?Fork@?$CSimpleStringT@D$0A@@ATL@@AAEXH@Z
_TEXT	SEGMENT
_this$ = -4						; size = 4
tv181 = 8						; size = 4
_nLength$ = 8						; size = 4
?Fork@?$CSimpleStringT@D$0A@@ATL@@AAEXH@Z PROC NEAR	; ATL::CSimpleStringT<char,0>::Fork, COMDAT
; _this$ = ecx

; 715  : 	{

  00000	51		 push	 ecx
  00001	53		 push	 ebx

; 716  : 		CStringData* pOldData = GetData();

  00002	8b 19		 mov	 ebx, DWORD PTR [ecx]
  00004	83 eb 10	 sub	 ebx, 16			; 00000010H
  00007	55		 push	 ebp

; 717  : 		int nOldLength = pOldData->nDataLength;

  00008	8b 6b 04	 mov	 ebp, DWORD PTR [ebx+4]
  0000b	89 4c 24 08	 mov	 DWORD PTR _this$[esp+12], ecx

; 718  : 		CStringData* pNewData = pOldData->pStringMgr->Clone()->Allocate( nLength, sizeof( XCHAR ) );

  0000f	8b 0b		 mov	 ecx, DWORD PTR [ebx]
  00011	8b 01		 mov	 eax, DWORD PTR [ecx]
  00013	56		 push	 esi
  00014	ff 50 10	 call	 DWORD PTR [eax+16]
  00017	8b 74 24 14	 mov	 esi, DWORD PTR _nLength$[esp+12]
  0001b	8b 10		 mov	 edx, DWORD PTR [eax]
  0001d	6a 01		 push	 1
  0001f	56		 push	 esi
  00020	8b c8		 mov	 ecx, eax
  00022	ff 12		 call	 DWORD PTR [edx]

; 719  : 		if( pNewData == NULL )

  00024	85 c0		 test	 eax, eax
  00026	75 05		 jne	 SHORT $L185534

; 720  : 		{
; 721  : 			ThrowMemoryException();

  00028	e8 00 00 00 00	 call	 ?ThrowMemoryException@?$CSimpleStringT@D$0A@@ATL@@KAXXZ ; ATL::CSimpleStringT<char,0>::ThrowMemoryException
$L185534:

; 722  : 		}
; 723  : 		int nCharsToCopy = ((nOldLength < nLength) ? nOldLength : nLength)+1;  // Copy '\0'

  0002d	3b ee		 cmp	 ebp, esi
  0002f	7d 02		 jge	 SHORT $L217318
  00031	8b f5		 mov	 esi, ebp
$L217318:
  00033	8d 4e 01	 lea	 ecx, DWORD PTR [esi+1]

; 724  : 		CopyChars( PXSTR( pNewData->data() ), PCXSTR( pOldData->data() ), nCharsToCopy );

  00036	8b d1		 mov	 edx, ecx
  00038	57		 push	 edi
  00039	c1 e9 02	 shr	 ecx, 2
  0003c	8d 78 10	 lea	 edi, DWORD PTR [eax+16]
  0003f	89 7c 24 18	 mov	 DWORD PTR tv181[esp+16], edi
  00043	8d 73 10	 lea	 esi, DWORD PTR [ebx+16]
  00046	f3 a5		 rep movsd
  00048	8b ca		 mov	 ecx, edx
  0004a	83 e1 03	 and	 ecx, 3
  0004d	f3 a4		 rep movsb

; 725  : 		pNewData->nDataLength = nOldLength;

  0004f	89 68 04	 mov	 DWORD PTR [eax+4], ebp

; 726  : 		pOldData->Release();

  00052	8d 43 0c	 lea	 eax, DWORD PTR [ebx+12]
  00055	83 c9 ff	 or	 ecx, -1
  00058	f0 0f c1 08	 lock	  xadd	 DWORD PTR [eax], ecx
  0005c	49		 dec	 ecx
  0005d	85 c9		 test	 ecx, ecx
  0005f	5f		 pop	 edi
  00060	7f 08		 jg	 SHORT $L217334
  00062	8b 0b		 mov	 ecx, DWORD PTR [ebx]
  00064	8b 11		 mov	 edx, DWORD PTR [ecx]
  00066	53		 push	 ebx
  00067	ff 52 04	 call	 DWORD PTR [edx+4]
$L217334:

; 727  : 		Attach( pNewData );

  0006a	8b 44 24 14	 mov	 eax, DWORD PTR tv181[esp+12]
  0006e	8b 4c 24 0c	 mov	 ecx, DWORD PTR _this$[esp+16]
  00072	5e		 pop	 esi
  00073	5d		 pop	 ebp
  00074	89 01		 mov	 DWORD PTR [ecx], eax
  00076	5b		 pop	 ebx

; 728  : 	}

  00077	59		 pop	 ecx
  00078	c2 04 00	 ret	 4
$L217343:
?Fork@?$CSimpleStringT@D$0A@@ATL@@AAEXH@Z ENDP		; ATL::CSimpleStringT<char,0>::Fork
_TEXT	ENDS
PUBLIC	?Reallocate@?$CSimpleStringT@D$0A@@ATL@@AAEXH@Z	; ATL::CSimpleStringT<char,0>::Reallocate
; Function compile flags: /Ogty
;	COMDAT ?Reallocate@?$CSimpleStringT@D$0A@@ATL@@AAEXH@Z
_TEXT	SEGMENT
_nLength$ = 8						; size = 4
?Reallocate@?$CSimpleStringT@D$0A@@ATL@@AAEXH@Z PROC NEAR ; ATL::CSimpleStringT<char,0>::Reallocate, COMDAT
; _this$ = ecx

; 776  : 	{

  00000	56		 push	 esi
  00001	57		 push	 edi

; 777  : 		CStringData* pOldData = GetData();
; 778  : 		ATLASSERT( pOldData->nAllocLength < nLength );
; 779  : 		IAtlStringMgr* pStringMgr = pOldData->pStringMgr;
; 780  : 		CStringData* pNewData = pStringMgr->Reallocate( pOldData, nLength, sizeof( XCHAR ) );

  00002	8b 7c 24 0c	 mov	 edi, DWORD PTR _nLength$[esp+4]
  00006	8b f1		 mov	 esi, ecx
  00008	8b 06		 mov	 eax, DWORD PTR [esi]
  0000a	8b 48 f0	 mov	 ecx, DWORD PTR [eax-16]
  0000d	8b 11		 mov	 edx, DWORD PTR [ecx]
  0000f	83 e8 10	 sub	 eax, 16			; 00000010H
  00012	6a 01		 push	 1
  00014	57		 push	 edi
  00015	50		 push	 eax
  00016	ff 52 08	 call	 DWORD PTR [edx+8]

; 781  : 		if( pNewData == NULL )

  00019	85 c0		 test	 eax, eax
  0001b	75 05		 jne	 SHORT $L185543

; 782  : 		{
; 783  : 			ThrowMemoryException();

  0001d	e8 00 00 00 00	 call	 ?ThrowMemoryException@?$CSimpleStringT@D$0A@@ATL@@KAXXZ ; ATL::CSimpleStringT<char,0>::ThrowMemoryException
$L185543:

; 784  : 		}
; 785  : 		Attach( pNewData );

  00022	83 c0 10	 add	 eax, 16			; 00000010H
  00025	5f		 pop	 edi
  00026	89 06		 mov	 DWORD PTR [esi], eax
  00028	5e		 pop	 esi

; 786  : 	}

  00029	c2 04 00	 ret	 4
$L217357:
?Reallocate@?$CSimpleStringT@D$0A@@ATL@@AAEXH@Z ENDP	; ATL::CSimpleStringT<char,0>::Reallocate
_TEXT	ENDS
PUBLIC	?_Inside@?$basic_string@DU?$char_traits@D@std@@V?$allocator@D@2@@std@@IAE_NPBD@Z ; std::basic_string<char,std::char_traits<char>,std::allocator<char> >::_Inside
; Function compile flags: /Ogty
; File c:\program files\microsoft visual studio .net 2003\vc7\include\xstring
;	COMDAT ?_Inside@?$basic_string@DU?$char_traits@D@std@@V?$allocator@D@2@@std@@IAE_NPBD@Z
_TEXT	SEGMENT
__Ptr$ = 8						; size = 4
?_Inside@?$basic_string@DU?$char_traits@D@std@@V?$allocator@D@2@@std@@IAE_NPBD@Z PROC NEAR ; std::basic_string<char,std::char_traits<char>,std::allocator<char> >::_Inside, COMDAT
; _this$ = ecx

; 1494 : 		{	// test if _Ptr points inside string

  00000	56		 push	 esi

; 1495 : 		if (_Ptr < _Myptr() || _Myptr() + _Mysize <= _Ptr)

  00001	8b 71 18	 mov	 esi, DWORD PTR [ecx+24]
  00004	83 fe 10	 cmp	 esi, 16			; 00000010H
  00007	57		 push	 edi
  00008	8d 41 04	 lea	 eax, DWORD PTR [ecx+4]
  0000b	72 04		 jb	 SHORT $L217364
  0000d	8b 10		 mov	 edx, DWORD PTR [eax]
  0000f	eb 02		 jmp	 SHORT $L217365
$L217364:
  00011	8b d0		 mov	 edx, eax
$L217365:
  00013	8b 7c 24 0c	 mov	 edi, DWORD PTR __Ptr$[esp+4]
  00017	3b fa		 cmp	 edi, edx
  00019	72 17		 jb	 SHORT $L185560
  0001b	83 fe 10	 cmp	 esi, 16			; 00000010H
  0001e	72 02		 jb	 SHORT $L217372
  00020	8b 00		 mov	 eax, DWORD PTR [eax]
$L217372:
  00022	8b 49 14	 mov	 ecx, DWORD PTR [ecx+20]
  00025	03 c8		 add	 ecx, eax
  00027	3b cf		 cmp	 ecx, edi
  00029	76 07		 jbe	 SHORT $L185560
  0002b	5f		 pop	 edi

; 1497 : 		else
; 1498 : 			return (true);

  0002c	b0 01		 mov	 al, 1
  0002e	5e		 pop	 esi

; 1499 : 		}

  0002f	c2 04 00	 ret	 4
$L185560:
  00032	5f		 pop	 edi

; 1496 : 			return (false);	// don't ask

  00033	32 c0		 xor	 al, al
  00035	5e		 pop	 esi

; 1499 : 		}

  00036	c2 04 00	 ret	 4
?_Inside@?$basic_string@DU?$char_traits@D@std@@V?$allocator@D@2@@std@@IAE_NPBD@Z ENDP ; std::basic_string<char,std::char_traits<char>,std::allocator<char> >::_Inside
_TEXT	ENDS
PUBLIC	?max_size@?$allocator@D@std@@QBEIXZ		; std::allocator<char>::max_size
; Function compile flags: /Ogty
; File c:\program files\microsoft visual studio .net 2003\vc7\include\xmemory
;	COMDAT ?max_size@?$allocator@D@std@@QBEIXZ
_TEXT	SEGMENT
?max_size@?$allocator@D@std@@QBEIXZ PROC NEAR		; std::allocator<char>::max_size, COMDAT
; _this$ = ecx

; 157  : 		_SIZT _Count = (_SIZT)(-1) / sizeof (_Ty);
; 158  : 		return (0 < _Count ? _Count : 1);

  00000	83 c8 ff	 or	 eax, -1

; 159  : 		}

  00003	c3		 ret	 0
?max_size@?$allocator@D@std@@QBEIXZ ENDP		; std::allocator<char>::max_size
_TEXT	ENDS
PUBLIC	?_Nextnode@?$list@PAXV?$allocator@PAX@std@@@std@@KAAAPAU_Node@?$_List_nod@PAXV?$allocator@PAX@std@@@2@PAU342@@Z ; std::list<void *,std::allocator<void *> >::_Nextnode
; Function compile flags: /Ogty
; File c:\program files\microsoft visual studio .net 2003\vc7\include\list
;	COMDAT ?_Nextnode@?$list@PAXV?$allocator@PAX@std@@@std@@KAAAPAU_Node@?$_List_nod@PAXV?$allocator@PAX@std@@@2@PAU342@@Z
_TEXT	SEGMENT
__Pnode$ = 8						; size = 4
?_Nextnode@?$list@PAXV?$allocator@PAX@std@@@std@@KAAAPAU_Node@?$_List_nod@PAXV?$allocator@PAX@std@@@2@PAU342@@Z PROC NEAR ; std::list<void *,std::allocator<void *> >::_Nextnode, COMDAT

; 108  : 		return ((_Nodepref)(*_Pnode)._Next);

  00000	8b 44 24 04	 mov	 eax, DWORD PTR __Pnode$[esp-4]

; 109  : 		}

  00004	c3		 ret	 0
?_Nextnode@?$list@PAXV?$allocator@PAX@std@@@std@@KAAAPAU_Node@?$_List_nod@PAXV?$allocator@PAX@std@@@2@PAU342@@Z ENDP ; std::list<void *,std::allocator<void *> >::_Nextnode
_TEXT	ENDS
PUBLIC	?_Prevnode@?$list@PAXV?$allocator@PAX@std@@@std@@KAAAPAU_Node@?$_List_nod@PAXV?$allocator@PAX@std@@@2@PAU342@@Z ; std::list<void *,std::allocator<void *> >::_Prevnode
; Function compile flags: /Ogty
;	COMDAT ?_Prevnode@?$list@PAXV?$allocator@PAX@std@@@std@@KAAAPAU_Node@?$_List_nod@PAXV?$allocator@PAX@std@@@2@PAU342@@Z
_TEXT	SEGMENT
__Pnode$ = 8						; size = 4
?_Prevnode@?$list@PAXV?$allocator@PAX@std@@@std@@KAAAPAU_Node@?$_List_nod@PAXV?$allocator@PAX@std@@@2@PAU342@@Z PROC NEAR ; std::list<void *,std::allocator<void *> >::_Prevnode, COMDAT

; 113  : 		return ((_Nodepref)(*_Pnode)._Prev);

  00000	8b 44 24 04	 mov	 eax, DWORD PTR __Pnode$[esp-4]
  00004	83 c0 04	 add	 eax, 4

; 114  : 		}

  00007	c3		 ret	 0
?_Prevnode@?$list@PAXV?$allocator@PAX@std@@@std@@KAAAPAU_Node@?$_List_nod@PAXV?$allocator@PAX@std@@@2@PAU342@@Z ENDP ; std::list<void *,std::allocator<void *> >::_Prevnode
_TEXT	ENDS
PUBLIC	?deallocate@?$allocator@U_Node@?$_List_nod@PAXV?$allocator@PAX@std@@@std@@@std@@QAEXPAU_Node@?$_List_nod@PAXV?$allocator@PAX@std@@@2@I@Z ; std::allocator<std::_List_nod<void *,std::allocator<void *> >::_Node>::deallocate
; Function compile flags: /Ogty
; File c:\program files\microsoft visual studio .net 2003\vc7\include\xmemory
;	COMDAT ?deallocate@?$allocator@U_Node@?$_List_nod@PAXV?$allocator@PAX@std@@@std@@@std@@QAEXPAU_Node@?$_List_nod@PAXV?$allocator@PAX@std@@@2@I@Z
_TEXT	SEGMENT
__Ptr$ = 8						; size = 4
___formal$ = 12						; size = 4
?deallocate@?$allocator@U_Node@?$_List_nod@PAXV?$allocator@PAX@std@@@std@@@std@@QAEXPAU_Node@?$_List_nod@PAXV?$allocator@PAX@std@@@2@I@Z PROC NEAR ; std::allocator<std::_List_nod<void *,std::allocator<void *> >::_Node>::deallocate, COMDAT
; _this$ = ecx

; 132  : 		operator delete(_Ptr);

  00000	8b 44 24 04	 mov	 eax, DWORD PTR __Ptr$[esp-4]
  00004	50		 push	 eax
  00005	e8 00 00 00 00	 call	 ??3@YAXPAX@Z		; operator delete
  0000a	59		 pop	 ecx

; 133  : 		}

  0000b	c2 08 00	 ret	 8
?deallocate@?$allocator@U_Node@?$_List_nod@PAXV?$allocator@PAX@std@@@std@@@std@@QAEXPAU_Node@?$_List_nod@PAXV?$allocator@PAX@std@@@2@I@Z ENDP ; std::allocator<std::_List_nod<void *,std::allocator<void *> >::_Node>::deallocate
_TEXT	ENDS
PUBLIC	??0const_iterator@?$list@PAXV?$allocator@PAX@std@@@std@@QAE@PAU_Node@?$_List_nod@PAXV?$allocator@PAX@std@@@2@@Z ; std::list<void *,std::allocator<void *> >::const_iterator::const_iterator
; Function compile flags: /Ogty
; File c:\program files\microsoft visual studio .net 2003\vc7\include\list
;	COMDAT ??0const_iterator@?$list@PAXV?$allocator@PAX@std@@@std@@QAE@PAU_Node@?$_List_nod@PAXV?$allocator@PAX@std@@@2@@Z
_TEXT	SEGMENT
__Pnode$ = 8						; size = 4
??0const_iterator@?$list@PAXV?$allocator@PAX@std@@@std@@QAE@PAU_Node@?$_List_nod@PAXV?$allocator@PAX@std@@@2@@Z PROC NEAR ; std::list<void *,std::allocator<void *> >::const_iterator::const_iterator, COMDAT
; _this$ = ecx

; 156  : 			{	// construct with node pointer _Pnode

  00000	8b c1		 mov	 eax, ecx
  00002	8b 4c 24 04	 mov	 ecx, DWORD PTR __Pnode$[esp-4]
  00006	89 08		 mov	 DWORD PTR [eax], ecx

; 157  : 			}

  00008	c2 04 00	 ret	 4
??0const_iterator@?$list@PAXV?$allocator@PAX@std@@@std@@QAE@PAU_Node@?$_List_nod@PAXV?$allocator@PAX@std@@@2@@Z ENDP ; std::list<void *,std::allocator<void *> >::const_iterator::const_iterator
_TEXT	ENDS
PUBLIC	??$swap@D@std@@YAXAAD0@Z			; std::swap<char>
; Function compile flags: /Ogty
; File c:\program files\microsoft visual studio .net 2003\vc7\include\utility
;	COMDAT ??$swap@D@std@@YAXAAD0@Z
_TEXT	SEGMENT
__Left$ = 8						; size = 4
__Right$ = 12						; size = 4
??$swap@D@std@@YAXAAD0@Z PROC NEAR			; std::swap<char>, COMDAT

; 15   : 	_Ty _Tmp = _Left;

  00000	8b 44 24 04	 mov	 eax, DWORD PTR __Left$[esp-4]
  00004	8a 08		 mov	 cl, BYTE PTR [eax]
  00006	56		 push	 esi

; 16   : 	_Left = _Right, _Right = _Tmp;

  00007	8b 74 24 0c	 mov	 esi, DWORD PTR __Right$[esp]
  0000b	8a 16		 mov	 dl, BYTE PTR [esi]
  0000d	88 10		 mov	 BYTE PTR [eax], dl
  0000f	88 0e		 mov	 BYTE PTR [esi], cl
  00011	5e		 pop	 esi

; 17   : 	}

  00012	c3		 ret	 0
??$swap@D@std@@YAXAAD0@Z ENDP				; std::swap<char>
_TEXT	ENDS
PUBLIC	??$_Allocate@D@std@@YAPADIPAD@Z			; std::_Allocate<char>
; Function compile flags: /Ogty
; File c:\program files\microsoft visual studio .net 2003\vc7\include\xmemory
;	COMDAT ??$_Allocate@D@std@@YAPADIPAD@Z
_TEXT	SEGMENT
__Count$ = 8						; size = 4
___formal$ = 12						; size = 4
??$_Allocate@D@std@@YAPADIPAD@Z PROC NEAR		; std::_Allocate<char>, COMDAT

; 34   : 	return ((_Ty _FARQ *)operator new(_Count * sizeof (_Ty)));

  00000	8b 44 24 04	 mov	 eax, DWORD PTR __Count$[esp-4]
  00004	50		 push	 eax
  00005	e8 00 00 00 00	 call	 ??2@YAPAXI@Z		; operator new
  0000a	83 c4 04	 add	 esp, 4

; 35   : 	}

  0000d	c3		 ret	 0
??$_Allocate@D@std@@YAPADIPAD@Z ENDP			; std::_Allocate<char>
_TEXT	ENDS
PUBLIC	?GetTickCount@CTime@ATL@@SG?AV12@XZ		; ATL::CTime::GetTickCount
EXTRN	__time64:NEAR
; Function compile flags: /Ogty
; File c:\program files\microsoft visual studio .net 2003\vc7\atlmfc\include\atltime.inl
;	COMDAT ?GetTickCount@CTime@ATL@@SG?AV12@XZ
_TEXT	SEGMENT
___$ReturnUdt$ = 8					; size = 4
?GetTickCount@CTime@ATL@@SG?AV12@XZ PROC NEAR		; ATL::CTime::GetTickCount, COMDAT

; 139  : 	return( CTime( ::_time64( NULL ) ) );

  00000	6a 00		 push	 0
  00002	e8 00 00 00 00	 call	 __time64
  00007	8b 4c 24 08	 mov	 ecx, DWORD PTR ___$ReturnUdt$[esp]
  0000b	89 01		 mov	 DWORD PTR [ecx], eax
  0000d	83 c4 04	 add	 esp, 4
  00010	89 51 04	 mov	 DWORD PTR [ecx+4], edx
  00013	8b c1		 mov	 eax, ecx

; 140  : }

  00015	c2 04 00	 ret	 4
?GetTickCount@CTime@ATL@@SG?AV12@XZ ENDP		; ATL::CTime::GetTickCount
_TEXT	ENDS
PUBLIC	?Compare@?$CStringT@DV?$StrTraitMFC@DV?$ChTraitsCRT@D@ATL@@@@@ATL@@QBEHPBD@Z ; ATL::CStringT<char,StrTraitMFC<char,ATL::ChTraitsCRT<char> > >::Compare
; Function compile flags: /Ogty
; File c:\program files\microsoft visual studio .net 2003\vc7\atlmfc\include\cstringt.h
;	COMDAT ?Compare@?$CStringT@DV?$StrTraitMFC@DV?$ChTraitsCRT@D@ATL@@@@@ATL@@QBEHPBD@Z
_TEXT	SEGMENT
_psz$ = 8						; size = 4
?Compare@?$CStringT@DV?$StrTraitMFC@DV?$ChTraitsCRT@D@ATL@@@@@ATL@@QBEHPBD@Z PROC NEAR ; ATL::CStringT<char,StrTraitMFC<char,ATL::ChTraitsCRT<char> > >::Compare, COMDAT
; _this$ = ecx

; 1088 : 		ATLASSERT( AtlIsValidString( psz ) );
; 1089 : 		return( StringTraits::StringCompare( GetString(), psz ) );

  00000	8b 44 24 04	 mov	 eax, DWORD PTR _psz$[esp-4]
  00004	8b 09		 mov	 ecx, DWORD PTR [ecx]
  00006	50		 push	 eax
  00007	51		 push	 ecx
  00008	e8 00 00 00 00	 call	 __mbscmp
  0000d	83 c4 08	 add	 esp, 8

; 1090 : 	}

  00010	c2 04 00	 ret	 4
?Compare@?$CStringT@DV?$StrTraitMFC@DV?$ChTraitsCRT@D@ATL@@@@@ATL@@QBEHPBD@Z ENDP ; ATL::CStringT<char,StrTraitMFC<char,ATL::ChTraitsCRT<char> > >::Compare
_TEXT	ENDS
PUBLIC	?compare@?$basic_string@DU?$char_traits@D@std@@V?$allocator@D@2@@std@@QBEHIIPBDI@Z ; std::basic_string<char,std::char_traits<char>,std::allocator<char> >::compare
EXTRN	?_Xran@_String_base@std@@QBEXXZ:NEAR		; std::_String_base::_Xran
; Function compile flags: /Ogty
; File c:\program files\microsoft visual studio .net 2003\vc7\include\xstring
;	COMDAT ?compare@?$basic_string@DU?$char_traits@D@std@@V?$allocator@D@2@@std@@QBEHIIPBDI@Z
_TEXT	SEGMENT
__Off$ = 8						; size = 4
__N0$ = 12						; size = 4
__Ptr$ = 16						; size = 4
__Count$ = 20						; size = 4
?compare@?$basic_string@DU?$char_traits@D@std@@V?$allocator@D@2@@std@@QBEHIIPBDI@Z PROC NEAR ; std::basic_string<char,std::char_traits<char>,std::allocator<char> >::compare, COMDAT
; _this$ = ecx

; 1412 : 		{	// compare [_Off, _Off + _N0) with [_Ptr, _Ptr + _Count)

  00000	53		 push	 ebx
  00001	55		 push	 ebp

; 1413 : 		if (_Mysize < _Off)

  00002	8b 6c 24 0c	 mov	 ebp, DWORD PTR __Off$[esp+4]
  00006	56		 push	 esi
  00007	8b f1		 mov	 esi, ecx
  00009	39 6e 14	 cmp	 DWORD PTR [esi+20], ebp
  0000c	73 05		 jae	 SHORT $L214106

; 1414 : 			_String_base::_Xran();	// _Off off end

  0000e	e8 00 00 00 00	 call	 ?_Xran@_String_base@std@@QBEXXZ ; std::_String_base::_Xran
$L214106:

; 1415 : 		if (_Mysize - _Off < _N0)

  00013	8b 46 14	 mov	 eax, DWORD PTR [esi+20]
  00016	8b 54 24 14	 mov	 edx, DWORD PTR __N0$[esp+8]
  0001a	2b c5		 sub	 eax, ebp
  0001c	3b c2		 cmp	 eax, edx
  0001e	73 02		 jae	 SHORT $L214107

; 1416 : 			_N0 = _Mysize - _Off;	// trim _N0 to size

  00020	8b d0		 mov	 edx, eax
$L214107:

; 1417 : 
; 1418 : 		size_type _Ans = _N0 == 0 ? 0
; 1419 : 			: _Traits::compare(_Myptr() + _Off, _Ptr,
; 1420 : 				_N0 < _Count ? _N0 : _Count);

  00022	85 d2		 test	 edx, edx
  00024	8b 5c 24 1c	 mov	 ebx, DWORD PTR __Count$[esp+8]
  00028	74 2e		 je	 SHORT $L217428
  0002a	3b d3		 cmp	 edx, ebx
  0002c	8b ca		 mov	 ecx, edx
  0002e	72 02		 jb	 SHORT $L217408
  00030	8b cb		 mov	 ecx, ebx
$L217408:
  00032	83 7e 18 10	 cmp	 DWORD PTR [esi+24], 16	; 00000010H
  00036	72 05		 jb	 SHORT $L217420
  00038	8b 46 04	 mov	 eax, DWORD PTR [esi+4]
  0003b	eb 03		 jmp	 SHORT $L217421
$L217420:
  0003d	8d 46 04	 lea	 eax, DWORD PTR [esi+4]
$L217421:
  00040	57		 push	 edi
  00041	8b 7c 24 1c	 mov	 edi, DWORD PTR __Ptr$[esp+12]
  00045	8d 34 28	 lea	 esi, DWORD PTR [eax+ebp]
  00048	33 c0		 xor	 eax, eax
  0004a	f3 a6		 repe cmpsb
  0004c	5f		 pop	 edi
  0004d	74 05		 je	 SHORT $L217427
  0004f	1b c0		 sbb	 eax, eax
  00051	83 d8 ff	 sbb	 eax, -1
$L217427:

; 1421 : 		return (_Ans != 0 ? (int)_Ans : _N0 < _Count ? -1
; 1422 : 			: _N0 == _Count ? 0 : +1);

  00054	85 c0		 test	 eax, eax
  00056	75 14		 jne	 SHORT $L217412
$L217428:
  00058	3b d3		 cmp	 edx, ebx
  0005a	73 09		 jae	 SHORT $L217411
  0005c	5e		 pop	 esi
  0005d	5d		 pop	 ebp
  0005e	83 c8 ff	 or	 eax, -1
  00061	5b		 pop	 ebx

; 1423 : 		}

  00062	c2 10 00	 ret	 16			; 00000010H
$L217411:

; 1421 : 		return (_Ans != 0 ? (int)_Ans : _N0 < _Count ? -1
; 1422 : 			: _N0 == _Count ? 0 : +1);

  00065	33 c0		 xor	 eax, eax
  00067	3b d3		 cmp	 edx, ebx
  00069	0f 95 c0	 setne	 al
$L217412:
  0006c	5e		 pop	 esi
  0006d	5d		 pop	 ebp
  0006e	5b		 pop	 ebx

; 1423 : 		}

  0006f	c2 10 00	 ret	 16			; 00000010H
?compare@?$basic_string@DU?$char_traits@D@std@@V?$allocator@D@2@@std@@QBEHIIPBDI@Z ENDP ; std::basic_string<char,std::char_traits<char>,std::allocator<char> >::compare
_TEXT	ENDS
PUBLIC	?get_allocator@?$_Tree@V?$_Tmap_traits@EHU?$less@E@std@@V?$allocator@U?$pair@$$CBEH@std@@@2@$0A@@std@@@std@@QBE?AV?$allocator@U?$pair@$$CBEH@std@@@2@XZ ; std::_Tree<std::_Tmap_traits<unsigned char,int,std::less<unsigned char>,std::allocator<std::pair<unsigned char const ,int> >,0> >::get_allocator
; Function compile flags: /Ogty
; File c:\program files\microsoft visual studio .net 2003\vc7\include\xtree
;	COMDAT ?get_allocator@?$_Tree@V?$_Tmap_traits@EHU?$less@E@std@@V?$allocator@U?$pair@$$CBEH@std@@@2@$0A@@std@@@std@@QBE?AV?$allocator@U?$pair@$$CBEH@std@@@2@XZ
_TEXT	SEGMENT
___$ReturnUdt$ = 8					; size = 4
?get_allocator@?$_Tree@V?$_Tmap_traits@EHU?$less@E@std@@V?$allocator@U?$pair@$$CBEH@std@@@2@$0A@@std@@@std@@QBE?AV?$allocator@U?$pair@$$CBEH@std@@@2@XZ PROC NEAR ; std::_Tree<std::_Tmap_traits<unsigned char,int,std::less<unsigned char>,std::allocator<std::pair<unsigned char const ,int> >,0> >::get_allocator, COMDAT
; _this$ = ecx

; 463  : 		return (this->_Alval);

  00000	8b 44 24 04	 mov	 eax, DWORD PTR ___$ReturnUdt$[esp-4]

; 464  : 		}

  00004	c2 04 00	 ret	 4
?get_allocator@?$_Tree@V?$_Tmap_traits@EHU?$less@E@std@@V?$allocator@U?$pair@$$CBEH@std@@@2@$0A@@std@@@std@@QBE?AV?$allocator@U?$pair@$$CBEH@std@@@2@XZ ENDP ; std::_Tree<std::_Tmap_traits<unsigned char,int,std::less<unsigned char>,std::allocator<std::pair<unsigned char const ,int> >,0> >::get_allocator
_TEXT	ENDS
PUBLIC	?_Key@?$_Tree@V?$_Tset_traits@V?$basic_string@DU?$char_traits@D@std@@V?$allocator@D@2@@std@@U?$less@V?$basic_string@DU?$char_traits@D@std@@V?$allocator@D@2@@std@@@2@V?$allocator@V?$basic_string@DU?$char_traits@D@std@@V?$allocator@D@2@@std@@@2@$0A@@std@@@std@@KAABV?$basic_string@DU?$char_traits@D@std@@V?$allocator@D@2@@2@PAU_Node@?$_Tree_nod@V?$_Tset_traits@V?$basic_string@DU?$char_traits@D@std@@V?$allocator@D@2@@std@@U?$less@V?$basic_string@DU?$char_traits@D@std@@V?$allocator@D@2@@std@@@2@V?$allocator@V?$basic_string@DU?$char_traits@D@std@@V?$allocator@D@2@@std@@@2@$0A@@std@@@2@@Z ; std::_Tree<std::_Tset_traits<std::basic_string<char,std::char_traits<char>,std::allocator<char> >,std::less<std::basic_string<char,std::char_traits<char>,std::allocator<char> > >,std::allocator<std::basic_string<char,std::char_traits<char>,std::allocator<char> > >,0> >::_Key
; Function compile flags: /Ogty
;	COMDAT ?_Key@?$_Tree@V?$_Tset_traits@V?$basic_string@DU?$char_traits@D@std@@V?$allocator@D@2@@std@@U?$less@V?$basic_string@DU?$char_traits@D@std@@V?$allocator@D@2@@std@@@2@V?$allocator@V?$basic_string@DU?$char_traits@D@std@@V?$allocator@D@2@@std@@@2@$0A@@std@@@std@@KAABV?$basic_string@DU?$char_traits@D@std@@V?$allocator@D@2@@2@PAU_Node@?$_Tree_nod@V?$_Tset_traits@V?$basic_string@DU?$char_traits@D@std@@V?$allocator@D@2@@std@@U?$less@V?$basic_string@DU?$char_traits@D@std@@V?$allocator@D@2@@std@@@2@V?$allocator@V?$basic_string@DU?$char_traits@D@std@@V?$allocator@D@2@@std@@@2@$0A@@std@@@2@@Z
_TEXT	SEGMENT
__Pnode$ = 8						; size = 4
?_Key@?$_Tree@V?$_Tset_traits@V?$basic_string@DU?$char_traits@D@std@@V?$allocator@D@2@@std@@U?$less@V?$basic_string@DU?$char_traits@D@std@@V?$allocator@D@2@@std@@@2@V?$allocator@V?$basic_string@DU?$char_traits@D@std@@V?$allocator@D@2@@std@@@2@$0A@@std@@@std@@KAABV?$basic_string@DU?$char_traits@D@std@@V?$allocator@D@2@@2@PAU_Node@?$_Tree_nod@V?$_Tset_traits@V?$basic_string@DU?$char_traits@D@std@@V?$allocator@D@2@@std@@U?$less@V?$basic_string@DU?$char_traits@D@std@@V?$allocator@D@2@@std@@@2@V?$allocator@V?$basic_string@DU?$char_traits@D@std@@V?$allocator@D@2@@std@@@2@$0A@@std@@@2@@Z PROC NEAR ; std::_Tree<std::_Tset_traits<std::basic_string<char,std::char_traits<char>,std::allocator<char> >,std::less<std::basic_string<char,std::char_traits<char>,std::allocator<char> > >,std::allocator<std::basic_string<char,std::char_traits<char>,std::allocator<char> > >,0> >::_Key, COMDAT

; 142  : 		return (_Mybase::_Kfn(_Myval(_Pnode)));

  00000	8b 44 24 04	 mov	 eax, DWORD PTR __Pnode$[esp-4]
  00004	83 c0 0c	 add	 eax, 12			; 0000000cH

; 143  : 		}

  00007	c3		 ret	 0
?_Key@?$_Tree@V?$_Tset_traits@V?$basic_string@DU?$char_traits@D@std@@V?$allocator@D@2@@std@@U?$less@V?$basic_string@DU?$char_traits@D@std@@V?$allocator@D@2@@std@@@2@V?$allocator@V?$basic_string@DU?$char_traits@D@std@@V?$allocator@D@2@@std@@@2@$0A@@std@@@std@@KAABV?$basic_string@DU?$char_traits@D@std@@V?$allocator@D@2@@2@PAU_Node@?$_Tree_nod@V?$_Tset_traits@V?$basic_string@DU?$char_traits@D@std@@V?$allocator@D@2@@std@@U?$less@V?$basic_string@DU?$char_traits@D@std@@V?$allocator@D@2@@std@@@2@V?$allocator@V?$basic_string@DU?$char_traits@D@std@@V?$allocator@D@2@@std@@@2@$0A@@std@@@2@@Z ENDP ; std::_Tree<std::_Tset_traits<std::basic_string<char,std::char_traits<char>,std::allocator<char> >,std::less<std::basic_string<char,std::char_traits<char>,std::allocator<char> > >,std::allocator<std::basic_string<char,std::char_traits<char>,std::allocator<char> > >,0> >::_Key
_TEXT	ENDS
PUBLIC	?_Root@?$_Tree@V?$_Tset_traits@V?$basic_string@DU?$char_traits@D@std@@V?$allocator@D@2@@std@@U?$less@V?$basic_string@DU?$char_traits@D@std@@V?$allocator@D@2@@std@@@2@V?$allocator@V?$basic_string@DU?$char_traits@D@std@@V?$allocator@D@2@@std@@@2@$0A@@std@@@std@@IAEAAPAU_Node@?$_Tree_nod@V?$_Tset_traits@V?$basic_string@DU?$char_traits@D@std@@V?$allocator@D@2@@std@@U?$less@V?$basic_string@DU?$char_traits@D@std@@V?$allocator@D@2@@std@@@2@V?$allocator@V?$basic_string@DU?$char_traits@D@std@@V?$allocator@D@2@@std@@@2@$0A@@std@@@2@XZ ; std::_Tree<std::_Tset_traits<std::basic_string<char,std::char_traits<char>,std::allocator<char> >,std::less<std::basic_string<char,std::char_traits<char>,std::allocator<char> > >,std::allocator<std::basic_string<char,std::char_traits<char>,std::allocator<char> > >,0> >::_Root
; Function compile flags: /Ogty
;	COMDAT ?_Root@?$_Tree@V?$_Tset_traits@V?$basic_string@DU?$char_traits@D@std@@V?$allocator@D@2@@std@@U?$less@V?$basic_string@DU?$char_traits@D@std@@V?$allocator@D@2@@std@@@2@V?$allocator@V?$basic_string@DU?$char_traits@D@std@@V?$allocator@D@2@@std@@@2@$0A@@std@@@std@@IAEAAPAU_Node@?$_Tree_nod@V?$_Tset_traits@V?$basic_string@DU?$char_traits@D@std@@V?$allocator@D@2@@std@@U?$less@V?$basic_string@DU?$char_traits@D@std@@V?$allocator@D@2@@std@@@2@V?$allocator@V?$basic_string@DU?$char_traits@D@std@@V?$allocator@D@2@@std@@@2@$0A@@std@@@2@XZ
_TEXT	SEGMENT
?_Root@?$_Tree@V?$_Tset_traits@V?$basic_string@DU?$char_traits@D@std@@V?$allocator@D@2@@std@@U?$less@V?$basic_string@DU?$char_traits@D@std@@V?$allocator@D@2@@std@@@2@V?$allocator@V?$basic_string@DU?$char_traits@D@std@@V?$allocator@D@2@@std@@@2@$0A@@std@@@std@@IAEAAPAU_Node@?$_Tree_nod@V?$_Tset_traits@V?$basic_string@DU?$char_traits@D@std@@V?$allocator@D@2@@std@@U?$less@V?$basic_string@DU?$char_traits@D@std@@V?$allocator@D@2@@std@@@2@V?$allocator@V?$basic_string@DU?$char_traits@D@std@@V?$allocator@D@2@@std@@@2@$0A@@std@@@2@XZ PROC NEAR ; std::_Tree<std::_Tset_traits<std::basic_string<char,std::char_traits<char>,std::allocator<char> >,std::less<std::basic_string<char,std::char_traits<char>,std::allocator<char> > >,std::allocator<std::basic_string<char,std::char_traits<char>,std::allocator<char> > >,0> >::_Root, COMDAT
; _this$ = ecx

; 1059 : 		return (_Parent(_Myhead));

  00000	8b 41 04	 mov	 eax, DWORD PTR [ecx+4]
  00003	83 c0 04	 add	 eax, 4

; 1060 : 		}

  00006	c3		 ret	 0
?_Root@?$_Tree@V?$_Tset_traits@V?$basic_string@DU?$char_traits@D@std@@V?$allocator@D@2@@std@@U?$less@V?$basic_string@DU?$char_traits@D@std@@V?$allocator@D@2@@std@@@2@V?$allocator@V?$basic_string@DU?$char_traits@D@std@@V?$allocator@D@2@@std@@@2@$0A@@std@@@std@@IAEAAPAU_Node@?$_Tree_nod@V?$_Tset_traits@V?$basic_string@DU?$char_traits@D@std@@V?$allocator@D@2@@std@@U?$less@V?$basic_string@DU?$char_traits@D@std@@V?$allocator@D@2@@std@@@2@V?$allocator@V?$basic_string@DU?$char_traits@D@std@@V?$allocator@D@2@@std@@@2@$0A@@std@@@2@XZ ENDP ; std::_Tree<std::_Tset_traits<std::basic_string<char,std::char_traits<char>,std::allocator<char> >,std::less<std::basic_string<char,std::char_traits<char>,std::allocator<char> > >,std::allocator<std::basic_string<char,std::char_traits<char>,std::allocator<char> > >,0> >::_Root
_TEXT	ENDS
PUBLIC	??0iterator@?$_Tree@V?$_Tset_traits@V?$basic_string@DU?$char_traits@D@std@@V?$allocator@D@2@@std@@U?$less@V?$basic_string@DU?$char_traits@D@std@@V?$allocator@D@2@@std@@@2@V?$allocator@V?$basic_string@DU?$char_traits@D@std@@V?$allocator@D@2@@std@@@2@$0A@@std@@@std@@QAE@PAU_Node@?$_Tree_nod@V?$_Tset_traits@V?$basic_string@DU?$char_traits@D@std@@V?$allocator@D@2@@std@@U?$less@V?$basic_string@DU?$char_traits@D@std@@V?$allocator@D@2@@std@@@2@V?$allocator@V?$basic_string@DU?$char_traits@D@std@@V?$allocator@D@2@@std@@@2@$0A@@std@@@2@@Z ; std::_Tree<std::_Tset_traits<std::basic_string<char,std::char_traits<char>,std::allocator<char> >,std::less<std::basic_string<char,std::char_traits<char>,std::allocator<char> > >,std::allocator<std::basic_string<char,std::char_traits<char>,std::allocator<char> > >,0> >::iterator::iterator
; Function compile flags: /Ogty
;	COMDAT ??0iterator@?$_Tree@V?$_Tset_traits@V?$basic_string@DU?$char_traits@D@std@@V?$allocator@D@2@@std@@U?$less@V?$basic_string@DU?$char_traits@D@std@@V?$allocator@D@2@@std@@@2@V?$allocator@V?$basic_string@DU?$char_traits@D@std@@V?$allocator@D@2@@std@@@2@$0A@@std@@@std@@QAE@PAU_Node@?$_Tree_nod@V?$_Tset_traits@V?$basic_string@DU?$char_traits@D@std@@V?$allocator@D@2@@std@@U?$less@V?$basic_string@DU?$char_traits@D@std@@V?$allocator@D@2@@std@@@2@V?$allocator@V?$basic_string@DU?$char_traits@D@std@@V?$allocator@D@2@@std@@@2@$0A@@std@@@2@@Z
_TEXT	SEGMENT
__Pnode$ = 8						; size = 4
??0iterator@?$_Tree@V?$_Tset_traits@V?$basic_string@DU?$char_traits@D@std@@V?$allocator@D@2@@std@@U?$less@V?$basic_string@DU?$char_traits@D@std@@V?$allocator@D@2@@std@@@2@V?$allocator@V?$basic_string@DU?$char_traits@D@std@@V?$allocator@D@2@@std@@@2@$0A@@std@@@std@@QAE@PAU_Node@?$_Tree_nod@V?$_Tset_traits@V?$basic_string@DU?$char_traits@D@std@@V?$allocator@D@2@@std@@U?$less@V?$basic_string@DU?$char_traits@D@std@@V?$allocator@D@2@@std@@@2@V?$allocator@V?$basic_string@DU?$char_traits@D@std@@V?$allocator@D@2@@std@@@2@$0A@@std@@@2@@Z PROC NEAR ; std::_Tree<std::_Tset_traits<std::basic_string<char,std::char_traits<char>,std::allocator<char> >,std::less<std::basic_string<char,std::char_traits<char>,std::allocator<char> > >,std::allocator<std::basic_string<char,std::char_traits<char>,std::allocator<char> > >,0> >::iterator::iterator, COMDAT
; _this$ = ecx

; 312  : 			{	// construct with node pointer _Pnode

  00000	8b c1		 mov	 eax, ecx
  00002	8b 4c 24 04	 mov	 ecx, DWORD PTR __Pnode$[esp-4]
  00006	89 08		 mov	 DWORD PTR [eax], ecx

; 313  : 			}

  00008	c2 04 00	 ret	 4
??0iterator@?$_Tree@V?$_Tset_traits@V?$basic_string@DU?$char_traits@D@std@@V?$allocator@D@2@@std@@U?$less@V?$basic_string@DU?$char_traits@D@std@@V?$allocator@D@2@@std@@@2@V?$allocator@V?$basic_string@DU?$char_traits@D@std@@V?$allocator@D@2@@std@@@2@$0A@@std@@@std@@QAE@PAU_Node@?$_Tree_nod@V?$_Tset_traits@V?$basic_string@DU?$char_traits@D@std@@V?$allocator@D@2@@std@@U?$less@V?$basic_string@DU?$char_traits@D@std@@V?$allocator@D@2@@std@@@2@V?$allocator@V?$basic_string@DU?$char_traits@D@std@@V?$allocator@D@2@@std@@@2@$0A@@std@@@2@@Z ENDP ; std::_Tree<std::_Tset_traits<std::basic_string<char,std::char_traits<char>,std::allocator<char> >,std::less<std::basic_string<char,std::char_traits<char>,std::allocator<char> > >,std::allocator<std::basic_string<char,std::char_traits<char>,std::allocator<char> > >,0> >::iterator::iterator
_TEXT	ENDS
PUBLIC	?destroy@?$allocator@PAU_Node@?$_Tree_nod@V?$_Tmap_traits@EHU?$less@E@std@@V?$allocator@U?$pair@$$CBEH@std@@@2@$0A@@std@@@std@@@std@@QAEXPAPAU_Node@?$_Tree_nod@V?$_Tmap_traits@EHU?$less@E@std@@V?$allocator@U?$pair@$$CBEH@std@@@2@$0A@@std@@@2@@Z ; std::allocator<std::_Tree_nod<std::_Tmap_traits<unsigned char,int,std::less<unsigned char>,std::allocator<std::pair<unsigned char const ,int> >,0> >::_Node *>::destroy
; Function compile flags: /Ogty
; File c:\program files\microsoft visual studio .net 2003\vc7\include\xmemory
;	COMDAT ?destroy@?$allocator@PAU_Node@?$_Tree_nod@V?$_Tmap_traits@EHU?$less@E@std@@V?$allocator@U?$pair@$$CBEH@std@@@2@$0A@@std@@@std@@@std@@QAEXPAPAU_Node@?$_Tree_nod@V?$_Tmap_traits@EHU?$less@E@std@@V?$allocator@U?$pair@$$CBEH@std@@@2@$0A@@std@@@2@@Z
_TEXT	SEGMENT
__Ptr$ = 8						; size = 4
?destroy@?$allocator@PAU_Node@?$_Tree_nod@V?$_Tmap_traits@EHU?$less@E@std@@V?$allocator@U?$pair@$$CBEH@std@@@2@$0A@@std@@@std@@@std@@QAEXPAPAU_Node@?$_Tree_nod@V?$_Tmap_traits@EHU?$less@E@std@@V?$allocator@U?$pair@$$CBEH@std@@@2@$0A@@std@@@2@@Z PROC NEAR ; std::allocator<std::_Tree_nod<std::_Tmap_traits<unsigned char,int,std::less<unsigned char>,std::allocator<std::pair<unsigned char const ,int> >,0> >::_Node *>::destroy, COMDAT
; _this$ = ecx

; 152  : 		_Destroy(_Ptr);
; 153  : 		}

  00000	c2 04 00	 ret	 4
?destroy@?$allocator@PAU_Node@?$_Tree_nod@V?$_Tmap_traits@EHU?$less@E@std@@V?$allocator@U?$pair@$$CBEH@std@@@2@$0A@@std@@@std@@@std@@QAEXPAPAU_Node@?$_Tree_nod@V?$_Tmap_traits@EHU?$less@E@std@@V?$allocator@U?$pair@$$CBEH@std@@@2@$0A@@std@@@2@@Z ENDP ; std::allocator<std::_Tree_nod<std::_Tmap_traits<unsigned char,int,std::less<unsigned char>,std::allocator<std::pair<unsigned char const ,int> >,0> >::_Node *>::destroy
_TEXT	ENDS
PUBLIC	?max_size@?$_Tree@V?$_Tset_traits@V?$basic_string@DU?$char_traits@D@std@@V?$allocator@D@2@@std@@U?$less@V?$basic_string@DU?$char_traits@D@std@@V?$allocator@D@2@@std@@@2@V?$allocator@V?$basic_string@DU?$char_traits@D@std@@V?$allocator@D@2@@std@@@2@$0A@@std@@@std@@QBEIXZ ; std::_Tree<std::_Tset_traits<std::basic_string<char,std::char_traits<char>,std::allocator<char> >,std::less<std::basic_string<char,std::char_traits<char>,std::allocator<char> > >,std::allocator<std::basic_string<char,std::char_traits<char>,std::allocator<char> > >,0> >::max_size
; Function compile flags: /Ogty
; File c:\program files\microsoft visual studio .net 2003\vc7\include\xtree
;	COMDAT ?max_size@?$_Tree@V?$_Tset_traits@V?$basic_string@DU?$char_traits@D@std@@V?$allocator@D@2@@std@@U?$less@V?$basic_string@DU?$char_traits@D@std@@V?$allocator@D@2@@std@@@2@V?$allocator@V?$basic_string@DU?$char_traits@D@std@@V?$allocator@D@2@@std@@@2@$0A@@std@@@std@@QBEIXZ
_TEXT	SEGMENT
?max_size@?$_Tree@V?$_Tset_traits@V?$basic_string@DU?$char_traits@D@std@@V?$allocator@D@2@@std@@U?$less@V?$basic_string@DU?$char_traits@D@std@@V?$allocator@D@2@@std@@@2@V?$allocator@V?$basic_string@DU?$char_traits@D@std@@V?$allocator@D@2@@std@@@2@$0A@@std@@@std@@QBEIXZ PROC NEAR ; std::_Tree<std::_Tset_traits<std::basic_string<char,std::char_traits<char>,std::allocator<char> >,std::less<std::basic_string<char,std::char_traits<char>,std::allocator<char> > >,std::allocator<std::basic_string<char,std::char_traits<char>,std::allocator<char> > >,0> >::max_size, COMDAT
; _this$ = ecx

; 453  : 		return (this->_Alval.max_size());

  00000	b8 49 92 24 09	 mov	 eax, 153391689		; 09249249H

; 454  : 		}

  00005	c3		 ret	 0
?max_size@?$_Tree@V?$_Tset_traits@V?$basic_string@DU?$char_traits@D@std@@V?$allocator@D@2@@std@@U?$less@V?$basic_string@DU?$char_traits@D@std@@V?$allocator@D@2@@std@@@2@V?$allocator@V?$basic_string@DU?$char_traits@D@std@@V?$allocator@D@2@@std@@@2@$0A@@std@@@std@@QBEIXZ ENDP ; std::_Tree<std::_Tset_traits<std::basic_string<char,std::char_traits<char>,std::allocator<char> >,std::less<std::basic_string<char,std::char_traits<char>,std::allocator<char> > >,std::allocator<std::basic_string<char,std::char_traits<char>,std::allocator<char> > >,0> >::max_size
_TEXT	ENDS
PUBLIC	?_Lrotate@?$_Tree@V?$_Tset_traits@V?$basic_string@DU?$char_traits@D@std@@V?$allocator@D@2@@std@@U?$less@V?$basic_string@DU?$char_traits@D@std@@V?$allocator@D@2@@std@@@2@V?$allocator@V?$basic_string@DU?$char_traits@D@std@@V?$allocator@D@2@@std@@@2@$0A@@std@@@std@@IAEXPAU_Node@?$_Tree_nod@V?$_Tset_traits@V?$basic_string@DU?$char_traits@D@std@@V?$allocator@D@2@@std@@U?$less@V?$basic_string@DU?$char_traits@D@std@@V?$allocator@D@2@@std@@@2@V?$allocator@V?$basic_string@DU?$char_traits@D@std@@V?$allocator@D@2@@std@@@2@$0A@@std@@@2@@Z ; std::_Tree<std::_Tset_traits<std::basic_string<char,std::char_traits<char>,std::allocator<char> >,std::less<std::basic_string<char,std::char_traits<char>,std::allocator<char> > >,std::allocator<std::basic_string<char,std::char_traits<char>,std::allocator<char> > >,0> >::_Lrotate
; Function compile flags: /Ogty
;	COMDAT ?_Lrotate@?$_Tree@V?$_Tset_traits@V?$basic_string@DU?$char_traits@D@std@@V?$allocator@D@2@@std@@U?$less@V?$basic_string@DU?$char_traits@D@std@@V?$allocator@D@2@@std@@@2@V?$allocator@V?$basic_string@DU?$char_traits@D@std@@V?$allocator@D@2@@std@@@2@$0A@@std@@@std@@IAEXPAU_Node@?$_Tree_nod@V?$_Tset_traits@V?$basic_string@DU?$char_traits@D@std@@V?$allocator@D@2@@std@@U?$less@V?$basic_string@DU?$char_traits@D@std@@V?$allocator@D@2@@std@@@2@V?$allocator@V?$basic_string@DU?$char_traits@D@std@@V?$allocator@D@2@@std@@@2@$0A@@std@@@2@@Z
_TEXT	SEGMENT
__Wherenode$ = 8					; size = 4
?_Lrotate@?$_Tree@V?$_Tset_traits@V?$basic_string@DU?$char_traits@D@std@@V?$allocator@D@2@@std@@U?$less@V?$basic_string@DU?$char_traits@D@std@@V?$allocator@D@2@@std@@@2@V?$allocator@V?$basic_string@DU?$char_traits@D@std@@V?$allocator@D@2@@std@@@2@$0A@@std@@@std@@IAEXPAU_Node@?$_Tree_nod@V?$_Tset_traits@V?$basic_string@DU?$char_traits@D@std@@V?$allocator@D@2@@std@@U?$less@V?$basic_string@DU?$char_traits@D@std@@V?$allocator@D@2@@std@@@2@V?$allocator@V?$basic_string@DU?$char_traits@D@std@@V?$allocator@D@2@@std@@@2@$0A@@std@@@2@@Z PROC NEAR ; std::_Tree<std::_Tset_traits<std::basic_string<char,std::char_traits<char>,std::allocator<char> >,std::less<std::basic_string<char,std::char_traits<char>,std::allocator<char> > >,std::allocator<std::basic_string<char,std::char_traits<char>,std::allocator<char> > >,0> >::_Lrotate, COMDAT
; _this$ = ecx

; 1015 : 		_Nodeptr _Pnode = _Right(_Wherenode);

  00000	8b 54 24 04	 mov	 edx, DWORD PTR __Wherenode$[esp-4]
  00004	8b 42 08	 mov	 eax, DWORD PTR [edx+8]
  00007	53		 push	 ebx
  00008	56		 push	 esi

; 1016 : 		_Right(_Wherenode) = _Left(_Pnode);

  00009	8b 30		 mov	 esi, DWORD PTR [eax]
  0000b	89 72 08	 mov	 DWORD PTR [edx+8], esi

; 1017 : 
; 1018 : 		if (!_Isnil(_Left(_Pnode)))

  0000e	8b 30		 mov	 esi, DWORD PTR [eax]
  00010	8a 5e 29	 mov	 bl, BYTE PTR [esi+41]
  00013	84 db		 test	 bl, bl
  00015	75 03		 jne	 SHORT $L214742

; 1019 : 			_Parent(_Left(_Pnode)) = _Wherenode;

  00017	89 56 04	 mov	 DWORD PTR [esi+4], edx
$L214742:

; 1020 : 		_Parent(_Pnode) = _Parent(_Wherenode);

  0001a	8b 72 04	 mov	 esi, DWORD PTR [edx+4]
  0001d	89 70 04	 mov	 DWORD PTR [eax+4], esi

; 1021 : 
; 1022 : 		if (_Wherenode == _Root())

  00020	8b 49 04	 mov	 ecx, DWORD PTR [ecx+4]
  00023	3b 51 04	 cmp	 edx, DWORD PTR [ecx+4]
  00026	75 0d		 jne	 SHORT $L214743

; 1023 : 			_Root() = _Pnode;

  00028	89 41 04	 mov	 DWORD PTR [ecx+4], eax
  0002b	5e		 pop	 esi

; 1028 : 
; 1029 : 		_Left(_Pnode) = _Wherenode;

  0002c	89 10		 mov	 DWORD PTR [eax], edx

; 1030 : 		_Parent(_Wherenode) = _Pnode;

  0002e	89 42 04	 mov	 DWORD PTR [edx+4], eax
  00031	5b		 pop	 ebx

; 1031 : 		}

  00032	c2 04 00	 ret	 4
$L214743:

; 1024 : 		else if (_Wherenode == _Left(_Parent(_Wherenode)))

  00035	8b 4a 04	 mov	 ecx, DWORD PTR [edx+4]
  00038	3b 11		 cmp	 edx, DWORD PTR [ecx]
  0003a	75 0c		 jne	 SHORT $L214745

; 1025 : 			_Left(_Parent(_Wherenode)) = _Pnode;

  0003c	89 01		 mov	 DWORD PTR [ecx], eax
  0003e	5e		 pop	 esi

; 1028 : 
; 1029 : 		_Left(_Pnode) = _Wherenode;

  0003f	89 10		 mov	 DWORD PTR [eax], edx

; 1030 : 		_Parent(_Wherenode) = _Pnode;

  00041	89 42 04	 mov	 DWORD PTR [edx+4], eax
  00044	5b		 pop	 ebx

; 1031 : 		}

  00045	c2 04 00	 ret	 4
$L214745:

; 1026 : 		else
; 1027 : 			_Right(_Parent(_Wherenode)) = _Pnode;

  00048	89 41 08	 mov	 DWORD PTR [ecx+8], eax
  0004b	5e		 pop	 esi

; 1028 : 
; 1029 : 		_Left(_Pnode) = _Wherenode;

  0004c	89 10		 mov	 DWORD PTR [eax], edx

; 1030 : 		_Parent(_Wherenode) = _Pnode;

  0004e	89 42 04	 mov	 DWORD PTR [edx+4], eax
  00051	5b		 pop	 ebx

; 1031 : 		}

  00052	c2 04 00	 ret	 4
?_Lrotate@?$_Tree@V?$_Tset_traits@V?$basic_string@DU?$char_traits@D@std@@V?$allocator@D@2@@std@@U?$less@V?$basic_string@DU?$char_traits@D@std@@V?$allocator@D@2@@std@@@2@V?$allocator@V?$basic_string@DU?$char_traits@D@std@@V?$allocator@D@2@@std@@@2@$0A@@std@@@std@@IAEXPAU_Node@?$_Tree_nod@V?$_Tset_traits@V?$basic_string@DU?$char_traits@D@std@@V?$allocator@D@2@@std@@U?$less@V?$basic_string@DU?$char_traits@D@std@@V?$allocator@D@2@@std@@@2@V?$allocator@V?$basic_string@DU?$char_traits@D@std@@V?$allocator@D@2@@std@@@2@$0A@@std@@@2@@Z ENDP ; std::_Tree<std::_Tset_traits<std::basic_string<char,std::char_traits<char>,std::allocator<char> >,std::less<std::basic_string<char,std::char_traits<char>,std::allocator<char> > >,std::allocator<std::basic_string<char,std::char_traits<char>,std::allocator<char> > >,0> >::_Lrotate
_TEXT	ENDS
PUBLIC	?_Rrotate@?$_Tree@V?$_Tset_traits@V?$basic_string@DU?$char_traits@D@std@@V?$allocator@D@2@@std@@U?$less@V?$basic_string@DU?$char_traits@D@std@@V?$allocator@D@2@@std@@@2@V?$allocator@V?$basic_string@DU?$char_traits@D@std@@V?$allocator@D@2@@std@@@2@$0A@@std@@@std@@IAEXPAU_Node@?$_Tree_nod@V?$_Tset_traits@V?$basic_string@DU?$char_traits@D@std@@V?$allocator@D@2@@std@@U?$less@V?$basic_string@DU?$char_traits@D@std@@V?$allocator@D@2@@std@@@2@V?$allocator@V?$basic_string@DU?$char_traits@D@std@@V?$allocator@D@2@@std@@@2@$0A@@std@@@2@@Z ; std::_Tree<std::_Tset_traits<std::basic_string<char,std::char_traits<char>,std::allocator<char> >,std::less<std::basic_string<char,std::char_traits<char>,std::allocator<char> > >,std::allocator<std::basic_string<char,std::char_traits<char>,std::allocator<char> > >,0> >::_Rrotate
; Function compile flags: /Ogty
;	COMDAT ?_Rrotate@?$_Tree@V?$_Tset_traits@V?$basic_string@DU?$char_traits@D@std@@V?$allocator@D@2@@std@@U?$less@V?$basic_string@DU?$char_traits@D@std@@V?$allocator@D@2@@std@@@2@V?$allocator@V?$basic_string@DU?$char_traits@D@std@@V?$allocator@D@2@@std@@@2@$0A@@std@@@std@@IAEXPAU_Node@?$_Tree_nod@V?$_Tset_traits@V?$basic_string@DU?$char_traits@D@std@@V?$allocator@D@2@@std@@U?$less@V?$basic_string@DU?$char_traits@D@std@@V?$allocator@D@2@@std@@@2@V?$allocator@V?$basic_string@DU?$char_traits@D@std@@V?$allocator@D@2@@std@@@2@$0A@@std@@@2@@Z
_TEXT	SEGMENT
__Wherenode$ = 8					; size = 4
?_Rrotate@?$_Tree@V?$_Tset_traits@V?$basic_string@DU?$char_traits@D@std@@V?$allocator@D@2@@std@@U?$less@V?$basic_string@DU?$char_traits@D@std@@V?$allocator@D@2@@std@@@2@V?$allocator@V?$basic_string@DU?$char_traits@D@std@@V?$allocator@D@2@@std@@@2@$0A@@std@@@std@@IAEXPAU_Node@?$_Tree_nod@V?$_Tset_traits@V?$basic_string@DU?$char_traits@D@std@@V?$allocator@D@2@@std@@U?$less@V?$basic_string@DU?$char_traits@D@std@@V?$allocator@D@2@@std@@@2@V?$allocator@V?$basic_string@DU?$char_traits@D@std@@V?$allocator@D@2@@std@@@2@$0A@@std@@@2@@Z PROC NEAR ; std::_Tree<std::_Tset_traits<std::basic_string<char,std::char_traits<char>,std::allocator<char> >,std::less<std::basic_string<char,std::char_traits<char>,std::allocator<char> > >,std::allocator<std::basic_string<char,std::char_traits<char>,std::allocator<char> > >,0> >::_Rrotate, COMDAT
; _this$ = ecx

; 1069 : 		_Nodeptr _Pnode = _Left(_Wherenode);

  00000	8b 54 24 04	 mov	 edx, DWORD PTR __Wherenode$[esp-4]
  00004	8b 02		 mov	 eax, DWORD PTR [edx]
  00006	53		 push	 ebx
  00007	56		 push	 esi

; 1070 : 		_Left(_Wherenode) = _Right(_Pnode);

  00008	8b 70 08	 mov	 esi, DWORD PTR [eax+8]
  0000b	89 32		 mov	 DWORD PTR [edx], esi

; 1071 : 
; 1072 : 		if (!_Isnil(_Right(_Pnode)))

  0000d	8b 70 08	 mov	 esi, DWORD PTR [eax+8]
  00010	8a 5e 29	 mov	 bl, BYTE PTR [esi+41]
  00013	84 db		 test	 bl, bl
  00015	75 03		 jne	 SHORT $L214752

; 1073 : 			_Parent(_Right(_Pnode)) = _Wherenode;

  00017	89 56 04	 mov	 DWORD PTR [esi+4], edx
$L214752:

; 1074 : 		_Parent(_Pnode) = _Parent(_Wherenode);

  0001a	8b 72 04	 mov	 esi, DWORD PTR [edx+4]
  0001d	89 70 04	 mov	 DWORD PTR [eax+4], esi

; 1075 : 
; 1076 : 		if (_Wherenode == _Root())

  00020	8b 49 04	 mov	 ecx, DWORD PTR [ecx+4]
  00023	3b 51 04	 cmp	 edx, DWORD PTR [ecx+4]
  00026	75 0e		 jne	 SHORT $L214753

; 1077 : 			_Root() = _Pnode;

  00028	89 41 04	 mov	 DWORD PTR [ecx+4], eax
  0002b	5e		 pop	 esi

; 1082 : 
; 1083 : 		_Right(_Pnode) = _Wherenode;

  0002c	89 50 08	 mov	 DWORD PTR [eax+8], edx

; 1084 : 		_Parent(_Wherenode) = _Pnode;

  0002f	89 42 04	 mov	 DWORD PTR [edx+4], eax
  00032	5b		 pop	 ebx

; 1085 : 		}

  00033	c2 04 00	 ret	 4
$L214753:

; 1078 : 		else if (_Wherenode == _Right(_Parent(_Wherenode)))

  00036	8b 4a 04	 mov	 ecx, DWORD PTR [edx+4]
  00039	3b 51 08	 cmp	 edx, DWORD PTR [ecx+8]
  0003c	75 0e		 jne	 SHORT $L214755

; 1079 : 			_Right(_Parent(_Wherenode)) = _Pnode;

  0003e	89 41 08	 mov	 DWORD PTR [ecx+8], eax
  00041	5e		 pop	 esi

; 1082 : 
; 1083 : 		_Right(_Pnode) = _Wherenode;

  00042	89 50 08	 mov	 DWORD PTR [eax+8], edx

; 1084 : 		_Parent(_Wherenode) = _Pnode;

  00045	89 42 04	 mov	 DWORD PTR [edx+4], eax
  00048	5b		 pop	 ebx

; 1085 : 		}

  00049	c2 04 00	 ret	 4
$L214755:

; 1080 : 		else
; 1081 : 			_Left(_Parent(_Wherenode)) = _Pnode;

  0004c	89 01		 mov	 DWORD PTR [ecx], eax
  0004e	5e		 pop	 esi

; 1082 : 
; 1083 : 		_Right(_Pnode) = _Wherenode;

  0004f	89 50 08	 mov	 DWORD PTR [eax+8], edx

; 1084 : 		_Parent(_Wherenode) = _Pnode;

  00052	89 42 04	 mov	 DWORD PTR [edx+4], eax
  00055	5b		 pop	 ebx

; 1085 : 		}

  00056	c2 04 00	 ret	 4
?_Rrotate@?$_Tree@V?$_Tset_traits@V?$basic_string@DU?$char_traits@D@std@@V?$allocator@D@2@@std@@U?$less@V?$basic_string@DU?$char_traits@D@std@@V?$allocator@D@2@@std@@@2@V?$allocator@V?$basic_string@DU?$char_traits@D@std@@V?$allocator@D@2@@std@@@2@$0A@@std@@@std@@IAEXPAU_Node@?$_Tree_nod@V?$_Tset_traits@V?$basic_string@DU?$char_traits@D@std@@V?$allocator@D@2@@std@@U?$less@V?$basic_string@DU?$char_traits@D@std@@V?$allocator@D@2@@std@@@2@V?$allocator@V?$basic_string@DU?$char_traits@D@std@@V?$allocator@D@2@@std@@@2@$0A@@std@@@2@@Z ENDP ; std::_Tree<std::_Tset_traits<std::basic_string<char,std::char_traits<char>,std::allocator<char> >,std::less<std::basic_string<char,std::char_traits<char>,std::allocator<char> > >,std::allocator<std::basic_string<char,std::char_traits<char>,std::allocator<char> > >,0> >::_Rrotate
_TEXT	ENDS
PUBLIC	??9const_iterator@?$list@PAXV?$allocator@PAX@std@@@std@@QBE_NABV012@@Z ; std::list<void *,std::allocator<void *> >::const_iterator::operator!=
; Function compile flags: /Ogty
; File c:\program files\microsoft visual studio .net 2003\vc7\include\list
;	COMDAT ??9const_iterator@?$list@PAXV?$allocator@PAX@std@@@std@@QBE_NABV012@@Z
_TEXT	SEGMENT
__Right$ = 8						; size = 4
??9const_iterator@?$list@PAXV?$allocator@PAX@std@@@std@@QBE_NABV012@@Z PROC NEAR ; std::list<void *,std::allocator<void *> >::const_iterator::operator!=, COMDAT
; _this$ = ecx

; 202  : 			return (!(*this == _Right));

  00000	8b 01		 mov	 eax, DWORD PTR [ecx]
  00002	8b 54 24 04	 mov	 edx, DWORD PTR __Right$[esp-4]
  00006	56		 push	 esi
  00007	8b 32		 mov	 esi, DWORD PTR [edx]
  00009	33 c9		 xor	 ecx, ecx
  0000b	3b c6		 cmp	 eax, esi
  0000d	0f 95 c1	 setne	 cl
  00010	8a c1		 mov	 al, cl
  00012	5e		 pop	 esi

; 203  : 			}

  00013	c2 04 00	 ret	 4
??9const_iterator@?$list@PAXV?$allocator@PAX@std@@@std@@QBE_NABV012@@Z ENDP ; std::list<void *,std::allocator<void *> >::const_iterator::operator!=
_TEXT	ENDS
PUBLIC	??0?$_Tree_nod@V?$_Tmap_traits@EHU?$less@E@std@@V?$allocator@U?$pair@$$CBEH@std@@@2@$0A@@std@@@std@@IAE@ABU?$less@E@1@V?$allocator@U?$pair@$$CBEH@std@@@1@@Z ; std::_Tree_nod<std::_Tmap_traits<unsigned char,int,std::less<unsigned char>,std::allocator<std::pair<unsigned char const ,int> >,0> >::_Tree_nod<std::_Tmap_traits<unsigned char,int,std::less<unsigned char>,std::allocator<std::pair<unsigned char const ,int> >,0> >
; Function compile flags: /Ogty
; File c:\program files\microsoft visual studio .net 2003\vc7\include\xtree
;	COMDAT ??0?$_Tree_nod@V?$_Tmap_traits@EHU?$less@E@std@@V?$allocator@U?$pair@$$CBEH@std@@@2@$0A@@std@@@std@@IAE@ABU?$less@E@1@V?$allocator@U?$pair@$$CBEH@std@@@1@@Z
_TEXT	SEGMENT
__Parg$ = 8						; size = 4
__Al$ = 12						; size = 1
??0?$_Tree_nod@V?$_Tmap_traits@EHU?$less@E@std@@V?$allocator@U?$pair@$$CBEH@std@@@2@$0A@@std@@@std@@IAE@ABU?$less@E@1@V?$allocator@U?$pair@$$CBEH@std@@@1@@Z PROC NEAR ; std::_Tree_nod<std::_Tmap_traits<unsigned char,int,std::less<unsigned char>,std::allocator<std::pair<unsigned char const ,int> >,0> >::_Tree_nod<std::_Tmap_traits<unsigned char,int,std::less<unsigned char>,std::allocator<std::pair<unsigned char const ,int> >,0> >, COMDAT
; _this$ = ecx

; 54   : 		{	// construct traits from _Parg and allocator from _Al

  00000	8b c1		 mov	 eax, ecx

; 55   : 		}

  00002	c2 08 00	 ret	 8
??0?$_Tree_nod@V?$_Tmap_traits@EHU?$less@E@std@@V?$allocator@U?$pair@$$CBEH@std@@@2@$0A@@std@@@std@@IAE@ABU?$less@E@1@V?$allocator@U?$pair@$$CBEH@std@@@1@@Z ENDP ; std::_Tree_nod<std::_Tmap_traits<unsigned char,int,std::less<unsigned char>,std::allocator<std::pair<unsigned char const ,int> >,0> >::_Tree_nod<std::_Tmap_traits<unsigned char,int,std::less<unsigned char>,std::allocator<std::pair<unsigned char const ,int> >,0> >
_TEXT	ENDS
PUBLIC	?allocate@?$allocator@U_Node@?$_Tree_nod@V?$_Tmap_traits@EHU?$less@E@std@@V?$allocator@U?$pair@$$CBEH@std@@@2@$0A@@std@@@std@@@std@@QAEPAU_Node@?$_Tree_nod@V?$_Tmap_traits@EHU?$less@E@std@@V?$allocator@U?$pair@$$CBEH@std@@@2@$0A@@std@@@2@I@Z ; std::allocator<std::_Tree_nod<std::_Tmap_traits<unsigned char,int,std::less<unsigned char>,std::allocator<std::pair<unsigned char const ,int> >,0> >::_Node>::allocate
; Function compile flags: /Ogty
; File c:\program files\microsoft visual studio .net 2003\vc7\include\xmemory
;	COMDAT ?allocate@?$allocator@U_Node@?$_Tree_nod@V?$_Tmap_traits@EHU?$less@E@std@@V?$allocator@U?$pair@$$CBEH@std@@@2@$0A@@std@@@std@@@std@@QAEPAU_Node@?$_Tree_nod@V?$_Tmap_traits@EHU?$less@E@std@@V?$allocator@U?$pair@$$CBEH@std@@@2@$0A@@std@@@2@I@Z
_TEXT	SEGMENT
__Count$ = 8						; size = 4
?allocate@?$allocator@U_Node@?$_Tree_nod@V?$_Tmap_traits@EHU?$less@E@std@@V?$allocator@U?$pair@$$CBEH@std@@@2@$0A@@std@@@std@@@std@@QAEPAU_Node@?$_Tree_nod@V?$_Tmap_traits@EHU?$less@E@std@@V?$allocator@U?$pair@$$CBEH@std@@@2@$0A@@std@@@2@I@Z PROC NEAR ; std::allocator<std::_Tree_nod<std::_Tmap_traits<unsigned char,int,std::less<unsigned char>,std::allocator<std::pair<unsigned char const ,int> >,0> >::_Node>::allocate, COMDAT
; _this$ = ecx

; 137  : 		return (_Allocate(_Count, (pointer)0));

  00000	8b 44 24 04	 mov	 eax, DWORD PTR __Count$[esp-4]
  00004	8d 04 40	 lea	 eax, DWORD PTR [eax+eax*2]
  00007	c1 e0 03	 shl	 eax, 3
  0000a	50		 push	 eax
  0000b	e8 00 00 00 00	 call	 ??2@YAPAXI@Z		; operator new
  00010	83 c4 04	 add	 esp, 4

; 138  : 		}

  00013	c2 04 00	 ret	 4
?allocate@?$allocator@U_Node@?$_Tree_nod@V?$_Tmap_traits@EHU?$less@E@std@@V?$allocator@U?$pair@$$CBEH@std@@@2@$0A@@std@@@std@@@std@@QAEPAU_Node@?$_Tree_nod@V?$_Tmap_traits@EHU?$less@E@std@@V?$allocator@U?$pair@$$CBEH@std@@@2@$0A@@std@@@2@I@Z ENDP ; std::allocator<std::_Tree_nod<std::_Tmap_traits<unsigned char,int,std::less<unsigned char>,std::allocator<std::pair<unsigned char const ,int> >,0> >::_Node>::allocate
_TEXT	ENDS
PUBLIC	?construct@?$allocator@PAU_Node@?$_Tree_nod@V?$_Tmap_traits@EHU?$less@E@std@@V?$allocator@U?$pair@$$CBEH@std@@@2@$0A@@std@@@std@@@std@@QAEXPAPAU_Node@?$_Tree_nod@V?$_Tmap_traits@EHU?$less@E@std@@V?$allocator@U?$pair@$$CBEH@std@@@2@$0A@@std@@@2@ABQAU342@@Z ; std::allocator<std::_Tree_nod<std::_Tmap_traits<unsigned char,int,std::less<unsigned char>,std::allocator<std::pair<unsigned char const ,int> >,0> >::_Node *>::construct
; Function compile flags: /Ogty
;	COMDAT ?construct@?$allocator@PAU_Node@?$_Tree_nod@V?$_Tmap_traits@EHU?$less@E@std@@V?$allocator@U?$pair@$$CBEH@std@@@2@$0A@@std@@@std@@@std@@QAEXPAPAU_Node@?$_Tree_nod@V?$_Tmap_traits@EHU?$less@E@std@@V?$allocator@U?$pair@$$CBEH@std@@@2@$0A@@std@@@2@ABQAU342@@Z
_TEXT	SEGMENT
__Ptr$ = 8						; size = 4
__Val$ = 12						; size = 4
?construct@?$allocator@PAU_Node@?$_Tree_nod@V?$_Tmap_traits@EHU?$less@E@std@@V?$allocator@U?$pair@$$CBEH@std@@@2@$0A@@std@@@std@@@std@@QAEXPAPAU_Node@?$_Tree_nod@V?$_Tmap_traits@EHU?$less@E@std@@V?$allocator@U?$pair@$$CBEH@std@@@2@$0A@@std@@@2@ABQAU342@@Z PROC NEAR ; std::allocator<std::_Tree_nod<std::_Tmap_traits<unsigned char,int,std::less<unsigned char>,std::allocator<std::pair<unsigned char const ,int> >,0> >::_Node *>::construct, COMDAT
; _this$ = ecx

; 147  : 		_Construct(_Ptr, _Val);

  00000	8b 44 24 04	 mov	 eax, DWORD PTR __Ptr$[esp-4]
  00004	85 c0		 test	 eax, eax
  00006	74 08		 je	 SHORT $L217639
  00008	8b 4c 24 08	 mov	 ecx, DWORD PTR __Val$[esp-4]
  0000c	8b 11		 mov	 edx, DWORD PTR [ecx]
  0000e	89 10		 mov	 DWORD PTR [eax], edx
$L217639:

; 148  : 		}

  00010	c2 08 00	 ret	 8
?construct@?$allocator@PAU_Node@?$_Tree_nod@V?$_Tmap_traits@EHU?$less@E@std@@V?$allocator@U?$pair@$$CBEH@std@@@2@$0A@@std@@@std@@@std@@QAEXPAPAU_Node@?$_Tree_nod@V?$_Tmap_traits@EHU?$less@E@std@@V?$allocator@U?$pair@$$CBEH@std@@@2@$0A@@std@@@2@ABQAU342@@Z ENDP ; std::allocator<std::_Tree_nod<std::_Tmap_traits<unsigned char,int,std::less<unsigned char>,std::allocator<std::pair<unsigned char const ,int> >,0> >::_Node *>::construct
_TEXT	ENDS
PUBLIC	?allocate@?$allocator@U_Node@?$_Tree_nod@V?$_Tset_traits@V?$basic_string@DU?$char_traits@D@std@@V?$allocator@D@2@@std@@U?$less@V?$basic_string@DU?$char_traits@D@std@@V?$allocator@D@2@@std@@@2@V?$allocator@V?$basic_string@DU?$char_traits@D@std@@V?$allocator@D@2@@std@@@2@$0A@@std@@@std@@@std@@QAEPAU_Node@?$_Tree_nod@V?$_Tset_traits@V?$basic_string@DU?$char_traits@D@std@@V?$allocator@D@2@@std@@U?$less@V?$basic_string@DU?$char_traits@D@std@@V?$allocator@D@2@@std@@@2@V?$allocator@V?$basic_string@DU?$char_traits@D@std@@V?$allocator@D@2@@std@@@2@$0A@@std@@@2@I@Z ; std::allocator<std::_Tree_nod<std::_Tset_traits<std::basic_string<char,std::char_traits<char>,std::allocator<char> >,std::less<std::basic_string<char,std::char_traits<char>,std::allocator<char> > >,std::allocator<std::basic_string<char,std::char_traits<char>,std::allocator<char> > >,0> >::_Node>::allocate
; Function compile flags: /Ogty
;	COMDAT ?allocate@?$allocator@U_Node@?$_Tree_nod@V?$_Tset_traits@V?$basic_string@DU?$char_traits@D@std@@V?$allocator@D@2@@std@@U?$less@V?$basic_string@DU?$char_traits@D@std@@V?$allocator@D@2@@std@@@2@V?$allocator@V?$basic_string@DU?$char_traits@D@std@@V?$allocator@D@2@@std@@@2@$0A@@std@@@std@@@std@@QAEPAU_Node@?$_Tree_nod@V?$_Tset_traits@V?$basic_string@DU?$char_traits@D@std@@V?$allocator@D@2@@std@@U?$less@V?$basic_string@DU?$char_traits@D@std@@V?$allocator@D@2@@std@@@2@V?$allocator@V?$basic_string@DU?$char_traits@D@std@@V?$allocator@D@2@@std@@@2@$0A@@std@@@2@I@Z
_TEXT	SEGMENT
__Count$ = 8						; size = 4
?allocate@?$allocator@U_Node@?$_Tree_nod@V?$_Tset_traits@V?$basic_string@DU?$char_traits@D@std@@V?$allocator@D@2@@std@@U?$less@V?$basic_string@DU?$char_traits@D@std@@V?$allocator@D@2@@std@@@2@V?$allocator@V?$basic_string@DU?$char_traits@D@std@@V?$allocator@D@2@@std@@@2@$0A@@std@@@std@@@std@@QAEPAU_Node@?$_Tree_nod@V?$_Tset_traits@V?$basic_string@DU?$char_traits@D@std@@V?$allocator@D@2@@std@@U?$less@V?$basic_string@DU?$char_traits@D@std@@V?$allocator@D@2@@std@@@2@V?$allocator@V?$basic_string@DU?$char_traits@D@std@@V?$allocator@D@2@@std@@@2@$0A@@std@@@2@I@Z PROC NEAR ; std::allocator<std::_Tree_nod<std::_Tset_traits<std::basic_string<char,std::char_traits<char>,std::allocator<char> >,std::less<std::basic_string<char,std::char_traits<char>,std::allocator<char> > >,std::allocator<std::basic_string<char,std::char_traits<char>,std::allocator<char> > >,0> >::_Node>::allocate, COMDAT
; _this$ = ecx

; 137  : 		return (_Allocate(_Count, (pointer)0));

  00000	8b 44 24 04	 mov	 eax, DWORD PTR __Count$[esp-4]
  00004	6b c0 2c	 imul	 eax, 44			; 0000002cH
  00007	50		 push	 eax
  00008	e8 00 00 00 00	 call	 ??2@YAPAXI@Z		; operator new
  0000d	83 c4 04	 add	 esp, 4

; 138  : 		}

  00010	c2 04 00	 ret	 4
?allocate@?$allocator@U_Node@?$_Tree_nod@V?$_Tset_traits@V?$basic_string@DU?$char_traits@D@std@@V?$allocator@D@2@@std@@U?$less@V?$basic_string@DU?$char_traits@D@std@@V?$allocator@D@2@@std@@@2@V?$allocator@V?$basic_string@DU?$char_traits@D@std@@V?$allocator@D@2@@std@@@2@$0A@@std@@@std@@@std@@QAEPAU_Node@?$_Tree_nod@V?$_Tset_traits@V?$basic_string@DU?$char_traits@D@std@@V?$allocator@D@2@@std@@U?$less@V?$basic_string@DU?$char_traits@D@std@@V?$allocator@D@2@@std@@@2@V?$allocator@V?$basic_string@DU?$char_traits@D@std@@V?$allocator@D@2@@std@@@2@$0A@@std@@@2@I@Z ENDP ; std::allocator<std::_Tree_nod<std::_Tset_traits<std::basic_string<char,std::char_traits<char>,std::allocator<char> >,std::less<std::basic_string<char,std::char_traits<char>,std::allocator<char> > >,std::allocator<std::basic_string<char,std::char_traits<char>,std::allocator<char> > >,0> >::_Node>::allocate
_TEXT	ENDS
PUBLIC	?destroy@?$allocator@U_Node@?$_List_nod@PAXV?$allocator@PAX@std@@@std@@@std@@QAEXPAU_Node@?$_List_nod@PAXV?$allocator@PAX@std@@@2@@Z ; std::allocator<std::_List_nod<void *,std::allocator<void *> >::_Node>::destroy
; Function compile flags: /Ogty
;	COMDAT ?destroy@?$allocator@U_Node@?$_List_nod@PAXV?$allocator@PAX@std@@@std@@@std@@QAEXPAU_Node@?$_List_nod@PAXV?$allocator@PAX@std@@@2@@Z
_TEXT	SEGMENT
__Ptr$ = 8						; size = 4
?destroy@?$allocator@U_Node@?$_List_nod@PAXV?$allocator@PAX@std@@@std@@@std@@QAEXPAU_Node@?$_List_nod@PAXV?$allocator@PAX@std@@@2@@Z PROC NEAR ; std::allocator<std::_List_nod<void *,std::allocator<void *> >::_Node>::destroy, COMDAT
; _this$ = ecx

; 152  : 		_Destroy(_Ptr);
; 153  : 		}

  00000	c2 04 00	 ret	 4
?destroy@?$allocator@U_Node@?$_List_nod@PAXV?$allocator@PAX@std@@@std@@@std@@QAEXPAU_Node@?$_List_nod@PAXV?$allocator@PAX@std@@@2@@Z ENDP ; std::allocator<std::_List_nod<void *,std::allocator<void *> >::_Node>::destroy
_TEXT	ENDS
PUBLIC	?destroy@?$allocator@PAU_Node@?$_List_nod@PAXV?$allocator@PAX@std@@@std@@@std@@QAEXPAPAU_Node@?$_List_nod@PAXV?$allocator@PAX@std@@@2@@Z ; std::allocator<std::_List_nod<void *,std::allocator<void *> >::_Node *>::destroy
; Function compile flags: /Ogty
;	COMDAT ?destroy@?$allocator@PAU_Node@?$_List_nod@PAXV?$allocator@PAX@std@@@std@@@std@@QAEXPAPAU_Node@?$_List_nod@PAXV?$allocator@PAX@std@@@2@@Z
_TEXT	SEGMENT
__Ptr$ = 8						; size = 4
?destroy@?$allocator@PAU_Node@?$_List_nod@PAXV?$allocator@PAX@std@@@std@@@std@@QAEXPAPAU_Node@?$_List_nod@PAXV?$allocator@PAX@std@@@2@@Z PROC NEAR ; std::allocator<std::_List_nod<void *,std::allocator<void *> >::_Node *>::destroy, COMDAT
; _this$ = ecx

; 152  : 		_Destroy(_Ptr);
; 153  : 		}

  00000	c2 04 00	 ret	 4
?destroy@?$allocator@PAU_Node@?$_List_nod@PAXV?$allocator@PAX@std@@@std@@@std@@QAEXPAPAU_Node@?$_List_nod@PAXV?$allocator@PAX@std@@@2@@Z ENDP ; std::allocator<std::_List_nod<void *,std::allocator<void *> >::_Node *>::destroy
_TEXT	ENDS
PUBLIC	??Dconst_iterator@?$list@PAXV?$allocator@PAX@std@@@std@@QBEABQAXXZ ; std::list<void *,std::allocator<void *> >::const_iterator::operator*
; Function compile flags: /Ogty
; File c:\program files\microsoft visual studio .net 2003\vc7\include\list
;	COMDAT ??Dconst_iterator@?$list@PAXV?$allocator@PAX@std@@@std@@QBEABQAXXZ
_TEXT	SEGMENT
??Dconst_iterator@?$list@PAXV?$allocator@PAX@std@@@std@@QBEABQAXXZ PROC NEAR ; std::list<void *,std::allocator<void *> >::const_iterator::operator*, COMDAT
; _this$ = ecx

; 161  : 			return (_Myval(_Ptr));

  00000	8b 01		 mov	 eax, DWORD PTR [ecx]
  00002	83 c0 08	 add	 eax, 8

; 162  : 			}

  00005	c3		 ret	 0
??Dconst_iterator@?$list@PAXV?$allocator@PAX@std@@@std@@QBEABQAXXZ ENDP ; std::list<void *,std::allocator<void *> >::const_iterator::operator*
_TEXT	ENDS
PUBLIC	??Econst_iterator@?$list@PAXV?$allocator@PAX@std@@@std@@QAEAAV012@XZ ; std::list<void *,std::allocator<void *> >::const_iterator::operator++
; Function compile flags: /Ogty
;	COMDAT ??Econst_iterator@?$list@PAXV?$allocator@PAX@std@@@std@@QAEAAV012@XZ
_TEXT	SEGMENT
??Econst_iterator@?$list@PAXV?$allocator@PAX@std@@@std@@QAEAAV012@XZ PROC NEAR ; std::list<void *,std::allocator<void *> >::const_iterator::operator++, COMDAT
; _this$ = ecx

; 170  : 			{	// preincrement

  00000	8b c1		 mov	 eax, ecx

; 171  : 			_Ptr = _Nextnode(_Ptr);

  00002	8b 08		 mov	 ecx, DWORD PTR [eax]
  00004	8b 11		 mov	 edx, DWORD PTR [ecx]
  00006	89 10		 mov	 DWORD PTR [eax], edx

; 172  : 			return (*this);
; 173  : 			}

  00008	c3		 ret	 0
??Econst_iterator@?$list@PAXV?$allocator@PAX@std@@@std@@QAEAAV012@XZ ENDP ; std::list<void *,std::allocator<void *> >::const_iterator::operator++
_TEXT	ENDS
PUBLIC	?_Dec@const_iterator@?$_Tree@V?$_Tset_traits@V?$basic_string@DU?$char_traits@D@std@@V?$allocator@D@2@@std@@U?$less@V?$basic_string@DU?$char_traits@D@std@@V?$allocator@D@2@@std@@@2@V?$allocator@V?$basic_string@DU?$char_traits@D@std@@V?$allocator@D@2@@std@@@2@$0A@@std@@@std@@QAEXXZ ; std::_Tree<std::_Tset_traits<std::basic_string<char,std::char_traits<char>,std::allocator<char> >,std::less<std::basic_string<char,std::char_traits<char>,std::allocator<char> > >,std::allocator<std::basic_string<char,std::char_traits<char>,std::allocator<char> > >,0> >::const_iterator::_Dec
; Function compile flags: /Ogty
; File c:\program files\microsoft visual studio .net 2003\vc7\include\xtree
;	COMDAT ?_Dec@const_iterator@?$_Tree@V?$_Tset_traits@V?$basic_string@DU?$char_traits@D@std@@V?$allocator@D@2@@std@@U?$less@V?$basic_string@DU?$char_traits@D@std@@V?$allocator@D@2@@std@@@2@V?$allocator@V?$basic_string@DU?$char_traits@D@std@@V?$allocator@D@2@@std@@@2@$0A@@std@@@std@@QAEXXZ
_TEXT	SEGMENT
?_Dec@const_iterator@?$_Tree@V?$_Tset_traits@V?$basic_string@DU?$char_traits@D@std@@V?$allocator@D@2@@std@@U?$less@V?$basic_string@DU?$char_traits@D@std@@V?$allocator@D@2@@std@@@2@V?$allocator@V?$basic_string@DU?$char_traits@D@std@@V?$allocator@D@2@@std@@@2@$0A@@std@@@std@@QAEXXZ PROC NEAR ; std::_Tree<std::_Tset_traits<std::basic_string<char,std::char_traits<char>,std::allocator<char> >,std::less<std::basic_string<char,std::char_traits<char>,std::allocator<char> > >,std::allocator<std::basic_string<char,std::char_traits<char>,std::allocator<char> > >,0> >::const_iterator::_Dec, COMDAT
; _this$ = ecx

; 251  : 			if (_Isnil(_Ptr))

  00000	8b 01		 mov	 eax, DWORD PTR [ecx]
  00002	8a 50 29	 mov	 dl, BYTE PTR [eax+41]
  00005	84 d2		 test	 dl, dl
  00007	74 06		 je	 SHORT $L215577

; 252  : 				_Ptr = _Right(_Ptr);	// end() ==> rightmost

  00009	8b 40 08	 mov	 eax, DWORD PTR [eax+8]
  0000c	89 01		 mov	 DWORD PTR [ecx], eax

; 263  : 				}
; 264  : 			}

  0000e	c3		 ret	 0
$L215577:

; 253  : 			else if (!_Isnil(_Left(_Ptr)))

  0000f	8b 10		 mov	 edx, DWORD PTR [eax]
  00011	53		 push	 ebx
  00012	8a 5a 29	 mov	 bl, BYTE PTR [edx+41]
  00015	84 db		 test	 bl, bl
  00017	75 1a		 jne	 SHORT $L217723

; 254  : 				_Ptr = _Max(_Left(_Ptr));	// ==> largest of left subtree

  00019	8b 42 08	 mov	 eax, DWORD PTR [edx+8]
  0001c	8a 58 29	 mov	 bl, BYTE PTR [eax+41]
  0001f	84 db		 test	 bl, bl
  00021	75 0c		 jne	 SHORT $L217701
$L217700:
  00023	8b d0		 mov	 edx, eax
  00025	8b 42 08	 mov	 eax, DWORD PTR [edx+8]
  00028	8a 58 29	 mov	 bl, BYTE PTR [eax+41]
  0002b	84 db		 test	 bl, bl
  0002d	74 f4		 je	 SHORT $L217700
$L217701:
  0002f	89 11		 mov	 DWORD PTR [ecx], edx
  00031	5b		 pop	 ebx

; 263  : 				}
; 264  : 			}

  00032	c3		 ret	 0
$L217723:

; 255  : 			else
; 256  : 				{	// climb looking for left subtree
; 257  : 				_Nodeptr _Pnode;
; 258  : 				while (!_Isnil(_Pnode = _Parent(_Ptr))
; 259  : 					&& _Ptr == _Left(_Pnode))

  00033	8b 40 04	 mov	 eax, DWORD PTR [eax+4]
  00036	8a 50 29	 mov	 dl, BYTE PTR [eax+41]
  00039	84 d2		 test	 dl, dl
  0003b	75 1e		 jne	 SHORT $L217726
  0003d	8d 49 00	 npad	 3
$L215583:
  00040	8b 11		 mov	 edx, DWORD PTR [ecx]
  00042	3b 10		 cmp	 edx, DWORD PTR [eax]
  00044	75 0c		 jne	 SHORT $L215584

; 260  : 					_Ptr = _Pnode;	// ==> parent while left subtree

  00046	89 01		 mov	 DWORD PTR [ecx], eax
  00048	8b 40 04	 mov	 eax, DWORD PTR [eax+4]
  0004b	8a 50 29	 mov	 dl, BYTE PTR [eax+41]
  0004e	84 d2		 test	 dl, dl
  00050	74 ee		 je	 SHORT $L215583
$L215584:

; 261  : 				if (!_Isnil(_Pnode))

  00052	8a 50 29	 mov	 dl, BYTE PTR [eax+41]
  00055	84 d2		 test	 dl, dl
  00057	75 02		 jne	 SHORT $L217726

; 262  : 					_Ptr = _Pnode;	// ==> parent if not head

  00059	89 01		 mov	 DWORD PTR [ecx], eax
$L217726:
  0005b	5b		 pop	 ebx

; 263  : 				}
; 264  : 			}

  0005c	c3		 ret	 0
?_Dec@const_iterator@?$_Tree@V?$_Tset_traits@V?$basic_string@DU?$char_traits@D@std@@V?$allocator@D@2@@std@@U?$less@V?$basic_string@DU?$char_traits@D@std@@V?$allocator@D@2@@std@@@2@V?$allocator@V?$basic_string@DU?$char_traits@D@std@@V?$allocator@D@2@@std@@@2@$0A@@std@@@std@@QAEXXZ ENDP ; std::_Tree<std::_Tset_traits<std::basic_string<char,std::char_traits<char>,std::allocator<char> >,std::less<std::basic_string<char,std::char_traits<char>,std::allocator<char> > >,std::allocator<std::basic_string<char,std::char_traits<char>,std::allocator<char> > >,0> >::const_iterator::_Dec
_TEXT	ENDS
PUBLIC	??0iterator@?$_Tree@V?$_Tmap_traits@EHU?$less@E@std@@V?$allocator@U?$pair@$$CBEH@std@@@2@$0A@@std@@@std@@QAE@PAU_Node@?$_Tree_nod@V?$_Tmap_traits@EHU?$less@E@std@@V?$allocator@U?$pair@$$CBEH@std@@@2@$0A@@std@@@2@@Z ; std::_Tree<std::_Tmap_traits<unsigned char,int,std::less<unsigned char>,std::allocator<std::pair<unsigned char const ,int> >,0> >::iterator::iterator
; Function compile flags: /Ogty
;	COMDAT ??0iterator@?$_Tree@V?$_Tmap_traits@EHU?$less@E@std@@V?$allocator@U?$pair@$$CBEH@std@@@2@$0A@@std@@@std@@QAE@PAU_Node@?$_Tree_nod@V?$_Tmap_traits@EHU?$less@E@std@@V?$allocator@U?$pair@$$CBEH@std@@@2@$0A@@std@@@2@@Z
_TEXT	SEGMENT
__Pnode$ = 8						; size = 4
??0iterator@?$_Tree@V?$_Tmap_traits@EHU?$less@E@std@@V?$allocator@U?$pair@$$CBEH@std@@@2@$0A@@std@@@std@@QAE@PAU_Node@?$_Tree_nod@V?$_Tmap_traits@EHU?$less@E@std@@V?$allocator@U?$pair@$$CBEH@std@@@2@$0A@@std@@@2@@Z PROC NEAR ; std::_Tree<std::_Tmap_traits<unsigned char,int,std::less<unsigned char>,std::allocator<std::pair<unsigned char const ,int> >,0> >::iterator::iterator, COMDAT
; _this$ = ecx

; 312  : 			{	// construct with node pointer _Pnode

  00000	8b c1		 mov	 eax, ecx
  00002	8b 4c 24 04	 mov	 ecx, DWORD PTR __Pnode$[esp-4]
  00006	89 08		 mov	 DWORD PTR [eax], ecx

; 313  : 			}

  00008	c2 04 00	 ret	 4
??0iterator@?$_Tree@V?$_Tmap_traits@EHU?$less@E@std@@V?$allocator@U?$pair@$$CBEH@std@@@2@$0A@@std@@@std@@QAE@PAU_Node@?$_Tree_nod@V?$_Tmap_traits@EHU?$less@E@std@@V?$allocator@U?$pair@$$CBEH@std@@@2@$0A@@std@@@2@@Z ENDP ; std::_Tree<std::_Tmap_traits<unsigned char,int,std::less<unsigned char>,std::allocator<std::pair<unsigned char const ,int> >,0> >::iterator::iterator
_TEXT	ENDS
PUBLIC	?destroy@?$allocator@U_Node@?$_Tree_nod@V?$_Tmap_traits@EHU?$less@E@std@@V?$allocator@U?$pair@$$CBEH@std@@@2@$0A@@std@@@std@@@std@@QAEXPAU_Node@?$_Tree_nod@V?$_Tmap_traits@EHU?$less@E@std@@V?$allocator@U?$pair@$$CBEH@std@@@2@$0A@@std@@@2@@Z ; std::allocator<std::_Tree_nod<std::_Tmap_traits<unsigned char,int,std::less<unsigned char>,std::allocator<std::pair<unsigned char const ,int> >,0> >::_Node>::destroy
; Function compile flags: /Ogty
; File c:\program files\microsoft visual studio .net 2003\vc7\include\xmemory
;	COMDAT ?destroy@?$allocator@U_Node@?$_Tree_nod@V?$_Tmap_traits@EHU?$less@E@std@@V?$allocator@U?$pair@$$CBEH@std@@@2@$0A@@std@@@std@@@std@@QAEXPAU_Node@?$_Tree_nod@V?$_Tmap_traits@EHU?$less@E@std@@V?$allocator@U?$pair@$$CBEH@std@@@2@$0A@@std@@@2@@Z
_TEXT	SEGMENT
__Ptr$ = 8						; size = 4
?destroy@?$allocator@U_Node@?$_Tree_nod@V?$_Tmap_traits@EHU?$less@E@std@@V?$allocator@U?$pair@$$CBEH@std@@@2@$0A@@std@@@std@@@std@@QAEXPAU_Node@?$_Tree_nod@V?$_Tmap_traits@EHU?$less@E@std@@V?$allocator@U?$pair@$$CBEH@std@@@2@$0A@@std@@@2@@Z PROC NEAR ; std::allocator<std::_Tree_nod<std::_Tmap_traits<unsigned char,int,std::less<unsigned char>,std::allocator<std::pair<unsigned char const ,int> >,0> >::_Node>::destroy, COMDAT
; _this$ = ecx

; 152  : 		_Destroy(_Ptr);
; 153  : 		}

  00000	c2 04 00	 ret	 4
?destroy@?$allocator@U_Node@?$_Tree_nod@V?$_Tmap_traits@EHU?$less@E@std@@V?$allocator@U?$pair@$$CBEH@std@@@2@$0A@@std@@@std@@@std@@QAEXPAU_Node@?$_Tree_nod@V?$_Tmap_traits@EHU?$less@E@std@@V?$allocator@U?$pair@$$CBEH@std@@@2@$0A@@std@@@2@@Z ENDP ; std::allocator<std::_Tree_nod<std::_Tmap_traits<unsigned char,int,std::less<unsigned char>,std::allocator<std::pair<unsigned char const ,int> >,0> >::_Node>::destroy
_TEXT	ENDS
PUBLIC	??Econst_iterator@?$_Tree@V?$_Tmap_traits@EHU?$less@E@std@@V?$allocator@U?$pair@$$CBEH@std@@@2@$0A@@std@@@std@@QAEAAV012@XZ ; std::_Tree<std::_Tmap_traits<unsigned char,int,std::less<unsigned char>,std::allocator<std::pair<unsigned char const ,int> >,0> >::const_iterator::operator++
; Function compile flags: /Ogty
; File c:\program files\microsoft visual studio .net 2003\vc7\include\xtree
;	COMDAT ??Econst_iterator@?$_Tree@V?$_Tmap_traits@EHU?$less@E@std@@V?$allocator@U?$pair@$$CBEH@std@@@2@$0A@@std@@@std@@QAEAAV012@XZ
_TEXT	SEGMENT
??Econst_iterator@?$_Tree@V?$_Tmap_traits@EHU?$less@E@std@@V?$allocator@U?$pair@$$CBEH@std@@@2@$0A@@std@@@std@@QAEAAV012@XZ PROC NEAR ; std::_Tree<std::_Tmap_traits<unsigned char,int,std::less<unsigned char>,std::allocator<std::pair<unsigned char const ,int> >,0> >::const_iterator::operator++, COMDAT
; _this$ = ecx

; 214  : 			{	// preincrement

  00000	56		 push	 esi
  00001	8b f1		 mov	 esi, ecx

; 215  : 			_Inc();

  00003	e8 00 00 00 00	 call	 ?_Inc@const_iterator@?$_Tree@V?$_Tmap_traits@EHU?$less@E@std@@V?$allocator@U?$pair@$$CBEH@std@@@2@$0A@@std@@@std@@QAEXXZ ; std::_Tree<std::_Tmap_traits<unsigned char,int,std::less<unsigned char>,std::allocator<std::pair<unsigned char const ,int> >,0> >::const_iterator::_Inc

; 216  : 			return (*this);

  00008	8b c6		 mov	 eax, esi
  0000a	5e		 pop	 esi

; 217  : 			}

  0000b	c3		 ret	 0
??Econst_iterator@?$_Tree@V?$_Tmap_traits@EHU?$less@E@std@@V?$allocator@U?$pair@$$CBEH@std@@@2@$0A@@std@@@std@@QAEAAV012@XZ ENDP ; std::_Tree<std::_Tmap_traits<unsigned char,int,std::less<unsigned char>,std::allocator<std::pair<unsigned char const ,int> >,0> >::const_iterator::operator++
_TEXT	ENDS
PUBLIC	??6CAr@@QAEAAV0@H@Z				; CAr::operator<<
; Function compile flags: /Ogty
; File c:\documents and settings\test\mes documents\source\virtuos_v17\build\program\_network\misc\include\ar.h
;	COMDAT ??6CAr@@QAEAAV0@H@Z
_TEXT	SEGMENT
_i$ = 8							; size = 4
??6CAr@@QAEAAV0@H@Z PROC NEAR				; CAr::operator<<, COMDAT
; _this$ = ecx

; 99   : 	{ return CAr::operator<<((LONG)i); }

  00000	56		 push	 esi
  00001	6a 04		 push	 4
  00003	8b f1		 mov	 esi, ecx
  00005	e8 00 00 00 00	 call	 ?CheckBuf@CAr@@QAEXI@Z	; CAr::CheckBuf
  0000a	8b 46 08	 mov	 eax, DWORD PTR [esi+8]
  0000d	8b 4c 24 08	 mov	 ecx, DWORD PTR _i$[esp]
  00011	89 08		 mov	 DWORD PTR [eax], ecx
  00013	83 46 08 04	 add	 DWORD PTR [esi+8], 4
  00017	8b c6		 mov	 eax, esi
  00019	5e		 pop	 esi
  0001a	c2 04 00	 ret	 4
??6CAr@@QAEAAV0@H@Z ENDP				; CAr::operator<<
_TEXT	ENDS
PUBLIC	?GetLength@?$CSimpleStringT@D$0A@@ATL@@QBEHXZ	; ATL::CSimpleStringT<char,0>::GetLength
; Function compile flags: /Ogty
; File c:\program files\microsoft visual studio .net 2003\vc7\atlmfc\include\atlsimpstr.h
;	COMDAT ?GetLength@?$CSimpleStringT@D$0A@@ATL@@QBEHXZ
_TEXT	SEGMENT
?GetLength@?$CSimpleStringT@D$0A@@ATL@@QBEHXZ PROC NEAR	; ATL::CSimpleStringT<char,0>::GetLength, COMDAT
; _this$ = ecx

; 501  : 		return( GetData()->nDataLength );

  00000	8b 01		 mov	 eax, DWORD PTR [ecx]
  00002	8b 40 f4	 mov	 eax, DWORD PTR [eax-12]

; 502  : 	}

  00005	c3		 ret	 0
?GetLength@?$CSimpleStringT@D$0A@@ATL@@QBEHXZ ENDP	; ATL::CSimpleStringT<char,0>::GetLength
_TEXT	ENDS
PUBLIC	??0?$CSimpleStringT@D$0A@@ATL@@QAE@PAUIAtlStringMgr@1@@Z ; ATL::CSimpleStringT<char,0>::CSimpleStringT<char,0>
; Function compile flags: /Ogty
;	COMDAT ??0?$CSimpleStringT@D$0A@@ATL@@QAE@PAUIAtlStringMgr@1@@Z
_TEXT	SEGMENT
_pStringMgr$ = 8					; size = 4
??0?$CSimpleStringT@D$0A@@ATL@@QAE@PAUIAtlStringMgr@1@@Z PROC NEAR ; ATL::CSimpleStringT<char,0>::CSimpleStringT<char,0>, COMDAT
; _this$ = ecx

; 210  : 	explicit CSimpleStringT( IAtlStringMgr* pStringMgr ) throw()

  00000	56		 push	 esi
  00001	8b f1		 mov	 esi, ecx

; 211  : 	{
; 212  : 		ATLASSERT( pStringMgr != NULL );
; 213  : 		CStringData* pData = pStringMgr->GetNilString();

  00003	8b 4c 24 08	 mov	 ecx, DWORD PTR _pStringMgr$[esp]
  00007	8b 01		 mov	 eax, DWORD PTR [ecx]
  00009	ff 50 0c	 call	 DWORD PTR [eax+12]

; 214  : 		Attach( pData );

  0000c	83 c0 10	 add	 eax, 16			; 00000010H
  0000f	89 06		 mov	 DWORD PTR [esi], eax

; 215  : 	}

  00011	8b c6		 mov	 eax, esi
  00013	5e		 pop	 esi
  00014	c2 04 00	 ret	 4
??0?$CSimpleStringT@D$0A@@ATL@@QAE@PAUIAtlStringMgr@1@@Z ENDP ; ATL::CSimpleStringT<char,0>::CSimpleStringT<char,0>
_TEXT	ENDS
PUBLIC	??1?$CSimpleStringT@D$0A@@ATL@@QAE@XZ		; ATL::CSimpleStringT<char,0>::~CSimpleStringT<char,0>
; Function compile flags: /Ogty
;	COMDAT ??1?$CSimpleStringT@D$0A@@ATL@@QAE@XZ
_TEXT	SEGMENT
??1?$CSimpleStringT@D$0A@@ATL@@QAE@XZ PROC NEAR		; ATL::CSimpleStringT<char,0>::~CSimpleStringT<char,0>, COMDAT
; _this$ = ecx

; 263  : 		CStringData* pData = GetData();

  00000	8b 01		 mov	 eax, DWORD PTR [ecx]
  00002	83 e8 10	 sub	 eax, 16			; 00000010H

; 264  : 		pData->Release();

  00005	8d 48 0c	 lea	 ecx, DWORD PTR [eax+12]
  00008	83 ca ff	 or	 edx, -1
  0000b	f0 0f c1 11	 lock	  xadd	 DWORD PTR [ecx], edx
  0000f	4a		 dec	 edx
  00010	85 d2		 test	 edx, edx
  00012	7f 08		 jg	 SHORT $L217768
  00014	8b 08		 mov	 ecx, DWORD PTR [eax]
  00016	8b 11		 mov	 edx, DWORD PTR [ecx]
  00018	50		 push	 eax
  00019	ff 52 04	 call	 DWORD PTR [edx+4]
$L217768:

; 265  : 	}

  0001c	c3		 ret	 0
??1?$CSimpleStringT@D$0A@@ATL@@QAE@XZ ENDP		; ATL::CSimpleStringT<char,0>::~CSimpleStringT<char,0>
_TEXT	ENDS
PUBLIC	?ReleaseBufferSetLength@?$CSimpleStringT@D$0A@@ATL@@QAEXH@Z ; ATL::CSimpleStringT<char,0>::ReleaseBufferSetLength
; Function compile flags: /Ogty
;	COMDAT ?ReleaseBufferSetLength@?$CSimpleStringT@D$0A@@ATL@@QAEXH@Z
_TEXT	SEGMENT
_nNewLength$ = 8					; size = 4
?ReleaseBufferSetLength@?$CSimpleStringT@D$0A@@ATL@@QAEXH@Z PROC NEAR ; ATL::CSimpleStringT<char,0>::ReleaseBufferSetLength, COMDAT
; _this$ = ecx

; 547  : 		ATLASSERT( nNewLength >= 0 );
; 548  : 		SetLength( nNewLength );

  00000	8b 44 24 04	 mov	 eax, DWORD PTR _nNewLength$[esp-4]
  00004	85 c0		 test	 eax, eax
  00006	7c 13		 jl	 SHORT $L217785
  00008	8b 11		 mov	 edx, DWORD PTR [ecx]
  0000a	3b 42 f8	 cmp	 eax, DWORD PTR [edx-8]
  0000d	7f 0c		 jg	 SHORT $L217785
  0000f	89 42 f4	 mov	 DWORD PTR [edx-12], eax
  00012	8b 09		 mov	 ecx, DWORD PTR [ecx]
  00014	c6 04 08 00	 mov	 BYTE PTR [eax+ecx], 0

; 549  : 	}

  00018	c2 04 00	 ret	 4
$L217785:
  0001b	68 57 00 07 80	 push	 -2147024809		; 80070057H
  00020	e8 00 00 00 00	 call	 ?AtlThrow@ATL@@YGXJ@Z	; ATL::AtlThrow
$L217787:
  00025	cc		 int	 3
?ReleaseBufferSetLength@?$CSimpleStringT@D$0A@@ATL@@QAEXH@Z ENDP ; ATL::CSimpleStringT<char,0>::ReleaseBufferSetLength
_TEXT	ENDS
PUBLIC	??0?$_String_val@DV?$allocator@D@std@@@std@@IAE@V?$allocator@D@1@@Z ; std::_String_val<char,std::allocator<char> >::_String_val<char,std::allocator<char> >
; Function compile flags: /Ogty
; File c:\program files\microsoft visual studio .net 2003\vc7\include\xstring
;	COMDAT ??0?$_String_val@DV?$allocator@D@std@@@std@@IAE@V?$allocator@D@1@@Z
_TEXT	SEGMENT
__Al$ = 8						; size = 1
??0?$_String_val@DV?$allocator@D@std@@@std@@IAE@V?$allocator@D@1@@Z PROC NEAR ; std::_String_val<char,std::allocator<char> >::_String_val<char,std::allocator<char> >, COMDAT
; _this$ = ecx

; 34   : 		{	// construct allocator from _Al

  00000	8b c1		 mov	 eax, ecx

; 35   : 		}

  00002	c2 04 00	 ret	 4
??0?$_String_val@DV?$allocator@D@std@@@std@@IAE@V?$allocator@D@1@@Z ENDP ; std::_String_val<char,std::allocator<char> >::_String_val<char,std::allocator<char> >
_TEXT	ENDS
PUBLIC	?Empty@?$CSimpleStringT@D$0A@@ATL@@QAEXXZ	; ATL::CSimpleStringT<char,0>::Empty
; Function compile flags: /Ogty
; File c:\program files\microsoft visual studio .net 2003\vc7\atlmfc\include\atlsimpstr.h
;	COMDAT ?Empty@?$CSimpleStringT@D$0A@@ATL@@QAEXXZ
_TEXT	SEGMENT
?Empty@?$CSimpleStringT@D$0A@@ATL@@QAEXXZ PROC NEAR	; ATL::CSimpleStringT<char,0>::Empty, COMDAT
; _this$ = ecx

; 421  : 	{

  00000	56		 push	 esi
  00001	8b f1		 mov	 esi, ecx

; 422  : 		CStringData* pOldData = GetData();

  00003	8b 0e		 mov	 ecx, DWORD PTR [esi]

; 423  : 		IAtlStringMgr* pStringMgr = pOldData->pStringMgr;
; 424  : 		if( pOldData->nDataLength == 0 )

  00005	8b 51 f4	 mov	 edx, DWORD PTR [ecx-12]
  00008	85 d2		 test	 edx, edx
  0000a	8d 41 f0	 lea	 eax, DWORD PTR [ecx-16]
  0000d	57		 push	 edi
  0000e	8b 38		 mov	 edi, DWORD PTR [eax]
  00010	74 4c		 je	 SHORT $L217825
  00012	53		 push	 ebx

; 425  : 		{
; 426  : 			return;
; 427  : 		}
; 428  : 
; 429  : 		if( pOldData->IsLocked() )

  00013	8b 58 0c	 mov	 ebx, DWORD PTR [eax+12]
  00016	8d 50 0c	 lea	 edx, DWORD PTR [eax+12]
  00019	85 db		 test	 ebx, ebx
  0001b	5b		 pop	 ebx
  0001c	7d 20		 jge	 SHORT $L184939

; 430  : 		{
; 431  : 			// Don't reallocate a locked buffer that's shrinking
; 432  : 			SetLength( 0 );

  0001e	8b 41 f8	 mov	 eax, DWORD PTR [ecx-8]
  00021	85 c0		 test	 eax, eax
  00023	7d 0a		 jge	 SHORT $L217814
  00025	68 57 00 07 80	 push	 -2147024809		; 80070057H
  0002a	e8 00 00 00 00	 call	 ?AtlThrow@ATL@@YGXJ@Z	; ATL::AtlThrow
$L217814:
  0002f	c7 41 f4 00 00
	00 00		 mov	 DWORD PTR [ecx-12], 0
  00036	8b 06		 mov	 eax, DWORD PTR [esi]
  00038	5f		 pop	 edi
  00039	c6 00 00	 mov	 BYTE PTR [eax], 0
  0003c	5e		 pop	 esi

; 439  : 		}
; 440  : 	}

  0003d	c3		 ret	 0
$L184939:

; 433  : 		}
; 434  : 		else
; 435  : 		{
; 436  : 			pOldData->Release();

  0003e	83 c9 ff	 or	 ecx, -1
  00041	f0 0f c1 0a	 lock	  xadd	 DWORD PTR [edx], ecx
  00045	49		 dec	 ecx
  00046	85 c9		 test	 ecx, ecx
  00048	7f 08		 jg	 SHORT $L217820
  0004a	8b 08		 mov	 ecx, DWORD PTR [eax]
  0004c	8b 11		 mov	 edx, DWORD PTR [ecx]
  0004e	50		 push	 eax
  0004f	ff 52 04	 call	 DWORD PTR [edx+4]
$L217820:

; 437  : 			CStringData* pNewData = pStringMgr->GetNilString();

  00052	8b 07		 mov	 eax, DWORD PTR [edi]
  00054	8b cf		 mov	 ecx, edi
  00056	ff 50 0c	 call	 DWORD PTR [eax+12]

; 438  : 			Attach( pNewData );

  00059	83 c0 10	 add	 eax, 16			; 00000010H
  0005c	89 06		 mov	 DWORD PTR [esi], eax
$L217825:
  0005e	5f		 pop	 edi
  0005f	5e		 pop	 esi

; 439  : 		}
; 440  : 	}

  00060	c3		 ret	 0
$L217829:
?Empty@?$CSimpleStringT@D$0A@@ATL@@QAEXXZ ENDP		; ATL::CSimpleStringT<char,0>::Empty
_TEXT	ENDS
PUBLIC	?PrepareWrite2@?$CSimpleStringT@D$0A@@ATL@@AAEXH@Z ; ATL::CSimpleStringT<char,0>::PrepareWrite2
; Function compile flags: /Ogty
;	COMDAT ?PrepareWrite2@?$CSimpleStringT@D$0A@@ATL@@AAEXH@Z
_TEXT	SEGMENT
_nLength$ = 8						; size = 4
?PrepareWrite2@?$CSimpleStringT@D$0A@@ATL@@AAEXH@Z PROC NEAR ; ATL::CSimpleStringT<char,0>::PrepareWrite2, COMDAT
; _this$ = ecx

; 747  : 		CStringData* pOldData = GetData();

  00000	8b 01		 mov	 eax, DWORD PTR [ecx]

; 748  : 		if( pOldData->nDataLength > nLength )

  00002	8b 54 24 04	 mov	 edx, DWORD PTR _nLength$[esp-4]
  00006	83 e8 10	 sub	 eax, 16			; 00000010H
  00009	56		 push	 esi
  0000a	8b 70 04	 mov	 esi, DWORD PTR [eax+4]
  0000d	3b f2		 cmp	 esi, edx
  0000f	7e 02		 jle	 SHORT $L184961

; 749  : 		{
; 750  : 			nLength = pOldData->nDataLength;

  00011	8b d6		 mov	 edx, esi
$L184961:

; 751  : 		}
; 752  : 		if( pOldData->IsShared() )

  00013	83 78 0c 01	 cmp	 DWORD PTR [eax+12], 1
  00017	5e		 pop	 esi
  00018	7e 09		 jle	 SHORT $L184962

; 753  : 		{
; 754  : 			Fork( nLength );

  0001a	89 54 24 04	 mov	 DWORD PTR _nLength$[esp-4], edx
  0001e	e9 00 00 00 00	 jmp	 ?Fork@?$CSimpleStringT@D$0A@@ATL@@AAEXH@Z ; ATL::CSimpleStringT<char,0>::Fork
$L184962:

; 755  : 		}
; 756  : 		else if( pOldData->nAllocLength < nLength )

  00023	8b 40 08	 mov	 eax, DWORD PTR [eax+8]
  00026	3b c2		 cmp	 eax, edx
  00028	7d 1f		 jge	 SHORT $L184964

; 757  : 		{
; 758  : 			// Grow exponentially, until we hit 1K.
; 759  : 			int nNewLength = pOldData->nAllocLength;
; 760  : 			if( nNewLength > 1024 )

  0002a	3d 00 04 00 00	 cmp	 eax, 1024		; 00000400H
  0002f	7e 07		 jle	 SHORT $L184966

; 761  : 			{
; 762  : 				nNewLength += 1024;

  00031	05 00 04 00 00	 add	 eax, 1024		; 00000400H

; 763  : 			}
; 764  : 			else

  00036	eb 02		 jmp	 SHORT $L184967
$L184966:

; 765  : 			{
; 766  : 				nNewLength *= 2;

  00038	03 c0		 add	 eax, eax
$L184967:

; 767  : 			}
; 768  : 			if( nNewLength < nLength )

  0003a	3b c2		 cmp	 eax, edx
  0003c	7d 02		 jge	 SHORT $L184968

; 769  : 			{
; 770  : 				nNewLength = nLength;

  0003e	8b c2		 mov	 eax, edx
$L184968:

; 771  : 			}
; 772  : 			Reallocate( nNewLength );

  00040	89 44 24 04	 mov	 DWORD PTR _nLength$[esp-4], eax
  00044	e9 00 00 00 00	 jmp	 ?Reallocate@?$CSimpleStringT@D$0A@@ATL@@AAEXH@Z ; ATL::CSimpleStringT<char,0>::Reallocate
$L184964:

; 773  : 		}
; 774  : 	}

  00049	c2 04 00	 ret	 4
?PrepareWrite2@?$CSimpleStringT@D$0A@@ATL@@AAEXH@Z ENDP	; ATL::CSimpleStringT<char,0>::PrepareWrite2
_TEXT	ENDS
PUBLIC	?_Eos@?$basic_string@DU?$char_traits@D@std@@V?$allocator@D@2@@std@@IAEXI@Z ; std::basic_string<char,std::char_traits<char>,std::allocator<char> >::_Eos
; Function compile flags: /Ogty
; File c:\program files\microsoft visual studio .net 2003\vc7\include\xstring
;	COMDAT ?_Eos@?$basic_string@DU?$char_traits@D@std@@V?$allocator@D@2@@std@@IAEXI@Z
_TEXT	SEGMENT
__Newsize$ = 8						; size = 4
?_Eos@?$basic_string@DU?$char_traits@D@std@@V?$allocator@D@2@@std@@IAEXI@Z PROC NEAR ; std::basic_string<char,std::char_traits<char>,std::allocator<char> >::_Eos, COMDAT
; _this$ = ecx

; 1475 : 		_Traits::assign(_Myptr()[_Mysize = _Newsize], _Elem());

  00000	83 79 18 10	 cmp	 DWORD PTR [ecx+24], 16	; 00000010H
  00004	8b 44 24 04	 mov	 eax, DWORD PTR __Newsize$[esp-4]
  00008	89 41 14	 mov	 DWORD PTR [ecx+20], eax
  0000b	72 0a		 jb	 SHORT $L217846
  0000d	8b 49 04	 mov	 ecx, DWORD PTR [ecx+4]
  00010	c6 04 01 00	 mov	 BYTE PTR [ecx+eax], 0

; 1476 : 		}

  00014	c2 04 00	 ret	 4

; 1475 : 		_Traits::assign(_Myptr()[_Mysize = _Newsize], _Elem());

$L217846:
  00017	c6 44 01 04 00	 mov	 BYTE PTR [ecx+eax+4], 0

; 1476 : 		}

  0001c	c2 04 00	 ret	 4
?_Eos@?$basic_string@DU?$char_traits@D@std@@V?$allocator@D@2@@std@@IAEXI@Z ENDP ; std::basic_string<char,std::char_traits<char>,std::allocator<char> >::_Eos
_TEXT	ENDS
PUBLIC	?max_size@?$basic_string@DU?$char_traits@D@std@@V?$allocator@D@2@@std@@QBEIXZ ; std::basic_string<char,std::char_traits<char>,std::allocator<char> >::max_size
; Function compile flags: /Ogty
;	COMDAT ?max_size@?$basic_string@DU?$char_traits@D@std@@V?$allocator@D@2@@std@@QBEIXZ
_TEXT	SEGMENT
?max_size@?$basic_string@DU?$char_traits@D@std@@V?$allocator@D@2@@std@@QBEIXZ PROC NEAR ; std::basic_string<char,std::char_traits<char>,std::allocator<char> >::max_size, COMDAT
; _this$ = ecx

; 1114 : 		size_type _Num = _Mybase::_Alval.max_size();
; 1115 : 		return (_Num <= 1 ? 1 : _Num - 1);

  00000	b8 fe ff ff ff	 mov	 eax, -2			; fffffffeH

; 1116 : 		}

  00005	c3		 ret	 0
?max_size@?$basic_string@DU?$char_traits@D@std@@V?$allocator@D@2@@std@@QBEIXZ ENDP ; std::basic_string<char,std::char_traits<char>,std::allocator<char> >::max_size
_TEXT	ENDS
PUBLIC	?allocate@?$allocator@D@std@@QAEPADI@Z		; std::allocator<char>::allocate
; Function compile flags: /Ogty
; File c:\program files\microsoft visual studio .net 2003\vc7\include\xmemory
;	COMDAT ?allocate@?$allocator@D@std@@QAEPADI@Z
_TEXT	SEGMENT
__Count$ = 8						; size = 4
?allocate@?$allocator@D@std@@QAEPADI@Z PROC NEAR	; std::allocator<char>::allocate, COMDAT
; _this$ = ecx

; 137  : 		return (_Allocate(_Count, (pointer)0));

  00000	8b 44 24 04	 mov	 eax, DWORD PTR __Count$[esp-4]
  00004	50		 push	 eax
  00005	e8 00 00 00 00	 call	 ??2@YAPAXI@Z		; operator new
  0000a	83 c4 04	 add	 esp, 4

; 138  : 		}

  0000d	c2 04 00	 ret	 4
?allocate@?$allocator@D@std@@QAEPADI@Z ENDP		; std::allocator<char>::allocate
_TEXT	ENDS
PUBLIC	??0iterator@?$list@PAXV?$allocator@PAX@std@@@std@@QAE@PAU_Node@?$_List_nod@PAXV?$allocator@PAX@std@@@2@@Z ; std::list<void *,std::allocator<void *> >::iterator::iterator
; Function compile flags: /Ogty
; File c:\program files\microsoft visual studio .net 2003\vc7\include\list
;	COMDAT ??0iterator@?$list@PAXV?$allocator@PAX@std@@@std@@QAE@PAU_Node@?$_List_nod@PAXV?$allocator@PAX@std@@@2@@Z
_TEXT	SEGMENT
__Pnode$ = 8						; size = 4
??0iterator@?$list@PAXV?$allocator@PAX@std@@@std@@QAE@PAU_Node@?$_List_nod@PAXV?$allocator@PAX@std@@@2@@Z PROC NEAR ; std::list<void *,std::allocator<void *> >::iterator::iterator, COMDAT
; _this$ = ecx

; 235  : 			{	// construct with node pointer _Pnode

  00000	8b c1		 mov	 eax, ecx
  00002	8b 4c 24 04	 mov	 ecx, DWORD PTR __Pnode$[esp-4]
  00006	89 08		 mov	 DWORD PTR [eax], ecx

; 236  : 			}

  00008	c2 04 00	 ret	 4
??0iterator@?$list@PAXV?$allocator@PAX@std@@@std@@QAE@PAU_Node@?$_List_nod@PAXV?$allocator@PAX@std@@@2@@Z ENDP ; std::list<void *,std::allocator<void *> >::iterator::iterator
_TEXT	ENDS
PUBLIC	??8ATL@@YA_NABV?$CStringT@DV?$StrTraitMFC@DV?$ChTraitsCRT@D@ATL@@@@@0@PBD@Z ; ATL::operator==
; Function compile flags: /Ogty
; File c:\program files\microsoft visual studio .net 2003\vc7\atlmfc\include\cstringt.h
;	COMDAT ??8ATL@@YA_NABV?$CStringT@DV?$StrTraitMFC@DV?$ChTraitsCRT@D@ATL@@@@@0@PBD@Z
_TEXT	SEGMENT
_str1$ = 8						; size = 4
_psz2$ = 12						; size = 4
??8ATL@@YA_NABV?$CStringT@DV?$StrTraitMFC@DV?$ChTraitsCRT@D@ATL@@@@@0@PBD@Z PROC NEAR ; ATL::operator==, COMDAT

; 2088 : 		return( str1.Compare( psz2 ) == 0 );

  00000	8b 4c 24 08	 mov	 ecx, DWORD PTR _psz2$[esp-4]
  00004	8b 44 24 04	 mov	 eax, DWORD PTR _str1$[esp-4]
  00008	8b 00		 mov	 eax, DWORD PTR [eax]
  0000a	51		 push	 ecx
  0000b	50		 push	 eax
  0000c	e8 00 00 00 00	 call	 __mbscmp
  00011	83 c4 08	 add	 esp, 8
  00014	f7 d8		 neg	 eax
  00016	1b c0		 sbb	 eax, eax
  00018	40		 inc	 eax

; 2089 : 	}

  00019	c3		 ret	 0
??8ATL@@YA_NABV?$CStringT@DV?$StrTraitMFC@DV?$ChTraitsCRT@D@ATL@@@@@0@PBD@Z ENDP ; ATL::operator==
_TEXT	ENDS
PUBLIC	?compare@?$basic_string@DU?$char_traits@D@std@@V?$allocator@D@2@@std@@QBEHABV12@@Z ; std::basic_string<char,std::char_traits<char>,std::allocator<char> >::compare
; Function compile flags: /Ogty
; File c:\program files\microsoft visual studio .net 2003\vc7\include\xstring
;	COMDAT ?compare@?$basic_string@DU?$char_traits@D@std@@V?$allocator@D@2@@std@@QBEHABV12@@Z
_TEXT	SEGMENT
__Right$ = 8						; size = 4
?compare@?$basic_string@DU?$char_traits@D@std@@V?$allocator@D@2@@std@@QBEHABV12@@Z PROC NEAR ; std::basic_string<char,std::char_traits<char>,std::allocator<char> >::compare, COMDAT
; _this$ = ecx

; 1380 : 		return (compare(0, _Mysize, _Right._Myptr(), _Right.size()));

  00000	8b 44 24 04	 mov	 eax, DWORD PTR __Right$[esp-4]
  00004	8b 50 14	 mov	 edx, DWORD PTR [eax+20]
  00007	83 78 18 10	 cmp	 DWORD PTR [eax+24], 16	; 00000010H
  0000b	72 13		 jb	 SHORT $L217900
  0000d	8b 40 04	 mov	 eax, DWORD PTR [eax+4]
  00010	52		 push	 edx
  00011	50		 push	 eax
  00012	8b 41 14	 mov	 eax, DWORD PTR [ecx+20]
  00015	50		 push	 eax
  00016	6a 00		 push	 0
  00018	e8 00 00 00 00	 call	 ?compare@?$basic_string@DU?$char_traits@D@std@@V?$allocator@D@2@@std@@QBEHIIPBDI@Z ; std::basic_string<char,std::char_traits<char>,std::allocator<char> >::compare

; 1381 : 		}

  0001d	c2 04 00	 ret	 4

; 1380 : 		return (compare(0, _Mysize, _Right._Myptr(), _Right.size()));

$L217900:
  00020	52		 push	 edx
  00021	83 c0 04	 add	 eax, 4
  00024	50		 push	 eax
  00025	8b 41 14	 mov	 eax, DWORD PTR [ecx+20]
  00028	50		 push	 eax
  00029	6a 00		 push	 0
  0002b	e8 00 00 00 00	 call	 ?compare@?$basic_string@DU?$char_traits@D@std@@V?$allocator@D@2@@std@@QBEHIIPBDI@Z ; std::basic_string<char,std::char_traits<char>,std::allocator<char> >::compare

; 1381 : 		}

  00030	c2 04 00	 ret	 4
?compare@?$basic_string@DU?$char_traits@D@std@@V?$allocator@D@2@@std@@QBEHABV12@@Z ENDP ; std::basic_string<char,std::char_traits<char>,std::allocator<char> >::compare
_TEXT	ENDS
PUBLIC	?begin@?$_Tree@V?$_Tset_traits@V?$basic_string@DU?$char_traits@D@std@@V?$allocator@D@2@@std@@U?$less@V?$basic_string@DU?$char_traits@D@std@@V?$allocator@D@2@@std@@@2@V?$allocator@V?$basic_string@DU?$char_traits@D@std@@V?$allocator@D@2@@std@@@2@$0A@@std@@@std@@QAE?AViterator@12@XZ ; std::_Tree<std::_Tset_traits<std::basic_string<char,std::char_traits<char>,std::allocator<char> >,std::less<std::basic_string<char,std::char_traits<char>,std::allocator<char> > >,std::allocator<std::basic_string<char,std::char_traits<char>,std::allocator<char> > >,0> >::begin
; Function compile flags: /Ogty
; File c:\program files\microsoft visual studio .net 2003\vc7\include\xtree
;	COMDAT ?begin@?$_Tree@V?$_Tset_traits@V?$basic_string@DU?$char_traits@D@std@@V?$allocator@D@2@@std@@U?$less@V?$basic_string@DU?$char_traits@D@std@@V?$allocator@D@2@@std@@@2@V?$allocator@V?$basic_string@DU?$char_traits@D@std@@V?$allocator@D@2@@std@@@2@$0A@@std@@@std@@QAE?AViterator@12@XZ
_TEXT	SEGMENT
___$ReturnUdt$ = 8					; size = 4
?begin@?$_Tree@V?$_Tset_traits@V?$basic_string@DU?$char_traits@D@std@@V?$allocator@D@2@@std@@U?$less@V?$basic_string@DU?$char_traits@D@std@@V?$allocator@D@2@@std@@@2@V?$allocator@V?$basic_string@DU?$char_traits@D@std@@V?$allocator@D@2@@std@@@2@$0A@@std@@@std@@QAE?AViterator@12@XZ PROC NEAR ; std::_Tree<std::_Tset_traits<std::basic_string<char,std::char_traits<char>,std::allocator<char> >,std::less<std::basic_string<char,std::char_traits<char>,std::allocator<char> > >,std::allocator<std::basic_string<char,std::char_traits<char>,std::allocator<char> > >,0> >::begin, COMDAT
; _this$ = ecx

; 408  : 		return (_TREE_ITERATOR(_Lmost()));

  00000	8b 41 04	 mov	 eax, DWORD PTR [ecx+4]
  00003	8b 08		 mov	 ecx, DWORD PTR [eax]
  00005	8b 44 24 04	 mov	 eax, DWORD PTR ___$ReturnUdt$[esp-4]
  00009	89 08		 mov	 DWORD PTR [eax], ecx

; 409  : 		}

  0000b	c2 04 00	 ret	 4
?begin@?$_Tree@V?$_Tset_traits@V?$basic_string@DU?$char_traits@D@std@@V?$allocator@D@2@@std@@U?$less@V?$basic_string@DU?$char_traits@D@std@@V?$allocator@D@2@@std@@@2@V?$allocator@V?$basic_string@DU?$char_traits@D@std@@V?$allocator@D@2@@std@@@2@$0A@@std@@@std@@QAE?AViterator@12@XZ ENDP ; std::_Tree<std::_Tset_traits<std::basic_string<char,std::char_traits<char>,std::allocator<char> >,std::less<std::basic_string<char,std::char_traits<char>,std::allocator<char> > >,std::allocator<std::basic_string<char,std::char_traits<char>,std::allocator<char> > >,0> >::begin
_TEXT	ENDS
PUBLIC	?begin@?$_Tree@V?$_Tmap_traits@EHU?$less@E@std@@V?$allocator@U?$pair@$$CBEH@std@@@2@$0A@@std@@@std@@QAE?AViterator@12@XZ ; std::_Tree<std::_Tmap_traits<unsigned char,int,std::less<unsigned char>,std::allocator<std::pair<unsigned char const ,int> >,0> >::begin
; Function compile flags: /Ogty
;	COMDAT ?begin@?$_Tree@V?$_Tmap_traits@EHU?$less@E@std@@V?$allocator@U?$pair@$$CBEH@std@@@2@$0A@@std@@@std@@QAE?AViterator@12@XZ
_TEXT	SEGMENT
___$ReturnUdt$ = 8					; size = 4
?begin@?$_Tree@V?$_Tmap_traits@EHU?$less@E@std@@V?$allocator@U?$pair@$$CBEH@std@@@2@$0A@@std@@@std@@QAE?AViterator@12@XZ PROC NEAR ; std::_Tree<std::_Tmap_traits<unsigned char,int,std::less<unsigned char>,std::allocator<std::pair<unsigned char const ,int> >,0> >::begin, COMDAT
; _this$ = ecx

; 408  : 		return (_TREE_ITERATOR(_Lmost()));

  00000	8b 41 04	 mov	 eax, DWORD PTR [ecx+4]
  00003	8b 08		 mov	 ecx, DWORD PTR [eax]
  00005	8b 44 24 04	 mov	 eax, DWORD PTR ___$ReturnUdt$[esp-4]
  00009	89 08		 mov	 DWORD PTR [eax], ecx

; 409  : 		}

  0000b	c2 04 00	 ret	 4
?begin@?$_Tree@V?$_Tmap_traits@EHU?$less@E@std@@V?$allocator@U?$pair@$$CBEH@std@@@2@$0A@@std@@@std@@QAE?AViterator@12@XZ ENDP ; std::_Tree<std::_Tmap_traits<unsigned char,int,std::less<unsigned char>,std::allocator<std::pair<unsigned char const ,int> >,0> >::begin
_TEXT	ENDS
PUBLIC	?end@?$_Tree@V?$_Tmap_traits@EHU?$less@E@std@@V?$allocator@U?$pair@$$CBEH@std@@@2@$0A@@std@@@std@@QAE?AViterator@12@XZ ; std::_Tree<std::_Tmap_traits<unsigned char,int,std::less<unsigned char>,std::allocator<std::pair<unsigned char const ,int> >,0> >::end
; Function compile flags: /Ogty
;	COMDAT ?end@?$_Tree@V?$_Tmap_traits@EHU?$less@E@std@@V?$allocator@U?$pair@$$CBEH@std@@@2@$0A@@std@@@std@@QAE?AViterator@12@XZ
_TEXT	SEGMENT
___$ReturnUdt$ = 8					; size = 4
?end@?$_Tree@V?$_Tmap_traits@EHU?$less@E@std@@V?$allocator@U?$pair@$$CBEH@std@@@2@$0A@@std@@@std@@QAE?AViterator@12@XZ PROC NEAR ; std::_Tree<std::_Tmap_traits<unsigned char,int,std::less<unsigned char>,std::allocator<std::pair<unsigned char const ,int> >,0> >::end, COMDAT
; _this$ = ecx

; 418  : 		return (_TREE_ITERATOR(_Myhead));

  00000	8b 49 04	 mov	 ecx, DWORD PTR [ecx+4]
  00003	8b 44 24 04	 mov	 eax, DWORD PTR ___$ReturnUdt$[esp-4]
  00007	89 08		 mov	 DWORD PTR [eax], ecx

; 419  : 		}

  00009	c2 04 00	 ret	 4
?end@?$_Tree@V?$_Tmap_traits@EHU?$less@E@std@@V?$allocator@U?$pair@$$CBEH@std@@@2@$0A@@std@@@std@@QAE?AViterator@12@XZ ENDP ; std::_Tree<std::_Tmap_traits<unsigned char,int,std::less<unsigned char>,std::allocator<std::pair<unsigned char const ,int> >,0> >::end
_TEXT	ENDS
PUBLIC	?_Buynode@?$_Tree@V?$_Tmap_traits@EHU?$less@E@std@@V?$allocator@U?$pair@$$CBEH@std@@@2@$0A@@std@@@std@@IAEPAU_Node@?$_Tree_nod@V?$_Tmap_traits@EHU?$less@E@std@@V?$allocator@U?$pair@$$CBEH@std@@@2@$0A@@std@@@2@XZ ; std::_Tree<std::_Tmap_traits<unsigned char,int,std::less<unsigned char>,std::allocator<std::pair<unsigned char const ,int> >,0> >::_Buynode
EXTRN	__CxxThrowException@8:NEAR
; Function compile flags: /Ogty
;	COMDAT ?_Buynode@?$_Tree@V?$_Tmap_traits@EHU?$less@E@std@@V?$allocator@U?$pair@$$CBEH@std@@@2@$0A@@std@@@std@@IAEPAU_Node@?$_Tree_nod@V?$_Tmap_traits@EHU?$less@E@std@@V?$allocator@U?$pair@$$CBEH@std@@@2@$0A@@std@@@2@XZ
_TEXT	SEGMENT
?_Buynode@?$_Tree@V?$_Tmap_traits@EHU?$less@E@std@@V?$allocator@U?$pair@$$CBEH@std@@@2@$0A@@std@@@std@@IAEPAU_Node@?$_Tree_nod@V?$_Tmap_traits@EHU?$less@E@std@@V?$allocator@U?$pair@$$CBEH@std@@@2@$0A@@std@@@2@XZ PROC NEAR ; std::_Tree<std::_Tmap_traits<unsigned char,int,std::less<unsigned char>,std::allocator<std::pair<unsigned char const ,int> >,0> >::_Buynode, COMDAT
; _this$ = ecx

; 1106 : 		_Nodeptr _Wherenode = this->_Alnod.allocate(1);

  00000	6a 18		 push	 24			; 00000018H
  00002	e8 00 00 00 00	 call	 ??2@YAPAXI@Z		; operator new
  00007	83 c4 04	 add	 esp, 4

; 1107 : 		int _Linkcnt = 0;
; 1108 : 
; 1109 : 		_TRY_BEGIN
; 1110 : 		this->_Alptr.construct(&_Left(_Wherenode), 0);

  0000a	85 c0		 test	 eax, eax
  0000c	74 06		 je	 SHORT $L217991
  0000e	c7 00 00 00 00
	00		 mov	 DWORD PTR [eax], 0
$L217991:

; 1111 : 		++_Linkcnt;
; 1112 : 		this->_Alptr.construct(&_Parent(_Wherenode), 0);

  00014	8d 48 04	 lea	 ecx, DWORD PTR [eax+4]
  00017	85 c9		 test	 ecx, ecx
  00019	74 06		 je	 SHORT $L218018
  0001b	c7 01 00 00 00
	00		 mov	 DWORD PTR [ecx], 0
$L218018:

; 1113 : 		++_Linkcnt;
; 1114 : 		this->_Alptr.construct(&_Right(_Wherenode), 0);

  00021	8d 48 08	 lea	 ecx, DWORD PTR [eax+8]
  00024	85 c9		 test	 ecx, ecx
  00026	74 06		 je	 SHORT $L218046
  00028	c7 01 00 00 00
	00		 mov	 DWORD PTR [ecx], 0
$L218046:

; 1115 : 		_CATCH_ALL
; 1116 : 		if (1 < _Linkcnt)
; 1117 : 			this->_Alptr.destroy(&_Parent(_Wherenode));
; 1118 : 		if (0 < _Linkcnt)
; 1119 : 			this->_Alptr.destroy(&_Left(_Wherenode));
; 1120 : 		this->_Alnod.deallocate(_Wherenode, 1);
; 1121 : 		_RERAISE;
; 1122 : 		_CATCH_END
; 1123 : 		_Color(_Wherenode) = _Black;

  0002e	c6 40 14 01	 mov	 BYTE PTR [eax+20], 1

; 1124 : 		_Isnil(_Wherenode) = false;

  00032	c6 40 15 00	 mov	 BYTE PTR [eax+21], 0

; 1125 : 		return (_Wherenode);
; 1126 : 		}

  00036	c3		 ret	 0
?_Buynode@?$_Tree@V?$_Tmap_traits@EHU?$less@E@std@@V?$allocator@U?$pair@$$CBEH@std@@@2@$0A@@std@@@std@@IAEPAU_Node@?$_Tree_nod@V?$_Tmap_traits@EHU?$less@E@std@@V?$allocator@U?$pair@$$CBEH@std@@@2@$0A@@std@@@2@XZ ENDP ; std::_Tree<std::_Tmap_traits<unsigned char,int,std::less<unsigned char>,std::allocator<std::pair<unsigned char const ,int> >,0> >::_Buynode
_TEXT	ENDS
PUBLIC	??0?$_Tree_ptr@V?$_Tmap_traits@EHU?$less@E@std@@V?$allocator@U?$pair@$$CBEH@std@@@2@$0A@@std@@@std@@IAE@ABU?$less@E@1@V?$allocator@U?$pair@$$CBEH@std@@@1@@Z ; std::_Tree_ptr<std::_Tmap_traits<unsigned char,int,std::less<unsigned char>,std::allocator<std::pair<unsigned char const ,int> >,0> >::_Tree_ptr<std::_Tmap_traits<unsigned char,int,std::less<unsigned char>,std::allocator<std::pair<unsigned char const ,int> >,0> >
; Function compile flags: /Ogty
;	COMDAT ??0?$_Tree_ptr@V?$_Tmap_traits@EHU?$less@E@std@@V?$allocator@U?$pair@$$CBEH@std@@@2@$0A@@std@@@std@@IAE@ABU?$less@E@1@V?$allocator@U?$pair@$$CBEH@std@@@1@@Z
_TEXT	SEGMENT
__Parg$ = 8						; size = 4
__Al$ = 12						; size = 1
??0?$_Tree_ptr@V?$_Tmap_traits@EHU?$less@E@std@@V?$allocator@U?$pair@$$CBEH@std@@@2@$0A@@std@@@std@@IAE@ABU?$less@E@1@V?$allocator@U?$pair@$$CBEH@std@@@1@@Z PROC NEAR ; std::_Tree_ptr<std::_Tmap_traits<unsigned char,int,std::less<unsigned char>,std::allocator<std::pair<unsigned char const ,int> >,0> >::_Tree_ptr<std::_Tmap_traits<unsigned char,int,std::less<unsigned char>,std::allocator<std::pair<unsigned char const ,int> >,0> >, COMDAT
; _this$ = ecx

; 76   : 		{	// construct base, and allocator from _Al

  00000	8b c1		 mov	 eax, ecx

; 77   : 		}

  00002	c2 08 00	 ret	 8
??0?$_Tree_ptr@V?$_Tmap_traits@EHU?$less@E@std@@V?$allocator@U?$pair@$$CBEH@std@@@2@$0A@@std@@@std@@IAE@ABU?$less@E@1@V?$allocator@U?$pair@$$CBEH@std@@@1@@Z ENDP ; std::_Tree_ptr<std::_Tmap_traits<unsigned char,int,std::less<unsigned char>,std::allocator<std::pair<unsigned char const ,int> >,0> >::_Tree_ptr<std::_Tmap_traits<unsigned char,int,std::less<unsigned char>,std::allocator<std::pair<unsigned char const ,int> >,0> >
_TEXT	ENDS
PUBLIC	?begin@?$list@PAXV?$allocator@PAX@std@@@std@@QAE?AViterator@12@XZ ; std::list<void *,std::allocator<void *> >::begin
; Function compile flags: /Ogty
; File c:\program files\microsoft visual studio .net 2003\vc7\include\list
;	COMDAT ?begin@?$list@PAXV?$allocator@PAX@std@@@std@@QAE?AViterator@12@XZ
_TEXT	SEGMENT
___$ReturnUdt$ = 8					; size = 4
?begin@?$list@PAXV?$allocator@PAX@std@@@std@@QAE?AViterator@12@XZ PROC NEAR ; std::list<void *,std::allocator<void *> >::begin, COMDAT
; _this$ = ecx

; 377  : 		return (iterator(_Nextnode(_Myhead)));

  00000	8b 41 04	 mov	 eax, DWORD PTR [ecx+4]
  00003	8b 08		 mov	 ecx, DWORD PTR [eax]
  00005	8b 44 24 04	 mov	 eax, DWORD PTR ___$ReturnUdt$[esp-4]
  00009	89 08		 mov	 DWORD PTR [eax], ecx

; 378  : 		}

  0000b	c2 04 00	 ret	 4
?begin@?$list@PAXV?$allocator@PAX@std@@@std@@QAE?AViterator@12@XZ ENDP ; std::list<void *,std::allocator<void *> >::begin
_TEXT	ENDS
PUBLIC	?clear@?$list@PAXV?$allocator@PAX@std@@@std@@QAEXXZ ; std::list<void *,std::allocator<void *> >::clear
; Function compile flags: /Ogty
;	COMDAT ?clear@?$list@PAXV?$allocator@PAX@std@@@std@@QAEXXZ
_TEXT	SEGMENT
?clear@?$list@PAXV?$allocator@PAX@std@@@std@@QAEXXZ PROC NEAR ; std::list<void *,std::allocator<void *> >::clear, COMDAT
; _this$ = ecx

; 610  : 		{	// erase all

  00000	56		 push	 esi
  00001	8b f1		 mov	 esi, ecx

; 611  : 		_Nodeptr _Pnext;
; 612  : 		_Nodeptr _Pnode = _Nextnode(_Myhead);

  00003	8b 4e 04	 mov	 ecx, DWORD PTR [esi+4]
  00006	8b 01		 mov	 eax, DWORD PTR [ecx]

; 613  : 		_Nextnode(_Myhead) = _Myhead;

  00008	89 09		 mov	 DWORD PTR [ecx], ecx

; 614  : 		_Prevnode(_Myhead) = _Myhead;

  0000a	8b 4e 04	 mov	 ecx, DWORD PTR [esi+4]
  0000d	89 49 04	 mov	 DWORD PTR [ecx+4], ecx

; 615  : 		_Mysize = 0;
; 616  : 
; 617  : 		for (; _Pnode != _Myhead; _Pnode = _Pnext)

  00010	3b 46 04	 cmp	 eax, DWORD PTR [esi+4]
  00013	c7 46 08 00 00
	00 00		 mov	 DWORD PTR [esi+8], 0
  0001a	74 19		 je	 SHORT $L214776
  0001c	57		 push	 edi
  0001d	8d 49 00	 npad	 3
$L214774:

; 618  : 			{	// delete an element
; 619  : 			_Pnext = _Nextnode(_Pnode);

  00020	8b 38		 mov	 edi, DWORD PTR [eax]

; 620  : 			this->_Alnod.destroy(_Pnode);
; 621  : 			this->_Alnod.deallocate(_Pnode, 1);

  00022	50		 push	 eax
  00023	e8 00 00 00 00	 call	 ??3@YAXPAX@Z		; operator delete
  00028	8b 4e 04	 mov	 ecx, DWORD PTR [esi+4]
  0002b	83 c4 04	 add	 esp, 4
  0002e	3b f9		 cmp	 edi, ecx
  00030	8b c7		 mov	 eax, edi
  00032	75 ec		 jne	 SHORT $L214774
  00034	5f		 pop	 edi
$L214776:
  00035	5e		 pop	 esi

; 622  : 			}
; 623  : 		}

  00036	c3		 ret	 0
?clear@?$list@PAXV?$allocator@PAX@std@@@std@@QAEXXZ ENDP ; std::list<void *,std::allocator<void *> >::clear
_TEXT	ENDS
PUBLIC	?_Tidy@?$list@PAXV?$allocator@PAX@std@@@std@@IAEXXZ ; std::list<void *,std::allocator<void *> >::_Tidy
; Function compile flags: /Ogty
;	COMDAT ?_Tidy@?$list@PAXV?$allocator@PAX@std@@@std@@IAEXXZ
_TEXT	SEGMENT
?_Tidy@?$list@PAXV?$allocator@PAX@std@@@std@@IAEXXZ PROC NEAR ; std::list<void *,std::allocator<void *> >::_Tidy, COMDAT
; _this$ = ecx

; 929  : 		{	// free all storage

  00000	56		 push	 esi
  00001	8b f1		 mov	 esi, ecx

; 930  : 		clear();

  00003	e8 00 00 00 00	 call	 ?clear@?$list@PAXV?$allocator@PAX@std@@@std@@QAEXXZ ; std::list<void *,std::allocator<void *> >::clear

; 931  : 		this->_Alptr.destroy(&_Nextnode(_Myhead));
; 932  : 		this->_Alptr.destroy(&_Prevnode(_Myhead));
; 933  : 		this->_Alnod.deallocate(_Myhead, 1);

  00008	8b 46 04	 mov	 eax, DWORD PTR [esi+4]
  0000b	50		 push	 eax
  0000c	e8 00 00 00 00	 call	 ??3@YAXPAX@Z		; operator delete
  00011	83 c4 04	 add	 esp, 4

; 934  : 		_Myhead = 0;

  00014	c7 46 04 00 00
	00 00		 mov	 DWORD PTR [esi+4], 0
  0001b	5e		 pop	 esi

; 935  : 		}

  0001c	c3		 ret	 0
?_Tidy@?$list@PAXV?$allocator@PAX@std@@@std@@IAEXXZ ENDP ; std::list<void *,std::allocator<void *> >::_Tidy
_TEXT	ENDS
PUBLIC	??Diterator@?$list@PAXV?$allocator@PAX@std@@@std@@QBEAAPAXXZ ; std::list<void *,std::allocator<void *> >::iterator::operator*
; Function compile flags: /Ogty
;	COMDAT ??Diterator@?$list@PAXV?$allocator@PAX@std@@@std@@QBEAAPAXXZ
_TEXT	SEGMENT
??Diterator@?$list@PAXV?$allocator@PAX@std@@@std@@QBEAAPAXXZ PROC NEAR ; std::list<void *,std::allocator<void *> >::iterator::operator*, COMDAT
; _this$ = ecx

; 240  : 			return ((reference)**(const_iterator *)this);

  00000	8b 01		 mov	 eax, DWORD PTR [ecx]
  00002	83 c0 08	 add	 eax, 8

; 241  : 			}

  00005	c3		 ret	 0
??Diterator@?$list@PAXV?$allocator@PAX@std@@@std@@QBEAAPAXXZ ENDP ; std::list<void *,std::allocator<void *> >::iterator::operator*
_TEXT	ENDS
PUBLIC	??Eiterator@?$list@PAXV?$allocator@PAX@std@@@std@@QAEAAV012@XZ ; std::list<void *,std::allocator<void *> >::iterator::operator++
; Function compile flags: /Ogty
;	COMDAT ??Eiterator@?$list@PAXV?$allocator@PAX@std@@@std@@QAEAAV012@XZ
_TEXT	SEGMENT
??Eiterator@?$list@PAXV?$allocator@PAX@std@@@std@@QAEAAV012@XZ PROC NEAR ; std::list<void *,std::allocator<void *> >::iterator::operator++, COMDAT
; _this$ = ecx

; 249  : 			{	// preincrement

  00000	8b c1		 mov	 eax, ecx

; 250  : 			++(*(const_iterator *)this);

  00002	8b 08		 mov	 ecx, DWORD PTR [eax]
  00004	8b 11		 mov	 edx, DWORD PTR [ecx]
  00006	89 10		 mov	 DWORD PTR [eax], edx

; 251  : 			return (*this);
; 252  : 			}

  00008	c3		 ret	 0
??Eiterator@?$list@PAXV?$allocator@PAX@std@@@std@@QAEAAV012@XZ ENDP ; std::list<void *,std::allocator<void *> >::iterator::operator++
_TEXT	ENDS
PUBLIC	??Fconst_iterator@?$_Tree@V?$_Tset_traits@V?$basic_string@DU?$char_traits@D@std@@V?$allocator@D@2@@std@@U?$less@V?$basic_string@DU?$char_traits@D@std@@V?$allocator@D@2@@std@@@2@V?$allocator@V?$basic_string@DU?$char_traits@D@std@@V?$allocator@D@2@@std@@@2@$0A@@std@@@std@@QAEAAV012@XZ ; std::_Tree<std::_Tset_traits<std::basic_string<char,std::char_traits<char>,std::allocator<char> >,std::less<std::basic_string<char,std::char_traits<char>,std::allocator<char> > >,std::allocator<std::basic_string<char,std::char_traits<char>,std::allocator<char> > >,0> >::const_iterator::operator--
; Function compile flags: /Ogty
; File c:\program files\microsoft visual studio .net 2003\vc7\include\xtree
;	COMDAT ??Fconst_iterator@?$_Tree@V?$_Tset_traits@V?$basic_string@DU?$char_traits@D@std@@V?$allocator@D@2@@std@@U?$less@V?$basic_string@DU?$char_traits@D@std@@V?$allocator@D@2@@std@@@2@V?$allocator@V?$basic_string@DU?$char_traits@D@std@@V?$allocator@D@2@@std@@@2@$0A@@std@@@std@@QAEAAV012@XZ
_TEXT	SEGMENT
??Fconst_iterator@?$_Tree@V?$_Tset_traits@V?$basic_string@DU?$char_traits@D@std@@V?$allocator@D@2@@std@@U?$less@V?$basic_string@DU?$char_traits@D@std@@V?$allocator@D@2@@std@@@2@V?$allocator@V?$basic_string@DU?$char_traits@D@std@@V?$allocator@D@2@@std@@@2@$0A@@std@@@std@@QAEAAV012@XZ PROC NEAR ; std::_Tree<std::_Tset_traits<std::basic_string<char,std::char_traits<char>,std::allocator<char> >,std::less<std::basic_string<char,std::char_traits<char>,std::allocator<char> > >,std::allocator<std::basic_string<char,std::char_traits<char>,std::allocator<char> > >,0> >::const_iterator::operator--, COMDAT
; _this$ = ecx

; 227  : 			{	// predecrement

  00000	56		 push	 esi
  00001	8b f1		 mov	 esi, ecx

; 228  : 			_Dec();

  00003	e8 00 00 00 00	 call	 ?_Dec@const_iterator@?$_Tree@V?$_Tset_traits@V?$basic_string@DU?$char_traits@D@std@@V?$allocator@D@2@@std@@U?$less@V?$basic_string@DU?$char_traits@D@std@@V?$allocator@D@2@@std@@@2@V?$allocator@V?$basic_string@DU?$char_traits@D@std@@V?$allocator@D@2@@std@@@2@$0A@@std@@@std@@QAEXXZ ; std::_Tree<std::_Tset_traits<std::basic_string<char,std::char_traits<char>,std::allocator<char> >,std::less<std::basic_string<char,std::char_traits<char>,std::allocator<char> > >,std::allocator<std::basic_string<char,std::char_traits<char>,std::allocator<char> > >,0> >::const_iterator::_Dec

; 229  : 			return (*this);

  00008	8b c6		 mov	 eax, esi
  0000a	5e		 pop	 esi

; 230  : 			}

  0000b	c3		 ret	 0
??Fconst_iterator@?$_Tree@V?$_Tset_traits@V?$basic_string@DU?$char_traits@D@std@@V?$allocator@D@2@@std@@U?$less@V?$basic_string@DU?$char_traits@D@std@@V?$allocator@D@2@@std@@@2@V?$allocator@V?$basic_string@DU?$char_traits@D@std@@V?$allocator@D@2@@std@@@2@$0A@@std@@@std@@QAEAAV012@XZ ENDP ; std::_Tree<std::_Tset_traits<std::basic_string<char,std::char_traits<char>,std::allocator<char> >,std::less<std::basic_string<char,std::char_traits<char>,std::allocator<char> > >,std::allocator<std::basic_string<char,std::char_traits<char>,std::allocator<char> > >,0> >::const_iterator::operator--
_TEXT	ENDS
PUBLIC	?_Erase@?$_Tree@V?$_Tmap_traits@EHU?$less@E@std@@V?$allocator@U?$pair@$$CBEH@std@@@2@$0A@@std@@@std@@IAEXPAU_Node@?$_Tree_nod@V?$_Tmap_traits@EHU?$less@E@std@@V?$allocator@U?$pair@$$CBEH@std@@@2@$0A@@std@@@2@@Z ; std::_Tree<std::_Tmap_traits<unsigned char,int,std::less<unsigned char>,std::allocator<std::pair<unsigned char const ,int> >,0> >::_Erase
; Function compile flags: /Ogty
;	COMDAT ?_Erase@?$_Tree@V?$_Tmap_traits@EHU?$less@E@std@@V?$allocator@U?$pair@$$CBEH@std@@@2@$0A@@std@@@std@@IAEXPAU_Node@?$_Tree_nod@V?$_Tmap_traits@EHU?$less@E@std@@V?$allocator@U?$pair@$$CBEH@std@@@2@$0A@@std@@@2@@Z
_TEXT	SEGMENT
__Rootnode$ = 8						; size = 4
?_Erase@?$_Tree@V?$_Tmap_traits@EHU?$less@E@std@@V?$allocator@U?$pair@$$CBEH@std@@@2@$0A@@std@@@std@@IAEXPAU_Node@?$_Tree_nod@V?$_Tmap_traits@EHU?$less@E@std@@V?$allocator@U?$pair@$$CBEH@std@@@2@$0A@@std@@@2@@Z PROC NEAR ; std::_Tree<std::_Tmap_traits<unsigned char,int,std::less<unsigned char>,std::allocator<std::pair<unsigned char const ,int> >,0> >::_Erase, COMDAT
; _this$ = ecx

; 890  : 		{	// free entire subtree, recursively

  00000	53		 push	 ebx
  00001	56		 push	 esi
  00002	57		 push	 edi

; 891  : 		for (_Nodeptr _Pnode = _Rootnode; !_Isnil(_Pnode); _Rootnode = _Pnode)

  00003	8b 7c 24 10	 mov	 edi, DWORD PTR __Rootnode$[esp+8]
  00007	8a 47 15	 mov	 al, BYTE PTR [edi+21]
  0000a	84 c0		 test	 al, al
  0000c	8b d9		 mov	 ebx, ecx
  0000e	8b f7		 mov	 esi, edi
  00010	75 1f		 jne	 SHORT $L215236
$L215234:

; 892  : 			{	// free subtrees, then node
; 893  : 			_Erase(_Right(_Pnode));

  00012	8b 46 08	 mov	 eax, DWORD PTR [esi+8]
  00015	50		 push	 eax
  00016	8b cb		 mov	 ecx, ebx
  00018	e8 00 00 00 00	 call	 ?_Erase@?$_Tree@V?$_Tmap_traits@EHU?$less@E@std@@V?$allocator@U?$pair@$$CBEH@std@@@2@$0A@@std@@@std@@IAEXPAU_Node@?$_Tree_nod@V?$_Tmap_traits@EHU?$less@E@std@@V?$allocator@U?$pair@$$CBEH@std@@@2@$0A@@std@@@2@@Z ; std::_Tree<std::_Tmap_traits<unsigned char,int,std::less<unsigned char>,std::allocator<std::pair<unsigned char const ,int> >,0> >::_Erase

; 894  : 			_Pnode = _Left(_Pnode);

  0001d	8b 36		 mov	 esi, DWORD PTR [esi]

; 895  : 			this->_Alnod.destroy(_Rootnode);	// destroy, free erased node
; 896  : 			this->_Alnod.deallocate(_Rootnode, 1);

  0001f	57		 push	 edi
  00020	e8 00 00 00 00	 call	 ??3@YAXPAX@Z		; operator delete
  00025	8a 46 15	 mov	 al, BYTE PTR [esi+21]
  00028	83 c4 04	 add	 esp, 4
  0002b	84 c0		 test	 al, al
  0002d	8b fe		 mov	 edi, esi
  0002f	74 e1		 je	 SHORT $L215234
$L215236:
  00031	5f		 pop	 edi
  00032	5e		 pop	 esi
  00033	5b		 pop	 ebx

; 897  : 			}
; 898  : 		}

  00034	c2 04 00	 ret	 4
?_Erase@?$_Tree@V?$_Tmap_traits@EHU?$less@E@std@@V?$allocator@U?$pair@$$CBEH@std@@@2@$0A@@std@@@std@@IAEXPAU_Node@?$_Tree_nod@V?$_Tmap_traits@EHU?$less@E@std@@V?$allocator@U?$pair@$$CBEH@std@@@2@$0A@@std@@@2@@Z ENDP ; std::_Tree<std::_Tmap_traits<unsigned char,int,std::less<unsigned char>,std::allocator<std::pair<unsigned char const ,int> >,0> >::_Erase
_TEXT	ENDS
PUBLIC	?_Buynode@?$_Tree@V?$_Tmap_traits@EHU?$less@E@std@@V?$allocator@U?$pair@$$CBEH@std@@@2@$0A@@std@@@std@@IAEPAU_Node@?$_Tree_nod@V?$_Tmap_traits@EHU?$less@E@std@@V?$allocator@U?$pair@$$CBEH@std@@@2@$0A@@std@@@2@PAU342@00ABU?$pair@$$CBEH@2@D@Z ; std::_Tree<std::_Tmap_traits<unsigned char,int,std::less<unsigned char>,std::allocator<std::pair<unsigned char const ,int> >,0> >::_Buynode
; Function compile flags: /Ogty
;	COMDAT ?_Buynode@?$_Tree@V?$_Tmap_traits@EHU?$less@E@std@@V?$allocator@U?$pair@$$CBEH@std@@@2@$0A@@std@@@std@@IAEPAU_Node@?$_Tree_nod@V?$_Tmap_traits@EHU?$less@E@std@@V?$allocator@U?$pair@$$CBEH@std@@@2@$0A@@std@@@2@PAU342@00ABU?$pair@$$CBEH@2@D@Z
_TEXT	SEGMENT
__Larg$ = 8						; size = 4
__Parg$ = 12						; size = 4
__Rarg$ = 16						; size = 4
__Val$ = 20						; size = 4
__Carg$ = 24						; size = 1
?_Buynode@?$_Tree@V?$_Tmap_traits@EHU?$less@E@std@@V?$allocator@U?$pair@$$CBEH@std@@@2@$0A@@std@@@std@@IAEPAU_Node@?$_Tree_nod@V?$_Tmap_traits@EHU?$less@E@std@@V?$allocator@U?$pair@$$CBEH@std@@@2@$0A@@std@@@2@PAU342@00ABU?$pair@$$CBEH@2@D@Z PROC NEAR ; std::_Tree<std::_Tmap_traits<unsigned char,int,std::less<unsigned char>,std::allocator<std::pair<unsigned char const ,int> >,0> >::_Buynode, COMDAT
; _this$ = ecx

; 1131 : 		_Nodeptr _Wherenode = this->_Alnod.allocate(1);

  00000	6a 18		 push	 24			; 00000018H
  00002	e8 00 00 00 00	 call	 ??2@YAPAXI@Z		; operator new
  00007	83 c4 04	 add	 esp, 4

; 1132 : 		_TRY_BEGIN
; 1133 : 		new (_Wherenode) _Node(_Larg, _Parg, _Rarg, _Val, _Carg);

  0000a	85 c0		 test	 eax, eax
  0000c	74 2e		 je	 SHORT $L218185
  0000e	8b 4c 24 04	 mov	 ecx, DWORD PTR __Larg$[esp-4]
  00012	8b 54 24 08	 mov	 edx, DWORD PTR __Parg$[esp-4]
  00016	89 08		 mov	 DWORD PTR [eax], ecx
  00018	8b 4c 24 0c	 mov	 ecx, DWORD PTR __Rarg$[esp-4]
  0001c	89 48 08	 mov	 DWORD PTR [eax+8], ecx
  0001f	8b 4c 24 10	 mov	 ecx, DWORD PTR __Val$[esp-4]
  00023	89 50 04	 mov	 DWORD PTR [eax+4], edx
  00026	8b 11		 mov	 edx, DWORD PTR [ecx]
  00028	89 50 0c	 mov	 DWORD PTR [eax+12], edx
  0002b	8b 49 04	 mov	 ecx, DWORD PTR [ecx+4]
  0002e	8a 54 24 14	 mov	 dl, BYTE PTR __Carg$[esp-4]
  00032	89 48 10	 mov	 DWORD PTR [eax+16], ecx
  00035	88 50 14	 mov	 BYTE PTR [eax+20], dl
  00038	c6 40 15 00	 mov	 BYTE PTR [eax+21], 0
$L218185:

; 1134 : 		_CATCH_ALL
; 1135 : 		this->_Alnod.deallocate(_Wherenode, 1);
; 1136 : 		_RERAISE;
; 1137 : 		_CATCH_END
; 1138 : 		return (_Wherenode);
; 1139 : 		}

  0003c	c2 14 00	 ret	 20			; 00000014H
?_Buynode@?$_Tree@V?$_Tmap_traits@EHU?$less@E@std@@V?$allocator@U?$pair@$$CBEH@std@@@2@$0A@@std@@@std@@IAEPAU_Node@?$_Tree_nod@V?$_Tmap_traits@EHU?$less@E@std@@V?$allocator@U?$pair@$$CBEH@std@@@2@$0A@@std@@@2@PAU342@00ABU?$pair@$$CBEH@2@D@Z ENDP ; std::_Tree<std::_Tmap_traits<unsigned char,int,std::less<unsigned char>,std::allocator<std::pair<unsigned char const ,int> >,0> >::_Buynode
_TEXT	ENDS
PUBLIC	??Eiterator@?$_Tree@V?$_Tmap_traits@EHU?$less@E@std@@V?$allocator@U?$pair@$$CBEH@std@@@2@$0A@@std@@@std@@QAEAAV012@XZ ; std::_Tree<std::_Tmap_traits<unsigned char,int,std::less<unsigned char>,std::allocator<std::pair<unsigned char const ,int> >,0> >::iterator::operator++
; Function compile flags: /Ogty
;	COMDAT ??Eiterator@?$_Tree@V?$_Tmap_traits@EHU?$less@E@std@@V?$allocator@U?$pair@$$CBEH@std@@@2@$0A@@std@@@std@@QAEAAV012@XZ
_TEXT	SEGMENT
??Eiterator@?$_Tree@V?$_Tmap_traits@EHU?$less@E@std@@V?$allocator@U?$pair@$$CBEH@std@@@2@$0A@@std@@@std@@QAEAAV012@XZ PROC NEAR ; std::_Tree<std::_Tmap_traits<unsigned char,int,std::less<unsigned char>,std::allocator<std::pair<unsigned char const ,int> >,0> >::iterator::operator++, COMDAT
; _this$ = ecx

; 326  : 			{	// preincrement

  00000	56		 push	 esi
  00001	8b f1		 mov	 esi, ecx

; 327  : 			++(*(const_iterator *)this);

  00003	e8 00 00 00 00	 call	 ?_Inc@const_iterator@?$_Tree@V?$_Tmap_traits@EHU?$less@E@std@@V?$allocator@U?$pair@$$CBEH@std@@@2@$0A@@std@@@std@@QAEXXZ ; std::_Tree<std::_Tmap_traits<unsigned char,int,std::less<unsigned char>,std::allocator<std::pair<unsigned char const ,int> >,0> >::const_iterator::_Inc

; 328  : 			return (*this);

  00008	8b c6		 mov	 eax, esi
  0000a	5e		 pop	 esi

; 329  : 			}

  0000b	c3		 ret	 0
??Eiterator@?$_Tree@V?$_Tmap_traits@EHU?$less@E@std@@V?$allocator@U?$pair@$$CBEH@std@@@2@$0A@@std@@@std@@QAEAAV012@XZ ENDP ; std::_Tree<std::_Tmap_traits<unsigned char,int,std::less<unsigned char>,std::allocator<std::pair<unsigned char const ,int> >,0> >::iterator::operator++
_TEXT	ENDS
PUBLIC	??1?$CStringT@DV?$StrTraitMFC@DV?$ChTraitsCRT@D@ATL@@@@@ATL@@QAE@XZ ; ATL::CStringT<char,StrTraitMFC<char,ATL::ChTraitsCRT<char> > >::~CStringT<char,StrTraitMFC<char,ATL::ChTraitsCRT<char> > >
; Function compile flags: /Ogty
; File c:\program files\microsoft visual studio .net 2003\vc7\atlmfc\include\cstringt.h
;	COMDAT ??1?$CStringT@DV?$StrTraitMFC@DV?$ChTraitsCRT@D@ATL@@@@@ATL@@QAE@XZ
_TEXT	SEGMENT
??1?$CStringT@DV?$StrTraitMFC@DV?$ChTraitsCRT@D@ATL@@@@@ATL@@QAE@XZ PROC NEAR ; ATL::CStringT<char,StrTraitMFC<char,ATL::ChTraitsCRT<char> > >::~CStringT<char,StrTraitMFC<char,ATL::ChTraitsCRT<char> > >, COMDAT
; _this$ = ecx

; 963  : 	}

  00000	8b 01		 mov	 eax, DWORD PTR [ecx]
  00002	83 e8 10	 sub	 eax, 16			; 00000010H
  00005	8d 48 0c	 lea	 ecx, DWORD PTR [eax+12]
  00008	83 ca ff	 or	 edx, -1
  0000b	f0 0f c1 11	 lock	  xadd	 DWORD PTR [ecx], edx
  0000f	4a		 dec	 edx
  00010	85 d2		 test	 edx, edx
  00012	7f 08		 jg	 SHORT $L218230
  00014	8b 08		 mov	 ecx, DWORD PTR [eax]
  00016	8b 11		 mov	 edx, DWORD PTR [ecx]
  00018	50		 push	 eax
  00019	ff 52 04	 call	 DWORD PTR [edx+4]
$L218230:
  0001c	c3		 ret	 0
??1?$CStringT@DV?$StrTraitMFC@DV?$ChTraitsCRT@D@ATL@@@@@ATL@@QAE@XZ ENDP ; ATL::CStringT<char,StrTraitMFC<char,ATL::ChTraitsCRT<char> > >::~CStringT<char,StrTraitMFC<char,ATL::ChTraitsCRT<char> > >
_TEXT	ENDS
PUBLIC	?PrepareWrite@?$CSimpleStringT@D$0A@@ATL@@AAEPADH@Z ; ATL::CSimpleStringT<char,0>::PrepareWrite
; Function compile flags: /Ogty
; File c:\program files\microsoft visual studio .net 2003\vc7\atlmfc\include\atlsimpstr.h
;	COMDAT ?PrepareWrite@?$CSimpleStringT@D$0A@@ATL@@AAEPADH@Z
_TEXT	SEGMENT
_nLength$ = 8						; size = 4
?PrepareWrite@?$CSimpleStringT@D$0A@@ATL@@AAEPADH@Z PROC NEAR ; ATL::CSimpleStringT<char,0>::PrepareWrite, COMDAT
; _this$ = ecx

; 734  : 	{

  00000	56		 push	 esi
  00001	8b f1		 mov	 esi, ecx

; 735  : 		CStringData* pOldData = GetData();

  00003	8b 06		 mov	 eax, DWORD PTR [esi]

; 736  : 		int nShared = 1-pOldData->nRefs;  // nShared < 0 means true, >= 0 means false

  00005	8b 50 fc	 mov	 edx, DWORD PTR [eax-4]
  00008	83 e8 10	 sub	 eax, 16			; 00000010H
  0000b	b9 01 00 00 00	 mov	 ecx, 1
  00010	2b ca		 sub	 ecx, edx

; 737  : 		int nTooShort = pOldData->nAllocLength-nLength;  // nTooShort < 0 means true, >= 0 means false

  00012	8b 50 08	 mov	 edx, DWORD PTR [eax+8]
  00015	8b 44 24 08	 mov	 eax, DWORD PTR _nLength$[esp]
  00019	2b d0		 sub	 edx, eax

; 738  : 		if( (nShared|nTooShort) < 0 )  // If either sign bit is set (i.e. either is less than zero), we need to copy data

  0001b	0b ca		 or	 ecx, edx
  0001d	7d 08		 jge	 SHORT $L218238

; 739  : 		{
; 740  : 			PrepareWrite2( nLength );

  0001f	50		 push	 eax
  00020	8b ce		 mov	 ecx, esi
  00022	e8 00 00 00 00	 call	 ?PrepareWrite2@?$CSimpleStringT@D$0A@@ATL@@AAEXH@Z ; ATL::CSimpleStringT<char,0>::PrepareWrite2
$L218238:

; 741  : 		}
; 742  : 
; 743  : 		return( m_pszData );

  00027	8b 06		 mov	 eax, DWORD PTR [esi]
  00029	5e		 pop	 esi

; 744  : 	}

  0002a	c2 04 00	 ret	 4
?PrepareWrite@?$CSimpleStringT@D$0A@@ATL@@AAEPADH@Z ENDP ; ATL::CSimpleStringT<char,0>::PrepareWrite
_TEXT	ENDS
PUBLIC	?_Tidy@?$basic_string@DU?$char_traits@D@std@@V?$allocator@D@2@@std@@IAEX_NI@Z ; std::basic_string<char,std::char_traits<char>,std::allocator<char> >::_Tidy
; Function compile flags: /Ogty
; File c:\program files\microsoft visual studio .net 2003\vc7\include\xstring
;	COMDAT ?_Tidy@?$basic_string@DU?$char_traits@D@std@@V?$allocator@D@2@@std@@IAEX_NI@Z
_TEXT	SEGMENT
__Built$ = 8						; size = 1
__Newsize$ = 12						; size = 4
?_Tidy@?$basic_string@DU?$char_traits@D@std@@V?$allocator@D@2@@std@@IAEX_NI@Z PROC NEAR ; std::basic_string<char,std::char_traits<char>,std::allocator<char> >::_Tidy, COMDAT
; _this$ = ecx

; 1510 : 		if (!_Built)

  00000	8a 44 24 04	 mov	 al, BYTE PTR __Built$[esp-4]
  00004	84 c0		 test	 al, al
  00006	53		 push	 ebx
  00007	55		 push	 ebp
  00008	8b 6c 24 10	 mov	 ebp, DWORD PTR __Newsize$[esp+4]
  0000c	8b d9		 mov	 ebx, ecx
  0000e	74 2f		 je	 SHORT $L218246

; 1511 : 			;
; 1512 : 		else if (_BUF_SIZE <= _Myres)

  00010	83 7b 18 10	 cmp	 DWORD PTR [ebx+24], 16	; 00000010H
  00014	72 29		 jb	 SHORT $L218246

; 1513 : 			{	// copy any leftovers to small buffer and deallocate
; 1514 : 			_Elem *_Ptr = _Bx._Ptr;
; 1515 : 			if (0 < _Newsize)

  00016	85 ed		 test	 ebp, ebp
  00018	8b 43 04	 mov	 eax, DWORD PTR [ebx+4]
  0001b	57		 push	 edi
  0001c	8d 7b 04	 lea	 edi, DWORD PTR [ebx+4]
  0001f	76 14		 jbe	 SHORT $L218243
  00021	56		 push	 esi

; 1516 : 				_Traits::copy(_Bx._Buf, _Ptr, _Newsize);

  00022	8b cd		 mov	 ecx, ebp
  00024	8b d1		 mov	 edx, ecx
  00026	c1 e9 02	 shr	 ecx, 2
  00029	8b f0		 mov	 esi, eax
  0002b	f3 a5		 rep movsd
  0002d	8b ca		 mov	 ecx, edx
  0002f	83 e1 03	 and	 ecx, 3
  00032	f3 a4		 rep movsb
  00034	5e		 pop	 esi
$L218243:

; 1517 : 			_Mybase::_Alval.deallocate(_Ptr, _Myres + 1);

  00035	50		 push	 eax
  00036	e8 00 00 00 00	 call	 ??3@YAXPAX@Z		; operator delete
  0003b	83 c4 04	 add	 esp, 4
  0003e	5f		 pop	 edi
$L218246:

; 1518 : 			}
; 1519 : 		_Myres = _BUF_SIZE - 1;
; 1520 : 		_Eos(_Newsize);

  0003f	89 6b 14	 mov	 DWORD PTR [ebx+20], ebp
  00042	c7 43 18 0f 00
	00 00		 mov	 DWORD PTR [ebx+24], 15	; 0000000fH
  00049	c6 44 2b 04 00	 mov	 BYTE PTR [ebx+ebp+4], 0
  0004e	5d		 pop	 ebp
  0004f	5b		 pop	 ebx

; 1521 : 		}

  00050	c2 08 00	 ret	 8
?_Tidy@?$basic_string@DU?$char_traits@D@std@@V?$allocator@D@2@@std@@IAEX_NI@Z ENDP ; std::basic_string<char,std::char_traits<char>,std::allocator<char> >::_Tidy
_TEXT	ENDS
PUBLIC	?erase@?$basic_string@DU?$char_traits@D@std@@V?$allocator@D@2@@std@@QAEAAV12@II@Z ; std::basic_string<char,std::char_traits<char>,std::allocator<char> >::erase
; Function compile flags: /Ogty
;	COMDAT ?erase@?$basic_string@DU?$char_traits@D@std@@V?$allocator@D@2@@std@@QAEAAV12@II@Z
_TEXT	SEGMENT
__Off$ = 8						; size = 4
__Count$ = 12						; size = 4
?erase@?$basic_string@DU?$char_traits@D@std@@V?$allocator@D@2@@std@@QAEAAV12@II@Z PROC NEAR ; std::basic_string<char,std::char_traits<char>,std::allocator<char> >::erase, COMDAT
; _this$ = ecx

; 792  : 		{	// erase elements [_Off, _Off + _Count)

  00000	55		 push	 ebp

; 793  : 		if (_Mysize < _Off)

  00001	8b 6c 24 08	 mov	 ebp, DWORD PTR __Off$[esp]
  00005	56		 push	 esi
  00006	8b f1		 mov	 esi, ecx
  00008	39 6e 14	 cmp	 DWORD PTR [esi+20], ebp
  0000b	57		 push	 edi
  0000c	73 05		 jae	 SHORT $L184993

; 794  : 			_String_base::_Xran();	// _Off off end

  0000e	e8 00 00 00 00	 call	 ?_Xran@_String_base@std@@QBEXXZ ; std::_String_base::_Xran
$L184993:

; 795  : 		if (_Mysize - _Off < _Count)

  00013	8b 46 14	 mov	 eax, DWORD PTR [esi+20]
  00016	8b 7c 24 14	 mov	 edi, DWORD PTR __Count$[esp+8]
  0001a	2b c5		 sub	 eax, ebp
  0001c	3b c7		 cmp	 eax, edi
  0001e	73 02		 jae	 SHORT $L184994

; 796  : 			_Count = _Mysize - _Off;	// trim _Count

  00020	8b f8		 mov	 edi, eax
$L184994:

; 797  : 		if (0 < _Count)

  00022	85 ff		 test	 edi, edi
  00024	76 47		 jbe	 SHORT $L218310

; 798  : 			{	// move elements down
; 799  : 			_Traits::move(_Myptr() + _Off, _Myptr() + _Off + _Count,
; 800  : 				_Mysize - _Off - _Count);

  00026	8b 4e 18	 mov	 ecx, DWORD PTR [esi+24]
  00029	83 f9 10	 cmp	 ecx, 16			; 00000010H
  0002c	53		 push	 ebx
  0002d	8d 5e 04	 lea	 ebx, DWORD PTR [esi+4]
  00030	72 04		 jb	 SHORT $L218275
  00032	8b 13		 mov	 edx, DWORD PTR [ebx]
  00034	eb 02		 jmp	 SHORT $L218276
$L218275:
  00036	8b d3		 mov	 edx, ebx
$L218276:
  00038	83 f9 10	 cmp	 ecx, 16			; 00000010H
  0003b	72 04		 jb	 SHORT $L218282
  0003d	8b 0b		 mov	 ecx, DWORD PTR [ebx]
  0003f	eb 02		 jmp	 SHORT $L218283
$L218282:
  00041	8b cb		 mov	 ecx, ebx
$L218283:
  00043	2b c7		 sub	 eax, edi

; 803  : 			}
; 804  : 		return (*this);

  00045	03 d5		 add	 edx, ebp
  00047	50		 push	 eax
  00048	03 d7		 add	 edx, edi
  0004a	52		 push	 edx
  0004b	03 cd		 add	 ecx, ebp
  0004d	51		 push	 ecx
  0004e	e8 00 00 00 00	 call	 _memmove
  00053	8b 46 14	 mov	 eax, DWORD PTR [esi+20]
  00056	8b 4e 18	 mov	 ecx, DWORD PTR [esi+24]
  00059	2b c7		 sub	 eax, edi
  0005b	83 c4 0c	 add	 esp, 12			; 0000000cH
  0005e	83 f9 10	 cmp	 ecx, 16			; 00000010H
  00061	89 46 14	 mov	 DWORD PTR [esi+20], eax
  00064	72 02		 jb	 SHORT $L218305

; 801  : 			size_type _Newsize = _Mysize - _Count;
; 802  : 			_Eos(_Newsize);

  00066	8b 1b		 mov	 ebx, DWORD PTR [ebx]
$L218305:
  00068	c6 04 03 00	 mov	 BYTE PTR [ebx+eax], 0
  0006c	5b		 pop	 ebx
$L218310:
  0006d	5f		 pop	 edi

; 803  : 			}
; 804  : 		return (*this);

  0006e	8b c6		 mov	 eax, esi
  00070	5e		 pop	 esi
  00071	5d		 pop	 ebp

; 805  : 		}

  00072	c2 08 00	 ret	 8
?erase@?$basic_string@DU?$char_traits@D@std@@V?$allocator@D@2@@std@@QAEAAV12@II@Z ENDP ; std::basic_string<char,std::char_traits<char>,std::allocator<char> >::erase
_TEXT	ENDS
PUBLIC	?_Copy@?$basic_string@DU?$char_traits@D@std@@V?$allocator@D@2@@std@@IAEXII@Z ; std::basic_string<char,std::char_traits<char>,std::allocator<char> >::_Copy
EXTRN	__except_list:DWORD
EXTRN	___CxxFrameHandler:NEAR
;	COMDAT xdata$x
; File c:\program files\microsoft visual studio .net 2003\vc7\include\iosfwd
xdata$x	SEGMENT
$T218514 DD	0ffffffffH
	DD	00H
	DD	0ffffffffH
	DD	00H
	DD	01H
	DD	00H
	DD	01H
	DD	00H
$T218516 DD	00H
	DD	00H
	DD	00H
	DD	FLAT:$L218316
$T218517 DD	00H
	DD	00H
	DD	00H
	DD	FLAT:$L218314
$T218515 DD	02H
	DD	02H
	DD	03H
	DD	01H
	DD	FLAT:$T218516
	DD	00H
	DD	00H
	DD	03H
	DD	01H
	DD	FLAT:$T218517
$T218508 DD	019930520H
	DD	04H
	DD	FLAT:$T218514
	DD	02H
	DD	FLAT:$T218515
	DD	2 DUP(00H)
; Function compile flags: /Ogty
; File c:\program files\microsoft visual studio .net 2003\vc7\include\xstring
xdata$x	ENDS
;	COMDAT ?_Copy@?$basic_string@DU?$char_traits@D@std@@V?$allocator@D@2@@std@@IAEXII@Z
_TEXT	SEGMENT
__Newres$ = -24						; size = 4
_this$ = -20						; size = 4
__$EHRec$ = -16						; size = 16
__Ptr$ = 8						; size = 4
__Newsize$ = 8						; size = 4
__Oldlen$ = 12						; size = 4
?_Copy@?$basic_string@DU?$char_traits@D@std@@V?$allocator@D@2@@std@@IAEXII@Z PROC NEAR ; std::basic_string<char,std::char_traits<char>,std::allocator<char> >::_Copy, COMDAT
; _this$ = ecx

; 1444 : 		{	// copy _Oldlen elements to newly allocated buffer

  00000	55		 push	 ebp
  00001	8b ec		 mov	 ebp, esp
  00003	6a ff		 push	 -1
  00005	68 00 00 00 00	 push	 __ehhandler$?_Copy@?$basic_string@DU?$char_traits@D@std@@V?$allocator@D@2@@std@@IAEXII@Z
  0000a	64 a1 00 00 00
	00		 mov	 eax, DWORD PTR fs:__except_list
  00010	50		 push	 eax
  00011	64 89 25 00 00
	00 00		 mov	 DWORD PTR fs:__except_list, esp
  00018	83 ec 0c	 sub	 esp, 12			; 0000000cH

; 1445 : 		size_type _Newres = _Newsize | _ALLOC_MASK;

  0001b	8b 45 08	 mov	 eax, DWORD PTR __Newsize$[ebp]
  0001e	53		 push	 ebx
  0001f	56		 push	 esi
  00020	8b d8		 mov	 ebx, eax
  00022	83 cb 0f	 or	 ebx, 15			; 0000000fH

; 1446 : 		if (max_size() < _Newres)

  00025	83 fb fe	 cmp	 ebx, -2			; fffffffeH
  00028	57		 push	 edi
  00029	8b f1		 mov	 esi, ecx
  0002b	89 65 f0	 mov	 DWORD PTR __$EHRec$[ebp], esp
  0002e	89 75 ec	 mov	 DWORD PTR _this$[ebp], esi
  00031	76 04		 jbe	 SHORT $L185550

; 1447 : 			_Newres = _Newsize;	// undo roundup if too big

  00033	8b d8		 mov	 ebx, eax

; 1448 : 		else if (_Newres / 3 < _Myres / 2

  00035	eb 22		 jmp	 SHORT $L185552
$L185550:

; 1449 : 			&& _Myres <= max_size() - _Myres / 2)

  00037	8b 7e 18	 mov	 edi, DWORD PTR [esi+24]
  0003a	b8 ab aa aa aa	 mov	 eax, -1431655765	; aaaaaaabH
  0003f	f7 e3		 mul	 ebx
  00041	8b cf		 mov	 ecx, edi
  00043	d1 e9		 shr	 ecx, 1
  00045	d1 ea		 shr	 edx, 1
  00047	3b d1		 cmp	 edx, ecx
  00049	73 0e		 jae	 SHORT $L185552
  0004b	b8 fe ff ff ff	 mov	 eax, -2			; fffffffeH
  00050	2b c1		 sub	 eax, ecx
  00052	3b f8		 cmp	 edi, eax
  00054	77 03		 ja	 SHORT $L185552

; 1450 : 			_Newres = _Myres + _Myres / 2;	// grow exponentially if possible

  00056	8d 1c 39	 lea	 ebx, DWORD PTR [ecx+edi]
$L185552:

; 1451 : 		_Elem *_Ptr;
; 1452 : 
; 1453 : 		_TRY_BEGIN
; 1454 : 			_Ptr = _Mybase::_Alval.allocate(_Newres + 1);

  00059	8d 4b 01	 lea	 ecx, DWORD PTR [ebx+1]
  0005c	51		 push	 ecx
  0005d	c7 45 fc 00 00
	00 00		 mov	 DWORD PTR __$EHRec$[ebp+12], 0
  00064	e8 00 00 00 00	 call	 ??2@YAPAXI@Z		; operator new
  00069	8b d0		 mov	 edx, eax
  0006b	83 c4 04	 add	 esp, 4
  0006e	89 55 08	 mov	 DWORD PTR __Ptr$[ebp], edx
  00071	eb 29		 jmp	 SHORT $L185554
$L218314:

; 1455 : 		_CATCH_ALL
; 1456 : 			_Newres = _Newsize;	// allocation failed, undo roundup and retry

  00073	8b 45 08	 mov	 eax, DWORD PTR __Newsize$[ebp]
  00076	89 45 e8	 mov	 DWORD PTR __Newres$[ebp], eax

; 1457 : 			_TRY_BEGIN
; 1458 : 				_Ptr = _Mybase::_Alval.allocate(_Newres + 1);

  00079	40		 inc	 eax
  0007a	89 65 f0	 mov	 DWORD PTR __$EHRec$[ebp], esp
  0007d	50		 push	 eax
  0007e	c6 45 fc 02	 mov	 BYTE PTR __$EHRec$[ebp+12], 2
  00082	e8 00 00 00 00	 call	 ??2@YAPAXI@Z		; operator new
  00087	89 45 08	 mov	 DWORD PTR __Ptr$[ebp], eax
  0008a	83 c4 04	 add	 esp, 4

; 1462 : 			_CATCH_END
; 1463 : 		_CATCH_END

  0008d	b8 00 00 00 00	 mov	 eax, $L218509
  00092	c3		 ret	 0
$L218509:
  00093	8b 5d e8	 mov	 ebx, DWORD PTR __Newres$[ebp]
  00096	8b 75 ec	 mov	 esi, DWORD PTR _this$[ebp]
  00099	8b 55 08	 mov	 edx, DWORD PTR __Ptr$[ebp]
$L185554:

; 1464 : 
; 1465 : 		if (0 < _Oldlen)

  0009c	8b 4d 0c	 mov	 ecx, DWORD PTR __Oldlen$[ebp]
  0009f	85 c9		 test	 ecx, ecx
  000a1	76 24		 jbe	 SHORT $L218434

; 1466 : 			_Traits::copy(_Ptr, _Myptr(), _Oldlen);	// copy existing elements

  000a3	83 7e 18 10	 cmp	 DWORD PTR [esi+24], 16	; 00000010H
  000a7	72 05		 jb	 SHORT $L218429
  000a9	8b 76 04	 mov	 esi, DWORD PTR [esi+4]
  000ac	eb 03		 jmp	 SHORT $L218430
$L218429:
  000ae	83 c6 04	 add	 esi, 4
$L218430:
  000b1	8b c1		 mov	 eax, ecx
  000b3	c1 e9 02	 shr	 ecx, 2
  000b6	8b fa		 mov	 edi, edx
  000b8	f3 a5		 rep movsd
  000ba	8b c8		 mov	 ecx, eax
  000bc	83 e1 03	 and	 ecx, 3
  000bf	f3 a4		 rep movsb
  000c1	8b 75 ec	 mov	 esi, DWORD PTR _this$[ebp]
  000c4	8b 4d 0c	 mov	 ecx, DWORD PTR __Oldlen$[ebp]
$L218434:

; 1467 : 		_Tidy(true);

  000c7	83 7e 18 10	 cmp	 DWORD PTR [esi+24], 16	; 00000010H
  000cb	72 12		 jb	 SHORT $L218476
  000cd	8b 4e 04	 mov	 ecx, DWORD PTR [esi+4]
  000d0	51		 push	 ecx
  000d1	e8 00 00 00 00	 call	 ??3@YAXPAX@Z		; operator delete
  000d6	8b 55 08	 mov	 edx, DWORD PTR __Ptr$[ebp]
  000d9	8b 4d 0c	 mov	 ecx, DWORD PTR __Oldlen$[ebp]
  000dc	83 c4 04	 add	 esp, 4
$L218476:

; 1468 : 		_Bx._Ptr = _Ptr;
; 1469 : 		_Myres = _Newres;
; 1470 : 		_Eos(_Oldlen);

  000df	83 fb 10	 cmp	 ebx, 16			; 00000010H
  000e2	8d 46 04	 lea	 eax, DWORD PTR [esi+4]
  000e5	c6 00 00	 mov	 BYTE PTR [eax], 0
  000e8	89 10		 mov	 DWORD PTR [eax], edx
  000ea	89 5e 18	 mov	 DWORD PTR [esi+24], ebx
  000ed	89 4e 14	 mov	 DWORD PTR [esi+20], ecx
  000f0	72 02		 jb	 SHORT $L218502
  000f2	8b c2		 mov	 eax, edx
$L218502:

; 1471 : 		}

  000f4	5f		 pop	 edi
  000f5	c6 04 08 00	 mov	 BYTE PTR [eax+ecx], 0
  000f9	8b 4d f4	 mov	 ecx, DWORD PTR __$EHRec$[ebp+4]
  000fc	5e		 pop	 esi
  000fd	64 89 0d 00 00
	00 00		 mov	 DWORD PTR fs:__except_list, ecx
  00104	5b		 pop	 ebx
  00105	8b e5		 mov	 esp, ebp
  00107	5d		 pop	 ebp
  00108	c2 08 00	 ret	 8
$L218316:

; 1459 : 			_CATCH_ALL
; 1460 : 			_Tidy(true);	// failed again, discard storage and reraise

  0010b	8b 75 ec	 mov	 esi, DWORD PTR _this$[ebp]
  0010e	83 7e 18 10	 cmp	 DWORD PTR [esi+24], 16	; 00000010H
  00112	72 0c		 jb	 SHORT $L218415
  00114	8b 56 04	 mov	 edx, DWORD PTR [esi+4]
  00117	52		 push	 edx
  00118	e8 00 00 00 00	 call	 ??3@YAXPAX@Z		; operator delete
  0011d	83 c4 04	 add	 esp, 4
$L218415:

; 1461 : 			_RERAISE;

  00120	6a 00		 push	 0
  00122	c7 46 18 0f 00
	00 00		 mov	 DWORD PTR [esi+24], 15	; 0000000fH
  00129	c7 46 14 00 00
	00 00		 mov	 DWORD PTR [esi+20], 0
  00130	6a 00		 push	 0
  00132	c6 46 04 00	 mov	 BYTE PTR [esi+4], 0
  00136	e8 00 00 00 00	 call	 __CxxThrowException@8
$L218513:
  0013b	cc		 int	 3
_TEXT	ENDS
;	COMDAT text$x
text$x	SEGMENT
__ehhandler$?_Copy@?$basic_string@DU?$char_traits@D@std@@V?$allocator@D@2@@std@@IAEXII@Z:
  00000	b8 00 00 00 00	 mov	 eax, OFFSET FLAT:$T218508
  00005	e9 00 00 00 00	 jmp	 ___CxxFrameHandler
text$x	ENDS
?_Copy@?$basic_string@DU?$char_traits@D@std@@V?$allocator@D@2@@std@@IAEXII@Z ENDP ; std::basic_string<char,std::char_traits<char>,std::allocator<char> >::_Copy
PUBLIC	?end@?$list@PAXV?$allocator@PAX@std@@@std@@QAE?AViterator@12@XZ ; std::list<void *,std::allocator<void *> >::end
; Function compile flags: /Ogty
; File c:\program files\microsoft visual studio .net 2003\vc7\include\list
;	COMDAT ?end@?$list@PAXV?$allocator@PAX@std@@@std@@QAE?AViterator@12@XZ
_TEXT	SEGMENT
___$ReturnUdt$ = 8					; size = 4
?end@?$list@PAXV?$allocator@PAX@std@@@std@@QAE?AViterator@12@XZ PROC NEAR ; std::list<void *,std::allocator<void *> >::end, COMDAT
; _this$ = ecx

; 387  : 		return (iterator(_Myhead));

  00000	8b 49 04	 mov	 ecx, DWORD PTR [ecx+4]
  00003	8b 44 24 04	 mov	 eax, DWORD PTR ___$ReturnUdt$[esp-4]
  00007	89 08		 mov	 DWORD PTR [eax], ecx

; 388  : 		}

  00009	c2 04 00	 ret	 4
?end@?$list@PAXV?$allocator@PAX@std@@@std@@QAE?AViterator@12@XZ ENDP ; std::list<void *,std::allocator<void *> >::end
_TEXT	ENDS
PUBLIC	??$?MDU?$char_traits@D@std@@V?$allocator@D@1@@std@@YA_NABV?$basic_string@DU?$char_traits@D@std@@V?$allocator@D@2@@0@0@Z ; std::operator<<char,std::char_traits<char>,std::allocator<char> >
; Function compile flags: /Ogty
; File c:\documents and settings\test\mes documents\source\virtuos_v17\build\program\dx_sdk\string
;	COMDAT ??$?MDU?$char_traits@D@std@@V?$allocator@D@1@@std@@YA_NABV?$basic_string@DU?$char_traits@D@std@@V?$allocator@D@2@@0@0@Z
_TEXT	SEGMENT
__Left$ = 8						; size = 4
__Right$ = 12						; size = 4
??$?MDU?$char_traits@D@std@@V?$allocator@D@1@@std@@YA_NABV?$basic_string@DU?$char_traits@D@std@@V?$allocator@D@2@@0@0@Z PROC NEAR ; std::operator<<char,std::char_traits<char>,std::allocator<char> >, COMDAT

; 132  : 	return (_Left.compare(_Right) < 0);

  00000	8b 44 24 08	 mov	 eax, DWORD PTR __Right$[esp-4]
  00004	83 78 18 10	 cmp	 DWORD PTR [eax+24], 16	; 00000010H
  00008	8b 48 14	 mov	 ecx, DWORD PTR [eax+20]
  0000b	72 05		 jb	 SHORT $L218550
  0000d	8b 40 04	 mov	 eax, DWORD PTR [eax+4]
  00010	eb 03		 jmp	 SHORT $L218551
$L218550:
  00012	83 c0 04	 add	 eax, 4
$L218551:
  00015	51		 push	 ecx
  00016	8b 4c 24 08	 mov	 ecx, DWORD PTR __Left$[esp]
  0001a	50		 push	 eax
  0001b	8b 41 14	 mov	 eax, DWORD PTR [ecx+20]
  0001e	50		 push	 eax
  0001f	6a 00		 push	 0
  00021	e8 00 00 00 00	 call	 ?compare@?$basic_string@DU?$char_traits@D@std@@V?$allocator@D@2@@std@@QBEHIIPBDI@Z ; std::basic_string<char,std::char_traits<char>,std::allocator<char> >::compare
  00026	33 c9		 xor	 ecx, ecx
  00028	85 c0		 test	 eax, eax
  0002a	0f 9c c1	 setl	 cl
  0002d	8a c1		 mov	 al, cl

; 133  : 	}

  0002f	c3		 ret	 0
??$?MDU?$char_traits@D@std@@V?$allocator@D@1@@std@@YA_NABV?$basic_string@DU?$char_traits@D@std@@V?$allocator@D@2@@0@0@Z ENDP ; std::operator<<char,std::char_traits<char>,std::allocator<char> >
_TEXT	ENDS
PUBLIC	?Script@@YAHPBD@Z				; Script
PUBLIC	??_C@_0P@LOHDAGAN@ResourceFolder?$AA@		; `string'
PUBLIC	??_C@_0BF@HNCPIIMN@Folder?5not?5found?0?5?$CFs?$AA@ ; `string'
PUBLIC	??_C@_06DJIHEMFI@status?$AA@			; `string'
PUBLIC	??_C@_03FIDBPJEF@Sys?$AA@			; `string'
PUBLIC	??_C@_04NNFNFJKG@dwId?$AA@			; `string'
PUBLIC	??_C@_07FENCDID@Account?$AA@			; `string'
PUBLIC	??_C@_0BD@MHKJENCN@DSN_NAME_CHARACTER?$AA@	; `string'
PUBLIC	??_C@_0BG@HLPNCKNG@DB_ADMIN_ID_CHARACTER?$AA@	; `string'
PUBLIC	??_C@_0N@CMCKBMLA@DSN_NAME_LOG?$AA@		; `string'
PUBLIC	??_C@_0BA@KGJHOKPM@DB_ADMIN_ID_LOG?$AA@		; `string'
PUBLIC	??_C@_0BE@GBLGMHPJ@DSN_NAME_BACKSYSTEM?$AA@	; `string'
PUBLIC	??_C@_0BH@ELGFLIAK@DB_ADMIN_ID_BACKSYSTEM?$AA@	; `string'
PUBLIC	??_C@_0O@KOOOCHBP@BACKENDSYSTEM?$AA@		; `string'
PUBLIC	??_C@_0BE@BCIALBJO@DSN_NAME_ITEMUPDATE?$AA@	; `string'
PUBLIC	??_C@_0BH@DIFDMOGN@DB_ADMIN_ID_ITEMUPDATE?$AA@	; `string'
PUBLIC	??_C@_0L@LKBMOMCF@ITEMUPDATE?$AA@		; `string'
PUBLIC	??_C@_0O@MKHDOMGP@ConvStartItem?$AA@		; `string'
PUBLIC	??_C@_09CCDMIBGH@SAVE_TEXT?$AA@			; `string'
PUBLIC	??_C@_0BA@EPDGNAAI@REMOVE_ITEM_ALL?$AA@		; `string'
PUBLIC	??_C@_0BE@EMCNIGPJ@REMOVE_ITEM_ALL_PAY?$AA@	; `string'
PUBLIC	??_C@_0BB@HDGGMKPA@PIERCING_CONFIRM?$AA@	; `string'
PUBLIC	??_C@_0BC@KCBPOKMH@BankToItemSendTbl?$AA@	; `string'
PUBLIC	??_C@_0BH@BEBEMMJA@InventoryToItemSendTbl?$AA@	; `string'
PUBLIC	??_C@_0BC@EDCGHAPB@__ITEM_REMOVE0203?$AA@	; `string'
PUBLIC	??_C@_0BE@DOEKBAIP@REMOVE_INVALID_ITEM?$AA@	; `string'
PUBLIC	??_C@_0L@ENKPLNGB@DB_PWD_LOG?$AA@		; `string'
PUBLIC	??_C@_0BB@MABONDJP@DB_PWD_CHARACTER?$AA@	; `string'
PUBLIC	??_C@_0P@NMDCKAML@DB_PWD_BACKEND?$AA@		; `string'
PUBLIC	??_C@_0BC@DHOINEKA@DB_PWD_ITEMUPDATE?$AA@	; `string'
PUBLIC	??_C@_07PMFDBAGJ@ITEM_ID?$AA@			; `string'
PUBLIC	??_C@_0M@EMECFGFM@RESTORE_PET?$AA@		; `string'
PUBLIC	??_C@_0N@NNJOKFBG@REMOVE_QUEST?$AA@		; `string'
PUBLIC	??_C@_0P@LPNJPKHP@masquerade?4prj?$AA@		; `string'
PUBLIC	??_C@_0BF@NHLHHCKP@Fail?5to?5open?5project?$AA@	; `string'
PUBLIC	??_C@_0BG@DBHAGMCH@BankToItemSendTbl?4txt?$AA@	; `string'
PUBLIC	??_C@_0BL@JKJMKOBM@InventoryToItemSendTbl?4txt?$AA@ ; `string'
PUBLIC	??_C@_0P@CNCAIPIG@ItemRemove?4txt?$AA@		; `string'
PUBLIC	??_C@_08PIDMBOPH@conv?4txt?$AA@			; `string'
PUBLIC	??_C@_0P@OHOOLBKB@restorepet?4txt?$AA@		; `string'
PUBLIC	??_C@_0BF@FNEPOGMA@end?5?9?5restorepet?4txt?$AA@ ; `string'
PUBLIC	??_C@_05GMBADOLI@Ready?$AA@			; `string'
PUBLIC	??_C@_0BG@MNCFBEJM@Fail?5to?5open?5file?0?5?$CFs?$AA@ ; `string'
EXTRN	?SetConvMode@CProject@@QAEXK@Z:NEAR		; CProject::SetConvMode
EXTRN	__imp__OutputDebugStringA@4:NEAR
EXTRN	??0CScanner@@QAE@H@Z:NEAR			; CScanner::CScanner
EXTRN	??1CScanner@@UAE@XZ:NEAR			; CScanner::~CScanner
EXTRN	?GetToken@CScanner@@UAEHH@Z:NEAR		; CScanner::GetToken
EXTRN	?Load@CScanner@@QAEHPBDH@Z:NEAR			; CScanner::Load
EXTRN	?GetNumber@CScanner@@QAEHH@Z:NEAR		; CScanner::GetNumber
EXTRN	?Add@CMyTrace@@QAAXKHPBDZZ:NEAR			; CMyTrace::Add
EXTRN	?Key@CMyTrace@@SAKPBD@Z:NEAR			; CMyTrace::Key
EXTRN	?GetPWDFromToken@@YAHPBDPAD@Z:NEAR		; GetPWDFromToken
EXTRN	__imp__SetCurrentDirectoryA@4:NEAR
EXTRN	?GetInstance@CDbManager@@SAAAV1@XZ:NEAR		; CDbManager::GetInstance
EXTRN	?RemoveQuest@CDbManager@@QAEHXZ:NEAR		; CDbManager::RemoveQuest
EXTRN	?g_MyTrace@@3VCMyTrace@@A:BYTE			; g_MyTrace
EXTRN	?g_DbManager@@3AAVCDbManager@@A:DWORD		; g_DbManager
EXTRN	?DSN_NAME_CHARACTER01@@3PADA:BYTE		; DSN_NAME_CHARACTER01
EXTRN	?DB_ADMIN_ID_CHARACTER01@@3PADA:BYTE		; DB_ADMIN_ID_CHARACTER01
EXTRN	?DSN_NAME_LOG@@3PADA:BYTE			; DSN_NAME_LOG
EXTRN	?DB_ADMIN_ID_LOG@@3PADA:BYTE			; DB_ADMIN_ID_LOG
EXTRN	?DSN_NAME_BACKSYSTEM@@3PADA:BYTE		; DSN_NAME_BACKSYSTEM
EXTRN	?DB_ADMIN_ID_BACKSYSTEM@@3PADA:BYTE		; DB_ADMIN_ID_BACKSYSTEM
EXTRN	?DSN_NAME_ITEMUPDATE@@3PADA:BYTE		; DSN_NAME_ITEMUPDATE
EXTRN	?DB_ADMIN_ID_ITEMUPDATE@@3PADA:BYTE		; DB_ADMIN_ID_ITEMUPDATE
EXTRN	?BankToItemSendTbl@CDbManager@@QAEHPBD@Z:NEAR	; CDbManager::BankToItemSendTbl
EXTRN	?InventoryToItemSendTbl@CDbManager@@QAEHPBD@Z:NEAR ; CDbManager::InventoryToItemSendTbl
EXTRN	?ItemRemove0203@CDbManager@@QAEHPBD@Z:NEAR	; CDbManager::ItemRemove0203
EXTRN	?RemoveInvalidItem@CDbManager@@QAEHXZ:NEAR	; CDbManager::RemoveInvalidItem
EXTRN	?Conv@CDbManager@@QAEHPBD@Z:NEAR		; CDbManager::Conv
EXTRN	?RestorePet@CDbManager@@QAEHPBD@Z:NEAR		; CDbManager::RestorePet
EXTRN	?g_appInfo@@3UAppInfo@@A:QWORD			; g_appInfo
EXTRN	?prj@@3VCProject@@A:BYTE			; prj
EXTRN	?OpenProject@CProject@@QAEHPBD@Z:NEAR		; CProject::OpenProject
;	COMDAT xdata$x
; File c:\program files\microsoft visual studio .net 2003\vc7\atlmfc\include\atlsimpstr.h
xdata$x	SEGMENT
$T218823 DD	0ffffffffH
	DD	FLAT:$L218576
$T218805 DD	019930520H
	DD	01H
	DD	FLAT:$T218823
	DD	2 DUP(00H)
	DD	2 DUP(00H)
xdata$x	ENDS
;	COMDAT ??_C@_0P@LOHDAGAN@ResourceFolder?$AA@
CONST	SEGMENT
??_C@_0P@LOHDAGAN@ResourceFolder?$AA@ DB 'ResourceFolder', 00H ; `string'
CONST	ENDS
;	COMDAT ??_C@_0BF@HNCPIIMN@Folder?5not?5found?0?5?$CFs?$AA@
CONST	SEGMENT
??_C@_0BF@HNCPIIMN@Folder?5not?5found?0?5?$CFs?$AA@ DB 'Folder not found,'
	DB	' %s', 00H					; `string'
CONST	ENDS
;	COMDAT ??_C@_03FIDBPJEF@Sys?$AA@
CONST	SEGMENT
??_C@_03FIDBPJEF@Sys?$AA@ DB 'Sys', 00H			; `string'
CONST	ENDS
;	COMDAT ??_C@_04NNFNFJKG@dwId?$AA@
CONST	SEGMENT
??_C@_04NNFNFJKG@dwId?$AA@ DB 'dwId', 00H		; `string'
CONST	ENDS
;	COMDAT ??_C@_07FENCDID@Account?$AA@
CONST	SEGMENT
??_C@_07FENCDID@Account?$AA@ DB 'Account', 00H		; `string'
CONST	ENDS
;	COMDAT ??_C@_0BD@MHKJENCN@DSN_NAME_CHARACTER?$AA@
CONST	SEGMENT
??_C@_0BD@MHKJENCN@DSN_NAME_CHARACTER?$AA@ DB 'DSN_NAME_CHARACTER', 00H ; `string'
CONST	ENDS
;	COMDAT ??_C@_0BG@HLPNCKNG@DB_ADMIN_ID_CHARACTER?$AA@
CONST	SEGMENT
??_C@_0BG@HLPNCKNG@DB_ADMIN_ID_CHARACTER?$AA@ DB 'DB_ADMIN_ID_CHARACTER', 00H ; `string'
CONST	ENDS
;	COMDAT ??_C@_0N@CMCKBMLA@DSN_NAME_LOG?$AA@
CONST	SEGMENT
??_C@_0N@CMCKBMLA@DSN_NAME_LOG?$AA@ DB 'DSN_NAME_LOG', 00H ; `string'
CONST	ENDS
;	COMDAT ??_C@_0BA@KGJHOKPM@DB_ADMIN_ID_LOG?$AA@
CONST	SEGMENT
??_C@_0BA@KGJHOKPM@DB_ADMIN_ID_LOG?$AA@ DB 'DB_ADMIN_ID_LOG', 00H ; `string'
CONST	ENDS
;	COMDAT ??_C@_0BE@GBLGMHPJ@DSN_NAME_BACKSYSTEM?$AA@
CONST	SEGMENT
??_C@_0BE@GBLGMHPJ@DSN_NAME_BACKSYSTEM?$AA@ DB 'DSN_NAME_BACKSYSTEM', 00H ; `string'
CONST	ENDS
;	COMDAT ??_C@_0BH@ELGFLIAK@DB_ADMIN_ID_BACKSYSTEM?$AA@
CONST	SEGMENT
??_C@_0BH@ELGFLIAK@DB_ADMIN_ID_BACKSYSTEM?$AA@ DB 'DB_ADMIN_ID_BACKSYSTEM'
	DB	00H						; `string'
CONST	ENDS
;	COMDAT ??_C@_0O@KOOOCHBP@BACKENDSYSTEM?$AA@
CONST	SEGMENT
??_C@_0O@KOOOCHBP@BACKENDSYSTEM?$AA@ DB 'BACKENDSYSTEM', 00H ; `string'
CONST	ENDS
;	COMDAT ??_C@_0BE@BCIALBJO@DSN_NAME_ITEMUPDATE?$AA@
CONST	SEGMENT
??_C@_0BE@BCIALBJO@DSN_NAME_ITEMUPDATE?$AA@ DB 'DSN_NAME_ITEMUPDATE', 00H ; `string'
CONST	ENDS
;	COMDAT ??_C@_0BH@DIFDMOGN@DB_ADMIN_ID_ITEMUPDATE?$AA@
CONST	SEGMENT
??_C@_0BH@DIFDMOGN@DB_ADMIN_ID_ITEMUPDATE?$AA@ DB 'DB_ADMIN_ID_ITEMUPDATE'
	DB	00H						; `string'
CONST	ENDS
;	COMDAT ??_C@_0L@LKBMOMCF@ITEMUPDATE?$AA@
CONST	SEGMENT
??_C@_0L@LKBMOMCF@ITEMUPDATE?$AA@ DB 'ITEMUPDATE', 00H	; `string'
CONST	ENDS
;	COMDAT ??_C@_0O@MKHDOMGP@ConvStartItem?$AA@
CONST	SEGMENT
??_C@_0O@MKHDOMGP@ConvStartItem?$AA@ DB 'ConvStartItem', 00H ; `string'
CONST	ENDS
;	COMDAT ??_C@_09CCDMIBGH@SAVE_TEXT?$AA@
CONST	SEGMENT
??_C@_09CCDMIBGH@SAVE_TEXT?$AA@ DB 'SAVE_TEXT', 00H	; `string'
CONST	ENDS
;	COMDAT ??_C@_0BA@EPDGNAAI@REMOVE_ITEM_ALL?$AA@
CONST	SEGMENT
??_C@_0BA@EPDGNAAI@REMOVE_ITEM_ALL?$AA@ DB 'REMOVE_ITEM_ALL', 00H ; `string'
CONST	ENDS
;	COMDAT ??_C@_0BE@EMCNIGPJ@REMOVE_ITEM_ALL_PAY?$AA@
CONST	SEGMENT
??_C@_0BE@EMCNIGPJ@REMOVE_ITEM_ALL_PAY?$AA@ DB 'REMOVE_ITEM_ALL_PAY', 00H ; `string'
CONST	ENDS
;	COMDAT ??_C@_0BB@HDGGMKPA@PIERCING_CONFIRM?$AA@
CONST	SEGMENT
??_C@_0BB@HDGGMKPA@PIERCING_CONFIRM?$AA@ DB 'PIERCING_CONFIRM', 00H ; `string'
CONST	ENDS
;	COMDAT ??_C@_0BC@KCBPOKMH@BankToItemSendTbl?$AA@
CONST	SEGMENT
??_C@_0BC@KCBPOKMH@BankToItemSendTbl?$AA@ DB 'BankToItemSendTbl', 00H ; `string'
CONST	ENDS
;	COMDAT ??_C@_0BH@BEBEMMJA@InventoryToItemSendTbl?$AA@
CONST	SEGMENT
??_C@_0BH@BEBEMMJA@InventoryToItemSendTbl?$AA@ DB 'InventoryToItemSendTbl'
	DB	00H						; `string'
CONST	ENDS
;	COMDAT ??_C@_0BC@EDCGHAPB@__ITEM_REMOVE0203?$AA@
CONST	SEGMENT
??_C@_0BC@EDCGHAPB@__ITEM_REMOVE0203?$AA@ DB '__ITEM_REMOVE0203', 00H ; `string'
CONST	ENDS
;	COMDAT ??_C@_0BE@DOEKBAIP@REMOVE_INVALID_ITEM?$AA@
CONST	SEGMENT
??_C@_0BE@DOEKBAIP@REMOVE_INVALID_ITEM?$AA@ DB 'REMOVE_INVALID_ITEM', 00H ; `string'
CONST	ENDS
;	COMDAT ??_C@_0L@ENKPLNGB@DB_PWD_LOG?$AA@
CONST	SEGMENT
??_C@_0L@ENKPLNGB@DB_PWD_LOG?$AA@ DB 'DB_PWD_LOG', 00H	; `string'
CONST	ENDS
;	COMDAT ??_C@_0BB@MABONDJP@DB_PWD_CHARACTER?$AA@
CONST	SEGMENT
??_C@_0BB@MABONDJP@DB_PWD_CHARACTER?$AA@ DB 'DB_PWD_CHARACTER', 00H ; `string'
CONST	ENDS
;	COMDAT ??_C@_0P@NMDCKAML@DB_PWD_BACKEND?$AA@
CONST	SEGMENT
??_C@_0P@NMDCKAML@DB_PWD_BACKEND?$AA@ DB 'DB_PWD_BACKEND', 00H ; `string'
CONST	ENDS
;	COMDAT ??_C@_0BC@DHOINEKA@DB_PWD_ITEMUPDATE?$AA@
CONST	SEGMENT
??_C@_0BC@DHOINEKA@DB_PWD_ITEMUPDATE?$AA@ DB 'DB_PWD_ITEMUPDATE', 00H ; `string'
CONST	ENDS
;	COMDAT ??_C@_07PMFDBAGJ@ITEM_ID?$AA@
CONST	SEGMENT
??_C@_07PMFDBAGJ@ITEM_ID?$AA@ DB 'ITEM_ID', 00H		; `string'
CONST	ENDS
;	COMDAT ??_C@_0M@EMECFGFM@RESTORE_PET?$AA@
CONST	SEGMENT
??_C@_0M@EMECFGFM@RESTORE_PET?$AA@ DB 'RESTORE_PET', 00H ; `string'
CONST	ENDS
;	COMDAT ??_C@_0N@NNJOKFBG@REMOVE_QUEST?$AA@
CONST	SEGMENT
??_C@_0N@NNJOKFBG@REMOVE_QUEST?$AA@ DB 'REMOVE_QUEST', 00H ; `string'
CONST	ENDS
;	COMDAT ??_C@_0P@LPNJPKHP@masquerade?4prj?$AA@
CONST	SEGMENT
??_C@_0P@LPNJPKHP@masquerade?4prj?$AA@ DB 'masquerade.prj', 00H ; `string'
CONST	ENDS
;	COMDAT ??_C@_0BF@NHLHHCKP@Fail?5to?5open?5project?$AA@
CONST	SEGMENT
??_C@_0BF@NHLHHCKP@Fail?5to?5open?5project?$AA@ DB 'Fail to open project', 00H ; `string'
CONST	ENDS
;	COMDAT ??_C@_06DJIHEMFI@status?$AA@
CONST	SEGMENT
??_C@_06DJIHEMFI@status?$AA@ DB 'status', 00H		; `string'
CONST	ENDS
;	COMDAT ??_C@_0BG@DBHAGMCH@BankToItemSendTbl?4txt?$AA@
CONST	SEGMENT
??_C@_0BG@DBHAGMCH@BankToItemSendTbl?4txt?$AA@ DB 'BankToItemSendTbl.txt', 00H ; `string'
CONST	ENDS
;	COMDAT ??_C@_0BL@JKJMKOBM@InventoryToItemSendTbl?4txt?$AA@
CONST	SEGMENT
??_C@_0BL@JKJMKOBM@InventoryToItemSendTbl?4txt?$AA@ DB 'InventoryToItemSe'
	DB	'ndTbl.txt', 00H				; `string'
CONST	ENDS
;	COMDAT ??_C@_0P@CNCAIPIG@ItemRemove?4txt?$AA@
CONST	SEGMENT
??_C@_0P@CNCAIPIG@ItemRemove?4txt?$AA@ DB 'ItemRemove.txt', 00H ; `string'
CONST	ENDS
;	COMDAT ??_C@_08PIDMBOPH@conv?4txt?$AA@
CONST	SEGMENT
??_C@_08PIDMBOPH@conv?4txt?$AA@ DB 'conv.txt', 00H	; `string'
CONST	ENDS
;	COMDAT ??_C@_0P@OHOOLBKB@restorepet?4txt?$AA@
CONST	SEGMENT
??_C@_0P@OHOOLBKB@restorepet?4txt?$AA@ DB 'restorepet.txt', 00H ; `string'
CONST	ENDS
;	COMDAT ??_C@_0BF@FNEPOGMA@end?5?9?5restorepet?4txt?$AA@
CONST	SEGMENT
??_C@_0BF@FNEPOGMA@end?5?9?5restorepet?4txt?$AA@ DB 'end - restorepet.txt'
	DB	00H						; `string'
CONST	ENDS
;	COMDAT ??_C@_05GMBADOLI@Ready?$AA@
CONST	SEGMENT
??_C@_05GMBADOLI@Ready?$AA@ DB 'Ready', 00H		; `string'
CONST	ENDS
;	COMDAT ??_C@_0BG@MNCFBEJM@Fail?5to?5open?5file?0?5?$CFs?$AA@
CONST	SEGMENT
??_C@_0BG@MNCFBEJM@Fail?5to?5open?5file?0?5?$CFs?$AA@ DB 'Fail to open fi'
	DB	'le, %s', 00H				; `string'
; Function compile flags: /Ogty
; File c:\documents and settings\test\mes documents\source\virtuos_v17\build\program\databaseserver\databaseserver.cpp
CONST	ENDS
;	COMDAT ?Script@@YAHPBD@Z
_TEXT	SEGMENT
_bToolRestorePet$ = -2140				; size = 4
_bToolRemoveQuest$ = -2136				; size = 4
_bToolItemId$ = -2132					; size = 4
_s$ = -2128						; size = 2112
__$ArrayPad$ = -16					; size = 4
__$EHRec$ = -12						; size = 12
__$ReturnAddr$ = 4					; size = 4
_lpszFileName$ = 8					; size = 4
?Script@@YAHPBD@Z PROC NEAR				; Script, COMDAT

; 616  : {

  00000	6a ff		 push	 -1
  00002	68 00 00 00 00	 push	 __ehhandler$?Script@@YAHPBD@Z
  00007	64 a1 00 00 00
	00		 mov	 eax, DWORD PTR fs:__except_list
  0000d	50		 push	 eax
  0000e	64 89 25 00 00
	00 00		 mov	 DWORD PTR fs:__except_list, esp
  00015	81 ec 50 08 00
	00		 sub	 esp, 2128		; 00000850H
  0001b	a1 00 00 00 00	 mov	 eax, DWORD PTR ___security_cookie
  00020	33 c4		 xor	 eax, esp
  00022	53		 push	 ebx
  00023	55		 push	 ebp
  00024	56		 push	 esi
  00025	8b b4 24 6c 08
	00 00		 mov	 esi, DWORD PTR _lpszFileName$[esp+2148]
  0002c	57		 push	 edi
  0002d	89 84 24 5c 08
	00 00		 mov	 DWORD PTR __$ArrayPad$[esp+2156], eax

; 617  : 	CDbManager& db = CDbManager::GetInstance();

  00034	e8 00 00 00 00	 call	 ?GetInstance@CDbManager@@SAAAV1@XZ ; CDbManager::GetInstance

; 618  : #ifdef __INTERNALSERVER
; 619  : 	strcpy( db.DB_ADMIN_PASS_LOG, "#^#^log" );	
; 620  : 	strcpy( db.DB_ADMIN_PASS_CHARACTER01, "#^#^character");	
; 621  : 	strcpy( db.DB_ADMIN_PASS_BACKSYSTEM, "!@!@backend" );	
; 622  : 	strcpy( db.DB_ADMIN_PASS_ITEMUPDATE, "#^#^item" ); 
; 623  : #endif
; 624  : 	BOOL	bToolRemoveQuest	= FALSE;

  00039	33 db		 xor	 ebx, ebx

; 625  : 	BOOL	bToolItemId		= FALSE;
; 626  : 	BOOL	bToolRestorePet	= FALSE;
; 627  : 	CScanner s;

  0003b	53		 push	 ebx
  0003c	8d 4c 24 20	 lea	 ecx, DWORD PTR _s$[esp+2160]
  00040	8b f8		 mov	 edi, eax
  00042	89 5c 24 18	 mov	 DWORD PTR _bToolRemoveQuest$[esp+2160], ebx
  00046	89 5c 24 1c	 mov	 DWORD PTR _bToolItemId$[esp+2160], ebx
  0004a	89 5c 24 14	 mov	 DWORD PTR _bToolRestorePet$[esp+2160], ebx
  0004e	e8 00 00 00 00	 call	 ??0CScanner@@QAE@H@Z	; CScanner::CScanner

; 628  : 
; 629  : 	if( s.Load( lpszFileName ) )

  00053	bd 01 00 00 00	 mov	 ebp, 1
  00058	55		 push	 ebp
  00059	56		 push	 esi
  0005a	8d 4c 24 24	 lea	 ecx, DWORD PTR _s$[esp+2164]
  0005e	89 9c 24 70 08
	00 00		 mov	 DWORD PTR __$EHRec$[esp+2172], ebx
  00065	e8 00 00 00 00	 call	 ?Load@CScanner@@QAEHPBDH@Z ; CScanner::Load
  0006a	85 c0		 test	 eax, eax
  0006c	0f 84 05 07 00
	00		 je	 $L213467

; 630  : 	{
; 631  : 		s.GetToken();

  00072	53		 push	 ebx
  00073	8d 4c 24 20	 lea	 ecx, DWORD PTR _s$[esp+2160]
  00077	e8 00 00 00 00	 call	 ?GetToken@CScanner@@UAEHH@Z ; CScanner::GetToken

; 632  : 		while( s.tok != FINISHED )

  0007c	83 bc 24 48 08
	00 00 15	 cmp	 DWORD PTR _s$[esp+4248], 21 ; 00000015H
  00084	8b 35 00 00 00
	00		 mov	 esi, DWORD PTR __imp__OutputDebugStringA@4
  0008a	0f 84 b9 05 00
	00		 je	 $L213364
  00090	8b 1d 00 00 00
	00		 mov	 ebx, DWORD PTR __imp__SetCurrentDirectoryA@4
$L213363:

; 633  : 		{
; 634  : 			if( s.Token == "ResourceFolder" )

  00096	8b 44 24 3c	 mov	 eax, DWORD PTR _s$[esp+2188]
  0009a	68 00 00 00 00	 push	 OFFSET FLAT:??_C@_0P@LOHDAGAN@ResourceFolder?$AA@
  0009f	50		 push	 eax
  000a0	e8 00 00 00 00	 call	 __mbscmp
  000a5	83 c4 08	 add	 esp, 8
  000a8	85 c0		 test	 eax, eax
  000aa	75 2a		 jne	 SHORT $L213365

; 635  : 			{
; 636  : 				s.GetToken();

  000ac	50		 push	 eax
  000ad	8d 4c 24 20	 lea	 ecx, DWORD PTR _s$[esp+2160]
  000b1	e8 00 00 00 00	 call	 ?GetToken@CScanner@@UAEHH@Z ; CScanner::GetToken

; 637  : 				if( !SetCurrentDirectory( s.Token ) )

  000b6	8b 4c 24 3c	 mov	 ecx, DWORD PTR _s$[esp+2188]
  000ba	51		 push	 ecx
  000bb	ff d3		 call	 ebx
  000bd	85 c0		 test	 eax, eax
  000bf	0f 85 69 05 00
	00		 jne	 $L213461

; 638  : 				{
; 639  : 					g_MyTrace.Add( CMyTrace::Key( "status" ), FALSE, "Folder not found, %s", s.Token );

  000c5	8b 44 24 3c	 mov	 eax, DWORD PTR _s$[esp+2188]
  000c9	50		 push	 eax
  000ca	68 00 00 00 00	 push	 OFFSET FLAT:??_C@_0BF@HNCPIIMN@Folder?5not?5found?0?5?$CFs?$AA@
  000cf	6a 00		 push	 0

; 640  : 					return FALSE;

  000d1	e9 a8 06 00 00	 jmp	 $L218821
$L213365:

; 641  : 				}
; 642  : 			}
; 643  : 			else if( s.Token == "Sys" )

  000d6	8b 54 24 3c	 mov	 edx, DWORD PTR _s$[esp+2188]
  000da	68 00 00 00 00	 push	 OFFSET FLAT:??_C@_03FIDBPJEF@Sys?$AA@
  000df	52		 push	 edx
  000e0	e8 00 00 00 00	 call	 __mbscmp
  000e5	83 c4 08	 add	 esp, 8
  000e8	85 c0		 test	 eax, eax
  000ea	75 14		 jne	 SHORT $L213372

; 644  : 			{
; 645  : 				g_appInfo.dwSys		= s.GetNumber();

  000ec	50		 push	 eax
  000ed	8d 4c 24 20	 lea	 ecx, DWORD PTR _s$[esp+2160]
  000f1	e8 00 00 00 00	 call	 ?GetNumber@CScanner@@QAEHH@Z ; CScanner::GetNumber
  000f6	a3 00 00 00 00	 mov	 DWORD PTR ?g_appInfo@@3UAppInfo@@A, eax

; 646  : 			}
; 647  : 			else if( s.Token ==  "dwId" )

  000fb	e9 2e 05 00 00	 jmp	 $L213461
$L213372:
  00100	8b 44 24 3c	 mov	 eax, DWORD PTR _s$[esp+2188]
  00104	68 00 00 00 00	 push	 OFFSET FLAT:??_C@_04NNFNFJKG@dwId?$AA@
  00109	50		 push	 eax
  0010a	e8 00 00 00 00	 call	 __mbscmp
  0010f	83 c4 08	 add	 esp, 8
  00112	85 c0		 test	 eax, eax
  00114	75 14		 jne	 SHORT $L213375

; 648  : 			{
; 649  : 				g_appInfo.dwId		= s.GetNumber();

  00116	50		 push	 eax
  00117	8d 4c 24 20	 lea	 ecx, DWORD PTR _s$[esp+2160]
  0011b	e8 00 00 00 00	 call	 ?GetNumber@CScanner@@QAEHH@Z ; CScanner::GetNumber
  00120	a3 04 00 00 00	 mov	 DWORD PTR ?g_appInfo@@3UAppInfo@@A+4, eax

; 650  : 			}
; 651  : 			else if( s.Token == "Account" )

  00125	e9 04 05 00 00	 jmp	 $L213461
$L213375:
  0012a	8b 4c 24 3c	 mov	 ecx, DWORD PTR _s$[esp+2188]
  0012e	68 00 00 00 00	 push	 OFFSET FLAT:??_C@_07FENCDID@Account?$AA@
  00133	51		 push	 ecx
  00134	e8 00 00 00 00	 call	 __mbscmp
  00139	83 c4 08	 add	 esp, 8
  0013c	85 c0		 test	 eax, eax
  0013e	75 24		 jne	 SHORT $L213378

; 652  : 			{
; 653  : 				s.GetToken();

  00140	50		 push	 eax
  00141	8d 4c 24 20	 lea	 ecx, DWORD PTR _s$[esp+2160]
  00145	e8 00 00 00 00	 call	 ?GetToken@CScanner@@UAEHH@Z ; CScanner::GetToken

; 654  : 				strcpy( lpConnection, s.Token );

  0014a	8b 44 24 3c	 mov	 eax, DWORD PTR _s$[esp+2188]
  0014e	ba 00 00 00 00	 mov	 edx, OFFSET FLAT:?lpConnection@@3PADA ; lpConnection
  00153	2b d0		 sub	 edx, eax
$L218557:
  00155	8a 08		 mov	 cl, BYTE PTR [eax]
  00157	88 0c 02	 mov	 BYTE PTR [edx+eax], cl
  0015a	40		 inc	 eax
  0015b	84 c9		 test	 cl, cl
  0015d	75 f6		 jne	 SHORT $L218557

; 655  : 			}
; 656  : 			else if( s.Token == "DSN_NAME_CHARACTER" )

  0015f	e9 ca 04 00 00	 jmp	 $L213461
$L213378:
  00164	8b 54 24 3c	 mov	 edx, DWORD PTR _s$[esp+2188]
  00168	68 00 00 00 00	 push	 OFFSET FLAT:??_C@_0BD@MHKJENCN@DSN_NAME_CHARACTER?$AA@
  0016d	52		 push	 edx
  0016e	e8 00 00 00 00	 call	 __mbscmp
  00173	83 c4 08	 add	 esp, 8
  00176	85 c0		 test	 eax, eax
  00178	75 25		 jne	 SHORT $L213381

; 657  : 			{
; 658  : 				s.GetToken();

  0017a	50		 push	 eax
  0017b	8d 4c 24 20	 lea	 ecx, DWORD PTR _s$[esp+2160]
  0017f	e8 00 00 00 00	 call	 ?GetToken@CScanner@@UAEHH@Z ; CScanner::GetToken

; 659  : 				strcpy( DSN_NAME_CHARACTER01, s.Token );

  00184	8b 44 24 3c	 mov	 eax, DWORD PTR _s$[esp+2188]
  00188	ba 00 00 00 00	 mov	 edx, OFFSET FLAT:?DSN_NAME_CHARACTER01@@3PADA ; DSN_NAME_CHARACTER01
  0018d	2b d0		 sub	 edx, eax
  0018f	90		 npad	 1
$L218558:
  00190	8a 08		 mov	 cl, BYTE PTR [eax]
  00192	88 0c 02	 mov	 BYTE PTR [edx+eax], cl
  00195	40		 inc	 eax
  00196	84 c9		 test	 cl, cl
  00198	75 f6		 jne	 SHORT $L218558

; 660  : 			}
; 661  : 			else if( s.Token == "DB_ADMIN_ID_CHARACTER" )

  0019a	e9 8f 04 00 00	 jmp	 $L213461
$L213381:
  0019f	8b 44 24 3c	 mov	 eax, DWORD PTR _s$[esp+2188]
  001a3	68 00 00 00 00	 push	 OFFSET FLAT:??_C@_0BG@HLPNCKNG@DB_ADMIN_ID_CHARACTER?$AA@
  001a8	50		 push	 eax
  001a9	e8 00 00 00 00	 call	 __mbscmp
  001ae	83 c4 08	 add	 esp, 8
  001b1	85 c0		 test	 eax, eax
  001b3	75 2a		 jne	 SHORT $L213384

; 662  : 			{
; 663  : 				s.GetToken();

  001b5	50		 push	 eax
  001b6	8d 4c 24 20	 lea	 ecx, DWORD PTR _s$[esp+2160]
  001ba	e8 00 00 00 00	 call	 ?GetToken@CScanner@@UAEHH@Z ; CScanner::GetToken

; 664  : 				strcpy( DB_ADMIN_ID_CHARACTER01, s.Token );

  001bf	8b 44 24 3c	 mov	 eax, DWORD PTR _s$[esp+2188]
  001c3	ba 00 00 00 00	 mov	 edx, OFFSET FLAT:?DB_ADMIN_ID_CHARACTER01@@3PADA ; DB_ADMIN_ID_CHARACTER01
  001c8	2b d0		 sub	 edx, eax
  001ca	8d 9b 00 00 00
	00		 npad	 6
$L218559:
  001d0	8a 08		 mov	 cl, BYTE PTR [eax]
  001d2	88 0c 02	 mov	 BYTE PTR [edx+eax], cl
  001d5	40		 inc	 eax
  001d6	84 c9		 test	 cl, cl
  001d8	75 f6		 jne	 SHORT $L218559

; 665  : 			}
; 666  : 			else if( s.Token == "DSN_NAME_LOG" )

  001da	e9 4f 04 00 00	 jmp	 $L213461
$L213384:
  001df	8b 4c 24 3c	 mov	 ecx, DWORD PTR _s$[esp+2188]
  001e3	68 00 00 00 00	 push	 OFFSET FLAT:??_C@_0N@CMCKBMLA@DSN_NAME_LOG?$AA@
  001e8	51		 push	 ecx
  001e9	e8 00 00 00 00	 call	 __mbscmp
  001ee	83 c4 08	 add	 esp, 8
  001f1	85 c0		 test	 eax, eax
  001f3	75 2a		 jne	 SHORT $L213387

; 667  : 			{
; 668  : 				s.GetToken();

  001f5	50		 push	 eax
  001f6	8d 4c 24 20	 lea	 ecx, DWORD PTR _s$[esp+2160]
  001fa	e8 00 00 00 00	 call	 ?GetToken@CScanner@@UAEHH@Z ; CScanner::GetToken

; 669  : 				strcpy( DSN_NAME_LOG, s.Token );

  001ff	8b 44 24 3c	 mov	 eax, DWORD PTR _s$[esp+2188]
  00203	ba 00 00 00 00	 mov	 edx, OFFSET FLAT:?DSN_NAME_LOG@@3PADA ; DSN_NAME_LOG
  00208	2b d0		 sub	 edx, eax
  0020a	8d 9b 00 00 00
	00		 npad	 6
$L218560:
  00210	8a 08		 mov	 cl, BYTE PTR [eax]
  00212	88 0c 02	 mov	 BYTE PTR [edx+eax], cl
  00215	40		 inc	 eax
  00216	84 c9		 test	 cl, cl
  00218	75 f6		 jne	 SHORT $L218560

; 670  : 			}
; 671  : 			else if( s.Token == "DB_ADMIN_ID_LOG" )

  0021a	e9 0f 04 00 00	 jmp	 $L213461
$L213387:
  0021f	8b 54 24 3c	 mov	 edx, DWORD PTR _s$[esp+2188]
  00223	68 00 00 00 00	 push	 OFFSET FLAT:??_C@_0BA@KGJHOKPM@DB_ADMIN_ID_LOG?$AA@
  00228	52		 push	 edx
  00229	e8 00 00 00 00	 call	 __mbscmp
  0022e	83 c4 08	 add	 esp, 8
  00231	85 c0		 test	 eax, eax
  00233	75 2a		 jne	 SHORT $L213390

; 672  : 			{
; 673  : 				s.GetToken();

  00235	50		 push	 eax
  00236	8d 4c 24 20	 lea	 ecx, DWORD PTR _s$[esp+2160]
  0023a	e8 00 00 00 00	 call	 ?GetToken@CScanner@@UAEHH@Z ; CScanner::GetToken

; 674  : 				strcpy( DB_ADMIN_ID_LOG, s.Token );

  0023f	8b 44 24 3c	 mov	 eax, DWORD PTR _s$[esp+2188]
  00243	ba 00 00 00 00	 mov	 edx, OFFSET FLAT:?DB_ADMIN_ID_LOG@@3PADA ; DB_ADMIN_ID_LOG
  00248	2b d0		 sub	 edx, eax
  0024a	8d 9b 00 00 00
	00		 npad	 6
$L218561:
  00250	8a 08		 mov	 cl, BYTE PTR [eax]
  00252	88 0c 02	 mov	 BYTE PTR [edx+eax], cl
  00255	40		 inc	 eax
  00256	84 c9		 test	 cl, cl
  00258	75 f6		 jne	 SHORT $L218561

; 675  : 			}
; 676  : #ifdef __S1108_BACK_END_SYSTEM
; 677  : 			else if( s.Token == "DSN_NAME_BACKSYSTEM" )

  0025a	e9 cf 03 00 00	 jmp	 $L213461
$L213390:
  0025f	8d 44 24 3c	 lea	 eax, DWORD PTR _s$[esp+2188]
  00263	68 00 00 00 00	 push	 OFFSET FLAT:??_C@_0BE@GBLGMHPJ@DSN_NAME_BACKSYSTEM?$AA@
  00268	50		 push	 eax
  00269	e8 00 00 00 00	 call	 ??8ATL@@YA_NABV?$CStringT@DV?$StrTraitMFC@DV?$ChTraitsCRT@D@ATL@@@@@0@PBD@Z ; ATL::operator==
  0026e	83 c4 08	 add	 esp, 8
  00271	84 c0		 test	 al, al
  00273	74 2a		 je	 SHORT $L213393

; 678  : 			{
; 679  : 				s.GetToken();

  00275	6a 00		 push	 0
  00277	8d 4c 24 20	 lea	 ecx, DWORD PTR _s$[esp+2160]
  0027b	e8 00 00 00 00	 call	 ?GetToken@CScanner@@UAEHH@Z ; CScanner::GetToken

; 680  : 				strcpy( DSN_NAME_BACKSYSTEM, s.Token );

  00280	8b 44 24 3c	 mov	 eax, DWORD PTR _s$[esp+2188]
  00284	ba 00 00 00 00	 mov	 edx, OFFSET FLAT:?DSN_NAME_BACKSYSTEM@@3PADA ; DSN_NAME_BACKSYSTEM
  00289	2b d0		 sub	 edx, eax
  0028b	eb 03 8d 49 00	 npad	 5
$L218562:
  00290	8a 08		 mov	 cl, BYTE PTR [eax]
  00292	88 0c 02	 mov	 BYTE PTR [edx+eax], cl
  00295	40		 inc	 eax
  00296	84 c9		 test	 cl, cl
  00298	75 f6		 jne	 SHORT $L218562

; 681  : 			}
; 682  : 			else if( s.Token == "DB_ADMIN_ID_BACKSYSTEM" )

  0029a	e9 8f 03 00 00	 jmp	 $L213461
$L213393:
  0029f	8d 4c 24 3c	 lea	 ecx, DWORD PTR _s$[esp+2188]
  002a3	68 00 00 00 00	 push	 OFFSET FLAT:??_C@_0BH@ELGFLIAK@DB_ADMIN_ID_BACKSYSTEM?$AA@
  002a8	51		 push	 ecx
  002a9	e8 00 00 00 00	 call	 ??8ATL@@YA_NABV?$CStringT@DV?$StrTraitMFC@DV?$ChTraitsCRT@D@ATL@@@@@0@PBD@Z ; ATL::operator==
  002ae	83 c4 08	 add	 esp, 8
  002b1	84 c0		 test	 al, al
  002b3	74 2a		 je	 SHORT $L213396

; 683  : 			{
; 684  : 				s.GetToken();

  002b5	6a 00		 push	 0
  002b7	8d 4c 24 20	 lea	 ecx, DWORD PTR _s$[esp+2160]
  002bb	e8 00 00 00 00	 call	 ?GetToken@CScanner@@UAEHH@Z ; CScanner::GetToken

; 685  : 				strcpy( DB_ADMIN_ID_BACKSYSTEM, s.Token );

  002c0	8b 44 24 3c	 mov	 eax, DWORD PTR _s$[esp+2188]
  002c4	ba 00 00 00 00	 mov	 edx, OFFSET FLAT:?DB_ADMIN_ID_BACKSYSTEM@@3PADA ; DB_ADMIN_ID_BACKSYSTEM
  002c9	2b d0		 sub	 edx, eax
  002cb	eb 03 8d 49 00	 npad	 5
$L218563:
  002d0	8a 08		 mov	 cl, BYTE PTR [eax]
  002d2	88 0c 02	 mov	 BYTE PTR [edx+eax], cl
  002d5	40		 inc	 eax
  002d6	84 c9		 test	 cl, cl
  002d8	75 f6		 jne	 SHORT $L218563

; 686  : 			}
; 687  : 			else if( s.Token == "BACKENDSYSTEM" )

  002da	e9 4f 03 00 00	 jmp	 $L213461
$L213396:
  002df	8d 54 24 3c	 lea	 edx, DWORD PTR _s$[esp+2188]
  002e3	68 00 00 00 00	 push	 OFFSET FLAT:??_C@_0O@KOOOCHBP@BACKENDSYSTEM?$AA@
  002e8	52		 push	 edx
  002e9	e8 00 00 00 00	 call	 ??8ATL@@YA_NABV?$CStringT@DV?$StrTraitMFC@DV?$ChTraitsCRT@D@ATL@@@@@0@PBD@Z ; ATL::operator==
  002ee	83 c4 08	 add	 esp, 8
  002f1	84 c0		 test	 al, al
  002f3	74 0b		 je	 SHORT $L213399

; 688  : 			{
; 689  : 				prj.m_bBackEndSystem = TRUE;

  002f5	89 2d 24 34 00
	00		 mov	 DWORD PTR ?prj@@3VCProject@@A+13348, ebp

; 690  : 			}
; 691  : #endif // __S1108_BACK_END_SYSTEM
; 692  : 			else if( s.Token == "DSN_NAME_ITEMUPDATE" )

  002fb	e9 2e 03 00 00	 jmp	 $L213461
$L213399:
  00300	8d 44 24 3c	 lea	 eax, DWORD PTR _s$[esp+2188]
  00304	68 00 00 00 00	 push	 OFFSET FLAT:??_C@_0BE@BCIALBJO@DSN_NAME_ITEMUPDATE?$AA@
  00309	50		 push	 eax
  0030a	e8 00 00 00 00	 call	 ??8ATL@@YA_NABV?$CStringT@DV?$StrTraitMFC@DV?$ChTraitsCRT@D@ATL@@@@@0@PBD@Z ; ATL::operator==
  0030f	83 c4 08	 add	 esp, 8
  00312	84 c0		 test	 al, al
  00314	74 29		 je	 SHORT $L213402

; 693  : 			{
; 694  : 				s.GetToken();

  00316	6a 00		 push	 0
  00318	8d 4c 24 20	 lea	 ecx, DWORD PTR _s$[esp+2160]
  0031c	e8 00 00 00 00	 call	 ?GetToken@CScanner@@UAEHH@Z ; CScanner::GetToken

; 695  : 				strcpy( DSN_NAME_ITEMUPDATE, s.Token );

  00321	8b 44 24 3c	 mov	 eax, DWORD PTR _s$[esp+2188]
  00325	ba 00 00 00 00	 mov	 edx, OFFSET FLAT:?DSN_NAME_ITEMUPDATE@@3PADA ; DSN_NAME_ITEMUPDATE
  0032a	2b d0		 sub	 edx, eax
  0032c	8d 64 24 00	 npad	 4
$L218564:
  00330	8a 08		 mov	 cl, BYTE PTR [eax]
  00332	88 0c 02	 mov	 BYTE PTR [edx+eax], cl
  00335	40		 inc	 eax
  00336	84 c9		 test	 cl, cl
  00338	75 f6		 jne	 SHORT $L218564

; 696  : 			}
; 697  : 			else if( s.Token == "DB_ADMIN_ID_ITEMUPDATE" )

  0033a	e9 ef 02 00 00	 jmp	 $L213461
$L213402:
  0033f	8d 4c 24 3c	 lea	 ecx, DWORD PTR _s$[esp+2188]
  00343	68 00 00 00 00	 push	 OFFSET FLAT:??_C@_0BH@DIFDMOGN@DB_ADMIN_ID_ITEMUPDATE?$AA@
  00348	51		 push	 ecx
  00349	e8 00 00 00 00	 call	 ??8ATL@@YA_NABV?$CStringT@DV?$StrTraitMFC@DV?$ChTraitsCRT@D@ATL@@@@@0@PBD@Z ; ATL::operator==
  0034e	83 c4 08	 add	 esp, 8
  00351	84 c0		 test	 al, al
  00353	74 2a		 je	 SHORT $L213405

; 698  : 			{
; 699  : 				s.GetToken();

  00355	6a 00		 push	 0
  00357	8d 4c 24 20	 lea	 ecx, DWORD PTR _s$[esp+2160]
  0035b	e8 00 00 00 00	 call	 ?GetToken@CScanner@@UAEHH@Z ; CScanner::GetToken

; 700  : 				strcpy( DB_ADMIN_ID_ITEMUPDATE, s.Token );

  00360	8b 44 24 3c	 mov	 eax, DWORD PTR _s$[esp+2188]
  00364	ba 00 00 00 00	 mov	 edx, OFFSET FLAT:?DB_ADMIN_ID_ITEMUPDATE@@3PADA ; DB_ADMIN_ID_ITEMUPDATE
  00369	2b d0		 sub	 edx, eax
  0036b	eb 03 8d 49 00	 npad	 5
$L218565:
  00370	8a 08		 mov	 cl, BYTE PTR [eax]
  00372	88 0c 02	 mov	 BYTE PTR [edx+eax], cl
  00375	40		 inc	 eax
  00376	84 c9		 test	 cl, cl
  00378	75 f6		 jne	 SHORT $L218565

; 701  : 			}
; 702  : 			else if( s.Token == "ITEMUPDATE" )

  0037a	e9 af 02 00 00	 jmp	 $L213461
$L213405:
  0037f	8d 54 24 3c	 lea	 edx, DWORD PTR _s$[esp+2188]
  00383	68 00 00 00 00	 push	 OFFSET FLAT:??_C@_0L@LKBMOMCF@ITEMUPDATE?$AA@
  00388	52		 push	 edx
  00389	e8 00 00 00 00	 call	 ??8ATL@@YA_NABV?$CStringT@DV?$StrTraitMFC@DV?$ChTraitsCRT@D@ATL@@@@@0@PBD@Z ; ATL::operator==
  0038e	83 c4 08	 add	 esp, 8
  00391	84 c0		 test	 al, al
  00393	74 0b		 je	 SHORT $L213408

; 703  : 			{
; 704  : 				prj.m_bItemUpdate = TRUE;

  00395	89 2d 5c 7e 04
	00		 mov	 DWORD PTR ?prj@@3VCProject@@A+294492, ebp

; 705  : 			}
; 706  : #ifdef __ITEM_REMOVE_LIST
; 707  : 			else if( s.Token == "ConvStartItem" )

  0039b	e9 8e 02 00 00	 jmp	 $L213461
$L213408:
  003a0	8d 44 24 3c	 lea	 eax, DWORD PTR _s$[esp+2188]
  003a4	68 00 00 00 00	 push	 OFFSET FLAT:??_C@_0O@MKHDOMGP@ConvStartItem?$AA@
  003a9	50		 push	 eax
  003aa	e8 00 00 00 00	 call	 ??8ATL@@YA_NABV?$CStringT@DV?$StrTraitMFC@DV?$ChTraitsCRT@D@ATL@@@@@0@PBD@Z ; ATL::operator==
  003af	83 c4 08	 add	 esp, 8
  003b2	84 c0		 test	 al, al
  003b4	74 10		 je	 SHORT $L213411

; 708  : 			{
; 709  : 				prj.SetConvMode( CONVER_ITEM_START );

  003b6	55		 push	 ebp
  003b7	b9 00 00 00 00	 mov	 ecx, OFFSET FLAT:?prj@@3VCProject@@A
  003bc	e8 00 00 00 00	 call	 ?SetConvMode@CProject@@QAEXK@Z ; CProject::SetConvMode

; 710  : 			}
; 711  : 			else if( s.Token == "SAVE_TEXT" )

  003c1	e9 68 02 00 00	 jmp	 $L213461
$L213411:
  003c6	8d 4c 24 3c	 lea	 ecx, DWORD PTR _s$[esp+2188]
  003ca	68 00 00 00 00	 push	 OFFSET FLAT:??_C@_09CCDMIBGH@SAVE_TEXT?$AA@
  003cf	51		 push	 ecx
  003d0	e8 00 00 00 00	 call	 ??8ATL@@YA_NABV?$CStringT@DV?$StrTraitMFC@DV?$ChTraitsCRT@D@ATL@@@@@0@PBD@Z ; ATL::operator==
  003d5	83 c4 08	 add	 esp, 8
  003d8	84 c0		 test	 al, al
  003da	74 11		 je	 SHORT $L213415

; 712  : 			{
; 713  : 				prj.SetConvMode( SAVE_TEXT );

  003dc	6a 02		 push	 2
  003de	b9 00 00 00 00	 mov	 ecx, OFFSET FLAT:?prj@@3VCProject@@A
  003e3	e8 00 00 00 00	 call	 ?SetConvMode@CProject@@QAEXK@Z ; CProject::SetConvMode

; 714  : 			}
; 715  : 			else if( s.Token == "REMOVE_ITEM_ALL" )

  003e8	e9 41 02 00 00	 jmp	 $L213461
$L213415:
  003ed	8d 54 24 3c	 lea	 edx, DWORD PTR _s$[esp+2188]
  003f1	68 00 00 00 00	 push	 OFFSET FLAT:??_C@_0BA@EPDGNAAI@REMOVE_ITEM_ALL?$AA@
  003f6	52		 push	 edx
  003f7	e8 00 00 00 00	 call	 ??8ATL@@YA_NABV?$CStringT@DV?$StrTraitMFC@DV?$ChTraitsCRT@D@ATL@@@@@0@PBD@Z ; ATL::operator==
  003fc	83 c4 08	 add	 esp, 8
  003ff	84 c0		 test	 al, al
  00401	74 11		 je	 SHORT $L213419

; 716  : 			{
; 717  : 				prj.SetConvMode( REMOVE_ITEM_ALL );

  00403	6a 04		 push	 4
  00405	b9 00 00 00 00	 mov	 ecx, OFFSET FLAT:?prj@@3VCProject@@A
  0040a	e8 00 00 00 00	 call	 ?SetConvMode@CProject@@QAEXK@Z ; CProject::SetConvMode

; 718  : 			}
; 719  : 			else if( s.Token == "REMOVE_ITEM_ALL_PAY" )

  0040f	e9 1a 02 00 00	 jmp	 $L213461
$L213419:
  00414	8d 44 24 3c	 lea	 eax, DWORD PTR _s$[esp+2188]
  00418	68 00 00 00 00	 push	 OFFSET FLAT:??_C@_0BE@EMCNIGPJ@REMOVE_ITEM_ALL_PAY?$AA@
  0041d	50		 push	 eax
  0041e	e8 00 00 00 00	 call	 ??8ATL@@YA_NABV?$CStringT@DV?$StrTraitMFC@DV?$ChTraitsCRT@D@ATL@@@@@0@PBD@Z ; ATL::operator==
  00423	83 c4 08	 add	 esp, 8
  00426	84 c0		 test	 al, al
  00428	74 11		 je	 SHORT $L213423

; 720  : 			{
; 721  : 				prj.SetConvMode( REMOVE_ITEM_ALL_PAY );

  0042a	6a 08		 push	 8
  0042c	b9 00 00 00 00	 mov	 ecx, OFFSET FLAT:?prj@@3VCProject@@A
  00431	e8 00 00 00 00	 call	 ?SetConvMode@CProject@@QAEXK@Z ; CProject::SetConvMode

; 722  : 			}
; 723  : 			else if( s.Token == "PIERCING_CONFIRM" )

  00436	e9 f3 01 00 00	 jmp	 $L213461
$L213423:
  0043b	8d 4c 24 3c	 lea	 ecx, DWORD PTR _s$[esp+2188]
  0043f	68 00 00 00 00	 push	 OFFSET FLAT:??_C@_0BB@HDGGMKPA@PIERCING_CONFIRM?$AA@
  00444	51		 push	 ecx
  00445	e8 00 00 00 00	 call	 ??8ATL@@YA_NABV?$CStringT@DV?$StrTraitMFC@DV?$ChTraitsCRT@D@ATL@@@@@0@PBD@Z ; ATL::operator==
  0044a	83 c4 08	 add	 esp, 8
  0044d	84 c0		 test	 al, al
  0044f	74 11		 je	 SHORT $L213427

; 724  : 			{
; 725  : 				prj.SetConvMode( PIERCING_CONFIRM );

  00451	6a 10		 push	 16			; 00000010H
  00453	b9 00 00 00 00	 mov	 ecx, OFFSET FLAT:?prj@@3VCProject@@A
  00458	e8 00 00 00 00	 call	 ?SetConvMode@CProject@@QAEXK@Z ; CProject::SetConvMode

; 726  : 			}
; 727  : #endif // __ITEM_REMOVE_LIST
; 728  : 			else if( s.Token == "BankToItemSendTbl" )

  0045d	e9 cc 01 00 00	 jmp	 $L213461
$L213427:
  00462	8d 54 24 3c	 lea	 edx, DWORD PTR _s$[esp+2188]
  00466	68 00 00 00 00	 push	 OFFSET FLAT:??_C@_0BC@KCBPOKMH@BankToItemSendTbl?$AA@
  0046b	52		 push	 edx
  0046c	e8 00 00 00 00	 call	 ??8ATL@@YA_NABV?$CStringT@DV?$StrTraitMFC@DV?$ChTraitsCRT@D@ATL@@@@@0@PBD@Z ; ATL::operator==
  00471	83 c4 08	 add	 esp, 8
  00474	84 c0		 test	 al, al
  00476	74 0b		 je	 SHORT $L213431

; 729  : 			{
; 730  : 				m_bBankToItemSendTbl	= TRUE;

  00478	89 2d 00 00 00
	00		 mov	 DWORD PTR ?m_bBankToItemSendTbl@@3HA, ebp ; m_bBankToItemSendTbl

; 731  : 			}
; 732  : 			else if( s.Token == "InventoryToItemSendTbl" )

  0047e	e9 ab 01 00 00	 jmp	 $L213461
$L213431:
  00483	8d 44 24 3c	 lea	 eax, DWORD PTR _s$[esp+2188]
  00487	68 00 00 00 00	 push	 OFFSET FLAT:??_C@_0BH@BEBEMMJA@InventoryToItemSendTbl?$AA@
  0048c	50		 push	 eax
  0048d	e8 00 00 00 00	 call	 ??8ATL@@YA_NABV?$CStringT@DV?$StrTraitMFC@DV?$ChTraitsCRT@D@ATL@@@@@0@PBD@Z ; ATL::operator==
  00492	83 c4 08	 add	 esp, 8
  00495	84 c0		 test	 al, al
  00497	74 0b		 je	 SHORT $L213434

; 733  : 			{
; 734  : 				m_bInventoryToItemSendTbl	= TRUE;

  00499	89 2d 00 00 00
	00		 mov	 DWORD PTR ?m_bInventoryToItemSendTbl@@3HA, ebp ; m_bInventoryToItemSendTbl

; 735  : 			}
; 736  : 			else if( s.Token == "__ITEM_REMOVE0203" )

  0049f	e9 8a 01 00 00	 jmp	 $L213461
$L213434:
  004a4	8d 4c 24 3c	 lea	 ecx, DWORD PTR _s$[esp+2188]
  004a8	68 00 00 00 00	 push	 OFFSET FLAT:??_C@_0BC@EDCGHAPB@__ITEM_REMOVE0203?$AA@
  004ad	51		 push	 ecx
  004ae	e8 00 00 00 00	 call	 ??8ATL@@YA_NABV?$CStringT@DV?$StrTraitMFC@DV?$ChTraitsCRT@D@ATL@@@@@0@PBD@Z ; ATL::operator==
  004b3	83 c4 08	 add	 esp, 8
  004b6	84 c0		 test	 al, al
  004b8	74 0b		 je	 SHORT $L213437

; 737  : 			{
; 738  : 				s_bItemRemove	= TRUE;

  004ba	89 2d 00 00 00
	00		 mov	 DWORD PTR ?s_bItemRemove@@3HA, ebp ; s_bItemRemove

; 739  : 			}
; 740  : 			else if( s.Token == "REMOVE_INVALID_ITEM" )

  004c0	e9 69 01 00 00	 jmp	 $L213461
$L213437:
  004c5	8d 54 24 3c	 lea	 edx, DWORD PTR _s$[esp+2188]
  004c9	68 00 00 00 00	 push	 OFFSET FLAT:??_C@_0BE@DOEKBAIP@REMOVE_INVALID_ITEM?$AA@
  004ce	52		 push	 edx
  004cf	e8 00 00 00 00	 call	 ??8ATL@@YA_NABV?$CStringT@DV?$StrTraitMFC@DV?$ChTraitsCRT@D@ATL@@@@@0@PBD@Z ; ATL::operator==
  004d4	83 c4 08	 add	 esp, 8
  004d7	84 c0		 test	 al, al
  004d9	74 0b		 je	 SHORT $L213440

; 741  : 			{
; 742  : 				s_bRemoveInvalidItem	= TRUE;

  004db	89 2d 00 00 00
	00		 mov	 DWORD PTR ?s_bRemoveInvalidItem@@3HA, ebp ; s_bRemoveInvalidItem

; 743  : 			}
; 744  : 			else if( s.Token == "DB_PWD_LOG" )

  004e1	e9 48 01 00 00	 jmp	 $L213461
$L213440:
  004e6	8d 44 24 3c	 lea	 eax, DWORD PTR _s$[esp+2188]
  004ea	68 00 00 00 00	 push	 OFFSET FLAT:??_C@_0L@ENKPLNGB@DB_PWD_LOG?$AA@
  004ef	50		 push	 eax
  004f0	e8 00 00 00 00	 call	 ??8ATL@@YA_NABV?$CStringT@DV?$StrTraitMFC@DV?$ChTraitsCRT@D@ATL@@@@@0@PBD@Z ; ATL::operator==
  004f5	83 c4 08	 add	 esp, 8
  004f8	84 c0		 test	 al, al
  004fa	74 24		 je	 SHORT $L213443

; 745  : 			{
; 746  : 				s.GetToken();

  004fc	6a 00		 push	 0
  004fe	8d 4c 24 20	 lea	 ecx, DWORD PTR _s$[esp+2160]
  00502	e8 00 00 00 00	 call	 ?GetToken@CScanner@@UAEHH@Z ; CScanner::GetToken

; 747  : 				::GetPWDFromToken( s.Token, db.DB_ADMIN_PASS_LOG ); 

  00507	8b 54 24 3c	 mov	 edx, DWORD PTR _s$[esp+2188]
  0050b	8d 8f c0 03 00
	00		 lea	 ecx, DWORD PTR [edi+960]
  00511	51		 push	 ecx
  00512	52		 push	 edx
  00513	e8 00 00 00 00	 call	 ?GetPWDFromToken@@YAHPBDPAD@Z ; GetPWDFromToken
  00518	83 c4 08	 add	 esp, 8

; 748  : 				TRACE("%s\n", db.DB_ADMIN_PASS_LOG ); 
; 749  : 			}
; 750  : 			else if( s.Token == "DB_PWD_CHARACTER" )

  0051b	e9 0e 01 00 00	 jmp	 $L213461
$L213443:
  00520	8d 44 24 3c	 lea	 eax, DWORD PTR _s$[esp+2188]
  00524	68 00 00 00 00	 push	 OFFSET FLAT:??_C@_0BB@MABONDJP@DB_PWD_CHARACTER?$AA@
  00529	50		 push	 eax
  0052a	e8 00 00 00 00	 call	 ??8ATL@@YA_NABV?$CStringT@DV?$StrTraitMFC@DV?$ChTraitsCRT@D@ATL@@@@@0@PBD@Z ; ATL::operator==
  0052f	83 c4 08	 add	 esp, 8
  00532	84 c0		 test	 al, al
  00534	74 24		 je	 SHORT $L213446

; 751  : 			{
; 752  : 				s.GetToken();

  00536	6a 00		 push	 0
  00538	8d 4c 24 20	 lea	 ecx, DWORD PTR _s$[esp+2160]
  0053c	e8 00 00 00 00	 call	 ?GetToken@CScanner@@UAEHH@Z ; CScanner::GetToken

; 753  : 				::GetPWDFromToken( s.Token, db.DB_ADMIN_PASS_CHARACTER01 ); 

  00541	8b 54 24 3c	 mov	 edx, DWORD PTR _s$[esp+2188]
  00545	8d 8f c0 04 00
	00		 lea	 ecx, DWORD PTR [edi+1216]
  0054b	51		 push	 ecx
  0054c	52		 push	 edx
  0054d	e8 00 00 00 00	 call	 ?GetPWDFromToken@@YAHPBDPAD@Z ; GetPWDFromToken
  00552	83 c4 08	 add	 esp, 8

; 754  : 				TRACE("%s\n", db.DB_ADMIN_PASS_CHARACTER01 ); 
; 755  : 			}
; 756  : 			else if( s.Token == "DB_PWD_BACKEND" )

  00555	e9 d4 00 00 00	 jmp	 $L213461
$L213446:
  0055a	8d 44 24 3c	 lea	 eax, DWORD PTR _s$[esp+2188]
  0055e	68 00 00 00 00	 push	 OFFSET FLAT:??_C@_0P@NMDCKAML@DB_PWD_BACKEND?$AA@
  00563	50		 push	 eax
  00564	e8 00 00 00 00	 call	 ??8ATL@@YA_NABV?$CStringT@DV?$StrTraitMFC@DV?$ChTraitsCRT@D@ATL@@@@@0@PBD@Z ; ATL::operator==
  00569	83 c4 08	 add	 esp, 8
  0056c	84 c0		 test	 al, al
  0056e	74 24		 je	 SHORT $L213449

; 757  : 			{
; 758  : 				s.GetToken();

  00570	6a 00		 push	 0
  00572	8d 4c 24 20	 lea	 ecx, DWORD PTR _s$[esp+2160]
  00576	e8 00 00 00 00	 call	 ?GetToken@CScanner@@UAEHH@Z ; CScanner::GetToken

; 759  : 				::GetPWDFromToken( s.Token, db.DB_ADMIN_PASS_BACKSYSTEM ); 

  0057b	8b 54 24 3c	 mov	 edx, DWORD PTR _s$[esp+2188]
  0057f	8d 8f c0 05 00
	00		 lea	 ecx, DWORD PTR [edi+1472]
  00585	51		 push	 ecx
  00586	52		 push	 edx
  00587	e8 00 00 00 00	 call	 ?GetPWDFromToken@@YAHPBDPAD@Z ; GetPWDFromToken
  0058c	83 c4 08	 add	 esp, 8

; 760  : 				TRACE("%s\n", db.DB_ADMIN_PASS_BACKSYSTEM ); 
; 761  : 			}
; 762  : 			else if( s.Token == "DB_PWD_ITEMUPDATE" )

  0058f	e9 9a 00 00 00	 jmp	 $L213461
$L213449:
  00594	8d 44 24 3c	 lea	 eax, DWORD PTR _s$[esp+2188]
  00598	68 00 00 00 00	 push	 OFFSET FLAT:??_C@_0BC@DHOINEKA@DB_PWD_ITEMUPDATE?$AA@
  0059d	50		 push	 eax
  0059e	e8 00 00 00 00	 call	 ??8ATL@@YA_NABV?$CStringT@DV?$StrTraitMFC@DV?$ChTraitsCRT@D@ATL@@@@@0@PBD@Z ; ATL::operator==
  005a3	83 c4 08	 add	 esp, 8
  005a6	84 c0		 test	 al, al
  005a8	74 21		 je	 SHORT $L213452

; 763  : 			{
; 764  : 				s.GetToken();

  005aa	6a 00		 push	 0
  005ac	8d 4c 24 20	 lea	 ecx, DWORD PTR _s$[esp+2160]
  005b0	e8 00 00 00 00	 call	 ?GetToken@CScanner@@UAEHH@Z ; CScanner::GetToken

; 765  : 				::GetPWDFromToken( s.Token, db.DB_ADMIN_PASS_ITEMUPDATE ); 

  005b5	8b 54 24 3c	 mov	 edx, DWORD PTR _s$[esp+2188]
  005b9	8d 8f c0 06 00
	00		 lea	 ecx, DWORD PTR [edi+1728]
  005bf	51		 push	 ecx
  005c0	52		 push	 edx
  005c1	e8 00 00 00 00	 call	 ?GetPWDFromToken@@YAHPBDPAD@Z ; GetPWDFromToken
  005c6	83 c4 08	 add	 esp, 8

; 766  : 				TRACE("%s\n", db.DB_ADMIN_PASS_ITEMUPDATE ); 
; 767  : 			}
; 768  : 			else if( s.Token == "ITEM_ID" )

  005c9	eb 63		 jmp	 SHORT $L213461
$L213452:
  005cb	8d 44 24 3c	 lea	 eax, DWORD PTR _s$[esp+2188]
  005cf	68 00 00 00 00	 push	 OFFSET FLAT:??_C@_07PMFDBAGJ@ITEM_ID?$AA@
  005d4	50		 push	 eax
  005d5	e8 00 00 00 00	 call	 ??8ATL@@YA_NABV?$CStringT@DV?$StrTraitMFC@DV?$ChTraitsCRT@D@ATL@@@@@0@PBD@Z ; ATL::operator==
  005da	83 c4 08	 add	 esp, 8
  005dd	84 c0		 test	 al, al
  005df	74 0b		 je	 SHORT $L213455

; 769  : 			{
; 770  : 				bToolItemId	= TRUE;

  005e1	89 6c 24 18	 mov	 DWORD PTR _bToolItemId$[esp+2156], ebp

; 771  : 				OutputDebugString( "ITEM_ID" );

  005e5	68 00 00 00 00	 push	 OFFSET FLAT:??_C@_07PMFDBAGJ@ITEM_ID?$AA@

; 772  : 			}
; 773  : 			else if( s.Token == "RESTORE_PET" )

  005ea	eb 40		 jmp	 SHORT $L218820
$L213455:
  005ec	8d 4c 24 3c	 lea	 ecx, DWORD PTR _s$[esp+2188]
  005f0	68 00 00 00 00	 push	 OFFSET FLAT:??_C@_0M@EMECFGFM@RESTORE_PET?$AA@
  005f5	51		 push	 ecx
  005f6	e8 00 00 00 00	 call	 ??8ATL@@YA_NABV?$CStringT@DV?$StrTraitMFC@DV?$ChTraitsCRT@D@ATL@@@@@0@PBD@Z ; ATL::operator==
  005fb	83 c4 08	 add	 esp, 8
  005fe	84 c0		 test	 al, al
  00600	74 0b		 je	 SHORT $L213458

; 774  : 			{
; 775  : 				bToolRestorePet		= TRUE;

  00602	89 6c 24 10	 mov	 DWORD PTR _bToolRestorePet$[esp+2156], ebp

; 776  : 				OutputDebugString( "RESTORE_PET" );

  00606	68 00 00 00 00	 push	 OFFSET FLAT:??_C@_0M@EMECFGFM@RESTORE_PET?$AA@

; 777  : 			}
; 778  : 			else if( s.Token == "REMOVE_QUEST" )

  0060b	eb 1f		 jmp	 SHORT $L218820
$L213458:
  0060d	8d 54 24 3c	 lea	 edx, DWORD PTR _s$[esp+2188]
  00611	68 00 00 00 00	 push	 OFFSET FLAT:??_C@_0N@NNJOKFBG@REMOVE_QUEST?$AA@
  00616	52		 push	 edx
  00617	e8 00 00 00 00	 call	 ??8ATL@@YA_NABV?$CStringT@DV?$StrTraitMFC@DV?$ChTraitsCRT@D@ATL@@@@@0@PBD@Z ; ATL::operator==
  0061c	83 c4 08	 add	 esp, 8
  0061f	84 c0		 test	 al, al
  00621	74 0b		 je	 SHORT $L213461

; 779  : 			{
; 780  : 				bToolRemoveQuest	= TRUE;

  00623	89 6c 24 14	 mov	 DWORD PTR _bToolRemoveQuest$[esp+2156], ebp

; 781  : 				OutputDebugString( "REMOVE_QUEST" );

  00627	68 00 00 00 00	 push	 OFFSET FLAT:??_C@_0N@NNJOKFBG@REMOVE_QUEST?$AA@
$L218820:
  0062c	ff d6		 call	 esi
$L213461:

; 782  : 			}
; 783  : 			s.GetToken();

  0062e	6a 00		 push	 0
  00630	8d 4c 24 20	 lea	 ecx, DWORD PTR _s$[esp+2160]
  00634	e8 00 00 00 00	 call	 ?GetToken@CScanner@@UAEHH@Z ; CScanner::GetToken
  00639	83 bc 24 48 08
	00 00 15	 cmp	 DWORD PTR _s$[esp+4248], 21 ; 00000015H
  00641	0f 85 4f fa ff
	ff		 jne	 $L213363

; 637  : 				if( !SetCurrentDirectory( s.Token ) )

  00647	33 db		 xor	 ebx, ebx
$L213364:

; 784  : 		}
; 785  : 
; 786  : 
; 787  : 		if( !prj.OpenProject( "masquerade.prj" ) ) {

  00649	68 00 00 00 00	 push	 OFFSET FLAT:??_C@_0P@LPNJPKHP@masquerade?4prj?$AA@
  0064e	b9 00 00 00 00	 mov	 ecx, OFFSET FLAT:?prj@@3VCProject@@A
  00653	e8 00 00 00 00	 call	 ?OpenProject@CProject@@QAEHPBD@Z ; CProject::OpenProject
  00658	85 c0		 test	 eax, eax
  0065a	75 26		 jne	 SHORT $L213463

; 788  : 			g_MyTrace.Add( CMyTrace::Key( "status" ), FALSE, "Fail to open project" );

  0065c	68 00 00 00 00	 push	 OFFSET FLAT:??_C@_0BF@NHLHHCKP@Fail?5to?5open?5project?$AA@
  00661	53		 push	 ebx
  00662	68 00 00 00 00	 push	 OFFSET FLAT:??_C@_06DJIHEMFI@status?$AA@
  00667	e8 00 00 00 00	 call	 ?Key@CMyTrace@@SAKPBD@Z	; CMyTrace::Key
  0066c	83 c4 04	 add	 esp, 4
  0066f	50		 push	 eax
  00670	68 00 00 00 00	 push	 OFFSET FLAT:?g_MyTrace@@3VCMyTrace@@A
  00675	e8 00 00 00 00	 call	 ?Add@CMyTrace@@QAAXKHPBDZZ ; CMyTrace::Add
  0067a	83 c4 10	 add	 esp, 16			; 00000010H

; 789  : 			return FALSE;

  0067d	e9 17 01 00 00	 jmp	 $L218822
$L213463:

; 790  : 		}
; 791  : 		else {
; 792  : 			if( m_bBankToItemSendTbl )

  00682	39 1d 00 00 00
	00		 cmp	 DWORD PTR ?m_bBankToItemSendTbl@@3HA, ebx ; m_bBankToItemSendTbl
  00688	74 15		 je	 SHORT $L213468

; 793  : 			{
; 794  : 				g_DbManager.BankToItemSendTbl( "BankToItemSendTbl.txt" );

  0068a	8b 0d 00 00 00
	00		 mov	 ecx, DWORD PTR ?g_DbManager@@3AAVCDbManager@@A ; g_DbManager
  00690	68 00 00 00 00	 push	 OFFSET FLAT:??_C@_0BG@DBHAGMCH@BankToItemSendTbl?4txt?$AA@
  00695	e8 00 00 00 00	 call	 ?BankToItemSendTbl@CDbManager@@QAEHPBD@Z ; CDbManager::BankToItemSendTbl

; 795  : 				return FALSE;

  0069a	e9 fa 00 00 00	 jmp	 $L218822
$L213468:

; 796  : 			}
; 797  : 			if( m_bInventoryToItemSendTbl )

  0069f	39 1d 00 00 00
	00		 cmp	 DWORD PTR ?m_bInventoryToItemSendTbl@@3HA, ebx ; m_bInventoryToItemSendTbl
  006a5	74 15		 je	 SHORT $L213471

; 798  : 			{
; 799  : 				g_DbManager.InventoryToItemSendTbl( "InventoryToItemSendTbl.txt" );

  006a7	8b 0d 00 00 00
	00		 mov	 ecx, DWORD PTR ?g_DbManager@@3AAVCDbManager@@A ; g_DbManager
  006ad	68 00 00 00 00	 push	 OFFSET FLAT:??_C@_0BL@JKJMKOBM@InventoryToItemSendTbl?4txt?$AA@
  006b2	e8 00 00 00 00	 call	 ?InventoryToItemSendTbl@CDbManager@@QAEHPBD@Z ; CDbManager::InventoryToItemSendTbl

; 800  : 				return FALSE;

  006b7	e9 dd 00 00 00	 jmp	 $L218822
$L213471:

; 801  : 			}
; 802  : 			if( s_bItemRemove )

  006bc	39 1d 00 00 00
	00		 cmp	 DWORD PTR ?s_bItemRemove@@3HA, ebx ; s_bItemRemove
  006c2	74 15		 je	 SHORT $L213474

; 803  : 			{
; 804  : 				g_DbManager.ItemRemove0203( "ItemRemove.txt" );

  006c4	8b 0d 00 00 00
	00		 mov	 ecx, DWORD PTR ?g_DbManager@@3AAVCDbManager@@A ; g_DbManager
  006ca	68 00 00 00 00	 push	 OFFSET FLAT:??_C@_0P@CNCAIPIG@ItemRemove?4txt?$AA@
  006cf	e8 00 00 00 00	 call	 ?ItemRemove0203@CDbManager@@QAEHPBD@Z ; CDbManager::ItemRemove0203

; 805  : 				return FALSE;

  006d4	e9 c0 00 00 00	 jmp	 $L218822
$L213474:

; 806  : 			}
; 807  : 			if( s_bRemoveInvalidItem )

  006d9	39 1d 00 00 00
	00		 cmp	 DWORD PTR ?s_bRemoveInvalidItem@@3HA, ebx ; s_bRemoveInvalidItem
  006df	74 10		 je	 SHORT $L213477

; 808  : 			{
; 809  : 				g_DbManager.RemoveInvalidItem();

  006e1	8b 0d 00 00 00
	00		 mov	 ecx, DWORD PTR ?g_DbManager@@3AAVCDbManager@@A ; g_DbManager
  006e7	e8 00 00 00 00	 call	 ?RemoveInvalidItem@CDbManager@@QAEHXZ ; CDbManager::RemoveInvalidItem

; 810  : 				return FALSE;

  006ec	e9 a8 00 00 00	 jmp	 $L218822
$L213477:

; 811  : 			}
; 812  : 			if( bToolItemId )

  006f1	39 5c 24 18	 cmp	 DWORD PTR _bToolItemId$[esp+2156], ebx
  006f5	74 15		 je	 SHORT $L213479

; 813  : 			{
; 814  : 				g_DbManager.Conv( "conv.txt" );

  006f7	8b 0d 00 00 00
	00		 mov	 ecx, DWORD PTR ?g_DbManager@@3AAVCDbManager@@A ; g_DbManager
  006fd	68 00 00 00 00	 push	 OFFSET FLAT:??_C@_08PIDMBOPH@conv?4txt?$AA@
  00702	e8 00 00 00 00	 call	 ?Conv@CDbManager@@QAEHPBD@Z ; CDbManager::Conv

; 815  : 				return FALSE;

  00707	e9 8d 00 00 00	 jmp	 $L218822
$L213479:

; 816  : 			}
; 817  : 			if( bToolRestorePet )

  0070c	39 5c 24 10	 cmp	 DWORD PTR _bToolRestorePet$[esp+2156], ebx
  00710	74 19		 je	 SHORT $L213482

; 818  : 			{
; 819  : 				g_DbManager.RestorePet( "restorepet.txt" );

  00712	8b 0d 00 00 00
	00		 mov	 ecx, DWORD PTR ?g_DbManager@@3AAVCDbManager@@A ; g_DbManager
  00718	68 00 00 00 00	 push	 OFFSET FLAT:??_C@_0P@OHOOLBKB@restorepet?4txt?$AA@
  0071d	e8 00 00 00 00	 call	 ?RestorePet@CDbManager@@QAEHPBD@Z ; CDbManager::RestorePet

; 820  : 				OutputDebugString( "end - restorepet.txt" );

  00722	68 00 00 00 00	 push	 OFFSET FLAT:??_C@_0BF@FNEPOGMA@end?5?9?5restorepet?4txt?$AA@
  00727	ff d6		 call	 esi

; 821  : 				return FALSE;

  00729	eb 6e		 jmp	 SHORT $L218822
$L213482:

; 822  : 			}
; 823  : 			if( bToolRemoveQuest )

  0072b	39 5c 24 14	 cmp	 DWORD PTR _bToolRemoveQuest$[esp+2156], ebx
  0072f	74 0d		 je	 SHORT $L213486

; 824  : 			{
; 825  : 				g_DbManager.RemoveQuest();

  00731	8b 0d 00 00 00
	00		 mov	 ecx, DWORD PTR ?g_DbManager@@3AAVCDbManager@@A ; g_DbManager
  00737	e8 00 00 00 00	 call	 ?RemoveQuest@CDbManager@@QAEHXZ ; CDbManager::RemoveQuest

; 826  : 				return FALSE;

  0073c	eb 5b		 jmp	 SHORT $L218822
$L213486:

; 827  : 			}
; 828  : 
; 829  : 			g_MyTrace.Add( CMyTrace::Key( "status" ), FALSE, "Ready" );

  0073e	68 00 00 00 00	 push	 OFFSET FLAT:??_C@_05GMBADOLI@Ready?$AA@
  00743	53		 push	 ebx
  00744	68 00 00 00 00	 push	 OFFSET FLAT:??_C@_06DJIHEMFI@status?$AA@
  00749	e8 00 00 00 00	 call	 ?Key@CMyTrace@@SAKPBD@Z	; CMyTrace::Key
  0074e	83 c4 04	 add	 esp, 4
  00751	50		 push	 eax
  00752	68 00 00 00 00	 push	 OFFSET FLAT:?g_MyTrace@@3VCMyTrace@@A
  00757	e8 00 00 00 00	 call	 ?Add@CMyTrace@@QAAXKHPBDZZ ; CMyTrace::Add
  0075c	83 c4 10	 add	 esp, 16			; 00000010H

; 830  : 			return TRUE;

  0075f	8d 4c 24 1c	 lea	 ecx, DWORD PTR _s$[esp+2156]
  00763	c7 84 24 68 08
	00 00 ff ff ff
	ff		 mov	 DWORD PTR __$EHRec$[esp+2164], -1
  0076e	e8 00 00 00 00	 call	 ??1CScanner@@UAE@XZ	; CScanner::~CScanner
  00773	8b c5		 mov	 eax, ebp
  00775	eb 38		 jmp	 SHORT $L213355
$L213467:

; 831  : 		}
; 832  : 	}
; 833  : 
; 834  : 	g_MyTrace.Add( CMyTrace::Key( "status" ), FALSE, "Fail to open file, %s", lpszFileName );

  00777	56		 push	 esi
  00778	68 00 00 00 00	 push	 OFFSET FLAT:??_C@_0BG@MNCFBEJM@Fail?5to?5open?5file?0?5?$CFs?$AA@
  0077d	53		 push	 ebx
$L218821:
  0077e	68 00 00 00 00	 push	 OFFSET FLAT:??_C@_06DJIHEMFI@status?$AA@
  00783	e8 00 00 00 00	 call	 ?Key@CMyTrace@@SAKPBD@Z	; CMyTrace::Key
  00788	83 c4 04	 add	 esp, 4
  0078b	50		 push	 eax
  0078c	68 00 00 00 00	 push	 OFFSET FLAT:?g_MyTrace@@3VCMyTrace@@A
  00791	e8 00 00 00 00	 call	 ?Add@CMyTrace@@QAAXKHPBDZZ ; CMyTrace::Add
  00796	83 c4 14	 add	 esp, 20			; 00000014H
$L218822:

; 835  : 	return FALSE;

  00799	8d 4c 24 1c	 lea	 ecx, DWORD PTR _s$[esp+2156]
  0079d	c7 84 24 68 08
	00 00 ff ff ff
	ff		 mov	 DWORD PTR __$EHRec$[esp+2164], -1
  007a8	e8 00 00 00 00	 call	 ??1CScanner@@UAE@XZ	; CScanner::~CScanner
  007ad	33 c0		 xor	 eax, eax
$L213355:

; 836  : };

  007af	8b 8c 24 60 08
	00 00		 mov	 ecx, DWORD PTR __$EHRec$[esp+2156]
  007b6	5f		 pop	 edi
  007b7	5e		 pop	 esi
  007b8	5d		 pop	 ebp
  007b9	64 89 0d 00 00
	00 00		 mov	 DWORD PTR fs:__except_list, ecx
  007c0	8b 8c 24 50 08
	00 00		 mov	 ecx, DWORD PTR __$ArrayPad$[esp+2144]
  007c7	5b		 pop	 ebx
  007c8	33 cc		 xor	 ecx, esp
  007ca	e8 00 00 00 00	 call	 @__security_check_cookie@4
  007cf	81 c4 5c 08 00
	00		 add	 esp, 2140		; 0000085cH
  007d5	c3		 ret	 0
_TEXT	ENDS
;	COMDAT text$x
text$x	SEGMENT
$L218576:
  00000	8d 8d b0 f7 ff
	ff		 lea	 ecx, DWORD PTR _s$[ebp]
  00006	e9 00 00 00 00	 jmp	 ??1CScanner@@UAE@XZ	; CScanner::~CScanner
__ehhandler$?Script@@YAHPBD@Z:
  0000b	b8 00 00 00 00	 mov	 eax, OFFSET FLAT:$T218805
  00010	e9 00 00 00 00	 jmp	 ___CxxFrameHandler
text$x	ENDS
?Script@@YAHPBD@Z ENDP					; Script
PUBLIC	?_Init@?$_Tree@V?$_Tmap_traits@EHU?$less@E@std@@V?$allocator@U?$pair@$$CBEH@std@@@2@$0A@@std@@@std@@IAEXXZ ; std::_Tree<std::_Tmap_traits<unsigned char,int,std::less<unsigned char>,std::allocator<std::pair<unsigned char const ,int> >,0> >::_Init
; Function compile flags: /Ogty
; File c:\program files\microsoft visual studio .net 2003\vc7\include\xtree
;	COMDAT ?_Init@?$_Tree@V?$_Tmap_traits@EHU?$less@E@std@@V?$allocator@U?$pair@$$CBEH@std@@@2@$0A@@std@@@std@@IAEXXZ
_TEXT	SEGMENT
?_Init@?$_Tree@V?$_Tmap_traits@EHU?$less@E@std@@V?$allocator@U?$pair@$$CBEH@std@@@2@$0A@@std@@@std@@IAEXXZ PROC NEAR ; std::_Tree<std::_Tmap_traits<unsigned char,int,std::less<unsigned char>,std::allocator<std::pair<unsigned char const ,int> >,0> >::_Init, COMDAT
; _this$ = ecx

; 901  : 		{	// create head/nil node and make tree empty

  00000	56		 push	 esi
  00001	8b f1		 mov	 esi, ecx

; 902  : 		_Myhead = _Buynode();

  00003	e8 00 00 00 00	 call	 ?_Buynode@?$_Tree@V?$_Tmap_traits@EHU?$less@E@std@@V?$allocator@U?$pair@$$CBEH@std@@@2@$0A@@std@@@std@@IAEPAU_Node@?$_Tree_nod@V?$_Tmap_traits@EHU?$less@E@std@@V?$allocator@U?$pair@$$CBEH@std@@@2@$0A@@std@@@2@XZ ; std::_Tree<std::_Tmap_traits<unsigned char,int,std::less<unsigned char>,std::allocator<std::pair<unsigned char const ,int> >,0> >::_Buynode
  00008	89 46 04	 mov	 DWORD PTR [esi+4], eax

; 903  : 		_Isnil(_Myhead) = true;

  0000b	c6 40 15 01	 mov	 BYTE PTR [eax+21], 1

; 904  : 		_Root() = _Myhead;

  0000f	8b 46 04	 mov	 eax, DWORD PTR [esi+4]
  00012	89 40 04	 mov	 DWORD PTR [eax+4], eax

; 905  : 		_Lmost() = _Myhead, _Rmost() = _Myhead;

  00015	8b 46 04	 mov	 eax, DWORD PTR [esi+4]
  00018	89 00		 mov	 DWORD PTR [eax], eax
  0001a	8b 46 04	 mov	 eax, DWORD PTR [esi+4]
  0001d	89 40 08	 mov	 DWORD PTR [eax+8], eax

; 906  : 		_Mysize = 0;

  00020	c7 46 08 00 00
	00 00		 mov	 DWORD PTR [esi+8], 0
  00027	5e		 pop	 esi

; 907  : 		}

  00028	c3		 ret	 0
?_Init@?$_Tree@V?$_Tmap_traits@EHU?$less@E@std@@V?$allocator@U?$pair@$$CBEH@std@@@2@$0A@@std@@@std@@IAEXXZ ENDP ; std::_Tree<std::_Tmap_traits<unsigned char,int,std::less<unsigned char>,std::allocator<std::pair<unsigned char const ,int> >,0> >::_Init
_TEXT	ENDS
PUBLIC	??0?$_Tree_val@V?$_Tmap_traits@EHU?$less@E@std@@V?$allocator@U?$pair@$$CBEH@std@@@2@$0A@@std@@@std@@IAE@ABU?$less@E@1@V?$allocator@U?$pair@$$CBEH@std@@@1@@Z ; std::_Tree_val<std::_Tmap_traits<unsigned char,int,std::less<unsigned char>,std::allocator<std::pair<unsigned char const ,int> >,0> >::_Tree_val<std::_Tmap_traits<unsigned char,int,std::less<unsigned char>,std::allocator<std::pair<unsigned char const ,int> >,0> >
; Function compile flags: /Ogty
;	COMDAT ??0?$_Tree_val@V?$_Tmap_traits@EHU?$less@E@std@@V?$allocator@U?$pair@$$CBEH@std@@@2@$0A@@std@@@std@@IAE@ABU?$less@E@1@V?$allocator@U?$pair@$$CBEH@std@@@1@@Z
_TEXT	SEGMENT
__Parg$ = 8						; size = 4
__Al$ = 12						; size = 1
??0?$_Tree_val@V?$_Tmap_traits@EHU?$less@E@std@@V?$allocator@U?$pair@$$CBEH@std@@@2@$0A@@std@@@std@@IAE@ABU?$less@E@1@V?$allocator@U?$pair@$$CBEH@std@@@1@@Z PROC NEAR ; std::_Tree_val<std::_Tmap_traits<unsigned char,int,std::less<unsigned char>,std::allocator<std::pair<unsigned char const ,int> >,0> >::_Tree_val<std::_Tmap_traits<unsigned char,int,std::less<unsigned char>,std::allocator<std::pair<unsigned char const ,int> >,0> >, COMDAT
; _this$ = ecx

; 95   : 		{	// construct base, and allocator from _Al

  00000	8b c1		 mov	 eax, ecx

; 96   : 		}

  00002	c2 08 00	 ret	 8
??0?$_Tree_val@V?$_Tmap_traits@EHU?$less@E@std@@V?$allocator@U?$pair@$$CBEH@std@@@2@$0A@@std@@@std@@IAE@ABU?$less@E@1@V?$allocator@U?$pair@$$CBEH@std@@@1@@Z ENDP ; std::_Tree_val<std::_Tmap_traits<unsigned char,int,std::less<unsigned char>,std::allocator<std::pair<unsigned char const ,int> >,0> >::_Tree_val<std::_Tmap_traits<unsigned char,int,std::less<unsigned char>,std::allocator<std::pair<unsigned char const ,int> >,0> >
_TEXT	ENDS
PUBLIC	??1?$list@PAXV?$allocator@PAX@std@@@std@@QAE@XZ	; std::list<void *,std::allocator<void *> >::~list<void *,std::allocator<void *> >
; Function compile flags: /Ogty
; File c:\program files\microsoft visual studio .net 2003\vc7\include\list
;	COMDAT ??1?$list@PAXV?$allocator@PAX@std@@@std@@QAE@XZ
_TEXT	SEGMENT
??1?$list@PAXV?$allocator@PAX@std@@@std@@QAE@XZ PROC NEAR ; std::list<void *,std::allocator<void *> >::~list<void *,std::allocator<void *> >, COMDAT
; _this$ = ecx

; 364  : 		{	// destroy the object

  00000	56		 push	 esi
  00001	8b f1		 mov	 esi, ecx

; 365  : 		_Tidy();

  00003	e8 00 00 00 00	 call	 ?clear@?$list@PAXV?$allocator@PAX@std@@@std@@QAEXXZ ; std::list<void *,std::allocator<void *> >::clear
  00008	8b 46 04	 mov	 eax, DWORD PTR [esi+4]
  0000b	50		 push	 eax
  0000c	e8 00 00 00 00	 call	 ??3@YAXPAX@Z		; operator delete
  00011	83 c4 04	 add	 esp, 4
  00014	c7 46 04 00 00
	00 00		 mov	 DWORD PTR [esi+4], 0
  0001b	5e		 pop	 esi

; 366  : 		}

  0001c	c3		 ret	 0
??1?$list@PAXV?$allocator@PAX@std@@@std@@QAE@XZ ENDP	; std::list<void *,std::allocator<void *> >::~list<void *,std::allocator<void *> >
_TEXT	ENDS
PUBLIC	?Destroy@?$MemPooler@VCMover@@@@IAEXXZ		; MemPooler<CMover>::Destroy
EXTRN	__imp__VirtualFree@12:NEAR
EXTRN	__imp__DeleteCriticalSection@4:NEAR
; Function compile flags: /Ogty
; File c:\documents and settings\test\mes documents\source\virtuos_v17\build\program\_network\misc\include\mempooler.h
;	COMDAT ?Destroy@?$MemPooler@VCMover@@@@IAEXXZ
_TEXT	SEGMENT
?Destroy@?$MemPooler@VCMover@@@@IAEXXZ PROC NEAR	; MemPooler<CMover>::Destroy, COMDAT
; _this$ = ecx

; 144  : 	{

  00000	56		 push	 esi
  00001	57		 push	 edi
  00002	8b f9		 mov	 edi, ecx

; 145  : #ifdef __VERIFY_MEMPOOL
; 146  : 		return;
; 147  : #endif
; 148  : 		for( list<void*>::iterator i = m_ListOfMemBlockPtr.begin(); i != m_ListOfMemBlockPtr.end(); ++i )

  00004	8b 47 08	 mov	 eax, DWORD PTR [edi+8]
  00007	8b 30		 mov	 esi, DWORD PTR [eax]
  00009	3b f0		 cmp	 esi, eax
  0000b	74 1c		 je	 SHORT $L214281
  0000d	53		 push	 ebx
  0000e	8b 1d 00 00 00
	00		 mov	 ebx, DWORD PTR __imp__VirtualFree@12
$L218959:

; 149  : 			VirtualFree( *i, 0, MEM_RELEASE );

  00014	8b 46 08	 mov	 eax, DWORD PTR [esi+8]
  00017	68 00 80 00 00	 push	 32768			; 00008000H
  0001c	6a 00		 push	 0
  0001e	50		 push	 eax
  0001f	ff d3		 call	 ebx
  00021	8b 36		 mov	 esi, DWORD PTR [esi]
  00023	3b 77 08	 cmp	 esi, DWORD PTR [edi+8]
  00026	75 ec		 jne	 SHORT $L218959
  00028	5b		 pop	 ebx
$L214281:

; 150  : 		m_ListOfMemBlockPtr.clear();

  00029	8b 4f 08	 mov	 ecx, DWORD PTR [edi+8]
  0002c	8b 01		 mov	 eax, DWORD PTR [ecx]
  0002e	89 09		 mov	 DWORD PTR [ecx], ecx
  00030	8b 4f 08	 mov	 ecx, DWORD PTR [edi+8]
  00033	89 49 04	 mov	 DWORD PTR [ecx+4], ecx
  00036	3b 47 08	 cmp	 eax, DWORD PTR [edi+8]
  00039	c7 47 0c 00 00
	00 00		 mov	 DWORD PTR [edi+12], 0
  00040	74 14		 je	 SHORT $L219027
$L219025:
  00042	8b 30		 mov	 esi, DWORD PTR [eax]
  00044	50		 push	 eax
  00045	e8 00 00 00 00	 call	 ??3@YAXPAX@Z		; operator delete
  0004a	8b 4f 08	 mov	 ecx, DWORD PTR [edi+8]
  0004d	83 c4 04	 add	 esp, 4
  00050	3b f1		 cmp	 esi, ecx
  00052	8b c6		 mov	 eax, esi
  00054	75 ec		 jne	 SHORT $L219025
$L219027:

; 151  : 
; 152  : 		DeleteCriticalSection( &m_cs );		

  00056	83 c7 1c	 add	 edi, 28			; 0000001cH
  00059	57		 push	 edi
  0005a	ff 15 00 00 00
	00		 call	 DWORD PTR __imp__DeleteCriticalSection@4
  00060	5f		 pop	 edi
  00061	5e		 pop	 esi

; 153  : 	}

  00062	c3		 ret	 0
?Destroy@?$MemPooler@VCMover@@@@IAEXXZ ENDP		; MemPooler<CMover>::Destroy
_TEXT	ENDS
PUBLIC	?Destroy@?$MemPooler@VCGuildMember@@@@IAEXXZ	; MemPooler<CGuildMember>::Destroy
; Function compile flags: /Ogty
;	COMDAT ?Destroy@?$MemPooler@VCGuildMember@@@@IAEXXZ
_TEXT	SEGMENT
?Destroy@?$MemPooler@VCGuildMember@@@@IAEXXZ PROC NEAR	; MemPooler<CGuildMember>::Destroy, COMDAT
; _this$ = ecx

; 144  : 	{

  00000	56		 push	 esi
  00001	57		 push	 edi
  00002	8b f9		 mov	 edi, ecx

; 145  : #ifdef __VERIFY_MEMPOOL
; 146  : 		return;
; 147  : #endif
; 148  : 		for( list<void*>::iterator i = m_ListOfMemBlockPtr.begin(); i != m_ListOfMemBlockPtr.end(); ++i )

  00004	8b 47 08	 mov	 eax, DWORD PTR [edi+8]
  00007	8b 30		 mov	 esi, DWORD PTR [eax]
  00009	3b f0		 cmp	 esi, eax
  0000b	74 1c		 je	 SHORT $L214377
  0000d	53		 push	 ebx
  0000e	8b 1d 00 00 00
	00		 mov	 ebx, DWORD PTR __imp__VirtualFree@12
$L219077:

; 149  : 			VirtualFree( *i, 0, MEM_RELEASE );

  00014	8b 46 08	 mov	 eax, DWORD PTR [esi+8]
  00017	68 00 80 00 00	 push	 32768			; 00008000H
  0001c	6a 00		 push	 0
  0001e	50		 push	 eax
  0001f	ff d3		 call	 ebx
  00021	8b 36		 mov	 esi, DWORD PTR [esi]
  00023	3b 77 08	 cmp	 esi, DWORD PTR [edi+8]
  00026	75 ec		 jne	 SHORT $L219077
  00028	5b		 pop	 ebx
$L214377:

; 150  : 		m_ListOfMemBlockPtr.clear();

  00029	8b 4f 08	 mov	 ecx, DWORD PTR [edi+8]
  0002c	8b 01		 mov	 eax, DWORD PTR [ecx]
  0002e	89 09		 mov	 DWORD PTR [ecx], ecx
  00030	8b 4f 08	 mov	 ecx, DWORD PTR [edi+8]
  00033	89 49 04	 mov	 DWORD PTR [ecx+4], ecx
  00036	3b 47 08	 cmp	 eax, DWORD PTR [edi+8]
  00039	c7 47 0c 00 00
	00 00		 mov	 DWORD PTR [edi+12], 0
  00040	74 14		 je	 SHORT $L219148
$L219146:
  00042	8b 30		 mov	 esi, DWORD PTR [eax]
  00044	50		 push	 eax
  00045	e8 00 00 00 00	 call	 ??3@YAXPAX@Z		; operator delete
  0004a	8b 4f 08	 mov	 ecx, DWORD PTR [edi+8]
  0004d	83 c4 04	 add	 esp, 4
  00050	3b f1		 cmp	 esi, ecx
  00052	8b c6		 mov	 eax, esi
  00054	75 ec		 jne	 SHORT $L219146
$L219148:

; 151  : 
; 152  : 		DeleteCriticalSection( &m_cs );		

  00056	83 c7 1c	 add	 edi, 28			; 0000001cH
  00059	57		 push	 edi
  0005a	ff 15 00 00 00
	00		 call	 DWORD PTR __imp__DeleteCriticalSection@4
  00060	5f		 pop	 edi
  00061	5e		 pop	 esi

; 153  : 	}

  00062	c3		 ret	 0
?Destroy@?$MemPooler@VCGuildMember@@@@IAEXXZ ENDP	; MemPooler<CGuildMember>::Destroy
_TEXT	ENDS
PUBLIC	?Destroy@?$MemPooler@VCGuild@@@@IAEXXZ		; MemPooler<CGuild>::Destroy
; Function compile flags: /Ogty
;	COMDAT ?Destroy@?$MemPooler@VCGuild@@@@IAEXXZ
_TEXT	SEGMENT
?Destroy@?$MemPooler@VCGuild@@@@IAEXXZ PROC NEAR	; MemPooler<CGuild>::Destroy, COMDAT
; _this$ = ecx

; 144  : 	{

  00000	56		 push	 esi
  00001	57		 push	 edi
  00002	8b f9		 mov	 edi, ecx

; 145  : #ifdef __VERIFY_MEMPOOL
; 146  : 		return;
; 147  : #endif
; 148  : 		for( list<void*>::iterator i = m_ListOfMemBlockPtr.begin(); i != m_ListOfMemBlockPtr.end(); ++i )

  00004	8b 47 08	 mov	 eax, DWORD PTR [edi+8]
  00007	8b 30		 mov	 esi, DWORD PTR [eax]
  00009	3b f0		 cmp	 esi, eax
  0000b	74 1c		 je	 SHORT $L214402
  0000d	53		 push	 ebx
  0000e	8b 1d 00 00 00
	00		 mov	 ebx, DWORD PTR __imp__VirtualFree@12
$L219200:

; 149  : 			VirtualFree( *i, 0, MEM_RELEASE );

  00014	8b 46 08	 mov	 eax, DWORD PTR [esi+8]
  00017	68 00 80 00 00	 push	 32768			; 00008000H
  0001c	6a 00		 push	 0
  0001e	50		 push	 eax
  0001f	ff d3		 call	 ebx
  00021	8b 36		 mov	 esi, DWORD PTR [esi]
  00023	3b 77 08	 cmp	 esi, DWORD PTR [edi+8]
  00026	75 ec		 jne	 SHORT $L219200
  00028	5b		 pop	 ebx
$L214402:

; 150  : 		m_ListOfMemBlockPtr.clear();

  00029	8b 4f 08	 mov	 ecx, DWORD PTR [edi+8]
  0002c	8b 01		 mov	 eax, DWORD PTR [ecx]
  0002e	89 09		 mov	 DWORD PTR [ecx], ecx
  00030	8b 4f 08	 mov	 ecx, DWORD PTR [edi+8]
  00033	89 49 04	 mov	 DWORD PTR [ecx+4], ecx
  00036	3b 47 08	 cmp	 eax, DWORD PTR [edi+8]
  00039	c7 47 0c 00 00
	00 00		 mov	 DWORD PTR [edi+12], 0
  00040	74 14		 je	 SHORT $L219274
$L219272:
  00042	8b 30		 mov	 esi, DWORD PTR [eax]
  00044	50		 push	 eax
  00045	e8 00 00 00 00	 call	 ??3@YAXPAX@Z		; operator delete
  0004a	8b 4f 08	 mov	 ecx, DWORD PTR [edi+8]
  0004d	83 c4 04	 add	 esp, 4
  00050	3b f1		 cmp	 esi, ecx
  00052	8b c6		 mov	 eax, esi
  00054	75 ec		 jne	 SHORT $L219272
$L219274:

; 151  : 
; 152  : 		DeleteCriticalSection( &m_cs );		

  00056	83 c7 1c	 add	 edi, 28			; 0000001cH
  00059	57		 push	 edi
  0005a	ff 15 00 00 00
	00		 call	 DWORD PTR __imp__DeleteCriticalSection@4
  00060	5f		 pop	 edi
  00061	5e		 pop	 esi

; 153  : 	}

  00062	c3		 ret	 0
?Destroy@?$MemPooler@VCGuild@@@@IAEXXZ ENDP		; MemPooler<CGuild>::Destroy
_TEXT	ENDS
PUBLIC	??Fiterator@?$_Tree@V?$_Tset_traits@V?$basic_string@DU?$char_traits@D@std@@V?$allocator@D@2@@std@@U?$less@V?$basic_string@DU?$char_traits@D@std@@V?$allocator@D@2@@std@@@2@V?$allocator@V?$basic_string@DU?$char_traits@D@std@@V?$allocator@D@2@@std@@@2@$0A@@std@@@std@@QAEAAV012@XZ ; std::_Tree<std::_Tset_traits<std::basic_string<char,std::char_traits<char>,std::allocator<char> >,std::less<std::basic_string<char,std::char_traits<char>,std::allocator<char> > >,std::allocator<std::basic_string<char,std::char_traits<char>,std::allocator<char> > >,0> >::iterator::operator--
; Function compile flags: /Ogty
; File c:\program files\microsoft visual studio .net 2003\vc7\include\xtree
;	COMDAT ??Fiterator@?$_Tree@V?$_Tset_traits@V?$basic_string@DU?$char_traits@D@std@@V?$allocator@D@2@@std@@U?$less@V?$basic_string@DU?$char_traits@D@std@@V?$allocator@D@2@@std@@@2@V?$allocator@V?$basic_string@DU?$char_traits@D@std@@V?$allocator@D@2@@std@@@2@$0A@@std@@@std@@QAEAAV012@XZ
_TEXT	SEGMENT
??Fiterator@?$_Tree@V?$_Tset_traits@V?$basic_string@DU?$char_traits@D@std@@V?$allocator@D@2@@std@@U?$less@V?$basic_string@DU?$char_traits@D@std@@V?$allocator@D@2@@std@@@2@V?$allocator@V?$basic_string@DU?$char_traits@D@std@@V?$allocator@D@2@@std@@@2@$0A@@std@@@std@@QAEAAV012@XZ PROC NEAR ; std::_Tree<std::_Tset_traits<std::basic_string<char,std::char_traits<char>,std::allocator<char> >,std::less<std::basic_string<char,std::char_traits<char>,std::allocator<char> > >,std::allocator<std::basic_string<char,std::char_traits<char>,std::allocator<char> > >,0> >::iterator::operator--, COMDAT
; _this$ = ecx

; 339  : 			{	// predecrement

  00000	56		 push	 esi
  00001	8b f1		 mov	 esi, ecx

; 340  : 			--(*(const_iterator *)this);

  00003	e8 00 00 00 00	 call	 ?_Dec@const_iterator@?$_Tree@V?$_Tset_traits@V?$basic_string@DU?$char_traits@D@std@@V?$allocator@D@2@@std@@U?$less@V?$basic_string@DU?$char_traits@D@std@@V?$allocator@D@2@@std@@@2@V?$allocator@V?$basic_string@DU?$char_traits@D@std@@V?$allocator@D@2@@std@@@2@$0A@@std@@@std@@QAEXXZ ; std::_Tree<std::_Tset_traits<std::basic_string<char,std::char_traits<char>,std::allocator<char> >,std::less<std::basic_string<char,std::char_traits<char>,std::allocator<char> > >,std::allocator<std::basic_string<char,std::char_traits<char>,std::allocator<char> > >,0> >::const_iterator::_Dec

; 341  : 			return (*this);

  00008	8b c6		 mov	 eax, esi
  0000a	5e		 pop	 esi

; 342  : 			}

  0000b	c3		 ret	 0
??Fiterator@?$_Tree@V?$_Tset_traits@V?$basic_string@DU?$char_traits@D@std@@V?$allocator@D@2@@std@@U?$less@V?$basic_string@DU?$char_traits@D@std@@V?$allocator@D@2@@std@@@2@V?$allocator@V?$basic_string@DU?$char_traits@D@std@@V?$allocator@D@2@@std@@@2@$0A@@std@@@std@@QAEAAV012@XZ ENDP ; std::_Tree<std::_Tset_traits<std::basic_string<char,std::char_traits<char>,std::allocator<char> >,std::less<std::basic_string<char,std::char_traits<char>,std::allocator<char> > >,std::allocator<std::basic_string<char,std::char_traits<char>,std::allocator<char> > >,0> >::iterator::operator--
_TEXT	ENDS
PUBLIC	?_Copy@?$_Tree@V?$_Tmap_traits@EHU?$less@E@std@@V?$allocator@U?$pair@$$CBEH@std@@@2@$0A@@std@@@std@@IAEPAU_Node@?$_Tree_nod@V?$_Tmap_traits@EHU?$less@E@std@@V?$allocator@U?$pair@$$CBEH@std@@@2@$0A@@std@@@2@PAU342@0@Z ; std::_Tree<std::_Tmap_traits<unsigned char,int,std::less<unsigned char>,std::allocator<std::pair<unsigned char const ,int> >,0> >::_Copy
;	COMDAT xdata$x
xdata$x	SEGMENT
$T219316 DD	0ffffffffH
	DD	00H
	DD	0ffffffffH
	DD	00H
$T219318 DD	00H
	DD	00H
	DD	00H
	DD	FLAT:$L219287
$T219317 DD	00H
	DD	00H
	DD	01H
	DD	01H
	DD	FLAT:$T219318
$T219313 DD	019930520H
	DD	02H
	DD	FLAT:$T219316
	DD	01H
	DD	FLAT:$T219317
	DD	2 DUP(00H)
; Function compile flags: /Ogty
xdata$x	ENDS
;	COMDAT ?_Copy@?$_Tree@V?$_Tmap_traits@EHU?$less@E@std@@V?$allocator@U?$pair@$$CBEH@std@@@2@$0A@@std@@@std@@IAEPAU_Node@?$_Tree_nod@V?$_Tmap_traits@EHU?$less@E@std@@V?$allocator@U?$pair@$$CBEH@std@@@2@$0A@@std@@@2@PAU342@0@Z
_TEXT	SEGMENT
_this$ = -24						; size = 4
__Newroot$ = -20					; size = 4
__$EHRec$ = -16						; size = 16
__Rootnode$ = 8						; size = 4
__Wherenode$ = 12					; size = 4
?_Copy@?$_Tree@V?$_Tmap_traits@EHU?$less@E@std@@V?$allocator@U?$pair@$$CBEH@std@@@2@$0A@@std@@@std@@IAEPAU_Node@?$_Tree_nod@V?$_Tmap_traits@EHU?$less@E@std@@V?$allocator@U?$pair@$$CBEH@std@@@2@$0A@@std@@@2@PAU342@0@Z PROC NEAR ; std::_Tree<std::_Tmap_traits<unsigned char,int,std::less<unsigned char>,std::allocator<std::pair<unsigned char const ,int> >,0> >::_Copy, COMDAT
; _this$ = ecx

; 867  : 		{	// copy entire subtree, recursively

  00000	55		 push	 ebp
  00001	8b ec		 mov	 ebp, esp
  00003	6a ff		 push	 -1
  00005	68 00 00 00 00	 push	 __ehhandler$?_Copy@?$_Tree@V?$_Tmap_traits@EHU?$less@E@std@@V?$allocator@U?$pair@$$CBEH@std@@@2@$0A@@std@@@std@@IAEPAU_Node@?$_Tree_nod@V?$_Tmap_traits@EHU?$less@E@std@@V?$allocator@U?$pair@$$CBEH@std@@@2@$0A@@std@@@2@PAU342@0@Z
  0000a	64 a1 00 00 00
	00		 mov	 eax, DWORD PTR fs:__except_list
  00010	50		 push	 eax
  00011	64 89 25 00 00
	00 00		 mov	 DWORD PTR fs:__except_list, esp
  00018	83 ec 0c	 sub	 esp, 12			; 0000000cH
  0001b	53		 push	 ebx

; 868  : 		_Nodeptr _Newroot = _Myhead;	// point at nil node
; 869  : 
; 870  : 		if (!_Isnil(_Rootnode))

  0001c	8b 5d 08	 mov	 ebx, DWORD PTR __Rootnode$[ebp]
  0001f	56		 push	 esi
  00020	8b f1		 mov	 esi, ecx
  00022	8b 46 04	 mov	 eax, DWORD PTR [esi+4]
  00025	89 45 ec	 mov	 DWORD PTR __Newroot$[ebp], eax
  00028	8a 43 15	 mov	 al, BYTE PTR [ebx+21]
  0002b	84 c0		 test	 al, al
  0002d	57		 push	 edi
  0002e	89 65 f0	 mov	 DWORD PTR __$EHRec$[ebp], esp
  00031	89 75 e8	 mov	 DWORD PTR _this$[ebp], esi
  00034	75 4c		 jne	 SHORT $L214686

; 871  : 			{	// copy a node, then any subtrees
; 872  : 			_Nodeptr _Pnode = _Buynode(_Myhead, _Wherenode, _Myhead,
; 873  : 				_Myval(_Rootnode), _Color(_Rootnode));

  00036	8b 46 04	 mov	 eax, DWORD PTR [esi+4]
  00039	33 c9		 xor	 ecx, ecx
  0003b	8a 4b 14	 mov	 cl, BYTE PTR [ebx+20]
  0003e	8d 53 0c	 lea	 edx, DWORD PTR [ebx+12]
  00041	51		 push	 ecx
  00042	8b 4d 0c	 mov	 ecx, DWORD PTR __Wherenode$[ebp]
  00045	52		 push	 edx
  00046	50		 push	 eax
  00047	51		 push	 ecx
  00048	50		 push	 eax
  00049	8b ce		 mov	 ecx, esi
  0004b	e8 00 00 00 00	 call	 ?_Buynode@?$_Tree@V?$_Tmap_traits@EHU?$less@E@std@@V?$allocator@U?$pair@$$CBEH@std@@@2@$0A@@std@@@std@@IAEPAU_Node@?$_Tree_nod@V?$_Tmap_traits@EHU?$less@E@std@@V?$allocator@U?$pair@$$CBEH@std@@@2@$0A@@std@@@2@PAU342@00ABU?$pair@$$CBEH@2@D@Z ; std::_Tree<std::_Tmap_traits<unsigned char,int,std::less<unsigned char>,std::allocator<std::pair<unsigned char const ,int> >,0> >::_Buynode

; 874  : 			if (_Isnil(_Newroot))

  00050	8b 55 ec	 mov	 edx, DWORD PTR __Newroot$[ebp]
  00053	8b f8		 mov	 edi, eax
  00055	8a 42 15	 mov	 al, BYTE PTR [edx+21]
  00058	84 c0		 test	 al, al
  0005a	74 03		 je	 SHORT $L214685

; 875  : 				_Newroot = _Pnode;	// memorize new root

  0005c	89 7d ec	 mov	 DWORD PTR __Newroot$[ebp], edi
$L214685:

; 876  : 
; 877  : 			_TRY_BEGIN
; 878  : 			_Left(_Pnode) = _Copy(_Left(_Rootnode), _Pnode);

  0005f	8b 03		 mov	 eax, DWORD PTR [ebx]
  00061	57		 push	 edi
  00062	50		 push	 eax
  00063	8b ce		 mov	 ecx, esi
  00065	c7 45 fc 00 00
	00 00		 mov	 DWORD PTR __$EHRec$[ebp+12], 0
  0006c	e8 00 00 00 00	 call	 ?_Copy@?$_Tree@V?$_Tmap_traits@EHU?$less@E@std@@V?$allocator@U?$pair@$$CBEH@std@@@2@$0A@@std@@@std@@IAEPAU_Node@?$_Tree_nod@V?$_Tmap_traits@EHU?$less@E@std@@V?$allocator@U?$pair@$$CBEH@std@@@2@$0A@@std@@@2@PAU342@0@Z ; std::_Tree<std::_Tmap_traits<unsigned char,int,std::less<unsigned char>,std::allocator<std::pair<unsigned char const ,int> >,0> >::_Copy
  00071	89 07		 mov	 DWORD PTR [edi], eax

; 879  : 			_Right(_Pnode) = _Copy(_Right(_Rootnode), _Pnode);

  00073	8b 4b 08	 mov	 ecx, DWORD PTR [ebx+8]
  00076	57		 push	 edi
  00077	51		 push	 ecx
  00078	8b ce		 mov	 ecx, esi
  0007a	e8 00 00 00 00	 call	 ?_Copy@?$_Tree@V?$_Tmap_traits@EHU?$less@E@std@@V?$allocator@U?$pair@$$CBEH@std@@@2@$0A@@std@@@std@@IAEPAU_Node@?$_Tree_nod@V?$_Tmap_traits@EHU?$less@E@std@@V?$allocator@U?$pair@$$CBEH@std@@@2@$0A@@std@@@2@PAU342@0@Z ; std::_Tree<std::_Tmap_traits<unsigned char,int,std::less<unsigned char>,std::allocator<std::pair<unsigned char const ,int> >,0> >::_Copy
  0007f	89 47 08	 mov	 DWORD PTR [edi+8], eax
$L214686:

; 883  : 			_CATCH_END
; 884  : 			}
; 885  : 
; 886  : 		return (_Newroot);	// return newly constructed tree
; 887  : 		}

  00082	8b 4d f4	 mov	 ecx, DWORD PTR __$EHRec$[ebp+4]
  00085	8b 45 ec	 mov	 eax, DWORD PTR __Newroot$[ebp]
  00088	5f		 pop	 edi
  00089	5e		 pop	 esi
  0008a	64 89 0d 00 00
	00 00		 mov	 DWORD PTR fs:__except_list, ecx
  00091	5b		 pop	 ebx
  00092	8b e5		 mov	 esp, ebp
  00094	5d		 pop	 ebp
  00095	c2 08 00	 ret	 8
$L219287:

; 880  : 			_CATCH_ALL
; 881  : 			_Erase(_Newroot);	// subtree copy failed, bail out

  00098	8b 55 ec	 mov	 edx, DWORD PTR __Newroot$[ebp]
  0009b	8b 4d e8	 mov	 ecx, DWORD PTR _this$[ebp]
  0009e	52		 push	 edx
  0009f	e8 00 00 00 00	 call	 ?_Erase@?$_Tree@V?$_Tmap_traits@EHU?$less@E@std@@V?$allocator@U?$pair@$$CBEH@std@@@2@$0A@@std@@@std@@IAEXPAU_Node@?$_Tree_nod@V?$_Tmap_traits@EHU?$less@E@std@@V?$allocator@U?$pair@$$CBEH@std@@@2@$0A@@std@@@2@@Z ; std::_Tree<std::_Tmap_traits<unsigned char,int,std::less<unsigned char>,std::allocator<std::pair<unsigned char const ,int> >,0> >::_Erase

; 882  : 			_RERAISE;

  000a4	6a 00		 push	 0
  000a6	6a 00		 push	 0
  000a8	e8 00 00 00 00	 call	 __CxxThrowException@8
$L219315:
  000ad	cc		 int	 3
_TEXT	ENDS
;	COMDAT text$x
text$x	SEGMENT
__ehhandler$?_Copy@?$_Tree@V?$_Tmap_traits@EHU?$less@E@std@@V?$allocator@U?$pair@$$CBEH@std@@@2@$0A@@std@@@std@@IAEPAU_Node@?$_Tree_nod@V?$_Tmap_traits@EHU?$less@E@std@@V?$allocator@U?$pair@$$CBEH@std@@@2@$0A@@std@@@2@PAU342@0@Z:
  00000	b8 00 00 00 00	 mov	 eax, OFFSET FLAT:$T219313
  00005	e9 00 00 00 00	 jmp	 ___CxxFrameHandler
text$x	ENDS
?_Copy@?$_Tree@V?$_Tmap_traits@EHU?$less@E@std@@V?$allocator@U?$pair@$$CBEH@std@@@2@$0A@@std@@@std@@IAEPAU_Node@?$_Tree_nod@V?$_Tmap_traits@EHU?$less@E@std@@V?$allocator@U?$pair@$$CBEH@std@@@2@$0A@@std@@@2@PAU342@0@Z ENDP ; std::_Tree<std::_Tmap_traits<unsigned char,int,std::less<unsigned char>,std::allocator<std::pair<unsigned char const ,int> >,0> >::_Copy
PUBLIC	?clear@?$_Tree@V?$_Tmap_traits@EHU?$less@E@std@@V?$allocator@U?$pair@$$CBEH@std@@@2@$0A@@std@@@std@@QAEXXZ ; std::_Tree<std::_Tmap_traits<unsigned char,int,std::less<unsigned char>,std::allocator<std::pair<unsigned char const ,int> >,0> >::clear
; Function compile flags: /Ogty
;	COMDAT ?clear@?$_Tree@V?$_Tmap_traits@EHU?$less@E@std@@V?$allocator@U?$pair@$$CBEH@std@@@2@$0A@@std@@@std@@QAEXXZ
_TEXT	SEGMENT
?clear@?$_Tree@V?$_Tmap_traits@EHU?$less@E@std@@V?$allocator@U?$pair@$$CBEH@std@@@2@$0A@@std@@@std@@QAEXXZ PROC NEAR ; std::_Tree<std::_Tmap_traits<unsigned char,int,std::less<unsigned char>,std::allocator<std::pair<unsigned char const ,int> >,0> >::clear, COMDAT
; _this$ = ecx

; 780  : 		{	// erase all

  00000	56		 push	 esi
  00001	8b f1		 mov	 esi, ecx

; 781  : 		_Erase(_Root());

  00003	8b 46 04	 mov	 eax, DWORD PTR [esi+4]
  00006	8b 48 04	 mov	 ecx, DWORD PTR [eax+4]
  00009	51		 push	 ecx
  0000a	8b ce		 mov	 ecx, esi
  0000c	e8 00 00 00 00	 call	 ?_Erase@?$_Tree@V?$_Tmap_traits@EHU?$less@E@std@@V?$allocator@U?$pair@$$CBEH@std@@@2@$0A@@std@@@std@@IAEXPAU_Node@?$_Tree_nod@V?$_Tmap_traits@EHU?$less@E@std@@V?$allocator@U?$pair@$$CBEH@std@@@2@$0A@@std@@@2@@Z ; std::_Tree<std::_Tmap_traits<unsigned char,int,std::less<unsigned char>,std::allocator<std::pair<unsigned char const ,int> >,0> >::_Erase

; 782  : 		_Root() = _Myhead, _Mysize = 0;

  00011	8b 46 04	 mov	 eax, DWORD PTR [esi+4]
  00014	89 40 04	 mov	 DWORD PTR [eax+4], eax

; 783  : 		_Lmost() = _Myhead, _Rmost() = _Myhead;

  00017	8b 46 04	 mov	 eax, DWORD PTR [esi+4]
  0001a	c7 46 08 00 00
	00 00		 mov	 DWORD PTR [esi+8], 0
  00021	89 00		 mov	 DWORD PTR [eax], eax
  00023	8b 76 04	 mov	 esi, DWORD PTR [esi+4]
  00026	89 76 08	 mov	 DWORD PTR [esi+8], esi
  00029	5e		 pop	 esi

; 784  : 		}

  0002a	c3		 ret	 0
?clear@?$_Tree@V?$_Tmap_traits@EHU?$less@E@std@@V?$allocator@U?$pair@$$CBEH@std@@@2@$0A@@std@@@std@@QAEXXZ ENDP ; std::_Tree<std::_Tmap_traits<unsigned char,int,std::less<unsigned char>,std::allocator<std::pair<unsigned char const ,int> >,0> >::clear
_TEXT	ENDS
PUBLIC	??Eiterator@?$_Tree@V?$_Tmap_traits@EHU?$less@E@std@@V?$allocator@U?$pair@$$CBEH@std@@@2@$0A@@std@@@std@@QAE?AV012@H@Z ; std::_Tree<std::_Tmap_traits<unsigned char,int,std::less<unsigned char>,std::allocator<std::pair<unsigned char const ,int> >,0> >::iterator::operator++
; Function compile flags: /Ogty
;	COMDAT ??Eiterator@?$_Tree@V?$_Tmap_traits@EHU?$less@E@std@@V?$allocator@U?$pair@$$CBEH@std@@@2@$0A@@std@@@std@@QAE?AV012@H@Z
_TEXT	SEGMENT
___$ReturnUdt$ = 8					; size = 4
___formal$ = 12						; size = 4
??Eiterator@?$_Tree@V?$_Tmap_traits@EHU?$less@E@std@@V?$allocator@U?$pair@$$CBEH@std@@@2@$0A@@std@@@std@@QAE?AV012@H@Z PROC NEAR ; std::_Tree<std::_Tmap_traits<unsigned char,int,std::less<unsigned char>,std::allocator<std::pair<unsigned char const ,int> >,0> >::iterator::operator++, COMDAT
; _this$ = ecx

; 332  : 			{	// postincrement

  00000	56		 push	 esi

; 333  : 			iterator _Tmp = *this;

  00001	8b 31		 mov	 esi, DWORD PTR [ecx]

; 334  : 			++*this;

  00003	e8 00 00 00 00	 call	 ?_Inc@const_iterator@?$_Tree@V?$_Tmap_traits@EHU?$less@E@std@@V?$allocator@U?$pair@$$CBEH@std@@@2@$0A@@std@@@std@@QAEXXZ ; std::_Tree<std::_Tmap_traits<unsigned char,int,std::less<unsigned char>,std::allocator<std::pair<unsigned char const ,int> >,0> >::const_iterator::_Inc

; 335  : 			return (_Tmp);

  00008	8b 44 24 08	 mov	 eax, DWORD PTR ___$ReturnUdt$[esp]
  0000c	89 30		 mov	 DWORD PTR [eax], esi
  0000e	5e		 pop	 esi

; 336  : 			}

  0000f	c2 08 00	 ret	 8
??Eiterator@?$_Tree@V?$_Tmap_traits@EHU?$less@E@std@@V?$allocator@U?$pair@$$CBEH@std@@@2@$0A@@std@@@std@@QAE?AV012@H@Z ENDP ; std::_Tree<std::_Tmap_traits<unsigned char,int,std::less<unsigned char>,std::allocator<std::pair<unsigned char const ,int> >,0> >::iterator::operator++
_TEXT	ENDS
PUBLIC	?GetBuffer@?$CSimpleStringT@D$0A@@ATL@@QAEPADH@Z ; ATL::CSimpleStringT<char,0>::GetBuffer
; Function compile flags: /Ogty
; File c:\program files\microsoft visual studio .net 2003\vc7\atlmfc\include\atlsimpstr.h
;	COMDAT ?GetBuffer@?$CSimpleStringT@D$0A@@ATL@@QAEPADH@Z
_TEXT	SEGMENT
_nMinBufferLength$ = 8					; size = 4
?GetBuffer@?$CSimpleStringT@D$0A@@ATL@@QAEPADH@Z PROC NEAR ; ATL::CSimpleStringT<char,0>::GetBuffer, COMDAT
; _this$ = ecx

; 489  : 	{

  00000	56		 push	 esi
  00001	8b f1		 mov	 esi, ecx

; 490  : 		return( PrepareWrite( nMinBufferLength ) );

  00003	8b 06		 mov	 eax, DWORD PTR [esi]
  00005	8b 50 fc	 mov	 edx, DWORD PTR [eax-4]
  00008	83 e8 10	 sub	 eax, 16			; 00000010H
  0000b	b9 01 00 00 00	 mov	 ecx, 1
  00010	2b ca		 sub	 ecx, edx
  00012	8b 50 08	 mov	 edx, DWORD PTR [eax+8]
  00015	8b 44 24 08	 mov	 eax, DWORD PTR _nMinBufferLength$[esp]
  00019	2b d0		 sub	 edx, eax
  0001b	0b ca		 or	 ecx, edx
  0001d	7d 08		 jge	 SHORT $L219380
  0001f	50		 push	 eax
  00020	8b ce		 mov	 ecx, esi
  00022	e8 00 00 00 00	 call	 ?PrepareWrite2@?$CSimpleStringT@D$0A@@ATL@@AAEXH@Z ; ATL::CSimpleStringT<char,0>::PrepareWrite2
$L219380:
  00027	8b 06		 mov	 eax, DWORD PTR [esi]
  00029	5e		 pop	 esi

; 491  : 	}

  0002a	c2 04 00	 ret	 4
?GetBuffer@?$CSimpleStringT@D$0A@@ATL@@QAEPADH@Z ENDP	; ATL::CSimpleStringT<char,0>::GetBuffer
_TEXT	ENDS
PUBLIC	??1?$basic_string@DU?$char_traits@D@std@@V?$allocator@D@2@@std@@QAE@XZ ; std::basic_string<char,std::char_traits<char>,std::allocator<char> >::~basic_string<char,std::char_traits<char>,std::allocator<char> >
; Function compile flags: /Ogty
; File c:\program files\microsoft visual studio .net 2003\vc7\include\xstring
;	COMDAT ??1?$basic_string@DU?$char_traits@D@std@@V?$allocator@D@2@@std@@QAE@XZ
_TEXT	SEGMENT
??1?$basic_string@DU?$char_traits@D@std@@V?$allocator@D@2@@std@@QAE@XZ PROC NEAR ; std::basic_string<char,std::char_traits<char>,std::allocator<char> >::~basic_string<char,std::char_traits<char>,std::allocator<char> >, COMDAT
; _this$ = ecx

; 456  : 		{	// destroy the string

  00000	56		 push	 esi
  00001	8b f1		 mov	 esi, ecx

; 457  : 		_Tidy(true);

  00003	83 7e 18 10	 cmp	 DWORD PTR [esi+24], 16	; 00000010H
  00007	72 0c		 jb	 SHORT $L219423
  00009	8b 46 04	 mov	 eax, DWORD PTR [esi+4]
  0000c	50		 push	 eax
  0000d	e8 00 00 00 00	 call	 ??3@YAXPAX@Z		; operator delete
  00012	83 c4 04	 add	 esp, 4
$L219423:
  00015	33 c0		 xor	 eax, eax
  00017	c7 46 18 0f 00
	00 00		 mov	 DWORD PTR [esi+24], 15	; 0000000fH
  0001e	89 46 14	 mov	 DWORD PTR [esi+20], eax
  00021	88 46 04	 mov	 BYTE PTR [esi+4], al
  00024	5e		 pop	 esi

; 458  : 		}

  00025	c3		 ret	 0
??1?$basic_string@DU?$char_traits@D@std@@V?$allocator@D@2@@std@@QAE@XZ ENDP ; std::basic_string<char,std::char_traits<char>,std::allocator<char> >::~basic_string<char,std::char_traits<char>,std::allocator<char> >
_TEXT	ENDS
PUBLIC	?LoadStringA@?$CStringT@DV?$StrTraitMFC@DV?$ChTraitsCRT@D@ATL@@@@@ATL@@QAEHPAUHINSTANCE__@@I@Z ; ATL::CStringT<char,StrTraitMFC<char,ATL::ChTraitsCRT<char> > >::LoadStringA
; Function compile flags: /Ogty
; File c:\program files\microsoft visual studio .net 2003\vc7\atlmfc\include\cstringt.h
;	COMDAT ?LoadStringA@?$CStringT@DV?$StrTraitMFC@DV?$ChTraitsCRT@D@ATL@@@@@ATL@@QAEHPAUHINSTANCE__@@I@Z
_TEXT	SEGMENT
_hInstance$ = 8						; size = 4
_nID$ = 12						; size = 4
?LoadStringA@?$CStringT@DV?$StrTraitMFC@DV?$ChTraitsCRT@D@ATL@@@@@ATL@@QAEHPAUHINSTANCE__@@I@Z PROC NEAR ; ATL::CStringT<char,StrTraitMFC<char,ATL::ChTraitsCRT<char> > >::LoadStringA, COMDAT
; _this$ = ecx

; 1981 : 	{

  00000	53		 push	 ebx
  00001	56		 push	 esi

; 1982 : 		const ATLSTRINGRESOURCEIMAGE* pImage = AtlGetStringResourceImage( hInstance, nID );

  00002	8b 74 24 10	 mov	 esi, DWORD PTR _nID$[esp+4]
  00006	8b c6		 mov	 eax, esi
  00008	c1 e8 04	 shr	 eax, 4
  0000b	57		 push	 edi
  0000c	8b 7c 24 10	 mov	 edi, DWORD PTR _hInstance$[esp+8]
  00010	40		 inc	 eax
  00011	8b d9		 mov	 ebx, ecx
  00013	0f b7 c8	 movzx	 ecx, ax
  00016	6a 06		 push	 6
  00018	51		 push	 ecx
  00019	57		 push	 edi
  0001a	ff 15 00 00 00
	00		 call	 DWORD PTR __imp__FindResourceA@12
  00020	85 c0		 test	 eax, eax
  00022	74 11		 je	 SHORT $L219511
  00024	56		 push	 esi
  00025	50		 push	 eax
  00026	57		 push	 edi
  00027	e8 00 00 00 00	 call	 ?_AtlGetStringResourceImage@ATL@@YAPBUATLSTRINGRESOURCEIMAGE@1@PAUHINSTANCE__@@PAUHRSRC__@@I@Z ; ATL::_AtlGetStringResourceImage
  0002c	8b f8		 mov	 edi, eax
  0002e	83 c4 0c	 add	 esp, 12			; 0000000cH

; 1983 : 		if( pImage == NULL )

  00031	85 ff		 test	 edi, edi
  00033	75 08		 jne	 SHORT $L184183
$L219511:
  00035	5f		 pop	 edi
  00036	5e		 pop	 esi

; 1984 : 		{
; 1985 : 			return( FALSE );

  00037	33 c0		 xor	 eax, eax
  00039	5b		 pop	 ebx

; 1994 : 	}

  0003a	c2 08 00	 ret	 8
$L184183:

; 1986 : 		}
; 1987 : 
; 1988 : 		int nLength = StringTraits::GetBaseTypeLength( pImage->achString, pImage->nLength );

  0003d	0f b7 37	 movzx	 esi, WORD PTR [edi]
  00040	55		 push	 ebp
  00041	ff 15 00 00 00
	00		 call	 DWORD PTR ?g_pfnGetThreadACP@ATL@@3P6GIXZA ; ATL::g_pfnGetThreadACP
  00047	6a 00		 push	 0
  00049	6a 00		 push	 0
  0004b	6a 00		 push	 0
  0004d	6a 00		 push	 0
  0004f	56		 push	 esi
  00050	8d 6f 02	 lea	 ebp, DWORD PTR [edi+2]
  00053	55		 push	 ebp
  00054	6a 00		 push	 0
  00056	50		 push	 eax
  00057	ff 15 00 00 00
	00		 call	 DWORD PTR __imp__WideCharToMultiByte@32
  0005d	8b f0		 mov	 esi, eax

; 1989 : 		PXSTR pszBuffer = GetBuffer( nLength );

  0005f	8b 03		 mov	 eax, DWORD PTR [ebx]
  00061	8b 48 fc	 mov	 ecx, DWORD PTR [eax-4]
  00064	83 e8 10	 sub	 eax, 16			; 00000010H
  00067	8b 40 08	 mov	 eax, DWORD PTR [eax+8]
  0006a	ba 01 00 00 00	 mov	 edx, 1
  0006f	2b d1		 sub	 edx, ecx
  00071	2b c6		 sub	 eax, esi
  00073	0b d0		 or	 edx, eax
  00075	7d 08		 jge	 SHORT $L219472
  00077	56		 push	 esi
  00078	8b cb		 mov	 ecx, ebx
  0007a	e8 00 00 00 00	 call	 ?PrepareWrite2@?$CSimpleStringT@D$0A@@ATL@@AAEXH@Z ; ATL::CSimpleStringT<char,0>::PrepareWrite2
$L219472:
  0007f	8b 03		 mov	 eax, DWORD PTR [ebx]

; 1990 : 		StringTraits::ConvertToBaseType( pszBuffer, nLength, pImage->achString, pImage->nLength );

  00081	0f b7 0f	 movzx	 ecx, WORD PTR [edi]
  00084	6a 00		 push	 0
  00086	6a 00		 push	 0
  00088	56		 push	 esi
  00089	50		 push	 eax
  0008a	51		 push	 ecx
  0008b	55		 push	 ebp
  0008c	6a 00		 push	 0
  0008e	ff 15 00 00 00
	00		 call	 DWORD PTR ?g_pfnGetThreadACP@ATL@@3P6GIXZA ; ATL::g_pfnGetThreadACP
  00094	50		 push	 eax
  00095	ff 15 00 00 00
	00		 call	 DWORD PTR __imp__WideCharToMultiByte@32

; 1991 : 		ReleaseBufferSetLength( nLength );

  0009b	85 f6		 test	 esi, esi
  0009d	5d		 pop	 ebp
  0009e	7c 1b		 jl	 SHORT $L219508
  000a0	8b 03		 mov	 eax, DWORD PTR [ebx]
  000a2	3b 70 f8	 cmp	 esi, DWORD PTR [eax-8]
  000a5	7f 14		 jg	 SHORT $L219508
  000a7	89 70 f4	 mov	 DWORD PTR [eax-12], esi
  000aa	8b 0b		 mov	 ecx, DWORD PTR [ebx]
  000ac	5f		 pop	 edi
  000ad	c6 04 0e 00	 mov	 BYTE PTR [esi+ecx], 0
  000b1	5e		 pop	 esi

; 1992 : 
; 1993 : 		return( TRUE );

  000b2	b8 01 00 00 00	 mov	 eax, 1
  000b7	5b		 pop	 ebx

; 1994 : 	}

  000b8	c2 08 00	 ret	 8
$L219508:
  000bb	68 57 00 07 80	 push	 -2147024809		; 80070057H
  000c0	e8 00 00 00 00	 call	 ?AtlThrow@ATL@@YGXJ@Z	; ATL::AtlThrow
$L219512:
  000c5	cc		 int	 3
?LoadStringA@?$CStringT@DV?$StrTraitMFC@DV?$ChTraitsCRT@D@ATL@@@@@ATL@@QAEHPAUHINSTANCE__@@I@Z ENDP ; ATL::CStringT<char,StrTraitMFC<char,ATL::ChTraitsCRT<char> > >::LoadStringA
_TEXT	ENDS
PUBLIC	??R?$less@V?$basic_string@DU?$char_traits@D@std@@V?$allocator@D@2@@std@@@std@@QBE_NABV?$basic_string@DU?$char_traits@D@std@@V?$allocator@D@2@@1@0@Z ; std::less<std::basic_string<char,std::char_traits<char>,std::allocator<char> > >::operator()
; Function compile flags: /Ogty
; File c:\program files\microsoft visual studio .net 2003\vc7\include\functional
;	COMDAT ??R?$less@V?$basic_string@DU?$char_traits@D@std@@V?$allocator@D@2@@std@@@std@@QBE_NABV?$basic_string@DU?$char_traits@D@std@@V?$allocator@D@2@@1@0@Z
_TEXT	SEGMENT
__Left$ = 8						; size = 4
__Right$ = 12						; size = 4
??R?$less@V?$basic_string@DU?$char_traits@D@std@@V?$allocator@D@2@@std@@@std@@QBE_NABV?$basic_string@DU?$char_traits@D@std@@V?$allocator@D@2@@1@0@Z PROC NEAR ; std::less<std::basic_string<char,std::char_traits<char>,std::allocator<char> > >::operator(), COMDAT
; _this$ = ecx

; 139  : 		return (_Left < _Right);

  00000	8b 44 24 08	 mov	 eax, DWORD PTR __Right$[esp-4]
  00004	83 78 18 10	 cmp	 DWORD PTR [eax+24], 16	; 00000010H
  00008	8b 48 14	 mov	 ecx, DWORD PTR [eax+20]
  0000b	72 05		 jb	 SHORT $L219543
  0000d	8b 40 04	 mov	 eax, DWORD PTR [eax+4]
  00010	eb 03		 jmp	 SHORT $L219544
$L219543:
  00012	83 c0 04	 add	 eax, 4
$L219544:
  00015	51		 push	 ecx
  00016	8b 4c 24 08	 mov	 ecx, DWORD PTR __Left$[esp]
  0001a	50		 push	 eax
  0001b	8b 41 14	 mov	 eax, DWORD PTR [ecx+20]
  0001e	50		 push	 eax
  0001f	6a 00		 push	 0
  00021	e8 00 00 00 00	 call	 ?compare@?$basic_string@DU?$char_traits@D@std@@V?$allocator@D@2@@std@@QBEHIIPBDI@Z ; std::basic_string<char,std::char_traits<char>,std::allocator<char> >::compare
  00026	33 c9		 xor	 ecx, ecx
  00028	85 c0		 test	 eax, eax
  0002a	0f 9c c1	 setl	 cl
  0002d	8a c1		 mov	 al, cl

; 140  : 		}

  0002f	c2 08 00	 ret	 8
??R?$less@V?$basic_string@DU?$char_traits@D@std@@V?$allocator@D@2@@std@@@std@@QBE_NABV?$basic_string@DU?$char_traits@D@std@@V?$allocator@D@2@@1@0@Z ENDP ; std::less<std::basic_string<char,std::char_traits<char>,std::allocator<char> > >::operator()
_TEXT	ENDS
PUBLIC	?SetString@?$CSimpleStringT@D$0A@@ATL@@QAEXPBDH@Z ; ATL::CSimpleStringT<char,0>::SetString
; Function compile flags: /Ogty
; File c:\program files\microsoft visual studio .net 2003\vc7\atlmfc\include\atlsimpstr.h
;	COMDAT ?SetString@?$CSimpleStringT@D$0A@@ATL@@QAEXPBDH@Z
_TEXT	SEGMENT
_pszSrc$ = 8						; size = 4
_nLength$ = 12						; size = 4
?SetString@?$CSimpleStringT@D$0A@@ATL@@QAEXPBDH@Z PROC NEAR ; ATL::CSimpleStringT<char,0>::SetString, COMDAT
; _this$ = ecx

; 583  : 	{

  00000	53		 push	 ebx

; 584  : 		if( nLength == 0 )

  00001	8b 5c 24 0c	 mov	 ebx, DWORD PTR _nLength$[esp]
  00005	85 db		 test	 ebx, ebx
  00007	55		 push	 ebp
  00008	8b e9		 mov	 ebp, ecx
  0000a	75 0a		 jne	 SHORT $L184946

; 585  : 		{
; 586  : 			Empty();

  0000c	e8 00 00 00 00	 call	 ?Empty@?$CSimpleStringT@D$0A@@ATL@@QAEXXZ ; ATL::CSimpleStringT<char,0>::Empty
  00011	5d		 pop	 ebp
  00012	5b		 pop	 ebx

; 614  : 		}
; 615  : 	}

  00013	c2 08 00	 ret	 8
$L184946:

; 587  : 		}
; 588  : 		else
; 589  : 		{
; 590  : 			// It is possible that pszSrc points to a location inside of our 
; 591  : 			// buffer.  GetBuffer() might change m_pszData if (1) the buffer 
; 592  : 			// is shared or (2) the buffer is too small to hold the new 
; 593  : 			// string.  We detect this aliasing, and modify pszSrc to point
; 594  : 			// into the newly allocated buffer instead.
; 595  : 			
; 596  : 			if(pszSrc == NULL)

  00016	8b 54 24 0c	 mov	 edx, DWORD PTR _pszSrc$[esp+4]
  0001a	85 d2		 test	 edx, edx
  0001c	75 0a		 jne	 SHORT $L184948

; 612  : 			}
; 613  : 			ReleaseBufferSetLength( nLength );

$L219616:
  0001e	68 57 00 07 80	 push	 -2147024809		; 80070057H
  00023	e8 00 00 00 00	 call	 ?AtlThrow@ATL@@YGXJ@Z	; ATL::AtlThrow
$L184948:

; 597  : 				AtlThrow(E_INVALIDARG);			
; 598  : 				
; 599  : 			UINT nOldLength = GetLength();

  00028	8b 45 00	 mov	 eax, DWORD PTR [ebp]
  0002b	56		 push	 esi

; 600  : 			UINT_PTR nOffset = pszSrc-GetString();

  0002c	8b f2		 mov	 esi, edx
  0002e	2b f0		 sub	 esi, eax

; 601  : 			// If 0 <= nOffset <= nOldLength, then pszSrc points into our 
; 602  : 			// buffer
; 603  : 
; 604  : 			PXSTR pszBuffer = GetBuffer( nLength );

  00030	b9 01 00 00 00	 mov	 ecx, 1
  00035	2b 48 fc	 sub	 ecx, DWORD PTR [eax-4]
  00038	57		 push	 edi
  00039	8b 78 f4	 mov	 edi, DWORD PTR [eax-12]
  0003c	8b 40 f8	 mov	 eax, DWORD PTR [eax-8]
  0003f	2b c3		 sub	 eax, ebx
  00041	0b c8		 or	 ecx, eax
  00043	7d 0c		 jge	 SHORT $L219583
  00045	53		 push	 ebx
  00046	8b cd		 mov	 ecx, ebp
  00048	e8 00 00 00 00	 call	 ?PrepareWrite2@?$CSimpleStringT@D$0A@@ATL@@AAEXH@Z ; ATL::CSimpleStringT<char,0>::PrepareWrite2
  0004d	8b 54 24 14	 mov	 edx, DWORD PTR _pszSrc$[esp+12]
$L219583:

; 605  : 			if( nOffset <= nOldLength )

  00051	3b f7		 cmp	 esi, edi
  00053	8b 45 00	 mov	 eax, DWORD PTR [ebp]
  00056	77 10		 ja	 SHORT $L184953

; 606  : 			{
; 607  : 				CopyCharsOverlapped( pszBuffer, pszBuffer+nOffset, nLength );

  00058	53		 push	 ebx
  00059	8d 0c 30	 lea	 ecx, DWORD PTR [eax+esi]
  0005c	51		 push	 ecx
  0005d	50		 push	 eax
  0005e	e8 00 00 00 00	 call	 _memmove
  00063	83 c4 0c	 add	 esp, 12			; 0000000cH

; 608  : 			}
; 609  : 			else

  00066	eb 14		 jmp	 SHORT $L219589
$L184953:

; 610  : 			{
; 611  : 				CopyChars( pszBuffer, pszSrc, nLength );

  00068	8b cb		 mov	 ecx, ebx
  0006a	8b f2		 mov	 esi, edx
  0006c	8b d1		 mov	 edx, ecx
  0006e	c1 e9 02	 shr	 ecx, 2
  00071	8b f8		 mov	 edi, eax
  00073	f3 a5		 rep movsd
  00075	8b ca		 mov	 ecx, edx
  00077	83 e1 03	 and	 ecx, 3
  0007a	f3 a4		 rep movsb
$L219589:

; 612  : 			}
; 613  : 			ReleaseBufferSetLength( nLength );

  0007c	85 db		 test	 ebx, ebx
  0007e	5f		 pop	 edi
  0007f	5e		 pop	 esi
  00080	7c 9c		 jl	 SHORT $L219616
  00082	8b 45 00	 mov	 eax, DWORD PTR [ebp]
  00085	3b 58 f8	 cmp	 ebx, DWORD PTR [eax-8]
  00088	7f 94		 jg	 SHORT $L219616
  0008a	89 58 f4	 mov	 DWORD PTR [eax-12], ebx
  0008d	8b 45 00	 mov	 eax, DWORD PTR [ebp]
  00090	5d		 pop	 ebp
  00091	c6 04 03 00	 mov	 BYTE PTR [ebx+eax], 0
  00095	5b		 pop	 ebx

; 614  : 		}
; 615  : 	}

  00096	c2 08 00	 ret	 8
$L219619:
?SetString@?$CSimpleStringT@D$0A@@ATL@@QAEXPBDH@Z ENDP	; ATL::CSimpleStringT<char,0>::SetString
_TEXT	ENDS
PUBLIC	?_Grow@?$basic_string@DU?$char_traits@D@std@@V?$allocator@D@2@@std@@IAE_NI_N@Z ; std::basic_string<char,std::char_traits<char>,std::allocator<char> >::_Grow
EXTRN	?_Xlen@_String_base@std@@QBEXXZ:NEAR		; std::_String_base::_Xlen
; Function compile flags: /Ogty
; File c:\program files\microsoft visual studio .net 2003\vc7\include\xstring
;	COMDAT ?_Grow@?$basic_string@DU?$char_traits@D@std@@V?$allocator@D@2@@std@@IAE_NI_N@Z
_TEXT	SEGMENT
__Newsize$ = 8						; size = 4
__Trim$ = 12						; size = 1
?_Grow@?$basic_string@DU?$char_traits@D@std@@V?$allocator@D@2@@std@@IAE_NI_N@Z PROC NEAR ; std::basic_string<char,std::char_traits<char>,std::allocator<char> >::_Grow, COMDAT
; _this$ = ecx

; 1480 : 		{	// ensure buffer is big enough, trim to size if _Trim is true

  00000	55		 push	 ebp
  00001	56		 push	 esi

; 1481 : 		if (max_size() < _Newsize)

  00002	8b 74 24 0c	 mov	 esi, DWORD PTR __Newsize$[esp+4]
  00006	83 fe fe	 cmp	 esi, -2			; fffffffeH
  00009	8b e9		 mov	 ebp, ecx
  0000b	76 05		 jbe	 SHORT $L185002

; 1482 : 			_String_base::_Xlen();	// result too long

  0000d	e8 00 00 00 00	 call	 ?_Xlen@_String_base@std@@QBEXXZ ; std::_String_base::_Xlen
$L185002:

; 1483 : 		if (_Myres < _Newsize)

  00012	8b 45 18	 mov	 eax, DWORD PTR [ebp+24]
  00015	3b c6		 cmp	 eax, esi
  00017	73 19		 jae	 SHORT $L185003

; 1484 : 			_Copy(_Newsize, _Mysize);	// reallocate to grow

  00019	8b 45 14	 mov	 eax, DWORD PTR [ebp+20]
  0001c	50		 push	 eax
  0001d	56		 push	 esi
  0001e	8b cd		 mov	 ecx, ebp
  00020	e8 00 00 00 00	 call	 ?_Copy@?$basic_string@DU?$char_traits@D@std@@V?$allocator@D@2@@std@@IAEXII@Z ; std::basic_string<char,std::char_traits<char>,std::allocator<char> >::_Copy

; 1490 : 		return (0 < _Newsize);	// return true only if more work to do

  00025	33 c0		 xor	 eax, eax
  00027	3b c6		 cmp	 eax, esi
  00029	1b c0		 sbb	 eax, eax
  0002b	5e		 pop	 esi
  0002c	f7 d8		 neg	 eax
  0002e	5d		 pop	 ebp

; 1491 : 		}

  0002f	c2 08 00	 ret	 8
$L185003:

; 1485 : 		else if (_Trim && _Newsize < _BUF_SIZE)

  00032	8a 4c 24 10	 mov	 cl, BYTE PTR __Trim$[esp+4]
  00036	84 c9		 test	 cl, cl
  00038	74 5c		 je	 SHORT $L185005
  0003a	83 fe 10	 cmp	 esi, 16			; 00000010H
  0003d	73 57		 jae	 SHORT $L185005
  0003f	53		 push	 ebx

; 1486 : 			_Tidy(true,	// copy and deallocate if trimming to small string
; 1487 : 				_Newsize < _Mysize ? _Newsize : _Mysize);

  00040	8b 5d 14	 mov	 ebx, DWORD PTR [ebp+20]
  00043	3b f3		 cmp	 esi, ebx
  00045	73 02		 jae	 SHORT $L219623
  00047	8b de		 mov	 ebx, esi
$L219623:
  00049	83 f8 10	 cmp	 eax, 16			; 00000010H
  0004c	72 2b		 jb	 SHORT $L219684
  0004e	85 db		 test	 ebx, ebx
  00050	8b 45 04	 mov	 eax, DWORD PTR [ebp+4]
  00053	57		 push	 edi
  00054	8d 7d 04	 lea	 edi, DWORD PTR [ebp+4]
  00057	76 16		 jbe	 SHORT $L219682
  00059	8b cb		 mov	 ecx, ebx
  0005b	8b d1		 mov	 edx, ecx
  0005d	c1 e9 02	 shr	 ecx, 2
  00060	8b f0		 mov	 esi, eax
  00062	f3 a5		 rep movsd
  00064	8b ca		 mov	 ecx, edx
  00066	83 e1 03	 and	 ecx, 3
  00069	f3 a4		 rep movsb
  0006b	8b 74 24 14	 mov	 esi, DWORD PTR __Newsize$[esp+12]
$L219682:
  0006f	50		 push	 eax
  00070	e8 00 00 00 00	 call	 ??3@YAXPAX@Z		; operator delete
  00075	83 c4 04	 add	 esp, 4
  00078	5f		 pop	 edi
$L219684:
  00079	89 5d 14	 mov	 DWORD PTR [ebp+20], ebx

; 1490 : 		return (0 < _Newsize);	// return true only if more work to do

  0007c	33 c0		 xor	 eax, eax
  0007e	c7 45 18 0f 00
	00 00		 mov	 DWORD PTR [ebp+24], 15	; 0000000fH
  00085	c6 44 2b 04 00	 mov	 BYTE PTR [ebx+ebp+4], 0
  0008a	3b c6		 cmp	 eax, esi
  0008c	5b		 pop	 ebx
  0008d	1b c0		 sbb	 eax, eax
  0008f	5e		 pop	 esi
  00090	f7 d8		 neg	 eax
  00092	5d		 pop	 ebp

; 1491 : 		}

  00093	c2 08 00	 ret	 8
$L185005:

; 1488 : 		else if (_Newsize == 0)

  00096	85 f6		 test	 esi, esi
  00098	75 23		 jne	 SHORT $L219714

; 1489 : 			_Eos(0);	// new size is zero, just null terminate

  0009a	83 f8 10	 cmp	 eax, 16			; 00000010H
  0009d	89 75 14	 mov	 DWORD PTR [ebp+20], esi
  000a0	72 14		 jb	 SHORT $L219710
  000a2	8b 6d 04	 mov	 ebp, DWORD PTR [ebp+4]

; 1490 : 		return (0 < _Newsize);	// return true only if more work to do

  000a5	33 c0		 xor	 eax, eax
  000a7	3b c6		 cmp	 eax, esi
  000a9	1b c0		 sbb	 eax, eax
  000ab	5e		 pop	 esi
  000ac	c6 45 00 00	 mov	 BYTE PTR [ebp], 0
  000b0	f7 d8		 neg	 eax
  000b2	5d		 pop	 ebp

; 1491 : 		}

  000b3	c2 08 00	 ret	 8

; 1489 : 			_Eos(0);	// new size is zero, just null terminate

$L219710:
  000b6	83 c5 04	 add	 ebp, 4
  000b9	c6 45 00 00	 mov	 BYTE PTR [ebp], 0
$L219714:

; 1490 : 		return (0 < _Newsize);	// return true only if more work to do

  000bd	33 c0		 xor	 eax, eax
  000bf	3b c6		 cmp	 eax, esi
  000c1	1b c0		 sbb	 eax, eax
  000c3	5e		 pop	 esi
  000c4	f7 d8		 neg	 eax
  000c6	5d		 pop	 ebp

; 1491 : 		}

  000c7	c2 08 00	 ret	 8
?_Grow@?$basic_string@DU?$char_traits@D@std@@V?$allocator@D@2@@std@@IAE_NI_N@Z ENDP ; std::basic_string<char,std::char_traits<char>,std::allocator<char> >::_Grow
_TEXT	ENDS
PUBLIC	??1?$MemPooler@VCMover@@@@QAE@XZ		; MemPooler<CMover>::~MemPooler<CMover>
; Function compile flags: /Ogty
; File c:\documents and settings\test\mes documents\source\virtuos_v17\build\program\_network\misc\include\mempooler.h
;	COMDAT ??1?$MemPooler@VCMover@@@@QAE@XZ
_TEXT	SEGMENT
??1?$MemPooler@VCMover@@@@QAE@XZ PROC NEAR		; MemPooler<CMover>::~MemPooler<CMover>, COMDAT
; _this$ = ecx

; 53   : 		{	Destroy();	}

  00000	56		 push	 esi
  00001	8b f1		 mov	 esi, ecx
  00003	e8 00 00 00 00	 call	 ?Destroy@?$MemPooler@VCMover@@@@IAEXXZ ; MemPooler<CMover>::Destroy
  00008	83 c6 04	 add	 esi, 4
  0000b	8b ce		 mov	 ecx, esi
  0000d	e8 00 00 00 00	 call	 ?clear@?$list@PAXV?$allocator@PAX@std@@@std@@QAEXXZ ; std::list<void *,std::allocator<void *> >::clear
  00012	8b 46 04	 mov	 eax, DWORD PTR [esi+4]
  00015	50		 push	 eax
  00016	e8 00 00 00 00	 call	 ??3@YAXPAX@Z		; operator delete
  0001b	83 c4 04	 add	 esp, 4
  0001e	c7 46 04 00 00
	00 00		 mov	 DWORD PTR [esi+4], 0
  00025	5e		 pop	 esi
  00026	c3		 ret	 0
??1?$MemPooler@VCMover@@@@QAE@XZ ENDP			; MemPooler<CMover>::~MemPooler<CMover>
_TEXT	ENDS
PUBLIC	??1?$MemPooler@VCGuildMember@@@@QAE@XZ		; MemPooler<CGuildMember>::~MemPooler<CGuildMember>
; Function compile flags: /Ogty
;	COMDAT ??1?$MemPooler@VCGuildMember@@@@QAE@XZ
_TEXT	SEGMENT
??1?$MemPooler@VCGuildMember@@@@QAE@XZ PROC NEAR	; MemPooler<CGuildMember>::~MemPooler<CGuildMember>, COMDAT
; _this$ = ecx

; 53   : 		{	Destroy();	}

  00000	56		 push	 esi
  00001	8b f1		 mov	 esi, ecx
  00003	e8 00 00 00 00	 call	 ?Destroy@?$MemPooler@VCGuildMember@@@@IAEXXZ ; MemPooler<CGuildMember>::Destroy
  00008	83 c6 04	 add	 esi, 4
  0000b	8b ce		 mov	 ecx, esi
  0000d	e8 00 00 00 00	 call	 ?clear@?$list@PAXV?$allocator@PAX@std@@@std@@QAEXXZ ; std::list<void *,std::allocator<void *> >::clear
  00012	8b 46 04	 mov	 eax, DWORD PTR [esi+4]
  00015	50		 push	 eax
  00016	e8 00 00 00 00	 call	 ??3@YAXPAX@Z		; operator delete
  0001b	83 c4 04	 add	 esp, 4
  0001e	c7 46 04 00 00
	00 00		 mov	 DWORD PTR [esi+4], 0
  00025	5e		 pop	 esi
  00026	c3		 ret	 0
??1?$MemPooler@VCGuildMember@@@@QAE@XZ ENDP		; MemPooler<CGuildMember>::~MemPooler<CGuildMember>
_TEXT	ENDS
PUBLIC	??1?$MemPooler@VCGuild@@@@QAE@XZ		; MemPooler<CGuild>::~MemPooler<CGuild>
; Function compile flags: /Ogty
;	COMDAT ??1?$MemPooler@VCGuild@@@@QAE@XZ
_TEXT	SEGMENT
??1?$MemPooler@VCGuild@@@@QAE@XZ PROC NEAR		; MemPooler<CGuild>::~MemPooler<CGuild>, COMDAT
; _this$ = ecx

; 53   : 		{	Destroy();	}

  00000	56		 push	 esi
  00001	8b f1		 mov	 esi, ecx
  00003	e8 00 00 00 00	 call	 ?Destroy@?$MemPooler@VCGuild@@@@IAEXXZ ; MemPooler<CGuild>::Destroy
  00008	83 c6 04	 add	 esi, 4
  0000b	8b ce		 mov	 ecx, esi
  0000d	e8 00 00 00 00	 call	 ?clear@?$list@PAXV?$allocator@PAX@std@@@std@@QAEXXZ ; std::list<void *,std::allocator<void *> >::clear
  00012	8b 46 04	 mov	 eax, DWORD PTR [esi+4]
  00015	50		 push	 eax
  00016	e8 00 00 00 00	 call	 ??3@YAXPAX@Z		; operator delete
  0001b	83 c4 04	 add	 esp, 4
  0001e	c7 46 04 00 00
	00 00		 mov	 DWORD PTR [esi+4], 0
  00025	5e		 pop	 esi
  00026	c3		 ret	 0
??1?$MemPooler@VCGuild@@@@QAE@XZ ENDP			; MemPooler<CGuild>::~MemPooler<CGuild>
_TEXT	ENDS
PUBLIC	?_Copy@?$_Tree@V?$_Tmap_traits@EHU?$less@E@std@@V?$allocator@U?$pair@$$CBEH@std@@@2@$0A@@std@@@std@@IAEXABV12@@Z ; std::_Tree<std::_Tmap_traits<unsigned char,int,std::less<unsigned char>,std::allocator<std::pair<unsigned char const ,int> >,0> >::_Copy
; Function compile flags: /Ogty
; File c:\program files\microsoft visual studio .net 2003\vc7\include\xtree
;	COMDAT ?_Copy@?$_Tree@V?$_Tmap_traits@EHU?$less@E@std@@V?$allocator@U?$pair@$$CBEH@std@@@2@$0A@@std@@@std@@IAEXABV12@@Z
_TEXT	SEGMENT
__Right$ = 8						; size = 4
?_Copy@?$_Tree@V?$_Tmap_traits@EHU?$less@E@std@@V?$allocator@U?$pair@$$CBEH@std@@@2@$0A@@std@@@std@@IAEXABV12@@Z PROC NEAR ; std::_Tree<std::_Tmap_traits<unsigned char,int,std::less<unsigned char>,std::allocator<std::pair<unsigned char const ,int> >,0> >::_Copy, COMDAT
; _this$ = ecx

; 854  : 		{	// copy entire tree from _Right

  00000	53		 push	 ebx

; 855  : 		_Root() = _Copy(_Right._Root(), _Myhead);

  00001	8b 5c 24 08	 mov	 ebx, DWORD PTR __Right$[esp]
  00005	8b 43 04	 mov	 eax, DWORD PTR [ebx+4]
  00008	56		 push	 esi
  00009	57		 push	 edi
  0000a	8b f1		 mov	 esi, ecx
  0000c	8b 7e 04	 mov	 edi, DWORD PTR [esi+4]
  0000f	83 c0 04	 add	 eax, 4
  00012	8b 00		 mov	 eax, DWORD PTR [eax]
  00014	57		 push	 edi
  00015	50		 push	 eax
  00016	e8 00 00 00 00	 call	 ?_Copy@?$_Tree@V?$_Tmap_traits@EHU?$less@E@std@@V?$allocator@U?$pair@$$CBEH@std@@@2@$0A@@std@@@std@@IAEPAU_Node@?$_Tree_nod@V?$_Tmap_traits@EHU?$less@E@std@@V?$allocator@U?$pair@$$CBEH@std@@@2@$0A@@std@@@2@PAU342@0@Z ; std::_Tree<std::_Tmap_traits<unsigned char,int,std::less<unsigned char>,std::allocator<std::pair<unsigned char const ,int> >,0> >::_Copy
  0001b	89 47 04	 mov	 DWORD PTR [edi+4], eax

; 856  : 		_Mysize = _Right.size();

  0001e	8b 4b 08	 mov	 ecx, DWORD PTR [ebx+8]

; 857  : 		if (!_Isnil(_Root()))

  00021	8b 56 04	 mov	 edx, DWORD PTR [esi+4]
  00024	89 4e 08	 mov	 DWORD PTR [esi+8], ecx
  00027	8b 42 04	 mov	 eax, DWORD PTR [edx+4]
  0002a	8a 48 15	 mov	 cl, BYTE PTR [eax+21]
  0002d	84 c9		 test	 cl, cl
  0002f	75 44		 jne	 SHORT $L214118

; 858  : 			{	// nonempty tree, look for new smallest and largest
; 859  : 			_Lmost() = _Min(_Root());

  00031	8b 08		 mov	 ecx, DWORD PTR [eax]
  00033	8a 59 15	 mov	 bl, BYTE PTR [ecx+21]
  00036	84 db		 test	 bl, bl
  00038	75 11		 jne	 SHORT $L219877
  0003a	8d 9b 00 00 00
	00		 npad	 6
$L219876:
  00040	8b c1		 mov	 eax, ecx
  00042	8b 08		 mov	 ecx, DWORD PTR [eax]
  00044	8a 59 15	 mov	 bl, BYTE PTR [ecx+21]
  00047	84 db		 test	 bl, bl
  00049	74 f5		 je	 SHORT $L219876
$L219877:
  0004b	89 02		 mov	 DWORD PTR [edx], eax

; 860  : 			_Rmost() = _Max(_Root());

  0004d	8b 76 04	 mov	 esi, DWORD PTR [esi+4]
  00050	8b 4e 04	 mov	 ecx, DWORD PTR [esi+4]
  00053	8b 41 08	 mov	 eax, DWORD PTR [ecx+8]
  00056	8a 50 15	 mov	 dl, BYTE PTR [eax+21]
  00059	84 d2		 test	 dl, dl
  0005b	75 0f		 jne	 SHORT $L219915
  0005d	8d 49 00	 npad	 3
$L219914:
  00060	8b c8		 mov	 ecx, eax
  00062	8b 41 08	 mov	 eax, DWORD PTR [ecx+8]
  00065	8a 50 15	 mov	 dl, BYTE PTR [eax+21]
  00068	84 d2		 test	 dl, dl
  0006a	74 f4		 je	 SHORT $L219914
$L219915:
  0006c	5f		 pop	 edi
  0006d	89 4e 08	 mov	 DWORD PTR [esi+8], ecx
  00070	5e		 pop	 esi
  00071	5b		 pop	 ebx

; 864  : 		}

  00072	c2 04 00	 ret	 4
$L214118:

; 861  : 			}
; 862  : 		else
; 863  : 			_Lmost() = _Myhead, _Rmost() = _Myhead;	// empty tree

  00075	89 12		 mov	 DWORD PTR [edx], edx
  00077	8b 76 04	 mov	 esi, DWORD PTR [esi+4]
  0007a	5f		 pop	 edi
  0007b	89 76 08	 mov	 DWORD PTR [esi+8], esi
  0007e	5e		 pop	 esi
  0007f	5b		 pop	 ebx

; 864  : 		}

  00080	c2 04 00	 ret	 4
?_Copy@?$_Tree@V?$_Tmap_traits@EHU?$less@E@std@@V?$allocator@U?$pair@$$CBEH@std@@@2@$0A@@std@@@std@@IAEXABV12@@Z ENDP ; std::_Tree<std::_Tmap_traits<unsigned char,int,std::less<unsigned char>,std::allocator<std::pair<unsigned char const ,int> >,0> >::_Copy
_TEXT	ENDS
PUBLIC	??_7logic_error@std@@6B@			; std::logic_error::`vftable'
PUBLIC	??_Glogic_error@std@@UAEPAXI@Z			; std::logic_error::`scalar deleting destructor'
PUBLIC	??1logic_error@std@@UAE@XZ			; std::logic_error::~logic_error
PUBLIC	?what@logic_error@std@@UBEPBDXZ			; std::logic_error::what
EXTRN	??_Elogic_error@std@@UAEPAXI@Z:NEAR		; std::logic_error::`vector deleting destructor'
EXTRN	??1exception@@UAE@XZ:NEAR			; exception::~exception
;	COMDAT ??_7logic_error@std@@6B@
; File c:\program files\microsoft visual studio .net 2003\vc7\include\iosfwd
CONST	SEGMENT
??_7logic_error@std@@6B@ DD FLAT:??_Elogic_error@std@@UAEPAXI@Z ; std::logic_error::`vftable'
	DD	FLAT:?what@logic_error@std@@UBEPBDXZ
; Function compile flags: /Ogty
; File c:\program files\microsoft visual studio .net 2003\vc7\include\stdexcept
CONST	ENDS
;	COMDAT ??1logic_error@std@@UAE@XZ
_TEXT	SEGMENT
??1logic_error@std@@UAE@XZ PROC NEAR			; std::logic_error::~logic_error, COMDAT
; _this$ = ecx

; 23   : 		{}	// destroy the object

  00000	56		 push	 esi
  00001	8b f1		 mov	 esi, ecx
  00003	c7 06 00 00 00
	00		 mov	 DWORD PTR [esi], OFFSET FLAT:??_7logic_error@std@@6B@
  00009	83 7e 24 10	 cmp	 DWORD PTR [esi+36], 16	; 00000010H
  0000d	72 0c		 jb	 SHORT $L220018
  0000f	8b 46 10	 mov	 eax, DWORD PTR [esi+16]
  00012	50		 push	 eax
  00013	e8 00 00 00 00	 call	 ??3@YAXPAX@Z		; operator delete
  00018	83 c4 04	 add	 esp, 4
$L220018:
  0001b	33 c0		 xor	 eax, eax
  0001d	c7 46 24 0f 00
	00 00		 mov	 DWORD PTR [esi+36], 15	; 0000000fH
  00024	89 46 20	 mov	 DWORD PTR [esi+32], eax
  00027	88 46 10	 mov	 BYTE PTR [esi+16], al
  0002a	8b ce		 mov	 ecx, esi
  0002c	5e		 pop	 esi
  0002d	e9 00 00 00 00	 jmp	 ??1exception@@UAE@XZ	; exception::~exception
??1logic_error@std@@UAE@XZ ENDP				; std::logic_error::~logic_error
; Function compile flags: /Ogty
_TEXT	ENDS
;	COMDAT ?what@logic_error@std@@UBEPBDXZ
_TEXT	SEGMENT
?what@logic_error@std@@UBEPBDXZ PROC NEAR		; std::logic_error::what, COMDAT
; _this$ = ecx

; 27   : 		return (_Str.c_str());

  00000	83 79 24 10	 cmp	 DWORD PTR [ecx+36], 16	; 00000010H
  00004	72 04		 jb	 SHORT $L220045
  00006	8b 41 10	 mov	 eax, DWORD PTR [ecx+16]

; 28   : 		}

  00009	c3		 ret	 0

; 27   : 		return (_Str.c_str());

$L220045:
  0000a	8d 41 10	 lea	 eax, DWORD PTR [ecx+16]

; 28   : 		}

  0000d	c3		 ret	 0
?what@logic_error@std@@UBEPBDXZ ENDP			; std::logic_error::what
; Function compile flags: /Ogty
_TEXT	ENDS
;	COMDAT ??_Glogic_error@std@@UAEPAXI@Z
_TEXT	SEGMENT
___flags$ = 8						; size = 4
??_Glogic_error@std@@UAEPAXI@Z PROC NEAR		; std::logic_error::`scalar deleting destructor', COMDAT
; _this$ = ecx
  00000	56		 push	 esi
  00001	8b f1		 mov	 esi, ecx
  00003	e8 00 00 00 00	 call	 ??1logic_error@std@@UAE@XZ ; std::logic_error::~logic_error
  00008	f6 44 24 08 01	 test	 BYTE PTR ___flags$[esp], 1
  0000d	74 09		 je	 SHORT $L220051
  0000f	56		 push	 esi
  00010	e8 00 00 00 00	 call	 ??3@YAXPAX@Z		; operator delete
  00015	83 c4 04	 add	 esp, 4
$L220051:
  00018	8b c6		 mov	 eax, esi
  0001a	5e		 pop	 esi
  0001b	c2 04 00	 ret	 4
??_Glogic_error@std@@UAEPAXI@Z ENDP			; std::logic_error::`scalar deleting destructor'
_TEXT	ENDS
PUBLIC	?LoadStringA@?$CStringT@DV?$StrTraitMFC@DV?$ChTraitsCRT@D@ATL@@@@@ATL@@QAEHI@Z ; ATL::CStringT<char,StrTraitMFC<char,ATL::ChTraitsCRT<char> > >::LoadStringA
; Function compile flags: /Ogty
; File c:\program files\microsoft visual studio .net 2003\vc7\atlmfc\include\cstringt.h
;	COMDAT ?LoadStringA@?$CStringT@DV?$StrTraitMFC@DV?$ChTraitsCRT@D@ATL@@@@@ATL@@QAEHI@Z
_TEXT	SEGMENT
_nID$ = 8						; size = 4
?LoadStringA@?$CStringT@DV?$StrTraitMFC@DV?$ChTraitsCRT@D@ATL@@@@@ATL@@QAEHI@Z PROC NEAR ; ATL::CStringT<char,StrTraitMFC<char,ATL::ChTraitsCRT<char> > >::LoadStringA, COMDAT
; _this$ = ecx

; 1969 : 	{

  00000	56		 push	 esi
  00001	57		 push	 edi

; 1970 : 		HINSTANCE hInst = StringTraits::FindStringResourceInstance( nID );

  00002	8b 7c 24 0c	 mov	 edi, DWORD PTR _nID$[esp+4]
  00006	57		 push	 edi
  00007	8b f1		 mov	 esi, ecx
  00009	e8 00 00 00 00	 call	 ?AfxFindStringResourceHandle@@YGPAUHINSTANCE__@@I@Z ; AfxFindStringResourceHandle

; 1971 : 		if( hInst == NULL )

  0000e	85 c0		 test	 eax, eax
  00010	75 05		 jne	 SHORT $L183105
  00012	5f		 pop	 edi
  00013	5e		 pop	 esi

; 1977 : 	}

  00014	c2 04 00	 ret	 4
$L183105:

; 1972 : 		{
; 1973 : 			return( FALSE );
; 1974 : 		}
; 1975 : 
; 1976 : 		return( LoadString( hInst, nID ) );		

  00017	57		 push	 edi
  00018	50		 push	 eax
  00019	8b ce		 mov	 ecx, esi
  0001b	e8 00 00 00 00	 call	 ?LoadStringA@?$CStringT@DV?$StrTraitMFC@DV?$ChTraitsCRT@D@ATL@@@@@ATL@@QAEHPAUHINSTANCE__@@I@Z ; ATL::CStringT<char,StrTraitMFC<char,ATL::ChTraitsCRT<char> > >::LoadStringA
  00020	5f		 pop	 edi
  00021	5e		 pop	 esi

; 1977 : 	}

  00022	c2 04 00	 ret	 4
?LoadStringA@?$CStringT@DV?$StrTraitMFC@DV?$ChTraitsCRT@D@ATL@@@@@ATL@@QAEHI@Z ENDP ; ATL::CStringT<char,StrTraitMFC<char,ATL::ChTraitsCRT<char> > >::LoadStringA
_TEXT	ENDS
PUBLIC	?CheckImplicitLoad@?$CStringT@DV?$StrTraitMFC@DV?$ChTraitsCRT@D@ATL@@@@@ATL@@AAE_NPBX@Z ; ATL::CStringT<char,StrTraitMFC<char,ATL::ChTraitsCRT<char> > >::CheckImplicitLoad
; Function compile flags: /Ogty
;	COMDAT ?CheckImplicitLoad@?$CStringT@DV?$StrTraitMFC@DV?$ChTraitsCRT@D@ATL@@@@@ATL@@AAE_NPBX@Z
_TEXT	SEGMENT
_pv$ = 8						; size = 4
?CheckImplicitLoad@?$CStringT@DV?$StrTraitMFC@DV?$ChTraitsCRT@D@ATL@@@@@ATL@@AAE_NPBX@Z PROC NEAR ; ATL::CStringT<char,StrTraitMFC<char,ATL::ChTraitsCRT<char> > >::CheckImplicitLoad, COMDAT
; _this$ = ecx

; 2229 : 	{

  00000	57		 push	 edi
  00001	8b f9		 mov	 edi, ecx

; 2230 : 		bool bRet = false;
; 2231 : 
; 2232 : 		if( (pv != NULL) && IS_INTRESOURCE( pv ) )

  00003	8b 4c 24 08	 mov	 ecx, DWORD PTR _pv$[esp]
  00007	32 c0		 xor	 al, al
  00009	85 c9		 test	 ecx, ecx
  0000b	74 22		 je	 SHORT $L184190
  0000d	f7 c1 00 00 ff
	ff		 test	 ecx, -65536		; ffff0000H
  00013	75 1a		 jne	 SHORT $L184190
  00015	56		 push	 esi

; 2233 : 		{
; 2234 : 			UINT nID = LOWORD( reinterpret_cast< DWORD_PTR >( pv ) );

  00016	0f b7 f1	 movzx	 esi, cx

; 2235 : 			if( !LoadString( nID ) )

  00019	56		 push	 esi
  0001a	e8 00 00 00 00	 call	 ?AfxFindStringResourceHandle@@YGPAUHINSTANCE__@@I@Z ; AfxFindStringResourceHandle
  0001f	85 c0		 test	 eax, eax
  00021	74 09		 je	 SHORT $L220063
  00023	56		 push	 esi
  00024	50		 push	 eax
  00025	8b cf		 mov	 ecx, edi
  00027	e8 00 00 00 00	 call	 ?LoadStringA@?$CStringT@DV?$StrTraitMFC@DV?$ChTraitsCRT@D@ATL@@@@@ATL@@QAEHPAUHINSTANCE__@@I@Z ; ATL::CStringT<char,StrTraitMFC<char,ATL::ChTraitsCRT<char> > >::LoadStringA
$L220063:

; 2236 : 			{
; 2237 : 				ATLTRACE( atlTraceString, 2, _T( "Warning: implicit LoadString(%u) failed\n" ), nID );
; 2238 : 			}
; 2239 : 			bRet = true;

  0002c	b0 01		 mov	 al, 1
  0002e	5e		 pop	 esi
$L184190:
  0002f	5f		 pop	 edi

; 2240 : 		}
; 2241 : 
; 2242 : 		return( bRet );
; 2243 : 	}

  00030	c2 04 00	 ret	 4
?CheckImplicitLoad@?$CStringT@DV?$StrTraitMFC@DV?$ChTraitsCRT@D@ATL@@@@@ATL@@AAE_NPBX@Z ENDP ; ATL::CStringT<char,StrTraitMFC<char,ATL::ChTraitsCRT<char> > >::CheckImplicitLoad
_TEXT	ENDS
PUBLIC	?assign@?$basic_string@DU?$char_traits@D@std@@V?$allocator@D@2@@std@@QAEAAV12@ABV12@II@Z ; std::basic_string<char,std::char_traits<char>,std::allocator<char> >::assign
; Function compile flags: /Ogty
; File c:\program files\microsoft visual studio .net 2003\vc7\include\xstring
;	COMDAT ?assign@?$basic_string@DU?$char_traits@D@std@@V?$allocator@D@2@@std@@QAEAAV12@ABV12@II@Z
_TEXT	SEGMENT
__Right$ = 8						; size = 4
__Roff$ = 12						; size = 4
__Count$ = 16						; size = 4
?assign@?$basic_string@DU?$char_traits@D@std@@V?$allocator@D@2@@std@@QAEAAV12@ABV12@II@Z PROC NEAR ; std::basic_string<char,std::char_traits<char>,std::allocator<char> >::assign, COMDAT
; _this$ = ecx

; 590  : 		{	// assign _Right [_Roff, _Roff + _Count)

  00000	53		 push	 ebx
  00001	55		 push	 ebp
  00002	56		 push	 esi

; 591  : 		if (_Right.size() < _Roff)

  00003	8b 74 24 14	 mov	 esi, DWORD PTR __Roff$[esp+8]
  00007	57		 push	 edi
  00008	8b 7c 24 14	 mov	 edi, DWORD PTR __Right$[esp+12]
  0000c	39 77 14	 cmp	 DWORD PTR [edi+20], esi
  0000f	8b d9		 mov	 ebx, ecx
  00011	73 05		 jae	 SHORT $L184271

; 592  : 			_String_base::_Xran();	// _Roff off end

  00013	e8 00 00 00 00	 call	 ?_Xran@_String_base@std@@QBEXXZ ; std::_String_base::_Xran
$L184271:

; 593  : 		size_type _Num = _Right.size() - _Roff;

  00018	8b 6f 14	 mov	 ebp, DWORD PTR [edi+20]

; 594  : 		if (_Count < _Num)

  0001b	8b 44 24 1c	 mov	 eax, DWORD PTR __Count$[esp+12]
  0001f	2b ee		 sub	 ebp, esi
  00021	3b c5		 cmp	 eax, ebp
  00023	73 02		 jae	 SHORT $L184273

; 595  : 			_Num = _Count;	// trim _Num to size

  00025	8b e8		 mov	 ebp, eax
$L184273:

; 596  : 
; 597  : 		if (this == &_Right)

  00027	3b df		 cmp	 ebx, edi
  00029	75 1f		 jne	 SHORT $L184274

; 598  : 			erase((size_type)(_Roff + _Num)), erase(0, _Roff);	// substring

  0002b	6a ff		 push	 -1
  0002d	03 ee		 add	 ebp, esi
  0002f	55		 push	 ebp
  00030	8b cb		 mov	 ecx, ebx
  00032	e8 00 00 00 00	 call	 ?erase@?$basic_string@DU?$char_traits@D@std@@V?$allocator@D@2@@std@@QAEAAV12@II@Z ; std::basic_string<char,std::char_traits<char>,std::allocator<char> >::erase
  00037	56		 push	 esi
  00038	6a 00		 push	 0
  0003a	8b cb		 mov	 ecx, ebx
  0003c	e8 00 00 00 00	 call	 ?erase@?$basic_string@DU?$char_traits@D@std@@V?$allocator@D@2@@std@@QAEAAV12@II@Z ; std::basic_string<char,std::char_traits<char>,std::allocator<char> >::erase
  00041	5f		 pop	 edi
  00042	5e		 pop	 esi
  00043	5d		 pop	 ebp

; 603  : 			}
; 604  : 		return (*this);

  00044	8b c3		 mov	 eax, ebx
  00046	5b		 pop	 ebx

; 605  : 		}

  00047	c2 0c 00	 ret	 12			; 0000000cH
$L184274:

; 599  : 		else if (_Grow(_Num))

  0004a	83 fd fe	 cmp	 ebp, -2			; fffffffeH
  0004d	76 07		 jbe	 SHORT $L220188
  0004f	8b cb		 mov	 ecx, ebx
  00051	e8 00 00 00 00	 call	 ?_Xlen@_String_base@std@@QBEXXZ ; std::_String_base::_Xlen
$L220188:
  00056	8b 43 18	 mov	 eax, DWORD PTR [ebx+24]
  00059	3b c5		 cmp	 eax, ebp
  0005b	73 21		 jae	 SHORT $L220189
  0005d	8b 43 14	 mov	 eax, DWORD PTR [ebx+20]
  00060	50		 push	 eax
  00061	55		 push	 ebp
  00062	8b cb		 mov	 ecx, ebx
  00064	e8 00 00 00 00	 call	 ?_Copy@?$basic_string@DU?$char_traits@D@std@@V?$allocator@D@2@@std@@IAEXII@Z ; std::basic_string<char,std::char_traits<char>,std::allocator<char> >::_Copy
  00069	85 ed		 test	 ebp, ebp
$L220267:
  0006b	76 6d		 jbe	 SHORT $L220266

; 600  : 			{	// make room and assign new stuff
; 601  : 			_Traits::copy(_Myptr(), _Right._Myptr() + _Roff, _Num);

  0006d	8b 4f 18	 mov	 ecx, DWORD PTR [edi+24]
  00070	b8 10 00 00 00	 mov	 eax, 16			; 00000010H
  00075	3b c8		 cmp	 ecx, eax
  00077	72 2f		 jb	 SHORT $L220231
  00079	8b 57 04	 mov	 edx, DWORD PTR [edi+4]
  0007c	eb 2d		 jmp	 SHORT $L220232

; 599  : 		else if (_Grow(_Num))

$L220189:
  0007e	85 ed		 test	 ebp, ebp
  00080	75 e9		 jne	 SHORT $L220267
  00082	83 f8 10	 cmp	 eax, 16			; 00000010H
  00085	89 6b 14	 mov	 DWORD PTR [ebx+20], ebp
  00088	72 0f		 jb	 SHORT $L220181
  0008a	8b 43 04	 mov	 eax, DWORD PTR [ebx+4]
  0008d	5f		 pop	 edi
  0008e	5e		 pop	 esi
  0008f	c6 00 00	 mov	 BYTE PTR [eax], 0
  00092	5d		 pop	 ebp

; 603  : 			}
; 604  : 		return (*this);

  00093	8b c3		 mov	 eax, ebx
  00095	5b		 pop	 ebx

; 605  : 		}

  00096	c2 0c 00	 ret	 12			; 0000000cH

; 599  : 		else if (_Grow(_Num))

$L220181:
  00099	5f		 pop	 edi
  0009a	8d 43 04	 lea	 eax, DWORD PTR [ebx+4]
  0009d	5e		 pop	 esi
  0009e	c6 00 00	 mov	 BYTE PTR [eax], 0
  000a1	5d		 pop	 ebp

; 603  : 			}
; 604  : 		return (*this);

  000a2	8b c3		 mov	 eax, ebx
  000a4	5b		 pop	 ebx

; 605  : 		}

  000a5	c2 0c 00	 ret	 12			; 0000000cH

; 600  : 			{	// make room and assign new stuff
; 601  : 			_Traits::copy(_Myptr(), _Right._Myptr() + _Roff, _Num);

$L220231:
  000a8	8d 57 04	 lea	 edx, DWORD PTR [edi+4]
$L220232:
  000ab	39 43 18	 cmp	 DWORD PTR [ebx+24], eax
  000ae	8d 43 04	 lea	 eax, DWORD PTR [ebx+4]
  000b1	72 04		 jb	 SHORT $L220238
  000b3	8b 38		 mov	 edi, DWORD PTR [eax]
  000b5	eb 02		 jmp	 SHORT $L220239
$L220238:
  000b7	8b f8		 mov	 edi, eax
$L220239:
  000b9	03 f2		 add	 esi, edx
  000bb	8b cd		 mov	 ecx, ebp
  000bd	8b d1		 mov	 edx, ecx
  000bf	c1 e9 02	 shr	 ecx, 2
  000c2	f3 a5		 rep movsd
  000c4	8b ca		 mov	 ecx, edx
  000c6	83 e1 03	 and	 ecx, 3
  000c9	f3 a4		 rep movsb

; 602  : 			_Eos(_Num);

  000cb	83 7b 18 10	 cmp	 DWORD PTR [ebx+24], 16	; 00000010H
  000cf	89 6b 14	 mov	 DWORD PTR [ebx+20], ebp
  000d2	72 02		 jb	 SHORT $L220261
  000d4	8b 00		 mov	 eax, DWORD PTR [eax]
$L220261:
  000d6	c6 04 28 00	 mov	 BYTE PTR [eax+ebp], 0
$L220266:
  000da	5f		 pop	 edi
  000db	5e		 pop	 esi
  000dc	5d		 pop	 ebp

; 603  : 			}
; 604  : 		return (*this);

  000dd	8b c3		 mov	 eax, ebx
  000df	5b		 pop	 ebx

; 605  : 		}

  000e0	c2 0c 00	 ret	 12			; 0000000cH
?assign@?$basic_string@DU?$char_traits@D@std@@V?$allocator@D@2@@std@@QAEAAV12@ABV12@II@Z ENDP ; std::basic_string<char,std::char_traits<char>,std::allocator<char> >::assign
_TEXT	ENDS
PUBLIC	?SetString@?$CSimpleStringT@D$0A@@ATL@@QAEXPBD@Z ; ATL::CSimpleStringT<char,0>::SetString
; Function compile flags: /Ogty
; File c:\program files\microsoft visual studio .net 2003\vc7\atlmfc\include\atlsimpstr.h
;	COMDAT ?SetString@?$CSimpleStringT@D$0A@@ATL@@QAEXPBD@Z
_TEXT	SEGMENT
_pszSrc$ = 8						; size = 4
?SetString@?$CSimpleStringT@D$0A@@ATL@@QAEXPBD@Z PROC NEAR ; ATL::CSimpleStringT<char,0>::SetString, COMDAT
; _this$ = ecx

; 579  : 	{

  00000	56		 push	 esi

; 580  : 		SetString( pszSrc, StringLength( pszSrc ) );

  00001	8b 74 24 08	 mov	 esi, DWORD PTR _pszSrc$[esp]
  00005	85 f6		 test	 esi, esi
  00007	75 0d		 jne	 SHORT $L220273
  00009	33 c0		 xor	 eax, eax
  0000b	50		 push	 eax
  0000c	56		 push	 esi
  0000d	e8 00 00 00 00	 call	 ?SetString@?$CSimpleStringT@D$0A@@ATL@@QAEXPBDH@Z ; ATL::CSimpleStringT<char,0>::SetString
  00012	5e		 pop	 esi

; 581  : 	}

  00013	c2 04 00	 ret	 4

; 580  : 		SetString( pszSrc, StringLength( pszSrc ) );

$L220273:
  00016	8b c6		 mov	 eax, esi
  00018	57		 push	 edi
  00019	8d 78 01	 lea	 edi, DWORD PTR [eax+1]
  0001c	8d 64 24 00	 npad	 4
$L220275:
  00020	8a 10		 mov	 dl, BYTE PTR [eax]
  00022	40		 inc	 eax
  00023	84 d2		 test	 dl, dl
  00025	75 f9		 jne	 SHORT $L220275
  00027	2b c7		 sub	 eax, edi
  00029	5f		 pop	 edi
  0002a	50		 push	 eax
  0002b	56		 push	 esi
  0002c	e8 00 00 00 00	 call	 ?SetString@?$CSimpleStringT@D$0A@@ATL@@QAEXPBDH@Z ; ATL::CSimpleStringT<char,0>::SetString
  00031	5e		 pop	 esi

; 581  : 	}

  00032	c2 04 00	 ret	 4
?SetString@?$CSimpleStringT@D$0A@@ATL@@QAEXPBD@Z ENDP	; ATL::CSimpleStringT<char,0>::SetString
_TEXT	ENDS
PUBLIC	?assign@?$basic_string@DU?$char_traits@D@std@@V?$allocator@D@2@@std@@QAEAAV12@PBDI@Z ; std::basic_string<char,std::char_traits<char>,std::allocator<char> >::assign
; Function compile flags: /Ogty
; File c:\program files\microsoft visual studio .net 2003\vc7\include\xstring
;	COMDAT ?assign@?$basic_string@DU?$char_traits@D@std@@V?$allocator@D@2@@std@@QAEAAV12@PBDI@Z
_TEXT	SEGMENT
__Ptr$ = 8						; size = 4
__Num$ = 12						; size = 4
?assign@?$basic_string@DU?$char_traits@D@std@@V?$allocator@D@2@@std@@QAEAAV12@PBDI@Z PROC NEAR ; std::basic_string<char,std::char_traits<char>,std::allocator<char> >::assign, COMDAT
; _this$ = ecx

; 608  : 		{	// assign [_Ptr, _Ptr + _Num)

  00000	53		 push	 ebx
  00001	8b d9		 mov	 ebx, ecx

; 609  : 		if (_Inside(_Ptr))

  00003	8b 53 18	 mov	 edx, DWORD PTR [ebx+24]
  00006	83 fa 10	 cmp	 edx, 16			; 00000010H
  00009	56		 push	 esi
  0000a	57		 push	 edi
  0000b	72 05		 jb	 SHORT $L220295
  0000d	8b 43 04	 mov	 eax, DWORD PTR [ebx+4]
  00010	eb 03		 jmp	 SHORT $L220296
$L220295:
  00012	8d 43 04	 lea	 eax, DWORD PTR [ebx+4]
$L220296:
  00015	8b 74 24 10	 mov	 esi, DWORD PTR __Ptr$[esp+8]
  00019	3b f0		 cmp	 esi, eax
  0001b	72 34		 jb	 SHORT $L184989
  0001d	83 fa 10	 cmp	 edx, 16			; 00000010H
  00020	8d 43 04	 lea	 eax, DWORD PTR [ebx+4]
  00023	72 04		 jb	 SHORT $L220299
  00025	8b 08		 mov	 ecx, DWORD PTR [eax]
  00027	eb 02		 jmp	 SHORT $L220300
$L220299:
  00029	8b c8		 mov	 ecx, eax
$L220300:
  0002b	8b 7b 14	 mov	 edi, DWORD PTR [ebx+20]
  0002e	03 f9		 add	 edi, ecx
  00030	3b fe		 cmp	 edi, esi
  00032	76 1d		 jbe	 SHORT $L184989

; 610  : 			return (assign(*this, _Ptr - _Myptr(), _Num));	// substring

  00034	83 fa 10	 cmp	 edx, 16			; 00000010H
  00037	72 02		 jb	 SHORT $L220312
  00039	8b 00		 mov	 eax, DWORD PTR [eax]
$L220312:
  0003b	8b 4c 24 14	 mov	 ecx, DWORD PTR __Num$[esp+8]
  0003f	51		 push	 ecx
  00040	2b f0		 sub	 esi, eax
  00042	56		 push	 esi
  00043	53		 push	 ebx
  00044	8b cb		 mov	 ecx, ebx
  00046	e8 00 00 00 00	 call	 ?assign@?$basic_string@DU?$char_traits@D@std@@V?$allocator@D@2@@std@@QAEAAV12@ABV12@II@Z ; std::basic_string<char,std::char_traits<char>,std::allocator<char> >::assign
  0004b	5f		 pop	 edi
  0004c	5e		 pop	 esi
  0004d	5b		 pop	 ebx

; 618  : 		}

  0004e	c2 08 00	 ret	 8
$L184989:
  00051	55		 push	 ebp

; 611  : 
; 612  : 		if (_Grow(_Num))

  00052	8b 6c 24 18	 mov	 ebp, DWORD PTR __Num$[esp+12]
  00056	83 fd fe	 cmp	 ebp, -2			; fffffffeH
  00059	76 07		 jbe	 SHORT $L220453
  0005b	8b cb		 mov	 ecx, ebx
  0005d	e8 00 00 00 00	 call	 ?_Xlen@_String_base@std@@QBEXXZ ; std::_String_base::_Xlen
$L220453:
  00062	8b 43 18	 mov	 eax, DWORD PTR [ebx+24]
  00065	3b c5		 cmp	 eax, ebp
  00067	73 1b		 jae	 SHORT $L220454
  00069	8b 53 14	 mov	 edx, DWORD PTR [ebx+20]
  0006c	52		 push	 edx
  0006d	55		 push	 ebp
  0006e	8b cb		 mov	 ecx, ebx
  00070	e8 00 00 00 00	 call	 ?_Copy@?$basic_string@DU?$char_traits@D@std@@V?$allocator@D@2@@std@@IAEXII@Z ; std::basic_string<char,std::char_traits<char>,std::allocator<char> >::_Copy
  00075	85 ed		 test	 ebp, ebp
$L220492:
  00077	76 68		 jbe	 SHORT $L220489

; 613  : 			{	// make room and assign new stuff
; 614  : 			_Traits::copy(_Myptr(), _Ptr, _Num);

  00079	83 7b 18 10	 cmp	 DWORD PTR [ebx+24], 16	; 00000010H
  0007d	72 2f		 jb	 SHORT $L220463
  0007f	8b 7b 04	 mov	 edi, DWORD PTR [ebx+4]
  00082	eb 2d		 jmp	 SHORT $L220464

; 611  : 
; 612  : 		if (_Grow(_Num))

$L220454:
  00084	85 ed		 test	 ebp, ebp
  00086	75 ef		 jne	 SHORT $L220492
  00088	83 f8 10	 cmp	 eax, 16			; 00000010H
  0008b	89 6b 14	 mov	 DWORD PTR [ebx+20], ebp
  0008e	72 0f		 jb	 SHORT $L220446
  00090	8b 43 04	 mov	 eax, DWORD PTR [ebx+4]
  00093	5d		 pop	 ebp
  00094	5f		 pop	 edi
  00095	c6 00 00	 mov	 BYTE PTR [eax], 0
  00098	5e		 pop	 esi

; 616  : 			}
; 617  : 		return (*this);

  00099	8b c3		 mov	 eax, ebx
  0009b	5b		 pop	 ebx

; 618  : 		}

  0009c	c2 08 00	 ret	 8

; 611  : 
; 612  : 		if (_Grow(_Num))

$L220446:
  0009f	5d		 pop	 ebp
  000a0	8d 43 04	 lea	 eax, DWORD PTR [ebx+4]
  000a3	5f		 pop	 edi
  000a4	c6 00 00	 mov	 BYTE PTR [eax], 0
  000a7	5e		 pop	 esi

; 616  : 			}
; 617  : 		return (*this);

  000a8	8b c3		 mov	 eax, ebx
  000aa	5b		 pop	 ebx

; 618  : 		}

  000ab	c2 08 00	 ret	 8

; 613  : 			{	// make room and assign new stuff
; 614  : 			_Traits::copy(_Myptr(), _Ptr, _Num);

$L220463:
  000ae	8d 7b 04	 lea	 edi, DWORD PTR [ebx+4]
$L220464:
  000b1	8b cd		 mov	 ecx, ebp
  000b3	8b c1		 mov	 eax, ecx
  000b5	c1 e9 02	 shr	 ecx, 2
  000b8	f3 a5		 rep movsd
  000ba	8b c8		 mov	 ecx, eax
  000bc	83 e1 03	 and	 ecx, 3
  000bf	f3 a4		 rep movsb

; 615  : 			_Eos(_Num);

  000c1	83 7b 18 10	 cmp	 DWORD PTR [ebx+24], 16	; 00000010H
  000c5	89 6b 14	 mov	 DWORD PTR [ebx+20], ebp
  000c8	72 10		 jb	 SHORT $L220485
  000ca	8b 43 04	 mov	 eax, DWORD PTR [ebx+4]
  000cd	c6 04 28 00	 mov	 BYTE PTR [eax+ebp], 0
  000d1	5d		 pop	 ebp
  000d2	5f		 pop	 edi
  000d3	5e		 pop	 esi

; 616  : 			}
; 617  : 		return (*this);

  000d4	8b c3		 mov	 eax, ebx
  000d6	5b		 pop	 ebx

; 618  : 		}

  000d7	c2 08 00	 ret	 8

; 615  : 			_Eos(_Num);

$L220485:
  000da	8d 43 04	 lea	 eax, DWORD PTR [ebx+4]
  000dd	c6 04 28 00	 mov	 BYTE PTR [eax+ebp], 0
$L220489:
  000e1	5d		 pop	 ebp
  000e2	5f		 pop	 edi
  000e3	5e		 pop	 esi

; 616  : 			}
; 617  : 		return (*this);

  000e4	8b c3		 mov	 eax, ebx
  000e6	5b		 pop	 ebx

; 618  : 		}

  000e7	c2 08 00	 ret	 8
?assign@?$basic_string@DU?$char_traits@D@std@@V?$allocator@D@2@@std@@QAEAAV12@PBDI@Z ENDP ; std::basic_string<char,std::char_traits<char>,std::allocator<char> >::assign
_TEXT	ENDS
PUBLIC	??_G?$MemPooler@VCGuildMember@@@@QAEPAXI@Z	; MemPooler<CGuildMember>::`scalar deleting destructor'
; Function compile flags: /Ogty
;	COMDAT ??_G?$MemPooler@VCGuildMember@@@@QAEPAXI@Z
_TEXT	SEGMENT
___flags$ = 8						; size = 4
??_G?$MemPooler@VCGuildMember@@@@QAEPAXI@Z PROC NEAR	; MemPooler<CGuildMember>::`scalar deleting destructor', COMDAT
; _this$ = ecx
  00000	56		 push	 esi
  00001	8b f1		 mov	 esi, ecx
  00003	e8 00 00 00 00	 call	 ??1?$MemPooler@VCGuildMember@@@@QAE@XZ ; MemPooler<CGuildMember>::~MemPooler<CGuildMember>
  00008	f6 44 24 08 01	 test	 BYTE PTR ___flags$[esp], 1
  0000d	74 09		 je	 SHORT $L220495
  0000f	56		 push	 esi
  00010	e8 00 00 00 00	 call	 ??3@YAXPAX@Z		; operator delete
  00015	83 c4 04	 add	 esp, 4
$L220495:
  00018	8b c6		 mov	 eax, esi
  0001a	5e		 pop	 esi
  0001b	c2 04 00	 ret	 4
??_G?$MemPooler@VCGuildMember@@@@QAEPAXI@Z ENDP		; MemPooler<CGuildMember>::`scalar deleting destructor'
_TEXT	ENDS
PUBLIC	??_G?$MemPooler@VCGuild@@@@QAEPAXI@Z		; MemPooler<CGuild>::`scalar deleting destructor'
; Function compile flags: /Ogty
;	COMDAT ??_G?$MemPooler@VCGuild@@@@QAEPAXI@Z
_TEXT	SEGMENT
___flags$ = 8						; size = 4
??_G?$MemPooler@VCGuild@@@@QAEPAXI@Z PROC NEAR		; MemPooler<CGuild>::`scalar deleting destructor', COMDAT
; _this$ = ecx
  00000	56		 push	 esi
  00001	8b f1		 mov	 esi, ecx
  00003	e8 00 00 00 00	 call	 ??1?$MemPooler@VCGuild@@@@QAE@XZ ; MemPooler<CGuild>::~MemPooler<CGuild>
  00008	f6 44 24 08 01	 test	 BYTE PTR ___flags$[esp], 1
  0000d	74 09		 je	 SHORT $L220498
  0000f	56		 push	 esi
  00010	e8 00 00 00 00	 call	 ??3@YAXPAX@Z		; operator delete
  00015	83 c4 04	 add	 esp, 4
$L220498:
  00018	8b c6		 mov	 eax, esi
  0001a	5e		 pop	 esi
  0001b	c2 04 00	 ret	 4
??_G?$MemPooler@VCGuild@@@@QAEPAXI@Z ENDP		; MemPooler<CGuild>::`scalar deleting destructor'
_TEXT	ENDS
PUBLIC	??_G?$MemPooler@VCMover@@@@QAEPAXI@Z		; MemPooler<CMover>::`scalar deleting destructor'
; Function compile flags: /Ogty
;	COMDAT ??_G?$MemPooler@VCMover@@@@QAEPAXI@Z
_TEXT	SEGMENT
___flags$ = 8						; size = 4
??_G?$MemPooler@VCMover@@@@QAEPAXI@Z PROC NEAR		; MemPooler<CMover>::`scalar deleting destructor', COMDAT
; _this$ = ecx
  00000	56		 push	 esi
  00001	8b f1		 mov	 esi, ecx
  00003	e8 00 00 00 00	 call	 ??1?$MemPooler@VCMover@@@@QAE@XZ ; MemPooler<CMover>::~MemPooler<CMover>
  00008	f6 44 24 08 01	 test	 BYTE PTR ___flags$[esp], 1
  0000d	74 09		 je	 SHORT $L220501
  0000f	56		 push	 esi
  00010	e8 00 00 00 00	 call	 ??3@YAXPAX@Z		; operator delete
  00015	83 c4 04	 add	 esp, 4
$L220501:
  00018	8b c6		 mov	 eax, esi
  0001a	5e		 pop	 esi
  0001b	c2 04 00	 ret	 4
??_G?$MemPooler@VCMover@@@@QAEPAXI@Z ENDP		; MemPooler<CMover>::`scalar deleting destructor'
_TEXT	ENDS
PUBLIC	??0?$basic_string@DU?$char_traits@D@std@@V?$allocator@D@2@@std@@QAE@ABV01@@Z ; std::basic_string<char,std::char_traits<char>,std::allocator<char> >::basic_string<char,std::char_traits<char>,std::allocator<char> >
; Function compile flags: /Ogty
;	COMDAT ??0?$basic_string@DU?$char_traits@D@std@@V?$allocator@D@2@@std@@QAE@ABV01@@Z
_TEXT	SEGMENT
__Right$ = 8						; size = 4
??0?$basic_string@DU?$char_traits@D@std@@V?$allocator@D@2@@std@@QAE@ABV01@@Z PROC NEAR ; std::basic_string<char,std::char_traits<char>,std::allocator<char> >::basic_string<char,std::char_traits<char>,std::allocator<char> >, COMDAT
; _this$ = ecx

; 323  : 		{	// construct by copying _Right

  00000	56		 push	 esi

; 324  : 		_Tidy();

  00001	33 c0		 xor	 eax, eax
  00003	8b f1		 mov	 esi, ecx

; 325  : 		assign(_Right, 0, npos);

  00005	6a ff		 push	 -1
  00007	89 46 14	 mov	 DWORD PTR [esi+20], eax
  0000a	c7 46 18 0f 00
	00 00		 mov	 DWORD PTR [esi+24], 15	; 0000000fH
  00011	50		 push	 eax
  00012	88 46 04	 mov	 BYTE PTR [esi+4], al
  00015	8b 44 24 10	 mov	 eax, DWORD PTR __Right$[esp+8]
  00019	50		 push	 eax
  0001a	e8 00 00 00 00	 call	 ?assign@?$basic_string@DU?$char_traits@D@std@@V?$allocator@D@2@@std@@QAEAAV12@ABV12@II@Z ; std::basic_string<char,std::char_traits<char>,std::allocator<char> >::assign

; 326  : 		}

  0001f	8b c6		 mov	 eax, esi
  00021	5e		 pop	 esi
  00022	c2 04 00	 ret	 4
??0?$basic_string@DU?$char_traits@D@std@@V?$allocator@D@2@@std@@QAE@ABV01@@Z ENDP ; std::basic_string<char,std::char_traits<char>,std::allocator<char> >::basic_string<char,std::char_traits<char>,std::allocator<char> >
_TEXT	ENDS
PUBLIC	??4?$CSimpleStringT@D$0A@@ATL@@QAEAAV01@PBD@Z	; ATL::CSimpleStringT<char,0>::operator=
; Function compile flags: /Ogty
; File c:\program files\microsoft visual studio .net 2003\vc7\atlmfc\include\atlsimpstr.h
;	COMDAT ??4?$CSimpleStringT@D$0A@@ATL@@QAEAAV01@PBD@Z
_TEXT	SEGMENT
_pszSrc$ = 8						; size = 4
??4?$CSimpleStringT@D$0A@@ATL@@QAEAAV01@PBD@Z PROC NEAR	; ATL::CSimpleStringT<char,0>::operator=, COMDAT
; _this$ = ecx

; 316  : 		SetString( pszSrc );

  00000	8b 54 24 04	 mov	 edx, DWORD PTR _pszSrc$[esp-4]
  00004	85 d2		 test	 edx, edx
  00006	57		 push	 edi
  00007	8b f9		 mov	 edi, ecx
  00009	75 0f		 jne	 SHORT $L220579
  0000b	33 c0		 xor	 eax, eax
  0000d	50		 push	 eax
  0000e	52		 push	 edx
  0000f	e8 00 00 00 00	 call	 ?SetString@?$CSimpleStringT@D$0A@@ATL@@QAEXPBDH@Z ; ATL::CSimpleStringT<char,0>::SetString

; 317  : 
; 318  : 		return( *this );

  00014	8b c7		 mov	 eax, edi
  00016	5f		 pop	 edi

; 319  : 	}

  00017	c2 04 00	 ret	 4

; 316  : 		SetString( pszSrc );

$L220579:
  0001a	8b c2		 mov	 eax, edx
  0001c	56		 push	 esi
  0001d	8d 70 01	 lea	 esi, DWORD PTR [eax+1]
$L220581:
  00020	8a 08		 mov	 cl, BYTE PTR [eax]
  00022	40		 inc	 eax
  00023	84 c9		 test	 cl, cl
  00025	75 f9		 jne	 SHORT $L220581
  00027	2b c6		 sub	 eax, esi
  00029	5e		 pop	 esi
  0002a	50		 push	 eax
  0002b	52		 push	 edx
  0002c	8b cf		 mov	 ecx, edi
  0002e	e8 00 00 00 00	 call	 ?SetString@?$CSimpleStringT@D$0A@@ATL@@QAEXPBDH@Z ; ATL::CSimpleStringT<char,0>::SetString

; 317  : 
; 318  : 		return( *this );

  00033	8b c7		 mov	 eax, edi
  00035	5f		 pop	 edi

; 319  : 	}

  00036	c2 04 00	 ret	 4
??4?$CSimpleStringT@D$0A@@ATL@@QAEAAV01@PBD@Z ENDP	; ATL::CSimpleStringT<char,0>::operator=
_TEXT	ENDS
PUBLIC	?assign@?$basic_string@DU?$char_traits@D@std@@V?$allocator@D@2@@std@@QAEAAV12@PBD@Z ; std::basic_string<char,std::char_traits<char>,std::allocator<char> >::assign
; Function compile flags: /Ogty
; File c:\program files\microsoft visual studio .net 2003\vc7\include\xstring
;	COMDAT ?assign@?$basic_string@DU?$char_traits@D@std@@V?$allocator@D@2@@std@@QAEAAV12@PBD@Z
_TEXT	SEGMENT
__Ptr$ = 8						; size = 4
?assign@?$basic_string@DU?$char_traits@D@std@@V?$allocator@D@2@@std@@QAEAAV12@PBD@Z PROC NEAR ; std::basic_string<char,std::char_traits<char>,std::allocator<char> >::assign, COMDAT
; _this$ = ecx

; 621  : 		{	// assign [_Ptr, <null>)

  00000	56		 push	 esi

; 622  : 		return (assign(_Ptr, _Traits::length(_Ptr)));

  00001	8b 74 24 08	 mov	 esi, DWORD PTR __Ptr$[esp]
  00005	8b c6		 mov	 eax, esi
  00007	57		 push	 edi
  00008	8d 78 01	 lea	 edi, DWORD PTR [eax+1]
  0000b	eb 03 8d 49 00	 npad	 5
$L220587:
  00010	8a 10		 mov	 dl, BYTE PTR [eax]
  00012	40		 inc	 eax
  00013	84 d2		 test	 dl, dl
  00015	75 f9		 jne	 SHORT $L220587
  00017	2b c7		 sub	 eax, edi
  00019	50		 push	 eax
  0001a	56		 push	 esi
  0001b	e8 00 00 00 00	 call	 ?assign@?$basic_string@DU?$char_traits@D@std@@V?$allocator@D@2@@std@@QAEAAV12@PBDI@Z ; std::basic_string<char,std::char_traits<char>,std::allocator<char> >::assign
  00020	5f		 pop	 edi
  00021	5e		 pop	 esi

; 623  : 		}

  00022	c2 04 00	 ret	 4
?assign@?$basic_string@DU?$char_traits@D@std@@V?$allocator@D@2@@std@@QAEAAV12@PBD@Z ENDP ; std::basic_string<char,std::char_traits<char>,std::allocator<char> >::assign
_TEXT	ENDS
PUBLIC	?ExitInstance@@YAXXZ				; ExitInstance
EXTRN	?Clear@CDbManager@@QAEXXZ:NEAR			; CDbManager::Clear
EXTRN	?m_pPool@CMover@@2PAV?$MemPooler@VCMover@@@@A:DWORD ; CMover::m_pPool
EXTRN	?Destroy@CDbControllerTimer@@QAEXXZ:NEAR	; CDbControllerTimer::Destroy
EXTRN	?GetInstance@CDbControllerTimer@@SAPAV1@XZ:NEAR	; CDbControllerTimer::GetInstance
EXTRN	?g_dpCoreSrvr@@3VCDPCoreSrvr@@A:BYTE		; g_dpCoreSrvr
EXTRN	?Instance@CTLord@@SAPAV1@XZ:NEAR		; CTLord::Instance
EXTRN	?sm_pPool@CGuildMember@@2PAV?$MemPooler@VCGuildMember@@@@A:DWORD ; CGuildMember::sm_pPool
EXTRN	?g_dpLoginSrvr@@3VCDPLoginSrvr@@A:BYTE		; g_dpLoginSrvr
EXTRN	?g_dpAccountClient@@3VCDPAccountClient@@A:BYTE	; g_dpAccountClient
EXTRN	?UninitializeNetLib@@YAXXZ:NEAR			; UninitializeNetLib
EXTRN	?DeleteDPObject@CDPMng@@QAEHXZ:NEAR		; CDPMng::DeleteDPObject
EXTRN	?sm_pPool@CGuild@@2PAV?$MemPooler@VCGuild@@@@A:DWORD ; CGuild::sm_pPool
EXTRN	?Clear@CGuildMng@@QAEXXZ:NEAR			; CGuildMng::Clear
EXTRN	?GetInstance@CDPTrans@@SAPAV1@XZ:NEAR		; CDPTrans::GetInstance
EXTRN	?g_GuildMng@@3VCGuildMng@@A:BYTE		; g_GuildMng
; Function compile flags: /Ogty
; File c:\documents and settings\test\mes documents\source\virtuos_v17\build\program\databaseserver\databaseserver.cpp
;	COMDAT ?ExitInstance@@YAXXZ
_TEXT	SEGMENT
?ExitInstance@@YAXXZ PROC NEAR				; ExitInstance, COMDAT

; 432  : {

  00000	56		 push	 esi

; 433  : 	g_dpLoginSrvr.DeleteDPObject();

  00001	b9 00 00 00 00	 mov	 ecx, OFFSET FLAT:?g_dpLoginSrvr@@3VCDPLoginSrvr@@A
  00006	e8 00 00 00 00	 call	 ?DeleteDPObject@CDPMng@@QAEHXZ ; CDPMng::DeleteDPObject

; 434  : 	CDPTrans::GetInstance()->DeleteDPObject();

  0000b	e8 00 00 00 00	 call	 ?GetInstance@CDPTrans@@SAPAV1@XZ ; CDPTrans::GetInstance
  00010	8b c8		 mov	 ecx, eax
  00012	e8 00 00 00 00	 call	 ?DeleteDPObject@CDPMng@@QAEHXZ ; CDPMng::DeleteDPObject

; 435  : 	g_dpAccountClient.DeleteDPObject();

  00017	b9 00 00 00 00	 mov	 ecx, OFFSET FLAT:?g_dpAccountClient@@3VCDPAccountClient@@A
  0001c	e8 00 00 00 00	 call	 ?DeleteDPObject@CDPMng@@QAEHXZ ; CDPMng::DeleteDPObject

; 436  : 	g_dpCoreSrvr.DeleteDPObject();

  00021	b9 00 00 00 00	 mov	 ecx, OFFSET FLAT:?g_dpCoreSrvr@@3VCDPCoreSrvr@@A
  00026	e8 00 00 00 00	 call	 ?DeleteDPObject@CDPMng@@QAEHXZ ; CDPMng::DeleteDPObject

; 437  : 	g_DbManager.Clear();

  0002b	8b 0d 00 00 00
	00		 mov	 ecx, DWORD PTR ?g_DbManager@@3AAVCDbManager@@A ; g_DbManager
  00031	e8 00 00 00 00	 call	 ?Clear@CDbManager@@QAEXXZ ; CDbManager::Clear

; 438  : 	g_GuildMng.Clear();

  00036	b9 00 00 00 00	 mov	 ecx, OFFSET FLAT:?g_GuildMng@@3VCGuildMng@@A
  0003b	e8 00 00 00 00	 call	 ?Clear@CGuildMng@@QAEXXZ ; CGuildMng::Clear

; 439  : #ifndef __VM_0820
; 440  : #ifndef __MEM_TRACE
; 441  : 	SAFE_DELETE( CGuildMember::sm_pPool );

  00040	8b 0d 00 00 00
	00		 mov	 ecx, DWORD PTR ?sm_pPool@CGuildMember@@2PAV?$MemPooler@VCGuildMember@@@@A ; CGuildMember::sm_pPool
  00046	85 c9		 test	 ecx, ecx
  00048	74 1a		 je	 SHORT $L213264
  0004a	8b f1		 mov	 esi, ecx
  0004c	e8 00 00 00 00	 call	 ??1?$MemPooler@VCGuildMember@@@@QAE@XZ ; MemPooler<CGuildMember>::~MemPooler<CGuildMember>
  00051	56		 push	 esi
  00052	e8 00 00 00 00	 call	 ??3@YAXPAX@Z		; operator delete
  00057	83 c4 04	 add	 esp, 4
  0005a	c7 05 00 00 00
	00 00 00 00 00	 mov	 DWORD PTR ?sm_pPool@CGuildMember@@2PAV?$MemPooler@VCGuildMember@@@@A, 0 ; CGuildMember::sm_pPool
$L213264:

; 442  : 	SAFE_DELETE( CGuild::sm_pPool );

  00064	8b 0d 00 00 00
	00		 mov	 ecx, DWORD PTR ?sm_pPool@CGuild@@2PAV?$MemPooler@VCGuild@@@@A ; CGuild::sm_pPool
  0006a	85 c9		 test	 ecx, ecx
  0006c	74 1a		 je	 SHORT $L213268
  0006e	8b f1		 mov	 esi, ecx
  00070	e8 00 00 00 00	 call	 ??1?$MemPooler@VCGuild@@@@QAE@XZ ; MemPooler<CGuild>::~MemPooler<CGuild>
  00075	56		 push	 esi
  00076	e8 00 00 00 00	 call	 ??3@YAXPAX@Z		; operator delete
  0007b	83 c4 04	 add	 esp, 4
  0007e	c7 05 00 00 00
	00 00 00 00 00	 mov	 DWORD PTR ?sm_pPool@CGuild@@2PAV?$MemPooler@VCGuild@@@@A, 0 ; CGuild::sm_pPool
$L213268:

; 443  : 	SAFE_DELETE( CMover::m_pPool );

  00088	8b 0d 00 00 00
	00		 mov	 ecx, DWORD PTR ?m_pPool@CMover@@2PAV?$MemPooler@VCMover@@@@A ; CMover::m_pPool
  0008e	85 c9		 test	 ecx, ecx
  00090	74 1a		 je	 SHORT $L213272
  00092	8b f1		 mov	 esi, ecx
  00094	e8 00 00 00 00	 call	 ??1?$MemPooler@VCMover@@@@QAE@XZ ; MemPooler<CMover>::~MemPooler<CMover>
  00099	56		 push	 esi
  0009a	e8 00 00 00 00	 call	 ??3@YAXPAX@Z		; operator delete
  0009f	83 c4 04	 add	 esp, 4
  000a2	c7 05 00 00 00
	00 00 00 00 00	 mov	 DWORD PTR ?m_pPool@CMover@@2PAV?$MemPooler@VCMover@@@@A, 0 ; CMover::m_pPool
$L213272:

; 444  : #endif	// __MEM_TRACE
; 445  : #endif	// __VM_0820
; 446  : 
; 447  : #if __VER >= 12 // __TAX
; 448  : 	CDbControllerTimer::GetInstance()->Destroy();

  000ac	e8 00 00 00 00	 call	 ?GetInstance@CDbControllerTimer@@SAPAV1@XZ ; CDbControllerTimer::GetInstance
  000b1	8b c8		 mov	 ecx, eax
  000b3	e8 00 00 00 00	 call	 ?Destroy@CDbControllerTimer@@QAEXXZ ; CDbControllerTimer::Destroy

; 449  : #endif	// __TAX
; 450  : #if __VER >= 12 // __LORD
; 451  : 	//     
; 452  : 	CTLord::Instance()->DestroyColleagues();

  000b8	e8 00 00 00 00	 call	 ?Instance@CTLord@@SAPAV1@XZ ; CTLord::Instance
  000bd	8b 10		 mov	 edx, DWORD PTR [eax]
  000bf	8b c8		 mov	 ecx, eax
  000c1	ff 52 04	 call	 DWORD PTR [edx+4]
  000c4	5e		 pop	 esi

; 453  : #endif	// __LORD
; 454  : 
; 455  : 	UninitializeNetLib();

  000c5	e9 00 00 00 00	 jmp	 ?UninitializeNetLib@@YAXXZ ; UninitializeNetLib
?ExitInstance@@YAXXZ ENDP				; ExitInstance
_TEXT	ENDS
PUBLIC	??0_Node@?$_Tree_nod@V?$_Tset_traits@V?$basic_string@DU?$char_traits@D@std@@V?$allocator@D@2@@std@@U?$less@V?$basic_string@DU?$char_traits@D@std@@V?$allocator@D@2@@std@@@2@V?$allocator@V?$basic_string@DU?$char_traits@D@std@@V?$allocator@D@2@@std@@@2@$0A@@std@@@std@@QAE@PAU012@00ABV?$basic_string@DU?$char_traits@D@std@@V?$allocator@D@2@@2@D@Z ; std::_Tree_nod<std::_Tset_traits<std::basic_string<char,std::char_traits<char>,std::allocator<char> >,std::less<std::basic_string<char,std::char_traits<char>,std::allocator<char> > >,std::allocator<std::basic_string<char,std::char_traits<char>,std::allocator<char> > >,0> >::_Node::_Node
; Function compile flags: /Ogty
; File c:\program files\microsoft visual studio .net 2003\vc7\include\xtree
;	COMDAT ??0_Node@?$_Tree_nod@V?$_Tset_traits@V?$basic_string@DU?$char_traits@D@std@@V?$allocator@D@2@@std@@U?$less@V?$basic_string@DU?$char_traits@D@std@@V?$allocator@D@2@@std@@@2@V?$allocator@V?$basic_string@DU?$char_traits@D@std@@V?$allocator@D@2@@std@@@2@$0A@@std@@@std@@QAE@PAU012@00ABV?$basic_string@DU?$char_traits@D@std@@V?$allocator@D@2@@2@D@Z
_TEXT	SEGMENT
__Larg$ = 8						; size = 4
__Parg$ = 12						; size = 4
__Rarg$ = 16						; size = 4
__Val$ = 20						; size = 4
__Carg$ = 24						; size = 1
??0_Node@?$_Tree_nod@V?$_Tset_traits@V?$basic_string@DU?$char_traits@D@std@@V?$allocator@D@2@@std@@U?$less@V?$basic_string@DU?$char_traits@D@std@@V?$allocator@D@2@@std@@@2@V?$allocator@V?$basic_string@DU?$char_traits@D@std@@V?$allocator@D@2@@std@@@2@$0A@@std@@@std@@QAE@PAU012@00ABV?$basic_string@DU?$char_traits@D@std@@V?$allocator@D@2@@2@D@Z PROC NEAR ; std::_Tree_nod<std::_Tset_traits<std::basic_string<char,std::char_traits<char>,std::allocator<char> >,std::less<std::basic_string<char,std::char_traits<char>,std::allocator<char> > >,std::allocator<std::basic_string<char,std::char_traits<char>,std::allocator<char> > >,0> >::_Node::_Node, COMDAT
; _this$ = ecx

; 40   : 			{	// construct a node with value

  00000	8b 44 24 04	 mov	 eax, DWORD PTR __Larg$[esp-4]
  00004	8b 54 24 0c	 mov	 edx, DWORD PTR __Rarg$[esp-4]
  00008	56		 push	 esi
  00009	8b f1		 mov	 esi, ecx
  0000b	8b 4c 24 0c	 mov	 ecx, DWORD PTR __Parg$[esp]
  0000f	89 06		 mov	 DWORD PTR [esi], eax
  00011	8b 44 24 14	 mov	 eax, DWORD PTR __Val$[esp]
  00015	89 4e 04	 mov	 DWORD PTR [esi+4], ecx
  00018	6a ff		 push	 -1
  0001a	8d 4e 0c	 lea	 ecx, DWORD PTR [esi+12]
  0001d	89 56 08	 mov	 DWORD PTR [esi+8], edx
  00020	6a 00		 push	 0
  00022	c7 41 18 0f 00
	00 00		 mov	 DWORD PTR [ecx+24], 15	; 0000000fH
  00029	c7 41 14 00 00
	00 00		 mov	 DWORD PTR [ecx+20], 0
  00030	50		 push	 eax
  00031	c6 41 04 00	 mov	 BYTE PTR [ecx+4], 0
  00035	e8 00 00 00 00	 call	 ?assign@?$basic_string@DU?$char_traits@D@std@@V?$allocator@D@2@@std@@QAEAAV12@ABV12@II@Z ; std::basic_string<char,std::char_traits<char>,std::allocator<char> >::assign
  0003a	8a 4c 24 18	 mov	 cl, BYTE PTR __Carg$[esp]
  0003e	88 4e 28	 mov	 BYTE PTR [esi+40], cl
  00041	c6 46 29 00	 mov	 BYTE PTR [esi+41], 0

; 41   : 			}

  00045	8b c6		 mov	 eax, esi
  00047	5e		 pop	 esi
  00048	c2 14 00	 ret	 20			; 00000014H
??0_Node@?$_Tree_nod@V?$_Tset_traits@V?$basic_string@DU?$char_traits@D@std@@V?$allocator@D@2@@std@@U?$less@V?$basic_string@DU?$char_traits@D@std@@V?$allocator@D@2@@std@@@2@V?$allocator@V?$basic_string@DU?$char_traits@D@std@@V?$allocator@D@2@@std@@@2@$0A@@std@@@std@@QAE@PAU012@00ABV?$basic_string@DU?$char_traits@D@std@@V?$allocator@D@2@@2@D@Z ENDP ; std::_Tree_nod<std::_Tset_traits<std::basic_string<char,std::char_traits<char>,std::allocator<char> >,std::less<std::basic_string<char,std::char_traits<char>,std::allocator<char> > >,std::allocator<std::basic_string<char,std::char_traits<char>,std::allocator<char> > >,0> >::_Node::_Node
_TEXT	ENDS
PUBLIC	??0logic_error@std@@QAE@ABV?$basic_string@DU?$char_traits@D@std@@V?$allocator@D@2@@1@@Z ; std::logic_error::logic_error
EXTRN	??0exception@@QAE@XZ:NEAR			; exception::exception
;	COMDAT xdata$x
; File c:\program files\microsoft visual studio .net 2003\vc7\include\iosfwd
xdata$x	SEGMENT
$T220815 DD	0ffffffffH
	DD	FLAT:$L220715
$T220813 DD	019930520H
	DD	01H
	DD	FLAT:$T220815
	DD	2 DUP(00H)
	DD	2 DUP(00H)
; Function compile flags: /Ogty
; File c:\program files\microsoft visual studio .net 2003\vc7\include\stdexcept
xdata$x	ENDS
;	COMDAT ??0logic_error@std@@QAE@ABV?$basic_string@DU?$char_traits@D@std@@V?$allocator@D@2@@1@@Z
_TEXT	SEGMENT
_this$ = -16						; size = 4
__$EHRec$ = -12						; size = 12
__Message$ = 8						; size = 4
??0logic_error@std@@QAE@ABV?$basic_string@DU?$char_traits@D@std@@V?$allocator@D@2@@1@@Z PROC NEAR ; std::logic_error::logic_error, COMDAT
; _this$ = ecx

; 19   : 		{	// construct from message string

  00000	6a ff		 push	 -1
  00002	68 00 00 00 00	 push	 __ehhandler$??0logic_error@std@@QAE@ABV?$basic_string@DU?$char_traits@D@std@@V?$allocator@D@2@@1@@Z
  00007	64 a1 00 00 00
	00		 mov	 eax, DWORD PTR fs:__except_list
  0000d	50		 push	 eax
  0000e	64 89 25 00 00
	00 00		 mov	 DWORD PTR fs:__except_list, esp
  00015	51		 push	 ecx
  00016	56		 push	 esi
  00017	8b f1		 mov	 esi, ecx
  00019	89 74 24 04	 mov	 DWORD PTR _this$[esp+20], esi
  0001d	e8 00 00 00 00	 call	 ??0exception@@QAE@XZ	; exception::exception
  00022	33 c0		 xor	 eax, eax
  00024	8d 4e 0c	 lea	 ecx, DWORD PTR [esi+12]
  00027	c7 06 00 00 00
	00		 mov	 DWORD PTR [esi], OFFSET FLAT:??_7logic_error@std@@6B@
  0002d	6a ff		 push	 -1
  0002f	89 41 14	 mov	 DWORD PTR [ecx+20], eax
  00032	c7 41 18 0f 00
	00 00		 mov	 DWORD PTR [ecx+24], 15	; 0000000fH
  00039	50		 push	 eax
  0003a	89 44 24 18	 mov	 DWORD PTR __$EHRec$[esp+36], eax
  0003e	88 41 04	 mov	 BYTE PTR [ecx+4], al
  00041	8b 44 24 20	 mov	 eax, DWORD PTR __Message$[esp+24]
  00045	50		 push	 eax
  00046	e8 00 00 00 00	 call	 ?assign@?$basic_string@DU?$char_traits@D@std@@V?$allocator@D@2@@std@@QAEAAV12@ABV12@II@Z ; std::basic_string<char,std::char_traits<char>,std::allocator<char> >::assign

; 20   : 		}

  0004b	8b 4c 24 08	 mov	 ecx, DWORD PTR __$EHRec$[esp+20]
  0004f	8b c6		 mov	 eax, esi
  00051	5e		 pop	 esi
  00052	64 89 0d 00 00
	00 00		 mov	 DWORD PTR fs:__except_list, ecx
  00059	83 c4 10	 add	 esp, 16			; 00000010H
  0005c	c2 04 00	 ret	 4
_TEXT	ENDS
;	COMDAT text$x
text$x	SEGMENT
$L220715:
  00000	8b 4d f0	 mov	 ecx, DWORD PTR _this$[ebp]
  00003	e9 00 00 00 00	 jmp	 ??1exception@@UAE@XZ	; exception::~exception
__ehhandler$??0logic_error@std@@QAE@ABV?$basic_string@DU?$char_traits@D@std@@V?$allocator@D@2@@1@@Z:
  00008	b8 00 00 00 00	 mov	 eax, OFFSET FLAT:$T220813
  0000d	e9 00 00 00 00	 jmp	 ___CxxFrameHandler
text$x	ENDS
??0logic_error@std@@QAE@ABV?$basic_string@DU?$char_traits@D@std@@V?$allocator@D@2@@1@@Z ENDP ; std::logic_error::logic_error
PUBLIC	??0length_error@std@@QAE@ABV?$basic_string@DU?$char_traits@D@std@@V?$allocator@D@2@@1@@Z ; std::length_error::length_error
PUBLIC	??_7length_error@std@@6B@			; std::length_error::`vftable'
PUBLIC	??_Glength_error@std@@UAEPAXI@Z			; std::length_error::`scalar deleting destructor'
EXTRN	??_Elength_error@std@@UAEPAXI@Z:NEAR		; std::length_error::`vector deleting destructor'
;	COMDAT ??_7length_error@std@@6B@
CONST	SEGMENT
??_7length_error@std@@6B@ DD FLAT:??_Elength_error@std@@UAEPAXI@Z ; std::length_error::`vftable'
	DD	FLAT:?what@logic_error@std@@UBEPBDXZ
; Function compile flags: /Ogty
CONST	ENDS
;	COMDAT ??0length_error@std@@QAE@ABV?$basic_string@DU?$char_traits@D@std@@V?$allocator@D@2@@1@@Z
_TEXT	SEGMENT
__Message$ = 8						; size = 4
??0length_error@std@@QAE@ABV?$basic_string@DU?$char_traits@D@std@@V?$allocator@D@2@@1@@Z PROC NEAR ; std::length_error::length_error, COMDAT
; _this$ = ecx

; 95   : 		{	// construct from message string

  00000	8b 44 24 04	 mov	 eax, DWORD PTR __Message$[esp-4]
  00004	56		 push	 esi
  00005	50		 push	 eax
  00006	8b f1		 mov	 esi, ecx
  00008	e8 00 00 00 00	 call	 ??0logic_error@std@@QAE@ABV?$basic_string@DU?$char_traits@D@std@@V?$allocator@D@2@@1@@Z ; std::logic_error::logic_error
  0000d	c7 06 00 00 00
	00		 mov	 DWORD PTR [esi], OFFSET FLAT:??_7length_error@std@@6B@

; 96   : 		}

  00013	8b c6		 mov	 eax, esi
  00015	5e		 pop	 esi
  00016	c2 04 00	 ret	 4
??0length_error@std@@QAE@ABV?$basic_string@DU?$char_traits@D@std@@V?$allocator@D@2@@1@@Z ENDP ; std::length_error::length_error
_TEXT	ENDS
PUBLIC	??1length_error@std@@UAE@XZ			; std::length_error::~length_error
; Function compile flags: /Ogty
;	COMDAT ??_Glength_error@std@@UAEPAXI@Z
_TEXT	SEGMENT
___flags$ = 8						; size = 4
??_Glength_error@std@@UAEPAXI@Z PROC NEAR		; std::length_error::`scalar deleting destructor', COMDAT
; _this$ = ecx
  00000	56		 push	 esi
  00001	8b f1		 mov	 esi, ecx
  00003	e8 00 00 00 00	 call	 ??1length_error@std@@UAE@XZ ; std::length_error::~length_error
  00008	f6 44 24 08 01	 test	 BYTE PTR ___flags$[esp], 1
  0000d	74 09		 je	 SHORT $L220823
  0000f	56		 push	 esi
  00010	e8 00 00 00 00	 call	 ??3@YAXPAX@Z		; operator delete
  00015	83 c4 04	 add	 esp, 4
$L220823:
  00018	8b c6		 mov	 eax, esi
  0001a	5e		 pop	 esi
  0001b	c2 04 00	 ret	 4
??_Glength_error@std@@UAEPAXI@Z ENDP			; std::length_error::`scalar deleting destructor'
; Function compile flags: /Ogty
_TEXT	ENDS
;	COMDAT ??1length_error@std@@UAE@XZ
_TEXT	SEGMENT
??1length_error@std@@UAE@XZ PROC NEAR			; std::length_error::~length_error, COMDAT
; _this$ = ecx

; 99   : 		{}	// destroy the object

  00000	56		 push	 esi
  00001	8b f1		 mov	 esi, ecx
  00003	c7 06 00 00 00
	00		 mov	 DWORD PTR [esi], OFFSET FLAT:??_7logic_error@std@@6B@
  00009	83 7e 24 10	 cmp	 DWORD PTR [esi+36], 16	; 00000010H
  0000d	72 0c		 jb	 SHORT $L220917
  0000f	8b 46 10	 mov	 eax, DWORD PTR [esi+16]
  00012	50		 push	 eax
  00013	e8 00 00 00 00	 call	 ??3@YAXPAX@Z		; operator delete
  00018	83 c4 04	 add	 esp, 4
$L220917:
  0001b	33 c0		 xor	 eax, eax
  0001d	c7 46 24 0f 00
	00 00		 mov	 DWORD PTR [esi+36], 15	; 0000000fH
  00024	89 46 20	 mov	 DWORD PTR [esi+32], eax
  00027	88 46 10	 mov	 BYTE PTR [esi+16], al
  0002a	8b ce		 mov	 ecx, esi
  0002c	5e		 pop	 esi
  0002d	e9 00 00 00 00	 jmp	 ??1exception@@UAE@XZ	; exception::~exception
??1length_error@std@@UAE@XZ ENDP			; std::length_error::~length_error
_TEXT	ENDS
PUBLIC	??0out_of_range@std@@QAE@ABV?$basic_string@DU?$char_traits@D@std@@V?$allocator@D@2@@1@@Z ; std::out_of_range::out_of_range
PUBLIC	??_7out_of_range@std@@6B@			; std::out_of_range::`vftable'
PUBLIC	??_Gout_of_range@std@@UAEPAXI@Z			; std::out_of_range::`scalar deleting destructor'
EXTRN	??_Eout_of_range@std@@UAEPAXI@Z:NEAR		; std::out_of_range::`vector deleting destructor'
;	COMDAT ??_7out_of_range@std@@6B@
CONST	SEGMENT
??_7out_of_range@std@@6B@ DD FLAT:??_Eout_of_range@std@@UAEPAXI@Z ; std::out_of_range::`vftable'
	DD	FLAT:?what@logic_error@std@@UBEPBDXZ
; Function compile flags: /Ogty
CONST	ENDS
;	COMDAT ??0out_of_range@std@@QAE@ABV?$basic_string@DU?$char_traits@D@std@@V?$allocator@D@2@@1@@Z
_TEXT	SEGMENT
__Message$ = 8						; size = 4
??0out_of_range@std@@QAE@ABV?$basic_string@DU?$char_traits@D@std@@V?$allocator@D@2@@1@@Z PROC NEAR ; std::out_of_range::out_of_range, COMDAT
; _this$ = ecx

; 118  : 		{	// construct from message string

  00000	8b 44 24 04	 mov	 eax, DWORD PTR __Message$[esp-4]
  00004	56		 push	 esi
  00005	50		 push	 eax
  00006	8b f1		 mov	 esi, ecx
  00008	e8 00 00 00 00	 call	 ??0logic_error@std@@QAE@ABV?$basic_string@DU?$char_traits@D@std@@V?$allocator@D@2@@1@@Z ; std::logic_error::logic_error
  0000d	c7 06 00 00 00
	00		 mov	 DWORD PTR [esi], OFFSET FLAT:??_7out_of_range@std@@6B@

; 119  : 		}

  00013	8b c6		 mov	 eax, esi
  00015	5e		 pop	 esi
  00016	c2 04 00	 ret	 4
??0out_of_range@std@@QAE@ABV?$basic_string@DU?$char_traits@D@std@@V?$allocator@D@2@@1@@Z ENDP ; std::out_of_range::out_of_range
_TEXT	ENDS
PUBLIC	??1out_of_range@std@@UAE@XZ			; std::out_of_range::~out_of_range
; Function compile flags: /Ogty
;	COMDAT ??_Gout_of_range@std@@UAEPAXI@Z
_TEXT	SEGMENT
___flags$ = 8						; size = 4
??_Gout_of_range@std@@UAEPAXI@Z PROC NEAR		; std::out_of_range::`scalar deleting destructor', COMDAT
; _this$ = ecx
  00000	56		 push	 esi
  00001	8b f1		 mov	 esi, ecx
  00003	e8 00 00 00 00	 call	 ??1out_of_range@std@@UAE@XZ ; std::out_of_range::~out_of_range
  00008	f6 44 24 08 01	 test	 BYTE PTR ___flags$[esp], 1
  0000d	74 09		 je	 SHORT $L220934
  0000f	56		 push	 esi
  00010	e8 00 00 00 00	 call	 ??3@YAXPAX@Z		; operator delete
  00015	83 c4 04	 add	 esp, 4
$L220934:
  00018	8b c6		 mov	 eax, esi
  0001a	5e		 pop	 esi
  0001b	c2 04 00	 ret	 4
??_Gout_of_range@std@@UAEPAXI@Z ENDP			; std::out_of_range::`scalar deleting destructor'
; Function compile flags: /Ogty
_TEXT	ENDS
;	COMDAT ??1out_of_range@std@@UAE@XZ
_TEXT	SEGMENT
??1out_of_range@std@@UAE@XZ PROC NEAR			; std::out_of_range::~out_of_range, COMDAT
; _this$ = ecx

; 122  : 		{}	// destroy the object

  00000	56		 push	 esi
  00001	8b f1		 mov	 esi, ecx
  00003	c7 06 00 00 00
	00		 mov	 DWORD PTR [esi], OFFSET FLAT:??_7logic_error@std@@6B@
  00009	83 7e 24 10	 cmp	 DWORD PTR [esi+36], 16	; 00000010H
  0000d	72 0c		 jb	 SHORT $L221027
  0000f	8b 46 10	 mov	 eax, DWORD PTR [esi+16]
  00012	50		 push	 eax
  00013	e8 00 00 00 00	 call	 ??3@YAXPAX@Z		; operator delete
  00018	83 c4 04	 add	 esp, 4
$L221027:
  0001b	33 c0		 xor	 eax, eax
  0001d	c7 46 24 0f 00
	00 00		 mov	 DWORD PTR [esi+36], 15	; 0000000fH
  00024	89 46 20	 mov	 DWORD PTR [esi+32], eax
  00027	88 46 10	 mov	 BYTE PTR [esi+16], al
  0002a	8b ce		 mov	 ecx, esi
  0002c	5e		 pop	 esi
  0002d	e9 00 00 00 00	 jmp	 ??1exception@@UAE@XZ	; exception::~exception
??1out_of_range@std@@UAE@XZ ENDP			; std::out_of_range::~out_of_range
_TEXT	ENDS
PUBLIC	??4?$CStringT@DV?$StrTraitMFC@DV?$ChTraitsCRT@D@ATL@@@@@ATL@@QAEAAV01@PBD@Z ; ATL::CStringT<char,StrTraitMFC<char,ATL::ChTraitsCRT<char> > >::operator=
; Function compile flags: /Ogty
; File c:\program files\microsoft visual studio .net 2003\vc7\atlmfc\include\cstringt.h
;	COMDAT ??4?$CStringT@DV?$StrTraitMFC@DV?$ChTraitsCRT@D@ATL@@@@@ATL@@QAEAAV01@PBD@Z
_TEXT	SEGMENT
_pszSrc$ = 8						; size = 4
??4?$CStringT@DV?$StrTraitMFC@DV?$ChTraitsCRT@D@ATL@@@@@ATL@@QAEAAV01@PBD@Z PROC NEAR ; ATL::CStringT<char,StrTraitMFC<char,ATL::ChTraitsCRT<char> > >::operator=, COMDAT
; _this$ = ecx

; 983  : 		CThisSimpleString::operator=( pszSrc );

  00000	8b 54 24 04	 mov	 edx, DWORD PTR _pszSrc$[esp-4]
  00004	85 d2		 test	 edx, edx
  00006	57		 push	 edi
  00007	8b f9		 mov	 edi, ecx
  00009	75 0f		 jne	 SHORT $L221059
  0000b	33 c0		 xor	 eax, eax
  0000d	50		 push	 eax
  0000e	52		 push	 edx
  0000f	e8 00 00 00 00	 call	 ?SetString@?$CSimpleStringT@D$0A@@ATL@@QAEXPBDH@Z ; ATL::CSimpleStringT<char,0>::SetString

; 984  : 
; 985  : 		return( *this );

  00014	8b c7		 mov	 eax, edi
  00016	5f		 pop	 edi

; 986  : 	}

  00017	c2 04 00	 ret	 4

; 983  : 		CThisSimpleString::operator=( pszSrc );

$L221059:
  0001a	8b c2		 mov	 eax, edx
  0001c	56		 push	 esi
  0001d	8d 70 01	 lea	 esi, DWORD PTR [eax+1]
$L221061:
  00020	8a 08		 mov	 cl, BYTE PTR [eax]
  00022	40		 inc	 eax
  00023	84 c9		 test	 cl, cl
  00025	75 f9		 jne	 SHORT $L221061
  00027	2b c6		 sub	 eax, esi
  00029	5e		 pop	 esi
  0002a	50		 push	 eax
  0002b	52		 push	 edx
  0002c	8b cf		 mov	 ecx, edi
  0002e	e8 00 00 00 00	 call	 ?SetString@?$CSimpleStringT@D$0A@@ATL@@QAEXPBDH@Z ; ATL::CSimpleStringT<char,0>::SetString

; 984  : 
; 985  : 		return( *this );

  00033	8b c7		 mov	 eax, edi
  00035	5f		 pop	 edi

; 986  : 	}

  00036	c2 04 00	 ret	 4
??4?$CStringT@DV?$StrTraitMFC@DV?$ChTraitsCRT@D@ATL@@@@@ATL@@QAEAAV01@PBD@Z ENDP ; ATL::CStringT<char,StrTraitMFC<char,ATL::ChTraitsCRT<char> > >::operator=
_TEXT	ENDS
PUBLIC	??0?$basic_string@DU?$char_traits@D@std@@V?$allocator@D@2@@std@@QAE@PBD@Z ; std::basic_string<char,std::char_traits<char>,std::allocator<char> >::basic_string<char,std::char_traits<char>,std::allocator<char> >
; Function compile flags: /Ogty
; File c:\program files\microsoft visual studio .net 2003\vc7\include\xstring
;	COMDAT ??0?$basic_string@DU?$char_traits@D@std@@V?$allocator@D@2@@std@@QAE@PBD@Z
_TEXT	SEGMENT
__Ptr$ = 8						; size = 4
??0?$basic_string@DU?$char_traits@D@std@@V?$allocator@D@2@@std@@QAE@PBD@Z PROC NEAR ; std::basic_string<char,std::char_traits<char>,std::allocator<char> >::basic_string<char,std::char_traits<char>,std::allocator<char> >, COMDAT
; _this$ = ecx

; 361  : 		_Tidy();
; 362  : 		assign(_Ptr);

  00000	8b 54 24 04	 mov	 edx, DWORD PTR __Ptr$[esp-4]
  00004	56		 push	 esi
  00005	8b f1		 mov	 esi, ecx
  00007	8b c2		 mov	 eax, edx
  00009	57		 push	 edi
  0000a	c7 46 18 0f 00
	00 00		 mov	 DWORD PTR [esi+24], 15	; 0000000fH
  00011	c7 46 14 00 00
	00 00		 mov	 DWORD PTR [esi+20], 0
  00018	c6 46 04 00	 mov	 BYTE PTR [esi+4], 0
  0001c	8d 78 01	 lea	 edi, DWORD PTR [eax+1]
  0001f	90		 npad	 1
$L221136:
  00020	8a 08		 mov	 cl, BYTE PTR [eax]
  00022	40		 inc	 eax
  00023	84 c9		 test	 cl, cl
  00025	75 f9		 jne	 SHORT $L221136
  00027	2b c7		 sub	 eax, edi
  00029	50		 push	 eax
  0002a	52		 push	 edx
  0002b	8b ce		 mov	 ecx, esi
  0002d	e8 00 00 00 00	 call	 ?assign@?$basic_string@DU?$char_traits@D@std@@V?$allocator@D@2@@std@@QAEAAV12@PBDI@Z ; std::basic_string<char,std::char_traits<char>,std::allocator<char> >::assign
  00032	5f		 pop	 edi

; 363  : 		}

  00033	8b c6		 mov	 eax, esi
  00035	5e		 pop	 esi
  00036	c2 04 00	 ret	 4
??0?$basic_string@DU?$char_traits@D@std@@V?$allocator@D@2@@std@@QAE@PBD@Z ENDP ; std::basic_string<char,std::char_traits<char>,std::allocator<char> >::basic_string<char,std::char_traits<char>,std::allocator<char> >
_TEXT	ENDS
PUBLIC	?_Buynode@?$_Tree@V?$_Tset_traits@V?$basic_string@DU?$char_traits@D@std@@V?$allocator@D@2@@std@@U?$less@V?$basic_string@DU?$char_traits@D@std@@V?$allocator@D@2@@std@@@2@V?$allocator@V?$basic_string@DU?$char_traits@D@std@@V?$allocator@D@2@@std@@@2@$0A@@std@@@std@@IAEPAU_Node@?$_Tree_nod@V?$_Tset_traits@V?$basic_string@DU?$char_traits@D@std@@V?$allocator@D@2@@std@@U?$less@V?$basic_string@DU?$char_traits@D@std@@V?$allocator@D@2@@std@@@2@V?$allocator@V?$basic_string@DU?$char_traits@D@std@@V?$allocator@D@2@@std@@@2@$0A@@std@@@2@PAU342@00ABV?$basic_string@DU?$char_traits@D@std@@V?$allocator@D@2@@2@D@Z ; std::_Tree<std::_Tset_traits<std::basic_string<char,std::char_traits<char>,std::allocator<char> >,std::less<std::basic_string<char,std::char_traits<char>,std::allocator<char> > >,std::allocator<std::basic_string<char,std::char_traits<char>,std::allocator<char> > >,0> >::_Buynode
;	COMDAT xdata$x
; File c:\program files\microsoft visual studio .net 2003\vc7\include\xmemory
xdata$x	SEGMENT
$T221292 DD	0ffffffffH
	DD	00H
	DD	00H
	DD	FLAT:$L221145
	DD	0ffffffffH
	DD	00H
$T221294 DD	00H
	DD	00H
	DD	00H
	DD	FLAT:$L221144
$T221293 DD	00H
	DD	01H
	DD	02H
	DD	01H
	DD	FLAT:$T221294
$T221289 DD	019930520H
	DD	03H
	DD	FLAT:$T221292
	DD	01H
	DD	FLAT:$T221293
	DD	2 DUP(00H)
; Function compile flags: /Ogty
; File c:\program files\microsoft visual studio .net 2003\vc7\include\xtree
xdata$x	ENDS
;	COMDAT ?_Buynode@?$_Tree@V?$_Tset_traits@V?$basic_string@DU?$char_traits@D@std@@V?$allocator@D@2@@std@@U?$less@V?$basic_string@DU?$char_traits@D@std@@V?$allocator@D@2@@std@@@2@V?$allocator@V?$basic_string@DU?$char_traits@D@std@@V?$allocator@D@2@@std@@@2@$0A@@std@@@std@@IAEPAU_Node@?$_Tree_nod@V?$_Tset_traits@V?$basic_string@DU?$char_traits@D@std@@V?$allocator@D@2@@std@@U?$less@V?$basic_string@DU?$char_traits@D@std@@V?$allocator@D@2@@std@@@2@V?$allocator@V?$basic_string@DU?$char_traits@D@std@@V?$allocator@D@2@@std@@@2@$0A@@std@@@2@PAU342@00ABV?$basic_string@DU?$char_traits@D@std@@V?$allocator@D@2@@2@D@Z
_TEXT	SEGMENT
$T221140 = -24						; size = 4
__Wherenode$ = -20					; size = 4
__$EHRec$ = -16						; size = 16
__Larg$ = 8						; size = 4
__Parg$ = 12						; size = 4
__Rarg$ = 16						; size = 4
__Val$ = 20						; size = 4
__Carg$ = 24						; size = 1
?_Buynode@?$_Tree@V?$_Tset_traits@V?$basic_string@DU?$char_traits@D@std@@V?$allocator@D@2@@std@@U?$less@V?$basic_string@DU?$char_traits@D@std@@V?$allocator@D@2@@std@@@2@V?$allocator@V?$basic_string@DU?$char_traits@D@std@@V?$allocator@D@2@@std@@@2@$0A@@std@@@std@@IAEPAU_Node@?$_Tree_nod@V?$_Tset_traits@V?$basic_string@DU?$char_traits@D@std@@V?$allocator@D@2@@std@@U?$less@V?$basic_string@DU?$char_traits@D@std@@V?$allocator@D@2@@std@@@2@V?$allocator@V?$basic_string@DU?$char_traits@D@std@@V?$allocator@D@2@@std@@@2@$0A@@std@@@2@PAU342@00ABV?$basic_string@DU?$char_traits@D@std@@V?$allocator@D@2@@2@D@Z PROC NEAR ; std::_Tree<std::_Tset_traits<std::basic_string<char,std::char_traits<char>,std::allocator<char> >,std::less<std::basic_string<char,std::char_traits<char>,std::allocator<char> > >,std::allocator<std::basic_string<char,std::char_traits<char>,std::allocator<char> > >,0> >::_Buynode, COMDAT
; _this$ = ecx

; 1130 : 		{	// allocate a node with pointers, value, and color

  00000	55		 push	 ebp
  00001	8b ec		 mov	 ebp, esp
  00003	6a ff		 push	 -1
  00005	68 00 00 00 00	 push	 __ehhandler$?_Buynode@?$_Tree@V?$_Tset_traits@V?$basic_string@DU?$char_traits@D@std@@V?$allocator@D@2@@std@@U?$less@V?$basic_string@DU?$char_traits@D@std@@V?$allocator@D@2@@std@@@2@V?$allocator@V?$basic_string@DU?$char_traits@D@std@@V?$allocator@D@2@@std@@@2@$0A@@std@@@std@@IAEPAU_Node@?$_Tree_nod@V?$_Tset_traits@V?$basic_string@DU?$char_traits@D@std@@V?$allocator@D@2@@std@@U?$less@V?$basic_string@DU?$char_traits@D@std@@V?$allocator@D@2@@std@@@2@V?$allocator@V?$basic_string@DU?$char_traits@D@std@@V?$allocator@D@2@@std@@@2@$0A@@std@@@2@PAU342@00ABV?$basic_string@DU?$char_traits@D@std@@V?$allocator@D@2@@2@D@Z
  0000a	64 a1 00 00 00
	00		 mov	 eax, DWORD PTR fs:__except_list
  00010	50		 push	 eax
  00011	64 89 25 00 00
	00 00		 mov	 DWORD PTR fs:__except_list, esp
  00018	83 ec 0c	 sub	 esp, 12			; 0000000cH
  0001b	53		 push	 ebx
  0001c	56		 push	 esi
  0001d	57		 push	 edi
  0001e	89 65 f0	 mov	 DWORD PTR __$EHRec$[ebp], esp

; 1131 : 		_Nodeptr _Wherenode = this->_Alnod.allocate(1);

  00021	6a 2c		 push	 44			; 0000002cH
  00023	e8 00 00 00 00	 call	 ??2@YAPAXI@Z		; operator new
  00028	8b f0		 mov	 esi, eax

; 1132 : 		_TRY_BEGIN

  0002a	33 db		 xor	 ebx, ebx
  0002c	83 c4 04	 add	 esp, 4
  0002f	89 75 ec	 mov	 DWORD PTR __Wherenode$[ebp], esi
  00032	89 5d fc	 mov	 DWORD PTR __$EHRec$[ebp+12], ebx

; 1133 : 		new (_Wherenode) _Node(_Larg, _Parg, _Rarg, _Val, _Carg);

  00035	89 75 e8	 mov	 DWORD PTR $T221140[ebp], esi
  00038	3b f3		 cmp	 esi, ebx
  0003a	c6 45 fc 01	 mov	 BYTE PTR __$EHRec$[ebp+12], 1
  0003e	74 36		 je	 SHORT $L221141
  00040	8b 45 08	 mov	 eax, DWORD PTR __Larg$[ebp]
  00043	8b 4d 0c	 mov	 ecx, DWORD PTR __Parg$[ebp]
  00046	8b 55 10	 mov	 edx, DWORD PTR __Rarg$[ebp]
  00049	89 06		 mov	 DWORD PTR [esi], eax
  0004b	8b 45 14	 mov	 eax, DWORD PTR __Val$[ebp]
  0004e	89 4e 04	 mov	 DWORD PTR [esi+4], ecx
  00051	6a ff		 push	 -1
  00053	8d 4e 0c	 lea	 ecx, DWORD PTR [esi+12]
  00056	89 56 08	 mov	 DWORD PTR [esi+8], edx
  00059	53		 push	 ebx
  0005a	c7 41 18 0f 00
	00 00		 mov	 DWORD PTR [ecx+24], 15	; 0000000fH
  00061	89 59 14	 mov	 DWORD PTR [ecx+20], ebx
  00064	50		 push	 eax
  00065	88 59 04	 mov	 BYTE PTR [ecx+4], bl
  00068	e8 00 00 00 00	 call	 ?assign@?$basic_string@DU?$char_traits@D@std@@V?$allocator@D@2@@std@@QAEAAV12@ABV12@II@Z ; std::basic_string<char,std::char_traits<char>,std::allocator<char> >::assign
  0006d	8a 4d 18	 mov	 cl, BYTE PTR __Carg$[ebp]
  00070	88 4e 28	 mov	 BYTE PTR [esi+40], cl
  00073	88 5e 29	 mov	 BYTE PTR [esi+41], bl
$L221141:

; 1137 : 		_CATCH_END
; 1138 : 		return (_Wherenode);
; 1139 : 		}

  00076	8b 4d f4	 mov	 ecx, DWORD PTR __$EHRec$[ebp+4]
  00079	5f		 pop	 edi
  0007a	8b c6		 mov	 eax, esi
  0007c	5e		 pop	 esi
  0007d	64 89 0d 00 00
	00 00		 mov	 DWORD PTR fs:__except_list, ecx
  00084	5b		 pop	 ebx
  00085	8b e5		 mov	 esp, ebp
  00087	5d		 pop	 ebp
  00088	c2 14 00	 ret	 20			; 00000014H
$L221144:

; 1134 : 		_CATCH_ALL
; 1135 : 		this->_Alnod.deallocate(_Wherenode, 1);

  0008b	8b 55 ec	 mov	 edx, DWORD PTR __Wherenode$[ebp]
  0008e	52		 push	 edx
  0008f	e8 00 00 00 00	 call	 ??3@YAXPAX@Z		; operator delete
  00094	83 c4 04	 add	 esp, 4

; 1136 : 		_RERAISE;

  00097	33 db		 xor	 ebx, ebx
  00099	53		 push	 ebx
  0009a	53		 push	 ebx
  0009b	e8 00 00 00 00	 call	 __CxxThrowException@8
$L221291:
  000a0	cc		 int	 3
_TEXT	ENDS
;	COMDAT text$x
text$x	SEGMENT
$L221145:
  00000	8b 45 ec	 mov	 eax, DWORD PTR __Wherenode$[ebp]
  00003	50		 push	 eax
  00004	8b 4d e8	 mov	 ecx, DWORD PTR $T221140[ebp]
  00007	51		 push	 ecx
  00008	e8 00 00 00 00	 call	 ??3@YAXPAX0@Z		; operator delete
  0000d	83 c4 08	 add	 esp, 8
  00010	c3		 ret	 0
__ehhandler$?_Buynode@?$_Tree@V?$_Tset_traits@V?$basic_string@DU?$char_traits@D@std@@V?$allocator@D@2@@std@@U?$less@V?$basic_string@DU?$char_traits@D@std@@V?$allocator@D@2@@std@@@2@V?$allocator@V?$basic_string@DU?$char_traits@D@std@@V?$allocator@D@2@@std@@@2@$0A@@std@@@std@@IAEPAU_Node@?$_Tree_nod@V?$_Tset_traits@V?$basic_string@DU?$char_traits@D@std@@V?$allocator@D@2@@std@@U?$less@V?$basic_string@DU?$char_traits@D@std@@V?$allocator@D@2@@std@@@2@V?$allocator@V?$basic_string@DU?$char_traits@D@std@@V?$allocator@D@2@@std@@@2@$0A@@std@@@2@PAU342@00ABV?$basic_string@DU?$char_traits@D@std@@V?$allocator@D@2@@2@D@Z:
  00011	b8 00 00 00 00	 mov	 eax, OFFSET FLAT:$T221289
  00016	e9 00 00 00 00	 jmp	 ___CxxFrameHandler
text$x	ENDS
?_Buynode@?$_Tree@V?$_Tset_traits@V?$basic_string@DU?$char_traits@D@std@@V?$allocator@D@2@@std@@U?$less@V?$basic_string@DU?$char_traits@D@std@@V?$allocator@D@2@@std@@@2@V?$allocator@V?$basic_string@DU?$char_traits@D@std@@V?$allocator@D@2@@std@@@2@$0A@@std@@@std@@IAEPAU_Node@?$_Tree_nod@V?$_Tset_traits@V?$basic_string@DU?$char_traits@D@std@@V?$allocator@D@2@@std@@U?$less@V?$basic_string@DU?$char_traits@D@std@@V?$allocator@D@2@@std@@@2@V?$allocator@V?$basic_string@DU?$char_traits@D@std@@V?$allocator@D@2@@std@@@2@$0A@@std@@@2@PAU342@00ABV?$basic_string@DU?$char_traits@D@std@@V?$allocator@D@2@@2@D@Z ENDP ; std::_Tree<std::_Tset_traits<std::basic_string<char,std::char_traits<char>,std::allocator<char> >,std::less<std::basic_string<char,std::char_traits<char>,std::allocator<char> > >,std::allocator<std::basic_string<char,std::char_traits<char>,std::allocator<char> > >,0> >::_Buynode
PUBLIC	??_C@_0BM@PAPJHAGI@invalid?5map?1set?$DMT?$DO?5iterator?$AA@ ; `string'
PUBLIC	__TI3?AVout_of_range@std@@
PUBLIC	__CTA3?AVout_of_range@std@@
PUBLIC	??_R0?AVout_of_range@std@@@8			; std::out_of_range `RTTI Type Descriptor'
PUBLIC	__CT??_R0?AVout_of_range@std@@@8??0out_of_range@std@@QAE@ABV01@@Z40
PUBLIC	??_R0?AVlogic_error@std@@@8			; std::logic_error `RTTI Type Descriptor'
PUBLIC	__CT??_R0?AVlogic_error@std@@@8??0logic_error@std@@QAE@ABV01@@Z40
PUBLIC	??_R0?AVexception@@@8				; exception `RTTI Type Descriptor'
PUBLIC	__CT??_R0?AVexception@@@8??0exception@@QAE@ABV0@@Z12
PUBLIC	?erase@?$_Tree@V?$_Tmap_traits@EHU?$less@E@std@@V?$allocator@U?$pair@$$CBEH@std@@@2@$0A@@std@@@std@@QAE?AViterator@12@V312@@Z ; std::_Tree<std::_Tmap_traits<unsigned char,int,std::less<unsigned char>,std::allocator<std::pair<unsigned char const ,int> >,0> >::erase
PUBLIC	??0logic_error@std@@QAE@ABV01@@Z		; std::logic_error::logic_error
PUBLIC	??0out_of_range@std@@QAE@ABV01@@Z		; std::out_of_range::out_of_range
EXTRN	??0exception@@QAE@ABV0@@Z:NEAR			; exception::exception
EXTRN	??_7type_info@@6B@:DWORD			; type_info::`vftable'
;	COMDAT xdata$x
; File c:\program files\microsoft visual studio .net 2003\vc7\include\xmemory
xdata$x	SEGMENT
$T221790 DD	0ffffffffH
	DD	FLAT:$L221304
$T221782 DD	019930520H
	DD	01H
	DD	FLAT:$T221790
	DD	2 DUP(00H)
	DD	2 DUP(00H)
xdata$x	ENDS
;	COMDAT ??_C@_0BM@PAPJHAGI@invalid?5map?1set?$DMT?$DO?5iterator?$AA@
CONST	SEGMENT
??_C@_0BM@PAPJHAGI@invalid?5map?1set?$DMT?$DO?5iterator?$AA@ DB 'invalid '
	DB	'map/set<T> iterator', 00H			; `string'
CONST	ENDS
;	COMDAT __TI3?AVout_of_range@std@@
xdata$x	SEGMENT
__TI3?AVout_of_range@std@@ DD 00H
	DD	FLAT:??1out_of_range@std@@UAE@XZ
	DD	00H
	DD	FLAT:__CTA3?AVout_of_range@std@@
xdata$x	ENDS
;	COMDAT __CTA3?AVout_of_range@std@@
xdata$x	SEGMENT
__CTA3?AVout_of_range@std@@ DD 03H
	DD	FLAT:__CT??_R0?AVout_of_range@std@@@8??0out_of_range@std@@QAE@ABV01@@Z40
	DD	FLAT:__CT??_R0?AVlogic_error@std@@@8??0logic_error@std@@QAE@ABV01@@Z40
	DD	FLAT:__CT??_R0?AVexception@@@8??0exception@@QAE@ABV0@@Z12
xdata$x	ENDS
;	COMDAT __CT??_R0?AVout_of_range@std@@@8??0out_of_range@std@@QAE@ABV01@@Z40
xdata$x	SEGMENT
__CT??_R0?AVout_of_range@std@@@8??0out_of_range@std@@QAE@ABV01@@Z40 DD 00H
	DD	FLAT:??_R0?AVout_of_range@std@@@8
	DD	00H
	DD	0ffffffffH
	ORG $+4
	DD	028H
	DD	FLAT:??0out_of_range@std@@QAE@ABV01@@Z
xdata$x	ENDS
;	COMDAT ??_R0?AVout_of_range@std@@@8
_DATA	SEGMENT
??_R0?AVout_of_range@std@@@8 DD FLAT:??_7type_info@@6B@	; std::out_of_range `RTTI Type Descriptor'
	DD	00H
	DB	'.?AVout_of_range@std@@', 00H
_DATA	ENDS
;	COMDAT __CT??_R0?AVlogic_error@std@@@8??0logic_error@std@@QAE@ABV01@@Z40
xdata$x	SEGMENT
__CT??_R0?AVlogic_error@std@@@8??0logic_error@std@@QAE@ABV01@@Z40 DD 00H
	DD	FLAT:??_R0?AVlogic_error@std@@@8
	DD	00H
	DD	0ffffffffH
	ORG $+4
	DD	028H
	DD	FLAT:??0logic_error@std@@QAE@ABV01@@Z
xdata$x	ENDS
;	COMDAT ??_R0?AVlogic_error@std@@@8
_DATA	SEGMENT
??_R0?AVlogic_error@std@@@8 DD FLAT:??_7type_info@@6B@	; std::logic_error `RTTI Type Descriptor'
	DD	00H
	DB	'.?AVlogic_error@std@@', 00H
_DATA	ENDS
;	COMDAT __CT??_R0?AVexception@@@8??0exception@@QAE@ABV0@@Z12
xdata$x	SEGMENT
__CT??_R0?AVexception@@@8??0exception@@QAE@ABV0@@Z12 DD 00H
	DD	FLAT:??_R0?AVexception@@@8
	DD	00H
	DD	0ffffffffH
	ORG $+4
	DD	0cH
	DD	FLAT:??0exception@@QAE@ABV0@@Z
xdata$x	ENDS
;	COMDAT ??_R0?AVexception@@@8
_DATA	SEGMENT
??_R0?AVexception@@@8 DD FLAT:??_7type_info@@6B@	; exception `RTTI Type Descriptor'
	DD	00H
	DB	'.?AVexception@@', 00H
; Function compile flags: /Ogty
; File c:\program files\microsoft visual studio .net 2003\vc7\include\xtree
_DATA	ENDS
;	COMDAT ?erase@?$_Tree@V?$_Tmap_traits@EHU?$less@E@std@@V?$allocator@U?$pair@$$CBEH@std@@@2@$0A@@std@@@std@@QAE?AViterator@12@V312@@Z
_TEXT	SEGMENT
__Erasednode$ = -84					; size = 4
$T221299 = -80						; size = 28
$T221298 = -52						; size = 40
__$EHRec$ = -12						; size = 12
___$ReturnUdt$ = 8					; size = 4
__Where$ = 12						; size = 4
?erase@?$_Tree@V?$_Tmap_traits@EHU?$less@E@std@@V?$allocator@U?$pair@$$CBEH@std@@@2@$0A@@std@@@std@@QAE?AViterator@12@V312@@Z PROC NEAR ; std::_Tree<std::_Tmap_traits<unsigned char,int,std::less<unsigned char>,std::allocator<std::pair<unsigned char const ,int> >,0> >::erase, COMDAT
; _this$ = ecx

; 590  : 		{	// erase element at _Where

  00000	64 a1 00 00 00
	00		 mov	 eax, DWORD PTR fs:__except_list
  00006	6a ff		 push	 -1
  00008	68 00 00 00 00	 push	 __ehhandler$?erase@?$_Tree@V?$_Tmap_traits@EHU?$less@E@std@@V?$allocator@U?$pair@$$CBEH@std@@@2@$0A@@std@@@std@@QAE?AViterator@12@V312@@Z
  0000d	50		 push	 eax

; 591  : 		if (_Isnil(_Where._Mynode()))

  0000e	8b 44 24 14	 mov	 eax, DWORD PTR __Where$[esp+8]
  00012	64 89 25 00 00
	00 00		 mov	 DWORD PTR fs:__except_list, esp
  00019	83 ec 48	 sub	 esp, 72			; 00000048H
  0001c	55		 push	 ebp
  0001d	8b e9		 mov	 ebp, ecx
  0001f	8a 48 15	 mov	 cl, BYTE PTR [eax+21]
  00022	84 c9		 test	 cl, cl
  00024	56		 push	 esi
  00025	74 4c		 je	 SHORT $L215182

; 592  : 			_THROW(out_of_range, "invalid map/set<T> iterator");

  00027	6a 1b		 push	 27			; 0000001bH
  00029	33 f6		 xor	 esi, esi
  0002b	68 00 00 00 00	 push	 OFFSET FLAT:??_C@_0BM@PAPJHAGI@invalid?5map?1set?$DMT?$DO?5iterator?$AA@
  00030	8d 4c 24 14	 lea	 ecx, DWORD PTR $T221299[esp+100]
  00034	c7 44 24 2c 0f
	00 00 00	 mov	 DWORD PTR $T221299[esp+124], 15 ; 0000000fH
  0003c	89 74 24 28	 mov	 DWORD PTR $T221299[esp+120], esi
  00040	c6 44 24 18 00	 mov	 BYTE PTR $T221299[esp+104], 0
  00045	e8 00 00 00 00	 call	 ?assign@?$basic_string@DU?$char_traits@D@std@@V?$allocator@D@2@@std@@QAEAAV12@PBDI@Z ; std::basic_string<char,std::char_traits<char>,std::allocator<char> >::assign
  0004a	8d 44 24 0c	 lea	 eax, DWORD PTR $T221299[esp+92]
  0004e	50		 push	 eax
  0004f	8d 4c 24 2c	 lea	 ecx, DWORD PTR $T221298[esp+96]
  00053	89 74 24 5c	 mov	 DWORD PTR __$EHRec$[esp+104], esi
  00057	e8 00 00 00 00	 call	 ??0logic_error@std@@QAE@ABV?$basic_string@DU?$char_traits@D@std@@V?$allocator@D@2@@1@@Z ; std::logic_error::logic_error
  0005c	68 00 00 00 00	 push	 OFFSET FLAT:__TI3?AVout_of_range@std@@
  00061	8d 4c 24 2c	 lea	 ecx, DWORD PTR $T221298[esp+96]
  00065	51		 push	 ecx
  00066	c7 44 24 30 00
	00 00 00	 mov	 DWORD PTR $T221298[esp+100], OFFSET FLAT:??_7out_of_range@std@@6B@
  0006e	e8 00 00 00 00	 call	 __CxxThrowException@8
$L215182:
  00073	53		 push	 ebx

; 593  : 		_Nodeptr _Erasednode = _Where._Mynode();	// node to erase

  00074	8b d8		 mov	 ebx, eax
  00076	57		 push	 edi

; 594  : 		++_Where;	// save successor iterator for return

  00077	8d 4c 24 6c	 lea	 ecx, DWORD PTR __Where$[esp+96]
  0007b	89 5c 24 10	 mov	 DWORD PTR __Erasednode$[esp+100], ebx
  0007f	e8 00 00 00 00	 call	 ?_Inc@const_iterator@?$_Tree@V?$_Tmap_traits@EHU?$less@E@std@@V?$allocator@U?$pair@$$CBEH@std@@@2@$0A@@std@@@std@@QAEXXZ ; std::_Tree<std::_Tmap_traits<unsigned char,int,std::less<unsigned char>,std::allocator<std::pair<unsigned char const ,int> >,0> >::const_iterator::_Inc

; 595  : 
; 596  : 		_Nodeptr _Fixnode;	// the node to recolor as needed
; 597  : 		_Nodeptr _Fixnodeparent;	// parent of _Fixnode (which may be nil)
; 598  : 		_Nodeptr _Pnode = _Erasednode;
; 599  : 
; 600  : 		if (_Isnil(_Left(_Pnode)))

  00084	8b 03		 mov	 eax, DWORD PTR [ebx]
  00086	8a 48 15	 mov	 cl, BYTE PTR [eax+21]
  00089	84 c9		 test	 cl, cl
  0008b	74 05		 je	 SHORT $L215190

; 601  : 			_Fixnode = _Right(_Pnode);	// must stitch up right subtree

  0008d	8b 7b 08	 mov	 edi, DWORD PTR [ebx+8]

; 602  : 		else if (_Isnil(_Right(_Pnode)))

  00090	eb 19		 jmp	 SHORT $L221785
$L215190:
  00092	8b 53 08	 mov	 edx, DWORD PTR [ebx+8]
  00095	8a 4a 15	 mov	 cl, BYTE PTR [edx+21]
  00098	84 c9		 test	 cl, cl
  0009a	74 04		 je	 SHORT $L215192

; 603  : 			_Fixnode = _Left(_Pnode);	// must stitch up left subtree

  0009c	8b f8		 mov	 edi, eax

; 604  : 		else

  0009e	eb 0b		 jmp	 SHORT $L221785
$L215192:

; 605  : 			{	// two subtrees, must lift successor node to replace erased
; 606  : 			_Pnode = _Where._Mynode();	// _Pnode is successor node
; 607  : 			_Fixnode = _Right(_Pnode);	// _Fixnode is its only subtree

  000a0	8b 4c 24 6c	 mov	 ecx, DWORD PTR __Where$[esp+96]

; 608  : 			}
; 609  : 
; 610  : 		if (_Pnode == _Erasednode)

  000a4	3b cb		 cmp	 ecx, ebx
  000a6	8b 79 08	 mov	 edi, DWORD PTR [ecx+8]
  000a9	75 6e		 jne	 SHORT $L215194
$L221785:

; 611  : 			{	// at most one subtree, relink it
; 612  : 			_Fixnodeparent = _Parent(_Erasednode);
; 613  : 			if (!_Isnil(_Fixnode))

  000ab	8a 47 15	 mov	 al, BYTE PTR [edi+21]
  000ae	84 c0		 test	 al, al
  000b0	8b 73 04	 mov	 esi, DWORD PTR [ebx+4]
  000b3	75 03		 jne	 SHORT $L215195

; 614  : 				_Parent(_Fixnode) = _Fixnodeparent;	// link up

  000b5	89 77 04	 mov	 DWORD PTR [edi+4], esi
$L215195:

; 615  : 
; 616  : 			if (_Root() == _Erasednode)

  000b8	8b 45 04	 mov	 eax, DWORD PTR [ebp+4]
  000bb	39 58 04	 cmp	 DWORD PTR [eax+4], ebx
  000be	75 05		 jne	 SHORT $L215196

; 617  : 				_Root() = _Fixnode;	// link down from root

  000c0	89 78 04	 mov	 DWORD PTR [eax+4], edi

; 618  : 			else if (_Left(_Fixnodeparent) == _Erasednode)

  000c3	eb 0b		 jmp	 SHORT $L215199
$L215196:
  000c5	39 1e		 cmp	 DWORD PTR [esi], ebx
  000c7	75 04		 jne	 SHORT $L215198

; 619  : 				_Left(_Fixnodeparent) = _Fixnode;	// link down to left

  000c9	89 3e		 mov	 DWORD PTR [esi], edi

; 620  : 			else

  000cb	eb 03		 jmp	 SHORT $L215199
$L215198:

; 621  : 				_Right(_Fixnodeparent) = _Fixnode;	// link down to right

  000cd	89 7e 08	 mov	 DWORD PTR [esi+8], edi
$L215199:

; 622  : 
; 623  : 			if (_Lmost() == _Erasednode)

  000d0	8b 5d 04	 mov	 ebx, DWORD PTR [ebp+4]
  000d3	8b 03		 mov	 eax, DWORD PTR [ebx]
  000d5	3b 44 24 10	 cmp	 eax, DWORD PTR __Erasednode$[esp+100]
  000d9	75 16		 jne	 SHORT $L215200

; 624  : 				_Lmost() = _Isnil(_Fixnode)
; 625  : 					? _Fixnodeparent	// smallest is parent of erased node
; 626  : 					: _Min(_Fixnode);	// smallest in relinked subtree

  000db	8a 47 15	 mov	 al, BYTE PTR [edi+21]
  000de	84 c0		 test	 al, al
  000e0	74 04		 je	 SHORT $L221300
  000e2	8b c6		 mov	 eax, esi
  000e4	eb 09		 jmp	 SHORT $L221301
$L221300:
  000e6	57		 push	 edi
  000e7	e8 00 00 00 00	 call	 ?_Min@?$_Tree@V?$_Tmap_traits@EHU?$less@E@std@@V?$allocator@U?$pair@$$CBEH@std@@@2@$0A@@std@@@std@@KAPAU_Node@?$_Tree_nod@V?$_Tmap_traits@EHU?$less@E@std@@V?$allocator@U?$pair@$$CBEH@std@@@2@$0A@@std@@@2@PAU342@@Z ; std::_Tree<std::_Tmap_traits<unsigned char,int,std::less<unsigned char>,std::allocator<std::pair<unsigned char const ,int> >,0> >::_Min
  000ec	83 c4 04	 add	 esp, 4
$L221301:
  000ef	89 03		 mov	 DWORD PTR [ebx], eax
$L215200:

; 627  : 
; 628  : 			if (_Rmost() == _Erasednode)

  000f1	8b 5d 04	 mov	 ebx, DWORD PTR [ebp+4]
  000f4	8b 4c 24 10	 mov	 ecx, DWORD PTR __Erasednode$[esp+100]
  000f8	39 4b 08	 cmp	 DWORD PTR [ebx+8], ecx
  000fb	75 74		 jne	 SHORT $L221618

; 629  : 				_Rmost() = _Isnil(_Fixnode)
; 630  : 					? _Fixnodeparent	// largest is parent of erased node
; 631  : 					: _Max(_Fixnode);	// largest in relinked subtree

  000fd	8a 47 15	 mov	 al, BYTE PTR [edi+21]
  00100	84 c0		 test	 al, al
  00102	74 07		 je	 SHORT $L221302
  00104	8b c6		 mov	 eax, esi
  00106	89 43 08	 mov	 DWORD PTR [ebx+8], eax

; 632  : 			}
; 633  : 		else

  00109	eb 66		 jmp	 SHORT $L221618
$L221302:

; 629  : 				_Rmost() = _Isnil(_Fixnode)
; 630  : 					? _Fixnodeparent	// largest is parent of erased node
; 631  : 					: _Max(_Fixnode);	// largest in relinked subtree

  0010b	57		 push	 edi
  0010c	e8 00 00 00 00	 call	 ?_Max@?$_Tree@V?$_Tmap_traits@EHU?$less@E@std@@V?$allocator@U?$pair@$$CBEH@std@@@2@$0A@@std@@@std@@KAPAU_Node@?$_Tree_nod@V?$_Tmap_traits@EHU?$less@E@std@@V?$allocator@U?$pair@$$CBEH@std@@@2@$0A@@std@@@2@PAU342@@Z ; std::_Tree<std::_Tmap_traits<unsigned char,int,std::less<unsigned char>,std::allocator<std::pair<unsigned char const ,int> >,0> >::_Max
  00111	83 c4 04	 add	 esp, 4
  00114	89 43 08	 mov	 DWORD PTR [ebx+8], eax

; 632  : 			}
; 633  : 		else

  00117	eb 58		 jmp	 SHORT $L221618
$L215194:

; 634  : 			{	// erased has two subtrees, _Pnode is successor to erased
; 635  : 			_Parent(_Left(_Erasednode)) = _Pnode;	// link left up

  00119	89 48 04	 mov	 DWORD PTR [eax+4], ecx

; 636  : 			_Left(_Pnode) = _Left(_Erasednode);	// link successor down

  0011c	8b 13		 mov	 edx, DWORD PTR [ebx]
  0011e	89 11		 mov	 DWORD PTR [ecx], edx

; 637  : 
; 638  : 			if (_Pnode == _Right(_Erasednode))

  00120	3b 4b 08	 cmp	 ecx, DWORD PTR [ebx+8]
  00123	75 04		 jne	 SHORT $L215203

; 639  : 				_Fixnodeparent = _Pnode;	// successor is next to erased

  00125	8b f1		 mov	 esi, ecx

; 640  : 			else

  00127	eb 1b		 jmp	 SHORT $L215204
$L215203:

; 641  : 				{	// successor further down, link in place of erased
; 642  : 				_Fixnodeparent = _Parent(_Pnode);	// parent is successor's
; 643  : 				if (!_Isnil(_Fixnode))

  00129	8a 47 15	 mov	 al, BYTE PTR [edi+21]
  0012c	84 c0		 test	 al, al
  0012e	8b 71 04	 mov	 esi, DWORD PTR [ecx+4]
  00131	75 03		 jne	 SHORT $L215205

; 644  : 					_Parent(_Fixnode) = _Fixnodeparent;	// link fix up

  00133	89 77 04	 mov	 DWORD PTR [edi+4], esi
$L215205:

; 645  : 				_Left(_Fixnodeparent) = _Fixnode;	// link fix down

  00136	89 3e		 mov	 DWORD PTR [esi], edi

; 646  : 				_Right(_Pnode) = _Right(_Erasednode);	// link successor down

  00138	8b 43 08	 mov	 eax, DWORD PTR [ebx+8]
  0013b	89 41 08	 mov	 DWORD PTR [ecx+8], eax

; 647  : 				_Parent(_Right(_Erasednode)) = _Pnode;	// link right up

  0013e	8b 53 08	 mov	 edx, DWORD PTR [ebx+8]
  00141	89 4a 04	 mov	 DWORD PTR [edx+4], ecx
$L215204:

; 648  : 				}
; 649  : 
; 650  : 			if (_Root() == _Erasednode)

  00144	8b 45 04	 mov	 eax, DWORD PTR [ebp+4]
  00147	39 58 04	 cmp	 DWORD PTR [eax+4], ebx
  0014a	75 05		 jne	 SHORT $L215206

; 651  : 				_Root() = _Pnode;	// link down from root

  0014c	89 48 04	 mov	 DWORD PTR [eax+4], ecx

; 652  : 			else if (_Left(_Parent(_Erasednode)) == _Erasednode)

  0014f	eb 0e		 jmp	 SHORT $L215209
$L215206:
  00151	8b 43 04	 mov	 eax, DWORD PTR [ebx+4]
  00154	39 18		 cmp	 DWORD PTR [eax], ebx
  00156	75 04		 jne	 SHORT $L215208

; 653  : 				_Left(_Parent(_Erasednode)) = _Pnode;	// link down to left

  00158	89 08		 mov	 DWORD PTR [eax], ecx

; 654  : 			else

  0015a	eb 03		 jmp	 SHORT $L215209
$L215208:

; 655  : 				_Right(_Parent(_Erasednode)) = _Pnode;	// link down to right

  0015c	89 48 08	 mov	 DWORD PTR [eax+8], ecx
$L215209:

; 656  : 
; 657  : 			_Parent(_Pnode) = _Parent(_Erasednode);	// link successor up

  0015f	8b 43 04	 mov	 eax, DWORD PTR [ebx+4]
  00162	89 41 04	 mov	 DWORD PTR [ecx+4], eax

; 658  : 			std::swap(_Color(_Pnode), _Color(_Erasednode));	// recolor it

  00165	8a 53 14	 mov	 dl, BYTE PTR [ebx+20]
  00168	8a 41 14	 mov	 al, BYTE PTR [ecx+20]
  0016b	88 51 14	 mov	 BYTE PTR [ecx+20], dl
  0016e	88 43 14	 mov	 BYTE PTR [ebx+20], al
$L221618:

; 659  : 			}
; 660  : 
; 661  : 		if (_Color(_Erasednode) == _Black)

  00171	8b 44 24 10	 mov	 eax, DWORD PTR __Erasednode$[esp+100]
  00175	8a 48 14	 mov	 cl, BYTE PTR [eax+20]
  00178	b3 01		 mov	 bl, 1
  0017a	3a cb		 cmp	 cl, bl
  0017c	0f 85 ff 00 00
	00		 jne	 $L215210

; 662  : 			{	// erasing black link, must recolor/rebalance tree
; 663  : 			for (; _Fixnode != _Root() && _Color(_Fixnode) == _Black;
; 664  : 				_Fixnodeparent = _Parent(_Fixnode))

  00182	8b 4d 04	 mov	 ecx, DWORD PTR [ebp+4]
  00185	3b 79 04	 cmp	 edi, DWORD PTR [ecx+4]
  00188	0f 84 f0 00 00
	00		 je	 $L215213
  0018e	8b ff		 npad	 2
$L215211:
  00190	38 5f 14	 cmp	 BYTE PTR [edi+20], bl
  00193	0f 85 e5 00 00
	00		 jne	 $L215213

; 665  : 				if (_Fixnode == _Left(_Fixnodeparent))

  00199	8b 06		 mov	 eax, DWORD PTR [esi]
  0019b	3b f8		 cmp	 edi, eax
  0019d	75 67		 jne	 SHORT $L215214

; 666  : 					{	// fixup left subtree
; 667  : 					_Pnode = _Right(_Fixnodeparent);

  0019f	8b 46 08	 mov	 eax, DWORD PTR [esi+8]

; 668  : 					if (_Color(_Pnode) == _Red)

  001a2	8a 48 14	 mov	 cl, BYTE PTR [eax+20]
  001a5	84 c9		 test	 cl, cl
  001a7	75 12		 jne	 SHORT $L215215

; 669  : 						{	// rotate red up from right subtree
; 670  : 						_Color(_Pnode) = _Black;

  001a9	88 58 14	 mov	 BYTE PTR [eax+20], bl

; 671  : 						_Color(_Fixnodeparent) = _Red;
; 672  : 						_Lrotate(_Fixnodeparent);

  001ac	56		 push	 esi
  001ad	8b cd		 mov	 ecx, ebp
  001af	c6 46 14 00	 mov	 BYTE PTR [esi+20], 0
  001b3	e8 00 00 00 00	 call	 ?_Lrotate@?$_Tree@V?$_Tmap_traits@EHU?$less@E@std@@V?$allocator@U?$pair@$$CBEH@std@@@2@$0A@@std@@@std@@IAEXPAU_Node@?$_Tree_nod@V?$_Tmap_traits@EHU?$less@E@std@@V?$allocator@U?$pair@$$CBEH@std@@@2@$0A@@std@@@2@@Z ; std::_Tree<std::_Tmap_traits<unsigned char,int,std::less<unsigned char>,std::allocator<std::pair<unsigned char const ,int> >,0> >::_Lrotate

; 673  : 						_Pnode = _Right(_Fixnodeparent);

  001b8	8b 46 08	 mov	 eax, DWORD PTR [esi+8]
$L215215:

; 674  : 						}
; 675  : 
; 676  : 					if (_Isnil(_Pnode))

  001bb	8a 48 15	 mov	 cl, BYTE PTR [eax+21]
  001be	84 c9		 test	 cl, cl

; 677  : 						_Fixnode = _Fixnodeparent;	// shouldn't happen
; 678  : 					else if (_Color(_Left(_Pnode)) == _Black

  001c0	75 76		 jne	 SHORT $L221788

; 679  : 						&& _Color(_Right(_Pnode)) == _Black)

  001c2	8b 10		 mov	 edx, DWORD PTR [eax]
  001c4	38 5a 14	 cmp	 BYTE PTR [edx+20], bl
  001c7	75 08		 jne	 SHORT $L215218
  001c9	8b 48 08	 mov	 ecx, DWORD PTR [eax+8]
  001cc	38 59 14	 cmp	 BYTE PTR [ecx+20], bl
  001cf	74 63		 je	 SHORT $L221789
$L215218:

; 680  : 						{	// redden right subtree with black children
; 681  : 						_Color(_Pnode) = _Red;
; 682  : 						_Fixnode = _Fixnodeparent;
; 683  : 						}
; 684  : 					else
; 685  : 						{	// must rearrange right subtree
; 686  : 						if (_Color(_Right(_Pnode)) == _Black)

  001d1	8b 48 08	 mov	 ecx, DWORD PTR [eax+8]
  001d4	38 59 14	 cmp	 BYTE PTR [ecx+20], bl
  001d7	75 14		 jne	 SHORT $L215220

; 687  : 							{	// rotate red up from left sub-subtree
; 688  : 							_Color(_Left(_Pnode)) = _Black;

  001d9	8b 10		 mov	 edx, DWORD PTR [eax]
  001db	88 5a 14	 mov	 BYTE PTR [edx+20], bl

; 689  : 							_Color(_Pnode) = _Red;
; 690  : 							_Rrotate(_Pnode);

  001de	50		 push	 eax
  001df	8b cd		 mov	 ecx, ebp
  001e1	c6 40 14 00	 mov	 BYTE PTR [eax+20], 0
  001e5	e8 00 00 00 00	 call	 ?_Rrotate@?$_Tree@V?$_Tmap_traits@EHU?$less@E@std@@V?$allocator@U?$pair@$$CBEH@std@@@2@$0A@@std@@@std@@IAEXPAU_Node@?$_Tree_nod@V?$_Tmap_traits@EHU?$less@E@std@@V?$allocator@U?$pair@$$CBEH@std@@@2@$0A@@std@@@2@@Z ; std::_Tree<std::_Tmap_traits<unsigned char,int,std::less<unsigned char>,std::allocator<std::pair<unsigned char const ,int> >,0> >::_Rrotate

; 691  : 							_Pnode = _Right(_Fixnodeparent);

  001ea	8b 46 08	 mov	 eax, DWORD PTR [esi+8]
$L215220:

; 692  : 							}
; 693  : 
; 694  : 						_Color(_Pnode) = _Color(_Fixnodeparent);

  001ed	8a 4e 14	 mov	 cl, BYTE PTR [esi+20]
  001f0	88 48 14	 mov	 BYTE PTR [eax+20], cl

; 695  : 						_Color(_Fixnodeparent) = _Black;

  001f3	88 5e 14	 mov	 BYTE PTR [esi+20], bl

; 696  : 						_Color(_Right(_Pnode)) = _Black;

  001f6	8b 50 08	 mov	 edx, DWORD PTR [eax+8]

; 697  : 						_Lrotate(_Fixnodeparent);

  001f9	56		 push	 esi
  001fa	8b cd		 mov	 ecx, ebp
  001fc	88 5a 14	 mov	 BYTE PTR [edx+20], bl
  001ff	e8 00 00 00 00	 call	 ?_Lrotate@?$_Tree@V?$_Tmap_traits@EHU?$less@E@std@@V?$allocator@U?$pair@$$CBEH@std@@@2@$0A@@std@@@std@@IAEXPAU_Node@?$_Tree_nod@V?$_Tmap_traits@EHU?$less@E@std@@V?$allocator@U?$pair@$$CBEH@std@@@2@$0A@@std@@@2@@Z ; std::_Tree<std::_Tmap_traits<unsigned char,int,std::less<unsigned char>,std::allocator<std::pair<unsigned char const ,int> >,0> >::_Lrotate

; 698  : 						break;	// tree now recolored/rebalanced

  00204	eb 78		 jmp	 SHORT $L215213
$L215214:

; 699  : 						}
; 700  : 					}
; 701  : 				else
; 702  : 					{	// fixup right subtree
; 703  : 					_Pnode = _Left(_Fixnodeparent);
; 704  : 					if (_Color(_Pnode) == _Red)

  00206	8a 48 14	 mov	 cl, BYTE PTR [eax+20]
  00209	84 c9		 test	 cl, cl
  0020b	75 11		 jne	 SHORT $L215222

; 705  : 						{	// rotate red up from left subtree
; 706  : 						_Color(_Pnode) = _Black;

  0020d	88 58 14	 mov	 BYTE PTR [eax+20], bl

; 707  : 						_Color(_Fixnodeparent) = _Red;
; 708  : 						_Rrotate(_Fixnodeparent);

  00210	56		 push	 esi
  00211	8b cd		 mov	 ecx, ebp
  00213	c6 46 14 00	 mov	 BYTE PTR [esi+20], 0
  00217	e8 00 00 00 00	 call	 ?_Rrotate@?$_Tree@V?$_Tmap_traits@EHU?$less@E@std@@V?$allocator@U?$pair@$$CBEH@std@@@2@$0A@@std@@@std@@IAEXPAU_Node@?$_Tree_nod@V?$_Tmap_traits@EHU?$less@E@std@@V?$allocator@U?$pair@$$CBEH@std@@@2@$0A@@std@@@2@@Z ; std::_Tree<std::_Tmap_traits<unsigned char,int,std::less<unsigned char>,std::allocator<std::pair<unsigned char const ,int> >,0> >::_Rrotate

; 709  : 						_Pnode = _Left(_Fixnodeparent);

  0021c	8b 06		 mov	 eax, DWORD PTR [esi]
$L215222:

; 710  : 						}
; 711  : 					if (_Isnil(_Pnode))

  0021e	8a 48 15	 mov	 cl, BYTE PTR [eax+21]
  00221	84 c9		 test	 cl, cl

; 712  : 						_Fixnode = _Fixnodeparent;	// shouldn't happen
; 713  : 					else if (_Color(_Right(_Pnode)) == _Black

  00223	75 13		 jne	 SHORT $L221788

; 714  : 						&& _Color(_Left(_Pnode)) == _Black)

  00225	8b 50 08	 mov	 edx, DWORD PTR [eax+8]
  00228	38 5a 14	 cmp	 BYTE PTR [edx+20], bl
  0022b	75 20		 jne	 SHORT $L215225
  0022d	8b 08		 mov	 ecx, DWORD PTR [eax]
  0022f	38 59 14	 cmp	 BYTE PTR [ecx+20], bl
  00232	75 19		 jne	 SHORT $L215225
$L221789:

; 715  : 						{	// redden left subtree with black children
; 716  : 						_Color(_Pnode) = _Red;

  00234	c6 40 14 00	 mov	 BYTE PTR [eax+20], 0
$L221788:

; 662  : 			{	// erasing black link, must recolor/rebalance tree
; 663  : 			for (; _Fixnode != _Root() && _Color(_Fixnode) == _Black;
; 664  : 				_Fixnodeparent = _Parent(_Fixnode))

  00238	8b 55 04	 mov	 edx, DWORD PTR [ebp+4]
  0023b	8b 42 04	 mov	 eax, DWORD PTR [edx+4]

; 717  : 						_Fixnode = _Fixnodeparent;

  0023e	8b fe		 mov	 edi, esi
  00240	3b f8		 cmp	 edi, eax
  00242	8b 76 04	 mov	 esi, DWORD PTR [esi+4]
  00245	0f 85 45 ff ff
	ff		 jne	 $L215211

; 662  : 			{	// erasing black link, must recolor/rebalance tree
; 663  : 			for (; _Fixnode != _Root() && _Color(_Fixnode) == _Black;
; 664  : 				_Fixnodeparent = _Parent(_Fixnode))

  0024b	eb 31		 jmp	 SHORT $L215213
$L215225:

; 718  : 						}
; 719  : 					else
; 720  : 						{	// must rearrange left subtree
; 721  : 						if (_Color(_Left(_Pnode)) == _Black)

  0024d	8b 08		 mov	 ecx, DWORD PTR [eax]
  0024f	38 59 14	 cmp	 BYTE PTR [ecx+20], bl
  00252	75 14		 jne	 SHORT $L215227

; 722  : 							{	// rotate red up from right sub-subtree
; 723  : 							_Color(_Right(_Pnode)) = _Black;

  00254	8b 50 08	 mov	 edx, DWORD PTR [eax+8]
  00257	88 5a 14	 mov	 BYTE PTR [edx+20], bl

; 724  : 							_Color(_Pnode) = _Red;
; 725  : 							_Lrotate(_Pnode);

  0025a	50		 push	 eax
  0025b	8b cd		 mov	 ecx, ebp
  0025d	c6 40 14 00	 mov	 BYTE PTR [eax+20], 0
  00261	e8 00 00 00 00	 call	 ?_Lrotate@?$_Tree@V?$_Tmap_traits@EHU?$less@E@std@@V?$allocator@U?$pair@$$CBEH@std@@@2@$0A@@std@@@std@@IAEXPAU_Node@?$_Tree_nod@V?$_Tmap_traits@EHU?$less@E@std@@V?$allocator@U?$pair@$$CBEH@std@@@2@$0A@@std@@@2@@Z ; std::_Tree<std::_Tmap_traits<unsigned char,int,std::less<unsigned char>,std::allocator<std::pair<unsigned char const ,int> >,0> >::_Lrotate

; 726  : 							_Pnode = _Left(_Fixnodeparent);

  00266	8b 06		 mov	 eax, DWORD PTR [esi]
$L215227:

; 727  : 							}
; 728  : 
; 729  : 						_Color(_Pnode) = _Color(_Fixnodeparent);

  00268	8a 4e 14	 mov	 cl, BYTE PTR [esi+20]
  0026b	88 48 14	 mov	 BYTE PTR [eax+20], cl

; 730  : 						_Color(_Fixnodeparent) = _Black;

  0026e	88 5e 14	 mov	 BYTE PTR [esi+20], bl

; 731  : 						_Color(_Left(_Pnode)) = _Black;

  00271	8b 10		 mov	 edx, DWORD PTR [eax]

; 732  : 						_Rrotate(_Fixnodeparent);

  00273	56		 push	 esi
  00274	8b cd		 mov	 ecx, ebp
  00276	88 5a 14	 mov	 BYTE PTR [edx+20], bl
  00279	e8 00 00 00 00	 call	 ?_Rrotate@?$_Tree@V?$_Tmap_traits@EHU?$less@E@std@@V?$allocator@U?$pair@$$CBEH@std@@@2@$0A@@std@@@std@@IAEXPAU_Node@?$_Tree_nod@V?$_Tmap_traits@EHU?$less@E@std@@V?$allocator@U?$pair@$$CBEH@std@@@2@$0A@@std@@@2@@Z ; std::_Tree<std::_Tmap_traits<unsigned char,int,std::less<unsigned char>,std::allocator<std::pair<unsigned char const ,int> >,0> >::_Rrotate
$L215213:

; 733  : 						break;	// tree now recolored/rebalanced
; 734  : 						}
; 735  : 					}
; 736  : 
; 737  : 			_Color(_Fixnode) = _Black;	// ensure stopping node is black

  0027e	88 5f 14	 mov	 BYTE PTR [edi+20], bl
$L215210:

; 738  : 			}
; 739  : 
; 740  : 		this->_Alnod.destroy(_Erasednode);	// destroy, free erased node
; 741  : 		this->_Alnod.deallocate(_Erasednode, 1);

  00281	8b 44 24 10	 mov	 eax, DWORD PTR __Erasednode$[esp+100]
  00285	50		 push	 eax
  00286	e8 00 00 00 00	 call	 ??3@YAXPAX@Z		; operator delete

; 742  : 
; 743  : 		if (0 < _Mysize)

  0028b	8b 45 08	 mov	 eax, DWORD PTR [ebp+8]
  0028e	83 c4 04	 add	 esp, 4
  00291	85 c0		 test	 eax, eax
  00293	5f		 pop	 edi
  00294	5b		 pop	 ebx
  00295	76 04		 jbe	 SHORT $L215228

; 744  : 			--_Mysize;

  00297	48		 dec	 eax
  00298	89 45 08	 mov	 DWORD PTR [ebp+8], eax
$L215228:

; 745  : 
; 746  : 		return (_Where);	// return successor iterator

  0029b	8b 4c 24 64	 mov	 ecx, DWORD PTR __Where$[esp+88]
  0029f	8b 44 24 60	 mov	 eax, DWORD PTR ___$ReturnUdt$[esp+88]
  002a3	89 08		 mov	 DWORD PTR [eax], ecx

; 747  : 		}

  002a5	8b 4c 24 50	 mov	 ecx, DWORD PTR __$EHRec$[esp+92]
  002a9	5e		 pop	 esi
  002aa	5d		 pop	 ebp
  002ab	64 89 0d 00 00
	00 00		 mov	 DWORD PTR fs:__except_list, ecx
  002b2	83 c4 54	 add	 esp, 84			; 00000054H
  002b5	c2 08 00	 ret	 8
$L221787:
_TEXT	ENDS
;	COMDAT text$x
text$x	SEGMENT
$L221304:
  00000	8d 4d b0	 lea	 ecx, DWORD PTR $T221299[ebp]
  00003	e9 00 00 00 00	 jmp	 ??1?$basic_string@DU?$char_traits@D@std@@V?$allocator@D@2@@std@@QAE@XZ ; std::basic_string<char,std::char_traits<char>,std::allocator<char> >::~basic_string<char,std::char_traits<char>,std::allocator<char> >
__ehhandler$?erase@?$_Tree@V?$_Tmap_traits@EHU?$less@E@std@@V?$allocator@U?$pair@$$CBEH@std@@@2@$0A@@std@@@std@@QAE?AViterator@12@V312@@Z:
  00008	b8 00 00 00 00	 mov	 eax, OFFSET FLAT:$T221782
  0000d	e9 00 00 00 00	 jmp	 ___CxxFrameHandler
text$x	ENDS
?erase@?$_Tree@V?$_Tmap_traits@EHU?$less@E@std@@V?$allocator@U?$pair@$$CBEH@std@@@2@$0A@@std@@@std@@QAE?AViterator@12@V312@@Z ENDP ; std::_Tree<std::_Tmap_traits<unsigned char,int,std::less<unsigned char>,std::allocator<std::pair<unsigned char const ,int> >,0> >::erase
;	COMDAT xdata$x
xdata$x	SEGMENT
$T221895 DD	0ffffffffH
	DD	FLAT:$L221795
$T221893 DD	019930520H
	DD	01H
	DD	FLAT:$T221895
	DD	2 DUP(00H)
	DD	2 DUP(00H)
; Function compile flags: /Ogty
xdata$x	ENDS
;	COMDAT ??0logic_error@std@@QAE@ABV01@@Z
_TEXT	SEGMENT
_this$ = -16						; size = 4
__$EHRec$ = -12						; size = 12
___that$ = 8						; size = 4
??0logic_error@std@@QAE@ABV01@@Z PROC NEAR		; std::logic_error::logic_error, COMDAT
; _this$ = ecx
  00000	6a ff		 push	 -1
  00002	68 00 00 00 00	 push	 __ehhandler$??0logic_error@std@@QAE@ABV01@@Z
  00007	64 a1 00 00 00
	00		 mov	 eax, DWORD PTR fs:__except_list
  0000d	50		 push	 eax
  0000e	64 89 25 00 00
	00 00		 mov	 DWORD PTR fs:__except_list, esp
  00015	51		 push	 ecx
  00016	56		 push	 esi
  00017	57		 push	 edi
  00018	8b 7c 24 1c	 mov	 edi, DWORD PTR ___that$[esp+20]
  0001c	8b f1		 mov	 esi, ecx
  0001e	57		 push	 edi
  0001f	89 74 24 0c	 mov	 DWORD PTR _this$[esp+28], esi
  00023	e8 00 00 00 00	 call	 ??0exception@@QAE@ABV0@@Z ; exception::exception
  00028	33 c0		 xor	 eax, eax
  0002a	6a ff		 push	 -1
  0002c	8d 4e 0c	 lea	 ecx, DWORD PTR [esi+12]
  0002f	c7 06 00 00 00
	00		 mov	 DWORD PTR [esi], OFFSET FLAT:??_7logic_error@std@@6B@
  00035	50		 push	 eax
  00036	83 c7 0c	 add	 edi, 12			; 0000000cH
  00039	c7 41 18 0f 00
	00 00		 mov	 DWORD PTR [ecx+24], 15	; 0000000fH
  00040	89 41 14	 mov	 DWORD PTR [ecx+20], eax
  00043	57		 push	 edi
  00044	89 44 24 20	 mov	 DWORD PTR __$EHRec$[esp+44], eax
  00048	88 41 04	 mov	 BYTE PTR [ecx+4], al
  0004b	e8 00 00 00 00	 call	 ?assign@?$basic_string@DU?$char_traits@D@std@@V?$allocator@D@2@@std@@QAEAAV12@ABV12@II@Z ; std::basic_string<char,std::char_traits<char>,std::allocator<char> >::assign
  00050	8b 4c 24 0c	 mov	 ecx, DWORD PTR __$EHRec$[esp+24]
  00054	5f		 pop	 edi
  00055	8b c6		 mov	 eax, esi
  00057	5e		 pop	 esi
  00058	64 89 0d 00 00
	00 00		 mov	 DWORD PTR fs:__except_list, ecx
  0005f	83 c4 10	 add	 esp, 16			; 00000010H
  00062	c2 04 00	 ret	 4
_TEXT	ENDS
;	COMDAT text$x
text$x	SEGMENT
$L221795:
  00000	8b 4d f0	 mov	 ecx, DWORD PTR _this$[ebp]
  00003	e9 00 00 00 00	 jmp	 ??1exception@@UAE@XZ	; exception::~exception
__ehhandler$??0logic_error@std@@QAE@ABV01@@Z:
  00008	b8 00 00 00 00	 mov	 eax, OFFSET FLAT:$T221893
  0000d	e9 00 00 00 00	 jmp	 ___CxxFrameHandler
text$x	ENDS
??0logic_error@std@@QAE@ABV01@@Z ENDP			; std::logic_error::logic_error
; Function compile flags: /Ogty
;	COMDAT ??0out_of_range@std@@QAE@ABV01@@Z
_TEXT	SEGMENT
___that$ = 8						; size = 4
??0out_of_range@std@@QAE@ABV01@@Z PROC NEAR		; std::out_of_range::out_of_range, COMDAT
; _this$ = ecx
  00000	8b 44 24 04	 mov	 eax, DWORD PTR ___that$[esp-4]
  00004	56		 push	 esi
  00005	50		 push	 eax
  00006	8b f1		 mov	 esi, ecx
  00008	e8 00 00 00 00	 call	 ??0logic_error@std@@QAE@ABV01@@Z
  0000d	c7 06 00 00 00
	00		 mov	 DWORD PTR [esi], OFFSET FLAT:??_7out_of_range@std@@6B@
  00013	8b c6		 mov	 eax, esi
  00015	5e		 pop	 esi
  00016	c2 04 00	 ret	 4
??0out_of_range@std@@QAE@ABV01@@Z ENDP			; std::out_of_range::out_of_range
_TEXT	ENDS
PUBLIC	??0?$CStringT@DV?$StrTraitMFC@DV?$ChTraitsCRT@D@ATL@@@@@ATL@@QAE@PBD@Z ; ATL::CStringT<char,StrTraitMFC<char,ATL::ChTraitsCRT<char> > >::CStringT<char,StrTraitMFC<char,ATL::ChTraitsCRT<char> > >
;	COMDAT xdata$x
; File c:\program files\microsoft visual studio .net 2003\vc7\atlmfc\include\atlsimpstr.h
xdata$x	SEGMENT
$T221984 DD	0ffffffffH
	DD	FLAT:$L221903
$T221978 DD	019930520H
	DD	01H
	DD	FLAT:$T221984
	DD	2 DUP(00H)
	DD	2 DUP(00H)
; Function compile flags: /Ogty
; File c:\program files\microsoft visual studio .net 2003\vc7\atlmfc\include\cstringt.h
xdata$x	ENDS
;	COMDAT ??0?$CStringT@DV?$StrTraitMFC@DV?$ChTraitsCRT@D@ATL@@@@@ATL@@QAE@PBD@Z
_TEXT	SEGMENT
_this$ = -16						; size = 4
__$EHRec$ = -12						; size = 12
_pszSrc$ = 8						; size = 4
??0?$CStringT@DV?$StrTraitMFC@DV?$ChTraitsCRT@D@ATL@@@@@ATL@@QAE@PBD@Z PROC NEAR ; ATL::CStringT<char,StrTraitMFC<char,ATL::ChTraitsCRT<char> > >::CStringT<char,StrTraitMFC<char,ATL::ChTraitsCRT<char> > >, COMDAT
; _this$ = ecx

; 830  : 	{

  00000	6a ff		 push	 -1
  00002	68 00 00 00 00	 push	 __ehhandler$??0?$CStringT@DV?$StrTraitMFC@DV?$ChTraitsCRT@D@ATL@@@@@ATL@@QAE@PBD@Z
  00007	64 a1 00 00 00
	00		 mov	 eax, DWORD PTR fs:__except_list
  0000d	50		 push	 eax
  0000e	64 89 25 00 00
	00 00		 mov	 DWORD PTR fs:__except_list, esp
  00015	51		 push	 ecx
  00016	56		 push	 esi
  00017	8b f1		 mov	 esi, ecx
  00019	57		 push	 edi
  0001a	89 74 24 08	 mov	 DWORD PTR _this$[esp+24], esi
  0001e	e8 00 00 00 00	 call	 ?AfxGetStringManager@@YGPAUIAtlStringMgr@ATL@@XZ ; AfxGetStringManager
  00023	8b 10		 mov	 edx, DWORD PTR [eax]
  00025	8b c8		 mov	 ecx, eax
  00027	ff 52 0c	 call	 DWORD PTR [edx+12]
  0002a	83 c0 10	 add	 eax, 16			; 00000010H
  0002d	89 06		 mov	 DWORD PTR [esi], eax

; 831  : 		if( !CheckImplicitLoad( pszSrc ) )

  0002f	8b 54 24 1c	 mov	 edx, DWORD PTR _pszSrc$[esp+20]
  00033	85 d2		 test	 edx, edx
  00035	c7 44 24 14 00
	00 00 00	 mov	 DWORD PTR __$EHRec$[esp+32], 0
  0003d	74 33		 je	 SHORT $L221980
  0003f	f7 c2 00 00 ff
	ff		 test	 edx, -65536		; ffff0000H
  00045	75 2f		 jne	 SHORT $L221974
  00047	0f b7 fa	 movzx	 edi, dx
  0004a	57		 push	 edi
  0004b	e8 00 00 00 00	 call	 ?AfxFindStringResourceHandle@@YGPAUHINSTANCE__@@I@Z ; AfxFindStringResourceHandle
  00050	85 c0		 test	 eax, eax
  00052	74 3e		 je	 SHORT $L221982
  00054	57		 push	 edi
  00055	50		 push	 eax
  00056	8b ce		 mov	 ecx, esi
  00058	e8 00 00 00 00	 call	 ?LoadStringA@?$CStringT@DV?$StrTraitMFC@DV?$ChTraitsCRT@D@ATL@@@@@ATL@@QAEHPAUHINSTANCE__@@I@Z ; ATL::CStringT<char,StrTraitMFC<char,ATL::ChTraitsCRT<char> > >::LoadStringA
  0005d	5f		 pop	 edi

; 835  : 		}
; 836  : 	}

  0005e	8b c6		 mov	 eax, esi
  00060	5e		 pop	 esi
  00061	8b 4c 24 04	 mov	 ecx, DWORD PTR __$EHRec$[esp+16]
  00065	64 89 0d 00 00
	00 00		 mov	 DWORD PTR fs:__except_list, ecx
  0006c	83 c4 10	 add	 esp, 16			; 00000010H
  0006f	c2 04 00	 ret	 4
$L221980:

; 832  : 		{
; 833  : 			// nDestLength is in XCHARs
; 834  : 			*this = pszSrc;

  00072	33 c0		 xor	 eax, eax
  00074	eb 13		 jmp	 SHORT $L221973
$L221974:
  00076	8b c2		 mov	 eax, edx
  00078	8d 78 01	 lea	 edi, DWORD PTR [eax+1]
  0007b	eb 03 8d 49 00	 npad	 5
$L221981:
  00080	8a 08		 mov	 cl, BYTE PTR [eax]
  00082	40		 inc	 eax
  00083	84 c9		 test	 cl, cl
  00085	75 f9		 jne	 SHORT $L221981
  00087	2b c7		 sub	 eax, edi
$L221973:
  00089	50		 push	 eax
  0008a	52		 push	 edx
  0008b	8b ce		 mov	 ecx, esi
  0008d	e8 00 00 00 00	 call	 ?SetString@?$CSimpleStringT@D$0A@@ATL@@QAEXPBDH@Z ; ATL::CSimpleStringT<char,0>::SetString
$L221982:

; 835  : 		}
; 836  : 	}

  00092	8b 4c 24 0c	 mov	 ecx, DWORD PTR __$EHRec$[esp+24]
  00096	5f		 pop	 edi
  00097	8b c6		 mov	 eax, esi
  00099	5e		 pop	 esi
  0009a	64 89 0d 00 00
	00 00		 mov	 DWORD PTR fs:__except_list, ecx
  000a1	83 c4 10	 add	 esp, 16			; 00000010H
  000a4	c2 04 00	 ret	 4
_TEXT	ENDS
;	COMDAT text$x
text$x	SEGMENT
$L221903:
  00000	8b 4d f0	 mov	 ecx, DWORD PTR _this$[ebp]
  00003	e9 00 00 00 00	 jmp	 ??1?$CSimpleStringT@D$0A@@ATL@@QAE@XZ ; ATL::CSimpleStringT<char,0>::~CSimpleStringT<char,0>
__ehhandler$??0?$CStringT@DV?$StrTraitMFC@DV?$ChTraitsCRT@D@ATL@@@@@ATL@@QAE@PBD@Z:
  00008	b8 00 00 00 00	 mov	 eax, OFFSET FLAT:$T221978
  0000d	e9 00 00 00 00	 jmp	 ___CxxFrameHandler
text$x	ENDS
??0?$CStringT@DV?$StrTraitMFC@DV?$ChTraitsCRT@D@ATL@@@@@ATL@@QAE@PBD@Z ENDP ; ATL::CStringT<char,StrTraitMFC<char,ATL::ChTraitsCRT<char> > >::CStringT<char,StrTraitMFC<char,ATL::ChTraitsCRT<char> > >
PUBLIC	?Format@CTime@ATL@@QBE?AV?$CStringT@DV?$StrTraitMFC@DV?$ChTraitsCRT@D@ATL@@@@@2@PBD@Z ; ATL::CTime::Format
EXTRN	_strftime:NEAR
EXTRN	__localtime64:NEAR
; Function compile flags: /Ogty
; File c:\program files\microsoft visual studio .net 2003\vc7\atlmfc\include\atltime.h
;	COMDAT ?Format@CTime@ATL@@QBE?AV?$CStringT@DV?$StrTraitMFC@DV?$ChTraitsCRT@D@ATL@@@@@2@PBD@Z
_TEXT	SEGMENT
$T221991 = -136						; size = 4
_szBuffer$ = -132					; size = 128
__$ArrayPad$ = -4					; size = 4
__$ReturnAddr$ = 4					; size = 4
___$ReturnUdt$ = 8					; size = 4
_pFormat$ = 12						; size = 4
?Format@CTime@ATL@@QBE?AV?$CStringT@DV?$StrTraitMFC@DV?$ChTraitsCRT@D@ATL@@@@@2@PBD@Z PROC NEAR ; ATL::CTime::Format, COMDAT
; _this$ = ecx

; 344  : {

  00000	81 ec 88 00 00
	00		 sub	 esp, 136		; 00000088H
  00006	a1 00 00 00 00	 mov	 eax, DWORD PTR ___security_cookie
  0000b	33 c4		 xor	 eax, esp
  0000d	56		 push	 esi
  0000e	8b b4 24 94 00
	00 00		 mov	 esi, DWORD PTR _pFormat$[esp+136]

; 345  : 	if(pFormat == NULL)

  00015	85 f6		 test	 esi, esi
  00017	57		 push	 edi
  00018	8b bc 24 94 00
	00 00		 mov	 edi, DWORD PTR ___$ReturnUdt$[esp+140]
  0001f	89 84 24 8c 00
	00 00		 mov	 DWORD PTR __$ArrayPad$[esp+144], eax
  00026	c7 44 24 08 00
	00 00 00	 mov	 DWORD PTR $T221991[esp+144], 0
  0002e	75 03		 jne	 SHORT $L43108

; 346  : 		return pFormat;

  00030	56		 push	 esi
  00031	eb 2f		 jmp	 SHORT $L221997
$L43108:

; 347  : 
; 348  : 	TCHAR szBuffer[maxTimeBufferSize];
; 349  : 
; 350  : 	struct tm* ptmTemp = _localtime64(&m_time);

  00033	51		 push	 ecx
  00034	e8 00 00 00 00	 call	 __localtime64
  00039	83 c4 04	 add	 esp, 4

; 351  : 	if (ptmTemp == NULL ||
; 352  : 		!_tcsftime(szBuffer, maxTimeBufferSize, pFormat, ptmTemp))

  0003c	85 c0		 test	 eax, eax
  0003e	74 18		 je	 SHORT $L43112
  00040	50		 push	 eax
  00041	56		 push	 esi
  00042	8d 44 24 14	 lea	 eax, DWORD PTR _szBuffer$[esp+152]
  00046	68 80 00 00 00	 push	 128			; 00000080H
  0004b	50		 push	 eax
  0004c	e8 00 00 00 00	 call	 _strftime
  00051	83 c4 10	 add	 esp, 16			; 00000010H
  00054	85 c0		 test	 eax, eax
  00056	75 05		 jne	 SHORT $L43111
$L43112:

; 353  : 		szBuffer[0] = '\0';

  00058	c6 44 24 0c 00	 mov	 BYTE PTR _szBuffer$[esp+144], 0
$L43111:

; 354  : 	return szBuffer;

  0005d	8d 4c 24 0c	 lea	 ecx, DWORD PTR _szBuffer$[esp+144]
  00061	51		 push	 ecx
$L221997:
  00062	8b cf		 mov	 ecx, edi
  00064	e8 00 00 00 00	 call	 ??0?$CStringT@DV?$StrTraitMFC@DV?$ChTraitsCRT@D@ATL@@@@@ATL@@QAE@PBD@Z ; ATL::CStringT<char,StrTraitMFC<char,ATL::ChTraitsCRT<char> > >::CStringT<char,StrTraitMFC<char,ATL::ChTraitsCRT<char> > >

; 355  : }

  00069	8b 8c 24 8c 00
	00 00		 mov	 ecx, DWORD PTR __$ArrayPad$[esp+144]
  00070	8b c7		 mov	 eax, edi
  00072	5f		 pop	 edi
  00073	5e		 pop	 esi
  00074	33 cc		 xor	 ecx, esp
  00076	e8 00 00 00 00	 call	 @__security_check_cookie@4
  0007b	81 c4 88 00 00
	00		 add	 esp, 136		; 00000088H
  00081	c2 08 00	 ret	 8
?Format@CTime@ATL@@QBE?AV?$CStringT@DV?$StrTraitMFC@DV?$ChTraitsCRT@D@ATL@@@@@2@PBD@Z ENDP ; ATL::CTime::Format
_TEXT	ENDS
PUBLIC	??0length_error@std@@QAE@ABV01@@Z		; std::length_error::length_error
PUBLIC	__TI3?AVlength_error@std@@
PUBLIC	__CTA3?AVlength_error@std@@
PUBLIC	??_R0?AVlength_error@std@@@8			; std::length_error `RTTI Type Descriptor'
PUBLIC	__CT??_R0?AVlength_error@std@@@8??0length_error@std@@QAE@ABV01@@Z40
PUBLIC	??_C@_0BE@JONHPENG@map?1set?$DMT?$DO?5too?5long?$AA@ ; `string'
PUBLIC	?_Insert@?$_Tree@V?$_Tset_traits@V?$basic_string@DU?$char_traits@D@std@@V?$allocator@D@2@@std@@U?$less@V?$basic_string@DU?$char_traits@D@std@@V?$allocator@D@2@@std@@@2@V?$allocator@V?$basic_string@DU?$char_traits@D@std@@V?$allocator@D@2@@std@@@2@$0A@@std@@@std@@IAE?AViterator@12@_NPAU_Node@?$_Tree_nod@V?$_Tset_traits@V?$basic_string@DU?$char_traits@D@std@@V?$allocator@D@2@@std@@U?$less@V?$basic_string@DU?$char_traits@D@std@@V?$allocator@D@2@@std@@@2@V?$allocator@V?$basic_string@DU?$char_traits@D@std@@V?$allocator@D@2@@std@@@2@$0A@@std@@@2@ABV?$basic_string@DU?$char_traits@D@std@@V?$allocator@D@2@@2@@Z ; std::_Tree<std::_Tset_traits<std::basic_string<char,std::char_traits<char>,std::allocator<char> >,std::less<std::basic_string<char,std::char_traits<char>,std::allocator<char> > >,std::allocator<std::basic_string<char,std::char_traits<char>,std::allocator<char> > >,0> >::_Insert
;	COMDAT xdata$x
; File c:\program files\microsoft visual studio .net 2003\vc7\include\xtree
xdata$x	SEGMENT
$T222372 DD	0ffffffffH
	DD	FLAT:$L222002
$T222367 DD	019930520H
	DD	01H
	DD	FLAT:$T222372
	DD	2 DUP(00H)
	DD	2 DUP(00H)
xdata$x	ENDS
;	COMDAT ??_C@_0BE@JONHPENG@map?1set?$DMT?$DO?5too?5long?$AA@
CONST	SEGMENT
??_C@_0BE@JONHPENG@map?1set?$DMT?$DO?5too?5long?$AA@ DB 'map/set<T> too l'
	DB	'ong', 00H					; `string'
CONST	ENDS
;	COMDAT __TI3?AVlength_error@std@@
xdata$x	SEGMENT
__TI3?AVlength_error@std@@ DD 00H
	DD	FLAT:??1length_error@std@@UAE@XZ
	DD	00H
	DD	FLAT:__CTA3?AVlength_error@std@@
xdata$x	ENDS
;	COMDAT __CTA3?AVlength_error@std@@
xdata$x	SEGMENT
__CTA3?AVlength_error@std@@ DD 03H
	DD	FLAT:__CT??_R0?AVlength_error@std@@@8??0length_error@std@@QAE@ABV01@@Z40
	DD	FLAT:__CT??_R0?AVlogic_error@std@@@8??0logic_error@std@@QAE@ABV01@@Z40
	DD	FLAT:__CT??_R0?AVexception@@@8??0exception@@QAE@ABV0@@Z12
xdata$x	ENDS
;	COMDAT __CT??_R0?AVlength_error@std@@@8??0length_error@std@@QAE@ABV01@@Z40
xdata$x	SEGMENT
__CT??_R0?AVlength_error@std@@@8??0length_error@std@@QAE@ABV01@@Z40 DD 00H
	DD	FLAT:??_R0?AVlength_error@std@@@8
	DD	00H
	DD	0ffffffffH
	ORG $+4
	DD	028H
	DD	FLAT:??0length_error@std@@QAE@ABV01@@Z
xdata$x	ENDS
;	COMDAT ??_R0?AVlength_error@std@@@8
_DATA	SEGMENT
??_R0?AVlength_error@std@@@8 DD FLAT:??_7type_info@@6B@	; std::length_error `RTTI Type Descriptor'
	DD	00H
	DB	'.?AVlength_error@std@@', 00H
; Function compile flags: /Ogty
_DATA	ENDS
;	COMDAT ?_Insert@?$_Tree@V?$_Tset_traits@V?$basic_string@DU?$char_traits@D@std@@V?$allocator@D@2@@std@@U?$less@V?$basic_string@DU?$char_traits@D@std@@V?$allocator@D@2@@std@@@2@V?$allocator@V?$basic_string@DU?$char_traits@D@std@@V?$allocator@D@2@@std@@@2@$0A@@std@@@std@@IAE?AViterator@12@_NPAU_Node@?$_Tree_nod@V?$_Tset_traits@V?$basic_string@DU?$char_traits@D@std@@V?$allocator@D@2@@std@@U?$less@V?$basic_string@DU?$char_traits@D@std@@V?$allocator@D@2@@std@@@2@V?$allocator@V?$basic_string@DU?$char_traits@D@std@@V?$allocator@D@2@@std@@@2@$0A@@std@@@2@ABV?$basic_string@DU?$char_traits@D@std@@V?$allocator@D@2@@2@@Z
_TEXT	SEGMENT
$T222001 = -80						; size = 28
$T222000 = -52						; size = 40
__$EHRec$ = -12						; size = 12
___$ReturnUdt$ = 8					; size = 4
__Addleft$ = 12						; size = 1
__Wherenode$ = 16					; size = 4
__Newnode$ = 20						; size = 4
__Val$ = 20						; size = 4
?_Insert@?$_Tree@V?$_Tset_traits@V?$basic_string@DU?$char_traits@D@std@@V?$allocator@D@2@@std@@U?$less@V?$basic_string@DU?$char_traits@D@std@@V?$allocator@D@2@@std@@@2@V?$allocator@V?$basic_string@DU?$char_traits@D@std@@V?$allocator@D@2@@std@@@2@$0A@@std@@@std@@IAE?AViterator@12@_NPAU_Node@?$_Tree_nod@V?$_Tset_traits@V?$basic_string@DU?$char_traits@D@std@@V?$allocator@D@2@@std@@U?$less@V?$basic_string@DU?$char_traits@D@std@@V?$allocator@D@2@@std@@@2@V?$allocator@V?$basic_string@DU?$char_traits@D@std@@V?$allocator@D@2@@std@@@2@$0A@@std@@@2@ABV?$basic_string@DU?$char_traits@D@std@@V?$allocator@D@2@@2@@Z PROC NEAR ; std::_Tree<std::_Tset_traits<std::basic_string<char,std::char_traits<char>,std::allocator<char> >,std::less<std::basic_string<char,std::char_traits<char>,std::allocator<char> > >,std::allocator<std::basic_string<char,std::char_traits<char>,std::allocator<char> > >,0> >::_Insert, COMDAT
; _this$ = ecx

; 911  : 		{	// add node with value next to _Wherenode, to left if _Addnode

  00000	64 a1 00 00 00
	00		 mov	 eax, DWORD PTR fs:__except_list
  00006	6a ff		 push	 -1
  00008	68 00 00 00 00	 push	 __ehhandler$?_Insert@?$_Tree@V?$_Tset_traits@V?$basic_string@DU?$char_traits@D@std@@V?$allocator@D@2@@std@@U?$less@V?$basic_string@DU?$char_traits@D@std@@V?$allocator@D@2@@std@@@2@V?$allocator@V?$basic_string@DU?$char_traits@D@std@@V?$allocator@D@2@@std@@@2@$0A@@std@@@std@@IAE?AViterator@12@_NPAU_Node@?$_Tree_nod@V?$_Tset_traits@V?$basic_string@DU?$char_traits@D@std@@V?$allocator@D@2@@std@@U?$less@V?$basic_string@DU?$char_traits@D@std@@V?$allocator@D@2@@std@@@2@V?$allocator@V?$basic_string@DU?$char_traits@D@std@@V?$allocator@D@2@@std@@@2@$0A@@std@@@2@ABV?$basic_string@DU?$char_traits@D@std@@V?$allocator@D@2@@2@@Z
  0000d	50		 push	 eax
  0000e	64 89 25 00 00
	00 00		 mov	 DWORD PTR fs:__except_list, esp
  00015	83 ec 44	 sub	 esp, 68			; 00000044H
  00018	56		 push	 esi
  00019	57		 push	 edi
  0001a	8b f9		 mov	 edi, ecx

; 912  : 		if (max_size() - 1 <= _Mysize)

  0001c	81 7f 08 48 92
	24 09		 cmp	 DWORD PTR [edi+8], 153391688 ; 09249248H
  00023	72 4c		 jb	 SHORT $L214244

; 913  : 			_THROW(length_error, "map/set<T> too long");

  00025	6a 13		 push	 19			; 00000013H
  00027	33 f6		 xor	 esi, esi
  00029	68 00 00 00 00	 push	 OFFSET FLAT:??_C@_0BE@JONHPENG@map?1set?$DMT?$DO?5too?5long?$AA@
  0002e	8d 4c 24 10	 lea	 ecx, DWORD PTR $T222001[esp+96]
  00032	c7 44 24 28 0f
	00 00 00	 mov	 DWORD PTR $T222001[esp+120], 15 ; 0000000fH
  0003a	89 74 24 24	 mov	 DWORD PTR $T222001[esp+116], esi
  0003e	c6 44 24 14 00	 mov	 BYTE PTR $T222001[esp+100], 0
  00043	e8 00 00 00 00	 call	 ?assign@?$basic_string@DU?$char_traits@D@std@@V?$allocator@D@2@@std@@QAEAAV12@PBDI@Z ; std::basic_string<char,std::char_traits<char>,std::allocator<char> >::assign
  00048	8d 44 24 08	 lea	 eax, DWORD PTR $T222001[esp+88]
  0004c	50		 push	 eax
  0004d	8d 4c 24 28	 lea	 ecx, DWORD PTR $T222000[esp+92]
  00051	89 74 24 58	 mov	 DWORD PTR __$EHRec$[esp+100], esi
  00055	e8 00 00 00 00	 call	 ??0logic_error@std@@QAE@ABV?$basic_string@DU?$char_traits@D@std@@V?$allocator@D@2@@1@@Z ; std::logic_error::logic_error
  0005a	68 00 00 00 00	 push	 OFFSET FLAT:__TI3?AVlength_error@std@@
  0005f	8d 4c 24 28	 lea	 ecx, DWORD PTR $T222000[esp+92]
  00063	51		 push	 ecx
  00064	c7 44 24 2c 00
	00 00 00	 mov	 DWORD PTR $T222000[esp+96], OFFSET FLAT:??_7length_error@std@@6B@
  0006c	e8 00 00 00 00	 call	 __CxxThrowException@8
$L214244:

; 914  : 		_Nodeptr _Newnode = _Buynode(_Myhead, _Wherenode, _Myhead,
; 915  : 			_Val, _Red);

  00071	8b 54 24 68	 mov	 edx, DWORD PTR __Val$[esp+84]
  00075	8b 47 04	 mov	 eax, DWORD PTR [edi+4]
  00078	8b 74 24 64	 mov	 esi, DWORD PTR __Wherenode$[esp+84]
  0007c	53		 push	 ebx
  0007d	6a 00		 push	 0
  0007f	52		 push	 edx
  00080	50		 push	 eax
  00081	56		 push	 esi
  00082	50		 push	 eax
  00083	8b cf		 mov	 ecx, edi
  00085	e8 00 00 00 00	 call	 ?_Buynode@?$_Tree@V?$_Tset_traits@V?$basic_string@DU?$char_traits@D@std@@V?$allocator@D@2@@std@@U?$less@V?$basic_string@DU?$char_traits@D@std@@V?$allocator@D@2@@std@@@2@V?$allocator@V?$basic_string@DU?$char_traits@D@std@@V?$allocator@D@2@@std@@@2@$0A@@std@@@std@@IAEPAU_Node@?$_Tree_nod@V?$_Tset_traits@V?$basic_string@DU?$char_traits@D@std@@V?$allocator@D@2@@std@@U?$less@V?$basic_string@DU?$char_traits@D@std@@V?$allocator@D@2@@std@@@2@V?$allocator@V?$basic_string@DU?$char_traits@D@std@@V?$allocator@D@2@@std@@@2@$0A@@std@@@2@PAU342@00ABV?$basic_string@DU?$char_traits@D@std@@V?$allocator@D@2@@2@D@Z ; std::_Tree<std::_Tset_traits<std::basic_string<char,std::char_traits<char>,std::allocator<char> >,std::less<std::basic_string<char,std::char_traits<char>,std::allocator<char> > >,std::allocator<std::basic_string<char,std::char_traits<char>,std::allocator<char> > >,0> >::_Buynode

; 916  : 
; 917  : 		++_Mysize;

  0008a	8b 5f 08	 mov	 ebx, DWORD PTR [edi+8]
  0008d	8b c8		 mov	 ecx, eax

; 918  : 		if (_Wherenode == _Myhead)

  0008f	8b 47 04	 mov	 eax, DWORD PTR [edi+4]
  00092	43		 inc	 ebx
  00093	3b f0		 cmp	 esi, eax
  00095	89 4c 24 6c	 mov	 DWORD PTR __Newnode$[esp+88], ecx
  00099	89 5f 08	 mov	 DWORD PTR [edi+8], ebx
  0009c	75 10		 jne	 SHORT $L214249

; 919  : 			{	// first node in tree, just set head values
; 920  : 			_Root() = _Newnode;

  0009e	89 48 04	 mov	 DWORD PTR [eax+4], ecx

; 921  : 			_Lmost() = _Newnode, _Rmost() = _Newnode;

  000a1	8b 47 04	 mov	 eax, DWORD PTR [edi+4]
  000a4	89 08		 mov	 DWORD PTR [eax], ecx
  000a6	8b 57 04	 mov	 edx, DWORD PTR [edi+4]
  000a9	89 4a 08	 mov	 DWORD PTR [edx+8], ecx

; 922  : 			}
; 923  : 		else if (_Addleft)

  000ac	eb 23		 jmp	 SHORT $L214254
$L214249:
  000ae	8a 44 24 64	 mov	 al, BYTE PTR __Addleft$[esp+88]
  000b2	84 c0		 test	 al, al
  000b4	74 0d		 je	 SHORT $L214251

; 924  : 			{	// add to left of _Wherenode
; 925  : 			_Left(_Wherenode) = _Newnode;

  000b6	89 0e		 mov	 DWORD PTR [esi], ecx

; 926  : 			if (_Wherenode == _Lmost())

  000b8	8b 47 04	 mov	 eax, DWORD PTR [edi+4]
  000bb	3b 30		 cmp	 esi, DWORD PTR [eax]
  000bd	75 12		 jne	 SHORT $L214254

; 927  : 				_Lmost() = _Newnode;

  000bf	89 08		 mov	 DWORD PTR [eax], ecx

; 928  : 			}
; 929  : 		else

  000c1	eb 0e		 jmp	 SHORT $L214254
$L214251:

; 930  : 			{	// add to right of _Wherenode
; 931  : 			_Right(_Wherenode) = _Newnode;

  000c3	89 4e 08	 mov	 DWORD PTR [esi+8], ecx

; 932  : 			if (_Wherenode == _Rmost())

  000c6	8b 47 04	 mov	 eax, DWORD PTR [edi+4]
  000c9	3b 70 08	 cmp	 esi, DWORD PTR [eax+8]
  000cc	75 03		 jne	 SHORT $L214254

; 933  : 				_Rmost() = _Newnode;

  000ce	89 48 08	 mov	 DWORD PTR [eax+8], ecx
$L214254:

; 934  : 			}
; 935  : 
; 936  : 		for (_Nodeptr _Pnode = _Newnode; _Color(_Parent(_Pnode)) == _Red; )

  000d1	8b 51 04	 mov	 edx, DWORD PTR [ecx+4]
  000d4	80 7a 28 00	 cmp	 BYTE PTR [edx+40], 0
  000d8	8d 41 04	 lea	 eax, DWORD PTR [ecx+4]
  000db	8b f1		 mov	 esi, ecx
  000dd	b3 01		 mov	 bl, 1
  000df	0f 85 a5 00 00
	00		 jne	 $L214258
  000e5	55		 push	 ebp
$L214257:

; 937  : 			if (_Parent(_Pnode) == _Left(_Parent(_Parent(_Pnode))))

  000e6	8b 08		 mov	 ecx, DWORD PTR [eax]
  000e8	8b 69 04	 mov	 ebp, DWORD PTR [ecx+4]
  000eb	8b 55 00	 mov	 edx, DWORD PTR [ebp]
  000ee	3b ca		 cmp	 ecx, edx
  000f0	75 50		 jne	 SHORT $L214259

; 938  : 				{	// fixup red-red in left subtree
; 939  : 				_Wherenode = _Right(_Parent(_Parent(_Pnode)));

  000f2	8b 55 08	 mov	 edx, DWORD PTR [ebp+8]

; 940  : 				if (_Color(_Wherenode) == _Red)

  000f5	80 7a 28 00	 cmp	 BYTE PTR [edx+40], 0
  000f9	75 18		 jne	 SHORT $L214260
$L222371:

; 941  : 					{	// parent has two red children, blacken both
; 942  : 					_Color(_Parent(_Pnode)) = _Black;

  000fb	8b 08		 mov	 ecx, DWORD PTR [eax]
  000fd	88 59 28	 mov	 BYTE PTR [ecx+40], bl

; 943  : 					_Color(_Wherenode) = _Black;

  00100	88 5a 28	 mov	 BYTE PTR [edx+40], bl

; 944  : 					_Color(_Parent(_Parent(_Pnode))) = _Red;

  00103	8b 10		 mov	 edx, DWORD PTR [eax]
  00105	8b 4a 04	 mov	 ecx, DWORD PTR [edx+4]
  00108	c6 41 28 00	 mov	 BYTE PTR [ecx+40], 0

; 945  : 					_Pnode = _Parent(_Parent(_Pnode));

  0010c	8b 10		 mov	 edx, DWORD PTR [eax]
  0010e	8b 72 04	 mov	 esi, DWORD PTR [edx+4]

; 946  : 					}
; 947  : 				else

  00111	eb 61		 jmp	 SHORT $L214265
$L214260:

; 948  : 					{	// parent has red and black children
; 949  : 					if (_Pnode == _Right(_Parent(_Pnode)))

  00113	3b 71 08	 cmp	 esi, DWORD PTR [ecx+8]
  00116	75 0a		 jne	 SHORT $L214262

; 950  : 						{	// rotate right child to left
; 951  : 						_Pnode = _Parent(_Pnode);

  00118	8b f1		 mov	 esi, ecx

; 952  : 						_Lrotate(_Pnode);

  0011a	56		 push	 esi
  0011b	8b cf		 mov	 ecx, edi
  0011d	e8 00 00 00 00	 call	 ?_Lrotate@?$_Tree@V?$_Tset_traits@V?$basic_string@DU?$char_traits@D@std@@V?$allocator@D@2@@std@@U?$less@V?$basic_string@DU?$char_traits@D@std@@V?$allocator@D@2@@std@@@2@V?$allocator@V?$basic_string@DU?$char_traits@D@std@@V?$allocator@D@2@@std@@@2@$0A@@std@@@std@@IAEXPAU_Node@?$_Tree_nod@V?$_Tset_traits@V?$basic_string@DU?$char_traits@D@std@@V?$allocator@D@2@@std@@U?$less@V?$basic_string@DU?$char_traits@D@std@@V?$allocator@D@2@@std@@@2@V?$allocator@V?$basic_string@DU?$char_traits@D@std@@V?$allocator@D@2@@std@@@2@$0A@@std@@@2@@Z ; std::_Tree<std::_Tset_traits<std::basic_string<char,std::char_traits<char>,std::allocator<char> >,std::less<std::basic_string<char,std::char_traits<char>,std::allocator<char> > >,std::allocator<std::basic_string<char,std::char_traits<char>,std::allocator<char> > >,0> >::_Lrotate
$L214262:

; 953  : 						}
; 954  : 					_Color(_Parent(_Pnode)) = _Black;	// propagate red up

  00122	8b 46 04	 mov	 eax, DWORD PTR [esi+4]
  00125	88 58 28	 mov	 BYTE PTR [eax+40], bl

; 955  : 					_Color(_Parent(_Parent(_Pnode))) = _Red;

  00128	8b 4e 04	 mov	 ecx, DWORD PTR [esi+4]
  0012b	8b 51 04	 mov	 edx, DWORD PTR [ecx+4]
  0012e	c6 42 28 00	 mov	 BYTE PTR [edx+40], 0

; 956  : 					_Rrotate(_Parent(_Parent(_Pnode)));

  00132	8b 46 04	 mov	 eax, DWORD PTR [esi+4]
  00135	8b 48 04	 mov	 ecx, DWORD PTR [eax+4]
  00138	51		 push	 ecx
  00139	8b cf		 mov	 ecx, edi
  0013b	e8 00 00 00 00	 call	 ?_Rrotate@?$_Tree@V?$_Tset_traits@V?$basic_string@DU?$char_traits@D@std@@V?$allocator@D@2@@std@@U?$less@V?$basic_string@DU?$char_traits@D@std@@V?$allocator@D@2@@std@@@2@V?$allocator@V?$basic_string@DU?$char_traits@D@std@@V?$allocator@D@2@@std@@@2@$0A@@std@@@std@@IAEXPAU_Node@?$_Tree_nod@V?$_Tset_traits@V?$basic_string@DU?$char_traits@D@std@@V?$allocator@D@2@@std@@U?$less@V?$basic_string@DU?$char_traits@D@std@@V?$allocator@D@2@@std@@@2@V?$allocator@V?$basic_string@DU?$char_traits@D@std@@V?$allocator@D@2@@std@@@2@$0A@@std@@@2@@Z ; std::_Tree<std::_Tset_traits<std::basic_string<char,std::char_traits<char>,std::allocator<char> >,std::less<std::basic_string<char,std::char_traits<char>,std::allocator<char> > >,std::allocator<std::basic_string<char,std::char_traits<char>,std::allocator<char> > >,0> >::_Rrotate

; 957  : 					}
; 958  : 				}
; 959  : 			else

  00140	eb 32		 jmp	 SHORT $L214265
$L214259:

; 960  : 				{	// fixup red-red in right subtree
; 961  : 				_Wherenode = _Left(_Parent(_Parent(_Pnode)));
; 962  : 				if (_Color(_Wherenode) == _Red)

  00142	80 7a 28 00	 cmp	 BYTE PTR [edx+40], 0

; 963  : 					{	// parent has two red children, blacken both
; 964  : 					_Color(_Parent(_Pnode)) = _Black;
; 965  : 					_Color(_Wherenode) = _Black;
; 966  : 					_Color(_Parent(_Parent(_Pnode))) = _Red;
; 967  : 					_Pnode = _Parent(_Parent(_Pnode));
; 968  : 					}
; 969  : 				else

  00146	74 b3		 je	 SHORT $L222371

; 970  : 					{	// parent has red and black children
; 971  : 					if (_Pnode == _Left(_Parent(_Pnode)))

  00148	3b 31		 cmp	 esi, DWORD PTR [ecx]
  0014a	75 0a		 jne	 SHORT $L214266

; 972  : 						{	// rotate left child to right
; 973  : 						_Pnode = _Parent(_Pnode);

  0014c	8b f1		 mov	 esi, ecx

; 974  : 						_Rrotate(_Pnode);

  0014e	56		 push	 esi
  0014f	8b cf		 mov	 ecx, edi
  00151	e8 00 00 00 00	 call	 ?_Rrotate@?$_Tree@V?$_Tset_traits@V?$basic_string@DU?$char_traits@D@std@@V?$allocator@D@2@@std@@U?$less@V?$basic_string@DU?$char_traits@D@std@@V?$allocator@D@2@@std@@@2@V?$allocator@V?$basic_string@DU?$char_traits@D@std@@V?$allocator@D@2@@std@@@2@$0A@@std@@@std@@IAEXPAU_Node@?$_Tree_nod@V?$_Tset_traits@V?$basic_string@DU?$char_traits@D@std@@V?$allocator@D@2@@std@@U?$less@V?$basic_string@DU?$char_traits@D@std@@V?$allocator@D@2@@std@@@2@V?$allocator@V?$basic_string@DU?$char_traits@D@std@@V?$allocator@D@2@@std@@@2@$0A@@std@@@2@@Z ; std::_Tree<std::_Tset_traits<std::basic_string<char,std::char_traits<char>,std::allocator<char> >,std::less<std::basic_string<char,std::char_traits<char>,std::allocator<char> > >,std::allocator<std::basic_string<char,std::char_traits<char>,std::allocator<char> > >,0> >::_Rrotate
$L214266:

; 975  : 						}
; 976  : 					_Color(_Parent(_Pnode)) = _Black;	// propagate red up

  00156	8b 46 04	 mov	 eax, DWORD PTR [esi+4]
  00159	88 58 28	 mov	 BYTE PTR [eax+40], bl

; 977  : 					_Color(_Parent(_Parent(_Pnode))) = _Red;

  0015c	8b 4e 04	 mov	 ecx, DWORD PTR [esi+4]
  0015f	8b 51 04	 mov	 edx, DWORD PTR [ecx+4]
  00162	c6 42 28 00	 mov	 BYTE PTR [edx+40], 0

; 978  : 					_Lrotate(_Parent(_Parent(_Pnode)));

  00166	8b 46 04	 mov	 eax, DWORD PTR [esi+4]
  00169	8b 48 04	 mov	 ecx, DWORD PTR [eax+4]
  0016c	51		 push	 ecx
  0016d	8b cf		 mov	 ecx, edi
  0016f	e8 00 00 00 00	 call	 ?_Lrotate@?$_Tree@V?$_Tset_traits@V?$basic_string@DU?$char_traits@D@std@@V?$allocator@D@2@@std@@U?$less@V?$basic_string@DU?$char_traits@D@std@@V?$allocator@D@2@@std@@@2@V?$allocator@V?$basic_string@DU?$char_traits@D@std@@V?$allocator@D@2@@std@@@2@$0A@@std@@@std@@IAEXPAU_Node@?$_Tree_nod@V?$_Tset_traits@V?$basic_string@DU?$char_traits@D@std@@V?$allocator@D@2@@std@@U?$less@V?$basic_string@DU?$char_traits@D@std@@V?$allocator@D@2@@std@@@2@V?$allocator@V?$basic_string@DU?$char_traits@D@std@@V?$allocator@D@2@@std@@@2@$0A@@std@@@2@@Z ; std::_Tree<std::_Tset_traits<std::basic_string<char,std::char_traits<char>,std::allocator<char> >,std::less<std::basic_string<char,std::char_traits<char>,std::allocator<char> > >,std::allocator<std::basic_string<char,std::char_traits<char>,std::allocator<char> > >,0> >::_Lrotate
$L214265:
  00174	8b 56 04	 mov	 edx, DWORD PTR [esi+4]
  00177	8a 4a 28	 mov	 cl, BYTE PTR [edx+40]
  0017a	84 c9		 test	 cl, cl
  0017c	8d 46 04	 lea	 eax, DWORD PTR [esi+4]
  0017f	0f 84 61 ff ff
	ff		 je	 $L214257
  00185	8b 4c 24 70	 mov	 ecx, DWORD PTR __Newnode$[esp+92]
  00189	5d		 pop	 ebp
$L214258:

; 979  : 					}
; 980  : 				}
; 981  : 
; 982  : 		_Color(_Root()) = _Black;	// root is always black

  0018a	8b 47 04	 mov	 eax, DWORD PTR [edi+4]
  0018d	8b 50 04	 mov	 edx, DWORD PTR [eax+4]

; 983  : 		return (_TREE_ITERATOR(_Newnode));

  00190	8b 44 24 60	 mov	 eax, DWORD PTR ___$ReturnUdt$[esp+88]
  00194	88 5a 28	 mov	 BYTE PTR [edx+40], bl
  00197	5b		 pop	 ebx
  00198	89 08		 mov	 DWORD PTR [eax], ecx

; 984  : 		}

  0019a	8b 4c 24 4c	 mov	 ecx, DWORD PTR __$EHRec$[esp+88]
  0019e	5f		 pop	 edi
  0019f	5e		 pop	 esi
  001a0	64 89 0d 00 00
	00 00		 mov	 DWORD PTR fs:__except_list, ecx
  001a7	83 c4 50	 add	 esp, 80			; 00000050H
  001aa	c2 10 00	 ret	 16			; 00000010H
$L222370:
_TEXT	ENDS
;	COMDAT text$x
text$x	SEGMENT
$L222002:
  00000	8d 4d b0	 lea	 ecx, DWORD PTR $T222001[ebp]
  00003	e9 00 00 00 00	 jmp	 ??1?$basic_string@DU?$char_traits@D@std@@V?$allocator@D@2@@std@@QAE@XZ ; std::basic_string<char,std::char_traits<char>,std::allocator<char> >::~basic_string<char,std::char_traits<char>,std::allocator<char> >
__ehhandler$?_Insert@?$_Tree@V?$_Tset_traits@V?$basic_string@DU?$char_traits@D@std@@V?$allocator@D@2@@std@@U?$less@V?$basic_string@DU?$char_traits@D@std@@V?$allocator@D@2@@std@@@2@V?$allocator@V?$basic_string@DU?$char_traits@D@std@@V?$allocator@D@2@@std@@@2@$0A@@std@@@std@@IAE?AViterator@12@_NPAU_Node@?$_Tree_nod@V?$_Tset_traits@V?$basic_string@DU?$char_traits@D@std@@V?$allocator@D@2@@std@@U?$less@V?$basic_string@DU?$char_traits@D@std@@V?$allocator@D@2@@std@@@2@V?$allocator@V?$basic_string@DU?$char_traits@D@std@@V?$allocator@D@2@@std@@@2@$0A@@std@@@2@ABV?$basic_string@DU?$char_traits@D@std@@V?$allocator@D@2@@2@@Z:
  00008	b8 00 00 00 00	 mov	 eax, OFFSET FLAT:$T222367
  0000d	e9 00 00 00 00	 jmp	 ___CxxFrameHandler
text$x	ENDS
?_Insert@?$_Tree@V?$_Tset_traits@V?$basic_string@DU?$char_traits@D@std@@V?$allocator@D@2@@std@@U?$less@V?$basic_string@DU?$char_traits@D@std@@V?$allocator@D@2@@std@@@2@V?$allocator@V?$basic_string@DU?$char_traits@D@std@@V?$allocator@D@2@@std@@@2@$0A@@std@@@std@@IAE?AViterator@12@_NPAU_Node@?$_Tree_nod@V?$_Tset_traits@V?$basic_string@DU?$char_traits@D@std@@V?$allocator@D@2@@std@@U?$less@V?$basic_string@DU?$char_traits@D@std@@V?$allocator@D@2@@std@@@2@V?$allocator@V?$basic_string@DU?$char_traits@D@std@@V?$allocator@D@2@@std@@@2@$0A@@std@@@2@ABV?$basic_string@DU?$char_traits@D@std@@V?$allocator@D@2@@2@@Z ENDP ; std::_Tree<std::_Tset_traits<std::basic_string<char,std::char_traits<char>,std::allocator<char> >,std::less<std::basic_string<char,std::char_traits<char>,std::allocator<char> > >,std::allocator<std::basic_string<char,std::char_traits<char>,std::allocator<char> > >,0> >::_Insert
; Function compile flags: /Ogty
;	COMDAT ??0length_error@std@@QAE@ABV01@@Z
_TEXT	SEGMENT
___that$ = 8						; size = 4
??0length_error@std@@QAE@ABV01@@Z PROC NEAR		; std::length_error::length_error, COMDAT
; _this$ = ecx
  00000	8b 44 24 04	 mov	 eax, DWORD PTR ___that$[esp-4]
  00004	56		 push	 esi
  00005	50		 push	 eax
  00006	8b f1		 mov	 esi, ecx
  00008	e8 00 00 00 00	 call	 ??0logic_error@std@@QAE@ABV01@@Z
  0000d	c7 06 00 00 00
	00		 mov	 DWORD PTR [esi], OFFSET FLAT:??_7length_error@std@@6B@
  00013	8b c6		 mov	 eax, esi
  00015	5e		 pop	 esi
  00016	c2 04 00	 ret	 4
??0length_error@std@@QAE@ABV01@@Z ENDP			; std::length_error::length_error
_TEXT	ENDS
PUBLIC	?erase@?$_Tree@V?$_Tmap_traits@EHU?$less@E@std@@V?$allocator@U?$pair@$$CBEH@std@@@2@$0A@@std@@@std@@QAE?AViterator@12@V312@0@Z ; std::_Tree<std::_Tmap_traits<unsigned char,int,std::less<unsigned char>,std::allocator<std::pair<unsigned char const ,int> >,0> >::erase
; Function compile flags: /Ogty
;	COMDAT ?erase@?$_Tree@V?$_Tmap_traits@EHU?$less@E@std@@V?$allocator@U?$pair@$$CBEH@std@@@2@$0A@@std@@@std@@QAE?AViterator@12@V312@0@Z
_TEXT	SEGMENT
___$ReturnUdt$ = 8					; size = 4
$T222383 = 12						; size = 4
__First$ = 12						; size = 4
__Last$ = 16						; size = 4
?erase@?$_Tree@V?$_Tmap_traits@EHU?$less@E@std@@V?$allocator@U?$pair@$$CBEH@std@@@2@$0A@@std@@@std@@QAE?AViterator@12@V312@0@Z PROC NEAR ; std::_Tree<std::_Tmap_traits<unsigned char,int,std::less<unsigned char>,std::allocator<std::pair<unsigned char const ,int> >,0> >::erase, COMDAT
; _this$ = ecx

; 750  : 		{	// erase [_First, _Last)

  00000	53		 push	 ebx

; 751  : 		if (_First == begin() && _Last == end())

  00001	8b 5c 24 10	 mov	 ebx, DWORD PTR __Last$[esp]
  00005	56		 push	 esi
  00006	8b 74 24 10	 mov	 esi, DWORD PTR __First$[esp+4]
  0000a	57		 push	 edi
  0000b	8b f9		 mov	 edi, ecx
  0000d	8b 47 04	 mov	 eax, DWORD PTR [edi+4]
  00010	3b 30		 cmp	 esi, DWORD PTR [eax]
  00012	75 38		 jne	 SHORT $L222715
  00014	3b d8		 cmp	 ebx, eax
  00016	75 34		 jne	 SHORT $L222715

; 752  : 			{	// erase all
; 753  : 			clear();

  00018	8b 40 04	 mov	 eax, DWORD PTR [eax+4]
  0001b	50		 push	 eax
  0001c	8b cf		 mov	 ecx, edi
  0001e	e8 00 00 00 00	 call	 ?_Erase@?$_Tree@V?$_Tmap_traits@EHU?$less@E@std@@V?$allocator@U?$pair@$$CBEH@std@@@2@$0A@@std@@@std@@IAEXPAU_Node@?$_Tree_nod@V?$_Tmap_traits@EHU?$less@E@std@@V?$allocator@U?$pair@$$CBEH@std@@@2@$0A@@std@@@2@@Z ; std::_Tree<std::_Tmap_traits<unsigned char,int,std::less<unsigned char>,std::allocator<std::pair<unsigned char const ,int> >,0> >::_Erase
  00023	8b 47 04	 mov	 eax, DWORD PTR [edi+4]
  00026	89 40 04	 mov	 DWORD PTR [eax+4], eax
  00029	8b 47 04	 mov	 eax, DWORD PTR [edi+4]
  0002c	c7 47 08 00 00
	00 00		 mov	 DWORD PTR [edi+8], 0
  00033	89 00		 mov	 DWORD PTR [eax], eax
  00035	8b 47 04	 mov	 eax, DWORD PTR [edi+4]
  00038	89 40 08	 mov	 DWORD PTR [eax+8], eax

; 754  : 			return (begin());

  0003b	8b 4f 04	 mov	 ecx, DWORD PTR [edi+4]
  0003e	8b 11		 mov	 edx, DWORD PTR [ecx]
  00040	8b 44 24 10	 mov	 eax, DWORD PTR ___$ReturnUdt$[esp+8]
  00044	5f		 pop	 edi
  00045	5e		 pop	 esi
  00046	89 10		 mov	 DWORD PTR [eax], edx
  00048	5b		 pop	 ebx

; 761  : 			}
; 762  : 		}

  00049	c2 0c 00	 ret	 12			; 0000000cH
$L222715:

; 755  : 			}
; 756  : 		else
; 757  : 			{	// partial erase, one at a time
; 758  : 			while (_First != _Last)

  0004c	3b f3		 cmp	 esi, ebx
  0004e	74 5b		 je	 SHORT $L214677
$L214676:

; 759  : 				erase(_First++);

  00050	8a 46 15	 mov	 al, BYTE PTR [esi+21]
  00053	84 c0		 test	 al, al
  00055	8b ce		 mov	 ecx, esi
  00057	75 41		 jne	 SHORT $L222707
  00059	8b 46 08	 mov	 eax, DWORD PTR [esi+8]
  0005c	8a 50 15	 mov	 dl, BYTE PTR [eax+21]
  0005f	84 d2		 test	 dl, dl
  00061	75 1a		 jne	 SHORT $L222717
  00063	8b f0		 mov	 esi, eax
  00065	8b 06		 mov	 eax, DWORD PTR [esi]
  00067	8a 50 15	 mov	 dl, BYTE PTR [eax+21]
  0006a	84 d2		 test	 dl, dl
  0006c	75 2c		 jne	 SHORT $L222707
  0006e	8b ff		 npad	 2
$L222695:
  00070	8b f0		 mov	 esi, eax
  00072	8b 06		 mov	 eax, DWORD PTR [esi]
  00074	8a 50 15	 mov	 dl, BYTE PTR [eax+21]
  00077	84 d2		 test	 dl, dl
  00079	74 f5		 je	 SHORT $L222695
  0007b	eb 1d		 jmp	 SHORT $L222707
$L222717:
  0007d	8b 46 04	 mov	 eax, DWORD PTR [esi+4]
  00080	8a 50 15	 mov	 dl, BYTE PTR [eax+21]
  00083	84 d2		 test	 dl, dl
  00085	75 11		 jne	 SHORT $L222710
$L222709:
  00087	3b 70 08	 cmp	 esi, DWORD PTR [eax+8]
  0008a	75 0c		 jne	 SHORT $L222710
  0008c	8b f0		 mov	 esi, eax
  0008e	8b 40 04	 mov	 eax, DWORD PTR [eax+4]
  00091	8a 50 15	 mov	 dl, BYTE PTR [eax+21]
  00094	84 d2		 test	 dl, dl
  00096	74 ef		 je	 SHORT $L222709
$L222710:
  00098	8b f0		 mov	 esi, eax
$L222707:
  0009a	51		 push	 ecx
  0009b	8d 44 24 18	 lea	 eax, DWORD PTR $T222383[esp+12]
  0009f	50		 push	 eax
  000a0	8b cf		 mov	 ecx, edi
  000a2	e8 00 00 00 00	 call	 ?erase@?$_Tree@V?$_Tmap_traits@EHU?$less@E@std@@V?$allocator@U?$pair@$$CBEH@std@@@2@$0A@@std@@@std@@QAE?AViterator@12@V312@@Z ; std::_Tree<std::_Tmap_traits<unsigned char,int,std::less<unsigned char>,std::allocator<std::pair<unsigned char const ,int> >,0> >::erase
  000a7	3b f3		 cmp	 esi, ebx
  000a9	75 a5		 jne	 SHORT $L214676
$L214677:

; 760  : 			return (_First);

  000ab	8b 44 24 10	 mov	 eax, DWORD PTR ___$ReturnUdt$[esp+8]
  000af	5f		 pop	 edi
  000b0	89 30		 mov	 DWORD PTR [eax], esi
  000b2	5e		 pop	 esi
  000b3	5b		 pop	 ebx

; 761  : 			}
; 762  : 		}

  000b4	c2 0c 00	 ret	 12			; 0000000cH
?erase@?$_Tree@V?$_Tmap_traits@EHU?$less@E@std@@V?$allocator@U?$pair@$$CBEH@std@@@2@$0A@@std@@@std@@QAE?AViterator@12@V312@0@Z ENDP ; std::_Tree<std::_Tmap_traits<unsigned char,int,std::less<unsigned char>,std::allocator<std::pair<unsigned char const ,int> >,0> >::erase
_TEXT	ENDS
PUBLIC	?insert@?$_Tree@V?$_Tset_traits@V?$basic_string@DU?$char_traits@D@std@@V?$allocator@D@2@@std@@U?$less@V?$basic_string@DU?$char_traits@D@std@@V?$allocator@D@2@@std@@@2@V?$allocator@V?$basic_string@DU?$char_traits@D@std@@V?$allocator@D@2@@std@@@2@$0A@@std@@@std@@QAE?AU?$pair@Viterator@?$_Tree@V?$_Tset_traits@V?$basic_string@DU?$char_traits@D@std@@V?$allocator@D@2@@std@@U?$less@V?$basic_string@DU?$char_traits@D@std@@V?$allocator@D@2@@std@@@2@V?$allocator@V?$basic_string@DU?$char_traits@D@std@@V?$allocator@D@2@@std@@@2@$0A@@std@@@std@@_N@2@ABV?$basic_string@DU?$char_traits@D@std@@V?$allocator@D@2@@2@@Z ; std::_Tree<std::_Tset_traits<std::basic_string<char,std::char_traits<char>,std::allocator<char> >,std::less<std::basic_string<char,std::char_traits<char>,std::allocator<char> > >,std::allocator<std::basic_string<char,std::char_traits<char>,std::allocator<char> > >,0> >::insert
; Function compile flags: /Ogty
;	COMDAT ?insert@?$_Tree@V?$_Tset_traits@V?$basic_string@DU?$char_traits@D@std@@V?$allocator@D@2@@std@@U?$less@V?$basic_string@DU?$char_traits@D@std@@V?$allocator@D@2@@std@@@2@V?$allocator@V?$basic_string@DU?$char_traits@D@std@@V?$allocator@D@2@@std@@@2@$0A@@std@@@std@@QAE?AU?$pair@Viterator@?$_Tree@V?$_Tset_traits@V?$basic_string@DU?$char_traits@D@std@@V?$allocator@D@2@@std@@U?$less@V?$basic_string@DU?$char_traits@D@std@@V?$allocator@D@2@@std@@@2@V?$allocator@V?$basic_string@DU?$char_traits@D@std@@V?$allocator@D@2@@std@@@2@$0A@@std@@@std@@_N@2@ABV?$basic_string@DU?$char_traits@D@std@@V?$allocator@D@2@@2@@Z
_TEXT	SEGMENT
__Addleft$ = -20					; size = 1
_this$ = -16						; size = 4
tv412 = -12						; size = 4
tv311 = -8						; size = 4
__Wherenode$ = -4					; size = 4
___$ReturnUdt$ = 8					; size = 4
$T222731 = 12						; size = 4
$T222729 = 12						; size = 4
__Where$213667 = 12					; size = 4
__Val$ = 12						; size = 4
?insert@?$_Tree@V?$_Tset_traits@V?$basic_string@DU?$char_traits@D@std@@V?$allocator@D@2@@std@@U?$less@V?$basic_string@DU?$char_traits@D@std@@V?$allocator@D@2@@std@@@2@V?$allocator@V?$basic_string@DU?$char_traits@D@std@@V?$allocator@D@2@@std@@@2@$0A@@std@@@std@@QAE?AU?$pair@Viterator@?$_Tree@V?$_Tset_traits@V?$basic_string@DU?$char_traits@D@std@@V?$allocator@D@2@@std@@U?$less@V?$basic_string@DU?$char_traits@D@std@@V?$allocator@D@2@@std@@@2@V?$allocator@V?$basic_string@DU?$char_traits@D@std@@V?$allocator@D@2@@std@@@2@$0A@@std@@@std@@_N@2@ABV?$basic_string@DU?$char_traits@D@std@@V?$allocator@D@2@@2@@Z PROC NEAR ; std::_Tree<std::_Tset_traits<std::basic_string<char,std::char_traits<char>,std::allocator<char> >,std::less<std::basic_string<char,std::char_traits<char>,std::allocator<char> > >,std::allocator<std::basic_string<char,std::char_traits<char>,std::allocator<char> > >,0> >::insert, COMDAT
; _this$ = ecx

; 477  : 		{	// try to insert node with value _Val

  00000	83 ec 14	 sub	 esp, 20			; 00000014H

; 478  : 		_Nodeptr _Trynode = _Root();

  00003	8b 41 04	 mov	 eax, DWORD PTR [ecx+4]
  00006	53		 push	 ebx
  00007	55		 push	 ebp
  00008	8b 68 04	 mov	 ebp, DWORD PTR [eax+4]

; 479  : 		_Nodeptr _Wherenode = _Myhead;
; 480  : 		bool _Addleft = true;	// add to left of head if tree empty
; 481  : 		while (!_Isnil(_Trynode))

  0000b	8a 55 29	 mov	 dl, BYTE PTR [ebp+41]
  0000e	84 d2		 test	 dl, dl
  00010	56		 push	 esi
  00011	8b d8		 mov	 ebx, eax
  00013	b0 01		 mov	 al, 1
  00015	57		 push	 edi
  00016	8b 7c 24 2c	 mov	 edi, DWORD PTR __Val$[esp+32]
  0001a	89 4c 24 14	 mov	 DWORD PTR _this$[esp+36], ecx
  0001e	88 44 24 10	 mov	 BYTE PTR __Addleft$[esp+36], al
  00022	0f 85 a3 00 00
	00		 jne	 $L213657

; 484  : 			_Addleft = this->comp(this->_Kfn(_Val), _Key(_Trynode));

  00028	8b 47 14	 mov	 eax, DWORD PTR [edi+20]
  0002b	8b c8		 mov	 ecx, eax
  0002d	89 44 24 1c	 mov	 DWORD PTR tv311[esp+36], eax
  00031	89 4c 24 18	 mov	 DWORD PTR tv412[esp+36], ecx
  00035	eb 09		 jmp	 SHORT $L213656
$L223044:

; 482  : 			{	// look for leaf to insert before (_Addleft) or after
; 483  : 			_Wherenode = _Trynode;

  00037	8b 4c 24 18	 mov	 ecx, DWORD PTR tv412[esp+36]
  0003b	eb 03 8d 49 00	 npad	 5
$L213656:

; 484  : 			_Addleft = this->comp(this->_Kfn(_Val), _Key(_Trynode));

  00040	8b 45 24	 mov	 eax, DWORD PTR [ebp+36]
  00043	8b 5d 20	 mov	 ebx, DWORD PTR [ebp+32]
  00046	be 10 00 00 00	 mov	 esi, 16			; 00000010H
  0004b	3b c6		 cmp	 eax, esi
  0004d	89 6c 24 20	 mov	 DWORD PTR __Wherenode$[esp+36], ebp
  00051	72 05		 jb	 SHORT $L222881
  00053	8b 45 10	 mov	 eax, DWORD PTR [ebp+16]
  00056	eb 03		 jmp	 SHORT $L222882
$L222881:
  00058	8d 45 10	 lea	 eax, DWORD PTR [ebp+16]
$L222882:
  0005b	8b 54 24 1c	 mov	 edx, DWORD PTR tv311[esp+36]
  0005f	3b ca		 cmp	 ecx, edx
  00061	73 02		 jae	 SHORT $L222885
  00063	8b d1		 mov	 edx, ecx
$L222885:
  00065	85 d2		 test	 edx, edx
  00067	74 2a		 je	 SHORT $L223042
  00069	3b d3		 cmp	 edx, ebx
  0006b	8b ca		 mov	 ecx, edx
  0006d	72 02		 jb	 SHORT $L222889
  0006f	8b cb		 mov	 ecx, ebx
$L222889:
  00071	39 77 18	 cmp	 DWORD PTR [edi+24], esi
  00074	72 05		 jb	 SHORT $L222898
  00076	8b 77 04	 mov	 esi, DWORD PTR [edi+4]
  00079	eb 03		 jmp	 SHORT $L222899
$L222898:
  0007b	8d 77 04	 lea	 esi, DWORD PTR [edi+4]
$L222899:
  0007e	8b f8		 mov	 edi, eax
  00080	33 c0		 xor	 eax, eax
  00082	f3 a6		 repe cmpsb
  00084	74 05		 je	 SHORT $L223040
  00086	1b c0		 sbb	 eax, eax
  00088	83 d8 ff	 sbb	 eax, -1
$L223040:
  0008b	85 c0		 test	 eax, eax
  0008d	8b 7c 24 2c	 mov	 edi, DWORD PTR __Val$[esp+32]
  00091	75 12		 jne	 SHORT $L223045
$L223042:
  00093	3b d3		 cmp	 edx, ebx
  00095	73 05		 jae	 SHORT $L222892
  00097	83 c8 ff	 or	 eax, -1
  0009a	eb 07		 jmp	 SHORT $L222893
$L222892:
  0009c	33 c0		 xor	 eax, eax
  0009e	3b d3		 cmp	 edx, ebx
  000a0	0f 95 c0	 setne	 al
$L222893:
  000a3	85 c0		 test	 eax, eax
$L223045:
  000a5	0f 9c c0	 setl	 al

; 485  : 			_Trynode = _Addleft ? _Left(_Trynode) : _Right(_Trynode);

  000a8	84 c0		 test	 al, al
  000aa	88 44 24 10	 mov	 BYTE PTR __Addleft$[esp+36], al
  000ae	74 05		 je	 SHORT $L222723
  000b0	8b 6d 00	 mov	 ebp, DWORD PTR [ebp]
  000b3	eb 03		 jmp	 SHORT $L222724
$L222723:
  000b5	8b 6d 08	 mov	 ebp, DWORD PTR [ebp+8]
$L222724:

; 479  : 		_Nodeptr _Wherenode = _Myhead;
; 480  : 		bool _Addleft = true;	// add to left of head if tree empty
; 481  : 		while (!_Isnil(_Trynode))

  000b8	8a 4d 29	 mov	 cl, BYTE PTR [ebp+41]
  000bb	84 c9		 test	 cl, cl
  000bd	0f 84 74 ff ff
	ff		 je	 $L223044
  000c3	8b 5c 24 20	 mov	 ebx, DWORD PTR __Wherenode$[esp+36]
  000c7	8b 4c 24 14	 mov	 ecx, DWORD PTR _this$[esp+36]
$L213657:

; 486  : 			}
; 487  : 
; 488  : 		if (this->_Multi)
; 489  : 			return (_Pairib(_Insert(_Addleft, _Wherenode, _Val), true));
; 490  : 		else
; 491  : 			{	// insert only if unique
; 492  : 			iterator _Where = _TREE_ITERATOR(_Wherenode);
; 493  : 			if (!_Addleft)

  000cb	84 c0		 test	 al, al
  000cd	8b f3		 mov	 esi, ebx
  000cf	89 74 24 2c	 mov	 DWORD PTR __Where$213667[esp+32], esi
  000d3	74 38		 je	 SHORT $L222964

; 494  : 				;	// need to test if insert after is okay
; 495  : 			else if (_Where == begin())

  000d5	8b 51 04	 mov	 edx, DWORD PTR [ecx+4]
  000d8	3b 1a		 cmp	 ebx, DWORD PTR [edx]
  000da	75 24		 jne	 SHORT $L213672

; 496  : 				return (_Pairib(_Insert(true, _Wherenode, _Val), true));

  000dc	57		 push	 edi
  000dd	53		 push	 ebx
  000de	6a 01		 push	 1
  000e0	8d 44 24 38	 lea	 eax, DWORD PTR $T222729[esp+44]
  000e4	50		 push	 eax
  000e5	e8 00 00 00 00	 call	 ?_Insert@?$_Tree@V?$_Tset_traits@V?$basic_string@DU?$char_traits@D@std@@V?$allocator@D@2@@std@@U?$less@V?$basic_string@DU?$char_traits@D@std@@V?$allocator@D@2@@std@@@2@V?$allocator@V?$basic_string@DU?$char_traits@D@std@@V?$allocator@D@2@@std@@@2@$0A@@std@@@std@@IAE?AViterator@12@_NPAU_Node@?$_Tree_nod@V?$_Tset_traits@V?$basic_string@DU?$char_traits@D@std@@V?$allocator@D@2@@std@@U?$less@V?$basic_string@DU?$char_traits@D@std@@V?$allocator@D@2@@std@@@2@V?$allocator@V?$basic_string@DU?$char_traits@D@std@@V?$allocator@D@2@@std@@@2@$0A@@std@@@2@ABV?$basic_string@DU?$char_traits@D@std@@V?$allocator@D@2@@2@@Z ; std::_Tree<std::_Tset_traits<std::basic_string<char,std::char_traits<char>,std::allocator<char> >,std::less<std::basic_string<char,std::char_traits<char>,std::allocator<char> > >,std::allocator<std::basic_string<char,std::char_traits<char>,std::allocator<char> > >,0> >::_Insert
  000ea	8b 08		 mov	 ecx, DWORD PTR [eax]
  000ec	8b 44 24 28	 mov	 eax, DWORD PTR ___$ReturnUdt$[esp+32]
  000f0	5f		 pop	 edi
  000f1	5e		 pop	 esi
  000f2	5d		 pop	 ebp
  000f3	89 08		 mov	 DWORD PTR [eax], ecx
  000f5	c6 40 04 01	 mov	 BYTE PTR [eax+4], 1
  000f9	5b		 pop	 ebx

; 504  : 			}
; 505  : 		}

  000fa	83 c4 14	 add	 esp, 20			; 00000014H
  000fd	c2 08 00	 ret	 8
$L213672:

; 497  : 			else
; 498  : 				--_Where;	// need to test if insert before is okay

  00100	8d 4c 24 2c	 lea	 ecx, DWORD PTR __Where$213667[esp+32]
  00104	e8 00 00 00 00	 call	 ?_Dec@const_iterator@?$_Tree@V?$_Tset_traits@V?$basic_string@DU?$char_traits@D@std@@V?$allocator@D@2@@std@@U?$less@V?$basic_string@DU?$char_traits@D@std@@V?$allocator@D@2@@std@@@2@V?$allocator@V?$basic_string@DU?$char_traits@D@std@@V?$allocator@D@2@@std@@@2@$0A@@std@@@std@@QAEXXZ ; std::_Tree<std::_Tset_traits<std::basic_string<char,std::char_traits<char>,std::allocator<char> >,std::less<std::basic_string<char,std::char_traits<char>,std::allocator<char> > >,std::allocator<std::basic_string<char,std::char_traits<char>,std::allocator<char> > >,0> >::const_iterator::_Dec
  00109	8b 74 24 2c	 mov	 esi, DWORD PTR __Where$213667[esp+32]
$L222964:

; 499  : 
; 500  : 			if (this->comp(_Key(_Where._Mynode()), this->_Kfn(_Val)))

  0010d	83 7f 18 10	 cmp	 DWORD PTR [edi+24], 16	; 00000010H
  00111	8b 57 14	 mov	 edx, DWORD PTR [edi+20]
  00114	8d 4e 0c	 lea	 ecx, DWORD PTR [esi+12]
  00117	72 05		 jb	 SHORT $L223028
  00119	8b 47 04	 mov	 eax, DWORD PTR [edi+4]
  0011c	eb 03		 jmp	 SHORT $L223029
$L223028:
  0011e	8d 47 04	 lea	 eax, DWORD PTR [edi+4]
$L223029:
  00121	52		 push	 edx
  00122	8b 51 14	 mov	 edx, DWORD PTR [ecx+20]
  00125	50		 push	 eax
  00126	52		 push	 edx
  00127	6a 00		 push	 0
  00129	e8 00 00 00 00	 call	 ?compare@?$basic_string@DU?$char_traits@D@std@@V?$allocator@D@2@@std@@QBEHIIPBDI@Z ; std::basic_string<char,std::char_traits<char>,std::allocator<char> >::compare
  0012e	85 c0		 test	 eax, eax
  00130	7d 2b		 jge	 SHORT $L213677

; 501  : 				return (_Pairib(_Insert(_Addleft, _Wherenode, _Val), true));

  00132	8b 44 24 10	 mov	 eax, DWORD PTR __Addleft$[esp+36]
  00136	57		 push	 edi
  00137	53		 push	 ebx
  00138	50		 push	 eax
  00139	8d 4c 24 38	 lea	 ecx, DWORD PTR $T222731[esp+44]
  0013d	51		 push	 ecx
  0013e	8b 4c 24 24	 mov	 ecx, DWORD PTR _this$[esp+52]
  00142	e8 00 00 00 00	 call	 ?_Insert@?$_Tree@V?$_Tset_traits@V?$basic_string@DU?$char_traits@D@std@@V?$allocator@D@2@@std@@U?$less@V?$basic_string@DU?$char_traits@D@std@@V?$allocator@D@2@@std@@@2@V?$allocator@V?$basic_string@DU?$char_traits@D@std@@V?$allocator@D@2@@std@@@2@$0A@@std@@@std@@IAE?AViterator@12@_NPAU_Node@?$_Tree_nod@V?$_Tset_traits@V?$basic_string@DU?$char_traits@D@std@@V?$allocator@D@2@@std@@U?$less@V?$basic_string@DU?$char_traits@D@std@@V?$allocator@D@2@@std@@@2@V?$allocator@V?$basic_string@DU?$char_traits@D@std@@V?$allocator@D@2@@std@@@2@$0A@@std@@@2@ABV?$basic_string@DU?$char_traits@D@std@@V?$allocator@D@2@@2@@Z ; std::_Tree<std::_Tset_traits<std::basic_string<char,std::char_traits<char>,std::allocator<char> >,std::less<std::basic_string<char,std::char_traits<char>,std::allocator<char> > >,std::allocator<std::basic_string<char,std::char_traits<char>,std::allocator<char> > >,0> >::_Insert
  00147	8b 10		 mov	 edx, DWORD PTR [eax]
  00149	8b 44 24 28	 mov	 eax, DWORD PTR ___$ReturnUdt$[esp+32]
  0014d	5f		 pop	 edi
  0014e	5e		 pop	 esi
  0014f	5d		 pop	 ebp
  00150	89 10		 mov	 DWORD PTR [eax], edx
  00152	c6 40 04 01	 mov	 BYTE PTR [eax+4], 1
  00156	5b		 pop	 ebx

; 504  : 			}
; 505  : 		}

  00157	83 c4 14	 add	 esp, 20			; 00000014H
  0015a	c2 08 00	 ret	 8
$L213677:

; 502  : 			else
; 503  : 				return (_Pairib(_Where, false));

  0015d	8b 44 24 28	 mov	 eax, DWORD PTR ___$ReturnUdt$[esp+32]
  00161	5f		 pop	 edi
  00162	89 30		 mov	 DWORD PTR [eax], esi
  00164	5e		 pop	 esi
  00165	5d		 pop	 ebp
  00166	c6 40 04 00	 mov	 BYTE PTR [eax+4], 0
  0016a	5b		 pop	 ebx

; 504  : 			}
; 505  : 		}

  0016b	83 c4 14	 add	 esp, 20			; 00000014H
  0016e	c2 08 00	 ret	 8
?insert@?$_Tree@V?$_Tset_traits@V?$basic_string@DU?$char_traits@D@std@@V?$allocator@D@2@@std@@U?$less@V?$basic_string@DU?$char_traits@D@std@@V?$allocator@D@2@@std@@@2@V?$allocator@V?$basic_string@DU?$char_traits@D@std@@V?$allocator@D@2@@std@@@2@$0A@@std@@@std@@QAE?AU?$pair@Viterator@?$_Tree@V?$_Tset_traits@V?$basic_string@DU?$char_traits@D@std@@V?$allocator@D@2@@std@@U?$less@V?$basic_string@DU?$char_traits@D@std@@V?$allocator@D@2@@std@@@2@V?$allocator@V?$basic_string@DU?$char_traits@D@std@@V?$allocator@D@2@@std@@@2@$0A@@std@@@std@@_N@2@ABV?$basic_string@DU?$char_traits@D@std@@V?$allocator@D@2@@2@@Z ENDP ; std::_Tree<std::_Tset_traits<std::basic_string<char,std::char_traits<char>,std::allocator<char> >,std::less<std::basic_string<char,std::char_traits<char>,std::allocator<char> > >,std::allocator<std::basic_string<char,std::char_traits<char>,std::allocator<char> > >,0> >::insert
_TEXT	ENDS
PUBLIC	?_Tidy@?$_Tree@V?$_Tmap_traits@EHU?$less@E@std@@V?$allocator@U?$pair@$$CBEH@std@@@2@$0A@@std@@@std@@IAEXXZ ; std::_Tree<std::_Tmap_traits<unsigned char,int,std::less<unsigned char>,std::allocator<std::pair<unsigned char const ,int> >,0> >::_Tidy
; Function compile flags: /Ogty
;	COMDAT ?_Tidy@?$_Tree@V?$_Tmap_traits@EHU?$less@E@std@@V?$allocator@U?$pair@$$CBEH@std@@@2@$0A@@std@@@std@@IAEXXZ
_TEXT	SEGMENT
$T223050 = -4						; size = 4
?_Tidy@?$_Tree@V?$_Tmap_traits@EHU?$less@E@std@@V?$allocator@U?$pair@$$CBEH@std@@@2@$0A@@std@@@std@@IAEXXZ PROC NEAR ; std::_Tree<std::_Tmap_traits<unsigned char,int,std::less<unsigned char>,std::allocator<std::pair<unsigned char const ,int> >,0> >::_Tidy, COMDAT
; _this$ = ecx

; 1142 : 		{	// free all storage

  00000	51		 push	 ecx
  00001	56		 push	 esi
  00002	8b f1		 mov	 esi, ecx

; 1143 : 		erase(begin(), end());

  00004	8b 46 04	 mov	 eax, DWORD PTR [esi+4]
  00007	8b 08		 mov	 ecx, DWORD PTR [eax]
  00009	50		 push	 eax
  0000a	51		 push	 ecx
  0000b	8d 44 24 0c	 lea	 eax, DWORD PTR $T223050[esp+16]
  0000f	50		 push	 eax
  00010	8b ce		 mov	 ecx, esi
  00012	e8 00 00 00 00	 call	 ?erase@?$_Tree@V?$_Tmap_traits@EHU?$less@E@std@@V?$allocator@U?$pair@$$CBEH@std@@@2@$0A@@std@@@std@@QAE?AViterator@12@V312@0@Z ; std::_Tree<std::_Tmap_traits<unsigned char,int,std::less<unsigned char>,std::allocator<std::pair<unsigned char const ,int> >,0> >::erase

; 1144 : 		this->_Alptr.destroy(&_Left(_Myhead));
; 1145 : 		this->_Alptr.destroy(&_Parent(_Myhead));
; 1146 : 		this->_Alptr.destroy(&_Right(_Myhead));
; 1147 : 		this->_Alnod.deallocate(_Myhead, 1);

  00017	8b 4e 04	 mov	 ecx, DWORD PTR [esi+4]
  0001a	51		 push	 ecx
  0001b	e8 00 00 00 00	 call	 ??3@YAXPAX@Z		; operator delete
  00020	83 c4 04	 add	 esp, 4

; 1148 : 		_Myhead = 0, _Mysize = 0;

  00023	33 c0		 xor	 eax, eax
  00025	89 46 04	 mov	 DWORD PTR [esi+4], eax
  00028	89 46 08	 mov	 DWORD PTR [esi+8], eax
  0002b	5e		 pop	 esi

; 1149 : 		}

  0002c	59		 pop	 ecx
  0002d	c3		 ret	 0
?_Tidy@?$_Tree@V?$_Tmap_traits@EHU?$less@E@std@@V?$allocator@U?$pair@$$CBEH@std@@@2@$0A@@std@@@std@@IAEXXZ ENDP ; std::_Tree<std::_Tmap_traits<unsigned char,int,std::less<unsigned char>,std::allocator<std::pair<unsigned char const ,int> >,0> >::_Tidy
_TEXT	ENDS
PUBLIC	?LoadRemoveItem@@YAHPBD@Z			; LoadRemoveItem
;	COMDAT xdata$x
; File c:\program files\microsoft visual studio .net 2003\vc7\include\iosfwd
xdata$x	SEGMENT
$T223308 DD	0ffffffffH
	DD	FLAT:$L223116
	DD	00H
	DD	FLAT:$L223117
$T223303 DD	019930520H
	DD	02H
	DD	FLAT:$T223308
	DD	2 DUP(00H)
	DD	2 DUP(00H)
; Function compile flags: /Ogty
; File c:\documents and settings\test\mes documents\source\virtuos_v17\build\program\databaseserver\databaseserver.cpp
xdata$x	ENDS
;	COMDAT ?LoadRemoveItem@@YAHPBD@Z
_TEXT	SEGMENT
$T223113 = -2164					; size = 8
_strbuf$213500 = -2156					; size = 28
_s$ = -2128						; size = 2112
__$ArrayPad$ = -16					; size = 4
__$EHRec$ = -12						; size = 12
__$ReturnAddr$ = 4					; size = 4
_lpszFileName$ = 8					; size = 4
?LoadRemoveItem@@YAHPBD@Z PROC NEAR			; LoadRemoveItem, COMDAT

; 840  : {

  00000	6a ff		 push	 -1
  00002	68 00 00 00 00	 push	 __ehhandler$?LoadRemoveItem@@YAHPBD@Z
  00007	64 a1 00 00 00
	00		 mov	 eax, DWORD PTR fs:__except_list
  0000d	50		 push	 eax
  0000e	64 89 25 00 00
	00 00		 mov	 DWORD PTR fs:__except_list, esp
  00015	81 ec 68 08 00
	00		 sub	 esp, 2152		; 00000868H
  0001b	a1 00 00 00 00	 mov	 eax, DWORD PTR ___security_cookie
  00020	33 c4		 xor	 eax, esp
  00022	53		 push	 ebx
  00023	56		 push	 esi
  00024	8b b4 24 80 08
	00 00		 mov	 esi, DWORD PTR _lpszFileName$[esp+2168]

; 841  : 	CScanner s;

  0002b	33 db		 xor	 ebx, ebx
  0002d	53		 push	 ebx
  0002e	8d 4c 24 30	 lea	 ecx, DWORD PTR _s$[esp+2176]
  00032	89 84 24 70 08
	00 00		 mov	 DWORD PTR __$ArrayPad$[esp+2176], eax
  00039	e8 00 00 00 00	 call	 ??0CScanner@@QAE@H@Z	; CScanner::CScanner

; 842  : 	
; 843  : 	if( s.Load( lpszFileName ) )

  0003e	6a 01		 push	 1
  00040	56		 push	 esi
  00041	8d 4c 24 34	 lea	 ecx, DWORD PTR _s$[esp+2180]
  00045	89 9c 24 80 08
	00 00		 mov	 DWORD PTR __$EHRec$[esp+2188], ebx
  0004c	e8 00 00 00 00	 call	 ?Load@CScanner@@QAEHPBDH@Z ; CScanner::Load
  00051	85 c0		 test	 eax, eax

; 844  : 	{
; 845  : 		s.GetToken();

  00053	8d 4c 24 2c	 lea	 ecx, DWORD PTR _s$[esp+2172]
  00057	0f 84 c4 00 00
	00		 je	 $L213496
  0005d	53		 push	 ebx
  0005e	e8 00 00 00 00	 call	 ?GetToken@CScanner@@UAEHH@Z ; CScanner::GetToken

; 846  : 		while( s.tok != FINISHED )

  00063	83 bc 24 58 08
	00 00 15	 cmp	 DWORD PTR _s$[esp+4264], 21 ; 00000015H
  0006b	0f 84 95 00 00
	00		 je	 $L213499
  00071	57		 push	 edi
  00072	bf 0f 00 00 00	 mov	 edi, 15			; 0000000fH
  00077	eb 07 8d a4 24
	00 00 00 00	 npad	 9
$L213498:

; 847  : 		{
; 848  : 			string strbuf = s.Token;

  00080	8b 54 24 50	 mov	 edx, DWORD PTR _s$[esp+2208]
  00084	8b c2		 mov	 eax, edx
  00086	89 7c 24 2c	 mov	 DWORD PTR _strbuf$213500[esp+2200], edi
  0008a	89 5c 24 28	 mov	 DWORD PTR _strbuf$213500[esp+2196], ebx
  0008e	88 5c 24 18	 mov	 BYTE PTR _strbuf$213500[esp+2180], bl
  00092	8d 70 01	 lea	 esi, DWORD PTR [eax+1]
$L223305:
  00095	8a 08		 mov	 cl, BYTE PTR [eax]
  00097	40		 inc	 eax
  00098	3a cb		 cmp	 cl, bl
  0009a	75 f9		 jne	 SHORT $L223305
  0009c	2b c6		 sub	 eax, esi
  0009e	50		 push	 eax
  0009f	52		 push	 edx
  000a0	8d 4c 24 1c	 lea	 ecx, DWORD PTR _strbuf$213500[esp+2184]
  000a4	e8 00 00 00 00	 call	 ?assign@?$basic_string@DU?$char_traits@D@std@@V?$allocator@D@2@@std@@QAEAAV12@PBDI@Z ; std::basic_string<char,std::char_traits<char>,std::allocator<char> >::assign

; 849  : 			g_DbManager.m_RemoveItem_List.insert( strbuf );

  000a9	8d 44 24 14	 lea	 eax, DWORD PTR _strbuf$213500[esp+2176]
  000ad	50		 push	 eax
  000ae	8d 4c 24 10	 lea	 ecx, DWORD PTR $T223113[esp+2180]
  000b2	51		 push	 ecx
  000b3	8b 0d 00 00 00
	00		 mov	 ecx, DWORD PTR ?g_DbManager@@3AAVCDbManager@@A ; g_DbManager
  000b9	c6 84 24 84 08
	00 00 01	 mov	 BYTE PTR __$EHRec$[esp+2192], 1
  000c1	e8 00 00 00 00	 call	 ?insert@?$_Tree@V?$_Tset_traits@V?$basic_string@DU?$char_traits@D@std@@V?$allocator@D@2@@std@@U?$less@V?$basic_string@DU?$char_traits@D@std@@V?$allocator@D@2@@std@@@2@V?$allocator@V?$basic_string@DU?$char_traits@D@std@@V?$allocator@D@2@@std@@@2@$0A@@std@@@std@@QAE?AU?$pair@Viterator@?$_Tree@V?$_Tset_traits@V?$basic_string@DU?$char_traits@D@std@@V?$allocator@D@2@@std@@U?$less@V?$basic_string@DU?$char_traits@D@std@@V?$allocator@D@2@@std@@@2@V?$allocator@V?$basic_string@DU?$char_traits@D@std@@V?$allocator@D@2@@std@@@2@$0A@@std@@@std@@_N@2@ABV?$basic_string@DU?$char_traits@D@std@@V?$allocator@D@2@@2@@Z ; std::_Tree<std::_Tset_traits<std::basic_string<char,std::char_traits<char>,std::allocator<char> >,std::less<std::basic_string<char,std::char_traits<char>,std::allocator<char> > >,std::allocator<std::basic_string<char,std::char_traits<char>,std::allocator<char> > >,0> >::insert

; 850  : 			s.GetToken();

  000c6	53		 push	 ebx
  000c7	8d 4c 24 34	 lea	 ecx, DWORD PTR _s$[esp+2180]
  000cb	e8 00 00 00 00	 call	 ?GetToken@CScanner@@UAEHH@Z ; CScanner::GetToken

; 851  : 		}

  000d0	83 7c 24 2c 10	 cmp	 DWORD PTR _strbuf$213500[esp+2200], 16 ; 00000010H
  000d5	88 9c 24 7c 08
	00 00		 mov	 BYTE PTR __$EHRec$[esp+2184], bl
  000dc	72 0d		 jb	 SHORT $L223281
  000de	8b 54 24 18	 mov	 edx, DWORD PTR _strbuf$213500[esp+2180]
  000e2	52		 push	 edx
  000e3	e8 00 00 00 00	 call	 ??3@YAXPAX@Z		; operator delete
  000e8	83 c4 04	 add	 esp, 4
$L223281:
  000eb	83 bc 24 5c 08
	00 00 15	 cmp	 DWORD PTR _s$[esp+4268], 21 ; 00000015H
  000f3	89 7c 24 2c	 mov	 DWORD PTR _strbuf$213500[esp+2200], edi
  000f7	89 5c 24 28	 mov	 DWORD PTR _strbuf$213500[esp+2196], ebx
  000fb	88 5c 24 18	 mov	 BYTE PTR _strbuf$213500[esp+2180], bl
  000ff	0f 85 7b ff ff
	ff		 jne	 $L213498
  00105	5f		 pop	 edi
$L213499:

; 852  : 		return TRUE;

  00106	8d 4c 24 2c	 lea	 ecx, DWORD PTR _s$[esp+2172]
  0010a	c7 84 24 78 08
	00 00 ff ff ff
	ff		 mov	 DWORD PTR __$EHRec$[esp+2180], -1
  00115	e8 00 00 00 00	 call	 ??1CScanner@@UAE@XZ	; CScanner::~CScanner
  0011a	b8 01 00 00 00	 mov	 eax, 1
  0011f	eb 12		 jmp	 SHORT $L213494
$L213496:

; 853  : 	}
; 854  : 	return FALSE;

  00121	c7 84 24 78 08
	00 00 ff ff ff
	ff		 mov	 DWORD PTR __$EHRec$[esp+2180], -1
  0012c	e8 00 00 00 00	 call	 ??1CScanner@@UAE@XZ	; CScanner::~CScanner
  00131	33 c0		 xor	 eax, eax
$L213494:

; 855  : }

  00133	8b 8c 24 70 08
	00 00		 mov	 ecx, DWORD PTR __$EHRec$[esp+2172]
  0013a	5e		 pop	 esi
  0013b	64 89 0d 00 00
	00 00		 mov	 DWORD PTR fs:__except_list, ecx
  00142	8b 8c 24 68 08
	00 00		 mov	 ecx, DWORD PTR __$ArrayPad$[esp+2168]
  00149	5b		 pop	 ebx
  0014a	33 cc		 xor	 ecx, esp
  0014c	e8 00 00 00 00	 call	 @__security_check_cookie@4
  00151	81 c4 74 08 00
	00		 add	 esp, 2164		; 00000874H
  00157	c3		 ret	 0
_TEXT	ENDS
;	COMDAT text$x
text$x	SEGMENT
$L223116:
  00000	8d 8d b0 f7 ff
	ff		 lea	 ecx, DWORD PTR _s$[ebp]
  00006	e9 00 00 00 00	 jmp	 ??1CScanner@@UAE@XZ	; CScanner::~CScanner
$L223117:
  0000b	8d 8d 94 f7 ff
	ff		 lea	 ecx, DWORD PTR _strbuf$213500[ebp]
  00011	e9 00 00 00 00	 jmp	 ??1?$basic_string@DU?$char_traits@D@std@@V?$allocator@D@2@@std@@QAE@XZ ; std::basic_string<char,std::char_traits<char>,std::allocator<char> >::~basic_string<char,std::char_traits<char>,std::allocator<char> >
__ehhandler$?LoadRemoveItem@@YAHPBD@Z:
  00016	b8 00 00 00 00	 mov	 eax, OFFSET FLAT:$T223303
  0001b	e9 00 00 00 00	 jmp	 ___CxxFrameHandler
text$x	ENDS
?LoadRemoveItem@@YAHPBD@Z ENDP				; LoadRemoveItem
PUBLIC	??0?$_Tree@V?$_Tmap_traits@EHU?$less@E@std@@V?$allocator@U?$pair@$$CBEH@std@@@2@$0A@@std@@@std@@QAE@ABV01@@Z ; std::_Tree<std::_Tmap_traits<unsigned char,int,std::less<unsigned char>,std::allocator<std::pair<unsigned char const ,int> >,0> >::_Tree<std::_Tmap_traits<unsigned char,int,std::less<unsigned char>,std::allocator<std::pair<unsigned char const ,int> >,0> >
;	COMDAT xdata$x
; File c:\program files\microsoft visual studio .net 2003\vc7\include\xtree
xdata$x	SEGMENT
$T223445 DD	0ffffffffH
	DD	00H
	DD	0ffffffffH
	DD	00H
$T223447 DD	00H
	DD	00H
	DD	00H
	DD	FLAT:$L223316
$T223446 DD	00H
	DD	00H
	DD	01H
	DD	01H
	DD	FLAT:$T223447
$T223442 DD	019930520H
	DD	02H
	DD	FLAT:$T223445
	DD	01H
	DD	FLAT:$T223446
	DD	2 DUP(00H)
; Function compile flags: /Ogty
xdata$x	ENDS
;	COMDAT ??0?$_Tree@V?$_Tmap_traits@EHU?$less@E@std@@V?$allocator@U?$pair@$$CBEH@std@@@2@$0A@@std@@@std@@QAE@ABV01@@Z
_TEXT	SEGMENT
_this$ = -20						; size = 4
__$EHRec$ = -16						; size = 16
__Right$ = 8						; size = 4
??0?$_Tree@V?$_Tmap_traits@EHU?$less@E@std@@V?$allocator@U?$pair@$$CBEH@std@@@2@$0A@@std@@@std@@QAE@ABV01@@Z PROC NEAR ; std::_Tree<std::_Tmap_traits<unsigned char,int,std::less<unsigned char>,std::allocator<std::pair<unsigned char const ,int> >,0> >::_Tree<std::_Tmap_traits<unsigned char,int,std::less<unsigned char>,std::allocator<std::pair<unsigned char const ,int> >,0> >, COMDAT
; _this$ = ecx

; 380  : 		{	// construct tree by copying _Right

  00000	55		 push	 ebp
  00001	8b ec		 mov	 ebp, esp
  00003	6a ff		 push	 -1
  00005	68 00 00 00 00	 push	 __ehhandler$??0?$_Tree@V?$_Tmap_traits@EHU?$less@E@std@@V?$allocator@U?$pair@$$CBEH@std@@@2@$0A@@std@@@std@@QAE@ABV01@@Z
  0000a	64 a1 00 00 00
	00		 mov	 eax, DWORD PTR fs:__except_list
  00010	50		 push	 eax
  00011	64 89 25 00 00
	00 00		 mov	 DWORD PTR fs:__except_list, esp
  00018	83 ec 08	 sub	 esp, 8
  0001b	53		 push	 ebx
  0001c	56		 push	 esi
  0001d	57		 push	 edi
  0001e	8b f1		 mov	 esi, ecx
  00020	89 65 f0	 mov	 DWORD PTR __$EHRec$[ebp], esp
  00023	89 75 ec	 mov	 DWORD PTR _this$[ebp], esi

; 381  : 		_Init();

  00026	e8 00 00 00 00	 call	 ?_Buynode@?$_Tree@V?$_Tmap_traits@EHU?$less@E@std@@V?$allocator@U?$pair@$$CBEH@std@@@2@$0A@@std@@@std@@IAEPAU_Node@?$_Tree_nod@V?$_Tmap_traits@EHU?$less@E@std@@V?$allocator@U?$pair@$$CBEH@std@@@2@$0A@@std@@@2@XZ ; std::_Tree<std::_Tmap_traits<unsigned char,int,std::less<unsigned char>,std::allocator<std::pair<unsigned char const ,int> >,0> >::_Buynode
  0002b	89 46 04	 mov	 DWORD PTR [esi+4], eax
  0002e	c6 40 15 01	 mov	 BYTE PTR [eax+21], 1
  00032	8b 46 04	 mov	 eax, DWORD PTR [esi+4]
  00035	89 40 04	 mov	 DWORD PTR [eax+4], eax
  00038	8b 46 04	 mov	 eax, DWORD PTR [esi+4]
  0003b	89 00		 mov	 DWORD PTR [eax], eax
  0003d	8b 46 04	 mov	 eax, DWORD PTR [esi+4]
  00040	89 40 08	 mov	 DWORD PTR [eax+8], eax

; 382  : 		_TRY_BEGIN
; 383  : 		_Copy(_Right);

  00043	8b 45 08	 mov	 eax, DWORD PTR __Right$[ebp]
  00046	50		 push	 eax
  00047	8b ce		 mov	 ecx, esi
  00049	c7 46 08 00 00
	00 00		 mov	 DWORD PTR [esi+8], 0
  00050	c7 45 fc 00 00
	00 00		 mov	 DWORD PTR __$EHRec$[ebp+12], 0
  00057	e8 00 00 00 00	 call	 ?_Copy@?$_Tree@V?$_Tmap_traits@EHU?$less@E@std@@V?$allocator@U?$pair@$$CBEH@std@@@2@$0A@@std@@@std@@IAEXABV12@@Z ; std::_Tree<std::_Tmap_traits<unsigned char,int,std::less<unsigned char>,std::allocator<std::pair<unsigned char const ,int> >,0> >::_Copy

; 387  : 		_CATCH_END
; 388  : 		}

  0005c	8b 4d f4	 mov	 ecx, DWORD PTR __$EHRec$[ebp+4]
  0005f	5f		 pop	 edi
  00060	8b c6		 mov	 eax, esi
  00062	5e		 pop	 esi
  00063	64 89 0d 00 00
	00 00		 mov	 DWORD PTR fs:__except_list, ecx
  0006a	5b		 pop	 ebx
  0006b	8b e5		 mov	 esp, ebp
  0006d	5d		 pop	 ebp
  0006e	c2 04 00	 ret	 4
$L223316:

; 384  : 		_CATCH_ALL
; 385  : 		_Tidy();

  00071	8b 4d ec	 mov	 ecx, DWORD PTR _this$[ebp]
  00074	e8 00 00 00 00	 call	 ?_Tidy@?$_Tree@V?$_Tmap_traits@EHU?$less@E@std@@V?$allocator@U?$pair@$$CBEH@std@@@2@$0A@@std@@@std@@IAEXXZ ; std::_Tree<std::_Tmap_traits<unsigned char,int,std::less<unsigned char>,std::allocator<std::pair<unsigned char const ,int> >,0> >::_Tidy

; 386  : 		_RERAISE;

  00079	6a 00		 push	 0
  0007b	6a 00		 push	 0
  0007d	e8 00 00 00 00	 call	 __CxxThrowException@8
$L223444:
  00082	cc		 int	 3
_TEXT	ENDS
;	COMDAT text$x
text$x	SEGMENT
__ehhandler$??0?$_Tree@V?$_Tmap_traits@EHU?$less@E@std@@V?$allocator@U?$pair@$$CBEH@std@@@2@$0A@@std@@@std@@QAE@ABV01@@Z:
  00000	b8 00 00 00 00	 mov	 eax, OFFSET FLAT:$T223442
  00005	e9 00 00 00 00	 jmp	 ___CxxFrameHandler
text$x	ENDS
??0?$_Tree@V?$_Tmap_traits@EHU?$less@E@std@@V?$allocator@U?$pair@$$CBEH@std@@@2@$0A@@std@@@std@@QAE@ABV01@@Z ENDP ; std::_Tree<std::_Tmap_traits<unsigned char,int,std::less<unsigned char>,std::allocator<std::pair<unsigned char const ,int> >,0> >::_Tree<std::_Tmap_traits<unsigned char,int,std::less<unsigned char>,std::allocator<std::pair<unsigned char const ,int> >,0> >
PUBLIC	??1?$_Tree@V?$_Tmap_traits@EHU?$less@E@std@@V?$allocator@U?$pair@$$CBEH@std@@@2@$0A@@std@@@std@@QAE@XZ ; std::_Tree<std::_Tmap_traits<unsigned char,int,std::less<unsigned char>,std::allocator<std::pair<unsigned char const ,int> >,0> >::~_Tree<std::_Tmap_traits<unsigned char,int,std::less<unsigned char>,std::allocator<std::pair<unsigned char const ,int> >,0> >
; Function compile flags: /Ogty
;	COMDAT ??1?$_Tree@V?$_Tmap_traits@EHU?$less@E@std@@V?$allocator@U?$pair@$$CBEH@std@@@2@$0A@@std@@@std@@QAE@XZ
_TEXT	SEGMENT
$T223518 = -4						; size = 4
??1?$_Tree@V?$_Tmap_traits@EHU?$less@E@std@@V?$allocator@U?$pair@$$CBEH@std@@@2@$0A@@std@@@std@@QAE@XZ PROC NEAR ; std::_Tree<std::_Tmap_traits<unsigned char,int,std::less<unsigned char>,std::allocator<std::pair<unsigned char const ,int> >,0> >::~_Tree<std::_Tmap_traits<unsigned char,int,std::less<unsigned char>,std::allocator<std::pair<unsigned char const ,int> >,0> >, COMDAT
; _this$ = ecx

; 391  : 		{	// destroy tree

  00000	51		 push	 ecx
  00001	56		 push	 esi
  00002	8b f1		 mov	 esi, ecx

; 392  : 		_Tidy();

  00004	8b 46 04	 mov	 eax, DWORD PTR [esi+4]
  00007	8b 08		 mov	 ecx, DWORD PTR [eax]
  00009	50		 push	 eax
  0000a	51		 push	 ecx
  0000b	8d 44 24 0c	 lea	 eax, DWORD PTR $T223518[esp+16]
  0000f	50		 push	 eax
  00010	8b ce		 mov	 ecx, esi
  00012	e8 00 00 00 00	 call	 ?erase@?$_Tree@V?$_Tmap_traits@EHU?$less@E@std@@V?$allocator@U?$pair@$$CBEH@std@@@2@$0A@@std@@@std@@QAE?AViterator@12@V312@0@Z ; std::_Tree<std::_Tmap_traits<unsigned char,int,std::less<unsigned char>,std::allocator<std::pair<unsigned char const ,int> >,0> >::erase
  00017	8b 4e 04	 mov	 ecx, DWORD PTR [esi+4]
  0001a	51		 push	 ecx
  0001b	e8 00 00 00 00	 call	 ??3@YAXPAX@Z		; operator delete
  00020	83 c4 04	 add	 esp, 4
  00023	33 c0		 xor	 eax, eax
  00025	89 46 04	 mov	 DWORD PTR [esi+4], eax
  00028	89 46 08	 mov	 DWORD PTR [esi+8], eax
  0002b	5e		 pop	 esi

; 393  : 		}

  0002c	59		 pop	 ecx
  0002d	c3		 ret	 0
??1?$_Tree@V?$_Tmap_traits@EHU?$less@E@std@@V?$allocator@U?$pair@$$CBEH@std@@@2@$0A@@std@@@std@@QAE@XZ ENDP ; std::_Tree<std::_Tmap_traits<unsigned char,int,std::less<unsigned char>,std::allocator<std::pair<unsigned char const ,int> >,0> >::~_Tree<std::_Tmap_traits<unsigned char,int,std::less<unsigned char>,std::allocator<std::pair<unsigned char const ,int> >,0> >
_TEXT	ENDS
PUBLIC	?InitInstance@@YAHPAUHINSTANCE__@@H@Z		; InitInstance
PUBLIC	??_C@_0BD@BGDLFGME@FAIL?5read?5ini?5?9?5?$CFs?$AA@ ; `string'
PUBLIC	??_C@_0BJ@POMECNAN@EnableConnectionPooling?6?$AA@ ; `string'
PUBLIC	??_C@_0BH@DEJALFOO@LoadRemoveItemList?4ini?$AA@	; `string'
PUBLIC	??_C@_0BN@LPGCIDJ@LoadRemoveItemList?4ini?5FAILE?$AA@ ; `string'
PUBLIC	??_C@_0BC@NIICKMCD@ConvItem?5Success?$CB?$AA@	; `string'
PUBLIC	??_C@_0O@KGDKAKJB@propEvent?4inc?$AA@		; `string'
PUBLIC	??_C@_0O@OJGHAJEB@propevent?4inc?$AA@		; `string'
PUBLIC	??_C@_07NPJJGNLP@SquireD?$AA@			; `string'
PUBLIC	??_C@_0BC@FBAMFINP@?$CFY?1?$CFm?1?$CFd?5?$CFH?3?$CFM?3?$CFS?$AA@ ; `string'
PUBLIC	??_C@_02DKCKIIND@?$CFs?$AA@			; `string'
EXTRN	?IsConvMode@CProject@@QAEHK@Z:NEAR		; CProject::IsConvMode
EXTRN	?GetInstance@CCampusHelper@@SAPAV1@XZ:NEAR	; CCampusHelper::GetInstance
EXTRN	__imp__CreateWindowExA@48:NEAR
EXTRN	?GetInstance@CQuizDBMng@@SAPAV1@XZ:NEAR		; CQuizDBMng::GetInstance
EXTRN	?InitQuizEventId@CQuizDBMng@@QAEHXZ:NEAR	; CQuizDBMng::InitQuizEventId
EXTRN	__imp__ShowWindow@8:NEAR
EXTRN	__imp__SetWindowPos@28:NEAR
EXTRN	?EnableConnectionPooling@CQuery@@SAHXZ:NEAR	; CQuery::EnableConnectionPooling
EXTRN	?AddLine@CMyTrace@@QAEXD@Z:NEAR			; CMyTrace::AddLine
EXTRN	?GetInstance@CGuildHouseDBMng@@SAPAV1@XZ:NEAR	; CGuildHouseDBMng::GetInstance
EXTRN	_sprintf:NEAR
EXTRN	?ConvItemStart@CDbManager@@QAEHXZ:NEAR		; CDbManager::ConvItemStart
EXTRN	?Create@CDbControllerTimer@@QAEXXZ:NEAR		; CDbControllerTimer::Create
EXTRN	?LoadScript@CEventGeneric@@QAEHPBD@Z:NEAR	; CEventGeneric::LoadScript
EXTRN	?GetInstance@CEventGeneric@@SAPAV1@XZ:NEAR	; CEventGeneric::GetInstance
EXTRN	__imp__UpdateWindow@4:NEAR
EXTRN	?xSRand@@YAXK@Z:NEAR				; xSRand
EXTRN	?SendAddIdofServer@CDPAccountClient@@QAEXK@Z:NEAR ; CDPAccountClient::SendAddIdofServer
EXTRN	?LoadPlayerData@CDbManager@@QAEHXZ:NEAR		; CDbManager::LoadPlayerData
EXTRN	?GetPartyName@CDbManager@@QAEHXZ:NEAR		; CDbManager::GetPartyName
EXTRN	?OpenGuildCombat@CDbManager@@QAEHXZ:NEAR	; CDbManager::OpenGuildCombat
EXTRN	?LoadPost@CDbManager@@QAEHXZ:NEAR		; CDbManager::LoadPost
EXTRN	?InitializeNetLib@@YAHXZ:NEAR			; InitializeNetLib
EXTRN	?hMainWnd@@3PAUHWND__@@A:DWORD			; hMainWnd
EXTRN	?hInst@@3PAUHINSTANCE__@@A:DWORD		; hInst
EXTRN	?AfxMessageBox@@YGHPBDII@Z:NEAR			; AfxMessageBox
EXTRN	__imp__SetTimer@16:NEAR
EXTRN	?CreateDbWorkers@CDbManager@@QAEHXZ:NEAR	; CDbManager::CreateDbWorkers
EXTRN	__imp__timeGetTime@0:NEAR
;	COMDAT xdata$x
; File c:\documents and settings\test\mes documents\source\virtuos_v17\build\program\databaseserver\campusdbctrl.h
xdata$x	SEGMENT
$T223564 DD	0ffffffffH
	DD	FLAT:$L223547
$T223558 DD	019930520H
	DD	01H
	DD	FLAT:$T223564
	DD	2 DUP(00H)
	DD	2 DUP(00H)
xdata$x	ENDS
;	COMDAT ??_C@_0BD@BGDLFGME@FAIL?5read?5ini?5?9?5?$CFs?$AA@
CONST	SEGMENT
??_C@_0BD@BGDLFGME@FAIL?5read?5ini?5?9?5?$CFs?$AA@ DB 'FAIL read ini - %s'
	DB	00H						; `string'
CONST	ENDS
;	COMDAT ??_C@_0BJ@POMECNAN@EnableConnectionPooling?6?$AA@
CONST	SEGMENT
??_C@_0BJ@POMECNAN@EnableConnectionPooling?6?$AA@ DB 'EnableConnectionPoo'
	DB	'ling', 0aH, 00H				; `string'
CONST	ENDS
;	COMDAT ??_C@_0BH@DEJALFOO@LoadRemoveItemList?4ini?$AA@
CONST	SEGMENT
??_C@_0BH@DEJALFOO@LoadRemoveItemList?4ini?$AA@ DB 'LoadRemoveItemList.in'
	DB	'i', 00H					; `string'
CONST	ENDS
;	COMDAT ??_C@_0BN@LPGCIDJ@LoadRemoveItemList?4ini?5FAILE?$AA@
CONST	SEGMENT
??_C@_0BN@LPGCIDJ@LoadRemoveItemList?4ini?5FAILE?$AA@ DB 'LoadRemoveItemL'
	DB	'ist.ini FAILE', 00H				; `string'
CONST	ENDS
;	COMDAT ??_C@_0BC@NIICKMCD@ConvItem?5Success?$CB?$AA@
CONST	SEGMENT
??_C@_0BC@NIICKMCD@ConvItem?5Success?$CB?$AA@ DB 'ConvItem Success!', 00H ; `string'
CONST	ENDS
;	COMDAT ??_C@_0O@KGDKAKJB@propEvent?4inc?$AA@
CONST	SEGMENT
??_C@_0O@KGDKAKJB@propEvent?4inc?$AA@ DB 'propEvent.inc', 00H ; `string'
CONST	ENDS
;	COMDAT ??_C@_0O@OJGHAJEB@propevent?4inc?$AA@
CONST	SEGMENT
??_C@_0O@OJGHAJEB@propevent?4inc?$AA@ DB 'propevent.inc', 00H ; `string'
CONST	ENDS
;	COMDAT ??_C@_07NPJJGNLP@SquireD?$AA@
CONST	SEGMENT
??_C@_07NPJJGNLP@SquireD?$AA@ DB 'SquireD', 00H		; `string'
CONST	ENDS
;	COMDAT ??_C@_0BC@FBAMFINP@?$CFY?1?$CFm?1?$CFd?5?$CFH?3?$CFM?3?$CFS?$AA@
CONST	SEGMENT
??_C@_0BC@FBAMFINP@?$CFY?1?$CFm?1?$CFd?5?$CFH?3?$CFM?3?$CFS?$AA@ DB '%Y/%'
	DB	'm/%d %H:%M:%S', 00H				; `string'
CONST	ENDS
;	COMDAT ??_C@_02DKCKIIND@?$CFs?$AA@
CONST	SEGMENT
??_C@_02DKCKIIND@?$CFs?$AA@ DB '%s', 00H		; `string'
; Function compile flags: /Ogty
; File c:\documents and settings\test\mes documents\source\virtuos_v17\build\program\databaseserver\databaseserver.cpp
CONST	ENDS
;	COMDAT ?InitInstance@@YAHPAUHINSTANCE__@@H@Z
_TEXT	SEGMENT
$T223546 = -284						; size = 4
_time$ = -280						; size = 8
_szMsg$213209 = -272					; size = 256
__$ArrayPad$ = -16					; size = 4
__$EHRec$ = -12						; size = 12
__$ReturnAddr$ = 4					; size = 4
_hInstance$ = 8						; size = 4
_nCmdShow$ = 12						; size = 4
?InitInstance@@YAHPAUHINSTANCE__@@H@Z PROC NEAR		; InitInstance, COMDAT

; 204  : {

  00000	6a ff		 push	 -1
  00002	68 00 00 00 00	 push	 __ehhandler$?InitInstance@@YAHPAUHINSTANCE__@@H@Z
  00007	64 a1 00 00 00
	00		 mov	 eax, DWORD PTR fs:__except_list
  0000d	50		 push	 eax
  0000e	64 89 25 00 00
	00 00		 mov	 DWORD PTR fs:__except_list, esp
  00015	81 ec 10 01 00
	00		 sub	 esp, 272		; 00000110H
  0001b	a1 00 00 00 00	 mov	 eax, DWORD PTR ___security_cookie
  00020	33 c4		 xor	 eax, esp
  00022	56		 push	 esi

; 205  : 	HWND hWnd;
; 206  : 
; 207  : 	hInst = hInstance; // Store instance handle in our global variable
; 208  : 
; 209  : 	hMainWnd	= hWnd	= CreateWindow(szWindowClass, szTitle, WS_OVERLAPPEDWINDOW,
; 210  : 		CW_USEDEFAULT, 0, CW_USEDEFAULT, 0, NULL, NULL, hInstance, NULL);

  00023	6a 00		 push	 0
  00025	89 84 24 14 01
	00 00		 mov	 DWORD PTR __$ArrayPad$[esp+292], eax
  0002c	8b 84 24 28 01
	00 00		 mov	 eax, DWORD PTR _hInstance$[esp+288]
  00033	50		 push	 eax
  00034	6a 00		 push	 0
  00036	6a 00		 push	 0
  00038	6a 00		 push	 0
  0003a	68 00 00 00 80	 push	 -2147483648		; 80000000H
  0003f	6a 00		 push	 0
  00041	68 00 00 00 80	 push	 -2147483648		; 80000000H
  00046	68 00 00 cf 00	 push	 13565952		; 00cf0000H
  0004b	68 00 00 00 00	 push	 OFFSET FLAT:?szTitle@@3PADA ; szTitle
  00050	68 00 00 00 00	 push	 OFFSET FLAT:?szWindowClass@@3PADA ; szWindowClass
  00055	6a 00		 push	 0
  00057	a3 00 00 00 00	 mov	 DWORD PTR ?hInst@@3PAUHINSTANCE__@@A, eax ; hInst
  0005c	ff 15 00 00 00
	00		 call	 DWORD PTR __imp__CreateWindowExA@48
  00062	8b f0		 mov	 esi, eax

; 211  : 
; 212  : 	if (!hWnd)

  00064	85 f6		 test	 esi, esi
  00066	89 35 00 00 00
	00		 mov	 DWORD PTR ?hMainWnd@@3PAUHWND__@@A, esi ; hMainWnd

; 213  : 	  return FALSE;

  0006c	74 4e		 je	 SHORT $L223563

; 214  : 
; 215  : 	// Item     
; 216  : 	xSRand( timeGetTime()  );	//    xRandom() ...

  0006e	ff 15 00 00 00
	00		 call	 DWORD PTR __imp__timeGetTime@0
  00074	50		 push	 eax
  00075	e8 00 00 00 00	 call	 ?xSRand@@YAXK@Z		; xSRand
  0007a	83 c4 04	 add	 esp, 4

; 217  : 
; 218  : #ifndef _DEBUG
; 219  : //   InitEH();
; 220  : #endif	// _DEBUG
; 221  : 
; 222  : 	if( InitializeNetLib() == FALSE )

  0007d	e8 00 00 00 00	 call	 ?InitializeNetLib@@YAHXZ ; InitializeNetLib
  00082	85 c0		 test	 eax, eax

; 223  : 		return FALSE;

  00084	74 36		 je	 SHORT $L223563

; 224  : 
; 225  : 	if( Script( g_szINI ) == FALSE )

  00086	68 00 00 00 00	 push	 OFFSET FLAT:_g_szINI
  0008b	e8 00 00 00 00	 call	 ?Script@@YAHPBD@Z	; Script
  00090	83 c4 04	 add	 esp, 4
  00093	85 c0		 test	 eax, eax
  00095	75 2c		 jne	 SHORT $L213208

; 226  : 	{
; 227  : 		char szMsg[256];
; 228  : 		sprintf( szMsg, "FAIL read ini - %s", g_szINI );

  00097	68 00 00 00 00	 push	 OFFSET FLAT:_g_szINI
  0009c	8d 44 24 14	 lea	 eax, DWORD PTR _szMsg$213209[esp+292]
  000a0	68 00 00 00 00	 push	 OFFSET FLAT:??_C@_0BD@BGDLFGME@FAIL?5read?5ini?5?9?5?$CFs?$AA@
  000a5	50		 push	 eax
  000a6	e8 00 00 00 00	 call	 _sprintf
  000ab	83 c4 0c	 add	 esp, 12			; 0000000cH

; 229  : 		AfxMessageBox( szMsg, MB_OK );

  000ae	6a 00		 push	 0
  000b0	6a 00		 push	 0
  000b2	8d 4c 24 18	 lea	 ecx, DWORD PTR _szMsg$213209[esp+296]
  000b6	51		 push	 ecx
  000b7	e8 00 00 00 00	 call	 ?AfxMessageBox@@YGHPBDII@Z ; AfxMessageBox
$L223563:

; 230  : 		return FALSE;

  000bc	33 c0		 xor	 eax, eax
  000be	e9 8d 02 00 00	 jmp	 $L213202
$L213208:

; 231  : 	}
; 232  : 	
; 233  : 	if( CQuery::EnableConnectionPooling() )

  000c3	e8 00 00 00 00	 call	 ?EnableConnectionPooling@CQuery@@SAHXZ ; CQuery::EnableConnectionPooling
  000c8	85 c0		 test	 eax, eax
  000ca	74 0b		 je	 SHORT $L213211

; 234  : 		OutputDebugString( "EnableConnectionPooling\n" );

  000cc	68 00 00 00 00	 push	 OFFSET FLAT:??_C@_0BJ@POMECNAN@EnableConnectionPooling?6?$AA@
  000d1	ff 15 00 00 00
	00		 call	 DWORD PTR __imp__OutputDebugStringA@4
$L213211:

; 235  : 	g_DbManager.CreateDbWorkers();

  000d7	8b 0d 00 00 00
	00		 mov	 ecx, DWORD PTR ?g_DbManager@@3AAVCDbManager@@A ; g_DbManager
  000dd	57		 push	 edi
  000de	e8 00 00 00 00	 call	 ?CreateDbWorkers@CDbManager@@QAEHXZ ; CDbManager::CreateDbWorkers

; 236  : 
; 237  : /*
; 238  : #ifdef __S0114_RELOADPRO
; 239  : 	SetTimer( hWnd, TID_RELOAD_PROJECT, SEC( 30 ), NULL );
; 240  : #endif // __S0114_RELOADPRO
; 241  : */
; 242  : #ifdef __INTERNALSERVER
; 243  : 	SetTimer(  hWnd, TID_QUERY_REMOVE_GUILD_BANK_TBL, MIN( 1 ), NULL );
; 244  : #else	// __INTERNALSERVER
; 245  : 	SetTimer(  hWnd, TID_QUERY_REMOVE_GUILD_BANK_TBL, MIN( 10 ), NULL );

  000e3	8b 3d 00 00 00
	00		 mov	 edi, DWORD PTR __imp__SetTimer@16
  000e9	6a 00		 push	 0
  000eb	68 c0 27 09 00	 push	 600000			; 000927c0H
  000f0	6a 03		 push	 3
  000f2	56		 push	 esi
  000f3	ff d7		 call	 edi

; 246  : #endif	// __INTERNALSERVER
; 247  : 
; 248  : #ifdef __VERIFY_PLAYER
; 249  : 	g_DbManager.VerifyPlayer();
; 250  : 	return FALSE;
; 251  : #endif	// __VERIFY_PLAYER
; 252  : #ifdef __PROVIDE
; 253  : 	return TRUE;
; 254  : #endif	// __PROVIDE
; 255  : //______________________________________________________________________
; 256  : #ifdef __CONV_SKILL
; 257  : 	g_DbManager.ConvSkill();
; 258  : 	if( MB_OK != AfxMessageBox( "Complete Skill Convert", MB_OK ) )
; 259  : 		return FALSE;
; 260  : 	return FALSE;
; 261  : #endif	// __CONV_SKILL
; 262  : #ifdef __CONV_SKILL_11_MONTH_JOB1
; 263  : 	AfxMessageBox( "Start Skill Convert 11_Month Point", MB_OK );
; 264  : 	g_DbManager.ConvSkill_11_MONTH_POINT();
; 265  : 	if( MB_OK != AfxMessageBox( "Complete Skill Convert 11_Month Point", MB_OK ) )
; 266  : 		return FALSE;
; 267  : 	return FALSE;	
; 268  : #endif // __CONV_SKILL_11_MONTH_JOB1
; 269  : #ifdef __CONV_SKILL_11_MONTH_JOB2
; 270  : 	AfxMessageBox( "Start Skill Convert 11_Month", MB_OK );
; 271  : 	g_DbManager.ConvSkill_11_MONTH();
; 272  : 	if( MB_OK != AfxMessageBox( "Complete Skill Convert 11_Month", MB_OK ) )
; 273  : 		return FALSE;
; 274  : 	return FALSE;	
; 275  : #endif // __CONV_SKILL_11_MONTH_JOB2
; 276  : #ifdef __CONV_SERIAL_NUMBER
; 277  : 	g_DbManager.SN();
; 278  : 	return FALSE;
; 279  : #endif	// __CONV_SERIAL_NUMBER
; 280  : #ifdef __CONV_SKILL_STOP
; 281  : 	g_DbManager.ConvSkillStop();
; 282  : 	if( MB_OK != AfxMessageBox( "   ", MB_OK ) )
; 283  : 		return FALSE;
; 284  : #endif // __CONV_SKILL_STOP
; 285  : 	
; 286  : #ifdef __S0707_ITEM_CONV
; 287  : 	if( g_DbManager.ConvItem() )	// //    
; 288  : 	{
; 289  : 		if( MB_OK != AfxMessageBox( "  Item", MB_OK ) )
; 290  : 			return FALSE;
; 291  : 	}
; 292  : 	else
; 293  : 	{
; 294  : 		if( MB_OK != AfxMessageBox( "  Item", MB_OK ) )
; 295  : 			return FALSE;
; 296  : 	}
; 297  : #endif // __S0707_ITEM_CONV
; 298  : 		
; 299  : #ifdef __ITEM_REMOVE_LIST
; 300  : 	if( prj.IsConvMode( CONVER_ITEM_START ) )

  000f5	6a 01		 push	 1
  000f7	b9 00 00 00 00	 mov	 ecx, OFFSET FLAT:?prj@@3VCProject@@A
  000fc	e8 00 00 00 00	 call	 ?IsConvMode@CProject@@QAEHK@Z ; CProject::IsConvMode
  00101	85 c0		 test	 eax, eax
  00103	74 58		 je	 SHORT $L213215

; 301  : 	{
; 302  : 		if( prj.IsConvMode( REMOVE_ITEM_ALL ) )

  00105	6a 04		 push	 4
  00107	b9 00 00 00 00	 mov	 ecx, OFFSET FLAT:?prj@@3VCProject@@A
  0010c	e8 00 00 00 00	 call	 ?IsConvMode@CProject@@QAEHK@Z ; CProject::IsConvMode
  00111	85 c0		 test	 eax, eax
  00113	74 24		 je	 SHORT $L213218

; 303  : 		{
; 304  : 			if( LoadRemoveItem( "LoadRemoveItemList.ini" ) == FALSE )

  00115	68 00 00 00 00	 push	 OFFSET FLAT:??_C@_0BH@DEJALFOO@LoadRemoveItemList?4ini?$AA@
  0011a	e8 00 00 00 00	 call	 ?LoadRemoveItem@@YAHPBD@Z ; LoadRemoveItem
  0011f	83 c4 04	 add	 esp, 4
  00122	85 c0		 test	 eax, eax
  00124	75 13		 jne	 SHORT $L213218

; 305  : 			{
; 306  : 				AfxMessageBox( "LoadRemoveItemList.ini FAILE", MB_OK );

  00126	50		 push	 eax
  00127	50		 push	 eax
  00128	68 00 00 00 00	 push	 OFFSET FLAT:??_C@_0BN@LPGCIDJ@LoadRemoveItemList?4ini?5FAILE?$AA@
  0012d	e8 00 00 00 00	 call	 ?AfxMessageBox@@YGHPBDII@Z ; AfxMessageBox
$L223562:

; 307  : 				return FALSE;

  00132	33 c0		 xor	 eax, eax
  00134	e9 16 02 00 00	 jmp	 $L223561
$L213218:

; 308  : 			}			
; 309  : 		}
; 310  : 		if( g_DbManager.ConvItemStart() )

  00139	8b 0d 00 00 00
	00		 mov	 ecx, DWORD PTR ?g_DbManager@@3AAVCDbManager@@A ; g_DbManager
  0013f	e8 00 00 00 00	 call	 ?ConvItemStart@CDbManager@@QAEHXZ ; CDbManager::ConvItemStart
  00144	85 c0		 test	 eax, eax
  00146	74 0e		 je	 SHORT $L213221

; 311  : 		{
; 312  : 			AfxMessageBox( "ConvItem Success!", MB_OK );

  00148	6a 00		 push	 0
  0014a	6a 00		 push	 0
  0014c	68 00 00 00 00	 push	 OFFSET FLAT:??_C@_0BC@NIICKMCD@ConvItem?5Success?$CB?$AA@
  00151	e8 00 00 00 00	 call	 ?AfxMessageBox@@YGHPBDII@Z ; AfxMessageBox
$L213221:

; 313  : 		}
; 314  : 		return FALSE;

  00156	33 c0		 xor	 eax, eax
  00158	e9 f2 01 00 00	 jmp	 $L223561
$L213215:

; 315  : 	}
; 316  : #endif // __ITEM_REMOVE_LIST
; 317  : 	
; 318  : 
; 319  : #ifdef __RECOVER0816
; 320  : 	if( g_DbManager.RecoverCharacter() )
; 321  : 	{
; 322  : 		AfxMessageBox( "3" );
; 323  : 		return FALSE;
; 324  : 	}
; 325  : 	else
; 326  : 	{
; 327  : 		AfxMessageBox( "4" );
; 328  : 	}
; 329  : #endif	// __RECOVER0816
; 330  : //______________________________________________________________________
; 331  : 
; 332  : 
; 333  : #if __VER >= 11 // __SYS_PLAYER_DATA
; 334  : 	if( !g_DbManager.LoadPlayerData() )

  0015d	8b 0d 00 00 00
	00		 mov	 ecx, DWORD PTR ?g_DbManager@@3AAVCDbManager@@A ; g_DbManager
  00163	e8 00 00 00 00	 call	 ?LoadPlayerData@CDbManager@@QAEHXZ ; CDbManager::LoadPlayerData
  00168	85 c0		 test	 eax, eax

; 335  : 		return FALSE;

  0016a	74 c6		 je	 SHORT $L223562

; 336  : #else	// __SYS_PLAYER_DATA
; 337  : 	if( !g_DbManager.OpenPlayerID() )
; 338  : 	{
; 339  : 		ASSERT( 0 );
; 340  : 	}
; 341  : #endif	// __SYS_PLAYER_DATA
; 342  : 
; 343  : 	if( !g_DbManager.GetPartyName() )

  0016c	8b 0d 00 00 00
	00		 mov	 ecx, DWORD PTR ?g_DbManager@@3AAVCDbManager@@A ; g_DbManager
  00172	e8 00 00 00 00	 call	 ?GetPartyName@CDbManager@@QAEHXZ ; CDbManager::GetPartyName

; 344  : 	{
; 345  : 		ASSERT( 0 );
; 346  : 	}
; 347  : #ifndef __RT_1025	
; 348  : 	if( !g_DbManager.SetMessenger() )
; 349  : 	{
; 350  : 		ASSERT( 0 );
; 351  : 	}
; 352  : #endif	// __RT_1025
; 353  : 
; 354  : 	if( !g_DbManager.LoadPost() )

  00177	8b 0d 00 00 00
	00		 mov	 ecx, DWORD PTR ?g_DbManager@@3AAVCDbManager@@A ; g_DbManager
  0017d	e8 00 00 00 00	 call	 ?LoadPost@CDbManager@@QAEHXZ ; CDbManager::LoadPost

; 355  : 	{
; 356  : 		ASSERT( 0 );
; 357  : 	}
; 358  : 	SetTimer( hWnd, TID_POSTPROC, MIN( 1 ), NULL );

  00182	6a 00		 push	 0
  00184	68 60 ea 00 00	 push	 60000			; 0000ea60H
  00189	6a 02		 push	 2
  0018b	56		 push	 esi
  0018c	ff d7		 call	 edi

; 359  : 
; 360  : 	if( !CEventGeneric::GetInstance()->LoadScript( "propEvent.inc" ) )

  0018e	68 00 00 00 00	 push	 OFFSET FLAT:??_C@_0O@KGDKAKJB@propEvent?4inc?$AA@
  00193	e8 00 00 00 00	 call	 ?GetInstance@CEventGeneric@@SAPAV1@XZ ; CEventGeneric::GetInstance
  00198	8b c8		 mov	 ecx, eax
  0019a	e8 00 00 00 00	 call	 ?LoadScript@CEventGeneric@@QAEHPBD@Z ; CEventGeneric::LoadScript
  0019f	85 c0		 test	 eax, eax
  001a1	75 0c		 jne	 SHORT $L213229

; 361  : 	{
; 362  : //		ASSERT( 0 );
; 363  : 		AfxMessageBox( "propevent.inc" );

  001a3	50		 push	 eax
  001a4	50		 push	 eax
  001a5	68 00 00 00 00	 push	 OFFSET FLAT:??_C@_0O@OJGHAJEB@propevent?4inc?$AA@
  001aa	e8 00 00 00 00	 call	 ?AfxMessageBox@@YGHPBDII@Z ; AfxMessageBox
$L213229:

; 364  : 	}
; 365  : 	SetTimer( hWnd, TIMER_ID_EVENT_GENERIC, MIN( 1 ), NULL );

  001af	6a 00		 push	 0
  001b1	68 60 ea 00 00	 push	 60000			; 0000ea60H
  001b6	6a 04		 push	 4
  001b8	56		 push	 esi
  001b9	ff d7		 call	 edi

; 366  : 
; 367  : 	if( !g_DbManager.OpenGuildCombat() )

  001bb	8b 0d 00 00 00
	00		 mov	 ecx, DWORD PTR ?g_DbManager@@3AAVCDbManager@@A ; g_DbManager
  001c1	e8 00 00 00 00	 call	 ?OpenGuildCombat@CDbManager@@QAEHXZ ; CDbManager::OpenGuildCombat

; 368  : 	{
; 369  : 		ASSERT( 0 );
; 370  : 	}
; 371  : 
; 372  : #if __VER >= 12 // __LORD
; 373  : 	//      
; 374  : 	CTLord::Instance()->CreateColleagues();

  001c6	e8 00 00 00 00	 call	 ?Instance@CTLord@@SAPAV1@XZ ; CTLord::Instance
  001cb	8b 10		 mov	 edx, DWORD PTR [eax]
  001cd	8b c8		 mov	 ecx, eax
  001cf	ff 12		 call	 DWORD PTR [edx]

; 375  : #endif	// __LORD
; 376  : #if __VER >= 12 // __TAX
; 377  : 	CDbControllerTimer::GetInstance()->Create();

  001d1	e8 00 00 00 00	 call	 ?GetInstance@CDbControllerTimer@@SAPAV1@XZ ; CDbControllerTimer::GetInstance
  001d6	8b c8		 mov	 ecx, eax
  001d8	e8 00 00 00 00	 call	 ?Create@CDbControllerTimer@@QAEXXZ ; CDbControllerTimer::Create

; 378  : #endif	// __TAX
; 379  : #ifdef __QUIZ
; 380  : 	// load QuizEvent Id
; 381  : 	if( !CQuizDBMng::GetInstance()->InitQuizEventId() )

  001dd	e8 00 00 00 00	 call	 ?GetInstance@CQuizDBMng@@SAPAV1@XZ ; CQuizDBMng::GetInstance
  001e2	8b c8		 mov	 ecx, eax
  001e4	e8 00 00 00 00	 call	 ?InitQuizEventId@CQuizDBMng@@QAEHXZ ; CQuizDBMng::InitQuizEventId

; 382  : 	{
; 383  : 		ASSERT( 0 );
; 384  : 	}
; 385  : 	//CQuizDBMng::GetInstance()->PostRequest( QUERY_QUIZ_INIT );
; 386  : #endif // __QUIZ
; 387  : 
; 388  : #if __VER >= 15 // __GUILD_HOUSE
; 389  : 	GuildHouseDBMng->PostRequest( GUILDHOUSE_LOAD );

  001e9	e8 00 00 00 00	 call	 ?GetInstance@CGuildHouseDBMng@@SAPAV1@XZ ; CGuildHouseDBMng::GetInstance
  001ee	6a 00		 push	 0
  001f0	6a 00		 push	 0
  001f2	6a 00		 push	 0
  001f4	6a 00		 push	 0
  001f6	8b c8		 mov	 ecx, eax
  001f8	e8 00 00 00 00	 call	 ?PostRequest@CDbController@@QAEHHPAEHK@Z ; CDbController::PostRequest

; 390  : #endif // __GUILD_HOUSE
; 391  : #if __VER >= 15 // __CAMPUS
; 392  : 	CCampusHelper::GetInstance()->PostRequest( CAMPUS_LOAD );

  001fd	e8 00 00 00 00	 call	 ?GetInstance@CCampusHelper@@SAPAV1@XZ ; CCampusHelper::GetInstance
  00202	6a 00		 push	 0
  00204	6a 00		 push	 0
  00206	6a 00		 push	 0
  00208	6a 00		 push	 0
  0020a	8b c8		 mov	 ecx, eax
  0020c	e8 00 00 00 00	 call	 ?PostRequest@CDbController@@QAEHHPAEHK@Z ; CDbController::PostRequest

; 393  : #endif // __CAMPUS
; 394  : 
; 395  : 	if( !g_dpLoginSrvr.StartServer( PN_DBSRVR_0 ) )

  00211	6a 00		 push	 0
  00213	6a 00		 push	 0
  00215	68 58 1b 00 00	 push	 7000			; 00001b58H
  0021a	b9 00 00 00 00	 mov	 ecx, OFFSET FLAT:?g_dpLoginSrvr@@3VCDPLoginSrvr@@A
  0021f	e8 00 00 00 00	 call	 ?StartServer@CDPMng@@QAEHGHW4BUFFER_TYPE@@@Z ; CDPMng::StartServer
  00224	85 c0		 test	 eax, eax

; 396  : 	{
; 397  : 		return FALSE;

  00226	0f 84 06 ff ff
	ff		 je	 $L223562

; 398  : 	}
; 399  : 	
; 400  : 	if( !CDPTrans::GetInstance()->StartServer( PN_DBSRVR_1 ) )

  0022c	6a 00		 push	 0
  0022e	6a 00		 push	 0
  00230	68 c0 5d 00 00	 push	 24000			; 00005dc0H
  00235	e8 00 00 00 00	 call	 ?GetInstance@CDPTrans@@SAPAV1@XZ ; CDPTrans::GetInstance
  0023a	8b c8		 mov	 ecx, eax
  0023c	e8 00 00 00 00	 call	 ?StartServer@CDPMng@@QAEHGHW4BUFFER_TYPE@@@Z ; CDPMng::StartServer
  00241	85 c0		 test	 eax, eax

; 401  : 	{
; 402  : 		return FALSE;

  00243	0f 84 e9 fe ff
	ff		 je	 $L223562

; 403  : 	}
; 404  : 
; 405  : 	if( !g_dpCoreSrvr.StartServer( PN_DBSRVR_2 ) )

  00249	6a 00		 push	 0
  0024b	6a 00		 push	 0
  0024d	68 20 1c 00 00	 push	 7200			; 00001c20H
  00252	b9 00 00 00 00	 mov	 ecx, OFFSET FLAT:?g_dpCoreSrvr@@3VCDPCoreSrvr@@A
  00257	e8 00 00 00 00	 call	 ?StartServer@CDPMng@@QAEHGHW4BUFFER_TYPE@@@Z ; CDPMng::StartServer
  0025c	85 c0		 test	 eax, eax

; 406  : 	{
; 407  : 		return FALSE;

  0025e	0f 84 ce fe ff
	ff		 je	 $L223562

; 408  : 	}
; 409  : 
; 410  : 	if( FALSE == g_dpAccountClient.ConnectToServer( lpConnection, PN_ACCOUNTSRVR_1 ) )

  00264	6a 00		 push	 0
  00266	6a 00		 push	 0
  00268	68 e1 2e 00 00	 push	 12001			; 00002ee1H
  0026d	68 00 00 00 00	 push	 OFFSET FLAT:?lpConnection@@3PADA ; lpConnection
  00272	b9 00 00 00 00	 mov	 ecx, OFFSET FLAT:?g_dpAccountClient@@3VCDPAccountClient@@A
  00277	e8 00 00 00 00	 call	 ?ConnectToServer@CDPMng@@QAEHPBDGHW4BUFFER_TYPE@@@Z ; CDPMng::ConnectToServer
  0027c	85 c0		 test	 eax, eax

; 411  : 		return FALSE;

  0027e	0f 84 ae fe ff
	ff		 je	 $L223562

; 412  : 	g_dpAccountClient.SendAddIdofServer( g_appInfo.dwSys );

  00284	a1 00 00 00 00	 mov	 eax, DWORD PTR ?g_appInfo@@3UAppInfo@@A
  00289	50		 push	 eax
  0028a	b9 00 00 00 00	 mov	 ecx, OFFSET FLAT:?g_dpAccountClient@@3VCDPAccountClient@@A
  0028f	e8 00 00 00 00	 call	 ?SendAddIdofServer@CDPAccountClient@@QAEXK@Z ; CDPAccountClient::SendAddIdofServer

; 413  : 
; 414  : 	NotifyProcessStart( g_appInfo.dwId );	

  00294	8b 0d 04 00 00
	00		 mov	 ecx, DWORD PTR ?g_appInfo@@3UAppInfo@@A+4
  0029a	51		 push	 ecx
  0029b	e8 00 00 00 00	 call	 ?NotifyProcessStart@@YAXK@Z ; NotifyProcessStart
  002a0	83 c4 04	 add	 esp, 4

; 415  : 
; 416  : 	int x = 0, y = 0;
; 417  : 	SetWindowPos( hWnd, NULL, x, y, 400, 416, SWP_SHOWWINDOW );

  002a3	6a 40		 push	 64			; 00000040H
  002a5	68 a0 01 00 00	 push	 416			; 000001a0H
  002aa	68 90 01 00 00	 push	 400			; 00000190H
  002af	6a 00		 push	 0
  002b1	6a 00		 push	 0
  002b3	6a 00		 push	 0
  002b5	56		 push	 esi
  002b6	ff 15 00 00 00
	00		 call	 DWORD PTR __imp__SetWindowPos@28

; 418  : 
; 419  : 	g_MyTrace.Initialize( hWnd, "SquireD", RGB( 0xff, 0xff, 0xff ), RGB( 0x00, 0x00, 0x00 ) );

  002bc	6a 00		 push	 0
  002be	68 ff ff ff 00	 push	 16777215		; 00ffffffH
  002c3	68 00 00 00 00	 push	 OFFSET FLAT:??_C@_07NPJJGNLP@SquireD?$AA@
  002c8	56		 push	 esi
  002c9	b9 00 00 00 00	 mov	 ecx, OFFSET FLAT:?g_MyTrace@@3VCMyTrace@@A
  002ce	e8 00 00 00 00	 call	 ?Initialize@CMyTrace@@QAEXPAUHWND__@@PBDKK@Z ; CMyTrace::Initialize

; 420  : 
; 421  : 	CTime time	= CTime::GetCurrentTime();

  002d3	8d 54 24 0c	 lea	 edx, DWORD PTR _time$[esp+292]
  002d7	52		 push	 edx
  002d8	e8 00 00 00 00	 call	 ?GetTickCount@CTime@ATL@@SG?AV12@XZ ; ATL::CTime::GetTickCount

; 422  : 	g_MyTrace.Add( 0, FALSE, "%s", time.Format( "%Y/%m/%d %H:%M:%S" ) );

  002dd	68 00 00 00 00	 push	 OFFSET FLAT:??_C@_0BC@FBAMFINP@?$CFY?1?$CFm?1?$CFd?5?$CFH?3?$CFM?3?$CFS?$AA@
  002e2	8d 44 24 0c	 lea	 eax, DWORD PTR $T223546[esp+296]
  002e6	50		 push	 eax
  002e7	8d 4c 24 14	 lea	 ecx, DWORD PTR _time$[esp+300]
  002eb	e8 00 00 00 00	 call	 ?Format@CTime@ATL@@QBE?AV?$CStringT@DV?$StrTraitMFC@DV?$ChTraitsCRT@D@ATL@@@@@2@PBD@Z ; ATL::CTime::Format
  002f0	8b 08		 mov	 ecx, DWORD PTR [eax]
  002f2	51		 push	 ecx
  002f3	68 00 00 00 00	 push	 OFFSET FLAT:??_C@_02DKCKIIND@?$CFs?$AA@
  002f8	6a 00		 push	 0
  002fa	6a 00		 push	 0
  002fc	68 00 00 00 00	 push	 OFFSET FLAT:?g_MyTrace@@3VCMyTrace@@A
  00301	c7 84 24 34 01
	00 00 00 00 00
	00		 mov	 DWORD PTR __$EHRec$[esp+320], 0
  0030c	e8 00 00 00 00	 call	 ?Add@CMyTrace@@QAAXKHPBDZZ ; CMyTrace::Add
  00311	83 c4 14	 add	 esp, 20			; 00000014H
  00314	8d 4c 24 08	 lea	 ecx, DWORD PTR $T223546[esp+292]
  00318	c7 84 24 20 01
	00 00 ff ff ff
	ff		 mov	 DWORD PTR __$EHRec$[esp+300], -1
  00323	e8 00 00 00 00	 call	 ??1?$CStringT@DV?$StrTraitMFC@DV?$ChTraitsCRT@D@ATL@@@@@ATL@@QAE@XZ ; ATL::CStringT<char,StrTraitMFC<char,ATL::ChTraitsCRT<char> > >::~CStringT<char,StrTraitMFC<char,ATL::ChTraitsCRT<char> > >

; 423  : 	g_MyTrace.AddLine( '\0' );

  00328	6a 00		 push	 0
  0032a	b9 00 00 00 00	 mov	 ecx, OFFSET FLAT:?g_MyTrace@@3VCMyTrace@@A
  0032f	e8 00 00 00 00	 call	 ?AddLine@CMyTrace@@QAEXD@Z ; CMyTrace::AddLine

; 424  : 
; 425  : 	ShowWindow(hWnd, nCmdShow);

  00334	8b 94 24 2c 01
	00 00		 mov	 edx, DWORD PTR _nCmdShow$[esp+288]
  0033b	52		 push	 edx
  0033c	56		 push	 esi
  0033d	ff 15 00 00 00
	00		 call	 DWORD PTR __imp__ShowWindow@8

; 426  : 	UpdateWindow(hWnd);

  00343	56		 push	 esi
  00344	ff 15 00 00 00
	00		 call	 DWORD PTR __imp__UpdateWindow@4

; 427  : 
; 428  : 	return TRUE;

  0034a	b8 01 00 00 00	 mov	 eax, 1
$L223561:
  0034f	5f		 pop	 edi
$L213202:

; 429  : }

  00350	8b 8c 24 14 01
	00 00		 mov	 ecx, DWORD PTR __$EHRec$[esp+288]
  00357	64 89 0d 00 00
	00 00		 mov	 DWORD PTR fs:__except_list, ecx
  0035e	8b 8c 24 10 01
	00 00		 mov	 ecx, DWORD PTR __$ArrayPad$[esp+288]
  00365	5e		 pop	 esi
  00366	33 cc		 xor	 ecx, esp
  00368	e8 00 00 00 00	 call	 @__security_check_cookie@4
  0036d	81 c4 1c 01 00
	00		 add	 esp, 284		; 0000011cH
  00373	c3		 ret	 0
_TEXT	ENDS
;	COMDAT text$x
text$x	SEGMENT
$L223547:
  00000	8d 8d e4 fe ff
	ff		 lea	 ecx, DWORD PTR $T223546[ebp]
  00006	e9 00 00 00 00	 jmp	 ??1?$CStringT@DV?$StrTraitMFC@DV?$ChTraitsCRT@D@ATL@@@@@ATL@@QAE@XZ ; ATL::CStringT<char,StrTraitMFC<char,ATL::ChTraitsCRT<char> > >::~CStringT<char,StrTraitMFC<char,ATL::ChTraitsCRT<char> > >
__ehhandler$?InitInstance@@YAHPAUHINSTANCE__@@H@Z:
  0000b	b8 00 00 00 00	 mov	 eax, OFFSET FLAT:$T223558
  00010	e9 00 00 00 00	 jmp	 ___CxxFrameHandler
text$x	ENDS
?InitInstance@@YAHPAUHINSTANCE__@@H@Z ENDP		; InitInstance
PUBLIC	??0?$map@EHU?$less@E@std@@V?$allocator@U?$pair@$$CBEH@std@@@2@@std@@QAE@ABV01@@Z ; std::map<unsigned char,int,std::less<unsigned char>,std::allocator<std::pair<unsigned char const ,int> > >::map<unsigned char,int,std::less<unsigned char>,std::allocator<std::pair<unsigned char const ,int> > >
; Function compile flags: /Ogty
;	COMDAT ??0?$map@EHU?$less@E@std@@V?$allocator@U?$pair@$$CBEH@std@@@2@@std@@QAE@ABV01@@Z
_TEXT	SEGMENT
___that$ = 8						; size = 4
??0?$map@EHU?$less@E@std@@V?$allocator@U?$pair@$$CBEH@std@@@2@@std@@QAE@ABV01@@Z PROC NEAR ; std::map<unsigned char,int,std::less<unsigned char>,std::allocator<std::pair<unsigned char const ,int> > >::map<unsigned char,int,std::less<unsigned char>,std::allocator<std::pair<unsigned char const ,int> > >, COMDAT
; _this$ = ecx
  00000	8b 44 24 04	 mov	 eax, DWORD PTR ___that$[esp-4]
  00004	56		 push	 esi
  00005	50		 push	 eax
  00006	8b f1		 mov	 esi, ecx
  00008	e8 00 00 00 00	 call	 ??0?$_Tree@V?$_Tmap_traits@EHU?$less@E@std@@V?$allocator@U?$pair@$$CBEH@std@@@2@$0A@@std@@@std@@QAE@ABV01@@Z ; std::_Tree<std::_Tmap_traits<unsigned char,int,std::less<unsigned char>,std::allocator<std::pair<unsigned char const ,int> >,0> >::_Tree<std::_Tmap_traits<unsigned char,int,std::less<unsigned char>,std::allocator<std::pair<unsigned char const ,int> >,0> >
  0000d	8b c6		 mov	 eax, esi
  0000f	5e		 pop	 esi
  00010	c2 04 00	 ret	 4
??0?$map@EHU?$less@E@std@@V?$allocator@U?$pair@$$CBEH@std@@@2@@std@@QAE@ABV01@@Z ENDP ; std::map<unsigned char,int,std::less<unsigned char>,std::allocator<std::pair<unsigned char const ,int> > >::map<unsigned char,int,std::less<unsigned char>,std::allocator<std::pair<unsigned char const ,int> > >
_TEXT	ENDS
PUBLIC	??1?$map@EHU?$less@E@std@@V?$allocator@U?$pair@$$CBEH@std@@@2@@std@@QAE@XZ ; std::map<unsigned char,int,std::less<unsigned char>,std::allocator<std::pair<unsigned char const ,int> > >::~map<unsigned char,int,std::less<unsigned char>,std::allocator<std::pair<unsigned char const ,int> > >
; Function compile flags: /Ogty
;	COMDAT ??1?$map@EHU?$less@E@std@@V?$allocator@U?$pair@$$CBEH@std@@@2@@std@@QAE@XZ
_TEXT	SEGMENT
$T223671 = -4						; size = 4
??1?$map@EHU?$less@E@std@@V?$allocator@U?$pair@$$CBEH@std@@@2@@std@@QAE@XZ PROC NEAR ; std::map<unsigned char,int,std::less<unsigned char>,std::allocator<std::pair<unsigned char const ,int> > >::~map<unsigned char,int,std::less<unsigned char>,std::allocator<std::pair<unsigned char const ,int> > >, COMDAT
; _this$ = ecx
  00000	51		 push	 ecx
  00001	56		 push	 esi
  00002	8b f1		 mov	 esi, ecx
  00004	8b 46 04	 mov	 eax, DWORD PTR [esi+4]
  00007	8b 08		 mov	 ecx, DWORD PTR [eax]
  00009	50		 push	 eax
  0000a	51		 push	 ecx
  0000b	8d 44 24 0c	 lea	 eax, DWORD PTR $T223671[esp+16]
  0000f	50		 push	 eax
  00010	8b ce		 mov	 ecx, esi
  00012	e8 00 00 00 00	 call	 ?erase@?$_Tree@V?$_Tmap_traits@EHU?$less@E@std@@V?$allocator@U?$pair@$$CBEH@std@@@2@$0A@@std@@@std@@QAE?AViterator@12@V312@0@Z ; std::_Tree<std::_Tmap_traits<unsigned char,int,std::less<unsigned char>,std::allocator<std::pair<unsigned char const ,int> >,0> >::erase
  00017	8b 4e 04	 mov	 ecx, DWORD PTR [esi+4]
  0001a	51		 push	 ecx
  0001b	e8 00 00 00 00	 call	 ??3@YAXPAX@Z		; operator delete
  00020	83 c4 04	 add	 esp, 4
  00023	33 c0		 xor	 eax, eax
  00025	89 46 04	 mov	 DWORD PTR [esi+4], eax
  00028	89 46 08	 mov	 DWORD PTR [esi+8], eax
  0002b	5e		 pop	 esi
  0002c	59		 pop	 ecx
  0002d	c3		 ret	 0
??1?$map@EHU?$less@E@std@@V?$allocator@U?$pair@$$CBEH@std@@@2@@std@@QAE@XZ ENDP ; std::map<unsigned char,int,std::less<unsigned char>,std::allocator<std::pair<unsigned char const ,int> > >::~map<unsigned char,int,std::less<unsigned char>,std::allocator<std::pair<unsigned char const ,int> > >
_TEXT	ENDS
PUBLIC	?WndProc@@YGJPAUHWND__@@IIJ@Z			; WndProc
EXTRN	?SendEventFlag@CDPTrans@@QAEXK@Z:NEAR		; CDPTrans::SendEventFlag
EXTRN	__imp__CheckMenuItem@12:NEAR
EXTRN	?SendEventLuaState@CDPTrans@@QAEXV?$map@EHU?$less@E@std@@V?$allocator@U?$pair@$$CBEH@std@@@2@@std@@HK@Z:NEAR ; CDPTrans::SendEventLuaState
EXTRN	?SendEventLuaChanged@CDPTrans@@QAEXXZ:NEAR	; CDPTrans::SendEventLuaChanged
EXTRN	__imp__DefWindowProcA@16:NEAR
EXTRN	__imp__PostQuitMessage@4:NEAR
EXTRN	?OnSaveConcurrentUserNumber@CDPTrans@@QAEXAAVCAr@@KKKPAEK@Z:NEAR ; CDPTrans::OnSaveConcurrentUserNumber
EXTRN	__imp__DestroyWindow@4:NEAR
EXTRN	?Paint@CMyTrace@@QAEXPAUHDC__@@@Z:NEAR		; CMyTrace::Paint
EXTRN	?SendPCBangSetApply@CDPTrans@@QAEXK@Z:NEAR	; CDPTrans::SendPCBangSetApply
EXTRN	?SendQuizEventChanged@CDPTrans@@QAEXXZ:NEAR	; CDPTrans::SendQuizEventChanged
EXTRN	?LoadScript@CEventLua@@QAEXXZ:NEAR		; CEventLua::LoadScript
EXTRN	?Run@CEventGeneric@@QAEHXZ:NEAR			; CEventGeneric::Run
EXTRN	__chkstk:NEAR
EXTRN	?AllocRequest@CDbManager@@QAEPAUtagDB_OVERLAPPED_PLUS@@XZ:NEAR ; CDbManager::AllocRequest
EXTRN	__imp__BeginPaint@8:NEAR
EXTRN	__imp__EndPaint@8:NEAR
EXTRN	?GetInstance@CQuiz@@SAPAV1@XZ:NEAR		; CQuiz::GetInstance
EXTRN	?LoadScript@CQuiz@@QAEXXZ:NEAR			; CQuiz::LoadScript
EXTRN	?SendEventLuaNotice@CDPCoreSrvr@@QAEXXZ:NEAR	; CDPCoreSrvr::SendEventLuaNotice
EXTRN	?QueryRemoveGuildBankTbl@CDbManager@@QAEHXZ:NEAR ; CDbManager::QueryRemoveGuildBankTbl
EXTRN	?CheckOpenTIme@CGuildCombat1to1Mng@@QAEHXZ:NEAR	; CGuildCombat1to1Mng::CheckOpenTIme
EXTRN	?Process@CPost@@QAEXXZ:NEAR			; CPost::Process
EXTRN	?GetInstance@CPost@@SAPAV1@XZ:NEAR		; CPost::GetInstance
EXTRN	?IsNoticeTime@CEventLua@@QAEHXZ:NEAR		; CEventLua::IsNoticeTime
EXTRN	?CheckEventState@CEventLua@@QAEHXZ:NEAR		; CEventLua::CheckEventState
EXTRN	??0CAr@@QAE@PAXI@Z:NEAR				; CAr::CAr
EXTRN	??1CAr@@QAE@XZ:NEAR				; CAr::~CAr
EXTRN	__imp__KillTimer@8:NEAR
EXTRN	?GetBuffer@CAr@@QAEPAEPAH@Z:NEAR		; CAr::GetBuffer
EXTRN	__imp__PostQueuedCompletionStatus@16:NEAR
EXTRN	?SendGC1to1Open@CDPTrans@@QAEXXZ:NEAR		; CDPTrans::SendGC1to1Open
EXTRN	__imp__GetMenu@4:NEAR
;	COMDAT xdata$x
; File c:\documents and settings\test\mes documents\source\virtuos_v17\build\program\_network\mcl\include\cmclcritsec.h
xdata$x	SEGMENT
$T223745 DD	0ffffffffH
	DD	FLAT:$L223704
	DD	0ffffffffH
	DD	FLAT:$L223705
	DD	0ffffffffH
	DD	FLAT:$L223706
$T223741 DD	019930520H
	DD	03H
	DD	FLAT:$T223745
	DD	2 DUP(00H)
	DD	2 DUP(00H)
; Function compile flags: /Ogty
; File c:\documents and settings\test\mes documents\source\virtuos_v17\build\program\databaseserver\databaseserver.cpp
xdata$x	ENDS
;	COMDAT ?WndProc@@YGJPAUHWND__@@IIJ@Z
_TEXT	SEGMENT
$T223702 = -16492					; size = 4
$T223700 = -16492					; size = 4
_nBufSize$213316 = -16488				; size = 4
_ps$ = -16484						; size = 64
_ar$213314 = -16420					; size = 16404
__$ArrayPad$ = -16					; size = 4
__$EHRec$ = -12						; size = 12
__$ReturnAddr$ = 4					; size = 4
_hWnd$ = 8						; size = 4
_message$ = 12						; size = 4
_wParam$ = 16						; size = 4
_lParam$ = 20						; size = 4
?WndProc@@YGJPAUHWND__@@IIJ@Z PROC NEAR			; WndProc, COMDAT

; 460  : {

  00000	6a ff		 push	 -1
  00002	68 00 00 00 00	 push	 __ehhandler$?WndProc@@YGJPAUHWND__@@IIJ@Z
  00007	64 a1 00 00 00
	00		 mov	 eax, DWORD PTR fs:__except_list
  0000d	50		 push	 eax
  0000e	b8 60 40 00 00	 mov	 eax, 16480		; 00004060H
  00013	64 89 25 00 00
	00 00		 mov	 DWORD PTR fs:__except_list, esp
  0001a	e8 00 00 00 00	 call	 __chkstk
  0001f	a1 00 00 00 00	 mov	 eax, DWORD PTR ___security_cookie
  00024	33 c4		 xor	 eax, esp
  00026	89 84 24 5c 40
	00 00		 mov	 DWORD PTR __$ArrayPad$[esp+16492], eax

; 461  : 	int wmId, wmEvent;
; 462  : 	PAINTSTRUCT ps;
; 463  : 	HDC hdc;
; 464  : 
; 465  : 	switch (message) 

  0002d	8b 84 24 74 40
	00 00		 mov	 eax, DWORD PTR _message$[esp+16488]
  00034	3d 11 01 00 00	 cmp	 eax, 273		; 00000111H
  00039	56		 push	 esi
  0003a	8b b4 24 74 40
	00 00		 mov	 esi, DWORD PTR _hWnd$[esp+16492]
  00041	57		 push	 edi
  00042	0f 87 55 02 00
	00		 ja	 $L223703
  00048	74 5a		 je	 SHORT $L213302
  0004a	8b c8		 mov	 ecx, eax
  0004c	83 e9 02	 sub	 ecx, 2
  0004f	74 31		 je	 SHORT $L213345
  00051	83 e9 0d	 sub	 ecx, 13			; 0000000dH
  00054	0f 85 55 02 00
	00		 jne	 $L213347

; 582  : 						
; 583  : 					default:
; 584  : 						break;
; 585  : 				}
; 586  : 				break;
; 587  : 			}
; 588  : 		case WM_PAINT:
; 589  : 			hdc = BeginPaint(hWnd, &ps);

  0005a	8d 44 24 10	 lea	 eax, DWORD PTR _ps$[esp+16500]
  0005e	50		 push	 eax
  0005f	56		 push	 esi
  00060	ff 15 00 00 00
	00		 call	 DWORD PTR __imp__BeginPaint@8

; 590  : 			g_MyTrace.Paint( hdc );

  00066	50		 push	 eax
  00067	b9 00 00 00 00	 mov	 ecx, OFFSET FLAT:?g_MyTrace@@3VCMyTrace@@A
  0006c	e8 00 00 00 00	 call	 ?Paint@CMyTrace@@QAEXPAUHDC__@@@Z ; CMyTrace::Paint

; 591  : 			EndPaint(hWnd, &ps);

  00071	8d 4c 24 10	 lea	 ecx, DWORD PTR _ps$[esp+16500]
  00075	51		 push	 ecx
  00076	56		 push	 esi
  00077	ff 15 00 00 00
	00		 call	 DWORD PTR __imp__EndPaint@8

; 592  : 			break;

  0007d	e9 6b 03 00 00	 jmp	 $L213331
$L213345:

; 593  : 		case WM_DESTROY:
; 594  : /*
; 595  : #ifdef __S0114_RELOADPRO
; 596  : 			KillTimer( hWnd, TID_RELOAD_PROJECT );
; 597  : #endif // __S0114_RELOADPRO
; 598  : */
; 599  : 			KillTimer( hWnd, TID_POSTPROC );

  00082	8b 3d 00 00 00
	00		 mov	 edi, DWORD PTR __imp__KillTimer@8
  00088	6a 02		 push	 2
  0008a	56		 push	 esi
  0008b	ff d7		 call	 edi

; 600  : 			KillTimer( hWnd, TID_QUERY_REMOVE_GUILD_BANK_TBL );

  0008d	6a 03		 push	 3
  0008f	56		 push	 esi
  00090	ff d7		 call	 edi

; 601  : 			KillTimer( hWnd, TIMER_ID_EVENT_GENERIC );

  00092	6a 04		 push	 4
  00094	56		 push	 esi
  00095	ff d7		 call	 edi

; 602  : 			PostQuitMessage(0);

  00097	6a 00		 push	 0
  00099	ff 15 00 00 00
	00		 call	 DWORD PTR __imp__PostQuitMessage@4

; 603  : 			break;

  0009f	e9 49 03 00 00	 jmp	 $L213331
$L213302:

; 466  : 	{
; 467  : 		case WM_COMMAND:
; 468  : 			wmId    = LOWORD(wParam); 

  000a4	8b 8c 24 80 40
	00 00		 mov	 ecx, DWORD PTR _wParam$[esp+16496]
  000ab	0f b7 c1	 movzx	 eax, cx

; 469  : 			wmEvent = HIWORD(wParam); 
; 470  : 			// Parse the menu selections:
; 471  : 			switch (wmId)

  000ae	3d 0a 80 00 00	 cmp	 eax, 32778		; 0000800aH
  000b3	0f 8f 08 01 00
	00		 jg	 $L223701
  000b9	0f 84 8a 00 00
	00		 je	 $L213318
  000bf	83 e8 68	 sub	 eax, 104		; 00000068H
  000c2	0f 84 25 03 00
	00		 je	 $L213331
  000c8	48		 dec	 eax
  000c9	74 72		 je	 SHORT $L213312
  000cb	2d 9e 7f 00 00	 sub	 eax, 32670		; 00007f9eH
  000d0	0f 85 fc 00 00
	00		 jne	 $L213327

; 478  : 				case IDM_TEST:
; 479  : 					{
; 480  : 						CAr ar;

  000d6	6a 00		 push	 0
  000d8	6a 00		 push	 0
  000da	8d 4c 24 58	 lea	 ecx, DWORD PTR _ar$213314[esp+16508]
  000de	e8 00 00 00 00	 call	 ??0CAr@@QAE@PAXI@Z	; CAr::CAr

; 481  : 						int nNum = 100;
; 482  : 						ar << nNum;

  000e3	6a 64		 push	 100			; 00000064H
  000e5	8d 4c 24 54	 lea	 ecx, DWORD PTR _ar$213314[esp+16504]
  000e9	c7 84 24 74 40
	00 00 00 00 00
	00		 mov	 DWORD PTR __$EHRec$[esp+16512], 0
  000f4	e8 00 00 00 00	 call	 ??6CAr@@QAEAAV0@H@Z	; CAr::operator<<

; 483  : 						int nBufSize;
; 484  : 						LPBYTE lpBuf	= ar.GetBuffer( &nBufSize ); 

  000f9	8d 54 24 0c	 lea	 edx, DWORD PTR _nBufSize$213316[esp+16500]
  000fd	52		 push	 edx
  000fe	8d 4c 24 54	 lea	 ecx, DWORD PTR _ar$213314[esp+16504]
  00102	e8 00 00 00 00	 call	 ?GetBuffer@CAr@@QAEPAEPAH@Z ; CAr::GetBuffer

; 485  : 						CDPTrans::GetInstance()->OnSaveConcurrentUserNumber( ar, DPID_UNKNOWN, DPID_UNKNOWN, DPID_UNKNOWN, lpBuf, nBufSize );

  00107	8b 4c 24 0c	 mov	 ecx, DWORD PTR _nBufSize$213316[esp+16500]
  0010b	51		 push	 ecx
  0010c	50		 push	 eax
  0010d	6a ff		 push	 -1
  0010f	6a ff		 push	 -1
  00111	8d 54 24 60	 lea	 edx, DWORD PTR _ar$213314[esp+16516]
  00115	6a ff		 push	 -1
  00117	52		 push	 edx
  00118	e8 00 00 00 00	 call	 ?GetInstance@CDPTrans@@SAPAV1@XZ ; CDPTrans::GetInstance
  0011d	8b c8		 mov	 ecx, eax
  0011f	e8 00 00 00 00	 call	 ?OnSaveConcurrentUserNumber@CDPTrans@@QAEXAAVCAr@@KKKPAEK@Z ; CDPTrans::OnSaveConcurrentUserNumber

; 486  : 						break;

  00124	8d 4c 24 50	 lea	 ecx, DWORD PTR _ar$213314[esp+16500]
  00128	c7 84 24 70 40
	00 00 ff ff ff
	ff		 mov	 DWORD PTR __$EHRec$[esp+16508], -1
  00133	e8 00 00 00 00	 call	 ??1CAr@@QAE@XZ		; CAr::~CAr
  00138	e9 b0 02 00 00	 jmp	 $L213331
$L213312:

; 472  : 			{
; 473  : 				case IDM_ABOUT:
; 474  : 				   break;
; 475  : 				case IDM_EXIT:
; 476  : 				   DestroyWindow(hWnd);

  0013d	56		 push	 esi
  0013e	ff 15 00 00 00
	00		 call	 DWORD PTR __imp__DestroyWindow@4

; 477  : 				   break;

  00144	e9 a4 02 00 00	 jmp	 $L213331
$L213318:

; 487  : 					}
; 488  : #if __VER >= 9 // __EVENTLUA
; 489  : 				case IDM_EVENTLUA_APPLYNOW:
; 490  : 					{
; 491  : 						prj.m_EventLua.m_Access.Enter();

  00149	68 9c 00 00 00	 push	 OFFSET FLAT:?prj@@3VCProject@@A+156
  0014e	ff 15 00 00 00
	00		 call	 DWORD PTR __imp__EnterCriticalSection@4

; 492  : 						prj.m_EventLua.LoadScript();

  00154	b9 88 00 00 00	 mov	 ecx, OFFSET FLAT:?prj@@3VCProject@@A+136
  00159	e8 00 00 00 00	 call	 ?LoadScript@CEventLua@@QAEXXZ ; CEventLua::LoadScript

; 493  : 						CDPTrans::GetInstance()->SendEventLuaChanged();

  0015e	e8 00 00 00 00	 call	 ?GetInstance@CDPTrans@@SAPAV1@XZ ; CDPTrans::GetInstance
  00163	8b c8		 mov	 ecx, eax
  00165	e8 00 00 00 00	 call	 ?SendEventLuaChanged@CDPTrans@@QAEXXZ ; CDPTrans::SendEventLuaChanged

; 494  : 						if( prj.m_EventLua.CheckEventState() )

  0016a	b9 88 00 00 00	 mov	 ecx, OFFSET FLAT:?prj@@3VCProject@@A+136
  0016f	e8 00 00 00 00	 call	 ?CheckEventState@CEventLua@@QAEHXZ ; CEventLua::CheckEventState
  00174	85 c0		 test	 eax, eax
  00176	74 39		 je	 SHORT $L213319

; 495  : 							CDPTrans::GetInstance()->SendEventLuaState( prj.m_EventLua.m_mapState, FALSE );

  00178	6a 00		 push	 0
  0017a	6a 00		 push	 0
  0017c	83 ec 0c	 sub	 esp, 12			; 0000000cH
  0017f	89 64 24 1c	 mov	 DWORD PTR $T223700[esp+16520], esp
  00183	8b cc		 mov	 ecx, esp
  00185	68 8c 00 00 00	 push	 OFFSET FLAT:?prj@@3VCProject@@A+140
  0018a	e8 00 00 00 00	 call	 ??0?$_Tree@V?$_Tmap_traits@EHU?$less@E@std@@V?$allocator@U?$pair@$$CBEH@std@@@2@$0A@@std@@@std@@QAE@ABV01@@Z ; std::_Tree<std::_Tmap_traits<unsigned char,int,std::less<unsigned char>,std::allocator<std::pair<unsigned char const ,int> >,0> >::_Tree<std::_Tmap_traits<unsigned char,int,std::less<unsigned char>,std::allocator<std::pair<unsigned char const ,int> >,0> >
  0018f	c7 84 24 84 40
	00 00 01 00 00
	00		 mov	 DWORD PTR __$EHRec$[esp+16528], 1
  0019a	e8 00 00 00 00	 call	 ?GetInstance@CDPTrans@@SAPAV1@XZ ; CDPTrans::GetInstance
  0019f	8b c8		 mov	 ecx, eax
  001a1	c7 84 24 84 40
	00 00 ff ff ff
	ff		 mov	 DWORD PTR __$EHRec$[esp+16528], -1
  001ac	e8 00 00 00 00	 call	 ?SendEventLuaState@CDPTrans@@QAEXV?$map@EHU?$less@E@std@@V?$allocator@U?$pair@$$CBEH@std@@@2@@std@@HK@Z ; CDPTrans::SendEventLuaState
$L213319:

; 496  : 						prj.m_EventLua.m_Access.Leave();

  001b1	68 9c 00 00 00	 push	 OFFSET FLAT:?prj@@3VCProject@@A+156
  001b6	ff 15 00 00 00
	00		 call	 DWORD PTR __imp__LeaveCriticalSection@4

; 497  : 					}
; 498  : 					break;

  001bc	e9 2c 02 00 00	 jmp	 $L213331
$L223701:

; 469  : 			wmEvent = HIWORD(wParam); 
; 470  : 			// Parse the menu selections:
; 471  : 			switch (wmId)

  001c1	2d 0b 80 00 00	 sub	 eax, 32779		; 0000800bH
  001c6	0f 84 8f 00 00
	00		 je	 $L213321
  001cc	48		 dec	 eax
  001cd	74 4a		 je	 SHORT $L213323
  001cf	48		 dec	 eax
  001d0	74 1a		 je	 SHORT $L213325
$L213327:

; 530  : #endif // __QUIZ
; 531  : 				default:
; 532  : 				   return DefWindowProc(hWnd, message, wParam, lParam);

  001d2	8b 84 24 84 40
	00 00		 mov	 eax, DWORD PTR _lParam$[esp+16496]
  001d9	50		 push	 eax
  001da	51		 push	 ecx
  001db	68 11 01 00 00	 push	 273			; 00000111H
  001e0	56		 push	 esi
  001e1	ff 15 00 00 00
	00		 call	 DWORD PTR __imp__DefWindowProcA@16
  001e7	e9 03 02 00 00	 jmp	 $L213293
$L213325:

; 519  : #endif // __PCBANG
; 520  : #ifdef __QUIZ
; 521  : 				case IDM_QUIZEVENT_APPLYNOW:
; 522  : 					{
; 523  : 						if( !CQuiz::GetInstance()->IsRun() )

  001ec	e8 00 00 00 00	 call	 ?GetInstance@CQuiz@@SAPAV1@XZ ; CQuiz::GetInstance
  001f1	8b 48 08	 mov	 ecx, DWORD PTR [eax+8]
  001f4	85 c9		 test	 ecx, ecx
  001f6	0f 85 f1 01 00
	00		 jne	 $L213331

; 524  : 						{
; 525  : 							CQuiz::GetInstance()->LoadScript();

  001fc	e8 00 00 00 00	 call	 ?GetInstance@CQuiz@@SAPAV1@XZ ; CQuiz::GetInstance
  00201	8b c8		 mov	 ecx, eax
  00203	e8 00 00 00 00	 call	 ?LoadScript@CQuiz@@QAEXXZ ; CQuiz::LoadScript

; 526  : 							CDPTrans::GetInstance()->SendQuizEventChanged();

  00208	e8 00 00 00 00	 call	 ?GetInstance@CDPTrans@@SAPAV1@XZ ; CDPTrans::GetInstance
  0020d	8b c8		 mov	 ecx, eax
  0020f	e8 00 00 00 00	 call	 ?SendQuizEventChanged@CDPTrans@@QAEXXZ ; CDPTrans::SendQuizEventChanged

; 527  : 						}
; 528  : 					}
; 529  : 					break;

  00214	e9 d4 01 00 00	 jmp	 $L213331
$L213323:

; 508  : 					}
; 509  : 					break;
; 510  : 				case IDM_PCBANG_OFF:
; 511  : 					{
; 512  : 						HMENU hMenu = GetMenu( hWnd );

  00219	56		 push	 esi
  0021a	ff 15 00 00 00
	00		 call	 DWORD PTR __imp__GetMenu@4

; 513  : 						CheckMenuItem( hMenu, IDM_PCBANG_OFF, MF_CHECKED );

  00220	8b 3d 00 00 00
	00		 mov	 edi, DWORD PTR __imp__CheckMenuItem@12
  00226	6a 08		 push	 8
  00228	8b f0		 mov	 esi, eax
  0022a	68 0c 80 00 00	 push	 32780			; 0000800cH
  0022f	56		 push	 esi
  00230	ff d7		 call	 edi

; 514  : 						CheckMenuItem( hMenu, IDM_PCBANG_ON, MF_UNCHECKED );

  00232	6a 00		 push	 0
  00234	68 0b 80 00 00	 push	 32779			; 0000800bH
  00239	56		 push	 esi
  0023a	ff d7		 call	 edi

; 515  : 						CDPTrans::GetInstance()->m_bPCBangApply = FALSE;

  0023c	e8 00 00 00 00	 call	 ?GetInstance@CDPTrans@@SAPAV1@XZ ; CDPTrans::GetInstance

; 516  : 						CDPTrans::GetInstance()->SendPCBangSetApply( DPID_ALLPLAYERS );

  00241	6a 00		 push	 0
  00243	c7 40 1c 00 00
	00 00		 mov	 DWORD PTR [eax+28], 0
  0024a	e8 00 00 00 00	 call	 ?GetInstance@CDPTrans@@SAPAV1@XZ ; CDPTrans::GetInstance
  0024f	8b c8		 mov	 ecx, eax
  00251	e8 00 00 00 00	 call	 ?SendPCBangSetApply@CDPTrans@@QAEXK@Z ; CDPTrans::SendPCBangSetApply

; 517  : 					}
; 518  : 					break;

  00256	e9 92 01 00 00	 jmp	 $L213331
$L213321:

; 499  : #endif // __EVENTLUA
; 500  : #if __VER >= 14 // __PCBANG
; 501  : 				case IDM_PCBANG_ON:
; 502  : 					{
; 503  : 						HMENU hMenu = GetMenu( hWnd );

  0025b	56		 push	 esi
  0025c	ff 15 00 00 00
	00		 call	 DWORD PTR __imp__GetMenu@4

; 504  : 						CheckMenuItem( hMenu, IDM_PCBANG_ON, MF_CHECKED );

  00262	8b 3d 00 00 00
	00		 mov	 edi, DWORD PTR __imp__CheckMenuItem@12
  00268	6a 08		 push	 8
  0026a	8b f0		 mov	 esi, eax
  0026c	68 0b 80 00 00	 push	 32779			; 0000800bH
  00271	56		 push	 esi
  00272	ff d7		 call	 edi

; 505  : 						CheckMenuItem( hMenu, IDM_PCBANG_OFF, MF_UNCHECKED );

  00274	6a 00		 push	 0
  00276	68 0c 80 00 00	 push	 32780			; 0000800cH
  0027b	56		 push	 esi
  0027c	ff d7		 call	 edi

; 506  : 						CDPTrans::GetInstance()->m_bPCBangApply = TRUE;

  0027e	e8 00 00 00 00	 call	 ?GetInstance@CDPTrans@@SAPAV1@XZ ; CDPTrans::GetInstance

; 507  : 						CDPTrans::GetInstance()->SendPCBangSetApply( DPID_ALLPLAYERS );

  00283	6a 00		 push	 0
  00285	c7 40 1c 01 00
	00 00		 mov	 DWORD PTR [eax+28], 1
  0028c	e8 00 00 00 00	 call	 ?GetInstance@CDPTrans@@SAPAV1@XZ ; CDPTrans::GetInstance
  00291	8b c8		 mov	 ecx, eax
  00293	e8 00 00 00 00	 call	 ?SendPCBangSetApply@CDPTrans@@QAEXK@Z ; CDPTrans::SendPCBangSetApply

; 533  : 			}
; 534  : 			break;

  00298	e9 50 01 00 00	 jmp	 $L213331
$L223703:

; 461  : 	int wmId, wmEvent;
; 462  : 	PAINTSTRUCT ps;
; 463  : 	HDC hdc;
; 464  : 
; 465  : 	switch (message) 

  0029d	3d 13 01 00 00	 cmp	 eax, 275		; 00000113H
  002a2	74 28		 je	 SHORT $L213328
  002a4	3d 04 02 00 00	 cmp	 eax, 516		; 00000204H
  002a9	0f 84 3e 01 00
	00		 je	 $L213331
$L213347:

; 604  : #if __VER >= 9 // __EVENTLUA
; 605  : 		case WM_RBUTTONDOWN:
; 606  : 			break;
; 607  : #endif // __EVENTLUA
; 608  : 		default:
; 609  : 			return DefWindowProc(hWnd, message, wParam, lParam);

  002af	8b 8c 24 84 40
	00 00		 mov	 ecx, DWORD PTR _lParam$[esp+16496]
  002b6	8b 94 24 80 40
	00 00		 mov	 edx, DWORD PTR _wParam$[esp+16496]
  002bd	51		 push	 ecx
  002be	52		 push	 edx
  002bf	50		 push	 eax
  002c0	56		 push	 esi
  002c1	ff 15 00 00 00
	00		 call	 DWORD PTR __imp__DefWindowProcA@16
  002c7	e9 23 01 00 00	 jmp	 $L213293
$L213328:

; 535  : 		case WM_TIMER:
; 536  : 			{
; 537  : 				WORD wTimerID	= wParam;
; 538  : 				switch( wTimerID )

  002cc	0f b7 84 24 80
	40 00 00	 movzx	 eax, WORD PTR _wParam$[esp+16496]
  002d4	83 e8 02	 sub	 eax, 2
  002d7	0f 84 04 01 00
	00		 je	 $L213334
  002dd	48		 dec	 eax
  002de	0f 84 f0 00 00
	00		 je	 $L213335
  002e4	48		 dec	 eax
  002e5	0f 85 02 01 00
	00		 jne	 $L213331

; 553  : 					case TIMER_ID_EVENT_GENERIC:
; 554  : 						{
; 555  : 							if( CEventGeneric::GetInstance()->Run() )

  002eb	e8 00 00 00 00	 call	 ?GetInstance@CEventGeneric@@SAPAV1@XZ ; CEventGeneric::GetInstance
  002f0	8b c8		 mov	 ecx, eax
  002f2	e8 00 00 00 00	 call	 ?Run@CEventGeneric@@QAEHXZ ; CEventGeneric::Run
  002f7	85 c0		 test	 eax, eax
  002f9	74 15		 je	 SHORT $L213337

; 556  : 							CDPTrans::GetInstance()->SendEventFlag( CEventGeneric::GetInstance()->GetFlag() ); 

  002fb	e8 00 00 00 00	 call	 ?GetInstance@CEventGeneric@@SAPAV1@XZ ; CEventGeneric::GetInstance
  00300	8b 40 04	 mov	 eax, DWORD PTR [eax+4]
  00303	50		 push	 eax
  00304	e8 00 00 00 00	 call	 ?GetInstance@CDPTrans@@SAPAV1@XZ ; CDPTrans::GetInstance
  00309	8b c8		 mov	 ecx, eax
  0030b	e8 00 00 00 00	 call	 ?SendEventFlag@CDPTrans@@QAEXK@Z ; CDPTrans::SendEventFlag
$L213337:

; 557  : 						#if __VER >= 9 // __EVENTLUA
; 558  : 							prj.m_EventLua.m_Access.Enter();

  00310	68 9c 00 00 00	 push	 OFFSET FLAT:?prj@@3VCProject@@A+156
  00315	ff 15 00 00 00
	00		 call	 DWORD PTR __imp__EnterCriticalSection@4

; 559  : 						#ifdef __AUTO_NOTICE
; 560  : 							if( prj.m_EventLua.IsNoticeTime() )

  0031b	b9 88 00 00 00	 mov	 ecx, OFFSET FLAT:?prj@@3VCProject@@A+136
  00320	e8 00 00 00 00	 call	 ?IsNoticeTime@CEventLua@@QAEHXZ ; CEventLua::IsNoticeTime
  00325	85 c0		 test	 eax, eax
  00327	74 0a		 je	 SHORT $L213338

; 561  : 								g_dpCoreSrvr.SendEventLuaNotice();

  00329	b9 00 00 00 00	 mov	 ecx, OFFSET FLAT:?g_dpCoreSrvr@@3VCDPCoreSrvr@@A
  0032e	e8 00 00 00 00	 call	 ?SendEventLuaNotice@CDPCoreSrvr@@QAEXXZ ; CDPCoreSrvr::SendEventLuaNotice
$L213338:

; 562  : 						#endif // __AUTO_NOTICE
; 563  : 							if( prj.m_EventLua.CheckEventState() )

  00333	b9 88 00 00 00	 mov	 ecx, OFFSET FLAT:?prj@@3VCProject@@A+136
  00338	e8 00 00 00 00	 call	 ?CheckEventState@CEventLua@@QAEHXZ ; CEventLua::CheckEventState
  0033d	85 c0		 test	 eax, eax
  0033f	74 39		 je	 SHORT $L213339

; 564  : 								CDPTrans::GetInstance()->SendEventLuaState( prj.m_EventLua.m_mapState, TRUE );

  00341	6a 00		 push	 0
  00343	6a 01		 push	 1
  00345	83 ec 0c	 sub	 esp, 12			; 0000000cH
  00348	89 64 24 1c	 mov	 DWORD PTR $T223702[esp+16520], esp
  0034c	8b cc		 mov	 ecx, esp
  0034e	68 8c 00 00 00	 push	 OFFSET FLAT:?prj@@3VCProject@@A+140
  00353	e8 00 00 00 00	 call	 ??0?$_Tree@V?$_Tmap_traits@EHU?$less@E@std@@V?$allocator@U?$pair@$$CBEH@std@@@2@$0A@@std@@@std@@QAE@ABV01@@Z ; std::_Tree<std::_Tmap_traits<unsigned char,int,std::less<unsigned char>,std::allocator<std::pair<unsigned char const ,int> >,0> >::_Tree<std::_Tmap_traits<unsigned char,int,std::less<unsigned char>,std::allocator<std::pair<unsigned char const ,int> >,0> >
  00358	c7 84 24 84 40
	00 00 02 00 00
	00		 mov	 DWORD PTR __$EHRec$[esp+16528], 2
  00363	e8 00 00 00 00	 call	 ?GetInstance@CDPTrans@@SAPAV1@XZ ; CDPTrans::GetInstance
  00368	8b c8		 mov	 ecx, eax
  0036a	c7 84 24 84 40
	00 00 ff ff ff
	ff		 mov	 DWORD PTR __$EHRec$[esp+16528], -1
  00375	e8 00 00 00 00	 call	 ?SendEventLuaState@CDPTrans@@QAEXV?$map@EHU?$less@E@std@@V?$allocator@U?$pair@$$CBEH@std@@@2@@std@@HK@Z ; CDPTrans::SendEventLuaState
$L213339:

; 565  : 							prj.m_EventLua.m_Access.Leave();

  0037a	68 9c 00 00 00	 push	 OFFSET FLAT:?prj@@3VCProject@@A+156
  0037f	ff 15 00 00 00
	00		 call	 DWORD PTR __imp__LeaveCriticalSection@4

; 566  : 						#endif // __EVENTLUA
; 567  : 
; 568  : 						#if __VER >= 11 // __GUILD_COMBAT_1TO1
; 569  : 							if( prj.m_GuildCombat1to1.CheckOpenTIme() == 1
; 570  : 								&& prj.m_GuildCombat1to1.m_nState == CGuildCombat1to1Mng::GC1TO1_CLOSE )

  00385	b9 c0 00 00 00	 mov	 ecx, OFFSET FLAT:?prj@@3VCProject@@A+192
  0038a	e8 00 00 00 00	 call	 ?CheckOpenTIme@CGuildCombat1to1Mng@@QAEHXZ ; CGuildCombat1to1Mng::CheckOpenTIme
  0038f	83 f8 01	 cmp	 eax, 1
  00392	75 15		 jne	 SHORT $L213341
  00394	a1 c4 00 00 00	 mov	 eax, DWORD PTR ?prj@@3VCProject@@A+196
  00399	85 c0		 test	 eax, eax
  0039b	75 0c		 jne	 SHORT $L213341

; 571  : 								CDPTrans::GetInstance()->SendGC1to1Open();

  0039d	e8 00 00 00 00	 call	 ?GetInstance@CDPTrans@@SAPAV1@XZ ; CDPTrans::GetInstance
  003a2	8b c8		 mov	 ecx, eax
  003a4	e8 00 00 00 00	 call	 ?SendGC1to1Open@CDPTrans@@QAEXXZ ; CDPTrans::SendGC1to1Open
$L213341:

; 572  : 						#endif // __GUILD_COMBAT_1TO1
; 573  : 
; 574  : 						#ifdef __GETMAILREALTIME
; 575  : 							LPDB_OVERLAPPED_PLUS lpDbOverlappedPlus		= g_DbManager.AllocRequest();

  003a9	8b 0d 00 00 00
	00		 mov	 ecx, DWORD PTR ?g_DbManager@@3AAVCDbManager@@A ; g_DbManager
  003af	e8 00 00 00 00	 call	 ?AllocRequest@CDbManager@@QAEPAUtagDB_OVERLAPPED_PLUS@@XZ ; CDbManager::AllocRequest

; 576  : 							lpDbOverlappedPlus->nQueryMode	= QM_GETMAIL_REALTIME;
; 577  : 							PostQueuedCompletionStatus( g_DbManager.m_hIOCPGuild, 1, NULL, &lpDbOverlappedPlus->Overlapped );

  003b4	50		 push	 eax
  003b5	c7 40 14 55 00
	00 00		 mov	 DWORD PTR [eax+20], 85	; 00000055H
  003bc	a1 00 00 00 00	 mov	 eax, DWORD PTR ?g_DbManager@@3AAVCDbManager@@A ; g_DbManager
  003c1	8b 88 54 03 00
	00		 mov	 ecx, DWORD PTR [eax+852]
  003c7	6a 00		 push	 0
  003c9	6a 01		 push	 1
  003cb	51		 push	 ecx
  003cc	ff 15 00 00 00
	00		 call	 DWORD PTR __imp__PostQueuedCompletionStatus@16

; 578  : 							//g_DbManager.QueryGetMailRealTime();
; 579  : 						#endif // __GETMAILREALTIME
; 580  : 						}
; 581  : 						break;

  003d2	eb 19		 jmp	 SHORT $L213331
$L213335:

; 549  : 						break;
; 550  : 					case TID_QUERY_REMOVE_GUILD_BANK_TBL:
; 551  : 						g_DbManager.QueryRemoveGuildBankTbl();

  003d4	8b 0d 00 00 00
	00		 mov	 ecx, DWORD PTR ?g_DbManager@@3AAVCDbManager@@A ; g_DbManager
  003da	e8 00 00 00 00	 call	 ?QueryRemoveGuildBankTbl@CDbManager@@QAEHXZ ; CDbManager::QueryRemoveGuildBankTbl

; 552  : 						break;

  003df	eb 0c		 jmp	 SHORT $L213331
$L213334:

; 539  : 				{
; 540  : /*
; 541  : #ifdef __S0114_RELOADPRO
; 542  : 					case TID_RELOAD_PROJECT:
; 543  : 						g_dpAccountClient.ReloadProject();
; 544  : 						break;
; 545  : #endif // __S0114_RELOADPRO
; 546  : */
; 547  : 					case TID_POSTPROC:
; 548  : 						CPost::GetInstance()->Process();

  003e1	e8 00 00 00 00	 call	 ?GetInstance@CPost@@SAPAV1@XZ ; CPost::GetInstance
  003e6	8b c8		 mov	 ecx, eax
  003e8	e8 00 00 00 00	 call	 ?Process@CPost@@QAEXXZ	; CPost::Process
$L213331:

; 610  :    }
; 611  :    return 0;

  003ed	33 c0		 xor	 eax, eax
$L213293:

; 612  : }

  003ef	8b 8c 24 68 40
	00 00		 mov	 ecx, DWORD PTR __$EHRec$[esp+16500]
  003f6	64 89 0d 00 00
	00 00		 mov	 DWORD PTR fs:__except_list, ecx
  003fd	8b 8c 24 64 40
	00 00		 mov	 ecx, DWORD PTR __$ArrayPad$[esp+16500]
  00404	5f		 pop	 edi
  00405	5e		 pop	 esi
  00406	33 cc		 xor	 ecx, esp
  00408	e8 00 00 00 00	 call	 @__security_check_cookie@4
  0040d	81 c4 6c 40 00
	00		 add	 esp, 16492		; 0000406cH
  00413	c2 10 00	 ret	 16			; 00000010H
_TEXT	ENDS
;	COMDAT text$x
text$x	SEGMENT
$L223704:
  00000	8d 8d dc bf ff
	ff		 lea	 ecx, DWORD PTR _ar$213314[ebp]
  00006	e9 00 00 00 00	 jmp	 ??1CAr@@QAE@XZ		; CAr::~CAr
$L223705:
  0000b	8b 8d 94 bf ff
	ff		 mov	 ecx, DWORD PTR $T223700[ebp]
  00011	e9 00 00 00 00	 jmp	 ??1?$map@EHU?$less@E@std@@V?$allocator@U?$pair@$$CBEH@std@@@2@@std@@QAE@XZ
$L223706:
  00016	8b 8d 94 bf ff
	ff		 mov	 ecx, DWORD PTR $T223702[ebp]
  0001c	e9 00 00 00 00	 jmp	 ??1?$map@EHU?$less@E@std@@V?$allocator@U?$pair@$$CBEH@std@@@2@@std@@QAE@XZ
__ehhandler$?WndProc@@YGJPAUHWND__@@IIJ@Z:
  00021	b8 00 00 00 00	 mov	 eax, OFFSET FLAT:$T223741
  00026	e9 00 00 00 00	 jmp	 ___CxxFrameHandler
text$x	ENDS
?WndProc@@YGJPAUHWND__@@IIJ@Z ENDP			; WndProc
PUBLIC	?MyRegisterClass@@YAGPAUHINSTANCE__@@@Z		; MyRegisterClass
EXTRN	__imp__RegisterClassExA@4:NEAR
EXTRN	__imp__LoadCursorA@8:NEAR
EXTRN	__imp__LoadIconA@8:NEAR
; Function compile flags: /Ogty
;	COMDAT ?MyRegisterClass@@YAGPAUHINSTANCE__@@@Z
_TEXT	SEGMENT
_wcex$ = -48						; size = 48
_hInstance$ = 8						; size = 4
?MyRegisterClass@@YAGPAUHINSTANCE__@@@Z PROC NEAR	; MyRegisterClass, COMDAT

; 182  : {

  00000	83 ec 30	 sub	 esp, 48			; 00000030H

; 183  : 	WNDCLASSEX wcex;
; 184  : 
; 185  : 	wcex.cbSize = sizeof(WNDCLASSEX); 
; 186  : 
; 187  : 	wcex.style			= CS_HREDRAW | CS_VREDRAW;
; 188  : 	wcex.lpfnWndProc	= (WNDPROC)WndProc;
; 189  : 	wcex.cbClsExtra		= 0;
; 190  : 	wcex.cbWndExtra		= 0;
; 191  : 	wcex.hInstance		= hInstance;

  00003	8b 44 24 34	 mov	 eax, DWORD PTR _hInstance$[esp+44]
  00007	56		 push	 esi

; 192  : 	wcex.hIcon			= LoadIcon(hInstance, (LPCTSTR)IDI_DATABASESERVER);

  00008	8b 35 00 00 00
	00		 mov	 esi, DWORD PTR __imp__LoadIconA@8
  0000e	6a 6b		 push	 107			; 0000006bH
  00010	50		 push	 eax
  00011	c7 44 24 0c 30
	00 00 00	 mov	 DWORD PTR _wcex$[esp+60], 48 ; 00000030H
  00019	c7 44 24 10 03
	00 00 00	 mov	 DWORD PTR _wcex$[esp+64], 3
  00021	c7 44 24 14 00
	00 00 00	 mov	 DWORD PTR _wcex$[esp+68], OFFSET FLAT:?WndProc@@YGJPAUHWND__@@IIJ@Z ; WndProc
  00029	c7 44 24 18 00
	00 00 00	 mov	 DWORD PTR _wcex$[esp+72], 0
  00031	c7 44 24 1c 00
	00 00 00	 mov	 DWORD PTR _wcex$[esp+76], 0
  00039	89 44 24 20	 mov	 DWORD PTR _wcex$[esp+80], eax
  0003d	ff d6		 call	 esi

; 193  : 	wcex.hCursor		= LoadCursor(NULL, IDC_ARROW);

  0003f	68 00 7f 00 00	 push	 32512			; 00007f00H
  00044	6a 00		 push	 0
  00046	89 44 24 24	 mov	 DWORD PTR _wcex$[esp+84], eax
  0004a	ff 15 00 00 00
	00		 call	 DWORD PTR __imp__LoadCursorA@8
  00050	89 44 24 20	 mov	 DWORD PTR _wcex$[esp+80], eax

; 194  : //	wcex.hbrBackground	= (HBRUSH)(COLOR_WINDOW+1);
; 195  : 	wcex.hbrBackground	= (HBRUSH)COLOR_MENUTEXT;
; 196  : 	wcex.lpszMenuName	= (LPCSTR)IDC_DATABASESERVER;
; 197  : 	wcex.lpszClassName	= szWindowClass;
; 198  : 	wcex.hIconSm		= LoadIcon(wcex.hInstance, (LPCTSTR)IDI_SMALL);

  00054	8b 44 24 18	 mov	 eax, DWORD PTR _wcex$[esp+72]
  00058	6a 6c		 push	 108			; 0000006cH
  0005a	50		 push	 eax
  0005b	c7 44 24 2c 07
	00 00 00	 mov	 DWORD PTR _wcex$[esp+92], 7
  00063	c7 44 24 30 6d
	00 00 00	 mov	 DWORD PTR _wcex$[esp+96], 109 ; 0000006dH
  0006b	c7 44 24 34 00
	00 00 00	 mov	 DWORD PTR _wcex$[esp+100], OFFSET FLAT:?szWindowClass@@3PADA ; szWindowClass
  00073	ff d6		 call	 esi

; 199  : 
; 200  : 	return RegisterClassEx(&wcex);

  00075	8d 4c 24 04	 lea	 ecx, DWORD PTR _wcex$[esp+52]
  00079	51		 push	 ecx
  0007a	89 44 24 34	 mov	 DWORD PTR _wcex$[esp+100], eax
  0007e	ff 15 00 00 00
	00		 call	 DWORD PTR __imp__RegisterClassExA@4
  00084	5e		 pop	 esi

; 201  : }

  00085	83 c4 30	 add	 esp, 48			; 00000030H
  00088	c3		 ret	 0
?MyRegisterClass@@YAGPAUHINSTANCE__@@@Z ENDP		; MyRegisterClass
_TEXT	ENDS
PUBLIC	_WinMain@16
EXTRN	?install@ffl_dump_unexception_filter@@SAXH@Z:NEAR ; ffl_dump_unexception_filter::install
EXTRN	__imp__GetMessageA@16:NEAR
EXTRN	__imp__TranslateMessage@4:NEAR
EXTRN	__imp__DispatchMessageA@4:NEAR
; Function compile flags: /Ogty
;	COMDAT _WinMain@16
_TEXT	SEGMENT
_msg$ = -28						; size = 28
_hInstance$ = 8						; size = 4
_hPrevInstance$ = 12					; size = 4
_lpCmdLine$ = 16					; size = 4
_nCmdShow$ = 20						; size = 4
_WinMain@16 PROC NEAR					; COMDAT

; 147  : {

  00000	83 ec 1c	 sub	 esp, 28			; 0000001cH
  00003	56		 push	 esi
  00004	57		 push	 edi

; 148  : 
; 149  : 
; 150  : 
; 151  : 	//////////////////////////////////////////////////////////////////////////
; 152  : 	//	BEGINTEST100111	FFL_DUMP
; 153  :  	ffl_dump_unexception_filter::install( ffl_dump_level_heavy );

  00005	6a 03		 push	 3
  00007	e8 00 00 00 00	 call	 ?install@ffl_dump_unexception_filter@@SAXH@Z ; ffl_dump_unexception_filter::install

; 154  : 	//	ENDTEST100111	FFL_DUMP
; 155  : 	//////////////////////////////////////////////////////////////////////////
; 156  : 
; 157  : 
; 158  :  	InitLanguageFromResource( hInstance );

  0000c	8b 74 24 2c	 mov	 esi, DWORD PTR _hInstance$[esp+36]
  00010	56		 push	 esi
  00011	e8 00 00 00 00	 call	 ?InitLanguageFromResource@@YAXPAUHINSTANCE__@@@Z ; InitLanguageFromResource

; 159  : 
; 160  : 	LoadString( hInstance, IDS_APP_TITLE, szTitle, MAX_LOADSTRING );

  00016	8b 3d 00 00 00
	00		 mov	 edi, DWORD PTR __imp__LoadStringA@16
  0001c	83 c4 08	 add	 esp, 8
  0001f	6a 64		 push	 100			; 00000064H
  00021	68 00 00 00 00	 push	 OFFSET FLAT:?szTitle@@3PADA ; szTitle
  00026	6a 67		 push	 103			; 00000067H
  00028	56		 push	 esi
  00029	ff d7		 call	 edi

; 161  : 	LoadString( hInstance, IDC_DATABASESERVER, szWindowClass, MAX_LOADSTRING );

  0002b	6a 64		 push	 100			; 00000064H
  0002d	68 00 00 00 00	 push	 OFFSET FLAT:?szWindowClass@@3PADA ; szWindowClass
  00032	6a 6d		 push	 109			; 0000006dH
  00034	56		 push	 esi
  00035	ff d7		 call	 edi

; 162  : 	MyRegisterClass(hInstance);

  00037	56		 push	 esi
  00038	e8 00 00 00 00	 call	 ?MyRegisterClass@@YAGPAUHINSTANCE__@@@Z ; MyRegisterClass

; 163  : 
; 164  : 	if (!InitInstance (hInstance, nCmdShow)) 

  0003d	8b 44 24 38	 mov	 eax, DWORD PTR _nCmdShow$[esp+36]
  00041	50		 push	 eax
  00042	56		 push	 esi
  00043	e8 00 00 00 00	 call	 ?InitInstance@@YAHPAUHINSTANCE__@@H@Z ; InitInstance
  00048	83 c4 0c	 add	 esp, 12			; 0000000cH
  0004b	85 c0		 test	 eax, eax
  0004d	75 0f		 jne	 SHORT $L223752

; 165  : 	{
; 166  : 		ExitInstance();

  0004f	e8 00 00 00 00	 call	 ?ExitInstance@@YAXXZ	; ExitInstance
  00054	5f		 pop	 edi

; 167  : 		return FALSE;

  00055	33 c0		 xor	 eax, eax
  00057	5e		 pop	 esi

; 179  : }

  00058	83 c4 1c	 add	 esp, 28			; 0000001cH
  0005b	c2 10 00	 ret	 16			; 00000010H
$L223752:

; 168  : 	}
; 169  : 
; 170  : 	MSG msg;
; 171  : 	while (GetMessage(&msg, NULL, 0, 0)) 

  0005e	8b 35 00 00 00
	00		 mov	 esi, DWORD PTR __imp__GetMessageA@16
  00064	6a 00		 push	 0
  00066	6a 00		 push	 0
  00068	6a 00		 push	 0
  0006a	8d 4c 24 14	 lea	 ecx, DWORD PTR _msg$[esp+48]
  0006e	51		 push	 ecx
  0006f	ff d6		 call	 esi
  00071	85 c0		 test	 eax, eax
  00073	74 2d		 je	 SHORT $L213185
  00075	8b 3d 00 00 00
	00		 mov	 edi, DWORD PTR __imp__TranslateMessage@4
  0007b	53		 push	 ebx
  0007c	8b 1d 00 00 00
	00		 mov	 ebx, DWORD PTR __imp__DispatchMessageA@4
$L213184:

; 172  : 	{
; 173  : 		TranslateMessage(&msg);

  00082	8d 54 24 0c	 lea	 edx, DWORD PTR _msg$[esp+40]
  00086	52		 push	 edx
  00087	ff d7		 call	 edi

; 174  : 		DispatchMessage(&msg);

  00089	8d 44 24 0c	 lea	 eax, DWORD PTR _msg$[esp+40]
  0008d	50		 push	 eax
  0008e	ff d3		 call	 ebx
  00090	6a 00		 push	 0
  00092	6a 00		 push	 0
  00094	6a 00		 push	 0
  00096	8d 4c 24 18	 lea	 ecx, DWORD PTR _msg$[esp+52]
  0009a	51		 push	 ecx
  0009b	ff d6		 call	 esi
  0009d	85 c0		 test	 eax, eax
  0009f	75 e1		 jne	 SHORT $L213184
  000a1	5b		 pop	 ebx
$L213185:

; 175  : 	}
; 176  : 	ExitInstance();

  000a2	e8 00 00 00 00	 call	 ?ExitInstance@@YAXXZ	; ExitInstance

; 177  : 
; 178  : 	return msg.wParam;

  000a7	8b 44 24 10	 mov	 eax, DWORD PTR _msg$[esp+44]
  000ab	5f		 pop	 edi
  000ac	5e		 pop	 esi

; 179  : }

  000ad	83 c4 1c	 add	 esp, 28			; 0000001cH
  000b0	c2 10 00	 ret	 16			; 00000010H
_WinMain@16 ENDP
_TEXT	ENDS
END
