 DatabaseServer

 Timestamp is 525dbe18 (Tue Oct 15 18:13:44 2013)

 Preferred load address is 00400000

 Start         Length     Name                   Class
 0001:00000000 000ff566H .text                   CODE
 0001:000ff566 00000cf8H .text$AFX_AUX           CODE
 0001:0010025e 000001c9H .text$AFX_CMNCTL        CODE
 0001:00100427 00001418H .text$AFX_COL1          CODE
 0001:0010183f 000002e2H .text$AFX_COL2          CODE
 0001:00101b21 0000ab25H .text$AFX_CORE1         CODE
 0001:0010c646 000034f6H .text$AFX_CORE2         CODE
 0001:0010fb3c 000022d7H .text$AFX_CORE3         CODE
 0001:00111e13 00000751H .text$AFX_CORE4         CODE
 0001:00112564 00003e3aH .text$AFX_INIT          CODE
 0001:0011639e 000014d6H .text$AFX_OLE1          CODE
 0001:00117874 000000ecH .text$AFX_TERM          CODE
 0001:00117960 000071e5H .text$x                 CODE
 0001:0011eb50 0000055dH .text$yc                CODE
 0001:0011f0b0 00000288H .text$yd                CODE
 0002:00000000 000008ecH .idata$5                DATA
 0002:000008f0 00021188H .rdata                  DATA
 0002:00021a78 0000008fH .rdata$debug            DATA
 0002:00021b08 00000298H .rdata$ilfixup          DATA
 0002:00021da0 000013bcH .rdata$r                DATA
 0002:0002315c 00000004H .rtc$IAA                DATA
 0002:00023160 00000004H .rtc$IZZ                DATA
 0002:00023164 00000004H .rtc$TAA                DATA
 0002:00023168 00000004H .rtc$TZZ                DATA
 0002:0002316c 00009f6cH .xdata$x                DATA
 0002:0002d0d8 00000004H ATL$__a                 DATA
 0002:0002d0dc 00000004H ATL$__z                 DATA
 0002:0002d0e0 00000168H .idata$2                DATA
 0002:0002d248 00000014H .idata$3                DATA
 0002:0002d25c 000008ecH .idata$4                DATA
 0002:0002db48 00002168H .idata$6                DATA
 0002:0002fcb0 00000000H .edata                  DATA
 0003:00000000 00000004H .CRT$XCA                DATA
 0003:00000004 00000004H .CRT$XCA0               DATA
 0003:00000008 00000004H .CRT$XCAA               DATA
 0003:0000000c 0000000cH .CRT$XCC                DATA
 0003:00000018 00000008H .CRT$XCL                DATA
 0003:00000020 00000094H .CRT$XCU                DATA
 0003:000000b4 00000004H .CRT$XCZ                DATA
 0003:000000b8 00000004H .CRT$XIA                DATA
 0003:000000bc 00000014H .CRT$XIC                DATA
 0003:000000d0 00000004H .CRT$XIY                DATA
 0003:000000d4 00000004H .CRT$XIZ                DATA
 0003:000000d8 00000004H .CRT$XPA                DATA
 0003:000000dc 00000008H .CRT$XPX                DATA
 0003:000000e4 00000004H .CRT$XPZ                DATA
 0003:000000e8 00000004H .CRT$XTA                DATA
 0003:000000ec 00000004H .CRT$XTB                DATA
 0003:000000f0 00000004H .CRT$XTZ                DATA
 0003:00000100 00005fe0H .data                   DATA
 0003:000060e0 00078a74H .bss                    DATA
 0004:00000000 000002f8H .rsrc$01                DATA
 0004:00000300 00000e68H .rsrc$02                DATA

  Address         Publics by Value              Rva+Base     Lib:Object

 0000:00000000       ___safe_se_handler_count   00000000     <absolute>
 0000:00000000       ___safe_se_handler_table   00000000     <absolute>
 0000:00000000       __except_list              00000000     <absolute>
 0000:00000000       ___ImageBase               00400000     <linker-defined>
 0001:00000000       ??2@YAPAXIPAX@Z            00401000 f i AccountCacheMgr.obj
 0001:00000010       ??3@YAXPAX0@Z              00401010 f i AccountCacheMgr.obj
 0001:00000020       ?size@?$list@PAUACCOUNT_CACHE@@V?$allocator@PAUACCOUNT_CACHE@@@std@@@std@@QBEIXZ 00401020 f i AccountCacheMgr.obj
 0001:00000030       ?_Isnil@?$_Tree@V?$_Tmap_traits@V?$basic_string@DU?$char_traits@D@std@@V?$allocator@D@2@@std@@PAUACCOUNT_CACHE@@U?$less@V?$basic_string@DU?$char_traits@D@std@@V?$allocator@D@2@@std@@@2@V?$allocator@U?$pair@$$CBV?$basic_string@DU?$char_traits@D@std@@V?$allocator@D@2@@std@@PAUACCOUNT_CACHE@@@std@@@2@$0A@@std@@@std@@KAAADPAU_Node@?$_Tree_nod@V?$_Tmap_traits@V?$basic_string@DU?$char_traits@D@std@@V?$allocator@D@2@@std@@PAUACCOUNT_CACHE@@U?$less@V?$basic_string@DU?$char_traits@D@std@@V?$allocator@D@2@@std@@@2@V?$allocator@U?$pair@$$CBV?$basic_string@DU?$char_traits@D@std@@V?$allocator@D@2@@std@@PAUACCOUNT_CACHE@@@std@@@2@$0A@@std@@@2@@Z 00401030 f i AccountCacheMgr.obj
 0001:00000040       ?_Left@?$_Tree@V?$_Tmap_traits@V?$basic_string@DU?$char_traits@D@std@@V?$allocator@D@2@@std@@PAUACCOUNT_CACHE@@U?$less@V?$basic_string@DU?$char_traits@D@std@@V?$allocator@D@2@@std@@@2@V?$allocator@U?$pair@$$CBV?$basic_string@DU?$char_traits@D@std@@V?$allocator@D@2@@std@@PAUACCOUNT_CACHE@@@std@@@2@$0A@@std@@@std@@KAAAPAU_Node@?$_Tree_nod@V?$_Tmap_traits@V?$basic_string@DU?$char_traits@D@std@@V?$allocator@D@2@@std@@PAUACCOUNT_CACHE@@U?$less@V?$basic_string@DU?$char_traits@D@std@@V?$allocator@D@2@@std@@@2@V?$allocator@U?$pair@$$CBV?$basic_string@DU?$char_traits@D@std@@V?$allocator@D@2@@std@@PAUACCOUNT_CACHE@@@std@@@2@$0A@@std@@@2@PAU342@@Z 00401040 f i AccountCacheMgr.obj
 0001:00000050       ?_Right@?$_Tree@V?$_Tmap_traits@V?$basic_string@DU?$char_traits@D@std@@V?$allocator@D@2@@std@@PAUACCOUNT_CACHE@@U?$less@V?$basic_string@DU?$char_traits@D@std@@V?$allocator@D@2@@std@@@2@V?$allocator@U?$pair@$$CBV?$basic_string@DU?$char_traits@D@std@@V?$allocator@D@2@@std@@PAUACCOUNT_CACHE@@@std@@@2@$0A@@std@@@std@@KAAAPAU_Node@?$_Tree_nod@V?$_Tmap_traits@V?$basic_string@DU?$char_traits@D@std@@V?$allocator@D@2@@std@@PAUACCOUNT_CACHE@@U?$less@V?$basic_string@DU?$char_traits@D@std@@V?$allocator@D@2@@std@@@2@V?$allocator@U?$pair@$$CBV?$basic_string@DU?$char_traits@D@std@@V?$allocator@D@2@@std@@PAUACCOUNT_CACHE@@@std@@@2@$0A@@std@@@2@PAU342@@Z 00401050 f i AccountCacheMgr.obj
 0001:00000060       ?_Lmost@?$_Tree@V?$_Tmap_traits@V?$basic_string@DU?$char_traits@D@std@@V?$allocator@D@2@@std@@PAUACCOUNT_CACHE@@U?$less@V?$basic_string@DU?$char_traits@D@std@@V?$allocator@D@2@@std@@@2@V?$allocator@U?$pair@$$CBV?$basic_string@DU?$char_traits@D@std@@V?$allocator@D@2@@std@@PAUACCOUNT_CACHE@@@std@@@2@$0A@@std@@@std@@IAEAAPAU_Node@?$_Tree_nod@V?$_Tmap_traits@V?$basic_string@DU?$char_traits@D@std@@V?$allocator@D@2@@std@@PAUACCOUNT_CACHE@@U?$less@V?$basic_string@DU?$char_traits@D@std@@V?$allocator@D@2@@std@@@2@V?$allocator@U?$pair@$$CBV?$basic_string@DU?$char_traits@D@std@@V?$allocator@D@2@@std@@PAUACCOUNT_CACHE@@@std@@@2@$0A@@std@@@2@XZ 00401060 f i AccountCacheMgr.obj
 0001:00000070       ?_Rmost@?$_Tree@V?$_Tmap_traits@V?$basic_string@DU?$char_traits@D@std@@V?$allocator@D@2@@std@@PAUACCOUNT_CACHE@@U?$less@V?$basic_string@DU?$char_traits@D@std@@V?$allocator@D@2@@std@@@2@V?$allocator@U?$pair@$$CBV?$basic_string@DU?$char_traits@D@std@@V?$allocator@D@2@@std@@PAUACCOUNT_CACHE@@@std@@@2@$0A@@std@@@std@@IAEAAPAU_Node@?$_Tree_nod@V?$_Tmap_traits@V?$basic_string@DU?$char_traits@D@std@@V?$allocator@D@2@@std@@PAUACCOUNT_CACHE@@U?$less@V?$basic_string@DU?$char_traits@D@std@@V?$allocator@D@2@@std@@@2@V?$allocator@U?$pair@$$CBV?$basic_string@DU?$char_traits@D@std@@V?$allocator@D@2@@std@@PAUACCOUNT_CACHE@@@std@@@2@$0A@@std@@@2@XZ 00401070 f i AccountCacheMgr.obj
 0001:00000080       ?_Kfn@?$_Tmap_traits@V?$basic_string@DU?$char_traits@D@std@@V?$allocator@D@2@@std@@PAUACCOUNT_CACHE@@U?$less@V?$basic_string@DU?$char_traits@D@std@@V?$allocator@D@2@@std@@@2@V?$allocator@U?$pair@$$CBV?$basic_string@DU?$char_traits@D@std@@V?$allocator@D@2@@std@@PAUACCOUNT_CACHE@@@std@@@2@$0A@@std@@SAABV?$basic_string@DU?$char_traits@D@std@@V?$allocator@D@2@@2@ABU?$pair@$$CBV?$basic_string@DU?$char_traits@D@std@@V?$allocator@D@2@@std@@PAUACCOUNT_CACHE@@@2@@Z 00401080 f i AccountCacheMgr.obj
 0001:00000090       ??0?$allocator@U?$pair@$$CBV?$basic_string@DU?$char_traits@D@std@@V?$allocator@D@2@@std@@PAUACCOUNT_CACHE@@@std@@@std@@QAE@XZ 00401090 f i AccountCacheMgr.obj
 0001:000000a0       ?_Nextnode@?$list@PAUACCOUNT_CACHE@@V?$allocator@PAUACCOUNT_CACHE@@@std@@@std@@KAAAPAU_Node@?$_List_nod@PAUACCOUNT_CACHE@@V?$allocator@PAUACCOUNT_CACHE@@@std@@@2@PAU342@@Z 004010a0 f i AccountCacheMgr.obj
 0001:000000b0       ?_Prevnode@?$list@PAUACCOUNT_CACHE@@V?$allocator@PAUACCOUNT_CACHE@@@std@@@std@@KAAAPAU_Node@?$_List_nod@PAUACCOUNT_CACHE@@V?$allocator@PAUACCOUNT_CACHE@@@std@@@2@PAU342@@Z 004010b0 f i AccountCacheMgr.obj
 0001:000000c0       ??0?$allocator@PAUACCOUNT_CACHE@@@std@@QAE@XZ 004010c0 f i AccountCacheMgr.obj
 0001:000000d0       ?deallocate@?$allocator@U_Node@?$_List_nod@PAUACCOUNT_CACHE@@V?$allocator@PAUACCOUNT_CACHE@@@std@@@std@@@std@@QAEXPAU_Node@?$_List_nod@PAUACCOUNT_CACHE@@V?$allocator@PAUACCOUNT_CACHE@@@std@@@2@I@Z 004010d0 f i AccountCacheMgr.obj
 0001:000000e0       ??8const_iterator@?$_Tree@V?$_Tmap_traits@V?$basic_string@DU?$char_traits@D@std@@V?$allocator@D@2@@std@@PAUACCOUNT_CACHE@@U?$less@V?$basic_string@DU?$char_traits@D@std@@V?$allocator@D@2@@std@@@2@V?$allocator@U?$pair@$$CBV?$basic_string@DU?$char_traits@D@std@@V?$allocator@D@2@@std@@PAUACCOUNT_CACHE@@@std@@@2@$0A@@std@@@std@@QBE_NABV012@@Z 004010e0 f i AccountCacheMgr.obj
 0001:000000f0       ?_Mynode@const_iterator@?$_Tree@V?$_Tmap_traits@V?$basic_string@DU?$char_traits@D@std@@V?$allocator@D@2@@std@@PAUACCOUNT_CACHE@@U?$less@V?$basic_string@DU?$char_traits@D@std@@V?$allocator@D@2@@std@@@2@V?$allocator@U?$pair@$$CBV?$basic_string@DU?$char_traits@D@std@@V?$allocator@D@2@@std@@PAUACCOUNT_CACHE@@@std@@@2@$0A@@std@@@std@@QBEPAU_Node@?$_Tree_nod@V?$_Tmap_traits@V?$basic_string@DU?$char_traits@D@std@@V?$allocator@D@2@@std@@PAUACCOUNT_CACHE@@U?$less@V?$basic_string@DU?$char_traits@D@std@@V?$allocator@D@2@@std@@@2@V?$allocator@U?$pair@$$CBV?$basic_string@DU?$char_traits@D@std@@V?$allocator@D@2@@std@@PAUACCOUNT_CACHE@@@std@@@2@$0A@@std@@@3@XZ 004010f0 f i AccountCacheMgr.obj
 0001:00000100       ??0?$pair@Viterator@?$_Tree@V?$_Tmap_traits@V?$basic_string@DU?$char_traits@D@std@@V?$allocator@D@2@@std@@PAUACCOUNT_CACHE@@U?$less@V?$basic_string@DU?$char_traits@D@std@@V?$allocator@D@2@@std@@@2@V?$allocator@U?$pair@$$CBV?$basic_string@DU?$char_traits@D@std@@V?$allocator@D@2@@std@@PAUACCOUNT_CACHE@@@std@@@2@$0A@@std@@@std@@_N@std@@QAE@ABViterator@?$_Tree@V?$_Tmap_traits@V?$basic_string@DU?$char_traits@D@std@@V?$allocator@D@2@@std@@PAUACCOUNT_CACHE@@U?$less@V?$basic_string@DU?$char_traits@D@std@@V?$allocator@D@2@@std@@@2@V?$allocator@U?$pair@$$CBV?$basic_string@DU?$char_traits@D@std@@V?$allocator@D@2@@std@@PAUACCOUNT_CACHE@@@std@@@2@$0A@@std@@@1@AB_N@Z 00401100 f i AccountCacheMgr.obj
 0001:00000120       ?_Mynode@const_iterator@?$list@PAUACCOUNT_CACHE@@V?$allocator@PAUACCOUNT_CACHE@@@std@@@std@@QBEPAU_Node@?$_List_nod@PAUACCOUNT_CACHE@@V?$allocator@PAUACCOUNT_CACHE@@@std@@@3@XZ 00401120 f i AccountCacheMgr.obj
 0001:00000130       ?_Color@?$_Tree@V?$_Tmap_traits@V?$basic_string@DU?$char_traits@D@std@@V?$allocator@D@2@@std@@PAUACCOUNT_CACHE@@U?$less@V?$basic_string@DU?$char_traits@D@std@@V?$allocator@D@2@@std@@@2@V?$allocator@U?$pair@$$CBV?$basic_string@DU?$char_traits@D@std@@V?$allocator@D@2@@std@@PAUACCOUNT_CACHE@@@std@@@2@$0A@@std@@@std@@KAAADPAU_Node@?$_Tree_nod@V?$_Tmap_traits@V?$basic_string@DU?$char_traits@D@std@@V?$allocator@D@2@@std@@PAUACCOUNT_CACHE@@U?$less@V?$basic_string@DU?$char_traits@D@std@@V?$allocator@D@2@@std@@@2@V?$allocator@U?$pair@$$CBV?$basic_string@DU?$char_traits@D@std@@V?$allocator@D@2@@std@@PAUACCOUNT_CACHE@@@std@@@2@$0A@@std@@@2@@Z 00401130 f i AccountCacheMgr.obj
 0001:00000140       ?_Parent@?$_Tree@V?$_Tmap_traits@V?$basic_string@DU?$char_traits@D@std@@V?$allocator@D@2@@std@@PAUACCOUNT_CACHE@@U?$less@V?$basic_string@DU?$char_traits@D@std@@V?$allocator@D@2@@std@@@2@V?$allocator@U?$pair@$$CBV?$basic_string@DU?$char_traits@D@std@@V?$allocator@D@2@@std@@PAUACCOUNT_CACHE@@@std@@@2@$0A@@std@@@std@@KAAAPAU_Node@?$_Tree_nod@V?$_Tmap_traits@V?$basic_string@DU?$char_traits@D@std@@V?$allocator@D@2@@std@@PAUACCOUNT_CACHE@@U?$less@V?$basic_string@DU?$char_traits@D@std@@V?$allocator@D@2@@std@@@2@V?$allocator@U?$pair@$$CBV?$basic_string@DU?$char_traits@D@std@@V?$allocator@D@2@@std@@PAUACCOUNT_CACHE@@@std@@@2@$0A@@std@@@2@PAU342@@Z 00401140 f i AccountCacheMgr.obj
 0001:00000150       ?_Myval@?$_Tree@V?$_Tmap_traits@V?$basic_string@DU?$char_traits@D@std@@V?$allocator@D@2@@std@@PAUACCOUNT_CACHE@@U?$less@V?$basic_string@DU?$char_traits@D@std@@V?$allocator@D@2@@std@@@2@V?$allocator@U?$pair@$$CBV?$basic_string@DU?$char_traits@D@std@@V?$allocator@D@2@@std@@PAUACCOUNT_CACHE@@@std@@@2@$0A@@std@@@std@@KAAAU?$pair@$$CBV?$basic_string@DU?$char_traits@D@std@@V?$allocator@D@2@@std@@PAUACCOUNT_CACHE@@@2@PAU_Node@?$_Tree_nod@V?$_Tmap_traits@V?$basic_string@DU?$char_traits@D@std@@V?$allocator@D@2@@std@@PAUACCOUNT_CACHE@@U?$less@V?$basic_string@DU?$char_traits@D@std@@V?$allocator@D@2@@std@@@2@V?$allocator@U?$pair@$$CBV?$basic_string@DU?$char_traits@D@std@@V?$allocator@D@2@@std@@PAUACCOUNT_CACHE@@@std@@@2@$0A@@std@@@2@@Z 00401150 f i AccountCacheMgr.obj
 0001:00000160       ??0?$allocator@U?$pair@$$CBV?$basic_string@DU?$char_traits@D@std@@V?$allocator@D@2@@std@@PAUACCOUNT_CACHE@@@std@@@std@@QAE@ABV01@@Z 00401160 f i AccountCacheMgr.obj
 0001:00000170       ?deallocate@?$allocator@U_Node@?$_Tree_nod@V?$_Tmap_traits@V?$basic_string@DU?$char_traits@D@std@@V?$allocator@D@2@@std@@PAUACCOUNT_CACHE@@U?$less@V?$basic_string@DU?$char_traits@D@std@@V?$allocator@D@2@@std@@@2@V?$allocator@U?$pair@$$CBV?$basic_string@DU?$char_traits@D@std@@V?$allocator@D@2@@std@@PAUACCOUNT_CACHE@@@std@@@2@$0A@@std@@@std@@@std@@QAEXPAU_Node@?$_Tree_nod@V?$_Tmap_traits@V?$basic_string@DU?$char_traits@D@std@@V?$allocator@D@2@@std@@PAUACCOUNT_CACHE@@U?$less@V?$basic_string@DU?$char_traits@D@std@@V?$allocator@D@2@@std@@@2@V?$allocator@U?$pair@$$CBV?$basic_string@DU?$char_traits@D@std@@V?$allocator@D@2@@std@@PAUACCOUNT_CACHE@@@std@@@2@$0A@@std@@@2@I@Z 00401170 f i AccountCacheMgr.obj
 0001:00000180       ??0?$allocator@PAUACCOUNT_CACHE@@@std@@QAE@ABV01@@Z 00401180 f i AccountCacheMgr.obj
 0001:00000190       ??0const_iterator@?$_Tree@V?$_Tmap_traits@V?$basic_string@DU?$char_traits@D@std@@V?$allocator@D@2@@std@@PAUACCOUNT_CACHE@@U?$less@V?$basic_string@DU?$char_traits@D@std@@V?$allocator@D@2@@std@@@2@V?$allocator@U?$pair@$$CBV?$basic_string@DU?$char_traits@D@std@@V?$allocator@D@2@@std@@PAUACCOUNT_CACHE@@@std@@@2@$0A@@std@@@std@@QAE@PAU_Node@?$_Tree_nod@V?$_Tmap_traits@V?$basic_string@DU?$char_traits@D@std@@V?$allocator@D@2@@std@@PAUACCOUNT_CACHE@@U?$less@V?$basic_string@DU?$char_traits@D@std@@V?$allocator@D@2@@std@@@2@V?$allocator@U?$pair@$$CBV?$basic_string@DU?$char_traits@D@std@@V?$allocator@D@2@@std@@PAUACCOUNT_CACHE@@@std@@@2@$0A@@std@@@2@@Z 00401190 f i AccountCacheMgr.obj
 0001:000001a0       ??Dconst_iterator@?$_Tree@V?$_Tmap_traits@V?$basic_string@DU?$char_traits@D@std@@V?$allocator@D@2@@std@@PAUACCOUNT_CACHE@@U?$less@V?$basic_string@DU?$char_traits@D@std@@V?$allocator@D@2@@std@@@2@V?$allocator@U?$pair@$$CBV?$basic_string@DU?$char_traits@D@std@@V?$allocator@D@2@@std@@PAUACCOUNT_CACHE@@@std@@@2@$0A@@std@@@std@@QBEABU?$pair@$$CBV?$basic_string@DU?$char_traits@D@std@@V?$allocator@D@2@@std@@PAUACCOUNT_CACHE@@@2@XZ 004011a0 f i AccountCacheMgr.obj
 0001:000001b0       ??0const_iterator@?$list@PAUACCOUNT_CACHE@@V?$allocator@PAUACCOUNT_CACHE@@@std@@@std@@QAE@PAU_Node@?$_List_nod@PAUACCOUNT_CACHE@@V?$allocator@PAUACCOUNT_CACHE@@@std@@@2@@Z 004011b0 f i AccountCacheMgr.obj
 0001:000001c0       ??Fconst_iterator@?$list@PAUACCOUNT_CACHE@@V?$allocator@PAUACCOUNT_CACHE@@@std@@@std@@QAEAAV012@XZ 004011c0 f i AccountCacheMgr.obj
 0001:000001d0       ??0?$pair@Viterator@?$_Tree@V?$_Tmap_traits@V?$basic_string@DU?$char_traits@D@std@@V?$allocator@D@2@@std@@PAUACCOUNT_CACHE@@U?$less@V?$basic_string@DU?$char_traits@D@std@@V?$allocator@D@2@@std@@@2@V?$allocator@U?$pair@$$CBV?$basic_string@DU?$char_traits@D@std@@V?$allocator@D@2@@std@@PAUACCOUNT_CACHE@@@std@@@2@$0A@@std@@@std@@V123@@std@@QAE@ABViterator@?$_Tree@V?$_Tmap_traits@V?$basic_string@DU?$char_traits@D@std@@V?$allocator@D@2@@std@@PAUACCOUNT_CACHE@@U?$less@V?$basic_string@DU?$char_traits@D@std@@V?$allocator@D@2@@std@@@2@V?$allocator@U?$pair@$$CBV?$basic_string@DU?$char_traits@D@std@@V?$allocator@D@2@@std@@PAUACCOUNT_CACHE@@@std@@@2@$0A@@std@@@1@0@Z 004011d0 f i AccountCacheMgr.obj
 0001:000001f0       ?_Max@?$_Tree@V?$_Tmap_traits@V?$basic_string@DU?$char_traits@D@std@@V?$allocator@D@2@@std@@PAUACCOUNT_CACHE@@U?$less@V?$basic_string@DU?$char_traits@D@std@@V?$allocator@D@2@@std@@@2@V?$allocator@U?$pair@$$CBV?$basic_string@DU?$char_traits@D@std@@V?$allocator@D@2@@std@@PAUACCOUNT_CACHE@@@std@@@2@$0A@@std@@@std@@KAPAU_Node@?$_Tree_nod@V?$_Tmap_traits@V?$basic_string@DU?$char_traits@D@std@@V?$allocator@D@2@@std@@PAUACCOUNT_CACHE@@U?$less@V?$basic_string@DU?$char_traits@D@std@@V?$allocator@D@2@@std@@@2@V?$allocator@U?$pair@$$CBV?$basic_string@DU?$char_traits@D@std@@V?$allocator@D@2@@std@@PAUACCOUNT_CACHE@@@std@@@2@$0A@@std@@@2@PAU342@@Z 004011f0 f i AccountCacheMgr.obj
 0001:00000210       ?_Min@?$_Tree@V?$_Tmap_traits@V?$basic_string@DU?$char_traits@D@std@@V?$allocator@D@2@@std@@PAUACCOUNT_CACHE@@U?$less@V?$basic_string@DU?$char_traits@D@std@@V?$allocator@D@2@@std@@@2@V?$allocator@U?$pair@$$CBV?$basic_string@DU?$char_traits@D@std@@V?$allocator@D@2@@std@@PAUACCOUNT_CACHE@@@std@@@2@$0A@@std@@@std@@KAPAU_Node@?$_Tree_nod@V?$_Tmap_traits@V?$basic_string@DU?$char_traits@D@std@@V?$allocator@D@2@@std@@PAUACCOUNT_CACHE@@U?$less@V?$basic_string@DU?$char_traits@D@std@@V?$allocator@D@2@@std@@@2@V?$allocator@U?$pair@$$CBV?$basic_string@DU?$char_traits@D@std@@V?$allocator@D@2@@std@@PAUACCOUNT_CACHE@@@std@@@2@$0A@@std@@@2@PAU342@@Z 00401210 f i AccountCacheMgr.obj
 0001:00000230       ?_Root@?$_Tree@V?$_Tmap_traits@V?$basic_string@DU?$char_traits@D@std@@V?$allocator@D@2@@std@@PAUACCOUNT_CACHE@@U?$less@V?$basic_string@DU?$char_traits@D@std@@V?$allocator@D@2@@std@@@2@V?$allocator@U?$pair@$$CBV?$basic_string@DU?$char_traits@D@std@@V?$allocator@D@2@@std@@PAUACCOUNT_CACHE@@@std@@@2@$0A@@std@@@std@@IBEAAPAU_Node@?$_Tree_nod@V?$_Tmap_traits@V?$basic_string@DU?$char_traits@D@std@@V?$allocator@D@2@@std@@PAUACCOUNT_CACHE@@U?$less@V?$basic_string@DU?$char_traits@D@std@@V?$allocator@D@2@@std@@@2@V?$allocator@U?$pair@$$CBV?$basic_string@DU?$char_traits@D@std@@V?$allocator@D@2@@std@@PAUACCOUNT_CACHE@@@std@@@2@$0A@@std@@@2@XZ 00401230 f i AccountCacheMgr.obj
 0001:00000240       ?max_size@?$allocator@U?$pair@$$CBV?$basic_string@DU?$char_traits@D@std@@V?$allocator@D@2@@std@@PAUACCOUNT_CACHE@@@std@@@std@@QBEIXZ 00401240 f i AccountCacheMgr.obj
 0001:00000250       ?_Myval@?$list@PAUACCOUNT_CACHE@@V?$allocator@PAUACCOUNT_CACHE@@@std@@@std@@KAAAPAUACCOUNT_CACHE@@PAU_Node@?$_List_nod@PAUACCOUNT_CACHE@@V?$allocator@PAUACCOUNT_CACHE@@@std@@@2@@Z 00401250 f i AccountCacheMgr.obj
 0001:00000260       ?_Dec@const_iterator@?$_Tree@V?$_Tmap_traits@V?$basic_string@DU?$char_traits@D@std@@V?$allocator@D@2@@std@@PAUACCOUNT_CACHE@@U?$less@V?$basic_string@DU?$char_traits@D@std@@V?$allocator@D@2@@std@@@2@V?$allocator@U?$pair@$$CBV?$basic_string@DU?$char_traits@D@std@@V?$allocator@D@2@@std@@PAUACCOUNT_CACHE@@@std@@@2@$0A@@std@@@std@@QAEXXZ 00401260 f i AccountCacheMgr.obj
 0001:000002c0       ??Econst_iterator@?$list@PAUACCOUNT_CACHE@@V?$allocator@PAUACCOUNT_CACHE@@@std@@@std@@QAEAAV012@XZ 004012c0 f i AccountCacheMgr.obj
 0001:000002d0       ??0_Node@?$_List_nod@PAUACCOUNT_CACHE@@V?$allocator@PAUACCOUNT_CACHE@@@std@@@std@@QAE@PAU012@0ABQAUACCOUNT_CACHE@@@Z 004012d0 f i AccountCacheMgr.obj
 0001:000002f0       ?max_size@?$allocator@PAUACCOUNT_CACHE@@@std@@QBEIXZ 004012f0 f i AccountCacheMgr.obj
 0001:00000300       ??0?$_Tmap_traits@V?$basic_string@DU?$char_traits@D@std@@V?$allocator@D@2@@std@@PAUACCOUNT_CACHE@@U?$less@V?$basic_string@DU?$char_traits@D@std@@V?$allocator@D@2@@std@@@2@V?$allocator@U?$pair@$$CBV?$basic_string@DU?$char_traits@D@std@@V?$allocator@D@2@@std@@PAUACCOUNT_CACHE@@@std@@@2@$0A@@std@@QAE@U?$less@V?$basic_string@DU?$char_traits@D@std@@V?$allocator@D@2@@std@@@1@@Z 00401300 f i AccountCacheMgr.obj
 0001:00000310       ??0?$CItemContainer@VCItemElem@@@@QAE@XZ 00401310 f i AccountCacheMgr.obj
 0001:00000330       ??$_Destroy@U_Node@?$_List_nod@PAUACCOUNT_CACHE@@V?$allocator@PAUACCOUNT_CACHE@@@std@@@std@@@std@@YAXPAU_Node@?$_List_nod@PAUACCOUNT_CACHE@@V?$allocator@PAUACCOUNT_CACHE@@@std@@@0@@Z 00401330 f i AccountCacheMgr.obj
 0001:00000340       ??$_Destroy@PAU_Node@?$_Tree_nod@V?$_Tmap_traits@V?$basic_string@DU?$char_traits@D@std@@V?$allocator@D@2@@std@@PAUACCOUNT_CACHE@@U?$less@V?$basic_string@DU?$char_traits@D@std@@V?$allocator@D@2@@std@@@2@V?$allocator@U?$pair@$$CBV?$basic_string@DU?$char_traits@D@std@@V?$allocator@D@2@@std@@PAUACCOUNT_CACHE@@@std@@@2@$0A@@std@@@std@@@std@@YAXPAPAU_Node@?$_Tree_nod@V?$_Tmap_traits@V?$basic_string@DU?$char_traits@D@std@@V?$allocator@D@2@@std@@PAUACCOUNT_CACHE@@U?$less@V?$basic_string@DU?$char_traits@D@std@@V?$allocator@D@2@@std@@@2@V?$allocator@U?$pair@$$CBV?$basic_string@DU?$char_traits@D@std@@V?$allocator@D@2@@std@@PAUACCOUNT_CACHE@@@std@@@2@$0A@@std@@@0@@Z 00401340 f i AccountCacheMgr.obj
 0001:00000350       ??$?0PAUACCOUNT_CACHE@@@?$allocator@PAU_Node@?$_List_nod@PAUACCOUNT_CACHE@@V?$allocator@PAUACCOUNT_CACHE@@@std@@@std@@@std@@QAE@ABV?$allocator@PAUACCOUNT_CACHE@@@1@@Z 00401350 f i AccountCacheMgr.obj
 0001:00000360       ??$_Allocate@U_Node@?$_List_nod@PAUACCOUNT_CACHE@@V?$allocator@PAUACCOUNT_CACHE@@@std@@@std@@@std@@YAPAU_Node@?$_List_nod@PAUACCOUNT_CACHE@@V?$allocator@PAUACCOUNT_CACHE@@@std@@@0@IPAU120@@Z 00401360 f i AccountCacheMgr.obj
 0001:00000380       ??$_Construct@PAU_Node@?$_List_nod@PAUACCOUNT_CACHE@@V?$allocator@PAUACCOUNT_CACHE@@@std@@@std@@PAU123@@std@@YAXPAPAU_Node@?$_List_nod@PAUACCOUNT_CACHE@@V?$allocator@PAUACCOUNT_CACHE@@@std@@@0@ABQAU120@@Z 00401380 f i AccountCacheMgr.obj
 0001:000003a0       ??$_Destroy@PAU_Node@?$_List_nod@PAUACCOUNT_CACHE@@V?$allocator@PAUACCOUNT_CACHE@@@std@@@std@@@std@@YAXPAPAU_Node@?$_List_nod@PAUACCOUNT_CACHE@@V?$allocator@PAUACCOUNT_CACHE@@@std@@@0@@Z 004013a0 f i AccountCacheMgr.obj
 0001:000003b0       ??$?0U?$pair@$$CBV?$basic_string@DU?$char_traits@D@std@@V?$allocator@D@2@@std@@PAUACCOUNT_CACHE@@@std@@@?$allocator@PAU_Node@?$_Tree_nod@V?$_Tmap_traits@V?$basic_string@DU?$char_traits@D@std@@V?$allocator@D@2@@std@@PAUACCOUNT_CACHE@@U?$less@V?$basic_string@DU?$char_traits@D@std@@V?$allocator@D@2@@std@@@2@V?$allocator@U?$pair@$$CBV?$basic_string@DU?$char_traits@D@std@@V?$allocator@D@2@@std@@PAUACCOUNT_CACHE@@@std@@@2@$0A@@std@@@std@@@std@@QAE@ABV?$allocator@U?$pair@$$CBV?$basic_string@DU?$char_traits@D@std@@V?$allocator@D@2@@std@@PAUACCOUNT_CACHE@@@std@@@1@@Z 004013b0 f i AccountCacheMgr.obj
 0001:000003c0       ??$_Allocate@U_Node@?$_Tree_nod@V?$_Tmap_traits@V?$basic_string@DU?$char_traits@D@std@@V?$allocator@D@2@@std@@PAUACCOUNT_CACHE@@U?$less@V?$basic_string@DU?$char_traits@D@std@@V?$allocator@D@2@@std@@@2@V?$allocator@U?$pair@$$CBV?$basic_string@DU?$char_traits@D@std@@V?$allocator@D@2@@std@@PAUACCOUNT_CACHE@@@std@@@2@$0A@@std@@@std@@@std@@YAPAU_Node@?$_Tree_nod@V?$_Tmap_traits@V?$basic_string@DU?$char_traits@D@std@@V?$allocator@D@2@@std@@PAUACCOUNT_CACHE@@U?$less@V?$basic_string@DU?$char_traits@D@std@@V?$allocator@D@2@@std@@@2@V?$allocator@U?$pair@$$CBV?$basic_string@DU?$char_traits@D@std@@V?$allocator@D@2@@std@@PAUACCOUNT_CACHE@@@std@@@2@$0A@@std@@@0@IPAU120@@Z 004013c0 f i AccountCacheMgr.obj
 0001:000003e0       ??$?0PAUACCOUNT_CACHE@@@?$allocator@U_Node@?$_List_nod@PAUACCOUNT_CACHE@@V?$allocator@PAUACCOUNT_CACHE@@@std@@@std@@@std@@QAE@ABV?$allocator@PAUACCOUNT_CACHE@@@1@@Z 004013e0 f i AccountCacheMgr.obj
 0001:000003f0       ??$?0U?$pair@$$CBV?$basic_string@DU?$char_traits@D@std@@V?$allocator@D@2@@std@@PAUACCOUNT_CACHE@@@std@@@?$allocator@U_Node@?$_Tree_nod@V?$_Tmap_traits@V?$basic_string@DU?$char_traits@D@std@@V?$allocator@D@2@@std@@PAUACCOUNT_CACHE@@U?$less@V?$basic_string@DU?$char_traits@D@std@@V?$allocator@D@2@@std@@@2@V?$allocator@U?$pair@$$CBV?$basic_string@DU?$char_traits@D@std@@V?$allocator@D@2@@std@@PAUACCOUNT_CACHE@@@std@@@2@$0A@@std@@@std@@@std@@QAE@ABV?$allocator@U?$pair@$$CBV?$basic_string@DU?$char_traits@D@std@@V?$allocator@D@2@@std@@PAUACCOUNT_CACHE@@@std@@@1@@Z 004013f0 f i AccountCacheMgr.obj
 0001:00000400       ??$_Construct@PAU_Node@?$_Tree_nod@V?$_Tmap_traits@V?$basic_string@DU?$char_traits@D@std@@V?$allocator@D@2@@std@@PAUACCOUNT_CACHE@@U?$less@V?$basic_string@DU?$char_traits@D@std@@V?$allocator@D@2@@std@@@2@V?$allocator@U?$pair@$$CBV?$basic_string@DU?$char_traits@D@std@@V?$allocator@D@2@@std@@PAUACCOUNT_CACHE@@@std@@@2@$0A@@std@@@std@@PAU123@@std@@YAXPAPAU_Node@?$_Tree_nod@V?$_Tmap_traits@V?$basic_string@DU?$char_traits@D@std@@V?$allocator@D@2@@std@@PAUACCOUNT_CACHE@@U?$less@V?$basic_string@DU?$char_traits@D@std@@V?$allocator@D@2@@std@@@2@V?$allocator@U?$pair@$$CBV?$basic_string@DU?$char_traits@D@std@@V?$allocator@D@2@@std@@PAUACCOUNT_CACHE@@@std@@@2@$0A@@std@@@0@ABQAU120@@Z 00401400 f i AccountCacheMgr.obj
 0001:00000420       ??8const_iterator@?$list@PAUACCOUNT_CACHE@@V?$allocator@PAUACCOUNT_CACHE@@@std@@@std@@QBE_NABV012@@Z 00401420 f i AccountCacheMgr.obj
 0001:00000430       ??$_Iter_cat@Viterator@?$_Tree@V?$_Tmap_traits@V?$basic_string@DU?$char_traits@D@std@@V?$allocator@D@2@@std@@PAUACCOUNT_CACHE@@U?$less@V?$basic_string@DU?$char_traits@D@std@@V?$allocator@D@2@@std@@@2@V?$allocator@U?$pair@$$CBV?$basic_string@DU?$char_traits@D@std@@V?$allocator@D@2@@std@@PAUACCOUNT_CACHE@@@std@@@2@$0A@@std@@@std@@@std@@YA?AUbidirectional_iterator_tag@0@ABViterator@?$_Tree@V?$_Tmap_traits@V?$basic_string@DU?$char_traits@D@std@@V?$allocator@D@2@@std@@PAUACCOUNT_CACHE@@U?$less@V?$basic_string@DU?$char_traits@D@std@@V?$allocator@D@2@@std@@@2@V?$allocator@U?$pair@$$CBV?$basic_string@DU?$char_traits@D@std@@V?$allocator@D@2@@std@@PAUACCOUNT_CACHE@@@std@@@2@$0A@@std@@@0@@Z 00401430 f i AccountCacheMgr.obj
 0001:00000440       ?assign@?$char_traits@D@std@@SAXAADABD@Z 00401440 f i AccountCacheMgr.obj
 0001:00000450       ?compare@?$char_traits@D@std@@SAHPBD0I@Z 00401450 f i AccountCacheMgr.obj
 0001:00000470       ?length@?$char_traits@D@std@@SAIPBD@Z 00401470 f i AccountCacheMgr.obj
 0001:00000490       ?copy@?$char_traits@D@std@@SAPADPADPBDI@Z 00401490 f i AccountCacheMgr.obj
 0001:000004c0       ?move@?$char_traits@D@std@@SAPADPADPBDI@Z 004014c0 f i AccountCacheMgr.obj
 0001:000004d0       ?Enter@CMclCritSec@@QAEXXZ 004014d0 f i AccountCacheMgr.obj
 0001:000004e0       ?Leave@CMclCritSec@@QAEXXZ 004014e0 f i AccountCacheMgr.obj
 0001:000004f0       ?GetMultiServer@ACCOUNT_CACHE@@QAEKXZ 004014f0 f i AccountCacheMgr.obj
 0001:00000500       ?ChangeMultiServer@ACCOUNT_CACHE@@QAEXK@Z 00401500 f i AccountCacheMgr.obj
 0001:00000510       ?Clear@ACCOUNT_CACHE@@QAEXXZ 00401510 f i AccountCacheMgr.obj
 0001:00000540       ?IsReleaseable@ACCOUNT_CACHE@@QAEHXZ 00401540 f i AccountCacheMgr.obj
 0001:00000560       ?size@?$basic_string@DU?$char_traits@D@std@@V?$allocator@D@2@@std@@QBEIXZ 00401560 f i AccountCacheMgr.obj
 0001:00000570       ?_Myptr@?$basic_string@DU?$char_traits@D@std@@V?$allocator@D@2@@std@@QBEPBDXZ 00401570 f i AccountCacheMgr.obj
 0001:00000580       ??0?$allocator@D@std@@QAE@XZ 00401580 f i AccountCacheMgr.obj
 0001:00000590       ??0?$allocator@D@std@@QAE@ABV01@@Z 00401590 f i AccountCacheMgr.obj
 0001:000005a0       ?_Myptr@?$basic_string@DU?$char_traits@D@std@@V?$allocator@D@2@@std@@QAEPADXZ 004015a0 f i AccountCacheMgr.obj
 0001:000005b0       ?deallocate@?$allocator@D@std@@QAEXPADI@Z 004015b0 f i AccountCacheMgr.obj
 0001:000005c0       ?_Inside@?$basic_string@DU?$char_traits@D@std@@V?$allocator@D@2@@std@@IAE_NPBD@Z 004015c0 f i AccountCacheMgr.obj
 0001:00000600       ?max_size@?$allocator@D@std@@QBEIXZ 00401600 f i AccountCacheMgr.obj
 0001:00000610       ??1?$CItemContainer@VCItemElem@@@@UAE@XZ 00401610 f i AccountCacheMgr.obj
 0001:00000660       ?Clear@?$CItemContainer@VCItemElem@@@@QAEXXZ 00401660 f i AccountCacheMgr.obj
 0001:000006e0       ?SetItemContainer@?$CItemContainer@VCItemElem@@@@QAEXKKK@Z 004016e0 f i AccountCacheMgr.obj
 0001:00000810       ??$swap@D@std@@YAXAAD0@Z   00401810 f i AccountCacheMgr.obj
 0001:00000830       ??$_Allocate@D@std@@YAPADIPAD@Z 00401830 f i AccountCacheMgr.obj
 0001:00000840       ??_E?$CItemContainer@VCItemElem@@@@UAEPAXI@Z 00401840 f i AccountCacheMgr.obj
 0001:00000840       ??_G?$CItemContainer@VCItemElem@@@@UAEPAXI@Z 00401840 f i AccountCacheMgr.obj
 0001:000008a0       ??9const_iterator@?$_Tree@V?$_Tmap_traits@V?$basic_string@DU?$char_traits@D@std@@V?$allocator@D@2@@std@@PAUACCOUNT_CACHE@@U?$less@V?$basic_string@DU?$char_traits@D@std@@V?$allocator@D@2@@std@@@2@V?$allocator@U?$pair@$$CBV?$basic_string@DU?$char_traits@D@std@@V?$allocator@D@2@@std@@PAUACCOUNT_CACHE@@@std@@@2@$0A@@std@@@std@@QBE_NABV012@@Z 004018a0 f i AccountCacheMgr.obj
 0001:000008c0       ?compare@?$basic_string@DU?$char_traits@D@std@@V?$allocator@D@2@@std@@QBEHIIPBDI@Z 004018c0 f i AccountCacheMgr.obj
 0001:00000940       ?_Key@?$_Tree@V?$_Tmap_traits@V?$basic_string@DU?$char_traits@D@std@@V?$allocator@D@2@@std@@PAUACCOUNT_CACHE@@U?$less@V?$basic_string@DU?$char_traits@D@std@@V?$allocator@D@2@@std@@@2@V?$allocator@U?$pair@$$CBV?$basic_string@DU?$char_traits@D@std@@V?$allocator@D@2@@std@@PAUACCOUNT_CACHE@@@std@@@2@$0A@@std@@@std@@KAABV?$basic_string@DU?$char_traits@D@std@@V?$allocator@D@2@@2@PAU_Node@?$_Tree_nod@V?$_Tmap_traits@V?$basic_string@DU?$char_traits@D@std@@V?$allocator@D@2@@std@@PAUACCOUNT_CACHE@@U?$less@V?$basic_string@DU?$char_traits@D@std@@V?$allocator@D@2@@std@@@2@V?$allocator@U?$pair@$$CBV?$basic_string@DU?$char_traits@D@std@@V?$allocator@D@2@@std@@PAUACCOUNT_CACHE@@@std@@@2@$0A@@std@@@2@@Z 00401940 f i AccountCacheMgr.obj
 0001:00000950       ?_Root@?$_Tree@V?$_Tmap_traits@V?$basic_string@DU?$char_traits@D@std@@V?$allocator@D@2@@std@@PAUACCOUNT_CACHE@@U?$less@V?$basic_string@DU?$char_traits@D@std@@V?$allocator@D@2@@std@@@2@V?$allocator@U?$pair@$$CBV?$basic_string@DU?$char_traits@D@std@@V?$allocator@D@2@@std@@PAUACCOUNT_CACHE@@@std@@@2@$0A@@std@@@std@@IAEAAPAU_Node@?$_Tree_nod@V?$_Tmap_traits@V?$basic_string@DU?$char_traits@D@std@@V?$allocator@D@2@@std@@PAUACCOUNT_CACHE@@U?$less@V?$basic_string@DU?$char_traits@D@std@@V?$allocator@D@2@@std@@@2@V?$allocator@U?$pair@$$CBV?$basic_string@DU?$char_traits@D@std@@V?$allocator@D@2@@std@@PAUACCOUNT_CACHE@@@std@@@2@$0A@@std@@@2@XZ 00401950 f i AccountCacheMgr.obj
 0001:00000960       ?destroy@?$allocator@U_Node@?$_List_nod@PAUACCOUNT_CACHE@@V?$allocator@PAUACCOUNT_CACHE@@@std@@@std@@@std@@QAEXPAU_Node@?$_List_nod@PAUACCOUNT_CACHE@@V?$allocator@PAUACCOUNT_CACHE@@@std@@@2@@Z 00401960 f i AccountCacheMgr.obj
 0001:00000970       ??0iterator@?$_Tree@V?$_Tmap_traits@V?$basic_string@DU?$char_traits@D@std@@V?$allocator@D@2@@std@@PAUACCOUNT_CACHE@@U?$less@V?$basic_string@DU?$char_traits@D@std@@V?$allocator@D@2@@std@@@2@V?$allocator@U?$pair@$$CBV?$basic_string@DU?$char_traits@D@std@@V?$allocator@D@2@@std@@PAUACCOUNT_CACHE@@@std@@@2@$0A@@std@@@std@@QAE@PAU_Node@?$_Tree_nod@V?$_Tmap_traits@V?$basic_string@DU?$char_traits@D@std@@V?$allocator@D@2@@std@@PAUACCOUNT_CACHE@@U?$less@V?$basic_string@DU?$char_traits@D@std@@V?$allocator@D@2@@std@@@2@V?$allocator@U?$pair@$$CBV?$basic_string@DU?$char_traits@D@std@@V?$allocator@D@2@@std@@PAUACCOUNT_CACHE@@@std@@@2@$0A@@std@@@2@@Z 00401970 f i AccountCacheMgr.obj
 0001:00000980       ??Diterator@?$_Tree@V?$_Tmap_traits@V?$basic_string@DU?$char_traits@D@std@@V?$allocator@D@2@@std@@PAUACCOUNT_CACHE@@U?$less@V?$basic_string@DU?$char_traits@D@std@@V?$allocator@D@2@@std@@@2@V?$allocator@U?$pair@$$CBV?$basic_string@DU?$char_traits@D@std@@V?$allocator@D@2@@std@@PAUACCOUNT_CACHE@@@std@@@2@$0A@@std@@@std@@QBEAAU?$pair@$$CBV?$basic_string@DU?$char_traits@D@std@@V?$allocator@D@2@@std@@PAUACCOUNT_CACHE@@@2@XZ 00401980 f i AccountCacheMgr.obj
 0001:00000990       ??0iterator@?$list@PAUACCOUNT_CACHE@@V?$allocator@PAUACCOUNT_CACHE@@@std@@@std@@QAE@PAU_Node@?$_List_nod@PAUACCOUNT_CACHE@@V?$allocator@PAUACCOUNT_CACHE@@@std@@@2@@Z 00401990 f i AccountCacheMgr.obj
 0001:000009a0       ??Fiterator@?$list@PAUACCOUNT_CACHE@@V?$allocator@PAUACCOUNT_CACHE@@@std@@@std@@QAEAAV012@XZ 004019a0 f i AccountCacheMgr.obj
 0001:000009b0       ?max_size@?$_Tree@V?$_Tmap_traits@V?$basic_string@DU?$char_traits@D@std@@V?$allocator@D@2@@std@@PAUACCOUNT_CACHE@@U?$less@V?$basic_string@DU?$char_traits@D@std@@V?$allocator@D@2@@std@@@2@V?$allocator@U?$pair@$$CBV?$basic_string@DU?$char_traits@D@std@@V?$allocator@D@2@@std@@PAUACCOUNT_CACHE@@@std@@@2@$0A@@std@@@std@@QBEIXZ 004019b0 f i AccountCacheMgr.obj
 0001:000009c0       ?_Lrotate@?$_Tree@V?$_Tmap_traits@V?$basic_string@DU?$char_traits@D@std@@V?$allocator@D@2@@std@@PAUACCOUNT_CACHE@@U?$less@V?$basic_string@DU?$char_traits@D@std@@V?$allocator@D@2@@std@@@2@V?$allocator@U?$pair@$$CBV?$basic_string@DU?$char_traits@D@std@@V?$allocator@D@2@@std@@PAUACCOUNT_CACHE@@@std@@@2@$0A@@std@@@std@@IAEXPAU_Node@?$_Tree_nod@V?$_Tmap_traits@V?$basic_string@DU?$char_traits@D@std@@V?$allocator@D@2@@std@@PAUACCOUNT_CACHE@@U?$less@V?$basic_string@DU?$char_traits@D@std@@V?$allocator@D@2@@std@@@2@V?$allocator@U?$pair@$$CBV?$basic_string@DU?$char_traits@D@std@@V?$allocator@D@2@@std@@PAUACCOUNT_CACHE@@@std@@@2@$0A@@std@@@2@@Z 004019c0 f i AccountCacheMgr.obj
 0001:00000a20       ?_Rrotate@?$_Tree@V?$_Tmap_traits@V?$basic_string@DU?$char_traits@D@std@@V?$allocator@D@2@@std@@PAUACCOUNT_CACHE@@U?$less@V?$basic_string@DU?$char_traits@D@std@@V?$allocator@D@2@@std@@@2@V?$allocator@U?$pair@$$CBV?$basic_string@DU?$char_traits@D@std@@V?$allocator@D@2@@std@@PAUACCOUNT_CACHE@@@std@@@2@$0A@@std@@@std@@IAEXPAU_Node@?$_Tree_nod@V?$_Tmap_traits@V?$basic_string@DU?$char_traits@D@std@@V?$allocator@D@2@@std@@PAUACCOUNT_CACHE@@U?$less@V?$basic_string@DU?$char_traits@D@std@@V?$allocator@D@2@@std@@@2@V?$allocator@U?$pair@$$CBV?$basic_string@DU?$char_traits@D@std@@V?$allocator@D@2@@std@@PAUACCOUNT_CACHE@@@std@@@2@$0A@@std@@@2@@Z 00401a20 f i AccountCacheMgr.obj
 0001:00000a80       ?destroy@?$allocator@PAU_Node@?$_Tree_nod@V?$_Tmap_traits@V?$basic_string@DU?$char_traits@D@std@@V?$allocator@D@2@@std@@PAUACCOUNT_CACHE@@U?$less@V?$basic_string@DU?$char_traits@D@std@@V?$allocator@D@2@@std@@@2@V?$allocator@U?$pair@$$CBV?$basic_string@DU?$char_traits@D@std@@V?$allocator@D@2@@std@@PAUACCOUNT_CACHE@@@std@@@2@$0A@@std@@@std@@@std@@QAEXPAPAU_Node@?$_Tree_nod@V?$_Tmap_traits@V?$basic_string@DU?$char_traits@D@std@@V?$allocator@D@2@@std@@PAUACCOUNT_CACHE@@U?$less@V?$basic_string@DU?$char_traits@D@std@@V?$allocator@D@2@@std@@@2@V?$allocator@U?$pair@$$CBV?$basic_string@DU?$char_traits@D@std@@V?$allocator@D@2@@std@@PAUACCOUNT_CACHE@@@std@@@2@$0A@@std@@@2@@Z 00401a80 f i AccountCacheMgr.obj
 0001:00000a90       ?allocate@?$allocator@U_Node@?$_List_nod@PAUACCOUNT_CACHE@@V?$allocator@PAUACCOUNT_CACHE@@@std@@@std@@@std@@QAEPAU_Node@?$_List_nod@PAUACCOUNT_CACHE@@V?$allocator@PAUACCOUNT_CACHE@@@std@@@2@I@Z 00401a90 f i AccountCacheMgr.obj
 0001:00000ab0       ?construct@?$allocator@PAU_Node@?$_List_nod@PAUACCOUNT_CACHE@@V?$allocator@PAUACCOUNT_CACHE@@@std@@@std@@@std@@QAEXPAPAU_Node@?$_List_nod@PAUACCOUNT_CACHE@@V?$allocator@PAUACCOUNT_CACHE@@@std@@@2@ABQAU342@@Z 00401ab0 f i AccountCacheMgr.obj
 0001:00000ad0       ?destroy@?$allocator@PAU_Node@?$_List_nod@PAUACCOUNT_CACHE@@V?$allocator@PAUACCOUNT_CACHE@@@std@@@std@@@std@@QAEXPAPAU_Node@?$_List_nod@PAUACCOUNT_CACHE@@V?$allocator@PAUACCOUNT_CACHE@@@std@@@2@@Z 00401ad0 f i AccountCacheMgr.obj
 0001:00000ae0       ??Fconst_iterator@?$_Tree@V?$_Tmap_traits@V?$basic_string@DU?$char_traits@D@std@@V?$allocator@D@2@@std@@PAUACCOUNT_CACHE@@U?$less@V?$basic_string@DU?$char_traits@D@std@@V?$allocator@D@2@@std@@@2@V?$allocator@U?$pair@$$CBV?$basic_string@DU?$char_traits@D@std@@V?$allocator@D@2@@std@@PAUACCOUNT_CACHE@@@std@@@2@$0A@@std@@@std@@QAEAAV012@XZ 00401ae0 f i AccountCacheMgr.obj
 0001:00000af0       ?_Inc@const_iterator@?$_Tree@V?$_Tmap_traits@V?$basic_string@DU?$char_traits@D@std@@V?$allocator@D@2@@std@@PAUACCOUNT_CACHE@@U?$less@V?$basic_string@DU?$char_traits@D@std@@V?$allocator@D@2@@std@@@2@V?$allocator@U?$pair@$$CBV?$basic_string@DU?$char_traits@D@std@@V?$allocator@D@2@@std@@PAUACCOUNT_CACHE@@@std@@@2@$0A@@std@@@std@@QAEXXZ 00401af0 f i AccountCacheMgr.obj
 0001:00000b50       ??Eiterator@?$list@PAUACCOUNT_CACHE@@V?$allocator@PAUACCOUNT_CACHE@@@std@@@std@@QAEAAV012@XZ 00401b50 f i AccountCacheMgr.obj
 0001:00000b60       ??Dconst_iterator@?$list@PAUACCOUNT_CACHE@@V?$allocator@PAUACCOUNT_CACHE@@@std@@@std@@QBEABQAUACCOUNT_CACHE@@XZ 00401b60 f i AccountCacheMgr.obj
 0001:00000b70       ?allocate@?$allocator@U_Node@?$_Tree_nod@V?$_Tmap_traits@V?$basic_string@DU?$char_traits@D@std@@V?$allocator@D@2@@std@@PAUACCOUNT_CACHE@@U?$less@V?$basic_string@DU?$char_traits@D@std@@V?$allocator@D@2@@std@@@2@V?$allocator@U?$pair@$$CBV?$basic_string@DU?$char_traits@D@std@@V?$allocator@D@2@@std@@PAUACCOUNT_CACHE@@@std@@@2@$0A@@std@@@std@@@std@@QAEPAU_Node@?$_Tree_nod@V?$_Tmap_traits@V?$basic_string@DU?$char_traits@D@std@@V?$allocator@D@2@@std@@PAUACCOUNT_CACHE@@U?$less@V?$basic_string@DU?$char_traits@D@std@@V?$allocator@D@2@@std@@@2@V?$allocator@U?$pair@$$CBV?$basic_string@DU?$char_traits@D@std@@V?$allocator@D@2@@std@@PAUACCOUNT_CACHE@@@std@@@2@$0A@@std@@@2@I@Z 00401b70 f i AccountCacheMgr.obj
 0001:00000b90       ?max_size@?$list@PAUACCOUNT_CACHE@@V?$allocator@PAUACCOUNT_CACHE@@@std@@@std@@QBEIXZ 00401b90 f i AccountCacheMgr.obj
 0001:00000ba0       ??0?$_List_nod@PAUACCOUNT_CACHE@@V?$allocator@PAUACCOUNT_CACHE@@@std@@@std@@IAE@V?$allocator@PAUACCOUNT_CACHE@@@1@@Z 00401ba0 f i AccountCacheMgr.obj
 0001:00000bb0       ??0?$_Tree_nod@V?$_Tmap_traits@V?$basic_string@DU?$char_traits@D@std@@V?$allocator@D@2@@std@@PAUACCOUNT_CACHE@@U?$less@V?$basic_string@DU?$char_traits@D@std@@V?$allocator@D@2@@std@@@2@V?$allocator@U?$pair@$$CBV?$basic_string@DU?$char_traits@D@std@@V?$allocator@D@2@@std@@PAUACCOUNT_CACHE@@@std@@@2@$0A@@std@@@std@@IAE@ABU?$less@V?$basic_string@DU?$char_traits@D@std@@V?$allocator@D@2@@std@@@1@V?$allocator@U?$pair@$$CBV?$basic_string@DU?$char_traits@D@std@@V?$allocator@D@2@@std@@PAUACCOUNT_CACHE@@@std@@@1@@Z 00401bb0 f i AccountCacheMgr.obj
 0001:00000bc0       ?construct@?$allocator@PAU_Node@?$_Tree_nod@V?$_Tmap_traits@V?$basic_string@DU?$char_traits@D@std@@V?$allocator@D@2@@std@@PAUACCOUNT_CACHE@@U?$less@V?$basic_string@DU?$char_traits@D@std@@V?$allocator@D@2@@std@@@2@V?$allocator@U?$pair@$$CBV?$basic_string@DU?$char_traits@D@std@@V?$allocator@D@2@@std@@PAUACCOUNT_CACHE@@@std@@@2@$0A@@std@@@std@@@std@@QAEXPAPAU_Node@?$_Tree_nod@V?$_Tmap_traits@V?$basic_string@DU?$char_traits@D@std@@V?$allocator@D@2@@std@@PAUACCOUNT_CACHE@@U?$less@V?$basic_string@DU?$char_traits@D@std@@V?$allocator@D@2@@std@@@2@V?$allocator@U?$pair@$$CBV?$basic_string@DU?$char_traits@D@std@@V?$allocator@D@2@@std@@PAUACCOUNT_CACHE@@@std@@@2@$0A@@std@@@2@ABQAU342@@Z 00401bc0 f i AccountCacheMgr.obj
 0001:00000be0       ??9const_iterator@?$list@PAUACCOUNT_CACHE@@V?$allocator@PAUACCOUNT_CACHE@@@std@@@std@@QBE_NABV012@@Z 00401be0 f i AccountCacheMgr.obj
 0001:00000c00       ?Init@ACCOUNT_CACHE@@QAEXXZ 00401c00 f i AccountCacheMgr.obj
 0001:00000c60       ?ClearMover@ACCOUNT_CACHE@@QAEXEK@Z 00401c60 f i AccountCacheMgr.obj
 0001:00000ca0       ?c_str@?$basic_string@DU?$char_traits@D@std@@V?$allocator@D@2@@std@@QBEPBDXZ 00401ca0 f i AccountCacheMgr.obj
 0001:00000cb0       ??0?$_String_val@DV?$allocator@D@std@@@std@@IAE@V?$allocator@D@1@@Z 00401cb0 f i AccountCacheMgr.obj
 0001:00000cc0       ?_Eos@?$basic_string@DU?$char_traits@D@std@@V?$allocator@D@2@@std@@IAEXI@Z 00401cc0 f i AccountCacheMgr.obj
 0001:00000ce0       ?max_size@?$basic_string@DU?$char_traits@D@std@@V?$allocator@D@2@@std@@QBEIXZ 00401ce0 f i AccountCacheMgr.obj
 0001:00000cf0       ?allocate@?$allocator@D@std@@QAEPADI@Z 00401cf0 f i AccountCacheMgr.obj
 0001:00000d00       ?compare@?$basic_string@DU?$char_traits@D@std@@V?$allocator@D@2@@std@@QBEHABV12@@Z 00401d00 f i AccountCacheMgr.obj
 0001:00000d40       ?begin@?$_Tree@V?$_Tmap_traits@V?$basic_string@DU?$char_traits@D@std@@V?$allocator@D@2@@std@@PAUACCOUNT_CACHE@@U?$less@V?$basic_string@DU?$char_traits@D@std@@V?$allocator@D@2@@std@@@2@V?$allocator@U?$pair@$$CBV?$basic_string@DU?$char_traits@D@std@@V?$allocator@D@2@@std@@PAUACCOUNT_CACHE@@@std@@@2@$0A@@std@@@std@@QAE?AViterator@12@XZ 00401d40 f i AccountCacheMgr.obj
 0001:00000d50       ?end@?$_Tree@V?$_Tmap_traits@V?$basic_string@DU?$char_traits@D@std@@V?$allocator@D@2@@std@@PAUACCOUNT_CACHE@@U?$less@V?$basic_string@DU?$char_traits@D@std@@V?$allocator@D@2@@std@@@2@V?$allocator@U?$pair@$$CBV?$basic_string@DU?$char_traits@D@std@@V?$allocator@D@2@@std@@PAUACCOUNT_CACHE@@@std@@@2@$0A@@std@@@std@@QAE?AViterator@12@XZ 00401d50 f i AccountCacheMgr.obj
 0001:00000d60       ?begin@?$list@PAUACCOUNT_CACHE@@V?$allocator@PAUACCOUNT_CACHE@@@std@@@std@@QAE?AViterator@12@XZ 00401d60 f i AccountCacheMgr.obj
 0001:00000d70       ?end@?$list@PAUACCOUNT_CACHE@@V?$allocator@PAUACCOUNT_CACHE@@@std@@@std@@QAE?AViterator@12@XZ 00401d70 f i AccountCacheMgr.obj
 0001:00000d80       ?clear@?$list@PAUACCOUNT_CACHE@@V?$allocator@PAUACCOUNT_CACHE@@@std@@@std@@QAEXXZ 00401d80 f i AccountCacheMgr.obj
 0001:00000dc0       ??Citerator@?$_Tree@V?$_Tmap_traits@V?$basic_string@DU?$char_traits@D@std@@V?$allocator@D@2@@std@@PAUACCOUNT_CACHE@@U?$less@V?$basic_string@DU?$char_traits@D@std@@V?$allocator@D@2@@std@@@2@V?$allocator@U?$pair@$$CBV?$basic_string@DU?$char_traits@D@std@@V?$allocator@D@2@@std@@PAUACCOUNT_CACHE@@@std@@@2@$0A@@std@@@std@@QBEPAU?$pair@$$CBV?$basic_string@DU?$char_traits@D@std@@V?$allocator@D@2@@std@@PAUACCOUNT_CACHE@@@2@XZ 00401dc0 f i AccountCacheMgr.obj
 0001:00000dd0       ?_Buynode@?$list@PAUACCOUNT_CACHE@@V?$allocator@PAUACCOUNT_CACHE@@@std@@@std@@IAEPAU_Node@?$_List_nod@PAUACCOUNT_CACHE@@V?$allocator@PAUACCOUNT_CACHE@@@std@@@2@XZ 00401dd0 f i AccountCacheMgr.obj
 0001:00000df0       ?_Tidy@?$list@PAUACCOUNT_CACHE@@V?$allocator@PAUACCOUNT_CACHE@@@std@@@std@@IAEXXZ 00401df0 f i AccountCacheMgr.obj
 0001:00000e10       ??Fiterator@?$_Tree@V?$_Tmap_traits@V?$basic_string@DU?$char_traits@D@std@@V?$allocator@D@2@@std@@PAUACCOUNT_CACHE@@U?$less@V?$basic_string@DU?$char_traits@D@std@@V?$allocator@D@2@@std@@@2@V?$allocator@U?$pair@$$CBV?$basic_string@DU?$char_traits@D@std@@V?$allocator@D@2@@std@@PAUACCOUNT_CACHE@@@std@@@2@$0A@@std@@@std@@QAEAAV012@XZ 00401e10 f i AccountCacheMgr.obj
 0001:00000e20       ??Econst_iterator@?$_Tree@V?$_Tmap_traits@V?$basic_string@DU?$char_traits@D@std@@V?$allocator@D@2@@std@@PAUACCOUNT_CACHE@@U?$less@V?$basic_string@DU?$char_traits@D@std@@V?$allocator@D@2@@std@@@2@V?$allocator@U?$pair@$$CBV?$basic_string@DU?$char_traits@D@std@@V?$allocator@D@2@@std@@PAUACCOUNT_CACHE@@@std@@@2@$0A@@std@@@std@@QAEAAV012@XZ 00401e20 f i AccountCacheMgr.obj
 0001:00000e30       ??Diterator@?$list@PAUACCOUNT_CACHE@@V?$allocator@PAUACCOUNT_CACHE@@@std@@@std@@QBEAAPAUACCOUNT_CACHE@@XZ 00401e30 f i AccountCacheMgr.obj
 0001:00000e40       ??Eiterator@?$list@PAUACCOUNT_CACHE@@V?$allocator@PAUACCOUNT_CACHE@@@std@@@std@@QAE?AV012@H@Z 00401e40 f i AccountCacheMgr.obj
 0001:00000e50       ?_Buynode@?$list@PAUACCOUNT_CACHE@@V?$allocator@PAUACCOUNT_CACHE@@@std@@@std@@IAEPAU_Node@?$_List_nod@PAUACCOUNT_CACHE@@V?$allocator@PAUACCOUNT_CACHE@@@std@@@2@PAU342@0ABQAUACCOUNT_CACHE@@@Z 00401e50 f i AccountCacheMgr.obj
 0001:00000e80       ??0?$_List_ptr@PAUACCOUNT_CACHE@@V?$allocator@PAUACCOUNT_CACHE@@@std@@@std@@IAE@V?$allocator@PAUACCOUNT_CACHE@@@1@@Z 00401e80 f i AccountCacheMgr.obj
 0001:00000e90       ?_Buynode@?$_Tree@V?$_Tmap_traits@V?$basic_string@DU?$char_traits@D@std@@V?$allocator@D@2@@std@@PAUACCOUNT_CACHE@@U?$less@V?$basic_string@DU?$char_traits@D@std@@V?$allocator@D@2@@std@@@2@V?$allocator@U?$pair@$$CBV?$basic_string@DU?$char_traits@D@std@@V?$allocator@D@2@@std@@PAUACCOUNT_CACHE@@@std@@@2@$0A@@std@@@std@@IAEPAU_Node@?$_Tree_nod@V?$_Tmap_traits@V?$basic_string@DU?$char_traits@D@std@@V?$allocator@D@2@@std@@PAUACCOUNT_CACHE@@U?$less@V?$basic_string@DU?$char_traits@D@std@@V?$allocator@D@2@@std@@@2@V?$allocator@U?$pair@$$CBV?$basic_string@DU?$char_traits@D@std@@V?$allocator@D@2@@std@@PAUACCOUNT_CACHE@@@std@@@2@$0A@@std@@@2@XZ 00401e90 f i AccountCacheMgr.obj
 0001:00000ed0       ??0?$_Tree_ptr@V?$_Tmap_traits@V?$basic_string@DU?$char_traits@D@std@@V?$allocator@D@2@@std@@PAUACCOUNT_CACHE@@U?$less@V?$basic_string@DU?$char_traits@D@std@@V?$allocator@D@2@@std@@@2@V?$allocator@U?$pair@$$CBV?$basic_string@DU?$char_traits@D@std@@V?$allocator@D@2@@std@@PAUACCOUNT_CACHE@@@std@@@2@$0A@@std@@@std@@IAE@ABU?$less@V?$basic_string@DU?$char_traits@D@std@@V?$allocator@D@2@@std@@@1@V?$allocator@U?$pair@$$CBV?$basic_string@DU?$char_traits@D@std@@V?$allocator@D@2@@std@@PAUACCOUNT_CACHE@@@std@@@1@@Z 00401ed0 f i AccountCacheMgr.obj
 0001:00000ee0       ??$find@Viterator@?$list@PAUACCOUNT_CACHE@@V?$allocator@PAUACCOUNT_CACHE@@@std@@@std@@PAUACCOUNT_CACHE@@@std@@YA?AViterator@?$list@PAUACCOUNT_CACHE@@V?$allocator@PAUACCOUNT_CACHE@@@std@@@0@V120@0ABQAUACCOUNT_CACHE@@@Z 00401ee0 f i AccountCacheMgr.obj
 0001:00000f10       ?_Tidy@?$basic_string@DU?$char_traits@D@std@@V?$allocator@D@2@@std@@IAEX_NI@Z 00401f10 f i AccountCacheMgr.obj
 0001:00000f70       ?erase@?$basic_string@DU?$char_traits@D@std@@V?$allocator@D@2@@std@@QAEAAV12@II@Z 00401f70 f i AccountCacheMgr.obj
 0001:00000ff0       ?_Copy@?$basic_string@DU?$char_traits@D@std@@V?$allocator@D@2@@std@@IAEXII@Z 00401ff0 f i AccountCacheMgr.obj
 0001:00001130       ??$?MDU?$char_traits@D@std@@V?$allocator@D@1@@std@@YA_NABV?$basic_string@DU?$char_traits@D@std@@V?$allocator@D@2@@0@0@Z 00402130 f i AccountCacheMgr.obj
 0001:00001160       ??0?$basic_string@DU?$char_traits@D@std@@V?$allocator@D@2@@std@@QAE@XZ 00402160 f i AccountCacheMgr.obj
 0001:00001180       ??1?$list@PAUACCOUNT_CACHE@@V?$allocator@PAUACCOUNT_CACHE@@@std@@@std@@QAE@XZ 00402180 f i AccountCacheMgr.obj
 0001:000011a0       ?back@?$list@PAUACCOUNT_CACHE@@V?$allocator@PAUACCOUNT_CACHE@@@std@@@std@@QAEAAPAUACCOUNT_CACHE@@XZ 004021a0 f i AccountCacheMgr.obj
 0001:000011b0       ?erase@?$list@PAUACCOUNT_CACHE@@V?$allocator@PAUACCOUNT_CACHE@@@std@@@std@@QAE?AViterator@12@V312@@Z 004021b0 f i AccountCacheMgr.obj
 0001:000011f0       ??Eiterator@?$_Tree@V?$_Tmap_traits@V?$basic_string@DU?$char_traits@D@std@@V?$allocator@D@2@@std@@PAUACCOUNT_CACHE@@U?$less@V?$basic_string@DU?$char_traits@D@std@@V?$allocator@D@2@@std@@@2@V?$allocator@U?$pair@$$CBV?$basic_string@DU?$char_traits@D@std@@V?$allocator@D@2@@std@@PAUACCOUNT_CACHE@@@std@@@2@$0A@@std@@@std@@QAEAAV012@XZ 004021f0 f i AccountCacheMgr.obj
 0001:00001200       ??0?$_List_val@PAUACCOUNT_CACHE@@V?$allocator@PAUACCOUNT_CACHE@@@std@@@std@@IAE@V?$allocator@PAUACCOUNT_CACHE@@@1@@Z 00402200 f i AccountCacheMgr.obj
 0001:00001210       ?_Init@?$_Tree@V?$_Tmap_traits@V?$basic_string@DU?$char_traits@D@std@@V?$allocator@D@2@@std@@PAUACCOUNT_CACHE@@U?$less@V?$basic_string@DU?$char_traits@D@std@@V?$allocator@D@2@@std@@@2@V?$allocator@U?$pair@$$CBV?$basic_string@DU?$char_traits@D@std@@V?$allocator@D@2@@std@@PAUACCOUNT_CACHE@@@std@@@2@$0A@@std@@@std@@IAEXXZ 00402210 f i AccountCacheMgr.obj
 0001:00001240       ??0?$_Tree_val@V?$_Tmap_traits@V?$basic_string@DU?$char_traits@D@std@@V?$allocator@D@2@@std@@PAUACCOUNT_CACHE@@U?$less@V?$basic_string@DU?$char_traits@D@std@@V?$allocator@D@2@@std@@@2@V?$allocator@U?$pair@$$CBV?$basic_string@DU?$char_traits@D@std@@V?$allocator@D@2@@std@@PAUACCOUNT_CACHE@@@std@@@2@$0A@@std@@@std@@IAE@ABU?$less@V?$basic_string@DU?$char_traits@D@std@@V?$allocator@D@2@@std@@@1@V?$allocator@U?$pair@$$CBV?$basic_string@DU?$char_traits@D@std@@V?$allocator@D@2@@std@@PAUACCOUNT_CACHE@@@std@@@1@@Z 00402240 f i AccountCacheMgr.obj
 0001:00001250       ??Eiterator@?$_Tree@V?$_Tmap_traits@V?$basic_string@DU?$char_traits@D@std@@V?$allocator@D@2@@std@@PAUACCOUNT_CACHE@@U?$less@V?$basic_string@DU?$char_traits@D@std@@V?$allocator@D@2@@std@@@2@V?$allocator@U?$pair@$$CBV?$basic_string@DU?$char_traits@D@std@@V?$allocator@D@2@@std@@PAUACCOUNT_CACHE@@@std@@@2@$0A@@std@@@std@@QAE?AV012@H@Z 00402250 f i AccountCacheMgr.obj
 0001:00001270       ??$_Distance2@Viterator@?$_Tree@V?$_Tmap_traits@V?$basic_string@DU?$char_traits@D@std@@V?$allocator@D@2@@std@@PAUACCOUNT_CACHE@@U?$less@V?$basic_string@DU?$char_traits@D@std@@V?$allocator@D@2@@std@@@2@V?$allocator@U?$pair@$$CBV?$basic_string@DU?$char_traits@D@std@@V?$allocator@D@2@@std@@PAUACCOUNT_CACHE@@@std@@@2@$0A@@std@@@std@@I@std@@YAXViterator@?$_Tree@V?$_Tmap_traits@V?$basic_string@DU?$char_traits@D@std@@V?$allocator@D@2@@std@@PAUACCOUNT_CACHE@@U?$less@V?$basic_string@DU?$char_traits@D@std@@V?$allocator@D@2@@std@@@2@V?$allocator@U?$pair@$$CBV?$basic_string@DU?$char_traits@D@std@@V?$allocator@D@2@@std@@PAUACCOUNT_CACHE@@@std@@@2@$0A@@std@@@0@0AAIUbidirectional_iterator_tag@0@@Z 00402270 f i AccountCacheMgr.obj
 0001:000012a0       ??1?$basic_string@DU?$char_traits@D@std@@V?$allocator@D@2@@std@@QAE@XZ 004022a0 f i AccountCacheMgr.obj
 0001:000012d0       ??R?$less@V?$basic_string@DU?$char_traits@D@std@@V?$allocator@D@2@@std@@@std@@QBE_NABV?$basic_string@DU?$char_traits@D@std@@V?$allocator@D@2@@1@0@Z 004022d0 f i AccountCacheMgr.obj
 0001:00001310       ?_Grow@?$basic_string@DU?$char_traits@D@std@@V?$allocator@D@2@@std@@IAE_NI_N@Z 00402310 f i AccountCacheMgr.obj
 0001:000013e0       ??1ACCOUNT_CACHE@@QAE@XZ   004023e0 f i AccountCacheMgr.obj
 0001:00001420       ??1?$pair@$$CBV?$basic_string@DU?$char_traits@D@std@@V?$allocator@D@2@@std@@PAUACCOUNT_CACHE@@@std@@QAE@XZ 00402420 f i AccountCacheMgr.obj
 0001:00001450       ??0ACCOUNT_CACHE@@QAE@XZ   00402450 f i AccountCacheMgr.obj
 0001:00001480       ?InitMultiServer@CAccountCacheMgr@@QAEHK@Z 00402480 f   AccountCacheMgr.obj
 0001:00001500       ??0?$list@PAUACCOUNT_CACHE@@V?$allocator@PAUACCOUNT_CACHE@@@std@@@std@@QAE@XZ 00402500 f i AccountCacheMgr.obj
 0001:00001520       ?pop_back@?$list@PAUACCOUNT_CACHE@@V?$allocator@PAUACCOUNT_CACHE@@@std@@@std@@QAEXXZ 00402520 f i AccountCacheMgr.obj
 0001:00001550       ??0?$_Tree@V?$_Tmap_traits@V?$basic_string@DU?$char_traits@D@std@@V?$allocator@D@2@@std@@PAUACCOUNT_CACHE@@U?$less@V?$basic_string@DU?$char_traits@D@std@@V?$allocator@D@2@@std@@@2@V?$allocator@U?$pair@$$CBV?$basic_string@DU?$char_traits@D@std@@V?$allocator@D@2@@std@@PAUACCOUNT_CACHE@@@std@@@2@$0A@@std@@@std@@QAE@ABU?$less@V?$basic_string@DU?$char_traits@D@std@@V?$allocator@D@2@@std@@@1@ABV?$allocator@U?$pair@$$CBV?$basic_string@DU?$char_traits@D@std@@V?$allocator@D@2@@std@@PAUACCOUNT_CACHE@@@std@@@1@@Z 00402550 f i AccountCacheMgr.obj
 0001:00001580       ?_Lbound@?$_Tree@V?$_Tmap_traits@V?$basic_string@DU?$char_traits@D@std@@V?$allocator@D@2@@std@@PAUACCOUNT_CACHE@@U?$less@V?$basic_string@DU?$char_traits@D@std@@V?$allocator@D@2@@std@@@2@V?$allocator@U?$pair@$$CBV?$basic_string@DU?$char_traits@D@std@@V?$allocator@D@2@@std@@PAUACCOUNT_CACHE@@@std@@@2@$0A@@std@@@std@@IBEPAU_Node@?$_Tree_nod@V?$_Tmap_traits@V?$basic_string@DU?$char_traits@D@std@@V?$allocator@D@2@@std@@PAUACCOUNT_CACHE@@U?$less@V?$basic_string@DU?$char_traits@D@std@@V?$allocator@D@2@@std@@@2@V?$allocator@U?$pair@$$CBV?$basic_string@DU?$char_traits@D@std@@V?$allocator@D@2@@std@@PAUACCOUNT_CACHE@@@std@@@2@$0A@@std@@@2@ABV?$basic_string@DU?$char_traits@D@std@@V?$allocator@D@2@@2@@Z 00402580 f i AccountCacheMgr.obj
 0001:00001640       ?_Ubound@?$_Tree@V?$_Tmap_traits@V?$basic_string@DU?$char_traits@D@std@@V?$allocator@D@2@@std@@PAUACCOUNT_CACHE@@U?$less@V?$basic_string@DU?$char_traits@D@std@@V?$allocator@D@2@@std@@@2@V?$allocator@U?$pair@$$CBV?$basic_string@DU?$char_traits@D@std@@V?$allocator@D@2@@std@@PAUACCOUNT_CACHE@@@std@@@2@$0A@@std@@@std@@IBEPAU_Node@?$_Tree_nod@V?$_Tmap_traits@V?$basic_string@DU?$char_traits@D@std@@V?$allocator@D@2@@std@@PAUACCOUNT_CACHE@@U?$less@V?$basic_string@DU?$char_traits@D@std@@V?$allocator@D@2@@std@@@2@V?$allocator@U?$pair@$$CBV?$basic_string@DU?$char_traits@D@std@@V?$allocator@D@2@@std@@PAUACCOUNT_CACHE@@@std@@@2@$0A@@std@@@2@ABV?$basic_string@DU?$char_traits@D@std@@V?$allocator@D@2@@2@@Z 00402640 f i AccountCacheMgr.obj
 0001:000016f0       ??$_Distance@Viterator@?$_Tree@V?$_Tmap_traits@V?$basic_string@DU?$char_traits@D@std@@V?$allocator@D@2@@std@@PAUACCOUNT_CACHE@@U?$less@V?$basic_string@DU?$char_traits@D@std@@V?$allocator@D@2@@std@@@2@V?$allocator@U?$pair@$$CBV?$basic_string@DU?$char_traits@D@std@@V?$allocator@D@2@@std@@PAUACCOUNT_CACHE@@@std@@@2@$0A@@std@@@std@@I@std@@YAXViterator@?$_Tree@V?$_Tmap_traits@V?$basic_string@DU?$char_traits@D@std@@V?$allocator@D@2@@std@@PAUACCOUNT_CACHE@@U?$less@V?$basic_string@DU?$char_traits@D@std@@V?$allocator@D@2@@std@@@2@V?$allocator@U?$pair@$$CBV?$basic_string@DU?$char_traits@D@std@@V?$allocator@D@2@@std@@PAUACCOUNT_CACHE@@@std@@@2@$0A@@std@@@0@0AAI@Z 004026f0 f i AccountCacheMgr.obj
 0001:00001730       ??1_Node@?$_Tree_nod@V?$_Tmap_traits@V?$basic_string@DU?$char_traits@D@std@@V?$allocator@D@2@@std@@PAUACCOUNT_CACHE@@U?$less@V?$basic_string@DU?$char_traits@D@std@@V?$allocator@D@2@@std@@@2@V?$allocator@U?$pair@$$CBV?$basic_string@DU?$char_traits@D@std@@V?$allocator@D@2@@std@@PAUACCOUNT_CACHE@@@std@@@2@$0A@@std@@@std@@QAE@XZ 00402730 f i AccountCacheMgr.obj
 0001:00001760       ??1logic_error@std@@UAE@XZ 00402760 f i AccountCacheMgr.obj
 0001:000017a0       ?what@logic_error@std@@UBEPBDXZ 004027a0 f i AccountCacheMgr.obj
 0001:000017b0       ??_Glogic_error@std@@UAEPAXI@Z 004027b0 f i AccountCacheMgr.obj
 0001:000017b0       ??_Elogic_error@std@@UAEPAXI@Z 004027b0 f i AccountCacheMgr.obj
 0001:000017d0       ?assign@?$basic_string@DU?$char_traits@D@std@@V?$allocator@D@2@@std@@QAEAAV12@ABV12@II@Z 004027d0 f i AccountCacheMgr.obj
 0001:000018c0       ?assign@?$basic_string@DU?$char_traits@D@std@@V?$allocator@D@2@@std@@QAEAAV12@PBDI@Z 004028c0 f i AccountCacheMgr.obj
 0001:000019b0       ??_GACCOUNT_CACHE@@QAEPAXI@Z 004029b0 f i AccountCacheMgr.obj
 0001:000019d0       ?lower_bound@?$_Tree@V?$_Tmap_traits@V?$basic_string@DU?$char_traits@D@std@@V?$allocator@D@2@@std@@PAUACCOUNT_CACHE@@U?$less@V?$basic_string@DU?$char_traits@D@std@@V?$allocator@D@2@@std@@@2@V?$allocator@U?$pair@$$CBV?$basic_string@DU?$char_traits@D@std@@V?$allocator@D@2@@std@@PAUACCOUNT_CACHE@@@std@@@2@$0A@@std@@@std@@QAE?AViterator@12@ABV?$basic_string@DU?$char_traits@D@std@@V?$allocator@D@2@@2@@Z 004029d0 f i AccountCacheMgr.obj
 0001:000019f0       ?upper_bound@?$_Tree@V?$_Tmap_traits@V?$basic_string@DU?$char_traits@D@std@@V?$allocator@D@2@@std@@PAUACCOUNT_CACHE@@U?$less@V?$basic_string@DU?$char_traits@D@std@@V?$allocator@D@2@@std@@@2@V?$allocator@U?$pair@$$CBV?$basic_string@DU?$char_traits@D@std@@V?$allocator@D@2@@std@@PAUACCOUNT_CACHE@@@std@@@2@$0A@@std@@@std@@QAE?AViterator@12@ABV?$basic_string@DU?$char_traits@D@std@@V?$allocator@D@2@@2@@Z 004029f0 f i AccountCacheMgr.obj
 0001:00001a10       ??_G_Node@?$_Tree_nod@V?$_Tmap_traits@V?$basic_string@DU?$char_traits@D@std@@V?$allocator@D@2@@std@@PAUACCOUNT_CACHE@@U?$less@V?$basic_string@DU?$char_traits@D@std@@V?$allocator@D@2@@std@@@2@V?$allocator@U?$pair@$$CBV?$basic_string@DU?$char_traits@D@std@@V?$allocator@D@2@@std@@PAUACCOUNT_CACHE@@@std@@@2@$0A@@std@@@std@@QAEPAXI@Z 00402a10 f i AccountCacheMgr.obj
 0001:00001a30       ??0?$basic_string@DU?$char_traits@D@std@@V?$allocator@D@2@@std@@QAE@ABV01@@Z 00402a30 f i AccountCacheMgr.obj
 0001:00001a60       ?assign@?$basic_string@DU?$char_traits@D@std@@V?$allocator@D@2@@std@@QAEAAV12@PBD@Z 00402a60 f i AccountCacheMgr.obj
 0001:00001a90       ?find@?$_Tree@V?$_Tmap_traits@V?$basic_string@DU?$char_traits@D@std@@V?$allocator@D@2@@std@@PAUACCOUNT_CACHE@@U?$less@V?$basic_string@DU?$char_traits@D@std@@V?$allocator@D@2@@std@@@2@V?$allocator@U?$pair@$$CBV?$basic_string@DU?$char_traits@D@std@@V?$allocator@D@2@@std@@PAUACCOUNT_CACHE@@@std@@@2@$0A@@std@@@std@@QAE?AViterator@12@ABV?$basic_string@DU?$char_traits@D@std@@V?$allocator@D@2@@2@@Z 00402a90 f i AccountCacheMgr.obj
 0001:00001b00       ??0?$pair@$$CBV?$basic_string@DU?$char_traits@D@std@@V?$allocator@D@2@@std@@PAUACCOUNT_CACHE@@@std@@QAE@ABV?$basic_string@DU?$char_traits@D@std@@V?$allocator@D@2@@1@ABQAUACCOUNT_CACHE@@@Z 00402b00 f i AccountCacheMgr.obj
 0001:00001b30       ?equal_range@?$_Tree@V?$_Tmap_traits@V?$basic_string@DU?$char_traits@D@std@@V?$allocator@D@2@@std@@PAUACCOUNT_CACHE@@U?$less@V?$basic_string@DU?$char_traits@D@std@@V?$allocator@D@2@@std@@@2@V?$allocator@U?$pair@$$CBV?$basic_string@DU?$char_traits@D@std@@V?$allocator@D@2@@std@@PAUACCOUNT_CACHE@@@std@@@2@$0A@@std@@@std@@QAE?AU?$pair@Viterator@?$_Tree@V?$_Tmap_traits@V?$basic_string@DU?$char_traits@D@std@@V?$allocator@D@2@@std@@PAUACCOUNT_CACHE@@U?$less@V?$basic_string@DU?$char_traits@D@std@@V?$allocator@D@2@@std@@@2@V?$allocator@U?$pair@$$CBV?$basic_string@DU?$char_traits@D@std@@V?$allocator@D@2@@std@@PAUACCOUNT_CACHE@@@std@@@2@$0A@@std@@@std@@V123@@2@ABV?$basic_string@DU?$char_traits@D@std@@V?$allocator@D@2@@2@@Z 00402b30 f i AccountCacheMgr.obj
 0001:00001b60       ??0?$pair@$$CBV?$basic_string@DU?$char_traits@D@std@@V?$allocator@D@2@@std@@PAUACCOUNT_CACHE@@@std@@QAE@ABU01@@Z 00402b60 f i AccountCacheMgr.obj
 0001:00001b90       ??$_Destroy@U_Node@?$_Tree_nod@V?$_Tmap_traits@V?$basic_string@DU?$char_traits@D@std@@V?$allocator@D@2@@std@@PAUACCOUNT_CACHE@@U?$less@V?$basic_string@DU?$char_traits@D@std@@V?$allocator@D@2@@std@@@2@V?$allocator@U?$pair@$$CBV?$basic_string@DU?$char_traits@D@std@@V?$allocator@D@2@@std@@PAUACCOUNT_CACHE@@@std@@@2@$0A@@std@@@std@@@std@@YAXPAU_Node@?$_Tree_nod@V?$_Tmap_traits@V?$basic_string@DU?$char_traits@D@std@@V?$allocator@D@2@@std@@PAUACCOUNT_CACHE@@U?$less@V?$basic_string@DU?$char_traits@D@std@@V?$allocator@D@2@@std@@@2@V?$allocator@U?$pair@$$CBV?$basic_string@DU?$char_traits@D@std@@V?$allocator@D@2@@std@@PAUACCOUNT_CACHE@@@std@@@2@$0A@@std@@@0@@Z 00402b90 f i AccountCacheMgr.obj
 0001:00001ba0       ??0logic_error@std@@QAE@ABV?$basic_string@DU?$char_traits@D@std@@V?$allocator@D@2@@1@@Z 00402ba0 f i AccountCacheMgr.obj
 0001:00001c00       ??0length_error@std@@QAE@ABV?$basic_string@DU?$char_traits@D@std@@V?$allocator@D@2@@1@@Z 00402c00 f i AccountCacheMgr.obj
 0001:00001c20       ??_Glength_error@std@@UAEPAXI@Z 00402c20 f i AccountCacheMgr.obj
 0001:00001c20       ??_Elength_error@std@@UAEPAXI@Z 00402c20 f i AccountCacheMgr.obj
 0001:00001c40       ??1length_error@std@@UAE@XZ 00402c40 f i AccountCacheMgr.obj
 0001:00001c80       ??0out_of_range@std@@QAE@ABV?$basic_string@DU?$char_traits@D@std@@V?$allocator@D@2@@1@@Z 00402c80 f i AccountCacheMgr.obj
 0001:00001ca0       ??_Eout_of_range@std@@UAEPAXI@Z 00402ca0 f i AccountCacheMgr.obj
 0001:00001ca0       ??_Gout_of_range@std@@UAEPAXI@Z 00402ca0 f i AccountCacheMgr.obj
 0001:00001cc0       ??1out_of_range@std@@UAE@XZ 00402cc0 f i AccountCacheMgr.obj
 0001:00001d00       ??0?$basic_string@DU?$char_traits@D@std@@V?$allocator@D@2@@std@@QAE@PBD@Z 00402d00 f i AccountCacheMgr.obj
 0001:00001d40       ??4?$basic_string@DU?$char_traits@D@std@@V?$allocator@D@2@@std@@QAEAAV01@PBD@Z 00402d40 f i AccountCacheMgr.obj
 0001:00001d70       ?Find@CAccountCacheMgr@@QAEPAUACCOUNT_CACHE@@PBD@Z 00402d70 f   AccountCacheMgr.obj
 0001:00001e30       ?AddMover@CAccountCacheMgr@@QAEXKPBDH@Z 00402e30 f   AccountCacheMgr.obj
 0001:00001e80       ?RemoveMover@CAccountCacheMgr@@QAEXKPBD@Z 00402e80 f   AccountCacheMgr.obj
 0001:00001ef0       ?ChangeMultiServer@CAccountCacheMgr@@QAEXPBDK@Z 00402ef0 f   AccountCacheMgr.obj
 0001:00001f30       ?destroy@?$allocator@U_Node@?$_Tree_nod@V?$_Tmap_traits@V?$basic_string@DU?$char_traits@D@std@@V?$allocator@D@2@@std@@PAUACCOUNT_CACHE@@U?$less@V?$basic_string@DU?$char_traits@D@std@@V?$allocator@D@2@@std@@@2@V?$allocator@U?$pair@$$CBV?$basic_string@DU?$char_traits@D@std@@V?$allocator@D@2@@std@@PAUACCOUNT_CACHE@@@std@@@2@$0A@@std@@@std@@@std@@QAEXPAU_Node@?$_Tree_nod@V?$_Tmap_traits@V?$basic_string@DU?$char_traits@D@std@@V?$allocator@D@2@@std@@PAUACCOUNT_CACHE@@U?$less@V?$basic_string@DU?$char_traits@D@std@@V?$allocator@D@2@@std@@@2@V?$allocator@U?$pair@$$CBV?$basic_string@DU?$char_traits@D@std@@V?$allocator@D@2@@std@@PAUACCOUNT_CACHE@@@std@@@2@$0A@@std@@@2@@Z 00402f30 f i AccountCacheMgr.obj
 0001:00001f40       ?_Incsize@?$list@PAUACCOUNT_CACHE@@V?$allocator@PAUACCOUNT_CACHE@@@std@@@std@@IAEXI@Z 00402f40 f i AccountCacheMgr.obj
 0001:00001fe0       ??0logic_error@std@@QAE@ABV01@@Z 00402fe0 f i AccountCacheMgr.obj
 0001:00002050       ??0length_error@std@@QAE@ABV01@@Z 00403050 f i AccountCacheMgr.obj
 0001:00002070       ??0_Node@?$_Tree_nod@V?$_Tmap_traits@V?$basic_string@DU?$char_traits@D@std@@V?$allocator@D@2@@std@@PAUACCOUNT_CACHE@@U?$less@V?$basic_string@DU?$char_traits@D@std@@V?$allocator@D@2@@std@@@2@V?$allocator@U?$pair@$$CBV?$basic_string@DU?$char_traits@D@std@@V?$allocator@D@2@@std@@PAUACCOUNT_CACHE@@@std@@@2@$0A@@std@@@std@@QAE@PAU012@00ABU?$pair@$$CBV?$basic_string@DU?$char_traits@D@std@@V?$allocator@D@2@@std@@PAUACCOUNT_CACHE@@@2@D@Z 00403070 f i AccountCacheMgr.obj
 0001:000020d0       ?_Erase@?$_Tree@V?$_Tmap_traits@V?$basic_string@DU?$char_traits@D@std@@V?$allocator@D@2@@std@@PAUACCOUNT_CACHE@@U?$less@V?$basic_string@DU?$char_traits@D@std@@V?$allocator@D@2@@std@@@2@V?$allocator@U?$pair@$$CBV?$basic_string@DU?$char_traits@D@std@@V?$allocator@D@2@@std@@PAUACCOUNT_CACHE@@@std@@@2@$0A@@std@@@std@@IAEXPAU_Node@?$_Tree_nod@V?$_Tmap_traits@V?$basic_string@DU?$char_traits@D@std@@V?$allocator@D@2@@std@@PAUACCOUNT_CACHE@@U?$less@V?$basic_string@DU?$char_traits@D@std@@V?$allocator@D@2@@std@@@2@V?$allocator@U?$pair@$$CBV?$basic_string@DU?$char_traits@D@std@@V?$allocator@D@2@@std@@PAUACCOUNT_CACHE@@@std@@@2@$0A@@std@@@2@@Z 004030d0 f i AccountCacheMgr.obj
 0001:00002110       ?_Insert@?$list@PAUACCOUNT_CACHE@@V?$allocator@PAUACCOUNT_CACHE@@@std@@@std@@QAEXViterator@12@ABQAUACCOUNT_CACHE@@@Z 00403110 f i AccountCacheMgr.obj
 0001:00002150       ?erase@?$_Tree@V?$_Tmap_traits@V?$basic_string@DU?$char_traits@D@std@@V?$allocator@D@2@@std@@PAUACCOUNT_CACHE@@U?$less@V?$basic_string@DU?$char_traits@D@std@@V?$allocator@D@2@@std@@@2@V?$allocator@U?$pair@$$CBV?$basic_string@DU?$char_traits@D@std@@V?$allocator@D@2@@std@@PAUACCOUNT_CACHE@@@std@@@2@$0A@@std@@@std@@QAE?AViterator@12@V312@@Z 00403150 f i AccountCacheMgr.obj
 0001:00002430       ??0out_of_range@std@@QAE@ABV01@@Z 00403430 f i AccountCacheMgr.obj
 0001:00002450       ?_Buynode@?$_Tree@V?$_Tmap_traits@V?$basic_string@DU?$char_traits@D@std@@V?$allocator@D@2@@std@@PAUACCOUNT_CACHE@@U?$less@V?$basic_string@DU?$char_traits@D@std@@V?$allocator@D@2@@std@@@2@V?$allocator@U?$pair@$$CBV?$basic_string@DU?$char_traits@D@std@@V?$allocator@D@2@@std@@PAUACCOUNT_CACHE@@@std@@@2@$0A@@std@@@std@@IAEPAU_Node@?$_Tree_nod@V?$_Tmap_traits@V?$basic_string@DU?$char_traits@D@std@@V?$allocator@D@2@@std@@PAUACCOUNT_CACHE@@U?$less@V?$basic_string@DU?$char_traits@D@std@@V?$allocator@D@2@@std@@@2@V?$allocator@U?$pair@$$CBV?$basic_string@DU?$char_traits@D@std@@V?$allocator@D@2@@std@@PAUACCOUNT_CACHE@@@std@@@2@$0A@@std@@@2@PAU342@00ABU?$pair@$$CBV?$basic_string@DU?$char_traits@D@std@@V?$allocator@D@2@@std@@PAUACCOUNT_CACHE@@@2@D@Z 00403450 f i AccountCacheMgr.obj
 0001:000024e0       ?clear@?$_Tree@V?$_Tmap_traits@V?$basic_string@DU?$char_traits@D@std@@V?$allocator@D@2@@std@@PAUACCOUNT_CACHE@@U?$less@V?$basic_string@DU?$char_traits@D@std@@V?$allocator@D@2@@std@@@2@V?$allocator@U?$pair@$$CBV?$basic_string@DU?$char_traits@D@std@@V?$allocator@D@2@@std@@PAUACCOUNT_CACHE@@@std@@@2@$0A@@std@@@std@@QAEXXZ 004034e0 f i AccountCacheMgr.obj
 0001:00002510       ?push_front@?$list@PAUACCOUNT_CACHE@@V?$allocator@PAUACCOUNT_CACHE@@@std@@@std@@QAEXABQAUACCOUNT_CACHE@@@Z 00403510 f i AccountCacheMgr.obj
 0001:00002550       ?erase@?$_Tree@V?$_Tmap_traits@V?$basic_string@DU?$char_traits@D@std@@V?$allocator@D@2@@std@@PAUACCOUNT_CACHE@@U?$less@V?$basic_string@DU?$char_traits@D@std@@V?$allocator@D@2@@std@@@2@V?$allocator@U?$pair@$$CBV?$basic_string@DU?$char_traits@D@std@@V?$allocator@D@2@@std@@PAUACCOUNT_CACHE@@@std@@@2@$0A@@std@@@std@@QAE?AViterator@12@V312@0@Z 00403550 f i AccountCacheMgr.obj
 0001:00002610       ?_Insert@?$_Tree@V?$_Tmap_traits@V?$basic_string@DU?$char_traits@D@std@@V?$allocator@D@2@@std@@PAUACCOUNT_CACHE@@U?$less@V?$basic_string@DU?$char_traits@D@std@@V?$allocator@D@2@@std@@@2@V?$allocator@U?$pair@$$CBV?$basic_string@DU?$char_traits@D@std@@V?$allocator@D@2@@std@@PAUACCOUNT_CACHE@@@std@@@2@$0A@@std@@@std@@IAE?AViterator@12@_NPAU_Node@?$_Tree_nod@V?$_Tmap_traits@V?$basic_string@DU?$char_traits@D@std@@V?$allocator@D@2@@std@@PAUACCOUNT_CACHE@@U?$less@V?$basic_string@DU?$char_traits@D@std@@V?$allocator@D@2@@std@@@2@V?$allocator@U?$pair@$$CBV?$basic_string@DU?$char_traits@D@std@@V?$allocator@D@2@@std@@PAUACCOUNT_CACHE@@@std@@@2@$0A@@std@@@2@ABU?$pair@$$CBV?$basic_string@DU?$char_traits@D@std@@V?$allocator@D@2@@std@@PAUACCOUNT_CACHE@@@2@@Z 00403610 f i AccountCacheMgr.obj
 0001:000027c0       ?_Tidy@?$_Tree@V?$_Tmap_traits@V?$basic_string@DU?$char_traits@D@std@@V?$allocator@D@2@@std@@PAUACCOUNT_CACHE@@U?$less@V?$basic_string@DU?$char_traits@D@std@@V?$allocator@D@2@@std@@@2@V?$allocator@U?$pair@$$CBV?$basic_string@DU?$char_traits@D@std@@V?$allocator@D@2@@std@@PAUACCOUNT_CACHE@@@std@@@2@$0A@@std@@@std@@IAEXXZ 004037c0 f i AccountCacheMgr.obj
 0001:000027f0       ?Clear@CAccountCacheMgr@@QAEXXZ 004037f0 f   AccountCacheMgr.obj
 0001:000028b0       ??1?$_Tree@V?$_Tmap_traits@V?$basic_string@DU?$char_traits@D@std@@V?$allocator@D@2@@std@@PAUACCOUNT_CACHE@@U?$less@V?$basic_string@DU?$char_traits@D@std@@V?$allocator@D@2@@std@@@2@V?$allocator@U?$pair@$$CBV?$basic_string@DU?$char_traits@D@std@@V?$allocator@D@2@@std@@PAUACCOUNT_CACHE@@@std@@@2@$0A@@std@@@std@@QAE@XZ 004038b0 f i AccountCacheMgr.obj
 0001:000028e0       ?insert@?$_Tree@V?$_Tmap_traits@V?$basic_string@DU?$char_traits@D@std@@V?$allocator@D@2@@std@@PAUACCOUNT_CACHE@@U?$less@V?$basic_string@DU?$char_traits@D@std@@V?$allocator@D@2@@std@@@2@V?$allocator@U?$pair@$$CBV?$basic_string@DU?$char_traits@D@std@@V?$allocator@D@2@@std@@PAUACCOUNT_CACHE@@@std@@@2@$0A@@std@@@std@@QAE?AU?$pair@Viterator@?$_Tree@V?$_Tmap_traits@V?$basic_string@DU?$char_traits@D@std@@V?$allocator@D@2@@std@@PAUACCOUNT_CACHE@@U?$less@V?$basic_string@DU?$char_traits@D@std@@V?$allocator@D@2@@std@@@2@V?$allocator@U?$pair@$$CBV?$basic_string@DU?$char_traits@D@std@@V?$allocator@D@2@@std@@PAUACCOUNT_CACHE@@@std@@@2@$0A@@std@@@std@@_N@2@ABU?$pair@$$CBV?$basic_string@DU?$char_traits@D@std@@V?$allocator@D@2@@std@@PAUACCOUNT_CACHE@@@2@@Z 004038e0 f i AccountCacheMgr.obj
 0001:00002a60       ?erase@?$_Tree@V?$_Tmap_traits@V?$basic_string@DU?$char_traits@D@std@@V?$allocator@D@2@@std@@PAUACCOUNT_CACHE@@U?$less@V?$basic_string@DU?$char_traits@D@std@@V?$allocator@D@2@@std@@@2@V?$allocator@U?$pair@$$CBV?$basic_string@DU?$char_traits@D@std@@V?$allocator@D@2@@std@@PAUACCOUNT_CACHE@@@std@@@2@$0A@@std@@@std@@QAEIABV?$basic_string@DU?$char_traits@D@std@@V?$allocator@D@2@@2@@Z 00403a60 f i AccountCacheMgr.obj
 0001:00002ab0       ??1?$map@V?$basic_string@DU?$char_traits@D@std@@V?$allocator@D@2@@std@@PAUACCOUNT_CACHE@@U?$less@V?$basic_string@DU?$char_traits@D@std@@V?$allocator@D@2@@std@@@2@V?$allocator@U?$pair@$$CBV?$basic_string@DU?$char_traits@D@std@@V?$allocator@D@2@@std@@PAUACCOUNT_CACHE@@@std@@@2@@std@@QAE@XZ 00403ab0 f i AccountCacheMgr.obj
 0001:00002ae0       ?AddAccount@CAccountCacheMgr@@QAEXKPBDHPAUACCOUNT_CACHE@@@Z 00403ae0 f   AccountCacheMgr.obj
 0001:00002bd0       ?GetAccount@CAccountCacheMgr@@QAEPAUACCOUNT_CACHE@@PBDPAH@Z 00403bd0 f   AccountCacheMgr.obj
 0001:00002e90       ??0?$map@V?$basic_string@DU?$char_traits@D@std@@V?$allocator@D@2@@std@@PAUACCOUNT_CACHE@@U?$less@V?$basic_string@DU?$char_traits@D@std@@V?$allocator@D@2@@std@@@2@V?$allocator@U?$pair@$$CBV?$basic_string@DU?$char_traits@D@std@@V?$allocator@D@2@@std@@PAUACCOUNT_CACHE@@@std@@@2@@std@@QAE@XZ 00403e90 f i AccountCacheMgr.obj
 0001:00002ec0       ??0CAccountCacheMgr@@QAE@XZ 00403ec0 f   AccountCacheMgr.obj
 0001:00002f30       ?GetQueryObject@CDbController@@QAEPAVCQuery@@XZ 00403f30 f i CampusDBCtrl.obj
 0001:00002f40       ?GetPlayerId@CCampusMember@@QAEKXZ 00403f40 f i CampusDBCtrl.obj
 0001:00002f50       ?SetPlayerId@CCampusMember@@QAEXK@Z 00403f50 f i CampusDBCtrl.obj
 0001:00002f60       ?GetLevel@CCampusMember@@QAEHXZ 00403f60 f i CampusDBCtrl.obj
 0001:00002f70       ?SetLevel@CCampusMember@@QAEXH@Z 00403f70 f i CampusDBCtrl.obj
 0001:00002f80       ?GetCampusId@CCampus@@QAEKXZ 00403f80 f i CampusDBCtrl.obj
 0001:00002f90       ?SetCampusId@CCampus@@QAEXK@Z 00403f90 f i CampusDBCtrl.obj
 0001:00002fa0       ?GetMaster@CCampus@@QAEKXZ 00403fa0 f i CampusDBCtrl.obj
 0001:00002fb0       ?SetMaster@CCampus@@QAEXK@Z 00403fb0 f i CampusDBCtrl.obj
 0001:00002fc0       ?IsMaster@CCampus@@QAEHK@Z 00403fc0 f i CampusDBCtrl.obj
 0001:00002fe0       ?AddCampus@CCampusHelper@@QAEKPAVCCampus@@@Z 00403fe0 f i CampusDBCtrl.obj
 0001:00002ff0       ?RemoveCampus@CCampusHelper@@QAEHK@Z 00403ff0 f i CampusDBCtrl.obj
 0001:00003000       ?GetCampus@CCampusHelper@@QAEPAVCCampus@@K@Z 00404000 f i CampusDBCtrl.obj
 0001:00003010       ?Clear@CCampusHelper@@QAEXXZ 00404010 f i CampusDBCtrl.obj
 0001:00003020       ?AddPlayerId2CampusId@CCampusHelper@@QAE_NKK@Z 00404020 f i CampusDBCtrl.obj
 0001:00003030       ?GetCampusIdByPlayerId@CCampusHelper@@QAEKK@Z 00404030 f i CampusDBCtrl.obj
 0001:00003040       ??0CCampusDBCtrl@@QAE@XZ   00404040 f   CampusDBCtrl.obj
 0001:00003060       ?OnTimer@CDbController@@UAEXXZ 00404060 f i CampusDBCtrl.obj
 0001:00003070       ??_GCQuery@@QAEPAXI@Z      00404070 f i CampusDBCtrl.obj
 0001:00003090       ?CreateLogQuery@CCampusDBCtrl@@AAEXXZ 00404090 f   CampusDBCtrl.obj
 0001:00003140       ??_GCCampusMember@@QAEPAXI@Z 00404140 f i CampusDBCtrl.obj
 0001:00003160       ??_GCCampus@@QAEPAXI@Z     00404160 f i CampusDBCtrl.obj
 0001:00003180       ?InsertCampus@CCampusDBCtrl@@AAEXK@Z 00404180 f   CampusDBCtrl.obj
 0001:00003220       ?DeleteCampus@CCampusDBCtrl@@AAEXK@Z 00404220 f   CampusDBCtrl.obj
 0001:000032c0       ?InsertCampusMember@CCampusDBCtrl@@AAEXKKH@Z 004042c0 f   CampusDBCtrl.obj
 0001:00003360       ?DeleteCampusMember@CCampusDBCtrl@@AAEXKH@Z 00404360 f   CampusDBCtrl.obj
 0001:00003400       ?UpdateCampusPoint@CCampusDBCtrl@@AAEHKH@Z 00404400 f   CampusDBCtrl.obj
 0001:000035c0       ?UpdateCampusId@CCampusDBCtrl@@AAEXKK@Z 004045c0 f   CampusDBCtrl.obj
 0001:00003740       ?LogUpdateCampusMember@CCampusDBCtrl@@AAEXKKKD@Z 00404740 f   CampusDBCtrl.obj
 0001:000037f0       ?LogUpdateCampusPoint@CCampusDBCtrl@@AAEXKHHD@Z 004047f0 f   CampusDBCtrl.obj
 0001:000038a0       ??_GCCampusMng@@QAEPAXI@Z  004048a0 f i CampusDBCtrl.obj
 0001:000038c0       ?GetMaxPupilNum@CCampusHelper@@QAEHH@Z 004048c0 f   CampusDBCtrl.obj
 0001:00003900       ?size@?$_Tree@V?$_Tmap_traits@KPAVCCampusMember@@U?$less@K@std@@V?$allocator@U?$pair@$$CBKPAVCCampusMember@@@std@@@3@$0A@@std@@@std@@QBEIXZ 00404900 f i CampusDBCtrl.obj
 0001:00003910       ??Eiterator@?$vector@KV?$allocator@K@std@@@std@@QAEAAV012@XZ 00404910 f i CampusDBCtrl.obj
 0001:00003920       ?size@?$_Tree@V?$_Tmap_traits@KPAVCCampus@@U?$less@K@std@@V?$allocator@U?$pair@$$CBKPAVCCampus@@@std@@@3@$0A@@std@@@std@@QBEIXZ 00404920 f i CampusDBCtrl.obj
 0001:00003930       ??Dconst_iterator@?$vector@KV?$allocator@K@std@@@std@@QBEABKXZ 00404930 f i CampusDBCtrl.obj
 0001:00003940       ??8const_iterator@?$vector@KV?$allocator@K@std@@@std@@QBE_NABV012@@Z 00404940 f i CampusDBCtrl.obj
 0001:00003950       ??8const_iterator@?$_Tree@V?$_Tmap_traits@KKU?$less@K@std@@V?$allocator@U?$pair@$$CBKK@std@@@2@$0A@@std@@@std@@QBE_NABV012@@Z 00404950 f i CampusDBCtrl.obj
 0001:00003960       ??9const_iterator@?$_Tree@V?$_Tmap_traits@KKU?$less@K@std@@V?$allocator@U?$pair@$$CBKK@std@@@2@$0A@@std@@@std@@QBE_NABV012@@Z 00404960 f i CampusDBCtrl.obj
 0001:00003980       ??0const_iterator@?$vector@KV?$allocator@K@std@@@std@@QAE@PAK@Z 00404980 f i CampusDBCtrl.obj
 0001:00003990       ??0?$pair@Viterator@?$_Tree@V?$_Tmap_traits@KKU?$less@K@std@@V?$allocator@U?$pair@$$CBKK@std@@@2@$0A@@std@@@std@@V123@@std@@QAE@ABViterator@?$_Tree@V?$_Tmap_traits@KKU?$less@K@std@@V?$allocator@U?$pair@$$CBKK@std@@@2@$0A@@std@@@1@0@Z 00404990 f i CampusDBCtrl.obj
 0001:000039b0       ?_Color@?$_Tree@V?$_Tmap_traits@KKU?$less@K@std@@V?$allocator@U?$pair@$$CBKK@std@@@2@$0A@@std@@@std@@KAAADPAU_Node@?$_Tree_nod@V?$_Tmap_traits@KKU?$less@K@std@@V?$allocator@U?$pair@$$CBKK@std@@@2@$0A@@std@@@2@@Z 004049b0 f i CampusDBCtrl.obj
 0001:000039c0       ?_Isnil@?$_Tree@V?$_Tmap_traits@KKU?$less@K@std@@V?$allocator@U?$pair@$$CBKK@std@@@2@$0A@@std@@@std@@KAAADPAU_Node@?$_Tree_nod@V?$_Tmap_traits@KKU?$less@K@std@@V?$allocator@U?$pair@$$CBKK@std@@@2@$0A@@std@@@2@@Z 004049c0 f i CampusDBCtrl.obj
 0001:000039d0       ?_Left@?$_Tree@V?$_Tmap_traits@KKU?$less@K@std@@V?$allocator@U?$pair@$$CBKK@std@@@2@$0A@@std@@@std@@KAAAPAU_Node@?$_Tree_nod@V?$_Tmap_traits@KKU?$less@K@std@@V?$allocator@U?$pair@$$CBKK@std@@@2@$0A@@std@@@2@PAU342@@Z 004049d0 f i CampusDBCtrl.obj
 0001:000039e0       ?_Parent@?$_Tree@V?$_Tmap_traits@KKU?$less@K@std@@V?$allocator@U?$pair@$$CBKK@std@@@2@$0A@@std@@@std@@KAAAPAU_Node@?$_Tree_nod@V?$_Tmap_traits@KKU?$less@K@std@@V?$allocator@U?$pair@$$CBKK@std@@@2@$0A@@std@@@2@PAU342@@Z 004049e0 f i CampusDBCtrl.obj
 0001:000039f0       ?_Right@?$_Tree@V?$_Tmap_traits@KKU?$less@K@std@@V?$allocator@U?$pair@$$CBKK@std@@@2@$0A@@std@@@std@@KAAAPAU_Node@?$_Tree_nod@V?$_Tmap_traits@KKU?$less@K@std@@V?$allocator@U?$pair@$$CBKK@std@@@2@$0A@@std@@@2@PAU342@@Z 004049f0 f i CampusDBCtrl.obj
 0001:00003a00       ?_Lmost@?$_Tree@V?$_Tmap_traits@KKU?$less@K@std@@V?$allocator@U?$pair@$$CBKK@std@@@2@$0A@@std@@@std@@IAEAAPAU_Node@?$_Tree_nod@V?$_Tmap_traits@KKU?$less@K@std@@V?$allocator@U?$pair@$$CBKK@std@@@2@$0A@@std@@@2@XZ 00404a00 f i CampusDBCtrl.obj
 0001:00003a10       ?_Max@?$_Tree@V?$_Tmap_traits@KKU?$less@K@std@@V?$allocator@U?$pair@$$CBKK@std@@@2@$0A@@std@@@std@@KAPAU_Node@?$_Tree_nod@V?$_Tmap_traits@KKU?$less@K@std@@V?$allocator@U?$pair@$$CBKK@std@@@2@$0A@@std@@@2@PAU342@@Z 00404a10 f i CampusDBCtrl.obj
 0001:00003a30       ?_Min@?$_Tree@V?$_Tmap_traits@KKU?$less@K@std@@V?$allocator@U?$pair@$$CBKK@std@@@2@$0A@@std@@@std@@KAPAU_Node@?$_Tree_nod@V?$_Tmap_traits@KKU?$less@K@std@@V?$allocator@U?$pair@$$CBKK@std@@@2@$0A@@std@@@2@PAU342@@Z 00404a30 f i CampusDBCtrl.obj
 0001:00003a50       ?_Rmost@?$_Tree@V?$_Tmap_traits@KKU?$less@K@std@@V?$allocator@U?$pair@$$CBKK@std@@@2@$0A@@std@@@std@@IAEAAPAU_Node@?$_Tree_nod@V?$_Tmap_traits@KKU?$less@K@std@@V?$allocator@U?$pair@$$CBKK@std@@@2@$0A@@std@@@2@XZ 00404a50 f i CampusDBCtrl.obj
 0001:00003a60       ?_Root@?$_Tree@V?$_Tmap_traits@KKU?$less@K@std@@V?$allocator@U?$pair@$$CBKK@std@@@2@$0A@@std@@@std@@IAEAAPAU_Node@?$_Tree_nod@V?$_Tmap_traits@KKU?$less@K@std@@V?$allocator@U?$pair@$$CBKK@std@@@2@$0A@@std@@@2@XZ 00404a60 f i CampusDBCtrl.obj
 0001:00003a70       ?_Rrotate@?$_Tree@V?$_Tmap_traits@KKU?$less@K@std@@V?$allocator@U?$pair@$$CBKK@std@@@2@$0A@@std@@@std@@IAEXPAU_Node@?$_Tree_nod@V?$_Tmap_traits@KKU?$less@K@std@@V?$allocator@U?$pair@$$CBKK@std@@@2@$0A@@std@@@2@@Z 00404a70 f i CampusDBCtrl.obj
 0001:00003ad0       ?deallocate@?$allocator@U_Node@?$_Tree_nod@V?$_Tmap_traits@KKU?$less@K@std@@V?$allocator@U?$pair@$$CBKK@std@@@2@$0A@@std@@@std@@@std@@QAEXPAU_Node@?$_Tree_nod@V?$_Tmap_traits@KKU?$less@K@std@@V?$allocator@U?$pair@$$CBKK@std@@@2@$0A@@std@@@2@I@Z 00404ad0 f i CampusDBCtrl.obj
 0001:00003ae0       ?_Mynode@const_iterator@?$_Tree@V?$_Tmap_traits@KKU?$less@K@std@@V?$allocator@U?$pair@$$CBKK@std@@@2@$0A@@std@@@std@@QBEPAU_Node@?$_Tree_nod@V?$_Tmap_traits@KKU?$less@K@std@@V?$allocator@U?$pair@$$CBKK@std@@@2@$0A@@std@@@3@XZ 00404ae0 f i CampusDBCtrl.obj
 0001:00003af0       ?_Root@?$_Tree@V?$_Tmap_traits@KKU?$less@K@std@@V?$allocator@U?$pair@$$CBKK@std@@@2@$0A@@std@@@std@@IBEAAPAU_Node@?$_Tree_nod@V?$_Tmap_traits@KKU?$less@K@std@@V?$allocator@U?$pair@$$CBKK@std@@@2@$0A@@std@@@2@XZ 00404af0 f i CampusDBCtrl.obj
 0001:00003b00       ??0const_iterator@?$_Tree@V?$_Tmap_traits@KKU?$less@K@std@@V?$allocator@U?$pair@$$CBKK@std@@@2@$0A@@std@@@std@@QAE@PAU_Node@?$_Tree_nod@V?$_Tmap_traits@KKU?$less@K@std@@V?$allocator@U?$pair@$$CBKK@std@@@2@$0A@@std@@@2@@Z 00404b00 f i CampusDBCtrl.obj
 0001:00003b10       ?_Myval@?$_Tree@V?$_Tmap_traits@KKU?$less@K@std@@V?$allocator@U?$pair@$$CBKK@std@@@2@$0A@@std@@@std@@KAAAU?$pair@$$CBKK@2@PAU_Node@?$_Tree_nod@V?$_Tmap_traits@KKU?$less@K@std@@V?$allocator@U?$pair@$$CBKK@std@@@2@$0A@@std@@@2@@Z 00404b10 f i CampusDBCtrl.obj
 0001:00003b20       ?_Kfn@?$_Tmap_traits@KKU?$less@K@std@@V?$allocator@U?$pair@$$CBKK@std@@@2@$0A@@std@@SAABKABU?$pair@$$CBKK@2@@Z 00404b20 f i CampusDBCtrl.obj
 0001:00003b30       ?_Inc@const_iterator@?$_Tree@V?$_Tmap_traits@KKU?$less@K@std@@V?$allocator@U?$pair@$$CBKK@std@@@2@$0A@@std@@@std@@QAEXXZ 00404b30 f i CampusDBCtrl.obj
 0001:00003b90       ??$_Destroy_range@KV?$allocator@K@std@@@std@@YAXPAK0AAV?$allocator@K@0@U_Scalar_ptr_iterator_tag@0@@Z 00404b90 f i CampusDBCtrl.obj
 0001:00003ba0       ??$_Destroy@U_Node@?$_Tree_nod@V?$_Tmap_traits@KKU?$less@K@std@@V?$allocator@U?$pair@$$CBKK@std@@@2@$0A@@std@@@std@@@std@@YAXPAU_Node@?$_Tree_nod@V?$_Tmap_traits@KKU?$less@K@std@@V?$allocator@U?$pair@$$CBKK@std@@@2@$0A@@std@@@0@@Z 00404ba0 f i CampusDBCtrl.obj
 0001:00003bb0       ??$_Iter_cat@Viterator@?$_Tree@V?$_Tmap_traits@KKU?$less@K@std@@V?$allocator@U?$pair@$$CBKK@std@@@2@$0A@@std@@@std@@@std@@YA?AUbidirectional_iterator_tag@0@ABViterator@?$_Tree@V?$_Tmap_traits@KKU?$less@K@std@@V?$allocator@U?$pair@$$CBKK@std@@@2@$0A@@std@@@0@@Z 00404bb0 f i CampusDBCtrl.obj
 0001:00003bc0       ?_Ptr_cat@std@@YA?AU_Scalar_ptr_iterator_tag@1@PAK0@Z 00404bc0 f i CampusDBCtrl.obj
 0001:00003bd0       ??5CAr@@QAEAAV0@AAE@Z      00404bd0 f i CampusDBCtrl.obj
 0001:00003c00       ??5CAr@@QAEAAV0@AAK@Z      00404c00 f i CampusDBCtrl.obj
 0001:00003c40       ??5CAr@@QAEAAV0@AAJ@Z      00404c40 f i CampusDBCtrl.obj
 0001:00003c80       ??R?$less@K@std@@QBE_NABK0@Z 00404c80 f i CampusDBCtrl.obj
 0001:00003ca0       ?deallocate@?$allocator@K@std@@QAEXPAKI@Z 00404ca0 f i CampusDBCtrl.obj
 0001:00003cb0       ??$_Destroy_range@KV?$allocator@K@std@@@std@@YAXPAK0AAV?$allocator@K@0@@Z 00404cb0 f i CampusDBCtrl.obj
 0001:00003cc0       ?GetMemberSize@CCampus@@QAEHXZ 00404cc0 f i CampusDBCtrl.obj
 0001:00003cd0       ??1CCampusDBCtrl@@UAE@XZ   00404cd0 f   CampusDBCtrl.obj
 0001:00003d40       ??0CCampusHelper@@QAE@XZ   00404d40 f   CampusDBCtrl.obj
 0001:00003dd0       ??1CCampusHelper@@QAE@XZ   00404dd0 f   CampusDBCtrl.obj
 0001:00003e40       ?empty@?$_Tree@V?$_Tmap_traits@KPAVCCampus@@U?$less@K@std@@V?$allocator@U?$pair@$$CBKPAVCCampus@@@std@@@3@$0A@@std@@@std@@QBE_NXZ 00404e40 f i CampusDBCtrl.obj
 0001:00003e50       ??Diterator@?$vector@KV?$allocator@K@std@@@std@@QBEAAKXZ 00404e50 f i CampusDBCtrl.obj
 0001:00003e60       ??9const_iterator@?$vector@KV?$allocator@K@std@@@std@@QBE_NABV012@@Z 00404e60 f i CampusDBCtrl.obj
 0001:00003e80       ??0iterator@?$vector@KV?$allocator@K@std@@@std@@QAE@PAK@Z 00404e80 f i CampusDBCtrl.obj
 0001:00003e90       ?_Lrotate@?$_Tree@V?$_Tmap_traits@KKU?$less@K@std@@V?$allocator@U?$pair@$$CBKK@std@@@2@$0A@@std@@@std@@IAEXPAU_Node@?$_Tree_nod@V?$_Tmap_traits@KKU?$less@K@std@@V?$allocator@U?$pair@$$CBKK@std@@@2@$0A@@std@@@2@@Z 00404e90 f i CampusDBCtrl.obj
 0001:00003ef0       ?destroy@?$allocator@U_Node@?$_Tree_nod@V?$_Tmap_traits@KKU?$less@K@std@@V?$allocator@U?$pair@$$CBKK@std@@@2@$0A@@std@@@std@@@std@@QAEXPAU_Node@?$_Tree_nod@V?$_Tmap_traits@KKU?$less@K@std@@V?$allocator@U?$pair@$$CBKK@std@@@2@$0A@@std@@@2@@Z 00404ef0 f i CampusDBCtrl.obj
 0001:00003f00       ??0iterator@?$_Tree@V?$_Tmap_traits@KKU?$less@K@std@@V?$allocator@U?$pair@$$CBKK@std@@@2@$0A@@std@@@std@@QAE@PAU_Node@?$_Tree_nod@V?$_Tmap_traits@KKU?$less@K@std@@V?$allocator@U?$pair@$$CBKK@std@@@2@$0A@@std@@@2@@Z 00404f00 f i CampusDBCtrl.obj
 0001:00003f10       ?_Key@?$_Tree@V?$_Tmap_traits@KKU?$less@K@std@@V?$allocator@U?$pair@$$CBKK@std@@@2@$0A@@std@@@std@@KAABKPAU_Node@?$_Tree_nod@V?$_Tmap_traits@KKU?$less@K@std@@V?$allocator@U?$pair@$$CBKK@std@@@2@$0A@@std@@@2@@Z 00404f10 f i CampusDBCtrl.obj
 0001:00003f20       ??Econst_iterator@?$_Tree@V?$_Tmap_traits@KKU?$less@K@std@@V?$allocator@U?$pair@$$CBKK@std@@@2@$0A@@std@@@std@@QAEAAV012@XZ 00404f20 f i CampusDBCtrl.obj
 0001:00003f30       ??5CAr@@QAEAAV0@AAH@Z      00404f30 f i CampusDBCtrl.obj
 0001:00003f70       ??5CAr@@QAEAAV0@AAD@Z      00404f70 f i CampusDBCtrl.obj
 0001:00003fa0       ?_Destroy@?$vector@KV?$allocator@K@std@@@std@@IAEXPAK0@Z 00404fa0 f i CampusDBCtrl.obj
 0001:00003fb0       ?IsEmpty@CCampusMng@@QAEHXZ 00404fb0 f i CampusDBCtrl.obj
 0001:00003fc0       ?IsEmpty@CCampusHelper@@QAEHXZ 00404fc0 f i CampusDBCtrl.obj
 0001:00003fd0       ??_ECCampusDBCtrl@@UAEPAXI@Z 00404fd0 f i CampusDBCtrl.obj
 0001:00003fd0       ??_GCCampusDBCtrl@@UAEPAXI@Z 00404fd0 f i CampusDBCtrl.obj
 0001:00003ff0       ?UpdateCampusPoint@CCampusDBCtrl@@AAEXAAVCAr@@@Z 00404ff0 f   CampusDBCtrl.obj
 0001:000040b0       ?GetInstance@CCampusHelper@@SAPAV1@XZ 004050b0 f   CampusDBCtrl.obj
 0001:00004110       ?begin@?$vector@KV?$allocator@K@std@@@std@@QAE?AViterator@12@XZ 00405110 f i CampusDBCtrl.obj
 0001:00004120       ?end@?$vector@KV?$allocator@K@std@@@std@@QAE?AViterator@12@XZ 00405120 f i CampusDBCtrl.obj
 0001:00004130       ?begin@?$_Tree@V?$_Tmap_traits@KKU?$less@K@std@@V?$allocator@U?$pair@$$CBKK@std@@@2@$0A@@std@@@std@@QAE?AViterator@12@XZ 00405130 f i CampusDBCtrl.obj
 0001:00004140       ?end@?$_Tree@V?$_Tmap_traits@KKU?$less@K@std@@V?$allocator@U?$pair@$$CBKK@std@@@2@$0A@@std@@@std@@QAE?AViterator@12@XZ 00405140 f i CampusDBCtrl.obj
 0001:00004150       ?_Erase@?$_Tree@V?$_Tmap_traits@KKU?$less@K@std@@V?$allocator@U?$pair@$$CBKK@std@@@2@$0A@@std@@@std@@IAEXPAU_Node@?$_Tree_nod@V?$_Tmap_traits@KKU?$less@K@std@@V?$allocator@U?$pair@$$CBKK@std@@@2@$0A@@std@@@2@@Z 00405150 f i CampusDBCtrl.obj
 0001:00004190       ?_Lbound@?$_Tree@V?$_Tmap_traits@KKU?$less@K@std@@V?$allocator@U?$pair@$$CBKK@std@@@2@$0A@@std@@@std@@IBEPAU_Node@?$_Tree_nod@V?$_Tmap_traits@KKU?$less@K@std@@V?$allocator@U?$pair@$$CBKK@std@@@2@$0A@@std@@@2@ABK@Z 00405190 f i CampusDBCtrl.obj
 0001:000041c0       ?_Ubound@?$_Tree@V?$_Tmap_traits@KKU?$less@K@std@@V?$allocator@U?$pair@$$CBKK@std@@@2@$0A@@std@@@std@@IBEPAU_Node@?$_Tree_nod@V?$_Tmap_traits@KKU?$less@K@std@@V?$allocator@U?$pair@$$CBKK@std@@@2@$0A@@std@@@2@ABK@Z 004051c0 f i CampusDBCtrl.obj
 0001:000041f0       ??Eiterator@?$_Tree@V?$_Tmap_traits@KKU?$less@K@std@@V?$allocator@U?$pair@$$CBKK@std@@@2@$0A@@std@@@std@@QAEAAV012@XZ 004051f0 f i CampusDBCtrl.obj
 0001:00004200       ??$_Distance2@Viterator@?$_Tree@V?$_Tmap_traits@KKU?$less@K@std@@V?$allocator@U?$pair@$$CBKK@std@@@2@$0A@@std@@@std@@I@std@@YAXViterator@?$_Tree@V?$_Tmap_traits@KKU?$less@K@std@@V?$allocator@U?$pair@$$CBKK@std@@@2@$0A@@std@@@0@0AAIUbidirectional_iterator_tag@0@@Z 00405200 f i CampusDBCtrl.obj
 0001:00004230       ?_Tidy@?$vector@KV?$allocator@K@std@@@std@@IAEXXZ 00405230 f i CampusDBCtrl.obj
 0001:00004260       ?LoadAllCampus@CCampusDBCtrl@@AAEXXZ 00405260 f   CampusDBCtrl.obj
 0001:000044f0       ?AddCampusMember@CCampusDBCtrl@@AAEXAAVCAr@@@Z 004054f0 f   CampusDBCtrl.obj
 0001:000048b0       ?SendAllCampus@CCampusDBCtrl@@AAEXK@Z 004058b0 f   CampusDBCtrl.obj
 0001:000048e0       ?clear@?$_Tree@V?$_Tmap_traits@KKU?$less@K@std@@V?$allocator@U?$pair@$$CBKK@std@@@2@$0A@@std@@@std@@QAEXXZ 004058e0 f i CampusDBCtrl.obj
 0001:00004910       ?lower_bound@?$_Tree@V?$_Tmap_traits@KKU?$less@K@std@@V?$allocator@U?$pair@$$CBKK@std@@@2@$0A@@std@@@std@@QAE?AViterator@12@ABK@Z 00405910 f i CampusDBCtrl.obj
 0001:00004950       ?upper_bound@?$_Tree@V?$_Tmap_traits@KKU?$less@K@std@@V?$allocator@U?$pair@$$CBKK@std@@@2@$0A@@std@@@std@@QAE?AViterator@12@ABK@Z 00405950 f i CampusDBCtrl.obj
 0001:00004990       ??Eiterator@?$_Tree@V?$_Tmap_traits@KKU?$less@K@std@@V?$allocator@U?$pair@$$CBKK@std@@@2@$0A@@std@@@std@@QAE?AV012@H@Z 00405990 f i CampusDBCtrl.obj
 0001:000049b0       ??$_Distance@Viterator@?$_Tree@V?$_Tmap_traits@KKU?$less@K@std@@V?$allocator@U?$pair@$$CBKK@std@@@2@$0A@@std@@@std@@I@std@@YAXViterator@?$_Tree@V?$_Tmap_traits@KKU?$less@K@std@@V?$allocator@U?$pair@$$CBKK@std@@@2@$0A@@std@@@0@0AAI@Z 004059b0 f i CampusDBCtrl.obj
 0001:000049f0       ??1?$vector@KV?$allocator@K@std@@@std@@QAE@XZ 004059f0 f i CampusDBCtrl.obj
 0001:00004a20       ?equal_range@?$_Tree@V?$_Tmap_traits@KKU?$less@K@std@@V?$allocator@U?$pair@$$CBKK@std@@@2@$0A@@std@@@std@@QAE?AU?$pair@Viterator@?$_Tree@V?$_Tmap_traits@KKU?$less@K@std@@V?$allocator@U?$pair@$$CBKK@std@@@2@$0A@@std@@@std@@V123@@2@ABK@Z 00405a20 f i CampusDBCtrl.obj
 0001:00004a90       ?erase@?$_Tree@V?$_Tmap_traits@KKU?$less@K@std@@V?$allocator@U?$pair@$$CBKK@std@@@2@$0A@@std@@@std@@QAE?AViterator@12@V312@@Z 00405a90 f i CampusDBCtrl.obj
 0001:00004d50       ?erase@?$_Tree@V?$_Tmap_traits@KKU?$less@K@std@@V?$allocator@U?$pair@$$CBKK@std@@@2@$0A@@std@@@std@@QAE?AViterator@12@V312@0@Z 00405d50 f i CampusDBCtrl.obj
 0001:00004e10       ?erase@?$_Tree@V?$_Tmap_traits@KKU?$less@K@std@@V?$allocator@U?$pair@$$CBKK@std@@@2@$0A@@std@@@std@@QAEIABK@Z 00405e10 f i CampusDBCtrl.obj
 0001:00004e70       ?RemovePlayerId2CampusId@CCampusMng@@QAEXK@Z 00405e70 f i CampusDBCtrl.obj
 0001:00004e80       ?RemovePlayerId2CampusId@CCampusHelper@@QAEXK@Z 00405e80 f i CampusDBCtrl.obj
 0001:00004ea0       ?RemoveCampusMember@CCampusDBCtrl@@AAEXAAVCAr@@@Z 00405ea0 f   CampusDBCtrl.obj
 0001:000050d0       ?Handler@CCampusDBCtrl@@UAEXPAUtagDB_OVERLAPPED_PLUS@@K@Z 004060d0 f   CampusDBCtrl.obj
 0001:000051d0       ?GetArea@CContinent@@AAEEE@Z 004061d0 f   Continent.obj
 0001:00005200       ?GetContinentIndex@CContinent@@QAEHPBD@Z 00406200 f   Continent.obj
 0001:000053b0       ?InterlockedExchangePointer@@YGPAXPAPAXPAX@Z 004063b0 f i Continent.obj
 0001:000053c0       ?_AtlGetThreadACPFake@ATL@@YGIXZ 004063c0 f i Continent.obj
 0001:00005440       ?_AtlGetThreadACPReal@ATL@@YGIXZ 00406440 f i Continent.obj
 0001:00005450       ?_AtlGetThreadACPThunk@ATL@@YGIXZ 00406450 f i Continent.obj
 0001:000054c0       ?_AtlGetConversionACP@ATL@@YGIXZ 004064c0 f i Continent.obj
 0001:000054d0       ?size@?$vector@VCPoint@@V?$allocator@VCPoint@@@std@@@std@@QBEIXZ 004064d0 f i Continent.obj
 0001:000054f0       ?empty@?$vector@VCPoint@@V?$allocator@VCPoint@@@std@@@std@@QBE_NXZ 004064f0 f i Continent.obj
 0001:00005520       ??R?$less@E@std@@QBE_NABE0@Z 00406520 f i Continent.obj
 0001:00005540       ?_Isnil@?$_Tree@V?$_Tmap_traits@EV?$vector@VCPoint@@V?$allocator@VCPoint@@@std@@@std@@U?$less@E@2@V?$allocator@U?$pair@$$CBEV?$vector@VCPoint@@V?$allocator@VCPoint@@@std@@@std@@@std@@@2@$0A@@std@@@std@@KAAADPAU_Node@?$_Tree_nod@V?$_Tmap_traits@EV?$vector@VCPoint@@V?$allocator@VCPoint@@@std@@@std@@U?$less@E@2@V?$allocator@U?$pair@$$CBEV?$vector@VCPoint@@V?$allocator@VCPoint@@@std@@@std@@@std@@@2@$0A@@std@@@2@@Z 00406540 f i Continent.obj
 0001:00005550       ?_Left@?$_Tree@V?$_Tmap_traits@EV?$vector@VCPoint@@V?$allocator@VCPoint@@@std@@@std@@U?$less@E@2@V?$allocator@U?$pair@$$CBEV?$vector@VCPoint@@V?$allocator@VCPoint@@@std@@@std@@@std@@@2@$0A@@std@@@std@@KAAAPAU_Node@?$_Tree_nod@V?$_Tmap_traits@EV?$vector@VCPoint@@V?$allocator@VCPoint@@@std@@@std@@U?$less@E@2@V?$allocator@U?$pair@$$CBEV?$vector@VCPoint@@V?$allocator@VCPoint@@@std@@@std@@@std@@@2@$0A@@std@@@2@PAU342@@Z 00406550 f i Continent.obj
 0001:00005560       ?_Right@?$_Tree@V?$_Tmap_traits@EV?$vector@VCPoint@@V?$allocator@VCPoint@@@std@@@std@@U?$less@E@2@V?$allocator@U?$pair@$$CBEV?$vector@VCPoint@@V?$allocator@VCPoint@@@std@@@std@@@std@@@2@$0A@@std@@@std@@KAAAPAU_Node@?$_Tree_nod@V?$_Tmap_traits@EV?$vector@VCPoint@@V?$allocator@VCPoint@@@std@@@std@@U?$less@E@2@V?$allocator@U?$pair@$$CBEV?$vector@VCPoint@@V?$allocator@VCPoint@@@std@@@std@@@std@@@2@$0A@@std@@@2@PAU342@@Z 00406560 f i Continent.obj
 0001:00005570       ?_Lmost@?$_Tree@V?$_Tmap_traits@EV?$vector@VCPoint@@V?$allocator@VCPoint@@@std@@@std@@U?$less@E@2@V?$allocator@U?$pair@$$CBEV?$vector@VCPoint@@V?$allocator@VCPoint@@@std@@@std@@@std@@@2@$0A@@std@@@std@@IAEAAPAU_Node@?$_Tree_nod@V?$_Tmap_traits@EV?$vector@VCPoint@@V?$allocator@VCPoint@@@std@@@std@@U?$less@E@2@V?$allocator@U?$pair@$$CBEV?$vector@VCPoint@@V?$allocator@VCPoint@@@std@@@std@@@std@@@2@$0A@@std@@@2@XZ 00406570 f i Continent.obj
 0001:00005580       ?_Rmost@?$_Tree@V?$_Tmap_traits@EV?$vector@VCPoint@@V?$allocator@VCPoint@@@std@@@std@@U?$less@E@2@V?$allocator@U?$pair@$$CBEV?$vector@VCPoint@@V?$allocator@VCPoint@@@std@@@std@@@std@@@2@$0A@@std@@@std@@IAEAAPAU_Node@?$_Tree_nod@V?$_Tmap_traits@EV?$vector@VCPoint@@V?$allocator@VCPoint@@@std@@@std@@U?$less@E@2@V?$allocator@U?$pair@$$CBEV?$vector@VCPoint@@V?$allocator@VCPoint@@@std@@@std@@@std@@@2@$0A@@std@@@2@XZ 00406580 f i Continent.obj
 0001:00005590       ?_Kfn@?$_Tmap_traits@EV?$vector@VCPoint@@V?$allocator@VCPoint@@@std@@@std@@U?$less@E@2@V?$allocator@U?$pair@$$CBEV?$vector@VCPoint@@V?$allocator@VCPoint@@@std@@@std@@@std@@@2@$0A@@std@@SAABEABU?$pair@$$CBEV?$vector@VCPoint@@V?$allocator@VCPoint@@@std@@@std@@@2@@Z 00406590 f i Continent.obj
 0001:000055a0       ??0?$allocator@U?$pair@$$CBEV?$vector@VCPoint@@V?$allocator@VCPoint@@@std@@@std@@@std@@@std@@QAE@XZ 004065a0 f i Continent.obj
 0001:000055b0       ?capacity@?$vector@VCPoint@@V?$allocator@VCPoint@@@std@@@std@@QBEIXZ 004065b0 f i Continent.obj
 0001:000055d0       ?AtlThrow@ATL@@YGXJ@Z      004065d0 f i Continent.obj
 0001:000055f0       ??0?$allocator@VCPoint@@@std@@QAE@XZ 004065f0 f i Continent.obj
 0001:00005600       ??0?$allocator@VCPoint@@@std@@QAE@ABV01@@Z 00406600 f i Continent.obj
 0001:00005610       ?deallocate@?$allocator@VCPoint@@@std@@QAEXPAVCPoint@@I@Z 00406610 f i Continent.obj
 0001:00005620       ??8const_iterator@?$_Tree@V?$_Tmap_traits@EV?$vector@VCPoint@@V?$allocator@VCPoint@@@std@@@std@@U?$less@E@2@V?$allocator@U?$pair@$$CBEV?$vector@VCPoint@@V?$allocator@VCPoint@@@std@@@std@@@std@@@2@$0A@@std@@@std@@QBE_NABV012@@Z 00406620 f i Continent.obj
 0001:00005630       ?_Mynode@const_iterator@?$_Tree@V?$_Tmap_traits@EV?$vector@VCPoint@@V?$allocator@VCPoint@@@std@@@std@@U?$less@E@2@V?$allocator@U?$pair@$$CBEV?$vector@VCPoint@@V?$allocator@VCPoint@@@std@@@std@@@std@@@2@$0A@@std@@@std@@QBEPAU_Node@?$_Tree_nod@V?$_Tmap_traits@EV?$vector@VCPoint@@V?$allocator@VCPoint@@@std@@@std@@U?$less@E@2@V?$allocator@U?$pair@$$CBEV?$vector@VCPoint@@V?$allocator@VCPoint@@@std@@@std@@@std@@@2@$0A@@std@@@3@XZ 00406630 f i Continent.obj
 0001:00005640       ??0?$pair@Viterator@?$_Tree@V?$_Tmap_traits@EV?$vector@VCPoint@@V?$allocator@VCPoint@@@std@@@std@@U?$less@E@2@V?$allocator@U?$pair@$$CBEV?$vector@VCPoint@@V?$allocator@VCPoint@@@std@@@std@@@std@@@2@$0A@@std@@@std@@_N@std@@QAE@ABViterator@?$_Tree@V?$_Tmap_traits@EV?$vector@VCPoint@@V?$allocator@VCPoint@@@std@@@std@@U?$less@E@2@V?$allocator@U?$pair@$$CBEV?$vector@VCPoint@@V?$allocator@VCPoint@@@std@@@std@@@std@@@2@$0A@@std@@@1@AB_N@Z 00406640 f i Continent.obj
 0001:00005660       ?_AtlGetStringResourceImage@ATL@@YAPBUATLSTRINGRESOURCEIMAGE@1@PAUHINSTANCE__@@PAUHRSRC__@@I@Z 00406660 f i Continent.obj
 0001:000056c0       ?StringCompare@?$ChTraitsCRT@D@ATL@@SAHPBD0@Z 004066c0 f i Continent.obj
 0001:000056d0       ?_Color@?$_Tree@V?$_Tmap_traits@EV?$vector@VCPoint@@V?$allocator@VCPoint@@@std@@@std@@U?$less@E@2@V?$allocator@U?$pair@$$CBEV?$vector@VCPoint@@V?$allocator@VCPoint@@@std@@@std@@@std@@@2@$0A@@std@@@std@@KAAADPAU_Node@?$_Tree_nod@V?$_Tmap_traits@EV?$vector@VCPoint@@V?$allocator@VCPoint@@@std@@@std@@U?$less@E@2@V?$allocator@U?$pair@$$CBEV?$vector@VCPoint@@V?$allocator@VCPoint@@@std@@@std@@@std@@@2@$0A@@std@@@2@@Z 004066d0 f i Continent.obj
 0001:000056e0       ?_Parent@?$_Tree@V?$_Tmap_traits@EV?$vector@VCPoint@@V?$allocator@VCPoint@@@std@@@std@@U?$less@E@2@V?$allocator@U?$pair@$$CBEV?$vector@VCPoint@@V?$allocator@VCPoint@@@std@@@std@@@std@@@2@$0A@@std@@@std@@KAAAPAU_Node@?$_Tree_nod@V?$_Tmap_traits@EV?$vector@VCPoint@@V?$allocator@VCPoint@@@std@@@std@@U?$less@E@2@V?$allocator@U?$pair@$$CBEV?$vector@VCPoint@@V?$allocator@VCPoint@@@std@@@std@@@std@@@2@$0A@@std@@@2@PAU342@@Z 004066e0 f i Continent.obj
 0001:000056f0       ?AtlGetStringResourceImage@ATL@@YAPBUATLSTRINGRESOURCEIMAGE@1@PAUHINSTANCE__@@I@Z 004066f0 f i Continent.obj
 0001:00005730       ?_Myval@?$_Tree@V?$_Tmap_traits@EV?$vector@VCPoint@@V?$allocator@VCPoint@@@std@@@std@@U?$less@E@2@V?$allocator@U?$pair@$$CBEV?$vector@VCPoint@@V?$allocator@VCPoint@@@std@@@std@@@std@@@2@$0A@@std@@@std@@KAAAU?$pair@$$CBEV?$vector@VCPoint@@V?$allocator@VCPoint@@@std@@@std@@@2@PAU_Node@?$_Tree_nod@V?$_Tmap_traits@EV?$vector@VCPoint@@V?$allocator@VCPoint@@@std@@@std@@U?$less@E@2@V?$allocator@U?$pair@$$CBEV?$vector@VCPoint@@V?$allocator@VCPoint@@@std@@@std@@@std@@@2@$0A@@std@@@2@@Z 00406730 f i Continent.obj
 0001:00005740       ??0?$allocator@U?$pair@$$CBEV?$vector@VCPoint@@V?$allocator@VCPoint@@@std@@@std@@@std@@@std@@QAE@ABV01@@Z 00406740 f i Continent.obj
 0001:00005750       ?deallocate@?$allocator@U_Node@?$_Tree_nod@V?$_Tmap_traits@EV?$vector@VCPoint@@V?$allocator@VCPoint@@@std@@@std@@U?$less@E@2@V?$allocator@U?$pair@$$CBEV?$vector@VCPoint@@V?$allocator@VCPoint@@@std@@@std@@@std@@@2@$0A@@std@@@std@@@std@@QAEXPAU_Node@?$_Tree_nod@V?$_Tmap_traits@EV?$vector@VCPoint@@V?$allocator@VCPoint@@@std@@@std@@U?$less@E@2@V?$allocator@U?$pair@$$CBEV?$vector@VCPoint@@V?$allocator@VCPoint@@@std@@@std@@@std@@@2@$0A@@std@@@2@I@Z 00406750 f i Continent.obj
 0001:00005760       ??0const_iterator@?$_Tree@V?$_Tmap_traits@EV?$vector@VCPoint@@V?$allocator@VCPoint@@@std@@@std@@U?$less@E@2@V?$allocator@U?$pair@$$CBEV?$vector@VCPoint@@V?$allocator@VCPoint@@@std@@@std@@@std@@@2@$0A@@std@@@std@@QAE@XZ 00406760 f i Continent.obj
 0001:00005770       ??0const_iterator@?$_Tree@V?$_Tmap_traits@EV?$vector@VCPoint@@V?$allocator@VCPoint@@@std@@@std@@U?$less@E@2@V?$allocator@U?$pair@$$CBEV?$vector@VCPoint@@V?$allocator@VCPoint@@@std@@@std@@@std@@@2@$0A@@std@@@std@@QAE@PAU_Node@?$_Tree_nod@V?$_Tmap_traits@EV?$vector@VCPoint@@V?$allocator@VCPoint@@@std@@@std@@U?$less@E@2@V?$allocator@U?$pair@$$CBEV?$vector@VCPoint@@V?$allocator@VCPoint@@@std@@@std@@@std@@@2@$0A@@std@@@2@@Z 00406770 f i Continent.obj
 0001:00005780       ?data@CStringData@ATL@@QAEPAXXZ 00406780 f i Continent.obj
 0001:00005790       ??Dconst_iterator@?$_Tree@V?$_Tmap_traits@EV?$vector@VCPoint@@V?$allocator@VCPoint@@@std@@@std@@U?$less@E@2@V?$allocator@U?$pair@$$CBEV?$vector@VCPoint@@V?$allocator@VCPoint@@@std@@@std@@@std@@@2@$0A@@std@@@std@@QBEABU?$pair@$$CBEV?$vector@VCPoint@@V?$allocator@VCPoint@@@std@@@std@@@2@XZ 00406790 f i Continent.obj
 0001:000057a0       ?AddRef@CStringData@ATL@@QAEXXZ 004067a0 f i Continent.obj
 0001:000057b0       ?IsLocked@CStringData@ATL@@QBE_NXZ 004067b0 f i Continent.obj
 0001:000057c0       ?IsShared@CStringData@ATL@@QBE_NXZ 004067c0 f i Continent.obj
 0001:000057d0       ?Release@CStringData@ATL@@QAEXXZ 004067d0 f i Continent.obj
 0001:000057f0       ??0const_iterator@?$vector@VCPoint@@V?$allocator@VCPoint@@@std@@@std@@QAE@PAVCPoint@@@Z 004067f0 f i Continent.obj
 0001:00005800       ??Dconst_iterator@?$vector@VCPoint@@V?$allocator@VCPoint@@@std@@@std@@QBEABVCPoint@@XZ 00406800 f i Continent.obj
 0001:00005810       ??0iterator@?$vector@VCPoint@@V?$allocator@VCPoint@@@std@@@std@@QAE@PAVCPoint@@@Z 00406810 f i Continent.obj
 0001:00005820       ??Yiterator@?$vector@VCPoint@@V?$allocator@VCPoint@@@std@@@std@@QAEAAV012@H@Z 00406820 f i Continent.obj
 0001:00005840       ?_Min@?$_Tree@V?$_Tmap_traits@EV?$vector@VCPoint@@V?$allocator@VCPoint@@@std@@@std@@U?$less@E@2@V?$allocator@U?$pair@$$CBEV?$vector@VCPoint@@V?$allocator@VCPoint@@@std@@@std@@@std@@@2@$0A@@std@@@std@@KAPAU_Node@?$_Tree_nod@V?$_Tmap_traits@EV?$vector@VCPoint@@V?$allocator@VCPoint@@@std@@@std@@U?$less@E@2@V?$allocator@U?$pair@$$CBEV?$vector@VCPoint@@V?$allocator@VCPoint@@@std@@@std@@@std@@@2@$0A@@std@@@2@PAU342@@Z 00406840 f i Continent.obj
 0001:00005860       ?max_size@?$allocator@U?$pair@$$CBEV?$vector@VCPoint@@V?$allocator@VCPoint@@@std@@@std@@@std@@@std@@QBEIXZ 00406860 f i Continent.obj
 0001:00005870       ?max_size@?$allocator@VCPoint@@@std@@QBEIXZ 00406870 f i Continent.obj
 0001:00005880       ??Gconst_iterator@?$vector@VCPoint@@V?$allocator@VCPoint@@@std@@@std@@QBEHABV012@@Z 00406880 f i Continent.obj
 0001:00005890       ?_Max@?$_Tree@V?$_Tmap_traits@EV?$vector@VCPoint@@V?$allocator@VCPoint@@@std@@@std@@U?$less@E@2@V?$allocator@U?$pair@$$CBEV?$vector@VCPoint@@V?$allocator@VCPoint@@@std@@@std@@@std@@@2@$0A@@std@@@std@@KAPAU_Node@?$_Tree_nod@V?$_Tmap_traits@EV?$vector@VCPoint@@V?$allocator@VCPoint@@@std@@@std@@U?$less@E@2@V?$allocator@U?$pair@$$CBEV?$vector@VCPoint@@V?$allocator@VCPoint@@@std@@@std@@@std@@@2@$0A@@std@@@2@PAU342@@Z 00406890 f i Continent.obj
 0001:000058b0       ??0?$_Tmap_traits@EV?$vector@VCPoint@@V?$allocator@VCPoint@@@std@@@std@@U?$less@E@2@V?$allocator@U?$pair@$$CBEV?$vector@VCPoint@@V?$allocator@VCPoint@@@std@@@std@@@std@@@2@$0A@@std@@QAE@U?$less@E@1@@Z 004068b0 f i Continent.obj
 0001:000058c0       ??$?0Viterator@?$_Tree@V?$_Tmap_traits@EV?$vector@VCPoint@@V?$allocator@VCPoint@@@std@@@std@@U?$less@E@2@V?$allocator@U?$pair@$$CBEV?$vector@VCPoint@@V?$allocator@VCPoint@@@std@@@std@@@std@@@2@$0A@@std@@@std@@_N@?$pair@Viterator@?$_Tree@V?$_Tmap_traits@EV?$vector@VCPoint@@V?$allocator@VCPoint@@@std@@@std@@U?$less@E@2@V?$allocator@U?$pair@$$CBEV?$vector@VCPoint@@V?$allocator@VCPoint@@@std@@@std@@@std@@@2@$0A@@std@@@std@@H@std@@QAE@ABU?$pair@Viterator@?$_Tree@V?$_Tmap_traits@EV?$vector@VCPoint@@V?$allocator@VCPoint@@@std@@@std@@U?$less@E@2@V?$allocator@U?$pair@$$CBEV?$vector@VCPoint@@V?$allocator@VCPoint@@@std@@@std@@@std@@@2@$0A@@std@@@std@@_N@1@@Z 004068c0 f i Continent.obj
 0001:000058e0       ??$_Destroy@PAU_Node@?$_Tree_nod@V?$_Tmap_traits@EV?$vector@VCPoint@@V?$allocator@VCPoint@@@std@@@std@@U?$less@E@2@V?$allocator@U?$pair@$$CBEV?$vector@VCPoint@@V?$allocator@VCPoint@@@std@@@std@@@std@@@2@$0A@@std@@@std@@@std@@YAXPAPAU_Node@?$_Tree_nod@V?$_Tmap_traits@EV?$vector@VCPoint@@V?$allocator@VCPoint@@@std@@@std@@U?$less@E@2@V?$allocator@U?$pair@$$CBEV?$vector@VCPoint@@V?$allocator@VCPoint@@@std@@@std@@@std@@@2@$0A@@std@@@0@@Z 004068e0 f i Continent.obj
 0001:000058f0       ??$fill@PAVCPoint@@V1@@std@@YAXPAVCPoint@@0ABV1@@Z 004068f0 f i Continent.obj
 0001:00005920       ??$_Allocate@VCPoint@@@std@@YAPAVCPoint@@IPAV1@@Z 00406920 f i Continent.obj
 0001:00005940       ??$?0U?$pair@$$CBEV?$vector@VCPoint@@V?$allocator@VCPoint@@@std@@@std@@@std@@@?$allocator@PAU_Node@?$_Tree_nod@V?$_Tmap_traits@EV?$vector@VCPoint@@V?$allocator@VCPoint@@@std@@@std@@U?$less@E@2@V?$allocator@U?$pair@$$CBEV?$vector@VCPoint@@V?$allocator@VCPoint@@@std@@@std@@@std@@@2@$0A@@std@@@std@@@std@@QAE@ABV?$allocator@U?$pair@$$CBEV?$vector@VCPoint@@V?$allocator@VCPoint@@@std@@@std@@@std@@@1@@Z 00406940 f i Continent.obj
 0001:00005950       ??$_Allocate@U_Node@?$_Tree_nod@V?$_Tmap_traits@EV?$vector@VCPoint@@V?$allocator@VCPoint@@@std@@@std@@U?$less@E@2@V?$allocator@U?$pair@$$CBEV?$vector@VCPoint@@V?$allocator@VCPoint@@@std@@@std@@@std@@@2@$0A@@std@@@std@@@std@@YAPAU_Node@?$_Tree_nod@V?$_Tmap_traits@EV?$vector@VCPoint@@V?$allocator@VCPoint@@@std@@@std@@U?$less@E@2@V?$allocator@U?$pair@$$CBEV?$vector@VCPoint@@V?$allocator@VCPoint@@@std@@@std@@@std@@@2@$0A@@std@@@0@IPAU120@@Z 00406950 f i Continent.obj
 0001:00005970       ??$?0U?$pair@$$CBEV?$vector@VCPoint@@V?$allocator@VCPoint@@@std@@@std@@@std@@@?$allocator@U_Node@?$_Tree_nod@V?$_Tmap_traits@EV?$vector@VCPoint@@V?$allocator@VCPoint@@@std@@@std@@U?$less@E@2@V?$allocator@U?$pair@$$CBEV?$vector@VCPoint@@V?$allocator@VCPoint@@@std@@@std@@@std@@@2@$0A@@std@@@std@@@std@@QAE@ABV?$allocator@U?$pair@$$CBEV?$vector@VCPoint@@V?$allocator@VCPoint@@@std@@@std@@@std@@@1@@Z 00406970 f i Continent.obj
 0001:00005980       ??$_Construct@PAU_Node@?$_Tree_nod@V?$_Tmap_traits@EV?$vector@VCPoint@@V?$allocator@VCPoint@@@std@@@std@@U?$less@E@2@V?$allocator@U?$pair@$$CBEV?$vector@VCPoint@@V?$allocator@VCPoint@@@std@@@std@@@std@@@2@$0A@@std@@@std@@PAU123@@std@@YAXPAPAU_Node@?$_Tree_nod@V?$_Tmap_traits@EV?$vector@VCPoint@@V?$allocator@VCPoint@@@std@@@std@@U?$less@E@2@V?$allocator@U?$pair@$$CBEV?$vector@VCPoint@@V?$allocator@VCPoint@@@std@@@std@@@std@@@2@$0A@@std@@@0@ABQAU120@@Z 00406980 f i Continent.obj
 0001:000059a0       ??$_Ptr_cat@PAVCPoint@@PAV1@@std@@YA?AU_Nonscalar_ptr_iterator_tag@0@AAPAVCPoint@@0@Z 004069a0 f i Continent.obj
 0001:000059b0       ??$_Copy_opt@PAVCPoint@@PAV1@@std@@YAPAVCPoint@@PAV1@00U_Nonscalar_ptr_iterator_tag@0@@Z 004069b0 f i Continent.obj
 0001:000059e0       ??$_Copy_backward_opt@PAVCPoint@@PAV1@@std@@YAPAVCPoint@@PAV1@00U_Nonscalar_ptr_iterator_tag@0@@Z 004069e0 f i Continent.obj
 0001:00005a10       ??$_Ptr_cat@Vconst_iterator@?$vector@VCPoint@@V?$allocator@VCPoint@@@std@@@std@@PAVCPoint@@@std@@YA?AU_Nonscalar_ptr_iterator_tag@0@AAVconst_iterator@?$vector@VCPoint@@V?$allocator@VCPoint@@@std@@@0@AAPAVCPoint@@@Z 00406a10 f i Continent.obj
 0001:00005a20       ??$_Construct@VCPoint@@V1@@std@@YAXPAVCPoint@@ABV1@@Z 00406a20 f i Continent.obj
 0001:00005a40       ??$_Destroy@VCPoint@@@std@@YAXPAVCPoint@@@Z 00406a40 f i Continent.obj
 0001:00005a50       ??Econst_iterator@?$vector@VCPoint@@V?$allocator@VCPoint@@@std@@@std@@QAEAAV012@XZ 00406a50 f i Continent.obj
 0001:00005a60       ??8const_iterator@?$vector@VCPoint@@V?$allocator@VCPoint@@@std@@@std@@QBE_NABV012@@Z 00406a60 f i Continent.obj
 0001:00005a70       ??0CPoint@@QAE@XZ          00406a70 f i Continent.obj
 0001:00005a80       ??0CPoint@@QAE@HH@Z        00406a80 f i Continent.obj
 0001:00005aa0       ??B?$CSimpleStringT@D$0A@@ATL@@QBEPBDXZ 00406aa0 f i Continent.obj
 0001:00005ab0       ?GetString@?$CSimpleStringT@D$0A@@ATL@@QBEPBDXZ 00406ab0 f i Continent.obj
 0001:00005ac0       ?StringLength@?$CSimpleStringT@D$0A@@ATL@@SAHPBD@Z 00406ac0 f i Continent.obj
 0001:00005ae0       ?GetData@?$CSimpleStringT@D$0A@@ATL@@ABEPAUCStringData@2@XZ 00406ae0 f i Continent.obj
 0001:00005af0       ?SetLength@?$CSimpleStringT@D$0A@@ATL@@AAEXH@Z 00406af0 f i Continent.obj
 0001:00005b20       ?FindStringResourceInstance@?$StrTraitMFC@DV?$ChTraitsCRT@D@ATL@@@@SAPAUHINSTANCE__@@I@Z 00406b20 f i Continent.obj
 0001:00005b30       ?GetDefaultManager@?$StrTraitMFC@DV?$ChTraitsCRT@D@ATL@@@@SAPAUIAtlStringMgr@ATL@@XZ 00406b30 f i Continent.obj
 0001:00005b40       ?Attach@?$CSimpleStringT@D$0A@@ATL@@AAEXPAUCStringData@2@@Z 00406b40 f i Continent.obj
 0001:00005b50       ?GetBaseTypeLength@?$ChTraitsCRT@D@ATL@@SAHPBGH@Z 00406b50 f i Continent.obj
 0001:00005b80       ?ConvertToBaseType@?$ChTraitsCRT@D@ATL@@SAXPADHPBGH@Z 00406b80 f i Continent.obj
 0001:00005bb0       ?CopyChars@?$CSimpleStringT@D$0A@@ATL@@SAXPADPBDH@Z 00406bb0 f i Continent.obj
 0001:00005bd0       ?CopyCharsOverlapped@?$CSimpleStringT@D$0A@@ATL@@SAXPADPBDH@Z 00406bd0 f i Continent.obj
 0001:00005be0       ?ThrowMemoryException@?$CSimpleStringT@D$0A@@ATL@@KAXXZ 00406be0 f i Continent.obj
 0001:00005bf0       ?Fork@?$CSimpleStringT@D$0A@@ATL@@AAEXH@Z 00406bf0 f i Continent.obj
 0001:00005c70       ?Reallocate@?$CSimpleStringT@D$0A@@ATL@@AAEXH@Z 00406c70 f i Continent.obj
 0001:00005ca0       ?GetAt@?$CFixedArray@UtagColorText@@@@QAEPAUtagColorText@@K@Z 00406ca0 f i Continent.obj
 0001:00005cc0       ??9const_iterator@?$_Tree@V?$_Tmap_traits@EV?$vector@VCPoint@@V?$allocator@VCPoint@@@std@@@std@@U?$less@E@2@V?$allocator@U?$pair@$$CBEV?$vector@VCPoint@@V?$allocator@VCPoint@@@std@@@std@@@std@@@2@$0A@@std@@@std@@QBE_NABV012@@Z 00406cc0 f i Continent.obj
 0001:00005ce0       ?Compare@?$CStringT@DV?$StrTraitMFC@DV?$ChTraitsCRT@D@ATL@@@@@ATL@@QBEHPBD@Z 00406ce0 f i Continent.obj
 0001:00005d00       ?GetManager@?$CSimpleStringT@D$0A@@ATL@@QBEPAUIAtlStringMgr@2@XZ 00406d00 f i Continent.obj
 0001:00005d10       ?_Key@?$_Tree@V?$_Tmap_traits@EV?$vector@VCPoint@@V?$allocator@VCPoint@@@std@@@std@@U?$less@E@2@V?$allocator@U?$pair@$$CBEV?$vector@VCPoint@@V?$allocator@VCPoint@@@std@@@std@@@std@@@2@$0A@@std@@@std@@KAABEPAU_Node@?$_Tree_nod@V?$_Tmap_traits@EV?$vector@VCPoint@@V?$allocator@VCPoint@@@std@@@std@@U?$less@E@2@V?$allocator@U?$pair@$$CBEV?$vector@VCPoint@@V?$allocator@VCPoint@@@std@@@std@@@std@@@2@$0A@@std@@@2@@Z 00406d10 f i Continent.obj
 0001:00005d20       ?_Root@?$_Tree@V?$_Tmap_traits@EV?$vector@VCPoint@@V?$allocator@VCPoint@@@std@@@std@@U?$less@E@2@V?$allocator@U?$pair@$$CBEV?$vector@VCPoint@@V?$allocator@VCPoint@@@std@@@std@@@std@@@2@$0A@@std@@@std@@IAEAAPAU_Node@?$_Tree_nod@V?$_Tmap_traits@EV?$vector@VCPoint@@V?$allocator@VCPoint@@@std@@@std@@U?$less@E@2@V?$allocator@U?$pair@$$CBEV?$vector@VCPoint@@V?$allocator@VCPoint@@@std@@@std@@@std@@@2@$0A@@std@@@2@XZ 00406d20 f i Continent.obj
 0001:00005d30       ?begin@?$vector@VCPoint@@V?$allocator@VCPoint@@@std@@@std@@QAE?AViterator@12@XZ 00406d30 f i Continent.obj
 0001:00005d40       ?begin@?$vector@VCPoint@@V?$allocator@VCPoint@@@std@@@std@@QBE?AVconst_iterator@12@XZ 00406d40 f i Continent.obj
 0001:00005d50       ?end@?$vector@VCPoint@@V?$allocator@VCPoint@@@std@@@std@@QAE?AViterator@12@XZ 00406d50 f i Continent.obj
 0001:00005d60       ?end@?$vector@VCPoint@@V?$allocator@VCPoint@@@std@@@std@@QBE?AVconst_iterator@12@XZ 00406d60 f i Continent.obj
 0001:00005d70       ??0?$_Vector_val@VCPoint@@V?$allocator@VCPoint@@@std@@@std@@IAE@V?$allocator@VCPoint@@@1@@Z 00406d70 f i Continent.obj
 0001:00005d80       ??0iterator@?$_Tree@V?$_Tmap_traits@EV?$vector@VCPoint@@V?$allocator@VCPoint@@@std@@@std@@U?$less@E@2@V?$allocator@U?$pair@$$CBEV?$vector@VCPoint@@V?$allocator@VCPoint@@@std@@@std@@@std@@@2@$0A@@std@@@std@@QAE@XZ 00406d80 f i Continent.obj
 0001:00005d90       ??0iterator@?$_Tree@V?$_Tmap_traits@EV?$vector@VCPoint@@V?$allocator@VCPoint@@@std@@@std@@U?$less@E@2@V?$allocator@U?$pair@$$CBEV?$vector@VCPoint@@V?$allocator@VCPoint@@@std@@@std@@@std@@@2@$0A@@std@@@std@@QAE@PAU_Node@?$_Tree_nod@V?$_Tmap_traits@EV?$vector@VCPoint@@V?$allocator@VCPoint@@@std@@@std@@U?$less@E@2@V?$allocator@U?$pair@$$CBEV?$vector@VCPoint@@V?$allocator@VCPoint@@@std@@@std@@@std@@@2@$0A@@std@@@2@@Z 00406d90 f i Continent.obj
 0001:00005da0       ??Diterator@?$_Tree@V?$_Tmap_traits@EV?$vector@VCPoint@@V?$allocator@VCPoint@@@std@@@std@@U?$less@E@2@V?$allocator@U?$pair@$$CBEV?$vector@VCPoint@@V?$allocator@VCPoint@@@std@@@std@@@std@@@2@$0A@@std@@@std@@QBEAAU?$pair@$$CBEV?$vector@VCPoint@@V?$allocator@VCPoint@@@std@@@std@@@2@XZ 00406da0 f i Continent.obj
 0001:00005db0       ??Diterator@?$vector@VCPoint@@V?$allocator@VCPoint@@@std@@@std@@QBEAAVCPoint@@XZ 00406db0 f i Continent.obj
 0001:00005dc0       ??Hiterator@?$vector@VCPoint@@V?$allocator@VCPoint@@@std@@@std@@QBE?AV012@H@Z 00406dc0 f i Continent.obj
 0001:00005de0       ?max_size@?$_Tree@V?$_Tmap_traits@EV?$vector@VCPoint@@V?$allocator@VCPoint@@@std@@@std@@U?$less@E@2@V?$allocator@U?$pair@$$CBEV?$vector@VCPoint@@V?$allocator@VCPoint@@@std@@@std@@@std@@@2@$0A@@std@@@std@@QBEIXZ 00406de0 f i Continent.obj
 0001:00005df0       ?_Lrotate@?$_Tree@V?$_Tmap_traits@EV?$vector@VCPoint@@V?$allocator@VCPoint@@@std@@@std@@U?$less@E@2@V?$allocator@U?$pair@$$CBEV?$vector@VCPoint@@V?$allocator@VCPoint@@@std@@@std@@@std@@@2@$0A@@std@@@std@@IAEXPAU_Node@?$_Tree_nod@V?$_Tmap_traits@EV?$vector@VCPoint@@V?$allocator@VCPoint@@@std@@@std@@U?$less@E@2@V?$allocator@U?$pair@$$CBEV?$vector@VCPoint@@V?$allocator@VCPoint@@@std@@@std@@@std@@@2@$0A@@std@@@2@@Z 00406df0 f i Continent.obj
 0001:00005e50       ?_Rrotate@?$_Tree@V?$_Tmap_traits@EV?$vector@VCPoint@@V?$allocator@VCPoint@@@std@@@std@@U?$less@E@2@V?$allocator@U?$pair@$$CBEV?$vector@VCPoint@@V?$allocator@VCPoint@@@std@@@std@@@std@@@2@$0A@@std@@@std@@IAEXPAU_Node@?$_Tree_nod@V?$_Tmap_traits@EV?$vector@VCPoint@@V?$allocator@VCPoint@@@std@@@std@@U?$less@E@2@V?$allocator@U?$pair@$$CBEV?$vector@VCPoint@@V?$allocator@VCPoint@@@std@@@std@@@std@@@2@$0A@@std@@@2@@Z 00406e50 f i Continent.obj
 0001:00005eb0       ?destroy@?$allocator@PAU_Node@?$_Tree_nod@V?$_Tmap_traits@EV?$vector@VCPoint@@V?$allocator@VCPoint@@@std@@@std@@U?$less@E@2@V?$allocator@U?$pair@$$CBEV?$vector@VCPoint@@V?$allocator@VCPoint@@@std@@@std@@@std@@@2@$0A@@std@@@std@@@std@@QAEXPAPAU_Node@?$_Tree_nod@V?$_Tmap_traits@EV?$vector@VCPoint@@V?$allocator@VCPoint@@@std@@@std@@U?$less@E@2@V?$allocator@U?$pair@$$CBEV?$vector@VCPoint@@V?$allocator@VCPoint@@@std@@@std@@@std@@@2@$0A@@std@@@2@@Z 00406eb0 f i Continent.obj
 0001:00005ec0       ?max_size@?$vector@VCPoint@@V?$allocator@VCPoint@@@std@@@std@@QBEIXZ 00406ec0 f i Continent.obj
 0001:00005ed0       ?allocate@?$allocator@VCPoint@@@std@@QAEPAVCPoint@@I@Z 00406ed0 f i Continent.obj
 0001:00005ef0       ?_Inc@const_iterator@?$_Tree@V?$_Tmap_traits@EV?$vector@VCPoint@@V?$allocator@VCPoint@@@std@@@std@@U?$less@E@2@V?$allocator@U?$pair@$$CBEV?$vector@VCPoint@@V?$allocator@VCPoint@@@std@@@std@@@std@@@2@$0A@@std@@@std@@QAEXXZ 00406ef0 f i Continent.obj
 0001:00005f50       ??Giterator@?$vector@VCPoint@@V?$allocator@VCPoint@@@std@@@std@@QBEHABVconst_iterator@12@@Z 00406f50 f i Continent.obj
 0001:00005f60       ?allocate@?$allocator@U_Node@?$_Tree_nod@V?$_Tmap_traits@EV?$vector@VCPoint@@V?$allocator@VCPoint@@@std@@@std@@U?$less@E@2@V?$allocator@U?$pair@$$CBEV?$vector@VCPoint@@V?$allocator@VCPoint@@@std@@@std@@@std@@@2@$0A@@std@@@std@@@std@@QAEPAU_Node@?$_Tree_nod@V?$_Tmap_traits@EV?$vector@VCPoint@@V?$allocator@VCPoint@@@std@@@std@@U?$less@E@2@V?$allocator@U?$pair@$$CBEV?$vector@VCPoint@@V?$allocator@VCPoint@@@std@@@std@@@std@@@2@$0A@@std@@@2@I@Z 00406f60 f i Continent.obj
 0001:00005f80       ?_Dec@const_iterator@?$_Tree@V?$_Tmap_traits@EV?$vector@VCPoint@@V?$allocator@VCPoint@@@std@@@std@@U?$less@E@2@V?$allocator@U?$pair@$$CBEV?$vector@VCPoint@@V?$allocator@VCPoint@@@std@@@std@@@std@@@2@$0A@@std@@@std@@QAEXXZ 00406f80 f i Continent.obj
 0001:00005fe0       ??0?$_Tree_nod@V?$_Tmap_traits@EV?$vector@VCPoint@@V?$allocator@VCPoint@@@std@@@std@@U?$less@E@2@V?$allocator@U?$pair@$$CBEV?$vector@VCPoint@@V?$allocator@VCPoint@@@std@@@std@@@std@@@2@$0A@@std@@@std@@IAE@ABU?$less@E@1@V?$allocator@U?$pair@$$CBEV?$vector@VCPoint@@V?$allocator@VCPoint@@@std@@@std@@@std@@@1@@Z 00406fe0 f i Continent.obj
 0001:00005ff0       ?construct@?$allocator@PAU_Node@?$_Tree_nod@V?$_Tmap_traits@EV?$vector@VCPoint@@V?$allocator@VCPoint@@@std@@@std@@U?$less@E@2@V?$allocator@U?$pair@$$CBEV?$vector@VCPoint@@V?$allocator@VCPoint@@@std@@@std@@@std@@@2@$0A@@std@@@std@@@std@@QAEXPAPAU_Node@?$_Tree_nod@V?$_Tmap_traits@EV?$vector@VCPoint@@V?$allocator@VCPoint@@@std@@@std@@U?$less@E@2@V?$allocator@U?$pair@$$CBEV?$vector@VCPoint@@V?$allocator@VCPoint@@@std@@@std@@@std@@@2@$0A@@std@@@2@ABQAU342@@Z 00406ff0 f i Continent.obj
 0001:00006010       ??$copy@PAVCPoint@@PAV1@@std@@YAPAVCPoint@@PAV1@00@Z 00407010 f i Continent.obj
 0001:00006040       ??$copy_backward@PAVCPoint@@PAV1@@std@@YAPAVCPoint@@PAV1@00@Z 00407040 f i Continent.obj
 0001:00006070       ?construct@?$allocator@VCPoint@@@std@@QAEXPAVCPoint@@ABV3@@Z 00407070 f i Continent.obj
 0001:00006090       ?destroy@?$allocator@VCPoint@@@std@@QAEXPAVCPoint@@@Z 00407090 f i Continent.obj
 0001:000060a0       ??$_Uninit_copy@PAVCPoint@@PAV1@V?$allocator@VCPoint@@@std@@@std@@YAPAVCPoint@@PAV1@00AAV?$allocator@VCPoint@@@0@U_Nonscalar_ptr_iterator_tag@0@@Z 004070a0 f i Continent.obj
 0001:000060d0       ??9const_iterator@?$vector@VCPoint@@V?$allocator@VCPoint@@@std@@@std@@QBE_NABV012@@Z 004070d0 f i Continent.obj
 0001:000060f0       ?GetText@CProject@@QAEPBDK@Z 004070f0 f i Continent.obj
 0001:00006130       ?GetLength@?$CSimpleStringT@D$0A@@ATL@@QBEHXZ 00407130 f i Continent.obj
 0001:00006140       ??0?$CSimpleStringT@D$0A@@ATL@@QAE@PAUIAtlStringMgr@1@@Z 00407140 f i Continent.obj
 0001:00006160       ??1?$CSimpleStringT@D$0A@@ATL@@QAE@XZ 00407160 f i Continent.obj
 0001:00006180       ?ReleaseBufferSetLength@?$CSimpleStringT@D$0A@@ATL@@QAEXH@Z 00407180 f i Continent.obj
 0001:000061b0       ?Empty@?$CSimpleStringT@D$0A@@ATL@@QAEXXZ 004071b0 f i Continent.obj
 0001:00006220       ?PrepareWrite2@?$CSimpleStringT@D$0A@@ATL@@AAEXH@Z 00407220 f i Continent.obj
 0001:00006270       ?CloneData@?$CSimpleStringT@D$0A@@ATL@@CAPAUCStringData@2@PAU32@@Z 00407270 f i Continent.obj
 0001:000062d0       ??8ATL@@YA_NABV?$CStringT@DV?$StrTraitMFC@DV?$ChTraitsCRT@D@ATL@@@@@0@PBD@Z 004072d0 f i Continent.obj
 0001:000062f0       ??9ATL@@YA_NABV?$CStringT@DV?$StrTraitMFC@DV?$ChTraitsCRT@D@ATL@@@@@0@PBD@Z 004072f0 f i Continent.obj
 0001:00006310       ?begin@?$_Tree@V?$_Tmap_traits@EV?$vector@VCPoint@@V?$allocator@VCPoint@@@std@@@std@@U?$less@E@2@V?$allocator@U?$pair@$$CBEV?$vector@VCPoint@@V?$allocator@VCPoint@@@std@@@std@@@std@@@2@$0A@@std@@@std@@QAE?AViterator@12@XZ 00407310 f i Continent.obj
 0001:00006320       ?end@?$_Tree@V?$_Tmap_traits@EV?$vector@VCPoint@@V?$allocator@VCPoint@@@std@@@std@@U?$less@E@2@V?$allocator@U?$pair@$$CBEV?$vector@VCPoint@@V?$allocator@VCPoint@@@std@@@std@@@std@@@2@$0A@@std@@@std@@QAE?AViterator@12@XZ 00407320 f i Continent.obj
 0001:00006330       ??A?$vector@VCPoint@@V?$allocator@VCPoint@@@std@@@std@@QAEAAVCPoint@@I@Z 00407330 f i Continent.obj
 0001:00006340       ??0?$pair@Viterator@?$_Tree@V?$_Tmap_traits@EV?$vector@VCPoint@@V?$allocator@VCPoint@@@std@@@std@@U?$less@E@2@V?$allocator@U?$pair@$$CBEV?$vector@VCPoint@@V?$allocator@VCPoint@@@std@@@std@@@std@@@2@$0A@@std@@@std@@H@std@@QAE@XZ 00407340 f i Continent.obj
 0001:00006350       ??Citerator@?$_Tree@V?$_Tmap_traits@EV?$vector@VCPoint@@V?$allocator@VCPoint@@@std@@@std@@U?$less@E@2@V?$allocator@U?$pair@$$CBEV?$vector@VCPoint@@V?$allocator@VCPoint@@@std@@@std@@@std@@@2@$0A@@std@@@std@@QBEPAU?$pair@$$CBEV?$vector@VCPoint@@V?$allocator@VCPoint@@@std@@@std@@@2@XZ 00407350 f i Continent.obj
 0001:00006360       ??0?$CStringT@DV?$StrTraitMFC@DV?$ChTraitsCRT@D@ATL@@@@@ATL@@QAE@PAUIAtlStringMgr@1@@Z 00407360 f i Continent.obj
 0001:00006380       ??Econst_iterator@?$_Tree@V?$_Tmap_traits@EV?$vector@VCPoint@@V?$allocator@VCPoint@@@std@@@std@@U?$less@E@2@V?$allocator@U?$pair@$$CBEV?$vector@VCPoint@@V?$allocator@VCPoint@@@std@@@std@@@std@@@2@$0A@@std@@@std@@QAEAAV012@XZ 00407380 f i Continent.obj
 0001:00006390       ??Fconst_iterator@?$_Tree@V?$_Tmap_traits@EV?$vector@VCPoint@@V?$allocator@VCPoint@@@std@@@std@@U?$less@E@2@V?$allocator@U?$pair@$$CBEV?$vector@VCPoint@@V?$allocator@VCPoint@@@std@@@std@@@std@@@2@$0A@@std@@@std@@QAEAAV012@XZ 00407390 f i Continent.obj
 0001:000063a0       ?_Buynode@?$_Tree@V?$_Tmap_traits@EV?$vector@VCPoint@@V?$allocator@VCPoint@@@std@@@std@@U?$less@E@2@V?$allocator@U?$pair@$$CBEV?$vector@VCPoint@@V?$allocator@VCPoint@@@std@@@std@@@std@@@2@$0A@@std@@@std@@IAEPAU_Node@?$_Tree_nod@V?$_Tmap_traits@EV?$vector@VCPoint@@V?$allocator@VCPoint@@@std@@@std@@U?$less@E@2@V?$allocator@U?$pair@$$CBEV?$vector@VCPoint@@V?$allocator@VCPoint@@@std@@@std@@@std@@@2@$0A@@std@@@2@XZ 004073a0 f i Continent.obj
 0001:000063e0       ??0?$_Tree_ptr@V?$_Tmap_traits@EV?$vector@VCPoint@@V?$allocator@VCPoint@@@std@@@std@@U?$less@E@2@V?$allocator@U?$pair@$$CBEV?$vector@VCPoint@@V?$allocator@VCPoint@@@std@@@std@@@std@@@2@$0A@@std@@@std@@IAE@ABU?$less@E@1@V?$allocator@U?$pair@$$CBEV?$vector@VCPoint@@V?$allocator@VCPoint@@@std@@@std@@@std@@@1@@Z 004073e0 f i Continent.obj
 0001:000063f0       ??$_Uninitialized_copy@PAVCPoint@@PAV1@V?$allocator@VCPoint@@@std@@@std@@YAPAVCPoint@@PAV1@00AAV?$allocator@VCPoint@@@0@@Z 004073f0 f i Continent.obj
 0001:00006420       ??$_Destroy_range@VCPoint@@V?$allocator@VCPoint@@@std@@@std@@YAXPAVCPoint@@0AAV?$allocator@VCPoint@@@0@U_Nonscalar_ptr_iterator_tag@0@@Z 00407420 f i Continent.obj
 0001:00006430       ??$_Uninit_fill_n@PAVCPoint@@IV1@V?$allocator@VCPoint@@@std@@@std@@YAXPAVCPoint@@IABV1@AAV?$allocator@VCPoint@@@0@U_Nonscalar_ptr_iterator_tag@0@@Z 00407430 f i Continent.obj
 0001:00006460       ??$_Uninit_copy@Vconst_iterator@?$vector@VCPoint@@V?$allocator@VCPoint@@@std@@@std@@PAVCPoint@@V?$allocator@VCPoint@@@3@@std@@YAPAVCPoint@@Vconst_iterator@?$vector@VCPoint@@V?$allocator@VCPoint@@@std@@@0@0PAV1@AAV?$allocator@VCPoint@@@0@U_Nonscalar_ptr_iterator_tag@0@@Z 00407460 f i Continent.obj
 0001:00006490       ??0?$CStringT@DV?$StrTraitMFC@DV?$ChTraitsCRT@D@ATL@@@@@ATL@@QAE@XZ 00407490 f i Continent.obj
 0001:000064b0       ??1?$CStringT@DV?$StrTraitMFC@DV?$ChTraitsCRT@D@ATL@@@@@ATL@@QAE@XZ 004074b0 f i Continent.obj
 0001:000064d0       ??0?$CSimpleStringT@D$0A@@ATL@@QAE@ABV01@@Z 004074d0 f i Continent.obj
 0001:000064f0       ?PrepareWrite@?$CSimpleStringT@D$0A@@ATL@@AAEPADH@Z 004074f0 f i Continent.obj
 0001:00006520       ??Eiterator@?$_Tree@V?$_Tmap_traits@EV?$vector@VCPoint@@V?$allocator@VCPoint@@@std@@@std@@U?$less@E@2@V?$allocator@U?$pair@$$CBEV?$vector@VCPoint@@V?$allocator@VCPoint@@@std@@@std@@@std@@@2@$0A@@std@@@std@@QAEAAV012@XZ 00407520 f i Continent.obj
 0001:00006530       ??Fiterator@?$_Tree@V?$_Tmap_traits@EV?$vector@VCPoint@@V?$allocator@VCPoint@@@std@@@std@@U?$less@E@2@V?$allocator@U?$pair@$$CBEV?$vector@VCPoint@@V?$allocator@VCPoint@@@std@@@std@@@std@@@2@$0A@@std@@@std@@QAEAAV012@XZ 00407530 f i Continent.obj
 0001:00006540       ?_Init@?$_Tree@V?$_Tmap_traits@EV?$vector@VCPoint@@V?$allocator@VCPoint@@@std@@@std@@U?$less@E@2@V?$allocator@U?$pair@$$CBEV?$vector@VCPoint@@V?$allocator@VCPoint@@@std@@@std@@@std@@@2@$0A@@std@@@std@@IAEXXZ 00407540 f i Continent.obj
 0001:00006570       ??0?$_Tree_val@V?$_Tmap_traits@EV?$vector@VCPoint@@V?$allocator@VCPoint@@@std@@@std@@U?$less@E@2@V?$allocator@U?$pair@$$CBEV?$vector@VCPoint@@V?$allocator@VCPoint@@@std@@@std@@@std@@@2@$0A@@std@@@std@@IAE@ABU?$less@E@1@V?$allocator@U?$pair@$$CBEV?$vector@VCPoint@@V?$allocator@VCPoint@@@std@@@std@@@std@@@1@@Z 00407570 f i Continent.obj
 0001:00006580       ??Eiterator@?$_Tree@V?$_Tmap_traits@EV?$vector@VCPoint@@V?$allocator@VCPoint@@@std@@@std@@U?$less@E@2@V?$allocator@U?$pair@$$CBEV?$vector@VCPoint@@V?$allocator@VCPoint@@@std@@@std@@@std@@@2@$0A@@std@@@std@@QAE?AV012@H@Z 00407580 f i Continent.obj
 0001:000065a0       ??$_Ucopy@PAVCPoint@@@?$vector@VCPoint@@V?$allocator@VCPoint@@@std@@@std@@IAEPAVCPoint@@PAV2@00@Z 004075a0 f i Continent.obj
 0001:000065c0       ??$_Destroy_range@VCPoint@@V?$allocator@VCPoint@@@std@@@std@@YAXPAVCPoint@@0AAV?$allocator@VCPoint@@@0@@Z 004075c0 f i Continent.obj
 0001:000065d0       ??$_Uninitialized_fill_n@PAVCPoint@@IV1@V?$allocator@VCPoint@@@std@@@std@@YAXPAVCPoint@@IABV1@AAV?$allocator@VCPoint@@@0@@Z 004075d0 f i Continent.obj
 0001:00006600       ??$_Uninitialized_copy@Vconst_iterator@?$vector@VCPoint@@V?$allocator@VCPoint@@@std@@@std@@PAVCPoint@@V?$allocator@VCPoint@@@3@@std@@YAPAVCPoint@@Vconst_iterator@?$vector@VCPoint@@V?$allocator@VCPoint@@@std@@@0@0PAV1@AAV?$allocator@VCPoint@@@0@@Z 00407600 f i Continent.obj
 0001:00006630       ??0?$CStringT@DV?$StrTraitMFC@DV?$ChTraitsCRT@D@ATL@@@@@ATL@@QAE@ABV01@@Z 00407630 f i Continent.obj
 0001:00006650       ?GetBuffer@?$CSimpleStringT@D$0A@@ATL@@QAEPADH@Z 00407650 f i Continent.obj
 0001:00006680       ?LoadStringA@?$CStringT@DV?$StrTraitMFC@DV?$ChTraitsCRT@D@ATL@@@@@ATL@@QAEHPAUHINSTANCE__@@I@Z 00407680 f i Continent.obj
 0001:00006750       ?SetString@?$CSimpleStringT@D$0A@@ATL@@QAEXPBDH@Z 00407750 f i Continent.obj
 0001:000067f0       ?Concatenate@?$CSimpleStringT@D$0A@@ATL@@KAXAAV12@PBDH1H@Z 004077f0 f i Continent.obj
 0001:00006880       ??0?$_Tree@V?$_Tmap_traits@EV?$vector@VCPoint@@V?$allocator@VCPoint@@@std@@@std@@U?$less@E@2@V?$allocator@U?$pair@$$CBEV?$vector@VCPoint@@V?$allocator@VCPoint@@@std@@@std@@@std@@@2@$0A@@std@@@std@@QAE@ABU?$less@E@1@ABV?$allocator@U?$pair@$$CBEV?$vector@VCPoint@@V?$allocator@VCPoint@@@std@@@std@@@std@@@1@@Z 00407880 f i Continent.obj
 0001:000068b0       ?_Destroy@?$vector@VCPoint@@V?$allocator@VCPoint@@@std@@@std@@IAEXPAVCPoint@@0@Z 004078b0 f i Continent.obj
 0001:000068c0       ?_Tidy@?$vector@VCPoint@@V?$allocator@VCPoint@@@std@@@std@@IAEXXZ 004078c0 f i Continent.obj
 0001:000068f0       ?_Ufill@?$vector@VCPoint@@V?$allocator@VCPoint@@@std@@@std@@IAEPAVCPoint@@PAV3@IABV3@@Z 004078f0 f i Continent.obj
 0001:00006920       ??$_Ucopy@Vconst_iterator@?$vector@VCPoint@@V?$allocator@VCPoint@@@std@@@std@@@?$vector@VCPoint@@V?$allocator@VCPoint@@@std@@@std@@IAEPAVCPoint@@Vconst_iterator@01@0PAV2@@Z 00407920 f i Continent.obj
 0001:00006940       ?LoadStringA@?$CStringT@DV?$StrTraitMFC@DV?$ChTraitsCRT@D@ATL@@@@@ATL@@QAEHI@Z 00407940 f i Continent.obj
 0001:00006970       ?CheckImplicitLoad@?$CStringT@DV?$StrTraitMFC@DV?$ChTraitsCRT@D@ATL@@@@@ATL@@AAE_NPBX@Z 00407970 f i Continent.obj
 0001:000069b0       ?SetString@?$CSimpleStringT@D$0A@@ATL@@QAEXPBD@Z 004079b0 f i Continent.obj
 0001:000069f0       ??HATL@@YA?AV?$CStringT@DV?$StrTraitMFC@DV?$ChTraitsCRT@D@ATL@@@@@0@ABV10@0@Z 004079f0 f i Continent.obj
 0001:00006aa0       ??1?$vector@VCPoint@@V?$allocator@VCPoint@@@std@@@std@@QAE@XZ 00407aa0 f i Continent.obj
 0001:00006ad0       ?clear@?$vector@VCPoint@@V?$allocator@VCPoint@@@std@@@std@@QAEXXZ 00407ad0 f i Continent.obj
 0001:00006b00       ??4?$CSimpleStringT@D$0A@@ATL@@QAEAAV01@PBD@Z 00407b00 f i Continent.obj
 0001:00006b40       ??1?$pair@HV?$vector@VCPoint@@V?$allocator@VCPoint@@@std@@@std@@@std@@QAE@XZ 00407b40 f i Continent.obj
 0001:00006b70       ??1?$pair@$$CBEV?$vector@VCPoint@@V?$allocator@VCPoint@@@std@@@std@@@std@@QAE@XZ 00407b70 f i Continent.obj
 0001:00006ba0       ?Point_In_Poly@CContinent@@AAEHV?$vector@VCPoint@@V?$allocator@VCPoint@@@std@@@std@@VCPoint@@@Z 00407ba0 f   Continent.obj
 0001:00006ca0       ??1_Node@?$_Tree_nod@V?$_Tmap_traits@EV?$vector@VCPoint@@V?$allocator@VCPoint@@@std@@@std@@U?$less@E@2@V?$allocator@U?$pair@$$CBEV?$vector@VCPoint@@V?$allocator@VCPoint@@@std@@@std@@@std@@@2@$0A@@std@@@std@@QAE@XZ 00407ca0 f i Continent.obj
 0001:00006cd0       ??4?$CStringT@DV?$StrTraitMFC@DV?$ChTraitsCRT@D@ATL@@@@@ATL@@QAEAAV01@PBD@Z 00407cd0 f i Continent.obj
 0001:00006d10       ?GetContinentName@CContinent@@QAE?AV?$CStringT@DV?$StrTraitMFC@DV?$ChTraitsCRT@D@ATL@@@@@ATL@@E@Z 00407d10 f   Continent.obj
 0001:00006f30       ?_Xlen@?$vector@VCPoint@@V?$allocator@VCPoint@@@std@@@std@@IBEXXZ 00407f30 f i Continent.obj
 0001:00006fa0       ??_G_Node@?$_Tree_nod@V?$_Tmap_traits@EV?$vector@VCPoint@@V?$allocator@VCPoint@@@std@@@std@@U?$less@E@2@V?$allocator@U?$pair@$$CBEV?$vector@VCPoint@@V?$allocator@VCPoint@@@std@@@std@@@std@@@2@$0A@@std@@@std@@QAEPAXI@Z 00407fa0 f i Continent.obj
 0001:00006fc0       ??0?$CStringT@DV?$StrTraitMFC@DV?$ChTraitsCRT@D@ATL@@@@@ATL@@QAE@PBD@Z 00407fc0 f i Continent.obj
 0001:00007070       ?_Buy@?$vector@VCPoint@@V?$allocator@VCPoint@@@std@@@std@@IAE_NI@Z 00408070 f i Continent.obj
 0001:000070c0       ?_Insert_n@?$vector@VCPoint@@V?$allocator@VCPoint@@@std@@@std@@IAEXViterator@12@IABVCPoint@@@Z 004080c0 f i Continent.obj
 0001:00007310       ??$_Destroy@U_Node@?$_Tree_nod@V?$_Tmap_traits@EV?$vector@VCPoint@@V?$allocator@VCPoint@@@std@@@std@@U?$less@E@2@V?$allocator@U?$pair@$$CBEV?$vector@VCPoint@@V?$allocator@VCPoint@@@std@@@std@@@std@@@2@$0A@@std@@@std@@@std@@YAXPAU_Node@?$_Tree_nod@V?$_Tmap_traits@EV?$vector@VCPoint@@V?$allocator@VCPoint@@@std@@@std@@U?$less@E@2@V?$allocator@U?$pair@$$CBEV?$vector@VCPoint@@V?$allocator@VCPoint@@@std@@@std@@@std@@@2@$0A@@std@@@0@@Z 00408310 f i Continent.obj
 0001:00007320       ??0?$vector@VCPoint@@V?$allocator@VCPoint@@@std@@@std@@QAE@XZ 00408320 f i Continent.obj
 0001:00007330       ??0?$vector@VCPoint@@V?$allocator@VCPoint@@@std@@@std@@QAE@ABV01@@Z 00408330 f i Continent.obj
 0001:000073f0       ??4?$vector@VCPoint@@V?$allocator@VCPoint@@@std@@@std@@QAEAAV01@ABV01@@Z 004083f0 f i Continent.obj
 0001:00007540       ?insert@?$vector@VCPoint@@V?$allocator@VCPoint@@@std@@@std@@QAE?AViterator@12@V312@ABVCPoint@@@Z 00408540 f i Continent.obj
 0001:00007590       ?destroy@?$allocator@U_Node@?$_Tree_nod@V?$_Tmap_traits@EV?$vector@VCPoint@@V?$allocator@VCPoint@@@std@@@std@@U?$less@E@2@V?$allocator@U?$pair@$$CBEV?$vector@VCPoint@@V?$allocator@VCPoint@@@std@@@std@@@std@@@2@$0A@@std@@@std@@@std@@QAEXPAU_Node@?$_Tree_nod@V?$_Tmap_traits@EV?$vector@VCPoint@@V?$allocator@VCPoint@@@std@@@std@@U?$less@E@2@V?$allocator@U?$pair@$$CBEV?$vector@VCPoint@@V?$allocator@VCPoint@@@std@@@std@@@std@@@2@$0A@@std@@@2@@Z 00408590 f i Continent.obj
 0001:000075a0       ?erase@?$_Tree@V?$_Tmap_traits@EV?$vector@VCPoint@@V?$allocator@VCPoint@@@std@@@std@@U?$less@E@2@V?$allocator@U?$pair@$$CBEV?$vector@VCPoint@@V?$allocator@VCPoint@@@std@@@std@@@std@@@2@$0A@@std@@@std@@QAE?AViterator@12@V312@@Z 004085a0 f i Continent.obj
 0001:00007880       ??0?$pair@$$CBEV?$vector@VCPoint@@V?$allocator@VCPoint@@@std@@@std@@@std@@QAE@ABU01@@Z 00408880 f i Continent.obj
 0001:000078a0       ??$?0HV?$vector@VCPoint@@V?$allocator@VCPoint@@@std@@@std@@@?$pair@$$CBEV?$vector@VCPoint@@V?$allocator@VCPoint@@@std@@@std@@@std@@QAE@ABU?$pair@HV?$vector@VCPoint@@V?$allocator@VCPoint@@@std@@@std@@@1@@Z 004088a0 f i Continent.obj
 0001:000078c0       ??0?$pair@HV?$vector@VCPoint@@V?$allocator@VCPoint@@@std@@@std@@@std@@QAE@ABHABV?$vector@VCPoint@@V?$allocator@VCPoint@@@std@@@1@@Z 004088c0 f i Continent.obj
 0001:000078e0       ?GetContinent@CContinent@@QAEEABUD3DXVECTOR3@@@Z 004088e0 f   Continent.obj
 0001:000079d0       ?GetTown@CContinent@@QAEEABUD3DXVECTOR3@@@Z 004089d0 f   Continent.obj
 0001:00007ac0       ?push_back@?$vector@VCPoint@@V?$allocator@VCPoint@@@std@@@std@@QAEXABVCPoint@@@Z 00408ac0 f i Continent.obj
 0001:00007b30       ?_Erase@?$_Tree@V?$_Tmap_traits@EV?$vector@VCPoint@@V?$allocator@VCPoint@@@std@@@std@@U?$less@E@2@V?$allocator@U?$pair@$$CBEV?$vector@VCPoint@@V?$allocator@VCPoint@@@std@@@std@@@std@@@2@$0A@@std@@@std@@IAEXPAU_Node@?$_Tree_nod@V?$_Tmap_traits@EV?$vector@VCPoint@@V?$allocator@VCPoint@@@std@@@std@@U?$less@E@2@V?$allocator@U?$pair@$$CBEV?$vector@VCPoint@@V?$allocator@VCPoint@@@std@@@std@@@std@@@2@$0A@@std@@@2@@Z 00408b30 f i Continent.obj
 0001:00007b70       ??0_Node@?$_Tree_nod@V?$_Tmap_traits@EV?$vector@VCPoint@@V?$allocator@VCPoint@@@std@@@std@@U?$less@E@2@V?$allocator@U?$pair@$$CBEV?$vector@VCPoint@@V?$allocator@VCPoint@@@std@@@std@@@std@@@2@$0A@@std@@@std@@QAE@PAU012@00ABU?$pair@$$CBEV?$vector@VCPoint@@V?$allocator@VCPoint@@@std@@@std@@@2@D@Z 00408b70 f i Continent.obj
 0001:00007bb0       ??$make_pair@HV?$vector@VCPoint@@V?$allocator@VCPoint@@@std@@@std@@@std@@YA?AU?$pair@HV?$vector@VCPoint@@V?$allocator@VCPoint@@@std@@@std@@@0@HV?$vector@VCPoint@@V?$allocator@VCPoint@@@std@@@0@@Z 00408bb0 f i Continent.obj
 0001:00007c20       ?clear@?$_Tree@V?$_Tmap_traits@EV?$vector@VCPoint@@V?$allocator@VCPoint@@@std@@@std@@U?$less@E@2@V?$allocator@U?$pair@$$CBEV?$vector@VCPoint@@V?$allocator@VCPoint@@@std@@@std@@@std@@@2@$0A@@std@@@std@@QAEXXZ 00408c20 f i Continent.obj
 0001:00007c50       ?erase@?$_Tree@V?$_Tmap_traits@EV?$vector@VCPoint@@V?$allocator@VCPoint@@@std@@@std@@U?$less@E@2@V?$allocator@U?$pair@$$CBEV?$vector@VCPoint@@V?$allocator@VCPoint@@@std@@@std@@@std@@@2@$0A@@std@@@std@@QAE?AViterator@12@V312@0@Z 00408c50 f i Continent.obj
 0001:00007d10       ?_Buynode@?$_Tree@V?$_Tmap_traits@EV?$vector@VCPoint@@V?$allocator@VCPoint@@@std@@@std@@U?$less@E@2@V?$allocator@U?$pair@$$CBEV?$vector@VCPoint@@V?$allocator@VCPoint@@@std@@@std@@@std@@@2@$0A@@std@@@std@@IAEPAU_Node@?$_Tree_nod@V?$_Tmap_traits@EV?$vector@VCPoint@@V?$allocator@VCPoint@@@std@@@std@@U?$less@E@2@V?$allocator@U?$pair@$$CBEV?$vector@VCPoint@@V?$allocator@VCPoint@@@std@@@std@@@std@@@2@$0A@@std@@@2@PAU342@00ABU?$pair@$$CBEV?$vector@VCPoint@@V?$allocator@VCPoint@@@std@@@std@@@2@D@Z 00408d10 f i Continent.obj
 0001:00007db0       ?_Insert@?$_Tree@V?$_Tmap_traits@EV?$vector@VCPoint@@V?$allocator@VCPoint@@@std@@@std@@U?$less@E@2@V?$allocator@U?$pair@$$CBEV?$vector@VCPoint@@V?$allocator@VCPoint@@@std@@@std@@@std@@@2@$0A@@std@@@std@@IAE?AViterator@12@_NPAU_Node@?$_Tree_nod@V?$_Tmap_traits@EV?$vector@VCPoint@@V?$allocator@VCPoint@@@std@@@std@@U?$less@E@2@V?$allocator@U?$pair@$$CBEV?$vector@VCPoint@@V?$allocator@VCPoint@@@std@@@std@@@std@@@2@$0A@@std@@@2@ABU?$pair@$$CBEV?$vector@VCPoint@@V?$allocator@VCPoint@@@std@@@std@@@2@@Z 00408db0 f i Continent.obj
 0001:00007f60       ?_Tidy@?$_Tree@V?$_Tmap_traits@EV?$vector@VCPoint@@V?$allocator@VCPoint@@@std@@@std@@U?$less@E@2@V?$allocator@U?$pair@$$CBEV?$vector@VCPoint@@V?$allocator@VCPoint@@@std@@@std@@@std@@@2@$0A@@std@@@std@@IAEXXZ 00408f60 f i Continent.obj
 0001:00007f90       ??1?$_Tree@V?$_Tmap_traits@EV?$vector@VCPoint@@V?$allocator@VCPoint@@@std@@@std@@U?$less@E@2@V?$allocator@U?$pair@$$CBEV?$vector@VCPoint@@V?$allocator@VCPoint@@@std@@@std@@@std@@@2@$0A@@std@@@std@@QAE@XZ 00408f90 f i Continent.obj
 0001:00007fc0       ?insert@?$_Tree@V?$_Tmap_traits@EV?$vector@VCPoint@@V?$allocator@VCPoint@@@std@@@std@@U?$less@E@2@V?$allocator@U?$pair@$$CBEV?$vector@VCPoint@@V?$allocator@VCPoint@@@std@@@std@@@std@@@2@$0A@@std@@@std@@QAE?AU?$pair@Viterator@?$_Tree@V?$_Tmap_traits@EV?$vector@VCPoint@@V?$allocator@VCPoint@@@std@@@std@@U?$less@E@2@V?$allocator@U?$pair@$$CBEV?$vector@VCPoint@@V?$allocator@VCPoint@@@std@@@std@@@std@@@2@$0A@@std@@@std@@_N@2@ABU?$pair@$$CBEV?$vector@VCPoint@@V?$allocator@VCPoint@@@std@@@std@@@2@@Z 00408fc0 f i Continent.obj
 0001:00008080       ??1?$map@EV?$vector@VCPoint@@V?$allocator@VCPoint@@@std@@@std@@U?$less@E@2@V?$allocator@U?$pair@$$CBEV?$vector@VCPoint@@V?$allocator@VCPoint@@@std@@@std@@@std@@@2@@std@@QAE@XZ 00409080 f i Continent.obj
 0001:000080b0       ??1CContinent@@UAE@XZ      004090b0 f   Continent.obj
 0001:00008150       ?Init@CContinent@@AAEXXZ   00409150 f   Continent.obj
 0001:000087a0       ??0?$map@EV?$vector@VCPoint@@V?$allocator@VCPoint@@@std@@@std@@U?$less@E@2@V?$allocator@U?$pair@$$CBEV?$vector@VCPoint@@V?$allocator@VCPoint@@@std@@@std@@@std@@@2@@std@@QAE@XZ 004097a0 f i Continent.obj
 0001:000087d0       ??0CContinent@@QAE@XZ      004097d0 f   Continent.obj
 0001:00008870       ??_ECContinent@@UAEPAXI@Z  00409870 f i Continent.obj
 0001:00008870       ??_GCContinent@@UAEPAXI@Z  00409870 f i Continent.obj
 0001:00008890       ?GetInstance@CContinent@@SAPAV1@XZ 00409890 f   Continent.obj
 0001:000088f0       ?GetFirst@CCouple@@QAEKXZ  004098f0 f i couplehelper.obj
 0001:00008900       ?GetSecond@CCouple@@QAEKXZ 00409900 f i couplehelper.obj
 0001:00008910       ?Couple@CCoupleHelper@@QAEXPAVCCouple@@@Z 00409910 f i couplehelper.obj
 0001:00008920       ??0CCoupleController@@QAE@PAVCCoupleHelper@@@Z 00409920 f   couplehelper.obj
 0001:00008940       ??1CCoupleController@@UAE@XZ 00409940 f   couplehelper.obj
 0001:00008950       ?Propose@CCoupleController@@QAEHKJ@Z 00409950 f   couplehelper.obj
 0001:00008990       ?DeletePropose@CCoupleController@@QAEHJ@Z 00409990 f   couplehelper.obj
 0001:000089d0       ?Couple@CCoupleController@@QAEHKK@Z 004099d0 f   couplehelper.obj
 0001:00008a10       ?Decouple@CCoupleController@@QAEHK@Z 00409a10 f   couplehelper.obj
 0001:00008a50       ?AddExperience@CCoupleController@@QAEHKH@Z 00409a50 f   couplehelper.obj
 0001:00008a90       ?Clear@CCoupleHelper@@QAEXXZ 00409a90 f   couplehelper.obj
 0001:00008ad0       ?Serialize@CCoupleHelper@@QAEXAAVCAr@@@Z 00409ad0 f   couplehelper.obj
 0001:00008ae0       ?OnTransfer@CCoupleHelper@@QAEXK@Z 00409ae0 f   couplehelper.obj
 0001:00008b00       ??0?$pair@$$CBKJ@std@@QAE@ABKABJ@Z 00409b00 f i couplehelper.obj
 0001:00008b20       ?size@?$vector@U_COUPLE_ITEM@@V?$allocator@U_COUPLE_ITEM@@@std@@@std@@QBEIXZ 00409b20 f i couplehelper.obj
 0001:00008b40       ?empty@?$vector@U_COUPLE_ITEM@@V?$allocator@U_COUPLE_ITEM@@@std@@@std@@QBE_NXZ 00409b40 f i couplehelper.obj
 0001:00008b80       ?_Color@?$_Tree@V?$_Tmap_traits@KJU?$less@K@std@@V?$allocator@U?$pair@$$CBKJ@std@@@2@$0A@@std@@@std@@KAAADPAU_Node@?$_Tree_nod@V?$_Tmap_traits@KJU?$less@K@std@@V?$allocator@U?$pair@$$CBKJ@std@@@2@$0A@@std@@@2@@Z 00409b80 f i couplehelper.obj
 0001:00008b90       ?_Isnil@?$_Tree@V?$_Tmap_traits@KJU?$less@K@std@@V?$allocator@U?$pair@$$CBKJ@std@@@2@$0A@@std@@@std@@KAAADPAU_Node@?$_Tree_nod@V?$_Tmap_traits@KJU?$less@K@std@@V?$allocator@U?$pair@$$CBKJ@std@@@2@$0A@@std@@@2@@Z 00409b90 f i couplehelper.obj
 0001:00008ba0       ?_Left@?$_Tree@V?$_Tmap_traits@KJU?$less@K@std@@V?$allocator@U?$pair@$$CBKJ@std@@@2@$0A@@std@@@std@@KAAAPAU_Node@?$_Tree_nod@V?$_Tmap_traits@KJU?$less@K@std@@V?$allocator@U?$pair@$$CBKJ@std@@@2@$0A@@std@@@2@PAU342@@Z 00409ba0 f i couplehelper.obj
 0001:00008bb0       ?_Parent@?$_Tree@V?$_Tmap_traits@KJU?$less@K@std@@V?$allocator@U?$pair@$$CBKJ@std@@@2@$0A@@std@@@std@@KAAAPAU_Node@?$_Tree_nod@V?$_Tmap_traits@KJU?$less@K@std@@V?$allocator@U?$pair@$$CBKJ@std@@@2@$0A@@std@@@2@PAU342@@Z 00409bb0 f i couplehelper.obj
 0001:00008bc0       ?_Right@?$_Tree@V?$_Tmap_traits@KJU?$less@K@std@@V?$allocator@U?$pair@$$CBKJ@std@@@2@$0A@@std@@@std@@KAAAPAU_Node@?$_Tree_nod@V?$_Tmap_traits@KJU?$less@K@std@@V?$allocator@U?$pair@$$CBKJ@std@@@2@$0A@@std@@@2@PAU342@@Z 00409bc0 f i couplehelper.obj
 0001:00008bd0       ?_Lmost@?$_Tree@V?$_Tmap_traits@KJU?$less@K@std@@V?$allocator@U?$pair@$$CBKJ@std@@@2@$0A@@std@@@std@@IAEAAPAU_Node@?$_Tree_nod@V?$_Tmap_traits@KJU?$less@K@std@@V?$allocator@U?$pair@$$CBKJ@std@@@2@$0A@@std@@@2@XZ 00409bd0 f i couplehelper.obj
 0001:00008be0       ?_Max@?$_Tree@V?$_Tmap_traits@KJU?$less@K@std@@V?$allocator@U?$pair@$$CBKJ@std@@@2@$0A@@std@@@std@@KAPAU_Node@?$_Tree_nod@V?$_Tmap_traits@KJU?$less@K@std@@V?$allocator@U?$pair@$$CBKJ@std@@@2@$0A@@std@@@2@PAU342@@Z 00409be0 f i couplehelper.obj
 0001:00008c00       ?_Min@?$_Tree@V?$_Tmap_traits@KJU?$less@K@std@@V?$allocator@U?$pair@$$CBKJ@std@@@2@$0A@@std@@@std@@KAPAU_Node@?$_Tree_nod@V?$_Tmap_traits@KJU?$less@K@std@@V?$allocator@U?$pair@$$CBKJ@std@@@2@$0A@@std@@@2@PAU342@@Z 00409c00 f i couplehelper.obj
 0001:00008c20       ?_Rmost@?$_Tree@V?$_Tmap_traits@KJU?$less@K@std@@V?$allocator@U?$pair@$$CBKJ@std@@@2@$0A@@std@@@std@@IAEAAPAU_Node@?$_Tree_nod@V?$_Tmap_traits@KJU?$less@K@std@@V?$allocator@U?$pair@$$CBKJ@std@@@2@$0A@@std@@@2@XZ 00409c20 f i couplehelper.obj
 0001:00008c30       ?_Root@?$_Tree@V?$_Tmap_traits@KJU?$less@K@std@@V?$allocator@U?$pair@$$CBKJ@std@@@2@$0A@@std@@@std@@IAEAAPAU_Node@?$_Tree_nod@V?$_Tmap_traits@KJU?$less@K@std@@V?$allocator@U?$pair@$$CBKJ@std@@@2@$0A@@std@@@2@XZ 00409c30 f i couplehelper.obj
 0001:00008c40       ?_Rrotate@?$_Tree@V?$_Tmap_traits@KJU?$less@K@std@@V?$allocator@U?$pair@$$CBKJ@std@@@2@$0A@@std@@@std@@IAEXPAU_Node@?$_Tree_nod@V?$_Tmap_traits@KJU?$less@K@std@@V?$allocator@U?$pair@$$CBKJ@std@@@2@$0A@@std@@@2@@Z 00409c40 f i couplehelper.obj
 0001:00008ca0       ?_Kfn@?$_Tmap_traits@KJU?$less@K@std@@V?$allocator@U?$pair@$$CBKJ@std@@@2@$0A@@std@@SAABKABU?$pair@$$CBKJ@2@@Z 00409ca0 f i couplehelper.obj
 0001:00008cb0       ??0?$allocator@U?$pair@$$CBKJ@std@@@std@@QAE@XZ 00409cb0 f i couplehelper.obj
 0001:00008cc0       ?deallocate@?$allocator@U_Node@?$_Tree_nod@V?$_Tmap_traits@KJU?$less@K@std@@V?$allocator@U?$pair@$$CBKJ@std@@@2@$0A@@std@@@std@@@std@@QAEXPAU_Node@?$_Tree_nod@V?$_Tmap_traits@KJU?$less@K@std@@V?$allocator@U?$pair@$$CBKJ@std@@@2@$0A@@std@@@2@I@Z 00409cc0 f i couplehelper.obj
 0001:00008cd0       ??0?$pair@Viterator@?$_Tree@V?$_Tmap_traits@KJU?$less@K@std@@V?$allocator@U?$pair@$$CBKJ@std@@@2@$0A@@std@@@std@@_N@std@@QAE@ABViterator@?$_Tree@V?$_Tmap_traits@KJU?$less@K@std@@V?$allocator@U?$pair@$$CBKJ@std@@@2@$0A@@std@@@1@AB_N@Z 00409cd0 f i couplehelper.obj
 0001:00008cf0       ??8const_iterator@?$_Tree@V?$_Tmap_traits@KJU?$less@K@std@@V?$allocator@U?$pair@$$CBKJ@std@@@2@$0A@@std@@@std@@QBE_NABV012@@Z 00409cf0 f i couplehelper.obj
 0001:00008d00       ?_Mynode@const_iterator@?$_Tree@V?$_Tmap_traits@KJU?$less@K@std@@V?$allocator@U?$pair@$$CBKJ@std@@@2@$0A@@std@@@std@@QBEPAU_Node@?$_Tree_nod@V?$_Tmap_traits@KJU?$less@K@std@@V?$allocator@U?$pair@$$CBKJ@std@@@2@$0A@@std@@@3@XZ 00409d00 f i couplehelper.obj
 0001:00008d10       ?_Myval@?$_Tree@V?$_Tmap_traits@KJU?$less@K@std@@V?$allocator@U?$pair@$$CBKJ@std@@@2@$0A@@std@@@std@@KAAAU?$pair@$$CBKJ@2@PAU_Node@?$_Tree_nod@V?$_Tmap_traits@KJU?$less@K@std@@V?$allocator@U?$pair@$$CBKJ@std@@@2@$0A@@std@@@2@@Z 00409d10 f i couplehelper.obj
 0001:00008d20       ??0?$allocator@U?$pair@$$CBKJ@std@@@std@@QAE@ABV01@@Z 00409d20 f i couplehelper.obj
 0001:00008d30       ??0const_iterator@?$_Tree@V?$_Tmap_traits@KJU?$less@K@std@@V?$allocator@U?$pair@$$CBKJ@std@@@2@$0A@@std@@@std@@QAE@PAU_Node@?$_Tree_nod@V?$_Tmap_traits@KJU?$less@K@std@@V?$allocator@U?$pair@$$CBKJ@std@@@2@$0A@@std@@@2@@Z 00409d30 f i couplehelper.obj
 0001:00008d40       ??Dconst_iterator@?$_Tree@V?$_Tmap_traits@KJU?$less@K@std@@V?$allocator@U?$pair@$$CBKJ@std@@@2@$0A@@std@@@std@@QBEABU?$pair@$$CBKJ@2@XZ 00409d40 f i couplehelper.obj
 0001:00008d50       ?_Inc@const_iterator@?$_Tree@V?$_Tmap_traits@KJU?$less@K@std@@V?$allocator@U?$pair@$$CBKJ@std@@@2@$0A@@std@@@std@@QAEXXZ 00409d50 f i couplehelper.obj
 0001:00008db0       ??Yiterator@?$vector@U_COUPLE_ITEM@@V?$allocator@U_COUPLE_ITEM@@@std@@@std@@QAEAAV012@H@Z 00409db0 f i couplehelper.obj
 0001:00008dd0       ??Dconst_iterator@?$vector@U_COUPLE_ITEM@@V?$allocator@U_COUPLE_ITEM@@@std@@@std@@QBEABU_COUPLE_ITEM@@XZ 00409dd0 f i couplehelper.obj
 0001:00008de0       ?_Root@?$_Tree@V?$_Tmap_traits@KJU?$less@K@std@@V?$allocator@U?$pair@$$CBKJ@std@@@2@$0A@@std@@@std@@IBEAAPAU_Node@?$_Tree_nod@V?$_Tmap_traits@KJU?$less@K@std@@V?$allocator@U?$pair@$$CBKJ@std@@@2@$0A@@std@@@2@XZ 00409de0 f i couplehelper.obj
 0001:00008df0       ?max_size@?$allocator@U?$pair@$$CBKJ@std@@@std@@QBEIXZ 00409df0 f i couplehelper.obj
 0001:00008e00       ?_Dec@const_iterator@?$_Tree@V?$_Tmap_traits@KJU?$less@K@std@@V?$allocator@U?$pair@$$CBKJ@std@@@2@$0A@@std@@@std@@QAEXXZ 00409e00 f i couplehelper.obj
 0001:00008e60       ??0const_iterator@?$vector@U_COUPLE_ITEM@@V?$allocator@U_COUPLE_ITEM@@@std@@@std@@QAE@PAU_COUPLE_ITEM@@@Z 00409e60 f i couplehelper.obj
 0001:00008e70       ??0_Node@?$_Tree_nod@V?$_Tmap_traits@KJU?$less@K@std@@V?$allocator@U?$pair@$$CBKJ@std@@@2@$0A@@std@@@std@@QAE@PAU012@00ABU?$pair@$$CBKJ@2@D@Z 00409e70 f i couplehelper.obj
 0001:00008eb0       ??0?$_Tmap_traits@KJU?$less@K@std@@V?$allocator@U?$pair@$$CBKJ@std@@@2@$0A@@std@@QAE@U?$less@K@1@@Z 00409eb0 f i couplehelper.obj
 0001:00008ec0       ??$_Destroy@U_Node@?$_Tree_nod@V?$_Tmap_traits@KJU?$less@K@std@@V?$allocator@U?$pair@$$CBKJ@std@@@2@$0A@@std@@@std@@@std@@YAXPAU_Node@?$_Tree_nod@V?$_Tmap_traits@KJU?$less@K@std@@V?$allocator@U?$pair@$$CBKJ@std@@@2@$0A@@std@@@0@@Z 00409ec0 f i couplehelper.obj
 0001:00008ed0       ??$_Destroy@PAU_Node@?$_Tree_nod@V?$_Tmap_traits@KJU?$less@K@std@@V?$allocator@U?$pair@$$CBKJ@std@@@2@$0A@@std@@@std@@@std@@YAXPAPAU_Node@?$_Tree_nod@V?$_Tmap_traits@KJU?$less@K@std@@V?$allocator@U?$pair@$$CBKJ@std@@@2@$0A@@std@@@0@@Z 00409ed0 f i couplehelper.obj
 0001:00008ee0       ??$?0U?$pair@$$CBKJ@std@@@?$allocator@PAU_Node@?$_Tree_nod@V?$_Tmap_traits@KJU?$less@K@std@@V?$allocator@U?$pair@$$CBKJ@std@@@2@$0A@@std@@@std@@@std@@QAE@ABV?$allocator@U?$pair@$$CBKJ@std@@@1@@Z 00409ee0 f i couplehelper.obj
 0001:00008ef0       ??$_Allocate@U_Node@?$_Tree_nod@V?$_Tmap_traits@KJU?$less@K@std@@V?$allocator@U?$pair@$$CBKJ@std@@@2@$0A@@std@@@std@@@std@@YAPAU_Node@?$_Tree_nod@V?$_Tmap_traits@KJU?$less@K@std@@V?$allocator@U?$pair@$$CBKJ@std@@@2@$0A@@std@@@0@IPAU120@@Z 00409ef0 f i couplehelper.obj
 0001:00008f10       ??$?0U?$pair@$$CBKJ@std@@@?$allocator@U_Node@?$_Tree_nod@V?$_Tmap_traits@KJU?$less@K@std@@V?$allocator@U?$pair@$$CBKJ@std@@@2@$0A@@std@@@std@@@std@@QAE@ABV?$allocator@U?$pair@$$CBKJ@std@@@1@@Z 00409f10 f i couplehelper.obj
 0001:00008f20       ??$_Construct@PAU_Node@?$_Tree_nod@V?$_Tmap_traits@KJU?$less@K@std@@V?$allocator@U?$pair@$$CBKJ@std@@@2@$0A@@std@@@std@@PAU123@@std@@YAXPAPAU_Node@?$_Tree_nod@V?$_Tmap_traits@KJU?$less@K@std@@V?$allocator@U?$pair@$$CBKJ@std@@@2@$0A@@std@@@0@ABQAU120@@Z 00409f20 f i couplehelper.obj
 0001:00008f40       ??0CMclAutoLock@@QAE@AAVCMclCritSec@@@Z 00409f40 f i couplehelper.obj
 0001:00008f60       ??1CMclAutoLock@@QAE@XZ    00409f60 f i couplehelper.obj
 0001:00008f70       ?time_null@@YAJXZ          00409f70 f i couplehelper.obj
 0001:00008f80       ?xRand@@YAKXZ              00409f80 f i couplehelper.obj
 0001:00008fa0       ?SetSerialNumber@CItemBase@@QAEXK@Z 00409fa0 f i couplehelper.obj
 0001:00008fb0       ??_GCCoupleController@@UAEPAXI@Z 00409fb0 f i couplehelper.obj
 0001:00008fb0       ??_ECCoupleController@@UAEPAXI@Z 00409fb0 f i couplehelper.obj
 0001:00008fd0       ?GetGender@CCoupleHelper@@AAEXPAVCCouple@@AAH1@Z 00409fd0 f   couplehelper.obj
 0001:00009060       ?OnCouple@CCoupleHelper@@QAEXAAVCAr@@@Z 0040a060 f   couplehelper.obj
 0001:00009140       ?OnDecouple@CCoupleHelper@@QAEXAAVCAr@@@Z 0040a140 f   couplehelper.obj
 0001:000091f0       ??9const_iterator@?$_Tree@V?$_Tmap_traits@KJU?$less@K@std@@V?$allocator@U?$pair@$$CBKJ@std@@@2@$0A@@std@@@std@@QBE_NABV012@@Z 0040a1f0 f i couplehelper.obj
 0001:00009210       ?_Key@?$_Tree@V?$_Tmap_traits@KJU?$less@K@std@@V?$allocator@U?$pair@$$CBKJ@std@@@2@$0A@@std@@@std@@KAABKPAU_Node@?$_Tree_nod@V?$_Tmap_traits@KJU?$less@K@std@@V?$allocator@U?$pair@$$CBKJ@std@@@2@$0A@@std@@@2@@Z 0040a210 f i couplehelper.obj
 0001:00009220       ?_Lrotate@?$_Tree@V?$_Tmap_traits@KJU?$less@K@std@@V?$allocator@U?$pair@$$CBKJ@std@@@2@$0A@@std@@@std@@IAEXPAU_Node@?$_Tree_nod@V?$_Tmap_traits@KJU?$less@K@std@@V?$allocator@U?$pair@$$CBKJ@std@@@2@$0A@@std@@@2@@Z 0040a220 f i couplehelper.obj
 0001:00009280       ?destroy@?$allocator@U_Node@?$_Tree_nod@V?$_Tmap_traits@KJU?$less@K@std@@V?$allocator@U?$pair@$$CBKJ@std@@@2@$0A@@std@@@std@@@std@@QAEXPAU_Node@?$_Tree_nod@V?$_Tmap_traits@KJU?$less@K@std@@V?$allocator@U?$pair@$$CBKJ@std@@@2@$0A@@std@@@2@@Z 0040a280 f i couplehelper.obj
 0001:00009290       ??0iterator@?$_Tree@V?$_Tmap_traits@KJU?$less@K@std@@V?$allocator@U?$pair@$$CBKJ@std@@@2@$0A@@std@@@std@@QAE@PAU_Node@?$_Tree_nod@V?$_Tmap_traits@KJU?$less@K@std@@V?$allocator@U?$pair@$$CBKJ@std@@@2@$0A@@std@@@2@@Z 0040a290 f i couplehelper.obj
 0001:000092a0       ??Diterator@?$_Tree@V?$_Tmap_traits@KJU?$less@K@std@@V?$allocator@U?$pair@$$CBKJ@std@@@2@$0A@@std@@@std@@QBEAAU?$pair@$$CBKJ@2@XZ 0040a2a0 f i couplehelper.obj
 0001:000092b0       ??Econst_iterator@?$_Tree@V?$_Tmap_traits@KJU?$less@K@std@@V?$allocator@U?$pair@$$CBKJ@std@@@2@$0A@@std@@@std@@QAEAAV012@XZ 0040a2b0 f i couplehelper.obj
 0001:000092c0       ??Diterator@?$vector@U_COUPLE_ITEM@@V?$allocator@U_COUPLE_ITEM@@@std@@@std@@QBEAAU_COUPLE_ITEM@@XZ 0040a2c0 f i couplehelper.obj
 0001:000092d0       ??Hiterator@?$vector@U_COUPLE_ITEM@@V?$allocator@U_COUPLE_ITEM@@@std@@@std@@QBE?AV012@H@Z 0040a2d0 f i couplehelper.obj
 0001:000092f0       ?max_size@?$_Tree@V?$_Tmap_traits@KJU?$less@K@std@@V?$allocator@U?$pair@$$CBKJ@std@@@2@$0A@@std@@@std@@QBEIXZ 0040a2f0 f i couplehelper.obj
 0001:00009300       ?_Lbound@?$_Tree@V?$_Tmap_traits@KJU?$less@K@std@@V?$allocator@U?$pair@$$CBKJ@std@@@2@$0A@@std@@@std@@IBEPAU_Node@?$_Tree_nod@V?$_Tmap_traits@KJU?$less@K@std@@V?$allocator@U?$pair@$$CBKJ@std@@@2@$0A@@std@@@2@ABK@Z 0040a300 f i couplehelper.obj
 0001:00009330       ?destroy@?$allocator@PAU_Node@?$_Tree_nod@V?$_Tmap_traits@KJU?$less@K@std@@V?$allocator@U?$pair@$$CBKJ@std@@@2@$0A@@std@@@std@@@std@@QAEXPAPAU_Node@?$_Tree_nod@V?$_Tmap_traits@KJU?$less@K@std@@V?$allocator@U?$pair@$$CBKJ@std@@@2@$0A@@std@@@2@@Z 0040a330 f i couplehelper.obj
 0001:00009340       ??Fconst_iterator@?$_Tree@V?$_Tmap_traits@KJU?$less@K@std@@V?$allocator@U?$pair@$$CBKJ@std@@@2@$0A@@std@@@std@@QAEAAV012@XZ 0040a340 f i couplehelper.obj
 0001:00009350       ??0iterator@?$vector@U_COUPLE_ITEM@@V?$allocator@U_COUPLE_ITEM@@@std@@@std@@QAE@PAU_COUPLE_ITEM@@@Z 0040a350 f i couplehelper.obj
 0001:00009360       ?allocate@?$allocator@U_Node@?$_Tree_nod@V?$_Tmap_traits@KJU?$less@K@std@@V?$allocator@U?$pair@$$CBKJ@std@@@2@$0A@@std@@@std@@@std@@QAEPAU_Node@?$_Tree_nod@V?$_Tmap_traits@KJU?$less@K@std@@V?$allocator@U?$pair@$$CBKJ@std@@@2@$0A@@std@@@2@I@Z 0040a360 f i couplehelper.obj
 0001:00009380       ??0?$_Tree_nod@V?$_Tmap_traits@KJU?$less@K@std@@V?$allocator@U?$pair@$$CBKJ@std@@@2@$0A@@std@@@std@@IAE@ABU?$less@K@1@V?$allocator@U?$pair@$$CBKJ@std@@@1@@Z 0040a380 f i couplehelper.obj
 0001:00009390       ?construct@?$allocator@PAU_Node@?$_Tree_nod@V?$_Tmap_traits@KJU?$less@K@std@@V?$allocator@U?$pair@$$CBKJ@std@@@2@$0A@@std@@@std@@@std@@QAEXPAPAU_Node@?$_Tree_nod@V?$_Tmap_traits@KJU?$less@K@std@@V?$allocator@U?$pair@$$CBKJ@std@@@2@$0A@@std@@@2@ABQAU342@@Z 0040a390 f i couplehelper.obj
 0001:000093b0       ?PostItem@CCoupleHelper@@QAEXKABU_COUPLE_ITEM@@H@Z 0040a3b0 f   couplehelper.obj
 0001:00009560       ?begin@?$_Tree@V?$_Tmap_traits@KJU?$less@K@std@@V?$allocator@U?$pair@$$CBKJ@std@@@2@$0A@@std@@@std@@QAE?AViterator@12@XZ 0040a560 f i couplehelper.obj
 0001:00009570       ?end@?$_Tree@V?$_Tmap_traits@KJU?$less@K@std@@V?$allocator@U?$pair@$$CBKJ@std@@@2@$0A@@std@@@std@@QAE?AViterator@12@XZ 0040a570 f i couplehelper.obj
 0001:00009580       ??Citerator@?$_Tree@V?$_Tmap_traits@KJU?$less@K@std@@V?$allocator@U?$pair@$$CBKJ@std@@@2@$0A@@std@@@std@@QBEPAU?$pair@$$CBKJ@2@XZ 0040a580 f i couplehelper.obj
 0001:00009590       ??Eiterator@?$_Tree@V?$_Tmap_traits@KJU?$less@K@std@@V?$allocator@U?$pair@$$CBKJ@std@@@2@$0A@@std@@@std@@QAEAAV012@XZ 0040a590 f i couplehelper.obj
 0001:000095a0       ??Eiterator@?$_Tree@V?$_Tmap_traits@KJU?$less@K@std@@V?$allocator@U?$pair@$$CBKJ@std@@@2@$0A@@std@@@std@@QAE?AV012@H@Z 0040a5a0 f i couplehelper.obj
 0001:000095c0       ?lower_bound@?$_Tree@V?$_Tmap_traits@KJU?$less@K@std@@V?$allocator@U?$pair@$$CBKJ@std@@@2@$0A@@std@@@std@@QAE?AViterator@12@ABK@Z 0040a5c0 f i couplehelper.obj
 0001:00009600       ?_Erase@?$_Tree@V?$_Tmap_traits@KJU?$less@K@std@@V?$allocator@U?$pair@$$CBKJ@std@@@2@$0A@@std@@@std@@IAEXPAU_Node@?$_Tree_nod@V?$_Tmap_traits@KJU?$less@K@std@@V?$allocator@U?$pair@$$CBKJ@std@@@2@$0A@@std@@@2@@Z 0040a600 f i couplehelper.obj
 0001:00009640       ??Fiterator@?$_Tree@V?$_Tmap_traits@KJU?$less@K@std@@V?$allocator@U?$pair@$$CBKJ@std@@@2@$0A@@std@@@std@@QAEAAV012@XZ 0040a640 f i couplehelper.obj
 0001:00009650       ?begin@?$vector@U_COUPLE_ITEM@@V?$allocator@U_COUPLE_ITEM@@@std@@@std@@QAE?AViterator@12@XZ 0040a650 f i couplehelper.obj
 0001:00009660       ?_Buynode@?$_Tree@V?$_Tmap_traits@KJU?$less@K@std@@V?$allocator@U?$pair@$$CBKJ@std@@@2@$0A@@std@@@std@@IAEPAU_Node@?$_Tree_nod@V?$_Tmap_traits@KJU?$less@K@std@@V?$allocator@U?$pair@$$CBKJ@std@@@2@$0A@@std@@@2@PAU342@00ABU?$pair@$$CBKJ@2@D@Z 0040a660 f i couplehelper.obj
 0001:000096a0       ?_Buynode@?$_Tree@V?$_Tmap_traits@KJU?$less@K@std@@V?$allocator@U?$pair@$$CBKJ@std@@@2@$0A@@std@@@std@@IAEPAU_Node@?$_Tree_nod@V?$_Tmap_traits@KJU?$less@K@std@@V?$allocator@U?$pair@$$CBKJ@std@@@2@$0A@@std@@@2@XZ 0040a6a0 f i couplehelper.obj
 0001:000096e0       ??0?$_Tree_ptr@V?$_Tmap_traits@KJU?$less@K@std@@V?$allocator@U?$pair@$$CBKJ@std@@@2@$0A@@std@@@std@@IAE@ABU?$less@K@1@V?$allocator@U?$pair@$$CBKJ@std@@@1@@Z 0040a6e0 f i couplehelper.obj
 0001:000096f0       ?clear@?$_Tree@V?$_Tmap_traits@KJU?$less@K@std@@V?$allocator@U?$pair@$$CBKJ@std@@@2@$0A@@std@@@std@@QAEXXZ 0040a6f0 f i couplehelper.obj
 0001:00009720       ?find@?$_Tree@V?$_Tmap_traits@KJU?$less@K@std@@V?$allocator@U?$pair@$$CBKJ@std@@@2@$0A@@std@@@std@@QAE?AViterator@12@ABK@Z 0040a720 f i couplehelper.obj
 0001:00009790       ??A?$vector@U_COUPLE_ITEM@@V?$allocator@U_COUPLE_ITEM@@@std@@@std@@QAEAAU_COUPLE_ITEM@@I@Z 0040a790 f i couplehelper.obj
 0001:000097a0       ?_Init@?$_Tree@V?$_Tmap_traits@KJU?$less@K@std@@V?$allocator@U?$pair@$$CBKJ@std@@@2@$0A@@std@@@std@@IAEXXZ 0040a7a0 f i couplehelper.obj
 0001:000097d0       ??0?$_Tree_val@V?$_Tmap_traits@KJU?$less@K@std@@V?$allocator@U?$pair@$$CBKJ@std@@@2@$0A@@std@@@std@@IAE@ABU?$less@K@1@V?$allocator@U?$pair@$$CBKJ@std@@@1@@Z 0040a7d0 f i couplehelper.obj
 0001:000097e0       ?PostItem@CCoupleHelper@@QAEXPAVCCouple@@@Z 0040a7e0 f   couplehelper.obj
 0001:00009910       ?OnClearPropose@CCoupleHelper@@QAEXXZ 0040a910 f   couplehelper.obj
 0001:00009980       ?GetPropose@CCoupleHelper@@QAEJK@Z 0040a980 f   couplehelper.obj
 0001:000099b0       ??0?$_Tree@V?$_Tmap_traits@KJU?$less@K@std@@V?$allocator@U?$pair@$$CBKJ@std@@@2@$0A@@std@@@std@@QAE@ABU?$less@K@1@ABV?$allocator@U?$pair@$$CBKJ@std@@@1@@Z 0040a9b0 f i couplehelper.obj
 0001:000099e0       ?OnAddExperience@CCoupleHelper@@QAEXAAVCAr@@@Z 0040a9e0 f   couplehelper.obj
 0001:00009aa0       ?erase@?$_Tree@V?$_Tmap_traits@KJU?$less@K@std@@V?$allocator@U?$pair@$$CBKJ@std@@@2@$0A@@std@@@std@@QAE?AViterator@12@V312@@Z 0040aaa0 f i couplehelper.obj
 0001:00009d60       ?_Insert@?$_Tree@V?$_Tmap_traits@KJU?$less@K@std@@V?$allocator@U?$pair@$$CBKJ@std@@@2@$0A@@std@@@std@@IAE?AViterator@12@_NPAU_Node@?$_Tree_nod@V?$_Tmap_traits@KJU?$less@K@std@@V?$allocator@U?$pair@$$CBKJ@std@@@2@$0A@@std@@@2@ABU?$pair@$$CBKJ@2@@Z 0040ad60 f i couplehelper.obj
 0001:00009f10       ?erase@?$_Tree@V?$_Tmap_traits@KJU?$less@K@std@@V?$allocator@U?$pair@$$CBKJ@std@@@2@$0A@@std@@@std@@QAE?AViterator@12@V312@0@Z 0040af10 f i couplehelper.obj
 0001:00009fd0       ?OnTimer@CCoupleHelper@@QAEXXZ 0040afd0 f   couplehelper.obj
 0001:0000a070       ?insert@?$_Tree@V?$_Tmap_traits@KJU?$less@K@std@@V?$allocator@U?$pair@$$CBKJ@std@@@2@$0A@@std@@@std@@QAE?AU?$pair@Viterator@?$_Tree@V?$_Tmap_traits@KJU?$less@K@std@@V?$allocator@U?$pair@$$CBKJ@std@@@2@$0A@@std@@@std@@_N@2@ABU?$pair@$$CBKJ@2@@Z 0040b070 f i couplehelper.obj
 0001:0000a130       ?_Tidy@?$_Tree@V?$_Tmap_traits@KJU?$less@K@std@@V?$allocator@U?$pair@$$CBKJ@std@@@2@$0A@@std@@@std@@IAEXXZ 0040b130 f i couplehelper.obj
 0001:0000a160       ?AddPropose@CCoupleHelper@@QAE_NKJ@Z 0040b160 f i couplehelper.obj
 0001:0000a190       ?Restore@CCoupleController@@QAEHXZ 0040b190 f   couplehelper.obj
 0001:0000a330       ?OnTimer@CCoupleController@@UAEXXZ 0040b330 f   couplehelper.obj
 0001:0000a340       ?Initialize@CCoupleHelper@@QAEHXZ 0040b340 f   couplehelper.obj
 0001:0000a410       ?SetPropose@CCoupleHelper@@QAEHKJ@Z 0040b410 f   couplehelper.obj
 0001:0000a490       ??1?$_Tree@V?$_Tmap_traits@KJU?$less@K@std@@V?$allocator@U?$pair@$$CBKJ@std@@@2@$0A@@std@@@std@@QAE@XZ 0040b490 f i couplehelper.obj
 0001:0000a4c0       ??1?$map@KJU?$less@K@std@@V?$allocator@U?$pair@$$CBKJ@std@@@2@@std@@QAE@XZ 0040b4c0 f i couplehelper.obj
 0001:0000a4f0       ??1CCoupleHelper@@UAE@XZ   0040b4f0 f   couplehelper.obj
 0001:0000a590       ?OnPropose@CCoupleHelper@@QAEXAAVCAr@@K@Z 0040b590 f   couplehelper.obj
 0001:0000a6a0       ??0?$map@KJU?$less@K@std@@V?$allocator@U?$pair@$$CBKJ@std@@@2@@std@@QAE@XZ 0040b6a0 f i couplehelper.obj
 0001:0000a6d0       ??0CCoupleHelper@@AAE@XZ   0040b6d0 f   couplehelper.obj
 0001:0000a710       ??_ECCoupleHelper@@UAEPAXI@Z 0040b710 f i couplehelper.obj
 0001:0000a710       ??_GCCoupleHelper@@UAEPAXI@Z 0040b710 f i couplehelper.obj
 0001:0000a730       ?Instance@CCoupleHelper@@SAPAV1@XZ 0040b730 f   couplehelper.obj
 0001:0000a7c0       ?Handler@CCoupleHelper@@QAEXPAUtagDB_OVERLAPPED_PLUS@@K@Z 0040b7c0 f   couplehelper.obj
 0001:0000a8e0       ?Handler@CCoupleController@@UAEXPAUtagDB_OVERLAPPED_PLUS@@K@Z 0040b8e0 f   couplehelper.obj
 0001:0000a8f0       ?IsRun@CQuiz@@QAEHXZ       0040b8f0 f i DatabaseServer.obj
 0001:0000a900       ?Initialize@CMyTrace@@QAEXPAUHWND__@@PBDKK@Z 0040b900 f i DatabaseServer.obj
 0001:0000a950       ?GetFlag@CEventGeneric@@QAEKXZ 0040b950 f i DatabaseServer.obj
 0001:0000a960       ?PostRequest@CGuildHouseDBMng@@QAEHHPAEHK@Z 0040b960 f i DatabaseServer.obj
 0001:0000a970       ?PostRequest@CCampusHelper@@QAEHHPAEHK@Z 0040b970 f i DatabaseServer.obj
 0001:0000a980       ?InitLanguageFromResource@@YAXPAUHINSTANCE__@@@Z 0040b980 f   DatabaseServer.obj
 0001:0000aa30       ??0CTime@ATL@@QAE@_J@Z     0040ba30 f i DatabaseServer.obj
 0001:0000aa50       ?key_comp@?$_Tree@V?$_Tmap_traits@EHU?$less@E@std@@V?$allocator@U?$pair@$$CBEH@std@@@2@$0A@@std@@@std@@QBE?AU?$less@E@2@XZ 0040ba50 f i DatabaseServer.obj
 0001:0000aa60       ?_Isnil@?$_Tree@V?$_Tset_traits@V?$basic_string@DU?$char_traits@D@std@@V?$allocator@D@2@@std@@U?$less@V?$basic_string@DU?$char_traits@D@std@@V?$allocator@D@2@@std@@@2@V?$allocator@V?$basic_string@DU?$char_traits@D@std@@V?$allocator@D@2@@std@@@2@$0A@@std@@@std@@KAAADPAU_Node@?$_Tree_nod@V?$_Tset_traits@V?$basic_string@DU?$char_traits@D@std@@V?$allocator@D@2@@std@@U?$less@V?$basic_string@DU?$char_traits@D@std@@V?$allocator@D@2@@std@@@2@V?$allocator@V?$basic_string@DU?$char_traits@D@std@@V?$allocator@D@2@@std@@@2@$0A@@std@@@2@@Z 0040ba60 f i DatabaseServer.obj
 0001:0000aa70       ?_Left@?$_Tree@V?$_Tset_traits@V?$basic_string@DU?$char_traits@D@std@@V?$allocator@D@2@@std@@U?$less@V?$basic_string@DU?$char_traits@D@std@@V?$allocator@D@2@@std@@@2@V?$allocator@V?$basic_string@DU?$char_traits@D@std@@V?$allocator@D@2@@std@@@2@$0A@@std@@@std@@KAAAPAU_Node@?$_Tree_nod@V?$_Tset_traits@V?$basic_string@DU?$char_traits@D@std@@V?$allocator@D@2@@std@@U?$less@V?$basic_string@DU?$char_traits@D@std@@V?$allocator@D@2@@std@@@2@V?$allocator@V?$basic_string@DU?$char_traits@D@std@@V?$allocator@D@2@@std@@@2@$0A@@std@@@2@PAU342@@Z 0040ba70 f i DatabaseServer.obj
 0001:0000aa80       ?_Right@?$_Tree@V?$_Tset_traits@V?$basic_string@DU?$char_traits@D@std@@V?$allocator@D@2@@std@@U?$less@V?$basic_string@DU?$char_traits@D@std@@V?$allocator@D@2@@std@@@2@V?$allocator@V?$basic_string@DU?$char_traits@D@std@@V?$allocator@D@2@@std@@@2@$0A@@std@@@std@@KAAAPAU_Node@?$_Tree_nod@V?$_Tset_traits@V?$basic_string@DU?$char_traits@D@std@@V?$allocator@D@2@@std@@U?$less@V?$basic_string@DU?$char_traits@D@std@@V?$allocator@D@2@@std@@@2@V?$allocator@V?$basic_string@DU?$char_traits@D@std@@V?$allocator@D@2@@std@@@2@$0A@@std@@@2@PAU342@@Z 0040ba80 f i DatabaseServer.obj
 0001:0000aa90       ?_Kfn@?$_Tset_traits@V?$basic_string@DU?$char_traits@D@std@@V?$allocator@D@2@@std@@U?$less@V?$basic_string@DU?$char_traits@D@std@@V?$allocator@D@2@@std@@@2@V?$allocator@V?$basic_string@DU?$char_traits@D@std@@V?$allocator@D@2@@std@@@2@$0A@@std@@SAABV?$basic_string@DU?$char_traits@D@std@@V?$allocator@D@2@@2@ABV32@@Z 0040ba90 f i DatabaseServer.obj
 0001:0000aaa0       ??0?$pair@Viterator@?$_Tree@V?$_Tset_traits@V?$basic_string@DU?$char_traits@D@std@@V?$allocator@D@2@@std@@U?$less@V?$basic_string@DU?$char_traits@D@std@@V?$allocator@D@2@@std@@@2@V?$allocator@V?$basic_string@DU?$char_traits@D@std@@V?$allocator@D@2@@std@@@2@$0A@@std@@@std@@_N@std@@QAE@ABViterator@?$_Tree@V?$_Tset_traits@V?$basic_string@DU?$char_traits@D@std@@V?$allocator@D@2@@std@@U?$less@V?$basic_string@DU?$char_traits@D@std@@V?$allocator@D@2@@std@@@2@V?$allocator@V?$basic_string@DU?$char_traits@D@std@@V?$allocator@D@2@@std@@@2@$0A@@std@@@1@AB_N@Z 0040baa0 f i DatabaseServer.obj
 0001:0000aac0       ??8const_iterator@?$_Tree@V?$_Tset_traits@V?$basic_string@DU?$char_traits@D@std@@V?$allocator@D@2@@std@@U?$less@V?$basic_string@DU?$char_traits@D@std@@V?$allocator@D@2@@std@@@2@V?$allocator@V?$basic_string@DU?$char_traits@D@std@@V?$allocator@D@2@@std@@@2@$0A@@std@@@std@@QBE_NABV012@@Z 0040bac0 f i DatabaseServer.obj
 0001:0000aad0       ?_Mynode@const_iterator@?$_Tree@V?$_Tset_traits@V?$basic_string@DU?$char_traits@D@std@@V?$allocator@D@2@@std@@U?$less@V?$basic_string@DU?$char_traits@D@std@@V?$allocator@D@2@@std@@@2@V?$allocator@V?$basic_string@DU?$char_traits@D@std@@V?$allocator@D@2@@std@@@2@$0A@@std@@@std@@QBEPAU_Node@?$_Tree_nod@V?$_Tset_traits@V?$basic_string@DU?$char_traits@D@std@@V?$allocator@D@2@@std@@U?$less@V?$basic_string@DU?$char_traits@D@std@@V?$allocator@D@2@@std@@@2@V?$allocator@V?$basic_string@DU?$char_traits@D@std@@V?$allocator@D@2@@std@@@2@$0A@@std@@@3@XZ 0040bad0 f i DatabaseServer.obj
 0001:0000aae0       ?_Isnil@?$_Tree@V?$_Tmap_traits@EHU?$less@E@std@@V?$allocator@U?$pair@$$CBEH@std@@@2@$0A@@std@@@std@@KAAADPAU_Node@?$_Tree_nod@V?$_Tmap_traits@EHU?$less@E@std@@V?$allocator@U?$pair@$$CBEH@std@@@2@$0A@@std@@@2@@Z 0040bae0 f i DatabaseServer.obj
 0001:0000aaf0       ?_Left@?$_Tree@V?$_Tmap_traits@EHU?$less@E@std@@V?$allocator@U?$pair@$$CBEH@std@@@2@$0A@@std@@@std@@KAAAPAU_Node@?$_Tree_nod@V?$_Tmap_traits@EHU?$less@E@std@@V?$allocator@U?$pair@$$CBEH@std@@@2@$0A@@std@@@2@PAU342@@Z 0040baf0 f i DatabaseServer.obj
 0001:0000ab00       ?_Parent@?$_Tree@V?$_Tmap_traits@EHU?$less@E@std@@V?$allocator@U?$pair@$$CBEH@std@@@2@$0A@@std@@@std@@KAAAPAU_Node@?$_Tree_nod@V?$_Tmap_traits@EHU?$less@E@std@@V?$allocator@U?$pair@$$CBEH@std@@@2@$0A@@std@@@2@PAU342@@Z 0040bb00 f i DatabaseServer.obj
 0001:0000ab10       ?_Right@?$_Tree@V?$_Tmap_traits@EHU?$less@E@std@@V?$allocator@U?$pair@$$CBEH@std@@@2@$0A@@std@@@std@@KAAAPAU_Node@?$_Tree_nod@V?$_Tmap_traits@EHU?$less@E@std@@V?$allocator@U?$pair@$$CBEH@std@@@2@$0A@@std@@@2@PAU342@@Z 0040bb10 f i DatabaseServer.obj
 0001:0000ab20       ?size@?$_Tree@V?$_Tmap_traits@EHU?$less@E@std@@V?$allocator@U?$pair@$$CBEH@std@@@2@$0A@@std@@@std@@QBEIXZ 0040bb20 f i DatabaseServer.obj
 0001:0000ab30       ?_Lmost@?$_Tree@V?$_Tmap_traits@EHU?$less@E@std@@V?$allocator@U?$pair@$$CBEH@std@@@2@$0A@@std@@@std@@IAEAAPAU_Node@?$_Tree_nod@V?$_Tmap_traits@EHU?$less@E@std@@V?$allocator@U?$pair@$$CBEH@std@@@2@$0A@@std@@@2@XZ 0040bb30 f i DatabaseServer.obj
 0001:0000ab40       ?_Max@?$_Tree@V?$_Tmap_traits@EHU?$less@E@std@@V?$allocator@U?$pair@$$CBEH@std@@@2@$0A@@std@@@std@@KAPAU_Node@?$_Tree_nod@V?$_Tmap_traits@EHU?$less@E@std@@V?$allocator@U?$pair@$$CBEH@std@@@2@$0A@@std@@@2@PAU342@@Z 0040bb40 f i DatabaseServer.obj
 0001:0000ab60       ?_Min@?$_Tree@V?$_Tmap_traits@EHU?$less@E@std@@V?$allocator@U?$pair@$$CBEH@std@@@2@$0A@@std@@@std@@KAPAU_Node@?$_Tree_nod@V?$_Tmap_traits@EHU?$less@E@std@@V?$allocator@U?$pair@$$CBEH@std@@@2@$0A@@std@@@2@PAU342@@Z 0040bb60 f i DatabaseServer.obj
 0001:0000ab80       ?_Rmost@?$_Tree@V?$_Tmap_traits@EHU?$less@E@std@@V?$allocator@U?$pair@$$CBEH@std@@@2@$0A@@std@@@std@@IAEAAPAU_Node@?$_Tree_nod@V?$_Tmap_traits@EHU?$less@E@std@@V?$allocator@U?$pair@$$CBEH@std@@@2@$0A@@std@@@2@XZ 0040bb80 f i DatabaseServer.obj
 0001:0000ab90       ?_Root@?$_Tree@V?$_Tmap_traits@EHU?$less@E@std@@V?$allocator@U?$pair@$$CBEH@std@@@2@$0A@@std@@@std@@IAEAAPAU_Node@?$_Tree_nod@V?$_Tmap_traits@EHU?$less@E@std@@V?$allocator@U?$pair@$$CBEH@std@@@2@$0A@@std@@@2@XZ 0040bb90 f i DatabaseServer.obj
 0001:0000aba0       ?_Root@?$_Tree@V?$_Tmap_traits@EHU?$less@E@std@@V?$allocator@U?$pair@$$CBEH@std@@@2@$0A@@std@@@std@@IBEAAPAU_Node@?$_Tree_nod@V?$_Tmap_traits@EHU?$less@E@std@@V?$allocator@U?$pair@$$CBEH@std@@@2@$0A@@std@@@2@XZ 0040bba0 f i DatabaseServer.obj
 0001:0000abb0       ??0?$allocator@U?$pair@$$CBEH@std@@@std@@QAE@ABV01@@Z 0040bbb0 f i DatabaseServer.obj
 0001:0000abc0       ?deallocate@?$allocator@U_Node@?$_Tree_nod@V?$_Tmap_traits@EHU?$less@E@std@@V?$allocator@U?$pair@$$CBEH@std@@@2@$0A@@std@@@std@@@std@@QAEXPAU_Node@?$_Tree_nod@V?$_Tmap_traits@EHU?$less@E@std@@V?$allocator@U?$pair@$$CBEH@std@@@2@$0A@@std@@@2@I@Z 0040bbc0 f i DatabaseServer.obj
 0001:0000abd0       ?_Color@?$_Tree@V?$_Tset_traits@V?$basic_string@DU?$char_traits@D@std@@V?$allocator@D@2@@std@@U?$less@V?$basic_string@DU?$char_traits@D@std@@V?$allocator@D@2@@std@@@2@V?$allocator@V?$basic_string@DU?$char_traits@D@std@@V?$allocator@D@2@@std@@@2@$0A@@std@@@std@@KAAADPAU_Node@?$_Tree_nod@V?$_Tset_traits@V?$basic_string@DU?$char_traits@D@std@@V?$allocator@D@2@@std@@U?$less@V?$basic_string@DU?$char_traits@D@std@@V?$allocator@D@2@@std@@@2@V?$allocator@V?$basic_string@DU?$char_traits@D@std@@V?$allocator@D@2@@std@@@2@$0A@@std@@@2@@Z 0040bbd0 f i DatabaseServer.obj
 0001:0000abe0       ?_Parent@?$_Tree@V?$_Tset_traits@V?$basic_string@DU?$char_traits@D@std@@V?$allocator@D@2@@std@@U?$less@V?$basic_string@DU?$char_traits@D@std@@V?$allocator@D@2@@std@@@2@V?$allocator@V?$basic_string@DU?$char_traits@D@std@@V?$allocator@D@2@@std@@@2@$0A@@std@@@std@@KAAAPAU_Node@?$_Tree_nod@V?$_Tset_traits@V?$basic_string@DU?$char_traits@D@std@@V?$allocator@D@2@@std@@U?$less@V?$basic_string@DU?$char_traits@D@std@@V?$allocator@D@2@@std@@@2@V?$allocator@V?$basic_string@DU?$char_traits@D@std@@V?$allocator@D@2@@std@@@2@$0A@@std@@@2@PAU342@@Z 0040bbe0 f i DatabaseServer.obj
 0001:0000abf0       ?_Myval@?$_Tree@V?$_Tset_traits@V?$basic_string@DU?$char_traits@D@std@@V?$allocator@D@2@@std@@U?$less@V?$basic_string@DU?$char_traits@D@std@@V?$allocator@D@2@@std@@@2@V?$allocator@V?$basic_string@DU?$char_traits@D@std@@V?$allocator@D@2@@std@@@2@$0A@@std@@@std@@KAAAV?$basic_string@DU?$char_traits@D@std@@V?$allocator@D@2@@2@PAU_Node@?$_Tree_nod@V?$_Tset_traits@V?$basic_string@DU?$char_traits@D@std@@V?$allocator@D@2@@std@@U?$less@V?$basic_string@DU?$char_traits@D@std@@V?$allocator@D@2@@std@@@2@V?$allocator@V?$basic_string@DU?$char_traits@D@std@@V?$allocator@D@2@@std@@@2@$0A@@std@@@2@@Z 0040bbf0 f i DatabaseServer.obj
 0001:0000ac00       ?_Lmost@?$_Tree@V?$_Tset_traits@V?$basic_string@DU?$char_traits@D@std@@V?$allocator@D@2@@std@@U?$less@V?$basic_string@DU?$char_traits@D@std@@V?$allocator@D@2@@std@@@2@V?$allocator@V?$basic_string@DU?$char_traits@D@std@@V?$allocator@D@2@@std@@@2@$0A@@std@@@std@@IAEAAPAU_Node@?$_Tree_nod@V?$_Tset_traits@V?$basic_string@DU?$char_traits@D@std@@V?$allocator@D@2@@std@@U?$less@V?$basic_string@DU?$char_traits@D@std@@V?$allocator@D@2@@std@@@2@V?$allocator@V?$basic_string@DU?$char_traits@D@std@@V?$allocator@D@2@@std@@@2@$0A@@std@@@2@XZ 0040bc00 f i DatabaseServer.obj
 0001:0000ac10       ?_Rmost@?$_Tree@V?$_Tset_traits@V?$basic_string@DU?$char_traits@D@std@@V?$allocator@D@2@@std@@U?$less@V?$basic_string@DU?$char_traits@D@std@@V?$allocator@D@2@@std@@@2@V?$allocator@V?$basic_string@DU?$char_traits@D@std@@V?$allocator@D@2@@std@@@2@$0A@@std@@@std@@IAEAAPAU_Node@?$_Tree_nod@V?$_Tset_traits@V?$basic_string@DU?$char_traits@D@std@@V?$allocator@D@2@@std@@U?$less@V?$basic_string@DU?$char_traits@D@std@@V?$allocator@D@2@@std@@@2@V?$allocator@V?$basic_string@DU?$char_traits@D@std@@V?$allocator@D@2@@std@@@2@$0A@@std@@@2@XZ 0040bc10 f i DatabaseServer.obj
 0001:0000ac20       ??0const_iterator@?$_Tree@V?$_Tset_traits@V?$basic_string@DU?$char_traits@D@std@@V?$allocator@D@2@@std@@U?$less@V?$basic_string@DU?$char_traits@D@std@@V?$allocator@D@2@@std@@@2@V?$allocator@V?$basic_string@DU?$char_traits@D@std@@V?$allocator@D@2@@std@@@2@$0A@@std@@@std@@QAE@PAU_Node@?$_Tree_nod@V?$_Tset_traits@V?$basic_string@DU?$char_traits@D@std@@V?$allocator@D@2@@std@@U?$less@V?$basic_string@DU?$char_traits@D@std@@V?$allocator@D@2@@std@@@2@V?$allocator@V?$basic_string@DU?$char_traits@D@std@@V?$allocator@D@2@@std@@@2@$0A@@std@@@2@@Z 0040bc20 f i DatabaseServer.obj
 0001:0000ac30       ?max_size@?$allocator@V?$basic_string@DU?$char_traits@D@std@@V?$allocator@D@2@@std@@@std@@QBEIXZ 0040bc30 f i DatabaseServer.obj
 0001:0000ac40       ?_Color@?$_Tree@V?$_Tmap_traits@EHU?$less@E@std@@V?$allocator@U?$pair@$$CBEH@std@@@2@$0A@@std@@@std@@KAAADPAU_Node@?$_Tree_nod@V?$_Tmap_traits@EHU?$less@E@std@@V?$allocator@U?$pair@$$CBEH@std@@@2@$0A@@std@@@2@@Z 0040bc40 f i DatabaseServer.obj
 0001:0000ac50       ?_Myval@?$_Tree@V?$_Tmap_traits@EHU?$less@E@std@@V?$allocator@U?$pair@$$CBEH@std@@@2@$0A@@std@@@std@@KAAAU?$pair@$$CBEH@2@PAU_Node@?$_Tree_nod@V?$_Tmap_traits@EHU?$less@E@std@@V?$allocator@U?$pair@$$CBEH@std@@@2@$0A@@std@@@2@@Z 0040bc50 f i DatabaseServer.obj
 0001:0000ac60       ?deallocate@?$allocator@U_Node@?$_Tree_nod@V?$_Tset_traits@V?$basic_string@DU?$char_traits@D@std@@V?$allocator@D@2@@std@@U?$less@V?$basic_string@DU?$char_traits@D@std@@V?$allocator@D@2@@std@@@2@V?$allocator@V?$basic_string@DU?$char_traits@D@std@@V?$allocator@D@2@@std@@@2@$0A@@std@@@std@@@std@@QAEXPAU_Node@?$_Tree_nod@V?$_Tset_traits@V?$basic_string@DU?$char_traits@D@std@@V?$allocator@D@2@@std@@U?$less@V?$basic_string@DU?$char_traits@D@std@@V?$allocator@D@2@@std@@@2@V?$allocator@V?$basic_string@DU?$char_traits@D@std@@V?$allocator@D@2@@std@@@2@$0A@@std@@@2@I@Z 0040bc60 f i DatabaseServer.obj
 0001:0000ac70       ??8const_iterator@?$list@PAXV?$allocator@PAX@std@@@std@@QBE_NABV012@@Z 0040bc70 f i DatabaseServer.obj
 0001:0000ac80       ??8const_iterator@?$_Tree@V?$_Tmap_traits@EHU?$less@E@std@@V?$allocator@U?$pair@$$CBEH@std@@@2@$0A@@std@@@std@@QBE_NABV012@@Z 0040bc80 f i DatabaseServer.obj
 0001:0000ac90       ??9const_iterator@?$_Tree@V?$_Tmap_traits@EHU?$less@E@std@@V?$allocator@U?$pair@$$CBEH@std@@@2@$0A@@std@@@std@@QBE_NABV012@@Z 0040bc90 f i DatabaseServer.obj
 0001:0000acb0       ?_Lrotate@?$_Tree@V?$_Tmap_traits@EHU?$less@E@std@@V?$allocator@U?$pair@$$CBEH@std@@@2@$0A@@std@@@std@@IAEXPAU_Node@?$_Tree_nod@V?$_Tmap_traits@EHU?$less@E@std@@V?$allocator@U?$pair@$$CBEH@std@@@2@$0A@@std@@@2@@Z 0040bcb0 f i DatabaseServer.obj
 0001:0000ad10       ?_Rrotate@?$_Tree@V?$_Tmap_traits@EHU?$less@E@std@@V?$allocator@U?$pair@$$CBEH@std@@@2@$0A@@std@@@std@@IAEXPAU_Node@?$_Tree_nod@V?$_Tmap_traits@EHU?$less@E@std@@V?$allocator@U?$pair@$$CBEH@std@@@2@$0A@@std@@@2@@Z 0040bd10 f i DatabaseServer.obj
 0001:0000ad70       ??0?$_Tmap_traits@EHU?$less@E@std@@V?$allocator@U?$pair@$$CBEH@std@@@2@$0A@@std@@QAE@U?$less@E@1@@Z 0040bd70 f i DatabaseServer.obj
 0001:0000ad80       ?_Max@?$_Tree@V?$_Tset_traits@V?$basic_string@DU?$char_traits@D@std@@V?$allocator@D@2@@std@@U?$less@V?$basic_string@DU?$char_traits@D@std@@V?$allocator@D@2@@std@@@2@V?$allocator@V?$basic_string@DU?$char_traits@D@std@@V?$allocator@D@2@@std@@@2@$0A@@std@@@std@@KAPAU_Node@?$_Tree_nod@V?$_Tset_traits@V?$basic_string@DU?$char_traits@D@std@@V?$allocator@D@2@@std@@U?$less@V?$basic_string@DU?$char_traits@D@std@@V?$allocator@D@2@@std@@@2@V?$allocator@V?$basic_string@DU?$char_traits@D@std@@V?$allocator@D@2@@std@@@2@$0A@@std@@@2@PAU342@@Z 0040bd80 f i DatabaseServer.obj
 0001:0000ada0       ?_Myval@?$list@PAXV?$allocator@PAX@std@@@std@@KAAAPAXPAU_Node@?$_List_nod@PAXV?$allocator@PAX@std@@@2@@Z 0040bda0 f i DatabaseServer.obj
 0001:0000adb0       ??0const_iterator@?$_Tree@V?$_Tmap_traits@EHU?$less@E@std@@V?$allocator@U?$pair@$$CBEH@std@@@2@$0A@@std@@@std@@QAE@PAU_Node@?$_Tree_nod@V?$_Tmap_traits@EHU?$less@E@std@@V?$allocator@U?$pair@$$CBEH@std@@@2@$0A@@std@@@2@@Z 0040bdb0 f i DatabaseServer.obj
 0001:0000adc0       ?_Mynode@const_iterator@?$_Tree@V?$_Tmap_traits@EHU?$less@E@std@@V?$allocator@U?$pair@$$CBEH@std@@@2@$0A@@std@@@std@@QBEPAU_Node@?$_Tree_nod@V?$_Tmap_traits@EHU?$less@E@std@@V?$allocator@U?$pair@$$CBEH@std@@@2@$0A@@std@@@3@XZ 0040bdc0 f i DatabaseServer.obj
 0001:0000add0       ??0_Node@?$_Tree_nod@V?$_Tmap_traits@EHU?$less@E@std@@V?$allocator@U?$pair@$$CBEH@std@@@2@$0A@@std@@@std@@QAE@PAU012@00ABU?$pair@$$CBEH@2@D@Z 0040bdd0 f i DatabaseServer.obj
 0001:0000ae10       ?_Inc@const_iterator@?$_Tree@V?$_Tmap_traits@EHU?$less@E@std@@V?$allocator@U?$pair@$$CBEH@std@@@2@$0A@@std@@@std@@QAEXXZ 0040be10 f i DatabaseServer.obj
 0001:0000ae70       ??$?0U?$pair@$$CBEH@std@@@?$allocator@PAU_Node@?$_Tree_nod@V?$_Tmap_traits@EHU?$less@E@std@@V?$allocator@U?$pair@$$CBEH@std@@@2@$0A@@std@@@std@@@std@@QAE@ABV?$allocator@U?$pair@$$CBEH@std@@@1@@Z 0040be70 f i DatabaseServer.obj
 0001:0000ae80       ??$_Destroy@PAU_Node@?$_Tree_nod@V?$_Tmap_traits@EHU?$less@E@std@@V?$allocator@U?$pair@$$CBEH@std@@@2@$0A@@std@@@std@@@std@@YAXPAPAU_Node@?$_Tree_nod@V?$_Tmap_traits@EHU?$less@E@std@@V?$allocator@U?$pair@$$CBEH@std@@@2@$0A@@std@@@0@@Z 0040be80 f i DatabaseServer.obj
 0001:0000ae90       ??$?0U?$pair@$$CBEH@std@@@?$allocator@U_Node@?$_Tree_nod@V?$_Tmap_traits@EHU?$less@E@std@@V?$allocator@U?$pair@$$CBEH@std@@@2@$0A@@std@@@std@@@std@@QAE@ABV?$allocator@U?$pair@$$CBEH@std@@@1@@Z 0040be90 f i DatabaseServer.obj
 0001:0000aea0       ??$_Allocate@U_Node@?$_Tree_nod@V?$_Tmap_traits@EHU?$less@E@std@@V?$allocator@U?$pair@$$CBEH@std@@@2@$0A@@std@@@std@@@std@@YAPAU_Node@?$_Tree_nod@V?$_Tmap_traits@EHU?$less@E@std@@V?$allocator@U?$pair@$$CBEH@std@@@2@$0A@@std@@@0@IPAU120@@Z 0040bea0 f i DatabaseServer.obj
 0001:0000aec0       ??$_Construct@PAU_Node@?$_Tree_nod@V?$_Tmap_traits@EHU?$less@E@std@@V?$allocator@U?$pair@$$CBEH@std@@@2@$0A@@std@@@std@@PAU123@@std@@YAXPAPAU_Node@?$_Tree_nod@V?$_Tmap_traits@EHU?$less@E@std@@V?$allocator@U?$pair@$$CBEH@std@@@2@$0A@@std@@@0@ABQAU120@@Z 0040bec0 f i DatabaseServer.obj
 0001:0000aee0       ??$_Allocate@U_Node@?$_Tree_nod@V?$_Tset_traits@V?$basic_string@DU?$char_traits@D@std@@V?$allocator@D@2@@std@@U?$less@V?$basic_string@DU?$char_traits@D@std@@V?$allocator@D@2@@std@@@2@V?$allocator@V?$basic_string@DU?$char_traits@D@std@@V?$allocator@D@2@@std@@@2@$0A@@std@@@std@@@std@@YAPAU_Node@?$_Tree_nod@V?$_Tset_traits@V?$basic_string@DU?$char_traits@D@std@@V?$allocator@D@2@@std@@U?$less@V?$basic_string@DU?$char_traits@D@std@@V?$allocator@D@2@@std@@@2@V?$allocator@V?$basic_string@DU?$char_traits@D@std@@V?$allocator@D@2@@std@@@2@$0A@@std@@@0@IPAU120@@Z 0040bee0 f i DatabaseServer.obj
 0001:0000af00       ??$_Destroy@U_Node@?$_List_nod@PAXV?$allocator@PAX@std@@@std@@@std@@YAXPAU_Node@?$_List_nod@PAXV?$allocator@PAX@std@@@0@@Z 0040bf00 f i DatabaseServer.obj
 0001:0000af10       ??$_Destroy@PAU_Node@?$_List_nod@PAXV?$allocator@PAX@std@@@std@@@std@@YAXPAPAU_Node@?$_List_nod@PAXV?$allocator@PAX@std@@@0@@Z 0040bf10 f i DatabaseServer.obj
 0001:0000af20       ??$_Destroy@U_Node@?$_Tree_nod@V?$_Tmap_traits@EHU?$less@E@std@@V?$allocator@U?$pair@$$CBEH@std@@@2@$0A@@std@@@std@@@std@@YAXPAU_Node@?$_Tree_nod@V?$_Tmap_traits@EHU?$less@E@std@@V?$allocator@U?$pair@$$CBEH@std@@@2@$0A@@std@@@0@@Z 0040bf20 f i DatabaseServer.obj
 0001:0000af30       ?NotifyProcessStart@@YAXK@Z 0040bf30 f i DatabaseServer.obj
 0001:0000af60       ??6CAr@@QAEAAV0@J@Z        0040bf60 f i DatabaseServer.obj
 0001:0000af80       ?StartServer@CDPMng@@QAEHGHW4BUFFER_TYPE@@@Z 0040bf80 f i DatabaseServer.obj
 0001:0000afd0       ?ConnectToServer@CDPMng@@QAEHPBDGHW4BUFFER_TYPE@@@Z 0040bfd0 f i DatabaseServer.obj
 0001:0000b020       ?_Nextnode@?$list@PAXV?$allocator@PAX@std@@@std@@KAAAPAU_Node@?$_List_nod@PAXV?$allocator@PAX@std@@@2@PAU342@@Z 0040c020 f i DatabaseServer.obj
 0001:0000b030       ?_Prevnode@?$list@PAXV?$allocator@PAX@std@@@std@@KAAAPAU_Node@?$_List_nod@PAXV?$allocator@PAX@std@@@2@PAU342@@Z 0040c030 f i DatabaseServer.obj
 0001:0000b040       ?deallocate@?$allocator@U_Node@?$_List_nod@PAXV?$allocator@PAX@std@@@std@@@std@@QAEXPAU_Node@?$_List_nod@PAXV?$allocator@PAX@std@@@2@I@Z 0040c040 f i DatabaseServer.obj
 0001:0000b050       ??0const_iterator@?$list@PAXV?$allocator@PAX@std@@@std@@QAE@PAU_Node@?$_List_nod@PAXV?$allocator@PAX@std@@@2@@Z 0040c050 f i DatabaseServer.obj
 0001:0000b060       ?GetTickCount@CTime@ATL@@SG?AV12@XZ 0040c060 f i DatabaseServer.obj
 0001:0000b080       ?get_allocator@?$_Tree@V?$_Tmap_traits@EHU?$less@E@std@@V?$allocator@U?$pair@$$CBEH@std@@@2@$0A@@std@@@std@@QBE?AV?$allocator@U?$pair@$$CBEH@std@@@2@XZ 0040c080 f i DatabaseServer.obj
 0001:0000b090       ?_Key@?$_Tree@V?$_Tset_traits@V?$basic_string@DU?$char_traits@D@std@@V?$allocator@D@2@@std@@U?$less@V?$basic_string@DU?$char_traits@D@std@@V?$allocator@D@2@@std@@@2@V?$allocator@V?$basic_string@DU?$char_traits@D@std@@V?$allocator@D@2@@std@@@2@$0A@@std@@@std@@KAABV?$basic_string@DU?$char_traits@D@std@@V?$allocator@D@2@@2@PAU_Node@?$_Tree_nod@V?$_Tset_traits@V?$basic_string@DU?$char_traits@D@std@@V?$allocator@D@2@@std@@U?$less@V?$basic_string@DU?$char_traits@D@std@@V?$allocator@D@2@@std@@@2@V?$allocator@V?$basic_string@DU?$char_traits@D@std@@V?$allocator@D@2@@std@@@2@$0A@@std@@@2@@Z 0040c090 f i DatabaseServer.obj
 0001:0000b0a0       ?_Root@?$_Tree@V?$_Tset_traits@V?$basic_string@DU?$char_traits@D@std@@V?$allocator@D@2@@std@@U?$less@V?$basic_string@DU?$char_traits@D@std@@V?$allocator@D@2@@std@@@2@V?$allocator@V?$basic_string@DU?$char_traits@D@std@@V?$allocator@D@2@@std@@@2@$0A@@std@@@std@@IAEAAPAU_Node@?$_Tree_nod@V?$_Tset_traits@V?$basic_string@DU?$char_traits@D@std@@V?$allocator@D@2@@std@@U?$less@V?$basic_string@DU?$char_traits@D@std@@V?$allocator@D@2@@std@@@2@V?$allocator@V?$basic_string@DU?$char_traits@D@std@@V?$allocator@D@2@@std@@@2@$0A@@std@@@2@XZ 0040c0a0 f i DatabaseServer.obj
 0001:0000b0b0       ??0iterator@?$_Tree@V?$_Tset_traits@V?$basic_string@DU?$char_traits@D@std@@V?$allocator@D@2@@std@@U?$less@V?$basic_string@DU?$char_traits@D@std@@V?$allocator@D@2@@std@@@2@V?$allocator@V?$basic_string@DU?$char_traits@D@std@@V?$allocator@D@2@@std@@@2@$0A@@std@@@std@@QAE@PAU_Node@?$_Tree_nod@V?$_Tset_traits@V?$basic_string@DU?$char_traits@D@std@@V?$allocator@D@2@@std@@U?$less@V?$basic_string@DU?$char_traits@D@std@@V?$allocator@D@2@@std@@@2@V?$allocator@V?$basic_string@DU?$char_traits@D@std@@V?$allocator@D@2@@std@@@2@$0A@@std@@@2@@Z 0040c0b0 f i DatabaseServer.obj
 0001:0000b0c0       ?destroy@?$allocator@PAU_Node@?$_Tree_nod@V?$_Tmap_traits@EHU?$less@E@std@@V?$allocator@U?$pair@$$CBEH@std@@@2@$0A@@std@@@std@@@std@@QAEXPAPAU_Node@?$_Tree_nod@V?$_Tmap_traits@EHU?$less@E@std@@V?$allocator@U?$pair@$$CBEH@std@@@2@$0A@@std@@@2@@Z 0040c0c0 f i DatabaseServer.obj
 0001:0000b0d0       ?max_size@?$_Tree@V?$_Tset_traits@V?$basic_string@DU?$char_traits@D@std@@V?$allocator@D@2@@std@@U?$less@V?$basic_string@DU?$char_traits@D@std@@V?$allocator@D@2@@std@@@2@V?$allocator@V?$basic_string@DU?$char_traits@D@std@@V?$allocator@D@2@@std@@@2@$0A@@std@@@std@@QBEIXZ 0040c0d0 f i DatabaseServer.obj
 0001:0000b0e0       ?_Lrotate@?$_Tree@V?$_Tset_traits@V?$basic_string@DU?$char_traits@D@std@@V?$allocator@D@2@@std@@U?$less@V?$basic_string@DU?$char_traits@D@std@@V?$allocator@D@2@@std@@@2@V?$allocator@V?$basic_string@DU?$char_traits@D@std@@V?$allocator@D@2@@std@@@2@$0A@@std@@@std@@IAEXPAU_Node@?$_Tree_nod@V?$_Tset_traits@V?$basic_string@DU?$char_traits@D@std@@V?$allocator@D@2@@std@@U?$less@V?$basic_string@DU?$char_traits@D@std@@V?$allocator@D@2@@std@@@2@V?$allocator@V?$basic_string@DU?$char_traits@D@std@@V?$allocator@D@2@@std@@@2@$0A@@std@@@2@@Z 0040c0e0 f i DatabaseServer.obj
 0001:0000b140       ?_Rrotate@?$_Tree@V?$_Tset_traits@V?$basic_string@DU?$char_traits@D@std@@V?$allocator@D@2@@std@@U?$less@V?$basic_string@DU?$char_traits@D@std@@V?$allocator@D@2@@std@@@2@V?$allocator@V?$basic_string@DU?$char_traits@D@std@@V?$allocator@D@2@@std@@@2@$0A@@std@@@std@@IAEXPAU_Node@?$_Tree_nod@V?$_Tset_traits@V?$basic_string@DU?$char_traits@D@std@@V?$allocator@D@2@@std@@U?$less@V?$basic_string@DU?$char_traits@D@std@@V?$allocator@D@2@@std@@@2@V?$allocator@V?$basic_string@DU?$char_traits@D@std@@V?$allocator@D@2@@std@@@2@$0A@@std@@@2@@Z 0040c140 f i DatabaseServer.obj
 0001:0000b1a0       ??9const_iterator@?$list@PAXV?$allocator@PAX@std@@@std@@QBE_NABV012@@Z 0040c1a0 f i DatabaseServer.obj
 0001:0000b1c0       ??0?$_Tree_nod@V?$_Tmap_traits@EHU?$less@E@std@@V?$allocator@U?$pair@$$CBEH@std@@@2@$0A@@std@@@std@@IAE@ABU?$less@E@1@V?$allocator@U?$pair@$$CBEH@std@@@1@@Z 0040c1c0 f i DatabaseServer.obj
 0001:0000b1d0       ?allocate@?$allocator@U_Node@?$_Tree_nod@V?$_Tmap_traits@EHU?$less@E@std@@V?$allocator@U?$pair@$$CBEH@std@@@2@$0A@@std@@@std@@@std@@QAEPAU_Node@?$_Tree_nod@V?$_Tmap_traits@EHU?$less@E@std@@V?$allocator@U?$pair@$$CBEH@std@@@2@$0A@@std@@@2@I@Z 0040c1d0 f i DatabaseServer.obj
 0001:0000b1f0       ?construct@?$allocator@PAU_Node@?$_Tree_nod@V?$_Tmap_traits@EHU?$less@E@std@@V?$allocator@U?$pair@$$CBEH@std@@@2@$0A@@std@@@std@@@std@@QAEXPAPAU_Node@?$_Tree_nod@V?$_Tmap_traits@EHU?$less@E@std@@V?$allocator@U?$pair@$$CBEH@std@@@2@$0A@@std@@@2@ABQAU342@@Z 0040c1f0 f i DatabaseServer.obj
 0001:0000b210       ?allocate@?$allocator@U_Node@?$_Tree_nod@V?$_Tset_traits@V?$basic_string@DU?$char_traits@D@std@@V?$allocator@D@2@@std@@U?$less@V?$basic_string@DU?$char_traits@D@std@@V?$allocator@D@2@@std@@@2@V?$allocator@V?$basic_string@DU?$char_traits@D@std@@V?$allocator@D@2@@std@@@2@$0A@@std@@@std@@@std@@QAEPAU_Node@?$_Tree_nod@V?$_Tset_traits@V?$basic_string@DU?$char_traits@D@std@@V?$allocator@D@2@@std@@U?$less@V?$basic_string@DU?$char_traits@D@std@@V?$allocator@D@2@@std@@@2@V?$allocator@V?$basic_string@DU?$char_traits@D@std@@V?$allocator@D@2@@std@@@2@$0A@@std@@@2@I@Z 0040c210 f i DatabaseServer.obj
 0001:0000b230       ?destroy@?$allocator@U_Node@?$_List_nod@PAXV?$allocator@PAX@std@@@std@@@std@@QAEXPAU_Node@?$_List_nod@PAXV?$allocator@PAX@std@@@2@@Z 0040c230 f i DatabaseServer.obj
 0001:0000b240       ?destroy@?$allocator@PAU_Node@?$_List_nod@PAXV?$allocator@PAX@std@@@std@@@std@@QAEXPAPAU_Node@?$_List_nod@PAXV?$allocator@PAX@std@@@2@@Z 0040c240 f i DatabaseServer.obj
 0001:0000b250       ??Dconst_iterator@?$list@PAXV?$allocator@PAX@std@@@std@@QBEABQAXXZ 0040c250 f i DatabaseServer.obj
 0001:0000b260       ??Econst_iterator@?$list@PAXV?$allocator@PAX@std@@@std@@QAEAAV012@XZ 0040c260 f i DatabaseServer.obj
 0001:0000b270       ?_Dec@const_iterator@?$_Tree@V?$_Tset_traits@V?$basic_string@DU?$char_traits@D@std@@V?$allocator@D@2@@std@@U?$less@V?$basic_string@DU?$char_traits@D@std@@V?$allocator@D@2@@std@@@2@V?$allocator@V?$basic_string@DU?$char_traits@D@std@@V?$allocator@D@2@@std@@@2@$0A@@std@@@std@@QAEXXZ 0040c270 f i DatabaseServer.obj
 0001:0000b2d0       ??0iterator@?$_Tree@V?$_Tmap_traits@EHU?$less@E@std@@V?$allocator@U?$pair@$$CBEH@std@@@2@$0A@@std@@@std@@QAE@PAU_Node@?$_Tree_nod@V?$_Tmap_traits@EHU?$less@E@std@@V?$allocator@U?$pair@$$CBEH@std@@@2@$0A@@std@@@2@@Z 0040c2d0 f i DatabaseServer.obj
 0001:0000b2e0       ?destroy@?$allocator@U_Node@?$_Tree_nod@V?$_Tmap_traits@EHU?$less@E@std@@V?$allocator@U?$pair@$$CBEH@std@@@2@$0A@@std@@@std@@@std@@QAEXPAU_Node@?$_Tree_nod@V?$_Tmap_traits@EHU?$less@E@std@@V?$allocator@U?$pair@$$CBEH@std@@@2@$0A@@std@@@2@@Z 0040c2e0 f i DatabaseServer.obj
 0001:0000b2f0       ??Econst_iterator@?$_Tree@V?$_Tmap_traits@EHU?$less@E@std@@V?$allocator@U?$pair@$$CBEH@std@@@2@$0A@@std@@@std@@QAEAAV012@XZ 0040c2f0 f i DatabaseServer.obj
 0001:0000b300       ??6CAr@@QAEAAV0@H@Z        0040c300 f i DatabaseServer.obj
 0001:0000b320       ??0iterator@?$list@PAXV?$allocator@PAX@std@@@std@@QAE@PAU_Node@?$_List_nod@PAXV?$allocator@PAX@std@@@2@@Z 0040c320 f i DatabaseServer.obj
 0001:0000b330       ?begin@?$_Tree@V?$_Tset_traits@V?$basic_string@DU?$char_traits@D@std@@V?$allocator@D@2@@std@@U?$less@V?$basic_string@DU?$char_traits@D@std@@V?$allocator@D@2@@std@@@2@V?$allocator@V?$basic_string@DU?$char_traits@D@std@@V?$allocator@D@2@@std@@@2@$0A@@std@@@std@@QAE?AViterator@12@XZ 0040c330 f i DatabaseServer.obj
 0001:0000b340       ?begin@?$_Tree@V?$_Tmap_traits@EHU?$less@E@std@@V?$allocator@U?$pair@$$CBEH@std@@@2@$0A@@std@@@std@@QAE?AViterator@12@XZ 0040c340 f i DatabaseServer.obj
 0001:0000b350       ?end@?$_Tree@V?$_Tmap_traits@EHU?$less@E@std@@V?$allocator@U?$pair@$$CBEH@std@@@2@$0A@@std@@@std@@QAE?AViterator@12@XZ 0040c350 f i DatabaseServer.obj
 0001:0000b360       ?_Buynode@?$_Tree@V?$_Tmap_traits@EHU?$less@E@std@@V?$allocator@U?$pair@$$CBEH@std@@@2@$0A@@std@@@std@@IAEPAU_Node@?$_Tree_nod@V?$_Tmap_traits@EHU?$less@E@std@@V?$allocator@U?$pair@$$CBEH@std@@@2@$0A@@std@@@2@XZ 0040c360 f i DatabaseServer.obj
 0001:0000b3a0       ??0?$_Tree_ptr@V?$_Tmap_traits@EHU?$less@E@std@@V?$allocator@U?$pair@$$CBEH@std@@@2@$0A@@std@@@std@@IAE@ABU?$less@E@1@V?$allocator@U?$pair@$$CBEH@std@@@1@@Z 0040c3a0 f i DatabaseServer.obj
 0001:0000b3b0       ?begin@?$list@PAXV?$allocator@PAX@std@@@std@@QAE?AViterator@12@XZ 0040c3b0 f i DatabaseServer.obj
 0001:0000b3c0       ?clear@?$list@PAXV?$allocator@PAX@std@@@std@@QAEXXZ 0040c3c0 f i DatabaseServer.obj
 0001:0000b400       ?_Tidy@?$list@PAXV?$allocator@PAX@std@@@std@@IAEXXZ 0040c400 f i DatabaseServer.obj
 0001:0000b420       ??Diterator@?$list@PAXV?$allocator@PAX@std@@@std@@QBEAAPAXXZ 0040c420 f i DatabaseServer.obj
 0001:0000b430       ??Eiterator@?$list@PAXV?$allocator@PAX@std@@@std@@QAEAAV012@XZ 0040c430 f i DatabaseServer.obj
 0001:0000b440       ??Fconst_iterator@?$_Tree@V?$_Tset_traits@V?$basic_string@DU?$char_traits@D@std@@V?$allocator@D@2@@std@@U?$less@V?$basic_string@DU?$char_traits@D@std@@V?$allocator@D@2@@std@@@2@V?$allocator@V?$basic_string@DU?$char_traits@D@std@@V?$allocator@D@2@@std@@@2@$0A@@std@@@std@@QAEAAV012@XZ 0040c440 f i DatabaseServer.obj
 0001:0000b450       ?_Erase@?$_Tree@V?$_Tmap_traits@EHU?$less@E@std@@V?$allocator@U?$pair@$$CBEH@std@@@2@$0A@@std@@@std@@IAEXPAU_Node@?$_Tree_nod@V?$_Tmap_traits@EHU?$less@E@std@@V?$allocator@U?$pair@$$CBEH@std@@@2@$0A@@std@@@2@@Z 0040c450 f i DatabaseServer.obj
 0001:0000b490       ?_Buynode@?$_Tree@V?$_Tmap_traits@EHU?$less@E@std@@V?$allocator@U?$pair@$$CBEH@std@@@2@$0A@@std@@@std@@IAEPAU_Node@?$_Tree_nod@V?$_Tmap_traits@EHU?$less@E@std@@V?$allocator@U?$pair@$$CBEH@std@@@2@$0A@@std@@@2@PAU342@00ABU?$pair@$$CBEH@2@D@Z 0040c490 f i DatabaseServer.obj
 0001:0000b4d0       ??Eiterator@?$_Tree@V?$_Tmap_traits@EHU?$less@E@std@@V?$allocator@U?$pair@$$CBEH@std@@@2@$0A@@std@@@std@@QAEAAV012@XZ 0040c4d0 f i DatabaseServer.obj
 0001:0000b4e0       ?end@?$list@PAXV?$allocator@PAX@std@@@std@@QAE?AViterator@12@XZ 0040c4e0 f i DatabaseServer.obj
 0001:0000b4f0       ?Script@@YAHPBD@Z          0040c4f0 f   DatabaseServer.obj
 0001:0000bcd0       ?_Init@?$_Tree@V?$_Tmap_traits@EHU?$less@E@std@@V?$allocator@U?$pair@$$CBEH@std@@@2@$0A@@std@@@std@@IAEXXZ 0040ccd0 f i DatabaseServer.obj
 0001:0000bd00       ??0?$_Tree_val@V?$_Tmap_traits@EHU?$less@E@std@@V?$allocator@U?$pair@$$CBEH@std@@@2@$0A@@std@@@std@@IAE@ABU?$less@E@1@V?$allocator@U?$pair@$$CBEH@std@@@1@@Z 0040cd00 f i DatabaseServer.obj
 0001:0000bd10       ??1?$list@PAXV?$allocator@PAX@std@@@std@@QAE@XZ 0040cd10 f i DatabaseServer.obj
 0001:0000bd30       ?Destroy@?$MemPooler@VCMover@@@@IAEXXZ 0040cd30 f i DatabaseServer.obj
 0001:0000bda0       ?Destroy@?$MemPooler@VCGuildMember@@@@IAEXXZ 0040cda0 f i DatabaseServer.obj
 0001:0000be10       ?Destroy@?$MemPooler@VCGuild@@@@IAEXXZ 0040ce10 f i DatabaseServer.obj
 0001:0000be80       ??Fiterator@?$_Tree@V?$_Tset_traits@V?$basic_string@DU?$char_traits@D@std@@V?$allocator@D@2@@std@@U?$less@V?$basic_string@DU?$char_traits@D@std@@V?$allocator@D@2@@std@@@2@V?$allocator@V?$basic_string@DU?$char_traits@D@std@@V?$allocator@D@2@@std@@@2@$0A@@std@@@std@@QAEAAV012@XZ 0040ce80 f i DatabaseServer.obj
 0001:0000be90       ?_Copy@?$_Tree@V?$_Tmap_traits@EHU?$less@E@std@@V?$allocator@U?$pair@$$CBEH@std@@@2@$0A@@std@@@std@@IAEPAU_Node@?$_Tree_nod@V?$_Tmap_traits@EHU?$less@E@std@@V?$allocator@U?$pair@$$CBEH@std@@@2@$0A@@std@@@2@PAU342@0@Z 0040ce90 f i DatabaseServer.obj
 0001:0000bf40       ?clear@?$_Tree@V?$_Tmap_traits@EHU?$less@E@std@@V?$allocator@U?$pair@$$CBEH@std@@@2@$0A@@std@@@std@@QAEXXZ 0040cf40 f i DatabaseServer.obj
 0001:0000bf70       ??Eiterator@?$_Tree@V?$_Tmap_traits@EHU?$less@E@std@@V?$allocator@U?$pair@$$CBEH@std@@@2@$0A@@std@@@std@@QAE?AV012@H@Z 0040cf70 f i DatabaseServer.obj
 0001:0000bf90       ??1?$MemPooler@VCMover@@@@QAE@XZ 0040cf90 f i DatabaseServer.obj
 0001:0000bfc0       ??1?$MemPooler@VCGuildMember@@@@QAE@XZ 0040cfc0 f i DatabaseServer.obj
 0001:0000bff0       ??1?$MemPooler@VCGuild@@@@QAE@XZ 0040cff0 f i DatabaseServer.obj
 0001:0000c020       ?_Copy@?$_Tree@V?$_Tmap_traits@EHU?$less@E@std@@V?$allocator@U?$pair@$$CBEH@std@@@2@$0A@@std@@@std@@IAEXABV12@@Z 0040d020 f i DatabaseServer.obj
 0001:0000c0b0       ??_G?$MemPooler@VCGuildMember@@@@QAEPAXI@Z 0040d0b0 f i DatabaseServer.obj
 0001:0000c0d0       ??_G?$MemPooler@VCGuild@@@@QAEPAXI@Z 0040d0d0 f i DatabaseServer.obj
 0001:0000c0f0       ??_G?$MemPooler@VCMover@@@@QAEPAXI@Z 0040d0f0 f i DatabaseServer.obj
 0001:0000c110       ?ExitInstance@@YAXXZ       0040d110 f   DatabaseServer.obj
 0001:0000c1e0       ??0_Node@?$_Tree_nod@V?$_Tset_traits@V?$basic_string@DU?$char_traits@D@std@@V?$allocator@D@2@@std@@U?$less@V?$basic_string@DU?$char_traits@D@std@@V?$allocator@D@2@@std@@@2@V?$allocator@V?$basic_string@DU?$char_traits@D@std@@V?$allocator@D@2@@std@@@2@$0A@@std@@@std@@QAE@PAU012@00ABV?$basic_string@DU?$char_traits@D@std@@V?$allocator@D@2@@2@D@Z 0040d1e0 f i DatabaseServer.obj
 0001:0000c230       ?_Buynode@?$_Tree@V?$_Tset_traits@V?$basic_string@DU?$char_traits@D@std@@V?$allocator@D@2@@std@@U?$less@V?$basic_string@DU?$char_traits@D@std@@V?$allocator@D@2@@std@@@2@V?$allocator@V?$basic_string@DU?$char_traits@D@std@@V?$allocator@D@2@@std@@@2@$0A@@std@@@std@@IAEPAU_Node@?$_Tree_nod@V?$_Tset_traits@V?$basic_string@DU?$char_traits@D@std@@V?$allocator@D@2@@std@@U?$less@V?$basic_string@DU?$char_traits@D@std@@V?$allocator@D@2@@std@@@2@V?$allocator@V?$basic_string@DU?$char_traits@D@std@@V?$allocator@D@2@@std@@@2@$0A@@std@@@2@PAU342@00ABV?$basic_string@DU?$char_traits@D@std@@V?$allocator@D@2@@2@D@Z 0040d230 f i DatabaseServer.obj
 0001:0000c2e0       ?erase@?$_Tree@V?$_Tmap_traits@EHU?$less@E@std@@V?$allocator@U?$pair@$$CBEH@std@@@2@$0A@@std@@@std@@QAE?AViterator@12@V312@@Z 0040d2e0 f i DatabaseServer.obj
 0001:0000c5a0       ?Format@CTime@ATL@@QBE?AV?$CStringT@DV?$StrTraitMFC@DV?$ChTraitsCRT@D@ATL@@@@@2@PBD@Z 0040d5a0 f i DatabaseServer.obj
 0001:0000c630       ?_Insert@?$_Tree@V?$_Tset_traits@V?$basic_string@DU?$char_traits@D@std@@V?$allocator@D@2@@std@@U?$less@V?$basic_string@DU?$char_traits@D@std@@V?$allocator@D@2@@std@@@2@V?$allocator@V?$basic_string@DU?$char_traits@D@std@@V?$allocator@D@2@@std@@@2@$0A@@std@@@std@@IAE?AViterator@12@_NPAU_Node@?$_Tree_nod@V?$_Tset_traits@V?$basic_string@DU?$char_traits@D@std@@V?$allocator@D@2@@std@@U?$less@V?$basic_string@DU?$char_traits@D@std@@V?$allocator@D@2@@std@@@2@V?$allocator@V?$basic_string@DU?$char_traits@D@std@@V?$allocator@D@2@@std@@@2@$0A@@std@@@2@ABV?$basic_string@DU?$char_traits@D@std@@V?$allocator@D@2@@2@@Z 0040d630 f i DatabaseServer.obj
 0001:0000c7e0       ?erase@?$_Tree@V?$_Tmap_traits@EHU?$less@E@std@@V?$allocator@U?$pair@$$CBEH@std@@@2@$0A@@std@@@std@@QAE?AViterator@12@V312@0@Z 0040d7e0 f i DatabaseServer.obj
 0001:0000c8a0       ?insert@?$_Tree@V?$_Tset_traits@V?$basic_string@DU?$char_traits@D@std@@V?$allocator@D@2@@std@@U?$less@V?$basic_string@DU?$char_traits@D@std@@V?$allocator@D@2@@std@@@2@V?$allocator@V?$basic_string@DU?$char_traits@D@std@@V?$allocator@D@2@@std@@@2@$0A@@std@@@std@@QAE?AU?$pair@Viterator@?$_Tree@V?$_Tset_traits@V?$basic_string@DU?$char_traits@D@std@@V?$allocator@D@2@@std@@U?$less@V?$basic_string@DU?$char_traits@D@std@@V?$allocator@D@2@@std@@@2@V?$allocator@V?$basic_string@DU?$char_traits@D@std@@V?$allocator@D@2@@std@@@2@$0A@@std@@@std@@_N@2@ABV?$basic_string@DU?$char_traits@D@std@@V?$allocator@D@2@@2@@Z 0040d8a0 f i DatabaseServer.obj
 0001:0000ca20       ?_Tidy@?$_Tree@V?$_Tmap_traits@EHU?$less@E@std@@V?$allocator@U?$pair@$$CBEH@std@@@2@$0A@@std@@@std@@IAEXXZ 0040da20 f i DatabaseServer.obj
 0001:0000ca50       ?LoadRemoveItem@@YAHPBD@Z  0040da50 f   DatabaseServer.obj
 0001:0000cbb0       ??0?$_Tree@V?$_Tmap_traits@EHU?$less@E@std@@V?$allocator@U?$pair@$$CBEH@std@@@2@$0A@@std@@@std@@QAE@ABV01@@Z 0040dbb0 f i DatabaseServer.obj
 0001:0000cc40       ??1?$_Tree@V?$_Tmap_traits@EHU?$less@E@std@@V?$allocator@U?$pair@$$CBEH@std@@@2@$0A@@std@@@std@@QAE@XZ 0040dc40 f i DatabaseServer.obj
 0001:0000cc70       ?InitInstance@@YAHPAUHINSTANCE__@@H@Z 0040dc70 f   DatabaseServer.obj
 0001:0000cff0       ??0?$map@EHU?$less@E@std@@V?$allocator@U?$pair@$$CBEH@std@@@2@@std@@QAE@ABV01@@Z 0040dff0 f i DatabaseServer.obj
 0001:0000d010       ??1?$map@EHU?$less@E@std@@V?$allocator@U?$pair@$$CBEH@std@@@2@@std@@QAE@XZ 0040e010 f i DatabaseServer.obj
 0001:0000d040       ?WndProc@@YGJPAUHWND__@@IIJ@Z 0040e040 f   DatabaseServer.obj
 0001:0000d460       ?MyRegisterClass@@YAGPAUHINSTANCE__@@@Z 0040e460 f   DatabaseServer.obj
 0001:0000d4f0       _WinMain@16                0040e4f0 f   DatabaseServer.obj
 0001:0000d5b0       ?SetQueryObject@CDbController@@QAEXPAVCQuery@@@Z 0040e5b0 f i dbcontroller.obj
 0001:0000d5c0       ?GetTimer@CDbController@@QAEKXZ 0040e5c0 f i dbcontroller.obj
 0001:0000d5d0       ??0CDbController@@QAE@XZ   0040e5d0 f   dbcontroller.obj
 0001:0000d5f0       ??1CDbController@@UAE@XZ   0040e5f0 f   dbcontroller.obj
 0001:0000d600       ?CloseDbHandler@CDbController@@QAEXXZ 0040e600 f   dbcontroller.obj
 0001:0000d650       ?Destroy@CDbControllerTimer@@QAEXXZ 0040e650 f   dbcontroller.obj
 0001:0000d6a0       ?capacity@?$vector@U?$pair@PAVCDbController@@K@std@@V?$allocator@U?$pair@PAVCDbController@@K@std@@@2@@std@@QBEIXZ 0040e6a0 f i dbcontroller.obj
 0001:0000d6c0       ?size@?$vector@U?$pair@PAVCDbController@@K@std@@V?$allocator@U?$pair@PAVCDbController@@K@std@@@2@@std@@QBEIXZ 0040e6c0 f i dbcontroller.obj
 0001:0000d6e0       ??0?$allocator@U?$pair@PAVCDbController@@K@std@@@std@@QAE@XZ 0040e6e0 f i dbcontroller.obj
 0001:0000d6f0       ??Eiterator@?$vector@U?$pair@PAVCDbController@@K@std@@V?$allocator@U?$pair@PAVCDbController@@K@std@@@2@@std@@QAEAAV012@XZ 0040e6f0 f i dbcontroller.obj
 0001:0000d700       ??Dconst_iterator@?$vector@U?$pair@PAVCDbController@@K@std@@V?$allocator@U?$pair@PAVCDbController@@K@std@@@2@@std@@QBEABU?$pair@PAVCDbController@@K@2@XZ 0040e700 f i dbcontroller.obj
 0001:0000d710       ??8const_iterator@?$vector@U?$pair@PAVCDbController@@K@std@@V?$allocator@U?$pair@PAVCDbController@@K@std@@@2@@std@@QBE_NABV012@@Z 0040e710 f i dbcontroller.obj
 0001:0000d720       ??0?$allocator@U?$pair@PAVCDbController@@K@std@@@std@@QAE@ABV01@@Z 0040e720 f i dbcontroller.obj
 0001:0000d730       ?deallocate@?$allocator@U?$pair@PAVCDbController@@K@std@@@std@@QAEXPAU?$pair@PAVCDbController@@K@2@I@Z 0040e730 f i dbcontroller.obj
 0001:0000d740       ??0const_iterator@?$vector@U?$pair@PAVCDbController@@K@std@@V?$allocator@U?$pair@PAVCDbController@@K@std@@@2@@std@@QAE@PAU?$pair@PAVCDbController@@K@2@@Z 0040e740 f i dbcontroller.obj
 0001:0000d750       ?max_size@?$allocator@U?$pair@PAVCDbController@@K@std@@@std@@QBEIXZ 0040e750 f i dbcontroller.obj
 0001:0000d760       ??Yiterator@?$vector@U?$pair@PAVCDbController@@K@std@@V?$allocator@U?$pair@PAVCDbController@@K@std@@@2@@std@@QAEAAV012@H@Z 0040e760 f i dbcontroller.obj
 0001:0000d780       ??Gconst_iterator@?$vector@U?$pair@PAVCDbController@@K@std@@V?$allocator@U?$pair@PAVCDbController@@K@std@@@2@@std@@QBEHABV012@@Z 0040e780 f i dbcontroller.obj
 0001:0000d790       ??$fill@PAU?$pair@PAVCDbController@@K@std@@U12@@std@@YAXPAU?$pair@PAVCDbController@@K@0@0ABU10@@Z 0040e790 f i dbcontroller.obj
 0001:0000d7c0       ??$_Allocate@U?$pair@PAVCDbController@@K@std@@@std@@YAPAU?$pair@PAVCDbController@@K@0@IPAU10@@Z 0040e7c0 f i dbcontroller.obj
 0001:0000d7e0       ??0?$pair@PAVCDbController@@K@std@@QAE@ABQAVCDbController@@ABK@Z 0040e7e0 f i dbcontroller.obj
 0001:0000d800       ??$_Ptr_cat@PAU?$pair@PAVCDbController@@K@std@@PAU12@@std@@YA?AU_Nonscalar_ptr_iterator_tag@0@AAPAU?$pair@PAVCDbController@@K@0@0@Z 0040e800 f i dbcontroller.obj
 0001:0000d810       ??$_Copy_backward_opt@PAU?$pair@PAVCDbController@@K@std@@PAU12@@std@@YAPAU?$pair@PAVCDbController@@K@0@PAU10@00U_Nonscalar_ptr_iterator_tag@0@@Z 0040e810 f i dbcontroller.obj
 0001:0000d840       ??$_Construct@U?$pair@PAVCDbController@@K@std@@U12@@std@@YAXPAU?$pair@PAVCDbController@@K@0@ABU10@@Z 0040e840 f i dbcontroller.obj
 0001:0000d860       ??$_Destroy@U?$pair@PAVCDbController@@K@std@@@std@@YAXPAU?$pair@PAVCDbController@@K@0@@Z 0040e860 f i dbcontroller.obj
 0001:0000d870       ??0CMclCritSec@@QAE@XZ     0040e870 f i dbcontroller.obj
 0001:0000d890       ??1CMclCritSec@@UAE@XZ     0040e890 f i dbcontroller.obj
 0001:0000d8b0       ??_GCMclCritSec@@UAEPAXI@Z 0040e8b0 f i dbcontroller.obj
 0001:0000d8b0       ??_ECMclCritSec@@UAEPAXI@Z 0040e8b0 f i dbcontroller.obj
 0001:0000d8e0       ??0tagDB_OVERLAPPED_PLUS@@QAE@XZ 0040e8e0 f i dbcontroller.obj
 0001:0000d8f0       ??_GCDbController@@UAEPAXI@Z 0040e8f0 f i dbcontroller.obj
 0001:0000d8f0       ??_ECDbController@@UAEPAXI@Z 0040e8f0 f i dbcontroller.obj
 0001:0000d910       ?PostRequest@CDbController@@QAEHHPAEHK@Z 0040e910 f   dbcontroller.obj
 0001:0000d9d0       ?CreateQuery@CDbController@@QAEPAVCQuery@@XZ 0040e9d0 f   dbcontroller.obj
 0001:0000da80       ?DbHandler@CDbController@@QAEXXZ 0040ea80 f   dbcontroller.obj
 0001:0000db30       ?Post@post@@YAXKPAVCMail@@PAVCQuery@@@Z 0040eb30 f   dbcontroller.obj
 0001:0000dc90       ??Diterator@?$vector@U?$pair@PAVCDbController@@K@std@@V?$allocator@U?$pair@PAVCDbController@@K@std@@@2@@std@@QBEAAU?$pair@PAVCDbController@@K@2@XZ 0040ec90 f i dbcontroller.obj
 0001:0000dca0       ??Eiterator@?$vector@U?$pair@PAVCDbController@@K@std@@V?$allocator@U?$pair@PAVCDbController@@K@std@@@2@@std@@QAE?AV012@H@Z 0040eca0 f i dbcontroller.obj
 0001:0000dcb0       ??9const_iterator@?$vector@U?$pair@PAVCDbController@@K@std@@V?$allocator@U?$pair@PAVCDbController@@K@std@@@2@@std@@QBE_NABV012@@Z 0040ecb0 f i dbcontroller.obj
 0001:0000dcd0       ??0?$_Vector_val@U?$pair@PAVCDbController@@K@std@@V?$allocator@U?$pair@PAVCDbController@@K@std@@@2@@std@@IAE@V?$allocator@U?$pair@PAVCDbController@@K@std@@@1@@Z 0040ecd0 f i dbcontroller.obj
 0001:0000dce0       ??0iterator@?$vector@U?$pair@PAVCDbController@@K@std@@V?$allocator@U?$pair@PAVCDbController@@K@std@@@2@@std@@QAE@PAU?$pair@PAVCDbController@@K@2@@Z 0040ece0 f i dbcontroller.obj
 0001:0000dcf0       ?max_size@?$vector@U?$pair@PAVCDbController@@K@std@@V?$allocator@U?$pair@PAVCDbController@@K@std@@@2@@std@@QBEIXZ 0040ecf0 f i dbcontroller.obj
 0001:0000dd00       ?allocate@?$allocator@U?$pair@PAVCDbController@@K@std@@@std@@QAEPAU?$pair@PAVCDbController@@K@2@I@Z 0040ed00 f i dbcontroller.obj
 0001:0000dd20       ??Hiterator@?$vector@U?$pair@PAVCDbController@@K@std@@V?$allocator@U?$pair@PAVCDbController@@K@std@@@2@@std@@QBE?AV012@H@Z 0040ed20 f i dbcontroller.obj
 0001:0000dd40       ??Giterator@?$vector@U?$pair@PAVCDbController@@K@std@@V?$allocator@U?$pair@PAVCDbController@@K@std@@@2@@std@@QBEHABVconst_iterator@12@@Z 0040ed40 f i dbcontroller.obj
 0001:0000dd50       ??$make_pair@PAVCDbController@@K@std@@YA?AU?$pair@PAVCDbController@@K@0@PAVCDbController@@K@Z 0040ed50 f i dbcontroller.obj
 0001:0000dd70       ??$copy_backward@PAU?$pair@PAVCDbController@@K@std@@PAU12@@std@@YAPAU?$pair@PAVCDbController@@K@0@PAU10@00@Z 0040ed70 f i dbcontroller.obj
 0001:0000dda0       ?construct@?$allocator@U?$pair@PAVCDbController@@K@std@@@std@@QAEXPAU?$pair@PAVCDbController@@K@2@ABU32@@Z 0040eda0 f i dbcontroller.obj
 0001:0000ddc0       ?destroy@?$allocator@U?$pair@PAVCDbController@@K@std@@@std@@QAEXPAU?$pair@PAVCDbController@@K@2@@Z 0040edc0 f i dbcontroller.obj
 0001:0000ddd0       ??$_Uninit_copy@PAU?$pair@PAVCDbController@@K@std@@PAU12@V?$allocator@U?$pair@PAVCDbController@@K@std@@@2@@std@@YAPAU?$pair@PAVCDbController@@K@0@PAU10@00AAV?$allocator@U?$pair@PAVCDbController@@K@std@@@0@U_Nonscalar_ptr_iterator_tag@0@@Z 0040edd0 f i dbcontroller.obj
 0001:0000de00       ?_DbHandler@CDbController@@SAKPAPAX@Z 0040ee00 f   dbcontroller.obj
 0001:0000de10       ?begin@?$vector@U?$pair@PAVCDbController@@K@std@@V?$allocator@U?$pair@PAVCDbController@@K@std@@@2@@std@@QAE?AViterator@12@XZ 0040ee10 f i dbcontroller.obj
 0001:0000de20       ?end@?$vector@U?$pair@PAVCDbController@@K@std@@V?$allocator@U?$pair@PAVCDbController@@K@std@@@2@@std@@QAE?AViterator@12@XZ 0040ee20 f i dbcontroller.obj
 0001:0000de30       ??$_Uninit_fill_n@PAU?$pair@PAVCDbController@@K@std@@IU12@V?$allocator@U?$pair@PAVCDbController@@K@std@@@2@@std@@YAXPAU?$pair@PAVCDbController@@K@0@IABU10@AAV?$allocator@U?$pair@PAVCDbController@@K@std@@@0@U_Nonscalar_ptr_iterator_tag@0@@Z 0040ee30 f i dbcontroller.obj
 0001:0000de60       ??$_Destroy_range@U?$pair@PAVCDbController@@K@std@@V?$allocator@U?$pair@PAVCDbController@@K@std@@@2@@std@@YAXPAU?$pair@PAVCDbController@@K@0@0AAV?$allocator@U?$pair@PAVCDbController@@K@std@@@0@U_Nonscalar_ptr_iterator_tag@0@@Z 0040ee60 f i dbcontroller.obj
 0001:0000de70       ??$_Uninitialized_copy@PAU?$pair@PAVCDbController@@K@std@@PAU12@V?$allocator@U?$pair@PAVCDbController@@K@std@@@2@@std@@YAPAU?$pair@PAVCDbController@@K@0@PAU10@00AAV?$allocator@U?$pair@PAVCDbController@@K@std@@@0@@Z 0040ee70 f i dbcontroller.obj
 0001:0000dea0       ?Tick@CDbControllerTimer@@AAEXXZ 0040eea0 f   dbcontroller.obj
 0001:0000df90       ??$_Uninitialized_fill_n@PAU?$pair@PAVCDbController@@K@std@@IU12@V?$allocator@U?$pair@PAVCDbController@@K@std@@@2@@std@@YAXPAU?$pair@PAVCDbController@@K@0@IABU10@AAV?$allocator@U?$pair@PAVCDbController@@K@std@@@0@@Z 0040ef90 f i dbcontroller.obj
 0001:0000dfc0       ??$_Destroy_range@U?$pair@PAVCDbController@@K@std@@V?$allocator@U?$pair@PAVCDbController@@K@std@@@2@@std@@YAXPAU?$pair@PAVCDbController@@K@0@0AAV?$allocator@U?$pair@PAVCDbController@@K@std@@@0@@Z 0040efc0 f i dbcontroller.obj
 0001:0000dfd0       ??$_Ucopy@PAU?$pair@PAVCDbController@@K@std@@@?$vector@U?$pair@PAVCDbController@@K@std@@V?$allocator@U?$pair@PAVCDbController@@K@std@@@2@@std@@IAEPAU?$pair@PAVCDbController@@K@1@PAU21@00@Z 0040efd0 f i dbcontroller.obj
 0001:0000dff0       ?_Tick@CDbControllerTimer@@CAIPAX@Z 0040eff0 f   dbcontroller.obj
 0001:0000e000       ?Create@CDbControllerTimer@@QAEXXZ 0040f000 f   dbcontroller.obj
 0001:0000e040       ?_Ufill@?$vector@U?$pair@PAVCDbController@@K@std@@V?$allocator@U?$pair@PAVCDbController@@K@std@@@2@@std@@IAEPAU?$pair@PAVCDbController@@K@2@PAU32@IABU32@@Z 0040f040 f i dbcontroller.obj
 0001:0000e070       ?_Destroy@?$vector@U?$pair@PAVCDbController@@K@std@@V?$allocator@U?$pair@PAVCDbController@@K@std@@@2@@std@@IAEXPAU?$pair@PAVCDbController@@K@2@0@Z 0040f070 f i dbcontroller.obj
 0001:0000e080       ?_Tidy@?$vector@U?$pair@PAVCDbController@@K@std@@V?$allocator@U?$pair@PAVCDbController@@K@std@@@2@@std@@IAEXXZ 0040f080 f i dbcontroller.obj
 0001:0000e0b0       ??1?$vector@U?$pair@PAVCDbController@@K@std@@V?$allocator@U?$pair@PAVCDbController@@K@std@@@2@@std@@QAE@XZ 0040f0b0 f i dbcontroller.obj
 0001:0000e0e0       ??1CDbControllerTimer@@UAE@XZ 0040f0e0 f   dbcontroller.obj
 0001:0000e130       ?_Xlen@?$vector@U?$pair@PAVCDbController@@K@std@@V?$allocator@U?$pair@PAVCDbController@@K@std@@@2@@std@@IBEXXZ 0040f130 f i dbcontroller.obj
 0001:0000e1a0       ??_GCDbControllerTimer@@UAEPAXI@Z 0040f1a0 f i dbcontroller.obj
 0001:0000e1a0       ??_ECDbControllerTimer@@UAEPAXI@Z 0040f1a0 f i dbcontroller.obj
 0001:0000e1c0       ?_Buy@?$vector@U?$pair@PAVCDbController@@K@std@@V?$allocator@U?$pair@PAVCDbController@@K@std@@@2@@std@@IAE_NI@Z 0040f1c0 f i dbcontroller.obj
 0001:0000e210       ?_Insert_n@?$vector@U?$pair@PAVCDbController@@K@std@@V?$allocator@U?$pair@PAVCDbController@@K@std@@@2@@std@@IAEXViterator@12@IABU?$pair@PAVCDbController@@K@2@@Z 0040f210 f i dbcontroller.obj
 0001:0000e460       ??0?$vector@U?$pair@PAVCDbController@@K@std@@V?$allocator@U?$pair@PAVCDbController@@K@std@@@2@@std@@QAE@XZ 0040f460 f i dbcontroller.obj
 0001:0000e470       ?insert@?$vector@U?$pair@PAVCDbController@@K@std@@V?$allocator@U?$pair@PAVCDbController@@K@std@@@2@@std@@QAE?AViterator@12@V312@ABU?$pair@PAVCDbController@@K@2@@Z 0040f470 f i dbcontroller.obj
 0001:0000e4c0       ??0CDbControllerTimer@@AAE@XZ 0040f4c0 f   dbcontroller.obj
 0001:0000e500       ?GetInstance@CDbControllerTimer@@SAPAV1@XZ 0040f500 f   dbcontroller.obj
 0001:0000e590       ?push_back@?$vector@U?$pair@PAVCDbController@@K@std@@V?$allocator@U?$pair@PAVCDbController@@K@std@@@2@@std@@QAEXABU?$pair@PAVCDbController@@K@2@@Z 0040f590 f i dbcontroller.obj
 0001:0000e600       ?Register@CDbControllerTimer@@QAEXPAVCDbController@@@Z 0040f600 f   dbcontroller.obj
 0001:0000e680       ?SetTimer@CDbController@@AAEXK@Z 0040f680 f   dbcontroller.obj
 0001:0000e6a0       ?CreateDbHandler@CDbController@@QAEHK@Z 0040f6a0 f   dbcontroller.obj
 0001:0000e710       ?SysMessageHandler@CDPAccountClient@@UAEXPAUDPMSG_GENERIC@@KK@Z 0040f710 f   dpaccountclient.obj
 0001:0000e720       ?OnRemovePlayer@CDPAccountClient@@AAEXAAVCAr@@PAEK@Z 0040f720 f   dpaccountclient.obj
 0001:0000e770       ?OnJoin@CDPAccountClient@@AAEXAAVCAr@@PAEK@Z 0040f770 f   dpaccountclient.obj
 0001:0000e7c0       ?OnPlayerCount@CDPAccountClient@@AAEXAAVCAr@@PAEK@Z 0040f7c0 f   dpaccountclient.obj
 0001:0000e810       ?OnCloseExistingConnection@CDPAccountClient@@AAEXAAVCAr@@PAEK@Z 0040f810 f   dpaccountclient.obj
 0001:0000e870       ?OnOneHourNotify@CDPAccountClient@@AAEXAAVCAr@@PAEK@Z 0040f870 f   dpaccountclient.obj
 0001:0000e8d0       ??0?$pair@$$CBKP8CDPAccountClient@@AEXAAVCAr@@PAEK@Z@std@@QAE@ABKABQ8CDPAccountClient@@AEXAAVCAr@@PAEK@Z@Z 0040f8d0 f i dpaccountclient.obj
 0001:0000e8f0       ?_Isnil@?$_Tree@V?$_Tmap_traits@KP8CDPAccountClient@@AEXAAVCAr@@PAEK@ZU?$less@K@std@@V?$allocator@U?$pair@$$CBKP8CDPAccountClient@@AEXAAVCAr@@PAEK@Z@std@@@4@$0A@@std@@@std@@KAAADPAU_Node@?$_Tree_nod@V?$_Tmap_traits@KP8CDPAccountClient@@AEXAAVCAr@@PAEK@ZU?$less@K@std@@V?$allocator@U?$pair@$$CBKP8CDPAccountClient@@AEXAAVCAr@@PAEK@Z@std@@@4@$0A@@std@@@2@@Z 0040f8f0 f i dpaccountclient.obj
 0001:0000e900       ?_Left@?$_Tree@V?$_Tmap_traits@KP8CDPAccountClient@@AEXAAVCAr@@PAEK@ZU?$less@K@std@@V?$allocator@U?$pair@$$CBKP8CDPAccountClient@@AEXAAVCAr@@PAEK@Z@std@@@4@$0A@@std@@@std@@KAAAPAU_Node@?$_Tree_nod@V?$_Tmap_traits@KP8CDPAccountClient@@AEXAAVCAr@@PAEK@ZU?$less@K@std@@V?$allocator@U?$pair@$$CBKP8CDPAccountClient@@AEXAAVCAr@@PAEK@Z@std@@@4@$0A@@std@@@2@PAU342@@Z 0040f900 f i dpaccountclient.obj
 0001:0000e910       ?_Right@?$_Tree@V?$_Tmap_traits@KP8CDPAccountClient@@AEXAAVCAr@@PAEK@ZU?$less@K@std@@V?$allocator@U?$pair@$$CBKP8CDPAccountClient@@AEXAAVCAr@@PAEK@Z@std@@@4@$0A@@std@@@std@@KAAAPAU_Node@?$_Tree_nod@V?$_Tmap_traits@KP8CDPAccountClient@@AEXAAVCAr@@PAEK@ZU?$less@K@std@@V?$allocator@U?$pair@$$CBKP8CDPAccountClient@@AEXAAVCAr@@PAEK@Z@std@@@4@$0A@@std@@@2@PAU342@@Z 0040f910 f i dpaccountclient.obj
 0001:0000e920       ?_Kfn@?$_Tmap_traits@KP8CDPAccountClient@@AEXAAVCAr@@PAEK@ZU?$less@K@std@@V?$allocator@U?$pair@$$CBKP8CDPAccountClient@@AEXAAVCAr@@PAEK@Z@std@@@4@$0A@@std@@SAABKABU?$pair@$$CBKP8CDPAccountClient@@AEXAAVCAr@@PAEK@Z@2@@Z 0040f920 f i dpaccountclient.obj
 0001:0000e930       ??0?$allocator@U?$pair@$$CBKP8CDPAccountClient@@AEXAAVCAr@@PAEK@Z@std@@@std@@QAE@XZ 0040f930 f i dpaccountclient.obj
 0001:0000e940       ??8const_iterator@?$_Tree@V?$_Tmap_traits@KP8CDPAccountClient@@AEXAAVCAr@@PAEK@ZU?$less@K@std@@V?$allocator@U?$pair@$$CBKP8CDPAccountClient@@AEXAAVCAr@@PAEK@Z@std@@@4@$0A@@std@@@std@@QBE_NABV012@@Z 0040f940 f i dpaccountclient.obj
 0001:0000e950       ?_Mynode@const_iterator@?$_Tree@V?$_Tmap_traits@KP8CDPAccountClient@@AEXAAVCAr@@PAEK@ZU?$less@K@std@@V?$allocator@U?$pair@$$CBKP8CDPAccountClient@@AEXAAVCAr@@PAEK@Z@std@@@4@$0A@@std@@@std@@QBEPAU_Node@?$_Tree_nod@V?$_Tmap_traits@KP8CDPAccountClient@@AEXAAVCAr@@PAEK@ZU?$less@K@std@@V?$allocator@U?$pair@$$CBKP8CDPAccountClient@@AEXAAVCAr@@PAEK@Z@std@@@4@$0A@@std@@@3@XZ 0040f950 f i dpaccountclient.obj
 0001:0000e960       ??0?$pair@Viterator@?$_Tree@V?$_Tmap_traits@KP8CDPAccountClient@@AEXAAVCAr@@PAEK@ZU?$less@K@std@@V?$allocator@U?$pair@$$CBKP8CDPAccountClient@@AEXAAVCAr@@PAEK@Z@std@@@4@$0A@@std@@@std@@_N@std@@QAE@ABViterator@?$_Tree@V?$_Tmap_traits@KP8CDPAccountClient@@AEXAAVCAr@@PAEK@ZU?$less@K@std@@V?$allocator@U?$pair@$$CBKP8CDPAccountClient@@AEXAAVCAr@@PAEK@Z@std@@@4@$0A@@std@@@1@AB_N@Z 0040f960 f i dpaccountclient.obj
 0001:0000e980       ?_Color@?$_Tree@V?$_Tmap_traits@KP8CDPAccountClient@@AEXAAVCAr@@PAEK@ZU?$less@K@std@@V?$allocator@U?$pair@$$CBKP8CDPAccountClient@@AEXAAVCAr@@PAEK@Z@std@@@4@$0A@@std@@@std@@KAAADPAU_Node@?$_Tree_nod@V?$_Tmap_traits@KP8CDPAccountClient@@AEXAAVCAr@@PAEK@ZU?$less@K@std@@V?$allocator@U?$pair@$$CBKP8CDPAccountClient@@AEXAAVCAr@@PAEK@Z@std@@@4@$0A@@std@@@2@@Z 0040f980 f i dpaccountclient.obj
 0001:0000e990       ?_Parent@?$_Tree@V?$_Tmap_traits@KP8CDPAccountClient@@AEXAAVCAr@@PAEK@ZU?$less@K@std@@V?$allocator@U?$pair@$$CBKP8CDPAccountClient@@AEXAAVCAr@@PAEK@Z@std@@@4@$0A@@std@@@std@@KAAAPAU_Node@?$_Tree_nod@V?$_Tmap_traits@KP8CDPAccountClient@@AEXAAVCAr@@PAEK@ZU?$less@K@std@@V?$allocator@U?$pair@$$CBKP8CDPAccountClient@@AEXAAVCAr@@PAEK@Z@std@@@4@$0A@@std@@@2@PAU342@@Z 0040f990 f i dpaccountclient.obj
 0001:0000e9a0       ?_Myval@?$_Tree@V?$_Tmap_traits@KP8CDPAccountClient@@AEXAAVCAr@@PAEK@ZU?$less@K@std@@V?$allocator@U?$pair@$$CBKP8CDPAccountClient@@AEXAAVCAr@@PAEK@Z@std@@@4@$0A@@std@@@std@@KAAAU?$pair@$$CBKP8CDPAccountClient@@AEXAAVCAr@@PAEK@Z@2@PAU_Node@?$_Tree_nod@V?$_Tmap_traits@KP8CDPAccountClient@@AEXAAVCAr@@PAEK@ZU?$less@K@std@@V?$allocator@U?$pair@$$CBKP8CDPAccountClient@@AEXAAVCAr@@PAEK@Z@std@@@4@$0A@@std@@@2@@Z 0040f9a0 f i dpaccountclient.obj
 0001:0000e9b0       ?_Lmost@?$_Tree@V?$_Tmap_traits@KP8CDPAccountClient@@AEXAAVCAr@@PAEK@ZU?$less@K@std@@V?$allocator@U?$pair@$$CBKP8CDPAccountClient@@AEXAAVCAr@@PAEK@Z@std@@@4@$0A@@std@@@std@@IAEAAPAU_Node@?$_Tree_nod@V?$_Tmap_traits@KP8CDPAccountClient@@AEXAAVCAr@@PAEK@ZU?$less@K@std@@V?$allocator@U?$pair@$$CBKP8CDPAccountClient@@AEXAAVCAr@@PAEK@Z@std@@@4@$0A@@std@@@2@XZ 0040f9b0 f i dpaccountclient.obj
 0001:0000e9c0       ?_Rmost@?$_Tree@V?$_Tmap_traits@KP8CDPAccountClient@@AEXAAVCAr@@PAEK@ZU?$less@K@std@@V?$allocator@U?$pair@$$CBKP8CDPAccountClient@@AEXAAVCAr@@PAEK@Z@std@@@4@$0A@@std@@@std@@IAEAAPAU_Node@?$_Tree_nod@V?$_Tmap_traits@KP8CDPAccountClient@@AEXAAVCAr@@PAEK@ZU?$less@K@std@@V?$allocator@U?$pair@$$CBKP8CDPAccountClient@@AEXAAVCAr@@PAEK@Z@std@@@4@$0A@@std@@@2@XZ 0040f9c0 f i dpaccountclient.obj
 0001:0000e9d0       ??0?$allocator@U?$pair@$$CBKP8CDPAccountClient@@AEXAAVCAr@@PAEK@Z@std@@@std@@QAE@ABV01@@Z 0040f9d0 f i dpaccountclient.obj
 0001:0000e9e0       ?deallocate@?$allocator@U_Node@?$_Tree_nod@V?$_Tmap_traits@KP8CDPAccountClient@@AEXAAVCAr@@PAEK@ZU?$less@K@std@@V?$allocator@U?$pair@$$CBKP8CDPAccountClient@@AEXAAVCAr@@PAEK@Z@std@@@4@$0A@@std@@@std@@@std@@QAEXPAU_Node@?$_Tree_nod@V?$_Tmap_traits@KP8CDPAccountClient@@AEXAAVCAr@@PAEK@ZU?$less@K@std@@V?$allocator@U?$pair@$$CBKP8CDPAccountClient@@AEXAAVCAr@@PAEK@Z@std@@@4@$0A@@std@@@2@I@Z 0040f9e0 f i dpaccountclient.obj
 0001:0000e9f0       ??0const_iterator@?$_Tree@V?$_Tmap_traits@KP8CDPAccountClient@@AEXAAVCAr@@PAEK@ZU?$less@K@std@@V?$allocator@U?$pair@$$CBKP8CDPAccountClient@@AEXAAVCAr@@PAEK@Z@std@@@4@$0A@@std@@@std@@QAE@PAU_Node@?$_Tree_nod@V?$_Tmap_traits@KP8CDPAccountClient@@AEXAAVCAr@@PAEK@ZU?$less@K@std@@V?$allocator@U?$pair@$$CBKP8CDPAccountClient@@AEXAAVCAr@@PAEK@Z@std@@@4@$0A@@std@@@2@@Z 0040f9f0 f i dpaccountclient.obj
 0001:0000ea00       ??Dconst_iterator@?$_Tree@V?$_Tmap_traits@KP8CDPAccountClient@@AEXAAVCAr@@PAEK@ZU?$less@K@std@@V?$allocator@U?$pair@$$CBKP8CDPAccountClient@@AEXAAVCAr@@PAEK@Z@std@@@4@$0A@@std@@@std@@QBEABU?$pair@$$CBKP8CDPAccountClient@@AEXAAVCAr@@PAEK@Z@2@XZ 0040fa00 f i dpaccountclient.obj
 0001:0000ea10       ?_Root@?$_Tree@V?$_Tmap_traits@KP8CDPAccountClient@@AEXAAVCAr@@PAEK@ZU?$less@K@std@@V?$allocator@U?$pair@$$CBKP8CDPAccountClient@@AEXAAVCAr@@PAEK@Z@std@@@4@$0A@@std@@@std@@IBEAAPAU_Node@?$_Tree_nod@V?$_Tmap_traits@KP8CDPAccountClient@@AEXAAVCAr@@PAEK@ZU?$less@K@std@@V?$allocator@U?$pair@$$CBKP8CDPAccountClient@@AEXAAVCAr@@PAEK@Z@std@@@4@$0A@@std@@@2@XZ 0040fa10 f i dpaccountclient.obj
 0001:0000ea20       ?max_size@?$allocator@U?$pair@$$CBKP8CDPAccountClient@@AEXAAVCAr@@PAEK@Z@std@@@std@@QBEIXZ 0040fa20 f i dpaccountclient.obj
 0001:0000ea30       ??0_Node@?$_Tree_nod@V?$_Tmap_traits@KP8CDPAccountClient@@AEXAAVCAr@@PAEK@ZU?$less@K@std@@V?$allocator@U?$pair@$$CBKP8CDPAccountClient@@AEXAAVCAr@@PAEK@Z@std@@@4@$0A@@std@@@std@@QAE@PAU012@00ABU?$pair@$$CBKP8CDPAccountClient@@AEXAAVCAr@@PAEK@Z@2@D@Z 0040fa30 f i dpaccountclient.obj
 0001:0000ea70       ?_Max@?$_Tree@V?$_Tmap_traits@KP8CDPAccountClient@@AEXAAVCAr@@PAEK@ZU?$less@K@std@@V?$allocator@U?$pair@$$CBKP8CDPAccountClient@@AEXAAVCAr@@PAEK@Z@std@@@4@$0A@@std@@@std@@KAPAU_Node@?$_Tree_nod@V?$_Tmap_traits@KP8CDPAccountClient@@AEXAAVCAr@@PAEK@ZU?$less@K@std@@V?$allocator@U?$pair@$$CBKP8CDPAccountClient@@AEXAAVCAr@@PAEK@Z@std@@@4@$0A@@std@@@2@PAU342@@Z 0040fa70 f i dpaccountclient.obj
 0001:0000ea90       ?_Min@?$_Tree@V?$_Tmap_traits@KP8CDPAccountClient@@AEXAAVCAr@@PAEK@ZU?$less@K@std@@V?$allocator@U?$pair@$$CBKP8CDPAccountClient@@AEXAAVCAr@@PAEK@Z@std@@@4@$0A@@std@@@std@@KAPAU_Node@?$_Tree_nod@V?$_Tmap_traits@KP8CDPAccountClient@@AEXAAVCAr@@PAEK@ZU?$less@K@std@@V?$allocator@U?$pair@$$CBKP8CDPAccountClient@@AEXAAVCAr@@PAEK@Z@std@@@4@$0A@@std@@@2@PAU342@@Z 0040fa90 f i dpaccountclient.obj
 0001:0000eab0       ??0?$_Tmap_traits@KP8CDPAccountClient@@AEXAAVCAr@@PAEK@ZU?$less@K@std@@V?$allocator@U?$pair@$$CBKP8CDPAccountClient@@AEXAAVCAr@@PAEK@Z@std@@@4@$0A@@std@@QAE@U?$less@K@1@@Z 0040fab0 f i dpaccountclient.obj
 0001:0000eac0       ?_Inc@const_iterator@?$_Tree@V?$_Tmap_traits@KP8CDPAccountClient@@AEXAAVCAr@@PAEK@ZU?$less@K@std@@V?$allocator@U?$pair@$$CBKP8CDPAccountClient@@AEXAAVCAr@@PAEK@Z@std@@@4@$0A@@std@@@std@@QAEXXZ 0040fac0 f i dpaccountclient.obj
 0001:0000eb20       ??$_Destroy@PAU_Node@?$_Tree_nod@V?$_Tmap_traits@KP8CDPAccountClient@@AEXAAVCAr@@PAEK@ZU?$less@K@std@@V?$allocator@U?$pair@$$CBKP8CDPAccountClient@@AEXAAVCAr@@PAEK@Z@std@@@4@$0A@@std@@@std@@@std@@YAXPAPAU_Node@?$_Tree_nod@V?$_Tmap_traits@KP8CDPAccountClient@@AEXAAVCAr@@PAEK@ZU?$less@K@std@@V?$allocator@U?$pair@$$CBKP8CDPAccountClient@@AEXAAVCAr@@PAEK@Z@std@@@4@$0A@@std@@@0@@Z 0040fb20 f i dpaccountclient.obj
 0001:0000eb30       ??$?0U?$pair@$$CBKP8CDPAccountClient@@AEXAAVCAr@@PAEK@Z@std@@@?$allocator@PAU_Node@?$_Tree_nod@V?$_Tmap_traits@KP8CDPAccountClient@@AEXAAVCAr@@PAEK@ZU?$less@K@std@@V?$allocator@U?$pair@$$CBKP8CDPAccountClient@@AEXAAVCAr@@PAEK@Z@std@@@4@$0A@@std@@@std@@@std@@QAE@ABV?$allocator@U?$pair@$$CBKP8CDPAccountClient@@AEXAAVCAr@@PAEK@Z@std@@@1@@Z 0040fb30 f i dpaccountclient.obj
 0001:0000eb40       ??$_Allocate@U_Node@?$_Tree_nod@V?$_Tmap_traits@KP8CDPAccountClient@@AEXAAVCAr@@PAEK@ZU?$less@K@std@@V?$allocator@U?$pair@$$CBKP8CDPAccountClient@@AEXAAVCAr@@PAEK@Z@std@@@4@$0A@@std@@@std@@@std@@YAPAU_Node@?$_Tree_nod@V?$_Tmap_traits@KP8CDPAccountClient@@AEXAAVCAr@@PAEK@ZU?$less@K@std@@V?$allocator@U?$pair@$$CBKP8CDPAccountClient@@AEXAAVCAr@@PAEK@Z@std@@@4@$0A@@std@@@0@IPAU120@@Z 0040fb40 f i dpaccountclient.obj
 0001:0000eb60       ??$?0U?$pair@$$CBKP8CDPAccountClient@@AEXAAVCAr@@PAEK@Z@std@@@?$allocator@U_Node@?$_Tree_nod@V?$_Tmap_traits@KP8CDPAccountClient@@AEXAAVCAr@@PAEK@ZU?$less@K@std@@V?$allocator@U?$pair@$$CBKP8CDPAccountClient@@AEXAAVCAr@@PAEK@Z@std@@@4@$0A@@std@@@std@@@std@@QAE@ABV?$allocator@U?$pair@$$CBKP8CDPAccountClient@@AEXAAVCAr@@PAEK@Z@std@@@1@@Z 0040fb60 f i dpaccountclient.obj
 0001:0000eb70       ??$_Destroy@U_Node@?$_Tree_nod@V?$_Tmap_traits@KP8CDPAccountClient@@AEXAAVCAr@@PAEK@ZU?$less@K@std@@V?$allocator@U?$pair@$$CBKP8CDPAccountClient@@AEXAAVCAr@@PAEK@Z@std@@@4@$0A@@std@@@std@@@std@@YAXPAU_Node@?$_Tree_nod@V?$_Tmap_traits@KP8CDPAccountClient@@AEXAAVCAr@@PAEK@ZU?$less@K@std@@V?$allocator@U?$pair@$$CBKP8CDPAccountClient@@AEXAAVCAr@@PAEK@Z@std@@@4@$0A@@std@@@0@@Z 0040fb70 f i dpaccountclient.obj
 0001:0000eb80       ??$_Construct@PAU_Node@?$_Tree_nod@V?$_Tmap_traits@KP8CDPAccountClient@@AEXAAVCAr@@PAEK@ZU?$less@K@std@@V?$allocator@U?$pair@$$CBKP8CDPAccountClient@@AEXAAVCAr@@PAEK@Z@std@@@4@$0A@@std@@@std@@PAU123@@std@@YAXPAPAU_Node@?$_Tree_nod@V?$_Tmap_traits@KP8CDPAccountClient@@AEXAAVCAr@@PAEK@ZU?$less@K@std@@V?$allocator@U?$pair@$$CBKP8CDPAccountClient@@AEXAAVCAr@@PAEK@Z@std@@@4@$0A@@std@@@0@ABQAU120@@Z 0040fb80 f i dpaccountclient.obj
 0001:0000eba0       ??6CAr@@QAEAAV0@K@Z        0040fba0 f i dpaccountclient.obj
 0001:0000ebc0       ?Send@CDPMng@@QAEHPAXKK@Z  0040fbc0 f i dpaccountclient.obj
 0001:0000ebe0       ??0_BUYING_INFO@@QAE@XZ    0040fbe0 f i dpaccountclient.obj
 0001:0000ec10       ??0_BUYING_INFO2@@QAE@XZ   0040fc10 f i dpaccountclient.obj
 0001:0000ec50       ?SendAddIdofServer@CDPAccountClient@@QAEXK@Z 0040fc50 f   dpaccountclient.obj
 0001:0000ed30       ?SendRemoveAccount@CDPAccountClient@@QAEXPAD@Z 0040fd30 f   dpaccountclient.obj
 0001:0000ee00       ?SendRemoveAllAccounts@CDPAccountClient@@QAEXXZ 0040fe00 f   dpaccountclient.obj
 0001:0000eec0       ?OnGetPlayerList@CDPAccountClient@@AAEXAAVCAr@@PAEK@Z 0040fec0 f   dpaccountclient.obj
 0001:0000ef70       ?OnFail@CDPAccountClient@@AAEXAAVCAr@@PAEK@Z 0040ff70 f   dpaccountclient.obj
 0001:0000eff0       ?OnBuyingInfo@CDPAccountClient@@AAEXAAVCAr@@PAEK@Z 0040fff0 f   dpaccountclient.obj
 0001:0000f090       ?SendBuyingInfo@CDPAccountClient@@QAEXPAU_BUYING_INFO2@@K@Z 00410090 f   dpaccountclient.obj
 0001:0000f190       ??9const_iterator@?$_Tree@V?$_Tmap_traits@KP8CDPAccountClient@@AEXAAVCAr@@PAEK@ZU?$less@K@std@@V?$allocator@U?$pair@$$CBKP8CDPAccountClient@@AEXAAVCAr@@PAEK@Z@std@@@4@$0A@@std@@@std@@QBE_NABV012@@Z 00410190 f i dpaccountclient.obj
 0001:0000f1b0       ?_Key@?$_Tree@V?$_Tmap_traits@KP8CDPAccountClient@@AEXAAVCAr@@PAEK@ZU?$less@K@std@@V?$allocator@U?$pair@$$CBKP8CDPAccountClient@@AEXAAVCAr@@PAEK@Z@std@@@4@$0A@@std@@@std@@KAABKPAU_Node@?$_Tree_nod@V?$_Tmap_traits@KP8CDPAccountClient@@AEXAAVCAr@@PAEK@ZU?$less@K@std@@V?$allocator@U?$pair@$$CBKP8CDPAccountClient@@AEXAAVCAr@@PAEK@Z@std@@@4@$0A@@std@@@2@@Z 004101b0 f i dpaccountclient.obj
 0001:0000f1c0       ?_Root@?$_Tree@V?$_Tmap_traits@KP8CDPAccountClient@@AEXAAVCAr@@PAEK@ZU?$less@K@std@@V?$allocator@U?$pair@$$CBKP8CDPAccountClient@@AEXAAVCAr@@PAEK@Z@std@@@4@$0A@@std@@@std@@IAEAAPAU_Node@?$_Tree_nod@V?$_Tmap_traits@KP8CDPAccountClient@@AEXAAVCAr@@PAEK@ZU?$less@K@std@@V?$allocator@U?$pair@$$CBKP8CDPAccountClient@@AEXAAVCAr@@PAEK@Z@std@@@4@$0A@@std@@@2@XZ 004101c0 f i dpaccountclient.obj
 0001:0000f1d0       ??0iterator@?$_Tree@V?$_Tmap_traits@KP8CDPAccountClient@@AEXAAVCAr@@PAEK@ZU?$less@K@std@@V?$allocator@U?$pair@$$CBKP8CDPAccountClient@@AEXAAVCAr@@PAEK@Z@std@@@4@$0A@@std@@@std@@QAE@PAU_Node@?$_Tree_nod@V?$_Tmap_traits@KP8CDPAccountClient@@AEXAAVCAr@@PAEK@ZU?$less@K@std@@V?$allocator@U?$pair@$$CBKP8CDPAccountClient@@AEXAAVCAr@@PAEK@Z@std@@@4@$0A@@std@@@2@@Z 004101d0 f i dpaccountclient.obj
 0001:0000f1e0       ??Diterator@?$_Tree@V?$_Tmap_traits@KP8CDPAccountClient@@AEXAAVCAr@@PAEK@ZU?$less@K@std@@V?$allocator@U?$pair@$$CBKP8CDPAccountClient@@AEXAAVCAr@@PAEK@Z@std@@@4@$0A@@std@@@std@@QBEAAU?$pair@$$CBKP8CDPAccountClient@@AEXAAVCAr@@PAEK@Z@2@XZ 004101e0 f i dpaccountclient.obj
 0001:0000f1f0       ?max_size@?$_Tree@V?$_Tmap_traits@KP8CDPAccountClient@@AEXAAVCAr@@PAEK@ZU?$less@K@std@@V?$allocator@U?$pair@$$CBKP8CDPAccountClient@@AEXAAVCAr@@PAEK@Z@std@@@4@$0A@@std@@@std@@QBEIXZ 004101f0 f i dpaccountclient.obj
 0001:0000f200       ?_Lbound@?$_Tree@V?$_Tmap_traits@KP8CDPAccountClient@@AEXAAVCAr@@PAEK@ZU?$less@K@std@@V?$allocator@U?$pair@$$CBKP8CDPAccountClient@@AEXAAVCAr@@PAEK@Z@std@@@4@$0A@@std@@@std@@IBEPAU_Node@?$_Tree_nod@V?$_Tmap_traits@KP8CDPAccountClient@@AEXAAVCAr@@PAEK@ZU?$less@K@std@@V?$allocator@U?$pair@$$CBKP8CDPAccountClient@@AEXAAVCAr@@PAEK@Z@std@@@4@$0A@@std@@@2@ABK@Z 00410200 f i dpaccountclient.obj
 0001:0000f230       ?_Lrotate@?$_Tree@V?$_Tmap_traits@KP8CDPAccountClient@@AEXAAVCAr@@PAEK@ZU?$less@K@std@@V?$allocator@U?$pair@$$CBKP8CDPAccountClient@@AEXAAVCAr@@PAEK@Z@std@@@4@$0A@@std@@@std@@IAEXPAU_Node@?$_Tree_nod@V?$_Tmap_traits@KP8CDPAccountClient@@AEXAAVCAr@@PAEK@ZU?$less@K@std@@V?$allocator@U?$pair@$$CBKP8CDPAccountClient@@AEXAAVCAr@@PAEK@Z@std@@@4@$0A@@std@@@2@@Z 00410230 f i dpaccountclient.obj
 0001:0000f290       ?_Rrotate@?$_Tree@V?$_Tmap_traits@KP8CDPAccountClient@@AEXAAVCAr@@PAEK@ZU?$less@K@std@@V?$allocator@U?$pair@$$CBKP8CDPAccountClient@@AEXAAVCAr@@PAEK@Z@std@@@4@$0A@@std@@@std@@IAEXPAU_Node@?$_Tree_nod@V?$_Tmap_traits@KP8CDPAccountClient@@AEXAAVCAr@@PAEK@ZU?$less@K@std@@V?$allocator@U?$pair@$$CBKP8CDPAccountClient@@AEXAAVCAr@@PAEK@Z@std@@@4@$0A@@std@@@2@@Z 00410290 f i dpaccountclient.obj
 0001:0000f2f0       ?destroy@?$allocator@PAU_Node@?$_Tree_nod@V?$_Tmap_traits@KP8CDPAccountClient@@AEXAAVCAr@@PAEK@ZU?$less@K@std@@V?$allocator@U?$pair@$$CBKP8CDPAccountClient@@AEXAAVCAr@@PAEK@Z@std@@@4@$0A@@std@@@std@@@std@@QAEXPAPAU_Node@?$_Tree_nod@V?$_Tmap_traits@KP8CDPAccountClient@@AEXAAVCAr@@PAEK@ZU?$less@K@std@@V?$allocator@U?$pair@$$CBKP8CDPAccountClient@@AEXAAVCAr@@PAEK@Z@std@@@4@$0A@@std@@@2@@Z 004102f0 f i dpaccountclient.obj
 0001:0000f300       ?allocate@?$allocator@U_Node@?$_Tree_nod@V?$_Tmap_traits@KP8CDPAccountClient@@AEXAAVCAr@@PAEK@ZU?$less@K@std@@V?$allocator@U?$pair@$$CBKP8CDPAccountClient@@AEXAAVCAr@@PAEK@Z@std@@@4@$0A@@std@@@std@@@std@@QAEPAU_Node@?$_Tree_nod@V?$_Tmap_traits@KP8CDPAccountClient@@AEXAAVCAr@@PAEK@ZU?$less@K@std@@V?$allocator@U?$pair@$$CBKP8CDPAccountClient@@AEXAAVCAr@@PAEK@Z@std@@@4@$0A@@std@@@2@I@Z 00410300 f i dpaccountclient.obj
 0001:0000f320       ?_Dec@const_iterator@?$_Tree@V?$_Tmap_traits@KP8CDPAccountClient@@AEXAAVCAr@@PAEK@ZU?$less@K@std@@V?$allocator@U?$pair@$$CBKP8CDPAccountClient@@AEXAAVCAr@@PAEK@Z@std@@@4@$0A@@std@@@std@@QAEXXZ 00410320 f i dpaccountclient.obj
 0001:0000f380       ??0?$_Tree_nod@V?$_Tmap_traits@KP8CDPAccountClient@@AEXAAVCAr@@PAEK@ZU?$less@K@std@@V?$allocator@U?$pair@$$CBKP8CDPAccountClient@@AEXAAVCAr@@PAEK@Z@std@@@4@$0A@@std@@@std@@IAE@ABU?$less@K@1@V?$allocator@U?$pair@$$CBKP8CDPAccountClient@@AEXAAVCAr@@PAEK@Z@std@@@1@@Z 00410380 f i dpaccountclient.obj
 0001:0000f390       ?destroy@?$allocator@U_Node@?$_Tree_nod@V?$_Tmap_traits@KP8CDPAccountClient@@AEXAAVCAr@@PAEK@ZU?$less@K@std@@V?$allocator@U?$pair@$$CBKP8CDPAccountClient@@AEXAAVCAr@@PAEK@Z@std@@@4@$0A@@std@@@std@@@std@@QAEXPAU_Node@?$_Tree_nod@V?$_Tmap_traits@KP8CDPAccountClient@@AEXAAVCAr@@PAEK@ZU?$less@K@std@@V?$allocator@U?$pair@$$CBKP8CDPAccountClient@@AEXAAVCAr@@PAEK@Z@std@@@4@$0A@@std@@@2@@Z 00410390 f i dpaccountclient.obj
 0001:0000f3a0       ?construct@?$allocator@PAU_Node@?$_Tree_nod@V?$_Tmap_traits@KP8CDPAccountClient@@AEXAAVCAr@@PAEK@ZU?$less@K@std@@V?$allocator@U?$pair@$$CBKP8CDPAccountClient@@AEXAAVCAr@@PAEK@Z@std@@@4@$0A@@std@@@std@@@std@@QAEXPAPAU_Node@?$_Tree_nod@V?$_Tmap_traits@KP8CDPAccountClient@@AEXAAVCAr@@PAEK@ZU?$less@K@std@@V?$allocator@U?$pair@$$CBKP8CDPAccountClient@@AEXAAVCAr@@PAEK@Z@std@@@4@$0A@@std@@@2@ABQAU342@@Z 004103a0 f i dpaccountclient.obj
 0001:0000f3c0       ??Econst_iterator@?$_Tree@V?$_Tmap_traits@KP8CDPAccountClient@@AEXAAVCAr@@PAEK@ZU?$less@K@std@@V?$allocator@U?$pair@$$CBKP8CDPAccountClient@@AEXAAVCAr@@PAEK@Z@std@@@4@$0A@@std@@@std@@QAEAAV012@XZ 004103c0 f i dpaccountclient.obj
 0001:0000f3d0       ?end@?$_Tree@V?$_Tmap_traits@KP8CDPAccountClient@@AEXAAVCAr@@PAEK@ZU?$less@K@std@@V?$allocator@U?$pair@$$CBKP8CDPAccountClient@@AEXAAVCAr@@PAEK@Z@std@@@4@$0A@@std@@@std@@QAE?AViterator@12@XZ 004103d0 f i dpaccountclient.obj
 0001:0000f3e0       ??Citerator@?$_Tree@V?$_Tmap_traits@KP8CDPAccountClient@@AEXAAVCAr@@PAEK@ZU?$less@K@std@@V?$allocator@U?$pair@$$CBKP8CDPAccountClient@@AEXAAVCAr@@PAEK@Z@std@@@4@$0A@@std@@@std@@QBEPAU?$pair@$$CBKP8CDPAccountClient@@AEXAAVCAr@@PAEK@Z@2@XZ 004103e0 f i dpaccountclient.obj
 0001:0000f3f0       ?begin@?$_Tree@V?$_Tmap_traits@KP8CDPAccountClient@@AEXAAVCAr@@PAEK@ZU?$less@K@std@@V?$allocator@U?$pair@$$CBKP8CDPAccountClient@@AEXAAVCAr@@PAEK@Z@std@@@4@$0A@@std@@@std@@QAE?AViterator@12@XZ 004103f0 f i dpaccountclient.obj
 0001:0000f400       ?lower_bound@?$_Tree@V?$_Tmap_traits@KP8CDPAccountClient@@AEXAAVCAr@@PAEK@ZU?$less@K@std@@V?$allocator@U?$pair@$$CBKP8CDPAccountClient@@AEXAAVCAr@@PAEK@Z@std@@@4@$0A@@std@@@std@@QAE?AViterator@12@ABK@Z 00410400 f i dpaccountclient.obj
 0001:0000f440       ?_Buynode@?$_Tree@V?$_Tmap_traits@KP8CDPAccountClient@@AEXAAVCAr@@PAEK@ZU?$less@K@std@@V?$allocator@U?$pair@$$CBKP8CDPAccountClient@@AEXAAVCAr@@PAEK@Z@std@@@4@$0A@@std@@@std@@IAEPAU_Node@?$_Tree_nod@V?$_Tmap_traits@KP8CDPAccountClient@@AEXAAVCAr@@PAEK@ZU?$less@K@std@@V?$allocator@U?$pair@$$CBKP8CDPAccountClient@@AEXAAVCAr@@PAEK@Z@std@@@4@$0A@@std@@@2@PAU342@00ABU?$pair@$$CBKP8CDPAccountClient@@AEXAAVCAr@@PAEK@Z@2@D@Z 00410440 f i dpaccountclient.obj
 0001:0000f480       ??Fconst_iterator@?$_Tree@V?$_Tmap_traits@KP8CDPAccountClient@@AEXAAVCAr@@PAEK@ZU?$less@K@std@@V?$allocator@U?$pair@$$CBKP8CDPAccountClient@@AEXAAVCAr@@PAEK@Z@std@@@4@$0A@@std@@@std@@QAEAAV012@XZ 00410480 f i dpaccountclient.obj
 0001:0000f490       ?_Buynode@?$_Tree@V?$_Tmap_traits@KP8CDPAccountClient@@AEXAAVCAr@@PAEK@ZU?$less@K@std@@V?$allocator@U?$pair@$$CBKP8CDPAccountClient@@AEXAAVCAr@@PAEK@Z@std@@@4@$0A@@std@@@std@@IAEPAU_Node@?$_Tree_nod@V?$_Tmap_traits@KP8CDPAccountClient@@AEXAAVCAr@@PAEK@ZU?$less@K@std@@V?$allocator@U?$pair@$$CBKP8CDPAccountClient@@AEXAAVCAr@@PAEK@Z@std@@@4@$0A@@std@@@2@XZ 00410490 f i dpaccountclient.obj
 0001:0000f4d0       ??0?$_Tree_ptr@V?$_Tmap_traits@KP8CDPAccountClient@@AEXAAVCAr@@PAEK@ZU?$less@K@std@@V?$allocator@U?$pair@$$CBKP8CDPAccountClient@@AEXAAVCAr@@PAEK@Z@std@@@4@$0A@@std@@@std@@IAE@ABU?$less@K@1@V?$allocator@U?$pair@$$CBKP8CDPAccountClient@@AEXAAVCAr@@PAEK@Z@std@@@1@@Z 004104d0 f i dpaccountclient.obj
 0001:0000f4e0       ?_Erase@?$_Tree@V?$_Tmap_traits@KP8CDPAccountClient@@AEXAAVCAr@@PAEK@ZU?$less@K@std@@V?$allocator@U?$pair@$$CBKP8CDPAccountClient@@AEXAAVCAr@@PAEK@Z@std@@@4@$0A@@std@@@std@@IAEXPAU_Node@?$_Tree_nod@V?$_Tmap_traits@KP8CDPAccountClient@@AEXAAVCAr@@PAEK@ZU?$less@K@std@@V?$allocator@U?$pair@$$CBKP8CDPAccountClient@@AEXAAVCAr@@PAEK@Z@std@@@4@$0A@@std@@@2@@Z 004104e0 f i dpaccountclient.obj
 0001:0000f520       ??Eiterator@?$_Tree@V?$_Tmap_traits@KP8CDPAccountClient@@AEXAAVCAr@@PAEK@ZU?$less@K@std@@V?$allocator@U?$pair@$$CBKP8CDPAccountClient@@AEXAAVCAr@@PAEK@Z@std@@@4@$0A@@std@@@std@@QAEAAV012@XZ 00410520 f i dpaccountclient.obj
 0001:0000f530       ?find@?$_Tree@V?$_Tmap_traits@KP8CDPAccountClient@@AEXAAVCAr@@PAEK@ZU?$less@K@std@@V?$allocator@U?$pair@$$CBKP8CDPAccountClient@@AEXAAVCAr@@PAEK@Z@std@@@4@$0A@@std@@@std@@QAE?AViterator@12@ABK@Z 00410530 f i dpaccountclient.obj
 0001:0000f5a0       ??Fiterator@?$_Tree@V?$_Tmap_traits@KP8CDPAccountClient@@AEXAAVCAr@@PAEK@ZU?$less@K@std@@V?$allocator@U?$pair@$$CBKP8CDPAccountClient@@AEXAAVCAr@@PAEK@Z@std@@@4@$0A@@std@@@std@@QAEAAV012@XZ 004105a0 f i dpaccountclient.obj
 0001:0000f5b0       ?_Init@?$_Tree@V?$_Tmap_traits@KP8CDPAccountClient@@AEXAAVCAr@@PAEK@ZU?$less@K@std@@V?$allocator@U?$pair@$$CBKP8CDPAccountClient@@AEXAAVCAr@@PAEK@Z@std@@@4@$0A@@std@@@std@@IAEXXZ 004105b0 f i dpaccountclient.obj
 0001:0000f5e0       ??0?$_Tree_val@V?$_Tmap_traits@KP8CDPAccountClient@@AEXAAVCAr@@PAEK@ZU?$less@K@std@@V?$allocator@U?$pair@$$CBKP8CDPAccountClient@@AEXAAVCAr@@PAEK@Z@std@@@4@$0A@@std@@@std@@IAE@ABU?$less@K@1@V?$allocator@U?$pair@$$CBKP8CDPAccountClient@@AEXAAVCAr@@PAEK@Z@std@@@1@@Z 004105e0 f i dpaccountclient.obj
 0001:0000f5f0       ?clear@?$_Tree@V?$_Tmap_traits@KP8CDPAccountClient@@AEXAAVCAr@@PAEK@ZU?$less@K@std@@V?$allocator@U?$pair@$$CBKP8CDPAccountClient@@AEXAAVCAr@@PAEK@Z@std@@@4@$0A@@std@@@std@@QAEXXZ 004105f0 f i dpaccountclient.obj
 0001:0000f620       ??Eiterator@?$_Tree@V?$_Tmap_traits@KP8CDPAccountClient@@AEXAAVCAr@@PAEK@ZU?$less@K@std@@V?$allocator@U?$pair@$$CBKP8CDPAccountClient@@AEXAAVCAr@@PAEK@Z@std@@@4@$0A@@std@@@std@@QAE?AV012@H@Z 00410620 f i dpaccountclient.obj
 0001:0000f640       ?GetHandler@CDPAccountClient@@AAEP81@AEXAAVCAr@@PAEK@ZK@Z 00410640 f i dpaccountclient.obj
 0001:0000f670       ?UserMessageHandler@CDPAccountClient@@UAEXPAUDPMSG_GENERIC@@KK@Z 00410670 f   dpaccountclient.obj
 0001:0000f760       ??0?$_Tree@V?$_Tmap_traits@KP8CDPAccountClient@@AEXAAVCAr@@PAEK@ZU?$less@K@std@@V?$allocator@U?$pair@$$CBKP8CDPAccountClient@@AEXAAVCAr@@PAEK@Z@std@@@4@$0A@@std@@@std@@QAE@ABU?$less@K@1@ABV?$allocator@U?$pair@$$CBKP8CDPAccountClient@@AEXAAVCAr@@PAEK@Z@std@@@1@@Z 00410760 f i dpaccountclient.obj
 0001:0000f790       ?_Insert@?$_Tree@V?$_Tmap_traits@KP8CDPAccountClient@@AEXAAVCAr@@PAEK@ZU?$less@K@std@@V?$allocator@U?$pair@$$CBKP8CDPAccountClient@@AEXAAVCAr@@PAEK@Z@std@@@4@$0A@@std@@@std@@IAE?AViterator@12@_NPAU_Node@?$_Tree_nod@V?$_Tmap_traits@KP8CDPAccountClient@@AEXAAVCAr@@PAEK@ZU?$less@K@std@@V?$allocator@U?$pair@$$CBKP8CDPAccountClient@@AEXAAVCAr@@PAEK@Z@std@@@4@$0A@@std@@@2@ABU?$pair@$$CBKP8CDPAccountClient@@AEXAAVCAr@@PAEK@Z@2@@Z 00410790 f i dpaccountclient.obj
 0001:0000f940       ?erase@?$_Tree@V?$_Tmap_traits@KP8CDPAccountClient@@AEXAAVCAr@@PAEK@ZU?$less@K@std@@V?$allocator@U?$pair@$$CBKP8CDPAccountClient@@AEXAAVCAr@@PAEK@Z@std@@@4@$0A@@std@@@std@@QAE?AViterator@12@V312@@Z 00410940 f i dpaccountclient.obj
 0001:0000fc00       ?insert@?$_Tree@V?$_Tmap_traits@KP8CDPAccountClient@@AEXAAVCAr@@PAEK@ZU?$less@K@std@@V?$allocator@U?$pair@$$CBKP8CDPAccountClient@@AEXAAVCAr@@PAEK@Z@std@@@4@$0A@@std@@@std@@QAE?AU?$pair@Viterator@?$_Tree@V?$_Tmap_traits@KP8CDPAccountClient@@AEXAAVCAr@@PAEK@ZU?$less@K@std@@V?$allocator@U?$pair@$$CBKP8CDPAccountClient@@AEXAAVCAr@@PAEK@Z@std@@@4@$0A@@std@@@std@@_N@2@ABU?$pair@$$CBKP8CDPAccountClient@@AEXAAVCAr@@PAEK@Z@2@@Z 00410c00 f i dpaccountclient.obj
 0001:0000fcc0       ?erase@?$_Tree@V?$_Tmap_traits@KP8CDPAccountClient@@AEXAAVCAr@@PAEK@ZU?$less@K@std@@V?$allocator@U?$pair@$$CBKP8CDPAccountClient@@AEXAAVCAr@@PAEK@Z@std@@@4@$0A@@std@@@std@@QAE?AViterator@12@V312@0@Z 00410cc0 f i dpaccountclient.obj
 0001:0000fd80       ?_Tidy@?$_Tree@V?$_Tmap_traits@KP8CDPAccountClient@@AEXAAVCAr@@PAEK@ZU?$less@K@std@@V?$allocator@U?$pair@$$CBKP8CDPAccountClient@@AEXAAVCAr@@PAEK@Z@std@@@4@$0A@@std@@@std@@IAEXXZ 00410d80 f i dpaccountclient.obj
 0001:0000fdb0       ??1?$_Tree@V?$_Tmap_traits@KP8CDPAccountClient@@AEXAAVCAr@@PAEK@ZU?$less@K@std@@V?$allocator@U?$pair@$$CBKP8CDPAccountClient@@AEXAAVCAr@@PAEK@Z@std@@@4@$0A@@std@@@std@@QAE@XZ 00410db0 f i dpaccountclient.obj
 0001:0000fde0       ??1?$map@KP8CDPAccountClient@@AEXAAVCAr@@PAEK@ZU?$less@K@std@@V?$allocator@U?$pair@$$CBKP8CDPAccountClient@@AEXAAVCAr@@PAEK@Z@std@@@4@@std@@QAE@XZ 00410de0 f i dpaccountclient.obj
 0001:0000fe10       ??1CDPAccountClient@@UAE@XZ 00410e10 f   dpaccountclient.obj
 0001:0000fe90       ??0?$map@KP8CDPAccountClient@@AEXAAVCAr@@PAEK@ZU?$less@K@std@@V?$allocator@U?$pair@$$CBKP8CDPAccountClient@@AEXAAVCAr@@PAEK@Z@std@@@4@@std@@QAE@XZ 00410e90 f i dpaccountclient.obj
 0001:0000fec0       ??0CDPAccountClient@@QAE@XZ 00410ec0 f   dpaccountclient.obj
 0001:00010050       ??_ECDPAccountClient@@UAEPAXI@Z 00411050 f i dpaccountclient.obj
 0001:00010050       ??_GCDPAccountClient@@UAEPAXI@Z 00411050 f i dpaccountclient.obj
 0001:00010070       ?OnRemoveConnection@CDPCoreSrvr@@QAEXK@Z 00411070 f   DPCoreSrvr.obj
 0001:00010080       ?OnCreateGuild@CDPCoreSrvr@@AAEXAAVCAr@@PAEK@Z 00411080 f   DPCoreSrvr.obj
 0001:000100d0       ?OnDestroyGuild@CDPCoreSrvr@@AAEXAAVCAr@@PAEK@Z 004110d0 f   DPCoreSrvr.obj
 0001:00010120       ?OnAddGuildMember@CDPCoreSrvr@@AAEXAAVCAr@@PAEK@Z 00411120 f   DPCoreSrvr.obj
 0001:00010170       ?OnRemoveGuildMember@CDPCoreSrvr@@AAEXAAVCAr@@PAEK@Z 00411170 f   DPCoreSrvr.obj
 0001:000101c0       ?OnGuildMemberLv@CDPCoreSrvr@@AAEXAAVCAr@@PAEK@Z 004111c0 f   DPCoreSrvr.obj
 0001:00010210       ?OnGuildClass@CDPCoreSrvr@@AAEXAAVCAr@@PAEK@Z 00411210 f   DPCoreSrvr.obj
 0001:00010260       ?OnGuildNickName@CDPCoreSrvr@@AAEXAAVCAr@@PAEK@Z 00411260 f   DPCoreSrvr.obj
 0001:000102b0       ?OnChgMaster@CDPCoreSrvr@@AAEXAAVCAr@@PAEK@Z 004112b0 f   DPCoreSrvr.obj
 0001:00010300       ?OnGuildLogo@CDPCoreSrvr@@AAEXAAVCAr@@PAEK@Z 00411300 f   DPCoreSrvr.obj
 0001:00010350       ?OnGuildNotice@CDPCoreSrvr@@AAEXAAVCAr@@PAEK@Z 00411350 f   DPCoreSrvr.obj
 0001:000103a0       ?OnAddVote@CDPCoreSrvr@@AAEXAAVCAr@@PAEK@Z 004113a0 f   DPCoreSrvr.obj
 0001:000103f0       ?OnRemoveVote@CDPCoreSrvr@@AAEXAAVCAr@@PAEK@Z 004113f0 f   DPCoreSrvr.obj
 0001:00010440       ?OnCloseVote@CDPCoreSrvr@@AAEXAAVCAr@@PAEK@Z 00411440 f   DPCoreSrvr.obj
 0001:00010490       ?OnCastVote@CDPCoreSrvr@@AAEXAAVCAr@@PAEK@Z 00411490 f   DPCoreSrvr.obj
 0001:000104e0       ?OnGuildAuthority@CDPCoreSrvr@@AAEXAAVCAr@@PAEK@Z 004114e0 f   DPCoreSrvr.obj
 0001:00010530       ?OnGuildPenya@CDPCoreSrvr@@AAEXAAVCAr@@PAEK@Z 00411530 f   DPCoreSrvr.obj
 0001:00010580       ?OnGuildSetName@CDPCoreSrvr@@AAEXAAVCAr@@PAEK@Z 00411580 f   DPCoreSrvr.obj
 0001:000105d0       ?OnAcptWar@CDPCoreSrvr@@AAEXAAVCAr@@PAEK@Z 004115d0 f   DPCoreSrvr.obj
 0001:00010620       ?OnWarEnd@CDPCoreSrvr@@AAEXAAVCAr@@PAEK@Z 00411620 f   DPCoreSrvr.obj
 0001:00010670       ?OnSurrender@CDPCoreSrvr@@AAEXAAVCAr@@PAEK@Z 00411670 f   DPCoreSrvr.obj
 0001:000106c0       ?OnWarDead@CDPCoreSrvr@@AAEXAAVCAr@@PAEK@Z 004116c0 f   DPCoreSrvr.obj
 0001:00010710       ?OnWarMasterAbsent@CDPCoreSrvr@@AAEXAAVCAr@@PAEK@Z 00411710 f   DPCoreSrvr.obj
 0001:00010760       ?OnAddPartyName@CDPCoreSrvr@@AAEXAAVCAr@@PAEK@Z 00411760 f   DPCoreSrvr.obj
 0001:000107b0       ?OnTag@CDPCoreSrvr@@AAEXAAVCAr@@PAEK@Z 004117b0 f   DPCoreSrvr.obj
 0001:00010800       ?OnWanted@CDPCoreSrvr@@AAEXAAVCAr@@PAEK@Z 00411800 f   DPCoreSrvr.obj
 0001:00010850       ?OnAddMessenger@CDPCoreSrvr@@AAEXAAVCAr@@PAEK@Z 00411850 f   DPCoreSrvr.obj
 0001:000108a0       ?OnDeleteMessenger@CDPCoreSrvr@@AAEXAAVCAr@@PAEK@Z 004118a0 f   DPCoreSrvr.obj
 0001:000108f0       ?OnUpdateMessenger@CDPCoreSrvr@@AAEXAAVCAr@@PAEK@Z 004118f0 f   DPCoreSrvr.obj
 0001:00010940       ?size@?$_Tree@V?$_Tmap_traits@KV?$basic_string@DU?$char_traits@D@std@@V?$allocator@D@2@@std@@U?$less@K@2@V?$allocator@U?$pair@$$CBKV?$basic_string@DU?$char_traits@D@std@@V?$allocator@D@2@@std@@@std@@@2@$0A@@std@@@std@@QBEIXZ 00411940 f i DPCoreSrvr.obj
 0001:00010950       ??0?$pair@$$CBKP8CDPCoreSrvr@@AEXAAVCAr@@PAEK@Z@std@@QAE@ABKABQ8CDPCoreSrvr@@AEXAAVCAr@@PAEK@Z@Z 00411950 f i DPCoreSrvr.obj
 0001:00010970       ?size@?$vector@V?$basic_string@DU?$char_traits@D@std@@V?$allocator@D@2@@std@@V?$allocator@V?$basic_string@DU?$char_traits@D@std@@V?$allocator@D@2@@std@@@2@@std@@QBEIXZ 00411970 f i DPCoreSrvr.obj
 0001:000109a0       ??0?$allocator@V?$basic_string@DU?$char_traits@D@std@@V?$allocator@D@2@@std@@@std@@QAE@XZ 004119a0 f i DPCoreSrvr.obj
 0001:000109b0       ?deallocate@?$allocator@V?$basic_string@DU?$char_traits@D@std@@V?$allocator@D@2@@std@@@std@@QAEXPAV?$basic_string@DU?$char_traits@D@std@@V?$allocator@D@2@@2@I@Z 004119b0 f i DPCoreSrvr.obj
 0001:000109c0       ?_Isnil@?$_Tree@V?$_Tmap_traits@KP8CDPCoreSrvr@@AEXAAVCAr@@PAEK@ZU?$less@K@std@@V?$allocator@U?$pair@$$CBKP8CDPCoreSrvr@@AEXAAVCAr@@PAEK@Z@std@@@4@$0A@@std@@@std@@KAAADPAU_Node@?$_Tree_nod@V?$_Tmap_traits@KP8CDPCoreSrvr@@AEXAAVCAr@@PAEK@ZU?$less@K@std@@V?$allocator@U?$pair@$$CBKP8CDPCoreSrvr@@AEXAAVCAr@@PAEK@Z@std@@@4@$0A@@std@@@2@@Z 004119c0 f i DPCoreSrvr.obj
 0001:000109d0       ?_Left@?$_Tree@V?$_Tmap_traits@KP8CDPCoreSrvr@@AEXAAVCAr@@PAEK@ZU?$less@K@std@@V?$allocator@U?$pair@$$CBKP8CDPCoreSrvr@@AEXAAVCAr@@PAEK@Z@std@@@4@$0A@@std@@@std@@KAAAPAU_Node@?$_Tree_nod@V?$_Tmap_traits@KP8CDPCoreSrvr@@AEXAAVCAr@@PAEK@ZU?$less@K@std@@V?$allocator@U?$pair@$$CBKP8CDPCoreSrvr@@AEXAAVCAr@@PAEK@Z@std@@@4@$0A@@std@@@2@PAU342@@Z 004119d0 f i DPCoreSrvr.obj
 0001:000109e0       ?_Right@?$_Tree@V?$_Tmap_traits@KP8CDPCoreSrvr@@AEXAAVCAr@@PAEK@ZU?$less@K@std@@V?$allocator@U?$pair@$$CBKP8CDPCoreSrvr@@AEXAAVCAr@@PAEK@Z@std@@@4@$0A@@std@@@std@@KAAAPAU_Node@?$_Tree_nod@V?$_Tmap_traits@KP8CDPCoreSrvr@@AEXAAVCAr@@PAEK@ZU?$less@K@std@@V?$allocator@U?$pair@$$CBKP8CDPCoreSrvr@@AEXAAVCAr@@PAEK@Z@std@@@4@$0A@@std@@@2@PAU342@@Z 004119e0 f i DPCoreSrvr.obj
 0001:000109f0       ?_Kfn@?$_Tmap_traits@KP8CDPCoreSrvr@@AEXAAVCAr@@PAEK@ZU?$less@K@std@@V?$allocator@U?$pair@$$CBKP8CDPCoreSrvr@@AEXAAVCAr@@PAEK@Z@std@@@4@$0A@@std@@SAABKABU?$pair@$$CBKP8CDPCoreSrvr@@AEXAAVCAr@@PAEK@Z@2@@Z 004119f0 f i DPCoreSrvr.obj
 0001:00010a00       ??0?$allocator@U?$pair@$$CBKP8CDPCoreSrvr@@AEXAAVCAr@@PAEK@Z@std@@@std@@QAE@XZ 00411a00 f i DPCoreSrvr.obj
 0001:00010a10       ??8const_iterator@?$_Tree@V?$_Tmap_traits@KP8CDPCoreSrvr@@AEXAAVCAr@@PAEK@ZU?$less@K@std@@V?$allocator@U?$pair@$$CBKP8CDPCoreSrvr@@AEXAAVCAr@@PAEK@Z@std@@@4@$0A@@std@@@std@@QBE_NABV012@@Z 00411a10 f i DPCoreSrvr.obj
 0001:00010a20       ?_Mynode@const_iterator@?$_Tree@V?$_Tmap_traits@KP8CDPCoreSrvr@@AEXAAVCAr@@PAEK@ZU?$less@K@std@@V?$allocator@U?$pair@$$CBKP8CDPCoreSrvr@@AEXAAVCAr@@PAEK@Z@std@@@4@$0A@@std@@@std@@QBEPAU_Node@?$_Tree_nod@V?$_Tmap_traits@KP8CDPCoreSrvr@@AEXAAVCAr@@PAEK@ZU?$less@K@std@@V?$allocator@U?$pair@$$CBKP8CDPCoreSrvr@@AEXAAVCAr@@PAEK@Z@std@@@4@$0A@@std@@@3@XZ 00411a20 f i DPCoreSrvr.obj
 0001:00010a30       ??0?$pair@Viterator@?$_Tree@V?$_Tmap_traits@KP8CDPCoreSrvr@@AEXAAVCAr@@PAEK@ZU?$less@K@std@@V?$allocator@U?$pair@$$CBKP8CDPCoreSrvr@@AEXAAVCAr@@PAEK@Z@std@@@4@$0A@@std@@@std@@_N@std@@QAE@ABViterator@?$_Tree@V?$_Tmap_traits@KP8CDPCoreSrvr@@AEXAAVCAr@@PAEK@ZU?$less@K@std@@V?$allocator@U?$pair@$$CBKP8CDPCoreSrvr@@AEXAAVCAr@@PAEK@Z@std@@@4@$0A@@std@@@1@AB_N@Z 00411a30 f i DPCoreSrvr.obj
 0001:00010a50       ??8const_iterator@?$_Tree@V?$_Tmap_traits@KV?$basic_string@DU?$char_traits@D@std@@V?$allocator@D@2@@std@@U?$less@K@2@V?$allocator@U?$pair@$$CBKV?$basic_string@DU?$char_traits@D@std@@V?$allocator@D@2@@std@@@std@@@2@$0A@@std@@@std@@QBE_NABV012@@Z 00411a50 f i DPCoreSrvr.obj
 0001:00010a60       ?capacity@?$vector@V?$basic_string@DU?$char_traits@D@std@@V?$allocator@D@2@@std@@V?$allocator@V?$basic_string@DU?$char_traits@D@std@@V?$allocator@D@2@@std@@@2@@std@@QBEIXZ 00411a60 f i DPCoreSrvr.obj
 0001:00010a90       ??0?$allocator@V?$basic_string@DU?$char_traits@D@std@@V?$allocator@D@2@@std@@@std@@QAE@ABV01@@Z 00411a90 f i DPCoreSrvr.obj
 0001:00010aa0       ?_Left@?$_Tree@V?$_Tmap_traits@KV?$basic_string@DU?$char_traits@D@std@@V?$allocator@D@2@@std@@U?$less@K@2@V?$allocator@U?$pair@$$CBKV?$basic_string@DU?$char_traits@D@std@@V?$allocator@D@2@@std@@@std@@@2@$0A@@std@@@std@@KAAAPAU_Node@?$_Tree_nod@V?$_Tmap_traits@KV?$basic_string@DU?$char_traits@D@std@@V?$allocator@D@2@@std@@U?$less@K@2@V?$allocator@U?$pair@$$CBKV?$basic_string@DU?$char_traits@D@std@@V?$allocator@D@2@@std@@@std@@@2@$0A@@std@@@2@PAU342@@Z 00411aa0 f i DPCoreSrvr.obj
 0001:00010ab0       ?_Myval@?$_Tree@V?$_Tmap_traits@KV?$basic_string@DU?$char_traits@D@std@@V?$allocator@D@2@@std@@U?$less@K@2@V?$allocator@U?$pair@$$CBKV?$basic_string@DU?$char_traits@D@std@@V?$allocator@D@2@@std@@@std@@@2@$0A@@std@@@std@@KAAAU?$pair@$$CBKV?$basic_string@DU?$char_traits@D@std@@V?$allocator@D@2@@std@@@2@PAU_Node@?$_Tree_nod@V?$_Tmap_traits@KV?$basic_string@DU?$char_traits@D@std@@V?$allocator@D@2@@std@@U?$less@K@2@V?$allocator@U?$pair@$$CBKV?$basic_string@DU?$char_traits@D@std@@V?$allocator@D@2@@std@@@std@@@2@$0A@@std@@@2@@Z 00411ab0 f i DPCoreSrvr.obj
 0001:00010ac0       ?_Color@?$_Tree@V?$_Tmap_traits@KP8CDPCoreSrvr@@AEXAAVCAr@@PAEK@ZU?$less@K@std@@V?$allocator@U?$pair@$$CBKP8CDPCoreSrvr@@AEXAAVCAr@@PAEK@Z@std@@@4@$0A@@std@@@std@@KAAADPAU_Node@?$_Tree_nod@V?$_Tmap_traits@KP8CDPCoreSrvr@@AEXAAVCAr@@PAEK@ZU?$less@K@std@@V?$allocator@U?$pair@$$CBKP8CDPCoreSrvr@@AEXAAVCAr@@PAEK@Z@std@@@4@$0A@@std@@@2@@Z 00411ac0 f i DPCoreSrvr.obj
 0001:00010ad0       ?_Parent@?$_Tree@V?$_Tmap_traits@KP8CDPCoreSrvr@@AEXAAVCAr@@PAEK@ZU?$less@K@std@@V?$allocator@U?$pair@$$CBKP8CDPCoreSrvr@@AEXAAVCAr@@PAEK@Z@std@@@4@$0A@@std@@@std@@KAAAPAU_Node@?$_Tree_nod@V?$_Tmap_traits@KP8CDPCoreSrvr@@AEXAAVCAr@@PAEK@ZU?$less@K@std@@V?$allocator@U?$pair@$$CBKP8CDPCoreSrvr@@AEXAAVCAr@@PAEK@Z@std@@@4@$0A@@std@@@2@PAU342@@Z 00411ad0 f i DPCoreSrvr.obj
 0001:00010ae0       ?_Myval@?$_Tree@V?$_Tmap_traits@KP8CDPCoreSrvr@@AEXAAVCAr@@PAEK@ZU?$less@K@std@@V?$allocator@U?$pair@$$CBKP8CDPCoreSrvr@@AEXAAVCAr@@PAEK@Z@std@@@4@$0A@@std@@@std@@KAAAU?$pair@$$CBKP8CDPCoreSrvr@@AEXAAVCAr@@PAEK@Z@2@PAU_Node@?$_Tree_nod@V?$_Tmap_traits@KP8CDPCoreSrvr@@AEXAAVCAr@@PAEK@ZU?$less@K@std@@V?$allocator@U?$pair@$$CBKP8CDPCoreSrvr@@AEXAAVCAr@@PAEK@Z@std@@@4@$0A@@std@@@2@@Z 00411ae0 f i DPCoreSrvr.obj
 0001:00010af0       ?_Lmost@?$_Tree@V?$_Tmap_traits@KP8CDPCoreSrvr@@AEXAAVCAr@@PAEK@ZU?$less@K@std@@V?$allocator@U?$pair@$$CBKP8CDPCoreSrvr@@AEXAAVCAr@@PAEK@Z@std@@@4@$0A@@std@@@std@@IAEAAPAU_Node@?$_Tree_nod@V?$_Tmap_traits@KP8CDPCoreSrvr@@AEXAAVCAr@@PAEK@ZU?$less@K@std@@V?$allocator@U?$pair@$$CBKP8CDPCoreSrvr@@AEXAAVCAr@@PAEK@Z@std@@@4@$0A@@std@@@2@XZ 00411af0 f i DPCoreSrvr.obj
 0001:00010b00       ?_Rmost@?$_Tree@V?$_Tmap_traits@KP8CDPCoreSrvr@@AEXAAVCAr@@PAEK@ZU?$less@K@std@@V?$allocator@U?$pair@$$CBKP8CDPCoreSrvr@@AEXAAVCAr@@PAEK@Z@std@@@4@$0A@@std@@@std@@IAEAAPAU_Node@?$_Tree_nod@V?$_Tmap_traits@KP8CDPCoreSrvr@@AEXAAVCAr@@PAEK@ZU?$less@K@std@@V?$allocator@U?$pair@$$CBKP8CDPCoreSrvr@@AEXAAVCAr@@PAEK@Z@std@@@4@$0A@@std@@@2@XZ 00411b00 f i DPCoreSrvr.obj
 0001:00010b10       ??0?$allocator@U?$pair@$$CBKP8CDPCoreSrvr@@AEXAAVCAr@@PAEK@Z@std@@@std@@QAE@ABV01@@Z 00411b10 f i DPCoreSrvr.obj
 0001:00010b20       ?deallocate@?$allocator@U_Node@?$_Tree_nod@V?$_Tmap_traits@KP8CDPCoreSrvr@@AEXAAVCAr@@PAEK@ZU?$less@K@std@@V?$allocator@U?$pair@$$CBKP8CDPCoreSrvr@@AEXAAVCAr@@PAEK@Z@std@@@4@$0A@@std@@@std@@@std@@QAEXPAU_Node@?$_Tree_nod@V?$_Tmap_traits@KP8CDPCoreSrvr@@AEXAAVCAr@@PAEK@ZU?$less@K@std@@V?$allocator@U?$pair@$$CBKP8CDPCoreSrvr@@AEXAAVCAr@@PAEK@Z@std@@@4@$0A@@std@@@2@I@Z 00411b20 f i DPCoreSrvr.obj
 0001:00010b30       ??0const_iterator@?$_Tree@V?$_Tmap_traits@KP8CDPCoreSrvr@@AEXAAVCAr@@PAEK@ZU?$less@K@std@@V?$allocator@U?$pair@$$CBKP8CDPCoreSrvr@@AEXAAVCAr@@PAEK@Z@std@@@4@$0A@@std@@@std@@QAE@PAU_Node@?$_Tree_nod@V?$_Tmap_traits@KP8CDPCoreSrvr@@AEXAAVCAr@@PAEK@ZU?$less@K@std@@V?$allocator@U?$pair@$$CBKP8CDPCoreSrvr@@AEXAAVCAr@@PAEK@Z@std@@@4@$0A@@std@@@2@@Z 00411b30 f i DPCoreSrvr.obj
 0001:00010b40       ??Dconst_iterator@?$_Tree@V?$_Tmap_traits@KP8CDPCoreSrvr@@AEXAAVCAr@@PAEK@ZU?$less@K@std@@V?$allocator@U?$pair@$$CBKP8CDPCoreSrvr@@AEXAAVCAr@@PAEK@Z@std@@@4@$0A@@std@@@std@@QBEABU?$pair@$$CBKP8CDPCoreSrvr@@AEXAAVCAr@@PAEK@Z@2@XZ 00411b40 f i DPCoreSrvr.obj
 0001:00010b50       ??0const_iterator@?$_Tree@V?$_Tmap_traits@KV?$basic_string@DU?$char_traits@D@std@@V?$allocator@D@2@@std@@U?$less@K@2@V?$allocator@U?$pair@$$CBKV?$basic_string@DU?$char_traits@D@std@@V?$allocator@D@2@@std@@@std@@@2@$0A@@std@@@std@@QAE@PAU_Node@?$_Tree_nod@V?$_Tmap_traits@KV?$basic_string@DU?$char_traits@D@std@@V?$allocator@D@2@@std@@U?$less@K@2@V?$allocator@U?$pair@$$CBKV?$basic_string@DU?$char_traits@D@std@@V?$allocator@D@2@@std@@@std@@@2@$0A@@std@@@2@@Z 00411b50 f i DPCoreSrvr.obj
 0001:00010b60       ??Yiterator@?$vector@V?$basic_string@DU?$char_traits@D@std@@V?$allocator@D@2@@std@@V?$allocator@V?$basic_string@DU?$char_traits@D@std@@V?$allocator@D@2@@std@@@2@@std@@QAEAAV012@H@Z 00411b60 f i DPCoreSrvr.obj
 0001:00010b80       ??Dconst_iterator@?$vector@V?$basic_string@DU?$char_traits@D@std@@V?$allocator@D@2@@std@@V?$allocator@V?$basic_string@DU?$char_traits@D@std@@V?$allocator@D@2@@std@@@2@@std@@QBEABV?$basic_string@DU?$char_traits@D@std@@V?$allocator@D@2@@2@XZ 00411b80 f i DPCoreSrvr.obj
 0001:00010b90       ?_Isnil@?$_Tree@V?$_Tmap_traits@KV?$basic_string@DU?$char_traits@D@std@@V?$allocator@D@2@@std@@U?$less@K@2@V?$allocator@U?$pair@$$CBKV?$basic_string@DU?$char_traits@D@std@@V?$allocator@D@2@@std@@@std@@@2@$0A@@std@@@std@@KAAADPAU_Node@?$_Tree_nod@V?$_Tmap_traits@KV?$basic_string@DU?$char_traits@D@std@@V?$allocator@D@2@@std@@U?$less@K@2@V?$allocator@U?$pair@$$CBKV?$basic_string@DU?$char_traits@D@std@@V?$allocator@D@2@@std@@@std@@@2@$0A@@std@@@2@@Z 00411b90 f i DPCoreSrvr.obj
 0001:00010ba0       ?_Parent@?$_Tree@V?$_Tmap_traits@KV?$basic_string@DU?$char_traits@D@std@@V?$allocator@D@2@@std@@U?$less@K@2@V?$allocator@U?$pair@$$CBKV?$basic_string@DU?$char_traits@D@std@@V?$allocator@D@2@@std@@@std@@@2@$0A@@std@@@std@@KAAAPAU_Node@?$_Tree_nod@V?$_Tmap_traits@KV?$basic_string@DU?$char_traits@D@std@@V?$allocator@D@2@@std@@U?$less@K@2@V?$allocator@U?$pair@$$CBKV?$basic_string@DU?$char_traits@D@std@@V?$allocator@D@2@@std@@@std@@@2@$0A@@std@@@2@PAU342@@Z 00411ba0 f i DPCoreSrvr.obj
 0001:00010bb0       ?_Right@?$_Tree@V?$_Tmap_traits@KV?$basic_string@DU?$char_traits@D@std@@V?$allocator@D@2@@std@@U?$less@K@2@V?$allocator@U?$pair@$$CBKV?$basic_string@DU?$char_traits@D@std@@V?$allocator@D@2@@std@@@std@@@2@$0A@@std@@@std@@KAAAPAU_Node@?$_Tree_nod@V?$_Tmap_traits@KV?$basic_string@DU?$char_traits@D@std@@V?$allocator@D@2@@std@@U?$less@K@2@V?$allocator@U?$pair@$$CBKV?$basic_string@DU?$char_traits@D@std@@V?$allocator@D@2@@std@@@std@@@2@$0A@@std@@@2@PAU342@@Z 00411bb0 f i DPCoreSrvr.obj
 0001:00010bc0       ?_Min@?$_Tree@V?$_Tmap_traits@KV?$basic_string@DU?$char_traits@D@std@@V?$allocator@D@2@@std@@U?$less@K@2@V?$allocator@U?$pair@$$CBKV?$basic_string@DU?$char_traits@D@std@@V?$allocator@D@2@@std@@@std@@@2@$0A@@std@@@std@@KAPAU_Node@?$_Tree_nod@V?$_Tmap_traits@KV?$basic_string@DU?$char_traits@D@std@@V?$allocator@D@2@@std@@U?$less@K@2@V?$allocator@U?$pair@$$CBKV?$basic_string@DU?$char_traits@D@std@@V?$allocator@D@2@@std@@@std@@@2@$0A@@std@@@2@PAU342@@Z 00411bc0 f i DPCoreSrvr.obj
 0001:00010be0       ?_Root@?$_Tree@V?$_Tmap_traits@KP8CDPCoreSrvr@@AEXAAVCAr@@PAEK@ZU?$less@K@std@@V?$allocator@U?$pair@$$CBKP8CDPCoreSrvr@@AEXAAVCAr@@PAEK@Z@std@@@4@$0A@@std@@@std@@IBEAAPAU_Node@?$_Tree_nod@V?$_Tmap_traits@KP8CDPCoreSrvr@@AEXAAVCAr@@PAEK@ZU?$less@K@std@@V?$allocator@U?$pair@$$CBKP8CDPCoreSrvr@@AEXAAVCAr@@PAEK@Z@std@@@4@$0A@@std@@@2@XZ 00411be0 f i DPCoreSrvr.obj
 0001:00010bf0       ?max_size@?$allocator@U?$pair@$$CBKP8CDPCoreSrvr@@AEXAAVCAr@@PAEK@Z@std@@@std@@QBEIXZ 00411bf0 f i DPCoreSrvr.obj
 0001:00010c00       ??0const_iterator@?$vector@V?$basic_string@DU?$char_traits@D@std@@V?$allocator@D@2@@std@@V?$allocator@V?$basic_string@DU?$char_traits@D@std@@V?$allocator@D@2@@std@@@2@@std@@QAE@PAV?$basic_string@DU?$char_traits@D@std@@V?$allocator@D@2@@2@@Z 00411c00 f i DPCoreSrvr.obj
 0001:00010c10       ??0_Node@?$_Tree_nod@V?$_Tmap_traits@KP8CDPCoreSrvr@@AEXAAVCAr@@PAEK@ZU?$less@K@std@@V?$allocator@U?$pair@$$CBKP8CDPCoreSrvr@@AEXAAVCAr@@PAEK@Z@std@@@4@$0A@@std@@@std@@QAE@PAU012@00ABU?$pair@$$CBKP8CDPCoreSrvr@@AEXAAVCAr@@PAEK@Z@2@D@Z 00411c10 f i DPCoreSrvr.obj
 0001:00010c50       ?_Max@?$_Tree@V?$_Tmap_traits@KP8CDPCoreSrvr@@AEXAAVCAr@@PAEK@ZU?$less@K@std@@V?$allocator@U?$pair@$$CBKP8CDPCoreSrvr@@AEXAAVCAr@@PAEK@Z@std@@@4@$0A@@std@@@std@@KAPAU_Node@?$_Tree_nod@V?$_Tmap_traits@KP8CDPCoreSrvr@@AEXAAVCAr@@PAEK@ZU?$less@K@std@@V?$allocator@U?$pair@$$CBKP8CDPCoreSrvr@@AEXAAVCAr@@PAEK@Z@std@@@4@$0A@@std@@@2@PAU342@@Z 00411c50 f i DPCoreSrvr.obj
 0001:00010c70       ?_Min@?$_Tree@V?$_Tmap_traits@KP8CDPCoreSrvr@@AEXAAVCAr@@PAEK@ZU?$less@K@std@@V?$allocator@U?$pair@$$CBKP8CDPCoreSrvr@@AEXAAVCAr@@PAEK@Z@std@@@4@$0A@@std@@@std@@KAPAU_Node@?$_Tree_nod@V?$_Tmap_traits@KP8CDPCoreSrvr@@AEXAAVCAr@@PAEK@ZU?$less@K@std@@V?$allocator@U?$pair@$$CBKP8CDPCoreSrvr@@AEXAAVCAr@@PAEK@Z@std@@@4@$0A@@std@@@2@PAU342@@Z 00411c70 f i DPCoreSrvr.obj
 0001:00010c90       ??0?$_Tmap_traits@KP8CDPCoreSrvr@@AEXAAVCAr@@PAEK@ZU?$less@K@std@@V?$allocator@U?$pair@$$CBKP8CDPCoreSrvr@@AEXAAVCAr@@PAEK@Z@std@@@4@$0A@@std@@QAE@U?$less@K@1@@Z 00411c90 f i DPCoreSrvr.obj
 0001:00010ca0       ?_Inc@const_iterator@?$_Tree@V?$_Tmap_traits@KP8CDPCoreSrvr@@AEXAAVCAr@@PAEK@ZU?$less@K@std@@V?$allocator@U?$pair@$$CBKP8CDPCoreSrvr@@AEXAAVCAr@@PAEK@Z@std@@@4@$0A@@std@@@std@@QAEXXZ 00411ca0 f i DPCoreSrvr.obj
 0001:00010d00       ??$_Allocate@V?$basic_string@DU?$char_traits@D@std@@V?$allocator@D@2@@std@@@std@@YAPAV?$basic_string@DU?$char_traits@D@std@@V?$allocator@D@2@@0@IPAV10@@Z 00411d00 f i DPCoreSrvr.obj
 0001:00010d20       ??$_Destroy@PAU_Node@?$_Tree_nod@V?$_Tmap_traits@KP8CDPCoreSrvr@@AEXAAVCAr@@PAEK@ZU?$less@K@std@@V?$allocator@U?$pair@$$CBKP8CDPCoreSrvr@@AEXAAVCAr@@PAEK@Z@std@@@4@$0A@@std@@@std@@@std@@YAXPAPAU_Node@?$_Tree_nod@V?$_Tmap_traits@KP8CDPCoreSrvr@@AEXAAVCAr@@PAEK@ZU?$less@K@std@@V?$allocator@U?$pair@$$CBKP8CDPCoreSrvr@@AEXAAVCAr@@PAEK@Z@std@@@4@$0A@@std@@@0@@Z 00411d20 f i DPCoreSrvr.obj
 0001:00010d30       ??$?0U?$pair@$$CBKP8CDPCoreSrvr@@AEXAAVCAr@@PAEK@Z@std@@@?$allocator@PAU_Node@?$_Tree_nod@V?$_Tmap_traits@KP8CDPCoreSrvr@@AEXAAVCAr@@PAEK@ZU?$less@K@std@@V?$allocator@U?$pair@$$CBKP8CDPCoreSrvr@@AEXAAVCAr@@PAEK@Z@std@@@4@$0A@@std@@@std@@@std@@QAE@ABV?$allocator@U?$pair@$$CBKP8CDPCoreSrvr@@AEXAAVCAr@@PAEK@Z@std@@@1@@Z 00411d30 f i DPCoreSrvr.obj
 0001:00010d40       ??$_Allocate@U_Node@?$_Tree_nod@V?$_Tmap_traits@KP8CDPCoreSrvr@@AEXAAVCAr@@PAEK@ZU?$less@K@std@@V?$allocator@U?$pair@$$CBKP8CDPCoreSrvr@@AEXAAVCAr@@PAEK@Z@std@@@4@$0A@@std@@@std@@@std@@YAPAU_Node@?$_Tree_nod@V?$_Tmap_traits@KP8CDPCoreSrvr@@AEXAAVCAr@@PAEK@ZU?$less@K@std@@V?$allocator@U?$pair@$$CBKP8CDPCoreSrvr@@AEXAAVCAr@@PAEK@Z@std@@@4@$0A@@std@@@0@IPAU120@@Z 00411d40 f i DPCoreSrvr.obj
 0001:00010d60       ??$?0U?$pair@$$CBKP8CDPCoreSrvr@@AEXAAVCAr@@PAEK@Z@std@@@?$allocator@U_Node@?$_Tree_nod@V?$_Tmap_traits@KP8CDPCoreSrvr@@AEXAAVCAr@@PAEK@ZU?$less@K@std@@V?$allocator@U?$pair@$$CBKP8CDPCoreSrvr@@AEXAAVCAr@@PAEK@Z@std@@@4@$0A@@std@@@std@@@std@@QAE@ABV?$allocator@U?$pair@$$CBKP8CDPCoreSrvr@@AEXAAVCAr@@PAEK@Z@std@@@1@@Z 00411d60 f i DPCoreSrvr.obj
 0001:00010d70       ??$_Destroy@U_Node@?$_Tree_nod@V?$_Tmap_traits@KP8CDPCoreSrvr@@AEXAAVCAr@@PAEK@ZU?$less@K@std@@V?$allocator@U?$pair@$$CBKP8CDPCoreSrvr@@AEXAAVCAr@@PAEK@Z@std@@@4@$0A@@std@@@std@@@std@@YAXPAU_Node@?$_Tree_nod@V?$_Tmap_traits@KP8CDPCoreSrvr@@AEXAAVCAr@@PAEK@ZU?$less@K@std@@V?$allocator@U?$pair@$$CBKP8CDPCoreSrvr@@AEXAAVCAr@@PAEK@Z@std@@@4@$0A@@std@@@0@@Z 00411d70 f i DPCoreSrvr.obj
 0001:00010d80       ??$_Construct@PAU_Node@?$_Tree_nod@V?$_Tmap_traits@KP8CDPCoreSrvr@@AEXAAVCAr@@PAEK@ZU?$less@K@std@@V?$allocator@U?$pair@$$CBKP8CDPCoreSrvr@@AEXAAVCAr@@PAEK@Z@std@@@4@$0A@@std@@@std@@PAU123@@std@@YAXPAPAU_Node@?$_Tree_nod@V?$_Tmap_traits@KP8CDPCoreSrvr@@AEXAAVCAr@@PAEK@ZU?$less@K@std@@V?$allocator@U?$pair@$$CBKP8CDPCoreSrvr@@AEXAAVCAr@@PAEK@Z@std@@@4@$0A@@std@@@0@ABQAU120@@Z 00411d80 f i DPCoreSrvr.obj
 0001:00010da0       ??$_Ptr_cat@PAV?$basic_string@DU?$char_traits@D@std@@V?$allocator@D@2@@std@@PAV12@@std@@YA?AU_Nonscalar_ptr_iterator_tag@0@AAPAV?$basic_string@DU?$char_traits@D@std@@V?$allocator@D@2@@0@0@Z 00411da0 f i DPCoreSrvr.obj
 0001:00010db0       ??6CAr@@QAEAAV0@E@Z        00411db0 f i DPCoreSrvr.obj
 0001:00010dd0       ?SendAddVoteResult@CDPCoreSrvr@@QAEXAAUVOTE_INSERTED_INFO@@@Z 00411dd0 f   DPCoreSrvr.obj
 0001:00010eb0       ?SendTagResult@CDPCoreSrvr@@QAEXKE@Z 00411eb0 f   DPCoreSrvr.obj
 0001:00010fc0       ?SendDelPlayer@CDPCoreSrvr@@QAEXKK@Z 00411fc0 f   DPCoreSrvr.obj
 0001:000110d0       ?SendMemberTime@CDPCoreSrvr@@QAEXKPBD@Z 004120d0 f   DPCoreSrvr.obj
 0001:000111d0       ?SendBuyingInfo@CDPCoreSrvr@@QAEXPAU_BUYING_INFO2@@@Z 004121d0 f   DPCoreSrvr.obj
 0001:000112b0       ?OnSnoopGuild@CDPCoreSrvr@@AAEXAAVCAr@@PAEK@Z 004122b0 f   DPCoreSrvr.obj
 0001:00011370       ?SendUpdatePlayerData@CDPCoreSrvr@@QAEXKPAU_PlayerData@@@Z 00412370 f   DPCoreSrvr.obj
 0001:00011470       ?SendRemovePlayerFriend@CDPCoreSrvr@@QAEXKK@Z 00412470 f   DPCoreSrvr.obj
 0001:00011580       ??9const_iterator@?$_Tree@V?$_Tmap_traits@KP8CDPCoreSrvr@@AEXAAVCAr@@PAEK@ZU?$less@K@std@@V?$allocator@U?$pair@$$CBKP8CDPCoreSrvr@@AEXAAVCAr@@PAEK@Z@std@@@4@$0A@@std@@@std@@QBE_NABV012@@Z 00412580 f i DPCoreSrvr.obj
 0001:000115a0       ??9const_iterator@?$_Tree@V?$_Tmap_traits@KV?$basic_string@DU?$char_traits@D@std@@V?$allocator@D@2@@std@@U?$less@K@2@V?$allocator@U?$pair@$$CBKV?$basic_string@DU?$char_traits@D@std@@V?$allocator@D@2@@std@@@std@@@2@$0A@@std@@@std@@QBE_NABV012@@Z 004125a0 f i DPCoreSrvr.obj
 0001:000115c0       ?_Lmost@?$_Tree@V?$_Tmap_traits@KV?$basic_string@DU?$char_traits@D@std@@V?$allocator@D@2@@std@@U?$less@K@2@V?$allocator@U?$pair@$$CBKV?$basic_string@DU?$char_traits@D@std@@V?$allocator@D@2@@std@@@std@@@2@$0A@@std@@@std@@IAEAAPAU_Node@?$_Tree_nod@V?$_Tmap_traits@KV?$basic_string@DU?$char_traits@D@std@@V?$allocator@D@2@@std@@U?$less@K@2@V?$allocator@U?$pair@$$CBKV?$basic_string@DU?$char_traits@D@std@@V?$allocator@D@2@@std@@@std@@@2@$0A@@std@@@2@XZ 004125c0 f i DPCoreSrvr.obj
 0001:000115d0       ?_Key@?$_Tree@V?$_Tmap_traits@KP8CDPCoreSrvr@@AEXAAVCAr@@PAEK@ZU?$less@K@std@@V?$allocator@U?$pair@$$CBKP8CDPCoreSrvr@@AEXAAVCAr@@PAEK@Z@std@@@4@$0A@@std@@@std@@KAABKPAU_Node@?$_Tree_nod@V?$_Tmap_traits@KP8CDPCoreSrvr@@AEXAAVCAr@@PAEK@ZU?$less@K@std@@V?$allocator@U?$pair@$$CBKP8CDPCoreSrvr@@AEXAAVCAr@@PAEK@Z@std@@@4@$0A@@std@@@2@@Z 004125d0 f i DPCoreSrvr.obj
 0001:000115e0       ?_Root@?$_Tree@V?$_Tmap_traits@KP8CDPCoreSrvr@@AEXAAVCAr@@PAEK@ZU?$less@K@std@@V?$allocator@U?$pair@$$CBKP8CDPCoreSrvr@@AEXAAVCAr@@PAEK@Z@std@@@4@$0A@@std@@@std@@IAEAAPAU_Node@?$_Tree_nod@V?$_Tmap_traits@KP8CDPCoreSrvr@@AEXAAVCAr@@PAEK@ZU?$less@K@std@@V?$allocator@U?$pair@$$CBKP8CDPCoreSrvr@@AEXAAVCAr@@PAEK@Z@std@@@4@$0A@@std@@@2@XZ 004125e0 f i DPCoreSrvr.obj
 0001:000115f0       ??0iterator@?$_Tree@V?$_Tmap_traits@KP8CDPCoreSrvr@@AEXAAVCAr@@PAEK@ZU?$less@K@std@@V?$allocator@U?$pair@$$CBKP8CDPCoreSrvr@@AEXAAVCAr@@PAEK@Z@std@@@4@$0A@@std@@@std@@QAE@PAU_Node@?$_Tree_nod@V?$_Tmap_traits@KP8CDPCoreSrvr@@AEXAAVCAr@@PAEK@ZU?$less@K@std@@V?$allocator@U?$pair@$$CBKP8CDPCoreSrvr@@AEXAAVCAr@@PAEK@Z@std@@@4@$0A@@std@@@2@@Z 004125f0 f i DPCoreSrvr.obj
 0001:00011600       ??Diterator@?$_Tree@V?$_Tmap_traits@KP8CDPCoreSrvr@@AEXAAVCAr@@PAEK@ZU?$less@K@std@@V?$allocator@U?$pair@$$CBKP8CDPCoreSrvr@@AEXAAVCAr@@PAEK@Z@std@@@4@$0A@@std@@@std@@QBEAAU?$pair@$$CBKP8CDPCoreSrvr@@AEXAAVCAr@@PAEK@Z@2@XZ 00412600 f i DPCoreSrvr.obj
 0001:00011610       ??0iterator@?$_Tree@V?$_Tmap_traits@KV?$basic_string@DU?$char_traits@D@std@@V?$allocator@D@2@@std@@U?$less@K@2@V?$allocator@U?$pair@$$CBKV?$basic_string@DU?$char_traits@D@std@@V?$allocator@D@2@@std@@@std@@@2@$0A@@std@@@std@@QAE@PAU_Node@?$_Tree_nod@V?$_Tmap_traits@KV?$basic_string@DU?$char_traits@D@std@@V?$allocator@D@2@@std@@U?$less@K@2@V?$allocator@U?$pair@$$CBKV?$basic_string@DU?$char_traits@D@std@@V?$allocator@D@2@@std@@@std@@@2@$0A@@std@@@2@@Z 00412610 f i DPCoreSrvr.obj
 0001:00011620       ??Dconst_iterator@?$_Tree@V?$_Tmap_traits@KV?$basic_string@DU?$char_traits@D@std@@V?$allocator@D@2@@std@@U?$less@K@2@V?$allocator@U?$pair@$$CBKV?$basic_string@DU?$char_traits@D@std@@V?$allocator@D@2@@std@@@std@@@2@$0A@@std@@@std@@QBEABU?$pair@$$CBKV?$basic_string@DU?$char_traits@D@std@@V?$allocator@D@2@@std@@@2@XZ 00412620 f i DPCoreSrvr.obj
 0001:00011630       ??0?$_Vector_val@V?$basic_string@DU?$char_traits@D@std@@V?$allocator@D@2@@std@@V?$allocator@V?$basic_string@DU?$char_traits@D@std@@V?$allocator@D@2@@std@@@2@@std@@IAE@V?$allocator@V?$basic_string@DU?$char_traits@D@std@@V?$allocator@D@2@@std@@@1@@Z 00412630 f i DPCoreSrvr.obj
 0001:00011640       ??Diterator@?$vector@V?$basic_string@DU?$char_traits@D@std@@V?$allocator@D@2@@std@@V?$allocator@V?$basic_string@DU?$char_traits@D@std@@V?$allocator@D@2@@std@@@2@@std@@QBEAAV?$basic_string@DU?$char_traits@D@std@@V?$allocator@D@2@@2@XZ 00412640 f i DPCoreSrvr.obj
 0001:00011650       ??Hiterator@?$vector@V?$basic_string@DU?$char_traits@D@std@@V?$allocator@D@2@@std@@V?$allocator@V?$basic_string@DU?$char_traits@D@std@@V?$allocator@D@2@@std@@@2@@std@@QBE?AV012@H@Z 00412650 f i DPCoreSrvr.obj
 0001:00011670       ?allocate@?$allocator@V?$basic_string@DU?$char_traits@D@std@@V?$allocator@D@2@@std@@@std@@QAEPAV?$basic_string@DU?$char_traits@D@std@@V?$allocator@D@2@@2@I@Z 00412670 f i DPCoreSrvr.obj
 0001:00011690       ?max_size@?$_Tree@V?$_Tmap_traits@KP8CDPCoreSrvr@@AEXAAVCAr@@PAEK@ZU?$less@K@std@@V?$allocator@U?$pair@$$CBKP8CDPCoreSrvr@@AEXAAVCAr@@PAEK@Z@std@@@4@$0A@@std@@@std@@QBEIXZ 00412690 f i DPCoreSrvr.obj
 0001:000116a0       ?_Lbound@?$_Tree@V?$_Tmap_traits@KP8CDPCoreSrvr@@AEXAAVCAr@@PAEK@ZU?$less@K@std@@V?$allocator@U?$pair@$$CBKP8CDPCoreSrvr@@AEXAAVCAr@@PAEK@Z@std@@@4@$0A@@std@@@std@@IBEPAU_Node@?$_Tree_nod@V?$_Tmap_traits@KP8CDPCoreSrvr@@AEXAAVCAr@@PAEK@ZU?$less@K@std@@V?$allocator@U?$pair@$$CBKP8CDPCoreSrvr@@AEXAAVCAr@@PAEK@Z@std@@@4@$0A@@std@@@2@ABK@Z 004126a0 f i DPCoreSrvr.obj
 0001:000116d0       ?_Lrotate@?$_Tree@V?$_Tmap_traits@KP8CDPCoreSrvr@@AEXAAVCAr@@PAEK@ZU?$less@K@std@@V?$allocator@U?$pair@$$CBKP8CDPCoreSrvr@@AEXAAVCAr@@PAEK@Z@std@@@4@$0A@@std@@@std@@IAEXPAU_Node@?$_Tree_nod@V?$_Tmap_traits@KP8CDPCoreSrvr@@AEXAAVCAr@@PAEK@ZU?$less@K@std@@V?$allocator@U?$pair@$$CBKP8CDPCoreSrvr@@AEXAAVCAr@@PAEK@Z@std@@@4@$0A@@std@@@2@@Z 004126d0 f i DPCoreSrvr.obj
 0001:00011730       ?_Rrotate@?$_Tree@V?$_Tmap_traits@KP8CDPCoreSrvr@@AEXAAVCAr@@PAEK@ZU?$less@K@std@@V?$allocator@U?$pair@$$CBKP8CDPCoreSrvr@@AEXAAVCAr@@PAEK@Z@std@@@4@$0A@@std@@@std@@IAEXPAU_Node@?$_Tree_nod@V?$_Tmap_traits@KP8CDPCoreSrvr@@AEXAAVCAr@@PAEK@ZU?$less@K@std@@V?$allocator@U?$pair@$$CBKP8CDPCoreSrvr@@AEXAAVCAr@@PAEK@Z@std@@@4@$0A@@std@@@2@@Z 00412730 f i DPCoreSrvr.obj
 0001:00011790       ?destroy@?$allocator@PAU_Node@?$_Tree_nod@V?$_Tmap_traits@KP8CDPCoreSrvr@@AEXAAVCAr@@PAEK@ZU?$less@K@std@@V?$allocator@U?$pair@$$CBKP8CDPCoreSrvr@@AEXAAVCAr@@PAEK@Z@std@@@4@$0A@@std@@@std@@@std@@QAEXPAPAU_Node@?$_Tree_nod@V?$_Tmap_traits@KP8CDPCoreSrvr@@AEXAAVCAr@@PAEK@ZU?$less@K@std@@V?$allocator@U?$pair@$$CBKP8CDPCoreSrvr@@AEXAAVCAr@@PAEK@Z@std@@@4@$0A@@std@@@2@@Z 00412790 f i DPCoreSrvr.obj
 0001:000117a0       ?_Inc@const_iterator@?$_Tree@V?$_Tmap_traits@KV?$basic_string@DU?$char_traits@D@std@@V?$allocator@D@2@@std@@U?$less@K@2@V?$allocator@U?$pair@$$CBKV?$basic_string@DU?$char_traits@D@std@@V?$allocator@D@2@@std@@@std@@@2@$0A@@std@@@std@@QAEXXZ 004127a0 f i DPCoreSrvr.obj
 0001:00011800       ?max_size@?$vector@V?$basic_string@DU?$char_traits@D@std@@V?$allocator@D@2@@std@@V?$allocator@V?$basic_string@DU?$char_traits@D@std@@V?$allocator@D@2@@std@@@2@@std@@QBEIXZ 00412800 f i DPCoreSrvr.obj
 0001:00011810       ??0iterator@?$vector@V?$basic_string@DU?$char_traits@D@std@@V?$allocator@D@2@@std@@V?$allocator@V?$basic_string@DU?$char_traits@D@std@@V?$allocator@D@2@@std@@@2@@std@@QAE@PAV?$basic_string@DU?$char_traits@D@std@@V?$allocator@D@2@@2@@Z 00412810 f i DPCoreSrvr.obj
 0001:00011820       ?allocate@?$allocator@U_Node@?$_Tree_nod@V?$_Tmap_traits@KP8CDPCoreSrvr@@AEXAAVCAr@@PAEK@ZU?$less@K@std@@V?$allocator@U?$pair@$$CBKP8CDPCoreSrvr@@AEXAAVCAr@@PAEK@Z@std@@@4@$0A@@std@@@std@@@std@@QAEPAU_Node@?$_Tree_nod@V?$_Tmap_traits@KP8CDPCoreSrvr@@AEXAAVCAr@@PAEK@ZU?$less@K@std@@V?$allocator@U?$pair@$$CBKP8CDPCoreSrvr@@AEXAAVCAr@@PAEK@Z@std@@@4@$0A@@std@@@2@I@Z 00412820 f i DPCoreSrvr.obj
 0001:00011840       ?_Dec@const_iterator@?$_Tree@V?$_Tmap_traits@KP8CDPCoreSrvr@@AEXAAVCAr@@PAEK@ZU?$less@K@std@@V?$allocator@U?$pair@$$CBKP8CDPCoreSrvr@@AEXAAVCAr@@PAEK@Z@std@@@4@$0A@@std@@@std@@QAEXXZ 00412840 f i DPCoreSrvr.obj
 0001:000118a0       ??0?$_Tree_nod@V?$_Tmap_traits@KP8CDPCoreSrvr@@AEXAAVCAr@@PAEK@ZU?$less@K@std@@V?$allocator@U?$pair@$$CBKP8CDPCoreSrvr@@AEXAAVCAr@@PAEK@Z@std@@@4@$0A@@std@@@std@@IAE@ABU?$less@K@1@V?$allocator@U?$pair@$$CBKP8CDPCoreSrvr@@AEXAAVCAr@@PAEK@Z@std@@@1@@Z 004128a0 f i DPCoreSrvr.obj
 0001:000118b0       ?destroy@?$allocator@U_Node@?$_Tree_nod@V?$_Tmap_traits@KP8CDPCoreSrvr@@AEXAAVCAr@@PAEK@ZU?$less@K@std@@V?$allocator@U?$pair@$$CBKP8CDPCoreSrvr@@AEXAAVCAr@@PAEK@Z@std@@@4@$0A@@std@@@std@@@std@@QAEXPAU_Node@?$_Tree_nod@V?$_Tmap_traits@KP8CDPCoreSrvr@@AEXAAVCAr@@PAEK@ZU?$less@K@std@@V?$allocator@U?$pair@$$CBKP8CDPCoreSrvr@@AEXAAVCAr@@PAEK@Z@std@@@4@$0A@@std@@@2@@Z 004128b0 f i DPCoreSrvr.obj
 0001:000118c0       ?construct@?$allocator@PAU_Node@?$_Tree_nod@V?$_Tmap_traits@KP8CDPCoreSrvr@@AEXAAVCAr@@PAEK@ZU?$less@K@std@@V?$allocator@U?$pair@$$CBKP8CDPCoreSrvr@@AEXAAVCAr@@PAEK@Z@std@@@4@$0A@@std@@@std@@@std@@QAEXPAPAU_Node@?$_Tree_nod@V?$_Tmap_traits@KP8CDPCoreSrvr@@AEXAAVCAr@@PAEK@ZU?$less@K@std@@V?$allocator@U?$pair@$$CBKP8CDPCoreSrvr@@AEXAAVCAr@@PAEK@Z@std@@@4@$0A@@std@@@2@ABQAU342@@Z 004128c0 f i DPCoreSrvr.obj
 0001:000118e0       ??Econst_iterator@?$_Tree@V?$_Tmap_traits@KP8CDPCoreSrvr@@AEXAAVCAr@@PAEK@ZU?$less@K@std@@V?$allocator@U?$pair@$$CBKP8CDPCoreSrvr@@AEXAAVCAr@@PAEK@Z@std@@@4@$0A@@std@@@std@@QAEAAV012@XZ 004128e0 f i DPCoreSrvr.obj
 0001:000118f0       ??6CAr@@QAEAAV0@I@Z        004128f0 f i DPCoreSrvr.obj
 0001:00011910       ?SendSetPlayerName@CDPCoreSrvr@@QAEXKPBDKH@Z 00412910 f   DPCoreSrvr.obj
 0001:00011a50       ?data@?$basic_string@DU?$char_traits@D@std@@V?$allocator@D@2@@std@@QBEPBDXZ 00412a50 f i DPCoreSrvr.obj
 0001:00011a60       ?begin@?$_Tree@V?$_Tmap_traits@KV?$basic_string@DU?$char_traits@D@std@@V?$allocator@D@2@@std@@U?$less@K@2@V?$allocator@U?$pair@$$CBKV?$basic_string@DU?$char_traits@D@std@@V?$allocator@D@2@@std@@@std@@@2@$0A@@std@@@std@@QAE?AViterator@12@XZ 00412a60 f i DPCoreSrvr.obj
 0001:00011a70       ?end@?$_Tree@V?$_Tmap_traits@KV?$basic_string@DU?$char_traits@D@std@@V?$allocator@D@2@@std@@U?$less@K@2@V?$allocator@U?$pair@$$CBKV?$basic_string@DU?$char_traits@D@std@@V?$allocator@D@2@@std@@@std@@@2@$0A@@std@@@std@@QAE?AViterator@12@XZ 00412a70 f i DPCoreSrvr.obj
 0001:00011a80       ?end@?$_Tree@V?$_Tmap_traits@KP8CDPCoreSrvr@@AEXAAVCAr@@PAEK@ZU?$less@K@std@@V?$allocator@U?$pair@$$CBKP8CDPCoreSrvr@@AEXAAVCAr@@PAEK@Z@std@@@4@$0A@@std@@@std@@QAE?AViterator@12@XZ 00412a80 f i DPCoreSrvr.obj
 0001:00011a90       ??Citerator@?$_Tree@V?$_Tmap_traits@KP8CDPCoreSrvr@@AEXAAVCAr@@PAEK@ZU?$less@K@std@@V?$allocator@U?$pair@$$CBKP8CDPCoreSrvr@@AEXAAVCAr@@PAEK@Z@std@@@4@$0A@@std@@@std@@QBEPAU?$pair@$$CBKP8CDPCoreSrvr@@AEXAAVCAr@@PAEK@Z@2@XZ 00412a90 f i DPCoreSrvr.obj
 0001:00011aa0       ??Diterator@?$_Tree@V?$_Tmap_traits@KV?$basic_string@DU?$char_traits@D@std@@V?$allocator@D@2@@std@@U?$less@K@2@V?$allocator@U?$pair@$$CBKV?$basic_string@DU?$char_traits@D@std@@V?$allocator@D@2@@std@@@std@@@2@$0A@@std@@@std@@QBEAAU?$pair@$$CBKV?$basic_string@DU?$char_traits@D@std@@V?$allocator@D@2@@std@@@2@XZ 00412aa0 f i DPCoreSrvr.obj
 0001:00011ab0       ?begin@?$_Tree@V?$_Tmap_traits@KP8CDPCoreSrvr@@AEXAAVCAr@@PAEK@ZU?$less@K@std@@V?$allocator@U?$pair@$$CBKP8CDPCoreSrvr@@AEXAAVCAr@@PAEK@Z@std@@@4@$0A@@std@@@std@@QAE?AViterator@12@XZ 00412ab0 f i DPCoreSrvr.obj
 0001:00011ac0       ?lower_bound@?$_Tree@V?$_Tmap_traits@KP8CDPCoreSrvr@@AEXAAVCAr@@PAEK@ZU?$less@K@std@@V?$allocator@U?$pair@$$CBKP8CDPCoreSrvr@@AEXAAVCAr@@PAEK@Z@std@@@4@$0A@@std@@@std@@QAE?AViterator@12@ABK@Z 00412ac0 f i DPCoreSrvr.obj
 0001:00011b00       ??Econst_iterator@?$_Tree@V?$_Tmap_traits@KV?$basic_string@DU?$char_traits@D@std@@V?$allocator@D@2@@std@@U?$less@K@2@V?$allocator@U?$pair@$$CBKV?$basic_string@DU?$char_traits@D@std@@V?$allocator@D@2@@std@@@std@@@2@$0A@@std@@@std@@QAEAAV012@XZ 00412b00 f i DPCoreSrvr.obj
 0001:00011b10       ?begin@?$vector@V?$basic_string@DU?$char_traits@D@std@@V?$allocator@D@2@@std@@V?$allocator@V?$basic_string@DU?$char_traits@D@std@@V?$allocator@D@2@@std@@@2@@std@@QAE?AViterator@12@XZ 00412b10 f i DPCoreSrvr.obj
 0001:00011b20       ?_Buynode@?$_Tree@V?$_Tmap_traits@KP8CDPCoreSrvr@@AEXAAVCAr@@PAEK@ZU?$less@K@std@@V?$allocator@U?$pair@$$CBKP8CDPCoreSrvr@@AEXAAVCAr@@PAEK@Z@std@@@4@$0A@@std@@@std@@IAEPAU_Node@?$_Tree_nod@V?$_Tmap_traits@KP8CDPCoreSrvr@@AEXAAVCAr@@PAEK@ZU?$less@K@std@@V?$allocator@U?$pair@$$CBKP8CDPCoreSrvr@@AEXAAVCAr@@PAEK@Z@std@@@4@$0A@@std@@@2@PAU342@00ABU?$pair@$$CBKP8CDPCoreSrvr@@AEXAAVCAr@@PAEK@Z@2@D@Z 00412b20 f i DPCoreSrvr.obj
 0001:00011b60       ??Fconst_iterator@?$_Tree@V?$_Tmap_traits@KP8CDPCoreSrvr@@AEXAAVCAr@@PAEK@ZU?$less@K@std@@V?$allocator@U?$pair@$$CBKP8CDPCoreSrvr@@AEXAAVCAr@@PAEK@Z@std@@@4@$0A@@std@@@std@@QAEAAV012@XZ 00412b60 f i DPCoreSrvr.obj
 0001:00011b70       ?_Buynode@?$_Tree@V?$_Tmap_traits@KP8CDPCoreSrvr@@AEXAAVCAr@@PAEK@ZU?$less@K@std@@V?$allocator@U?$pair@$$CBKP8CDPCoreSrvr@@AEXAAVCAr@@PAEK@Z@std@@@4@$0A@@std@@@std@@IAEPAU_Node@?$_Tree_nod@V?$_Tmap_traits@KP8CDPCoreSrvr@@AEXAAVCAr@@PAEK@ZU?$less@K@std@@V?$allocator@U?$pair@$$CBKP8CDPCoreSrvr@@AEXAAVCAr@@PAEK@Z@std@@@4@$0A@@std@@@2@XZ 00412b70 f i DPCoreSrvr.obj
 0001:00011bb0       ??0?$_Tree_ptr@V?$_Tmap_traits@KP8CDPCoreSrvr@@AEXAAVCAr@@PAEK@ZU?$less@K@std@@V?$allocator@U?$pair@$$CBKP8CDPCoreSrvr@@AEXAAVCAr@@PAEK@Z@std@@@4@$0A@@std@@@std@@IAE@ABU?$less@K@1@V?$allocator@U?$pair@$$CBKP8CDPCoreSrvr@@AEXAAVCAr@@PAEK@Z@std@@@1@@Z 00412bb0 f i DPCoreSrvr.obj
 0001:00011bc0       ?_Erase@?$_Tree@V?$_Tmap_traits@KP8CDPCoreSrvr@@AEXAAVCAr@@PAEK@ZU?$less@K@std@@V?$allocator@U?$pair@$$CBKP8CDPCoreSrvr@@AEXAAVCAr@@PAEK@Z@std@@@4@$0A@@std@@@std@@IAEXPAU_Node@?$_Tree_nod@V?$_Tmap_traits@KP8CDPCoreSrvr@@AEXAAVCAr@@PAEK@ZU?$less@K@std@@V?$allocator@U?$pair@$$CBKP8CDPCoreSrvr@@AEXAAVCAr@@PAEK@Z@std@@@4@$0A@@std@@@2@@Z 00412bc0 f i DPCoreSrvr.obj
 0001:00011c00       ??Eiterator@?$_Tree@V?$_Tmap_traits@KP8CDPCoreSrvr@@AEXAAVCAr@@PAEK@ZU?$less@K@std@@V?$allocator@U?$pair@$$CBKP8CDPCoreSrvr@@AEXAAVCAr@@PAEK@Z@std@@@4@$0A@@std@@@std@@QAEAAV012@XZ 00412c00 f i DPCoreSrvr.obj
 0001:00011c10       ?find@?$_Tree@V?$_Tmap_traits@KP8CDPCoreSrvr@@AEXAAVCAr@@PAEK@ZU?$less@K@std@@V?$allocator@U?$pair@$$CBKP8CDPCoreSrvr@@AEXAAVCAr@@PAEK@Z@std@@@4@$0A@@std@@@std@@QAE?AViterator@12@ABK@Z 00412c10 f i DPCoreSrvr.obj
 0001:00011c80       ??Eiterator@?$_Tree@V?$_Tmap_traits@KV?$basic_string@DU?$char_traits@D@std@@V?$allocator@D@2@@std@@U?$less@K@2@V?$allocator@U?$pair@$$CBKV?$basic_string@DU?$char_traits@D@std@@V?$allocator@D@2@@std@@@std@@@2@$0A@@std@@@std@@QAEAAV012@XZ 00412c80 f i DPCoreSrvr.obj
 0001:00011c90       ??A?$vector@V?$basic_string@DU?$char_traits@D@std@@V?$allocator@D@2@@std@@V?$allocator@V?$basic_string@DU?$char_traits@D@std@@V?$allocator@D@2@@std@@@2@@std@@QAEAAV?$basic_string@DU?$char_traits@D@std@@V?$allocator@D@2@@1@I@Z 00412c90 f i DPCoreSrvr.obj
 0001:00011ca0       ??Fiterator@?$_Tree@V?$_Tmap_traits@KP8CDPCoreSrvr@@AEXAAVCAr@@PAEK@ZU?$less@K@std@@V?$allocator@U?$pair@$$CBKP8CDPCoreSrvr@@AEXAAVCAr@@PAEK@Z@std@@@4@$0A@@std@@@std@@QAEAAV012@XZ 00412ca0 f i DPCoreSrvr.obj
 0001:00011cb0       ?_Init@?$_Tree@V?$_Tmap_traits@KP8CDPCoreSrvr@@AEXAAVCAr@@PAEK@ZU?$less@K@std@@V?$allocator@U?$pair@$$CBKP8CDPCoreSrvr@@AEXAAVCAr@@PAEK@Z@std@@@4@$0A@@std@@@std@@IAEXXZ 00412cb0 f i DPCoreSrvr.obj
 0001:00011ce0       ??0?$_Tree_val@V?$_Tmap_traits@KP8CDPCoreSrvr@@AEXAAVCAr@@PAEK@ZU?$less@K@std@@V?$allocator@U?$pair@$$CBKP8CDPCoreSrvr@@AEXAAVCAr@@PAEK@Z@std@@@4@$0A@@std@@@std@@IAE@ABU?$less@K@1@V?$allocator@U?$pair@$$CBKP8CDPCoreSrvr@@AEXAAVCAr@@PAEK@Z@std@@@1@@Z 00412ce0 f i DPCoreSrvr.obj
 0001:00011cf0       ?clear@?$_Tree@V?$_Tmap_traits@KP8CDPCoreSrvr@@AEXAAVCAr@@PAEK@ZU?$less@K@std@@V?$allocator@U?$pair@$$CBKP8CDPCoreSrvr@@AEXAAVCAr@@PAEK@Z@std@@@4@$0A@@std@@@std@@QAEXXZ 00412cf0 f i DPCoreSrvr.obj
 0001:00011d20       ??Eiterator@?$_Tree@V?$_Tmap_traits@KP8CDPCoreSrvr@@AEXAAVCAr@@PAEK@ZU?$less@K@std@@V?$allocator@U?$pair@$$CBKP8CDPCoreSrvr@@AEXAAVCAr@@PAEK@Z@std@@@4@$0A@@std@@@std@@QAE?AV012@H@Z 00412d20 f i DPCoreSrvr.obj
 0001:00011d40       ?GetHandler@CDPCoreSrvr@@AAEP81@AEXAAVCAr@@PAEK@ZK@Z 00412d40 f i DPCoreSrvr.obj
 0001:00011d70       ?UserMessageHandler@CDPCoreSrvr@@UAEXPAUDPMSG_GENERIC@@KK@Z 00412d70 f   DPCoreSrvr.obj
 0001:00011e60       ?SendPartyName@CDPCoreSrvr@@QAEXK@Z 00412e60 f   DPCoreSrvr.obj
 0001:00011fb0       ??0?$_Tree@V?$_Tmap_traits@KP8CDPCoreSrvr@@AEXAAVCAr@@PAEK@ZU?$less@K@std@@V?$allocator@U?$pair@$$CBKP8CDPCoreSrvr@@AEXAAVCAr@@PAEK@Z@std@@@4@$0A@@std@@@std@@QAE@ABU?$less@K@1@ABV?$allocator@U?$pair@$$CBKP8CDPCoreSrvr@@AEXAAVCAr@@PAEK@Z@std@@@1@@Z 00412fb0 f i DPCoreSrvr.obj
 0001:00011fe0       ??_G?$basic_string@DU?$char_traits@D@std@@V?$allocator@D@2@@std@@QAEPAXI@Z 00412fe0 f i DPCoreSrvr.obj
 0001:00012020       ?OnAddConnection@CDPCoreSrvr@@QAEXK@Z 00413020 f   DPCoreSrvr.obj
 0001:00012140       ?assign@?$basic_string@DU?$char_traits@D@std@@V?$allocator@D@2@@std@@QAEAAV12@ABV12@@Z 00413140 f i DPCoreSrvr.obj
 0001:00012160       ??$_Destroy@V?$basic_string@DU?$char_traits@D@std@@V?$allocator@D@2@@std@@@std@@YAXPAV?$basic_string@DU?$char_traits@D@std@@V?$allocator@D@2@@0@@Z 00413160 f i DPCoreSrvr.obj
 0001:00012190       ?SysMessageHandler@CDPCoreSrvr@@UAEXPAUDPMSG_GENERIC@@KK@Z 00413190 f   DPCoreSrvr.obj
 0001:000121b0       ??4?$basic_string@DU?$char_traits@D@std@@V?$allocator@D@2@@std@@QAEAAV01@ABV01@@Z 004131b0 f i DPCoreSrvr.obj
 0001:000121d0       ?destroy@?$allocator@V?$basic_string@DU?$char_traits@D@std@@V?$allocator@D@2@@std@@@std@@QAEXPAV?$basic_string@DU?$char_traits@D@std@@V?$allocator@D@2@@2@@Z 004131d0 f i DPCoreSrvr.obj
 0001:00012200       ??$_Construct@V?$basic_string@DU?$char_traits@D@std@@V?$allocator@D@2@@std@@V12@@std@@YAXPAV?$basic_string@DU?$char_traits@D@std@@V?$allocator@D@2@@0@ABV10@@Z 00413200 f i DPCoreSrvr.obj
 0001:00012250       ?_Insert@?$_Tree@V?$_Tmap_traits@KP8CDPCoreSrvr@@AEXAAVCAr@@PAEK@ZU?$less@K@std@@V?$allocator@U?$pair@$$CBKP8CDPCoreSrvr@@AEXAAVCAr@@PAEK@Z@std@@@4@$0A@@std@@@std@@IAE?AViterator@12@_NPAU_Node@?$_Tree_nod@V?$_Tmap_traits@KP8CDPCoreSrvr@@AEXAAVCAr@@PAEK@ZU?$less@K@std@@V?$allocator@U?$pair@$$CBKP8CDPCoreSrvr@@AEXAAVCAr@@PAEK@Z@std@@@4@$0A@@std@@@2@ABU?$pair@$$CBKP8CDPCoreSrvr@@AEXAAVCAr@@PAEK@Z@2@@Z 00413250 f i DPCoreSrvr.obj
 0001:00012400       ?_Xlen@?$vector@V?$basic_string@DU?$char_traits@D@std@@V?$allocator@D@2@@std@@V?$allocator@V?$basic_string@DU?$char_traits@D@std@@V?$allocator@D@2@@std@@@2@@std@@IBEXXZ 00413400 f i DPCoreSrvr.obj
 0001:00012470       ?erase@?$_Tree@V?$_Tmap_traits@KP8CDPCoreSrvr@@AEXAAVCAr@@PAEK@ZU?$less@K@std@@V?$allocator@U?$pair@$$CBKP8CDPCoreSrvr@@AEXAAVCAr@@PAEK@Z@std@@@4@$0A@@std@@@std@@QAE?AViterator@12@V312@@Z 00413470 f i DPCoreSrvr.obj
 0001:00012730       ??$_Copy_opt@PAV?$basic_string@DU?$char_traits@D@std@@V?$allocator@D@2@@std@@PAV12@@std@@YAPAV?$basic_string@DU?$char_traits@D@std@@V?$allocator@D@2@@0@PAV10@00U_Nonscalar_ptr_iterator_tag@0@@Z 00413730 f i DPCoreSrvr.obj
 0001:00012770       ??$_Destroy_range@V?$basic_string@DU?$char_traits@D@std@@V?$allocator@D@2@@std@@V?$allocator@V?$basic_string@DU?$char_traits@D@std@@V?$allocator@D@2@@std@@@2@@std@@YAXPAV?$basic_string@DU?$char_traits@D@std@@V?$allocator@D@2@@0@0AAV?$allocator@V?$basic_string@DU?$char_traits@D@std@@V?$allocator@D@2@@std@@@0@U_Nonscalar_ptr_iterator_tag@0@@Z 00413770 f i DPCoreSrvr.obj
 0001:000127b0       ?construct@?$allocator@V?$basic_string@DU?$char_traits@D@std@@V?$allocator@D@2@@std@@@std@@QAEXPAV?$basic_string@DU?$char_traits@D@std@@V?$allocator@D@2@@2@ABV32@@Z 004137b0 f i DPCoreSrvr.obj
 0001:000127d0       ?insert@?$_Tree@V?$_Tmap_traits@KP8CDPCoreSrvr@@AEXAAVCAr@@PAEK@ZU?$less@K@std@@V?$allocator@U?$pair@$$CBKP8CDPCoreSrvr@@AEXAAVCAr@@PAEK@Z@std@@@4@$0A@@std@@@std@@QAE?AU?$pair@Viterator@?$_Tree@V?$_Tmap_traits@KP8CDPCoreSrvr@@AEXAAVCAr@@PAEK@ZU?$less@K@std@@V?$allocator@U?$pair@$$CBKP8CDPCoreSrvr@@AEXAAVCAr@@PAEK@Z@std@@@4@$0A@@std@@@std@@_N@2@ABU?$pair@$$CBKP8CDPCoreSrvr@@AEXAAVCAr@@PAEK@Z@2@@Z 004137d0 f i DPCoreSrvr.obj
 0001:00012890       ?_Buy@?$vector@V?$basic_string@DU?$char_traits@D@std@@V?$allocator@D@2@@std@@V?$allocator@V?$basic_string@DU?$char_traits@D@std@@V?$allocator@D@2@@std@@@2@@std@@IAE_NI@Z 00413890 f i DPCoreSrvr.obj
 0001:000128e0       ?erase@?$_Tree@V?$_Tmap_traits@KP8CDPCoreSrvr@@AEXAAVCAr@@PAEK@ZU?$less@K@std@@V?$allocator@U?$pair@$$CBKP8CDPCoreSrvr@@AEXAAVCAr@@PAEK@Z@std@@@4@$0A@@std@@@std@@QAE?AViterator@12@V312@0@Z 004138e0 f i DPCoreSrvr.obj
 0001:000129a0       ??$copy@PAV?$basic_string@DU?$char_traits@D@std@@V?$allocator@D@2@@std@@PAV12@@std@@YAPAV?$basic_string@DU?$char_traits@D@std@@V?$allocator@D@2@@0@PAV10@00@Z 004139a0 f i DPCoreSrvr.obj
 0001:000129c0       ??$_Destroy_range@V?$basic_string@DU?$char_traits@D@std@@V?$allocator@D@2@@std@@V?$allocator@V?$basic_string@DU?$char_traits@D@std@@V?$allocator@D@2@@std@@@2@@std@@YAXPAV?$basic_string@DU?$char_traits@D@std@@V?$allocator@D@2@@0@0AAV?$allocator@V?$basic_string@DU?$char_traits@D@std@@V?$allocator@D@2@@std@@@0@@Z 004139c0 f i DPCoreSrvr.obj
 0001:000129e0       ??$_Uninit_copy@PAV?$basic_string@DU?$char_traits@D@std@@V?$allocator@D@2@@std@@PAV12@V?$allocator@V?$basic_string@DU?$char_traits@D@std@@V?$allocator@D@2@@std@@@2@@std@@YAPAV?$basic_string@DU?$char_traits@D@std@@V?$allocator@D@2@@0@PAV10@00AAV?$allocator@V?$basic_string@DU?$char_traits@D@std@@V?$allocator@D@2@@std@@@0@U_Nonscalar_ptr_iterator_tag@0@@Z 004139e0 f i DPCoreSrvr.obj
 0001:00012a80       ??0?$vector@V?$basic_string@DU?$char_traits@D@std@@V?$allocator@D@2@@std@@V?$allocator@V?$basic_string@DU?$char_traits@D@std@@V?$allocator@D@2@@std@@@2@@std@@QAE@XZ 00413a80 f i DPCoreSrvr.obj
 0001:00012a90       ?_Tidy@?$_Tree@V?$_Tmap_traits@KP8CDPCoreSrvr@@AEXAAVCAr@@PAEK@ZU?$less@K@std@@V?$allocator@U?$pair@$$CBKP8CDPCoreSrvr@@AEXAAVCAr@@PAEK@Z@std@@@4@$0A@@std@@@std@@IAEXXZ 00413a90 f i DPCoreSrvr.obj
 0001:00012ac0       ?_Destroy@?$vector@V?$basic_string@DU?$char_traits@D@std@@V?$allocator@D@2@@std@@V?$allocator@V?$basic_string@DU?$char_traits@D@std@@V?$allocator@D@2@@std@@@2@@std@@IAEXPAV?$basic_string@DU?$char_traits@D@std@@V?$allocator@D@2@@2@0@Z 00413ac0 f i DPCoreSrvr.obj
 0001:00012ae0       ?_Tidy@?$vector@V?$basic_string@DU?$char_traits@D@std@@V?$allocator@D@2@@std@@V?$allocator@V?$basic_string@DU?$char_traits@D@std@@V?$allocator@D@2@@std@@@2@@std@@IAEXXZ 00413ae0 f i DPCoreSrvr.obj
 0001:00012b20       ??$_Uninitialized_copy@PAV?$basic_string@DU?$char_traits@D@std@@V?$allocator@D@2@@std@@PAV12@V?$allocator@V?$basic_string@DU?$char_traits@D@std@@V?$allocator@D@2@@std@@@2@@std@@YAPAV?$basic_string@DU?$char_traits@D@std@@V?$allocator@D@2@@0@PAV10@00AAV?$allocator@V?$basic_string@DU?$char_traits@D@std@@V?$allocator@D@2@@std@@@0@@Z 00413b20 f i DPCoreSrvr.obj
 0001:00012b50       ??1?$_Tree@V?$_Tmap_traits@KP8CDPCoreSrvr@@AEXAAVCAr@@PAEK@ZU?$less@K@std@@V?$allocator@U?$pair@$$CBKP8CDPCoreSrvr@@AEXAAVCAr@@PAEK@Z@std@@@4@$0A@@std@@@std@@QAE@XZ 00413b50 f i DPCoreSrvr.obj
 0001:00012b80       ??1?$vector@V?$basic_string@DU?$char_traits@D@std@@V?$allocator@D@2@@std@@V?$allocator@V?$basic_string@DU?$char_traits@D@std@@V?$allocator@D@2@@std@@@2@@std@@QAE@XZ 00413b80 f i DPCoreSrvr.obj
 0001:00012bc0       ?clear@?$vector@V?$basic_string@DU?$char_traits@D@std@@V?$allocator@D@2@@std@@V?$allocator@V?$basic_string@DU?$char_traits@D@std@@V?$allocator@D@2@@std@@@2@@std@@QAEXXZ 00413bc0 f i DPCoreSrvr.obj
 0001:00012c00       ??$_Ucopy@PAV?$basic_string@DU?$char_traits@D@std@@V?$allocator@D@2@@std@@@?$vector@V?$basic_string@DU?$char_traits@D@std@@V?$allocator@D@2@@std@@V?$allocator@V?$basic_string@DU?$char_traits@D@std@@V?$allocator@D@2@@std@@@2@@std@@IAEPAV?$basic_string@DU?$char_traits@D@std@@V?$allocator@D@2@@1@PAV21@00@Z 00413c00 f i DPCoreSrvr.obj
 0001:00012c20       ??1?$map@KP8CDPCoreSrvr@@AEXAAVCAr@@PAEK@ZU?$less@K@std@@V?$allocator@U?$pair@$$CBKP8CDPCoreSrvr@@AEXAAVCAr@@PAEK@Z@std@@@4@@std@@QAE@XZ 00413c20 f i DPCoreSrvr.obj
 0001:00012c50       ??1CDPCoreSrvr@@UAE@XZ     00413c50 f   DPCoreSrvr.obj
 0001:00012cd0       ??0?$map@KP8CDPCoreSrvr@@AEXAAVCAr@@PAEK@ZU?$less@K@std@@V?$allocator@U?$pair@$$CBKP8CDPCoreSrvr@@AEXAAVCAr@@PAEK@Z@std@@@4@@std@@QAE@XZ 00413cd0 f i DPCoreSrvr.obj
 0001:00012d00       ??4?$vector@V?$basic_string@DU?$char_traits@D@std@@V?$allocator@D@2@@std@@V?$allocator@V?$basic_string@DU?$char_traits@D@std@@V?$allocator@D@2@@std@@@2@@std@@QAEAAV01@ABV01@@Z 00413d00 f i DPCoreSrvr.obj
 0001:00012e90       ??0CDPCoreSrvr@@QAE@XZ     00413e90 f   DPCoreSrvr.obj
 0001:000132d0       ??_ECDPCoreSrvr@@UAEPAXI@Z 004142d0 f i DPCoreSrvr.obj
 0001:000132d0       ??_GCDPCoreSrvr@@UAEPAXI@Z 004142d0 f i DPCoreSrvr.obj
 0001:000132f0       ?SendEventLuaNotice@CDPCoreSrvr@@QAEXXZ 004142f0 f   DPCoreSrvr.obj
 0001:000134e0       ?OnAddConnection@CDPLoginSrvr@@QAEXK@Z 004144e0 f   DPLoginSrvr.obj
 0001:00013500       ?OnRemoveConnection@CDPLoginSrvr@@QAEXK@Z 00414500 f   DPLoginSrvr.obj
 0001:00013530       ?SendPlayerList@CDPLoginSrvr@@QAEXPBD0KK@Z 00414530 f   DPLoginSrvr.obj
 0001:000135d0       ?OnCreatePlayer@CDPLoginSrvr@@QAEXAAVCAr@@KPAEK@Z 004145d0 f   DPLoginSrvr.obj
 0001:00013750       ?OnCloseError@CDPLoginSrvr@@QAEXAAVCAr@@KPAEK@Z 00414750 f   DPLoginSrvr.obj
 0001:000137c0       ?OnLoginProtect@CDPLoginSrvr@@QAEXAAVCAr@@KPAEK@Z 004147c0 f   DPLoginSrvr.obj
 0001:00013810       ??0?$pair@$$CBKP8CDPLoginSrvr@@AEXAAVCAr@@KPAEK@Z@std@@QAE@ABKABQ8CDPLoginSrvr@@AEXAAVCAr@@KPAEK@Z@Z 00414810 f i DPLoginSrvr.obj
 0001:00013830       ?_Isnil@?$_Tree@V?$_Tmap_traits@KP8CDPLoginSrvr@@AEXAAVCAr@@KPAEK@ZU?$less@K@std@@V?$allocator@U?$pair@$$CBKP8CDPLoginSrvr@@AEXAAVCAr@@KPAEK@Z@std@@@4@$0A@@std@@@std@@KAAADPAU_Node@?$_Tree_nod@V?$_Tmap_traits@KP8CDPLoginSrvr@@AEXAAVCAr@@KPAEK@ZU?$less@K@std@@V?$allocator@U?$pair@$$CBKP8CDPLoginSrvr@@AEXAAVCAr@@KPAEK@Z@std@@@4@$0A@@std@@@2@@Z 00414830 f i DPLoginSrvr.obj
 0001:00013840       ?_Left@?$_Tree@V?$_Tmap_traits@KP8CDPLoginSrvr@@AEXAAVCAr@@KPAEK@ZU?$less@K@std@@V?$allocator@U?$pair@$$CBKP8CDPLoginSrvr@@AEXAAVCAr@@KPAEK@Z@std@@@4@$0A@@std@@@std@@KAAAPAU_Node@?$_Tree_nod@V?$_Tmap_traits@KP8CDPLoginSrvr@@AEXAAVCAr@@KPAEK@ZU?$less@K@std@@V?$allocator@U?$pair@$$CBKP8CDPLoginSrvr@@AEXAAVCAr@@KPAEK@Z@std@@@4@$0A@@std@@@2@PAU342@@Z 00414840 f i DPLoginSrvr.obj
 0001:00013850       ?_Right@?$_Tree@V?$_Tmap_traits@KP8CDPLoginSrvr@@AEXAAVCAr@@KPAEK@ZU?$less@K@std@@V?$allocator@U?$pair@$$CBKP8CDPLoginSrvr@@AEXAAVCAr@@KPAEK@Z@std@@@4@$0A@@std@@@std@@KAAAPAU_Node@?$_Tree_nod@V?$_Tmap_traits@KP8CDPLoginSrvr@@AEXAAVCAr@@KPAEK@ZU?$less@K@std@@V?$allocator@U?$pair@$$CBKP8CDPLoginSrvr@@AEXAAVCAr@@KPAEK@Z@std@@@4@$0A@@std@@@2@PAU342@@Z 00414850 f i DPLoginSrvr.obj
 0001:00013860       ?_Kfn@?$_Tmap_traits@KP8CDPLoginSrvr@@AEXAAVCAr@@KPAEK@ZU?$less@K@std@@V?$allocator@U?$pair@$$CBKP8CDPLoginSrvr@@AEXAAVCAr@@KPAEK@Z@std@@@4@$0A@@std@@SAABKABU?$pair@$$CBKP8CDPLoginSrvr@@AEXAAVCAr@@KPAEK@Z@2@@Z 00414860 f i DPLoginSrvr.obj
 0001:00013870       ??0?$allocator@U?$pair@$$CBKP8CDPLoginSrvr@@AEXAAVCAr@@KPAEK@Z@std@@@std@@QAE@XZ 00414870 f i DPLoginSrvr.obj
 0001:00013880       ??8const_iterator@?$_Tree@V?$_Tmap_traits@KP8CDPLoginSrvr@@AEXAAVCAr@@KPAEK@ZU?$less@K@std@@V?$allocator@U?$pair@$$CBKP8CDPLoginSrvr@@AEXAAVCAr@@KPAEK@Z@std@@@4@$0A@@std@@@std@@QBE_NABV012@@Z 00414880 f i DPLoginSrvr.obj
 0001:00013890       ?_Mynode@const_iterator@?$_Tree@V?$_Tmap_traits@KP8CDPLoginSrvr@@AEXAAVCAr@@KPAEK@ZU?$less@K@std@@V?$allocator@U?$pair@$$CBKP8CDPLoginSrvr@@AEXAAVCAr@@KPAEK@Z@std@@@4@$0A@@std@@@std@@QBEPAU_Node@?$_Tree_nod@V?$_Tmap_traits@KP8CDPLoginSrvr@@AEXAAVCAr@@KPAEK@ZU?$less@K@std@@V?$allocator@U?$pair@$$CBKP8CDPLoginSrvr@@AEXAAVCAr@@KPAEK@Z@std@@@4@$0A@@std@@@3@XZ 00414890 f i DPLoginSrvr.obj
 0001:000138a0       ??0?$pair@Viterator@?$_Tree@V?$_Tmap_traits@KP8CDPLoginSrvr@@AEXAAVCAr@@KPAEK@ZU?$less@K@std@@V?$allocator@U?$pair@$$CBKP8CDPLoginSrvr@@AEXAAVCAr@@KPAEK@Z@std@@@4@$0A@@std@@@std@@_N@std@@QAE@ABViterator@?$_Tree@V?$_Tmap_traits@KP8CDPLoginSrvr@@AEXAAVCAr@@KPAEK@ZU?$less@K@std@@V?$allocator@U?$pair@$$CBKP8CDPLoginSrvr@@AEXAAVCAr@@KPAEK@Z@std@@@4@$0A@@std@@@1@AB_N@Z 004148a0 f i DPLoginSrvr.obj
 0001:000138c0       ?_Color@?$_Tree@V?$_Tmap_traits@KP8CDPLoginSrvr@@AEXAAVCAr@@KPAEK@ZU?$less@K@std@@V?$allocator@U?$pair@$$CBKP8CDPLoginSrvr@@AEXAAVCAr@@KPAEK@Z@std@@@4@$0A@@std@@@std@@KAAADPAU_Node@?$_Tree_nod@V?$_Tmap_traits@KP8CDPLoginSrvr@@AEXAAVCAr@@KPAEK@ZU?$less@K@std@@V?$allocator@U?$pair@$$CBKP8CDPLoginSrvr@@AEXAAVCAr@@KPAEK@Z@std@@@4@$0A@@std@@@2@@Z 004148c0 f i DPLoginSrvr.obj
 0001:000138d0       ?_Parent@?$_Tree@V?$_Tmap_traits@KP8CDPLoginSrvr@@AEXAAVCAr@@KPAEK@ZU?$less@K@std@@V?$allocator@U?$pair@$$CBKP8CDPLoginSrvr@@AEXAAVCAr@@KPAEK@Z@std@@@4@$0A@@std@@@std@@KAAAPAU_Node@?$_Tree_nod@V?$_Tmap_traits@KP8CDPLoginSrvr@@AEXAAVCAr@@KPAEK@ZU?$less@K@std@@V?$allocator@U?$pair@$$CBKP8CDPLoginSrvr@@AEXAAVCAr@@KPAEK@Z@std@@@4@$0A@@std@@@2@PAU342@@Z 004148d0 f i DPLoginSrvr.obj
 0001:000138e0       ?_Myval@?$_Tree@V?$_Tmap_traits@KP8CDPLoginSrvr@@AEXAAVCAr@@KPAEK@ZU?$less@K@std@@V?$allocator@U?$pair@$$CBKP8CDPLoginSrvr@@AEXAAVCAr@@KPAEK@Z@std@@@4@$0A@@std@@@std@@KAAAU?$pair@$$CBKP8CDPLoginSrvr@@AEXAAVCAr@@KPAEK@Z@2@PAU_Node@?$_Tree_nod@V?$_Tmap_traits@KP8CDPLoginSrvr@@AEXAAVCAr@@KPAEK@ZU?$less@K@std@@V?$allocator@U?$pair@$$CBKP8CDPLoginSrvr@@AEXAAVCAr@@KPAEK@Z@std@@@4@$0A@@std@@@2@@Z 004148e0 f i DPLoginSrvr.obj
 0001:000138f0       ?_Lmost@?$_Tree@V?$_Tmap_traits@KP8CDPLoginSrvr@@AEXAAVCAr@@KPAEK@ZU?$less@K@std@@V?$allocator@U?$pair@$$CBKP8CDPLoginSrvr@@AEXAAVCAr@@KPAEK@Z@std@@@4@$0A@@std@@@std@@IAEAAPAU_Node@?$_Tree_nod@V?$_Tmap_traits@KP8CDPLoginSrvr@@AEXAAVCAr@@KPAEK@ZU?$less@K@std@@V?$allocator@U?$pair@$$CBKP8CDPLoginSrvr@@AEXAAVCAr@@KPAEK@Z@std@@@4@$0A@@std@@@2@XZ 004148f0 f i DPLoginSrvr.obj
 0001:00013900       ?_Rmost@?$_Tree@V?$_Tmap_traits@KP8CDPLoginSrvr@@AEXAAVCAr@@KPAEK@ZU?$less@K@std@@V?$allocator@U?$pair@$$CBKP8CDPLoginSrvr@@AEXAAVCAr@@KPAEK@Z@std@@@4@$0A@@std@@@std@@IAEAAPAU_Node@?$_Tree_nod@V?$_Tmap_traits@KP8CDPLoginSrvr@@AEXAAVCAr@@KPAEK@ZU?$less@K@std@@V?$allocator@U?$pair@$$CBKP8CDPLoginSrvr@@AEXAAVCAr@@KPAEK@Z@std@@@4@$0A@@std@@@2@XZ 00414900 f i DPLoginSrvr.obj
 0001:00013910       ??0?$allocator@U?$pair@$$CBKP8CDPLoginSrvr@@AEXAAVCAr@@KPAEK@Z@std@@@std@@QAE@ABV01@@Z 00414910 f i DPLoginSrvr.obj
 0001:00013920       ?deallocate@?$allocator@U_Node@?$_Tree_nod@V?$_Tmap_traits@KP8CDPLoginSrvr@@AEXAAVCAr@@KPAEK@ZU?$less@K@std@@V?$allocator@U?$pair@$$CBKP8CDPLoginSrvr@@AEXAAVCAr@@KPAEK@Z@std@@@4@$0A@@std@@@std@@@std@@QAEXPAU_Node@?$_Tree_nod@V?$_Tmap_traits@KP8CDPLoginSrvr@@AEXAAVCAr@@KPAEK@ZU?$less@K@std@@V?$allocator@U?$pair@$$CBKP8CDPLoginSrvr@@AEXAAVCAr@@KPAEK@Z@std@@@4@$0A@@std@@@2@I@Z 00414920 f i DPLoginSrvr.obj
 0001:00013930       ??0const_iterator@?$_Tree@V?$_Tmap_traits@KP8CDPLoginSrvr@@AEXAAVCAr@@KPAEK@ZU?$less@K@std@@V?$allocator@U?$pair@$$CBKP8CDPLoginSrvr@@AEXAAVCAr@@KPAEK@Z@std@@@4@$0A@@std@@@std@@QAE@PAU_Node@?$_Tree_nod@V?$_Tmap_traits@KP8CDPLoginSrvr@@AEXAAVCAr@@KPAEK@ZU?$less@K@std@@V?$allocator@U?$pair@$$CBKP8CDPLoginSrvr@@AEXAAVCAr@@KPAEK@Z@std@@@4@$0A@@std@@@2@@Z 00414930 f i DPLoginSrvr.obj
 0001:00013940       ??Dconst_iterator@?$_Tree@V?$_Tmap_traits@KP8CDPLoginSrvr@@AEXAAVCAr@@KPAEK@ZU?$less@K@std@@V?$allocator@U?$pair@$$CBKP8CDPLoginSrvr@@AEXAAVCAr@@KPAEK@Z@std@@@4@$0A@@std@@@std@@QBEABU?$pair@$$CBKP8CDPLoginSrvr@@AEXAAVCAr@@KPAEK@Z@2@XZ 00414940 f i DPLoginSrvr.obj
 0001:00013950       ?_Root@?$_Tree@V?$_Tmap_traits@KP8CDPLoginSrvr@@AEXAAVCAr@@KPAEK@ZU?$less@K@std@@V?$allocator@U?$pair@$$CBKP8CDPLoginSrvr@@AEXAAVCAr@@KPAEK@Z@std@@@4@$0A@@std@@@std@@IBEAAPAU_Node@?$_Tree_nod@V?$_Tmap_traits@KP8CDPLoginSrvr@@AEXAAVCAr@@KPAEK@ZU?$less@K@std@@V?$allocator@U?$pair@$$CBKP8CDPLoginSrvr@@AEXAAVCAr@@KPAEK@Z@std@@@4@$0A@@std@@@2@XZ 00414950 f i DPLoginSrvr.obj
 0001:00013960       ?max_size@?$allocator@U?$pair@$$CBKP8CDPLoginSrvr@@AEXAAVCAr@@KPAEK@Z@std@@@std@@QBEIXZ 00414960 f i DPLoginSrvr.obj
 0001:00013970       ??0_Node@?$_Tree_nod@V?$_Tmap_traits@KP8CDPLoginSrvr@@AEXAAVCAr@@KPAEK@ZU?$less@K@std@@V?$allocator@U?$pair@$$CBKP8CDPLoginSrvr@@AEXAAVCAr@@KPAEK@Z@std@@@4@$0A@@std@@@std@@QAE@PAU012@00ABU?$pair@$$CBKP8CDPLoginSrvr@@AEXAAVCAr@@KPAEK@Z@2@D@Z 00414970 f i DPLoginSrvr.obj
 0001:000139b0       ?_Max@?$_Tree@V?$_Tmap_traits@KP8CDPLoginSrvr@@AEXAAVCAr@@KPAEK@ZU?$less@K@std@@V?$allocator@U?$pair@$$CBKP8CDPLoginSrvr@@AEXAAVCAr@@KPAEK@Z@std@@@4@$0A@@std@@@std@@KAPAU_Node@?$_Tree_nod@V?$_Tmap_traits@KP8CDPLoginSrvr@@AEXAAVCAr@@KPAEK@ZU?$less@K@std@@V?$allocator@U?$pair@$$CBKP8CDPLoginSrvr@@AEXAAVCAr@@KPAEK@Z@std@@@4@$0A@@std@@@2@PAU342@@Z 004149b0 f i DPLoginSrvr.obj
 0001:000139d0       ?_Min@?$_Tree@V?$_Tmap_traits@KP8CDPLoginSrvr@@AEXAAVCAr@@KPAEK@ZU?$less@K@std@@V?$allocator@U?$pair@$$CBKP8CDPLoginSrvr@@AEXAAVCAr@@KPAEK@Z@std@@@4@$0A@@std@@@std@@KAPAU_Node@?$_Tree_nod@V?$_Tmap_traits@KP8CDPLoginSrvr@@AEXAAVCAr@@KPAEK@ZU?$less@K@std@@V?$allocator@U?$pair@$$CBKP8CDPLoginSrvr@@AEXAAVCAr@@KPAEK@Z@std@@@4@$0A@@std@@@2@PAU342@@Z 004149d0 f i DPLoginSrvr.obj
 0001:000139f0       ??0?$_Tmap_traits@KP8CDPLoginSrvr@@AEXAAVCAr@@KPAEK@ZU?$less@K@std@@V?$allocator@U?$pair@$$CBKP8CDPLoginSrvr@@AEXAAVCAr@@KPAEK@Z@std@@@4@$0A@@std@@QAE@U?$less@K@1@@Z 004149f0 f i DPLoginSrvr.obj
 0001:00013a00       ?_Inc@const_iterator@?$_Tree@V?$_Tmap_traits@KP8CDPLoginSrvr@@AEXAAVCAr@@KPAEK@ZU?$less@K@std@@V?$allocator@U?$pair@$$CBKP8CDPLoginSrvr@@AEXAAVCAr@@KPAEK@Z@std@@@4@$0A@@std@@@std@@QAEXXZ 00414a00 f i DPLoginSrvr.obj
 0001:00013a60       ??$_Destroy@PAU_Node@?$_Tree_nod@V?$_Tmap_traits@KP8CDPLoginSrvr@@AEXAAVCAr@@KPAEK@ZU?$less@K@std@@V?$allocator@U?$pair@$$CBKP8CDPLoginSrvr@@AEXAAVCAr@@KPAEK@Z@std@@@4@$0A@@std@@@std@@@std@@YAXPAPAU_Node@?$_Tree_nod@V?$_Tmap_traits@KP8CDPLoginSrvr@@AEXAAVCAr@@KPAEK@ZU?$less@K@std@@V?$allocator@U?$pair@$$CBKP8CDPLoginSrvr@@AEXAAVCAr@@KPAEK@Z@std@@@4@$0A@@std@@@0@@Z 00414a60 f i DPLoginSrvr.obj
 0001:00013a70       ??$?0U?$pair@$$CBKP8CDPLoginSrvr@@AEXAAVCAr@@KPAEK@Z@std@@@?$allocator@PAU_Node@?$_Tree_nod@V?$_Tmap_traits@KP8CDPLoginSrvr@@AEXAAVCAr@@KPAEK@ZU?$less@K@std@@V?$allocator@U?$pair@$$CBKP8CDPLoginSrvr@@AEXAAVCAr@@KPAEK@Z@std@@@4@$0A@@std@@@std@@@std@@QAE@ABV?$allocator@U?$pair@$$CBKP8CDPLoginSrvr@@AEXAAVCAr@@KPAEK@Z@std@@@1@@Z 00414a70 f i DPLoginSrvr.obj
 0001:00013a80       ??$_Allocate@U_Node@?$_Tree_nod@V?$_Tmap_traits@KP8CDPLoginSrvr@@AEXAAVCAr@@KPAEK@ZU?$less@K@std@@V?$allocator@U?$pair@$$CBKP8CDPLoginSrvr@@AEXAAVCAr@@KPAEK@Z@std@@@4@$0A@@std@@@std@@@std@@YAPAU_Node@?$_Tree_nod@V?$_Tmap_traits@KP8CDPLoginSrvr@@AEXAAVCAr@@KPAEK@ZU?$less@K@std@@V?$allocator@U?$pair@$$CBKP8CDPLoginSrvr@@AEXAAVCAr@@KPAEK@Z@std@@@4@$0A@@std@@@0@IPAU120@@Z 00414a80 f i DPLoginSrvr.obj
 0001:00013aa0       ??$?0U?$pair@$$CBKP8CDPLoginSrvr@@AEXAAVCAr@@KPAEK@Z@std@@@?$allocator@U_Node@?$_Tree_nod@V?$_Tmap_traits@KP8CDPLoginSrvr@@AEXAAVCAr@@KPAEK@ZU?$less@K@std@@V?$allocator@U?$pair@$$CBKP8CDPLoginSrvr@@AEXAAVCAr@@KPAEK@Z@std@@@4@$0A@@std@@@std@@@std@@QAE@ABV?$allocator@U?$pair@$$CBKP8CDPLoginSrvr@@AEXAAVCAr@@KPAEK@Z@std@@@1@@Z 00414aa0 f i DPLoginSrvr.obj
 0001:00013ab0       ??$_Destroy@U_Node@?$_Tree_nod@V?$_Tmap_traits@KP8CDPLoginSrvr@@AEXAAVCAr@@KPAEK@ZU?$less@K@std@@V?$allocator@U?$pair@$$CBKP8CDPLoginSrvr@@AEXAAVCAr@@KPAEK@Z@std@@@4@$0A@@std@@@std@@@std@@YAXPAU_Node@?$_Tree_nod@V?$_Tmap_traits@KP8CDPLoginSrvr@@AEXAAVCAr@@KPAEK@ZU?$less@K@std@@V?$allocator@U?$pair@$$CBKP8CDPLoginSrvr@@AEXAAVCAr@@KPAEK@Z@std@@@4@$0A@@std@@@0@@Z 00414ab0 f i DPLoginSrvr.obj
 0001:00013ac0       ??$_Construct@PAU_Node@?$_Tree_nod@V?$_Tmap_traits@KP8CDPLoginSrvr@@AEXAAVCAr@@KPAEK@ZU?$less@K@std@@V?$allocator@U?$pair@$$CBKP8CDPLoginSrvr@@AEXAAVCAr@@KPAEK@Z@std@@@4@$0A@@std@@@std@@PAU123@@std@@YAXPAPAU_Node@?$_Tree_nod@V?$_Tmap_traits@KP8CDPLoginSrvr@@AEXAAVCAr@@KPAEK@ZU?$less@K@std@@V?$allocator@U?$pair@$$CBKP8CDPLoginSrvr@@AEXAAVCAr@@KPAEK@Z@std@@@4@$0A@@std@@@0@ABQAU120@@Z 00414ac0 f i DPLoginSrvr.obj
 0001:00013ae0       ?SysMessageHandler@CDPLoginSrvr@@UAEXPAUDPMSG_GENERIC@@KK@Z 00414ae0 f   DPLoginSrvr.obj
 0001:00013b30       ?SendError@CDPLoginSrvr@@QAEXJK@Z 00414b30 f   DPLoginSrvr.obj
 0001:00013c40       ?OnRemovePlayer@CDPLoginSrvr@@QAEXAAVCAr@@KPAEK@Z 00414c40 f   DPLoginSrvr.obj
 0001:00013e60       ?OnGetPlayerList@CDPLoginSrvr@@QAEXAAVCAr@@KPAEK@Z 00414e60 f   DPLoginSrvr.obj
 0001:00014060       ?OnLeave@CDPLoginSrvr@@QAEXAAVCAr@@KPAEK@Z 00415060 f   DPLoginSrvr.obj
 0001:00014200       ??9const_iterator@?$_Tree@V?$_Tmap_traits@KP8CDPLoginSrvr@@AEXAAVCAr@@KPAEK@ZU?$less@K@std@@V?$allocator@U?$pair@$$CBKP8CDPLoginSrvr@@AEXAAVCAr@@KPAEK@Z@std@@@4@$0A@@std@@@std@@QBE_NABV012@@Z 00415200 f i DPLoginSrvr.obj
 0001:00014220       ?_Key@?$_Tree@V?$_Tmap_traits@KP8CDPLoginSrvr@@AEXAAVCAr@@KPAEK@ZU?$less@K@std@@V?$allocator@U?$pair@$$CBKP8CDPLoginSrvr@@AEXAAVCAr@@KPAEK@Z@std@@@4@$0A@@std@@@std@@KAABKPAU_Node@?$_Tree_nod@V?$_Tmap_traits@KP8CDPLoginSrvr@@AEXAAVCAr@@KPAEK@ZU?$less@K@std@@V?$allocator@U?$pair@$$CBKP8CDPLoginSrvr@@AEXAAVCAr@@KPAEK@Z@std@@@4@$0A@@std@@@2@@Z 00415220 f i DPLoginSrvr.obj
 0001:00014230       ?_Root@?$_Tree@V?$_Tmap_traits@KP8CDPLoginSrvr@@AEXAAVCAr@@KPAEK@ZU?$less@K@std@@V?$allocator@U?$pair@$$CBKP8CDPLoginSrvr@@AEXAAVCAr@@KPAEK@Z@std@@@4@$0A@@std@@@std@@IAEAAPAU_Node@?$_Tree_nod@V?$_Tmap_traits@KP8CDPLoginSrvr@@AEXAAVCAr@@KPAEK@ZU?$less@K@std@@V?$allocator@U?$pair@$$CBKP8CDPLoginSrvr@@AEXAAVCAr@@KPAEK@Z@std@@@4@$0A@@std@@@2@XZ 00415230 f i DPLoginSrvr.obj
 0001:00014240       ??0iterator@?$_Tree@V?$_Tmap_traits@KP8CDPLoginSrvr@@AEXAAVCAr@@KPAEK@ZU?$less@K@std@@V?$allocator@U?$pair@$$CBKP8CDPLoginSrvr@@AEXAAVCAr@@KPAEK@Z@std@@@4@$0A@@std@@@std@@QAE@PAU_Node@?$_Tree_nod@V?$_Tmap_traits@KP8CDPLoginSrvr@@AEXAAVCAr@@KPAEK@ZU?$less@K@std@@V?$allocator@U?$pair@$$CBKP8CDPLoginSrvr@@AEXAAVCAr@@KPAEK@Z@std@@@4@$0A@@std@@@2@@Z 00415240 f i DPLoginSrvr.obj
 0001:00014250       ??Diterator@?$_Tree@V?$_Tmap_traits@KP8CDPLoginSrvr@@AEXAAVCAr@@KPAEK@ZU?$less@K@std@@V?$allocator@U?$pair@$$CBKP8CDPLoginSrvr@@AEXAAVCAr@@KPAEK@Z@std@@@4@$0A@@std@@@std@@QBEAAU?$pair@$$CBKP8CDPLoginSrvr@@AEXAAVCAr@@KPAEK@Z@2@XZ 00415250 f i DPLoginSrvr.obj
 0001:00014260       ?max_size@?$_Tree@V?$_Tmap_traits@KP8CDPLoginSrvr@@AEXAAVCAr@@KPAEK@ZU?$less@K@std@@V?$allocator@U?$pair@$$CBKP8CDPLoginSrvr@@AEXAAVCAr@@KPAEK@Z@std@@@4@$0A@@std@@@std@@QBEIXZ 00415260 f i DPLoginSrvr.obj
 0001:00014270       ?_Lbound@?$_Tree@V?$_Tmap_traits@KP8CDPLoginSrvr@@AEXAAVCAr@@KPAEK@ZU?$less@K@std@@V?$allocator@U?$pair@$$CBKP8CDPLoginSrvr@@AEXAAVCAr@@KPAEK@Z@std@@@4@$0A@@std@@@std@@IBEPAU_Node@?$_Tree_nod@V?$_Tmap_traits@KP8CDPLoginSrvr@@AEXAAVCAr@@KPAEK@ZU?$less@K@std@@V?$allocator@U?$pair@$$CBKP8CDPLoginSrvr@@AEXAAVCAr@@KPAEK@Z@std@@@4@$0A@@std@@@2@ABK@Z 00415270 f i DPLoginSrvr.obj
 0001:000142a0       ?_Lrotate@?$_Tree@V?$_Tmap_traits@KP8CDPLoginSrvr@@AEXAAVCAr@@KPAEK@ZU?$less@K@std@@V?$allocator@U?$pair@$$CBKP8CDPLoginSrvr@@AEXAAVCAr@@KPAEK@Z@std@@@4@$0A@@std@@@std@@IAEXPAU_Node@?$_Tree_nod@V?$_Tmap_traits@KP8CDPLoginSrvr@@AEXAAVCAr@@KPAEK@ZU?$less@K@std@@V?$allocator@U?$pair@$$CBKP8CDPLoginSrvr@@AEXAAVCAr@@KPAEK@Z@std@@@4@$0A@@std@@@2@@Z 004152a0 f i DPLoginSrvr.obj
 0001:00014300       ?_Rrotate@?$_Tree@V?$_Tmap_traits@KP8CDPLoginSrvr@@AEXAAVCAr@@KPAEK@ZU?$less@K@std@@V?$allocator@U?$pair@$$CBKP8CDPLoginSrvr@@AEXAAVCAr@@KPAEK@Z@std@@@4@$0A@@std@@@std@@IAEXPAU_Node@?$_Tree_nod@V?$_Tmap_traits@KP8CDPLoginSrvr@@AEXAAVCAr@@KPAEK@ZU?$less@K@std@@V?$allocator@U?$pair@$$CBKP8CDPLoginSrvr@@AEXAAVCAr@@KPAEK@Z@std@@@4@$0A@@std@@@2@@Z 00415300 f i DPLoginSrvr.obj
 0001:00014360       ?destroy@?$allocator@PAU_Node@?$_Tree_nod@V?$_Tmap_traits@KP8CDPLoginSrvr@@AEXAAVCAr@@KPAEK@ZU?$less@K@std@@V?$allocator@U?$pair@$$CBKP8CDPLoginSrvr@@AEXAAVCAr@@KPAEK@Z@std@@@4@$0A@@std@@@std@@@std@@QAEXPAPAU_Node@?$_Tree_nod@V?$_Tmap_traits@KP8CDPLoginSrvr@@AEXAAVCAr@@KPAEK@ZU?$less@K@std@@V?$allocator@U?$pair@$$CBKP8CDPLoginSrvr@@AEXAAVCAr@@KPAEK@Z@std@@@4@$0A@@std@@@2@@Z 00415360 f i DPLoginSrvr.obj
 0001:00014370       ?allocate@?$allocator@U_Node@?$_Tree_nod@V?$_Tmap_traits@KP8CDPLoginSrvr@@AEXAAVCAr@@KPAEK@ZU?$less@K@std@@V?$allocator@U?$pair@$$CBKP8CDPLoginSrvr@@AEXAAVCAr@@KPAEK@Z@std@@@4@$0A@@std@@@std@@@std@@QAEPAU_Node@?$_Tree_nod@V?$_Tmap_traits@KP8CDPLoginSrvr@@AEXAAVCAr@@KPAEK@ZU?$less@K@std@@V?$allocator@U?$pair@$$CBKP8CDPLoginSrvr@@AEXAAVCAr@@KPAEK@Z@std@@@4@$0A@@std@@@2@I@Z 00415370 f i DPLoginSrvr.obj
 0001:00014390       ?_Dec@const_iterator@?$_Tree@V?$_Tmap_traits@KP8CDPLoginSrvr@@AEXAAVCAr@@KPAEK@ZU?$less@K@std@@V?$allocator@U?$pair@$$CBKP8CDPLoginSrvr@@AEXAAVCAr@@KPAEK@Z@std@@@4@$0A@@std@@@std@@QAEXXZ 00415390 f i DPLoginSrvr.obj
 0001:000143f0       ??0?$_Tree_nod@V?$_Tmap_traits@KP8CDPLoginSrvr@@AEXAAVCAr@@KPAEK@ZU?$less@K@std@@V?$allocator@U?$pair@$$CBKP8CDPLoginSrvr@@AEXAAVCAr@@KPAEK@Z@std@@@4@$0A@@std@@@std@@IAE@ABU?$less@K@1@V?$allocator@U?$pair@$$CBKP8CDPLoginSrvr@@AEXAAVCAr@@KPAEK@Z@std@@@1@@Z 004153f0 f i DPLoginSrvr.obj
 0001:00014400       ?destroy@?$allocator@U_Node@?$_Tree_nod@V?$_Tmap_traits@KP8CDPLoginSrvr@@AEXAAVCAr@@KPAEK@ZU?$less@K@std@@V?$allocator@U?$pair@$$CBKP8CDPLoginSrvr@@AEXAAVCAr@@KPAEK@Z@std@@@4@$0A@@std@@@std@@@std@@QAEXPAU_Node@?$_Tree_nod@V?$_Tmap_traits@KP8CDPLoginSrvr@@AEXAAVCAr@@KPAEK@ZU?$less@K@std@@V?$allocator@U?$pair@$$CBKP8CDPLoginSrvr@@AEXAAVCAr@@KPAEK@Z@std@@@4@$0A@@std@@@2@@Z 00415400 f i DPLoginSrvr.obj
 0001:00014410       ?construct@?$allocator@PAU_Node@?$_Tree_nod@V?$_Tmap_traits@KP8CDPLoginSrvr@@AEXAAVCAr@@KPAEK@ZU?$less@K@std@@V?$allocator@U?$pair@$$CBKP8CDPLoginSrvr@@AEXAAVCAr@@KPAEK@Z@std@@@4@$0A@@std@@@std@@@std@@QAEXPAPAU_Node@?$_Tree_nod@V?$_Tmap_traits@KP8CDPLoginSrvr@@AEXAAVCAr@@KPAEK@ZU?$less@K@std@@V?$allocator@U?$pair@$$CBKP8CDPLoginSrvr@@AEXAAVCAr@@KPAEK@Z@std@@@4@$0A@@std@@@2@ABQAU342@@Z 00415410 f i DPLoginSrvr.obj
 0001:00014430       ??Econst_iterator@?$_Tree@V?$_Tmap_traits@KP8CDPLoginSrvr@@AEXAAVCAr@@KPAEK@ZU?$less@K@std@@V?$allocator@U?$pair@$$CBKP8CDPLoginSrvr@@AEXAAVCAr@@KPAEK@Z@std@@@4@$0A@@std@@@std@@QAEAAV012@XZ 00415430 f i DPLoginSrvr.obj
 0001:00014440       ?SendFail@CDPLoginSrvr@@QAEXJPBD@Z 00415440 f   DPLoginSrvr.obj
 0001:00014560       ?SendCloseExistingConnection@CDPLoginSrvr@@QAEXPBDJ@Z 00415560 f   DPLoginSrvr.obj
 0001:00014680       ?SendOneHourNotify@CDPLoginSrvr@@QAEXPBD@Z 00415680 f   DPLoginSrvr.obj
 0001:00014770       ?SendLoginProtect@CDPLoginSrvr@@QAEXPBD0KHK@Z 00415770 f   DPLoginSrvr.obj
 0001:000148c0       ?end@?$_Tree@V?$_Tmap_traits@KP8CDPLoginSrvr@@AEXAAVCAr@@KPAEK@ZU?$less@K@std@@V?$allocator@U?$pair@$$CBKP8CDPLoginSrvr@@AEXAAVCAr@@KPAEK@Z@std@@@4@$0A@@std@@@std@@QAE?AViterator@12@XZ 004158c0 f i DPLoginSrvr.obj
 0001:000148d0       ??Citerator@?$_Tree@V?$_Tmap_traits@KP8CDPLoginSrvr@@AEXAAVCAr@@KPAEK@ZU?$less@K@std@@V?$allocator@U?$pair@$$CBKP8CDPLoginSrvr@@AEXAAVCAr@@KPAEK@Z@std@@@4@$0A@@std@@@std@@QBEPAU?$pair@$$CBKP8CDPLoginSrvr@@AEXAAVCAr@@KPAEK@Z@2@XZ 004158d0 f i DPLoginSrvr.obj
 0001:000148e0       ?begin@?$_Tree@V?$_Tmap_traits@KP8CDPLoginSrvr@@AEXAAVCAr@@KPAEK@ZU?$less@K@std@@V?$allocator@U?$pair@$$CBKP8CDPLoginSrvr@@AEXAAVCAr@@KPAEK@Z@std@@@4@$0A@@std@@@std@@QAE?AViterator@12@XZ 004158e0 f i DPLoginSrvr.obj
 0001:000148f0       ?lower_bound@?$_Tree@V?$_Tmap_traits@KP8CDPLoginSrvr@@AEXAAVCAr@@KPAEK@ZU?$less@K@std@@V?$allocator@U?$pair@$$CBKP8CDPLoginSrvr@@AEXAAVCAr@@KPAEK@Z@std@@@4@$0A@@std@@@std@@QAE?AViterator@12@ABK@Z 004158f0 f i DPLoginSrvr.obj
 0001:00014930       ?_Buynode@?$_Tree@V?$_Tmap_traits@KP8CDPLoginSrvr@@AEXAAVCAr@@KPAEK@ZU?$less@K@std@@V?$allocator@U?$pair@$$CBKP8CDPLoginSrvr@@AEXAAVCAr@@KPAEK@Z@std@@@4@$0A@@std@@@std@@IAEPAU_Node@?$_Tree_nod@V?$_Tmap_traits@KP8CDPLoginSrvr@@AEXAAVCAr@@KPAEK@ZU?$less@K@std@@V?$allocator@U?$pair@$$CBKP8CDPLoginSrvr@@AEXAAVCAr@@KPAEK@Z@std@@@4@$0A@@std@@@2@PAU342@00ABU?$pair@$$CBKP8CDPLoginSrvr@@AEXAAVCAr@@KPAEK@Z@2@D@Z 00415930 f i DPLoginSrvr.obj
 0001:00014970       ??Fconst_iterator@?$_Tree@V?$_Tmap_traits@KP8CDPLoginSrvr@@AEXAAVCAr@@KPAEK@ZU?$less@K@std@@V?$allocator@U?$pair@$$CBKP8CDPLoginSrvr@@AEXAAVCAr@@KPAEK@Z@std@@@4@$0A@@std@@@std@@QAEAAV012@XZ 00415970 f i DPLoginSrvr.obj
 0001:00014980       ?_Buynode@?$_Tree@V?$_Tmap_traits@KP8CDPLoginSrvr@@AEXAAVCAr@@KPAEK@ZU?$less@K@std@@V?$allocator@U?$pair@$$CBKP8CDPLoginSrvr@@AEXAAVCAr@@KPAEK@Z@std@@@4@$0A@@std@@@std@@IAEPAU_Node@?$_Tree_nod@V?$_Tmap_traits@KP8CDPLoginSrvr@@AEXAAVCAr@@KPAEK@ZU?$less@K@std@@V?$allocator@U?$pair@$$CBKP8CDPLoginSrvr@@AEXAAVCAr@@KPAEK@Z@std@@@4@$0A@@std@@@2@XZ 00415980 f i DPLoginSrvr.obj
 0001:000149c0       ??0?$_Tree_ptr@V?$_Tmap_traits@KP8CDPLoginSrvr@@AEXAAVCAr@@KPAEK@ZU?$less@K@std@@V?$allocator@U?$pair@$$CBKP8CDPLoginSrvr@@AEXAAVCAr@@KPAEK@Z@std@@@4@$0A@@std@@@std@@IAE@ABU?$less@K@1@V?$allocator@U?$pair@$$CBKP8CDPLoginSrvr@@AEXAAVCAr@@KPAEK@Z@std@@@1@@Z 004159c0 f i DPLoginSrvr.obj
 0001:000149d0       ?_Erase@?$_Tree@V?$_Tmap_traits@KP8CDPLoginSrvr@@AEXAAVCAr@@KPAEK@ZU?$less@K@std@@V?$allocator@U?$pair@$$CBKP8CDPLoginSrvr@@AEXAAVCAr@@KPAEK@Z@std@@@4@$0A@@std@@@std@@IAEXPAU_Node@?$_Tree_nod@V?$_Tmap_traits@KP8CDPLoginSrvr@@AEXAAVCAr@@KPAEK@ZU?$less@K@std@@V?$allocator@U?$pair@$$CBKP8CDPLoginSrvr@@AEXAAVCAr@@KPAEK@Z@std@@@4@$0A@@std@@@2@@Z 004159d0 f i DPLoginSrvr.obj
 0001:00014a10       ??Eiterator@?$_Tree@V?$_Tmap_traits@KP8CDPLoginSrvr@@AEXAAVCAr@@KPAEK@ZU?$less@K@std@@V?$allocator@U?$pair@$$CBKP8CDPLoginSrvr@@AEXAAVCAr@@KPAEK@Z@std@@@4@$0A@@std@@@std@@QAEAAV012@XZ 00415a10 f i DPLoginSrvr.obj
 0001:00014a20       ?find@?$_Tree@V?$_Tmap_traits@KP8CDPLoginSrvr@@AEXAAVCAr@@KPAEK@ZU?$less@K@std@@V?$allocator@U?$pair@$$CBKP8CDPLoginSrvr@@AEXAAVCAr@@KPAEK@Z@std@@@4@$0A@@std@@@std@@QAE?AViterator@12@ABK@Z 00415a20 f i DPLoginSrvr.obj
 0001:00014a90       ??Fiterator@?$_Tree@V?$_Tmap_traits@KP8CDPLoginSrvr@@AEXAAVCAr@@KPAEK@ZU?$less@K@std@@V?$allocator@U?$pair@$$CBKP8CDPLoginSrvr@@AEXAAVCAr@@KPAEK@Z@std@@@4@$0A@@std@@@std@@QAEAAV012@XZ 00415a90 f i DPLoginSrvr.obj
 0001:00014aa0       ?_Init@?$_Tree@V?$_Tmap_traits@KP8CDPLoginSrvr@@AEXAAVCAr@@KPAEK@ZU?$less@K@std@@V?$allocator@U?$pair@$$CBKP8CDPLoginSrvr@@AEXAAVCAr@@KPAEK@Z@std@@@4@$0A@@std@@@std@@IAEXXZ 00415aa0 f i DPLoginSrvr.obj
 0001:00014ad0       ??0?$_Tree_val@V?$_Tmap_traits@KP8CDPLoginSrvr@@AEXAAVCAr@@KPAEK@ZU?$less@K@std@@V?$allocator@U?$pair@$$CBKP8CDPLoginSrvr@@AEXAAVCAr@@KPAEK@Z@std@@@4@$0A@@std@@@std@@IAE@ABU?$less@K@1@V?$allocator@U?$pair@$$CBKP8CDPLoginSrvr@@AEXAAVCAr@@KPAEK@Z@std@@@1@@Z 00415ad0 f i DPLoginSrvr.obj
 0001:00014ae0       ?clear@?$_Tree@V?$_Tmap_traits@KP8CDPLoginSrvr@@AEXAAVCAr@@KPAEK@ZU?$less@K@std@@V?$allocator@U?$pair@$$CBKP8CDPLoginSrvr@@AEXAAVCAr@@KPAEK@Z@std@@@4@$0A@@std@@@std@@QAEXXZ 00415ae0 f i DPLoginSrvr.obj
 0001:00014b10       ??Eiterator@?$_Tree@V?$_Tmap_traits@KP8CDPLoginSrvr@@AEXAAVCAr@@KPAEK@ZU?$less@K@std@@V?$allocator@U?$pair@$$CBKP8CDPLoginSrvr@@AEXAAVCAr@@KPAEK@Z@std@@@4@$0A@@std@@@std@@QAE?AV012@H@Z 00415b10 f i DPLoginSrvr.obj
 0001:00014b30       ?GetHandler@CDPLoginSrvr@@AAEP81@AEXAAVCAr@@KPAEK@ZK@Z 00415b30 f i DPLoginSrvr.obj
 0001:00014b60       ?UserMessageHandler@CDPLoginSrvr@@UAEXPAUDPMSG_GENERIC@@KK@Z 00415b60 f   DPLoginSrvr.obj
 0001:00014c60       ??0?$_Tree@V?$_Tmap_traits@KP8CDPLoginSrvr@@AEXAAVCAr@@KPAEK@ZU?$less@K@std@@V?$allocator@U?$pair@$$CBKP8CDPLoginSrvr@@AEXAAVCAr@@KPAEK@Z@std@@@4@$0A@@std@@@std@@QAE@ABU?$less@K@1@ABV?$allocator@U?$pair@$$CBKP8CDPLoginSrvr@@AEXAAVCAr@@KPAEK@Z@std@@@1@@Z 00415c60 f i DPLoginSrvr.obj
 0001:00014c90       ?_Insert@?$_Tree@V?$_Tmap_traits@KP8CDPLoginSrvr@@AEXAAVCAr@@KPAEK@ZU?$less@K@std@@V?$allocator@U?$pair@$$CBKP8CDPLoginSrvr@@AEXAAVCAr@@KPAEK@Z@std@@@4@$0A@@std@@@std@@IAE?AViterator@12@_NPAU_Node@?$_Tree_nod@V?$_Tmap_traits@KP8CDPLoginSrvr@@AEXAAVCAr@@KPAEK@ZU?$less@K@std@@V?$allocator@U?$pair@$$CBKP8CDPLoginSrvr@@AEXAAVCAr@@KPAEK@Z@std@@@4@$0A@@std@@@2@ABU?$pair@$$CBKP8CDPLoginSrvr@@AEXAAVCAr@@KPAEK@Z@2@@Z 00415c90 f i DPLoginSrvr.obj
 0001:00014e40       ?erase@?$_Tree@V?$_Tmap_traits@KP8CDPLoginSrvr@@AEXAAVCAr@@KPAEK@ZU?$less@K@std@@V?$allocator@U?$pair@$$CBKP8CDPLoginSrvr@@AEXAAVCAr@@KPAEK@Z@std@@@4@$0A@@std@@@std@@QAE?AViterator@12@V312@@Z 00415e40 f i DPLoginSrvr.obj
 0001:00015100       ?insert@?$_Tree@V?$_Tmap_traits@KP8CDPLoginSrvr@@AEXAAVCAr@@KPAEK@ZU?$less@K@std@@V?$allocator@U?$pair@$$CBKP8CDPLoginSrvr@@AEXAAVCAr@@KPAEK@Z@std@@@4@$0A@@std@@@std@@QAE?AU?$pair@Viterator@?$_Tree@V?$_Tmap_traits@KP8CDPLoginSrvr@@AEXAAVCAr@@KPAEK@ZU?$less@K@std@@V?$allocator@U?$pair@$$CBKP8CDPLoginSrvr@@AEXAAVCAr@@KPAEK@Z@std@@@4@$0A@@std@@@std@@_N@2@ABU?$pair@$$CBKP8CDPLoginSrvr@@AEXAAVCAr@@KPAEK@Z@2@@Z 00416100 f i DPLoginSrvr.obj
 0001:000151c0       ?erase@?$_Tree@V?$_Tmap_traits@KP8CDPLoginSrvr@@AEXAAVCAr@@KPAEK@ZU?$less@K@std@@V?$allocator@U?$pair@$$CBKP8CDPLoginSrvr@@AEXAAVCAr@@KPAEK@Z@std@@@4@$0A@@std@@@std@@QAE?AViterator@12@V312@0@Z 004161c0 f i DPLoginSrvr.obj
 0001:00015280       ?_Tidy@?$_Tree@V?$_Tmap_traits@KP8CDPLoginSrvr@@AEXAAVCAr@@KPAEK@ZU?$less@K@std@@V?$allocator@U?$pair@$$CBKP8CDPLoginSrvr@@AEXAAVCAr@@KPAEK@Z@std@@@4@$0A@@std@@@std@@IAEXXZ 00416280 f i DPLoginSrvr.obj
 0001:000152b0       ??1?$_Tree@V?$_Tmap_traits@KP8CDPLoginSrvr@@AEXAAVCAr@@KPAEK@ZU?$less@K@std@@V?$allocator@U?$pair@$$CBKP8CDPLoginSrvr@@AEXAAVCAr@@KPAEK@Z@std@@@4@$0A@@std@@@std@@QAE@XZ 004162b0 f i DPLoginSrvr.obj
 0001:000152e0       ??1?$map@KP8CDPLoginSrvr@@AEXAAVCAr@@KPAEK@ZU?$less@K@std@@V?$allocator@U?$pair@$$CBKP8CDPLoginSrvr@@AEXAAVCAr@@KPAEK@Z@std@@@4@@std@@QAE@XZ 004162e0 f i DPLoginSrvr.obj
 0001:00015310       ??1CDPLoginSrvr@@UAE@XZ    00416310 f   DPLoginSrvr.obj
 0001:00015390       ??0?$map@KP8CDPLoginSrvr@@AEXAAVCAr@@KPAEK@ZU?$less@K@std@@V?$allocator@U?$pair@$$CBKP8CDPLoginSrvr@@AEXAAVCAr@@KPAEK@Z@std@@@4@@std@@QAE@XZ 00416390 f i DPLoginSrvr.obj
 0001:000153c0       ??0CDPLoginSrvr@@QAE@XZ    004163c0 f   DPLoginSrvr.obj
 0001:00015500       ??_GCDPLoginSrvr@@UAEPAXI@Z 00416500 f i DPLoginSrvr.obj
 0001:00015500       ??_ECDPLoginSrvr@@UAEPAXI@Z 00416500 f i DPLoginSrvr.obj
 0001:00015520       ??0_PlayerData@@QAE@XZ     00416520 f i dptrans.obj
 0001:00015540       ?GetElection@CLord@@QAEPAVIElection@@XZ 00416540 f i dptrans.obj
 0001:00015550       ?SetRun@CTElection@@QAEXH@Z 00416550 f i dptrans.obj
 0001:00015560       ?PostRequest@CCoupleHelper@@QAEHHPAEHK@Z 00416560 f i dptrans.obj
 0001:00015570       ?PostRequest@CRainbowRaceDBMng@@QAEHHPAEHK@Z 00416570 f i dptrans.obj
 0001:00015580       ?PostRequest@CHousingDBMng@@QAEHHPAEHK@Z 00416580 f i dptrans.obj
 0001:00015590       ?PostRequest@CFunnyCoinDbMng@@QAEHHPAEHK@Z 00416590 f i dptrans.obj
 0001:000155a0       ?PostRequest@CQuizDBMng@@QAEHHPAEHK@Z 004165a0 f i dptrans.obj
 0001:000155b0       ?Serialize@CCampusHelper@@QAEXAAVCAr@@@Z 004165b0 f i dptrans.obj
 0001:000155c0       ?OnRemoveConnection@CDPTrans@@AAEXK@Z 004165c0 f   dptrans.obj
 0001:000155d0       ?OnSaveConcurrentUserNumber@CDPTrans@@QAEXAAVCAr@@KKKPAEK@Z 004165d0 f   dptrans.obj
 0001:00015690       ?OnLogPlayConnect@CDPTrans@@AAEXAAVCAr@@KKKPAEK@Z 00416690 f   dptrans.obj
 0001:00015700       ?OnLogPlayDeath@CDPTrans@@AAEXAAVCAr@@KKKPAEK@Z 00416700 f   dptrans.obj
 0001:00015770       ?OnLogLevelUp@CDPTrans@@AAEXAAVCAr@@KKKPAEK@Z 00416770 f   dptrans.obj
 0001:000157e0       ?OnLogServerDeath@CDPTrans@@AAEXAAVCAr@@KKKPAEK@Z 004167e0 f   dptrans.obj
 0001:00015850       ?OnLogGetHonorTime@CDPTrans@@QAEXAAVCAr@@KKKPAEK@Z 00416850 f   dptrans.obj
 0001:000158a0       ?OnLogUniqueItem@CDPTrans@@AAEXAAVCAr@@KKKPAEK@Z 004168a0 f   dptrans.obj
 0001:00015910       ?OnLogItem@CDPTrans@@AAEXAAVCAr@@KKKPAEK@Z 00416910 f   dptrans.obj
 0001:00015980       ?OnLogQuest@CDPTrans@@AAEXAAVCAr@@KKKPAEK@Z 00416980 f   dptrans.obj
 0001:000159f0       ?OnChangeBankPass@CDPTrans@@AAEXAAVCAr@@KKKPAEK@Z 004169f0 f   dptrans.obj
 0001:00015a60       ?OnGammaChat@CDPTrans@@AAEXAAVCAr@@KKKPAEK@Z 00416a60 f   dptrans.obj
 0001:00015ad0       ?OnLogPkPvp@CDPTrans@@AAEXAAVCAr@@KKKPAEK@Z 00416ad0 f   dptrans.obj
 0001:00015b40       ?OnLogSchool@CDPTrans@@AAEXAAVCAr@@KKKPAEK@Z 00416b40 f   dptrans.obj
 0001:00015bb0       ?OnLogSkillPoint@CDPTrans@@AAEXAAVCAr@@KKKPAEK@Z 00416bb0 f   dptrans.obj
 0001:00015c20       ?OnQueryGuildBank@CDPTrans@@AAEXAAVCAr@@KKKPAEK@Z 00416c20 f   dptrans.obj
 0001:00015c90       ?OnUpdateGuildRanking@CDPTrans@@AAEXAAVCAr@@KKKPAEK@Z 00416c90 f   dptrans.obj
 0001:00015d00       ?OnUpdateGuildRankingDB@CDPTrans@@AAEXAAVCAr@@KKKPAEK@Z 00416d00 f   dptrans.obj
 0001:00015d70       ?OnGuildBankUpdate@CDPTrans@@AAEXAAVCAr@@KKKPAEK@Z 00416d70 f   dptrans.obj
 0001:00015de0       ?OnGuildRealPay@CDPTrans@@AAEXAAVCAr@@KKKPAEK@Z 00416de0 f   dptrans.obj
 0001:00015e50       ?OnGuildContribution@CDPTrans@@AAEXAAVCAr@@KKKPAEK@Z 00416e50 f   dptrans.obj
 0001:00015ec0       ?OnSchoolReport@CDPTrans@@AAEXAAVCAr@@KKKPAEK@Z 00416ec0 f   dptrans.obj
 0001:00015f10       ?OnQueryGuildQuest@CDPTrans@@AAEXAAVCAr@@KKKPAEK@Z 00416f10 f   dptrans.obj
 0001:00015f60       ?OnInsertGuildQuest@CDPTrans@@AAEXAAVCAr@@KKKPAEK@Z 00416f60 f   dptrans.obj
 0001:00015fb0       ?OnUpdateGuildQuest@CDPTrans@@AAEXAAVCAr@@KKKPAEK@Z 00416fb0 f   dptrans.obj
 0001:00016000       ?OnQuerySetPlayerName@CDPTrans@@AAEXAAVCAr@@KKKPAEK@Z 00417000 f   dptrans.obj
 0001:00016060       ?OnQueryMailBox@CDPTrans@@QAEXAAVCAr@@KKKPAEK@Z 00417060 f   dptrans.obj
 0001:000160b0       ?OnQueryPostMail@CDPTrans@@QAEXAAVCAr@@KKKPAEK@Z 004170b0 f   dptrans.obj
 0001:00016100       ?OnQueryRemoveMail@CDPTrans@@QAEXAAVCAr@@KKKPAEK@Z 00417100 f   dptrans.obj
 0001:00016150       ?OnQueryGetMailItem@CDPTrans@@QAEXAAVCAr@@KKKPAEK@Z 00417150 f   dptrans.obj
 0001:000161a0       ?OnQueryGetMailGold@CDPTrans@@QAEXAAVCAr@@KKKPAEK@Z 004171a0 f   dptrans.obj
 0001:000161f0       ?OnReadMail@CDPTrans@@QAEXAAVCAr@@KKKPAEK@Z 004171f0 f   dptrans.obj
 0001:00016240       ?OnGuidCombatInGuild@CDPTrans@@QAEXAAVCAr@@KKKPAEK@Z 00417240 f   dptrans.obj
 0001:00016290       ?OnGuidCombatOutGuild@CDPTrans@@QAEXAAVCAr@@KKKPAEK@Z 00417290 f   dptrans.obj
 0001:000162e0       ?OnStartGuildCombat@CDPTrans@@QAEXAAVCAr@@KKKPAEK@Z 004172e0 f   dptrans.obj
 0001:00016330       ?OnResultGuildCombat@CDPTrans@@QAEXAAVCAr@@KKKPAEK@Z 00417330 f   dptrans.obj
 0001:00016380       ?OnGCGetPenyaGuild@CDPTrans@@QAEXAAVCAr@@KKKPAEK@Z 00417380 f   dptrans.obj
 0001:000163d0       ?OnGCGetPenyaPlayer@CDPTrans@@QAEXAAVCAr@@KKKPAEK@Z 004173d0 f   dptrans.obj
 0001:00016420       ?OnGCContinue@CDPTrans@@QAEXAAVCAr@@KKKPAEK@Z 00417420 f   dptrans.obj
 0001:00016470       ?OnQueryRemoveGuildBankTbl@CDPTrans@@AAEXAAVCAr@@KKKPAEK@Z 00417470 f   dptrans.obj
 0001:000164c0       ?OnEveRecommend@CDPTrans@@QAEXAAVCAr@@KKKPAEK@Z 004174c0 f   dptrans.obj
 0001:00016510       ?OnCalluspLoggingQuest@CDPTrans@@AAEXAAVCAr@@KKKPAEK@Z 00417510 f   dptrans.obj
 0001:00016560       ?OnLogExpBox@CDPTrans@@AAEXAAVCAr@@KKKPAEK@Z 00417560 f   dptrans.obj
 0001:000165b0       ?OnCalluspPetLog@CDPTrans@@AAEXAAVCAr@@KKKPAEK@Z 004175b0 f   dptrans.obj
 0001:00016600       ?OnGC1to1StateToDBSrvr@CDPTrans@@AAEXAAVCAr@@KKKPAEK@Z 00417600 f   dptrans.obj
 0001:00016650       ?OnGC1to1Tender@CDPTrans@@AAEXAAVCAr@@KKKPAEK@Z 00417650 f   dptrans.obj
 0001:000166a0       ?OnGC1to1LineUp@CDPTrans@@AAEXAAVCAr@@KKKPAEK@Z 004176a0 f   dptrans.obj
 0001:000166f0       ?OnGC1to1WarPerson@CDPTrans@@AAEXAAVCAr@@KKKPAEK@Z 004176f0 f   dptrans.obj
 0001:00016740       ?OnGC1to1WarGuild@CDPTrans@@AAEXAAVCAr@@KKKPAEK@Z 00417740 f   dptrans.obj
 0001:00016790       ?OnGuildBankLogView@CDPTrans@@AAEXAAVCAr@@KKKPAEK@Z 00417790 f   dptrans.obj
 0001:000167e0       ?OnSealChar@CDPTrans@@AAEXAAVCAr@@KKKPAEK@Z 004177e0 f   dptrans.obj
 0001:00016830       ?OnSealCharConm@CDPTrans@@AAEXAAVCAr@@KKKPAEK@Z 00417830 f   dptrans.obj
 0001:00016880       ?OnSealCharGet@CDPTrans@@AAEXAAVCAr@@KKKPAEK@Z 00417880 f   dptrans.obj
 0001:000168d0       ?OnSealCharSet@CDPTrans@@AAEXAAVCAr@@KKKPAEK@Z 004178d0 f   dptrans.obj
 0001:00016920       ?OnElectionAddDeposit@CDPTrans@@AAEXAAVCAr@@KKKPAEK@Z 00417920 f   dptrans.obj
 0001:00016950       ?OnElectionSetPledge@CDPTrans@@AAEXAAVCAr@@KKKPAEK@Z 00417950 f   dptrans.obj
 0001:00016980       ?OnElectionIncVote@CDPTrans@@AAEXAAVCAr@@KKKPAEK@Z 00417980 f   dptrans.obj
 0001:000169b0       ?OnLEventCreate@CDPTrans@@AAEXAAVCAr@@KKKPAEK@Z 004179b0 f   dptrans.obj
 0001:000169e0       ?OnLordSkillUse@CDPTrans@@AAEXAAVCAr@@KKKPAEK@Z 004179e0 f   dptrans.obj
 0001:00016a10       ?OnLEventInitialize@CDPTrans@@AAEXAAVCAr@@KKKPAEK@Z 00417a10 f   dptrans.obj
 0001:00016a40       ?OnElectionBeginCandidacy@CDPTrans@@AAEXAAVCAr@@KKKPAEK@Z 00417a40 f   dptrans.obj
 0001:00016a70       ?OnElectionBeginVote@CDPTrans@@AAEXAAVCAr@@KKKPAEK@Z 00417a70 f   dptrans.obj
 0001:00016aa0       ?OnElectionEndVote@CDPTrans@@AAEXAAVCAr@@KKKPAEK@Z 00417aa0 f   dptrans.obj
 0001:00016ad0       ?OnSetSecretRoomWinGuild@CDPTrans@@AAEXAAVCAr@@KKKPAEK@Z 00417ad0 f   dptrans.obj
 0001:00016af0       ?OnSetLord@CDPTrans@@AAEXAAVCAr@@KKKPAEK@Z 00417af0 f   dptrans.obj
 0001:00016b10       ?OnTaxRate@CDPTrans@@AAEXAAVCAr@@KKKPAEK@Z 00417b10 f   dptrans.obj
 0001:00016b30       ?OnAddTax@CDPTrans@@AAEXAAVCAr@@KKKPAEK@Z 00417b30 f   dptrans.obj
 0001:00016b50       ?OnApplyTaxRateNow@CDPTrans@@AAEXAAVCAr@@KKKPAEK@Z 00417b50 f   dptrans.obj
 0001:00016b60       ?OnSecretRoomInsertToDB@CDPTrans@@AAEXAAVCAr@@KKKPAEK@Z 00417b60 f   dptrans.obj
 0001:00016b80       ?OnSecretRoomUpdateToDB@CDPTrans@@AAEXAAVCAr@@KKKPAEK@Z 00417b80 f   dptrans.obj
 0001:00016ba0       ?OnSecretRoomLineUpToDB@CDPTrans@@AAEXAAVCAr@@KKKPAEK@Z 00417ba0 f   dptrans.obj
 0001:00016bc0       ?OnSecretRoomClosed@CDPTrans@@AAEXAAVCAr@@KKKPAEK@Z 00417bc0 f   dptrans.obj
 0001:00016be0       ?OnRainbowRaceLoadInfo@CDPTrans@@AAEXAAVCAr@@KKKPAEK@Z 00417be0 f   dptrans.obj
 0001:00016c00       ?OnRainbowRaceApplication@CDPTrans@@AAEXAAVCAr@@KKKPAEK@Z 00417c00 f   dptrans.obj
 0001:00016c20       ?OnRainbowRaceFailedUser@CDPTrans@@AAEXAAVCAr@@KKKPAEK@Z 00417c20 f   dptrans.obj
 0001:00016c40       ?OnRainbowRaceRanking@CDPTrans@@AAEXAAVCAr@@KKKPAEK@Z 00417c40 f   dptrans.obj
 0001:00016c60       ?OnHousingLoadInfo@CDPTrans@@AAEXAAVCAr@@KKKPAEK@Z 00417c60 f   dptrans.obj
 0001:00016c80       ?OnHousingReqSetFurnitureList@CDPTrans@@AAEXAAVCAr@@KKKPAEK@Z 00417c80 f   dptrans.obj
 0001:00016ca0       ?OnHousingReqSetupFurniture@CDPTrans@@AAEXAAVCAr@@KKKPAEK@Z 00417ca0 f   dptrans.obj
 0001:00016cc0       ?OnHousingReqSetVisitAllow@CDPTrans@@AAEXAAVCAr@@KKKPAEK@Z 00417cc0 f   dptrans.obj
 0001:00016ce0       ?OnHousingReqGMRemoveAll@CDPTrans@@AAEXAAVCAr@@KKKPAEK@Z 00417ce0 f   dptrans.obj
 0001:00016d00       ?OnPropose@CDPTrans@@QAEXAAVCAr@@KKKPAEK@Z 00417d00 f   dptrans.obj
 0001:00016d30       ?OnCouple@CDPTrans@@QAEXAAVCAr@@KKKPAEK@Z 00417d30 f   dptrans.obj
 0001:00016d60       ?OnDecouple@CDPTrans@@QAEXAAVCAr@@KKKPAEK@Z 00417d60 f   dptrans.obj
 0001:00016d90       ?OnClearPropose@CDPTrans@@QAEXAAVCAr@@KKKPAEK@Z 00417d90 f   dptrans.obj
 0001:00016dc0       ?OnQueryAddCoupleExperience@CDPTrans@@QAEXAAVCAr@@KKKPAEK@Z 00417dc0 f   dptrans.obj
 0001:00016df0       ?OnFunnyCoinReqUse@CDPTrans@@QAEXAAVCAr@@KKKPAEK@Z 00417df0 f   dptrans.obj
 0001:00016e10       ?OnLogInstanceDungeon@CDPTrans@@QAEXAAVCAr@@KKKPAEK@Z 00417e10 f   dptrans.obj
 0001:00016e80       ?OnQuizEventOpen@CDPTrans@@QAEXAAVCAr@@KKKPAEK@Z 00417e80 f   dptrans.obj
 0001:00016ea0       ?OnQuizEventState@CDPTrans@@QAEXAAVCAr@@KKKPAEK@Z 00417ea0 f   dptrans.obj
 0001:00016ec0       ?OnQuizEventEntrance@CDPTrans@@QAEXAAVCAr@@KKKPAEK@Z 00417ec0 f   dptrans.obj
 0001:00016ee0       ?OnQuizEventSelect@CDPTrans@@QAEXAAVCAr@@KKKPAEK@Z 00417ee0 f   dptrans.obj
 0001:00016f00       ?OnPostPrizeItem@CDPTrans@@QAEXAAVCAr@@KKKPAEK@Z 00417f00 f   dptrans.obj
 0001:00016f20       ?OnErrorLog@CDPTrans@@QAEXAAVCAr@@KKKPAEK@Z 00417f20 f   dptrans.obj
 0001:00016f90       ?OnBuyGuildHouse@CDPTrans@@QAEXAAVCAr@@KKKPAEK@Z 00417f90 f   dptrans.obj
 0001:00016fb0       ?OnGuildHousePacket@CDPTrans@@QAEXAAVCAr@@KKKPAEK@Z 00417fb0 f   dptrans.obj
 0001:00016fd0       ?OnLogGuildFurniture@CDPTrans@@QAEXAAVCAr@@KKKPAEK@Z 00417fd0 f   dptrans.obj
 0001:00017040       ?OnAddCampusMember@CDPTrans@@AAEXAAVCAr@@KKKPAEK@Z 00418040 f   dptrans.obj
 0001:00017060       ?OnRemoveCampusMember@CDPTrans@@AAEXAAVCAr@@KKKPAEK@Z 00418060 f   dptrans.obj
 0001:00017080       ?OnUpdateCampusPoint@CDPTrans@@AAEXAAVCAr@@KKKPAEK@Z 00418080 f   dptrans.obj
 0001:000170a0       ?size@?$vector@KV?$allocator@K@std@@@std@@QBEIXZ 004180a0 f i dptrans.obj
 0001:000170c0       ?size@?$_Tree@V?$_Tmap_traits@KPAU_PlayerData@@U?$less@K@std@@V?$allocator@U?$pair@$$CBKPAU_PlayerData@@@std@@@3@$0A@@std@@@std@@QBEIXZ 004180c0 f i dptrans.obj
 0001:000170d0       ??0?$pair@$$CBKP8CDPTrans@@AEXAAVCAr@@KKKPAEK@Z@std@@QAE@ABKABQ8CDPTrans@@AEXAAVCAr@@KKKPAEK@Z@Z 004180d0 f i dptrans.obj
 0001:000170f0       ?size@?$vector@EV?$allocator@E@std@@@std@@QBEIXZ 004180f0 f i dptrans.obj
 0001:00017100       ?empty@?$vector@EV?$allocator@E@std@@@std@@QBE_NXZ 00418100 f i dptrans.obj
 0001:00017130       ?size@?$vector@U__GC1TO1TENDER@CGuildCombat1to1Mng@@V?$allocator@U__GC1TO1TENDER@CGuildCombat1to1Mng@@@std@@@std@@QBEIXZ 00418130 f i dptrans.obj
 0001:00017150       ?SafeStringLen@?$ChTraitsCRT@D@ATL@@SAHPBD@Z 00418150 f i dptrans.obj
 0001:00017170       ?_Kfn@?$_Tmap_traits@EHU?$less@E@std@@V?$allocator@U?$pair@$$CBEH@std@@@2@$0A@@std@@SAABEABU?$pair@$$CBEH@2@@Z 00418170 f i dptrans.obj
 0001:00017180       ??0?$allocator@U?$pair@$$CBEH@std@@@std@@QAE@XZ 00418180 f i dptrans.obj
 0001:00017190       ?_Isnil@?$_Tree@V?$_Tmap_traits@HV?$basic_string@DU?$char_traits@D@std@@V?$allocator@D@2@@std@@U?$less@H@2@V?$allocator@U?$pair@$$CBHV?$basic_string@DU?$char_traits@D@std@@V?$allocator@D@2@@std@@@std@@@2@$0A@@std@@@std@@KAAADPAU_Node@?$_Tree_nod@V?$_Tmap_traits@HV?$basic_string@DU?$char_traits@D@std@@V?$allocator@D@2@@std@@U?$less@H@2@V?$allocator@U?$pair@$$CBHV?$basic_string@DU?$char_traits@D@std@@V?$allocator@D@2@@std@@@std@@@2@$0A@@std@@@2@@Z 00418190 f i dptrans.obj
 0001:000171a0       ?_Left@?$_Tree@V?$_Tmap_traits@HV?$basic_string@DU?$char_traits@D@std@@V?$allocator@D@2@@std@@U?$less@H@2@V?$allocator@U?$pair@$$CBHV?$basic_string@DU?$char_traits@D@std@@V?$allocator@D@2@@std@@@std@@@2@$0A@@std@@@std@@KAAAPAU_Node@?$_Tree_nod@V?$_Tmap_traits@HV?$basic_string@DU?$char_traits@D@std@@V?$allocator@D@2@@std@@U?$less@H@2@V?$allocator@U?$pair@$$CBHV?$basic_string@DU?$char_traits@D@std@@V?$allocator@D@2@@std@@@std@@@2@$0A@@std@@@2@PAU342@@Z 004181a0 f i dptrans.obj
 0001:000171b0       ?_Right@?$_Tree@V?$_Tmap_traits@HV?$basic_string@DU?$char_traits@D@std@@V?$allocator@D@2@@std@@U?$less@H@2@V?$allocator@U?$pair@$$CBHV?$basic_string@DU?$char_traits@D@std@@V?$allocator@D@2@@std@@@std@@@2@$0A@@std@@@std@@KAAAPAU_Node@?$_Tree_nod@V?$_Tmap_traits@HV?$basic_string@DU?$char_traits@D@std@@V?$allocator@D@2@@std@@U?$less@H@2@V?$allocator@U?$pair@$$CBHV?$basic_string@DU?$char_traits@D@std@@V?$allocator@D@2@@std@@@std@@@2@$0A@@std@@@2@PAU342@@Z 004181b0 f i dptrans.obj
 0001:000171c0       ?_Kfn@?$_Tmap_traits@HV?$basic_string@DU?$char_traits@D@std@@V?$allocator@D@2@@std@@U?$less@H@2@V?$allocator@U?$pair@$$CBHV?$basic_string@DU?$char_traits@D@std@@V?$allocator@D@2@@std@@@std@@@2@$0A@@std@@SAABHABU?$pair@$$CBHV?$basic_string@DU?$char_traits@D@std@@V?$allocator@D@2@@std@@@2@@Z 004181c0 f i dptrans.obj
 0001:000171d0       ??R?$less@H@std@@QBE_NABH0@Z 004181d0 f i dptrans.obj
 0001:000171f0       ?_Isnil@?$_Tree@V?$_Tmap_traits@KP8CDPTrans@@AEXAAVCAr@@KKKPAEK@ZU?$less@K@std@@V?$allocator@U?$pair@$$CBKP8CDPTrans@@AEXAAVCAr@@KKKPAEK@Z@std@@@4@$0A@@std@@@std@@KAAADPAU_Node@?$_Tree_nod@V?$_Tmap_traits@KP8CDPTrans@@AEXAAVCAr@@KKKPAEK@ZU?$less@K@std@@V?$allocator@U?$pair@$$CBKP8CDPTrans@@AEXAAVCAr@@KKKPAEK@Z@std@@@4@$0A@@std@@@2@@Z 004181f0 f i dptrans.obj
 0001:00017200       ?_Left@?$_Tree@V?$_Tmap_traits@KP8CDPTrans@@AEXAAVCAr@@KKKPAEK@ZU?$less@K@std@@V?$allocator@U?$pair@$$CBKP8CDPTrans@@AEXAAVCAr@@KKKPAEK@Z@std@@@4@$0A@@std@@@std@@KAAAPAU_Node@?$_Tree_nod@V?$_Tmap_traits@KP8CDPTrans@@AEXAAVCAr@@KKKPAEK@ZU?$less@K@std@@V?$allocator@U?$pair@$$CBKP8CDPTrans@@AEXAAVCAr@@KKKPAEK@Z@std@@@4@$0A@@std@@@2@PAU342@@Z 00418200 f i dptrans.obj
 0001:00017210       ?_Right@?$_Tree@V?$_Tmap_traits@KP8CDPTrans@@AEXAAVCAr@@KKKPAEK@ZU?$less@K@std@@V?$allocator@U?$pair@$$CBKP8CDPTrans@@AEXAAVCAr@@KKKPAEK@Z@std@@@4@$0A@@std@@@std@@KAAAPAU_Node@?$_Tree_nod@V?$_Tmap_traits@KP8CDPTrans@@AEXAAVCAr@@KKKPAEK@ZU?$less@K@std@@V?$allocator@U?$pair@$$CBKP8CDPTrans@@AEXAAVCAr@@KKKPAEK@Z@std@@@4@$0A@@std@@@2@PAU342@@Z 00418210 f i dptrans.obj
 0001:00017220       ?_Kfn@?$_Tmap_traits@KP8CDPTrans@@AEXAAVCAr@@KKKPAEK@ZU?$less@K@std@@V?$allocator@U?$pair@$$CBKP8CDPTrans@@AEXAAVCAr@@KKKPAEK@Z@std@@@4@$0A@@std@@SAABKABU?$pair@$$CBKP8CDPTrans@@AEXAAVCAr@@KKKPAEK@Z@2@@Z 00418220 f i dptrans.obj
 0001:00017230       ??0?$allocator@U?$pair@$$CBKP8CDPTrans@@AEXAAVCAr@@KKKPAEK@Z@std@@@std@@QAE@XZ 00418230 f i dptrans.obj
 0001:00017240       ??8const_iterator@?$_Tree@V?$_Tmap_traits@KP8CDPTrans@@AEXAAVCAr@@KKKPAEK@ZU?$less@K@std@@V?$allocator@U?$pair@$$CBKP8CDPTrans@@AEXAAVCAr@@KKKPAEK@Z@std@@@4@$0A@@std@@@std@@QBE_NABV012@@Z 00418240 f i dptrans.obj
 0001:00017250       ?_Mynode@const_iterator@?$_Tree@V?$_Tmap_traits@KP8CDPTrans@@AEXAAVCAr@@KKKPAEK@ZU?$less@K@std@@V?$allocator@U?$pair@$$CBKP8CDPTrans@@AEXAAVCAr@@KKKPAEK@Z@std@@@4@$0A@@std@@@std@@QBEPAU_Node@?$_Tree_nod@V?$_Tmap_traits@KP8CDPTrans@@AEXAAVCAr@@KKKPAEK@ZU?$less@K@std@@V?$allocator@U?$pair@$$CBKP8CDPTrans@@AEXAAVCAr@@KKKPAEK@Z@std@@@4@$0A@@std@@@3@XZ 00418250 f i dptrans.obj
 0001:00017260       ??0?$pair@Viterator@?$_Tree@V?$_Tmap_traits@KP8CDPTrans@@AEXAAVCAr@@KKKPAEK@ZU?$less@K@std@@V?$allocator@U?$pair@$$CBKP8CDPTrans@@AEXAAVCAr@@KKKPAEK@Z@std@@@4@$0A@@std@@@std@@_N@std@@QAE@ABViterator@?$_Tree@V?$_Tmap_traits@KP8CDPTrans@@AEXAAVCAr@@KKKPAEK@ZU?$less@K@std@@V?$allocator@U?$pair@$$CBKP8CDPTrans@@AEXAAVCAr@@KKKPAEK@Z@std@@@4@$0A@@std@@@1@AB_N@Z 00418260 f i dptrans.obj
 0001:00017280       ??0?$pair@Viterator@?$_Tree@V?$_Tmap_traits@EHU?$less@E@std@@V?$allocator@U?$pair@$$CBEH@std@@@2@$0A@@std@@@std@@_N@std@@QAE@ABViterator@?$_Tree@V?$_Tmap_traits@EHU?$less@E@std@@V?$allocator@U?$pair@$$CBEH@std@@@2@$0A@@std@@@1@AB_N@Z 00418280 f i dptrans.obj
 0001:000172a0       ??0?$pair@Viterator@?$_Tree@V?$_Tmap_traits@HV?$basic_string@DU?$char_traits@D@std@@V?$allocator@D@2@@std@@U?$less@H@2@V?$allocator@U?$pair@$$CBHV?$basic_string@DU?$char_traits@D@std@@V?$allocator@D@2@@std@@@std@@@2@$0A@@std@@@std@@_N@std@@QAE@ABViterator@?$_Tree@V?$_Tmap_traits@HV?$basic_string@DU?$char_traits@D@std@@V?$allocator@D@2@@std@@U?$less@H@2@V?$allocator@U?$pair@$$CBHV?$basic_string@DU?$char_traits@D@std@@V?$allocator@D@2@@std@@@std@@@2@$0A@@std@@@1@AB_N@Z 004182a0 f i dptrans.obj
 0001:000172c0       ??8const_iterator@?$_Tree@V?$_Tmap_traits@HV?$basic_string@DU?$char_traits@D@std@@V?$allocator@D@2@@std@@U?$less@H@2@V?$allocator@U?$pair@$$CBHV?$basic_string@DU?$char_traits@D@std@@V?$allocator@D@2@@std@@@std@@@2@$0A@@std@@@std@@QBE_NABV012@@Z 004182c0 f i dptrans.obj
 0001:000172d0       ?_Mynode@const_iterator@?$_Tree@V?$_Tmap_traits@HV?$basic_string@DU?$char_traits@D@std@@V?$allocator@D@2@@std@@U?$less@H@2@V?$allocator@U?$pair@$$CBHV?$basic_string@DU?$char_traits@D@std@@V?$allocator@D@2@@std@@@std@@@2@$0A@@std@@@std@@QBEPAU_Node@?$_Tree_nod@V?$_Tmap_traits@HV?$basic_string@DU?$char_traits@D@std@@V?$allocator@D@2@@std@@U?$less@H@2@V?$allocator@U?$pair@$$CBHV?$basic_string@DU?$char_traits@D@std@@V?$allocator@D@2@@std@@@std@@@2@$0A@@std@@@3@XZ 004182d0 f i dptrans.obj
 0001:000172e0       ?deallocate@?$allocator@E@std@@QAEXPAEI@Z 004182e0 f i dptrans.obj
 0001:000172f0       ?_Color@?$_Tree@V?$_Tmap_traits@HV?$basic_string@DU?$char_traits@D@std@@V?$allocator@D@2@@std@@U?$less@H@2@V?$allocator@U?$pair@$$CBHV?$basic_string@DU?$char_traits@D@std@@V?$allocator@D@2@@std@@@std@@@2@$0A@@std@@@std@@KAAADPAU_Node@?$_Tree_nod@V?$_Tmap_traits@HV?$basic_string@DU?$char_traits@D@std@@V?$allocator@D@2@@std@@U?$less@H@2@V?$allocator@U?$pair@$$CBHV?$basic_string@DU?$char_traits@D@std@@V?$allocator@D@2@@std@@@std@@@2@$0A@@std@@@2@@Z 004182f0 f i dptrans.obj
 0001:00017300       ?_Parent@?$_Tree@V?$_Tmap_traits@HV?$basic_string@DU?$char_traits@D@std@@V?$allocator@D@2@@std@@U?$less@H@2@V?$allocator@U?$pair@$$CBHV?$basic_string@DU?$char_traits@D@std@@V?$allocator@D@2@@std@@@std@@@2@$0A@@std@@@std@@KAAAPAU_Node@?$_Tree_nod@V?$_Tmap_traits@HV?$basic_string@DU?$char_traits@D@std@@V?$allocator@D@2@@std@@U?$less@H@2@V?$allocator@U?$pair@$$CBHV?$basic_string@DU?$char_traits@D@std@@V?$allocator@D@2@@std@@@std@@@2@$0A@@std@@@2@PAU342@@Z 00418300 f i dptrans.obj
 0001:00017310       ?_Myval@?$_Tree@V?$_Tmap_traits@HV?$basic_string@DU?$char_traits@D@std@@V?$allocator@D@2@@std@@U?$less@H@2@V?$allocator@U?$pair@$$CBHV?$basic_string@DU?$char_traits@D@std@@V?$allocator@D@2@@std@@@std@@@2@$0A@@std@@@std@@KAAAU?$pair@$$CBHV?$basic_string@DU?$char_traits@D@std@@V?$allocator@D@2@@std@@@2@PAU_Node@?$_Tree_nod@V?$_Tmap_traits@HV?$basic_string@DU?$char_traits@D@std@@V?$allocator@D@2@@std@@U?$less@H@2@V?$allocator@U?$pair@$$CBHV?$basic_string@DU?$char_traits@D@std@@V?$allocator@D@2@@std@@@std@@@2@$0A@@std@@@2@@Z 00418310 f i dptrans.obj
 0001:00017320       ?_Lmost@?$_Tree@V?$_Tmap_traits@HV?$basic_string@DU?$char_traits@D@std@@V?$allocator@D@2@@std@@U?$less@H@2@V?$allocator@U?$pair@$$CBHV?$basic_string@DU?$char_traits@D@std@@V?$allocator@D@2@@std@@@std@@@2@$0A@@std@@@std@@IAEAAPAU_Node@?$_Tree_nod@V?$_Tmap_traits@HV?$basic_string@DU?$char_traits@D@std@@V?$allocator@D@2@@std@@U?$less@H@2@V?$allocator@U?$pair@$$CBHV?$basic_string@DU?$char_traits@D@std@@V?$allocator@D@2@@std@@@std@@@2@$0A@@std@@@2@XZ 00418320 f i dptrans.obj
 0001:00017330       ?_Rmost@?$_Tree@V?$_Tmap_traits@HV?$basic_string@DU?$char_traits@D@std@@V?$allocator@D@2@@std@@U?$less@H@2@V?$allocator@U?$pair@$$CBHV?$basic_string@DU?$char_traits@D@std@@V?$allocator@D@2@@std@@@std@@@2@$0A@@std@@@std@@IAEAAPAU_Node@?$_Tree_nod@V?$_Tmap_traits@HV?$basic_string@DU?$char_traits@D@std@@V?$allocator@D@2@@std@@U?$less@H@2@V?$allocator@U?$pair@$$CBHV?$basic_string@DU?$char_traits@D@std@@V?$allocator@D@2@@std@@@std@@@2@$0A@@std@@@2@XZ 00418330 f i dptrans.obj
 0001:00017340       ?_Color@?$_Tree@V?$_Tmap_traits@KP8CDPTrans@@AEXAAVCAr@@KKKPAEK@ZU?$less@K@std@@V?$allocator@U?$pair@$$CBKP8CDPTrans@@AEXAAVCAr@@KKKPAEK@Z@std@@@4@$0A@@std@@@std@@KAAADPAU_Node@?$_Tree_nod@V?$_Tmap_traits@KP8CDPTrans@@AEXAAVCAr@@KKKPAEK@ZU?$less@K@std@@V?$allocator@U?$pair@$$CBKP8CDPTrans@@AEXAAVCAr@@KKKPAEK@Z@std@@@4@$0A@@std@@@2@@Z 00418340 f i dptrans.obj
 0001:00017350       ?_Parent@?$_Tree@V?$_Tmap_traits@KP8CDPTrans@@AEXAAVCAr@@KKKPAEK@ZU?$less@K@std@@V?$allocator@U?$pair@$$CBKP8CDPTrans@@AEXAAVCAr@@KKKPAEK@Z@std@@@4@$0A@@std@@@std@@KAAAPAU_Node@?$_Tree_nod@V?$_Tmap_traits@KP8CDPTrans@@AEXAAVCAr@@KKKPAEK@ZU?$less@K@std@@V?$allocator@U?$pair@$$CBKP8CDPTrans@@AEXAAVCAr@@KKKPAEK@Z@std@@@4@$0A@@std@@@2@PAU342@@Z 00418350 f i dptrans.obj
 0001:00017360       ?_Myval@?$_Tree@V?$_Tmap_traits@KP8CDPTrans@@AEXAAVCAr@@KKKPAEK@ZU?$less@K@std@@V?$allocator@U?$pair@$$CBKP8CDPTrans@@AEXAAVCAr@@KKKPAEK@Z@std@@@4@$0A@@std@@@std@@KAAAU?$pair@$$CBKP8CDPTrans@@AEXAAVCAr@@KKKPAEK@Z@2@PAU_Node@?$_Tree_nod@V?$_Tmap_traits@KP8CDPTrans@@AEXAAVCAr@@KKKPAEK@ZU?$less@K@std@@V?$allocator@U?$pair@$$CBKP8CDPTrans@@AEXAAVCAr@@KKKPAEK@Z@std@@@4@$0A@@std@@@2@@Z 00418360 f i dptrans.obj
 0001:00017370       ?_Lmost@?$_Tree@V?$_Tmap_traits@KP8CDPTrans@@AEXAAVCAr@@KKKPAEK@ZU?$less@K@std@@V?$allocator@U?$pair@$$CBKP8CDPTrans@@AEXAAVCAr@@KKKPAEK@Z@std@@@4@$0A@@std@@@std@@IAEAAPAU_Node@?$_Tree_nod@V?$_Tmap_traits@KP8CDPTrans@@AEXAAVCAr@@KKKPAEK@ZU?$less@K@std@@V?$allocator@U?$pair@$$CBKP8CDPTrans@@AEXAAVCAr@@KKKPAEK@Z@std@@@4@$0A@@std@@@2@XZ 00418370 f i dptrans.obj
 0001:00017380       ?_Rmost@?$_Tree@V?$_Tmap_traits@KP8CDPTrans@@AEXAAVCAr@@KKKPAEK@ZU?$less@K@std@@V?$allocator@U?$pair@$$CBKP8CDPTrans@@AEXAAVCAr@@KKKPAEK@Z@std@@@4@$0A@@std@@@std@@IAEAAPAU_Node@?$_Tree_nod@V?$_Tmap_traits@KP8CDPTrans@@AEXAAVCAr@@KKKPAEK@ZU?$less@K@std@@V?$allocator@U?$pair@$$CBKP8CDPTrans@@AEXAAVCAr@@KKKPAEK@Z@std@@@4@$0A@@std@@@2@XZ 00418380 f i dptrans.obj
 0001:00017390       ??0?$allocator@U?$pair@$$CBKP8CDPTrans@@AEXAAVCAr@@KKKPAEK@Z@std@@@std@@QAE@ABV01@@Z 00418390 f i dptrans.obj
 0001:000173a0       ?deallocate@?$allocator@U_Node@?$_Tree_nod@V?$_Tmap_traits@KP8CDPTrans@@AEXAAVCAr@@KKKPAEK@ZU?$less@K@std@@V?$allocator@U?$pair@$$CBKP8CDPTrans@@AEXAAVCAr@@KKKPAEK@Z@std@@@4@$0A@@std@@@std@@@std@@QAEXPAU_Node@?$_Tree_nod@V?$_Tmap_traits@KP8CDPTrans@@AEXAAVCAr@@KKKPAEK@ZU?$less@K@std@@V?$allocator@U?$pair@$$CBKP8CDPTrans@@AEXAAVCAr@@KKKPAEK@Z@std@@@4@$0A@@std@@@2@I@Z 004183a0 f i dptrans.obj
 0001:000173b0       ??0const_iterator@?$_Tree@V?$_Tmap_traits@KP8CDPTrans@@AEXAAVCAr@@KKKPAEK@ZU?$less@K@std@@V?$allocator@U?$pair@$$CBKP8CDPTrans@@AEXAAVCAr@@KKKPAEK@Z@std@@@4@$0A@@std@@@std@@QAE@PAU_Node@?$_Tree_nod@V?$_Tmap_traits@KP8CDPTrans@@AEXAAVCAr@@KKKPAEK@ZU?$less@K@std@@V?$allocator@U?$pair@$$CBKP8CDPTrans@@AEXAAVCAr@@KKKPAEK@Z@std@@@4@$0A@@std@@@2@@Z 004183b0 f i dptrans.obj
 0001:000173c0       ??Dconst_iterator@?$_Tree@V?$_Tmap_traits@KP8CDPTrans@@AEXAAVCAr@@KKKPAEK@ZU?$less@K@std@@V?$allocator@U?$pair@$$CBKP8CDPTrans@@AEXAAVCAr@@KKKPAEK@Z@std@@@4@$0A@@std@@@std@@QBEABU?$pair@$$CBKP8CDPTrans@@AEXAAVCAr@@KKKPAEK@Z@2@XZ 004183c0 f i dptrans.obj
 0001:000173d0       ??Dconst_iterator@?$_Tree@V?$_Tmap_traits@EHU?$less@E@std@@V?$allocator@U?$pair@$$CBEH@std@@@2@$0A@@std@@@std@@QBEABU?$pair@$$CBEH@2@XZ 004183d0 f i dptrans.obj
 0001:000173e0       ??0const_iterator@?$_Tree@V?$_Tmap_traits@HV?$basic_string@DU?$char_traits@D@std@@V?$allocator@D@2@@std@@U?$less@H@2@V?$allocator@U?$pair@$$CBHV?$basic_string@DU?$char_traits@D@std@@V?$allocator@D@2@@std@@@std@@@2@$0A@@std@@@std@@QAE@PAU_Node@?$_Tree_nod@V?$_Tmap_traits@HV?$basic_string@DU?$char_traits@D@std@@V?$allocator@D@2@@std@@U?$less@H@2@V?$allocator@U?$pair@$$CBHV?$basic_string@DU?$char_traits@D@std@@V?$allocator@D@2@@std@@@std@@@2@$0A@@std@@@2@@Z 004183e0 f i dptrans.obj
 0001:000173f0       ??Yiterator@?$vector@KV?$allocator@K@std@@@std@@QAEAAV012@H@Z 004183f0 f i dptrans.obj
 0001:00017410       ??Yiterator@?$vector@EV?$allocator@E@std@@@std@@QAEAAV012@H@Z 00418410 f i dptrans.obj
 0001:00017420       ??Dconst_iterator@?$vector@EV?$allocator@E@std@@@std@@QBEABEXZ 00418420 f i dptrans.obj
 0001:00017430       ??Yiterator@?$vector@U__GC1TO1TENDER@CGuildCombat1to1Mng@@V?$allocator@U__GC1TO1TENDER@CGuildCombat1to1Mng@@@std@@@std@@QAEAAV012@H@Z 00418430 f i dptrans.obj
 0001:00017450       ??Dconst_iterator@?$vector@U__GC1TO1TENDER@CGuildCombat1to1Mng@@V?$allocator@U__GC1TO1TENDER@CGuildCombat1to1Mng@@@std@@@std@@QBEABU__GC1TO1TENDER@CGuildCombat1to1Mng@@XZ 00418450 f i dptrans.obj
 0001:00017460       ?max_size@?$allocator@U?$pair@$$CBEH@std@@@std@@QBEIXZ 00418460 f i dptrans.obj
 0001:00017470       ?max_size@?$allocator@U?$pair@$$CBHV?$basic_string@DU?$char_traits@D@std@@V?$allocator@D@2@@std@@@std@@@std@@QBEIXZ 00418470 f i dptrans.obj
 0001:00017480       ?deallocate@?$allocator@U_Node@?$_Tree_nod@V?$_Tmap_traits@HV?$basic_string@DU?$char_traits@D@std@@V?$allocator@D@2@@std@@U?$less@H@2@V?$allocator@U?$pair@$$CBHV?$basic_string@DU?$char_traits@D@std@@V?$allocator@D@2@@std@@@std@@@2@$0A@@std@@@std@@@std@@QAEXPAU_Node@?$_Tree_nod@V?$_Tmap_traits@HV?$basic_string@DU?$char_traits@D@std@@V?$allocator@D@2@@std@@U?$less@H@2@V?$allocator@U?$pair@$$CBHV?$basic_string@DU?$char_traits@D@std@@V?$allocator@D@2@@std@@@std@@@2@$0A@@std@@@2@I@Z 00418480 f i dptrans.obj
 0001:00017490       ?_Root@?$_Tree@V?$_Tmap_traits@KP8CDPTrans@@AEXAAVCAr@@KKKPAEK@ZU?$less@K@std@@V?$allocator@U?$pair@$$CBKP8CDPTrans@@AEXAAVCAr@@KKKPAEK@Z@std@@@4@$0A@@std@@@std@@IBEAAPAU_Node@?$_Tree_nod@V?$_Tmap_traits@KP8CDPTrans@@AEXAAVCAr@@KKKPAEK@ZU?$less@K@std@@V?$allocator@U?$pair@$$CBKP8CDPTrans@@AEXAAVCAr@@KKKPAEK@Z@std@@@4@$0A@@std@@@2@XZ 00418490 f i dptrans.obj
 0001:000174a0       ?max_size@?$allocator@U?$pair@$$CBKP8CDPTrans@@AEXAAVCAr@@KKKPAEK@Z@std@@@std@@QBEIXZ 004184a0 f i dptrans.obj
 0001:000174b0       ?_Dec@const_iterator@?$_Tree@V?$_Tmap_traits@EHU?$less@E@std@@V?$allocator@U?$pair@$$CBEH@std@@@2@$0A@@std@@@std@@QAEXXZ 004184b0 f i dptrans.obj
 0001:00017510       ??0const_iterator@?$vector@EV?$allocator@E@std@@@std@@QAE@PAE@Z 00418510 f i dptrans.obj
 0001:00017520       ??0const_iterator@?$vector@U__GC1TO1TENDER@CGuildCombat1to1Mng@@V?$allocator@U__GC1TO1TENDER@CGuildCombat1to1Mng@@@std@@@std@@QAE@PAU__GC1TO1TENDER@CGuildCombat1to1Mng@@@Z 00418520 f i dptrans.obj
 0001:00017530       ??0_Node@?$_Tree_nod@V?$_Tmap_traits@KP8CDPTrans@@AEXAAVCAr@@KKKPAEK@ZU?$less@K@std@@V?$allocator@U?$pair@$$CBKP8CDPTrans@@AEXAAVCAr@@KKKPAEK@Z@std@@@4@$0A@@std@@@std@@QAE@PAU012@00ABU?$pair@$$CBKP8CDPTrans@@AEXAAVCAr@@KKKPAEK@Z@2@D@Z 00418530 f i dptrans.obj
 0001:00017570       ?_Max@?$_Tree@V?$_Tmap_traits@HV?$basic_string@DU?$char_traits@D@std@@V?$allocator@D@2@@std@@U?$less@H@2@V?$allocator@U?$pair@$$CBHV?$basic_string@DU?$char_traits@D@std@@V?$allocator@D@2@@std@@@std@@@2@$0A@@std@@@std@@KAPAU_Node@?$_Tree_nod@V?$_Tmap_traits@HV?$basic_string@DU?$char_traits@D@std@@V?$allocator@D@2@@std@@U?$less@H@2@V?$allocator@U?$pair@$$CBHV?$basic_string@DU?$char_traits@D@std@@V?$allocator@D@2@@std@@@std@@@2@$0A@@std@@@2@PAU342@@Z 00418570 f i dptrans.obj
 0001:00017590       ?_Max@?$_Tree@V?$_Tmap_traits@KP8CDPTrans@@AEXAAVCAr@@KKKPAEK@ZU?$less@K@std@@V?$allocator@U?$pair@$$CBKP8CDPTrans@@AEXAAVCAr@@KKKPAEK@Z@std@@@4@$0A@@std@@@std@@KAPAU_Node@?$_Tree_nod@V?$_Tmap_traits@KP8CDPTrans@@AEXAAVCAr@@KKKPAEK@ZU?$less@K@std@@V?$allocator@U?$pair@$$CBKP8CDPTrans@@AEXAAVCAr@@KKKPAEK@Z@std@@@4@$0A@@std@@@2@PAU342@@Z 00418590 f i dptrans.obj
 0001:000175b0       ?_Min@?$_Tree@V?$_Tmap_traits@KP8CDPTrans@@AEXAAVCAr@@KKKPAEK@ZU?$less@K@std@@V?$allocator@U?$pair@$$CBKP8CDPTrans@@AEXAAVCAr@@KKKPAEK@Z@std@@@4@$0A@@std@@@std@@KAPAU_Node@?$_Tree_nod@V?$_Tmap_traits@KP8CDPTrans@@AEXAAVCAr@@KKKPAEK@ZU?$less@K@std@@V?$allocator@U?$pair@$$CBKP8CDPTrans@@AEXAAVCAr@@KKKPAEK@Z@std@@@4@$0A@@std@@@2@PAU342@@Z 004185b0 f i dptrans.obj
 0001:000175d0       ??0?$_Tmap_traits@KP8CDPTrans@@AEXAAVCAr@@KKKPAEK@ZU?$less@K@std@@V?$allocator@U?$pair@$$CBKP8CDPTrans@@AEXAAVCAr@@KKKPAEK@Z@std@@@4@$0A@@std@@QAE@U?$less@K@1@@Z 004185d0 f i dptrans.obj
 0001:000175e0       ?_Inc@const_iterator@?$_Tree@V?$_Tmap_traits@KP8CDPTrans@@AEXAAVCAr@@KKKPAEK@ZU?$less@K@std@@V?$allocator@U?$pair@$$CBKP8CDPTrans@@AEXAAVCAr@@KKKPAEK@Z@std@@@4@$0A@@std@@@std@@QAEXXZ 004185e0 f i dptrans.obj
 0001:00017640       ??$?0EH@?$pair@$$CBEH@std@@QAE@ABU?$pair@EH@1@@Z 00418640 f i dptrans.obj
 0001:00017660       ??$_Destroy@PAU_Node@?$_Tree_nod@V?$_Tmap_traits@KP8CDPTrans@@AEXAAVCAr@@KKKPAEK@ZU?$less@K@std@@V?$allocator@U?$pair@$$CBKP8CDPTrans@@AEXAAVCAr@@KKKPAEK@Z@std@@@4@$0A@@std@@@std@@@std@@YAXPAPAU_Node@?$_Tree_nod@V?$_Tmap_traits@KP8CDPTrans@@AEXAAVCAr@@KKKPAEK@ZU?$less@K@std@@V?$allocator@U?$pair@$$CBKP8CDPTrans@@AEXAAVCAr@@KKKPAEK@Z@std@@@4@$0A@@std@@@0@@Z 00418660 f i dptrans.obj
 0001:00017670       ??$_Allocate@U_Node@?$_Tree_nod@V?$_Tmap_traits@HV?$basic_string@DU?$char_traits@D@std@@V?$allocator@D@2@@std@@U?$less@H@2@V?$allocator@U?$pair@$$CBHV?$basic_string@DU?$char_traits@D@std@@V?$allocator@D@2@@std@@@std@@@2@$0A@@std@@@std@@@std@@YAPAU_Node@?$_Tree_nod@V?$_Tmap_traits@HV?$basic_string@DU?$char_traits@D@std@@V?$allocator@D@2@@std@@U?$less@H@2@V?$allocator@U?$pair@$$CBHV?$basic_string@DU?$char_traits@D@std@@V?$allocator@D@2@@std@@@std@@@2@$0A@@std@@@0@IPAU120@@Z 00418670 f i dptrans.obj
 0001:00017690       ??$?0U?$pair@$$CBKP8CDPTrans@@AEXAAVCAr@@KKKPAEK@Z@std@@@?$allocator@PAU_Node@?$_Tree_nod@V?$_Tmap_traits@KP8CDPTrans@@AEXAAVCAr@@KKKPAEK@ZU?$less@K@std@@V?$allocator@U?$pair@$$CBKP8CDPTrans@@AEXAAVCAr@@KKKPAEK@Z@std@@@4@$0A@@std@@@std@@@std@@QAE@ABV?$allocator@U?$pair@$$CBKP8CDPTrans@@AEXAAVCAr@@KKKPAEK@Z@std@@@1@@Z 00418690 f i dptrans.obj
 0001:000176a0       ??$_Allocate@U_Node@?$_Tree_nod@V?$_Tmap_traits@KP8CDPTrans@@AEXAAVCAr@@KKKPAEK@ZU?$less@K@std@@V?$allocator@U?$pair@$$CBKP8CDPTrans@@AEXAAVCAr@@KKKPAEK@Z@std@@@4@$0A@@std@@@std@@@std@@YAPAU_Node@?$_Tree_nod@V?$_Tmap_traits@KP8CDPTrans@@AEXAAVCAr@@KKKPAEK@ZU?$less@K@std@@V?$allocator@U?$pair@$$CBKP8CDPTrans@@AEXAAVCAr@@KKKPAEK@Z@std@@@4@$0A@@std@@@0@IPAU120@@Z 004186a0 f i dptrans.obj
 0001:000176c0       ??$?0U?$pair@$$CBKP8CDPTrans@@AEXAAVCAr@@KKKPAEK@Z@std@@@?$allocator@U_Node@?$_Tree_nod@V?$_Tmap_traits@KP8CDPTrans@@AEXAAVCAr@@KKKPAEK@ZU?$less@K@std@@V?$allocator@U?$pair@$$CBKP8CDPTrans@@AEXAAVCAr@@KKKPAEK@Z@std@@@4@$0A@@std@@@std@@@std@@QAE@ABV?$allocator@U?$pair@$$CBKP8CDPTrans@@AEXAAVCAr@@KKKPAEK@Z@std@@@1@@Z 004186c0 f i dptrans.obj
 0001:000176d0       ??$_Destroy@U_Node@?$_Tree_nod@V?$_Tmap_traits@KP8CDPTrans@@AEXAAVCAr@@KKKPAEK@ZU?$less@K@std@@V?$allocator@U?$pair@$$CBKP8CDPTrans@@AEXAAVCAr@@KKKPAEK@Z@std@@@4@$0A@@std@@@std@@@std@@YAXPAU_Node@?$_Tree_nod@V?$_Tmap_traits@KP8CDPTrans@@AEXAAVCAr@@KKKPAEK@ZU?$less@K@std@@V?$allocator@U?$pair@$$CBKP8CDPTrans@@AEXAAVCAr@@KKKPAEK@Z@std@@@4@$0A@@std@@@0@@Z 004186d0 f i dptrans.obj
 0001:000176e0       ??$_Construct@PAU_Node@?$_Tree_nod@V?$_Tmap_traits@KP8CDPTrans@@AEXAAVCAr@@KKKPAEK@ZU?$less@K@std@@V?$allocator@U?$pair@$$CBKP8CDPTrans@@AEXAAVCAr@@KKKPAEK@Z@std@@@4@$0A@@std@@@std@@PAU123@@std@@YAXPAPAU_Node@?$_Tree_nod@V?$_Tmap_traits@KP8CDPTrans@@AEXAAVCAr@@KKKPAEK@ZU?$less@K@std@@V?$allocator@U?$pair@$$CBKP8CDPTrans@@AEXAAVCAr@@KKKPAEK@Z@std@@@4@$0A@@std@@@0@ABQAU120@@Z 004186e0 f i dptrans.obj
 0001:00017700       ??0?$pair@EH@std@@QAE@ABEABH@Z 00418700 f i dptrans.obj
 0001:00017720       ??$_Destroy_range@EV?$allocator@E@std@@@std@@YAXPAE0AAV?$allocator@E@0@U_Scalar_ptr_iterator_tag@0@@Z 00418720 f i dptrans.obj
 0001:00017730       ?_Ptr_cat@std@@YA?AU_Scalar_ptr_iterator_tag@1@PAE0@Z 00418730 f i dptrans.obj
 0001:00017740       ??0D3DXVECTOR3@@QAE@XZ     00418740 f i dptrans.obj
 0001:00017750       ?IsStoring@CAr@@QBEHXZ     00418750 f i dptrans.obj
 0001:00017760       ??6CAr@@QAEAAV0@M@Z        00418760 f i dptrans.obj
 0001:00017780       ??5CAr@@QAEAAV0@AAM@Z      00418780 f i dptrans.obj
 0001:000177c0       ??6@YAAAVCAr@@AAV0@UD3DXVECTOR3@@@Z 004187c0 f i dptrans.obj
 0001:000177e0       ??5@YAAAVCAr@@AAV0@AAUD3DXVECTOR3@@@Z 004187e0 f i dptrans.obj
 0001:00017800       ??6@YAAAVCAr@@AAV0@_J@Z    00418800 f i dptrans.obj
 0001:00017820       ??5@YAAAVCAr@@AAV0@AA_J@Z  00418820 f i dptrans.obj
 0001:00017840       ?SetState@CRTMessenger@@QAEXK@Z 00418840 f i dptrans.obj
 0001:00017850       ?SetLayer@CObj@@QAEXH@Z    00418850 f i dptrans.obj
 0001:00017860       ?IsEmpty@CItemBase@@QAEHXZ 00418860 f i dptrans.obj
 0001:00017870       ?Lock@CMover@@QAEXXZ       00418870 f i dptrans.obj
 0001:00017880       ?Unlock@CMover@@QAEXXZ     00418880 f i dptrans.obj
 0001:00017890       ?Free@?$MemPooler@VCMover@@@@QAEHPAVCMover@@@Z 00418890 f i dptrans.obj
 0001:000178e0       ?StringFindString@?$ChTraitsCRT@D@ATL@@SAPBDPBD0@Z 004188e0 f i dptrans.obj
 0001:000178f0       ?_Mynode@const_iterator@?$list@PAXV?$allocator@PAX@std@@@std@@QBEPAU_Node@?$_List_nod@PAXV?$allocator@PAX@std@@@3@XZ 004188f0 f i dptrans.obj
 0001:00017900       ??0_Node@?$_List_nod@PAXV?$allocator@PAX@std@@@std@@QAE@PAU012@0ABQAX@Z 00418900 f i dptrans.obj
 0001:00017920       ?max_size@?$allocator@PAX@std@@QBEIXZ 00418920 f i dptrans.obj
 0001:00017930       ??$_Allocate@U_Node@?$_List_nod@PAXV?$allocator@PAX@std@@@std@@@std@@YAPAU_Node@?$_List_nod@PAXV?$allocator@PAX@std@@@0@IPAU120@@Z 00418930 f i dptrans.obj
 0001:00017950       ?Serialize@CGuildRank@@QAEXAAVCAr@@@Z 00418950 f i dptrans.obj
 0001:00017a40       ?size@CPlayerDataCenter@@QAEHXZ 00418a40 f i dptrans.obj
 0001:00017a50       ?OnJoin@CDPTrans@@AAEXAAVCAr@@KKKPAEK@Z 00418a50 f   dptrans.obj
 0001:00017be0       ?OnBuyingInfo@CDPTrans@@AAEXAAVCAr@@KKKPAEK@Z 00418be0 f   dptrans.obj
 0001:00017c90       ?OnPreventLogin@CDPTrans@@AAEXAAVCAr@@KKKPAEK@Z 00418c90 f   dptrans.obj
 0001:00017d40       ??9const_iterator@?$_Tree@V?$_Tmap_traits@KP8CDPTrans@@AEXAAVCAr@@KKKPAEK@ZU?$less@K@std@@V?$allocator@U?$pair@$$CBKP8CDPTrans@@AEXAAVCAr@@KKKPAEK@Z@std@@@4@$0A@@std@@@std@@QBE_NABV012@@Z 00418d40 f i dptrans.obj
 0001:00017d60       ?StringFindString@?$ChTraitsCRT@D@ATL@@SAPADPADPBD@Z 00418d60 f i dptrans.obj
 0001:00017d70       ?_Key@?$_Tree@V?$_Tmap_traits@EHU?$less@E@std@@V?$allocator@U?$pair@$$CBEH@std@@@2@$0A@@std@@@std@@KAABEPAU_Node@?$_Tree_nod@V?$_Tmap_traits@EHU?$less@E@std@@V?$allocator@U?$pair@$$CBEH@std@@@2@$0A@@std@@@2@@Z 00418d70 f i dptrans.obj
 0001:00017d80       ?_Key@?$_Tree@V?$_Tmap_traits@HV?$basic_string@DU?$char_traits@D@std@@V?$allocator@D@2@@std@@U?$less@H@2@V?$allocator@U?$pair@$$CBHV?$basic_string@DU?$char_traits@D@std@@V?$allocator@D@2@@std@@@std@@@2@$0A@@std@@@std@@KAABHPAU_Node@?$_Tree_nod@V?$_Tmap_traits@HV?$basic_string@DU?$char_traits@D@std@@V?$allocator@D@2@@std@@U?$less@H@2@V?$allocator@U?$pair@$$CBHV?$basic_string@DU?$char_traits@D@std@@V?$allocator@D@2@@std@@@std@@@2@$0A@@std@@@2@@Z 00418d80 f i dptrans.obj
 0001:00017d90       ?_Root@?$_Tree@V?$_Tmap_traits@HV?$basic_string@DU?$char_traits@D@std@@V?$allocator@D@2@@std@@U?$less@H@2@V?$allocator@U?$pair@$$CBHV?$basic_string@DU?$char_traits@D@std@@V?$allocator@D@2@@std@@@std@@@2@$0A@@std@@@std@@IAEAAPAU_Node@?$_Tree_nod@V?$_Tmap_traits@HV?$basic_string@DU?$char_traits@D@std@@V?$allocator@D@2@@std@@U?$less@H@2@V?$allocator@U?$pair@$$CBHV?$basic_string@DU?$char_traits@D@std@@V?$allocator@D@2@@std@@@std@@@2@$0A@@std@@@2@XZ 00418d90 f i dptrans.obj
 0001:00017da0       ?_Key@?$_Tree@V?$_Tmap_traits@KP8CDPTrans@@AEXAAVCAr@@KKKPAEK@ZU?$less@K@std@@V?$allocator@U?$pair@$$CBKP8CDPTrans@@AEXAAVCAr@@KKKPAEK@Z@std@@@4@$0A@@std@@@std@@KAABKPAU_Node@?$_Tree_nod@V?$_Tmap_traits@KP8CDPTrans@@AEXAAVCAr@@KKKPAEK@ZU?$less@K@std@@V?$allocator@U?$pair@$$CBKP8CDPTrans@@AEXAAVCAr@@KKKPAEK@Z@std@@@4@$0A@@std@@@2@@Z 00418da0 f i dptrans.obj
 0001:00017db0       ?_Root@?$_Tree@V?$_Tmap_traits@KP8CDPTrans@@AEXAAVCAr@@KKKPAEK@ZU?$less@K@std@@V?$allocator@U?$pair@$$CBKP8CDPTrans@@AEXAAVCAr@@KKKPAEK@Z@std@@@4@$0A@@std@@@std@@IAEAAPAU_Node@?$_Tree_nod@V?$_Tmap_traits@KP8CDPTrans@@AEXAAVCAr@@KKKPAEK@ZU?$less@K@std@@V?$allocator@U?$pair@$$CBKP8CDPTrans@@AEXAAVCAr@@KKKPAEK@Z@std@@@4@$0A@@std@@@2@XZ 00418db0 f i dptrans.obj
 0001:00017dc0       ??0iterator@?$_Tree@V?$_Tmap_traits@KP8CDPTrans@@AEXAAVCAr@@KKKPAEK@ZU?$less@K@std@@V?$allocator@U?$pair@$$CBKP8CDPTrans@@AEXAAVCAr@@KKKPAEK@Z@std@@@4@$0A@@std@@@std@@QAE@PAU_Node@?$_Tree_nod@V?$_Tmap_traits@KP8CDPTrans@@AEXAAVCAr@@KKKPAEK@ZU?$less@K@std@@V?$allocator@U?$pair@$$CBKP8CDPTrans@@AEXAAVCAr@@KKKPAEK@Z@std@@@4@$0A@@std@@@2@@Z 00418dc0 f i dptrans.obj
 0001:00017dd0       ??Diterator@?$_Tree@V?$_Tmap_traits@KP8CDPTrans@@AEXAAVCAr@@KKKPAEK@ZU?$less@K@std@@V?$allocator@U?$pair@$$CBKP8CDPTrans@@AEXAAVCAr@@KKKPAEK@Z@std@@@4@$0A@@std@@@std@@QBEAAU?$pair@$$CBKP8CDPTrans@@AEXAAVCAr@@KKKPAEK@Z@2@XZ 00418dd0 f i dptrans.obj
 0001:00017de0       ??Diterator@?$_Tree@V?$_Tmap_traits@EHU?$less@E@std@@V?$allocator@U?$pair@$$CBEH@std@@@2@$0A@@std@@@std@@QBEAAU?$pair@$$CBEH@2@XZ 00418de0 f i dptrans.obj
 0001:00017df0       ??0iterator@?$_Tree@V?$_Tmap_traits@HV?$basic_string@DU?$char_traits@D@std@@V?$allocator@D@2@@std@@U?$less@H@2@V?$allocator@U?$pair@$$CBHV?$basic_string@DU?$char_traits@D@std@@V?$allocator@D@2@@std@@@std@@@2@$0A@@std@@@std@@QAE@PAU_Node@?$_Tree_nod@V?$_Tmap_traits@HV?$basic_string@DU?$char_traits@D@std@@V?$allocator@D@2@@std@@U?$less@H@2@V?$allocator@U?$pair@$$CBHV?$basic_string@DU?$char_traits@D@std@@V?$allocator@D@2@@std@@@std@@@2@$0A@@std@@@2@@Z 00418df0 f i dptrans.obj
 0001:00017e00       ??Hiterator@?$vector@KV?$allocator@K@std@@@std@@QBE?AV012@H@Z 00418e00 f i dptrans.obj
 0001:00017e20       ??Diterator@?$vector@EV?$allocator@E@std@@@std@@QBEAAEXZ 00418e20 f i dptrans.obj
 0001:00017e30       ??Hiterator@?$vector@EV?$allocator@E@std@@@std@@QBE?AV012@H@Z 00418e30 f i dptrans.obj
 0001:00017e40       ??Diterator@?$vector@U__GC1TO1TENDER@CGuildCombat1to1Mng@@V?$allocator@U__GC1TO1TENDER@CGuildCombat1to1Mng@@@std@@@std@@QBEAAU__GC1TO1TENDER@CGuildCombat1to1Mng@@XZ 00418e40 f i dptrans.obj
 0001:00017e50       ??Hiterator@?$vector@U__GC1TO1TENDER@CGuildCombat1to1Mng@@V?$allocator@U__GC1TO1TENDER@CGuildCombat1to1Mng@@@std@@@std@@QBE?AV012@H@Z 00418e50 f i dptrans.obj
 0001:00017e70       ?max_size@?$_Tree@V?$_Tmap_traits@EHU?$less@E@std@@V?$allocator@U?$pair@$$CBEH@std@@@2@$0A@@std@@@std@@QBEIXZ 00418e70 f i dptrans.obj
 0001:00017e80       ?max_size@?$_Tree@V?$_Tmap_traits@HV?$basic_string@DU?$char_traits@D@std@@V?$allocator@D@2@@std@@U?$less@H@2@V?$allocator@U?$pair@$$CBHV?$basic_string@DU?$char_traits@D@std@@V?$allocator@D@2@@std@@@std@@@2@$0A@@std@@@std@@QBEIXZ 00418e80 f i dptrans.obj
 0001:00017e90       ?_Lrotate@?$_Tree@V?$_Tmap_traits@HV?$basic_string@DU?$char_traits@D@std@@V?$allocator@D@2@@std@@U?$less@H@2@V?$allocator@U?$pair@$$CBHV?$basic_string@DU?$char_traits@D@std@@V?$allocator@D@2@@std@@@std@@@2@$0A@@std@@@std@@IAEXPAU_Node@?$_Tree_nod@V?$_Tmap_traits@HV?$basic_string@DU?$char_traits@D@std@@V?$allocator@D@2@@std@@U?$less@H@2@V?$allocator@U?$pair@$$CBHV?$basic_string@DU?$char_traits@D@std@@V?$allocator@D@2@@std@@@std@@@2@$0A@@std@@@2@@Z 00418e90 f i dptrans.obj
 0001:00017ef0       ?_Rrotate@?$_Tree@V?$_Tmap_traits@HV?$basic_string@DU?$char_traits@D@std@@V?$allocator@D@2@@std@@U?$less@H@2@V?$allocator@U?$pair@$$CBHV?$basic_string@DU?$char_traits@D@std@@V?$allocator@D@2@@std@@@std@@@2@$0A@@std@@@std@@IAEXPAU_Node@?$_Tree_nod@V?$_Tmap_traits@HV?$basic_string@DU?$char_traits@D@std@@V?$allocator@D@2@@std@@U?$less@H@2@V?$allocator@U?$pair@$$CBHV?$basic_string@DU?$char_traits@D@std@@V?$allocator@D@2@@std@@@std@@@2@$0A@@std@@@2@@Z 00418ef0 f i dptrans.obj
 0001:00017f50       ?max_size@?$_Tree@V?$_Tmap_traits@KP8CDPTrans@@AEXAAVCAr@@KKKPAEK@ZU?$less@K@std@@V?$allocator@U?$pair@$$CBKP8CDPTrans@@AEXAAVCAr@@KKKPAEK@Z@std@@@4@$0A@@std@@@std@@QBEIXZ 00418f50 f i dptrans.obj
 0001:00017f60       ?_Lbound@?$_Tree@V?$_Tmap_traits@KP8CDPTrans@@AEXAAVCAr@@KKKPAEK@ZU?$less@K@std@@V?$allocator@U?$pair@$$CBKP8CDPTrans@@AEXAAVCAr@@KKKPAEK@Z@std@@@4@$0A@@std@@@std@@IBEPAU_Node@?$_Tree_nod@V?$_Tmap_traits@KP8CDPTrans@@AEXAAVCAr@@KKKPAEK@ZU?$less@K@std@@V?$allocator@U?$pair@$$CBKP8CDPTrans@@AEXAAVCAr@@KKKPAEK@Z@std@@@4@$0A@@std@@@2@ABK@Z 00418f60 f i dptrans.obj
 0001:00017f90       ?_Lrotate@?$_Tree@V?$_Tmap_traits@KP8CDPTrans@@AEXAAVCAr@@KKKPAEK@ZU?$less@K@std@@V?$allocator@U?$pair@$$CBKP8CDPTrans@@AEXAAVCAr@@KKKPAEK@Z@std@@@4@$0A@@std@@@std@@IAEXPAU_Node@?$_Tree_nod@V?$_Tmap_traits@KP8CDPTrans@@AEXAAVCAr@@KKKPAEK@ZU?$less@K@std@@V?$allocator@U?$pair@$$CBKP8CDPTrans@@AEXAAVCAr@@KKKPAEK@Z@std@@@4@$0A@@std@@@2@@Z 00418f90 f i dptrans.obj
 0001:00017ff0       ?_Rrotate@?$_Tree@V?$_Tmap_traits@KP8CDPTrans@@AEXAAVCAr@@KKKPAEK@ZU?$less@K@std@@V?$allocator@U?$pair@$$CBKP8CDPTrans@@AEXAAVCAr@@KKKPAEK@Z@std@@@4@$0A@@std@@@std@@IAEXPAU_Node@?$_Tree_nod@V?$_Tmap_traits@KP8CDPTrans@@AEXAAVCAr@@KKKPAEK@ZU?$less@K@std@@V?$allocator@U?$pair@$$CBKP8CDPTrans@@AEXAAVCAr@@KKKPAEK@Z@std@@@4@$0A@@std@@@2@@Z 00418ff0 f i dptrans.obj
 0001:00018050       ?destroy@?$allocator@PAU_Node@?$_Tree_nod@V?$_Tmap_traits@KP8CDPTrans@@AEXAAVCAr@@KKKPAEK@ZU?$less@K@std@@V?$allocator@U?$pair@$$CBKP8CDPTrans@@AEXAAVCAr@@KKKPAEK@Z@std@@@4@$0A@@std@@@std@@@std@@QAEXPAPAU_Node@?$_Tree_nod@V?$_Tmap_traits@KP8CDPTrans@@AEXAAVCAr@@KKKPAEK@ZU?$less@K@std@@V?$allocator@U?$pair@$$CBKP8CDPTrans@@AEXAAVCAr@@KKKPAEK@Z@std@@@4@$0A@@std@@@2@@Z 00419050 f i dptrans.obj
 0001:00018060       ??Fconst_iterator@?$_Tree@V?$_Tmap_traits@EHU?$less@E@std@@V?$allocator@U?$pair@$$CBEH@std@@@2@$0A@@std@@@std@@QAEAAV012@XZ 00419060 f i dptrans.obj
 0001:00018070       ??0iterator@?$vector@EV?$allocator@E@std@@@std@@QAE@PAE@Z 00419070 f i dptrans.obj
 0001:00018080       ??0iterator@?$vector@U__GC1TO1TENDER@CGuildCombat1to1Mng@@V?$allocator@U__GC1TO1TENDER@CGuildCombat1to1Mng@@@std@@@std@@QAE@PAU__GC1TO1TENDER@CGuildCombat1to1Mng@@@Z 00419080 f i dptrans.obj
 0001:00018090       ?allocate@?$allocator@U_Node@?$_Tree_nod@V?$_Tmap_traits@HV?$basic_string@DU?$char_traits@D@std@@V?$allocator@D@2@@std@@U?$less@H@2@V?$allocator@U?$pair@$$CBHV?$basic_string@DU?$char_traits@D@std@@V?$allocator@D@2@@std@@@std@@@2@$0A@@std@@@std@@@std@@QAEPAU_Node@?$_Tree_nod@V?$_Tmap_traits@HV?$basic_string@DU?$char_traits@D@std@@V?$allocator@D@2@@std@@U?$less@H@2@V?$allocator@U?$pair@$$CBHV?$basic_string@DU?$char_traits@D@std@@V?$allocator@D@2@@std@@@std@@@2@$0A@@std@@@2@I@Z 00419090 f i dptrans.obj
 0001:000180b0       ?allocate@?$allocator@U_Node@?$_Tree_nod@V?$_Tmap_traits@KP8CDPTrans@@AEXAAVCAr@@KKKPAEK@ZU?$less@K@std@@V?$allocator@U?$pair@$$CBKP8CDPTrans@@AEXAAVCAr@@KKKPAEK@Z@std@@@4@$0A@@std@@@std@@@std@@QAEPAU_Node@?$_Tree_nod@V?$_Tmap_traits@KP8CDPTrans@@AEXAAVCAr@@KKKPAEK@ZU?$less@K@std@@V?$allocator@U?$pair@$$CBKP8CDPTrans@@AEXAAVCAr@@KKKPAEK@Z@std@@@4@$0A@@std@@@2@I@Z 004190b0 f i dptrans.obj
 0001:000180d0       ?_Dec@const_iterator@?$_Tree@V?$_Tmap_traits@KP8CDPTrans@@AEXAAVCAr@@KKKPAEK@ZU?$less@K@std@@V?$allocator@U?$pair@$$CBKP8CDPTrans@@AEXAAVCAr@@KKKPAEK@Z@std@@@4@$0A@@std@@@std@@QAEXXZ 004190d0 f i dptrans.obj
 0001:00018130       ?_Dec@const_iterator@?$_Tree@V?$_Tmap_traits@HV?$basic_string@DU?$char_traits@D@std@@V?$allocator@D@2@@std@@U?$less@H@2@V?$allocator@U?$pair@$$CBHV?$basic_string@DU?$char_traits@D@std@@V?$allocator@D@2@@std@@@std@@@2@$0A@@std@@@std@@QAEXXZ 00419130 f i dptrans.obj
 0001:00018190       ??0?$_Tree_nod@V?$_Tmap_traits@KP8CDPTrans@@AEXAAVCAr@@KKKPAEK@ZU?$less@K@std@@V?$allocator@U?$pair@$$CBKP8CDPTrans@@AEXAAVCAr@@KKKPAEK@Z@std@@@4@$0A@@std@@@std@@IAE@ABU?$less@K@1@V?$allocator@U?$pair@$$CBKP8CDPTrans@@AEXAAVCAr@@KKKPAEK@Z@std@@@1@@Z 00419190 f i dptrans.obj
 0001:000181a0       ?destroy@?$allocator@U_Node@?$_Tree_nod@V?$_Tmap_traits@KP8CDPTrans@@AEXAAVCAr@@KKKPAEK@ZU?$less@K@std@@V?$allocator@U?$pair@$$CBKP8CDPTrans@@AEXAAVCAr@@KKKPAEK@Z@std@@@4@$0A@@std@@@std@@@std@@QAEXPAU_Node@?$_Tree_nod@V?$_Tmap_traits@KP8CDPTrans@@AEXAAVCAr@@KKKPAEK@ZU?$less@K@std@@V?$allocator@U?$pair@$$CBKP8CDPTrans@@AEXAAVCAr@@KKKPAEK@Z@std@@@4@$0A@@std@@@2@@Z 004191a0 f i dptrans.obj
 0001:000181b0       ?construct@?$allocator@PAU_Node@?$_Tree_nod@V?$_Tmap_traits@KP8CDPTrans@@AEXAAVCAr@@KKKPAEK@ZU?$less@K@std@@V?$allocator@U?$pair@$$CBKP8CDPTrans@@AEXAAVCAr@@KKKPAEK@Z@std@@@4@$0A@@std@@@std@@@std@@QAEXPAPAU_Node@?$_Tree_nod@V?$_Tmap_traits@KP8CDPTrans@@AEXAAVCAr@@KKKPAEK@ZU?$less@K@std@@V?$allocator@U?$pair@$$CBKP8CDPTrans@@AEXAAVCAr@@KKKPAEK@Z@std@@@4@$0A@@std@@@2@ABQAU342@@Z 004191b0 f i dptrans.obj
 0001:000181d0       ??Econst_iterator@?$_Tree@V?$_Tmap_traits@KP8CDPTrans@@AEXAAVCAr@@KKKPAEK@ZU?$less@K@std@@V?$allocator@U?$pair@$$CBKP8CDPTrans@@AEXAAVCAr@@KKKPAEK@Z@std@@@4@$0A@@std@@@std@@QAEAAV012@XZ 004191d0 f i dptrans.obj
 0001:000181e0       ?Copy@?$CItemContainer@VCItemElem@@@@QAEXAAV1@@Z 004191e0 f i dptrans.obj
 0001:00018270       ??$make_pair@EH@std@@YA?AU?$pair@EH@0@EH@Z 00419270 f i dptrans.obj
 0001:00018290       ??$_Destroy_range@EV?$allocator@E@std@@@std@@YAXPAE0AAV?$allocator@E@0@@Z 00419290 f i dptrans.obj
 0001:000182a0       ??3CMover@@SAXPAX@Z        004192a0 f i dptrans.obj
 0001:000182e0       ?max_size@?$list@PAXV?$allocator@PAX@std@@@std@@QBEIXZ 004192e0 f i dptrans.obj
 0001:000182f0       ?allocate@?$allocator@U_Node@?$_List_nod@PAXV?$allocator@PAX@std@@@std@@@std@@QAEPAU_Node@?$_List_nod@PAXV?$allocator@PAX@std@@@2@I@Z 004192f0 f i dptrans.obj
 0001:00018310       ?Serialize@HOUSINGINFO@@QAEXAAVCAr@@@Z 00419310 f i dptrans.obj
 0001:00018480       ?SendAllGuildCombat@CDPTrans@@QAEXK@Z 00419480 f   dptrans.obj
 0001:000185a0       ?SendAllPlayerData@CDPTrans@@QAEXK@Z 004195a0 f   dptrans.obj
 0001:000186e0       ?SendAddPlayerData@CDPTrans@@QAEXKPAU_PlayerData@@@Z 004196e0 f   dptrans.obj
 0001:00018820       ?SendDeletePlayerData@CDPTrans@@QAEXK@Z 00419820 f   dptrans.obj
 0001:00018940       ?SendUpdatePlayerData@CDPTrans@@QAEXKPAU_PlayerData@@@Z 00419940 f   dptrans.obj
 0001:00018a80       ?SendHdr@CDPTrans@@QAEXKK@Z 00419a80 f   dptrans.obj
 0001:00018b90       ?SendUpdateGuildRankFinish@CDPTrans@@QAEXXZ 00419b90 f   dptrans.obj
 0001:00018ca0       ?SendBaseGameSetting@CDPTrans@@QAEXHK@Z 00419ca0 f   dptrans.obj
 0001:00018f50       ?SendMonsterRespawnSetting@CDPTrans@@QAEXHQAHK@Z 00419f50 f   dptrans.obj
 0001:000192f0       ?SendMonsterPropSetting@CDPTrans@@QAEXHK@Z 0041a2f0 f   dptrans.obj
 0001:00019650       ?SendGMChat@CDPTrans@@QAEXH@Z 0041a650 f   dptrans.obj
 0001:000197a0       ?OnPing@CDPTrans@@AAEXAAVCAr@@KKKPAEK@Z 0041a7a0 f   dptrans.obj
 0001:00019910       ?SendMailBox@CDPTrans@@QAEXPAVCMailBox@@K@Z 0041a910 f   dptrans.obj
 0001:00019a50       ?SendMailBoxReq@CDPTrans@@QAEXKKHPAVCMailBox@@@Z 0041aa50 f   dptrans.obj
 0001:00019bb0       ?SendPostMail@CDPTrans@@QAEXHKPAVCMail@@@Z 0041abb0 f   dptrans.obj
 0001:00019d10       ?SendRemoveMail@CDPTrans@@QAEXKK@Z 0041ad10 f   dptrans.obj
 0001:00019e50       ?SendGetMailItem@CDPTrans@@QAEXKKK@Z 0041ae50 f   dptrans.obj
 0001:00019fb0       ?SendGetMailGold@CDPTrans@@QAEXKKK@Z 0041afb0 f   dptrans.obj
 0001:0001a110       ?SendReadMail@CDPTrans@@QAEXKK@Z 0041b110 f   dptrans.obj
 0001:0001a250       ?SendAllMail@CDPTrans@@QAEXK@Z 0041b250 f   dptrans.obj
 0001:0001a390       ?SendInGuildCombat@CDPTrans@@QAEXKKK@Z 0041b390 f   dptrans.obj
 0001:0001a4f0       ?SendOutGuildCombat@CDPTrans@@QAEXK@Z 0041b4f0 f   dptrans.obj
 0001:0001a610       ?SendResultGuildCombat@CDPTrans@@QAEXXZ 0041b610 f   dptrans.obj
 0001:0001a7b0       ?SendPlayerPointGuildCombat@CDPTrans@@QAEXXZ 0041b7b0 f   dptrans.obj
 0001:0001a8c0       ?SendGetPenyaGuildGC@CDPTrans@@QAEXKHK@Z 0041b8c0 f   dptrans.obj
 0001:0001aa20       ?SendGetPenyaPlayerGC@CDPTrans@@QAEXKHK@Z 0041ba20 f   dptrans.obj
 0001:0001ab80       ?SendContinueGC@CDPTrans@@QAEXXZ 0041bb80 f   dptrans.obj
 0001:0001ac80       ?SendQueryRemoveGuildBankTbl@CDPTrans@@QAEXHKKKK@Z 0041bc80 f   dptrans.obj
 0001:0001ae20       ?SendEventGeneric@CDPTrans@@QAEXK@Z 0041be20 f   dptrans.obj
 0001:0001af60       ?SendEventFlag@CDPTrans@@QAEXK@Z 0041bf60 f   dptrans.obj
 0001:0001b080       ?SendEventLuaChanged@CDPTrans@@QAEXXZ 0041c080 f   dptrans.obj
 0001:0001b180       ?OnCalluspXXXMultiServer@CDPTrans@@AAEXAAVCAr@@KKKPAEK@Z 0041c180 f   dptrans.obj
 0001:0001b2b0       ?SendGC1to1Open@CDPTrans@@QAEXXZ 0041c2b0 f   dptrans.obj
 0001:0001b3b0       ?OnUpdatePlayerData@CDPTrans@@AAEXAAVCAr@@KKKPAEK@Z 0041c3b0 f   dptrans.obj
 0001:0001b4a0       ?SendElectionAddDeposit@CDPTrans@@QAEXK_JJH@Z 0041c4a0 f   dptrans.obj
 0001:0001b630       ?SendElectionSetPledge@CDPTrans@@QAEXKPBDH@Z 0041c630 f   dptrans.obj
 0001:0001b790       ?SendElectionIncVote@CDPTrans@@QAEXKKH@Z 0041c790 f   dptrans.obj
 0001:0001b8f0       ?SendElectionBeginCandidacy@CDPTrans@@QAEXXZ 0041c8f0 f   dptrans.obj
 0001:0001b900       ?SendElectionBeginVote@CDPTrans@@QAEXH@Z 0041c900 f   dptrans.obj
 0001:0001ba20       ?SendElectionEndVote@CDPTrans@@QAEXK@Z 0041ca20 f   dptrans.obj
 0001:0001bb40       ?OnElectionProcess@CDPTrans@@AAEXAAVCAr@@KKKPAEK@Z 0041cb40 f   dptrans.obj
 0001:0001bb90       ?SendLord@CDPTrans@@QAEXK@Z 0041cb90 f   dptrans.obj
 0001:0001bcb0       ?SendLEventCreate@CDPTrans@@QAEXPAVCLEComponent@@H@Z 0041ccb0 f   dptrans.obj
 0001:0001bde0       ?SendLEventInitialize@CDPTrans@@QAEXXZ 0041cde0 f   dptrans.obj
 0001:0001bee0       ?SendLordSkillUse@CDPTrans@@QAEXKKHH@Z 0041cee0 f   dptrans.obj
 0001:0001c060       ?SendLordSkillTick@CDPTrans@@QAEXPAVCLordSkill@@@Z 0041d060 f   dptrans.obj
 0001:0001c180       ?SendLEventTick@CDPTrans@@QAEXPAVILordEvent@@@Z 0041d180 f   dptrans.obj
 0001:0001c2a0       ?SendSecretRoomInfoClear@CDPTrans@@QAEXK@Z 0041d2a0 f   dptrans.obj
 0001:0001c3b0       ?SendHousingLoadInfo@CDPTrans@@QAEXKPAVCHousing@@K@Z 0041d3b0 f   dptrans.obj
 0001:0001c4f0       ?SendHousingFurnitureList@CDPTrans@@QAEXKAAUHOUSINGINFO@@HK@Z 0041d4f0 f   dptrans.obj
 0001:0001c650       ?SendHousingSetupFurniture@CDPTrans@@QAEXKUHOUSINGINFO@@K@Z 0041d650 f   dptrans.obj
 0001:0001c790       ?SendHousingSetVisitAllow@CDPTrans@@QAEXKKHK@Z 0041d790 f   dptrans.obj
 0001:0001c8f0       ?SendHousingDBFailed@CDPTrans@@QAEXKKK@Z 0041d8f0 f   dptrans.obj
 0001:0001ca40       ?SendAddCoupleExperience@CDPTrans@@QAEXKH@Z 0041da40 f   dptrans.obj
 0001:0001cb80       ?SendCouple@CDPTrans@@QAEXPAVCCoupleMgr@@K@Z 0041db80 f   dptrans.obj
 0001:0001cca0       ?SendProposeResult@CDPTrans@@QAEXKKHJK@Z 0041dca0 f   dptrans.obj
 0001:0001ce30       ?SendCoupleResult@CDPTrans@@QAEXKKH@Z 0041de30 f   dptrans.obj
 0001:0001cf90       ?SendDecoupleResult@CDPTrans@@QAEXKH@Z 0041df90 f   dptrans.obj
 0001:0001d0d0       ?SendFunnyCoinAckUse@CDPTrans@@QAEXKKKHK@Z 0041e0d0 f   dptrans.obj
 0001:0001d260       ?SendPCBangSetApply@CDPTrans@@QAEXK@Z 0041e260 f   dptrans.obj
 0001:0001d390       ?SendQuizEventOpen@CDPTrans@@QAEXK@Z 0041e390 f   dptrans.obj
 0001:0001d4a0       ?SendQuizEventNotice@CDPTrans@@QAEXK@Z 0041e4a0 f   dptrans.obj
 0001:0001d5b0       ?SendQuizEventChanged@CDPTrans@@QAEXXZ 0041e5b0 f   dptrans.obj
 0001:0001d6b0       ?SendAllCampus@CDPTrans@@QAEXK@Z 0041e6b0 f   dptrans.obj
 0001:0001d7c0       ?SendAddCampusMember@CDPTrans@@QAEXKKK@Z 0041e7c0 f   dptrans.obj
 0001:0001d920       ?SendRemoveCampusMember@CDPTrans@@QAEXKK@Z 0041e920 f   dptrans.obj
 0001:0001da60       ?SendUpdateCampusPoint@CDPTrans@@QAEXKH@Z 0041ea60 f   dptrans.obj
 0001:0001dba0       ?end@?$_Tree@V?$_Tmap_traits@KP8CDPTrans@@AEXAAVCAr@@KKKPAEK@ZU?$less@K@std@@V?$allocator@U?$pair@$$CBKP8CDPTrans@@AEXAAVCAr@@KKKPAEK@Z@std@@@4@$0A@@std@@@std@@QAE?AViterator@12@XZ 0041eba0 f i dptrans.obj
 0001:0001dbb0       ??Citerator@?$_Tree@V?$_Tmap_traits@KP8CDPTrans@@AEXAAVCAr@@KKKPAEK@ZU?$less@K@std@@V?$allocator@U?$pair@$$CBKP8CDPTrans@@AEXAAVCAr@@KKKPAEK@Z@std@@@4@$0A@@std@@@std@@QBEPAU?$pair@$$CBKP8CDPTrans@@AEXAAVCAr@@KKKPAEK@Z@2@XZ 0041ebb0 f i dptrans.obj
 0001:0001dbc0       ??Citerator@?$_Tree@V?$_Tmap_traits@EHU?$less@E@std@@V?$allocator@U?$pair@$$CBEH@std@@@2@$0A@@std@@@std@@QBEPAU?$pair@$$CBEH@2@XZ 0041ebc0 f i dptrans.obj
 0001:0001dbd0       ?begin@?$_Tree@V?$_Tmap_traits@HV?$basic_string@DU?$char_traits@D@std@@V?$allocator@D@2@@std@@U?$less@H@2@V?$allocator@U?$pair@$$CBHV?$basic_string@DU?$char_traits@D@std@@V?$allocator@D@2@@std@@@std@@@2@$0A@@std@@@std@@QAE?AViterator@12@XZ 0041ebd0 f i dptrans.obj
 0001:0001dbe0       ?begin@?$_Tree@V?$_Tmap_traits@KP8CDPTrans@@AEXAAVCAr@@KKKPAEK@ZU?$less@K@std@@V?$allocator@U?$pair@$$CBKP8CDPTrans@@AEXAAVCAr@@KKKPAEK@Z@std@@@4@$0A@@std@@@std@@QAE?AViterator@12@XZ 0041ebe0 f i dptrans.obj
 0001:0001dbf0       ?lower_bound@?$_Tree@V?$_Tmap_traits@KP8CDPTrans@@AEXAAVCAr@@KKKPAEK@ZU?$less@K@std@@V?$allocator@U?$pair@$$CBKP8CDPTrans@@AEXAAVCAr@@KKKPAEK@Z@std@@@4@$0A@@std@@@std@@QAE?AViterator@12@ABK@Z 0041ebf0 f i dptrans.obj
 0001:0001dc30       ?begin@?$vector@EV?$allocator@E@std@@@std@@QAE?AViterator@12@XZ 0041ec30 f i dptrans.obj
 0001:0001dc40       ??Fiterator@?$_Tree@V?$_Tmap_traits@EHU?$less@E@std@@V?$allocator@U?$pair@$$CBEH@std@@@2@$0A@@std@@@std@@QAEAAV012@XZ 0041ec40 f i dptrans.obj
 0001:0001dc50       ?begin@?$vector@U__GC1TO1TENDER@CGuildCombat1to1Mng@@V?$allocator@U__GC1TO1TENDER@CGuildCombat1to1Mng@@@std@@@std@@QAE?AViterator@12@XZ 0041ec50 f i dptrans.obj
 0001:0001dc60       ?_Buynode@?$_Tree@V?$_Tmap_traits@KP8CDPTrans@@AEXAAVCAr@@KKKPAEK@ZU?$less@K@std@@V?$allocator@U?$pair@$$CBKP8CDPTrans@@AEXAAVCAr@@KKKPAEK@Z@std@@@4@$0A@@std@@@std@@IAEPAU_Node@?$_Tree_nod@V?$_Tmap_traits@KP8CDPTrans@@AEXAAVCAr@@KKKPAEK@ZU?$less@K@std@@V?$allocator@U?$pair@$$CBKP8CDPTrans@@AEXAAVCAr@@KKKPAEK@Z@std@@@4@$0A@@std@@@2@PAU342@00ABU?$pair@$$CBKP8CDPTrans@@AEXAAVCAr@@KKKPAEK@Z@2@D@Z 0041ec60 f i dptrans.obj
 0001:0001dca0       ??Fconst_iterator@?$_Tree@V?$_Tmap_traits@KP8CDPTrans@@AEXAAVCAr@@KKKPAEK@ZU?$less@K@std@@V?$allocator@U?$pair@$$CBKP8CDPTrans@@AEXAAVCAr@@KKKPAEK@Z@std@@@4@$0A@@std@@@std@@QAEAAV012@XZ 0041eca0 f i dptrans.obj
 0001:0001dcb0       ?_Destroy@?$vector@EV?$allocator@E@std@@@std@@IAEXPAE0@Z 0041ecb0 f i dptrans.obj
 0001:0001dcc0       ??Fconst_iterator@?$_Tree@V?$_Tmap_traits@HV?$basic_string@DU?$char_traits@D@std@@V?$allocator@D@2@@std@@U?$less@H@2@V?$allocator@U?$pair@$$CBHV?$basic_string@DU?$char_traits@D@std@@V?$allocator@D@2@@std@@@std@@@2@$0A@@std@@@std@@QAEAAV012@XZ 0041ecc0 f i dptrans.obj
 0001:0001dcd0       ?_Buynode@?$_Tree@V?$_Tmap_traits@KP8CDPTrans@@AEXAAVCAr@@KKKPAEK@ZU?$less@K@std@@V?$allocator@U?$pair@$$CBKP8CDPTrans@@AEXAAVCAr@@KKKPAEK@Z@std@@@4@$0A@@std@@@std@@IAEPAU_Node@?$_Tree_nod@V?$_Tmap_traits@KP8CDPTrans@@AEXAAVCAr@@KKKPAEK@ZU?$less@K@std@@V?$allocator@U?$pair@$$CBKP8CDPTrans@@AEXAAVCAr@@KKKPAEK@Z@std@@@4@$0A@@std@@@2@XZ 0041ecd0 f i dptrans.obj
 0001:0001dd10       ??0?$_Tree_ptr@V?$_Tmap_traits@KP8CDPTrans@@AEXAAVCAr@@KKKPAEK@ZU?$less@K@std@@V?$allocator@U?$pair@$$CBKP8CDPTrans@@AEXAAVCAr@@KKKPAEK@Z@std@@@4@$0A@@std@@@std@@IAE@ABU?$less@K@1@V?$allocator@U?$pair@$$CBKP8CDPTrans@@AEXAAVCAr@@KKKPAEK@Z@std@@@1@@Z 0041ed10 f i dptrans.obj
 0001:0001dd20       ?_Erase@?$_Tree@V?$_Tmap_traits@KP8CDPTrans@@AEXAAVCAr@@KKKPAEK@ZU?$less@K@std@@V?$allocator@U?$pair@$$CBKP8CDPTrans@@AEXAAVCAr@@KKKPAEK@Z@std@@@4@$0A@@std@@@std@@IAEXPAU_Node@?$_Tree_nod@V?$_Tmap_traits@KP8CDPTrans@@AEXAAVCAr@@KKKPAEK@ZU?$less@K@std@@V?$allocator@U?$pair@$$CBKP8CDPTrans@@AEXAAVCAr@@KKKPAEK@Z@std@@@4@$0A@@std@@@2@@Z 0041ed20 f i dptrans.obj
 0001:0001dd60       ??Eiterator@?$_Tree@V?$_Tmap_traits@KP8CDPTrans@@AEXAAVCAr@@KKKPAEK@ZU?$less@K@std@@V?$allocator@U?$pair@$$CBKP8CDPTrans@@AEXAAVCAr@@KKKPAEK@Z@std@@@4@$0A@@std@@@std@@QAEAAV012@XZ 0041ed60 f i dptrans.obj
 0001:0001dd70       ?_Buynode@?$list@PAXV?$allocator@PAX@std@@@std@@IAEPAU_Node@?$_List_nod@PAXV?$allocator@PAX@std@@@2@PAU342@0ABQAX@Z 0041ed70 f i dptrans.obj
 0001:0001dda0       ?OnQueryMailBoxCount@CDPTrans@@QAEXAAVCAr@@KKKPAEK@Z 0041eda0 f   dptrans.obj
 0001:0001de60       ?OnQueryMailBoxReq@CDPTrans@@QAEXAAVCAr@@KKKPAEK@Z 0041ee60 f   dptrans.obj
 0001:0001df00       ??A?$vector@KV?$allocator@K@std@@@std@@QAEAAKI@Z 0041ef00 f i dptrans.obj
 0001:0001df10       ?find@?$_Tree@V?$_Tmap_traits@KP8CDPTrans@@AEXAAVCAr@@KKKPAEK@ZU?$less@K@std@@V?$allocator@U?$pair@$$CBKP8CDPTrans@@AEXAAVCAr@@KKKPAEK@Z@std@@@4@$0A@@std@@@std@@QAE?AViterator@12@ABK@Z 0041ef10 f i dptrans.obj
 0001:0001df80       ??A?$vector@EV?$allocator@E@std@@@std@@QAEAAEI@Z 0041ef80 f i dptrans.obj
 0001:0001df90       ??A?$vector@U__GC1TO1TENDER@CGuildCombat1to1Mng@@V?$allocator@U__GC1TO1TENDER@CGuildCombat1to1Mng@@@std@@@std@@QAEAAU__GC1TO1TENDER@CGuildCombat1to1Mng@@I@Z 0041ef90 f i dptrans.obj
 0001:0001dfb0       ??Fiterator@?$_Tree@V?$_Tmap_traits@KP8CDPTrans@@AEXAAVCAr@@KKKPAEK@ZU?$less@K@std@@V?$allocator@U?$pair@$$CBKP8CDPTrans@@AEXAAVCAr@@KKKPAEK@Z@std@@@4@$0A@@std@@@std@@QAEAAV012@XZ 0041efb0 f i dptrans.obj
 0001:0001dfc0       ?_Tidy@?$vector@EV?$allocator@E@std@@@std@@IAEXXZ 0041efc0 f i dptrans.obj
 0001:0001dff0       ??Fiterator@?$_Tree@V?$_Tmap_traits@HV?$basic_string@DU?$char_traits@D@std@@V?$allocator@D@2@@std@@U?$less@H@2@V?$allocator@U?$pair@$$CBHV?$basic_string@DU?$char_traits@D@std@@V?$allocator@D@2@@std@@@std@@@2@$0A@@std@@@std@@QAEAAV012@XZ 0041eff0 f i dptrans.obj
 0001:0001e000       ?_Init@?$_Tree@V?$_Tmap_traits@KP8CDPTrans@@AEXAAVCAr@@KKKPAEK@ZU?$less@K@std@@V?$allocator@U?$pair@$$CBKP8CDPTrans@@AEXAAVCAr@@KKKPAEK@Z@std@@@4@$0A@@std@@@std@@IAEXXZ 0041f000 f i dptrans.obj
 0001:0001e030       ??0?$_Tree_val@V?$_Tmap_traits@KP8CDPTrans@@AEXAAVCAr@@KKKPAEK@ZU?$less@K@std@@V?$allocator@U?$pair@$$CBKP8CDPTrans@@AEXAAVCAr@@KKKPAEK@Z@std@@@4@$0A@@std@@@std@@IAE@ABU?$less@K@1@V?$allocator@U?$pair@$$CBKP8CDPTrans@@AEXAAVCAr@@KKKPAEK@Z@std@@@1@@Z 0041f030 f i dptrans.obj
 0001:0001e040       ?clear@?$_Tree@V?$_Tmap_traits@KP8CDPTrans@@AEXAAVCAr@@KKKPAEK@ZU?$less@K@std@@V?$allocator@U?$pair@$$CBKP8CDPTrans@@AEXAAVCAr@@KKKPAEK@Z@std@@@4@$0A@@std@@@std@@QAEXXZ 0041f040 f i dptrans.obj
 0001:0001e070       ??Eiterator@?$_Tree@V?$_Tmap_traits@KP8CDPTrans@@AEXAAVCAr@@KKKPAEK@ZU?$less@K@std@@V?$allocator@U?$pair@$$CBKP8CDPTrans@@AEXAAVCAr@@KKKPAEK@Z@std@@@4@$0A@@std@@@std@@QAE?AV012@H@Z 0041f070 f i dptrans.obj
 0001:0001e090       ?GetHandler@CDPTrans@@AAEP81@AEXAAVCAr@@KKKPAEK@ZK@Z 0041f090 f i dptrans.obj
 0001:0001e0c0       ?UserMessageHandler@CDPTrans@@UAEXPAUDPMSG_GENERIC@@KK@Z 0041f0c0 f   dptrans.obj
 0001:0001e1d0       ??1?$pair@$$CBHV?$basic_string@DU?$char_traits@D@std@@V?$allocator@D@2@@std@@@std@@QAE@XZ 0041f1d0 f i dptrans.obj
 0001:0001e200       ?SendGC1to1TenderGuild@CDPTrans@@QAEXAAV?$vector@U__GC1TO1TENDER@CGuildCombat1to1Mng@@V?$allocator@U__GC1TO1TENDER@CGuildCombat1to1Mng@@@std@@@std@@0K@Z 0041f200 f   dptrans.obj
 0001:0001e4f0       ?SendTaxInfo@CDPTrans@@QAEXKHH@Z 0041f4f0 f   dptrans.obj
 0001:0001e700       ?SendSecretRoomTenderInfo@CDPTrans@@QAEXEKHAAV?$vector@KV?$allocator@K@std@@@std@@K@Z 0041f700 f   dptrans.obj
 0001:0001e8d0       ?SendRainbowRaceInfo@CDPTrans@@QAEXAAV?$vector@KV?$allocator@K@std@@@std@@0K@Z 0041f8d0 f   dptrans.obj
 0001:0001eaa0       ?Replace@?$CStringT@DV?$StrTraitMFC@DV?$ChTraitsCRT@D@ATL@@@@@ATL@@QAEHPBD0@Z 0041faa0 f i dptrans.obj
 0001:0001eca0       ??1?$vector@EV?$allocator@E@std@@@std@@QAE@XZ 0041fca0 f i dptrans.obj
 0001:0001ecd0       ??0?$_Tree@V?$_Tmap_traits@EHU?$less@E@std@@V?$allocator@U?$pair@$$CBEH@std@@@2@$0A@@std@@@std@@QAE@ABU?$less@E@1@ABV?$allocator@U?$pair@$$CBEH@std@@@1@@Z 0041fcd0 f i dptrans.obj
 0001:0001ed00       ??0?$_Tree@V?$_Tmap_traits@KP8CDPTrans@@AEXAAVCAr@@KKKPAEK@ZU?$less@K@std@@V?$allocator@U?$pair@$$CBKP8CDPTrans@@AEXAAVCAr@@KKKPAEK@Z@std@@@4@$0A@@std@@@std@@QAE@ABU?$less@K@1@ABV?$allocator@U?$pair@$$CBKP8CDPTrans@@AEXAAVCAr@@KKKPAEK@Z@std@@@1@@Z 0041fd00 f i dptrans.obj
 0001:0001ed30       ??0?$pair@$$CBHV?$basic_string@DU?$char_traits@D@std@@V?$allocator@D@2@@std@@@std@@QAE@ABHABV?$basic_string@DU?$char_traits@D@std@@V?$allocator@D@2@@1@@Z 0041fd30 f i dptrans.obj
 0001:0001ed60       ??0?$pair@$$CBHV?$basic_string@DU?$char_traits@D@std@@V?$allocator@D@2@@std@@@std@@QAE@ABU01@@Z 0041fd60 f i dptrans.obj
 0001:0001ed90       ?_Incsize@?$list@PAXV?$allocator@PAX@std@@@std@@IAEXI@Z 0041fd90 f i dptrans.obj
 0001:0001ee30       ?Serialize@_QUIZLIST@CQuiz@@QAEXAAVCAr@@@Z 0041fe30 f i dptrans.obj
 0001:0001efd0       ?SendQuizList@CDPTrans@@QAEXKAAU_QUIZLIST@CQuiz@@H@Z 0041ffd0 f   dptrans.obj
 0001:0001f100       ?_Insert@?$_Tree@V?$_Tmap_traits@EHU?$less@E@std@@V?$allocator@U?$pair@$$CBEH@std@@@2@$0A@@std@@@std@@IAE?AViterator@12@_NPAU_Node@?$_Tree_nod@V?$_Tmap_traits@EHU?$less@E@std@@V?$allocator@U?$pair@$$CBEH@std@@@2@$0A@@std@@@2@ABU?$pair@$$CBEH@2@@Z 00420100 f i dptrans.obj
 0001:0001f2b0       ?_Insert@?$_Tree@V?$_Tmap_traits@KP8CDPTrans@@AEXAAVCAr@@KKKPAEK@ZU?$less@K@std@@V?$allocator@U?$pair@$$CBKP8CDPTrans@@AEXAAVCAr@@KKKPAEK@Z@std@@@4@$0A@@std@@@std@@IAE?AViterator@12@_NPAU_Node@?$_Tree_nod@V?$_Tmap_traits@KP8CDPTrans@@AEXAAVCAr@@KKKPAEK@ZU?$less@K@std@@V?$allocator@U?$pair@$$CBKP8CDPTrans@@AEXAAVCAr@@KKKPAEK@Z@std@@@4@$0A@@std@@@2@ABU?$pair@$$CBKP8CDPTrans@@AEXAAVCAr@@KKKPAEK@Z@2@@Z 004202b0 f i dptrans.obj
 0001:0001f460       ?erase@?$_Tree@V?$_Tmap_traits@KP8CDPTrans@@AEXAAVCAr@@KKKPAEK@ZU?$less@K@std@@V?$allocator@U?$pair@$$CBKP8CDPTrans@@AEXAAVCAr@@KKKPAEK@Z@std@@@4@$0A@@std@@@std@@QAE?AViterator@12@V312@@Z 00420460 f i dptrans.obj
 0001:0001f720       ??0_Node@?$_Tree_nod@V?$_Tmap_traits@HV?$basic_string@DU?$char_traits@D@std@@V?$allocator@D@2@@std@@U?$less@H@2@V?$allocator@U?$pair@$$CBHV?$basic_string@DU?$char_traits@D@std@@V?$allocator@D@2@@std@@@std@@@2@$0A@@std@@@std@@QAE@PAU012@00ABU?$pair@$$CBHV?$basic_string@DU?$char_traits@D@std@@V?$allocator@D@2@@std@@@2@D@Z 00420720 f i dptrans.obj
 0001:0001f780       ?_Insert@?$list@PAXV?$allocator@PAX@std@@@std@@QAEXViterator@12@ABQAX@Z 00420780 f i dptrans.obj
 0001:0001f7c0       ?insert@?$_Tree@V?$_Tmap_traits@EHU?$less@E@std@@V?$allocator@U?$pair@$$CBEH@std@@@2@$0A@@std@@@std@@QAE?AU?$pair@Viterator@?$_Tree@V?$_Tmap_traits@EHU?$less@E@std@@V?$allocator@U?$pair@$$CBEH@std@@@2@$0A@@std@@@std@@_N@2@ABU?$pair@$$CBEH@2@@Z 004207c0 f i dptrans.obj
 0001:0001f880       ?insert@?$_Tree@V?$_Tmap_traits@KP8CDPTrans@@AEXAAVCAr@@KKKPAEK@ZU?$less@K@std@@V?$allocator@U?$pair@$$CBKP8CDPTrans@@AEXAAVCAr@@KKKPAEK@Z@std@@@4@$0A@@std@@@std@@QAE?AU?$pair@Viterator@?$_Tree@V?$_Tmap_traits@KP8CDPTrans@@AEXAAVCAr@@KKKPAEK@ZU?$less@K@std@@V?$allocator@U?$pair@$$CBKP8CDPTrans@@AEXAAVCAr@@KKKPAEK@Z@std@@@4@$0A@@std@@@std@@_N@2@ABU?$pair@$$CBKP8CDPTrans@@AEXAAVCAr@@KKKPAEK@Z@2@@Z 00420880 f i dptrans.obj
 0001:0001f940       ?_Buynode@?$_Tree@V?$_Tmap_traits@HV?$basic_string@DU?$char_traits@D@std@@V?$allocator@D@2@@std@@U?$less@H@2@V?$allocator@U?$pair@$$CBHV?$basic_string@DU?$char_traits@D@std@@V?$allocator@D@2@@std@@@std@@@2@$0A@@std@@@std@@IAEPAU_Node@?$_Tree_nod@V?$_Tmap_traits@HV?$basic_string@DU?$char_traits@D@std@@V?$allocator@D@2@@std@@U?$less@H@2@V?$allocator@U?$pair@$$CBHV?$basic_string@DU?$char_traits@D@std@@V?$allocator@D@2@@std@@@std@@@2@$0A@@std@@@2@PAU342@00ABU?$pair@$$CBHV?$basic_string@DU?$char_traits@D@std@@V?$allocator@D@2@@std@@@2@D@Z 00420940 f i dptrans.obj
 0001:0001f9d0       ?erase@?$_Tree@V?$_Tmap_traits@KP8CDPTrans@@AEXAAVCAr@@KKKPAEK@ZU?$less@K@std@@V?$allocator@U?$pair@$$CBKP8CDPTrans@@AEXAAVCAr@@KKKPAEK@Z@std@@@4@$0A@@std@@@std@@QAE?AViterator@12@V312@0@Z 004209d0 f i dptrans.obj
 0001:0001fa90       ?push_back@?$list@PAXV?$allocator@PAX@std@@@std@@QAEXABQAX@Z 00420a90 f i dptrans.obj
 0001:0001fad0       ?_Insert@?$_Tree@V?$_Tmap_traits@HV?$basic_string@DU?$char_traits@D@std@@V?$allocator@D@2@@std@@U?$less@H@2@V?$allocator@U?$pair@$$CBHV?$basic_string@DU?$char_traits@D@std@@V?$allocator@D@2@@std@@@std@@@2@$0A@@std@@@std@@IAE?AViterator@12@_NPAU_Node@?$_Tree_nod@V?$_Tmap_traits@HV?$basic_string@DU?$char_traits@D@std@@V?$allocator@D@2@@std@@U?$less@H@2@V?$allocator@U?$pair@$$CBHV?$basic_string@DU?$char_traits@D@std@@V?$allocator@D@2@@std@@@std@@@2@$0A@@std@@@2@ABU?$pair@$$CBHV?$basic_string@DU?$char_traits@D@std@@V?$allocator@D@2@@std@@@2@@Z 00420ad0 f i dptrans.obj
 0001:0001fc80       ?_Tidy@?$_Tree@V?$_Tmap_traits@KP8CDPTrans@@AEXAAVCAr@@KKKPAEK@ZU?$less@K@std@@V?$allocator@U?$pair@$$CBKP8CDPTrans@@AEXAAVCAr@@KKKPAEK@Z@std@@@4@$0A@@std@@@std@@IAEXXZ 00420c80 f i dptrans.obj
 0001:0001fcb0       ?Create@?$MemPooler@VCMover@@@@IAEXXZ 00420cb0 f i dptrans.obj
 0001:0001fd40       ?insert@?$_Tree@V?$_Tmap_traits@HV?$basic_string@DU?$char_traits@D@std@@V?$allocator@D@2@@std@@U?$less@H@2@V?$allocator@U?$pair@$$CBHV?$basic_string@DU?$char_traits@D@std@@V?$allocator@D@2@@std@@@std@@@2@$0A@@std@@@std@@QAE?AU?$pair@Viterator@?$_Tree@V?$_Tmap_traits@HV?$basic_string@DU?$char_traits@D@std@@V?$allocator@D@2@@std@@U?$less@H@2@V?$allocator@U?$pair@$$CBHV?$basic_string@DU?$char_traits@D@std@@V?$allocator@D@2@@std@@@std@@@2@$0A@@std@@@std@@_N@2@ABU?$pair@$$CBHV?$basic_string@DU?$char_traits@D@std@@V?$allocator@D@2@@std@@@2@@Z 00420d40 f i dptrans.obj
 0001:0001fe00       ??1?$_Tree@V?$_Tmap_traits@KP8CDPTrans@@AEXAAVCAr@@KKKPAEK@ZU?$less@K@std@@V?$allocator@U?$pair@$$CBKP8CDPTrans@@AEXAAVCAr@@KKKPAEK@Z@std@@@4@$0A@@std@@@std@@QAE@XZ 00420e00 f i dptrans.obj
 0001:0001fe30       ?Alloc@?$MemPooler@VCMover@@@@QAEPAVCMover@@XZ 00420e30 f i dptrans.obj
 0001:0001fe70       ??1?$map@KP8CDPTrans@@AEXAAVCAr@@KKKPAEK@ZU?$less@K@std@@V?$allocator@U?$pair@$$CBKP8CDPTrans@@AEXAAVCAr@@KKKPAEK@Z@std@@@4@@std@@QAE@XZ 00420e70 f i dptrans.obj
 0001:0001fea0       ??1CDPTrans@@UAE@XZ        00420ea0 f   dptrans.obj
 0001:0001ff20       ?OnItemTBLUpdate@CDPTrans@@AAEXAAVCAr@@KKKPAEK@Z 00420f20 f   dptrans.obj
 0001:000200e0       ?SendEventLuaState@CDPTrans@@QAEXV?$map@EHU?$less@E@std@@V?$allocator@U?$pair@$$CBEH@std@@@2@@std@@HK@Z 004210e0 f   dptrans.obj
 0001:000202c0       ?OnEventLuaChanged@CDPTrans@@QAEXAAVCAr@@KKKPAEK@Z 004212c0 f   dptrans.obj
 0001:00020320       ??0?$map@EHU?$less@E@std@@V?$allocator@U?$pair@$$CBEH@std@@@2@@std@@QAE@XZ 00421320 f i dptrans.obj
 0001:00020350       ??0?$map@KP8CDPTrans@@AEXAAVCAr@@KKKPAEK@ZU?$less@K@std@@V?$allocator@U?$pair@$$CBKP8CDPTrans@@AEXAAVCAr@@KKKPAEK@Z@std@@@4@@std@@QAE@XZ 00421350 f i dptrans.obj
 0001:00020380       ??2CMover@@SAPAXI@Z        00421380 f i dptrans.obj
 0001:000203c0       ??_ECDPTrans@@UAEPAXI@Z    004213c0 f i dptrans.obj
 0001:000203c0       ??_GCDPTrans@@UAEPAXI@Z    004213c0 f i dptrans.obj
 0001:000203e0       ?SysMessageHandler@CDPTrans@@UAEXPAUDPMSG_GENERIC@@KK@Z 004213e0 f   dptrans.obj
 0001:000206b0       ?OnSavePlayer@CDPTrans@@AAEXAAVCAr@@KKKPAEK@Z 004216b0 f   dptrans.obj
 0001:00020bc0       ??0CDPTrans@@QAE@XZ        00421bc0 f   dptrans.obj
 0001:00021a90       ?GetInstance@CDPTrans@@SAPAV1@XZ 00422a90 f   dptrans.obj
 0001:00021af0       ?GetUpkeepTime@CGuildHouseBase@@QAEJXZ 00422af0 f i GuildHouseDBCtrl.obj
 0001:00021b00       ?SetUpkeeptime@CGuildHouseBase@@QAEXJ@Z 00422b00 f i GuildHouseDBCtrl.obj
 0001:00021b10       ?AddSeqNum@CGuildHouseMng@@QAEHXZ 00422b10 f i GuildHouseDBCtrl.obj
 0001:00021b20       ?GetSeqNum@CGuildHouseMng@@QAEHXZ 00422b20 f i GuildHouseDBCtrl.obj
 0001:00021b30       ?LoadGuildHouse@CGuildHouseDBCtrl@@AAEHXZ 00422b30 f i GuildHouseDBCtrl.obj
 0001:00021b50       ??0CGuildHouseDBCtrl@@QAE@XZ 00422b50 f   GuildHouseDBCtrl.obj
 0001:00021b70       ??1CGuildHouseDBCtrl@@UAE@XZ 00422b70 f   GuildHouseDBCtrl.obj
 0001:00021b80       ?OnTimer@CGuildHouseDBCtrl@@UAEXXZ 00422b80 f   GuildHouseDBCtrl.obj
 0001:00021b90       ??0CGuildHouseDBMng@@QAE@XZ 00422b90 f   GuildHouseDBCtrl.obj
 0001:00021bf0       ??1CGuildHouseDBMng@@QAE@XZ 00422bf0 f   GuildHouseDBCtrl.obj
 0001:00021c40       ?size@?$vector@UGuildHouse_Furniture_Info@CGuildHouseBase@@V?$allocator@UGuildHouse_Furniture_Info@CGuildHouseBase@@@std@@@std@@QBEIXZ 00422c40 f i GuildHouseDBCtrl.obj
 0001:00021c60       ?_Isnil@?$_Tree@V?$_Tmap_traits@KPAVCGuildHouseBase@@U?$less@K@std@@V?$allocator@U?$pair@$$CBKPAVCGuildHouseBase@@@std@@@3@$0A@@std@@@std@@KAAADPAU_Node@?$_Tree_nod@V?$_Tmap_traits@KPAVCGuildHouseBase@@U?$less@K@std@@V?$allocator@U?$pair@$$CBKPAVCGuildHouseBase@@@std@@@3@$0A@@std@@@2@@Z 00422c60 f i GuildHouseDBCtrl.obj
 0001:00021c70       ?_Left@?$_Tree@V?$_Tmap_traits@KPAVCGuildHouseBase@@U?$less@K@std@@V?$allocator@U?$pair@$$CBKPAVCGuildHouseBase@@@std@@@3@$0A@@std@@@std@@KAAAPAU_Node@?$_Tree_nod@V?$_Tmap_traits@KPAVCGuildHouseBase@@U?$less@K@std@@V?$allocator@U?$pair@$$CBKPAVCGuildHouseBase@@@std@@@3@$0A@@std@@@2@PAU342@@Z 00422c70 f i GuildHouseDBCtrl.obj
 0001:00021c80       ?_Right@?$_Tree@V?$_Tmap_traits@KPAVCGuildHouseBase@@U?$less@K@std@@V?$allocator@U?$pair@$$CBKPAVCGuildHouseBase@@@std@@@3@$0A@@std@@@std@@KAAAPAU_Node@?$_Tree_nod@V?$_Tmap_traits@KPAVCGuildHouseBase@@U?$less@K@std@@V?$allocator@U?$pair@$$CBKPAVCGuildHouseBase@@@std@@@3@$0A@@std@@@2@PAU342@@Z 00422c80 f i GuildHouseDBCtrl.obj
 0001:00021c90       ?size@?$_Tree@V?$_Tmap_traits@KPAVCGuildHouseBase@@U?$less@K@std@@V?$allocator@U?$pair@$$CBKPAVCGuildHouseBase@@@std@@@3@$0A@@std@@@std@@QBEIXZ 00422c90 f i GuildHouseDBCtrl.obj
 0001:00021ca0       ?_Kfn@?$_Tmap_traits@KPAVCGuildHouseBase@@U?$less@K@std@@V?$allocator@U?$pair@$$CBKPAVCGuildHouseBase@@@std@@@3@$0A@@std@@SAABKABU?$pair@$$CBKPAVCGuildHouseBase@@@2@@Z 00422ca0 f i GuildHouseDBCtrl.obj
 0001:00021cb0       ??0?$pair@Viterator@?$_Tree@V?$_Tmap_traits@KPAVCGuildHouseBase@@U?$less@K@std@@V?$allocator@U?$pair@$$CBKPAVCGuildHouseBase@@@std@@@3@$0A@@std@@@std@@_N@std@@QAE@ABViterator@?$_Tree@V?$_Tmap_traits@KPAVCGuildHouseBase@@U?$less@K@std@@V?$allocator@U?$pair@$$CBKPAVCGuildHouseBase@@@std@@@3@$0A@@std@@@1@AB_N@Z 00422cb0 f i GuildHouseDBCtrl.obj
 0001:00021cd0       ??8const_iterator@?$_Tree@V?$_Tmap_traits@KPAVCGuildHouseBase@@U?$less@K@std@@V?$allocator@U?$pair@$$CBKPAVCGuildHouseBase@@@std@@@3@$0A@@std@@@std@@QBE_NABV012@@Z 00422cd0 f i GuildHouseDBCtrl.obj
 0001:00021ce0       ?_Mynode@const_iterator@?$_Tree@V?$_Tmap_traits@KPAVCGuildHouseBase@@U?$less@K@std@@V?$allocator@U?$pair@$$CBKPAVCGuildHouseBase@@@std@@@3@$0A@@std@@@std@@QBEPAU_Node@?$_Tree_nod@V?$_Tmap_traits@KPAVCGuildHouseBase@@U?$less@K@std@@V?$allocator@U?$pair@$$CBKPAVCGuildHouseBase@@@std@@@3@$0A@@std@@@3@XZ 00422ce0 f i GuildHouseDBCtrl.obj
 0001:00021cf0       ?_Color@?$_Tree@V?$_Tmap_traits@KPAVCGuildHouseBase@@U?$less@K@std@@V?$allocator@U?$pair@$$CBKPAVCGuildHouseBase@@@std@@@3@$0A@@std@@@std@@KAAADPAU_Node@?$_Tree_nod@V?$_Tmap_traits@KPAVCGuildHouseBase@@U?$less@K@std@@V?$allocator@U?$pair@$$CBKPAVCGuildHouseBase@@@std@@@3@$0A@@std@@@2@@Z 00422cf0 f i GuildHouseDBCtrl.obj
 0001:00021d00       ?_Parent@?$_Tree@V?$_Tmap_traits@KPAVCGuildHouseBase@@U?$less@K@std@@V?$allocator@U?$pair@$$CBKPAVCGuildHouseBase@@@std@@@3@$0A@@std@@@std@@KAAAPAU_Node@?$_Tree_nod@V?$_Tmap_traits@KPAVCGuildHouseBase@@U?$less@K@std@@V?$allocator@U?$pair@$$CBKPAVCGuildHouseBase@@@std@@@3@$0A@@std@@@2@PAU342@@Z 00422d00 f i GuildHouseDBCtrl.obj
 0001:00021d10       ?_Myval@?$_Tree@V?$_Tmap_traits@KPAVCGuildHouseBase@@U?$less@K@std@@V?$allocator@U?$pair@$$CBKPAVCGuildHouseBase@@@std@@@3@$0A@@std@@@std@@KAAAU?$pair@$$CBKPAVCGuildHouseBase@@@2@PAU_Node@?$_Tree_nod@V?$_Tmap_traits@KPAVCGuildHouseBase@@U?$less@K@std@@V?$allocator@U?$pair@$$CBKPAVCGuildHouseBase@@@std@@@3@$0A@@std@@@2@@Z 00422d10 f i GuildHouseDBCtrl.obj
 0001:00021d20       ?_Lmost@?$_Tree@V?$_Tmap_traits@KPAVCGuildHouseBase@@U?$less@K@std@@V?$allocator@U?$pair@$$CBKPAVCGuildHouseBase@@@std@@@3@$0A@@std@@@std@@IAEAAPAU_Node@?$_Tree_nod@V?$_Tmap_traits@KPAVCGuildHouseBase@@U?$less@K@std@@V?$allocator@U?$pair@$$CBKPAVCGuildHouseBase@@@std@@@3@$0A@@std@@@2@XZ 00422d20 f i GuildHouseDBCtrl.obj
 0001:00021d30       ?_Rmost@?$_Tree@V?$_Tmap_traits@KPAVCGuildHouseBase@@U?$less@K@std@@V?$allocator@U?$pair@$$CBKPAVCGuildHouseBase@@@std@@@3@$0A@@std@@@std@@IAEAAPAU_Node@?$_Tree_nod@V?$_Tmap_traits@KPAVCGuildHouseBase@@U?$less@K@std@@V?$allocator@U?$pair@$$CBKPAVCGuildHouseBase@@@std@@@3@$0A@@std@@@2@XZ 00422d30 f i GuildHouseDBCtrl.obj
 0001:00021d40       ??0const_iterator@?$_Tree@V?$_Tmap_traits@KPAVCGuildHouseBase@@U?$less@K@std@@V?$allocator@U?$pair@$$CBKPAVCGuildHouseBase@@@std@@@3@$0A@@std@@@std@@QAE@PAU_Node@?$_Tree_nod@V?$_Tmap_traits@KPAVCGuildHouseBase@@U?$less@K@std@@V?$allocator@U?$pair@$$CBKPAVCGuildHouseBase@@@std@@@3@$0A@@std@@@2@@Z 00422d40 f i GuildHouseDBCtrl.obj
 0001:00021d50       ??Yiterator@?$vector@UGuildHouse_Furniture_Info@CGuildHouseBase@@V?$allocator@UGuildHouse_Furniture_Info@CGuildHouseBase@@@std@@@std@@QAEAAV012@H@Z 00422d50 f i GuildHouseDBCtrl.obj
 0001:00021d70       ??Dconst_iterator@?$vector@UGuildHouse_Furniture_Info@CGuildHouseBase@@V?$allocator@UGuildHouse_Furniture_Info@CGuildHouseBase@@@std@@@std@@QBEABUGuildHouse_Furniture_Info@CGuildHouseBase@@XZ 00422d70 f i GuildHouseDBCtrl.obj
 0001:00021d80       ?max_size@?$allocator@U?$pair@$$CBKPAVCGuildHouseBase@@@std@@@std@@QBEIXZ 00422d80 f i GuildHouseDBCtrl.obj
 0001:00021d90       ?deallocate@?$allocator@U_Node@?$_Tree_nod@V?$_Tmap_traits@KPAVCGuildHouseBase@@U?$less@K@std@@V?$allocator@U?$pair@$$CBKPAVCGuildHouseBase@@@std@@@3@$0A@@std@@@std@@@std@@QAEXPAU_Node@?$_Tree_nod@V?$_Tmap_traits@KPAVCGuildHouseBase@@U?$less@K@std@@V?$allocator@U?$pair@$$CBKPAVCGuildHouseBase@@@std@@@3@$0A@@std@@@2@I@Z 00422d90 f i GuildHouseDBCtrl.obj
 0001:00021da0       ??0const_iterator@?$vector@UGuildHouse_Furniture_Info@CGuildHouseBase@@V?$allocator@UGuildHouse_Furniture_Info@CGuildHouseBase@@@std@@@std@@QAE@PAUGuildHouse_Furniture_Info@CGuildHouseBase@@@Z 00422da0 f i GuildHouseDBCtrl.obj
 0001:00021db0       ??0_Node@?$_Tree_nod@V?$_Tmap_traits@KPAVCGuildHouseBase@@U?$less@K@std@@V?$allocator@U?$pair@$$CBKPAVCGuildHouseBase@@@std@@@3@$0A@@std@@@std@@QAE@PAU012@00ABU?$pair@$$CBKPAVCGuildHouseBase@@@2@D@Z 00422db0 f i GuildHouseDBCtrl.obj
 0001:00021df0       ?_Max@?$_Tree@V?$_Tmap_traits@KPAVCGuildHouseBase@@U?$less@K@std@@V?$allocator@U?$pair@$$CBKPAVCGuildHouseBase@@@std@@@3@$0A@@std@@@std@@KAPAU_Node@?$_Tree_nod@V?$_Tmap_traits@KPAVCGuildHouseBase@@U?$less@K@std@@V?$allocator@U?$pair@$$CBKPAVCGuildHouseBase@@@std@@@3@$0A@@std@@@2@PAU342@@Z 00422df0 f i GuildHouseDBCtrl.obj
 0001:00021e10       ??$?0KPAVCGuildHouseBase@@@?$pair@$$CBKPAVCGuildHouseBase@@@std@@QAE@ABU?$pair@KPAVCGuildHouseBase@@@1@@Z 00422e10 f i GuildHouseDBCtrl.obj
 0001:00021e30       ??$_Allocate@U_Node@?$_Tree_nod@V?$_Tmap_traits@KPAVCGuildHouseBase@@U?$less@K@std@@V?$allocator@U?$pair@$$CBKPAVCGuildHouseBase@@@std@@@3@$0A@@std@@@std@@@std@@YAPAU_Node@?$_Tree_nod@V?$_Tmap_traits@KPAVCGuildHouseBase@@U?$less@K@std@@V?$allocator@U?$pair@$$CBKPAVCGuildHouseBase@@@std@@@3@$0A@@std@@@0@IPAU120@@Z 00422e30 f i GuildHouseDBCtrl.obj
 0001:00021e50       ??0?$pair@KPAVCGuildHouseBase@@@std@@QAE@ABKABQAVCGuildHouseBase@@@Z 00422e50 f i GuildHouseDBCtrl.obj
 0001:00021e70       ??0D3DXVECTOR3@@QAE@MMM@Z  00422e70 f i GuildHouseDBCtrl.obj
 0001:00021e90       ?GetFurnitureListSize@CGuildHouseBase@@QAEHXZ 00422e90 f i GuildHouseDBCtrl.obj
 0001:00021eb0       ??_GCGuildHouseDBCtrl@@UAEPAXI@Z 00422eb0 f i GuildHouseDBCtrl.obj
 0001:00021eb0       ??_ECGuildHouseDBCtrl@@UAEPAXI@Z 00422eb0 f i GuildHouseDBCtrl.obj
 0001:00021ed0       ?GetInstance@CGuildHouseDBMng@@SAPAV1@XZ 00422ed0 f   GuildHouseDBCtrl.obj
 0001:00021f30       ?empty@?$_Tree@V?$_Tmap_traits@KPAVCGuildHouseBase@@U?$less@K@std@@V?$allocator@U?$pair@$$CBKPAVCGuildHouseBase@@@std@@@3@$0A@@std@@@std@@QBE_NXZ 00422f30 f i GuildHouseDBCtrl.obj
 0001:00021f40       ?_Key@?$_Tree@V?$_Tmap_traits@KPAVCGuildHouseBase@@U?$less@K@std@@V?$allocator@U?$pair@$$CBKPAVCGuildHouseBase@@@std@@@3@$0A@@std@@@std@@KAABKPAU_Node@?$_Tree_nod@V?$_Tmap_traits@KPAVCGuildHouseBase@@U?$less@K@std@@V?$allocator@U?$pair@$$CBKPAVCGuildHouseBase@@@std@@@3@$0A@@std@@@2@@Z 00422f40 f i GuildHouseDBCtrl.obj
 0001:00021f50       ?_Root@?$_Tree@V?$_Tmap_traits@KPAVCGuildHouseBase@@U?$less@K@std@@V?$allocator@U?$pair@$$CBKPAVCGuildHouseBase@@@std@@@3@$0A@@std@@@std@@IAEAAPAU_Node@?$_Tree_nod@V?$_Tmap_traits@KPAVCGuildHouseBase@@U?$less@K@std@@V?$allocator@U?$pair@$$CBKPAVCGuildHouseBase@@@std@@@3@$0A@@std@@@2@XZ 00422f50 f i GuildHouseDBCtrl.obj
 0001:00021f60       ??0iterator@?$_Tree@V?$_Tmap_traits@KPAVCGuildHouseBase@@U?$less@K@std@@V?$allocator@U?$pair@$$CBKPAVCGuildHouseBase@@@std@@@3@$0A@@std@@@std@@QAE@PAU_Node@?$_Tree_nod@V?$_Tmap_traits@KPAVCGuildHouseBase@@U?$less@K@std@@V?$allocator@U?$pair@$$CBKPAVCGuildHouseBase@@@std@@@3@$0A@@std@@@2@@Z 00422f60 f i GuildHouseDBCtrl.obj
 0001:00021f70       ??Diterator@?$vector@UGuildHouse_Furniture_Info@CGuildHouseBase@@V?$allocator@UGuildHouse_Furniture_Info@CGuildHouseBase@@@std@@@std@@QBEAAUGuildHouse_Furniture_Info@CGuildHouseBase@@XZ 00422f70 f i GuildHouseDBCtrl.obj
 0001:00021f80       ??Hiterator@?$vector@UGuildHouse_Furniture_Info@CGuildHouseBase@@V?$allocator@UGuildHouse_Furniture_Info@CGuildHouseBase@@@std@@@std@@QBE?AV012@H@Z 00422f80 f i GuildHouseDBCtrl.obj
 0001:00021fa0       ?max_size@?$_Tree@V?$_Tmap_traits@KPAVCGuildHouseBase@@U?$less@K@std@@V?$allocator@U?$pair@$$CBKPAVCGuildHouseBase@@@std@@@3@$0A@@std@@@std@@QBEIXZ 00422fa0 f i GuildHouseDBCtrl.obj
 0001:00021fb0       ?_Lrotate@?$_Tree@V?$_Tmap_traits@KPAVCGuildHouseBase@@U?$less@K@std@@V?$allocator@U?$pair@$$CBKPAVCGuildHouseBase@@@std@@@3@$0A@@std@@@std@@IAEXPAU_Node@?$_Tree_nod@V?$_Tmap_traits@KPAVCGuildHouseBase@@U?$less@K@std@@V?$allocator@U?$pair@$$CBKPAVCGuildHouseBase@@@std@@@3@$0A@@std@@@2@@Z 00422fb0 f i GuildHouseDBCtrl.obj
 0001:00022010       ?_Rrotate@?$_Tree@V?$_Tmap_traits@KPAVCGuildHouseBase@@U?$less@K@std@@V?$allocator@U?$pair@$$CBKPAVCGuildHouseBase@@@std@@@3@$0A@@std@@@std@@IAEXPAU_Node@?$_Tree_nod@V?$_Tmap_traits@KPAVCGuildHouseBase@@U?$less@K@std@@V?$allocator@U?$pair@$$CBKPAVCGuildHouseBase@@@std@@@3@$0A@@std@@@2@@Z 00423010 f i GuildHouseDBCtrl.obj
 0001:00022070       ??0iterator@?$vector@UGuildHouse_Furniture_Info@CGuildHouseBase@@V?$allocator@UGuildHouse_Furniture_Info@CGuildHouseBase@@@std@@@std@@QAE@PAUGuildHouse_Furniture_Info@CGuildHouseBase@@@Z 00423070 f i GuildHouseDBCtrl.obj
 0001:00022080       ?allocate@?$allocator@U_Node@?$_Tree_nod@V?$_Tmap_traits@KPAVCGuildHouseBase@@U?$less@K@std@@V?$allocator@U?$pair@$$CBKPAVCGuildHouseBase@@@std@@@3@$0A@@std@@@std@@@std@@QAEPAU_Node@?$_Tree_nod@V?$_Tmap_traits@KPAVCGuildHouseBase@@U?$less@K@std@@V?$allocator@U?$pair@$$CBKPAVCGuildHouseBase@@@std@@@3@$0A@@std@@@2@I@Z 00423080 f i GuildHouseDBCtrl.obj
 0001:000220a0       ?_Dec@const_iterator@?$_Tree@V?$_Tmap_traits@KPAVCGuildHouseBase@@U?$less@K@std@@V?$allocator@U?$pair@$$CBKPAVCGuildHouseBase@@@std@@@3@$0A@@std@@@std@@QAEXXZ 004230a0 f i GuildHouseDBCtrl.obj
 0001:00022100       ??$make_pair@KPAVCGuildHouseBase@@@std@@YA?AU?$pair@KPAVCGuildHouseBase@@@0@KPAVCGuildHouseBase@@@Z 00423100 f i GuildHouseDBCtrl.obj
 0001:00022120       ?IsEmpty@CGuildHouseMng@@QAEHXZ 00423120 f i GuildHouseDBCtrl.obj
 0001:00022130       ?SendGuildHouse@CGuildHouseDBCtrl@@AAEXK@Z 00423130 f   GuildHouseDBCtrl.obj
 0001:00022260       ?RemoveGuildHouse@CGuildHouseDBCtrl@@AAEXK@Z 00423260 f   GuildHouseDBCtrl.obj
 0001:000223b0       ?begin@?$vector@UGuildHouse_Furniture_Info@CGuildHouseBase@@V?$allocator@UGuildHouse_Furniture_Info@CGuildHouseBase@@@std@@@std@@QAE?AViterator@12@XZ 004233b0 f i GuildHouseDBCtrl.obj
 0001:000223c0       ?begin@?$_Tree@V?$_Tmap_traits@KPAVCGuildHouseBase@@U?$less@K@std@@V?$allocator@U?$pair@$$CBKPAVCGuildHouseBase@@@std@@@3@$0A@@std@@@std@@QAE?AViterator@12@XZ 004233c0 f i GuildHouseDBCtrl.obj
 0001:000223d0       ?_Buynode@?$_Tree@V?$_Tmap_traits@KPAVCGuildHouseBase@@U?$less@K@std@@V?$allocator@U?$pair@$$CBKPAVCGuildHouseBase@@@std@@@3@$0A@@std@@@std@@IAEPAU_Node@?$_Tree_nod@V?$_Tmap_traits@KPAVCGuildHouseBase@@U?$less@K@std@@V?$allocator@U?$pair@$$CBKPAVCGuildHouseBase@@@std@@@3@$0A@@std@@@2@PAU342@00ABU?$pair@$$CBKPAVCGuildHouseBase@@@2@D@Z 004233d0 f i GuildHouseDBCtrl.obj
 0001:00022410       ??Fconst_iterator@?$_Tree@V?$_Tmap_traits@KPAVCGuildHouseBase@@U?$less@K@std@@V?$allocator@U?$pair@$$CBKPAVCGuildHouseBase@@@std@@@3@$0A@@std@@@std@@QAEAAV012@XZ 00423410 f i GuildHouseDBCtrl.obj
 0001:00022420       ??A?$vector@UGuildHouse_Furniture_Info@CGuildHouseBase@@V?$allocator@UGuildHouse_Furniture_Info@CGuildHouseBase@@@std@@@std@@QAEAAUGuildHouse_Furniture_Info@CGuildHouseBase@@I@Z 00423420 f i GuildHouseDBCtrl.obj
 0001:00022430       ??Fiterator@?$_Tree@V?$_Tmap_traits@KPAVCGuildHouseBase@@U?$less@K@std@@V?$allocator@U?$pair@$$CBKPAVCGuildHouseBase@@@std@@@3@$0A@@std@@@std@@QAEAAV012@XZ 00423430 f i GuildHouseDBCtrl.obj
 0001:00022440       ?GetFurnitureInfo@CGuildHouseBase@@QAE?AUGuildHouse_Furniture_Info@1@H@Z 00423440 f i GuildHouseDBCtrl.obj
 0001:000224d0       ?ExcuteQuery@CGuildHouseDBCtrl@@AAEHKPAVCGuildHouseBase@@HAAUGuildHouse_Furniture_Info@2@H@Z 004234d0 f   GuildHouseDBCtrl.obj
 0001:000226d0       ?RunDefaultPacket@CGuildHouseDBCtrl@@AAEXAAVCAr@@K@Z 004236d0 f   GuildHouseDBCtrl.obj
 0001:00022950       ?_Insert@?$_Tree@V?$_Tmap_traits@KPAVCGuildHouseBase@@U?$less@K@std@@V?$allocator@U?$pair@$$CBKPAVCGuildHouseBase@@@std@@@3@$0A@@std@@@std@@IAE?AViterator@12@_NPAU_Node@?$_Tree_nod@V?$_Tmap_traits@KPAVCGuildHouseBase@@U?$less@K@std@@V?$allocator@U?$pair@$$CBKPAVCGuildHouseBase@@@std@@@3@$0A@@std@@@2@ABU?$pair@$$CBKPAVCGuildHouseBase@@@2@@Z 00423950 f i GuildHouseDBCtrl.obj
 0001:00022b00       ?insert@?$_Tree@V?$_Tmap_traits@KPAVCGuildHouseBase@@U?$less@K@std@@V?$allocator@U?$pair@$$CBKPAVCGuildHouseBase@@@std@@@3@$0A@@std@@@std@@QAE?AU?$pair@Viterator@?$_Tree@V?$_Tmap_traits@KPAVCGuildHouseBase@@U?$less@K@std@@V?$allocator@U?$pair@$$CBKPAVCGuildHouseBase@@@std@@@3@$0A@@std@@@std@@_N@2@ABU?$pair@$$CBKPAVCGuildHouseBase@@@2@@Z 00423b00 f i GuildHouseDBCtrl.obj
 0001:00022bc0       ?AddGuildHouse@CGuildHouseMng@@QAEHKPAVCGuildHouseBase@@@Z 00423bc0 f i GuildHouseDBCtrl.obj
 0001:00022bf0       ?CreateGuildHouse@CGuildHouseDBCtrl@@AAEXAAVCAr@@K@Z 00423bf0 f   GuildHouseDBCtrl.obj
 0001:00022ed0       ?Handler@CGuildHouseDBCtrl@@UAEXPAUtagDB_OVERLAPPED_PLUS@@K@Z 00423ed0 f   GuildHouseDBCtrl.obj
 0001:00023060       ?size@?$vector@UHOUSINGINFO@@V?$allocator@UHOUSINGINFO@@@std@@@std@@QBEIXZ 00424060 f i Housing.obj
 0001:00023090       ??Yiterator@?$vector@UHOUSINGINFO@@V?$allocator@UHOUSINGINFO@@@std@@@std@@QAEAAV012@H@Z 00424090 f i Housing.obj
 0001:000230b0       ??8const_iterator@?$_Tree@V?$_Tmap_traits@KPAVCHousing@@U?$less@K@std@@V?$allocator@U?$pair@$$CBKPAVCHousing@@@std@@@3@$0A@@std@@@std@@QBE_NABV012@@Z 004240b0 f i Housing.obj
 0001:000230c0       ??9const_iterator@?$_Tree@V?$_Tmap_traits@KPAVCHousing@@U?$less@K@std@@V?$allocator@U?$pair@$$CBKPAVCHousing@@@std@@@3@$0A@@std@@@std@@QBE_NABV012@@Z 004240c0 f i Housing.obj
 0001:000230e0       ??0?$pair@$$CBKPAVCHousing@@@std@@QAE@ABKABQAVCHousing@@@Z 004240e0 f i Housing.obj
 0001:00023100       ?capacity@?$vector@KV?$allocator@K@std@@@std@@QBEIXZ 00424100 f i Housing.obj
 0001:00023120       ?capacity@?$vector@UHOUSINGINFO@@V?$allocator@UHOUSINGINFO@@@std@@@std@@QBEIXZ 00424120 f i Housing.obj
 0001:00023150       ??0?$allocator@UHOUSINGINFO@@@std@@QAE@XZ 00424150 f i Housing.obj
 0001:00023160       ?_Isnil@?$_Tree@V?$_Tmap_traits@KPAVCHousing@@U?$less@K@std@@V?$allocator@U?$pair@$$CBKPAVCHousing@@@std@@@3@$0A@@std@@@std@@KAAADPAU_Node@?$_Tree_nod@V?$_Tmap_traits@KPAVCHousing@@U?$less@K@std@@V?$allocator@U?$pair@$$CBKPAVCHousing@@@std@@@3@$0A@@std@@@2@@Z 00424160 f i Housing.obj
 0001:00023170       ?_Left@?$_Tree@V?$_Tmap_traits@KPAVCHousing@@U?$less@K@std@@V?$allocator@U?$pair@$$CBKPAVCHousing@@@std@@@3@$0A@@std@@@std@@KAAAPAU_Node@?$_Tree_nod@V?$_Tmap_traits@KPAVCHousing@@U?$less@K@std@@V?$allocator@U?$pair@$$CBKPAVCHousing@@@std@@@3@$0A@@std@@@2@PAU342@@Z 00424170 f i Housing.obj
 0001:00023180       ?_Right@?$_Tree@V?$_Tmap_traits@KPAVCHousing@@U?$less@K@std@@V?$allocator@U?$pair@$$CBKPAVCHousing@@@std@@@3@$0A@@std@@@std@@KAAAPAU_Node@?$_Tree_nod@V?$_Tmap_traits@KPAVCHousing@@U?$less@K@std@@V?$allocator@U?$pair@$$CBKPAVCHousing@@@std@@@3@$0A@@std@@@2@PAU342@@Z 00424180 f i Housing.obj
 0001:00023190       ?_Lmost@?$_Tree@V?$_Tmap_traits@KPAVCHousing@@U?$less@K@std@@V?$allocator@U?$pair@$$CBKPAVCHousing@@@std@@@3@$0A@@std@@@std@@IAEAAPAU_Node@?$_Tree_nod@V?$_Tmap_traits@KPAVCHousing@@U?$less@K@std@@V?$allocator@U?$pair@$$CBKPAVCHousing@@@std@@@3@$0A@@std@@@2@XZ 00424190 f i Housing.obj
 0001:000231a0       ?_Rmost@?$_Tree@V?$_Tmap_traits@KPAVCHousing@@U?$less@K@std@@V?$allocator@U?$pair@$$CBKPAVCHousing@@@std@@@3@$0A@@std@@@std@@IAEAAPAU_Node@?$_Tree_nod@V?$_Tmap_traits@KPAVCHousing@@U?$less@K@std@@V?$allocator@U?$pair@$$CBKPAVCHousing@@@std@@@3@$0A@@std@@@2@XZ 004241a0 f i Housing.obj
 0001:000231b0       ?_Kfn@?$_Tmap_traits@KPAVCHousing@@U?$less@K@std@@V?$allocator@U?$pair@$$CBKPAVCHousing@@@std@@@3@$0A@@std@@SAABKABU?$pair@$$CBKPAVCHousing@@@2@@Z 004241b0 f i Housing.obj
 0001:000231c0       ??0?$allocator@U?$pair@$$CBKPAVCHousing@@@std@@@std@@QAE@XZ 004241c0 f i Housing.obj
 0001:000231d0       ??Hiterator@?$vector@UHOUSINGINFO@@V?$allocator@UHOUSINGINFO@@@std@@@std@@QBE?AV012@H@Z 004241d0 f i Housing.obj
 0001:000231f0       ?_Mynode@const_iterator@?$_Tree@V?$_Tmap_traits@KPAVCHousing@@U?$less@K@std@@V?$allocator@U?$pair@$$CBKPAVCHousing@@@std@@@3@$0A@@std@@@std@@QBEPAU_Node@?$_Tree_nod@V?$_Tmap_traits@KPAVCHousing@@U?$less@K@std@@V?$allocator@U?$pair@$$CBKPAVCHousing@@@std@@@3@$0A@@std@@@3@XZ 004241f0 f i Housing.obj
 0001:00023200       ??0?$pair@Viterator@?$_Tree@V?$_Tmap_traits@KPAVCHousing@@U?$less@K@std@@V?$allocator@U?$pair@$$CBKPAVCHousing@@@std@@@3@$0A@@std@@@std@@_N@std@@QAE@ABViterator@?$_Tree@V?$_Tmap_traits@KPAVCHousing@@U?$less@K@std@@V?$allocator@U?$pair@$$CBKPAVCHousing@@@std@@@3@$0A@@std@@@1@AB_N@Z 00424200 f i Housing.obj
 0001:00023220       ??0?$allocator@UHOUSINGINFO@@@std@@QAE@ABV01@@Z 00424220 f i Housing.obj
 0001:00023230       ?deallocate@?$allocator@UHOUSINGINFO@@@std@@QAEXPAUHOUSINGINFO@@I@Z 00424230 f i Housing.obj
 0001:00023240       ?_Color@?$_Tree@V?$_Tmap_traits@KPAVCHousing@@U?$less@K@std@@V?$allocator@U?$pair@$$CBKPAVCHousing@@@std@@@3@$0A@@std@@@std@@KAAADPAU_Node@?$_Tree_nod@V?$_Tmap_traits@KPAVCHousing@@U?$less@K@std@@V?$allocator@U?$pair@$$CBKPAVCHousing@@@std@@@3@$0A@@std@@@2@@Z 00424240 f i Housing.obj
 0001:00023250       ?_Parent@?$_Tree@V?$_Tmap_traits@KPAVCHousing@@U?$less@K@std@@V?$allocator@U?$pair@$$CBKPAVCHousing@@@std@@@3@$0A@@std@@@std@@KAAAPAU_Node@?$_Tree_nod@V?$_Tmap_traits@KPAVCHousing@@U?$less@K@std@@V?$allocator@U?$pair@$$CBKPAVCHousing@@@std@@@3@$0A@@std@@@2@PAU342@@Z 00424250 f i Housing.obj
 0001:00023260       ?_Myval@?$_Tree@V?$_Tmap_traits@KPAVCHousing@@U?$less@K@std@@V?$allocator@U?$pair@$$CBKPAVCHousing@@@std@@@3@$0A@@std@@@std@@KAAAU?$pair@$$CBKPAVCHousing@@@2@PAU_Node@?$_Tree_nod@V?$_Tmap_traits@KPAVCHousing@@U?$less@K@std@@V?$allocator@U?$pair@$$CBKPAVCHousing@@@std@@@3@$0A@@std@@@2@@Z 00424260 f i Housing.obj
 0001:00023270       ??0?$allocator@U?$pair@$$CBKPAVCHousing@@@std@@@std@@QAE@ABV01@@Z 00424270 f i Housing.obj
 0001:00023280       ?deallocate@?$allocator@U_Node@?$_Tree_nod@V?$_Tmap_traits@KPAVCHousing@@U?$less@K@std@@V?$allocator@U?$pair@$$CBKPAVCHousing@@@std@@@3@$0A@@std@@@std@@@std@@QAEXPAU_Node@?$_Tree_nod@V?$_Tmap_traits@KPAVCHousing@@U?$less@K@std@@V?$allocator@U?$pair@$$CBKPAVCHousing@@@std@@@3@$0A@@std@@@2@I@Z 00424280 f i Housing.obj
 0001:00023290       ??0const_iterator@?$vector@UHOUSINGINFO@@V?$allocator@UHOUSINGINFO@@@std@@@std@@QAE@PAUHOUSINGINFO@@@Z 00424290 f i Housing.obj
 0001:000232a0       ??Dconst_iterator@?$vector@UHOUSINGINFO@@V?$allocator@UHOUSINGINFO@@@std@@@std@@QBEABUHOUSINGINFO@@XZ 004242a0 f i Housing.obj
 0001:000232b0       ??0const_iterator@?$_Tree@V?$_Tmap_traits@KPAVCHousing@@U?$less@K@std@@V?$allocator@U?$pair@$$CBKPAVCHousing@@@std@@@3@$0A@@std@@@std@@QAE@PAU_Node@?$_Tree_nod@V?$_Tmap_traits@KPAVCHousing@@U?$less@K@std@@V?$allocator@U?$pair@$$CBKPAVCHousing@@@std@@@3@$0A@@std@@@2@@Z 004242b0 f i Housing.obj
 0001:000232c0       ??Dconst_iterator@?$_Tree@V?$_Tmap_traits@KPAVCHousing@@U?$less@K@std@@V?$allocator@U?$pair@$$CBKPAVCHousing@@@std@@@3@$0A@@std@@@std@@QBEABU?$pair@$$CBKPAVCHousing@@@2@XZ 004242c0 f i Housing.obj
 0001:000232d0       ?max_size@?$allocator@UHOUSINGINFO@@@std@@QBEIXZ 004242d0 f i Housing.obj
 0001:000232e0       ?_Root@?$_Tree@V?$_Tmap_traits@KPAVCHousing@@U?$less@K@std@@V?$allocator@U?$pair@$$CBKPAVCHousing@@@std@@@3@$0A@@std@@@std@@IBEAAPAU_Node@?$_Tree_nod@V?$_Tmap_traits@KPAVCHousing@@U?$less@K@std@@V?$allocator@U?$pair@$$CBKPAVCHousing@@@std@@@3@$0A@@std@@@2@XZ 004242e0 f i Housing.obj
 0001:000232f0       ?max_size@?$allocator@U?$pair@$$CBKPAVCHousing@@@std@@@std@@QBEIXZ 004242f0 f i Housing.obj
 0001:00023300       ??Gconst_iterator@?$vector@UHOUSINGINFO@@V?$allocator@UHOUSINGINFO@@@std@@@std@@QBEHABV012@@Z 00424300 f i Housing.obj
 0001:00023320       ??Gconst_iterator@?$vector@KV?$allocator@K@std@@@std@@QBEHABV012@@Z 00424320 f i Housing.obj
 0001:00023330       ??0_Node@?$_Tree_nod@V?$_Tmap_traits@KPAVCHousing@@U?$less@K@std@@V?$allocator@U?$pair@$$CBKPAVCHousing@@@std@@@3@$0A@@std@@@std@@QAE@PAU012@00ABU?$pair@$$CBKPAVCHousing@@@2@D@Z 00424330 f i Housing.obj
 0001:00023370       ?_Max@?$_Tree@V?$_Tmap_traits@KPAVCHousing@@U?$less@K@std@@V?$allocator@U?$pair@$$CBKPAVCHousing@@@std@@@3@$0A@@std@@@std@@KAPAU_Node@?$_Tree_nod@V?$_Tmap_traits@KPAVCHousing@@U?$less@K@std@@V?$allocator@U?$pair@$$CBKPAVCHousing@@@std@@@3@$0A@@std@@@2@PAU342@@Z 00424370 f i Housing.obj
 0001:00023390       ?_Min@?$_Tree@V?$_Tmap_traits@KPAVCHousing@@U?$less@K@std@@V?$allocator@U?$pair@$$CBKPAVCHousing@@@std@@@3@$0A@@std@@@std@@KAPAU_Node@?$_Tree_nod@V?$_Tmap_traits@KPAVCHousing@@U?$less@K@std@@V?$allocator@U?$pair@$$CBKPAVCHousing@@@std@@@3@$0A@@std@@@2@PAU342@@Z 00424390 f i Housing.obj
 0001:000233b0       ??0?$_Tmap_traits@KPAVCHousing@@U?$less@K@std@@V?$allocator@U?$pair@$$CBKPAVCHousing@@@std@@@3@$0A@@std@@QAE@U?$less@K@1@@Z 004243b0 f i Housing.obj
 0001:000233c0       ??$fill@PAKK@std@@YAXPAK0ABK@Z 004243c0 f i Housing.obj
 0001:000233e0       ??$fill@PAUHOUSINGINFO@@U1@@std@@YAXPAUHOUSINGINFO@@0ABU1@@Z 004243e0 f i Housing.obj
 0001:00023410       ??$_Allocate@UHOUSINGINFO@@@std@@YAPAUHOUSINGINFO@@IPAU1@@Z 00424410 f i Housing.obj
 0001:00023430       ??$_Destroy@U_Node@?$_Tree_nod@V?$_Tmap_traits@KPAVCHousing@@U?$less@K@std@@V?$allocator@U?$pair@$$CBKPAVCHousing@@@std@@@3@$0A@@std@@@std@@@std@@YAXPAU_Node@?$_Tree_nod@V?$_Tmap_traits@KPAVCHousing@@U?$less@K@std@@V?$allocator@U?$pair@$$CBKPAVCHousing@@@std@@@3@$0A@@std@@@0@@Z 00424430 f i Housing.obj
 0001:00023440       ??$_Destroy@PAU_Node@?$_Tree_nod@V?$_Tmap_traits@KPAVCHousing@@U?$less@K@std@@V?$allocator@U?$pair@$$CBKPAVCHousing@@@std@@@3@$0A@@std@@@std@@@std@@YAXPAPAU_Node@?$_Tree_nod@V?$_Tmap_traits@KPAVCHousing@@U?$less@K@std@@V?$allocator@U?$pair@$$CBKPAVCHousing@@@std@@@3@$0A@@std@@@0@@Z 00424440 f i Housing.obj
 0001:00023450       ??$?0U?$pair@$$CBKPAVCHousing@@@std@@@?$allocator@PAU_Node@?$_Tree_nod@V?$_Tmap_traits@KPAVCHousing@@U?$less@K@std@@V?$allocator@U?$pair@$$CBKPAVCHousing@@@std@@@3@$0A@@std@@@std@@@std@@QAE@ABV?$allocator@U?$pair@$$CBKPAVCHousing@@@std@@@1@@Z 00424450 f i Housing.obj
 0001:00023460       ??$_Allocate@U_Node@?$_Tree_nod@V?$_Tmap_traits@KPAVCHousing@@U?$less@K@std@@V?$allocator@U?$pair@$$CBKPAVCHousing@@@std@@@3@$0A@@std@@@std@@@std@@YAPAU_Node@?$_Tree_nod@V?$_Tmap_traits@KPAVCHousing@@U?$less@K@std@@V?$allocator@U?$pair@$$CBKPAVCHousing@@@std@@@3@$0A@@std@@@0@IPAU120@@Z 00424460 f i Housing.obj
 0001:00023480       ??$?0U?$pair@$$CBKPAVCHousing@@@std@@@?$allocator@U_Node@?$_Tree_nod@V?$_Tmap_traits@KPAVCHousing@@U?$less@K@std@@V?$allocator@U?$pair@$$CBKPAVCHousing@@@std@@@3@$0A@@std@@@std@@@std@@QAE@ABV?$allocator@U?$pair@$$CBKPAVCHousing@@@std@@@1@@Z 00424480 f i Housing.obj
 0001:00023490       ??$_Construct@PAU_Node@?$_Tree_nod@V?$_Tmap_traits@KPAVCHousing@@U?$less@K@std@@V?$allocator@U?$pair@$$CBKPAVCHousing@@@std@@@3@$0A@@std@@@std@@PAU123@@std@@YAXPAPAU_Node@?$_Tree_nod@V?$_Tmap_traits@KPAVCHousing@@U?$less@K@std@@V?$allocator@U?$pair@$$CBKPAVCHousing@@@std@@@3@$0A@@std@@@0@ABQAU120@@Z 00424490 f i Housing.obj
 0001:000234b0       ??$_Copy_opt@PAKPAK@std@@YAPAKPAK00U_Scalar_ptr_iterator_tag@0@@Z 004244b0 f i Housing.obj
 0001:000234e0       ??$_Ptr_cat@PAUHOUSINGINFO@@PAU1@@std@@YA?AU_Nonscalar_ptr_iterator_tag@0@AAPAUHOUSINGINFO@@0@Z 004244e0 f i Housing.obj
 0001:000234f0       ??$_Copy_opt@PAUHOUSINGINFO@@PAU1@@std@@YAPAUHOUSINGINFO@@PAU1@00U_Nonscalar_ptr_iterator_tag@0@@Z 004244f0 f i Housing.obj
 0001:00023520       ??$_Copy_backward_opt@PAKPAK@std@@YAPAKPAK00U_Scalar_ptr_iterator_tag@0@@Z 00424520 f i Housing.obj
 0001:00023550       ??$_Copy_backward_opt@PAUHOUSINGINFO@@PAU1@@std@@YAPAUHOUSINGINFO@@PAU1@00U_Nonscalar_ptr_iterator_tag@0@@Z 00424550 f i Housing.obj
 0001:00023580       ??$fill_n@PAKIK@std@@YAXPAKIABK@Z 00424580 f i Housing.obj
 0001:000235a0       ??$_Uninit_copy@KK@std@@YAPAKPAK00AAV?$allocator@K@0@U_Scalar_ptr_iterator_tag@0@@Z 004245a0 f i Housing.obj
 0001:000235d0       ??$_Construct@UHOUSINGINFO@@U1@@std@@YAXPAUHOUSINGINFO@@ABU1@@Z 004245d0 f i Housing.obj
 0001:000235f0       ??$_Destroy@UHOUSINGINFO@@@std@@YAXPAUHOUSINGINFO@@@Z 004245f0 f i Housing.obj
 0001:00023600       ??0?$allocator@K@std@@QAE@XZ 00424600 f i Housing.obj
 0001:00023610       ??0?$allocator@K@std@@QAE@ABV01@@Z 00424610 f i Housing.obj
 0001:00023620       ?max_size@?$allocator@K@std@@QBEIXZ 00424620 f i Housing.obj
 0001:00023630       ??$_Allocate@K@std@@YAPAKIPAK@Z 00424630 f i Housing.obj
 0001:00023650       ??0HOUSINGINFO@@QAE@XZ     00424650 f i Housing.obj
 0001:00023670       ??Eiterator@?$vector@KV?$allocator@K@std@@@std@@QAE?AV012@H@Z 00424670 f i Housing.obj
 0001:00023680       ??0?$_Vector_val@UHOUSINGINFO@@V?$allocator@UHOUSINGINFO@@@std@@@std@@IAE@V?$allocator@UHOUSINGINFO@@@1@@Z 00424680 f i Housing.obj
 0001:00023690       ?_Key@?$_Tree@V?$_Tmap_traits@KPAVCHousing@@U?$less@K@std@@V?$allocator@U?$pair@$$CBKPAVCHousing@@@std@@@3@$0A@@std@@@std@@KAABKPAU_Node@?$_Tree_nod@V?$_Tmap_traits@KPAVCHousing@@U?$less@K@std@@V?$allocator@U?$pair@$$CBKPAVCHousing@@@std@@@3@$0A@@std@@@2@@Z 00424690 f i Housing.obj
 0001:000236a0       ?_Root@?$_Tree@V?$_Tmap_traits@KPAVCHousing@@U?$less@K@std@@V?$allocator@U?$pair@$$CBKPAVCHousing@@@std@@@3@$0A@@std@@@std@@IAEAAPAU_Node@?$_Tree_nod@V?$_Tmap_traits@KPAVCHousing@@U?$less@K@std@@V?$allocator@U?$pair@$$CBKPAVCHousing@@@std@@@3@$0A@@std@@@2@XZ 004246a0 f i Housing.obj
 0001:000236b0       ??0iterator@?$vector@UHOUSINGINFO@@V?$allocator@UHOUSINGINFO@@@std@@@std@@QAE@PAUHOUSINGINFO@@@Z 004246b0 f i Housing.obj
 0001:000236c0       ??Diterator@?$vector@UHOUSINGINFO@@V?$allocator@UHOUSINGINFO@@@std@@@std@@QBEAAUHOUSINGINFO@@XZ 004246c0 f i Housing.obj
 0001:000236d0       ??0iterator@?$_Tree@V?$_Tmap_traits@KPAVCHousing@@U?$less@K@std@@V?$allocator@U?$pair@$$CBKPAVCHousing@@@std@@@3@$0A@@std@@@std@@QAE@PAU_Node@?$_Tree_nod@V?$_Tmap_traits@KPAVCHousing@@U?$less@K@std@@V?$allocator@U?$pair@$$CBKPAVCHousing@@@std@@@3@$0A@@std@@@2@@Z 004246d0 f i Housing.obj
 0001:000236e0       ??Diterator@?$_Tree@V?$_Tmap_traits@KPAVCHousing@@U?$less@K@std@@V?$allocator@U?$pair@$$CBKPAVCHousing@@@std@@@3@$0A@@std@@@std@@QBEAAU?$pair@$$CBKPAVCHousing@@@2@XZ 004246e0 f i Housing.obj
 0001:000236f0       ?max_size@?$vector@UHOUSINGINFO@@V?$allocator@UHOUSINGINFO@@@std@@@std@@QBEIXZ 004246f0 f i Housing.obj
 0001:00023700       ?allocate@?$allocator@UHOUSINGINFO@@@std@@QAEPAUHOUSINGINFO@@I@Z 00424700 f i Housing.obj
 0001:00023720       ?max_size@?$_Tree@V?$_Tmap_traits@KPAVCHousing@@U?$less@K@std@@V?$allocator@U?$pair@$$CBKPAVCHousing@@@std@@@3@$0A@@std@@@std@@QBEIXZ 00424720 f i Housing.obj
 0001:00023730       ?_Lbound@?$_Tree@V?$_Tmap_traits@KPAVCHousing@@U?$less@K@std@@V?$allocator@U?$pair@$$CBKPAVCHousing@@@std@@@3@$0A@@std@@@std@@IBEPAU_Node@?$_Tree_nod@V?$_Tmap_traits@KPAVCHousing@@U?$less@K@std@@V?$allocator@U?$pair@$$CBKPAVCHousing@@@std@@@3@$0A@@std@@@2@ABK@Z 00424730 f i Housing.obj
 0001:00023760       ?_Lrotate@?$_Tree@V?$_Tmap_traits@KPAVCHousing@@U?$less@K@std@@V?$allocator@U?$pair@$$CBKPAVCHousing@@@std@@@3@$0A@@std@@@std@@IAEXPAU_Node@?$_Tree_nod@V?$_Tmap_traits@KPAVCHousing@@U?$less@K@std@@V?$allocator@U?$pair@$$CBKPAVCHousing@@@std@@@3@$0A@@std@@@2@@Z 00424760 f i Housing.obj
 0001:000237c0       ?_Rrotate@?$_Tree@V?$_Tmap_traits@KPAVCHousing@@U?$less@K@std@@V?$allocator@U?$pair@$$CBKPAVCHousing@@@std@@@3@$0A@@std@@@std@@IAEXPAU_Node@?$_Tree_nod@V?$_Tmap_traits@KPAVCHousing@@U?$less@K@std@@V?$allocator@U?$pair@$$CBKPAVCHousing@@@std@@@3@$0A@@std@@@2@@Z 004247c0 f i Housing.obj
 0001:00023820       ?destroy@?$allocator@U_Node@?$_Tree_nod@V?$_Tmap_traits@KPAVCHousing@@U?$less@K@std@@V?$allocator@U?$pair@$$CBKPAVCHousing@@@std@@@3@$0A@@std@@@std@@@std@@QAEXPAU_Node@?$_Tree_nod@V?$_Tmap_traits@KPAVCHousing@@U?$less@K@std@@V?$allocator@U?$pair@$$CBKPAVCHousing@@@std@@@3@$0A@@std@@@2@@Z 00424820 f i Housing.obj
 0001:00023830       ?destroy@?$allocator@PAU_Node@?$_Tree_nod@V?$_Tmap_traits@KPAVCHousing@@U?$less@K@std@@V?$allocator@U?$pair@$$CBKPAVCHousing@@@std@@@3@$0A@@std@@@std@@@std@@QAEXPAPAU_Node@?$_Tree_nod@V?$_Tmap_traits@KPAVCHousing@@U?$less@K@std@@V?$allocator@U?$pair@$$CBKPAVCHousing@@@std@@@3@$0A@@std@@@2@@Z 00424830 f i Housing.obj
 0001:00023840       ??Giterator@?$vector@UHOUSINGINFO@@V?$allocator@UHOUSINGINFO@@@std@@@std@@QBEHABVconst_iterator@12@@Z 00424840 f i Housing.obj
 0001:00023860       ??Giterator@?$vector@KV?$allocator@K@std@@@std@@QBEHABVconst_iterator@12@@Z 00424860 f i Housing.obj
 0001:00023870       ?allocate@?$allocator@U_Node@?$_Tree_nod@V?$_Tmap_traits@KPAVCHousing@@U?$less@K@std@@V?$allocator@U?$pair@$$CBKPAVCHousing@@@std@@@3@$0A@@std@@@std@@@std@@QAEPAU_Node@?$_Tree_nod@V?$_Tmap_traits@KPAVCHousing@@U?$less@K@std@@V?$allocator@U?$pair@$$CBKPAVCHousing@@@std@@@3@$0A@@std@@@2@I@Z 00424870 f i Housing.obj
 0001:00023890       ?_Dec@const_iterator@?$_Tree@V?$_Tmap_traits@KPAVCHousing@@U?$less@K@std@@V?$allocator@U?$pair@$$CBKPAVCHousing@@@std@@@3@$0A@@std@@@std@@QAEXXZ 00424890 f i Housing.obj
 0001:000238f0       ?_Inc@const_iterator@?$_Tree@V?$_Tmap_traits@KPAVCHousing@@U?$less@K@std@@V?$allocator@U?$pair@$$CBKPAVCHousing@@@std@@@3@$0A@@std@@@std@@QAEXXZ 004248f0 f i Housing.obj
 0001:00023950       ??0?$_Tree_nod@V?$_Tmap_traits@KPAVCHousing@@U?$less@K@std@@V?$allocator@U?$pair@$$CBKPAVCHousing@@@std@@@3@$0A@@std@@@std@@IAE@ABU?$less@K@1@V?$allocator@U?$pair@$$CBKPAVCHousing@@@std@@@1@@Z 00424950 f i Housing.obj
 0001:00023960       ?construct@?$allocator@PAU_Node@?$_Tree_nod@V?$_Tmap_traits@KPAVCHousing@@U?$less@K@std@@V?$allocator@U?$pair@$$CBKPAVCHousing@@@std@@@3@$0A@@std@@@std@@@std@@QAEXPAPAU_Node@?$_Tree_nod@V?$_Tmap_traits@KPAVCHousing@@U?$less@K@std@@V?$allocator@U?$pair@$$CBKPAVCHousing@@@std@@@3@$0A@@std@@@2@ABQAU342@@Z 00424960 f i Housing.obj
 0001:00023980       ??$copy@PAKPAK@std@@YAPAKPAK00@Z 00424980 f i Housing.obj
 0001:000239b0       ??$copy@PAUHOUSINGINFO@@PAU1@@std@@YAPAUHOUSINGINFO@@PAU1@00@Z 004249b0 f i Housing.obj
 0001:000239e0       ??$copy_backward@PAKPAK@std@@YAPAKPAK00@Z 004249e0 f i Housing.obj
 0001:00023a10       ??$copy_backward@PAUHOUSINGINFO@@PAU1@@std@@YAPAUHOUSINGINFO@@PAU1@00@Z 00424a10 f i Housing.obj
 0001:00023a40       ??$_Uninit_fill_n@KIK@std@@YAXPAKIABKAAV?$allocator@K@0@U_Scalar_ptr_iterator_tag@0@@Z 00424a40 f i Housing.obj
 0001:00023a60       ??$_Uninitialized_copy@PAKPAKV?$allocator@K@std@@@std@@YAPAKPAK00AAV?$allocator@K@0@@Z 00424a60 f i Housing.obj
 0001:00023a90       ?construct@?$allocator@UHOUSINGINFO@@@std@@QAEXPAUHOUSINGINFO@@ABU3@@Z 00424a90 f i Housing.obj
 0001:00023ab0       ?destroy@?$allocator@UHOUSINGINFO@@@std@@QAEXPAUHOUSINGINFO@@@Z 00424ab0 f i Housing.obj
 0001:00023ac0       ??$_Uninit_copy@PAUHOUSINGINFO@@PAU1@V?$allocator@UHOUSINGINFO@@@std@@@std@@YAPAUHOUSINGINFO@@PAU1@00AAV?$allocator@UHOUSINGINFO@@@0@U_Nonscalar_ptr_iterator_tag@0@@Z 00424ac0 f i Housing.obj
 0001:00023af0       ??0?$_Vector_val@KV?$allocator@K@std@@@std@@IAE@V?$allocator@K@1@@Z 00424af0 f i Housing.obj
 0001:00023b00       ?max_size@?$vector@KV?$allocator@K@std@@@std@@QBEIXZ 00424b00 f i Housing.obj
 0001:00023b10       ?allocate@?$allocator@K@std@@QAEPAKI@Z 00424b10 f i Housing.obj
 0001:00023b30       ?erase@?$vector@KV?$allocator@K@std@@@std@@QAE?AViterator@12@V312@@Z 00424b30 f i Housing.obj
 0001:00023b60       ?begin@?$vector@UHOUSINGINFO@@V?$allocator@UHOUSINGINFO@@@std@@@std@@QAE?AViterator@12@XZ 00424b60 f i Housing.obj
 0001:00023b70       ??A?$vector@UHOUSINGINFO@@V?$allocator@UHOUSINGINFO@@@std@@@std@@QAEAAUHOUSINGINFO@@I@Z 00424b70 f i Housing.obj
 0001:00023b80       ?begin@?$_Tree@V?$_Tmap_traits@KPAVCHousing@@U?$less@K@std@@V?$allocator@U?$pair@$$CBKPAVCHousing@@@std@@@3@$0A@@std@@@std@@QAE?AViterator@12@XZ 00424b80 f i Housing.obj
 0001:00023b90       ?end@?$_Tree@V?$_Tmap_traits@KPAVCHousing@@U?$less@K@std@@V?$allocator@U?$pair@$$CBKPAVCHousing@@@std@@@3@$0A@@std@@@std@@QAE?AViterator@12@XZ 00424b90 f i Housing.obj
 0001:00023ba0       ??Citerator@?$_Tree@V?$_Tmap_traits@KPAVCHousing@@U?$less@K@std@@V?$allocator@U?$pair@$$CBKPAVCHousing@@@std@@@3@$0A@@std@@@std@@QBEPAU?$pair@$$CBKPAVCHousing@@@2@XZ 00424ba0 f i Housing.obj
 0001:00023bb0       ?end@?$vector@UHOUSINGINFO@@V?$allocator@UHOUSINGINFO@@@std@@@std@@QAE?AViterator@12@XZ 00424bb0 f i Housing.obj
 0001:00023bc0       ?lower_bound@?$_Tree@V?$_Tmap_traits@KPAVCHousing@@U?$less@K@std@@V?$allocator@U?$pair@$$CBKPAVCHousing@@@std@@@3@$0A@@std@@@std@@QAE?AViterator@12@ABK@Z 00424bc0 f i Housing.obj
 0001:00023c00       ?_Erase@?$_Tree@V?$_Tmap_traits@KPAVCHousing@@U?$less@K@std@@V?$allocator@U?$pair@$$CBKPAVCHousing@@@std@@@3@$0A@@std@@@std@@IAEXPAU_Node@?$_Tree_nod@V?$_Tmap_traits@KPAVCHousing@@U?$less@K@std@@V?$allocator@U?$pair@$$CBKPAVCHousing@@@std@@@3@$0A@@std@@@2@@Z 00424c00 f i Housing.obj
 0001:00023c40       ?_Buynode@?$_Tree@V?$_Tmap_traits@KPAVCHousing@@U?$less@K@std@@V?$allocator@U?$pair@$$CBKPAVCHousing@@@std@@@3@$0A@@std@@@std@@IAEPAU_Node@?$_Tree_nod@V?$_Tmap_traits@KPAVCHousing@@U?$less@K@std@@V?$allocator@U?$pair@$$CBKPAVCHousing@@@std@@@3@$0A@@std@@@2@PAU342@00ABU?$pair@$$CBKPAVCHousing@@@2@D@Z 00424c40 f i Housing.obj
 0001:00023c80       ??Econst_iterator@?$_Tree@V?$_Tmap_traits@KPAVCHousing@@U?$less@K@std@@V?$allocator@U?$pair@$$CBKPAVCHousing@@@std@@@3@$0A@@std@@@std@@QAEAAV012@XZ 00424c80 f i Housing.obj
 0001:00023c90       ??Fconst_iterator@?$_Tree@V?$_Tmap_traits@KPAVCHousing@@U?$less@K@std@@V?$allocator@U?$pair@$$CBKPAVCHousing@@@std@@@3@$0A@@std@@@std@@QAEAAV012@XZ 00424c90 f i Housing.obj
 0001:00023ca0       ?_Buynode@?$_Tree@V?$_Tmap_traits@KPAVCHousing@@U?$less@K@std@@V?$allocator@U?$pair@$$CBKPAVCHousing@@@std@@@3@$0A@@std@@@std@@IAEPAU_Node@?$_Tree_nod@V?$_Tmap_traits@KPAVCHousing@@U?$less@K@std@@V?$allocator@U?$pair@$$CBKPAVCHousing@@@std@@@3@$0A@@std@@@2@XZ 00424ca0 f i Housing.obj
 0001:00023ce0       ??0?$_Tree_ptr@V?$_Tmap_traits@KPAVCHousing@@U?$less@K@std@@V?$allocator@U?$pair@$$CBKPAVCHousing@@@std@@@3@$0A@@std@@@std@@IAE@ABU?$less@K@1@V?$allocator@U?$pair@$$CBKPAVCHousing@@@std@@@1@@Z 00424ce0 f i Housing.obj
 0001:00023cf0       ??$_Uninitialized_fill_n@PAKIKV?$allocator@K@std@@@std@@YAXPAKIABKAAV?$allocator@K@0@@Z 00424cf0 f i Housing.obj
 0001:00023d10       ??$_Ucopy@PAK@?$vector@KV?$allocator@K@std@@@std@@IAEPAKPAK00@Z 00424d10 f i Housing.obj
 0001:00023d40       ??$_Destroy_range@UHOUSINGINFO@@V?$allocator@UHOUSINGINFO@@@std@@@std@@YAXPAUHOUSINGINFO@@0AAV?$allocator@UHOUSINGINFO@@@0@U_Nonscalar_ptr_iterator_tag@0@@Z 00424d40 f i Housing.obj
 0001:00023d50       ??$_Uninit_fill_n@PAUHOUSINGINFO@@IU1@V?$allocator@UHOUSINGINFO@@@std@@@std@@YAXPAUHOUSINGINFO@@IABU1@AAV?$allocator@UHOUSINGINFO@@@0@U_Nonscalar_ptr_iterator_tag@0@@Z 00424d50 f i Housing.obj
 0001:00023d80       ??$_Uninitialized_copy@PAUHOUSINGINFO@@PAU1@V?$allocator@UHOUSINGINFO@@@std@@@std@@YAPAUHOUSINGINFO@@PAU1@00AAV?$allocator@UHOUSINGINFO@@@0@@Z 00424d80 f i Housing.obj
 0001:00023db0       ?GetIndexFromList@CHousing@@AAEHK@Z 00424db0 f   Housing.obj
 0001:00023e10       ?SetupFurniture@CHousing@@QAEXUHOUSINGINFO@@@Z 00424e10 f   Housing.obj
 0001:00023e60       ?clear@?$vector@KV?$allocator@K@std@@@std@@QAEXXZ 00424e60 f i Housing.obj
 0001:00023e90       ?clear@?$_Tree@V?$_Tmap_traits@KPAVCHousing@@U?$less@K@std@@V?$allocator@U?$pair@$$CBKPAVCHousing@@@std@@@3@$0A@@std@@@std@@QAEXXZ 00424e90 f i Housing.obj
 0001:00023ec0       ?find@?$_Tree@V?$_Tmap_traits@KPAVCHousing@@U?$less@K@std@@V?$allocator@U?$pair@$$CBKPAVCHousing@@@std@@@3@$0A@@std@@@std@@QAE?AViterator@12@ABK@Z 00424ec0 f i Housing.obj
 0001:00023f30       ?_Ufill@?$vector@KV?$allocator@K@std@@@std@@IAEPAKPAKIABK@Z 00424f30 f i Housing.obj
 0001:00023f60       ??Eiterator@?$_Tree@V?$_Tmap_traits@KPAVCHousing@@U?$less@K@std@@V?$allocator@U?$pair@$$CBKPAVCHousing@@@std@@@3@$0A@@std@@@std@@QAEAAV012@XZ 00424f60 f i Housing.obj
 0001:00023f70       ??Fiterator@?$_Tree@V?$_Tmap_traits@KPAVCHousing@@U?$less@K@std@@V?$allocator@U?$pair@$$CBKPAVCHousing@@@std@@@3@$0A@@std@@@std@@QAEAAV012@XZ 00424f70 f i Housing.obj
 0001:00023f80       ?_Init@?$_Tree@V?$_Tmap_traits@KPAVCHousing@@U?$less@K@std@@V?$allocator@U?$pair@$$CBKPAVCHousing@@@std@@@3@$0A@@std@@@std@@IAEXXZ 00424f80 f i Housing.obj
 0001:00023fb0       ??0?$_Tree_val@V?$_Tmap_traits@KPAVCHousing@@U?$less@K@std@@V?$allocator@U?$pair@$$CBKPAVCHousing@@@std@@@3@$0A@@std@@@std@@IAE@ABU?$less@K@1@V?$allocator@U?$pair@$$CBKPAVCHousing@@@std@@@1@@Z 00424fb0 f i Housing.obj
 0001:00023fc0       ??$_Destroy_range@UHOUSINGINFO@@V?$allocator@UHOUSINGINFO@@@std@@@std@@YAXPAUHOUSINGINFO@@0AAV?$allocator@UHOUSINGINFO@@@0@@Z 00424fc0 f i Housing.obj
 0001:00023fd0       ??$_Uninitialized_fill_n@PAUHOUSINGINFO@@IU1@V?$allocator@UHOUSINGINFO@@@std@@@std@@YAXPAUHOUSINGINFO@@IABU1@AAV?$allocator@UHOUSINGINFO@@@0@@Z 00424fd0 f i Housing.obj
 0001:00024000       ??$_Ucopy@PAUHOUSINGINFO@@@?$vector@UHOUSINGINFO@@V?$allocator@UHOUSINGINFO@@@std@@@std@@IAEPAUHOUSINGINFO@@PAU2@00@Z 00425000 f i Housing.obj
 0001:00024020       ?GetHousing@CHousingMng@@QAEPAVCHousing@@K@Z 00425020 f   Housing.obj
 0001:00024050       ??Eiterator@?$_Tree@V?$_Tmap_traits@KPAVCHousing@@U?$less@K@std@@V?$allocator@U?$pair@$$CBKPAVCHousing@@@std@@@3@$0A@@std@@@std@@QAE?AV012@H@Z 00425050 f i Housing.obj
 0001:00024070       ?_Destroy@?$vector@UHOUSINGINFO@@V?$allocator@UHOUSINGINFO@@@std@@@std@@IAEXPAUHOUSINGINFO@@0@Z 00425070 f i Housing.obj
 0001:00024080       ?_Tidy@?$vector@UHOUSINGINFO@@V?$allocator@UHOUSINGINFO@@@std@@@std@@IAEXXZ 00425080 f i Housing.obj
 0001:000240b0       ?_Ufill@?$vector@UHOUSINGINFO@@V?$allocator@UHOUSINGINFO@@@std@@@std@@IAEPAUHOUSINGINFO@@PAU3@IABU3@@Z 004250b0 f i Housing.obj
 0001:000240e0       ??0?$_Tree@V?$_Tmap_traits@KPAVCHousing@@U?$less@K@std@@V?$allocator@U?$pair@$$CBKPAVCHousing@@@std@@@3@$0A@@std@@@std@@QAE@ABU?$less@K@1@ABV?$allocator@U?$pair@$$CBKPAVCHousing@@@std@@@1@@Z 004250e0 f i Housing.obj
 0001:00024110       ?SetupFurniture@CHousingMng@@QAEXKUHOUSINGINFO@@@Z 00425110 f   Housing.obj
 0001:00024160       ??1?$vector@UHOUSINGINFO@@V?$allocator@UHOUSINGINFO@@@std@@@std@@QAE@XZ 00425160 f i Housing.obj
 0001:00024190       ?erase@?$vector@UHOUSINGINFO@@V?$allocator@UHOUSINGINFO@@@std@@@std@@QAE?AViterator@12@V312@@Z 00425190 f i Housing.obj
 0001:000241e0       ?clear@?$vector@UHOUSINGINFO@@V?$allocator@UHOUSINGINFO@@@std@@@std@@QAEXXZ 004251e0 f i Housing.obj
 0001:00024210       ??1CHousing@@QAE@XZ        00425210 f   Housing.obj
 0001:00024280       ?RemoveFurnitureList@CHousing@@AAEHK@Z 00425280 f   Housing.obj
 0001:000242c0       ??_GCHousing@@QAEPAXI@Z    004252c0 f i Housing.obj
 0001:000242e0       ?_Xlen@?$vector@KV?$allocator@K@std@@@std@@IBEXXZ 004252e0 f i Housing.obj
 0001:00024350       ?Clear@CHousingMng@@QAEXXZ 00425350 f   Housing.obj
 0001:000243e0       ?_Insert@?$_Tree@V?$_Tmap_traits@KPAVCHousing@@U?$less@K@std@@V?$allocator@U?$pair@$$CBKPAVCHousing@@@std@@@3@$0A@@std@@@std@@IAE?AViterator@12@_NPAU_Node@?$_Tree_nod@V?$_Tmap_traits@KPAVCHousing@@U?$less@K@std@@V?$allocator@U?$pair@$$CBKPAVCHousing@@@std@@@3@$0A@@std@@@2@ABU?$pair@$$CBKPAVCHousing@@@2@@Z 004253e0 f i Housing.obj
 0001:00024590       ?_Insert_n@?$vector@KV?$allocator@K@std@@@std@@IAEXViterator@12@IABK@Z 00425590 f i Housing.obj
 0001:00024770       ?_Xlen@?$vector@UHOUSINGINFO@@V?$allocator@UHOUSINGINFO@@@std@@@std@@IBEXXZ 00425770 f i Housing.obj
 0001:000247e0       ?erase@?$_Tree@V?$_Tmap_traits@KPAVCHousing@@U?$less@K@std@@V?$allocator@U?$pair@$$CBKPAVCHousing@@@std@@@3@$0A@@std@@@std@@QAE?AViterator@12@V312@@Z 004257e0 f i Housing.obj
 0001:00024aa0       ?_Buy@?$vector@KV?$allocator@K@std@@@std@@IAE_NI@Z 00425aa0 f i Housing.obj
 0001:00024af0       ?insert@?$_Tree@V?$_Tmap_traits@KPAVCHousing@@U?$less@K@std@@V?$allocator@U?$pair@$$CBKPAVCHousing@@@std@@@3@$0A@@std@@@std@@QAE?AU?$pair@Viterator@?$_Tree@V?$_Tmap_traits@KPAVCHousing@@U?$less@K@std@@V?$allocator@U?$pair@$$CBKPAVCHousing@@@std@@@3@$0A@@std@@@std@@_N@2@ABU?$pair@$$CBKPAVCHousing@@@2@@Z 00425af0 f i Housing.obj
 0001:00024bb0       ?insert@?$vector@KV?$allocator@K@std@@@std@@QAE?AViterator@12@V312@ABK@Z 00425bb0 f i Housing.obj
 0001:00024c00       ?_Buy@?$vector@UHOUSINGINFO@@V?$allocator@UHOUSINGINFO@@@std@@@std@@IAE_NI@Z 00425c00 f i Housing.obj
 0001:00024c50       ?_Insert_n@?$vector@UHOUSINGINFO@@V?$allocator@UHOUSINGINFO@@@std@@@std@@IAEXViterator@12@IABUHOUSINGINFO@@@Z 00425c50 f i Housing.obj
 0001:00024f20       ?erase@?$_Tree@V?$_Tmap_traits@KPAVCHousing@@U?$less@K@std@@V?$allocator@U?$pair@$$CBKPAVCHousing@@@std@@@3@$0A@@std@@@std@@QAE?AViterator@12@V312@0@Z 00425f20 f i Housing.obj
 0001:00024fe0       ??0?$vector@KV?$allocator@K@std@@@std@@QAE@XZ 00425fe0 f i Housing.obj
 0001:00024ff0       ?push_back@?$vector@KV?$allocator@K@std@@@std@@QAEXABK@Z 00425ff0 f i Housing.obj
 0001:00025040       ??0?$vector@UHOUSINGINFO@@V?$allocator@UHOUSINGINFO@@@std@@@std@@QAE@XZ 00426040 f i Housing.obj
 0001:00025050       ?insert@?$vector@UHOUSINGINFO@@V?$allocator@UHOUSINGINFO@@@std@@@std@@QAE?AViterator@12@V312@ABUHOUSINGINFO@@@Z 00426050 f i Housing.obj
 0001:000250c0       ?_Tidy@?$_Tree@V?$_Tmap_traits@KPAVCHousing@@U?$less@K@std@@V?$allocator@U?$pair@$$CBKPAVCHousing@@@std@@@3@$0A@@std@@@std@@IAEXXZ 004260c0 f i Housing.obj
 0001:000250f0       ??0CHousing@@QAE@K@Z       004260f0 f   Housing.obj
 0001:00025140       ?SetVisitAllow@CHousing@@QAEXKH@Z 00426140 f   Housing.obj
 0001:000251b0       ?SetVisitAllow@CHousingMng@@QAEXKKH@Z 004261b0 f   Housing.obj
 0001:00025200       ?CreateHousing@CHousingMng@@QAEPAVCHousing@@K@Z 00426200 f   Housing.obj
 0001:000252b0       ?push_back@?$vector@UHOUSINGINFO@@V?$allocator@UHOUSINGINFO@@@std@@@std@@QAEXABUHOUSINGINFO@@@Z 004262b0 f i Housing.obj
 0001:00025340       ??1?$_Tree@V?$_Tmap_traits@KPAVCHousing@@U?$less@K@std@@V?$allocator@U?$pair@$$CBKPAVCHousing@@@std@@@3@$0A@@std@@@std@@QAE@XZ 00426340 f i Housing.obj
 0001:00025370       ?Serialize@CHousing@@QAEXAAVCAr@@@Z 00426370 f   Housing.obj
 0001:00025590       ?SetFurnitureList@CHousing@@QAEXAAUHOUSINGINFO@@H@Z 00426590 f   Housing.obj
 0001:000255e0       ?ProcessExpiredFurniture@CHousing@@QAEXJH@Z 004265e0 f   Housing.obj
 0001:000256f0       ??1?$map@KPAVCHousing@@U?$less@K@std@@V?$allocator@U?$pair@$$CBKPAVCHousing@@@std@@@3@@std@@QAE@XZ 004266f0 f i Housing.obj
 0001:00025720       ??1CHousingMng@@QAE@XZ     00426720 f   Housing.obj
 0001:00025790       ?SetFurnitureList@CHousingMng@@QAEXKAAUHOUSINGINFO@@H@Z 00426790 f   Housing.obj
 0001:00025810       ?ProcessRemoveExpiredFurniture@CHousingMng@@QAEXXZ 00426810 f   Housing.obj
 0001:00025860       ??0?$map@KPAVCHousing@@U?$less@K@std@@V?$allocator@U?$pair@$$CBKPAVCHousing@@@std@@@3@@std@@QAE@XZ 00426860 f i Housing.obj
 0001:00025890       ??0CHousingMng@@QAE@XZ     00426890 f   Housing.obj
 0001:000258c0       ?GetInstance@CHousingMng@@SAPAV1@XZ 004268c0 f   Housing.obj
 0001:00025950       ??0CHousingDBCtrl@@QAE@XZ  00426950 f   HousingDBCtrl.obj
 0001:00025970       ??1CHousingDBCtrl@@UAE@XZ  00426970 f   HousingDBCtrl.obj
 0001:00025980       ?SetupFurniture@CHousingDBCtrl@@AAEXKUHOUSINGINFO@@K@Z 00426980 f   HousingDBCtrl.obj
 0001:00025a30       ?DeleteFurnitureList@CHousingDBCtrl@@QAEXKUHOUSINGINFO@@@Z 00426a30 f   HousingDBCtrl.obj
 0001:00025a90       ?SetVisitAllow@CHousingDBCtrl@@AAEXKKHK@Z 00426a90 f   HousingDBCtrl.obj
 0001:00025b10       ?OnTimer@CHousingDBCtrl@@UAEXXZ 00426b10 f   HousingDBCtrl.obj
 0001:00025b20       ??0CHousingDBMng@@QAE@XZ   00426b20 f   HousingDBCtrl.obj
 0001:00025b80       ??1CHousingDBMng@@QAE@XZ   00426b80 f   HousingDBCtrl.obj
 0001:00025bd0       ?DeleteFurnitureList@CHousingDBMng@@QAEXKUHOUSINGINFO@@@Z 00426bd0 f   HousingDBCtrl.obj
 0001:00025c00       ??0CTimeSpan@ATL@@QAE@JHHH@Z 00426c00 f i HousingDBCtrl.obj
 0001:00025c60       ?GetTimeSpan@CTimeSpan@ATL@@QBE_JXZ 00426c60 f i HousingDBCtrl.obj
 0001:00025c70       ??HCTime@ATL@@QBE?AV01@VCTimeSpan@1@@Z 00426c70 f i HousingDBCtrl.obj
 0001:00025c90       ?GetTime@CTime@ATL@@QBE_JXZ 00426c90 f i HousingDBCtrl.obj
 0001:00025ca0       ?GetAt@?$CFixedArray@UItemProp@@@@QAEPAUItemProp@@K@Z 00426ca0 f i HousingDBCtrl.obj
 0001:00025cc0       ??_GCHousingDBCtrl@@UAEPAXI@Z 00426cc0 f i HousingDBCtrl.obj
 0001:00025cc0       ??_ECHousingDBCtrl@@UAEPAXI@Z 00426cc0 f i HousingDBCtrl.obj
 0001:00025ce0       ?GetInstance@CHousingDBMng@@SAPAV1@XZ 00426ce0 f   HousingDBCtrl.obj
 0001:00025d40       ?GetItemProp@CProject@@QAEPAUItemProp@@H@Z 00426d40 f i HousingDBCtrl.obj
 0001:00025d60       ??0HOUSINGINFO@@QAE@K@Z    00426d60 f i HousingDBCtrl.obj
 0001:00025dd0       ?LoadHousingInfo@CHousingDBCtrl@@AAEXKK@Z 00426dd0 f   HousingDBCtrl.obj
 0001:00025f70       ?InsertFurnitureList@CHousingDBCtrl@@AAEXKKK@Z 00426f70 f   HousingDBCtrl.obj
 0001:00026010       ?Handler@CHousingDBCtrl@@UAEXPAUtagDB_OVERLAPPED_PLUS@@K@Z 00427010 f   HousingDBCtrl.obj
 0001:00026220       ?GetId@CLordSkillComponent@@QAEHXZ 00427220 f i lordskillexecutable.obj
 0001:00026230       ?GetCooltime@CLordSkillComponent@@QAEHXZ 00427230 f i lordskillexecutable.obj
 0001:00026240       ?GetTick@CLordSkillComponent@@QAEHXZ 00427240 f i lordskillexecutable.obj
 0001:00026250       ?SetTick@CLordSkillComponent@@QAEXH@Z 00427250 f i lordskillexecutable.obj
 0001:00026260       ??0CLordSkillComponentExecutable@@QAE@XZ 00427260 f i lordskillexecutable.obj
 0001:00026280       ??1CLordSkillComponentExecutable@@UAE@XZ 00427280 f i lordskillexecutable.obj
 0001:00026290       ?Use@CLordSkillComponentExecutable@@IAEXXZ 00427290 f i lordskillexecutable.obj
 0001:000262a0       ?Execute@CLordSkillComponentExecutable@@UAEXKKPAX@Z 004272a0 f i lordskillexecutable.obj
 0001:000262b0       ??_ECLordSkillComponentExecutable@@UAEPAXI@Z 004272b0 f i lordskillexecutable.obj
 0001:000262b0       ??_GCLordSkillComponentExecutable@@UAEPAXI@Z 004272b0 f i lordskillexecutable.obj
 0001:000262d0       ??0CLordSkillComponentODBC@@QAE@XZ 004272d0 f   lordskillexecutable.obj
 0001:000262f0       ??1CLordSkillComponentODBC@@UAE@XZ 004272f0 f   lordskillexecutable.obj
 0001:00026300       ?Execute@CLordSkillComponentODBC@@UAEXKKPAX@Z 00427300 f   lordskillexecutable.obj
 0001:00026360       ??_GCLordSkillComponentODBC@@UAEPAXI@Z 00427360 f i lordskillexecutable.obj
 0001:00026360       ??_ECLordSkillComponentODBC@@UAEPAXI@Z 00427360 f i lordskillexecutable.obj
 0001:00026380       ?Clear@CPocketController@@QAEXXZ 00427380 f   pocket.obj
 0001:000263b0       ?GetOffset@CAr@@QAEKXZ     004273b0 f i pocket.obj
 0001:000263c0       ?SetExpired@CPocket@@QAEXH@Z 004273c0 f i pocket.obj
 0001:000263d0       ?IsExpired@CPocket@@QAEHXZ 004273d0 f i pocket.obj
 0001:000263e0       ?SetExpirationDate@CPocket@@QAEXJ@Z 004273e0 f i pocket.obj
 0001:000263f0       ?GetExpirationDate@CPocket@@QAEJXZ 004273f0 f i pocket.obj
 0001:00026400       ?IsAvailable@CPocketController@@QAEHHH@Z 00427400 f i pocket.obj
 0001:00026430       ??0CPocket@@QAE@XZ         00427430 f   pocket.obj
 0001:00026450       ??1CPocket@@UAE@XZ         00427450 f   pocket.obj
 0001:000264a0       ??1CPocketController@@UAE@XZ 004274a0 f   pocket.obj
 0001:000264b0       ?Avail@CPocketController@@QAEXHJ@Z 004274b0 f   pocket.obj
 0001:00026550       ?GetPocket@CPocketController@@QAEPAVCPocket@@H@Z 00427550 f   pocket.obj
 0001:00026560       ?Serialize@?$CItemContainer@VCItemElem@@@@QAEXAAVCAr@@@Z 00427560 f i pocket.obj
 0001:00026730       ??_GCPocket@@UAEPAXI@Z     00427730 f i pocket.obj
 0001:00026730       ??_ECPocket@@UAEPAXI@Z     00427730 f i pocket.obj
 0001:00026750       ?Copy@CPocket@@QAEXAAV1@@Z 00427750 f   pocket.obj
 0001:00026770       ?Serialize@CPocket@@QAEXAAVCAr@@@Z 00427770 f   pocket.obj
 0001:00026860       ??0CPocketController@@QAE@XZ 00427860 f   pocket.obj
 0001:00026890       ??_GCPocketController@@UAEPAXI@Z 00427890 f i pocket.obj
 0001:00026890       ??_ECPocketController@@UAEPAXI@Z 00427890 f i pocket.obj
 0001:000268c0       ?Copy@CPocketController@@QAEXAAV1@@Z 004278c0 f   pocket.obj
 0001:00026930       ?Serialize@CPocketController@@QAEXAAVCAr@@@Z 00427930 f   pocket.obj
 0001:000269e0       __tcslwr                   004279e0 f i Project.obj
 0001:000269f0       ??_H@YGXPAXIHP6EPAX0@Z@Z   004279f0 f i Project.obj
 0001:00026a20       ?SortJobSkill@@YAHPBX0@Z   00427a20 f   Project.obj
 0001:00026a40       ?SetConvMode@CProject@@QAEXK@Z 00427a40 f   Project.obj
 0001:00026a60       ?ResetConvMode@CProject@@QAEXK@Z 00427a60 f   Project.obj
 0001:00026a80       ?IsConvMode@CProject@@QAEHK@Z 00427a80 f   Project.obj
 0001:00026a90       ?GetSize@?$CFixedArray@UtagColorText@@@@QAEHXZ 00427a90 f i Project.obj
 0001:00026aa0       ??8const_iterator@?$_Tree@V?$_Tmap_traits@V?$basic_string@DU?$char_traits@D@std@@V?$allocator@D@2@@std@@PAXU?$less@V?$basic_string@DU?$char_traits@D@std@@V?$allocator@D@2@@std@@@2@V?$allocator@U?$pair@$$CBV?$basic_string@DU?$char_traits@D@std@@V?$allocator@D@2@@std@@PAX@std@@@2@$0A@@std@@@std@@QBE_NABV012@@Z 00427aa0 f i Project.obj
 0001:00026ab0       ??9const_iterator@?$_Tree@V?$_Tmap_traits@V?$basic_string@DU?$char_traits@D@std@@V?$allocator@D@2@@std@@PAXU?$less@V?$basic_string@DU?$char_traits@D@std@@V?$allocator@D@2@@std@@@2@V?$allocator@U?$pair@$$CBV?$basic_string@DU?$char_traits@D@std@@V?$allocator@D@2@@std@@PAX@std@@@2@$0A@@std@@@std@@QBE_NABV012@@Z 00427ab0 f i Project.obj
 0001:00026ad0       ??0?$allocator@U?$pair@$$CBV?$basic_string@DU?$char_traits@D@std@@V?$allocator@D@2@@std@@K@std@@@std@@QAE@XZ 00427ad0 f i Project.obj
 0001:00026ae0       ??0?$allocator@UtagBeginItem@@@std@@QAE@XZ 00427ae0 f i Project.obj
 0001:00026af0       ??0?$allocator@U?$pair@$$CBV?$basic_string@DU?$char_traits@D@std@@V?$allocator@D@2@@std@@PAX@std@@@std@@QAE@XZ 00427af0 f i Project.obj
 0001:00026b00       ?_Mynode@const_iterator@?$_Tree@V?$_Tmap_traits@V?$basic_string@DU?$char_traits@D@std@@V?$allocator@D@2@@std@@PAXU?$less@V?$basic_string@DU?$char_traits@D@std@@V?$allocator@D@2@@std@@@2@V?$allocator@U?$pair@$$CBV?$basic_string@DU?$char_traits@D@std@@V?$allocator@D@2@@std@@PAX@std@@@2@$0A@@std@@@std@@QBEPAU_Node@?$_Tree_nod@V?$_Tmap_traits@V?$basic_string@DU?$char_traits@D@std@@V?$allocator@D@2@@std@@PAXU?$less@V?$basic_string@DU?$char_traits@D@std@@V?$allocator@D@2@@std@@@2@V?$allocator@U?$pair@$$CBV?$basic_string@DU?$char_traits@D@std@@V?$allocator@D@2@@std@@PAX@std@@@2@$0A@@std@@@3@XZ 00427b00 f i Project.obj
 0001:00026b10       ??0?$allocator@U?$pair@$$CBV?$basic_string@DU?$char_traits@D@std@@V?$allocator@D@2@@std@@K@std@@@std@@QAE@ABV01@@Z 00427b10 f i Project.obj
 0001:00026b20       ?deallocate@?$allocator@U_Node@?$_Tree_nod@V?$_Tmap_traits@V?$basic_string@DU?$char_traits@D@std@@V?$allocator@D@2@@std@@KU?$less@V?$basic_string@DU?$char_traits@D@std@@V?$allocator@D@2@@std@@@2@V?$allocator@U?$pair@$$CBV?$basic_string@DU?$char_traits@D@std@@V?$allocator@D@2@@std@@K@std@@@2@$0A@@std@@@std@@@std@@QAEXPAU_Node@?$_Tree_nod@V?$_Tmap_traits@V?$basic_string@DU?$char_traits@D@std@@V?$allocator@D@2@@std@@KU?$less@V?$basic_string@DU?$char_traits@D@std@@V?$allocator@D@2@@std@@@2@V?$allocator@U?$pair@$$CBV?$basic_string@DU?$char_traits@D@std@@V?$allocator@D@2@@std@@K@std@@@2@$0A@@std@@@2@I@Z 00427b20 f i Project.obj
 0001:00026b30       ??0?$allocator@UtagBeginItem@@@std@@QAE@ABV01@@Z 00427b30 f i Project.obj
 0001:00026b40       ?deallocate@?$allocator@UtagBeginItem@@@std@@QAEXPAUtagBeginItem@@I@Z 00427b40 f i Project.obj
 0001:00026b50       ?_Isnil@?$_Tree@V?$_Tmap_traits@V?$basic_string@DU?$char_traits@D@std@@V?$allocator@D@2@@std@@PAXU?$less@V?$basic_string@DU?$char_traits@D@std@@V?$allocator@D@2@@std@@@2@V?$allocator@U?$pair@$$CBV?$basic_string@DU?$char_traits@D@std@@V?$allocator@D@2@@std@@PAX@std@@@2@$0A@@std@@@std@@KAAADPAU_Node@?$_Tree_nod@V?$_Tmap_traits@V?$basic_string@DU?$char_traits@D@std@@V?$allocator@D@2@@std@@PAXU?$less@V?$basic_string@DU?$char_traits@D@std@@V?$allocator@D@2@@std@@@2@V?$allocator@U?$pair@$$CBV?$basic_string@DU?$char_traits@D@std@@V?$allocator@D@2@@std@@PAX@std@@@2@$0A@@std@@@2@@Z 00427b50 f i Project.obj
 0001:00026b60       ?_Left@?$_Tree@V?$_Tmap_traits@V?$basic_string@DU?$char_traits@D@std@@V?$allocator@D@2@@std@@PAXU?$less@V?$basic_string@DU?$char_traits@D@std@@V?$allocator@D@2@@std@@@2@V?$allocator@U?$pair@$$CBV?$basic_string@DU?$char_traits@D@std@@V?$allocator@D@2@@std@@PAX@std@@@2@$0A@@std@@@std@@KAAAPAU_Node@?$_Tree_nod@V?$_Tmap_traits@V?$basic_string@DU?$char_traits@D@std@@V?$allocator@D@2@@std@@PAXU?$less@V?$basic_string@DU?$char_traits@D@std@@V?$allocator@D@2@@std@@@2@V?$allocator@U?$pair@$$CBV?$basic_string@DU?$char_traits@D@std@@V?$allocator@D@2@@std@@PAX@std@@@2@$0A@@std@@@2@PAU342@@Z 00427b60 f i Project.obj
 0001:00026b70       ?_Parent@?$_Tree@V?$_Tmap_traits@V?$basic_string@DU?$char_traits@D@std@@V?$allocator@D@2@@std@@PAXU?$less@V?$basic_string@DU?$char_traits@D@std@@V?$allocator@D@2@@std@@@2@V?$allocator@U?$pair@$$CBV?$basic_string@DU?$char_traits@D@std@@V?$allocator@D@2@@std@@PAX@std@@@2@$0A@@std@@@std@@KAAAPAU_Node@?$_Tree_nod@V?$_Tmap_traits@V?$basic_string@DU?$char_traits@D@std@@V?$allocator@D@2@@std@@PAXU?$less@V?$basic_string@DU?$char_traits@D@std@@V?$allocator@D@2@@std@@@2@V?$allocator@U?$pair@$$CBV?$basic_string@DU?$char_traits@D@std@@V?$allocator@D@2@@std@@PAX@std@@@2@$0A@@std@@@2@PAU342@@Z 00427b70 f i Project.obj
 0001:00026b80       ?_Right@?$_Tree@V?$_Tmap_traits@V?$basic_string@DU?$char_traits@D@std@@V?$allocator@D@2@@std@@PAXU?$less@V?$basic_string@DU?$char_traits@D@std@@V?$allocator@D@2@@std@@@2@V?$allocator@U?$pair@$$CBV?$basic_string@DU?$char_traits@D@std@@V?$allocator@D@2@@std@@PAX@std@@@2@$0A@@std@@@std@@KAAAPAU_Node@?$_Tree_nod@V?$_Tmap_traits@V?$basic_string@DU?$char_traits@D@std@@V?$allocator@D@2@@std@@PAXU?$less@V?$basic_string@DU?$char_traits@D@std@@V?$allocator@D@2@@std@@@2@V?$allocator@U?$pair@$$CBV?$basic_string@DU?$char_traits@D@std@@V?$allocator@D@2@@std@@PAX@std@@@2@$0A@@std@@@2@PAU342@@Z 00427b80 f i Project.obj
 0001:00026b90       ?_Myval@?$_Tree@V?$_Tmap_traits@V?$basic_string@DU?$char_traits@D@std@@V?$allocator@D@2@@std@@PAXU?$less@V?$basic_string@DU?$char_traits@D@std@@V?$allocator@D@2@@std@@@2@V?$allocator@U?$pair@$$CBV?$basic_string@DU?$char_traits@D@std@@V?$allocator@D@2@@std@@PAX@std@@@2@$0A@@std@@@std@@KAAAU?$pair@$$CBV?$basic_string@DU?$char_traits@D@std@@V?$allocator@D@2@@std@@PAX@2@PAU_Node@?$_Tree_nod@V?$_Tmap_traits@V?$basic_string@DU?$char_traits@D@std@@V?$allocator@D@2@@std@@PAXU?$less@V?$basic_string@DU?$char_traits@D@std@@V?$allocator@D@2@@std@@@2@V?$allocator@U?$pair@$$CBV?$basic_string@DU?$char_traits@D@std@@V?$allocator@D@2@@std@@PAX@std@@@2@$0A@@std@@@2@@Z 00427b90 f i Project.obj
 0001:00026ba0       ?size@?$_Tree@V?$_Tmap_traits@V?$basic_string@DU?$char_traits@D@std@@V?$allocator@D@2@@std@@PAXU?$less@V?$basic_string@DU?$char_traits@D@std@@V?$allocator@D@2@@std@@@2@V?$allocator@U?$pair@$$CBV?$basic_string@DU?$char_traits@D@std@@V?$allocator@D@2@@std@@PAX@std@@@2@$0A@@std@@@std@@QBEIXZ 00427ba0 f i Project.obj
 0001:00026bb0       ?_Rmost@?$_Tree@V?$_Tmap_traits@V?$basic_string@DU?$char_traits@D@std@@V?$allocator@D@2@@std@@PAXU?$less@V?$basic_string@DU?$char_traits@D@std@@V?$allocator@D@2@@std@@@2@V?$allocator@U?$pair@$$CBV?$basic_string@DU?$char_traits@D@std@@V?$allocator@D@2@@std@@PAX@std@@@2@$0A@@std@@@std@@IAEAAPAU_Node@?$_Tree_nod@V?$_Tmap_traits@V?$basic_string@DU?$char_traits@D@std@@V?$allocator@D@2@@std@@PAXU?$less@V?$basic_string@DU?$char_traits@D@std@@V?$allocator@D@2@@std@@@2@V?$allocator@U?$pair@$$CBV?$basic_string@DU?$char_traits@D@std@@V?$allocator@D@2@@std@@PAX@std@@@2@$0A@@std@@@2@XZ 00427bb0 f i Project.obj
 0001:00026bc0       ?_Kfn@?$_Tmap_traits@V?$basic_string@DU?$char_traits@D@std@@V?$allocator@D@2@@std@@PAXU?$less@V?$basic_string@DU?$char_traits@D@std@@V?$allocator@D@2@@std@@@2@V?$allocator@U?$pair@$$CBV?$basic_string@DU?$char_traits@D@std@@V?$allocator@D@2@@std@@PAX@std@@@2@$0A@@std@@SAABV?$basic_string@DU?$char_traits@D@std@@V?$allocator@D@2@@2@ABU?$pair@$$CBV?$basic_string@DU?$char_traits@D@std@@V?$allocator@D@2@@std@@PAX@2@@Z 00427bc0 f i Project.obj
 0001:00026bd0       ??0?$allocator@U?$pair@$$CBV?$basic_string@DU?$char_traits@D@std@@V?$allocator@D@2@@std@@PAX@std@@@std@@QAE@ABV01@@Z 00427bd0 f i Project.obj
 0001:00026be0       ?deallocate@?$allocator@U_Node@?$_Tree_nod@V?$_Tmap_traits@V?$basic_string@DU?$char_traits@D@std@@V?$allocator@D@2@@std@@PAXU?$less@V?$basic_string@DU?$char_traits@D@std@@V?$allocator@D@2@@std@@@2@V?$allocator@U?$pair@$$CBV?$basic_string@DU?$char_traits@D@std@@V?$allocator@D@2@@std@@PAX@std@@@2@$0A@@std@@@std@@@std@@QAEXPAU_Node@?$_Tree_nod@V?$_Tmap_traits@V?$basic_string@DU?$char_traits@D@std@@V?$allocator@D@2@@std@@PAXU?$less@V?$basic_string@DU?$char_traits@D@std@@V?$allocator@D@2@@std@@@2@V?$allocator@U?$pair@$$CBV?$basic_string@DU?$char_traits@D@std@@V?$allocator@D@2@@std@@PAX@std@@@2@$0A@@std@@@2@I@Z 00427be0 f i Project.obj
 0001:00026bf0       ?_Isnil@?$_Tree@V?$_Tset_traits@DU?$less@D@std@@V?$allocator@D@2@$0A@@std@@@std@@KAAADPAU_Node@?$_Tree_nod@V?$_Tset_traits@DU?$less@D@std@@V?$allocator@D@2@$0A@@std@@@2@@Z 00427bf0 f i Project.obj
 0001:00026c00       ?_Left@?$_Tree@V?$_Tset_traits@DU?$less@D@std@@V?$allocator@D@2@$0A@@std@@@std@@KAAAPAU_Node@?$_Tree_nod@V?$_Tset_traits@DU?$less@D@std@@V?$allocator@D@2@$0A@@std@@@2@PAU342@@Z 00427c00 f i Project.obj
 0001:00026c10       ?_Parent@?$_Tree@V?$_Tset_traits@DU?$less@D@std@@V?$allocator@D@2@$0A@@std@@@std@@KAAAPAU_Node@?$_Tree_nod@V?$_Tset_traits@DU?$less@D@std@@V?$allocator@D@2@$0A@@std@@@2@PAU342@@Z 00427c10 f i Project.obj
 0001:00026c20       ?_Right@?$_Tree@V?$_Tset_traits@DU?$less@D@std@@V?$allocator@D@2@$0A@@std@@@std@@KAAAPAU_Node@?$_Tree_nod@V?$_Tset_traits@DU?$less@D@std@@V?$allocator@D@2@$0A@@std@@@2@PAU342@@Z 00427c20 f i Project.obj
 0001:00026c30       ?deallocate@?$allocator@U_Node@?$_Tree_nod@V?$_Tset_traits@DU?$less@D@std@@V?$allocator@D@2@$0A@@std@@@std@@@std@@QAEXPAU_Node@?$_Tree_nod@V?$_Tset_traits@DU?$less@D@std@@V?$allocator@D@2@$0A@@std@@@2@I@Z 00427c30 f i Project.obj
 0001:00026c40       ??0const_iterator@?$_Tree@V?$_Tmap_traits@V?$basic_string@DU?$char_traits@D@std@@V?$allocator@D@2@@std@@PAXU?$less@V?$basic_string@DU?$char_traits@D@std@@V?$allocator@D@2@@std@@@2@V?$allocator@U?$pair@$$CBV?$basic_string@DU?$char_traits@D@std@@V?$allocator@D@2@@std@@PAX@std@@@2@$0A@@std@@@std@@QAE@PAU_Node@?$_Tree_nod@V?$_Tmap_traits@V?$basic_string@DU?$char_traits@D@std@@V?$allocator@D@2@@std@@PAXU?$less@V?$basic_string@DU?$char_traits@D@std@@V?$allocator@D@2@@std@@@2@V?$allocator@U?$pair@$$CBV?$basic_string@DU?$char_traits@D@std@@V?$allocator@D@2@@std@@PAX@std@@@2@$0A@@std@@@2@@Z 00427c40 f i Project.obj
 0001:00026c50       ??Dconst_iterator@?$_Tree@V?$_Tmap_traits@V?$basic_string@DU?$char_traits@D@std@@V?$allocator@D@2@@std@@PAXU?$less@V?$basic_string@DU?$char_traits@D@std@@V?$allocator@D@2@@std@@@2@V?$allocator@U?$pair@$$CBV?$basic_string@DU?$char_traits@D@std@@V?$allocator@D@2@@std@@PAX@std@@@2@$0A@@std@@@std@@QBEABU?$pair@$$CBV?$basic_string@DU?$char_traits@D@std@@V?$allocator@D@2@@std@@PAX@2@XZ 00427c50 f i Project.obj
 0001:00026c60       ?max_size@?$allocator@UtagBeginItem@@@std@@QBEIXZ 00427c60 f i Project.obj
 0001:00026c70       ?_Color@?$_Tree@V?$_Tmap_traits@V?$basic_string@DU?$char_traits@D@std@@V?$allocator@D@2@@std@@PAXU?$less@V?$basic_string@DU?$char_traits@D@std@@V?$allocator@D@2@@std@@@2@V?$allocator@U?$pair@$$CBV?$basic_string@DU?$char_traits@D@std@@V?$allocator@D@2@@std@@PAX@std@@@2@$0A@@std@@@std@@KAAADPAU_Node@?$_Tree_nod@V?$_Tmap_traits@V?$basic_string@DU?$char_traits@D@std@@V?$allocator@D@2@@std@@PAXU?$less@V?$basic_string@DU?$char_traits@D@std@@V?$allocator@D@2@@std@@@2@V?$allocator@U?$pair@$$CBV?$basic_string@DU?$char_traits@D@std@@V?$allocator@D@2@@std@@PAX@std@@@2@$0A@@std@@@2@@Z 00427c70 f i Project.obj
 0001:00026c80       ?_Min@?$_Tree@V?$_Tmap_traits@V?$basic_string@DU?$char_traits@D@std@@V?$allocator@D@2@@std@@PAXU?$less@V?$basic_string@DU?$char_traits@D@std@@V?$allocator@D@2@@std@@@2@V?$allocator@U?$pair@$$CBV?$basic_string@DU?$char_traits@D@std@@V?$allocator@D@2@@std@@PAX@std@@@2@$0A@@std@@@std@@KAPAU_Node@?$_Tree_nod@V?$_Tmap_traits@V?$basic_string@DU?$char_traits@D@std@@V?$allocator@D@2@@std@@PAXU?$less@V?$basic_string@DU?$char_traits@D@std@@V?$allocator@D@2@@std@@@2@V?$allocator@U?$pair@$$CBV?$basic_string@DU?$char_traits@D@std@@V?$allocator@D@2@@std@@PAX@std@@@2@$0A@@std@@@2@PAU342@@Z 00427c80 f i Project.obj
 0001:00026ca0       ?_Root@?$_Tree@V?$_Tmap_traits@V?$basic_string@DU?$char_traits@D@std@@V?$allocator@D@2@@std@@PAXU?$less@V?$basic_string@DU?$char_traits@D@std@@V?$allocator@D@2@@std@@@2@V?$allocator@U?$pair@$$CBV?$basic_string@DU?$char_traits@D@std@@V?$allocator@D@2@@std@@PAX@std@@@2@$0A@@std@@@std@@IAEAAPAU_Node@?$_Tree_nod@V?$_Tmap_traits@V?$basic_string@DU?$char_traits@D@std@@V?$allocator@D@2@@std@@PAXU?$less@V?$basic_string@DU?$char_traits@D@std@@V?$allocator@D@2@@std@@@2@V?$allocator@U?$pair@$$CBV?$basic_string@DU?$char_traits@D@std@@V?$allocator@D@2@@std@@PAX@std@@@2@$0A@@std@@@2@XZ 00427ca0 f i Project.obj
 0001:00026cb0       ?_Root@?$_Tree@V?$_Tmap_traits@V?$basic_string@DU?$char_traits@D@std@@V?$allocator@D@2@@std@@PAXU?$less@V?$basic_string@DU?$char_traits@D@std@@V?$allocator@D@2@@std@@@2@V?$allocator@U?$pair@$$CBV?$basic_string@DU?$char_traits@D@std@@V?$allocator@D@2@@std@@PAX@std@@@2@$0A@@std@@@std@@IBEAAPAU_Node@?$_Tree_nod@V?$_Tmap_traits@V?$basic_string@DU?$char_traits@D@std@@V?$allocator@D@2@@std@@PAXU?$less@V?$basic_string@DU?$char_traits@D@std@@V?$allocator@D@2@@std@@@2@V?$allocator@U?$pair@$$CBV?$basic_string@DU?$char_traits@D@std@@V?$allocator@D@2@@std@@PAX@std@@@2@$0A@@std@@@2@XZ 00427cb0 f i Project.obj
 0001:00026cc0       ?_Rrotate@?$_Tree@V?$_Tmap_traits@V?$basic_string@DU?$char_traits@D@std@@V?$allocator@D@2@@std@@PAXU?$less@V?$basic_string@DU?$char_traits@D@std@@V?$allocator@D@2@@std@@@2@V?$allocator@U?$pair@$$CBV?$basic_string@DU?$char_traits@D@std@@V?$allocator@D@2@@std@@PAX@std@@@2@$0A@@std@@@std@@IAEXPAU_Node@?$_Tree_nod@V?$_Tmap_traits@V?$basic_string@DU?$char_traits@D@std@@V?$allocator@D@2@@std@@PAXU?$less@V?$basic_string@DU?$char_traits@D@std@@V?$allocator@D@2@@std@@@2@V?$allocator@U?$pair@$$CBV?$basic_string@DU?$char_traits@D@std@@V?$allocator@D@2@@std@@PAX@std@@@2@$0A@@std@@@2@@Z 00427cc0 f i Project.obj
 0001:00026d20       ??0const_iterator@?$_Tree@V?$_Tmap_traits@V?$basic_string@DU?$char_traits@D@std@@V?$allocator@D@2@@std@@PAXU?$less@V?$basic_string@DU?$char_traits@D@std@@V?$allocator@D@2@@std@@@2@V?$allocator@U?$pair@$$CBV?$basic_string@DU?$char_traits@D@std@@V?$allocator@D@2@@std@@PAX@std@@@2@$0A@@std@@@std@@QAE@XZ 00427d20 f i Project.obj
 0001:00026d30       ??0?$pair@Viterator@?$_Tree@V?$_Tmap_traits@V?$basic_string@DU?$char_traits@D@std@@V?$allocator@D@2@@std@@PAXU?$less@V?$basic_string@DU?$char_traits@D@std@@V?$allocator@D@2@@std@@@2@V?$allocator@U?$pair@$$CBV?$basic_string@DU?$char_traits@D@std@@V?$allocator@D@2@@std@@PAX@std@@@2@$0A@@std@@@std@@_N@std@@QAE@ABViterator@?$_Tree@V?$_Tmap_traits@V?$basic_string@DU?$char_traits@D@std@@V?$allocator@D@2@@std@@PAXU?$less@V?$basic_string@DU?$char_traits@D@std@@V?$allocator@D@2@@std@@@2@V?$allocator@U?$pair@$$CBV?$basic_string@DU?$char_traits@D@std@@V?$allocator@D@2@@std@@PAX@std@@@2@$0A@@std@@@1@AB_N@Z 00427d30 f i Project.obj
 0001:00026d50       ??9const_iterator@?$_Tree@V?$_Tset_traits@V?$basic_string@DU?$char_traits@D@std@@V?$allocator@D@2@@std@@U?$less@V?$basic_string@DU?$char_traits@D@std@@V?$allocator@D@2@@std@@@2@V?$allocator@V?$basic_string@DU?$char_traits@D@std@@V?$allocator@D@2@@std@@@2@$0A@@std@@@std@@QBE_NABV012@@Z 00427d50 f i Project.obj
 0001:00026d70       ??8const_iterator@?$_Tree@V?$_Tset_traits@DU?$less@D@std@@V?$allocator@D@2@$0A@@std@@@std@@QBE_NABV012@@Z 00427d70 f i Project.obj
 0001:00026d80       ??9const_iterator@?$_Tree@V?$_Tset_traits@DU?$less@D@std@@V?$allocator@D@2@$0A@@std@@@std@@QBE_NABV012@@Z 00427d80 f i Project.obj
 0001:00026da0       ?_Color@?$_Tree@V?$_Tmap_traits@V?$basic_string@DU?$char_traits@D@std@@V?$allocator@D@2@@std@@KU?$less@V?$basic_string@DU?$char_traits@D@std@@V?$allocator@D@2@@std@@@2@V?$allocator@U?$pair@$$CBV?$basic_string@DU?$char_traits@D@std@@V?$allocator@D@2@@std@@K@std@@@2@$0A@@std@@@std@@KAAADPAU_Node@?$_Tree_nod@V?$_Tmap_traits@V?$basic_string@DU?$char_traits@D@std@@V?$allocator@D@2@@std@@KU?$less@V?$basic_string@DU?$char_traits@D@std@@V?$allocator@D@2@@std@@@2@V?$allocator@U?$pair@$$CBV?$basic_string@DU?$char_traits@D@std@@V?$allocator@D@2@@std@@K@std@@@2@$0A@@std@@@2@@Z 00427da0 f i Project.obj
 0001:00026db0       ?_Max@?$_Tree@V?$_Tmap_traits@V?$basic_string@DU?$char_traits@D@std@@V?$allocator@D@2@@std@@PAXU?$less@V?$basic_string@DU?$char_traits@D@std@@V?$allocator@D@2@@std@@@2@V?$allocator@U?$pair@$$CBV?$basic_string@DU?$char_traits@D@std@@V?$allocator@D@2@@std@@PAX@std@@@2@$0A@@std@@@std@@KAPAU_Node@?$_Tree_nod@V?$_Tmap_traits@V?$basic_string@DU?$char_traits@D@std@@V?$allocator@D@2@@std@@PAXU?$less@V?$basic_string@DU?$char_traits@D@std@@V?$allocator@D@2@@std@@@2@V?$allocator@U?$pair@$$CBV?$basic_string@DU?$char_traits@D@std@@V?$allocator@D@2@@std@@PAX@std@@@2@$0A@@std@@@2@PAU342@@Z 00427db0 f i Project.obj
 0001:00026dd0       ?max_size@?$allocator@U?$pair@$$CBV?$basic_string@DU?$char_traits@D@std@@V?$allocator@D@2@@std@@PAX@std@@@std@@QBEIXZ 00427dd0 f i Project.obj
 0001:00026de0       ?_Min@?$_Tree@V?$_Tset_traits@V?$basic_string@DU?$char_traits@D@std@@V?$allocator@D@2@@std@@U?$less@V?$basic_string@DU?$char_traits@D@std@@V?$allocator@D@2@@std@@@2@V?$allocator@V?$basic_string@DU?$char_traits@D@std@@V?$allocator@D@2@@std@@@2@$0A@@std@@@std@@KAPAU_Node@?$_Tree_nod@V?$_Tset_traits@V?$basic_string@DU?$char_traits@D@std@@V?$allocator@D@2@@std@@U?$less@V?$basic_string@DU?$char_traits@D@std@@V?$allocator@D@2@@std@@@2@V?$allocator@V?$basic_string@DU?$char_traits@D@std@@V?$allocator@D@2@@std@@@2@$0A@@std@@@2@PAU342@@Z 00427de0 f i Project.obj
 0001:00026e00       ?_Color@?$_Tree@V?$_Tset_traits@DU?$less@D@std@@V?$allocator@D@2@$0A@@std@@@std@@KAAADPAU_Node@?$_Tree_nod@V?$_Tset_traits@DU?$less@D@std@@V?$allocator@D@2@$0A@@std@@@2@@Z 00427e00 f i Project.obj
 0001:00026e10       ?_Max@?$_Tree@V?$_Tset_traits@DU?$less@D@std@@V?$allocator@D@2@$0A@@std@@@std@@KAPAU_Node@?$_Tree_nod@V?$_Tset_traits@DU?$less@D@std@@V?$allocator@D@2@$0A@@std@@@2@PAU342@@Z 00427e10 f i Project.obj
 0001:00026e30       ?_Min@?$_Tree@V?$_Tset_traits@DU?$less@D@std@@V?$allocator@D@2@$0A@@std@@@std@@KAPAU_Node@?$_Tree_nod@V?$_Tset_traits@DU?$less@D@std@@V?$allocator@D@2@$0A@@std@@@2@PAU342@@Z 00427e30 f i Project.obj
 0001:00026e50       ?_Dec@const_iterator@?$_Tree@V?$_Tmap_traits@V?$basic_string@DU?$char_traits@D@std@@V?$allocator@D@2@@std@@PAXU?$less@V?$basic_string@DU?$char_traits@D@std@@V?$allocator@D@2@@std@@@2@V?$allocator@U?$pair@$$CBV?$basic_string@DU?$char_traits@D@std@@V?$allocator@D@2@@std@@PAX@std@@@2@$0A@@std@@@std@@QAEXXZ 00427e50 f i Project.obj
 0001:00026eb0       ??0const_iterator@?$_Tree@V?$_Tset_traits@DU?$less@D@std@@V?$allocator@D@2@$0A@@std@@@std@@QAE@PAU_Node@?$_Tree_nod@V?$_Tset_traits@DU?$less@D@std@@V?$allocator@D@2@$0A@@std@@@2@@Z 00427eb0 f i Project.obj
 0001:00026ec0       ?_Mynode@const_iterator@?$_Tree@V?$_Tset_traits@DU?$less@D@std@@V?$allocator@D@2@$0A@@std@@@std@@QBEPAU_Node@?$_Tree_nod@V?$_Tset_traits@DU?$less@D@std@@V?$allocator@D@2@$0A@@std@@@3@XZ 00427ec0 f i Project.obj
 0001:00026ed0       ??0?$_Tmap_traits@V?$basic_string@DU?$char_traits@D@std@@V?$allocator@D@2@@std@@KU?$less@V?$basic_string@DU?$char_traits@D@std@@V?$allocator@D@2@@std@@@2@V?$allocator@U?$pair@$$CBV?$basic_string@DU?$char_traits@D@std@@V?$allocator@D@2@@std@@K@std@@@2@$0A@@std@@QAE@U?$less@V?$basic_string@DU?$char_traits@D@std@@V?$allocator@D@2@@std@@@1@@Z 00427ed0 f i Project.obj
 0001:00026ee0       ??0?$_Tmap_traits@V?$basic_string@DU?$char_traits@D@std@@V?$allocator@D@2@@std@@PAXU?$less@V?$basic_string@DU?$char_traits@D@std@@V?$allocator@D@2@@std@@@2@V?$allocator@U?$pair@$$CBV?$basic_string@DU?$char_traits@D@std@@V?$allocator@D@2@@std@@PAX@std@@@2@$0A@@std@@QAE@U?$less@V?$basic_string@DU?$char_traits@D@std@@V?$allocator@D@2@@std@@@1@@Z 00427ee0 f i Project.obj
 0001:00026ef0       ??0?$_Tset_traits@V?$basic_string@DU?$char_traits@D@std@@V?$allocator@D@2@@std@@U?$less@V?$basic_string@DU?$char_traits@D@std@@V?$allocator@D@2@@std@@@2@V?$allocator@V?$basic_string@DU?$char_traits@D@std@@V?$allocator@D@2@@std@@@2@$0A@@std@@QAE@U?$less@V?$basic_string@DU?$char_traits@D@std@@V?$allocator@D@2@@std@@@1@@Z 00427ef0 f i Project.obj
 0001:00026f00       ??0?$_Tset_traits@DU?$less@D@std@@V?$allocator@D@2@$0A@@std@@QAE@U?$less@D@1@@Z 00427f00 f i Project.obj
 0001:00026f10       ?_Inc@const_iterator@?$_Tree@V?$_Tset_traits@V?$basic_string@DU?$char_traits@D@std@@V?$allocator@D@2@@std@@U?$less@V?$basic_string@DU?$char_traits@D@std@@V?$allocator@D@2@@std@@@2@V?$allocator@V?$basic_string@DU?$char_traits@D@std@@V?$allocator@D@2@@std@@@2@$0A@@std@@@std@@QAEXXZ 00427f10 f i Project.obj
 0001:00026f70       ?_Inc@const_iterator@?$_Tree@V?$_Tset_traits@DU?$less@D@std@@V?$allocator@D@2@$0A@@std@@@std@@QAEXXZ 00427f70 f i Project.obj
 0001:00026fd0       ??$_Ptr_cat@PAUtagDROPITEM@@PAU1@@std@@YA?AU_Nonscalar_ptr_iterator_tag@0@AAPAUtagDROPITEM@@0@Z 00427fd0 f i Project.obj
 0001:00026fe0       ??$_Destroy@PAU_Node@?$_Tree_nod@V?$_Tmap_traits@V?$basic_string@DU?$char_traits@D@std@@V?$allocator@D@2@@std@@KU?$less@V?$basic_string@DU?$char_traits@D@std@@V?$allocator@D@2@@std@@@2@V?$allocator@U?$pair@$$CBV?$basic_string@DU?$char_traits@D@std@@V?$allocator@D@2@@std@@K@std@@@2@$0A@@std@@@std@@@std@@YAXPAPAU_Node@?$_Tree_nod@V?$_Tmap_traits@V?$basic_string@DU?$char_traits@D@std@@V?$allocator@D@2@@std@@KU?$less@V?$basic_string@DU?$char_traits@D@std@@V?$allocator@D@2@@std@@@2@V?$allocator@U?$pair@$$CBV?$basic_string@DU?$char_traits@D@std@@V?$allocator@D@2@@std@@K@std@@@2@$0A@@std@@@0@@Z 00427fe0 f i Project.obj
 0001:00026ff0       ??$_Allocate@UtagBeginItem@@@std@@YAPAUtagBeginItem@@IPAU1@@Z 00427ff0 f i Project.obj
 0001:00027010       ??$_Destroy@PAU_Node@?$_Tree_nod@V?$_Tmap_traits@V?$basic_string@DU?$char_traits@D@std@@V?$allocator@D@2@@std@@PAXU?$less@V?$basic_string@DU?$char_traits@D@std@@V?$allocator@D@2@@std@@@2@V?$allocator@U?$pair@$$CBV?$basic_string@DU?$char_traits@D@std@@V?$allocator@D@2@@std@@PAX@std@@@2@$0A@@std@@@std@@@std@@YAXPAPAU_Node@?$_Tree_nod@V?$_Tmap_traits@V?$basic_string@DU?$char_traits@D@std@@V?$allocator@D@2@@std@@PAXU?$less@V?$basic_string@DU?$char_traits@D@std@@V?$allocator@D@2@@std@@@2@V?$allocator@U?$pair@$$CBV?$basic_string@DU?$char_traits@D@std@@V?$allocator@D@2@@std@@PAX@std@@@2@$0A@@std@@@0@@Z 00428010 f i Project.obj
 0001:00027020       ??$_Destroy@PAU_Node@?$_Tree_nod@V?$_Tset_traits@V?$basic_string@DU?$char_traits@D@std@@V?$allocator@D@2@@std@@U?$less@V?$basic_string@DU?$char_traits@D@std@@V?$allocator@D@2@@std@@@2@V?$allocator@V?$basic_string@DU?$char_traits@D@std@@V?$allocator@D@2@@std@@@2@$0A@@std@@@std@@@std@@YAXPAPAU_Node@?$_Tree_nod@V?$_Tset_traits@V?$basic_string@DU?$char_traits@D@std@@V?$allocator@D@2@@std@@U?$less@V?$basic_string@DU?$char_traits@D@std@@V?$allocator@D@2@@std@@@2@V?$allocator@V?$basic_string@DU?$char_traits@D@std@@V?$allocator@D@2@@std@@@2@$0A@@std@@@0@@Z 00428020 f i Project.obj
 0001:00027030       ??$_Destroy@U_Node@?$_Tree_nod@V?$_Tset_traits@DU?$less@D@std@@V?$allocator@D@2@$0A@@std@@@std@@@std@@YAXPAU_Node@?$_Tree_nod@V?$_Tset_traits@DU?$less@D@std@@V?$allocator@D@2@$0A@@std@@@0@@Z 00428030 f i Project.obj
 0001:00027040       ??$_Destroy@PAU_Node@?$_Tree_nod@V?$_Tset_traits@DU?$less@D@std@@V?$allocator@D@2@$0A@@std@@@std@@@std@@YAXPAPAU_Node@?$_Tree_nod@V?$_Tset_traits@DU?$less@D@std@@V?$allocator@D@2@$0A@@std@@@0@@Z 00428040 f i Project.obj
 0001:00027050       ??$?0U?$pair@$$CBV?$basic_string@DU?$char_traits@D@std@@V?$allocator@D@2@@std@@K@std@@@?$allocator@PAU_Node@?$_Tree_nod@V?$_Tmap_traits@V?$basic_string@DU?$char_traits@D@std@@V?$allocator@D@2@@std@@KU?$less@V?$basic_string@DU?$char_traits@D@std@@V?$allocator@D@2@@std@@@2@V?$allocator@U?$pair@$$CBV?$basic_string@DU?$char_traits@D@std@@V?$allocator@D@2@@std@@K@std@@@2@$0A@@std@@@std@@@std@@QAE@ABV?$allocator@U?$pair@$$CBV?$basic_string@DU?$char_traits@D@std@@V?$allocator@D@2@@std@@K@std@@@1@@Z 00428050 f i Project.obj
 0001:00027060       ??$?0U?$pair@$$CBV?$basic_string@DU?$char_traits@D@std@@V?$allocator@D@2@@std@@PAX@std@@@?$allocator@PAU_Node@?$_Tree_nod@V?$_Tmap_traits@V?$basic_string@DU?$char_traits@D@std@@V?$allocator@D@2@@std@@PAXU?$less@V?$basic_string@DU?$char_traits@D@std@@V?$allocator@D@2@@std@@@2@V?$allocator@U?$pair@$$CBV?$basic_string@DU?$char_traits@D@std@@V?$allocator@D@2@@std@@PAX@std@@@2@$0A@@std@@@std@@@std@@QAE@ABV?$allocator@U?$pair@$$CBV?$basic_string@DU?$char_traits@D@std@@V?$allocator@D@2@@std@@PAX@std@@@1@@Z 00428060 f i Project.obj
 0001:00027070       ??$?0V?$basic_string@DU?$char_traits@D@std@@V?$allocator@D@2@@std@@@?$allocator@PAU_Node@?$_Tree_nod@V?$_Tset_traits@V?$basic_string@DU?$char_traits@D@std@@V?$allocator@D@2@@std@@U?$less@V?$basic_string@DU?$char_traits@D@std@@V?$allocator@D@2@@std@@@2@V?$allocator@V?$basic_string@DU?$char_traits@D@std@@V?$allocator@D@2@@std@@@2@$0A@@std@@@std@@@std@@QAE@ABV?$allocator@V?$basic_string@DU?$char_traits@D@std@@V?$allocator@D@2@@std@@@1@@Z 00428070 f i Project.obj
 0001:00027080       ??$?0D@?$allocator@PAU_Node@?$_Tree_nod@V?$_Tset_traits@DU?$less@D@std@@V?$allocator@D@2@$0A@@std@@@std@@@std@@QAE@ABV?$allocator@D@1@@Z 00428080 f i Project.obj
 0001:00027090       ??$?0U?$pair@$$CBV?$basic_string@DU?$char_traits@D@std@@V?$allocator@D@2@@std@@K@std@@@?$allocator@U_Node@?$_Tree_nod@V?$_Tmap_traits@V?$basic_string@DU?$char_traits@D@std@@V?$allocator@D@2@@std@@KU?$less@V?$basic_string@DU?$char_traits@D@std@@V?$allocator@D@2@@std@@@2@V?$allocator@U?$pair@$$CBV?$basic_string@DU?$char_traits@D@std@@V?$allocator@D@2@@std@@K@std@@@2@$0A@@std@@@std@@@std@@QAE@ABV?$allocator@U?$pair@$$CBV?$basic_string@DU?$char_traits@D@std@@V?$allocator@D@2@@std@@K@std@@@1@@Z 00428090 f i Project.obj
 0001:000270a0       ??$_Allocate@U_Node@?$_Tree_nod@V?$_Tmap_traits@V?$basic_string@DU?$char_traits@D@std@@V?$allocator@D@2@@std@@KU?$less@V?$basic_string@DU?$char_traits@D@std@@V?$allocator@D@2@@std@@@2@V?$allocator@U?$pair@$$CBV?$basic_string@DU?$char_traits@D@std@@V?$allocator@D@2@@std@@K@std@@@2@$0A@@std@@@std@@@std@@YAPAU_Node@?$_Tree_nod@V?$_Tmap_traits@V?$basic_string@DU?$char_traits@D@std@@V?$allocator@D@2@@std@@KU?$less@V?$basic_string@DU?$char_traits@D@std@@V?$allocator@D@2@@std@@@2@V?$allocator@U?$pair@$$CBV?$basic_string@DU?$char_traits@D@std@@V?$allocator@D@2@@std@@K@std@@@2@$0A@@std@@@0@IPAU120@@Z 004280a0 f i Project.obj
 0001:000270c0       ??$_Construct@PAU_Node@?$_Tree_nod@V?$_Tmap_traits@V?$basic_string@DU?$char_traits@D@std@@V?$allocator@D@2@@std@@KU?$less@V?$basic_string@DU?$char_traits@D@std@@V?$allocator@D@2@@std@@@2@V?$allocator@U?$pair@$$CBV?$basic_string@DU?$char_traits@D@std@@V?$allocator@D@2@@std@@K@std@@@2@$0A@@std@@@std@@PAU123@@std@@YAXPAPAU_Node@?$_Tree_nod@V?$_Tmap_traits@V?$basic_string@DU?$char_traits@D@std@@V?$allocator@D@2@@std@@KU?$less@V?$basic_string@DU?$char_traits@D@std@@V?$allocator@D@2@@std@@@2@V?$allocator@U?$pair@$$CBV?$basic_string@DU?$char_traits@D@std@@V?$allocator@D@2@@std@@K@std@@@2@$0A@@std@@@0@ABQAU120@@Z 004280c0 f i Project.obj
 0001:000270e0       ??$?0U?$pair@$$CBV?$basic_string@DU?$char_traits@D@std@@V?$allocator@D@2@@std@@PAX@std@@@?$allocator@U_Node@?$_Tree_nod@V?$_Tmap_traits@V?$basic_string@DU?$char_traits@D@std@@V?$allocator@D@2@@std@@PAXU?$less@V?$basic_string@DU?$char_traits@D@std@@V?$allocator@D@2@@std@@@2@V?$allocator@U?$pair@$$CBV?$basic_string@DU?$char_traits@D@std@@V?$allocator@D@2@@std@@PAX@std@@@2@$0A@@std@@@std@@@std@@QAE@ABV?$allocator@U?$pair@$$CBV?$basic_string@DU?$char_traits@D@std@@V?$allocator@D@2@@std@@PAX@std@@@1@@Z 004280e0 f i Project.obj
 0001:000270f0       ??$_Allocate@U_Node@?$_Tree_nod@V?$_Tmap_traits@V?$basic_string@DU?$char_traits@D@std@@V?$allocator@D@2@@std@@PAXU?$less@V?$basic_string@DU?$char_traits@D@std@@V?$allocator@D@2@@std@@@2@V?$allocator@U?$pair@$$CBV?$basic_string@DU?$char_traits@D@std@@V?$allocator@D@2@@std@@PAX@std@@@2@$0A@@std@@@std@@@std@@YAPAU_Node@?$_Tree_nod@V?$_Tmap_traits@V?$basic_string@DU?$char_traits@D@std@@V?$allocator@D@2@@std@@PAXU?$less@V?$basic_string@DU?$char_traits@D@std@@V?$allocator@D@2@@std@@@2@V?$allocator@U?$pair@$$CBV?$basic_string@DU?$char_traits@D@std@@V?$allocator@D@2@@std@@PAX@std@@@2@$0A@@std@@@0@IPAU120@@Z 004280f0 f i Project.obj
 0001:00027110       ??$_Construct@PAU_Node@?$_Tree_nod@V?$_Tmap_traits@V?$basic_string@DU?$char_traits@D@std@@V?$allocator@D@2@@std@@PAXU?$less@V?$basic_string@DU?$char_traits@D@std@@V?$allocator@D@2@@std@@@2@V?$allocator@U?$pair@$$CBV?$basic_string@DU?$char_traits@D@std@@V?$allocator@D@2@@std@@PAX@std@@@2@$0A@@std@@@std@@PAU123@@std@@YAXPAPAU_Node@?$_Tree_nod@V?$_Tmap_traits@V?$basic_string@DU?$char_traits@D@std@@V?$allocator@D@2@@std@@PAXU?$less@V?$basic_string@DU?$char_traits@D@std@@V?$allocator@D@2@@std@@@2@V?$allocator@U?$pair@$$CBV?$basic_string@DU?$char_traits@D@std@@V?$allocator@D@2@@std@@PAX@std@@@2@$0A@@std@@@0@ABQAU120@@Z 00428110 f i Project.obj
 0001:00027130       ??$?0V?$basic_string@DU?$char_traits@D@std@@V?$allocator@D@2@@std@@@?$allocator@U_Node@?$_Tree_nod@V?$_Tset_traits@V?$basic_string@DU?$char_traits@D@std@@V?$allocator@D@2@@std@@U?$less@V?$basic_string@DU?$char_traits@D@std@@V?$allocator@D@2@@std@@@2@V?$allocator@V?$basic_string@DU?$char_traits@D@std@@V?$allocator@D@2@@std@@@2@$0A@@std@@@std@@@std@@QAE@ABV?$allocator@V?$basic_string@DU?$char_traits@D@std@@V?$allocator@D@2@@std@@@1@@Z 00428130 f i Project.obj
 0001:00027140       ??$_Construct@PAU_Node@?$_Tree_nod@V?$_Tset_traits@V?$basic_string@DU?$char_traits@D@std@@V?$allocator@D@2@@std@@U?$less@V?$basic_string@DU?$char_traits@D@std@@V?$allocator@D@2@@std@@@2@V?$allocator@V?$basic_string@DU?$char_traits@D@std@@V?$allocator@D@2@@std@@@2@$0A@@std@@@std@@PAU123@@std@@YAXPAPAU_Node@?$_Tree_nod@V?$_Tset_traits@V?$basic_string@DU?$char_traits@D@std@@V?$allocator@D@2@@std@@U?$less@V?$basic_string@DU?$char_traits@D@std@@V?$allocator@D@2@@std@@@2@V?$allocator@V?$basic_string@DU?$char_traits@D@std@@V?$allocator@D@2@@std@@@2@$0A@@std@@@0@ABQAU120@@Z 00428140 f i Project.obj
 0001:00027160       ??$?0D@?$allocator@U_Node@?$_Tree_nod@V?$_Tset_traits@DU?$less@D@std@@V?$allocator@D@2@$0A@@std@@@std@@@std@@QAE@ABV?$allocator@D@1@@Z 00428160 f i Project.obj
 0001:00027170       ??$_Allocate@U_Node@?$_Tree_nod@V?$_Tset_traits@DU?$less@D@std@@V?$allocator@D@2@$0A@@std@@@std@@@std@@YAPAU_Node@?$_Tree_nod@V?$_Tset_traits@DU?$less@D@std@@V?$allocator@D@2@$0A@@std@@@0@IPAU120@@Z 00428170 f i Project.obj
 0001:00027190       ??$_Construct@PAU_Node@?$_Tree_nod@V?$_Tset_traits@DU?$less@D@std@@V?$allocator@D@2@$0A@@std@@@std@@PAU123@@std@@YAXPAPAU_Node@?$_Tree_nod@V?$_Tset_traits@DU?$less@D@std@@V?$allocator@D@2@$0A@@std@@@0@ABQAU120@@Z 00428190 f i Project.obj
 0001:000271b0       ?SetSize@?$CFixedArray@UItemProp@@@@QAEXHH@Z 004281b0 f i Project.obj
 0001:00027210       ?SetSize@?$CFixedArray@UtagColorText@@@@QAEXHH@Z 00428210 f i Project.obj
 0001:00027270       ??$_Ptr_cat@PAUtagBeginItem@@PAU1@@std@@YA?AU_Nonscalar_ptr_iterator_tag@0@AAPAUtagBeginItem@@0@Z 00428270 f i Project.obj
 0001:00027280       ??$_Destroy@UtagDROPITEM@@@std@@YAXPAUtagDROPITEM@@@Z 00428280 f i Project.obj
 0001:00027290       ??$_Destroy@UtagBeginItem@@@std@@YAXPAUtagBeginItem@@@Z 00428290 f i Project.obj
 0001:000272a0       ?xRandom@@YAKK@Z           004282a0 f i Project.obj
 0001:000272c0       ??0ObjProp@@QAE@XZ         004282c0 f i Project.obj
 0001:000272e0       ??0CtrlProp@@QAE@XZ        004282e0 f i Project.obj
 0001:00027310       ??0tagRANDOM_ITEM@@QAE@XZ  00428310 f i Project.obj
 0001:00027340       ??0CDropKindGenerator@@QAE@XZ 00428340 f i Project.obj
 0001:00027350       ??1CDropKindGenerator@@UAE@XZ 00428350 f i Project.obj
 0001:00027360       ??_GCDropKindGenerator@@UAEPAXI@Z 00428360 f i Project.obj
 0001:00027360       ??_ECDropKindGenerator@@UAEPAXI@Z 00428360 f i Project.obj
 0001:00027380       ??0CQuestItemGenerator@@QAE@XZ 00428380 f i Project.obj
 0001:00027390       ??1CQuestItemGenerator@@QAE@XZ 00428390 f i Project.obj
 0001:000273a0       ??0MonsterTransform@@QAE@XZ 004283a0 f i Project.obj
 0001:000273b0       ??0_MONSTER_RESPAWN@@QAE@XZ 004283b0 f i Project.obj
 0001:000273f0       ??0_MONSTER_PROP@@QAE@XZ   004283f0 f i Project.obj
 0001:00027410       ?GetSize@?$CFixedArray@UItemProp@@@@QAEHXZ 00428410 f i Project.obj
 0001:00027420       ??0?$allocator@UtagDROPITEM@@@std@@QAE@XZ 00428420 f i Project.obj
 0001:00027430       ??8const_iterator@?$_Tree@V?$_Tmap_traits@V?$basic_string@DU?$char_traits@D@std@@V?$allocator@D@2@@std@@KU?$less@V?$basic_string@DU?$char_traits@D@std@@V?$allocator@D@2@@std@@@2@V?$allocator@U?$pair@$$CBV?$basic_string@DU?$char_traits@D@std@@V?$allocator@D@2@@std@@K@std@@@2@$0A@@std@@@std@@QBE_NABV012@@Z 00428430 f i Project.obj
 0001:00027440       ?_Mynode@const_iterator@?$_Tree@V?$_Tmap_traits@V?$basic_string@DU?$char_traits@D@std@@V?$allocator@D@2@@std@@KU?$less@V?$basic_string@DU?$char_traits@D@std@@V?$allocator@D@2@@std@@@2@V?$allocator@U?$pair@$$CBV?$basic_string@DU?$char_traits@D@std@@V?$allocator@D@2@@std@@K@std@@@2@$0A@@std@@@std@@QBEPAU_Node@?$_Tree_nod@V?$_Tmap_traits@V?$basic_string@DU?$char_traits@D@std@@V?$allocator@D@2@@std@@KU?$less@V?$basic_string@DU?$char_traits@D@std@@V?$allocator@D@2@@std@@@2@V?$allocator@U?$pair@$$CBV?$basic_string@DU?$char_traits@D@std@@V?$allocator@D@2@@std@@K@std@@@2@$0A@@std@@@3@XZ 00428440 f i Project.obj
 0001:00027450       ??0?$allocator@UtagDROPITEM@@@std@@QAE@ABV01@@Z 00428450 f i Project.obj
 0001:00027460       ?deallocate@?$allocator@UtagDROPITEM@@@std@@QAEXPAUtagDROPITEM@@I@Z 00428460 f i Project.obj
 0001:00027470       ??0const_iterator@?$_Tree@V?$_Tmap_traits@V?$basic_string@DU?$char_traits@D@std@@V?$allocator@D@2@@std@@KU?$less@V?$basic_string@DU?$char_traits@D@std@@V?$allocator@D@2@@std@@@2@V?$allocator@U?$pair@$$CBV?$basic_string@DU?$char_traits@D@std@@V?$allocator@D@2@@std@@K@std@@@2@$0A@@std@@@std@@QAE@PAU_Node@?$_Tree_nod@V?$_Tmap_traits@V?$basic_string@DU?$char_traits@D@std@@V?$allocator@D@2@@std@@KU?$less@V?$basic_string@DU?$char_traits@D@std@@V?$allocator@D@2@@std@@@2@V?$allocator@U?$pair@$$CBV?$basic_string@DU?$char_traits@D@std@@V?$allocator@D@2@@std@@K@std@@@2@$0A@@std@@@2@@Z 00428470 f i Project.obj
 0001:00027480       ?max_size@?$allocator@UtagDROPITEM@@@std@@QBEIXZ 00428480 f i Project.obj
 0001:00027490       ?_Isnil@?$_Tree@V?$_Tmap_traits@V?$basic_string@DU?$char_traits@D@std@@V?$allocator@D@2@@std@@KU?$less@V?$basic_string@DU?$char_traits@D@std@@V?$allocator@D@2@@std@@@2@V?$allocator@U?$pair@$$CBV?$basic_string@DU?$char_traits@D@std@@V?$allocator@D@2@@std@@K@std@@@2@$0A@@std@@@std@@KAAADPAU_Node@?$_Tree_nod@V?$_Tmap_traits@V?$basic_string@DU?$char_traits@D@std@@V?$allocator@D@2@@std@@KU?$less@V?$basic_string@DU?$char_traits@D@std@@V?$allocator@D@2@@std@@@2@V?$allocator@U?$pair@$$CBV?$basic_string@DU?$char_traits@D@std@@V?$allocator@D@2@@std@@K@std@@@2@$0A@@std@@@2@@Z 00428490 f i Project.obj
 0001:000274a0       ?_Left@?$_Tree@V?$_Tmap_traits@V?$basic_string@DU?$char_traits@D@std@@V?$allocator@D@2@@std@@KU?$less@V?$basic_string@DU?$char_traits@D@std@@V?$allocator@D@2@@std@@@2@V?$allocator@U?$pair@$$CBV?$basic_string@DU?$char_traits@D@std@@V?$allocator@D@2@@std@@K@std@@@2@$0A@@std@@@std@@KAAAPAU_Node@?$_Tree_nod@V?$_Tmap_traits@V?$basic_string@DU?$char_traits@D@std@@V?$allocator@D@2@@std@@KU?$less@V?$basic_string@DU?$char_traits@D@std@@V?$allocator@D@2@@std@@@2@V?$allocator@U?$pair@$$CBV?$basic_string@DU?$char_traits@D@std@@V?$allocator@D@2@@std@@K@std@@@2@$0A@@std@@@2@PAU342@@Z 004284a0 f i Project.obj
 0001:000274b0       ?_Right@?$_Tree@V?$_Tmap_traits@V?$basic_string@DU?$char_traits@D@std@@V?$allocator@D@2@@std@@KU?$less@V?$basic_string@DU?$char_traits@D@std@@V?$allocator@D@2@@std@@@2@V?$allocator@U?$pair@$$CBV?$basic_string@DU?$char_traits@D@std@@V?$allocator@D@2@@std@@K@std@@@2@$0A@@std@@@std@@KAAAPAU_Node@?$_Tree_nod@V?$_Tmap_traits@V?$basic_string@DU?$char_traits@D@std@@V?$allocator@D@2@@std@@KU?$less@V?$basic_string@DU?$char_traits@D@std@@V?$allocator@D@2@@std@@@2@V?$allocator@U?$pair@$$CBV?$basic_string@DU?$char_traits@D@std@@V?$allocator@D@2@@std@@K@std@@@2@$0A@@std@@@2@PAU342@@Z 004284b0 f i Project.obj
 0001:000274c0       ?_Parent@?$_Tree@V?$_Tmap_traits@V?$basic_string@DU?$char_traits@D@std@@V?$allocator@D@2@@std@@KU?$less@V?$basic_string@DU?$char_traits@D@std@@V?$allocator@D@2@@std@@@2@V?$allocator@U?$pair@$$CBV?$basic_string@DU?$char_traits@D@std@@V?$allocator@D@2@@std@@K@std@@@2@$0A@@std@@@std@@KAAAPAU_Node@?$_Tree_nod@V?$_Tmap_traits@V?$basic_string@DU?$char_traits@D@std@@V?$allocator@D@2@@std@@KU?$less@V?$basic_string@DU?$char_traits@D@std@@V?$allocator@D@2@@std@@@2@V?$allocator@U?$pair@$$CBV?$basic_string@DU?$char_traits@D@std@@V?$allocator@D@2@@std@@K@std@@@2@$0A@@std@@@2@PAU342@@Z 004284c0 f i Project.obj
 0001:000274d0       ??1?$CFixedArray@UItemProp@@@@UAE@XZ 004284d0 f i Project.obj
 0001:00027510       ??1?$CFixedArray@UtagColorText@@@@UAE@XZ 00428510 f i Project.obj
 0001:00027550       ??$_Allocate@UtagDROPITEM@@@std@@YAPAUtagDROPITEM@@IPAU1@@Z 00428550 f i Project.obj
 0001:00027570       ??_G?$CFixedArray@UItemProp@@@@UAEPAXI@Z 00428570 f i Project.obj
 0001:00027570       ??_E?$CFixedArray@UItemProp@@@@UAEPAXI@Z 00428570 f i Project.obj
 0001:000275c0       ??_G?$CFixedArray@UtagColorText@@@@UAEPAXI@Z 004285c0 f i Project.obj
 0001:000275c0       ??_E?$CFixedArray@UtagColorText@@@@UAEPAXI@Z 004285c0 f i Project.obj
 0001:00027610       ??0tagBEGINPOSARR@@QAE@XZ  00428610 f i Project.obj
 0001:00027620       ??0?$_Vector_val@UtagBeginItem@@V?$allocator@UtagBeginItem@@@std@@@std@@IAE@V?$allocator@UtagBeginItem@@@1@@Z 00428620 f i Project.obj
 0001:00027630       ?_Key@?$_Tree@V?$_Tmap_traits@V?$basic_string@DU?$char_traits@D@std@@V?$allocator@D@2@@std@@PAXU?$less@V?$basic_string@DU?$char_traits@D@std@@V?$allocator@D@2@@std@@@2@V?$allocator@U?$pair@$$CBV?$basic_string@DU?$char_traits@D@std@@V?$allocator@D@2@@std@@PAX@std@@@2@$0A@@std@@@std@@KAABV?$basic_string@DU?$char_traits@D@std@@V?$allocator@D@2@@2@PAU_Node@?$_Tree_nod@V?$_Tmap_traits@V?$basic_string@DU?$char_traits@D@std@@V?$allocator@D@2@@std@@PAXU?$less@V?$basic_string@DU?$char_traits@D@std@@V?$allocator@D@2@@std@@@2@V?$allocator@U?$pair@$$CBV?$basic_string@DU?$char_traits@D@std@@V?$allocator@D@2@@std@@PAX@std@@@2@$0A@@std@@@2@@Z 00428630 f i Project.obj
 0001:00027640       ?_Lmost@?$_Tree@V?$_Tmap_traits@V?$basic_string@DU?$char_traits@D@std@@V?$allocator@D@2@@std@@PAXU?$less@V?$basic_string@DU?$char_traits@D@std@@V?$allocator@D@2@@std@@@2@V?$allocator@U?$pair@$$CBV?$basic_string@DU?$char_traits@D@std@@V?$allocator@D@2@@std@@PAX@std@@@2@$0A@@std@@@std@@IAEAAPAU_Node@?$_Tree_nod@V?$_Tmap_traits@V?$basic_string@DU?$char_traits@D@std@@V?$allocator@D@2@@std@@PAXU?$less@V?$basic_string@DU?$char_traits@D@std@@V?$allocator@D@2@@std@@@2@V?$allocator@U?$pair@$$CBV?$basic_string@DU?$char_traits@D@std@@V?$allocator@D@2@@std@@PAX@std@@@2@$0A@@std@@@2@XZ 00428640 f i Project.obj
 0001:00027650       ?_Lmost@?$_Tree@V?$_Tset_traits@DU?$less@D@std@@V?$allocator@D@2@$0A@@std@@@std@@IAEAAPAU_Node@?$_Tree_nod@V?$_Tset_traits@DU?$less@D@std@@V?$allocator@D@2@$0A@@std@@@2@XZ 00428650 f i Project.obj
 0001:00027660       ?_Rmost@?$_Tree@V?$_Tset_traits@DU?$less@D@std@@V?$allocator@D@2@$0A@@std@@@std@@IAEAAPAU_Node@?$_Tree_nod@V?$_Tset_traits@DU?$less@D@std@@V?$allocator@D@2@$0A@@std@@@2@XZ 00428660 f i Project.obj
 0001:00027670       ?_Root@?$_Tree@V?$_Tset_traits@DU?$less@D@std@@V?$allocator@D@2@$0A@@std@@@std@@IAEAAPAU_Node@?$_Tree_nod@V?$_Tset_traits@DU?$less@D@std@@V?$allocator@D@2@$0A@@std@@@2@XZ 00428670 f i Project.obj
 0001:00027680       ??0iterator@?$_Tree@V?$_Tmap_traits@V?$basic_string@DU?$char_traits@D@std@@V?$allocator@D@2@@std@@PAXU?$less@V?$basic_string@DU?$char_traits@D@std@@V?$allocator@D@2@@std@@@2@V?$allocator@U?$pair@$$CBV?$basic_string@DU?$char_traits@D@std@@V?$allocator@D@2@@std@@PAX@std@@@2@$0A@@std@@@std@@QAE@PAU_Node@?$_Tree_nod@V?$_Tmap_traits@V?$basic_string@DU?$char_traits@D@std@@V?$allocator@D@2@@std@@PAXU?$less@V?$basic_string@DU?$char_traits@D@std@@V?$allocator@D@2@@std@@@2@V?$allocator@U?$pair@$$CBV?$basic_string@DU?$char_traits@D@std@@V?$allocator@D@2@@std@@PAX@std@@@2@$0A@@std@@@2@@Z 00428680 f i Project.obj
 0001:00027690       ??Diterator@?$_Tree@V?$_Tmap_traits@V?$basic_string@DU?$char_traits@D@std@@V?$allocator@D@2@@std@@PAXU?$less@V?$basic_string@DU?$char_traits@D@std@@V?$allocator@D@2@@std@@@2@V?$allocator@U?$pair@$$CBV?$basic_string@DU?$char_traits@D@std@@V?$allocator@D@2@@std@@PAX@std@@@2@$0A@@std@@@std@@QBEAAU?$pair@$$CBV?$basic_string@DU?$char_traits@D@std@@V?$allocator@D@2@@std@@PAX@2@XZ 00428690 f i Project.obj
 0001:000276a0       ?destroy@?$allocator@PAU_Node@?$_Tree_nod@V?$_Tmap_traits@V?$basic_string@DU?$char_traits@D@std@@V?$allocator@D@2@@std@@KU?$less@V?$basic_string@DU?$char_traits@D@std@@V?$allocator@D@2@@std@@@2@V?$allocator@U?$pair@$$CBV?$basic_string@DU?$char_traits@D@std@@V?$allocator@D@2@@std@@K@std@@@2@$0A@@std@@@std@@@std@@QAEXPAPAU_Node@?$_Tree_nod@V?$_Tmap_traits@V?$basic_string@DU?$char_traits@D@std@@V?$allocator@D@2@@std@@KU?$less@V?$basic_string@DU?$char_traits@D@std@@V?$allocator@D@2@@std@@@2@V?$allocator@U?$pair@$$CBV?$basic_string@DU?$char_traits@D@std@@V?$allocator@D@2@@std@@K@std@@@2@$0A@@std@@@2@@Z 004286a0 f i Project.obj
 0001:000276b0       ?max_size@?$vector@UtagBeginItem@@V?$allocator@UtagBeginItem@@@std@@@std@@QBEIXZ 004286b0 f i Project.obj
 0001:000276c0       ?allocate@?$allocator@UtagBeginItem@@@std@@QAEPAUtagBeginItem@@I@Z 004286c0 f i Project.obj
 0001:000276e0       ?destroy@?$allocator@PAU_Node@?$_Tree_nod@V?$_Tmap_traits@V?$basic_string@DU?$char_traits@D@std@@V?$allocator@D@2@@std@@PAXU?$less@V?$basic_string@DU?$char_traits@D@std@@V?$allocator@D@2@@std@@@2@V?$allocator@U?$pair@$$CBV?$basic_string@DU?$char_traits@D@std@@V?$allocator@D@2@@std@@PAX@std@@@2@$0A@@std@@@std@@@std@@QAEXPAPAU_Node@?$_Tree_nod@V?$_Tmap_traits@V?$basic_string@DU?$char_traits@D@std@@V?$allocator@D@2@@std@@PAXU?$less@V?$basic_string@DU?$char_traits@D@std@@V?$allocator@D@2@@std@@@2@V?$allocator@U?$pair@$$CBV?$basic_string@DU?$char_traits@D@std@@V?$allocator@D@2@@std@@PAX@std@@@2@$0A@@std@@@2@@Z 004286e0 f i Project.obj
 0001:000276f0       ?destroy@?$allocator@PAU_Node@?$_Tree_nod@V?$_Tset_traits@V?$basic_string@DU?$char_traits@D@std@@V?$allocator@D@2@@std@@U?$less@V?$basic_string@DU?$char_traits@D@std@@V?$allocator@D@2@@std@@@2@V?$allocator@V?$basic_string@DU?$char_traits@D@std@@V?$allocator@D@2@@std@@@2@$0A@@std@@@std@@@std@@QAEXPAPAU_Node@?$_Tree_nod@V?$_Tset_traits@V?$basic_string@DU?$char_traits@D@std@@V?$allocator@D@2@@std@@U?$less@V?$basic_string@DU?$char_traits@D@std@@V?$allocator@D@2@@std@@@2@V?$allocator@V?$basic_string@DU?$char_traits@D@std@@V?$allocator@D@2@@std@@@2@$0A@@std@@@2@@Z 004286f0 f i Project.obj
 0001:00027700       ?destroy@?$allocator@U_Node@?$_Tree_nod@V?$_Tset_traits@DU?$less@D@std@@V?$allocator@D@2@$0A@@std@@@std@@@std@@QAEXPAU_Node@?$_Tree_nod@V?$_Tset_traits@DU?$less@D@std@@V?$allocator@D@2@$0A@@std@@@2@@Z 00428700 f i Project.obj
 0001:00027710       ?destroy@?$allocator@PAU_Node@?$_Tree_nod@V?$_Tset_traits@DU?$less@D@std@@V?$allocator@D@2@$0A@@std@@@std@@@std@@QAEXPAPAU_Node@?$_Tree_nod@V?$_Tset_traits@DU?$less@D@std@@V?$allocator@D@2@$0A@@std@@@2@@Z 00428710 f i Project.obj
 0001:00027720       ??0iterator@?$_Tree@V?$_Tmap_traits@V?$basic_string@DU?$char_traits@D@std@@V?$allocator@D@2@@std@@PAXU?$less@V?$basic_string@DU?$char_traits@D@std@@V?$allocator@D@2@@std@@@2@V?$allocator@U?$pair@$$CBV?$basic_string@DU?$char_traits@D@std@@V?$allocator@D@2@@std@@PAX@std@@@2@$0A@@std@@@std@@QAE@XZ 00428720 f i Project.obj
 0001:00027730       ?_Inc@const_iterator@?$_Tree@V?$_Tmap_traits@V?$basic_string@DU?$char_traits@D@std@@V?$allocator@D@2@@std@@PAXU?$less@V?$basic_string@DU?$char_traits@D@std@@V?$allocator@D@2@@std@@@2@V?$allocator@U?$pair@$$CBV?$basic_string@DU?$char_traits@D@std@@V?$allocator@D@2@@std@@PAX@std@@@2@$0A@@std@@@std@@QAEXXZ 00428730 f i Project.obj
 0001:00027790       ?_Lmost@?$_Tree@V?$_Tmap_traits@V?$basic_string@DU?$char_traits@D@std@@V?$allocator@D@2@@std@@KU?$less@V?$basic_string@DU?$char_traits@D@std@@V?$allocator@D@2@@std@@@2@V?$allocator@U?$pair@$$CBV?$basic_string@DU?$char_traits@D@std@@V?$allocator@D@2@@std@@K@std@@@2@$0A@@std@@@std@@IAEAAPAU_Node@?$_Tree_nod@V?$_Tmap_traits@V?$basic_string@DU?$char_traits@D@std@@V?$allocator@D@2@@std@@KU?$less@V?$basic_string@DU?$char_traits@D@std@@V?$allocator@D@2@@std@@@2@V?$allocator@U?$pair@$$CBV?$basic_string@DU?$char_traits@D@std@@V?$allocator@D@2@@std@@K@std@@@2@$0A@@std@@@2@XZ 00428790 f i Project.obj
 0001:000277a0       ?_Rmost@?$_Tree@V?$_Tmap_traits@V?$basic_string@DU?$char_traits@D@std@@V?$allocator@D@2@@std@@KU?$less@V?$basic_string@DU?$char_traits@D@std@@V?$allocator@D@2@@std@@@2@V?$allocator@U?$pair@$$CBV?$basic_string@DU?$char_traits@D@std@@V?$allocator@D@2@@std@@K@std@@@2@$0A@@std@@@std@@IAEAAPAU_Node@?$_Tree_nod@V?$_Tmap_traits@V?$basic_string@DU?$char_traits@D@std@@V?$allocator@D@2@@std@@KU?$less@V?$basic_string@DU?$char_traits@D@std@@V?$allocator@D@2@@std@@@2@V?$allocator@U?$pair@$$CBV?$basic_string@DU?$char_traits@D@std@@V?$allocator@D@2@@std@@K@std@@@2@$0A@@std@@@2@XZ 004287a0 f i Project.obj
 0001:000277b0       ?_Root@?$_Tree@V?$_Tmap_traits@V?$basic_string@DU?$char_traits@D@std@@V?$allocator@D@2@@std@@KU?$less@V?$basic_string@DU?$char_traits@D@std@@V?$allocator@D@2@@std@@@2@V?$allocator@U?$pair@$$CBV?$basic_string@DU?$char_traits@D@std@@V?$allocator@D@2@@std@@K@std@@@2@$0A@@std@@@std@@IAEAAPAU_Node@?$_Tree_nod@V?$_Tmap_traits@V?$basic_string@DU?$char_traits@D@std@@V?$allocator@D@2@@std@@KU?$less@V?$basic_string@DU?$char_traits@D@std@@V?$allocator@D@2@@std@@@2@V?$allocator@U?$pair@$$CBV?$basic_string@DU?$char_traits@D@std@@V?$allocator@D@2@@std@@K@std@@@2@$0A@@std@@@2@XZ 004287b0 f i Project.obj
 0001:000277c0       ?max_size@?$_Tree@V?$_Tmap_traits@V?$basic_string@DU?$char_traits@D@std@@V?$allocator@D@2@@std@@PAXU?$less@V?$basic_string@DU?$char_traits@D@std@@V?$allocator@D@2@@std@@@2@V?$allocator@U?$pair@$$CBV?$basic_string@DU?$char_traits@D@std@@V?$allocator@D@2@@std@@PAX@std@@@2@$0A@@std@@@std@@QBEIXZ 004287c0 f i Project.obj
 0001:000277d0       ?_Lrotate@?$_Tree@V?$_Tmap_traits@V?$basic_string@DU?$char_traits@D@std@@V?$allocator@D@2@@std@@PAXU?$less@V?$basic_string@DU?$char_traits@D@std@@V?$allocator@D@2@@std@@@2@V?$allocator@U?$pair@$$CBV?$basic_string@DU?$char_traits@D@std@@V?$allocator@D@2@@std@@PAX@std@@@2@$0A@@std@@@std@@IAEXPAU_Node@?$_Tree_nod@V?$_Tmap_traits@V?$basic_string@DU?$char_traits@D@std@@V?$allocator@D@2@@std@@PAXU?$less@V?$basic_string@DU?$char_traits@D@std@@V?$allocator@D@2@@std@@@2@V?$allocator@U?$pair@$$CBV?$basic_string@DU?$char_traits@D@std@@V?$allocator@D@2@@std@@PAX@std@@@2@$0A@@std@@@2@@Z 004287d0 f i Project.obj
 0001:00027830       ??Fconst_iterator@?$_Tree@V?$_Tmap_traits@V?$basic_string@DU?$char_traits@D@std@@V?$allocator@D@2@@std@@PAXU?$less@V?$basic_string@DU?$char_traits@D@std@@V?$allocator@D@2@@std@@@2@V?$allocator@U?$pair@$$CBV?$basic_string@DU?$char_traits@D@std@@V?$allocator@D@2@@std@@PAX@std@@@2@$0A@@std@@@std@@QAEAAV012@XZ 00428830 f i Project.obj
 0001:00027840       ??0iterator@?$_Tree@V?$_Tset_traits@DU?$less@D@std@@V?$allocator@D@2@$0A@@std@@@std@@QAE@PAU_Node@?$_Tree_nod@V?$_Tset_traits@DU?$less@D@std@@V?$allocator@D@2@$0A@@std@@@2@@Z 00428840 f i Project.obj
 0001:00027850       ?_Lrotate@?$_Tree@V?$_Tmap_traits@V?$basic_string@DU?$char_traits@D@std@@V?$allocator@D@2@@std@@KU?$less@V?$basic_string@DU?$char_traits@D@std@@V?$allocator@D@2@@std@@@2@V?$allocator@U?$pair@$$CBV?$basic_string@DU?$char_traits@D@std@@V?$allocator@D@2@@std@@K@std@@@2@$0A@@std@@@std@@IAEXPAU_Node@?$_Tree_nod@V?$_Tmap_traits@V?$basic_string@DU?$char_traits@D@std@@V?$allocator@D@2@@std@@KU?$less@V?$basic_string@DU?$char_traits@D@std@@V?$allocator@D@2@@std@@@2@V?$allocator@U?$pair@$$CBV?$basic_string@DU?$char_traits@D@std@@V?$allocator@D@2@@std@@K@std@@@2@$0A@@std@@@2@@Z 00428850 f i Project.obj
 0001:000278b0       ?_Max@?$_Tree@V?$_Tmap_traits@V?$basic_string@DU?$char_traits@D@std@@V?$allocator@D@2@@std@@KU?$less@V?$basic_string@DU?$char_traits@D@std@@V?$allocator@D@2@@std@@@2@V?$allocator@U?$pair@$$CBV?$basic_string@DU?$char_traits@D@std@@V?$allocator@D@2@@std@@K@std@@@2@$0A@@std@@@std@@KAPAU_Node@?$_Tree_nod@V?$_Tmap_traits@V?$basic_string@DU?$char_traits@D@std@@V?$allocator@D@2@@std@@KU?$less@V?$basic_string@DU?$char_traits@D@std@@V?$allocator@D@2@@std@@@2@V?$allocator@U?$pair@$$CBV?$basic_string@DU?$char_traits@D@std@@V?$allocator@D@2@@std@@K@std@@@2@$0A@@std@@@2@PAU342@@Z 004288b0 f i Project.obj
 0001:000278d0       ?_Min@?$_Tree@V?$_Tmap_traits@V?$basic_string@DU?$char_traits@D@std@@V?$allocator@D@2@@std@@KU?$less@V?$basic_string@DU?$char_traits@D@std@@V?$allocator@D@2@@std@@@2@V?$allocator@U?$pair@$$CBV?$basic_string@DU?$char_traits@D@std@@V?$allocator@D@2@@std@@K@std@@@2@$0A@@std@@@std@@KAPAU_Node@?$_Tree_nod@V?$_Tmap_traits@V?$basic_string@DU?$char_traits@D@std@@V?$allocator@D@2@@std@@KU?$less@V?$basic_string@DU?$char_traits@D@std@@V?$allocator@D@2@@std@@@2@V?$allocator@U?$pair@$$CBV?$basic_string@DU?$char_traits@D@std@@V?$allocator@D@2@@std@@K@std@@@2@$0A@@std@@@2@PAU342@@Z 004288d0 f i Project.obj
 0001:000278f0       ?_Rrotate@?$_Tree@V?$_Tmap_traits@V?$basic_string@DU?$char_traits@D@std@@V?$allocator@D@2@@std@@KU?$less@V?$basic_string@DU?$char_traits@D@std@@V?$allocator@D@2@@std@@@2@V?$allocator@U?$pair@$$CBV?$basic_string@DU?$char_traits@D@std@@V?$allocator@D@2@@std@@K@std@@@2@$0A@@std@@@std@@IAEXPAU_Node@?$_Tree_nod@V?$_Tmap_traits@V?$basic_string@DU?$char_traits@D@std@@V?$allocator@D@2@@std@@KU?$less@V?$basic_string@DU?$char_traits@D@std@@V?$allocator@D@2@@std@@@2@V?$allocator@U?$pair@$$CBV?$basic_string@DU?$char_traits@D@std@@V?$allocator@D@2@@std@@K@std@@@2@$0A@@std@@@2@@Z 004288f0 f i Project.obj
 0001:00027950       ??0?$_Tree_nod@V?$_Tmap_traits@V?$basic_string@DU?$char_traits@D@std@@V?$allocator@D@2@@std@@KU?$less@V?$basic_string@DU?$char_traits@D@std@@V?$allocator@D@2@@std@@@2@V?$allocator@U?$pair@$$CBV?$basic_string@DU?$char_traits@D@std@@V?$allocator@D@2@@std@@K@std@@@2@$0A@@std@@@std@@IAE@ABU?$less@V?$basic_string@DU?$char_traits@D@std@@V?$allocator@D@2@@std@@@1@V?$allocator@U?$pair@$$CBV?$basic_string@DU?$char_traits@D@std@@V?$allocator@D@2@@std@@K@std@@@1@@Z 00428950 f i Project.obj
 0001:00027960       ?allocate@?$allocator@U_Node@?$_Tree_nod@V?$_Tmap_traits@V?$basic_string@DU?$char_traits@D@std@@V?$allocator@D@2@@std@@KU?$less@V?$basic_string@DU?$char_traits@D@std@@V?$allocator@D@2@@std@@@2@V?$allocator@U?$pair@$$CBV?$basic_string@DU?$char_traits@D@std@@V?$allocator@D@2@@std@@K@std@@@2@$0A@@std@@@std@@@std@@QAEPAU_Node@?$_Tree_nod@V?$_Tmap_traits@V?$basic_string@DU?$char_traits@D@std@@V?$allocator@D@2@@std@@KU?$less@V?$basic_string@DU?$char_traits@D@std@@V?$allocator@D@2@@std@@@2@V?$allocator@U?$pair@$$CBV?$basic_string@DU?$char_traits@D@std@@V?$allocator@D@2@@std@@K@std@@@2@$0A@@std@@@2@I@Z 00428960 f i Project.obj
 0001:00027980       ?construct@?$allocator@PAU_Node@?$_Tree_nod@V?$_Tmap_traits@V?$basic_string@DU?$char_traits@D@std@@V?$allocator@D@2@@std@@KU?$less@V?$basic_string@DU?$char_traits@D@std@@V?$allocator@D@2@@std@@@2@V?$allocator@U?$pair@$$CBV?$basic_string@DU?$char_traits@D@std@@V?$allocator@D@2@@std@@K@std@@@2@$0A@@std@@@std@@@std@@QAEXPAPAU_Node@?$_Tree_nod@V?$_Tmap_traits@V?$basic_string@DU?$char_traits@D@std@@V?$allocator@D@2@@std@@KU?$less@V?$basic_string@DU?$char_traits@D@std@@V?$allocator@D@2@@std@@@2@V?$allocator@U?$pair@$$CBV?$basic_string@DU?$char_traits@D@std@@V?$allocator@D@2@@std@@K@std@@@2@$0A@@std@@@2@ABQAU342@@Z 00428980 f i Project.obj
 0001:000279a0       ??0?$_Tree_nod@V?$_Tmap_traits@V?$basic_string@DU?$char_traits@D@std@@V?$allocator@D@2@@std@@PAXU?$less@V?$basic_string@DU?$char_traits@D@std@@V?$allocator@D@2@@std@@@2@V?$allocator@U?$pair@$$CBV?$basic_string@DU?$char_traits@D@std@@V?$allocator@D@2@@std@@PAX@std@@@2@$0A@@std@@@std@@IAE@ABU?$less@V?$basic_string@DU?$char_traits@D@std@@V?$allocator@D@2@@std@@@1@V?$allocator@U?$pair@$$CBV?$basic_string@DU?$char_traits@D@std@@V?$allocator@D@2@@std@@PAX@std@@@1@@Z 004289a0 f i Project.obj
 0001:000279b0       ?allocate@?$allocator@U_Node@?$_Tree_nod@V?$_Tmap_traits@V?$basic_string@DU?$char_traits@D@std@@V?$allocator@D@2@@std@@PAXU?$less@V?$basic_string@DU?$char_traits@D@std@@V?$allocator@D@2@@std@@@2@V?$allocator@U?$pair@$$CBV?$basic_string@DU?$char_traits@D@std@@V?$allocator@D@2@@std@@PAX@std@@@2@$0A@@std@@@std@@@std@@QAEPAU_Node@?$_Tree_nod@V?$_Tmap_traits@V?$basic_string@DU?$char_traits@D@std@@V?$allocator@D@2@@std@@PAXU?$less@V?$basic_string@DU?$char_traits@D@std@@V?$allocator@D@2@@std@@@2@V?$allocator@U?$pair@$$CBV?$basic_string@DU?$char_traits@D@std@@V?$allocator@D@2@@std@@PAX@std@@@2@$0A@@std@@@2@I@Z 004289b0 f i Project.obj
 0001:000279d0       ?construct@?$allocator@PAU_Node@?$_Tree_nod@V?$_Tmap_traits@V?$basic_string@DU?$char_traits@D@std@@V?$allocator@D@2@@std@@PAXU?$less@V?$basic_string@DU?$char_traits@D@std@@V?$allocator@D@2@@std@@@2@V?$allocator@U?$pair@$$CBV?$basic_string@DU?$char_traits@D@std@@V?$allocator@D@2@@std@@PAX@std@@@2@$0A@@std@@@std@@@std@@QAEXPAPAU_Node@?$_Tree_nod@V?$_Tmap_traits@V?$basic_string@DU?$char_traits@D@std@@V?$allocator@D@2@@std@@PAXU?$less@V?$basic_string@DU?$char_traits@D@std@@V?$allocator@D@2@@std@@@2@V?$allocator@U?$pair@$$CBV?$basic_string@DU?$char_traits@D@std@@V?$allocator@D@2@@std@@PAX@std@@@2@$0A@@std@@@2@ABQAU342@@Z 004289d0 f i Project.obj
 0001:000279f0       ??0?$_Tree_nod@V?$_Tset_traits@V?$basic_string@DU?$char_traits@D@std@@V?$allocator@D@2@@std@@U?$less@V?$basic_string@DU?$char_traits@D@std@@V?$allocator@D@2@@std@@@2@V?$allocator@V?$basic_string@DU?$char_traits@D@std@@V?$allocator@D@2@@std@@@2@$0A@@std@@@std@@IAE@ABU?$less@V?$basic_string@DU?$char_traits@D@std@@V?$allocator@D@2@@std@@@1@V?$allocator@V?$basic_string@DU?$char_traits@D@std@@V?$allocator@D@2@@std@@@1@@Z 004289f0 f i Project.obj
 0001:00027a00       ?construct@?$allocator@PAU_Node@?$_Tree_nod@V?$_Tset_traits@V?$basic_string@DU?$char_traits@D@std@@V?$allocator@D@2@@std@@U?$less@V?$basic_string@DU?$char_traits@D@std@@V?$allocator@D@2@@std@@@2@V?$allocator@V?$basic_string@DU?$char_traits@D@std@@V?$allocator@D@2@@std@@@2@$0A@@std@@@std@@@std@@QAEXPAPAU_Node@?$_Tree_nod@V?$_Tset_traits@V?$basic_string@DU?$char_traits@D@std@@V?$allocator@D@2@@std@@U?$less@V?$basic_string@DU?$char_traits@D@std@@V?$allocator@D@2@@std@@@2@V?$allocator@V?$basic_string@DU?$char_traits@D@std@@V?$allocator@D@2@@std@@@2@$0A@@std@@@2@ABQAU342@@Z 00428a00 f i Project.obj
 0001:00027a20       ?_Lrotate@?$_Tree@V?$_Tset_traits@DU?$less@D@std@@V?$allocator@D@2@$0A@@std@@@std@@IAEXPAU_Node@?$_Tree_nod@V?$_Tset_traits@DU?$less@D@std@@V?$allocator@D@2@$0A@@std@@@2@@Z 00428a20 f i Project.obj
 0001:00027a80       ?_Rrotate@?$_Tree@V?$_Tset_traits@DU?$less@D@std@@V?$allocator@D@2@$0A@@std@@@std@@IAEXPAU_Node@?$_Tree_nod@V?$_Tset_traits@DU?$less@D@std@@V?$allocator@D@2@$0A@@std@@@2@@Z 00428a80 f i Project.obj
 0001:00027ae0       ??0?$_Tree_nod@V?$_Tset_traits@DU?$less@D@std@@V?$allocator@D@2@$0A@@std@@@std@@IAE@ABU?$less@D@1@V?$allocator@D@1@@Z 00428ae0 f i Project.obj
 0001:00027af0       ?allocate@?$allocator@U_Node@?$_Tree_nod@V?$_Tset_traits@DU?$less@D@std@@V?$allocator@D@2@$0A@@std@@@std@@@std@@QAEPAU_Node@?$_Tree_nod@V?$_Tset_traits@DU?$less@D@std@@V?$allocator@D@2@$0A@@std@@@2@I@Z 00428af0 f i Project.obj
 0001:00027b10       ?construct@?$allocator@PAU_Node@?$_Tree_nod@V?$_Tset_traits@DU?$less@D@std@@V?$allocator@D@2@$0A@@std@@@std@@@std@@QAEXPAPAU_Node@?$_Tree_nod@V?$_Tset_traits@DU?$less@D@std@@V?$allocator@D@2@$0A@@std@@@2@ABQAU342@@Z 00428b10 f i Project.obj
 0001:00027b30       ??Econst_iterator@?$_Tree@V?$_Tset_traits@V?$basic_string@DU?$char_traits@D@std@@V?$allocator@D@2@@std@@U?$less@V?$basic_string@DU?$char_traits@D@std@@V?$allocator@D@2@@std@@@2@V?$allocator@V?$basic_string@DU?$char_traits@D@std@@V?$allocator@D@2@@std@@@2@$0A@@std@@@std@@QAEAAV012@XZ 00428b30 f i Project.obj
 0001:00027b40       ??Econst_iterator@?$_Tree@V?$_Tset_traits@DU?$less@D@std@@V?$allocator@D@2@$0A@@std@@@std@@QAEAAV012@XZ 00428b40 f i Project.obj
 0001:00027b50       ?_Inc@const_iterator@?$_Tree@V?$_Tmap_traits@V?$basic_string@DU?$char_traits@D@std@@V?$allocator@D@2@@std@@KU?$less@V?$basic_string@DU?$char_traits@D@std@@V?$allocator@D@2@@std@@@2@V?$allocator@U?$pair@$$CBV?$basic_string@DU?$char_traits@D@std@@V?$allocator@D@2@@std@@K@std@@@2@$0A@@std@@@std@@QAEXXZ 00428b50 f i Project.obj
 0001:00027bb0       ??0?$CFixedArray@UItemProp@@@@QAE@XZ 00428bb0 f i Project.obj
 0001:00027be0       ??0?$CFixedArray@UtagColorText@@@@QAE@XZ 00428be0 f i Project.obj
 0001:00027c10       ?destroy@?$allocator@UtagDROPITEM@@@std@@QAEXPAUtagDROPITEM@@@Z 00428c10 f i Project.obj
 0001:00027c20       ?destroy@?$allocator@UtagBeginItem@@@std@@QAEXPAUtagBeginItem@@@Z 00428c20 f i Project.obj
 0001:00027c30       ??9const_iterator@?$_Tree@V?$_Tmap_traits@V?$basic_string@DU?$char_traits@D@std@@V?$allocator@D@2@@std@@KU?$less@V?$basic_string@DU?$char_traits@D@std@@V?$allocator@D@2@@std@@@2@V?$allocator@U?$pair@$$CBV?$basic_string@DU?$char_traits@D@std@@V?$allocator@D@2@@std@@K@std@@@2@$0A@@std@@@std@@QBE_NABV012@@Z 00428c30 f i Project.obj
 0001:00027c50       ??0?$_Vector_val@UtagDROPITEM@@V?$allocator@UtagDROPITEM@@@std@@@std@@IAE@V?$allocator@UtagDROPITEM@@@1@@Z 00428c50 f i Project.obj
 0001:00027c60       ??0iterator@?$_Tree@V?$_Tmap_traits@V?$basic_string@DU?$char_traits@D@std@@V?$allocator@D@2@@std@@KU?$less@V?$basic_string@DU?$char_traits@D@std@@V?$allocator@D@2@@std@@@2@V?$allocator@U?$pair@$$CBV?$basic_string@DU?$char_traits@D@std@@V?$allocator@D@2@@std@@K@std@@@2@$0A@@std@@@std@@QAE@PAU_Node@?$_Tree_nod@V?$_Tmap_traits@V?$basic_string@DU?$char_traits@D@std@@V?$allocator@D@2@@std@@KU?$less@V?$basic_string@DU?$char_traits@D@std@@V?$allocator@D@2@@std@@@2@V?$allocator@U?$pair@$$CBV?$basic_string@DU?$char_traits@D@std@@V?$allocator@D@2@@std@@K@std@@@2@$0A@@std@@@2@@Z 00428c60 f i Project.obj
 0001:00027c70       ?max_size@?$vector@UtagDROPITEM@@V?$allocator@UtagDROPITEM@@@std@@@std@@QBEIXZ 00428c70 f i Project.obj
 0001:00027c80       ?allocate@?$allocator@UtagDROPITEM@@@std@@QAEPAUtagDROPITEM@@I@Z 00428c80 f i Project.obj
 0001:00027ca0       ?begin@?$_Tree@V?$_Tmap_traits@V?$basic_string@DU?$char_traits@D@std@@V?$allocator@D@2@@std@@PAXU?$less@V?$basic_string@DU?$char_traits@D@std@@V?$allocator@D@2@@std@@@2@V?$allocator@U?$pair@$$CBV?$basic_string@DU?$char_traits@D@std@@V?$allocator@D@2@@std@@PAX@std@@@2@$0A@@std@@@std@@QAE?AViterator@12@XZ 00428ca0 f i Project.obj
 0001:00027cb0       ?end@?$_Tree@V?$_Tmap_traits@V?$basic_string@DU?$char_traits@D@std@@V?$allocator@D@2@@std@@PAXU?$less@V?$basic_string@DU?$char_traits@D@std@@V?$allocator@D@2@@std@@@2@V?$allocator@U?$pair@$$CBV?$basic_string@DU?$char_traits@D@std@@V?$allocator@D@2@@std@@PAX@std@@@2@$0A@@std@@@std@@QAE?AViterator@12@XZ 00428cb0 f i Project.obj
 0001:00027cc0       ??Citerator@?$_Tree@V?$_Tmap_traits@V?$basic_string@DU?$char_traits@D@std@@V?$allocator@D@2@@std@@PAXU?$less@V?$basic_string@DU?$char_traits@D@std@@V?$allocator@D@2@@std@@@2@V?$allocator@U?$pair@$$CBV?$basic_string@DU?$char_traits@D@std@@V?$allocator@D@2@@std@@PAX@std@@@2@$0A@@std@@@std@@QBEPAU?$pair@$$CBV?$basic_string@DU?$char_traits@D@std@@V?$allocator@D@2@@std@@PAX@2@XZ 00428cc0 f i Project.obj
 0001:00027cd0       ?_Erase@?$_Tree@V?$_Tset_traits@DU?$less@D@std@@V?$allocator@D@2@$0A@@std@@@std@@IAEXPAU_Node@?$_Tree_nod@V?$_Tset_traits@DU?$less@D@std@@V?$allocator@D@2@$0A@@std@@@2@@Z 00428cd0 f i Project.obj
 0001:00027d10       ??Econst_iterator@?$_Tree@V?$_Tmap_traits@V?$basic_string@DU?$char_traits@D@std@@V?$allocator@D@2@@std@@PAXU?$less@V?$basic_string@DU?$char_traits@D@std@@V?$allocator@D@2@@std@@@2@V?$allocator@U?$pair@$$CBV?$basic_string@DU?$char_traits@D@std@@V?$allocator@D@2@@std@@PAX@std@@@2@$0A@@std@@@std@@QAEAAV012@XZ 00428d10 f i Project.obj
 0001:00027d20       ?begin@?$_Tree@V?$_Tmap_traits@V?$basic_string@DU?$char_traits@D@std@@V?$allocator@D@2@@std@@KU?$less@V?$basic_string@DU?$char_traits@D@std@@V?$allocator@D@2@@std@@@2@V?$allocator@U?$pair@$$CBV?$basic_string@DU?$char_traits@D@std@@V?$allocator@D@2@@std@@K@std@@@2@$0A@@std@@@std@@QAE?AViterator@12@XZ 00428d20 f i Project.obj
 0001:00027d30       ?end@?$_Tree@V?$_Tset_traits@V?$basic_string@DU?$char_traits@D@std@@V?$allocator@D@2@@std@@U?$less@V?$basic_string@DU?$char_traits@D@std@@V?$allocator@D@2@@std@@@2@V?$allocator@V?$basic_string@DU?$char_traits@D@std@@V?$allocator@D@2@@std@@@2@$0A@@std@@@std@@QAE?AViterator@12@XZ 00428d30 f i Project.obj
 0001:00027d40       ?begin@?$_Tree@V?$_Tset_traits@DU?$less@D@std@@V?$allocator@D@2@$0A@@std@@@std@@QAE?AViterator@12@XZ 00428d40 f i Project.obj
 0001:00027d50       ?end@?$_Tree@V?$_Tset_traits@DU?$less@D@std@@V?$allocator@D@2@$0A@@std@@@std@@QAE?AViterator@12@XZ 00428d50 f i Project.obj
 0001:00027d60       ??Fiterator@?$_Tree@V?$_Tmap_traits@V?$basic_string@DU?$char_traits@D@std@@V?$allocator@D@2@@std@@PAXU?$less@V?$basic_string@DU?$char_traits@D@std@@V?$allocator@D@2@@std@@@2@V?$allocator@U?$pair@$$CBV?$basic_string@DU?$char_traits@D@std@@V?$allocator@D@2@@std@@PAX@std@@@2@$0A@@std@@@std@@QAEAAV012@XZ 00428d60 f i Project.obj
 0001:00027d70       ?_Buynode@?$_Tree@V?$_Tmap_traits@V?$basic_string@DU?$char_traits@D@std@@V?$allocator@D@2@@std@@KU?$less@V?$basic_string@DU?$char_traits@D@std@@V?$allocator@D@2@@std@@@2@V?$allocator@U?$pair@$$CBV?$basic_string@DU?$char_traits@D@std@@V?$allocator@D@2@@std@@K@std@@@2@$0A@@std@@@std@@IAEPAU_Node@?$_Tree_nod@V?$_Tmap_traits@V?$basic_string@DU?$char_traits@D@std@@V?$allocator@D@2@@std@@KU?$less@V?$basic_string@DU?$char_traits@D@std@@V?$allocator@D@2@@std@@@2@V?$allocator@U?$pair@$$CBV?$basic_string@DU?$char_traits@D@std@@V?$allocator@D@2@@std@@K@std@@@2@$0A@@std@@@2@XZ 00428d70 f i Project.obj
 0001:00027db0       ??0?$_Tree_ptr@V?$_Tmap_traits@V?$basic_string@DU?$char_traits@D@std@@V?$allocator@D@2@@std@@KU?$less@V?$basic_string@DU?$char_traits@D@std@@V?$allocator@D@2@@std@@@2@V?$allocator@U?$pair@$$CBV?$basic_string@DU?$char_traits@D@std@@V?$allocator@D@2@@std@@K@std@@@2@$0A@@std@@@std@@IAE@ABU?$less@V?$basic_string@DU?$char_traits@D@std@@V?$allocator@D@2@@std@@@1@V?$allocator@U?$pair@$$CBV?$basic_string@DU?$char_traits@D@std@@V?$allocator@D@2@@std@@K@std@@@1@@Z 00428db0 f i Project.obj
 0001:00027dc0       ?_Buynode@?$_Tree@V?$_Tmap_traits@V?$basic_string@DU?$char_traits@D@std@@V?$allocator@D@2@@std@@PAXU?$less@V?$basic_string@DU?$char_traits@D@std@@V?$allocator@D@2@@std@@@2@V?$allocator@U?$pair@$$CBV?$basic_string@DU?$char_traits@D@std@@V?$allocator@D@2@@std@@PAX@std@@@2@$0A@@std@@@std@@IAEPAU_Node@?$_Tree_nod@V?$_Tmap_traits@V?$basic_string@DU?$char_traits@D@std@@V?$allocator@D@2@@std@@PAXU?$less@V?$basic_string@DU?$char_traits@D@std@@V?$allocator@D@2@@std@@@2@V?$allocator@U?$pair@$$CBV?$basic_string@DU?$char_traits@D@std@@V?$allocator@D@2@@std@@PAX@std@@@2@$0A@@std@@@2@XZ 00428dc0 f i Project.obj
 0001:00027e00       ??0?$_Tree_ptr@V?$_Tmap_traits@V?$basic_string@DU?$char_traits@D@std@@V?$allocator@D@2@@std@@PAXU?$less@V?$basic_string@DU?$char_traits@D@std@@V?$allocator@D@2@@std@@@2@V?$allocator@U?$pair@$$CBV?$basic_string@DU?$char_traits@D@std@@V?$allocator@D@2@@std@@PAX@std@@@2@$0A@@std@@@std@@IAE@ABU?$less@V?$basic_string@DU?$char_traits@D@std@@V?$allocator@D@2@@std@@@1@V?$allocator@U?$pair@$$CBV?$basic_string@DU?$char_traits@D@std@@V?$allocator@D@2@@std@@PAX@std@@@1@@Z 00428e00 f i Project.obj
 0001:00027e10       ?_Buynode@?$_Tree@V?$_Tset_traits@V?$basic_string@DU?$char_traits@D@std@@V?$allocator@D@2@@std@@U?$less@V?$basic_string@DU?$char_traits@D@std@@V?$allocator@D@2@@std@@@2@V?$allocator@V?$basic_string@DU?$char_traits@D@std@@V?$allocator@D@2@@std@@@2@$0A@@std@@@std@@IAEPAU_Node@?$_Tree_nod@V?$_Tset_traits@V?$basic_string@DU?$char_traits@D@std@@V?$allocator@D@2@@std@@U?$less@V?$basic_string@DU?$char_traits@D@std@@V?$allocator@D@2@@std@@@2@V?$allocator@V?$basic_string@DU?$char_traits@D@std@@V?$allocator@D@2@@std@@@2@$0A@@std@@@2@XZ 00428e10 f i Project.obj
 0001:00027e50       ??0?$_Tree_ptr@V?$_Tset_traits@V?$basic_string@DU?$char_traits@D@std@@V?$allocator@D@2@@std@@U?$less@V?$basic_string@DU?$char_traits@D@std@@V?$allocator@D@2@@std@@@2@V?$allocator@V?$basic_string@DU?$char_traits@D@std@@V?$allocator@D@2@@std@@@2@$0A@@std@@@std@@IAE@ABU?$less@V?$basic_string@DU?$char_traits@D@std@@V?$allocator@D@2@@std@@@1@V?$allocator@V?$basic_string@DU?$char_traits@D@std@@V?$allocator@D@2@@std@@@1@@Z 00428e50 f i Project.obj
 0001:00027e60       ?_Buynode@?$_Tree@V?$_Tset_traits@DU?$less@D@std@@V?$allocator@D@2@$0A@@std@@@std@@IAEPAU_Node@?$_Tree_nod@V?$_Tset_traits@DU?$less@D@std@@V?$allocator@D@2@$0A@@std@@@2@XZ 00428e60 f i Project.obj
 0001:00027ea0       ??0?$_Tree_ptr@V?$_Tset_traits@DU?$less@D@std@@V?$allocator@D@2@$0A@@std@@@std@@IAE@ABU?$less@D@1@V?$allocator@D@1@@Z 00428ea0 f i Project.obj
 0001:00027eb0       ??Eiterator@?$_Tree@V?$_Tset_traits@V?$basic_string@DU?$char_traits@D@std@@V?$allocator@D@2@@std@@U?$less@V?$basic_string@DU?$char_traits@D@std@@V?$allocator@D@2@@std@@@2@V?$allocator@V?$basic_string@DU?$char_traits@D@std@@V?$allocator@D@2@@std@@@2@$0A@@std@@@std@@QAEAAV012@XZ 00428eb0 f i Project.obj
 0001:00027ec0       ??Eiterator@?$_Tree@V?$_Tset_traits@DU?$less@D@std@@V?$allocator@D@2@$0A@@std@@@std@@QAEAAV012@XZ 00428ec0 f i Project.obj
 0001:00027ed0       ??Econst_iterator@?$_Tree@V?$_Tmap_traits@V?$basic_string@DU?$char_traits@D@std@@V?$allocator@D@2@@std@@KU?$less@V?$basic_string@DU?$char_traits@D@std@@V?$allocator@D@2@@std@@@2@V?$allocator@U?$pair@$$CBV?$basic_string@DU?$char_traits@D@std@@V?$allocator@D@2@@std@@K@std@@@2@$0A@@std@@@std@@QAEAAV012@XZ 00428ed0 f i Project.obj
 0001:00027ee0       ??$_Destroy_range@UtagDROPITEM@@V?$allocator@UtagDROPITEM@@@std@@@std@@YAXPAUtagDROPITEM@@0AAV?$allocator@UtagDROPITEM@@@0@U_Nonscalar_ptr_iterator_tag@0@@Z 00428ee0 f i Project.obj
 0001:00027ef0       ??$_Destroy_range@UtagBeginItem@@V?$allocator@UtagBeginItem@@@std@@@std@@YAXPAUtagBeginItem@@0AAV?$allocator@UtagBeginItem@@@0@U_Nonscalar_ptr_iterator_tag@0@@Z 00428ef0 f i Project.obj
 0001:00027f00       ?end@?$_Tree@V?$_Tmap_traits@V?$basic_string@DU?$char_traits@D@std@@V?$allocator@D@2@@std@@KU?$less@V?$basic_string@DU?$char_traits@D@std@@V?$allocator@D@2@@std@@@2@V?$allocator@U?$pair@$$CBV?$basic_string@DU?$char_traits@D@std@@V?$allocator@D@2@@std@@K@std@@@2@$0A@@std@@@std@@QAE?AViterator@12@XZ 00428f00 f i Project.obj
 0001:00027f10       ??$_Destroy_range@UtagDROPITEM@@V?$allocator@UtagDROPITEM@@@std@@@std@@YAXPAUtagDROPITEM@@0AAV?$allocator@UtagDROPITEM@@@0@@Z 00428f10 f i Project.obj
 0001:00027f20       ?LoadDefOfWorld@CProject@@QAEHPBD@Z 00428f20 f   Project.obj
 0001:00028110       ?LoadExpTable@CProject@@QAEHPBD@Z 00429110 f   Project.obj
 0001:000282a0       ?clear@?$_Tree@V?$_Tset_traits@DU?$less@D@std@@V?$allocator@D@2@$0A@@std@@@std@@QAEXXZ 004292a0 f i Project.obj
 0001:000282d0       ??Eiterator@?$_Tree@V?$_Tmap_traits@V?$basic_string@DU?$char_traits@D@std@@V?$allocator@D@2@@std@@PAXU?$less@V?$basic_string@DU?$char_traits@D@std@@V?$allocator@D@2@@std@@@2@V?$allocator@U?$pair@$$CBV?$basic_string@DU?$char_traits@D@std@@V?$allocator@D@2@@std@@PAX@std@@@2@$0A@@std@@@std@@QAEAAV012@XZ 004292d0 f i Project.obj
 0001:000282e0       ?_Init@?$_Tree@V?$_Tmap_traits@V?$basic_string@DU?$char_traits@D@std@@V?$allocator@D@2@@std@@KU?$less@V?$basic_string@DU?$char_traits@D@std@@V?$allocator@D@2@@std@@@2@V?$allocator@U?$pair@$$CBV?$basic_string@DU?$char_traits@D@std@@V?$allocator@D@2@@std@@K@std@@@2@$0A@@std@@@std@@IAEXXZ 004292e0 f i Project.obj
 0001:00028310       ??0?$_Tree_val@V?$_Tmap_traits@V?$basic_string@DU?$char_traits@D@std@@V?$allocator@D@2@@std@@KU?$less@V?$basic_string@DU?$char_traits@D@std@@V?$allocator@D@2@@std@@@2@V?$allocator@U?$pair@$$CBV?$basic_string@DU?$char_traits@D@std@@V?$allocator@D@2@@std@@K@std@@@2@$0A@@std@@@std@@IAE@ABU?$less@V?$basic_string@DU?$char_traits@D@std@@V?$allocator@D@2@@std@@@1@V?$allocator@U?$pair@$$CBV?$basic_string@DU?$char_traits@D@std@@V?$allocator@D@2@@std@@K@std@@@1@@Z 00429310 f i Project.obj
 0001:00028320       ?_Init@?$_Tree@V?$_Tmap_traits@V?$basic_string@DU?$char_traits@D@std@@V?$allocator@D@2@@std@@PAXU?$less@V?$basic_string@DU?$char_traits@D@std@@V?$allocator@D@2@@std@@@2@V?$allocator@U?$pair@$$CBV?$basic_string@DU?$char_traits@D@std@@V?$allocator@D@2@@std@@PAX@std@@@2@$0A@@std@@@std@@IAEXXZ 00429320 f i Project.obj
 0001:00028350       ??0?$_Tree_val@V?$_Tmap_traits@V?$basic_string@DU?$char_traits@D@std@@V?$allocator@D@2@@std@@PAXU?$less@V?$basic_string@DU?$char_traits@D@std@@V?$allocator@D@2@@std@@@2@V?$allocator@U?$pair@$$CBV?$basic_string@DU?$char_traits@D@std@@V?$allocator@D@2@@std@@PAX@std@@@2@$0A@@std@@@std@@IAE@ABU?$less@V?$basic_string@DU?$char_traits@D@std@@V?$allocator@D@2@@std@@@1@V?$allocator@U?$pair@$$CBV?$basic_string@DU?$char_traits@D@std@@V?$allocator@D@2@@std@@PAX@std@@@1@@Z 00429350 f i Project.obj
 0001:00028360       ?_Init@?$_Tree@V?$_Tset_traits@V?$basic_string@DU?$char_traits@D@std@@V?$allocator@D@2@@std@@U?$less@V?$basic_string@DU?$char_traits@D@std@@V?$allocator@D@2@@std@@@2@V?$allocator@V?$basic_string@DU?$char_traits@D@std@@V?$allocator@D@2@@std@@@2@$0A@@std@@@std@@IAEXXZ 00429360 f i Project.obj
 0001:00028390       ??0?$_Tree_val@V?$_Tset_traits@V?$basic_string@DU?$char_traits@D@std@@V?$allocator@D@2@@std@@U?$less@V?$basic_string@DU?$char_traits@D@std@@V?$allocator@D@2@@std@@@2@V?$allocator@V?$basic_string@DU?$char_traits@D@std@@V?$allocator@D@2@@std@@@2@$0A@@std@@@std@@IAE@ABU?$less@V?$basic_string@DU?$char_traits@D@std@@V?$allocator@D@2@@std@@@1@V?$allocator@V?$basic_string@DU?$char_traits@D@std@@V?$allocator@D@2@@std@@@1@@Z 00429390 f i Project.obj
 0001:000283a0       ?_Init@?$_Tree@V?$_Tset_traits@DU?$less@D@std@@V?$allocator@D@2@$0A@@std@@@std@@IAEXXZ 004293a0 f i Project.obj
 0001:000283d0       ??0?$_Tree_val@V?$_Tset_traits@DU?$less@D@std@@V?$allocator@D@2@$0A@@std@@@std@@IAE@ABU?$less@D@1@V?$allocator@D@1@@Z 004293d0 f i Project.obj
 0001:000283e0       ??Eiterator@?$_Tree@V?$_Tmap_traits@V?$basic_string@DU?$char_traits@D@std@@V?$allocator@D@2@@std@@PAXU?$less@V?$basic_string@DU?$char_traits@D@std@@V?$allocator@D@2@@std@@@2@V?$allocator@U?$pair@$$CBV?$basic_string@DU?$char_traits@D@std@@V?$allocator@D@2@@std@@PAX@std@@@2@$0A@@std@@@std@@QAE?AV012@H@Z 004293e0 f i Project.obj
 0001:00028400       ??Eiterator@?$_Tree@V?$_Tset_traits@V?$basic_string@DU?$char_traits@D@std@@V?$allocator@D@2@@std@@U?$less@V?$basic_string@DU?$char_traits@D@std@@V?$allocator@D@2@@std@@@2@V?$allocator@V?$basic_string@DU?$char_traits@D@std@@V?$allocator@D@2@@std@@@2@$0A@@std@@@std@@QAE?AV012@H@Z 00429400 f i Project.obj
 0001:00028420       ??Eiterator@?$_Tree@V?$_Tset_traits@DU?$less@D@std@@V?$allocator@D@2@$0A@@std@@@std@@QAE?AV012@H@Z 00429420 f i Project.obj
 0001:00028440       ??Eiterator@?$_Tree@V?$_Tmap_traits@V?$basic_string@DU?$char_traits@D@std@@V?$allocator@D@2@@std@@KU?$less@V?$basic_string@DU?$char_traits@D@std@@V?$allocator@D@2@@std@@@2@V?$allocator@U?$pair@$$CBV?$basic_string@DU?$char_traits@D@std@@V?$allocator@D@2@@std@@K@std@@@2@$0A@@std@@@std@@QAEAAV012@XZ 00429440 f i Project.obj
 0001:00028450       ??$_Destroy_range@UtagBeginItem@@V?$allocator@UtagBeginItem@@@std@@@std@@YAXPAUtagBeginItem@@0AAV?$allocator@UtagBeginItem@@@0@@Z 00429450 f i Project.obj
 0001:00028460       ?_Destroy@?$vector@UtagDROPITEM@@V?$allocator@UtagDROPITEM@@@std@@@std@@IAEXPAUtagDROPITEM@@0@Z 00429460 f i Project.obj
 0001:00028470       ??1?$pair@$$CBV?$basic_string@DU?$char_traits@D@std@@V?$allocator@D@2@@std@@PAX@std@@QAE@XZ 00429470 f i Project.obj
 0001:000284a0       ??0?$_Tree@V?$_Tmap_traits@V?$basic_string@DU?$char_traits@D@std@@V?$allocator@D@2@@std@@KU?$less@V?$basic_string@DU?$char_traits@D@std@@V?$allocator@D@2@@std@@@2@V?$allocator@U?$pair@$$CBV?$basic_string@DU?$char_traits@D@std@@V?$allocator@D@2@@std@@K@std@@@2@$0A@@std@@@std@@QAE@ABU?$less@V?$basic_string@DU?$char_traits@D@std@@V?$allocator@D@2@@std@@@1@ABV?$allocator@U?$pair@$$CBV?$basic_string@DU?$char_traits@D@std@@V?$allocator@D@2@@std@@K@std@@@1@@Z 004294a0 f i Project.obj
 0001:000284d0       ??0?$_Tree@V?$_Tmap_traits@V?$basic_string@DU?$char_traits@D@std@@V?$allocator@D@2@@std@@PAXU?$less@V?$basic_string@DU?$char_traits@D@std@@V?$allocator@D@2@@std@@@2@V?$allocator@U?$pair@$$CBV?$basic_string@DU?$char_traits@D@std@@V?$allocator@D@2@@std@@PAX@std@@@2@$0A@@std@@@std@@QAE@ABU?$less@V?$basic_string@DU?$char_traits@D@std@@V?$allocator@D@2@@std@@@1@ABV?$allocator@U?$pair@$$CBV?$basic_string@DU?$char_traits@D@std@@V?$allocator@D@2@@std@@PAX@std@@@1@@Z 004294d0 f i Project.obj
 0001:00028500       ??0?$_Tree@V?$_Tset_traits@V?$basic_string@DU?$char_traits@D@std@@V?$allocator@D@2@@std@@U?$less@V?$basic_string@DU?$char_traits@D@std@@V?$allocator@D@2@@std@@@2@V?$allocator@V?$basic_string@DU?$char_traits@D@std@@V?$allocator@D@2@@std@@@2@$0A@@std@@@std@@QAE@ABU?$less@V?$basic_string@DU?$char_traits@D@std@@V?$allocator@D@2@@std@@@1@ABV?$allocator@V?$basic_string@DU?$char_traits@D@std@@V?$allocator@D@2@@std@@@1@@Z 00429500 f i Project.obj
 0001:00028530       ??0?$_Tree@V?$_Tset_traits@DU?$less@D@std@@V?$allocator@D@2@$0A@@std@@@std@@QAE@ABU?$less@D@1@ABV?$allocator@D@1@@Z 00429530 f i Project.obj
 0001:00028560       ?_Destroy@?$vector@UtagBeginItem@@V?$allocator@UtagBeginItem@@@std@@@std@@IAEXPAUtagBeginItem@@0@Z 00429560 f i Project.obj
 0001:00028570       ?_Lbound@?$_Tree@V?$_Tmap_traits@V?$basic_string@DU?$char_traits@D@std@@V?$allocator@D@2@@std@@PAXU?$less@V?$basic_string@DU?$char_traits@D@std@@V?$allocator@D@2@@std@@@2@V?$allocator@U?$pair@$$CBV?$basic_string@DU?$char_traits@D@std@@V?$allocator@D@2@@std@@PAX@std@@@2@$0A@@std@@@std@@IBEPAU_Node@?$_Tree_nod@V?$_Tmap_traits@V?$basic_string@DU?$char_traits@D@std@@V?$allocator@D@2@@std@@PAXU?$less@V?$basic_string@DU?$char_traits@D@std@@V?$allocator@D@2@@std@@@2@V?$allocator@U?$pair@$$CBV?$basic_string@DU?$char_traits@D@std@@V?$allocator@D@2@@std@@PAX@std@@@2@$0A@@std@@@2@ABV?$basic_string@DU?$char_traits@D@std@@V?$allocator@D@2@@2@@Z 00429570 f i Project.obj
 0001:00028630       ??Eiterator@?$_Tree@V?$_Tmap_traits@V?$basic_string@DU?$char_traits@D@std@@V?$allocator@D@2@@std@@KU?$less@V?$basic_string@DU?$char_traits@D@std@@V?$allocator@D@2@@std@@@2@V?$allocator@U?$pair@$$CBV?$basic_string@DU?$char_traits@D@std@@V?$allocator@D@2@@std@@K@std@@@2@$0A@@std@@@std@@QAE?AV012@H@Z 00429630 f i Project.obj
 0001:00028650       ??1_Node@?$_Tree_nod@V?$_Tset_traits@V?$basic_string@DU?$char_traits@D@std@@V?$allocator@D@2@@std@@U?$less@V?$basic_string@DU?$char_traits@D@std@@V?$allocator@D@2@@std@@@2@V?$allocator@V?$basic_string@DU?$char_traits@D@std@@V?$allocator@D@2@@std@@@2@$0A@@std@@@std@@QAE@XZ 00429650 f i Project.obj
 0001:00028680       ??1_Node@?$_Tree_nod@V?$_Tmap_traits@V?$basic_string@DU?$char_traits@D@std@@V?$allocator@D@2@@std@@PAXU?$less@V?$basic_string@DU?$char_traits@D@std@@V?$allocator@D@2@@std@@@2@V?$allocator@U?$pair@$$CBV?$basic_string@DU?$char_traits@D@std@@V?$allocator@D@2@@std@@PAX@std@@@2@$0A@@std@@@std@@QAE@XZ 00429680 f i Project.obj
 0001:000286b0       ??1?$pair@$$CBV?$basic_string@DU?$char_traits@D@std@@V?$allocator@D@2@@std@@K@std@@QAE@XZ 004296b0 f i Project.obj
 0001:000286e0       ?_Tidy@?$vector@UtagDROPITEM@@V?$allocator@UtagDROPITEM@@@std@@@std@@IAEXXZ 004296e0 f i Project.obj
 0001:00028710       ?_Tidy@?$vector@UtagBeginItem@@V?$allocator@UtagBeginItem@@@std@@@std@@IAEXXZ 00429710 f i Project.obj
 0001:00028740       ?lower_bound@?$_Tree@V?$_Tmap_traits@V?$basic_string@DU?$char_traits@D@std@@V?$allocator@D@2@@std@@PAXU?$less@V?$basic_string@DU?$char_traits@D@std@@V?$allocator@D@2@@std@@@2@V?$allocator@U?$pair@$$CBV?$basic_string@DU?$char_traits@D@std@@V?$allocator@D@2@@std@@PAX@std@@@2@$0A@@std@@@std@@QAE?AViterator@12@ABV?$basic_string@DU?$char_traits@D@std@@V?$allocator@D@2@@2@@Z 00429740 f i Project.obj
 0001:00028760       ??_G_Node@?$_Tree_nod@V?$_Tset_traits@V?$basic_string@DU?$char_traits@D@std@@V?$allocator@D@2@@std@@U?$less@V?$basic_string@DU?$char_traits@D@std@@V?$allocator@D@2@@std@@@2@V?$allocator@V?$basic_string@DU?$char_traits@D@std@@V?$allocator@D@2@@std@@@2@$0A@@std@@@std@@QAEPAXI@Z 00429760 f i Project.obj
 0001:00028780       ??_G_Node@?$_Tree_nod@V?$_Tmap_traits@V?$basic_string@DU?$char_traits@D@std@@V?$allocator@D@2@@std@@PAXU?$less@V?$basic_string@DU?$char_traits@D@std@@V?$allocator@D@2@@std@@@2@V?$allocator@U?$pair@$$CBV?$basic_string@DU?$char_traits@D@std@@V?$allocator@D@2@@std@@PAX@std@@@2@$0A@@std@@@std@@QAEPAXI@Z 00429780 f i Project.obj
 0001:000287a0       ??1_Node@?$_Tree_nod@V?$_Tmap_traits@V?$basic_string@DU?$char_traits@D@std@@V?$allocator@D@2@@std@@KU?$less@V?$basic_string@DU?$char_traits@D@std@@V?$allocator@D@2@@std@@@2@V?$allocator@U?$pair@$$CBV?$basic_string@DU?$char_traits@D@std@@V?$allocator@D@2@@std@@K@std@@@2@$0A@@std@@@std@@QAE@XZ 004297a0 f i Project.obj
 0001:000287d0       ??1?$vector@UtagDROPITEM@@V?$allocator@UtagDROPITEM@@@std@@@std@@QAE@XZ 004297d0 f i Project.obj
 0001:00028800       ?clear@?$vector@UtagDROPITEM@@V?$allocator@UtagDROPITEM@@@std@@@std@@QAEXXZ 00429800 f i Project.obj
 0001:00028830       ??1?$vector@UtagBeginItem@@V?$allocator@UtagBeginItem@@@std@@@std@@QAE@XZ 00429830 f i Project.obj
 0001:00028860       ?find@?$_Tree@V?$_Tmap_traits@V?$basic_string@DU?$char_traits@D@std@@V?$allocator@D@2@@std@@PAXU?$less@V?$basic_string@DU?$char_traits@D@std@@V?$allocator@D@2@@std@@@2@V?$allocator@U?$pair@$$CBV?$basic_string@DU?$char_traits@D@std@@V?$allocator@D@2@@std@@PAX@std@@@2@$0A@@std@@@std@@QAE?AViterator@12@ABV?$basic_string@DU?$char_traits@D@std@@V?$allocator@D@2@@2@@Z 00429860 f i Project.obj
 0001:000288d0       ??0?$pair@$$CBV?$basic_string@DU?$char_traits@D@std@@V?$allocator@D@2@@std@@PAX@std@@QAE@ABV?$basic_string@DU?$char_traits@D@std@@V?$allocator@D@2@@1@ABQAX@Z 004298d0 f i Project.obj
 0001:00028900       ??0?$pair@$$CBV?$basic_string@DU?$char_traits@D@std@@V?$allocator@D@2@@std@@PAX@std@@QAE@ABU01@@Z 00429900 f i Project.obj
 0001:00028930       ??$_Destroy@U_Node@?$_Tree_nod@V?$_Tset_traits@V?$basic_string@DU?$char_traits@D@std@@V?$allocator@D@2@@std@@U?$less@V?$basic_string@DU?$char_traits@D@std@@V?$allocator@D@2@@std@@@2@V?$allocator@V?$basic_string@DU?$char_traits@D@std@@V?$allocator@D@2@@std@@@2@$0A@@std@@@std@@@std@@YAXPAU_Node@?$_Tree_nod@V?$_Tset_traits@V?$basic_string@DU?$char_traits@D@std@@V?$allocator@D@2@@std@@U?$less@V?$basic_string@DU?$char_traits@D@std@@V?$allocator@D@2@@std@@@2@V?$allocator@V?$basic_string@DU?$char_traits@D@std@@V?$allocator@D@2@@std@@@2@$0A@@std@@@0@@Z 00429930 f i Project.obj
 0001:00028940       ??$_Destroy@U_Node@?$_Tree_nod@V?$_Tmap_traits@V?$basic_string@DU?$char_traits@D@std@@V?$allocator@D@2@@std@@PAXU?$less@V?$basic_string@DU?$char_traits@D@std@@V?$allocator@D@2@@std@@@2@V?$allocator@U?$pair@$$CBV?$basic_string@DU?$char_traits@D@std@@V?$allocator@D@2@@std@@PAX@std@@@2@$0A@@std@@@std@@@std@@YAXPAU_Node@?$_Tree_nod@V?$_Tmap_traits@V?$basic_string@DU?$char_traits@D@std@@V?$allocator@D@2@@std@@PAXU?$less@V?$basic_string@DU?$char_traits@D@std@@V?$allocator@D@2@@std@@@2@V?$allocator@U?$pair@$$CBV?$basic_string@DU?$char_traits@D@std@@V?$allocator@D@2@@std@@PAX@std@@@2@$0A@@std@@@0@@Z 00429940 f i Project.obj
 0001:00028950       ??_G_Node@?$_Tree_nod@V?$_Tmap_traits@V?$basic_string@DU?$char_traits@D@std@@V?$allocator@D@2@@std@@KU?$less@V?$basic_string@DU?$char_traits@D@std@@V?$allocator@D@2@@std@@@2@V?$allocator@U?$pair@$$CBV?$basic_string@DU?$char_traits@D@std@@V?$allocator@D@2@@std@@K@std@@@2@$0A@@std@@@std@@QAEPAXI@Z 00429950 f i Project.obj
 0001:00028970       ?Clear@CDropItemGenerator@@QAEXXZ 00429970 f i Project.obj
 0001:000289a0       ?_Xlen@?$vector@UtagDROPITEM@@V?$allocator@UtagDROPITEM@@@std@@@std@@IBEXXZ 004299a0 f i Project.obj
 0001:00028a10       ?GetRandomBeginPos@CProject@@QAEHKPAUD3DXVECTOR3@@@Z 00429a10 f   Project.obj
 0001:00028b10       ?_Xlen@?$vector@UtagBeginItem@@V?$allocator@UtagBeginItem@@@std@@@std@@IBEXXZ 00429b10 f i Project.obj
 0001:00028b80       ?destroy@?$allocator@U_Node@?$_Tree_nod@V?$_Tset_traits@V?$basic_string@DU?$char_traits@D@std@@V?$allocator@D@2@@std@@U?$less@V?$basic_string@DU?$char_traits@D@std@@V?$allocator@D@2@@std@@@2@V?$allocator@V?$basic_string@DU?$char_traits@D@std@@V?$allocator@D@2@@std@@@2@$0A@@std@@@std@@@std@@QAEXPAU_Node@?$_Tree_nod@V?$_Tset_traits@V?$basic_string@DU?$char_traits@D@std@@V?$allocator@D@2@@std@@U?$less@V?$basic_string@DU?$char_traits@D@std@@V?$allocator@D@2@@std@@@2@V?$allocator@V?$basic_string@DU?$char_traits@D@std@@V?$allocator@D@2@@std@@@2@$0A@@std@@@2@@Z 00429b80 f i Project.obj
 0001:00028b90       ?erase@?$_Tree@V?$_Tset_traits@V?$basic_string@DU?$char_traits@D@std@@V?$allocator@D@2@@std@@U?$less@V?$basic_string@DU?$char_traits@D@std@@V?$allocator@D@2@@std@@@2@V?$allocator@V?$basic_string@DU?$char_traits@D@std@@V?$allocator@D@2@@std@@@2@$0A@@std@@@std@@QAE?AViterator@12@V312@@Z 00429b90 f i Project.obj
 0001:00028e70       ?erase@?$_Tree@V?$_Tset_traits@DU?$less@D@std@@V?$allocator@D@2@$0A@@std@@@std@@QAE?AViterator@12@V312@@Z 00429e70 f i Project.obj
 0001:00029130       ?destroy@?$allocator@U_Node@?$_Tree_nod@V?$_Tmap_traits@V?$basic_string@DU?$char_traits@D@std@@V?$allocator@D@2@@std@@PAXU?$less@V?$basic_string@DU?$char_traits@D@std@@V?$allocator@D@2@@std@@@2@V?$allocator@U?$pair@$$CBV?$basic_string@DU?$char_traits@D@std@@V?$allocator@D@2@@std@@PAX@std@@@2@$0A@@std@@@std@@@std@@QAEXPAU_Node@?$_Tree_nod@V?$_Tmap_traits@V?$basic_string@DU?$char_traits@D@std@@V?$allocator@D@2@@std@@PAXU?$less@V?$basic_string@DU?$char_traits@D@std@@V?$allocator@D@2@@std@@@2@V?$allocator@U?$pair@$$CBV?$basic_string@DU?$char_traits@D@std@@V?$allocator@D@2@@std@@PAX@std@@@2@$0A@@std@@@2@@Z 0042a130 f i Project.obj
 0001:00029140       ??0_Node@?$_Tree_nod@V?$_Tmap_traits@V?$basic_string@DU?$char_traits@D@std@@V?$allocator@D@2@@std@@PAXU?$less@V?$basic_string@DU?$char_traits@D@std@@V?$allocator@D@2@@std@@@2@V?$allocator@U?$pair@$$CBV?$basic_string@DU?$char_traits@D@std@@V?$allocator@D@2@@std@@PAX@std@@@2@$0A@@std@@@std@@QAE@PAU012@00ABU?$pair@$$CBV?$basic_string@DU?$char_traits@D@std@@V?$allocator@D@2@@std@@PAX@2@D@Z 0042a140 f i Project.obj
 0001:000291a0       ??$_Destroy@U_Node@?$_Tree_nod@V?$_Tmap_traits@V?$basic_string@DU?$char_traits@D@std@@V?$allocator@D@2@@std@@KU?$less@V?$basic_string@DU?$char_traits@D@std@@V?$allocator@D@2@@std@@@2@V?$allocator@U?$pair@$$CBV?$basic_string@DU?$char_traits@D@std@@V?$allocator@D@2@@std@@K@std@@@2@$0A@@std@@@std@@@std@@YAXPAU_Node@?$_Tree_nod@V?$_Tmap_traits@V?$basic_string@DU?$char_traits@D@std@@V?$allocator@D@2@@std@@KU?$less@V?$basic_string@DU?$char_traits@D@std@@V?$allocator@D@2@@std@@@2@V?$allocator@U?$pair@$$CBV?$basic_string@DU?$char_traits@D@std@@V?$allocator@D@2@@std@@K@std@@@2@$0A@@std@@@0@@Z 0042a1a0 f i Project.obj
 0001:000291b0       ??1CDropItemGenerator@@UAE@XZ 0042a1b0 f i Project.obj
 0001:000291f0       ??_ECDropItemGenerator@@UAEPAXI@Z 0042a1f0 f i Project.obj
 0001:000291f0       ??_GCDropItemGenerator@@UAEPAXI@Z 0042a1f0 f i Project.obj
 0001:00029210       ?_Buy@?$vector@UtagDROPITEM@@V?$allocator@UtagDROPITEM@@@std@@@std@@IAE_NI@Z 0042a210 f i Project.obj
 0001:00029260       ??1MoverProp@@QAE@XZ       0042a260 f i Project.obj
 0001:000292d0       ?_Buy@?$vector@UtagBeginItem@@V?$allocator@UtagBeginItem@@@std@@@std@@IAE_NI@Z 0042a2d0 f i Project.obj
 0001:00029320       ?_Erase@?$_Tree@V?$_Tset_traits@V?$basic_string@DU?$char_traits@D@std@@V?$allocator@D@2@@std@@U?$less@V?$basic_string@DU?$char_traits@D@std@@V?$allocator@D@2@@std@@@2@V?$allocator@V?$basic_string@DU?$char_traits@D@std@@V?$allocator@D@2@@std@@@2@$0A@@std@@@std@@IAEXPAU_Node@?$_Tree_nod@V?$_Tset_traits@V?$basic_string@DU?$char_traits@D@std@@V?$allocator@D@2@@std@@U?$less@V?$basic_string@DU?$char_traits@D@std@@V?$allocator@D@2@@std@@@2@V?$allocator@V?$basic_string@DU?$char_traits@D@std@@V?$allocator@D@2@@std@@@2@$0A@@std@@@2@@Z 0042a320 f i Project.obj
 0001:00029360       ?erase@?$_Tree@V?$_Tset_traits@DU?$less@D@std@@V?$allocator@D@2@$0A@@std@@@std@@QAE?AViterator@12@V312@0@Z 0042a360 f i Project.obj
 0001:00029420       ?erase@?$_Tree@V?$_Tmap_traits@V?$basic_string@DU?$char_traits@D@std@@V?$allocator@D@2@@std@@PAXU?$less@V?$basic_string@DU?$char_traits@D@std@@V?$allocator@D@2@@std@@@2@V?$allocator@U?$pair@$$CBV?$basic_string@DU?$char_traits@D@std@@V?$allocator@D@2@@std@@PAX@std@@@2@$0A@@std@@@std@@QAE?AViterator@12@V312@@Z 0042a420 f i Project.obj
 0001:00029700       ?_Buynode@?$_Tree@V?$_Tmap_traits@V?$basic_string@DU?$char_traits@D@std@@V?$allocator@D@2@@std@@PAXU?$less@V?$basic_string@DU?$char_traits@D@std@@V?$allocator@D@2@@std@@@2@V?$allocator@U?$pair@$$CBV?$basic_string@DU?$char_traits@D@std@@V?$allocator@D@2@@std@@PAX@std@@@2@$0A@@std@@@std@@IAEPAU_Node@?$_Tree_nod@V?$_Tmap_traits@V?$basic_string@DU?$char_traits@D@std@@V?$allocator@D@2@@std@@PAXU?$less@V?$basic_string@DU?$char_traits@D@std@@V?$allocator@D@2@@std@@@2@V?$allocator@U?$pair@$$CBV?$basic_string@DU?$char_traits@D@std@@V?$allocator@D@2@@std@@PAX@std@@@2@$0A@@std@@@2@PAU342@00ABU?$pair@$$CBV?$basic_string@DU?$char_traits@D@std@@V?$allocator@D@2@@std@@PAX@2@D@Z 0042a700 f i Project.obj
 0001:00029790       ?destroy@?$allocator@U_Node@?$_Tree_nod@V?$_Tmap_traits@V?$basic_string@DU?$char_traits@D@std@@V?$allocator@D@2@@std@@KU?$less@V?$basic_string@DU?$char_traits@D@std@@V?$allocator@D@2@@std@@@2@V?$allocator@U?$pair@$$CBV?$basic_string@DU?$char_traits@D@std@@V?$allocator@D@2@@std@@K@std@@@2@$0A@@std@@@std@@@std@@QAEXPAU_Node@?$_Tree_nod@V?$_Tmap_traits@V?$basic_string@DU?$char_traits@D@std@@V?$allocator@D@2@@std@@KU?$less@V?$basic_string@DU?$char_traits@D@std@@V?$allocator@D@2@@std@@@2@V?$allocator@U?$pair@$$CBV?$basic_string@DU?$char_traits@D@std@@V?$allocator@D@2@@std@@K@std@@@2@$0A@@std@@@2@@Z 0042a790 f i Project.obj
 0001:000297a0       ?_Erase@?$_Tree@V?$_Tmap_traits@V?$basic_string@DU?$char_traits@D@std@@V?$allocator@D@2@@std@@PAXU?$less@V?$basic_string@DU?$char_traits@D@std@@V?$allocator@D@2@@std@@@2@V?$allocator@U?$pair@$$CBV?$basic_string@DU?$char_traits@D@std@@V?$allocator@D@2@@std@@PAX@std@@@2@$0A@@std@@@std@@IAEXPAU_Node@?$_Tree_nod@V?$_Tmap_traits@V?$basic_string@DU?$char_traits@D@std@@V?$allocator@D@2@@std@@PAXU?$less@V?$basic_string@DU?$char_traits@D@std@@V?$allocator@D@2@@std@@@2@V?$allocator@U?$pair@$$CBV?$basic_string@DU?$char_traits@D@std@@V?$allocator@D@2@@std@@PAX@std@@@2@$0A@@std@@@2@@Z 0042a7a0 f i Project.obj
 0001:000297e0       ??0?$vector@UtagDROPITEM@@V?$allocator@UtagDROPITEM@@@std@@@std@@QAE@XZ 0042a7e0 f i Project.obj
 0001:000297f0       ??_EMoverProp@@QAEPAXI@Z   0042a7f0 f i Project.obj
 0001:00029850       ??0?$vector@UtagBeginItem@@V?$allocator@UtagBeginItem@@@std@@@std@@QAE@XZ 0042a850 f i Project.obj
 0001:00029860       ?clear@?$_Tree@V?$_Tset_traits@V?$basic_string@DU?$char_traits@D@std@@V?$allocator@D@2@@std@@U?$less@V?$basic_string@DU?$char_traits@D@std@@V?$allocator@D@2@@std@@@2@V?$allocator@V?$basic_string@DU?$char_traits@D@std@@V?$allocator@D@2@@std@@@2@$0A@@std@@@std@@QAEXXZ 0042a860 f i Project.obj
 0001:00029890       ?_Tidy@?$_Tree@V?$_Tset_traits@DU?$less@D@std@@V?$allocator@D@2@$0A@@std@@@std@@IAEXXZ 0042a890 f i Project.obj
