; Listing generated by Microsoft (R) Optimizing Compiler Version 13.10.6030 

	TITLE	\Documents and Settings\test\Mes documents\Source\Virtuos_v17\Build\Program\_Database\DBBackEndSystem.cpp
	.386P
include listing.inc
if @Version gt 510
.model FLAT
else
_TEXT	SEGMENT PARA USE32 PUBLIC 'CODE'
_TEXT	ENDS
_DATA	SEGMENT DWORD USE32 PUBLIC 'DATA'
_DATA	ENDS
CONST	SEGMENT DWORD USE32 PUBLIC 'CONST'
CONST	ENDS
_BSS	SEGMENT DWORD USE32 PUBLIC 'BSS'
_BSS	ENDS
$$SYMBOLS	SEGMENT BYTE USE32 'DEBSYM'
$$SYMBOLS	ENDS
_TLS	SEGMENT DWORD USE32 PUBLIC 'TLS'
_TLS	ENDS
;	COMDAT ??_C@_0DB@BEDINLHB@RANKING?4RANKING_DBF?4dbo?4RANKING_@
CONST	SEGMENT DWORD USE32 PUBLIC 'CONST'
CONST	ENDS
;	COMDAT ??_C@_0CN@HNMEKJGP@CDbManager?3?3UpdateGuildRanking?$LP?$KB@
CONST	SEGMENT DWORD USE32 PUBLIC 'CONST'
CONST	ENDS
;	COMDAT ??_C@_08LJMBJH@m_dwLogo?$AA@
CONST	SEGMENT DWORD USE32 PUBLIC 'CONST'
CONST	ENDS
;	COMDAT ??_C@_09NKFNPOPN@m_szGuild?$AA@
CONST	SEGMENT DWORD USE32 PUBLIC 'CONST'
CONST	ENDS
;	COMDAT ??_C@_08HDDJDJAG@m_szName?$AA@
CONST	SEGMENT DWORD USE32 PUBLIC 'CONST'
CONST	ENDS
;	COMDAT ??_C@_06LJIKPPDH@m_nWin?$AA@
CONST	SEGMENT DWORD USE32 PUBLIC 'CONST'
CONST	ENDS
;	COMDAT ??_C@_07IGCLHJHO@m_nLose?$AA@
CONST	SEGMENT DWORD USE32 PUBLIC 'CONST'
CONST	ENDS
;	COMDAT ??_C@_0N@BBOGLCAO@m_nSurrender?$AA@
CONST	SEGMENT DWORD USE32 PUBLIC 'CONST'
CONST	ENDS
;	COMDAT ??_C@_0L@EKKIFFNL@m_AvgLevel?$AA@
CONST	SEGMENT DWORD USE32 PUBLIC 'CONST'
CONST	ENDS
;	COMDAT ??_C@_0M@EMHJODPK@m_nWinPoint?$AA@
CONST	SEGMENT DWORD USE32 PUBLIC 'CONST'
CONST	ENDS
;	COMDAT ??_C@_0BG@CJGBCKAI@MAKE_RANKING_STR?5?8?$CFd?8?$AA@
CONST	SEGMENT DWORD USE32 PUBLIC 'CONST'
CONST	ENDS
;	COMDAT ??_C@_0CG@IPKIBOKB@CDbManager?3?3RankingDBUpdate?5?$CI?$CFs?$CJ@
CONST	SEGMENT DWORD USE32 PUBLIC 'CONST'
CONST	ENDS
;	COMDAT ??_C@_0BC@MOGJFHKK@tr1?3?3bad_weak_ptr?$AA@
CONST	SEGMENT DWORD USE32 PUBLIC 'CONST'
CONST	ENDS
;	COMDAT ??_C@_0BD@IOHNFIBA@SetLOD?5?3?5lv?$DN?$CFd?0?5?$CFs?$AA@
CONST	SEGMENT DWORD USE32 PUBLIC 'CONST'
CONST	ENDS
;	COMDAT ??_C@_02PCIJFNDE@?$AN?6?$AA@
CONST	SEGMENT DWORD USE32 PUBLIC 'CONST'
CONST	ENDS
;	COMDAT ??_C@_01DNKMNLPK@?$HM?$AA@
CONST	SEGMENT DWORD USE32 PUBLIC 'CONST'
CONST	ENDS
;	COMDAT ??_C@_0GK@BOIJKFBN@?2Documents?5and?5Settings?2test?2Mes@
CONST	SEGMENT DWORD USE32 PUBLIC 'CONST'
CONST	ENDS
;	COMDAT ??_C@_0CB@MFHCCELP@?$CFs?0?5?$CFd?5BackSystem?5Connect?5Failed@
CONST	SEGMENT DWORD USE32 PUBLIC 'CONST'
CONST	ENDS
;	COMDAT ??_C@_0BJ@POKGHGPN@GAME_BACKSYSTEM_STR?5?8S0?8?$AA@
CONST	SEGMENT DWORD USE32 PUBLIC 'CONST'
CONST	ENDS
;	COMDAT ??_C@_09OGDCHKLK@curr_time?$AA@
CONST	SEGMENT DWORD USE32 PUBLIC 'CONST'
CONST	ENDS
;	COMDAT ??_C@_0CF@CAIDFNFN@GAME_BACKSYSTEM_STR?5?8S4?8?0?8?$CF02d?8?0@
CONST	SEGMENT DWORD USE32 PUBLIC 'CONST'
CONST	ENDS
;	COMDAT ??_C@_03GLPMCEFE@msg?$AA@
CONST	SEGMENT DWORD USE32 PUBLIC 'CONST'
CONST	ENDS
;	COMDAT ??_C@_0CF@BDAEODNG@GAME_BACKSYSTEM_STR?5?8S1?8?0?8?$CF02d?8?0@
CONST	SEGMENT DWORD USE32 PUBLIC 'CONST'
CONST	ENDS
;	COMDAT ??_C@_07MGNKFCA@bResult?$AA@
CONST	SEGMENT DWORD USE32 PUBLIC 'CONST'
CONST	ENDS
;	COMDAT ??_C@_06CJHGHFEP@szName?$AA@
CONST	SEGMENT DWORD USE32 PUBLIC 'CONST'
CONST	ENDS
;	COMDAT ??_C@_04HCCHHEEF@rate?$AA@
CONST	SEGMENT DWORD USE32 PUBLIC 'CONST'
CONST	ENDS
;	COMDAT ??_C@_03HKMMIPC@Exp?$AA@
CONST	SEGMENT DWORD USE32 PUBLIC 'CONST'
CONST	ENDS
;	COMDAT ??_C@_05OPFOCHJP@Penya?$AA@
CONST	SEGMENT DWORD USE32 PUBLIC 'CONST'
CONST	ENDS
;	COMDAT ??_C@_08COMINNNE@ItemDrop?$AA@
CONST	SEGMENT DWORD USE32 PUBLIC 'CONST'
CONST	ENDS
;	COMDAT ??_C@_07LKKEEFDG@Rebirth?$AA@
CONST	SEGMENT DWORD USE32 PUBLIC 'CONST'
CONST	ENDS
;	COMDAT ??_C@_08PDOHAPNM@HitPoint?$AA@
CONST	SEGMENT DWORD USE32 PUBLIC 'CONST'
CONST	ENDS
;	COMDAT ??_C@_0M@LAGJIOMN@AttackPower?$AA@
CONST	SEGMENT DWORD USE32 PUBLIC 'CONST'
CONST	ENDS
;	COMDAT ??_C@_07JGOIAFF@Respawn?$AA@
CONST	SEGMENT DWORD USE32 PUBLIC 'CONST'
CONST	ENDS
;	COMDAT ??_C@_0L@ICGAFIAO@Aggressive?$AA@
CONST	SEGMENT DWORD USE32 PUBLIC 'CONST'
CONST	ENDS
;	COMDAT ??_C@_05NFJELHBG@Price?$AA@
CONST	SEGMENT DWORD USE32 PUBLIC 'CONST'
CONST	ENDS
;	COMDAT ??_C@_0CF@CHJIJKP@GAME_BACKSYSTEM_STR?5?8S2?8?0?8?$CF02d?8?0@
CONST	SEGMENT DWORD USE32 PUBLIC 'CONST'
CONST	ENDS
;	COMDAT ??_C@_03CHBJLALM@Num?$AA@
CONST	SEGMENT DWORD USE32 PUBLIC 'CONST'
CONST	ENDS
;	COMDAT ??_C@_04FABLJDN@Name?$AA@
CONST	SEGMENT DWORD USE32 PUBLIC 'CONST'
CONST	ENDS
;	COMDAT ??_C@_05KAFNCDDG@Pos_x?$AA@
CONST	SEGMENT DWORD USE32 PUBLIC 'CONST'
CONST	ENDS
;	COMDAT ??_C@_05LJEGBCHH@Pos_y?$AA@
CONST	SEGMENT DWORD USE32 PUBLIC 'CONST'
CONST	ENDS
;	COMDAT ??_C@_05JCGLEBLE@Pos_z?$AA@
CONST	SEGMENT DWORD USE32 PUBLIC 'CONST'
CONST	ENDS
;	COMDAT ??_C@_08GACJPEFO@Quantity?$AA@
CONST	SEGMENT DWORD USE32 PUBLIC 'CONST'
CONST	ENDS
;	COMDAT ??_C@_05CFMCGLCK@Range?$AA@
CONST	SEGMENT DWORD USE32 PUBLIC 'CONST'
CONST	ENDS
;	COMDAT ??_C@_06NIHFGDBN@dwTime?$AA@
CONST	SEGMENT DWORD USE32 PUBLIC 'CONST'
CONST	ENDS
;	COMDAT ??_C@_0CF@LLICFCEH@GAME_BACKSYSTEM_STR?5?8S3?8?0?8?$CF02d?8?0@
CONST	SEGMENT DWORD USE32 PUBLIC 'CONST'
CONST	ENDS
;	COMDAT ??_C@_07FLJJBEFD@MonName?$AA@
CONST	SEGMENT DWORD USE32 PUBLIC 'CONST'
CONST	ENDS
;	COMDAT ??_C@_07OIBJPBBC@Defence?$AA@
CONST	SEGMENT DWORD USE32 PUBLIC 'CONST'
CONST	ENDS
;	COMDAT ??_C@_0CB@HODAFBNJ@AddMonsterRespawn?5Overflow?5Error@
CONST	SEGMENT DWORD USE32 PUBLIC 'CONST'
CONST	ENDS
;	COMDAT ??_C@_0BO@JOPEDMLI@AddMonsterProp?5Overflow?5Error?$AA@
CONST	SEGMENT DWORD USE32 PUBLIC 'CONST'
CONST	ENDS
xdata$x	SEGMENT DWORD USE32 PUBLIC 'CONST'
xdata$x	ENDS
;	COMDAT ??0_GUILDQUEST@@QAE@XZ
_TEXT	SEGMENT PARA USE32 PUBLIC 'CODE'
_TEXT	ENDS
;	COMDAT ?what@bad_weak_ptr@boost@@UBEPBDXZ
_TEXT	SEGMENT PARA USE32 PUBLIC 'CODE'
_TEXT	ENDS
;	COMDAT ??1sp_counted_base@detail@boost@@UAE@XZ
_TEXT	SEGMENT PARA USE32 PUBLIC 'CODE'
_TEXT	ENDS
;	COMDAT ?destroy@sp_counted_base@detail@boost@@UAEXXZ
_TEXT	SEGMENT PARA USE32 PUBLIC 'CODE'
_TEXT	ENDS
;	COMDAT ?add_ref_copy@sp_counted_base@detail@boost@@QAEXXZ
_TEXT	SEGMENT PARA USE32 PUBLIC 'CODE'
_TEXT	ENDS
;	COMDAT ?add_ref_lock@sp_counted_base@detail@boost@@QAE_NXZ
_TEXT	SEGMENT PARA USE32 PUBLIC 'CODE'
_TEXT	ENDS
;	COMDAT ?release@sp_counted_base@detail@boost@@QAEXXZ
_TEXT	SEGMENT PARA USE32 PUBLIC 'CODE'
_TEXT	ENDS
;	COMDAT ?weak_add_ref@sp_counted_base@detail@boost@@QAEXXZ
_TEXT	SEGMENT PARA USE32 PUBLIC 'CODE'
_TEXT	ENDS
;	COMDAT ?weak_release@sp_counted_base@detail@boost@@QAEXXZ
_TEXT	SEGMENT PARA USE32 PUBLIC 'CODE'
_TEXT	ENDS
;	COMDAT ?use_count@sp_counted_base@detail@boost@@QBEJXZ
_TEXT	SEGMENT PARA USE32 PUBLIC 'CODE'
_TEXT	ENDS
;	COMDAT ??_Gsp_counted_base@detail@boost@@UAEPAXI@Z
_TEXT	SEGMENT PARA USE32 PUBLIC 'CODE'
_TEXT	ENDS
;	COMDAT ?use_count@shared_count@detail@boost@@QBEJXZ
_TEXT	SEGMENT PARA USE32 PUBLIC 'CODE'
_TEXT	ENDS
;	COMDAT ??0bad_weak_ptr@boost@@QAE@XZ
_TEXT	SEGMENT PARA USE32 PUBLIC 'CODE'
_TEXT	ENDS
;	COMDAT ??1bad_weak_ptr@boost@@UAE@XZ
_TEXT	SEGMENT PARA USE32 PUBLIC 'CODE'
_TEXT	ENDS
;	COMDAT ??_Gbad_weak_ptr@boost@@UAEPAXI@Z
_TEXT	SEGMENT PARA USE32 PUBLIC 'CODE'
_TEXT	ENDS
;	COMDAT ?GetCooltime@CLordSkillComponent@@QAEHXZ
_TEXT	SEGMENT PARA USE32 PUBLIC 'CODE'
_TEXT	ENDS
;	COMDAT ?SetTick@CLordSkillComponent@@QAEXH@Z
_TEXT	SEGMENT PARA USE32 PUBLIC 'CODE'
_TEXT	ENDS
;	COMDAT ??1CLordSkillComponentExecutable@@UAE@XZ
_TEXT	SEGMENT PARA USE32 PUBLIC 'CODE'
_TEXT	ENDS
;	COMDAT ?Use@CLordSkillComponentExecutable@@IAEXXZ
_TEXT	SEGMENT PARA USE32 PUBLIC 'CODE'
_TEXT	ENDS
;	COMDAT ?Execute@CLordSkillComponentExecutable@@UAEXKKPAX@Z
_TEXT	SEGMENT PARA USE32 PUBLIC 'CODE'
_TEXT	ENDS
;	COMDAT ??_GCLordSkillComponentExecutable@@UAEPAXI@Z
_TEXT	SEGMENT PARA USE32 PUBLIC 'CODE'
_TEXT	ENDS
;	COMDAT ?GetDeposit@CCandidate@@QBE_JXZ
_TEXT	SEGMENT PARA USE32 PUBLIC 'CODE'
_TEXT	ENDS
;	COMDAT ?GetVote@CCandidate@@QAEHXZ
_TEXT	SEGMENT PARA USE32 PUBLIC 'CODE'
_TEXT	ENDS
;	COMDAT ?GetCreate@CCandidate@@QAEJXZ
_TEXT	SEGMENT PARA USE32 PUBLIC 'CODE'
_TEXT	ENDS
;	COMDAT ?BackSystem@CDbManager@@QAEXXZ
_TEXT	SEGMENT PARA USE32 PUBLIC 'CODE'
_TEXT	ENDS
;	COMDAT ??_GCQuery@@QAEPAXI@Z
_TEXT	SEGMENT PARA USE32 PUBLIC 'CODE'
_TEXT	ENDS
;	COMDAT ?GetGemeSettingtime@CDbManager@@AAEXPAVCQuery@@H@Z
_TEXT	SEGMENT PARA USE32 PUBLIC 'CODE'
_TEXT	ENDS
;	COMDAT ?GetGMChat@CDbManager@@AAEHPAVCQuery@@PADAAH@Z
_TEXT	SEGMENT PARA USE32 PUBLIC 'CODE'
_TEXT	ENDS
;	COMDAT ?GetBaseGameSetting@CDbManager@@AAEHPAVCQuery@@PAD@Z
_TEXT	SEGMENT PARA USE32 PUBLIC 'CODE'
_TEXT	ENDS
;	COMDAT ?GetMonsterRespawnSetting@CDbManager@@AAEXPAVCQuery@@AAHQAHPAD@Z
_TEXT	SEGMENT PARA USE32 PUBLIC 'CODE'
_TEXT	ENDS
;	COMDAT ?GetMonsterPropSetting@CDbManager@@AAEXPAVCQuery@@PAD@Z
_TEXT	SEGMENT PARA USE32 PUBLIC 'CODE'
_TEXT	ENDS
;	COMDAT ?AddMonsterRespawn@CDbManager@@AAEHU_MONSTER_RESPAWN@@@Z
_TEXT	SEGMENT PARA USE32 PUBLIC 'CODE'
_TEXT	ENDS
;	COMDAT ?RemoveMonsterRespawn@CDbManager@@AAEHHAAHQAH@Z
_TEXT	SEGMENT PARA USE32 PUBLIC 'CODE'
_TEXT	ENDS
;	COMDAT ?AddMonsterProp@CDbManager@@AAEHU_MONSTER_PROP@@@Z
_TEXT	SEGMENT PARA USE32 PUBLIC 'CODE'
_TEXT	ENDS
;	COMDAT ?RemoveMonsterProp@CDbManager@@AAEHU_MONSTER_PROP@@@Z
_TEXT	SEGMENT PARA USE32 PUBLIC 'CODE'
_TEXT	ENDS
;	COMDAT ?Replace@?$CStringT@DV?$StrTraitMFC@DV?$ChTraitsCRT@D@ATL@@@@@ATL@@QAEHPBD0@Z
_TEXT	SEGMENT PARA USE32 PUBLIC 'CODE'
_TEXT	ENDS
;	COMDAT ?compare@?$basic_string@DU?$char_traits@D@std@@V?$allocator@D@2@@std@@QBEHABV12@@Z
_TEXT	SEGMENT PARA USE32 PUBLIC 'CODE'
_TEXT	ENDS
;	COMDAT ?end@?$_Tree@V?$_Tmap_traits@KP8CDPLoginSrvr@@AEXAAVCAr@@KPAEK@ZU?$less@K@std@@V?$allocator@U?$pair@$$CBKP8CDPLoginSrvr@@AEXAAVCAr@@KPAEK@Z@std@@@4@$0A@@std@@@std@@QAE?AViterator@12@XZ
_TEXT	SEGMENT PARA USE32 PUBLIC 'CODE'
_TEXT	ENDS
;	COMDAT ?find@?$_Tree@V?$_Tmap_traits@KP8CDPLoginSrvr@@AEXAAVCAr@@KPAEK@ZU?$less@K@std@@V?$allocator@U?$pair@$$CBKP8CDPLoginSrvr@@AEXAAVCAr@@KPAEK@Z@std@@@4@$0A@@std@@@std@@QAE?AViterator@12@ABK@Z
_TEXT	SEGMENT PARA USE32 PUBLIC 'CODE'
_TEXT	ENDS
;	COMDAT ??Citerator@?$_Tree@V?$_Tmap_traits@KP8CDPLoginSrvr@@AEXAAVCAr@@KPAEK@ZU?$less@K@std@@V?$allocator@U?$pair@$$CBKP8CDPLoginSrvr@@AEXAAVCAr@@KPAEK@Z@std@@@4@$0A@@std@@@std@@QBEPAU?$pair@$$CBKP8CDPLoginSrvr@@AEXAAVCAr@@KPAEK@Z@2@XZ
_TEXT	SEGMENT PARA USE32 PUBLIC 'CODE'
_TEXT	ENDS
;	COMDAT ??9const_iterator@?$_Tree@V?$_Tmap_traits@KP8CDPLoginSrvr@@AEXAAVCAr@@KPAEK@ZU?$less@K@std@@V?$allocator@U?$pair@$$CBKP8CDPLoginSrvr@@AEXAAVCAr@@KPAEK@Z@std@@@4@$0A@@std@@@std@@QBE_NABV012@@Z
_TEXT	SEGMENT PARA USE32 PUBLIC 'CODE'
_TEXT	ENDS
;	COMDAT ?Alloc@?$MemPooler@VCGuildMember@@@@QAEPAVCGuildMember@@XZ
_TEXT	SEGMENT PARA USE32 PUBLIC 'CODE'
_TEXT	ENDS
;	COMDAT ?Free@?$MemPooler@VCGuildMember@@@@QAEHPAVCGuildMember@@@Z
_TEXT	SEGMENT PARA USE32 PUBLIC 'CODE'
_TEXT	ENDS
;	COMDAT ?size@?$_Tree@V?$_Tmap_traits@KPAVCGuildMember@@U?$less@K@std@@V?$allocator@U?$pair@$$CBKPAVCGuildMember@@@std@@@3@$0A@@std@@@std@@QBEIXZ
_TEXT	SEGMENT PARA USE32 PUBLIC 'CODE'
_TEXT	ENDS
;	COMDAT ?Alloc@?$MemPooler@VCGuild@@@@QAEPAVCGuild@@XZ
_TEXT	SEGMENT PARA USE32 PUBLIC 'CODE'
_TEXT	ENDS
;	COMDAT ?Free@?$MemPooler@VCGuild@@@@QAEHPAVCGuild@@@Z
_TEXT	SEGMENT PARA USE32 PUBLIC 'CODE'
_TEXT	ENDS
;	COMDAT ?size@?$_Tree@V?$_Tmap_traits@KPAVCGuild@@U?$less@K@std@@V?$allocator@U?$pair@$$CBKPAVCGuild@@@std@@@3@$0A@@std@@@std@@QBEIXZ
_TEXT	SEGMENT PARA USE32 PUBLIC 'CODE'
_TEXT	ENDS
;	COMDAT ?size@?$_Tree@V?$_Tmap_traits@KPAU_PlayerData@@U?$less@K@std@@V?$allocator@U?$pair@$$CBKPAU_PlayerData@@@std@@@3@$0A@@std@@@std@@QBEIXZ
_TEXT	SEGMENT PARA USE32 PUBLIC 'CODE'
_TEXT	ENDS
;	COMDAT ?end@?$_Tree@V?$_Tmap_traits@KP8CDPCoreSrvr@@AEXAAVCAr@@PAEK@ZU?$less@K@std@@V?$allocator@U?$pair@$$CBKP8CDPCoreSrvr@@AEXAAVCAr@@PAEK@Z@std@@@4@$0A@@std@@@std@@QAE?AViterator@12@XZ
_TEXT	SEGMENT PARA USE32 PUBLIC 'CODE'
_TEXT	ENDS
;	COMDAT ?find@?$_Tree@V?$_Tmap_traits@KP8CDPCoreSrvr@@AEXAAVCAr@@PAEK@ZU?$less@K@std@@V?$allocator@U?$pair@$$CBKP8CDPCoreSrvr@@AEXAAVCAr@@PAEK@Z@std@@@4@$0A@@std@@@std@@QAE?AViterator@12@ABK@Z
_TEXT	SEGMENT PARA USE32 PUBLIC 'CODE'
_TEXT	ENDS
;	COMDAT ??Citerator@?$_Tree@V?$_Tmap_traits@KP8CDPCoreSrvr@@AEXAAVCAr@@PAEK@ZU?$less@K@std@@V?$allocator@U?$pair@$$CBKP8CDPCoreSrvr@@AEXAAVCAr@@PAEK@Z@std@@@4@$0A@@std@@@std@@QBEPAU?$pair@$$CBKP8CDPCoreSrvr@@AEXAAVCAr@@PAEK@Z@2@XZ
_TEXT	SEGMENT PARA USE32 PUBLIC 'CODE'
_TEXT	ENDS
;	COMDAT ??9const_iterator@?$_Tree@V?$_Tmap_traits@KP8CDPCoreSrvr@@AEXAAVCAr@@PAEK@ZU?$less@K@std@@V?$allocator@U?$pair@$$CBKP8CDPCoreSrvr@@AEXAAVCAr@@PAEK@Z@std@@@4@$0A@@std@@@std@@QBE_NABV012@@Z
_TEXT	SEGMENT PARA USE32 PUBLIC 'CODE'
_TEXT	ENDS
;	COMDAT ??R?$less@PAVsp_counted_base@detail@boost@@@std@@QBE_NABQAVsp_counted_base@detail@boost@@0@Z
_TEXT	SEGMENT PARA USE32 PUBLIC 'CODE'
_TEXT	ENDS
;	COMDAT ?size@?$vector@PAVCLordSkillComponentExecutable@@V?$allocator@PAVCLordSkillComponentExecutable@@@std@@@std@@QBEIXZ
_TEXT	SEGMENT PARA USE32 PUBLIC 'CODE'
_TEXT	ENDS
;	COMDAT ?size@?$vector@V?$shared_ptr@VCCandidate@@@boost@@V?$allocator@V?$shared_ptr@VCCandidate@@@boost@@@std@@@std@@QBEIXZ
_TEXT	SEGMENT PARA USE32 PUBLIC 'CODE'
_TEXT	ENDS
;	COMDAT ??0?$vector@MV?$allocator@M@std@@@std@@QAE@XZ
_TEXT	SEGMENT PARA USE32 PUBLIC 'CODE'
_TEXT	ENDS
;	COMDAT ??1?$vector@MV?$allocator@M@std@@@std@@QAE@XZ
_TEXT	SEGMENT PARA USE32 PUBLIC 'CODE'
_TEXT	ENDS
;	COMDAT ??0?$vector@HV?$allocator@H@std@@@std@@QAE@XZ
_TEXT	SEGMENT PARA USE32 PUBLIC 'CODE'
_TEXT	ENDS
;	COMDAT ??1?$vector@HV?$allocator@H@std@@@std@@QAE@XZ
_TEXT	SEGMENT PARA USE32 PUBLIC 'CODE'
_TEXT	ENDS
;	COMDAT ??C?$shared_ptr@VCCandidate@@@boost@@QBEPAVCCandidate@@XZ
_TEXT	SEGMENT PARA USE32 PUBLIC 'CODE'
_TEXT	ENDS
;	COMDAT ?size@?$vector@PAVCLEComponent@@V?$allocator@PAVCLEComponent@@@std@@@std@@QBEIXZ
_TEXT	SEGMENT PARA USE32 PUBLIC 'CODE'
_TEXT	ENDS
;	COMDAT ?size@?$vector@U?$pair@M_J@std@@V?$allocator@U?$pair@M_J@std@@@2@@std@@QBEIXZ
_TEXT	SEGMENT PARA USE32 PUBLIC 'CODE'
_TEXT	ENDS
;	COMDAT ?end@?$_Tree@V?$_Tmap_traits@KP8CDPTrans@@AEXAAVCAr@@KKKPAEK@ZU?$less@K@std@@V?$allocator@U?$pair@$$CBKP8CDPTrans@@AEXAAVCAr@@KKKPAEK@Z@std@@@4@$0A@@std@@@std@@QAE?AViterator@12@XZ
_TEXT	SEGMENT PARA USE32 PUBLIC 'CODE'
_TEXT	ENDS
;	COMDAT ?find@?$_Tree@V?$_Tmap_traits@KP8CDPTrans@@AEXAAVCAr@@KKKPAEK@ZU?$less@K@std@@V?$allocator@U?$pair@$$CBKP8CDPTrans@@AEXAAVCAr@@KKKPAEK@Z@std@@@4@$0A@@std@@@std@@QAE?AViterator@12@ABK@Z
_TEXT	SEGMENT PARA USE32 PUBLIC 'CODE'
_TEXT	ENDS
;	COMDAT ??Citerator@?$_Tree@V?$_Tmap_traits@KP8CDPTrans@@AEXAAVCAr@@KKKPAEK@ZU?$less@K@std@@V?$allocator@U?$pair@$$CBKP8CDPTrans@@AEXAAVCAr@@KKKPAEK@Z@std@@@4@$0A@@std@@@std@@QBEPAU?$pair@$$CBKP8CDPTrans@@AEXAAVCAr@@KKKPAEK@Z@2@XZ
_TEXT	SEGMENT PARA USE32 PUBLIC 'CODE'
_TEXT	ENDS
;	COMDAT ??9const_iterator@?$_Tree@V?$_Tmap_traits@KP8CDPTrans@@AEXAAVCAr@@KKKPAEK@ZU?$less@K@std@@V?$allocator@U?$pair@$$CBKP8CDPTrans@@AEXAAVCAr@@KKKPAEK@Z@std@@@4@$0A@@std@@@std@@QBE_NABV012@@Z
_TEXT	SEGMENT PARA USE32 PUBLIC 'CODE'
_TEXT	ENDS
;	COMDAT ?StringFindString@?$ChTraitsCRT@D@ATL@@SAPADPADPBD@Z
_TEXT	SEGMENT PARA USE32 PUBLIC 'CODE'
_TEXT	ENDS
;	COMDAT ?SafeStringLen@?$ChTraitsCRT@D@ATL@@SAHPBD@Z
_TEXT	SEGMENT PARA USE32 PUBLIC 'CODE'
_TEXT	ENDS
;	COMDAT ?compare@?$basic_string@DU?$char_traits@D@std@@V?$allocator@D@2@@std@@QBEHIIPBDI@Z
_TEXT	SEGMENT PARA USE32 PUBLIC 'CODE'
_TEXT	ENDS
;	COMDAT ??0?$allocator@H@std@@QAE@XZ
_TEXT	SEGMENT PARA USE32 PUBLIC 'CODE'
_TEXT	ENDS
;	COMDAT ?_Key@?$_Tree@V?$_Tmap_traits@KP8CDPLoginSrvr@@AEXAAVCAr@@KPAEK@ZU?$less@K@std@@V?$allocator@U?$pair@$$CBKP8CDPLoginSrvr@@AEXAAVCAr@@KPAEK@Z@std@@@4@$0A@@std@@@std@@KAABKPAU_Node@?$_Tree_nod@V?$_Tmap_traits@KP8CDPLoginSrvr@@AEXAAVCAr@@KPAEK@ZU?$less@K@std@@V?$allocator@U?$pair@$$CBKP8CDPLoginSrvr@@AEXAAVCAr@@KPAEK@Z@std@@@4@$0A@@std@@@2@@Z
_TEXT	SEGMENT PARA USE32 PUBLIC 'CODE'
_TEXT	ENDS
;	COMDAT ?lower_bound@?$_Tree@V?$_Tmap_traits@KP8CDPLoginSrvr@@AEXAAVCAr@@KPAEK@ZU?$less@K@std@@V?$allocator@U?$pair@$$CBKP8CDPLoginSrvr@@AEXAAVCAr@@KPAEK@Z@std@@@4@$0A@@std@@@std@@QAE?AViterator@12@ABK@Z
_TEXT	SEGMENT PARA USE32 PUBLIC 'CODE'
_TEXT	ENDS
;	COMDAT ??0iterator@?$_Tree@V?$_Tmap_traits@KP8CDPLoginSrvr@@AEXAAVCAr@@KPAEK@ZU?$less@K@std@@V?$allocator@U?$pair@$$CBKP8CDPLoginSrvr@@AEXAAVCAr@@KPAEK@Z@std@@@4@$0A@@std@@@std@@QAE@PAU_Node@?$_Tree_nod@V?$_Tmap_traits@KP8CDPLoginSrvr@@AEXAAVCAr@@KPAEK@ZU?$less@K@std@@V?$allocator@U?$pair@$$CBKP8CDPLoginSrvr@@AEXAAVCAr@@KPAEK@Z@std@@@4@$0A@@std@@@2@@Z
_TEXT	SEGMENT PARA USE32 PUBLIC 'CODE'
_TEXT	ENDS
;	COMDAT ??Diterator@?$_Tree@V?$_Tmap_traits@KP8CDPLoginSrvr@@AEXAAVCAr@@KPAEK@ZU?$less@K@std@@V?$allocator@U?$pair@$$CBKP8CDPLoginSrvr@@AEXAAVCAr@@KPAEK@Z@std@@@4@$0A@@std@@@std@@QBEAAU?$pair@$$CBKP8CDPLoginSrvr@@AEXAAVCAr@@KPAEK@Z@2@XZ
_TEXT	SEGMENT PARA USE32 PUBLIC 'CODE'
_TEXT	ENDS
;	COMDAT ??8const_iterator@?$_Tree@V?$_Tmap_traits@KP8CDPLoginSrvr@@AEXAAVCAr@@KPAEK@ZU?$less@K@std@@V?$allocator@U?$pair@$$CBKP8CDPLoginSrvr@@AEXAAVCAr@@KPAEK@Z@std@@@4@$0A@@std@@@std@@QBE_NABV012@@Z
_TEXT	SEGMENT PARA USE32 PUBLIC 'CODE'
_TEXT	ENDS
;	COMDAT ?_Mynode@const_iterator@?$_Tree@V?$_Tmap_traits@KP8CDPLoginSrvr@@AEXAAVCAr@@KPAEK@ZU?$less@K@std@@V?$allocator@U?$pair@$$CBKP8CDPLoginSrvr@@AEXAAVCAr@@KPAEK@Z@std@@@4@$0A@@std@@@std@@QBEPAU_Node@?$_Tree_nod@V?$_Tmap_traits@KP8CDPLoginSrvr@@AEXAAVCAr@@KPAEK@ZU?$less@K@std@@V?$allocator@U?$pair@$$CBKP8CDPLoginSrvr@@AEXAAVCAr@@KPAEK@Z@std@@@4@$0A@@std@@@3@XZ
_TEXT	SEGMENT PARA USE32 PUBLIC 'CODE'
_TEXT	ENDS
;	COMDAT ?Create@?$MemPooler@VCGuildMember@@@@IAEXXZ
_TEXT	SEGMENT PARA USE32 PUBLIC 'CODE'
_TEXT	ENDS
;	COMDAT ?Create@?$MemPooler@VCGuild@@@@IAEXXZ
_TEXT	SEGMENT PARA USE32 PUBLIC 'CODE'
_TEXT	ENDS
;	COMDAT ?_Key@?$_Tree@V?$_Tmap_traits@KP8CDPCoreSrvr@@AEXAAVCAr@@PAEK@ZU?$less@K@std@@V?$allocator@U?$pair@$$CBKP8CDPCoreSrvr@@AEXAAVCAr@@PAEK@Z@std@@@4@$0A@@std@@@std@@KAABKPAU_Node@?$_Tree_nod@V?$_Tmap_traits@KP8CDPCoreSrvr@@AEXAAVCAr@@PAEK@ZU?$less@K@std@@V?$allocator@U?$pair@$$CBKP8CDPCoreSrvr@@AEXAAVCAr@@PAEK@Z@std@@@4@$0A@@std@@@2@@Z
_TEXT	SEGMENT PARA USE32 PUBLIC 'CODE'
_TEXT	ENDS
;	COMDAT ?lower_bound@?$_Tree@V?$_Tmap_traits@KP8CDPCoreSrvr@@AEXAAVCAr@@PAEK@ZU?$less@K@std@@V?$allocator@U?$pair@$$CBKP8CDPCoreSrvr@@AEXAAVCAr@@PAEK@Z@std@@@4@$0A@@std@@@std@@QAE?AViterator@12@ABK@Z
_TEXT	SEGMENT PARA USE32 PUBLIC 'CODE'
_TEXT	ENDS
;	COMDAT ??0iterator@?$_Tree@V?$_Tmap_traits@KP8CDPCoreSrvr@@AEXAAVCAr@@PAEK@ZU?$less@K@std@@V?$allocator@U?$pair@$$CBKP8CDPCoreSrvr@@AEXAAVCAr@@PAEK@Z@std@@@4@$0A@@std@@@std@@QAE@PAU_Node@?$_Tree_nod@V?$_Tmap_traits@KP8CDPCoreSrvr@@AEXAAVCAr@@PAEK@ZU?$less@K@std@@V?$allocator@U?$pair@$$CBKP8CDPCoreSrvr@@AEXAAVCAr@@PAEK@Z@std@@@4@$0A@@std@@@2@@Z
_TEXT	SEGMENT PARA USE32 PUBLIC 'CODE'
_TEXT	ENDS
;	COMDAT ??Diterator@?$_Tree@V?$_Tmap_traits@KP8CDPCoreSrvr@@AEXAAVCAr@@PAEK@ZU?$less@K@std@@V?$allocator@U?$pair@$$CBKP8CDPCoreSrvr@@AEXAAVCAr@@PAEK@Z@std@@@4@$0A@@std@@@std@@QBEAAU?$pair@$$CBKP8CDPCoreSrvr@@AEXAAVCAr@@PAEK@Z@2@XZ
_TEXT	SEGMENT PARA USE32 PUBLIC 'CODE'
_TEXT	ENDS
;	COMDAT ??8const_iterator@?$_Tree@V?$_Tmap_traits@KP8CDPCoreSrvr@@AEXAAVCAr@@PAEK@ZU?$less@K@std@@V?$allocator@U?$pair@$$CBKP8CDPCoreSrvr@@AEXAAVCAr@@PAEK@Z@std@@@4@$0A@@std@@@std@@QBE_NABV012@@Z
_TEXT	SEGMENT PARA USE32 PUBLIC 'CODE'
_TEXT	ENDS
;	COMDAT ?_Mynode@const_iterator@?$_Tree@V?$_Tmap_traits@KP8CDPCoreSrvr@@AEXAAVCAr@@PAEK@ZU?$less@K@std@@V?$allocator@U?$pair@$$CBKP8CDPCoreSrvr@@AEXAAVCAr@@PAEK@Z@std@@@4@$0A@@std@@@std@@QBEPAU_Node@?$_Tree_nod@V?$_Tmap_traits@KP8CDPCoreSrvr@@AEXAAVCAr@@PAEK@ZU?$less@K@std@@V?$allocator@U?$pair@$$CBKP8CDPCoreSrvr@@AEXAAVCAr@@PAEK@Z@std@@@4@$0A@@std@@@3@XZ
_TEXT	SEGMENT PARA USE32 PUBLIC 'CODE'
_TEXT	ENDS
;	COMDAT ?_Buy@?$vector@MV?$allocator@M@std@@@std@@IAE_NI@Z
_TEXT	SEGMENT PARA USE32 PUBLIC 'CODE'
_TEXT	ENDS
;	COMDAT ?_Tidy@?$vector@MV?$allocator@M@std@@@std@@IAEXXZ
_TEXT	SEGMENT PARA USE32 PUBLIC 'CODE'
_TEXT	ENDS
;	COMDAT ??0?$_Vector_val@MV?$allocator@M@std@@@std@@IAE@V?$allocator@M@1@@Z
_TEXT	SEGMENT PARA USE32 PUBLIC 'CODE'
_TEXT	ENDS
;	COMDAT ??0?$allocator@M@std@@QAE@XZ
_TEXT	SEGMENT PARA USE32 PUBLIC 'CODE'
_TEXT	ENDS
;	COMDAT ?_Buy@?$vector@HV?$allocator@H@std@@@std@@IAE_NI@Z
_TEXT	SEGMENT PARA USE32 PUBLIC 'CODE'
_TEXT	ENDS
;	COMDAT ?_Tidy@?$vector@HV?$allocator@H@std@@@std@@IAEXXZ
_TEXT	SEGMENT PARA USE32 PUBLIC 'CODE'
_TEXT	ENDS
;	COMDAT ??0?$_Vector_val@HV?$allocator@H@std@@@std@@IAE@V?$allocator@H@1@@Z
_TEXT	SEGMENT PARA USE32 PUBLIC 'CODE'
_TEXT	ENDS
;	COMDAT ?_Key@?$_Tree@V?$_Tmap_traits@KP8CDPTrans@@AEXAAVCAr@@KKKPAEK@ZU?$less@K@std@@V?$allocator@U?$pair@$$CBKP8CDPTrans@@AEXAAVCAr@@KKKPAEK@Z@std@@@4@$0A@@std@@@std@@KAABKPAU_Node@?$_Tree_nod@V?$_Tmap_traits@KP8CDPTrans@@AEXAAVCAr@@KKKPAEK@ZU?$less@K@std@@V?$allocator@U?$pair@$$CBKP8CDPTrans@@AEXAAVCAr@@KKKPAEK@Z@std@@@4@$0A@@std@@@2@@Z
_TEXT	SEGMENT PARA USE32 PUBLIC 'CODE'
_TEXT	ENDS
;	COMDAT ?lower_bound@?$_Tree@V?$_Tmap_traits@KP8CDPTrans@@AEXAAVCAr@@KKKPAEK@ZU?$less@K@std@@V?$allocator@U?$pair@$$CBKP8CDPTrans@@AEXAAVCAr@@KKKPAEK@Z@std@@@4@$0A@@std@@@std@@QAE?AViterator@12@ABK@Z
_TEXT	SEGMENT PARA USE32 PUBLIC 'CODE'
_TEXT	ENDS
;	COMDAT ??0iterator@?$_Tree@V?$_Tmap_traits@KP8CDPTrans@@AEXAAVCAr@@KKKPAEK@ZU?$less@K@std@@V?$allocator@U?$pair@$$CBKP8CDPTrans@@AEXAAVCAr@@KKKPAEK@Z@std@@@4@$0A@@std@@@std@@QAE@PAU_Node@?$_Tree_nod@V?$_Tmap_traits@KP8CDPTrans@@AEXAAVCAr@@KKKPAEK@ZU?$less@K@std@@V?$allocator@U?$pair@$$CBKP8CDPTrans@@AEXAAVCAr@@KKKPAEK@Z@std@@@4@$0A@@std@@@2@@Z
_TEXT	SEGMENT PARA USE32 PUBLIC 'CODE'
_TEXT	ENDS
;	COMDAT ??Diterator@?$_Tree@V?$_Tmap_traits@KP8CDPTrans@@AEXAAVCAr@@KKKPAEK@ZU?$less@K@std@@V?$allocator@U?$pair@$$CBKP8CDPTrans@@AEXAAVCAr@@KKKPAEK@Z@std@@@4@$0A@@std@@@std@@QBEAAU?$pair@$$CBKP8CDPTrans@@AEXAAVCAr@@KKKPAEK@Z@2@XZ
_TEXT	SEGMENT PARA USE32 PUBLIC 'CODE'
_TEXT	ENDS
;	COMDAT ??8const_iterator@?$_Tree@V?$_Tmap_traits@KP8CDPTrans@@AEXAAVCAr@@KKKPAEK@ZU?$less@K@std@@V?$allocator@U?$pair@$$CBKP8CDPTrans@@AEXAAVCAr@@KKKPAEK@Z@std@@@4@$0A@@std@@@std@@QBE_NABV012@@Z
_TEXT	SEGMENT PARA USE32 PUBLIC 'CODE'
_TEXT	ENDS
;	COMDAT ?_Mynode@const_iterator@?$_Tree@V?$_Tmap_traits@KP8CDPTrans@@AEXAAVCAr@@KKKPAEK@ZU?$less@K@std@@V?$allocator@U?$pair@$$CBKP8CDPTrans@@AEXAAVCAr@@KKKPAEK@Z@std@@@4@$0A@@std@@@std@@QBEPAU_Node@?$_Tree_nod@V?$_Tmap_traits@KP8CDPTrans@@AEXAAVCAr@@KKKPAEK@ZU?$less@K@std@@V?$allocator@U?$pair@$$CBKP8CDPTrans@@AEXAAVCAr@@KKKPAEK@Z@std@@@4@$0A@@std@@@3@XZ
_TEXT	SEGMENT PARA USE32 PUBLIC 'CODE'
_TEXT	ENDS
;	COMDAT ??0?$allocator@H@std@@QAE@ABV01@@Z
_TEXT	SEGMENT PARA USE32 PUBLIC 'CODE'
_TEXT	ENDS
;	COMDAT ?deallocate@?$allocator@H@std@@QAEXPAHI@Z
_TEXT	SEGMENT PARA USE32 PUBLIC 'CODE'
_TEXT	ENDS
;	COMDAT ?allocate@?$allocator@H@std@@QAEPAHI@Z
_TEXT	SEGMENT PARA USE32 PUBLIC 'CODE'
_TEXT	ENDS
;	COMDAT ?_Myval@?$_Tree@V?$_Tmap_traits@KP8CDPLoginSrvr@@AEXAAVCAr@@KPAEK@ZU?$less@K@std@@V?$allocator@U?$pair@$$CBKP8CDPLoginSrvr@@AEXAAVCAr@@KPAEK@Z@std@@@4@$0A@@std@@@std@@KAAAU?$pair@$$CBKP8CDPLoginSrvr@@AEXAAVCAr@@KPAEK@Z@2@PAU_Node@?$_Tree_nod@V?$_Tmap_traits@KP8CDPLoginSrvr@@AEXAAVCAr@@KPAEK@ZU?$less@K@std@@V?$allocator@U?$pair@$$CBKP8CDPLoginSrvr@@AEXAAVCAr@@KPAEK@Z@std@@@4@$0A@@std@@@2@@Z
_TEXT	SEGMENT PARA USE32 PUBLIC 'CODE'
_TEXT	ENDS
;	COMDAT ?_Lbound@?$_Tree@V?$_Tmap_traits@KP8CDPLoginSrvr@@AEXAAVCAr@@KPAEK@ZU?$less@K@std@@V?$allocator@U?$pair@$$CBKP8CDPLoginSrvr@@AEXAAVCAr@@KPAEK@Z@std@@@4@$0A@@std@@@std@@IBEPAU_Node@?$_Tree_nod@V?$_Tmap_traits@KP8CDPLoginSrvr@@AEXAAVCAr@@KPAEK@ZU?$less@K@std@@V?$allocator@U?$pair@$$CBKP8CDPLoginSrvr@@AEXAAVCAr@@KPAEK@Z@std@@@4@$0A@@std@@@2@ABK@Z
_TEXT	SEGMENT PARA USE32 PUBLIC 'CODE'
_TEXT	ENDS
;	COMDAT ?_Kfn@?$_Tmap_traits@KP8CDPLoginSrvr@@AEXAAVCAr@@KPAEK@ZU?$less@K@std@@V?$allocator@U?$pair@$$CBKP8CDPLoginSrvr@@AEXAAVCAr@@KPAEK@Z@std@@@4@$0A@@std@@SAABKABU?$pair@$$CBKP8CDPLoginSrvr@@AEXAAVCAr@@KPAEK@Z@2@@Z
_TEXT	SEGMENT PARA USE32 PUBLIC 'CODE'
_TEXT	ENDS
;	COMDAT ??0const_iterator@?$_Tree@V?$_Tmap_traits@KP8CDPLoginSrvr@@AEXAAVCAr@@KPAEK@ZU?$less@K@std@@V?$allocator@U?$pair@$$CBKP8CDPLoginSrvr@@AEXAAVCAr@@KPAEK@Z@std@@@4@$0A@@std@@@std@@QAE@PAU_Node@?$_Tree_nod@V?$_Tmap_traits@KP8CDPLoginSrvr@@AEXAAVCAr@@KPAEK@ZU?$less@K@std@@V?$allocator@U?$pair@$$CBKP8CDPLoginSrvr@@AEXAAVCAr@@KPAEK@Z@std@@@4@$0A@@std@@@2@@Z
_TEXT	SEGMENT PARA USE32 PUBLIC 'CODE'
_TEXT	ENDS
;	COMDAT ??Dconst_iterator@?$_Tree@V?$_Tmap_traits@KP8CDPLoginSrvr@@AEXAAVCAr@@KPAEK@ZU?$less@K@std@@V?$allocator@U?$pair@$$CBKP8CDPLoginSrvr@@AEXAAVCAr@@KPAEK@Z@std@@@4@$0A@@std@@@std@@QBEABU?$pair@$$CBKP8CDPLoginSrvr@@AEXAAVCAr@@KPAEK@Z@2@XZ
_TEXT	SEGMENT PARA USE32 PUBLIC 'CODE'
_TEXT	ENDS
;	COMDAT ?_Myval@?$_Tree@V?$_Tmap_traits@KP8CDPCoreSrvr@@AEXAAVCAr@@PAEK@ZU?$less@K@std@@V?$allocator@U?$pair@$$CBKP8CDPCoreSrvr@@AEXAAVCAr@@PAEK@Z@std@@@4@$0A@@std@@@std@@KAAAU?$pair@$$CBKP8CDPCoreSrvr@@AEXAAVCAr@@PAEK@Z@2@PAU_Node@?$_Tree_nod@V?$_Tmap_traits@KP8CDPCoreSrvr@@AEXAAVCAr@@PAEK@ZU?$less@K@std@@V?$allocator@U?$pair@$$CBKP8CDPCoreSrvr@@AEXAAVCAr@@PAEK@Z@std@@@4@$0A@@std@@@2@@Z
_TEXT	SEGMENT PARA USE32 PUBLIC 'CODE'
_TEXT	ENDS
;	COMDAT ?_Lbound@?$_Tree@V?$_Tmap_traits@KP8CDPCoreSrvr@@AEXAAVCAr@@PAEK@ZU?$less@K@std@@V?$allocator@U?$pair@$$CBKP8CDPCoreSrvr@@AEXAAVCAr@@PAEK@Z@std@@@4@$0A@@std@@@std@@IBEPAU_Node@?$_Tree_nod@V?$_Tmap_traits@KP8CDPCoreSrvr@@AEXAAVCAr@@PAEK@ZU?$less@K@std@@V?$allocator@U?$pair@$$CBKP8CDPCoreSrvr@@AEXAAVCAr@@PAEK@Z@std@@@4@$0A@@std@@@2@ABK@Z
_TEXT	SEGMENT PARA USE32 PUBLIC 'CODE'
_TEXT	ENDS
;	COMDAT ?_Kfn@?$_Tmap_traits@KP8CDPCoreSrvr@@AEXAAVCAr@@PAEK@ZU?$less@K@std@@V?$allocator@U?$pair@$$CBKP8CDPCoreSrvr@@AEXAAVCAr@@PAEK@Z@std@@@4@$0A@@std@@SAABKABU?$pair@$$CBKP8CDPCoreSrvr@@AEXAAVCAr@@PAEK@Z@2@@Z
_TEXT	SEGMENT PARA USE32 PUBLIC 'CODE'
_TEXT	ENDS
;	COMDAT ??0const_iterator@?$_Tree@V?$_Tmap_traits@KP8CDPCoreSrvr@@AEXAAVCAr@@PAEK@ZU?$less@K@std@@V?$allocator@U?$pair@$$CBKP8CDPCoreSrvr@@AEXAAVCAr@@PAEK@Z@std@@@4@$0A@@std@@@std@@QAE@PAU_Node@?$_Tree_nod@V?$_Tmap_traits@KP8CDPCoreSrvr@@AEXAAVCAr@@PAEK@ZU?$less@K@std@@V?$allocator@U?$pair@$$CBKP8CDPCoreSrvr@@AEXAAVCAr@@PAEK@Z@std@@@4@$0A@@std@@@2@@Z
_TEXT	SEGMENT PARA USE32 PUBLIC 'CODE'
_TEXT	ENDS
;	COMDAT ??Dconst_iterator@?$_Tree@V?$_Tmap_traits@KP8CDPCoreSrvr@@AEXAAVCAr@@PAEK@ZU?$less@K@std@@V?$allocator@U?$pair@$$CBKP8CDPCoreSrvr@@AEXAAVCAr@@PAEK@Z@std@@@4@$0A@@std@@@std@@QBEABU?$pair@$$CBKP8CDPCoreSrvr@@AEXAAVCAr@@PAEK@Z@2@XZ
_TEXT	SEGMENT PARA USE32 PUBLIC 'CODE'
_TEXT	ENDS
;	COMDAT ?max_size@?$vector@MV?$allocator@M@std@@@std@@QBEIXZ
_TEXT	SEGMENT PARA USE32 PUBLIC 'CODE'
_TEXT	ENDS
;	COMDAT ?_Destroy@?$vector@MV?$allocator@M@std@@@std@@IAEXPAM0@Z
_TEXT	SEGMENT PARA USE32 PUBLIC 'CODE'
_TEXT	ENDS
;	COMDAT ?_Xlen@?$vector@MV?$allocator@M@std@@@std@@IBEXXZ
_TEXT	SEGMENT PARA USE32 PUBLIC 'CODE'
_TEXT	ENDS
;	COMDAT ??0?$allocator@M@std@@QAE@ABV01@@Z
_TEXT	SEGMENT PARA USE32 PUBLIC 'CODE'
_TEXT	ENDS
;	COMDAT ?deallocate@?$allocator@M@std@@QAEXPAMI@Z
_TEXT	SEGMENT PARA USE32 PUBLIC 'CODE'
_TEXT	ENDS
;	COMDAT ?allocate@?$allocator@M@std@@QAEPAMI@Z
_TEXT	SEGMENT PARA USE32 PUBLIC 'CODE'
_TEXT	ENDS
;	COMDAT ?max_size@?$vector@HV?$allocator@H@std@@@std@@QBEIXZ
_TEXT	SEGMENT PARA USE32 PUBLIC 'CODE'
_TEXT	ENDS
;	COMDAT ?_Destroy@?$vector@HV?$allocator@H@std@@@std@@IAEXPAH0@Z
_TEXT	SEGMENT PARA USE32 PUBLIC 'CODE'
_TEXT	ENDS
;	COMDAT ?_Xlen@?$vector@HV?$allocator@H@std@@@std@@IBEXXZ
_TEXT	SEGMENT PARA USE32 PUBLIC 'CODE'
_TEXT	ENDS
;	COMDAT ?_Myval@?$_Tree@V?$_Tmap_traits@KP8CDPTrans@@AEXAAVCAr@@KKKPAEK@ZU?$less@K@std@@V?$allocator@U?$pair@$$CBKP8CDPTrans@@AEXAAVCAr@@KKKPAEK@Z@std@@@4@$0A@@std@@@std@@KAAAU?$pair@$$CBKP8CDPTrans@@AEXAAVCAr@@KKKPAEK@Z@2@PAU_Node@?$_Tree_nod@V?$_Tmap_traits@KP8CDPTrans@@AEXAAVCAr@@KKKPAEK@ZU?$less@K@std@@V?$allocator@U?$pair@$$CBKP8CDPTrans@@AEXAAVCAr@@KKKPAEK@Z@std@@@4@$0A@@std@@@2@@Z
_TEXT	SEGMENT PARA USE32 PUBLIC 'CODE'
_TEXT	ENDS
;	COMDAT ?_Lbound@?$_Tree@V?$_Tmap_traits@KP8CDPTrans@@AEXAAVCAr@@KKKPAEK@ZU?$less@K@std@@V?$allocator@U?$pair@$$CBKP8CDPTrans@@AEXAAVCAr@@KKKPAEK@Z@std@@@4@$0A@@std@@@std@@IBEPAU_Node@?$_Tree_nod@V?$_Tmap_traits@KP8CDPTrans@@AEXAAVCAr@@KKKPAEK@ZU?$less@K@std@@V?$allocator@U?$pair@$$CBKP8CDPTrans@@AEXAAVCAr@@KKKPAEK@Z@std@@@4@$0A@@std@@@2@ABK@Z
_TEXT	SEGMENT PARA USE32 PUBLIC 'CODE'
_TEXT	ENDS
;	COMDAT ?_Kfn@?$_Tmap_traits@KP8CDPTrans@@AEXAAVCAr@@KKKPAEK@ZU?$less@K@std@@V?$allocator@U?$pair@$$CBKP8CDPTrans@@AEXAAVCAr@@KKKPAEK@Z@std@@@4@$0A@@std@@SAABKABU?$pair@$$CBKP8CDPTrans@@AEXAAVCAr@@KKKPAEK@Z@2@@Z
_TEXT	SEGMENT PARA USE32 PUBLIC 'CODE'
_TEXT	ENDS
;	COMDAT ??0const_iterator@?$_Tree@V?$_Tmap_traits@KP8CDPTrans@@AEXAAVCAr@@KKKPAEK@ZU?$less@K@std@@V?$allocator@U?$pair@$$CBKP8CDPTrans@@AEXAAVCAr@@KKKPAEK@Z@std@@@4@$0A@@std@@@std@@QAE@PAU_Node@?$_Tree_nod@V?$_Tmap_traits@KP8CDPTrans@@AEXAAVCAr@@KKKPAEK@ZU?$less@K@std@@V?$allocator@U?$pair@$$CBKP8CDPTrans@@AEXAAVCAr@@KKKPAEK@Z@std@@@4@$0A@@std@@@2@@Z
_TEXT	SEGMENT PARA USE32 PUBLIC 'CODE'
_TEXT	ENDS
;	COMDAT ??Dconst_iterator@?$_Tree@V?$_Tmap_traits@KP8CDPTrans@@AEXAAVCAr@@KKKPAEK@ZU?$less@K@std@@V?$allocator@U?$pair@$$CBKP8CDPTrans@@AEXAAVCAr@@KKKPAEK@Z@std@@@4@$0A@@std@@@std@@QBEABU?$pair@$$CBKP8CDPTrans@@AEXAAVCAr@@KKKPAEK@Z@2@XZ
_TEXT	SEGMENT PARA USE32 PUBLIC 'CODE'
_TEXT	ENDS
;	COMDAT ?max_size@?$allocator@H@std@@QBEIXZ
_TEXT	SEGMENT PARA USE32 PUBLIC 'CODE'
_TEXT	ENDS
;	COMDAT ?_Isnil@?$_Tree@V?$_Tmap_traits@KP8CDPLoginSrvr@@AEXAAVCAr@@KPAEK@ZU?$less@K@std@@V?$allocator@U?$pair@$$CBKP8CDPLoginSrvr@@AEXAAVCAr@@KPAEK@Z@std@@@4@$0A@@std@@@std@@KAAADPAU_Node@?$_Tree_nod@V?$_Tmap_traits@KP8CDPLoginSrvr@@AEXAAVCAr@@KPAEK@ZU?$less@K@std@@V?$allocator@U?$pair@$$CBKP8CDPLoginSrvr@@AEXAAVCAr@@KPAEK@Z@std@@@4@$0A@@std@@@2@@Z
_TEXT	SEGMENT PARA USE32 PUBLIC 'CODE'
_TEXT	ENDS
;	COMDAT ?_Left@?$_Tree@V?$_Tmap_traits@KP8CDPLoginSrvr@@AEXAAVCAr@@KPAEK@ZU?$less@K@std@@V?$allocator@U?$pair@$$CBKP8CDPLoginSrvr@@AEXAAVCAr@@KPAEK@Z@std@@@4@$0A@@std@@@std@@KAAAPAU_Node@?$_Tree_nod@V?$_Tmap_traits@KP8CDPLoginSrvr@@AEXAAVCAr@@KPAEK@ZU?$less@K@std@@V?$allocator@U?$pair@$$CBKP8CDPLoginSrvr@@AEXAAVCAr@@KPAEK@Z@std@@@4@$0A@@std@@@2@PAU342@@Z
_TEXT	SEGMENT PARA USE32 PUBLIC 'CODE'
_TEXT	ENDS
;	COMDAT ?_Right@?$_Tree@V?$_Tmap_traits@KP8CDPLoginSrvr@@AEXAAVCAr@@KPAEK@ZU?$less@K@std@@V?$allocator@U?$pair@$$CBKP8CDPLoginSrvr@@AEXAAVCAr@@KPAEK@Z@std@@@4@$0A@@std@@@std@@KAAAPAU_Node@?$_Tree_nod@V?$_Tmap_traits@KP8CDPLoginSrvr@@AEXAAVCAr@@KPAEK@ZU?$less@K@std@@V?$allocator@U?$pair@$$CBKP8CDPLoginSrvr@@AEXAAVCAr@@KPAEK@Z@std@@@4@$0A@@std@@@2@PAU342@@Z
_TEXT	SEGMENT PARA USE32 PUBLIC 'CODE'
_TEXT	ENDS
;	COMDAT ?_Root@?$_Tree@V?$_Tmap_traits@KP8CDPLoginSrvr@@AEXAAVCAr@@KPAEK@ZU?$less@K@std@@V?$allocator@U?$pair@$$CBKP8CDPLoginSrvr@@AEXAAVCAr@@KPAEK@Z@std@@@4@$0A@@std@@@std@@IBEAAPAU_Node@?$_Tree_nod@V?$_Tmap_traits@KP8CDPLoginSrvr@@AEXAAVCAr@@KPAEK@ZU?$less@K@std@@V?$allocator@U?$pair@$$CBKP8CDPLoginSrvr@@AEXAAVCAr@@KPAEK@Z@std@@@4@$0A@@std@@@2@XZ
_TEXT	SEGMENT PARA USE32 PUBLIC 'CODE'
_TEXT	ENDS
;	COMDAT ?_Isnil@?$_Tree@V?$_Tmap_traits@KP8CDPCoreSrvr@@AEXAAVCAr@@PAEK@ZU?$less@K@std@@V?$allocator@U?$pair@$$CBKP8CDPCoreSrvr@@AEXAAVCAr@@PAEK@Z@std@@@4@$0A@@std@@@std@@KAAADPAU_Node@?$_Tree_nod@V?$_Tmap_traits@KP8CDPCoreSrvr@@AEXAAVCAr@@PAEK@ZU?$less@K@std@@V?$allocator@U?$pair@$$CBKP8CDPCoreSrvr@@AEXAAVCAr@@PAEK@Z@std@@@4@$0A@@std@@@2@@Z
_TEXT	SEGMENT PARA USE32 PUBLIC 'CODE'
_TEXT	ENDS
;	COMDAT ?_Left@?$_Tree@V?$_Tmap_traits@KP8CDPCoreSrvr@@AEXAAVCAr@@PAEK@ZU?$less@K@std@@V?$allocator@U?$pair@$$CBKP8CDPCoreSrvr@@AEXAAVCAr@@PAEK@Z@std@@@4@$0A@@std@@@std@@KAAAPAU_Node@?$_Tree_nod@V?$_Tmap_traits@KP8CDPCoreSrvr@@AEXAAVCAr@@PAEK@ZU?$less@K@std@@V?$allocator@U?$pair@$$CBKP8CDPCoreSrvr@@AEXAAVCAr@@PAEK@Z@std@@@4@$0A@@std@@@2@PAU342@@Z
_TEXT	SEGMENT PARA USE32 PUBLIC 'CODE'
_TEXT	ENDS
;	COMDAT ?_Right@?$_Tree@V?$_Tmap_traits@KP8CDPCoreSrvr@@AEXAAVCAr@@PAEK@ZU?$less@K@std@@V?$allocator@U?$pair@$$CBKP8CDPCoreSrvr@@AEXAAVCAr@@PAEK@Z@std@@@4@$0A@@std@@@std@@KAAAPAU_Node@?$_Tree_nod@V?$_Tmap_traits@KP8CDPCoreSrvr@@AEXAAVCAr@@PAEK@ZU?$less@K@std@@V?$allocator@U?$pair@$$CBKP8CDPCoreSrvr@@AEXAAVCAr@@PAEK@Z@std@@@4@$0A@@std@@@2@PAU342@@Z
_TEXT	SEGMENT PARA USE32 PUBLIC 'CODE'
_TEXT	ENDS
;	COMDAT ?_Root@?$_Tree@V?$_Tmap_traits@KP8CDPCoreSrvr@@AEXAAVCAr@@PAEK@ZU?$less@K@std@@V?$allocator@U?$pair@$$CBKP8CDPCoreSrvr@@AEXAAVCAr@@PAEK@Z@std@@@4@$0A@@std@@@std@@IBEAAPAU_Node@?$_Tree_nod@V?$_Tmap_traits@KP8CDPCoreSrvr@@AEXAAVCAr@@PAEK@ZU?$less@K@std@@V?$allocator@U?$pair@$$CBKP8CDPCoreSrvr@@AEXAAVCAr@@PAEK@Z@std@@@4@$0A@@std@@@2@XZ
_TEXT	SEGMENT PARA USE32 PUBLIC 'CODE'
_TEXT	ENDS
;	COMDAT ?max_size@?$allocator@M@std@@QBEIXZ
_TEXT	SEGMENT PARA USE32 PUBLIC 'CODE'
_TEXT	ENDS
;	COMDAT ?_Isnil@?$_Tree@V?$_Tmap_traits@KP8CDPTrans@@AEXAAVCAr@@KKKPAEK@ZU?$less@K@std@@V?$allocator@U?$pair@$$CBKP8CDPTrans@@AEXAAVCAr@@KKKPAEK@Z@std@@@4@$0A@@std@@@std@@KAAADPAU_Node@?$_Tree_nod@V?$_Tmap_traits@KP8CDPTrans@@AEXAAVCAr@@KKKPAEK@ZU?$less@K@std@@V?$allocator@U?$pair@$$CBKP8CDPTrans@@AEXAAVCAr@@KKKPAEK@Z@std@@@4@$0A@@std@@@2@@Z
_TEXT	SEGMENT PARA USE32 PUBLIC 'CODE'
_TEXT	ENDS
;	COMDAT ?_Left@?$_Tree@V?$_Tmap_traits@KP8CDPTrans@@AEXAAVCAr@@KKKPAEK@ZU?$less@K@std@@V?$allocator@U?$pair@$$CBKP8CDPTrans@@AEXAAVCAr@@KKKPAEK@Z@std@@@4@$0A@@std@@@std@@KAAAPAU_Node@?$_Tree_nod@V?$_Tmap_traits@KP8CDPTrans@@AEXAAVCAr@@KKKPAEK@ZU?$less@K@std@@V?$allocator@U?$pair@$$CBKP8CDPTrans@@AEXAAVCAr@@KKKPAEK@Z@std@@@4@$0A@@std@@@2@PAU342@@Z
_TEXT	SEGMENT PARA USE32 PUBLIC 'CODE'
_TEXT	ENDS
;	COMDAT ?_Right@?$_Tree@V?$_Tmap_traits@KP8CDPTrans@@AEXAAVCAr@@KKKPAEK@ZU?$less@K@std@@V?$allocator@U?$pair@$$CBKP8CDPTrans@@AEXAAVCAr@@KKKPAEK@Z@std@@@4@$0A@@std@@@std@@KAAAPAU_Node@?$_Tree_nod@V?$_Tmap_traits@KP8CDPTrans@@AEXAAVCAr@@KKKPAEK@ZU?$less@K@std@@V?$allocator@U?$pair@$$CBKP8CDPTrans@@AEXAAVCAr@@KKKPAEK@Z@std@@@4@$0A@@std@@@2@PAU342@@Z
_TEXT	SEGMENT PARA USE32 PUBLIC 'CODE'
_TEXT	ENDS
;	COMDAT ?_Root@?$_Tree@V?$_Tmap_traits@KP8CDPTrans@@AEXAAVCAr@@KKKPAEK@ZU?$less@K@std@@V?$allocator@U?$pair@$$CBKP8CDPTrans@@AEXAAVCAr@@KKKPAEK@Z@std@@@4@$0A@@std@@@std@@IBEAAPAU_Node@?$_Tree_nod@V?$_Tmap_traits@KP8CDPTrans@@AEXAAVCAr@@KKKPAEK@ZU?$less@K@std@@V?$allocator@U?$pair@$$CBKP8CDPTrans@@AEXAAVCAr@@KKKPAEK@Z@std@@@4@$0A@@std@@@2@XZ
_TEXT	SEGMENT PARA USE32 PUBLIC 'CODE'
_TEXT	ENDS
;	COMDAT ?_Parent@?$_Tree@V?$_Tmap_traits@KP8CDPLoginSrvr@@AEXAAVCAr@@KPAEK@ZU?$less@K@std@@V?$allocator@U?$pair@$$CBKP8CDPLoginSrvr@@AEXAAVCAr@@KPAEK@Z@std@@@4@$0A@@std@@@std@@KAAAPAU_Node@?$_Tree_nod@V?$_Tmap_traits@KP8CDPLoginSrvr@@AEXAAVCAr@@KPAEK@ZU?$less@K@std@@V?$allocator@U?$pair@$$CBKP8CDPLoginSrvr@@AEXAAVCAr@@KPAEK@Z@std@@@4@$0A@@std@@@2@PAU342@@Z
_TEXT	SEGMENT PARA USE32 PUBLIC 'CODE'
_TEXT	ENDS
;	COMDAT ?_Parent@?$_Tree@V?$_Tmap_traits@KP8CDPCoreSrvr@@AEXAAVCAr@@PAEK@ZU?$less@K@std@@V?$allocator@U?$pair@$$CBKP8CDPCoreSrvr@@AEXAAVCAr@@PAEK@Z@std@@@4@$0A@@std@@@std@@KAAAPAU_Node@?$_Tree_nod@V?$_Tmap_traits@KP8CDPCoreSrvr@@AEXAAVCAr@@PAEK@ZU?$less@K@std@@V?$allocator@U?$pair@$$CBKP8CDPCoreSrvr@@AEXAAVCAr@@PAEK@Z@std@@@4@$0A@@std@@@2@PAU342@@Z
_TEXT	SEGMENT PARA USE32 PUBLIC 'CODE'
_TEXT	ENDS
;	COMDAT ?_Parent@?$_Tree@V?$_Tmap_traits@KP8CDPTrans@@AEXAAVCAr@@KKKPAEK@ZU?$less@K@std@@V?$allocator@U?$pair@$$CBKP8CDPTrans@@AEXAAVCAr@@KKKPAEK@Z@std@@@4@$0A@@std@@@std@@KAAAPAU_Node@?$_Tree_nod@V?$_Tmap_traits@KP8CDPTrans@@AEXAAVCAr@@KKKPAEK@ZU?$less@K@std@@V?$allocator@U?$pair@$$CBKP8CDPTrans@@AEXAAVCAr@@KKKPAEK@Z@std@@@4@$0A@@std@@@2@PAU342@@Z
_TEXT	SEGMENT PARA USE32 PUBLIC 'CODE'
_TEXT	ENDS
;	COMDAT ??$_Iter_cat@Viterator@?$_Tree@V?$_Tmap_traits@KU_Friend@@U?$less@K@std@@V?$allocator@U?$pair@$$CBKU_Friend@@@std@@@3@$0A@@std@@@std@@@std@@YA?AUbidirectional_iterator_tag@0@ABViterator@?$_Tree@V?$_Tmap_traits@KU_Friend@@U?$less@K@std@@V?$allocator@U?$pair@$$CBKU_Friend@@@std@@@3@$0A@@std@@@0@@Z
_TEXT	SEGMENT PARA USE32 PUBLIC 'CODE'
_TEXT	ENDS
;	COMDAT ??$_Distance2@Viterator@?$_Tree@V?$_Tmap_traits@KU_Friend@@U?$less@K@std@@V?$allocator@U?$pair@$$CBKU_Friend@@@std@@@3@$0A@@std@@@std@@I@std@@YAXViterator@?$_Tree@V?$_Tmap_traits@KU_Friend@@U?$less@K@std@@V?$allocator@U?$pair@$$CBKU_Friend@@@std@@@3@$0A@@std@@@0@0AAIUbidirectional_iterator_tag@0@@Z
_TEXT	SEGMENT PARA USE32 PUBLIC 'CODE'
_TEXT	ENDS
;	COMDAT ??$_Copy_opt@PAJPAJ@std@@YAPAJPAJ00U_Scalar_ptr_iterator_tag@0@@Z
_TEXT	SEGMENT PARA USE32 PUBLIC 'CODE'
_TEXT	ENDS
;	COMDAT ??$_Uninitialized_copy@PAJPAJV?$allocator@J@std@@@std@@YAPAJPAJ00AAV?$allocator@J@0@@Z
_TEXT	SEGMENT PARA USE32 PUBLIC 'CODE'
_TEXT	ENDS
;	COMDAT ??$_Copy_backward_opt@PAJPAJ@std@@YAPAJPAJ00U_Scalar_ptr_iterator_tag@0@@Z
_TEXT	SEGMENT PARA USE32 PUBLIC 'CODE'
_TEXT	ENDS
;	COMDAT ??$_Ptr_cat@PAUtagDROPITEM@@PAU1@@std@@YA?AU_Nonscalar_ptr_iterator_tag@0@AAPAUtagDROPITEM@@0@Z
_TEXT	SEGMENT PARA USE32 PUBLIC 'CODE'
_TEXT	ENDS
;	COMDAT ??$_Destroy_range@UtagDROPITEM@@V?$allocator@UtagDROPITEM@@@std@@@std@@YAXPAUtagDROPITEM@@0AAV?$allocator@UtagDROPITEM@@@0@U_Nonscalar_ptr_iterator_tag@0@@Z
_TEXT	SEGMENT PARA USE32 PUBLIC 'CODE'
_TEXT	ENDS
;	COMDAT ??$_Destroy_range@KV?$allocator@K@std@@@std@@YAXPAK0AAV?$allocator@K@0@U_Scalar_ptr_iterator_tag@0@@Z
_TEXT	SEGMENT PARA USE32 PUBLIC 'CODE'
_TEXT	ENDS
;	COMDAT ??$_Destroy_range@JV?$allocator@J@std@@@std@@YAXPAJ0AAV?$allocator@J@0@U_Scalar_ptr_iterator_tag@0@@Z
_TEXT	SEGMENT PARA USE32 PUBLIC 'CODE'
_TEXT	ENDS
;	COMDAT ??$_Uninit_fill_n@JIJ@std@@YAXPAJIABJAAV?$allocator@J@0@U_Scalar_ptr_iterator_tag@0@@Z
_TEXT	SEGMENT PARA USE32 PUBLIC 'CODE'
_TEXT	ENDS
;	COMDAT ??$throw_exception@Vbad_weak_ptr@boost@@@boost@@YAXABVbad_weak_ptr@0@@Z
_TEXT	SEGMENT PARA USE32 PUBLIC 'CODE'
_TEXT	ENDS
;	COMDAT ??$_Allocate@H@std@@YAPAHIPAH@Z
_TEXT	SEGMENT PARA USE32 PUBLIC 'CODE'
_TEXT	ENDS
;	COMDAT ??$_Destroy_range@MV?$allocator@M@std@@@std@@YAXPAM0AAV?$allocator@M@0@@Z
_TEXT	SEGMENT PARA USE32 PUBLIC 'CODE'
_TEXT	ENDS
;	COMDAT ??$_Allocate@M@std@@YAPAMIPAM@Z
_TEXT	SEGMENT PARA USE32 PUBLIC 'CODE'
_TEXT	ENDS
;	COMDAT ??$_Destroy_range@HV?$allocator@H@std@@@std@@YAXPAH0AAV?$allocator@H@0@@Z
_TEXT	SEGMENT PARA USE32 PUBLIC 'CODE'
_TEXT	ENDS
;	COMDAT ??0bad_weak_ptr@boost@@QAE@ABV01@@Z
_TEXT	SEGMENT PARA USE32 PUBLIC 'CODE'
_TEXT	ENDS
;	COMDAT ?destroy@?$allocator@UtagDROPITEM@@@std@@QAEXPAUtagDROPITEM@@@Z
_TEXT	SEGMENT PARA USE32 PUBLIC 'CODE'
_TEXT	ENDS
;	COMDAT ??$_Uninit_copy@JJ@std@@YAPAJPAJ00AAV?$allocator@J@0@U_Scalar_ptr_iterator_tag@0@@Z
_TEXT	SEGMENT PARA USE32 PUBLIC 'CODE'
_TEXT	ENDS
;	COMDAT ??$fill_n@PAJIJ@std@@YAXPAJIABJ@Z
_TEXT	SEGMENT PARA USE32 PUBLIC 'CODE'
_TEXT	ENDS
;	COMDAT ??$_Destroy_range@MV?$allocator@M@std@@@std@@YAXPAM0AAV?$allocator@M@0@U_Scalar_ptr_iterator_tag@0@@Z
_TEXT	SEGMENT PARA USE32 PUBLIC 'CODE'
_TEXT	ENDS
;	COMDAT ??$_Destroy_range@HV?$allocator@H@std@@@std@@YAXPAH0AAV?$allocator@H@0@U_Scalar_ptr_iterator_tag@0@@Z
_TEXT	SEGMENT PARA USE32 PUBLIC 'CODE'
_TEXT	ENDS
;	COMDAT ??$_Destroy@UtagDROPITEM@@@std@@YAXPAUtagDROPITEM@@@Z
_TEXT	SEGMENT PARA USE32 PUBLIC 'CODE'
_TEXT	ENDS
;	COMDAT ?_Ptr_cat@std@@YA?AU_Scalar_ptr_iterator_tag@1@PAH0@Z
_TEXT	SEGMENT PARA USE32 PUBLIC 'CODE'
_TEXT	ENDS
;	COMDAT ?_Ptr_cat@std@@YA?AU_Scalar_ptr_iterator_tag@1@PAM0@Z
_TEXT	SEGMENT PARA USE32 PUBLIC 'CODE'
_TEXT	ENDS
;	COMDAT __CTA2?AVbad_weak_ptr@boost@@
xdata$x	SEGMENT DWORD USE32 PUBLIC 'CONST'
xdata$x	ENDS
;	COMDAT __CT??_R0?AVexception@@@8??0exception@@QAE@ABV0@@Z12
xdata$x	SEGMENT DWORD USE32 PUBLIC 'CONST'
xdata$x	ENDS
;	COMDAT ??_R0?AVexception@@@8
_DATA	SEGMENT DWORD USE32 PUBLIC 'DATA'
_DATA	ENDS
;	COMDAT __CT??_R0?AVbad_weak_ptr@boost@@@8??0bad_weak_ptr@boost@@QAE@ABV01@@Z12
xdata$x	SEGMENT DWORD USE32 PUBLIC 'CONST'
xdata$x	ENDS
;	COMDAT ??_R0?AVbad_weak_ptr@boost@@@8
_DATA	SEGMENT DWORD USE32 PUBLIC 'DATA'
_DATA	ENDS
;	COMDAT __TI2?AVbad_weak_ptr@boost@@
xdata$x	SEGMENT DWORD USE32 PUBLIC 'CONST'
xdata$x	ENDS
;	COMDAT ?_Ptr_cat@std@@YA?AU_Scalar_ptr_iterator_tag@1@PAJ0@Z
_TEXT	SEGMENT PARA USE32 PUBLIC 'CODE'
_TEXT	ENDS
;	COMDAT ??9const_iterator@?$_Tree@V?$_Tmap_traits@KU_Friend@@U?$less@K@std@@V?$allocator@U?$pair@$$CBKU_Friend@@@std@@@3@$0A@@std@@@std@@QBE_NABV012@@Z
_TEXT	SEGMENT PARA USE32 PUBLIC 'CODE'
_TEXT	ENDS
;	COMDAT ??8const_iterator@?$_Tree@V?$_Tmap_traits@KU_Friend@@U?$less@K@std@@V?$allocator@U?$pair@$$CBKU_Friend@@@std@@@3@$0A@@std@@@std@@QBE_NABV012@@Z
_TEXT	SEGMENT PARA USE32 PUBLIC 'CODE'
_TEXT	ENDS
;	COMDAT ??Eiterator@?$_Tree@V?$_Tmap_traits@KU_Friend@@U?$less@K@std@@V?$allocator@U?$pair@$$CBKU_Friend@@@std@@@3@$0A@@std@@@std@@QAEAAV012@XZ
_TEXT	SEGMENT PARA USE32 PUBLIC 'CODE'
_TEXT	ENDS
;	COMDAT ??Econst_iterator@?$_Tree@V?$_Tmap_traits@KU_Friend@@U?$less@K@std@@V?$allocator@U?$pair@$$CBKU_Friend@@@std@@@3@$0A@@std@@@std@@QAEAAV012@XZ
_TEXT	SEGMENT PARA USE32 PUBLIC 'CODE'
_TEXT	ENDS
;	COMDAT ?_Inc@const_iterator@?$_Tree@V?$_Tmap_traits@KU_Friend@@U?$less@K@std@@V?$allocator@U?$pair@$$CBKU_Friend@@@std@@@3@$0A@@std@@@std@@QAEXXZ
_TEXT	SEGMENT PARA USE32 PUBLIC 'CODE'
_TEXT	ENDS
;	COMDAT ?_Min@?$_Tree@V?$_Tmap_traits@KU_Friend@@U?$less@K@std@@V?$allocator@U?$pair@$$CBKU_Friend@@@std@@@3@$0A@@std@@@std@@KAPAU_Node@?$_Tree_nod@V?$_Tmap_traits@KU_Friend@@U?$less@K@std@@V?$allocator@U?$pair@$$CBKU_Friend@@@std@@@3@$0A@@std@@@2@PAU342@@Z
_TEXT	SEGMENT PARA USE32 PUBLIC 'CODE'
_TEXT	ENDS
;	COMDAT ?_Left@?$_Tree@V?$_Tmap_traits@KU_Friend@@U?$less@K@std@@V?$allocator@U?$pair@$$CBKU_Friend@@@std@@@3@$0A@@std@@@std@@KAAAPAU_Node@?$_Tree_nod@V?$_Tmap_traits@KU_Friend@@U?$less@K@std@@V?$allocator@U?$pair@$$CBKU_Friend@@@std@@@3@$0A@@std@@@2@PAU342@@Z
_TEXT	SEGMENT PARA USE32 PUBLIC 'CODE'
_TEXT	ENDS
;	COMDAT ?_Isnil@?$_Tree@V?$_Tmap_traits@KU_Friend@@U?$less@K@std@@V?$allocator@U?$pair@$$CBKU_Friend@@@std@@@3@$0A@@std@@@std@@KAAADPAU_Node@?$_Tree_nod@V?$_Tmap_traits@KU_Friend@@U?$less@K@std@@V?$allocator@U?$pair@$$CBKU_Friend@@@std@@@3@$0A@@std@@@2@@Z
_TEXT	SEGMENT PARA USE32 PUBLIC 'CODE'
_TEXT	ENDS
;	COMDAT ?_Parent@?$_Tree@V?$_Tmap_traits@KU_Friend@@U?$less@K@std@@V?$allocator@U?$pair@$$CBKU_Friend@@@std@@@3@$0A@@std@@@std@@KAAAPAU_Node@?$_Tree_nod@V?$_Tmap_traits@KU_Friend@@U?$less@K@std@@V?$allocator@U?$pair@$$CBKU_Friend@@@std@@@3@$0A@@std@@@2@PAU342@@Z
_TEXT	SEGMENT PARA USE32 PUBLIC 'CODE'
_TEXT	ENDS
;	COMDAT ?_Right@?$_Tree@V?$_Tmap_traits@KU_Friend@@U?$less@K@std@@V?$allocator@U?$pair@$$CBKU_Friend@@@std@@@3@$0A@@std@@@std@@KAAAPAU_Node@?$_Tree_nod@V?$_Tmap_traits@KU_Friend@@U?$less@K@std@@V?$allocator@U?$pair@$$CBKU_Friend@@@std@@@3@$0A@@std@@@2@PAU342@@Z
_TEXT	SEGMENT PARA USE32 PUBLIC 'CODE'
_TEXT	ENDS
;	COMDAT ?_Psave@?$_Facetptr@V?$ctype@G@std@@@std@@2PBVfacet@locale@2@B
_DATA	SEGMENT DWORD USE32 PUBLIC 'DATA'
_DATA	ENDS
;	COMDAT ?_Psave@?$_Facetptr@V?$ctype@D@std@@@std@@2PBVfacet@locale@2@B
_DATA	SEGMENT DWORD USE32 PUBLIC 'DATA'
_DATA	ENDS
;	COMDAT __TI3?AVlength_error@std@@
xdata$x	SEGMENT DWORD USE32 PUBLIC 'CONST'
xdata$x	ENDS
;	COMDAT ??1length_error@std@@UAE@XZ
_TEXT	SEGMENT PARA USE32 PUBLIC 'CODE'
_TEXT	ENDS
;	COMDAT ??_7length_error@std@@6B@
CONST	SEGMENT DWORD USE32 PUBLIC 'CONST'
CONST	ENDS
;	COMDAT ??_Glength_error@std@@UAEPAXI@Z
_TEXT	SEGMENT PARA USE32 PUBLIC 'CODE'
_TEXT	ENDS
;	COMDAT ?what@logic_error@std@@UBEPBDXZ
_TEXT	SEGMENT PARA USE32 PUBLIC 'CODE'
_TEXT	ENDS
;	COMDAT ?c_str@?$basic_string@DU?$char_traits@D@std@@V?$allocator@D@2@@std@@QBEPBDXZ
_TEXT	SEGMENT PARA USE32 PUBLIC 'CODE'
_TEXT	ENDS
;	COMDAT ??1logic_error@std@@UAE@XZ
_TEXT	SEGMENT PARA USE32 PUBLIC 'CODE'
_TEXT	ENDS
;	COMDAT ??_7logic_error@std@@6B@
CONST	SEGMENT DWORD USE32 PUBLIC 'CONST'
CONST	ENDS
;	COMDAT ??_Glogic_error@std@@UAEPAXI@Z
_TEXT	SEGMENT PARA USE32 PUBLIC 'CODE'
_TEXT	ENDS
;	COMDAT __CTA3?AVlength_error@std@@
xdata$x	SEGMENT DWORD USE32 PUBLIC 'CONST'
xdata$x	ENDS
;	COMDAT __CT??_R0?AVlength_error@std@@@8??0length_error@std@@QAE@ABV01@@Z40
xdata$x	SEGMENT DWORD USE32 PUBLIC 'CONST'
xdata$x	ENDS
;	COMDAT ??_R0?AVlength_error@std@@@8
_DATA	SEGMENT DWORD USE32 PUBLIC 'DATA'
_DATA	ENDS
;	COMDAT ??0length_error@std@@QAE@ABV01@@Z
_TEXT	SEGMENT PARA USE32 PUBLIC 'CODE'
_TEXT	ENDS
;	COMDAT ??0logic_error@std@@QAE@ABV01@@Z
_TEXT	SEGMENT PARA USE32 PUBLIC 'CODE'
_TEXT	ENDS
;	COMDAT ??0?$basic_string@DU?$char_traits@D@std@@V?$allocator@D@2@@std@@QAE@ABV01@@Z
_TEXT	SEGMENT PARA USE32 PUBLIC 'CODE'
_TEXT	ENDS
;	COMDAT ??0?$_String_val@DV?$allocator@D@std@@@std@@IAE@V?$allocator@D@1@@Z
_TEXT	SEGMENT PARA USE32 PUBLIC 'CODE'
_TEXT	ENDS
;	COMDAT ??0?$allocator@D@std@@QAE@ABV01@@Z
_TEXT	SEGMENT PARA USE32 PUBLIC 'CODE'
_TEXT	ENDS
;	COMDAT ?_Tidy@?$basic_string@DU?$char_traits@D@std@@V?$allocator@D@2@@std@@IAEX_NI@Z
_TEXT	SEGMENT PARA USE32 PUBLIC 'CODE'
_TEXT	ENDS
;	COMDAT ?copy@?$char_traits@D@std@@SAPADPADPBDI@Z
_TEXT	SEGMENT PARA USE32 PUBLIC 'CODE'
_TEXT	ENDS
;	COMDAT ?deallocate@?$allocator@D@std@@QAEXPADI@Z
_TEXT	SEGMENT PARA USE32 PUBLIC 'CODE'
_TEXT	ENDS
;	COMDAT ?_Eos@?$basic_string@DU?$char_traits@D@std@@V?$allocator@D@2@@std@@IAEXI@Z
_TEXT	SEGMENT PARA USE32 PUBLIC 'CODE'
_TEXT	ENDS
;	COMDAT ?assign@?$char_traits@D@std@@SAXAADABD@Z
_TEXT	SEGMENT PARA USE32 PUBLIC 'CODE'
_TEXT	ENDS
;	COMDAT ?_Myptr@?$basic_string@DU?$char_traits@D@std@@V?$allocator@D@2@@std@@QAEPADXZ
_TEXT	SEGMENT PARA USE32 PUBLIC 'CODE'
_TEXT	ENDS
;	COMDAT ?assign@?$basic_string@DU?$char_traits@D@std@@V?$allocator@D@2@@std@@QAEAAV12@ABV12@II@Z
_TEXT	SEGMENT PARA USE32 PUBLIC 'CODE'
_TEXT	ENDS
;	COMDAT ?erase@?$basic_string@DU?$char_traits@D@std@@V?$allocator@D@2@@std@@QAEAAV12@II@Z
_TEXT	SEGMENT PARA USE32 PUBLIC 'CODE'
_TEXT	ENDS
;	COMDAT ?move@?$char_traits@D@std@@SAPADPADPBDI@Z
_TEXT	SEGMENT PARA USE32 PUBLIC 'CODE'
_TEXT	ENDS
;	COMDAT ?_Grow@?$basic_string@DU?$char_traits@D@std@@V?$allocator@D@2@@std@@IAE_NI_N@Z
_TEXT	SEGMENT PARA USE32 PUBLIC 'CODE'
_TEXT	ENDS
;	COMDAT ?max_size@?$basic_string@DU?$char_traits@D@std@@V?$allocator@D@2@@std@@QBEIXZ
_TEXT	SEGMENT PARA USE32 PUBLIC 'CODE'
_TEXT	ENDS
;	COMDAT ?max_size@?$allocator@D@std@@QBEIXZ
_TEXT	SEGMENT PARA USE32 PUBLIC 'CODE'
_TEXT	ENDS
;	COMDAT ?_Copy@?$basic_string@DU?$char_traits@D@std@@V?$allocator@D@2@@std@@IAEXII@Z
_TEXT	SEGMENT PARA USE32 PUBLIC 'CODE'
_TEXT	ENDS
;	COMDAT ?allocate@?$allocator@D@std@@QAEPADI@Z
_TEXT	SEGMENT PARA USE32 PUBLIC 'CODE'
_TEXT	ENDS
;	COMDAT ??$_Allocate@D@std@@YAPADIPAD@Z
_TEXT	SEGMENT PARA USE32 PUBLIC 'CODE'
_TEXT	ENDS
;	COMDAT ?npos@?$basic_string@DU?$char_traits@D@std@@V?$allocator@D@2@@std@@2IB
CONST	SEGMENT DWORD USE32 PUBLIC 'CONST'
CONST	ENDS
;	COMDAT __CT??_R0?AVlogic_error@std@@@8??0logic_error@std@@QAE@ABV01@@Z40
xdata$x	SEGMENT DWORD USE32 PUBLIC 'CONST'
xdata$x	ENDS
;	COMDAT ??_R0?AVlogic_error@std@@@8
_DATA	SEGMENT DWORD USE32 PUBLIC 'DATA'
_DATA	ENDS
;	COMDAT ??1?$basic_string@DU?$char_traits@D@std@@V?$allocator@D@2@@std@@QAE@XZ
_TEXT	SEGMENT PARA USE32 PUBLIC 'CODE'
_TEXT	ENDS
;	COMDAT ??_C@_0BD@OLBABOEK@vector?$DMT?$DO?5too?5long?$AA@
CONST	SEGMENT DWORD USE32 PUBLIC 'CONST'
CONST	ENDS
;	COMDAT ??0?$basic_string@DU?$char_traits@D@std@@V?$allocator@D@2@@std@@QAE@PBD@Z
_TEXT	SEGMENT PARA USE32 PUBLIC 'CODE'
_TEXT	ENDS
;	COMDAT ??0?$allocator@D@std@@QAE@XZ
_TEXT	SEGMENT PARA USE32 PUBLIC 'CODE'
_TEXT	ENDS
;	COMDAT ?assign@?$basic_string@DU?$char_traits@D@std@@V?$allocator@D@2@@std@@QAEAAV12@PBD@Z
_TEXT	SEGMENT PARA USE32 PUBLIC 'CODE'
_TEXT	ENDS
;	COMDAT ?assign@?$basic_string@DU?$char_traits@D@std@@V?$allocator@D@2@@std@@QAEAAV12@PBDI@Z
_TEXT	SEGMENT PARA USE32 PUBLIC 'CODE'
_TEXT	ENDS
;	COMDAT ?_Inside@?$basic_string@DU?$char_traits@D@std@@V?$allocator@D@2@@std@@IAE_NPBD@Z
_TEXT	SEGMENT PARA USE32 PUBLIC 'CODE'
_TEXT	ENDS
;	COMDAT ?length@?$char_traits@D@std@@SAIPBD@Z
_TEXT	SEGMENT PARA USE32 PUBLIC 'CODE'
_TEXT	ENDS
;	COMDAT ??0length_error@std@@QAE@ABV?$basic_string@DU?$char_traits@D@std@@V?$allocator@D@2@@1@@Z
_TEXT	SEGMENT PARA USE32 PUBLIC 'CODE'
_TEXT	ENDS
;	COMDAT ??0logic_error@std@@QAE@ABV?$basic_string@DU?$char_traits@D@std@@V?$allocator@D@2@@1@@Z
_TEXT	SEGMENT PARA USE32 PUBLIC 'CODE'
_TEXT	ENDS
;	COMDAT ?push_back@?$list@PAXV?$allocator@PAX@std@@@std@@QAEXABQAX@Z
_TEXT	SEGMENT PARA USE32 PUBLIC 'CODE'
_TEXT	ENDS
;	COMDAT ?_Insert@?$list@PAXV?$allocator@PAX@std@@@std@@QAEXViterator@12@ABQAX@Z
_TEXT	SEGMENT PARA USE32 PUBLIC 'CODE'
_TEXT	ENDS
;	COMDAT ?_Mynode@const_iterator@?$list@PAXV?$allocator@PAX@std@@@std@@QBEPAU_Node@?$_List_nod@PAXV?$allocator@PAX@std@@@3@XZ
_TEXT	SEGMENT PARA USE32 PUBLIC 'CODE'
_TEXT	ENDS
;	COMDAT ?_Buynode@?$list@PAXV?$allocator@PAX@std@@@std@@IAEPAU_Node@?$_List_nod@PAXV?$allocator@PAX@std@@@2@PAU342@0ABQAX@Z
_TEXT	SEGMENT PARA USE32 PUBLIC 'CODE'
_TEXT	ENDS
;	COMDAT ?allocate@?$allocator@U_Node@?$_List_nod@PAXV?$allocator@PAX@std@@@std@@@std@@QAEPAU_Node@?$_List_nod@PAXV?$allocator@PAX@std@@@2@I@Z
_TEXT	SEGMENT PARA USE32 PUBLIC 'CODE'
_TEXT	ENDS
;	COMDAT ??$_Allocate@U_Node@?$_List_nod@PAXV?$allocator@PAX@std@@@std@@@std@@YAPAU_Node@?$_List_nod@PAXV?$allocator@PAX@std@@@0@IPAU120@@Z
_TEXT	SEGMENT PARA USE32 PUBLIC 'CODE'
_TEXT	ENDS
;	COMDAT ??2@YAPAXIPAX@Z
_TEXT	SEGMENT PARA USE32 PUBLIC 'CODE'
_TEXT	ENDS
;	COMDAT ??3@YAXPAX0@Z
_TEXT	SEGMENT PARA USE32 PUBLIC 'CODE'
_TEXT	ENDS
;	COMDAT ??0_Node@?$_List_nod@PAXV?$allocator@PAX@std@@@std@@QAE@PAU012@0ABQAX@Z
_TEXT	SEGMENT PARA USE32 PUBLIC 'CODE'
_TEXT	ENDS
;	COMDAT ?deallocate@?$allocator@U_Node@?$_List_nod@PAXV?$allocator@PAX@std@@@std@@@std@@QAEXPAU_Node@?$_List_nod@PAXV?$allocator@PAX@std@@@2@I@Z
_TEXT	SEGMENT PARA USE32 PUBLIC 'CODE'
_TEXT	ENDS
;	COMDAT ?_Incsize@?$list@PAXV?$allocator@PAX@std@@@std@@IAEXI@Z
_TEXT	SEGMENT PARA USE32 PUBLIC 'CODE'
_TEXT	ENDS
;	COMDAT ?max_size@?$list@PAXV?$allocator@PAX@std@@@std@@QBEIXZ
_TEXT	SEGMENT PARA USE32 PUBLIC 'CODE'
_TEXT	ENDS
;	COMDAT ?max_size@?$allocator@PAX@std@@QBEIXZ
_TEXT	SEGMENT PARA USE32 PUBLIC 'CODE'
_TEXT	ENDS
;	COMDAT ??_C@_0BB@MOGOBHAF@list?$DMT?$DO?5too?5long?$AA@
CONST	SEGMENT DWORD USE32 PUBLIC 'CONST'
CONST	ENDS
;	COMDAT ?_Nextnode@?$list@PAXV?$allocator@PAX@std@@@std@@KAAAPAU_Node@?$_List_nod@PAXV?$allocator@PAX@std@@@2@PAU342@@Z
_TEXT	SEGMENT PARA USE32 PUBLIC 'CODE'
_TEXT	ENDS
;	COMDAT ?_Prevnode@?$list@PAXV?$allocator@PAX@std@@@std@@KAAAPAU_Node@?$_List_nod@PAXV?$allocator@PAX@std@@@2@PAU342@@Z
_TEXT	SEGMENT PARA USE32 PUBLIC 'CODE'
_TEXT	ENDS
;	COMDAT ?end@?$list@PAXV?$allocator@PAX@std@@@std@@QAE?AViterator@12@XZ
_TEXT	SEGMENT PARA USE32 PUBLIC 'CODE'
_TEXT	ENDS
;	COMDAT ??0iterator@?$list@PAXV?$allocator@PAX@std@@@std@@QAE@PAU_Node@?$_List_nod@PAXV?$allocator@PAX@std@@@2@@Z
_TEXT	SEGMENT PARA USE32 PUBLIC 'CODE'
_TEXT	ENDS
;	COMDAT ??0const_iterator@?$list@PAXV?$allocator@PAX@std@@@std@@QAE@PAU_Node@?$_List_nod@PAXV?$allocator@PAX@std@@@2@@Z
_TEXT	SEGMENT PARA USE32 PUBLIC 'CODE'
_TEXT	ENDS
;	COMDAT ??_C@_09PKKCPLIP@bad?5alloc?$AA@
CONST	SEGMENT DWORD USE32 PUBLIC 'CONST'
CONST	ENDS
;	COMDAT ?compare@?$char_traits@D@std@@SAHPBD0I@Z
_TEXT	SEGMENT PARA USE32 PUBLIC 'CODE'
_TEXT	ENDS
;	COMDAT ??R?$less@K@std@@QBE_NABK0@Z
_TEXT	SEGMENT PARA USE32 PUBLIC 'CODE'
_TEXT	ENDS
;	COMDAT ?_Myptr@?$basic_string@DU?$char_traits@D@std@@V?$allocator@D@2@@std@@QBEPBDXZ
_TEXT	SEGMENT PARA USE32 PUBLIC 'CODE'
_TEXT	ENDS
;	COMDAT ?size@?$basic_string@DU?$char_traits@D@std@@V?$allocator@D@2@@std@@QBEIXZ
_TEXT	SEGMENT PARA USE32 PUBLIC 'CODE'
_TEXT	ENDS
;	COMDAT ?ReleaseBufferSetLength@?$CSimpleStringT@D$0A@@ATL@@QAEXH@Z
_TEXT	SEGMENT PARA USE32 PUBLIC 'CODE'
_TEXT	ENDS
;	COMDAT ?SetLength@?$CSimpleStringT@D$0A@@ATL@@AAEXH@Z
_TEXT	SEGMENT PARA USE32 PUBLIC 'CODE'
_TEXT	ENDS
;	COMDAT ?AtlThrow@ATL@@YGXJ@Z
_TEXT	SEGMENT PARA USE32 PUBLIC 'CODE'
_TEXT	ENDS
;	COMDAT ?GetData@?$CSimpleStringT@D$0A@@ATL@@ABEPAUCStringData@2@XZ
_TEXT	SEGMENT PARA USE32 PUBLIC 'CODE'
_TEXT	ENDS
;	COMDAT ?GetBuffer@?$CSimpleStringT@D$0A@@ATL@@QAEPADH@Z
_TEXT	SEGMENT PARA USE32 PUBLIC 'CODE'
_TEXT	ENDS
;	COMDAT ?PrepareWrite@?$CSimpleStringT@D$0A@@ATL@@AAEPADH@Z
_TEXT	SEGMENT PARA USE32 PUBLIC 'CODE'
_TEXT	ENDS
;	COMDAT ?PrepareWrite2@?$CSimpleStringT@D$0A@@ATL@@AAEXH@Z
_TEXT	SEGMENT PARA USE32 PUBLIC 'CODE'
_TEXT	ENDS
;	COMDAT ?IsShared@CStringData@ATL@@QBE_NXZ
_TEXT	SEGMENT PARA USE32 PUBLIC 'CODE'
_TEXT	ENDS
;	COMDAT ?Fork@?$CSimpleStringT@D$0A@@ATL@@AAEXH@Z
_TEXT	SEGMENT PARA USE32 PUBLIC 'CODE'
_TEXT	ENDS
;	COMDAT ?ThrowMemoryException@?$CSimpleStringT@D$0A@@ATL@@KAXXZ
_TEXT	SEGMENT PARA USE32 PUBLIC 'CODE'
_TEXT	ENDS
;	COMDAT ?CopyChars@?$CSimpleStringT@D$0A@@ATL@@SAXPADPBDH@Z
_TEXT	SEGMENT PARA USE32 PUBLIC 'CODE'
_TEXT	ENDS
;	COMDAT ?data@CStringData@ATL@@QAEPAXXZ
_TEXT	SEGMENT PARA USE32 PUBLIC 'CODE'
_TEXT	ENDS
;	COMDAT ?Release@CStringData@ATL@@QAEXXZ
_TEXT	SEGMENT PARA USE32 PUBLIC 'CODE'
_TEXT	ENDS
;	COMDAT ?Attach@?$CSimpleStringT@D$0A@@ATL@@AAEXPAUCStringData@2@@Z
_TEXT	SEGMENT PARA USE32 PUBLIC 'CODE'
_TEXT	ENDS
;	COMDAT ?Reallocate@?$CSimpleStringT@D$0A@@ATL@@AAEXH@Z
_TEXT	SEGMENT PARA USE32 PUBLIC 'CODE'
_TEXT	ENDS
;	COMDAT ?StringFindString@?$ChTraitsCRT@D@ATL@@SAPBDPBD0@Z
_TEXT	SEGMENT PARA USE32 PUBLIC 'CODE'
_TEXT	ENDS
;	COMDAT ?GetLength@?$CSimpleStringT@D$0A@@ATL@@QBEHXZ
_TEXT	SEGMENT PARA USE32 PUBLIC 'CODE'
_TEXT	ENDS
;	COMDAT ?GetString@?$CSimpleStringT@D$0A@@ATL@@QBEPBDXZ
_TEXT	SEGMENT PARA USE32 PUBLIC 'CODE'
_TEXT	ENDS
;	COMDAT ??0_MONSTER_PROP@@QAE@XZ
_TEXT	SEGMENT PARA USE32 PUBLIC 'CODE'
_TEXT	ENDS
;	COMDAT ??0_MONSTER_RESPAWN@@QAE@XZ
_TEXT	SEGMENT PARA USE32 PUBLIC 'CODE'
_TEXT	ENDS
;	COMDAT ??_C@_09GBAEEKDE@?$CFs?0?5?$CFd?7?$CFs?$AA@
CONST	SEGMENT DWORD USE32 PUBLIC 'CONST'
CONST	ENDS
;	COMDAT ??4?$CStringT@DV?$StrTraitMFC@DV?$ChTraitsCRT@D@ATL@@@@@ATL@@QAEAAV01@PBD@Z
_TEXT	SEGMENT PARA USE32 PUBLIC 'CODE'
_TEXT	ENDS
;	COMDAT ??4?$CSimpleStringT@D$0A@@ATL@@QAEAAV01@PBD@Z
_TEXT	SEGMENT PARA USE32 PUBLIC 'CODE'
_TEXT	ENDS
;	COMDAT ?SetString@?$CSimpleStringT@D$0A@@ATL@@QAEXPBD@Z
_TEXT	SEGMENT PARA USE32 PUBLIC 'CODE'
_TEXT	ENDS
;	COMDAT ?SetString@?$CSimpleStringT@D$0A@@ATL@@QAEXPBDH@Z
_TEXT	SEGMENT PARA USE32 PUBLIC 'CODE'
_TEXT	ENDS
;	COMDAT ?Empty@?$CSimpleStringT@D$0A@@ATL@@QAEXXZ
_TEXT	SEGMENT PARA USE32 PUBLIC 'CODE'
_TEXT	ENDS
;	COMDAT ?IsLocked@CStringData@ATL@@QBE_NXZ
_TEXT	SEGMENT PARA USE32 PUBLIC 'CODE'
_TEXT	ENDS
;	COMDAT ?CopyCharsOverlapped@?$CSimpleStringT@D$0A@@ATL@@SAXPADPBDH@Z
_TEXT	SEGMENT PARA USE32 PUBLIC 'CODE'
_TEXT	ENDS
;	COMDAT ?StringLength@?$CSimpleStringT@D$0A@@ATL@@SAHPBD@Z
_TEXT	SEGMENT PARA USE32 PUBLIC 'CODE'
_TEXT	ENDS
;	COMDAT ??B?$CSimpleStringT@D$0A@@ATL@@QBEPBDXZ
_TEXT	SEGMENT PARA USE32 PUBLIC 'CODE'
_TEXT	ENDS
;	COMDAT ??5@YAAAVCAr@@AAV0@AAUD3DXVECTOR3@@@Z
_TEXT	SEGMENT PARA USE32 PUBLIC 'CODE'
_TEXT	ENDS
;	COMDAT ??5CAr@@QAEAAV0@AAM@Z
_TEXT	SEGMENT PARA USE32 PUBLIC 'CODE'
_TEXT	ENDS
;	COMDAT ??5CAr@@QAEAAV0@AAJ@Z
_TEXT	SEGMENT PARA USE32 PUBLIC 'CODE'
_TEXT	ENDS
;	COMDAT ?time_null@@YAJXZ
_TEXT	SEGMENT PARA USE32 PUBLIC 'CODE'
_TEXT	ENDS
;	COMDAT ??6CAr@@QAEAAV0@J@Z
_TEXT	SEGMENT PARA USE32 PUBLIC 'CODE'
_TEXT	ENDS
;	COMDAT ??6@YAAAVCAr@@AAV0@UD3DXVECTOR3@@@Z
_TEXT	SEGMENT PARA USE32 PUBLIC 'CODE'
_TEXT	ENDS
;	COMDAT ??6CAr@@QAEAAV0@M@Z
_TEXT	SEGMENT PARA USE32 PUBLIC 'CODE'
_TEXT	ENDS
;	COMDAT ?GetTime@CTime@ATL@@QBE_JXZ
_TEXT	SEGMENT PARA USE32 PUBLIC 'CODE'
_TEXT	ENDS
;	COMDAT ??0CTimeSpan@ATL@@QAE@JHHH@Z
_TEXT	SEGMENT PARA USE32 PUBLIC 'CODE'
_TEXT	ENDS
;	COMDAT ??HCTime@ATL@@QBE?AV01@VCTimeSpan@1@@Z
_TEXT	SEGMENT PARA USE32 PUBLIC 'CODE'
_TEXT	ENDS
;	COMDAT ??0CTime@ATL@@QAE@_J@Z
_TEXT	SEGMENT PARA USE32 PUBLIC 'CODE'
_TEXT	ENDS
;	COMDAT ?GetTimeSpan@CTimeSpan@ATL@@QBE_JXZ
_TEXT	SEGMENT PARA USE32 PUBLIC 'CODE'
_TEXT	ENDS
;	COMDAT ?GetItemProp@CProject@@QAEPAUItemProp@@H@Z
_TEXT	SEGMENT PARA USE32 PUBLIC 'CODE'
_TEXT	ENDS
;	COMDAT ?GetAt@?$CFixedArray@UItemProp@@@@QAEPAUItemProp@@K@Z
_TEXT	SEGMENT PARA USE32 PUBLIC 'CODE'
_TEXT	ENDS
;	COMDAT ??5CAr@@QAEAAV0@AAH@Z
_TEXT	SEGMENT PARA USE32 PUBLIC 'CODE'
_TEXT	ENDS
;	COMDAT ??6CAr@@QAEAAV0@H@Z
_TEXT	SEGMENT PARA USE32 PUBLIC 'CODE'
_TEXT	ENDS
;	COMDAT ??_7CLordSkillComponentExecutable@@6B@
CONST	SEGMENT DWORD USE32 PUBLIC 'CONST'
CONST	ENDS
;	COMDAT ??_7bad_weak_ptr@boost@@6B@
CONST	SEGMENT DWORD USE32 PUBLIC 'CONST'
CONST	ENDS
;	COMDAT ??_7sp_counted_base@detail@boost@@6B@
CONST	SEGMENT DWORD USE32 PUBLIC 'CONST'
CONST	ENDS
;	COMDAT ??5CAr@@QAEAAV0@AAK@Z
_TEXT	SEGMENT PARA USE32 PUBLIC 'CODE'
_TEXT	ENDS
;	COMDAT ??6CAr@@QAEAAV0@K@Z
_TEXT	SEGMENT PARA USE32 PUBLIC 'CODE'
_TEXT	ENDS
;	COMDAT ?IsStoring@CAr@@QBEHXZ
_TEXT	SEGMENT PARA USE32 PUBLIC 'CODE'
_TEXT	ENDS
;	COMDAT ?Leave@CMclCritSec@@QAEXXZ
_TEXT	SEGMENT PARA USE32 PUBLIC 'CODE'
_TEXT	ENDS
;	COMDAT ?Enter@CMclCritSec@@QAEXXZ
_TEXT	SEGMENT PARA USE32 PUBLIC 'CODE'
_TEXT	ENDS
;	COMDAT ?GetTickCount@CTime@ATL@@SG?AV12@XZ
_TEXT	SEGMENT PARA USE32 PUBLIC 'CODE'
_TEXT	ENDS
;	COMDAT ??0CTime@ATL@@QAE@XZ
_TEXT	SEGMENT PARA USE32 PUBLIC 'CODE'
_TEXT	ENDS
;	COMDAT ??1CMclCritSec@@UAE@XZ
_TEXT	SEGMENT PARA USE32 PUBLIC 'CODE'
_TEXT	ENDS
;	COMDAT ??_7CMclCritSec@@6B@
CONST	SEGMENT DWORD USE32 PUBLIC 'CONST'
CONST	ENDS
;	COMDAT ??_GCMclCritSec@@UAEPAXI@Z
_TEXT	SEGMENT PARA USE32 PUBLIC 'CODE'
_TEXT	ENDS
;	COMDAT ??0CMclCritSec@@QAE@XZ
_TEXT	SEGMENT PARA USE32 PUBLIC 'CODE'
_TEXT	ENDS
;	COMDAT ??0D3DXVECTOR3@@QAE@MMM@Z
_TEXT	SEGMENT PARA USE32 PUBLIC 'CODE'
_TEXT	ENDS
;	COMDAT ??0D3DXVECTOR3@@QAE@XZ
_TEXT	SEGMENT PARA USE32 PUBLIC 'CODE'
_TEXT	ENDS
sxdata	SEGMENT DWORD USE32 'SXDATA'
sxdata	ENDS
FLAT	GROUP _DATA, CONST, _BSS
	ASSUME	CS: FLAT, DS: FLAT, SS: FLAT
endif

INCLUDELIB LIBCMT
INCLUDELIB OLDNAMES

PUBLIC	??_GCQuery@@QAEPAXI@Z				; CQuery::`scalar deleting destructor'
EXTRN	??3@YAXPAX@Z:NEAR				; operator delete
EXTRN	??1CQuery@@QAE@XZ:NEAR				; CQuery::~CQuery
; Function compile flags: /Ogty
;	COMDAT ??_GCQuery@@QAEPAXI@Z
_TEXT	SEGMENT
___flags$ = 8						; size = 4
??_GCQuery@@QAEPAXI@Z PROC NEAR				; CQuery::`scalar deleting destructor', COMDAT
; _this$ = ecx
  00000	56		 push	 esi
  00001	8b f1		 mov	 esi, ecx
  00003	e8 00 00 00 00	 call	 ??1CQuery@@QAE@XZ	; CQuery::~CQuery
  00008	f6 44 24 08 01	 test	 BYTE PTR ___flags$[esp], 1
  0000d	74 09		 je	 SHORT $L205696
  0000f	56		 push	 esi
  00010	e8 00 00 00 00	 call	 ??3@YAXPAX@Z		; operator delete
  00015	83 c4 04	 add	 esp, 4
$L205696:
  00018	8b c6		 mov	 eax, esi
  0001a	5e		 pop	 esi
  0001b	c2 04 00	 ret	 4
??_GCQuery@@QAEPAXI@Z ENDP				; CQuery::`scalar deleting destructor'
_TEXT	ENDS
PUBLIC	?GetGemeSettingtime@CDbManager@@AAEXPAVCQuery@@H@Z ; CDbManager::GetGemeSettingtime
PUBLIC	??_C@_0GK@BOIJKFBN@?2Documents?5and?5Settings?2test?2Mes@ ; `string'
PUBLIC	??_C@_09GBAEEKDE@?$CFs?0?5?$CFd?7?$CFs?$AA@	; `string'
PUBLIC	??_C@_0BJ@POKGHGPN@GAME_BACKSYSTEM_STR?5?8S0?8?$AA@ ; `string'
PUBLIC	??_C@_09OGDCHKLK@curr_time?$AA@			; `string'
EXTRN	?Exec@CQuery@@QAEHPBD@Z:NEAR			; CQuery::Exec
EXTRN	?Fetch@CQuery@@QAEHXZ:NEAR			; CQuery::Fetch
EXTRN	?WriteLog@@YAXPBDZZ:NEAR			; WriteLog
EXTRN	?GetStr@CQuery@@QAEXPAD0@Z:NEAR			; CQuery::GetStr
EXTRN	_sprintf:NEAR
EXTRN	___security_cookie:DWORD
EXTRN	@__security_check_cookie@4:NEAR
EXTRN	?prj@@3VCProject@@A:BYTE			; prj
;	COMDAT ??_C@_0BJ@POKGHGPN@GAME_BACKSYSTEM_STR?5?8S0?8?$AA@
; File c:\documents and settings\test\mes documents\source\virtuos_v17\build\program\_database\dbbackendsystem.cpp
CONST	SEGMENT
??_C@_0BJ@POKGHGPN@GAME_BACKSYSTEM_STR?5?8S0?8?$AA@ DB 'GAME_BACKSYSTEM_S'
	DB	'TR ''S0''', 00H				; `string'
CONST	ENDS
;	COMDAT ??_C@_0GK@BOIJKFBN@?2Documents?5and?5Settings?2test?2Mes@
CONST	SEGMENT
??_C@_0GK@BOIJKFBN@?2Documents?5and?5Settings?2test?2Mes@ DB '\Documents '
	DB	'and Settings\test\Mes documents\Source\Virtuos_v17\Build\Prog'
	DB	'ram\_Database\DBBackEndSystem.cpp', 00H	; `string'
CONST	ENDS
;	COMDAT ??_C@_09GBAEEKDE@?$CFs?0?5?$CFd?7?$CFs?$AA@
CONST	SEGMENT
??_C@_09GBAEEKDE@?$CFs?0?5?$CFd?7?$CFs?$AA@ DB '%s, %d', 09H, '%s', 00H ; `string'
CONST	ENDS
;	COMDAT ??_C@_09OGDCHKLK@curr_time?$AA@
CONST	SEGMENT
??_C@_09OGDCHKLK@curr_time?$AA@ DB 'curr_time', 00H	; `string'
; Function compile flags: /Ogty
CONST	ENDS
;	COMDAT ?GetGemeSettingtime@CDbManager@@AAEXPAVCQuery@@H@Z
_TEXT	SEGMENT
_szQuery$ = -1028					; size = 1024
__$ArrayPad$ = -4					; size = 4
__$ReturnAddr$ = 4					; size = 4
_pQuery$ = 8						; size = 4
_nChat$ = 12						; size = 4
?GetGemeSettingtime@CDbManager@@AAEXPAVCQuery@@H@Z PROC NEAR ; CDbManager::GetGemeSettingtime, COMDAT
; _this$ = ecx

; 109  : {

  00000	81 ec 04 04 00
	00		 sub	 esp, 1028		; 00000404H
  00006	a1 00 00 00 00	 mov	 eax, DWORD PTR ___security_cookie
  0000b	33 c4		 xor	 eax, esp
  0000d	56		 push	 esi
  0000e	8b b4 24 0c 04
	00 00		 mov	 esi, DWORD PTR _pQuery$[esp+1028]
  00015	89 84 24 04 04
	00 00		 mov	 DWORD PTR __$ArrayPad$[esp+1032], eax

; 110  : 	char szQuery[1024];
; 111  : 	BOOL bResult = FALSE;
; 112  : 
; 113  : 	sprintf( szQuery, "GAME_BACKSYSTEM_STR 'S0'" );

  0001c	8d 44 24 04	 lea	 eax, DWORD PTR _szQuery$[esp+1032]
  00020	68 00 00 00 00	 push	 OFFSET FLAT:??_C@_0BJ@POKGHGPN@GAME_BACKSYSTEM_STR?5?8S0?8?$AA@
  00025	50		 push	 eax
  00026	e8 00 00 00 00	 call	 _sprintf
  0002b	83 c4 08	 add	 esp, 8

; 114  : 	if( FALSE == pQuery->Exec( szQuery ) )

  0002e	8d 4c 24 04	 lea	 ecx, DWORD PTR _szQuery$[esp+1032]
  00032	51		 push	 ecx
  00033	8b ce		 mov	 ecx, esi
  00035	e8 00 00 00 00	 call	 ?Exec@CQuery@@QAEHPBD@Z	; CQuery::Exec
  0003a	85 c0		 test	 eax, eax
  0003c	75 31		 jne	 SHORT $L204487

; 115  : 	{
; 116  : 		WriteLog( "%s, %d\t%s", __FILE__, __LINE__, szQuery );

  0003e	8d 54 24 04	 lea	 edx, DWORD PTR _szQuery$[esp+1032]
  00042	52		 push	 edx
  00043	6a 74		 push	 116			; 00000074H
  00045	68 00 00 00 00	 push	 OFFSET FLAT:??_C@_0GK@BOIJKFBN@?2Documents?5and?5Settings?2test?2Mes@
  0004a	68 00 00 00 00	 push	 OFFSET FLAT:??_C@_09GBAEEKDE@?$CFs?0?5?$CFd?7?$CFs?$AA@
  0004f	e8 00 00 00 00	 call	 ?WriteLog@@YAXPBDZZ	; WriteLog
  00054	83 c4 10	 add	 esp, 16			; 00000010H
  00057	5e		 pop	 esi

; 135  : 		}
; 136  : 		
; 137  : 	}		
; 138  : }

  00058	8b 8c 24 00 04
	00 00		 mov	 ecx, DWORD PTR __$ArrayPad$[esp+1028]
  0005f	33 cc		 xor	 ecx, esp
  00061	e8 00 00 00 00	 call	 @__security_check_cookie@4
  00066	81 c4 04 04 00
	00		 add	 esp, 1028		; 00000404H
  0006c	c2 08 00	 ret	 8
$L204487:

; 117  : 		return;
; 118  : 	}	
; 119  : 	
; 120  : 	if( pQuery->Fetch() )

  0006f	8b ce		 mov	 ecx, esi
  00071	e8 00 00 00 00	 call	 ?Fetch@CQuery@@QAEHXZ	; CQuery::Fetch
  00076	85 c0		 test	 eax, eax
  00078	74 57		 je	 SHORT $L204493

; 121  : 	{
; 122  : 		if( nChat == 0 )

  0007a	8b 84 24 10 04
	00 00		 mov	 eax, DWORD PTR _nChat$[esp+1028]
  00081	85 c0		 test	 eax, eax

; 123  : 		{
; 124  : 			pQuery->GetStr( "curr_time", prj.m_chBackEndSystemChatTime );

  00083	8b ce		 mov	 ecx, esi
  00085	75 27		 jne	 SHORT $L204489
  00087	68 4b 74 04 00	 push	 OFFSET FLAT:?prj@@3VCProject@@A+291915
  0008c	68 00 00 00 00	 push	 OFFSET FLAT:??_C@_09OGDCHKLK@curr_time?$AA@
$L205706:
  00091	e8 00 00 00 00	 call	 ?GetStr@CQuery@@QAEXPAD0@Z ; CQuery::GetStr
  00096	5e		 pop	 esi

; 135  : 		}
; 136  : 		
; 137  : 	}		
; 138  : }

  00097	8b 8c 24 00 04
	00 00		 mov	 ecx, DWORD PTR __$ArrayPad$[esp+1028]
  0009e	33 cc		 xor	 ecx, esp
  000a0	e8 00 00 00 00	 call	 @__security_check_cookie@4
  000a5	81 c4 04 04 00
	00		 add	 esp, 1028		; 00000404H
  000ab	c2 08 00	 ret	 8
$L204489:

; 125  : 		}
; 126  : 		else
; 127  : 		if( nChat == 1 )

  000ae	83 f8 01	 cmp	 eax, 1

; 128  : 		{
; 129  : 			pQuery->GetStr( "curr_time", prj.m_chBackEndSystemTime );

  000b1	68 3c 74 04 00	 push	 OFFSET FLAT:?prj@@3VCProject@@A+291900
  000b6	68 00 00 00 00	 push	 OFFSET FLAT:??_C@_09OGDCHKLK@curr_time?$AA@

; 130  : 		}
; 131  : 		else

  000bb	74 d4		 je	 SHORT $L205706

; 132  : 		{
; 133  : 			pQuery->GetStr( "curr_time", prj.m_chBackEndSystemTime );

  000bd	e8 00 00 00 00	 call	 ?GetStr@CQuery@@QAEXPAD0@Z ; CQuery::GetStr

; 134  : 			strcpy( prj.m_chBackEndSystemChatTime, prj.m_chBackEndSystemTime );			

  000c2	b8 3c 74 04 00	 mov	 eax, OFFSET FLAT:?prj@@3VCProject@@A+291900
$L205700:
  000c7	8a 08		 mov	 cl, BYTE PTR [eax]
  000c9	88 48 0f	 mov	 BYTE PTR [eax+15], cl
  000cc	40		 inc	 eax
  000cd	84 c9		 test	 cl, cl
  000cf	75 f6		 jne	 SHORT $L205700
$L204493:

; 135  : 		}
; 136  : 		
; 137  : 	}		
; 138  : }

  000d1	8b 8c 24 04 04
	00 00		 mov	 ecx, DWORD PTR __$ArrayPad$[esp+1032]
  000d8	5e		 pop	 esi
  000d9	33 cc		 xor	 ecx, esp
  000db	e8 00 00 00 00	 call	 @__security_check_cookie@4
  000e0	81 c4 04 04 00
	00		 add	 esp, 1028		; 00000404H
  000e6	c2 08 00	 ret	 8
?GetGemeSettingtime@CDbManager@@AAEXPAVCQuery@@H@Z ENDP	; CDbManager::GetGemeSettingtime
_TEXT	ENDS
PUBLIC	?GetGMChat@CDbManager@@AAEHPAVCQuery@@PADAAH@Z	; CDbManager::GetGMChat
PUBLIC	??_C@_0CF@CAIDFNFN@GAME_BACKSYSTEM_STR?5?8S4?8?0?8?$CF02d?8?0@ ; `string'
PUBLIC	??_C@_03GLPMCEFE@msg?$AA@			; `string'
EXTRN	?g_appInfo@@3UAppInfo@@A:QWORD			; g_appInfo
;	COMDAT ??_C@_0CF@CAIDFNFN@GAME_BACKSYSTEM_STR?5?8S4?8?0?8?$CF02d?8?0@
CONST	SEGMENT
??_C@_0CF@CAIDFNFN@GAME_BACKSYSTEM_STR?5?8S4?8?0?8?$CF02d?8?0@ DB 'GAME_B'
	DB	'ACKSYSTEM_STR ''S4'',''%02d'',''%s''', 00H	; `string'
CONST	ENDS
;	COMDAT ??_C@_03GLPMCEFE@msg?$AA@
CONST	SEGMENT
??_C@_03GLPMCEFE@msg?$AA@ DB 'msg', 00H			; `string'
; Function compile flags: /Ogty
CONST	ENDS
;	COMDAT ?GetGMChat@CDbManager@@AAEHPAVCQuery@@PADAAH@Z
_TEXT	SEGMENT
_szQuery$ = -1028					; size = 1024
__$ArrayPad$ = -4					; size = 4
__$ReturnAddr$ = 4					; size = 4
_pQuery$ = 8						; size = 4
_lpstrTime$ = 12					; size = 4
_nChatCount$ = 16					; size = 4
?GetGMChat@CDbManager@@AAEHPAVCQuery@@PADAAH@Z PROC NEAR ; CDbManager::GetGMChat, COMDAT
; _this$ = ecx

; 141  : {

  00000	81 ec 04 04 00
	00		 sub	 esp, 1028		; 00000404H
  00006	a1 00 00 00 00	 mov	 eax, DWORD PTR ___security_cookie
  0000b	33 c4		 xor	 eax, esp
  0000d	53		 push	 ebx
  0000e	56		 push	 esi
  0000f	8b b4 24 18 04
	00 00		 mov	 esi, DWORD PTR _nChatCount$[esp+1032]
  00016	57		 push	 edi
  00017	8b bc 24 14 04
	00 00		 mov	 edi, DWORD PTR _pQuery$[esp+1036]
  0001e	89 84 24 0c 04
	00 00		 mov	 DWORD PTR __$ArrayPad$[esp+1040], eax
  00025	8b 84 24 18 04
	00 00		 mov	 eax, DWORD PTR _lpstrTime$[esp+1036]

; 142  : 	char szQuery[1024];
; 143  : 	BOOL bResult = FALSE;
; 144  : 	
; 145  : 	sprintf( szQuery, "GAME_BACKSYSTEM_STR 'S4','%02d','%s'", g_appInfo.dwSys, lpstrTime );

  0002c	50		 push	 eax
  0002d	a1 00 00 00 00	 mov	 eax, DWORD PTR ?g_appInfo@@3UAppInfo@@A
  00032	50		 push	 eax
  00033	8d 4c 24 14	 lea	 ecx, DWORD PTR _szQuery$[esp+1048]
  00037	68 00 00 00 00	 push	 OFFSET FLAT:??_C@_0CF@CAIDFNFN@GAME_BACKSYSTEM_STR?5?8S4?8?0?8?$CF02d?8?0@
  0003c	51		 push	 ecx
  0003d	33 db		 xor	 ebx, ebx
  0003f	e8 00 00 00 00	 call	 _sprintf
  00044	83 c4 10	 add	 esp, 16			; 00000010H

; 146  : 	if( FALSE == pQuery->Exec( szQuery ) )

  00047	8d 54 24 0c	 lea	 edx, DWORD PTR _szQuery$[esp+1040]
  0004b	52		 push	 edx
  0004c	8b cf		 mov	 ecx, edi
  0004e	e8 00 00 00 00	 call	 ?Exec@CQuery@@QAEHPBD@Z	; CQuery::Exec
  00053	85 c0		 test	 eax, eax
  00055	75 20		 jne	 SHORT $L205713

; 147  : 	{
; 148  : 		WriteLog( "%s, %d\t%s", __FILE__, __LINE__, szQuery );

  00057	8d 44 24 0c	 lea	 eax, DWORD PTR _szQuery$[esp+1040]
  0005b	50		 push	 eax
  0005c	68 94 00 00 00	 push	 148			; 00000094H
  00061	68 00 00 00 00	 push	 OFFSET FLAT:??_C@_0GK@BOIJKFBN@?2Documents?5and?5Settings?2test?2Mes@
  00066	68 00 00 00 00	 push	 OFFSET FLAT:??_C@_09GBAEEKDE@?$CFs?0?5?$CFd?7?$CFs?$AA@
  0006b	e8 00 00 00 00	 call	 ?WriteLog@@YAXPBDZZ	; WriteLog
  00070	83 c4 10	 add	 esp, 16			; 00000010H

; 149  : 		return bResult;

  00073	33 c0		 xor	 eax, eax
  00075	eb 3e		 jmp	 SHORT $L204499
$L205713:

; 150  : 	}	
; 151  : 	
; 152  : 	while( pQuery->Fetch() )

  00077	8b cf		 mov	 ecx, edi
  00079	e8 00 00 00 00	 call	 ?Fetch@CQuery@@QAEHXZ	; CQuery::Fetch
  0007e	85 c0		 test	 eax, eax
  00080	74 31		 je	 SHORT $L204507
$L204505:

; 153  : 	{
; 154  : 		if( nChatCount < 10 )

  00082	8b 06		 mov	 eax, DWORD PTR [esi]
  00084	83 f8 0a	 cmp	 eax, 10			; 0000000aH
  00087	7d 2a		 jge	 SHORT $L204507

; 155  : 		{
; 156  : 			pQuery->GetStr( "msg", prj.m_chGMChat[nChatCount] );

  00089	c1 e0 08	 shl	 eax, 8
  0008c	05 5a 74 04 00	 add	 eax, OFFSET FLAT:?prj@@3VCProject@@A+291930
  00091	50		 push	 eax
  00092	68 00 00 00 00	 push	 OFFSET FLAT:??_C@_03GLPMCEFE@msg?$AA@
  00097	8b cf		 mov	 ecx, edi
  00099	e8 00 00 00 00	 call	 ?GetStr@CQuery@@QAEXPAD0@Z ; CQuery::GetStr

; 157  : 			++nChatCount;

  0009e	8b 16		 mov	 edx, DWORD PTR [esi]
  000a0	42		 inc	 edx
  000a1	8b cf		 mov	 ecx, edi
  000a3	89 16		 mov	 DWORD PTR [esi], edx

; 158  : 		}
; 159  : 		else
; 160  : 		{
; 161  : 			break;
; 162  : 		}
; 163  : 		bResult = TRUE;

  000a5	bb 01 00 00 00	 mov	 ebx, 1
  000aa	e8 00 00 00 00	 call	 ?Fetch@CQuery@@QAEHXZ	; CQuery::Fetch
  000af	85 c0		 test	 eax, eax
  000b1	75 cf		 jne	 SHORT $L204505
$L204507:

; 164  : 	}		
; 165  : 	
; 166  : 	return bResult;

  000b3	8b c3		 mov	 eax, ebx
$L204499:

; 167  : }

  000b5	8b 8c 24 0c 04
	00 00		 mov	 ecx, DWORD PTR __$ArrayPad$[esp+1040]
  000bc	5f		 pop	 edi
  000bd	5e		 pop	 esi
  000be	5b		 pop	 ebx
  000bf	33 cc		 xor	 ecx, esp
  000c1	e8 00 00 00 00	 call	 @__security_check_cookie@4
  000c6	81 c4 04 04 00
	00		 add	 esp, 1028		; 00000404H
  000cc	c2 0c 00	 ret	 12			; 0000000cH
?GetGMChat@CDbManager@@AAEHPAVCQuery@@PADAAH@Z ENDP	; CDbManager::GetGMChat
_TEXT	ENDS
PUBLIC	?GetBaseGameSetting@CDbManager@@AAEHPAVCQuery@@PAD@Z ; CDbManager::GetBaseGameSetting
PUBLIC	??_C@_0CF@BDAEODNG@GAME_BACKSYSTEM_STR?5?8S1?8?0?8?$CF02d?8?0@ ; `string'
PUBLIC	??_C@_07MGNKFCA@bResult?$AA@			; `string'
PUBLIC	??_C@_06CJHGHFEP@szName?$AA@			; `string'
PUBLIC	??_C@_04HCCHHEEF@rate?$AA@			; `string'
PUBLIC	??_C@_03HKMMIPC@Exp?$AA@			; `string'
PUBLIC	??_C@_05OPFOCHJP@Penya?$AA@			; `string'
PUBLIC	??_C@_08COMINNNE@ItemDrop?$AA@			; `string'
PUBLIC	??_C@_07LKKEEFDG@Rebirth?$AA@			; `string'
PUBLIC	??_C@_08PDOHAPNM@HitPoint?$AA@			; `string'
PUBLIC	??_C@_0M@LAGJIOMN@AttackPower?$AA@		; `string'
PUBLIC	??_C@_07JGOIAFF@Respawn?$AA@			; `string'
PUBLIC	??_C@_0L@ICGAFIAO@Aggressive?$AA@		; `string'
PUBLIC	??_C@_05NFJELHBG@Price?$AA@			; `string'
PUBLIC	__real@3c23d70a
EXTRN	?GetInt@CQuery@@QAEHPAD@Z:NEAR			; CQuery::GetInt
EXTRN	__fltused:NEAR
;	COMDAT ??_C@_0CF@BDAEODNG@GAME_BACKSYSTEM_STR?5?8S1?8?0?8?$CF02d?8?0@
CONST	SEGMENT
??_C@_0CF@BDAEODNG@GAME_BACKSYSTEM_STR?5?8S1?8?0?8?$CF02d?8?0@ DB 'GAME_B'
	DB	'ACKSYSTEM_STR ''S1'',''%02d'',''%s''', 00H	; `string'
CONST	ENDS
;	COMDAT ??_C@_07MGNKFCA@bResult?$AA@
CONST	SEGMENT
??_C@_07MGNKFCA@bResult?$AA@ DB 'bResult', 00H		; `string'
CONST	ENDS
;	COMDAT ??_C@_06CJHGHFEP@szName?$AA@
CONST	SEGMENT
??_C@_06CJHGHFEP@szName?$AA@ DB 'szName', 00H		; `string'
CONST	ENDS
;	COMDAT ??_C@_04HCCHHEEF@rate?$AA@
CONST	SEGMENT
??_C@_04HCCHHEEF@rate?$AA@ DB 'rate', 00H		; `string'
CONST	ENDS
;	COMDAT ??_C@_03HKMMIPC@Exp?$AA@
CONST	SEGMENT
??_C@_03HKMMIPC@Exp?$AA@ DB 'Exp', 00H			; `string'
CONST	ENDS
;	COMDAT __real@3c23d70a
CONST	SEGMENT
__real@3c23d70a DD 03c23d70ar			; 0.01
CONST	ENDS
;	COMDAT ??_C@_05OPFOCHJP@Penya?$AA@
CONST	SEGMENT
??_C@_05OPFOCHJP@Penya?$AA@ DB 'Penya', 00H		; `string'
CONST	ENDS
;	COMDAT ??_C@_08COMINNNE@ItemDrop?$AA@
CONST	SEGMENT
??_C@_08COMINNNE@ItemDrop?$AA@ DB 'ItemDrop', 00H	; `string'
CONST	ENDS
;	COMDAT ??_C@_07LKKEEFDG@Rebirth?$AA@
CONST	SEGMENT
??_C@_07LKKEEFDG@Rebirth?$AA@ DB 'Rebirth', 00H		; `string'
CONST	ENDS
;	COMDAT ??_C@_08PDOHAPNM@HitPoint?$AA@
CONST	SEGMENT
??_C@_08PDOHAPNM@HitPoint?$AA@ DB 'HitPoint', 00H	; `string'
CONST	ENDS
;	COMDAT ??_C@_0M@LAGJIOMN@AttackPower?$AA@
CONST	SEGMENT
??_C@_0M@LAGJIOMN@AttackPower?$AA@ DB 'AttackPower', 00H ; `string'
CONST	ENDS
;	COMDAT ??_C@_07JGOIAFF@Respawn?$AA@
CONST	SEGMENT
??_C@_07JGOIAFF@Respawn?$AA@ DB 'Respawn', 00H		; `string'
CONST	ENDS
;	COMDAT ??_C@_0L@ICGAFIAO@Aggressive?$AA@
CONST	SEGMENT
??_C@_0L@ICGAFIAO@Aggressive?$AA@ DB 'Aggressive', 00H	; `string'
CONST	ENDS
;	COMDAT ??_C@_05NFJELHBG@Price?$AA@
CONST	SEGMENT
??_C@_05NFJELHBG@Price?$AA@ DB 'Price', 00H		; `string'
; Function compile flags: /Ogty
CONST	ENDS
;	COMDAT ?GetBaseGameSetting@CDbManager@@AAEHPAVCQuery@@PAD@Z
_TEXT	SEGMENT
_nBufValue$ = -1172					; size = 4
_bResult$ = -1168					; size = 4
$T205720 = -1164					; size = 4
_chBufName$ = -1160					; size = 128
_szQuery$ = -1032					; size = 1024
__$ArrayPad$ = -4					; size = 4
__$ReturnAddr$ = 4					; size = 4
_pQuery$ = 8						; size = 4
_lpstrTime$ = 12					; size = 4
?GetBaseGameSetting@CDbManager@@AAEHPAVCQuery@@PAD@Z PROC NEAR ; CDbManager::GetBaseGameSetting, COMDAT
; _this$ = ecx

; 170  : {

  00000	55		 push	 ebp
  00001	8b ec		 mov	 ebp, esp
  00003	83 e4 f8	 and	 esp, -8			; fffffff8H
  00006	81 ec 94 04 00
	00		 sub	 esp, 1172		; 00000494H
  0000c	a1 00 00 00 00	 mov	 eax, DWORD PTR ___security_cookie
  00011	53		 push	 ebx
  00012	8b 5d 08	 mov	 ebx, DWORD PTR _pQuery$[ebp]
  00015	33 c5		 xor	 eax, ebp
  00017	56		 push	 esi
  00018	89 84 24 98 04
	00 00		 mov	 DWORD PTR __$ArrayPad$[esp+1180], eax
  0001f	8b 45 0c	 mov	 eax, DWORD PTR _lpstrTime$[ebp]
  00022	57		 push	 edi

; 171  : 	char szQuery[1024];
; 172  : 	
; 173  : 	sprintf( szQuery, "GAME_BACKSYSTEM_STR 'S1','%02d','%s'", g_appInfo.dwSys, lpstrTime );

  00023	50		 push	 eax

; 299  : 				TRACE( "Price GAME_SETTING %f\n", prj.m_fShopCost );
; 300  : 			}
; 301  : 		}
; 302  : 		prj.m_bBaseGameSetting = TRUE;

  00024	89 44 24 18	 mov	 DWORD PTR $T205720[esp+1188], eax
  00028	a1 00 00 00 00	 mov	 eax, DWORD PTR ?g_appInfo@@3UAppInfo@@A
  0002d	50		 push	 eax
  0002e	8d 8c 24 a0 00
	00 00		 lea	 ecx, DWORD PTR _szQuery$[esp+1192]
  00035	68 00 00 00 00	 push	 OFFSET FLAT:??_C@_0CF@BDAEODNG@GAME_BACKSYSTEM_STR?5?8S1?8?0?8?$CF02d?8?0@
  0003a	51		 push	 ecx
  0003b	e8 00 00 00 00	 call	 _sprintf
  00040	83 c4 10	 add	 esp, 16			; 00000010H
  00043	8d 94 24 98 00
	00 00		 lea	 edx, DWORD PTR _szQuery$[esp+1184]
  0004a	52		 push	 edx
  0004b	8b cb		 mov	 ecx, ebx
  0004d	e8 00 00 00 00	 call	 ?Exec@CQuery@@QAEHPBD@Z	; CQuery::Exec
  00052	85 c0		 test	 eax, eax
  00054	75 38		 jne	 SHORT $L204517
  00056	8d 84 24 98 00
	00 00		 lea	 eax, DWORD PTR _szQuery$[esp+1184]
  0005d	50		 push	 eax
  0005e	68 b1 00 00 00	 push	 177			; 000000b1H
  00063	68 00 00 00 00	 push	 OFFSET FLAT:??_C@_0GK@BOIJKFBN@?2Documents?5and?5Settings?2test?2Mes@
  00068	68 00 00 00 00	 push	 OFFSET FLAT:??_C@_09GBAEEKDE@?$CFs?0?5?$CFd?7?$CFs?$AA@
  0006d	e8 00 00 00 00	 call	 ?WriteLog@@YAXPBDZZ	; WriteLog
  00072	83 c4 10	 add	 esp, 16			; 00000010H
  00075	33 c0		 xor	 eax, eax

; 304  : 	}
; 305  : 	return bResult;
; 306  : }

  00077	5f		 pop	 edi
  00078	5e		 pop	 esi
  00079	5b		 pop	 ebx
  0007a	8b 8c 24 90 04
	00 00		 mov	 ecx, DWORD PTR __$ArrayPad$[esp+1172]
  00081	33 cd		 xor	 ecx, ebp
  00083	e8 00 00 00 00	 call	 @__security_check_cookie@4
  00088	8b e5		 mov	 esp, ebp
  0008a	5d		 pop	 ebp
  0008b	c2 08 00	 ret	 8
$L204517:

; 174  : 	
; 175  : 	if( FALSE == pQuery->Exec( szQuery ) )
; 176  : 	{
; 177  : 		WriteLog( "%s, %d\t%s", __FILE__, __LINE__, szQuery );
; 178  : 		return FALSE;
; 179  : 	}	
; 180  : 	BOOL bResult = FALSE;	
; 181  : 	int nBufValue = 0;
; 182  : 	char chBufName[128];
; 183  : 	int nResult;
; 184  : 	while( pQuery->Fetch() )

  0008e	8b cb		 mov	 ecx, ebx
  00090	33 f6		 xor	 esi, esi
  00092	e8 00 00 00 00	 call	 ?Fetch@CQuery@@QAEHXZ	; CQuery::Fetch
  00097	85 c0		 test	 eax, eax
  00099	0f 84 1e 03 00
	00		 je	 $L204524

; 303  : 		bResult = TRUE;

  0009f	c7 44 24 10 01
	00 00 00	 mov	 DWORD PTR _bResult$[esp+1184], 1
  000a7	eb 07 8d a4 24
	00 00 00 00	 npad	 9
$L204523:

; 185  : 	{
; 186  : 		nResult = pQuery->GetInt( "bResult" );

  000b0	68 00 00 00 00	 push	 OFFSET FLAT:??_C@_07MGNKFCA@bResult?$AA@
  000b5	8b cb		 mov	 ecx, ebx
  000b7	e8 00 00 00 00	 call	 ?GetInt@CQuery@@QAEHPAD@Z ; CQuery::GetInt
  000bc	8b f0		 mov	 esi, eax

; 187  : 		ZeroMemory( chBufName, sizeof( chBufName ) );

  000be	33 c0		 xor	 eax, eax
  000c0	b9 20 00 00 00	 mov	 ecx, 32			; 00000020H
  000c5	8d 7c 24 18	 lea	 edi, DWORD PTR _chBufName$[esp+1184]
  000c9	f3 ab		 rep stosd

; 188  : 		pQuery->GetStr( "szName", chBufName );

  000cb	8d 4c 24 18	 lea	 ecx, DWORD PTR _chBufName$[esp+1184]
  000cf	51		 push	 ecx
  000d0	68 00 00 00 00	 push	 OFFSET FLAT:??_C@_06CJHGHFEP@szName?$AA@
  000d5	8b cb		 mov	 ecx, ebx
  000d7	e8 00 00 00 00	 call	 ?GetStr@CQuery@@QAEXPAD0@Z ; CQuery::GetStr

; 189  : 		if( nResult == 1)	// 

  000dc	83 fe 01	 cmp	 esi, 1
  000df	0f 85 85 01 00
	00		 jne	 $L204527

; 190  : 		{
; 191  : 			nBufValue = pQuery->GetInt( "rate" );

  000e5	68 00 00 00 00	 push	 OFFSET FLAT:??_C@_04HCCHHEEF@rate?$AA@
  000ea	8b cb		 mov	 ecx, ebx
  000ec	e8 00 00 00 00	 call	 ?GetInt@CQuery@@QAEHPAD@Z ; CQuery::GetInt

; 192  : 			if( strcmp( chBufName, "Exp" ) == 0 )

  000f1	bf 00 00 00 00	 mov	 edi, OFFSET FLAT:??_C@_03HKMMIPC@Exp?$AA@
  000f6	8d 74 24 18	 lea	 esi, DWORD PTR _chBufName$[esp+1184]
  000fa	b9 04 00 00 00	 mov	 ecx, 4
  000ff	33 d2		 xor	 edx, edx
  00101	f3 a6		 repe cmpsb
  00103	89 44 24 0c	 mov	 DWORD PTR _nBufValue$[esp+1184], eax
  00107	75 15		 jne	 SHORT $L204529

; 193  : 			{
; 194  : 				prj.m_fMonsterExpRate = (float)nBufValue / 100.0f;

  00109	db 44 24 0c	 fild	 DWORD PTR _nBufValue$[esp+1184]
  0010d	d8 0d 00 00 00
	00		 fmul	 DWORD PTR __real@3c23d70a
  00113	d9 1d 00 34 00
	00		 fstp	 DWORD PTR ?prj@@3VCProject@@A+13312

; 195  : 				TRACE( "Exp GAME_SETTING %f\n", prj.m_fMonsterExpRate );
; 196  : 			}
; 197  : 			else

  00119	e9 82 02 00 00	 jmp	 $L204582
$L204529:

; 198  : 			if( strcmp( chBufName, "Penya" ) == 0 )

  0011e	bf 00 00 00 00	 mov	 edi, OFFSET FLAT:??_C@_05OPFOCHJP@Penya?$AA@
  00123	8d 74 24 18	 lea	 esi, DWORD PTR _chBufName$[esp+1184]
  00127	b9 06 00 00 00	 mov	 ecx, 6
  0012c	33 c0		 xor	 eax, eax
  0012e	f3 a6		 repe cmpsb
  00130	75 15		 jne	 SHORT $L204533

; 199  : 			{
; 200  : 				prj.m_fGoldDropRate = (float)nBufValue / 100.0f;

  00132	db 44 24 0c	 fild	 DWORD PTR _nBufValue$[esp+1184]
  00136	d8 0d 00 00 00
	00		 fmul	 DWORD PTR __real@3c23d70a
  0013c	d9 1d fc 33 00
	00		 fstp	 DWORD PTR ?prj@@3VCProject@@A+13308

; 201  : 				TRACE( "Penya GAME_SETTING %f\n", prj.m_fGoldDropRate );
; 202  : 			}
; 203  : 			else

  00142	e9 59 02 00 00	 jmp	 $L204582
$L204533:

; 204  : 			if( strcmp( chBufName, "ItemDrop" ) == 0 )

  00147	bf 00 00 00 00	 mov	 edi, OFFSET FLAT:??_C@_08COMINNNE@ItemDrop?$AA@
  0014c	8d 74 24 18	 lea	 esi, DWORD PTR _chBufName$[esp+1184]
  00150	b9 09 00 00 00	 mov	 ecx, 9
  00155	33 d2		 xor	 edx, edx
  00157	f3 a6		 repe cmpsb
  00159	75 15		 jne	 SHORT $L204537

; 205  : 			{
; 206  : 				prj.m_fItemDropRate = (float)nBufValue / 100.0f;

  0015b	db 44 24 0c	 fild	 DWORD PTR _nBufValue$[esp+1184]
  0015f	d8 0d 00 00 00
	00		 fmul	 DWORD PTR __real@3c23d70a
  00165	d9 1d f8 33 00
	00		 fstp	 DWORD PTR ?prj@@3VCProject@@A+13304

; 207  : 				TRACE( "ItemDrop GAME_SETTING %f\n", prj.m_fItemDropRate );
; 208  : 			}
; 209  : 			else

  0016b	e9 30 02 00 00	 jmp	 $L204582
$L204537:

; 210  : 			if( strcmp( chBufName, "Rebirth" ) == 0 )

  00170	bf 00 00 00 00	 mov	 edi, OFFSET FLAT:??_C@_07LKKEEFDG@Rebirth?$AA@
  00175	8d 74 24 18	 lea	 esi, DWORD PTR _chBufName$[esp+1184]
  00179	b9 08 00 00 00	 mov	 ecx, 8
  0017e	33 c0		 xor	 eax, eax
  00180	f3 a6		 repe cmpsb
  00182	75 15		 jne	 SHORT $L204541

; 211  : 			{
; 212  : 				prj.m_fMonsterRebirthRate = (float)nBufValue / 100.0f;

  00184	db 44 24 0c	 fild	 DWORD PTR _nBufValue$[esp+1184]
  00188	d8 0d 00 00 00
	00		 fmul	 DWORD PTR __real@3c23d70a
  0018e	d9 1d 10 34 00
	00		 fstp	 DWORD PTR ?prj@@3VCProject@@A+13328

; 213  : 				TRACE( "Rebirth GAME_SETTING %f\n", prj.m_fMonsterRebirthRate );
; 214  : 			}
; 215  : 			else

  00194	e9 07 02 00 00	 jmp	 $L204582
$L204541:

; 216  : 			if( strcmp( chBufName, "HitPoint" ) == 0 )

  00199	bf 00 00 00 00	 mov	 edi, OFFSET FLAT:??_C@_08PDOHAPNM@HitPoint?$AA@
  0019e	8d 74 24 18	 lea	 esi, DWORD PTR _chBufName$[esp+1184]
  001a2	b9 09 00 00 00	 mov	 ecx, 9
  001a7	33 d2		 xor	 edx, edx
  001a9	f3 a6		 repe cmpsb
  001ab	75 15		 jne	 SHORT $L204545

; 217  : 			{
; 218  : 				prj.m_fMonsterHitpointRate = (float)nBufValue / 100.0f;

  001ad	db 44 24 0c	 fild	 DWORD PTR _nBufValue$[esp+1184]
  001b1	d8 0d 00 00 00
	00		 fmul	 DWORD PTR __real@3c23d70a
  001b7	d9 1d 14 34 00
	00		 fstp	 DWORD PTR ?prj@@3VCProject@@A+13332

; 219  : 				TRACE( "HitPointExp GAME_SETTING %f\n", prj.m_fMonsterHitpointRate );
; 220  : 			}
; 221  : 			else

  001bd	e9 de 01 00 00	 jmp	 $L204582
$L204545:

; 222  : 			if( strcmp( chBufName, "AttackPower" ) == 0 )

  001c2	bf 00 00 00 00	 mov	 edi, OFFSET FLAT:??_C@_0M@LAGJIOMN@AttackPower?$AA@
  001c7	8d 74 24 18	 lea	 esi, DWORD PTR _chBufName$[esp+1184]
  001cb	b9 0c 00 00 00	 mov	 ecx, 12			; 0000000cH
  001d0	33 c0		 xor	 eax, eax
  001d2	f3 a6		 repe cmpsb
  001d4	75 15		 jne	 SHORT $L204549

; 223  : 			{
; 224  : 				prj.m_fMonsterHitRate = (float)nBufValue / 100.0f;

  001d6	db 44 24 0c	 fild	 DWORD PTR _nBufValue$[esp+1184]
  001da	d8 0d 00 00 00
	00		 fmul	 DWORD PTR __real@3c23d70a
  001e0	d9 1d 04 34 00
	00		 fstp	 DWORD PTR ?prj@@3VCProject@@A+13316

; 225  : 				TRACE( "AttackPower GAME_SETTING %f\n", prj.m_fMonsterHitRate );
; 226  : 			}
; 227  : 			else

  001e6	e9 b5 01 00 00	 jmp	 $L204582
$L204549:

; 228  : 			if( strcmp( chBufName, "Respawn" ) == 0 )

  001eb	bf 00 00 00 00	 mov	 edi, OFFSET FLAT:??_C@_07JGOIAFF@Respawn?$AA@
  001f0	8d 74 24 18	 lea	 esi, DWORD PTR _chBufName$[esp+1184]
  001f4	b9 08 00 00 00	 mov	 ecx, 8
  001f9	33 d2		 xor	 edx, edx
  001fb	f3 a6		 repe cmpsb
  001fd	75 15		 jne	 SHORT $L204553

; 229  : 			{
; 230  : 				prj.m_fMonsterRespawnRate = (float)nBufValue / 100.0f;

  001ff	db 44 24 0c	 fild	 DWORD PTR _nBufValue$[esp+1184]
  00203	d8 0d 00 00 00
	00		 fmul	 DWORD PTR __real@3c23d70a
  00209	d9 1d 1c 34 00
	00		 fstp	 DWORD PTR ?prj@@3VCProject@@A+13340

; 231  : 				TRACE( "Respawn GAME_SETTING %f\n", prj.m_fMonsterRespawnRate );
; 232  : 			}
; 233  : 			else

  0020f	e9 8c 01 00 00	 jmp	 $L204582
$L204553:

; 234  : 			if( strcmp( chBufName, "Aggressive" ) == 0 )

  00214	bf 00 00 00 00	 mov	 edi, OFFSET FLAT:??_C@_0L@ICGAFIAO@Aggressive?$AA@
  00219	8d 74 24 18	 lea	 esi, DWORD PTR _chBufName$[esp+1184]
  0021d	b9 0b 00 00 00	 mov	 ecx, 11			; 0000000bH
  00222	33 c0		 xor	 eax, eax
  00224	f3 a6		 repe cmpsb
  00226	75 15		 jne	 SHORT $L204557

; 235  : 			{
; 236  : 				prj.m_fMonsterAggressiveRate = (float)nBufValue / 100.0f;

  00228	db 44 24 0c	 fild	 DWORD PTR _nBufValue$[esp+1184]
  0022c	d8 0d 00 00 00
	00		 fmul	 DWORD PTR __real@3c23d70a
  00232	d9 1d 18 34 00
	00		 fstp	 DWORD PTR ?prj@@3VCProject@@A+13336

; 237  : 				TRACE( "Aggressive GAME_SETTING %f\n", prj.m_fMonsterAggressiveRate );
; 238  : 			}
; 239  : 			else

  00238	e9 63 01 00 00	 jmp	 $L204582
$L204557:

; 240  : 			if( strcmp( chBufName, "Price" ) == 0 )

  0023d	bf 00 00 00 00	 mov	 edi, OFFSET FLAT:??_C@_05NFJELHBG@Price?$AA@
  00242	8d 74 24 18	 lea	 esi, DWORD PTR _chBufName$[esp+1184]
  00246	b9 06 00 00 00	 mov	 ecx, 6
  0024b	33 d2		 xor	 edx, edx
  0024d	f3 a6		 repe cmpsb
  0024f	0f 85 4b 01 00
	00		 jne	 $L204582

; 241  : 			{
; 242  : 				prj.m_fShopCost = (float)nBufValue / 100.0f;

  00255	db 44 24 0c	 fild	 DWORD PTR _nBufValue$[esp+1184]
  00259	d8 0d 00 00 00
	00		 fmul	 DWORD PTR __real@3c23d70a
  0025f	d9 1d 08 34 00
	00		 fstp	 DWORD PTR ?prj@@3VCProject@@A+13320

; 243  : 				TRACE( "Price GAME_SETTING %f\n", prj.m_fShopCost );
; 244  : 			}
; 245  : 		}
; 246  : 		else if( lpstrTime != '\0' )

  00265	e9 36 01 00 00	 jmp	 $L204582
$L204527:
  0026a	8b 44 24 14	 mov	 eax, DWORD PTR $T205720[esp+1184]
  0026e	85 c0		 test	 eax, eax
  00270	0f 84 2a 01 00
	00		 je	 $L204582

; 247  : 		{
; 248  : 			if( strcmp( chBufName, "Exp" ) == 0 )

  00276	bf 00 00 00 00	 mov	 edi, OFFSET FLAT:??_C@_03HKMMIPC@Exp?$AA@
  0027b	8d 74 24 18	 lea	 esi, DWORD PTR _chBufName$[esp+1184]
  0027f	b9 04 00 00 00	 mov	 ecx, 4
  00284	33 c0		 xor	 eax, eax
  00286	f3 a6		 repe cmpsb
  00288	75 0f		 jne	 SHORT $L204566

; 249  : 			{
; 250  : 				prj.m_fMonsterExpRate = 1.0f;

  0028a	c7 05 00 34 00
	00 00 00 80 3f	 mov	 DWORD PTR ?prj@@3VCProject@@A+13312, 1065353216 ; 3f800000H

; 251  : 				TRACE( "Exp GAME_SETTING %f\n", prj.m_fMonsterExpRate );
; 252  : 			}
; 253  : 			else

  00294	e9 07 01 00 00	 jmp	 $L204582
$L204566:

; 254  : 			if( strcmp( chBufName, "Penya" ) == 0 )

  00299	bf 00 00 00 00	 mov	 edi, OFFSET FLAT:??_C@_05OPFOCHJP@Penya?$AA@
  0029e	8d 74 24 18	 lea	 esi, DWORD PTR _chBufName$[esp+1184]
  002a2	b9 06 00 00 00	 mov	 ecx, 6
  002a7	33 d2		 xor	 edx, edx
  002a9	f3 a6		 repe cmpsb
  002ab	75 0f		 jne	 SHORT $L204568

; 255  : 			{
; 256  : 				prj.m_fGoldDropRate = 1.0f;

  002ad	c7 05 fc 33 00
	00 00 00 80 3f	 mov	 DWORD PTR ?prj@@3VCProject@@A+13308, 1065353216 ; 3f800000H

; 257  : 				TRACE( "Penya GAME_SETTING %f\n", prj.m_fGoldDropRate );
; 258  : 			}
; 259  : 			else

  002b7	e9 e4 00 00 00	 jmp	 $L204582
$L204568:

; 260  : 			if( strcmp( chBufName, "ItemDrop" ) == 0 )

  002bc	bf 00 00 00 00	 mov	 edi, OFFSET FLAT:??_C@_08COMINNNE@ItemDrop?$AA@
  002c1	8d 74 24 18	 lea	 esi, DWORD PTR _chBufName$[esp+1184]
  002c5	b9 09 00 00 00	 mov	 ecx, 9
  002ca	33 c0		 xor	 eax, eax
  002cc	f3 a6		 repe cmpsb
  002ce	75 0f		 jne	 SHORT $L204570

; 261  : 			{
; 262  : 				prj.m_fItemDropRate = 1.0f;

  002d0	c7 05 f8 33 00
	00 00 00 80 3f	 mov	 DWORD PTR ?prj@@3VCProject@@A+13304, 1065353216 ; 3f800000H

; 263  : 				TRACE( "ItemDrop GAME_SETTING %f\n", prj.m_fItemDropRate );
; 264  : 			}
; 265  : 			else

  002da	e9 c1 00 00 00	 jmp	 $L204582
$L204570:

; 266  : 			if( strcmp( chBufName, "Rebirth" ) == 0 )

  002df	bf 00 00 00 00	 mov	 edi, OFFSET FLAT:??_C@_07LKKEEFDG@Rebirth?$AA@
  002e4	8d 74 24 18	 lea	 esi, DWORD PTR _chBufName$[esp+1184]
  002e8	b9 08 00 00 00	 mov	 ecx, 8
  002ed	33 d2		 xor	 edx, edx
  002ef	f3 a6		 repe cmpsb
  002f1	75 0f		 jne	 SHORT $L204572

; 267  : 			{
; 268  : 				prj.m_fMonsterRebirthRate = 1.0f;

  002f3	c7 05 10 34 00
	00 00 00 80 3f	 mov	 DWORD PTR ?prj@@3VCProject@@A+13328, 1065353216 ; 3f800000H

; 269  : 				TRACE( "Rebirth GAME_SETTING %f\n", prj.m_fMonsterRebirthRate );
; 270  : 			}
; 271  : 			else

  002fd	e9 9e 00 00 00	 jmp	 $L204582
$L204572:

; 272  : 			if( strcmp( chBufName, "HitPoint" ) == 0 )

  00302	bf 00 00 00 00	 mov	 edi, OFFSET FLAT:??_C@_08PDOHAPNM@HitPoint?$AA@
  00307	8d 74 24 18	 lea	 esi, DWORD PTR _chBufName$[esp+1184]
  0030b	b9 09 00 00 00	 mov	 ecx, 9
  00310	33 c0		 xor	 eax, eax
  00312	f3 a6		 repe cmpsb
  00314	75 0c		 jne	 SHORT $L204574

; 273  : 			{
; 274  : 				prj.m_fMonsterHitpointRate = 1.0f;

  00316	c7 05 14 34 00
	00 00 00 80 3f	 mov	 DWORD PTR ?prj@@3VCProject@@A+13332, 1065353216 ; 3f800000H

; 275  : 				TRACE( "HitPointExp GAME_SETTING %f\n", prj.m_fMonsterHitpointRate );
; 276  : 			}
; 277  : 			else

  00320	eb 7e		 jmp	 SHORT $L204582
$L204574:

; 278  : 			if( strcmp( chBufName, "AttackPower" ) == 0 )

  00322	bf 00 00 00 00	 mov	 edi, OFFSET FLAT:??_C@_0M@LAGJIOMN@AttackPower?$AA@
  00327	8d 74 24 18	 lea	 esi, DWORD PTR _chBufName$[esp+1184]
  0032b	b9 0c 00 00 00	 mov	 ecx, 12			; 0000000cH
  00330	33 d2		 xor	 edx, edx
  00332	f3 a6		 repe cmpsb
  00334	75 0c		 jne	 SHORT $L204576

; 279  : 			{
; 280  : 				prj.m_fMonsterHitRate = 1.0f;

  00336	c7 05 04 34 00
	00 00 00 80 3f	 mov	 DWORD PTR ?prj@@3VCProject@@A+13316, 1065353216 ; 3f800000H

; 281  : 				TRACE( "AttackPower GAME_SETTING %f\n", prj.m_fMonsterHitRate );
; 282  : 			}
; 283  : 			else

  00340	eb 5e		 jmp	 SHORT $L204582
$L204576:

; 284  : 			if( strcmp( chBufName, "Respawn" ) == 0 )

  00342	bf 00 00 00 00	 mov	 edi, OFFSET FLAT:??_C@_07JGOIAFF@Respawn?$AA@
  00347	8d 74 24 18	 lea	 esi, DWORD PTR _chBufName$[esp+1184]
  0034b	b9 08 00 00 00	 mov	 ecx, 8
  00350	33 c0		 xor	 eax, eax
  00352	f3 a6		 repe cmpsb
  00354	75 0c		 jne	 SHORT $L204578

; 285  : 			{
; 286  : 				prj.m_fMonsterRespawnRate = 1.0f;

  00356	c7 05 1c 34 00
	00 00 00 80 3f	 mov	 DWORD PTR ?prj@@3VCProject@@A+13340, 1065353216 ; 3f800000H

; 287  : 				TRACE( "Respawn GAME_SETTING %f\n", prj.m_fMonsterRespawnRate );
; 288  : 			}
; 289  : 			else

  00360	eb 3e		 jmp	 SHORT $L204582
$L204578:

; 290  : 			if( strcmp( chBufName, "Aggressive" ) == 0 )

  00362	bf 00 00 00 00	 mov	 edi, OFFSET FLAT:??_C@_0L@ICGAFIAO@Aggressive?$AA@
  00367	8d 74 24 18	 lea	 esi, DWORD PTR _chBufName$[esp+1184]
  0036b	b9 0b 00 00 00	 mov	 ecx, 11			; 0000000bH
  00370	33 d2		 xor	 edx, edx
  00372	f3 a6		 repe cmpsb
  00374	75 0c		 jne	 SHORT $L204580

; 291  : 			{
; 292  : 				prj.m_fMonsterAggressiveRate = 0.2f;

  00376	c7 05 18 34 00
	00 cd cc 4c 3e	 mov	 DWORD PTR ?prj@@3VCProject@@A+13336, 1045220557 ; 3e4ccccdH

; 293  : 				TRACE( "Aggressive GAME_SETTING %f\n", prj.m_fMonsterAggressiveRate );
; 294  : 			}
; 295  : 			else

  00380	eb 1e		 jmp	 SHORT $L204582
$L204580:

; 296  : 			if( strcmp( chBufName, "Price" ) == 0 )

  00382	bf 00 00 00 00	 mov	 edi, OFFSET FLAT:??_C@_05NFJELHBG@Price?$AA@
  00387	8d 74 24 18	 lea	 esi, DWORD PTR _chBufName$[esp+1184]
  0038b	b9 06 00 00 00	 mov	 ecx, 6
  00390	33 c0		 xor	 eax, eax
  00392	f3 a6		 repe cmpsb
  00394	75 0a		 jne	 SHORT $L204582

; 297  : 			{
; 298  : 				prj.m_fShopCost = 1.0f;

  00396	c7 05 08 34 00
	00 00 00 80 3f	 mov	 DWORD PTR ?prj@@3VCProject@@A+13320, 1065353216 ; 3f800000H
$L204582:

; 174  : 	
; 175  : 	if( FALSE == pQuery->Exec( szQuery ) )
; 176  : 	{
; 177  : 		WriteLog( "%s, %d\t%s", __FILE__, __LINE__, szQuery );
; 178  : 		return FALSE;
; 179  : 	}	
; 180  : 	BOOL bResult = FALSE;	
; 181  : 	int nBufValue = 0;
; 182  : 	char chBufName[128];
; 183  : 	int nResult;
; 184  : 	while( pQuery->Fetch() )

  003a0	8b cb		 mov	 ecx, ebx

; 299  : 				TRACE( "Price GAME_SETTING %f\n", prj.m_fShopCost );
; 300  : 			}
; 301  : 		}
; 302  : 		prj.m_bBaseGameSetting = TRUE;

  003a2	c7 05 20 34 00
	00 01 00 00 00	 mov	 DWORD PTR ?prj@@3VCProject@@A+13344, 1
  003ac	e8 00 00 00 00	 call	 ?Fetch@CQuery@@QAEHXZ	; CQuery::Fetch
  003b1	85 c0		 test	 eax, eax
  003b3	0f 85 f7 fc ff
	ff		 jne	 $L204523

; 174  : 	
; 175  : 	if( FALSE == pQuery->Exec( szQuery ) )
; 176  : 	{
; 177  : 		WriteLog( "%s, %d\t%s", __FILE__, __LINE__, szQuery );
; 178  : 		return FALSE;
; 179  : 	}	
; 180  : 	BOOL bResult = FALSE;	
; 181  : 	int nBufValue = 0;
; 182  : 	char chBufName[128];
; 183  : 	int nResult;
; 184  : 	while( pQuery->Fetch() )

  003b9	8b 74 24 10	 mov	 esi, DWORD PTR _bResult$[esp+1184]
$L204524:

; 304  : 	}
; 305  : 	return bResult;
; 306  : }

  003bd	8b 8c 24 9c 04
	00 00		 mov	 ecx, DWORD PTR __$ArrayPad$[esp+1184]
  003c4	5f		 pop	 edi
  003c5	8b c6		 mov	 eax, esi
  003c7	5e		 pop	 esi
  003c8	33 cd		 xor	 ecx, ebp
  003ca	5b		 pop	 ebx
  003cb	e8 00 00 00 00	 call	 @__security_check_cookie@4
  003d0	8b e5		 mov	 esp, ebp
  003d2	5d		 pop	 ebp
  003d3	c2 08 00	 ret	 8
?GetBaseGameSetting@CDbManager@@AAEHPAVCQuery@@PAD@Z ENDP ; CDbManager::GetBaseGameSetting
_TEXT	ENDS
PUBLIC	?AddMonsterRespawn@CDbManager@@AAEHU_MONSTER_RESPAWN@@@Z ; CDbManager::AddMonsterRespawn
PUBLIC	??_C@_0CB@HODAFBNJ@AddMonsterRespawn?5Overflow?5Error@ ; `string'
;	COMDAT ??_C@_0CB@HODAFBNJ@AddMonsterRespawn?5Overflow?5Error@
CONST	SEGMENT
??_C@_0CB@HODAFBNJ@AddMonsterRespawn?5Overflow?5Error@ DB 'AddMonsterResp'
	DB	'awn Overflow Error', 00H			; `string'
; Function compile flags: /Ogty
CONST	ENDS
;	COMDAT ?AddMonsterRespawn@CDbManager@@AAEHU_MONSTER_RESPAWN@@@Z
_TEXT	SEGMENT
__$ArrayPad$ = -4					; size = 4
__$ReturnAddr$ = 4					; size = 4
_BufMonsterRespawn$ = 8					; size = 64
?AddMonsterRespawn@CDbManager@@AAEHU_MONSTER_RESPAWN@@@Z PROC NEAR ; CDbManager::AddMonsterRespawn, COMDAT
; _this$ = ecx

; 397  : {

  00000	51		 push	 ecx
  00001	a1 00 00 00 00	 mov	 eax, DWORD PTR ___security_cookie
  00006	33 c4		 xor	 eax, esp
  00008	89 04 24	 mov	 DWORD PTR __$ArrayPad$[esp+4], eax

; 398  : 	if( prj.m_nMonsterPropSize < MAX_RESPAWN )

  0000b	81 3d 38 74 04
	00 00 04 00 00	 cmp	 DWORD PTR ?prj@@3VCProject@@A+291896, 1024 ; 00000400H
  00015	0f 83 f2 00 00
	00		 jae	 $L204636

; 399  : 	{
; 400  : 		strcpy( prj.m_aMonsterRespawn[ prj.m_nMonsterRespawnSize ].szMonsterName, BufMonsterRespawn.szMonsterName );

  0001b	a1 2c 34 02 00	 mov	 eax, DWORD PTR ?prj@@3VCProject@@A+144428
  00020	c1 e0 06	 shl	 eax, 6
  00023	8d 54 24 08	 lea	 edx, DWORD PTR _BufMonsterRespawn$[esp]
  00027	05 28 34 00 00	 add	 eax, OFFSET FLAT:?prj@@3VCProject@@A+13352
  0002c	8d 64 24 00	 npad	 4
$L205752:
  00030	8a 0a		 mov	 cl, BYTE PTR [edx]
  00032	42		 inc	 edx
  00033	88 08		 mov	 BYTE PTR [eax], cl
  00035	40		 inc	 eax
  00036	84 c9		 test	 cl, cl
  00038	75 f6		 jne	 SHORT $L205752

; 401  : 		prj.m_aMonsterRespawn[ prj.m_nMonsterRespawnSize ].vPos = BufMonsterRespawn.vPos;

  0003a	a1 2c 34 02 00	 mov	 eax, DWORD PTR ?prj@@3VCProject@@A+144428
  0003f	8b 4c 24 2c	 mov	 ecx, DWORD PTR _BufMonsterRespawn$[esp+36]
  00043	8b 54 24 30	 mov	 edx, DWORD PTR _BufMonsterRespawn$[esp+40]
  00047	c1 e0 06	 shl	 eax, 6
  0004a	05 4c 34 00 00	 add	 eax, OFFSET FLAT:?prj@@3VCProject@@A+13388
  0004f	89 08		 mov	 DWORD PTR [eax], ecx
  00051	8b 4c 24 34	 mov	 ecx, DWORD PTR _BufMonsterRespawn$[esp+44]
  00055	89 50 04	 mov	 DWORD PTR [eax+4], edx
  00058	89 48 08	 mov	 DWORD PTR [eax+8], ecx

; 402  : 		prj.m_aMonsterRespawn[ prj.m_nMonsterRespawnSize ].nQuantity = BufMonsterRespawn.nQuantity;

  0005b	8b 15 2c 34 02
	00		 mov	 edx, DWORD PTR ?prj@@3VCProject@@A+144428
  00061	8b 44 24 38	 mov	 eax, DWORD PTR _BufMonsterRespawn$[esp+48]
  00065	c1 e2 06	 shl	 edx, 6
  00068	89 82 58 34 00
	00		 mov	 DWORD PTR ?prj@@3VCProject@@A[edx+13400], eax

; 403  : 		prj.m_aMonsterRespawn[ prj.m_nMonsterRespawnSize ].nAggressive = BufMonsterRespawn.nAggressive;

  0006e	8b 0d 2c 34 02
	00		 mov	 ecx, DWORD PTR ?prj@@3VCProject@@A+144428
  00074	8b 54 24 3c	 mov	 edx, DWORD PTR _BufMonsterRespawn$[esp+52]
  00078	c1 e1 06	 shl	 ecx, 6
  0007b	89 91 5c 34 00
	00		 mov	 DWORD PTR ?prj@@3VCProject@@A[ecx+13404], edx

; 404  : 		prj.m_aMonsterRespawn[ prj.m_nMonsterRespawnSize ].nRange = BufMonsterRespawn.nRange;

  00081	a1 2c 34 02 00	 mov	 eax, DWORD PTR ?prj@@3VCProject@@A+144428
  00086	8b 4c 24 40	 mov	 ecx, DWORD PTR _BufMonsterRespawn$[esp+56]
  0008a	c1 e0 06	 shl	 eax, 6
  0008d	89 88 60 34 00
	00		 mov	 DWORD PTR ?prj@@3VCProject@@A[eax+13408], ecx

; 405  : 		prj.m_aMonsterRespawn[ prj.m_nMonsterRespawnSize ].nTime = BufMonsterRespawn.nTime;

  00093	8b 15 2c 34 02
	00		 mov	 edx, DWORD PTR ?prj@@3VCProject@@A+144428
  00099	8b 44 24 44	 mov	 eax, DWORD PTR _BufMonsterRespawn$[esp+60]
  0009d	c1 e2 06	 shl	 edx, 6
  000a0	89 82 64 34 00
	00		 mov	 DWORD PTR ?prj@@3VCProject@@A[edx+13412], eax

; 406  : 		prj.m_aMonsterRespawn[ prj.m_nMonsterRespawnSize ].nRespawnIndex = BufMonsterRespawn.nRespawnIndex;

  000a6	8b 0d 2c 34 02
	00		 mov	 ecx, DWORD PTR ?prj@@3VCProject@@A+144428
  000ac	8b 54 24 28	 mov	 edx, DWORD PTR _BufMonsterRespawn$[esp+32]
  000b0	56		 push	 esi
  000b1	c1 e1 06	 shl	 ecx, 6
  000b4	89 91 48 34 00
	00		 mov	 DWORD PTR ?prj@@3VCProject@@A[ecx+13384], edx

; 407  : 		prj.n_aAddRespawn[ prj.m_nAddMonsterRespawnSize ] = prj.m_aMonsterRespawn[ prj.m_nMonsterRespawnSize ];

  000ba	8b 35 2c 34 02
	00		 mov	 esi, DWORD PTR ?prj@@3VCProject@@A+144428
  000c0	57		 push	 edi
  000c1	8b 3d 28 34 02
	00		 mov	 edi, DWORD PTR ?prj@@3VCProject@@A+144424
  000c7	c1 e6 06	 shl	 esi, 6
  000ca	c1 e7 06	 shl	 edi, 6
  000cd	81 c6 28 34 00
	00		 add	 esi, OFFSET FLAT:?prj@@3VCProject@@A+13352
  000d3	81 c7 28 34 01
	00		 add	 edi, OFFSET FLAT:?prj@@3VCProject@@A+78888
  000d9	b9 10 00 00 00	 mov	 ecx, 16			; 00000010H
  000de	f3 a5		 rep movsd

; 408  : 
; 409  : 		++prj.m_nMonsterRespawnSize;

  000e0	8b 0d 2c 34 02
	00		 mov	 ecx, DWORD PTR ?prj@@3VCProject@@A+144428

; 410  : 		++prj.m_nAddMonsterRespawnSize;

  000e6	a1 28 34 02 00	 mov	 eax, DWORD PTR ?prj@@3VCProject@@A+144424
  000eb	41		 inc	 ecx
  000ec	40		 inc	 eax
  000ed	5f		 pop	 edi
  000ee	a3 28 34 02 00	 mov	 DWORD PTR ?prj@@3VCProject@@A+144424, eax
  000f3	89 0d 2c 34 02
	00		 mov	 DWORD PTR ?prj@@3VCProject@@A+144428, ecx

; 411  : 		TRACE( "Add MONSTER_RESPAWN : MAX(%d), MonName(%s)\n", prj.m_nMonsterRespawnSize,  prj.m_aMonsterRespawn[ prj.m_nMonsterRespawnSize - 1].szMonsterName);
; 412  : 		return TRUE;

  000f9	b8 01 00 00 00	 mov	 eax, 1
  000fe	5e		 pop	 esi

; 416  : 
; 417  : 	return FALSE;
; 418  : }

  000ff	8b 0c 24	 mov	 ecx, DWORD PTR __$ArrayPad$[esp+4]
  00102	33 cc		 xor	 ecx, esp
  00104	e8 00 00 00 00	 call	 @__security_check_cookie@4
  00109	59		 pop	 ecx
  0010a	c2 40 00	 ret	 64			; 00000040H
$L204636:

; 413  : 	}
; 414  : 	else
; 415  : 		WriteLog( "AddMonsterRespawn Overflow Error" );

  0010d	68 00 00 00 00	 push	 OFFSET FLAT:??_C@_0CB@HODAFBNJ@AddMonsterRespawn?5Overflow?5Error@
  00112	e8 00 00 00 00	 call	 ?WriteLog@@YAXPBDZZ	; WriteLog

; 416  : 
; 417  : 	return FALSE;
; 418  : }

  00117	8b 4c 24 04	 mov	 ecx, DWORD PTR __$ArrayPad$[esp+8]
  0011b	83 c4 04	 add	 esp, 4
  0011e	33 cc		 xor	 ecx, esp
  00120	33 c0		 xor	 eax, eax
  00122	e8 00 00 00 00	 call	 @__security_check_cookie@4
  00127	59		 pop	 ecx
  00128	c2 40 00	 ret	 64			; 00000040H
?AddMonsterRespawn@CDbManager@@AAEHU_MONSTER_RESPAWN@@@Z ENDP ; CDbManager::AddMonsterRespawn
_TEXT	ENDS
PUBLIC	?RemoveMonsterRespawn@CDbManager@@AAEHHAAHQAH@Z	; CDbManager::RemoveMonsterRespawn
; Function compile flags: /Ogty
;	COMDAT ?RemoveMonsterRespawn@CDbManager@@AAEHHAAHQAH@Z
_TEXT	SEGMENT
_nIndex$ = 8						; size = 4
_nMaxRemove$ = 12					; size = 4
_aRemoveRespawn$ = 16					; size = 4
?RemoveMonsterRespawn@CDbManager@@AAEHHAAHQAH@Z PROC NEAR ; CDbManager::RemoveMonsterRespawn, COMDAT
; _this$ = ecx

; 421  : {

  00000	56		 push	 esi

; 422  : 	BOOL bFind = FALSE;
; 423  : 	int nRemoveBuf = 0;
; 424  : 	for( DWORD i = 0 ; i < prj.m_nMonsterRespawnSize ; ++i )

  00001	8b 35 2c 34 02
	00		 mov	 esi, DWORD PTR ?prj@@3VCProject@@A+144428
  00007	33 c0		 xor	 eax, eax
  00009	85 f6		 test	 esi, esi
  0000b	76 65		 jbe	 SHORT $L205763
  0000d	53		 push	 ebx
  0000e	8b 5c 24 0c	 mov	 ebx, DWORD PTR _nIndex$[esp+4]
  00012	b9 48 34 00 00	 mov	 ecx, OFFSET FLAT:?prj@@3VCProject@@A+13384
$L204648:

; 425  : 	{
; 426  : 		if( prj.m_aMonsterRespawn[i].nRespawnIndex == nIndex )

  00017	39 19		 cmp	 DWORD PTR [ecx], ebx
  00019	74 0f		 je	 SHORT $L205759
  0001b	40		 inc	 eax
  0001c	83 c1 40	 add	 ecx, 64			; 00000040H
  0001f	3b c6		 cmp	 eax, esi
  00021	72 f4		 jb	 SHORT $L204648
  00023	5b		 pop	 ebx

; 443  : 	}
; 444  : 	return FALSE;

  00024	33 c0		 xor	 eax, eax
  00026	5e		 pop	 esi

; 445  : }

  00027	c2 0c 00	 ret	 12			; 0000000cH
$L205759:

; 427  : 		{
; 428  : 			nRemoveBuf = i;
; 429  : 			bFind = TRUE;
; 430  : 			break;
; 431  : 		}
; 432  : 	}
; 433  : 	
; 434  : 	if( bFind )
; 435  : 	{
; 436  : 		for( DWORD i = nRemoveBuf ; i < prj.m_nMonsterRespawnSize - 1 ; ++i )

  0002a	4e		 dec	 esi
  0002b	3b c6		 cmp	 eax, esi
  0002d	8b d0		 mov	 edx, eax
  0002f	73 2b		 jae	 SHORT $L204656
  00031	c1 e0 06	 shl	 eax, 6
  00034	05 28 34 00 00	 add	 eax, OFFSET FLAT:?prj@@3VCProject@@A+13352
  00039	57		 push	 edi
  0003a	8d 9b 00 00 00
	00		 npad	 6
$L204654:

; 437  : 		{
; 438  : 			prj.m_aMonsterRespawn[i] = prj.m_aMonsterRespawn[i + 1];

  00040	8d 70 40	 lea	 esi, DWORD PTR [eax+64]
  00043	8b f8		 mov	 edi, eax
  00045	b9 10 00 00 00	 mov	 ecx, 16			; 00000010H
  0004a	f3 a5		 rep movsd
  0004c	8b 0d 2c 34 02
	00		 mov	 ecx, DWORD PTR ?prj@@3VCProject@@A+144428
  00052	42		 inc	 edx
  00053	83 c0 40	 add	 eax, 64			; 00000040H
  00056	49		 dec	 ecx
  00057	3b d1		 cmp	 edx, ecx
  00059	72 e5		 jb	 SHORT $L204654
  0005b	5f		 pop	 edi
$L204656:

; 439  : 		}
; 440  : 		aRemoveRespawn[nMaxRemove] = nIndex;

  0005c	8b 44 24 10	 mov	 eax, DWORD PTR _nMaxRemove$[esp+4]
  00060	8b 10		 mov	 edx, DWORD PTR [eax]
  00062	8b 4c 24 14	 mov	 ecx, DWORD PTR _aRemoveRespawn$[esp+4]
  00066	89 1c 91	 mov	 DWORD PTR [ecx+edx*4], ebx

; 441  : 		++nMaxRemove;

  00069	ff 00		 inc	 DWORD PTR [eax]

; 442  : 		--prj.m_nMonsterRespawnSize;

  0006b	ff 0d 2c 34 02
	00		 dec	 DWORD PTR ?prj@@3VCProject@@A+144428
  00071	5b		 pop	 ebx
$L205763:

; 443  : 	}
; 444  : 	return FALSE;

  00072	33 c0		 xor	 eax, eax
  00074	5e		 pop	 esi

; 445  : }

  00075	c2 0c 00	 ret	 12			; 0000000cH
?RemoveMonsterRespawn@CDbManager@@AAEHHAAHQAH@Z ENDP	; CDbManager::RemoveMonsterRespawn
_TEXT	ENDS
PUBLIC	?AddMonsterProp@CDbManager@@AAEHU_MONSTER_PROP@@@Z ; CDbManager::AddMonsterProp
PUBLIC	??_C@_0BO@JOPEDMLI@AddMonsterProp?5Overflow?5Error?$AA@ ; `string'
;	COMDAT ??_C@_0BO@JOPEDMLI@AddMonsterProp?5Overflow?5Error?$AA@
CONST	SEGMENT
??_C@_0BO@JOPEDMLI@AddMonsterProp?5Overflow?5Error?$AA@ DB 'AddMonsterPro'
	DB	'p Overflow Error', 00H			; `string'
; Function compile flags: /Ogty
CONST	ENDS
;	COMDAT ?AddMonsterProp@CDbManager@@AAEHU_MONSTER_PROP@@@Z
_TEXT	SEGMENT
__$ArrayPad$ = -4					; size = 4
__$ReturnAddr$ = 4					; size = 4
_BufMonsterProp$ = 8					; size = 56
?AddMonsterProp@CDbManager@@AAEHU_MONSTER_PROP@@@Z PROC NEAR ; CDbManager::AddMonsterProp, COMDAT
; _this$ = ecx

; 448  : {

  00000	51		 push	 ecx
  00001	a1 00 00 00 00	 mov	 eax, DWORD PTR ___security_cookie

; 449  : 	if( prj.m_nMonsterPropSize < MAX_MONSTER_PROP )

  00006	8b 15 38 74 04
	00		 mov	 edx, DWORD PTR ?prj@@3VCProject@@A+291896
  0000c	33 c4		 xor	 eax, esp
  0000e	81 fa 00 04 00
	00		 cmp	 edx, 1024		; 00000400H
  00014	89 04 24	 mov	 DWORD PTR __$ArrayPad$[esp+4], eax
  00017	0f 83 e1 00 00
	00		 jae	 $L204661

; 450  : 	{
; 451  : 		strcpy( prj.m_aMonsterProp[ prj.m_nMonsterPropSize ].szMonsterName, BufMonsterProp.szMonsterName );

  0001d	6b d2 38	 imul	 edx, 56			; 00000038H
  00020	8d 4c 24 08	 lea	 ecx, DWORD PTR _BufMonsterProp$[esp]
  00024	81 c2 30 34 02
	00		 add	 edx, OFFSET FLAT:?prj@@3VCProject@@A+144432
  0002a	8d 9b 00 00 00
	00		 npad	 6
$L205769:
  00030	8a 01		 mov	 al, BYTE PTR [ecx]
  00032	41		 inc	 ecx
  00033	88 02		 mov	 BYTE PTR [edx], al
  00035	42		 inc	 edx
  00036	84 c0		 test	 al, al
  00038	75 f6		 jne	 SHORT $L205769

; 452  : 		prj.m_aMonsterProp[ prj.m_nMonsterPropSize ].nHitPoint = BufMonsterProp.nHitPoint;

  0003a	a1 38 74 04 00	 mov	 eax, DWORD PTR ?prj@@3VCProject@@A+291896
  0003f	8b 4c 24 28	 mov	 ecx, DWORD PTR _BufMonsterProp$[esp+32]
  00043	6b c0 38	 imul	 eax, 56			; 00000038H
  00046	89 88 50 34 02
	00		 mov	 DWORD PTR ?prj@@3VCProject@@A[eax+144464], ecx

; 453  : 		prj.m_aMonsterProp[ prj.m_nMonsterPropSize ].nAttackPower = BufMonsterProp.nAttackPower;

  0004c	8b 15 38 74 04
	00		 mov	 edx, DWORD PTR ?prj@@3VCProject@@A+291896
  00052	8b 44 24 2c	 mov	 eax, DWORD PTR _BufMonsterProp$[esp+36]
  00056	6b d2 38	 imul	 edx, 56			; 00000038H
  00059	89 82 54 34 02
	00		 mov	 DWORD PTR ?prj@@3VCProject@@A[edx+144468], eax

; 454  : 		prj.m_aMonsterProp[ prj.m_nMonsterPropSize ].nDefence = BufMonsterProp.nDefence;

  0005f	8b 0d 38 74 04
	00		 mov	 ecx, DWORD PTR ?prj@@3VCProject@@A+291896
  00065	8b 54 24 30	 mov	 edx, DWORD PTR _BufMonsterProp$[esp+40]
  00069	6b c9 38	 imul	 ecx, 56			; 00000038H
  0006c	89 91 58 34 02
	00		 mov	 DWORD PTR ?prj@@3VCProject@@A[ecx+144472], edx

; 455  : 		prj.m_aMonsterProp[ prj.m_nMonsterPropSize ].nExp = BufMonsterProp.nExp;

  00072	a1 38 74 04 00	 mov	 eax, DWORD PTR ?prj@@3VCProject@@A+291896
  00077	8b 4c 24 34	 mov	 ecx, DWORD PTR _BufMonsterProp$[esp+44]
  0007b	6b c0 38	 imul	 eax, 56			; 00000038H
  0007e	89 88 5c 34 02
	00		 mov	 DWORD PTR ?prj@@3VCProject@@A[eax+144476], ecx

; 456  : 		prj.m_aMonsterProp[ prj.m_nMonsterPropSize ].nItemDrop = BufMonsterProp.nItemDrop;

  00084	8b 15 38 74 04
	00		 mov	 edx, DWORD PTR ?prj@@3VCProject@@A+291896
  0008a	8b 44 24 38	 mov	 eax, DWORD PTR _BufMonsterProp$[esp+48]
  0008e	6b d2 38	 imul	 edx, 56			; 00000038H
  00091	89 82 60 34 02
	00		 mov	 DWORD PTR ?prj@@3VCProject@@A[edx+144480], eax

; 457  : 		prj.m_aMonsterProp[ prj.m_nMonsterPropSize ].nPenya = BufMonsterProp.nPenya;

  00097	8b 0d 38 74 04
	00		 mov	 ecx, DWORD PTR ?prj@@3VCProject@@A+291896
  0009d	8b 54 24 3c	 mov	 edx, DWORD PTR _BufMonsterProp$[esp+52]
  000a1	6b c9 38	 imul	 ecx, 56			; 00000038H
  000a4	56		 push	 esi
  000a5	89 91 64 34 02
	00		 mov	 DWORD PTR ?prj@@3VCProject@@A[ecx+144484], edx

; 458  : 		prj.m_aAddProp[ prj.m_nAddMonsterPropSize ] = prj.m_aMonsterProp[ prj.m_nMonsterPropSize ];

  000ab	8b 35 38 74 04
	00		 mov	 esi, DWORD PTR ?prj@@3VCProject@@A+291896
  000b1	57		 push	 edi
  000b2	6b f6 38	 imul	 esi, 56			; 00000038H
  000b5	8b 3d 30 74 04
	00		 mov	 edi, DWORD PTR ?prj@@3VCProject@@A+291888
  000bb	6b ff 38	 imul	 edi, 56			; 00000038H
  000be	81 c6 30 34 02
	00		 add	 esi, OFFSET FLAT:?prj@@3VCProject@@A+144432
  000c4	81 c7 30 14 03
	00		 add	 edi, OFFSET FLAT:?prj@@3VCProject@@A+201776
  000ca	b9 0e 00 00 00	 mov	 ecx, 14			; 0000000eH
  000cf	f3 a5		 rep movsd

; 459  : 		
; 460  : 		++prj.m_nMonsterPropSize;

  000d1	8b 0d 38 74 04
	00		 mov	 ecx, DWORD PTR ?prj@@3VCProject@@A+291896

; 461  : 		++prj.m_nAddMonsterPropSize;

  000d7	a1 30 74 04 00	 mov	 eax, DWORD PTR ?prj@@3VCProject@@A+291888
  000dc	41		 inc	 ecx
  000dd	40		 inc	 eax
  000de	5f		 pop	 edi
  000df	a3 30 74 04 00	 mov	 DWORD PTR ?prj@@3VCProject@@A+291888, eax
  000e4	89 0d 38 74 04
	00		 mov	 DWORD PTR ?prj@@3VCProject@@A+291896, ecx

; 462  : 		TRACE( "Add MONSTER_PROP : MAX(%d), MonName(%s)\n", prj.m_nMonsterPropSize,  prj.m_aMonsterProp[ prj.m_nMonsterPropSize - 1].szMonsterName);
; 463  : 		return TRUE;

  000ea	b8 01 00 00 00	 mov	 eax, 1
  000ef	5e		 pop	 esi

; 467  : 	
; 468  : 	return FALSE;
; 469  : }

  000f0	8b 0c 24	 mov	 ecx, DWORD PTR __$ArrayPad$[esp+4]
  000f3	33 cc		 xor	 ecx, esp
  000f5	e8 00 00 00 00	 call	 @__security_check_cookie@4
  000fa	59		 pop	 ecx
  000fb	c2 38 00	 ret	 56			; 00000038H
$L204661:

; 464  : 	}
; 465  : 	else
; 466  : 		WriteLog( "AddMonsterProp Overflow Error" );

  000fe	68 00 00 00 00	 push	 OFFSET FLAT:??_C@_0BO@JOPEDMLI@AddMonsterProp?5Overflow?5Error?$AA@
  00103	e8 00 00 00 00	 call	 ?WriteLog@@YAXPBDZZ	; WriteLog

; 467  : 	
; 468  : 	return FALSE;
; 469  : }

  00108	8b 4c 24 04	 mov	 ecx, DWORD PTR __$ArrayPad$[esp+8]
  0010c	83 c4 04	 add	 esp, 4
  0010f	33 cc		 xor	 ecx, esp
  00111	33 c0		 xor	 eax, eax
  00113	e8 00 00 00 00	 call	 @__security_check_cookie@4
  00118	59		 pop	 ecx
  00119	c2 38 00	 ret	 56			; 00000038H
?AddMonsterProp@CDbManager@@AAEHU_MONSTER_PROP@@@Z ENDP	; CDbManager::AddMonsterProp
_TEXT	ENDS
PUBLIC	?RemoveMonsterProp@CDbManager@@AAEHU_MONSTER_PROP@@@Z ; CDbManager::RemoveMonsterProp
; Function compile flags: /Ogty
;	COMDAT ?RemoveMonsterProp@CDbManager@@AAEHU_MONSTER_PROP@@@Z
_TEXT	SEGMENT
__$ArrayPad$ = -4					; size = 4
__$ReturnAddr$ = 4					; size = 4
_BufMonsterProp$ = 8					; size = 56
?RemoveMonsterProp@CDbManager@@AAEHU_MONSTER_PROP@@@Z PROC NEAR ; CDbManager::RemoveMonsterProp, COMDAT
; _this$ = ecx

; 472  : {

  00000	51		 push	 ecx
  00001	a1 00 00 00 00	 mov	 eax, DWORD PTR ___security_cookie
  00006	33 c4		 xor	 eax, esp
  00008	53		 push	 ebx

; 473  : 	BOOL bFind = FALSE;
; 474  : 	int nRemoveBuf = 0;
; 475  : 	for( DWORD i = 0 ; i < prj.m_nMonsterPropSize ; ++i )

  00009	8b 1d 38 74 04
	00		 mov	 ebx, DWORD PTR ?prj@@3VCProject@@A+291896
  0000f	57		 push	 edi
  00010	33 ff		 xor	 edi, edi
  00012	85 db		 test	 ebx, ebx
  00014	89 44 24 08	 mov	 DWORD PTR __$ArrayPad$[esp+12], eax
  00018	0f 86 c6 00 00
	00		 jbe	 $L205787
  0001e	55		 push	 ebp
  0001f	bd 30 34 02 00	 mov	 ebp, OFFSET FLAT:?prj@@3VCProject@@A+144432
  00024	56		 push	 esi
$L204671:

; 476  : 	{
; 477  : 		if( strcmp( prj.m_aMonsterProp[i].szMonsterName, BufMonsterProp.szMonsterName ) == 0 )

  00025	8d 74 24 18	 lea	 esi, DWORD PTR _BufMonsterProp$[esp+16]
  00029	8b c5		 mov	 eax, ebp
  0002b	eb 03 8d 49 00	 npad	 5
$L205783:
  00030	8a 10		 mov	 dl, BYTE PTR [eax]
  00032	8a ca		 mov	 cl, dl
  00034	3a 16		 cmp	 dl, BYTE PTR [esi]
  00036	75 1c		 jne	 SHORT $L205784
  00038	84 c9		 test	 cl, cl
  0003a	74 14		 je	 SHORT $L205785
  0003c	8a 50 01	 mov	 dl, BYTE PTR [eax+1]
  0003f	8a ca		 mov	 cl, dl
  00041	3a 56 01	 cmp	 dl, BYTE PTR [esi+1]
  00044	75 0e		 jne	 SHORT $L205784
  00046	83 c0 02	 add	 eax, 2
  00049	83 c6 02	 add	 esi, 2
  0004c	84 c9		 test	 cl, cl
  0004e	75 e0		 jne	 SHORT $L205783
$L205785:
  00050	33 c0		 xor	 eax, eax
  00052	eb 05		 jmp	 SHORT $L205786
$L205784:
  00054	1b c0		 sbb	 eax, eax
  00056	83 d8 ff	 sbb	 eax, -1
$L205786:
  00059	85 c0		 test	 eax, eax
  0005b	74 1c		 je	 SHORT $L205779
  0005d	47		 inc	 edi
  0005e	83 c5 38	 add	 ebp, 56			; 00000038H
  00061	3b fb		 cmp	 edi, ebx
  00063	72 c0		 jb	 SHORT $L204671
  00065	5e		 pop	 esi
  00066	5d		 pop	 ebp
  00067	5f		 pop	 edi

; 494  : 	}
; 495  : 	return FALSE;

  00068	33 c0		 xor	 eax, eax
  0006a	5b		 pop	 ebx

; 496  : }

  0006b	8b 0c 24	 mov	 ecx, DWORD PTR __$ArrayPad$[esp+4]
  0006e	33 cc		 xor	 ecx, esp
  00070	e8 00 00 00 00	 call	 @__security_check_cookie@4
  00075	59		 pop	 ecx
  00076	c2 38 00	 ret	 56			; 00000038H
$L205779:

; 478  : 		{
; 479  : 			nRemoveBuf = i;
; 480  : 			bFind = TRUE;
; 481  : 			break;
; 482  : 		}
; 483  : 	}
; 484  : 	
; 485  : 	if( bFind )
; 486  : 	{
; 487  : 		for( DWORD i = nRemoveBuf ; i < prj.m_nMonsterPropSize - 1 ; ++i )

  00079	4b		 dec	 ebx
  0007a	3b fb		 cmp	 edi, ebx
  0007c	8b d7		 mov	 edx, edi
  0007e	73 2b		 jae	 SHORT $L204679
  00080	6b ff 38	 imul	 edi, 56			; 00000038H
  00083	81 c7 30 34 02
	00		 add	 edi, OFFSET FLAT:?prj@@3VCProject@@A+144432
  00089	8b c7		 mov	 eax, edi
  0008b	eb 03 8d 49 00	 npad	 5
$L204677:

; 488  : 		{
; 489  : 			prj.m_aMonsterProp[i] = prj.m_aMonsterProp[i + 1];

  00090	8d 70 38	 lea	 esi, DWORD PTR [eax+56]
  00093	8b f8		 mov	 edi, eax
  00095	b9 0e 00 00 00	 mov	 ecx, 14			; 0000000eH
  0009a	f3 a5		 rep movsd
  0009c	8b 0d 38 74 04
	00		 mov	 ecx, DWORD PTR ?prj@@3VCProject@@A+291896
  000a2	42		 inc	 edx
  000a3	83 c0 38	 add	 eax, 56			; 00000038H
  000a6	49		 dec	 ecx
  000a7	3b d1		 cmp	 edx, ecx
  000a9	72 e5		 jb	 SHORT $L204677
$L204679:

; 490  : 		}
; 491  : 		strcpy( prj.m_aRemoveProp[prj.m_nRemoveMonsterPropSize], BufMonsterProp.szMonsterName );

  000ab	8b 0d 34 74 04
	00		 mov	 ecx, DWORD PTR ?prj@@3VCProject@@A+291892
  000b1	c1 e1 05	 shl	 ecx, 5
  000b4	8d 54 24 18	 lea	 edx, DWORD PTR _BufMonsterProp$[esp+16]
  000b8	81 c1 30 f4 03
	00		 add	 ecx, OFFSET FLAT:?prj@@3VCProject@@A+259120
  000be	8b ff		 npad	 2
$L205775:
  000c0	8a 02		 mov	 al, BYTE PTR [edx]
  000c2	42		 inc	 edx
  000c3	88 01		 mov	 BYTE PTR [ecx], al
  000c5	41		 inc	 ecx
  000c6	84 c0		 test	 al, al
  000c8	75 f6		 jne	 SHORT $L205775

; 492  : 		++prj.m_nRemoveMonsterPropSize;

  000ca	8b 0d 34 74 04
	00		 mov	 ecx, DWORD PTR ?prj@@3VCProject@@A+291892

; 493  : 		--prj.m_nMonsterPropSize;

  000d0	a1 38 74 04 00	 mov	 eax, DWORD PTR ?prj@@3VCProject@@A+291896
  000d5	41		 inc	 ecx
  000d6	48		 dec	 eax
  000d7	5e		 pop	 esi
  000d8	89 0d 34 74 04
	00		 mov	 DWORD PTR ?prj@@3VCProject@@A+291892, ecx
  000de	a3 38 74 04 00	 mov	 DWORD PTR ?prj@@3VCProject@@A+291896, eax
  000e3	5d		 pop	 ebp
$L205787:

; 496  : }

  000e4	8b 4c 24 08	 mov	 ecx, DWORD PTR __$ArrayPad$[esp+12]
  000e8	5f		 pop	 edi
  000e9	5b		 pop	 ebx
  000ea	33 cc		 xor	 ecx, esp
  000ec	33 c0		 xor	 eax, eax
  000ee	e8 00 00 00 00	 call	 @__security_check_cookie@4
  000f3	59		 pop	 ecx
  000f4	c2 38 00	 ret	 56			; 00000038H
?RemoveMonsterProp@CDbManager@@AAEHU_MONSTER_PROP@@@Z ENDP ; CDbManager::RemoveMonsterProp
_TEXT	ENDS
PUBLIC	??0CTime@ATL@@QAE@_J@Z				; ATL::CTime::CTime
; Function compile flags: /Ogty
; File c:\program files\microsoft visual studio .net 2003\vc7\atlmfc\include\atltime.inl
;	COMDAT ??0CTime@ATL@@QAE@_J@Z
_TEXT	SEGMENT
_time$ = 8						; size = 8
??0CTime@ATL@@QAE@_J@Z PROC NEAR			; ATL::CTime::CTime, COMDAT
; _this$ = ecx

; 167  : {

  00000	8b 54 24 08	 mov	 edx, DWORD PTR _time$[esp]
  00004	8b c1		 mov	 eax, ecx
  00006	8b 4c 24 04	 mov	 ecx, DWORD PTR _time$[esp-4]
  0000a	89 08		 mov	 DWORD PTR [eax], ecx
  0000c	89 50 04	 mov	 DWORD PTR [eax+4], edx

; 168  : }

  0000f	c2 08 00	 ret	 8
??0CTime@ATL@@QAE@_J@Z ENDP				; ATL::CTime::CTime
_TEXT	ENDS
PUBLIC	??0D3DXVECTOR3@@QAE@XZ				; D3DXVECTOR3::D3DXVECTOR3
; Function compile flags: /Ogty
; File c:\documents and settings\test\mes documents\source\virtuos_v17\build\program\dx_sdk\d3dx9math.h
;	COMDAT ??0D3DXVECTOR3@@QAE@XZ
_TEXT	SEGMENT
??0D3DXVECTOR3@@QAE@XZ PROC NEAR			; D3DXVECTOR3::D3DXVECTOR3, COMDAT
; _this$ = ecx

; 165  :     D3DXVECTOR3() {};

  00000	8b c1		 mov	 eax, ecx
  00002	c3		 ret	 0
??0D3DXVECTOR3@@QAE@XZ ENDP				; D3DXVECTOR3::D3DXVECTOR3
_TEXT	ENDS
PUBLIC	??0D3DXVECTOR3@@QAE@MMM@Z			; D3DXVECTOR3::D3DXVECTOR3
; Function compile flags: /Ogty
; File c:\documents and settings\test\mes documents\source\virtuos_v17\build\program\dx_sdk\d3dx9math.inl
;	COMDAT ??0D3DXVECTOR3@@QAE@MMM@Z
_TEXT	SEGMENT
_fx$ = 8						; size = 4
_fy$ = 12						; size = 4
_fz$ = 16						; size = 4
??0D3DXVECTOR3@@QAE@MMM@Z PROC NEAR			; D3DXVECTOR3::D3DXVECTOR3, COMDAT
; _this$ = ecx

; 300  :     x = fx;
; 301  :     y = fy;

  00000	8b 54 24 08	 mov	 edx, DWORD PTR _fy$[esp-4]
  00004	8b c1		 mov	 eax, ecx
  00006	8b 4c 24 04	 mov	 ecx, DWORD PTR _fx$[esp-4]
  0000a	89 08		 mov	 DWORD PTR [eax], ecx

; 302  :     z = fz;

  0000c	8b 4c 24 0c	 mov	 ecx, DWORD PTR _fz$[esp-4]
  00010	89 50 04	 mov	 DWORD PTR [eax+4], edx
  00013	89 48 08	 mov	 DWORD PTR [eax+8], ecx

; 303  : }

  00016	c2 0c 00	 ret	 12			; 0000000cH
??0D3DXVECTOR3@@QAE@MMM@Z ENDP				; D3DXVECTOR3::D3DXVECTOR3
_TEXT	ENDS
PUBLIC	??0_MONSTER_RESPAWN@@QAE@XZ			; _MONSTER_RESPAWN::_MONSTER_RESPAWN
; Function compile flags: /Ogty
; File c:\documents and settings\test\mes documents\source\virtuos_v17\build\program\databaseserver\project.h
;	COMDAT ??0_MONSTER_RESPAWN@@QAE@XZ
_TEXT	SEGMENT
$T205800 = -12						; size = 12
??0_MONSTER_RESPAWN@@QAE@XZ PROC NEAR			; _MONSTER_RESPAWN::_MONSTER_RESPAWN, COMDAT
; _this$ = ecx

; 35   : 	_MONSTER_RESPAWN()

  00000	83 ec 0c	 sub	 esp, 12			; 0000000cH
  00003	8b c1		 mov	 eax, ecx

; 36   : 	{	
; 37   : 		szMonsterName[0] = '\0';

  00005	33 c9		 xor	 ecx, ecx
  00007	56		 push	 esi

; 38   : 		vPos = D3DXVECTOR3( 0.0f, 0.0f, 0.0f );

  00008	8b f1		 mov	 esi, ecx
  0000a	8d 50 24	 lea	 edx, DWORD PTR [eax+36]
  0000d	89 32		 mov	 DWORD PTR [edx], esi
  0000f	89 72 04	 mov	 DWORD PTR [edx+4], esi
  00012	89 72 08	 mov	 DWORD PTR [edx+8], esi
  00015	88 08		 mov	 BYTE PTR [eax], cl
  00017	89 4c 24 04	 mov	 DWORD PTR $T205800[esp+16], ecx
  0001b	89 4c 24 08	 mov	 DWORD PTR $T205800[esp+20], ecx
  0001f	89 4c 24 0c	 mov	 DWORD PTR $T205800[esp+24], ecx

; 39   : 		nQuantity = 0;

  00023	89 48 30	 mov	 DWORD PTR [eax+48], ecx

; 40   : 		nAggressive = 0;

  00026	89 48 34	 mov	 DWORD PTR [eax+52], ecx

; 41   : 		nRange = 0;

  00029	89 48 38	 mov	 DWORD PTR [eax+56], ecx

; 42   : 		nTime = 0;

  0002c	89 48 3c	 mov	 DWORD PTR [eax+60], ecx

; 43   : 		nRespawnIndex = 0;

  0002f	89 48 20	 mov	 DWORD PTR [eax+32], ecx
  00032	5e		 pop	 esi

; 44   : 	}

  00033	83 c4 0c	 add	 esp, 12			; 0000000cH
  00036	c3		 ret	 0
??0_MONSTER_RESPAWN@@QAE@XZ ENDP			; _MONSTER_RESPAWN::_MONSTER_RESPAWN
_TEXT	ENDS
PUBLIC	??0_MONSTER_PROP@@QAE@XZ			; _MONSTER_PROP::_MONSTER_PROP
; Function compile flags: /Ogty
;	COMDAT ??0_MONSTER_PROP@@QAE@XZ
_TEXT	SEGMENT
??0_MONSTER_PROP@@QAE@XZ PROC NEAR			; _MONSTER_PROP::_MONSTER_PROP, COMDAT
; _this$ = ecx

; 57   : 	_MONSTER_PROP()

  00000	8b c1		 mov	 eax, ecx

; 58   : 	{
; 59   : 		szMonsterName[0] = '\0';

  00002	33 c9		 xor	 ecx, ecx
  00004	88 08		 mov	 BYTE PTR [eax], cl

; 60   : 		nHitPoint = 0;

  00006	89 48 20	 mov	 DWORD PTR [eax+32], ecx

; 61   : 		nAttackPower = 0;

  00009	89 48 24	 mov	 DWORD PTR [eax+36], ecx

; 62   : 		nDefence = 0;

  0000c	89 48 28	 mov	 DWORD PTR [eax+40], ecx

; 63   : 		nExp = 0;

  0000f	89 48 2c	 mov	 DWORD PTR [eax+44], ecx

; 64   : 		nItemDrop = 0;

  00012	89 48 30	 mov	 DWORD PTR [eax+48], ecx

; 65   : 		nPenya = 0;

  00015	89 48 34	 mov	 DWORD PTR [eax+52], ecx

; 66   : 	}

  00018	c3		 ret	 0
??0_MONSTER_PROP@@QAE@XZ ENDP				; _MONSTER_PROP::_MONSTER_PROP
_TEXT	ENDS
PUBLIC	?GetMonsterRespawnSetting@CDbManager@@AAEXPAVCQuery@@AAHQAHPAD@Z ; CDbManager::GetMonsterRespawnSetting
PUBLIC	??_C@_0CF@CHJIJKP@GAME_BACKSYSTEM_STR?5?8S2?8?0?8?$CF02d?8?0@ ; `string'
PUBLIC	??_C@_03CHBJLALM@Num?$AA@			; `string'
PUBLIC	??_C@_04FABLJDN@Name?$AA@			; `string'
PUBLIC	??_C@_05KAFNCDDG@Pos_x?$AA@			; `string'
PUBLIC	??_C@_05LJEGBCHH@Pos_y?$AA@			; `string'
PUBLIC	??_C@_05JCGLEBLE@Pos_z?$AA@			; `string'
PUBLIC	??_C@_08GACJPEFO@Quantity?$AA@			; `string'
PUBLIC	??_C@_05CFMCGLCK@Range?$AA@			; `string'
PUBLIC	??_C@_06NIHFGDBN@dwTime?$AA@			; `string'
;	COMDAT ??_C@_0CF@CHJIJKP@GAME_BACKSYSTEM_STR?5?8S2?8?0?8?$CF02d?8?0@
; File c:\documents and settings\test\mes documents\source\virtuos_v17\build\program\dx_sdk\d3dx9math.inl
CONST	SEGMENT
??_C@_0CF@CHJIJKP@GAME_BACKSYSTEM_STR?5?8S2?8?0?8?$CF02d?8?0@ DB 'GAME_BA'
	DB	'CKSYSTEM_STR ''S2'',''%02d'',''%s''', 00H	; `string'
CONST	ENDS
;	COMDAT ??_C@_03CHBJLALM@Num?$AA@
CONST	SEGMENT
??_C@_03CHBJLALM@Num?$AA@ DB 'Num', 00H			; `string'
CONST	ENDS
;	COMDAT ??_C@_04FABLJDN@Name?$AA@
CONST	SEGMENT
??_C@_04FABLJDN@Name?$AA@ DB 'Name', 00H		; `string'
CONST	ENDS
;	COMDAT ??_C@_05KAFNCDDG@Pos_x?$AA@
CONST	SEGMENT
??_C@_05KAFNCDDG@Pos_x?$AA@ DB 'Pos_x', 00H		; `string'
CONST	ENDS
;	COMDAT ??_C@_05LJEGBCHH@Pos_y?$AA@
CONST	SEGMENT
??_C@_05LJEGBCHH@Pos_y?$AA@ DB 'Pos_y', 00H		; `string'
CONST	ENDS
;	COMDAT ??_C@_05JCGLEBLE@Pos_z?$AA@
CONST	SEGMENT
??_C@_05JCGLEBLE@Pos_z?$AA@ DB 'Pos_z', 00H		; `string'
CONST	ENDS
;	COMDAT ??_C@_08GACJPEFO@Quantity?$AA@
CONST	SEGMENT
??_C@_08GACJPEFO@Quantity?$AA@ DB 'Quantity', 00H	; `string'
CONST	ENDS
;	COMDAT ??_C@_05CFMCGLCK@Range?$AA@
CONST	SEGMENT
??_C@_05CFMCGLCK@Range?$AA@ DB 'Range', 00H		; `string'
CONST	ENDS
;	COMDAT ??_C@_06NIHFGDBN@dwTime?$AA@
CONST	SEGMENT
??_C@_06NIHFGDBN@dwTime?$AA@ DB 'dwTime', 00H		; `string'
; Function compile flags: /Ogty
; File c:\documents and settings\test\mes documents\source\virtuos_v17\build\program\_database\dbbackendsystem.cpp
CONST	ENDS
;	COMDAT ?GetMonsterRespawnSetting@CDbManager@@AAEXPAVCQuery@@AAHQAHPAD@Z
_TEXT	SEGMENT
tv243 = -1116						; size = 4
tv241 = -1116						; size = 4
tv239 = -1116						; size = 4
$T205831 = -1112					; size = 4
$T205824 = -1108					; size = 12
$T205832 = -1096					; size = 4
_MonsterRespawn$ = -1092				; size = 64
_szQuery$ = -1028					; size = 1024
__$ArrayPad$ = -4					; size = 4
__$ReturnAddr$ = 4					; size = 4
_pQuery$ = 8						; size = 4
_nRemoveMaxRespawn$ = 12				; size = 4
_aRemoveRespawn$ = 16					; size = 4
_lpstrTime$ = 20					; size = 4
?GetMonsterRespawnSetting@CDbManager@@AAEXPAVCQuery@@AAHQAHPAD@Z PROC NEAR ; CDbManager::GetMonsterRespawnSetting, COMDAT
; _this$ = ecx

; 309  : {

  00000	81 ec 5c 04 00
	00		 sub	 esp, 1116		; 0000045cH
  00006	a1 00 00 00 00	 mov	 eax, DWORD PTR ___security_cookie
  0000b	33 c4		 xor	 eax, esp
  0000d	53		 push	 ebx
  0000e	55		 push	 ebp
  0000f	8b ac 24 68 04
	00 00		 mov	 ebp, DWORD PTR _pQuery$[esp+1120]
  00016	89 84 24 60 04
	00 00		 mov	 DWORD PTR __$ArrayPad$[esp+1124], eax

; 323  : 	while( pQuery->Fetch() )

  0001d	8b 84 24 6c 04
	00 00		 mov	 eax, DWORD PTR _nRemoveMaxRespawn$[esp+1120]
  00024	56		 push	 esi
  00025	57		 push	 edi
  00026	8b bc 24 78 04
	00 00		 mov	 edi, DWORD PTR _aRemoveRespawn$[esp+1128]
  0002d	89 44 24 14	 mov	 DWORD PTR $T205831[esp+1132], eax
  00031	8b 84 24 7c 04
	00 00		 mov	 eax, DWORD PTR _lpstrTime$[esp+1128]
  00038	50		 push	 eax
  00039	8b d9		 mov	 ebx, ecx
  0003b	8b 0d 00 00 00
	00		 mov	 ecx, DWORD PTR ?g_appInfo@@3UAppInfo@@A
  00041	51		 push	 ecx
  00042	8d 54 24 70	 lea	 edx, DWORD PTR _szQuery$[esp+1140]
  00046	68 00 00 00 00	 push	 OFFSET FLAT:??_C@_0CF@CHJIJKP@GAME_BACKSYSTEM_STR?5?8S2?8?0?8?$CF02d?8?0@
  0004b	52		 push	 edx
  0004c	89 7c 24 34	 mov	 DWORD PTR $T205832[esp+1148], edi
  00050	e8 00 00 00 00	 call	 _sprintf
  00055	83 c4 10	 add	 esp, 16			; 00000010H
  00058	8d 44 24 68	 lea	 eax, DWORD PTR _szQuery$[esp+1132]
  0005c	50		 push	 eax
  0005d	8b cd		 mov	 ecx, ebp
  0005f	e8 00 00 00 00	 call	 ?Exec@CQuery@@QAEHPBD@Z	; CQuery::Exec
  00064	85 c0		 test	 eax, eax
  00066	75 21		 jne	 SHORT $L204592
  00068	8d 4c 24 68	 lea	 ecx, DWORD PTR _szQuery$[esp+1132]
  0006c	51		 push	 ecx
  0006d	68 3c 01 00 00	 push	 316			; 0000013cH
  00072	68 00 00 00 00	 push	 OFFSET FLAT:??_C@_0GK@BOIJKFBN@?2Documents?5and?5Settings?2test?2Mes@
  00077	68 00 00 00 00	 push	 OFFSET FLAT:??_C@_09GBAEEKDE@?$CFs?0?5?$CFd?7?$CFs?$AA@
  0007c	e8 00 00 00 00	 call	 ?WriteLog@@YAXPBDZZ	; WriteLog
  00081	83 c4 10	 add	 esp, 16			; 00000010H
  00084	e9 5b 01 00 00	 jmp	 $L204598
$L204592:

; 310  : 	char szQuery[1024];
; 311  : 
; 312  : 	sprintf( szQuery, "GAME_BACKSYSTEM_STR 'S2','%02d','%s'", g_appInfo.dwSys, lpstrTime );
; 313  : 
; 314  : 	if( FALSE == pQuery->Exec( szQuery ) )
; 315  : 	{
; 316  : 		WriteLog( "%s, %d\t%s", __FILE__, __LINE__, szQuery );
; 317  : 		return;
; 318  : 	}
; 319  : 
; 320  : 	int nResult;
; 321  : 	int nAddUpdateSize = 0;
; 322  : 	MONSTER_RESPAWN MonsterRespawn;

  00089	c7 44 24 1c 00
	00 00 00	 mov	 DWORD PTR $T205824[esp+1136], 0
  00091	8b 44 24 1c	 mov	 eax, DWORD PTR $T205824[esp+1136]
  00095	c7 44 24 20 00
	00 00 00	 mov	 DWORD PTR $T205824[esp+1140], 0
  0009d	8b 4c 24 20	 mov	 ecx, DWORD PTR $T205824[esp+1140]
  000a1	89 44 24 50	 mov	 DWORD PTR _MonsterRespawn$[esp+1172], eax
  000a5	33 c0		 xor	 eax, eax
  000a7	c7 44 24 18 00
	00 00 00	 mov	 DWORD PTR $T205824[esp+1132], 0
  000af	8b 54 24 18	 mov	 edx, DWORD PTR $T205824[esp+1132]
  000b3	89 4c 24 54	 mov	 DWORD PTR _MonsterRespawn$[esp+1176], ecx

; 323  : 	while( pQuery->Fetch() )

  000b7	8b cd		 mov	 ecx, ebp
  000b9	c6 44 24 28 00	 mov	 BYTE PTR _MonsterRespawn$[esp+1132], 0
  000be	89 54 24 4c	 mov	 DWORD PTR _MonsterRespawn$[esp+1168], edx
  000c2	89 44 24 58	 mov	 DWORD PTR _MonsterRespawn$[esp+1180], eax
  000c6	89 44 24 5c	 mov	 DWORD PTR _MonsterRespawn$[esp+1184], eax
  000ca	89 44 24 60	 mov	 DWORD PTR _MonsterRespawn$[esp+1188], eax
  000ce	89 44 24 64	 mov	 DWORD PTR _MonsterRespawn$[esp+1192], eax
  000d2	89 44 24 48	 mov	 DWORD PTR _MonsterRespawn$[esp+1164], eax
  000d6	e8 00 00 00 00	 call	 ?Fetch@CQuery@@QAEHXZ	; CQuery::Fetch
  000db	85 c0		 test	 eax, eax
  000dd	0f 84 01 01 00
	00		 je	 $L204598
$L204597:

; 324  : 	{
; 325  : 		nResult = pQuery->GetInt( "bResult" );

  000e3	68 00 00 00 00	 push	 OFFSET FLAT:??_C@_07MGNKFCA@bResult?$AA@
  000e8	8b cd		 mov	 ecx, ebp
  000ea	e8 00 00 00 00	 call	 ?GetInt@CQuery@@QAEHPAD@Z ; CQuery::GetInt

; 326  : 		MonsterRespawn.nRespawnIndex = pQuery->GetInt( "Num" );

  000ef	68 00 00 00 00	 push	 OFFSET FLAT:??_C@_03CHBJLALM@Num?$AA@
  000f4	8b cd		 mov	 ecx, ebp
  000f6	8b f0		 mov	 esi, eax
  000f8	e8 00 00 00 00	 call	 ?GetInt@CQuery@@QAEHPAD@Z ; CQuery::GetInt

; 327  : 		if( nResult == 1)	// 

  000fd	83 fe 01	 cmp	 esi, 1
  00100	89 44 24 48	 mov	 DWORD PTR _MonsterRespawn$[esp+1164], eax
  00104	0f 85 b9 00 00
	00		 jne	 $L204600

; 328  : 		{
; 329  : 			pQuery->GetStr( "Name", MonsterRespawn.szMonsterName );

  0010a	8d 54 24 28	 lea	 edx, DWORD PTR _MonsterRespawn$[esp+1132]
  0010e	52		 push	 edx
  0010f	68 00 00 00 00	 push	 OFFSET FLAT:??_C@_04FABLJDN@Name?$AA@
  00114	8b cd		 mov	 ecx, ebp
  00116	e8 00 00 00 00	 call	 ?GetStr@CQuery@@QAEXPAD0@Z ; CQuery::GetStr

; 330  : 			MonsterRespawn.vPos.x = (float)( pQuery->GetInt( "Pos_x" ) );

  0011b	68 00 00 00 00	 push	 OFFSET FLAT:??_C@_05KAFNCDDG@Pos_x?$AA@
  00120	8b cd		 mov	 ecx, ebp
  00122	e8 00 00 00 00	 call	 ?GetInt@CQuery@@QAEHPAD@Z ; CQuery::GetInt
  00127	89 44 24 10	 mov	 DWORD PTR tv243[esp+1132], eax
  0012b	db 44 24 10	 fild	 DWORD PTR tv243[esp+1132]

; 331  : 			MonsterRespawn.vPos.y = (float)( pQuery->GetInt( "Pos_y" ) );

  0012f	68 00 00 00 00	 push	 OFFSET FLAT:??_C@_05LJEGBCHH@Pos_y?$AA@
  00134	8b cd		 mov	 ecx, ebp
  00136	d9 5c 24 50	 fstp	 DWORD PTR _MonsterRespawn$[esp+1172]
  0013a	e8 00 00 00 00	 call	 ?GetInt@CQuery@@QAEHPAD@Z ; CQuery::GetInt
  0013f	89 44 24 10	 mov	 DWORD PTR tv241[esp+1132], eax
  00143	db 44 24 10	 fild	 DWORD PTR tv241[esp+1132]

; 332  : 			MonsterRespawn.vPos.z = (float)( pQuery->GetInt( "Pos_z" ) );

  00147	68 00 00 00 00	 push	 OFFSET FLAT:??_C@_05JCGLEBLE@Pos_z?$AA@
  0014c	8b cd		 mov	 ecx, ebp
  0014e	d9 5c 24 54	 fstp	 DWORD PTR _MonsterRespawn$[esp+1176]
  00152	e8 00 00 00 00	 call	 ?GetInt@CQuery@@QAEHPAD@Z ; CQuery::GetInt
  00157	89 44 24 10	 mov	 DWORD PTR tv239[esp+1132], eax
  0015b	db 44 24 10	 fild	 DWORD PTR tv239[esp+1132]

; 333  : 			MonsterRespawn.nQuantity = pQuery->GetInt( "Quantity" );

  0015f	68 00 00 00 00	 push	 OFFSET FLAT:??_C@_08GACJPEFO@Quantity?$AA@
  00164	8b cd		 mov	 ecx, ebp
  00166	d9 5c 24 58	 fstp	 DWORD PTR _MonsterRespawn$[esp+1180]
  0016a	e8 00 00 00 00	 call	 ?GetInt@CQuery@@QAEHPAD@Z ; CQuery::GetInt

; 334  : 			MonsterRespawn.nAggressive = pQuery->GetInt( "Aggressive" );

  0016f	68 00 00 00 00	 push	 OFFSET FLAT:??_C@_0L@ICGAFIAO@Aggressive?$AA@
  00174	8b cd		 mov	 ecx, ebp
  00176	89 44 24 5c	 mov	 DWORD PTR _MonsterRespawn$[esp+1184], eax
  0017a	e8 00 00 00 00	 call	 ?GetInt@CQuery@@QAEHPAD@Z ; CQuery::GetInt

; 335  : 			MonsterRespawn.nRange = pQuery->GetInt( "Range" );

  0017f	68 00 00 00 00	 push	 OFFSET FLAT:??_C@_05CFMCGLCK@Range?$AA@
  00184	8b cd		 mov	 ecx, ebp
  00186	89 44 24 60	 mov	 DWORD PTR _MonsterRespawn$[esp+1188], eax
  0018a	e8 00 00 00 00	 call	 ?GetInt@CQuery@@QAEHPAD@Z ; CQuery::GetInt

; 336  : 			MonsterRespawn.nTime = pQuery->GetInt( "dwTime" );

  0018f	68 00 00 00 00	 push	 OFFSET FLAT:??_C@_06NIHFGDBN@dwTime?$AA@
  00194	8b cd		 mov	 ecx, ebp
  00196	89 44 24 64	 mov	 DWORD PTR _MonsterRespawn$[esp+1192], eax
  0019a	e8 00 00 00 00	 call	 ?GetInt@CQuery@@QAEHPAD@Z ; CQuery::GetInt

; 337  : 				
; 338  : 			AddMonsterRespawn( MonsterRespawn );

  0019f	83 ec 40	 sub	 esp, 64			; 00000040H
  001a2	8b fc		 mov	 edi, esp
  001a4	89 84 24 a4 00
	00 00		 mov	 DWORD PTR _MonsterRespawn$[esp+1256], eax
  001ab	b9 10 00 00 00	 mov	 ecx, 16			; 00000010H
  001b0	8d 74 24 68	 lea	 esi, DWORD PTR _MonsterRespawn$[esp+1196]
  001b4	f3 a5		 rep movsd
  001b6	8b cb		 mov	 ecx, ebx
  001b8	e8 00 00 00 00	 call	 ?AddMonsterRespawn@CDbManager@@AAEHU_MONSTER_RESPAWN@@@Z ; CDbManager::AddMonsterRespawn

; 339  : 		}
; 340  : 		else		// 

  001bd	8b 7c 24 24	 mov	 edi, DWORD PTR $T205832[esp+1132]
  001c1	eb 12		 jmp	 SHORT $L204612
$L204600:

; 341  : 		{
; 342  : 			if( aRemoveRespawn != NULL )

  001c3	85 ff		 test	 edi, edi
  001c5	74 0e		 je	 SHORT $L204612

; 343  : 			{
; 344  : 				RemoveMonsterRespawn( MonsterRespawn.nRespawnIndex, nRemoveMaxRespawn, aRemoveRespawn );

  001c7	8b 4c 24 14	 mov	 ecx, DWORD PTR $T205831[esp+1132]
  001cb	57		 push	 edi
  001cc	51		 push	 ecx
  001cd	50		 push	 eax
  001ce	8b cb		 mov	 ecx, ebx
  001d0	e8 00 00 00 00	 call	 ?RemoveMonsterRespawn@CDbManager@@AAEHHAAHQAH@Z ; CDbManager::RemoveMonsterRespawn
$L204612:
  001d5	8b cd		 mov	 ecx, ebp
  001d7	e8 00 00 00 00	 call	 ?Fetch@CQuery@@QAEHXZ	; CQuery::Fetch
  001dc	85 c0		 test	 eax, eax
  001de	0f 85 ff fe ff
	ff		 jne	 $L204597
$L204598:

; 345  : 			}
; 346  : 		}
; 347  : 	}
; 348  : 	
; 349  : 	TRACE( "%d MONSTER_RESPAWN\n", prj.m_nMonsterRespawnSize );
; 350  : }

  001e4	8b 8c 24 68 04
	00 00		 mov	 ecx, DWORD PTR __$ArrayPad$[esp+1132]
  001eb	5f		 pop	 edi
  001ec	5e		 pop	 esi
  001ed	5d		 pop	 ebp
  001ee	5b		 pop	 ebx
  001ef	33 cc		 xor	 ecx, esp
  001f1	e8 00 00 00 00	 call	 @__security_check_cookie@4
  001f6	81 c4 5c 04 00
	00		 add	 esp, 1116		; 0000045cH
  001fc	c2 10 00	 ret	 16			; 00000010H
?GetMonsterRespawnSetting@CDbManager@@AAEXPAVCQuery@@AAHQAHPAD@Z ENDP ; CDbManager::GetMonsterRespawnSetting
_TEXT	ENDS
PUBLIC	?GetMonsterPropSetting@CDbManager@@AAEXPAVCQuery@@PAD@Z ; CDbManager::GetMonsterPropSetting
PUBLIC	??_C@_0CF@LLICFCEH@GAME_BACKSYSTEM_STR?5?8S3?8?0?8?$CF02d?8?0@ ; `string'
PUBLIC	??_C@_07FLJJBEFD@MonName?$AA@			; `string'
PUBLIC	??_C@_07OIBJPBBC@Defence?$AA@			; `string'
;	COMDAT ??_C@_0CF@LLICFCEH@GAME_BACKSYSTEM_STR?5?8S3?8?0?8?$CF02d?8?0@
; File c:\documents and settings\test\mes documents\source\virtuos_v17\build\program\databaseserver\project.h
CONST	SEGMENT
??_C@_0CF@LLICFCEH@GAME_BACKSYSTEM_STR?5?8S3?8?0?8?$CF02d?8?0@ DB 'GAME_B'
	DB	'ACKSYSTEM_STR ''S3'',''%02d'',''%s''', 00H	; `string'
CONST	ENDS
;	COMDAT ??_C@_07FLJJBEFD@MonName?$AA@
CONST	SEGMENT
??_C@_07FLJJBEFD@MonName?$AA@ DB 'MonName', 00H		; `string'
CONST	ENDS
;	COMDAT ??_C@_07OIBJPBBC@Defence?$AA@
CONST	SEGMENT
??_C@_07OIBJPBBC@Defence?$AA@ DB 'Defence', 00H		; `string'
; Function compile flags: /Ogty
; File c:\documents and settings\test\mes documents\source\virtuos_v17\build\program\_database\dbbackendsystem.cpp
CONST	ENDS
;	COMDAT ?GetMonsterPropSetting@CDbManager@@AAEXPAVCQuery@@PAD@Z
_TEXT	SEGMENT
$T205844 = -1088					; size = 4
_MonsterProp$ = -1084					; size = 56
_szQuery$ = -1028					; size = 1024
__$ArrayPad$ = -4					; size = 4
__$ReturnAddr$ = 4					; size = 4
_pQuery$ = 8						; size = 4
_lpstrTime$ = 12					; size = 4
?GetMonsterPropSetting@CDbManager@@AAEXPAVCQuery@@PAD@Z PROC NEAR ; CDbManager::GetMonsterPropSetting, COMDAT
; _this$ = ecx

; 353  : {

  00000	81 ec 40 04 00
	00		 sub	 esp, 1088		; 00000440H
  00006	a1 00 00 00 00	 mov	 eax, DWORD PTR ___security_cookie
  0000b	33 c4		 xor	 eax, esp
  0000d	53		 push	 ebx
  0000e	55		 push	 ebp
  0000f	8b ac 24 4c 04
	00 00		 mov	 ebp, DWORD PTR _pQuery$[esp+1092]
  00016	56		 push	 esi
  00017	89 84 24 48 04
	00 00		 mov	 DWORD PTR __$ArrayPad$[esp+1100], eax
  0001e	8b 84 24 54 04
	00 00		 mov	 eax, DWORD PTR _lpstrTime$[esp+1096]
  00025	57		 push	 edi

; 354  : 	char szQuery[1024];
; 355  : 	
; 356  : 	sprintf( szQuery, "GAME_BACKSYSTEM_STR 'S3','%02d','%s'", g_appInfo.dwSys, lpstrTime );

  00026	50		 push	 eax

; 367  : 	while( pQuery->Fetch() )

  00027	89 44 24 14	 mov	 DWORD PTR $T205844[esp+1108], eax
  0002b	a1 00 00 00 00	 mov	 eax, DWORD PTR ?g_appInfo@@3UAppInfo@@A
  00030	50		 push	 eax
  00031	8b d9		 mov	 ebx, ecx
  00033	8d 4c 24 54	 lea	 ecx, DWORD PTR _szQuery$[esp+1112]
  00037	68 00 00 00 00	 push	 OFFSET FLAT:??_C@_0CF@LLICFCEH@GAME_BACKSYSTEM_STR?5?8S3?8?0?8?$CF02d?8?0@
  0003c	51		 push	 ecx
  0003d	e8 00 00 00 00	 call	 _sprintf
  00042	83 c4 10	 add	 esp, 16			; 00000010H
  00045	8d 54 24 4c	 lea	 edx, DWORD PTR _szQuery$[esp+1104]
  00049	52		 push	 edx
  0004a	8b cd		 mov	 ecx, ebp
  0004c	e8 00 00 00 00	 call	 ?Exec@CQuery@@QAEHPBD@Z	; CQuery::Exec
  00051	85 c0		 test	 eax, eax
  00053	75 21		 jne	 SHORT $L204620
  00055	8d 44 24 4c	 lea	 eax, DWORD PTR _szQuery$[esp+1104]
  00059	50		 push	 eax
  0005a	68 68 01 00 00	 push	 360			; 00000168H
  0005f	68 00 00 00 00	 push	 OFFSET FLAT:??_C@_0GK@BOIJKFBN@?2Documents?5and?5Settings?2test?2Mes@
  00064	68 00 00 00 00	 push	 OFFSET FLAT:??_C@_09GBAEEKDE@?$CFs?0?5?$CFd?7?$CFs?$AA@
  00069	e8 00 00 00 00	 call	 ?WriteLog@@YAXPBDZZ	; WriteLog
  0006e	83 c4 10	 add	 esp, 16			; 00000010H
  00071	e9 fc 00 00 00	 jmp	 $L204626
$L204620:

; 357  : 	
; 358  : 	if( FALSE == pQuery->Exec( szQuery ) )
; 359  : 	{
; 360  : 		WriteLog( "%s, %d\t%s", __FILE__, __LINE__, szQuery );
; 361  : 		return;
; 362  : 	}
; 363  : 
; 364  : 	int nResult;
; 365  : 	int nAddUpdateSize = 0;
; 366  : 	MONSTER_PROP MonsterProp;

  00076	33 ff		 xor	 edi, edi

; 367  : 	while( pQuery->Fetch() )

  00078	8b cd		 mov	 ecx, ebp
  0007a	c6 44 24 14 00	 mov	 BYTE PTR _MonsterProp$[esp+1104], 0
  0007f	89 7c 24 34	 mov	 DWORD PTR _MonsterProp$[esp+1136], edi
  00083	89 7c 24 38	 mov	 DWORD PTR _MonsterProp$[esp+1140], edi
  00087	89 7c 24 3c	 mov	 DWORD PTR _MonsterProp$[esp+1144], edi
  0008b	89 7c 24 40	 mov	 DWORD PTR _MonsterProp$[esp+1148], edi
  0008f	89 7c 24 44	 mov	 DWORD PTR _MonsterProp$[esp+1152], edi
  00093	89 7c 24 48	 mov	 DWORD PTR _MonsterProp$[esp+1156], edi
  00097	e8 00 00 00 00	 call	 ?Fetch@CQuery@@QAEHXZ	; CQuery::Fetch
  0009c	85 c0		 test	 eax, eax
  0009e	0f 84 ce 00 00
	00		 je	 $L204626
$L204625:

; 368  : 	{
; 369  : 		nResult = pQuery->GetInt( "bResult" );

  000a4	68 00 00 00 00	 push	 OFFSET FLAT:??_C@_07MGNKFCA@bResult?$AA@
  000a9	8b cd		 mov	 ecx, ebp
  000ab	e8 00 00 00 00	 call	 ?GetInt@CQuery@@QAEHPAD@Z ; CQuery::GetInt

; 370  : 		pQuery->GetStr( "MonName", MonsterProp.szMonsterName);

  000b0	8d 4c 24 14	 lea	 ecx, DWORD PTR _MonsterProp$[esp+1104]
  000b4	51		 push	 ecx
  000b5	68 00 00 00 00	 push	 OFFSET FLAT:??_C@_07FLJJBEFD@MonName?$AA@
  000ba	8b cd		 mov	 ecx, ebp
  000bc	8b f0		 mov	 esi, eax
  000be	e8 00 00 00 00	 call	 ?GetStr@CQuery@@QAEXPAD0@Z ; CQuery::GetStr

; 371  : 		if( nResult == 1)	// 

  000c3	83 fe 01	 cmp	 esi, 1
  000c6	75 7c		 jne	 SHORT $L204628

; 372  : 		{
; 373  : 			MonsterProp.nHitPoint = pQuery->GetInt( "HitPoint" );

  000c8	68 00 00 00 00	 push	 OFFSET FLAT:??_C@_08PDOHAPNM@HitPoint?$AA@
  000cd	8b cd		 mov	 ecx, ebp
  000cf	e8 00 00 00 00	 call	 ?GetInt@CQuery@@QAEHPAD@Z ; CQuery::GetInt

; 374  : 			MonsterProp.nAttackPower = pQuery->GetInt( "AttackPower" );

  000d4	68 00 00 00 00	 push	 OFFSET FLAT:??_C@_0M@LAGJIOMN@AttackPower?$AA@
  000d9	8b cd		 mov	 ecx, ebp
  000db	89 44 24 38	 mov	 DWORD PTR _MonsterProp$[esp+1140], eax
  000df	e8 00 00 00 00	 call	 ?GetInt@CQuery@@QAEHPAD@Z ; CQuery::GetInt

; 375  : 			MonsterProp.nDefence = pQuery->GetInt( "Defence" );

  000e4	68 00 00 00 00	 push	 OFFSET FLAT:??_C@_07OIBJPBBC@Defence?$AA@
  000e9	8b cd		 mov	 ecx, ebp
  000eb	89 44 24 3c	 mov	 DWORD PTR _MonsterProp$[esp+1144], eax
  000ef	e8 00 00 00 00	 call	 ?GetInt@CQuery@@QAEHPAD@Z ; CQuery::GetInt

; 376  : 			MonsterProp.nExp = pQuery->GetInt( "Exp" );

  000f4	68 00 00 00 00	 push	 OFFSET FLAT:??_C@_03HKMMIPC@Exp?$AA@
  000f9	8b cd		 mov	 ecx, ebp
  000fb	89 44 24 40	 mov	 DWORD PTR _MonsterProp$[esp+1148], eax
  000ff	e8 00 00 00 00	 call	 ?GetInt@CQuery@@QAEHPAD@Z ; CQuery::GetInt

; 377  : 			MonsterProp.nItemDrop = pQuery->GetInt( "ItemDrop" );

  00104	68 00 00 00 00	 push	 OFFSET FLAT:??_C@_08COMINNNE@ItemDrop?$AA@
  00109	8b cd		 mov	 ecx, ebp
  0010b	89 44 24 44	 mov	 DWORD PTR _MonsterProp$[esp+1152], eax
  0010f	e8 00 00 00 00	 call	 ?GetInt@CQuery@@QAEHPAD@Z ; CQuery::GetInt

; 378  : 			MonsterProp.nPenya = pQuery->GetInt( "Penya" );

  00114	68 00 00 00 00	 push	 OFFSET FLAT:??_C@_05OPFOCHJP@Penya?$AA@
  00119	8b cd		 mov	 ecx, ebp
  0011b	89 44 24 48	 mov	 DWORD PTR _MonsterProp$[esp+1156], eax
  0011f	e8 00 00 00 00	 call	 ?GetInt@CQuery@@QAEHPAD@Z ; CQuery::GetInt

; 379  : 
; 380  : 			AddMonsterProp( MonsterProp );

  00124	83 ec 38	 sub	 esp, 56			; 00000038H
  00127	8b fc		 mov	 edi, esp
  00129	89 84 24 80 00
	00 00		 mov	 DWORD PTR _MonsterProp$[esp+1212], eax
  00130	b9 0e 00 00 00	 mov	 ecx, 14			; 0000000eH
  00135	8d 74 24 4c	 lea	 esi, DWORD PTR _MonsterProp$[esp+1160]
  00139	f3 a5		 rep movsd
  0013b	8b cb		 mov	 ecx, ebx
  0013d	e8 00 00 00 00	 call	 ?AddMonsterProp@CDbManager@@AAEHU_MONSTER_PROP@@@Z ; CDbManager::AddMonsterProp

; 381  : 		}
; 382  : 		else		// 

  00142	eb 1d		 jmp	 SHORT $L205847
$L204628:

; 383  : 		{
; 384  : 			if( lpstrTime != '\0' )

  00144	39 7c 24 10	 cmp	 DWORD PTR $T205844[esp+1104], edi
  00148	74 19		 je	 SHORT $L204631

; 385  : 			{
; 386  : 				RemoveMonsterProp( MonsterProp );

  0014a	83 ec 38	 sub	 esp, 56			; 00000038H
  0014d	8b fc		 mov	 edi, esp
  0014f	b9 0e 00 00 00	 mov	 ecx, 14			; 0000000eH
  00154	8d 74 24 4c	 lea	 esi, DWORD PTR _MonsterProp$[esp+1160]
  00158	f3 a5		 rep movsd
  0015a	8b cb		 mov	 ecx, ebx
  0015c	e8 00 00 00 00	 call	 ?RemoveMonsterProp@CDbManager@@AAEHU_MONSTER_PROP@@@Z ; CDbManager::RemoveMonsterProp
$L205847:
  00161	33 ff		 xor	 edi, edi
$L204631:

; 367  : 	while( pQuery->Fetch() )

  00163	8b cd		 mov	 ecx, ebp
  00165	e8 00 00 00 00	 call	 ?Fetch@CQuery@@QAEHXZ	; CQuery::Fetch
  0016a	85 c0		 test	 eax, eax
  0016c	0f 85 32 ff ff
	ff		 jne	 $L204625
$L204626:

; 387  : 			}
; 388  : 		}
; 389  : 	}
; 390  : 	
; 391  : 	TRACE( "%d MONSTER_PROP\n", prj.m_nMonsterPropSize );
; 392  : 
; 393  : 	return;
; 394  : }

  00172	8b 8c 24 4c 04
	00 00		 mov	 ecx, DWORD PTR __$ArrayPad$[esp+1104]
  00179	5f		 pop	 edi
  0017a	5e		 pop	 esi
  0017b	5d		 pop	 ebp
  0017c	5b		 pop	 ebx
  0017d	33 cc		 xor	 ecx, esp
  0017f	e8 00 00 00 00	 call	 @__security_check_cookie@4
  00184	81 c4 40 04 00
	00		 add	 esp, 1088		; 00000440H
  0018a	c2 08 00	 ret	 8
?GetMonsterPropSetting@CDbManager@@AAEXPAVCQuery@@PAD@Z ENDP ; CDbManager::GetMonsterPropSetting
_TEXT	ENDS
PUBLIC	?GetTickCount@CTime@ATL@@SG?AV12@XZ		; ATL::CTime::GetTickCount
EXTRN	__time64:NEAR
; Function compile flags: /Ogty
; File c:\program files\microsoft visual studio .net 2003\vc7\atlmfc\include\atltime.inl
;	COMDAT ?GetTickCount@CTime@ATL@@SG?AV12@XZ
_TEXT	SEGMENT
___$ReturnUdt$ = 8					; size = 4
?GetTickCount@CTime@ATL@@SG?AV12@XZ PROC NEAR		; ATL::CTime::GetTickCount, COMDAT

; 139  : 	return( CTime( ::_time64( NULL ) ) );

  00000	6a 00		 push	 0
  00002	e8 00 00 00 00	 call	 __time64
  00007	8b 4c 24 08	 mov	 ecx, DWORD PTR ___$ReturnUdt$[esp]
  0000b	89 01		 mov	 DWORD PTR [ecx], eax
  0000d	83 c4 04	 add	 esp, 4
  00010	89 51 04	 mov	 DWORD PTR [ecx+4], edx
  00013	8b c1		 mov	 eax, ecx

; 140  : }

  00015	c2 04 00	 ret	 4
?GetTickCount@CTime@ATL@@SG?AV12@XZ ENDP		; ATL::CTime::GetTickCount
_TEXT	ENDS
PUBLIC	??_C@_0CB@MFHCCELP@?$CFs?0?5?$CFd?5BackSystem?5Connect?5Failed@ ; `string'
PUBLIC	?BackSystem@CDbManager@@QAEXXZ			; CDbManager::BackSystem
EXTRN	__except_list:DWORD
EXTRN	__chkstk:NEAR
EXTRN	___CxxFrameHandler:NEAR
EXTRN	??2@YAPAXI@Z:NEAR				; operator new
EXTRN	??0CQuery@@QAE@XZ:NEAR				; CQuery::CQuery
EXTRN	?Connect@CQuery@@QAEHHPAD0PBD@Z:NEAR		; CQuery::Connect
EXTRN	?DSN_NAME_BACKSYSTEM@@3PADA:BYTE		; DSN_NAME_BACKSYSTEM
EXTRN	?DB_ADMIN_ID_BACKSYSTEM@@3PADA:BYTE		; DB_ADMIN_ID_BACKSYSTEM
EXTRN	?AfxMessageBox@@YGHPBDII@Z:NEAR			; AfxMessageBox
EXTRN	?GetInstance@CDPTrans@@SAPAV1@XZ:NEAR		; CDPTrans::GetInstance
EXTRN	?SendBaseGameSetting@CDPTrans@@QAEXHK@Z:NEAR	; CDPTrans::SendBaseGameSetting
EXTRN	?SendMonsterRespawnSetting@CDPTrans@@QAEXHQAHK@Z:NEAR ; CDPTrans::SendMonsterRespawnSetting
EXTRN	?SendMonsterPropSetting@CDPTrans@@QAEXHK@Z:NEAR	; CDPTrans::SendMonsterPropSetting
EXTRN	?SendGMChat@CDPTrans@@QAEXH@Z:NEAR		; CDPTrans::SendGMChat
EXTRN	__imp__WaitForSingleObject@8:NEAR
;	COMDAT xdata$x
; File c:\documents and settings\test\mes documents\source\virtuos_v17\build\program\_database\dbbackendsystem.cpp
xdata$x	SEGMENT
$T205905 DD	0ffffffffH
	DD	FLAT:$L205871
$T205893 DD	019930520H
	DD	01H
	DD	FLAT:$T205905
	DD	2 DUP(00H)
	DD	2 DUP(00H)
xdata$x	ENDS
;	COMDAT ??_C@_0CB@MFHCCELP@?$CFs?0?5?$CFd?5BackSystem?5Connect?5Failed@
CONST	SEGMENT
??_C@_0CB@MFHCCELP@?$CFs?0?5?$CFd?5BackSystem?5Connect?5Failed@ DB '%s, %'
	DB	'd BackSystem Connect Failed', 00H		; `string'
; Function compile flags: /Ogty
CONST	ENDS
;	COMDAT ?BackSystem@CDbManager@@QAEXXZ
_TEXT	SEGMENT
_nChatCount$ = -4280					; size = 4
_nRemoveMonsterRespawnSize$ = -4280			; size = 4
_nCount$ = -4276					; size = 4
$T205858 = -4276					; size = 4
_nRemoveRespawn$ = -4272				; size = 4096
_chBackEndSystemTime$ = -176				; size = 15
_chBackEndSystemChatTime$ = -160			; size = 15
_s$204443 = -144					; size = 128
__$ArrayPad$ = -16					; size = 4
__$EHRec$ = -12						; size = 12
__$ReturnAddr$ = 4					; size = 4
?BackSystem@CDbManager@@QAEXXZ PROC NEAR		; CDbManager::BackSystem, COMDAT
; _this$ = ecx

; 21   : {

  00000	6a ff		 push	 -1
  00002	68 00 00 00 00	 push	 __ehhandler$?BackSystem@CDbManager@@QAEXXZ
  00007	64 a1 00 00 00
	00		 mov	 eax, DWORD PTR fs:__except_list
  0000d	50		 push	 eax
  0000e	b8 ac 10 00 00	 mov	 eax, 4268		; 000010acH
  00013	64 89 25 00 00
	00 00		 mov	 DWORD PTR fs:__except_list, esp
  0001a	e8 00 00 00 00	 call	 __chkstk
  0001f	a1 00 00 00 00	 mov	 eax, DWORD PTR ___security_cookie
  00024	33 c4		 xor	 eax, esp
  00026	53		 push	 ebx
  00027	89 84 24 ac 10
	00 00		 mov	 DWORD PTR __$ArrayPad$[esp+4284], eax

; 22   : 	if( prj.m_bBackEndSystem == FALSE )

  0002e	a1 24 34 00 00	 mov	 eax, DWORD PTR ?prj@@3VCProject@@A+13348
  00033	33 db		 xor	 ebx, ebx
  00035	3b c3		 cmp	 eax, ebx
  00037	57		 push	 edi
  00038	8b f9		 mov	 edi, ecx
  0003a	0f 84 3e 02 00
	00		 je	 $L205869
  00040	56		 push	 esi

; 23   : 		return;
; 24   : 
; 25   : 	CQuery* pQuery	= new CQuery;

  00041	68 10 3d 00 00	 push	 15632			; 00003d10H
  00046	e8 00 00 00 00	 call	 ??2@YAPAXI@Z		; operator new
  0004b	83 c4 04	 add	 esp, 4
  0004e	89 44 24 10	 mov	 DWORD PTR $T205858[esp+4292], eax
  00052	3b c3		 cmp	 eax, ebx
  00054	89 9c 24 c0 10
	00 00		 mov	 DWORD PTR __$EHRec$[esp+4300], ebx
  0005b	74 0b		 je	 SHORT $L205859
  0005d	8b c8		 mov	 ecx, eax
  0005f	e8 00 00 00 00	 call	 ??0CQuery@@QAE@XZ	; CQuery::CQuery
  00064	8b f0		 mov	 esi, eax
  00066	eb 02		 jmp	 SHORT $L205860
$L205859:
  00068	33 f6		 xor	 esi, esi
$L205860:

; 26   : 	if( FALSE == pQuery->Connect( 3, DSN_NAME_BACKSYSTEM, DB_ADMIN_ID_BACKSYSTEM, DB_ADMIN_PASS_BACKSYSTEM ) )

  0006a	8d 87 c0 05 00
	00		 lea	 eax, DWORD PTR [edi+1472]
  00070	50		 push	 eax
  00071	68 00 00 00 00	 push	 OFFSET FLAT:?DB_ADMIN_ID_BACKSYSTEM@@3PADA ; DB_ADMIN_ID_BACKSYSTEM
  00076	68 00 00 00 00	 push	 OFFSET FLAT:?DSN_NAME_BACKSYSTEM@@3PADA ; DSN_NAME_BACKSYSTEM
  0007b	6a 03		 push	 3
  0007d	8b ce		 mov	 ecx, esi
  0007f	c7 84 24 d0 10
	00 00 ff ff ff
	ff		 mov	 DWORD PTR __$EHRec$[esp+4316], -1
  0008a	e8 00 00 00 00	 call	 ?Connect@CQuery@@QAEHHPAD0PBD@Z ; CQuery::Connect
  0008f	85 c0		 test	 eax, eax
  00091	75 30		 jne	 SHORT $L204442

; 27   : 	{
; 28   : 		char s[128];
; 29   : 		sprintf( s, "%s, %d BackSystem Connect Failed", __FILE__, __LINE__ );

  00093	6a 1d		 push	 29			; 0000001dH
  00095	68 00 00 00 00	 push	 OFFSET FLAT:??_C@_0GK@BOIJKFBN@?2Documents?5and?5Settings?2test?2Mes@
  0009a	8d 8c 24 3c 10
	00 00		 lea	 ecx, DWORD PTR _s$204443[esp+4300]
  000a1	68 00 00 00 00	 push	 OFFSET FLAT:??_C@_0CB@MFHCCELP@?$CFs?0?5?$CFd?5BackSystem?5Connect?5Failed@
  000a6	51		 push	 ecx
  000a7	e8 00 00 00 00	 call	 _sprintf
  000ac	83 c4 10	 add	 esp, 16			; 00000010H

; 30   : 		AfxMessageBox( s );

  000af	53		 push	 ebx
  000b0	53		 push	 ebx
  000b1	8d 94 24 3c 10
	00 00		 lea	 edx, DWORD PTR _s$204443[esp+4300]
  000b8	52		 push	 edx
  000b9	e8 00 00 00 00	 call	 ?AfxMessageBox@@YGHPBDII@Z ; AfxMessageBox

; 31   : 		SAFE_DELETE( pQuery );
; 32   : 		return;

  000be	e9 a6 01 00 00	 jmp	 $L205904
$L204442:
  000c3	55		 push	 ebp

; 33   : 	}
; 34   : 
; 35   : 	prj.m_nAddMonsterRespawnSize = 0;
; 36   : 	prj.m_nAddMonsterPropSize = 0;
; 37   : 	prj.m_nRemoveMonsterPropSize = 0;
; 38   : 	int nRemoveMonsterRespawnSize = 0;
; 39   : 	int nRemoveMonsterPropSize = 0;
; 40   : 
; 41   : 	GetGemeSettingtime( pQuery, 2 );

  000c4	6a 02		 push	 2
  000c6	56		 push	 esi
  000c7	8b cf		 mov	 ecx, edi
  000c9	89 1d 28 34 02
	00		 mov	 DWORD PTR ?prj@@3VCProject@@A+144424, ebx
  000cf	89 1d 30 74 04
	00		 mov	 DWORD PTR ?prj@@3VCProject@@A+291888, ebx
  000d5	89 1d 34 74 04
	00		 mov	 DWORD PTR ?prj@@3VCProject@@A+291892, ebx
  000db	89 5c 24 18	 mov	 DWORD PTR _nRemoveMonsterRespawnSize$[esp+4304], ebx
  000df	e8 00 00 00 00	 call	 ?GetGemeSettingtime@CDbManager@@AAEXPAVCQuery@@H@Z ; CDbManager::GetGemeSettingtime

; 42   : 	GetBaseGameSetting( pQuery );

  000e4	53		 push	 ebx
  000e5	56		 push	 esi
  000e6	8b cf		 mov	 ecx, edi
  000e8	e8 00 00 00 00	 call	 ?GetBaseGameSetting@CDbManager@@AAEHPAVCQuery@@PAD@Z ; CDbManager::GetBaseGameSetting

; 43   : 	GetMonsterRespawnSetting( pQuery, nRemoveMonsterRespawnSize );

  000ed	53		 push	 ebx
  000ee	53		 push	 ebx
  000ef	8d 44 24 18	 lea	 eax, DWORD PTR _nRemoveMonsterRespawnSize$[esp+4304]
  000f3	50		 push	 eax
  000f4	56		 push	 esi
  000f5	8b cf		 mov	 ecx, edi
  000f7	e8 00 00 00 00	 call	 ?GetMonsterRespawnSetting@CDbManager@@AAEXPAVCQuery@@AAHQAHPAD@Z ; CDbManager::GetMonsterRespawnSetting

; 44   : 	GetMonsterPropSetting( pQuery );

  000fc	53		 push	 ebx
  000fd	56		 push	 esi
  000fe	8b cf		 mov	 ecx, edi
  00100	e8 00 00 00 00	 call	 ?GetMonsterPropSetting@CDbManager@@AAEXPAVCQuery@@PAD@Z ; CDbManager::GetMonsterPropSetting

; 45   : 
; 46   : 	BOOL bComplete = TRUE;
; 47   : 	HANDLE hHandle	= m_hCloseWorker;

  00105	8b af 5c 03 00
	00		 mov	 ebp, DWORD PTR [edi+860]

; 48   : 
; 49   : 	
; 50   : 	
; 51   : 	int nRemoveRespawn[ 1024 ];
; 52   : 	
; 53   : 	char chBackEndSystemTime[15];
; 54   : 	char chBackEndSystemChatTime[15];
; 55   : 	int	nChatCount;
; 56   : 	int nCount = 0;
; 57   : 	while( WaitForSingleObject( hHandle, 5000 ) == WAIT_TIMEOUT && bComplete == TRUE )	// 10	= 1000 * 10 //1000 * 60 * 5

  0010b	68 88 13 00 00	 push	 5000			; 00001388H
  00110	55		 push	 ebp
  00111	89 5c 24 1c	 mov	 DWORD PTR _nCount$[esp+4304], ebx
  00115	ff 15 00 00 00
	00		 call	 DWORD PTR __imp__WaitForSingleObject@8
  0011b	3d 02 01 00 00	 cmp	 eax, 258		; 00000102H
  00120	0f 85 42 01 00
	00		 jne	 $L204461
$L204460:

; 58   : 	{
; 59   : 		CTime timeCurr	= CTime::GetCurrentTime();

  00126	53		 push	 ebx
  00127	e8 00 00 00 00	 call	 __time64
  0012c	83 c4 04	 add	 esp, 4

; 60   : 		bComplete = FALSE;
; 61   : 
; 62   : 		strcpy( chBackEndSystemChatTime, prj.m_chBackEndSystemChatTime );

  0012f	33 c0		 xor	 eax, eax
$L205865:
  00131	8a 88 4b 74 04
	00		 mov	 cl, BYTE PTR ?prj@@3VCProject@@A[eax+291915]
  00137	88 8c 04 28 10
	00 00		 mov	 BYTE PTR _chBackEndSystemChatTime$[esp+eax+4296], cl
  0013e	40		 inc	 eax
  0013f	3a cb		 cmp	 cl, bl
  00141	75 ee		 jne	 SHORT $L205865

; 63   : 		GetGemeSettingtime( pQuery, 0 );

  00143	53		 push	 ebx
  00144	56		 push	 esi
  00145	8b cf		 mov	 ecx, edi
  00147	e8 00 00 00 00	 call	 ?GetGemeSettingtime@CDbManager@@AAEXPAVCQuery@@H@Z ; CDbManager::GetGemeSettingtime

; 64   : 		nChatCount = 0;
; 65   : 		if( GetGMChat( pQuery, chBackEndSystemChatTime, nChatCount ) )

  0014c	8d 4c 24 10	 lea	 ecx, DWORD PTR _nChatCount$[esp+4296]
  00150	51		 push	 ecx
  00151	8d 94 24 2c 10
	00 00		 lea	 edx, DWORD PTR _chBackEndSystemChatTime$[esp+4300]
  00158	52		 push	 edx
  00159	56		 push	 esi
  0015a	8b cf		 mov	 ecx, edi
  0015c	89 5c 24 1c	 mov	 DWORD PTR _nChatCount$[esp+4308], ebx
  00160	e8 00 00 00 00	 call	 ?GetGMChat@CDbManager@@AAEHPAVCQuery@@PADAAH@Z ; CDbManager::GetGMChat
  00165	85 c0		 test	 eax, eax
  00167	74 11		 je	 SHORT $L204464

; 66   : 		{
; 67   : 			CDPTrans::GetInstance()->SendGMChat( nChatCount );

  00169	8b 44 24 10	 mov	 eax, DWORD PTR _nChatCount$[esp+4296]
  0016d	50		 push	 eax
  0016e	e8 00 00 00 00	 call	 ?GetInstance@CDPTrans@@SAPAV1@XZ ; CDPTrans::GetInstance
  00173	8b c8		 mov	 ecx, eax
  00175	e8 00 00 00 00	 call	 ?SendGMChat@CDPTrans@@QAEXH@Z ; CDPTrans::SendGMChat
$L204464:

; 68   : 		}
; 69   : 		++nCount;

  0017a	8b 44 24 14	 mov	 eax, DWORD PTR _nCount$[esp+4296]
  0017e	40		 inc	 eax

; 70   : 
; 71   : 		if( nCount == MAX_BACKENDSYSTEM )

  0017f	83 f8 02	 cmp	 eax, 2
  00182	89 44 24 14	 mov	 DWORD PTR _nCount$[esp+4296], eax
  00186	0f 85 c5 00 00
	00		 jne	 $L204469

; 72   : 		{
; 73   : 			nCount = 0;

  0018c	89 5c 24 14	 mov	 DWORD PTR _nCount$[esp+4296], ebx

; 74   : 			strcpy( chBackEndSystemTime, prj.m_chBackEndSystemTime );

  00190	33 c0		 xor	 eax, eax
$L205866:
  00192	8a 88 3c 74 04
	00		 mov	 cl, BYTE PTR ?prj@@3VCProject@@A[eax+291900]
  00198	88 8c 04 18 10
	00 00		 mov	 BYTE PTR _chBackEndSystemTime$[esp+eax+4296], cl
  0019f	40		 inc	 eax
  001a0	3a cb		 cmp	 cl, bl
  001a2	75 ee		 jne	 SHORT $L205866

; 75   : 			
; 76   : 			GetGemeSettingtime( pQuery, 1 );

  001a4	6a 01		 push	 1
  001a6	56		 push	 esi
  001a7	8b cf		 mov	 ecx, edi
  001a9	e8 00 00 00 00	 call	 ?GetGemeSettingtime@CDbManager@@AAEXPAVCQuery@@H@Z ; CDbManager::GetGemeSettingtime

; 77   : 			if( GetBaseGameSetting( pQuery, chBackEndSystemTime ) )

  001ae	8d 8c 24 18 10
	00 00		 lea	 ecx, DWORD PTR _chBackEndSystemTime$[esp+4296]
  001b5	51		 push	 ecx
  001b6	56		 push	 esi
  001b7	8b cf		 mov	 ecx, edi
  001b9	e8 00 00 00 00	 call	 ?GetBaseGameSetting@CDbManager@@AAEHPAVCQuery@@PAD@Z ; CDbManager::GetBaseGameSetting
  001be	85 c0		 test	 eax, eax
  001c0	74 0e		 je	 SHORT $L204466

; 78   : 			{
; 79   : 				CDPTrans::GetInstance()->SendBaseGameSetting( FALSE, DPID_ALLPLAYERS );

  001c2	53		 push	 ebx
  001c3	53		 push	 ebx
  001c4	e8 00 00 00 00	 call	 ?GetInstance@CDPTrans@@SAPAV1@XZ ; CDPTrans::GetInstance
  001c9	8b c8		 mov	 ecx, eax
  001cb	e8 00 00 00 00	 call	 ?SendBaseGameSetting@CDPTrans@@QAEXHK@Z ; CDPTrans::SendBaseGameSetting
$L204466:

; 80   : 			}
; 81   : 			
; 82   : 			prj.m_nAddMonsterRespawnSize = 0;
; 83   : 			prj.m_nAddMonsterPropSize = 0;
; 84   : 			prj.m_nRemoveMonsterPropSize = 0;
; 85   : 			nRemoveMonsterRespawnSize = 0;
; 86   : 			
; 87   : 			
; 88   : 			GetMonsterRespawnSetting( pQuery, nRemoveMonsterRespawnSize, nRemoveRespawn, chBackEndSystemTime );

  001d0	8d 94 24 18 10
	00 00		 lea	 edx, DWORD PTR _chBackEndSystemTime$[esp+4296]
  001d7	52		 push	 edx
  001d8	8d 44 24 1c	 lea	 eax, DWORD PTR _nRemoveRespawn$[esp+4300]
  001dc	50		 push	 eax
  001dd	8d 4c 24 18	 lea	 ecx, DWORD PTR _nRemoveMonsterRespawnSize$[esp+4304]
  001e1	51		 push	 ecx
  001e2	56		 push	 esi
  001e3	8b cf		 mov	 ecx, edi
  001e5	89 1d 28 34 02
	00		 mov	 DWORD PTR ?prj@@3VCProject@@A+144424, ebx
  001eb	89 1d 30 74 04
	00		 mov	 DWORD PTR ?prj@@3VCProject@@A+291888, ebx
  001f1	89 1d 34 74 04
	00		 mov	 DWORD PTR ?prj@@3VCProject@@A+291892, ebx
  001f7	89 5c 24 20	 mov	 DWORD PTR _nRemoveMonsterRespawnSize$[esp+4312], ebx
  001fb	e8 00 00 00 00	 call	 ?GetMonsterRespawnSetting@CDbManager@@AAEXPAVCQuery@@AAHQAHPAD@Z ; CDbManager::GetMonsterRespawnSetting

; 89   : 			if( 0 < prj.m_nAddMonsterRespawnSize || 0 < nRemoveMonsterRespawnSize )

  00200	39 1d 28 34 02
	00		 cmp	 DWORD PTR ?prj@@3VCProject@@A+144424, ebx
  00206	8b 44 24 10	 mov	 eax, DWORD PTR _nRemoveMonsterRespawnSize$[esp+4296]
  0020a	7f 04		 jg	 SHORT $L204468
  0020c	3b c3		 cmp	 eax, ebx
  0020e	7e 13		 jle	 SHORT $L204467
$L204468:

; 90   : 			{
; 91   : 				CDPTrans::GetInstance()->SendMonsterRespawnSetting( nRemoveMonsterRespawnSize, nRemoveRespawn, DPID_ALLPLAYERS );

  00210	53		 push	 ebx
  00211	8d 54 24 1c	 lea	 edx, DWORD PTR _nRemoveRespawn$[esp+4300]
  00215	52		 push	 edx
  00216	50		 push	 eax
  00217	e8 00 00 00 00	 call	 ?GetInstance@CDPTrans@@SAPAV1@XZ ; CDPTrans::GetInstance
  0021c	8b c8		 mov	 ecx, eax
  0021e	e8 00 00 00 00	 call	 ?SendMonsterRespawnSetting@CDPTrans@@QAEXHQAHK@Z ; CDPTrans::SendMonsterRespawnSetting
$L204467:

; 92   : 			}
; 93   : 			
; 94   : 			GetMonsterPropSetting( pQuery, chBackEndSystemTime );

  00223	8d 84 24 18 10
	00 00		 lea	 eax, DWORD PTR _chBackEndSystemTime$[esp+4296]
  0022a	50		 push	 eax
  0022b	56		 push	 esi
  0022c	8b cf		 mov	 ecx, edi
  0022e	e8 00 00 00 00	 call	 ?GetMonsterPropSetting@CDbManager@@AAEXPAVCQuery@@PAD@Z ; CDbManager::GetMonsterPropSetting

; 95   : 			if( 0 < prj.m_nAddMonsterPropSize || 0 < prj.m_nRemoveMonsterPropSize )

  00233	39 1d 30 74 04
	00		 cmp	 DWORD PTR ?prj@@3VCProject@@A+291888, ebx
  00239	7f 08		 jg	 SHORT $L204470
  0023b	39 1d 34 74 04
	00		 cmp	 DWORD PTR ?prj@@3VCProject@@A+291892, ebx
  00241	7e 0e		 jle	 SHORT $L204469
$L204470:

; 96   : 			{
; 97   : 				CDPTrans::GetInstance()->SendMonsterPropSetting( FALSE, DPID_ALLPLAYERS );

  00243	53		 push	 ebx
  00244	53		 push	 ebx
  00245	e8 00 00 00 00	 call	 ?GetInstance@CDPTrans@@SAPAV1@XZ ; CDPTrans::GetInstance
  0024a	8b c8		 mov	 ecx, eax
  0024c	e8 00 00 00 00	 call	 ?SendMonsterPropSetting@CDPTrans@@QAEXHK@Z ; CDPTrans::SendMonsterPropSetting
$L204469:
  00251	68 88 13 00 00	 push	 5000			; 00001388H
  00256	55		 push	 ebp
  00257	ff 15 00 00 00
	00		 call	 DWORD PTR __imp__WaitForSingleObject@8
  0025d	3d 02 01 00 00	 cmp	 eax, 258		; 00000102H
  00262	0f 84 be fe ff
	ff		 je	 $L204460
$L204461:
  00268	5d		 pop	 ebp
$L205904:

; 98   : 			}
; 99   : 		}
; 100  : 
; 101  : 		bComplete = TRUE;
; 102  : 
; 103  : 		TRACE( "Worker BackSystem\n" );
; 104  : 	}	
; 105  : 	SAFE_DELETE( pQuery );

  00269	3b f3		 cmp	 esi, ebx
  0026b	74 10		 je	 SHORT $L205902
  0026d	8b ce		 mov	 ecx, esi
  0026f	e8 00 00 00 00	 call	 ??1CQuery@@QAE@XZ	; CQuery::~CQuery
  00274	56		 push	 esi
  00275	e8 00 00 00 00	 call	 ??3@YAXPAX@Z		; operator delete
  0027a	83 c4 04	 add	 esp, 4
$L205902:
  0027d	5e		 pop	 esi
$L205869:

; 106  : }

  0027e	8b 8c 24 b4 10
	00 00		 mov	 ecx, DWORD PTR __$EHRec$[esp+4288]
  00285	5f		 pop	 edi
  00286	64 89 0d 00 00
	00 00		 mov	 DWORD PTR fs:__except_list, ecx
  0028d	8b 8c 24 ac 10
	00 00		 mov	 ecx, DWORD PTR __$ArrayPad$[esp+4284]
  00294	5b		 pop	 ebx
  00295	33 cc		 xor	 ecx, esp
  00297	e8 00 00 00 00	 call	 @__security_check_cookie@4
  0029c	81 c4 b8 10 00
	00		 add	 esp, 4280		; 000010b8H
  002a2	c3		 ret	 0
_TEXT	ENDS
;	COMDAT text$x
text$x	SEGMENT
$L205871:
  00000	8b 85 4c ef ff
	ff		 mov	 eax, DWORD PTR $T205858[ebp]
  00006	50		 push	 eax
  00007	e8 00 00 00 00	 call	 ??3@YAXPAX@Z		; operator delete
  0000c	59		 pop	 ecx
  0000d	c3		 ret	 0
__ehhandler$?BackSystem@CDbManager@@QAEXXZ:
  0000e	b8 00 00 00 00	 mov	 eax, OFFSET FLAT:$T205893
  00013	e9 00 00 00 00	 jmp	 ___CxxFrameHandler
text$x	ENDS
?BackSystem@CDbManager@@QAEXXZ ENDP			; CDbManager::BackSystem
END
