; Listing generated by Microsoft (R) Optimizing Compiler Version 13.10.6030 

	TITLE	.\dbcontroller.cpp
	.386P
include listing.inc
if @Version gt 510
.model FLAT
else
_TEXT	SEGMENT PARA USE32 PUBLIC 'CODE'
_TEXT	ENDS
_DATA	SEGMENT DWORD USE32 PUBLIC 'DATA'
_DATA	ENDS
CONST	SEGMENT DWORD USE32 PUBLIC 'CONST'
CONST	ENDS
_BSS	SEGMENT DWORD USE32 PUBLIC 'BSS'
_BSS	ENDS
$$SYMBOLS	SEGMENT BYTE USE32 'DEBSYM'
$$SYMBOLS	ENDS
_TLS	SEGMENT DWORD USE32 PUBLIC 'TLS'
_TLS	ENDS
;	COMDAT ??_C@_0BC@MOGJFHKK@tr1?3?3bad_weak_ptr?$AA@
CONST	SEGMENT DWORD USE32 PUBLIC 'CONST'
CONST	ENDS
;	COMDAT ??_C@_0BD@IOHNFIBA@SetLOD?5?3?5lv?$DN?$CFd?0?5?$CFs?$AA@
CONST	SEGMENT DWORD USE32 PUBLIC 'CONST'
CONST	ENDS
;	COMDAT ??_C@_02PCIJFNDE@?$AN?6?$AA@
CONST	SEGMENT DWORD USE32 PUBLIC 'CONST'
CONST	ENDS
;	COMDAT ??_C@_01DNKMNLPK@?$HM?$AA@
CONST	SEGMENT DWORD USE32 PUBLIC 'CONST'
CONST	ENDS
;	COMDAT ??_C@_0DF@NIEDDNJK@PostRequest?5nBufSize?5error?4?5nQue@
CONST	SEGMENT DWORD USE32 PUBLIC 'CONST'
CONST	ENDS
;	COMDAT ??_C@_0CM@ILHDLBHB@Can?8t?5connect?5db?3?5CDbController?4@
CONST	SEGMENT DWORD USE32 PUBLIC 'CONST'
CONST	ENDS
;	COMDAT ??_C@_0CJ@PIJPFKHL@BindParameter?$CI?$CJ?5or?5Exec?$CI?$CJ?3?5PostD@
CONST	SEGMENT DWORD USE32 PUBLIC 'CONST'
CONST	ENDS
text$yd	SEGMENT PARA USE32 PUBLIC 'CODE'
text$yd	ENDS
xdata$x	SEGMENT DWORD USE32 PUBLIC 'CONST'
xdata$x	ENDS
;	COMDAT ?SetQueryObject@CDbController@@QAEXPAVCQuery@@@Z
_TEXT	SEGMENT PARA USE32 PUBLIC 'CODE'
_TEXT	ENDS
;	COMDAT ?OnTimer@CDbController@@UAEXXZ
_TEXT	SEGMENT PARA USE32 PUBLIC 'CODE'
_TEXT	ENDS
;	COMDAT ?GetTimer@CDbController@@QAEKXZ
_TEXT	SEGMENT PARA USE32 PUBLIC 'CODE'
_TEXT	ENDS
;	COMDAT ?what@bad_weak_ptr@boost@@UBEPBDXZ
_TEXT	SEGMENT PARA USE32 PUBLIC 'CODE'
_TEXT	ENDS
;	COMDAT ??1sp_counted_base@detail@boost@@UAE@XZ
_TEXT	SEGMENT PARA USE32 PUBLIC 'CODE'
_TEXT	ENDS
;	COMDAT ?destroy@sp_counted_base@detail@boost@@UAEXXZ
_TEXT	SEGMENT PARA USE32 PUBLIC 'CODE'
_TEXT	ENDS
;	COMDAT ?add_ref_copy@sp_counted_base@detail@boost@@QAEXXZ
_TEXT	SEGMENT PARA USE32 PUBLIC 'CODE'
_TEXT	ENDS
;	COMDAT ?add_ref_lock@sp_counted_base@detail@boost@@QAE_NXZ
_TEXT	SEGMENT PARA USE32 PUBLIC 'CODE'
_TEXT	ENDS
;	COMDAT ?release@sp_counted_base@detail@boost@@QAEXXZ
_TEXT	SEGMENT PARA USE32 PUBLIC 'CODE'
_TEXT	ENDS
;	COMDAT ?weak_add_ref@sp_counted_base@detail@boost@@QAEXXZ
_TEXT	SEGMENT PARA USE32 PUBLIC 'CODE'
_TEXT	ENDS
;	COMDAT ?weak_release@sp_counted_base@detail@boost@@QAEXXZ
_TEXT	SEGMENT PARA USE32 PUBLIC 'CODE'
_TEXT	ENDS
;	COMDAT ?use_count@sp_counted_base@detail@boost@@QBEJXZ
_TEXT	SEGMENT PARA USE32 PUBLIC 'CODE'
_TEXT	ENDS
;	COMDAT ??_Gsp_counted_base@detail@boost@@UAEPAXI@Z
_TEXT	SEGMENT PARA USE32 PUBLIC 'CODE'
_TEXT	ENDS
;	COMDAT ?use_count@shared_count@detail@boost@@QBEJXZ
_TEXT	SEGMENT PARA USE32 PUBLIC 'CODE'
_TEXT	ENDS
;	COMDAT ??0bad_weak_ptr@boost@@QAE@XZ
_TEXT	SEGMENT PARA USE32 PUBLIC 'CODE'
_TEXT	ENDS
;	COMDAT ??1bad_weak_ptr@boost@@UAE@XZ
_TEXT	SEGMENT PARA USE32 PUBLIC 'CODE'
_TEXT	ENDS
;	COMDAT ??_Gbad_weak_ptr@boost@@UAEPAXI@Z
_TEXT	SEGMENT PARA USE32 PUBLIC 'CODE'
_TEXT	ENDS
;	COMDAT ?GetCooltime@CLordSkillComponent@@QAEHXZ
_TEXT	SEGMENT PARA USE32 PUBLIC 'CODE'
_TEXT	ENDS
;	COMDAT ?SetTick@CLordSkillComponent@@QAEXH@Z
_TEXT	SEGMENT PARA USE32 PUBLIC 'CODE'
_TEXT	ENDS
;	COMDAT ??1CLordSkillComponentExecutable@@UAE@XZ
_TEXT	SEGMENT PARA USE32 PUBLIC 'CODE'
_TEXT	ENDS
;	COMDAT ?Use@CLordSkillComponentExecutable@@IAEXXZ
_TEXT	SEGMENT PARA USE32 PUBLIC 'CODE'
_TEXT	ENDS
;	COMDAT ?Execute@CLordSkillComponentExecutable@@UAEXKKPAX@Z
_TEXT	SEGMENT PARA USE32 PUBLIC 'CODE'
_TEXT	ENDS
;	COMDAT ??_GCLordSkillComponentExecutable@@UAEPAXI@Z
_TEXT	SEGMENT PARA USE32 PUBLIC 'CODE'
_TEXT	ENDS
;	COMDAT ?GetDeposit@CCandidate@@QBE_JXZ
_TEXT	SEGMENT PARA USE32 PUBLIC 'CODE'
_TEXT	ENDS
;	COMDAT ?GetVote@CCandidate@@QAEHXZ
_TEXT	SEGMENT PARA USE32 PUBLIC 'CODE'
_TEXT	ENDS
;	COMDAT ?GetCreate@CCandidate@@QAEJXZ
_TEXT	SEGMENT PARA USE32 PUBLIC 'CODE'
_TEXT	ENDS
;	COMDAT ??0CDbController@@QAE@XZ
_TEXT	SEGMENT PARA USE32 PUBLIC 'CODE'
_TEXT	ENDS
;	COMDAT ??_GCDbController@@UAEPAXI@Z
_TEXT	SEGMENT PARA USE32 PUBLIC 'CODE'
_TEXT	ENDS
;	COMDAT ??1CDbController@@UAE@XZ
_TEXT	SEGMENT PARA USE32 PUBLIC 'CODE'
_TEXT	ENDS
;	COMDAT ?CreateDbHandler@CDbController@@QAEHK@Z
_TEXT	SEGMENT PARA USE32 PUBLIC 'CODE'
_TEXT	ENDS
;	COMDAT ?SetTimer@CDbController@@AAEXK@Z
_TEXT	SEGMENT PARA USE32 PUBLIC 'CODE'
_TEXT	ENDS
;	COMDAT ?CloseDbHandler@CDbController@@QAEXXZ
_TEXT	SEGMENT PARA USE32 PUBLIC 'CODE'
_TEXT	ENDS
;	COMDAT ?PostRequest@CDbController@@QAEHHPAEHK@Z
_TEXT	SEGMENT PARA USE32 PUBLIC 'CODE'
_TEXT	ENDS
;	COMDAT ?_DbHandler@CDbController@@SAKPAPAX@Z
_TEXT	SEGMENT PARA USE32 PUBLIC 'CODE'
_TEXT	ENDS
;	COMDAT ?CreateQuery@CDbController@@QAEPAVCQuery@@XZ
_TEXT	SEGMENT PARA USE32 PUBLIC 'CODE'
_TEXT	ENDS
;	COMDAT ??_GCQuery@@QAEPAXI@Z
_TEXT	SEGMENT PARA USE32 PUBLIC 'CODE'
_TEXT	ENDS
;	COMDAT ?DbHandler@CDbController@@QAEXXZ
_TEXT	SEGMENT PARA USE32 PUBLIC 'CODE'
_TEXT	ENDS
;	COMDAT ??0CDbControllerTimer@@AAE@XZ
_TEXT	SEGMENT PARA USE32 PUBLIC 'CODE'
_TEXT	ENDS
;	COMDAT ??_GCDbControllerTimer@@UAEPAXI@Z
_TEXT	SEGMENT PARA USE32 PUBLIC 'CODE'
_TEXT	ENDS
;	COMDAT ??1CDbControllerTimer@@UAE@XZ
_TEXT	SEGMENT PARA USE32 PUBLIC 'CODE'
_TEXT	ENDS
;	COMDAT ?Register@CDbControllerTimer@@QAEXPAVCDbController@@@Z
_TEXT	SEGMENT PARA USE32 PUBLIC 'CODE'
_TEXT	ENDS
;	COMDAT ?_Tick@CDbControllerTimer@@CAIPAX@Z
_TEXT	SEGMENT PARA USE32 PUBLIC 'CODE'
_TEXT	ENDS
;	COMDAT ?Tick@CDbControllerTimer@@AAEXXZ
_TEXT	SEGMENT PARA USE32 PUBLIC 'CODE'
_TEXT	ENDS
;	COMDAT ?Create@CDbControllerTimer@@QAEXXZ
_TEXT	SEGMENT PARA USE32 PUBLIC 'CODE'
_TEXT	ENDS
;	COMDAT ?Destroy@CDbControllerTimer@@QAEXXZ
_TEXT	SEGMENT PARA USE32 PUBLIC 'CODE'
_TEXT	ENDS
;	COMDAT ?GetInstance@CDbControllerTimer@@SAPAV1@XZ
_TEXT	SEGMENT PARA USE32 PUBLIC 'CODE'
_TEXT	ENDS
;	COMDAT _$E2
text$yd	SEGMENT PARA USE32 PUBLIC 'CODE'
text$yd	ENDS
;	COMDAT ?Post@post@@YAXKPAVCMail@@PAVCQuery@@@Z
_TEXT	SEGMENT PARA USE32 PUBLIC 'CODE'
_TEXT	ENDS
;	COMDAT ?Replace@?$CStringT@DV?$StrTraitMFC@DV?$ChTraitsCRT@D@ATL@@@@@ATL@@QAEHPBD0@Z
_TEXT	SEGMENT PARA USE32 PUBLIC 'CODE'
_TEXT	ENDS
;	COMDAT ?compare@?$basic_string@DU?$char_traits@D@std@@V?$allocator@D@2@@std@@QBEHABV12@@Z
_TEXT	SEGMENT PARA USE32 PUBLIC 'CODE'
_TEXT	ENDS
;	COMDAT ??0?$vector@U?$pair@PAVCDbController@@K@std@@V?$allocator@U?$pair@PAVCDbController@@K@std@@@2@@std@@QAE@XZ
_TEXT	SEGMENT PARA USE32 PUBLIC 'CODE'
_TEXT	ENDS
;	COMDAT ??1?$vector@U?$pair@PAVCDbController@@K@std@@V?$allocator@U?$pair@PAVCDbController@@K@std@@@2@@std@@QAE@XZ
_TEXT	SEGMENT PARA USE32 PUBLIC 'CODE'
_TEXT	ENDS
;	COMDAT ?begin@?$vector@U?$pair@PAVCDbController@@K@std@@V?$allocator@U?$pair@PAVCDbController@@K@std@@@2@@std@@QAE?AViterator@12@XZ
_TEXT	SEGMENT PARA USE32 PUBLIC 'CODE'
_TEXT	ENDS
;	COMDAT ?end@?$vector@U?$pair@PAVCDbController@@K@std@@V?$allocator@U?$pair@PAVCDbController@@K@std@@@2@@std@@QAE?AViterator@12@XZ
_TEXT	SEGMENT PARA USE32 PUBLIC 'CODE'
_TEXT	ENDS
;	COMDAT ?push_back@?$vector@U?$pair@PAVCDbController@@K@std@@V?$allocator@U?$pair@PAVCDbController@@K@std@@@2@@std@@QAEXABU?$pair@PAVCDbController@@K@2@@Z
_TEXT	SEGMENT PARA USE32 PUBLIC 'CODE'
_TEXT	ENDS
;	COMDAT ??R?$less@PAVsp_counted_base@detail@boost@@@std@@QBE_NABQAVsp_counted_base@detail@boost@@0@Z
_TEXT	SEGMENT PARA USE32 PUBLIC 'CODE'
_TEXT	ENDS
;	COMDAT ?size@?$vector@PAVCLordSkillComponentExecutable@@V?$allocator@PAVCLordSkillComponentExecutable@@@std@@@std@@QBEIXZ
_TEXT	SEGMENT PARA USE32 PUBLIC 'CODE'
_TEXT	ENDS
;	COMDAT ?size@?$vector@V?$shared_ptr@VCCandidate@@@boost@@V?$allocator@V?$shared_ptr@VCCandidate@@@boost@@@std@@@std@@QBEIXZ
_TEXT	SEGMENT PARA USE32 PUBLIC 'CODE'
_TEXT	ENDS
;	COMDAT ??0?$vector@MV?$allocator@M@std@@@std@@QAE@XZ
_TEXT	SEGMENT PARA USE32 PUBLIC 'CODE'
_TEXT	ENDS
;	COMDAT ??1?$vector@MV?$allocator@M@std@@@std@@QAE@XZ
_TEXT	SEGMENT PARA USE32 PUBLIC 'CODE'
_TEXT	ENDS
;	COMDAT ??0?$vector@HV?$allocator@H@std@@@std@@QAE@XZ
_TEXT	SEGMENT PARA USE32 PUBLIC 'CODE'
_TEXT	ENDS
;	COMDAT ??1?$vector@HV?$allocator@H@std@@@std@@QAE@XZ
_TEXT	SEGMENT PARA USE32 PUBLIC 'CODE'
_TEXT	ENDS
;	COMDAT ??C?$shared_ptr@VCCandidate@@@boost@@QBEPAVCCandidate@@XZ
_TEXT	SEGMENT PARA USE32 PUBLIC 'CODE'
_TEXT	ENDS
;	COMDAT ?size@?$vector@PAVCLEComponent@@V?$allocator@PAVCLEComponent@@@std@@@std@@QBEIXZ
_TEXT	SEGMENT PARA USE32 PUBLIC 'CODE'
_TEXT	ENDS
;	COMDAT ?size@?$vector@U?$pair@M_J@std@@V?$allocator@U?$pair@M_J@std@@@2@@std@@QBEIXZ
_TEXT	SEGMENT PARA USE32 PUBLIC 'CODE'
_TEXT	ENDS
;	COMDAT ?size@?$_Tree@V?$_Tmap_traits@KPAU_PlayerData@@U?$less@K@std@@V?$allocator@U?$pair@$$CBKPAU_PlayerData@@@std@@@3@$0A@@std@@@std@@QBEIXZ
_TEXT	SEGMENT PARA USE32 PUBLIC 'CODE'
_TEXT	ENDS
;	COMDAT ?end@?$_Tree@V?$_Tmap_traits@KP8CDPTrans@@AEXAAVCAr@@KKKPAEK@ZU?$less@K@std@@V?$allocator@U?$pair@$$CBKP8CDPTrans@@AEXAAVCAr@@KKKPAEK@Z@std@@@4@$0A@@std@@@std@@QAE?AViterator@12@XZ
_TEXT	SEGMENT PARA USE32 PUBLIC 'CODE'
_TEXT	ENDS
;	COMDAT ?find@?$_Tree@V?$_Tmap_traits@KP8CDPTrans@@AEXAAVCAr@@KKKPAEK@ZU?$less@K@std@@V?$allocator@U?$pair@$$CBKP8CDPTrans@@AEXAAVCAr@@KKKPAEK@Z@std@@@4@$0A@@std@@@std@@QAE?AViterator@12@ABK@Z
_TEXT	SEGMENT PARA USE32 PUBLIC 'CODE'
_TEXT	ENDS
;	COMDAT ??Citerator@?$_Tree@V?$_Tmap_traits@KP8CDPTrans@@AEXAAVCAr@@KKKPAEK@ZU?$less@K@std@@V?$allocator@U?$pair@$$CBKP8CDPTrans@@AEXAAVCAr@@KKKPAEK@Z@std@@@4@$0A@@std@@@std@@QBEPAU?$pair@$$CBKP8CDPTrans@@AEXAAVCAr@@KKKPAEK@Z@2@XZ
_TEXT	SEGMENT PARA USE32 PUBLIC 'CODE'
_TEXT	ENDS
;	COMDAT ??9const_iterator@?$_Tree@V?$_Tmap_traits@KP8CDPTrans@@AEXAAVCAr@@KKKPAEK@ZU?$less@K@std@@V?$allocator@U?$pair@$$CBKP8CDPTrans@@AEXAAVCAr@@KKKPAEK@Z@std@@@4@$0A@@std@@@std@@QBE_NABV012@@Z
_TEXT	SEGMENT PARA USE32 PUBLIC 'CODE'
_TEXT	ENDS
;	COMDAT ??Diterator@?$vector@U?$pair@PAVCDbController@@K@std@@V?$allocator@U?$pair@PAVCDbController@@K@std@@@2@@std@@QBEAAU?$pair@PAVCDbController@@K@2@XZ
_TEXT	SEGMENT PARA USE32 PUBLIC 'CODE'
_TEXT	ENDS
;	COMDAT ??Eiterator@?$vector@U?$pair@PAVCDbController@@K@std@@V?$allocator@U?$pair@PAVCDbController@@K@std@@@2@@std@@QAE?AV012@H@Z
_TEXT	SEGMENT PARA USE32 PUBLIC 'CODE'
_TEXT	ENDS
;	COMDAT ??9const_iterator@?$vector@U?$pair@PAVCDbController@@K@std@@V?$allocator@U?$pair@PAVCDbController@@K@std@@@2@@std@@QBE_NABV012@@Z
_TEXT	SEGMENT PARA USE32 PUBLIC 'CODE'
_TEXT	ENDS
;	COMDAT ?StringFindString@?$ChTraitsCRT@D@ATL@@SAPADPADPBD@Z
_TEXT	SEGMENT PARA USE32 PUBLIC 'CODE'
_TEXT	ENDS
;	COMDAT ?SafeStringLen@?$ChTraitsCRT@D@ATL@@SAHPBD@Z
_TEXT	SEGMENT PARA USE32 PUBLIC 'CODE'
_TEXT	ENDS
;	COMDAT ?compare@?$basic_string@DU?$char_traits@D@std@@V?$allocator@D@2@@std@@QBEHIIPBDI@Z
_TEXT	SEGMENT PARA USE32 PUBLIC 'CODE'
_TEXT	ENDS
;	COMDAT ??0?$allocator@H@std@@QAE@XZ
_TEXT	SEGMENT PARA USE32 PUBLIC 'CODE'
_TEXT	ENDS
;	COMDAT ?capacity@?$vector@U?$pair@PAVCDbController@@K@std@@V?$allocator@U?$pair@PAVCDbController@@K@std@@@2@@std@@QBEIXZ
_TEXT	SEGMENT PARA USE32 PUBLIC 'CODE'
_TEXT	ENDS
;	COMDAT ?size@?$vector@U?$pair@PAVCDbController@@K@std@@V?$allocator@U?$pair@PAVCDbController@@K@std@@@2@@std@@QBEIXZ
_TEXT	SEGMENT PARA USE32 PUBLIC 'CODE'
_TEXT	ENDS
;	COMDAT ?insert@?$vector@U?$pair@PAVCDbController@@K@std@@V?$allocator@U?$pair@PAVCDbController@@K@std@@@2@@std@@QAE?AViterator@12@V312@ABU?$pair@PAVCDbController@@K@2@@Z
_TEXT	SEGMENT PARA USE32 PUBLIC 'CODE'
_TEXT	ENDS
;	COMDAT ?_Buy@?$vector@U?$pair@PAVCDbController@@K@std@@V?$allocator@U?$pair@PAVCDbController@@K@std@@@2@@std@@IAE_NI@Z
_TEXT	SEGMENT PARA USE32 PUBLIC 'CODE'
_TEXT	ENDS
;	COMDAT ?_Tidy@?$vector@U?$pair@PAVCDbController@@K@std@@V?$allocator@U?$pair@PAVCDbController@@K@std@@@2@@std@@IAEXXZ
_TEXT	SEGMENT PARA USE32 PUBLIC 'CODE'
_TEXT	ENDS
;	COMDAT ?_Ufill@?$vector@U?$pair@PAVCDbController@@K@std@@V?$allocator@U?$pair@PAVCDbController@@K@std@@@2@@std@@IAEPAU?$pair@PAVCDbController@@K@2@PAU32@IABU32@@Z
_TEXT	SEGMENT PARA USE32 PUBLIC 'CODE'
_TEXT	ENDS
;	COMDAT ??0?$_Vector_val@U?$pair@PAVCDbController@@K@std@@V?$allocator@U?$pair@PAVCDbController@@K@std@@@2@@std@@IAE@V?$allocator@U?$pair@PAVCDbController@@K@std@@@1@@Z
_TEXT	SEGMENT PARA USE32 PUBLIC 'CODE'
_TEXT	ENDS
;	COMDAT ??0?$allocator@U?$pair@PAVCDbController@@K@std@@@std@@QAE@XZ
_TEXT	SEGMENT PARA USE32 PUBLIC 'CODE'
_TEXT	ENDS
;	COMDAT ?_Buy@?$vector@MV?$allocator@M@std@@@std@@IAE_NI@Z
_TEXT	SEGMENT PARA USE32 PUBLIC 'CODE'
_TEXT	ENDS
;	COMDAT ?_Tidy@?$vector@MV?$allocator@M@std@@@std@@IAEXXZ
_TEXT	SEGMENT PARA USE32 PUBLIC 'CODE'
_TEXT	ENDS
;	COMDAT ??0?$_Vector_val@MV?$allocator@M@std@@@std@@IAE@V?$allocator@M@1@@Z
_TEXT	SEGMENT PARA USE32 PUBLIC 'CODE'
_TEXT	ENDS
;	COMDAT ??0?$allocator@M@std@@QAE@XZ
_TEXT	SEGMENT PARA USE32 PUBLIC 'CODE'
_TEXT	ENDS
;	COMDAT ?_Buy@?$vector@HV?$allocator@H@std@@@std@@IAE_NI@Z
_TEXT	SEGMENT PARA USE32 PUBLIC 'CODE'
_TEXT	ENDS
;	COMDAT ?_Tidy@?$vector@HV?$allocator@H@std@@@std@@IAEXXZ
_TEXT	SEGMENT PARA USE32 PUBLIC 'CODE'
_TEXT	ENDS
;	COMDAT ??0?$_Vector_val@HV?$allocator@H@std@@@std@@IAE@V?$allocator@H@1@@Z
_TEXT	SEGMENT PARA USE32 PUBLIC 'CODE'
_TEXT	ENDS
;	COMDAT ?_Key@?$_Tree@V?$_Tmap_traits@KP8CDPTrans@@AEXAAVCAr@@KKKPAEK@ZU?$less@K@std@@V?$allocator@U?$pair@$$CBKP8CDPTrans@@AEXAAVCAr@@KKKPAEK@Z@std@@@4@$0A@@std@@@std@@KAABKPAU_Node@?$_Tree_nod@V?$_Tmap_traits@KP8CDPTrans@@AEXAAVCAr@@KKKPAEK@ZU?$less@K@std@@V?$allocator@U?$pair@$$CBKP8CDPTrans@@AEXAAVCAr@@KKKPAEK@Z@std@@@4@$0A@@std@@@2@@Z
_TEXT	SEGMENT PARA USE32 PUBLIC 'CODE'
_TEXT	ENDS
;	COMDAT ?lower_bound@?$_Tree@V?$_Tmap_traits@KP8CDPTrans@@AEXAAVCAr@@KKKPAEK@ZU?$less@K@std@@V?$allocator@U?$pair@$$CBKP8CDPTrans@@AEXAAVCAr@@KKKPAEK@Z@std@@@4@$0A@@std@@@std@@QAE?AViterator@12@ABK@Z
_TEXT	SEGMENT PARA USE32 PUBLIC 'CODE'
_TEXT	ENDS
;	COMDAT ??0iterator@?$_Tree@V?$_Tmap_traits@KP8CDPTrans@@AEXAAVCAr@@KKKPAEK@ZU?$less@K@std@@V?$allocator@U?$pair@$$CBKP8CDPTrans@@AEXAAVCAr@@KKKPAEK@Z@std@@@4@$0A@@std@@@std@@QAE@PAU_Node@?$_Tree_nod@V?$_Tmap_traits@KP8CDPTrans@@AEXAAVCAr@@KKKPAEK@ZU?$less@K@std@@V?$allocator@U?$pair@$$CBKP8CDPTrans@@AEXAAVCAr@@KKKPAEK@Z@std@@@4@$0A@@std@@@2@@Z
_TEXT	SEGMENT PARA USE32 PUBLIC 'CODE'
_TEXT	ENDS
;	COMDAT ??Diterator@?$_Tree@V?$_Tmap_traits@KP8CDPTrans@@AEXAAVCAr@@KKKPAEK@ZU?$less@K@std@@V?$allocator@U?$pair@$$CBKP8CDPTrans@@AEXAAVCAr@@KKKPAEK@Z@std@@@4@$0A@@std@@@std@@QBEAAU?$pair@$$CBKP8CDPTrans@@AEXAAVCAr@@KKKPAEK@Z@2@XZ
_TEXT	SEGMENT PARA USE32 PUBLIC 'CODE'
_TEXT	ENDS
;	COMDAT ??8const_iterator@?$_Tree@V?$_Tmap_traits@KP8CDPTrans@@AEXAAVCAr@@KKKPAEK@ZU?$less@K@std@@V?$allocator@U?$pair@$$CBKP8CDPTrans@@AEXAAVCAr@@KKKPAEK@Z@std@@@4@$0A@@std@@@std@@QBE_NABV012@@Z
_TEXT	SEGMENT PARA USE32 PUBLIC 'CODE'
_TEXT	ENDS
;	COMDAT ?_Mynode@const_iterator@?$_Tree@V?$_Tmap_traits@KP8CDPTrans@@AEXAAVCAr@@KKKPAEK@ZU?$less@K@std@@V?$allocator@U?$pair@$$CBKP8CDPTrans@@AEXAAVCAr@@KKKPAEK@Z@std@@@4@$0A@@std@@@std@@QBEPAU_Node@?$_Tree_nod@V?$_Tmap_traits@KP8CDPTrans@@AEXAAVCAr@@KKKPAEK@ZU?$less@K@std@@V?$allocator@U?$pair@$$CBKP8CDPTrans@@AEXAAVCAr@@KKKPAEK@Z@std@@@4@$0A@@std@@@3@XZ
_TEXT	SEGMENT PARA USE32 PUBLIC 'CODE'
_TEXT	ENDS
;	COMDAT ??0iterator@?$vector@U?$pair@PAVCDbController@@K@std@@V?$allocator@U?$pair@PAVCDbController@@K@std@@@2@@std@@QAE@PAU?$pair@PAVCDbController@@K@2@@Z
_TEXT	SEGMENT PARA USE32 PUBLIC 'CODE'
_TEXT	ENDS
;	COMDAT ??Eiterator@?$vector@U?$pair@PAVCDbController@@K@std@@V?$allocator@U?$pair@PAVCDbController@@K@std@@@2@@std@@QAEAAV012@XZ
_TEXT	SEGMENT PARA USE32 PUBLIC 'CODE'
_TEXT	ENDS
;	COMDAT ??Dconst_iterator@?$vector@U?$pair@PAVCDbController@@K@std@@V?$allocator@U?$pair@PAVCDbController@@K@std@@@2@@std@@QBEABU?$pair@PAVCDbController@@K@2@XZ
_TEXT	SEGMENT PARA USE32 PUBLIC 'CODE'
_TEXT	ENDS
;	COMDAT ??8const_iterator@?$vector@U?$pair@PAVCDbController@@K@std@@V?$allocator@U?$pair@PAVCDbController@@K@std@@@2@@std@@QBE_NABV012@@Z
_TEXT	SEGMENT PARA USE32 PUBLIC 'CODE'
_TEXT	ENDS
;	COMDAT ??0?$allocator@H@std@@QAE@ABV01@@Z
_TEXT	SEGMENT PARA USE32 PUBLIC 'CODE'
_TEXT	ENDS
;	COMDAT ?deallocate@?$allocator@H@std@@QAEXPAHI@Z
_TEXT	SEGMENT PARA USE32 PUBLIC 'CODE'
_TEXT	ENDS
;	COMDAT ?allocate@?$allocator@H@std@@QAEPAHI@Z
_TEXT	SEGMENT PARA USE32 PUBLIC 'CODE'
_TEXT	ENDS
;	COMDAT ?max_size@?$vector@U?$pair@PAVCDbController@@K@std@@V?$allocator@U?$pair@PAVCDbController@@K@std@@@2@@std@@QBEIXZ
_TEXT	SEGMENT PARA USE32 PUBLIC 'CODE'
_TEXT	ENDS
;	COMDAT ?_Destroy@?$vector@U?$pair@PAVCDbController@@K@std@@V?$allocator@U?$pair@PAVCDbController@@K@std@@@2@@std@@IAEXPAU?$pair@PAVCDbController@@K@2@0@Z
_TEXT	SEGMENT PARA USE32 PUBLIC 'CODE'
_TEXT	ENDS
;	COMDAT ?_Insert_n@?$vector@U?$pair@PAVCDbController@@K@std@@V?$allocator@U?$pair@PAVCDbController@@K@std@@@2@@std@@IAEXViterator@12@IABU?$pair@PAVCDbController@@K@2@@Z
_TEXT	SEGMENT PARA USE32 PUBLIC 'CODE'
_TEXT	ENDS
;	COMDAT ?_Xlen@?$vector@U?$pair@PAVCDbController@@K@std@@V?$allocator@U?$pair@PAVCDbController@@K@std@@@2@@std@@IBEXXZ
_TEXT	SEGMENT PARA USE32 PUBLIC 'CODE'
_TEXT	ENDS
;	COMDAT ??0?$allocator@U?$pair@PAVCDbController@@K@std@@@std@@QAE@ABV01@@Z
_TEXT	SEGMENT PARA USE32 PUBLIC 'CODE'
_TEXT	ENDS
;	COMDAT ?deallocate@?$allocator@U?$pair@PAVCDbController@@K@std@@@std@@QAEXPAU?$pair@PAVCDbController@@K@2@I@Z
_TEXT	SEGMENT PARA USE32 PUBLIC 'CODE'
_TEXT	ENDS
;	COMDAT ?allocate@?$allocator@U?$pair@PAVCDbController@@K@std@@@std@@QAEPAU?$pair@PAVCDbController@@K@2@I@Z
_TEXT	SEGMENT PARA USE32 PUBLIC 'CODE'
_TEXT	ENDS
;	COMDAT ?max_size@?$vector@MV?$allocator@M@std@@@std@@QBEIXZ
_TEXT	SEGMENT PARA USE32 PUBLIC 'CODE'
_TEXT	ENDS
;	COMDAT ?_Destroy@?$vector@MV?$allocator@M@std@@@std@@IAEXPAM0@Z
_TEXT	SEGMENT PARA USE32 PUBLIC 'CODE'
_TEXT	ENDS
;	COMDAT ?_Xlen@?$vector@MV?$allocator@M@std@@@std@@IBEXXZ
_TEXT	SEGMENT PARA USE32 PUBLIC 'CODE'
_TEXT	ENDS
;	COMDAT ??0?$allocator@M@std@@QAE@ABV01@@Z
_TEXT	SEGMENT PARA USE32 PUBLIC 'CODE'
_TEXT	ENDS
;	COMDAT ?deallocate@?$allocator@M@std@@QAEXPAMI@Z
_TEXT	SEGMENT PARA USE32 PUBLIC 'CODE'
_TEXT	ENDS
;	COMDAT ?allocate@?$allocator@M@std@@QAEPAMI@Z
_TEXT	SEGMENT PARA USE32 PUBLIC 'CODE'
_TEXT	ENDS
;	COMDAT ?max_size@?$vector@HV?$allocator@H@std@@@std@@QBEIXZ
_TEXT	SEGMENT PARA USE32 PUBLIC 'CODE'
_TEXT	ENDS
;	COMDAT ?_Destroy@?$vector@HV?$allocator@H@std@@@std@@IAEXPAH0@Z
_TEXT	SEGMENT PARA USE32 PUBLIC 'CODE'
_TEXT	ENDS
;	COMDAT ?_Xlen@?$vector@HV?$allocator@H@std@@@std@@IBEXXZ
_TEXT	SEGMENT PARA USE32 PUBLIC 'CODE'
_TEXT	ENDS
;	COMDAT ?_Myval@?$_Tree@V?$_Tmap_traits@KP8CDPTrans@@AEXAAVCAr@@KKKPAEK@ZU?$less@K@std@@V?$allocator@U?$pair@$$CBKP8CDPTrans@@AEXAAVCAr@@KKKPAEK@Z@std@@@4@$0A@@std@@@std@@KAAAU?$pair@$$CBKP8CDPTrans@@AEXAAVCAr@@KKKPAEK@Z@2@PAU_Node@?$_Tree_nod@V?$_Tmap_traits@KP8CDPTrans@@AEXAAVCAr@@KKKPAEK@ZU?$less@K@std@@V?$allocator@U?$pair@$$CBKP8CDPTrans@@AEXAAVCAr@@KKKPAEK@Z@std@@@4@$0A@@std@@@2@@Z
_TEXT	SEGMENT PARA USE32 PUBLIC 'CODE'
_TEXT	ENDS
;	COMDAT ?_Lbound@?$_Tree@V?$_Tmap_traits@KP8CDPTrans@@AEXAAVCAr@@KKKPAEK@ZU?$less@K@std@@V?$allocator@U?$pair@$$CBKP8CDPTrans@@AEXAAVCAr@@KKKPAEK@Z@std@@@4@$0A@@std@@@std@@IBEPAU_Node@?$_Tree_nod@V?$_Tmap_traits@KP8CDPTrans@@AEXAAVCAr@@KKKPAEK@ZU?$less@K@std@@V?$allocator@U?$pair@$$CBKP8CDPTrans@@AEXAAVCAr@@KKKPAEK@Z@std@@@4@$0A@@std@@@2@ABK@Z
_TEXT	SEGMENT PARA USE32 PUBLIC 'CODE'
_TEXT	ENDS
;	COMDAT ?_Kfn@?$_Tmap_traits@KP8CDPTrans@@AEXAAVCAr@@KKKPAEK@ZU?$less@K@std@@V?$allocator@U?$pair@$$CBKP8CDPTrans@@AEXAAVCAr@@KKKPAEK@Z@std@@@4@$0A@@std@@SAABKABU?$pair@$$CBKP8CDPTrans@@AEXAAVCAr@@KKKPAEK@Z@2@@Z
_TEXT	SEGMENT PARA USE32 PUBLIC 'CODE'
_TEXT	ENDS
;	COMDAT ??0const_iterator@?$_Tree@V?$_Tmap_traits@KP8CDPTrans@@AEXAAVCAr@@KKKPAEK@ZU?$less@K@std@@V?$allocator@U?$pair@$$CBKP8CDPTrans@@AEXAAVCAr@@KKKPAEK@Z@std@@@4@$0A@@std@@@std@@QAE@PAU_Node@?$_Tree_nod@V?$_Tmap_traits@KP8CDPTrans@@AEXAAVCAr@@KKKPAEK@ZU?$less@K@std@@V?$allocator@U?$pair@$$CBKP8CDPTrans@@AEXAAVCAr@@KKKPAEK@Z@std@@@4@$0A@@std@@@2@@Z
_TEXT	SEGMENT PARA USE32 PUBLIC 'CODE'
_TEXT	ENDS
;	COMDAT ??Dconst_iterator@?$_Tree@V?$_Tmap_traits@KP8CDPTrans@@AEXAAVCAr@@KKKPAEK@ZU?$less@K@std@@V?$allocator@U?$pair@$$CBKP8CDPTrans@@AEXAAVCAr@@KKKPAEK@Z@std@@@4@$0A@@std@@@std@@QBEABU?$pair@$$CBKP8CDPTrans@@AEXAAVCAr@@KKKPAEK@Z@2@XZ
_TEXT	SEGMENT PARA USE32 PUBLIC 'CODE'
_TEXT	ENDS
;	COMDAT ??Hiterator@?$vector@U?$pair@PAVCDbController@@K@std@@V?$allocator@U?$pair@PAVCDbController@@K@std@@@2@@std@@QBE?AV012@H@Z
_TEXT	SEGMENT PARA USE32 PUBLIC 'CODE'
_TEXT	ENDS
;	COMDAT ??Giterator@?$vector@U?$pair@PAVCDbController@@K@std@@V?$allocator@U?$pair@PAVCDbController@@K@std@@@2@@std@@QBEHABVconst_iterator@12@@Z
_TEXT	SEGMENT PARA USE32 PUBLIC 'CODE'
_TEXT	ENDS
;	COMDAT ??0const_iterator@?$vector@U?$pair@PAVCDbController@@K@std@@V?$allocator@U?$pair@PAVCDbController@@K@std@@@2@@std@@QAE@PAU?$pair@PAVCDbController@@K@2@@Z
_TEXT	SEGMENT PARA USE32 PUBLIC 'CODE'
_TEXT	ENDS
;	COMDAT ?max_size@?$allocator@H@std@@QBEIXZ
_TEXT	SEGMENT PARA USE32 PUBLIC 'CODE'
_TEXT	ENDS
;	COMDAT ?max_size@?$allocator@U?$pair@PAVCDbController@@K@std@@@std@@QBEIXZ
_TEXT	SEGMENT PARA USE32 PUBLIC 'CODE'
_TEXT	ENDS
;	COMDAT ?max_size@?$allocator@M@std@@QBEIXZ
_TEXT	SEGMENT PARA USE32 PUBLIC 'CODE'
_TEXT	ENDS
;	COMDAT ?_Isnil@?$_Tree@V?$_Tmap_traits@KP8CDPTrans@@AEXAAVCAr@@KKKPAEK@ZU?$less@K@std@@V?$allocator@U?$pair@$$CBKP8CDPTrans@@AEXAAVCAr@@KKKPAEK@Z@std@@@4@$0A@@std@@@std@@KAAADPAU_Node@?$_Tree_nod@V?$_Tmap_traits@KP8CDPTrans@@AEXAAVCAr@@KKKPAEK@ZU?$less@K@std@@V?$allocator@U?$pair@$$CBKP8CDPTrans@@AEXAAVCAr@@KKKPAEK@Z@std@@@4@$0A@@std@@@2@@Z
_TEXT	SEGMENT PARA USE32 PUBLIC 'CODE'
_TEXT	ENDS
;	COMDAT ?_Left@?$_Tree@V?$_Tmap_traits@KP8CDPTrans@@AEXAAVCAr@@KKKPAEK@ZU?$less@K@std@@V?$allocator@U?$pair@$$CBKP8CDPTrans@@AEXAAVCAr@@KKKPAEK@Z@std@@@4@$0A@@std@@@std@@KAAAPAU_Node@?$_Tree_nod@V?$_Tmap_traits@KP8CDPTrans@@AEXAAVCAr@@KKKPAEK@ZU?$less@K@std@@V?$allocator@U?$pair@$$CBKP8CDPTrans@@AEXAAVCAr@@KKKPAEK@Z@std@@@4@$0A@@std@@@2@PAU342@@Z
_TEXT	SEGMENT PARA USE32 PUBLIC 'CODE'
_TEXT	ENDS
;	COMDAT ?_Right@?$_Tree@V?$_Tmap_traits@KP8CDPTrans@@AEXAAVCAr@@KKKPAEK@ZU?$less@K@std@@V?$allocator@U?$pair@$$CBKP8CDPTrans@@AEXAAVCAr@@KKKPAEK@Z@std@@@4@$0A@@std@@@std@@KAAAPAU_Node@?$_Tree_nod@V?$_Tmap_traits@KP8CDPTrans@@AEXAAVCAr@@KKKPAEK@ZU?$less@K@std@@V?$allocator@U?$pair@$$CBKP8CDPTrans@@AEXAAVCAr@@KKKPAEK@Z@std@@@4@$0A@@std@@@2@PAU342@@Z
_TEXT	SEGMENT PARA USE32 PUBLIC 'CODE'
_TEXT	ENDS
;	COMDAT ?_Root@?$_Tree@V?$_Tmap_traits@KP8CDPTrans@@AEXAAVCAr@@KKKPAEK@ZU?$less@K@std@@V?$allocator@U?$pair@$$CBKP8CDPTrans@@AEXAAVCAr@@KKKPAEK@Z@std@@@4@$0A@@std@@@std@@IBEAAPAU_Node@?$_Tree_nod@V?$_Tmap_traits@KP8CDPTrans@@AEXAAVCAr@@KKKPAEK@ZU?$less@K@std@@V?$allocator@U?$pair@$$CBKP8CDPTrans@@AEXAAVCAr@@KKKPAEK@Z@std@@@4@$0A@@std@@@2@XZ
_TEXT	SEGMENT PARA USE32 PUBLIC 'CODE'
_TEXT	ENDS
;	COMDAT ??Yiterator@?$vector@U?$pair@PAVCDbController@@K@std@@V?$allocator@U?$pair@PAVCDbController@@K@std@@@2@@std@@QAEAAV012@H@Z
_TEXT	SEGMENT PARA USE32 PUBLIC 'CODE'
_TEXT	ENDS
;	COMDAT ??Gconst_iterator@?$vector@U?$pair@PAVCDbController@@K@std@@V?$allocator@U?$pair@PAVCDbController@@K@std@@@2@@std@@QBEHABV012@@Z
_TEXT	SEGMENT PARA USE32 PUBLIC 'CODE'
_TEXT	ENDS
;	COMDAT ?_Parent@?$_Tree@V?$_Tmap_traits@KP8CDPTrans@@AEXAAVCAr@@KKKPAEK@ZU?$less@K@std@@V?$allocator@U?$pair@$$CBKP8CDPTrans@@AEXAAVCAr@@KKKPAEK@Z@std@@@4@$0A@@std@@@std@@KAAAPAU_Node@?$_Tree_nod@V?$_Tmap_traits@KP8CDPTrans@@AEXAAVCAr@@KKKPAEK@ZU?$less@K@std@@V?$allocator@U?$pair@$$CBKP8CDPTrans@@AEXAAVCAr@@KKKPAEK@Z@std@@@4@$0A@@std@@@2@PAU342@@Z
_TEXT	SEGMENT PARA USE32 PUBLIC 'CODE'
_TEXT	ENDS
;	COMDAT ??$_Iter_cat@Viterator@?$_Tree@V?$_Tmap_traits@KU_Friend@@U?$less@K@std@@V?$allocator@U?$pair@$$CBKU_Friend@@@std@@@3@$0A@@std@@@std@@@std@@YA?AUbidirectional_iterator_tag@0@ABViterator@?$_Tree@V?$_Tmap_traits@KU_Friend@@U?$less@K@std@@V?$allocator@U?$pair@$$CBKU_Friend@@@std@@@3@$0A@@std@@@0@@Z
_TEXT	SEGMENT PARA USE32 PUBLIC 'CODE'
_TEXT	ENDS
;	COMDAT ??$_Distance2@Viterator@?$_Tree@V?$_Tmap_traits@KU_Friend@@U?$less@K@std@@V?$allocator@U?$pair@$$CBKU_Friend@@@std@@@3@$0A@@std@@@std@@I@std@@YAXViterator@?$_Tree@V?$_Tmap_traits@KU_Friend@@U?$less@K@std@@V?$allocator@U?$pair@$$CBKU_Friend@@@std@@@3@$0A@@std@@@0@0AAIUbidirectional_iterator_tag@0@@Z
_TEXT	SEGMENT PARA USE32 PUBLIC 'CODE'
_TEXT	ENDS
;	COMDAT ??$_Copy_opt@PAJPAJ@std@@YAPAJPAJ00U_Scalar_ptr_iterator_tag@0@@Z
_TEXT	SEGMENT PARA USE32 PUBLIC 'CODE'
_TEXT	ENDS
;	COMDAT ??$_Uninitialized_copy@PAJPAJV?$allocator@J@std@@@std@@YAPAJPAJ00AAV?$allocator@J@0@@Z
_TEXT	SEGMENT PARA USE32 PUBLIC 'CODE'
_TEXT	ENDS
;	COMDAT ??$_Copy_backward_opt@PAJPAJ@std@@YAPAJPAJ00U_Scalar_ptr_iterator_tag@0@@Z
_TEXT	SEGMENT PARA USE32 PUBLIC 'CODE'
_TEXT	ENDS
;	COMDAT ??$_Ptr_cat@PAUtagDROPITEM@@PAU1@@std@@YA?AU_Nonscalar_ptr_iterator_tag@0@AAPAUtagDROPITEM@@0@Z
_TEXT	SEGMENT PARA USE32 PUBLIC 'CODE'
_TEXT	ENDS
;	COMDAT ??$_Destroy_range@UtagDROPITEM@@V?$allocator@UtagDROPITEM@@@std@@@std@@YAXPAUtagDROPITEM@@0AAV?$allocator@UtagDROPITEM@@@0@U_Nonscalar_ptr_iterator_tag@0@@Z
_TEXT	SEGMENT PARA USE32 PUBLIC 'CODE'
_TEXT	ENDS
;	COMDAT ??$_Destroy_range@KV?$allocator@K@std@@@std@@YAXPAK0AAV?$allocator@K@0@U_Scalar_ptr_iterator_tag@0@@Z
_TEXT	SEGMENT PARA USE32 PUBLIC 'CODE'
_TEXT	ENDS
;	COMDAT ??$_Destroy_range@JV?$allocator@J@std@@@std@@YAXPAJ0AAV?$allocator@J@0@U_Scalar_ptr_iterator_tag@0@@Z
_TEXT	SEGMENT PARA USE32 PUBLIC 'CODE'
_TEXT	ENDS
;	COMDAT ??$_Uninit_fill_n@JIJ@std@@YAXPAJIABJAAV?$allocator@J@0@U_Scalar_ptr_iterator_tag@0@@Z
_TEXT	SEGMENT PARA USE32 PUBLIC 'CODE'
_TEXT	ENDS
;	COMDAT ??$throw_exception@Vbad_weak_ptr@boost@@@boost@@YAXABVbad_weak_ptr@0@@Z
_TEXT	SEGMENT PARA USE32 PUBLIC 'CODE'
_TEXT	ENDS
;	COMDAT ??$make_pair@PAVCDbController@@K@std@@YA?AU?$pair@PAVCDbController@@K@0@PAVCDbController@@K@Z
_TEXT	SEGMENT PARA USE32 PUBLIC 'CODE'
_TEXT	ENDS
;	COMDAT ??$_Uninitialized_fill_n@PAU?$pair@PAVCDbController@@K@std@@IU12@V?$allocator@U?$pair@PAVCDbController@@K@std@@@2@@std@@YAXPAU?$pair@PAVCDbController@@K@0@IABU10@AAV?$allocator@U?$pair@PAVCDbController@@K@std@@@0@@Z
_TEXT	SEGMENT PARA USE32 PUBLIC 'CODE'
_TEXT	ENDS
;	COMDAT ??$_Allocate@H@std@@YAPAHIPAH@Z
_TEXT	SEGMENT PARA USE32 PUBLIC 'CODE'
_TEXT	ENDS
;	COMDAT ??$_Destroy_range@U?$pair@PAVCDbController@@K@std@@V?$allocator@U?$pair@PAVCDbController@@K@std@@@2@@std@@YAXPAU?$pair@PAVCDbController@@K@0@0AAV?$allocator@U?$pair@PAVCDbController@@K@std@@@0@@Z
_TEXT	SEGMENT PARA USE32 PUBLIC 'CODE'
_TEXT	ENDS
;	COMDAT ??$_Ucopy@PAU?$pair@PAVCDbController@@K@std@@@?$vector@U?$pair@PAVCDbController@@K@std@@V?$allocator@U?$pair@PAVCDbController@@K@std@@@2@@std@@IAEPAU?$pair@PAVCDbController@@K@1@PAU21@00@Z
_TEXT	SEGMENT PARA USE32 PUBLIC 'CODE'
_TEXT	ENDS
;	COMDAT ??$fill@PAU?$pair@PAVCDbController@@K@std@@U12@@std@@YAXPAU?$pair@PAVCDbController@@K@0@0ABU10@@Z
_TEXT	SEGMENT PARA USE32 PUBLIC 'CODE'
_TEXT	ENDS
;	COMDAT ??$copy_backward@PAU?$pair@PAVCDbController@@K@std@@PAU12@@std@@YAPAU?$pair@PAVCDbController@@K@0@PAU10@00@Z
_TEXT	SEGMENT PARA USE32 PUBLIC 'CODE'
_TEXT	ENDS
;	COMDAT ??$_Allocate@U?$pair@PAVCDbController@@K@std@@@std@@YAPAU?$pair@PAVCDbController@@K@0@IPAU10@@Z
_TEXT	SEGMENT PARA USE32 PUBLIC 'CODE'
_TEXT	ENDS
;	COMDAT ??$_Destroy_range@MV?$allocator@M@std@@@std@@YAXPAM0AAV?$allocator@M@0@@Z
_TEXT	SEGMENT PARA USE32 PUBLIC 'CODE'
_TEXT	ENDS
;	COMDAT ??$_Allocate@M@std@@YAPAMIPAM@Z
_TEXT	SEGMENT PARA USE32 PUBLIC 'CODE'
_TEXT	ENDS
;	COMDAT ??$_Destroy_range@HV?$allocator@H@std@@@std@@YAXPAH0AAV?$allocator@H@0@@Z
_TEXT	SEGMENT PARA USE32 PUBLIC 'CODE'
_TEXT	ENDS
;	COMDAT ??0bad_weak_ptr@boost@@QAE@ABV01@@Z
_TEXT	SEGMENT PARA USE32 PUBLIC 'CODE'
_TEXT	ENDS
;	COMDAT ?destroy@?$allocator@UtagDROPITEM@@@std@@QAEXPAUtagDROPITEM@@@Z
_TEXT	SEGMENT PARA USE32 PUBLIC 'CODE'
_TEXT	ENDS
;	COMDAT ??0?$pair@PAVCDbController@@K@std@@QAE@ABQAVCDbController@@ABK@Z
_TEXT	SEGMENT PARA USE32 PUBLIC 'CODE'
_TEXT	ENDS
;	COMDAT ??$_Uninit_copy@JJ@std@@YAPAJPAJ00AAV?$allocator@J@0@U_Scalar_ptr_iterator_tag@0@@Z
_TEXT	SEGMENT PARA USE32 PUBLIC 'CODE'
_TEXT	ENDS
;	COMDAT ??$fill_n@PAJIJ@std@@YAXPAJIABJ@Z
_TEXT	SEGMENT PARA USE32 PUBLIC 'CODE'
_TEXT	ENDS
;	COMDAT ??$_Ptr_cat@PAU?$pair@PAVCDbController@@K@std@@PAU12@@std@@YA?AU_Nonscalar_ptr_iterator_tag@0@AAPAU?$pair@PAVCDbController@@K@0@0@Z
_TEXT	SEGMENT PARA USE32 PUBLIC 'CODE'
_TEXT	ENDS
;	COMDAT ??$_Uninit_fill_n@PAU?$pair@PAVCDbController@@K@std@@IU12@V?$allocator@U?$pair@PAVCDbController@@K@std@@@2@@std@@YAXPAU?$pair@PAVCDbController@@K@0@IABU10@AAV?$allocator@U?$pair@PAVCDbController@@K@std@@@0@U_Nonscalar_ptr_iterator_tag@0@@Z
_TEXT	SEGMENT PARA USE32 PUBLIC 'CODE'
_TEXT	ENDS
;	COMDAT ??$_Destroy_range@U?$pair@PAVCDbController@@K@std@@V?$allocator@U?$pair@PAVCDbController@@K@std@@@2@@std@@YAXPAU?$pair@PAVCDbController@@K@0@0AAV?$allocator@U?$pair@PAVCDbController@@K@std@@@0@U_Nonscalar_ptr_iterator_tag@0@@Z
_TEXT	SEGMENT PARA USE32 PUBLIC 'CODE'
_TEXT	ENDS
;	COMDAT ??$_Uninitialized_copy@PAU?$pair@PAVCDbController@@K@std@@PAU12@V?$allocator@U?$pair@PAVCDbController@@K@std@@@2@@std@@YAPAU?$pair@PAVCDbController@@K@0@PAU10@00AAV?$allocator@U?$pair@PAVCDbController@@K@std@@@0@@Z
_TEXT	SEGMENT PARA USE32 PUBLIC 'CODE'
_TEXT	ENDS
;	COMDAT ??$_Copy_backward_opt@PAU?$pair@PAVCDbController@@K@std@@PAU12@@std@@YAPAU?$pair@PAVCDbController@@K@0@PAU10@00U_Nonscalar_ptr_iterator_tag@0@@Z
_TEXT	SEGMENT PARA USE32 PUBLIC 'CODE'
_TEXT	ENDS
;	COMDAT ??$_Destroy_range@MV?$allocator@M@std@@@std@@YAXPAM0AAV?$allocator@M@0@U_Scalar_ptr_iterator_tag@0@@Z
_TEXT	SEGMENT PARA USE32 PUBLIC 'CODE'
_TEXT	ENDS
;	COMDAT ??$_Destroy_range@HV?$allocator@H@std@@@std@@YAXPAH0AAV?$allocator@H@0@U_Scalar_ptr_iterator_tag@0@@Z
_TEXT	SEGMENT PARA USE32 PUBLIC 'CODE'
_TEXT	ENDS
;	COMDAT ??$_Destroy@UtagDROPITEM@@@std@@YAXPAUtagDROPITEM@@@Z
_TEXT	SEGMENT PARA USE32 PUBLIC 'CODE'
_TEXT	ENDS
;	COMDAT ?construct@?$allocator@U?$pair@PAVCDbController@@K@std@@@std@@QAEXPAU?$pair@PAVCDbController@@K@2@ABU32@@Z
_TEXT	SEGMENT PARA USE32 PUBLIC 'CODE'
_TEXT	ENDS
;	COMDAT ?destroy@?$allocator@U?$pair@PAVCDbController@@K@std@@@std@@QAEXPAU?$pair@PAVCDbController@@K@2@@Z
_TEXT	SEGMENT PARA USE32 PUBLIC 'CODE'
_TEXT	ENDS
;	COMDAT ??$_Uninit_copy@PAU?$pair@PAVCDbController@@K@std@@PAU12@V?$allocator@U?$pair@PAVCDbController@@K@std@@@2@@std@@YAPAU?$pair@PAVCDbController@@K@0@PAU10@00AAV?$allocator@U?$pair@PAVCDbController@@K@std@@@0@U_Nonscalar_ptr_iterator_tag@0@@Z
_TEXT	SEGMENT PARA USE32 PUBLIC 'CODE'
_TEXT	ENDS
;	COMDAT ??$_Construct@U?$pair@PAVCDbController@@K@std@@U12@@std@@YAXPAU?$pair@PAVCDbController@@K@0@ABU10@@Z
_TEXT	SEGMENT PARA USE32 PUBLIC 'CODE'
_TEXT	ENDS
;	COMDAT ??$_Destroy@U?$pair@PAVCDbController@@K@std@@@std@@YAXPAU?$pair@PAVCDbController@@K@0@@Z
_TEXT	SEGMENT PARA USE32 PUBLIC 'CODE'
_TEXT	ENDS
;	COMDAT ??2@YAPAXIPAX@Z
_TEXT	SEGMENT PARA USE32 PUBLIC 'CODE'
_TEXT	ENDS
;	COMDAT ?_Ptr_cat@std@@YA?AU_Scalar_ptr_iterator_tag@1@PAH0@Z
_TEXT	SEGMENT PARA USE32 PUBLIC 'CODE'
_TEXT	ENDS
;	COMDAT ?_Ptr_cat@std@@YA?AU_Scalar_ptr_iterator_tag@1@PAM0@Z
_TEXT	SEGMENT PARA USE32 PUBLIC 'CODE'
_TEXT	ENDS
;	COMDAT __CTA2?AVbad_weak_ptr@boost@@
xdata$x	SEGMENT DWORD USE32 PUBLIC 'CONST'
xdata$x	ENDS
;	COMDAT __CT??_R0?AVexception@@@8??0exception@@QAE@ABV0@@Z12
xdata$x	SEGMENT DWORD USE32 PUBLIC 'CONST'
xdata$x	ENDS
;	COMDAT ??_R0?AVexception@@@8
_DATA	SEGMENT DWORD USE32 PUBLIC 'DATA'
_DATA	ENDS
;	COMDAT __CT??_R0?AVbad_weak_ptr@boost@@@8??0bad_weak_ptr@boost@@QAE@ABV01@@Z12
xdata$x	SEGMENT DWORD USE32 PUBLIC 'CONST'
xdata$x	ENDS
;	COMDAT ??_R0?AVbad_weak_ptr@boost@@@8
_DATA	SEGMENT DWORD USE32 PUBLIC 'DATA'
_DATA	ENDS
;	COMDAT __TI2?AVbad_weak_ptr@boost@@
xdata$x	SEGMENT DWORD USE32 PUBLIC 'CONST'
xdata$x	ENDS
;	COMDAT ?_Ptr_cat@std@@YA?AU_Scalar_ptr_iterator_tag@1@PAJ0@Z
_TEXT	SEGMENT PARA USE32 PUBLIC 'CODE'
_TEXT	ENDS
;	COMDAT ??9const_iterator@?$_Tree@V?$_Tmap_traits@KU_Friend@@U?$less@K@std@@V?$allocator@U?$pair@$$CBKU_Friend@@@std@@@3@$0A@@std@@@std@@QBE_NABV012@@Z
_TEXT	SEGMENT PARA USE32 PUBLIC 'CODE'
_TEXT	ENDS
;	COMDAT ??8const_iterator@?$_Tree@V?$_Tmap_traits@KU_Friend@@U?$less@K@std@@V?$allocator@U?$pair@$$CBKU_Friend@@@std@@@3@$0A@@std@@@std@@QBE_NABV012@@Z
_TEXT	SEGMENT PARA USE32 PUBLIC 'CODE'
_TEXT	ENDS
;	COMDAT ??Eiterator@?$_Tree@V?$_Tmap_traits@KU_Friend@@U?$less@K@std@@V?$allocator@U?$pair@$$CBKU_Friend@@@std@@@3@$0A@@std@@@std@@QAEAAV012@XZ
_TEXT	SEGMENT PARA USE32 PUBLIC 'CODE'
_TEXT	ENDS
;	COMDAT ??Econst_iterator@?$_Tree@V?$_Tmap_traits@KU_Friend@@U?$less@K@std@@V?$allocator@U?$pair@$$CBKU_Friend@@@std@@@3@$0A@@std@@@std@@QAEAAV012@XZ
_TEXT	SEGMENT PARA USE32 PUBLIC 'CODE'
_TEXT	ENDS
;	COMDAT ?_Inc@const_iterator@?$_Tree@V?$_Tmap_traits@KU_Friend@@U?$less@K@std@@V?$allocator@U?$pair@$$CBKU_Friend@@@std@@@3@$0A@@std@@@std@@QAEXXZ
_TEXT	SEGMENT PARA USE32 PUBLIC 'CODE'
_TEXT	ENDS
;	COMDAT ?_Min@?$_Tree@V?$_Tmap_traits@KU_Friend@@U?$less@K@std@@V?$allocator@U?$pair@$$CBKU_Friend@@@std@@@3@$0A@@std@@@std@@KAPAU_Node@?$_Tree_nod@V?$_Tmap_traits@KU_Friend@@U?$less@K@std@@V?$allocator@U?$pair@$$CBKU_Friend@@@std@@@3@$0A@@std@@@2@PAU342@@Z
_TEXT	SEGMENT PARA USE32 PUBLIC 'CODE'
_TEXT	ENDS
;	COMDAT ?_Left@?$_Tree@V?$_Tmap_traits@KU_Friend@@U?$less@K@std@@V?$allocator@U?$pair@$$CBKU_Friend@@@std@@@3@$0A@@std@@@std@@KAAAPAU_Node@?$_Tree_nod@V?$_Tmap_traits@KU_Friend@@U?$less@K@std@@V?$allocator@U?$pair@$$CBKU_Friend@@@std@@@3@$0A@@std@@@2@PAU342@@Z
_TEXT	SEGMENT PARA USE32 PUBLIC 'CODE'
_TEXT	ENDS
;	COMDAT ?_Isnil@?$_Tree@V?$_Tmap_traits@KU_Friend@@U?$less@K@std@@V?$allocator@U?$pair@$$CBKU_Friend@@@std@@@3@$0A@@std@@@std@@KAAADPAU_Node@?$_Tree_nod@V?$_Tmap_traits@KU_Friend@@U?$less@K@std@@V?$allocator@U?$pair@$$CBKU_Friend@@@std@@@3@$0A@@std@@@2@@Z
_TEXT	SEGMENT PARA USE32 PUBLIC 'CODE'
_TEXT	ENDS
;	COMDAT ?_Parent@?$_Tree@V?$_Tmap_traits@KU_Friend@@U?$less@K@std@@V?$allocator@U?$pair@$$CBKU_Friend@@@std@@@3@$0A@@std@@@std@@KAAAPAU_Node@?$_Tree_nod@V?$_Tmap_traits@KU_Friend@@U?$less@K@std@@V?$allocator@U?$pair@$$CBKU_Friend@@@std@@@3@$0A@@std@@@2@PAU342@@Z
_TEXT	SEGMENT PARA USE32 PUBLIC 'CODE'
_TEXT	ENDS
;	COMDAT ?_Right@?$_Tree@V?$_Tmap_traits@KU_Friend@@U?$less@K@std@@V?$allocator@U?$pair@$$CBKU_Friend@@@std@@@3@$0A@@std@@@std@@KAAAPAU_Node@?$_Tree_nod@V?$_Tmap_traits@KU_Friend@@U?$less@K@std@@V?$allocator@U?$pair@$$CBKU_Friend@@@std@@@3@$0A@@std@@@2@PAU342@@Z
_TEXT	SEGMENT PARA USE32 PUBLIC 'CODE'
_TEXT	ENDS
;	COMDAT ?_Psave@?$_Facetptr@V?$ctype@G@std@@@std@@2PBVfacet@locale@2@B
_DATA	SEGMENT DWORD USE32 PUBLIC 'DATA'
_DATA	ENDS
;	COMDAT ?_Psave@?$_Facetptr@V?$ctype@D@std@@@std@@2PBVfacet@locale@2@B
_DATA	SEGMENT DWORD USE32 PUBLIC 'DATA'
_DATA	ENDS
;	COMDAT __TI3?AVlength_error@std@@
xdata$x	SEGMENT DWORD USE32 PUBLIC 'CONST'
xdata$x	ENDS
;	COMDAT ??1length_error@std@@UAE@XZ
_TEXT	SEGMENT PARA USE32 PUBLIC 'CODE'
_TEXT	ENDS
;	COMDAT ??_7length_error@std@@6B@
CONST	SEGMENT DWORD USE32 PUBLIC 'CONST'
CONST	ENDS
;	COMDAT ??_Glength_error@std@@UAEPAXI@Z
_TEXT	SEGMENT PARA USE32 PUBLIC 'CODE'
_TEXT	ENDS
;	COMDAT ?what@logic_error@std@@UBEPBDXZ
_TEXT	SEGMENT PARA USE32 PUBLIC 'CODE'
_TEXT	ENDS
;	COMDAT ?c_str@?$basic_string@DU?$char_traits@D@std@@V?$allocator@D@2@@std@@QBEPBDXZ
_TEXT	SEGMENT PARA USE32 PUBLIC 'CODE'
_TEXT	ENDS
;	COMDAT ??1logic_error@std@@UAE@XZ
_TEXT	SEGMENT PARA USE32 PUBLIC 'CODE'
_TEXT	ENDS
;	COMDAT ??_7logic_error@std@@6B@
CONST	SEGMENT DWORD USE32 PUBLIC 'CONST'
CONST	ENDS
;	COMDAT ??_Glogic_error@std@@UAEPAXI@Z
_TEXT	SEGMENT PARA USE32 PUBLIC 'CODE'
_TEXT	ENDS
;	COMDAT __CTA3?AVlength_error@std@@
xdata$x	SEGMENT DWORD USE32 PUBLIC 'CONST'
xdata$x	ENDS
;	COMDAT __CT??_R0?AVlength_error@std@@@8??0length_error@std@@QAE@ABV01@@Z40
xdata$x	SEGMENT DWORD USE32 PUBLIC 'CONST'
xdata$x	ENDS
;	COMDAT ??_R0?AVlength_error@std@@@8
_DATA	SEGMENT DWORD USE32 PUBLIC 'DATA'
_DATA	ENDS
;	COMDAT ??0length_error@std@@QAE@ABV01@@Z
_TEXT	SEGMENT PARA USE32 PUBLIC 'CODE'
_TEXT	ENDS
;	COMDAT ??0logic_error@std@@QAE@ABV01@@Z
_TEXT	SEGMENT PARA USE32 PUBLIC 'CODE'
_TEXT	ENDS
;	COMDAT ??0?$basic_string@DU?$char_traits@D@std@@V?$allocator@D@2@@std@@QAE@ABV01@@Z
_TEXT	SEGMENT PARA USE32 PUBLIC 'CODE'
_TEXT	ENDS
;	COMDAT ??0?$_String_val@DV?$allocator@D@std@@@std@@IAE@V?$allocator@D@1@@Z
_TEXT	SEGMENT PARA USE32 PUBLIC 'CODE'
_TEXT	ENDS
;	COMDAT ??0?$allocator@D@std@@QAE@ABV01@@Z
_TEXT	SEGMENT PARA USE32 PUBLIC 'CODE'
_TEXT	ENDS
;	COMDAT ?_Tidy@?$basic_string@DU?$char_traits@D@std@@V?$allocator@D@2@@std@@IAEX_NI@Z
_TEXT	SEGMENT PARA USE32 PUBLIC 'CODE'
_TEXT	ENDS
;	COMDAT ?copy@?$char_traits@D@std@@SAPADPADPBDI@Z
_TEXT	SEGMENT PARA USE32 PUBLIC 'CODE'
_TEXT	ENDS
;	COMDAT ?deallocate@?$allocator@D@std@@QAEXPADI@Z
_TEXT	SEGMENT PARA USE32 PUBLIC 'CODE'
_TEXT	ENDS
;	COMDAT ?_Eos@?$basic_string@DU?$char_traits@D@std@@V?$allocator@D@2@@std@@IAEXI@Z
_TEXT	SEGMENT PARA USE32 PUBLIC 'CODE'
_TEXT	ENDS
;	COMDAT ?assign@?$char_traits@D@std@@SAXAADABD@Z
_TEXT	SEGMENT PARA USE32 PUBLIC 'CODE'
_TEXT	ENDS
;	COMDAT ?_Myptr@?$basic_string@DU?$char_traits@D@std@@V?$allocator@D@2@@std@@QAEPADXZ
_TEXT	SEGMENT PARA USE32 PUBLIC 'CODE'
_TEXT	ENDS
;	COMDAT ?assign@?$basic_string@DU?$char_traits@D@std@@V?$allocator@D@2@@std@@QAEAAV12@ABV12@II@Z
_TEXT	SEGMENT PARA USE32 PUBLIC 'CODE'
_TEXT	ENDS
;	COMDAT ?erase@?$basic_string@DU?$char_traits@D@std@@V?$allocator@D@2@@std@@QAEAAV12@II@Z
_TEXT	SEGMENT PARA USE32 PUBLIC 'CODE'
_TEXT	ENDS
;	COMDAT ?move@?$char_traits@D@std@@SAPADPADPBDI@Z
_TEXT	SEGMENT PARA USE32 PUBLIC 'CODE'
_TEXT	ENDS
;	COMDAT ?_Grow@?$basic_string@DU?$char_traits@D@std@@V?$allocator@D@2@@std@@IAE_NI_N@Z
_TEXT	SEGMENT PARA USE32 PUBLIC 'CODE'
_TEXT	ENDS
;	COMDAT ?max_size@?$basic_string@DU?$char_traits@D@std@@V?$allocator@D@2@@std@@QBEIXZ
_TEXT	SEGMENT PARA USE32 PUBLIC 'CODE'
_TEXT	ENDS
;	COMDAT ?max_size@?$allocator@D@std@@QBEIXZ
_TEXT	SEGMENT PARA USE32 PUBLIC 'CODE'
_TEXT	ENDS
;	COMDAT ?_Copy@?$basic_string@DU?$char_traits@D@std@@V?$allocator@D@2@@std@@IAEXII@Z
_TEXT	SEGMENT PARA USE32 PUBLIC 'CODE'
_TEXT	ENDS
;	COMDAT ?allocate@?$allocator@D@std@@QAEPADI@Z
_TEXT	SEGMENT PARA USE32 PUBLIC 'CODE'
_TEXT	ENDS
;	COMDAT ??$_Allocate@D@std@@YAPADIPAD@Z
_TEXT	SEGMENT PARA USE32 PUBLIC 'CODE'
_TEXT	ENDS
;	COMDAT ?npos@?$basic_string@DU?$char_traits@D@std@@V?$allocator@D@2@@std@@2IB
CONST	SEGMENT DWORD USE32 PUBLIC 'CONST'
CONST	ENDS
;	COMDAT __CT??_R0?AVlogic_error@std@@@8??0logic_error@std@@QAE@ABV01@@Z40
xdata$x	SEGMENT DWORD USE32 PUBLIC 'CONST'
xdata$x	ENDS
;	COMDAT ??_R0?AVlogic_error@std@@@8
_DATA	SEGMENT DWORD USE32 PUBLIC 'DATA'
_DATA	ENDS
;	COMDAT ??1?$basic_string@DU?$char_traits@D@std@@V?$allocator@D@2@@std@@QAE@XZ
_TEXT	SEGMENT PARA USE32 PUBLIC 'CODE'
_TEXT	ENDS
;	COMDAT ??_C@_0BD@OLBABOEK@vector?$DMT?$DO?5too?5long?$AA@
CONST	SEGMENT DWORD USE32 PUBLIC 'CONST'
CONST	ENDS
;	COMDAT ??0?$basic_string@DU?$char_traits@D@std@@V?$allocator@D@2@@std@@QAE@PBD@Z
_TEXT	SEGMENT PARA USE32 PUBLIC 'CODE'
_TEXT	ENDS
;	COMDAT ??0?$allocator@D@std@@QAE@XZ
_TEXT	SEGMENT PARA USE32 PUBLIC 'CODE'
_TEXT	ENDS
;	COMDAT ?assign@?$basic_string@DU?$char_traits@D@std@@V?$allocator@D@2@@std@@QAEAAV12@PBD@Z
_TEXT	SEGMENT PARA USE32 PUBLIC 'CODE'
_TEXT	ENDS
;	COMDAT ?assign@?$basic_string@DU?$char_traits@D@std@@V?$allocator@D@2@@std@@QAEAAV12@PBDI@Z
_TEXT	SEGMENT PARA USE32 PUBLIC 'CODE'
_TEXT	ENDS
;	COMDAT ?_Inside@?$basic_string@DU?$char_traits@D@std@@V?$allocator@D@2@@std@@IAE_NPBD@Z
_TEXT	SEGMENT PARA USE32 PUBLIC 'CODE'
_TEXT	ENDS
;	COMDAT ?length@?$char_traits@D@std@@SAIPBD@Z
_TEXT	SEGMENT PARA USE32 PUBLIC 'CODE'
_TEXT	ENDS
;	COMDAT ??0length_error@std@@QAE@ABV?$basic_string@DU?$char_traits@D@std@@V?$allocator@D@2@@1@@Z
_TEXT	SEGMENT PARA USE32 PUBLIC 'CODE'
_TEXT	ENDS
;	COMDAT ??0logic_error@std@@QAE@ABV?$basic_string@DU?$char_traits@D@std@@V?$allocator@D@2@@1@@Z
_TEXT	SEGMENT PARA USE32 PUBLIC 'CODE'
_TEXT	ENDS
;	COMDAT ?compare@?$char_traits@D@std@@SAHPBD0I@Z
_TEXT	SEGMENT PARA USE32 PUBLIC 'CODE'
_TEXT	ENDS
;	COMDAT ??R?$less@K@std@@QBE_NABK0@Z
_TEXT	SEGMENT PARA USE32 PUBLIC 'CODE'
_TEXT	ENDS
;	COMDAT ?_Myptr@?$basic_string@DU?$char_traits@D@std@@V?$allocator@D@2@@std@@QBEPBDXZ
_TEXT	SEGMENT PARA USE32 PUBLIC 'CODE'
_TEXT	ENDS
;	COMDAT ?size@?$basic_string@DU?$char_traits@D@std@@V?$allocator@D@2@@std@@QBEIXZ
_TEXT	SEGMENT PARA USE32 PUBLIC 'CODE'
_TEXT	ENDS
;	COMDAT ?ReleaseBufferSetLength@?$CSimpleStringT@D$0A@@ATL@@QAEXH@Z
_TEXT	SEGMENT PARA USE32 PUBLIC 'CODE'
_TEXT	ENDS
;	COMDAT ?SetLength@?$CSimpleStringT@D$0A@@ATL@@AAEXH@Z
_TEXT	SEGMENT PARA USE32 PUBLIC 'CODE'
_TEXT	ENDS
;	COMDAT ?AtlThrow@ATL@@YGXJ@Z
_TEXT	SEGMENT PARA USE32 PUBLIC 'CODE'
_TEXT	ENDS
;	COMDAT ?GetData@?$CSimpleStringT@D$0A@@ATL@@ABEPAUCStringData@2@XZ
_TEXT	SEGMENT PARA USE32 PUBLIC 'CODE'
_TEXT	ENDS
;	COMDAT ?GetBuffer@?$CSimpleStringT@D$0A@@ATL@@QAEPADH@Z
_TEXT	SEGMENT PARA USE32 PUBLIC 'CODE'
_TEXT	ENDS
;	COMDAT ?PrepareWrite@?$CSimpleStringT@D$0A@@ATL@@AAEPADH@Z
_TEXT	SEGMENT PARA USE32 PUBLIC 'CODE'
_TEXT	ENDS
;	COMDAT ?PrepareWrite2@?$CSimpleStringT@D$0A@@ATL@@AAEXH@Z
_TEXT	SEGMENT PARA USE32 PUBLIC 'CODE'
_TEXT	ENDS
;	COMDAT ?IsShared@CStringData@ATL@@QBE_NXZ
_TEXT	SEGMENT PARA USE32 PUBLIC 'CODE'
_TEXT	ENDS
;	COMDAT ?Fork@?$CSimpleStringT@D$0A@@ATL@@AAEXH@Z
_TEXT	SEGMENT PARA USE32 PUBLIC 'CODE'
_TEXT	ENDS
;	COMDAT ?ThrowMemoryException@?$CSimpleStringT@D$0A@@ATL@@KAXXZ
_TEXT	SEGMENT PARA USE32 PUBLIC 'CODE'
_TEXT	ENDS
;	COMDAT ?CopyChars@?$CSimpleStringT@D$0A@@ATL@@SAXPADPBDH@Z
_TEXT	SEGMENT PARA USE32 PUBLIC 'CODE'
_TEXT	ENDS
;	COMDAT ?data@CStringData@ATL@@QAEPAXXZ
_TEXT	SEGMENT PARA USE32 PUBLIC 'CODE'
_TEXT	ENDS
;	COMDAT ?Release@CStringData@ATL@@QAEXXZ
_TEXT	SEGMENT PARA USE32 PUBLIC 'CODE'
_TEXT	ENDS
;	COMDAT ?Attach@?$CSimpleStringT@D$0A@@ATL@@AAEXPAUCStringData@2@@Z
_TEXT	SEGMENT PARA USE32 PUBLIC 'CODE'
_TEXT	ENDS
;	COMDAT ?Reallocate@?$CSimpleStringT@D$0A@@ATL@@AAEXH@Z
_TEXT	SEGMENT PARA USE32 PUBLIC 'CODE'
_TEXT	ENDS
;	COMDAT ?StringFindString@?$ChTraitsCRT@D@ATL@@SAPBDPBD0@Z
_TEXT	SEGMENT PARA USE32 PUBLIC 'CODE'
_TEXT	ENDS
;	COMDAT ?GetLength@?$CSimpleStringT@D$0A@@ATL@@QBEHXZ
_TEXT	SEGMENT PARA USE32 PUBLIC 'CODE'
_TEXT	ENDS
;	COMDAT ?GetString@?$CSimpleStringT@D$0A@@ATL@@QBEPBDXZ
_TEXT	SEGMENT PARA USE32 PUBLIC 'CODE'
_TEXT	ENDS
;	COMDAT ?Leave@CMclCritSec@@QAEXXZ
_TEXT	SEGMENT PARA USE32 PUBLIC 'CODE'
_TEXT	ENDS
;	COMDAT ?Enter@CMclCritSec@@QAEXXZ
_TEXT	SEGMENT PARA USE32 PUBLIC 'CODE'
_TEXT	ENDS
;	COMDAT ?sDbControllerTimer@?1??GetInstance@CDbControllerTimer@@SAPAV2@XZ@4V2@A
_BSS	SEGMENT DWORD USE32 PUBLIC 'BSS'
_BSS	ENDS
;	COMDAT ?$S1@?1??GetInstance@CDbControllerTimer@@SAPAV2@XZ@4IA
_BSS	SEGMENT DWORD USE32 PUBLIC 'BSS'
_BSS	ENDS
;	COMDAT ??1CMclAutoLock@@QAE@XZ
_TEXT	SEGMENT PARA USE32 PUBLIC 'CODE'
_TEXT	ENDS
;	COMDAT ??0CMclAutoLock@@QAE@AAVCMclCritSec@@@Z
_TEXT	SEGMENT PARA USE32 PUBLIC 'CODE'
_TEXT	ENDS
;	COMDAT ??1CMclCritSec@@UAE@XZ
_TEXT	SEGMENT PARA USE32 PUBLIC 'CODE'
_TEXT	ENDS
;	COMDAT ??_7CMclCritSec@@6B@
CONST	SEGMENT DWORD USE32 PUBLIC 'CONST'
CONST	ENDS
;	COMDAT ??_GCMclCritSec@@UAEPAXI@Z
_TEXT	SEGMENT PARA USE32 PUBLIC 'CODE'
_TEXT	ENDS
;	COMDAT ??0CMclCritSec@@QAE@XZ
_TEXT	SEGMENT PARA USE32 PUBLIC 'CODE'
_TEXT	ENDS
;	COMDAT ??_7CDbControllerTimer@@6B@
CONST	SEGMENT DWORD USE32 PUBLIC 'CONST'
CONST	ENDS
;	COMDAT ??0tagDB_OVERLAPPED_PLUS@@QAE@XZ
_TEXT	SEGMENT PARA USE32 PUBLIC 'CODE'
_TEXT	ENDS
;	COMDAT ??_7CDbController@@6B@
CONST	SEGMENT DWORD USE32 PUBLIC 'CONST'
CONST	ENDS
;	COMDAT ??4?$CStringT@DV?$StrTraitMFC@DV?$ChTraitsCRT@D@ATL@@@@@ATL@@QAEAAV01@PBD@Z
_TEXT	SEGMENT PARA USE32 PUBLIC 'CODE'
_TEXT	ENDS
;	COMDAT ??4?$CSimpleStringT@D$0A@@ATL@@QAEAAV01@PBD@Z
_TEXT	SEGMENT PARA USE32 PUBLIC 'CODE'
_TEXT	ENDS
;	COMDAT ?SetString@?$CSimpleStringT@D$0A@@ATL@@QAEXPBD@Z
_TEXT	SEGMENT PARA USE32 PUBLIC 'CODE'
_TEXT	ENDS
;	COMDAT ?SetString@?$CSimpleStringT@D$0A@@ATL@@QAEXPBDH@Z
_TEXT	SEGMENT PARA USE32 PUBLIC 'CODE'
_TEXT	ENDS
;	COMDAT ?Empty@?$CSimpleStringT@D$0A@@ATL@@QAEXXZ
_TEXT	SEGMENT PARA USE32 PUBLIC 'CODE'
_TEXT	ENDS
;	COMDAT ?IsLocked@CStringData@ATL@@QBE_NXZ
_TEXT	SEGMENT PARA USE32 PUBLIC 'CODE'
_TEXT	ENDS
;	COMDAT ?CopyCharsOverlapped@?$CSimpleStringT@D$0A@@ATL@@SAXPADPBDH@Z
_TEXT	SEGMENT PARA USE32 PUBLIC 'CODE'
_TEXT	ENDS
;	COMDAT ?StringLength@?$CSimpleStringT@D$0A@@ATL@@SAHPBD@Z
_TEXT	SEGMENT PARA USE32 PUBLIC 'CODE'
_TEXT	ENDS
;	COMDAT ??B?$CSimpleStringT@D$0A@@ATL@@QBEPBDXZ
_TEXT	SEGMENT PARA USE32 PUBLIC 'CODE'
_TEXT	ENDS
;	COMDAT ??5@YAAAVCAr@@AAV0@AAUD3DXVECTOR3@@@Z
_TEXT	SEGMENT PARA USE32 PUBLIC 'CODE'
_TEXT	ENDS
;	COMDAT ??5CAr@@QAEAAV0@AAM@Z
_TEXT	SEGMENT PARA USE32 PUBLIC 'CODE'
_TEXT	ENDS
;	COMDAT ??5CAr@@QAEAAV0@AAK@Z
_TEXT	SEGMENT PARA USE32 PUBLIC 'CODE'
_TEXT	ENDS
;	COMDAT ??5CAr@@QAEAAV0@AAJ@Z
_TEXT	SEGMENT PARA USE32 PUBLIC 'CODE'
_TEXT	ENDS
;	COMDAT ?time_null@@YAJXZ
_TEXT	SEGMENT PARA USE32 PUBLIC 'CODE'
_TEXT	ENDS
;	COMDAT ??6CAr@@QAEAAV0@K@Z
_TEXT	SEGMENT PARA USE32 PUBLIC 'CODE'
_TEXT	ENDS
;	COMDAT ??6CAr@@QAEAAV0@J@Z
_TEXT	SEGMENT PARA USE32 PUBLIC 'CODE'
_TEXT	ENDS
;	COMDAT ??6@YAAAVCAr@@AAV0@UD3DXVECTOR3@@@Z
_TEXT	SEGMENT PARA USE32 PUBLIC 'CODE'
_TEXT	ENDS
;	COMDAT ??6CAr@@QAEAAV0@M@Z
_TEXT	SEGMENT PARA USE32 PUBLIC 'CODE'
_TEXT	ENDS
;	COMDAT ?IsStoring@CAr@@QBEHXZ
_TEXT	SEGMENT PARA USE32 PUBLIC 'CODE'
_TEXT	ENDS
;	COMDAT ?GetTime@CTime@ATL@@QBE_JXZ
_TEXT	SEGMENT PARA USE32 PUBLIC 'CODE'
_TEXT	ENDS
;	COMDAT ??0CTimeSpan@ATL@@QAE@JHHH@Z
_TEXT	SEGMENT PARA USE32 PUBLIC 'CODE'
_TEXT	ENDS
;	COMDAT ?GetTickCount@CTime@ATL@@SG?AV12@XZ
_TEXT	SEGMENT PARA USE32 PUBLIC 'CODE'
_TEXT	ENDS
;	COMDAT ??0CTime@ATL@@QAE@_J@Z
_TEXT	SEGMENT PARA USE32 PUBLIC 'CODE'
_TEXT	ENDS
;	COMDAT ??HCTime@ATL@@QBE?AV01@VCTimeSpan@1@@Z
_TEXT	SEGMENT PARA USE32 PUBLIC 'CODE'
_TEXT	ENDS
;	COMDAT ?GetTimeSpan@CTimeSpan@ATL@@QBE_JXZ
_TEXT	SEGMENT PARA USE32 PUBLIC 'CODE'
_TEXT	ENDS
;	COMDAT ?GetItemProp@CProject@@QAEPAUItemProp@@H@Z
_TEXT	SEGMENT PARA USE32 PUBLIC 'CODE'
_TEXT	ENDS
;	COMDAT ?GetAt@?$CFixedArray@UItemProp@@@@QAEPAUItemProp@@K@Z
_TEXT	SEGMENT PARA USE32 PUBLIC 'CODE'
_TEXT	ENDS
;	COMDAT ??0D3DXVECTOR3@@QAE@MMM@Z
_TEXT	SEGMENT PARA USE32 PUBLIC 'CODE'
_TEXT	ENDS
;	COMDAT ??5CAr@@QAEAAV0@AAH@Z
_TEXT	SEGMENT PARA USE32 PUBLIC 'CODE'
_TEXT	ENDS
;	COMDAT ??6CAr@@QAEAAV0@H@Z
_TEXT	SEGMENT PARA USE32 PUBLIC 'CODE'
_TEXT	ENDS
;	COMDAT ??_7CLordSkillComponentExecutable@@6B@
CONST	SEGMENT DWORD USE32 PUBLIC 'CONST'
CONST	ENDS
;	COMDAT ??_7bad_weak_ptr@boost@@6B@
CONST	SEGMENT DWORD USE32 PUBLIC 'CONST'
CONST	ENDS
;	COMDAT ??_7sp_counted_base@detail@boost@@6B@
CONST	SEGMENT DWORD USE32 PUBLIC 'CONST'
CONST	ENDS
sxdata	SEGMENT DWORD USE32 'SXDATA'
sxdata	ENDS
FLAT	GROUP _DATA, CONST, _BSS
	ASSUME	CS: FLAT, DS: FLAT, SS: FLAT
endif

INCLUDELIB LIBCMT
INCLUDELIB OLDNAMES

PUBLIC	?SetQueryObject@CDbController@@QAEXPAVCQuery@@@Z ; CDbController::SetQueryObject
; Function compile flags: /Ogty
; File c:\documents and settings\test\mes documents\source\virtuos_v17\build\program\databaseserver\dbcontroller.h
;	COMDAT ?SetQueryObject@CDbController@@QAEXPAVCQuery@@@Z
_TEXT	SEGMENT
_pQuery$ = 8						; size = 4
?SetQueryObject@CDbController@@QAEXPAVCQuery@@@Z PROC NEAR ; CDbController::SetQueryObject, COMDAT
; _this$ = ecx

; 18   : 	void	SetQueryObject( CQuery* pQuery )	{	m_pQuery	= pQuery;	}

  00000	8b 44 24 04	 mov	 eax, DWORD PTR _pQuery$[esp-4]
  00004	89 41 0c	 mov	 DWORD PTR [ecx+12], eax
  00007	c2 04 00	 ret	 4
?SetQueryObject@CDbController@@QAEXPAVCQuery@@@Z ENDP	; CDbController::SetQueryObject
_TEXT	ENDS
PUBLIC	?GetTimer@CDbController@@QAEKXZ			; CDbController::GetTimer
; Function compile flags: /Ogty
;	COMDAT ?GetTimer@CDbController@@QAEKXZ
_TEXT	SEGMENT
?GetTimer@CDbController@@QAEKXZ PROC NEAR		; CDbController::GetTimer, COMDAT
; _this$ = ecx

; 27   : 	DWORD	GetTimer()	{	return m_dwTimer;	}

  00000	8b 41 10	 mov	 eax, DWORD PTR [ecx+16]
  00003	c3		 ret	 0
?GetTimer@CDbController@@QAEKXZ ENDP			; CDbController::GetTimer
_TEXT	ENDS
PUBLIC	??2@YAPAXIPAX@Z					; operator new
; Function compile flags: /Ogty
; File c:\program files\microsoft visual studio .net 2003\vc7\include\new.h
;	COMDAT ??2@YAPAXIPAX@Z
_TEXT	SEGMENT
___formal$ = 8						; size = 4
__P$ = 12						; size = 4
??2@YAPAXIPAX@Z PROC NEAR				; operator new, COMDAT

; 109  :         {return (_P); }

  00000	8b 44 24 08	 mov	 eax, DWORD PTR __P$[esp-4]
  00004	c3		 ret	 0
??2@YAPAXIPAX@Z ENDP					; operator new
_TEXT	ENDS
PUBLIC	??0CDbController@@QAE@XZ			; CDbController::CDbController
PUBLIC	?OnTimer@CDbController@@UAEXXZ			; CDbController::OnTimer
PUBLIC	??_7CDbController@@6B@				; CDbController::`vftable'
PUBLIC	??_GCDbController@@UAEPAXI@Z			; CDbController::`scalar deleting destructor'
EXTRN	__purecall:NEAR
EXTRN	??_ECDbController@@UAEPAXI@Z:NEAR		; CDbController::`vector deleting destructor'
;	COMDAT ??_7CDbController@@6B@
; File c:\documents and settings\test\mes documents\source\virtuos_v17\build\program\databaseserver\dbcontroller.cpp
CONST	SEGMENT
??_7CDbController@@6B@ DD FLAT:??_ECDbController@@UAEPAXI@Z ; CDbController::`vftable'
	DD	FLAT:__purecall
	DD	FLAT:?OnTimer@CDbController@@UAEXXZ
; Function compile flags: /Ogty
CONST	ENDS
;	COMDAT ??0CDbController@@QAE@XZ
_TEXT	SEGMENT
??0CDbController@@QAE@XZ PROC NEAR			; CDbController::CDbController, COMDAT
; _this$ = ecx

; 12   : {

  00000	8b c1		 mov	 eax, ecx
  00002	33 c9		 xor	 ecx, ecx
  00004	c7 00 00 00 00
	00		 mov	 DWORD PTR [eax], OFFSET FLAT:??_7CDbController@@6B@
  0000a	89 48 04	 mov	 DWORD PTR [eax+4], ecx
  0000d	89 48 08	 mov	 DWORD PTR [eax+8], ecx
  00010	89 48 0c	 mov	 DWORD PTR [eax+12], ecx
  00013	89 48 10	 mov	 DWORD PTR [eax+16], ecx

; 13   : }

  00016	c3		 ret	 0
??0CDbController@@QAE@XZ ENDP				; CDbController::CDbController
; Function compile flags: /Ogty
; File c:\documents and settings\test\mes documents\source\virtuos_v17\build\program\databaseserver\dbcontroller.h
_TEXT	ENDS
;	COMDAT ?OnTimer@CDbController@@UAEXXZ
_TEXT	SEGMENT
?OnTimer@CDbController@@UAEXXZ PROC NEAR		; CDbController::OnTimer, COMDAT
; _this$ = ecx

; 26   : 	virtual void	OnTimer()	{}

  00000	c3		 ret	 0
?OnTimer@CDbController@@UAEXXZ ENDP			; CDbController::OnTimer
_TEXT	ENDS
PUBLIC	??1CDbController@@UAE@XZ			; CDbController::~CDbController
; Function compile flags: /Ogty
; File c:\documents and settings\test\mes documents\source\virtuos_v17\build\program\databaseserver\dbcontroller.cpp
;	COMDAT ??1CDbController@@UAE@XZ
_TEXT	SEGMENT
??1CDbController@@UAE@XZ PROC NEAR			; CDbController::~CDbController, COMDAT
; _this$ = ecx

; 16   : {

  00000	c7 01 00 00 00
	00		 mov	 DWORD PTR [ecx], OFFSET FLAT:??_7CDbController@@6B@

; 17   : }

  00006	c3		 ret	 0
??1CDbController@@UAE@XZ ENDP				; CDbController::~CDbController
_TEXT	ENDS
PUBLIC	?CloseDbHandler@CDbController@@QAEXXZ		; CDbController::CloseDbHandler
EXTRN	__imp__CloseHandle@4:NEAR
EXTRN	__imp__PostQueuedCompletionStatus@16:NEAR
EXTRN	__imp__WaitForSingleObject@8:NEAR
; Function compile flags: /Ogty
;	COMDAT ?CloseDbHandler@CDbController@@QAEXXZ
_TEXT	SEGMENT
?CloseDbHandler@CDbController@@QAEXXZ PROC NEAR		; CDbController::CloseDbHandler, COMDAT
; _this$ = ecx

; 47   : {

  00000	56		 push	 esi
  00001	8b f1		 mov	 esi, ecx

; 48   : 	if( m_hIocp )

  00003	8b 46 04	 mov	 eax, DWORD PTR [esi+4]
  00006	85 c0		 test	 eax, eax
  00008	74 43		 je	 SHORT $L199240
  0000a	57		 push	 edi

; 49   : 	{
; 50   : 		::PostQueuedCompletionStatus( m_hIocp, 0, NULL, NULL );

  0000b	6a 00		 push	 0
  0000d	6a 00		 push	 0
  0000f	6a 00		 push	 0
  00011	50		 push	 eax
  00012	ff 15 00 00 00
	00		 call	 DWORD PTR __imp__PostQueuedCompletionStatus@16

; 51   : 		::WaitForSingleObject( m_hDbHndlr, INFINITE );

  00018	8b 46 08	 mov	 eax, DWORD PTR [esi+8]
  0001b	6a ff		 push	 -1
  0001d	50		 push	 eax
  0001e	ff 15 00 00 00
	00		 call	 DWORD PTR __imp__WaitForSingleObject@8

; 52   : 		CLOSE_HANDLE( m_hIocp );

  00024	8b 46 04	 mov	 eax, DWORD PTR [esi+4]
  00027	85 c0		 test	 eax, eax
  00029	8b 3d 00 00 00
	00		 mov	 edi, DWORD PTR __imp__CloseHandle@4
  0002f	74 0a		 je	 SHORT $L199238
  00031	50		 push	 eax
  00032	ff d7		 call	 edi
  00034	c7 46 04 00 00
	00 00		 mov	 DWORD PTR [esi+4], 0
$L199238:

; 53   : 		CLOSE_HANDLE( m_hDbHndlr );

  0003b	8b 46 08	 mov	 eax, DWORD PTR [esi+8]
  0003e	85 c0		 test	 eax, eax
  00040	74 0a		 je	 SHORT $L200737
  00042	50		 push	 eax
  00043	ff d7		 call	 edi
  00045	c7 46 08 00 00
	00 00		 mov	 DWORD PTR [esi+8], 0
$L200737:
  0004c	5f		 pop	 edi
$L199240:
  0004d	5e		 pop	 esi

; 54   : 	}
; 55   : }

  0004e	c3		 ret	 0
?CloseDbHandler@CDbController@@QAEXXZ ENDP		; CDbController::CloseDbHandler
_TEXT	ENDS
PUBLIC	??_GCQuery@@QAEPAXI@Z				; CQuery::`scalar deleting destructor'
EXTRN	??3@YAXPAX@Z:NEAR				; operator delete
EXTRN	??1CQuery@@QAE@XZ:NEAR				; CQuery::~CQuery
; Function compile flags: /Ogty
;	COMDAT ??_GCQuery@@QAEPAXI@Z
_TEXT	SEGMENT
___flags$ = 8						; size = 4
??_GCQuery@@QAEPAXI@Z PROC NEAR				; CQuery::`scalar deleting destructor', COMDAT
; _this$ = ecx
  00000	56		 push	 esi
  00001	8b f1		 mov	 esi, ecx
  00003	e8 00 00 00 00	 call	 ??1CQuery@@QAE@XZ	; CQuery::~CQuery
  00008	f6 44 24 08 01	 test	 BYTE PTR ___flags$[esp], 1
  0000d	74 09		 je	 SHORT $L200740
  0000f	56		 push	 esi
  00010	e8 00 00 00 00	 call	 ??3@YAXPAX@Z		; operator delete
  00015	83 c4 04	 add	 esp, 4
$L200740:
  00018	8b c6		 mov	 eax, esi
  0001a	5e		 pop	 esi
  0001b	c2 04 00	 ret	 4
??_GCQuery@@QAEPAXI@Z ENDP				; CQuery::`scalar deleting destructor'
_TEXT	ENDS
PUBLIC	?Destroy@CDbControllerTimer@@QAEXXZ		; CDbControllerTimer::Destroy
EXTRN	__imp__SetEvent@4:NEAR
; Function compile flags: /Ogty
;	COMDAT ?Destroy@CDbControllerTimer@@QAEXXZ
_TEXT	SEGMENT
?Destroy@CDbControllerTimer@@QAEXXZ PROC NEAR		; CDbControllerTimer::Destroy, COMDAT
; _this$ = ecx

; 198  : {

  00000	56		 push	 esi
  00001	8b f1		 mov	 esi, ecx

; 199  : 	CLOSE_THREAD( m_hTickThread, m_hCloseTick );

  00003	8b 46 30	 mov	 eax, DWORD PTR [esi+48]
  00006	85 c0		 test	 eax, eax
  00008	74 38		 je	 SHORT $L199517
  0000a	8b 46 34	 mov	 eax, DWORD PTR [esi+52]
  0000d	57		 push	 edi
  0000e	50		 push	 eax
  0000f	ff 15 00 00 00
	00		 call	 DWORD PTR __imp__SetEvent@4
  00015	8b 4e 30	 mov	 ecx, DWORD PTR [esi+48]
  00018	6a ff		 push	 -1
  0001a	51		 push	 ecx
  0001b	ff 15 00 00 00
	00		 call	 DWORD PTR __imp__WaitForSingleObject@8
  00021	8b 56 30	 mov	 edx, DWORD PTR [esi+48]
  00024	8b 3d 00 00 00
	00		 mov	 edi, DWORD PTR __imp__CloseHandle@4
  0002a	52		 push	 edx
  0002b	ff d7		 call	 edi
  0002d	8b 46 34	 mov	 eax, DWORD PTR [esi+52]
  00030	50		 push	 eax
  00031	ff d7		 call	 edi
  00033	c7 46 34 00 00
	00 00		 mov	 DWORD PTR [esi+52], 0
  0003a	c7 46 30 00 00
	00 00		 mov	 DWORD PTR [esi+48], 0
  00041	5f		 pop	 edi
$L199517:
  00042	5e		 pop	 esi

; 200  : }

  00043	c3		 ret	 0
?Destroy@CDbControllerTimer@@QAEXXZ ENDP		; CDbControllerTimer::Destroy
_TEXT	ENDS
PUBLIC	?capacity@?$vector@U?$pair@PAVCDbController@@K@std@@V?$allocator@U?$pair@PAVCDbController@@K@std@@@2@@std@@QBEIXZ ; std::vector<std::pair<CDbController *,unsigned long>,std::allocator<std::pair<CDbController *,unsigned long> > >::capacity
; Function compile flags: /Ogty
; File c:\program files\microsoft visual studio .net 2003\vc7\include\vector
;	COMDAT ?capacity@?$vector@U?$pair@PAVCDbController@@K@std@@V?$allocator@U?$pair@PAVCDbController@@K@std@@@2@@std@@QBEIXZ
_TEXT	SEGMENT
?capacity@?$vector@U?$pair@PAVCDbController@@K@std@@V?$allocator@U?$pair@PAVCDbController@@K@std@@@2@@std@@QBEIXZ PROC NEAR ; std::vector<std::pair<CDbController *,unsigned long>,std::allocator<std::pair<CDbController *,unsigned long> > >::capacity, COMDAT
; _this$ = ecx

; 458  : 		return (_Myfirst == 0 ? 0 : _Myend - _Myfirst);

  00000	8b 51 04	 mov	 edx, DWORD PTR [ecx+4]
  00003	85 d2		 test	 edx, edx
  00005	75 03		 jne	 SHORT $L200745
  00007	33 c0		 xor	 eax, eax

; 459  : 		}

  00009	c3		 ret	 0
$L200745:

; 458  : 		return (_Myfirst == 0 ? 0 : _Myend - _Myfirst);

  0000a	8b 41 0c	 mov	 eax, DWORD PTR [ecx+12]
  0000d	2b c2		 sub	 eax, edx
  0000f	c1 f8 03	 sar	 eax, 3

; 459  : 		}

  00012	c3		 ret	 0
?capacity@?$vector@U?$pair@PAVCDbController@@K@std@@V?$allocator@U?$pair@PAVCDbController@@K@std@@@2@@std@@QBEIXZ ENDP ; std::vector<std::pair<CDbController *,unsigned long>,std::allocator<std::pair<CDbController *,unsigned long> > >::capacity
_TEXT	ENDS
PUBLIC	?size@?$vector@U?$pair@PAVCDbController@@K@std@@V?$allocator@U?$pair@PAVCDbController@@K@std@@@2@@std@@QBEIXZ ; std::vector<std::pair<CDbController *,unsigned long>,std::allocator<std::pair<CDbController *,unsigned long> > >::size
; Function compile flags: /Ogty
;	COMDAT ?size@?$vector@U?$pair@PAVCDbController@@K@std@@V?$allocator@U?$pair@PAVCDbController@@K@std@@@2@@std@@QBEIXZ
_TEXT	SEGMENT
?size@?$vector@U?$pair@PAVCDbController@@K@std@@V?$allocator@U?$pair@PAVCDbController@@K@std@@@2@@std@@QBEIXZ PROC NEAR ; std::vector<std::pair<CDbController *,unsigned long>,std::allocator<std::pair<CDbController *,unsigned long> > >::size, COMDAT
; _this$ = ecx

; 516  : 		return (_Myfirst == 0 ? 0 : _Mylast - _Myfirst);

  00000	8b 51 04	 mov	 edx, DWORD PTR [ecx+4]
  00003	85 d2		 test	 edx, edx
  00005	75 03		 jne	 SHORT $L200749
  00007	33 c0		 xor	 eax, eax

; 517  : 		}

  00009	c3		 ret	 0
$L200749:

; 516  : 		return (_Myfirst == 0 ? 0 : _Mylast - _Myfirst);

  0000a	8b 41 08	 mov	 eax, DWORD PTR [ecx+8]
  0000d	2b c2		 sub	 eax, edx
  0000f	c1 f8 03	 sar	 eax, 3

; 517  : 		}

  00012	c3		 ret	 0
?size@?$vector@U?$pair@PAVCDbController@@K@std@@V?$allocator@U?$pair@PAVCDbController@@K@std@@@2@@std@@QBEIXZ ENDP ; std::vector<std::pair<CDbController *,unsigned long>,std::allocator<std::pair<CDbController *,unsigned long> > >::size
_TEXT	ENDS
PUBLIC	??0?$allocator@U?$pair@PAVCDbController@@K@std@@@std@@QAE@XZ ; std::allocator<std::pair<CDbController *,unsigned long> >::allocator<std::pair<CDbController *,unsigned long> >
; Function compile flags: /Ogty
; File c:\program files\microsoft visual studio .net 2003\vc7\include\xmemory
;	COMDAT ??0?$allocator@U?$pair@PAVCDbController@@K@std@@@std@@QAE@XZ
_TEXT	SEGMENT
??0?$allocator@U?$pair@PAVCDbController@@K@std@@@std@@QAE@XZ PROC NEAR ; std::allocator<std::pair<CDbController *,unsigned long> >::allocator<std::pair<CDbController *,unsigned long> >, COMDAT
; _this$ = ecx

; 111  : 	allocator()

  00000	8b c1		 mov	 eax, ecx

; 112  : 		{	// construct default allocator (do nothing)
; 113  : 		}

  00002	c3		 ret	 0
??0?$allocator@U?$pair@PAVCDbController@@K@std@@@std@@QAE@XZ ENDP ; std::allocator<std::pair<CDbController *,unsigned long> >::allocator<std::pair<CDbController *,unsigned long> >
_TEXT	ENDS
PUBLIC	??Eiterator@?$vector@U?$pair@PAVCDbController@@K@std@@V?$allocator@U?$pair@PAVCDbController@@K@std@@@2@@std@@QAEAAV012@XZ ; std::vector<std::pair<CDbController *,unsigned long>,std::allocator<std::pair<CDbController *,unsigned long> > >::iterator::operator++
; Function compile flags: /Ogty
; File c:\program files\microsoft visual studio .net 2003\vc7\include\vector
;	COMDAT ??Eiterator@?$vector@U?$pair@PAVCDbController@@K@std@@V?$allocator@U?$pair@PAVCDbController@@K@std@@@2@@std@@QAEAAV012@XZ
_TEXT	SEGMENT
??Eiterator@?$vector@U?$pair@PAVCDbController@@K@std@@V?$allocator@U?$pair@PAVCDbController@@K@std@@@2@@std@@QAEAAV012@XZ PROC NEAR ; std::vector<std::pair<CDbController *,unsigned long>,std::allocator<std::pair<CDbController *,unsigned long> > >::iterator::operator++, COMDAT
; _this$ = ecx

; 229  : 			{	// preincrement

  00000	8b c1		 mov	 eax, ecx

; 230  : 			++this->_Myptr;

  00002	83 00 08	 add	 DWORD PTR [eax], 8

; 231  : 			return (*this);
; 232  : 			}

  00005	c3		 ret	 0
??Eiterator@?$vector@U?$pair@PAVCDbController@@K@std@@V?$allocator@U?$pair@PAVCDbController@@K@std@@@2@@std@@QAEAAV012@XZ ENDP ; std::vector<std::pair<CDbController *,unsigned long>,std::allocator<std::pair<CDbController *,unsigned long> > >::iterator::operator++
_TEXT	ENDS
PUBLIC	??Dconst_iterator@?$vector@U?$pair@PAVCDbController@@K@std@@V?$allocator@U?$pair@PAVCDbController@@K@std@@@2@@std@@QBEABU?$pair@PAVCDbController@@K@2@XZ ; std::vector<std::pair<CDbController *,unsigned long>,std::allocator<std::pair<CDbController *,unsigned long> > >::const_iterator::operator*
; Function compile flags: /Ogty
;	COMDAT ??Dconst_iterator@?$vector@U?$pair@PAVCDbController@@K@std@@V?$allocator@U?$pair@PAVCDbController@@K@std@@@2@@std@@QBEABU?$pair@PAVCDbController@@K@2@XZ
_TEXT	SEGMENT
??Dconst_iterator@?$vector@U?$pair@PAVCDbController@@K@std@@V?$allocator@U?$pair@PAVCDbController@@K@std@@@2@@std@@QBEABU?$pair@PAVCDbController@@K@2@XZ PROC NEAR ; std::vector<std::pair<CDbController *,unsigned long>,std::allocator<std::pair<CDbController *,unsigned long> > >::const_iterator::operator*, COMDAT
; _this$ = ecx

; 80   : 
; 81   : 
; 82   : 			return (*_Myptr);

  00000	8b 01		 mov	 eax, DWORD PTR [ecx]

; 83   : 			}

  00002	c3		 ret	 0
??Dconst_iterator@?$vector@U?$pair@PAVCDbController@@K@std@@V?$allocator@U?$pair@PAVCDbController@@K@std@@@2@@std@@QBEABU?$pair@PAVCDbController@@K@2@XZ ENDP ; std::vector<std::pair<CDbController *,unsigned long>,std::allocator<std::pair<CDbController *,unsigned long> > >::const_iterator::operator*
_TEXT	ENDS
PUBLIC	??8const_iterator@?$vector@U?$pair@PAVCDbController@@K@std@@V?$allocator@U?$pair@PAVCDbController@@K@std@@@2@@std@@QBE_NABV012@@Z ; std::vector<std::pair<CDbController *,unsigned long>,std::allocator<std::pair<CDbController *,unsigned long> > >::const_iterator::operator==
; Function compile flags: /Ogty
;	COMDAT ??8const_iterator@?$vector@U?$pair@PAVCDbController@@K@std@@V?$allocator@U?$pair@PAVCDbController@@K@std@@@2@@std@@QBE_NABV012@@Z
_TEXT	SEGMENT
__Right$ = 8						; size = 4
??8const_iterator@?$vector@U?$pair@PAVCDbController@@K@std@@V?$allocator@U?$pair@PAVCDbController@@K@std@@@2@@std@@QBE_NABV012@@Z PROC NEAR ; std::vector<std::pair<CDbController *,unsigned long>,std::allocator<std::pair<CDbController *,unsigned long> > >::const_iterator::operator==, COMDAT
; _this$ = ecx

; 153  : 
; 154  : 
; 155  : 			return (_Myptr == _Right._Myptr);

  00000	8b 01		 mov	 eax, DWORD PTR [ecx]
  00002	8b 4c 24 04	 mov	 ecx, DWORD PTR __Right$[esp-4]
  00006	2b 01		 sub	 eax, DWORD PTR [ecx]
  00008	f7 d8		 neg	 eax
  0000a	1b c0		 sbb	 eax, eax
  0000c	40		 inc	 eax

; 156  : 			}

  0000d	c2 04 00	 ret	 4
??8const_iterator@?$vector@U?$pair@PAVCDbController@@K@std@@V?$allocator@U?$pair@PAVCDbController@@K@std@@@2@@std@@QBE_NABV012@@Z ENDP ; std::vector<std::pair<CDbController *,unsigned long>,std::allocator<std::pair<CDbController *,unsigned long> > >::const_iterator::operator==
_TEXT	ENDS
PUBLIC	??0?$allocator@U?$pair@PAVCDbController@@K@std@@@std@@QAE@ABV01@@Z ; std::allocator<std::pair<CDbController *,unsigned long> >::allocator<std::pair<CDbController *,unsigned long> >
; Function compile flags: /Ogty
; File c:\program files\microsoft visual studio .net 2003\vc7\include\xmemory
;	COMDAT ??0?$allocator@U?$pair@PAVCDbController@@K@std@@@std@@QAE@ABV01@@Z
_TEXT	SEGMENT
___formal$ = 8						; size = 4
??0?$allocator@U?$pair@PAVCDbController@@K@std@@@std@@QAE@ABV01@@Z PROC NEAR ; std::allocator<std::pair<CDbController *,unsigned long> >::allocator<std::pair<CDbController *,unsigned long> >, COMDAT
; _this$ = ecx

; 115  : 	allocator(const allocator<_Ty>&)

  00000	8b c1		 mov	 eax, ecx

; 116  : 		{	// construct by copying (do nothing)
; 117  : 		}

  00002	c2 04 00	 ret	 4
??0?$allocator@U?$pair@PAVCDbController@@K@std@@@std@@QAE@ABV01@@Z ENDP ; std::allocator<std::pair<CDbController *,unsigned long> >::allocator<std::pair<CDbController *,unsigned long> >
_TEXT	ENDS
PUBLIC	?deallocate@?$allocator@U?$pair@PAVCDbController@@K@std@@@std@@QAEXPAU?$pair@PAVCDbController@@K@2@I@Z ; std::allocator<std::pair<CDbController *,unsigned long> >::deallocate
; Function compile flags: /Ogty
;	COMDAT ?deallocate@?$allocator@U?$pair@PAVCDbController@@K@std@@@std@@QAEXPAU?$pair@PAVCDbController@@K@2@I@Z
_TEXT	SEGMENT
__Ptr$ = 8						; size = 4
___formal$ = 12						; size = 4
?deallocate@?$allocator@U?$pair@PAVCDbController@@K@std@@@std@@QAEXPAU?$pair@PAVCDbController@@K@2@I@Z PROC NEAR ; std::allocator<std::pair<CDbController *,unsigned long> >::deallocate, COMDAT
; _this$ = ecx

; 132  : 		operator delete(_Ptr);

  00000	8b 44 24 04	 mov	 eax, DWORD PTR __Ptr$[esp-4]
  00004	50		 push	 eax
  00005	e8 00 00 00 00	 call	 ??3@YAXPAX@Z		; operator delete
  0000a	59		 pop	 ecx

; 133  : 		}

  0000b	c2 08 00	 ret	 8
?deallocate@?$allocator@U?$pair@PAVCDbController@@K@std@@@std@@QAEXPAU?$pair@PAVCDbController@@K@2@I@Z ENDP ; std::allocator<std::pair<CDbController *,unsigned long> >::deallocate
_TEXT	ENDS
PUBLIC	??0const_iterator@?$vector@U?$pair@PAVCDbController@@K@std@@V?$allocator@U?$pair@PAVCDbController@@K@std@@@2@@std@@QAE@PAU?$pair@PAVCDbController@@K@2@@Z ; std::vector<std::pair<CDbController *,unsigned long>,std::allocator<std::pair<CDbController *,unsigned long> > >::const_iterator::const_iterator
; Function compile flags: /Ogty
; File c:\program files\microsoft visual studio .net 2003\vc7\include\vector
;	COMDAT ??0const_iterator@?$vector@U?$pair@PAVCDbController@@K@std@@V?$allocator@U?$pair@PAVCDbController@@K@std@@@2@@std@@QAE@PAU?$pair@PAVCDbController@@K@2@@Z
_TEXT	SEGMENT
__Ptr$ = 8						; size = 4
??0const_iterator@?$vector@U?$pair@PAVCDbController@@K@std@@V?$allocator@U?$pair@PAVCDbController@@K@std@@@2@@std@@QAE@PAU?$pair@PAVCDbController@@K@2@@Z PROC NEAR ; std::vector<std::pair<CDbController *,unsigned long>,std::allocator<std::pair<CDbController *,unsigned long> > >::const_iterator::const_iterator, COMDAT
; _this$ = ecx

; 73   : 		const_iterator(_Tptr _Ptr)

  00000	8b c1		 mov	 eax, ecx

; 74   : 			{	// construct with pointer _Ptr
; 75   : 			_Myptr = _Ptr;

  00002	8b 4c 24 04	 mov	 ecx, DWORD PTR __Ptr$[esp-4]
  00006	89 08		 mov	 DWORD PTR [eax], ecx

; 76   : 			}

  00008	c2 04 00	 ret	 4
??0const_iterator@?$vector@U?$pair@PAVCDbController@@K@std@@V?$allocator@U?$pair@PAVCDbController@@K@std@@@2@@std@@QAE@PAU?$pair@PAVCDbController@@K@2@@Z ENDP ; std::vector<std::pair<CDbController *,unsigned long>,std::allocator<std::pair<CDbController *,unsigned long> > >::const_iterator::const_iterator
_TEXT	ENDS
PUBLIC	?max_size@?$allocator@U?$pair@PAVCDbController@@K@std@@@std@@QBEIXZ ; std::allocator<std::pair<CDbController *,unsigned long> >::max_size
; Function compile flags: /Ogty
; File c:\program files\microsoft visual studio .net 2003\vc7\include\xmemory
;	COMDAT ?max_size@?$allocator@U?$pair@PAVCDbController@@K@std@@@std@@QBEIXZ
_TEXT	SEGMENT
?max_size@?$allocator@U?$pair@PAVCDbController@@K@std@@@std@@QBEIXZ PROC NEAR ; std::allocator<std::pair<CDbController *,unsigned long> >::max_size, COMDAT
; _this$ = ecx

; 157  : 		_SIZT _Count = (_SIZT)(-1) / sizeof (_Ty);
; 158  : 		return (0 < _Count ? _Count : 1);

  00000	b8 ff ff ff 1f	 mov	 eax, 536870911		; 1fffffffH

; 159  : 		}

  00005	c3		 ret	 0
?max_size@?$allocator@U?$pair@PAVCDbController@@K@std@@@std@@QBEIXZ ENDP ; std::allocator<std::pair<CDbController *,unsigned long> >::max_size
_TEXT	ENDS
PUBLIC	??Yiterator@?$vector@U?$pair@PAVCDbController@@K@std@@V?$allocator@U?$pair@PAVCDbController@@K@std@@@2@@std@@QAEAAV012@H@Z ; std::vector<std::pair<CDbController *,unsigned long>,std::allocator<std::pair<CDbController *,unsigned long> > >::iterator::operator+=
; Function compile flags: /Ogty
; File c:\program files\microsoft visual studio .net 2003\vc7\include\vector
;	COMDAT ??Yiterator@?$vector@U?$pair@PAVCDbController@@K@std@@V?$allocator@U?$pair@PAVCDbController@@K@std@@@2@@std@@QAEAAV012@H@Z
_TEXT	SEGMENT
__Off$ = 8						; size = 4
??Yiterator@?$vector@U?$pair@PAVCDbController@@K@std@@V?$allocator@U?$pair@PAVCDbController@@K@std@@@2@@std@@QAEAAV012@H@Z PROC NEAR ; std::vector<std::pair<CDbController *,unsigned long>,std::allocator<std::pair<CDbController *,unsigned long> > >::iterator::operator+=, COMDAT
; _this$ = ecx

; 255  : 			{	// increment by integer

  00000	8b c1		 mov	 eax, ecx

; 256  : 			this->_Myptr += _Off;

  00002	8b 4c 24 04	 mov	 ecx, DWORD PTR __Off$[esp-4]
  00006	8d 14 cd 00 00
	00 00		 lea	 edx, DWORD PTR [ecx*8]
  0000d	01 10		 add	 DWORD PTR [eax], edx

; 257  : 			return (*this);
; 258  : 			}

  0000f	c2 04 00	 ret	 4
??Yiterator@?$vector@U?$pair@PAVCDbController@@K@std@@V?$allocator@U?$pair@PAVCDbController@@K@std@@@2@@std@@QAEAAV012@H@Z ENDP ; std::vector<std::pair<CDbController *,unsigned long>,std::allocator<std::pair<CDbController *,unsigned long> > >::iterator::operator+=
_TEXT	ENDS
PUBLIC	??Gconst_iterator@?$vector@U?$pair@PAVCDbController@@K@std@@V?$allocator@U?$pair@PAVCDbController@@K@std@@@2@@std@@QBEHABV012@@Z ; std::vector<std::pair<CDbController *,unsigned long>,std::allocator<std::pair<CDbController *,unsigned long> > >::const_iterator::operator-
; Function compile flags: /Ogty
;	COMDAT ??Gconst_iterator@?$vector@U?$pair@PAVCDbController@@K@std@@V?$allocator@U?$pair@PAVCDbController@@K@std@@@2@@std@@QBEHABV012@@Z
_TEXT	SEGMENT
__Right$ = 8						; size = 4
??Gconst_iterator@?$vector@U?$pair@PAVCDbController@@K@std@@V?$allocator@U?$pair@PAVCDbController@@K@std@@@2@@std@@QBEHABV012@@Z PROC NEAR ; std::vector<std::pair<CDbController *,unsigned long>,std::allocator<std::pair<CDbController *,unsigned long> > >::const_iterator::operator-, COMDAT
; _this$ = ecx

; 141  : 
; 142  : 
; 143  : 			return (_Myptr - _Right._Myptr);

  00000	8b 01		 mov	 eax, DWORD PTR [ecx]
  00002	8b 4c 24 04	 mov	 ecx, DWORD PTR __Right$[esp-4]
  00006	2b 01		 sub	 eax, DWORD PTR [ecx]
  00008	c1 f8 03	 sar	 eax, 3

; 144  : 			}

  0000b	c2 04 00	 ret	 4
??Gconst_iterator@?$vector@U?$pair@PAVCDbController@@K@std@@V?$allocator@U?$pair@PAVCDbController@@K@std@@@2@@std@@QBEHABV012@@Z ENDP ; std::vector<std::pair<CDbController *,unsigned long>,std::allocator<std::pair<CDbController *,unsigned long> > >::const_iterator::operator-
_TEXT	ENDS
PUBLIC	??$fill@PAU?$pair@PAVCDbController@@K@std@@U12@@std@@YAXPAU?$pair@PAVCDbController@@K@0@0ABU10@@Z ; std::fill<std::pair<CDbController *,unsigned long> *,std::pair<CDbController *,unsigned long> >
; Function compile flags: /Ogty
; File c:\program files\microsoft visual studio .net 2003\vc7\include\xutility
;	COMDAT ??$fill@PAU?$pair@PAVCDbController@@K@std@@U12@@std@@YAXPAU?$pair@PAVCDbController@@K@0@0ABU10@@Z
_TEXT	SEGMENT
__First$ = 8						; size = 4
__Last$ = 12						; size = 4
__Val$ = 16						; size = 4
??$fill@PAU?$pair@PAVCDbController@@K@std@@U12@@std@@YAXPAU?$pair@PAVCDbController@@K@0@0ABU10@@Z PROC NEAR ; std::fill<std::pair<CDbController *,unsigned long> *,std::pair<CDbController *,unsigned long> >, COMDAT

; 1135 : 	for (; _First != _Last; ++_First)

  00000	8b 44 24 04	 mov	 eax, DWORD PTR __First$[esp-4]
  00004	8b 54 24 08	 mov	 edx, DWORD PTR __Last$[esp-4]
  00008	3b c2		 cmp	 eax, edx
  0000a	74 17		 je	 SHORT $L200201
  0000c	8b 4c 24 0c	 mov	 ecx, DWORD PTR __Val$[esp-4]
  00010	56		 push	 esi
$L200199:

; 1136 : 		*_First = _Val;

  00011	8b 31		 mov	 esi, DWORD PTR [ecx]
  00013	89 30		 mov	 DWORD PTR [eax], esi
  00015	8b 71 04	 mov	 esi, DWORD PTR [ecx+4]
  00018	89 70 04	 mov	 DWORD PTR [eax+4], esi
  0001b	83 c0 08	 add	 eax, 8
  0001e	3b c2		 cmp	 eax, edx
  00020	75 ef		 jne	 SHORT $L200199
  00022	5e		 pop	 esi
$L200201:

; 1137 : 	}

  00023	c3		 ret	 0
??$fill@PAU?$pair@PAVCDbController@@K@std@@U12@@std@@YAXPAU?$pair@PAVCDbController@@K@0@0ABU10@@Z ENDP ; std::fill<std::pair<CDbController *,unsigned long> *,std::pair<CDbController *,unsigned long> >
_TEXT	ENDS
PUBLIC	??$_Allocate@U?$pair@PAVCDbController@@K@std@@@std@@YAPAU?$pair@PAVCDbController@@K@0@IPAU10@@Z ; std::_Allocate<std::pair<CDbController *,unsigned long> >
EXTRN	??2@YAPAXI@Z:NEAR				; operator new
; Function compile flags: /Ogty
; File c:\program files\microsoft visual studio .net 2003\vc7\include\xmemory
;	COMDAT ??$_Allocate@U?$pair@PAVCDbController@@K@std@@@std@@YAPAU?$pair@PAVCDbController@@K@0@IPAU10@@Z
_TEXT	SEGMENT
__Count$ = 8						; size = 4
___formal$ = 12						; size = 4
??$_Allocate@U?$pair@PAVCDbController@@K@std@@@std@@YAPAU?$pair@PAVCDbController@@K@0@IPAU10@@Z PROC NEAR ; std::_Allocate<std::pair<CDbController *,unsigned long> >, COMDAT

; 34   : 	return ((_Ty _FARQ *)operator new(_Count * sizeof (_Ty)));

  00000	8b 44 24 04	 mov	 eax, DWORD PTR __Count$[esp-4]
  00004	8d 0c c5 00 00
	00 00		 lea	 ecx, DWORD PTR [eax*8]
  0000b	51		 push	 ecx
  0000c	e8 00 00 00 00	 call	 ??2@YAPAXI@Z		; operator new
  00011	83 c4 04	 add	 esp, 4

; 35   : 	}

  00014	c3		 ret	 0
??$_Allocate@U?$pair@PAVCDbController@@K@std@@@std@@YAPAU?$pair@PAVCDbController@@K@0@IPAU10@@Z ENDP ; std::_Allocate<std::pair<CDbController *,unsigned long> >
_TEXT	ENDS
PUBLIC	??0?$pair@PAVCDbController@@K@std@@QAE@ABQAVCDbController@@ABK@Z ; std::pair<CDbController *,unsigned long>::pair<CDbController *,unsigned long>
; Function compile flags: /Ogty
; File c:\program files\microsoft visual studio .net 2003\vc7\include\utility
;	COMDAT ??0?$pair@PAVCDbController@@K@std@@QAE@ABQAVCDbController@@ABK@Z
_TEXT	SEGMENT
__Val1$ = 8						; size = 4
__Val2$ = 12						; size = 4
??0?$pair@PAVCDbController@@K@std@@QAE@ABQAVCDbController@@ABK@Z PROC NEAR ; std::pair<CDbController *,unsigned long>::pair<CDbController *,unsigned long>, COMDAT
; _this$ = ecx

; 34   : 		{	// construct from specified values

  00000	8b c1		 mov	 eax, ecx
  00002	8b 4c 24 04	 mov	 ecx, DWORD PTR __Val1$[esp-4]
  00006	8b 11		 mov	 edx, DWORD PTR [ecx]
  00008	8b 4c 24 08	 mov	 ecx, DWORD PTR __Val2$[esp-4]
  0000c	89 10		 mov	 DWORD PTR [eax], edx
  0000e	8b 11		 mov	 edx, DWORD PTR [ecx]
  00010	89 50 04	 mov	 DWORD PTR [eax+4], edx

; 35   : 		}

  00013	c2 08 00	 ret	 8
??0?$pair@PAVCDbController@@K@std@@QAE@ABQAVCDbController@@ABK@Z ENDP ; std::pair<CDbController *,unsigned long>::pair<CDbController *,unsigned long>
_TEXT	ENDS
PUBLIC	??$_Ptr_cat@PAU?$pair@PAVCDbController@@K@std@@PAU12@@std@@YA?AU_Nonscalar_ptr_iterator_tag@0@AAPAU?$pair@PAVCDbController@@K@0@0@Z ; std::_Ptr_cat<std::pair<CDbController *,unsigned long> *,std::pair<CDbController *,unsigned long> *>
; Function compile flags: /Ogty
; File c:\program files\microsoft visual studio .net 2003\vc7\include\xutility
;	COMDAT ??$_Ptr_cat@PAU?$pair@PAVCDbController@@K@std@@PAU12@@std@@YA?AU_Nonscalar_ptr_iterator_tag@0@AAPAU?$pair@PAVCDbController@@K@0@0@Z
_TEXT	SEGMENT
__Cat$ = -1						; size = 1
___formal$ = 8						; size = 4
___formal$ = 12						; size = 4
??$_Ptr_cat@PAU?$pair@PAVCDbController@@K@std@@PAU12@@std@@YA?AU_Nonscalar_ptr_iterator_tag@0@AAPAU?$pair@PAVCDbController@@K@0@0@Z PROC NEAR ; std::_Ptr_cat<std::pair<CDbController *,unsigned long> *,std::pair<CDbController *,unsigned long> *>, COMDAT

; 211  : 	{	// return pointer category from arbitrary arguments

  00000	51		 push	 ecx

; 212  : 	_Nonscalar_ptr_iterator_tag _Cat;
; 213  : 	return (_Cat);

  00001	8a 44 24 03	 mov	 al, BYTE PTR __Cat$[esp+4]

; 214  : 	}

  00005	59		 pop	 ecx
  00006	c3		 ret	 0
??$_Ptr_cat@PAU?$pair@PAVCDbController@@K@std@@PAU12@@std@@YA?AU_Nonscalar_ptr_iterator_tag@0@AAPAU?$pair@PAVCDbController@@K@0@0@Z ENDP ; std::_Ptr_cat<std::pair<CDbController *,unsigned long> *,std::pair<CDbController *,unsigned long> *>
_TEXT	ENDS
PUBLIC	??$_Copy_backward_opt@PAU?$pair@PAVCDbController@@K@std@@PAU12@@std@@YAPAU?$pair@PAVCDbController@@K@0@PAU10@00U_Nonscalar_ptr_iterator_tag@0@@Z ; std::_Copy_backward_opt<std::pair<CDbController *,unsigned long> *,std::pair<CDbController *,unsigned long> *>
; Function compile flags: /Ogty
;	COMDAT ??$_Copy_backward_opt@PAU?$pair@PAVCDbController@@K@std@@PAU12@@std@@YAPAU?$pair@PAVCDbController@@K@0@PAU10@00U_Nonscalar_ptr_iterator_tag@0@@Z
_TEXT	SEGMENT
__First$ = 8						; size = 4
__Last$ = 12						; size = 4
__Dest$ = 16						; size = 4
___formal$ = 20						; size = 1
??$_Copy_backward_opt@PAU?$pair@PAVCDbController@@K@std@@PAU12@@std@@YAPAU?$pair@PAVCDbController@@K@0@PAU10@00U_Nonscalar_ptr_iterator_tag@0@@Z PROC NEAR ; std::_Copy_backward_opt<std::pair<CDbController *,unsigned long> *,std::pair<CDbController *,unsigned long> *>, COMDAT

; 1049 : 	while (_First != _Last)

  00000	8b 54 24 04	 mov	 edx, DWORD PTR __First$[esp-4]
  00004	8b 4c 24 08	 mov	 ecx, DWORD PTR __Last$[esp-4]
  00008	3b d1		 cmp	 edx, ecx
  0000a	8b 44 24 0c	 mov	 eax, DWORD PTR __Dest$[esp-4]
  0000e	74 17		 je	 SHORT $L200351
  00010	56		 push	 esi
$L200350:

; 1050 : 		*--_Dest = *--_Last;

  00011	8b 71 f8	 mov	 esi, DWORD PTR [ecx-8]
  00014	83 e9 08	 sub	 ecx, 8
  00017	83 e8 08	 sub	 eax, 8
  0001a	3b ca		 cmp	 ecx, edx
  0001c	89 30		 mov	 DWORD PTR [eax], esi
  0001e	8b 71 04	 mov	 esi, DWORD PTR [ecx+4]
  00021	89 70 04	 mov	 DWORD PTR [eax+4], esi
  00024	75 eb		 jne	 SHORT $L200350
  00026	5e		 pop	 esi
$L200351:

; 1051 : 	return (_Dest);
; 1052 : 	}

  00027	c3		 ret	 0
??$_Copy_backward_opt@PAU?$pair@PAVCDbController@@K@std@@PAU12@@std@@YAPAU?$pair@PAVCDbController@@K@0@PAU10@00U_Nonscalar_ptr_iterator_tag@0@@Z ENDP ; std::_Copy_backward_opt<std::pair<CDbController *,unsigned long> *,std::pair<CDbController *,unsigned long> *>
_TEXT	ENDS
PUBLIC	??$_Construct@U?$pair@PAVCDbController@@K@std@@U12@@std@@YAXPAU?$pair@PAVCDbController@@K@0@ABU10@@Z ; std::_Construct<std::pair<CDbController *,unsigned long>,std::pair<CDbController *,unsigned long> >
; Function compile flags: /Ogty
; File c:\program files\microsoft visual studio .net 2003\vc7\include\xmemory
;	COMDAT ??$_Construct@U?$pair@PAVCDbController@@K@std@@U12@@std@@YAXPAU?$pair@PAVCDbController@@K@0@ABU10@@Z
_TEXT	SEGMENT
__Ptr$ = 8						; size = 4
__Val$ = 12						; size = 4
??$_Construct@U?$pair@PAVCDbController@@K@std@@U12@@std@@YAXPAU?$pair@PAVCDbController@@K@0@ABU10@@Z PROC NEAR ; std::_Construct<std::pair<CDbController *,unsigned long>,std::pair<CDbController *,unsigned long> >, COMDAT

; 42   : 	new ((void _FARQ *)_Ptr) _T1(_Val);

  00000	8b 44 24 04	 mov	 eax, DWORD PTR __Ptr$[esp-4]
  00004	85 c0		 test	 eax, eax
  00006	74 0e		 je	 SHORT $L200791
  00008	8b 4c 24 08	 mov	 ecx, DWORD PTR __Val$[esp-4]
  0000c	8b 11		 mov	 edx, DWORD PTR [ecx]
  0000e	89 10		 mov	 DWORD PTR [eax], edx
  00010	8b 49 04	 mov	 ecx, DWORD PTR [ecx+4]
  00013	89 48 04	 mov	 DWORD PTR [eax+4], ecx
$L200791:

; 43   : 	}

  00016	c3		 ret	 0
??$_Construct@U?$pair@PAVCDbController@@K@std@@U12@@std@@YAXPAU?$pair@PAVCDbController@@K@0@ABU10@@Z ENDP ; std::_Construct<std::pair<CDbController *,unsigned long>,std::pair<CDbController *,unsigned long> >
_TEXT	ENDS
PUBLIC	??$_Destroy@U?$pair@PAVCDbController@@K@std@@@std@@YAXPAU?$pair@PAVCDbController@@K@0@@Z ; std::_Destroy<std::pair<CDbController *,unsigned long> >
; Function compile flags: /Ogty
;	COMDAT ??$_Destroy@U?$pair@PAVCDbController@@K@std@@@std@@YAXPAU?$pair@PAVCDbController@@K@0@@Z
_TEXT	SEGMENT
__Ptr$ = 8						; size = 4
??$_Destroy@U?$pair@PAVCDbController@@K@std@@@std@@YAXPAU?$pair@PAVCDbController@@K@0@@Z PROC NEAR ; std::_Destroy<std::pair<CDbController *,unsigned long> >, COMDAT

; 49   : 	_DESTRUCTOR(_Ty, _Ptr);
; 50   : 	}

  00000	c3		 ret	 0
??$_Destroy@U?$pair@PAVCDbController@@K@std@@@std@@YAXPAU?$pair@PAVCDbController@@K@0@@Z ENDP ; std::_Destroy<std::pair<CDbController *,unsigned long> >
_TEXT	ENDS
PUBLIC	?assign@?$char_traits@D@std@@SAXAADABD@Z	; std::char_traits<char>::assign
; Function compile flags: /Ogty
; File c:\program files\microsoft visual studio .net 2003\vc7\include\iosfwd
;	COMDAT ?assign@?$char_traits@D@std@@SAXAADABD@Z
_TEXT	SEGMENT
__Left$ = 8						; size = 4
__Right$ = 12						; size = 4
?assign@?$char_traits@D@std@@SAXAADABD@Z PROC NEAR	; std::char_traits<char>::assign, COMDAT

; 331  : 		_Left = _Right;

  00000	8b 44 24 08	 mov	 eax, DWORD PTR __Right$[esp-4]
  00004	8a 08		 mov	 cl, BYTE PTR [eax]
  00006	8b 54 24 04	 mov	 edx, DWORD PTR __Left$[esp-4]
  0000a	88 0a		 mov	 BYTE PTR [edx], cl

; 332  : 		}

  0000c	c3		 ret	 0
?assign@?$char_traits@D@std@@SAXAADABD@Z ENDP		; std::char_traits<char>::assign
_TEXT	ENDS
PUBLIC	?length@?$char_traits@D@std@@SAIPBD@Z		; std::char_traits<char>::length
; Function compile flags: /Ogty
;	COMDAT ?length@?$char_traits@D@std@@SAIPBD@Z
_TEXT	SEGMENT
__First$ = 8						; size = 4
?length@?$char_traits@D@std@@SAIPBD@Z PROC NEAR		; std::char_traits<char>::length, COMDAT

; 352  : 		return (::strlen(_First));

  00000	8b 44 24 04	 mov	 eax, DWORD PTR __First$[esp-4]
  00004	8d 50 01	 lea	 edx, DWORD PTR [eax+1]
$L200802:
  00007	8a 08		 mov	 cl, BYTE PTR [eax]
  00009	40		 inc	 eax
  0000a	84 c9		 test	 cl, cl
  0000c	75 f9		 jne	 SHORT $L200802
  0000e	2b c2		 sub	 eax, edx

; 353  : 		}

  00010	c3		 ret	 0
?length@?$char_traits@D@std@@SAIPBD@Z ENDP		; std::char_traits<char>::length
_TEXT	ENDS
PUBLIC	?copy@?$char_traits@D@std@@SAPADPADPBDI@Z	; std::char_traits<char>::copy
; Function compile flags: /Ogty
;	COMDAT ?copy@?$char_traits@D@std@@SAPADPADPBDI@Z
_TEXT	SEGMENT
__First1$ = 8						; size = 4
__First2$ = 12						; size = 4
__Count$ = 16						; size = 4
?copy@?$char_traits@D@std@@SAPADPADPBDI@Z PROC NEAR	; std::char_traits<char>::copy, COMDAT

; 358  : 		return ((_Elem *)::memcpy(_First1, _First2, _Count));

  00000	8b 4c 24 0c	 mov	 ecx, DWORD PTR __Count$[esp-4]
  00004	56		 push	 esi
  00005	8b 74 24 0c	 mov	 esi, DWORD PTR __First2$[esp]
  00009	57		 push	 edi
  0000a	8b 7c 24 0c	 mov	 edi, DWORD PTR __First1$[esp+4]
  0000e	8b c1		 mov	 eax, ecx
  00010	8b d7		 mov	 edx, edi
  00012	c1 e9 02	 shr	 ecx, 2
  00015	f3 a5		 rep movsd
  00017	8b c8		 mov	 ecx, eax
  00019	83 e1 03	 and	 ecx, 3
  0001c	f3 a4		 rep movsb
  0001e	5f		 pop	 edi
  0001f	8b c2		 mov	 eax, edx
  00021	5e		 pop	 esi

; 359  : 		}

  00022	c3		 ret	 0
?copy@?$char_traits@D@std@@SAPADPADPBDI@Z ENDP		; std::char_traits<char>::copy
_TEXT	ENDS
PUBLIC	?move@?$char_traits@D@std@@SAPADPADPBDI@Z	; std::char_traits<char>::move
EXTRN	_memmove:NEAR
; Function compile flags: /Ogty
;	COMDAT ?move@?$char_traits@D@std@@SAPADPADPBDI@Z
_TEXT	SEGMENT
__First1$ = 8						; size = 4
__First2$ = 12						; size = 4
__Count$ = 16						; size = 4
?move@?$char_traits@D@std@@SAPADPADPBDI@Z PROC NEAR	; std::char_traits<char>::move, COMDAT

; 370  : 		return ((_Elem *)::memmove(_First1, _First2, _Count));

  00000	e9 00 00 00 00	 jmp	 _memmove
?move@?$char_traits@D@std@@SAPADPADPBDI@Z ENDP		; std::char_traits<char>::move
_TEXT	ENDS
PUBLIC	??0CMclCritSec@@QAE@XZ				; CMclCritSec::CMclCritSec
PUBLIC	??_7CMclCritSec@@6B@				; CMclCritSec::`vftable'
PUBLIC	??_GCMclCritSec@@UAEPAXI@Z			; CMclCritSec::`scalar deleting destructor'
EXTRN	??_ECMclCritSec@@UAEPAXI@Z:NEAR			; CMclCritSec::`vector deleting destructor'
EXTRN	__imp__InitializeCriticalSection@4:NEAR
;	COMDAT ??_7CMclCritSec@@6B@
; File c:\documents and settings\test\mes documents\source\virtuos_v17\build\program\_network\mcl\include\cmclcritsec.h
CONST	SEGMENT
??_7CMclCritSec@@6B@ DD FLAT:??_ECMclCritSec@@UAEPAXI@Z	; CMclCritSec::`vftable'
; Function compile flags: /Ogty
CONST	ENDS
;	COMDAT ??0CMclCritSec@@QAE@XZ
_TEXT	SEGMENT
??0CMclCritSec@@QAE@XZ PROC NEAR			; CMclCritSec::CMclCritSec, COMDAT
; _this$ = ecx

; 19   :     CMclCritSec(void)

  00000	56		 push	 esi
  00001	8b f1		 mov	 esi, ecx

; 20   :     {
; 21   : 		::InitializeCriticalSection( &m_CritSec );

  00003	8d 46 04	 lea	 eax, DWORD PTR [esi+4]
  00006	50		 push	 eax
  00007	c7 06 00 00 00
	00		 mov	 DWORD PTR [esi], OFFSET FLAT:??_7CMclCritSec@@6B@
  0000d	ff 15 00 00 00
	00		 call	 DWORD PTR __imp__InitializeCriticalSection@4

; 22   : 	}

  00013	8b c6		 mov	 eax, esi
  00015	5e		 pop	 esi
  00016	c3		 ret	 0
??0CMclCritSec@@QAE@XZ ENDP				; CMclCritSec::CMclCritSec
_TEXT	ENDS
PUBLIC	??1CMclCritSec@@UAE@XZ				; CMclCritSec::~CMclCritSec
EXTRN	__imp__DeleteCriticalSection@4:NEAR
; Function compile flags: /Ogty
;	COMDAT ??1CMclCritSec@@UAE@XZ
_TEXT	SEGMENT
??1CMclCritSec@@UAE@XZ PROC NEAR			; CMclCritSec::~CMclCritSec, COMDAT
; _this$ = ecx

; 26   : 	{

  00000	c7 01 00 00 00
	00		 mov	 DWORD PTR [ecx], OFFSET FLAT:??_7CMclCritSec@@6B@

; 27   : 		::DeleteCriticalSection( &m_CritSec );

  00006	83 c1 04	 add	 ecx, 4
  00009	51		 push	 ecx
  0000a	ff 15 00 00 00
	00		 call	 DWORD PTR __imp__DeleteCriticalSection@4

; 28   : 	}

  00010	c3		 ret	 0
??1CMclCritSec@@UAE@XZ ENDP				; CMclCritSec::~CMclCritSec
_TEXT	ENDS
PUBLIC	?Enter@CMclCritSec@@QAEXXZ			; CMclCritSec::Enter
EXTRN	__imp__EnterCriticalSection@4:NEAR
; Function compile flags: /Ogty
;	COMDAT ?Enter@CMclCritSec@@QAEXXZ
_TEXT	SEGMENT
?Enter@CMclCritSec@@QAEXXZ PROC NEAR			; CMclCritSec::Enter, COMDAT
; _this$ = ecx

; 33   : 		::EnterCriticalSection( &m_CritSec );

  00000	83 c1 04	 add	 ecx, 4
  00003	51		 push	 ecx
  00004	ff 15 00 00 00
	00		 call	 DWORD PTR __imp__EnterCriticalSection@4

; 34   : 	}

  0000a	c3		 ret	 0
?Enter@CMclCritSec@@QAEXXZ ENDP				; CMclCritSec::Enter
_TEXT	ENDS
PUBLIC	?Leave@CMclCritSec@@QAEXXZ			; CMclCritSec::Leave
EXTRN	__imp__LeaveCriticalSection@4:NEAR
; Function compile flags: /Ogty
;	COMDAT ?Leave@CMclCritSec@@QAEXXZ
_TEXT	SEGMENT
?Leave@CMclCritSec@@QAEXXZ PROC NEAR			; CMclCritSec::Leave, COMDAT
; _this$ = ecx

; 39   : 		::LeaveCriticalSection( &m_CritSec );

  00000	83 c1 04	 add	 ecx, 4
  00003	51		 push	 ecx
  00004	ff 15 00 00 00
	00		 call	 DWORD PTR __imp__LeaveCriticalSection@4

; 40   : 	}

  0000a	c3		 ret	 0
?Leave@CMclCritSec@@QAEXXZ ENDP				; CMclCritSec::Leave
; Function compile flags: /Ogty
_TEXT	ENDS
;	COMDAT ??_GCMclCritSec@@UAEPAXI@Z
_TEXT	SEGMENT
___flags$ = 8						; size = 4
??_GCMclCritSec@@UAEPAXI@Z PROC NEAR			; CMclCritSec::`scalar deleting destructor', COMDAT
; _this$ = ecx
  00000	56		 push	 esi
  00001	8b f1		 mov	 esi, ecx
  00003	8d 46 04	 lea	 eax, DWORD PTR [esi+4]
  00006	50		 push	 eax
  00007	c7 06 00 00 00
	00		 mov	 DWORD PTR [esi], OFFSET FLAT:??_7CMclCritSec@@6B@
  0000d	ff 15 00 00 00
	00		 call	 DWORD PTR __imp__DeleteCriticalSection@4
  00013	f6 44 24 08 01	 test	 BYTE PTR ___flags$[esp], 1
  00018	74 09		 je	 SHORT $L200821
  0001a	56		 push	 esi
  0001b	e8 00 00 00 00	 call	 ??3@YAXPAX@Z		; operator delete
  00020	83 c4 04	 add	 esp, 4
$L200821:
  00023	8b c6		 mov	 eax, esi
  00025	5e		 pop	 esi
  00026	c2 04 00	 ret	 4
??_GCMclCritSec@@UAEPAXI@Z ENDP				; CMclCritSec::`scalar deleting destructor'
_TEXT	ENDS
PUBLIC	??0CMclAutoLock@@QAE@AAVCMclCritSec@@@Z		; CMclAutoLock::CMclAutoLock
; Function compile flags: /Ogty
; File c:\documents and settings\test\mes documents\source\virtuos_v17\build\program\_network\mcl\include\cmclautolock.h
;	COMDAT ??0CMclAutoLock@@QAE@AAVCMclCritSec@@@Z
_TEXT	SEGMENT
_rCMclCritSec$ = 8					; size = 4
??0CMclAutoLock@@QAE@AAVCMclCritSec@@@Z PROC NEAR	; CMclAutoLock::CMclAutoLock, COMDAT
; _this$ = ecx

; 20   : 	{
; 21   : 		m_pcCritSec = &rCMclCritSec;

  00000	8b 44 24 04	 mov	 eax, DWORD PTR _rCMclCritSec$[esp-4]
  00004	56		 push	 esi
  00005	8b f1		 mov	 esi, ecx
  00007	89 06		 mov	 DWORD PTR [esi], eax

; 22   : 		m_pcCritSec->Enter();

  00009	83 c0 04	 add	 eax, 4
  0000c	50		 push	 eax
  0000d	ff 15 00 00 00
	00		 call	 DWORD PTR __imp__EnterCriticalSection@4

; 23   : 	}

  00013	8b c6		 mov	 eax, esi
  00015	5e		 pop	 esi
  00016	c2 04 00	 ret	 4
??0CMclAutoLock@@QAE@AAVCMclCritSec@@@Z ENDP		; CMclAutoLock::CMclAutoLock
_TEXT	ENDS
PUBLIC	??1CMclAutoLock@@QAE@XZ				; CMclAutoLock::~CMclAutoLock
; Function compile flags: /Ogty
;	COMDAT ??1CMclAutoLock@@QAE@XZ
_TEXT	SEGMENT
??1CMclAutoLock@@QAE@XZ PROC NEAR			; CMclAutoLock::~CMclAutoLock, COMDAT
; _this$ = ecx

; 28   : 		m_pcCritSec->Leave();

  00000	8b 01		 mov	 eax, DWORD PTR [ecx]
  00002	83 c0 04	 add	 eax, 4
  00005	50		 push	 eax
  00006	ff 15 00 00 00
	00		 call	 DWORD PTR __imp__LeaveCriticalSection@4

; 29   : 	}

  0000c	c3		 ret	 0
??1CMclAutoLock@@QAE@XZ ENDP				; CMclAutoLock::~CMclAutoLock
_TEXT	ENDS
PUBLIC	??0tagDB_OVERLAPPED_PLUS@@QAE@XZ		; tagDB_OVERLAPPED_PLUS::tagDB_OVERLAPPED_PLUS
; Function compile flags: /Ogty
; File c:\documents and settings\test\mes documents\source\virtuos_v17\build\program\_database\dbmanager.h
;	COMDAT ??0tagDB_OVERLAPPED_PLUS@@QAE@XZ
_TEXT	SEGMENT
??0tagDB_OVERLAPPED_PLUS@@QAE@XZ PROC NEAR		; tagDB_OVERLAPPED_PLUS::tagDB_OVERLAPPED_PLUS, COMDAT
; _this$ = ecx

; 168  : 	tagDB_OVERLAPPED_PLUS()

  00000	8b c1		 mov	 eax, ecx

; 169  : 	{
; 170  : 		//	mulcom	BEGIN100415	DB_OVERLAPPED_PLUS   .
; 171  : 		lpBuf	= NULL;

  00002	33 c9		 xor	 ecx, ecx
  00004	89 48 18	 mov	 DWORD PTR [eax+24], ecx

; 172  : 		//::memset( lpBuf, 0, sizeof(lpBuf) );
; 173  : 		//	mulcom	END100415	DB_OVERLAPPED_PLUS   .
; 174  : 		
; 175  : 		uBufSize = 0;

  00007	89 48 1c	 mov	 DWORD PTR [eax+28], ecx

; 176  : 	}

  0000a	c3		 ret	 0
??0tagDB_OVERLAPPED_PLUS@@QAE@XZ ENDP			; tagDB_OVERLAPPED_PLUS::tagDB_OVERLAPPED_PLUS
_TEXT	ENDS
PUBLIC	?size@?$basic_string@DU?$char_traits@D@std@@V?$allocator@D@2@@std@@QBEIXZ ; std::basic_string<char,std::char_traits<char>,std::allocator<char> >::size
; Function compile flags: /Ogty
; File c:\program files\microsoft visual studio .net 2003\vc7\include\xstring
;	COMDAT ?size@?$basic_string@DU?$char_traits@D@std@@V?$allocator@D@2@@std@@QBEIXZ
_TEXT	SEGMENT
?size@?$basic_string@DU?$char_traits@D@std@@V?$allocator@D@2@@std@@QBEIXZ PROC NEAR ; std::basic_string<char,std::char_traits<char>,std::allocator<char> >::size, COMDAT
; _this$ = ecx

; 1109 : 		return (_Mysize);

  00000	8b 41 14	 mov	 eax, DWORD PTR [ecx+20]

; 1110 : 		}

  00003	c3		 ret	 0
?size@?$basic_string@DU?$char_traits@D@std@@V?$allocator@D@2@@std@@QBEIXZ ENDP ; std::basic_string<char,std::char_traits<char>,std::allocator<char> >::size
_TEXT	ENDS
PUBLIC	?_Myptr@?$basic_string@DU?$char_traits@D@std@@V?$allocator@D@2@@std@@QBEPBDXZ ; std::basic_string<char,std::char_traits<char>,std::allocator<char> >::_Myptr
; Function compile flags: /Ogty
;	COMDAT ?_Myptr@?$basic_string@DU?$char_traits@D@std@@V?$allocator@D@2@@std@@QBEPBDXZ
_TEXT	SEGMENT
?_Myptr@?$basic_string@DU?$char_traits@D@std@@V?$allocator@D@2@@std@@QBEPBDXZ PROC NEAR ; std::basic_string<char,std::char_traits<char>,std::allocator<char> >::_Myptr, COMDAT
; _this$ = ecx

; 1537 : 		return (_BUF_SIZE <= _Myres ? _Bx._Ptr : _Bx._Buf);

  00000	83 79 18 10	 cmp	 DWORD PTR [ecx+24], 16	; 00000010H
  00004	72 04		 jb	 SHORT $L200840
  00006	8b 41 04	 mov	 eax, DWORD PTR [ecx+4]

; 1538 : 		}

  00009	c3		 ret	 0
$L200840:

; 1537 : 		return (_BUF_SIZE <= _Myres ? _Bx._Ptr : _Bx._Buf);

  0000a	8d 41 04	 lea	 eax, DWORD PTR [ecx+4]

; 1538 : 		}

  0000d	c3		 ret	 0
?_Myptr@?$basic_string@DU?$char_traits@D@std@@V?$allocator@D@2@@std@@QBEPBDXZ ENDP ; std::basic_string<char,std::char_traits<char>,std::allocator<char> >::_Myptr
_TEXT	ENDS
PUBLIC	??0?$allocator@D@std@@QAE@XZ			; std::allocator<char>::allocator<char>
; Function compile flags: /Ogty
; File c:\program files\microsoft visual studio .net 2003\vc7\include\xmemory
;	COMDAT ??0?$allocator@D@std@@QAE@XZ
_TEXT	SEGMENT
??0?$allocator@D@std@@QAE@XZ PROC NEAR			; std::allocator<char>::allocator<char>, COMDAT
; _this$ = ecx

; 111  : 	allocator()

  00000	8b c1		 mov	 eax, ecx

; 112  : 		{	// construct default allocator (do nothing)
; 113  : 		}

  00002	c3		 ret	 0
??0?$allocator@D@std@@QAE@XZ ENDP			; std::allocator<char>::allocator<char>
_TEXT	ENDS
PUBLIC	??0?$allocator@D@std@@QAE@ABV01@@Z		; std::allocator<char>::allocator<char>
; Function compile flags: /Ogty
;	COMDAT ??0?$allocator@D@std@@QAE@ABV01@@Z
_TEXT	SEGMENT
___formal$ = 8						; size = 4
??0?$allocator@D@std@@QAE@ABV01@@Z PROC NEAR		; std::allocator<char>::allocator<char>, COMDAT
; _this$ = ecx

; 115  : 	allocator(const allocator<_Ty>&)

  00000	8b c1		 mov	 eax, ecx

; 116  : 		{	// construct by copying (do nothing)
; 117  : 		}

  00002	c2 04 00	 ret	 4
??0?$allocator@D@std@@QAE@ABV01@@Z ENDP			; std::allocator<char>::allocator<char>
_TEXT	ENDS
PUBLIC	?_Myptr@?$basic_string@DU?$char_traits@D@std@@V?$allocator@D@2@@std@@QAEPADXZ ; std::basic_string<char,std::char_traits<char>,std::allocator<char> >::_Myptr
; Function compile flags: /Ogty
; File c:\program files\microsoft visual studio .net 2003\vc7\include\xstring
;	COMDAT ?_Myptr@?$basic_string@DU?$char_traits@D@std@@V?$allocator@D@2@@std@@QAEPADXZ
_TEXT	SEGMENT
?_Myptr@?$basic_string@DU?$char_traits@D@std@@V?$allocator@D@2@@std@@QAEPADXZ PROC NEAR ; std::basic_string<char,std::char_traits<char>,std::allocator<char> >::_Myptr, COMDAT
; _this$ = ecx

; 1532 : 		return (_BUF_SIZE <= _Myres ? _Bx._Ptr : _Bx._Buf);

  00000	83 79 18 10	 cmp	 DWORD PTR [ecx+24], 16	; 00000010H
  00004	72 04		 jb	 SHORT $L200848
  00006	8b 41 04	 mov	 eax, DWORD PTR [ecx+4]

; 1533 : 		}

  00009	c3		 ret	 0
$L200848:

; 1532 : 		return (_BUF_SIZE <= _Myres ? _Bx._Ptr : _Bx._Buf);

  0000a	8d 41 04	 lea	 eax, DWORD PTR [ecx+4]

; 1533 : 		}

  0000d	c3		 ret	 0
?_Myptr@?$basic_string@DU?$char_traits@D@std@@V?$allocator@D@2@@std@@QAEPADXZ ENDP ; std::basic_string<char,std::char_traits<char>,std::allocator<char> >::_Myptr
_TEXT	ENDS
PUBLIC	?deallocate@?$allocator@D@std@@QAEXPADI@Z	; std::allocator<char>::deallocate
; Function compile flags: /Ogty
; File c:\program files\microsoft visual studio .net 2003\vc7\include\xmemory
;	COMDAT ?deallocate@?$allocator@D@std@@QAEXPADI@Z
_TEXT	SEGMENT
__Ptr$ = 8						; size = 4
___formal$ = 12						; size = 4
?deallocate@?$allocator@D@std@@QAEXPADI@Z PROC NEAR	; std::allocator<char>::deallocate, COMDAT
; _this$ = ecx

; 132  : 		operator delete(_Ptr);

  00000	8b 44 24 04	 mov	 eax, DWORD PTR __Ptr$[esp-4]
  00004	50		 push	 eax
  00005	e8 00 00 00 00	 call	 ??3@YAXPAX@Z		; operator delete
  0000a	59		 pop	 ecx

; 133  : 		}

  0000b	c2 08 00	 ret	 8
?deallocate@?$allocator@D@std@@QAEXPADI@Z ENDP		; std::allocator<char>::deallocate
_TEXT	ENDS
PUBLIC	?_Inside@?$basic_string@DU?$char_traits@D@std@@V?$allocator@D@2@@std@@IAE_NPBD@Z ; std::basic_string<char,std::char_traits<char>,std::allocator<char> >::_Inside
; Function compile flags: /Ogty
; File c:\program files\microsoft visual studio .net 2003\vc7\include\xstring
;	COMDAT ?_Inside@?$basic_string@DU?$char_traits@D@std@@V?$allocator@D@2@@std@@IAE_NPBD@Z
_TEXT	SEGMENT
__Ptr$ = 8						; size = 4
?_Inside@?$basic_string@DU?$char_traits@D@std@@V?$allocator@D@2@@std@@IAE_NPBD@Z PROC NEAR ; std::basic_string<char,std::char_traits<char>,std::allocator<char> >::_Inside, COMDAT
; _this$ = ecx

; 1494 : 		{	// test if _Ptr points inside string

  00000	56		 push	 esi

; 1495 : 		if (_Ptr < _Myptr() || _Myptr() + _Mysize <= _Ptr)

  00001	8b 71 18	 mov	 esi, DWORD PTR [ecx+24]
  00004	83 fe 10	 cmp	 esi, 16			; 00000010H
  00007	57		 push	 edi
  00008	8d 41 04	 lea	 eax, DWORD PTR [ecx+4]
  0000b	72 04		 jb	 SHORT $L200858
  0000d	8b 10		 mov	 edx, DWORD PTR [eax]
  0000f	eb 02		 jmp	 SHORT $L200859
$L200858:
  00011	8b d0		 mov	 edx, eax
$L200859:
  00013	8b 7c 24 0c	 mov	 edi, DWORD PTR __Ptr$[esp+4]
  00017	3b fa		 cmp	 edi, edx
  00019	72 17		 jb	 SHORT $L185560
  0001b	83 fe 10	 cmp	 esi, 16			; 00000010H
  0001e	72 02		 jb	 SHORT $L200866
  00020	8b 00		 mov	 eax, DWORD PTR [eax]
$L200866:
  00022	8b 49 14	 mov	 ecx, DWORD PTR [ecx+20]
  00025	03 c8		 add	 ecx, eax
  00027	3b cf		 cmp	 ecx, edi
  00029	76 07		 jbe	 SHORT $L185560
  0002b	5f		 pop	 edi

; 1497 : 		else
; 1498 : 			return (true);

  0002c	b0 01		 mov	 al, 1
  0002e	5e		 pop	 esi

; 1499 : 		}

  0002f	c2 04 00	 ret	 4
$L185560:
  00032	5f		 pop	 edi

; 1496 : 			return (false);	// don't ask

  00033	32 c0		 xor	 al, al
  00035	5e		 pop	 esi

; 1499 : 		}

  00036	c2 04 00	 ret	 4
?_Inside@?$basic_string@DU?$char_traits@D@std@@V?$allocator@D@2@@std@@IAE_NPBD@Z ENDP ; std::basic_string<char,std::char_traits<char>,std::allocator<char> >::_Inside
_TEXT	ENDS
PUBLIC	?max_size@?$allocator@D@std@@QBEIXZ		; std::allocator<char>::max_size
; Function compile flags: /Ogty
; File c:\program files\microsoft visual studio .net 2003\vc7\include\xmemory
;	COMDAT ?max_size@?$allocator@D@std@@QBEIXZ
_TEXT	SEGMENT
?max_size@?$allocator@D@std@@QBEIXZ PROC NEAR		; std::allocator<char>::max_size, COMDAT
; _this$ = ecx

; 157  : 		_SIZT _Count = (_SIZT)(-1) / sizeof (_Ty);
; 158  : 		return (0 < _Count ? _Count : 1);

  00000	83 c8 ff	 or	 eax, -1

; 159  : 		}

  00003	c3		 ret	 0
?max_size@?$allocator@D@std@@QBEIXZ ENDP		; std::allocator<char>::max_size
_TEXT	ENDS
PUBLIC	??$_Allocate@D@std@@YAPADIPAD@Z			; std::_Allocate<char>
; Function compile flags: /Ogty
;	COMDAT ??$_Allocate@D@std@@YAPADIPAD@Z
_TEXT	SEGMENT
__Count$ = 8						; size = 4
___formal$ = 12						; size = 4
??$_Allocate@D@std@@YAPADIPAD@Z PROC NEAR		; std::_Allocate<char>, COMDAT

; 34   : 	return ((_Ty _FARQ *)operator new(_Count * sizeof (_Ty)));

  00000	8b 44 24 04	 mov	 eax, DWORD PTR __Count$[esp-4]
  00004	50		 push	 eax
  00005	e8 00 00 00 00	 call	 ??2@YAPAXI@Z		; operator new
  0000a	83 c4 04	 add	 esp, 4

; 35   : 	}

  0000d	c3		 ret	 0
??$_Allocate@D@std@@YAPADIPAD@Z ENDP			; std::_Allocate<char>
; Function compile flags: /Ogty
_TEXT	ENDS
;	COMDAT ??_GCDbController@@UAEPAXI@Z
_TEXT	SEGMENT
___flags$ = 8						; size = 4
??_GCDbController@@UAEPAXI@Z PROC NEAR			; CDbController::`scalar deleting destructor', COMDAT
; _this$ = ecx
  00000	f6 44 24 04 01	 test	 BYTE PTR ___flags$[esp-4], 1
  00005	56		 push	 esi
  00006	8b f1		 mov	 esi, ecx
  00008	c7 06 00 00 00
	00		 mov	 DWORD PTR [esi], OFFSET FLAT:??_7CDbController@@6B@
  0000e	74 09		 je	 SHORT $L200879
  00010	56		 push	 esi
  00011	e8 00 00 00 00	 call	 ??3@YAXPAX@Z		; operator delete
  00016	83 c4 04	 add	 esp, 4
$L200879:
  00019	8b c6		 mov	 eax, esi
  0001b	5e		 pop	 esi
  0001c	c2 04 00	 ret	 4
??_GCDbController@@UAEPAXI@Z ENDP			; CDbController::`scalar deleting destructor'
_TEXT	ENDS
PUBLIC	?PostRequest@CDbController@@QAEHHPAEHK@Z	; CDbController::PostRequest
PUBLIC	??_C@_0DF@NIEDDNJK@PostRequest?5nBufSize?5error?4?5nQue@ ; `string'
EXTRN	??_U@YAPAXI@Z:NEAR				; operator new[]
EXTRN	?Error@@YAPBDPBDZZ:NEAR				; Error
;	COMDAT ??_C@_0DF@NIEDDNJK@PostRequest?5nBufSize?5error?4?5nQue@
; File c:\documents and settings\test\mes documents\source\virtuos_v17\build\program\_database\dbmanager.h
CONST	SEGMENT
??_C@_0DF@NIEDDNJK@PostRequest?5nBufSize?5error?4?5nQue@ DB 'PostRequest '
	DB	'nBufSize error. nQuery[%d], nBufSize[%d]', 00H ; `string'
; Function compile flags: /Ogty
; File c:\documents and settings\test\mes documents\source\virtuos_v17\build\program\databaseserver\dbcontroller.cpp
CONST	ENDS
;	COMDAT ?PostRequest@CDbController@@QAEHHPAEHK@Z
_TEXT	SEGMENT
_this$ = -4						; size = 4
_nQuery$ = 8						; size = 4
_lpBuf$ = 12						; size = 4
_nBufSize$ = 16						; size = 4
_dwCompletionKey$ = 20					; size = 4
?PostRequest@CDbController@@QAEHHPAEHK@Z PROC NEAR	; CDbController::PostRequest, COMDAT
; _this$ = ecx

; 58   : {

  00000	51		 push	 ecx
  00001	53		 push	 ebx
  00002	55		 push	 ebp
  00003	56		 push	 esi

; 59   : 	LPDB_OVERLAPPED_PLUS pov	= new DB_OVERLAPPED_PLUS;

  00004	68 b8 00 00 00	 push	 184			; 000000b8H
  00009	89 4c 24 10	 mov	 DWORD PTR _this$[esp+20], ecx
  0000d	e8 00 00 00 00	 call	 ??2@YAPAXI@Z		; operator new
  00012	33 c9		 xor	 ecx, ecx
  00014	83 c4 04	 add	 esp, 4
  00017	3b c1		 cmp	 eax, ecx
  00019	74 0a		 je	 SHORT $L200884
  0001b	89 48 18	 mov	 DWORD PTR [eax+24], ecx
  0001e	89 48 1c	 mov	 DWORD PTR [eax+28], ecx
  00021	8b e8		 mov	 ebp, eax
  00023	eb 02		 jmp	 SHORT $L200885
$L200884:
  00025	33 ed		 xor	 ebp, ebp
$L200885:

; 60   : //	mulcom	BEGIN100415	DB_OVERLAPPED_PLUS   .
; 61   : 	if( lpBuf != NULL )

  00027	8b 74 24 18	 mov	 esi, DWORD PTR _lpBuf$[esp+12]
  0002b	3b f1		 cmp	 esi, ecx
  0002d	74 48		 je	 SHORT $L199258

; 62   : 	{
; 63   : 		if( nBufSize < 0 || nBufSize > (1024*1024) )

  0002f	8b 5c 24 1c	 mov	 ebx, DWORD PTR _nBufSize$[esp+12]
  00033	3b d9		 cmp	 ebx, ecx
  00035	7c 64		 jl	 SHORT $L199256
  00037	81 fb 00 00 10
	00		 cmp	 ebx, 1048576		; 00100000H
  0003d	7f 5c		 jg	 SHORT $L199256
  0003f	57		 push	 edi

; 68   : 		}
; 69   : 		else
; 70   : 		{
; 71   : 			pov->lpBuf	= new BYTE[nBufSize];

  00040	53		 push	 ebx
  00041	e8 00 00 00 00	 call	 ??_U@YAPAXI@Z		; operator new[]
  00046	8b f8		 mov	 edi, eax
  00048	89 7d 18	 mov	 DWORD PTR [ebp+24], edi

; 72   : 			::memset( pov->lpBuf, 0, nBufSize );

  0004b	8b cb		 mov	 ecx, ebx
  0004d	8b d1		 mov	 edx, ecx
  0004f	c1 e9 02	 shr	 ecx, 2
  00052	33 c0		 xor	 eax, eax
  00054	f3 ab		 rep stosd
  00056	8b ca		 mov	 ecx, edx
  00058	83 e1 03	 and	 ecx, 3
  0005b	f3 aa		 rep stosb

; 73   : 
; 74   : 			::memcpy( pov->lpBuf, lpBuf, nBufSize );

  0005d	8b 7d 18	 mov	 edi, DWORD PTR [ebp+24]
  00060	8b cb		 mov	 ecx, ebx
  00062	8b c1		 mov	 eax, ecx
  00064	c1 e9 02	 shr	 ecx, 2
  00067	f3 a5		 rep movsd
  00069	83 c4 04	 add	 esp, 4
  0006c	8b c8		 mov	 ecx, eax
  0006e	83 e1 03	 and	 ecx, 3
  00071	f3 a4		 rep movsb

; 75   : 			pov->uBufSize	= nBufSize;

  00073	89 5d 1c	 mov	 DWORD PTR [ebp+28], ebx
  00076	5f		 pop	 edi
$L199258:

; 76   : 		}
; 77   : 	}
; 78   : 	//	mulcom	END100415	DB_OVERLAPPED_PLUS   .
; 79   : 
; 80   : 	pov->nQueryMode		= nQuery;
; 81   : 	return ::PostQueuedCompletionStatus( m_hIocp, 1, dwCompletionKey, &pov->Overlapped );

  00077	8b 44 24 20	 mov	 eax, DWORD PTR _dwCompletionKey$[esp+12]
  0007b	8b 54 24 14	 mov	 edx, DWORD PTR _nQuery$[esp+12]
  0007f	8b 4c 24 0c	 mov	 ecx, DWORD PTR _this$[esp+16]
  00083	55		 push	 ebp
  00084	50		 push	 eax
  00085	89 55 14	 mov	 DWORD PTR [ebp+20], edx
  00088	8b 51 04	 mov	 edx, DWORD PTR [ecx+4]
  0008b	6a 01		 push	 1
  0008d	52		 push	 edx
  0008e	ff 15 00 00 00
	00		 call	 DWORD PTR __imp__PostQueuedCompletionStatus@16
  00094	5e		 pop	 esi
  00095	5d		 pop	 ebp
  00096	5b		 pop	 ebx

; 82   : }

  00097	59		 pop	 ecx
  00098	c2 10 00	 ret	 16			; 00000010H
$L199256:

; 64   : 		{
; 65   : 			Error( "PostRequest nBufSize error. nQuery[%d], nBufSize[%d]", nQuery, nBufSize );

  0009b	8b 4c 24 14	 mov	 ecx, DWORD PTR _nQuery$[esp+12]
  0009f	53		 push	 ebx
  000a0	51		 push	 ecx
  000a1	68 00 00 00 00	 push	 OFFSET FLAT:??_C@_0DF@NIEDDNJK@PostRequest?5nBufSize?5error?4?5nQue@
  000a6	e8 00 00 00 00	 call	 ?Error@@YAPBDPBDZZ	; Error
  000ab	83 c4 0c	 add	 esp, 12			; 0000000cH
  000ae	5e		 pop	 esi
  000af	5d		 pop	 ebp

; 66   : 
; 67   : 			return	FALSE;

  000b0	33 c0		 xor	 eax, eax
  000b2	5b		 pop	 ebx

; 82   : }

  000b3	59		 pop	 ecx
  000b4	c2 10 00	 ret	 16			; 00000010H
?PostRequest@CDbController@@QAEHHPAEHK@Z ENDP		; CDbController::PostRequest
_TEXT	ENDS
PUBLIC	?CreateQuery@CDbController@@QAEPAVCQuery@@XZ	; CDbController::CreateQuery
PUBLIC	??_C@_0CM@ILHDLBHB@Can?8t?5connect?5db?3?5CDbController?4@ ; `string'
EXTRN	??0CQuery@@QAE@XZ:NEAR				; CQuery::CQuery
EXTRN	?Connect@CQuery@@QAEHHPAD0PBD@Z:NEAR		; CQuery::Connect
EXTRN	__except_list:DWORD
EXTRN	___CxxFrameHandler:NEAR
EXTRN	?GetInstance@CDbManager@@SAAAV1@XZ:NEAR		; CDbManager::GetInstance
EXTRN	?DSN_NAME_CHARACTER01@@3PADA:BYTE		; DSN_NAME_CHARACTER01
EXTRN	?DB_ADMIN_ID_CHARACTER01@@3PADA:BYTE		; DB_ADMIN_ID_CHARACTER01
EXTRN	?AfxMessageBox@@YGHPBDII@Z:NEAR			; AfxMessageBox
;	COMDAT xdata$x
xdata$x	SEGMENT
$T200914 DD	0ffffffffH
	DD	FLAT:$L200901
$T200909 DD	019930520H
	DD	01H
	DD	FLAT:$T200914
	DD	2 DUP(00H)
	DD	2 DUP(00H)
xdata$x	ENDS
;	COMDAT ??_C@_0CM@ILHDLBHB@Can?8t?5connect?5db?3?5CDbController?4@
CONST	SEGMENT
??_C@_0CM@ILHDLBHB@Can?8t?5connect?5db?3?5CDbController?4@ DB 'Can''t con'
	DB	'nect db: CDbController.CreateQuery', 00H	; `string'
; Function compile flags: /Ogty
CONST	ENDS
;	COMDAT ?CreateQuery@CDbController@@QAEPAVCQuery@@XZ
_TEXT	SEGMENT
$T200894 = -16						; size = 4
__$EHRec$ = -12						; size = 12
?CreateQuery@CDbController@@QAEPAVCQuery@@XZ PROC NEAR	; CDbController::CreateQuery, COMDAT
; _this$ = ecx

; 92   : {

  00000	6a ff		 push	 -1
  00002	68 00 00 00 00	 push	 __ehhandler$?CreateQuery@CDbController@@QAEPAVCQuery@@XZ
  00007	64 a1 00 00 00
	00		 mov	 eax, DWORD PTR fs:__except_list
  0000d	50		 push	 eax
  0000e	64 89 25 00 00
	00 00		 mov	 DWORD PTR fs:__except_list, esp
  00015	51		 push	 ecx
  00016	56		 push	 esi

; 93   : 	CQuery* pQuery	= new CQuery;

  00017	68 10 3d 00 00	 push	 15632			; 00003d10H
  0001c	e8 00 00 00 00	 call	 ??2@YAPAXI@Z		; operator new
  00021	83 c4 04	 add	 esp, 4
  00024	89 44 24 04	 mov	 DWORD PTR $T200894[esp+20], eax
  00028	85 c0		 test	 eax, eax
  0002a	c7 44 24 10 00
	00 00 00	 mov	 DWORD PTR __$EHRec$[esp+28], 0
  00032	74 0b		 je	 SHORT $L200895
  00034	8b c8		 mov	 ecx, eax
  00036	e8 00 00 00 00	 call	 ??0CQuery@@QAE@XZ	; CQuery::CQuery
  0003b	8b f0		 mov	 esi, eax
  0003d	eb 02		 jmp	 SHORT $L200896
$L200895:
  0003f	33 f6		 xor	 esi, esi
$L200896:
  00041	c7 44 24 10 ff
	ff ff ff	 mov	 DWORD PTR __$EHRec$[esp+28], -1

; 94   : 	const char* pass	= CDbManager::GetInstance().DB_ADMIN_PASS_CHARACTER01;

  00049	e8 00 00 00 00	 call	 ?GetInstance@CDbManager@@SAAAV1@XZ ; CDbManager::GetInstance
  0004e	05 c0 04 00 00	 add	 eax, 1216		; 000004c0H

; 95   : 	if( !pQuery->Connect( 3, DSN_NAME_CHARACTER01, DB_ADMIN_ID_CHARACTER01, pass ) )

  00053	50		 push	 eax
  00054	68 00 00 00 00	 push	 OFFSET FLAT:?DB_ADMIN_ID_CHARACTER01@@3PADA ; DB_ADMIN_ID_CHARACTER01
  00059	68 00 00 00 00	 push	 OFFSET FLAT:?DSN_NAME_CHARACTER01@@3PADA ; DSN_NAME_CHARACTER01
  0005e	6a 03		 push	 3
  00060	8b ce		 mov	 ecx, esi
  00062	e8 00 00 00 00	 call	 ?Connect@CQuery@@QAEHHPAD0PBD@Z ; CQuery::Connect
  00067	85 c0		 test	 eax, eax
  00069	75 32		 jne	 SHORT $L200911

; 96   : 	{
; 97   : 		::AfxMessageBox( "Can't connect db: CDbController.CreateQuery" );

  0006b	50		 push	 eax
  0006c	50		 push	 eax
  0006d	68 00 00 00 00	 push	 OFFSET FLAT:??_C@_0CM@ILHDLBHB@Can?8t?5connect?5db?3?5CDbController?4@
  00072	e8 00 00 00 00	 call	 ?AfxMessageBox@@YGHPBDII@Z ; AfxMessageBox

; 98   : 		SAFE_DELETE( pQuery );

  00077	85 f6		 test	 esi, esi
  00079	74 22		 je	 SHORT $L200911
  0007b	8b ce		 mov	 ecx, esi
  0007d	e8 00 00 00 00	 call	 ??1CQuery@@QAE@XZ	; CQuery::~CQuery
  00082	56		 push	 esi
  00083	e8 00 00 00 00	 call	 ??3@YAXPAX@Z		; operator delete
  00088	83 c4 04	 add	 esp, 4
  0008b	33 c0		 xor	 eax, eax
  0008d	5e		 pop	 esi

; 99   : 	}
; 100  : 	return pQuery;
; 101  : }

  0008e	8b 4c 24 04	 mov	 ecx, DWORD PTR __$EHRec$[esp+16]
  00092	64 89 0d 00 00
	00 00		 mov	 DWORD PTR fs:__except_list, ecx
  00099	83 c4 10	 add	 esp, 16			; 00000010H
  0009c	c3		 ret	 0
$L200911:
  0009d	8b 4c 24 08	 mov	 ecx, DWORD PTR __$EHRec$[esp+20]
  000a1	8b c6		 mov	 eax, esi
  000a3	5e		 pop	 esi
  000a4	64 89 0d 00 00
	00 00		 mov	 DWORD PTR fs:__except_list, ecx
  000ab	83 c4 10	 add	 esp, 16			; 00000010H
  000ae	c3		 ret	 0
_TEXT	ENDS
;	COMDAT text$x
text$x	SEGMENT
$L200901:
  00000	8b 45 f0	 mov	 eax, DWORD PTR $T200894[ebp]
  00003	50		 push	 eax
  00004	e8 00 00 00 00	 call	 ??3@YAXPAX@Z		; operator delete
  00009	59		 pop	 ecx
  0000a	c3		 ret	 0
__ehhandler$?CreateQuery@CDbController@@QAEPAVCQuery@@XZ:
  0000b	b8 00 00 00 00	 mov	 eax, OFFSET FLAT:$T200909
  00010	e9 00 00 00 00	 jmp	 ___CxxFrameHandler
text$x	ENDS
?CreateQuery@CDbController@@QAEPAVCQuery@@XZ ENDP	; CDbController::CreateQuery
PUBLIC	?DbHandler@CDbController@@QAEXXZ		; CDbController::DbHandler
EXTRN	??_V@YAXPAX@Z:NEAR				; operator delete[]
EXTRN	__imp__GetQueuedCompletionStatus@20:NEAR
; Function compile flags: /Ogty
;	COMDAT ?DbHandler@CDbController@@QAEXXZ
_TEXT	SEGMENT
_pov$ = -12						; size = 4
_dwBytesTransferred$ = -8				; size = 4
_dwCompletionKey$ = -4					; size = 4
?DbHandler@CDbController@@QAEXXZ PROC NEAR		; CDbController::DbHandler, COMDAT
; _this$ = ecx

; 104  : {

  00000	83 ec 0c	 sub	 esp, 12			; 0000000cH
  00003	55		 push	 ebp
  00004	56		 push	 esi
  00005	57		 push	 edi
  00006	8b f1		 mov	 esi, ecx

; 105  : 	CQuery* pQuery	= CreateQuery();

  00008	e8 00 00 00 00	 call	 ?CreateQuery@CDbController@@QAEPAVCQuery@@XZ ; CDbController::CreateQuery
  0000d	8b e8		 mov	 ebp, eax

; 106  : 	if( !pQuery )

  0000f	33 ff		 xor	 edi, edi
  00011	3b ef		 cmp	 ebp, edi
  00013	0f 84 90 00 00
	00		 je	 $L200922
  00019	53		 push	 ebx

; 107  : 		return;
; 108  : 	SetQueryObject( pQuery );
; 109  : 
; 110  : 	BOOL bReturnValue	= FALSE;
; 111  : 	DWORD dwBytesTransferred	= 0;
; 112  : 	DWORD dwCompletionKey	= 0;
; 113  : 	LPDB_OVERLAPPED_PLUS pov	= NULL;

  0001a	8b 1d 00 00 00
	00		 mov	 ebx, DWORD PTR __imp__GetQueuedCompletionStatus@20
  00020	89 6e 0c	 mov	 DWORD PTR [esi+12], ebp
  00023	89 7c 24 14	 mov	 DWORD PTR _dwBytesTransferred$[esp+28], edi
  00027	89 7c 24 18	 mov	 DWORD PTR _dwCompletionKey$[esp+28], edi
$L200936:

; 114  : 
; 115  : 	while( 1 )
; 116  : 	{
; 117  : 		bReturnValue
; 118  : 			= ::GetQueuedCompletionStatus( m_hIocp,
; 119  : 																		&dwBytesTransferred,
; 120  : 																		&dwCompletionKey,
; 121  : 																		(LPOVERLAPPED*)&pov,
; 122  : 																		INFINITE 
; 123  : 																	);

  0002b	6a ff		 push	 -1
  0002d	8d 44 24 14	 lea	 eax, DWORD PTR _pov$[esp+32]
  00031	50		 push	 eax
  00032	8b 46 04	 mov	 eax, DWORD PTR [esi+4]
  00035	8d 4c 24 20	 lea	 ecx, DWORD PTR _dwCompletionKey$[esp+36]
  00039	51		 push	 ecx
  0003a	8d 54 24 20	 lea	 edx, DWORD PTR _dwBytesTransferred$[esp+40]
  0003e	52		 push	 edx
  0003f	50		 push	 eax
  00040	89 7c 24 24	 mov	 DWORD PTR _pov$[esp+48], edi
  00044	ff d3		 call	 ebx

; 124  : 		if( FALSE == bReturnValue )
; 125  : 		{
; 126  : 			ASSERT( 0 );
; 127  : 		}
; 128  : 		if( dwBytesTransferred == 0 )

  00046	39 7c 24 14	 cmp	 DWORD PTR _dwBytesTransferred$[esp+28], edi
  0004a	74 4c		 je	 SHORT $L200935

; 131  : 			return;
; 132  : 		}
; 133  : 
; 134  : 		if( pov->nQueryMode == eTimer )

  0004c	8b 4c 24 10	 mov	 ecx, DWORD PTR _pov$[esp+28]
  00050	83 79 14 ff	 cmp	 DWORD PTR [ecx+20], -1
  00054	75 07		 jne	 SHORT $L199307

; 135  : 			OnTimer();

  00056	8b 16		 mov	 edx, DWORD PTR [esi]
  00058	8b ce		 mov	 ecx, esi
  0005a	ff 52 08	 call	 DWORD PTR [edx+8]
$L199307:

; 136  : 		
; 137  : 		Handler( pov, dwCompletionKey );

  0005d	8b 4c 24 18	 mov	 ecx, DWORD PTR _dwCompletionKey$[esp+28]
  00061	8b 54 24 10	 mov	 edx, DWORD PTR _pov$[esp+28]
  00065	8b 06		 mov	 eax, DWORD PTR [esi]
  00067	51		 push	 ecx
  00068	52		 push	 edx
  00069	8b ce		 mov	 ecx, esi
  0006b	ff 50 04	 call	 DWORD PTR [eax+4]

; 138  : 
; 139  : 		//	mulcom	BEGIN100415	DB_OVERLAPPED_PLUS   .
; 140  : 		SAFE_DELETE_ARRAY( pov->lpBuf );

  0006e	8b 44 24 10	 mov	 eax, DWORD PTR _pov$[esp+28]
  00072	8b 40 18	 mov	 eax, DWORD PTR [eax+24]
  00075	3b c7		 cmp	 eax, edi
  00077	74 10		 je	 SHORT $L199308
  00079	50		 push	 eax
  0007a	e8 00 00 00 00	 call	 ??_V@YAXPAX@Z		; operator delete[]
  0007f	8b 4c 24 14	 mov	 ecx, DWORD PTR _pov$[esp+32]
  00083	83 c4 04	 add	 esp, 4
  00086	89 79 18	 mov	 DWORD PTR [ecx+24], edi
$L199308:

; 141  : 		//	mulcom	END100415	DB_OVERLAPPED_PLUS   .
; 142  : 		SAFE_DELETE( pov );

  00089	8b 54 24 10	 mov	 edx, DWORD PTR _pov$[esp+28]
  0008d	52		 push	 edx
  0008e	e8 00 00 00 00	 call	 ??3@YAXPAX@Z		; operator delete
  00093	83 c4 04	 add	 esp, 4

; 143  : 	}

  00096	eb 93		 jmp	 SHORT $L200936
$L200935:

; 129  : 		{
; 130  : 			SAFE_DELETE( pQuery );

  00098	8b cd		 mov	 ecx, ebp
  0009a	e8 00 00 00 00	 call	 ??1CQuery@@QAE@XZ	; CQuery::~CQuery
  0009f	55		 push	 ebp
  000a0	e8 00 00 00 00	 call	 ??3@YAXPAX@Z		; operator delete
  000a5	83 c4 04	 add	 esp, 4
  000a8	5b		 pop	 ebx
$L200922:
  000a9	5f		 pop	 edi
  000aa	5e		 pop	 esi
  000ab	5d		 pop	 ebp

; 144  : }

  000ac	83 c4 0c	 add	 esp, 12			; 0000000cH
  000af	c3		 ret	 0
?DbHandler@CDbController@@QAEXXZ ENDP			; CDbController::DbHandler
_TEXT	ENDS
PUBLIC	?Post@post@@YAXKPAVCMail@@PAVCQuery@@@Z		; post::Post
PUBLIC	??_C@_0CJ@PIJPFKHL@BindParameter?$CI?$CJ?5or?5Exec?$CI?$CJ?3?5PostD@ ; `string'
EXTRN	?SendPostMail@CDPTrans@@QAEXHKPAVCMail@@@Z:NEAR	; CDPTrans::SendPostMail
EXTRN	?AddMail@CPost@@QAEKKPAVCMail@@@Z:NEAR		; CPost::AddMail
EXTRN	?GetMailBox@CPost@@QAEPAVCMailBox@@K@Z:NEAR	; CPost::GetMailBox
EXTRN	?Exec@CQuery@@QAEHPBD@Z:NEAR			; CQuery::Exec
EXTRN	?BindParameter@CQuery@@QAEHGFFFKFPAXJPAJ@Z:NEAR	; CQuery::BindParameter
EXTRN	__chkstk:NEAR
EXTRN	___security_cookie:DWORD
EXTRN	@__security_check_cookie@4:NEAR
EXTRN	?MakeQueryAddMail@CDbManager@@SAXPADPAVCMail@@K@Z:NEAR ; CDbManager::MakeQueryAddMail
EXTRN	?GetInstance@CPost@@SAPAV1@XZ:NEAR		; CPost::GetInstance
EXTRN	?GetInstance@CDPTrans@@SAPAV1@XZ:NEAR		; CDPTrans::GetInstance
EXTRN	?RemoveMail@CMailBox@@QAEHK@Z:NEAR		; CMailBox::RemoveMail
;	COMDAT ??_C@_0CJ@PIJPFKHL@BindParameter?$CI?$CJ?5or?5Exec?$CI?$CJ?3?5PostD@
; File c:\documents and settings\test\mes documents\source\virtuos_v17\build\program\_network\mcl\include\cmclcritsec.h
CONST	SEGMENT
??_C@_0CJ@PIJPFKHL@BindParameter?$CI?$CJ?5or?5Exec?$CI?$CJ?3?5PostD@ DB 'B'
	DB	'indParameter() or Exec(): PostDeposit()', 00H ; `string'
; Function compile flags: /Ogty
; File c:\documents and settings\test\mes documents\source\virtuos_v17\build\program\databaseserver\dbcontroller.cpp
CONST	ENDS
;	COMDAT ?Post@post@@YAXKPAVCMail@@PAVCQuery@@@Z
_TEXT	SEGMENT
_cbLen$199539 = -40980					; size = 4
$T200955 = -40976					; size = 4
_pPost$ = -40972					; size = 4
_szQuery$199538 = -40968				; size = 40960
__$ArrayPad$ = -4					; size = 4
__$ReturnAddr$ = 4					; size = 4
_idReceiver$ = 8					; size = 4
_pMail$ = 12						; size = 4
_pQuery$ = 16						; size = 4
?Post@post@@YAXKPAVCMail@@PAVCQuery@@@Z PROC NEAR	; post::Post, COMDAT

; 211  : 	{

  00000	55		 push	 ebp
  00001	8b ec		 mov	 ebp, esp
  00003	83 e4 f8	 and	 esp, -8			; fffffff8H
  00006	b8 14 a0 00 00	 mov	 eax, 40980		; 0000a014H
  0000b	e8 00 00 00 00	 call	 __chkstk
  00010	a1 00 00 00 00	 mov	 eax, DWORD PTR ___security_cookie
  00015	33 c5		 xor	 eax, ebp
  00017	53		 push	 ebx
  00018	89 84 24 14 a0
	00 00		 mov	 DWORD PTR __$ArrayPad$[esp+40984], eax
  0001f	8b 45 10	 mov	 eax, DWORD PTR _pQuery$[ebp]
  00022	56		 push	 esi
  00023	8b 75 0c	 mov	 esi, DWORD PTR _pMail$[ebp]
  00026	57		 push	 edi

; 212  : 		CPost* pPost	= CPost::GetInstance();

  00027	89 44 24 10	 mov	 DWORD PTR $T200955[esp+40992], eax
  0002b	e8 00 00 00 00	 call	 ?GetInstance@CPost@@SAPAV1@XZ ; CPost::GetInstance
  00030	8b f8		 mov	 edi, eax

; 213  : 		pPost->m_csPost.Enter();

  00032	8d 5f 14	 lea	 ebx, DWORD PTR [edi+20]
  00035	53		 push	 ebx
  00036	89 7c 24 18	 mov	 DWORD PTR _pPost$[esp+40996], edi
  0003a	ff 15 00 00 00
	00		 call	 DWORD PTR __imp__EnterCriticalSection@4

; 214  : 		BOOL bResult	= pPost->AddMail( idReceiver, pMail ) > 0;

  00040	8b 4d 08	 mov	 ecx, DWORD PTR _idReceiver$[ebp]
  00043	56		 push	 esi
  00044	51		 push	 ecx
  00045	8b cf		 mov	 ecx, edi
  00047	e8 00 00 00 00	 call	 ?AddMail@CPost@@QAEKKPAVCMail@@@Z ; CPost::AddMail
  0004c	33 d2		 xor	 edx, edx
  0004e	3b d0		 cmp	 edx, eax
  00050	1b ff		 sbb	 edi, edi

; 215  : 		pPost->m_csPost.Leave();

  00052	53		 push	 ebx
  00053	f7 df		 neg	 edi
  00055	ff 15 00 00 00
	00		 call	 DWORD PTR __imp__LeaveCriticalSection@4

; 216  : 		if( bResult )

  0005b	85 ff		 test	 edi, edi
  0005d	0f 84 e8 00 00
	00		 je	 $L200952

; 217  : 		{
; 218  : 			char szQuery[QUERY_SIZE]	= {0, };

  00063	33 c0		 xor	 eax, eax
  00065	c6 44 24 18 00	 mov	 BYTE PTR _szQuery$199538[esp+40992], 0
  0006a	b9 ff 27 00 00	 mov	 ecx, 10239		; 000027ffH
  0006f	8d 7c 24 19	 lea	 edi, DWORD PTR _szQuery$199538[esp+40993]
  00073	f3 ab		 rep stosd
  00075	66 ab		 stosw
  00077	aa		 stosb

; 219  : 			CDbManager::MakeQueryAddMail( szQuery, pMail, idReceiver );

  00078	8b 45 08	 mov	 eax, DWORD PTR _idReceiver$[ebp]
  0007b	50		 push	 eax
  0007c	8d 4c 24 1c	 lea	 ecx, DWORD PTR _szQuery$199538[esp+40996]
  00080	56		 push	 esi
  00081	51		 push	 ecx
  00082	e8 00 00 00 00	 call	 ?MakeQueryAddMail@CDbManager@@SAXPADPAVCMail@@K@Z ; CDbManager::MakeQueryAddMail

; 220  : 			SQLINTEGER cbLen	= SQL_NTS;
; 221  : 			BOOL bOk	= pQuery->BindParameter( 1, SQL_PARAM_INPUT, SQL_C_CHAR, SQL_VARCHAR, 128, 0, (void*)pMail->m_szTitle, 0, &cbLen )
; 222  : 				&& pQuery->BindParameter( 2, SQL_PARAM_INPUT, SQL_C_CHAR, SQL_VARCHAR, 1024, 0, (void*)pMail->m_szText, 0, &cbLen );

  00087	8b 7c 24 1c	 mov	 edi, DWORD PTR $T200955[esp+41004]
  0008b	83 c4 0c	 add	 esp, 12			; 0000000cH
  0008e	8d 54 24 0c	 lea	 edx, DWORD PTR _cbLen$199539[esp+40992]
  00092	52		 push	 edx
  00093	6a 00		 push	 0
  00095	8d 46 19	 lea	 eax, DWORD PTR [esi+25]
  00098	50		 push	 eax
  00099	6a 00		 push	 0
  0009b	68 80 00 00 00	 push	 128			; 00000080H
  000a0	6a 0c		 push	 12			; 0000000cH
  000a2	6a 01		 push	 1
  000a4	6a 01		 push	 1
  000a6	6a 01		 push	 1
  000a8	8b cf		 mov	 ecx, edi
  000aa	c7 44 24 30 fd
	ff ff ff	 mov	 DWORD PTR _cbLen$199539[esp+41028], -3 ; fffffffdH
  000b2	e8 00 00 00 00	 call	 ?BindParameter@CQuery@@QAEHGFFFKFPAXJPAJ@Z ; CQuery::BindParameter
  000b7	85 c0		 test	 eax, eax
  000b9	74 5d		 je	 SHORT $L199544
  000bb	8d 4c 24 0c	 lea	 ecx, DWORD PTR _cbLen$199539[esp+40992]
  000bf	51		 push	 ecx
  000c0	6a 00		 push	 0
  000c2	8d 56 39	 lea	 edx, DWORD PTR [esi+57]
  000c5	52		 push	 edx
  000c6	6a 00		 push	 0
  000c8	68 00 04 00 00	 push	 1024			; 00000400H
  000cd	6a 0c		 push	 12			; 0000000cH
  000cf	6a 01		 push	 1
  000d1	6a 01		 push	 1
  000d3	6a 02		 push	 2
  000d5	8b cf		 mov	 ecx, edi
  000d7	e8 00 00 00 00	 call	 ?BindParameter@CQuery@@QAEHGFFFKFPAXJPAJ@Z ; CQuery::BindParameter
  000dc	85 c0		 test	 eax, eax

; 223  : 			if( bOk )

  000de	74 38		 je	 SHORT $L199544

; 224  : 				bOk		= pQuery->Exec( szQuery );

  000e0	8d 44 24 18	 lea	 eax, DWORD PTR _szQuery$199538[esp+40992]
  000e4	50		 push	 eax
  000e5	8b cf		 mov	 ecx, edi
  000e7	e8 00 00 00 00	 call	 ?Exec@CQuery@@QAEHPBD@Z	; CQuery::Exec

; 225  : 			if( bOk )

  000ec	85 c0		 test	 eax, eax
  000ee	74 28		 je	 SHORT $L199544

; 226  : 			{
; 227  : 				CDPTrans::GetInstance()->SendPostMail( TRUE, idReceiver, pMail );

  000f0	8b 4d 08	 mov	 ecx, DWORD PTR _idReceiver$[ebp]
  000f3	56		 push	 esi
  000f4	51		 push	 ecx
  000f5	6a 01		 push	 1
  000f7	e8 00 00 00 00	 call	 ?GetInstance@CDPTrans@@SAPAV1@XZ ; CDPTrans::GetInstance
  000fc	8b c8		 mov	 ecx, eax
  000fe	e8 00 00 00 00	 call	 ?SendPostMail@CDPTrans@@QAEXHKPAVCMail@@@Z ; CDPTrans::SendPostMail

; 237  : 			}
; 238  : 		}
; 239  : 	}

  00103	5f		 pop	 edi
  00104	5e		 pop	 esi
  00105	5b		 pop	 ebx
  00106	8b 8c 24 10 a0
	00 00		 mov	 ecx, DWORD PTR __$ArrayPad$[esp+40980]
  0010d	33 cd		 xor	 ecx, ebp
  0010f	e8 00 00 00 00	 call	 @__security_check_cookie@4
  00114	8b e5		 mov	 esp, ebp
  00116	5d		 pop	 ebp
  00117	c3		 ret	 0
$L199544:

; 228  : 			}
; 229  : 			else
; 230  : 			{
; 231  : 				Error( "BindParameter() or Exec(): PostDeposit()" );

  00118	68 00 00 00 00	 push	 OFFSET FLAT:??_C@_0CJ@PIJPFKHL@BindParameter?$CI?$CJ?5or?5Exec?$CI?$CJ?3?5PostD@
  0011d	e8 00 00 00 00	 call	 ?Error@@YAPBDPBDZZ	; Error
  00122	83 c4 04	 add	 esp, 4

; 232  : 				pPost->m_csPost.Enter();

  00125	53		 push	 ebx
  00126	ff 15 00 00 00
	00		 call	 DWORD PTR __imp__EnterCriticalSection@4

; 233  : 				CMailBox* pMailBox	= pPost->GetMailBox( idReceiver );

  0012c	8b 55 08	 mov	 edx, DWORD PTR _idReceiver$[ebp]
  0012f	8b 4c 24 14	 mov	 ecx, DWORD PTR _pPost$[esp+40992]
  00133	52		 push	 edx
  00134	e8 00 00 00 00	 call	 ?GetMailBox@CPost@@QAEPAVCMailBox@@K@Z ; CPost::GetMailBox

; 234  : 				ASSERT( pMailBox );
; 235  : 				pMailBox->RemoveMail( pMail->m_nMail );

  00139	8b 4e 04	 mov	 ecx, DWORD PTR [esi+4]
  0013c	51		 push	 ecx
  0013d	8b c8		 mov	 ecx, eax
  0013f	e8 00 00 00 00	 call	 ?RemoveMail@CMailBox@@QAEHK@Z ; CMailBox::RemoveMail

; 236  : 				pPost->m_csPost.Leave();

  00144	53		 push	 ebx
  00145	ff 15 00 00 00
	00		 call	 DWORD PTR __imp__LeaveCriticalSection@4
$L200952:

; 237  : 			}
; 238  : 		}
; 239  : 	}

  0014b	8b 8c 24 1c a0
	00 00		 mov	 ecx, DWORD PTR __$ArrayPad$[esp+40992]
  00152	5f		 pop	 edi
  00153	5e		 pop	 esi
  00154	33 cd		 xor	 ecx, ebp
  00156	5b		 pop	 ebx
  00157	e8 00 00 00 00	 call	 @__security_check_cookie@4
  0015c	8b e5		 mov	 esp, ebp
  0015e	5d		 pop	 ebp
  0015f	c3		 ret	 0
?Post@post@@YAXKPAVCMail@@PAVCQuery@@@Z ENDP		; post::Post
_TEXT	ENDS
PUBLIC	??Diterator@?$vector@U?$pair@PAVCDbController@@K@std@@V?$allocator@U?$pair@PAVCDbController@@K@std@@@2@@std@@QBEAAU?$pair@PAVCDbController@@K@2@XZ ; std::vector<std::pair<CDbController *,unsigned long>,std::allocator<std::pair<CDbController *,unsigned long> > >::iterator::operator*
; Function compile flags: /Ogty
; File c:\program files\microsoft visual studio .net 2003\vc7\include\vector
;	COMDAT ??Diterator@?$vector@U?$pair@PAVCDbController@@K@std@@V?$allocator@U?$pair@PAVCDbController@@K@std@@@2@@std@@QBEAAU?$pair@PAVCDbController@@K@2@XZ
_TEXT	SEGMENT
??Diterator@?$vector@U?$pair@PAVCDbController@@K@std@@V?$allocator@U?$pair@PAVCDbController@@K@std@@@2@@std@@QBEAAU?$pair@PAVCDbController@@K@2@XZ PROC NEAR ; std::vector<std::pair<CDbController *,unsigned long>,std::allocator<std::pair<CDbController *,unsigned long> > >::iterator::operator*, COMDAT
; _this$ = ecx

; 220  : 			return ((reference)**(const_iterator *)this);

  00000	8b 01		 mov	 eax, DWORD PTR [ecx]

; 221  : 			}

  00002	c3		 ret	 0
??Diterator@?$vector@U?$pair@PAVCDbController@@K@std@@V?$allocator@U?$pair@PAVCDbController@@K@std@@@2@@std@@QBEAAU?$pair@PAVCDbController@@K@2@XZ ENDP ; std::vector<std::pair<CDbController *,unsigned long>,std::allocator<std::pair<CDbController *,unsigned long> > >::iterator::operator*
_TEXT	ENDS
PUBLIC	??Eiterator@?$vector@U?$pair@PAVCDbController@@K@std@@V?$allocator@U?$pair@PAVCDbController@@K@std@@@2@@std@@QAE?AV012@H@Z ; std::vector<std::pair<CDbController *,unsigned long>,std::allocator<std::pair<CDbController *,unsigned long> > >::iterator::operator++
; Function compile flags: /Ogty
;	COMDAT ??Eiterator@?$vector@U?$pair@PAVCDbController@@K@std@@V?$allocator@U?$pair@PAVCDbController@@K@std@@@2@@std@@QAE?AV012@H@Z
_TEXT	SEGMENT
___$ReturnUdt$ = 8					; size = 4
___formal$ = 12						; size = 4
??Eiterator@?$vector@U?$pair@PAVCDbController@@K@std@@V?$allocator@U?$pair@PAVCDbController@@K@std@@@2@@std@@QAE?AV012@H@Z PROC NEAR ; std::vector<std::pair<CDbController *,unsigned long>,std::allocator<std::pair<CDbController *,unsigned long> > >::iterator::operator++, COMDAT
; _this$ = ecx

; 236  : 			iterator _Tmp = *this;

  00000	8b 11		 mov	 edx, DWORD PTR [ecx]

; 237  : 			++*this;

  00002	8d 42 08	 lea	 eax, DWORD PTR [edx+8]
  00005	89 01		 mov	 DWORD PTR [ecx], eax

; 238  : 			return (_Tmp);

  00007	8b 44 24 04	 mov	 eax, DWORD PTR ___$ReturnUdt$[esp-4]
  0000b	89 10		 mov	 DWORD PTR [eax], edx

; 239  : 			}

  0000d	c2 08 00	 ret	 8
??Eiterator@?$vector@U?$pair@PAVCDbController@@K@std@@V?$allocator@U?$pair@PAVCDbController@@K@std@@@2@@std@@QAE?AV012@H@Z ENDP ; std::vector<std::pair<CDbController *,unsigned long>,std::allocator<std::pair<CDbController *,unsigned long> > >::iterator::operator++
_TEXT	ENDS
PUBLIC	??9const_iterator@?$vector@U?$pair@PAVCDbController@@K@std@@V?$allocator@U?$pair@PAVCDbController@@K@std@@@2@@std@@QBE_NABV012@@Z ; std::vector<std::pair<CDbController *,unsigned long>,std::allocator<std::pair<CDbController *,unsigned long> > >::const_iterator::operator!=
; Function compile flags: /Ogty
;	COMDAT ??9const_iterator@?$vector@U?$pair@PAVCDbController@@K@std@@V?$allocator@U?$pair@PAVCDbController@@K@std@@@2@@std@@QBE_NABV012@@Z
_TEXT	SEGMENT
__Right$ = 8						; size = 4
??9const_iterator@?$vector@U?$pair@PAVCDbController@@K@std@@V?$allocator@U?$pair@PAVCDbController@@K@std@@@2@@std@@QBE_NABV012@@Z PROC NEAR ; std::vector<std::pair<CDbController *,unsigned long>,std::allocator<std::pair<CDbController *,unsigned long> > >::const_iterator::operator!=, COMDAT
; _this$ = ecx

; 160  : 			return (!(*this == _Right));

  00000	8b 01		 mov	 eax, DWORD PTR [ecx]
  00002	8b 54 24 04	 mov	 edx, DWORD PTR __Right$[esp-4]
  00006	56		 push	 esi
  00007	8b 32		 mov	 esi, DWORD PTR [edx]
  00009	33 c9		 xor	 ecx, ecx
  0000b	3b c6		 cmp	 eax, esi
  0000d	0f 95 c1	 setne	 cl
  00010	8a c1		 mov	 al, cl
  00012	5e		 pop	 esi

; 161  : 			}

  00013	c2 04 00	 ret	 4
??9const_iterator@?$vector@U?$pair@PAVCDbController@@K@std@@V?$allocator@U?$pair@PAVCDbController@@K@std@@@2@@std@@QBE_NABV012@@Z ENDP ; std::vector<std::pair<CDbController *,unsigned long>,std::allocator<std::pair<CDbController *,unsigned long> > >::const_iterator::operator!=
_TEXT	ENDS
PUBLIC	??0?$_Vector_val@U?$pair@PAVCDbController@@K@std@@V?$allocator@U?$pair@PAVCDbController@@K@std@@@2@@std@@IAE@V?$allocator@U?$pair@PAVCDbController@@K@std@@@1@@Z ; std::_Vector_val<std::pair<CDbController *,unsigned long>,std::allocator<std::pair<CDbController *,unsigned long> > >::_Vector_val<std::pair<CDbController *,unsigned long>,std::allocator<std::pair<CDbController *,unsigned long> > >
; Function compile flags: /Ogty
;	COMDAT ??0?$_Vector_val@U?$pair@PAVCDbController@@K@std@@V?$allocator@U?$pair@PAVCDbController@@K@std@@@2@@std@@IAE@V?$allocator@U?$pair@PAVCDbController@@K@std@@@1@@Z
_TEXT	SEGMENT
__Al$ = 8						; size = 1
??0?$_Vector_val@U?$pair@PAVCDbController@@K@std@@V?$allocator@U?$pair@PAVCDbController@@K@std@@@2@@std@@IAE@V?$allocator@U?$pair@PAVCDbController@@K@std@@@1@@Z PROC NEAR ; std::_Vector_val<std::pair<CDbController *,unsigned long>,std::allocator<std::pair<CDbController *,unsigned long> > >::_Vector_val<std::pair<CDbController *,unsigned long>,std::allocator<std::pair<CDbController *,unsigned long> > >, COMDAT
; _this$ = ecx

; 21   : 		{	// construct allocator from _Al

  00000	8b c1		 mov	 eax, ecx

; 22   : 		}

  00002	c2 04 00	 ret	 4
??0?$_Vector_val@U?$pair@PAVCDbController@@K@std@@V?$allocator@U?$pair@PAVCDbController@@K@std@@@2@@std@@IAE@V?$allocator@U?$pair@PAVCDbController@@K@std@@@1@@Z ENDP ; std::_Vector_val<std::pair<CDbController *,unsigned long>,std::allocator<std::pair<CDbController *,unsigned long> > >::_Vector_val<std::pair<CDbController *,unsigned long>,std::allocator<std::pair<CDbController *,unsigned long> > >
_TEXT	ENDS
PUBLIC	??0iterator@?$vector@U?$pair@PAVCDbController@@K@std@@V?$allocator@U?$pair@PAVCDbController@@K@std@@@2@@std@@QAE@PAU?$pair@PAVCDbController@@K@2@@Z ; std::vector<std::pair<CDbController *,unsigned long>,std::allocator<std::pair<CDbController *,unsigned long> > >::iterator::iterator
; Function compile flags: /Ogty
;	COMDAT ??0iterator@?$vector@U?$pair@PAVCDbController@@K@std@@V?$allocator@U?$pair@PAVCDbController@@K@std@@@2@@std@@QAE@PAU?$pair@PAVCDbController@@K@2@@Z
_TEXT	SEGMENT
__Ptr$ = 8						; size = 4
??0iterator@?$vector@U?$pair@PAVCDbController@@K@std@@V?$allocator@U?$pair@PAVCDbController@@K@std@@@2@@std@@QAE@PAU?$pair@PAVCDbController@@K@2@@Z PROC NEAR ; std::vector<std::pair<CDbController *,unsigned long>,std::allocator<std::pair<CDbController *,unsigned long> > >::iterator::iterator, COMDAT
; _this$ = ecx

; 215  : 			{	// construct with pointer _Ptr

  00000	8b c1		 mov	 eax, ecx
  00002	8b 4c 24 04	 mov	 ecx, DWORD PTR __Ptr$[esp-4]
  00006	89 08		 mov	 DWORD PTR [eax], ecx

; 216  : 			}

  00008	c2 04 00	 ret	 4
??0iterator@?$vector@U?$pair@PAVCDbController@@K@std@@V?$allocator@U?$pair@PAVCDbController@@K@std@@@2@@std@@QAE@PAU?$pair@PAVCDbController@@K@2@@Z ENDP ; std::vector<std::pair<CDbController *,unsigned long>,std::allocator<std::pair<CDbController *,unsigned long> > >::iterator::iterator
_TEXT	ENDS
PUBLIC	?max_size@?$vector@U?$pair@PAVCDbController@@K@std@@V?$allocator@U?$pair@PAVCDbController@@K@std@@@2@@std@@QBEIXZ ; std::vector<std::pair<CDbController *,unsigned long>,std::allocator<std::pair<CDbController *,unsigned long> > >::max_size
; Function compile flags: /Ogty
;	COMDAT ?max_size@?$vector@U?$pair@PAVCDbController@@K@std@@V?$allocator@U?$pair@PAVCDbController@@K@std@@@2@@std@@QBEIXZ
_TEXT	SEGMENT
?max_size@?$vector@U?$pair@PAVCDbController@@K@std@@V?$allocator@U?$pair@PAVCDbController@@K@std@@@2@@std@@QBEIXZ PROC NEAR ; std::vector<std::pair<CDbController *,unsigned long>,std::allocator<std::pair<CDbController *,unsigned long> > >::max_size, COMDAT
; _this$ = ecx

; 521  : 		return (this->_Alval.max_size());

  00000	b8 ff ff ff 1f	 mov	 eax, 536870911		; 1fffffffH

; 522  : 		}

  00005	c3		 ret	 0
?max_size@?$vector@U?$pair@PAVCDbController@@K@std@@V?$allocator@U?$pair@PAVCDbController@@K@std@@@2@@std@@QBEIXZ ENDP ; std::vector<std::pair<CDbController *,unsigned long>,std::allocator<std::pair<CDbController *,unsigned long> > >::max_size
_TEXT	ENDS
PUBLIC	?allocate@?$allocator@U?$pair@PAVCDbController@@K@std@@@std@@QAEPAU?$pair@PAVCDbController@@K@2@I@Z ; std::allocator<std::pair<CDbController *,unsigned long> >::allocate
; Function compile flags: /Ogty
; File c:\program files\microsoft visual studio .net 2003\vc7\include\xmemory
;	COMDAT ?allocate@?$allocator@U?$pair@PAVCDbController@@K@std@@@std@@QAEPAU?$pair@PAVCDbController@@K@2@I@Z
_TEXT	SEGMENT
__Count$ = 8						; size = 4
?allocate@?$allocator@U?$pair@PAVCDbController@@K@std@@@std@@QAEPAU?$pair@PAVCDbController@@K@2@I@Z PROC NEAR ; std::allocator<std::pair<CDbController *,unsigned long> >::allocate, COMDAT
; _this$ = ecx

; 137  : 		return (_Allocate(_Count, (pointer)0));

  00000	8b 44 24 04	 mov	 eax, DWORD PTR __Count$[esp-4]
  00004	8d 0c c5 00 00
	00 00		 lea	 ecx, DWORD PTR [eax*8]
  0000b	51		 push	 ecx
  0000c	e8 00 00 00 00	 call	 ??2@YAPAXI@Z		; operator new
  00011	83 c4 04	 add	 esp, 4

; 138  : 		}

  00014	c2 04 00	 ret	 4
?allocate@?$allocator@U?$pair@PAVCDbController@@K@std@@@std@@QAEPAU?$pair@PAVCDbController@@K@2@I@Z ENDP ; std::allocator<std::pair<CDbController *,unsigned long> >::allocate
_TEXT	ENDS
PUBLIC	??Hiterator@?$vector@U?$pair@PAVCDbController@@K@std@@V?$allocator@U?$pair@PAVCDbController@@K@std@@@2@@std@@QBE?AV012@H@Z ; std::vector<std::pair<CDbController *,unsigned long>,std::allocator<std::pair<CDbController *,unsigned long> > >::iterator::operator+
; Function compile flags: /Ogty
; File c:\program files\microsoft visual studio .net 2003\vc7\include\vector
;	COMDAT ??Hiterator@?$vector@U?$pair@PAVCDbController@@K@std@@V?$allocator@U?$pair@PAVCDbController@@K@std@@@2@@std@@QBE?AV012@H@Z
_TEXT	SEGMENT
___$ReturnUdt$ = 8					; size = 4
__Off$ = 12						; size = 4
??Hiterator@?$vector@U?$pair@PAVCDbController@@K@std@@V?$allocator@U?$pair@PAVCDbController@@K@std@@@2@@std@@QBE?AV012@H@Z PROC NEAR ; std::vector<std::pair<CDbController *,unsigned long>,std::allocator<std::pair<CDbController *,unsigned long> > >::iterator::operator+, COMDAT
; _this$ = ecx

; 262  : 			iterator _Tmp = *this;
; 263  : 			return (_Tmp += _Off);

  00000	8b 01		 mov	 eax, DWORD PTR [ecx]
  00002	8b 4c 24 08	 mov	 ecx, DWORD PTR __Off$[esp-4]
  00006	8d 14 c8	 lea	 edx, DWORD PTR [eax+ecx*8]
  00009	8b 44 24 04	 mov	 eax, DWORD PTR ___$ReturnUdt$[esp-4]
  0000d	89 10		 mov	 DWORD PTR [eax], edx

; 264  : 			}

  0000f	c2 08 00	 ret	 8
??Hiterator@?$vector@U?$pair@PAVCDbController@@K@std@@V?$allocator@U?$pair@PAVCDbController@@K@std@@@2@@std@@QBE?AV012@H@Z ENDP ; std::vector<std::pair<CDbController *,unsigned long>,std::allocator<std::pair<CDbController *,unsigned long> > >::iterator::operator+
_TEXT	ENDS
PUBLIC	??Giterator@?$vector@U?$pair@PAVCDbController@@K@std@@V?$allocator@U?$pair@PAVCDbController@@K@std@@@2@@std@@QBEHABVconst_iterator@12@@Z ; std::vector<std::pair<CDbController *,unsigned long>,std::allocator<std::pair<CDbController *,unsigned long> > >::iterator::operator-
; Function compile flags: /Ogty
;	COMDAT ??Giterator@?$vector@U?$pair@PAVCDbController@@K@std@@V?$allocator@U?$pair@PAVCDbController@@K@std@@@2@@std@@QBEHABVconst_iterator@12@@Z
_TEXT	SEGMENT
__Right$ = 8						; size = 4
??Giterator@?$vector@U?$pair@PAVCDbController@@K@std@@V?$allocator@U?$pair@PAVCDbController@@K@std@@@2@@std@@QBEHABVconst_iterator@12@@Z PROC NEAR ; std::vector<std::pair<CDbController *,unsigned long>,std::allocator<std::pair<CDbController *,unsigned long> > >::iterator::operator-, COMDAT
; _this$ = ecx

; 279  : 			return ((const_iterator)*this - _Right);

  00000	8b 01		 mov	 eax, DWORD PTR [ecx]
  00002	8b 4c 24 04	 mov	 ecx, DWORD PTR __Right$[esp-4]
  00006	2b 01		 sub	 eax, DWORD PTR [ecx]
  00008	c1 f8 03	 sar	 eax, 3

; 280  : 			}

  0000b	c2 04 00	 ret	 4
??Giterator@?$vector@U?$pair@PAVCDbController@@K@std@@V?$allocator@U?$pair@PAVCDbController@@K@std@@@2@@std@@QBEHABVconst_iterator@12@@Z ENDP ; std::vector<std::pair<CDbController *,unsigned long>,std::allocator<std::pair<CDbController *,unsigned long> > >::iterator::operator-
_TEXT	ENDS
PUBLIC	??$make_pair@PAVCDbController@@K@std@@YA?AU?$pair@PAVCDbController@@K@0@PAVCDbController@@K@Z ; std::make_pair<CDbController *,unsigned long>
; Function compile flags: /Ogty
; File c:\program files\microsoft visual studio .net 2003\vc7\include\utility
;	COMDAT ??$make_pair@PAVCDbController@@K@std@@YA?AU?$pair@PAVCDbController@@K@0@PAVCDbController@@K@Z
_TEXT	SEGMENT
___$ReturnUdt$ = 8					; size = 4
__Val1$ = 12						; size = 4
__Val2$ = 16						; size = 4
??$make_pair@PAVCDbController@@K@std@@YA?AU?$pair@PAVCDbController@@K@0@PAVCDbController@@K@Z PROC NEAR ; std::make_pair<CDbController *,unsigned long>, COMDAT

; 108  : 	return (pair<_Ty1, _Ty2>(_Val1, _Val2));

  00000	8b 44 24 04	 mov	 eax, DWORD PTR ___$ReturnUdt$[esp-4]
  00004	8b 4c 24 08	 mov	 ecx, DWORD PTR __Val1$[esp-4]
  00008	8b 54 24 0c	 mov	 edx, DWORD PTR __Val2$[esp-4]
  0000c	89 08		 mov	 DWORD PTR [eax], ecx
  0000e	89 50 04	 mov	 DWORD PTR [eax+4], edx

; 109  : 	}

  00011	c3		 ret	 0
??$make_pair@PAVCDbController@@K@std@@YA?AU?$pair@PAVCDbController@@K@0@PAVCDbController@@K@Z ENDP ; std::make_pair<CDbController *,unsigned long>
_TEXT	ENDS
PUBLIC	??$copy_backward@PAU?$pair@PAVCDbController@@K@std@@PAU12@@std@@YAPAU?$pair@PAVCDbController@@K@0@PAU10@00@Z ; std::copy_backward<std::pair<CDbController *,unsigned long> *,std::pair<CDbController *,unsigned long> *>
; Function compile flags: /Ogty
; File c:\program files\microsoft visual studio .net 2003\vc7\include\xutility
;	COMDAT ??$copy_backward@PAU?$pair@PAVCDbController@@K@std@@PAU12@@std@@YAPAU?$pair@PAVCDbController@@K@0@PAU10@00@Z
_TEXT	SEGMENT
__First$ = 8						; size = 4
__Last$ = 12						; size = 4
__Dest$ = 16						; size = 4
??$copy_backward@PAU?$pair@PAVCDbController@@K@std@@PAU12@@std@@YAPAU?$pair@PAVCDbController@@K@0@PAU10@00@Z PROC NEAR ; std::copy_backward<std::pair<CDbController *,unsigned long> *,std::pair<CDbController *,unsigned long> *>, COMDAT

; 1068 : 	return (_Copy_backward_opt(_First, _Last, _Dest,
; 1069 : 		_Ptr_cat(_First, _Dest)));

  00000	8b 4c 24 08	 mov	 ecx, DWORD PTR __Last$[esp-4]
  00004	8b 54 24 04	 mov	 edx, DWORD PTR __First$[esp-4]
  00008	3b d1		 cmp	 edx, ecx
  0000a	8b 44 24 0c	 mov	 eax, DWORD PTR __Dest$[esp-4]
  0000e	74 17		 je	 SHORT $L201028
  00010	56		 push	 esi
$L201027:
  00011	8b 71 f8	 mov	 esi, DWORD PTR [ecx-8]
  00014	83 e9 08	 sub	 ecx, 8
  00017	83 e8 08	 sub	 eax, 8
  0001a	3b ca		 cmp	 ecx, edx
  0001c	89 30		 mov	 DWORD PTR [eax], esi
  0001e	8b 71 04	 mov	 esi, DWORD PTR [ecx+4]
  00021	89 70 04	 mov	 DWORD PTR [eax+4], esi
  00024	75 eb		 jne	 SHORT $L201027
  00026	5e		 pop	 esi
$L201028:

; 1070 : 	}

  00027	c3		 ret	 0
??$copy_backward@PAU?$pair@PAVCDbController@@K@std@@PAU12@@std@@YAPAU?$pair@PAVCDbController@@K@0@PAU10@00@Z ENDP ; std::copy_backward<std::pair<CDbController *,unsigned long> *,std::pair<CDbController *,unsigned long> *>
_TEXT	ENDS
PUBLIC	?construct@?$allocator@U?$pair@PAVCDbController@@K@std@@@std@@QAEXPAU?$pair@PAVCDbController@@K@2@ABU32@@Z ; std::allocator<std::pair<CDbController *,unsigned long> >::construct
; Function compile flags: /Ogty
; File c:\program files\microsoft visual studio .net 2003\vc7\include\xmemory
;	COMDAT ?construct@?$allocator@U?$pair@PAVCDbController@@K@std@@@std@@QAEXPAU?$pair@PAVCDbController@@K@2@ABU32@@Z
_TEXT	SEGMENT
__Ptr$ = 8						; size = 4
__Val$ = 12						; size = 4
?construct@?$allocator@U?$pair@PAVCDbController@@K@std@@@std@@QAEXPAU?$pair@PAVCDbController@@K@2@ABU32@@Z PROC NEAR ; std::allocator<std::pair<CDbController *,unsigned long> >::construct, COMDAT
; _this$ = ecx

; 147  : 		_Construct(_Ptr, _Val);

  00000	8b 44 24 04	 mov	 eax, DWORD PTR __Ptr$[esp-4]
  00004	85 c0		 test	 eax, eax
  00006	74 0e		 je	 SHORT $L201046
  00008	8b 4c 24 08	 mov	 ecx, DWORD PTR __Val$[esp-4]
  0000c	8b 11		 mov	 edx, DWORD PTR [ecx]
  0000e	89 10		 mov	 DWORD PTR [eax], edx
  00010	8b 49 04	 mov	 ecx, DWORD PTR [ecx+4]
  00013	89 48 04	 mov	 DWORD PTR [eax+4], ecx
$L201046:

; 148  : 		}

  00016	c2 08 00	 ret	 8
?construct@?$allocator@U?$pair@PAVCDbController@@K@std@@@std@@QAEXPAU?$pair@PAVCDbController@@K@2@ABU32@@Z ENDP ; std::allocator<std::pair<CDbController *,unsigned long> >::construct
_TEXT	ENDS
PUBLIC	?destroy@?$allocator@U?$pair@PAVCDbController@@K@std@@@std@@QAEXPAU?$pair@PAVCDbController@@K@2@@Z ; std::allocator<std::pair<CDbController *,unsigned long> >::destroy
; Function compile flags: /Ogty
;	COMDAT ?destroy@?$allocator@U?$pair@PAVCDbController@@K@std@@@std@@QAEXPAU?$pair@PAVCDbController@@K@2@@Z
_TEXT	SEGMENT
__Ptr$ = 8						; size = 4
?destroy@?$allocator@U?$pair@PAVCDbController@@K@std@@@std@@QAEXPAU?$pair@PAVCDbController@@K@2@@Z PROC NEAR ; std::allocator<std::pair<CDbController *,unsigned long> >::destroy, COMDAT
; _this$ = ecx

; 152  : 		_Destroy(_Ptr);
; 153  : 		}

  00000	c2 04 00	 ret	 4
?destroy@?$allocator@U?$pair@PAVCDbController@@K@std@@@std@@QAEXPAU?$pair@PAVCDbController@@K@2@@Z ENDP ; std::allocator<std::pair<CDbController *,unsigned long> >::destroy
_TEXT	ENDS
PUBLIC	??$_Uninit_copy@PAU?$pair@PAVCDbController@@K@std@@PAU12@V?$allocator@U?$pair@PAVCDbController@@K@std@@@2@@std@@YAPAU?$pair@PAVCDbController@@K@0@PAU10@00AAV?$allocator@U?$pair@PAVCDbController@@K@std@@@0@U_Nonscalar_ptr_iterator_tag@0@@Z ; std::_Uninit_copy<std::pair<CDbController *,unsigned long> *,std::pair<CDbController *,unsigned long> *,std::allocator<std::pair<CDbController *,unsigned long> > >
EXTRN	__CxxThrowException@8:NEAR
; Function compile flags: /Ogty
; File c:\program files\microsoft visual studio .net 2003\vc7\include\memory
;	COMDAT ??$_Uninit_copy@PAU?$pair@PAVCDbController@@K@std@@PAU12@V?$allocator@U?$pair@PAVCDbController@@K@std@@@2@@std@@YAPAU?$pair@PAVCDbController@@K@0@PAU10@00AAV?$allocator@U?$pair@PAVCDbController@@K@std@@@0@U_Nonscalar_ptr_iterator_tag@0@@Z
_TEXT	SEGMENT
__First$ = 8						; size = 4
__Last$ = 12						; size = 4
__Dest$ = 16						; size = 4
__Al$ = 20						; size = 4
___formal$ = 24						; size = 1
??$_Uninit_copy@PAU?$pair@PAVCDbController@@K@std@@PAU12@V?$allocator@U?$pair@PAVCDbController@@K@std@@@2@@std@@YAPAU?$pair@PAVCDbController@@K@0@PAU10@00AAV?$allocator@U?$pair@PAVCDbController@@K@std@@@0@U_Nonscalar_ptr_iterator_tag@0@@Z PROC NEAR ; std::_Uninit_copy<std::pair<CDbController *,unsigned long> *,std::pair<CDbController *,unsigned long> *,std::allocator<std::pair<CDbController *,unsigned long> > >, COMDAT

; 78   : 	_FwdIt _Next = _Dest;
; 79   : 
; 80   : 	_TRY_BEGIN
; 81   : 	for (; _First != _Last; ++_Dest, ++_First)

  00000	8b 4c 24 04	 mov	 ecx, DWORD PTR __First$[esp-4]
  00004	8b 54 24 08	 mov	 edx, DWORD PTR __Last$[esp-4]
  00008	3b ca		 cmp	 ecx, edx
  0000a	8b 44 24 0c	 mov	 eax, DWORD PTR __Dest$[esp-4]
  0000e	74 1a		 je	 SHORT $L200374
  00010	56		 push	 esi
$L200372:

; 82   : 		_Al.construct(_Dest, *_First);

  00011	85 c0		 test	 eax, eax
  00013	74 0a		 je	 SHORT $L200373
  00015	8b 31		 mov	 esi, DWORD PTR [ecx]
  00017	89 30		 mov	 DWORD PTR [eax], esi
  00019	8b 71 04	 mov	 esi, DWORD PTR [ecx+4]
  0001c	89 70 04	 mov	 DWORD PTR [eax+4], esi
$L200373:
  0001f	83 c1 08	 add	 ecx, 8
  00022	83 c0 08	 add	 eax, 8
  00025	3b ca		 cmp	 ecx, edx
  00027	75 e8		 jne	 SHORT $L200372
  00029	5e		 pop	 esi
$L200374:

; 83   : 	_CATCH_ALL
; 84   : 	for (; _Next != _Dest; ++_Next)
; 85   : 		_Al.destroy(_Next);
; 86   : 	_RERAISE;
; 87   : 	_CATCH_END
; 88   : 	return (_Dest);
; 89   : 	}

  0002a	c3		 ret	 0
??$_Uninit_copy@PAU?$pair@PAVCDbController@@K@std@@PAU12@V?$allocator@U?$pair@PAVCDbController@@K@std@@@2@@std@@YAPAU?$pair@PAVCDbController@@K@0@PAU10@00AAV?$allocator@U?$pair@PAVCDbController@@K@std@@@0@U_Nonscalar_ptr_iterator_tag@0@@Z ENDP ; std::_Uninit_copy<std::pair<CDbController *,unsigned long> *,std::pair<CDbController *,unsigned long> *,std::allocator<std::pair<CDbController *,unsigned long> > >
_TEXT	ENDS
PUBLIC	??0?$_String_val@DV?$allocator@D@std@@@std@@IAE@V?$allocator@D@1@@Z ; std::_String_val<char,std::allocator<char> >::_String_val<char,std::allocator<char> >
; Function compile flags: /Ogty
; File c:\program files\microsoft visual studio .net 2003\vc7\include\xstring
;	COMDAT ??0?$_String_val@DV?$allocator@D@std@@@std@@IAE@V?$allocator@D@1@@Z
_TEXT	SEGMENT
__Al$ = 8						; size = 1
??0?$_String_val@DV?$allocator@D@std@@@std@@IAE@V?$allocator@D@1@@Z PROC NEAR ; std::_String_val<char,std::allocator<char> >::_String_val<char,std::allocator<char> >, COMDAT
; _this$ = ecx

; 34   : 		{	// construct allocator from _Al

  00000	8b c1		 mov	 eax, ecx

; 35   : 		}

  00002	c2 04 00	 ret	 4
??0?$_String_val@DV?$allocator@D@std@@@std@@IAE@V?$allocator@D@1@@Z ENDP ; std::_String_val<char,std::allocator<char> >::_String_val<char,std::allocator<char> >
_TEXT	ENDS
PUBLIC	?_Eos@?$basic_string@DU?$char_traits@D@std@@V?$allocator@D@2@@std@@IAEXI@Z ; std::basic_string<char,std::char_traits<char>,std::allocator<char> >::_Eos
; Function compile flags: /Ogty
;	COMDAT ?_Eos@?$basic_string@DU?$char_traits@D@std@@V?$allocator@D@2@@std@@IAEXI@Z
_TEXT	SEGMENT
__Newsize$ = 8						; size = 4
?_Eos@?$basic_string@DU?$char_traits@D@std@@V?$allocator@D@2@@std@@IAEXI@Z PROC NEAR ; std::basic_string<char,std::char_traits<char>,std::allocator<char> >::_Eos, COMDAT
; _this$ = ecx

; 1475 : 		_Traits::assign(_Myptr()[_Mysize = _Newsize], _Elem());

  00000	83 79 18 10	 cmp	 DWORD PTR [ecx+24], 16	; 00000010H
  00004	8b 44 24 04	 mov	 eax, DWORD PTR __Newsize$[esp-4]
  00008	89 41 14	 mov	 DWORD PTR [ecx+20], eax
  0000b	72 0a		 jb	 SHORT $L201102
  0000d	8b 49 04	 mov	 ecx, DWORD PTR [ecx+4]
  00010	c6 04 01 00	 mov	 BYTE PTR [ecx+eax], 0

; 1476 : 		}

  00014	c2 04 00	 ret	 4

; 1475 : 		_Traits::assign(_Myptr()[_Mysize = _Newsize], _Elem());

$L201102:
  00017	c6 44 01 04 00	 mov	 BYTE PTR [ecx+eax+4], 0

; 1476 : 		}

  0001c	c2 04 00	 ret	 4
?_Eos@?$basic_string@DU?$char_traits@D@std@@V?$allocator@D@2@@std@@IAEXI@Z ENDP ; std::basic_string<char,std::char_traits<char>,std::allocator<char> >::_Eos
_TEXT	ENDS
PUBLIC	?max_size@?$basic_string@DU?$char_traits@D@std@@V?$allocator@D@2@@std@@QBEIXZ ; std::basic_string<char,std::char_traits<char>,std::allocator<char> >::max_size
; Function compile flags: /Ogty
;	COMDAT ?max_size@?$basic_string@DU?$char_traits@D@std@@V?$allocator@D@2@@std@@QBEIXZ
_TEXT	SEGMENT
?max_size@?$basic_string@DU?$char_traits@D@std@@V?$allocator@D@2@@std@@QBEIXZ PROC NEAR ; std::basic_string<char,std::char_traits<char>,std::allocator<char> >::max_size, COMDAT
; _this$ = ecx

; 1114 : 		size_type _Num = _Mybase::_Alval.max_size();
; 1115 : 		return (_Num <= 1 ? 1 : _Num - 1);

  00000	b8 fe ff ff ff	 mov	 eax, -2			; fffffffeH

; 1116 : 		}

  00005	c3		 ret	 0
?max_size@?$basic_string@DU?$char_traits@D@std@@V?$allocator@D@2@@std@@QBEIXZ ENDP ; std::basic_string<char,std::char_traits<char>,std::allocator<char> >::max_size
_TEXT	ENDS
PUBLIC	?allocate@?$allocator@D@std@@QAEPADI@Z		; std::allocator<char>::allocate
; Function compile flags: /Ogty
; File c:\program files\microsoft visual studio .net 2003\vc7\include\xmemory
;	COMDAT ?allocate@?$allocator@D@std@@QAEPADI@Z
_TEXT	SEGMENT
__Count$ = 8						; size = 4
?allocate@?$allocator@D@std@@QAEPADI@Z PROC NEAR	; std::allocator<char>::allocate, COMDAT
; _this$ = ecx

; 137  : 		return (_Allocate(_Count, (pointer)0));

  00000	8b 44 24 04	 mov	 eax, DWORD PTR __Count$[esp-4]
  00004	50		 push	 eax
  00005	e8 00 00 00 00	 call	 ??2@YAPAXI@Z		; operator new
  0000a	83 c4 04	 add	 esp, 4

; 138  : 		}

  0000d	c2 04 00	 ret	 4
?allocate@?$allocator@D@std@@QAEPADI@Z ENDP		; std::allocator<char>::allocate
_TEXT	ENDS
PUBLIC	?_DbHandler@CDbController@@SAKPAPAX@Z		; CDbController::_DbHandler
; Function compile flags: /Ogty
; File c:\documents and settings\test\mes documents\source\virtuos_v17\build\program\databaseserver\dbcontroller.cpp
;	COMDAT ?_DbHandler@CDbController@@SAKPAPAX@Z
_TEXT	SEGMENT
_pParam$ = 8						; size = 4
?_DbHandler@CDbController@@SAKPAPAX@Z PROC NEAR		; CDbController::_DbHandler, COMDAT

; 86   : 	CDbController* pController	= reinterpret_cast<CDbController*>( pParam );
; 87   : 	pController->DbHandler();

  00000	8b 4c 24 04	 mov	 ecx, DWORD PTR _pParam$[esp-4]
  00004	e8 00 00 00 00	 call	 ?DbHandler@CDbController@@QAEXXZ ; CDbController::DbHandler

; 88   : 	return 0;

  00009	33 c0		 xor	 eax, eax

; 89   : }

  0000b	c3		 ret	 0
?_DbHandler@CDbController@@SAKPAPAX@Z ENDP		; CDbController::_DbHandler
_TEXT	ENDS
PUBLIC	?begin@?$vector@U?$pair@PAVCDbController@@K@std@@V?$allocator@U?$pair@PAVCDbController@@K@std@@@2@@std@@QAE?AViterator@12@XZ ; std::vector<std::pair<CDbController *,unsigned long>,std::allocator<std::pair<CDbController *,unsigned long> > >::begin
; Function compile flags: /Ogty
; File c:\program files\microsoft visual studio .net 2003\vc7\include\vector
;	COMDAT ?begin@?$vector@U?$pair@PAVCDbController@@K@std@@V?$allocator@U?$pair@PAVCDbController@@K@std@@@2@@std@@QAE?AViterator@12@XZ
_TEXT	SEGMENT
___$ReturnUdt$ = 8					; size = 4
?begin@?$vector@U?$pair@PAVCDbController@@K@std@@V?$allocator@U?$pair@PAVCDbController@@K@std@@@2@@std@@QAE?AViterator@12@XZ PROC NEAR ; std::vector<std::pair<CDbController *,unsigned long>,std::allocator<std::pair<CDbController *,unsigned long> > >::begin, COMDAT
; _this$ = ecx

; 463  : 		return (iterator(_Myfirst));

  00000	8b 49 04	 mov	 ecx, DWORD PTR [ecx+4]
  00003	8b 44 24 04	 mov	 eax, DWORD PTR ___$ReturnUdt$[esp-4]
  00007	89 08		 mov	 DWORD PTR [eax], ecx

; 464  : 		}

  00009	c2 04 00	 ret	 4
?begin@?$vector@U?$pair@PAVCDbController@@K@std@@V?$allocator@U?$pair@PAVCDbController@@K@std@@@2@@std@@QAE?AViterator@12@XZ ENDP ; std::vector<std::pair<CDbController *,unsigned long>,std::allocator<std::pair<CDbController *,unsigned long> > >::begin
_TEXT	ENDS
PUBLIC	?end@?$vector@U?$pair@PAVCDbController@@K@std@@V?$allocator@U?$pair@PAVCDbController@@K@std@@@2@@std@@QAE?AViterator@12@XZ ; std::vector<std::pair<CDbController *,unsigned long>,std::allocator<std::pair<CDbController *,unsigned long> > >::end
; Function compile flags: /Ogty
;	COMDAT ?end@?$vector@U?$pair@PAVCDbController@@K@std@@V?$allocator@U?$pair@PAVCDbController@@K@std@@@2@@std@@QAE?AViterator@12@XZ
_TEXT	SEGMENT
___$ReturnUdt$ = 8					; size = 4
?end@?$vector@U?$pair@PAVCDbController@@K@std@@V?$allocator@U?$pair@PAVCDbController@@K@std@@@2@@std@@QAE?AViterator@12@XZ PROC NEAR ; std::vector<std::pair<CDbController *,unsigned long>,std::allocator<std::pair<CDbController *,unsigned long> > >::end, COMDAT
; _this$ = ecx

; 473  : 		return (iterator(_Mylast));

  00000	8b 49 08	 mov	 ecx, DWORD PTR [ecx+8]
  00003	8b 44 24 04	 mov	 eax, DWORD PTR ___$ReturnUdt$[esp-4]
  00007	89 08		 mov	 DWORD PTR [eax], ecx

; 474  : 		}

  00009	c2 04 00	 ret	 4
?end@?$vector@U?$pair@PAVCDbController@@K@std@@V?$allocator@U?$pair@PAVCDbController@@K@std@@@2@@std@@QAE?AViterator@12@XZ ENDP ; std::vector<std::pair<CDbController *,unsigned long>,std::allocator<std::pair<CDbController *,unsigned long> > >::end
_TEXT	ENDS
PUBLIC	??$_Uninit_fill_n@PAU?$pair@PAVCDbController@@K@std@@IU12@V?$allocator@U?$pair@PAVCDbController@@K@std@@@2@@std@@YAXPAU?$pair@PAVCDbController@@K@0@IABU10@AAV?$allocator@U?$pair@PAVCDbController@@K@std@@@0@U_Nonscalar_ptr_iterator_tag@0@@Z ; std::_Uninit_fill_n<std::pair<CDbController *,unsigned long> *,unsigned int,std::pair<CDbController *,unsigned long>,std::allocator<std::pair<CDbController *,unsigned long> > >
; Function compile flags: /Ogty
; File c:\program files\microsoft visual studio .net 2003\vc7\include\memory
;	COMDAT ??$_Uninit_fill_n@PAU?$pair@PAVCDbController@@K@std@@IU12@V?$allocator@U?$pair@PAVCDbController@@K@std@@@2@@std@@YAXPAU?$pair@PAVCDbController@@K@0@IABU10@AAV?$allocator@U?$pair@PAVCDbController@@K@std@@@0@U_Nonscalar_ptr_iterator_tag@0@@Z
_TEXT	SEGMENT
__First$ = 8						; size = 4
__Count$ = 12						; size = 4
__Val$ = 16						; size = 4
__Al$ = 20						; size = 4
___formal$ = 24						; size = 1
??$_Uninit_fill_n@PAU?$pair@PAVCDbController@@K@std@@IU12@V?$allocator@U?$pair@PAVCDbController@@K@std@@@2@@std@@YAXPAU?$pair@PAVCDbController@@K@0@IABU10@AAV?$allocator@U?$pair@PAVCDbController@@K@std@@@0@U_Nonscalar_ptr_iterator_tag@0@@Z PROC NEAR ; std::_Uninit_fill_n<std::pair<CDbController *,unsigned long> *,unsigned int,std::pair<CDbController *,unsigned long>,std::allocator<std::pair<CDbController *,unsigned long> > >, COMDAT

; 208  : 	_FwdIt _Next = _First;
; 209  : 
; 210  : 	_TRY_BEGIN
; 211  : 	for (; 0 < _Count; --_Count, ++_First)

  00000	8b 44 24 08	 mov	 eax, DWORD PTR __Count$[esp-4]
  00004	85 c0		 test	 eax, eax
  00006	76 20		 jbe	 SHORT $L200300
  00008	8b 4c 24 0c	 mov	 ecx, DWORD PTR __Val$[esp-4]
  0000c	8b d0		 mov	 edx, eax
  0000e	8b 44 24 04	 mov	 eax, DWORD PTR __First$[esp-4]
  00012	56		 push	 esi
$L200298:

; 212  : 		_Al.construct(_First, _Val);

  00013	85 c0		 test	 eax, eax
  00015	74 0a		 je	 SHORT $L200299
  00017	8b 31		 mov	 esi, DWORD PTR [ecx]
  00019	89 30		 mov	 DWORD PTR [eax], esi
  0001b	8b 71 04	 mov	 esi, DWORD PTR [ecx+4]
  0001e	89 70 04	 mov	 DWORD PTR [eax+4], esi
$L200299:
  00021	83 c0 08	 add	 eax, 8
  00024	4a		 dec	 edx
  00025	75 ec		 jne	 SHORT $L200298
  00027	5e		 pop	 esi
$L200300:

; 213  : 	_CATCH_ALL
; 214  : 	for (; _Next != _First; ++_Next)
; 215  : 		_Al.destroy(_Next);
; 216  : 	_RERAISE;
; 217  : 	_CATCH_END
; 218  : 	}

  00028	c3		 ret	 0
??$_Uninit_fill_n@PAU?$pair@PAVCDbController@@K@std@@IU12@V?$allocator@U?$pair@PAVCDbController@@K@std@@@2@@std@@YAXPAU?$pair@PAVCDbController@@K@0@IABU10@AAV?$allocator@U?$pair@PAVCDbController@@K@std@@@0@U_Nonscalar_ptr_iterator_tag@0@@Z ENDP ; std::_Uninit_fill_n<std::pair<CDbController *,unsigned long> *,unsigned int,std::pair<CDbController *,unsigned long>,std::allocator<std::pair<CDbController *,unsigned long> > >
_TEXT	ENDS
PUBLIC	??$_Destroy_range@U?$pair@PAVCDbController@@K@std@@V?$allocator@U?$pair@PAVCDbController@@K@std@@@2@@std@@YAXPAU?$pair@PAVCDbController@@K@0@0AAV?$allocator@U?$pair@PAVCDbController@@K@std@@@0@U_Nonscalar_ptr_iterator_tag@0@@Z ; std::_Destroy_range<std::pair<CDbController *,unsigned long>,std::allocator<std::pair<CDbController *,unsigned long> > >
; Function compile flags: /Ogty
; File c:\program files\microsoft visual studio .net 2003\vc7\include\xmemory
;	COMDAT ??$_Destroy_range@U?$pair@PAVCDbController@@K@std@@V?$allocator@U?$pair@PAVCDbController@@K@std@@@2@@std@@YAXPAU?$pair@PAVCDbController@@K@0@0AAV?$allocator@U?$pair@PAVCDbController@@K@std@@@0@U_Nonscalar_ptr_iterator_tag@0@@Z
_TEXT	SEGMENT
__First$ = 8						; size = 4
__Last$ = 12						; size = 4
__Al$ = 16						; size = 4
___formal$ = 20						; size = 1
??$_Destroy_range@U?$pair@PAVCDbController@@K@std@@V?$allocator@U?$pair@PAVCDbController@@K@std@@@2@@std@@YAXPAU?$pair@PAVCDbController@@K@0@0AAV?$allocator@U?$pair@PAVCDbController@@K@std@@@0@U_Nonscalar_ptr_iterator_tag@0@@Z PROC NEAR ; std::_Destroy_range<std::pair<CDbController *,unsigned long>,std::allocator<std::pair<CDbController *,unsigned long> > >, COMDAT

; 225  : 	for (; _First != _Last; ++_First)
; 226  : 		_Al.destroy(_First);
; 227  : 	}

  00000	c3		 ret	 0
??$_Destroy_range@U?$pair@PAVCDbController@@K@std@@V?$allocator@U?$pair@PAVCDbController@@K@std@@@2@@std@@YAXPAU?$pair@PAVCDbController@@K@0@0AAV?$allocator@U?$pair@PAVCDbController@@K@std@@@0@U_Nonscalar_ptr_iterator_tag@0@@Z ENDP ; std::_Destroy_range<std::pair<CDbController *,unsigned long>,std::allocator<std::pair<CDbController *,unsigned long> > >
_TEXT	ENDS
PUBLIC	??$_Uninitialized_copy@PAU?$pair@PAVCDbController@@K@std@@PAU12@V?$allocator@U?$pair@PAVCDbController@@K@std@@@2@@std@@YAPAU?$pair@PAVCDbController@@K@0@PAU10@00AAV?$allocator@U?$pair@PAVCDbController@@K@std@@@0@@Z ; std::_Uninitialized_copy<std::pair<CDbController *,unsigned long> *,std::pair<CDbController *,unsigned long> *,std::allocator<std::pair<CDbController *,unsigned long> > >
; Function compile flags: /Ogty
; File c:\program files\microsoft visual studio .net 2003\vc7\include\memory
;	COMDAT ??$_Uninitialized_copy@PAU?$pair@PAVCDbController@@K@std@@PAU12@V?$allocator@U?$pair@PAVCDbController@@K@std@@@2@@std@@YAPAU?$pair@PAVCDbController@@K@0@PAU10@00AAV?$allocator@U?$pair@PAVCDbController@@K@std@@@0@@Z
_TEXT	SEGMENT
__Cat$201191 = -4					; size = 1
__First$ = 8						; size = 4
__Last$ = 12						; size = 4
__Dest$ = 16						; size = 4
__Al$ = 20						; size = 4
??$_Uninitialized_copy@PAU?$pair@PAVCDbController@@K@std@@PAU12@V?$allocator@U?$pair@PAVCDbController@@K@std@@@2@@std@@YAPAU?$pair@PAVCDbController@@K@0@PAU10@00AAV?$allocator@U?$pair@PAVCDbController@@K@std@@@0@@Z PROC NEAR ; std::_Uninitialized_copy<std::pair<CDbController *,unsigned long> *,std::pair<CDbController *,unsigned long> *,std::allocator<std::pair<CDbController *,unsigned long> > >, COMDAT

; 126  : 	{	// copy [_First, _Last) to raw _Dest, using _Al

  00000	51		 push	 ecx

; 127  : 	return (_Uninit_copy(_First, _Last, _Dest, _Al,
; 128  : 		_Ptr_cat(_First, _Dest)));

  00001	8b 04 24	 mov	 eax, DWORD PTR __Cat$201191[esp+4]
  00004	8b 4c 24 14	 mov	 ecx, DWORD PTR __Al$[esp]
  00008	8b 54 24 10	 mov	 edx, DWORD PTR __Dest$[esp]
  0000c	50		 push	 eax
  0000d	8b 44 24 10	 mov	 eax, DWORD PTR __Last$[esp+4]
  00011	51		 push	 ecx
  00012	8b 4c 24 10	 mov	 ecx, DWORD PTR __First$[esp+8]
  00016	52		 push	 edx
  00017	50		 push	 eax
  00018	51		 push	 ecx
  00019	e8 00 00 00 00	 call	 ??$_Uninit_copy@PAU?$pair@PAVCDbController@@K@std@@PAU12@V?$allocator@U?$pair@PAVCDbController@@K@std@@@2@@std@@YAPAU?$pair@PAVCDbController@@K@0@PAU10@00AAV?$allocator@U?$pair@PAVCDbController@@K@std@@@0@U_Nonscalar_ptr_iterator_tag@0@@Z ; std::_Uninit_copy<std::pair<CDbController *,unsigned long> *,std::pair<CDbController *,unsigned long> *,std::allocator<std::pair<CDbController *,unsigned long> > >

; 129  : 	}

  0001e	83 c4 18	 add	 esp, 24			; 00000018H
  00021	c3		 ret	 0
??$_Uninitialized_copy@PAU?$pair@PAVCDbController@@K@std@@PAU12@V?$allocator@U?$pair@PAVCDbController@@K@std@@@2@@std@@YAPAU?$pair@PAVCDbController@@K@0@PAU10@00AAV?$allocator@U?$pair@PAVCDbController@@K@std@@@0@@Z ENDP ; std::_Uninitialized_copy<std::pair<CDbController *,unsigned long> *,std::pair<CDbController *,unsigned long> *,std::allocator<std::pair<CDbController *,unsigned long> > >
_TEXT	ENDS
PUBLIC	?_Tidy@?$basic_string@DU?$char_traits@D@std@@V?$allocator@D@2@@std@@IAEX_NI@Z ; std::basic_string<char,std::char_traits<char>,std::allocator<char> >::_Tidy
; Function compile flags: /Ogty
; File c:\program files\microsoft visual studio .net 2003\vc7\include\xstring
;	COMDAT ?_Tidy@?$basic_string@DU?$char_traits@D@std@@V?$allocator@D@2@@std@@IAEX_NI@Z
_TEXT	SEGMENT
__Built$ = 8						; size = 1
__Newsize$ = 12						; size = 4
?_Tidy@?$basic_string@DU?$char_traits@D@std@@V?$allocator@D@2@@std@@IAEX_NI@Z PROC NEAR ; std::basic_string<char,std::char_traits<char>,std::allocator<char> >::_Tidy, COMDAT
; _this$ = ecx

; 1510 : 		if (!_Built)

  00000	8a 44 24 04	 mov	 al, BYTE PTR __Built$[esp-4]
  00004	84 c0		 test	 al, al
  00006	53		 push	 ebx
  00007	55		 push	 ebp
  00008	8b 6c 24 10	 mov	 ebp, DWORD PTR __Newsize$[esp+4]
  0000c	8b d9		 mov	 ebx, ecx
  0000e	74 2f		 je	 SHORT $L201199

; 1511 : 			;
; 1512 : 		else if (_BUF_SIZE <= _Myres)

  00010	83 7b 18 10	 cmp	 DWORD PTR [ebx+24], 16	; 00000010H
  00014	72 29		 jb	 SHORT $L201199

; 1513 : 			{	// copy any leftovers to small buffer and deallocate
; 1514 : 			_Elem *_Ptr = _Bx._Ptr;
; 1515 : 			if (0 < _Newsize)

  00016	85 ed		 test	 ebp, ebp
  00018	8b 43 04	 mov	 eax, DWORD PTR [ebx+4]
  0001b	57		 push	 edi
  0001c	8d 7b 04	 lea	 edi, DWORD PTR [ebx+4]
  0001f	76 14		 jbe	 SHORT $L201196
  00021	56		 push	 esi

; 1516 : 				_Traits::copy(_Bx._Buf, _Ptr, _Newsize);

  00022	8b cd		 mov	 ecx, ebp
  00024	8b d1		 mov	 edx, ecx
  00026	c1 e9 02	 shr	 ecx, 2
  00029	8b f0		 mov	 esi, eax
  0002b	f3 a5		 rep movsd
  0002d	8b ca		 mov	 ecx, edx
  0002f	83 e1 03	 and	 ecx, 3
  00032	f3 a4		 rep movsb
  00034	5e		 pop	 esi
$L201196:

; 1517 : 			_Mybase::_Alval.deallocate(_Ptr, _Myres + 1);

  00035	50		 push	 eax
  00036	e8 00 00 00 00	 call	 ??3@YAXPAX@Z		; operator delete
  0003b	83 c4 04	 add	 esp, 4
  0003e	5f		 pop	 edi
$L201199:

; 1518 : 			}
; 1519 : 		_Myres = _BUF_SIZE - 1;
; 1520 : 		_Eos(_Newsize);

  0003f	89 6b 14	 mov	 DWORD PTR [ebx+20], ebp
  00042	c7 43 18 0f 00
	00 00		 mov	 DWORD PTR [ebx+24], 15	; 0000000fH
  00049	c6 44 2b 04 00	 mov	 BYTE PTR [ebx+ebp+4], 0
  0004e	5d		 pop	 ebp
  0004f	5b		 pop	 ebx

; 1521 : 		}

  00050	c2 08 00	 ret	 8
?_Tidy@?$basic_string@DU?$char_traits@D@std@@V?$allocator@D@2@@std@@IAEX_NI@Z ENDP ; std::basic_string<char,std::char_traits<char>,std::allocator<char> >::_Tidy
_TEXT	ENDS
PUBLIC	?erase@?$basic_string@DU?$char_traits@D@std@@V?$allocator@D@2@@std@@QAEAAV12@II@Z ; std::basic_string<char,std::char_traits<char>,std::allocator<char> >::erase
EXTRN	?_Xran@_String_base@std@@QBEXXZ:NEAR		; std::_String_base::_Xran
; Function compile flags: /Ogty
;	COMDAT ?erase@?$basic_string@DU?$char_traits@D@std@@V?$allocator@D@2@@std@@QAEAAV12@II@Z
_TEXT	SEGMENT
__Off$ = 8						; size = 4
__Count$ = 12						; size = 4
?erase@?$basic_string@DU?$char_traits@D@std@@V?$allocator@D@2@@std@@QAEAAV12@II@Z PROC NEAR ; std::basic_string<char,std::char_traits<char>,std::allocator<char> >::erase, COMDAT
; _this$ = ecx

; 792  : 		{	// erase elements [_Off, _Off + _Count)

  00000	55		 push	 ebp

; 793  : 		if (_Mysize < _Off)

  00001	8b 6c 24 08	 mov	 ebp, DWORD PTR __Off$[esp]
  00005	56		 push	 esi
  00006	8b f1		 mov	 esi, ecx
  00008	39 6e 14	 cmp	 DWORD PTR [esi+20], ebp
  0000b	57		 push	 edi
  0000c	73 05		 jae	 SHORT $L184993

; 794  : 			_String_base::_Xran();	// _Off off end

  0000e	e8 00 00 00 00	 call	 ?_Xran@_String_base@std@@QBEXXZ ; std::_String_base::_Xran
$L184993:

; 795  : 		if (_Mysize - _Off < _Count)

  00013	8b 46 14	 mov	 eax, DWORD PTR [esi+20]
  00016	8b 7c 24 14	 mov	 edi, DWORD PTR __Count$[esp+8]
  0001a	2b c5		 sub	 eax, ebp
  0001c	3b c7		 cmp	 eax, edi
  0001e	73 02		 jae	 SHORT $L184994

; 796  : 			_Count = _Mysize - _Off;	// trim _Count

  00020	8b f8		 mov	 edi, eax
$L184994:

; 797  : 		if (0 < _Count)

  00022	85 ff		 test	 edi, edi
  00024	76 47		 jbe	 SHORT $L201263

; 798  : 			{	// move elements down
; 799  : 			_Traits::move(_Myptr() + _Off, _Myptr() + _Off + _Count,
; 800  : 				_Mysize - _Off - _Count);

  00026	8b 4e 18	 mov	 ecx, DWORD PTR [esi+24]
  00029	83 f9 10	 cmp	 ecx, 16			; 00000010H
  0002c	53		 push	 ebx
  0002d	8d 5e 04	 lea	 ebx, DWORD PTR [esi+4]
  00030	72 04		 jb	 SHORT $L201228
  00032	8b 13		 mov	 edx, DWORD PTR [ebx]
  00034	eb 02		 jmp	 SHORT $L201229
$L201228:
  00036	8b d3		 mov	 edx, ebx
$L201229:
  00038	83 f9 10	 cmp	 ecx, 16			; 00000010H
  0003b	72 04		 jb	 SHORT $L201235
  0003d	8b 0b		 mov	 ecx, DWORD PTR [ebx]
  0003f	eb 02		 jmp	 SHORT $L201236
$L201235:
  00041	8b cb		 mov	 ecx, ebx
$L201236:
  00043	2b c7		 sub	 eax, edi

; 803  : 			}
; 804  : 		return (*this);

  00045	03 d5		 add	 edx, ebp
  00047	50		 push	 eax
  00048	03 d7		 add	 edx, edi
  0004a	52		 push	 edx
  0004b	03 cd		 add	 ecx, ebp
  0004d	51		 push	 ecx
  0004e	e8 00 00 00 00	 call	 _memmove
  00053	8b 46 14	 mov	 eax, DWORD PTR [esi+20]
  00056	8b 4e 18	 mov	 ecx, DWORD PTR [esi+24]
  00059	2b c7		 sub	 eax, edi
  0005b	83 c4 0c	 add	 esp, 12			; 0000000cH
  0005e	83 f9 10	 cmp	 ecx, 16			; 00000010H
  00061	89 46 14	 mov	 DWORD PTR [esi+20], eax
  00064	72 02		 jb	 SHORT $L201258

; 801  : 			size_type _Newsize = _Mysize - _Count;
; 802  : 			_Eos(_Newsize);

  00066	8b 1b		 mov	 ebx, DWORD PTR [ebx]
$L201258:
  00068	c6 04 03 00	 mov	 BYTE PTR [ebx+eax], 0
  0006c	5b		 pop	 ebx
$L201263:
  0006d	5f		 pop	 edi

; 803  : 			}
; 804  : 		return (*this);

  0006e	8b c6		 mov	 eax, esi
  00070	5e		 pop	 esi
  00071	5d		 pop	 ebp

; 805  : 		}

  00072	c2 08 00	 ret	 8
?erase@?$basic_string@DU?$char_traits@D@std@@V?$allocator@D@2@@std@@QAEAAV12@II@Z ENDP ; std::basic_string<char,std::char_traits<char>,std::allocator<char> >::erase
_TEXT	ENDS
PUBLIC	?_Copy@?$basic_string@DU?$char_traits@D@std@@V?$allocator@D@2@@std@@IAEXII@Z ; std::basic_string<char,std::char_traits<char>,std::allocator<char> >::_Copy
;	COMDAT xdata$x
; File c:\program files\microsoft visual studio .net 2003\vc7\include\iosfwd
xdata$x	SEGMENT
$T201466 DD	0ffffffffH
	DD	00H
	DD	0ffffffffH
	DD	00H
	DD	01H
	DD	00H
	DD	01H
	DD	00H
$T201468 DD	00H
	DD	00H
	DD	00H
	DD	FLAT:$L201269
$T201469 DD	00H
	DD	00H
	DD	00H
	DD	FLAT:$L201267
$T201467 DD	02H
	DD	02H
	DD	03H
	DD	01H
	DD	FLAT:$T201468
	DD	00H
	DD	00H
	DD	03H
	DD	01H
	DD	FLAT:$T201469
$T201461 DD	019930520H
	DD	04H
	DD	FLAT:$T201466
	DD	02H
	DD	FLAT:$T201467
	DD	2 DUP(00H)
; Function compile flags: /Ogty
; File c:\program files\microsoft visual studio .net 2003\vc7\include\xstring
xdata$x	ENDS
;	COMDAT ?_Copy@?$basic_string@DU?$char_traits@D@std@@V?$allocator@D@2@@std@@IAEXII@Z
_TEXT	SEGMENT
__Newres$ = -24						; size = 4
_this$ = -20						; size = 4
__$EHRec$ = -16						; size = 16
__Ptr$ = 8						; size = 4
__Newsize$ = 8						; size = 4
__Oldlen$ = 12						; size = 4
?_Copy@?$basic_string@DU?$char_traits@D@std@@V?$allocator@D@2@@std@@IAEXII@Z PROC NEAR ; std::basic_string<char,std::char_traits<char>,std::allocator<char> >::_Copy, COMDAT
; _this$ = ecx

; 1444 : 		{	// copy _Oldlen elements to newly allocated buffer

  00000	55		 push	 ebp
  00001	8b ec		 mov	 ebp, esp
  00003	6a ff		 push	 -1
  00005	68 00 00 00 00	 push	 __ehhandler$?_Copy@?$basic_string@DU?$char_traits@D@std@@V?$allocator@D@2@@std@@IAEXII@Z
  0000a	64 a1 00 00 00
	00		 mov	 eax, DWORD PTR fs:__except_list
  00010	50		 push	 eax
  00011	64 89 25 00 00
	00 00		 mov	 DWORD PTR fs:__except_list, esp
  00018	83 ec 0c	 sub	 esp, 12			; 0000000cH

; 1445 : 		size_type _Newres = _Newsize | _ALLOC_MASK;

  0001b	8b 45 08	 mov	 eax, DWORD PTR __Newsize$[ebp]
  0001e	53		 push	 ebx
  0001f	56		 push	 esi
  00020	8b d8		 mov	 ebx, eax
  00022	83 cb 0f	 or	 ebx, 15			; 0000000fH

; 1446 : 		if (max_size() < _Newres)

  00025	83 fb fe	 cmp	 ebx, -2			; fffffffeH
  00028	57		 push	 edi
  00029	8b f1		 mov	 esi, ecx
  0002b	89 65 f0	 mov	 DWORD PTR __$EHRec$[ebp], esp
  0002e	89 75 ec	 mov	 DWORD PTR _this$[ebp], esi
  00031	76 04		 jbe	 SHORT $L185550

; 1447 : 			_Newres = _Newsize;	// undo roundup if too big

  00033	8b d8		 mov	 ebx, eax

; 1448 : 		else if (_Newres / 3 < _Myres / 2

  00035	eb 22		 jmp	 SHORT $L185552
$L185550:

; 1449 : 			&& _Myres <= max_size() - _Myres / 2)

  00037	8b 7e 18	 mov	 edi, DWORD PTR [esi+24]
  0003a	b8 ab aa aa aa	 mov	 eax, -1431655765	; aaaaaaabH
  0003f	f7 e3		 mul	 ebx
  00041	8b cf		 mov	 ecx, edi
  00043	d1 e9		 shr	 ecx, 1
  00045	d1 ea		 shr	 edx, 1
  00047	3b d1		 cmp	 edx, ecx
  00049	73 0e		 jae	 SHORT $L185552
  0004b	b8 fe ff ff ff	 mov	 eax, -2			; fffffffeH
  00050	2b c1		 sub	 eax, ecx
  00052	3b f8		 cmp	 edi, eax
  00054	77 03		 ja	 SHORT $L185552

; 1450 : 			_Newres = _Myres + _Myres / 2;	// grow exponentially if possible

  00056	8d 1c 39	 lea	 ebx, DWORD PTR [ecx+edi]
$L185552:

; 1451 : 		_Elem *_Ptr;
; 1452 : 
; 1453 : 		_TRY_BEGIN
; 1454 : 			_Ptr = _Mybase::_Alval.allocate(_Newres + 1);

  00059	8d 4b 01	 lea	 ecx, DWORD PTR [ebx+1]
  0005c	51		 push	 ecx
  0005d	c7 45 fc 00 00
	00 00		 mov	 DWORD PTR __$EHRec$[ebp+12], 0
  00064	e8 00 00 00 00	 call	 ??2@YAPAXI@Z		; operator new
  00069	8b d0		 mov	 edx, eax
  0006b	83 c4 04	 add	 esp, 4
  0006e	89 55 08	 mov	 DWORD PTR __Ptr$[ebp], edx
  00071	eb 29		 jmp	 SHORT $L185554
$L201267:

; 1455 : 		_CATCH_ALL
; 1456 : 			_Newres = _Newsize;	// allocation failed, undo roundup and retry

  00073	8b 45 08	 mov	 eax, DWORD PTR __Newsize$[ebp]
  00076	89 45 e8	 mov	 DWORD PTR __Newres$[ebp], eax

; 1457 : 			_TRY_BEGIN
; 1458 : 				_Ptr = _Mybase::_Alval.allocate(_Newres + 1);

  00079	40		 inc	 eax
  0007a	89 65 f0	 mov	 DWORD PTR __$EHRec$[ebp], esp
  0007d	50		 push	 eax
  0007e	c6 45 fc 02	 mov	 BYTE PTR __$EHRec$[ebp+12], 2
  00082	e8 00 00 00 00	 call	 ??2@YAPAXI@Z		; operator new
  00087	89 45 08	 mov	 DWORD PTR __Ptr$[ebp], eax
  0008a	83 c4 04	 add	 esp, 4

; 1462 : 			_CATCH_END
; 1463 : 		_CATCH_END

  0008d	b8 00 00 00 00	 mov	 eax, $L201462
  00092	c3		 ret	 0
$L201462:
  00093	8b 5d e8	 mov	 ebx, DWORD PTR __Newres$[ebp]
  00096	8b 75 ec	 mov	 esi, DWORD PTR _this$[ebp]
  00099	8b 55 08	 mov	 edx, DWORD PTR __Ptr$[ebp]
$L185554:

; 1464 : 
; 1465 : 		if (0 < _Oldlen)

  0009c	8b 4d 0c	 mov	 ecx, DWORD PTR __Oldlen$[ebp]
  0009f	85 c9		 test	 ecx, ecx
  000a1	76 24		 jbe	 SHORT $L201387

; 1466 : 			_Traits::copy(_Ptr, _Myptr(), _Oldlen);	// copy existing elements

  000a3	83 7e 18 10	 cmp	 DWORD PTR [esi+24], 16	; 00000010H
  000a7	72 05		 jb	 SHORT $L201382
  000a9	8b 76 04	 mov	 esi, DWORD PTR [esi+4]
  000ac	eb 03		 jmp	 SHORT $L201383
$L201382:
  000ae	83 c6 04	 add	 esi, 4
$L201383:
  000b1	8b c1		 mov	 eax, ecx
  000b3	c1 e9 02	 shr	 ecx, 2
  000b6	8b fa		 mov	 edi, edx
  000b8	f3 a5		 rep movsd
  000ba	8b c8		 mov	 ecx, eax
  000bc	83 e1 03	 and	 ecx, 3
  000bf	f3 a4		 rep movsb
  000c1	8b 75 ec	 mov	 esi, DWORD PTR _this$[ebp]
  000c4	8b 4d 0c	 mov	 ecx, DWORD PTR __Oldlen$[ebp]
$L201387:

; 1467 : 		_Tidy(true);

  000c7	83 7e 18 10	 cmp	 DWORD PTR [esi+24], 16	; 00000010H
  000cb	72 12		 jb	 SHORT $L201429
  000cd	8b 4e 04	 mov	 ecx, DWORD PTR [esi+4]
  000d0	51		 push	 ecx
  000d1	e8 00 00 00 00	 call	 ??3@YAXPAX@Z		; operator delete
  000d6	8b 55 08	 mov	 edx, DWORD PTR __Ptr$[ebp]
  000d9	8b 4d 0c	 mov	 ecx, DWORD PTR __Oldlen$[ebp]
  000dc	83 c4 04	 add	 esp, 4
$L201429:

; 1468 : 		_Bx._Ptr = _Ptr;
; 1469 : 		_Myres = _Newres;
; 1470 : 		_Eos(_Oldlen);

  000df	83 fb 10	 cmp	 ebx, 16			; 00000010H
  000e2	8d 46 04	 lea	 eax, DWORD PTR [esi+4]
  000e5	c6 00 00	 mov	 BYTE PTR [eax], 0
  000e8	89 10		 mov	 DWORD PTR [eax], edx
  000ea	89 5e 18	 mov	 DWORD PTR [esi+24], ebx
  000ed	89 4e 14	 mov	 DWORD PTR [esi+20], ecx
  000f0	72 02		 jb	 SHORT $L201457
  000f2	8b c2		 mov	 eax, edx
$L201457:

; 1471 : 		}

  000f4	5f		 pop	 edi
  000f5	c6 04 08 00	 mov	 BYTE PTR [eax+ecx], 0
  000f9	8b 4d f4	 mov	 ecx, DWORD PTR __$EHRec$[ebp+4]
  000fc	5e		 pop	 esi
  000fd	64 89 0d 00 00
	00 00		 mov	 DWORD PTR fs:__except_list, ecx
  00104	5b		 pop	 ebx
  00105	8b e5		 mov	 esp, ebp
  00107	5d		 pop	 ebp
  00108	c2 08 00	 ret	 8
$L201269:

; 1459 : 			_CATCH_ALL
; 1460 : 			_Tidy(true);	// failed again, discard storage and reraise

  0010b	8b 75 ec	 mov	 esi, DWORD PTR _this$[ebp]
  0010e	83 7e 18 10	 cmp	 DWORD PTR [esi+24], 16	; 00000010H
  00112	72 0c		 jb	 SHORT $L201368
  00114	8b 56 04	 mov	 edx, DWORD PTR [esi+4]
  00117	52		 push	 edx
  00118	e8 00 00 00 00	 call	 ??3@YAXPAX@Z		; operator delete
  0011d	83 c4 04	 add	 esp, 4
$L201368:

; 1461 : 			_RERAISE;

  00120	6a 00		 push	 0
  00122	c7 46 18 0f 00
	00 00		 mov	 DWORD PTR [esi+24], 15	; 0000000fH
  00129	c7 46 14 00 00
	00 00		 mov	 DWORD PTR [esi+20], 0
  00130	6a 00		 push	 0
  00132	c6 46 04 00	 mov	 BYTE PTR [esi+4], 0
  00136	e8 00 00 00 00	 call	 __CxxThrowException@8
$L201465:
  0013b	cc		 int	 3
_TEXT	ENDS
;	COMDAT text$x
text$x	SEGMENT
__ehhandler$?_Copy@?$basic_string@DU?$char_traits@D@std@@V?$allocator@D@2@@std@@IAEXII@Z:
  00000	b8 00 00 00 00	 mov	 eax, OFFSET FLAT:$T201461
  00005	e9 00 00 00 00	 jmp	 ___CxxFrameHandler
text$x	ENDS
?_Copy@?$basic_string@DU?$char_traits@D@std@@V?$allocator@D@2@@std@@IAEXII@Z ENDP ; std::basic_string<char,std::char_traits<char>,std::allocator<char> >::_Copy
PUBLIC	?Tick@CDbControllerTimer@@AAEXXZ		; CDbControllerTimer::Tick
EXTRN	__imp__GetTickCount@0:NEAR
;	COMDAT xdata$x
; File c:\documents and settings\test\mes documents\source\virtuos_v17\build\program\_network\mcl\include\cmclcritsec.h
xdata$x	SEGMENT
$T201613 DD	0ffffffffH
	DD	FLAT:$L201475
$T201607 DD	019930520H
	DD	01H
	DD	FLAT:$T201613
	DD	2 DUP(00H)
	DD	2 DUP(00H)
; Function compile flags: /Ogty
; File c:\documents and settings\test\mes documents\source\virtuos_v17\build\program\databaseserver\dbcontroller.cpp
xdata$x	ENDS
;	COMDAT ?Tick@CDbControllerTimer@@AAEXXZ
_TEXT	SEGMENT
_dwTick$199372 = -24					; size = 4
tv229 = -20						; size = 4
_Lock$199373 = -16					; size = 4
__$EHRec$ = -12						; size = 12
?Tick@CDbControllerTimer@@AAEXXZ PROC NEAR		; CDbControllerTimer::Tick, COMDAT
; _this$ = ecx

; 172  : {

  00000	64 a1 00 00 00
	00		 mov	 eax, DWORD PTR fs:__except_list
  00006	6a ff		 push	 -1
  00008	68 00 00 00 00	 push	 __ehhandler$?Tick@CDbControllerTimer@@AAEXXZ
  0000d	50		 push	 eax
  0000e	64 89 25 00 00
	00 00		 mov	 DWORD PTR fs:__except_list, esp
  00015	83 ec 0c	 sub	 esp, 12			; 0000000cH
  00018	53		 push	 ebx
  00019	8b d9		 mov	 ebx, ecx

; 173  : 	while( WaitForSingleObject( m_hCloseTick, SEC( 1 ) ) != WAIT_OBJECT_0 )

  0001b	8b 43 34	 mov	 eax, DWORD PTR [ebx+52]
  0001e	68 e8 03 00 00	 push	 1000			; 000003e8H
  00023	50		 push	 eax
  00024	ff 15 00 00 00
	00		 call	 DWORD PTR __imp__WaitForSingleObject@8
  0002a	85 c0		 test	 eax, eax
  0002c	0f 84 aa 00 00
	00		 je	 $L199369
  00032	55		 push	 ebp
  00033	56		 push	 esi
  00034	8d 43 14	 lea	 eax, DWORD PTR [ebx+20]
  00037	57		 push	 edi
  00038	8d 78 04	 lea	 edi, DWORD PTR [eax+4]

; 174  : 	{
; 175  : 		DWORD dwTick	= GetTickCount();
; 176  : 		CMclAutoLock Lock( m_csLock );

  0003b	89 44 24 18	 mov	 DWORD PTR _Lock$199373[esp+40], eax

; 183  : 			}
; 184  : 		}
; 185  : 	}

  0003f	89 7c 24 14	 mov	 DWORD PTR tv229[esp+40], edi
  00043	33 ed		 xor	 ebp, ebp
$L199368:
  00045	ff 15 00 00 00
	00		 call	 DWORD PTR __imp__GetTickCount@0
  0004b	57		 push	 edi
  0004c	89 44 24 14	 mov	 DWORD PTR _dwTick$199372[esp+44], eax
  00050	ff 15 00 00 00
	00		 call	 DWORD PTR __imp__EnterCriticalSection@4
  00056	8b 73 08	 mov	 esi, DWORD PTR [ebx+8]
  00059	3b 73 0c	 cmp	 esi, DWORD PTR [ebx+12]
  0005c	89 6c 24 24	 mov	 DWORD PTR __$EHRec$[esp+48], ebp
  00060	74 51		 je	 SHORT $L199496
$L201611:

; 178  : 		{
; 179  : 			if( dwTick > ( *i ).second )

  00062	8b 4c 24 10	 mov	 ecx, DWORD PTR _dwTick$199372[esp+40]
  00066	3b 4e 04	 cmp	 ecx, DWORD PTR [esi+4]
  00069	76 3a		 jbe	 SHORT $L199495

; 180  : 			{
; 181  : 				( *i ).first->PostRequest( CDbController::eTimer, NULL, 0, 0 );

  0006b	8b 3e		 mov	 edi, DWORD PTR [esi]
  0006d	68 b8 00 00 00	 push	 184			; 000000b8H
  00072	e8 00 00 00 00	 call	 ??2@YAPAXI@Z		; operator new
  00077	83 c4 04	 add	 esp, 4
  0007a	3b c5		 cmp	 eax, ebp
  0007c	74 08		 je	 SHORT $L201569
  0007e	89 68 18	 mov	 DWORD PTR [eax+24], ebp
  00081	89 68 1c	 mov	 DWORD PTR [eax+28], ebp
  00084	eb 02		 jmp	 SHORT $L201570
$L201569:
  00086	33 c0		 xor	 eax, eax
$L201570:
  00088	50		 push	 eax
  00089	55		 push	 ebp
  0008a	c7 40 14 ff ff
	ff ff		 mov	 DWORD PTR [eax+20], -1
  00091	8b 57 04	 mov	 edx, DWORD PTR [edi+4]
  00094	6a 01		 push	 1
  00096	52		 push	 edx
  00097	ff 15 00 00 00
	00		 call	 DWORD PTR __imp__PostQueuedCompletionStatus@16

; 182  : 				( *i ).second	+= ( *i ).first->GetTimer();

  0009d	8b 06		 mov	 eax, DWORD PTR [esi]
  0009f	8b 40 10	 mov	 eax, DWORD PTR [eax+16]
  000a2	01 46 04	 add	 DWORD PTR [esi+4], eax
$L199495:
  000a5	8b 43 0c	 mov	 eax, DWORD PTR [ebx+12]
  000a8	83 c6 08	 add	 esi, 8
  000ab	3b f0		 cmp	 esi, eax
  000ad	75 b3		 jne	 SHORT $L201611

; 177  : 		for( VPDD::iterator i = m_vDbController.begin(); i != m_vDbController.end(); i++ )

  000af	8b 7c 24 14	 mov	 edi, DWORD PTR tv229[esp+40]
$L199496:

; 183  : 			}
; 184  : 		}
; 185  : 	}

  000b3	57		 push	 edi
  000b4	c7 44 24 28 ff
	ff ff ff	 mov	 DWORD PTR __$EHRec$[esp+52], -1
  000bc	ff 15 00 00 00
	00		 call	 DWORD PTR __imp__LeaveCriticalSection@4
  000c2	8b 4b 34	 mov	 ecx, DWORD PTR [ebx+52]
  000c5	68 e8 03 00 00	 push	 1000			; 000003e8H
  000ca	51		 push	 ecx
  000cb	ff 15 00 00 00
	00		 call	 DWORD PTR __imp__WaitForSingleObject@8
  000d1	85 c0		 test	 eax, eax
  000d3	0f 85 6c ff ff
	ff		 jne	 $L199368
  000d9	5f		 pop	 edi
  000da	5e		 pop	 esi
  000db	5d		 pop	 ebp
$L199369:

; 186  : }

  000dc	8b 4c 24 10	 mov	 ecx, DWORD PTR __$EHRec$[esp+28]
  000e0	5b		 pop	 ebx
  000e1	64 89 0d 00 00
	00 00		 mov	 DWORD PTR fs:__except_list, ecx
  000e8	83 c4 18	 add	 esp, 24			; 00000018H
  000eb	c3		 ret	 0
_TEXT	ENDS
;	COMDAT text$x
text$x	SEGMENT
$L201475:
  00000	8d 4d f0	 lea	 ecx, DWORD PTR _Lock$199373[ebp]
  00003	e9 00 00 00 00	 jmp	 ??1CMclAutoLock@@QAE@XZ	; CMclAutoLock::~CMclAutoLock
__ehhandler$?Tick@CDbControllerTimer@@AAEXXZ:
  00008	b8 00 00 00 00	 mov	 eax, OFFSET FLAT:$T201607
  0000d	e9 00 00 00 00	 jmp	 ___CxxFrameHandler
text$x	ENDS
?Tick@CDbControllerTimer@@AAEXXZ ENDP			; CDbControllerTimer::Tick
PUBLIC	??$_Uninitialized_fill_n@PAU?$pair@PAVCDbController@@K@std@@IU12@V?$allocator@U?$pair@PAVCDbController@@K@std@@@2@@std@@YAXPAU?$pair@PAVCDbController@@K@0@IABU10@AAV?$allocator@U?$pair@PAVCDbController@@K@std@@@0@@Z ; std::_Uninitialized_fill_n<std::pair<CDbController *,unsigned long> *,unsigned int,std::pair<CDbController *,unsigned long>,std::allocator<std::pair<CDbController *,unsigned long> > >
; Function compile flags: /Ogty
; File c:\program files\microsoft visual studio .net 2003\vc7\include\memory
;	COMDAT ??$_Uninitialized_fill_n@PAU?$pair@PAVCDbController@@K@std@@IU12@V?$allocator@U?$pair@PAVCDbController@@K@std@@@2@@std@@YAXPAU?$pair@PAVCDbController@@K@0@IABU10@AAV?$allocator@U?$pair@PAVCDbController@@K@std@@@0@@Z
_TEXT	SEGMENT
__Cat$201621 = -4					; size = 1
__First$ = 8						; size = 4
__Count$ = 12						; size = 4
__Val$ = 16						; size = 4
__Al$ = 20						; size = 4
??$_Uninitialized_fill_n@PAU?$pair@PAVCDbController@@K@std@@IU12@V?$allocator@U?$pair@PAVCDbController@@K@std@@@2@@std@@YAXPAU?$pair@PAVCDbController@@K@0@IABU10@AAV?$allocator@U?$pair@PAVCDbController@@K@std@@@0@@Z PROC NEAR ; std::_Uninitialized_fill_n<std::pair<CDbController *,unsigned long> *,unsigned int,std::pair<CDbController *,unsigned long>,std::allocator<std::pair<CDbController *,unsigned long> > >, COMDAT

; 255  : 	{	// copy _Count *_Val to raw _First, using _Al

  00000	51		 push	 ecx

; 256  : 	_Uninit_fill_n(_First, _Count, _Val, _Al,
; 257  : 		_Ptr_cat(_First, _First));

  00001	8b 04 24	 mov	 eax, DWORD PTR __Cat$201621[esp+4]
  00004	8b 4c 24 14	 mov	 ecx, DWORD PTR __Al$[esp]
  00008	8b 54 24 10	 mov	 edx, DWORD PTR __Val$[esp]
  0000c	50		 push	 eax
  0000d	8b 44 24 10	 mov	 eax, DWORD PTR __Count$[esp+4]
  00011	51		 push	 ecx
  00012	8b 4c 24 10	 mov	 ecx, DWORD PTR __First$[esp+8]
  00016	52		 push	 edx
  00017	50		 push	 eax
  00018	51		 push	 ecx
  00019	e8 00 00 00 00	 call	 ??$_Uninit_fill_n@PAU?$pair@PAVCDbController@@K@std@@IU12@V?$allocator@U?$pair@PAVCDbController@@K@std@@@2@@std@@YAXPAU?$pair@PAVCDbController@@K@0@IABU10@AAV?$allocator@U?$pair@PAVCDbController@@K@std@@@0@U_Nonscalar_ptr_iterator_tag@0@@Z ; std::_Uninit_fill_n<std::pair<CDbController *,unsigned long> *,unsigned int,std::pair<CDbController *,unsigned long>,std::allocator<std::pair<CDbController *,unsigned long> > >

; 258  : 	}

  0001e	83 c4 18	 add	 esp, 24			; 00000018H
  00021	c3		 ret	 0
??$_Uninitialized_fill_n@PAU?$pair@PAVCDbController@@K@std@@IU12@V?$allocator@U?$pair@PAVCDbController@@K@std@@@2@@std@@YAXPAU?$pair@PAVCDbController@@K@0@IABU10@AAV?$allocator@U?$pair@PAVCDbController@@K@std@@@0@@Z ENDP ; std::_Uninitialized_fill_n<std::pair<CDbController *,unsigned long> *,unsigned int,std::pair<CDbController *,unsigned long>,std::allocator<std::pair<CDbController *,unsigned long> > >
_TEXT	ENDS
PUBLIC	??$_Destroy_range@U?$pair@PAVCDbController@@K@std@@V?$allocator@U?$pair@PAVCDbController@@K@std@@@2@@std@@YAXPAU?$pair@PAVCDbController@@K@0@0AAV?$allocator@U?$pair@PAVCDbController@@K@std@@@0@@Z ; std::_Destroy_range<std::pair<CDbController *,unsigned long>,std::allocator<std::pair<CDbController *,unsigned long> > >
; Function compile flags: /Ogty
; File c:\program files\microsoft visual studio .net 2003\vc7\include\xmemory
;	COMDAT ??$_Destroy_range@U?$pair@PAVCDbController@@K@std@@V?$allocator@U?$pair@PAVCDbController@@K@std@@@2@@std@@YAXPAU?$pair@PAVCDbController@@K@0@0AAV?$allocator@U?$pair@PAVCDbController@@K@std@@@0@@Z
_TEXT	SEGMENT
__First$ = 8						; size = 4
__Last$ = 12						; size = 4
__Al$ = 16						; size = 4
??$_Destroy_range@U?$pair@PAVCDbController@@K@std@@V?$allocator@U?$pair@PAVCDbController@@K@std@@@2@@std@@YAXPAU?$pair@PAVCDbController@@K@0@0AAV?$allocator@U?$pair@PAVCDbController@@K@std@@@0@@Z PROC NEAR ; std::_Destroy_range<std::pair<CDbController *,unsigned long>,std::allocator<std::pair<CDbController *,unsigned long> > >, COMDAT

; 217  : 	_Destroy_range(_First, _Last, _Al, _Ptr_cat(_First, _Last));
; 218  : 	}

  00000	c3		 ret	 0
??$_Destroy_range@U?$pair@PAVCDbController@@K@std@@V?$allocator@U?$pair@PAVCDbController@@K@std@@@2@@std@@YAXPAU?$pair@PAVCDbController@@K@0@0AAV?$allocator@U?$pair@PAVCDbController@@K@std@@@0@@Z ENDP ; std::_Destroy_range<std::pair<CDbController *,unsigned long>,std::allocator<std::pair<CDbController *,unsigned long> > >
_TEXT	ENDS
PUBLIC	??$_Ucopy@PAU?$pair@PAVCDbController@@K@std@@@?$vector@U?$pair@PAVCDbController@@K@std@@V?$allocator@U?$pair@PAVCDbController@@K@std@@@2@@std@@IAEPAU?$pair@PAVCDbController@@K@1@PAU21@00@Z ; std::vector<std::pair<CDbController *,unsigned long>,std::allocator<std::pair<CDbController *,unsigned long> > >::_Ucopy<std::pair<CDbController *,unsigned long> *>
; Function compile flags: /Ogty
; File c:\program files\microsoft visual studio .net 2003\vc7\include\vector
;	COMDAT ??$_Ucopy@PAU?$pair@PAVCDbController@@K@std@@@?$vector@U?$pair@PAVCDbController@@K@std@@V?$allocator@U?$pair@PAVCDbController@@K@std@@@2@@std@@IAEPAU?$pair@PAVCDbController@@K@1@PAU21@00@Z
_TEXT	SEGMENT
__First$ = 8						; size = 4
__Last$ = 12						; size = 4
__Cat$201642 = 16					; size = 1
__Ptr$ = 16						; size = 4
??$_Ucopy@PAU?$pair@PAVCDbController@@K@std@@@?$vector@U?$pair@PAVCDbController@@K@std@@V?$allocator@U?$pair@PAVCDbController@@K@std@@@2@@std@@IAEPAU?$pair@PAVCDbController@@K@1@PAU21@00@Z PROC NEAR ; std::vector<std::pair<CDbController *,unsigned long>,std::allocator<std::pair<CDbController *,unsigned long> > >::_Ucopy<std::pair<CDbController *,unsigned long> *>, COMDAT
; _this$ = ecx

; 802  : 		{	// copy initializing [_First, _Last), using allocator
; 803  : 		return (_Uninitialized_copy(_First, _Last,
; 804  : 			_Ptr, this->_Alval));

  00000	8b 44 24 0c	 mov	 eax, DWORD PTR __Cat$201642[esp-4]
  00004	8b 54 24 08	 mov	 edx, DWORD PTR __Last$[esp-4]
  00008	50		 push	 eax
  00009	8b 44 24 08	 mov	 eax, DWORD PTR __First$[esp]
  0000d	51		 push	 ecx
  0000e	8b 4c 24 14	 mov	 ecx, DWORD PTR __Ptr$[esp+4]
  00012	51		 push	 ecx
  00013	52		 push	 edx
  00014	50		 push	 eax
  00015	e8 00 00 00 00	 call	 ??$_Uninit_copy@PAU?$pair@PAVCDbController@@K@std@@PAU12@V?$allocator@U?$pair@PAVCDbController@@K@std@@@2@@std@@YAPAU?$pair@PAVCDbController@@K@0@PAU10@00AAV?$allocator@U?$pair@PAVCDbController@@K@std@@@0@U_Nonscalar_ptr_iterator_tag@0@@Z ; std::_Uninit_copy<std::pair<CDbController *,unsigned long> *,std::pair<CDbController *,unsigned long> *,std::allocator<std::pair<CDbController *,unsigned long> > >
  0001a	83 c4 14	 add	 esp, 20			; 00000014H

; 805  : 		}

  0001d	c2 0c 00	 ret	 12			; 0000000cH
??$_Ucopy@PAU?$pair@PAVCDbController@@K@std@@@?$vector@U?$pair@PAVCDbController@@K@std@@V?$allocator@U?$pair@PAVCDbController@@K@std@@@2@@std@@IAEPAU?$pair@PAVCDbController@@K@1@PAU21@00@Z ENDP ; std::vector<std::pair<CDbController *,unsigned long>,std::allocator<std::pair<CDbController *,unsigned long> > >::_Ucopy<std::pair<CDbController *,unsigned long> *>
_TEXT	ENDS
PUBLIC	??1?$basic_string@DU?$char_traits@D@std@@V?$allocator@D@2@@std@@QAE@XZ ; std::basic_string<char,std::char_traits<char>,std::allocator<char> >::~basic_string<char,std::char_traits<char>,std::allocator<char> >
; Function compile flags: /Ogty
; File c:\program files\microsoft visual studio .net 2003\vc7\include\xstring
;	COMDAT ??1?$basic_string@DU?$char_traits@D@std@@V?$allocator@D@2@@std@@QAE@XZ
_TEXT	SEGMENT
??1?$basic_string@DU?$char_traits@D@std@@V?$allocator@D@2@@std@@QAE@XZ PROC NEAR ; std::basic_string<char,std::char_traits<char>,std::allocator<char> >::~basic_string<char,std::char_traits<char>,std::allocator<char> >, COMDAT
; _this$ = ecx

; 456  : 		{	// destroy the string

  00000	56		 push	 esi
  00001	8b f1		 mov	 esi, ecx

; 457  : 		_Tidy(true);

  00003	83 7e 18 10	 cmp	 DWORD PTR [esi+24], 16	; 00000010H
  00007	72 0c		 jb	 SHORT $L201687
  00009	8b 46 04	 mov	 eax, DWORD PTR [esi+4]
  0000c	50		 push	 eax
  0000d	e8 00 00 00 00	 call	 ??3@YAXPAX@Z		; operator delete
  00012	83 c4 04	 add	 esp, 4
$L201687:
  00015	33 c0		 xor	 eax, eax
  00017	c7 46 18 0f 00
	00 00		 mov	 DWORD PTR [esi+24], 15	; 0000000fH
  0001e	89 46 14	 mov	 DWORD PTR [esi+20], eax
  00021	88 46 04	 mov	 BYTE PTR [esi+4], al
  00024	5e		 pop	 esi

; 458  : 		}

  00025	c3		 ret	 0
??1?$basic_string@DU?$char_traits@D@std@@V?$allocator@D@2@@std@@QAE@XZ ENDP ; std::basic_string<char,std::char_traits<char>,std::allocator<char> >::~basic_string<char,std::char_traits<char>,std::allocator<char> >
_TEXT	ENDS
PUBLIC	?_Grow@?$basic_string@DU?$char_traits@D@std@@V?$allocator@D@2@@std@@IAE_NI_N@Z ; std::basic_string<char,std::char_traits<char>,std::allocator<char> >::_Grow
EXTRN	?_Xlen@_String_base@std@@QBEXXZ:NEAR		; std::_String_base::_Xlen
; Function compile flags: /Ogty
;	COMDAT ?_Grow@?$basic_string@DU?$char_traits@D@std@@V?$allocator@D@2@@std@@IAE_NI_N@Z
_TEXT	SEGMENT
__Newsize$ = 8						; size = 4
__Trim$ = 12						; size = 1
?_Grow@?$basic_string@DU?$char_traits@D@std@@V?$allocator@D@2@@std@@IAE_NI_N@Z PROC NEAR ; std::basic_string<char,std::char_traits<char>,std::allocator<char> >::_Grow, COMDAT
; _this$ = ecx

; 1480 : 		{	// ensure buffer is big enough, trim to size if _Trim is true

  00000	55		 push	 ebp
  00001	56		 push	 esi

; 1481 : 		if (max_size() < _Newsize)

  00002	8b 74 24 0c	 mov	 esi, DWORD PTR __Newsize$[esp+4]
  00006	83 fe fe	 cmp	 esi, -2			; fffffffeH
  00009	8b e9		 mov	 ebp, ecx
  0000b	76 05		 jbe	 SHORT $L185002

; 1482 : 			_String_base::_Xlen();	// result too long

  0000d	e8 00 00 00 00	 call	 ?_Xlen@_String_base@std@@QBEXXZ ; std::_String_base::_Xlen
$L185002:

; 1483 : 		if (_Myres < _Newsize)

  00012	8b 45 18	 mov	 eax, DWORD PTR [ebp+24]
  00015	3b c6		 cmp	 eax, esi
  00017	73 19		 jae	 SHORT $L185003

; 1484 : 			_Copy(_Newsize, _Mysize);	// reallocate to grow

  00019	8b 45 14	 mov	 eax, DWORD PTR [ebp+20]
  0001c	50		 push	 eax
  0001d	56		 push	 esi
  0001e	8b cd		 mov	 ecx, ebp
  00020	e8 00 00 00 00	 call	 ?_Copy@?$basic_string@DU?$char_traits@D@std@@V?$allocator@D@2@@std@@IAEXII@Z ; std::basic_string<char,std::char_traits<char>,std::allocator<char> >::_Copy

; 1490 : 		return (0 < _Newsize);	// return true only if more work to do

  00025	33 c0		 xor	 eax, eax
  00027	3b c6		 cmp	 eax, esi
  00029	1b c0		 sbb	 eax, eax
  0002b	5e		 pop	 esi
  0002c	f7 d8		 neg	 eax
  0002e	5d		 pop	 ebp

; 1491 : 		}

  0002f	c2 08 00	 ret	 8
$L185003:

; 1485 : 		else if (_Trim && _Newsize < _BUF_SIZE)

  00032	8a 4c 24 10	 mov	 cl, BYTE PTR __Trim$[esp+4]
  00036	84 c9		 test	 cl, cl
  00038	74 5c		 je	 SHORT $L185005
  0003a	83 fe 10	 cmp	 esi, 16			; 00000010H
  0003d	73 57		 jae	 SHORT $L185005
  0003f	53		 push	 ebx

; 1486 : 			_Tidy(true,	// copy and deallocate if trimming to small string
; 1487 : 				_Newsize < _Mysize ? _Newsize : _Mysize);

  00040	8b 5d 14	 mov	 ebx, DWORD PTR [ebp+20]
  00043	3b f3		 cmp	 esi, ebx
  00045	73 02		 jae	 SHORT $L201701
  00047	8b de		 mov	 ebx, esi
$L201701:
  00049	83 f8 10	 cmp	 eax, 16			; 00000010H
  0004c	72 2b		 jb	 SHORT $L201752
  0004e	85 db		 test	 ebx, ebx
  00050	8b 45 04	 mov	 eax, DWORD PTR [ebp+4]
  00053	57		 push	 edi
  00054	8d 7d 04	 lea	 edi, DWORD PTR [ebp+4]
  00057	76 16		 jbe	 SHORT $L201770
  00059	8b cb		 mov	 ecx, ebx
  0005b	8b d1		 mov	 edx, ecx
  0005d	c1 e9 02	 shr	 ecx, 2
  00060	8b f0		 mov	 esi, eax
  00062	f3 a5		 rep movsd
  00064	8b ca		 mov	 ecx, edx
  00066	83 e1 03	 and	 ecx, 3
  00069	f3 a4		 rep movsb
  0006b	8b 74 24 14	 mov	 esi, DWORD PTR __Newsize$[esp+12]
$L201770:
  0006f	50		 push	 eax
  00070	e8 00 00 00 00	 call	 ??3@YAXPAX@Z		; operator delete
  00075	83 c4 04	 add	 esp, 4
  00078	5f		 pop	 edi
$L201752:
  00079	89 5d 14	 mov	 DWORD PTR [ebp+20], ebx

; 1490 : 		return (0 < _Newsize);	// return true only if more work to do

  0007c	33 c0		 xor	 eax, eax
  0007e	c7 45 18 0f 00
	00 00		 mov	 DWORD PTR [ebp+24], 15	; 0000000fH
  00085	c6 44 2b 04 00	 mov	 BYTE PTR [ebx+ebp+4], 0
  0008a	3b c6		 cmp	 eax, esi
  0008c	5b		 pop	 ebx
  0008d	1b c0		 sbb	 eax, eax
  0008f	5e		 pop	 esi
  00090	f7 d8		 neg	 eax
  00092	5d		 pop	 ebp

; 1491 : 		}

  00093	c2 08 00	 ret	 8
$L185005:

; 1488 : 		else if (_Newsize == 0)

  00096	85 f6		 test	 esi, esi
  00098	75 23		 jne	 SHORT $L201792

; 1489 : 			_Eos(0);	// new size is zero, just null terminate

  0009a	83 f8 10	 cmp	 eax, 16			; 00000010H
  0009d	89 75 14	 mov	 DWORD PTR [ebp+20], esi
  000a0	72 14		 jb	 SHORT $L201788
  000a2	8b 6d 04	 mov	 ebp, DWORD PTR [ebp+4]

; 1490 : 		return (0 < _Newsize);	// return true only if more work to do

  000a5	33 c0		 xor	 eax, eax
  000a7	3b c6		 cmp	 eax, esi
  000a9	1b c0		 sbb	 eax, eax
  000ab	5e		 pop	 esi
  000ac	c6 45 00 00	 mov	 BYTE PTR [ebp], 0
  000b0	f7 d8		 neg	 eax
  000b2	5d		 pop	 ebp

; 1491 : 		}

  000b3	c2 08 00	 ret	 8

; 1489 : 			_Eos(0);	// new size is zero, just null terminate

$L201788:
  000b6	83 c5 04	 add	 ebp, 4
  000b9	c6 45 00 00	 mov	 BYTE PTR [ebp], 0
$L201792:

; 1490 : 		return (0 < _Newsize);	// return true only if more work to do

  000bd	33 c0		 xor	 eax, eax
  000bf	3b c6		 cmp	 eax, esi
  000c1	1b c0		 sbb	 eax, eax
  000c3	5e		 pop	 esi
  000c4	f7 d8		 neg	 eax
  000c6	5d		 pop	 ebp

; 1491 : 		}

  000c7	c2 08 00	 ret	 8
?_Grow@?$basic_string@DU?$char_traits@D@std@@V?$allocator@D@2@@std@@IAE_NI_N@Z ENDP ; std::basic_string<char,std::char_traits<char>,std::allocator<char> >::_Grow
_TEXT	ENDS
PUBLIC	?_Tick@CDbControllerTimer@@CAIPAX@Z		; CDbControllerTimer::_Tick
; Function compile flags: /Ogty
; File c:\documents and settings\test\mes documents\source\virtuos_v17\build\program\databaseserver\dbcontroller.cpp
;	COMDAT ?_Tick@CDbControllerTimer@@CAIPAX@Z
_TEXT	SEGMENT
_pParam$ = 8						; size = 4
?_Tick@CDbControllerTimer@@CAIPAX@Z PROC NEAR		; CDbControllerTimer::_Tick, COMDAT

; 166  : 	CDbControllerTimer* pTimer	= reinterpret_cast<CDbControllerTimer*>( pParam );
; 167  : 	pTimer->Tick();

  00000	8b 4c 24 04	 mov	 ecx, DWORD PTR _pParam$[esp-4]
  00004	e8 00 00 00 00	 call	 ?Tick@CDbControllerTimer@@AAEXXZ ; CDbControllerTimer::Tick

; 168  : 	return 0;

  00009	33 c0		 xor	 eax, eax

; 169  : }

  0000b	c3		 ret	 0
?_Tick@CDbControllerTimer@@CAIPAX@Z ENDP		; CDbControllerTimer::_Tick
_TEXT	ENDS
PUBLIC	?Create@CDbControllerTimer@@QAEXXZ		; CDbControllerTimer::Create
EXTRN	__imp__CreateEventA@16:NEAR
EXTRN	__beginthreadex:NEAR
; Function compile flags: /Ogty
;	COMDAT ?Create@CDbControllerTimer@@QAEXXZ
_TEXT	SEGMENT
_dwThreadId$ = -4					; size = 4
?Create@CDbControllerTimer@@QAEXXZ PROC NEAR		; CDbControllerTimer::Create, COMDAT
; _this$ = ecx

; 189  : {

  00000	51		 push	 ecx
  00001	56		 push	 esi

; 190  : 	DWORD dwThreadId	= 0;
; 191  : 	m_hCloseTick	= CreateEvent( NULL, FALSE, FALSE, NULL );

  00002	6a 00		 push	 0
  00004	6a 00		 push	 0
  00006	6a 00		 push	 0
  00008	6a 00		 push	 0
  0000a	8b f1		 mov	 esi, ecx
  0000c	c7 44 24 14 00
	00 00 00	 mov	 DWORD PTR _dwThreadId$[esp+24], 0
  00014	ff 15 00 00 00
	00		 call	 DWORD PTR __imp__CreateEventA@16
  0001a	89 46 34	 mov	 DWORD PTR [esi+52], eax

; 192  : 	m_hTickThread	= chBEGINTHREADEX( NULL, 0, _Tick, (LPVOID)this, 0, &dwThreadId );

  0001d	8d 44 24 04	 lea	 eax, DWORD PTR _dwThreadId$[esp+8]
  00021	50		 push	 eax
  00022	6a 00		 push	 0
  00024	56		 push	 esi
  00025	68 00 00 00 00	 push	 OFFSET FLAT:?_Tick@CDbControllerTimer@@CAIPAX@Z ; CDbControllerTimer::_Tick
  0002a	6a 00		 push	 0
  0002c	6a 00		 push	 0
  0002e	e8 00 00 00 00	 call	 __beginthreadex
  00033	83 c4 18	 add	 esp, 24			; 00000018H
  00036	89 46 30	 mov	 DWORD PTR [esi+48], eax
  00039	5e		 pop	 esi

; 193  : 	ASSERT( m_hCloseTick );
; 194  : 	ASSERT( m_hTickThread );
; 195  : }

  0003a	59		 pop	 ecx
  0003b	c3		 ret	 0
?Create@CDbControllerTimer@@QAEXXZ ENDP			; CDbControllerTimer::Create
_TEXT	ENDS
PUBLIC	?_Ufill@?$vector@U?$pair@PAVCDbController@@K@std@@V?$allocator@U?$pair@PAVCDbController@@K@std@@@2@@std@@IAEPAU?$pair@PAVCDbController@@K@2@PAU32@IABU32@@Z ; std::vector<std::pair<CDbController *,unsigned long>,std::allocator<std::pair<CDbController *,unsigned long> > >::_Ufill
; Function compile flags: /Ogty
; File c:\program files\microsoft visual studio .net 2003\vc7\include\vector
;	COMDAT ?_Ufill@?$vector@U?$pair@PAVCDbController@@K@std@@V?$allocator@U?$pair@PAVCDbController@@K@std@@@2@@std@@IAEPAU?$pair@PAVCDbController@@K@2@PAU32@IABU32@@Z
_TEXT	SEGMENT
__Ptr$ = 8						; size = 4
__Count$ = 12						; size = 4
__Cat$201811 = 16					; size = 1
__Val$ = 16						; size = 4
?_Ufill@?$vector@U?$pair@PAVCDbController@@K@std@@V?$allocator@U?$pair@PAVCDbController@@K@std@@@2@@std@@IAEPAU?$pair@PAVCDbController@@K@2@PAU32@IABU32@@Z PROC NEAR ; std::vector<std::pair<CDbController *,unsigned long>,std::allocator<std::pair<CDbController *,unsigned long> > >::_Ufill, COMDAT
; _this$ = ecx

; 878  : 		_Uninitialized_fill_n(_Ptr, _Count, _Val, this->_Alval);

  00000	8b 44 24 0c	 mov	 eax, DWORD PTR __Cat$201811[esp-4]
  00004	56		 push	 esi
  00005	8b 74 24 0c	 mov	 esi, DWORD PTR __Count$[esp]
  00009	57		 push	 edi
  0000a	8b 7c 24 0c	 mov	 edi, DWORD PTR __Ptr$[esp+4]
  0000e	50		 push	 eax
  0000f	51		 push	 ecx
  00010	8b 4c 24 1c	 mov	 ecx, DWORD PTR __Val$[esp+12]
  00014	51		 push	 ecx
  00015	56		 push	 esi
  00016	57		 push	 edi
  00017	e8 00 00 00 00	 call	 ??$_Uninit_fill_n@PAU?$pair@PAVCDbController@@K@std@@IU12@V?$allocator@U?$pair@PAVCDbController@@K@std@@@2@@std@@YAXPAU?$pair@PAVCDbController@@K@0@IABU10@AAV?$allocator@U?$pair@PAVCDbController@@K@std@@@0@U_Nonscalar_ptr_iterator_tag@0@@Z ; std::_Uninit_fill_n<std::pair<CDbController *,unsigned long> *,unsigned int,std::pair<CDbController *,unsigned long>,std::allocator<std::pair<CDbController *,unsigned long> > >
  0001c	83 c4 14	 add	 esp, 20			; 00000014H

; 879  : 		return (_Ptr + _Count);

  0001f	8d 04 f7	 lea	 eax, DWORD PTR [edi+esi*8]
  00022	5f		 pop	 edi
  00023	5e		 pop	 esi

; 880  : 		}

  00024	c2 0c 00	 ret	 12			; 0000000cH
?_Ufill@?$vector@U?$pair@PAVCDbController@@K@std@@V?$allocator@U?$pair@PAVCDbController@@K@std@@@2@@std@@IAEPAU?$pair@PAVCDbController@@K@2@PAU32@IABU32@@Z ENDP ; std::vector<std::pair<CDbController *,unsigned long>,std::allocator<std::pair<CDbController *,unsigned long> > >::_Ufill
_TEXT	ENDS
PUBLIC	?_Destroy@?$vector@U?$pair@PAVCDbController@@K@std@@V?$allocator@U?$pair@PAVCDbController@@K@std@@@2@@std@@IAEXPAU?$pair@PAVCDbController@@K@2@0@Z ; std::vector<std::pair<CDbController *,unsigned long>,std::allocator<std::pair<CDbController *,unsigned long> > >::_Destroy
; Function compile flags: /Ogty
;	COMDAT ?_Destroy@?$vector@U?$pair@PAVCDbController@@K@std@@V?$allocator@U?$pair@PAVCDbController@@K@std@@@2@@std@@IAEXPAU?$pair@PAVCDbController@@K@2@0@Z
_TEXT	SEGMENT
__First$ = 8						; size = 4
__Last$ = 12						; size = 4
?_Destroy@?$vector@U?$pair@PAVCDbController@@K@std@@V?$allocator@U?$pair@PAVCDbController@@K@std@@@2@@std@@IAEXPAU?$pair@PAVCDbController@@K@2@0@Z PROC NEAR ; std::vector<std::pair<CDbController *,unsigned long>,std::allocator<std::pair<CDbController *,unsigned long> > >::_Destroy, COMDAT
; _this$ = ecx

; 787  : 		_Destroy_range(_First, _Last, this->_Alval);
; 788  : 		}

  00000	c2 08 00	 ret	 8
?_Destroy@?$vector@U?$pair@PAVCDbController@@K@std@@V?$allocator@U?$pair@PAVCDbController@@K@std@@@2@@std@@IAEXPAU?$pair@PAVCDbController@@K@2@0@Z ENDP ; std::vector<std::pair<CDbController *,unsigned long>,std::allocator<std::pair<CDbController *,unsigned long> > >::_Destroy
_TEXT	ENDS
PUBLIC	??_7logic_error@std@@6B@			; std::logic_error::`vftable'
PUBLIC	??_Glogic_error@std@@UAEPAXI@Z			; std::logic_error::`scalar deleting destructor'
PUBLIC	??1logic_error@std@@UAE@XZ			; std::logic_error::~logic_error
PUBLIC	?what@logic_error@std@@UBEPBDXZ			; std::logic_error::what
EXTRN	??_Elogic_error@std@@UAEPAXI@Z:NEAR		; std::logic_error::`vector deleting destructor'
EXTRN	??1exception@@UAE@XZ:NEAR			; exception::~exception
;	COMDAT ??_7logic_error@std@@6B@
; File c:\program files\microsoft visual studio .net 2003\vc7\include\iosfwd
CONST	SEGMENT
??_7logic_error@std@@6B@ DD FLAT:??_Elogic_error@std@@UAEPAXI@Z ; std::logic_error::`vftable'
	DD	FLAT:?what@logic_error@std@@UBEPBDXZ
; Function compile flags: /Ogty
; File c:\program files\microsoft visual studio .net 2003\vc7\include\stdexcept
CONST	ENDS
;	COMDAT ??1logic_error@std@@UAE@XZ
_TEXT	SEGMENT
??1logic_error@std@@UAE@XZ PROC NEAR			; std::logic_error::~logic_error, COMDAT
; _this$ = ecx

; 23   : 		{}	// destroy the object

  00000	56		 push	 esi
  00001	8b f1		 mov	 esi, ecx
  00003	c7 06 00 00 00
	00		 mov	 DWORD PTR [esi], OFFSET FLAT:??_7logic_error@std@@6B@
  00009	83 7e 24 10	 cmp	 DWORD PTR [esi+36], 16	; 00000010H
  0000d	72 0c		 jb	 SHORT $L201882
  0000f	8b 46 10	 mov	 eax, DWORD PTR [esi+16]
  00012	50		 push	 eax
  00013	e8 00 00 00 00	 call	 ??3@YAXPAX@Z		; operator delete
  00018	83 c4 04	 add	 esp, 4
$L201882:
  0001b	33 c0		 xor	 eax, eax
  0001d	c7 46 24 0f 00
	00 00		 mov	 DWORD PTR [esi+36], 15	; 0000000fH
  00024	89 46 20	 mov	 DWORD PTR [esi+32], eax
  00027	88 46 10	 mov	 BYTE PTR [esi+16], al
  0002a	8b ce		 mov	 ecx, esi
  0002c	5e		 pop	 esi
  0002d	e9 00 00 00 00	 jmp	 ??1exception@@UAE@XZ	; exception::~exception
??1logic_error@std@@UAE@XZ ENDP				; std::logic_error::~logic_error
; Function compile flags: /Ogty
_TEXT	ENDS
;	COMDAT ?what@logic_error@std@@UBEPBDXZ
_TEXT	SEGMENT
?what@logic_error@std@@UBEPBDXZ PROC NEAR		; std::logic_error::what, COMDAT
; _this$ = ecx

; 27   : 		return (_Str.c_str());

  00000	83 79 24 10	 cmp	 DWORD PTR [ecx+36], 16	; 00000010H
  00004	72 04		 jb	 SHORT $L201908
  00006	8b 41 10	 mov	 eax, DWORD PTR [ecx+16]

; 28   : 		}

  00009	c3		 ret	 0

; 27   : 		return (_Str.c_str());

$L201908:
  0000a	8d 41 10	 lea	 eax, DWORD PTR [ecx+16]

; 28   : 		}

  0000d	c3		 ret	 0
?what@logic_error@std@@UBEPBDXZ ENDP			; std::logic_error::what
; Function compile flags: /Ogty
_TEXT	ENDS
;	COMDAT ??_Glogic_error@std@@UAEPAXI@Z
_TEXT	SEGMENT
___flags$ = 8						; size = 4
??_Glogic_error@std@@UAEPAXI@Z PROC NEAR		; std::logic_error::`scalar deleting destructor', COMDAT
; _this$ = ecx
  00000	56		 push	 esi
  00001	8b f1		 mov	 esi, ecx
  00003	e8 00 00 00 00	 call	 ??1logic_error@std@@UAE@XZ ; std::logic_error::~logic_error
  00008	f6 44 24 08 01	 test	 BYTE PTR ___flags$[esp], 1
  0000d	74 09		 je	 SHORT $L201914
  0000f	56		 push	 esi
  00010	e8 00 00 00 00	 call	 ??3@YAXPAX@Z		; operator delete
  00015	83 c4 04	 add	 esp, 4
$L201914:
  00018	8b c6		 mov	 eax, esi
  0001a	5e		 pop	 esi
  0001b	c2 04 00	 ret	 4
??_Glogic_error@std@@UAEPAXI@Z ENDP			; std::logic_error::`scalar deleting destructor'
_TEXT	ENDS
PUBLIC	?assign@?$basic_string@DU?$char_traits@D@std@@V?$allocator@D@2@@std@@QAEAAV12@ABV12@II@Z ; std::basic_string<char,std::char_traits<char>,std::allocator<char> >::assign
; Function compile flags: /Ogty
; File c:\program files\microsoft visual studio .net 2003\vc7\include\xstring
;	COMDAT ?assign@?$basic_string@DU?$char_traits@D@std@@V?$allocator@D@2@@std@@QAEAAV12@ABV12@II@Z
_TEXT	SEGMENT
__Right$ = 8						; size = 4
__Roff$ = 12						; size = 4
__Count$ = 16						; size = 4
?assign@?$basic_string@DU?$char_traits@D@std@@V?$allocator@D@2@@std@@QAEAAV12@ABV12@II@Z PROC NEAR ; std::basic_string<char,std::char_traits<char>,std::allocator<char> >::assign, COMDAT
; _this$ = ecx

; 590  : 		{	// assign _Right [_Roff, _Roff + _Count)

  00000	53		 push	 ebx
  00001	55		 push	 ebp
  00002	56		 push	 esi

; 591  : 		if (_Right.size() < _Roff)

  00003	8b 74 24 14	 mov	 esi, DWORD PTR __Roff$[esp+8]
  00007	57		 push	 edi
  00008	8b 7c 24 14	 mov	 edi, DWORD PTR __Right$[esp+12]
  0000c	39 77 14	 cmp	 DWORD PTR [edi+20], esi
  0000f	8b d9		 mov	 ebx, ecx
  00011	73 05		 jae	 SHORT $L184271

; 592  : 			_String_base::_Xran();	// _Roff off end

  00013	e8 00 00 00 00	 call	 ?_Xran@_String_base@std@@QBEXXZ ; std::_String_base::_Xran
$L184271:

; 593  : 		size_type _Num = _Right.size() - _Roff;

  00018	8b 6f 14	 mov	 ebp, DWORD PTR [edi+20]

; 594  : 		if (_Count < _Num)

  0001b	8b 44 24 1c	 mov	 eax, DWORD PTR __Count$[esp+12]
  0001f	2b ee		 sub	 ebp, esi
  00021	3b c5		 cmp	 eax, ebp
  00023	73 02		 jae	 SHORT $L184273

; 595  : 			_Num = _Count;	// trim _Num to size

  00025	8b e8		 mov	 ebp, eax
$L184273:

; 596  : 
; 597  : 		if (this == &_Right)

  00027	3b df		 cmp	 ebx, edi
  00029	75 1f		 jne	 SHORT $L184274

; 598  : 			erase((size_type)(_Roff + _Num)), erase(0, _Roff);	// substring

  0002b	6a ff		 push	 -1
  0002d	03 ee		 add	 ebp, esi
  0002f	55		 push	 ebp
  00030	8b cb		 mov	 ecx, ebx
  00032	e8 00 00 00 00	 call	 ?erase@?$basic_string@DU?$char_traits@D@std@@V?$allocator@D@2@@std@@QAEAAV12@II@Z ; std::basic_string<char,std::char_traits<char>,std::allocator<char> >::erase
  00037	56		 push	 esi
  00038	6a 00		 push	 0
  0003a	8b cb		 mov	 ecx, ebx
  0003c	e8 00 00 00 00	 call	 ?erase@?$basic_string@DU?$char_traits@D@std@@V?$allocator@D@2@@std@@QAEAAV12@II@Z ; std::basic_string<char,std::char_traits<char>,std::allocator<char> >::erase
  00041	5f		 pop	 edi
  00042	5e		 pop	 esi
  00043	5d		 pop	 ebp

; 603  : 			}
; 604  : 		return (*this);

  00044	8b c3		 mov	 eax, ebx
  00046	5b		 pop	 ebx

; 605  : 		}

  00047	c2 0c 00	 ret	 12			; 0000000cH
$L184274:

; 599  : 		else if (_Grow(_Num))

  0004a	83 fd fe	 cmp	 ebp, -2			; fffffffeH
  0004d	76 07		 jbe	 SHORT $L202064
  0004f	8b cb		 mov	 ecx, ebx
  00051	e8 00 00 00 00	 call	 ?_Xlen@_String_base@std@@QBEXXZ ; std::_String_base::_Xlen
$L202064:
  00056	8b 43 18	 mov	 eax, DWORD PTR [ebx+24]
  00059	3b c5		 cmp	 eax, ebp
  0005b	73 21		 jae	 SHORT $L202065
  0005d	8b 43 14	 mov	 eax, DWORD PTR [ebx+20]
  00060	50		 push	 eax
  00061	55		 push	 ebp
  00062	8b cb		 mov	 ecx, ebx
  00064	e8 00 00 00 00	 call	 ?_Copy@?$basic_string@DU?$char_traits@D@std@@V?$allocator@D@2@@std@@IAEXII@Z ; std::basic_string<char,std::char_traits<char>,std::allocator<char> >::_Copy
  00069	85 ed		 test	 ebp, ebp
$L202110:
  0006b	76 6d		 jbe	 SHORT $L202109

; 600  : 			{	// make room and assign new stuff
; 601  : 			_Traits::copy(_Myptr(), _Right._Myptr() + _Roff, _Num);

  0006d	8b 4f 18	 mov	 ecx, DWORD PTR [edi+24]
  00070	b8 10 00 00 00	 mov	 eax, 16			; 00000010H
  00075	3b c8		 cmp	 ecx, eax
  00077	72 2f		 jb	 SHORT $L202075
  00079	8b 57 04	 mov	 edx, DWORD PTR [edi+4]
  0007c	eb 2d		 jmp	 SHORT $L202076

; 599  : 		else if (_Grow(_Num))

$L202065:
  0007e	85 ed		 test	 ebp, ebp
  00080	75 e9		 jne	 SHORT $L202110
  00082	83 f8 10	 cmp	 eax, 16			; 00000010H
  00085	89 6b 14	 mov	 DWORD PTR [ebx+20], ebp
  00088	72 0f		 jb	 SHORT $L202057
  0008a	8b 43 04	 mov	 eax, DWORD PTR [ebx+4]
  0008d	5f		 pop	 edi
  0008e	5e		 pop	 esi
  0008f	c6 00 00	 mov	 BYTE PTR [eax], 0
  00092	5d		 pop	 ebp

; 603  : 			}
; 604  : 		return (*this);

  00093	8b c3		 mov	 eax, ebx
  00095	5b		 pop	 ebx

; 605  : 		}

  00096	c2 0c 00	 ret	 12			; 0000000cH

; 599  : 		else if (_Grow(_Num))

$L202057:
  00099	5f		 pop	 edi
  0009a	8d 43 04	 lea	 eax, DWORD PTR [ebx+4]
  0009d	5e		 pop	 esi
  0009e	c6 00 00	 mov	 BYTE PTR [eax], 0
  000a1	5d		 pop	 ebp

; 603  : 			}
; 604  : 		return (*this);

  000a2	8b c3		 mov	 eax, ebx
  000a4	5b		 pop	 ebx

; 605  : 		}

  000a5	c2 0c 00	 ret	 12			; 0000000cH

; 600  : 			{	// make room and assign new stuff
; 601  : 			_Traits::copy(_Myptr(), _Right._Myptr() + _Roff, _Num);

$L202075:
  000a8	8d 57 04	 lea	 edx, DWORD PTR [edi+4]
$L202076:
  000ab	39 43 18	 cmp	 DWORD PTR [ebx+24], eax
  000ae	8d 43 04	 lea	 eax, DWORD PTR [ebx+4]
  000b1	72 04		 jb	 SHORT $L202081
  000b3	8b 38		 mov	 edi, DWORD PTR [eax]
  000b5	eb 02		 jmp	 SHORT $L202082
$L202081:
  000b7	8b f8		 mov	 edi, eax
$L202082:
  000b9	03 f2		 add	 esi, edx
  000bb	8b cd		 mov	 ecx, ebp
  000bd	8b d1		 mov	 edx, ecx
  000bf	c1 e9 02	 shr	 ecx, 2
  000c2	f3 a5		 rep movsd
  000c4	8b ca		 mov	 ecx, edx
  000c6	83 e1 03	 and	 ecx, 3
  000c9	f3 a4		 rep movsb

; 602  : 			_Eos(_Num);

  000cb	83 7b 18 10	 cmp	 DWORD PTR [ebx+24], 16	; 00000010H
  000cf	89 6b 14	 mov	 DWORD PTR [ebx+20], ebp
  000d2	72 02		 jb	 SHORT $L202104
  000d4	8b 00		 mov	 eax, DWORD PTR [eax]
$L202104:
  000d6	c6 04 28 00	 mov	 BYTE PTR [eax+ebp], 0
$L202109:
  000da	5f		 pop	 edi
  000db	5e		 pop	 esi
  000dc	5d		 pop	 ebp

; 603  : 			}
; 604  : 		return (*this);

  000dd	8b c3		 mov	 eax, ebx
  000df	5b		 pop	 ebx

; 605  : 		}

  000e0	c2 0c 00	 ret	 12			; 0000000cH
?assign@?$basic_string@DU?$char_traits@D@std@@V?$allocator@D@2@@std@@QAEAAV12@ABV12@II@Z ENDP ; std::basic_string<char,std::char_traits<char>,std::allocator<char> >::assign
_TEXT	ENDS
PUBLIC	?assign@?$basic_string@DU?$char_traits@D@std@@V?$allocator@D@2@@std@@QAEAAV12@PBDI@Z ; std::basic_string<char,std::char_traits<char>,std::allocator<char> >::assign
; Function compile flags: /Ogty
;	COMDAT ?assign@?$basic_string@DU?$char_traits@D@std@@V?$allocator@D@2@@std@@QAEAAV12@PBDI@Z
_TEXT	SEGMENT
__Ptr$ = 8						; size = 4
__Num$ = 12						; size = 4
?assign@?$basic_string@DU?$char_traits@D@std@@V?$allocator@D@2@@std@@QAEAAV12@PBDI@Z PROC NEAR ; std::basic_string<char,std::char_traits<char>,std::allocator<char> >::assign, COMDAT
; _this$ = ecx

; 608  : 		{	// assign [_Ptr, _Ptr + _Num)

  00000	53		 push	 ebx
  00001	8b d9		 mov	 ebx, ecx

; 609  : 		if (_Inside(_Ptr))

  00003	8b 53 18	 mov	 edx, DWORD PTR [ebx+24]
  00006	83 fa 10	 cmp	 edx, 16			; 00000010H
  00009	56		 push	 esi
  0000a	57		 push	 edi
  0000b	72 05		 jb	 SHORT $L202134
  0000d	8b 43 04	 mov	 eax, DWORD PTR [ebx+4]
  00010	eb 03		 jmp	 SHORT $L202135
$L202134:
  00012	8d 43 04	 lea	 eax, DWORD PTR [ebx+4]
$L202135:
  00015	8b 74 24 10	 mov	 esi, DWORD PTR __Ptr$[esp+8]
  00019	3b f0		 cmp	 esi, eax
  0001b	72 34		 jb	 SHORT $L184989
  0001d	83 fa 10	 cmp	 edx, 16			; 00000010H
  00020	8d 43 04	 lea	 eax, DWORD PTR [ebx+4]
  00023	72 04		 jb	 SHORT $L202138
  00025	8b 08		 mov	 ecx, DWORD PTR [eax]
  00027	eb 02		 jmp	 SHORT $L202139
$L202138:
  00029	8b c8		 mov	 ecx, eax
$L202139:
  0002b	8b 7b 14	 mov	 edi, DWORD PTR [ebx+20]
  0002e	03 f9		 add	 edi, ecx
  00030	3b fe		 cmp	 edi, esi
  00032	76 1d		 jbe	 SHORT $L184989

; 610  : 			return (assign(*this, _Ptr - _Myptr(), _Num));	// substring

  00034	83 fa 10	 cmp	 edx, 16			; 00000010H
  00037	72 02		 jb	 SHORT $L202147
  00039	8b 00		 mov	 eax, DWORD PTR [eax]
$L202147:
  0003b	8b 4c 24 14	 mov	 ecx, DWORD PTR __Num$[esp+8]
  0003f	51		 push	 ecx
  00040	2b f0		 sub	 esi, eax
  00042	56		 push	 esi
  00043	53		 push	 ebx
  00044	8b cb		 mov	 ecx, ebx
  00046	e8 00 00 00 00	 call	 ?assign@?$basic_string@DU?$char_traits@D@std@@V?$allocator@D@2@@std@@QAEAAV12@ABV12@II@Z ; std::basic_string<char,std::char_traits<char>,std::allocator<char> >::assign
  0004b	5f		 pop	 edi
  0004c	5e		 pop	 esi
  0004d	5b		 pop	 ebx

; 618  : 		}

  0004e	c2 08 00	 ret	 8
$L184989:
  00051	55		 push	 ebp

; 611  : 
; 612  : 		if (_Grow(_Num))

  00052	8b 6c 24 18	 mov	 ebp, DWORD PTR __Num$[esp+12]
  00056	83 fd fe	 cmp	 ebp, -2			; fffffffeH
  00059	76 07		 jbe	 SHORT $L202288
  0005b	8b cb		 mov	 ecx, ebx
  0005d	e8 00 00 00 00	 call	 ?_Xlen@_String_base@std@@QBEXXZ ; std::_String_base::_Xlen
$L202288:
  00062	8b 43 18	 mov	 eax, DWORD PTR [ebx+24]
  00065	3b c5		 cmp	 eax, ebp
  00067	73 1b		 jae	 SHORT $L202289
  00069	8b 53 14	 mov	 edx, DWORD PTR [ebx+20]
  0006c	52		 push	 edx
  0006d	55		 push	 ebp
  0006e	8b cb		 mov	 ecx, ebx
  00070	e8 00 00 00 00	 call	 ?_Copy@?$basic_string@DU?$char_traits@D@std@@V?$allocator@D@2@@std@@IAEXII@Z ; std::basic_string<char,std::char_traits<char>,std::allocator<char> >::_Copy
  00075	85 ed		 test	 ebp, ebp
$L202327:
  00077	76 68		 jbe	 SHORT $L202324

; 613  : 			{	// make room and assign new stuff
; 614  : 			_Traits::copy(_Myptr(), _Ptr, _Num);

  00079	83 7b 18 10	 cmp	 DWORD PTR [ebx+24], 16	; 00000010H
  0007d	72 2f		 jb	 SHORT $L202298
  0007f	8b 7b 04	 mov	 edi, DWORD PTR [ebx+4]
  00082	eb 2d		 jmp	 SHORT $L202299

; 611  : 
; 612  : 		if (_Grow(_Num))

$L202289:
  00084	85 ed		 test	 ebp, ebp
  00086	75 ef		 jne	 SHORT $L202327
  00088	83 f8 10	 cmp	 eax, 16			; 00000010H
  0008b	89 6b 14	 mov	 DWORD PTR [ebx+20], ebp
  0008e	72 0f		 jb	 SHORT $L202281
  00090	8b 43 04	 mov	 eax, DWORD PTR [ebx+4]
  00093	5d		 pop	 ebp
  00094	5f		 pop	 edi
  00095	c6 00 00	 mov	 BYTE PTR [eax], 0
  00098	5e		 pop	 esi

; 616  : 			}
; 617  : 		return (*this);

  00099	8b c3		 mov	 eax, ebx
  0009b	5b		 pop	 ebx

; 618  : 		}

  0009c	c2 08 00	 ret	 8

; 611  : 
; 612  : 		if (_Grow(_Num))

$L202281:
  0009f	5d		 pop	 ebp
  000a0	8d 43 04	 lea	 eax, DWORD PTR [ebx+4]
  000a3	5f		 pop	 edi
  000a4	c6 00 00	 mov	 BYTE PTR [eax], 0
  000a7	5e		 pop	 esi

; 616  : 			}
; 617  : 		return (*this);

  000a8	8b c3		 mov	 eax, ebx
  000aa	5b		 pop	 ebx

; 618  : 		}

  000ab	c2 08 00	 ret	 8

; 613  : 			{	// make room and assign new stuff
; 614  : 			_Traits::copy(_Myptr(), _Ptr, _Num);

$L202298:
  000ae	8d 7b 04	 lea	 edi, DWORD PTR [ebx+4]
$L202299:
  000b1	8b cd		 mov	 ecx, ebp
  000b3	8b c1		 mov	 eax, ecx
  000b5	c1 e9 02	 shr	 ecx, 2
  000b8	f3 a5		 rep movsd
  000ba	8b c8		 mov	 ecx, eax
  000bc	83 e1 03	 and	 ecx, 3
  000bf	f3 a4		 rep movsb

; 615  : 			_Eos(_Num);

  000c1	83 7b 18 10	 cmp	 DWORD PTR [ebx+24], 16	; 00000010H
  000c5	89 6b 14	 mov	 DWORD PTR [ebx+20], ebp
  000c8	72 10		 jb	 SHORT $L202320
  000ca	8b 43 04	 mov	 eax, DWORD PTR [ebx+4]
  000cd	c6 04 28 00	 mov	 BYTE PTR [eax+ebp], 0
  000d1	5d		 pop	 ebp
  000d2	5f		 pop	 edi
  000d3	5e		 pop	 esi

; 616  : 			}
; 617  : 		return (*this);

  000d4	8b c3		 mov	 eax, ebx
  000d6	5b		 pop	 ebx

; 618  : 		}

  000d7	c2 08 00	 ret	 8

; 615  : 			_Eos(_Num);

$L202320:
  000da	8d 43 04	 lea	 eax, DWORD PTR [ebx+4]
  000dd	c6 04 28 00	 mov	 BYTE PTR [eax+ebp], 0
$L202324:
  000e1	5d		 pop	 ebp
  000e2	5f		 pop	 edi
  000e3	5e		 pop	 esi

; 616  : 			}
; 617  : 		return (*this);

  000e4	8b c3		 mov	 eax, ebx
  000e6	5b		 pop	 ebx

; 618  : 		}

  000e7	c2 08 00	 ret	 8
?assign@?$basic_string@DU?$char_traits@D@std@@V?$allocator@D@2@@std@@QAEAAV12@PBDI@Z ENDP ; std::basic_string<char,std::char_traits<char>,std::allocator<char> >::assign
_TEXT	ENDS
PUBLIC	?_Tidy@?$vector@U?$pair@PAVCDbController@@K@std@@V?$allocator@U?$pair@PAVCDbController@@K@std@@@2@@std@@IAEXXZ ; std::vector<std::pair<CDbController *,unsigned long>,std::allocator<std::pair<CDbController *,unsigned long> > >::_Tidy
; Function compile flags: /Ogty
; File c:\program files\microsoft visual studio .net 2003\vc7\include\vector
;	COMDAT ?_Tidy@?$vector@U?$pair@PAVCDbController@@K@std@@V?$allocator@U?$pair@PAVCDbController@@K@std@@@2@@std@@IAEXXZ
_TEXT	SEGMENT
?_Tidy@?$vector@U?$pair@PAVCDbController@@K@std@@V?$allocator@U?$pair@PAVCDbController@@K@std@@@2@@std@@IAEXXZ PROC NEAR ; std::vector<std::pair<CDbController *,unsigned long>,std::allocator<std::pair<CDbController *,unsigned long> > >::_Tidy, COMDAT
; _this$ = ecx

; 791  : 		{	// free all storage

  00000	56		 push	 esi
  00001	8b f1		 mov	 esi, ecx

; 792  : 		if (_Myfirst != 0)

  00003	8b 46 04	 mov	 eax, DWORD PTR [esi+4]
  00006	85 c0		 test	 eax, eax
  00008	74 09		 je	 SHORT $L202331

; 793  : 			{	// something to free, destroy and deallocate it
; 794  : 			_Destroy(_Myfirst, _Mylast);
; 795  : 			this->_Alval.deallocate(_Myfirst, _Myend - _Myfirst);

  0000a	50		 push	 eax
  0000b	e8 00 00 00 00	 call	 ??3@YAXPAX@Z		; operator delete
  00010	83 c4 04	 add	 esp, 4
$L202331:

; 796  : 			}
; 797  : 		_Myfirst = 0, _Mylast = 0, _Myend = 0;

  00013	c7 46 04 00 00
	00 00		 mov	 DWORD PTR [esi+4], 0
  0001a	c7 46 08 00 00
	00 00		 mov	 DWORD PTR [esi+8], 0
  00021	c7 46 0c 00 00
	00 00		 mov	 DWORD PTR [esi+12], 0
  00028	5e		 pop	 esi

; 798  : 		}

  00029	c3		 ret	 0
?_Tidy@?$vector@U?$pair@PAVCDbController@@K@std@@V?$allocator@U?$pair@PAVCDbController@@K@std@@@2@@std@@IAEXXZ ENDP ; std::vector<std::pair<CDbController *,unsigned long>,std::allocator<std::pair<CDbController *,unsigned long> > >::_Tidy
_TEXT	ENDS
PUBLIC	??0?$basic_string@DU?$char_traits@D@std@@V?$allocator@D@2@@std@@QAE@ABV01@@Z ; std::basic_string<char,std::char_traits<char>,std::allocator<char> >::basic_string<char,std::char_traits<char>,std::allocator<char> >
; Function compile flags: /Ogty
; File c:\program files\microsoft visual studio .net 2003\vc7\include\xstring
;	COMDAT ??0?$basic_string@DU?$char_traits@D@std@@V?$allocator@D@2@@std@@QAE@ABV01@@Z
_TEXT	SEGMENT
__Right$ = 8						; size = 4
??0?$basic_string@DU?$char_traits@D@std@@V?$allocator@D@2@@std@@QAE@ABV01@@Z PROC NEAR ; std::basic_string<char,std::char_traits<char>,std::allocator<char> >::basic_string<char,std::char_traits<char>,std::allocator<char> >, COMDAT
; _this$ = ecx

; 323  : 		{	// construct by copying _Right

  00000	56		 push	 esi

; 324  : 		_Tidy();

  00001	33 c0		 xor	 eax, eax
  00003	8b f1		 mov	 esi, ecx

; 325  : 		assign(_Right, 0, npos);

  00005	6a ff		 push	 -1
  00007	89 46 14	 mov	 DWORD PTR [esi+20], eax
  0000a	c7 46 18 0f 00
	00 00		 mov	 DWORD PTR [esi+24], 15	; 0000000fH
  00011	50		 push	 eax
  00012	88 46 04	 mov	 BYTE PTR [esi+4], al
  00015	8b 44 24 10	 mov	 eax, DWORD PTR __Right$[esp+8]
  00019	50		 push	 eax
  0001a	e8 00 00 00 00	 call	 ?assign@?$basic_string@DU?$char_traits@D@std@@V?$allocator@D@2@@std@@QAEAAV12@ABV12@II@Z ; std::basic_string<char,std::char_traits<char>,std::allocator<char> >::assign

; 326  : 		}

  0001f	8b c6		 mov	 eax, esi
  00021	5e		 pop	 esi
  00022	c2 04 00	 ret	 4
??0?$basic_string@DU?$char_traits@D@std@@V?$allocator@D@2@@std@@QAE@ABV01@@Z ENDP ; std::basic_string<char,std::char_traits<char>,std::allocator<char> >::basic_string<char,std::char_traits<char>,std::allocator<char> >
_TEXT	ENDS
PUBLIC	?assign@?$basic_string@DU?$char_traits@D@std@@V?$allocator@D@2@@std@@QAEAAV12@PBD@Z ; std::basic_string<char,std::char_traits<char>,std::allocator<char> >::assign
; Function compile flags: /Ogty
;	COMDAT ?assign@?$basic_string@DU?$char_traits@D@std@@V?$allocator@D@2@@std@@QAEAAV12@PBD@Z
_TEXT	SEGMENT
__Ptr$ = 8						; size = 4
?assign@?$basic_string@DU?$char_traits@D@std@@V?$allocator@D@2@@std@@QAEAAV12@PBD@Z PROC NEAR ; std::basic_string<char,std::char_traits<char>,std::allocator<char> >::assign, COMDAT
; _this$ = ecx

; 621  : 		{	// assign [_Ptr, <null>)

  00000	56		 push	 esi

; 622  : 		return (assign(_Ptr, _Traits::length(_Ptr)));

  00001	8b 74 24 08	 mov	 esi, DWORD PTR __Ptr$[esp]
  00005	8b c6		 mov	 eax, esi
  00007	57		 push	 edi
  00008	8d 78 01	 lea	 edi, DWORD PTR [eax+1]
  0000b	eb 03 8d 49 00	 npad	 5
$L202406:
  00010	8a 10		 mov	 dl, BYTE PTR [eax]
  00012	40		 inc	 eax
  00013	84 d2		 test	 dl, dl
  00015	75 f9		 jne	 SHORT $L202406
  00017	2b c7		 sub	 eax, edi
  00019	50		 push	 eax
  0001a	56		 push	 esi
  0001b	e8 00 00 00 00	 call	 ?assign@?$basic_string@DU?$char_traits@D@std@@V?$allocator@D@2@@std@@QAEAAV12@PBDI@Z ; std::basic_string<char,std::char_traits<char>,std::allocator<char> >::assign
  00020	5f		 pop	 edi
  00021	5e		 pop	 esi

; 623  : 		}

  00022	c2 04 00	 ret	 4
?assign@?$basic_string@DU?$char_traits@D@std@@V?$allocator@D@2@@std@@QAEAAV12@PBD@Z ENDP ; std::basic_string<char,std::char_traits<char>,std::allocator<char> >::assign
_TEXT	ENDS
PUBLIC	??1?$vector@U?$pair@PAVCDbController@@K@std@@V?$allocator@U?$pair@PAVCDbController@@K@std@@@2@@std@@QAE@XZ ; std::vector<std::pair<CDbController *,unsigned long>,std::allocator<std::pair<CDbController *,unsigned long> > >::~vector<std::pair<CDbController *,unsigned long>,std::allocator<std::pair<CDbController *,unsigned long> > >
; Function compile flags: /Ogty
; File c:\program files\microsoft visual studio .net 2003\vc7\include\vector
;	COMDAT ??1?$vector@U?$pair@PAVCDbController@@K@std@@V?$allocator@U?$pair@PAVCDbController@@K@std@@@2@@std@@QAE@XZ
_TEXT	SEGMENT
??1?$vector@U?$pair@PAVCDbController@@K@std@@V?$allocator@U?$pair@PAVCDbController@@K@std@@@2@@std@@QAE@XZ PROC NEAR ; std::vector<std::pair<CDbController *,unsigned long>,std::allocator<std::pair<CDbController *,unsigned long> > >::~vector<std::pair<CDbController *,unsigned long>,std::allocator<std::pair<CDbController *,unsigned long> > >, COMDAT
; _this$ = ecx

; 387  : 		{	// destroy the object

  00000	56		 push	 esi
  00001	8b f1		 mov	 esi, ecx

; 388  : 		_Tidy();

  00003	8b 46 04	 mov	 eax, DWORD PTR [esi+4]
  00006	85 c0		 test	 eax, eax
  00008	74 09		 je	 SHORT $L202418
  0000a	50		 push	 eax
  0000b	e8 00 00 00 00	 call	 ??3@YAXPAX@Z		; operator delete
  00010	83 c4 04	 add	 esp, 4
$L202418:
  00013	c7 46 04 00 00
	00 00		 mov	 DWORD PTR [esi+4], 0
  0001a	c7 46 08 00 00
	00 00		 mov	 DWORD PTR [esi+8], 0
  00021	c7 46 0c 00 00
	00 00		 mov	 DWORD PTR [esi+12], 0
  00028	5e		 pop	 esi

; 389  : 		}

  00029	c3		 ret	 0
??1?$vector@U?$pair@PAVCDbController@@K@std@@V?$allocator@U?$pair@PAVCDbController@@K@std@@@2@@std@@QAE@XZ ENDP ; std::vector<std::pair<CDbController *,unsigned long>,std::allocator<std::pair<CDbController *,unsigned long> > >::~vector<std::pair<CDbController *,unsigned long>,std::allocator<std::pair<CDbController *,unsigned long> > >
_TEXT	ENDS
PUBLIC	??0logic_error@std@@QAE@ABV?$basic_string@DU?$char_traits@D@std@@V?$allocator@D@2@@1@@Z ; std::logic_error::logic_error
EXTRN	??0exception@@QAE@XZ:NEAR			; exception::exception
;	COMDAT xdata$x
; File c:\program files\microsoft visual studio .net 2003\vc7\include\iosfwd
xdata$x	SEGMENT
$T202522 DD	0ffffffffH
	DD	FLAT:$L202422
$T202520 DD	019930520H
	DD	01H
	DD	FLAT:$T202522
	DD	2 DUP(00H)
	DD	2 DUP(00H)
; Function compile flags: /Ogty
; File c:\program files\microsoft visual studio .net 2003\vc7\include\stdexcept
xdata$x	ENDS
;	COMDAT ??0logic_error@std@@QAE@ABV?$basic_string@DU?$char_traits@D@std@@V?$allocator@D@2@@1@@Z
_TEXT	SEGMENT
_this$ = -16						; size = 4
__$EHRec$ = -12						; size = 12
__Message$ = 8						; size = 4
??0logic_error@std@@QAE@ABV?$basic_string@DU?$char_traits@D@std@@V?$allocator@D@2@@1@@Z PROC NEAR ; std::logic_error::logic_error, COMDAT
; _this$ = ecx

; 19   : 		{	// construct from message string

  00000	6a ff		 push	 -1
  00002	68 00 00 00 00	 push	 __ehhandler$??0logic_error@std@@QAE@ABV?$basic_string@DU?$char_traits@D@std@@V?$allocator@D@2@@1@@Z
  00007	64 a1 00 00 00
	00		 mov	 eax, DWORD PTR fs:__except_list
  0000d	50		 push	 eax
  0000e	64 89 25 00 00
	00 00		 mov	 DWORD PTR fs:__except_list, esp
  00015	51		 push	 ecx
  00016	56		 push	 esi
  00017	8b f1		 mov	 esi, ecx
  00019	89 74 24 04	 mov	 DWORD PTR _this$[esp+20], esi
  0001d	e8 00 00 00 00	 call	 ??0exception@@QAE@XZ	; exception::exception
  00022	33 c0		 xor	 eax, eax
  00024	8d 4e 0c	 lea	 ecx, DWORD PTR [esi+12]
  00027	c7 06 00 00 00
	00		 mov	 DWORD PTR [esi], OFFSET FLAT:??_7logic_error@std@@6B@
  0002d	6a ff		 push	 -1
  0002f	89 41 14	 mov	 DWORD PTR [ecx+20], eax
  00032	c7 41 18 0f 00
	00 00		 mov	 DWORD PTR [ecx+24], 15	; 0000000fH
  00039	50		 push	 eax
  0003a	89 44 24 18	 mov	 DWORD PTR __$EHRec$[esp+36], eax
  0003e	88 41 04	 mov	 BYTE PTR [ecx+4], al
  00041	8b 44 24 20	 mov	 eax, DWORD PTR __Message$[esp+24]
  00045	50		 push	 eax
  00046	e8 00 00 00 00	 call	 ?assign@?$basic_string@DU?$char_traits@D@std@@V?$allocator@D@2@@std@@QAEAAV12@ABV12@II@Z ; std::basic_string<char,std::char_traits<char>,std::allocator<char> >::assign

; 20   : 		}

  0004b	8b 4c 24 08	 mov	 ecx, DWORD PTR __$EHRec$[esp+20]
  0004f	8b c6		 mov	 eax, esi
  00051	5e		 pop	 esi
  00052	64 89 0d 00 00
	00 00		 mov	 DWORD PTR fs:__except_list, ecx
  00059	83 c4 10	 add	 esp, 16			; 00000010H
  0005c	c2 04 00	 ret	 4
_TEXT	ENDS
;	COMDAT text$x
text$x	SEGMENT
$L202422:
  00000	8b 4d f0	 mov	 ecx, DWORD PTR _this$[ebp]
  00003	e9 00 00 00 00	 jmp	 ??1exception@@UAE@XZ	; exception::~exception
__ehhandler$??0logic_error@std@@QAE@ABV?$basic_string@DU?$char_traits@D@std@@V?$allocator@D@2@@1@@Z:
  00008	b8 00 00 00 00	 mov	 eax, OFFSET FLAT:$T202520
  0000d	e9 00 00 00 00	 jmp	 ___CxxFrameHandler
text$x	ENDS
??0logic_error@std@@QAE@ABV?$basic_string@DU?$char_traits@D@std@@V?$allocator@D@2@@1@@Z ENDP ; std::logic_error::logic_error
PUBLIC	??0length_error@std@@QAE@ABV?$basic_string@DU?$char_traits@D@std@@V?$allocator@D@2@@1@@Z ; std::length_error::length_error
PUBLIC	??_7length_error@std@@6B@			; std::length_error::`vftable'
PUBLIC	??_Glength_error@std@@UAEPAXI@Z			; std::length_error::`scalar deleting destructor'
EXTRN	??_Elength_error@std@@UAEPAXI@Z:NEAR		; std::length_error::`vector deleting destructor'
;	COMDAT ??_7length_error@std@@6B@
CONST	SEGMENT
??_7length_error@std@@6B@ DD FLAT:??_Elength_error@std@@UAEPAXI@Z ; std::length_error::`vftable'
	DD	FLAT:?what@logic_error@std@@UBEPBDXZ
; Function compile flags: /Ogty
CONST	ENDS
;	COMDAT ??0length_error@std@@QAE@ABV?$basic_string@DU?$char_traits@D@std@@V?$allocator@D@2@@1@@Z
_TEXT	SEGMENT
__Message$ = 8						; size = 4
??0length_error@std@@QAE@ABV?$basic_string@DU?$char_traits@D@std@@V?$allocator@D@2@@1@@Z PROC NEAR ; std::length_error::length_error, COMDAT
; _this$ = ecx

; 95   : 		{	// construct from message string

  00000	8b 44 24 04	 mov	 eax, DWORD PTR __Message$[esp-4]
  00004	56		 push	 esi
  00005	50		 push	 eax
  00006	8b f1		 mov	 esi, ecx
  00008	e8 00 00 00 00	 call	 ??0logic_error@std@@QAE@ABV?$basic_string@DU?$char_traits@D@std@@V?$allocator@D@2@@1@@Z ; std::logic_error::logic_error
  0000d	c7 06 00 00 00
	00		 mov	 DWORD PTR [esi], OFFSET FLAT:??_7length_error@std@@6B@

; 96   : 		}

  00013	8b c6		 mov	 eax, esi
  00015	5e		 pop	 esi
  00016	c2 04 00	 ret	 4
??0length_error@std@@QAE@ABV?$basic_string@DU?$char_traits@D@std@@V?$allocator@D@2@@1@@Z ENDP ; std::length_error::length_error
_TEXT	ENDS
PUBLIC	??1length_error@std@@UAE@XZ			; std::length_error::~length_error
; Function compile flags: /Ogty
;	COMDAT ??_Glength_error@std@@UAEPAXI@Z
_TEXT	SEGMENT
___flags$ = 8						; size = 4
??_Glength_error@std@@UAEPAXI@Z PROC NEAR		; std::length_error::`scalar deleting destructor', COMDAT
; _this$ = ecx
  00000	56		 push	 esi
  00001	8b f1		 mov	 esi, ecx
  00003	e8 00 00 00 00	 call	 ??1length_error@std@@UAE@XZ ; std::length_error::~length_error
  00008	f6 44 24 08 01	 test	 BYTE PTR ___flags$[esp], 1
  0000d	74 09		 je	 SHORT $L202530
  0000f	56		 push	 esi
  00010	e8 00 00 00 00	 call	 ??3@YAXPAX@Z		; operator delete
  00015	83 c4 04	 add	 esp, 4
$L202530:
  00018	8b c6		 mov	 eax, esi
  0001a	5e		 pop	 esi
  0001b	c2 04 00	 ret	 4
??_Glength_error@std@@UAEPAXI@Z ENDP			; std::length_error::`scalar deleting destructor'
; Function compile flags: /Ogty
_TEXT	ENDS
;	COMDAT ??1length_error@std@@UAE@XZ
_TEXT	SEGMENT
??1length_error@std@@UAE@XZ PROC NEAR			; std::length_error::~length_error, COMDAT
; _this$ = ecx

; 99   : 		{}	// destroy the object

  00000	56		 push	 esi
  00001	8b f1		 mov	 esi, ecx
  00003	c7 06 00 00 00
	00		 mov	 DWORD PTR [esi], OFFSET FLAT:??_7logic_error@std@@6B@
  00009	83 7e 24 10	 cmp	 DWORD PTR [esi+36], 16	; 00000010H
  0000d	72 0c		 jb	 SHORT $L202623
  0000f	8b 46 10	 mov	 eax, DWORD PTR [esi+16]
  00012	50		 push	 eax
  00013	e8 00 00 00 00	 call	 ??3@YAXPAX@Z		; operator delete
  00018	83 c4 04	 add	 esp, 4
$L202623:
  0001b	33 c0		 xor	 eax, eax
  0001d	c7 46 24 0f 00
	00 00		 mov	 DWORD PTR [esi+36], 15	; 0000000fH
  00024	89 46 20	 mov	 DWORD PTR [esi+32], eax
  00027	88 46 10	 mov	 BYTE PTR [esi+16], al
  0002a	8b ce		 mov	 ecx, esi
  0002c	5e		 pop	 esi
  0002d	e9 00 00 00 00	 jmp	 ??1exception@@UAE@XZ	; exception::~exception
??1length_error@std@@UAE@XZ ENDP			; std::length_error::~length_error
_TEXT	ENDS
PUBLIC	??0?$basic_string@DU?$char_traits@D@std@@V?$allocator@D@2@@std@@QAE@PBD@Z ; std::basic_string<char,std::char_traits<char>,std::allocator<char> >::basic_string<char,std::char_traits<char>,std::allocator<char> >
; Function compile flags: /Ogty
; File c:\program files\microsoft visual studio .net 2003\vc7\include\xstring
;	COMDAT ??0?$basic_string@DU?$char_traits@D@std@@V?$allocator@D@2@@std@@QAE@PBD@Z
_TEXT	SEGMENT
__Ptr$ = 8						; size = 4
??0?$basic_string@DU?$char_traits@D@std@@V?$allocator@D@2@@std@@QAE@PBD@Z PROC NEAR ; std::basic_string<char,std::char_traits<char>,std::allocator<char> >::basic_string<char,std::char_traits<char>,std::allocator<char> >, COMDAT
; _this$ = ecx

; 361  : 		_Tidy();
; 362  : 		assign(_Ptr);

  00000	8b 54 24 04	 mov	 edx, DWORD PTR __Ptr$[esp-4]
  00004	56		 push	 esi
  00005	8b f1		 mov	 esi, ecx
  00007	8b c2		 mov	 eax, edx
  00009	57		 push	 edi
  0000a	c7 46 18 0f 00
	00 00		 mov	 DWORD PTR [esi+24], 15	; 0000000fH
  00011	c7 46 14 00 00
	00 00		 mov	 DWORD PTR [esi+20], 0
  00018	c6 46 04 00	 mov	 BYTE PTR [esi+4], 0
  0001c	8d 78 01	 lea	 edi, DWORD PTR [eax+1]
  0001f	90		 npad	 1
$L202710:
  00020	8a 08		 mov	 cl, BYTE PTR [eax]
  00022	40		 inc	 eax
  00023	84 c9		 test	 cl, cl
  00025	75 f9		 jne	 SHORT $L202710
  00027	2b c7		 sub	 eax, edi
  00029	50		 push	 eax
  0002a	52		 push	 edx
  0002b	8b ce		 mov	 ecx, esi
  0002d	e8 00 00 00 00	 call	 ?assign@?$basic_string@DU?$char_traits@D@std@@V?$allocator@D@2@@std@@QAEAAV12@PBDI@Z ; std::basic_string<char,std::char_traits<char>,std::allocator<char> >::assign
  00032	5f		 pop	 edi

; 363  : 		}

  00033	8b c6		 mov	 eax, esi
  00035	5e		 pop	 esi
  00036	c2 04 00	 ret	 4
??0?$basic_string@DU?$char_traits@D@std@@V?$allocator@D@2@@std@@QAE@PBD@Z ENDP ; std::basic_string<char,std::char_traits<char>,std::allocator<char> >::basic_string<char,std::char_traits<char>,std::allocator<char> >
_TEXT	ENDS
PUBLIC	??1CDbControllerTimer@@UAE@XZ			; CDbControllerTimer::~CDbControllerTimer
PUBLIC	??_7CDbControllerTimer@@6B@			; CDbControllerTimer::`vftable'
PUBLIC	??_GCDbControllerTimer@@UAEPAXI@Z		; CDbControllerTimer::`scalar deleting destructor'
EXTRN	??_ECDbControllerTimer@@UAEPAXI@Z:NEAR		; CDbControllerTimer::`vector deleting destructor'
;	COMDAT ??_7CDbControllerTimer@@6B@
; File c:\program files\microsoft visual studio .net 2003\vc7\include\xmemory
CONST	SEGMENT
??_7CDbControllerTimer@@6B@ DD FLAT:??_ECDbControllerTimer@@UAEPAXI@Z ; CDbControllerTimer::`vftable'
; Function compile flags: /Ogty
; File c:\documents and settings\test\mes documents\source\virtuos_v17\build\program\databaseserver\dbcontroller.cpp
CONST	ENDS
;	COMDAT ??1CDbControllerTimer@@UAE@XZ
_TEXT	SEGMENT
??1CDbControllerTimer@@UAE@XZ PROC NEAR			; CDbControllerTimer::~CDbControllerTimer, COMDAT
; _this$ = ecx

; 155  : {

  00000	56		 push	 esi
  00001	8b f1		 mov	 esi, ecx

; 156  : }

  00003	8d 46 18	 lea	 eax, DWORD PTR [esi+24]
  00006	c7 06 00 00 00
	00		 mov	 DWORD PTR [esi], OFFSET FLAT:??_7CDbControllerTimer@@6B@
  0000c	50		 push	 eax
  0000d	c7 46 14 00 00
	00 00		 mov	 DWORD PTR [esi+20], OFFSET FLAT:??_7CMclCritSec@@6B@
  00014	ff 15 00 00 00
	00		 call	 DWORD PTR __imp__DeleteCriticalSection@4
  0001a	8b 46 08	 mov	 eax, DWORD PTR [esi+8]
  0001d	85 c0		 test	 eax, eax
  0001f	74 09		 je	 SHORT $L202736
  00021	50		 push	 eax
  00022	e8 00 00 00 00	 call	 ??3@YAXPAX@Z		; operator delete
  00027	83 c4 04	 add	 esp, 4
$L202736:
  0002a	c7 46 08 00 00
	00 00		 mov	 DWORD PTR [esi+8], 0
  00031	c7 46 0c 00 00
	00 00		 mov	 DWORD PTR [esi+12], 0
  00038	c7 46 10 00 00
	00 00		 mov	 DWORD PTR [esi+16], 0
  0003f	5e		 pop	 esi
  00040	c3		 ret	 0
??1CDbControllerTimer@@UAE@XZ ENDP			; CDbControllerTimer::~CDbControllerTimer
_TEXT	ENDS
PUBLIC	??_R0?AVlogic_error@std@@@8			; std::logic_error `RTTI Type Descriptor'
PUBLIC	__CT??_R0?AVlogic_error@std@@@8??0logic_error@std@@QAE@ABV01@@Z40
PUBLIC	??_R0?AVexception@@@8				; exception `RTTI Type Descriptor'
PUBLIC	__CT??_R0?AVexception@@@8??0exception@@QAE@ABV0@@Z12
PUBLIC	??0logic_error@std@@QAE@ABV01@@Z		; std::logic_error::logic_error
PUBLIC	??0length_error@std@@QAE@ABV01@@Z		; std::length_error::length_error
PUBLIC	__TI3?AVlength_error@std@@
PUBLIC	__CTA3?AVlength_error@std@@
PUBLIC	??_R0?AVlength_error@std@@@8			; std::length_error `RTTI Type Descriptor'
PUBLIC	__CT??_R0?AVlength_error@std@@@8??0length_error@std@@QAE@ABV01@@Z40
PUBLIC	?_Xlen@?$vector@U?$pair@PAVCDbController@@K@std@@V?$allocator@U?$pair@PAVCDbController@@K@std@@@2@@std@@IBEXXZ ; std::vector<std::pair<CDbController *,unsigned long>,std::allocator<std::pair<CDbController *,unsigned long> > >::_Xlen
PUBLIC	??_C@_0BD@OLBABOEK@vector?$DMT?$DO?5too?5long?$AA@ ; `string'
EXTRN	??0exception@@QAE@ABV0@@Z:NEAR			; exception::exception
EXTRN	??_7type_info@@6B@:DWORD			; type_info::`vftable'
;	COMDAT xdata$x
; File c:\program files\microsoft visual studio .net 2003\vc7\include\stdexcept
xdata$x	SEGMENT
$T202858 DD	0ffffffffH
	DD	FLAT:$L202743
$T202855 DD	019930520H
	DD	01H
	DD	FLAT:$T202858
	DD	2 DUP(00H)
	DD	2 DUP(00H)
xdata$x	ENDS
;	COMDAT ??_C@_0BD@OLBABOEK@vector?$DMT?$DO?5too?5long?$AA@
CONST	SEGMENT
??_C@_0BD@OLBABOEK@vector?$DMT?$DO?5too?5long?$AA@ DB 'vector<T> too long'
	DB	00H						; `string'
CONST	ENDS
;	COMDAT __TI3?AVlength_error@std@@
xdata$x	SEGMENT
__TI3?AVlength_error@std@@ DD 00H
	DD	FLAT:??1length_error@std@@UAE@XZ
	DD	00H
	DD	FLAT:__CTA3?AVlength_error@std@@
xdata$x	ENDS
;	COMDAT __CTA3?AVlength_error@std@@
xdata$x	SEGMENT
__CTA3?AVlength_error@std@@ DD 03H
	DD	FLAT:__CT??_R0?AVlength_error@std@@@8??0length_error@std@@QAE@ABV01@@Z40
	DD	FLAT:__CT??_R0?AVlogic_error@std@@@8??0logic_error@std@@QAE@ABV01@@Z40
	DD	FLAT:__CT??_R0?AVexception@@@8??0exception@@QAE@ABV0@@Z12
xdata$x	ENDS
;	COMDAT __CT??_R0?AVlength_error@std@@@8??0length_error@std@@QAE@ABV01@@Z40
xdata$x	SEGMENT
__CT??_R0?AVlength_error@std@@@8??0length_error@std@@QAE@ABV01@@Z40 DD 00H
	DD	FLAT:??_R0?AVlength_error@std@@@8
	DD	00H
	DD	0ffffffffH
	ORG $+4
	DD	028H
	DD	FLAT:??0length_error@std@@QAE@ABV01@@Z
xdata$x	ENDS
;	COMDAT ??_R0?AVlength_error@std@@@8
_DATA	SEGMENT
??_R0?AVlength_error@std@@@8 DD FLAT:??_7type_info@@6B@	; std::length_error `RTTI Type Descriptor'
	DD	00H
	DB	'.?AVlength_error@std@@', 00H
_DATA	ENDS
;	COMDAT __CT??_R0?AVlogic_error@std@@@8??0logic_error@std@@QAE@ABV01@@Z40
xdata$x	SEGMENT
__CT??_R0?AVlogic_error@std@@@8??0logic_error@std@@QAE@ABV01@@Z40 DD 00H
	DD	FLAT:??_R0?AVlogic_error@std@@@8
	DD	00H
	DD	0ffffffffH
	ORG $+4
	DD	028H
	DD	FLAT:??0logic_error@std@@QAE@ABV01@@Z
xdata$x	ENDS
;	COMDAT ??_R0?AVlogic_error@std@@@8
_DATA	SEGMENT
??_R0?AVlogic_error@std@@@8 DD FLAT:??_7type_info@@6B@	; std::logic_error `RTTI Type Descriptor'
	DD	00H
	DB	'.?AVlogic_error@std@@', 00H
_DATA	ENDS
;	COMDAT __CT??_R0?AVexception@@@8??0exception@@QAE@ABV0@@Z12
xdata$x	SEGMENT
__CT??_R0?AVexception@@@8??0exception@@QAE@ABV0@@Z12 DD 00H
	DD	FLAT:??_R0?AVexception@@@8
	DD	00H
	DD	0ffffffffH
	ORG $+4
	DD	0cH
	DD	FLAT:??0exception@@QAE@ABV0@@Z
xdata$x	ENDS
;	COMDAT ??_R0?AVexception@@@8
_DATA	SEGMENT
??_R0?AVexception@@@8 DD FLAT:??_7type_info@@6B@	; exception `RTTI Type Descriptor'
	DD	00H
	DB	'.?AVexception@@', 00H
; Function compile flags: /Ogty
; File c:\program files\microsoft visual studio .net 2003\vc7\include\vector
_DATA	ENDS
;	COMDAT ?_Xlen@?$vector@U?$pair@PAVCDbController@@K@std@@V?$allocator@U?$pair@PAVCDbController@@K@std@@@2@@std@@IBEXXZ
_TEXT	SEGMENT
$T202742 = -80						; size = 28
$T202741 = -52						; size = 40
__$EHRec$ = -12						; size = 12
?_Xlen@?$vector@U?$pair@PAVCDbController@@K@std@@V?$allocator@U?$pair@PAVCDbController@@K@std@@@2@@std@@IBEXXZ PROC NEAR ; std::vector<std::pair<CDbController *,unsigned long>,std::allocator<std::pair<CDbController *,unsigned long> > >::_Xlen, COMDAT
; _this$ = ecx

; 883  : 		{	// report a length_error

  00000	6a ff		 push	 -1
  00002	68 00 00 00 00	 push	 __ehhandler$?_Xlen@?$vector@U?$pair@PAVCDbController@@K@std@@V?$allocator@U?$pair@PAVCDbController@@K@std@@@2@@std@@IBEXXZ
  00007	64 a1 00 00 00
	00		 mov	 eax, DWORD PTR fs:__except_list
  0000d	50		 push	 eax
  0000e	64 89 25 00 00
	00 00		 mov	 DWORD PTR fs:__except_list, esp
  00015	83 ec 44	 sub	 esp, 68			; 00000044H

; 884  : 		_THROW(length_error, "vector<T> too long");

  00018	6a 12		 push	 18			; 00000012H
  0001a	68 00 00 00 00	 push	 OFFSET FLAT:??_C@_0BD@OLBABOEK@vector?$DMT?$DO?5too?5long?$AA@
  0001f	8d 4c 24 08	 lea	 ecx, DWORD PTR $T202742[esp+88]
  00023	c7 44 24 20 0f
	00 00 00	 mov	 DWORD PTR $T202742[esp+112], 15 ; 0000000fH
  0002b	c7 44 24 1c 00
	00 00 00	 mov	 DWORD PTR $T202742[esp+108], 0
  00033	c6 44 24 0c 00	 mov	 BYTE PTR $T202742[esp+92], 0
  00038	e8 00 00 00 00	 call	 ?assign@?$basic_string@DU?$char_traits@D@std@@V?$allocator@D@2@@std@@QAEAAV12@PBDI@Z ; std::basic_string<char,std::char_traits<char>,std::allocator<char> >::assign
  0003d	8d 04 24	 lea	 eax, DWORD PTR $T202742[esp+80]
  00040	50		 push	 eax
  00041	8d 4c 24 20	 lea	 ecx, DWORD PTR $T202741[esp+84]
  00045	c7 44 24 50 00
	00 00 00	 mov	 DWORD PTR __$EHRec$[esp+92], 0
  0004d	e8 00 00 00 00	 call	 ??0logic_error@std@@QAE@ABV?$basic_string@DU?$char_traits@D@std@@V?$allocator@D@2@@1@@Z ; std::logic_error::logic_error
  00052	68 00 00 00 00	 push	 OFFSET FLAT:__TI3?AVlength_error@std@@
  00057	8d 4c 24 20	 lea	 ecx, DWORD PTR $T202741[esp+84]
  0005b	51		 push	 ecx
  0005c	c7 44 24 24 00
	00 00 00	 mov	 DWORD PTR $T202741[esp+88], OFFSET FLAT:??_7length_error@std@@6B@
  00064	e8 00 00 00 00	 call	 __CxxThrowException@8
$L202857:
  00069	cc		 int	 3
_TEXT	ENDS
;	COMDAT text$x
text$x	SEGMENT
$L202743:
  00000	8d 4d b0	 lea	 ecx, DWORD PTR $T202742[ebp]
  00003	e9 00 00 00 00	 jmp	 ??1?$basic_string@DU?$char_traits@D@std@@V?$allocator@D@2@@std@@QAE@XZ ; std::basic_string<char,std::char_traits<char>,std::allocator<char> >::~basic_string<char,std::char_traits<char>,std::allocator<char> >
__ehhandler$?_Xlen@?$vector@U?$pair@PAVCDbController@@K@std@@V?$allocator@U?$pair@PAVCDbController@@K@std@@@2@@std@@IBEXXZ:
  00008	b8 00 00 00 00	 mov	 eax, OFFSET FLAT:$T202855
  0000d	e9 00 00 00 00	 jmp	 ___CxxFrameHandler
text$x	ENDS
?_Xlen@?$vector@U?$pair@PAVCDbController@@K@std@@V?$allocator@U?$pair@PAVCDbController@@K@std@@@2@@std@@IBEXXZ ENDP ; std::vector<std::pair<CDbController *,unsigned long>,std::allocator<std::pair<CDbController *,unsigned long> > >::_Xlen
;	COMDAT xdata$x
xdata$x	SEGMENT
$T202963 DD	0ffffffffH
	DD	FLAT:$L202863
$T202961 DD	019930520H
	DD	01H
	DD	FLAT:$T202963
	DD	2 DUP(00H)
	DD	2 DUP(00H)
; Function compile flags: /Ogty
xdata$x	ENDS
;	COMDAT ??0logic_error@std@@QAE@ABV01@@Z
_TEXT	SEGMENT
_this$ = -16						; size = 4
__$EHRec$ = -12						; size = 12
___that$ = 8						; size = 4
??0logic_error@std@@QAE@ABV01@@Z PROC NEAR		; std::logic_error::logic_error, COMDAT
; _this$ = ecx
  00000	6a ff		 push	 -1
  00002	68 00 00 00 00	 push	 __ehhandler$??0logic_error@std@@QAE@ABV01@@Z
  00007	64 a1 00 00 00
	00		 mov	 eax, DWORD PTR fs:__except_list
  0000d	50		 push	 eax
  0000e	64 89 25 00 00
	00 00		 mov	 DWORD PTR fs:__except_list, esp
  00015	51		 push	 ecx
  00016	56		 push	 esi
  00017	57		 push	 edi
  00018	8b 7c 24 1c	 mov	 edi, DWORD PTR ___that$[esp+20]
  0001c	8b f1		 mov	 esi, ecx
  0001e	57		 push	 edi
  0001f	89 74 24 0c	 mov	 DWORD PTR _this$[esp+28], esi
  00023	e8 00 00 00 00	 call	 ??0exception@@QAE@ABV0@@Z ; exception::exception
  00028	33 c0		 xor	 eax, eax
  0002a	6a ff		 push	 -1
  0002c	8d 4e 0c	 lea	 ecx, DWORD PTR [esi+12]
  0002f	c7 06 00 00 00
	00		 mov	 DWORD PTR [esi], OFFSET FLAT:??_7logic_error@std@@6B@
  00035	50		 push	 eax
  00036	83 c7 0c	 add	 edi, 12			; 0000000cH
  00039	c7 41 18 0f 00
	00 00		 mov	 DWORD PTR [ecx+24], 15	; 0000000fH
  00040	89 41 14	 mov	 DWORD PTR [ecx+20], eax
  00043	57		 push	 edi
  00044	89 44 24 20	 mov	 DWORD PTR __$EHRec$[esp+44], eax
  00048	88 41 04	 mov	 BYTE PTR [ecx+4], al
  0004b	e8 00 00 00 00	 call	 ?assign@?$basic_string@DU?$char_traits@D@std@@V?$allocator@D@2@@std@@QAEAAV12@ABV12@II@Z ; std::basic_string<char,std::char_traits<char>,std::allocator<char> >::assign
  00050	8b 4c 24 0c	 mov	 ecx, DWORD PTR __$EHRec$[esp+24]
  00054	5f		 pop	 edi
  00055	8b c6		 mov	 eax, esi
  00057	5e		 pop	 esi
  00058	64 89 0d 00 00
	00 00		 mov	 DWORD PTR fs:__except_list, ecx
  0005f	83 c4 10	 add	 esp, 16			; 00000010H
  00062	c2 04 00	 ret	 4
_TEXT	ENDS
;	COMDAT text$x
text$x	SEGMENT
$L202863:
  00000	8b 4d f0	 mov	 ecx, DWORD PTR _this$[ebp]
  00003	e9 00 00 00 00	 jmp	 ??1exception@@UAE@XZ	; exception::~exception
__ehhandler$??0logic_error@std@@QAE@ABV01@@Z:
  00008	b8 00 00 00 00	 mov	 eax, OFFSET FLAT:$T202961
  0000d	e9 00 00 00 00	 jmp	 ___CxxFrameHandler
text$x	ENDS
??0logic_error@std@@QAE@ABV01@@Z ENDP			; std::logic_error::logic_error
; Function compile flags: /Ogty
;	COMDAT ??0length_error@std@@QAE@ABV01@@Z
_TEXT	SEGMENT
___that$ = 8						; size = 4
??0length_error@std@@QAE@ABV01@@Z PROC NEAR		; std::length_error::length_error, COMDAT
; _this$ = ecx
  00000	8b 44 24 04	 mov	 eax, DWORD PTR ___that$[esp-4]
  00004	56		 push	 esi
  00005	50		 push	 eax
  00006	8b f1		 mov	 esi, ecx
  00008	e8 00 00 00 00	 call	 ??0logic_error@std@@QAE@ABV01@@Z
  0000d	c7 06 00 00 00
	00		 mov	 DWORD PTR [esi], OFFSET FLAT:??_7length_error@std@@6B@
  00013	8b c6		 mov	 eax, esi
  00015	5e		 pop	 esi
  00016	c2 04 00	 ret	 4
??0length_error@std@@QAE@ABV01@@Z ENDP			; std::length_error::length_error
; Function compile flags: /Ogty
_TEXT	ENDS
;	COMDAT ??_GCDbControllerTimer@@UAEPAXI@Z
_TEXT	SEGMENT
___flags$ = 8						; size = 4
??_GCDbControllerTimer@@UAEPAXI@Z PROC NEAR		; CDbControllerTimer::`scalar deleting destructor', COMDAT
; _this$ = ecx
  00000	56		 push	 esi
  00001	8b f1		 mov	 esi, ecx
  00003	e8 00 00 00 00	 call	 ??1CDbControllerTimer@@UAE@XZ ; CDbControllerTimer::~CDbControllerTimer
  00008	f6 44 24 08 01	 test	 BYTE PTR ___flags$[esp], 1
  0000d	74 09		 je	 SHORT $L202971
  0000f	56		 push	 esi
  00010	e8 00 00 00 00	 call	 ??3@YAXPAX@Z		; operator delete
  00015	83 c4 04	 add	 esp, 4
$L202971:
  00018	8b c6		 mov	 eax, esi
  0001a	5e		 pop	 esi
  0001b	c2 04 00	 ret	 4
??_GCDbControllerTimer@@UAEPAXI@Z ENDP			; CDbControllerTimer::`scalar deleting destructor'
_TEXT	ENDS
PUBLIC	?_Buy@?$vector@U?$pair@PAVCDbController@@K@std@@V?$allocator@U?$pair@PAVCDbController@@K@std@@@2@@std@@IAE_NI@Z ; std::vector<std::pair<CDbController *,unsigned long>,std::allocator<std::pair<CDbController *,unsigned long> > >::_Buy
; Function compile flags: /Ogty
;	COMDAT ?_Buy@?$vector@U?$pair@PAVCDbController@@K@std@@V?$allocator@U?$pair@PAVCDbController@@K@std@@@2@@std@@IAE_NI@Z
_TEXT	SEGMENT
__Capacity$ = 8						; size = 4
?_Buy@?$vector@U?$pair@PAVCDbController@@K@std@@V?$allocator@U?$pair@PAVCDbController@@K@std@@@2@@std@@IAE_NI@Z PROC NEAR ; std::vector<std::pair<CDbController *,unsigned long>,std::allocator<std::pair<CDbController *,unsigned long> > >::_Buy, COMDAT
; _this$ = ecx

; 771  : 		_Myfirst = 0, _Mylast = 0, _Myend = 0;
; 772  : 		if (_Capacity == 0)

  00000	8b 44 24 04	 mov	 eax, DWORD PTR __Capacity$[esp-4]
  00004	56		 push	 esi
  00005	8b f1		 mov	 esi, ecx
  00007	33 c9		 xor	 ecx, ecx
  00009	3b c1		 cmp	 eax, ecx
  0000b	89 4e 04	 mov	 DWORD PTR [esi+4], ecx
  0000e	89 4e 08	 mov	 DWORD PTR [esi+8], ecx
  00011	89 4e 0c	 mov	 DWORD PTR [esi+12], ecx
  00014	75 06		 jne	 SHORT $L199716

; 773  : 			return (false);

  00016	32 c0		 xor	 al, al
  00018	5e		 pop	 esi

; 783  : 		}

  00019	c2 04 00	 ret	 4
$L199716:

; 774  : 		else if (max_size() < _Capacity)

  0001c	3d ff ff ff 1f	 cmp	 eax, 536870911		; 1fffffffH
  00021	76 07		 jbe	 SHORT $L199718

; 775  : 			_Xlen();	// result too long

  00023	8b ce		 mov	 ecx, esi
  00025	e8 00 00 00 00	 call	 ?_Xlen@?$vector@U?$pair@PAVCDbController@@K@std@@V?$allocator@U?$pair@PAVCDbController@@K@std@@@2@@std@@IBEXXZ ; std::vector<std::pair<CDbController *,unsigned long>,std::allocator<std::pair<CDbController *,unsigned long> > >::_Xlen
$L199718:
  0002a	57		 push	 edi

; 776  : 		else
; 777  : 			{	// nonempty array, allocate storage
; 778  : 			_Myfirst = this->_Alval.allocate(_Capacity);

  0002b	8d 3c c5 00 00
	00 00		 lea	 edi, DWORD PTR [eax*8]
  00032	57		 push	 edi
  00033	e8 00 00 00 00	 call	 ??2@YAPAXI@Z		; operator new

; 779  : 			_Mylast = _Myfirst;
; 780  : 			_Myend = _Myfirst + _Capacity;

  00038	03 f8		 add	 edi, eax
  0003a	83 c4 04	 add	 esp, 4
  0003d	89 7e 0c	 mov	 DWORD PTR [esi+12], edi
  00040	89 46 04	 mov	 DWORD PTR [esi+4], eax
  00043	89 46 08	 mov	 DWORD PTR [esi+8], eax
  00046	5f		 pop	 edi

; 781  : 			}
; 782  : 		return (true);

  00047	b0 01		 mov	 al, 1
  00049	5e		 pop	 esi

; 783  : 		}

  0004a	c2 04 00	 ret	 4
$L202998:
?_Buy@?$vector@U?$pair@PAVCDbController@@K@std@@V?$allocator@U?$pair@PAVCDbController@@K@std@@@2@@std@@IAE_NI@Z ENDP ; std::vector<std::pair<CDbController *,unsigned long>,std::allocator<std::pair<CDbController *,unsigned long> > >::_Buy
_TEXT	ENDS
PUBLIC	?_Insert_n@?$vector@U?$pair@PAVCDbController@@K@std@@V?$allocator@U?$pair@PAVCDbController@@K@std@@@2@@std@@IAEXViterator@12@IABU?$pair@PAVCDbController@@K@2@@Z ; std::vector<std::pair<CDbController *,unsigned long>,std::allocator<std::pair<CDbController *,unsigned long> > >::_Insert_n
;	COMDAT xdata$x
; File c:\program files\microsoft visual studio .net 2003\vc7\include\xutility
xdata$x	SEGMENT
$T203219 DD	0ffffffffH
	DD	00H
	DD	0ffffffffH
	DD	00H
	DD	0ffffffffH
	DD	00H
	DD	0ffffffffH
	DD	00H
$T203221 DD	00H
	DD	00H
	DD	00H
	DD	FLAT:$L203004
$T203222 DD	00H
	DD	00H
	DD	00H
	DD	FLAT:$L203006
$T203220 DD	00H
	DD	00H
	DD	01H
	DD	01H
	DD	FLAT:$T203221
	DD	02H
	DD	02H
	DD	03H
	DD	01H
	DD	FLAT:$T203222
$T203216 DD	019930520H
	DD	04H
	DD	FLAT:$T203219
	DD	02H
	DD	FLAT:$T203220
	DD	2 DUP(00H)
; Function compile flags: /Ogty
; File c:\program files\microsoft visual studio .net 2003\vc7\include\vector
xdata$x	ENDS
;	COMDAT ?_Insert_n@?$vector@U?$pair@PAVCDbController@@K@std@@V?$allocator@U?$pair@PAVCDbController@@K@std@@@2@@std@@IAEXViterator@12@IABU?$pair@PAVCDbController@@K@2@@Z
_TEXT	SEGMENT
__Tmp$ = -28						; size = 8
__Newvec$199823 = -20					; size = 4
__$EHRec$ = -16						; size = 16
tv446 = 8						; size = 4
__Cat$203187 = 8					; size = 1
__Cat$203126 = 8					; size = 1
__Cat$203148 = 8					; size = 1
__Cat$203102 = 8					; size = 1
__Where$ = 8						; size = 4
tv445 = 12						; size = 4
__Count$ = 12						; size = 4
tv430 = 16						; size = 4
tv220 = 16						; size = 4
__Val$ = 16						; size = 4
?_Insert_n@?$vector@U?$pair@PAVCDbController@@K@std@@V?$allocator@U?$pair@PAVCDbController@@K@std@@@2@@std@@IAEXViterator@12@IABU?$pair@PAVCDbController@@K@2@@Z PROC NEAR ; std::vector<std::pair<CDbController *,unsigned long>,std::allocator<std::pair<CDbController *,unsigned long> > >::_Insert_n, COMDAT
; _this$ = ecx

; 809  : 		{	// insert _Count * _Val at _Where

  00000	55		 push	 ebp
  00001	8b ec		 mov	 ebp, esp
  00003	6a ff		 push	 -1
  00005	68 00 00 00 00	 push	 __ehhandler$?_Insert_n@?$vector@U?$pair@PAVCDbController@@K@std@@V?$allocator@U?$pair@PAVCDbController@@K@std@@@2@@std@@IAEXViterator@12@IABU?$pair@PAVCDbController@@K@2@@Z
  0000a	64 a1 00 00 00
	00		 mov	 eax, DWORD PTR fs:__except_list
  00010	50		 push	 eax
  00011	64 89 25 00 00
	00 00		 mov	 DWORD PTR fs:__except_list, esp
  00018	83 ec 10	 sub	 esp, 16			; 00000010H

; 810  : 		_Ty _Tmp = _Val;	// in case _Val is in sequence

  0001b	8b 45 10	 mov	 eax, DWORD PTR __Val$[ebp]
  0001e	8b 50 04	 mov	 edx, DWORD PTR [eax+4]
  00021	53		 push	 ebx
  00022	56		 push	 esi
  00023	8b f1		 mov	 esi, ecx
  00025	8b 08		 mov	 ecx, DWORD PTR [eax]
  00027	89 4d e4	 mov	 DWORD PTR __Tmp$[ebp], ecx

; 811  : 		size_type _Capacity = capacity();

  0002a	8b 4e 04	 mov	 ecx, DWORD PTR [esi+4]
  0002d	85 c9		 test	 ecx, ecx
  0002f	57		 push	 edi
  00030	89 65 f0	 mov	 DWORD PTR __$EHRec$[ebp], esp
  00033	89 55 e8	 mov	 DWORD PTR __Tmp$[ebp+4], edx
  00036	75 04		 jne	 SHORT $L203012
  00038	33 c0		 xor	 eax, eax
  0003a	eb 08		 jmp	 SHORT $L203013
$L203012:
  0003c	8b 46 0c	 mov	 eax, DWORD PTR [esi+12]
  0003f	2b c1		 sub	 eax, ecx
  00041	c1 f8 03	 sar	 eax, 3
$L203013:

; 812  : 
; 813  : 		if (_Count == 0)

  00044	8b 5d 0c	 mov	 ebx, DWORD PTR __Count$[ebp]
  00047	85 db		 test	 ebx, ebx
  00049	0f 84 e1 01 00
	00		 je	 $L199843

; 814  : 			;
; 815  : 		else if (max_size() - size() < _Count)

  0004f	85 c9		 test	 ecx, ecx
  00051	75 04		 jne	 SHORT $L203035
  00053	33 d2		 xor	 edx, edx
  00055	eb 08		 jmp	 SHORT $L203036
$L203035:
  00057	8b 56 08	 mov	 edx, DWORD PTR [esi+8]
  0005a	2b d1		 sub	 edx, ecx
  0005c	c1 fa 03	 sar	 edx, 3
$L203036:
  0005f	bf ff ff ff 1f	 mov	 edi, 536870911		; 1fffffffH
  00064	2b fa		 sub	 edi, edx
  00066	3b fb		 cmp	 edi, ebx
  00068	73 07		 jae	 SHORT $L199819

; 816  : 			_Xlen();	// result too long

  0006a	8b ce		 mov	 ecx, esi
  0006c	e8 00 00 00 00	 call	 ?_Xlen@?$vector@U?$pair@PAVCDbController@@K@std@@V?$allocator@U?$pair@PAVCDbController@@K@std@@@2@@std@@IBEXXZ ; std::vector<std::pair<CDbController *,unsigned long>,std::allocator<std::pair<CDbController *,unsigned long> > >::_Xlen
$L199819:

; 817  : 		else if (_Capacity < size() + _Count)

  00071	85 c9		 test	 ecx, ecx
  00073	75 04		 jne	 SHORT $L203042
  00075	33 d2		 xor	 edx, edx
  00077	eb 08		 jmp	 SHORT $L203043
$L203042:
  00079	8b 56 08	 mov	 edx, DWORD PTR [esi+8]
  0007c	2b d1		 sub	 edx, ecx
  0007e	c1 fa 03	 sar	 edx, 3
$L203043:
  00081	03 d3		 add	 edx, ebx
  00083	3b c2		 cmp	 eax, edx
  00085	0f 83 f8 00 00
	00		 jae	 $L199821

; 818  : 			{	// not enough room, reallocate
; 819  : 			_Capacity = max_size() - _Capacity / 2 < _Capacity
; 820  : 				? 0 : _Capacity + _Capacity / 2;	// try to grow by 50%

  0008b	8b d0		 mov	 edx, eax
  0008d	d1 ea		 shr	 edx, 1
  0008f	bf ff ff ff 1f	 mov	 edi, 536870911		; 1fffffffH
  00094	2b fa		 sub	 edi, edx
  00096	3b f8		 cmp	 edi, eax
  00098	73 04		 jae	 SHORT $L203001
  0009a	33 c0		 xor	 eax, eax
  0009c	eb 02		 jmp	 SHORT $L203002
$L203001:
  0009e	03 c2		 add	 eax, edx
$L203002:

; 821  : 			if (_Capacity < size() + _Count)

  000a0	85 c9		 test	 ecx, ecx
  000a2	75 04		 jne	 SHORT $L203065
  000a4	33 d2		 xor	 edx, edx
  000a6	eb 08		 jmp	 SHORT $L203066
$L203065:
  000a8	8b 56 08	 mov	 edx, DWORD PTR [esi+8]
  000ab	2b d1		 sub	 edx, ecx
  000ad	c1 fa 03	 sar	 edx, 3
$L203066:
  000b0	03 d3		 add	 edx, ebx
  000b2	3b c2		 cmp	 eax, edx
  000b4	73 12		 jae	 SHORT $L199822

; 822  : 				_Capacity = size() + _Count;

  000b6	85 c9		 test	 ecx, ecx
  000b8	75 04		 jne	 SHORT $L203072
  000ba	33 c0		 xor	 eax, eax
  000bc	eb 08		 jmp	 SHORT $L203073
$L203072:
  000be	8b 46 08	 mov	 eax, DWORD PTR [esi+8]
  000c1	2b c1		 sub	 eax, ecx
  000c3	c1 f8 03	 sar	 eax, 3
$L203073:
  000c6	03 c3		 add	 eax, ebx
$L199822:

; 823  : 			pointer _Newvec = this->_Alval.allocate(_Capacity);

  000c8	c1 e0 03	 shl	 eax, 3
  000cb	50		 push	 eax
  000cc	89 45 0c	 mov	 DWORD PTR tv445[ebp], eax
  000cf	e8 00 00 00 00	 call	 ??2@YAPAXI@Z		; operator new

; 824  : 			pointer _Ptr = _Newvec;
; 825  : 
; 826  : 			_TRY_BEGIN
; 827  : 			_Ptr = _Ucopy(_Myfirst, _ITER_BASE(_Where),
; 828  : 				_Newvec);	// copy prefix

  000d4	8b 4d 08	 mov	 ecx, DWORD PTR __Cat$203102[ebp]
  000d7	8b 55 08	 mov	 edx, DWORD PTR __Where$[ebp]
  000da	51		 push	 ecx
  000db	8b f8		 mov	 edi, eax
  000dd	8b 46 04	 mov	 eax, DWORD PTR [esi+4]
  000e0	56		 push	 esi
  000e1	57		 push	 edi
  000e2	52		 push	 edx
  000e3	50		 push	 eax
  000e4	89 7d ec	 mov	 DWORD PTR __Newvec$199823[ebp], edi
  000e7	c7 45 fc 00 00
	00 00		 mov	 DWORD PTR __$EHRec$[ebp+12], 0
  000ee	e8 00 00 00 00	 call	 ??$_Uninit_copy@PAU?$pair@PAVCDbController@@K@std@@PAU12@V?$allocator@U?$pair@PAVCDbController@@K@std@@@2@@std@@YAPAU?$pair@PAVCDbController@@K@0@PAU10@00AAV?$allocator@U?$pair@PAVCDbController@@K@std@@@0@U_Nonscalar_ptr_iterator_tag@0@@Z ; std::_Uninit_copy<std::pair<CDbController *,unsigned long> *,std::pair<CDbController *,unsigned long> *,std::allocator<std::pair<CDbController *,unsigned long> > >

; 829  : 			_Ptr = _Ufill(_Ptr, _Count, _Tmp);	// add new stuff

  000f3	8b 4d 08	 mov	 ecx, DWORD PTR __Cat$203126[ebp]
  000f6	83 c4 18	 add	 esp, 24			; 00000018H
  000f9	51		 push	 ecx
  000fa	56		 push	 esi
  000fb	8d 55 e4	 lea	 edx, DWORD PTR __Tmp$[ebp]
  000fe	52		 push	 edx
  000ff	53		 push	 ebx
  00100	50		 push	 eax
  00101	89 45 10	 mov	 DWORD PTR tv220[ebp], eax
  00104	e8 00 00 00 00	 call	 ??$_Uninit_fill_n@PAU?$pair@PAVCDbController@@K@std@@IU12@V?$allocator@U?$pair@PAVCDbController@@K@std@@@2@@std@@YAXPAU?$pair@PAVCDbController@@K@0@IABU10@AAV?$allocator@U?$pair@PAVCDbController@@K@std@@@0@U_Nonscalar_ptr_iterator_tag@0@@Z ; std::_Uninit_fill_n<std::pair<CDbController *,unsigned long> *,unsigned int,std::pair<CDbController *,unsigned long>,std::allocator<std::pair<CDbController *,unsigned long> > >

; 830  : 			_Ucopy(_ITER_BASE(_Where), _Mylast, _Ptr);	// copy suffix

  00109	8b 55 08	 mov	 edx, DWORD PTR __Cat$203148[ebp]
  0010c	8b 45 10	 mov	 eax, DWORD PTR tv220[ebp]
  0010f	8b 4e 08	 mov	 ecx, DWORD PTR [esi+8]
  00112	83 c4 14	 add	 esp, 20			; 00000014H
  00115	52		 push	 edx
  00116	8d 04 d8	 lea	 eax, DWORD PTR [eax+ebx*8]
  00119	56		 push	 esi
  0011a	50		 push	 eax
  0011b	8b 45 08	 mov	 eax, DWORD PTR __Where$[ebp]
  0011e	51		 push	 ecx
  0011f	50		 push	 eax
  00120	e8 00 00 00 00	 call	 ??$_Uninit_copy@PAU?$pair@PAVCDbController@@K@std@@PAU12@V?$allocator@U?$pair@PAVCDbController@@K@std@@@2@@std@@YAPAU?$pair@PAVCDbController@@K@0@PAU10@00AAV?$allocator@U?$pair@PAVCDbController@@K@std@@@0@U_Nonscalar_ptr_iterator_tag@0@@Z ; std::_Uninit_copy<std::pair<CDbController *,unsigned long> *,std::pair<CDbController *,unsigned long> *,std::allocator<std::pair<CDbController *,unsigned long> > >

; 835  : 			_CATCH_END
; 836  : 
; 837  : 			_Count += size();

  00125	8b 4e 04	 mov	 ecx, DWORD PTR [esi+4]
  00128	83 c4 14	 add	 esp, 20			; 00000014H
  0012b	85 c9		 test	 ecx, ecx
  0012d	75 04		 jne	 SHORT $L203160
  0012f	33 c0		 xor	 eax, eax
  00131	eb 08		 jmp	 SHORT $L203161
$L203160:
  00133	8b 46 08	 mov	 eax, DWORD PTR [esi+8]
  00136	2b c1		 sub	 eax, ecx
  00138	c1 f8 03	 sar	 eax, 3
$L203161:
  0013b	03 d8		 add	 ebx, eax

; 838  : 			if (_Myfirst != 0)

  0013d	85 c9		 test	 ecx, ecx
  0013f	74 09		 je	 SHORT $L203163

; 839  : 				{	// destroy and deallocate old array
; 840  : 				_Destroy(_Myfirst, _Mylast);
; 841  : 				this->_Alval.deallocate(_Myfirst, _Myend - _Myfirst);

  00141	51		 push	 ecx
  00142	e8 00 00 00 00	 call	 ??3@YAXPAX@Z		; operator delete
  00147	83 c4 04	 add	 esp, 4
$L203163:

; 842  : 				}
; 843  : 			_Myend = _Newvec + _Capacity;

  0014a	8b 4d 0c	 mov	 ecx, DWORD PTR tv445[ebp]
  0014d	03 cf		 add	 ecx, edi

; 844  : 			_Mylast = _Newvec + _Count;

  0014f	8d 14 df	 lea	 edx, DWORD PTR [edi+ebx*8]
  00152	89 4e 0c	 mov	 DWORD PTR [esi+12], ecx
  00155	89 56 08	 mov	 DWORD PTR [esi+8], edx

; 845  : 			_Myfirst = _Newvec;

  00158	89 7e 04	 mov	 DWORD PTR [esi+4], edi

; 873  : 			}
; 874  : 		}

  0015b	8b 4d f4	 mov	 ecx, DWORD PTR __$EHRec$[ebp+4]
  0015e	64 89 0d 00 00
	00 00		 mov	 DWORD PTR fs:__except_list, ecx
  00165	5f		 pop	 edi
  00166	5e		 pop	 esi
  00167	5b		 pop	 ebx
  00168	8b e5		 mov	 esp, ebp
  0016a	5d		 pop	 ebp
  0016b	c2 0c 00	 ret	 12			; 0000000cH
$L203004:

; 831  : 			_CATCH_ALL
; 832  : 			_Destroy(_Newvec, _Ptr);
; 833  : 			this->_Alval.deallocate(_Newvec, _Capacity);

  0016e	8b 45 ec	 mov	 eax, DWORD PTR __Newvec$199823[ebp]
  00171	50		 push	 eax
  00172	e8 00 00 00 00	 call	 ??3@YAXPAX@Z		; operator delete
  00177	83 c4 04	 add	 esp, 4
$L203006:

; 834  : 			_RERAISE;

  0017a	6a 00		 push	 0
  0017c	6a 00		 push	 0
  0017e	e8 00 00 00 00	 call	 __CxxThrowException@8
$L199821:

; 846  : 			}
; 847  : 		else if ((size_type)(_Mylast - _ITER_BASE(_Where)) < _Count)

  00183	8b 46 08	 mov	 eax, DWORD PTR [esi+8]
  00186	8b 7d 08	 mov	 edi, DWORD PTR __Where$[ebp]
  00189	8b c8		 mov	 ecx, eax
  0018b	2b cf		 sub	 ecx, edi
  0018d	c1 f9 03	 sar	 ecx, 3
  00190	3b cb		 cmp	 ecx, ebx

; 848  : 			{	// new stuff spills off end
; 849  : 			_Ucopy(_ITER_BASE(_Where), _Mylast,
; 850  : 				_ITER_BASE(_Where) + _Count);	// copy suffix

  00192	8d 0c dd 00 00
	00 00		 lea	 ecx, DWORD PTR [ebx*8]
  00199	89 4d 08	 mov	 DWORD PTR tv446[ebp], ecx
  0019c	8b 55 08	 mov	 edx, DWORD PTR __Cat$203187[ebp]
  0019f	52		 push	 edx
  001a0	89 45 10	 mov	 DWORD PTR tv430[ebp], eax
  001a3	56		 push	 esi
  001a4	73 5d		 jae	 SHORT $L199834
  001a6	03 cf		 add	 ecx, edi
  001a8	51		 push	 ecx
  001a9	50		 push	 eax
  001aa	57		 push	 edi
  001ab	e8 00 00 00 00	 call	 ??$_Uninit_copy@PAU?$pair@PAVCDbController@@K@std@@PAU12@V?$allocator@U?$pair@PAVCDbController@@K@std@@@2@@std@@YAPAU?$pair@PAVCDbController@@K@0@PAU10@00AAV?$allocator@U?$pair@PAVCDbController@@K@std@@@0@U_Nonscalar_ptr_iterator_tag@0@@Z ; std::_Uninit_copy<std::pair<CDbController *,unsigned long> *,std::pair<CDbController *,unsigned long> *,std::allocator<std::pair<CDbController *,unsigned long> > >

; 851  : 
; 852  : 			_TRY_BEGIN
; 853  : 			_Ufill(_Mylast, _Count - (_Mylast - _ITER_BASE(_Where)),
; 854  : 				_Tmp);	// insert new stuff off end

  001b0	8b 46 08	 mov	 eax, DWORD PTR [esi+8]
  001b3	8b d0		 mov	 edx, eax
  001b5	83 c4 14	 add	 esp, 20			; 00000014H
  001b8	2b d7		 sub	 edx, edi
  001ba	8d 4d e4	 lea	 ecx, DWORD PTR __Tmp$[ebp]
  001bd	51		 push	 ecx
  001be	c1 fa 03	 sar	 edx, 3
  001c1	2b da		 sub	 ebx, edx
  001c3	53		 push	 ebx
  001c4	50		 push	 eax
  001c5	8b ce		 mov	 ecx, esi
  001c7	c7 45 fc 02 00
	00 00		 mov	 DWORD PTR __$EHRec$[ebp+12], 2
  001ce	e8 00 00 00 00	 call	 ?_Ufill@?$vector@U?$pair@PAVCDbController@@K@std@@V?$allocator@U?$pair@PAVCDbController@@K@std@@@2@@std@@IAEPAU?$pair@PAVCDbController@@K@2@PAU32@IABU32@@Z ; std::vector<std::pair<CDbController *,unsigned long>,std::allocator<std::pair<CDbController *,unsigned long> > >::_Ufill

; 855  : 			_CATCH_ALL
; 856  : 			_Destroy(_ITER_BASE(_Where) + _Count, _Mylast + _Count);
; 857  : 			_RERAISE;
; 858  : 			_CATCH_END
; 859  : 
; 860  : 			_Mylast += _Count;

  001d3	8b 5e 08	 mov	 ebx, DWORD PTR [esi+8]
