; Listing generated by Microsoft (R) Optimizing Compiler Version 13.10.6030 

	TITLE	\Documents and Settings\test\Mes documents\Source\Virtuos_v17\Build\Program\_Database\DbManagerLog.cpp
	.386P
include listing.inc
if @Version gt 510
.model FLAT
else
_TEXT	SEGMENT PARA USE32 PUBLIC 'CODE'
_TEXT	ENDS
_DATA	SEGMENT DWORD USE32 PUBLIC 'DATA'
_DATA	ENDS
CONST	SEGMENT DWORD USE32 PUBLIC 'CONST'
CONST	ENDS
_BSS	SEGMENT DWORD USE32 PUBLIC 'BSS'
_BSS	ENDS
$$SYMBOLS	SEGMENT BYTE USE32 'DEBSYM'
$$SYMBOLS	ENDS
_TLS	SEGMENT DWORD USE32 PUBLIC 'TLS'
_TLS	ENDS
;	COMDAT ??_C@_0DB@BEDINLHB@RANKING?4RANKING_DBF?4dbo?4RANKING_@
CONST	SEGMENT DWORD USE32 PUBLIC 'CONST'
CONST	ENDS
;	COMDAT ??_C@_0CN@HNMEKJGP@CDbManager?3?3UpdateGuildRanking?$LP?$KB@
CONST	SEGMENT DWORD USE32 PUBLIC 'CONST'
CONST	ENDS
;	COMDAT ??_C@_08LJMBJH@m_dwLogo?$AA@
CONST	SEGMENT DWORD USE32 PUBLIC 'CONST'
CONST	ENDS
;	COMDAT ??_C@_09NKFNPOPN@m_szGuild?$AA@
CONST	SEGMENT DWORD USE32 PUBLIC 'CONST'
CONST	ENDS
;	COMDAT ??_C@_08HDDJDJAG@m_szName?$AA@
CONST	SEGMENT DWORD USE32 PUBLIC 'CONST'
CONST	ENDS
;	COMDAT ??_C@_06LJIKPPDH@m_nWin?$AA@
CONST	SEGMENT DWORD USE32 PUBLIC 'CONST'
CONST	ENDS
;	COMDAT ??_C@_07IGCLHJHO@m_nLose?$AA@
CONST	SEGMENT DWORD USE32 PUBLIC 'CONST'
CONST	ENDS
;	COMDAT ??_C@_0N@BBOGLCAO@m_nSurrender?$AA@
CONST	SEGMENT DWORD USE32 PUBLIC 'CONST'
CONST	ENDS
;	COMDAT ??_C@_0L@EKKIFFNL@m_AvgLevel?$AA@
CONST	SEGMENT DWORD USE32 PUBLIC 'CONST'
CONST	ENDS
;	COMDAT ??_C@_0M@EMHJODPK@m_nWinPoint?$AA@
CONST	SEGMENT DWORD USE32 PUBLIC 'CONST'
CONST	ENDS
;	COMDAT ??_C@_0BG@CJGBCKAI@MAKE_RANKING_STR?5?8?$CFd?8?$AA@
CONST	SEGMENT DWORD USE32 PUBLIC 'CONST'
CONST	ENDS
;	COMDAT ??_C@_0CG@IPKIBOKB@CDbManager?3?3RankingDBUpdate?5?$CI?$CFs?$CJ@
CONST	SEGMENT DWORD USE32 PUBLIC 'CONST'
CONST	ENDS
;	COMDAT ??_C@_0BC@MOGJFHKK@tr1?3?3bad_weak_ptr?$AA@
CONST	SEGMENT DWORD USE32 PUBLIC 'CONST'
CONST	ENDS
;	COMDAT ??_C@_0BD@IOHNFIBA@SetLOD?5?3?5lv?$DN?$CFd?0?5?$CFs?$AA@
CONST	SEGMENT DWORD USE32 PUBLIC 'CONST'
CONST	ENDS
;	COMDAT ??_C@_02PCIJFNDE@?$AN?6?$AA@
CONST	SEGMENT DWORD USE32 PUBLIC 'CONST'
CONST	ENDS
;	COMDAT ??_C@_01DNKMNLPK@?$HM?$AA@
CONST	SEGMENT DWORD USE32 PUBLIC 'CONST'
CONST	ENDS
;	COMDAT ??_C@_0GH@LHPNFEPP@?2Documents?5and?5Settings?2test?2Mes@
CONST	SEGMENT DWORD USE32 PUBLIC 'CONST'
CONST	ENDS
;	COMDAT ??_C@_0O@MCAKDACP@?$CFs?0?5?$CFd?7?$CFs?0?5?$CFs?$AA@
CONST	SEGMENT DWORD USE32 PUBLIC 'CONST'
CONST	ENDS
;	COMDAT ??_C@_02DPKJAMEF@?$CFd?$AA@
CONST	SEGMENT DWORD USE32 PUBLIC 'CONST'
CONST	ENDS
;	COMDAT ??_C@_0BG@BLEGKHDP@LogItem?5?$CFs?0?5?$CFd?7?$CFs?0?5?$CFs?$AA@
CONST	SEGMENT DWORD USE32 PUBLIC 'CONST'
CONST	ENDS
;	COMDAT ??_C@_0BF@KEJHODAO@?5LogItem?5Qyery?5?$DN?$DO?5?$CFs?$AA@
CONST	SEGMENT DWORD USE32 PUBLIC 'CONST'
CONST	ENDS
;	COMDAT ??_C@_01CLKCMJKC@?5?$AA@
CONST	SEGMENT DWORD USE32 PUBLIC 'CONST'
CONST	ENDS
;	COMDAT ??_C@_01GEODFPGF@?8?$AA@
CONST	SEGMENT DWORD USE32 PUBLIC 'CONST'
CONST	ENDS
;	COMDAT ??_C@_02JEEOAGDI@L2?$AA@
CONST	SEGMENT DWORD USE32 PUBLIC 'CONST'
CONST	ENDS
;	COMDAT ??_C@_09GEIHMOKC@?$CFs?0?5?$CFd?7?$CFd?$AA@
CONST	SEGMENT DWORD USE32 PUBLIC 'CONST'
CONST	ENDS
;	COMDAT ??_C@_09CLMGFIGF@?$CFs?0?5?$CFd?7?$CFc?$AA@
CONST	SEGMENT DWORD USE32 PUBLIC 'CONST'
CONST	ENDS
;	COMDAT ??_C@_02LPGDFFPL@L1?$AA@
CONST	SEGMENT DWORD USE32 PUBLIC 'CONST'
CONST	ENDS
;	COMDAT ??_C@_0O@NMNJACAM@?$CFs?0?5?$CFd?7?$CFd?0?5?$CFs?$AA@
CONST	SEGMENT DWORD USE32 PUBLIC 'CONST'
CONST	ENDS
;	COMDAT ??_C@_0N@BNMNAMM@?$CFY?$CFm?$CFd?$CFH?$CFM?$CFS?$AA@
CONST	SEGMENT DWORD USE32 PUBLIC 'CONST'
CONST	ENDS
;	COMDAT ??_C@_02GOKBOOLC@L8?$AA@
CONST	SEGMENT DWORD USE32 PUBLIC 'CONST'
CONST	ENDS
;	COMDAT ??_C@_0DO@JFEBANLH@uspHonorLog?5?$EAserverindex?$DN?8?$CF02d?8?0@
CONST	SEGMENT DWORD USE32 PUBLIC 'CONST'
CONST	ENDS
;	COMDAT ??_C@_02MCBEKBLO@L4?$AA@
CONST	SEGMENT DWORD USE32 PUBLIC 'CONST'
CONST	ENDS
;	COMDAT ??_C@_02PACCMDDM@L6?$AA@
CONST	SEGMENT DWORD USE32 PUBLIC 'CONST'
CONST	ENDS
;	COMDAT ??_C@_02OJDJPCHN@L7?$AA@
CONST	SEGMENT DWORD USE32 PUBLIC 'CONST'
CONST	ENDS
;	COMDAT ??_C@_0CDJ@CLHOMLPK@LOG_STR?5?8?$CFs?8?0?$EAim_idPlayer?$DN?8?$CF07d?8@
CONST	SEGMENT DWORD USE32 PUBLIC 'CONST'
CONST	ENDS
;	COMDAT ??_C@_02BAABKJLB@?9?9?$AA@
CONST	SEGMENT DWORD USE32 PUBLIC 'CONST'
CONST	ENDS
;	COMDAT ??_C@_02FMMEOLBI@?1?$CK?$AA@
CONST	SEGMENT DWORD USE32 PUBLIC 'CONST'
CONST	ENDS
;	COMDAT ??_C@_02CHHINNLG@?$CK?1?$AA@
CONST	SEGMENT DWORD USE32 PUBLIC 'CONST'
CONST	ENDS
;	COMDAT ??_C@_0EL@OGOADBGI@LOG_GAMEMASTER_STR?5?$EAim_idPlayer?$DN@
CONST	SEGMENT DWORD USE32 PUBLIC 'CONST'
CONST	ENDS
;	COMDAT ??_C@_0BM@PFNCDNBM@LOG_USER_CNT_STR?5?8?$CF02d?8?0?5?$CFd?$AA@
CONST	SEGMENT DWORD USE32 PUBLIC 'CONST'
CONST	ENDS
;	COMDAT ??_C@_04KCMJEPHB@?0?5?$CFd?$AA@
CONST	SEGMENT DWORD USE32 PUBLIC 'CONST'
CONST	ENDS
;	COMDAT ??_C@_02JAFMCMAN@LA?$AA@
CONST	SEGMENT DWORD USE32 PUBLIC 'CONST'
CONST	ENDS
;	COMDAT ??_C@_0EO@NODPKHNH@LOG_EVENT_STR?5?$EAim_idPlayer?5?$DN?5?8?$CF0@
CONST	SEGMENT DWORD USE32 PUBLIC 'CONST'
CONST	ENDS
;	COMDAT ??_C@_0EC@CBOOBAOL@uspLoggingAcquireSkillPoint?5?8?$CF02@
CONST	SEGMENT DWORD USE32 PUBLIC 'CONST'
CONST	ENDS
;	COMDAT ??_C@_0EC@DIPFCBKK@uspLoggingAcquireSkillPoint?5?8?$CF02@
CONST	SEGMENT DWORD USE32 PUBLIC 'CONST'
CONST	ENDS
;	COMDAT ??_C@_0EA@PKCEFONH@uspLoggingUsingSkillPoint?5?8?$CF02d?8@
CONST	SEGMENT DWORD USE32 PUBLIC 'CONST'
CONST	ENDS
;	COMDAT ??_C@_0DDM@PEJILMGA@LOG_ITEM_STR?5?$EAim_szName?$DN?8?$CFs?8?0?$EAis@
CONST	SEGMENT DWORD USE32 PUBLIC 'CONST'
CONST	ENDS
;	COMDAT ??_C@_0EL@JGHMGDLE@uspLoggingTrade?5?$EApFlag?$DN0?0?5?$EApTrad@
CONST	SEGMENT DWORD USE32 PUBLIC 'CONST'
CONST	ENDS
;	COMDAT ??_C@_0JF@NEPENEDF@uspLoggingTrade?5?$EApFlag?$DN1?0?5?$EApTrad@
CONST	SEGMENT DWORD USE32 PUBLIC 'CONST'
CONST	ENDS
;	COMDAT ??_C@_0MP@KFMPAGF@uspLoggingTrade?5?$EApFlag?$DN2?0?5?$EApTrad@
CONST	SEGMENT DWORD USE32 PUBLIC 'CONST'
CONST	ENDS
;	COMDAT ??_C@_0L@EBJDFKBI@?$CFs?0?5?$CFd?3?7?$CFs?$AA@
CONST	SEGMENT DWORD USE32 PUBLIC 'CONST'
CONST	ENDS
;	COMDAT ??_C@_0FN@JANPKKBA@uspLogExpBox?5?$EApserverindex?$DN?8?$CF02d@
CONST	SEGMENT DWORD USE32 PUBLIC 'CONST'
CONST	ENDS
;	COMDAT ??_C@_0IJ@FAMDIIKP@usp_Log_Ins_Dungeon_Insert?5?$EAserv@
CONST	SEGMENT DWORD USE32 PUBLIC 'CONST'
CONST	ENDS
;	COMDAT ??_C@_0ID@PMGIPGNI@usp_SystemError_Insert?5?$EAm_idPlay@
CONST	SEGMENT DWORD USE32 PUBLIC 'CONST'
CONST	ENDS
;	COMDAT ??_C@_0IN@GLPAOOJ@usp_GuildFurniture_Log?5?$EAserverin@
CONST	SEGMENT DWORD USE32 PUBLIC 'CONST'
CONST	ENDS
xdata$x	SEGMENT DWORD USE32 PUBLIC 'CONST'
xdata$x	ENDS
;	COMDAT ??0_GUILDQUEST@@QAE@XZ
_TEXT	SEGMENT PARA USE32 PUBLIC 'CODE'
_TEXT	ENDS
;	COMDAT ?what@bad_weak_ptr@boost@@UBEPBDXZ
_TEXT	SEGMENT PARA USE32 PUBLIC 'CODE'
_TEXT	ENDS
;	COMDAT ??1sp_counted_base@detail@boost@@UAE@XZ
_TEXT	SEGMENT PARA USE32 PUBLIC 'CODE'
_TEXT	ENDS
;	COMDAT ?destroy@sp_counted_base@detail@boost@@UAEXXZ
_TEXT	SEGMENT PARA USE32 PUBLIC 'CODE'
_TEXT	ENDS
;	COMDAT ?add_ref_copy@sp_counted_base@detail@boost@@QAEXXZ
_TEXT	SEGMENT PARA USE32 PUBLIC 'CODE'
_TEXT	ENDS
;	COMDAT ?add_ref_lock@sp_counted_base@detail@boost@@QAE_NXZ
_TEXT	SEGMENT PARA USE32 PUBLIC 'CODE'
_TEXT	ENDS
;	COMDAT ?release@sp_counted_base@detail@boost@@QAEXXZ
_TEXT	SEGMENT PARA USE32 PUBLIC 'CODE'
_TEXT	ENDS
;	COMDAT ?weak_add_ref@sp_counted_base@detail@boost@@QAEXXZ
_TEXT	SEGMENT PARA USE32 PUBLIC 'CODE'
_TEXT	ENDS
;	COMDAT ?weak_release@sp_counted_base@detail@boost@@QAEXXZ
_TEXT	SEGMENT PARA USE32 PUBLIC 'CODE'
_TEXT	ENDS
;	COMDAT ?use_count@sp_counted_base@detail@boost@@QBEJXZ
_TEXT	SEGMENT PARA USE32 PUBLIC 'CODE'
_TEXT	ENDS
;	COMDAT ??_Gsp_counted_base@detail@boost@@UAEPAXI@Z
_TEXT	SEGMENT PARA USE32 PUBLIC 'CODE'
_TEXT	ENDS
;	COMDAT ?use_count@shared_count@detail@boost@@QBEJXZ
_TEXT	SEGMENT PARA USE32 PUBLIC 'CODE'
_TEXT	ENDS
;	COMDAT ??0bad_weak_ptr@boost@@QAE@XZ
_TEXT	SEGMENT PARA USE32 PUBLIC 'CODE'
_TEXT	ENDS
;	COMDAT ??1bad_weak_ptr@boost@@UAE@XZ
_TEXT	SEGMENT PARA USE32 PUBLIC 'CODE'
_TEXT	ENDS
;	COMDAT ??_Gbad_weak_ptr@boost@@UAEPAXI@Z
_TEXT	SEGMENT PARA USE32 PUBLIC 'CODE'
_TEXT	ENDS
;	COMDAT ?GetCooltime@CLordSkillComponent@@QAEHXZ
_TEXT	SEGMENT PARA USE32 PUBLIC 'CODE'
_TEXT	ENDS
;	COMDAT ?SetTick@CLordSkillComponent@@QAEXH@Z
_TEXT	SEGMENT PARA USE32 PUBLIC 'CODE'
_TEXT	ENDS
;	COMDAT ??1CLordSkillComponentExecutable@@UAE@XZ
_TEXT	SEGMENT PARA USE32 PUBLIC 'CODE'
_TEXT	ENDS
;	COMDAT ?Use@CLordSkillComponentExecutable@@IAEXXZ
_TEXT	SEGMENT PARA USE32 PUBLIC 'CODE'
_TEXT	ENDS
;	COMDAT ?Execute@CLordSkillComponentExecutable@@UAEXKKPAX@Z
_TEXT	SEGMENT PARA USE32 PUBLIC 'CODE'
_TEXT	ENDS
;	COMDAT ??_GCLordSkillComponentExecutable@@UAEPAXI@Z
_TEXT	SEGMENT PARA USE32 PUBLIC 'CODE'
_TEXT	ENDS
;	COMDAT ?GetDeposit@CCandidate@@QBE_JXZ
_TEXT	SEGMENT PARA USE32 PUBLIC 'CODE'
_TEXT	ENDS
;	COMDAT ?GetVote@CCandidate@@QAEHXZ
_TEXT	SEGMENT PARA USE32 PUBLIC 'CODE'
_TEXT	ENDS
;	COMDAT ?GetCreate@CCandidate@@QAEJXZ
_TEXT	SEGMENT PARA USE32 PUBLIC 'CODE'
_TEXT	ENDS
;	COMDAT ?SelectMemberClear@__GuildCombatMember@CGuildCombat@@QAEXXZ
_TEXT	SEGMENT PARA USE32 PUBLIC 'CODE'
_TEXT	ENDS
;	COMDAT ?LogItem@CDbManager@@AAEXPAVCQuery@@PAUtagDB_OVERLAPPED_PLUS@@@Z
_TEXT	SEGMENT PARA USE32 PUBLIC 'CODE'
_TEXT	ENDS
;	COMDAT ?LogPlayDeath@CDbManager@@AAEXPAVCQuery@@PAUtagDB_OVERLAPPED_PLUS@@@Z
_TEXT	SEGMENT PARA USE32 PUBLIC 'CODE'
_TEXT	ENDS
;	COMDAT ?LogLevelUp@CDbManager@@AAEXPAVCQuery@@PAUtagDB_OVERLAPPED_PLUS@@@Z
_TEXT	SEGMENT PARA USE32 PUBLIC 'CODE'
_TEXT	ENDS
;	COMDAT ?LogServerDeath@CDbManager@@AAEXPAVCQuery@@PAUtagDB_OVERLAPPED_PLUS@@@Z
_TEXT	SEGMENT PARA USE32 PUBLIC 'CODE'
_TEXT	ENDS
;	COMDAT ?LogGetHonorTime@CDbManager@@AAEXPAVCQuery@@PAUtagDB_OVERLAPPED_PLUS@@@Z
_TEXT	SEGMENT PARA USE32 PUBLIC 'CODE'
_TEXT	ENDS
;	COMDAT ?LogUniqueItem@CDbManager@@AAEXPAVCQuery@@PAUtagDB_OVERLAPPED_PLUS@@@Z
_TEXT	SEGMENT PARA USE32 PUBLIC 'CODE'
_TEXT	ENDS
;	COMDAT ?LogQuest@CDbManager@@AAEXPAVCQuery@@PAUtagDB_OVERLAPPED_PLUS@@@Z
_TEXT	SEGMENT PARA USE32 PUBLIC 'CODE'
_TEXT	ENDS
;	COMDAT ?DBQryLog@CDbManager@@QAEXPAD0KH_JHHHHHHHHHHDH0MMMHH0KHH0HHH0H0HK@Z
_TEXT	SEGMENT PARA USE32 PUBLIC 'CODE'
_TEXT	ENDS
;	COMDAT ?Gamema_Chat@CDbManager@@QAEXPAVCQuery@@PAUtagDB_OVERLAPPED_PLUS@@@Z
_TEXT	SEGMENT PARA USE32 PUBLIC 'CODE'
_TEXT	ENDS
;	COMDAT ?LogConcurrentUserNumber@CDbManager@@AAEXPAVCQuery@@PAUtagDB_OVERLAPPED_PLUS@@@Z
_TEXT	SEGMENT PARA USE32 PUBLIC 'CODE'
_TEXT	ENDS
;	COMDAT ?LogPkPvp@CDbManager@@AAEXPAVCQuery@@PAUtagDB_OVERLAPPED_PLUS@@@Z
_TEXT	SEGMENT PARA USE32 PUBLIC 'CODE'
_TEXT	ENDS
;	COMDAT ?LogSchool@CDbManager@@AAEXPAVCQuery@@PAUtagDB_OVERLAPPED_PLUS@@@Z
_TEXT	SEGMENT PARA USE32 PUBLIC 'CODE'
_TEXT	ENDS
;	COMDAT ?LogSkillPoint@CDbManager@@AAEXPAVCQuery@@PAUtagDB_OVERLAPPED_PLUS@@@Z
_TEXT	SEGMENT PARA USE32 PUBLIC 'CODE'
_TEXT	ENDS
;	COMDAT ?DBQryNewItemLog@CDbManager@@QAEXPADABU_LogItemInfo@@@Z
_TEXT	SEGMENT PARA USE32 PUBLIC 'CODE'
_TEXT	ENDS
;	COMDAT ?call_uspLoggingTrade@CDbManager@@QAEHPAVCQuery@@HHKKKPBDHHHKHHHH_J@Z
_TEXT	SEGMENT PARA USE32 PUBLIC 'CODE'
_TEXT	ENDS
;	COMDAT ?LogExpBox@CDbManager@@AAEXPAVCQuery@@PAUtagDB_OVERLAPPED_PLUS@@@Z
_TEXT	SEGMENT PARA USE32 PUBLIC 'CODE'
_TEXT	ENDS
;	COMDAT ?LogInstanceDungeon@CDbManager@@AAEXPAVCQuery@@PAUtagDB_OVERLAPPED_PLUS@@@Z
_TEXT	SEGMENT PARA USE32 PUBLIC 'CODE'
_TEXT	ENDS
;	COMDAT ?LogError@CDbManager@@AAEXPAVCQuery@@PAUtagDB_OVERLAPPED_PLUS@@@Z
_TEXT	SEGMENT PARA USE32 PUBLIC 'CODE'
_TEXT	ENDS
;	COMDAT ?LogGuildFurniture@CDbManager@@AAEXPAVCQuery@@PAUtagDB_OVERLAPPED_PLUS@@@Z
_TEXT	SEGMENT PARA USE32 PUBLIC 'CODE'
_TEXT	ENDS
;	COMDAT ?Replace@?$CStringT@DV?$StrTraitMFC@DV?$ChTraitsCRT@D@ATL@@@@@ATL@@QAEHDD@Z
_TEXT	SEGMENT PARA USE32 PUBLIC 'CODE'
_TEXT	ENDS
;	COMDAT ?Replace@?$CStringT@DV?$StrTraitMFC@DV?$ChTraitsCRT@D@ATL@@@@@ATL@@QAEHPBD0@Z
_TEXT	SEGMENT PARA USE32 PUBLIC 'CODE'
_TEXT	ENDS
;	COMDAT ?GetBuffer@?$CSimpleStringT@D$0A@@ATL@@QAEPADXZ
_TEXT	SEGMENT PARA USE32 PUBLIC 'CODE'
_TEXT	ENDS
;	COMDAT ?compare@?$basic_string@DU?$char_traits@D@std@@V?$allocator@D@2@@std@@QBEHABV12@@Z
_TEXT	SEGMENT PARA USE32 PUBLIC 'CODE'
_TEXT	ENDS
;	COMDAT ?end@?$_Tree@V?$_Tmap_traits@KP8CDPLoginSrvr@@AEXAAVCAr@@KPAEK@ZU?$less@K@std@@V?$allocator@U?$pair@$$CBKP8CDPLoginSrvr@@AEXAAVCAr@@KPAEK@Z@std@@@4@$0A@@std@@@std@@QAE?AViterator@12@XZ
_TEXT	SEGMENT PARA USE32 PUBLIC 'CODE'
_TEXT	ENDS
;	COMDAT ?find@?$_Tree@V?$_Tmap_traits@KP8CDPLoginSrvr@@AEXAAVCAr@@KPAEK@ZU?$less@K@std@@V?$allocator@U?$pair@$$CBKP8CDPLoginSrvr@@AEXAAVCAr@@KPAEK@Z@std@@@4@$0A@@std@@@std@@QAE?AViterator@12@ABK@Z
_TEXT	SEGMENT PARA USE32 PUBLIC 'CODE'
_TEXT	ENDS
;	COMDAT ??Citerator@?$_Tree@V?$_Tmap_traits@KP8CDPLoginSrvr@@AEXAAVCAr@@KPAEK@ZU?$less@K@std@@V?$allocator@U?$pair@$$CBKP8CDPLoginSrvr@@AEXAAVCAr@@KPAEK@Z@std@@@4@$0A@@std@@@std@@QBEPAU?$pair@$$CBKP8CDPLoginSrvr@@AEXAAVCAr@@KPAEK@Z@2@XZ
_TEXT	SEGMENT PARA USE32 PUBLIC 'CODE'
_TEXT	ENDS
;	COMDAT ??9const_iterator@?$_Tree@V?$_Tmap_traits@KP8CDPLoginSrvr@@AEXAAVCAr@@KPAEK@ZU?$less@K@std@@V?$allocator@U?$pair@$$CBKP8CDPLoginSrvr@@AEXAAVCAr@@KPAEK@Z@std@@@4@$0A@@std@@@std@@QBE_NABV012@@Z
_TEXT	SEGMENT PARA USE32 PUBLIC 'CODE'
_TEXT	ENDS
;	COMDAT ?Alloc@?$MemPooler@VCGuildMember@@@@QAEPAVCGuildMember@@XZ
_TEXT	SEGMENT PARA USE32 PUBLIC 'CODE'
_TEXT	ENDS
;	COMDAT ?Free@?$MemPooler@VCGuildMember@@@@QAEHPAVCGuildMember@@@Z
_TEXT	SEGMENT PARA USE32 PUBLIC 'CODE'
_TEXT	ENDS
;	COMDAT ?size@?$_Tree@V?$_Tmap_traits@KPAVCGuildMember@@U?$less@K@std@@V?$allocator@U?$pair@$$CBKPAVCGuildMember@@@std@@@3@$0A@@std@@@std@@QBEIXZ
_TEXT	SEGMENT PARA USE32 PUBLIC 'CODE'
_TEXT	ENDS
;	COMDAT ?Alloc@?$MemPooler@VCGuild@@@@QAEPAVCGuild@@XZ
_TEXT	SEGMENT PARA USE32 PUBLIC 'CODE'
_TEXT	ENDS
;	COMDAT ?Free@?$MemPooler@VCGuild@@@@QAEHPAVCGuild@@@Z
_TEXT	SEGMENT PARA USE32 PUBLIC 'CODE'
_TEXT	ENDS
;	COMDAT ?size@?$_Tree@V?$_Tmap_traits@KPAVCGuild@@U?$less@K@std@@V?$allocator@U?$pair@$$CBKPAVCGuild@@@std@@@3@$0A@@std@@@std@@QBEIXZ
_TEXT	SEGMENT PARA USE32 PUBLIC 'CODE'
_TEXT	ENDS
;	COMDAT ?size@?$_Tree@V?$_Tmap_traits@KPAU_PlayerData@@U?$less@K@std@@V?$allocator@U?$pair@$$CBKPAU_PlayerData@@@std@@@3@$0A@@std@@@std@@QBEIXZ
_TEXT	SEGMENT PARA USE32 PUBLIC 'CODE'
_TEXT	ENDS
;	COMDAT ?end@?$_Tree@V?$_Tmap_traits@KP8CDPCoreSrvr@@AEXAAVCAr@@PAEK@ZU?$less@K@std@@V?$allocator@U?$pair@$$CBKP8CDPCoreSrvr@@AEXAAVCAr@@PAEK@Z@std@@@4@$0A@@std@@@std@@QAE?AViterator@12@XZ
_TEXT	SEGMENT PARA USE32 PUBLIC 'CODE'
_TEXT	ENDS
;	COMDAT ?find@?$_Tree@V?$_Tmap_traits@KP8CDPCoreSrvr@@AEXAAVCAr@@PAEK@ZU?$less@K@std@@V?$allocator@U?$pair@$$CBKP8CDPCoreSrvr@@AEXAAVCAr@@PAEK@Z@std@@@4@$0A@@std@@@std@@QAE?AViterator@12@ABK@Z
_TEXT	SEGMENT PARA USE32 PUBLIC 'CODE'
_TEXT	ENDS
;	COMDAT ??Citerator@?$_Tree@V?$_Tmap_traits@KP8CDPCoreSrvr@@AEXAAVCAr@@PAEK@ZU?$less@K@std@@V?$allocator@U?$pair@$$CBKP8CDPCoreSrvr@@AEXAAVCAr@@PAEK@Z@std@@@4@$0A@@std@@@std@@QBEPAU?$pair@$$CBKP8CDPCoreSrvr@@AEXAAVCAr@@PAEK@Z@2@XZ
_TEXT	SEGMENT PARA USE32 PUBLIC 'CODE'
_TEXT	ENDS
;	COMDAT ??9const_iterator@?$_Tree@V?$_Tmap_traits@KP8CDPCoreSrvr@@AEXAAVCAr@@PAEK@ZU?$less@K@std@@V?$allocator@U?$pair@$$CBKP8CDPCoreSrvr@@AEXAAVCAr@@PAEK@Z@std@@@4@$0A@@std@@@std@@QBE_NABV012@@Z
_TEXT	SEGMENT PARA USE32 PUBLIC 'CODE'
_TEXT	ENDS
;	COMDAT ??R?$less@PAVsp_counted_base@detail@boost@@@std@@QBE_NABQAVsp_counted_base@detail@boost@@0@Z
_TEXT	SEGMENT PARA USE32 PUBLIC 'CODE'
_TEXT	ENDS
;	COMDAT ?size@?$vector@PAVCLordSkillComponentExecutable@@V?$allocator@PAVCLordSkillComponentExecutable@@@std@@@std@@QBEIXZ
_TEXT	SEGMENT PARA USE32 PUBLIC 'CODE'
_TEXT	ENDS
;	COMDAT ?size@?$vector@V?$shared_ptr@VCCandidate@@@boost@@V?$allocator@V?$shared_ptr@VCCandidate@@@boost@@@std@@@std@@QBEIXZ
_TEXT	SEGMENT PARA USE32 PUBLIC 'CODE'
_TEXT	ENDS
;	COMDAT ??0?$vector@MV?$allocator@M@std@@@std@@QAE@XZ
_TEXT	SEGMENT PARA USE32 PUBLIC 'CODE'
_TEXT	ENDS
;	COMDAT ??1?$vector@MV?$allocator@M@std@@@std@@QAE@XZ
_TEXT	SEGMENT PARA USE32 PUBLIC 'CODE'
_TEXT	ENDS
;	COMDAT ??0?$vector@HV?$allocator@H@std@@@std@@QAE@XZ
_TEXT	SEGMENT PARA USE32 PUBLIC 'CODE'
_TEXT	ENDS
;	COMDAT ??1?$vector@HV?$allocator@H@std@@@std@@QAE@XZ
_TEXT	SEGMENT PARA USE32 PUBLIC 'CODE'
_TEXT	ENDS
;	COMDAT ??C?$shared_ptr@VCCandidate@@@boost@@QBEPAVCCandidate@@XZ
_TEXT	SEGMENT PARA USE32 PUBLIC 'CODE'
_TEXT	ENDS
;	COMDAT ?size@?$vector@PAVCLEComponent@@V?$allocator@PAVCLEComponent@@@std@@@std@@QBEIXZ
_TEXT	SEGMENT PARA USE32 PUBLIC 'CODE'
_TEXT	ENDS
;	COMDAT ?size@?$vector@U?$pair@M_J@std@@V?$allocator@U?$pair@M_J@std@@@2@@std@@QBEIXZ
_TEXT	SEGMENT PARA USE32 PUBLIC 'CODE'
_TEXT	ENDS
;	COMDAT ?end@?$_Tree@V?$_Tmap_traits@KP8CDPTrans@@AEXAAVCAr@@KKKPAEK@ZU?$less@K@std@@V?$allocator@U?$pair@$$CBKP8CDPTrans@@AEXAAVCAr@@KKKPAEK@Z@std@@@4@$0A@@std@@@std@@QAE?AViterator@12@XZ
_TEXT	SEGMENT PARA USE32 PUBLIC 'CODE'
_TEXT	ENDS
;	COMDAT ?find@?$_Tree@V?$_Tmap_traits@KP8CDPTrans@@AEXAAVCAr@@KKKPAEK@ZU?$less@K@std@@V?$allocator@U?$pair@$$CBKP8CDPTrans@@AEXAAVCAr@@KKKPAEK@Z@std@@@4@$0A@@std@@@std@@QAE?AViterator@12@ABK@Z
_TEXT	SEGMENT PARA USE32 PUBLIC 'CODE'
_TEXT	ENDS
;	COMDAT ??Citerator@?$_Tree@V?$_Tmap_traits@KP8CDPTrans@@AEXAAVCAr@@KKKPAEK@ZU?$less@K@std@@V?$allocator@U?$pair@$$CBKP8CDPTrans@@AEXAAVCAr@@KKKPAEK@Z@std@@@4@$0A@@std@@@std@@QBEPAU?$pair@$$CBKP8CDPTrans@@AEXAAVCAr@@KKKPAEK@Z@2@XZ
_TEXT	SEGMENT PARA USE32 PUBLIC 'CODE'
_TEXT	ENDS
;	COMDAT ??9const_iterator@?$_Tree@V?$_Tmap_traits@KP8CDPTrans@@AEXAAVCAr@@KKKPAEK@ZU?$less@K@std@@V?$allocator@U?$pair@$$CBKP8CDPTrans@@AEXAAVCAr@@KKKPAEK@Z@std@@@4@$0A@@std@@@std@@QBE_NABV012@@Z
_TEXT	SEGMENT PARA USE32 PUBLIC 'CODE'
_TEXT	ENDS
;	COMDAT ?Alloc@?$MemPooler@VCParty@@@@QAEPAVCParty@@XZ
_TEXT	SEGMENT PARA USE32 PUBLIC 'CODE'
_TEXT	ENDS
;	COMDAT ?Free@?$MemPooler@VCParty@@@@QAEHPAVCParty@@@Z
_TEXT	SEGMENT PARA USE32 PUBLIC 'CODE'
_TEXT	ENDS
;	COMDAT ?size@?$_Tree@V?$_Tmap_traits@KPAVCGuildWar@@U?$less@K@std@@V?$allocator@U?$pair@$$CBKPAVCGuildWar@@@std@@@3@$0A@@std@@@std@@QBEIXZ
_TEXT	SEGMENT PARA USE32 PUBLIC 'CODE'
_TEXT	ENDS
;	COMDAT ?size@?$vector@PAU__JOINPLAYER@CGuildCombat@@V?$allocator@PAU__JOINPLAYER@CGuildCombat@@@std@@@std@@QBEIXZ
_TEXT	SEGMENT PARA USE32 PUBLIC 'CODE'
_TEXT	ENDS
;	COMDAT ??A?$vector@PAU__JOINPLAYER@CGuildCombat@@V?$allocator@PAU__JOINPLAYER@CGuildCombat@@@std@@@std@@QAEAAPAU__JOINPLAYER@CGuildCombat@@I@Z
_TEXT	SEGMENT PARA USE32 PUBLIC 'CODE'
_TEXT	ENDS
;	COMDAT ?clear@?$vector@PAU__JOINPLAYER@CGuildCombat@@V?$allocator@PAU__JOINPLAYER@CGuildCombat@@@std@@@std@@QAEXXZ
_TEXT	SEGMENT PARA USE32 PUBLIC 'CODE'
_TEXT	ENDS
;	COMDAT ?clear@?$list@PAU__JOINPLAYER@CGuildCombat@@V?$allocator@PAU__JOINPLAYER@CGuildCombat@@@std@@@std@@QAEXXZ
_TEXT	SEGMENT PARA USE32 PUBLIC 'CODE'
_TEXT	ENDS
;	COMDAT ?size@?$vector@UGuildHouse_Furniture_Info@CGuildHouseBase@@V?$allocator@UGuildHouse_Furniture_Info@CGuildHouseBase@@@std@@@std@@QBEIXZ
_TEXT	SEGMENT PARA USE32 PUBLIC 'CODE'
_TEXT	ENDS
;	COMDAT ??A?$vector@UGuildHouse_Furniture_Info@CGuildHouseBase@@V?$allocator@UGuildHouse_Furniture_Info@CGuildHouseBase@@@std@@@std@@QAEAAUGuildHouse_Furniture_Info@CGuildHouseBase@@I@Z
_TEXT	SEGMENT PARA USE32 PUBLIC 'CODE'
_TEXT	ENDS
;	COMDAT ?empty@?$_Tree@V?$_Tmap_traits@KPAVCGuildHouseBase@@U?$less@K@std@@V?$allocator@U?$pair@$$CBKPAVCGuildHouseBase@@@std@@@3@$0A@@std@@@std@@QBE_NXZ
_TEXT	SEGMENT PARA USE32 PUBLIC 'CODE'
_TEXT	ENDS
;	COMDAT ?insert@?$_Tree@V?$_Tmap_traits@KPAVCGuildHouseBase@@U?$less@K@std@@V?$allocator@U?$pair@$$CBKPAVCGuildHouseBase@@@std@@@3@$0A@@std@@@std@@QAE?AU?$pair@Viterator@?$_Tree@V?$_Tmap_traits@KPAVCGuildHouseBase@@U?$less@K@std@@V?$allocator@U?$pair@$$CBKPAVCGuildHouseBase@@@std@@@3@$0A@@std@@@std@@_N@2@ABU?$pair@$$CBKPAVCGuildHouseBase@@@2@@Z
_TEXT	SEGMENT PARA USE32 PUBLIC 'CODE'
_TEXT	ENDS
;	COMDAT ?CharNextA@?$ChTraitsCRT@D@ATL@@SAPADPBD@Z
_TEXT	SEGMENT PARA USE32 PUBLIC 'CODE'
_TEXT	ENDS
;	COMDAT ?StringFindString@?$ChTraitsCRT@D@ATL@@SAPADPADPBD@Z
_TEXT	SEGMENT PARA USE32 PUBLIC 'CODE'
_TEXT	ENDS
;	COMDAT ?SafeStringLen@?$ChTraitsCRT@D@ATL@@SAHPBD@Z
_TEXT	SEGMENT PARA USE32 PUBLIC 'CODE'
_TEXT	ENDS
;	COMDAT ?compare@?$basic_string@DU?$char_traits@D@std@@V?$allocator@D@2@@std@@QBEHIIPBDI@Z
_TEXT	SEGMENT PARA USE32 PUBLIC 'CODE'
_TEXT	ENDS
;	COMDAT ??0?$allocator@H@std@@QAE@XZ
_TEXT	SEGMENT PARA USE32 PUBLIC 'CODE'
_TEXT	ENDS
;	COMDAT ?_Key@?$_Tree@V?$_Tmap_traits@KP8CDPLoginSrvr@@AEXAAVCAr@@KPAEK@ZU?$less@K@std@@V?$allocator@U?$pair@$$CBKP8CDPLoginSrvr@@AEXAAVCAr@@KPAEK@Z@std@@@4@$0A@@std@@@std@@KAABKPAU_Node@?$_Tree_nod@V?$_Tmap_traits@KP8CDPLoginSrvr@@AEXAAVCAr@@KPAEK@ZU?$less@K@std@@V?$allocator@U?$pair@$$CBKP8CDPLoginSrvr@@AEXAAVCAr@@KPAEK@Z@std@@@4@$0A@@std@@@2@@Z
_TEXT	SEGMENT PARA USE32 PUBLIC 'CODE'
_TEXT	ENDS
;	COMDAT ?lower_bound@?$_Tree@V?$_Tmap_traits@KP8CDPLoginSrvr@@AEXAAVCAr@@KPAEK@ZU?$less@K@std@@V?$allocator@U?$pair@$$CBKP8CDPLoginSrvr@@AEXAAVCAr@@KPAEK@Z@std@@@4@$0A@@std@@@std@@QAE?AViterator@12@ABK@Z
_TEXT	SEGMENT PARA USE32 PUBLIC 'CODE'
_TEXT	ENDS
;	COMDAT ??0iterator@?$_Tree@V?$_Tmap_traits@KP8CDPLoginSrvr@@AEXAAVCAr@@KPAEK@ZU?$less@K@std@@V?$allocator@U?$pair@$$CBKP8CDPLoginSrvr@@AEXAAVCAr@@KPAEK@Z@std@@@4@$0A@@std@@@std@@QAE@PAU_Node@?$_Tree_nod@V?$_Tmap_traits@KP8CDPLoginSrvr@@AEXAAVCAr@@KPAEK@ZU?$less@K@std@@V?$allocator@U?$pair@$$CBKP8CDPLoginSrvr@@AEXAAVCAr@@KPAEK@Z@std@@@4@$0A@@std@@@2@@Z
_TEXT	SEGMENT PARA USE32 PUBLIC 'CODE'
_TEXT	ENDS
;	COMDAT ??Diterator@?$_Tree@V?$_Tmap_traits@KP8CDPLoginSrvr@@AEXAAVCAr@@KPAEK@ZU?$less@K@std@@V?$allocator@U?$pair@$$CBKP8CDPLoginSrvr@@AEXAAVCAr@@KPAEK@Z@std@@@4@$0A@@std@@@std@@QBEAAU?$pair@$$CBKP8CDPLoginSrvr@@AEXAAVCAr@@KPAEK@Z@2@XZ
_TEXT	SEGMENT PARA USE32 PUBLIC 'CODE'
_TEXT	ENDS
;	COMDAT ??8const_iterator@?$_Tree@V?$_Tmap_traits@KP8CDPLoginSrvr@@AEXAAVCAr@@KPAEK@ZU?$less@K@std@@V?$allocator@U?$pair@$$CBKP8CDPLoginSrvr@@AEXAAVCAr@@KPAEK@Z@std@@@4@$0A@@std@@@std@@QBE_NABV012@@Z
_TEXT	SEGMENT PARA USE32 PUBLIC 'CODE'
_TEXT	ENDS
;	COMDAT ?_Mynode@const_iterator@?$_Tree@V?$_Tmap_traits@KP8CDPLoginSrvr@@AEXAAVCAr@@KPAEK@ZU?$less@K@std@@V?$allocator@U?$pair@$$CBKP8CDPLoginSrvr@@AEXAAVCAr@@KPAEK@Z@std@@@4@$0A@@std@@@std@@QBEPAU_Node@?$_Tree_nod@V?$_Tmap_traits@KP8CDPLoginSrvr@@AEXAAVCAr@@KPAEK@ZU?$less@K@std@@V?$allocator@U?$pair@$$CBKP8CDPLoginSrvr@@AEXAAVCAr@@KPAEK@Z@std@@@4@$0A@@std@@@3@XZ
_TEXT	SEGMENT PARA USE32 PUBLIC 'CODE'
_TEXT	ENDS
;	COMDAT ?Create@?$MemPooler@VCGuildMember@@@@IAEXXZ
_TEXT	SEGMENT PARA USE32 PUBLIC 'CODE'
_TEXT	ENDS
;	COMDAT ?Create@?$MemPooler@VCGuild@@@@IAEXXZ
_TEXT	SEGMENT PARA USE32 PUBLIC 'CODE'
_TEXT	ENDS
;	COMDAT ?_Key@?$_Tree@V?$_Tmap_traits@KP8CDPCoreSrvr@@AEXAAVCAr@@PAEK@ZU?$less@K@std@@V?$allocator@U?$pair@$$CBKP8CDPCoreSrvr@@AEXAAVCAr@@PAEK@Z@std@@@4@$0A@@std@@@std@@KAABKPAU_Node@?$_Tree_nod@V?$_Tmap_traits@KP8CDPCoreSrvr@@AEXAAVCAr@@PAEK@ZU?$less@K@std@@V?$allocator@U?$pair@$$CBKP8CDPCoreSrvr@@AEXAAVCAr@@PAEK@Z@std@@@4@$0A@@std@@@2@@Z
_TEXT	SEGMENT PARA USE32 PUBLIC 'CODE'
_TEXT	ENDS
;	COMDAT ?lower_bound@?$_Tree@V?$_Tmap_traits@KP8CDPCoreSrvr@@AEXAAVCAr@@PAEK@ZU?$less@K@std@@V?$allocator@U?$pair@$$CBKP8CDPCoreSrvr@@AEXAAVCAr@@PAEK@Z@std@@@4@$0A@@std@@@std@@QAE?AViterator@12@ABK@Z
_TEXT	SEGMENT PARA USE32 PUBLIC 'CODE'
_TEXT	ENDS
;	COMDAT ??0iterator@?$_Tree@V?$_Tmap_traits@KP8CDPCoreSrvr@@AEXAAVCAr@@PAEK@ZU?$less@K@std@@V?$allocator@U?$pair@$$CBKP8CDPCoreSrvr@@AEXAAVCAr@@PAEK@Z@std@@@4@$0A@@std@@@std@@QAE@PAU_Node@?$_Tree_nod@V?$_Tmap_traits@KP8CDPCoreSrvr@@AEXAAVCAr@@PAEK@ZU?$less@K@std@@V?$allocator@U?$pair@$$CBKP8CDPCoreSrvr@@AEXAAVCAr@@PAEK@Z@std@@@4@$0A@@std@@@2@@Z
_TEXT	SEGMENT PARA USE32 PUBLIC 'CODE'
_TEXT	ENDS
;	COMDAT ??Diterator@?$_Tree@V?$_Tmap_traits@KP8CDPCoreSrvr@@AEXAAVCAr@@PAEK@ZU?$less@K@std@@V?$allocator@U?$pair@$$CBKP8CDPCoreSrvr@@AEXAAVCAr@@PAEK@Z@std@@@4@$0A@@std@@@std@@QBEAAU?$pair@$$CBKP8CDPCoreSrvr@@AEXAAVCAr@@PAEK@Z@2@XZ
_TEXT	SEGMENT PARA USE32 PUBLIC 'CODE'
_TEXT	ENDS
;	COMDAT ??8const_iterator@?$_Tree@V?$_Tmap_traits@KP8CDPCoreSrvr@@AEXAAVCAr@@PAEK@ZU?$less@K@std@@V?$allocator@U?$pair@$$CBKP8CDPCoreSrvr@@AEXAAVCAr@@PAEK@Z@std@@@4@$0A@@std@@@std@@QBE_NABV012@@Z
_TEXT	SEGMENT PARA USE32 PUBLIC 'CODE'
_TEXT	ENDS
;	COMDAT ?_Mynode@const_iterator@?$_Tree@V?$_Tmap_traits@KP8CDPCoreSrvr@@AEXAAVCAr@@PAEK@ZU?$less@K@std@@V?$allocator@U?$pair@$$CBKP8CDPCoreSrvr@@AEXAAVCAr@@PAEK@Z@std@@@4@$0A@@std@@@std@@QBEPAU_Node@?$_Tree_nod@V?$_Tmap_traits@KP8CDPCoreSrvr@@AEXAAVCAr@@PAEK@ZU?$less@K@std@@V?$allocator@U?$pair@$$CBKP8CDPCoreSrvr@@AEXAAVCAr@@PAEK@Z@std@@@4@$0A@@std@@@3@XZ
_TEXT	SEGMENT PARA USE32 PUBLIC 'CODE'
_TEXT	ENDS
;	COMDAT ?_Buy@?$vector@MV?$allocator@M@std@@@std@@IAE_NI@Z
_TEXT	SEGMENT PARA USE32 PUBLIC 'CODE'
_TEXT	ENDS
;	COMDAT ?_Tidy@?$vector@MV?$allocator@M@std@@@std@@IAEXXZ
_TEXT	SEGMENT PARA USE32 PUBLIC 'CODE'
_TEXT	ENDS
;	COMDAT ??0?$_Vector_val@MV?$allocator@M@std@@@std@@IAE@V?$allocator@M@1@@Z
_TEXT	SEGMENT PARA USE32 PUBLIC 'CODE'
_TEXT	ENDS
;	COMDAT ??0?$allocator@M@std@@QAE@XZ
_TEXT	SEGMENT PARA USE32 PUBLIC 'CODE'
_TEXT	ENDS
;	COMDAT ?_Buy@?$vector@HV?$allocator@H@std@@@std@@IAE_NI@Z
_TEXT	SEGMENT PARA USE32 PUBLIC 'CODE'
_TEXT	ENDS
;	COMDAT ?_Tidy@?$vector@HV?$allocator@H@std@@@std@@IAEXXZ
_TEXT	SEGMENT PARA USE32 PUBLIC 'CODE'
_TEXT	ENDS
;	COMDAT ??0?$_Vector_val@HV?$allocator@H@std@@@std@@IAE@V?$allocator@H@1@@Z
_TEXT	SEGMENT PARA USE32 PUBLIC 'CODE'
_TEXT	ENDS
;	COMDAT ?_Key@?$_Tree@V?$_Tmap_traits@KP8CDPTrans@@AEXAAVCAr@@KKKPAEK@ZU?$less@K@std@@V?$allocator@U?$pair@$$CBKP8CDPTrans@@AEXAAVCAr@@KKKPAEK@Z@std@@@4@$0A@@std@@@std@@KAABKPAU_Node@?$_Tree_nod@V?$_Tmap_traits@KP8CDPTrans@@AEXAAVCAr@@KKKPAEK@ZU?$less@K@std@@V?$allocator@U?$pair@$$CBKP8CDPTrans@@AEXAAVCAr@@KKKPAEK@Z@std@@@4@$0A@@std@@@2@@Z
_TEXT	SEGMENT PARA USE32 PUBLIC 'CODE'
_TEXT	ENDS
;	COMDAT ?lower_bound@?$_Tree@V?$_Tmap_traits@KP8CDPTrans@@AEXAAVCAr@@KKKPAEK@ZU?$less@K@std@@V?$allocator@U?$pair@$$CBKP8CDPTrans@@AEXAAVCAr@@KKKPAEK@Z@std@@@4@$0A@@std@@@std@@QAE?AViterator@12@ABK@Z
_TEXT	SEGMENT PARA USE32 PUBLIC 'CODE'
_TEXT	ENDS
;	COMDAT ??0iterator@?$_Tree@V?$_Tmap_traits@KP8CDPTrans@@AEXAAVCAr@@KKKPAEK@ZU?$less@K@std@@V?$allocator@U?$pair@$$CBKP8CDPTrans@@AEXAAVCAr@@KKKPAEK@Z@std@@@4@$0A@@std@@@std@@QAE@PAU_Node@?$_Tree_nod@V?$_Tmap_traits@KP8CDPTrans@@AEXAAVCAr@@KKKPAEK@ZU?$less@K@std@@V?$allocator@U?$pair@$$CBKP8CDPTrans@@AEXAAVCAr@@KKKPAEK@Z@std@@@4@$0A@@std@@@2@@Z
_TEXT	SEGMENT PARA USE32 PUBLIC 'CODE'
_TEXT	ENDS
;	COMDAT ??Diterator@?$_Tree@V?$_Tmap_traits@KP8CDPTrans@@AEXAAVCAr@@KKKPAEK@ZU?$less@K@std@@V?$allocator@U?$pair@$$CBKP8CDPTrans@@AEXAAVCAr@@KKKPAEK@Z@std@@@4@$0A@@std@@@std@@QBEAAU?$pair@$$CBKP8CDPTrans@@AEXAAVCAr@@KKKPAEK@Z@2@XZ
_TEXT	SEGMENT PARA USE32 PUBLIC 'CODE'
_TEXT	ENDS
;	COMDAT ??8const_iterator@?$_Tree@V?$_Tmap_traits@KP8CDPTrans@@AEXAAVCAr@@KKKPAEK@ZU?$less@K@std@@V?$allocator@U?$pair@$$CBKP8CDPTrans@@AEXAAVCAr@@KKKPAEK@Z@std@@@4@$0A@@std@@@std@@QBE_NABV012@@Z
_TEXT	SEGMENT PARA USE32 PUBLIC 'CODE'
_TEXT	ENDS
;	COMDAT ?_Mynode@const_iterator@?$_Tree@V?$_Tmap_traits@KP8CDPTrans@@AEXAAVCAr@@KKKPAEK@ZU?$less@K@std@@V?$allocator@U?$pair@$$CBKP8CDPTrans@@AEXAAVCAr@@KKKPAEK@Z@std@@@4@$0A@@std@@@std@@QBEPAU_Node@?$_Tree_nod@V?$_Tmap_traits@KP8CDPTrans@@AEXAAVCAr@@KKKPAEK@ZU?$less@K@std@@V?$allocator@U?$pair@$$CBKP8CDPTrans@@AEXAAVCAr@@KKKPAEK@Z@std@@@4@$0A@@std@@@3@XZ
_TEXT	SEGMENT PARA USE32 PUBLIC 'CODE'
_TEXT	ENDS
;	COMDAT ?Create@?$MemPooler@VCParty@@@@IAEXXZ
_TEXT	SEGMENT PARA USE32 PUBLIC 'CODE'
_TEXT	ENDS
;	COMDAT ?begin@?$vector@PAU__JOINPLAYER@CGuildCombat@@V?$allocator@PAU__JOINPLAYER@CGuildCombat@@@std@@@std@@QAE?AViterator@12@XZ
_TEXT	SEGMENT PARA USE32 PUBLIC 'CODE'
_TEXT	ENDS
;	COMDAT ?_Tidy@?$vector@PAU__JOINPLAYER@CGuildCombat@@V?$allocator@PAU__JOINPLAYER@CGuildCombat@@@std@@@std@@IAEXXZ
_TEXT	SEGMENT PARA USE32 PUBLIC 'CODE'
_TEXT	ENDS
;	COMDAT ?_Nextnode@?$list@PAU__JOINPLAYER@CGuildCombat@@V?$allocator@PAU__JOINPLAYER@CGuildCombat@@@std@@@std@@KAAAPAU_Node@?$_List_nod@PAU__JOINPLAYER@CGuildCombat@@V?$allocator@PAU__JOINPLAYER@CGuildCombat@@@std@@@2@PAU342@@Z
_TEXT	SEGMENT PARA USE32 PUBLIC 'CODE'
_TEXT	ENDS
;	COMDAT ?_Prevnode@?$list@PAU__JOINPLAYER@CGuildCombat@@V?$allocator@PAU__JOINPLAYER@CGuildCombat@@@std@@@std@@KAAAPAU_Node@?$_List_nod@PAU__JOINPLAYER@CGuildCombat@@V?$allocator@PAU__JOINPLAYER@CGuildCombat@@@std@@@2@PAU342@@Z
_TEXT	SEGMENT PARA USE32 PUBLIC 'CODE'
_TEXT	ENDS
;	COMDAT ?deallocate@?$allocator@U_Node@?$_List_nod@PAU__JOINPLAYER@CGuildCombat@@V?$allocator@PAU__JOINPLAYER@CGuildCombat@@@std@@@std@@@std@@QAEXPAU_Node@?$_List_nod@PAU__JOINPLAYER@CGuildCombat@@V?$allocator@PAU__JOINPLAYER@CGuildCombat@@@std@@@2@I@Z
_TEXT	SEGMENT PARA USE32 PUBLIC 'CODE'
_TEXT	ENDS
;	COMDAT ?destroy@?$allocator@U_Node@?$_List_nod@PAU__JOINPLAYER@CGuildCombat@@V?$allocator@PAU__JOINPLAYER@CGuildCombat@@@std@@@std@@@std@@QAEXPAU_Node@?$_List_nod@PAU__JOINPLAYER@CGuildCombat@@V?$allocator@PAU__JOINPLAYER@CGuildCombat@@@std@@@2@@Z
_TEXT	SEGMENT PARA USE32 PUBLIC 'CODE'
_TEXT	ENDS
;	COMDAT ?begin@?$vector@UGuildHouse_Furniture_Info@CGuildHouseBase@@V?$allocator@UGuildHouse_Furniture_Info@CGuildHouseBase@@@std@@@std@@QAE?AViterator@12@XZ
_TEXT	SEGMENT PARA USE32 PUBLIC 'CODE'
_TEXT	ENDS
;	COMDAT ?_Isnil@?$_Tree@V?$_Tmap_traits@KPAVCGuildHouseBase@@U?$less@K@std@@V?$allocator@U?$pair@$$CBKPAVCGuildHouseBase@@@std@@@3@$0A@@std@@@std@@KAAADPAU_Node@?$_Tree_nod@V?$_Tmap_traits@KPAVCGuildHouseBase@@U?$less@K@std@@V?$allocator@U?$pair@$$CBKPAVCGuildHouseBase@@@std@@@3@$0A@@std@@@2@@Z
_TEXT	SEGMENT PARA USE32 PUBLIC 'CODE'
_TEXT	ENDS
;	COMDAT ?_Key@?$_Tree@V?$_Tmap_traits@KPAVCGuildHouseBase@@U?$less@K@std@@V?$allocator@U?$pair@$$CBKPAVCGuildHouseBase@@@std@@@3@$0A@@std@@@std@@KAABKPAU_Node@?$_Tree_nod@V?$_Tmap_traits@KPAVCGuildHouseBase@@U?$less@K@std@@V?$allocator@U?$pair@$$CBKPAVCGuildHouseBase@@@std@@@3@$0A@@std@@@2@@Z
_TEXT	SEGMENT PARA USE32 PUBLIC 'CODE'
_TEXT	ENDS
;	COMDAT ?_Left@?$_Tree@V?$_Tmap_traits@KPAVCGuildHouseBase@@U?$less@K@std@@V?$allocator@U?$pair@$$CBKPAVCGuildHouseBase@@@std@@@3@$0A@@std@@@std@@KAAAPAU_Node@?$_Tree_nod@V?$_Tmap_traits@KPAVCGuildHouseBase@@U?$less@K@std@@V?$allocator@U?$pair@$$CBKPAVCGuildHouseBase@@@std@@@3@$0A@@std@@@2@PAU342@@Z
_TEXT	SEGMENT PARA USE32 PUBLIC 'CODE'
_TEXT	ENDS
;	COMDAT ?_Right@?$_Tree@V?$_Tmap_traits@KPAVCGuildHouseBase@@U?$less@K@std@@V?$allocator@U?$pair@$$CBKPAVCGuildHouseBase@@@std@@@3@$0A@@std@@@std@@KAAAPAU_Node@?$_Tree_nod@V?$_Tmap_traits@KPAVCGuildHouseBase@@U?$less@K@std@@V?$allocator@U?$pair@$$CBKPAVCGuildHouseBase@@@std@@@3@$0A@@std@@@2@PAU342@@Z
_TEXT	SEGMENT PARA USE32 PUBLIC 'CODE'
_TEXT	ENDS
;	COMDAT ?begin@?$_Tree@V?$_Tmap_traits@KPAVCGuildHouseBase@@U?$less@K@std@@V?$allocator@U?$pair@$$CBKPAVCGuildHouseBase@@@std@@@3@$0A@@std@@@std@@QAE?AViterator@12@XZ
_TEXT	SEGMENT PARA USE32 PUBLIC 'CODE'
_TEXT	ENDS
;	COMDAT ?size@?$_Tree@V?$_Tmap_traits@KPAVCGuildHouseBase@@U?$less@K@std@@V?$allocator@U?$pair@$$CBKPAVCGuildHouseBase@@@std@@@3@$0A@@std@@@std@@QBEIXZ
_TEXT	SEGMENT PARA USE32 PUBLIC 'CODE'
_TEXT	ENDS
;	COMDAT ?_Insert@?$_Tree@V?$_Tmap_traits@KPAVCGuildHouseBase@@U?$less@K@std@@V?$allocator@U?$pair@$$CBKPAVCGuildHouseBase@@@std@@@3@$0A@@std@@@std@@IAE?AViterator@12@_NPAU_Node@?$_Tree_nod@V?$_Tmap_traits@KPAVCGuildHouseBase@@U?$less@K@std@@V?$allocator@U?$pair@$$CBKPAVCGuildHouseBase@@@std@@@3@$0A@@std@@@2@ABU?$pair@$$CBKPAVCGuildHouseBase@@@2@@Z
_TEXT	SEGMENT PARA USE32 PUBLIC 'CODE'
_TEXT	ENDS
;	COMDAT ?_Root@?$_Tree@V?$_Tmap_traits@KPAVCGuildHouseBase@@U?$less@K@std@@V?$allocator@U?$pair@$$CBKPAVCGuildHouseBase@@@std@@@3@$0A@@std@@@std@@IAEAAPAU_Node@?$_Tree_nod@V?$_Tmap_traits@KPAVCGuildHouseBase@@U?$less@K@std@@V?$allocator@U?$pair@$$CBKPAVCGuildHouseBase@@@std@@@3@$0A@@std@@@2@XZ
_TEXT	SEGMENT PARA USE32 PUBLIC 'CODE'
_TEXT	ENDS
;	COMDAT ?_Kfn@?$_Tmap_traits@KPAVCGuildHouseBase@@U?$less@K@std@@V?$allocator@U?$pair@$$CBKPAVCGuildHouseBase@@@std@@@3@$0A@@std@@SAABKABU?$pair@$$CBKPAVCGuildHouseBase@@@2@@Z
_TEXT	SEGMENT PARA USE32 PUBLIC 'CODE'
_TEXT	ENDS
;	COMDAT ??0?$pair@Viterator@?$_Tree@V?$_Tmap_traits@KPAVCGuildHouseBase@@U?$less@K@std@@V?$allocator@U?$pair@$$CBKPAVCGuildHouseBase@@@std@@@3@$0A@@std@@@std@@_N@std@@QAE@ABViterator@?$_Tree@V?$_Tmap_traits@KPAVCGuildHouseBase@@U?$less@K@std@@V?$allocator@U?$pair@$$CBKPAVCGuildHouseBase@@@std@@@3@$0A@@std@@@1@AB_N@Z
_TEXT	SEGMENT PARA USE32 PUBLIC 'CODE'
_TEXT	ENDS
;	COMDAT ??0iterator@?$_Tree@V?$_Tmap_traits@KPAVCGuildHouseBase@@U?$less@K@std@@V?$allocator@U?$pair@$$CBKPAVCGuildHouseBase@@@std@@@3@$0A@@std@@@std@@QAE@PAU_Node@?$_Tree_nod@V?$_Tmap_traits@KPAVCGuildHouseBase@@U?$less@K@std@@V?$allocator@U?$pair@$$CBKPAVCGuildHouseBase@@@std@@@3@$0A@@std@@@2@@Z
_TEXT	SEGMENT PARA USE32 PUBLIC 'CODE'
_TEXT	ENDS
;	COMDAT ??Fiterator@?$_Tree@V?$_Tmap_traits@KPAVCGuildHouseBase@@U?$less@K@std@@V?$allocator@U?$pair@$$CBKPAVCGuildHouseBase@@@std@@@3@$0A@@std@@@std@@QAEAAV012@XZ
_TEXT	SEGMENT PARA USE32 PUBLIC 'CODE'
_TEXT	ENDS
;	COMDAT ??8const_iterator@?$_Tree@V?$_Tmap_traits@KPAVCGuildHouseBase@@U?$less@K@std@@V?$allocator@U?$pair@$$CBKPAVCGuildHouseBase@@@std@@@3@$0A@@std@@@std@@QBE_NABV012@@Z
_TEXT	SEGMENT PARA USE32 PUBLIC 'CODE'
_TEXT	ENDS
;	COMDAT ?_Mynode@const_iterator@?$_Tree@V?$_Tmap_traits@KPAVCGuildHouseBase@@U?$less@K@std@@V?$allocator@U?$pair@$$CBKPAVCGuildHouseBase@@@std@@@3@$0A@@std@@@std@@QBEPAU_Node@?$_Tree_nod@V?$_Tmap_traits@KPAVCGuildHouseBase@@U?$less@K@std@@V?$allocator@U?$pair@$$CBKPAVCGuildHouseBase@@@std@@@3@$0A@@std@@@3@XZ
_TEXT	SEGMENT PARA USE32 PUBLIC 'CODE'
_TEXT	ENDS
;	COMDAT ??Diterator@?$vector@PAU__JOINPLAYER@CGuildCombat@@V?$allocator@PAU__JOINPLAYER@CGuildCombat@@@std@@@std@@QBEAAPAU__JOINPLAYER@CGuildCombat@@XZ
_TEXT	SEGMENT PARA USE32 PUBLIC 'CODE'
_TEXT	ENDS
;	COMDAT ??Hiterator@?$vector@PAU__JOINPLAYER@CGuildCombat@@V?$allocator@PAU__JOINPLAYER@CGuildCombat@@@std@@@std@@QBE?AV012@H@Z
_TEXT	SEGMENT PARA USE32 PUBLIC 'CODE'
_TEXT	ENDS
;	COMDAT ??Diterator@?$vector@UGuildHouse_Furniture_Info@CGuildHouseBase@@V?$allocator@UGuildHouse_Furniture_Info@CGuildHouseBase@@@std@@@std@@QBEAAUGuildHouse_Furniture_Info@CGuildHouseBase@@XZ
_TEXT	SEGMENT PARA USE32 PUBLIC 'CODE'
_TEXT	ENDS
;	COMDAT ??Hiterator@?$vector@UGuildHouse_Furniture_Info@CGuildHouseBase@@V?$allocator@UGuildHouse_Furniture_Info@CGuildHouseBase@@@std@@@std@@QBE?AV012@H@Z
_TEXT	SEGMENT PARA USE32 PUBLIC 'CODE'
_TEXT	ENDS
;	COMDAT ??0?$allocator@H@std@@QAE@ABV01@@Z
_TEXT	SEGMENT PARA USE32 PUBLIC 'CODE'
_TEXT	ENDS
;	COMDAT ?deallocate@?$allocator@H@std@@QAEXPAHI@Z
_TEXT	SEGMENT PARA USE32 PUBLIC 'CODE'
_TEXT	ENDS
;	COMDAT ?allocate@?$allocator@H@std@@QAEPAHI@Z
_TEXT	SEGMENT PARA USE32 PUBLIC 'CODE'
_TEXT	ENDS
;	COMDAT ?_Myval@?$_Tree@V?$_Tmap_traits@KP8CDPLoginSrvr@@AEXAAVCAr@@KPAEK@ZU?$less@K@std@@V?$allocator@U?$pair@$$CBKP8CDPLoginSrvr@@AEXAAVCAr@@KPAEK@Z@std@@@4@$0A@@std@@@std@@KAAAU?$pair@$$CBKP8CDPLoginSrvr@@AEXAAVCAr@@KPAEK@Z@2@PAU_Node@?$_Tree_nod@V?$_Tmap_traits@KP8CDPLoginSrvr@@AEXAAVCAr@@KPAEK@ZU?$less@K@std@@V?$allocator@U?$pair@$$CBKP8CDPLoginSrvr@@AEXAAVCAr@@KPAEK@Z@std@@@4@$0A@@std@@@2@@Z
_TEXT	SEGMENT PARA USE32 PUBLIC 'CODE'
_TEXT	ENDS
;	COMDAT ?_Lbound@?$_Tree@V?$_Tmap_traits@KP8CDPLoginSrvr@@AEXAAVCAr@@KPAEK@ZU?$less@K@std@@V?$allocator@U?$pair@$$CBKP8CDPLoginSrvr@@AEXAAVCAr@@KPAEK@Z@std@@@4@$0A@@std@@@std@@IBEPAU_Node@?$_Tree_nod@V?$_Tmap_traits@KP8CDPLoginSrvr@@AEXAAVCAr@@KPAEK@ZU?$less@K@std@@V?$allocator@U?$pair@$$CBKP8CDPLoginSrvr@@AEXAAVCAr@@KPAEK@Z@std@@@4@$0A@@std@@@2@ABK@Z
_TEXT	SEGMENT PARA USE32 PUBLIC 'CODE'
_TEXT	ENDS
;	COMDAT ?_Kfn@?$_Tmap_traits@KP8CDPLoginSrvr@@AEXAAVCAr@@KPAEK@ZU?$less@K@std@@V?$allocator@U?$pair@$$CBKP8CDPLoginSrvr@@AEXAAVCAr@@KPAEK@Z@std@@@4@$0A@@std@@SAABKABU?$pair@$$CBKP8CDPLoginSrvr@@AEXAAVCAr@@KPAEK@Z@2@@Z
_TEXT	SEGMENT PARA USE32 PUBLIC 'CODE'
_TEXT	ENDS
;	COMDAT ??0const_iterator@?$_Tree@V?$_Tmap_traits@KP8CDPLoginSrvr@@AEXAAVCAr@@KPAEK@ZU?$less@K@std@@V?$allocator@U?$pair@$$CBKP8CDPLoginSrvr@@AEXAAVCAr@@KPAEK@Z@std@@@4@$0A@@std@@@std@@QAE@PAU_Node@?$_Tree_nod@V?$_Tmap_traits@KP8CDPLoginSrvr@@AEXAAVCAr@@KPAEK@ZU?$less@K@std@@V?$allocator@U?$pair@$$CBKP8CDPLoginSrvr@@AEXAAVCAr@@KPAEK@Z@std@@@4@$0A@@std@@@2@@Z
_TEXT	SEGMENT PARA USE32 PUBLIC 'CODE'
_TEXT	ENDS
;	COMDAT ??Dconst_iterator@?$_Tree@V?$_Tmap_traits@KP8CDPLoginSrvr@@AEXAAVCAr@@KPAEK@ZU?$less@K@std@@V?$allocator@U?$pair@$$CBKP8CDPLoginSrvr@@AEXAAVCAr@@KPAEK@Z@std@@@4@$0A@@std@@@std@@QBEABU?$pair@$$CBKP8CDPLoginSrvr@@AEXAAVCAr@@KPAEK@Z@2@XZ
_TEXT	SEGMENT PARA USE32 PUBLIC 'CODE'
_TEXT	ENDS
;	COMDAT ?_Myval@?$_Tree@V?$_Tmap_traits@KP8CDPCoreSrvr@@AEXAAVCAr@@PAEK@ZU?$less@K@std@@V?$allocator@U?$pair@$$CBKP8CDPCoreSrvr@@AEXAAVCAr@@PAEK@Z@std@@@4@$0A@@std@@@std@@KAAAU?$pair@$$CBKP8CDPCoreSrvr@@AEXAAVCAr@@PAEK@Z@2@PAU_Node@?$_Tree_nod@V?$_Tmap_traits@KP8CDPCoreSrvr@@AEXAAVCAr@@PAEK@ZU?$less@K@std@@V?$allocator@U?$pair@$$CBKP8CDPCoreSrvr@@AEXAAVCAr@@PAEK@Z@std@@@4@$0A@@std@@@2@@Z
_TEXT	SEGMENT PARA USE32 PUBLIC 'CODE'
_TEXT	ENDS
;	COMDAT ?_Lbound@?$_Tree@V?$_Tmap_traits@KP8CDPCoreSrvr@@AEXAAVCAr@@PAEK@ZU?$less@K@std@@V?$allocator@U?$pair@$$CBKP8CDPCoreSrvr@@AEXAAVCAr@@PAEK@Z@std@@@4@$0A@@std@@@std@@IBEPAU_Node@?$_Tree_nod@V?$_Tmap_traits@KP8CDPCoreSrvr@@AEXAAVCAr@@PAEK@ZU?$less@K@std@@V?$allocator@U?$pair@$$CBKP8CDPCoreSrvr@@AEXAAVCAr@@PAEK@Z@std@@@4@$0A@@std@@@2@ABK@Z
_TEXT	SEGMENT PARA USE32 PUBLIC 'CODE'
_TEXT	ENDS
;	COMDAT ?_Kfn@?$_Tmap_traits@KP8CDPCoreSrvr@@AEXAAVCAr@@PAEK@ZU?$less@K@std@@V?$allocator@U?$pair@$$CBKP8CDPCoreSrvr@@AEXAAVCAr@@PAEK@Z@std@@@4@$0A@@std@@SAABKABU?$pair@$$CBKP8CDPCoreSrvr@@AEXAAVCAr@@PAEK@Z@2@@Z
_TEXT	SEGMENT PARA USE32 PUBLIC 'CODE'
_TEXT	ENDS
;	COMDAT ??0const_iterator@?$_Tree@V?$_Tmap_traits@KP8CDPCoreSrvr@@AEXAAVCAr@@PAEK@ZU?$less@K@std@@V?$allocator@U?$pair@$$CBKP8CDPCoreSrvr@@AEXAAVCAr@@PAEK@Z@std@@@4@$0A@@std@@@std@@QAE@PAU_Node@?$_Tree_nod@V?$_Tmap_traits@KP8CDPCoreSrvr@@AEXAAVCAr@@PAEK@ZU?$less@K@std@@V?$allocator@U?$pair@$$CBKP8CDPCoreSrvr@@AEXAAVCAr@@PAEK@Z@std@@@4@$0A@@std@@@2@@Z
_TEXT	SEGMENT PARA USE32 PUBLIC 'CODE'
_TEXT	ENDS
;	COMDAT ??Dconst_iterator@?$_Tree@V?$_Tmap_traits@KP8CDPCoreSrvr@@AEXAAVCAr@@PAEK@ZU?$less@K@std@@V?$allocator@U?$pair@$$CBKP8CDPCoreSrvr@@AEXAAVCAr@@PAEK@Z@std@@@4@$0A@@std@@@std@@QBEABU?$pair@$$CBKP8CDPCoreSrvr@@AEXAAVCAr@@PAEK@Z@2@XZ
_TEXT	SEGMENT PARA USE32 PUBLIC 'CODE'
_TEXT	ENDS
;	COMDAT ?max_size@?$vector@MV?$allocator@M@std@@@std@@QBEIXZ
_TEXT	SEGMENT PARA USE32 PUBLIC 'CODE'
_TEXT	ENDS
;	COMDAT ?_Destroy@?$vector@MV?$allocator@M@std@@@std@@IAEXPAM0@Z
_TEXT	SEGMENT PARA USE32 PUBLIC 'CODE'
_TEXT	ENDS
;	COMDAT ?_Xlen@?$vector@MV?$allocator@M@std@@@std@@IBEXXZ
_TEXT	SEGMENT PARA USE32 PUBLIC 'CODE'
_TEXT	ENDS
;	COMDAT ??0?$allocator@M@std@@QAE@ABV01@@Z
_TEXT	SEGMENT PARA USE32 PUBLIC 'CODE'
_TEXT	ENDS
;	COMDAT ?deallocate@?$allocator@M@std@@QAEXPAMI@Z
_TEXT	SEGMENT PARA USE32 PUBLIC 'CODE'
_TEXT	ENDS
;	COMDAT ?allocate@?$allocator@M@std@@QAEPAMI@Z
_TEXT	SEGMENT PARA USE32 PUBLIC 'CODE'
_TEXT	ENDS
;	COMDAT ?max_size@?$vector@HV?$allocator@H@std@@@std@@QBEIXZ
_TEXT	SEGMENT PARA USE32 PUBLIC 'CODE'
_TEXT	ENDS
;	COMDAT ?_Destroy@?$vector@HV?$allocator@H@std@@@std@@IAEXPAH0@Z
_TEXT	SEGMENT PARA USE32 PUBLIC 'CODE'
_TEXT	ENDS
;	COMDAT ?_Xlen@?$vector@HV?$allocator@H@std@@@std@@IBEXXZ
_TEXT	SEGMENT PARA USE32 PUBLIC 'CODE'
_TEXT	ENDS
;	COMDAT ?_Myval@?$_Tree@V?$_Tmap_traits@KP8CDPTrans@@AEXAAVCAr@@KKKPAEK@ZU?$less@K@std@@V?$allocator@U?$pair@$$CBKP8CDPTrans@@AEXAAVCAr@@KKKPAEK@Z@std@@@4@$0A@@std@@@std@@KAAAU?$pair@$$CBKP8CDPTrans@@AEXAAVCAr@@KKKPAEK@Z@2@PAU_Node@?$_Tree_nod@V?$_Tmap_traits@KP8CDPTrans@@AEXAAVCAr@@KKKPAEK@ZU?$less@K@std@@V?$allocator@U?$pair@$$CBKP8CDPTrans@@AEXAAVCAr@@KKKPAEK@Z@std@@@4@$0A@@std@@@2@@Z
_TEXT	SEGMENT PARA USE32 PUBLIC 'CODE'
_TEXT	ENDS
;	COMDAT ?_Lbound@?$_Tree@V?$_Tmap_traits@KP8CDPTrans@@AEXAAVCAr@@KKKPAEK@ZU?$less@K@std@@V?$allocator@U?$pair@$$CBKP8CDPTrans@@AEXAAVCAr@@KKKPAEK@Z@std@@@4@$0A@@std@@@std@@IBEPAU_Node@?$_Tree_nod@V?$_Tmap_traits@KP8CDPTrans@@AEXAAVCAr@@KKKPAEK@ZU?$less@K@std@@V?$allocator@U?$pair@$$CBKP8CDPTrans@@AEXAAVCAr@@KKKPAEK@Z@std@@@4@$0A@@std@@@2@ABK@Z
_TEXT	SEGMENT PARA USE32 PUBLIC 'CODE'
_TEXT	ENDS
;	COMDAT ?_Kfn@?$_Tmap_traits@KP8CDPTrans@@AEXAAVCAr@@KKKPAEK@ZU?$less@K@std@@V?$allocator@U?$pair@$$CBKP8CDPTrans@@AEXAAVCAr@@KKKPAEK@Z@std@@@4@$0A@@std@@SAABKABU?$pair@$$CBKP8CDPTrans@@AEXAAVCAr@@KKKPAEK@Z@2@@Z
_TEXT	SEGMENT PARA USE32 PUBLIC 'CODE'
_TEXT	ENDS
;	COMDAT ??0const_iterator@?$_Tree@V?$_Tmap_traits@KP8CDPTrans@@AEXAAVCAr@@KKKPAEK@ZU?$less@K@std@@V?$allocator@U?$pair@$$CBKP8CDPTrans@@AEXAAVCAr@@KKKPAEK@Z@std@@@4@$0A@@std@@@std@@QAE@PAU_Node@?$_Tree_nod@V?$_Tmap_traits@KP8CDPTrans@@AEXAAVCAr@@KKKPAEK@ZU?$less@K@std@@V?$allocator@U?$pair@$$CBKP8CDPTrans@@AEXAAVCAr@@KKKPAEK@Z@std@@@4@$0A@@std@@@2@@Z
_TEXT	SEGMENT PARA USE32 PUBLIC 'CODE'
_TEXT	ENDS
;	COMDAT ??Dconst_iterator@?$_Tree@V?$_Tmap_traits@KP8CDPTrans@@AEXAAVCAr@@KKKPAEK@ZU?$less@K@std@@V?$allocator@U?$pair@$$CBKP8CDPTrans@@AEXAAVCAr@@KKKPAEK@Z@std@@@4@$0A@@std@@@std@@QBEABU?$pair@$$CBKP8CDPTrans@@AEXAAVCAr@@KKKPAEK@Z@2@XZ
_TEXT	SEGMENT PARA USE32 PUBLIC 'CODE'
_TEXT	ENDS
;	COMDAT ?_Destroy@?$vector@PAU__JOINPLAYER@CGuildCombat@@V?$allocator@PAU__JOINPLAYER@CGuildCombat@@@std@@@std@@IAEXPAPAU__JOINPLAYER@CGuildCombat@@0@Z
_TEXT	SEGMENT PARA USE32 PUBLIC 'CODE'
_TEXT	ENDS
;	COMDAT ?deallocate@?$allocator@PAU__JOINPLAYER@CGuildCombat@@@std@@QAEXPAPAU__JOINPLAYER@CGuildCombat@@I@Z
_TEXT	SEGMENT PARA USE32 PUBLIC 'CODE'
_TEXT	ENDS
;	COMDAT ?_Color@?$_Tree@V?$_Tmap_traits@KPAVCGuildHouseBase@@U?$less@K@std@@V?$allocator@U?$pair@$$CBKPAVCGuildHouseBase@@@std@@@3@$0A@@std@@@std@@KAAADPAU_Node@?$_Tree_nod@V?$_Tmap_traits@KPAVCGuildHouseBase@@U?$less@K@std@@V?$allocator@U?$pair@$$CBKPAVCGuildHouseBase@@@std@@@3@$0A@@std@@@2@@Z
_TEXT	SEGMENT PARA USE32 PUBLIC 'CODE'
_TEXT	ENDS
;	COMDAT ?_Parent@?$_Tree@V?$_Tmap_traits@KPAVCGuildHouseBase@@U?$less@K@std@@V?$allocator@U?$pair@$$CBKPAVCGuildHouseBase@@@std@@@3@$0A@@std@@@std@@KAAAPAU_Node@?$_Tree_nod@V?$_Tmap_traits@KPAVCGuildHouseBase@@U?$less@K@std@@V?$allocator@U?$pair@$$CBKPAVCGuildHouseBase@@@std@@@3@$0A@@std@@@2@PAU342@@Z
_TEXT	SEGMENT PARA USE32 PUBLIC 'CODE'
_TEXT	ENDS
;	COMDAT ?_Myval@?$_Tree@V?$_Tmap_traits@KPAVCGuildHouseBase@@U?$less@K@std@@V?$allocator@U?$pair@$$CBKPAVCGuildHouseBase@@@std@@@3@$0A@@std@@@std@@KAAAU?$pair@$$CBKPAVCGuildHouseBase@@@2@PAU_Node@?$_Tree_nod@V?$_Tmap_traits@KPAVCGuildHouseBase@@U?$less@K@std@@V?$allocator@U?$pair@$$CBKPAVCGuildHouseBase@@@std@@@3@$0A@@std@@@2@@Z
_TEXT	SEGMENT PARA USE32 PUBLIC 'CODE'
_TEXT	ENDS
;	COMDAT ?max_size@?$_Tree@V?$_Tmap_traits@KPAVCGuildHouseBase@@U?$less@K@std@@V?$allocator@U?$pair@$$CBKPAVCGuildHouseBase@@@std@@@3@$0A@@std@@@std@@QBEIXZ
_TEXT	SEGMENT PARA USE32 PUBLIC 'CODE'
_TEXT	ENDS
;	COMDAT ?_Lmost@?$_Tree@V?$_Tmap_traits@KPAVCGuildHouseBase@@U?$less@K@std@@V?$allocator@U?$pair@$$CBKPAVCGuildHouseBase@@@std@@@3@$0A@@std@@@std@@IAEAAPAU_Node@?$_Tree_nod@V?$_Tmap_traits@KPAVCGuildHouseBase@@U?$less@K@std@@V?$allocator@U?$pair@$$CBKPAVCGuildHouseBase@@@std@@@3@$0A@@std@@@2@XZ
_TEXT	SEGMENT PARA USE32 PUBLIC 'CODE'
_TEXT	ENDS
;	COMDAT ?_Lrotate@?$_Tree@V?$_Tmap_traits@KPAVCGuildHouseBase@@U?$less@K@std@@V?$allocator@U?$pair@$$CBKPAVCGuildHouseBase@@@std@@@3@$0A@@std@@@std@@IAEXPAU_Node@?$_Tree_nod@V?$_Tmap_traits@KPAVCGuildHouseBase@@U?$less@K@std@@V?$allocator@U?$pair@$$CBKPAVCGuildHouseBase@@@std@@@3@$0A@@std@@@2@@Z
_TEXT	SEGMENT PARA USE32 PUBLIC 'CODE'
_TEXT	ENDS
;	COMDAT ?_Rmost@?$_Tree@V?$_Tmap_traits@KPAVCGuildHouseBase@@U?$less@K@std@@V?$allocator@U?$pair@$$CBKPAVCGuildHouseBase@@@std@@@3@$0A@@std@@@std@@IAEAAPAU_Node@?$_Tree_nod@V?$_Tmap_traits@KPAVCGuildHouseBase@@U?$less@K@std@@V?$allocator@U?$pair@$$CBKPAVCGuildHouseBase@@@std@@@3@$0A@@std@@@2@XZ
_TEXT	SEGMENT PARA USE32 PUBLIC 'CODE'
_TEXT	ENDS
;	COMDAT ?_Rrotate@?$_Tree@V?$_Tmap_traits@KPAVCGuildHouseBase@@U?$less@K@std@@V?$allocator@U?$pair@$$CBKPAVCGuildHouseBase@@@std@@@3@$0A@@std@@@std@@IAEXPAU_Node@?$_Tree_nod@V?$_Tmap_traits@KPAVCGuildHouseBase@@U?$less@K@std@@V?$allocator@U?$pair@$$CBKPAVCGuildHouseBase@@@std@@@3@$0A@@std@@@2@@Z
_TEXT	SEGMENT PARA USE32 PUBLIC 'CODE'
_TEXT	ENDS
;	COMDAT ?_Buynode@?$_Tree@V?$_Tmap_traits@KPAVCGuildHouseBase@@U?$less@K@std@@V?$allocator@U?$pair@$$CBKPAVCGuildHouseBase@@@std@@@3@$0A@@std@@@std@@IAEPAU_Node@?$_Tree_nod@V?$_Tmap_traits@KPAVCGuildHouseBase@@U?$less@K@std@@V?$allocator@U?$pair@$$CBKPAVCGuildHouseBase@@@std@@@3@$0A@@std@@@2@PAU342@00ABU?$pair@$$CBKPAVCGuildHouseBase@@@2@D@Z
_TEXT	SEGMENT PARA USE32 PUBLIC 'CODE'
_TEXT	ENDS
;	COMDAT ??0const_iterator@?$_Tree@V?$_Tmap_traits@KPAVCGuildHouseBase@@U?$less@K@std@@V?$allocator@U?$pair@$$CBKPAVCGuildHouseBase@@@std@@@3@$0A@@std@@@std@@QAE@PAU_Node@?$_Tree_nod@V?$_Tmap_traits@KPAVCGuildHouseBase@@U?$less@K@std@@V?$allocator@U?$pair@$$CBKPAVCGuildHouseBase@@@std@@@3@$0A@@std@@@2@@Z
_TEXT	SEGMENT PARA USE32 PUBLIC 'CODE'
_TEXT	ENDS
;	COMDAT ??Fconst_iterator@?$_Tree@V?$_Tmap_traits@KPAVCGuildHouseBase@@U?$less@K@std@@V?$allocator@U?$pair@$$CBKPAVCGuildHouseBase@@@std@@@3@$0A@@std@@@std@@QAEAAV012@XZ
_TEXT	SEGMENT PARA USE32 PUBLIC 'CODE'
_TEXT	ENDS
;	COMDAT ??0iterator@?$vector@PAU__JOINPLAYER@CGuildCombat@@V?$allocator@PAU__JOINPLAYER@CGuildCombat@@@std@@@std@@QAE@PAPAU__JOINPLAYER@CGuildCombat@@@Z
_TEXT	SEGMENT PARA USE32 PUBLIC 'CODE'
_TEXT	ENDS
;	COMDAT ??Yiterator@?$vector@PAU__JOINPLAYER@CGuildCombat@@V?$allocator@PAU__JOINPLAYER@CGuildCombat@@@std@@@std@@QAEAAV012@H@Z
_TEXT	SEGMENT PARA USE32 PUBLIC 'CODE'
_TEXT	ENDS
;	COMDAT ??Dconst_iterator@?$vector@PAU__JOINPLAYER@CGuildCombat@@V?$allocator@PAU__JOINPLAYER@CGuildCombat@@@std@@@std@@QBEABQAU__JOINPLAYER@CGuildCombat@@XZ
_TEXT	SEGMENT PARA USE32 PUBLIC 'CODE'
_TEXT	ENDS
;	COMDAT ??0iterator@?$vector@UGuildHouse_Furniture_Info@CGuildHouseBase@@V?$allocator@UGuildHouse_Furniture_Info@CGuildHouseBase@@@std@@@std@@QAE@PAUGuildHouse_Furniture_Info@CGuildHouseBase@@@Z
_TEXT	SEGMENT PARA USE32 PUBLIC 'CODE'
_TEXT	ENDS
;	COMDAT ??Yiterator@?$vector@UGuildHouse_Furniture_Info@CGuildHouseBase@@V?$allocator@UGuildHouse_Furniture_Info@CGuildHouseBase@@@std@@@std@@QAEAAV012@H@Z
_TEXT	SEGMENT PARA USE32 PUBLIC 'CODE'
_TEXT	ENDS
;	COMDAT ??Dconst_iterator@?$vector@UGuildHouse_Furniture_Info@CGuildHouseBase@@V?$allocator@UGuildHouse_Furniture_Info@CGuildHouseBase@@@std@@@std@@QBEABUGuildHouse_Furniture_Info@CGuildHouseBase@@XZ
_TEXT	SEGMENT PARA USE32 PUBLIC 'CODE'
_TEXT	ENDS
;	COMDAT ?max_size@?$allocator@H@std@@QBEIXZ
_TEXT	SEGMENT PARA USE32 PUBLIC 'CODE'
_TEXT	ENDS
;	COMDAT ?_Isnil@?$_Tree@V?$_Tmap_traits@KP8CDPLoginSrvr@@AEXAAVCAr@@KPAEK@ZU?$less@K@std@@V?$allocator@U?$pair@$$CBKP8CDPLoginSrvr@@AEXAAVCAr@@KPAEK@Z@std@@@4@$0A@@std@@@std@@KAAADPAU_Node@?$_Tree_nod@V?$_Tmap_traits@KP8CDPLoginSrvr@@AEXAAVCAr@@KPAEK@ZU?$less@K@std@@V?$allocator@U?$pair@$$CBKP8CDPLoginSrvr@@AEXAAVCAr@@KPAEK@Z@std@@@4@$0A@@std@@@2@@Z
_TEXT	SEGMENT PARA USE32 PUBLIC 'CODE'
_TEXT	ENDS
;	COMDAT ?_Left@?$_Tree@V?$_Tmap_traits@KP8CDPLoginSrvr@@AEXAAVCAr@@KPAEK@ZU?$less@K@std@@V?$allocator@U?$pair@$$CBKP8CDPLoginSrvr@@AEXAAVCAr@@KPAEK@Z@std@@@4@$0A@@std@@@std@@KAAAPAU_Node@?$_Tree_nod@V?$_Tmap_traits@KP8CDPLoginSrvr@@AEXAAVCAr@@KPAEK@ZU?$less@K@std@@V?$allocator@U?$pair@$$CBKP8CDPLoginSrvr@@AEXAAVCAr@@KPAEK@Z@std@@@4@$0A@@std@@@2@PAU342@@Z
_TEXT	SEGMENT PARA USE32 PUBLIC 'CODE'
_TEXT	ENDS
;	COMDAT ?_Right@?$_Tree@V?$_Tmap_traits@KP8CDPLoginSrvr@@AEXAAVCAr@@KPAEK@ZU?$less@K@std@@V?$allocator@U?$pair@$$CBKP8CDPLoginSrvr@@AEXAAVCAr@@KPAEK@Z@std@@@4@$0A@@std@@@std@@KAAAPAU_Node@?$_Tree_nod@V?$_Tmap_traits@KP8CDPLoginSrvr@@AEXAAVCAr@@KPAEK@ZU?$less@K@std@@V?$allocator@U?$pair@$$CBKP8CDPLoginSrvr@@AEXAAVCAr@@KPAEK@Z@std@@@4@$0A@@std@@@2@PAU342@@Z
_TEXT	SEGMENT PARA USE32 PUBLIC 'CODE'
_TEXT	ENDS
;	COMDAT ?_Root@?$_Tree@V?$_Tmap_traits@KP8CDPLoginSrvr@@AEXAAVCAr@@KPAEK@ZU?$less@K@std@@V?$allocator@U?$pair@$$CBKP8CDPLoginSrvr@@AEXAAVCAr@@KPAEK@Z@std@@@4@$0A@@std@@@std@@IBEAAPAU_Node@?$_Tree_nod@V?$_Tmap_traits@KP8CDPLoginSrvr@@AEXAAVCAr@@KPAEK@ZU?$less@K@std@@V?$allocator@U?$pair@$$CBKP8CDPLoginSrvr@@AEXAAVCAr@@KPAEK@Z@std@@@4@$0A@@std@@@2@XZ
_TEXT	SEGMENT PARA USE32 PUBLIC 'CODE'
_TEXT	ENDS
;	COMDAT ?_Isnil@?$_Tree@V?$_Tmap_traits@KP8CDPCoreSrvr@@AEXAAVCAr@@PAEK@ZU?$less@K@std@@V?$allocator@U?$pair@$$CBKP8CDPCoreSrvr@@AEXAAVCAr@@PAEK@Z@std@@@4@$0A@@std@@@std@@KAAADPAU_Node@?$_Tree_nod@V?$_Tmap_traits@KP8CDPCoreSrvr@@AEXAAVCAr@@PAEK@ZU?$less@K@std@@V?$allocator@U?$pair@$$CBKP8CDPCoreSrvr@@AEXAAVCAr@@PAEK@Z@std@@@4@$0A@@std@@@2@@Z
_TEXT	SEGMENT PARA USE32 PUBLIC 'CODE'
_TEXT	ENDS
;	COMDAT ?_Left@?$_Tree@V?$_Tmap_traits@KP8CDPCoreSrvr@@AEXAAVCAr@@PAEK@ZU?$less@K@std@@V?$allocator@U?$pair@$$CBKP8CDPCoreSrvr@@AEXAAVCAr@@PAEK@Z@std@@@4@$0A@@std@@@std@@KAAAPAU_Node@?$_Tree_nod@V?$_Tmap_traits@KP8CDPCoreSrvr@@AEXAAVCAr@@PAEK@ZU?$less@K@std@@V?$allocator@U?$pair@$$CBKP8CDPCoreSrvr@@AEXAAVCAr@@PAEK@Z@std@@@4@$0A@@std@@@2@PAU342@@Z
_TEXT	SEGMENT PARA USE32 PUBLIC 'CODE'
_TEXT	ENDS
;	COMDAT ?_Right@?$_Tree@V?$_Tmap_traits@KP8CDPCoreSrvr@@AEXAAVCAr@@PAEK@ZU?$less@K@std@@V?$allocator@U?$pair@$$CBKP8CDPCoreSrvr@@AEXAAVCAr@@PAEK@Z@std@@@4@$0A@@std@@@std@@KAAAPAU_Node@?$_Tree_nod@V?$_Tmap_traits@KP8CDPCoreSrvr@@AEXAAVCAr@@PAEK@ZU?$less@K@std@@V?$allocator@U?$pair@$$CBKP8CDPCoreSrvr@@AEXAAVCAr@@PAEK@Z@std@@@4@$0A@@std@@@2@PAU342@@Z
_TEXT	SEGMENT PARA USE32 PUBLIC 'CODE'
_TEXT	ENDS
;	COMDAT ?_Root@?$_Tree@V?$_Tmap_traits@KP8CDPCoreSrvr@@AEXAAVCAr@@PAEK@ZU?$less@K@std@@V?$allocator@U?$pair@$$CBKP8CDPCoreSrvr@@AEXAAVCAr@@PAEK@Z@std@@@4@$0A@@std@@@std@@IBEAAPAU_Node@?$_Tree_nod@V?$_Tmap_traits@KP8CDPCoreSrvr@@AEXAAVCAr@@PAEK@ZU?$less@K@std@@V?$allocator@U?$pair@$$CBKP8CDPCoreSrvr@@AEXAAVCAr@@PAEK@Z@std@@@4@$0A@@std@@@2@XZ
_TEXT	SEGMENT PARA USE32 PUBLIC 'CODE'
_TEXT	ENDS
;	COMDAT ?max_size@?$allocator@M@std@@QBEIXZ
_TEXT	SEGMENT PARA USE32 PUBLIC 'CODE'
_TEXT	ENDS
;	COMDAT ?_Isnil@?$_Tree@V?$_Tmap_traits@KP8CDPTrans@@AEXAAVCAr@@KKKPAEK@ZU?$less@K@std@@V?$allocator@U?$pair@$$CBKP8CDPTrans@@AEXAAVCAr@@KKKPAEK@Z@std@@@4@$0A@@std@@@std@@KAAADPAU_Node@?$_Tree_nod@V?$_Tmap_traits@KP8CDPTrans@@AEXAAVCAr@@KKKPAEK@ZU?$less@K@std@@V?$allocator@U?$pair@$$CBKP8CDPTrans@@AEXAAVCAr@@KKKPAEK@Z@std@@@4@$0A@@std@@@2@@Z
_TEXT	SEGMENT PARA USE32 PUBLIC 'CODE'
_TEXT	ENDS
;	COMDAT ?_Left@?$_Tree@V?$_Tmap_traits@KP8CDPTrans@@AEXAAVCAr@@KKKPAEK@ZU?$less@K@std@@V?$allocator@U?$pair@$$CBKP8CDPTrans@@AEXAAVCAr@@KKKPAEK@Z@std@@@4@$0A@@std@@@std@@KAAAPAU_Node@?$_Tree_nod@V?$_Tmap_traits@KP8CDPTrans@@AEXAAVCAr@@KKKPAEK@ZU?$less@K@std@@V?$allocator@U?$pair@$$CBKP8CDPTrans@@AEXAAVCAr@@KKKPAEK@Z@std@@@4@$0A@@std@@@2@PAU342@@Z
_TEXT	SEGMENT PARA USE32 PUBLIC 'CODE'
_TEXT	ENDS
;	COMDAT ?_Right@?$_Tree@V?$_Tmap_traits@KP8CDPTrans@@AEXAAVCAr@@KKKPAEK@ZU?$less@K@std@@V?$allocator@U?$pair@$$CBKP8CDPTrans@@AEXAAVCAr@@KKKPAEK@Z@std@@@4@$0A@@std@@@std@@KAAAPAU_Node@?$_Tree_nod@V?$_Tmap_traits@KP8CDPTrans@@AEXAAVCAr@@KKKPAEK@ZU?$less@K@std@@V?$allocator@U?$pair@$$CBKP8CDPTrans@@AEXAAVCAr@@KKKPAEK@Z@std@@@4@$0A@@std@@@2@PAU342@@Z
_TEXT	SEGMENT PARA USE32 PUBLIC 'CODE'
_TEXT	ENDS
;	COMDAT ?_Root@?$_Tree@V?$_Tmap_traits@KP8CDPTrans@@AEXAAVCAr@@KKKPAEK@ZU?$less@K@std@@V?$allocator@U?$pair@$$CBKP8CDPTrans@@AEXAAVCAr@@KKKPAEK@Z@std@@@4@$0A@@std@@@std@@IBEAAPAU_Node@?$_Tree_nod@V?$_Tmap_traits@KP8CDPTrans@@AEXAAVCAr@@KKKPAEK@ZU?$less@K@std@@V?$allocator@U?$pair@$$CBKP8CDPTrans@@AEXAAVCAr@@KKKPAEK@Z@std@@@4@$0A@@std@@@2@XZ
_TEXT	SEGMENT PARA USE32 PUBLIC 'CODE'
_TEXT	ENDS
;	COMDAT ?max_size@?$allocator@U?$pair@$$CBKPAVCGuildHouseBase@@@std@@@std@@QBEIXZ
_TEXT	SEGMENT PARA USE32 PUBLIC 'CODE'
_TEXT	ENDS
;	COMDAT ?deallocate@?$allocator@U_Node@?$_Tree_nod@V?$_Tmap_traits@KPAVCGuildHouseBase@@U?$less@K@std@@V?$allocator@U?$pair@$$CBKPAVCGuildHouseBase@@@std@@@3@$0A@@std@@@std@@@std@@QAEXPAU_Node@?$_Tree_nod@V?$_Tmap_traits@KPAVCGuildHouseBase@@U?$less@K@std@@V?$allocator@U?$pair@$$CBKPAVCGuildHouseBase@@@std@@@3@$0A@@std@@@2@I@Z
_TEXT	SEGMENT PARA USE32 PUBLIC 'CODE'
_TEXT	ENDS
;	COMDAT ?allocate@?$allocator@U_Node@?$_Tree_nod@V?$_Tmap_traits@KPAVCGuildHouseBase@@U?$less@K@std@@V?$allocator@U?$pair@$$CBKPAVCGuildHouseBase@@@std@@@3@$0A@@std@@@std@@@std@@QAEPAU_Node@?$_Tree_nod@V?$_Tmap_traits@KPAVCGuildHouseBase@@U?$less@K@std@@V?$allocator@U?$pair@$$CBKPAVCGuildHouseBase@@@std@@@3@$0A@@std@@@2@I@Z
_TEXT	SEGMENT PARA USE32 PUBLIC 'CODE'
_TEXT	ENDS
;	COMDAT ?_Dec@const_iterator@?$_Tree@V?$_Tmap_traits@KPAVCGuildHouseBase@@U?$less@K@std@@V?$allocator@U?$pair@$$CBKPAVCGuildHouseBase@@@std@@@3@$0A@@std@@@std@@QAEXXZ
_TEXT	SEGMENT PARA USE32 PUBLIC 'CODE'
_TEXT	ENDS
;	COMDAT ??0const_iterator@?$vector@PAU__JOINPLAYER@CGuildCombat@@V?$allocator@PAU__JOINPLAYER@CGuildCombat@@@std@@@std@@QAE@PAPAU__JOINPLAYER@CGuildCombat@@@Z
_TEXT	SEGMENT PARA USE32 PUBLIC 'CODE'
_TEXT	ENDS
;	COMDAT ??0const_iterator@?$vector@UGuildHouse_Furniture_Info@CGuildHouseBase@@V?$allocator@UGuildHouse_Furniture_Info@CGuildHouseBase@@@std@@@std@@QAE@PAUGuildHouse_Furniture_Info@CGuildHouseBase@@@Z
_TEXT	SEGMENT PARA USE32 PUBLIC 'CODE'
_TEXT	ENDS
;	COMDAT ??0_Node@?$_Tree_nod@V?$_Tmap_traits@KPAVCGuildHouseBase@@U?$less@K@std@@V?$allocator@U?$pair@$$CBKPAVCGuildHouseBase@@@std@@@3@$0A@@std@@@std@@QAE@PAU012@00ABU?$pair@$$CBKPAVCGuildHouseBase@@@2@D@Z
_TEXT	SEGMENT PARA USE32 PUBLIC 'CODE'
_TEXT	ENDS
;	COMDAT ?_Parent@?$_Tree@V?$_Tmap_traits@KP8CDPLoginSrvr@@AEXAAVCAr@@KPAEK@ZU?$less@K@std@@V?$allocator@U?$pair@$$CBKP8CDPLoginSrvr@@AEXAAVCAr@@KPAEK@Z@std@@@4@$0A@@std@@@std@@KAAAPAU_Node@?$_Tree_nod@V?$_Tmap_traits@KP8CDPLoginSrvr@@AEXAAVCAr@@KPAEK@ZU?$less@K@std@@V?$allocator@U?$pair@$$CBKP8CDPLoginSrvr@@AEXAAVCAr@@KPAEK@Z@std@@@4@$0A@@std@@@2@PAU342@@Z
_TEXT	SEGMENT PARA USE32 PUBLIC 'CODE'
_TEXT	ENDS
;	COMDAT ?_Parent@?$_Tree@V?$_Tmap_traits@KP8CDPCoreSrvr@@AEXAAVCAr@@PAEK@ZU?$less@K@std@@V?$allocator@U?$pair@$$CBKP8CDPCoreSrvr@@AEXAAVCAr@@PAEK@Z@std@@@4@$0A@@std@@@std@@KAAAPAU_Node@?$_Tree_nod@V?$_Tmap_traits@KP8CDPCoreSrvr@@AEXAAVCAr@@PAEK@ZU?$less@K@std@@V?$allocator@U?$pair@$$CBKP8CDPCoreSrvr@@AEXAAVCAr@@PAEK@Z@std@@@4@$0A@@std@@@2@PAU342@@Z
_TEXT	SEGMENT PARA USE32 PUBLIC 'CODE'
_TEXT	ENDS
;	COMDAT ?_Parent@?$_Tree@V?$_Tmap_traits@KP8CDPTrans@@AEXAAVCAr@@KKKPAEK@ZU?$less@K@std@@V?$allocator@U?$pair@$$CBKP8CDPTrans@@AEXAAVCAr@@KKKPAEK@Z@std@@@4@$0A@@std@@@std@@KAAAPAU_Node@?$_Tree_nod@V?$_Tmap_traits@KP8CDPTrans@@AEXAAVCAr@@KKKPAEK@ZU?$less@K@std@@V?$allocator@U?$pair@$$CBKP8CDPTrans@@AEXAAVCAr@@KKKPAEK@Z@std@@@4@$0A@@std@@@2@PAU342@@Z
_TEXT	SEGMENT PARA USE32 PUBLIC 'CODE'
_TEXT	ENDS
;	COMDAT ?_Max@?$_Tree@V?$_Tmap_traits@KPAVCGuildHouseBase@@U?$less@K@std@@V?$allocator@U?$pair@$$CBKPAVCGuildHouseBase@@@std@@@3@$0A@@std@@@std@@KAPAU_Node@?$_Tree_nod@V?$_Tmap_traits@KPAVCGuildHouseBase@@U?$less@K@std@@V?$allocator@U?$pair@$$CBKPAVCGuildHouseBase@@@std@@@3@$0A@@std@@@2@PAU342@@Z
_TEXT	SEGMENT PARA USE32 PUBLIC 'CODE'
_TEXT	ENDS
;	COMDAT ??$_Iter_cat@Viterator@?$_Tree@V?$_Tmap_traits@KU_Friend@@U?$less@K@std@@V?$allocator@U?$pair@$$CBKU_Friend@@@std@@@3@$0A@@std@@@std@@@std@@YA?AUbidirectional_iterator_tag@0@ABViterator@?$_Tree@V?$_Tmap_traits@KU_Friend@@U?$less@K@std@@V?$allocator@U?$pair@$$CBKU_Friend@@@std@@@3@$0A@@std@@@0@@Z
_TEXT	SEGMENT PARA USE32 PUBLIC 'CODE'
_TEXT	ENDS
;	COMDAT ??$_Distance2@Viterator@?$_Tree@V?$_Tmap_traits@KU_Friend@@U?$less@K@std@@V?$allocator@U?$pair@$$CBKU_Friend@@@std@@@3@$0A@@std@@@std@@I@std@@YAXViterator@?$_Tree@V?$_Tmap_traits@KU_Friend@@U?$less@K@std@@V?$allocator@U?$pair@$$CBKU_Friend@@@std@@@3@$0A@@std@@@0@0AAIUbidirectional_iterator_tag@0@@Z
_TEXT	SEGMENT PARA USE32 PUBLIC 'CODE'
_TEXT	ENDS
;	COMDAT ??$_Copy_opt@PAJPAJ@std@@YAPAJPAJ00U_Scalar_ptr_iterator_tag@0@@Z
_TEXT	SEGMENT PARA USE32 PUBLIC 'CODE'
_TEXT	ENDS
;	COMDAT ??$_Uninitialized_copy@PAJPAJV?$allocator@J@std@@@std@@YAPAJPAJ00AAV?$allocator@J@0@@Z
_TEXT	SEGMENT PARA USE32 PUBLIC 'CODE'
_TEXT	ENDS
;	COMDAT ??$_Copy_backward_opt@PAJPAJ@std@@YAPAJPAJ00U_Scalar_ptr_iterator_tag@0@@Z
_TEXT	SEGMENT PARA USE32 PUBLIC 'CODE'
_TEXT	ENDS
;	COMDAT ??$_Ptr_cat@PAUtagDROPITEM@@PAU1@@std@@YA?AU_Nonscalar_ptr_iterator_tag@0@AAPAUtagDROPITEM@@0@Z
_TEXT	SEGMENT PARA USE32 PUBLIC 'CODE'
_TEXT	ENDS
;	COMDAT ??$_Destroy_range@UtagDROPITEM@@V?$allocator@UtagDROPITEM@@@std@@@std@@YAXPAUtagDROPITEM@@0AAV?$allocator@UtagDROPITEM@@@0@U_Nonscalar_ptr_iterator_tag@0@@Z
_TEXT	SEGMENT PARA USE32 PUBLIC 'CODE'
_TEXT	ENDS
;	COMDAT ??$_Destroy_range@KV?$allocator@K@std@@@std@@YAXPAK0AAV?$allocator@K@0@U_Scalar_ptr_iterator_tag@0@@Z
_TEXT	SEGMENT PARA USE32 PUBLIC 'CODE'
_TEXT	ENDS
;	COMDAT ??$_Destroy_range@JV?$allocator@J@std@@@std@@YAXPAJ0AAV?$allocator@J@0@U_Scalar_ptr_iterator_tag@0@@Z
_TEXT	SEGMENT PARA USE32 PUBLIC 'CODE'
_TEXT	ENDS
;	COMDAT ??$_Uninit_fill_n@JIJ@std@@YAXPAJIABJAAV?$allocator@J@0@U_Scalar_ptr_iterator_tag@0@@Z
_TEXT	SEGMENT PARA USE32 PUBLIC 'CODE'
_TEXT	ENDS
;	COMDAT ??$throw_exception@Vbad_weak_ptr@boost@@@boost@@YAXABVbad_weak_ptr@0@@Z
_TEXT	SEGMENT PARA USE32 PUBLIC 'CODE'
_TEXT	ENDS
;	COMDAT ??$make_pair@KPAVCGuildHouseBase@@@std@@YA?AU?$pair@KPAVCGuildHouseBase@@@0@KPAVCGuildHouseBase@@@Z
_TEXT	SEGMENT PARA USE32 PUBLIC 'CODE'
_TEXT	ENDS
;	COMDAT ??$?0KPAVCGuildHouseBase@@@?$pair@$$CBKPAVCGuildHouseBase@@@std@@QAE@ABU?$pair@KPAVCGuildHouseBase@@@1@@Z
_TEXT	SEGMENT PARA USE32 PUBLIC 'CODE'
_TEXT	ENDS
;	COMDAT ??$_Destroy@U_Node@?$_List_nod@PAU__JOINPLAYER@CGuildCombat@@V?$allocator@PAU__JOINPLAYER@CGuildCombat@@@std@@@std@@@std@@YAXPAU_Node@?$_List_nod@PAU__JOINPLAYER@CGuildCombat@@V?$allocator@PAU__JOINPLAYER@CGuildCombat@@@std@@@0@@Z
_TEXT	SEGMENT PARA USE32 PUBLIC 'CODE'
_TEXT	ENDS
;	COMDAT ??$_Allocate@H@std@@YAPAHIPAH@Z
_TEXT	SEGMENT PARA USE32 PUBLIC 'CODE'
_TEXT	ENDS
;	COMDAT ??$_Destroy_range@MV?$allocator@M@std@@@std@@YAXPAM0AAV?$allocator@M@0@@Z
_TEXT	SEGMENT PARA USE32 PUBLIC 'CODE'
_TEXT	ENDS
;	COMDAT ??$_Allocate@M@std@@YAPAMIPAM@Z
_TEXT	SEGMENT PARA USE32 PUBLIC 'CODE'
_TEXT	ENDS
;	COMDAT ??$_Destroy_range@HV?$allocator@H@std@@@std@@YAXPAH0AAV?$allocator@H@0@@Z
_TEXT	SEGMENT PARA USE32 PUBLIC 'CODE'
_TEXT	ENDS
;	COMDAT ??$_Destroy_range@PAU__JOINPLAYER@CGuildCombat@@V?$allocator@PAU__JOINPLAYER@CGuildCombat@@@std@@@std@@YAXPAPAU__JOINPLAYER@CGuildCombat@@0AAV?$allocator@PAU__JOINPLAYER@CGuildCombat@@@0@@Z
_TEXT	SEGMENT PARA USE32 PUBLIC 'CODE'
_TEXT	ENDS
;	COMDAT ??$_Allocate@U_Node@?$_Tree_nod@V?$_Tmap_traits@KPAVCGuildHouseBase@@U?$less@K@std@@V?$allocator@U?$pair@$$CBKPAVCGuildHouseBase@@@std@@@3@$0A@@std@@@std@@@std@@YAPAU_Node@?$_Tree_nod@V?$_Tmap_traits@KPAVCGuildHouseBase@@U?$less@K@std@@V?$allocator@U?$pair@$$CBKPAVCGuildHouseBase@@@std@@@3@$0A@@std@@@0@IPAU120@@Z
_TEXT	SEGMENT PARA USE32 PUBLIC 'CODE'
_TEXT	ENDS
;	COMDAT ??0bad_weak_ptr@boost@@QAE@ABV01@@Z
_TEXT	SEGMENT PARA USE32 PUBLIC 'CODE'
_TEXT	ENDS
;	COMDAT ?destroy@?$allocator@UtagDROPITEM@@@std@@QAEXPAUtagDROPITEM@@@Z
_TEXT	SEGMENT PARA USE32 PUBLIC 'CODE'
_TEXT	ENDS
;	COMDAT ??0?$pair@KPAVCGuildHouseBase@@@std@@QAE@ABKABQAVCGuildHouseBase@@@Z
_TEXT	SEGMENT PARA USE32 PUBLIC 'CODE'
_TEXT	ENDS
;	COMDAT ??$_Uninit_copy@JJ@std@@YAPAJPAJ00AAV?$allocator@J@0@U_Scalar_ptr_iterator_tag@0@@Z
_TEXT	SEGMENT PARA USE32 PUBLIC 'CODE'
_TEXT	ENDS
;	COMDAT ??$fill_n@PAJIJ@std@@YAXPAJIABJ@Z
_TEXT	SEGMENT PARA USE32 PUBLIC 'CODE'
_TEXT	ENDS
;	COMDAT ??$_Destroy_range@MV?$allocator@M@std@@@std@@YAXPAM0AAV?$allocator@M@0@U_Scalar_ptr_iterator_tag@0@@Z
_TEXT	SEGMENT PARA USE32 PUBLIC 'CODE'
_TEXT	ENDS
;	COMDAT ??$_Destroy_range@HV?$allocator@H@std@@@std@@YAXPAH0AAV?$allocator@H@0@U_Scalar_ptr_iterator_tag@0@@Z
_TEXT	SEGMENT PARA USE32 PUBLIC 'CODE'
_TEXT	ENDS
;	COMDAT ??$_Ptr_cat@U__JOINPLAYER@CGuildCombat@@@std@@YA?AU_Scalar_ptr_iterator_tag@0@PAPAU__JOINPLAYER@CGuildCombat@@0@Z
_TEXT	SEGMENT PARA USE32 PUBLIC 'CODE'
_TEXT	ENDS
;	COMDAT ??$_Destroy_range@PAU__JOINPLAYER@CGuildCombat@@V?$allocator@PAU__JOINPLAYER@CGuildCombat@@@std@@@std@@YAXPAPAU__JOINPLAYER@CGuildCombat@@0AAV?$allocator@PAU__JOINPLAYER@CGuildCombat@@@0@U_Scalar_ptr_iterator_tag@0@@Z
_TEXT	SEGMENT PARA USE32 PUBLIC 'CODE'
_TEXT	ENDS
;	COMDAT ??$_Destroy@UtagDROPITEM@@@std@@YAXPAUtagDROPITEM@@@Z
_TEXT	SEGMENT PARA USE32 PUBLIC 'CODE'
_TEXT	ENDS
;	COMDAT ?_Ptr_cat@std@@YA?AU_Scalar_ptr_iterator_tag@1@PAH0@Z
_TEXT	SEGMENT PARA USE32 PUBLIC 'CODE'
_TEXT	ENDS
;	COMDAT ?_Ptr_cat@std@@YA?AU_Scalar_ptr_iterator_tag@1@PAM0@Z
_TEXT	SEGMENT PARA USE32 PUBLIC 'CODE'
_TEXT	ENDS
;	COMDAT __CTA2?AVbad_weak_ptr@boost@@
xdata$x	SEGMENT DWORD USE32 PUBLIC 'CONST'
xdata$x	ENDS
;	COMDAT __CT??_R0?AVexception@@@8??0exception@@QAE@ABV0@@Z12
xdata$x	SEGMENT DWORD USE32 PUBLIC 'CONST'
xdata$x	ENDS
;	COMDAT ??_R0?AVexception@@@8
_DATA	SEGMENT DWORD USE32 PUBLIC 'DATA'
_DATA	ENDS
;	COMDAT __CT??_R0?AVbad_weak_ptr@boost@@@8??0bad_weak_ptr@boost@@QAE@ABV01@@Z12
xdata$x	SEGMENT DWORD USE32 PUBLIC 'CONST'
xdata$x	ENDS
;	COMDAT ??_R0?AVbad_weak_ptr@boost@@@8
_DATA	SEGMENT DWORD USE32 PUBLIC 'DATA'
_DATA	ENDS
;	COMDAT __TI2?AVbad_weak_ptr@boost@@
xdata$x	SEGMENT DWORD USE32 PUBLIC 'CONST'
xdata$x	ENDS
;	COMDAT ?_Ptr_cat@std@@YA?AU_Scalar_ptr_iterator_tag@1@PAJ0@Z
_TEXT	SEGMENT PARA USE32 PUBLIC 'CODE'
_TEXT	ENDS
;	COMDAT ??9const_iterator@?$_Tree@V?$_Tmap_traits@KU_Friend@@U?$less@K@std@@V?$allocator@U?$pair@$$CBKU_Friend@@@std@@@3@$0A@@std@@@std@@QBE_NABV012@@Z
_TEXT	SEGMENT PARA USE32 PUBLIC 'CODE'
_TEXT	ENDS
;	COMDAT ??8const_iterator@?$_Tree@V?$_Tmap_traits@KU_Friend@@U?$less@K@std@@V?$allocator@U?$pair@$$CBKU_Friend@@@std@@@3@$0A@@std@@@std@@QBE_NABV012@@Z
_TEXT	SEGMENT PARA USE32 PUBLIC 'CODE'
_TEXT	ENDS
;	COMDAT ??Eiterator@?$_Tree@V?$_Tmap_traits@KU_Friend@@U?$less@K@std@@V?$allocator@U?$pair@$$CBKU_Friend@@@std@@@3@$0A@@std@@@std@@QAEAAV012@XZ
_TEXT	SEGMENT PARA USE32 PUBLIC 'CODE'
_TEXT	ENDS
;	COMDAT ??Econst_iterator@?$_Tree@V?$_Tmap_traits@KU_Friend@@U?$less@K@std@@V?$allocator@U?$pair@$$CBKU_Friend@@@std@@@3@$0A@@std@@@std@@QAEAAV012@XZ
_TEXT	SEGMENT PARA USE32 PUBLIC 'CODE'
_TEXT	ENDS
;	COMDAT ?_Inc@const_iterator@?$_Tree@V?$_Tmap_traits@KU_Friend@@U?$less@K@std@@V?$allocator@U?$pair@$$CBKU_Friend@@@std@@@3@$0A@@std@@@std@@QAEXXZ
_TEXT	SEGMENT PARA USE32 PUBLIC 'CODE'
_TEXT	ENDS
;	COMDAT ?_Min@?$_Tree@V?$_Tmap_traits@KU_Friend@@U?$less@K@std@@V?$allocator@U?$pair@$$CBKU_Friend@@@std@@@3@$0A@@std@@@std@@KAPAU_Node@?$_Tree_nod@V?$_Tmap_traits@KU_Friend@@U?$less@K@std@@V?$allocator@U?$pair@$$CBKU_Friend@@@std@@@3@$0A@@std@@@2@PAU342@@Z
_TEXT	SEGMENT PARA USE32 PUBLIC 'CODE'
_TEXT	ENDS
;	COMDAT ?_Left@?$_Tree@V?$_Tmap_traits@KU_Friend@@U?$less@K@std@@V?$allocator@U?$pair@$$CBKU_Friend@@@std@@@3@$0A@@std@@@std@@KAAAPAU_Node@?$_Tree_nod@V?$_Tmap_traits@KU_Friend@@U?$less@K@std@@V?$allocator@U?$pair@$$CBKU_Friend@@@std@@@3@$0A@@std@@@2@PAU342@@Z
_TEXT	SEGMENT PARA USE32 PUBLIC 'CODE'
_TEXT	ENDS
;	COMDAT ?_Isnil@?$_Tree@V?$_Tmap_traits@KU_Friend@@U?$less@K@std@@V?$allocator@U?$pair@$$CBKU_Friend@@@std@@@3@$0A@@std@@@std@@KAAADPAU_Node@?$_Tree_nod@V?$_Tmap_traits@KU_Friend@@U?$less@K@std@@V?$allocator@U?$pair@$$CBKU_Friend@@@std@@@3@$0A@@std@@@2@@Z
_TEXT	SEGMENT PARA USE32 PUBLIC 'CODE'
_TEXT	ENDS
;	COMDAT ?_Parent@?$_Tree@V?$_Tmap_traits@KU_Friend@@U?$less@K@std@@V?$allocator@U?$pair@$$CBKU_Friend@@@std@@@3@$0A@@std@@@std@@KAAAPAU_Node@?$_Tree_nod@V?$_Tmap_traits@KU_Friend@@U?$less@K@std@@V?$allocator@U?$pair@$$CBKU_Friend@@@std@@@3@$0A@@std@@@2@PAU342@@Z
_TEXT	SEGMENT PARA USE32 PUBLIC 'CODE'
_TEXT	ENDS
;	COMDAT ?_Right@?$_Tree@V?$_Tmap_traits@KU_Friend@@U?$less@K@std@@V?$allocator@U?$pair@$$CBKU_Friend@@@std@@@3@$0A@@std@@@std@@KAAAPAU_Node@?$_Tree_nod@V?$_Tmap_traits@KU_Friend@@U?$less@K@std@@V?$allocator@U?$pair@$$CBKU_Friend@@@std@@@3@$0A@@std@@@2@PAU342@@Z
_TEXT	SEGMENT PARA USE32 PUBLIC 'CODE'
_TEXT	ENDS
;	COMDAT ?_Psave@?$_Facetptr@V?$ctype@G@std@@@std@@2PBVfacet@locale@2@B
_DATA	SEGMENT DWORD USE32 PUBLIC 'DATA'
_DATA	ENDS
;	COMDAT ?_Psave@?$_Facetptr@V?$ctype@D@std@@@std@@2PBVfacet@locale@2@B
_DATA	SEGMENT DWORD USE32 PUBLIC 'DATA'
_DATA	ENDS
;	COMDAT ??3@YAXPAX0@Z
_TEXT	SEGMENT PARA USE32 PUBLIC 'CODE'
_TEXT	ENDS
;	COMDAT ??2@YAPAXIPAX@Z
_TEXT	SEGMENT PARA USE32 PUBLIC 'CODE'
_TEXT	ENDS
;	COMDAT ??_C@_0BD@OLBABOEK@vector?$DMT?$DO?5too?5long?$AA@
CONST	SEGMENT DWORD USE32 PUBLIC 'CONST'
CONST	ENDS
;	COMDAT __TI3?AVlength_error@std@@
xdata$x	SEGMENT DWORD USE32 PUBLIC 'CONST'
xdata$x	ENDS
;	COMDAT ??1length_error@std@@UAE@XZ
_TEXT	SEGMENT PARA USE32 PUBLIC 'CODE'
_TEXT	ENDS
;	COMDAT ??_7length_error@std@@6B@
CONST	SEGMENT DWORD USE32 PUBLIC 'CONST'
CONST	ENDS
;	COMDAT ??_Glength_error@std@@UAEPAXI@Z
_TEXT	SEGMENT PARA USE32 PUBLIC 'CODE'
_TEXT	ENDS
;	COMDAT ?what@logic_error@std@@UBEPBDXZ
_TEXT	SEGMENT PARA USE32 PUBLIC 'CODE'
_TEXT	ENDS
;	COMDAT ?c_str@?$basic_string@DU?$char_traits@D@std@@V?$allocator@D@2@@std@@QBEPBDXZ
_TEXT	SEGMENT PARA USE32 PUBLIC 'CODE'
_TEXT	ENDS
;	COMDAT ??1logic_error@std@@UAE@XZ
_TEXT	SEGMENT PARA USE32 PUBLIC 'CODE'
_TEXT	ENDS
;	COMDAT ??_7logic_error@std@@6B@
CONST	SEGMENT DWORD USE32 PUBLIC 'CONST'
CONST	ENDS
;	COMDAT ??_Glogic_error@std@@UAEPAXI@Z
_TEXT	SEGMENT PARA USE32 PUBLIC 'CODE'
_TEXT	ENDS
;	COMDAT __CTA3?AVlength_error@std@@
xdata$x	SEGMENT DWORD USE32 PUBLIC 'CONST'
xdata$x	ENDS
;	COMDAT __CT??_R0?AVlength_error@std@@@8??0length_error@std@@QAE@ABV01@@Z40
xdata$x	SEGMENT DWORD USE32 PUBLIC 'CONST'
xdata$x	ENDS
;	COMDAT ??_R0?AVlength_error@std@@@8
_DATA	SEGMENT DWORD USE32 PUBLIC 'DATA'
_DATA	ENDS
;	COMDAT ??0length_error@std@@QAE@ABV01@@Z
_TEXT	SEGMENT PARA USE32 PUBLIC 'CODE'
_TEXT	ENDS
;	COMDAT ??0logic_error@std@@QAE@ABV01@@Z
_TEXT	SEGMENT PARA USE32 PUBLIC 'CODE'
_TEXT	ENDS
;	COMDAT ??0?$basic_string@DU?$char_traits@D@std@@V?$allocator@D@2@@std@@QAE@ABV01@@Z
_TEXT	SEGMENT PARA USE32 PUBLIC 'CODE'
_TEXT	ENDS
;	COMDAT ??0?$_String_val@DV?$allocator@D@std@@@std@@IAE@V?$allocator@D@1@@Z
_TEXT	SEGMENT PARA USE32 PUBLIC 'CODE'
_TEXT	ENDS
;	COMDAT ??0?$allocator@D@std@@QAE@ABV01@@Z
_TEXT	SEGMENT PARA USE32 PUBLIC 'CODE'
_TEXT	ENDS
;	COMDAT ?_Tidy@?$basic_string@DU?$char_traits@D@std@@V?$allocator@D@2@@std@@IAEX_NI@Z
_TEXT	SEGMENT PARA USE32 PUBLIC 'CODE'
_TEXT	ENDS
;	COMDAT ?copy@?$char_traits@D@std@@SAPADPADPBDI@Z
_TEXT	SEGMENT PARA USE32 PUBLIC 'CODE'
_TEXT	ENDS
;	COMDAT ?deallocate@?$allocator@D@std@@QAEXPADI@Z
_TEXT	SEGMENT PARA USE32 PUBLIC 'CODE'
_TEXT	ENDS
;	COMDAT ?_Eos@?$basic_string@DU?$char_traits@D@std@@V?$allocator@D@2@@std@@IAEXI@Z
_TEXT	SEGMENT PARA USE32 PUBLIC 'CODE'
_TEXT	ENDS
;	COMDAT ?assign@?$char_traits@D@std@@SAXAADABD@Z
_TEXT	SEGMENT PARA USE32 PUBLIC 'CODE'
_TEXT	ENDS
;	COMDAT ?_Myptr@?$basic_string@DU?$char_traits@D@std@@V?$allocator@D@2@@std@@QAEPADXZ
_TEXT	SEGMENT PARA USE32 PUBLIC 'CODE'
_TEXT	ENDS
;	COMDAT ?assign@?$basic_string@DU?$char_traits@D@std@@V?$allocator@D@2@@std@@QAEAAV12@ABV12@II@Z
_TEXT	SEGMENT PARA USE32 PUBLIC 'CODE'
_TEXT	ENDS
;	COMDAT ?erase@?$basic_string@DU?$char_traits@D@std@@V?$allocator@D@2@@std@@QAEAAV12@II@Z
_TEXT	SEGMENT PARA USE32 PUBLIC 'CODE'
_TEXT	ENDS
;	COMDAT ?move@?$char_traits@D@std@@SAPADPADPBDI@Z
_TEXT	SEGMENT PARA USE32 PUBLIC 'CODE'
_TEXT	ENDS
;	COMDAT ?_Grow@?$basic_string@DU?$char_traits@D@std@@V?$allocator@D@2@@std@@IAE_NI_N@Z
_TEXT	SEGMENT PARA USE32 PUBLIC 'CODE'
_TEXT	ENDS
;	COMDAT ?max_size@?$basic_string@DU?$char_traits@D@std@@V?$allocator@D@2@@std@@QBEIXZ
_TEXT	SEGMENT PARA USE32 PUBLIC 'CODE'
_TEXT	ENDS
;	COMDAT ?max_size@?$allocator@D@std@@QBEIXZ
_TEXT	SEGMENT PARA USE32 PUBLIC 'CODE'
_TEXT	ENDS
;	COMDAT ?_Copy@?$basic_string@DU?$char_traits@D@std@@V?$allocator@D@2@@std@@IAEXII@Z
_TEXT	SEGMENT PARA USE32 PUBLIC 'CODE'
_TEXT	ENDS
;	COMDAT ?allocate@?$allocator@D@std@@QAEPADI@Z
_TEXT	SEGMENT PARA USE32 PUBLIC 'CODE'
_TEXT	ENDS
;	COMDAT ??$_Allocate@D@std@@YAPADIPAD@Z
_TEXT	SEGMENT PARA USE32 PUBLIC 'CODE'
_TEXT	ENDS
;	COMDAT ?npos@?$basic_string@DU?$char_traits@D@std@@V?$allocator@D@2@@std@@2IB
CONST	SEGMENT DWORD USE32 PUBLIC 'CONST'
CONST	ENDS
;	COMDAT __CT??_R0?AVlogic_error@std@@@8??0logic_error@std@@QAE@ABV01@@Z40
xdata$x	SEGMENT DWORD USE32 PUBLIC 'CONST'
xdata$x	ENDS
;	COMDAT ??_R0?AVlogic_error@std@@@8
_DATA	SEGMENT DWORD USE32 PUBLIC 'DATA'
_DATA	ENDS
;	COMDAT ??1?$basic_string@DU?$char_traits@D@std@@V?$allocator@D@2@@std@@QAE@XZ
_TEXT	SEGMENT PARA USE32 PUBLIC 'CODE'
_TEXT	ENDS
;	COMDAT ??_C@_0BE@JONHPENG@map?1set?$DMT?$DO?5too?5long?$AA@
CONST	SEGMENT DWORD USE32 PUBLIC 'CONST'
CONST	ENDS
;	COMDAT ??0?$basic_string@DU?$char_traits@D@std@@V?$allocator@D@2@@std@@QAE@PBD@Z
_TEXT	SEGMENT PARA USE32 PUBLIC 'CODE'
_TEXT	ENDS
;	COMDAT ??0?$allocator@D@std@@QAE@XZ
_TEXT	SEGMENT PARA USE32 PUBLIC 'CODE'
_TEXT	ENDS
;	COMDAT ?assign@?$basic_string@DU?$char_traits@D@std@@V?$allocator@D@2@@std@@QAEAAV12@PBD@Z
_TEXT	SEGMENT PARA USE32 PUBLIC 'CODE'
_TEXT	ENDS
;	COMDAT ?assign@?$basic_string@DU?$char_traits@D@std@@V?$allocator@D@2@@std@@QAEAAV12@PBDI@Z
_TEXT	SEGMENT PARA USE32 PUBLIC 'CODE'
_TEXT	ENDS
;	COMDAT ?_Inside@?$basic_string@DU?$char_traits@D@std@@V?$allocator@D@2@@std@@IAE_NPBD@Z
_TEXT	SEGMENT PARA USE32 PUBLIC 'CODE'
_TEXT	ENDS
;	COMDAT ?length@?$char_traits@D@std@@SAIPBD@Z
_TEXT	SEGMENT PARA USE32 PUBLIC 'CODE'
_TEXT	ENDS
;	COMDAT ??0length_error@std@@QAE@ABV?$basic_string@DU?$char_traits@D@std@@V?$allocator@D@2@@1@@Z
_TEXT	SEGMENT PARA USE32 PUBLIC 'CODE'
_TEXT	ENDS
;	COMDAT ??0logic_error@std@@QAE@ABV?$basic_string@DU?$char_traits@D@std@@V?$allocator@D@2@@1@@Z
_TEXT	SEGMENT PARA USE32 PUBLIC 'CODE'
_TEXT	ENDS
;	COMDAT ?push_back@?$list@PAXV?$allocator@PAX@std@@@std@@QAEXABQAX@Z
_TEXT	SEGMENT PARA USE32 PUBLIC 'CODE'
_TEXT	ENDS
;	COMDAT ?_Insert@?$list@PAXV?$allocator@PAX@std@@@std@@QAEXViterator@12@ABQAX@Z
_TEXT	SEGMENT PARA USE32 PUBLIC 'CODE'
_TEXT	ENDS
;	COMDAT ?_Mynode@const_iterator@?$list@PAXV?$allocator@PAX@std@@@std@@QBEPAU_Node@?$_List_nod@PAXV?$allocator@PAX@std@@@3@XZ
_TEXT	SEGMENT PARA USE32 PUBLIC 'CODE'
_TEXT	ENDS
;	COMDAT ?_Buynode@?$list@PAXV?$allocator@PAX@std@@@std@@IAEPAU_Node@?$_List_nod@PAXV?$allocator@PAX@std@@@2@PAU342@0ABQAX@Z
_TEXT	SEGMENT PARA USE32 PUBLIC 'CODE'
_TEXT	ENDS
;	COMDAT ?allocate@?$allocator@U_Node@?$_List_nod@PAXV?$allocator@PAX@std@@@std@@@std@@QAEPAU_Node@?$_List_nod@PAXV?$allocator@PAX@std@@@2@I@Z
_TEXT	SEGMENT PARA USE32 PUBLIC 'CODE'
_TEXT	ENDS
;	COMDAT ??$_Allocate@U_Node@?$_List_nod@PAXV?$allocator@PAX@std@@@std@@@std@@YAPAU_Node@?$_List_nod@PAXV?$allocator@PAX@std@@@0@IPAU120@@Z
_TEXT	SEGMENT PARA USE32 PUBLIC 'CODE'
_TEXT	ENDS
;	COMDAT ??0_Node@?$_List_nod@PAXV?$allocator@PAX@std@@@std@@QAE@PAU012@0ABQAX@Z
_TEXT	SEGMENT PARA USE32 PUBLIC 'CODE'
_TEXT	ENDS
;	COMDAT ?deallocate@?$allocator@U_Node@?$_List_nod@PAXV?$allocator@PAX@std@@@std@@@std@@QAEXPAU_Node@?$_List_nod@PAXV?$allocator@PAX@std@@@2@I@Z
_TEXT	SEGMENT PARA USE32 PUBLIC 'CODE'
_TEXT	ENDS
;	COMDAT ?_Incsize@?$list@PAXV?$allocator@PAX@std@@@std@@IAEXI@Z
_TEXT	SEGMENT PARA USE32 PUBLIC 'CODE'
_TEXT	ENDS
;	COMDAT ?max_size@?$list@PAXV?$allocator@PAX@std@@@std@@QBEIXZ
_TEXT	SEGMENT PARA USE32 PUBLIC 'CODE'
_TEXT	ENDS
;	COMDAT ?max_size@?$allocator@PAX@std@@QBEIXZ
_TEXT	SEGMENT PARA USE32 PUBLIC 'CODE'
_TEXT	ENDS
;	COMDAT ??_C@_0BB@MOGOBHAF@list?$DMT?$DO?5too?5long?$AA@
CONST	SEGMENT DWORD USE32 PUBLIC 'CONST'
CONST	ENDS
;	COMDAT ?_Nextnode@?$list@PAXV?$allocator@PAX@std@@@std@@KAAAPAU_Node@?$_List_nod@PAXV?$allocator@PAX@std@@@2@PAU342@@Z
_TEXT	SEGMENT PARA USE32 PUBLIC 'CODE'
_TEXT	ENDS
;	COMDAT ?_Prevnode@?$list@PAXV?$allocator@PAX@std@@@std@@KAAAPAU_Node@?$_List_nod@PAXV?$allocator@PAX@std@@@2@PAU342@@Z
_TEXT	SEGMENT PARA USE32 PUBLIC 'CODE'
_TEXT	ENDS
;	COMDAT ?end@?$list@PAXV?$allocator@PAX@std@@@std@@QAE?AViterator@12@XZ
_TEXT	SEGMENT PARA USE32 PUBLIC 'CODE'
_TEXT	ENDS
;	COMDAT ??0iterator@?$list@PAXV?$allocator@PAX@std@@@std@@QAE@PAU_Node@?$_List_nod@PAXV?$allocator@PAX@std@@@2@@Z
_TEXT	SEGMENT PARA USE32 PUBLIC 'CODE'
_TEXT	ENDS
;	COMDAT ??0const_iterator@?$list@PAXV?$allocator@PAX@std@@@std@@QAE@PAU_Node@?$_List_nod@PAXV?$allocator@PAX@std@@@2@@Z
_TEXT	SEGMENT PARA USE32 PUBLIC 'CODE'
_TEXT	ENDS
;	COMDAT ??_C@_09PKKCPLIP@bad?5alloc?$AA@
CONST	SEGMENT DWORD USE32 PUBLIC 'CONST'
CONST	ENDS
;	COMDAT ?compare@?$char_traits@D@std@@SAHPBD0I@Z
_TEXT	SEGMENT PARA USE32 PUBLIC 'CODE'
_TEXT	ENDS
;	COMDAT ??R?$less@K@std@@QBE_NABK0@Z
_TEXT	SEGMENT PARA USE32 PUBLIC 'CODE'
_TEXT	ENDS
;	COMDAT ?_Myptr@?$basic_string@DU?$char_traits@D@std@@V?$allocator@D@2@@std@@QBEPBDXZ
_TEXT	SEGMENT PARA USE32 PUBLIC 'CODE'
_TEXT	ENDS
;	COMDAT ?size@?$basic_string@DU?$char_traits@D@std@@V?$allocator@D@2@@std@@QBEIXZ
_TEXT	SEGMENT PARA USE32 PUBLIC 'CODE'
_TEXT	ENDS
;	COMDAT ?Fork@?$CSimpleStringT@D$0A@@ATL@@AAEXH@Z
_TEXT	SEGMENT PARA USE32 PUBLIC 'CODE'
_TEXT	ENDS
;	COMDAT ?ThrowMemoryException@?$CSimpleStringT@D$0A@@ATL@@KAXXZ
_TEXT	SEGMENT PARA USE32 PUBLIC 'CODE'
_TEXT	ENDS
;	COMDAT ?AtlThrow@ATL@@YGXJ@Z
_TEXT	SEGMENT PARA USE32 PUBLIC 'CODE'
_TEXT	ENDS
;	COMDAT ?CopyChars@?$CSimpleStringT@D$0A@@ATL@@SAXPADPBDH@Z
_TEXT	SEGMENT PARA USE32 PUBLIC 'CODE'
_TEXT	ENDS
;	COMDAT ?data@CStringData@ATL@@QAEPAXXZ
_TEXT	SEGMENT PARA USE32 PUBLIC 'CODE'
_TEXT	ENDS
;	COMDAT ?Release@CStringData@ATL@@QAEXXZ
_TEXT	SEGMENT PARA USE32 PUBLIC 'CODE'
_TEXT	ENDS
;	COMDAT ?Attach@?$CSimpleStringT@D$0A@@ATL@@AAEXPAUCStringData@2@@Z
_TEXT	SEGMENT PARA USE32 PUBLIC 'CODE'
_TEXT	ENDS
;	COMDAT ?IsShared@CStringData@ATL@@QBE_NXZ
_TEXT	SEGMENT PARA USE32 PUBLIC 'CODE'
_TEXT	ENDS
;	COMDAT ?GetData@?$CSimpleStringT@D$0A@@ATL@@ABEPAUCStringData@2@XZ
_TEXT	SEGMENT PARA USE32 PUBLIC 'CODE'
_TEXT	ENDS
;	COMDAT ?StringFindString@?$ChTraitsCRT@D@ATL@@SAPBDPBD0@Z
_TEXT	SEGMENT PARA USE32 PUBLIC 'CODE'
_TEXT	ENDS
;	COMDAT ?ReleaseBufferSetLength@?$CSimpleStringT@D$0A@@ATL@@QAEXH@Z
_TEXT	SEGMENT PARA USE32 PUBLIC 'CODE'
_TEXT	ENDS
;	COMDAT ?SetLength@?$CSimpleStringT@D$0A@@ATL@@AAEXH@Z
_TEXT	SEGMENT PARA USE32 PUBLIC 'CODE'
_TEXT	ENDS
;	COMDAT ?GetString@?$CSimpleStringT@D$0A@@ATL@@QBEPBDXZ
_TEXT	SEGMENT PARA USE32 PUBLIC 'CODE'
_TEXT	ENDS
;	COMDAT ??5CAr@@QAEAAV0@AAD@Z
_TEXT	SEGMENT PARA USE32 PUBLIC 'CODE'
_TEXT	ENDS
;	COMDAT ??_C@_09GBAEEKDE@?$CFs?0?5?$CFd?7?$CFs?$AA@
CONST	SEGMENT DWORD USE32 PUBLIC 'CONST'
CONST	ENDS
;	COMDAT ?GetLength@?$CSimpleStringT@D$0A@@ATL@@QBEHXZ
_TEXT	SEGMENT PARA USE32 PUBLIC 'CODE'
_TEXT	ENDS
;	COMDAT ?GetBuffer@?$CSimpleStringT@D$0A@@ATL@@QAEPADH@Z
_TEXT	SEGMENT PARA USE32 PUBLIC 'CODE'
_TEXT	ENDS
;	COMDAT ?PrepareWrite@?$CSimpleStringT@D$0A@@ATL@@AAEPADH@Z
_TEXT	SEGMENT PARA USE32 PUBLIC 'CODE'
_TEXT	ENDS
;	COMDAT ?PrepareWrite2@?$CSimpleStringT@D$0A@@ATL@@AAEXH@Z
_TEXT	SEGMENT PARA USE32 PUBLIC 'CODE'
_TEXT	ENDS
;	COMDAT ?Reallocate@?$CSimpleStringT@D$0A@@ATL@@AAEXH@Z
_TEXT	SEGMENT PARA USE32 PUBLIC 'CODE'
_TEXT	ENDS
;	COMDAT ?Format@CTime@ATL@@QBE?AV?$CStringT@DV?$StrTraitMFC@DV?$ChTraitsCRT@D@ATL@@@@@2@PBD@Z
_TEXT	SEGMENT PARA USE32 PUBLIC 'CODE'
_TEXT	ENDS
;	COMDAT ??0CTime@ATL@@QAE@ABU_SYSTEMTIME@@H@Z
_TEXT	SEGMENT PARA USE32 PUBLIC 'CODE'
_TEXT	ENDS
;	COMDAT ??0CTime@ATL@@QAE@_J@Z
_TEXT	SEGMENT PARA USE32 PUBLIC 'CODE'
_TEXT	ENDS
;	COMDAT ??0CTime@ATL@@QAE@HHHHHHH@Z
_TEXT	SEGMENT PARA USE32 PUBLIC 'CODE'
_TEXT	ENDS
;	COMDAT ??5CAr@@QAEAAV0@AAG@Z
_TEXT	SEGMENT PARA USE32 PUBLIC 'CODE'
_TEXT	ENDS
;	COMDAT ??5CAr@@QAEAAV0@AAE@Z
_TEXT	SEGMENT PARA USE32 PUBLIC 'CODE'
_TEXT	ENDS
;	COMDAT ??5@YAAAVCAr@@AAV0@AA_J@Z
_TEXT	SEGMENT PARA USE32 PUBLIC 'CODE'
_TEXT	ENDS
;	COMDAT __tcsncpy
_TEXT	SEGMENT PARA USE32 PUBLIC 'CODE'
_TEXT	ENDS
;	COMDAT ??0_LogItemInfo@@QAE@XZ
_TEXT	SEGMENT PARA USE32 PUBLIC 'CODE'
_TEXT	ENDS
;	COMDAT ??5CAr@@QAEAAV0@AAF@Z
_TEXT	SEGMENT PARA USE32 PUBLIC 'CODE'
_TEXT	ENDS
;	COMDAT ??_C@_00CNPNBAHC@?$AA@
CONST	SEGMENT DWORD USE32 PUBLIC 'CONST'
CONST	ENDS
;	COMDAT ??1?$CStringT@DV?$StrTraitMFC@DV?$ChTraitsCRT@D@ATL@@@@@ATL@@QAE@XZ
_TEXT	SEGMENT PARA USE32 PUBLIC 'CODE'
_TEXT	ENDS
;	COMDAT ??1?$CSimpleStringT@D$0A@@ATL@@QAE@XZ
_TEXT	SEGMENT PARA USE32 PUBLIC 'CODE'
_TEXT	ENDS
;	COMDAT ??0?$CStringT@DV?$StrTraitMFC@DV?$ChTraitsCRT@D@ATL@@@@@ATL@@QAE@PBD@Z
_TEXT	SEGMENT PARA USE32 PUBLIC 'CODE'
_TEXT	ENDS
;	COMDAT ??0?$CSimpleStringT@D$0A@@ATL@@QAE@PAUIAtlStringMgr@1@@Z
_TEXT	SEGMENT PARA USE32 PUBLIC 'CODE'
_TEXT	ENDS
;	COMDAT ?GetDefaultManager@?$StrTraitMFC@DV?$ChTraitsCRT@D@ATL@@@@SAPAUIAtlStringMgr@ATL@@XZ
_TEXT	SEGMENT PARA USE32 PUBLIC 'CODE'
_TEXT	ENDS
;	COMDAT ?CheckImplicitLoad@?$CStringT@DV?$StrTraitMFC@DV?$ChTraitsCRT@D@ATL@@@@@ATL@@AAE_NPBX@Z
_TEXT	SEGMENT PARA USE32 PUBLIC 'CODE'
_TEXT	ENDS
;	COMDAT ?LoadStringA@?$CStringT@DV?$StrTraitMFC@DV?$ChTraitsCRT@D@ATL@@@@@ATL@@QAEHI@Z
_TEXT	SEGMENT PARA USE32 PUBLIC 'CODE'
_TEXT	ENDS
;	COMDAT ?FindStringResourceInstance@?$StrTraitMFC@DV?$ChTraitsCRT@D@ATL@@@@SAPAUHINSTANCE__@@I@Z
_TEXT	SEGMENT PARA USE32 PUBLIC 'CODE'
_TEXT	ENDS
;	COMDAT ?LoadStringA@?$CStringT@DV?$StrTraitMFC@DV?$ChTraitsCRT@D@ATL@@@@@ATL@@QAEHPAUHINSTANCE__@@I@Z
_TEXT	SEGMENT PARA USE32 PUBLIC 'CODE'
_TEXT	ENDS
;	COMDAT ?AtlGetStringResourceImage@ATL@@YAPBUATLSTRINGRESOURCEIMAGE@1@PAUHINSTANCE__@@I@Z
_TEXT	SEGMENT PARA USE32 PUBLIC 'CODE'
_TEXT	ENDS
;	COMDAT ?_AtlGetStringResourceImage@ATL@@YAPBUATLSTRINGRESOURCEIMAGE@1@PAUHINSTANCE__@@PAUHRSRC__@@I@Z
_TEXT	SEGMENT PARA USE32 PUBLIC 'CODE'
_TEXT	ENDS
;	COMDAT ?GetBaseTypeLength@?$ChTraitsCRT@D@ATL@@SAHPBGH@Z
_TEXT	SEGMENT PARA USE32 PUBLIC 'CODE'
_TEXT	ENDS
;	COMDAT ?_AtlGetConversionACP@ATL@@YGIXZ
_TEXT	SEGMENT PARA USE32 PUBLIC 'CODE'
_TEXT	ENDS
;	COMDAT ?g_pfnGetThreadACP@ATL@@3P6GIXZA
_DATA	SEGMENT DWORD USE32 PUBLIC 'DATA'
_DATA	ENDS
;	COMDAT ?_AtlGetThreadACPThunk@ATL@@YGIXZ
_TEXT	SEGMENT PARA USE32 PUBLIC 'CODE'
_TEXT	ENDS
;	COMDAT ?_AtlGetThreadACPReal@ATL@@YGIXZ
_TEXT	SEGMENT PARA USE32 PUBLIC 'CODE'
_TEXT	ENDS
;	COMDAT ?_AtlGetThreadACPFake@ATL@@YGIXZ
_TEXT	SEGMENT PARA USE32 PUBLIC 'CODE'
_TEXT	ENDS
;	COMDAT ?InterlockedExchangePointer@@YGPAXPAPAXPAX@Z
_TEXT	SEGMENT PARA USE32 PUBLIC 'CODE'
_TEXT	ENDS
;	COMDAT ?ConvertToBaseType@?$ChTraitsCRT@D@ATL@@SAXPADHPBGH@Z
_TEXT	SEGMENT PARA USE32 PUBLIC 'CODE'
_TEXT	ENDS
;	COMDAT ??4?$CStringT@DV?$StrTraitMFC@DV?$ChTraitsCRT@D@ATL@@@@@ATL@@QAEAAV01@PBD@Z
_TEXT	SEGMENT PARA USE32 PUBLIC 'CODE'
_TEXT	ENDS
;	COMDAT ??4?$CSimpleStringT@D$0A@@ATL@@QAEAAV01@PBD@Z
_TEXT	SEGMENT PARA USE32 PUBLIC 'CODE'
_TEXT	ENDS
;	COMDAT ?SetString@?$CSimpleStringT@D$0A@@ATL@@QAEXPBD@Z
_TEXT	SEGMENT PARA USE32 PUBLIC 'CODE'
_TEXT	ENDS
;	COMDAT ?SetString@?$CSimpleStringT@D$0A@@ATL@@QAEXPBDH@Z
_TEXT	SEGMENT PARA USE32 PUBLIC 'CODE'
_TEXT	ENDS
;	COMDAT ?Empty@?$CSimpleStringT@D$0A@@ATL@@QAEXXZ
_TEXT	SEGMENT PARA USE32 PUBLIC 'CODE'
_TEXT	ENDS
;	COMDAT ?IsLocked@CStringData@ATL@@QBE_NXZ
_TEXT	SEGMENT PARA USE32 PUBLIC 'CODE'
_TEXT	ENDS
;	COMDAT ?CopyCharsOverlapped@?$CSimpleStringT@D$0A@@ATL@@SAXPADPBDH@Z
_TEXT	SEGMENT PARA USE32 PUBLIC 'CODE'
_TEXT	ENDS
;	COMDAT ?StringLength@?$CSimpleStringT@D$0A@@ATL@@SAHPBD@Z
_TEXT	SEGMENT PARA USE32 PUBLIC 'CODE'
_TEXT	ENDS
;	COMDAT ??B?$CSimpleStringT@D$0A@@ATL@@QBEPBDXZ
_TEXT	SEGMENT PARA USE32 PUBLIC 'CODE'
_TEXT	ENDS
;	COMDAT ??5@YAAAVCAr@@AAV0@AAUD3DXVECTOR3@@@Z
_TEXT	SEGMENT PARA USE32 PUBLIC 'CODE'
_TEXT	ENDS
;	COMDAT ??5CAr@@QAEAAV0@AAM@Z
_TEXT	SEGMENT PARA USE32 PUBLIC 'CODE'
_TEXT	ENDS
;	COMDAT ??5CAr@@QAEAAV0@AAJ@Z
_TEXT	SEGMENT PARA USE32 PUBLIC 'CODE'
_TEXT	ENDS
;	COMDAT ?time_null@@YAJXZ
_TEXT	SEGMENT PARA USE32 PUBLIC 'CODE'
_TEXT	ENDS
;	COMDAT ??6CAr@@QAEAAV0@J@Z
_TEXT	SEGMENT PARA USE32 PUBLIC 'CODE'
_TEXT	ENDS
;	COMDAT ??6@YAAAVCAr@@AAV0@UD3DXVECTOR3@@@Z
_TEXT	SEGMENT PARA USE32 PUBLIC 'CODE'
_TEXT	ENDS
;	COMDAT ??6CAr@@QAEAAV0@M@Z
_TEXT	SEGMENT PARA USE32 PUBLIC 'CODE'
_TEXT	ENDS
;	COMDAT ?GetTime@CTime@ATL@@QBE_JXZ
_TEXT	SEGMENT PARA USE32 PUBLIC 'CODE'
_TEXT	ENDS
;	COMDAT ??0CTimeSpan@ATL@@QAE@JHHH@Z
_TEXT	SEGMENT PARA USE32 PUBLIC 'CODE'
_TEXT	ENDS
;	COMDAT ??HCTime@ATL@@QBE?AV01@VCTimeSpan@1@@Z
_TEXT	SEGMENT PARA USE32 PUBLIC 'CODE'
_TEXT	ENDS
;	COMDAT ?GetTimeSpan@CTimeSpan@ATL@@QBE_JXZ
_TEXT	SEGMENT PARA USE32 PUBLIC 'CODE'
_TEXT	ENDS
;	COMDAT ?GetItemProp@CProject@@QAEPAUItemProp@@H@Z
_TEXT	SEGMENT PARA USE32 PUBLIC 'CODE'
_TEXT	ENDS
;	COMDAT ?GetAt@?$CFixedArray@UItemProp@@@@QAEPAUItemProp@@K@Z
_TEXT	SEGMENT PARA USE32 PUBLIC 'CODE'
_TEXT	ENDS
;	COMDAT ??5CAr@@QAEAAV0@AAH@Z
_TEXT	SEGMENT PARA USE32 PUBLIC 'CODE'
_TEXT	ENDS
;	COMDAT ??6CAr@@QAEAAV0@H@Z
_TEXT	SEGMENT PARA USE32 PUBLIC 'CODE'
_TEXT	ENDS
;	COMDAT ??_7CLordSkillComponentExecutable@@6B@
CONST	SEGMENT DWORD USE32 PUBLIC 'CONST'
CONST	ENDS
;	COMDAT ??_7bad_weak_ptr@boost@@6B@
CONST	SEGMENT DWORD USE32 PUBLIC 'CONST'
CONST	ENDS
;	COMDAT ??_7sp_counted_base@detail@boost@@6B@
CONST	SEGMENT DWORD USE32 PUBLIC 'CONST'
CONST	ENDS
;	COMDAT ??5CAr@@QAEAAV0@AAK@Z
_TEXT	SEGMENT PARA USE32 PUBLIC 'CODE'
_TEXT	ENDS
;	COMDAT ??6CAr@@QAEAAV0@K@Z
_TEXT	SEGMENT PARA USE32 PUBLIC 'CODE'
_TEXT	ENDS
;	COMDAT ?IsStoring@CAr@@QBEHXZ
_TEXT	SEGMENT PARA USE32 PUBLIC 'CODE'
_TEXT	ENDS
;	COMDAT ?Leave@CMclCritSec@@QAEXXZ
_TEXT	SEGMENT PARA USE32 PUBLIC 'CODE'
_TEXT	ENDS
;	COMDAT ?Enter@CMclCritSec@@QAEXXZ
_TEXT	SEGMENT PARA USE32 PUBLIC 'CODE'
_TEXT	ENDS
;	COMDAT ?GetTickCount@CTime@ATL@@SG?AV12@XZ
_TEXT	SEGMENT PARA USE32 PUBLIC 'CODE'
_TEXT	ENDS
;	COMDAT ??0CTime@ATL@@QAE@XZ
_TEXT	SEGMENT PARA USE32 PUBLIC 'CODE'
_TEXT	ENDS
;	COMDAT ??1CMclCritSec@@UAE@XZ
_TEXT	SEGMENT PARA USE32 PUBLIC 'CODE'
_TEXT	ENDS
;	COMDAT ??_7CMclCritSec@@6B@
CONST	SEGMENT DWORD USE32 PUBLIC 'CONST'
CONST	ENDS
;	COMDAT ??_GCMclCritSec@@UAEPAXI@Z
_TEXT	SEGMENT PARA USE32 PUBLIC 'CODE'
_TEXT	ENDS
;	COMDAT ??0CMclCritSec@@QAE@XZ
_TEXT	SEGMENT PARA USE32 PUBLIC 'CODE'
_TEXT	ENDS
;	COMDAT ??0D3DXVECTOR3@@QAE@MMM@Z
_TEXT	SEGMENT PARA USE32 PUBLIC 'CODE'
_TEXT	ENDS
;	COMDAT ??0D3DXVECTOR3@@QAE@XZ
_TEXT	SEGMENT PARA USE32 PUBLIC 'CODE'
_TEXT	ENDS
sxdata	SEGMENT DWORD USE32 'SXDATA'
sxdata	ENDS
FLAT	GROUP _DATA, CONST, _BSS
	ASSUME	CS: FLAT, DS: FLAT, SS: FLAT
endif

INCLUDELIB LIBCMT
INCLUDELIB OLDNAMES

PUBLIC	?g_pfnGetThreadACP@ATL@@3P6GIXZA		; ATL::g_pfnGetThreadACP
PUBLIC	?_AtlGetThreadACPThunk@ATL@@YGIXZ		; ATL::_AtlGetThreadACPThunk
;	COMDAT ?g_pfnGetThreadACP@ATL@@3P6GIXZA
_DATA	SEGMENT
?g_pfnGetThreadACP@ATL@@3P6GIXZA DD FLAT:?_AtlGetThreadACPThunk@ATL@@YGIXZ ; ATL::g_pfnGetThreadACP
_DATA	ENDS
PUBLIC	__tcsncpy
EXTRN	__mbsnbcpy:NEAR
; Function compile flags: /Ogty
; File c:\program files\microsoft visual studio .net 2003\vc7\include\tchar.h
;	COMDAT __tcsncpy
_TEXT	SEGMENT
__s1$ = 8						; size = 4
__s2$ = 12						; size = 4
__n$ = 16						; size = 4
__tcsncpy PROC NEAR					; COMDAT

; 843  : __inline _PC _tcsncpy(_PC _s1,_CPC _s2,size_t _n) {return (_PC)_mbsnbcpy((_PUC)_s1,(_CPUC)_s2,_n);}

  00000	e9 00 00 00 00	 jmp	 __mbsnbcpy
__tcsncpy ENDP
_TEXT	ENDS
PUBLIC	?InterlockedExchangePointer@@YGPAXPAPAXPAX@Z	; InterlockedExchangePointer
EXTRN	__imp__InterlockedExchange@8:NEAR
; Function compile flags: /Ogty
; File c:\program files\microsoft visual studio .net 2003\vc7\atlmfc\include\atlconv.h
;	COMDAT ?InterlockedExchangePointer@@YGPAXPAPAXPAX@Z
_TEXT	SEGMENT
_pp$ = 8						; size = 4
_pNew$ = 12						; size = 4
?InterlockedExchangePointer@@YGPAXPAPAXPAX@Z PROC NEAR	; InterlockedExchangePointer, COMDAT

; 92   : 	return( reinterpret_cast<void*>(static_cast<LONG_PTR>(::InterlockedExchange(reinterpret_cast<LONG*>(pp), static_cast<LONG>(reinterpret_cast<LONG_PTR>(pNew))))) );

  00000	ff 25 00 00 00
	00		 jmp	 DWORD PTR __imp__InterlockedExchange@8
?InterlockedExchangePointer@@YGPAXPAPAXPAX@Z ENDP	; InterlockedExchangePointer
_TEXT	ENDS
PUBLIC	?_AtlGetThreadACPFake@ATL@@YGIXZ		; ATL::_AtlGetThreadACPFake
EXTRN	__imp__GetThreadLocale@0:NEAR
EXTRN	___security_cookie:DWORD
EXTRN	@__security_check_cookie@4:NEAR
EXTRN	__imp__GetACP@0:NEAR
EXTRN	__imp__GetLocaleInfoA@16:NEAR
; Function compile flags: /Ogty
;	COMDAT ?_AtlGetThreadACPFake@ATL@@YGIXZ
_TEXT	SEGMENT
_szACP$ = -12						; size = 7
__$ArrayPad$ = -4					; size = 4
__$ReturnAddr$ = 4					; size = 4
?_AtlGetThreadACPFake@ATL@@YGIXZ PROC NEAR		; ATL::_AtlGetThreadACPFake, COMDAT

; 101  : {

  00000	83 ec 0c	 sub	 esp, 12			; 0000000cH
  00003	a1 00 00 00 00	 mov	 eax, DWORD PTR ___security_cookie
  00008	33 c4		 xor	 eax, esp
  0000a	56		 push	 esi
  0000b	89 44 24 0c	 mov	 DWORD PTR __$ArrayPad$[esp+16], eax

; 102  : 	UINT nACP = 0;

  0000f	33 f6		 xor	 esi, esi

; 103  : 
; 104  : 	LCID lcidThread = ::GetThreadLocale();

  00011	ff 15 00 00 00
	00		 call	 DWORD PTR __imp__GetThreadLocale@0

; 105  : 
; 106  : 	char szACP[7];
; 107  : 	// GetLocaleInfoA will fail for a Unicode-only LCID, but those are only supported on 
; 108  : 	// Windows 2000.  Since Windows 2000 supports CP_THREAD_ACP, this code path is never
; 109  : 	// executed on Windows 2000.
; 110  : 	if (::GetLocaleInfoA(lcidThread, LOCALE_IDEFAULTANSICODEPAGE, szACP, 7) != 0)

  00017	6a 07		 push	 7
  00019	8d 4c 24 08	 lea	 ecx, DWORD PTR _szACP$[esp+20]
  0001d	51		 push	 ecx
  0001e	68 04 10 00 00	 push	 4100			; 00001004H
  00023	50		 push	 eax
  00024	ff 15 00 00 00
	00		 call	 DWORD PTR __imp__GetLocaleInfoA@16
  0002a	85 c0		 test	 eax, eax
  0002c	74 27		 je	 SHORT $L210576

; 111  : 	{
; 112  : 		char* pch = szACP;
; 113  : 		while (*pch != '\0')

  0002e	8a 44 24 04	 mov	 al, BYTE PTR _szACP$[esp+16]
  00032	84 c0		 test	 al, al
  00034	8d 4c 24 04	 lea	 ecx, DWORD PTR _szACP$[esp+16]
  00038	74 1b		 je	 SHORT $L210576
  0003a	8d 9b 00 00 00
	00		 npad	 6
$L38554:

; 114  : 		{
; 115  : 			nACP *= 10;
; 116  : 			nACP += *pch++ - '0';

  00040	0f be c0	 movsx	 eax, al
  00043	8d 14 b6	 lea	 edx, DWORD PTR [esi+esi*4]
  00046	41		 inc	 ecx
  00047	8d 74 50 d0	 lea	 esi, DWORD PTR [eax+edx*2-48]
  0004b	8a 01		 mov	 al, BYTE PTR [ecx]
  0004d	84 c0		 test	 al, al
  0004f	75 ef		 jne	 SHORT $L38554

; 117  : 		}
; 118  : 	}
; 119  : 	// Use the Default ANSI Code Page if we were unable to get the thread ACP or if one does not exist.
; 120  : 	if (nACP == 0)

  00051	85 f6		 test	 esi, esi
  00053	75 16		 jne	 SHORT $L210577
$L210576:

; 121  : 		nACP = ::GetACP();

  00055	ff 15 00 00 00
	00		 call	 DWORD PTR __imp__GetACP@0
  0005b	5e		 pop	 esi

; 122  : 
; 123  : 	return nACP;
; 124  : }

  0005c	8b 4c 24 08	 mov	 ecx, DWORD PTR __$ArrayPad$[esp+12]
  00060	33 cc		 xor	 ecx, esp
  00062	e8 00 00 00 00	 call	 @__security_check_cookie@4
  00067	83 c4 0c	 add	 esp, 12			; 0000000cH
  0006a	c3		 ret	 0
$L210577:
  0006b	8b 4c 24 0c	 mov	 ecx, DWORD PTR __$ArrayPad$[esp+16]
  0006f	8b c6		 mov	 eax, esi
  00071	5e		 pop	 esi
  00072	33 cc		 xor	 ecx, esp
  00074	e8 00 00 00 00	 call	 @__security_check_cookie@4
  00079	83 c4 0c	 add	 esp, 12			; 0000000cH
  0007c	c3		 ret	 0
?_AtlGetThreadACPFake@ATL@@YGIXZ ENDP			; ATL::_AtlGetThreadACPFake
_TEXT	ENDS
PUBLIC	?_AtlGetThreadACPReal@ATL@@YGIXZ		; ATL::_AtlGetThreadACPReal
; Function compile flags: /Ogty
;	COMDAT ?_AtlGetThreadACPReal@ATL@@YGIXZ
_TEXT	SEGMENT
?_AtlGetThreadACPReal@ATL@@YGIXZ PROC NEAR		; ATL::_AtlGetThreadACPReal, COMDAT

; 128  : 	return( CP_THREAD_ACP );

  00000	b8 03 00 00 00	 mov	 eax, 3

; 129  : }

  00005	c3		 ret	 0
?_AtlGetThreadACPReal@ATL@@YGIXZ ENDP			; ATL::_AtlGetThreadACPReal
_TEXT	ENDS
EXTRN	__imp__GetVersionExA@4:NEAR
; Function compile flags: /Ogty
;	COMDAT ?_AtlGetThreadACPThunk@ATL@@YGIXZ
_TEXT	SEGMENT
_ver$ = -152						; size = 148
__$ArrayPad$ = -4					; size = 4
__$ReturnAddr$ = 4					; size = 4
?_AtlGetThreadACPThunk@ATL@@YGIXZ PROC NEAR		; ATL::_AtlGetThreadACPThunk, COMDAT

; 134  : {

  00000	81 ec 98 00 00
	00		 sub	 esp, 152		; 00000098H
  00006	a1 00 00 00 00	 mov	 eax, DWORD PTR ___security_cookie
  0000b	33 c4		 xor	 eax, esp
  0000d	89 84 24 94 00
	00 00		 mov	 DWORD PTR __$ArrayPad$[esp+152], eax

; 135  : 	OSVERSIONINFO ver;
; 136  : 	ATLGETTHREADACP pfnGetThreadACP;
; 137  : 
; 138  : 	ver.dwOSVersionInfoSize = sizeof( ver );
; 139  : 	::GetVersionEx( &ver );

  00014	8d 04 24	 lea	 eax, DWORD PTR _ver$[esp+152]
  00017	50		 push	 eax
  00018	c7 44 24 04 94
	00 00 00	 mov	 DWORD PTR _ver$[esp+156], 148 ; 00000094H
  00020	ff 15 00 00 00
	00		 call	 DWORD PTR __imp__GetVersionExA@4

; 140  : 	if( (ver.dwPlatformId == VER_PLATFORM_WIN32_NT) && (ver.dwMajorVersion >= 5) )

  00026	83 7c 24 10 02	 cmp	 DWORD PTR _ver$[esp+168], 2
  0002b	75 0c		 jne	 SHORT $L38564
  0002d	83 7c 24 04 05	 cmp	 DWORD PTR _ver$[esp+156], 5

; 141  : 	{
; 142  : 		// On Win2K, CP_THREAD_ACP is supported
; 143  : 		pfnGetThreadACP = _AtlGetThreadACPReal;

  00032	b8 00 00 00 00	 mov	 eax, OFFSET FLAT:?_AtlGetThreadACPReal@ATL@@YGIXZ ; ATL::_AtlGetThreadACPReal
  00037	73 05		 jae	 SHORT $L38565
$L38564:

; 144  : 	}
; 145  : 	else
; 146  : 	{
; 147  : 		pfnGetThreadACP = _AtlGetThreadACPFake;

  00039	b8 00 00 00 00	 mov	 eax, OFFSET FLAT:?_AtlGetThreadACPFake@ATL@@YGIXZ ; ATL::_AtlGetThreadACPFake
$L38565:

; 148  : 	}
; 149  : 	InterlockedExchangePointer( reinterpret_cast< void** >(&g_pfnGetThreadACP), pfnGetThreadACP );

  0003e	50		 push	 eax
  0003f	68 00 00 00 00	 push	 OFFSET FLAT:?g_pfnGetThreadACP@ATL@@3P6GIXZA ; ATL::g_pfnGetThreadACP
  00044	ff 15 00 00 00
	00		 call	 DWORD PTR __imp__InterlockedExchange@8

; 150  : 
; 151  : 	return( g_pfnGetThreadACP() );

  0004a	ff 15 00 00 00
	00		 call	 DWORD PTR ?g_pfnGetThreadACP@ATL@@3P6GIXZA ; ATL::g_pfnGetThreadACP

; 152  : }

  00050	8b 8c 24 94 00
	00 00		 mov	 ecx, DWORD PTR __$ArrayPad$[esp+152]
  00057	33 cc		 xor	 ecx, esp
  00059	e8 00 00 00 00	 call	 @__security_check_cookie@4
  0005e	81 c4 98 00 00
	00		 add	 esp, 152		; 00000098H
  00064	c3		 ret	 0
?_AtlGetThreadACPThunk@ATL@@YGIXZ ENDP			; ATL::_AtlGetThreadACPThunk
_TEXT	ENDS
PUBLIC	?_AtlGetConversionACP@ATL@@YGIXZ		; ATL::_AtlGetConversionACP
; Function compile flags: /Ogty
;	COMDAT ?_AtlGetConversionACP@ATL@@YGIXZ
_TEXT	SEGMENT
?_AtlGetConversionACP@ATL@@YGIXZ PROC NEAR		; ATL::_AtlGetConversionACP, COMDAT

; 158  : 	return( g_pfnGetThreadACP() );

  00000	ff 25 00 00 00
	00		 jmp	 DWORD PTR ?g_pfnGetThreadACP@ATL@@3P6GIXZA ; ATL::g_pfnGetThreadACP
?_AtlGetConversionACP@ATL@@YGIXZ ENDP			; ATL::_AtlGetConversionACP
_TEXT	ENDS
PUBLIC	?AtlThrow@ATL@@YGXJ@Z				; ATL::AtlThrow
EXTRN	?AfxThrowMemoryException@@YGXXZ:NEAR		; AfxThrowMemoryException
EXTRN	?AfxThrowOleException@@YGXJ@Z:NEAR		; AfxThrowOleException
; Function compile flags: /Ogty
; File c:\program files\microsoft visual studio .net 2003\vc7\atlmfc\include\atlexcept.h
;	COMDAT ?AtlThrow@ATL@@YGXJ@Z
_TEXT	SEGMENT
_hr$ = 8						; size = 4
?AtlThrow@ATL@@YGXJ@Z PROC NEAR				; ATL::AtlThrow, COMDAT

; 62   : 	ATLTRACE(atlTraceException, 0, _T("AtlThrow: hr = 0x%x\n"), hr );
; 63   : #ifdef _AFX
; 64   : 	if( hr == E_OUTOFMEMORY )

  00000	8b 44 24 04	 mov	 eax, DWORD PTR _hr$[esp-4]
  00004	3d 0e 00 07 80	 cmp	 eax, -2147024882	; 8007000eH
  00009	75 05		 jne	 SHORT $L39166

; 65   : 	{
; 66   : 		AfxThrowMemoryException();

  0000b	e8 00 00 00 00	 call	 ?AfxThrowMemoryException@@YGXXZ ; AfxThrowMemoryException
$L39166:

; 67   : 	}
; 68   : 	else
; 69   : 	{
; 70   : 		AfxThrowOleException( hr );

  00010	50		 push	 eax
  00011	e8 00 00 00 00	 call	 ?AfxThrowOleException@@YGXJ@Z ; AfxThrowOleException
$L210595:
  00016	cc		 int	 3
?AtlThrow@ATL@@YGXJ@Z ENDP				; ATL::AtlThrow
_TEXT	ENDS
PUBLIC	?_AtlGetStringResourceImage@ATL@@YAPBUATLSTRINGRESOURCEIMAGE@1@PAUHINSTANCE__@@PAUHRSRC__@@I@Z ; ATL::_AtlGetStringResourceImage
EXTRN	__imp__LoadResource@8:NEAR
EXTRN	__imp__SizeofResource@8:NEAR
EXTRN	__imp__LockResource@4:NEAR
; Function compile flags: /Ogty
; File c:\program files\microsoft visual studio .net 2003\vc7\atlmfc\include\atlcore.h
;	COMDAT ?_AtlGetStringResourceImage@ATL@@YAPBUATLSTRINGRESOURCEIMAGE@1@PAUHINSTANCE__@@PAUHRSRC__@@I@Z
_TEXT	SEGMENT
_hInstance$ = 8						; size = 4
_hResource$ = 12					; size = 4
_id$ = 16						; size = 4
?_AtlGetStringResourceImage@ATL@@YAPBUATLSTRINGRESOURCEIMAGE@1@PAUHINSTANCE__@@PAUHRSRC__@@I@Z PROC NEAR ; ATL::_AtlGetStringResourceImage, COMDAT

; 239  : {

  00000	53		 push	 ebx

; 240  : 	const ATLSTRINGRESOURCEIMAGE* pImage;
; 241  : 	const ATLSTRINGRESOURCEIMAGE* pImageEnd;
; 242  : 	ULONG nResourceSize;
; 243  : 	HGLOBAL hGlobal;
; 244  : 	UINT iIndex;
; 245  : 
; 246  : 	hGlobal = ::LoadResource( hInstance, hResource );

  00001	8b 5c 24 08	 mov	 ebx, DWORD PTR _hInstance$[esp]
  00005	57		 push	 edi
  00006	8b 7c 24 10	 mov	 edi, DWORD PTR _hResource$[esp+4]
  0000a	57		 push	 edi
  0000b	53		 push	 ebx
  0000c	ff 15 00 00 00
	00		 call	 DWORD PTR __imp__LoadResource@8

; 247  : 	if( hGlobal == NULL )

  00012	85 c0		 test	 eax, eax
  00014	75 03		 jne	 SHORT $L39520
  00016	5f		 pop	 edi
  00017	5b		 pop	 ebx

; 272  : 	{
; 273  : 		return( NULL );
; 274  : 	}
; 275  : 
; 276  : 	return( pImage );
; 277  : }

  00018	c3		 ret	 0
$L39520:
  00019	56		 push	 esi

; 248  : 	{
; 249  : 		return( NULL );
; 250  : 	}
; 251  : 
; 252  : 	pImage = (const ATLSTRINGRESOURCEIMAGE*)::LockResource( hGlobal );

  0001a	50		 push	 eax
  0001b	ff 15 00 00 00
	00		 call	 DWORD PTR __imp__LockResource@4
  00021	8b f0		 mov	 esi, eax

; 253  : 	if( pImage == NULL )

  00023	85 f6		 test	 esi, esi
  00025	75 06		 jne	 SHORT $L39522
$L210600:
  00027	5e		 pop	 esi
  00028	5f		 pop	 edi

; 254  : 	{
; 255  : 		return( NULL );

  00029	33 c0		 xor	 eax, eax
  0002b	5b		 pop	 ebx

; 272  : 	{
; 273  : 		return( NULL );
; 274  : 	}
; 275  : 
; 276  : 	return( pImage );
; 277  : }

  0002c	c3		 ret	 0
$L39522:

; 256  : 	}
; 257  : 
; 258  : 	nResourceSize = ::SizeofResource( hInstance, hResource );

  0002d	57		 push	 edi
  0002e	53		 push	 ebx
  0002f	ff 15 00 00 00
	00		 call	 DWORD PTR __imp__SizeofResource@8

; 259  : 	pImageEnd = (const ATLSTRINGRESOURCEIMAGE*)(LPBYTE( pImage )+nResourceSize);
; 260  : 	iIndex = id&0x000f;

  00035	8b 4c 24 18	 mov	 ecx, DWORD PTR _id$[esp+8]
  00039	03 c6		 add	 eax, esi
  0003b	83 e1 0f	 and	 ecx, 15			; 0000000fH

; 261  : 
; 262  : 	while( (iIndex > 0) && (pImage < pImageEnd) )

  0003e	76 0e		 jbe	 SHORT $L39526
$L39525:
  00040	3b f0		 cmp	 esi, eax
  00042	73 e3		 jae	 SHORT $L210600

; 263  : 	{
; 264  : 		pImage = (const ATLSTRINGRESOURCEIMAGE*)(LPBYTE( pImage )+(sizeof( ATLSTRINGRESOURCEIMAGE )+(pImage->nLength*sizeof( WCHAR ))));
; 265  : 		iIndex--;

  00044	49		 dec	 ecx
  00045	0f b7 16	 movzx	 edx, WORD PTR [esi]
  00048	8d 74 56 02	 lea	 esi, DWORD PTR [esi+edx*2+2]
  0004c	75 f2		 jne	 SHORT $L39525
$L39526:

; 266  : 	}
; 267  : 	if( pImage >= pImageEnd )

  0004e	3b f0		 cmp	 esi, eax

; 268  : 	{
; 269  : 		return( NULL );

  00050	73 d5		 jae	 SHORT $L210600

; 270  : 	}
; 271  : 	if( pImage->nLength == 0 )

  00052	66 8b 06	 mov	 ax, WORD PTR [esi]
  00055	66 f7 d8	 neg	 ax
  00058	1b c0		 sbb	 eax, eax
  0005a	23 c6		 and	 eax, esi
  0005c	5e		 pop	 esi
  0005d	5f		 pop	 edi
  0005e	5b		 pop	 ebx

; 272  : 	{
; 273  : 		return( NULL );
; 274  : 	}
; 275  : 
; 276  : 	return( pImage );
; 277  : }

  0005f	c3		 ret	 0
?_AtlGetStringResourceImage@ATL@@YAPBUATLSTRINGRESOURCEIMAGE@1@PAUHINSTANCE__@@PAUHRSRC__@@I@Z ENDP ; ATL::_AtlGetStringResourceImage
_TEXT	ENDS
PUBLIC	?AtlGetStringResourceImage@ATL@@YAPBUATLSTRINGRESOURCEIMAGE@1@PAUHINSTANCE__@@I@Z ; ATL::AtlGetStringResourceImage
EXTRN	__imp__FindResourceA@12:NEAR
; Function compile flags: /Ogty
;	COMDAT ?AtlGetStringResourceImage@ATL@@YAPBUATLSTRINGRESOURCEIMAGE@1@PAUHINSTANCE__@@I@Z
_TEXT	SEGMENT
_hInstance$ = 8						; size = 4
_id$ = 12						; size = 4
?AtlGetStringResourceImage@ATL@@YAPBUATLSTRINGRESOURCEIMAGE@1@PAUHINSTANCE__@@I@Z PROC NEAR ; ATL::AtlGetStringResourceImage, COMDAT

; 280  : {

  00000	56		 push	 esi

; 281  : 	HRSRC hResource;
; 282  : 
; 283  : 	hResource = ::FindResource( hInstance, MAKEINTRESOURCE( ((id>>4)+1) ), RT_STRING );

  00001	8b 74 24 0c	 mov	 esi, DWORD PTR _id$[esp]
  00005	8b c6		 mov	 eax, esi
  00007	c1 e8 04	 shr	 eax, 4
  0000a	57		 push	 edi
  0000b	8b 7c 24 0c	 mov	 edi, DWORD PTR _hInstance$[esp+4]
  0000f	40		 inc	 eax
  00010	0f b7 c8	 movzx	 ecx, ax
  00013	6a 06		 push	 6
  00015	51		 push	 ecx
  00016	57		 push	 edi
  00017	ff 15 00 00 00
	00		 call	 DWORD PTR __imp__FindResourceA@12

; 284  : 	if( hResource == NULL )

  0001d	85 c0		 test	 eax, eax
  0001f	75 03		 jne	 SHORT $L39543
  00021	5f		 pop	 edi
  00022	5e		 pop	 esi

; 290  : }

  00023	c3		 ret	 0
$L39543:

; 285  : 	{
; 286  : 		return( NULL );
; 287  : 	}
; 288  : 
; 289  : 	return _AtlGetStringResourceImage( hInstance, hResource, id );

  00024	56		 push	 esi
  00025	50		 push	 eax
  00026	57		 push	 edi
  00027	e8 00 00 00 00	 call	 ?_AtlGetStringResourceImage@ATL@@YAPBUATLSTRINGRESOURCEIMAGE@1@PAUHINSTANCE__@@PAUHRSRC__@@I@Z ; ATL::_AtlGetStringResourceImage
  0002c	83 c4 0c	 add	 esp, 12			; 0000000cH
  0002f	5f		 pop	 edi
  00030	5e		 pop	 esi

; 290  : }

  00031	c3		 ret	 0
?AtlGetStringResourceImage@ATL@@YAPBUATLSTRINGRESOURCEIMAGE@1@PAUHINSTANCE__@@I@Z ENDP ; ATL::AtlGetStringResourceImage
_TEXT	ENDS
PUBLIC	?data@CStringData@ATL@@QAEPAXXZ			; ATL::CStringData::data
; Function compile flags: /Ogty
; File c:\program files\microsoft visual studio .net 2003\vc7\atlmfc\include\atlsimpstr.h
;	COMDAT ?data@CStringData@ATL@@QAEPAXXZ
_TEXT	SEGMENT
?data@CStringData@ATL@@QAEPAXXZ PROC NEAR		; ATL::CStringData::data, COMDAT
; _this$ = ecx

; 66   : 		return (this+1);

  00000	8d 41 10	 lea	 eax, DWORD PTR [ecx+16]

; 67   : 	}

  00003	c3		 ret	 0
?data@CStringData@ATL@@QAEPAXXZ ENDP			; ATL::CStringData::data
_TEXT	ENDS
PUBLIC	?IsLocked@CStringData@ATL@@QBE_NXZ		; ATL::CStringData::IsLocked
; Function compile flags: /Ogty
;	COMDAT ?IsLocked@CStringData@ATL@@QBE_NXZ
_TEXT	SEGMENT
?IsLocked@CStringData@ATL@@QBE_NXZ PROC NEAR		; ATL::CStringData::IsLocked, COMDAT
; _this$ = ecx

; 76   : 		return nRefs < 0;

  00000	8b 51 0c	 mov	 edx, DWORD PTR [ecx+12]
  00003	33 c0		 xor	 eax, eax
  00005	85 d2		 test	 edx, edx
  00007	0f 9c c0	 setl	 al

; 77   : 	}

  0000a	c3		 ret	 0
?IsLocked@CStringData@ATL@@QBE_NXZ ENDP			; ATL::CStringData::IsLocked
_TEXT	ENDS
PUBLIC	?IsShared@CStringData@ATL@@QBE_NXZ		; ATL::CStringData::IsShared
; Function compile flags: /Ogty
;	COMDAT ?IsShared@CStringData@ATL@@QBE_NXZ
_TEXT	SEGMENT
?IsShared@CStringData@ATL@@QBE_NXZ PROC NEAR		; ATL::CStringData::IsShared, COMDAT
; _this$ = ecx

; 80   : 		return( nRefs > 1 ); 

  00000	8b 51 0c	 mov	 edx, DWORD PTR [ecx+12]
  00003	33 c0		 xor	 eax, eax
  00005	83 fa 01	 cmp	 edx, 1
  00008	0f 9f c0	 setg	 al

; 81   : 	}

  0000b	c3		 ret	 0
?IsShared@CStringData@ATL@@QBE_NXZ ENDP			; ATL::CStringData::IsShared
_TEXT	ENDS
PUBLIC	?Release@CStringData@ATL@@QAEXXZ		; ATL::CStringData::Release
; Function compile flags: /Ogty
;	COMDAT ?Release@CStringData@ATL@@QAEXXZ
_TEXT	SEGMENT
?Release@CStringData@ATL@@QAEXXZ PROC NEAR		; ATL::CStringData::Release, COMDAT
; _this$ = ecx

; 93   : 		ATLASSERT( nRefs != 0 );
; 94   : 
; 95   : 		if( _InterlockedDecrement( &nRefs ) <= 0 )

  00000	8d 41 0c	 lea	 eax, DWORD PTR [ecx+12]
  00003	83 ca ff	 or	 edx, -1
  00006	f0 0f c1 10	 lock	  xadd	 DWORD PTR [eax], edx
  0000a	4a		 dec	 edx
  0000b	85 d2		 test	 edx, edx
  0000d	7f 0a		 jg	 SHORT $L39883

; 96   : 		{
; 97   : 			pStringMgr->Free( this );

  0000f	8b 01		 mov	 eax, DWORD PTR [ecx]
  00011	8b 10		 mov	 edx, DWORD PTR [eax]
  00013	51		 push	 ecx
  00014	8b c8		 mov	 ecx, eax
  00016	ff 52 04	 call	 DWORD PTR [edx+4]
$L39883:

; 98   : 		}
; 99   : 	}

  00019	c3		 ret	 0
?Release@CStringData@ATL@@QAEXXZ ENDP			; ATL::CStringData::Release
_TEXT	ENDS
PUBLIC	??0CTime@ATL@@QAE@_J@Z				; ATL::CTime::CTime
; Function compile flags: /Ogty
; File c:\program files\microsoft visual studio .net 2003\vc7\atlmfc\include\atltime.inl
;	COMDAT ??0CTime@ATL@@QAE@_J@Z
_TEXT	SEGMENT
_time$ = 8						; size = 8
??0CTime@ATL@@QAE@_J@Z PROC NEAR			; ATL::CTime::CTime, COMDAT
; _this$ = ecx

; 167  : {

  00000	8b 54 24 08	 mov	 edx, DWORD PTR _time$[esp]
  00004	8b c1		 mov	 eax, ecx
  00006	8b 4c 24 04	 mov	 ecx, DWORD PTR _time$[esp-4]
  0000a	89 08		 mov	 DWORD PTR [eax], ecx
  0000c	89 50 04	 mov	 DWORD PTR [eax+4], edx

; 168  : }

  0000f	c2 08 00	 ret	 8
??0CTime@ATL@@QAE@_J@Z ENDP				; ATL::CTime::CTime
_TEXT	ENDS
PUBLIC	??0CTime@ATL@@QAE@HHHHHHH@Z			; ATL::CTime::CTime
EXTRN	__mktime64:NEAR
; Function compile flags: /Ogty
;	COMDAT ??0CTime@ATL@@QAE@HHHHHHH@Z
_TEXT	SEGMENT
_atm$ = -36						; size = 36
_nYear$ = 8						; size = 4
_nMonth$ = 12						; size = 4
_nDay$ = 16						; size = 4
_nHour$ = 20						; size = 4
_nMin$ = 24						; size = 4
_nSec$ = 28						; size = 4
_nDST$ = 32						; size = 4
??0CTime@ATL@@QAE@HHHHHHH@Z PROC NEAR			; ATL::CTime::CTime, COMDAT
; _this$ = ecx

; 172  : {

  00000	83 ec 24	 sub	 esp, 36			; 00000024H

; 173  : 	struct tm atm;
; 174  : 	atm.tm_sec = nSec;

  00003	8b 44 24 3c	 mov	 eax, DWORD PTR _nSec$[esp+32]

; 175  : 	atm.tm_min = nMin;
; 176  : 	atm.tm_hour = nHour;

  00007	8b 54 24 34	 mov	 edx, DWORD PTR _nHour$[esp+32]
  0000b	56		 push	 esi
  0000c	8b f1		 mov	 esi, ecx
  0000e	8b 4c 24 3c	 mov	 ecx, DWORD PTR _nMin$[esp+36]
  00012	89 4c 24 08	 mov	 DWORD PTR _atm$[esp+44], ecx

; 177  : 	ATLASSERT(nDay >= 1 && nDay <= 31);
; 178  : 	atm.tm_mday = nDay;
; 179  : 	ATLASSERT(nMonth >= 1 && nMonth <= 12);
; 180  : 	atm.tm_mon = nMonth - 1;        // tm_mon is 0 based

  00016	8b 4c 24 30	 mov	 ecx, DWORD PTR _nMonth$[esp+36]
  0001a	89 44 24 04	 mov	 DWORD PTR _atm$[esp+40], eax
  0001e	8b 44 24 34	 mov	 eax, DWORD PTR _nDay$[esp+36]
  00022	49		 dec	 ecx
  00023	89 54 24 0c	 mov	 DWORD PTR _atm$[esp+48], edx

; 181  : 	ATLASSERT(nYear >= 1900);
; 182  : 	atm.tm_year = nYear - 1900;     // tm_year is 1900 based

  00027	8b 54 24 2c	 mov	 edx, DWORD PTR _nYear$[esp+36]
  0002b	89 4c 24 14	 mov	 DWORD PTR _atm$[esp+56], ecx
  0002f	89 44 24 10	 mov	 DWORD PTR _atm$[esp+52], eax

; 183  : 	atm.tm_isdst = nDST;

  00033	8b 44 24 44	 mov	 eax, DWORD PTR _nDST$[esp+36]

; 184  : 	m_time = _mktime64(&atm);

  00037	8d 4c 24 04	 lea	 ecx, DWORD PTR _atm$[esp+40]
  0003b	81 c2 94 f8 ff
	ff		 add	 edx, -1900		; fffff894H
  00041	51		 push	 ecx
  00042	89 54 24 1c	 mov	 DWORD PTR _atm$[esp+64], edx
  00046	89 44 24 28	 mov	 DWORD PTR _atm$[esp+76], eax
  0004a	e8 00 00 00 00	 call	 __mktime64
  0004f	89 56 04	 mov	 DWORD PTR [esi+4], edx

; 185  : 	ATLASSERT(m_time != -1);       // indicates an illegal input time
; 186  : 	
; 187  : 	if(m_time == -1)

  00052	8b 4e 04	 mov	 ecx, DWORD PTR [esi+4]
  00055	8b d0		 mov	 edx, eax
  00057	23 d1		 and	 edx, ecx
  00059	83 c4 04	 add	 esp, 4
  0005c	83 fa ff	 cmp	 edx, -1
  0005f	89 06		 mov	 DWORD PTR [esi], eax
  00061	75 0a		 jne	 SHORT $L42610

; 188  : 		AtlThrow(E_INVALIDARG);

  00063	68 57 00 07 80	 push	 -2147024809		; 80070057H
  00068	e8 00 00 00 00	 call	 ?AtlThrow@ATL@@YGXJ@Z	; ATL::AtlThrow
$L42610:

; 189  : }

  0006d	8b c6		 mov	 eax, esi
  0006f	5e		 pop	 esi
  00070	83 c4 24	 add	 esp, 36			; 00000024H
  00073	c2 1c 00	 ret	 28			; 0000001cH
$L210616:
??0CTime@ATL@@QAE@HHHHHHH@Z ENDP			; ATL::CTime::CTime
_TEXT	ENDS
PUBLIC	??0CTime@ATL@@QAE@ABU_SYSTEMTIME@@H@Z		; ATL::CTime::CTime
; Function compile flags: /Ogty
;	COMDAT ??0CTime@ATL@@QAE@ABU_SYSTEMTIME@@H@Z
_TEXT	SEGMENT
_timeT$42637 = -8					; size = 8
_sysTime$ = 8						; size = 4
_nDST$ = 12						; size = 4
??0CTime@ATL@@QAE@ABU_SYSTEMTIME@@H@Z PROC NEAR		; ATL::CTime::CTime, COMDAT
; _this$ = ecx

; 212  : 	if (sysTime.wYear < 1900)

  00000	8b 44 24 04	 mov	 eax, DWORD PTR _sysTime$[esp-4]
  00004	83 ec 08	 sub	 esp, 8
  00007	56		 push	 esi
  00008	8b f1		 mov	 esi, ecx
  0000a	66 8b 08	 mov	 cx, WORD PTR [eax]
  0000d	66 81 f9 6c 07	 cmp	 cx, 1900		; 0000076cH
  00012	73 16		 jae	 SHORT $L42627

; 213  : 	{
; 214  : 		__time64_t time0 = 0L;
; 215  : 		CTime timeT(time0);
; 216  : 		*this = timeT;

  00014	c7 06 00 00 00
	00		 mov	 DWORD PTR [esi], 0
  0001a	c7 46 04 00 00
	00 00		 mov	 DWORD PTR [esi+4], 0

; 225  : 	}
; 226  : }

  00021	8b c6		 mov	 eax, esi
  00023	5e		 pop	 esi
  00024	83 c4 08	 add	 esp, 8
  00027	c2 08 00	 ret	 8
$L42627:

; 217  : 	}
; 218  : 	else
; 219  : 	{
; 220  : 		CTime timeT(
; 221  : 			(int)sysTime.wYear, (int)sysTime.wMonth, (int)sysTime.wDay,
; 222  : 			(int)sysTime.wHour, (int)sysTime.wMinute, (int)sysTime.wSecond,
; 223  : 			nDST);

  0002a	8b 54 24 14	 mov	 edx, DWORD PTR _nDST$[esp+8]
  0002e	52		 push	 edx
  0002f	0f b7 50 0c	 movzx	 edx, WORD PTR [eax+12]
  00033	52		 push	 edx
  00034	0f b7 50 0a	 movzx	 edx, WORD PTR [eax+10]
  00038	52		 push	 edx
  00039	0f b7 50 08	 movzx	 edx, WORD PTR [eax+8]
  0003d	52		 push	 edx
  0003e	0f b7 50 06	 movzx	 edx, WORD PTR [eax+6]
  00042	0f b7 40 02	 movzx	 eax, WORD PTR [eax+2]
  00046	52		 push	 edx
  00047	0f b7 c9	 movzx	 ecx, cx
  0004a	50		 push	 eax
  0004b	51		 push	 ecx
  0004c	8d 4c 24 20	 lea	 ecx, DWORD PTR _timeT$42637[esp+40]
  00050	e8 00 00 00 00	 call	 ??0CTime@ATL@@QAE@HHHHHHH@Z ; ATL::CTime::CTime

; 224  : 		*this = timeT;

  00055	8b 44 24 08	 mov	 eax, DWORD PTR _timeT$42637[esp+16]
  00059	8b 54 24 04	 mov	 edx, DWORD PTR _timeT$42637[esp+12]
  0005d	89 46 04	 mov	 DWORD PTR [esi+4], eax
  00060	89 16		 mov	 DWORD PTR [esi], edx

; 225  : 	}
; 226  : }

  00062	8b c6		 mov	 eax, esi
  00064	5e		 pop	 esi
  00065	83 c4 08	 add	 esp, 8
  00068	c2 08 00	 ret	 8
??0CTime@ATL@@QAE@ABU_SYSTEMTIME@@H@Z ENDP		; ATL::CTime::CTime
_TEXT	ENDS
PUBLIC	?DBQryNewItemLog@CDbManager@@QAEXPADABU_LogItemInfo@@@Z ; CDbManager::DBQryNewItemLog
PUBLIC	??_C@_0DDM@PEJILMGA@LOG_ITEM_STR?5?$EAim_szName?$DN?8?$CFs?8?0?$EAis@ ; `string'
EXTRN	_sprintf:NEAR
EXTRN	?g_appInfo@@3UAppInfo@@A:QWORD			; g_appInfo
;	COMDAT ??_C@_0DDM@PEJILMGA@LOG_ITEM_STR?5?$EAim_szName?$DN?8?$CFs?8?0?$EAis@
; File c:\documents and settings\test\mes documents\source\virtuos_v17\build\program\_database\dbmanagerlog.cpp
CONST	SEGMENT
??_C@_0DDM@PEJILMGA@LOG_ITEM_STR?5?$EAim_szName?$DN?8?$CFs?8?0?$EAis@ DB 'L'
	DB	'OG_ITEM_STR @im_szName=''%s'',@iserverindex=''%02d'',@im_Gets'
	DB	'zName=''%s'',@idwWorldID=%d,@im_dwGold=%d,@im_nRemainGold=%d,'
	DB	'@iItem_UniqueNo=%d,@iItem_Name=''%s'',@iItem_durability=%d,@i'
	DB	'm_nAbilityOption=%d,@Im_GetdwGold=%d,@iItem_count=%d,@iState='
	DB	'''%s'',@im_nSlot0=%d,@im_nSlot1=%d,@im_bItemResist=%d,@im_nRe'
	DB	'sistAbilityOption=%d,@im_bCharged=%d,@im_dwKeepTime=%d,@im_nR'
	DB	'andomOptItemId=%I64d,@inPiercedSize=%d,@iadwItemId0=%d,@iadwI'
	DB	'temId1=%d,@iadwItemId2=%d,@iadwItemId3=%d,@iadwItemId4=%d,@iM'
	DB	'axDurability=%d,@inPetKind=%d,@inPetLevel=%d,@idwPetExp=%d,@i'
	DB	'wPetEnergy=%d,@iwPetLife=%d,@inPetAL_D=%d,@inPetAL_C=%d,@inPe'
	DB	'tAL_B=%d,@inPetAL_A=%d,@inPetAL_S=%d,@iadwItemId5=%d,@iadwIte'
	DB	'mId6=%d,@iadwItemId7=%d,@iadwItemId8=%d,@iadwItemId9=%d,@inUM'
	DB	'PiercedSize=%d,@iadwUMItemId0=%d,@iadwUMItemId1=%d,@iadwUMIte'
	DB	'mId2=%d,@iadwUMItemId3=%d,@iadwUMItemId4=%d', 00H ; `string'
; Function compile flags: /Ogty
CONST	ENDS
;	COMDAT ?DBQryNewItemLog@CDbManager@@QAEXPADABU_LogItemInfo@@@Z
_TEXT	SEGMENT
_qryLog$ = 8						; size = 4
_info$ = 12						; size = 4
?DBQryNewItemLog@CDbManager@@QAEXPADABU_LogItemInfo@@@Z PROC NEAR ; CDbManager::DBQryNewItemLog, COMDAT
; _this$ = ecx

; 1018 : 	sprintf( qryLog, "LOG_ITEM_STR "
; 1019 : 		"@im_szName='%s',@iserverindex='%02d',@im_GetszName='%s',@idwWorldID=%d,@im_dwGold=%d,@im_nRemainGold=%d,"
; 1020 : 		"@iItem_UniqueNo=%d,@iItem_Name='%s',@iItem_durability=%d,@im_nAbilityOption=%d,@Im_GetdwGold=%d,"
; 1021 : 		"@iItem_count=%d,@iState='%s',@im_nSlot0=%d,@im_nSlot1=%d,@im_bItemResist=%d,@im_nResistAbilityOption=%d"
; 1022 : 		",@im_bCharged=%d,@im_dwKeepTime=%d,"
; 1023 : #if __VER >= 11 // __SYS_IDENTIFY
; 1024 : 		"@im_nRandomOptItemId=%I64d"
; 1025 : #else	// __SYS_IDENTIFY
; 1026 : 		"@im_nRandomOptItemId=%d"
; 1027 : #endif	// __SYS_IDENTIFY
; 1028 : 		",@inPiercedSize=%d,@iadwItemId0=%d,@iadwItemId1=%d,@iadwItemId2=%d,@iadwItemId3=%d"
; 1029 : #if __VER >= 9 // __ULTIMATE
; 1030 : 		",@iadwItemId4=%d"
; 1031 : #endif // __ULTIMATE
; 1032 : 
; 1033 : 		",@iMaxDurability=%d"
; 1034 : 
; 1035 : #if __VER >= 9 // __PET_0410
; 1036 : 		",@inPetKind=%d,@inPetLevel=%d,@idwPetExp=%d,@iwPetEnergy=%d,@iwPetLife=%d"
; 1037 : 		",@inPetAL_D=%d,@inPetAL_C=%d,@inPetAL_B=%d,@inPetAL_A=%d,@inPetAL_S=%d"
; 1038 : #endif // __PET_0410
; 1039 : #if __VER >= 12 // __EXT_PIERCING
; 1040 : 		",@iadwItemId5=%d,@iadwItemId6=%d,@iadwItemId7=%d,@iadwItemId8=%d,@iadwItemId9=%d"
; 1041 : 		",@inUMPiercedSize=%d,@iadwUMItemId0=%d,@iadwUMItemId1=%d,@iadwUMItemId2=%d,@iadwUMItemId3=%d,@iadwUMItemId4=%d"
; 1042 : #endif // __EXT_PIERCING
; 1043 : 		,
; 1044 : 		info.SendName, g_appInfo.dwSys, info.RecvName, info.WorldId, info.Gold, info.Gold2, 
; 1045 : 		info.ItemNo, info.szItemName, info.Negudo, info.nAbilityOption, info.Gold_1,
; 1046 : 		info.itemNumber, info.Action, info.nSlot, info.nSlot1, info.nItemResist, info.nResistAbilityOption
; 1047 : 		, info.m_bCharged, info.m_dwKeepTime,
; 1048 : #if __VER >= 11 // __SYS_IDENTIFY
; 1049 : 		info.m_iRandomOptItemId
; 1050 : #else	// __SYS_IDENTIFY
; 1051 : 		info.m_nRandomOptItemId
; 1052 : #endif	// __SYS_IDENTIFY
; 1053 : #if __VER >= 12 // __EXT_PIERCING
; 1054 : 		, info.nPiercedSize, info.adwItemId[0], info.adwItemId[1], info.adwItemId[2], info.adwItemId[3]
; 1055 : 		, info.adwItemId[4]
; 1056 : #else // __EXT_PIERCING
; 1057 : 		, info.nPiercedSize, info.adwItemId0, info.adwItemId1, info.adwItemId2, info.adwItemId3
; 1058 : #if __VER >= 9 // __ULTIMATE
; 1059 : 		, info.adwItemId4
; 1060 : #endif // __ULTIMATE
; 1061 : #endif // __EXT_PIERCING
; 1062 : 		, info.MaxNegudo
; 1063 : #if __VER >= 9 // __PET_0410
; 1064 : 		, info.nPetKind, info.nPetLevel, info.dwPetExp, info.wPetEnergy, info.wPetLife
; 1065 : 		, info.nPetAL_D, info.nPetAL_C, info.nPetAL_B, info.nPetAL_A, info.nPetAL_S
; 1066 : #endif // __PET_0410
; 1067 : #if __VER >= 12 // __EXT_PIERCING
; 1068 : 		, info.adwItemId[5], info.adwItemId[6], info.adwItemId[7], info.adwItemId[8], info.adwItemId[9]
; 1069 : 		, info.nUMPiercedSize, info.adwUMItemId[0], info.adwUMItemId[1], info.adwUMItemId[2], info.adwUMItemId[3], info.adwUMItemId[4]
; 1070 : #endif // __EXT_PIERCING
; 1071 : 		);	

  00000	8b 44 24 08	 mov	 eax, DWORD PTR _info$[esp-4]
  00004	8b 88 b0 00 00
	00		 mov	 ecx, DWORD PTR [eax+176]
  0000a	51		 push	 ecx
  0000b	8b 90 ac 00 00
	00		 mov	 edx, DWORD PTR [eax+172]
  00011	52		 push	 edx
  00012	8b 88 a8 00 00
	00		 mov	 ecx, DWORD PTR [eax+168]
  00018	51		 push	 ecx
  00019	8b 90 a4 00 00
	00		 mov	 edx, DWORD PTR [eax+164]
  0001f	52		 push	 edx
  00020	8b 88 a0 00 00
	00		 mov	 ecx, DWORD PTR [eax+160]
  00026	51		 push	 ecx
  00027	8b 90 9c 00 00
	00		 mov	 edx, DWORD PTR [eax+156]
  0002d	52		 push	 edx
  0002e	8b 88 98 00 00
	00		 mov	 ecx, DWORD PTR [eax+152]
  00034	51		 push	 ecx
  00035	8b 90 94 00 00
	00		 mov	 edx, DWORD PTR [eax+148]
  0003b	52		 push	 edx
  0003c	8b 88 90 00 00
	00		 mov	 ecx, DWORD PTR [eax+144]
  00042	51		 push	 ecx
  00043	8b 90 8c 00 00
	00		 mov	 edx, DWORD PTR [eax+140]
  00049	52		 push	 edx
  0004a	8b 88 88 00 00
	00		 mov	 ecx, DWORD PTR [eax+136]
  00050	51		 push	 ecx
  00051	0f b6 90 c4 00
	00 00		 movzx	 edx, BYTE PTR [eax+196]
  00058	52		 push	 edx
  00059	0f b6 88 c3 00
	00 00		 movzx	 ecx, BYTE PTR [eax+195]
  00060	51		 push	 ecx
  00061	0f b6 90 c2 00
	00 00		 movzx	 edx, BYTE PTR [eax+194]
  00068	52		 push	 edx
  00069	0f b6 88 c1 00
	00 00		 movzx	 ecx, BYTE PTR [eax+193]
  00070	51		 push	 ecx
  00071	0f b6 90 c0 00
	00 00		 movzx	 edx, BYTE PTR [eax+192]
  00078	52		 push	 edx
  00079	0f b7 88 be 00
	00 00		 movzx	 ecx, WORD PTR [eax+190]
  00080	0f b7 90 bc 00
	00 00		 movzx	 edx, WORD PTR [eax+188]
  00087	51		 push	 ecx
  00088	8b 88 b8 00 00
	00		 mov	 ecx, DWORD PTR [eax+184]
  0008e	52		 push	 edx
  0008f	0f b6 90 b5 00
	00 00		 movzx	 edx, BYTE PTR [eax+181]
  00096	51		 push	 ecx
  00097	0f b6 88 b4 00
	00 00		 movzx	 ecx, BYTE PTR [eax+180]
  0009e	52		 push	 edx
  0009f	8b 50 20	 mov	 edx, DWORD PTR [eax+32]
  000a2	51		 push	 ecx
  000a3	8b 88 84 00 00
	00		 mov	 ecx, DWORD PTR [eax+132]
  000a9	52		 push	 edx
  000aa	8b 90 80 00 00
	00		 mov	 edx, DWORD PTR [eax+128]
  000b0	51		 push	 ecx
  000b1	8b 48 7c	 mov	 ecx, DWORD PTR [eax+124]
  000b4	52		 push	 edx
  000b5	8b 50 78	 mov	 edx, DWORD PTR [eax+120]
  000b8	51		 push	 ecx
  000b9	8b 48 74	 mov	 ecx, DWORD PTR [eax+116]
  000bc	52		 push	 edx
  000bd	8b 50 70	 mov	 edx, DWORD PTR [eax+112]
  000c0	51		 push	 ecx
  000c1	8b 48 6c	 mov	 ecx, DWORD PTR [eax+108]
  000c4	52		 push	 edx
  000c5	8b 50 68	 mov	 edx, DWORD PTR [eax+104]
  000c8	51		 push	 ecx
  000c9	8b 48 64	 mov	 ecx, DWORD PTR [eax+100]
  000cc	52		 push	 edx
  000cd	8b 50 60	 mov	 edx, DWORD PTR [eax+96]
  000d0	51		 push	 ecx
  000d1	8b 48 5c	 mov	 ecx, DWORD PTR [eax+92]
  000d4	52		 push	 edx
  000d5	8b 50 58	 mov	 edx, DWORD PTR [eax+88]
  000d8	51		 push	 ecx
  000d9	8b 48 54	 mov	 ecx, DWORD PTR [eax+84]
  000dc	52		 push	 edx
  000dd	8b 50 50	 mov	 edx, DWORD PTR [eax+80]
  000e0	51		 push	 ecx
  000e1	8b 08		 mov	 ecx, DWORD PTR [eax]
  000e3	52		 push	 edx
  000e4	8b 50 44	 mov	 edx, DWORD PTR [eax+68]
  000e7	51		 push	 ecx
  000e8	8b 48 4c	 mov	 ecx, DWORD PTR [eax+76]
  000eb	52		 push	 edx
  000ec	8b 50 48	 mov	 edx, DWORD PTR [eax+72]
  000ef	51		 push	 ecx
  000f0	52		 push	 edx
  000f1	8b 48 1c	 mov	 ecx, DWORD PTR [eax+28]
  000f4	51		 push	 ecx
  000f5	8b 48 18	 mov	 ecx, DWORD PTR [eax+24]
  000f8	8d 50 24	 lea	 edx, DWORD PTR [eax+36]
  000fb	52		 push	 edx
  000fc	8b 50 14	 mov	 edx, DWORD PTR [eax+20]
  000ff	51		 push	 ecx
  00100	8b 48 10	 mov	 ecx, DWORD PTR [eax+16]
  00103	52		 push	 edx
  00104	8b 50 0c	 mov	 edx, DWORD PTR [eax+12]
  00107	51		 push	 ecx
  00108	8b 48 08	 mov	 ecx, DWORD PTR [eax+8]
  0010b	8b 40 04	 mov	 eax, DWORD PTR [eax+4]
  0010e	52		 push	 edx
  0010f	8b 15 00 00 00
	00		 mov	 edx, DWORD PTR ?g_appInfo@@3UAppInfo@@A
  00115	51		 push	 ecx
  00116	8b 8c 24 c0 00
	00 00		 mov	 ecx, DWORD PTR _qryLog$[esp+184]
  0011d	52		 push	 edx
  0011e	50		 push	 eax
  0011f	68 00 00 00 00	 push	 OFFSET FLAT:??_C@_0DDM@PEJILMGA@LOG_ITEM_STR?5?$EAim_szName?$DN?8?$CFs?8?0?$EAis@
  00124	51		 push	 ecx
  00125	e8 00 00 00 00	 call	 _sprintf
  0012a	81 c4 cc 00 00
	00		 add	 esp, 204		; 000000ccH

; 1072 : 	if( strlen(qryLog) > 40960 )
; 1073 : 		ASSERT(0);
; 1074 : ///	TRACE("%s\n", qryLog);
; 1075 : }

  00130	c2 08 00	 ret	 8
?DBQryNewItemLog@CDbManager@@QAEXPADABU_LogItemInfo@@@Z ENDP ; CDbManager::DBQryNewItemLog
_TEXT	ENDS
PUBLIC	??_C@_0GH@LHPNFEPP@?2Documents?5and?5Settings?2test?2Mes@ ; `string'
PUBLIC	??_C@_0EL@JGHMGDLE@uspLoggingTrade?5?$EApFlag?$DN0?0?5?$EApTrad@ ; `string'
PUBLIC	??_C@_0JF@NEPENEDF@uspLoggingTrade?5?$EApFlag?$DN1?0?5?$EApTrad@ ; `string'
PUBLIC	??_C@_0MP@KFMPAGF@uspLoggingTrade?5?$EApFlag?$DN2?0?5?$EApTrad@ ; `string'
PUBLIC	??_C@_0L@EBJDFKBI@?$CFs?0?5?$CFd?3?7?$CFs?$AA@	; `string'
PUBLIC	?call_uspLoggingTrade@CDbManager@@QAEHPAVCQuery@@HHKKKPBDHHHKHHHH_J@Z ; CDbManager::call_uspLoggingTrade
EXTRN	?Exec@CQuery@@QAEHPBD@Z:NEAR			; CQuery::Exec
EXTRN	?WriteLog@@YAXPBDZZ:NEAR			; WriteLog
;	COMDAT ??_C@_0MP@KFMPAGF@uspLoggingTrade?5?$EApFlag?$DN2?0?5?$EApTrad@
CONST	SEGMENT
??_C@_0MP@KFMPAGF@uspLoggingTrade?5?$EApFlag?$DN2?0?5?$EApTrad@ DB 'uspLo'
	DB	'ggingTrade @pFlag=2, @pTradeID=%d, @pserverindex=''%02d'', @p'
	DB	'idPlayer=''%07d'', @pItemIndex=''%d'', @pItemSerialNum=%d, @p'
	DB	'ItemCnt=%d, @pAbilityOpt=%d, @pItemResist=%d, @pResistAbility'
	DB	'Opt=%d,@pRandomOpt=%I64d', 00H		; `string'
CONST	ENDS
;	COMDAT ??_C@_0JF@NEPENEDF@uspLoggingTrade?5?$EApFlag?$DN1?0?5?$EApTrad@
CONST	SEGMENT
??_C@_0JF@NEPENEDF@uspLoggingTrade?5?$EApFlag?$DN1?0?5?$EApTrad@ DB 'uspL'
	DB	'oggingTrade @pFlag=1, @pTradeID=%d, @pserverindex=''%02d'', @'
	DB	'pWorldID=%d, @pidPlayer=''%07d'', @pTradeGold=%d, @pPlayerIP='
	DB	'''%s'', @pLevel=%d, @pJob=%d', 00H		; `string'
CONST	ENDS
;	COMDAT ??_C@_0EL@JGHMGDLE@uspLoggingTrade?5?$EApFlag?$DN0?0?5?$EApTrad@
CONST	SEGMENT
??_C@_0EL@JGHMGDLE@uspLoggingTrade?5?$EApFlag?$DN0?0?5?$EApTrad@ DB 'uspL'
	DB	'oggingTrade @pFlag=0, @pTradeID=%d, @pserverindex=''%02d'', @'
	DB	'pWorldID=%d', 00H				; `string'
CONST	ENDS
;	COMDAT ??_C@_0GH@LHPNFEPP@?2Documents?5and?5Settings?2test?2Mes@
CONST	SEGMENT
??_C@_0GH@LHPNFEPP@?2Documents?5and?5Settings?2test?2Mes@ DB '\Documents '
	DB	'and Settings\test\Mes documents\Source\Virtuos_v17\Build\Prog'
	DB	'ram\_Database\DbManagerLog.cpp', 00H	; `string'
CONST	ENDS
;	COMDAT ??_C@_0L@EBJDFKBI@?$CFs?0?5?$CFd?3?7?$CFs?$AA@
CONST	SEGMENT
??_C@_0L@EBJDFKBI@?$CFs?0?5?$CFd?3?7?$CFs?$AA@ DB '%s, %d:', 09H, '%s', 00H ; `string'
; Function compile flags: /Ogty
CONST	ENDS
;	COMDAT ?call_uspLoggingTrade@CDbManager@@QAEHPAVCQuery@@HHKKKPBDHHHKHHHH_J@Z
_TEXT	SEGMENT
_pszQuery$ = -1032					; size = 1024
__$ArrayPad$ = -4					; size = 4
__$ReturnAddr$ = 4					; size = 4
_pQuery$ = 8						; size = 4
_nFlag$ = 12						; size = 4
_nTradeID$ = 16						; size = 4
_dwWorldID$ = 20					; size = 4
_idPlayer$ = 24						; size = 4
_dwTradeGold$ = 28					; size = 4
_lpAddr$ = 32						; size = 4
_nLevel$ = 36						; size = 4
_nJob$ = 40						; size = 4
_nItemIndex$ = 44					; size = 4
_iItemSerialNum$ = 48					; size = 4
_nItemCnt$ = 52						; size = 4
_nAbilityOpt$ = 56					; size = 4
_nItemResist$ = 60					; size = 4
_nResistAbilityOpt$ = 64				; size = 4
_iRandomOpt$ = 68					; size = 8
?call_uspLoggingTrade@CDbManager@@QAEHPAVCQuery@@HHKKKPBDHHHKHHHH_J@Z PROC NEAR ; CDbManager::call_uspLoggingTrade, COMDAT
; _this$ = ecx

; 1082 : {

  00000	55		 push	 ebp
  00001	8b ec		 mov	 ebp, esp
  00003	83 e4 f8	 and	 esp, -8			; fffffff8H
  00006	81 ec 08 04 00
	00		 sub	 esp, 1032		; 00000408H
  0000c	a1 00 00 00 00	 mov	 eax, DWORD PTR ___security_cookie
  00011	8b 55 20	 mov	 edx, DWORD PTR _lpAddr$[ebp]
  00014	33 c5		 xor	 eax, ebp
  00016	89 84 24 04 04
	00 00		 mov	 DWORD PTR __$ArrayPad$[esp+1032], eax
  0001d	56		 push	 esi
  0001e	8b 75 08	 mov	 esi, DWORD PTR _pQuery$[ebp]
  00021	57		 push	 edi

; 1083 : 	char pszQuery[1024]	= { 0, };

  00022	33 c0		 xor	 eax, eax
  00024	c6 44 24 08 00	 mov	 BYTE PTR _pszQuery$[esp+1040], 0
  00029	b9 ff 00 00 00	 mov	 ecx, 255		; 000000ffH
  0002e	8d 7c 24 09	 lea	 edi, DWORD PTR _pszQuery$[esp+1041]
  00032	f3 ab		 rep stosd
  00034	66 ab		 stosw
  00036	aa		 stosb

; 1084 : 	switch( nFlag )

  00037	8b 45 0c	 mov	 eax, DWORD PTR _nFlag$[ebp]
  0003a	83 e8 00	 sub	 eax, 0
  0003d	0f 84 80 00 00
	00		 je	 $L208731
  00043	48		 dec	 eax
  00044	74 49		 je	 SHORT $L208733
  00046	48		 dec	 eax
  00047	0f 85 96 00 00
	00		 jne	 $L208728

; 1097 : 			}
; 1098 : 		case 2:
; 1099 : 			{
; 1100 : 				sprintf( pszQuery, "uspLoggingTrade @pFlag=2, @pTradeID=%d, @pserverindex='%02d', @pidPlayer='%07d', @pItemIndex='%d', @pItemSerialNum=%d, @pItemCnt=%d, @pAbilityOpt=%d, @pItemResist=%d, @pResistAbilityOpt=%d,"
; 1101 : #if __VER >= 11 // __SYS_IDENTIFY
; 1102 : 						"@pRandomOpt=%I64d",
; 1103 : #else	// __SYS_IDENTIFY
; 1104 : 						"@pRandomOpt=%d",
; 1105 : #endif	// __SYS_IDENTIFY
; 1106 : #if __VER >= 11 // __SYS_IDENTIFY
; 1107 : 					nTradeID, g_appInfo.dwSys, idPlayer, nItemIndex, iItemSerialNum, nItemCnt, nAbilityOpt, nItemResist, nResistAbilityOpt, iRandomOpt );

  0004d	8b 45 48	 mov	 eax, DWORD PTR _iRandomOpt$[ebp+4]
  00050	8b 4d 44	 mov	 ecx, DWORD PTR _iRandomOpt$[ebp]
  00053	8b 55 40	 mov	 edx, DWORD PTR _nResistAbilityOpt$[ebp]
  00056	50		 push	 eax
  00057	8b 45 3c	 mov	 eax, DWORD PTR _nItemResist$[ebp]
  0005a	51		 push	 ecx
  0005b	8b 4d 38	 mov	 ecx, DWORD PTR _nAbilityOpt$[ebp]
  0005e	52		 push	 edx
  0005f	8b 55 34	 mov	 edx, DWORD PTR _nItemCnt$[ebp]
  00062	50		 push	 eax
  00063	8b 45 30	 mov	 eax, DWORD PTR _iItemSerialNum$[ebp]
  00066	51		 push	 ecx
  00067	8b 4d 2c	 mov	 ecx, DWORD PTR _nItemIndex$[ebp]
  0006a	52		 push	 edx
  0006b	8b 55 18	 mov	 edx, DWORD PTR _idPlayer$[ebp]
  0006e	50		 push	 eax
  0006f	a1 00 00 00 00	 mov	 eax, DWORD PTR ?g_appInfo@@3UAppInfo@@A
  00074	51		 push	 ecx
  00075	8b 4d 10	 mov	 ecx, DWORD PTR _nTradeID$[ebp]
  00078	52		 push	 edx
  00079	50		 push	 eax
  0007a	51		 push	 ecx
  0007b	8d 54 24 34	 lea	 edx, DWORD PTR _pszQuery$[esp+1084]
  0007f	68 00 00 00 00	 push	 OFFSET FLAT:??_C@_0MP@KFMPAGF@uspLoggingTrade?5?$EApFlag?$DN2?0?5?$EApTrad@
  00084	52		 push	 edx
  00085	e8 00 00 00 00	 call	 _sprintf
  0008a	83 c4 34	 add	 esp, 52			; 00000034H

; 1108 : #else	// __SYS_IDENTIFY
; 1109 : 					nTradeID, g_appInfo.dwSys, idPlayer, nItemIndex, iItemSerialNum, nItemCnt, nAbilityOpt, nItemResist, nResistAbilityOpt, nRandomOpt );
; 1110 : #endif	// __SYS_IDENTIFY
; 1111 : 				break;

  0008d	eb 54		 jmp	 SHORT $L208728
$L208733:

; 1090 : 				break;
; 1091 : 			}
; 1092 : 		case 1:
; 1093 : 			{
; 1094 : 				sprintf( pszQuery, "uspLoggingTrade @pFlag=1, @pTradeID=%d, @pserverindex='%02d', @pWorldID=%d, @pidPlayer='%07d', @pTradeGold=%d, @pPlayerIP='%s', @pLevel=%d, @pJob=%d",
; 1095 : 					nTradeID, g_appInfo.dwSys, dwWorldID, idPlayer, dwTradeGold, lpAddr, nLevel, nJob );

  0008f	8b 45 28	 mov	 eax, DWORD PTR _nJob$[ebp]
  00092	8b 4d 24	 mov	 ecx, DWORD PTR _nLevel$[ebp]
  00095	50		 push	 eax
  00096	8b 45 18	 mov	 eax, DWORD PTR _idPlayer$[ebp]
  00099	51		 push	 ecx
  0009a	8b 4d 14	 mov	 ecx, DWORD PTR _dwWorldID$[ebp]
  0009d	52		 push	 edx
  0009e	8b 55 1c	 mov	 edx, DWORD PTR _dwTradeGold$[ebp]
  000a1	52		 push	 edx
  000a2	8b 15 00 00 00
	00		 mov	 edx, DWORD PTR ?g_appInfo@@3UAppInfo@@A
  000a8	50		 push	 eax
  000a9	8b 45 10	 mov	 eax, DWORD PTR _nTradeID$[ebp]
  000ac	51		 push	 ecx
  000ad	52		 push	 edx
  000ae	50		 push	 eax
  000af	8d 4c 24 28	 lea	 ecx, DWORD PTR _pszQuery$[esp+1072]
  000b3	68 00 00 00 00	 push	 OFFSET FLAT:??_C@_0JF@NEPENEDF@uspLoggingTrade?5?$EApFlag?$DN1?0?5?$EApTrad@
  000b8	51		 push	 ecx
  000b9	e8 00 00 00 00	 call	 _sprintf
  000be	83 c4 28	 add	 esp, 40			; 00000028H

; 1096 : 				break;

  000c1	eb 20		 jmp	 SHORT $L208728
$L208731:

; 1085 : 	{
; 1086 : 		case 0:
; 1087 : 			{
; 1088 : 				sprintf( pszQuery, "uspLoggingTrade @pFlag=0, @pTradeID=%d, @pserverindex='%02d', @pWorldID=%d",
; 1089 : 					nTradeID, g_appInfo.dwSys, dwWorldID );

  000c3	8b 55 14	 mov	 edx, DWORD PTR _dwWorldID$[ebp]
  000c6	a1 00 00 00 00	 mov	 eax, DWORD PTR ?g_appInfo@@3UAppInfo@@A
  000cb	8b 4d 10	 mov	 ecx, DWORD PTR _nTradeID$[ebp]
  000ce	52		 push	 edx
  000cf	50		 push	 eax
  000d0	51		 push	 ecx
  000d1	8d 54 24 14	 lea	 edx, DWORD PTR _pszQuery$[esp+1052]
  000d5	68 00 00 00 00	 push	 OFFSET FLAT:??_C@_0EL@JGHMGDLE@uspLoggingTrade?5?$EApFlag?$DN0?0?5?$EApTrad@
  000da	52		 push	 edx
  000db	e8 00 00 00 00	 call	 _sprintf
  000e0	83 c4 14	 add	 esp, 20			; 00000014H
$L208728:

; 1112 : 			}
; 1113 : 	}
; 1114 : 	if ( FALSE == pQuery->Exec( pszQuery ) )

  000e3	8d 44 24 08	 lea	 eax, DWORD PTR _pszQuery$[esp+1040]
  000e7	50		 push	 eax
  000e8	8b ce		 mov	 ecx, esi
  000ea	e8 00 00 00 00	 call	 ?Exec@CQuery@@QAEHPBD@Z	; CQuery::Exec
  000ef	85 c0		 test	 eax, eax
  000f1	75 34		 jne	 SHORT $L208737

; 1115 : 	{
; 1116 : 		WriteLog( "%s, %d:\t%s", __FILE__, __LINE__, pszQuery );

  000f3	8d 4c 24 08	 lea	 ecx, DWORD PTR _pszQuery$[esp+1040]
  000f7	51		 push	 ecx
  000f8	68 5c 04 00 00	 push	 1116			; 0000045cH
  000fd	68 00 00 00 00	 push	 OFFSET FLAT:??_C@_0GH@LHPNFEPP@?2Documents?5and?5Settings?2test?2Mes@
  00102	68 00 00 00 00	 push	 OFFSET FLAT:??_C@_0L@EBJDFKBI@?$CFs?0?5?$CFd?3?7?$CFs?$AA@
  00107	e8 00 00 00 00	 call	 ?WriteLog@@YAXPBDZZ	; WriteLog
  0010c	83 c4 10	 add	 esp, 16			; 00000010H

; 1117 : 		return FALSE;

  0010f	33 c0		 xor	 eax, eax

; 1118 : 	}
; 1119 : //	OutputDebugString( pszQuery );
; 1120 : 	return TRUE;
; 1121 : }

  00111	5f		 pop	 edi
  00112	5e		 pop	 esi
  00113	8b 8c 24 04 04
	00 00		 mov	 ecx, DWORD PTR __$ArrayPad$[esp+1032]
  0011a	33 cd		 xor	 ecx, ebp
  0011c	e8 00 00 00 00	 call	 @__security_check_cookie@4
  00121	8b e5		 mov	 esp, ebp
  00123	5d		 pop	 ebp
  00124	c2 44 00	 ret	 68			; 00000044H
$L208737:
  00127	8b 8c 24 0c 04
	00 00		 mov	 ecx, DWORD PTR __$ArrayPad$[esp+1040]
  0012e	5f		 pop	 edi
  0012f	33 cd		 xor	 ecx, ebp
  00131	b8 01 00 00 00	 mov	 eax, 1
  00136	5e		 pop	 esi
  00137	e8 00 00 00 00	 call	 @__security_check_cookie@4
  0013c	8b e5		 mov	 esp, ebp
  0013e	5d		 pop	 ebp
  0013f	c2 44 00	 ret	 68			; 00000044H
?call_uspLoggingTrade@CDbManager@@QAEHPAVCQuery@@HHKKKPBDHHHKHHHH_J@Z ENDP ; CDbManager::call_uspLoggingTrade
_TEXT	ENDS
PUBLIC	?CharNextA@?$ChTraitsCRT@D@ATL@@SAPADPBD@Z	; ATL::ChTraitsCRT<char>::CharNextA
EXTRN	__mbsinc:NEAR
; Function compile flags: /Ogty
; File c:\program files\microsoft visual studio .net 2003\vc7\atlmfc\include\cstringt.h
;	COMDAT ?CharNextA@?$ChTraitsCRT@D@ATL@@SAPADPBD@Z
_TEXT	SEGMENT
_p$ = 8							; size = 4
?CharNextA@?$ChTraitsCRT@D@ATL@@SAPADPBD@Z PROC NEAR	; ATL::ChTraitsCRT<char>::CharNextA, COMDAT

; 321  : 		return reinterpret_cast< char* >( _mbsinc( reinterpret_cast< const unsigned char* >( p ) ) );

  00000	e9 00 00 00 00	 jmp	 __mbsinc
?CharNextA@?$ChTraitsCRT@D@ATL@@SAPADPBD@Z ENDP		; ATL::ChTraitsCRT<char>::CharNextA
_TEXT	ENDS
PUBLIC	?SafeStringLen@?$ChTraitsCRT@D@ATL@@SAHPBD@Z	; ATL::ChTraitsCRT<char>::SafeStringLen
; Function compile flags: /Ogty
;	COMDAT ?SafeStringLen@?$ChTraitsCRT@D@ATL@@SAHPBD@Z
_TEXT	SEGMENT
_psz$ = 8						; size = 4
?SafeStringLen@?$ChTraitsCRT@D@ATL@@SAHPBD@Z PROC NEAR	; ATL::ChTraitsCRT<char>::SafeStringLen, COMDAT

; 508  : 		// returns length in bytes
; 509  : 		return (psz != NULL) ? int( strlen( psz ) ) : 0;

  00000	8b 44 24 04	 mov	 eax, DWORD PTR _psz$[esp-4]
  00004	85 c0		 test	 eax, eax
  00006	74 12		 je	 SHORT $L210635
  00008	8d 50 01	 lea	 edx, DWORD PTR [eax+1]
  0000b	eb 03 8d 49 00	 npad	 5
$L210637:
  00010	8a 08		 mov	 cl, BYTE PTR [eax]
  00012	40		 inc	 eax
  00013	84 c9		 test	 cl, cl
  00015	75 f9		 jne	 SHORT $L210637
  00017	2b c2		 sub	 eax, edx

; 510  : 	}

  00019	c3		 ret	 0
$L210635:

; 508  : 		// returns length in bytes
; 509  : 		return (psz != NULL) ? int( strlen( psz ) ) : 0;

  0001a	33 c0		 xor	 eax, eax

; 510  : 	}

  0001c	c3		 ret	 0
?SafeStringLen@?$ChTraitsCRT@D@ATL@@SAHPBD@Z ENDP	; ATL::ChTraitsCRT<char>::SafeStringLen
_TEXT	ENDS
PUBLIC	??_C@_00CNPNBAHC@?$AA@				; `string'
PUBLIC	??0_LogItemInfo@@QAE@XZ				; _LogItemInfo::_LogItemInfo
;	COMDAT ??_C@_00CNPNBAHC@?$AA@
; File c:\documents and settings\test\mes documents\source\virtuos_v17\build\program\_network\cmnhdr.h
CONST	SEGMENT
??_C@_00CNPNBAHC@?$AA@ DB 00H				; `string'
; Function compile flags: /Ogty
CONST	ENDS
;	COMDAT ??0_LogItemInfo@@QAE@XZ
_TEXT	SEGMENT
??0_LogItemInfo@@QAE@XZ PROC NEAR			; _LogItemInfo::_LogItemInfo, COMDAT
; _this$ = ecx

; 641  : 	_LogItemInfo()

  00000	8b c1		 mov	 eax, ecx
  00002	56		 push	 esi

; 642  : 	{
; 643  : 		Action = _T("");
; 644  : 		SendName = _T("");
; 645  : 		RecvName = _T("");
; 646  : 		WorldId = Gold = Gold2 = 0;
; 647  : 		Negudo = 0;
; 648  : 		MaxNegudo = 0;
; 649  : 		ItemNo = 0;
; 650  : 		//ItemName = _T("");
; 651  : 		::memset( szItemName, 0, sizeof(szItemName) );

  00003	33 d2		 xor	 edx, edx
  00005	b9 00 00 00 00	 mov	 ecx, OFFSET FLAT:??_C@_00CNPNBAHC@?$AA@
  0000a	89 08		 mov	 DWORD PTR [eax], ecx
  0000c	89 48 04	 mov	 DWORD PTR [eax+4], ecx
  0000f	89 48 08	 mov	 DWORD PTR [eax+8], ecx
  00012	33 c9		 xor	 ecx, ecx
  00014	89 48 14	 mov	 DWORD PTR [eax+20], ecx
  00017	89 48 10	 mov	 DWORD PTR [eax+16], ecx
  0001a	89 48 0c	 mov	 DWORD PTR [eax+12], ecx
  0001d	89 48 1c	 mov	 DWORD PTR [eax+28], ecx
  00020	89 48 20	 mov	 DWORD PTR [eax+32], ecx
  00023	89 48 18	 mov	 DWORD PTR [eax+24], ecx
  00026	8d 70 24	 lea	 esi, DWORD PTR [eax+36]
  00029	89 16		 mov	 DWORD PTR [esi], edx
  0002b	89 56 04	 mov	 DWORD PTR [esi+4], edx
  0002e	89 56 08	 mov	 DWORD PTR [esi+8], edx
  00031	89 56 0c	 mov	 DWORD PTR [esi+12], edx
  00034	89 56 10	 mov	 DWORD PTR [esi+16], edx
  00037	89 56 14	 mov	 DWORD PTR [esi+20], edx
  0003a	89 56 18	 mov	 DWORD PTR [esi+24], edx
  0003d	89 56 1c	 mov	 DWORD PTR [esi+28], edx

; 652  : 		itemNumber = 0;

  00040	89 48 44	 mov	 DWORD PTR [eax+68], ecx

; 653  : 		nAbilityOption = 0;

  00043	89 48 48	 mov	 DWORD PTR [eax+72], ecx

; 654  : 		Gold_1 = 0;

  00046	89 48 4c	 mov	 DWORD PTR [eax+76], ecx

; 655  : 		nSlot = 100;
; 656  : 		nSlot1 = 100;
; 657  : 		nItemResist = 0;

  00049	89 48 58	 mov	 DWORD PTR [eax+88], ecx

; 658  : 		nResistAbilityOption = 0;

  0004c	89 48 5c	 mov	 DWORD PTR [eax+92], ecx

; 659  : 		m_bCharged = FALSE;

  0004f	89 48 60	 mov	 DWORD PTR [eax+96], ecx

; 660  : 		m_dwKeepTime = 0;

  00052	89 48 64	 mov	 DWORD PTR [eax+100], ecx

; 661  : #if __VER >= 11 // __SYS_IDENTIFY
; 662  : 		m_iRandomOptItemId = 0;

  00055	89 48 68	 mov	 DWORD PTR [eax+104], ecx
  00058	89 48 6c	 mov	 DWORD PTR [eax+108], ecx

; 663  : #else	//__SYS_IDENTIFY
; 664  : 		m_nRandomOptItemId = 0;
; 665  : #endif	// __SYS_IDENTIFY
; 666  : #if __VER >= 12 // __EXT_PIERCING
; 667  : 		nPiercedSize = 0;

  0005b	89 48 70	 mov	 DWORD PTR [eax+112], ecx
  0005e	ba 64 00 00 00	 mov	 edx, 100		; 00000064H
  00063	89 50 50	 mov	 DWORD PTR [eax+80], edx
  00066	89 50 54	 mov	 DWORD PTR [eax+84], edx

; 668  : //		for( int i=0; i<MAX_PIERCING_WEAPON; i++ )
; 669  : //			adwItemId[i] = 0;
; 670  : 		memset( adwItemId, 0, sizeof(adwItemId) );

  00069	33 d2		 xor	 edx, edx
  0006b	8d 70 74	 lea	 esi, DWORD PTR [eax+116]
  0006e	89 16		 mov	 DWORD PTR [esi], edx
  00070	89 56 04	 mov	 DWORD PTR [esi+4], edx
  00073	89 56 08	 mov	 DWORD PTR [esi+8], edx
  00076	89 56 0c	 mov	 DWORD PTR [esi+12], edx
  00079	89 56 10	 mov	 DWORD PTR [esi+16], edx
  0007c	89 56 14	 mov	 DWORD PTR [esi+20], edx
  0007f	89 56 18	 mov	 DWORD PTR [esi+24], edx
  00082	89 56 1c	 mov	 DWORD PTR [esi+28], edx
  00085	89 56 20	 mov	 DWORD PTR [esi+32], edx
  00088	89 56 24	 mov	 DWORD PTR [esi+36], edx

; 671  : 		nUMPiercedSize = 0;

  0008b	89 88 9c 00 00
	00		 mov	 DWORD PTR [eax+156], ecx

; 672  : //		for( i=0; i<MAX_PIERCING_ULTIMATE; i++ )
; 673  : //	adwUMItemId[i] = 0;
; 674  : 		memset( adwUMItemId, 0, sizeof(adwUMItemId) );

  00091	8d b0 a0 00 00
	00		 lea	 esi, DWORD PTR [eax+160]
  00097	89 16		 mov	 DWORD PTR [esi], edx
  00099	89 56 04	 mov	 DWORD PTR [esi+4], edx
  0009c	89 56 08	 mov	 DWORD PTR [esi+8], edx
  0009f	89 56 0c	 mov	 DWORD PTR [esi+12], edx
  000a2	89 56 10	 mov	 DWORD PTR [esi+16], edx

; 675  : #else // __EXT_PIERCING
; 676  : 		nPiercedSize = 0;
; 677  : 		adwItemId0 = 0;
; 678  : 		adwItemId1 = 0;
; 679  : 		adwItemId2 = 0;
; 680  : 		adwItemId3 = 0;
; 681  : #if __VER >= 9 // __ULTIMATE
; 682  : 		adwItemId4 = 0;
; 683  : #endif // __ULTIMATE
; 684  : #endif // __EXT_PIERCING
; 685  : #if __VER >= 9 // __PET_0410
; 686  : 		nPetKind = 0;

  000a5	88 88 b4 00 00
	00		 mov	 BYTE PTR [eax+180], cl

; 687  : 		nPetLevel = 0;

  000ab	88 88 b5 00 00
	00		 mov	 BYTE PTR [eax+181], cl

; 688  : 		dwPetExp = 0;

  000b1	89 88 b8 00 00
	00		 mov	 DWORD PTR [eax+184], ecx

; 689  : 		wPetEnergy = 0;

  000b7	66 89 88 bc 00
	00 00		 mov	 WORD PTR [eax+188], cx

; 690  : 		wPetLife = 0;

  000be	66 89 88 be 00
	00 00		 mov	 WORD PTR [eax+190], cx

; 691  : 		nPetAL_D = 0;

  000c5	88 88 c0 00 00
	00		 mov	 BYTE PTR [eax+192], cl

; 692  : 		nPetAL_C = 0;

  000cb	88 88 c1 00 00
	00		 mov	 BYTE PTR [eax+193], cl

; 693  : 		nPetAL_B = 0;

  000d1	88 88 c2 00 00
	00		 mov	 BYTE PTR [eax+194], cl

; 694  : 		nPetAL_A = 0;

  000d7	88 88 c3 00 00
	00		 mov	 BYTE PTR [eax+195], cl

; 695  : 		nPetAL_S = 0;

  000dd	88 88 c4 00 00
	00		 mov	 BYTE PTR [eax+196], cl
  000e3	5e		 pop	 esi

; 696  : #endif // __PET_0410
; 697  : 	}

  000e4	c3		 ret	 0
??0_LogItemInfo@@QAE@XZ ENDP				; _LogItemInfo::_LogItemInfo
_TEXT	ENDS
PUBLIC	??0D3DXVECTOR3@@QAE@XZ				; D3DXVECTOR3::D3DXVECTOR3
; Function compile flags: /Ogty
; File c:\documents and settings\test\mes documents\source\virtuos_v17\build\program\dx_sdk\d3dx9math.h
;	COMDAT ??0D3DXVECTOR3@@QAE@XZ
_TEXT	SEGMENT
??0D3DXVECTOR3@@QAE@XZ PROC NEAR			; D3DXVECTOR3::D3DXVECTOR3, COMDAT
; _this$ = ecx

; 165  :     D3DXVECTOR3() {};

  00000	8b c1		 mov	 eax, ecx
  00002	c3		 ret	 0
??0D3DXVECTOR3@@QAE@XZ ENDP				; D3DXVECTOR3::D3DXVECTOR3
_TEXT	ENDS
PUBLIC	??0D3DXVECTOR3@@QAE@MMM@Z			; D3DXVECTOR3::D3DXVECTOR3
EXTRN	__fltused:NEAR
; Function compile flags: /Ogty
; File c:\documents and settings\test\mes documents\source\virtuos_v17\build\program\dx_sdk\d3dx9math.inl
;	COMDAT ??0D3DXVECTOR3@@QAE@MMM@Z
_TEXT	SEGMENT
_fx$ = 8						; size = 4
_fy$ = 12						; size = 4
_fz$ = 16						; size = 4
??0D3DXVECTOR3@@QAE@MMM@Z PROC NEAR			; D3DXVECTOR3::D3DXVECTOR3, COMDAT
; _this$ = ecx

; 300  :     x = fx;
; 301  :     y = fy;

  00000	8b 54 24 08	 mov	 edx, DWORD PTR _fy$[esp-4]
  00004	8b c1		 mov	 eax, ecx
  00006	8b 4c 24 04	 mov	 ecx, DWORD PTR _fx$[esp-4]
  0000a	89 08		 mov	 DWORD PTR [eax], ecx

; 302  :     z = fz;

  0000c	8b 4c 24 0c	 mov	 ecx, DWORD PTR _fz$[esp-4]
  00010	89 50 04	 mov	 DWORD PTR [eax+4], edx
  00013	89 48 08	 mov	 DWORD PTR [eax+8], ecx

; 303  : }

  00016	c2 0c 00	 ret	 12			; 0000000cH
??0D3DXVECTOR3@@QAE@MMM@Z ENDP				; D3DXVECTOR3::D3DXVECTOR3
_TEXT	ENDS
PUBLIC	??5CAr@@QAEAAV0@AAE@Z				; CAr::operator>>
; Function compile flags: /Ogty
; File c:\documents and settings\test\mes documents\source\virtuos_v17\build\program\_network\misc\include\ar.h
;	COMDAT ??5CAr@@QAEAAV0@AAE@Z
_TEXT	SEGMENT
_by$ = 8						; size = 4
??5CAr@@QAEAAV0@AAE@Z PROC NEAR				; CAr::operator>>, COMDAT
; _this$ = ecx

; 142  : 	{	CAR_SAFE_READ( BYTE, by );	}

  00000	8b c1		 mov	 eax, ecx
  00002	8b 48 08	 mov	 ecx, DWORD PTR [eax+8]
  00005	56		 push	 esi
  00006	8b 70 0c	 mov	 esi, DWORD PTR [eax+12]
  00009	8d 51 01	 lea	 edx, DWORD PTR [ecx+1]
  0000c	3b d6		 cmp	 edx, esi
  0000e	5e		 pop	 esi
  0000f	77 0e		 ja	 SHORT $L162848
  00011	8a 09		 mov	 cl, BYTE PTR [ecx]
  00013	8b 54 24 04	 mov	 edx, DWORD PTR _by$[esp-4]
  00017	88 0a		 mov	 BYTE PTR [edx], cl
  00019	ff 40 08	 inc	 DWORD PTR [eax+8]
  0001c	c2 04 00	 ret	 4
$L162848:
  0001f	8b 4c 24 04	 mov	 ecx, DWORD PTR _by$[esp-4]
  00023	c6 01 00	 mov	 BYTE PTR [ecx], 0
  00026	8b 50 0c	 mov	 edx, DWORD PTR [eax+12]
  00029	89 50 08	 mov	 DWORD PTR [eax+8], edx
  0002c	c2 04 00	 ret	 4
??5CAr@@QAEAAV0@AAE@Z ENDP				; CAr::operator>>
_TEXT	ENDS
PUBLIC	??5CAr@@QAEAAV0@AAG@Z				; CAr::operator>>
; Function compile flags: /Ogty
;	COMDAT ??5CAr@@QAEAAV0@AAG@Z
_TEXT	SEGMENT
_w$ = 8							; size = 4
??5CAr@@QAEAAV0@AAG@Z PROC NEAR				; CAr::operator>>, COMDAT
; _this$ = ecx

; 144  : 	{	CAR_SAFE_READ( WORD, w );	}

  00000	8b c1		 mov	 eax, ecx
  00002	8b 48 08	 mov	 ecx, DWORD PTR [eax+8]
  00005	56		 push	 esi
  00006	8b 70 0c	 mov	 esi, DWORD PTR [eax+12]
  00009	8d 51 02	 lea	 edx, DWORD PTR [ecx+2]
  0000c	3b d6		 cmp	 edx, esi
  0000e	5e		 pop	 esi
  0000f	77 11		 ja	 SHORT $L162858
  00011	66 8b 09	 mov	 cx, WORD PTR [ecx]
  00014	8b 54 24 04	 mov	 edx, DWORD PTR _w$[esp-4]
  00018	66 89 0a	 mov	 WORD PTR [edx], cx
  0001b	83 40 08 02	 add	 DWORD PTR [eax+8], 2
  0001f	c2 04 00	 ret	 4
$L162858:
  00022	8b 4c 24 04	 mov	 ecx, DWORD PTR _w$[esp-4]
  00026	66 c7 01 00 00	 mov	 WORD PTR [ecx], 0
  0002b	8b 50 0c	 mov	 edx, DWORD PTR [eax+12]
  0002e	89 50 08	 mov	 DWORD PTR [eax+8], edx
  00031	c2 04 00	 ret	 4
??5CAr@@QAEAAV0@AAG@Z ENDP				; CAr::operator>>
_TEXT	ENDS
PUBLIC	??5CAr@@QAEAAV0@AAK@Z				; CAr::operator>>
; Function compile flags: /Ogty
;	COMDAT ??5CAr@@QAEAAV0@AAK@Z
_TEXT	SEGMENT
_dw$ = 8						; size = 4
??5CAr@@QAEAAV0@AAK@Z PROC NEAR				; CAr::operator>>, COMDAT
; _this$ = ecx

; 146  : 	{	CAR_SAFE_READ( DWORD, dw );	}

  00000	8b c1		 mov	 eax, ecx
  00002	8b 48 08	 mov	 ecx, DWORD PTR [eax+8]
  00005	56		 push	 esi
  00006	8b 70 0c	 mov	 esi, DWORD PTR [eax+12]
  00009	8d 51 04	 lea	 edx, DWORD PTR [ecx+4]
  0000c	3b d6		 cmp	 edx, esi
  0000e	5e		 pop	 esi
  0000f	77 0f		 ja	 SHORT $L162868
  00011	8b 09		 mov	 ecx, DWORD PTR [ecx]
  00013	8b 54 24 04	 mov	 edx, DWORD PTR _dw$[esp-4]
  00017	89 0a		 mov	 DWORD PTR [edx], ecx
  00019	83 40 08 04	 add	 DWORD PTR [eax+8], 4
  0001d	c2 04 00	 ret	 4
$L162868:
  00020	8b 4c 24 04	 mov	 ecx, DWORD PTR _dw$[esp-4]
  00024	c7 01 00 00 00
	00		 mov	 DWORD PTR [ecx], 0
  0002a	8b 50 0c	 mov	 edx, DWORD PTR [eax+12]
  0002d	89 50 08	 mov	 DWORD PTR [eax+8], edx
  00030	c2 04 00	 ret	 4
??5CAr@@QAEAAV0@AAK@Z ENDP				; CAr::operator>>
_TEXT	ENDS
PUBLIC	??5CAr@@QAEAAV0@AAJ@Z				; CAr::operator>>
; Function compile flags: /Ogty
;	COMDAT ??5CAr@@QAEAAV0@AAJ@Z
_TEXT	SEGMENT
_l$ = 8							; size = 4
??5CAr@@QAEAAV0@AAJ@Z PROC NEAR				; CAr::operator>>, COMDAT
; _this$ = ecx

; 152  : 	{	CAR_SAFE_READ( LONG, l );	}

  00000	8b c1		 mov	 eax, ecx
  00002	8b 48 08	 mov	 ecx, DWORD PTR [eax+8]
  00005	56		 push	 esi
  00006	8b 70 0c	 mov	 esi, DWORD PTR [eax+12]
  00009	8d 51 04	 lea	 edx, DWORD PTR [ecx+4]
  0000c	3b d6		 cmp	 edx, esi
  0000e	5e		 pop	 esi
  0000f	77 0f		 ja	 SHORT $L162898
  00011	8b 09		 mov	 ecx, DWORD PTR [ecx]
  00013	8b 54 24 04	 mov	 edx, DWORD PTR _l$[esp-4]
  00017	89 0a		 mov	 DWORD PTR [edx], ecx
  00019	83 40 08 04	 add	 DWORD PTR [eax+8], 4
  0001d	c2 04 00	 ret	 4
$L162898:
  00020	8b 4c 24 04	 mov	 ecx, DWORD PTR _l$[esp-4]
  00024	c7 01 00 00 00
	00		 mov	 DWORD PTR [ecx], 0
  0002a	8b 50 0c	 mov	 edx, DWORD PTR [eax+12]
  0002d	89 50 08	 mov	 DWORD PTR [eax+8], edx
  00030	c2 04 00	 ret	 4
??5CAr@@QAEAAV0@AAJ@Z ENDP				; CAr::operator>>
_TEXT	ENDS
PUBLIC	??5@YAAAVCAr@@AAV0@AAUD3DXVECTOR3@@@Z		; operator>>
EXTRN	?Read@CAr@@QAEXPAXI@Z:NEAR			; CAr::Read
; Function compile flags: /Ogty
;	COMDAT ??5@YAAAVCAr@@AAV0@AAUD3DXVECTOR3@@@Z
_TEXT	SEGMENT
_ar$ = 8						; size = 4
_v$ = 12						; size = 4
??5@YAAAVCAr@@AAV0@AAUD3DXVECTOR3@@@Z PROC NEAR		; operator>>, COMDAT

; 160  : 	{	ar.Read( &v, sizeof(D3DXVECTOR3) );		return ar;	}

  00000	8b 44 24 08	 mov	 eax, DWORD PTR _v$[esp-4]
  00004	56		 push	 esi
  00005	8b 74 24 08	 mov	 esi, DWORD PTR _ar$[esp]
  00009	6a 0c		 push	 12			; 0000000cH
  0000b	50		 push	 eax
  0000c	8b ce		 mov	 ecx, esi
  0000e	e8 00 00 00 00	 call	 ?Read@CAr@@QAEXPAXI@Z	; CAr::Read
  00013	8b c6		 mov	 eax, esi
  00015	5e		 pop	 esi
  00016	c3		 ret	 0
??5@YAAAVCAr@@AAV0@AAUD3DXVECTOR3@@@Z ENDP		; operator>>
_TEXT	ENDS
PUBLIC	??5@YAAAVCAr@@AAV0@AA_J@Z			; operator>>
; Function compile flags: /Ogty
;	COMDAT ??5@YAAAVCAr@@AAV0@AA_J@Z
_TEXT	SEGMENT
_ar$ = 8						; size = 4
_i$ = 12						; size = 4
??5@YAAAVCAr@@AAV0@AA_J@Z PROC NEAR			; operator>>, COMDAT

; 166  : 	{	ar.Read( &i, sizeof(__int64) );	return ar;	}

  00000	8b 44 24 08	 mov	 eax, DWORD PTR _i$[esp-4]
  00004	56		 push	 esi
  00005	8b 74 24 08	 mov	 esi, DWORD PTR _ar$[esp]
  00009	6a 08		 push	 8
  0000b	50		 push	 eax
  0000c	8b ce		 mov	 ecx, esi
  0000e	e8 00 00 00 00	 call	 ?Read@CAr@@QAEXPAXI@Z	; CAr::Read
  00013	8b c6		 mov	 eax, esi
  00015	5e		 pop	 esi
  00016	c3		 ret	 0
??5@YAAAVCAr@@AAV0@AA_J@Z ENDP				; operator>>
_TEXT	ENDS
PUBLIC	??B?$CSimpleStringT@D$0A@@ATL@@QBEPBDXZ		; ATL::CSimpleStringT<char,0>::operator char const *
; Function compile flags: /Ogty
; File c:\program files\microsoft visual studio .net 2003\vc7\atlmfc\include\atlsimpstr.h
;	COMDAT ??B?$CSimpleStringT@D$0A@@ATL@@QBEPBDXZ
_TEXT	SEGMENT
??B?$CSimpleStringT@D$0A@@ATL@@QBEPBDXZ PROC NEAR	; ATL::CSimpleStringT<char,0>::operator char const *, COMDAT
; _this$ = ecx

; 379  : 		return( m_pszData );

  00000	8b 01		 mov	 eax, DWORD PTR [ecx]

; 380  : 	}

  00002	c3		 ret	 0
??B?$CSimpleStringT@D$0A@@ATL@@QBEPBDXZ ENDP		; ATL::CSimpleStringT<char,0>::operator char const *
_TEXT	ENDS
PUBLIC	?GetString@?$CSimpleStringT@D$0A@@ATL@@QBEPBDXZ	; ATL::CSimpleStringT<char,0>::GetString
; Function compile flags: /Ogty
;	COMDAT ?GetString@?$CSimpleStringT@D$0A@@ATL@@QBEPBDXZ
_TEXT	SEGMENT
?GetString@?$CSimpleStringT@D$0A@@ATL@@QBEPBDXZ PROC NEAR ; ATL::CSimpleStringT<char,0>::GetString, COMDAT
; _this$ = ecx

; 510  : 		return( m_pszData );

  00000	8b 01		 mov	 eax, DWORD PTR [ecx]

; 511  : 	}

  00002	c3		 ret	 0
?GetString@?$CSimpleStringT@D$0A@@ATL@@QBEPBDXZ ENDP	; ATL::CSimpleStringT<char,0>::GetString
_TEXT	ENDS
PUBLIC	?StringLength@?$CSimpleStringT@D$0A@@ATL@@SAHPBD@Z ; ATL::CSimpleStringT<char,0>::StringLength
; Function compile flags: /Ogty
;	COMDAT ?StringLength@?$CSimpleStringT@D$0A@@ATL@@SAHPBD@Z
_TEXT	SEGMENT
_psz$ = 8						; size = 4
?StringLength@?$CSimpleStringT@D$0A@@ATL@@SAHPBD@Z PROC NEAR ; ATL::CSimpleStringT<char,0>::StringLength, COMDAT

; 678  : 		if( psz == NULL )

  00000	8b 44 24 04	 mov	 eax, DWORD PTR _psz$[esp-4]
  00004	85 c0		 test	 eax, eax
  00006	75 01		 jne	 SHORT $L184226

; 683  : 	}

  00008	c3		 ret	 0
$L184226:

; 679  : 		{
; 680  : 			return( 0 );
; 681  : 		}
; 682  : 		return( int( strlen( psz ) ) );

  00009	8d 50 01	 lea	 edx, DWORD PTR [eax+1]
  0000c	8d 64 24 00	 npad	 4
$L210663:
  00010	8a 08		 mov	 cl, BYTE PTR [eax]
  00012	40		 inc	 eax
  00013	84 c9		 test	 cl, cl
  00015	75 f9		 jne	 SHORT $L210663
  00017	2b c2		 sub	 eax, edx

; 683  : 	}

  00019	c3		 ret	 0
?StringLength@?$CSimpleStringT@D$0A@@ATL@@SAHPBD@Z ENDP	; ATL::CSimpleStringT<char,0>::StringLength
_TEXT	ENDS
PUBLIC	?GetData@?$CSimpleStringT@D$0A@@ATL@@ABEPAUCStringData@2@XZ ; ATL::CSimpleStringT<char,0>::GetData
; Function compile flags: /Ogty
;	COMDAT ?GetData@?$CSimpleStringT@D$0A@@ATL@@ABEPAUCStringData@2@XZ
_TEXT	SEGMENT
?GetData@?$CSimpleStringT@D$0A@@ATL@@ABEPAUCStringData@2@XZ PROC NEAR ; ATL::CSimpleStringT<char,0>::GetData, COMDAT
; _this$ = ecx

; 731  : 		return( reinterpret_cast< CStringData* >( m_pszData )-1 );

  00000	8b 01		 mov	 eax, DWORD PTR [ecx]
  00002	83 e8 10	 sub	 eax, 16			; 00000010H

; 732  : 	}

  00005	c3		 ret	 0
?GetData@?$CSimpleStringT@D$0A@@ATL@@ABEPAUCStringData@2@XZ ENDP ; ATL::CSimpleStringT<char,0>::GetData
_TEXT	ENDS
PUBLIC	?SetLength@?$CSimpleStringT@D$0A@@ATL@@AAEXH@Z	; ATL::CSimpleStringT<char,0>::SetLength
; Function compile flags: /Ogty
;	COMDAT ?SetLength@?$CSimpleStringT@D$0A@@ATL@@AAEXH@Z
_TEXT	SEGMENT
_nLength$ = 8						; size = 4
?SetLength@?$CSimpleStringT@D$0A@@ATL@@AAEXH@Z PROC NEAR ; ATL::CSimpleStringT<char,0>::SetLength, COMDAT
; _this$ = ecx

; 790  : 		ATLASSERT( nLength >= 0 );
; 791  : 		ATLASSERT( nLength <= GetData()->nAllocLength );
; 792  : 
; 793  : 		if( nLength < 0 || nLength > GetData()->nAllocLength)

  00000	8b 44 24 04	 mov	 eax, DWORD PTR _nLength$[esp-4]
  00004	85 c0		 test	 eax, eax
  00006	7c 13		 jl	 SHORT $L184241
  00008	8b 11		 mov	 edx, DWORD PTR [ecx]
  0000a	3b 42 f8	 cmp	 eax, DWORD PTR [edx-8]
  0000d	7f 0c		 jg	 SHORT $L184241

; 794  : 			AtlThrow(E_INVALIDARG);
; 795  : 			
; 796  : 		GetData()->nDataLength = nLength;

  0000f	89 42 f4	 mov	 DWORD PTR [edx-12], eax

; 797  : 		m_pszData[nLength] = 0;

  00012	8b 09		 mov	 ecx, DWORD PTR [ecx]
  00014	c6 04 08 00	 mov	 BYTE PTR [eax+ecx], 0

; 798  : 	}

  00018	c2 04 00	 ret	 4
$L184241:
  0001b	68 57 00 07 80	 push	 -2147024809		; 80070057H
  00020	e8 00 00 00 00	 call	 ?AtlThrow@ATL@@YGXJ@Z	; ATL::AtlThrow
$L210674:
  00025	cc		 int	 3
?SetLength@?$CSimpleStringT@D$0A@@ATL@@AAEXH@Z ENDP	; ATL::CSimpleStringT<char,0>::SetLength
_TEXT	ENDS
PUBLIC	?FindStringResourceInstance@?$StrTraitMFC@DV?$ChTraitsCRT@D@ATL@@@@SAPAUHINSTANCE__@@I@Z ; StrTraitMFC<char,ATL::ChTraitsCRT<char> >::FindStringResourceInstance
EXTRN	?AfxFindStringResourceHandle@@YGPAUHINSTANCE__@@I@Z:NEAR ; AfxFindStringResourceHandle
; Function compile flags: /Ogty
; File c:\program files\microsoft visual studio .net 2003\vc7\atlmfc\include\afxstr.h
;	COMDAT ?FindStringResourceInstance@?$StrTraitMFC@DV?$ChTraitsCRT@D@ATL@@@@SAPAUHINSTANCE__@@I@Z
_TEXT	SEGMENT
_nID$ = 8						; size = 4
?FindStringResourceInstance@?$StrTraitMFC@DV?$ChTraitsCRT@D@ATL@@@@SAPAUHINSTANCE__@@I@Z PROC NEAR ; StrTraitMFC<char,ATL::ChTraitsCRT<char> >::FindStringResourceInstance, COMDAT

; 45   : 		return( AfxFindStringResourceHandle( nID ) );

  00000	8b 44 24 04	 mov	 eax, DWORD PTR _nID$[esp-4]
  00004	50		 push	 eax
  00005	e8 00 00 00 00	 call	 ?AfxFindStringResourceHandle@@YGPAUHINSTANCE__@@I@Z ; AfxFindStringResourceHandle

; 46   : 	}

  0000a	c3		 ret	 0
?FindStringResourceInstance@?$StrTraitMFC@DV?$ChTraitsCRT@D@ATL@@@@SAPAUHINSTANCE__@@I@Z ENDP ; StrTraitMFC<char,ATL::ChTraitsCRT<char> >::FindStringResourceInstance
_TEXT	ENDS
PUBLIC	?GetDefaultManager@?$StrTraitMFC@DV?$ChTraitsCRT@D@ATL@@@@SAPAUIAtlStringMgr@ATL@@XZ ; StrTraitMFC<char,ATL::ChTraitsCRT<char> >::GetDefaultManager
EXTRN	?AfxGetStringManager@@YGPAUIAtlStringMgr@ATL@@XZ:NEAR ; AfxGetStringManager
; Function compile flags: /Ogty
;	COMDAT ?GetDefaultManager@?$StrTraitMFC@DV?$ChTraitsCRT@D@ATL@@@@SAPAUIAtlStringMgr@ATL@@XZ
_TEXT	SEGMENT
?GetDefaultManager@?$StrTraitMFC@DV?$ChTraitsCRT@D@ATL@@@@SAPAUIAtlStringMgr@ATL@@XZ PROC NEAR ; StrTraitMFC<char,ATL::ChTraitsCRT<char> >::GetDefaultManager, COMDAT

; 50   : 		return( AfxGetStringManager() );

  00000	e9 00 00 00 00	 jmp	 ?AfxGetStringManager@@YGPAUIAtlStringMgr@ATL@@XZ ; AfxGetStringManager
?GetDefaultManager@?$StrTraitMFC@DV?$ChTraitsCRT@D@ATL@@@@SAPAUIAtlStringMgr@ATL@@XZ ENDP ; StrTraitMFC<char,ATL::ChTraitsCRT<char> >::GetDefaultManager
_TEXT	ENDS
PUBLIC	?StringFindString@?$ChTraitsCRT@D@ATL@@SAPBDPBD0@Z ; ATL::ChTraitsCRT<char>::StringFindString
EXTRN	__mbsstr:NEAR
; Function compile flags: /Ogty
; File c:\program files\microsoft visual studio .net 2003\vc7\atlmfc\include\cstringt.h
;	COMDAT ?StringFindString@?$ChTraitsCRT@D@ATL@@SAPBDPBD0@Z
_TEXT	SEGMENT
_pszBlock$ = 8						; size = 4
_pszMatch$ = 12						; size = 4
?StringFindString@?$ChTraitsCRT@D@ATL@@SAPBDPBD0@Z PROC NEAR ; ATL::ChTraitsCRT<char>::StringFindString, COMDAT

; 356  : 		return reinterpret_cast< LPCSTR >( _mbsstr( reinterpret_cast< const unsigned char* >( pszBlock ),
; 357  : 			reinterpret_cast< const unsigned char* >( pszMatch ) ) );

  00000	e9 00 00 00 00	 jmp	 __mbsstr
?StringFindString@?$ChTraitsCRT@D@ATL@@SAPBDPBD0@Z ENDP	; ATL::ChTraitsCRT<char>::StringFindString
_TEXT	ENDS
PUBLIC	?Attach@?$CSimpleStringT@D$0A@@ATL@@AAEXPAUCStringData@2@@Z ; ATL::CSimpleStringT<char,0>::Attach
; Function compile flags: /Ogty
; File c:\program files\microsoft visual studio .net 2003\vc7\atlmfc\include\atlsimpstr.h
;	COMDAT ?Attach@?$CSimpleStringT@D$0A@@ATL@@AAEXPAUCStringData@2@@Z
_TEXT	SEGMENT
_pData$ = 8						; size = 4
?Attach@?$CSimpleStringT@D$0A@@ATL@@AAEXPAUCStringData@2@@Z PROC NEAR ; ATL::CSimpleStringT<char,0>::Attach, COMDAT
; _this$ = ecx

; 712  : 		m_pszData = static_cast< PXSTR >( pData->data() );

  00000	8b 44 24 04	 mov	 eax, DWORD PTR _pData$[esp-4]
  00004	83 c0 10	 add	 eax, 16			; 00000010H
  00007	89 01		 mov	 DWORD PTR [ecx], eax

; 713  : 	}

  00009	c2 04 00	 ret	 4
?Attach@?$CSimpleStringT@D$0A@@ATL@@AAEXPAUCStringData@2@@Z ENDP ; ATL::CSimpleStringT<char,0>::Attach
_TEXT	ENDS
PUBLIC	?GetBaseTypeLength@?$ChTraitsCRT@D@ATL@@SAHPBGH@Z ; ATL::ChTraitsCRT<char>::GetBaseTypeLength
EXTRN	__imp__WideCharToMultiByte@32:NEAR
; Function compile flags: /Ogty
; File c:\program files\microsoft visual studio .net 2003\vc7\atlmfc\include\cstringt.h
;	COMDAT ?GetBaseTypeLength@?$ChTraitsCRT@D@ATL@@SAHPBGH@Z
_TEXT	SEGMENT
_pszSource$ = 8						; size = 4
_nLength$ = 12						; size = 4
?GetBaseTypeLength@?$ChTraitsCRT@D@ATL@@SAHPBGH@Z PROC NEAR ; ATL::ChTraitsCRT<char>::GetBaseTypeLength, COMDAT

; 437  : 		// Returns required buffer length in XCHARs
; 438  : 		return ::WideCharToMultiByte( _AtlGetConversionACP(), 0, pszSource, nLength, NULL, 0, NULL, NULL );

  00000	ff 15 00 00 00
	00		 call	 DWORD PTR ?g_pfnGetThreadACP@ATL@@3P6GIXZA ; ATL::g_pfnGetThreadACP
  00006	8b 4c 24 08	 mov	 ecx, DWORD PTR _nLength$[esp-4]
  0000a	8b 54 24 04	 mov	 edx, DWORD PTR _pszSource$[esp-4]
  0000e	6a 00		 push	 0
  00010	6a 00		 push	 0
  00012	6a 00		 push	 0
  00014	6a 00		 push	 0
  00016	51		 push	 ecx
  00017	52		 push	 edx
  00018	6a 00		 push	 0
  0001a	50		 push	 eax
  0001b	ff 15 00 00 00
	00		 call	 DWORD PTR __imp__WideCharToMultiByte@32

; 439  : 	}

  00021	c3		 ret	 0
?GetBaseTypeLength@?$ChTraitsCRT@D@ATL@@SAHPBGH@Z ENDP	; ATL::ChTraitsCRT<char>::GetBaseTypeLength
_TEXT	ENDS
PUBLIC	?ConvertToBaseType@?$ChTraitsCRT@D@ATL@@SAXPADHPBGH@Z ; ATL::ChTraitsCRT<char>::ConvertToBaseType
; Function compile flags: /Ogty
;	COMDAT ?ConvertToBaseType@?$ChTraitsCRT@D@ATL@@SAXPADHPBGH@Z
_TEXT	SEGMENT
_pszDest$ = 8						; size = 4
_nDestLength$ = 12					; size = 4
_pszSrc$ = 16						; size = 4
_nSrcLength$ = 20					; size = 4
?ConvertToBaseType@?$ChTraitsCRT@D@ATL@@SAXPADHPBGH@Z PROC NEAR ; ATL::ChTraitsCRT<char>::ConvertToBaseType, COMDAT

; 452  : 		// nLen is in XCHARs
; 453  : 		::WideCharToMultiByte( _AtlGetConversionACP(), 0, pszSrc, nSrcLength, pszDest, nDestLength, NULL, NULL );

  00000	8b 44 24 08	 mov	 eax, DWORD PTR _nDestLength$[esp-4]
  00004	8b 4c 24 04	 mov	 ecx, DWORD PTR _pszDest$[esp-4]
  00008	8b 54 24 10	 mov	 edx, DWORD PTR _nSrcLength$[esp-4]
  0000c	6a 00		 push	 0
  0000e	6a 00		 push	 0
  00010	50		 push	 eax
  00011	8b 44 24 18	 mov	 eax, DWORD PTR _pszSrc$[esp+8]
  00015	51		 push	 ecx
  00016	52		 push	 edx
  00017	50		 push	 eax
  00018	6a 00		 push	 0
  0001a	ff 15 00 00 00
	00		 call	 DWORD PTR ?g_pfnGetThreadACP@ATL@@3P6GIXZA ; ATL::g_pfnGetThreadACP
  00020	50		 push	 eax
  00021	ff 15 00 00 00
	00		 call	 DWORD PTR __imp__WideCharToMultiByte@32

; 454  : 	}

  00027	c3		 ret	 0
?ConvertToBaseType@?$ChTraitsCRT@D@ATL@@SAXPADHPBGH@Z ENDP ; ATL::ChTraitsCRT<char>::ConvertToBaseType
_TEXT	ENDS
PUBLIC	?CopyChars@?$CSimpleStringT@D$0A@@ATL@@SAXPADPBDH@Z ; ATL::CSimpleStringT<char,0>::CopyChars
; Function compile flags: /Ogty
; File c:\program files\microsoft visual studio .net 2003\vc7\atlmfc\include\atlsimpstr.h
;	COMDAT ?CopyChars@?$CSimpleStringT@D$0A@@ATL@@SAXPADPBDH@Z
_TEXT	SEGMENT
_pchDest$ = 8						; size = 4
_pchSrc$ = 12						; size = 4
_nChars$ = 16						; size = 4
?CopyChars@?$CSimpleStringT@D$0A@@ATL@@SAXPADPBDH@Z PROC NEAR ; ATL::CSimpleStringT<char,0>::CopyChars, COMDAT

; 653  : 		memcpy( pchDest, pchSrc, nChars*sizeof( XCHAR ) );

  00000	8b 4c 24 0c	 mov	 ecx, DWORD PTR _nChars$[esp-4]
  00004	56		 push	 esi
  00005	8b 74 24 0c	 mov	 esi, DWORD PTR _pchSrc$[esp]
  00009	8b c1		 mov	 eax, ecx
  0000b	57		 push	 edi
  0000c	8b 7c 24 0c	 mov	 edi, DWORD PTR _pchDest$[esp+4]
  00010	c1 e9 02	 shr	 ecx, 2
  00013	f3 a5		 rep movsd
  00015	8b c8		 mov	 ecx, eax
  00017	83 e1 03	 and	 ecx, 3
  0001a	f3 a4		 rep movsb
  0001c	5f		 pop	 edi
  0001d	5e		 pop	 esi

; 654  : 	}

  0001e	c3		 ret	 0
?CopyChars@?$CSimpleStringT@D$0A@@ATL@@SAXPADPBDH@Z ENDP ; ATL::CSimpleStringT<char,0>::CopyChars
_TEXT	ENDS
PUBLIC	?CopyCharsOverlapped@?$CSimpleStringT@D$0A@@ATL@@SAXPADPBDH@Z ; ATL::CSimpleStringT<char,0>::CopyCharsOverlapped
EXTRN	_memmove:NEAR
; Function compile flags: /Ogty
;	COMDAT ?CopyCharsOverlapped@?$CSimpleStringT@D$0A@@ATL@@SAXPADPBDH@Z
_TEXT	SEGMENT
_pchDest$ = 8						; size = 4
_pchSrc$ = 12						; size = 4
_nChars$ = 16						; size = 4
?CopyCharsOverlapped@?$CSimpleStringT@D$0A@@ATL@@SAXPADPBDH@Z PROC NEAR ; ATL::CSimpleStringT<char,0>::CopyCharsOverlapped, COMDAT

; 657  : 		memmove( pchDest, pchSrc, nChars*sizeof( XCHAR ) );

  00000	e9 00 00 00 00	 jmp	 _memmove
?CopyCharsOverlapped@?$CSimpleStringT@D$0A@@ATL@@SAXPADPBDH@Z ENDP ; ATL::CSimpleStringT<char,0>::CopyCharsOverlapped
_TEXT	ENDS
PUBLIC	?ThrowMemoryException@?$CSimpleStringT@D$0A@@ATL@@KAXXZ ; ATL::CSimpleStringT<char,0>::ThrowMemoryException
; Function compile flags: /Ogty
;	COMDAT ?ThrowMemoryException@?$CSimpleStringT@D$0A@@ATL@@KAXXZ
_TEXT	SEGMENT
?ThrowMemoryException@?$CSimpleStringT@D$0A@@ATL@@KAXXZ PROC NEAR ; ATL::CSimpleStringT<char,0>::ThrowMemoryException, COMDAT

; 705  : 		AtlThrow( E_OUTOFMEMORY );

  00000	68 0e 00 07 80	 push	 -2147024882		; 8007000eH
  00005	e8 00 00 00 00	 call	 ?AtlThrow@ATL@@YGXJ@Z	; ATL::AtlThrow
$L210705:
  0000a	cc		 int	 3
?ThrowMemoryException@?$CSimpleStringT@D$0A@@ATL@@KAXXZ ENDP ; ATL::CSimpleStringT<char,0>::ThrowMemoryException
_TEXT	ENDS
PUBLIC	?Fork@?$CSimpleStringT@D$0A@@ATL@@AAEXH@Z	; ATL::CSimpleStringT<char,0>::Fork
; Function compile flags: /Ogty
;	COMDAT ?Fork@?$CSimpleStringT@D$0A@@ATL@@AAEXH@Z
_TEXT	SEGMENT
_this$ = -4						; size = 4
tv181 = 8						; size = 4
_nLength$ = 8						; size = 4
?Fork@?$CSimpleStringT@D$0A@@ATL@@AAEXH@Z PROC NEAR	; ATL::CSimpleStringT<char,0>::Fork, COMDAT
; _this$ = ecx

; 715  : 	{

  00000	51		 push	 ecx
  00001	53		 push	 ebx

; 716  : 		CStringData* pOldData = GetData();

  00002	8b 19		 mov	 ebx, DWORD PTR [ecx]
  00004	83 eb 10	 sub	 ebx, 16			; 00000010H
  00007	55		 push	 ebp

; 717  : 		int nOldLength = pOldData->nDataLength;

  00008	8b 6b 04	 mov	 ebp, DWORD PTR [ebx+4]
  0000b	89 4c 24 08	 mov	 DWORD PTR _this$[esp+12], ecx

; 718  : 		CStringData* pNewData = pOldData->pStringMgr->Clone()->Allocate( nLength, sizeof( XCHAR ) );

  0000f	8b 0b		 mov	 ecx, DWORD PTR [ebx]
  00011	8b 01		 mov	 eax, DWORD PTR [ecx]
  00013	56		 push	 esi
  00014	ff 50 10	 call	 DWORD PTR [eax+16]
  00017	8b 74 24 14	 mov	 esi, DWORD PTR _nLength$[esp+12]
  0001b	8b 10		 mov	 edx, DWORD PTR [eax]
  0001d	6a 01		 push	 1
  0001f	56		 push	 esi
  00020	8b c8		 mov	 ecx, eax
  00022	ff 12		 call	 DWORD PTR [edx]

; 719  : 		if( pNewData == NULL )

  00024	85 c0		 test	 eax, eax
  00026	75 05		 jne	 SHORT $L185534

; 720  : 		{
; 721  : 			ThrowMemoryException();

  00028	e8 00 00 00 00	 call	 ?ThrowMemoryException@?$CSimpleStringT@D$0A@@ATL@@KAXXZ ; ATL::CSimpleStringT<char,0>::ThrowMemoryException
$L185534:

; 722  : 		}
; 723  : 		int nCharsToCopy = ((nOldLength < nLength) ? nOldLength : nLength)+1;  // Copy '\0'

  0002d	3b ee		 cmp	 ebp, esi
  0002f	7d 02		 jge	 SHORT $L210709
  00031	8b f5		 mov	 esi, ebp
$L210709:
  00033	8d 4e 01	 lea	 ecx, DWORD PTR [esi+1]

; 724  : 		CopyChars( PXSTR( pNewData->data() ), PCXSTR( pOldData->data() ), nCharsToCopy );

  00036	8b d1		 mov	 edx, ecx
  00038	57		 push	 edi
  00039	c1 e9 02	 shr	 ecx, 2
  0003c	8d 78 10	 lea	 edi, DWORD PTR [eax+16]
  0003f	89 7c 24 18	 mov	 DWORD PTR tv181[esp+16], edi
  00043	8d 73 10	 lea	 esi, DWORD PTR [ebx+16]
  00046	f3 a5		 rep movsd
  00048	8b ca		 mov	 ecx, edx
  0004a	83 e1 03	 and	 ecx, 3
  0004d	f3 a4		 rep movsb

; 725  : 		pNewData->nDataLength = nOldLength;

  0004f	89 68 04	 mov	 DWORD PTR [eax+4], ebp

; 726  : 		pOldData->Release();

  00052	8d 43 0c	 lea	 eax, DWORD PTR [ebx+12]
  00055	83 c9 ff	 or	 ecx, -1
  00058	f0 0f c1 08	 lock	  xadd	 DWORD PTR [eax], ecx
  0005c	49		 dec	 ecx
  0005d	85 c9		 test	 ecx, ecx
  0005f	5f		 pop	 edi
  00060	7f 08		 jg	 SHORT $L210725
  00062	8b 0b		 mov	 ecx, DWORD PTR [ebx]
  00064	8b 11		 mov	 edx, DWORD PTR [ecx]
  00066	53		 push	 ebx
  00067	ff 52 04	 call	 DWORD PTR [edx+4]
$L210725:

; 727  : 		Attach( pNewData );

  0006a	8b 44 24 14	 mov	 eax, DWORD PTR tv181[esp+12]
  0006e	8b 4c 24 0c	 mov	 ecx, DWORD PTR _this$[esp+16]
  00072	5e		 pop	 esi
  00073	5d		 pop	 ebp
  00074	89 01		 mov	 DWORD PTR [ecx], eax
  00076	5b		 pop	 ebx

; 728  : 	}

  00077	59		 pop	 ecx
  00078	c2 04 00	 ret	 4
$L210734:
?Fork@?$CSimpleStringT@D$0A@@ATL@@AAEXH@Z ENDP		; ATL::CSimpleStringT<char,0>::Fork
_TEXT	ENDS
PUBLIC	?Reallocate@?$CSimpleStringT@D$0A@@ATL@@AAEXH@Z	; ATL::CSimpleStringT<char,0>::Reallocate
; Function compile flags: /Ogty
;	COMDAT ?Reallocate@?$CSimpleStringT@D$0A@@ATL@@AAEXH@Z
_TEXT	SEGMENT
_nLength$ = 8						; size = 4
?Reallocate@?$CSimpleStringT@D$0A@@ATL@@AAEXH@Z PROC NEAR ; ATL::CSimpleStringT<char,0>::Reallocate, COMDAT
; _this$ = ecx

; 776  : 	{

  00000	56		 push	 esi
  00001	57		 push	 edi

; 777  : 		CStringData* pOldData = GetData();
; 778  : 		ATLASSERT( pOldData->nAllocLength < nLength );
; 779  : 		IAtlStringMgr* pStringMgr = pOldData->pStringMgr;
; 780  : 		CStringData* pNewData = pStringMgr->Reallocate( pOldData, nLength, sizeof( XCHAR ) );

  00002	8b 7c 24 0c	 mov	 edi, DWORD PTR _nLength$[esp+4]
  00006	8b f1		 mov	 esi, ecx
  00008	8b 06		 mov	 eax, DWORD PTR [esi]
  0000a	8b 48 f0	 mov	 ecx, DWORD PTR [eax-16]
  0000d	8b 11		 mov	 edx, DWORD PTR [ecx]
  0000f	83 e8 10	 sub	 eax, 16			; 00000010H
  00012	6a 01		 push	 1
  00014	57		 push	 edi
  00015	50		 push	 eax
  00016	ff 52 08	 call	 DWORD PTR [edx+8]

; 781  : 		if( pNewData == NULL )

  00019	85 c0		 test	 eax, eax
  0001b	75 05		 jne	 SHORT $L185543

; 782  : 		{
; 783  : 			ThrowMemoryException();

  0001d	e8 00 00 00 00	 call	 ?ThrowMemoryException@?$CSimpleStringT@D$0A@@ATL@@KAXXZ ; ATL::CSimpleStringT<char,0>::ThrowMemoryException
$L185543:

; 784  : 		}
; 785  : 		Attach( pNewData );

  00022	83 c0 10	 add	 eax, 16			; 00000010H
  00025	5f		 pop	 edi
  00026	89 06		 mov	 DWORD PTR [esi], eax
  00028	5e		 pop	 esi

; 786  : 	}

  00029	c2 04 00	 ret	 4
$L210748:
?Reallocate@?$CSimpleStringT@D$0A@@ATL@@AAEXH@Z ENDP	; ATL::CSimpleStringT<char,0>::Reallocate
_TEXT	ENDS
PUBLIC	?GetTickCount@CTime@ATL@@SG?AV12@XZ		; ATL::CTime::GetTickCount
EXTRN	__time64:NEAR
; Function compile flags: /Ogty
; File c:\program files\microsoft visual studio .net 2003\vc7\atlmfc\include\atltime.inl
;	COMDAT ?GetTickCount@CTime@ATL@@SG?AV12@XZ
_TEXT	SEGMENT
___$ReturnUdt$ = 8					; size = 4
?GetTickCount@CTime@ATL@@SG?AV12@XZ PROC NEAR		; ATL::CTime::GetTickCount, COMDAT

; 139  : 	return( CTime( ::_time64( NULL ) ) );

  00000	6a 00		 push	 0
  00002	e8 00 00 00 00	 call	 __time64
  00007	8b 4c 24 08	 mov	 ecx, DWORD PTR ___$ReturnUdt$[esp]
  0000b	89 01		 mov	 DWORD PTR [ecx], eax
  0000d	83 c4 04	 add	 esp, 4
  00010	89 51 04	 mov	 DWORD PTR [ecx+4], edx
  00013	8b c1		 mov	 eax, ecx

; 140  : }

  00015	c2 04 00	 ret	 4
?GetTickCount@CTime@ATL@@SG?AV12@XZ ENDP		; ATL::CTime::GetTickCount
_TEXT	ENDS
PUBLIC	?LogSchool@CDbManager@@AAEXPAVCQuery@@PAUtagDB_OVERLAPPED_PLUS@@@Z ; CDbManager::LogSchool
PUBLIC	??_C@_09GBAEEKDE@?$CFs?0?5?$CFd?7?$CFs?$AA@	; `string'
PUBLIC	??_C@_0EO@NODPKHNH@LOG_EVENT_STR?5?$EAim_idPlayer?5?$DN?5?8?$CF0@ ; `string'
EXTRN	?FreeRequest@CDbManager@@QAEXPAUtagDB_OVERLAPPED_PLUS@@@Z:NEAR ; CDbManager::FreeRequest
EXTRN	__except_list:DWORD
EXTRN	__chkstk:NEAR
EXTRN	___CxxFrameHandler:NEAR
EXTRN	??0CAr@@QAE@PAXI@Z:NEAR				; CAr::CAr
EXTRN	??1CAr@@QAE@XZ:NEAR				; CAr::~CAr
EXTRN	?ReadString@CAr@@QAEPADPADH@Z:NEAR		; CAr::ReadString
;	COMDAT xdata$x
; File c:\documents and settings\test\mes documents\source\virtuos_v17\build\program\_network\misc\include\ar.h
xdata$x	SEGMENT
$T210775 DD	0ffffffffH
	DD	FLAT:$L210758
$T210770 DD	019930520H
	DD	01H
	DD	FLAT:$T210775
	DD	2 DUP(00H)
	DD	2 DUP(00H)
xdata$x	ENDS
;	COMDAT ??_C@_0EO@NODPKHNH@LOG_EVENT_STR?5?$EAim_idPlayer?5?$DN?5?8?$CF0@
CONST	SEGMENT
??_C@_0EO@NODPKHNH@LOG_EVENT_STR?5?$EAim_idPlayer?5?$DN?5?8?$CF0@ DB 'LOG'
	DB	'_EVENT_STR @im_idPlayer = ''%07d'',@iserverindex = ''%02d'', '
	DB	'@im_szName = ''%s''', 00H			; `string'
CONST	ENDS
;	COMDAT ??_C@_09GBAEEKDE@?$CFs?0?5?$CFd?7?$CFs?$AA@
CONST	SEGMENT
??_C@_09GBAEEKDE@?$CFs?0?5?$CFd?7?$CFs?$AA@ DB '%s, %d', 09H, '%s', 00H ; `string'
; Function compile flags: /Ogty
; File c:\documents and settings\test\mes documents\source\virtuos_v17\build\program\_database\dbmanagerlog.cpp
CONST	ENDS
;	COMDAT ?LogSchool@CDbManager@@AAEXPAVCQuery@@PAUtagDB_OVERLAPPED_PLUS@@@Z
_TEXT	SEGMENT
$T210764 = -57528					; size = 4
_uidPlayer$ = -57524					; size = 4
_arRead$ = -57520					; size = 16404
_szName$ = -41112					; size = 128
_szQuery$ = -40984					; size = 40960
__$ArrayPad$ = -20					; size = 4
__$EHRec$ = -12						; size = 12
__$ReturnAddr$ = 4					; size = 4
_qry$ = 8						; size = 4
_lpDbOverlappedPlus$ = 12				; size = 4
?LogSchool@CDbManager@@AAEXPAVCQuery@@PAUtagDB_OVERLAPPED_PLUS@@@Z PROC NEAR ; CDbManager::LogSchool, COMDAT
; _this$ = ecx

; 943  : {

  00000	55		 push	 ebp
  00001	8b ec		 mov	 ebp, esp
  00003	83 e4 f8	 and	 esp, -8			; fffffff8H
  00006	6a ff		 push	 -1
  00008	68 00 00 00 00	 push	 __ehhandler$?LogSchool@CDbManager@@AAEXPAVCQuery@@PAUtagDB_OVERLAPPED_PLUS@@@Z
  0000d	64 a1 00 00 00
	00		 mov	 eax, DWORD PTR fs:__except_list
  00013	50		 push	 eax
  00014	64 89 25 00 00
	00 00		 mov	 DWORD PTR fs:__except_list, esp
  0001b	51		 push	 ecx
  0001c	b8 ac e0 00 00	 mov	 eax, 57516		; 0000e0acH
  00021	e8 00 00 00 00	 call	 __chkstk
  00026	a1 00 00 00 00	 mov	 eax, DWORD PTR ___security_cookie
  0002b	53		 push	 ebx
  0002c	8b 5d 08	 mov	 ebx, DWORD PTR _qry$[ebp]
  0002f	56		 push	 esi
  00030	8b 75 0c	 mov	 esi, DWORD PTR _lpDbOverlappedPlus$[ebp]
  00033	33 c5		 xor	 eax, ebp
  00035	89 84 24 b0 e0
	00 00		 mov	 DWORD PTR __$ArrayPad$[esp+57540], eax

; 944  : 	CAr arRead( lpDbOverlappedPlus->lpBuf, lpDbOverlappedPlus->uBufSize );

  0003c	8b 46 1c	 mov	 eax, DWORD PTR [esi+28]
  0003f	57		 push	 edi
  00040	89 4c 24 10	 mov	 DWORD PTR $T210764[esp+57544], ecx
  00044	8b 4e 18	 mov	 ecx, DWORD PTR [esi+24]
  00047	50		 push	 eax
  00048	51		 push	 ecx
  00049	8d 4c 24 20	 lea	 ecx, DWORD PTR _arRead$[esp+57552]
  0004d	e8 00 00 00 00	 call	 ??0CAr@@QAE@PAXI@Z	; CAr::CAr

; 945  : 	
; 946  : 	u_long uidPlayer;
; 947  : 	char szName[128];
; 948  : 		
; 949  : 	arRead >> uidPlayer;

  00052	8b 4c 24 20	 mov	 ecx, DWORD PTR _arRead$[esp+57552]
  00056	8b 54 24 24	 mov	 edx, DWORD PTR _arRead$[esp+57556]
  0005a	33 ff		 xor	 edi, edi
  0005c	8d 41 04	 lea	 eax, DWORD PTR [ecx+4]
  0005f	3b c2		 cmp	 eax, edx
  00061	89 bc 24 c4 e0
	00 00		 mov	 DWORD PTR __$EHRec$[esp+57552], edi
  00068	77 0c		 ja	 SHORT $L210761
  0006a	8b 11		 mov	 edx, DWORD PTR [ecx]
  0006c	89 54 24 14	 mov	 DWORD PTR _uidPlayer$[esp+57544], edx
  00070	89 44 24 20	 mov	 DWORD PTR _arRead$[esp+57552], eax
  00074	eb 08		 jmp	 SHORT $L210762
$L210761:
  00076	89 7c 24 14	 mov	 DWORD PTR _uidPlayer$[esp+57544], edi
  0007a	89 54 24 20	 mov	 DWORD PTR _arRead$[esp+57552], edx
$L210762:

; 950  : 	arRead.ReadString( szName, 128 );

  0007e	68 80 00 00 00	 push	 128			; 00000080H
  00083	8d 84 24 34 40
	00 00		 lea	 eax, DWORD PTR _szName$[esp+57548]
  0008a	50		 push	 eax
  0008b	8d 4c 24 20	 lea	 ecx, DWORD PTR _arRead$[esp+57552]
  0008f	e8 00 00 00 00	 call	 ?ReadString@CAr@@QAEPADPADH@Z ; CAr::ReadString

; 951  : 	
; 952  : 	//LOG_EVENT_STR @im_idPlayer = '000001',@iserverindex = '00'
; 953  : 	char szQuery[QUERY_SIZE]	= { 0,};
; 954  : 	sprintf( szQuery, "LOG_EVENT_STR @im_idPlayer = '%07d',@iserverindex = '%02d', @im_szName = '%s'", uidPlayer, g_appInfo.dwSys, szName );

  00094	8b 15 00 00 00
	00		 mov	 edx, DWORD PTR ?g_appInfo@@3UAppInfo@@A
  0009a	33 c0		 xor	 eax, eax
  0009c	c6 84 24 b0 40
	00 00 00	 mov	 BYTE PTR _szQuery$[esp+57544], 0
  000a4	b9 ff 27 00 00	 mov	 ecx, 10239		; 000027ffH
  000a9	8d bc 24 b1 40
	00 00		 lea	 edi, DWORD PTR _szQuery$[esp+57545]
  000b0	f3 ab		 rep stosd
  000b2	66 ab		 stosw
  000b4	8d 8c 24 30 40
	00 00		 lea	 ecx, DWORD PTR _szName$[esp+57544]
  000bb	51		 push	 ecx
  000bc	52		 push	 edx
  000bd	aa		 stosb
  000be	8b 44 24 1c	 mov	 eax, DWORD PTR _uidPlayer$[esp+57552]
  000c2	50		 push	 eax
  000c3	8d 8c 24 bc 40
	00 00		 lea	 ecx, DWORD PTR _szQuery$[esp+57556]
  000ca	68 00 00 00 00	 push	 OFFSET FLAT:??_C@_0EO@NODPKHNH@LOG_EVENT_STR?5?$EAim_idPlayer?5?$DN?5?8?$CF0@
  000cf	51		 push	 ecx
  000d0	e8 00 00 00 00	 call	 _sprintf
  000d5	83 c4 14	 add	 esp, 20			; 00000014H

; 955  : 
; 956  : 	if ( FALSE == qry->Exec( szQuery ) )

  000d8	8d 94 24 b0 40
	00 00		 lea	 edx, DWORD PTR _szQuery$[esp+57544]
  000df	52		 push	 edx
  000e0	8b cb		 mov	 ecx, ebx
  000e2	e8 00 00 00 00	 call	 ?Exec@CQuery@@QAEHPBD@Z	; CQuery::Exec
  000e7	85 c0		 test	 eax, eax
  000e9	75 18		 jne	 SHORT $L208674

; 957  : 	{
; 958  : 		WriteLog( "%s, %d\t%s", __FILE__, __LINE__, qry );

  000eb	53		 push	 ebx
  000ec	68 be 03 00 00	 push	 958			; 000003beH
  000f1	68 00 00 00 00	 push	 OFFSET FLAT:??_C@_0GH@LHPNFEPP@?2Documents?5and?5Settings?2test?2Mes@
  000f6	68 00 00 00 00	 push	 OFFSET FLAT:??_C@_09GBAEEKDE@?$CFs?0?5?$CFd?7?$CFs?$AA@
  000fb	e8 00 00 00 00	 call	 ?WriteLog@@YAXPBDZZ	; WriteLog
  00100	83 c4 10	 add	 esp, 16			; 00000010H
$L208674:

; 959  : 		FreeRequest( lpDbOverlappedPlus );
; 960  : 		return;
; 961  : 	}
; 962  : 			
; 963  : //	qry->Clear();
; 964  : 		
; 965  : 	FreeRequest( lpDbOverlappedPlus );

  00103	8b 4c 24 10	 mov	 ecx, DWORD PTR $T210764[esp+57544]
  00107	56		 push	 esi
  00108	e8 00 00 00 00	 call	 ?FreeRequest@CDbManager@@QAEXPAUtagDB_OVERLAPPED_PLUS@@@Z ; CDbManager::FreeRequest

; 966  : }

  0010d	8d 4c 24 18	 lea	 ecx, DWORD PTR _arRead$[esp+57544]
  00111	c7 84 24 c4 e0
	00 00 ff ff ff
	ff		 mov	 DWORD PTR __$EHRec$[esp+57552], -1
  0011c	e8 00 00 00 00	 call	 ??1CAr@@QAE@XZ		; CAr::~CAr
  00121	8b 8c 24 bc e0
	00 00		 mov	 ecx, DWORD PTR __$EHRec$[esp+57544]
  00128	64 89 0d 00 00
	00 00		 mov	 DWORD PTR fs:__except_list, ecx
  0012f	8b 8c 24 b4 e0
	00 00		 mov	 ecx, DWORD PTR __$ArrayPad$[esp+57544]
  00136	5f		 pop	 edi
  00137	5e		 pop	 esi
  00138	33 cd		 xor	 ecx, ebp
  0013a	5b		 pop	 ebx
  0013b	e8 00 00 00 00	 call	 @__security_check_cookie@4
  00140	8b e5		 mov	 esp, ebp
  00142	5d		 pop	 ebp
  00143	c2 08 00	 ret	 8
_TEXT	ENDS
;	COMDAT text$x
text$x	SEGMENT
$L210758:
  00000	8d 8d 50 1f ff
	ff		 lea	 ecx, DWORD PTR _arRead$[ebp]
  00006	e9 00 00 00 00	 jmp	 ??1CAr@@QAE@XZ		; CAr::~CAr
__ehhandler$?LogSchool@CDbManager@@AAEXPAVCQuery@@PAUtagDB_OVERLAPPED_PLUS@@@Z:
  0000b	b8 00 00 00 00	 mov	 eax, OFFSET FLAT:$T210770
  00010	e9 00 00 00 00	 jmp	 ___CxxFrameHandler
text$x	ENDS
?LogSchool@CDbManager@@AAEXPAVCQuery@@PAUtagDB_OVERLAPPED_PLUS@@@Z ENDP ; CDbManager::LogSchool
PUBLIC	?GetBuffer@?$CSimpleStringT@D$0A@@ATL@@QAEPADXZ	; ATL::CSimpleStringT<char,0>::GetBuffer
; Function compile flags: /Ogty
; File c:\program files\microsoft visual studio .net 2003\vc7\atlmfc\include\atlsimpstr.h
;	COMDAT ?GetBuffer@?$CSimpleStringT@D$0A@@ATL@@QAEPADXZ
_TEXT	SEGMENT
?GetBuffer@?$CSimpleStringT@D$0A@@ATL@@QAEPADXZ PROC NEAR ; ATL::CSimpleStringT<char,0>::GetBuffer, COMDAT
; _this$ = ecx

; 479  : 	{

  00000	56		 push	 esi
  00001	8b f1		 mov	 esi, ecx

; 480  : 		CStringData* pData = GetData();

  00003	8b 06		 mov	 eax, DWORD PTR [esi]

; 481  : 		if( pData->IsShared() )

  00005	8b 48 fc	 mov	 ecx, DWORD PTR [eax-4]
  00008	83 e8 10	 sub	 eax, 16			; 00000010H
  0000b	83 f9 01	 cmp	 ecx, 1
  0000e	7e 0b		 jle	 SHORT $L210786

; 482  : 		{
; 483  : 			Fork( pData->nDataLength );

  00010	8b 40 04	 mov	 eax, DWORD PTR [eax+4]
  00013	50		 push	 eax
  00014	8b ce		 mov	 ecx, esi
  00016	e8 00 00 00 00	 call	 ?Fork@?$CSimpleStringT@D$0A@@ATL@@AAEXH@Z ; ATL::CSimpleStringT<char,0>::Fork
$L210786:

; 484  : 		}
; 485  : 
; 486  : 		return( m_pszData );

  0001b	8b 06		 mov	 eax, DWORD PTR [esi]
  0001d	5e		 pop	 esi

; 487  : 	}

  0001e	c3		 ret	 0
?GetBuffer@?$CSimpleStringT@D$0A@@ATL@@QAEPADXZ ENDP	; ATL::CSimpleStringT<char,0>::GetBuffer
_TEXT	ENDS
PUBLIC	?StringFindString@?$ChTraitsCRT@D@ATL@@SAPADPADPBD@Z ; ATL::ChTraitsCRT<char>::StringFindString
; Function compile flags: /Ogty
; File c:\program files\microsoft visual studio .net 2003\vc7\atlmfc\include\cstringt.h
;	COMDAT ?StringFindString@?$ChTraitsCRT@D@ATL@@SAPADPADPBD@Z
_TEXT	SEGMENT
_pszBlock$ = 8						; size = 4
_pszMatch$ = 12						; size = 4
?StringFindString@?$ChTraitsCRT@D@ATL@@SAPADPADPBD@Z PROC NEAR ; ATL::ChTraitsCRT<char>::StringFindString, COMDAT

; 362  : 		return( const_cast< LPSTR >( StringFindString( const_cast< LPCSTR >( pszBlock ), pszMatch ) ) );

  00000	e9 00 00 00 00	 jmp	 __mbsstr
?StringFindString@?$ChTraitsCRT@D@ATL@@SAPADPADPBD@Z ENDP ; ATL::ChTraitsCRT<char>::StringFindString
_TEXT	ENDS
PUBLIC	??5CAr@@QAEAAV0@AAH@Z				; CAr::operator>>
; Function compile flags: /Ogty
; File c:\documents and settings\test\mes documents\source\virtuos_v17\build\program\_network\misc\include\ar.h
;	COMDAT ??5CAr@@QAEAAV0@AAH@Z
_TEXT	SEGMENT
_i$ = 8							; size = 4
??5CAr@@QAEAAV0@AAH@Z PROC NEAR				; CAr::operator>>, COMDAT
; _this$ = ecx

; 126  : 	{ return CAr::operator>>((LONG&)i); }

  00000	8b c1		 mov	 eax, ecx
  00002	8b 48 08	 mov	 ecx, DWORD PTR [eax+8]
  00005	56		 push	 esi
  00006	8b 70 0c	 mov	 esi, DWORD PTR [eax+12]
  00009	8d 51 04	 lea	 edx, DWORD PTR [ecx+4]
  0000c	3b d6		 cmp	 edx, esi
  0000e	5e		 pop	 esi
  0000f	77 0f		 ja	 SHORT $L210797
  00011	8b 09		 mov	 ecx, DWORD PTR [ecx]
  00013	8b 54 24 04	 mov	 edx, DWORD PTR _i$[esp-4]
  00017	89 0a		 mov	 DWORD PTR [edx], ecx
  00019	83 40 08 04	 add	 DWORD PTR [eax+8], 4
  0001d	c2 04 00	 ret	 4
$L210797:
  00020	8b 4c 24 04	 mov	 ecx, DWORD PTR _i$[esp-4]
  00024	c7 01 00 00 00
	00		 mov	 DWORD PTR [ecx], 0
  0002a	8b 50 0c	 mov	 edx, DWORD PTR [eax+12]
  0002d	89 50 08	 mov	 DWORD PTR [eax+8], edx
  00030	c2 04 00	 ret	 4
??5CAr@@QAEAAV0@AAH@Z ENDP				; CAr::operator>>
_TEXT	ENDS
PUBLIC	??5CAr@@QAEAAV0@AAF@Z				; CAr::operator>>
; Function compile flags: /Ogty
;	COMDAT ??5CAr@@QAEAAV0@AAF@Z
_TEXT	SEGMENT
_w$ = 8							; size = 4
??5CAr@@QAEAAV0@AAF@Z PROC NEAR				; CAr::operator>>, COMDAT
; _this$ = ecx

; 130  : 	{ return CAr::operator>>((WORD&)w); }

  00000	8b c1		 mov	 eax, ecx
  00002	8b 48 08	 mov	 ecx, DWORD PTR [eax+8]
  00005	56		 push	 esi
  00006	8b 70 0c	 mov	 esi, DWORD PTR [eax+12]
  00009	8d 51 02	 lea	 edx, DWORD PTR [ecx+2]
  0000c	3b d6		 cmp	 edx, esi
  0000e	5e		 pop	 esi
  0000f	77 11		 ja	 SHORT $L210804
  00011	66 8b 09	 mov	 cx, WORD PTR [ecx]
  00014	8b 54 24 04	 mov	 edx, DWORD PTR _w$[esp-4]
  00018	66 89 0a	 mov	 WORD PTR [edx], cx
  0001b	83 40 08 02	 add	 DWORD PTR [eax+8], 2
  0001f	c2 04 00	 ret	 4
$L210804:
  00022	8b 4c 24 04	 mov	 ecx, DWORD PTR _w$[esp-4]
  00026	66 c7 01 00 00	 mov	 WORD PTR [ecx], 0
  0002b	8b 50 0c	 mov	 edx, DWORD PTR [eax+12]
  0002e	89 50 08	 mov	 DWORD PTR [eax+8], edx
  00031	c2 04 00	 ret	 4
??5CAr@@QAEAAV0@AAF@Z ENDP				; CAr::operator>>
_TEXT	ENDS
PUBLIC	??5CAr@@QAEAAV0@AAD@Z				; CAr::operator>>
; Function compile flags: /Ogty
;	COMDAT ??5CAr@@QAEAAV0@AAD@Z
_TEXT	SEGMENT
_ch$ = 8						; size = 4
??5CAr@@QAEAAV0@AAD@Z PROC NEAR				; CAr::operator>>, COMDAT
; _this$ = ecx

; 132  : 	{ return CAr::operator>>((BYTE&)ch); }

  00000	8b c1		 mov	 eax, ecx
  00002	8b 48 08	 mov	 ecx, DWORD PTR [eax+8]
  00005	56		 push	 esi
  00006	8b 70 0c	 mov	 esi, DWORD PTR [eax+12]
  00009	8d 51 01	 lea	 edx, DWORD PTR [ecx+1]
  0000c	3b d6		 cmp	 edx, esi
  0000e	5e		 pop	 esi
  0000f	77 0e		 ja	 SHORT $L210811
  00011	8a 09		 mov	 cl, BYTE PTR [ecx]
  00013	8b 54 24 04	 mov	 edx, DWORD PTR _ch$[esp-4]
  00017	88 0a		 mov	 BYTE PTR [edx], cl
  00019	ff 40 08	 inc	 DWORD PTR [eax+8]
  0001c	c2 04 00	 ret	 4
$L210811:
  0001f	8b 4c 24 04	 mov	 ecx, DWORD PTR _ch$[esp-4]
  00023	c6 01 00	 mov	 BYTE PTR [ecx], 0
  00026	8b 50 0c	 mov	 edx, DWORD PTR [eax+12]
  00029	89 50 08	 mov	 DWORD PTR [eax+8], edx
  0002c	c2 04 00	 ret	 4
??5CAr@@QAEAAV0@AAD@Z ENDP				; CAr::operator>>
_TEXT	ENDS
PUBLIC	?GetLength@?$CSimpleStringT@D$0A@@ATL@@QBEHXZ	; ATL::CSimpleStringT<char,0>::GetLength
; Function compile flags: /Ogty
; File c:\program files\microsoft visual studio .net 2003\vc7\atlmfc\include\atlsimpstr.h
;	COMDAT ?GetLength@?$CSimpleStringT@D$0A@@ATL@@QBEHXZ
_TEXT	SEGMENT
?GetLength@?$CSimpleStringT@D$0A@@ATL@@QBEHXZ PROC NEAR	; ATL::CSimpleStringT<char,0>::GetLength, COMDAT
; _this$ = ecx

; 501  : 		return( GetData()->nDataLength );

  00000	8b 01		 mov	 eax, DWORD PTR [ecx]
  00002	8b 40 f4	 mov	 eax, DWORD PTR [eax-12]

; 502  : 	}

  00005	c3		 ret	 0
?GetLength@?$CSimpleStringT@D$0A@@ATL@@QBEHXZ ENDP	; ATL::CSimpleStringT<char,0>::GetLength
_TEXT	ENDS
PUBLIC	??0?$CSimpleStringT@D$0A@@ATL@@QAE@PAUIAtlStringMgr@1@@Z ; ATL::CSimpleStringT<char,0>::CSimpleStringT<char,0>
; Function compile flags: /Ogty
;	COMDAT ??0?$CSimpleStringT@D$0A@@ATL@@QAE@PAUIAtlStringMgr@1@@Z
_TEXT	SEGMENT
_pStringMgr$ = 8					; size = 4
??0?$CSimpleStringT@D$0A@@ATL@@QAE@PAUIAtlStringMgr@1@@Z PROC NEAR ; ATL::CSimpleStringT<char,0>::CSimpleStringT<char,0>, COMDAT
; _this$ = ecx

; 210  : 	explicit CSimpleStringT( IAtlStringMgr* pStringMgr ) throw()

  00000	56		 push	 esi
  00001	8b f1		 mov	 esi, ecx

; 211  : 	{
; 212  : 		ATLASSERT( pStringMgr != NULL );
; 213  : 		CStringData* pData = pStringMgr->GetNilString();

  00003	8b 4c 24 08	 mov	 ecx, DWORD PTR _pStringMgr$[esp]
  00007	8b 01		 mov	 eax, DWORD PTR [ecx]
  00009	ff 50 0c	 call	 DWORD PTR [eax+12]

; 214  : 		Attach( pData );

  0000c	83 c0 10	 add	 eax, 16			; 00000010H
  0000f	89 06		 mov	 DWORD PTR [esi], eax

; 215  : 	}

  00011	8b c6		 mov	 eax, esi
  00013	5e		 pop	 esi
  00014	c2 04 00	 ret	 4
??0?$CSimpleStringT@D$0A@@ATL@@QAE@PAUIAtlStringMgr@1@@Z ENDP ; ATL::CSimpleStringT<char,0>::CSimpleStringT<char,0>
_TEXT	ENDS
PUBLIC	??1?$CSimpleStringT@D$0A@@ATL@@QAE@XZ		; ATL::CSimpleStringT<char,0>::~CSimpleStringT<char,0>
; Function compile flags: /Ogty
;	COMDAT ??1?$CSimpleStringT@D$0A@@ATL@@QAE@XZ
_TEXT	SEGMENT
??1?$CSimpleStringT@D$0A@@ATL@@QAE@XZ PROC NEAR		; ATL::CSimpleStringT<char,0>::~CSimpleStringT<char,0>, COMDAT
; _this$ = ecx

; 263  : 		CStringData* pData = GetData();

  00000	8b 01		 mov	 eax, DWORD PTR [ecx]
  00002	83 e8 10	 sub	 eax, 16			; 00000010H

; 264  : 		pData->Release();

  00005	8d 48 0c	 lea	 ecx, DWORD PTR [eax+12]
  00008	83 ca ff	 or	 edx, -1
  0000b	f0 0f c1 11	 lock	  xadd	 DWORD PTR [ecx], edx
  0000f	4a		 dec	 edx
  00010	85 d2		 test	 edx, edx
  00012	7f 08		 jg	 SHORT $L210837
  00014	8b 08		 mov	 ecx, DWORD PTR [eax]
  00016	8b 11		 mov	 edx, DWORD PTR [ecx]
  00018	50		 push	 eax
  00019	ff 52 04	 call	 DWORD PTR [edx+4]
$L210837:

; 265  : 	}

  0001c	c3		 ret	 0
??1?$CSimpleStringT@D$0A@@ATL@@QAE@XZ ENDP		; ATL::CSimpleStringT<char,0>::~CSimpleStringT<char,0>
_TEXT	ENDS
PUBLIC	?ReleaseBufferSetLength@?$CSimpleStringT@D$0A@@ATL@@QAEXH@Z ; ATL::CSimpleStringT<char,0>::ReleaseBufferSetLength
; Function compile flags: /Ogty
;	COMDAT ?ReleaseBufferSetLength@?$CSimpleStringT@D$0A@@ATL@@QAEXH@Z
_TEXT	SEGMENT
_nNewLength$ = 8					; size = 4
?ReleaseBufferSetLength@?$CSimpleStringT@D$0A@@ATL@@QAEXH@Z PROC NEAR ; ATL::CSimpleStringT<char,0>::ReleaseBufferSetLength, COMDAT
; _this$ = ecx

; 547  : 		ATLASSERT( nNewLength >= 0 );
; 548  : 		SetLength( nNewLength );

  00000	8b 44 24 04	 mov	 eax, DWORD PTR _nNewLength$[esp-4]
  00004	85 c0		 test	 eax, eax
  00006	7c 13		 jl	 SHORT $L210854
  00008	8b 11		 mov	 edx, DWORD PTR [ecx]
  0000a	3b 42 f8	 cmp	 eax, DWORD PTR [edx-8]
  0000d	7f 0c		 jg	 SHORT $L210854
  0000f	89 42 f4	 mov	 DWORD PTR [edx-12], eax
  00012	8b 09		 mov	 ecx, DWORD PTR [ecx]
  00014	c6 04 08 00	 mov	 BYTE PTR [eax+ecx], 0

; 549  : 	}

  00018	c2 04 00	 ret	 4
$L210854:
  0001b	68 57 00 07 80	 push	 -2147024809		; 80070057H
  00020	e8 00 00 00 00	 call	 ?AtlThrow@ATL@@YGXJ@Z	; ATL::AtlThrow
$L210856:
  00025	cc		 int	 3
?ReleaseBufferSetLength@?$CSimpleStringT@D$0A@@ATL@@QAEXH@Z ENDP ; ATL::CSimpleStringT<char,0>::ReleaseBufferSetLength
_TEXT	ENDS
PUBLIC	?Empty@?$CSimpleStringT@D$0A@@ATL@@QAEXXZ	; ATL::CSimpleStringT<char,0>::Empty
; Function compile flags: /Ogty
;	COMDAT ?Empty@?$CSimpleStringT@D$0A@@ATL@@QAEXXZ
_TEXT	SEGMENT
?Empty@?$CSimpleStringT@D$0A@@ATL@@QAEXXZ PROC NEAR	; ATL::CSimpleStringT<char,0>::Empty, COMDAT
; _this$ = ecx

; 421  : 	{

  00000	56		 push	 esi
  00001	8b f1		 mov	 esi, ecx

; 422  : 		CStringData* pOldData = GetData();

  00003	8b 0e		 mov	 ecx, DWORD PTR [esi]

; 423  : 		IAtlStringMgr* pStringMgr = pOldData->pStringMgr;
; 424  : 		if( pOldData->nDataLength == 0 )

  00005	8b 51 f4	 mov	 edx, DWORD PTR [ecx-12]
  00008	85 d2		 test	 edx, edx
  0000a	8d 41 f0	 lea	 eax, DWORD PTR [ecx-16]
  0000d	57		 push	 edi
  0000e	8b 38		 mov	 edi, DWORD PTR [eax]
  00010	74 4c		 je	 SHORT $L210889
  00012	53		 push	 ebx

; 425  : 		{
; 426  : 			return;
; 427  : 		}
; 428  : 
; 429  : 		if( pOldData->IsLocked() )

  00013	8b 58 0c	 mov	 ebx, DWORD PTR [eax+12]
  00016	8d 50 0c	 lea	 edx, DWORD PTR [eax+12]
  00019	85 db		 test	 ebx, ebx
  0001b	5b		 pop	 ebx
  0001c	7d 20		 jge	 SHORT $L184939

; 430  : 		{
; 431  : 			// Don't reallocate a locked buffer that's shrinking
; 432  : 			SetLength( 0 );

  0001e	8b 41 f8	 mov	 eax, DWORD PTR [ecx-8]
  00021	85 c0		 test	 eax, eax
  00023	7d 0a		 jge	 SHORT $L210873
  00025	68 57 00 07 80	 push	 -2147024809		; 80070057H
  0002a	e8 00 00 00 00	 call	 ?AtlThrow@ATL@@YGXJ@Z	; ATL::AtlThrow
$L210873:
  0002f	c7 41 f4 00 00
	00 00		 mov	 DWORD PTR [ecx-12], 0
  00036	8b 06		 mov	 eax, DWORD PTR [esi]
  00038	5f		 pop	 edi
  00039	c6 00 00	 mov	 BYTE PTR [eax], 0
  0003c	5e		 pop	 esi

; 439  : 		}
; 440  : 	}

  0003d	c3		 ret	 0
$L184939:

; 433  : 		}
; 434  : 		else
; 435  : 		{
; 436  : 			pOldData->Release();

  0003e	83 c9 ff	 or	 ecx, -1
  00041	f0 0f c1 0a	 lock	  xadd	 DWORD PTR [edx], ecx
  00045	49		 dec	 ecx
  00046	85 c9		 test	 ecx, ecx
  00048	7f 08		 jg	 SHORT $L210884
  0004a	8b 08		 mov	 ecx, DWORD PTR [eax]
  0004c	8b 11		 mov	 edx, DWORD PTR [ecx]
  0004e	50		 push	 eax
  0004f	ff 52 04	 call	 DWORD PTR [edx+4]
$L210884:

; 437  : 			CStringData* pNewData = pStringMgr->GetNilString();

  00052	8b 07		 mov	 eax, DWORD PTR [edi]
  00054	8b cf		 mov	 ecx, edi
  00056	ff 50 0c	 call	 DWORD PTR [eax+12]

; 438  : 			Attach( pNewData );

  00059	83 c0 10	 add	 eax, 16			; 00000010H
  0005c	89 06		 mov	 DWORD PTR [esi], eax
$L210889:
  0005e	5f		 pop	 edi
  0005f	5e		 pop	 esi

; 439  : 		}
; 440  : 	}

  00060	c3		 ret	 0
$L210893:
?Empty@?$CSimpleStringT@D$0A@@ATL@@QAEXXZ ENDP		; ATL::CSimpleStringT<char,0>::Empty
_TEXT	ENDS
PUBLIC	?PrepareWrite2@?$CSimpleStringT@D$0A@@ATL@@AAEXH@Z ; ATL::CSimpleStringT<char,0>::PrepareWrite2
; Function compile flags: /Ogty
;	COMDAT ?PrepareWrite2@?$CSimpleStringT@D$0A@@ATL@@AAEXH@Z
_TEXT	SEGMENT
_nLength$ = 8						; size = 4
?PrepareWrite2@?$CSimpleStringT@D$0A@@ATL@@AAEXH@Z PROC NEAR ; ATL::CSimpleStringT<char,0>::PrepareWrite2, COMDAT
; _this$ = ecx

; 747  : 		CStringData* pOldData = GetData();

  00000	8b 01		 mov	 eax, DWORD PTR [ecx]

; 748  : 		if( pOldData->nDataLength > nLength )

  00002	8b 54 24 04	 mov	 edx, DWORD PTR _nLength$[esp-4]
  00006	83 e8 10	 sub	 eax, 16			; 00000010H
  00009	56		 push	 esi
  0000a	8b 70 04	 mov	 esi, DWORD PTR [eax+4]
  0000d	3b f2		 cmp	 esi, edx
  0000f	7e 02		 jle	 SHORT $L184961

; 749  : 		{
; 750  : 			nLength = pOldData->nDataLength;

  00011	8b d6		 mov	 edx, esi
$L184961:

; 751  : 		}
; 752  : 		if( pOldData->IsShared() )

  00013	83 78 0c 01	 cmp	 DWORD PTR [eax+12], 1
  00017	5e		 pop	 esi
  00018	7e 09		 jle	 SHORT $L184962

; 753  : 		{
; 754  : 			Fork( nLength );

  0001a	89 54 24 04	 mov	 DWORD PTR _nLength$[esp-4], edx
  0001e	e9 00 00 00 00	 jmp	 ?Fork@?$CSimpleStringT@D$0A@@ATL@@AAEXH@Z ; ATL::CSimpleStringT<char,0>::Fork
$L184962:

; 755  : 		}
; 756  : 		else if( pOldData->nAllocLength < nLength )

  00023	8b 40 08	 mov	 eax, DWORD PTR [eax+8]
  00026	3b c2		 cmp	 eax, edx
  00028	7d 1f		 jge	 SHORT $L184964

; 757  : 		{
; 758  : 			// Grow exponentially, until we hit 1K.
; 759  : 			int nNewLength = pOldData->nAllocLength;
; 760  : 			if( nNewLength > 1024 )

  0002a	3d 00 04 00 00	 cmp	 eax, 1024		; 00000400H
  0002f	7e 07		 jle	 SHORT $L184966

; 761  : 			{
; 762  : 				nNewLength += 1024;

  00031	05 00 04 00 00	 add	 eax, 1024		; 00000400H

; 763  : 			}
; 764  : 			else

  00036	eb 02		 jmp	 SHORT $L184967
$L184966:

; 765  : 			{
; 766  : 				nNewLength *= 2;

  00038	03 c0		 add	 eax, eax
$L184967:

; 767  : 			}
; 768  : 			if( nNewLength < nLength )

  0003a	3b c2		 cmp	 eax, edx
  0003c	7d 02		 jge	 SHORT $L184968

; 769  : 			{
; 770  : 				nNewLength = nLength;

  0003e	8b c2		 mov	 eax, edx
$L184968:

; 771  : 			}
; 772  : 			Reallocate( nNewLength );

  00040	89 44 24 04	 mov	 DWORD PTR _nLength$[esp-4], eax
  00044	e9 00 00 00 00	 jmp	 ?Reallocate@?$CSimpleStringT@D$0A@@ATL@@AAEXH@Z ; ATL::CSimpleStringT<char,0>::Reallocate
$L184964:

; 773  : 		}
; 774  : 	}

  00049	c2 04 00	 ret	 4
?PrepareWrite2@?$CSimpleStringT@D$0A@@ATL@@AAEXH@Z ENDP	; ATL::CSimpleStringT<char,0>::PrepareWrite2
_TEXT	ENDS
PUBLIC	?LogGetHonorTime@CDbManager@@AAEXPAVCQuery@@PAUtagDB_OVERLAPPED_PLUS@@@Z ; CDbManager::LogGetHonorTime
PUBLIC	??_C@_0DO@JFEBANLH@uspHonorLog?5?$EAserverindex?$DN?8?$CF02d?8?0@ ; `string'
;	COMDAT xdata$x
; File c:\documents and settings\test\mes documents\source\virtuos_v17\build\program\_network\misc\include\ar.h
xdata$x	SEGMENT
$T210931 DD	0ffffffffH
	DD	FLAT:$L210905
$T210927 DD	019930520H
	DD	01H
	DD	FLAT:$T210931
	DD	2 DUP(00H)
	DD	2 DUP(00H)
xdata$x	ENDS
;	COMDAT ??_C@_0DO@JFEBANLH@uspHonorLog?5?$EAserverindex?$DN?8?$CF02d?8?0@
CONST	SEGMENT
??_C@_0DO@JFEBANLH@uspHonorLog?5?$EAserverindex?$DN?8?$CF02d?8?0@ DB 'usp'
	DB	'HonorLog @serverindex=''%02d'',@idPlayer=''%07d'',@nHonor=''%'
	DB	'd''', 00H					; `string'
; Function compile flags: /Ogty
; File c:\documents and settings\test\mes documents\source\virtuos_v17\build\program\_database\dbmanagerlog.cpp
CONST	ENDS
;	COMDAT ?LogGetHonorTime@CDbManager@@AAEXPAVCQuery@@PAUtagDB_OVERLAPPED_PLUS@@@Z
_TEXT	SEGMENT
$T210923 = -57400					; size = 4
$T210924 = -57396					; size = 4
_arRead$ = -57392					; size = 16404
_szQuery$ = -40984					; size = 40960
__$ArrayPad$ = -20					; size = 4
__$EHRec$ = -12						; size = 12
__$ReturnAddr$ = 4					; size = 4
_qry$ = 8						; size = 4
_lpDbOverlappedPlus$ = 12				; size = 4
?LogGetHonorTime@CDbManager@@AAEXPAVCQuery@@PAUtagDB_OVERLAPPED_PLUS@@@Z PROC NEAR ; CDbManager::LogGetHonorTime, COMDAT
; _this$ = ecx

; 616  : {

  00000	55		 push	 ebp
  00001	8b ec		 mov	 ebp, esp
  00003	83 e4 f8	 and	 esp, -8			; fffffff8H
  00006	6a ff		 push	 -1
  00008	68 00 00 00 00	 push	 __ehhandler$?LogGetHonorTime@CDbManager@@AAEXPAVCQuery@@PAUtagDB_OVERLAPPED_PLUS@@@Z
  0000d	64 a1 00 00 00
	00		 mov	 eax, DWORD PTR fs:__except_list
  00013	50		 push	 eax
  00014	64 89 25 00 00
	00 00		 mov	 DWORD PTR fs:__except_list, esp
  0001b	51		 push	 ecx
  0001c	b8 2c e0 00 00	 mov	 eax, 57388		; 0000e02cH
  00021	e8 00 00 00 00	 call	 __chkstk
  00026	a1 00 00 00 00	 mov	 eax, DWORD PTR ___security_cookie
  0002b	53		 push	 ebx
  0002c	56		 push	 esi
  0002d	8b 75 0c	 mov	 esi, DWORD PTR _lpDbOverlappedPlus$[ebp]

; 617  : 	CAr arRead( lpDbOverlappedPlus->lpBuf, lpDbOverlappedPlus->uBufSize );

  00030	8b 56 18	 mov	 edx, DWORD PTR [esi+24]
  00033	89 4c 24 0c	 mov	 DWORD PTR $T210923[esp+57412], ecx
  00037	8b 4e 1c	 mov	 ecx, DWORD PTR [esi+28]
  0003a	33 c5		 xor	 eax, ebp
  0003c	57		 push	 edi
  0003d	51		 push	 ecx
  0003e	89 84 24 38 e0
	00 00		 mov	 DWORD PTR __$ArrayPad$[esp+57420], eax
  00045	8b 45 08	 mov	 eax, DWORD PTR _qry$[ebp]
  00048	52		 push	 edx
  00049	8d 4c 24 20	 lea	 ecx, DWORD PTR _arRead$[esp+57424]

; 626  : 
; 627  : 	char szQuery[QUERY_SIZE]	= { 0,};

  0004d	89 44 24 1c	 mov	 DWORD PTR $T210924[esp+57424], eax
  00051	e8 00 00 00 00	 call	 ??0CAr@@QAE@PAXI@Z	; CAr::CAr
  00056	8b 54 24 20	 mov	 edx, DWORD PTR _arRead$[esp+57424]
  0005a	8b 4c 24 24	 mov	 ecx, DWORD PTR _arRead$[esp+57428]
  0005e	33 db		 xor	 ebx, ebx
  00060	8d 42 04	 lea	 eax, DWORD PTR [edx+4]
  00063	3b c1		 cmp	 eax, ecx
  00065	89 9c 24 44 e0
	00 00		 mov	 DWORD PTR __$EHRec$[esp+57424], ebx
  0006c	77 04		 ja	 SHORT $L210915

; 618  : 
; 619  : 	int			iServer_No;							//  
; 620  : 	u_long		uidPlayer;
; 621  : 	int			nGetHonor;
; 622  : 	
; 623  : 	iServer_No	= g_appInfo.dwSys;
; 624  : 	arRead >> nGetHonor;

  0006e	8b 1a		 mov	 ebx, DWORD PTR [edx]
  00070	eb 02		 jmp	 SHORT $L210930
$L210915:
  00072	8b c1		 mov	 eax, ecx
$L210930:

; 625  : 	arRead >> uidPlayer;

  00074	8d 78 04	 lea	 edi, DWORD PTR [eax+4]
  00077	3b f9		 cmp	 edi, ecx
  00079	89 44 24 20	 mov	 DWORD PTR _arRead$[esp+57424], eax
  0007d	77 08		 ja	 SHORT $L210920
  0007f	8b 10		 mov	 edx, DWORD PTR [eax]
  00081	89 7c 24 20	 mov	 DWORD PTR _arRead$[esp+57424], edi
  00085	eb 06		 jmp	 SHORT $L210921
$L210920:
  00087	33 d2		 xor	 edx, edx
  00089	89 4c 24 20	 mov	 DWORD PTR _arRead$[esp+57424], ecx
$L210921:

; 626  : 
; 627  : 	char szQuery[QUERY_SIZE]	= { 0,};

  0008d	33 c0		 xor	 eax, eax
  0008f	c6 84 24 30 40
	00 00 00	 mov	 BYTE PTR _szQuery$[esp+57416], 0
  00097	b9 ff 27 00 00	 mov	 ecx, 10239		; 000027ffH
  0009c	8d bc 24 31 40
	00 00		 lea	 edi, DWORD PTR _szQuery$[esp+57417]
  000a3	f3 ab		 rep stosd
  000a5	66 ab		 stosw

; 628  : 	sprintf( szQuery,
; 629  : 		"uspHonorLog @serverindex='%02d',@idPlayer='%07d',@nHonor='%d'",  g_appInfo.dwSys,uidPlayer, nGetHonor );

  000a7	53		 push	 ebx
  000a8	52		 push	 edx
  000a9	aa		 stosb
  000aa	a1 00 00 00 00	 mov	 eax, DWORD PTR ?g_appInfo@@3UAppInfo@@A
  000af	50		 push	 eax
  000b0	8d 8c 24 3c 40
	00 00		 lea	 ecx, DWORD PTR _szQuery$[esp+57428]
  000b7	68 00 00 00 00	 push	 OFFSET FLAT:??_C@_0DO@JFEBANLH@uspHonorLog?5?$EAserverindex?$DN?8?$CF02d?8?0@
  000bc	51		 push	 ecx
  000bd	e8 00 00 00 00	 call	 _sprintf

; 630  : //	qry->Clear();
; 631  : 	if ( FALSE == qry->Exec( szQuery ) )

  000c2	8b 4c 24 28	 mov	 ecx, DWORD PTR $T210924[esp+57436]
  000c6	83 c4 14	 add	 esp, 20			; 00000014H
  000c9	8d 94 24 30 40
	00 00		 lea	 edx, DWORD PTR _szQuery$[esp+57416]
  000d0	52		 push	 edx
  000d1	e8 00 00 00 00	 call	 ?Exec@CQuery@@QAEHPBD@Z	; CQuery::Exec
  000d6	85 c0		 test	 eax, eax
  000d8	75 1f		 jne	 SHORT $L208514

; 632  : 	{
; 633  : 		WriteLog( "%s, %d\t%s", __FILE__, __LINE__, szQuery );

  000da	8d 84 24 30 40
	00 00		 lea	 eax, DWORD PTR _szQuery$[esp+57416]
  000e1	50		 push	 eax
  000e2	68 79 02 00 00	 push	 633			; 00000279H
  000e7	68 00 00 00 00	 push	 OFFSET FLAT:??_C@_0GH@LHPNFEPP@?2Documents?5and?5Settings?2test?2Mes@
  000ec	68 00 00 00 00	 push	 OFFSET FLAT:??_C@_09GBAEEKDE@?$CFs?0?5?$CFd?7?$CFs?$AA@
  000f1	e8 00 00 00 00	 call	 ?WriteLog@@YAXPBDZZ	; WriteLog
  000f6	83 c4 10	 add	 esp, 16			; 00000010H
$L208514:

; 634  : //		qry->Clear();
; 635  : 		FreeRequest( lpDbOverlappedPlus );
; 636  : 		return;
; 637  : 	}
; 638  : 
; 639  : //	qry->Clear();
; 640  : 	FreeRequest( lpDbOverlappedPlus );;

  000f9	8b 4c 24 10	 mov	 ecx, DWORD PTR $T210923[esp+57416]
  000fd	56		 push	 esi
  000fe	e8 00 00 00 00	 call	 ?FreeRequest@CDbManager@@QAEXPAUtagDB_OVERLAPPED_PLUS@@@Z ; CDbManager::FreeRequest

; 641  : }

  00103	8d 4c 24 18	 lea	 ecx, DWORD PTR _arRead$[esp+57416]
  00107	c7 84 24 44 e0
	00 00 ff ff ff
	ff		 mov	 DWORD PTR __$EHRec$[esp+57424], -1
  00112	e8 00 00 00 00	 call	 ??1CAr@@QAE@XZ		; CAr::~CAr
  00117	8b 8c 24 3c e0
	00 00		 mov	 ecx, DWORD PTR __$EHRec$[esp+57416]
  0011e	64 89 0d 00 00
	00 00		 mov	 DWORD PTR fs:__except_list, ecx
  00125	8b 8c 24 34 e0
	00 00		 mov	 ecx, DWORD PTR __$ArrayPad$[esp+57416]
  0012c	5f		 pop	 edi
  0012d	5e		 pop	 esi
  0012e	33 cd		 xor	 ecx, ebp
  00130	5b		 pop	 ebx
  00131	e8 00 00 00 00	 call	 @__security_check_cookie@4
  00136	8b e5		 mov	 esp, ebp
  00138	5d		 pop	 ebp
  00139	c2 08 00	 ret	 8
_TEXT	ENDS
;	COMDAT text$x
text$x	SEGMENT
$L210905:
  00000	8d 8d d0 1f ff
	ff		 lea	 ecx, DWORD PTR _arRead$[ebp]
  00006	e9 00 00 00 00	 jmp	 ??1CAr@@QAE@XZ		; CAr::~CAr
__ehhandler$?LogGetHonorTime@CDbManager@@AAEXPAVCQuery@@PAUtagDB_OVERLAPPED_PLUS@@@Z:
  0000b	b8 00 00 00 00	 mov	 eax, OFFSET FLAT:$T210927
  00010	e9 00 00 00 00	 jmp	 ___CxxFrameHandler
text$x	ENDS
?LogGetHonorTime@CDbManager@@AAEXPAVCQuery@@PAUtagDB_OVERLAPPED_PLUS@@@Z ENDP ; CDbManager::LogGetHonorTime
PUBLIC	?LogConcurrentUserNumber@CDbManager@@AAEXPAVCQuery@@PAUtagDB_OVERLAPPED_PLUS@@@Z ; CDbManager::LogConcurrentUserNumber
PUBLIC	??_C@_0BM@PFNCDNBM@LOG_USER_CNT_STR?5?8?$CF02d?8?0?5?$CFd?$AA@ ; `string'
PUBLIC	??_C@_04KCMJEPHB@?0?5?$CFd?$AA@			; `string'
;	COMDAT xdata$x
; File c:\documents and settings\test\mes documents\source\virtuos_v17\build\program\_network\misc\include\ar.h
xdata$x	SEGMENT
$T210973 DD	0ffffffffH
	DD	FLAT:$L210936
$T210965 DD	019930520H
	DD	01H
	DD	FLAT:$T210973
	DD	2 DUP(00H)
	DD	2 DUP(00H)
xdata$x	ENDS
;	COMDAT ??_C@_0BM@PFNCDNBM@LOG_USER_CNT_STR?5?8?$CF02d?8?0?5?$CFd?$AA@
CONST	SEGMENT
??_C@_0BM@PFNCDNBM@LOG_USER_CNT_STR?5?8?$CF02d?8?0?5?$CFd?$AA@ DB 'LOG_US'
	DB	'ER_CNT_STR ''%02d'', %d', 00H		; `string'
CONST	ENDS
;	COMDAT ??_C@_04KCMJEPHB@?0?5?$CFd?$AA@
CONST	SEGMENT
??_C@_04KCMJEPHB@?0?5?$CFd?$AA@ DB ', %d', 00H		; `string'
; Function compile flags: /Ogty
; File c:\documents and settings\test\mes documents\source\virtuos_v17\build\program\_database\dbmanagerlog.cpp
CONST	ENDS
;	COMDAT ?LogConcurrentUserNumber@CDbManager@@AAEXPAVCQuery@@PAUtagDB_OVERLAPPED_PLUS@@@Z
_TEXT	SEGMENT
_cbSize$ = -57680					; size = 4
$T210961 = -57676					; size = 4
$T210963 = -57672					; size = 4
$T210962 = -57668					; size = 4
_anCount$ = -57664					; size = 256
_ar$ = -57408						; size = 16404
_szCount$ = -40996					; size = 10
_szQuery$ = -40984					; size = 40960
__$ArrayPad$ = -20					; size = 4
__$EHRec$ = -12						; size = 12
__$ReturnAddr$ = 4					; size = 4
_qry$ = 8						; size = 4
_lpDbOverlappedPlus$ = 12				; size = 4
?LogConcurrentUserNumber@CDbManager@@AAEXPAVCQuery@@PAUtagDB_OVERLAPPED_PLUS@@@Z PROC NEAR ; CDbManager::LogConcurrentUserNumber, COMDAT
; _this$ = ecx

; 793  : {

  00000	55		 push	 ebp
  00001	8b ec		 mov	 ebp, esp
  00003	83 e4 f8	 and	 esp, -8			; fffffff8H
  00006	6a ff		 push	 -1
  00008	68 00 00 00 00	 push	 __ehhandler$?LogConcurrentUserNumber@CDbManager@@AAEXPAVCQuery@@PAUtagDB_OVERLAPPED_PLUS@@@Z
  0000d	64 a1 00 00 00
	00		 mov	 eax, DWORD PTR fs:__except_list
  00013	50		 push	 eax
  00014	64 89 25 00 00
	00 00		 mov	 DWORD PTR fs:__except_list, esp
  0001b	51		 push	 ecx
  0001c	b8 44 e1 00 00	 mov	 eax, 57668		; 0000e144H
  00021	e8 00 00 00 00	 call	 __chkstk
  00026	a1 00 00 00 00	 mov	 eax, DWORD PTR ___security_cookie
  0002b	53		 push	 ebx
  0002c	56		 push	 esi
  0002d	8b 75 0c	 mov	 esi, DWORD PTR _lpDbOverlappedPlus$[ebp]

; 794  : 	CAr ar( lpDbOverlappedPlus->lpBuf, lpDbOverlappedPlus->uBufSize );

  00030	8b 56 18	 mov	 edx, DWORD PTR [esi+24]
  00033	89 4c 24 10	 mov	 DWORD PTR $T210961[esp+57692], ecx
  00037	8b 4e 1c	 mov	 ecx, DWORD PTR [esi+28]
  0003a	33 c5		 xor	 eax, ebp
  0003c	57		 push	 edi
  0003d	51		 push	 ecx
  0003e	89 84 24 50 e1
	00 00		 mov	 DWORD PTR __$ArrayPad$[esp+57700], eax

; 827  : }

  00045	8b 45 08	 mov	 eax, DWORD PTR _qry$[ebp]
  00048	52		 push	 edx
  00049	8d 8c 24 28 01
	00 00		 lea	 ecx, DWORD PTR _ar$[esp+57704]
  00050	89 44 24 24	 mov	 DWORD PTR $T210962[esp+57704], eax
  00054	89 74 24 20	 mov	 DWORD PTR $T210963[esp+57704], esi
  00058	e8 00 00 00 00	 call	 ??0CAr@@QAE@PAXI@Z	; CAr::CAr
  0005d	8b 94 24 28 01
	00 00		 mov	 edx, DWORD PTR _ar$[esp+57704]
  00064	8b 8c 24 2c 01
	00 00		 mov	 ecx, DWORD PTR _ar$[esp+57708]
  0006b	33 ff		 xor	 edi, edi
  0006d	8d 42 04	 lea	 eax, DWORD PTR [edx+4]
  00070	3b c1		 cmp	 eax, ecx
  00072	89 bc 24 5c e1
	00 00		 mov	 DWORD PTR __$EHRec$[esp+57704], edi
  00079	77 04		 ja	 SHORT $L210946

; 795  : 	
; 796  : 	//	qry->Clear();
; 797  : 	
; 798  : 	int cbSize;
; 799  : 	int anCount[64];
; 800  : #ifdef __LOG_PLAYERCOUNT_CHANNEL
; 801  : 	int nChannel;
; 802  : 	ar >> nChannel;

  0007b	8b 1a		 mov	 ebx, DWORD PTR [edx]
  0007d	eb 04		 jmp	 SHORT $L210972
$L210946:
  0007f	33 db		 xor	 ebx, ebx
  00081	8b c1		 mov	 eax, ecx
$L210972:

; 803  : #endif // __LOG_PLAYERCOUNT_CHANNEL
; 804  : 	ar >> cbSize;

  00083	8d 50 04	 lea	 edx, DWORD PTR [eax+4]
  00086	3b d1		 cmp	 edx, ecx
  00088	89 84 24 28 01
	00 00		 mov	 DWORD PTR _ar$[esp+57704], eax
  0008f	77 0f		 ja	 SHORT $L210958
  00091	8b 00		 mov	 eax, DWORD PTR [eax]
  00093	89 44 24 10	 mov	 DWORD PTR _cbSize$[esp+57696], eax
  00097	89 94 24 28 01
	00 00		 mov	 DWORD PTR _ar$[esp+57704], edx
  0009e	eb 0b		 jmp	 SHORT $L210960
$L210958:
  000a0	89 7c 24 10	 mov	 DWORD PTR _cbSize$[esp+57696], edi
  000a4	89 8c 24 28 01
	00 00		 mov	 DWORD PTR _ar$[esp+57704], ecx
$L210960:

; 805  : 	//	memset( (void*)anCount, 0, sizeof(int) * 64 );
; 806  : 	ar.Read( (void*)anCount, sizeof(int) * cbSize );

  000ab	8b 4c 24 10	 mov	 ecx, DWORD PTR _cbSize$[esp+57696]
  000af	8d 14 8d 00 00
	00 00		 lea	 edx, DWORD PTR [ecx*4]
  000b6	52		 push	 edx
  000b7	8d 44 24 24	 lea	 eax, DWORD PTR _anCount$[esp+57700]
  000bb	50		 push	 eax
  000bc	8d 8c 24 28 01
	00 00		 lea	 ecx, DWORD PTR _ar$[esp+57704]
  000c3	e8 00 00 00 00	 call	 ?Read@CAr@@QAEXPAXI@Z	; CAr::Read

; 807  : 	//	LOG_USER_CNT_STR '00', 0, 0, 0, 0
; 808  : 	char szQuery[QUERY_SIZE]	= { 0,};

  000c8	c6 84 24 48 41
	00 00 00	 mov	 BYTE PTR _szQuery$[esp+57696], 0
  000d0	33 c0		 xor	 eax, eax
  000d2	b9 ff 27 00 00	 mov	 ecx, 10239		; 000027ffH
  000d7	8d bc 24 49 41
	00 00		 lea	 edi, DWORD PTR _szQuery$[esp+57697]
  000de	f3 ab		 rep stosd

; 809  : #ifdef __LOG_PLAYERCOUNT_CHANNEL
; 810  : 	sprintf( szQuery, "LOG_USER_CNT_STR '%02d', %d", g_appInfo.dwSys, nChannel );

  000e0	8b 0d 00 00 00
	00		 mov	 ecx, DWORD PTR ?g_appInfo@@3UAppInfo@@A
  000e6	53		 push	 ebx
  000e7	51		 push	 ecx
  000e8	66 ab		 stosw
  000ea	8d 94 24 50 41
	00 00		 lea	 edx, DWORD PTR _szQuery$[esp+57704]
  000f1	68 00 00 00 00	 push	 OFFSET FLAT:??_C@_0BM@PFNCDNBM@LOG_USER_CNT_STR?5?8?$CF02d?8?0?5?$CFd?$AA@
  000f6	52		 push	 edx
  000f7	aa		 stosb
  000f8	e8 00 00 00 00	 call	 _sprintf

; 811  : #else // __LOG_PLAYERCOUNT_CHANNEL
; 812  : 	sprintf( szQuery, "LOG_USER_CNT_STR '%02d'", g_appInfo.dwSys );
; 813  : #endif // __LOG_PLAYERCOUNT_CHANNEL
; 814  : 	
; 815  : 	char szCount[10];
; 816  : 	for( int i = 0; i < cbSize; i++ )

  000fd	8b 44 24 20	 mov	 eax, DWORD PTR _cbSize$[esp+57712]
  00101	83 c4 10	 add	 esp, 16			; 00000010H
  00104	33 db		 xor	 ebx, ebx
  00106	85 c0		 test	 eax, eax
  00108	7e 5f		 jle	 SHORT $L208628
  0010a	8d 9b 00 00 00
	00		 npad	 6
$L208626:

; 817  : 	{
; 818  : 		sprintf( szCount, ", %d", anCount[i] );

  00110	8b 44 9c 20	 mov	 eax, DWORD PTR _anCount$[esp+ebx*4+57696]
  00114	50		 push	 eax
  00115	8d 8c 24 40 41
	00 00		 lea	 ecx, DWORD PTR _szCount$[esp+57700]
  0011c	68 00 00 00 00	 push	 OFFSET FLAT:??_C@_04KCMJEPHB@?0?5?$CFd?$AA@
  00121	51		 push	 ecx
  00122	e8 00 00 00 00	 call	 _sprintf

; 819  : 		strcat( szQuery, szCount );

  00127	8d 84 24 48 41
	00 00		 lea	 eax, DWORD PTR _szCount$[esp+57708]
  0012e	83 c4 0c	 add	 esp, 12			; 0000000cH
  00131	8b d0		 mov	 edx, eax
$L210968:
  00133	8a 08		 mov	 cl, BYTE PTR [eax]
  00135	40		 inc	 eax
  00136	84 c9		 test	 cl, cl
  00138	75 f9		 jne	 SHORT $L210968
  0013a	8d bc 24 48 41
	00 00		 lea	 edi, DWORD PTR _szQuery$[esp+57696]
  00141	2b c2		 sub	 eax, edx
  00143	4f		 dec	 edi
$L210969:
  00144	8a 4f 01	 mov	 cl, BYTE PTR [edi+1]
  00147	47		 inc	 edi
  00148	84 c9		 test	 cl, cl
  0014a	75 f8		 jne	 SHORT $L210969
  0014c	8b c8		 mov	 ecx, eax
  0014e	c1 e9 02	 shr	 ecx, 2
  00151	8b f2		 mov	 esi, edx
  00153	f3 a5		 rep movsd
  00155	8b c8		 mov	 ecx, eax
  00157	8b 44 24 10	 mov	 eax, DWORD PTR _cbSize$[esp+57696]
  0015b	83 e1 03	 and	 ecx, 3
  0015e	43		 inc	 ebx
  0015f	3b d8		 cmp	 ebx, eax
  00161	f3 a4		 rep movsb
  00163	7c ab		 jl	 SHORT $L208626

; 811  : #else // __LOG_PLAYERCOUNT_CHANNEL
; 812  : 	sprintf( szQuery, "LOG_USER_CNT_STR '%02d'", g_appInfo.dwSys );
; 813  : #endif // __LOG_PLAYERCOUNT_CHANNEL
; 814  : 	
; 815  : 	char szCount[10];
; 816  : 	for( int i = 0; i < cbSize; i++ )

  00165	8b 74 24 18	 mov	 esi, DWORD PTR $T210963[esp+57696]
$L208628:

; 820  : 	}
; 821  : 	
; 822  : 	qry->Exec( szQuery );

  00169	8b 4c 24 1c	 mov	 ecx, DWORD PTR $T210962[esp+57696]
  0016d	8d 94 24 48 41
	00 00		 lea	 edx, DWORD PTR _szQuery$[esp+57696]
  00174	52		 push	 edx
  00175	e8 00 00 00 00	 call	 ?Exec@CQuery@@QAEHPBD@Z	; CQuery::Exec

; 823  : 	
; 824  : 	//	qry->Clear();
; 825  : 	
; 826  : 	FreeRequest( lpDbOverlappedPlus );

  0017a	8b 4c 24 14	 mov	 ecx, DWORD PTR $T210961[esp+57696]
  0017e	56		 push	 esi
  0017f	e8 00 00 00 00	 call	 ?FreeRequest@CDbManager@@QAEXPAUtagDB_OVERLAPPED_PLUS@@@Z ; CDbManager::FreeRequest

; 827  : }

  00184	8d 8c 24 20 01
	00 00		 lea	 ecx, DWORD PTR _ar$[esp+57696]
  0018b	c7 84 24 5c e1
	00 00 ff ff ff
	ff		 mov	 DWORD PTR __$EHRec$[esp+57704], -1
  00196	e8 00 00 00 00	 call	 ??1CAr@@QAE@XZ		; CAr::~CAr
  0019b	8b 8c 24 54 e1
	00 00		 mov	 ecx, DWORD PTR __$EHRec$[esp+57696]
  001a2	64 89 0d 00 00
	00 00		 mov	 DWORD PTR fs:__except_list, ecx
  001a9	8b 8c 24 4c e1
	00 00		 mov	 ecx, DWORD PTR __$ArrayPad$[esp+57696]
  001b0	5f		 pop	 edi
  001b1	5e		 pop	 esi
  001b2	33 cd		 xor	 ecx, ebp
  001b4	5b		 pop	 ebx
  001b5	e8 00 00 00 00	 call	 @__security_check_cookie@4
  001ba	8b e5		 mov	 esp, ebp
  001bc	5d		 pop	 ebp
  001bd	c2 08 00	 ret	 8
_TEXT	ENDS
;	COMDAT text$x
text$x	SEGMENT
$L210936:
  00000	8d 8d c0 1f ff
	ff		 lea	 ecx, DWORD PTR _ar$[ebp]
  00006	e9 00 00 00 00	 jmp	 ??1CAr@@QAE@XZ		; CAr::~CAr
__ehhandler$?LogConcurrentUserNumber@CDbManager@@AAEXPAVCQuery@@PAUtagDB_OVERLAPPED_PLUS@@@Z:
  0000b	b8 00 00 00 00	 mov	 eax, OFFSET FLAT:$T210965
  00010	e9 00 00 00 00	 jmp	 ___CxxFrameHandler
text$x	ENDS
?LogConcurrentUserNumber@CDbManager@@AAEXPAVCQuery@@PAUtagDB_OVERLAPPED_PLUS@@@Z ENDP ; CDbManager::LogConcurrentUserNumber
PUBLIC	?LogSkillPoint@CDbManager@@AAEXPAVCQuery@@PAUtagDB_OVERLAPPED_PLUS@@@Z ; CDbManager::LogSkillPoint
PUBLIC	??_C@_0EC@CBOOBAOL@uspLoggingAcquireSkillPoint?5?8?$CF02@ ; `string'
PUBLIC	??_C@_0EC@DIPFCBKK@uspLoggingAcquireSkillPoint?5?8?$CF02@ ; `string'
PUBLIC	??_C@_0EA@PKCEFONH@uspLoggingUsingSkillPoint?5?8?$CF02d?8@ ; `string'
;	COMDAT xdata$x
; File c:\documents and settings\test\mes documents\source\virtuos_v17\build\program\_network\misc\include\ar.h
xdata$x	SEGMENT
$T211057 DD	0ffffffffH
	DD	FLAT:$L210978
$T211046 DD	019930520H
	DD	01H
	DD	FLAT:$T211057
	DD	2 DUP(00H)
	DD	2 DUP(00H)
xdata$x	ENDS
;	COMDAT ??_C@_0EC@CBOOBAOL@uspLoggingAcquireSkillPoint?5?8?$CF02@
CONST	SEGMENT
??_C@_0EC@CBOOBAOL@uspLoggingAcquireSkillPoint?5?8?$CF02@ DB 'uspLoggingA'
	DB	'cquireSkillPoint ''%02d'',''%07d'',%d,%d,%d,%d,%d,%I64d,10', 00H ; `string'
CONST	ENDS
;	COMDAT ??_C@_0EC@DIPFCBKK@uspLoggingAcquireSkillPoint?5?8?$CF02@
CONST	SEGMENT
??_C@_0EC@DIPFCBKK@uspLoggingAcquireSkillPoint?5?8?$CF02@ DB 'uspLoggingA'
	DB	'cquireSkillPoint ''%02d'',''%07d'',%d,%d,%d,%d,%d,%I64d,11', 00H ; `string'
CONST	ENDS
;	COMDAT ??_C@_0EA@PKCEFONH@uspLoggingUsingSkillPoint?5?8?$CF02d?8@
CONST	SEGMENT
??_C@_0EA@PKCEFONH@uspLoggingUsingSkillPoint?5?8?$CF02d?8@ DB 'uspLogging'
	DB	'UsingSkillPoint ''%02d'',''%07d'',%d,%d,%d,%d,%d,%I64d,20', 00H ; `string'
; Function compile flags: /Ogty
; File c:\documents and settings\test\mes documents\source\virtuos_v17\build\program\_database\dbmanagerlog.cpp
CONST	ENDS
;	COMDAT ?LogSkillPoint@CDbManager@@AAEXPAVCQuery@@PAUtagDB_OVERLAPPED_PLUS@@@Z
_TEXT	SEGMENT
_nSkillPoint$ = -57420					; size = 4
_nSkillLevel$ = -57416					; size = 4
_uidPlayer$ = -57412					; size = 4
$T211044 = -57408					; size = 4
_nAction$ = -57404					; size = 4
$T211042 = -57400					; size = 4
$T211043 = -57396					; size = 4
_arRead$ = -57392					; size = 16404
_szQuery$ = -40984					; size = 40960
__$ArrayPad$ = -20					; size = 4
__$EHRec$ = -12						; size = 12
__$ReturnAddr$ = 4					; size = 4
_pQuery$ = 8						; size = 4
_lpDbOverlappedPlus$ = 12				; size = 4
?LogSkillPoint@CDbManager@@AAEXPAVCQuery@@PAUtagDB_OVERLAPPED_PLUS@@@Z PROC NEAR ; CDbManager::LogSkillPoint, COMDAT
; _this$ = ecx

; 969  : {

  00000	55		 push	 ebp
  00001	8b ec		 mov	 ebp, esp
  00003	83 e4 f8	 and	 esp, -8			; fffffff8H
  00006	6a ff		 push	 -1
  00008	68 00 00 00 00	 push	 __ehhandler$?LogSkillPoint@CDbManager@@AAEXPAVCQuery@@PAUtagDB_OVERLAPPED_PLUS@@@Z
  0000d	64 a1 00 00 00
	00		 mov	 eax, DWORD PTR fs:__except_list
  00013	50		 push	 eax
  00014	64 89 25 00 00
	00 00		 mov	 DWORD PTR fs:__except_list, esp
  0001b	51		 push	 ecx
  0001c	b8 3c e0 00 00	 mov	 eax, 57404		; 0000e03cH
  00021	e8 00 00 00 00	 call	 __chkstk
  00026	a1 00 00 00 00	 mov	 eax, DWORD PTR ___security_cookie
  0002b	33 c5		 xor	 eax, ebp
  0002d	89 84 24 38 e0
	00 00		 mov	 DWORD PTR __$ArrayPad$[esp+57420], eax
  00034	8b 45 08	 mov	 eax, DWORD PTR _pQuery$[ebp]
  00037	53		 push	 ebx
  00038	56		 push	 esi

; 1002 : 	{
; 1003 : 		sprintf( szQuery, "uspLoggingUsingSkillPoint '%02d','%07d',%d,%d,%d,%d,%d,%I64d,20", 
; 1004 : 			g_appInfo.dwSys, uidPlayer, dwSkillID, dwLevel, nPoint, nSkillPoint, nSkillLevel, nSkillExp );

  00039	89 44 24 20	 mov	 DWORD PTR $T211043[esp+57428], eax
  0003d	8b 45 0c	 mov	 eax, DWORD PTR _lpDbOverlappedPlus$[ebp]
  00040	8b 50 18	 mov	 edx, DWORD PTR [eax+24]
  00043	89 4c 24 1c	 mov	 DWORD PTR $T211042[esp+57428], ecx
  00047	8b 48 1c	 mov	 ecx, DWORD PTR [eax+28]
  0004a	57		 push	 edi
  0004b	51		 push	 ecx
  0004c	52		 push	 edx
  0004d	8d 4c 24 30	 lea	 ecx, DWORD PTR _arRead$[esp+57440]
  00051	89 44 24 20	 mov	 DWORD PTR $T211044[esp+57440], eax
  00055	e8 00 00 00 00	 call	 ??0CAr@@QAE@PAXI@Z	; CAr::CAr
  0005a	8b 74 24 30	 mov	 esi, DWORD PTR _arRead$[esp+57440]
  0005e	8b 44 24 34	 mov	 eax, DWORD PTR _arRead$[esp+57444]
  00062	33 d2		 xor	 edx, edx
  00064	8d 4e 04	 lea	 ecx, DWORD PTR [esi+4]
  00067	3b c8		 cmp	 ecx, eax
  00069	89 94 24 54 e0
	00 00		 mov	 DWORD PTR __$EHRec$[esp+57440], edx
  00070	77 08		 ja	 SHORT $L210989
  00072	8b 36		 mov	 esi, DWORD PTR [esi]
  00074	89 74 24 1c	 mov	 DWORD PTR _nAction$[esp+57432], esi
  00078	eb 06		 jmp	 SHORT $L211049

; 970  : 	CAr arRead( lpDbOverlappedPlus->lpBuf, lpDbOverlappedPlus->uBufSize );
; 971  : 	
; 972  : 	u_long			uidPlayer;						//  
; 973  : 	int				nAction;						// 
; 974  : 	EXPINTEGER		nSkillExp = 0;						// 
; 975  : 	int				nSkillPoint;					// SP
; 976  : 	int				nSkillLevel = 0;					//   
; 977  : 	DWORD			dwSkillID;						//  
; 978  : 	DWORD			dwLevel;						//   
; 979  : 	int				nPoint;							//   
; 980  : 	
; 981  : 	arRead >> nAction;

$L210989:
  0007a	89 54 24 1c	 mov	 DWORD PTR _nAction$[esp+57432], edx
  0007e	8b c8		 mov	 ecx, eax
$L211049:

; 982  : 	arRead >> uidPlayer;

  00080	8d 71 04	 lea	 esi, DWORD PTR [ecx+4]
  00083	3b f0		 cmp	 esi, eax
  00085	89 4c 24 30	 mov	 DWORD PTR _arRead$[esp+57440], ecx
  00089	77 08		 ja	 SHORT $L210994
  0008b	8b 09		 mov	 ecx, DWORD PTR [ecx]
  0008d	89 4c 24 14	 mov	 DWORD PTR _uidPlayer$[esp+57432], ecx
  00091	eb 06		 jmp	 SHORT $L211050
$L210994:
  00093	89 54 24 14	 mov	 DWORD PTR _uidPlayer$[esp+57432], edx
  00097	8b f0		 mov	 esi, eax
$L211050:

; 983  : 	arRead >> nSkillLevel;

  00099	8d 4e 04	 lea	 ecx, DWORD PTR [esi+4]
  0009c	3b c8		 cmp	 ecx, eax
  0009e	89 74 24 30	 mov	 DWORD PTR _arRead$[esp+57440], esi
  000a2	77 08		 ja	 SHORT $L211006
  000a4	8b 36		 mov	 esi, DWORD PTR [esi]
  000a6	89 74 24 10	 mov	 DWORD PTR _nSkillLevel$[esp+57432], esi
  000aa	eb 06		 jmp	 SHORT $L211051
$L211006:
  000ac	89 54 24 10	 mov	 DWORD PTR _nSkillLevel$[esp+57432], edx
  000b0	8b c8		 mov	 ecx, eax
$L211051:

; 984  : 	arRead >> nSkillPoint;

  000b2	8d 71 04	 lea	 esi, DWORD PTR [ecx+4]
  000b5	3b f0		 cmp	 esi, eax
  000b7	89 4c 24 30	 mov	 DWORD PTR _arRead$[esp+57440], ecx
  000bb	77 08		 ja	 SHORT $L211018
  000bd	8b 09		 mov	 ecx, DWORD PTR [ecx]
  000bf	89 4c 24 0c	 mov	 DWORD PTR _nSkillPoint$[esp+57432], ecx
  000c3	eb 06		 jmp	 SHORT $L211052
$L211018:
  000c5	89 54 24 0c	 mov	 DWORD PTR _nSkillPoint$[esp+57432], edx
  000c9	8b f0		 mov	 esi, eax
$L211052:

; 985  : 	arRead >> dwSkillID;

  000cb	8d 4e 04	 lea	 ecx, DWORD PTR [esi+4]
  000ce	3b c8		 cmp	 ecx, eax
  000d0	89 74 24 30	 mov	 DWORD PTR _arRead$[esp+57440], esi
  000d4	77 04		 ja	 SHORT $L211022
  000d6	8b 1e		 mov	 ebx, DWORD PTR [esi]
  000d8	eb 04		 jmp	 SHORT $L211053
$L211022:
  000da	33 db		 xor	 ebx, ebx
  000dc	8b c8		 mov	 ecx, eax
$L211053:

; 986  : 	arRead >> dwLevel;

  000de	8d 79 04	 lea	 edi, DWORD PTR [ecx+4]
  000e1	3b f8		 cmp	 edi, eax
  000e3	89 4c 24 30	 mov	 DWORD PTR _arRead$[esp+57440], ecx
  000e7	77 06		 ja	 SHORT $L211027
  000e9	8b 31		 mov	 esi, DWORD PTR [ecx]
  000eb	8b cf		 mov	 ecx, edi
  000ed	eb 04		 jmp	 SHORT $L211054
$L211027:
  000ef	33 f6		 xor	 esi, esi
  000f1	8b c8		 mov	 ecx, eax
$L211054:

; 987  : 	arRead >> nPoint;

  000f3	8d 79 04	 lea	 edi, DWORD PTR [ecx+4]
  000f6	3b f8		 cmp	 edi, eax
  000f8	89 4c 24 30	 mov	 DWORD PTR _arRead$[esp+57440], ecx
  000fc	77 08		 ja	 SHORT $L211039
  000fe	8b 11		 mov	 edx, DWORD PTR [ecx]
  00100	89 7c 24 30	 mov	 DWORD PTR _arRead$[esp+57440], edi
  00104	eb 04		 jmp	 SHORT $L211040
$L211039:
  00106	89 44 24 30	 mov	 DWORD PTR _arRead$[esp+57440], eax
$L211040:

; 988  : 
; 989  : 	char szQuery[QUERY_SIZE]	= { 0,};

  0010a	33 c0		 xor	 eax, eax
  0010c	c6 84 24 40 40
	00 00 00	 mov	 BYTE PTR _szQuery$[esp+57432], 0
  00114	b9 ff 27 00 00	 mov	 ecx, 10239		; 000027ffH
  00119	8d bc 24 41 40
	00 00		 lea	 edi, DWORD PTR _szQuery$[esp+57433]
  00120	f3 ab		 rep stosd
  00122	66 ab		 stosw
  00124	aa		 stosb

; 990  : 
; 991  : 	if( nAction == LOG_SKILLPOINT_GET_QUEST )

  00125	8b 44 24 1c	 mov	 eax, DWORD PTR _nAction$[esp+57432]
  00129	85 c0		 test	 eax, eax
  0012b	75 21		 jne	 SHORT $L208690

; 992  : 	{
; 993  : 		sprintf( szQuery, "uspLoggingAcquireSkillPoint '%02d','%07d',%d,%d,%d,%d,%d,%I64d,10", 
; 994  : 			g_appInfo.dwSys, uidPlayer, dwSkillID, dwLevel, nPoint, nSkillPoint, nSkillLevel, nSkillExp );

  0012d	8b 4c 24 0c	 mov	 ecx, DWORD PTR _nSkillPoint$[esp+57432]
  00131	50		 push	 eax
  00132	50		 push	 eax
  00133	8b 44 24 18	 mov	 eax, DWORD PTR _nSkillLevel$[esp+57440]
  00137	50		 push	 eax
  00138	a1 00 00 00 00	 mov	 eax, DWORD PTR ?g_appInfo@@3UAppInfo@@A
  0013d	51		 push	 ecx
  0013e	52		 push	 edx
  0013f	8b 54 24 28	 mov	 edx, DWORD PTR _uidPlayer$[esp+57452]
  00143	56		 push	 esi
  00144	53		 push	 ebx
  00145	52		 push	 edx
  00146	50		 push	 eax
  00147	68 00 00 00 00	 push	 OFFSET FLAT:??_C@_0EC@CBOOBAOL@uspLoggingAcquireSkillPoint?5?8?$CF02@

; 995  : 	}
; 996  : 	else if( nAction == LOG_SKILLPOINT_GET_HUNT )

  0014c	eb 4e		 jmp	 SHORT $L211055
$L208690:
  0014e	83 f8 01	 cmp	 eax, 1
  00151	75 23		 jne	 SHORT $L208693

; 997  : 	{
; 998  : 		sprintf( szQuery, "uspLoggingAcquireSkillPoint '%02d','%07d',%d,%d,%d,%d,%d,%I64d,11", 
; 999  : 			g_appInfo.dwSys, uidPlayer, dwSkillID, dwLevel, nPoint, nSkillPoint, nSkillLevel, nSkillExp );

  00153	8b 44 24 10	 mov	 eax, DWORD PTR _nSkillLevel$[esp+57432]
  00157	8b 4c 24 0c	 mov	 ecx, DWORD PTR _nSkillPoint$[esp+57432]
  0015b	6a 00		 push	 0
  0015d	6a 00		 push	 0
  0015f	50		 push	 eax
  00160	a1 00 00 00 00	 mov	 eax, DWORD PTR ?g_appInfo@@3UAppInfo@@A
  00165	51		 push	 ecx
  00166	52		 push	 edx
  00167	8b 54 24 28	 mov	 edx, DWORD PTR _uidPlayer$[esp+57452]
  0016b	56		 push	 esi
  0016c	53		 push	 ebx
  0016d	52		 push	 edx
  0016e	50		 push	 eax
  0016f	68 00 00 00 00	 push	 OFFSET FLAT:??_C@_0EC@DIPFCBKK@uspLoggingAcquireSkillPoint?5?8?$CF02@

; 1000 : 	}
; 1001 : 	else if( nAction == LOG_SKILLPOINT_USE )

  00174	eb 26		 jmp	 SHORT $L211055
$L208693:
  00176	83 f8 10	 cmp	 eax, 16			; 00000010H
  00179	75 31		 jne	 SHORT $L208696

; 1002 : 	{
; 1003 : 		sprintf( szQuery, "uspLoggingUsingSkillPoint '%02d','%07d',%d,%d,%d,%d,%d,%I64d,20", 
; 1004 : 			g_appInfo.dwSys, uidPlayer, dwSkillID, dwLevel, nPoint, nSkillPoint, nSkillLevel, nSkillExp );

  0017b	8b 44 24 10	 mov	 eax, DWORD PTR _nSkillLevel$[esp+57432]
  0017f	8b 4c 24 0c	 mov	 ecx, DWORD PTR _nSkillPoint$[esp+57432]
  00183	6a 00		 push	 0
  00185	6a 00		 push	 0
  00187	50		 push	 eax
  00188	a1 00 00 00 00	 mov	 eax, DWORD PTR ?g_appInfo@@3UAppInfo@@A
  0018d	51		 push	 ecx
  0018e	52		 push	 edx
  0018f	8b 54 24 28	 mov	 edx, DWORD PTR _uidPlayer$[esp+57452]
  00193	56		 push	 esi
  00194	53		 push	 ebx
  00195	52		 push	 edx
  00196	50		 push	 eax
  00197	68 00 00 00 00	 push	 OFFSET FLAT:??_C@_0EA@PKCEFONH@uspLoggingUsingSkillPoint?5?8?$CF02d?8@
$L211055:
  0019c	8d 8c 24 68 40
	00 00		 lea	 ecx, DWORD PTR _szQuery$[esp+57472]
  001a3	51		 push	 ecx
  001a4	e8 00 00 00 00	 call	 _sprintf
  001a9	83 c4 2c	 add	 esp, 44			; 0000002cH
$L208696:

; 1005 : 	}
; 1006 : 
; 1007 : 	if ( FALSE == pQuery->Exec( szQuery ) )

  001ac	8b 74 24 24	 mov	 esi, DWORD PTR $T211043[esp+57432]
  001b0	8d 94 24 40 40
	00 00		 lea	 edx, DWORD PTR _szQuery$[esp+57432]
  001b7	52		 push	 edx
  001b8	8b ce		 mov	 ecx, esi
  001ba	e8 00 00 00 00	 call	 ?Exec@CQuery@@QAEHPBD@Z	; CQuery::Exec
  001bf	85 c0		 test	 eax, eax
  001c1	75 1f		 jne	 SHORT $L208698

; 1008 : 	{
; 1009 : 		WriteLog( "%s, %d\t%s", __FILE__, __LINE__, pQuery );

  001c3	56		 push	 esi
  001c4	68 f1 03 00 00	 push	 1009			; 000003f1H
  001c9	68 00 00 00 00	 push	 OFFSET FLAT:??_C@_0GH@LHPNFEPP@?2Documents?5and?5Settings?2test?2Mes@
  001ce	68 00 00 00 00	 push	 OFFSET FLAT:??_C@_09GBAEEKDE@?$CFs?0?5?$CFd?7?$CFs?$AA@
  001d3	e8 00 00 00 00	 call	 ?WriteLog@@YAXPBDZZ	; WriteLog

; 1010 : 		FreeRequest( lpDbOverlappedPlus );

  001d8	8b 44 24 28	 mov	 eax, DWORD PTR $T211044[esp+57448]
  001dc	83 c4 10	 add	 esp, 16			; 00000010H
  001df	50		 push	 eax

; 1011 : 		return;

  001e0	eb 05		 jmp	 SHORT $L211056
$L208698:

; 1012 : 	}
; 1013 : 	FreeRequest( lpDbOverlappedPlus );

  001e2	8b 4c 24 18	 mov	 ecx, DWORD PTR $T211044[esp+57432]
  001e6	51		 push	 ecx
$L211056:
  001e7	8b 4c 24 24	 mov	 ecx, DWORD PTR $T211042[esp+57436]
  001eb	e8 00 00 00 00	 call	 ?FreeRequest@CDbManager@@QAEXPAUtagDB_OVERLAPPED_PLUS@@@Z ; CDbManager::FreeRequest

; 1014 : }

  001f0	8d 4c 24 28	 lea	 ecx, DWORD PTR _arRead$[esp+57432]
  001f4	c7 84 24 54 e0
	00 00 ff ff ff
	ff		 mov	 DWORD PTR __$EHRec$[esp+57440], -1
  001ff	e8 00 00 00 00	 call	 ??1CAr@@QAE@XZ		; CAr::~CAr
  00204	8b 8c 24 4c e0
	00 00		 mov	 ecx, DWORD PTR __$EHRec$[esp+57432]
  0020b	64 89 0d 00 00
	00 00		 mov	 DWORD PTR fs:__except_list, ecx
  00212	8b 8c 24 44 e0
	00 00		 mov	 ecx, DWORD PTR __$ArrayPad$[esp+57432]
  00219	5f		 pop	 edi
  0021a	5e		 pop	 esi
  0021b	33 cd		 xor	 ecx, ebp
  0021d	5b		 pop	 ebx
  0021e	e8 00 00 00 00	 call	 @__security_check_cookie@4
  00223	8b e5		 mov	 esp, ebp
  00225	5d		 pop	 ebp
  00226	c2 08 00	 ret	 8
_TEXT	ENDS
;	COMDAT text$x
text$x	SEGMENT
$L210978:
  00000	8d 8d d0 1f ff
	ff		 lea	 ecx, DWORD PTR _arRead$[ebp]
  00006	e9 00 00 00 00	 jmp	 ??1CAr@@QAE@XZ		; CAr::~CAr
__ehhandler$?LogSkillPoint@CDbManager@@AAEXPAVCQuery@@PAUtagDB_OVERLAPPED_PLUS@@@Z:
  0000b	b8 00 00 00 00	 mov	 eax, OFFSET FLAT:$T211046
  00010	e9 00 00 00 00	 jmp	 ___CxxFrameHandler
text$x	ENDS
?LogSkillPoint@CDbManager@@AAEXPAVCQuery@@PAUtagDB_OVERLAPPED_PLUS@@@Z ENDP ; CDbManager::LogSkillPoint
PUBLIC	?LogExpBox@CDbManager@@AAEXPAVCQuery@@PAUtagDB_OVERLAPPED_PLUS@@@Z ; CDbManager::LogExpBox
PUBLIC	??_C@_0FN@JANPKKBA@uspLogExpBox?5?$EApserverindex?$DN?8?$CF02d@ ; `string'
;	COMDAT xdata$x
; File c:\documents and settings\test\mes documents\source\virtuos_v17\build\program\_network\misc\include\ar.h
xdata$x	SEGMENT
$T211096 DD	0ffffffffH
	DD	FLAT:$L211062
$T211092 DD	019930520H
	DD	01H
	DD	FLAT:$T211096
	DD	2 DUP(00H)
	DD	2 DUP(00H)
xdata$x	ENDS
;	COMDAT ??_C@_0FN@JANPKKBA@uspLogExpBox?5?$EApserverindex?$DN?8?$CF02d@
CONST	SEGMENT
??_C@_0FN@JANPKKBA@uspLogExpBox?5?$EApserverindex?$DN?8?$CF02d@ DB 'uspLo'
	DB	'gExpBox @pserverindex=''%02d'', @pidPlayer=''%07d'', @pobjid='
	DB	'%d, @piExp=%I64d, @pState=''%c''', 00H	; `string'
; Function compile flags: /Ogty
; File c:\documents and settings\test\mes documents\source\virtuos_v17\build\program\_database\dbmanagerlog.cpp
CONST	ENDS
;	COMDAT ?LogExpBox@CDbManager@@AAEXPAVCQuery@@PAUtagDB_OVERLAPPED_PLUS@@@Z
_TEXT	SEGMENT
_idPlayer$ = -17476					; size = 4
$T211088 = -17472					; size = 4
$T211089 = -17468					; size = 4
_iExp$ = -17464						; size = 8
_ar$ = -17456						; size = 16404
_pszQuery$ = -1048					; size = 1024
__$ArrayPad$ = -20					; size = 4
__$EHRec$ = -12						; size = 12
__$ReturnAddr$ = 4					; size = 4
_pQuery$ = 8						; size = 4
_pov$ = 12						; size = 4
?LogExpBox@CDbManager@@AAEXPAVCQuery@@PAUtagDB_OVERLAPPED_PLUS@@@Z PROC NEAR ; CDbManager::LogExpBox, COMDAT
; _this$ = ecx

; 1124 : {

  00000	55		 push	 ebp
  00001	8b ec		 mov	 ebp, esp
  00003	83 e4 f8	 and	 esp, -8			; fffffff8H
  00006	6a ff		 push	 -1
  00008	68 00 00 00 00	 push	 __ehhandler$?LogExpBox@CDbManager@@AAEXPAVCQuery@@PAUtagDB_OVERLAPPED_PLUS@@@Z
  0000d	64 a1 00 00 00
	00		 mov	 eax, DWORD PTR fs:__except_list
  00013	50		 push	 eax
  00014	64 89 25 00 00
	00 00		 mov	 DWORD PTR fs:__except_list, esp
  0001b	51		 push	 ecx
  0001c	b8 34 44 00 00	 mov	 eax, 17460		; 00004434H
  00021	e8 00 00 00 00	 call	 __chkstk
  00026	a1 00 00 00 00	 mov	 eax, DWORD PTR ___security_cookie
  0002b	53		 push	 ebx
  0002c	56		 push	 esi
  0002d	8b 75 0c	 mov	 esi, DWORD PTR _pov$[ebp]

; 1125 : 	u_long idPlayer;
; 1126 : 	OBJID objid;
; 1127 : 	EXPINTEGER iExp;
; 1128 : 	BOOL bGet;
; 1129 : 
; 1130 : 	CAr ar( pov->lpBuf, pov->uBufSize );

  00030	8b 56 18	 mov	 edx, DWORD PTR [esi+24]
  00033	89 4c 24 0c	 mov	 DWORD PTR $T211088[esp+17484], ecx
  00037	8b 4e 1c	 mov	 ecx, DWORD PTR [esi+28]
  0003a	33 c5		 xor	 eax, ebp
  0003c	57		 push	 edi
  0003d	51		 push	 ecx
  0003e	89 84 24 40 44
	00 00		 mov	 DWORD PTR __$ArrayPad$[esp+17492], eax
  00045	8b 45 08	 mov	 eax, DWORD PTR _pQuery$[ebp]
  00048	52		 push	 edx
  00049	8d 4c 24 28	 lea	 ecx, DWORD PTR _ar$[esp+17496]

; 1132 : 	char pszQuery[1024]	= { 0, };

  0004d	89 44 24 1c	 mov	 DWORD PTR $T211089[esp+17496], eax
  00051	e8 00 00 00 00	 call	 ??0CAr@@QAE@PAXI@Z	; CAr::CAr
  00056	8b 54 24 28	 mov	 edx, DWORD PTR _ar$[esp+17496]
  0005a	8b 4c 24 2c	 mov	 ecx, DWORD PTR _ar$[esp+17500]
  0005e	33 db		 xor	 ebx, ebx
  00060	8d 42 04	 lea	 eax, DWORD PTR [edx+4]
  00063	3b c1		 cmp	 eax, ecx
  00065	89 9c 24 4c 44
	00 00		 mov	 DWORD PTR __$EHRec$[esp+17496], ebx
  0006c	77 08		 ja	 SHORT $L211065
  0006e	8b 12		 mov	 edx, DWORD PTR [edx]
  00070	89 54 24 0c	 mov	 DWORD PTR _idPlayer$[esp+17488], edx
  00074	eb 06		 jmp	 SHORT $L211095

; 1131 : 	ar >> idPlayer >> objid >> iExp >> bGet;

$L211065:
  00076	89 5c 24 0c	 mov	 DWORD PTR _idPlayer$[esp+17488], ebx
  0007a	8b c1		 mov	 eax, ecx
$L211095:
  0007c	8d 50 04	 lea	 edx, DWORD PTR [eax+4]
  0007f	3b d1		 cmp	 edx, ecx
  00081	89 44 24 28	 mov	 DWORD PTR _ar$[esp+17496], eax
  00085	77 08		 ja	 SHORT $L211070
  00087	8b 18		 mov	 ebx, DWORD PTR [eax]
  00089	89 54 24 28	 mov	 DWORD PTR _ar$[esp+17496], edx
  0008d	eb 04		 jmp	 SHORT $L211071
$L211070:
  0008f	89 4c 24 28	 mov	 DWORD PTR _ar$[esp+17496], ecx
$L211071:
  00093	6a 08		 push	 8
  00095	8d 44 24 1c	 lea	 eax, DWORD PTR _iExp$[esp+17492]
  00099	50		 push	 eax
  0009a	8d 4c 24 28	 lea	 ecx, DWORD PTR _ar$[esp+17496]
  0009e	e8 00 00 00 00	 call	 ?Read@CAr@@QAEXPAXI@Z	; CAr::Read
  000a3	8b 4c 24 28	 mov	 ecx, DWORD PTR _ar$[esp+17496]
  000a7	8b 7c 24 2c	 mov	 edi, DWORD PTR _ar$[esp+17500]
  000ab	8d 41 04	 lea	 eax, DWORD PTR [ecx+4]
  000ae	3b c7		 cmp	 eax, edi
  000b0	77 08		 ja	 SHORT $L211085
  000b2	8b 11		 mov	 edx, DWORD PTR [ecx]
  000b4	89 44 24 28	 mov	 DWORD PTR _ar$[esp+17496], eax
  000b8	eb 06		 jmp	 SHORT $L211086
$L211085:
  000ba	33 d2		 xor	 edx, edx
  000bc	89 7c 24 28	 mov	 DWORD PTR _ar$[esp+17496], edi
$L211086:

; 1132 : 	char pszQuery[1024]	= { 0, };

  000c0	33 c0		 xor	 eax, eax

; 1133 : 
; 1134 : 	sprintf( pszQuery, "uspLogExpBox @pserverindex='%02d', @pidPlayer='%07d', @pobjid=%d, @piExp=%I64d, @pState='%c'",
; 1135 : 		g_appInfo.dwSys, idPlayer, objid, iExp, ( bGet? 'G': 'D' ) );

  000c2	85 d2		 test	 edx, edx
  000c4	c6 84 24 38 40
	00 00 00	 mov	 BYTE PTR _pszQuery$[esp+17488], 0
  000cc	b9 ff 00 00 00	 mov	 ecx, 255		; 000000ffH
  000d1	8d bc 24 39 40
	00 00		 lea	 edi, DWORD PTR _pszQuery$[esp+17489]
  000d8	f3 ab		 rep stosd
  000da	0f 94 c1	 sete	 cl
  000dd	fe c9		 dec	 cl
  000df	80 e1 03	 and	 cl, 3
  000e2	80 c1 44	 add	 cl, 68			; 00000044H
  000e5	66 ab		 stosw
  000e7	0f be d1	 movsx	 edx, cl
  000ea	8b 4c 24 18	 mov	 ecx, DWORD PTR _iExp$[esp+17488]
  000ee	52		 push	 edx
  000ef	8b 54 24 10	 mov	 edx, DWORD PTR _idPlayer$[esp+17492]
  000f3	aa		 stosb
  000f4	8b 44 24 20	 mov	 eax, DWORD PTR _iExp$[esp+17496]
  000f8	50		 push	 eax
  000f9	a1 00 00 00 00	 mov	 eax, DWORD PTR ?g_appInfo@@3UAppInfo@@A
  000fe	51		 push	 ecx
  000ff	53		 push	 ebx
  00100	52		 push	 edx
  00101	50		 push	 eax
  00102	8d 8c 24 50 40
	00 00		 lea	 ecx, DWORD PTR _pszQuery$[esp+17512]
  00109	68 00 00 00 00	 push	 OFFSET FLAT:??_C@_0FN@JANPKKBA@uspLogExpBox?5?$EApserverindex?$DN?8?$CF02d@
  0010e	51		 push	 ecx
  0010f	e8 00 00 00 00	 call	 _sprintf

; 1136 : 
; 1137 : 	if ( FALSE == pQuery->Exec( pszQuery ) )

  00114	8b 4c 24 34	 mov	 ecx, DWORD PTR $T211089[esp+17520]
  00118	83 c4 20	 add	 esp, 32			; 00000020H
  0011b	8d 94 24 38 40
	00 00		 lea	 edx, DWORD PTR _pszQuery$[esp+17488]
  00122	52		 push	 edx
  00123	e8 00 00 00 00	 call	 ?Exec@CQuery@@QAEHPBD@Z	; CQuery::Exec
  00128	85 c0		 test	 eax, eax
  0012a	75 1f		 jne	 SHORT $L208751

; 1138 : 		WriteLog( "%s, %d:\t%s", __FILE__, __LINE__, pszQuery );

  0012c	8d 84 24 38 40
	00 00		 lea	 eax, DWORD PTR _pszQuery$[esp+17488]
  00133	50		 push	 eax
  00134	68 72 04 00 00	 push	 1138			; 00000472H
  00139	68 00 00 00 00	 push	 OFFSET FLAT:??_C@_0GH@LHPNFEPP@?2Documents?5and?5Settings?2test?2Mes@
  0013e	68 00 00 00 00	 push	 OFFSET FLAT:??_C@_0L@EBJDFKBI@?$CFs?0?5?$CFd?3?7?$CFs?$AA@
  00143	e8 00 00 00 00	 call	 ?WriteLog@@YAXPBDZZ	; WriteLog
  00148	83 c4 10	 add	 esp, 16			; 00000010H
$L208751:

; 1139 : 	FreeRequest( pov );

  0014b	8b 4c 24 10	 mov	 ecx, DWORD PTR $T211088[esp+17488]
  0014f	56		 push	 esi
  00150	e8 00 00 00 00	 call	 ?FreeRequest@CDbManager@@QAEXPAUtagDB_OVERLAPPED_PLUS@@@Z ; CDbManager::FreeRequest

; 1140 : //	OutputDebugString( pszQuery );
; 1141 : }

  00155	8d 4c 24 20	 lea	 ecx, DWORD PTR _ar$[esp+17488]
  00159	c7 84 24 4c 44
	00 00 ff ff ff
	ff		 mov	 DWORD PTR __$EHRec$[esp+17496], -1
  00164	e8 00 00 00 00	 call	 ??1CAr@@QAE@XZ		; CAr::~CAr
  00169	8b 8c 24 44 44
	00 00		 mov	 ecx, DWORD PTR __$EHRec$[esp+17488]
  00170	64 89 0d 00 00
	00 00		 mov	 DWORD PTR fs:__except_list, ecx
  00177	8b 8c 24 3c 44
	00 00		 mov	 ecx, DWORD PTR __$ArrayPad$[esp+17488]
  0017e	5f		 pop	 edi
  0017f	5e		 pop	 esi
  00180	33 cd		 xor	 ecx, ebp
  00182	5b		 pop	 ebx
  00183	e8 00 00 00 00	 call	 @__security_check_cookie@4
  00188	8b e5		 mov	 esp, ebp
  0018a	5d		 pop	 ebp
  0018b	c2 08 00	 ret	 8
_TEXT	ENDS
;	COMDAT text$x
text$x	SEGMENT
$L211062:
  00000	8d 8d d0 bb ff
	ff		 lea	 ecx, DWORD PTR _ar$[ebp]
  00006	e9 00 00 00 00	 jmp	 ??1CAr@@QAE@XZ		; CAr::~CAr
__ehhandler$?LogExpBox@CDbManager@@AAEXPAVCQuery@@PAUtagDB_OVERLAPPED_PLUS@@@Z:
  0000b	b8 00 00 00 00	 mov	 eax, OFFSET FLAT:$T211092
  00010	e9 00 00 00 00	 jmp	 ___CxxFrameHandler
text$x	ENDS
?LogExpBox@CDbManager@@AAEXPAVCQuery@@PAUtagDB_OVERLAPPED_PLUS@@@Z ENDP ; CDbManager::LogExpBox
PUBLIC	?LogInstanceDungeon@CDbManager@@AAEXPAVCQuery@@PAUtagDB_OVERLAPPED_PLUS@@@Z ; CDbManager::LogInstanceDungeon
PUBLIC	??_C@_0IJ@FAMDIIKP@usp_Log_Ins_Dungeon_Insert?5?$EAserv@ ; `string'
EXTRN	?Execute@CQuery@@QAAHPBDZZ:NEAR			; CQuery::Execute
;	COMDAT xdata$x
; File c:\documents and settings\test\mes documents\source\virtuos_v17\build\program\_network\misc\include\ar.h
xdata$x	SEGMENT
$T211152 DD	0ffffffffH
	DD	FLAT:$L211101
$T211145 DD	019930520H
	DD	01H
	DD	FLAT:$T211152
	DD	2 DUP(00H)
	DD	2 DUP(00H)
xdata$x	ENDS
;	COMDAT ??_C@_0IJ@FAMDIIKP@usp_Log_Ins_Dungeon_Insert?5?$EAserv@
CONST	SEGMENT
??_C@_0IJ@FAMDIIKP@usp_Log_Ins_Dungeon_Insert?5?$EAserv@ DB 'usp_Log_Ins_'
	DB	'Dungeon_Insert @serverindex = ''%02d'', @m_DungeonID = ''%07d'
	DB	''', @m_WorldID = %d, @m_channel = %d, @m_Type = %d, @m_State '
	DB	'= ''%c''', 00H				; `string'
; Function compile flags: /Ogty
; File c:\documents and settings\test\mes documents\source\virtuos_v17\build\program\_database\dbmanagerlog.cpp
CONST	ENDS
;	COMDAT ?LogInstanceDungeon@CDbManager@@AAEXPAVCQuery@@PAUtagDB_OVERLAPPED_PLUS@@@Z
_TEXT	SEGMENT
_dwWorldId$ = -16436					; size = 4
_dwDungeonId$ = -16432					; size = 4
$T211142 = -16428					; size = 4
$T211141 = -16424					; size = 4
_arRead$ = -16420					; size = 16404
__$ArrayPad$ = -16					; size = 4
__$EHRec$ = -12						; size = 12
__$ReturnAddr$ = 4					; size = 4
_pQuery$ = 8						; size = 4
_lpDbOverlappedPlus$ = 12				; size = 4
?LogInstanceDungeon@CDbManager@@AAEXPAVCQuery@@PAUtagDB_OVERLAPPED_PLUS@@@Z PROC NEAR ; CDbManager::LogInstanceDungeon, COMDAT
; _this$ = ecx

; 1145 : {

  00000	6a ff		 push	 -1
  00002	68 00 00 00 00	 push	 __ehhandler$?LogInstanceDungeon@CDbManager@@AAEXPAVCQuery@@PAUtagDB_OVERLAPPED_PLUS@@@Z
  00007	64 a1 00 00 00
	00		 mov	 eax, DWORD PTR fs:__except_list
  0000d	50		 push	 eax
  0000e	b8 28 40 00 00	 mov	 eax, 16424		; 00004028H
  00013	64 89 25 00 00
	00 00		 mov	 DWORD PTR fs:__except_list, esp
  0001a	e8 00 00 00 00	 call	 __chkstk
  0001f	a1 00 00 00 00	 mov	 eax, DWORD PTR ___security_cookie
  00024	33 c4		 xor	 eax, esp
  00026	53		 push	 ebx
  00027	55		 push	 ebp
  00028	8b ac 24 44 40
	00 00		 mov	 ebp, DWORD PTR _lpDbOverlappedPlus$[esp+16440]

; 1146 : 	CAr arRead( lpDbOverlappedPlus->lpBuf, lpDbOverlappedPlus->uBufSize );

  0002f	8b 55 18	 mov	 edx, DWORD PTR [ebp+24]
  00032	56		 push	 esi
  00033	89 4c 24 18	 mov	 DWORD PTR $T211141[esp+16448], ecx
  00037	8b 4d 1c	 mov	 ecx, DWORD PTR [ebp+28]
  0003a	57		 push	 edi
  0003b	51		 push	 ecx
  0003c	89 84 24 38 40
	00 00		 mov	 DWORD PTR __$ArrayPad$[esp+16456], eax
  00043	8b 84 24 4c 40
	00 00		 mov	 eax, DWORD PTR _pQuery$[esp+16452]
  0004a	52		 push	 edx
  0004b	8d 4c 24 28	 lea	 ecx, DWORD PTR _arRead$[esp+16460]

; 1154 : 	
; 1155 : 	pQuery->Execute( "usp_Log_Ins_Dungeon_Insert @serverindex = '%02d', @m_DungeonID = '%07d', @m_WorldID = %d, @m_channel = %d, @m_Type = %d, @m_State = '%c'", 
; 1156 : 	g_appInfo.dwSys, dwDungeonId, dwWorldId, uChannel, nDungeonType, chState );

  0004f	89 44 24 20	 mov	 DWORD PTR $T211142[esp+16460], eax
  00053	e8 00 00 00 00	 call	 ??0CAr@@QAE@PAXI@Z	; CAr::CAr
  00058	8b 54 24 28	 mov	 edx, DWORD PTR _arRead$[esp+16460]
  0005c	8b 44 24 2c	 mov	 eax, DWORD PTR _arRead$[esp+16464]
  00060	33 db		 xor	 ebx, ebx
  00062	8d 4a 04	 lea	 ecx, DWORD PTR [edx+4]
  00065	3b c8		 cmp	 ecx, eax
  00067	89 9c 24 40 40
	00 00		 mov	 DWORD PTR __$EHRec$[esp+16460], ebx
  0006e	77 08		 ja	 SHORT $L211104
  00070	8b 12		 mov	 edx, DWORD PTR [edx]
  00072	89 54 24 14	 mov	 DWORD PTR _dwDungeonId$[esp+16452], edx
  00076	eb 06		 jmp	 SHORT $L211148

; 1147 : 
; 1148 : 	DWORD dwDungeonId, dwWorldId;
; 1149 : 	u_long uChannel;
; 1150 : 	int	nDungeonType;
; 1151 : 	char chState;
; 1152 : 
; 1153 : 	arRead >> dwDungeonId >> dwWorldId >> uChannel >> nDungeonType >> chState;

$L211104:
  00078	89 5c 24 14	 mov	 DWORD PTR _dwDungeonId$[esp+16452], ebx
  0007c	8b c8		 mov	 ecx, eax
$L211148:
  0007e	8d 51 04	 lea	 edx, DWORD PTR [ecx+4]
  00081	3b d0		 cmp	 edx, eax
  00083	89 4c 24 28	 mov	 DWORD PTR _arRead$[esp+16460], ecx
  00087	77 08		 ja	 SHORT $L211109
  00089	8b 09		 mov	 ecx, DWORD PTR [ecx]
  0008b	89 4c 24 10	 mov	 DWORD PTR _dwWorldId$[esp+16452], ecx
  0008f	eb 06		 jmp	 SHORT $L211149
$L211109:
  00091	89 5c 24 10	 mov	 DWORD PTR _dwWorldId$[esp+16452], ebx
  00095	8b d0		 mov	 edx, eax
$L211149:
  00097	8d 4a 04	 lea	 ecx, DWORD PTR [edx+4]
  0009a	3b c8		 cmp	 ecx, eax
  0009c	89 54 24 28	 mov	 DWORD PTR _arRead$[esp+16460], edx
  000a0	77 04		 ja	 SHORT $L211114
  000a2	8b 12		 mov	 edx, DWORD PTR [edx]
  000a4	eb 04		 jmp	 SHORT $L211150
$L211114:
  000a6	33 d2		 xor	 edx, edx
  000a8	8b c8		 mov	 ecx, eax
$L211150:
  000aa	8d 71 04	 lea	 esi, DWORD PTR [ecx+4]
  000ad	3b f0		 cmp	 esi, eax
  000af	89 4c 24 28	 mov	 DWORD PTR _arRead$[esp+16460], ecx
  000b3	77 04		 ja	 SHORT $L211126
  000b5	8b 09		 mov	 ecx, DWORD PTR [ecx]
  000b7	eb 04		 jmp	 SHORT $L211151
$L211126:
  000b9	33 c9		 xor	 ecx, ecx
  000bb	8b f0		 mov	 esi, eax
$L211151:
  000bd	8d 7e 01	 lea	 edi, DWORD PTR [esi+1]
  000c0	3b f8		 cmp	 edi, eax
  000c2	89 74 24 28	 mov	 DWORD PTR _arRead$[esp+16460], esi
  000c6	77 08		 ja	 SHORT $L211138
  000c8	8a 1e		 mov	 bl, BYTE PTR [esi]
  000ca	89 7c 24 28	 mov	 DWORD PTR _arRead$[esp+16460], edi
  000ce	eb 04		 jmp	 SHORT $L211139
$L211138:
  000d0	89 44 24 28	 mov	 DWORD PTR _arRead$[esp+16460], eax
$L211139:

; 1154 : 	
; 1155 : 	pQuery->Execute( "usp_Log_Ins_Dungeon_Insert @serverindex = '%02d', @m_DungeonID = '%07d', @m_WorldID = %d, @m_channel = %d, @m_Type = %d, @m_State = '%c'", 
; 1156 : 	g_appInfo.dwSys, dwDungeonId, dwWorldId, uChannel, nDungeonType, chState );

  000d4	0f be c3	 movsx	 eax, bl
  000d7	50		 push	 eax
  000d8	a1 00 00 00 00	 mov	 eax, DWORD PTR ?g_appInfo@@3UAppInfo@@A
  000dd	51		 push	 ecx
  000de	8b 4c 24 18	 mov	 ecx, DWORD PTR _dwWorldId$[esp+16460]
  000e2	52		 push	 edx
  000e3	8b 54 24 20	 mov	 edx, DWORD PTR _dwDungeonId$[esp+16464]
  000e7	51		 push	 ecx
  000e8	8b 4c 24 28	 mov	 ecx, DWORD PTR $T211142[esp+16468]
  000ec	52		 push	 edx
  000ed	50		 push	 eax
  000ee	68 00 00 00 00	 push	 OFFSET FLAT:??_C@_0IJ@FAMDIIKP@usp_Log_Ins_Dungeon_Insert?5?$EAserv@
  000f3	51		 push	 ecx
  000f4	e8 00 00 00 00	 call	 ?Execute@CQuery@@QAAHPBDZZ ; CQuery::Execute

; 1157 : 	
; 1158 : 	FreeRequest( lpDbOverlappedPlus );

  000f9	8b 4c 24 3c	 mov	 ecx, DWORD PTR $T211141[esp+16484]
  000fd	83 c4 20	 add	 esp, 32			; 00000020H
  00100	55		 push	 ebp
  00101	e8 00 00 00 00	 call	 ?FreeRequest@CDbManager@@QAEXPAUtagDB_OVERLAPPED_PLUS@@@Z ; CDbManager::FreeRequest

; 1159 : }

  00106	8d 4c 24 20	 lea	 ecx, DWORD PTR _arRead$[esp+16452]
  0010a	c7 84 24 40 40
	00 00 ff ff ff
	ff		 mov	 DWORD PTR __$EHRec$[esp+16460], -1
  00115	e8 00 00 00 00	 call	 ??1CAr@@QAE@XZ		; CAr::~CAr
  0011a	8b 8c 24 38 40
	00 00		 mov	 ecx, DWORD PTR __$EHRec$[esp+16452]
  00121	5f		 pop	 edi
  00122	5e		 pop	 esi
  00123	5d		 pop	 ebp
  00124	64 89 0d 00 00
	00 00		 mov	 DWORD PTR fs:__except_list, ecx
  0012b	8b 8c 24 28 40
	00 00		 mov	 ecx, DWORD PTR __$ArrayPad$[esp+16440]
  00132	5b		 pop	 ebx
  00133	33 cc		 xor	 ecx, esp
  00135	e8 00 00 00 00	 call	 @__security_check_cookie@4
  0013a	81 c4 34 40 00
	00		 add	 esp, 16436		; 00004034H
  00140	c2 08 00	 ret	 8
_TEXT	ENDS
;	COMDAT text$x
text$x	SEGMENT
$L211101:
  00000	8d 8d dc bf ff
	ff		 lea	 ecx, DWORD PTR _arRead$[ebp]
  00006	e9 00 00 00 00	 jmp	 ??1CAr@@QAE@XZ		; CAr::~CAr
__ehhandler$?LogInstanceDungeon@CDbManager@@AAEXPAVCQuery@@PAUtagDB_OVERLAPPED_PLUS@@@Z:
  0000b	b8 00 00 00 00	 mov	 eax, OFFSET FLAT:$T211145
  00010	e9 00 00 00 00	 jmp	 ___CxxFrameHandler
text$x	ENDS
?LogInstanceDungeon@CDbManager@@AAEXPAVCQuery@@PAUtagDB_OVERLAPPED_PLUS@@@Z ENDP ; CDbManager::LogInstanceDungeon
PUBLIC	?LogError@CDbManager@@AAEXPAVCQuery@@PAUtagDB_OVERLAPPED_PLUS@@@Z ; CDbManager::LogError
PUBLIC	??_C@_0ID@PMGIPGNI@usp_SystemError_Insert?5?$EAm_idPlay@ ; `string'
;	COMDAT xdata$x
; File c:\documents and settings\test\mes documents\source\virtuos_v17\build\program\_network\misc\include\ar.h
xdata$x	SEGMENT
$T211189 DD	0ffffffffH
	DD	FLAT:$L211158
$T211185 DD	019930520H
	DD	01H
	DD	FLAT:$T211189
	DD	2 DUP(00H)
	DD	2 DUP(00H)
xdata$x	ENDS
;	COMDAT ??_C@_0ID@PMGIPGNI@usp_SystemError_Insert?5?$EAm_idPlay@
CONST	SEGMENT
??_C@_0ID@PMGIPGNI@usp_SystemError_Insert?5?$EAm_idPlay@ DB 'usp_SystemEr'
	DB	'ror_Insert @m_idPlayer = ''%07d'', @serverindex = ''%02d'', @'
	DB	'account = %s, @nChannel = %d, @chType = ''%c'', @szError = '''
	DB	'%s''', 00H					; `string'
; Function compile flags: /Ogty
; File c:\documents and settings\test\mes documents\source\virtuos_v17\build\program\_database\dbmanagerlog.cpp
CONST	ENDS
;	COMDAT ?LogError@CDbManager@@AAEXPAVCQuery@@PAUtagDB_OVERLAPPED_PLUS@@@Z
_TEXT	SEGMENT
_idPlayer$ = -17516					; size = 4
$T211181 = -17512					; size = 4
$T211182 = -17508					; size = 4
_arRead$ = -17504					; size = 16404
_szAccount$ = -1092					; size = 42
_szError$ = -1048					; size = 1024
__$ArrayPad$ = -20					; size = 4
__$EHRec$ = -12						; size = 12
__$ReturnAddr$ = 4					; size = 4
_pQuery$ = 8						; size = 4
_lpDbOverlappedPlus$ = 12				; size = 4
?LogError@CDbManager@@AAEXPAVCQuery@@PAUtagDB_OVERLAPPED_PLUS@@@Z PROC NEAR ; CDbManager::LogError, COMDAT
; _this$ = ecx

; 1164 : {

  00000	55		 push	 ebp
  00001	8b ec		 mov	 ebp, esp
  00003	83 e4 f8	 and	 esp, -8			; fffffff8H
  00006	6a ff		 push	 -1
  00008	68 00 00 00 00	 push	 __ehhandler$?LogError@CDbManager@@AAEXPAVCQuery@@PAUtagDB_OVERLAPPED_PLUS@@@Z
  0000d	64 a1 00 00 00
	00		 mov	 eax, DWORD PTR fs:__except_list
  00013	50		 push	 eax
  00014	64 89 25 00 00
	00 00		 mov	 DWORD PTR fs:__except_list, esp
  0001b	51		 push	 ecx
  0001c	b8 5c 44 00 00	 mov	 eax, 17500		; 0000445cH
  00021	e8 00 00 00 00	 call	 __chkstk
  00026	a1 00 00 00 00	 mov	 eax, DWORD PTR ___security_cookie
  0002b	53		 push	 ebx
  0002c	56		 push	 esi
  0002d	8b 75 0c	 mov	 esi, DWORD PTR _lpDbOverlappedPlus$[ebp]

; 1165 : 	CAr arRead( lpDbOverlappedPlus->lpBuf, lpDbOverlappedPlus->uBufSize );

  00030	8b 56 18	 mov	 edx, DWORD PTR [esi+24]
  00033	89 4c 24 0c	 mov	 DWORD PTR $T211181[esp+17524], ecx
  00037	8b 4e 1c	 mov	 ecx, DWORD PTR [esi+28]
  0003a	33 c5		 xor	 eax, ebp
  0003c	57		 push	 edi
  0003d	51		 push	 ecx
  0003e	89 84 24 68 44
	00 00		 mov	 DWORD PTR __$ArrayPad$[esp+17532], eax
  00045	8b 45 08	 mov	 eax, DWORD PTR _pQuery$[ebp]
  00048	52		 push	 edx
  00049	8d 4c 24 20	 lea	 ecx, DWORD PTR _arRead$[esp+17536]

; 1175 : 	arRead.ReadString( szError, 1024 );

  0004d	89 44 24 1c	 mov	 DWORD PTR $T211182[esp+17536], eax
  00051	e8 00 00 00 00	 call	 ??0CAr@@QAE@PAXI@Z	; CAr::CAr
  00056	8b 54 24 24	 mov	 edx, DWORD PTR _arRead$[esp+17540]
  0005a	33 c0		 xor	 eax, eax
  0005c	33 db		 xor	 ebx, ebx
  0005e	88 9c 24 34 40
	00 00		 mov	 BYTE PTR _szAccount$[esp+17528], bl
  00065	b9 0a 00 00 00	 mov	 ecx, 10			; 0000000aH
  0006a	8d bc 24 35 40
	00 00		 lea	 edi, DWORD PTR _szAccount$[esp+17529]
  00071	f3 ab		 rep stosd
  00073	aa		 stosb
  00074	33 c0		 xor	 eax, eax
  00076	88 9c 24 60 40
	00 00		 mov	 BYTE PTR _szError$[esp+17528], bl
  0007d	b9 ff 00 00 00	 mov	 ecx, 255		; 000000ffH
  00082	8d bc 24 61 40
	00 00		 lea	 edi, DWORD PTR _szError$[esp+17529]
  00089	f3 ab		 rep stosd
  0008b	8b 4c 24 20	 mov	 ecx, DWORD PTR _arRead$[esp+17536]
  0008f	66 ab		 stosw
  00091	aa		 stosb
  00092	8d 41 04	 lea	 eax, DWORD PTR [ecx+4]
  00095	3b c2		 cmp	 eax, edx
  00097	89 9c 24 74 44
	00 00		 mov	 DWORD PTR __$EHRec$[esp+17536], ebx
  0009e	77 0c		 ja	 SHORT $L211161
  000a0	8b 09		 mov	 ecx, DWORD PTR [ecx]
  000a2	89 4c 24 0c	 mov	 DWORD PTR _idPlayer$[esp+17528], ecx
  000a6	89 44 24 20	 mov	 DWORD PTR _arRead$[esp+17536], eax
  000aa	eb 08		 jmp	 SHORT $L211162

; 1166 : 
; 1167 : 	u_long idPlayer, idChannel;
; 1168 : 	char szAccount[MAX_ACCOUNT] = {0, };
; 1169 : 	char chType;
; 1170 : 	char szError[1024] = {0, };
; 1171 : 
; 1172 : 	arRead >> idPlayer;

$L211161:
  000ac	89 5c 24 0c	 mov	 DWORD PTR _idPlayer$[esp+17528], ebx
  000b0	89 54 24 20	 mov	 DWORD PTR _arRead$[esp+17536], edx
$L211162:

; 1173 : 	arRead.ReadString( szAccount, MAX_ACCOUNT );

  000b4	6a 2a		 push	 42			; 0000002aH
  000b6	8d 94 24 38 40
	00 00		 lea	 edx, DWORD PTR _szAccount$[esp+17532]
  000bd	52		 push	 edx
  000be	8d 4c 24 20	 lea	 ecx, DWORD PTR _arRead$[esp+17536]
  000c2	e8 00 00 00 00	 call	 ?ReadString@CAr@@QAEPADPADH@Z ; CAr::ReadString

; 1174 : 	arRead >> idChannel >> chType;

  000c7	8b 54 24 20	 mov	 edx, DWORD PTR _arRead$[esp+17536]
  000cb	8b 4c 24 24	 mov	 ecx, DWORD PTR _arRead$[esp+17540]
  000cf	8d 42 04	 lea	 eax, DWORD PTR [edx+4]
  000d2	3b c1		 cmp	 eax, ecx
  000d4	77 04		 ja	 SHORT $L211166
  000d6	8b 3a		 mov	 edi, DWORD PTR [edx]
  000d8	eb 04		 jmp	 SHORT $L211188
$L211166:
  000da	33 ff		 xor	 edi, edi
  000dc	8b c1		 mov	 eax, ecx
$L211188:
  000de	8d 50 01	 lea	 edx, DWORD PTR [eax+1]
  000e1	3b d1		 cmp	 edx, ecx
  000e3	89 44 24 20	 mov	 DWORD PTR _arRead$[esp+17536], eax
  000e7	77 08		 ja	 SHORT $L211178
  000e9	8a 18		 mov	 bl, BYTE PTR [eax]
  000eb	89 54 24 20	 mov	 DWORD PTR _arRead$[esp+17536], edx
  000ef	eb 04		 jmp	 SHORT $L211179
$L211178:
  000f1	89 4c 24 20	 mov	 DWORD PTR _arRead$[esp+17536], ecx
$L211179:

; 1175 : 	arRead.ReadString( szError, 1024 );

  000f5	68 00 04 00 00	 push	 1024			; 00000400H
  000fa	8d 84 24 64 40
	00 00		 lea	 eax, DWORD PTR _szError$[esp+17532]
  00101	50		 push	 eax
  00102	8d 4c 24 20	 lea	 ecx, DWORD PTR _arRead$[esp+17536]
  00106	e8 00 00 00 00	 call	 ?ReadString@CAr@@QAEPADPADH@Z ; CAr::ReadString

; 1176 : 	
; 1177 : 	pQuery->Execute( "usp_SystemError_Insert @m_idPlayer = '%07d', @serverindex = '%02d', @account = %s, @nChannel = %d, @chType = '%c', @szError = '%s'", 
; 1178 : 	idPlayer, g_appInfo.dwSys, szAccount, idChannel, chType, szError );

  0010b	8d 8c 24 60 40
	00 00		 lea	 ecx, DWORD PTR _szError$[esp+17528]
  00112	51		 push	 ecx
  00113	8b 0d 00 00 00
	00		 mov	 ecx, DWORD PTR ?g_appInfo@@3UAppInfo@@A
  00119	0f be d3	 movsx	 edx, bl
  0011c	52		 push	 edx
  0011d	8b 54 24 14	 mov	 edx, DWORD PTR _idPlayer$[esp+17536]
  00121	57		 push	 edi
  00122	8d 84 24 40 40
	00 00		 lea	 eax, DWORD PTR _szAccount$[esp+17540]
  00129	50		 push	 eax
  0012a	8b 44 24 24	 mov	 eax, DWORD PTR $T211182[esp+17544]
  0012e	51		 push	 ecx
  0012f	52		 push	 edx
  00130	68 00 00 00 00	 push	 OFFSET FLAT:??_C@_0ID@PMGIPGNI@usp_SystemError_Insert?5?$EAm_idPlay@
  00135	50		 push	 eax
  00136	e8 00 00 00 00	 call	 ?Execute@CQuery@@QAAHPBDZZ ; CQuery::Execute

; 1179 : 	
; 1180 : 	FreeRequest( lpDbOverlappedPlus );

  0013b	8b 4c 24 30	 mov	 ecx, DWORD PTR $T211181[esp+17560]
  0013f	83 c4 20	 add	 esp, 32			; 00000020H
  00142	56		 push	 esi
  00143	e8 00 00 00 00	 call	 ?FreeRequest@CDbManager@@QAEXPAUtagDB_OVERLAPPED_PLUS@@@Z ; CDbManager::FreeRequest

; 1181 : }

  00148	8d 4c 24 18	 lea	 ecx, DWORD PTR _arRead$[esp+17528]
  0014c	c7 84 24 74 44
	00 00 ff ff ff
	ff		 mov	 DWORD PTR __$EHRec$[esp+17536], -1
  00157	e8 00 00 00 00	 call	 ??1CAr@@QAE@XZ		; CAr::~CAr
  0015c	8b 8c 24 6c 44
	00 00		 mov	 ecx, DWORD PTR __$EHRec$[esp+17528]
  00163	64 89 0d 00 00
	00 00		 mov	 DWORD PTR fs:__except_list, ecx
  0016a	8b 8c 24 64 44
	00 00		 mov	 ecx, DWORD PTR __$ArrayPad$[esp+17528]
  00171	5f		 pop	 edi
  00172	5e		 pop	 esi
  00173	33 cd		 xor	 ecx, ebp
  00175	5b		 pop	 ebx
  00176	e8 00 00 00 00	 call	 @__security_check_cookie@4
  0017b	8b e5		 mov	 esp, ebp
  0017d	5d		 pop	 ebp
  0017e	c2 08 00	 ret	 8
_TEXT	ENDS
;	COMDAT text$x
text$x	SEGMENT
$L211158:
  00000	8d 8d a0 bb ff
	ff		 lea	 ecx, DWORD PTR _arRead$[ebp]
  00006	e9 00 00 00 00	 jmp	 ??1CAr@@QAE@XZ		; CAr::~CAr
__ehhandler$?LogError@CDbManager@@AAEXPAVCQuery@@PAUtagDB_OVERLAPPED_PLUS@@@Z:
  0000b	b8 00 00 00 00	 mov	 eax, OFFSET FLAT:$T211185
  00010	e9 00 00 00 00	 jmp	 ___CxxFrameHandler
text$x	ENDS
?LogError@CDbManager@@AAEXPAVCQuery@@PAUtagDB_OVERLAPPED_PLUS@@@Z ENDP ; CDbManager::LogError
PUBLIC	?LogGuildFurniture@CDbManager@@AAEXPAVCQuery@@PAUtagDB_OVERLAPPED_PLUS@@@Z ; CDbManager::LogGuildFurniture
PUBLIC	??_C@_0IN@GLPAOOJ@usp_GuildFurniture_Log?5?$EAserverin@ ; `string'
EXTRN	??0GuildHouse_Furniture_Info@CGuildHouseBase@@QAE@KHUD3DXVECTOR3@@MJ@Z:NEAR ; CGuildHouseBase::GuildHouse_Furniture_Info::GuildHouse_Furniture_Info
EXTRN	?Serialize@GuildHouse_Furniture_Info@CGuildHouseBase@@QAEXAAVCAr@@@Z:NEAR ; CGuildHouseBase::GuildHouse_Furniture_Info::Serialize
;	COMDAT xdata$x
; File c:\documents and settings\test\mes documents\source\virtuos_v17\build\program\_network\misc\include\ar.h
xdata$x	SEGMENT
$T211225 DD	0ffffffffH
	DD	FLAT:$L211195
$T211220 DD	019930520H
	DD	01H
	DD	FLAT:$T211225
	DD	2 DUP(00H)
	DD	2 DUP(00H)
xdata$x	ENDS
;	COMDAT ??_C@_0IN@GLPAOOJ@usp_GuildFurniture_Log?5?$EAserverin@
CONST	SEGMENT
??_C@_0IN@GLPAOOJ@usp_GuildFurniture_Log?5?$EAserverin@ DB 'usp_GuildFurn'
	DB	'iture_Log @serverindex = ''%02d'', @m_idGuild = ''%06d'', @SE'
	DB	'Q = %d, @ItemIndex = %d, @tKeepTime = %d, @bSetup = %d, @nSta'
	DB	'te = ''%c''', 00H				; `string'
; Function compile flags: /Ogty
; File c:\documents and settings\test\mes documents\source\virtuos_v17\build\program\_database\dbmanagerlog.cpp
CONST	ENDS
;	COMDAT ?LogGuildFurniture@CDbManager@@AAEXPAVCQuery@@PAUtagDB_OVERLAPPED_PLUS@@@Z
_TEXT	SEGMENT
$T211194 = -16468					; size = 12
_gfi$ = -16456						; size = 36
_arRead$ = -16420					; size = 16404
__$ArrayPad$ = -16					; size = 4
__$EHRec$ = -12						; size = 12
__$ReturnAddr$ = 4					; size = 4
_pQuery$ = 8						; size = 4
_lpDbOverlappedPlus$ = 12				; size = 4
?LogGuildFurniture@CDbManager@@AAEXPAVCQuery@@PAUtagDB_OVERLAPPED_PLUS@@@Z PROC NEAR ; CDbManager::LogGuildFurniture, COMDAT
; _this$ = ecx

; 1186 : {

  00000	6a ff		 push	 -1
  00002	68 00 00 00 00	 push	 __ehhandler$?LogGuildFurniture@CDbManager@@AAEXPAVCQuery@@PAUtagDB_OVERLAPPED_PLUS@@@Z
  00007	64 a1 00 00 00
	00		 mov	 eax, DWORD PTR fs:__except_list
  0000d	50		 push	 eax
  0000e	b8 48 40 00 00	 mov	 eax, 16456		; 00004048H
  00013	64 89 25 00 00
	00 00		 mov	 DWORD PTR fs:__except_list, esp
  0001a	e8 00 00 00 00	 call	 __chkstk
  0001f	a1 00 00 00 00	 mov	 eax, DWORD PTR ___security_cookie
  00024	33 c4		 xor	 eax, esp
  00026	53		 push	 ebx
  00027	55		 push	 ebp
  00028	8b ac 24 60 40
	00 00		 mov	 ebp, DWORD PTR _pQuery$[esp+16472]
  0002f	56		 push	 esi
  00030	8b b4 24 68 40
	00 00		 mov	 esi, DWORD PTR _lpDbOverlappedPlus$[esp+16476]
  00037	89 84 24 50 40
	00 00		 mov	 DWORD PTR __$ArrayPad$[esp+16480], eax

; 1187 : 	CAr arRead( lpDbOverlappedPlus->lpBuf, lpDbOverlappedPlus->uBufSize );

  0003e	8b 46 1c	 mov	 eax, DWORD PTR [esi+28]
  00041	57		 push	 edi
  00042	8b d9		 mov	 ebx, ecx
  00044	8b 4e 18	 mov	 ecx, DWORD PTR [esi+24]
  00047	50		 push	 eax
  00048	51		 push	 ecx
  00049	8d 4c 24 48	 lea	 ecx, DWORD PTR _arRead$[esp+16492]
  0004d	e8 00 00 00 00	 call	 ??0CAr@@QAE@PAXI@Z	; CAr::CAr
  00052	33 ff		 xor	 edi, edi

; 1188 : 
; 1189 : 	DWORD dwGuildId;
; 1190 : 	GH_Fntr_Info gfi;

  00054	57		 push	 edi
  00055	57		 push	 edi
  00056	83 ec 0c	 sub	 esp, 12			; 0000000cH
  00059	8b d4		 mov	 edx, esp
  0005b	8b c7		 mov	 eax, edi
  0005d	89 02		 mov	 DWORD PTR [edx], eax
  0005f	8b cf		 mov	 ecx, edi
  00061	89 4a 04	 mov	 DWORD PTR [edx+4], ecx
  00064	57		 push	 edi
  00065	6a ff		 push	 -1
  00067	8d 4c 24 38	 lea	 ecx, DWORD PTR _gfi$[esp+16512]
  0006b	89 bc 24 7c 40
	00 00		 mov	 DWORD PTR __$EHRec$[esp+16520], edi
  00072	89 7c 24 2c	 mov	 DWORD PTR $T211194[esp+16512], edi
  00076	89 7c 24 30	 mov	 DWORD PTR $T211194[esp+16516], edi
  0007a	89 7c 24 34	 mov	 DWORD PTR $T211194[esp+16520], edi
  0007e	89 42 08	 mov	 DWORD PTR [edx+8], eax
  00081	e8 00 00 00 00	 call	 ??0GuildHouse_Furniture_Info@CGuildHouseBase@@QAE@KHUD3DXVECTOR3@@MJ@Z ; CGuildHouseBase::GuildHouse_Furniture_Info::GuildHouse_Furniture_Info

; 1191 : 	char chState;
; 1192 : 
; 1193 : 	arRead >> dwGuildId;

  00086	8b 4c 24 48	 mov	 ecx, DWORD PTR _arRead$[esp+16492]
  0008a	8b 54 24 4c	 mov	 edx, DWORD PTR _arRead$[esp+16496]
  0008e	8d 41 04	 lea	 eax, DWORD PTR [ecx+4]
  00091	3b c2		 cmp	 eax, edx
  00093	77 08		 ja	 SHORT $L211201
  00095	8b 39		 mov	 edi, DWORD PTR [ecx]
  00097	89 44 24 48	 mov	 DWORD PTR _arRead$[esp+16492], eax
  0009b	eb 04		 jmp	 SHORT $L211202
$L211201:
  0009d	89 54 24 48	 mov	 DWORD PTR _arRead$[esp+16492], edx
$L211202:

; 1194 : 	gfi.Serialize( arRead );

  000a1	8d 4c 24 40	 lea	 ecx, DWORD PTR _arRead$[esp+16484]
  000a5	51		 push	 ecx
  000a6	8d 4c 24 20	 lea	 ecx, DWORD PTR _gfi$[esp+16488]
  000aa	e8 00 00 00 00	 call	 ?Serialize@GuildHouse_Furniture_Info@CGuildHouseBase@@QAEXAAVCAr@@@Z ; CGuildHouseBase::GuildHouse_Furniture_Info::Serialize

; 1195 : 	arRead >> chState;

  000af	8b 44 24 48	 mov	 eax, DWORD PTR _arRead$[esp+16492]
  000b3	8b 54 24 4c	 mov	 edx, DWORD PTR _arRead$[esp+16496]
  000b7	8d 48 01	 lea	 ecx, DWORD PTR [eax+1]
  000ba	3b ca		 cmp	 ecx, edx
  000bc	77 08		 ja	 SHORT $L211213
  000be	8a 00		 mov	 al, BYTE PTR [eax]
  000c0	89 4c 24 48	 mov	 DWORD PTR _arRead$[esp+16492], ecx
  000c4	eb 06		 jmp	 SHORT $L211214
$L211213:
  000c6	32 c0		 xor	 al, al
  000c8	89 54 24 48	 mov	 DWORD PTR _arRead$[esp+16492], edx
$L211214:

; 1196 : 
; 1197 : 	pQuery->Execute( "usp_GuildFurniture_Log @serverindex = '%02d', @m_idGuild = '%06d', @SEQ = %d, @ItemIndex = %d, @tKeepTime = %d, @bSetup = %d, @nState = '%c'", 
; 1198 : 		g_appInfo.dwSys, dwGuildId, gfi.nSeqNum, gfi.dwItemId, gfi.tKeepTime, static_cast<int>( gfi.bSetup ), chState );

  000cc	8b 4c 24 38	 mov	 ecx, DWORD PTR _gfi$[esp+16512]
  000d0	0f be d0	 movsx	 edx, al
  000d3	8b 44 24 20	 mov	 eax, DWORD PTR _gfi$[esp+16488]
  000d7	52		 push	 edx
  000d8	8b 54 24 20	 mov	 edx, DWORD PTR _gfi$[esp+16488]
  000dc	50		 push	 eax
  000dd	8b 44 24 44	 mov	 eax, DWORD PTR _gfi$[esp+16524]
  000e1	51		 push	 ecx
  000e2	8b 0d 00 00 00
	00		 mov	 ecx, DWORD PTR ?g_appInfo@@3UAppInfo@@A
  000e8	52		 push	 edx
  000e9	50		 push	 eax
  000ea	57		 push	 edi
  000eb	51		 push	 ecx
  000ec	68 00 00 00 00	 push	 OFFSET FLAT:??_C@_0IN@GLPAOOJ@usp_GuildFurniture_Log?5?$EAserverin@
  000f1	55		 push	 ebp
  000f2	e8 00 00 00 00	 call	 ?Execute@CQuery@@QAAHPBDZZ ; CQuery::Execute
  000f7	83 c4 24	 add	 esp, 36			; 00000024H

; 1199 : 
; 1200 : 	FreeRequest( lpDbOverlappedPlus );

  000fa	56		 push	 esi
  000fb	8b cb		 mov	 ecx, ebx
  000fd	e8 00 00 00 00	 call	 ?FreeRequest@CDbManager@@QAEXPAUtagDB_OVERLAPPED_PLUS@@@Z ; CDbManager::FreeRequest

; 1201 : }

  00102	8d 4c 24 40	 lea	 ecx, DWORD PTR _arRead$[esp+16484]
  00106	c7 84 24 60 40
	00 00 ff ff ff
	ff		 mov	 DWORD PTR __$EHRec$[esp+16492], -1
  00111	e8 00 00 00 00	 call	 ??1CAr@@QAE@XZ		; CAr::~CAr
  00116	8b 8c 24 58 40
	00 00		 mov	 ecx, DWORD PTR __$EHRec$[esp+16484]
  0011d	5f		 pop	 edi
  0011e	5e		 pop	 esi
  0011f	64 89 0d 00 00
	00 00		 mov	 DWORD PTR fs:__except_list, ecx
  00126	8b 8c 24 4c 40
	00 00		 mov	 ecx, DWORD PTR __$ArrayPad$[esp+16476]
  0012d	5d		 pop	 ebp
  0012e	5b		 pop	 ebx
  0012f	33 cc		 xor	 ecx, esp
  00131	e8 00 00 00 00	 call	 @__security_check_cookie@4
  00136	81 c4 54 40 00
	00		 add	 esp, 16468		; 00004054H
  0013c	c2 08 00	 ret	 8
_TEXT	ENDS
;	COMDAT text$x
text$x	SEGMENT
$L211195:
  00000	8d 8d dc bf ff
	ff		 lea	 ecx, DWORD PTR _arRead$[ebp]
  00006	e9 00 00 00 00	 jmp	 ??1CAr@@QAE@XZ		; CAr::~CAr
__ehhandler$?LogGuildFurniture@CDbManager@@AAEXPAVCQuery@@PAUtagDB_OVERLAPPED_PLUS@@@Z:
  0000b	b8 00 00 00 00	 mov	 eax, OFFSET FLAT:$T211220
  00010	e9 00 00 00 00	 jmp	 ___CxxFrameHandler
text$x	ENDS
?LogGuildFurniture@CDbManager@@AAEXPAVCQuery@@PAUtagDB_OVERLAPPED_PLUS@@@Z ENDP ; CDbManager::LogGuildFurniture
PUBLIC	??1?$CStringT@DV?$StrTraitMFC@DV?$ChTraitsCRT@D@ATL@@@@@ATL@@QAE@XZ ; ATL::CStringT<char,StrTraitMFC<char,ATL::ChTraitsCRT<char> > >::~CStringT<char,StrTraitMFC<char,ATL::ChTraitsCRT<char> > >
; Function compile flags: /Ogty
; File c:\program files\microsoft visual studio .net 2003\vc7\atlmfc\include\cstringt.h
;	COMDAT ??1?$CStringT@DV?$StrTraitMFC@DV?$ChTraitsCRT@D@ATL@@@@@ATL@@QAE@XZ
_TEXT	SEGMENT
??1?$CStringT@DV?$StrTraitMFC@DV?$ChTraitsCRT@D@ATL@@@@@ATL@@QAE@XZ PROC NEAR ; ATL::CStringT<char,StrTraitMFC<char,ATL::ChTraitsCRT<char> > >::~CStringT<char,StrTraitMFC<char,ATL::ChTraitsCRT<char> > >, COMDAT
; _this$ = ecx

; 963  : 	}

  00000	8b 01		 mov	 eax, DWORD PTR [ecx]
  00002	83 e8 10	 sub	 eax, 16			; 00000010H
  00005	8d 48 0c	 lea	 ecx, DWORD PTR [eax+12]
  00008	83 ca ff	 or	 edx, -1
  0000b	f0 0f c1 11	 lock	  xadd	 DWORD PTR [ecx], edx
  0000f	4a		 dec	 edx
  00010	85 d2		 test	 edx, edx
  00012	7f 08		 jg	 SHORT $L211243
  00014	8b 08		 mov	 ecx, DWORD PTR [eax]
  00016	8b 11		 mov	 edx, DWORD PTR [ecx]
  00018	50		 push	 eax
  00019	ff 52 04	 call	 DWORD PTR [edx+4]
$L211243:
  0001c	c3		 ret	 0
??1?$CStringT@DV?$StrTraitMFC@DV?$ChTraitsCRT@D@ATL@@@@@ATL@@QAE@XZ ENDP ; ATL::CStringT<char,StrTraitMFC<char,ATL::ChTraitsCRT<char> > >::~CStringT<char,StrTraitMFC<char,ATL::ChTraitsCRT<char> > >
_TEXT	ENDS
PUBLIC	?PrepareWrite@?$CSimpleStringT@D$0A@@ATL@@AAEPADH@Z ; ATL::CSimpleStringT<char,0>::PrepareWrite
; Function compile flags: /Ogty
; File c:\program files\microsoft visual studio .net 2003\vc7\atlmfc\include\atlsimpstr.h
;	COMDAT ?PrepareWrite@?$CSimpleStringT@D$0A@@ATL@@AAEPADH@Z
_TEXT	SEGMENT
_nLength$ = 8						; size = 4
?PrepareWrite@?$CSimpleStringT@D$0A@@ATL@@AAEPADH@Z PROC NEAR ; ATL::CSimpleStringT<char,0>::PrepareWrite, COMDAT
; _this$ = ecx

; 734  : 	{

  00000	56		 push	 esi
  00001	8b f1		 mov	 esi, ecx

; 735  : 		CStringData* pOldData = GetData();

  00003	8b 06		 mov	 eax, DWORD PTR [esi]

; 736  : 		int nShared = 1-pOldData->nRefs;  // nShared < 0 means true, >= 0 means false

  00005	8b 50 fc	 mov	 edx, DWORD PTR [eax-4]
  00008	83 e8 10	 sub	 eax, 16			; 00000010H
  0000b	b9 01 00 00 00	 mov	 ecx, 1
  00010	2b ca		 sub	 ecx, edx

; 737  : 		int nTooShort = pOldData->nAllocLength-nLength;  // nTooShort < 0 means true, >= 0 means false

  00012	8b 50 08	 mov	 edx, DWORD PTR [eax+8]
  00015	8b 44 24 08	 mov	 eax, DWORD PTR _nLength$[esp]
  00019	2b d0		 sub	 edx, eax

; 738  : 		if( (nShared|nTooShort) < 0 )  // If either sign bit is set (i.e. either is less than zero), we need to copy data

  0001b	0b ca		 or	 ecx, edx
  0001d	7d 08		 jge	 SHORT $L211251

; 739  : 		{
; 740  : 			PrepareWrite2( nLength );

  0001f	50		 push	 eax
  00020	8b ce		 mov	 ecx, esi
  00022	e8 00 00 00 00	 call	 ?PrepareWrite2@?$CSimpleStringT@D$0A@@ATL@@AAEXH@Z ; ATL::CSimpleStringT<char,0>::PrepareWrite2
$L211251:

; 741  : 		}
; 742  : 
; 743  : 		return( m_pszData );

  00027	8b 06		 mov	 eax, DWORD PTR [esi]
  00029	5e		 pop	 esi

; 744  : 	}

  0002a	c2 04 00	 ret	 4
?PrepareWrite@?$CSimpleStringT@D$0A@@ATL@@AAEPADH@Z ENDP ; ATL::CSimpleStringT<char,0>::PrepareWrite
_TEXT	ENDS
PUBLIC	?GetBuffer@?$CSimpleStringT@D$0A@@ATL@@QAEPADH@Z ; ATL::CSimpleStringT<char,0>::GetBuffer
; Function compile flags: /Ogty
;	COMDAT ?GetBuffer@?$CSimpleStringT@D$0A@@ATL@@QAEPADH@Z
_TEXT	SEGMENT
_nMinBufferLength$ = 8					; size = 4
?GetBuffer@?$CSimpleStringT@D$0A@@ATL@@QAEPADH@Z PROC NEAR ; ATL::CSimpleStringT<char,0>::GetBuffer, COMDAT
; _this$ = ecx

; 489  : 	{

  00000	56		 push	 esi
  00001	8b f1		 mov	 esi, ecx

; 490  : 		return( PrepareWrite( nMinBufferLength ) );

  00003	8b 06		 mov	 eax, DWORD PTR [esi]
  00005	8b 50 fc	 mov	 edx, DWORD PTR [eax-4]
  00008	83 e8 10	 sub	 eax, 16			; 00000010H
  0000b	b9 01 00 00 00	 mov	 ecx, 1
  00010	2b ca		 sub	 ecx, edx
  00012	8b 50 08	 mov	 edx, DWORD PTR [eax+8]
  00015	8b 44 24 08	 mov	 eax, DWORD PTR _nMinBufferLength$[esp]
  00019	2b d0		 sub	 edx, eax
  0001b	0b ca		 or	 ecx, edx
  0001d	7d 08		 jge	 SHORT $L211267
  0001f	50		 push	 eax
  00020	8b ce		 mov	 ecx, esi
  00022	e8 00 00 00 00	 call	 ?PrepareWrite2@?$CSimpleStringT@D$0A@@ATL@@AAEXH@Z ; ATL::CSimpleStringT<char,0>::PrepareWrite2
$L211267:
  00027	8b 06		 mov	 eax, DWORD PTR [esi]
  00029	5e		 pop	 esi

; 491  : 	}

  0002a	c2 04 00	 ret	 4
?GetBuffer@?$CSimpleStringT@D$0A@@ATL@@QAEPADH@Z ENDP	; ATL::CSimpleStringT<char,0>::GetBuffer
_TEXT	ENDS
PUBLIC	?LoadStringA@?$CStringT@DV?$StrTraitMFC@DV?$ChTraitsCRT@D@ATL@@@@@ATL@@QAEHPAUHINSTANCE__@@I@Z ; ATL::CStringT<char,StrTraitMFC<char,ATL::ChTraitsCRT<char> > >::LoadStringA
; Function compile flags: /Ogty
; File c:\program files\microsoft visual studio .net 2003\vc7\atlmfc\include\cstringt.h
;	COMDAT ?LoadStringA@?$CStringT@DV?$StrTraitMFC@DV?$ChTraitsCRT@D@ATL@@@@@ATL@@QAEHPAUHINSTANCE__@@I@Z
_TEXT	SEGMENT
_hInstance$ = 8						; size = 4
_nID$ = 12						; size = 4
?LoadStringA@?$CStringT@DV?$StrTraitMFC@DV?$ChTraitsCRT@D@ATL@@@@@ATL@@QAEHPAUHINSTANCE__@@I@Z PROC NEAR ; ATL::CStringT<char,StrTraitMFC<char,ATL::ChTraitsCRT<char> > >::LoadStringA, COMDAT
; _this$ = ecx

; 1981 : 	{

  00000	53		 push	 ebx
  00001	56		 push	 esi

; 1982 : 		const ATLSTRINGRESOURCEIMAGE* pImage = AtlGetStringResourceImage( hInstance, nID );

  00002	8b 74 24 10	 mov	 esi, DWORD PTR _nID$[esp+4]
  00006	8b c6		 mov	 eax, esi
  00008	c1 e8 04	 shr	 eax, 4
  0000b	57		 push	 edi
  0000c	8b 7c 24 10	 mov	 edi, DWORD PTR _hInstance$[esp+8]
  00010	40		 inc	 eax
  00011	8b d9		 mov	 ebx, ecx
  00013	0f b7 c8	 movzx	 ecx, ax
  00016	6a 06		 push	 6
  00018	51		 push	 ecx
  00019	57		 push	 edi
  0001a	ff 15 00 00 00
	00		 call	 DWORD PTR __imp__FindResourceA@12
  00020	85 c0		 test	 eax, eax
  00022	74 11		 je	 SHORT $L211346
  00024	56		 push	 esi
  00025	50		 push	 eax
  00026	57		 push	 edi
  00027	e8 00 00 00 00	 call	 ?_AtlGetStringResourceImage@ATL@@YAPBUATLSTRINGRESOURCEIMAGE@1@PAUHINSTANCE__@@PAUHRSRC__@@I@Z ; ATL::_AtlGetStringResourceImage
  0002c	8b f8		 mov	 edi, eax
  0002e	83 c4 0c	 add	 esp, 12			; 0000000cH

; 1983 : 		if( pImage == NULL )

  00031	85 ff		 test	 edi, edi
  00033	75 08		 jne	 SHORT $L184183
$L211346:
  00035	5f		 pop	 edi
  00036	5e		 pop	 esi

; 1984 : 		{
; 1985 : 			return( FALSE );

  00037	33 c0		 xor	 eax, eax
  00039	5b		 pop	 ebx

; 1994 : 	}

  0003a	c2 08 00	 ret	 8
$L184183:

; 1986 : 		}
; 1987 : 
; 1988 : 		int nLength = StringTraits::GetBaseTypeLength( pImage->achString, pImage->nLength );

  0003d	0f b7 37	 movzx	 esi, WORD PTR [edi]
  00040	55		 push	 ebp
  00041	ff 15 00 00 00
	00		 call	 DWORD PTR ?g_pfnGetThreadACP@ATL@@3P6GIXZA ; ATL::g_pfnGetThreadACP
  00047	6a 00		 push	 0
  00049	6a 00		 push	 0
  0004b	6a 00		 push	 0
  0004d	6a 00		 push	 0
  0004f	56		 push	 esi
  00050	8d 6f 02	 lea	 ebp, DWORD PTR [edi+2]
  00053	55		 push	 ebp
  00054	6a 00		 push	 0
  00056	50		 push	 eax
  00057	ff 15 00 00 00
	00		 call	 DWORD PTR __imp__WideCharToMultiByte@32
  0005d	8b f0		 mov	 esi, eax

; 1989 : 		PXSTR pszBuffer = GetBuffer( nLength );

  0005f	8b 03		 mov	 eax, DWORD PTR [ebx]
  00061	8b 48 fc	 mov	 ecx, DWORD PTR [eax-4]
  00064	83 e8 10	 sub	 eax, 16			; 00000010H
  00067	8b 40 08	 mov	 eax, DWORD PTR [eax+8]
  0006a	ba 01 00 00 00	 mov	 edx, 1
  0006f	2b d1		 sub	 edx, ecx
  00071	2b c6		 sub	 eax, esi
  00073	0b d0		 or	 edx, eax
  00075	7d 08		 jge	 SHORT $L211307
  00077	56		 push	 esi
  00078	8b cb		 mov	 ecx, ebx
  0007a	e8 00 00 00 00	 call	 ?PrepareWrite2@?$CSimpleStringT@D$0A@@ATL@@AAEXH@Z ; ATL::CSimpleStringT<char,0>::PrepareWrite2
$L211307:
  0007f	8b 03		 mov	 eax, DWORD PTR [ebx]

; 1990 : 		StringTraits::ConvertToBaseType( pszBuffer, nLength, pImage->achString, pImage->nLength );

  00081	0f b7 0f	 movzx	 ecx, WORD PTR [edi]
  00084	6a 00		 push	 0
  00086	6a 00		 push	 0
  00088	56		 push	 esi
  00089	50		 push	 eax
  0008a	51		 push	 ecx
  0008b	55		 push	 ebp
  0008c	6a 00		 push	 0
  0008e	ff 15 00 00 00
	00		 call	 DWORD PTR ?g_pfnGetThreadACP@ATL@@3P6GIXZA ; ATL::g_pfnGetThreadACP
  00094	50		 push	 eax
  00095	ff 15 00 00 00
	00		 call	 DWORD PTR __imp__WideCharToMultiByte@32

; 1991 : 		ReleaseBufferSetLength( nLength );

  0009b	85 f6		 test	 esi, esi
  0009d	5d		 pop	 ebp
  0009e	7c 1b		 jl	 SHORT $L211343
  000a0	8b 03		 mov	 eax, DWORD PTR [ebx]
  000a2	3b 70 f8	 cmp	 esi, DWORD PTR [eax-8]
  000a5	7f 14		 jg	 SHORT $L211343
  000a7	89 70 f4	 mov	 DWORD PTR [eax-12], esi
  000aa	8b 0b		 mov	 ecx, DWORD PTR [ebx]
  000ac	5f		 pop	 edi
  000ad	c6 04 0e 00	 mov	 BYTE PTR [esi+ecx], 0
  000b1	5e		 pop	 esi

; 1992 : 
; 1993 : 		return( TRUE );

  000b2	b8 01 00 00 00	 mov	 eax, 1
  000b7	5b		 pop	 ebx

; 1994 : 	}

  000b8	c2 08 00	 ret	 8
$L211343:
  000bb	68 57 00 07 80	 push	 -2147024809		; 80070057H
  000c0	e8 00 00 00 00	 call	 ?AtlThrow@ATL@@YGXJ@Z	; ATL::AtlThrow
$L211347:
  000c5	cc		 int	 3
?LoadStringA@?$CStringT@DV?$StrTraitMFC@DV?$ChTraitsCRT@D@ATL@@@@@ATL@@QAEHPAUHINSTANCE__@@I@Z ENDP ; ATL::CStringT<char,StrTraitMFC<char,ATL::ChTraitsCRT<char> > >::LoadStringA
_TEXT	ENDS
PUBLIC	?SetString@?$CSimpleStringT@D$0A@@ATL@@QAEXPBDH@Z ; ATL::CSimpleStringT<char,0>::SetString
; Function compile flags: /Ogty
; File c:\program files\microsoft visual studio .net 2003\vc7\atlmfc\include\atlsimpstr.h
;	COMDAT ?SetString@?$CSimpleStringT@D$0A@@ATL@@QAEXPBDH@Z
_TEXT	SEGMENT
_pszSrc$ = 8						; size = 4
_nLength$ = 12						; size = 4
?SetString@?$CSimpleStringT@D$0A@@ATL@@QAEXPBDH@Z PROC NEAR ; ATL::CSimpleStringT<char,0>::SetString, COMDAT
; _this$ = ecx

; 583  : 	{

  00000	53		 push	 ebx

; 584  : 		if( nLength == 0 )

  00001	8b 5c 24 0c	 mov	 ebx, DWORD PTR _nLength$[esp]
  00005	85 db		 test	 ebx, ebx
  00007	55		 push	 ebp
  00008	8b e9		 mov	 ebp, ecx
  0000a	75 0a		 jne	 SHORT $L184946

; 585  : 		{
; 586  : 			Empty();

  0000c	e8 00 00 00 00	 call	 ?Empty@?$CSimpleStringT@D$0A@@ATL@@QAEXXZ ; ATL::CSimpleStringT<char,0>::Empty
  00011	5d		 pop	 ebp
  00012	5b		 pop	 ebx

; 614  : 		}
; 615  : 	}

  00013	c2 08 00	 ret	 8
$L184946:

; 587  : 		}
; 588  : 		else
; 589  : 		{
; 590  : 			// It is possible that pszSrc points to a location inside of our 
; 591  : 			// buffer.  GetBuffer() might change m_pszData if (1) the buffer 
; 592  : 			// is shared or (2) the buffer is too small to hold the new 
; 593  : 			// string.  We detect this aliasing, and modify pszSrc to point
; 594  : 			// into the newly allocated buffer instead.
; 595  : 			
; 596  : 			if(pszSrc == NULL)

  00016	8b 54 24 0c	 mov	 edx, DWORD PTR _pszSrc$[esp+4]
  0001a	85 d2		 test	 edx, edx
  0001c	75 0a		 jne	 SHORT $L184948

; 612  : 			}
; 613  : 			ReleaseBufferSetLength( nLength );

$L211418:
  0001e	68 57 00 07 80	 push	 -2147024809		; 80070057H
  00023	e8 00 00 00 00	 call	 ?AtlThrow@ATL@@YGXJ@Z	; ATL::AtlThrow
$L184948:

; 597  : 				AtlThrow(E_INVALIDARG);			
; 598  : 				
; 599  : 			UINT nOldLength = GetLength();

  00028	8b 45 00	 mov	 eax, DWORD PTR [ebp]
  0002b	56		 push	 esi

; 600  : 			UINT_PTR nOffset = pszSrc-GetString();

  0002c	8b f2		 mov	 esi, edx
  0002e	2b f0		 sub	 esi, eax

; 601  : 			// If 0 <= nOffset <= nOldLength, then pszSrc points into our 
; 602  : 			// buffer
; 603  : 
; 604  : 			PXSTR pszBuffer = GetBuffer( nLength );

  00030	b9 01 00 00 00	 mov	 ecx, 1
  00035	2b 48 fc	 sub	 ecx, DWORD PTR [eax-4]
  00038	57		 push	 edi
  00039	8b 78 f4	 mov	 edi, DWORD PTR [eax-12]
  0003c	8b 40 f8	 mov	 eax, DWORD PTR [eax-8]
  0003f	2b c3		 sub	 eax, ebx
  00041	0b c8		 or	 ecx, eax
  00043	7d 0c		 jge	 SHORT $L211385
  00045	53		 push	 ebx
  00046	8b cd		 mov	 ecx, ebp
  00048	e8 00 00 00 00	 call	 ?PrepareWrite2@?$CSimpleStringT@D$0A@@ATL@@AAEXH@Z ; ATL::CSimpleStringT<char,0>::PrepareWrite2
  0004d	8b 54 24 14	 mov	 edx, DWORD PTR _pszSrc$[esp+12]
$L211385:

; 605  : 			if( nOffset <= nOldLength )

  00051	3b f7		 cmp	 esi, edi
  00053	8b 45 00	 mov	 eax, DWORD PTR [ebp]
  00056	77 10		 ja	 SHORT $L184953

; 606  : 			{
; 607  : 				CopyCharsOverlapped( pszBuffer, pszBuffer+nOffset, nLength );

  00058	53		 push	 ebx
  00059	8d 0c 30	 lea	 ecx, DWORD PTR [eax+esi]
  0005c	51		 push	 ecx
  0005d	50		 push	 eax
  0005e	e8 00 00 00 00	 call	 _memmove
  00063	83 c4 0c	 add	 esp, 12			; 0000000cH

; 608  : 			}
; 609  : 			else

  00066	eb 14		 jmp	 SHORT $L211391
$L184953:

; 610  : 			{
; 611  : 				CopyChars( pszBuffer, pszSrc, nLength );

  00068	8b cb		 mov	 ecx, ebx
  0006a	8b f2		 mov	 esi, edx
  0006c	8b d1		 mov	 edx, ecx
  0006e	c1 e9 02	 shr	 ecx, 2
  00071	8b f8		 mov	 edi, eax
  00073	f3 a5		 rep movsd
  00075	8b ca		 mov	 ecx, edx
  00077	83 e1 03	 and	 ecx, 3
  0007a	f3 a4		 rep movsb
$L211391:

; 612  : 			}
; 613  : 			ReleaseBufferSetLength( nLength );

  0007c	85 db		 test	 ebx, ebx
  0007e	5f		 pop	 edi
  0007f	5e		 pop	 esi
  00080	7c 9c		 jl	 SHORT $L211418
  00082	8b 45 00	 mov	 eax, DWORD PTR [ebp]
  00085	3b 58 f8	 cmp	 ebx, DWORD PTR [eax-8]
  00088	7f 94		 jg	 SHORT $L211418
  0008a	89 58 f4	 mov	 DWORD PTR [eax-12], ebx
  0008d	8b 45 00	 mov	 eax, DWORD PTR [ebp]
  00090	5d		 pop	 ebp
  00091	c6 04 03 00	 mov	 BYTE PTR [ebx+eax], 0
  00095	5b		 pop	 ebx

; 614  : 		}
; 615  : 	}

  00096	c2 08 00	 ret	 8
$L211421:
?SetString@?$CSimpleStringT@D$0A@@ATL@@QAEXPBDH@Z ENDP	; ATL::CSimpleStringT<char,0>::SetString
_TEXT	ENDS
PUBLIC	?Replace@?$CStringT@DV?$StrTraitMFC@DV?$ChTraitsCRT@D@ATL@@@@@ATL@@QAEHDD@Z ; ATL::CStringT<char,StrTraitMFC<char,ATL::ChTraitsCRT<char> > >::Replace
; Function compile flags: /Ogty
; File c:\program files\microsoft visual studio .net 2003\vc7\atlmfc\include\cstringt.h
;	COMDAT ?Replace@?$CStringT@DV?$StrTraitMFC@DV?$ChTraitsCRT@D@ATL@@@@@ATL@@QAEHDD@Z
_TEXT	SEGMENT
_bCopied$208792 = -5					; size = 1
_nCount$ = -4						; size = 4
_chOld$ = 8						; size = 1
_chNew$ = 12						; size = 1
?Replace@?$CStringT@DV?$StrTraitMFC@DV?$ChTraitsCRT@D@ATL@@@@@ATL@@QAEHDD@Z PROC NEAR ; ATL::CStringT<char,StrTraitMFC<char,ATL::ChTraitsCRT<char> > >::Replace, COMDAT
; _this$ = ecx

; 1192 : 	{

  00000	83 ec 08	 sub	 esp, 8

; 1193 : 		int nCount = 0;
; 1194 : 
; 1195 : 		// short-circuit the nop case
; 1196 : 		if( chOld != chNew )

  00003	8a 44 24 0c	 mov	 al, BYTE PTR _chOld$[esp+4]
  00007	53		 push	 ebx
  00008	55		 push	 ebp
  00009	56		 push	 esi
  0000a	8b d9		 mov	 ebx, ecx
  0000c	8a 4c 24 1c	 mov	 cl, BYTE PTR _chNew$[esp+16]
  00010	33 f6		 xor	 esi, esi
  00012	3a c1		 cmp	 al, cl
  00014	57		 push	 edi
  00015	89 74 24 14	 mov	 DWORD PTR _nCount$[esp+24], esi
  00019	0f 84 88 00 00
	00		 je	 $L211493

; 1197 : 		{
; 1198 : 			// otherwise modify each character that matches in the string
; 1199 : 			bool bCopied = false;
; 1200 : 			PXSTR pszBuffer = const_cast< PXSTR >( GetString() );  // We don't actually write to pszBuffer until we've called GetBuffer().

  0001f	8b 3b		 mov	 edi, DWORD PTR [ebx]

; 1201 : 
; 1202 : 			int nLength = GetLength();

  00021	8b 6f f4	 mov	 ebp, DWORD PTR [edi-12]

; 1203 : 			int iChar = 0;
; 1204 : 			while( iChar < nLength )

  00024	3b ee		 cmp	 ebp, esi
  00026	c6 44 24 13 00	 mov	 BYTE PTR _bCopied$208792[esp+24], 0
  0002b	7e 7a		 jle	 SHORT $L211493
  0002d	8d 49 00	 npad	 3
$L208798:

; 1205 : 			{
; 1206 : 				// replace instances of the specified character only
; 1207 : 				if( pszBuffer[iChar] == chOld )

  00030	8a 4c 24 1c	 mov	 cl, BYTE PTR _chOld$[esp+20]
  00034	8a 14 3e	 mov	 dl, BYTE PTR [esi+edi]
  00037	3a d1		 cmp	 dl, cl
  00039	8d 04 3e	 lea	 eax, DWORD PTR [esi+edi]
  0003c	75 3c		 jne	 SHORT $L208800

; 1208 : 				{
; 1209 : 					if( !bCopied )

  0003e	8a 44 24 13	 mov	 al, BYTE PTR _bCopied$208792[esp+24]
  00042	84 c0		 test	 al, al
  00044	75 27		 jne	 SHORT $L208801

; 1210 : 					{
; 1211 : 						bCopied = true;
; 1212 : 						pszBuffer = GetBuffer( nLength );

  00046	8b 03		 mov	 eax, DWORD PTR [ebx]
  00048	8b 48 fc	 mov	 ecx, DWORD PTR [eax-4]
  0004b	83 e8 10	 sub	 eax, 16			; 00000010H
  0004e	8b 40 08	 mov	 eax, DWORD PTR [eax+8]
  00051	ba 01 00 00 00	 mov	 edx, 1
  00056	2b d1		 sub	 edx, ecx
  00058	2b c5		 sub	 eax, ebp
  0005a	0b d0		 or	 edx, eax
  0005c	c6 44 24 13 01	 mov	 BYTE PTR _bCopied$208792[esp+24], 1
  00061	7d 08		 jge	 SHORT $L211457
  00063	55		 push	 ebp
  00064	8b cb		 mov	 ecx, ebx
  00066	e8 00 00 00 00	 call	 ?PrepareWrite2@?$CSimpleStringT@D$0A@@ATL@@AAEXH@Z ; ATL::CSimpleStringT<char,0>::PrepareWrite2
$L211457:
  0006b	8b 3b		 mov	 edi, DWORD PTR [ebx]
$L208801:

; 1213 : 					}
; 1214 : 					pszBuffer[iChar] = chNew;

  0006d	8a 4c 24 20	 mov	 cl, BYTE PTR _chNew$[esp+20]
  00071	8d 04 3e	 lea	 eax, DWORD PTR [esi+edi]
  00074	88 08		 mov	 BYTE PTR [eax], cl

; 1215 : 					nCount++;

  00076	ff 44 24 14	 inc	 DWORD PTR _nCount$[esp+24]
$L208800:

; 1216 : 				}
; 1217 : 				iChar = int( StringTraits::CharNext( pszBuffer+iChar )-pszBuffer );

  0007a	50		 push	 eax
  0007b	e8 00 00 00 00	 call	 __mbsinc
  00080	8b f0		 mov	 esi, eax
  00082	2b f7		 sub	 esi, edi
  00084	83 c4 04	 add	 esp, 4
  00087	3b f5		 cmp	 esi, ebp
  00089	7c a5		 jl	 SHORT $L208798

; 1218 : 			}
; 1219 : 			if( bCopied )

  0008b	8a 44 24 13	 mov	 al, BYTE PTR _bCopied$208792[esp+24]
  0008f	84 c0		 test	 al, al
  00091	74 14		 je	 SHORT $L211493

; 1220 : 			{
; 1221 : 				ReleaseBufferSetLength( nLength );

  00093	85 ed		 test	 ebp, ebp
  00095	7c 1e		 jl	 SHORT $L211487
  00097	8b 03		 mov	 eax, DWORD PTR [ebx]
  00099	3b 68 f8	 cmp	 ebp, DWORD PTR [eax-8]
  0009c	7f 17		 jg	 SHORT $L211487
  0009e	89 68 f4	 mov	 DWORD PTR [eax-12], ebp
  000a1	8b 13		 mov	 edx, DWORD PTR [ebx]
  000a3	c6 04 2a 00	 mov	 BYTE PTR [edx+ebp], 0
$L211493:

; 1222 : 			}
; 1223 : 		}
; 1224 : 
; 1225 : 		return( nCount );

  000a7	8b 44 24 14	 mov	 eax, DWORD PTR _nCount$[esp+24]
  000ab	5f		 pop	 edi
  000ac	5e		 pop	 esi
  000ad	5d		 pop	 ebp
  000ae	5b		 pop	 ebx

; 1226 : 	}

  000af	83 c4 08	 add	 esp, 8
  000b2	c2 08 00	 ret	 8

; 1220 : 			{
; 1221 : 				ReleaseBufferSetLength( nLength );

$L211487:
  000b5	68 57 00 07 80	 push	 -2147024809		; 80070057H
  000ba	e8 00 00 00 00	 call	 ?AtlThrow@ATL@@YGXJ@Z	; ATL::AtlThrow
$L211494:
  000bf	cc		 int	 3
?Replace@?$CStringT@DV?$StrTraitMFC@DV?$ChTraitsCRT@D@ATL@@@@@ATL@@QAEHDD@Z ENDP ; ATL::CStringT<char,StrTraitMFC<char,ATL::ChTraitsCRT<char> > >::Replace
_TEXT	ENDS
PUBLIC	?Replace@?$CStringT@DV?$StrTraitMFC@DV?$ChTraitsCRT@D@ATL@@@@@ATL@@QAEHPBD0@Z ; ATL::CStringT<char,StrTraitMFC<char,ATL::ChTraitsCRT<char> > >::Replace
; Function compile flags: /Ogty
;	COMDAT ?Replace@?$CStringT@DV?$StrTraitMFC@DV?$ChTraitsCRT@D@ATL@@@@@ATL@@QAEHPBD0@Z
_TEXT	SEGMENT
_nReplacementLen$ = -32					; size = 4
_nOldLength$208819 = -28				; size = 4
_this$ = -24						; size = 4
_nSourceLen$ = -20					; size = 4
_pszBuffer$208821 = -16					; size = 4
_pszEnd$208810 = -12					; size = 4
_nCount$ = -12						; size = 4
_pszEnd$208823 = -8					; size = 4
_nNewLength$208820 = -4					; size = 4
_pszOld$ = 8						; size = 4
_pszNew$ = 12						; size = 4
?Replace@?$CStringT@DV?$StrTraitMFC@DV?$ChTraitsCRT@D@ATL@@@@@ATL@@QAEHPBD0@Z PROC NEAR ; ATL::CStringT<char,StrTraitMFC<char,ATL::ChTraitsCRT<char> > >::Replace, COMDAT
; _this$ = ecx

; 1230 : 	{

  00000	83 ec 20	 sub	 esp, 32			; 00000020H
  00003	53		 push	 ebx

; 1231 : 		// can't have empty or NULL lpszOld
; 1232 : 
; 1233 : 		// nSourceLen is in XCHARs
; 1234 : 		int nSourceLen = StringTraits::SafeStringLen( pszOld );

  00004	8b 5c 24 28	 mov	 ebx, DWORD PTR _pszOld$[esp+32]
  00008	55		 push	 ebp
  00009	56		 push	 esi
  0000a	33 ed		 xor	 ebp, ebp
  0000c	3b dd		 cmp	 ebx, ebp
  0000e	8b f1		 mov	 esi, ecx
  00010	57		 push	 edi
  00011	89 74 24 18	 mov	 DWORD PTR _this$[esp+48], esi
  00015	74 1a		 je	 SHORT $L211619
  00017	8b fb		 mov	 edi, ebx
  00019	8d 4f 01	 lea	 ecx, DWORD PTR [edi+1]
  0001c	8d 64 24 00	 npad	 4
$L211620:
  00020	8a 07		 mov	 al, BYTE PTR [edi]
  00022	47		 inc	 edi
  00023	84 c0		 test	 al, al
  00025	75 f9		 jne	 SHORT $L211620
  00027	2b f9		 sub	 edi, ecx

; 1235 : 		if( nSourceLen == 0 )

  00029	3b fd		 cmp	 edi, ebp
  0002b	89 7c 24 1c	 mov	 DWORD PTR _nSourceLen$[esp+48], edi
  0002f	75 0c		 jne	 SHORT $L208806
$L211619:
  00031	5f		 pop	 edi
  00032	5e		 pop	 esi
  00033	5d		 pop	 ebp

; 1236 : 			return( 0 );

  00034	33 c0		 xor	 eax, eax
  00036	5b		 pop	 ebx

; 1291 : 	}

  00037	83 c4 20	 add	 esp, 32			; 00000020H
  0003a	c2 08 00	 ret	 8
$L208806:

; 1237 : 		// nReplacementLen is in XCHARs
; 1238 : 		int nReplacementLen = StringTraits::SafeStringLen( pszNew );

  0003d	8b 44 24 38	 mov	 eax, DWORD PTR _pszNew$[esp+44]
  00041	3b c5		 cmp	 eax, ebp
  00043	74 12		 je	 SHORT $L211511
  00045	8d 50 01	 lea	 edx, DWORD PTR [eax+1]
$L211621:
  00048	8a 08		 mov	 cl, BYTE PTR [eax]
  0004a	40		 inc	 eax
  0004b	84 c9		 test	 cl, cl
  0004d	75 f9		 jne	 SHORT $L211621
  0004f	2b c2		 sub	 eax, edx
  00051	89 44 24 10	 mov	 DWORD PTR _nReplacementLen$[esp+48], eax
  00055	eb 04		 jmp	 SHORT $L211512
$L211511:
  00057	89 6c 24 10	 mov	 DWORD PTR _nReplacementLen$[esp+48], ebp
$L211512:

; 1239 : 
; 1240 : 		// loop once to figure out the size of the result string
; 1241 : 		int nCount = 0;
; 1242 : 		{
; 1243 : 			PCXSTR pszStart = GetString();

  0005b	8b 36		 mov	 esi, DWORD PTR [esi]

; 1244 : 			PCXSTR pszEnd = pszStart+GetLength();

  0005d	8b 46 f4	 mov	 eax, DWORD PTR [esi-12]
  00060	03 c6		 add	 eax, esi

; 1245 : 			while( pszStart < pszEnd )

  00062	3b f0		 cmp	 esi, eax
  00064	89 6c 24 24	 mov	 DWORD PTR _nCount$[esp+48], ebp
  00068	89 44 24 24	 mov	 DWORD PTR _pszEnd$208810[esp+48], eax
  0006c	0f 83 6f 01 00
	00		 jae	 $L211609
$L208812:

; 1246 : 			{
; 1247 : 				PCXSTR pszTarget;
; 1248 : 				while( (pszTarget = StringTraits::StringFindString( pszStart, pszOld ) ) != NULL)

  00072	53		 push	 ebx
  00073	56		 push	 esi
  00074	e8 00 00 00 00	 call	 __mbsstr
  00079	83 c4 08	 add	 esp, 8
  0007c	85 c0		 test	 eax, eax
  0007e	74 12		 je	 SHORT $L208817
$L208816:

; 1249 : 				{
; 1250 : 					nCount++;
; 1251 : 					pszStart = pszTarget+nSourceLen;

  00080	8d 34 38	 lea	 esi, DWORD PTR [eax+edi]
  00083	53		 push	 ebx
  00084	56		 push	 esi
  00085	45		 inc	 ebp
  00086	e8 00 00 00 00	 call	 __mbsstr
  0008b	83 c4 08	 add	 esp, 8
  0008e	85 c0		 test	 eax, eax
  00090	75 ee		 jne	 SHORT $L208816
$L208817:

; 1252 : 				}
; 1253 : 				pszStart += StringTraits::SafeStringLen( pszStart )+1;

  00092	85 f6		 test	 esi, esi
  00094	74 15		 je	 SHORT $L211533
  00096	8b c6		 mov	 eax, esi
  00098	8d 50 01	 lea	 edx, DWORD PTR [eax+1]
  0009b	eb 03 8d 49 00	 npad	 5
$L211622:
  000a0	8a 08		 mov	 cl, BYTE PTR [eax]
  000a2	40		 inc	 eax
  000a3	84 c9		 test	 cl, cl
  000a5	75 f9		 jne	 SHORT $L211622
  000a7	2b c2		 sub	 eax, edx
  000a9	eb 02		 jmp	 SHORT $L211534
$L211533:
  000ab	33 c0		 xor	 eax, eax
$L211534:
  000ad	8d 74 06 01	 lea	 esi, DWORD PTR [esi+eax+1]
  000b1	3b 74 24 24	 cmp	 esi, DWORD PTR _pszEnd$208810[esp+48]
  000b5	72 bb		 jb	 SHORT $L208812

; 1254 : 			}
; 1255 : 		}
; 1256 : 
; 1257 : 		// if any changes were made, make them
; 1258 : 		if( nCount > 0 )

  000b7	85 ed		 test	 ebp, ebp
  000b9	89 6c 24 24	 mov	 DWORD PTR _nCount$[esp+48], ebp
  000bd	0f 8e 1e 01 00
	00		 jle	 $L211609

; 1259 : 		{
; 1260 : 			// if the buffer is too small, just
; 1261 : 			//   allocate a new buffer (slow but sure)
; 1262 : 			int nOldLength = GetLength();
; 1263 : 			int nNewLength = nOldLength+(nReplacementLen-nSourceLen)*nCount;

  000c3	8b 5c 24 10	 mov	 ebx, DWORD PTR _nReplacementLen$[esp+48]
  000c7	8b 44 24 18	 mov	 eax, DWORD PTR _this$[esp+48]
  000cb	8b 08		 mov	 ecx, DWORD PTR [eax]
  000cd	8b 41 f4	 mov	 eax, DWORD PTR [ecx-12]
  000d0	2b df		 sub	 ebx, edi
  000d2	0f af dd	 imul	 ebx, ebp
  000d5	03 d8		 add	 ebx, eax

; 1264 : 
; 1265 : 			PXSTR pszBuffer = GetBuffer( max( nNewLength, nOldLength ) );

  000d7	3b d8		 cmp	 ebx, eax
  000d9	89 44 24 14	 mov	 DWORD PTR _nOldLength$208819[esp+48], eax
  000dd	89 5c 24 2c	 mov	 DWORD PTR _nNewLength$208820[esp+48], ebx
  000e1	7e 02		 jle	 SHORT $L211498
  000e3	8b c3		 mov	 eax, ebx
$L211498:
  000e5	8b 71 fc	 mov	 esi, DWORD PTR [ecx-4]
  000e8	8b 49 f8	 mov	 ecx, DWORD PTR [ecx-8]
  000eb	ba 01 00 00 00	 mov	 edx, 1
  000f0	2b d6		 sub	 edx, esi
  000f2	2b c8		 sub	 ecx, eax
  000f4	0b d1		 or	 edx, ecx
  000f6	7d 0a		 jge	 SHORT $L211626
  000f8	8b 4c 24 18	 mov	 ecx, DWORD PTR _this$[esp+48]
  000fc	50		 push	 eax
  000fd	e8 00 00 00 00	 call	 ?PrepareWrite2@?$CSimpleStringT@D$0A@@ATL@@AAEXH@Z ; ATL::CSimpleStringT<char,0>::PrepareWrite2
$L211626:
  00102	8b 54 24 18	 mov	 edx, DWORD PTR _this$[esp+48]
  00106	8b 2a		 mov	 ebp, DWORD PTR [edx]

; 1266 : 
; 1267 : 			PXSTR pszStart = pszBuffer;
; 1268 : 			PXSTR pszEnd = pszStart+nOldLength;

  00108	8b 44 24 14	 mov	 eax, DWORD PTR _nOldLength$208819[esp+48]
  0010c	03 c5		 add	 eax, ebp

; 1269 : 
; 1270 : 			// loop again to actually do the work
; 1271 : 			while( pszStart < pszEnd )

  0010e	3b e8		 cmp	 ebp, eax
  00110	89 6c 24 20	 mov	 DWORD PTR _pszBuffer$208821[esp+48], ebp
  00114	8b f5		 mov	 esi, ebp
  00116	89 44 24 28	 mov	 DWORD PTR _pszEnd$208823[esp+48], eax
  0011a	0f 83 a5 00 00
	00		 jae	 $L208826
$L208825:

; 1272 : 			{
; 1273 : 				PXSTR pszTarget;
; 1274 : 				while( (pszTarget = StringTraits::StringFindString( pszStart, pszOld ) ) != NULL )

  00120	8b 4c 24 34	 mov	 ecx, DWORD PTR _pszOld$[esp+44]
  00124	51		 push	 ecx
  00125	56		 push	 esi
  00126	e8 00 00 00 00	 call	 __mbsstr
  0012b	8b d8		 mov	 ebx, eax
  0012d	83 c4 08	 add	 esp, 8
  00130	85 db		 test	 ebx, ebx
  00132	74 69		 je	 SHORT $L208830
$L211624:

; 1275 : 				{
; 1276 : 					int nBalance = nOldLength-int(pszTarget-pszBuffer+nSourceLen);

  00134	8b 54 24 14	 mov	 edx, DWORD PTR _nOldLength$208819[esp+48]

; 1277 : 					memmove( pszTarget+nReplacementLen, pszTarget+nSourceLen, nBalance*sizeof( XCHAR ) );

  00138	8b 74 24 10	 mov	 esi, DWORD PTR _nReplacementLen$[esp+48]
  0013c	2b eb		 sub	 ebp, ebx
  0013e	2b ef		 sub	 ebp, edi
  00140	03 ea		 add	 ebp, edx
  00142	55		 push	 ebp
  00143	8d 14 3b	 lea	 edx, DWORD PTR [ebx+edi]
  00146	8d 04 33	 lea	 eax, DWORD PTR [ebx+esi]
  00149	52		 push	 edx
  0014a	50		 push	 eax
  0014b	e8 00 00 00 00	 call	 _memmove
  00150	8b 54 24 40	 mov	 edx, DWORD PTR _pszOld$[esp+56]

; 1278 : 
; 1279 : 					memcpy( pszTarget, pszNew, nReplacementLen*sizeof( XCHAR ) );

  00154	8b ce		 mov	 ecx, esi
  00156	8b 74 24 44	 mov	 esi, DWORD PTR _pszNew$[esp+56]
  0015a	8b c1		 mov	 eax, ecx
  0015c	c1 e9 02	 shr	 ecx, 2
  0015f	8b fb		 mov	 edi, ebx
  00161	f3 a5		 rep movsd
  00163	8b c8		 mov	 ecx, eax
  00165	83 e1 03	 and	 ecx, 3

; 1280 : 					pszStart = pszTarget+nReplacementLen;
; 1281 : 					pszTarget[nReplacementLen+nBalance] = 0;

  00168	03 eb		 add	 ebp, ebx
  0016a	f3 a4		 rep movsb
  0016c	8b c8		 mov	 ecx, eax
  0016e	c6 04 28 00	 mov	 BYTE PTR [eax+ebp], 0

; 1282 : 					nOldLength += (nReplacementLen-nSourceLen);

  00172	8b 6c 24 28	 mov	 ebp, DWORD PTR _nSourceLen$[esp+60]
  00176	8d 34 0b	 lea	 esi, DWORD PTR [ebx+ecx]
  00179	8b 5c 24 20	 mov	 ebx, DWORD PTR _nOldLength$208819[esp+60]
  0017d	2b c5		 sub	 eax, ebp
  0017f	52		 push	 edx
  00180	03 d8		 add	 ebx, eax
  00182	56		 push	 esi
  00183	89 5c 24 28	 mov	 DWORD PTR _nOldLength$208819[esp+68], ebx
  00187	e8 00 00 00 00	 call	 __mbsstr
  0018c	8b 6c 24 34	 mov	 ebp, DWORD PTR _pszBuffer$208821[esp+68]
  00190	8b 7c 24 30	 mov	 edi, DWORD PTR _nSourceLen$[esp+68]
  00194	8b d8		 mov	 ebx, eax
  00196	83 c4 14	 add	 esp, 20			; 00000014H
  00199	85 db		 test	 ebx, ebx
  0019b	75 97		 jne	 SHORT $L211624
$L208830:

; 1283 : 				}
; 1284 : 				pszStart += StringTraits::SafeStringLen( pszStart )+1;

  0019d	85 f6		 test	 esi, esi
  0019f	74 10		 je	 SHORT $L211581
  001a1	8b c6		 mov	 eax, esi
  001a3	8d 50 01	 lea	 edx, DWORD PTR [eax+1]
$L211623:
  001a6	8a 08		 mov	 cl, BYTE PTR [eax]
  001a8	40		 inc	 eax
  001a9	84 c9		 test	 cl, cl
  001ab	75 f9		 jne	 SHORT $L211623
  001ad	2b c2		 sub	 eax, edx
  001af	eb 02		 jmp	 SHORT $L211582
$L211581:
  001b1	33 c0		 xor	 eax, eax
$L211582:
  001b3	8d 74 06 01	 lea	 esi, DWORD PTR [esi+eax+1]
  001b7	3b 74 24 28	 cmp	 esi, DWORD PTR _pszEnd$208823[esp+48]
  001bb	0f 82 5f ff ff
	ff		 jb	 $L208825

; 1269 : 
; 1270 : 			// loop again to actually do the work
; 1271 : 			while( pszStart < pszEnd )

  001c1	8b 5c 24 2c	 mov	 ebx, DWORD PTR _nNewLength$208820[esp+48]
$L208826:

; 1285 : 			}
; 1286 : 			ATLASSERT( pszBuffer[nNewLength] == 0 );
; 1287 : 			ReleaseBufferSetLength( nNewLength );

  001c5	85 db		 test	 ebx, ebx
  001c7	7c 24		 jl	 SHORT $L211608
  001c9	8b 4c 24 18	 mov	 ecx, DWORD PTR _this$[esp+48]
  001cd	8b 01		 mov	 eax, DWORD PTR [ecx]
  001cf	3b 58 f8	 cmp	 ebx, DWORD PTR [eax-8]
  001d2	7f 19		 jg	 SHORT $L211608
  001d4	8b 6c 24 24	 mov	 ebp, DWORD PTR _nCount$[esp+48]
  001d8	89 58 f4	 mov	 DWORD PTR [eax-12], ebx
  001db	8b 01		 mov	 eax, DWORD PTR [ecx]
  001dd	c6 04 03 00	 mov	 BYTE PTR [ebx+eax], 0
$L211609:
  001e1	5f		 pop	 edi
  001e2	5e		 pop	 esi

; 1288 : 		}
; 1289 : 
; 1290 : 		return( nCount );

  001e3	8b c5		 mov	 eax, ebp
  001e5	5d		 pop	 ebp
  001e6	5b		 pop	 ebx

; 1291 : 	}

  001e7	83 c4 20	 add	 esp, 32			; 00000020H
  001ea	c2 08 00	 ret	 8

; 1285 : 			}
; 1286 : 			ATLASSERT( pszBuffer[nNewLength] == 0 );
; 1287 : 			ReleaseBufferSetLength( nNewLength );

$L211608:
  001ed	68 57 00 07 80	 push	 -2147024809		; 80070057H
  001f2	e8 00 00 00 00	 call	 ?AtlThrow@ATL@@YGXJ@Z	; ATL::AtlThrow
$L211627:
  001f7	cc		 int	 3
?Replace@?$CStringT@DV?$StrTraitMFC@DV?$ChTraitsCRT@D@ATL@@@@@ATL@@QAEHPBD0@Z ENDP ; ATL::CStringT<char,StrTraitMFC<char,ATL::ChTraitsCRT<char> > >::Replace
_TEXT	ENDS
PUBLIC	?LoadStringA@?$CStringT@DV?$StrTraitMFC@DV?$ChTraitsCRT@D@ATL@@@@@ATL@@QAEHI@Z ; ATL::CStringT<char,StrTraitMFC<char,ATL::ChTraitsCRT<char> > >::LoadStringA
; Function compile flags: /Ogty
;	COMDAT ?LoadStringA@?$CStringT@DV?$StrTraitMFC@DV?$ChTraitsCRT@D@ATL@@@@@ATL@@QAEHI@Z
_TEXT	SEGMENT
_nID$ = 8						; size = 4
?LoadStringA@?$CStringT@DV?$StrTraitMFC@DV?$ChTraitsCRT@D@ATL@@@@@ATL@@QAEHI@Z PROC NEAR ; ATL::CStringT<char,StrTraitMFC<char,ATL::ChTraitsCRT<char> > >::LoadStringA, COMDAT
; _this$ = ecx

; 1969 : 	{

  00000	56		 push	 esi
  00001	57		 push	 edi

; 1970 : 		HINSTANCE hInst = StringTraits::FindStringResourceInstance( nID );

  00002	8b 7c 24 0c	 mov	 edi, DWORD PTR _nID$[esp+4]
  00006	57		 push	 edi
  00007	8b f1		 mov	 esi, ecx
  00009	e8 00 00 00 00	 call	 ?AfxFindStringResourceHandle@@YGPAUHINSTANCE__@@I@Z ; AfxFindStringResourceHandle

; 1971 : 		if( hInst == NULL )

  0000e	85 c0		 test	 eax, eax
  00010	75 05		 jne	 SHORT $L183105
  00012	5f		 pop	 edi
  00013	5e		 pop	 esi

; 1977 : 	}

  00014	c2 04 00	 ret	 4
$L183105:

; 1972 : 		{
; 1973 : 			return( FALSE );
; 1974 : 		}
; 1975 : 
; 1976 : 		return( LoadString( hInst, nID ) );		

  00017	57		 push	 edi
  00018	50		 push	 eax
  00019	8b ce		 mov	 ecx, esi
  0001b	e8 00 00 00 00	 call	 ?LoadStringA@?$CStringT@DV?$StrTraitMFC@DV?$ChTraitsCRT@D@ATL@@@@@ATL@@QAEHPAUHINSTANCE__@@I@Z ; ATL::CStringT<char,StrTraitMFC<char,ATL::ChTraitsCRT<char> > >::LoadStringA
  00020	5f		 pop	 edi
  00021	5e		 pop	 esi

; 1977 : 	}

  00022	c2 04 00	 ret	 4
?LoadStringA@?$CStringT@DV?$StrTraitMFC@DV?$ChTraitsCRT@D@ATL@@@@@ATL@@QAEHI@Z ENDP ; ATL::CStringT<char,StrTraitMFC<char,ATL::ChTraitsCRT<char> > >::LoadStringA
_TEXT	ENDS
PUBLIC	?CheckImplicitLoad@?$CStringT@DV?$StrTraitMFC@DV?$ChTraitsCRT@D@ATL@@@@@ATL@@AAE_NPBX@Z ; ATL::CStringT<char,StrTraitMFC<char,ATL::ChTraitsCRT<char> > >::CheckImplicitLoad
; Function compile flags: /Ogty
;	COMDAT ?CheckImplicitLoad@?$CStringT@DV?$StrTraitMFC@DV?$ChTraitsCRT@D@ATL@@@@@ATL@@AAE_NPBX@Z
_TEXT	SEGMENT
_pv$ = 8						; size = 4
?CheckImplicitLoad@?$CStringT@DV?$StrTraitMFC@DV?$ChTraitsCRT@D@ATL@@@@@ATL@@AAE_NPBX@Z PROC NEAR ; ATL::CStringT<char,StrTraitMFC<char,ATL::ChTraitsCRT<char> > >::CheckImplicitLoad, COMDAT
; _this$ = ecx

; 2229 : 	{

  00000	57		 push	 edi
  00001	8b f9		 mov	 edi, ecx

; 2230 : 		bool bRet = false;
; 2231 : 
; 2232 : 		if( (pv != NULL) && IS_INTRESOURCE( pv ) )

  00003	8b 4c 24 08	 mov	 ecx, DWORD PTR _pv$[esp]
  00007	32 c0		 xor	 al, al
  00009	85 c9		 test	 ecx, ecx
  0000b	74 22		 je	 SHORT $L184190
  0000d	f7 c1 00 00 ff
	ff		 test	 ecx, -65536		; ffff0000H
  00013	75 1a		 jne	 SHORT $L184190
  00015	56		 push	 esi

; 2233 : 		{
; 2234 : 			UINT nID = LOWORD( reinterpret_cast< DWORD_PTR >( pv ) );

  00016	0f b7 f1	 movzx	 esi, cx

; 2235 : 			if( !LoadString( nID ) )

  00019	56		 push	 esi
  0001a	e8 00 00 00 00	 call	 ?AfxFindStringResourceHandle@@YGPAUHINSTANCE__@@I@Z ; AfxFindStringResourceHandle
  0001f	85 c0		 test	 eax, eax
  00021	74 09		 je	 SHORT $L211642
  00023	56		 push	 esi
  00024	50		 push	 eax
  00025	8b cf		 mov	 ecx, edi
  00027	e8 00 00 00 00	 call	 ?LoadStringA@?$CStringT@DV?$StrTraitMFC@DV?$ChTraitsCRT@D@ATL@@@@@ATL@@QAEHPAUHINSTANCE__@@I@Z ; ATL::CStringT<char,StrTraitMFC<char,ATL::ChTraitsCRT<char> > >::LoadStringA
$L211642:

; 2236 : 			{
; 2237 : 				ATLTRACE( atlTraceString, 2, _T( "Warning: implicit LoadString(%u) failed\n" ), nID );
; 2238 : 			}
; 2239 : 			bRet = true;

  0002c	b0 01		 mov	 al, 1
  0002e	5e		 pop	 esi
$L184190:
  0002f	5f		 pop	 edi

; 2240 : 		}
; 2241 : 
; 2242 : 		return( bRet );
; 2243 : 	}

  00030	c2 04 00	 ret	 4
?CheckImplicitLoad@?$CStringT@DV?$StrTraitMFC@DV?$ChTraitsCRT@D@ATL@@@@@ATL@@AAE_NPBX@Z ENDP ; ATL::CStringT<char,StrTraitMFC<char,ATL::ChTraitsCRT<char> > >::CheckImplicitLoad
_TEXT	ENDS
PUBLIC	?SetString@?$CSimpleStringT@D$0A@@ATL@@QAEXPBD@Z ; ATL::CSimpleStringT<char,0>::SetString
; Function compile flags: /Ogty
; File c:\program files\microsoft visual studio .net 2003\vc7\atlmfc\include\atlsimpstr.h
;	COMDAT ?SetString@?$CSimpleStringT@D$0A@@ATL@@QAEXPBD@Z
_TEXT	SEGMENT
_pszSrc$ = 8						; size = 4
?SetString@?$CSimpleStringT@D$0A@@ATL@@QAEXPBD@Z PROC NEAR ; ATL::CSimpleStringT<char,0>::SetString, COMDAT
; _this$ = ecx

; 579  : 	{

  00000	56		 push	 esi

; 580  : 		SetString( pszSrc, StringLength( pszSrc ) );

  00001	8b 74 24 08	 mov	 esi, DWORD PTR _pszSrc$[esp]
  00005	85 f6		 test	 esi, esi
  00007	75 0d		 jne	 SHORT $L211653
  00009	33 c0		 xor	 eax, eax
  0000b	50		 push	 eax
  0000c	56		 push	 esi
  0000d	e8 00 00 00 00	 call	 ?SetString@?$CSimpleStringT@D$0A@@ATL@@QAEXPBDH@Z ; ATL::CSimpleStringT<char,0>::SetString
  00012	5e		 pop	 esi

; 581  : 	}

  00013	c2 04 00	 ret	 4

; 580  : 		SetString( pszSrc, StringLength( pszSrc ) );

$L211653:
  00016	8b c6		 mov	 eax, esi
  00018	57		 push	 edi
  00019	8d 78 01	 lea	 edi, DWORD PTR [eax+1]
  0001c	8d 64 24 00	 npad	 4
$L211655:
  00020	8a 10		 mov	 dl, BYTE PTR [eax]
  00022	40		 inc	 eax
  00023	84 d2		 test	 dl, dl
  00025	75 f9		 jne	 SHORT $L211655
  00027	2b c7		 sub	 eax, edi
  00029	5f		 pop	 edi
  0002a	50		 push	 eax
  0002b	56		 push	 esi
  0002c	e8 00 00 00 00	 call	 ?SetString@?$CSimpleStringT@D$0A@@ATL@@QAEXPBDH@Z ; ATL::CSimpleStringT<char,0>::SetString
  00031	5e		 pop	 esi

; 581  : 	}

  00032	c2 04 00	 ret	 4
?SetString@?$CSimpleStringT@D$0A@@ATL@@QAEXPBD@Z ENDP	; ATL::CSimpleStringT<char,0>::SetString
_TEXT	ENDS
PUBLIC	??4?$CSimpleStringT@D$0A@@ATL@@QAEAAV01@PBD@Z	; ATL::CSimpleStringT<char,0>::operator=
; Function compile flags: /Ogty
;	COMDAT ??4?$CSimpleStringT@D$0A@@ATL@@QAEAAV01@PBD@Z
_TEXT	SEGMENT
_pszSrc$ = 8						; size = 4
??4?$CSimpleStringT@D$0A@@ATL@@QAEAAV01@PBD@Z PROC NEAR	; ATL::CSimpleStringT<char,0>::operator=, COMDAT
; _this$ = ecx

; 316  : 		SetString( pszSrc );

  00000	8b 54 24 04	 mov	 edx, DWORD PTR _pszSrc$[esp-4]
  00004	85 d2		 test	 edx, edx
  00006	57		 push	 edi
  00007	8b f9		 mov	 edi, ecx
  00009	75 0f		 jne	 SHORT $L211668
  0000b	33 c0		 xor	 eax, eax
  0000d	50		 push	 eax
  0000e	52		 push	 edx
  0000f	e8 00 00 00 00	 call	 ?SetString@?$CSimpleStringT@D$0A@@ATL@@QAEXPBDH@Z ; ATL::CSimpleStringT<char,0>::SetString

; 317  : 
; 318  : 		return( *this );

  00014	8b c7		 mov	 eax, edi
  00016	5f		 pop	 edi

; 319  : 	}

  00017	c2 04 00	 ret	 4

; 316  : 		SetString( pszSrc );

$L211668:
  0001a	8b c2		 mov	 eax, edx
  0001c	56		 push	 esi
  0001d	8d 70 01	 lea	 esi, DWORD PTR [eax+1]
$L211669:
  00020	8a 08		 mov	 cl, BYTE PTR [eax]
  00022	40		 inc	 eax
  00023	84 c9		 test	 cl, cl
  00025	75 f9		 jne	 SHORT $L211669
  00027	2b c6		 sub	 eax, esi
  00029	5e		 pop	 esi
  0002a	50		 push	 eax
  0002b	52		 push	 edx
  0002c	8b cf		 mov	 ecx, edi
  0002e	e8 00 00 00 00	 call	 ?SetString@?$CSimpleStringT@D$0A@@ATL@@QAEXPBDH@Z ; ATL::CSimpleStringT<char,0>::SetString

; 317  : 
; 318  : 		return( *this );

  00033	8b c7		 mov	 eax, edi
  00035	5f		 pop	 edi

; 319  : 	}

  00036	c2 04 00	 ret	 4
??4?$CSimpleStringT@D$0A@@ATL@@QAEAAV01@PBD@Z ENDP	; ATL::CSimpleStringT<char,0>::operator=
_TEXT	ENDS
PUBLIC	??4?$CStringT@DV?$StrTraitMFC@DV?$ChTraitsCRT@D@ATL@@@@@ATL@@QAEAAV01@PBD@Z ; ATL::CStringT<char,StrTraitMFC<char,ATL::ChTraitsCRT<char> > >::operator=
; Function compile flags: /Ogty
; File c:\program files\microsoft visual studio .net 2003\vc7\atlmfc\include\cstringt.h
;	COMDAT ??4?$CStringT@DV?$StrTraitMFC@DV?$ChTraitsCRT@D@ATL@@@@@ATL@@QAEAAV01@PBD@Z
_TEXT	SEGMENT
_pszSrc$ = 8						; size = 4
??4?$CStringT@DV?$StrTraitMFC@DV?$ChTraitsCRT@D@ATL@@@@@ATL@@QAEAAV01@PBD@Z PROC NEAR ; ATL::CStringT<char,StrTraitMFC<char,ATL::ChTraitsCRT<char> > >::operator=, COMDAT
; _this$ = ecx

; 983  : 		CThisSimpleString::operator=( pszSrc );

  00000	8b 54 24 04	 mov	 edx, DWORD PTR _pszSrc$[esp-4]
  00004	85 d2		 test	 edx, edx
  00006	57		 push	 edi
  00007	8b f9		 mov	 edi, ecx
  00009	75 0f		 jne	 SHORT $L211689
  0000b	33 c0		 xor	 eax, eax
  0000d	50		 push	 eax
  0000e	52		 push	 edx
  0000f	e8 00 00 00 00	 call	 ?SetString@?$CSimpleStringT@D$0A@@ATL@@QAEXPBDH@Z ; ATL::CSimpleStringT<char,0>::SetString

; 984  : 
; 985  : 		return( *this );

  00014	8b c7		 mov	 eax, edi
  00016	5f		 pop	 edi

; 986  : 	}

  00017	c2 04 00	 ret	 4

; 983  : 		CThisSimpleString::operator=( pszSrc );

$L211689:
  0001a	8b c2		 mov	 eax, edx
  0001c	56		 push	 esi
  0001d	8d 70 01	 lea	 esi, DWORD PTR [eax+1]
$L211691:
  00020	8a 08		 mov	 cl, BYTE PTR [eax]
  00022	40		 inc	 eax
  00023	84 c9		 test	 cl, cl
  00025	75 f9		 jne	 SHORT $L211691
  00027	2b c6		 sub	 eax, esi
  00029	5e		 pop	 esi
  0002a	50		 push	 eax
  0002b	52		 push	 edx
  0002c	8b cf		 mov	 ecx, edi
  0002e	e8 00 00 00 00	 call	 ?SetString@?$CSimpleStringT@D$0A@@ATL@@QAEXPBDH@Z ; ATL::CSimpleStringT<char,0>::SetString

; 984  : 
; 985  : 		return( *this );

  00033	8b c7		 mov	 eax, edi
  00035	5f		 pop	 edi

; 986  : 	}

  00036	c2 04 00	 ret	 4
??4?$CStringT@DV?$StrTraitMFC@DV?$ChTraitsCRT@D@ATL@@@@@ATL@@QAEAAV01@PBD@Z ENDP ; ATL::CStringT<char,StrTraitMFC<char,ATL::ChTraitsCRT<char> > >::operator=
_TEXT	ENDS
PUBLIC	??0?$CStringT@DV?$StrTraitMFC@DV?$ChTraitsCRT@D@ATL@@@@@ATL@@QAE@PBD@Z ; ATL::CStringT<char,StrTraitMFC<char,ATL::ChTraitsCRT<char> > >::CStringT<char,StrTraitMFC<char,ATL::ChTraitsCRT<char> > >
;	COMDAT xdata$x
; File c:\program files\microsoft visual studio .net 2003\vc7\atlmfc\include\atlsimpstr.h
xdata$x	SEGMENT
$T211775 DD	0ffffffffH
	DD	FLAT:$L211694
$T211769 DD	019930520H
	DD	01H
	DD	FLAT:$T211775
	DD	2 DUP(00H)
	DD	2 DUP(00H)
; Function compile flags: /Ogty
; File c:\program files\microsoft visual studio .net 2003\vc7\atlmfc\include\cstringt.h
xdata$x	ENDS
;	COMDAT ??0?$CStringT@DV?$StrTraitMFC@DV?$ChTraitsCRT@D@ATL@@@@@ATL@@QAE@PBD@Z
_TEXT	SEGMENT
_this$ = -16						; size = 4
__$EHRec$ = -12						; size = 12
_pszSrc$ = 8						; size = 4
??0?$CStringT@DV?$StrTraitMFC@DV?$ChTraitsCRT@D@ATL@@@@@ATL@@QAE@PBD@Z PROC NEAR ; ATL::CStringT<char,StrTraitMFC<char,ATL::ChTraitsCRT<char> > >::CStringT<char,StrTraitMFC<char,ATL::ChTraitsCRT<char> > >, COMDAT
; _this$ = ecx

; 830  : 	{

  00000	6a ff		 push	 -1
  00002	68 00 00 00 00	 push	 __ehhandler$??0?$CStringT@DV?$StrTraitMFC@DV?$ChTraitsCRT@D@ATL@@@@@ATL@@QAE@PBD@Z
  00007	64 a1 00 00 00
	00		 mov	 eax, DWORD PTR fs:__except_list
  0000d	50		 push	 eax
  0000e	64 89 25 00 00
	00 00		 mov	 DWORD PTR fs:__except_list, esp
  00015	51		 push	 ecx
  00016	56		 push	 esi
  00017	8b f1		 mov	 esi, ecx
  00019	57		 push	 edi
  0001a	89 74 24 08	 mov	 DWORD PTR _this$[esp+24], esi
  0001e	e8 00 00 00 00	 call	 ?AfxGetStringManager@@YGPAUIAtlStringMgr@ATL@@XZ ; AfxGetStringManager
  00023	8b 10		 mov	 edx, DWORD PTR [eax]
  00025	8b c8		 mov	 ecx, eax
  00027	ff 52 0c	 call	 DWORD PTR [edx+12]
  0002a	83 c0 10	 add	 eax, 16			; 00000010H
  0002d	89 06		 mov	 DWORD PTR [esi], eax

; 831  : 		if( !CheckImplicitLoad( pszSrc ) )

  0002f	8b 54 24 1c	 mov	 edx, DWORD PTR _pszSrc$[esp+20]
  00033	85 d2		 test	 edx, edx
  00035	c7 44 24 14 00
	00 00 00	 mov	 DWORD PTR __$EHRec$[esp+32], 0
  0003d	74 33		 je	 SHORT $L211771
  0003f	f7 c2 00 00 ff
	ff		 test	 edx, -65536		; ffff0000H
  00045	75 2f		 jne	 SHORT $L211766
  00047	0f b7 fa	 movzx	 edi, dx
  0004a	57		 push	 edi
  0004b	e8 00 00 00 00	 call	 ?AfxFindStringResourceHandle@@YGPAUHINSTANCE__@@I@Z ; AfxFindStringResourceHandle
  00050	85 c0		 test	 eax, eax
  00052	74 3e		 je	 SHORT $L211773
  00054	57		 push	 edi
  00055	50		 push	 eax
  00056	8b ce		 mov	 ecx, esi
  00058	e8 00 00 00 00	 call	 ?LoadStringA@?$CStringT@DV?$StrTraitMFC@DV?$ChTraitsCRT@D@ATL@@@@@ATL@@QAEHPAUHINSTANCE__@@I@Z ; ATL::CStringT<char,StrTraitMFC<char,ATL::ChTraitsCRT<char> > >::LoadStringA
  0005d	5f		 pop	 edi

; 835  : 		}
; 836  : 	}

  0005e	8b c6		 mov	 eax, esi
  00060	5e		 pop	 esi
  00061	8b 4c 24 04	 mov	 ecx, DWORD PTR __$EHRec$[esp+16]
  00065	64 89 0d 00 00
	00 00		 mov	 DWORD PTR fs:__except_list, ecx
  0006c	83 c4 10	 add	 esp, 16			; 00000010H
  0006f	c2 04 00	 ret	 4
$L211771:

; 832  : 		{
; 833  : 			// nDestLength is in XCHARs
; 834  : 			*this = pszSrc;

  00072	33 c0		 xor	 eax, eax
  00074	eb 13		 jmp	 SHORT $L211765
$L211766:
  00076	8b c2		 mov	 eax, edx
  00078	8d 78 01	 lea	 edi, DWORD PTR [eax+1]
  0007b	eb 03 8d 49 00	 npad	 5
$L211772:
  00080	8a 08		 mov	 cl, BYTE PTR [eax]
  00082	40		 inc	 eax
  00083	84 c9		 test	 cl, cl
  00085	75 f9		 jne	 SHORT $L211772
  00087	2b c7		 sub	 eax, edi
$L211765:
  00089	50		 push	 eax
  0008a	52		 push	 edx
  0008b	8b ce		 mov	 ecx, esi
  0008d	e8 00 00 00 00	 call	 ?SetString@?$CSimpleStringT@D$0A@@ATL@@QAEXPBDH@Z ; ATL::CSimpleStringT<char,0>::SetString
$L211773:

; 835  : 		}
; 836  : 	}

  00092	8b 4c 24 0c	 mov	 ecx, DWORD PTR __$EHRec$[esp+24]
  00096	5f		 pop	 edi
  00097	8b c6		 mov	 eax, esi
  00099	5e		 pop	 esi
  0009a	64 89 0d 00 00
	00 00		 mov	 DWORD PTR fs:__except_list, ecx
  000a1	83 c4 10	 add	 esp, 16			; 00000010H
  000a4	c2 04 00	 ret	 4
_TEXT	ENDS
;	COMDAT text$x
text$x	SEGMENT
$L211694:
  00000	8b 4d f0	 mov	 ecx, DWORD PTR _this$[ebp]
  00003	e9 00 00 00 00	 jmp	 ??1?$CSimpleStringT@D$0A@@ATL@@QAE@XZ ; ATL::CSimpleStringT<char,0>::~CSimpleStringT<char,0>
__ehhandler$??0?$CStringT@DV?$StrTraitMFC@DV?$ChTraitsCRT@D@ATL@@@@@ATL@@QAE@PBD@Z:
  00008	b8 00 00 00 00	 mov	 eax, OFFSET FLAT:$T211769
  0000d	e9 00 00 00 00	 jmp	 ___CxxFrameHandler
text$x	ENDS
??0?$CStringT@DV?$StrTraitMFC@DV?$ChTraitsCRT@D@ATL@@@@@ATL@@QAE@PBD@Z ENDP ; ATL::CStringT<char,StrTraitMFC<char,ATL::ChTraitsCRT<char> > >::CStringT<char,StrTraitMFC<char,ATL::ChTraitsCRT<char> > >
PUBLIC	?LogItem@CDbManager@@AAEXPAVCQuery@@PAUtagDB_OVERLAPPED_PLUS@@@Z ; CDbManager::LogItem
PUBLIC	??_C@_0O@MCAKDACP@?$CFs?0?5?$CFd?7?$CFs?0?5?$CFs?$AA@ ; `string'
PUBLIC	??_C@_02DPKJAMEF@?$CFd?$AA@			; `string'
PUBLIC	??_C@_0BG@BLEGKHDP@LogItem?5?$CFs?0?5?$CFd?7?$CFs?0?5?$CFs?$AA@ ; `string'
PUBLIC	??_C@_0BF@KEJHODAO@?5LogItem?5Qyery?5?$DN?$DO?5?$CFs?$AA@ ; `string'
EXTRN	__imp__lstrcpyA@8:NEAR
EXTRN	?GetTradeNo@CDbManager@@QAEHXZ:NEAR		; CDbManager::GetTradeNo
;	COMDAT xdata$x
; File c:\program files\microsoft visual studio .net 2003\vc7\atlmfc\include\atlsimpstr.h
xdata$x	SEGMENT
$T213241 DD	0ffffffffH
	DD	FLAT:$L211781
	DD	00H
	DD	FLAT:$L211782
	DD	01H
	DD	FLAT:$L211783
	DD	02H
	DD	FLAT:$L211784
	DD	02H
	DD	FLAT:$L211785
	DD	02H
	DD	FLAT:$L211786
$T213130 DD	019930520H
	DD	06H
	DD	FLAT:$T213241
	DD	2 DUP(00H)
	DD	2 DUP(00H)
xdata$x	ENDS
;	COMDAT ??_C@_0BG@BLEGKHDP@LogItem?5?$CFs?0?5?$CFd?7?$CFs?0?5?$CFs?$AA@
CONST	SEGMENT
??_C@_0BG@BLEGKHDP@LogItem?5?$CFs?0?5?$CFd?7?$CFs?0?5?$CFs?$AA@ DB 'LogIt'
	DB	'em %s, %d', 09H, '%s, %s', 00H		; `string'
CONST	ENDS
;	COMDAT ??_C@_0BF@KEJHODAO@?5LogItem?5Qyery?5?$DN?$DO?5?$CFs?$AA@
CONST	SEGMENT
??_C@_0BF@KEJHODAO@?5LogItem?5Qyery?5?$DN?$DO?5?$CFs?$AA@ DB ' LogItem Qy'
	DB	'ery => %s', 00H				; `string'
CONST	ENDS
;	COMDAT ??_C@_02DPKJAMEF@?$CFd?$AA@
CONST	SEGMENT
??_C@_02DPKJAMEF@?$CFd?$AA@ DB '%d', 00H		; `string'
CONST	ENDS
;	COMDAT ??_C@_0O@MCAKDACP@?$CFs?0?5?$CFd?7?$CFs?0?5?$CFs?$AA@
CONST	SEGMENT
??_C@_0O@MCAKDACP@?$CFs?0?5?$CFd?7?$CFs?0?5?$CFs?$AA@ DB '%s, %d', 09H, '%'
	DB	's, %s', 00H					; `string'
; Function compile flags: /Ogty
; File c:\documents and settings\test\mes documents\source\virtuos_v17\build\program\_database\dbmanagerlog.cpp
CONST	ENDS
;	COMDAT ?LogItem@CDbManager@@AAEXPAVCQuery@@PAUtagDB_OVERLAPPED_PLUS@@@Z
_TEXT	SEGMENT
_nAbilityOption$208401 = -59236				; size = 4
_nResistAbilityOption$208374 = -59236			; size = 4
_uSize1$208340 = -59236					; size = 4
_nLevel1$208334 = -59236				; size = 4
_chAction$ = -59232					; size = 2
_dwGold_1$208402 = -59228				; size = 4
_iSerialNumber$208370 = -59228				; size = 4
_nAbilityOption$208348 = -59228				; size = 4
_nMaxNegudo$208400 = -59224				; size = 4
_nAbilityOption$208372 = -59224				; size = 4
_iSerialNumber$208346 = -59224				; size = 4
_nNegudo$208399 = -59220				; size = 4
_nItemResist$208373 = -59220				; size = 4
_idPlayer2$208333 = -59220				; size = 4
_strItem$208407 = -59216				; size = 4
_iReMainder2$ = -59216					; size = 4
_ItemNo$208397 = -59212					; size = 4
_uSize2$208341 = -59212					; size = 4
_nJob1$208336 = -59212					; size = 4
_strItem$208378 = -59208				; size = 4
_strItem$208354 = -59208				; size = 4
_strPlayer1$ = -59204					; size = 4
_strPlayer2$ = -59200					; size = 4
$T213127 = -59196					; size = 4
_chswitch$ = -59189					; size = 1
_iSeed2$ = -59188					; size = 4
_dwWorldID$ = -59184					; size = 4
_nItemNum$208398 = -59180				; size = 4
_idPlayer1$208332 = -59180				; size = 4
_nSlot$208403 = -59176					; size = 4
_nItemResist$208349 = -59176				; size = 4
$T213126 = -59172					; size = 4
$T213128 = -59168					; size = 4
_iSeed1$ = -59164					; size = 4
_iReMainder1$ = -59160					; size = 4
_dwItemId$208377 = -59156				; size = 4
_dwItemId$208353 = -59156				; size = 4
_i$208342 = -59152					; size = 4
_nTradeID$208331 = -59148				; size = 4
tv2318 = -59144						; size = 4
tv2258 = -59144						; size = 4
_nResistAbilityOption$208350 = -59140			; size = 4
_aLogItem$208394 = -59136				; size = 200
_aLogItem$208390 = -59136				; size = 200
_aLogItem$208380 = -59136				; size = 200
_aLogItem$208356 = -59136				; size = 200
_aLogItem$208409 = -58936				; size = 200
_arRead$ = -58736					; size = 16404
_lpszItemText$ = -42324					; size = 36
_lpszPlayer1$ = -42288					; size = 36
_lpszPlayer2$ = -42252					; size = 36
_lpAddr2$208339 = -42216				; size = 100
_lpAddr1$208338 = -42112				; size = 100
_pszQuery$212589 = -42008				; size = 1024
_pszQuery$212253 = -42008				; size = 1024
_pszQuery$211936 = -42008				; size = 1024
_pszQuery$211920 = -42008				; size = 1024
_pszQuery$211825 = -42008				; size = 1024
_szQuery$ = -40984					; size = 40960
__$ArrayPad$ = -20					; size = 4
__$EHRec$ = -12						; size = 12
__$ReturnAddr$ = 4					; size = 4
_qry$ = 8						; size = 4
_lpDbOverlappedPlus$ = 12				; size = 4
?LogItem@CDbManager@@AAEXPAVCQuery@@PAUtagDB_OVERLAPPED_PLUS@@@Z PROC NEAR ; CDbManager::LogItem, COMDAT
; _this$ = ecx

; 42   : {

  00000	55		 push	 ebp
  00001	8b ec		 mov	 ebp, esp
  00003	83 e4 f8	 and	 esp, -8			; fffffff8H
  00006	6a ff		 push	 -1
  00008	68 00 00 00 00	 push	 __ehhandler$?LogItem@CDbManager@@AAEXPAVCQuery@@PAUtagDB_OVERLAPPED_PLUS@@@Z
  0000d	64 a1 00 00 00
	00		 mov	 eax, DWORD PTR fs:__except_list
  00013	50		 push	 eax
  00014	64 89 25 00 00
	00 00		 mov	 DWORD PTR fs:__except_list, esp
  0001b	51		 push	 ecx
  0001c	b8 54 e7 00 00	 mov	 eax, 59220		; 0000e754H
  00021	e8 00 00 00 00	 call	 __chkstk
  00026	a1 00 00 00 00	 mov	 eax, DWORD PTR ___security_cookie
  0002b	33 c5		 xor	 eax, ebp
  0002d	53		 push	 ebx
  0002e	89 84 24 54 e7
	00 00		 mov	 DWORD PTR __$ArrayPad$[esp+59240], eax

; 43   : 	CAr arRead( lpDbOverlappedPlus->lpBuf, lpDbOverlappedPlus->uBufSize );
; 44   : 
; 45   : 	//  Database server  , 
; 46   : 	//	ACTION + 1 + 2 +  + 1 + 2 + 1 + 2 +
; 47   : 	//	1 + 2 + (  +  +  )1 + .... + (  +  +  )2 + .....
; 48   : 	char chAction[2];
; 49   : 	char lpszPlayer1[36], lpszPlayer2[36], lpszItemText[36];
; 50   : 	arRead.ReadString( chAction, 2 );
; 51   : 	char chswitch = chAction[0];
; 52   : 	arRead.ReadString( lpszPlayer1, 36 );
; 53   : 	arRead.ReadString( lpszPlayer2, 36 );
; 54   : 
; 55   : 	CString strPlayer1	= lpszPlayer1;
; 56   : 	CString strPlayer2	= lpszPlayer2;
; 57   : 	strPlayer1.Replace( '\'', ' ' );
; 58   : 	lstrcpy( lpszPlayer1, (LPCSTR)strPlayer1 );
; 59   : 	strPlayer2.Replace( '\'', ' ' );
; 60   : 	lstrcpy( lpszPlayer2, (LPCSTR)strPlayer2 );
; 61   : 
; 62   : 	DWORD dwWorldID;
; 63   : 	arRead >> dwWorldID;

  00035	8b 45 08	 mov	 eax, DWORD PTR _qry$[ebp]
  00038	56		 push	 esi
  00039	8b d9		 mov	 ebx, ecx
  0003b	89 44 24 30	 mov	 DWORD PTR $T213127[esp+59244], eax
  0003f	8b 45 0c	 mov	 eax, DWORD PTR _lpDbOverlappedPlus$[ebp]
  00042	8b 48 1c	 mov	 ecx, DWORD PTR [eax+28]
  00045	8b 50 18	 mov	 edx, DWORD PTR [eax+24]
  00048	57		 push	 edi
  00049	51		 push	 ecx
  0004a	52		 push	 edx
  0004b	8d 8c 24 08 02
	00 00		 lea	 ecx, DWORD PTR _arRead$[esp+59256]

; 366  : 
; 367  : 			LogItemInfo aLogItem;

  00052	89 5c 24 54	 mov	 DWORD PTR $T213126[esp+59256], ebx
  00056	89 44 24 58	 mov	 DWORD PTR $T213128[esp+59256], eax
  0005a	e8 00 00 00 00	 call	 ??0CAr@@QAE@PAXI@Z	; CAr::CAr
  0005f	6a 02		 push	 2
  00061	8d 44 24 14	 lea	 eax, DWORD PTR _chAction$[esp+59252]
  00065	33 ff		 xor	 edi, edi
  00067	50		 push	 eax
  00068	8d 8c 24 08 02
	00 00		 lea	 ecx, DWORD PTR _arRead$[esp+59256]
  0006f	89 bc 24 74 e7
	00 00		 mov	 DWORD PTR __$EHRec$[esp+59264], edi
  00076	e8 00 00 00 00	 call	 ?ReadString@CAr@@QAEPADPADH@Z ; CAr::ReadString
  0007b	8a 4c 24 10	 mov	 cl, BYTE PTR _chAction$[esp+59248]
  0007f	6a 24		 push	 36			; 00000024H
  00081	8d 94 24 44 42
	00 00		 lea	 edx, DWORD PTR _lpszPlayer1$[esp+59252]
  00088	88 4c 24 3f	 mov	 BYTE PTR _chswitch$[esp+59252], cl
  0008c	52		 push	 edx
  0008d	8d 8c 24 08 02
	00 00		 lea	 ecx, DWORD PTR _arRead$[esp+59256]
  00094	e8 00 00 00 00	 call	 ?ReadString@CAr@@QAEPADPADH@Z ; CAr::ReadString
  00099	6a 24		 push	 36			; 00000024H
  0009b	8d 84 24 68 42
	00 00		 lea	 eax, DWORD PTR _lpszPlayer2$[esp+59252]
  000a2	50		 push	 eax
  000a3	8d 8c 24 08 02
	00 00		 lea	 ecx, DWORD PTR _arRead$[esp+59256]
  000aa	e8 00 00 00 00	 call	 ?ReadString@CAr@@QAEPADPADH@Z ; CAr::ReadString
  000af	8d 8c 24 40 42
	00 00		 lea	 ecx, DWORD PTR _lpszPlayer1$[esp+59248]
  000b6	51		 push	 ecx
  000b7	8d 4c 24 30	 lea	 ecx, DWORD PTR _strPlayer1$[esp+59252]
  000bb	e8 00 00 00 00	 call	 ??0?$CStringT@DV?$StrTraitMFC@DV?$ChTraitsCRT@D@ATL@@@@@ATL@@QAE@PBD@Z ; ATL::CStringT<char,StrTraitMFC<char,ATL::ChTraitsCRT<char> > >::CStringT<char,StrTraitMFC<char,ATL::ChTraitsCRT<char> > >
  000c0	8d 94 24 64 42
	00 00		 lea	 edx, DWORD PTR _lpszPlayer2$[esp+59248]
  000c7	52		 push	 edx
  000c8	8d 4c 24 34	 lea	 ecx, DWORD PTR _strPlayer2$[esp+59252]
  000cc	c6 84 24 70 e7
	00 00 01	 mov	 BYTE PTR __$EHRec$[esp+59260], 1
  000d4	e8 00 00 00 00	 call	 ??0?$CStringT@DV?$StrTraitMFC@DV?$ChTraitsCRT@D@ATL@@@@@ATL@@QAE@PBD@Z ; ATL::CStringT<char,StrTraitMFC<char,ATL::ChTraitsCRT<char> > >::CStringT<char,StrTraitMFC<char,ATL::ChTraitsCRT<char> > >
  000d9	6a 20		 push	 32			; 00000020H
  000db	6a 27		 push	 39			; 00000027H
  000dd	8d 4c 24 34	 lea	 ecx, DWORD PTR _strPlayer1$[esp+59256]
  000e1	c6 84 24 74 e7
	00 00 02	 mov	 BYTE PTR __$EHRec$[esp+59264], 2
  000e9	e8 00 00 00 00	 call	 ?Replace@?$CStringT@DV?$StrTraitMFC@DV?$ChTraitsCRT@D@ATL@@@@@ATL@@QAEHDD@Z ; ATL::CStringT<char,StrTraitMFC<char,ATL::ChTraitsCRT<char> > >::Replace
  000ee	8b 44 24 2c	 mov	 eax, DWORD PTR _strPlayer1$[esp+59248]
  000f2	8b 35 00 00 00
	00		 mov	 esi, DWORD PTR __imp__lstrcpyA@8
  000f8	50		 push	 eax
  000f9	8d 8c 24 44 42
	00 00		 lea	 ecx, DWORD PTR _lpszPlayer1$[esp+59252]
  00100	51		 push	 ecx
  00101	ff d6		 call	 esi
  00103	6a 20		 push	 32			; 00000020H
  00105	6a 27		 push	 39			; 00000027H
  00107	8d 4c 24 38	 lea	 ecx, DWORD PTR _strPlayer2$[esp+59256]
  0010b	e8 00 00 00 00	 call	 ?Replace@?$CStringT@DV?$StrTraitMFC@DV?$ChTraitsCRT@D@ATL@@@@@ATL@@QAEHDD@Z ; ATL::CStringT<char,StrTraitMFC<char,ATL::ChTraitsCRT<char> > >::Replace
  00110	8b 54 24 30	 mov	 edx, DWORD PTR _strPlayer2$[esp+59248]
  00114	52		 push	 edx
  00115	8d 84 24 68 42
	00 00		 lea	 eax, DWORD PTR _lpszPlayer2$[esp+59252]
  0011c	50		 push	 eax
  0011d	ff d6		 call	 esi
  0011f	8b 8c 24 08 02
	00 00		 mov	 ecx, DWORD PTR _arRead$[esp+59256]
  00126	8b 94 24 0c 02
	00 00		 mov	 edx, DWORD PTR _arRead$[esp+59260]
  0012d	8d 41 04	 lea	 eax, DWORD PTR [ecx+4]
  00130	3b c2		 cmp	 eax, edx
  00132	77 08		 ja	 SHORT $L211795
  00134	8b 09		 mov	 ecx, DWORD PTR [ecx]
  00136	89 4c 24 40	 mov	 DWORD PTR _dwWorldID$[esp+59248], ecx
  0013a	eb 06		 jmp	 SHORT $L213157

; 43   : 	CAr arRead( lpDbOverlappedPlus->lpBuf, lpDbOverlappedPlus->uBufSize );
; 44   : 
; 45   : 	//  Database server  , 
; 46   : 	//	ACTION + 1 + 2 +  + 1 + 2 + 1 + 2 +
; 47   : 	//	1 + 2 + (  +  +  )1 + .... + (  +  +  )2 + .....
; 48   : 	char chAction[2];
; 49   : 	char lpszPlayer1[36], lpszPlayer2[36], lpszItemText[36];
; 50   : 	arRead.ReadString( chAction, 2 );
; 51   : 	char chswitch = chAction[0];
; 52   : 	arRead.ReadString( lpszPlayer1, 36 );
; 53   : 	arRead.ReadString( lpszPlayer2, 36 );
; 54   : 
; 55   : 	CString strPlayer1	= lpszPlayer1;
; 56   : 	CString strPlayer2	= lpszPlayer2;
; 57   : 	strPlayer1.Replace( '\'', ' ' );
; 58   : 	lstrcpy( lpszPlayer1, (LPCSTR)strPlayer1 );
; 59   : 	strPlayer2.Replace( '\'', ' ' );
; 60   : 	lstrcpy( lpszPlayer2, (LPCSTR)strPlayer2 );
; 61   : 
; 62   : 	DWORD dwWorldID;
; 63   : 	arRead >> dwWorldID;

$L211795:
  0013c	89 7c 24 40	 mov	 DWORD PTR _dwWorldID$[esp+59248], edi
  00140	8b c2		 mov	 eax, edx
$L213157:

; 64   : 	
; 65   : 	int iSeed1, iSeed2;
; 66   : 	int iReMainder1, iReMainder2;
; 67   : 	arRead >> iSeed1 >> iSeed2;

  00142	8d 48 04	 lea	 ecx, DWORD PTR [eax+4]
  00145	3b ca		 cmp	 ecx, edx
  00147	89 84 24 08 02
	00 00		 mov	 DWORD PTR _arRead$[esp+59256], eax
  0014e	77 0a		 ja	 SHORT $L211807
  00150	8b 00		 mov	 eax, DWORD PTR [eax]
  00152	89 44 24 54	 mov	 DWORD PTR _iSeed1$[esp+59248], eax
  00156	8b c1		 mov	 eax, ecx
  00158	eb 06		 jmp	 SHORT $L213158
$L211807:
  0015a	89 7c 24 54	 mov	 DWORD PTR _iSeed1$[esp+59248], edi
  0015e	8b c2		 mov	 eax, edx
$L213158:
  00160	8d 70 04	 lea	 esi, DWORD PTR [eax+4]
  00163	3b f2		 cmp	 esi, edx
  00165	89 84 24 08 02
	00 00		 mov	 DWORD PTR _arRead$[esp+59256], eax
  0016c	77 08		 ja	 SHORT $L211819
  0016e	8b 08		 mov	 ecx, DWORD PTR [eax]
  00170	89 4c 24 3c	 mov	 DWORD PTR _iSeed2$[esp+59248], ecx
  00174	eb 06		 jmp	 SHORT $L213159
$L211819:
  00176	89 7c 24 3c	 mov	 DWORD PTR _iSeed2$[esp+59248], edi
  0017a	8b f2		 mov	 esi, edx
$L213159:

; 68   : 
; 69   : 	char szQuery[QUERY_SIZE]	= { 0,};

  0017c	33 c0		 xor	 eax, eax
  0017e	c6 84 24 58 47
	00 00 00	 mov	 BYTE PTR _szQuery$[esp+59248], 0
  00186	b9 ff 27 00 00	 mov	 ecx, 10239		; 000027ffH
  0018b	8d bc 24 59 47
	00 00		 lea	 edi, DWORD PTR _szQuery$[esp+59249]
  00192	f3 ab		 rep stosd
  00194	66 ab		 stosw
  00196	aa		 stosb

; 70   : 
; 71   : 	switch( chswitch )

  00197	80 7c 24 3b 54	 cmp	 BYTE PTR _chswitch$[esp+59248], 84 ; 00000054H
  0019c	89 b4 24 08 02
	00 00		 mov	 DWORD PTR _arRead$[esp+59256], esi
  001a3	0f 84 95 06 00
	00		 je	 $L208330

; 334  : 				}	
; 335  : 			}
; 336  : 			break;
; 337  : 		}
; 338  : 	default:
; 339  : 		{
; 340  : 			memset( lpszItemText, 0, sizeof( lpszItemText ) );

  001a9	33 c0		 xor	 eax, eax
  001ab	89 84 24 1c 42
	00 00		 mov	 DWORD PTR _lpszItemText$[esp+59248], eax
  001b2	89 84 24 20 42
	00 00		 mov	 DWORD PTR _lpszItemText$[esp+59252], eax
  001b9	89 84 24 24 42
	00 00		 mov	 DWORD PTR _lpszItemText$[esp+59256], eax
  001c0	89 84 24 28 42
	00 00		 mov	 DWORD PTR _lpszItemText$[esp+59260], eax
  001c7	89 84 24 2c 42
	00 00		 mov	 DWORD PTR _lpszItemText$[esp+59264], eax
  001ce	89 84 24 30 42
	00 00		 mov	 DWORD PTR _lpszItemText$[esp+59268], eax
  001d5	89 84 24 34 42
	00 00		 mov	 DWORD PTR _lpszItemText$[esp+59272], eax
  001dc	89 84 24 38 42
	00 00		 mov	 DWORD PTR _lpszItemText$[esp+59276], eax
  001e3	89 84 24 3c 42
	00 00		 mov	 DWORD PTR _lpszItemText$[esp+59280], eax

; 341  : 			SERIALNUMBER	ItemNo;
; 342  : 			DWORD nItemNum = 0;
; 343  : 			int nNegudo = 0; // 
; 344  : 			int nMaxNegudo	= 0; 
; 345  : 			int	  nAbilityOption = 0;
; 346  : 			DWORD dwGold_1 = 0;
; 347  : 			int nSlot = 0;
; 348  : 			int nSlot1 = 0;
; 349  : 			int nItemResist = 0;
; 350  : 			int nResistAbilityOption = 0;
; 351  : 			
; 352  : 			arRead >> ItemNo;

  001ea	8d 46 04	 lea	 eax, DWORD PTR [esi+4]
  001ed	3b c2		 cmp	 eax, edx
  001ef	77 0a		 ja	 SHORT $L212741
  001f1	8b 0e		 mov	 ecx, DWORD PTR [esi]
  001f3	89 4c 24 24	 mov	 DWORD PTR _ItemNo$208397[esp+59248], ecx
  001f7	33 f6		 xor	 esi, esi
  001f9	eb 08		 jmp	 SHORT $L213160
$L212741:
  001fb	33 f6		 xor	 esi, esi
  001fd	89 74 24 24	 mov	 DWORD PTR _ItemNo$208397[esp+59248], esi
  00201	8b c2		 mov	 eax, edx
$L213160:

; 353  : 			arRead >> nNegudo;

  00203	8d 48 04	 lea	 ecx, DWORD PTR [eax+4]
  00206	3b ca		 cmp	 ecx, edx
  00208	89 84 24 08 02
	00 00		 mov	 DWORD PTR _arRead$[esp+59256], eax
  0020f	77 0a		 ja	 SHORT $L212753
  00211	8b 00		 mov	 eax, DWORD PTR [eax]
  00213	89 44 24 1c	 mov	 DWORD PTR _nNegudo$208399[esp+59248], eax
  00217	8b c1		 mov	 eax, ecx
  00219	eb 06		 jmp	 SHORT $L213161
$L212753:
  0021b	89 74 24 1c	 mov	 DWORD PTR _nNegudo$208399[esp+59248], esi
  0021f	8b c2		 mov	 eax, edx
$L213161:

; 354  : 			arRead >> nMaxNegudo;

  00221	8d 48 04	 lea	 ecx, DWORD PTR [eax+4]
  00224	3b ca		 cmp	 ecx, edx
  00226	89 84 24 08 02
	00 00		 mov	 DWORD PTR _arRead$[esp+59256], eax
  0022d	77 0f		 ja	 SHORT $L212765
  0022f	8b 10		 mov	 edx, DWORD PTR [eax]
  00231	89 54 24 18	 mov	 DWORD PTR _nMaxNegudo$208400[esp+59248], edx
  00235	89 8c 24 08 02
	00 00		 mov	 DWORD PTR _arRead$[esp+59256], ecx
  0023c	eb 0b		 jmp	 SHORT $L212766
$L212765:
  0023e	89 74 24 18	 mov	 DWORD PTR _nMaxNegudo$208400[esp+59248], esi
  00242	89 94 24 08 02
	00 00		 mov	 DWORD PTR _arRead$[esp+59256], edx
$L212766:

; 355  : 			arRead.ReadString( lpszItemText, 36 );

  00249	6a 24		 push	 36			; 00000024H
  0024b	8d 84 24 20 42
	00 00		 lea	 eax, DWORD PTR _lpszItemText$[esp+59252]
  00252	50		 push	 eax
  00253	8d 8c 24 08 02
	00 00		 lea	 ecx, DWORD PTR _arRead$[esp+59256]
  0025a	e8 00 00 00 00	 call	 ?ReadString@CAr@@QAEPADPADH@Z ; CAr::ReadString

; 356  : 			CString strItem	= lpszItemText;

  0025f	8d 8c 24 1c 42
	00 00		 lea	 ecx, DWORD PTR _lpszItemText$[esp+59248]
  00266	51		 push	 ecx
  00267	8d 4c 24 24	 lea	 ecx, DWORD PTR _strItem$208407[esp+59252]
  0026b	e8 00 00 00 00	 call	 ??0?$CStringT@DV?$StrTraitMFC@DV?$ChTraitsCRT@D@ATL@@@@@ATL@@QAE@PBD@Z ; ATL::CStringT<char,StrTraitMFC<char,ATL::ChTraitsCRT<char> > >::CStringT<char,StrTraitMFC<char,ATL::ChTraitsCRT<char> > >

; 357  : 			strItem.Replace( '\'', ' ' );

  00270	6a 20		 push	 32			; 00000020H
  00272	6a 27		 push	 39			; 00000027H
  00274	8d 4c 24 28	 lea	 ecx, DWORD PTR _strItem$208407[esp+59256]
  00278	c6 84 24 74 e7
	00 00 05	 mov	 BYTE PTR __$EHRec$[esp+59264], 5
  00280	e8 00 00 00 00	 call	 ?Replace@?$CStringT@DV?$StrTraitMFC@DV?$ChTraitsCRT@D@ATL@@@@@ATL@@QAEHDD@Z ; ATL::CStringT<char,StrTraitMFC<char,ATL::ChTraitsCRT<char> > >::Replace

; 358  : 			lstrcpy( lpszItemText, (LPCSTR)strItem );

  00285	8b 54 24 20	 mov	 edx, DWORD PTR _strItem$208407[esp+59248]
  00289	52		 push	 edx
  0028a	8d 84 24 20 42
	00 00		 lea	 eax, DWORD PTR _lpszItemText$[esp+59252]
  00291	50		 push	 eax
  00292	ff 15 00 00 00
	00		 call	 DWORD PTR __imp__lstrcpyA@8

; 359  : 			arRead >> nItemNum;

  00298	8b 94 24 08 02
	00 00		 mov	 edx, DWORD PTR _arRead$[esp+59256]
  0029f	8b 84 24 0c 02
	00 00		 mov	 eax, DWORD PTR _arRead$[esp+59260]
  002a6	8d 4a 04	 lea	 ecx, DWORD PTR [edx+4]
  002a9	3b c8		 cmp	 ecx, eax
  002ab	77 08		 ja	 SHORT $L212773
  002ad	8b 12		 mov	 edx, DWORD PTR [edx]
  002af	89 54 24 44	 mov	 DWORD PTR _nItemNum$208398[esp+59248], edx
  002b3	eb 06		 jmp	 SHORT $L213162
$L212773:
  002b5	89 74 24 44	 mov	 DWORD PTR _nItemNum$208398[esp+59248], esi
  002b9	8b c8		 mov	 ecx, eax
$L213162:

; 360  : 			arRead >> nAbilityOption;

  002bb	8d 51 04	 lea	 edx, DWORD PTR [ecx+4]
  002be	3b d0		 cmp	 edx, eax
  002c0	89 8c 24 08 02
	00 00		 mov	 DWORD PTR _arRead$[esp+59256], ecx
  002c7	77 08		 ja	 SHORT $L212785
  002c9	8b 09		 mov	 ecx, DWORD PTR [ecx]
  002cb	89 4c 24 0c	 mov	 DWORD PTR _nAbilityOption$208401[esp+59248], ecx
  002cf	eb 06		 jmp	 SHORT $L213163
$L212785:
  002d1	89 74 24 0c	 mov	 DWORD PTR _nAbilityOption$208401[esp+59248], esi
  002d5	8b d0		 mov	 edx, eax
$L213163:

; 361  : 			arRead >> dwGold_1;

  002d7	8d 4a 04	 lea	 ecx, DWORD PTR [edx+4]
  002da	3b c8		 cmp	 ecx, eax
  002dc	89 94 24 08 02
	00 00		 mov	 DWORD PTR _arRead$[esp+59256], edx
  002e3	77 08		 ja	 SHORT $L212790
  002e5	8b 12		 mov	 edx, DWORD PTR [edx]
  002e7	89 54 24 14	 mov	 DWORD PTR _dwGold_1$208402[esp+59248], edx
  002eb	eb 06		 jmp	 SHORT $L213164
$L212790:
  002ed	89 74 24 14	 mov	 DWORD PTR _dwGold_1$208402[esp+59248], esi
  002f1	8b c8		 mov	 ecx, eax
$L213164:

; 362  : 			arRead >> nSlot;

  002f3	8d 51 04	 lea	 edx, DWORD PTR [ecx+4]
  002f6	3b d0		 cmp	 edx, eax
  002f8	89 8c 24 08 02
	00 00		 mov	 DWORD PTR _arRead$[esp+59256], ecx
  002ff	77 08		 ja	 SHORT $L212802
  00301	8b 09		 mov	 ecx, DWORD PTR [ecx]
  00303	89 4c 24 48	 mov	 DWORD PTR _nSlot$208403[esp+59248], ecx
  00307	eb 06		 jmp	 SHORT $L213165
$L212802:
  00309	89 74 24 48	 mov	 DWORD PTR _nSlot$208403[esp+59248], esi
  0030d	8b d0		 mov	 edx, eax
$L213165:

; 363  : 			arRead >> nSlot1;

  0030f	8d 4a 04	 lea	 ecx, DWORD PTR [edx+4]
  00312	3b c8		 cmp	 ecx, eax
  00314	89 94 24 08 02
	00 00		 mov	 DWORD PTR _arRead$[esp+59256], edx
  0031b	77 04		 ja	 SHORT $L212814
  0031d	8b 1a		 mov	 ebx, DWORD PTR [edx]
  0031f	eb 04		 jmp	 SHORT $L213166
$L212814:
  00321	33 db		 xor	 ebx, ebx
  00323	8b c8		 mov	 ecx, eax
$L213166:

; 364  : 			arRead >> nItemResist;

  00325	8d 51 04	 lea	 edx, DWORD PTR [ecx+4]
  00328	3b d0		 cmp	 edx, eax
  0032a	89 8c 24 08 02
	00 00		 mov	 DWORD PTR _arRead$[esp+59256], ecx
  00331	77 06		 ja	 SHORT $L212826
  00333	8b 39		 mov	 edi, DWORD PTR [ecx]
  00335	8b ca		 mov	 ecx, edx
  00337	eb 04		 jmp	 SHORT $L213167
$L212826:
  00339	33 ff		 xor	 edi, edi
  0033b	8b c8		 mov	 ecx, eax
$L213167:

; 365  : 			arRead >> nResistAbilityOption;

  0033d	8d 51 04	 lea	 edx, DWORD PTR [ecx+4]
  00340	3b d0		 cmp	 edx, eax
  00342	89 8c 24 08 02
	00 00		 mov	 DWORD PTR _arRead$[esp+59256], ecx
  00349	77 0b		 ja	 SHORT $L212838
  0034b	8b 31		 mov	 esi, DWORD PTR [ecx]
  0034d	89 94 24 08 02
	00 00		 mov	 DWORD PTR _arRead$[esp+59256], edx
  00354	eb 09		 jmp	 SHORT $L212839
$L212838:
  00356	33 f6		 xor	 esi, esi
  00358	89 84 24 08 02
	00 00		 mov	 DWORD PTR _arRead$[esp+59256], eax
$L212839:

; 366  : 
; 367  : 			LogItemInfo aLogItem;

  0035f	8d 8c 24 38 01
	00 00		 lea	 ecx, DWORD PTR _aLogItem$208409[esp+59248]
  00366	e8 00 00 00 00	 call	 ??0_LogItemInfo@@QAE@XZ	; _LogItemInfo::_LogItemInfo

; 368  : 			::memset( &(aLogItem), 0, sizeof( &(aLogItem) ) );
; 369  : 			aLogItem.SendName = lpszPlayer1;
; 370  : 			aLogItem.RecvName = lpszPlayer2;
; 371  : 			aLogItem.WorldId = dwWorldID;

  0036b	8b 4c 24 40	 mov	 ecx, DWORD PTR _dwWorldID$[esp+59248]
  0036f	8d 94 24 40 42
	00 00		 lea	 edx, DWORD PTR _lpszPlayer1$[esp+59248]
  00376	89 94 24 3c 01
	00 00		 mov	 DWORD PTR _aLogItem$208409[esp+59252], edx

; 372  : 			aLogItem.Gold = iSeed1;

  0037d	8b 54 24 54	 mov	 edx, DWORD PTR _iSeed1$[esp+59248]
  00381	8d 84 24 64 42
	00 00		 lea	 eax, DWORD PTR _lpszPlayer2$[esp+59248]
  00388	89 84 24 40 01
	00 00		 mov	 DWORD PTR _aLogItem$208409[esp+59256], eax

; 373  : 			aLogItem.Gold2 = iSeed2;

  0038f	8b 44 24 3c	 mov	 eax, DWORD PTR _iSeed2$[esp+59248]
  00393	89 94 24 48 01
	00 00		 mov	 DWORD PTR _aLogItem$208409[esp+59264], edx

; 374  : 			aLogItem.ItemNo		= ItemNo;
; 375  : 			//aLogItem.ItemName = lpszItemText;
; 376  : 			_tcsncpy( aLogItem.szItemName, lpszItemText, 30 );

  0039a	6a 1e		 push	 30			; 0000001eH
  0039c	8d 94 24 20 42
	00 00		 lea	 edx, DWORD PTR _lpszItemText$[esp+59252]
  003a3	89 84 24 50 01
	00 00		 mov	 DWORD PTR _aLogItem$208409[esp+59272], eax
  003aa	89 8c 24 48 01
	00 00		 mov	 DWORD PTR _aLogItem$208409[esp+59264], ecx
  003b1	8b 4c 24 28	 mov	 ecx, DWORD PTR _ItemNo$208397[esp+59252]
  003b5	52		 push	 edx
  003b6	8d 84 24 64 01
	00 00		 lea	 eax, DWORD PTR _aLogItem$208409[esp+59292]
  003bd	50		 push	 eax
  003be	c7 84 24 44 01
	00 00 00 00 00
	00		 mov	 DWORD PTR _aLogItem$208409[esp+59260], 0
  003c9	89 8c 24 5c 01
	00 00		 mov	 DWORD PTR _aLogItem$208409[esp+59284], ecx
  003d0	e8 00 00 00 00	 call	 __mbsnbcpy

; 377  : 
; 378  : 			aLogItem.itemNumber = nItemNum;

  003d5	8b 4c 24 50	 mov	 ecx, DWORD PTR _nItemNum$208398[esp+59260]

; 379  : 			aLogItem.nAbilityOption = nAbilityOption;

  003d9	8b 54 24 18	 mov	 edx, DWORD PTR _nAbilityOption$208401[esp+59260]

; 380  : 			aLogItem.nItemResist = nItemResist;
; 381  : 			aLogItem.nResistAbilityOption = nResistAbilityOption;
; 382  : 			aLogItem.Negudo = nNegudo;

  003dd	8b 44 24 28	 mov	 eax, DWORD PTR _nNegudo$208399[esp+59260]
  003e1	89 8c 24 88 01
	00 00		 mov	 DWORD PTR _aLogItem$208409[esp+59328], ecx

; 383  : 			aLogItem.MaxNegudo	= nMaxNegudo;

  003e8	8b 4c 24 24	 mov	 ecx, DWORD PTR _nMaxNegudo$208400[esp+59260]
  003ec	89 94 24 8c 01
	00 00		 mov	 DWORD PTR _aLogItem$208409[esp+59332], edx

; 384  : 			aLogItem.Gold_1 = dwGold_1;

  003f3	8b 54 24 20	 mov	 edx, DWORD PTR _dwGold_1$208402[esp+59260]
  003f7	89 84 24 60 01
	00 00		 mov	 DWORD PTR _aLogItem$208409[esp+59288], eax

; 385  : 			aLogItem.nSlot = nSlot;

  003fe	8b 44 24 54	 mov	 eax, DWORD PTR _nSlot$208403[esp+59260]
  00402	89 8c 24 64 01
	00 00		 mov	 DWORD PTR _aLogItem$208409[esp+59292], ecx

; 386  : 			aLogItem.nSlot1 = nSlot1;
; 387  : 			aLogItem.Action = chAction;

  00409	8d 4c 24 1c	 lea	 ecx, DWORD PTR _chAction$[esp+59260]
  0040d	89 94 24 90 01
	00 00		 mov	 DWORD PTR _aLogItem$208409[esp+59336], edx

; 388  : 
; 389  : 			arRead >> aLogItem.m_bCharged;

  00414	8b 94 24 14 02
	00 00		 mov	 edx, DWORD PTR _arRead$[esp+59268]
  0041b	89 84 24 94 01
	00 00		 mov	 DWORD PTR _aLogItem$208409[esp+59340], eax
  00422	8b 84 24 18 02
	00 00		 mov	 eax, DWORD PTR _arRead$[esp+59272]
  00429	89 8c 24 44 01
	00 00		 mov	 DWORD PTR _aLogItem$208409[esp+59260], ecx
  00430	8d 4a 04	 lea	 ecx, DWORD PTR [edx+4]
  00433	83 c4 0c	 add	 esp, 12			; 0000000cH
  00436	3b c8		 cmp	 ecx, eax
  00438	89 bc 24 90 01
	00 00		 mov	 DWORD PTR _aLogItem$208409[esp+59336], edi
  0043f	89 b4 24 94 01
	00 00		 mov	 DWORD PTR _aLogItem$208409[esp+59340], esi
  00446	89 9c 24 8c 01
	00 00		 mov	 DWORD PTR _aLogItem$208409[esp+59332], ebx
  0044d	77 0b		 ja	 SHORT $L212853
  0044f	8b 12		 mov	 edx, DWORD PTR [edx]
  00451	89 94 24 98 01
	00 00		 mov	 DWORD PTR _aLogItem$208409[esp+59344], edx
  00458	eb 0d		 jmp	 SHORT $L213168
$L212853:
  0045a	c7 84 24 98 01
	00 00 00 00 00
	00		 mov	 DWORD PTR _aLogItem$208409[esp+59344], 0
  00465	8b c8		 mov	 ecx, eax
$L213168:

; 390  : 			arRead >> aLogItem.m_dwKeepTime;

  00467	8d 51 04	 lea	 edx, DWORD PTR [ecx+4]
  0046a	33 ff		 xor	 edi, edi
  0046c	3b d0		 cmp	 edx, eax
  0046e	89 8c 24 08 02
	00 00		 mov	 DWORD PTR _arRead$[esp+59256], ecx
  00475	77 0b		 ja	 SHORT $L212858
  00477	8b 09		 mov	 ecx, DWORD PTR [ecx]
  00479	89 8c 24 9c 01
	00 00		 mov	 DWORD PTR _aLogItem$208409[esp+59348], ecx
  00480	eb 09		 jmp	 SHORT $L213169
$L212858:
  00482	89 bc 24 9c 01
	00 00		 mov	 DWORD PTR _aLogItem$208409[esp+59348], edi
  00489	8b d0		 mov	 edx, eax
$L213169:

; 391  : #if __VER >= 12 // __EXT_PIERCING
; 392  : 			arRead >> aLogItem.nPiercedSize;

  0048b	8d 4a 04	 lea	 ecx, DWORD PTR [edx+4]
  0048e	3b c8		 cmp	 ecx, eax
  00490	89 94 24 08 02
	00 00		 mov	 DWORD PTR _arRead$[esp+59256], edx
  00497	77 04		 ja	 SHORT $L212870
  00499	8b 32		 mov	 esi, DWORD PTR [edx]
  0049b	eb 04		 jmp	 SHORT $L213170
$L212870:
  0049d	33 f6		 xor	 esi, esi
  0049f	8b c8		 mov	 ecx, eax
$L213170:

; 393  : 			for( int i=0; i<aLogItem.nPiercedSize; i++ )

  004a1	33 d2		 xor	 edx, edx
  004a3	3b f7		 cmp	 esi, edi
  004a5	89 b4 24 a8 01
	00 00		 mov	 DWORD PTR _aLogItem$208409[esp+59360], esi
  004ac	89 8c 24 08 02
	00 00		 mov	 DWORD PTR _arRead$[esp+59256], ecx
  004b3	7e 30		 jle	 SHORT $L208413
$L208411:

; 394  : 				arRead >> aLogItem.adwItemId[i];

  004b5	8d 71 04	 lea	 esi, DWORD PTR [ecx+4]
  004b8	3b f0		 cmp	 esi, eax
  004ba	77 0d		 ja	 SHORT $L212882
  004bc	8b 09		 mov	 ecx, DWORD PTR [ecx]
  004be	89 8c 94 ac 01
	00 00		 mov	 DWORD PTR _aLogItem$208409[esp+edx*4+59364], ecx
  004c5	8b ce		 mov	 ecx, esi
  004c7	eb 09		 jmp	 SHORT $L213171
$L212882:
  004c9	89 bc 94 ac 01
	00 00		 mov	 DWORD PTR _aLogItem$208409[esp+edx*4+59364], edi
  004d0	8b c8		 mov	 ecx, eax
$L213171:
  004d2	8b b4 24 a8 01
	00 00		 mov	 esi, DWORD PTR _aLogItem$208409[esp+59360]
  004d9	42		 inc	 edx
  004da	3b d6		 cmp	 edx, esi
  004dc	89 8c 24 08 02
	00 00		 mov	 DWORD PTR _arRead$[esp+59256], ecx
  004e3	7c d0		 jl	 SHORT $L208411
$L208413:

; 395  : 			arRead >> aLogItem.nUMPiercedSize;

  004e5	8d 51 04	 lea	 edx, DWORD PTR [ecx+4]
  004e8	3b d0		 cmp	 edx, eax
  004ea	77 04		 ja	 SHORT $L212895
  004ec	8b 09		 mov	 ecx, DWORD PTR [ecx]
  004ee	eb 04		 jmp	 SHORT $L213172
$L212895:
  004f0	33 c9		 xor	 ecx, ecx
  004f2	8b d0		 mov	 edx, eax
$L213172:

; 396  : 			for( i=0; i<aLogItem.nUMPiercedSize; i++ )

  004f4	33 f6		 xor	 esi, esi
  004f6	3b cf		 cmp	 ecx, edi
  004f8	89 8c 24 d4 01
	00 00		 mov	 DWORD PTR _aLogItem$208409[esp+59404], ecx
  004ff	89 94 24 08 02
	00 00		 mov	 DWORD PTR _arRead$[esp+59256], edx
  00506	7e 30		 jle	 SHORT $L208416
$L208414:

; 397  : 				arRead >> aLogItem.adwUMItemId[i];

  00508	8d 4a 04	 lea	 ecx, DWORD PTR [edx+4]
  0050b	3b c8		 cmp	 ecx, eax
  0050d	77 0d		 ja	 SHORT $L212907
  0050f	8b 12		 mov	 edx, DWORD PTR [edx]
  00511	89 94 b4 d8 01
	00 00		 mov	 DWORD PTR _aLogItem$208409[esp+esi*4+59408], edx
  00518	8b d1		 mov	 edx, ecx
  0051a	eb 09		 jmp	 SHORT $L213173
$L212907:
  0051c	89 bc b4 d8 01
	00 00		 mov	 DWORD PTR _aLogItem$208409[esp+esi*4+59408], edi
  00523	8b d0		 mov	 edx, eax
$L213173:
  00525	8b 8c 24 d4 01
	00 00		 mov	 ecx, DWORD PTR _aLogItem$208409[esp+59404]
  0052c	46		 inc	 esi
  0052d	3b f1		 cmp	 esi, ecx
  0052f	89 94 24 08 02
	00 00		 mov	 DWORD PTR _arRead$[esp+59256], edx
  00536	7c d0		 jl	 SHORT $L208414
$L208416:

; 398  : #else // __EXT_PIERCING
; 399  : 			arRead >> aLogItem.nPiercedSize;
; 400  : 			arRead >> aLogItem.adwItemId0;
; 401  : 			arRead >> aLogItem.adwItemId1;
; 402  : 			arRead >> aLogItem.adwItemId2;
; 403  : 			arRead >> aLogItem.adwItemId3;
; 404  : #if __VER >= 9 // __ULTIMATE
; 405  : 			arRead >> aLogItem.adwItemId4;
; 406  : #endif // __ULTIMATE
; 407  : #endif // __EXT_PIERCING
; 408  : 
; 409  : #if __VER >= 11 // __SYS_IDENTIFY
; 410  : 			arRead >> aLogItem.m_iRandomOptItemId;

  00538	6a 08		 push	 8
  0053a	8d 84 24 a4 01
	00 00		 lea	 eax, DWORD PTR _aLogItem$208409[esp+59356]
  00541	50		 push	 eax
  00542	8d 8c 24 08 02
	00 00		 lea	 ecx, DWORD PTR _arRead$[esp+59256]
  00549	e8 00 00 00 00	 call	 ?Read@CAr@@QAEXPAXI@Z	; CAr::Read

; 411  : #else	// __SYS_IDENTIFY
; 412  : 			arRead >> aLogItem.m_nRandomOptItemId;
; 413  : #endif	// __SYS_IDENTIFY
; 414  : 
; 415  : #if __VER >= 9 // __PET_0410
; 416  : 			arRead >> aLogItem.nPetKind;

  0054e	8b b4 24 08 02
	00 00		 mov	 esi, DWORD PTR _arRead$[esp+59256]
  00555	8b 84 24 0c 02
	00 00		 mov	 eax, DWORD PTR _arRead$[esp+59260]
  0055c	8d 56 01	 lea	 edx, DWORD PTR [esi+1]
  0055f	3b d0		 cmp	 edx, eax
  00561	77 0b		 ja	 SHORT $L212916
  00563	8a 0e		 mov	 cl, BYTE PTR [esi]
  00565	88 8c 24 ec 01
	00 00		 mov	 BYTE PTR _aLogItem$208409[esp+59428], cl
  0056c	eb 0a		 jmp	 SHORT $L213174
$L212916:
  0056e	c6 84 24 ec 01
	00 00 00	 mov	 BYTE PTR _aLogItem$208409[esp+59428], 0
  00576	8b d0		 mov	 edx, eax
$L213174:

; 417  : 			arRead >> aLogItem.nPetLevel;

  00578	8d 4a 01	 lea	 ecx, DWORD PTR [edx+1]
  0057b	3b c8		 cmp	 ecx, eax
  0057d	89 94 24 08 02
	00 00		 mov	 DWORD PTR _arRead$[esp+59256], edx
  00584	77 0b		 ja	 SHORT $L212921
  00586	8a 12		 mov	 dl, BYTE PTR [edx]
  00588	88 94 24 ed 01
	00 00		 mov	 BYTE PTR _aLogItem$208409[esp+59429], dl
  0058f	eb 0a		 jmp	 SHORT $L213175
$L212921:
  00591	c6 84 24 ed 01
	00 00 00	 mov	 BYTE PTR _aLogItem$208409[esp+59429], 0
  00599	8b c8		 mov	 ecx, eax
$L213175:

; 418  : 			arRead >> aLogItem.dwPetExp;

  0059b	8d 51 04	 lea	 edx, DWORD PTR [ecx+4]
  0059e	3b d0		 cmp	 edx, eax
  005a0	89 8c 24 08 02
	00 00		 mov	 DWORD PTR _arRead$[esp+59256], ecx
  005a7	77 0b		 ja	 SHORT $L212926
  005a9	8b 09		 mov	 ecx, DWORD PTR [ecx]
  005ab	89 8c 24 f0 01
	00 00		 mov	 DWORD PTR _aLogItem$208409[esp+59432], ecx
  005b2	eb 09		 jmp	 SHORT $L213176
$L212926:
  005b4	89 bc 24 f0 01
	00 00		 mov	 DWORD PTR _aLogItem$208409[esp+59432], edi
  005bb	8b d0		 mov	 edx, eax
$L213176:

; 419  : 			arRead >> aLogItem.wPetEnergy;

  005bd	8d 4a 02	 lea	 ecx, DWORD PTR [edx+2]
  005c0	3b c8		 cmp	 ecx, eax
  005c2	89 94 24 08 02
	00 00		 mov	 DWORD PTR _arRead$[esp+59256], edx
  005c9	77 0d		 ja	 SHORT $L212931
  005cb	66 8b 12	 mov	 dx, WORD PTR [edx]
  005ce	66 89 94 24 f4
	01 00 00	 mov	 WORD PTR _aLogItem$208409[esp+59436], dx
  005d6	eb 0a		 jmp	 SHORT $L213177
$L212931:
  005d8	66 89 bc 24 f4
	01 00 00	 mov	 WORD PTR _aLogItem$208409[esp+59436], di
  005e0	8b c8		 mov	 ecx, eax
$L213177:

; 420  : 			arRead >> aLogItem.wPetLife;

  005e2	8d 51 02	 lea	 edx, DWORD PTR [ecx+2]
  005e5	3b d0		 cmp	 edx, eax
  005e7	89 8c 24 08 02
	00 00		 mov	 DWORD PTR _arRead$[esp+59256], ecx
  005ee	77 0d		 ja	 SHORT $L212936
  005f0	66 8b 09	 mov	 cx, WORD PTR [ecx]
  005f3	66 89 8c 24 f6
	01 00 00	 mov	 WORD PTR _aLogItem$208409[esp+59438], cx
  005fb	eb 0a		 jmp	 SHORT $L213178
$L212936:
  005fd	66 89 bc 24 f6
	01 00 00	 mov	 WORD PTR _aLogItem$208409[esp+59438], di
  00605	8b d0		 mov	 edx, eax
$L213178:

; 421  : 			arRead >> aLogItem.nPetAL_D;

  00607	8d 4a 01	 lea	 ecx, DWORD PTR [edx+1]
  0060a	3b c8		 cmp	 ecx, eax
  0060c	89 94 24 08 02
	00 00		 mov	 DWORD PTR _arRead$[esp+59256], edx
  00613	77 0b		 ja	 SHORT $L212941
  00615	8a 12		 mov	 dl, BYTE PTR [edx]
  00617	88 94 24 f8 01
	00 00		 mov	 BYTE PTR _aLogItem$208409[esp+59440], dl
  0061e	eb 0a		 jmp	 SHORT $L213179
$L212941:
  00620	c6 84 24 f8 01
	00 00 00	 mov	 BYTE PTR _aLogItem$208409[esp+59440], 0
  00628	8b c8		 mov	 ecx, eax
$L213179:

; 422  : 			arRead >> aLogItem.nPetAL_C;

  0062a	8d 51 01	 lea	 edx, DWORD PTR [ecx+1]
  0062d	3b d0		 cmp	 edx, eax
  0062f	89 8c 24 08 02
	00 00		 mov	 DWORD PTR _arRead$[esp+59256], ecx
  00636	77 0b		 ja	 SHORT $L212946
  00638	8a 09		 mov	 cl, BYTE PTR [ecx]
  0063a	88 8c 24 f9 01
	00 00		 mov	 BYTE PTR _aLogItem$208409[esp+59441], cl
  00641	eb 0a		 jmp	 SHORT $L213180
$L212946:
  00643	c6 84 24 f9 01
	00 00 00	 mov	 BYTE PTR _aLogItem$208409[esp+59441], 0
  0064b	8b d0		 mov	 edx, eax
$L213180:

; 423  : 			arRead >> aLogItem.nPetAL_B;

  0064d	8d 4a 01	 lea	 ecx, DWORD PTR [edx+1]
  00650	3b c8		 cmp	 ecx, eax
  00652	89 94 24 08 02
	00 00		 mov	 DWORD PTR _arRead$[esp+59256], edx
  00659	77 0b		 ja	 SHORT $L212951
  0065b	8a 12		 mov	 dl, BYTE PTR [edx]
  0065d	88 94 24 fa 01
	00 00		 mov	 BYTE PTR _aLogItem$208409[esp+59442], dl
  00664	eb 0a		 jmp	 SHORT $L213181
$L212951:
  00666	c6 84 24 fa 01
	00 00 00	 mov	 BYTE PTR _aLogItem$208409[esp+59442], 0
  0066e	8b c8		 mov	 ecx, eax
$L213181:

; 424  : 			arRead >> aLogItem.nPetAL_A;

  00670	8d 51 01	 lea	 edx, DWORD PTR [ecx+1]
  00673	3b d0		 cmp	 edx, eax
  00675	89 8c 24 08 02
	00 00		 mov	 DWORD PTR _arRead$[esp+59256], ecx
  0067c	77 0d		 ja	 SHORT $L212956
  0067e	8a 09		 mov	 cl, BYTE PTR [ecx]
  00680	88 8c 24 fb 01
	00 00		 mov	 BYTE PTR _aLogItem$208409[esp+59443], cl
  00687	8b ca		 mov	 ecx, edx
  00689	eb 0a		 jmp	 SHORT $L213182
$L212956:
  0068b	c6 84 24 fb 01
	00 00 00	 mov	 BYTE PTR _aLogItem$208409[esp+59443], 0
  00693	8b c8		 mov	 ecx, eax
$L213182:

; 425  : 			arRead >> aLogItem.nPetAL_S;

  00695	8d 51 01	 lea	 edx, DWORD PTR [ecx+1]
  00698	3b d0		 cmp	 edx, eax
  0069a	89 8c 24 08 02
	00 00		 mov	 DWORD PTR _arRead$[esp+59256], ecx
  006a1	77 12		 ja	 SHORT $L212961
  006a3	8a 01		 mov	 al, BYTE PTR [ecx]
  006a5	88 84 24 fc 01
	00 00		 mov	 BYTE PTR _aLogItem$208409[esp+59444], al
  006ac	89 94 24 08 02
	00 00		 mov	 DWORD PTR _arRead$[esp+59256], edx
  006b3	eb 0f		 jmp	 SHORT $L212962
$L212961:
  006b5	c6 84 24 fc 01
	00 00 00	 mov	 BYTE PTR _aLogItem$208409[esp+59444], 0
  006bd	89 84 24 08 02
	00 00		 mov	 DWORD PTR _arRead$[esp+59256], eax
$L212962:

; 426  : #endif // __PET_0410
; 427  : 			DBQryNewItemLog( szQuery, aLogItem );

  006c4	8b 74 24 4c	 mov	 esi, DWORD PTR $T213126[esp+59248]
  006c8	8d 8c 24 38 01
	00 00		 lea	 ecx, DWORD PTR _aLogItem$208409[esp+59248]
  006cf	51		 push	 ecx
  006d0	8d 94 24 5c 47
	00 00		 lea	 edx, DWORD PTR _szQuery$[esp+59252]
  006d7	52		 push	 edx
  006d8	8b ce		 mov	 ecx, esi
  006da	e8 00 00 00 00	 call	 ?DBQryNewItemLog@CDbManager@@QAEXPADABU_LogItemInfo@@@Z ; CDbManager::DBQryNewItemLog

; 428  : 
; 429  : 			if ( FALSE == qry->Exec( szQuery ) )

  006df	8b 4c 24 34	 mov	 ecx, DWORD PTR $T213127[esp+59248]
  006e3	8d 84 24 58 47
	00 00		 lea	 eax, DWORD PTR _szQuery$[esp+59248]
  006ea	50		 push	 eax
  006eb	e8 00 00 00 00	 call	 ?Exec@CQuery@@QAEHPBD@Z	; CQuery::Exec
  006f0	85 c0		 test	 eax, eax
  006f2	0f 85 8a 00 00
	00		 jne	 $L208417

; 430  : 			{
; 431  : 				WriteLog( "LogItem %s, %d\t%s, %s", __FILE__, __LINE__, lpszPlayer1, lpszPlayer2 );

  006f8	8d 8c 24 64 42
	00 00		 lea	 ecx, DWORD PTR _lpszPlayer2$[esp+59248]
  006ff	51		 push	 ecx
  00700	8d 94 24 44 42
	00 00		 lea	 edx, DWORD PTR _lpszPlayer1$[esp+59252]
  00707	52		 push	 edx
  00708	68 af 01 00 00	 push	 431			; 000001afH
  0070d	68 00 00 00 00	 push	 OFFSET FLAT:??_C@_0GH@LHPNFEPP@?2Documents?5and?5Settings?2test?2Mes@
  00712	68 00 00 00 00	 push	 OFFSET FLAT:??_C@_0BG@BLEGKHDP@LogItem?5?$CFs?0?5?$CFd?7?$CFs?0?5?$CFs?$AA@
  00717	e8 00 00 00 00	 call	 ?WriteLog@@YAXPBDZZ	; WriteLog

; 432  : 				if( strlen( szQuery ) < 4096 )

  0071c	8d 84 24 6c 47
	00 00		 lea	 eax, DWORD PTR _szQuery$[esp+59268]
  00723	83 c4 14	 add	 esp, 20			; 00000014H
  00726	8d 50 01	 lea	 edx, DWORD PTR [eax+1]
  00729	8d a4 24 00 00
	00 00		 npad	 7
$L213149:
  00730	8a 08		 mov	 cl, BYTE PTR [eax]
  00732	40		 inc	 eax
  00733	84 c9		 test	 cl, cl
  00735	75 f9		 jne	 SHORT $L213149
  00737	2b c2		 sub	 eax, edx
  00739	3d 00 10 00 00	 cmp	 eax, 4096		; 00001000H
  0073e	73 15		 jae	 SHORT $L208419

; 433  : 					WriteLog( " LogItem Qyery => %s", szQuery );

  00740	8d 84 24 58 47
	00 00		 lea	 eax, DWORD PTR _szQuery$[esp+59248]
  00747	50		 push	 eax
  00748	68 00 00 00 00	 push	 OFFSET FLAT:??_C@_0BF@KEJHODAO@?5LogItem?5Qyery?5?$DN?$DO?5?$CFs?$AA@
  0074d	e8 00 00 00 00	 call	 ?WriteLog@@YAXPBDZZ	; WriteLog
  00752	83 c4 08	 add	 esp, 8
$L208419:

; 434  : 				FreeRequest( lpDbOverlappedPlus );

  00755	8b 4c 24 50	 mov	 ecx, DWORD PTR $T213128[esp+59248]
  00759	51		 push	 ecx
  0075a	8b ce		 mov	 ecx, esi
  0075c	e8 00 00 00 00	 call	 ?FreeRequest@CDbManager@@QAEXPAUtagDB_OVERLAPPED_PLUS@@@Z ; CDbManager::FreeRequest

; 435  : 				return;

  00761	8b 44 24 20	 mov	 eax, DWORD PTR _strItem$208407[esp+59248]
  00765	83 c0 f0	 add	 eax, -16		; fffffff0H
  00768	c6 84 24 6c e7
	00 00 02	 mov	 BYTE PTR __$EHRec$[esp+59256], 2
  00770	8d 50 0c	 lea	 edx, DWORD PTR [eax+12]
  00773	83 c9 ff	 or	 ecx, -1
  00776	f0 0f c1 0a	 lock	  xadd	 DWORD PTR [edx], ecx
  0077a	49		 dec	 ecx
  0077b	85 c9		 test	 ecx, ecx
  0077d	e9 41 11 00 00	 jmp	 $L213240
$L208417:

; 436  : 			}
; 437  : 			break;

  00782	8b 44 24 20	 mov	 eax, DWORD PTR _strItem$208407[esp+59248]
  00786	83 c0 f0	 add	 eax, -16		; fffffff0H
  00789	c6 84 24 6c e7
	00 00 02	 mov	 BYTE PTR __$EHRec$[esp+59256], 2
  00791	8d 48 0c	 lea	 ecx, DWORD PTR [eax+12]
  00794	83 ca ff	 or	 edx, -1
  00797	f0 0f c1 11	 lock	  xadd	 DWORD PTR [ecx], edx
  0079b	4a		 dec	 edx
  0079c	85 d2		 test	 edx, edx
  0079e	7f 08		 jg	 SHORT $L208395
  007a0	8b 08		 mov	 ecx, DWORD PTR [eax]
  007a2	8b 11		 mov	 edx, DWORD PTR [ecx]
  007a4	50		 push	 eax
  007a5	ff 52 04	 call	 DWORD PTR [edx+4]
$L208395:

; 438  : 		}
; 439  : 	}
; 440  : 	FreeRequest( lpDbOverlappedPlus );

  007a8	8b 44 24 50	 mov	 eax, DWORD PTR $T213128[esp+59248]
  007ac	8b 4c 24 4c	 mov	 ecx, DWORD PTR $T213126[esp+59248]
  007b0	50		 push	 eax
$L213238:
  007b1	e8 00 00 00 00	 call	 ?FreeRequest@CDbManager@@QAEXPAUtagDB_OVERLAPPED_PLUS@@@Z ; CDbManager::FreeRequest

; 435  : 				return;

$L212989:

; 441  : }

  007b6	8b 44 24 30	 mov	 eax, DWORD PTR _strPlayer2$[esp+59248]
  007ba	83 c0 f0	 add	 eax, -16		; fffffff0H
  007bd	c6 84 24 6c e7
	00 00 01	 mov	 BYTE PTR __$EHRec$[esp+59256], 1
  007c5	8d 48 0c	 lea	 ecx, DWORD PTR [eax+12]
  007c8	83 ca ff	 or	 edx, -1
  007cb	f0 0f c1 11	 lock	  xadd	 DWORD PTR [ecx], edx
  007cf	4a		 dec	 edx
  007d0	85 d2		 test	 edx, edx
$L213186:
  007d2	7f 08		 jg	 SHORT $L213095
  007d4	8b 08		 mov	 ecx, DWORD PTR [eax]
  007d6	8b 11		 mov	 edx, DWORD PTR [ecx]
  007d8	50		 push	 eax
  007d9	ff 52 04	 call	 DWORD PTR [edx+4]
$L213095:
  007dc	8b 44 24 2c	 mov	 eax, DWORD PTR _strPlayer1$[esp+59248]
  007e0	83 c0 f0	 add	 eax, -16		; fffffff0H
  007e3	c6 84 24 6c e7
	00 00 00	 mov	 BYTE PTR __$EHRec$[esp+59256], 0
  007eb	8d 48 0c	 lea	 ecx, DWORD PTR [eax+12]
  007ee	83 ca ff	 or	 edx, -1
  007f1	f0 0f c1 11	 lock	  xadd	 DWORD PTR [ecx], edx
  007f5	4a		 dec	 edx
  007f6	85 d2		 test	 edx, edx
  007f8	7f 08		 jg	 SHORT $L213122
  007fa	8b 08		 mov	 ecx, DWORD PTR [eax]
  007fc	8b 11		 mov	 edx, DWORD PTR [ecx]
  007fe	50		 push	 eax
  007ff	ff 52 04	 call	 DWORD PTR [edx+4]
$L213122:
  00802	8d 8c 24 00 02
	00 00		 lea	 ecx, DWORD PTR _arRead$[esp+59248]
  00809	c7 84 24 6c e7
	00 00 ff ff ff
	ff		 mov	 DWORD PTR __$EHRec$[esp+59256], -1
  00814	e8 00 00 00 00	 call	 ??1CAr@@QAE@XZ		; CAr::~CAr
  00819	8b 8c 24 64 e7
	00 00		 mov	 ecx, DWORD PTR __$EHRec$[esp+59248]
  00820	64 89 0d 00 00
	00 00		 mov	 DWORD PTR fs:__except_list, ecx
  00827	8b 8c 24 5c e7
	00 00		 mov	 ecx, DWORD PTR __$ArrayPad$[esp+59248]
  0082e	5f		 pop	 edi
  0082f	5e		 pop	 esi
  00830	33 cd		 xor	 ecx, ebp
  00832	5b		 pop	 ebx
  00833	e8 00 00 00 00	 call	 @__security_check_cookie@4
  00838	8b e5		 mov	 esp, ebp
  0083a	5d		 pop	 ebp
  0083b	c2 08 00	 ret	 8
$L208330:

; 72   : 	{
; 73   : 	case 'T':
; 74   : 		{
; 75   : 			int nTradeID	= GetTradeNo();

  0083e	8b cb		 mov	 ecx, ebx
  00840	e8 00 00 00 00	 call	 ?GetTradeNo@CDbManager@@QAEHXZ ; CDbManager::GetTradeNo
  00845	8b d0		 mov	 edx, eax

; 76   : 			// 0. tblTradeLog.    . (TradeID, ,  )
; 77   : 			call_uspLoggingTrade( qry, 0, nTradeID, dwWorldID );

  00847	33 c0		 xor	 eax, eax
  00849	c6 84 24 58 43
	00 00 00	 mov	 BYTE PTR _pszQuery$211825[esp+59248], 0
  00851	b9 ff 00 00 00	 mov	 ecx, 255		; 000000ffH
  00856	8d bc 24 59 43
	00 00		 lea	 edi, DWORD PTR _pszQuery$211825[esp+59249]
  0085d	f3 ab		 rep stosd
  0085f	8b 0d 00 00 00
	00		 mov	 ecx, DWORD PTR ?g_appInfo@@3UAppInfo@@A
  00865	66 ab		 stosw
  00867	aa		 stosb
  00868	8b 44 24 40	 mov	 eax, DWORD PTR _dwWorldID$[esp+59248]
  0086c	50		 push	 eax
  0086d	51		 push	 ecx
  0086e	52		 push	 edx
  0086f	89 54 24 70	 mov	 DWORD PTR _nTradeID$208331[esp+59260], edx
  00873	8d 94 24 64 43
	00 00		 lea	 edx, DWORD PTR _pszQuery$211825[esp+59260]
  0087a	68 00 00 00 00	 push	 OFFSET FLAT:??_C@_0EL@JGHMGDLE@uspLoggingTrade?5?$EApFlag?$DN0?0?5?$EApTrad@
  0087f	52		 push	 edx
  00880	e8 00 00 00 00	 call	 _sprintf
  00885	8b 4c 24 48	 mov	 ecx, DWORD PTR $T213127[esp+59268]
  00889	83 c4 14	 add	 esp, 20			; 00000014H
  0088c	8d 84 24 58 43
	00 00		 lea	 eax, DWORD PTR _pszQuery$211825[esp+59248]
  00893	50		 push	 eax
  00894	e8 00 00 00 00	 call	 ?Exec@CQuery@@QAEHPBD@Z	; CQuery::Exec
  00899	85 c0		 test	 eax, eax
  0089b	75 1f		 jne	 SHORT $L211831
  0089d	8d 8c 24 58 43
	00 00		 lea	 ecx, DWORD PTR _pszQuery$211825[esp+59248]
  008a4	51		 push	 ecx
  008a5	68 5c 04 00 00	 push	 1116			; 0000045cH
  008aa	68 00 00 00 00	 push	 OFFSET FLAT:??_C@_0GH@LHPNFEPP@?2Documents?5and?5Settings?2test?2Mes@
  008af	68 00 00 00 00	 push	 OFFSET FLAT:??_C@_0L@EBJDFKBI@?$CFs?0?5?$CFd?3?7?$CFs?$AA@
  008b4	e8 00 00 00 00	 call	 ?WriteLog@@YAXPBDZZ	; WriteLog
  008b9	83 c4 10	 add	 esp, 16			; 00000010H
$L211831:

; 78   : 			arRead >> iReMainder1 >> iReMainder2;

  008bc	8b 8c 24 08 02
	00 00		 mov	 ecx, DWORD PTR _arRead$[esp+59256]
  008c3	8b 84 24 0c 02
	00 00		 mov	 eax, DWORD PTR _arRead$[esp+59260]
  008ca	8d 51 04	 lea	 edx, DWORD PTR [ecx+4]
  008cd	33 f6		 xor	 esi, esi
  008cf	3b d0		 cmp	 edx, eax
  008d1	77 08		 ja	 SHORT $L211844
  008d3	8b 09		 mov	 ecx, DWORD PTR [ecx]
  008d5	89 4c 24 58	 mov	 DWORD PTR _iReMainder1$[esp+59248], ecx
  008d9	eb 06		 jmp	 SHORT $L213187
$L211844:
  008db	89 74 24 58	 mov	 DWORD PTR _iReMainder1$[esp+59248], esi
  008df	8b d0		 mov	 edx, eax
$L213187:
  008e1	8d 4a 04	 lea	 ecx, DWORD PTR [edx+4]
  008e4	3b c8		 cmp	 ecx, eax
  008e6	89 94 24 08 02
	00 00		 mov	 DWORD PTR _arRead$[esp+59256], edx
  008ed	77 08		 ja	 SHORT $L211856
  008ef	8b 12		 mov	 edx, DWORD PTR [edx]
  008f1	89 54 24 20	 mov	 DWORD PTR _iReMainder2$[esp+59248], edx
  008f5	eb 06		 jmp	 SHORT $L213188
$L211856:
  008f7	89 74 24 20	 mov	 DWORD PTR _iReMainder2$[esp+59248], esi
  008fb	8b c8		 mov	 ecx, eax
$L213188:

; 79   : 			u_long idPlayer1, idPlayer2;
; 80   : 			int nLevel1, nLevel2, nJob1, nJob2;
; 81   : 			arRead >> idPlayer1 >> nLevel1 >> nJob1;

  008fd	8d 51 04	 lea	 edx, DWORD PTR [ecx+4]
  00900	3b d0		 cmp	 edx, eax
  00902	89 8c 24 08 02
	00 00		 mov	 DWORD PTR _arRead$[esp+59256], ecx
  00909	77 08		 ja	 SHORT $L211861
  0090b	8b 09		 mov	 ecx, DWORD PTR [ecx]
  0090d	89 4c 24 44	 mov	 DWORD PTR _idPlayer1$208332[esp+59248], ecx
  00911	eb 06		 jmp	 SHORT $L213189
$L211861:
  00913	89 74 24 44	 mov	 DWORD PTR _idPlayer1$208332[esp+59248], esi
  00917	8b d0		 mov	 edx, eax
$L213189:
  00919	8d 4a 04	 lea	 ecx, DWORD PTR [edx+4]
  0091c	3b c8		 cmp	 ecx, eax
  0091e	89 94 24 08 02
	00 00		 mov	 DWORD PTR _arRead$[esp+59256], edx
  00925	77 08		 ja	 SHORT $L211873
  00927	8b 12		 mov	 edx, DWORD PTR [edx]
  00929	89 54 24 0c	 mov	 DWORD PTR _nLevel1$208334[esp+59248], edx
  0092d	eb 06		 jmp	 SHORT $L213190
$L211873:
  0092f	89 74 24 0c	 mov	 DWORD PTR _nLevel1$208334[esp+59248], esi
  00933	8b c8		 mov	 ecx, eax
$L213190:
  00935	8d 51 04	 lea	 edx, DWORD PTR [ecx+4]
  00938	3b d0		 cmp	 edx, eax
  0093a	89 8c 24 08 02
	00 00		 mov	 DWORD PTR _arRead$[esp+59256], ecx
  00941	77 08		 ja	 SHORT $L211885
  00943	8b 09		 mov	 ecx, DWORD PTR [ecx]
  00945	89 4c 24 24	 mov	 DWORD PTR _nJob1$208336[esp+59248], ecx
  00949	eb 06		 jmp	 SHORT $L213191
$L211885:
  0094b	89 74 24 24	 mov	 DWORD PTR _nJob1$208336[esp+59248], esi
  0094f	8b d0		 mov	 edx, eax
$L213191:

; 82   : 			arRead >> idPlayer2 >> nLevel2 >> nJob2;

  00951	8d 4a 04	 lea	 ecx, DWORD PTR [edx+4]
  00954	3b c8		 cmp	 ecx, eax
  00956	89 94 24 08 02
	00 00		 mov	 DWORD PTR _arRead$[esp+59256], edx
  0095d	77 08		 ja	 SHORT $L211890
  0095f	8b 12		 mov	 edx, DWORD PTR [edx]
  00961	89 54 24 1c	 mov	 DWORD PTR _idPlayer2$208333[esp+59248], edx
  00965	eb 06		 jmp	 SHORT $L213192
$L211890:
  00967	89 74 24 1c	 mov	 DWORD PTR _idPlayer2$208333[esp+59248], esi
  0096b	8b c8		 mov	 ecx, eax
$L213192:
  0096d	8d 51 04	 lea	 edx, DWORD PTR [ecx+4]
  00970	3b d0		 cmp	 edx, eax
  00972	89 8c 24 08 02
	00 00		 mov	 DWORD PTR _arRead$[esp+59256], ecx
  00979	77 06		 ja	 SHORT $L211902
  0097b	8b 19		 mov	 ebx, DWORD PTR [ecx]
  0097d	8b ca		 mov	 ecx, edx
  0097f	eb 04		 jmp	 SHORT $L213193
$L211902:
  00981	33 db		 xor	 ebx, ebx
  00983	8b c8		 mov	 ecx, eax
$L213193:
  00985	8d 51 04	 lea	 edx, DWORD PTR [ecx+4]
  00988	3b d0		 cmp	 edx, eax
  0098a	89 8c 24 08 02
	00 00		 mov	 DWORD PTR _arRead$[esp+59256], ecx
  00991	77 0b		 ja	 SHORT $L211914
  00993	8b 31		 mov	 esi, DWORD PTR [ecx]
  00995	89 94 24 08 02
	00 00		 mov	 DWORD PTR _arRead$[esp+59256], edx
  0099c	eb 09		 jmp	 SHORT $L211915
$L211914:
  0099e	33 f6		 xor	 esi, esi
  009a0	89 84 24 08 02
	00 00		 mov	 DWORD PTR _arRead$[esp+59256], eax
$L211915:

; 83   : 			char lpAddr1[100]	= { 0, };

  009a7	33 c0		 xor	 eax, eax
  009a9	c6 84 24 f0 42
	00 00 00	 mov	 BYTE PTR _lpAddr1$208338[esp+59248], 0
  009b1	b9 18 00 00 00	 mov	 ecx, 24			; 00000018H
  009b6	8d bc 24 f1 42
	00 00		 lea	 edi, DWORD PTR _lpAddr1$208338[esp+59249]
  009bd	f3 ab		 rep stosd
  009bf	66 ab		 stosw
  009c1	aa		 stosb

; 84   : 			char lpAddr2[100]	= { 0, };

  009c2	33 c0		 xor	 eax, eax
  009c4	c6 84 24 88 42
	00 00 00	 mov	 BYTE PTR _lpAddr2$208339[esp+59248], 0
  009cc	b9 18 00 00 00	 mov	 ecx, 24			; 00000018H
  009d1	8d bc 24 89 42
	00 00		 lea	 edi, DWORD PTR _lpAddr2$208339[esp+59249]
  009d8	f3 ab		 rep stosd
  009da	66 ab		 stosw
  009dc	aa		 stosb

; 85   : 			arRead.ReadString( lpAddr1, 100 );

  009dd	6a 64		 push	 100			; 00000064H
  009df	8d 84 24 f4 42
	00 00		 lea	 eax, DWORD PTR _lpAddr1$208338[esp+59252]
  009e6	50		 push	 eax
  009e7	8d 8c 24 08 02
	00 00		 lea	 ecx, DWORD PTR _arRead$[esp+59256]
  009ee	e8 00 00 00 00	 call	 ?ReadString@CAr@@QAEPADPADH@Z ; CAr::ReadString

; 86   : 			arRead.ReadString( lpAddr2, 100 );

  009f3	6a 64		 push	 100			; 00000064H
  009f5	8d 8c 24 8c 42
	00 00		 lea	 ecx, DWORD PTR _lpAddr2$208339[esp+59252]
  009fc	51		 push	 ecx
  009fd	8d 8c 24 08 02
	00 00		 lea	 ecx, DWORD PTR _arRead$[esp+59256]
  00a04	e8 00 00 00 00	 call	 ?ReadString@CAr@@QAEPADPADH@Z ; CAr::ReadString

; 87   : 			// 1. tblTradeDetailLog.   . (idPlayer, IP )
; 88   : 			call_uspLoggingTrade( qry, 1, nTradeID, 0, idPlayer1, iSeed1, lpAddr1, nLevel1, nJob1 );

  00a09	8b 54 24 24	 mov	 edx, DWORD PTR _nJob1$208336[esp+59248]
  00a0d	33 c0		 xor	 eax, eax
  00a0f	c6 84 24 58 43
	00 00 00	 mov	 BYTE PTR _pszQuery$211920[esp+59248], 0
  00a17	b9 ff 00 00 00	 mov	 ecx, 255		; 000000ffH
  00a1c	8d bc 24 59 43
	00 00		 lea	 edi, DWORD PTR _pszQuery$211920[esp+59249]
  00a23	f3 ab		 rep stosd
  00a25	52		 push	 edx
  00a26	8b 54 24 58	 mov	 edx, DWORD PTR _iSeed1$[esp+59252]
  00a2a	66 ab		 stosw
  00a2c	aa		 stosb
  00a2d	8b 44 24 10	 mov	 eax, DWORD PTR _nLevel1$208334[esp+59252]
  00a31	50		 push	 eax
  00a32	8b 44 24 4c	 mov	 eax, DWORD PTR _idPlayer1$208332[esp+59256]
  00a36	8d 8c 24 f8 42
	00 00		 lea	 ecx, DWORD PTR _lpAddr1$208338[esp+59256]
  00a3d	51		 push	 ecx
  00a3e	8b 0d 00 00 00
	00		 mov	 ecx, DWORD PTR ?g_appInfo@@3UAppInfo@@A
  00a44	52		 push	 edx
  00a45	8b 54 24 74	 mov	 edx, DWORD PTR _nTradeID$208331[esp+59264]
  00a49	50		 push	 eax
  00a4a	6a 00		 push	 0
  00a4c	51		 push	 ecx
  00a4d	52		 push	 edx
  00a4e	8d 84 24 78 43
	00 00		 lea	 eax, DWORD PTR _pszQuery$211920[esp+59280]
  00a55	68 00 00 00 00	 push	 OFFSET FLAT:??_C@_0JF@NEPENEDF@uspLoggingTrade?5?$EApFlag?$DN1?0?5?$EApTrad@
  00a5a	50		 push	 eax
  00a5b	e8 00 00 00 00	 call	 _sprintf
  00a60	83 c4 28	 add	 esp, 40			; 00000028H
  00a63	8d 8c 24 58 43
	00 00		 lea	 ecx, DWORD PTR _pszQuery$211920[esp+59248]
  00a6a	51		 push	 ecx
  00a6b	8b 4c 24 38	 mov	 ecx, DWORD PTR $T213127[esp+59252]
  00a6f	e8 00 00 00 00	 call	 ?Exec@CQuery@@QAEHPBD@Z	; CQuery::Exec
  00a74	85 c0		 test	 eax, eax
  00a76	75 1f		 jne	 SHORT $L211926
  00a78	8d 94 24 58 43
	00 00		 lea	 edx, DWORD PTR _pszQuery$211920[esp+59248]
  00a7f	52		 push	 edx
  00a80	68 5c 04 00 00	 push	 1116			; 0000045cH
  00a85	68 00 00 00 00	 push	 OFFSET FLAT:??_C@_0GH@LHPNFEPP@?2Documents?5and?5Settings?2test?2Mes@
  00a8a	68 00 00 00 00	 push	 OFFSET FLAT:??_C@_0L@EBJDFKBI@?$CFs?0?5?$CFd?3?7?$CFs?$AA@
  00a8f	e8 00 00 00 00	 call	 ?WriteLog@@YAXPBDZZ	; WriteLog
  00a94	83 c4 10	 add	 esp, 16			; 00000010H
$L211926:

; 89   : 			call_uspLoggingTrade( qry, 1, nTradeID, 0, idPlayer2, iSeed2, lpAddr2, nLevel2, nJob2 );

  00a97	8b 54 24 1c	 mov	 edx, DWORD PTR _idPlayer2$208333[esp+59248]
  00a9b	33 c0		 xor	 eax, eax
  00a9d	c6 84 24 58 43
	00 00 00	 mov	 BYTE PTR _pszQuery$211936[esp+59248], 0
  00aa5	b9 ff 00 00 00	 mov	 ecx, 255		; 000000ffH
  00aaa	8d bc 24 59 43
	00 00		 lea	 edi, DWORD PTR _pszQuery$211936[esp+59249]
  00ab1	f3 ab		 rep stosd
  00ab3	8b 4c 24 3c	 mov	 ecx, DWORD PTR _iSeed2$[esp+59248]
  00ab7	56		 push	 esi
  00ab8	66 ab		 stosw
  00aba	53		 push	 ebx
  00abb	aa		 stosb
  00abc	8d 84 24 90 42
	00 00		 lea	 eax, DWORD PTR _lpAddr2$208339[esp+59256]
  00ac3	50		 push	 eax
  00ac4	a1 00 00 00 00	 mov	 eax, DWORD PTR ?g_appInfo@@3UAppInfo@@A
  00ac9	51		 push	 ecx
  00aca	8b 4c 24 74	 mov	 ecx, DWORD PTR _nTradeID$208331[esp+59264]
  00ace	52		 push	 edx
  00acf	6a 00		 push	 0
  00ad1	50		 push	 eax
  00ad2	51		 push	 ecx
  00ad3	8d 94 24 78 43
	00 00		 lea	 edx, DWORD PTR _pszQuery$211936[esp+59280]
  00ada	68 00 00 00 00	 push	 OFFSET FLAT:??_C@_0JF@NEPENEDF@uspLoggingTrade?5?$EApFlag?$DN1?0?5?$EApTrad@
  00adf	52		 push	 edx
  00ae0	e8 00 00 00 00	 call	 _sprintf
  00ae5	8b 4c 24 5c	 mov	 ecx, DWORD PTR $T213127[esp+59288]
  00ae9	83 c4 28	 add	 esp, 40			; 00000028H
  00aec	8d 84 24 58 43
	00 00		 lea	 eax, DWORD PTR _pszQuery$211936[esp+59248]
  00af3	50		 push	 eax
  00af4	e8 00 00 00 00	 call	 ?Exec@CQuery@@QAEHPBD@Z	; CQuery::Exec
  00af9	85 c0		 test	 eax, eax
  00afb	75 1f		 jne	 SHORT $L211942
  00afd	8d 8c 24 58 43
	00 00		 lea	 ecx, DWORD PTR _pszQuery$211936[esp+59248]
  00b04	51		 push	 ecx
  00b05	68 5c 04 00 00	 push	 1116			; 0000045cH
  00b0a	68 00 00 00 00	 push	 OFFSET FLAT:??_C@_0GH@LHPNFEPP@?2Documents?5and?5Settings?2test?2Mes@
  00b0f	68 00 00 00 00	 push	 OFFSET FLAT:??_C@_0L@EBJDFKBI@?$CFs?0?5?$CFd?3?7?$CFs?$AA@
  00b14	e8 00 00 00 00	 call	 ?WriteLog@@YAXPBDZZ	; WriteLog
  00b19	83 c4 10	 add	 esp, 16			; 00000010H
$L211942:

; 90   : 			u_long uSize1, uSize2;
; 91   : 			arRead >> uSize1 >> uSize2;

  00b1c	8b 94 24 08 02
	00 00		 mov	 edx, DWORD PTR _arRead$[esp+59256]
  00b23	8b 84 24 0c 02
	00 00		 mov	 eax, DWORD PTR _arRead$[esp+59260]
  00b2a	8d 4a 04	 lea	 ecx, DWORD PTR [edx+4]
  00b2d	3b c8		 cmp	 ecx, eax
  00b2f	77 08		 ja	 SHORT $L211951
  00b31	8b 12		 mov	 edx, DWORD PTR [edx]
  00b33	89 54 24 0c	 mov	 DWORD PTR _uSize1$208340[esp+59248], edx
  00b37	eb 0a		 jmp	 SHORT $L213194
$L211951:
  00b39	c7 44 24 0c 00
	00 00 00	 mov	 DWORD PTR _uSize1$208340[esp+59248], 0
  00b41	8b c8		 mov	 ecx, eax
$L213194:
  00b43	8d 51 04	 lea	 edx, DWORD PTR [ecx+4]
  00b46	3b d0		 cmp	 edx, eax
  00b48	89 8c 24 08 02
	00 00		 mov	 DWORD PTR _arRead$[esp+59256], ecx
  00b4f	77 08		 ja	 SHORT $L211956
  00b51	8b 09		 mov	 ecx, DWORD PTR [ecx]
  00b53	89 4c 24 24	 mov	 DWORD PTR _uSize2$208341[esp+59248], ecx
  00b57	eb 0a		 jmp	 SHORT $L213195
$L211956:
  00b59	c7 44 24 24 00
	00 00 00	 mov	 DWORD PTR _uSize2$208341[esp+59248], 0
  00b61	8b d0		 mov	 edx, eax
$L213195:

; 92   : 			for( DWORD i = 0; i < uSize1; i++ )

  00b63	8b 4c 24 0c	 mov	 ecx, DWORD PTR _uSize1$208340[esp+59248]
  00b67	85 c9		 test	 ecx, ecx
  00b69	89 94 24 08 02
	00 00		 mov	 DWORD PTR _arRead$[esp+59256], edx
  00b70	c7 44 24 60 00
	00 00 00	 mov	 DWORD PTR _i$208342[esp+59248], 0
  00b78	0f 86 ec 05 00
	00		 jbe	 $L208345
  00b7e	8b 4c 24 58	 mov	 ecx, DWORD PTR _iReMainder1$[esp+59248]
  00b82	8b 74 24 54	 mov	 esi, DWORD PTR _iSeed1$[esp+59248]
  00b86	03 ce		 add	 ecx, esi
  00b88	89 4c 24 68	 mov	 DWORD PTR tv2258[esp+59248], ecx
  00b8c	8d 64 24 00	 npad	 4
$L208343:

; 93   : 			{
; 94   : 				memset( lpszItemText, 0, sizeof( lpszItemText ) );

  00b90	33 c9		 xor	 ecx, ecx
  00b92	89 8c 24 1c 42
	00 00		 mov	 DWORD PTR _lpszItemText$[esp+59248], ecx
  00b99	89 8c 24 20 42
	00 00		 mov	 DWORD PTR _lpszItemText$[esp+59252], ecx
  00ba0	89 8c 24 24 42
	00 00		 mov	 DWORD PTR _lpszItemText$[esp+59256], ecx
  00ba7	89 8c 24 28 42
	00 00		 mov	 DWORD PTR _lpszItemText$[esp+59260], ecx
  00bae	89 8c 24 2c 42
	00 00		 mov	 DWORD PTR _lpszItemText$[esp+59264], ecx
  00bb5	89 8c 24 30 42
	00 00		 mov	 DWORD PTR _lpszItemText$[esp+59268], ecx
  00bbc	89 8c 24 34 42
	00 00		 mov	 DWORD PTR _lpszItemText$[esp+59272], ecx
  00bc3	89 8c 24 38 42
	00 00		 mov	 DWORD PTR _lpszItemText$[esp+59276], ecx
  00bca	89 8c 24 3c 42
	00 00		 mov	 DWORD PTR _lpszItemText$[esp+59280], ecx

; 95   : 				SERIALNUMBER iSerialNumber;
; 96   : 				short nItemNum = 0;
; 97   : 				int	  nAbilityOption = 0;
; 98   : 				int	  nItemResist = 0;
; 99   : 				int	  nResistAbilityOption = 0;
; 100  : 				int   nNegudo = 0;
; 101  : 				int	  nMaxNegudo = 0;
; 102  : 				DWORD dwItemId	= 0;
; 103  : 				arRead >> dwItemId;

  00bd1	8d 4a 04	 lea	 ecx, DWORD PTR [edx+4]
  00bd4	33 ff		 xor	 edi, edi
  00bd6	3b c8		 cmp	 ecx, eax
  00bd8	77 08		 ja	 SHORT $L211961
  00bda	8b 12		 mov	 edx, DWORD PTR [edx]
  00bdc	89 54 24 5c	 mov	 DWORD PTR _dwItemId$208353[esp+59248], edx
  00be0	eb 06		 jmp	 SHORT $L213196
$L211961:
  00be2	89 7c 24 5c	 mov	 DWORD PTR _dwItemId$208353[esp+59248], edi
  00be6	8b c8		 mov	 ecx, eax
$L213196:

; 104  : 				arRead >> iSerialNumber;

  00be8	8d 51 04	 lea	 edx, DWORD PTR [ecx+4]
  00beb	3b d0		 cmp	 edx, eax
  00bed	89 8c 24 08 02
	00 00		 mov	 DWORD PTR _arRead$[esp+59256], ecx
  00bf4	77 0f		 ja	 SHORT $L211966
  00bf6	8b 01		 mov	 eax, DWORD PTR [ecx]
  00bf8	89 44 24 18	 mov	 DWORD PTR _iSerialNumber$208346[esp+59248], eax
  00bfc	89 94 24 08 02
	00 00		 mov	 DWORD PTR _arRead$[esp+59256], edx
  00c03	eb 0b		 jmp	 SHORT $L211967
$L211966:
  00c05	89 7c 24 18	 mov	 DWORD PTR _iSerialNumber$208346[esp+59248], edi
  00c09	89 84 24 08 02
	00 00		 mov	 DWORD PTR _arRead$[esp+59256], eax
$L211967:

; 105  : 				arRead.ReadString( lpszItemText, 36 );

  00c10	6a 24		 push	 36			; 00000024H
  00c12	8d 8c 24 20 42
	00 00		 lea	 ecx, DWORD PTR _lpszItemText$[esp+59252]
  00c19	51		 push	 ecx
  00c1a	8d 8c 24 08 02
	00 00		 lea	 ecx, DWORD PTR _arRead$[esp+59256]
  00c21	e8 00 00 00 00	 call	 ?ReadString@CAr@@QAEPADPADH@Z ; CAr::ReadString

; 106  : 				CString strItem	= lpszItemText;

  00c26	8d 94 24 1c 42
	00 00		 lea	 edx, DWORD PTR _lpszItemText$[esp+59248]
  00c2d	52		 push	 edx
  00c2e	8d 4c 24 2c	 lea	 ecx, DWORD PTR _strItem$208354[esp+59252]
  00c32	e8 00 00 00 00	 call	 ??0?$CStringT@DV?$StrTraitMFC@DV?$ChTraitsCRT@D@ATL@@@@@ATL@@QAE@PBD@Z ; ATL::CStringT<char,StrTraitMFC<char,ATL::ChTraitsCRT<char> > >::CStringT<char,StrTraitMFC<char,ATL::ChTraitsCRT<char> > >

; 107  : 				strItem.Replace( '\'', ' ' );

  00c37	6a 20		 push	 32			; 00000020H
  00c39	6a 27		 push	 39			; 00000027H
  00c3b	8d 4c 24 30	 lea	 ecx, DWORD PTR _strItem$208354[esp+59256]
  00c3f	c6 84 24 74 e7
	00 00 03	 mov	 BYTE PTR __$EHRec$[esp+59264], 3
  00c47	e8 00 00 00 00	 call	 ?Replace@?$CStringT@DV?$StrTraitMFC@DV?$ChTraitsCRT@D@ATL@@@@@ATL@@QAEHDD@Z ; ATL::CStringT<char,StrTraitMFC<char,ATL::ChTraitsCRT<char> > >::Replace

; 108  : 				lstrcpy( lpszItemText, (LPCSTR)strItem );

  00c4c	8b 44 24 28	 mov	 eax, DWORD PTR _strItem$208354[esp+59248]
  00c50	50		 push	 eax
  00c51	8d 8c 24 20 42
	00 00		 lea	 ecx, DWORD PTR _lpszItemText$[esp+59252]
  00c58	51		 push	 ecx
  00c59	ff 15 00 00 00
	00		 call	 DWORD PTR __imp__lstrcpyA@8

; 109  : 				arRead >> nItemNum;

  00c5f	8b 94 24 08 02
	00 00		 mov	 edx, DWORD PTR _arRead$[esp+59256]
  00c66	8b 84 24 0c 02
	00 00		 mov	 eax, DWORD PTR _arRead$[esp+59260]
  00c6d	8d 4a 02	 lea	 ecx, DWORD PTR [edx+2]
  00c70	3b c8		 cmp	 ecx, eax
  00c72	77 05		 ja	 SHORT $L211981
  00c74	66 8b 1a	 mov	 bx, WORD PTR [edx]
  00c77	eb 04		 jmp	 SHORT $L213197
$L211981:
  00c79	33 db		 xor	 ebx, ebx
  00c7b	8b c8		 mov	 ecx, eax
$L213197:

; 110  : 				arRead >> nAbilityOption;

  00c7d	8d 51 04	 lea	 edx, DWORD PTR [ecx+4]
  00c80	3b d0		 cmp	 edx, eax
  00c82	89 8c 24 08 02
	00 00		 mov	 DWORD PTR _arRead$[esp+59256], ecx
  00c89	77 0a		 ja	 SHORT $L211994
  00c8b	8b 09		 mov	 ecx, DWORD PTR [ecx]
  00c8d	89 4c 24 14	 mov	 DWORD PTR _nAbilityOption$208348[esp+59248], ecx
  00c91	8b ca		 mov	 ecx, edx
  00c93	eb 06		 jmp	 SHORT $L213198
$L211994:
  00c95	89 7c 24 14	 mov	 DWORD PTR _nAbilityOption$208348[esp+59248], edi
  00c99	8b c8		 mov	 ecx, eax
$L213198:

; 111  : 				arRead >> nItemResist;

  00c9b	8d 51 04	 lea	 edx, DWORD PTR [ecx+4]
  00c9e	3b d0		 cmp	 edx, eax
  00ca0	89 8c 24 08 02
	00 00		 mov	 DWORD PTR _arRead$[esp+59256], ecx
  00ca7	77 08		 ja	 SHORT $L212006
  00ca9	8b 09		 mov	 ecx, DWORD PTR [ecx]
  00cab	89 4c 24 48	 mov	 DWORD PTR _nItemResist$208349[esp+59248], ecx
  00caf	eb 06		 jmp	 SHORT $L213199
$L212006:
  00cb1	89 7c 24 48	 mov	 DWORD PTR _nItemResist$208349[esp+59248], edi
  00cb5	8b d0		 mov	 edx, eax
$L213199:

; 112  : 				arRead >> nResistAbilityOption;

  00cb7	8d 4a 04	 lea	 ecx, DWORD PTR [edx+4]
  00cba	3b c8		 cmp	 ecx, eax
  00cbc	89 94 24 08 02
	00 00		 mov	 DWORD PTR _arRead$[esp+59256], edx
  00cc3	77 08		 ja	 SHORT $L212018
  00cc5	8b 12		 mov	 edx, DWORD PTR [edx]
  00cc7	89 54 24 6c	 mov	 DWORD PTR _nResistAbilityOption$208350[esp+59248], edx
  00ccb	eb 06		 jmp	 SHORT $L213200
$L212018:
  00ccd	89 7c 24 6c	 mov	 DWORD PTR _nResistAbilityOption$208350[esp+59248], edi
  00cd1	8b c8		 mov	 ecx, eax
$L213200:

; 113  : 				arRead >> nNegudo;

  00cd3	8d 51 04	 lea	 edx, DWORD PTR [ecx+4]
  00cd6	3b d0		 cmp	 edx, eax
  00cd8	89 8c 24 08 02
	00 00		 mov	 DWORD PTR _arRead$[esp+59256], ecx
  00cdf	77 06		 ja	 SHORT $L212030
  00ce1	8b 39		 mov	 edi, DWORD PTR [ecx]
  00ce3	8b ca		 mov	 ecx, edx
  00ce5	eb 02		 jmp	 SHORT $L213201
$L212030:
  00ce7	8b c8		 mov	 ecx, eax
$L213201:

; 114  : 				arRead >> nMaxNegudo;

  00ce9	8d 51 04	 lea	 edx, DWORD PTR [ecx+4]
  00cec	3b d0		 cmp	 edx, eax
  00cee	89 8c 24 08 02
	00 00		 mov	 DWORD PTR _arRead$[esp+59256], ecx
  00cf5	77 0b		 ja	 SHORT $L212042
  00cf7	8b 31		 mov	 esi, DWORD PTR [ecx]
  00cf9	89 94 24 08 02
	00 00		 mov	 DWORD PTR _arRead$[esp+59256], edx
  00d00	eb 09		 jmp	 SHORT $L212043
$L212042:
  00d02	33 f6		 xor	 esi, esi
  00d04	89 84 24 08 02
	00 00		 mov	 DWORD PTR _arRead$[esp+59256], eax
$L212043:

; 115  : 
; 116  : 				LogItemInfo aLogItem;

  00d0b	8d 4c 24 70	 lea	 ecx, DWORD PTR _aLogItem$208356[esp+59248]
  00d0f	e8 00 00 00 00	 call	 ??0_LogItemInfo@@QAE@XZ	; _LogItemInfo::_LogItemInfo

; 117  : 				::memset( &(aLogItem), 0, sizeof( &(aLogItem) ) );
; 118  : 				aLogItem.SendName = lpszPlayer1;
; 119  : 				aLogItem.RecvName = lpszPlayer2;
; 120  : 				aLogItem.WorldId = dwWorldID;

  00d14	8b 54 24 40	 mov	 edx, DWORD PTR _dwWorldID$[esp+59248]
  00d18	8d 84 24 40 42
	00 00		 lea	 eax, DWORD PTR _lpszPlayer1$[esp+59248]
  00d1f	8d 8c 24 64 42
	00 00		 lea	 ecx, DWORD PTR _lpszPlayer2$[esp+59248]
  00d26	89 44 24 74	 mov	 DWORD PTR _aLogItem$208356[esp+59252], eax

; 121  : 				aLogItem.Gold = iReMainder1 + iSeed1;

  00d2a	8b 44 24 68	 mov	 eax, DWORD PTR tv2258[esp+59248]
  00d2e	89 4c 24 78	 mov	 DWORD PTR _aLogItem$208356[esp+59256], ecx

; 122  : 				aLogItem.Gold2 = iReMainder1 + iSeed1;
; 123  : 				aLogItem.ItemNo = iSerialNumber;
; 124  : 				//aLogItem.ItemName = lpszItemText;
; 125  : 				_tcsncpy( aLogItem.szItemName, lpszItemText, 30 );

  00d32	6a 1e		 push	 30			; 0000001eH
  00d34	8d 8c 24 20 42
	00 00		 lea	 ecx, DWORD PTR _lpszItemText$[esp+59252]
  00d3b	89 94 24 80 00
	00 00		 mov	 DWORD PTR _aLogItem$208356[esp+59264], edx
  00d42	89 84 24 84 00
	00 00		 mov	 DWORD PTR _aLogItem$208356[esp+59268], eax
  00d49	89 84 24 88 00
	00 00		 mov	 DWORD PTR _aLogItem$208356[esp+59272], eax
  00d50	8b 44 24 1c	 mov	 eax, DWORD PTR _iSerialNumber$208346[esp+59252]
  00d54	51		 push	 ecx
  00d55	8d 94 24 9c 00
	00 00		 lea	 edx, DWORD PTR _aLogItem$208356[esp+59292]
  00d5c	52		 push	 edx
  00d5d	c7 44 24 7c 00
	00 00 00	 mov	 DWORD PTR _aLogItem$208356[esp+59260], 0
  00d65	89 84 24 94 00
	00 00		 mov	 DWORD PTR _aLogItem$208356[esp+59284], eax
  00d6c	e8 00 00 00 00	 call	 __mbsnbcpy

; 126  : 
; 127  : 				aLogItem.itemNumber = nItemNum;
; 128  : 				aLogItem.nAbilityOption = nAbilityOption;

  00d71	8b 44 24 20	 mov	 eax, DWORD PTR _nAbilityOption$208348[esp+59260]

; 129  : 				aLogItem.nItemResist = nItemResist;

  00d75	8b 4c 24 54	 mov	 ecx, DWORD PTR _nItemResist$208349[esp+59260]

; 130  : 				aLogItem.nResistAbilityOption = nResistAbilityOption;

  00d79	8b 54 24 78	 mov	 edx, DWORD PTR _nResistAbilityOption$208350[esp+59260]
  00d7d	89 84 24 c4 00
	00 00		 mov	 DWORD PTR _aLogItem$208356[esp+59332], eax

; 131  : 				aLogItem.Negudo = nNegudo;
; 132  : 				aLogItem.MaxNegudo = nMaxNegudo;
; 133  : 				aLogItem.Gold_1 = iReMainder2;

  00d84	8b 44 24 2c	 mov	 eax, DWORD PTR _iReMainder2$[esp+59260]
  00d88	89 8c 24 d4 00
	00 00		 mov	 DWORD PTR _aLogItem$208356[esp+59348], ecx

; 134  : 				aLogItem.Action = chAction;

  00d8f	8d 4c 24 1c	 lea	 ecx, DWORD PTR _chAction$[esp+59260]
  00d93	89 94 24 d8 00
	00 00		 mov	 DWORD PTR _aLogItem$208356[esp+59352], edx

; 135  : 
; 136  : 				arRead >> aLogItem.m_bCharged;

  00d9a	8b 94 24 14 02
	00 00		 mov	 edx, DWORD PTR _arRead$[esp+59268]
  00da1	0f bf db	 movsx	 ebx, bx
  00da4	89 84 24 c8 00
	00 00		 mov	 DWORD PTR _aLogItem$208356[esp+59336], eax
  00dab	8b 84 24 18 02
	00 00		 mov	 eax, DWORD PTR _arRead$[esp+59272]
  00db2	89 4c 24 7c	 mov	 DWORD PTR _aLogItem$208356[esp+59260], ecx
  00db6	8d 4a 04	 lea	 ecx, DWORD PTR [edx+4]
  00db9	83 c4 0c	 add	 esp, 12			; 0000000cH
  00dbc	3b c8		 cmp	 ecx, eax
  00dbe	89 9c 24 b4 00
	00 00		 mov	 DWORD PTR _aLogItem$208356[esp+59316], ebx
  00dc5	89 bc 24 8c 00
	00 00		 mov	 DWORD PTR _aLogItem$208356[esp+59276], edi
  00dcc	89 b4 24 90 00
	00 00		 mov	 DWORD PTR _aLogItem$208356[esp+59280], esi
  00dd3	77 0b		 ja	 SHORT $L212057
  00dd5	8b 12		 mov	 edx, DWORD PTR [edx]
  00dd7	89 94 24 d0 00
	00 00		 mov	 DWORD PTR _aLogItem$208356[esp+59344], edx
  00dde	eb 0d		 jmp	 SHORT $L213202
$L212057:
  00de0	c7 84 24 d0 00
	00 00 00 00 00
	00		 mov	 DWORD PTR _aLogItem$208356[esp+59344], 0
  00deb	8b c8		 mov	 ecx, eax
$L213202:

; 137  : 				arRead >> aLogItem.m_dwKeepTime;

  00ded	8d 51 04	 lea	 edx, DWORD PTR [ecx+4]
  00df0	33 ff		 xor	 edi, edi
  00df2	3b d0		 cmp	 edx, eax
  00df4	89 8c 24 08 02
	00 00		 mov	 DWORD PTR _arRead$[esp+59256], ecx
  00dfb	77 0b		 ja	 SHORT $L212061
  00dfd	8b 09		 mov	 ecx, DWORD PTR [ecx]
  00dff	89 8c 24 d4 00
	00 00		 mov	 DWORD PTR _aLogItem$208356[esp+59348], ecx
  00e06	eb 09		 jmp	 SHORT $L213203
$L212061:
  00e08	89 bc 24 d4 00
	00 00		 mov	 DWORD PTR _aLogItem$208356[esp+59348], edi
  00e0f	8b d0		 mov	 edx, eax
$L213203:

; 138  : #if __VER >= 12 // __EXT_PIERCING
; 139  : 				arRead >> aLogItem.nPiercedSize;

  00e11	8d 4a 04	 lea	 ecx, DWORD PTR [edx+4]
  00e14	3b c8		 cmp	 ecx, eax
  00e16	89 94 24 08 02
	00 00		 mov	 DWORD PTR _arRead$[esp+59256], edx
  00e1d	77 04		 ja	 SHORT $L212073
  00e1f	8b 32		 mov	 esi, DWORD PTR [edx]
  00e21	eb 04		 jmp	 SHORT $L213204
$L212073:
  00e23	33 f6		 xor	 esi, esi
  00e25	8b c8		 mov	 ecx, eax
$L213204:

; 140  : 				
; 141  : 				int	k = 0;
; 142  : 				
; 143  : 				for( k=0; k<aLogItem.nPiercedSize; k++ )

  00e27	33 d2		 xor	 edx, edx
  00e29	3b f7		 cmp	 esi, edi
  00e2b	89 b4 24 e0 00
	00 00		 mov	 DWORD PTR _aLogItem$208356[esp+59360], esi
  00e32	89 8c 24 08 02
	00 00		 mov	 DWORD PTR _arRead$[esp+59256], ecx
  00e39	7e 35		 jle	 SHORT $L208360
  00e3b	eb 03 8d 49 00	 npad	 5
$L208358:

; 144  : 					arRead >> aLogItem.adwItemId[k];

  00e40	8d 71 04	 lea	 esi, DWORD PTR [ecx+4]
  00e43	3b f0		 cmp	 esi, eax
  00e45	77 0d		 ja	 SHORT $L212085
  00e47	8b 09		 mov	 ecx, DWORD PTR [ecx]
  00e49	89 8c 94 e4 00
	00 00		 mov	 DWORD PTR _aLogItem$208356[esp+edx*4+59364], ecx
  00e50	8b ce		 mov	 ecx, esi
  00e52	eb 09		 jmp	 SHORT $L213205
$L212085:
  00e54	89 bc 94 e4 00
	00 00		 mov	 DWORD PTR _aLogItem$208356[esp+edx*4+59364], edi
  00e5b	8b c8		 mov	 ecx, eax
$L213205:
  00e5d	8b b4 24 e0 00
	00 00		 mov	 esi, DWORD PTR _aLogItem$208356[esp+59360]
  00e64	42		 inc	 edx
  00e65	3b d6		 cmp	 edx, esi
  00e67	89 8c 24 08 02
	00 00		 mov	 DWORD PTR _arRead$[esp+59256], ecx
  00e6e	7c d0		 jl	 SHORT $L208358
$L208360:

; 145  : 				arRead >> aLogItem.nUMPiercedSize;

  00e70	8d 51 04	 lea	 edx, DWORD PTR [ecx+4]
  00e73	3b d0		 cmp	 edx, eax
  00e75	77 04		 ja	 SHORT $L212098
  00e77	8b 09		 mov	 ecx, DWORD PTR [ecx]
  00e79	eb 04		 jmp	 SHORT $L213206
$L212098:
  00e7b	33 c9		 xor	 ecx, ecx
  00e7d	8b d0		 mov	 edx, eax
$L213206:

; 146  : 				for( k=0; k<aLogItem.nUMPiercedSize; k++ )

  00e7f	33 f6		 xor	 esi, esi
  00e81	3b cf		 cmp	 ecx, edi
  00e83	89 8c 24 0c 01
	00 00		 mov	 DWORD PTR _aLogItem$208356[esp+59404], ecx
  00e8a	89 94 24 08 02
	00 00		 mov	 DWORD PTR _arRead$[esp+59256], edx
  00e91	7e 30		 jle	 SHORT $L208363
$L208361:

; 147  : 					arRead >> aLogItem.adwUMItemId[k];

  00e93	8d 4a 04	 lea	 ecx, DWORD PTR [edx+4]
  00e96	3b c8		 cmp	 ecx, eax
  00e98	77 0d		 ja	 SHORT $L212110
  00e9a	8b 12		 mov	 edx, DWORD PTR [edx]
  00e9c	89 94 b4 10 01
	00 00		 mov	 DWORD PTR _aLogItem$208356[esp+esi*4+59408], edx
  00ea3	8b d1		 mov	 edx, ecx
  00ea5	eb 09		 jmp	 SHORT $L213207
$L212110:
  00ea7	89 bc b4 10 01
	00 00		 mov	 DWORD PTR _aLogItem$208356[esp+esi*4+59408], edi
  00eae	8b d0		 mov	 edx, eax
$L213207:
  00eb0	8b 8c 24 0c 01
	00 00		 mov	 ecx, DWORD PTR _aLogItem$208356[esp+59404]
  00eb7	46		 inc	 esi
  00eb8	3b f1		 cmp	 esi, ecx
  00eba	89 94 24 08 02
	00 00		 mov	 DWORD PTR _arRead$[esp+59256], edx
  00ec1	7c d0		 jl	 SHORT $L208361
$L208363:

; 148  : #else // __EXT_PIERCING
; 149  : 				arRead >> aLogItem.nPiercedSize;
; 150  : 				arRead >> aLogItem.adwItemId0;
; 151  : 				arRead >> aLogItem.adwItemId1;
; 152  : 				arRead >> aLogItem.adwItemId2;
; 153  : 				arRead >> aLogItem.adwItemId3;
; 154  : #if __VER >= 9 // __ULTIMATE
; 155  : 				arRead >> aLogItem.adwItemId4;
; 156  : #endif // __ULTIMATE
; 157  : #endif // __EXT_PIERCING
; 158  : #if __VER >= 11 // __SYS_IDENTIFY
; 159  : 				arRead >> aLogItem.m_iRandomOptItemId;

  00ec3	6a 08		 push	 8
  00ec5	8d 84 24 dc 00
	00 00		 lea	 eax, DWORD PTR _aLogItem$208356[esp+59356]
  00ecc	50		 push	 eax
  00ecd	8d 8c 24 08 02
	00 00		 lea	 ecx, DWORD PTR _arRead$[esp+59256]
  00ed4	e8 00 00 00 00	 call	 ?Read@CAr@@QAEXPAXI@Z	; CAr::Read

; 160  : #else	// __SYS_IDENTIFY
; 161  : 				arRead >> aLogItem.m_nRandomOptItemId;
; 162  : #endif	// __SYS_IDENTIFY
; 163  : 				
; 164  : #if __VER >= 9 // __PET_0410
; 165  : 				arRead >> aLogItem.nPetKind;

  00ed9	8b b4 24 08 02
	00 00		 mov	 esi, DWORD PTR _arRead$[esp+59256]
  00ee0	8b 84 24 0c 02
	00 00		 mov	 eax, DWORD PTR _arRead$[esp+59260]
  00ee7	8d 56 01	 lea	 edx, DWORD PTR [esi+1]
  00eea	3b d0		 cmp	 edx, eax
  00eec	77 0b		 ja	 SHORT $L212119
  00eee	8a 0e		 mov	 cl, BYTE PTR [esi]
  00ef0	88 8c 24 24 01
	00 00		 mov	 BYTE PTR _aLogItem$208356[esp+59428], cl
  00ef7	eb 0a		 jmp	 SHORT $L213208
$L212119:
  00ef9	c6 84 24 24 01
	00 00 00	 mov	 BYTE PTR _aLogItem$208356[esp+59428], 0
  00f01	8b d0		 mov	 edx, eax
$L213208:

; 166  : 				arRead >> aLogItem.nPetLevel;

  00f03	8d 4a 01	 lea	 ecx, DWORD PTR [edx+1]
  00f06	3b c8		 cmp	 ecx, eax
  00f08	89 94 24 08 02
	00 00		 mov	 DWORD PTR _arRead$[esp+59256], edx
  00f0f	77 0b		 ja	 SHORT $L212124
  00f11	8a 12		 mov	 dl, BYTE PTR [edx]
  00f13	88 94 24 25 01
	00 00		 mov	 BYTE PTR _aLogItem$208356[esp+59429], dl
  00f1a	eb 0a		 jmp	 SHORT $L213209
$L212124:
  00f1c	c6 84 24 25 01
	00 00 00	 mov	 BYTE PTR _aLogItem$208356[esp+59429], 0
  00f24	8b c8		 mov	 ecx, eax
$L213209:

; 167  : 				arRead >> aLogItem.dwPetExp;

  00f26	8d 51 04	 lea	 edx, DWORD PTR [ecx+4]
  00f29	3b d0		 cmp	 edx, eax
  00f2b	89 8c 24 08 02
	00 00		 mov	 DWORD PTR _arRead$[esp+59256], ecx
  00f32	77 0b		 ja	 SHORT $L212129
  00f34	8b 09		 mov	 ecx, DWORD PTR [ecx]
  00f36	89 8c 24 28 01
	00 00		 mov	 DWORD PTR _aLogItem$208356[esp+59432], ecx
  00f3d	eb 09		 jmp	 SHORT $L213210
$L212129:
  00f3f	89 bc 24 28 01
	00 00		 mov	 DWORD PTR _aLogItem$208356[esp+59432], edi
  00f46	8b d0		 mov	 edx, eax
$L213210:

; 168  : 				arRead >> aLogItem.wPetEnergy;

  00f48	8d 4a 02	 lea	 ecx, DWORD PTR [edx+2]
  00f4b	3b c8		 cmp	 ecx, eax
  00f4d	89 94 24 08 02
	00 00		 mov	 DWORD PTR _arRead$[esp+59256], edx
  00f54	77 0d		 ja	 SHORT $L212134
  00f56	66 8b 12	 mov	 dx, WORD PTR [edx]
  00f59	66 89 94 24 2c
	01 00 00	 mov	 WORD PTR _aLogItem$208356[esp+59436], dx
  00f61	eb 0a		 jmp	 SHORT $L213211
$L212134:
  00f63	66 89 bc 24 2c
	01 00 00	 mov	 WORD PTR _aLogItem$208356[esp+59436], di
  00f6b	8b c8		 mov	 ecx, eax
$L213211:

; 169  : 				arRead >> aLogItem.wPetLife;

  00f6d	8d 51 02	 lea	 edx, DWORD PTR [ecx+2]
  00f70	3b d0		 cmp	 edx, eax
  00f72	89 8c 24 08 02
	00 00		 mov	 DWORD PTR _arRead$[esp+59256], ecx
  00f79	77 0d		 ja	 SHORT $L212139
  00f7b	66 8b 09	 mov	 cx, WORD PTR [ecx]
  00f7e	66 89 8c 24 2e
	01 00 00	 mov	 WORD PTR _aLogItem$208356[esp+59438], cx
  00f86	eb 0a		 jmp	 SHORT $L213212
$L212139:
  00f88	66 89 bc 24 2e
	01 00 00	 mov	 WORD PTR _aLogItem$208356[esp+59438], di
  00f90	8b d0		 mov	 edx, eax
$L213212:

; 170  : 				arRead >> aLogItem.nPetAL_D;

  00f92	8d 4a 01	 lea	 ecx, DWORD PTR [edx+1]
  00f95	3b c8		 cmp	 ecx, eax
  00f97	89 94 24 08 02
	00 00		 mov	 DWORD PTR _arRead$[esp+59256], edx
  00f9e	77 0b		 ja	 SHORT $L212144
  00fa0	8a 12		 mov	 dl, BYTE PTR [edx]
  00fa2	88 94 24 30 01
	00 00		 mov	 BYTE PTR _aLogItem$208356[esp+59440], dl
  00fa9	eb 0a		 jmp	 SHORT $L213213
$L212144:
  00fab	c6 84 24 30 01
	00 00 00	 mov	 BYTE PTR _aLogItem$208356[esp+59440], 0
  00fb3	8b c8		 mov	 ecx, eax
$L213213:

; 171  : 				arRead >> aLogItem.nPetAL_C;

  00fb5	8d 51 01	 lea	 edx, DWORD PTR [ecx+1]
  00fb8	3b d0		 cmp	 edx, eax
  00fba	89 8c 24 08 02
	00 00		 mov	 DWORD PTR _arRead$[esp+59256], ecx
  00fc1	77 0b		 ja	 SHORT $L212149
  00fc3	8a 09		 mov	 cl, BYTE PTR [ecx]
  00fc5	88 8c 24 31 01
	00 00		 mov	 BYTE PTR _aLogItem$208356[esp+59441], cl
  00fcc	eb 0a		 jmp	 SHORT $L213214
$L212149:
  00fce	c6 84 24 31 01
	00 00 00	 mov	 BYTE PTR _aLogItem$208356[esp+59441], 0
  00fd6	8b d0		 mov	 edx, eax
$L213214:

; 172  : 				arRead >> aLogItem.nPetAL_B;

  00fd8	8d 4a 01	 lea	 ecx, DWORD PTR [edx+1]
  00fdb	3b c8		 cmp	 ecx, eax
  00fdd	89 94 24 08 02
	00 00		 mov	 DWORD PTR _arRead$[esp+59256], edx
  00fe4	77 0b		 ja	 SHORT $L212154
  00fe6	8a 12		 mov	 dl, BYTE PTR [edx]
  00fe8	88 94 24 32 01
	00 00		 mov	 BYTE PTR _aLogItem$208356[esp+59442], dl
  00fef	eb 0a		 jmp	 SHORT $L213215
$L212154:
  00ff1	c6 84 24 32 01
	00 00 00	 mov	 BYTE PTR _aLogItem$208356[esp+59442], 0
  00ff9	8b c8		 mov	 ecx, eax
$L213215:

; 173  : 				arRead >> aLogItem.nPetAL_A;

  00ffb	8d 51 01	 lea	 edx, DWORD PTR [ecx+1]
  00ffe	3b d0		 cmp	 edx, eax
  01000	89 8c 24 08 02
	00 00		 mov	 DWORD PTR _arRead$[esp+59256], ecx
  01007	77 0d		 ja	 SHORT $L212159
  01009	8a 09		 mov	 cl, BYTE PTR [ecx]
  0100b	88 8c 24 33 01
	00 00		 mov	 BYTE PTR _aLogItem$208356[esp+59443], cl
  01012	8b ca		 mov	 ecx, edx
  01014	eb 0a		 jmp	 SHORT $L213216
$L212159:
  01016	c6 84 24 33 01
	00 00 00	 mov	 BYTE PTR _aLogItem$208356[esp+59443], 0
  0101e	8b c8		 mov	 ecx, eax
$L213216:

; 174  : 				arRead >> aLogItem.nPetAL_S;

  01020	8d 51 01	 lea	 edx, DWORD PTR [ecx+1]
  01023	3b d0		 cmp	 edx, eax
  01025	89 8c 24 08 02
	00 00		 mov	 DWORD PTR _arRead$[esp+59256], ecx
  0102c	77 12		 ja	 SHORT $L212164
  0102e	8a 01		 mov	 al, BYTE PTR [ecx]
  01030	88 84 24 34 01
	00 00		 mov	 BYTE PTR _aLogItem$208356[esp+59444], al
  01037	89 94 24 08 02
	00 00		 mov	 DWORD PTR _arRead$[esp+59256], edx
  0103e	eb 0f		 jmp	 SHORT $L212165
$L212164:
  01040	c6 84 24 34 01
	00 00 00	 mov	 BYTE PTR _aLogItem$208356[esp+59444], 0
  01048	89 84 24 08 02
	00 00		 mov	 DWORD PTR _arRead$[esp+59256], eax
$L212165:

; 175  : #endif // __PET_0410
; 176  : 
; 177  : 				DBQryNewItemLog( szQuery, aLogItem );

  0104f	8b 7c 24 4c	 mov	 edi, DWORD PTR $T213126[esp+59248]
  01053	8d 4c 24 70	 lea	 ecx, DWORD PTR _aLogItem$208356[esp+59248]
  01057	51		 push	 ecx
  01058	8d 94 24 5c 47
	00 00		 lea	 edx, DWORD PTR _szQuery$[esp+59252]
  0105f	52		 push	 edx
  01060	8b cf		 mov	 ecx, edi
  01062	e8 00 00 00 00	 call	 ?DBQryNewItemLog@CDbManager@@QAEXPADABU_LogItemInfo@@@Z ; CDbManager::DBQryNewItemLog

; 178  : 
; 179  : 				if ( FALSE == qry->Exec( szQuery ) )

  01067	8b 74 24 34	 mov	 esi, DWORD PTR $T213127[esp+59248]
  0106b	8d 84 24 58 47
	00 00		 lea	 eax, DWORD PTR _szQuery$[esp+59248]
  01072	50		 push	 eax
  01073	8b ce		 mov	 ecx, esi
  01075	e8 00 00 00 00	 call	 ?Exec@CQuery@@QAEHPBD@Z	; CQuery::Exec
  0107a	85 c0		 test	 eax, eax
  0107c	0f 84 0c 01 00
	00		 je	 $L213139

; 184  : 				}
; 185  : 				// 2. tblTradeItemLog.    . (ItemIndex, SerialNo )
; 186  : #if __VER >= 11 // __SYS_IDENTIFY
; 187  : 				call_uspLoggingTrade( qry, 2, nTradeID, 0, idPlayer2, 0, "", 0, 0, dwItemId, iSerialNumber, nItemNum, nAbilityOption, nItemResist, nResistAbilityOption, aLogItem.m_iRandomOptItemId );

  01082	8b 94 24 d8 00
	00 00		 mov	 edx, DWORD PTR _aLogItem$208356[esp+59352]
  01089	33 c0		 xor	 eax, eax
  0108b	c6 84 24 58 43
	00 00 00	 mov	 BYTE PTR _pszQuery$212253[esp+59248], 0
  01093	b9 ff 00 00 00	 mov	 ecx, 255		; 000000ffH
  01098	8d bc 24 59 43
	00 00		 lea	 edi, DWORD PTR _pszQuery$212253[esp+59249]
  0109f	f3 ab		 rep stosd
  010a1	8b 8c 24 dc 00
	00 00		 mov	 ecx, DWORD PTR _aLogItem$208356[esp+59356]
  010a8	51		 push	 ecx
  010a9	8b 4c 24 4c	 mov	 ecx, DWORD PTR _nItemResist$208349[esp+59252]
  010ad	52		 push	 edx
  010ae	8b 54 24 1c	 mov	 edx, DWORD PTR _nAbilityOption$208348[esp+59256]
  010b2	66 ab		 stosw
  010b4	aa		 stosb
  010b5	8b 44 24 74	 mov	 eax, DWORD PTR _nResistAbilityOption$208350[esp+59256]
  010b9	50		 push	 eax
  010ba	8b 44 24 24	 mov	 eax, DWORD PTR _iSerialNumber$208346[esp+59260]
  010be	51		 push	 ecx
  010bf	8b 4c 24 6c	 mov	 ecx, DWORD PTR _dwItemId$208353[esp+59264]
  010c3	52		 push	 edx
  010c4	8b 54 24 30	 mov	 edx, DWORD PTR _idPlayer2$208333[esp+59268]
  010c8	53		 push	 ebx
  010c9	50		 push	 eax
  010ca	a1 00 00 00 00	 mov	 eax, DWORD PTR ?g_appInfo@@3UAppInfo@@A
  010cf	51		 push	 ecx
  010d0	8b 8c 24 84 00
	00 00		 mov	 ecx, DWORD PTR _nTradeID$208331[esp+59280]
  010d7	52		 push	 edx
  010d8	50		 push	 eax
  010d9	51		 push	 ecx
  010da	8d 94 24 84 43
	00 00		 lea	 edx, DWORD PTR _pszQuery$212253[esp+59292]
  010e1	68 00 00 00 00	 push	 OFFSET FLAT:??_C@_0MP@KFMPAGF@uspLoggingTrade?5?$EApFlag?$DN2?0?5?$EApTrad@
  010e6	52		 push	 edx
  010e7	e8 00 00 00 00	 call	 _sprintf
  010ec	83 c4 34	 add	 esp, 52			; 00000034H
  010ef	8d 84 24 58 43
	00 00		 lea	 eax, DWORD PTR _pszQuery$212253[esp+59248]
  010f6	50		 push	 eax
  010f7	8b ce		 mov	 ecx, esi
  010f9	e8 00 00 00 00	 call	 ?Exec@CQuery@@QAEHPBD@Z	; CQuery::Exec
  010fe	85 c0		 test	 eax, eax
  01100	75 1f		 jne	 SHORT $L212259
  01102	8d 8c 24 58 43
	00 00		 lea	 ecx, DWORD PTR _pszQuery$212253[esp+59248]
  01109	51		 push	 ecx
  0110a	68 5c 04 00 00	 push	 1116			; 0000045cH
  0110f	68 00 00 00 00	 push	 OFFSET FLAT:??_C@_0GH@LHPNFEPP@?2Documents?5and?5Settings?2test?2Mes@
  01114	68 00 00 00 00	 push	 OFFSET FLAT:??_C@_0L@EBJDFKBI@?$CFs?0?5?$CFd?3?7?$CFs?$AA@
  01119	e8 00 00 00 00	 call	 ?WriteLog@@YAXPBDZZ	; WriteLog
  0111e	83 c4 10	 add	 esp, 16			; 00000010H
$L212259:

; 188  : #else	// __SYS_IDENTIFY
; 189  : 				call_uspLoggingTrade( qry, 2, nTradeID, 0, idPlayer2, 0, "", 0, 0, dwItemId, iSerialNumber, nItemNum, nAbilityOption, nItemResist, nResistAbilityOption, aLogItem.m_nRandomOptItemId );
; 190  : #endif	// __SYS_IDENTIFY
; 191  : 			}

  01121	8b 44 24 28	 mov	 eax, DWORD PTR _strItem$208354[esp+59248]
  01125	83 c0 f0	 add	 eax, -16		; fffffff0H
  01128	c6 84 24 6c e7
	00 00 02	 mov	 BYTE PTR __$EHRec$[esp+59256], 2
  01130	8d 50 0c	 lea	 edx, DWORD PTR [eax+12]
  01133	83 c9 ff	 or	 ecx, -1
  01136	f0 0f c1 0a	 lock	  xadd	 DWORD PTR [edx], ecx
  0113a	49		 dec	 ecx
  0113b	85 c9		 test	 ecx, ecx
  0113d	7f 08		 jg	 SHORT $L208344
  0113f	8b 08		 mov	 ecx, DWORD PTR [eax]
  01141	8b 11		 mov	 edx, DWORD PTR [ecx]
  01143	50		 push	 eax
  01144	ff 52 04	 call	 DWORD PTR [edx+4]
$L208344:
  01147	8b 44 24 60	 mov	 eax, DWORD PTR _i$208342[esp+59248]
  0114b	8b 4c 24 0c	 mov	 ecx, DWORD PTR _uSize1$208340[esp+59248]

; 276  : 
; 277  : 				if ( FALSE == qry->Exec( szQuery ) )

  0114f	8b 94 24 08 02
	00 00		 mov	 edx, DWORD PTR _arRead$[esp+59256]
  01156	40		 inc	 eax
  01157	89 44 24 60	 mov	 DWORD PTR _i$208342[esp+59248], eax
  0115b	3b c1		 cmp	 eax, ecx
  0115d	8b 84 24 0c 02
	00 00		 mov	 eax, DWORD PTR _arRead$[esp+59260]
  01164	0f 82 26 fa ff
	ff		 jb	 $L208343
$L208345:

; 192  : 			for( i = 0; i < uSize2; i++ )

  0116a	8b 4c 24 24	 mov	 ecx, DWORD PTR _uSize2$208341[esp+59248]
  0116e	85 c9		 test	 ecx, ecx
  01170	c7 44 24 60 00
	00 00 00	 mov	 DWORD PTR _i$208342[esp+59248], 0
  01178	0f 86 0e 06 00
	00		 jbe	 $L208369
  0117e	8b 4c 24 20	 mov	 ecx, DWORD PTR _iReMainder2$[esp+59248]
  01182	8b 74 24 3c	 mov	 esi, DWORD PTR _iSeed2$[esp+59248]
  01186	03 ce		 add	 ecx, esi
  01188	89 4c 24 68	 mov	 DWORD PTR tv2318[esp+59248], ecx
  0118c	eb 32		 jmp	 SHORT $L208367
$L213139:

; 180  : 				{
; 181  : 					WriteLog( "%s, %d\t%s, %s", __FILE__, __LINE__, lpszPlayer1, lpszPlayer2 );

  0118e	8d 84 24 64 42
	00 00		 lea	 eax, DWORD PTR _lpszPlayer2$[esp+59248]
  01195	50		 push	 eax
  01196	8d 8c 24 44 42
	00 00		 lea	 ecx, DWORD PTR _lpszPlayer1$[esp+59252]
  0119d	51		 push	 ecx
  0119e	68 b5 00 00 00	 push	 181			; 000000b5H

; 182  : 					FreeRequest( lpDbOverlappedPlus );
; 183  : 					return;

  011a3	e9 e1 06 00 00	 jmp	 $L213239
$L213151:

; 192  : 			for( i = 0; i < uSize2; i++ )

  011a8	8b 84 24 0c 02
	00 00		 mov	 eax, DWORD PTR _arRead$[esp+59260]
  011af	8b 94 24 08 02
	00 00		 mov	 edx, DWORD PTR _arRead$[esp+59256]
  011b6	eb 08 8d a4 24
	00 00 00 00 90	 npad	 10
$L208367:

; 193  : 			{
; 194  : 				memset( lpszItemText, 0, sizeof( lpszItemText ) );

  011c0	33 c9		 xor	 ecx, ecx
  011c2	89 8c 24 1c 42
	00 00		 mov	 DWORD PTR _lpszItemText$[esp+59248], ecx
  011c9	89 8c 24 20 42
	00 00		 mov	 DWORD PTR _lpszItemText$[esp+59252], ecx
  011d0	89 8c 24 24 42
	00 00		 mov	 DWORD PTR _lpszItemText$[esp+59256], ecx
  011d7	89 8c 24 28 42
	00 00		 mov	 DWORD PTR _lpszItemText$[esp+59260], ecx
  011de	89 8c 24 2c 42
	00 00		 mov	 DWORD PTR _lpszItemText$[esp+59264], ecx
  011e5	89 8c 24 30 42
	00 00		 mov	 DWORD PTR _lpszItemText$[esp+59268], ecx
  011ec	89 8c 24 34 42
	00 00		 mov	 DWORD PTR _lpszItemText$[esp+59272], ecx
  011f3	89 8c 24 38 42
	00 00		 mov	 DWORD PTR _lpszItemText$[esp+59276], ecx
  011fa	89 8c 24 3c 42
	00 00		 mov	 DWORD PTR _lpszItemText$[esp+59280], ecx

; 195  : 				SERIALNUMBER iSerialNumber;
; 196  : 				short nItemNum = 0;
; 197  : 				int	  nAbilityOption = 0;
; 198  : 				int	  nItemResist = 0;
; 199  : 				int	  nResistAbilityOption = 0;
; 200  : 				int   nNegudo = 0;
; 201  : 				int		nMaxNegudo	= 0;
; 202  : 				DWORD dwItemId	= 0;
; 203  : 				arRead >> dwItemId;

  01201	8d 4a 04	 lea	 ecx, DWORD PTR [edx+4]
  01204	33 ff		 xor	 edi, edi
  01206	3b c8		 cmp	 ecx, eax
  01208	77 08		 ja	 SHORT $L212297
  0120a	8b 12		 mov	 edx, DWORD PTR [edx]
  0120c	89 54 24 5c	 mov	 DWORD PTR _dwItemId$208377[esp+59248], edx
  01210	eb 06		 jmp	 SHORT $L213217
$L212297:
  01212	89 7c 24 5c	 mov	 DWORD PTR _dwItemId$208377[esp+59248], edi
  01216	8b c8		 mov	 ecx, eax
$L213217:

; 204  : 				arRead >> iSerialNumber;

  01218	8d 51 04	 lea	 edx, DWORD PTR [ecx+4]
  0121b	3b d0		 cmp	 edx, eax
  0121d	89 8c 24 08 02
	00 00		 mov	 DWORD PTR _arRead$[esp+59256], ecx
  01224	77 0f		 ja	 SHORT $L212302
  01226	8b 01		 mov	 eax, DWORD PTR [ecx]
  01228	89 44 24 14	 mov	 DWORD PTR _iSerialNumber$208370[esp+59248], eax
  0122c	89 94 24 08 02
	00 00		 mov	 DWORD PTR _arRead$[esp+59256], edx
  01233	eb 0b		 jmp	 SHORT $L212303
$L212302:
  01235	89 7c 24 14	 mov	 DWORD PTR _iSerialNumber$208370[esp+59248], edi
  01239	89 84 24 08 02
	00 00		 mov	 DWORD PTR _arRead$[esp+59256], eax
$L212303:

; 205  : 				arRead.ReadString( lpszItemText, 36 );

  01240	6a 24		 push	 36			; 00000024H
  01242	8d 8c 24 20 42
	00 00		 lea	 ecx, DWORD PTR _lpszItemText$[esp+59252]
  01249	51		 push	 ecx
  0124a	8d 8c 24 08 02
	00 00		 lea	 ecx, DWORD PTR _arRead$[esp+59256]
  01251	e8 00 00 00 00	 call	 ?ReadString@CAr@@QAEPADPADH@Z ; CAr::ReadString

; 206  : 				CString strItem	= lpszItemText;

  01256	8d 94 24 1c 42
	00 00		 lea	 edx, DWORD PTR _lpszItemText$[esp+59248]
  0125d	52		 push	 edx
  0125e	8d 4c 24 2c	 lea	 ecx, DWORD PTR _strItem$208378[esp+59252]
  01262	e8 00 00 00 00	 call	 ??0?$CStringT@DV?$StrTraitMFC@DV?$ChTraitsCRT@D@ATL@@@@@ATL@@QAE@PBD@Z ; ATL::CStringT<char,StrTraitMFC<char,ATL::ChTraitsCRT<char> > >::CStringT<char,StrTraitMFC<char,ATL::ChTraitsCRT<char> > >

; 207  : 				strItem.Replace( '\'', ' ' );

  01267	6a 20		 push	 32			; 00000020H
  01269	6a 27		 push	 39			; 00000027H
  0126b	8d 4c 24 30	 lea	 ecx, DWORD PTR _strItem$208378[esp+59256]
  0126f	c6 84 24 74 e7
	00 00 04	 mov	 BYTE PTR __$EHRec$[esp+59264], 4
  01277	e8 00 00 00 00	 call	 ?Replace@?$CStringT@DV?$StrTraitMFC@DV?$ChTraitsCRT@D@ATL@@@@@ATL@@QAEHDD@Z ; ATL::CStringT<char,StrTraitMFC<char,ATL::ChTraitsCRT<char> > >::Replace

; 208  : 				lstrcpy( lpszItemText, (LPCSTR)strItem );

  0127c	8b 44 24 28	 mov	 eax, DWORD PTR _strItem$208378[esp+59248]
  01280	50		 push	 eax
  01281	8d 8c 24 20 42
	00 00		 lea	 ecx, DWORD PTR _lpszItemText$[esp+59252]
  01288	51		 push	 ecx
  01289	ff 15 00 00 00
	00		 call	 DWORD PTR __imp__lstrcpyA@8

; 209  : 				arRead >> nItemNum;

  0128f	8b 94 24 08 02
	00 00		 mov	 edx, DWORD PTR _arRead$[esp+59256]
  01296	8b 84 24 0c 02
	00 00		 mov	 eax, DWORD PTR _arRead$[esp+59260]
  0129d	8d 4a 02	 lea	 ecx, DWORD PTR [edx+2]
  012a0	3b c8		 cmp	 ecx, eax
  012a2	77 05		 ja	 SHORT $L212317
  012a4	66 8b 1a	 mov	 bx, WORD PTR [edx]
  012a7	eb 04		 jmp	 SHORT $L213218
$L212317:
  012a9	33 db		 xor	 ebx, ebx
  012ab	8b c8		 mov	 ecx, eax
$L213218:

; 210  : 				arRead >> nAbilityOption;

  012ad	8d 51 04	 lea	 edx, DWORD PTR [ecx+4]
  012b0	3b d0		 cmp	 edx, eax
  012b2	89 8c 24 08 02
	00 00		 mov	 DWORD PTR _arRead$[esp+59256], ecx
  012b9	77 0a		 ja	 SHORT $L212329
  012bb	8b 09		 mov	 ecx, DWORD PTR [ecx]
  012bd	89 4c 24 18	 mov	 DWORD PTR _nAbilityOption$208372[esp+59248], ecx
  012c1	8b ca		 mov	 ecx, edx
  012c3	eb 06		 jmp	 SHORT $L213219
$L212329:
  012c5	89 7c 24 18	 mov	 DWORD PTR _nAbilityOption$208372[esp+59248], edi
  012c9	8b c8		 mov	 ecx, eax
$L213219:

; 211  : 				arRead >> nItemResist;

  012cb	8d 51 04	 lea	 edx, DWORD PTR [ecx+4]
  012ce	3b d0		 cmp	 edx, eax
  012d0	89 8c 24 08 02
	00 00		 mov	 DWORD PTR _arRead$[esp+59256], ecx
  012d7	77 08		 ja	 SHORT $L212341
  012d9	8b 09		 mov	 ecx, DWORD PTR [ecx]
  012db	89 4c 24 1c	 mov	 DWORD PTR _nItemResist$208373[esp+59248], ecx
  012df	eb 06		 jmp	 SHORT $L213220
$L212341:
  012e1	89 7c 24 1c	 mov	 DWORD PTR _nItemResist$208373[esp+59248], edi
  012e5	8b d0		 mov	 edx, eax
$L213220:

; 212  : 				arRead >> nResistAbilityOption;

  012e7	8d 4a 04	 lea	 ecx, DWORD PTR [edx+4]
  012ea	3b c8		 cmp	 ecx, eax
  012ec	89 94 24 08 02
	00 00		 mov	 DWORD PTR _arRead$[esp+59256], edx
  012f3	77 08		 ja	 SHORT $L212353
  012f5	8b 12		 mov	 edx, DWORD PTR [edx]
  012f7	89 54 24 0c	 mov	 DWORD PTR _nResistAbilityOption$208374[esp+59248], edx
  012fb	eb 06		 jmp	 SHORT $L213221
$L212353:
  012fd	89 7c 24 0c	 mov	 DWORD PTR _nResistAbilityOption$208374[esp+59248], edi
  01301	8b c8		 mov	 ecx, eax
$L213221:

; 213  : 				arRead >> nNegudo;

  01303	8d 51 04	 lea	 edx, DWORD PTR [ecx+4]
  01306	3b d0		 cmp	 edx, eax
  01308	89 8c 24 08 02
	00 00		 mov	 DWORD PTR _arRead$[esp+59256], ecx
  0130f	77 06		 ja	 SHORT $L212365
  01311	8b 39		 mov	 edi, DWORD PTR [ecx]
  01313	8b ca		 mov	 ecx, edx
  01315	eb 02		 jmp	 SHORT $L213222
$L212365:
  01317	8b c8		 mov	 ecx, eax
$L213222:

; 214  : 				arRead >> nMaxNegudo;

  01319	8d 51 04	 lea	 edx, DWORD PTR [ecx+4]
  0131c	3b d0		 cmp	 edx, eax
  0131e	89 8c 24 08 02
	00 00		 mov	 DWORD PTR _arRead$[esp+59256], ecx
  01325	77 0b		 ja	 SHORT $L212377
  01327	8b 31		 mov	 esi, DWORD PTR [ecx]
  01329	89 94 24 08 02
	00 00		 mov	 DWORD PTR _arRead$[esp+59256], edx
  01330	eb 09		 jmp	 SHORT $L212378
$L212377:
  01332	33 f6		 xor	 esi, esi
  01334	89 84 24 08 02
	00 00		 mov	 DWORD PTR _arRead$[esp+59256], eax
$L212378:

; 215  : 
; 216  : 				LogItemInfo aLogItem;

  0133b	8d 4c 24 70	 lea	 ecx, DWORD PTR _aLogItem$208380[esp+59248]
  0133f	e8 00 00 00 00	 call	 ??0_LogItemInfo@@QAE@XZ	; _LogItemInfo::_LogItemInfo

; 217  : 				::memset( &(aLogItem), 0, sizeof( &(aLogItem) ) );
; 218  : 				aLogItem.SendName = lpszPlayer2;
; 219  : 				aLogItem.RecvName = lpszPlayer1;
; 220  : 				aLogItem.WorldId = dwWorldID;

  01344	8b 54 24 40	 mov	 edx, DWORD PTR _dwWorldID$[esp+59248]
  01348	8d 84 24 64 42
	00 00		 lea	 eax, DWORD PTR _lpszPlayer2$[esp+59248]
  0134f	8d 8c 24 40 42
	00 00		 lea	 ecx, DWORD PTR _lpszPlayer1$[esp+59248]
  01356	89 44 24 74	 mov	 DWORD PTR _aLogItem$208380[esp+59252], eax

; 221  : 				aLogItem.Gold = iReMainder2 + iSeed2;

  0135a	8b 44 24 68	 mov	 eax, DWORD PTR tv2318[esp+59248]
  0135e	89 4c 24 78	 mov	 DWORD PTR _aLogItem$208380[esp+59256], ecx

; 222  : 				aLogItem.Gold2 = iReMainder2 + iSeed2;
; 223  : 				aLogItem.ItemNo = iSerialNumber;
; 224  : 				//aLogItem.ItemName = lpszItemText;
; 225  : 				_tcsncpy( aLogItem.szItemName, lpszItemText, 30 );

  01362	6a 1e		 push	 30			; 0000001eH
  01364	8d 8c 24 20 42
	00 00		 lea	 ecx, DWORD PTR _lpszItemText$[esp+59252]
  0136b	89 94 24 80 00
	00 00		 mov	 DWORD PTR _aLogItem$208380[esp+59264], edx
  01372	89 84 24 84 00
	00 00		 mov	 DWORD PTR _aLogItem$208380[esp+59268], eax
  01379	89 84 24 88 00
	00 00		 mov	 DWORD PTR _aLogItem$208380[esp+59272], eax
  01380	8b 44 24 18	 mov	 eax, DWORD PTR _iSerialNumber$208370[esp+59252]
  01384	51		 push	 ecx
  01385	8d 94 24 9c 00
	00 00		 lea	 edx, DWORD PTR _aLogItem$208380[esp+59292]
  0138c	52		 push	 edx
  0138d	c7 44 24 7c 00
	00 00 00	 mov	 DWORD PTR _aLogItem$208380[esp+59260], 0
  01395	89 84 24 94 00
	00 00		 mov	 DWORD PTR _aLogItem$208380[esp+59284], eax
  0139c	e8 00 00 00 00	 call	 __mbsnbcpy

; 226  : 
; 227  : 				aLogItem.itemNumber = nItemNum;
; 228  : 				aLogItem.nAbilityOption = nAbilityOption;

  013a1	8b 44 24 24	 mov	 eax, DWORD PTR _nAbilityOption$208372[esp+59260]

; 229  : 				aLogItem.nItemResist = nItemResist;

  013a5	8b 4c 24 28	 mov	 ecx, DWORD PTR _nItemResist$208373[esp+59260]

; 230  : 				aLogItem.nResistAbilityOption = nResistAbilityOption;

  013a9	8b 54 24 18	 mov	 edx, DWORD PTR _nResistAbilityOption$208374[esp+59260]
  013ad	89 84 24 c4 00
	00 00		 mov	 DWORD PTR _aLogItem$208380[esp+59332], eax

; 231  : 				aLogItem.Negudo = nNegudo;
; 232  : 				aLogItem.MaxNegudo	= nMaxNegudo;
; 233  : 				aLogItem.Gold_1 = iReMainder1;

  013b4	8b 44 24 64	 mov	 eax, DWORD PTR _iReMainder1$[esp+59260]
  013b8	89 8c 24 d4 00
	00 00		 mov	 DWORD PTR _aLogItem$208380[esp+59348], ecx

; 234  : 				aLogItem.Action = chAction;

  013bf	8d 4c 24 1c	 lea	 ecx, DWORD PTR _chAction$[esp+59260]
  013c3	89 94 24 d8 00
	00 00		 mov	 DWORD PTR _aLogItem$208380[esp+59352], edx

; 235  : 				
; 236  : 				arRead >> aLogItem.m_bCharged;

  013ca	8b 94 24 14 02
	00 00		 mov	 edx, DWORD PTR _arRead$[esp+59268]
  013d1	0f bf db	 movsx	 ebx, bx
  013d4	89 84 24 c8 00
	00 00		 mov	 DWORD PTR _aLogItem$208380[esp+59336], eax
  013db	8b 84 24 18 02
	00 00		 mov	 eax, DWORD PTR _arRead$[esp+59272]
  013e2	89 4c 24 7c	 mov	 DWORD PTR _aLogItem$208380[esp+59260], ecx
  013e6	8d 4a 04	 lea	 ecx, DWORD PTR [edx+4]
  013e9	83 c4 0c	 add	 esp, 12			; 0000000cH
  013ec	3b c8		 cmp	 ecx, eax
  013ee	89 9c 24 b4 00
	00 00		 mov	 DWORD PTR _aLogItem$208380[esp+59316], ebx
  013f5	89 bc 24 8c 00
	00 00		 mov	 DWORD PTR _aLogItem$208380[esp+59276], edi
  013fc	89 b4 24 90 00
	00 00		 mov	 DWORD PTR _aLogItem$208380[esp+59280], esi
  01403	77 0b		 ja	 SHORT $L212392
  01405	8b 12		 mov	 edx, DWORD PTR [edx]
  01407	89 94 24 d0 00
	00 00		 mov	 DWORD PTR _aLogItem$208380[esp+59344], edx
  0140e	eb 0d		 jmp	 SHORT $L213223
$L212392:
  01410	c7 84 24 d0 00
	00 00 00 00 00
	00		 mov	 DWORD PTR _aLogItem$208380[esp+59344], 0
  0141b	8b c8		 mov	 ecx, eax
$L213223:

; 237  : 				arRead >> aLogItem.m_dwKeepTime;

  0141d	8d 51 04	 lea	 edx, DWORD PTR [ecx+4]
  01420	33 ff		 xor	 edi, edi
  01422	3b d0		 cmp	 edx, eax
  01424	89 8c 24 08 02
	00 00		 mov	 DWORD PTR _arRead$[esp+59256], ecx
  0142b	77 0b		 ja	 SHORT $L212397
  0142d	8b 09		 mov	 ecx, DWORD PTR [ecx]
  0142f	89 8c 24 d4 00
	00 00		 mov	 DWORD PTR _aLogItem$208380[esp+59348], ecx
  01436	eb 09		 jmp	 SHORT $L213224
$L212397:
  01438	89 bc 24 d4 00
	00 00		 mov	 DWORD PTR _aLogItem$208380[esp+59348], edi
  0143f	8b d0		 mov	 edx, eax
$L213224:

; 238  : #if __VER >= 12 // __EXT_PIERCING
; 239  : 				arRead >> aLogItem.nPiercedSize;

  01441	8d 4a 04	 lea	 ecx, DWORD PTR [edx+4]
  01444	3b c8		 cmp	 ecx, eax
  01446	89 94 24 08 02
	00 00		 mov	 DWORD PTR _arRead$[esp+59256], edx
  0144d	77 04		 ja	 SHORT $L212409
  0144f	8b 32		 mov	 esi, DWORD PTR [edx]
  01451	eb 04		 jmp	 SHORT $L213225
$L212409:
  01453	33 f6		 xor	 esi, esi
  01455	8b c8		 mov	 ecx, eax
$L213225:

; 240  : 				for( int i=0; i<aLogItem.nPiercedSize; i++ )

  01457	33 d2		 xor	 edx, edx
  01459	3b f7		 cmp	 esi, edi
  0145b	89 b4 24 e0 00
	00 00		 mov	 DWORD PTR _aLogItem$208380[esp+59360], esi
  01462	89 8c 24 08 02
	00 00		 mov	 DWORD PTR _arRead$[esp+59256], ecx
  01469	7e 35		 jle	 SHORT $L208384
  0146b	eb 03 8d 49 00	 npad	 5
$L208382:

; 241  : 					arRead >> aLogItem.adwItemId[i];

  01470	8d 71 04	 lea	 esi, DWORD PTR [ecx+4]
  01473	3b f0		 cmp	 esi, eax
  01475	77 0d		 ja	 SHORT $L212421
  01477	8b 09		 mov	 ecx, DWORD PTR [ecx]
  01479	89 8c 94 e4 00
	00 00		 mov	 DWORD PTR _aLogItem$208380[esp+edx*4+59364], ecx
  01480	8b ce		 mov	 ecx, esi
  01482	eb 09		 jmp	 SHORT $L213226
$L212421:
  01484	89 bc 94 e4 00
	00 00		 mov	 DWORD PTR _aLogItem$208380[esp+edx*4+59364], edi
  0148b	8b c8		 mov	 ecx, eax
$L213226:
  0148d	8b b4 24 e0 00
	00 00		 mov	 esi, DWORD PTR _aLogItem$208380[esp+59360]
  01494	42		 inc	 edx
  01495	3b d6		 cmp	 edx, esi
  01497	89 8c 24 08 02
	00 00		 mov	 DWORD PTR _arRead$[esp+59256], ecx
  0149e	7c d0		 jl	 SHORT $L208382
$L208384:

; 242  : 				arRead >> aLogItem.nUMPiercedSize;

  014a0	8d 51 04	 lea	 edx, DWORD PTR [ecx+4]
  014a3	3b d0		 cmp	 edx, eax
  014a5	77 04		 ja	 SHORT $L212434
  014a7	8b 09		 mov	 ecx, DWORD PTR [ecx]
  014a9	eb 04		 jmp	 SHORT $L213227
$L212434:
  014ab	33 c9		 xor	 ecx, ecx
  014ad	8b d0		 mov	 edx, eax
$L213227:

; 243  : 				for( i=0; i<aLogItem.nUMPiercedSize; i++ )

  014af	33 f6		 xor	 esi, esi
  014b1	3b cf		 cmp	 ecx, edi
  014b3	89 8c 24 0c 01
	00 00		 mov	 DWORD PTR _aLogItem$208380[esp+59404], ecx
  014ba	89 94 24 08 02
	00 00		 mov	 DWORD PTR _arRead$[esp+59256], edx
  014c1	7e 30		 jle	 SHORT $L208387
$L208385:

; 244  : 					arRead >> aLogItem.adwUMItemId[i];

  014c3	8d 4a 04	 lea	 ecx, DWORD PTR [edx+4]
  014c6	3b c8		 cmp	 ecx, eax
  014c8	77 0d		 ja	 SHORT $L212446
  014ca	8b 12		 mov	 edx, DWORD PTR [edx]
  014cc	89 94 b4 10 01
	00 00		 mov	 DWORD PTR _aLogItem$208380[esp+esi*4+59408], edx
  014d3	8b d1		 mov	 edx, ecx
  014d5	eb 09		 jmp	 SHORT $L213228
$L212446:
  014d7	89 bc b4 10 01
	00 00		 mov	 DWORD PTR _aLogItem$208380[esp+esi*4+59408], edi
  014de	8b d0		 mov	 edx, eax
$L213228:
  014e0	8b 8c 24 0c 01
	00 00		 mov	 ecx, DWORD PTR _aLogItem$208380[esp+59404]
  014e7	46		 inc	 esi
  014e8	3b f1		 cmp	 esi, ecx
  014ea	89 94 24 08 02
	00 00		 mov	 DWORD PTR _arRead$[esp+59256], edx
  014f1	7c d0		 jl	 SHORT $L208385
$L208387:

; 245  : #else // __EXT_PIERCING
; 246  : 				arRead >> aLogItem.nPiercedSize;
; 247  : 				arRead >> aLogItem.adwItemId0;
; 248  : 				arRead >> aLogItem.adwItemId1;
; 249  : 				arRead >> aLogItem.adwItemId2;
; 250  : 				arRead >> aLogItem.adwItemId3;
; 251  : #if __VER >= 9 // __ULTIMATE
; 252  : 				arRead >> aLogItem.adwItemId4;
; 253  : #endif // __ULTIMATE
; 254  : #endif // __EXT_PIERCING
; 255  : 
; 256  : #if __VER >= 11 // __SYS_IDENTIFY
; 257  : 				arRead >> aLogItem.m_iRandomOptItemId;

  014f3	6a 08		 push	 8
  014f5	8d 84 24 dc 00
	00 00		 lea	 eax, DWORD PTR _aLogItem$208380[esp+59356]
  014fc	50		 push	 eax
  014fd	8d 8c 24 08 02
	00 00		 lea	 ecx, DWORD PTR _arRead$[esp+59256]
  01504	e8 00 00 00 00	 call	 ?Read@CAr@@QAEXPAXI@Z	; CAr::Read

; 258  : #else	// __SYS_IDENTIFY
; 259  : 				arRead >> aLogItem.m_nRandomOptItemId;
; 260  : #endif	// __SYS_IDENTIFY
; 261  : 
; 262  : #if __VER >= 9 // __PET_0410
; 263  : 				arRead >> aLogItem.nPetKind;

  01509	8b b4 24 08 02
	00 00		 mov	 esi, DWORD PTR _arRead$[esp+59256]
  01510	8b 84 24 0c 02
	00 00		 mov	 eax, DWORD PTR _arRead$[esp+59260]
  01517	8d 56 01	 lea	 edx, DWORD PTR [esi+1]
  0151a	3b d0		 cmp	 edx, eax
  0151c	77 0b		 ja	 SHORT $L212455
  0151e	8a 0e		 mov	 cl, BYTE PTR [esi]
  01520	88 8c 24 24 01
	00 00		 mov	 BYTE PTR _aLogItem$208380[esp+59428], cl
  01527	eb 0a		 jmp	 SHORT $L213229
$L212455:
  01529	c6 84 24 24 01
	00 00 00	 mov	 BYTE PTR _aLogItem$208380[esp+59428], 0
  01531	8b d0		 mov	 edx, eax
$L213229:

; 264  : 				arRead >> aLogItem.nPetLevel;

  01533	8d 4a 01	 lea	 ecx, DWORD PTR [edx+1]
  01536	3b c8		 cmp	 ecx, eax
  01538	89 94 24 08 02
	00 00		 mov	 DWORD PTR _arRead$[esp+59256], edx
  0153f	77 0b		 ja	 SHORT $L212460
  01541	8a 12		 mov	 dl, BYTE PTR [edx]
  01543	88 94 24 25 01
	00 00		 mov	 BYTE PTR _aLogItem$208380[esp+59429], dl
  0154a	eb 0a		 jmp	 SHORT $L213230
$L212460:
  0154c	c6 84 24 25 01
	00 00 00	 mov	 BYTE PTR _aLogItem$208380[esp+59429], 0
  01554	8b c8		 mov	 ecx, eax
$L213230:

; 265  : 				arRead >> aLogItem.dwPetExp;

  01556	8d 51 04	 lea	 edx, DWORD PTR [ecx+4]
  01559	3b d0		 cmp	 edx, eax
  0155b	89 8c 24 08 02
	00 00		 mov	 DWORD PTR _arRead$[esp+59256], ecx
  01562	77 0b		 ja	 SHORT $L212465
  01564	8b 09		 mov	 ecx, DWORD PTR [ecx]
  01566	89 8c 24 28 01
	00 00		 mov	 DWORD PTR _aLogItem$208380[esp+59432], ecx
  0156d	eb 09		 jmp	 SHORT $L213231
$L212465:
  0156f	89 bc 24 28 01
	00 00		 mov	 DWORD PTR _aLogItem$208380[esp+59432], edi
  01576	8b d0		 mov	 edx, eax
$L213231:

; 266  : 				arRead >> aLogItem.wPetEnergy;

  01578	8d 4a 02	 lea	 ecx, DWORD PTR [edx+2]
  0157b	3b c8		 cmp	 ecx, eax
  0157d	89 94 24 08 02
	00 00		 mov	 DWORD PTR _arRead$[esp+59256], edx
  01584	77 0d		 ja	 SHORT $L212470
  01586	66 8b 12	 mov	 dx, WORD PTR [edx]
  01589	66 89 94 24 2c
	01 00 00	 mov	 WORD PTR _aLogItem$208380[esp+59436], dx
  01591	eb 0a		 jmp	 SHORT $L213232
$L212470:
  01593	66 89 bc 24 2c
	01 00 00	 mov	 WORD PTR _aLogItem$208380[esp+59436], di
  0159b	8b c8		 mov	 ecx, eax
$L213232:

; 267  : 				arRead >> aLogItem.wPetLife;

  0159d	8d 51 02	 lea	 edx, DWORD PTR [ecx+2]
  015a0	3b d0		 cmp	 edx, eax
  015a2	89 8c 24 08 02
	00 00		 mov	 DWORD PTR _arRead$[esp+59256], ecx
  015a9	77 0d		 ja	 SHORT $L212475
  015ab	66 8b 09	 mov	 cx, WORD PTR [ecx]
  015ae	66 89 8c 24 2e
	01 00 00	 mov	 WORD PTR _aLogItem$208380[esp+59438], cx
  015b6	eb 0a		 jmp	 SHORT $L213233
$L212475:
  015b8	66 89 bc 24 2e
	01 00 00	 mov	 WORD PTR _aLogItem$208380[esp+59438], di
  015c0	8b d0		 mov	 edx, eax
$L213233:

; 268  : 				arRead >> aLogItem.nPetAL_D;

  015c2	8d 4a 01	 lea	 ecx, DWORD PTR [edx+1]
  015c5	3b c8		 cmp	 ecx, eax
  015c7	89 94 24 08 02
	00 00		 mov	 DWORD PTR _arRead$[esp+59256], edx
  015ce	77 0b		 ja	 SHORT $L212480
  015d0	8a 12		 mov	 dl, BYTE PTR [edx]
  015d2	88 94 24 30 01
	00 00		 mov	 BYTE PTR _aLogItem$208380[esp+59440], dl
  015d9	eb 0a		 jmp	 SHORT $L213234
$L212480:
  015db	c6 84 24 30 01
	00 00 00	 mov	 BYTE PTR _aLogItem$208380[esp+59440], 0
  015e3	8b c8		 mov	 ecx, eax
$L213234:

; 269  : 				arRead >> aLogItem.nPetAL_C;

  015e5	8d 51 01	 lea	 edx, DWORD PTR [ecx+1]
  015e8	3b d0		 cmp	 edx, eax
  015ea	89 8c 24 08 02
	00 00		 mov	 DWORD PTR _arRead$[esp+59256], ecx
  015f1	77 0b		 ja	 SHORT $L212485
  015f3	8a 09		 mov	 cl, BYTE PTR [ecx]
  015f5	88 8c 24 31 01
	00 00		 mov	 BYTE PTR _aLogItem$208380[esp+59441], cl
  015fc	eb 0a		 jmp	 SHORT $L213235
$L212485:
  015fe	c6 84 24 31 01
	00 00 00	 mov	 BYTE PTR _aLogItem$208380[esp+59441], 0
  01606	8b d0		 mov	 edx, eax
$L213235:

; 270  : 				arRead >> aLogItem.nPetAL_B;

  01608	8d 4a 01	 lea	 ecx, DWORD PTR [edx+1]
  0160b	3b c8		 cmp	 ecx, eax
  0160d	89 94 24 08 02
	00 00		 mov	 DWORD PTR _arRead$[esp+59256], edx
  01614	77 0b		 ja	 SHORT $L212490
  01616	8a 12		 mov	 dl, BYTE PTR [edx]
  01618	88 94 24 32 01
	00 00		 mov	 BYTE PTR _aLogItem$208380[esp+59442], dl
  0161f	eb 0a		 jmp	 SHORT $L213236
$L212490:
  01621	c6 84 24 32 01
	00 00 00	 mov	 BYTE PTR _aLogItem$208380[esp+59442], 0
  01629	8b c8		 mov	 ecx, eax
$L213236:

; 271  : 				arRead >> aLogItem.nPetAL_A;

  0162b	8d 51 01	 lea	 edx, DWORD PTR [ecx+1]
  0162e	3b d0		 cmp	 edx, eax
  01630	89 8c 24 08 02
	00 00		 mov	 DWORD PTR _arRead$[esp+59256], ecx
  01637	77 0d		 ja	 SHORT $L212495
  01639	8a 09		 mov	 cl, BYTE PTR [ecx]
  0163b	88 8c 24 33 01
	00 00		 mov	 BYTE PTR _aLogItem$208380[esp+59443], cl
  01642	8b ca		 mov	 ecx, edx
  01644	eb 0a		 jmp	 SHORT $L213237
$L212495:
  01646	c6 84 24 33 01
	00 00 00	 mov	 BYTE PTR _aLogItem$208380[esp+59443], 0
  0164e	8b c8		 mov	 ecx, eax
$L213237:

; 272  : 				arRead >> aLogItem.nPetAL_S;

  01650	8d 51 01	 lea	 edx, DWORD PTR [ecx+1]
  01653	3b d0		 cmp	 edx, eax
  01655	89 8c 24 08 02
	00 00		 mov	 DWORD PTR _arRead$[esp+59256], ecx
  0165c	77 12		 ja	 SHORT $L212500
  0165e	8a 01		 mov	 al, BYTE PTR [ecx]
  01660	88 84 24 34 01
	00 00		 mov	 BYTE PTR _aLogItem$208380[esp+59444], al
  01667	89 94 24 08 02
	00 00		 mov	 DWORD PTR _arRead$[esp+59256], edx
  0166e	eb 0f		 jmp	 SHORT $L212501
$L212500:
  01670	c6 84 24 34 01
	00 00 00	 mov	 BYTE PTR _aLogItem$208380[esp+59444], 0
  01678	89 84 24 08 02
	00 00		 mov	 DWORD PTR _arRead$[esp+59256], eax
$L212501:

; 273  : #endif // __PET_0410
; 274  : 
; 275  : 				DBQryNewItemLog( szQuery, aLogItem );

  0167f	8b 7c 24 4c	 mov	 edi, DWORD PTR $T213126[esp+59248]
  01683	8d 4c 24 70	 lea	 ecx, DWORD PTR _aLogItem$208380[esp+59248]
  01687	51		 push	 ecx
  01688	8d 94 24 5c 47
	00 00		 lea	 edx, DWORD PTR _szQuery$[esp+59252]
  0168f	52		 push	 edx
  01690	8b cf		 mov	 ecx, edi
  01692	e8 00 00 00 00	 call	 ?DBQryNewItemLog@CDbManager@@QAEXPADABU_LogItemInfo@@@Z ; CDbManager::DBQryNewItemLog

; 276  : 
; 277  : 				if ( FALSE == qry->Exec( szQuery ) )

  01697	8b 74 24 34	 mov	 esi, DWORD PTR $T213127[esp+59248]
  0169b	8d 84 24 58 47
	00 00		 lea	 eax, DWORD PTR _szQuery$[esp+59248]
  016a2	50		 push	 eax
  016a3	8b ce		 mov	 ecx, esi
  016a5	e8 00 00 00 00	 call	 ?Exec@CQuery@@QAEHPBD@Z	; CQuery::Exec
  016aa	85 c0		 test	 eax, eax
  016ac	0f 84 c2 01 00
	00		 je	 $L213140

; 282  : 				}
; 283  : 				// 2. tblTradeItemLog.    . (ItemIndex, SerialNo )
; 284  : #if __VER >= 11 // __SYS_IDENTIFY
; 285  : 				call_uspLoggingTrade( qry, 2, nTradeID, 0, idPlayer1, 0, "", 0, 0, dwItemId, iSerialNumber, nItemNum, nAbilityOption, nItemResist, nResistAbilityOption, aLogItem.m_iRandomOptItemId );

  016b2	8b 94 24 d8 00
	00 00		 mov	 edx, DWORD PTR _aLogItem$208380[esp+59352]
  016b9	33 c0		 xor	 eax, eax
  016bb	c6 84 24 58 43
	00 00 00	 mov	 BYTE PTR _pszQuery$212589[esp+59248], 0
  016c3	b9 ff 00 00 00	 mov	 ecx, 255		; 000000ffH
  016c8	8d bc 24 59 43
	00 00		 lea	 edi, DWORD PTR _pszQuery$212589[esp+59249]
  016cf	f3 ab		 rep stosd
  016d1	8b 8c 24 dc 00
	00 00		 mov	 ecx, DWORD PTR _aLogItem$208380[esp+59356]
  016d8	51		 push	 ecx
  016d9	8b 4c 24 20	 mov	 ecx, DWORD PTR _nItemResist$208373[esp+59252]
  016dd	52		 push	 edx
  016de	8b 54 24 20	 mov	 edx, DWORD PTR _nAbilityOption$208372[esp+59256]
  016e2	66 ab		 stosw
  016e4	aa		 stosb
  016e5	8b 44 24 14	 mov	 eax, DWORD PTR _nResistAbilityOption$208374[esp+59256]
  016e9	50		 push	 eax
  016ea	8b 44 24 20	 mov	 eax, DWORD PTR _iSerialNumber$208370[esp+59260]
  016ee	51		 push	 ecx
  016ef	8b 4c 24 6c	 mov	 ecx, DWORD PTR _dwItemId$208377[esp+59264]
  016f3	52		 push	 edx
  016f4	8b 54 24 58	 mov	 edx, DWORD PTR _idPlayer1$208332[esp+59268]
  016f8	53		 push	 ebx
  016f9	50		 push	 eax
  016fa	a1 00 00 00 00	 mov	 eax, DWORD PTR ?g_appInfo@@3UAppInfo@@A
  016ff	51		 push	 ecx
  01700	8b 8c 24 84 00
	00 00		 mov	 ecx, DWORD PTR _nTradeID$208331[esp+59280]
  01707	52		 push	 edx
  01708	50		 push	 eax
  01709	51		 push	 ecx
  0170a	8d 94 24 84 43
	00 00		 lea	 edx, DWORD PTR _pszQuery$212589[esp+59292]
  01711	68 00 00 00 00	 push	 OFFSET FLAT:??_C@_0MP@KFMPAGF@uspLoggingTrade?5?$EApFlag?$DN2?0?5?$EApTrad@
  01716	52		 push	 edx
  01717	e8 00 00 00 00	 call	 _sprintf
  0171c	83 c4 34	 add	 esp, 52			; 00000034H
  0171f	8d 84 24 58 43
	00 00		 lea	 eax, DWORD PTR _pszQuery$212589[esp+59248]
  01726	50		 push	 eax
  01727	8b ce		 mov	 ecx, esi
  01729	e8 00 00 00 00	 call	 ?Exec@CQuery@@QAEHPBD@Z	; CQuery::Exec
  0172e	85 c0		 test	 eax, eax
  01730	75 1f		 jne	 SHORT $L212595
  01732	8d 8c 24 58 43
	00 00		 lea	 ecx, DWORD PTR _pszQuery$212589[esp+59248]
  01739	51		 push	 ecx
  0173a	68 5c 04 00 00	 push	 1116			; 0000045cH
  0173f	68 00 00 00 00	 push	 OFFSET FLAT:??_C@_0GH@LHPNFEPP@?2Documents?5and?5Settings?2test?2Mes@
  01744	68 00 00 00 00	 push	 OFFSET FLAT:??_C@_0L@EBJDFKBI@?$CFs?0?5?$CFd?3?7?$CFs?$AA@
  01749	e8 00 00 00 00	 call	 ?WriteLog@@YAXPBDZZ	; WriteLog
  0174e	83 c4 10	 add	 esp, 16			; 00000010H
$L212595:

; 286  : #else	// __SYS_IDENTIFY
; 287  : 				call_uspLoggingTrade( qry, 2, nTradeID, 0, idPlayer1, 0, "", 0, 0, dwItemId, iSerialNumber, nItemNum, nAbilityOption, nItemResist, nResistAbilityOption, aLogItem.m_nRandomOptItemId );
; 288  : #endif	// __SYS_IDENTIFY
; 289  : 			}

  01751	8b 44 24 28	 mov	 eax, DWORD PTR _strItem$208378[esp+59248]
  01755	83 c0 f0	 add	 eax, -16		; fffffff0H
  01758	c6 84 24 6c e7
	00 00 02	 mov	 BYTE PTR __$EHRec$[esp+59256], 2
  01760	8d 50 0c	 lea	 edx, DWORD PTR [eax+12]
  01763	83 c9 ff	 or	 ecx, -1
  01766	f0 0f c1 0a	 lock	  xadd	 DWORD PTR [edx], ecx
  0176a	49		 dec	 ecx
  0176b	85 c9		 test	 ecx, ecx
  0176d	7f 08		 jg	 SHORT $L208368
  0176f	8b 08		 mov	 ecx, DWORD PTR [eax]
  01771	8b 11		 mov	 edx, DWORD PTR [ecx]
  01773	50		 push	 eax
  01774	ff 52 04	 call	 DWORD PTR [edx+4]
$L208368:
  01777	8b 44 24 60	 mov	 eax, DWORD PTR _i$208342[esp+59248]
  0177b	8b 4c 24 24	 mov	 ecx, DWORD PTR _uSize2$208341[esp+59248]
  0177f	40		 inc	 eax
  01780	3b c1		 cmp	 eax, ecx
  01782	89 44 24 60	 mov	 DWORD PTR _i$208342[esp+59248], eax
  01786	0f 82 1c fa ff
	ff		 jb	 $L213151
$L208369:

; 290  : 			if( iSeed1 > 0 )

  0178c	8b 74 24 54	 mov	 esi, DWORD PTR _iSeed1$[esp+59248]
  01790	85 f6		 test	 esi, esi
  01792	0f 8e 3e 01 00
	00		 jle	 $L213153

; 291  : 			{
; 292  : 				LogItemInfo aLogItem;

  01798	8d 4c 24 70	 lea	 ecx, DWORD PTR _aLogItem$208390[esp+59248]
  0179c	e8 00 00 00 00	 call	 ??0_LogItemInfo@@QAE@XZ	; _LogItemInfo::_LogItemInfo

; 293  : 				::memset( &(aLogItem), 0, sizeof( &(aLogItem) ) );
; 294  : 				aLogItem.SendName = lpszPlayer1;
; 295  : 				aLogItem.RecvName = lpszPlayer2;
; 296  : 				aLogItem.WorldId = dwWorldID;
; 297  : 				aLogItem.Gold = iReMainder1 + iSeed1;

  017a1	8b 7c 24 58	 mov	 edi, DWORD PTR _iReMainder1$[esp+59248]
  017a5	8b 54 24 40	 mov	 edx, DWORD PTR _dwWorldID$[esp+59248]
  017a9	8d 8c 24 64 42
	00 00		 lea	 ecx, DWORD PTR _lpszPlayer2$[esp+59248]
  017b0	8d 84 24 40 42
	00 00		 lea	 eax, DWORD PTR _lpszPlayer1$[esp+59248]

; 298  : 				aLogItem.Gold2 = iReMainder1;
; 299  : 				//aLogItem.ItemName = "SEED";
; 300  : 				_stprintf( aLogItem.szItemName, "%d", II_GOLD_SEED1 );

  017b7	6a 0c		 push	 12			; 0000000cH
  017b9	89 4c 24 7c	 mov	 DWORD PTR _aLogItem$208390[esp+59260], ecx
  017bd	89 44 24 78	 mov	 DWORD PTR _aLogItem$208390[esp+59256], eax
  017c1	8d 8c 24 98 00
	00 00		 lea	 ecx, DWORD PTR _aLogItem$208390[esp+59288]
  017c8	8d 04 37	 lea	 eax, DWORD PTR [edi+esi]
  017cb	68 00 00 00 00	 push	 OFFSET FLAT:??_C@_02DPKJAMEF@?$CFd?$AA@
  017d0	51		 push	 ecx
  017d1	c7 44 24 7c 00
	00 00 00	 mov	 DWORD PTR _aLogItem$208390[esp+59260], 0
  017d9	89 94 24 88 00
	00 00		 mov	 DWORD PTR _aLogItem$208390[esp+59272], edx
  017e0	89 84 24 8c 00
	00 00		 mov	 DWORD PTR _aLogItem$208390[esp+59276], eax
  017e7	89 bc 24 90 00
	00 00		 mov	 DWORD PTR _aLogItem$208390[esp+59280], edi
  017ee	e8 00 00 00 00	 call	 _sprintf

; 301  : 				aLogItem.itemNumber = iSeed1;
; 302  : 				aLogItem.Gold_1 = iReMainder2;
; 303  : 				aLogItem.Action = chAction;
; 304  : 				DBQryNewItemLog( szQuery, aLogItem );

  017f3	8b 5c 24 58	 mov	 ebx, DWORD PTR $T213126[esp+59260]
  017f7	83 c4 0c	 add	 esp, 12			; 0000000cH
  017fa	8d 44 24 70	 lea	 eax, DWORD PTR _aLogItem$208390[esp+59248]
  017fe	50		 push	 eax
  017ff	8d 8c 24 5c 47
	00 00		 lea	 ecx, DWORD PTR _szQuery$[esp+59252]
  01806	89 b4 24 b8 00
	00 00		 mov	 DWORD PTR _aLogItem$208390[esp+59320], esi
  0180d	8b 74 24 24	 mov	 esi, DWORD PTR _iReMainder2$[esp+59252]
  01811	8d 54 24 14	 lea	 edx, DWORD PTR _chAction$[esp+59252]
  01815	51		 push	 ecx
  01816	8b cb		 mov	 ecx, ebx
  01818	89 b4 24 c4 00
	00 00		 mov	 DWORD PTR _aLogItem$208390[esp+59332], esi
  0181f	89 54 24 78	 mov	 DWORD PTR _aLogItem$208390[esp+59256], edx
  01823	e8 00 00 00 00	 call	 ?DBQryNewItemLog@CDbManager@@QAEXPADABU_LogItemInfo@@@Z ; CDbManager::DBQryNewItemLog

; 305  : 
; 306  : 				if ( FALSE == qry->Exec( szQuery ) )

  01828	8b 4c 24 34	 mov	 ecx, DWORD PTR $T213127[esp+59248]
  0182c	8d 94 24 58 47
	00 00		 lea	 edx, DWORD PTR _szQuery$[esp+59248]
  01833	52		 push	 edx
  01834	e8 00 00 00 00	 call	 ?Exec@CQuery@@QAEHPBD@Z	; CQuery::Exec
  01839	85 c0		 test	 eax, eax
  0183b	0f 85 a1 00 00
	00		 jne	 $L208392

; 307  : 				{
; 308  : 					WriteLog( "%s, %d\t%s, %s", __FILE__, __LINE__, lpszPlayer1, lpszPlayer2 );

  01841	8d 84 24 64 42
	00 00		 lea	 eax, DWORD PTR _lpszPlayer2$[esp+59248]
  01848	50		 push	 eax
  01849	8d 8c 24 44 42
	00 00		 lea	 ecx, DWORD PTR _lpszPlayer1$[esp+59252]
  01850	51		 push	 ecx
  01851	68 34 01 00 00	 push	 308			; 00000134H
  01856	68 00 00 00 00	 push	 OFFSET FLAT:??_C@_0GH@LHPNFEPP@?2Documents?5and?5Settings?2test?2Mes@
  0185b	68 00 00 00 00	 push	 OFFSET FLAT:??_C@_0O@MCAKDACP@?$CFs?0?5?$CFd?7?$CFs?0?5?$CFs?$AA@
  01860	e8 00 00 00 00	 call	 ?WriteLog@@YAXPBDZZ	; WriteLog

; 309  : 					FreeRequest( lpDbOverlappedPlus );

  01865	8b 54 24 64	 mov	 edx, DWORD PTR $T213128[esp+59268]
  01869	83 c4 14	 add	 esp, 20			; 00000014H
  0186c	52		 push	 edx
  0186d	8b cb		 mov	 ecx, ebx

; 310  : 					return;

  0186f	e9 3d ef ff ff	 jmp	 $L213238
$L213140:

; 278  : 				{
; 279  : 					WriteLog( "%s, %d\t%s, %s", __FILE__, __LINE__, lpszPlayer1, lpszPlayer2 );

  01874	8d 84 24 64 42
	00 00		 lea	 eax, DWORD PTR _lpszPlayer2$[esp+59248]
  0187b	50		 push	 eax
  0187c	8d 8c 24 44 42
	00 00		 lea	 ecx, DWORD PTR _lpszPlayer1$[esp+59252]
  01883	51		 push	 ecx
  01884	68 17 01 00 00	 push	 279			; 00000117H
$L213239:
  01889	68 00 00 00 00	 push	 OFFSET FLAT:??_C@_0GH@LHPNFEPP@?2Documents?5and?5Settings?2test?2Mes@
  0188e	68 00 00 00 00	 push	 OFFSET FLAT:??_C@_0O@MCAKDACP@?$CFs?0?5?$CFd?7?$CFs?0?5?$CFs?$AA@
  01893	e8 00 00 00 00	 call	 ?WriteLog@@YAXPBDZZ	; WriteLog

; 280  : 					FreeRequest( lpDbOverlappedPlus );

  01898	8b 54 24 64	 mov	 edx, DWORD PTR $T213128[esp+59268]
  0189c	83 c4 14	 add	 esp, 20			; 00000014H
  0189f	52		 push	 edx
  018a0	8b cf		 mov	 ecx, edi
  018a2	e8 00 00 00 00	 call	 ?FreeRequest@CDbManager@@QAEXPAUtagDB_OVERLAPPED_PLUS@@@Z ; CDbManager::FreeRequest

; 281  : 					return;

  018a7	8b 44 24 28	 mov	 eax, DWORD PTR _strItem$208378[esp+59248]
  018ab	83 c0 f0	 add	 eax, -16		; fffffff0H
  018ae	c6 84 24 6c e7
	00 00 02	 mov	 BYTE PTR __$EHRec$[esp+59256], 2
  018b6	8d 48 0c	 lea	 ecx, DWORD PTR [eax+12]
  018b9	83 ca ff	 or	 edx, -1
  018bc	f0 0f c1 11	 lock	  xadd	 DWORD PTR [ecx], edx
  018c0	4a		 dec	 edx
  018c1	85 d2		 test	 edx, edx
$L213240:
  018c3	0f 8f ed ee ff
	ff		 jg	 $L212989
  018c9	8b 08		 mov	 ecx, DWORD PTR [eax]
  018cb	8b 11		 mov	 edx, DWORD PTR [ecx]
  018cd	50		 push	 eax
  018ce	ff 52 04	 call	 DWORD PTR [edx+4]
  018d1	e9 e0 ee ff ff	 jmp	 $L212989
$L213153:

; 310  : 					return;

  018d6	8b 5c 24 4c	 mov	 ebx, DWORD PTR $T213126[esp+59248]
  018da	8b 7c 24 58	 mov	 edi, DWORD PTR _iReMainder1$[esp+59248]
  018de	8b 74 24 20	 mov	 esi, DWORD PTR _iReMainder2$[esp+59248]
$L208392:

; 311  : 				}
; 312  : 			}
; 313  : 			if( iSeed2 > 0 )

  018e2	8b 44 24 3c	 mov	 eax, DWORD PTR _iSeed2$[esp+59248]
  018e6	85 c0		 test	 eax, eax
  018e8	0f 8e ba ee ff
	ff		 jle	 $L208395

; 314  : 			{
; 315  : 				LogItemInfo aLogItem;

  018ee	8d 4c 24 70	 lea	 ecx, DWORD PTR _aLogItem$208394[esp+59248]
  018f2	e8 00 00 00 00	 call	 ??0_LogItemInfo@@QAE@XZ	; _LogItemInfo::_LogItemInfo

; 316  : 				::memset( &(aLogItem), 0, sizeof( &(aLogItem) ) );
; 317  : 				aLogItem.SendName = lpszPlayer2;
; 318  : 				aLogItem.RecvName = lpszPlayer1;
; 319  : 				aLogItem.WorldId = dwWorldID;

  018f7	8b 54 24 40	 mov	 edx, DWORD PTR _dwWorldID$[esp+59248]
  018fb	8d 84 24 64 42
	00 00		 lea	 eax, DWORD PTR _lpszPlayer2$[esp+59248]
  01902	89 44 24 74	 mov	 DWORD PTR _aLogItem$208394[esp+59252], eax

; 320  : 				aLogItem.Gold = iReMainder2 + iSeed2;

  01906	8b 44 24 3c	 mov	 eax, DWORD PTR _iSeed2$[esp+59248]
  0190a	8d 8c 24 40 42
	00 00		 lea	 ecx, DWORD PTR _lpszPlayer1$[esp+59248]

; 321  : 				aLogItem.Gold2 = iReMainder2;
; 322  : 				//aLogItem.ItemName = "SEED";
; 323  : 				_stprintf( aLogItem.szItemName, "%d", II_GOLD_SEED1 );

  01911	6a 0c		 push	 12			; 0000000cH
  01913	89 94 24 80 00
	00 00		 mov	 DWORD PTR _aLogItem$208394[esp+59264], edx
  0191a	89 4c 24 7c	 mov	 DWORD PTR _aLogItem$208394[esp+59260], ecx
  0191e	8d 94 24 98 00
	00 00		 lea	 edx, DWORD PTR _aLogItem$208394[esp+59288]
  01925	8d 0c 06	 lea	 ecx, DWORD PTR [esi+eax]
  01928	68 00 00 00 00	 push	 OFFSET FLAT:??_C@_02DPKJAMEF@?$CFd?$AA@
  0192d	52		 push	 edx
  0192e	c7 44 24 7c 00
	00 00 00	 mov	 DWORD PTR _aLogItem$208394[esp+59260], 0
  01936	89 8c 24 8c 00
	00 00		 mov	 DWORD PTR _aLogItem$208394[esp+59276], ecx
  0193d	89 b4 24 90 00
	00 00		 mov	 DWORD PTR _aLogItem$208394[esp+59280], esi
  01944	e8 00 00 00 00	 call	 _sprintf

; 324  : 				aLogItem.itemNumber = iSeed2;

  01949	8b 44 24 48	 mov	 eax, DWORD PTR _iSeed2$[esp+59260]
  0194d	83 c4 0c	 add	 esp, 12			; 0000000cH

; 325  : 				aLogItem.Gold_1 = iReMainder1;
; 326  : 				aLogItem.Action = chAction;
; 327  : 				DBQryNewItemLog( szQuery, aLogItem );

  01950	8d 54 24 70	 lea	 edx, DWORD PTR _aLogItem$208394[esp+59248]
  01954	89 84 24 b4 00
	00 00		 mov	 DWORD PTR _aLogItem$208394[esp+59316], eax
  0195b	8d 4c 24 10	 lea	 ecx, DWORD PTR _chAction$[esp+59248]
  0195f	52		 push	 edx
  01960	8d 84 24 5c 47
	00 00		 lea	 eax, DWORD PTR _szQuery$[esp+59252]
  01967	89 4c 24 74	 mov	 DWORD PTR _aLogItem$208394[esp+59252], ecx
  0196b	50		 push	 eax
  0196c	8b cb		 mov	 ecx, ebx
  0196e	89 bc 24 c4 00
	00 00		 mov	 DWORD PTR _aLogItem$208394[esp+59332], edi
  01975	e8 00 00 00 00	 call	 ?DBQryNewItemLog@CDbManager@@QAEXPADABU_LogItemInfo@@@Z ; CDbManager::DBQryNewItemLog

; 328  : 
; 329  : 				if ( FALSE == qry->Exec( szQuery ) )

  0197a	8d 8c 24 58 47
	00 00		 lea	 ecx, DWORD PTR _szQuery$[esp+59248]
  01981	51		 push	 ecx
  01982	8b 4c 24 38	 mov	 ecx, DWORD PTR $T213127[esp+59252]
  01986	e8 00 00 00 00	 call	 ?Exec@CQuery@@QAEHPBD@Z	; CQuery::Exec
  0198b	85 c0		 test	 eax, eax
  0198d	0f 85 15 ee ff
	ff		 jne	 $L208395

; 330  : 				{
; 331  : 					WriteLog( "%s, %d\t%s, %s", __FILE__, __LINE__, lpszPlayer1, lpszPlayer2 );

  01993	8d 94 24 64 42
	00 00		 lea	 edx, DWORD PTR _lpszPlayer2$[esp+59248]
  0199a	52		 push	 edx
  0199b	8d 84 24 44 42
	00 00		 lea	 eax, DWORD PTR _lpszPlayer1$[esp+59252]
  019a2	50		 push	 eax
  019a3	68 4b 01 00 00	 push	 331			; 0000014bH
  019a8	68 00 00 00 00	 push	 OFFSET FLAT:??_C@_0GH@LHPNFEPP@?2Documents?5and?5Settings?2test?2Mes@
  019ad	68 00 00 00 00	 push	 OFFSET FLAT:??_C@_0O@MCAKDACP@?$CFs?0?5?$CFd?7?$CFs?0?5?$CFs?$AA@
  019b2	e8 00 00 00 00	 call	 ?WriteLog@@YAXPBDZZ	; WriteLog

; 332  : 					FreeRequest( lpDbOverlappedPlus );

  019b7	8b 4c 24 64	 mov	 ecx, DWORD PTR $T213128[esp+59268]
  019bb	83 c4 14	 add	 esp, 20			; 00000014H
  019be	51		 push	 ecx
  019bf	8b cb		 mov	 ecx, ebx
  019c1	e8 00 00 00 00	 call	 ?FreeRequest@CDbManager@@QAEXPAUtagDB_OVERLAPPED_PLUS@@@Z ; CDbManager::FreeRequest

; 333  : 					return;

  019c6	8b 44 24 30	 mov	 eax, DWORD PTR _strPlayer2$[esp+59248]
  019ca	83 c0 f0	 add	 eax, -16		; fffffff0H
  019cd	c6 84 24 6c e7
	00 00 01	 mov	 BYTE PTR __$EHRec$[esp+59256], 1
  019d5	8d 50 0c	 lea	 edx, DWORD PTR [eax+12]
  019d8	83 c9 ff	 or	 ecx, -1
  019db	f0 0f c1 0a	 lock	  xadd	 DWORD PTR [edx], ecx
  019df	49		 dec	 ecx
  019e0	85 c9		 test	 ecx, ecx
  019e2	e9 eb ed ff ff	 jmp	 $L213186
_TEXT	ENDS
;	COMDAT text$x
text$x	SEGMENT
$L211781:
  00000	8d 8d 90 1a ff
	ff		 lea	 ecx, DWORD PTR _arRead$[ebp]
  00006	e9 00 00 00 00	 jmp	 ??1CAr@@QAE@XZ		; CAr::~CAr
$L211782:
  0000b	8d 8d bc 18 ff
	ff		 lea	 ecx, DWORD PTR _strPlayer1$[ebp]
  00011	e9 00 00 00 00	 jmp	 ??1?$CStringT@DV?$StrTraitMFC@DV?$ChTraitsCRT@D@ATL@@@@@ATL@@QAE@XZ ; ATL::CStringT<char,StrTraitMFC<char,ATL::ChTraitsCRT<char> > >::~CStringT<char,StrTraitMFC<char,ATL::ChTraitsCRT<char> > >
$L211783:
  00016	8d 8d c0 18 ff
	ff		 lea	 ecx, DWORD PTR _strPlayer2$[ebp]
  0001c	e9 00 00 00 00	 jmp	 ??1?$CStringT@DV?$StrTraitMFC@DV?$ChTraitsCRT@D@ATL@@@@@ATL@@QAE@XZ ; ATL::CStringT<char,StrTraitMFC<char,ATL::ChTraitsCRT<char> > >::~CStringT<char,StrTraitMFC<char,ATL::ChTraitsCRT<char> > >
$L211786:
  00021	8d 8d b0 18 ff
	ff		 lea	 ecx, DWORD PTR _strItem$208407[ebp]
  00027	e9 00 00 00 00	 jmp	 ??1?$CStringT@DV?$StrTraitMFC@DV?$ChTraitsCRT@D@ATL@@@@@ATL@@QAE@XZ ; ATL::CStringT<char,StrTraitMFC<char,ATL::ChTraitsCRT<char> > >::~CStringT<char,StrTraitMFC<char,ATL::ChTraitsCRT<char> > >
$L211784:
  0002c	8d 8d b8 18 ff
	ff		 lea	 ecx, DWORD PTR _strItem$208354[ebp]
  00032	e9 00 00 00 00	 jmp	 ??1?$CStringT@DV?$StrTraitMFC@DV?$ChTraitsCRT@D@ATL@@@@@ATL@@QAE@XZ ; ATL::CStringT<char,StrTraitMFC<char,ATL::ChTraitsCRT<char> > >::~CStringT<char,StrTraitMFC<char,ATL::ChTraitsCRT<char> > >
$L211785:
  00037	8d 8d b8 18 ff
	ff		 lea	 ecx, DWORD PTR _strItem$208378[ebp]
  0003d	e9 00 00 00 00	 jmp	 ??1?$CStringT@DV?$StrTraitMFC@DV?$ChTraitsCRT@D@ATL@@@@@ATL@@QAE@XZ ; ATL::CStringT<char,StrTraitMFC<char,ATL::ChTraitsCRT<char> > >::~CStringT<char,StrTraitMFC<char,ATL::ChTraitsCRT<char> > >
__ehhandler$?LogItem@CDbManager@@AAEXPAVCQuery@@PAUtagDB_OVERLAPPED_PLUS@@@Z:
  00042	b8 00 00 00 00	 mov	 eax, OFFSET FLAT:$T213130
  00047	e9 00 00 00 00	 jmp	 ___CxxFrameHandler
text$x	ENDS
?LogItem@CDbManager@@AAEXPAVCQuery@@PAUtagDB_OVERLAPPED_PLUS@@@Z ENDP ; CDbManager::LogItem
PUBLIC	?DBQryLog@CDbManager@@QAEXPAD0KH_JHHHHHHHHHHDH0MMMHH0KHH0HHH0H0HK@Z ; CDbManager::DBQryLog
PUBLIC	??_C@_0CDJ@CLHOMLPK@LOG_STR?5?8?$CFs?8?0?$EAim_idPlayer?$DN?8?$CF07d?8@ ; `string'
;	COMDAT xdata$x
; File c:\program files\microsoft visual studio .net 2003\vc7\atlmfc\include\atlsimpstr.h
xdata$x	SEGMENT
$T213279 DD	0ffffffffH
	DD	FLAT:$L213245
$T213277 DD	019930520H
	DD	01H
	DD	FLAT:$T213279
	DD	2 DUP(00H)
	DD	2 DUP(00H)
xdata$x	ENDS
;	COMDAT ??_C@_0CDJ@CLHOMLPK@LOG_STR?5?8?$CFs?8?0?$EAim_idPlayer?$DN?8?$CF07d?8@
CONST	SEGMENT
??_C@_0CDJ@CLHOMLPK@LOG_STR?5?8?$CFs?8?0?$EAim_idPlayer?$DN?8?$CF07d?8@ DB 'L'
	DB	'OG_STR ''%s'',@im_idPlayer=''%07d'',@iserverindex=''%02d'',@i'
	DB	'm_nExp1=%I64d,@im_nLevel=%d,@im_nJob=%d,@im_nJobLv=%d,@im_nFl'
	DB	'ightLv=%d,@im_nStr=%d,@im_nDex=%d,@im_nInt=%d,@im_nSta=%d,@im'
	DB	'_nRemainGP=%d,@im_nRemainLP=%d,@iState=''%c'',@idwWorldID=%d,'
	DB	'@ikilled_m_szName=''%s'',@im_vPos_x=%f,@im_vPos_y=%f,@im_vPos'
	DB	'_z=%f,@iattackPower=%d,@imax_HP=%d,@im_GetszName=''%s'',@im_d'
	DB	'wGold=%d,@im_nRemainGold=%d,@iItem_UniqueNo=%d,@iItem_Name='''
	DB	'%s'',@iItem_durability=%d,@iItem_count=%d,@iItem_AddLv=%d,@iS'
	DB	'tart_Time=''%s'',@iTotalPlayTime=%d,@iremoteIP=''%s'',@iQuest'
	DB	'_Index=%d,@ikilled_m_idPlayer=''%07d''', 00H ; `string'
; Function compile flags: /Ogty
; File c:\documents and settings\test\mes documents\source\virtuos_v17\build\program\_database\dbmanagerlog.cpp
CONST	ENDS
;	COMDAT ?DBQryLog@CDbManager@@QAEXPAD0KH_JHHHHHHHHHHDH0MMMHH0KHH0HHH0H0HK@Z
_TEXT	SEGMENT
__$EHRec$ = -12						; size = 12
_qryLog$ = 8						; size = 4
_Gu$ = 12						; size = 4
_idPlayer$ = 16						; size = 4
_nserverindex$ = 20					; size = 4
_nExp1$ = 24						; size = 8
_nLevel$ = 32						; size = 4
_nJob$ = 36						; size = 4
_JobLv$ = 40						; size = 4
_FlightLv$ = 44						; size = 4
_nStr$ = 48						; size = 4
_nDex$ = 52						; size = 4
_nInt$ = 56						; size = 4
_nSta$ = 60						; size = 4
_nRemainGP$ = 64					; size = 4
_nRemainLP$ = 68					; size = 4
_szState$ = 72						; size = 1
_WorldID$ = 76						; size = 4
_szkilled_szName$ = 80					; size = 4
_vPos_x$ = 84						; size = 4
_vPos_y$ = 88						; size = 4
_vPos_z$ = 92						; size = 4
_nAttackPower$ = 96					; size = 4
_nMax_HP$ = 100						; size = 4
_uGetidPlayer$ = 104					; size = 4
_dwGold$ = 108						; size = 4
_nRemainGold$ = 112					; size = 4
_nItem_UniqueNo$ = 116					; size = 4
_strItem$ = 120						; size = 4
_szItem_Name$ = 120					; size = 4
_Item_durability$ = 124					; size = 4
_Item_count$ = 128					; size = 4
_ItemAddLv$ = 132					; size = 4
_szStart_Time$ = 136					; size = 4
_TotalPlayerTime$ = 140					; size = 4
_szRemoteIP$ = 144					; size = 4
_nQuest_Index$ = 148					; size = 4
_uKill_idPlayer$ = 152					; size = 4
?DBQryLog@CDbManager@@QAEXPAD0KH_JHHHHHHHHHHDH0MMMHH0KHH0HHH0H0HK@Z PROC NEAR ; CDbManager::DBQryLog, COMDAT
; _this$ = ecx

; 735  : {

  00000	64 a1 00 00 00
	00		 mov	 eax, DWORD PTR fs:__except_list
  00006	6a ff		 push	 -1
  00008	68 00 00 00 00	 push	 __ehhandler$?DBQryLog@CDbManager@@QAEXPAD0KH_JHHHHHHHHHHDH0MMMHH0KHH0HHH0H0HK@Z
  0000d	50		 push	 eax

; 736  : 	CString strItem	= szItem_Name;

  0000e	8b 84 24 80 00
	00 00		 mov	 eax, DWORD PTR _szItem_Name$[esp+8]
  00015	64 89 25 00 00
	00 00		 mov	 DWORD PTR fs:__except_list, esp
  0001c	50		 push	 eax
  0001d	8d 8c 24 84 00
	00 00		 lea	 ecx, DWORD PTR _strItem$[esp+12]
  00024	e8 00 00 00 00	 call	 ??0?$CStringT@DV?$StrTraitMFC@DV?$ChTraitsCRT@D@ATL@@@@@ATL@@QAE@PBD@Z ; ATL::CStringT<char,StrTraitMFC<char,ATL::ChTraitsCRT<char> > >::CStringT<char,StrTraitMFC<char,ATL::ChTraitsCRT<char> > >

; 737  : 	strItem.Replace( '\'', ' ' );

  00029	6a 20		 push	 32			; 00000020H
  0002b	6a 27		 push	 39			; 00000027H
  0002d	8d 8c 24 88 00
	00 00		 lea	 ecx, DWORD PTR _strItem$[esp+16]
  00034	c7 44 24 10 00
	00 00 00	 mov	 DWORD PTR __$EHRec$[esp+28], 0
  0003c	e8 00 00 00 00	 call	 ?Replace@?$CStringT@DV?$StrTraitMFC@DV?$ChTraitsCRT@D@ATL@@@@@ATL@@QAEHDD@Z ; ATL::CStringT<char,StrTraitMFC<char,ATL::ChTraitsCRT<char> > >::Replace

; 738  : 	sprintf( qryLog, "LOG_STR '%s',@im_idPlayer='%07d',@iserverindex='%02d',@im_nExp1=%I64d,@im_nLevel=%d,"
; 739  : 		"@im_nJob=%d,@im_nJobLv=%d,@im_nFlightLv=%d,@im_nStr=%d,@im_nDex=%d,"
; 740  : 		"@im_nInt=%d,@im_nSta=%d,@im_nRemainGP=%d,@im_nRemainLP=%d,@iState='%c',"
; 741  : 		"@idwWorldID=%d,@ikilled_m_szName='%s',@im_vPos_x=%f,@im_vPos_y=%f,@im_vPos_z=%f,"
; 742  : 		"@iattackPower=%d,@imax_HP=%d,@im_GetszName='%s',@im_dwGold=%d,@im_nRemainGold=%d,"
; 743  : 		"@iItem_UniqueNo=%d,@iItem_Name='%s',@iItem_durability=%d,@iItem_count=%d,@iItem_AddLv=%d,"
; 744  : 		"@iStart_Time='%s',@iTotalPlayTime=%d,@iremoteIP='%s',@iQuest_Index=%d,@ikilled_m_idPlayer='%07d'",
; 745  : 		Gu, idPlayer, nserverindex, nExp1, nLevel,
; 746  : 		nJob, JobLv, FlightLv, nStr, nDex,
; 747  : 		nInt, nSta, nRemainGP, nRemainLP, szState,
; 748  : 		WorldID, szkilled_szName, vPos_x, vPos_y, vPos_z,
; 749  : 		nAttackPower, nMax_HP, uGetidPlayer, dwGold, nRemainGold,
; 750  : //		nItem_UniqueNo, szItem_Name, Item_durability, Item_count, ItemAddLv,
; 751  : 		nItem_UniqueNo, (LPCSTR)strItem, Item_durability, Item_count, ItemAddLv,
; 752  : 		szStart_Time, TotalPlayerTime, szRemoteIP, nQuest_Index, uKill_idPlayer );	

  00041	d9 44 24 64	 fld	 DWORD PTR _vPos_z$[esp+8]
  00045	8b 8c 24 a0 00
	00 00		 mov	 ecx, DWORD PTR _uKill_idPlayer$[esp+8]
  0004c	51		 push	 ecx
  0004d	8b 94 24 a0 00
	00 00		 mov	 edx, DWORD PTR _nQuest_Index$[esp+12]
  00054	52		 push	 edx
  00055	8b 84 24 a0 00
	00 00		 mov	 eax, DWORD PTR _szRemoteIP$[esp+16]
  0005c	50		 push	 eax
  0005d	8b 8c 24 a0 00
	00 00		 mov	 ecx, DWORD PTR _TotalPlayerTime$[esp+20]
  00064	51		 push	 ecx
  00065	8b 94 24 a0 00
	00 00		 mov	 edx, DWORD PTR _szStart_Time$[esp+24]
  0006c	8b 84 24 9c 00
	00 00		 mov	 eax, DWORD PTR _ItemAddLv$[esp+24]
  00073	52		 push	 edx
  00074	8b 8c 24 9c 00
	00 00		 mov	 ecx, DWORD PTR _Item_count$[esp+28]
  0007b	50		 push	 eax
  0007c	8b 94 24 9c 00
	00 00		 mov	 edx, DWORD PTR _Item_durability$[esp+32]
  00083	8b 84 24 98 00
	00 00		 mov	 eax, DWORD PTR _strItem$[esp+32]
  0008a	51		 push	 ecx
  0008b	8b 8c 24 98 00
	00 00		 mov	 ecx, DWORD PTR _nItem_UniqueNo$[esp+36]
  00092	52		 push	 edx
  00093	8b 94 24 98 00
	00 00		 mov	 edx, DWORD PTR _nRemainGold$[esp+40]
  0009a	50		 push	 eax
  0009b	8b 84 24 98 00
	00 00		 mov	 eax, DWORD PTR _dwGold$[esp+44]
  000a2	51		 push	 ecx
  000a3	8b 8c 24 98 00
	00 00		 mov	 ecx, DWORD PTR _uGetidPlayer$[esp+48]
  000aa	52		 push	 edx
  000ab	8b 94 24 98 00
	00 00		 mov	 edx, DWORD PTR _nMax_HP$[esp+52]
  000b2	50		 push	 eax
  000b3	8b 84 24 98 00
	00 00		 mov	 eax, DWORD PTR _nAttackPower$[esp+56]
  000ba	51		 push	 ecx
  000bb	8b 8c 24 8c 00
	00 00		 mov	 ecx, DWORD PTR _szkilled_szName$[esp+60]
  000c2	52		 push	 edx
  000c3	8b 94 24 8c 00
	00 00		 mov	 edx, DWORD PTR _WorldID$[esp+64]
  000ca	50		 push	 eax
  000cb	0f be 84 24 8c
	00 00 00	 movsx	 eax, BYTE PTR _szState$[esp+68]
  000d3	83 ec 18	 sub	 esp, 24			; 00000018H
  000d6	dd 5c 24 10	 fstp	 QWORD PTR [esp+16]
  000da	d9 84 24 b4 00
	00 00		 fld	 DWORD PTR _vPos_y$[esp+92]
  000e1	dd 5c 24 08	 fstp	 QWORD PTR [esp+8]
  000e5	d9 84 24 b0 00
	00 00		 fld	 DWORD PTR _vPos_x$[esp+92]
  000ec	dd 1c 24	 fstp	 QWORD PTR [esp]
  000ef	51		 push	 ecx
  000f0	8b 8c 24 a4 00
	00 00		 mov	 ecx, DWORD PTR _nRemainLP$[esp+96]
  000f7	52		 push	 edx
  000f8	8b 94 24 a4 00
	00 00		 mov	 edx, DWORD PTR _nRemainGP$[esp+100]
  000ff	50		 push	 eax
  00100	8b 84 24 a4 00
	00 00		 mov	 eax, DWORD PTR _nSta$[esp+104]
  00107	51		 push	 ecx
  00108	8b 8c 24 a4 00
	00 00		 mov	 ecx, DWORD PTR _nInt$[esp+108]
  0010f	52		 push	 edx
  00110	8b 94 24 a4 00
	00 00		 mov	 edx, DWORD PTR _nDex$[esp+112]
  00117	50		 push	 eax
  00118	8b 84 24 a4 00
	00 00		 mov	 eax, DWORD PTR _nStr$[esp+116]
  0011f	51		 push	 ecx
  00120	8b 8c 24 a4 00
	00 00		 mov	 ecx, DWORD PTR _FlightLv$[esp+120]
  00127	52		 push	 edx
  00128	8b 94 24 a4 00
	00 00		 mov	 edx, DWORD PTR _JobLv$[esp+124]
  0012f	50		 push	 eax
  00130	8b 84 24 a4 00
	00 00		 mov	 eax, DWORD PTR _nJob$[esp+128]
  00137	51		 push	 ecx
  00138	8b 8c 24 a4 00
	00 00		 mov	 ecx, DWORD PTR _nLevel$[esp+132]
  0013f	52		 push	 edx
  00140	8b 94 24 a4 00
	00 00		 mov	 edx, DWORD PTR _nExp1$[esp+140]
  00147	50		 push	 eax
  00148	8b 84 24 a4 00
	00 00		 mov	 eax, DWORD PTR _nExp1$[esp+140]
  0014f	51		 push	 ecx
  00150	52		 push	 edx
  00151	8b 8c 24 a8 00
	00 00		 mov	 ecx, DWORD PTR _nserverindex$[esp+148]
  00158	8b 94 24 a4 00
	00 00		 mov	 edx, DWORD PTR _idPlayer$[esp+148]
  0015f	50		 push	 eax
  00160	8b 84 24 a4 00
	00 00		 mov	 eax, DWORD PTR _Gu$[esp+152]
  00167	51		 push	 ecx
  00168	8b 8c 24 a4 00
	00 00		 mov	 ecx, DWORD PTR _qryLog$[esp+156]
  0016f	52		 push	 edx
  00170	50		 push	 eax
  00171	68 00 00 00 00	 push	 OFFSET FLAT:??_C@_0CDJ@CLHOMLPK@LOG_STR?5?8?$CFs?8?0?$EAim_idPlayer?$DN?8?$CF07d?8@
  00176	51		 push	 ecx
  00177	e8 00 00 00 00	 call	 _sprintf

; 753  : 	if( strlen(qryLog) > 40960 )
; 754  : 		ASSERT(0);
; 755  : 	
; 756  : }

  0017c	8b 84 24 24 01
	00 00		 mov	 eax, DWORD PTR _strItem$[esp+172]
  00183	83 c0 f0	 add	 eax, -16		; fffffff0H
  00186	81 c4 a4 00 00
	00		 add	 esp, 164		; 000000a4H
  0018c	c7 44 24 08 ff
	ff ff ff	 mov	 DWORD PTR __$EHRec$[esp+20], -1
  00194	8d 50 0c	 lea	 edx, DWORD PTR [eax+12]
  00197	83 c9 ff	 or	 ecx, -1
  0019a	f0 0f c1 0a	 lock	  xadd	 DWORD PTR [edx], ecx
  0019e	49		 dec	 ecx
  0019f	85 c9		 test	 ecx, ecx
  001a1	7f 08		 jg	 SHORT $L213272
  001a3	8b 08		 mov	 ecx, DWORD PTR [eax]
  001a5	8b 11		 mov	 edx, DWORD PTR [ecx]
  001a7	50		 push	 eax
  001a8	ff 52 04	 call	 DWORD PTR [edx+4]
$L213272:
  001ab	8b 0c 24	 mov	 ecx, DWORD PTR __$EHRec$[esp+12]
  001ae	64 89 0d 00 00
	00 00		 mov	 DWORD PTR fs:__except_list, ecx
  001b5	83 c4 0c	 add	 esp, 12			; 0000000cH
  001b8	c2 94 00	 ret	 148			; 00000094H
_TEXT	ENDS
;	COMDAT text$x
text$x	SEGMENT
$L213245:
  00000	8d 4d 74	 lea	 ecx, DWORD PTR _strItem$[ebp-4]
  00003	e9 00 00 00 00	 jmp	 ??1?$CStringT@DV?$StrTraitMFC@DV?$ChTraitsCRT@D@ATL@@@@@ATL@@QAE@XZ ; ATL::CStringT<char,StrTraitMFC<char,ATL::ChTraitsCRT<char> > >::~CStringT<char,StrTraitMFC<char,ATL::ChTraitsCRT<char> > >
__ehhandler$?DBQryLog@CDbManager@@QAEXPAD0KH_JHHHHHHHHHHDH0MMMHH0KHH0HHH0H0HK@Z:
  00008	b8 00 00 00 00	 mov	 eax, OFFSET FLAT:$T213277
  0000d	e9 00 00 00 00	 jmp	 ___CxxFrameHandler
text$x	ENDS
?DBQryLog@CDbManager@@QAEXPAD0KH_JHHHHHHHHHHDH0MMMHH0KHH0HHH0H0HK@Z ENDP ; CDbManager::DBQryLog
PUBLIC	??_C@_01GEODFPGF@?8?$AA@			; `string'
PUBLIC	?Gamema_Chat@CDbManager@@QAEXPAVCQuery@@PAUtagDB_OVERLAPPED_PLUS@@@Z ; CDbManager::Gamema_Chat
PUBLIC	??_C@_02BAABKJLB@?9?9?$AA@			; `string'
PUBLIC	??_C@_02FMMEOLBI@?1?$CK?$AA@			; `string'
PUBLIC	??_C@_02CHHINNLG@?$CK?1?$AA@			; `string'
PUBLIC	??_C@_0EL@OGOADBGI@LOG_GAMEMASTER_STR?5?$EAim_idPlayer?$DN@ ; `string'
;	COMDAT xdata$x
; File c:\program files\microsoft visual studio .net 2003\vc7\atlmfc\include\atlsimpstr.h
xdata$x	SEGMENT
$T213355 DD	0ffffffffH
	DD	FLAT:$L213285
	DD	00H
	DD	FLAT:$L213286
$T213350 DD	019930520H
	DD	02H
	DD	FLAT:$T213355
	DD	2 DUP(00H)
	DD	2 DUP(00H)
xdata$x	ENDS
;	COMDAT ??_C@_02BAABKJLB@?9?9?$AA@
CONST	SEGMENT
??_C@_02BAABKJLB@?9?9?$AA@ DB '--', 00H			; `string'
CONST	ENDS
;	COMDAT ??_C@_01GEODFPGF@?8?$AA@
CONST	SEGMENT
??_C@_01GEODFPGF@?8?$AA@ DB '''', 00H			; `string'
CONST	ENDS
;	COMDAT ??_C@_02FMMEOLBI@?1?$CK?$AA@
CONST	SEGMENT
??_C@_02FMMEOLBI@?1?$CK?$AA@ DB '/*', 00H		; `string'
CONST	ENDS
;	COMDAT ??_C@_02CHHINNLG@?$CK?1?$AA@
CONST	SEGMENT
??_C@_02CHHINNLG@?$CK?1?$AA@ DB '*/', 00H		; `string'
CONST	ENDS
;	COMDAT ??_C@_0EL@OGOADBGI@LOG_GAMEMASTER_STR?5?$EAim_idPlayer?$DN@
CONST	SEGMENT
??_C@_0EL@OGOADBGI@LOG_GAMEMASTER_STR?5?$EAim_idPlayer?$DN@ DB 'LOG_GAMEM'
	DB	'ASTER_STR @im_idPlayer=''%07d'',@iserverindex=''%02d'',@iszWo'
	DB	'rds=''%s''', 00H				; `string'
; Function compile flags: /Ogty
; File c:\documents and settings\test\mes documents\source\virtuos_v17\build\program\_database\dbmanagerlog.cpp
CONST	ENDS
;	COMDAT ?Gamema_Chat@CDbManager@@QAEXPAVCQuery@@PAUtagDB_OVERLAPPED_PLUS@@@Z
_TEXT	SEGMENT
_strBuf$ = -58428					; size = 4
_uidPlayer$ = -58424					; size = 4
$T213347 = -58420					; size = 4
_arRead$ = -58416					; size = 16404
_szGamema$ = -42008					; size = 1024
_szQuery$ = -40984					; size = 40960
__$ArrayPad$ = -20					; size = 4
__$EHRec$ = -12						; size = 12
__$ReturnAddr$ = 4					; size = 4
_qry$ = 8						; size = 4
_lpDbOverlappedPlus$ = 12				; size = 4
?Gamema_Chat@CDbManager@@QAEXPAVCQuery@@PAUtagDB_OVERLAPPED_PLUS@@@Z PROC NEAR ; CDbManager::Gamema_Chat, COMDAT
; _this$ = ecx

; 759  : {

  00000	55		 push	 ebp
  00001	8b ec		 mov	 ebp, esp
  00003	83 e4 f8	 and	 esp, -8			; fffffff8H
  00006	6a ff		 push	 -1
  00008	68 00 00 00 00	 push	 __ehhandler$?Gamema_Chat@CDbManager@@QAEXPAVCQuery@@PAUtagDB_OVERLAPPED_PLUS@@@Z
  0000d	64 a1 00 00 00
	00		 mov	 eax, DWORD PTR fs:__except_list
  00013	50		 push	 eax
  00014	64 89 25 00 00
	00 00		 mov	 DWORD PTR fs:__except_list, esp
  0001b	51		 push	 ecx
  0001c	b8 2c e4 00 00	 mov	 eax, 58412		; 0000e42cH
  00021	e8 00 00 00 00	 call	 __chkstk
  00026	a1 00 00 00 00	 mov	 eax, DWORD PTR ___security_cookie
  0002b	53		 push	 ebx
  0002c	56		 push	 esi
  0002d	8b 75 0c	 mov	 esi, DWORD PTR _lpDbOverlappedPlus$[ebp]

; 760  : 	CAr arRead( lpDbOverlappedPlus->lpBuf, lpDbOverlappedPlus->uBufSize );

  00030	8b 56 18	 mov	 edx, DWORD PTR [esi+24]
  00033	8b d9		 mov	 ebx, ecx
  00035	8b 4e 1c	 mov	 ecx, DWORD PTR [esi+28]
  00038	33 c5		 xor	 eax, ebp
  0003a	57		 push	 edi
  0003b	51		 push	 ecx
  0003c	89 84 24 38 e4
	00 00		 mov	 DWORD PTR __$ArrayPad$[esp+58444], eax
  00043	8b 45 08	 mov	 eax, DWORD PTR _qry$[ebp]
  00046	52		 push	 edx
  00047	8d 4c 24 20	 lea	 ecx, DWORD PTR _arRead$[esp+58448]

; 783  : //		qry->Clear();
; 784  : 		FreeRequest( lpDbOverlappedPlus );
; 785  : 		return;
; 786  : 	}
; 787  : 
; 788  : //	qry->Clear();
; 789  : 	FreeRequest( lpDbOverlappedPlus );

  0004b	89 44 24 1c	 mov	 DWORD PTR $T213347[esp+58448], eax
  0004f	e8 00 00 00 00	 call	 ??0CAr@@QAE@PAXI@Z	; CAr::CAr
  00054	8b 4c 24 20	 mov	 ecx, DWORD PTR _arRead$[esp+58448]
  00058	8b 54 24 24	 mov	 edx, DWORD PTR _arRead$[esp+58452]
  0005c	33 ff		 xor	 edi, edi
  0005e	8d 41 04	 lea	 eax, DWORD PTR [ecx+4]
  00061	3b c2		 cmp	 eax, edx
  00063	89 bc 24 44 e4
	00 00		 mov	 DWORD PTR __$EHRec$[esp+58448], edi
  0006a	77 0c		 ja	 SHORT $L213289
  0006c	8b 09		 mov	 ecx, DWORD PTR [ecx]
  0006e	89 4c 24 10	 mov	 DWORD PTR _uidPlayer$[esp+58440], ecx
  00072	89 44 24 20	 mov	 DWORD PTR _arRead$[esp+58448], eax
  00076	eb 08		 jmp	 SHORT $L213290

; 761  : 
; 762  : 	char szGamema[1024];
; 763  : 	u_long uidPlayer;
; 764  : 
; 765  : 	arRead >> uidPlayer;

$L213289:
  00078	89 7c 24 10	 mov	 DWORD PTR _uidPlayer$[esp+58440], edi
  0007c	89 54 24 20	 mov	 DWORD PTR _arRead$[esp+58448], edx
$L213290:

; 766  : 	arRead.ReadString( szGamema, 1024 );

  00080	68 00 04 00 00	 push	 1024			; 00000400H
  00085	8d 94 24 34 40
	00 00		 lea	 edx, DWORD PTR _szGamema$[esp+58444]
  0008c	52		 push	 edx
  0008d	8d 4c 24 20	 lea	 ecx, DWORD PTR _arRead$[esp+58448]
  00091	e8 00 00 00 00	 call	 ?ReadString@CAr@@QAEPADPADH@Z ; CAr::ReadString

; 767  : 	
; 768  : 	CString strBuf = szGamema;

  00096	8d 84 24 30 40
	00 00		 lea	 eax, DWORD PTR _szGamema$[esp+58440]
  0009d	50		 push	 eax
  0009e	8d 4c 24 10	 lea	 ecx, DWORD PTR _strBuf$[esp+58444]
  000a2	e8 00 00 00 00	 call	 ??0?$CStringT@DV?$StrTraitMFC@DV?$ChTraitsCRT@D@ATL@@@@@ATL@@QAE@PBD@Z ; ATL::CStringT<char,StrTraitMFC<char,ATL::ChTraitsCRT<char> > >::CStringT<char,StrTraitMFC<char,ATL::ChTraitsCRT<char> > >

; 769  : 	strBuf.Replace( "--", "" );

  000a7	68 00 00 00 00	 push	 OFFSET FLAT:??_C@_00CNPNBAHC@?$AA@
  000ac	68 00 00 00 00	 push	 OFFSET FLAT:??_C@_02BAABKJLB@?9?9?$AA@
  000b1	8d 4c 24 14	 lea	 ecx, DWORD PTR _strBuf$[esp+58448]
  000b5	c6 84 24 4c e4
	00 00 01	 mov	 BYTE PTR __$EHRec$[esp+58456], 1
  000bd	e8 00 00 00 00	 call	 ?Replace@?$CStringT@DV?$StrTraitMFC@DV?$ChTraitsCRT@D@ATL@@@@@ATL@@QAEHPBD0@Z ; ATL::CStringT<char,StrTraitMFC<char,ATL::ChTraitsCRT<char> > >::Replace

; 770  : 	strBuf.Replace( "'", "" );

  000c2	68 00 00 00 00	 push	 OFFSET FLAT:??_C@_00CNPNBAHC@?$AA@
  000c7	68 00 00 00 00	 push	 OFFSET FLAT:??_C@_01GEODFPGF@?8?$AA@
  000cc	8d 4c 24 14	 lea	 ecx, DWORD PTR _strBuf$[esp+58448]
  000d0	e8 00 00 00 00	 call	 ?Replace@?$CStringT@DV?$StrTraitMFC@DV?$ChTraitsCRT@D@ATL@@@@@ATL@@QAEHPBD0@Z ; ATL::CStringT<char,StrTraitMFC<char,ATL::ChTraitsCRT<char> > >::Replace

; 771  : 	strBuf.Replace( "/*", "" );

  000d5	68 00 00 00 00	 push	 OFFSET FLAT:??_C@_00CNPNBAHC@?$AA@
  000da	68 00 00 00 00	 push	 OFFSET FLAT:??_C@_02FMMEOLBI@?1?$CK?$AA@
  000df	8d 4c 24 14	 lea	 ecx, DWORD PTR _strBuf$[esp+58448]
  000e3	e8 00 00 00 00	 call	 ?Replace@?$CStringT@DV?$StrTraitMFC@DV?$ChTraitsCRT@D@ATL@@@@@ATL@@QAEHPBD0@Z ; ATL::CStringT<char,StrTraitMFC<char,ATL::ChTraitsCRT<char> > >::Replace

; 772  : 	strBuf.Replace( "*/", "" );

  000e8	68 00 00 00 00	 push	 OFFSET FLAT:??_C@_00CNPNBAHC@?$AA@
  000ed	68 00 00 00 00	 push	 OFFSET FLAT:??_C@_02CHHINNLG@?$CK?1?$AA@
  000f2	8d 4c 24 14	 lea	 ecx, DWORD PTR _strBuf$[esp+58448]
  000f6	e8 00 00 00 00	 call	 ?Replace@?$CStringT@DV?$StrTraitMFC@DV?$ChTraitsCRT@D@ATL@@@@@ATL@@QAEHPBD0@Z ; ATL::CStringT<char,StrTraitMFC<char,ATL::ChTraitsCRT<char> > >::Replace

; 773  : 
; 774  : 	// LOG_GAMEMASTER_STR '%s','%s','%s'
; 775  : 	char szQuery[QUERY_SIZE]	= { 0,};
; 776  : 	sprintf( szQuery,
; 777  : 		"LOG_GAMEMASTER_STR @im_idPlayer='%07d',@iserverindex='%02d',@iszWords='%s'", uidPlayer, g_appInfo.dwSys, strBuf );

  000fb	8b 15 00 00 00
	00		 mov	 edx, DWORD PTR ?g_appInfo@@3UAppInfo@@A
  00101	33 c0		 xor	 eax, eax
  00103	c6 84 24 30 44
	00 00 00	 mov	 BYTE PTR _szQuery$[esp+58440], 0
  0010b	b9 ff 27 00 00	 mov	 ecx, 10239		; 000027ffH
  00110	8d bc 24 31 44
	00 00		 lea	 edi, DWORD PTR _szQuery$[esp+58441]
  00117	f3 ab		 rep stosd
  00119	8b 4c 24 0c	 mov	 ecx, DWORD PTR _strBuf$[esp+58440]
  0011d	66 ab		 stosw
  0011f	51		 push	 ecx
  00120	52		 push	 edx
  00121	aa		 stosb
  00122	8b 44 24 18	 mov	 eax, DWORD PTR _uidPlayer$[esp+58448]
  00126	50		 push	 eax
  00127	8d 8c 24 3c 44
	00 00		 lea	 ecx, DWORD PTR _szQuery$[esp+58452]
  0012e	68 00 00 00 00	 push	 OFFSET FLAT:??_C@_0EL@OGOADBGI@LOG_GAMEMASTER_STR?5?$EAim_idPlayer?$DN@
  00133	51		 push	 ecx
  00134	e8 00 00 00 00	 call	 _sprintf

; 778  : 
; 779  : //	qry->Clear();
; 780  : 	if ( FALSE == qry->Exec( szQuery ) )

  00139	8b 4c 24 28	 mov	 ecx, DWORD PTR $T213347[esp+58460]
  0013d	83 c4 14	 add	 esp, 20			; 00000014H
  00140	8d 94 24 30 44
	00 00		 lea	 edx, DWORD PTR _szQuery$[esp+58440]
  00147	52		 push	 edx
  00148	e8 00 00 00 00	 call	 ?Exec@CQuery@@QAEHPBD@Z	; CQuery::Exec
  0014d	85 c0		 test	 eax, eax
  0014f	75 1f		 jne	 SHORT $L208610

; 781  : 	{
; 782  : 		WriteLog( "%s, %d\t%s", __FILE__, __LINE__, szQuery );

  00151	8d 84 24 30 44
	00 00		 lea	 eax, DWORD PTR _szQuery$[esp+58440]
  00158	50		 push	 eax
  00159	68 0e 03 00 00	 push	 782			; 0000030eH
  0015e	68 00 00 00 00	 push	 OFFSET FLAT:??_C@_0GH@LHPNFEPP@?2Documents?5and?5Settings?2test?2Mes@
  00163	68 00 00 00 00	 push	 OFFSET FLAT:??_C@_09GBAEEKDE@?$CFs?0?5?$CFd?7?$CFs?$AA@
  00168	e8 00 00 00 00	 call	 ?WriteLog@@YAXPBDZZ	; WriteLog
  0016d	83 c4 10	 add	 esp, 16			; 00000010H
$L208610:

; 783  : //		qry->Clear();
; 784  : 		FreeRequest( lpDbOverlappedPlus );
; 785  : 		return;
; 786  : 	}
; 787  : 
; 788  : //	qry->Clear();
; 789  : 	FreeRequest( lpDbOverlappedPlus );

  00170	8b cb		 mov	 ecx, ebx
  00172	56		 push	 esi
  00173	e8 00 00 00 00	 call	 ?FreeRequest@CDbManager@@QAEXPAUtagDB_OVERLAPPED_PLUS@@@Z ; CDbManager::FreeRequest

; 790  : }

  00178	8b 44 24 0c	 mov	 eax, DWORD PTR _strBuf$[esp+58440]
  0017c	83 c0 f0	 add	 eax, -16		; fffffff0H
  0017f	c6 84 24 44 e4
	00 00 00	 mov	 BYTE PTR __$EHRec$[esp+58448], 0
  00187	8d 48 0c	 lea	 ecx, DWORD PTR [eax+12]
  0018a	83 ca ff	 or	 edx, -1
  0018d	f0 0f c1 11	 lock	  xadd	 DWORD PTR [ecx], edx
  00191	4a		 dec	 edx
  00192	85 d2		 test	 edx, edx
  00194	7f 08		 jg	 SHORT $L213342
  00196	8b 08		 mov	 ecx, DWORD PTR [eax]
  00198	8b 11		 mov	 edx, DWORD PTR [ecx]
  0019a	50		 push	 eax
  0019b	ff 52 04	 call	 DWORD PTR [edx+4]
$L213342:
  0019e	8d 4c 24 18	 lea	 ecx, DWORD PTR _arRead$[esp+58440]
  001a2	c7 84 24 44 e4
	00 00 ff ff ff
	ff		 mov	 DWORD PTR __$EHRec$[esp+58448], -1
  001ad	e8 00 00 00 00	 call	 ??1CAr@@QAE@XZ		; CAr::~CAr
  001b2	8b 8c 24 3c e4
	00 00		 mov	 ecx, DWORD PTR __$EHRec$[esp+58440]
  001b9	64 89 0d 00 00
	00 00		 mov	 DWORD PTR fs:__except_list, ecx
  001c0	8b 8c 24 34 e4
	00 00		 mov	 ecx, DWORD PTR __$ArrayPad$[esp+58440]
  001c7	5f		 pop	 edi
  001c8	5e		 pop	 esi
  001c9	33 cd		 xor	 ecx, ebp
  001cb	5b		 pop	 ebx
  001cc	e8 00 00 00 00	 call	 @__security_check_cookie@4
  001d1	8b e5		 mov	 esp, ebp
  001d3	5d		 pop	 ebp
  001d4	c2 08 00	 ret	 8
_TEXT	ENDS
;	COMDAT text$x
text$x	SEGMENT
$L213285:
  00000	8d 8d d0 1b ff
	ff		 lea	 ecx, DWORD PTR _arRead$[ebp]
  00006	e9 00 00 00 00	 jmp	 ??1CAr@@QAE@XZ		; CAr::~CAr
$L213286:
  0000b	8d 8d c4 1b ff
	ff		 lea	 ecx, DWORD PTR _strBuf$[ebp]
  00011	e9 00 00 00 00	 jmp	 ??1?$CStringT@DV?$StrTraitMFC@DV?$ChTraitsCRT@D@ATL@@@@@ATL@@QAE@XZ ; ATL::CStringT<char,StrTraitMFC<char,ATL::ChTraitsCRT<char> > >::~CStringT<char,StrTraitMFC<char,ATL::ChTraitsCRT<char> > >
__ehhandler$?Gamema_Chat@CDbManager@@QAEXPAVCQuery@@PAUtagDB_OVERLAPPED_PLUS@@@Z:
  00016	b8 00 00 00 00	 mov	 eax, OFFSET FLAT:$T213350
  0001b	e9 00 00 00 00	 jmp	 ___CxxFrameHandler
text$x	ENDS
?Gamema_Chat@CDbManager@@QAEXPAVCQuery@@PAUtagDB_OVERLAPPED_PLUS@@@Z ENDP ; CDbManager::Gamema_Chat
PUBLIC	?LogPkPvp@CDbManager@@AAEXPAVCQuery@@PAUtagDB_OVERLAPPED_PLUS@@@Z ; CDbManager::LogPkPvp
PUBLIC	??_C@_02JAFMCMAN@LA?$AA@			; `string'
;	COMDAT xdata$x
; File c:\documents and settings\test\mes documents\source\virtuos_v17\build\program\_network\misc\include\ar.h
xdata$x	SEGMENT
$T213547 DD	0ffffffffH
	DD	FLAT:$L213360
$T213529 DD	019930520H
	DD	01H
	DD	FLAT:$T213547
	DD	2 DUP(00H)
	DD	2 DUP(00H)
xdata$x	ENDS
;	COMDAT ??_C@_02JAFMCMAN@LA?$AA@
CONST	SEGMENT
??_C@_02JAFMCMAN@LA?$AA@ DB 'LA', 00H			; `string'
; Function compile flags: /Ogty
; File c:\documents and settings\test\mes documents\source\virtuos_v17\build\program\_database\dbmanagerlog.cpp
CONST	ENDS
;	COMDAT ?LogPkPvp@CDbManager@@AAEXPAVCQuery@@PAUtagDB_OVERLAPPED_PLUS@@@Z
_TEXT	SEGMENT
$T213525 = -57468					; size = 4
_chState$ = -57464					; size = 1
_nPoint$ = -57460					; size = 4
$T213526 = -57456					; size = 4
_dwPKPropensity$ = -57456				; size = 4
_nPKValue$ = -57456					; size = 4
_nFame$ = -57456					; size = 4
_nLevel$ = -57452					; size = 4
_nLoseLevel$ = -57448					; size = 4
_nSendBuf$ = -57444					; size = 4
_dwLosePKPropensity$ = -57440				; size = 4
_uidPlayer$ = -57436					; size = 4
_uLoseidPlayer$ = -57432				; size = 4
_nLoseFame$ = -57428					; size = 4
_nLosePKValue$ = -57424					; size = 4
$T213527 = -57420					; size = 4
_vPos$ = -57416						; size = 12
_vLosePos$ = -57404					; size = 12
_arRead$ = -57392					; size = 16404
_szQuery$ = -40984					; size = 40960
__$ArrayPad$ = -20					; size = 4
__$EHRec$ = -12						; size = 12
__$ReturnAddr$ = 4					; size = 4
_qry$ = 8						; size = 4
_lpDbOverlappedPlus$ = 12				; size = 4
?LogPkPvp@CDbManager@@AAEXPAVCQuery@@PAUtagDB_OVERLAPPED_PLUS@@@Z PROC NEAR ; CDbManager::LogPkPvp, COMDAT
; _this$ = ecx

; 830  : {

  00000	55		 push	 ebp
  00001	8b ec		 mov	 ebp, esp
  00003	83 e4 f8	 and	 esp, -8			; fffffff8H
  00006	6a ff		 push	 -1
  00008	68 00 00 00 00	 push	 __ehhandler$?LogPkPvp@CDbManager@@AAEXPAVCQuery@@PAUtagDB_OVERLAPPED_PLUS@@@Z
  0000d	64 a1 00 00 00
	00		 mov	 eax, DWORD PTR fs:__except_list
  00013	50		 push	 eax
  00014	64 89 25 00 00
	00 00		 mov	 DWORD PTR fs:__except_list, esp
  0001b	51		 push	 ecx
  0001c	b8 6c e0 00 00	 mov	 eax, 57452		; 0000e06cH
  00021	e8 00 00 00 00	 call	 __chkstk
  00026	a1 00 00 00 00	 mov	 eax, DWORD PTR ___security_cookie
  0002b	33 c5		 xor	 eax, ebp
  0002d	89 84 24 68 e0
	00 00		 mov	 DWORD PTR __$ArrayPad$[esp+57468], eax
  00034	8b 45 08	 mov	 eax, DWORD PTR _qry$[ebp]
  00037	53		 push	 ebx
  00038	56		 push	 esi

; 902  : 	{
; 903  : 		DBQryLog( szQuery, "LA", uidPlayer, g_appInfo.dwSys, 0, nLevel, nPoint, dwPKPropensity, nPKValue,
; 904  : 			nFame, 0, 0, 0, 0, 0, chState, 0, '\0', vPos.x, 0.0f, vPos.z, 0, 0,
; 905  : 			'\0', 0, 0, 0, '\0', 0, 0, 0, 
; 906  : 			'\0', 0, '\0', 0, 0 );

  00039	89 44 24 14	 mov	 DWORD PTR $T213526[esp+57476], eax
  0003d	8b 45 0c	 mov	 eax, DWORD PTR _lpDbOverlappedPlus$[ebp]
  00040	8b 50 18	 mov	 edx, DWORD PTR [eax+24]
  00043	89 4c 24 08	 mov	 DWORD PTR $T213525[esp+57476], ecx
  00047	8b 48 1c	 mov	 ecx, DWORD PTR [eax+28]
  0004a	57		 push	 edi
  0004b	51		 push	 ecx
  0004c	52		 push	 edx
  0004d	8d 4c 24 60	 lea	 ecx, DWORD PTR _arRead$[esp+57488]
  00051	89 44 24 44	 mov	 DWORD PTR $T213527[esp+57488], eax
  00055	e8 00 00 00 00	 call	 ??0CAr@@QAE@PAXI@Z	; CAr::CAr
  0005a	8b 54 24 60	 mov	 edx, DWORD PTR _arRead$[esp+57488]
  0005e	8b 44 24 64	 mov	 eax, DWORD PTR _arRead$[esp+57492]
  00062	33 f6		 xor	 esi, esi
  00064	8d 4a 04	 lea	 ecx, DWORD PTR [edx+4]
  00067	3b c8		 cmp	 ecx, eax
  00069	89 b4 24 84 e0
	00 00		 mov	 DWORD PTR __$EHRec$[esp+57488], esi
  00070	77 08		 ja	 SHORT $L213376
  00072	8b 3a		 mov	 edi, DWORD PTR [edx]
  00074	89 7c 24 24	 mov	 DWORD PTR _nSendBuf$[esp+57480], edi
  00078	eb 08		 jmp	 SHORT $L213535

; 831  : 	CAr arRead( lpDbOverlappedPlus->lpBuf, lpDbOverlappedPlus->uBufSize );
; 832  : 
; 833  : 	int nSendBuf = 0;
; 834  : 	u_long uidPlayer, uLoseidPlayer;
; 835  : 	int iServer_No, iLoseServer_No;
; 836  : 	int nLevel, nLoseLevel;
; 837  : 	int nPoint;
; 838  : #if __VER >= 8 // __S8_PK
; 839  : 	int nPKValue, nLosePKValue;
; 840  : 	DWORD dwPKPropensity, dwLosePKPropensity;
; 841  : #else // __VER >= 8 // __S8_PK
; 842  : 	int nSlaughter, nLoseSlaughter;
; 843  : 	int nKillNum, nLoseKillNum;
; 844  : #endif // __VER >= 8 // __S8_PK
; 845  : 	int nFame, nLoseFame;
; 846  : 	char chState;
; 847  : 	D3DXVECTOR3 vPos, vLosePos;
; 848  : 
; 849  : 	arRead >> nSendBuf;

$L213376:
  0007a	89 74 24 24	 mov	 DWORD PTR _nSendBuf$[esp+57480], esi
  0007e	8b c8		 mov	 ecx, eax
  00080	8b fe		 mov	 edi, esi
$L213535:

; 850  : 	arRead >> nPoint;

  00082	8d 51 04	 lea	 edx, DWORD PTR [ecx+4]
  00085	3b d0		 cmp	 edx, eax
  00087	89 4c 24 60	 mov	 DWORD PTR _arRead$[esp+57488], ecx
  0008b	77 08		 ja	 SHORT $L213388
  0008d	8b 09		 mov	 ecx, DWORD PTR [ecx]
  0008f	89 4c 24 14	 mov	 DWORD PTR _nPoint$[esp+57480], ecx
  00093	eb 06		 jmp	 SHORT $L213536
$L213388:
  00095	89 74 24 14	 mov	 DWORD PTR _nPoint$[esp+57480], esi
  00099	8b d0		 mov	 edx, eax
$L213536:

; 851  : 	arRead >> chState;

  0009b	8d 4a 01	 lea	 ecx, DWORD PTR [edx+1]
  0009e	3b c8		 cmp	 ecx, eax
  000a0	89 54 24 60	 mov	 DWORD PTR _arRead$[esp+57488], edx
  000a4	77 08		 ja	 SHORT $L213400
  000a6	8a 12		 mov	 dl, BYTE PTR [edx]
  000a8	88 54 24 10	 mov	 BYTE PTR _chState$[esp+57480], dl
  000ac	eb 07		 jmp	 SHORT $L213537
$L213400:
  000ae	c6 44 24 10 00	 mov	 BYTE PTR _chState$[esp+57480], 0
  000b3	8b c8		 mov	 ecx, eax
$L213537:

; 852  : 	
; 853  : 	if( nSendBuf == 1 || nSendBuf == 3 )

  000b5	83 ff 01	 cmp	 edi, 1
  000b8	89 4c 24 60	 mov	 DWORD PTR _arRead$[esp+57488], ecx
  000bc	74 09		 je	 SHORT $L208654
  000be	83 ff 03	 cmp	 edi, 3
  000c1	0f 85 a2 00 00
	00		 jne	 $L213462
$L208654:

; 854  : 	{
; 855  : 		arRead >> uLoseidPlayer;

  000c7	8d 51 04	 lea	 edx, DWORD PTR [ecx+4]
  000ca	3b d0		 cmp	 edx, eax
  000cc	77 0a		 ja	 SHORT $L213405
  000ce	8b 09		 mov	 ecx, DWORD PTR [ecx]
  000d0	89 4c 24 30	 mov	 DWORD PTR _uLoseidPlayer$[esp+57480], ecx
  000d4	8b ca		 mov	 ecx, edx
  000d6	eb 06		 jmp	 SHORT $L213406
$L213405:
  000d8	89 74 24 30	 mov	 DWORD PTR _uLoseidPlayer$[esp+57480], esi
  000dc	8b c8		 mov	 ecx, eax
$L213406:

; 856  : 		arRead >> iLoseServer_No;

  000de	83 c1 04	 add	 ecx, 4
  000e1	3b c8		 cmp	 ecx, eax
  000e3	76 02		 jbe	 SHORT $L213538
  000e5	8b c8		 mov	 ecx, eax
$L213538:

; 857  : 		arRead >> nLoseLevel;

  000e7	8d 51 04	 lea	 edx, DWORD PTR [ecx+4]
  000ea	3b d0		 cmp	 edx, eax
  000ec	89 4c 24 60	 mov	 DWORD PTR _arRead$[esp+57488], ecx
  000f0	77 0c		 ja	 SHORT $L213429
  000f2	8b 01		 mov	 eax, DWORD PTR [ecx]
  000f4	89 44 24 20	 mov	 DWORD PTR _nLoseLevel$[esp+57480], eax
  000f8	89 54 24 60	 mov	 DWORD PTR _arRead$[esp+57488], edx
  000fc	eb 08		 jmp	 SHORT $L213430
$L213429:
  000fe	89 74 24 20	 mov	 DWORD PTR _nLoseLevel$[esp+57480], esi
  00102	89 44 24 60	 mov	 DWORD PTR _arRead$[esp+57488], eax
$L213430:

; 858  : 		arRead >> vLosePos;

  00106	6a 0c		 push	 12			; 0000000cH
  00108	8d 4c 24 50	 lea	 ecx, DWORD PTR _vLosePos$[esp+57484]
  0010c	51		 push	 ecx
  0010d	8d 4c 24 60	 lea	 ecx, DWORD PTR _arRead$[esp+57488]
  00111	e8 00 00 00 00	 call	 ?Read@CAr@@QAEXPAXI@Z	; CAr::Read

; 859  : 		arRead >> nLoseFame;

  00116	8b 54 24 60	 mov	 edx, DWORD PTR _arRead$[esp+57488]
  0011a	8b 44 24 64	 mov	 eax, DWORD PTR _arRead$[esp+57492]
  0011e	8d 4a 04	 lea	 ecx, DWORD PTR [edx+4]
  00121	3b c8		 cmp	 ecx, eax
  00123	77 08		 ja	 SHORT $L213444
  00125	8b 12		 mov	 edx, DWORD PTR [edx]
  00127	89 54 24 34	 mov	 DWORD PTR _nLoseFame$[esp+57480], edx
  0012b	eb 06		 jmp	 SHORT $L213539
$L213444:
  0012d	89 74 24 34	 mov	 DWORD PTR _nLoseFame$[esp+57480], esi
  00131	8b c8		 mov	 ecx, eax
$L213539:

; 860  : #if __VER >= 8 // __S8_PK
; 861  : 		arRead >> nLosePKValue;

  00133	8d 51 04	 lea	 edx, DWORD PTR [ecx+4]
  00136	3b d0		 cmp	 edx, eax
  00138	89 4c 24 60	 mov	 DWORD PTR _arRead$[esp+57488], ecx
  0013c	77 08		 ja	 SHORT $L213456
  0013e	8b 09		 mov	 ecx, DWORD PTR [ecx]
  00140	89 4c 24 38	 mov	 DWORD PTR _nLosePKValue$[esp+57480], ecx
  00144	eb 06		 jmp	 SHORT $L213540
$L213456:
  00146	89 74 24 38	 mov	 DWORD PTR _nLosePKValue$[esp+57480], esi
  0014a	8b d0		 mov	 edx, eax
$L213540:

; 862  : 		arRead >> dwLosePKPropensity;

  0014c	8d 4a 04	 lea	 ecx, DWORD PTR [edx+4]
  0014f	3b c8		 cmp	 ecx, eax
  00151	89 54 24 60	 mov	 DWORD PTR _arRead$[esp+57488], edx
  00155	77 08		 ja	 SHORT $L213461
  00157	8b 12		 mov	 edx, DWORD PTR [edx]
  00159	89 54 24 28	 mov	 DWORD PTR _dwLosePKPropensity$[esp+57480], edx
  0015d	eb 06		 jmp	 SHORT $L213541
$L213461:
  0015f	89 74 24 28	 mov	 DWORD PTR _dwLosePKPropensity$[esp+57480], esi
  00163	8b c8		 mov	 ecx, eax
$L213541:
  00165	89 4c 24 60	 mov	 DWORD PTR _arRead$[esp+57488], ecx
$L213462:

; 863  : #else // __VER >= 8 // __S8_PK
; 864  : 		arRead >> nLoseKillNum;
; 865  : 		arRead >> nLoseSlaughter;
; 866  : #endif // __VER >= 8 // __S8_PK
; 867  : 	}
; 868  : 	
; 869  : 	if( nSendBuf == 2 || nSendBuf == 3 )

  00169	83 ff 02	 cmp	 edi, 2
  0016c	74 09		 je	 SHORT $L208656
  0016e	83 ff 03	 cmp	 edi, 3
  00171	0f 85 94 00 00
	00		 jne	 $L213531
$L208656:

; 870  : 	{
; 871  : 		arRead >> uidPlayer;

  00177	8d 51 04	 lea	 edx, DWORD PTR [ecx+4]
  0017a	3b d0		 cmp	 edx, eax
  0017c	77 0a		 ja	 SHORT $L213466
  0017e	8b 09		 mov	 ecx, DWORD PTR [ecx]
  00180	89 4c 24 2c	 mov	 DWORD PTR _uidPlayer$[esp+57480], ecx
  00184	8b ca		 mov	 ecx, edx
  00186	eb 06		 jmp	 SHORT $L213467
$L213466:
  00188	89 74 24 2c	 mov	 DWORD PTR _uidPlayer$[esp+57480], esi
  0018c	8b c8		 mov	 ecx, eax
$L213467:

; 872  : 		arRead >> iServer_No;

  0018e	83 c1 04	 add	 ecx, 4
  00191	3b c8		 cmp	 ecx, eax
  00193	76 02		 jbe	 SHORT $L213542
  00195	8b c8		 mov	 ecx, eax
$L213542:

; 873  : 		arRead >> nLevel;

  00197	8d 51 04	 lea	 edx, DWORD PTR [ecx+4]
  0019a	3b d0		 cmp	 edx, eax
  0019c	89 4c 24 60	 mov	 DWORD PTR _arRead$[esp+57488], ecx
  001a0	77 0c		 ja	 SHORT $L213490
  001a2	8b 01		 mov	 eax, DWORD PTR [ecx]
  001a4	89 44 24 1c	 mov	 DWORD PTR _nLevel$[esp+57480], eax
  001a8	89 54 24 60	 mov	 DWORD PTR _arRead$[esp+57488], edx
  001ac	eb 08		 jmp	 SHORT $L213491
$L213490:
  001ae	89 74 24 1c	 mov	 DWORD PTR _nLevel$[esp+57480], esi
  001b2	89 44 24 60	 mov	 DWORD PTR _arRead$[esp+57488], eax
$L213491:

; 874  : 		arRead >> vPos;

  001b6	6a 0c		 push	 12			; 0000000cH
  001b8	8d 4c 24 44	 lea	 ecx, DWORD PTR _vPos$[esp+57484]
  001bc	51		 push	 ecx
  001bd	8d 4c 24 60	 lea	 ecx, DWORD PTR _arRead$[esp+57488]
  001c1	e8 00 00 00 00	 call	 ?Read@CAr@@QAEXPAXI@Z	; CAr::Read

; 875  : 		arRead >> nFame;

  001c6	8b 54 24 60	 mov	 edx, DWORD PTR _arRead$[esp+57488]
  001ca	8b 44 24 64	 mov	 eax, DWORD PTR _arRead$[esp+57492]
  001ce	8d 4a 04	 lea	 ecx, DWORD PTR [edx+4]
  001d1	3b c8		 cmp	 ecx, eax
  001d3	77 04		 ja	 SHORT $L213505
  001d5	8b 1a		 mov	 ebx, DWORD PTR [edx]
  001d7	eb 04		 jmp	 SHORT $L213543
$L213505:
  001d9	33 db		 xor	 ebx, ebx
  001db	8b c8		 mov	 ecx, eax
$L213543:

; 876  : #if __VER >= 8 // __S8_PK
; 877  : 		arRead >> nPKValue;

  001dd	8d 51 04	 lea	 edx, DWORD PTR [ecx+4]
  001e0	3b d0		 cmp	 edx, eax
  001e2	89 4c 24 60	 mov	 DWORD PTR _arRead$[esp+57488], ecx
  001e6	77 06		 ja	 SHORT $L213517
  001e8	8b 31		 mov	 esi, DWORD PTR [ecx]
  001ea	8b ca		 mov	 ecx, edx
  001ec	eb 02		 jmp	 SHORT $L213544
$L213517:
  001ee	8b c8		 mov	 ecx, eax
$L213544:

; 878  : 		arRead >> dwPKPropensity;

  001f0	8d 79 04	 lea	 edi, DWORD PTR [ecx+4]
  001f3	3b f8		 cmp	 edi, eax
  001f5	89 4c 24 60	 mov	 DWORD PTR _arRead$[esp+57488], ecx
  001f9	77 08		 ja	 SHORT $L213522
  001fb	8b 11		 mov	 edx, DWORD PTR [ecx]
  001fd	89 7c 24 60	 mov	 DWORD PTR _arRead$[esp+57488], edi
  00201	eb 14		 jmp	 SHORT $L213523
$L213522:
  00203	33 d2		 xor	 edx, edx
  00205	89 44 24 60	 mov	 DWORD PTR _arRead$[esp+57488], eax
  00209	eb 0c		 jmp	 SHORT $L213523
$L213531:
  0020b	8b 5c 24 18	 mov	 ebx, DWORD PTR _nFame$[esp+57480]
  0020f	8b 74 24 18	 mov	 esi, DWORD PTR _nPKValue$[esp+57480]
  00213	8b 54 24 18	 mov	 edx, DWORD PTR _dwPKPropensity$[esp+57480]
$L213523:

; 879  : #else // __VER >= 8 // __S8_PK
; 880  : 		arRead >> nKillNum;
; 881  : 		arRead >> nSlaughter;
; 882  : #endif // __VER >= 8 // __S8_PK
; 883  : 	}
; 884  : 
; 885  : 	char szQuery[QUERY_SIZE]	= { 0,};

  00217	33 c0		 xor	 eax, eax
  00219	c6 84 24 70 40
	00 00 00	 mov	 BYTE PTR _szQuery$[esp+57480], 0
  00221	b9 ff 27 00 00	 mov	 ecx, 10239		; 000027ffH
  00226	8d bc 24 71 40
	00 00		 lea	 edi, DWORD PTR _szQuery$[esp+57481]
  0022d	f3 ab		 rep stosd
  0022f	66 ab		 stosw
  00231	aa		 stosb

; 886  : #if __VER >= 8 // __S8_PK
; 887  : 	if( nSendBuf == 3 )

  00232	8b 44 24 24	 mov	 eax, DWORD PTR _nSendBuf$[esp+57480]
  00236	83 f8 03	 cmp	 eax, 3
  00239	0f 85 84 00 00
	00		 jne	 $L208658

; 888  : 	{
; 889  : 		DBQryLog( szQuery, "LA", uidPlayer, g_appInfo.dwSys, nLoseLevel, nLevel, nPoint, dwPKPropensity, nPKValue,
; 890  : 			nFame, dwLosePKPropensity, nLoseFame, 0, 0, 0, chState, 0, '\0', vPos.x, 0.0f, vPos.z, 0, 0,
; 891  : 			'\0', 0, 0, 0, '\0', 0, 0, 0, 
; 892  : 			'\0', 0, '\0', 0, uLoseidPlayer );

  0023f	8b 44 24 30	 mov	 eax, DWORD PTR _uLoseidPlayer$[esp+57480]
  00243	50		 push	 eax
  00244	6a 00		 push	 0
  00246	6a 00		 push	 0
  00248	6a 00		 push	 0
  0024a	6a 00		 push	 0
  0024c	6a 00		 push	 0
  0024e	6a 00		 push	 0
  00250	6a 00		 push	 0
  00252	6a 00		 push	 0
  00254	6a 00		 push	 0
  00256	6a 00		 push	 0
  00258	8b 4c 24 74	 mov	 ecx, DWORD PTR _vPos$[esp+57532]
  0025c	6a 00		 push	 0
  0025e	8b 44 24 70	 mov	 eax, DWORD PTR _vPos$[esp+57528]
  00262	6a 00		 push	 0
  00264	6a 00		 push	 0
  00266	6a 00		 push	 0
  00268	51		 push	 ecx
  00269	8b 4c 24 50	 mov	 ecx, DWORD PTR _chState$[esp+57544]
  0026d	6a 00		 push	 0
  0026f	50		 push	 eax
  00270	8b 44 24 7c	 mov	 eax, DWORD PTR _nLoseFame$[esp+57552]
  00274	6a 00		 push	 0
  00276	6a 00		 push	 0
  00278	51		 push	 ecx
  00279	8b 4c 24 7c	 mov	 ecx, DWORD PTR _dwLosePKPropensity$[esp+57564]
  0027d	6a 00		 push	 0
  0027f	6a 00		 push	 0
  00281	6a 00		 push	 0
  00283	50		 push	 eax
  00284	8b 84 24 80 00
	00 00		 mov	 eax, DWORD PTR _nLevel$[esp+57580]
  0028b	51		 push	 ecx
  0028c	8b 0d 00 00 00
	00		 mov	 ecx, DWORD PTR ?g_appInfo@@3UAppInfo@@A
  00292	53		 push	 ebx
  00293	56		 push	 esi
  00294	52		 push	 edx
  00295	8b 94 24 88 00
	00 00		 mov	 edx, DWORD PTR _nPoint$[esp+57596]
  0029c	52		 push	 edx
  0029d	50		 push	 eax
  0029e	8b 84 24 9c 00
	00 00		 mov	 eax, DWORD PTR _nLoseLevel$[esp+57604]
  002a5	99		 cdq
  002a6	52		 push	 edx
  002a7	8b 94 24 ac 00
	00 00		 mov	 edx, DWORD PTR _uidPlayer$[esp+57608]
  002ae	50		 push	 eax
  002af	51		 push	 ecx
  002b0	52		 push	 edx
  002b1	68 00 00 00 00	 push	 OFFSET FLAT:??_C@_02JAFMCMAN@LA?$AA@
  002b6	8d 84 24 00 41
	00 00		 lea	 eax, DWORD PTR _szQuery$[esp+57624]
  002bd	50		 push	 eax

; 893  : 	}
; 894  : 	else if( nSendBuf == 1 )

  002be	e9 ee 00 00 00	 jmp	 $L213545
$L208658:
  002c3	83 f8 01	 cmp	 eax, 1
  002c6	75 7d		 jne	 SHORT $L208661

; 895  : 	{
; 896  : 		DBQryLog( szQuery, "LA", 0, g_appInfo.dwSys, nLoseLevel, 0, nPoint, 0, nLosePKValue,
; 897  : 			0, dwLosePKPropensity, nLoseFame, 0, 0, 0, chState, 0, '\0', vLosePos.x, 0.0f, vLosePos.z, 0, 0,
; 898  : 			'\0', 0, 0, 0, '\0', 0, 0, 0, 
; 899  : 			'\0', 0, '\0', 0, uLoseidPlayer );

  002c8	8b 4c 24 30	 mov	 ecx, DWORD PTR _uLoseidPlayer$[esp+57480]
  002cc	51		 push	 ecx
  002cd	6a 00		 push	 0
  002cf	6a 00		 push	 0
  002d1	6a 00		 push	 0
  002d3	6a 00		 push	 0
  002d5	6a 00		 push	 0
  002d7	6a 00		 push	 0
  002d9	6a 00		 push	 0
  002db	6a 00		 push	 0
  002dd	6a 00		 push	 0
  002df	6a 00		 push	 0
  002e1	8b 94 24 80 00
	00 00		 mov	 edx, DWORD PTR _vLosePos$[esp+57532]
  002e8	6a 00		 push	 0
  002ea	8b 44 24 7c	 mov	 eax, DWORD PTR _vLosePos$[esp+57528]
  002ee	6a 00		 push	 0
  002f0	6a 00		 push	 0
  002f2	8b 4c 24 48	 mov	 ecx, DWORD PTR _chState$[esp+57536]
  002f6	6a 00		 push	 0
  002f8	52		 push	 edx
  002f9	6a 00		 push	 0
  002fb	50		 push	 eax
  002fc	8b 54 24 7c	 mov	 edx, DWORD PTR _nLoseFame$[esp+57552]
  00300	8b 44 24 70	 mov	 eax, DWORD PTR _dwLosePKPropensity$[esp+57552]
  00304	6a 00		 push	 0
  00306	6a 00		 push	 0
  00308	51		 push	 ecx
  00309	8b 8c 24 8c 00
	00 00		 mov	 ecx, DWORD PTR _nLosePKValue$[esp+57564]
  00310	6a 00		 push	 0
  00312	6a 00		 push	 0
  00314	6a 00		 push	 0
  00316	52		 push	 edx
  00317	8b 54 24 78	 mov	 edx, DWORD PTR _nPoint$[esp+57580]
  0031b	50		 push	 eax
  0031c	8b 84 24 88 00
	00 00		 mov	 eax, DWORD PTR _nLoseLevel$[esp+57584]
  00323	6a 00		 push	 0
  00325	51		 push	 ecx
  00326	6a 00		 push	 0
  00328	52		 push	 edx
  00329	6a 00		 push	 0
  0032b	99		 cdq
  0032c	52		 push	 edx
  0032d	50		 push	 eax
  0032e	a1 00 00 00 00	 mov	 eax, DWORD PTR ?g_appInfo@@3UAppInfo@@A
  00333	50		 push	 eax
  00334	6a 00		 push	 0
  00336	68 00 00 00 00	 push	 OFFSET FLAT:??_C@_02JAFMCMAN@LA?$AA@
  0033b	8d 8c 24 00 41
	00 00		 lea	 ecx, DWORD PTR _szQuery$[esp+57624]
  00342	51		 push	 ecx

; 900  : 	}
; 901  : 	else

  00343	eb 6c		 jmp	 SHORT $L213545
$L208661:

; 902  : 	{
; 903  : 		DBQryLog( szQuery, "LA", uidPlayer, g_appInfo.dwSys, 0, nLevel, nPoint, dwPKPropensity, nPKValue,
; 904  : 			nFame, 0, 0, 0, 0, 0, chState, 0, '\0', vPos.x, 0.0f, vPos.z, 0, 0,
; 905  : 			'\0', 0, 0, 0, '\0', 0, 0, 0, 
; 906  : 			'\0', 0, '\0', 0, 0 );

  00345	6a 00		 push	 0
  00347	6a 00		 push	 0
  00349	6a 00		 push	 0
  0034b	6a 00		 push	 0
  0034d	6a 00		 push	 0
  0034f	6a 00		 push	 0
  00351	6a 00		 push	 0
  00353	6a 00		 push	 0
  00355	6a 00		 push	 0
  00357	6a 00		 push	 0
  00359	6a 00		 push	 0
  0035b	8b 44 24 74	 mov	 eax, DWORD PTR _vPos$[esp+57532]
  0035f	6a 00		 push	 0
  00361	8b 4c 24 70	 mov	 ecx, DWORD PTR _vPos$[esp+57528]
  00365	6a 00		 push	 0
  00367	6a 00		 push	 0
  00369	6a 00		 push	 0
  0036b	50		 push	 eax
  0036c	8b 44 24 50	 mov	 eax, DWORD PTR _chState$[esp+57544]
  00370	6a 00		 push	 0
  00372	51		 push	 ecx
  00373	6a 00		 push	 0
  00375	6a 00		 push	 0
  00377	8b 4c 24 64	 mov	 ecx, DWORD PTR _nPoint$[esp+57560]
  0037b	50		 push	 eax
  0037c	6a 00		 push	 0
  0037e	6a 00		 push	 0
  00380	a1 00 00 00 00	 mov	 eax, DWORD PTR ?g_appInfo@@3UAppInfo@@A
  00385	6a 00		 push	 0
  00387	6a 00		 push	 0
  00389	6a 00		 push	 0
  0038b	53		 push	 ebx
  0038c	56		 push	 esi
  0038d	52		 push	 edx
  0038e	8b 94 24 90 00
	00 00		 mov	 edx, DWORD PTR _nLevel$[esp+57596]
  00395	51		 push	 ecx
  00396	8b 8c 24 a4 00
	00 00		 mov	 ecx, DWORD PTR _uidPlayer$[esp+57600]
  0039d	52		 push	 edx
  0039e	6a 00		 push	 0
  003a0	6a 00		 push	 0
  003a2	50		 push	 eax
  003a3	51		 push	 ecx
  003a4	68 00 00 00 00	 push	 OFFSET FLAT:??_C@_02JAFMCMAN@LA?$AA@
  003a9	8d 94 24 00 41
	00 00		 lea	 edx, DWORD PTR _szQuery$[esp+57624]
  003b0	52		 push	 edx
$L213545:
  003b1	8b 8c 24 a0 00
	00 00		 mov	 ecx, DWORD PTR $T213525[esp+57628]
  003b8	e8 00 00 00 00	 call	 ?DBQryLog@CDbManager@@QAEXPAD0KH_JHHHHHHHHHHDH0MMMHH0KHH0HHH0H0HK@Z ; CDbManager::DBQryLog

; 907  : 	}
; 908  : #else // __VER >= 8 // __S8_PK
; 909  : 	if( nSendBuf == 3 )
; 910  : 	{
; 911  : 		DBQryLog( szQuery, "LA", uidPlayer, g_appInfo.dwSys, nLoseLevel, nLevel, nPoint, nSlaughter, nKillNum,
; 912  : 			nFame, nLoseSlaughter, nLoseFame, 0, 0, 0, chState, 0, '\0', vPos.x, 0.0f, vPos.z, 0, 0,
; 913  : 			'\0', 0, 0, 0, '\0', 0, 0, 0, 
; 914  : 			'\0', 0, '\0', 0, uLoseidPlayer );
; 915  : 	}
; 916  : 	else if( nSendBuf == 1 )
; 917  : 	{
; 918  : 		DBQryLog( szQuery, "LA", 0, g_appInfo.dwSys, nLoseLevel, 0, nPoint, 0, nLoseKillNum,
; 919  : 			0, nLoseSlaughter, nLoseFame, 0, 0, 0, chState, 0, '\0', vLosePos.x, 0.0f, vLosePos.z, 0, 0,
; 920  : 			'\0', 0, 0, 0, '\0', 0, 0, 0, 
; 921  : 			'\0', 0, '\0', 0, uLoseidPlayer );
; 922  : 	}
; 923  : 	else
; 924  : 	{
; 925  : 		DBQryLog( szQuery, "LA", uidPlayer, g_appInfo.dwSys, 0, nLevel, nPoint, nSlaughter, nKillNum,
; 926  : 			nFame, 0, 0, 0, 0, 0, chState, 0, '\0', vPos.x, 0.0f, vPos.z, 0, 0,
; 927  : 			'\0', 0, 0, 0, '\0', 0, 0, 0, 
; 928  : 			'\0', 0, '\0', 0, 0 );
; 929  : 	}
; 930  : #endif // __VER >= 8 // __S8_PK
; 931  : 
; 932  : 	if ( FALSE == qry->Exec( szQuery ) )

  003bd	8b 74 24 18	 mov	 esi, DWORD PTR $T213526[esp+57480]
  003c1	8d 84 24 70 40
	00 00		 lea	 eax, DWORD PTR _szQuery$[esp+57480]
  003c8	50		 push	 eax
  003c9	8b ce		 mov	 ecx, esi
  003cb	e8 00 00 00 00	 call	 ?Exec@CQuery@@QAEHPBD@Z	; CQuery::Exec
  003d0	85 c0		 test	 eax, eax
  003d2	75 1f		 jne	 SHORT $L208663

; 933  : 	{
; 934  : 		WriteLog( "%s, %d\t%s", __FILE__, __LINE__, qry );

  003d4	56		 push	 esi
  003d5	68 a6 03 00 00	 push	 934			; 000003a6H
  003da	68 00 00 00 00	 push	 OFFSET FLAT:??_C@_0GH@LHPNFEPP@?2Documents?5and?5Settings?2test?2Mes@
  003df	68 00 00 00 00	 push	 OFFSET FLAT:??_C@_09GBAEEKDE@?$CFs?0?5?$CFd?7?$CFs?$AA@
  003e4	e8 00 00 00 00	 call	 ?WriteLog@@YAXPBDZZ	; WriteLog

; 935  : 		FreeRequest( lpDbOverlappedPlus );

  003e9	8b 4c 24 4c	 mov	 ecx, DWORD PTR $T213527[esp+57496]
  003ed	83 c4 10	 add	 esp, 16			; 00000010H
  003f0	51		 push	 ecx

; 936  : 		return;

  003f1	eb 05		 jmp	 SHORT $L213546
$L208663:

; 937  : 	}
; 938  : 
; 939  : 	FreeRequest( lpDbOverlappedPlus );

  003f3	8b 54 24 3c	 mov	 edx, DWORD PTR $T213527[esp+57480]
  003f7	52		 push	 edx
$L213546:
  003f8	8b 4c 24 10	 mov	 ecx, DWORD PTR $T213525[esp+57484]
  003fc	e8 00 00 00 00	 call	 ?FreeRequest@CDbManager@@QAEXPAUtagDB_OVERLAPPED_PLUS@@@Z ; CDbManager::FreeRequest

; 940  : }

  00401	8d 4c 24 58	 lea	 ecx, DWORD PTR _arRead$[esp+57480]
  00405	c7 84 24 84 e0
	00 00 ff ff ff
	ff		 mov	 DWORD PTR __$EHRec$[esp+57488], -1
  00410	e8 00 00 00 00	 call	 ??1CAr@@QAE@XZ		; CAr::~CAr
  00415	8b 8c 24 7c e0
	00 00		 mov	 ecx, DWORD PTR __$EHRec$[esp+57480]
  0041c	64 89 0d 00 00
	00 00		 mov	 DWORD PTR fs:__except_list, ecx
  00423	8b 8c 24 74 e0
	00 00		 mov	 ecx, DWORD PTR __$ArrayPad$[esp+57480]
  0042a	5f		 pop	 edi
  0042b	5e		 pop	 esi
  0042c	33 cd		 xor	 ecx, ebp
  0042e	5b		 pop	 ebx
  0042f	e8 00 00 00 00	 call	 @__security_check_cookie@4
  00434	8b e5		 mov	 esp, ebp
  00436	5d		 pop	 ebp
  00437	c2 08 00	 ret	 8
_TEXT	ENDS
;	COMDAT text$x
text$x	SEGMENT
$L213360:
  00000	8d 8d d0 1f ff
	ff		 lea	 ecx, DWORD PTR _arRead$[ebp]
  00006	e9 00 00 00 00	 jmp	 ??1CAr@@QAE@XZ		; CAr::~CAr
__ehhandler$?LogPkPvp@CDbManager@@AAEXPAVCQuery@@PAUtagDB_OVERLAPPED_PLUS@@@Z:
  0000b	b8 00 00 00 00	 mov	 eax, OFFSET FLAT:$T213529
  00010	e9 00 00 00 00	 jmp	 ___CxxFrameHandler
text$x	ENDS
?LogPkPvp@CDbManager@@AAEXPAVCQuery@@PAUtagDB_OVERLAPPED_PLUS@@@Z ENDP ; CDbManager::LogPkPvp
PUBLIC	?Format@CTime@ATL@@QBE?AV?$CStringT@DV?$StrTraitMFC@DV?$ChTraitsCRT@D@ATL@@@@@2@PBD@Z ; ATL::CTime::Format
EXTRN	_strftime:NEAR
EXTRN	__localtime64:NEAR
; Function compile flags: /Ogty
; File c:\program files\microsoft visual studio .net 2003\vc7\atlmfc\include\atltime.h
;	COMDAT ?Format@CTime@ATL@@QBE?AV?$CStringT@DV?$StrTraitMFC@DV?$ChTraitsCRT@D@ATL@@@@@2@PBD@Z
_TEXT	SEGMENT
$T213553 = -136						; size = 4
_szBuffer$ = -132					; size = 128
__$ArrayPad$ = -4					; size = 4
__$ReturnAddr$ = 4					; size = 4
___$ReturnUdt$ = 8					; size = 4
_pFormat$ = 12						; size = 4
?Format@CTime@ATL@@QBE?AV?$CStringT@DV?$StrTraitMFC@DV?$ChTraitsCRT@D@ATL@@@@@2@PBD@Z PROC NEAR ; ATL::CTime::Format, COMDAT
; _this$ = ecx

; 344  : {

  00000	81 ec 88 00 00
	00		 sub	 esp, 136		; 00000088H
  00006	a1 00 00 00 00	 mov	 eax, DWORD PTR ___security_cookie
  0000b	33 c4		 xor	 eax, esp
  0000d	56		 push	 esi
  0000e	8b b4 24 94 00
	00 00		 mov	 esi, DWORD PTR _pFormat$[esp+136]

; 345  : 	if(pFormat == NULL)

  00015	85 f6		 test	 esi, esi
  00017	57		 push	 edi
  00018	8b bc 24 94 00
	00 00		 mov	 edi, DWORD PTR ___$ReturnUdt$[esp+140]
  0001f	89 84 24 8c 00
	00 00		 mov	 DWORD PTR __$ArrayPad$[esp+144], eax
  00026	c7 44 24 08 00
	00 00 00	 mov	 DWORD PTR $T213553[esp+144], 0
  0002e	75 03		 jne	 SHORT $L43108

; 346  : 		return pFormat;

  00030	56		 push	 esi
  00031	eb 2f		 jmp	 SHORT $L213559
$L43108:

; 347  : 
; 348  : 	TCHAR szBuffer[maxTimeBufferSize];
; 349  : 
; 350  : 	struct tm* ptmTemp = _localtime64(&m_time);

  00033	51		 push	 ecx
  00034	e8 00 00 00 00	 call	 __localtime64
  00039	83 c4 04	 add	 esp, 4

; 351  : 	if (ptmTemp == NULL ||
; 352  : 		!_tcsftime(szBuffer, maxTimeBufferSize, pFormat, ptmTemp))

  0003c	85 c0		 test	 eax, eax
  0003e	74 18		 je	 SHORT $L43112
  00040	50		 push	 eax
  00041	56		 push	 esi
  00042	8d 44 24 14	 lea	 eax, DWORD PTR _szBuffer$[esp+152]
  00046	68 80 00 00 00	 push	 128			; 00000080H
  0004b	50		 push	 eax
  0004c	e8 00 00 00 00	 call	 _strftime
  00051	83 c4 10	 add	 esp, 16			; 00000010H
  00054	85 c0		 test	 eax, eax
  00056	75 05		 jne	 SHORT $L43111
$L43112:

; 353  : 		szBuffer[0] = '\0';

  00058	c6 44 24 0c 00	 mov	 BYTE PTR _szBuffer$[esp+144], 0
$L43111:

; 354  : 	return szBuffer;

  0005d	8d 4c 24 0c	 lea	 ecx, DWORD PTR _szBuffer$[esp+144]
  00061	51		 push	 ecx
$L213559:
  00062	8b cf		 mov	 ecx, edi
  00064	e8 00 00 00 00	 call	 ??0?$CStringT@DV?$StrTraitMFC@DV?$ChTraitsCRT@D@ATL@@@@@ATL@@QAE@PBD@Z ; ATL::CStringT<char,StrTraitMFC<char,ATL::ChTraitsCRT<char> > >::CStringT<char,StrTraitMFC<char,ATL::ChTraitsCRT<char> > >

; 355  : }

  00069	8b 8c 24 8c 00
	00 00		 mov	 ecx, DWORD PTR __$ArrayPad$[esp+144]
  00070	8b c7		 mov	 eax, edi
  00072	5f		 pop	 edi
  00073	5e		 pop	 esi
  00074	33 cc		 xor	 ecx, esp
  00076	e8 00 00 00 00	 call	 @__security_check_cookie@4
  0007b	81 c4 88 00 00
	00		 add	 esp, 136		; 00000088H
  00081	c2 08 00	 ret	 8
?Format@CTime@ATL@@QBE?AV?$CStringT@DV?$StrTraitMFC@DV?$ChTraitsCRT@D@ATL@@@@@2@PBD@Z ENDP ; ATL::CTime::Format
_TEXT	ENDS
PUBLIC	?LogPlayDeath@CDbManager@@AAEXPAVCQuery@@PAUtagDB_OVERLAPPED_PLUS@@@Z ; CDbManager::LogPlayDeath
PUBLIC	??_C@_01CLKCMJKC@?5?$AA@			; `string'
PUBLIC	??_C@_02JEEOAGDI@L2?$AA@			; `string'
PUBLIC	??_C@_09GEIHMOKC@?$CFs?0?5?$CFd?7?$CFd?$AA@	; `string'
;	COMDAT xdata$x
; File c:\program files\microsoft visual studio .net 2003\vc7\atlmfc\include\atlsimpstr.h
xdata$x	SEGMENT
$T213697 DD	0ffffffffH
	DD	FLAT:$L213563
	DD	00H
	DD	FLAT:$L213564
$T213690 DD	019930520H
	DD	02H
	DD	FLAT:$T213697
	DD	2 DUP(00H)
	DD	2 DUP(00H)
xdata$x	ENDS
;	COMDAT ??_C@_01CLKCMJKC@?5?$AA@
CONST	SEGMENT
??_C@_01CLKCMJKC@?5?$AA@ DB ' ', 00H			; `string'
CONST	ENDS
;	COMDAT ??_C@_02JEEOAGDI@L2?$AA@
CONST	SEGMENT
??_C@_02JEEOAGDI@L2?$AA@ DB 'L2', 00H			; `string'
CONST	ENDS
;	COMDAT ??_C@_09GEIHMOKC@?$CFs?0?5?$CFd?7?$CFd?$AA@
CONST	SEGMENT
??_C@_09GEIHMOKC@?$CFs?0?5?$CFd?7?$CFd?$AA@ DB '%s, %d', 09H, '%d', 00H ; `string'
; Function compile flags: /Ogty
; File c:\documents and settings\test\mes documents\source\virtuos_v17\build\program\_database\dbmanagerlog.cpp
CONST	ENDS
;	COMDAT ?LogPlayDeath@CDbManager@@AAEXPAVCQuery@@PAUtagDB_OVERLAPPED_PLUS@@@Z
_TEXT	SEGMENT
_strMurderName$ = -57548				; size = 4
_iAttackDmg$ = -57544					; size = 4
_dWorld_No$ = -57540					; size = 4
_iMaxHP$ = -57536					; size = 4
_iLevel$ = -57532					; size = 4
$T213686 = -57528					; size = 4
$T213687 = -57524					; size = 4
_iServer_No$ = -57520					; size = 4
_Pos$ = -57516						; size = 12
_arRead$ = -57504					; size = 16404
_cPlay$ = -41092					; size = 42
_cMurder$ = -41048					; size = 64
_szQuery$ = -40984					; size = 40960
__$ArrayPad$ = -20					; size = 4
__$EHRec$ = -12						; size = 12
__$ReturnAddr$ = 4					; size = 4
_qry$ = 8						; size = 4
_lpDbOverlappedPlus$ = 12				; size = 4
?LogPlayDeath@CDbManager@@AAEXPAVCQuery@@PAUtagDB_OVERLAPPED_PLUS@@@Z PROC NEAR ; CDbManager::LogPlayDeath, COMDAT
; _this$ = ecx

; 444  : {

  00000	55		 push	 ebp
  00001	8b ec		 mov	 ebp, esp
  00003	83 e4 f8	 and	 esp, -8			; fffffff8H
  00006	6a ff		 push	 -1
  00008	68 00 00 00 00	 push	 __ehhandler$?LogPlayDeath@CDbManager@@AAEXPAVCQuery@@PAUtagDB_OVERLAPPED_PLUS@@@Z
  0000d	64 a1 00 00 00
	00		 mov	 eax, DWORD PTR fs:__except_list
  00013	50		 push	 eax
  00014	64 89 25 00 00
	00 00		 mov	 DWORD PTR fs:__except_list, esp
  0001b	51		 push	 ecx
  0001c	b8 bc e0 00 00	 mov	 eax, 57532		; 0000e0bcH
  00021	e8 00 00 00 00	 call	 __chkstk
  00026	a1 00 00 00 00	 mov	 eax, DWORD PTR ___security_cookie
  0002b	53		 push	 ebx
  0002c	8b 5d 0c	 mov	 ebx, DWORD PTR _lpDbOverlappedPlus$[ebp]

; 445  : 	CAr arRead( lpDbOverlappedPlus->lpBuf, lpDbOverlappedPlus->uBufSize );

  0002f	8b 53 18	 mov	 edx, DWORD PTR [ebx+24]
  00032	56		 push	 esi
  00033	89 4c 24 1c	 mov	 DWORD PTR $T213686[esp+57556], ecx
  00037	8b 4b 1c	 mov	 ecx, DWORD PTR [ebx+28]
  0003a	33 c5		 xor	 eax, ebp
  0003c	57		 push	 edi
  0003d	51		 push	 ecx
  0003e	89 84 24 c8 e0
	00 00		 mov	 DWORD PTR __$ArrayPad$[esp+57564], eax
  00045	8b 45 08	 mov	 eax, DWORD PTR _qry$[ebp]
  00048	52		 push	 edx
  00049	8d 4c 24 40	 lea	 ecx, DWORD PTR _arRead$[esp+57568]

; 446  : 
; 447  : 	char		cPlay[MAX_PLAYER] = { 0, };					//  
; 448  : 	int			iServer_No;							//  
; 449  : 	DWORD		dWorld_No;							//  
; 450  : 	D3DXVECTOR3	Pos;								// 
; 451  : 	int			iLevel;								// 
; 452  : 	int			iAttackDmg;							// 
; 453  : 	int			iMaxHP;								//  HP
; 454  : 	char		cMurder[64] = { 0, };				//  ( , )
; 455  : 	u_long		uidPlayer;
; 456  : 
; 457  : 
; 458  : 	arRead.ReadString( cPlay, MAX_PLAYER );
; 459  : 	iServer_No	= g_appInfo.dwSys;

  0004d	89 44 24 2c	 mov	 DWORD PTR $T213687[esp+57568], eax
  00051	e8 00 00 00 00	 call	 ??0CAr@@QAE@PAXI@Z	; CAr::CAr
  00056	33 c0		 xor	 eax, eax
  00058	c6 84 24 54 40
	00 00 00	 mov	 BYTE PTR _cPlay$[esp+57560], 0
  00060	b9 0a 00 00 00	 mov	 ecx, 10			; 0000000aH
  00065	8d bc 24 55 40
	00 00		 lea	 edi, DWORD PTR _cPlay$[esp+57561]
  0006c	f3 ab		 rep stosd
  0006e	aa		 stosb
  0006f	33 c0		 xor	 eax, eax
  00071	c6 84 24 80 40
	00 00 00	 mov	 BYTE PTR _cMurder$[esp+57560], 0
  00079	b9 0f 00 00 00	 mov	 ecx, 15			; 0000000fH
  0007e	8d bc 24 81 40
	00 00		 lea	 edi, DWORD PTR _cMurder$[esp+57561]
  00085	f3 ab		 rep stosd
  00087	66 ab		 stosw
  00089	aa		 stosb
  0008a	6a 2a		 push	 42			; 0000002aH
  0008c	8d 84 24 58 40
	00 00		 lea	 eax, DWORD PTR _cPlay$[esp+57564]
  00093	33 f6		 xor	 esi, esi
  00095	50		 push	 eax
  00096	8d 4c 24 40	 lea	 ecx, DWORD PTR _arRead$[esp+57568]
  0009a	89 b4 24 dc e0
	00 00		 mov	 DWORD PTR __$EHRec$[esp+57576], esi
  000a1	e8 00 00 00 00	 call	 ?ReadString@CAr@@QAEPADPADH@Z ; CAr::ReadString
  000a6	8b 0d 00 00 00
	00		 mov	 ecx, DWORD PTR ?g_appInfo@@3UAppInfo@@A

; 460  : 	arRead >> dWorld_No;

  000ac	8b 54 24 44	 mov	 edx, DWORD PTR _arRead$[esp+57572]
  000b0	89 4c 24 28	 mov	 DWORD PTR _iServer_No$[esp+57560], ecx
  000b4	8b 4c 24 40	 mov	 ecx, DWORD PTR _arRead$[esp+57568]
  000b8	8d 41 04	 lea	 eax, DWORD PTR [ecx+4]
  000bb	3b c2		 cmp	 eax, edx
  000bd	77 0c		 ja	 SHORT $L213570
  000bf	8b 11		 mov	 edx, DWORD PTR [ecx]
  000c1	89 54 24 14	 mov	 DWORD PTR _dWorld_No$[esp+57560], edx
  000c5	89 44 24 40	 mov	 DWORD PTR _arRead$[esp+57568], eax
  000c9	eb 08		 jmp	 SHORT $L213571
$L213570:
  000cb	89 74 24 14	 mov	 DWORD PTR _dWorld_No$[esp+57560], esi
  000cf	89 54 24 40	 mov	 DWORD PTR _arRead$[esp+57568], edx
$L213571:

; 461  : 	arRead >> Pos;

  000d3	6a 0c		 push	 12			; 0000000cH
  000d5	8d 44 24 30	 lea	 eax, DWORD PTR _Pos$[esp+57564]
  000d9	50		 push	 eax
  000da	8d 4c 24 40	 lea	 ecx, DWORD PTR _arRead$[esp+57568]
  000de	e8 00 00 00 00	 call	 ?Read@CAr@@QAEXPAXI@Z	; CAr::Read

; 462  : 	arRead >> iLevel;

  000e3	8b 54 24 40	 mov	 edx, DWORD PTR _arRead$[esp+57568]
  000e7	8b 44 24 44	 mov	 eax, DWORD PTR _arRead$[esp+57572]
  000eb	8d 4a 04	 lea	 ecx, DWORD PTR [edx+4]
  000ee	3b c8		 cmp	 ecx, eax
  000f0	77 08		 ja	 SHORT $L213585
  000f2	8b 12		 mov	 edx, DWORD PTR [edx]
  000f4	89 54 24 1c	 mov	 DWORD PTR _iLevel$[esp+57560], edx
  000f8	eb 06		 jmp	 SHORT $L213693
$L213585:
  000fa	89 74 24 1c	 mov	 DWORD PTR _iLevel$[esp+57560], esi
  000fe	8b c8		 mov	 ecx, eax
$L213693:

; 463  : 	arRead >> iAttackDmg;

  00100	8d 51 04	 lea	 edx, DWORD PTR [ecx+4]
  00103	3b d0		 cmp	 edx, eax
  00105	89 4c 24 40	 mov	 DWORD PTR _arRead$[esp+57568], ecx
  00109	77 0a		 ja	 SHORT $L213597
  0010b	8b 09		 mov	 ecx, DWORD PTR [ecx]
  0010d	89 4c 24 10	 mov	 DWORD PTR _iAttackDmg$[esp+57560], ecx
  00111	8b ca		 mov	 ecx, edx
  00113	eb 06		 jmp	 SHORT $L213694
$L213597:
  00115	89 74 24 10	 mov	 DWORD PTR _iAttackDmg$[esp+57560], esi
  00119	8b c8		 mov	 ecx, eax
$L213694:

; 464  : 	arRead >> iMaxHP;

  0011b	8d 51 04	 lea	 edx, DWORD PTR [ecx+4]
  0011e	3b d0		 cmp	 edx, eax
  00120	89 4c 24 40	 mov	 DWORD PTR _arRead$[esp+57568], ecx
  00124	77 0c		 ja	 SHORT $L213609
  00126	8b 01		 mov	 eax, DWORD PTR [ecx]
  00128	89 44 24 18	 mov	 DWORD PTR _iMaxHP$[esp+57560], eax
  0012c	89 54 24 40	 mov	 DWORD PTR _arRead$[esp+57568], edx
  00130	eb 08		 jmp	 SHORT $L213610
$L213609:
  00132	89 74 24 18	 mov	 DWORD PTR _iMaxHP$[esp+57560], esi
  00136	89 44 24 40	 mov	 DWORD PTR _arRead$[esp+57568], eax
$L213610:

; 465  : 	arRead.ReadString( cMurder, 64 );

  0013a	6a 40		 push	 64			; 00000040H
  0013c	8d 8c 24 84 40
	00 00		 lea	 ecx, DWORD PTR _cMurder$[esp+57564]
  00143	51		 push	 ecx
  00144	8d 4c 24 40	 lea	 ecx, DWORD PTR _arRead$[esp+57568]
  00148	e8 00 00 00 00	 call	 ?ReadString@CAr@@QAEPADPADH@Z ; CAr::ReadString

; 466  : 	arRead >> uidPlayer;

  0014d	8b 4c 24 40	 mov	 ecx, DWORD PTR _arRead$[esp+57568]
  00151	8b 54 24 44	 mov	 edx, DWORD PTR _arRead$[esp+57572]
  00155	8d 41 04	 lea	 eax, DWORD PTR [ecx+4]
  00158	3b c2		 cmp	 eax, edx
  0015a	77 08		 ja	 SHORT $L213614
  0015c	8b 31		 mov	 esi, DWORD PTR [ecx]
  0015e	89 44 24 40	 mov	 DWORD PTR _arRead$[esp+57568], eax
  00162	eb 04		 jmp	 SHORT $L213615
$L213614:
  00164	89 54 24 40	 mov	 DWORD PTR _arRead$[esp+57568], edx
$L213615:

; 467  : 
; 468  : 	
; 469  : 	char szQuery[QUERY_SIZE]	= { 0,};

  00168	c6 84 24 c0 40
	00 00 00	 mov	 BYTE PTR _szQuery$[esp+57560], 0
  00170	33 c0		 xor	 eax, eax
  00172	b9 ff 27 00 00	 mov	 ecx, 10239		; 000027ffH
  00177	8d bc 24 c1 40
	00 00		 lea	 edi, DWORD PTR _szQuery$[esp+57561]
  0017e	f3 ab		 rep stosd
  00180	66 ab		 stosw

; 470  : 
; 471  : 	//	mulcom	BEGIN100407	LOG_STR L2 cMurder quotation mark 
; 472  : 	//DBQryLog( szQuery, "L2", uidPlayer, iServer_No, 0, iLevel, 0, 0, 0, 0, 0, 0, 0, 0, 0, 'A', dWorld_No, cMurder, Pos.x, Pos.y, Pos.z, iAttackDmg, iMaxHP );
; 473  : 	CString	strMurderName	= cMurder;

  00182	8d 94 24 80 40
	00 00		 lea	 edx, DWORD PTR _cMurder$[esp+57560]
  00189	52		 push	 edx
  0018a	8d 4c 24 10	 lea	 ecx, DWORD PTR _strMurderName$[esp+57564]
  0018e	aa		 stosb
  0018f	e8 00 00 00 00	 call	 ??0?$CStringT@DV?$StrTraitMFC@DV?$ChTraitsCRT@D@ATL@@@@@ATL@@QAE@PBD@Z ; ATL::CStringT<char,StrTraitMFC<char,ATL::ChTraitsCRT<char> > >::CStringT<char,StrTraitMFC<char,ATL::ChTraitsCRT<char> > >

; 474  : 	strMurderName.Replace( "'", " " );

  00194	68 00 00 00 00	 push	 OFFSET FLAT:??_C@_01CLKCMJKC@?5?$AA@
  00199	68 00 00 00 00	 push	 OFFSET FLAT:??_C@_01GEODFPGF@?8?$AA@
  0019e	8d 4c 24 14	 lea	 ecx, DWORD PTR _strMurderName$[esp+57568]
  001a2	c6 84 24 dc e0
	00 00 01	 mov	 BYTE PTR __$EHRec$[esp+57576], 1
  001aa	e8 00 00 00 00	 call	 ?Replace@?$CStringT@DV?$StrTraitMFC@DV?$ChTraitsCRT@D@ATL@@@@@ATL@@QAEHPBD0@Z ; ATL::CStringT<char,StrTraitMFC<char,ATL::ChTraitsCRT<char> > >::Replace

; 475  : 
; 476  : 	DBQryLog( szQuery, "L2", uidPlayer, iServer_No, 0, iLevel, 0, 0, 0,
; 477  : 		0, 0, 0, 0, 0, 0, 'A', dWorld_No, strMurderName.GetBuffer(), Pos.x, Pos.y, Pos.z, iAttackDmg, iMaxHP );

  001af	8b 44 24 0c	 mov	 eax, DWORD PTR _strMurderName$[esp+57560]
  001b3	83 78 fc 01	 cmp	 DWORD PTR [eax-4], 1
  001b7	7e 11		 jle	 SHORT $L213631
  001b9	8b 40 f4	 mov	 eax, DWORD PTR [eax-12]
  001bc	50		 push	 eax
  001bd	8d 4c 24 10	 lea	 ecx, DWORD PTR _strMurderName$[esp+57564]
  001c1	e8 00 00 00 00	 call	 ?Fork@?$CSimpleStringT@D$0A@@ATL@@AAEXH@Z ; ATL::CSimpleStringT<char,0>::Fork
  001c6	8b 44 24 0c	 mov	 eax, DWORD PTR _strMurderName$[esp+57560]
$L213631:
  001ca	6a 00		 push	 0
  001cc	6a 00		 push	 0
  001ce	6a 00		 push	 0
  001d0	6a 00		 push	 0
  001d2	6a 00		 push	 0
  001d4	6a 00		 push	 0
  001d6	6a 00		 push	 0
  001d8	6a 00		 push	 0
  001da	6a 00		 push	 0
  001dc	6a 00		 push	 0
  001de	8b 4c 24 40	 mov	 ecx, DWORD PTR _iMaxHP$[esp+57600]
  001e2	8b 54 24 38	 mov	 edx, DWORD PTR _iAttackDmg$[esp+57600]
  001e6	6a 00		 push	 0
  001e8	6a 00		 push	 0
  001ea	6a 00		 push	 0
  001ec	51		 push	 ecx
  001ed	8b 4c 24 6c	 mov	 ecx, DWORD PTR _Pos$[esp+57624]
  001f1	52		 push	 edx
  001f2	8b 54 24 6c	 mov	 edx, DWORD PTR _Pos$[esp+57624]
  001f6	51		 push	 ecx
  001f7	8b 4c 24 6c	 mov	 ecx, DWORD PTR _Pos$[esp+57624]
  001fb	52		 push	 edx
  001fc	8b 54 24 58	 mov	 edx, DWORD PTR _dWorld_No$[esp+57628]
  00200	51		 push	 ecx
  00201	50		 push	 eax
  00202	52		 push	 edx
  00203	6a 41		 push	 65			; 00000041H
  00205	8b 44 24 70	 mov	 eax, DWORD PTR _iLevel$[esp+57644]
  00209	6a 00		 push	 0
  0020b	6a 00		 push	 0
  0020d	8b 8c 24 84 00
	00 00		 mov	 ecx, DWORD PTR _iServer_No$[esp+57652]
  00214	6a 00		 push	 0
  00216	6a 00		 push	 0
  00218	8b bc 24 84 00
	00 00		 mov	 edi, DWORD PTR $T213686[esp+57660]
  0021f	6a 00		 push	 0
  00221	6a 00		 push	 0
  00223	6a 00		 push	 0
  00225	6a 00		 push	 0
  00227	6a 00		 push	 0
  00229	50		 push	 eax
  0022a	6a 00		 push	 0
  0022c	6a 00		 push	 0
  0022e	51		 push	 ecx
  0022f	56		 push	 esi
  00230	68 00 00 00 00	 push	 OFFSET FLAT:??_C@_02JEEOAGDI@L2?$AA@
  00235	8d 94 24 50 41
	00 00		 lea	 edx, DWORD PTR _szQuery$[esp+57704]
  0023c	52		 push	 edx
  0023d	8b cf		 mov	 ecx, edi
  0023f	e8 00 00 00 00	 call	 ?DBQryLog@CDbManager@@QAEXPAD0KH_JHHHHHHHHHHDH0MMMHH0KHH0HHH0H0HK@Z ; CDbManager::DBQryLog

; 478  : 	//	mulcom	BEGIN100407	LOG_STR L2 cMurder quotation mark 
; 479  : 
; 480  : 	///  
; 481  : 	if ( FALSE == qry->Exec( szQuery ) )

  00244	8b 4c 24 24	 mov	 ecx, DWORD PTR $T213687[esp+57560]
  00248	8d 84 24 c0 40
	00 00		 lea	 eax, DWORD PTR _szQuery$[esp+57560]
  0024f	50		 push	 eax
  00250	e8 00 00 00 00	 call	 ?Exec@CQuery@@QAEHPBD@Z	; CQuery::Exec
  00255	85 c0		 test	 eax, eax
  00257	75 18		 jne	 SHORT $L208441

; 482  : 	{
; 483  : 		WriteLog( "%s, %d\t%d", __FILE__, __LINE__, uidPlayer );

  00259	56		 push	 esi
  0025a	68 e3 01 00 00	 push	 483			; 000001e3H
  0025f	68 00 00 00 00	 push	 OFFSET FLAT:??_C@_0GH@LHPNFEPP@?2Documents?5and?5Settings?2test?2Mes@
  00264	68 00 00 00 00	 push	 OFFSET FLAT:??_C@_09GEIHMOKC@?$CFs?0?5?$CFd?7?$CFd?$AA@
  00269	e8 00 00 00 00	 call	 ?WriteLog@@YAXPBDZZ	; WriteLog
  0026e	83 c4 10	 add	 esp, 16			; 00000010H
$L208441:

; 484  : 		FreeRequest( lpDbOverlappedPlus );
; 485  : 		return;
; 486  : 	}
; 487  : 
; 488  : //	qry->Clear();
; 489  : 	FreeRequest( lpDbOverlappedPlus );

  00271	8b cf		 mov	 ecx, edi
  00273	53		 push	 ebx
  00274	e8 00 00 00 00	 call	 ?FreeRequest@CDbManager@@QAEXPAUtagDB_OVERLAPPED_PLUS@@@Z ; CDbManager::FreeRequest

; 490  : }

  00279	8b 44 24 0c	 mov	 eax, DWORD PTR _strMurderName$[esp+57560]
  0027d	83 c0 f0	 add	 eax, -16		; fffffff0H
  00280	c6 84 24 d4 e0
	00 00 00	 mov	 BYTE PTR __$EHRec$[esp+57568], 0
  00288	8d 48 0c	 lea	 ecx, DWORD PTR [eax+12]
  0028b	83 ca ff	 or	 edx, -1
  0028e	f0 0f c1 11	 lock	  xadd	 DWORD PTR [ecx], edx
  00292	4a		 dec	 edx
  00293	85 d2		 test	 edx, edx
  00295	7f 08		 jg	 SHORT $L213682
  00297	8b 08		 mov	 ecx, DWORD PTR [eax]
  00299	8b 11		 mov	 edx, DWORD PTR [ecx]
  0029b	50		 push	 eax
  0029c	ff 52 04	 call	 DWORD PTR [edx+4]
$L213682:
  0029f	8d 4c 24 38	 lea	 ecx, DWORD PTR _arRead$[esp+57560]
  002a3	c7 84 24 d4 e0
	00 00 ff ff ff
	ff		 mov	 DWORD PTR __$EHRec$[esp+57568], -1
  002ae	e8 00 00 00 00	 call	 ??1CAr@@QAE@XZ		; CAr::~CAr
  002b3	8b 8c 24 cc e0
	00 00		 mov	 ecx, DWORD PTR __$EHRec$[esp+57560]
  002ba	64 89 0d 00 00
	00 00		 mov	 DWORD PTR fs:__except_list, ecx
  002c1	8b 8c 24 c4 e0
	00 00		 mov	 ecx, DWORD PTR __$ArrayPad$[esp+57560]
  002c8	5f		 pop	 edi
  002c9	5e		 pop	 esi
  002ca	33 cd		 xor	 ecx, ebp
  002cc	5b		 pop	 ebx
  002cd	e8 00 00 00 00	 call	 @__security_check_cookie@4
  002d2	8b e5		 mov	 esp, ebp
  002d4	5d		 pop	 ebp
  002d5	c2 08 00	 ret	 8
_TEXT	ENDS
;	COMDAT text$x
text$x	SEGMENT
$L213563:
  00000	8d 8d 60 1f ff
	ff		 lea	 ecx, DWORD PTR _arRead$[ebp]
  00006	e9 00 00 00 00	 jmp	 ??1CAr@@QAE@XZ		; CAr::~CAr
$L213564:
  0000b	8d 8d 34 1f ff
	ff		 lea	 ecx, DWORD PTR _strMurderName$[ebp]
  00011	e9 00 00 00 00	 jmp	 ??1?$CStringT@DV?$StrTraitMFC@DV?$ChTraitsCRT@D@ATL@@@@@ATL@@QAE@XZ ; ATL::CStringT<char,StrTraitMFC<char,ATL::ChTraitsCRT<char> > >::~CStringT<char,StrTraitMFC<char,ATL::ChTraitsCRT<char> > >
__ehhandler$?LogPlayDeath@CDbManager@@AAEXPAVCQuery@@PAUtagDB_OVERLAPPED_PLUS@@@Z:
  00016	b8 00 00 00 00	 mov	 eax, OFFSET FLAT:$T213690
  0001b	e9 00 00 00 00	 jmp	 ___CxxFrameHandler
text$x	ENDS
?LogPlayDeath@CDbManager@@AAEXPAVCQuery@@PAUtagDB_OVERLAPPED_PLUS@@@Z ENDP ; CDbManager::LogPlayDeath
PUBLIC	?LogLevelUp@CDbManager@@AAEXPAVCQuery@@PAUtagDB_OVERLAPPED_PLUS@@@Z ; CDbManager::LogLevelUp
PUBLIC	??_C@_09CLMGFIGF@?$CFs?0?5?$CFd?7?$CFc?$AA@	; `string'
PUBLIC	??_C@_02LPGDFFPL@L1?$AA@			; `string'
PUBLIC	??_C@_0O@NMNJACAM@?$CFs?0?5?$CFd?7?$CFd?0?5?$CFs?$AA@ ; `string'
;	COMDAT xdata$x
; File c:\documents and settings\test\mes documents\source\virtuos_v17\build\program\_network\misc\include\ar.h
xdata$x	SEGMENT
$T213875 DD	0ffffffffH
	DD	FLAT:$L213702
$T213857 DD	019930520H
	DD	01H
	DD	FLAT:$T213875
	DD	2 DUP(00H)
	DD	2 DUP(00H)
xdata$x	ENDS
;	COMDAT ??_C@_02LPGDFFPL@L1?$AA@
CONST	SEGMENT
??_C@_02LPGDFFPL@L1?$AA@ DB 'L1', 00H			; `string'
CONST	ENDS
;	COMDAT ??_C@_0O@NMNJACAM@?$CFs?0?5?$CFd?7?$CFd?0?5?$CFs?$AA@
CONST	SEGMENT
??_C@_0O@NMNJACAM@?$CFs?0?5?$CFd?7?$CFd?0?5?$CFs?$AA@ DB '%s, %d', 09H, '%'
	DB	'd, %s', 00H					; `string'
CONST	ENDS
;	COMDAT ??_C@_09CLMGFIGF@?$CFs?0?5?$CFd?7?$CFc?$AA@
CONST	SEGMENT
??_C@_09CLMGFIGF@?$CFs?0?5?$CFd?7?$CFc?$AA@ DB '%s, %d', 09H, '%c', 00H ; `string'
; Function compile flags: /Ogty
; File c:\documents and settings\test\mes documents\source\virtuos_v17\build\program\_database\dbmanagerlog.cpp
CONST	ENDS
;	COMDAT ?LogLevelUp@CDbManager@@AAEXPAVCQuery@@PAUtagDB_OVERLAPPED_PLUS@@@Z
_TEXT	SEGMENT
_cAction$ = -57460					; size = 1
$T213855 = -57456					; size = 4
_iFlightLevel$ = -57452					; size = 4
_iPlayJob$ = -57448					; size = 4
_iGP$ = -57444						; size = 4
_iLevel$ = -57440					; size = 4
_iInt$ = -57436						; size = 4
$T213853 = -57432					; size = 4
_iStr$ = -57428						; size = 4
_iSta$ = -57424						; size = 4
_iDex$ = -57420						; size = 4
_iJobLevel$ = -57416					; size = 4
_iLP$ = -57412						; size = 4
_iServer_No$ = -57408					; size = 4
$T213854 = -57404					; size = 4
_iExp1$ = -57400					; size = 8
_arRead$ = -57392					; size = 16404
_szQuery$ = -40984					; size = 40960
__$ArrayPad$ = -20					; size = 4
__$EHRec$ = -12						; size = 12
__$ReturnAddr$ = 4					; size = 4
_qry$ = 8						; size = 4
_lpDbOverlappedPlus$ = 12				; size = 4
?LogLevelUp@CDbManager@@AAEXPAVCQuery@@PAUtagDB_OVERLAPPED_PLUS@@@Z PROC NEAR ; CDbManager::LogLevelUp, COMDAT
; _this$ = ecx

; 493  : {

  00000	55		 push	 ebp
  00001	8b ec		 mov	 ebp, esp
  00003	83 e4 f8	 and	 esp, -8			; fffffff8H
  00006	6a ff		 push	 -1
  00008	68 00 00 00 00	 push	 __ehhandler$?LogLevelUp@CDbManager@@AAEXPAVCQuery@@PAUtagDB_OVERLAPPED_PLUS@@@Z
  0000d	64 a1 00 00 00
	00		 mov	 eax, DWORD PTR fs:__except_list
  00013	50		 push	 eax
  00014	64 89 25 00 00
	00 00		 mov	 DWORD PTR fs:__except_list, esp
  0001b	51		 push	 ecx
  0001c	b8 64 e0 00 00	 mov	 eax, 57444		; 0000e064H
  00021	e8 00 00 00 00	 call	 __chkstk
  00026	a1 00 00 00 00	 mov	 eax, DWORD PTR ___security_cookie
  0002b	33 c5		 xor	 eax, ebp
  0002d	89 84 24 60 e0
	00 00		 mov	 DWORD PTR __$ArrayPad$[esp+57460], eax
  00034	8b 45 08	 mov	 eax, DWORD PTR _qry$[ebp]
  00037	53		 push	 ebx
  00038	56		 push	 esi

; 494  : 	CAr arRead( lpDbOverlappedPlus->lpBuf, lpDbOverlappedPlus->uBufSize );
; 495  : 
; 496  : 	char		cPlay[17] = {0,};					//  
; 497  : 	int			iServer_No;							//  
; 498  : 	int			iLevel;								//  
; 499  : 	int			iPlayJob;							// _No
; 500  : 	int			iJobLevel;							//  
; 501  : 	int			iStr;								// 
; 502  : 	int			iDex;								// 
; 503  : 	int			iInt;								// 
; 504  : 	int			iSta;								// 
; 505  : 	int			iGP;								// GP()
; 506  : 	int			iLP;								// LP()
; 507  : 	EXPINTEGER	iExp1;								// Exp()
; 508  : 	int			iFlightLevel;						// 
; 509  : 	char		cAction;							// (    ,     
; 510  : 	u_long		uidPlayer;							
; 511  : 	DWORD		dwGold;
; 512  : 	DWORD		dwPlayerTime;	
; 513  : 
; 514  : 	iServer_No	= g_appInfo.dwSys;

  00039	89 44 24 40	 mov	 DWORD PTR $T213854[esp+57468], eax
  0003d	8b 45 0c	 mov	 eax, DWORD PTR _lpDbOverlappedPlus$[ebp]
  00040	8b 50 18	 mov	 edx, DWORD PTR [eax+24]
  00043	89 4c 24 24	 mov	 DWORD PTR $T213853[esp+57468], ecx
  00047	8b 48 1c	 mov	 ecx, DWORD PTR [eax+28]
  0004a	57		 push	 edi
  0004b	51		 push	 ecx
  0004c	52		 push	 edx
  0004d	8d 4c 24 58	 lea	 ecx, DWORD PTR _arRead$[esp+57480]
  00051	89 44 24 18	 mov	 DWORD PTR $T213855[esp+57480], eax
  00055	e8 00 00 00 00	 call	 ??0CAr@@QAE@PAXI@Z	; CAr::CAr
  0005a	a1 00 00 00 00	 mov	 eax, DWORD PTR ?g_appInfo@@3UAppInfo@@A

; 515  : 
; 516  : 	arRead >> iExp1;

  0005f	6a 08		 push	 8
  00061	8d 4c 24 4c	 lea	 ecx, DWORD PTR _iExp1$[esp+57476]
  00065	51		 push	 ecx
  00066	33 ff		 xor	 edi, edi
  00068	8d 4c 24 58	 lea	 ecx, DWORD PTR _arRead$[esp+57480]
  0006c	89 bc 24 84 e0
	00 00		 mov	 DWORD PTR __$EHRec$[esp+57488], edi
  00073	89 44 24 48	 mov	 DWORD PTR _iServer_No$[esp+57480], eax
  00077	e8 00 00 00 00	 call	 ?Read@CAr@@QAEXPAXI@Z	; CAr::Read

; 517  : 	arRead >> iFlightLevel;

  0007c	8b 54 24 58	 mov	 edx, DWORD PTR _arRead$[esp+57480]
  00080	8b 44 24 5c	 mov	 eax, DWORD PTR _arRead$[esp+57484]
  00084	8d 4a 04	 lea	 ecx, DWORD PTR [edx+4]
  00087	3b c8		 cmp	 ecx, eax
  00089	77 08		 ja	 SHORT $L213715
  0008b	8b 12		 mov	 edx, DWORD PTR [edx]
  0008d	89 54 24 14	 mov	 DWORD PTR _iFlightLevel$[esp+57472], edx
  00091	eb 06		 jmp	 SHORT $L213860
$L213715:
  00093	89 7c 24 14	 mov	 DWORD PTR _iFlightLevel$[esp+57472], edi
  00097	8b c8		 mov	 ecx, eax
$L213860:

; 518  : 	arRead >> iLevel;

  00099	8d 51 04	 lea	 edx, DWORD PTR [ecx+4]
  0009c	3b d0		 cmp	 edx, eax
  0009e	89 4c 24 58	 mov	 DWORD PTR _arRead$[esp+57480], ecx
  000a2	77 0a		 ja	 SHORT $L213727
  000a4	8b 09		 mov	 ecx, DWORD PTR [ecx]
  000a6	89 4c 24 20	 mov	 DWORD PTR _iLevel$[esp+57472], ecx
  000aa	8b ca		 mov	 ecx, edx
  000ac	eb 06		 jmp	 SHORT $L213861
$L213727:
  000ae	89 7c 24 20	 mov	 DWORD PTR _iLevel$[esp+57472], edi
  000b2	8b c8		 mov	 ecx, eax
$L213861:

; 519  : 	arRead >> iPlayJob;

  000b4	8d 51 04	 lea	 edx, DWORD PTR [ecx+4]
  000b7	3b d0		 cmp	 edx, eax
  000b9	89 4c 24 58	 mov	 DWORD PTR _arRead$[esp+57480], ecx
  000bd	77 08		 ja	 SHORT $L213739
  000bf	8b 09		 mov	 ecx, DWORD PTR [ecx]
  000c1	89 4c 24 18	 mov	 DWORD PTR _iPlayJob$[esp+57472], ecx
  000c5	eb 06		 jmp	 SHORT $L213862
$L213739:
  000c7	89 7c 24 18	 mov	 DWORD PTR _iPlayJob$[esp+57472], edi
  000cb	8b d0		 mov	 edx, eax
$L213862:

; 520  : 	arRead >> iJobLevel;

  000cd	8d 4a 04	 lea	 ecx, DWORD PTR [edx+4]
  000d0	3b c8		 cmp	 ecx, eax
  000d2	89 54 24 58	 mov	 DWORD PTR _arRead$[esp+57480], edx
  000d6	77 08		 ja	 SHORT $L213751
  000d8	8b 12		 mov	 edx, DWORD PTR [edx]
  000da	89 54 24 38	 mov	 DWORD PTR _iJobLevel$[esp+57472], edx
  000de	eb 06		 jmp	 SHORT $L213863
$L213751:
  000e0	89 7c 24 38	 mov	 DWORD PTR _iJobLevel$[esp+57472], edi
  000e4	8b c8		 mov	 ecx, eax
$L213863:

; 521  : 	arRead >> iStr;

  000e6	8d 51 04	 lea	 edx, DWORD PTR [ecx+4]
  000e9	3b d0		 cmp	 edx, eax
  000eb	89 4c 24 58	 mov	 DWORD PTR _arRead$[esp+57480], ecx
  000ef	77 08		 ja	 SHORT $L213763
  000f1	8b 09		 mov	 ecx, DWORD PTR [ecx]
  000f3	89 4c 24 2c	 mov	 DWORD PTR _iStr$[esp+57472], ecx
  000f7	eb 06		 jmp	 SHORT $L213864
$L213763:
  000f9	89 7c 24 2c	 mov	 DWORD PTR _iStr$[esp+57472], edi
  000fd	8b d0		 mov	 edx, eax
$L213864:

; 522  : 	arRead >> iDex;

  000ff	8d 4a 04	 lea	 ecx, DWORD PTR [edx+4]
  00102	3b c8		 cmp	 ecx, eax
  00104	89 54 24 58	 mov	 DWORD PTR _arRead$[esp+57480], edx
  00108	77 08		 ja	 SHORT $L213775
  0010a	8b 12		 mov	 edx, DWORD PTR [edx]
  0010c	89 54 24 34	 mov	 DWORD PTR _iDex$[esp+57472], edx
  00110	eb 06		 jmp	 SHORT $L213865
$L213775:
  00112	89 7c 24 34	 mov	 DWORD PTR _iDex$[esp+57472], edi
  00116	8b c8		 mov	 ecx, eax
$L213865:

; 523  : 	arRead >> iInt;

  00118	8d 51 04	 lea	 edx, DWORD PTR [ecx+4]
  0011b	3b d0		 cmp	 edx, eax
  0011d	89 4c 24 58	 mov	 DWORD PTR _arRead$[esp+57480], ecx
  00121	77 08		 ja	 SHORT $L213787
  00123	8b 09		 mov	 ecx, DWORD PTR [ecx]
  00125	89 4c 24 24	 mov	 DWORD PTR _iInt$[esp+57472], ecx
  00129	eb 06		 jmp	 SHORT $L213866
$L213787:
  0012b	89 7c 24 24	 mov	 DWORD PTR _iInt$[esp+57472], edi
  0012f	8b d0		 mov	 edx, eax
$L213866:

; 524  : 	arRead >> iSta;

  00131	8d 4a 04	 lea	 ecx, DWORD PTR [edx+4]
  00134	3b c8		 cmp	 ecx, eax
  00136	89 54 24 58	 mov	 DWORD PTR _arRead$[esp+57480], edx
  0013a	77 08		 ja	 SHORT $L213799
  0013c	8b 12		 mov	 edx, DWORD PTR [edx]
  0013e	89 54 24 30	 mov	 DWORD PTR _iSta$[esp+57472], edx
  00142	eb 06		 jmp	 SHORT $L213867
$L213799:
  00144	89 7c 24 30	 mov	 DWORD PTR _iSta$[esp+57472], edi
  00148	8b c8		 mov	 ecx, eax
$L213867:

; 525  : 	arRead >> iGP;

  0014a	8d 51 04	 lea	 edx, DWORD PTR [ecx+4]
  0014d	3b d0		 cmp	 edx, eax
  0014f	89 4c 24 58	 mov	 DWORD PTR _arRead$[esp+57480], ecx
  00153	77 08		 ja	 SHORT $L213811
  00155	8b 09		 mov	 ecx, DWORD PTR [ecx]
  00157	89 4c 24 1c	 mov	 DWORD PTR _iGP$[esp+57472], ecx
  0015b	eb 06		 jmp	 SHORT $L213868
$L213811:
  0015d	89 7c 24 1c	 mov	 DWORD PTR _iGP$[esp+57472], edi
  00161	8b d0		 mov	 edx, eax
$L213868:

; 526  : 	arRead >> iLP;

  00163	8d 4a 04	 lea	 ecx, DWORD PTR [edx+4]
  00166	3b c8		 cmp	 ecx, eax
  00168	89 54 24 58	 mov	 DWORD PTR _arRead$[esp+57480], edx
  0016c	77 08		 ja	 SHORT $L213823
  0016e	8b 12		 mov	 edx, DWORD PTR [edx]
  00170	89 54 24 3c	 mov	 DWORD PTR _iLP$[esp+57472], edx
  00174	eb 06		 jmp	 SHORT $L213869
$L213823:
  00176	89 7c 24 3c	 mov	 DWORD PTR _iLP$[esp+57472], edi
  0017a	8b c8		 mov	 ecx, eax
$L213869:

; 527  : 	arRead >> dwGold;

  0017c	8d 51 04	 lea	 edx, DWORD PTR [ecx+4]
  0017f	3b d0		 cmp	 edx, eax
  00181	89 4c 24 58	 mov	 DWORD PTR _arRead$[esp+57480], ecx
  00185	77 04		 ja	 SHORT $L213828
  00187	8b 19		 mov	 ebx, DWORD PTR [ecx]
  00189	eb 04		 jmp	 SHORT $L213870
$L213828:
  0018b	33 db		 xor	 ebx, ebx
  0018d	8b d0		 mov	 edx, eax
$L213870:

; 528  : 	arRead >> dwPlayerTime;

  0018f	8d 4a 04	 lea	 ecx, DWORD PTR [edx+4]
  00192	3b c8		 cmp	 ecx, eax
  00194	89 54 24 58	 mov	 DWORD PTR _arRead$[esp+57480], edx
  00198	77 04		 ja	 SHORT $L213833
  0019a	8b 12		 mov	 edx, DWORD PTR [edx]
  0019c	eb 04		 jmp	 SHORT $L213871
$L213833:
  0019e	33 d2		 xor	 edx, edx
  001a0	8b c8		 mov	 ecx, eax
$L213871:

; 529  : 	
; 530  : 	int iAction;
; 531  : 	arRead >> iAction;

  001a2	8d 71 04	 lea	 esi, DWORD PTR [ecx+4]
  001a5	3b f0		 cmp	 esi, eax
  001a7	89 4c 24 58	 mov	 DWORD PTR _arRead$[esp+57480], ecx
  001ab	77 04		 ja	 SHORT $L213845
  001ad	8b 09		 mov	 ecx, DWORD PTR [ecx]
  001af	eb 04		 jmp	 SHORT $L213872
$L213845:
  001b1	33 c9		 xor	 ecx, ecx
  001b3	8b f0		 mov	 esi, eax
$L213872:

; 532  : 	arRead >> uidPlayer;

  001b5	8d 7e 04	 lea	 edi, DWORD PTR [esi+4]
  001b8	3b f8		 cmp	 edi, eax
  001ba	89 74 24 58	 mov	 DWORD PTR _arRead$[esp+57480], esi
  001be	77 08		 ja	 SHORT $L213850
  001c0	8b 36		 mov	 esi, DWORD PTR [esi]
  001c2	89 7c 24 58	 mov	 DWORD PTR _arRead$[esp+57480], edi
  001c6	eb 06		 jmp	 SHORT $L213851
$L213850:
  001c8	33 f6		 xor	 esi, esi
  001ca	89 44 24 58	 mov	 DWORD PTR _arRead$[esp+57480], eax
$L213851:

; 533  : 	switch( iAction )

  001ce	8d 41 ff	 lea	 eax, DWORD PTR [ecx-1]
  001d1	83 f8 09	 cmp	 eax, 9
  001d4	0f 87 53 01 00
	00		 ja	 $L208481
  001da	ff 24 85 00 00
	00 00		 jmp	 DWORD PTR $L213874[eax*4]
$L208471:

; 534  : 	{
; 535  : 	case 1:					//  
; 536  : 		cAction = 'L';

  001e1	c6 44 24 0c 4c	 mov	 BYTE PTR _cAction$[esp+57472], 76 ; 0000004cH

; 537  : 		break;

  001e6	eb 3d		 jmp	 SHORT $L208468
$L208472:

; 538  : 	case 2:					//  
; 539  : 		cAction = 'S';

  001e8	c6 44 24 0c 53	 mov	 BYTE PTR _cAction$[esp+57472], 83 ; 00000053H

; 540  : 		break;

  001ed	eb 36		 jmp	 SHORT $L208468
$L208473:

; 541  : 	case 3:					// () 
; 542  : 		cAction = 'J';

  001ef	c6 44 24 0c 4a	 mov	 BYTE PTR _cAction$[esp+57472], 74 ; 0000004aH

; 543  : 		break;

  001f4	eb 2f		 jmp	 SHORT $L208468
$L208474:

; 544  : 	case 4:					// 
; 545  : 		cAction = 'C';

  001f6	c6 44 24 0c 43	 mov	 BYTE PTR _cAction$[esp+57472], 67 ; 00000043H

; 546  : 		break;

  001fb	eb 28		 jmp	 SHORT $L208468
$L208475:

; 547  : 	case 5:					//   5 20%
; 548  : 		cAction = 'E';

  001fd	c6 44 24 0c 45	 mov	 BYTE PTR _cAction$[esp+57472], 69 ; 00000045H

; 549  : 		break;

  00202	eb 21		 jmp	 SHORT $L208468
$L208476:

; 550  : 	case 6:
; 551  : 		cAction = 'D';		//   

  00204	c6 44 24 0c 44	 mov	 BYTE PTR _cAction$[esp+57472], 68 ; 00000044H

; 552  : 		break;

  00209	eb 1a		 jmp	 SHORT $L208468
$L208477:

; 553  : 	case 7:
; 554  : 		cAction = 'M';		//  

  0020b	c6 44 24 0c 4d	 mov	 BYTE PTR _cAction$[esp+57472], 77 ; 0000004dH

; 555  : 		break;

  00210	eb 13		 jmp	 SHORT $L208468
$L208478:

; 556  : 	case 8:
; 557  : 		cAction = '1';		// 

  00212	c6 44 24 0c 31	 mov	 BYTE PTR _cAction$[esp+57472], 49 ; 00000031H

; 558  : 		break;

  00217	eb 0c		 jmp	 SHORT $L208468
$L208479:

; 559  : 	case 9:
; 560  : 		cAction = '2';		// 

  00219	c6 44 24 0c 32	 mov	 BYTE PTR _cAction$[esp+57472], 50 ; 00000032H

; 561  : 		break;

  0021e	eb 05		 jmp	 SHORT $L208468
$L208480:

; 562  : 	case 10:
; 563  : 		cAction = '3';		//   

  00220	c6 44 24 0c 33	 mov	 BYTE PTR _cAction$[esp+57472], 51 ; 00000033H
$L208468:

; 570  : 		}
; 571  : 	}
; 572  : 
; 573  : 	char szQuery[QUERY_SIZE]	= { 0,};
; 574  : 	DBQryLog( szQuery, "L1", uidPlayer, iServer_No, iExp1, iLevel, iPlayJob, iJobLevel, iFlightLevel, iStr, iDex, iInt, iSta, iGP, iLP, cAction, 0, '\0', 0, 0, 0, dwGold, dwPlayerTime );

  00225	6a 00		 push	 0
  00227	6a 00		 push	 0
  00229	6a 00		 push	 0
  0022b	6a 00		 push	 0
  0022d	6a 00		 push	 0
  0022f	6a 00		 push	 0
  00231	6a 00		 push	 0
  00233	6a 00		 push	 0
  00235	6a 00		 push	 0
  00237	6a 00		 push	 0
  00239	6a 00		 push	 0
  0023b	6a 00		 push	 0
  0023d	6a 00		 push	 0
  0023f	52		 push	 edx
  00240	53		 push	 ebx
  00241	6a 00		 push	 0
  00243	8b 54 24 5c	 mov	 edx, DWORD PTR _iGP$[esp+57536]
  00247	6a 00		 push	 0
  00249	6a 00		 push	 0
  0024b	33 c0		 xor	 eax, eax
  0024d	6a 00		 push	 0
  0024f	6a 00		 push	 0
  00251	c6 84 24 b8 40
	00 00 00	 mov	 BYTE PTR _szQuery$[esp+57552], 0
  00259	b9 ff 27 00 00	 mov	 ecx, 10239		; 000027ffH
  0025e	8d bc 24 b9 40
	00 00		 lea	 edi, DWORD PTR _szQuery$[esp+57553]
  00265	f3 ab		 rep stosd
  00267	8b 8c 24 8c 00
	00 00		 mov	 ecx, DWORD PTR _iLP$[esp+57552]
  0026e	66 ab		 stosw
  00270	aa		 stosb
  00271	8b 44 24 5c	 mov	 eax, DWORD PTR _cAction$[esp+57552]
  00275	50		 push	 eax
  00276	8b 84 24 84 00
	00 00		 mov	 eax, DWORD PTR _iSta$[esp+57556]
  0027d	51		 push	 ecx
  0027e	8b 4c 24 7c	 mov	 ecx, DWORD PTR _iInt$[esp+57560]
  00282	52		 push	 edx
  00283	8b 94 24 90 00
	00 00		 mov	 edx, DWORD PTR _iDex$[esp+57564]
  0028a	50		 push	 eax
  0028b	8b 84 24 8c 00
	00 00		 mov	 eax, DWORD PTR _iStr$[esp+57568]
  00292	51		 push	 ecx
  00293	8b 4c 24 78	 mov	 ecx, DWORD PTR _iFlightLevel$[esp+57572]
  00297	52		 push	 edx
  00298	8b 94 24 a0 00
	00 00		 mov	 edx, DWORD PTR _iJobLevel$[esp+57576]
  0029f	8b bc 24 90 00
	00 00		 mov	 edi, DWORD PTR $T213853[esp+57576]
  002a6	50		 push	 eax
  002a7	8b 84 24 84 00
	00 00		 mov	 eax, DWORD PTR _iPlayJob$[esp+57580]
  002ae	51		 push	 ecx
  002af	8b 8c 24 90 00
	00 00		 mov	 ecx, DWORD PTR _iLevel$[esp+57584]
  002b6	52		 push	 edx
  002b7	8b 94 24 c0 00
	00 00		 mov	 edx, DWORD PTR _iExp1$[esp+57592]
  002be	50		 push	 eax
  002bf	8b 84 24 c0 00
	00 00		 mov	 eax, DWORD PTR _iExp1$[esp+57592]
  002c6	51		 push	 ecx
  002c7	8b 8c 24 bc 00
	00 00		 mov	 ecx, DWORD PTR _iServer_No$[esp+57596]
  002ce	52		 push	 edx
  002cf	50		 push	 eax
  002d0	51		 push	 ecx
  002d1	56		 push	 esi
  002d2	68 00 00 00 00	 push	 OFFSET FLAT:??_C@_02LPGDFFPL@L1?$AA@
  002d7	8d 94 24 f8 40
	00 00		 lea	 edx, DWORD PTR _szQuery$[esp+57616]
  002de	52		 push	 edx
  002df	8b cf		 mov	 ecx, edi
  002e1	e8 00 00 00 00	 call	 ?DBQryLog@CDbManager@@QAEXPAD0KH_JHHHHHHHHHHDH0MMMHH0KHH0HHH0H0HK@Z ; CDbManager::DBQryLog

; 575  : 
; 576  : 	if ( FALSE == qry->Exec( szQuery ) )

  002e6	8b 4c 24 44	 mov	 ecx, DWORD PTR $T213854[esp+57472]
  002ea	8d 84 24 68 40
	00 00		 lea	 eax, DWORD PTR _szQuery$[esp+57472]
  002f1	50		 push	 eax
  002f2	e8 00 00 00 00	 call	 ?Exec@CQuery@@QAEHPBD@Z	; CQuery::Exec
  002f7	85 c0		 test	 eax, eax
  002f9	75 29		 jne	 SHORT $L208485

; 577  : 	{
; 578  : 		WriteLog( "%s, %d\t%d, %s", __FILE__, __LINE__, uidPlayer, szQuery );

  002fb	8d 8c 24 68 40
	00 00		 lea	 ecx, DWORD PTR _szQuery$[esp+57472]
  00302	51		 push	 ecx
  00303	56		 push	 esi
  00304	68 42 02 00 00	 push	 578			; 00000242H
  00309	68 00 00 00 00	 push	 OFFSET FLAT:??_C@_0GH@LHPNFEPP@?2Documents?5and?5Settings?2test?2Mes@
  0030e	68 00 00 00 00	 push	 OFFSET FLAT:??_C@_0O@NMNJACAM@?$CFs?0?5?$CFd?7?$CFd?0?5?$CFs?$AA@
  00313	e8 00 00 00 00	 call	 ?WriteLog@@YAXPBDZZ	; WriteLog

; 579  : 		FreeRequest( lpDbOverlappedPlus );

  00318	8b 54 24 24	 mov	 edx, DWORD PTR $T213855[esp+57492]
  0031c	83 c4 14	 add	 esp, 20			; 00000014H
  0031f	52		 push	 edx
  00320	8b cf		 mov	 ecx, edi

; 580  : 		return;

  00322	eb 2a		 jmp	 SHORT $L213873
$L208485:

; 581  : 	}
; 582  : 
; 583  : 	FreeRequest( lpDbOverlappedPlus );

  00324	8b 44 24 10	 mov	 eax, DWORD PTR $T213855[esp+57472]
  00328	50		 push	 eax
  00329	8b cf		 mov	 ecx, edi

; 584  : }

  0032b	eb 21		 jmp	 SHORT $L213873
$L208481:

; 564  : 		break;		
; 565  : 	default:
; 566  : 		{
; 567  : 			WriteLog( "%s, %d\t%c", __FILE__, __LINE__, iAction );

  0032d	51		 push	 ecx
  0032e	68 37 02 00 00	 push	 567			; 00000237H
  00333	68 00 00 00 00	 push	 OFFSET FLAT:??_C@_0GH@LHPNFEPP@?2Documents?5and?5Settings?2test?2Mes@
  00338	68 00 00 00 00	 push	 OFFSET FLAT:??_C@_09CLMGFIGF@?$CFs?0?5?$CFd?7?$CFc?$AA@
  0033d	e8 00 00 00 00	 call	 ?WriteLog@@YAXPBDZZ	; WriteLog

; 568  : 			FreeRequest( lpDbOverlappedPlus );

  00342	8b 4c 24 20	 mov	 ecx, DWORD PTR $T213855[esp+57488]
  00346	83 c4 10	 add	 esp, 16			; 00000010H
  00349	51		 push	 ecx
  0034a	8b 4c 24 2c	 mov	 ecx, DWORD PTR $T213853[esp+57476]
$L213873:
  0034e	e8 00 00 00 00	 call	 ?FreeRequest@CDbManager@@QAEXPAUtagDB_OVERLAPPED_PLUS@@@Z ; CDbManager::FreeRequest

; 569  : 			return;

  00353	8d 4c 24 50	 lea	 ecx, DWORD PTR _arRead$[esp+57472]
  00357	c7 84 24 7c e0
	00 00 ff ff ff
	ff		 mov	 DWORD PTR __$EHRec$[esp+57480], -1
  00362	e8 00 00 00 00	 call	 ??1CAr@@QAE@XZ		; CAr::~CAr

; 584  : }

  00367	8b 8c 24 74 e0
	00 00		 mov	 ecx, DWORD PTR __$EHRec$[esp+57472]
  0036e	64 89 0d 00 00
	00 00		 mov	 DWORD PTR fs:__except_list, ecx
  00375	8b 8c 24 6c e0
	00 00		 mov	 ecx, DWORD PTR __$ArrayPad$[esp+57472]
  0037c	5f		 pop	 edi
  0037d	5e		 pop	 esi
  0037e	33 cd		 xor	 ecx, ebp
  00380	5b		 pop	 ebx
  00381	e8 00 00 00 00	 call	 @__security_check_cookie@4
  00386	8b e5		 mov	 esp, ebp
  00388	5d		 pop	 ebp
  00389	c2 08 00	 ret	 8
$L213874:
  0038c	00 00 00 00	 DD	 $L208471
  00390	00 00 00 00	 DD	 $L208472
  00394	00 00 00 00	 DD	 $L208473
  00398	00 00 00 00	 DD	 $L208474
  0039c	00 00 00 00	 DD	 $L208475
  003a0	00 00 00 00	 DD	 $L208476
  003a4	00 00 00 00	 DD	 $L208477
  003a8	00 00 00 00	 DD	 $L208478
  003ac	00 00 00 00	 DD	 $L208479
  003b0	00 00 00 00	 DD	 $L208480
_TEXT	ENDS
;	COMDAT text$x
text$x	SEGMENT
$L213702:
  00000	8d 8d d0 1f ff
	ff		 lea	 ecx, DWORD PTR _arRead$[ebp]
  00006	e9 00 00 00 00	 jmp	 ??1CAr@@QAE@XZ		; CAr::~CAr
__ehhandler$?LogLevelUp@CDbManager@@AAEXPAVCQuery@@PAUtagDB_OVERLAPPED_PLUS@@@Z:
  0000b	b8 00 00 00 00	 mov	 eax, OFFSET FLAT:$T213857
  00010	e9 00 00 00 00	 jmp	 ___CxxFrameHandler
text$x	ENDS
?LogLevelUp@CDbManager@@AAEXPAVCQuery@@PAUtagDB_OVERLAPPED_PLUS@@@Z ENDP ; CDbManager::LogLevelUp
PUBLIC	?LogServerDeath@CDbManager@@AAEXPAVCQuery@@PAUtagDB_OVERLAPPED_PLUS@@@Z ; CDbManager::LogServerDeath
PUBLIC	??_C@_0N@BNMNAMM@?$CFY?$CFm?$CFd?$CFH?$CFM?$CFS?$AA@ ; `string'
PUBLIC	??_C@_02GOKBOOLC@L8?$AA@			; `string'
;	COMDAT xdata$x
; File c:\program files\microsoft visual studio .net 2003\vc7\atlmfc\include\atlsimpstr.h
xdata$x	SEGMENT
$T213977 DD	0ffffffffH
	DD	FLAT:$L213880
	DD	00H
	DD	FLAT:$L213881
$T213972 DD	019930520H
	DD	02H
	DD	FLAT:$T213977
	DD	2 DUP(00H)
	DD	2 DUP(00H)
xdata$x	ENDS
;	COMDAT ??_C@_0N@BNMNAMM@?$CFY?$CFm?$CFd?$CFH?$CFM?$CFS?$AA@
CONST	SEGMENT
??_C@_0N@BNMNAMM@?$CFY?$CFm?$CFd?$CFH?$CFM?$CFS?$AA@ DB '%Y%m%d%H%M%S', 00H ; `string'
CONST	ENDS
;	COMDAT ??_C@_02GOKBOOLC@L8?$AA@
CONST	SEGMENT
??_C@_02GOKBOOLC@L8?$AA@ DB 'L8', 00H			; `string'
; Function compile flags: /Ogty
; File c:\documents and settings\test\mes documents\source\virtuos_v17\build\program\_database\dbmanagerlog.cpp
CONST	ENDS
;	COMDAT ?LogServerDeath@CDbManager@@AAEXPAVCQuery@@PAUtagDB_OVERLAPPED_PLUS@@@Z
_TEXT	SEGMENT
_strStart$ = -57432					; size = 4
$T213890 = -57428					; size = 4
$T213969 = -57424					; size = 4
_iServer_No$ = -57420					; size = 4
_tStart$ = -57416					; size = 8
_siStart$ = -57408					; size = 16
_arRead$ = -57392					; size = 16404
_szQuery$ = -40984					; size = 40960
__$ArrayPad$ = -20					; size = 4
__$EHRec$ = -12						; size = 12
__$ReturnAddr$ = 4					; size = 4
_qry$ = 8						; size = 4
_lpDbOverlappedPlus$ = 12				; size = 4
?LogServerDeath@CDbManager@@AAEXPAVCQuery@@PAUtagDB_OVERLAPPED_PLUS@@@Z PROC NEAR ; CDbManager::LogServerDeath, COMDAT
; _this$ = ecx

; 587  : {

  00000	55		 push	 ebp
  00001	8b ec		 mov	 ebp, esp
  00003	83 e4 f8	 and	 esp, -8			; fffffff8H
  00006	6a ff		 push	 -1
  00008	68 00 00 00 00	 push	 __ehhandler$?LogServerDeath@CDbManager@@AAEXPAVCQuery@@PAUtagDB_OVERLAPPED_PLUS@@@Z
  0000d	64 a1 00 00 00
	00		 mov	 eax, DWORD PTR fs:__except_list
  00013	50		 push	 eax
  00014	64 89 25 00 00
	00 00		 mov	 DWORD PTR fs:__except_list, esp
  0001b	51		 push	 ecx
  0001c	b8 4c e0 00 00	 mov	 eax, 57420		; 0000e04cH
  00021	e8 00 00 00 00	 call	 __chkstk
  00026	a1 00 00 00 00	 mov	 eax, DWORD PTR ___security_cookie
  0002b	53		 push	 ebx
  0002c	56		 push	 esi
  0002d	8b 75 0c	 mov	 esi, DWORD PTR _lpDbOverlappedPlus$[ebp]

; 588  : 	CAr arRead( lpDbOverlappedPlus->lpBuf, lpDbOverlappedPlus->uBufSize );

  00030	8b 56 18	 mov	 edx, DWORD PTR [esi+24]
  00033	8b d9		 mov	 ebx, ecx
  00035	8b 4e 1c	 mov	 ecx, DWORD PTR [esi+28]
  00038	33 c5		 xor	 eax, ebp
  0003a	57		 push	 edi
  0003b	51		 push	 ecx
  0003c	89 84 24 58 e0
	00 00		 mov	 DWORD PTR __$ArrayPad$[esp+57452], eax
  00043	8b 45 08	 mov	 eax, DWORD PTR _qry$[ebp]
  00046	52		 push	 edx
  00047	8d 4c 24 40	 lea	 ecx, DWORD PTR _arRead$[esp+57456]

; 589  : 
; 590  : 	int			iServer_No;							//  
; 591  : 	SYSTEMTIME	siStart;
; 592  : 		
; 593  : 	iServer_No	= g_appInfo.dwSys;

  0004b	89 44 24 20	 mov	 DWORD PTR $T213969[esp+57456], eax
  0004f	e8 00 00 00 00	 call	 ??0CAr@@QAE@PAXI@Z	; CAr::CAr
  00054	a1 00 00 00 00	 mov	 eax, DWORD PTR ?g_appInfo@@3UAppInfo@@A

; 594  : 	arRead.Read( &siStart, sizeof(SYSTEMTIME) );

  00059	6a 10		 push	 16			; 00000010H
  0005b	8d 4c 24 2c	 lea	 ecx, DWORD PTR _siStart$[esp+57452]
  0005f	51		 push	 ecx
  00060	8d 4c 24 40	 lea	 ecx, DWORD PTR _arRead$[esp+57456]
  00064	c7 84 24 6c e0
	00 00 00 00 00
	00		 mov	 DWORD PTR __$EHRec$[esp+57464], 0
  0006f	89 44 24 24	 mov	 DWORD PTR _iServer_No$[esp+57456], eax
  00073	e8 00 00 00 00	 call	 ?Read@CAr@@QAEXPAXI@Z	; CAr::Read

; 595  : 
; 596  : 	CTime tStart( siStart );

  00078	6a ff		 push	 -1
  0007a	8d 54 24 2c	 lea	 edx, DWORD PTR _siStart$[esp+57452]
  0007e	52		 push	 edx
  0007f	8d 4c 24 28	 lea	 ecx, DWORD PTR _tStart$[esp+57456]
  00083	e8 00 00 00 00	 call	 ??0CTime@ATL@@QAE@ABU_SYSTEMTIME@@H@Z ; ATL::CTime::CTime

; 597  : 	CString strStart = tStart.Format( "%Y%m%d%H%M%S" );

  00088	68 00 00 00 00	 push	 OFFSET FLAT:??_C@_0N@BNMNAMM@?$CFY?$CFm?$CFd?$CFH?$CFM?$CFS?$AA@
  0008d	8d 44 24 14	 lea	 eax, DWORD PTR _strStart$[esp+57452]
  00091	50		 push	 eax
  00092	8d 4c 24 28	 lea	 ecx, DWORD PTR _tStart$[esp+57456]
  00096	e8 00 00 00 00	 call	 ?Format@CTime@ATL@@QBE?AV?$CStringT@DV?$StrTraitMFC@DV?$ChTraitsCRT@D@ATL@@@@@2@PBD@Z ; ATL::CTime::Format

; 598  : 	char szQuery[QUERY_SIZE]	= { 0,};
; 599  : 	DBQryLog( szQuery, "L8", 0, iServer_No, 0, 0, 0, 0, 0,
; 600  : 		0, 0, 0, 0, 0, 0, 'A',
; 601  : 		0, '\0', 0.0f, 0.0f, 0.0f, 0, 0,
; 602  : 		0, 0, 0, 0, '\0', 0, 0,
; 603  : 		0, strStart.GetBuffer( strStart.GetLength() ) );

  0009b	8b 54 24 10	 mov	 edx, DWORD PTR _strStart$[esp+57448]
  0009f	33 c0		 xor	 eax, eax
  000a1	c6 84 24 50 40
	00 00 00	 mov	 BYTE PTR _szQuery$[esp+57448], 0
  000a9	b9 ff 27 00 00	 mov	 ecx, 10239		; 000027ffH
  000ae	8d bc 24 51 40
	00 00		 lea	 edi, DWORD PTR _szQuery$[esp+57449]
  000b5	f3 ab		 rep stosd
  000b7	66 ab		 stosw
  000b9	aa		 stosb
  000ba	8b 4a f4	 mov	 ecx, DWORD PTR [edx-12]
  000bd	8b 42 fc	 mov	 eax, DWORD PTR [edx-4]
  000c0	89 4c 24 14	 mov	 DWORD PTR $T213890[esp+57448], ecx
  000c4	8b 7c 24 14	 mov	 edi, DWORD PTR $T213890[esp+57448]
  000c8	b9 01 00 00 00	 mov	 ecx, 1
  000cd	2b c8		 sub	 ecx, eax
  000cf	8b 42 f8	 mov	 eax, DWORD PTR [edx-8]
  000d2	2b c7		 sub	 eax, edi
  000d4	0b c1		 or	 eax, ecx
  000d6	c6 84 24 64 e0
	00 00 01	 mov	 BYTE PTR __$EHRec$[esp+57456], 1
  000de	7d 10		 jge	 SHORT $L213913
  000e0	8b d7		 mov	 edx, edi
  000e2	52		 push	 edx
  000e3	8d 4c 24 14	 lea	 ecx, DWORD PTR _strStart$[esp+57452]
  000e7	e8 00 00 00 00	 call	 ?PrepareWrite2@?$CSimpleStringT@D$0A@@ATL@@AAEXH@Z ; ATL::CSimpleStringT<char,0>::PrepareWrite2
  000ec	8b 54 24 10	 mov	 edx, DWORD PTR _strStart$[esp+57448]
$L213913:
  000f0	6a 00		 push	 0
  000f2	6a 00		 push	 0
  000f4	6a 00		 push	 0
  000f6	6a 00		 push	 0
  000f8	52		 push	 edx
  000f9	6a 00		 push	 0
  000fb	6a 00		 push	 0
  000fd	6a 00		 push	 0
  000ff	6a 00		 push	 0
  00101	6a 00		 push	 0
  00103	6a 00		 push	 0
  00105	6a 00		 push	 0
  00107	6a 00		 push	 0
  00109	6a 00		 push	 0
  0010b	6a 00		 push	 0
  0010d	6a 00		 push	 0
  0010f	6a 00		 push	 0
  00111	6a 00		 push	 0
  00113	6a 00		 push	 0
  00115	6a 00		 push	 0
  00117	6a 41		 push	 65			; 00000041H
  00119	6a 00		 push	 0
  0011b	6a 00		 push	 0
  0011d	8b 44 24 78	 mov	 eax, DWORD PTR _iServer_No$[esp+57540]
  00121	6a 00		 push	 0
  00123	6a 00		 push	 0
  00125	6a 00		 push	 0
  00127	6a 00		 push	 0
  00129	6a 00		 push	 0
  0012b	6a 00		 push	 0
  0012d	6a 00		 push	 0
  0012f	6a 00		 push	 0
  00131	6a 00		 push	 0
  00133	6a 00		 push	 0
  00135	50		 push	 eax
  00136	6a 00		 push	 0
  00138	68 00 00 00 00	 push	 OFFSET FLAT:??_C@_02GOKBOOLC@L8?$AA@
  0013d	8d 8c 24 e0 40
	00 00		 lea	 ecx, DWORD PTR _szQuery$[esp+57592]
  00144	51		 push	 ecx
  00145	8b cb		 mov	 ecx, ebx
  00147	e8 00 00 00 00	 call	 ?DBQryLog@CDbManager@@QAEXPAD0KH_JHHHHHHHHHHDH0MMMHH0KHH0HHH0H0HK@Z ; CDbManager::DBQryLog

; 604  : 
; 605  : 	if ( FALSE == qry->Exec( szQuery ) )

  0014c	8b 4c 24 18	 mov	 ecx, DWORD PTR $T213969[esp+57448]
  00150	8d 94 24 50 40
	00 00		 lea	 edx, DWORD PTR _szQuery$[esp+57448]
  00157	52		 push	 edx
  00158	e8 00 00 00 00	 call	 ?Exec@CQuery@@QAEHPBD@Z	; CQuery::Exec
  0015d	85 c0		 test	 eax, eax
  0015f	75 1f		 jne	 SHORT $L208502

; 606  : 	{
; 607  : 		WriteLog( "%s, %d\t%s", __FILE__, __LINE__, szQuery );

  00161	8d 84 24 50 40
	00 00		 lea	 eax, DWORD PTR _szQuery$[esp+57448]
  00168	50		 push	 eax
  00169	68 5f 02 00 00	 push	 607			; 0000025fH
  0016e	68 00 00 00 00	 push	 OFFSET FLAT:??_C@_0GH@LHPNFEPP@?2Documents?5and?5Settings?2test?2Mes@
  00173	68 00 00 00 00	 push	 OFFSET FLAT:??_C@_09GBAEEKDE@?$CFs?0?5?$CFd?7?$CFs?$AA@
  00178	e8 00 00 00 00	 call	 ?WriteLog@@YAXPBDZZ	; WriteLog
  0017d	83 c4 10	 add	 esp, 16			; 00000010H
$L208502:

; 608  : 		FreeRequest( lpDbOverlappedPlus );
; 609  : 		return;
; 610  : 	}
; 611  : 
; 612  : 	FreeRequest( lpDbOverlappedPlus );

  00180	8b cb		 mov	 ecx, ebx
  00182	56		 push	 esi
  00183	e8 00 00 00 00	 call	 ?FreeRequest@CDbManager@@QAEXPAUtagDB_OVERLAPPED_PLUS@@@Z ; CDbManager::FreeRequest

; 613  : }

  00188	8b 44 24 10	 mov	 eax, DWORD PTR _strStart$[esp+57448]
  0018c	83 c0 f0	 add	 eax, -16		; fffffff0H
  0018f	c6 84 24 64 e0
	00 00 00	 mov	 BYTE PTR __$EHRec$[esp+57456], 0
  00197	8d 48 0c	 lea	 ecx, DWORD PTR [eax+12]
  0019a	83 ca ff	 or	 edx, -1
  0019d	f0 0f c1 11	 lock	  xadd	 DWORD PTR [ecx], edx
  001a1	4a		 dec	 edx
  001a2	85 d2		 test	 edx, edx
  001a4	7f 08		 jg	 SHORT $L213967
  001a6	8b 08		 mov	 ecx, DWORD PTR [eax]
  001a8	8b 11		 mov	 edx, DWORD PTR [ecx]
  001aa	50		 push	 eax
  001ab	ff 52 04	 call	 DWORD PTR [edx+4]
$L213967:
  001ae	8d 4c 24 38	 lea	 ecx, DWORD PTR _arRead$[esp+57448]
  001b2	c7 84 24 64 e0
	00 00 ff ff ff
	ff		 mov	 DWORD PTR __$EHRec$[esp+57456], -1
  001bd	e8 00 00 00 00	 call	 ??1CAr@@QAE@XZ		; CAr::~CAr
  001c2	8b 8c 24 5c e0
	00 00		 mov	 ecx, DWORD PTR __$EHRec$[esp+57448]
  001c9	64 89 0d 00 00
	00 00		 mov	 DWORD PTR fs:__except_list, ecx
  001d0	8b 8c 24 54 e0
	00 00		 mov	 ecx, DWORD PTR __$ArrayPad$[esp+57448]
  001d7	5f		 pop	 edi
  001d8	5e		 pop	 esi
  001d9	33 cd		 xor	 ecx, ebp
  001db	5b		 pop	 ebx
  001dc	e8 00 00 00 00	 call	 @__security_check_cookie@4
  001e1	8b e5		 mov	 esp, ebp
  001e3	5d		 pop	 ebp
  001e4	c2 08 00	 ret	 8
_TEXT	ENDS
;	COMDAT text$x
text$x	SEGMENT
$L213880:
  00000	8d 8d d0 1f ff
	ff		 lea	 ecx, DWORD PTR _arRead$[ebp]
  00006	e9 00 00 00 00	 jmp	 ??1CAr@@QAE@XZ		; CAr::~CAr
$L213881:
  0000b	8d 8d a8 1f ff
	ff		 lea	 ecx, DWORD PTR _strStart$[ebp]
  00011	e9 00 00 00 00	 jmp	 ??1?$CStringT@DV?$StrTraitMFC@DV?$ChTraitsCRT@D@ATL@@@@@ATL@@QAE@XZ ; ATL::CStringT<char,StrTraitMFC<char,ATL::ChTraitsCRT<char> > >::~CStringT<char,StrTraitMFC<char,ATL::ChTraitsCRT<char> > >
__ehhandler$?LogServerDeath@CDbManager@@AAEXPAVCQuery@@PAUtagDB_OVERLAPPED_PLUS@@@Z:
  00016	b8 00 00 00 00	 mov	 eax, OFFSET FLAT:$T213972
  0001b	e9 00 00 00 00	 jmp	 ___CxxFrameHandler
text$x	ENDS
?LogServerDeath@CDbManager@@AAEXPAVCQuery@@PAUtagDB_OVERLAPPED_PLUS@@@Z ENDP ; CDbManager::LogServerDeath
PUBLIC	?LogUniqueItem@CDbManager@@AAEXPAVCQuery@@PAUtagDB_OVERLAPPED_PLUS@@@Z ; CDbManager::LogUniqueItem
PUBLIC	??_C@_02MCBEKBLO@L4?$AA@			; `string'
;	COMDAT xdata$x
; File c:\documents and settings\test\mes documents\source\virtuos_v17\build\program\_network\misc\include\ar.h
xdata$x	SEGMENT
$T214026 DD	0ffffffffH
	DD	FLAT:$L213982
$T214022 DD	019930520H
	DD	01H
	DD	FLAT:$T214026
	DD	2 DUP(00H)
	DD	2 DUP(00H)
xdata$x	ENDS
;	COMDAT ??_C@_02MCBEKBLO@L4?$AA@
CONST	SEGMENT
??_C@_02MCBEKBLO@L4?$AA@ DB 'L4', 00H			; `string'
; Function compile flags: /Ogty
; File c:\documents and settings\test\mes documents\source\virtuos_v17\build\program\_database\dbmanagerlog.cpp
CONST	ENDS
;	COMDAT ?LogUniqueItem@CDbManager@@AAEXPAVCQuery@@PAUtagDB_OVERLAPPED_PLUS@@@Z
_TEXT	SEGMENT
_iWorld$ = -57492					; size = 4
_cItemAddLevel$ = -57488				; size = 4
_iServer_No$ = -57484					; size = 4
$T214019 = -57480					; size = 4
_Pos$ = -57476						; size = 12
_arRead$ = -57464					; size = 16404
_cCrateMan$ = -41056					; size = 17
_cUniqueName$ = -41036					; size = 51
_szQuery$ = -40984					; size = 40960
__$ArrayPad$ = -20					; size = 4
__$EHRec$ = -12						; size = 12
__$ReturnAddr$ = 4					; size = 4
_qry$ = 8						; size = 4
_lpDbOverlappedPlus$ = 12				; size = 4
?LogUniqueItem@CDbManager@@AAEXPAVCQuery@@PAUtagDB_OVERLAPPED_PLUS@@@Z PROC NEAR ; CDbManager::LogUniqueItem, COMDAT
; _this$ = ecx

; 644  : {

  00000	55		 push	 ebp
  00001	8b ec		 mov	 ebp, esp
  00003	83 e4 f8	 and	 esp, -8			; fffffff8H
  00006	6a ff		 push	 -1
  00008	68 00 00 00 00	 push	 __ehhandler$?LogUniqueItem@CDbManager@@AAEXPAVCQuery@@PAUtagDB_OVERLAPPED_PLUS@@@Z
  0000d	64 a1 00 00 00
	00		 mov	 eax, DWORD PTR fs:__except_list
  00013	50		 push	 eax
  00014	64 89 25 00 00
	00 00		 mov	 DWORD PTR fs:__except_list, esp
  0001b	51		 push	 ecx
  0001c	b8 84 e0 00 00	 mov	 eax, 57476		; 0000e084H
  00021	e8 00 00 00 00	 call	 __chkstk
  00026	a1 00 00 00 00	 mov	 eax, DWORD PTR ___security_cookie
  0002b	53		 push	 ebx
  0002c	56		 push	 esi
  0002d	8b 75 0c	 mov	 esi, DWORD PTR _lpDbOverlappedPlus$[ebp]

; 645  : 	CAr arRead( lpDbOverlappedPlus->lpBuf, lpDbOverlappedPlus->uBufSize );

  00030	8b 56 18	 mov	 edx, DWORD PTR [esi+24]
  00033	8b d9		 mov	 ebx, ecx
  00035	8b 4e 1c	 mov	 ecx, DWORD PTR [esi+28]
  00038	33 c5		 xor	 eax, ebp
  0003a	57		 push	 edi
  0003b	51		 push	 ecx
  0003c	89 84 24 90 e0
	00 00		 mov	 DWORD PTR __$ArrayPad$[esp+57508], eax
  00043	8b 45 08	 mov	 eax, DWORD PTR _qry$[ebp]
  00046	52		 push	 edx
  00047	8d 4c 24 30	 lea	 ecx, DWORD PTR _arRead$[esp+57512]

; 646  : 
; 647  : 	int			iServer_No;							//  
; 648  : 	char		cCrateMan[17] = {0,};				// 
; 649  : 	int			iWorld;								// 
; 650  : 	D3DXVECTOR3	Pos;								// 
; 651  : 	char		cUniqueName[51] = {0,};				//  
; 652  : 	int			cItemAddLevel;						//  
; 653  : 	u_long		uidPlayer;
; 654  : 	
; 655  : 	iServer_No	= g_appInfo.dwSys;

  0004b	89 44 24 20	 mov	 DWORD PTR $T214019[esp+57512], eax
  0004f	e8 00 00 00 00	 call	 ??0CAr@@QAE@PAXI@Z	; CAr::CAr
  00054	33 c0		 xor	 eax, eax
  00056	89 84 24 41 40
	00 00		 mov	 DWORD PTR _cCrateMan$[esp+57505], eax
  0005d	89 84 24 45 40
	00 00		 mov	 DWORD PTR _cCrateMan$[esp+57509], eax
  00064	89 84 24 49 40
	00 00		 mov	 DWORD PTR _cCrateMan$[esp+57513], eax
  0006b	88 84 24 54 40
	00 00		 mov	 BYTE PTR _cUniqueName$[esp+57504], al
  00072	89 84 24 4d 40
	00 00		 mov	 DWORD PTR _cCrateMan$[esp+57517], eax
  00079	b9 0c 00 00 00	 mov	 ecx, 12			; 0000000cH
  0007e	8d bc 24 55 40
	00 00		 lea	 edi, DWORD PTR _cUniqueName$[esp+57505]
  00085	f3 ab		 rep stosd
  00087	8b 0d 00 00 00
	00		 mov	 ecx, DWORD PTR ?g_appInfo@@3UAppInfo@@A

; 656  : 	arRead.ReadString( cCrateMan, 17 );

  0008d	6a 11		 push	 17			; 00000011H
  0008f	8d 94 24 44 40
	00 00		 lea	 edx, DWORD PTR _cCrateMan$[esp+57508]
  00096	89 4c 24 18	 mov	 DWORD PTR _iServer_No$[esp+57508], ecx
  0009a	52		 push	 edx
  0009b	8d 4c 24 30	 lea	 ecx, DWORD PTR _arRead$[esp+57512]
  0009f	c7 84 24 a4 e0
	00 00 00 00 00
	00		 mov	 DWORD PTR __$EHRec$[esp+57520], 0
  000aa	c6 84 24 48 40
	00 00 00	 mov	 BYTE PTR _cCrateMan$[esp+57512], 0
  000b2	66 ab		 stosw
  000b4	e8 00 00 00 00	 call	 ?ReadString@CAr@@QAEPADPADH@Z ; CAr::ReadString

; 657  : 	arRead >> iWorld;

  000b9	8b 4c 24 30	 mov	 ecx, DWORD PTR _arRead$[esp+57512]
  000bd	8b 54 24 34	 mov	 edx, DWORD PTR _arRead$[esp+57516]
  000c1	8d 41 04	 lea	 eax, DWORD PTR [ecx+4]
  000c4	3b c2		 cmp	 eax, edx
  000c6	77 0c		 ja	 SHORT $L213995
  000c8	8b 09		 mov	 ecx, DWORD PTR [ecx]
  000ca	89 4c 24 0c	 mov	 DWORD PTR _iWorld$[esp+57504], ecx
  000ce	89 44 24 30	 mov	 DWORD PTR _arRead$[esp+57512], eax
  000d2	eb 0c		 jmp	 SHORT $L213996
$L213995:
  000d4	c7 44 24 0c 00
	00 00 00	 mov	 DWORD PTR _iWorld$[esp+57504], 0
  000dc	89 54 24 30	 mov	 DWORD PTR _arRead$[esp+57512], edx
$L213996:

; 658  : 	arRead >> Pos;

  000e0	6a 0c		 push	 12			; 0000000cH
  000e2	8d 54 24 20	 lea	 edx, DWORD PTR _Pos$[esp+57508]
  000e6	52		 push	 edx
  000e7	8d 4c 24 30	 lea	 ecx, DWORD PTR _arRead$[esp+57512]
  000eb	e8 00 00 00 00	 call	 ?Read@CAr@@QAEXPAXI@Z	; CAr::Read

; 659  : 	arRead.ReadString( cUniqueName, 51 );

  000f0	6a 33		 push	 51			; 00000033H
  000f2	8d 84 24 58 40
	00 00		 lea	 eax, DWORD PTR _cUniqueName$[esp+57508]
  000f9	50		 push	 eax
  000fa	8d 4c 24 30	 lea	 ecx, DWORD PTR _arRead$[esp+57512]
  000fe	e8 00 00 00 00	 call	 ?ReadString@CAr@@QAEPADPADH@Z ; CAr::ReadString

; 660  : 	arRead >> cItemAddLevel;

  00103	8b 54 24 30	 mov	 edx, DWORD PTR _arRead$[esp+57512]
  00107	8b 4c 24 34	 mov	 ecx, DWORD PTR _arRead$[esp+57516]
  0010b	8d 42 04	 lea	 eax, DWORD PTR [edx+4]
  0010e	3b c1		 cmp	 eax, ecx
  00110	77 08		 ja	 SHORT $L214010
  00112	8b 12		 mov	 edx, DWORD PTR [edx]
  00114	89 54 24 10	 mov	 DWORD PTR _cItemAddLevel$[esp+57504], edx
  00118	eb 0a		 jmp	 SHORT $L214025
$L214010:
  0011a	c7 44 24 10 00
	00 00 00	 mov	 DWORD PTR _cItemAddLevel$[esp+57504], 0
  00122	8b c1		 mov	 eax, ecx
$L214025:

; 661  : 	arRead >> uidPlayer;

  00124	8d 78 04	 lea	 edi, DWORD PTR [eax+4]
  00127	3b f9		 cmp	 edi, ecx
  00129	89 44 24 30	 mov	 DWORD PTR _arRead$[esp+57512], eax
  0012d	77 08		 ja	 SHORT $L214015
  0012f	8b 10		 mov	 edx, DWORD PTR [eax]
  00131	89 7c 24 30	 mov	 DWORD PTR _arRead$[esp+57512], edi
  00135	eb 06		 jmp	 SHORT $L214016
$L214015:
  00137	33 d2		 xor	 edx, edx
  00139	89 4c 24 30	 mov	 DWORD PTR _arRead$[esp+57512], ecx
$L214016:

; 662  : 
; 663  : 	char szQuery[QUERY_SIZE]	= { 0,};
; 664  : 	DBQryLog( szQuery, "L4", uidPlayer, iServer_No, 0, 0, 0, 0, 0,
; 665  : 		0, 0, 0, 0, 0, 0, 'A',
; 666  : 		iWorld, '\0', Pos.x, Pos.y, Pos.z, 0, 0, '\0', 0, 0, 0, cUniqueName, 0, 0, cItemAddLevel );

  0013d	6a 00		 push	 0
  0013f	6a 00		 push	 0
  00141	6a 00		 push	 0
  00143	6a 00		 push	 0
  00145	6a 00		 push	 0
  00147	33 c0		 xor	 eax, eax
  00149	c6 84 24 9c 40
	00 00 00	 mov	 BYTE PTR _szQuery$[esp+57524], 0
  00151	b9 ff 27 00 00	 mov	 ecx, 10239		; 000027ffH
  00156	8d bc 24 9d 40
	00 00		 lea	 edi, DWORD PTR _szQuery$[esp+57525]
  0015d	f3 ab		 rep stosd
  0015f	66 ab		 stosw
  00161	aa		 stosb
  00162	8b 44 24 24	 mov	 eax, DWORD PTR _cItemAddLevel$[esp+57524]
  00166	50		 push	 eax
  00167	6a 00		 push	 0
  00169	6a 00		 push	 0
  0016b	8b 44 24 44	 mov	 eax, DWORD PTR _Pos$[esp+57544]
  0016f	8d 8c 24 74 40
	00 00		 lea	 ecx, DWORD PTR _cUniqueName$[esp+57536]
  00176	51		 push	 ecx
  00177	6a 00		 push	 0
  00179	6a 00		 push	 0
  0017b	8b 4c 24 4c	 mov	 ecx, DWORD PTR _Pos$[esp+57552]
  0017f	6a 00		 push	 0
  00181	6a 00		 push	 0
  00183	6a 00		 push	 0
  00185	6a 00		 push	 0
  00187	50		 push	 eax
  00188	8b 44 24 5c	 mov	 eax, DWORD PTR _Pos$[esp+57568]
  0018c	51		 push	 ecx
  0018d	8b 4c 24 50	 mov	 ecx, DWORD PTR _iWorld$[esp+57572]
  00191	50		 push	 eax
  00192	6a 00		 push	 0
  00194	51		 push	 ecx
  00195	6a 41		 push	 65			; 00000041H
  00197	6a 00		 push	 0
  00199	6a 00		 push	 0
  0019b	8b 44 24 70	 mov	 eax, DWORD PTR _iServer_No$[esp+57596]
  0019f	6a 00		 push	 0
  001a1	6a 00		 push	 0
  001a3	6a 00		 push	 0
  001a5	6a 00		 push	 0
  001a7	6a 00		 push	 0
  001a9	6a 00		 push	 0
  001ab	6a 00		 push	 0
  001ad	6a 00		 push	 0
  001af	6a 00		 push	 0
  001b1	6a 00		 push	 0
  001b3	50		 push	 eax
  001b4	52		 push	 edx
  001b5	68 00 00 00 00	 push	 OFFSET FLAT:??_C@_02MCBEKBLO@L4?$AA@
  001ba	8d 8c 24 18 41
	00 00		 lea	 ecx, DWORD PTR _szQuery$[esp+57648]
  001c1	51		 push	 ecx
  001c2	8b cb		 mov	 ecx, ebx
  001c4	e8 00 00 00 00	 call	 ?DBQryLog@CDbManager@@QAEXPAD0KH_JHHHHHHHHHHDH0MMMHH0KHH0HHH0H0HK@Z ; CDbManager::DBQryLog

; 667  : 
; 668  : 	qry->Exec( szQuery );

  001c9	8b 4c 24 18	 mov	 ecx, DWORD PTR $T214019[esp+57504]
  001cd	8d 94 24 88 40
	00 00		 lea	 edx, DWORD PTR _szQuery$[esp+57504]
  001d4	52		 push	 edx
  001d5	e8 00 00 00 00	 call	 ?Exec@CQuery@@QAEHPBD@Z	; CQuery::Exec

; 669  : 
; 670  : 	FreeRequest( lpDbOverlappedPlus );

  001da	56		 push	 esi
  001db	8b cb		 mov	 ecx, ebx
  001dd	e8 00 00 00 00	 call	 ?FreeRequest@CDbManager@@QAEXPAUtagDB_OVERLAPPED_PLUS@@@Z ; CDbManager::FreeRequest

; 671  : }

  001e2	8d 4c 24 28	 lea	 ecx, DWORD PTR _arRead$[esp+57504]
  001e6	c7 84 24 9c e0
	00 00 ff ff ff
	ff		 mov	 DWORD PTR __$EHRec$[esp+57512], -1
  001f1	e8 00 00 00 00	 call	 ??1CAr@@QAE@XZ		; CAr::~CAr
  001f6	8b 8c 24 94 e0
	00 00		 mov	 ecx, DWORD PTR __$EHRec$[esp+57504]
  001fd	64 89 0d 00 00
	00 00		 mov	 DWORD PTR fs:__except_list, ecx
  00204	8b 8c 24 8c e0
	00 00		 mov	 ecx, DWORD PTR __$ArrayPad$[esp+57504]
  0020b	5f		 pop	 edi
  0020c	5e		 pop	 esi
  0020d	33 cd		 xor	 ecx, ebp
  0020f	5b		 pop	 ebx
  00210	e8 00 00 00 00	 call	 @__security_check_cookie@4
  00215	8b e5		 mov	 esp, ebp
  00217	5d		 pop	 ebp
  00218	c2 08 00	 ret	 8
_TEXT	ENDS
;	COMDAT text$x
text$x	SEGMENT
$L213982:
  00000	8d 8d 88 1f ff
	ff		 lea	 ecx, DWORD PTR _arRead$[ebp]
  00006	e9 00 00 00 00	 jmp	 ??1CAr@@QAE@XZ		; CAr::~CAr
__ehhandler$?LogUniqueItem@CDbManager@@AAEXPAVCQuery@@PAUtagDB_OVERLAPPED_PLUS@@@Z:
  0000b	b8 00 00 00 00	 mov	 eax, OFFSET FLAT:$T214022
  00010	e9 00 00 00 00	 jmp	 ___CxxFrameHandler
text$x	ENDS
?LogUniqueItem@CDbManager@@AAEXPAVCQuery@@PAUtagDB_OVERLAPPED_PLUS@@@Z ENDP ; CDbManager::LogUniqueItem
PUBLIC	?LogQuest@CDbManager@@AAEXPAVCQuery@@PAUtagDB_OVERLAPPED_PLUS@@@Z ; CDbManager::LogQuest
PUBLIC	??_C@_02PACCMDDM@L6?$AA@			; `string'
PUBLIC	??_C@_02OJDJPCHN@L7?$AA@			; `string'
;	COMDAT xdata$x
; File c:\program files\microsoft visual studio .net 2003\vc7\atlmfc\include\atlsimpstr.h
xdata$x	SEGMENT
$T214226 DD	0ffffffffH
	DD	FLAT:$L214031
	DD	00H
	DD	FLAT:$L214032
$T214220 DD	019930520H
	DD	02H
	DD	FLAT:$T214226
	DD	2 DUP(00H)
	DD	2 DUP(00H)
xdata$x	ENDS
;	COMDAT ??_C@_02PACCMDDM@L6?$AA@
CONST	SEGMENT
??_C@_02PACCMDDM@L6?$AA@ DB 'L6', 00H			; `string'
CONST	ENDS
;	COMDAT ??_C@_02OJDJPCHN@L7?$AA@
CONST	SEGMENT
??_C@_02OJDJPCHN@L7?$AA@ DB 'L7', 00H			; `string'
; Function compile flags: /Ogty
; File c:\documents and settings\test\mes documents\source\virtuos_v17\build\program\_database\dbmanagerlog.cpp
CONST	ENDS
;	COMDAT ?LogQuest@CDbManager@@AAEXPAVCQuery@@PAUtagDB_OVERLAPPED_PLUS@@@Z
_TEXT	SEGMENT
_strQuestTime$ = -57448					; size = 4
_nQuest$ = -57444					; size = 4
_uidPlayer$ = -57440					; size = 4
_iServer_No$ = -57436					; size = 4
_Action$ = -57432					; size = 4
$T214217 = -57428					; size = 4
_tQuest$ = -57424					; size = 8
_arRead$ = -57416					; size = 16404
_cName$ = -41004					; size = 17
_szQuery$ = -40984					; size = 40960
__$ArrayPad$ = -20					; size = 4
__$EHRec$ = -12						; size = 12
__$ReturnAddr$ = 4					; size = 4
_qry$ = 8						; size = 4
_lpDbOverlappedPlus$ = 12				; size = 4
?LogQuest@CDbManager@@AAEXPAVCQuery@@PAUtagDB_OVERLAPPED_PLUS@@@Z PROC NEAR ; CDbManager::LogQuest, COMDAT
; _this$ = ecx

; 674  : {

  00000	55		 push	 ebp
  00001	8b ec		 mov	 ebp, esp
  00003	83 e4 f8	 and	 esp, -8			; fffffff8H
  00006	6a ff		 push	 -1
  00008	68 00 00 00 00	 push	 __ehhandler$?LogQuest@CDbManager@@AAEXPAVCQuery@@PAUtagDB_OVERLAPPED_PLUS@@@Z
  0000d	64 a1 00 00 00
	00		 mov	 eax, DWORD PTR fs:__except_list
  00013	50		 push	 eax
  00014	64 89 25 00 00
	00 00		 mov	 DWORD PTR fs:__except_list, esp
  0001b	51		 push	 ecx
  0001c	b8 5c e0 00 00	 mov	 eax, 57436		; 0000e05cH
  00021	e8 00 00 00 00	 call	 __chkstk
  00026	a1 00 00 00 00	 mov	 eax, DWORD PTR ___security_cookie
  0002b	53		 push	 ebx
  0002c	8b 5d 0c	 mov	 ebx, DWORD PTR _lpDbOverlappedPlus$[ebp]

; 675  : 	CAr arRead( lpDbOverlappedPlus->lpBuf, lpDbOverlappedPlus->uBufSize );

  0002f	8b 53 18	 mov	 edx, DWORD PTR [ebx+24]
  00032	56		 push	 esi
  00033	8b f1		 mov	 esi, ecx
  00035	8b 4b 1c	 mov	 ecx, DWORD PTR [ebx+28]
  00038	33 c5		 xor	 eax, ebp
  0003a	57		 push	 edi
  0003b	51		 push	 ecx
  0003c	89 84 24 68 e0
	00 00		 mov	 DWORD PTR __$ArrayPad$[esp+57468], eax
  00043	8b 45 08	 mov	 eax, DWORD PTR _qry$[ebp]
  00046	52		 push	 edx
  00047	8d 4c 24 38	 lea	 ecx, DWORD PTR _arRead$[esp+57472]

; 676  : 
; 677  : 	int Action;
; 678  : 	char cName[17] = {0,};
; 679  : 	int iServer_No;
; 680  : 	int nQuest;
; 681  : 	CTime		tQuest	= CTime::GetCurrentTime();	// 
; 682  : 	u_long	uidPlayer;
; 683  : 	
; 684  : 	iServer_No	= g_appInfo.dwSys;

  0004b	89 44 24 2c	 mov	 DWORD PTR $T214217[esp+57472], eax
  0004f	e8 00 00 00 00	 call	 ??0CAr@@QAE@PAXI@Z	; CAr::CAr
  00054	33 c0		 xor	 eax, eax
  00056	89 84 24 4d 40
	00 00		 mov	 DWORD PTR _cName$[esp+57465], eax
  0005d	89 84 24 51 40
	00 00		 mov	 DWORD PTR _cName$[esp+57469], eax
  00064	33 ff		 xor	 edi, edi
  00066	89 84 24 55 40
	00 00		 mov	 DWORD PTR _cName$[esp+57473], eax
  0006d	57		 push	 edi
  0006e	89 bc 24 78 e0
	00 00		 mov	 DWORD PTR __$EHRec$[esp+57476], edi
  00075	c6 84 24 50 40
	00 00 00	 mov	 BYTE PTR _cName$[esp+57468], 0
  0007d	89 84 24 5d 40
	00 00		 mov	 DWORD PTR _cName$[esp+57481], eax
  00084	e8 00 00 00 00	 call	 __time64
  00089	8b 0d 00 00 00
	00		 mov	 ecx, DWORD PTR ?g_appInfo@@3UAppInfo@@A
  0008f	83 c4 04	 add	 esp, 4
  00092	89 54 24 2c	 mov	 DWORD PTR _tQuest$[esp+57468], edx

; 685  : 	CString strQuestTime	= tQuest.Format( "%Y%m%d%H%M%S" );

  00096	68 00 00 00 00	 push	 OFFSET FLAT:??_C@_0N@BNMNAMM@?$CFY?$CFm?$CFd?$CFH?$CFM?$CFS?$AA@
  0009b	8d 54 24 14	 lea	 edx, DWORD PTR _strQuestTime$[esp+57468]
  0009f	89 4c 24 20	 mov	 DWORD PTR _iServer_No$[esp+57468], ecx
  000a3	52		 push	 edx
  000a4	8d 4c 24 30	 lea	 ecx, DWORD PTR _tQuest$[esp+57472]
  000a8	89 44 24 30	 mov	 DWORD PTR _tQuest$[esp+57472], eax
  000ac	e8 00 00 00 00	 call	 ?Format@CTime@ATL@@QBE?AV?$CStringT@DV?$StrTraitMFC@DV?$ChTraitsCRT@D@ATL@@@@@2@PBD@Z ; ATL::CTime::Format

; 686  : 
; 687  : 	arRead >> Action;

  000b1	8b 4c 24 38	 mov	 ecx, DWORD PTR _arRead$[esp+57472]
  000b5	8b 54 24 3c	 mov	 edx, DWORD PTR _arRead$[esp+57476]
  000b9	8d 41 04	 lea	 eax, DWORD PTR [ecx+4]
  000bc	3b c2		 cmp	 eax, edx
  000be	c6 84 24 74 e0
	00 00 01	 mov	 BYTE PTR __$EHRec$[esp+57472], 1
  000c6	77 0c		 ja	 SHORT $L214052
  000c8	8b 09		 mov	 ecx, DWORD PTR [ecx]
  000ca	89 4c 24 20	 mov	 DWORD PTR _Action$[esp+57464], ecx
  000ce	89 44 24 38	 mov	 DWORD PTR _arRead$[esp+57472], eax
  000d2	eb 08		 jmp	 SHORT $L214053
$L214052:
  000d4	89 7c 24 20	 mov	 DWORD PTR _Action$[esp+57464], edi
  000d8	89 54 24 38	 mov	 DWORD PTR _arRead$[esp+57472], edx
$L214053:

; 688  : 	arRead.ReadString( cName, 17 );

  000dc	6a 11		 push	 17			; 00000011H
  000de	8d 94 24 50 40
	00 00		 lea	 edx, DWORD PTR _cName$[esp+57468]
  000e5	52		 push	 edx
  000e6	8d 4c 24 38	 lea	 ecx, DWORD PTR _arRead$[esp+57472]
  000ea	e8 00 00 00 00	 call	 ?ReadString@CAr@@QAEPADPADH@Z ; CAr::ReadString

; 689  : 	arRead >> nQuest;

  000ef	8b 54 24 38	 mov	 edx, DWORD PTR _arRead$[esp+57472]
  000f3	8b 4c 24 3c	 mov	 ecx, DWORD PTR _arRead$[esp+57476]
  000f7	8d 42 04	 lea	 eax, DWORD PTR [edx+4]
  000fa	3b c1		 cmp	 eax, ecx
  000fc	77 08		 ja	 SHORT $L214064
  000fe	8b 12		 mov	 edx, DWORD PTR [edx]
  00100	89 54 24 14	 mov	 DWORD PTR _nQuest$[esp+57464], edx
  00104	eb 06		 jmp	 SHORT $L214223
$L214064:
  00106	89 7c 24 14	 mov	 DWORD PTR _nQuest$[esp+57464], edi
  0010a	8b c1		 mov	 eax, ecx
$L214223:

; 690  : 	arRead >> uidPlayer;

  0010c	8d 50 04	 lea	 edx, DWORD PTR [eax+4]
  0010f	3b d1		 cmp	 edx, ecx
  00111	89 44 24 38	 mov	 DWORD PTR _arRead$[esp+57472], eax
  00115	77 0c		 ja	 SHORT $L214069
  00117	8b 00		 mov	 eax, DWORD PTR [eax]
  00119	89 44 24 18	 mov	 DWORD PTR _uidPlayer$[esp+57464], eax
  0011d	89 54 24 38	 mov	 DWORD PTR _arRead$[esp+57472], edx
  00121	eb 08		 jmp	 SHORT $L214070
$L214069:
  00123	89 7c 24 18	 mov	 DWORD PTR _uidPlayer$[esp+57464], edi
  00127	89 4c 24 38	 mov	 DWORD PTR _arRead$[esp+57472], ecx
$L214070:

; 691  : 	
; 692  : 	char szQuery[QUERY_SIZE]	= { 0,};

  0012b	33 c0		 xor	 eax, eax
  0012d	c6 84 24 60 40
	00 00 00	 mov	 BYTE PTR _szQuery$[esp+57464], 0
  00135	b9 ff 27 00 00	 mov	 ecx, 10239		; 000027ffH
  0013a	8d bc 24 61 40
	00 00		 lea	 edi, DWORD PTR _szQuery$[esp+57465]
  00141	f3 ab		 rep stosd

; 693  : 
; 694  : //	qry->Clear();
; 695  : 	if( Action == 1 ) //  
; 696  : 	{
; 697  : 		DBQryLog( szQuery, "L6", uidPlayer, iServer_No, 0, 0, 0, 0, 0, 
; 698  : 			0, 0, 0, 0, 0, 0, 'C', 0, '\0', 0.0f, 0.0f, 0.0f, 0, 0, 0,
; 699  : 			0, 0, 0, '\0', 0, 0, 0, strQuestTime.GetBuffer( strQuestTime.GetLength() ), 0, '\0', nQuest );

  00143	8b 4c 24 10	 mov	 ecx, DWORD PTR _strQuestTime$[esp+57464]
  00147	66 ab		 stosw
  00149	aa		 stosb
  0014a	8b 44 24 20	 mov	 eax, DWORD PTR _Action$[esp+57464]
  0014e	8b 79 f4	 mov	 edi, DWORD PTR [ecx-12]
  00151	ba 01 00 00 00	 mov	 edx, 1
  00156	3b c2		 cmp	 eax, edx
  00158	8b 41 fc	 mov	 eax, DWORD PTR [ecx-4]
  0015b	0f 85 dc 00 00
	00		 jne	 $L208546
  00161	2b d0		 sub	 edx, eax
  00163	8b 41 f8	 mov	 eax, DWORD PTR [ecx-8]
  00166	2b c7		 sub	 eax, edi
  00168	0b c2		 or	 eax, edx
  0016a	7d 0e		 jge	 SHORT $L214101
  0016c	57		 push	 edi
  0016d	8d 4c 24 14	 lea	 ecx, DWORD PTR _strQuestTime$[esp+57468]
  00171	e8 00 00 00 00	 call	 ?PrepareWrite2@?$CSimpleStringT@D$0A@@ATL@@AAEXH@Z ; ATL::CSimpleStringT<char,0>::PrepareWrite2
  00176	8b 4c 24 10	 mov	 ecx, DWORD PTR _strQuestTime$[esp+57464]
$L214101:
  0017a	6a 00		 push	 0
  0017c	8b 54 24 18	 mov	 edx, DWORD PTR _nQuest$[esp+57468]
  00180	52		 push	 edx
  00181	6a 00		 push	 0
  00183	6a 00		 push	 0
  00185	51		 push	 ecx
  00186	6a 00		 push	 0
  00188	6a 00		 push	 0
  0018a	6a 00		 push	 0
  0018c	6a 00		 push	 0
  0018e	6a 00		 push	 0
  00190	6a 00		 push	 0
  00192	6a 00		 push	 0
  00194	6a 00		 push	 0
  00196	6a 00		 push	 0
  00198	6a 00		 push	 0
  0019a	6a 00		 push	 0
  0019c	6a 00		 push	 0
  0019e	6a 00		 push	 0
  001a0	6a 00		 push	 0
  001a2	6a 00		 push	 0
  001a4	6a 43		 push	 67			; 00000043H
  001a6	6a 00		 push	 0
  001a8	6a 00		 push	 0
  001aa	8b 44 24 78	 mov	 eax, DWORD PTR _iServer_No$[esp+57556]
  001ae	6a 00		 push	 0
  001b0	8b 4c 24 78	 mov	 ecx, DWORD PTR _uidPlayer$[esp+57560]
  001b4	6a 00		 push	 0
  001b6	6a 00		 push	 0
  001b8	6a 00		 push	 0
  001ba	6a 00		 push	 0
  001bc	6a 00		 push	 0
  001be	6a 00		 push	 0
  001c0	6a 00		 push	 0
  001c2	6a 00		 push	 0
  001c4	6a 00		 push	 0
  001c6	50		 push	 eax
  001c7	51		 push	 ecx
  001c8	68 00 00 00 00	 push	 OFFSET FLAT:??_C@_02PACCMDDM@L6?$AA@
  001cd	8d 94 24 f0 40
	00 00		 lea	 edx, DWORD PTR _szQuery$[esp+57608]
  001d4	52		 push	 edx
  001d5	8b ce		 mov	 ecx, esi
  001d7	e8 00 00 00 00	 call	 ?DBQryLog@CDbManager@@QAEXPAD0KH_JHHHHHHHHHHDH0MMMHH0KHH0HHH0H0HK@Z ; CDbManager::DBQryLog

; 700  : 
; 701  : 		if ( FALSE == qry->Exec( szQuery ) )

  001dc	8b 4c 24 24	 mov	 ecx, DWORD PTR $T214217[esp+57464]
  001e0	8d 84 24 60 40
	00 00		 lea	 eax, DWORD PTR _szQuery$[esp+57464]
  001e7	50		 push	 eax
  001e8	e8 00 00 00 00	 call	 ?Exec@CQuery@@QAEHPBD@Z	; CQuery::Exec
  001ed	85 c0		 test	 eax, eax
  001ef	0f 85 f7 00 00
	00		 jne	 $L208551

; 702  : 		{
; 703  : 			WriteLog( "%s, %d\t%s", __FILE__, __LINE__, szQuery );

  001f5	8d 8c 24 60 40
	00 00		 lea	 ecx, DWORD PTR _szQuery$[esp+57464]
  001fc	51		 push	 ecx
  001fd	68 bf 02 00 00	 push	 703			; 000002bfH
  00202	68 00 00 00 00	 push	 OFFSET FLAT:??_C@_0GH@LHPNFEPP@?2Documents?5and?5Settings?2test?2Mes@
  00207	68 00 00 00 00	 push	 OFFSET FLAT:??_C@_09GBAEEKDE@?$CFs?0?5?$CFd?7?$CFs?$AA@
  0020c	e8 00 00 00 00	 call	 ?WriteLog@@YAXPBDZZ	; WriteLog
  00211	83 c4 10	 add	 esp, 16			; 00000010H

; 704  : 			FreeRequest( lpDbOverlappedPlus );

  00214	53		 push	 ebx
  00215	8b ce		 mov	 ecx, esi
  00217	e8 00 00 00 00	 call	 ?FreeRequest@CDbManager@@QAEXPAUtagDB_OVERLAPPED_PLUS@@@Z ; CDbManager::FreeRequest

; 705  : 			return;

  0021c	8b 44 24 10	 mov	 eax, DWORD PTR _strQuestTime$[esp+57464]
  00220	83 c0 f0	 add	 eax, -16		; fffffff0H
  00223	c6 84 24 74 e0
	00 00 00	 mov	 BYTE PTR __$EHRec$[esp+57472], 0
  0022b	8d 50 0c	 lea	 edx, DWORD PTR [eax+12]
  0022e	83 c9 ff	 or	 ecx, -1
  00231	f0 0f c1 0a	 lock	  xadd	 DWORD PTR [edx], ecx
  00235	49		 dec	 ecx
  00236	85 c9		 test	 ecx, ecx
  00238	e9 d3 00 00 00	 jmp	 $L214225
$L208546:

; 706  : 		}
; 707  : 
; 708  : //		qry->Clear();
; 709  : 	}
; 710  : 	else	//  
; 711  : 	{
; 712  : 		DBQryLog( szQuery, "L7", uidPlayer, iServer_No, 0, 0, 0, 0, 0, 
; 713  : 			0, 0, 0, 0, 0, 0, 'A', 0, '\0', 0.0f, 0.0f, 0.0f, 0, 0, 0,
; 714  : 			0, 0, 0, '\0', 0, 0, 0, strQuestTime.GetBuffer( strQuestTime.GetLength() ), 0, '\0', nQuest );

  0023d	2b d0		 sub	 edx, eax
  0023f	8b 41 f8	 mov	 eax, DWORD PTR [ecx-8]
  00242	2b c7		 sub	 eax, edi
  00244	0b c2		 or	 eax, edx
  00246	7d 0e		 jge	 SHORT $L214160
  00248	57		 push	 edi
  00249	8d 4c 24 14	 lea	 ecx, DWORD PTR _strQuestTime$[esp+57468]
  0024d	e8 00 00 00 00	 call	 ?PrepareWrite2@?$CSimpleStringT@D$0A@@ATL@@AAEXH@Z ; ATL::CSimpleStringT<char,0>::PrepareWrite2
  00252	8b 4c 24 10	 mov	 ecx, DWORD PTR _strQuestTime$[esp+57464]
$L214160:
  00256	6a 00		 push	 0
  00258	8b 44 24 18	 mov	 eax, DWORD PTR _nQuest$[esp+57468]
  0025c	50		 push	 eax
  0025d	6a 00		 push	 0
  0025f	6a 00		 push	 0
  00261	51		 push	 ecx
  00262	6a 00		 push	 0
  00264	6a 00		 push	 0
  00266	6a 00		 push	 0
  00268	6a 00		 push	 0
  0026a	6a 00		 push	 0
  0026c	6a 00		 push	 0
  0026e	6a 00		 push	 0
  00270	6a 00		 push	 0
  00272	6a 00		 push	 0
  00274	6a 00		 push	 0
  00276	6a 00		 push	 0
  00278	6a 00		 push	 0
  0027a	6a 00		 push	 0
  0027c	6a 00		 push	 0
  0027e	6a 00		 push	 0
  00280	6a 41		 push	 65			; 00000041H
  00282	6a 00		 push	 0
  00284	6a 00		 push	 0
  00286	8b 4c 24 78	 mov	 ecx, DWORD PTR _iServer_No$[esp+57556]
  0028a	6a 00		 push	 0
  0028c	8b 54 24 78	 mov	 edx, DWORD PTR _uidPlayer$[esp+57560]
  00290	6a 00		 push	 0
  00292	6a 00		 push	 0
  00294	6a 00		 push	 0
  00296	6a 00		 push	 0
  00298	6a 00		 push	 0
  0029a	6a 00		 push	 0
  0029c	6a 00		 push	 0
  0029e	6a 00		 push	 0
  002a0	6a 00		 push	 0
  002a2	51		 push	 ecx
  002a3	52		 push	 edx
  002a4	68 00 00 00 00	 push	 OFFSET FLAT:??_C@_02OJDJPCHN@L7?$AA@
  002a9	8d 84 24 f0 40
	00 00		 lea	 eax, DWORD PTR _szQuery$[esp+57608]
  002b0	50		 push	 eax
  002b1	8b ce		 mov	 ecx, esi
  002b3	e8 00 00 00 00	 call	 ?DBQryLog@CDbManager@@QAEXPAD0KH_JHHHHHHHHHHDH0MMMHH0KHH0HHH0H0HK@Z ; CDbManager::DBQryLog

; 715  : 
; 716  : 		if ( FALSE == qry->Exec( szQuery ) )

  002b8	8d 8c 24 60 40
	00 00		 lea	 ecx, DWORD PTR _szQuery$[esp+57464]
  002bf	51		 push	 ecx
  002c0	8b 4c 24 28	 mov	 ecx, DWORD PTR $T214217[esp+57468]
  002c4	e8 00 00 00 00	 call	 ?Exec@CQuery@@QAEHPBD@Z	; CQuery::Exec
  002c9	85 c0		 test	 eax, eax
  002cb	75 1f		 jne	 SHORT $L208551

; 717  : 		{
; 718  : 			WriteLog( "%s, %d\t%s", __FILE__, __LINE__, szQuery );

  002cd	8d 94 24 60 40
	00 00		 lea	 edx, DWORD PTR _szQuery$[esp+57464]
  002d4	52		 push	 edx
  002d5	68 ce 02 00 00	 push	 718			; 000002ceH
  002da	68 00 00 00 00	 push	 OFFSET FLAT:??_C@_0GH@LHPNFEPP@?2Documents?5and?5Settings?2test?2Mes@
  002df	68 00 00 00 00	 push	 OFFSET FLAT:??_C@_09GBAEEKDE@?$CFs?0?5?$CFd?7?$CFs?$AA@
  002e4	e8 00 00 00 00	 call	 ?WriteLog@@YAXPBDZZ	; WriteLog
  002e9	83 c4 10	 add	 esp, 16			; 00000010H
$L208551:

; 719  : 			FreeRequest( lpDbOverlappedPlus );
; 720  : 			return;
; 721  : 		}
; 722  : 
; 723  : //		qry->Clear();
; 724  : 	}
; 725  : 	FreeRequest( lpDbOverlappedPlus );

  002ec	8b ce		 mov	 ecx, esi
  002ee	53		 push	 ebx
  002ef	e8 00 00 00 00	 call	 ?FreeRequest@CDbManager@@QAEXPAUtagDB_OVERLAPPED_PLUS@@@Z ; CDbManager::FreeRequest

; 726  : }

  002f4	8b 44 24 10	 mov	 eax, DWORD PTR _strQuestTime$[esp+57464]
  002f8	83 c0 f0	 add	 eax, -16		; fffffff0H
  002fb	c6 84 24 74 e0
	00 00 00	 mov	 BYTE PTR __$EHRec$[esp+57472], 0
  00303	8d 48 0c	 lea	 ecx, DWORD PTR [eax+12]
  00306	83 ca ff	 or	 edx, -1
  00309	f0 0f c1 11	 lock	  xadd	 DWORD PTR [ecx], edx
  0030d	4a		 dec	 edx
  0030e	85 d2		 test	 edx, edx
$L214225:
  00310	7f 08		 jg	 SHORT $L214212
  00312	8b 08		 mov	 ecx, DWORD PTR [eax]
  00314	8b 11		 mov	 edx, DWORD PTR [ecx]
  00316	50		 push	 eax
  00317	ff 52 04	 call	 DWORD PTR [edx+4]
$L214212:
  0031a	8d 4c 24 30	 lea	 ecx, DWORD PTR _arRead$[esp+57464]
  0031e	c7 84 24 74 e0
	00 00 ff ff ff
	ff		 mov	 DWORD PTR __$EHRec$[esp+57472], -1
  00329	e8 00 00 00 00	 call	 ??1CAr@@QAE@XZ		; CAr::~CAr
  0032e	8b 8c 24 6c e0
	00 00		 mov	 ecx, DWORD PTR __$EHRec$[esp+57464]
  00335	64 89 0d 00 00
	00 00		 mov	 DWORD PTR fs:__except_list, ecx
  0033c	8b 8c 24 64 e0
	00 00		 mov	 ecx, DWORD PTR __$ArrayPad$[esp+57464]
  00343	5f		 pop	 edi
  00344	5e		 pop	 esi
  00345	33 cd		 xor	 ecx, ebp
  00347	5b		 pop	 ebx
  00348	e8 00 00 00 00	 call	 @__security_check_cookie@4
  0034d	8b e5		 mov	 esp, ebp
  0034f	5d		 pop	 ebp
  00350	c2 08 00	 ret	 8
_TEXT	ENDS
;	COMDAT text$x
text$x	SEGMENT
$L214031:
  00000	8d 8d b8 1f ff
	ff		 lea	 ecx, DWORD PTR _arRead$[ebp]
  00006	e9 00 00 00 00	 jmp	 ??1CAr@@QAE@XZ		; CAr::~CAr
$L214032:
  0000b	8d 8d 98 1f ff
	ff		 lea	 ecx, DWORD PTR _strQuestTime$[ebp]
  00011	e9 00 00 00 00	 jmp	 ??1?$CStringT@DV?$StrTraitMFC@DV?$ChTraitsCRT@D@ATL@@@@@ATL@@QAE@XZ ; ATL::CStringT<char,StrTraitMFC<char,ATL::ChTraitsCRT<char> > >::~CStringT<char,StrTraitMFC<char,ATL::ChTraitsCRT<char> > >
__ehhandler$?LogQuest@CDbManager@@AAEXPAVCQuery@@PAUtagDB_OVERLAPPED_PLUS@@@Z:
  00016	b8 00 00 00 00	 mov	 eax, OFFSET FLAT:$T214220
  0001b	e9 00 00 00 00	 jmp	 ___CxxFrameHandler
text$x	ENDS
?LogQuest@CDbManager@@AAEXPAVCQuery@@PAUtagDB_OVERLAPPED_PLUS@@@Z ENDP ; CDbManager::LogQuest
END
