; Listing generated by Microsoft (R) Optimizing Compiler Version 13.10.6030 

	TITLE	\Documents and Settings\test\Mes documents\Source\Virtuos_v17\Build\Program\_Database\DbManagerLog.cpp
	.386P
include listing.inc
if @Version gt 510
.model FLAT
else
_TEXT	SEGMENT PARA USE32 PUBLIC 'CODE'
_TEXT	ENDS
_DATA	SEGMENT DWORD USE32 PUBLIC 'DATA'
_DATA	ENDS
CONST	SEGMENT DWORD USE32 PUBLIC 'CONST'
CONST	ENDS
_BSS	SEGMENT DWORD USE32 PUBLIC 'BSS'
_BSS	ENDS
$$SYMBOLS	SEGMENT BYTE USE32 'DEBSYM'
$$SYMBOLS	ENDS
_TLS	SEGMENT DWORD USE32 PUBLIC 'TLS'
_TLS	ENDS
;	COMDAT ??_C@_0DB@BEDINLHB@RANKING?4RANKING_DBF?4dbo?4RANKING_@
CONST	SEGMENT DWORD USE32 PUBLIC 'CONST'
CONST	ENDS
;	COMDAT ??_C@_0CN@HNMEKJGP@CDbManager?3?3UpdateGuildRanking?$LP?$KB@
CONST	SEGMENT DWORD USE32 PUBLIC 'CONST'
CONST	ENDS
;	COMDAT ??_C@_08LJMBJH@m_dwLogo?$AA@
CONST	SEGMENT DWORD USE32 PUBLIC 'CONST'
CONST	ENDS
;	COMDAT ??_C@_09NKFNPOPN@m_szGuild?$AA@
CONST	SEGMENT DWORD USE32 PUBLIC 'CONST'
CONST	ENDS
;	COMDAT ??_C@_08HDDJDJAG@m_szName?$AA@
CONST	SEGMENT DWORD USE32 PUBLIC 'CONST'
CONST	ENDS
;	COMDAT ??_C@_06LJIKPPDH@m_nWin?$AA@
CONST	SEGMENT DWORD USE32 PUBLIC 'CONST'
CONST	ENDS
;	COMDAT ??_C@_07IGCLHJHO@m_nLose?$AA@
CONST	SEGMENT DWORD USE32 PUBLIC 'CONST'
CONST	ENDS
;	COMDAT ??_C@_0N@BBOGLCAO@m_nSurrender?$AA@
CONST	SEGMENT DWORD USE32 PUBLIC 'CONST'
CONST	ENDS
;	COMDAT ??_C@_0L@EKKIFFNL@m_AvgLevel?$AA@
CONST	SEGMENT DWORD USE32 PUBLIC 'CONST'
CONST	ENDS
;	COMDAT ??_C@_0M@EMHJODPK@m_nWinPoint?$AA@
CONST	SEGMENT DWORD USE32 PUBLIC 'CONST'
CONST	ENDS
;	COMDAT ??_C@_0BG@CJGBCKAI@MAKE_RANKING_STR?5?8?$CFd?8?$AA@
CONST	SEGMENT DWORD USE32 PUBLIC 'CONST'
CONST	ENDS
;	COMDAT ??_C@_0CG@IPKIBOKB@CDbManager?3?3RankingDBUpdate?5?$CI?$CFs?$CJ@
CONST	SEGMENT DWORD USE32 PUBLIC 'CONST'
CONST	ENDS
;	COMDAT ??_C@_0BC@MOGJFHKK@tr1?3?3bad_weak_ptr?$AA@
CONST	SEGMENT DWORD USE32 PUBLIC 'CONST'
CONST	ENDS
;	COMDAT ??_C@_0BD@IOHNFIBA@SetLOD?5?3?5lv?$DN?$CFd?0?5?$CFs?$AA@
CONST	SEGMENT DWORD USE32 PUBLIC 'CONST'
CONST	ENDS
;	COMDAT ??_C@_02PCIJFNDE@?$AN?6?$AA@
CONST	SEGMENT DWORD USE32 PUBLIC 'CONST'
CONST	ENDS
;	COMDAT ??_C@_01DNKMNLPK@?$HM?$AA@
CONST	SEGMENT DWORD USE32 PUBLIC 'CONST'
CONST	ENDS
;	COMDAT ??_C@_0GH@LHPNFEPP@?2Documents?5and?5Settings?2test?2Mes@
CONST	SEGMENT DWORD USE32 PUBLIC 'CONST'
CONST	ENDS
;	COMDAT ??_C@_0O@MCAKDACP@?$CFs?0?5?$CFd?7?$CFs?0?5?$CFs?$AA@
CONST	SEGMENT DWORD USE32 PUBLIC 'CONST'
CONST	ENDS
;	COMDAT ??_C@_02DPKJAMEF@?$CFd?$AA@
CONST	SEGMENT DWORD USE32 PUBLIC 'CONST'
CONST	ENDS
;	COMDAT ??_C@_0BG@BLEGKHDP@LogItem?5?$CFs?0?5?$CFd?7?$CFs?0?5?$CFs?$AA@
CONST	SEGMENT DWORD USE32 PUBLIC 'CONST'
CONST	ENDS
;	COMDAT ??_C@_0BF@KEJHODAO@?5LogItem?5Qyery?5?$DN?$DO?5?$CFs?$AA@
CONST	SEGMENT DWORD USE32 PUBLIC 'CONST'
CONST	ENDS
;	COMDAT ??_C@_01CLKCMJKC@?5?$AA@
CONST	SEGMENT DWORD USE32 PUBLIC 'CONST'
CONST	ENDS
;	COMDAT ??_C@_01GEODFPGF@?8?$AA@
CONST	SEGMENT DWORD USE32 PUBLIC 'CONST'
CONST	ENDS
;	COMDAT ??_C@_02JEEOAGDI@L2?$AA@
CONST	SEGMENT DWORD USE32 PUBLIC 'CONST'
CONST	ENDS
;	COMDAT ??_C@_09GEIHMOKC@?$CFs?0?5?$CFd?7?$CFd?$AA@
CONST	SEGMENT DWORD USE32 PUBLIC 'CONST'
CONST	ENDS
;	COMDAT ??_C@_09CLMGFIGF@?$CFs?0?5?$CFd?7?$CFc?$AA@
CONST	SEGMENT DWORD USE32 PUBLIC 'CONST'
CONST	ENDS
;	COMDAT ??_C@_02LPGDFFPL@L1?$AA@
CONST	SEGMENT DWORD USE32 PUBLIC 'CONST'
CONST	ENDS
;	COMDAT ??_C@_0O@NMNJACAM@?$CFs?0?5?$CFd?7?$CFd?0?5?$CFs?$AA@
CONST	SEGMENT DWORD USE32 PUBLIC 'CONST'
CONST	ENDS
;	COMDAT ??_C@_0N@BNMNAMM@?$CFY?$CFm?$CFd?$CFH?$CFM?$CFS?$AA@
CONST	SEGMENT DWORD USE32 PUBLIC 'CONST'
CONST	ENDS
;	COMDAT ??_C@_02GOKBOOLC@L8?$AA@
CONST	SEGMENT DWORD USE32 PUBLIC 'CONST'
CONST	ENDS
;	COMDAT ??_C@_0DO@JFEBANLH@uspHonorLog?5?$EAserverindex?$DN?8?$CF02d?8?0@
CONST	SEGMENT DWORD USE32 PUBLIC 'CONST'
CONST	ENDS
;	COMDAT ??_C@_02MCBEKBLO@L4?$AA@
CONST	SEGMENT DWORD USE32 PUBLIC 'CONST'
CONST	ENDS
;	COMDAT ??_C@_02PACCMDDM@L6?$AA@
CONST	SEGMENT DWORD USE32 PUBLIC 'CONST'
CONST	ENDS
;	COMDAT ??_C@_02OJDJPCHN@L7?$AA@
CONST	SEGMENT DWORD USE32 PUBLIC 'CONST'
CONST	ENDS
;	COMDAT ??_C@_0CDJ@CLHOMLPK@LOG_STR?5?8?$CFs?8?0?$EAim_idPlayer?$DN?8?$CF07d?8@
CONST	SEGMENT DWORD USE32 PUBLIC 'CONST'
CONST	ENDS
;	COMDAT ??_C@_02BAABKJLB@?9?9?$AA@
CONST	SEGMENT DWORD USE32 PUBLIC 'CONST'
CONST	ENDS
;	COMDAT ??_C@_02FMMEOLBI@?1?$CK?$AA@
CONST	SEGMENT DWORD USE32 PUBLIC 'CONST'
CONST	ENDS
;	COMDAT ??_C@_02CHHINNLG@?$CK?1?$AA@
CONST	SEGMENT DWORD USE32 PUBLIC 'CONST'
CONST	ENDS
;	COMDAT ??_C@_0EL@OGOADBGI@LOG_GAMEMASTER_STR?5?$EAim_idPlayer?$DN@
CONST	SEGMENT DWORD USE32 PUBLIC 'CONST'
CONST	ENDS
;	COMDAT ??_C@_0BM@PFNCDNBM@LOG_USER_CNT_STR?5?8?$CF02d?8?0?5?$CFd?$AA@
CONST	SEGMENT DWORD USE32 PUBLIC 'CONST'
CONST	ENDS
;	COMDAT ??_C@_04KCMJEPHB@?0?5?$CFd?$AA@
CONST	SEGMENT DWORD USE32 PUBLIC 'CONST'
CONST	ENDS
;	COMDAT ??_C@_02JAFMCMAN@LA?$AA@
CONST	SEGMENT DWORD USE32 PUBLIC 'CONST'
CONST	ENDS
;	COMDAT ??_C@_0EO@NODPKHNH@LOG_EVENT_STR?5?$EAim_idPlayer?5?$DN?5?8?$CF0@
CONST	SEGMENT DWORD USE32 PUBLIC 'CONST'
CONST	ENDS
;	COMDAT ??_C@_0EC@CBOOBAOL@uspLoggingAcquireSkillPoint?5?8?$CF02@
CONST	SEGMENT DWORD USE32 PUBLIC 'CONST'
CONST	ENDS
;	COMDAT ??_C@_0EC@DIPFCBKK@uspLoggingAcquireSkillPoint?5?8?$CF02@
CONST	SEGMENT DWORD USE32 PUBLIC 'CONST'
CONST	ENDS
;	COMDAT ??_C@_0EA@PKCEFONH@uspLoggingUsingSkillPoint?5?8?$CF02d?8@
CONST	SEGMENT DWORD USE32 PUBLIC 'CONST'
CONST	ENDS
;	COMDAT ??_C@_0DDM@PEJILMGA@LOG_ITEM_STR?5?$EAim_szName?$DN?8?$CFs?8?0?$EAis@
CONST	SEGMENT DWORD USE32 PUBLIC 'CONST'
CONST	ENDS
;	COMDAT ??_C@_0EL@JGHMGDLE@uspLoggingTrade?5?$EApFlag?$DN0?0?5?$EApTrad@
CONST	SEGMENT DWORD USE32 PUBLIC 'CONST'
CONST	ENDS
;	COMDAT ??_C@_0JF@NEPENEDF@uspLoggingTrade?5?$EApFlag?$DN1?0?5?$EApTrad@
CONST	SEGMENT DWORD USE32 PUBLIC 'CONST'
CONST	ENDS
;	COMDAT ??_C@_0MP@KFMPAGF@uspLoggingTrade?5?$EApFlag?$DN2?0?5?$EApTrad@
CONST	SEGMENT DWORD USE32 PUBLIC 'CONST'
CONST	ENDS
;	COMDAT ??_C@_0L@EBJDFKBI@?$CFs?0?5?$CFd?3?7?$CFs?$AA@
CONST	SEGMENT DWORD USE32 PUBLIC 'CONST'
CONST	ENDS
;	COMDAT ??_C@_0FN@JANPKKBA@uspLogExpBox?5?$EApserverindex?$DN?8?$CF02d@
CONST	SEGMENT DWORD USE32 PUBLIC 'CONST'
CONST	ENDS
;	COMDAT ??_C@_0IJ@FAMDIIKP@usp_Log_Ins_Dungeon_Insert?5?$EAserv@
CONST	SEGMENT DWORD USE32 PUBLIC 'CONST'
CONST	ENDS
;	COMDAT ??_C@_0ID@PMGIPGNI@usp_SystemError_Insert?5?$EAm_idPlay@
CONST	SEGMENT DWORD USE32 PUBLIC 'CONST'
CONST	ENDS
;	COMDAT ??_C@_0IN@GLPAOOJ@usp_GuildFurniture_Log?5?$EAserverin@
CONST	SEGMENT DWORD USE32 PUBLIC 'CONST'
CONST	ENDS
xdata$x	SEGMENT DWORD USE32 PUBLIC 'CONST'
xdata$x	ENDS
;	COMDAT ??0_GUILDQUEST@@QAE@XZ
_TEXT	SEGMENT PARA USE32 PUBLIC 'CODE'
_TEXT	ENDS
;	COMDAT ?what@bad_weak_ptr@boost@@UBEPBDXZ
_TEXT	SEGMENT PARA USE32 PUBLIC 'CODE'
_TEXT	ENDS
;	COMDAT ??1sp_counted_base@detail@boost@@UAE@XZ
_TEXT	SEGMENT PARA USE32 PUBLIC 'CODE'
_TEXT	ENDS
;	COMDAT ?destroy@sp_counted_base@detail@boost@@UAEXXZ
_TEXT	SEGMENT PARA USE32 PUBLIC 'CODE'
_TEXT	ENDS
;	COMDAT ?add_ref_copy@sp_counted_base@detail@boost@@QAEXXZ
_TEXT	SEGMENT PARA USE32 PUBLIC 'CODE'
_TEXT	ENDS
;	COMDAT ?add_ref_lock@sp_counted_base@detail@boost@@QAE_NXZ
_TEXT	SEGMENT PARA USE32 PUBLIC 'CODE'
_TEXT	ENDS
;	COMDAT ?release@sp_counted_base@detail@boost@@QAEXXZ
_TEXT	SEGMENT PARA USE32 PUBLIC 'CODE'
_TEXT	ENDS
;	COMDAT ?weak_add_ref@sp_counted_base@detail@boost@@QAEXXZ
_TEXT	SEGMENT PARA USE32 PUBLIC 'CODE'
_TEXT	ENDS
;	COMDAT ?weak_release@sp_counted_base@detail@boost@@QAEXXZ
_TEXT	SEGMENT PARA USE32 PUBLIC 'CODE'
_TEXT	ENDS
;	COMDAT ?use_count@sp_counted_base@detail@boost@@QBEJXZ
_TEXT	SEGMENT PARA USE32 PUBLIC 'CODE'
_TEXT	ENDS
;	COMDAT ??_Gsp_counted_base@detail@boost@@UAEPAXI@Z
_TEXT	SEGMENT PARA USE32 PUBLIC 'CODE'
_TEXT	ENDS
;	COMDAT ?use_count@shared_count@detail@boost@@QBEJXZ
_TEXT	SEGMENT PARA USE32 PUBLIC 'CODE'
_TEXT	ENDS
;	COMDAT ??0bad_weak_ptr@boost@@QAE@XZ
_TEXT	SEGMENT PARA USE32 PUBLIC 'CODE'
_TEXT	ENDS
;	COMDAT ??1bad_weak_ptr@boost@@UAE@XZ
_TEXT	SEGMENT PARA USE32 PUBLIC 'CODE'
_TEXT	ENDS
;	COMDAT ??_Gbad_weak_ptr@boost@@UAEPAXI@Z
_TEXT	SEGMENT PARA USE32 PUBLIC 'CODE'
_TEXT	ENDS
;	COMDAT ?GetCooltime@CLordSkillComponent@@QAEHXZ
_TEXT	SEGMENT PARA USE32 PUBLIC 'CODE'
_TEXT	ENDS
;	COMDAT ?SetTick@CLordSkillComponent@@QAEXH@Z
_TEXT	SEGMENT PARA USE32 PUBLIC 'CODE'
_TEXT	ENDS
;	COMDAT ??1CLordSkillComponentExecutable@@UAE@XZ
_TEXT	SEGMENT PARA USE32 PUBLIC 'CODE'
_TEXT	ENDS
;	COMDAT ?Use@CLordSkillComponentExecutable@@IAEXXZ
_TEXT	SEGMENT PARA USE32 PUBLIC 'CODE'
_TEXT	ENDS
;	COMDAT ?Execute@CLordSkillComponentExecutable@@UAEXKKPAX@Z
_TEXT	SEGMENT PARA USE32 PUBLIC 'CODE'
_TEXT	ENDS
;	COMDAT ??_GCLordSkillComponentExecutable@@UAEPAXI@Z
_TEXT	SEGMENT PARA USE32 PUBLIC 'CODE'
_TEXT	ENDS
;	COMDAT ?GetDeposit@CCandidate@@QBE_JXZ
_TEXT	SEGMENT PARA USE32 PUBLIC 'CODE'
_TEXT	ENDS
;	COMDAT ?GetVote@CCandidate@@QAEHXZ
_TEXT	SEGMENT PARA USE32 PUBLIC 'CODE'
_TEXT	ENDS
;	COMDAT ?GetCreate@CCandidate@@QAEJXZ
_TEXT	SEGMENT PARA USE32 PUBLIC 'CODE'
_TEXT	ENDS
;	COMDAT ?SelectMemberClear@__GuildCombatMember@CGuildCombat@@QAEXXZ
_TEXT	SEGMENT PARA USE32 PUBLIC 'CODE'
_TEXT	ENDS
;	COMDAT ?LogItem@CDbManager@@AAEXPAVCQuery@@PAUtagDB_OVERLAPPED_PLUS@@@Z
_TEXT	SEGMENT PARA USE32 PUBLIC 'CODE'
_TEXT	ENDS
;	COMDAT ?LogPlayDeath@CDbManager@@AAEXPAVCQuery@@PAUtagDB_OVERLAPPED_PLUS@@@Z
_TEXT	SEGMENT PARA USE32 PUBLIC 'CODE'
_TEXT	ENDS
;	COMDAT ?LogLevelUp@CDbManager@@AAEXPAVCQuery@@PAUtagDB_OVERLAPPED_PLUS@@@Z
_TEXT	SEGMENT PARA USE32 PUBLIC 'CODE'
_TEXT	ENDS
;	COMDAT ?LogServerDeath@CDbManager@@AAEXPAVCQuery@@PAUtagDB_OVERLAPPED_PLUS@@@Z
_TEXT	SEGMENT PARA USE32 PUBLIC 'CODE'
_TEXT	ENDS
;	COMDAT ?LogGetHonorTime@CDbManager@@AAEXPAVCQuery@@PAUtagDB_OVERLAPPED_PLUS@@@Z
_TEXT	SEGMENT PARA USE32 PUBLIC 'CODE'
_TEXT	ENDS
;	COMDAT ?LogUniqueItem@CDbManager@@AAEXPAVCQuery@@PAUtagDB_OVERLAPPED_PLUS@@@Z
_TEXT	SEGMENT PARA USE32 PUBLIC 'CODE'
_TEXT	ENDS
;	COMDAT ?LogQuest@CDbManager@@AAEXPAVCQuery@@PAUtagDB_OVERLAPPED_PLUS@@@Z
_TEXT	SEGMENT PARA USE32 PUBLIC 'CODE'
_TEXT	ENDS
;	COMDAT ?DBQryLog@CDbManager@@QAEXPAD0KH_JHHHHHHHHHHDH0MMMHH0KHH0HHH0H0HK@Z
_TEXT	SEGMENT PARA USE32 PUBLIC 'CODE'
_TEXT	ENDS
;	COMDAT ?Gamema_Chat@CDbManager@@QAEXPAVCQuery@@PAUtagDB_OVERLAPPED_PLUS@@@Z
_TEXT	SEGMENT PARA USE32 PUBLIC 'CODE'
_TEXT	ENDS
;	COMDAT ?LogConcurrentUserNumber@CDbManager@@AAEXPAVCQuery@@PAUtagDB_OVERLAPPED_PLUS@@@Z
_TEXT	SEGMENT PARA USE32 PUBLIC 'CODE'
_TEXT	ENDS
;	COMDAT ?LogPkPvp@CDbManager@@AAEXPAVCQuery@@PAUtagDB_OVERLAPPED_PLUS@@@Z
_TEXT	SEGMENT PARA USE32 PUBLIC 'CODE'
_TEXT	ENDS
;	COMDAT ?LogSchool@CDbManager@@AAEXPAVCQuery@@PAUtagDB_OVERLAPPED_PLUS@@@Z
_TEXT	SEGMENT PARA USE32 PUBLIC 'CODE'
_TEXT	ENDS
;	COMDAT ?LogSkillPoint@CDbManager@@AAEXPAVCQuery@@PAUtagDB_OVERLAPPED_PLUS@@@Z
_TEXT	SEGMENT PARA USE32 PUBLIC 'CODE'
_TEXT	ENDS
;	COMDAT ?DBQryNewItemLog@CDbManager@@QAEXPADABU_LogItemInfo@@@Z
_TEXT	SEGMENT PARA USE32 PUBLIC 'CODE'
_TEXT	ENDS
;	COMDAT ?call_uspLoggingTrade@CDbManager@@QAEHPAVCQuery@@HHKKKPBDHHHKHHHH_J@Z
_TEXT	SEGMENT PARA USE32 PUBLIC 'CODE'
_TEXT	ENDS
;	COMDAT ?LogExpBox@CDbManager@@AAEXPAVCQuery@@PAUtagDB_OVERLAPPED_PLUS@@@Z
_TEXT	SEGMENT PARA USE32 PUBLIC 'CODE'
_TEXT	ENDS
;	COMDAT ?LogInstanceDungeon@CDbManager@@AAEXPAVCQuery@@PAUtagDB_OVERLAPPED_PLUS@@@Z
_TEXT	SEGMENT PARA USE32 PUBLIC 'CODE'
_TEXT	ENDS
;	COMDAT ?LogError@CDbManager@@AAEXPAVCQuery@@PAUtagDB_OVERLAPPED_PLUS@@@Z
_TEXT	SEGMENT PARA USE32 PUBLIC 'CODE'
_TEXT	ENDS
;	COMDAT ?LogGuildFurniture@CDbManager@@AAEXPAVCQuery@@PAUtagDB_OVERLAPPED_PLUS@@@Z
_TEXT	SEGMENT PARA USE32 PUBLIC 'CODE'
_TEXT	ENDS
;	COMDAT ?Replace@?$CStringT@DV?$StrTraitMFC@DV?$ChTraitsCRT@D@ATL@@@@@ATL@@QAEHDD@Z
_TEXT	SEGMENT PARA USE32 PUBLIC 'CODE'
_TEXT	ENDS
;	COMDAT ?Replace@?$CStringT@DV?$StrTraitMFC@DV?$ChTraitsCRT@D@ATL@@@@@ATL@@QAEHPBD0@Z
_TEXT	SEGMENT PARA USE32 PUBLIC 'CODE'
_TEXT	ENDS
;	COMDAT ?GetBuffer@?$CSimpleStringT@D$0A@@ATL@@QAEPADXZ
_TEXT	SEGMENT PARA USE32 PUBLIC 'CODE'
_TEXT	ENDS
;	COMDAT ?compare@?$basic_string@DU?$char_traits@D@std@@V?$allocator@D@2@@std@@QBEHABV12@@Z
_TEXT	SEGMENT PARA USE32 PUBLIC 'CODE'
_TEXT	ENDS
;	COMDAT ?end@?$_Tree@V?$_Tmap_traits@KP8CDPLoginSrvr@@AEXAAVCAr@@KPAEK@ZU?$less@K@std@@V?$allocator@U?$pair@$$CBKP8CDPLoginSrvr@@AEXAAVCAr@@KPAEK@Z@std@@@4@$0A@@std@@@std@@QAE?AViterator@12@XZ
_TEXT	SEGMENT PARA USE32 PUBLIC 'CODE'
_TEXT	ENDS
;	COMDAT ?find@?$_Tree@V?$_Tmap_traits@KP8CDPLoginSrvr@@AEXAAVCAr@@KPAEK@ZU?$less@K@std@@V?$allocator@U?$pair@$$CBKP8CDPLoginSrvr@@AEXAAVCAr@@KPAEK@Z@std@@@4@$0A@@std@@@std@@QAE?AViterator@12@ABK@Z
_TEXT	SEGMENT PARA USE32 PUBLIC 'CODE'
_TEXT	ENDS
;	COMDAT ??Citerator@?$_Tree@V?$_Tmap_traits@KP8CDPLoginSrvr@@AEXAAVCAr@@KPAEK@ZU?$less@K@std@@V?$allocator@U?$pair@$$CBKP8CDPLoginSrvr@@AEXAAVCAr@@KPAEK@Z@std@@@4@$0A@@std@@@std@@QBEPAU?$pair@$$CBKP8CDPLoginSrvr@@AEXAAVCAr@@KPAEK@Z@2@XZ
_TEXT	SEGMENT PARA USE32 PUBLIC 'CODE'
_TEXT	ENDS
;	COMDAT ??9const_iterator@?$_Tree@V?$_Tmap_traits@KP8CDPLoginSrvr@@AEXAAVCAr@@KPAEK@ZU?$less@K@std@@V?$allocator@U?$pair@$$CBKP8CDPLoginSrvr@@AEXAAVCAr@@KPAEK@Z@std@@@4@$0A@@std@@@std@@QBE_NABV012@@Z
_TEXT	SEGMENT PARA USE32 PUBLIC 'CODE'
_TEXT	ENDS
;	COMDAT ?Alloc@?$MemPooler@VCGuildMember@@@@QAEPAVCGuildMember@@XZ
_TEXT	SEGMENT PARA USE32 PUBLIC 'CODE'
_TEXT	ENDS
;	COMDAT ?Free@?$MemPooler@VCGuildMember@@@@QAEHPAVCGuildMember@@@Z
_TEXT	SEGMENT PARA USE32 PUBLIC 'CODE'
_TEXT	ENDS
;	COMDAT ?size@?$_Tree@V?$_Tmap_traits@KPAVCGuildMember@@U?$less@K@std@@V?$allocator@U?$pair@$$CBKPAVCGuildMember@@@std@@@3@$0A@@std@@@std@@QBEIXZ
_TEXT	SEGMENT PARA USE32 PUBLIC 'CODE'
_TEXT	ENDS
;	COMDAT ?Alloc@?$MemPooler@VCGuild@@@@QAEPAVCGuild@@XZ
_TEXT	SEGMENT PARA USE32 PUBLIC 'CODE'
_TEXT	ENDS
;	COMDAT ?Free@?$MemPooler@VCGuild@@@@QAEHPAVCGuild@@@Z
_TEXT	SEGMENT PARA USE32 PUBLIC 'CODE'
_TEXT	ENDS
;	COMDAT ?size@?$_Tree@V?$_Tmap_traits@KPAVCGuild@@U?$less@K@std@@V?$allocator@U?$pair@$$CBKPAVCGuild@@@std@@@3@$0A@@std@@@std@@QBEIXZ
_TEXT	SEGMENT PARA USE32 PUBLIC 'CODE'
_TEXT	ENDS
;	COMDAT ?size@?$_Tree@V?$_Tmap_traits@KPAU_PlayerData@@U?$less@K@std@@V?$allocator@U?$pair@$$CBKPAU_PlayerData@@@std@@@3@$0A@@std@@@std@@QBEIXZ
_TEXT	SEGMENT PARA USE32 PUBLIC 'CODE'
_TEXT	ENDS
;	COMDAT ?end@?$_Tree@V?$_Tmap_traits@KP8CDPCoreSrvr@@AEXAAVCAr@@PAEK@ZU?$less@K@std@@V?$allocator@U?$pair@$$CBKP8CDPCoreSrvr@@AEXAAVCAr@@PAEK@Z@std@@@4@$0A@@std@@@std@@QAE?AViterator@12@XZ
_TEXT	SEGMENT PARA USE32 PUBLIC 'CODE'
_TEXT	ENDS
;	COMDAT ?find@?$_Tree@V?$_Tmap_traits@KP8CDPCoreSrvr@@AEXAAVCAr@@PAEK@ZU?$less@K@std@@V?$allocator@U?$pair@$$CBKP8CDPCoreSrvr@@AEXAAVCAr@@PAEK@Z@std@@@4@$0A@@std@@@std@@QAE?AViterator@12@ABK@Z
_TEXT	SEGMENT PARA USE32 PUBLIC 'CODE'
_TEXT	ENDS
;	COMDAT ??Citerator@?$_Tree@V?$_Tmap_traits@KP8CDPCoreSrvr@@AEXAAVCAr@@PAEK@ZU?$less@K@std@@V?$allocator@U?$pair@$$CBKP8CDPCoreSrvr@@AEXAAVCAr@@PAEK@Z@std@@@4@$0A@@std@@@std@@QBEPAU?$pair@$$CBKP8CDPCoreSrvr@@AEXAAVCAr@@PAEK@Z@2@XZ
_TEXT	SEGMENT PARA USE32 PUBLIC 'CODE'
_TEXT	ENDS
;	COMDAT ??9const_iterator@?$_Tree@V?$_Tmap_traits@KP8CDPCoreSrvr@@AEXAAVCAr@@PAEK@ZU?$less@K@std@@V?$allocator@U?$pair@$$CBKP8CDPCoreSrvr@@AEXAAVCAr@@PAEK@Z@std@@@4@$0A@@std@@@std@@QBE_NABV012@@Z
_TEXT	SEGMENT PARA USE32 PUBLIC 'CODE'
_TEXT	ENDS
;	COMDAT ??R?$less@PAVsp_counted_base@detail@boost@@@std@@QBE_NABQAVsp_counted_base@detail@boost@@0@Z
_TEXT	SEGMENT PARA USE32 PUBLIC 'CODE'
_TEXT	ENDS
;	COMDAT ?size@?$vector@PAVCLordSkillComponentExecutable@@V?$allocator@PAVCLordSkillComponentExecutable@@@std@@@std@@QBEIXZ
_TEXT	SEGMENT PARA USE32 PUBLIC 'CODE'
_TEXT	ENDS
;	COMDAT ?size@?$vector@V?$shared_ptr@VCCandidate@@@boost@@V?$allocator@V?$shared_ptr@VCCandidate@@@boost@@@std@@@std@@QBEIXZ
_TEXT	SEGMENT PARA USE32 PUBLIC 'CODE'
_TEXT	ENDS
;	COMDAT ??0?$vector@MV?$allocator@M@std@@@std@@QAE@XZ
_TEXT	SEGMENT PARA USE32 PUBLIC 'CODE'
_TEXT	ENDS
;	COMDAT ??1?$vector@MV?$allocator@M@std@@@std@@QAE@XZ
_TEXT	SEGMENT PARA USE32 PUBLIC 'CODE'
_TEXT	ENDS
;	COMDAT ??0?$vector@HV?$allocator@H@std@@@std@@QAE@XZ
_TEXT	SEGMENT PARA USE32 PUBLIC 'CODE'
_TEXT	ENDS
;	COMDAT ??1?$vector@HV?$allocator@H@std@@@std@@QAE@XZ
_TEXT	SEGMENT PARA USE32 PUBLIC 'CODE'
_TEXT	ENDS
;	COMDAT ??C?$shared_ptr@VCCandidate@@@boost@@QBEPAVCCandidate@@XZ
_TEXT	SEGMENT PARA USE32 PUBLIC 'CODE'
_TEXT	ENDS
;	COMDAT ?size@?$vector@PAVCLEComponent@@V?$allocator@PAVCLEComponent@@@std@@@std@@QBEIXZ
_TEXT	SEGMENT PARA USE32 PUBLIC 'CODE'
_TEXT	ENDS
;	COMDAT ?size@?$vector@U?$pair@M_J@std@@V?$allocator@U?$pair@M_J@std@@@2@@std@@QBEIXZ
_TEXT	SEGMENT PARA USE32 PUBLIC 'CODE'
_TEXT	ENDS
;	COMDAT ?end@?$_Tree@V?$_Tmap_traits@KP8CDPTrans@@AEXAAVCAr@@KKKPAEK@ZU?$less@K@std@@V?$allocator@U?$pair@$$CBKP8CDPTrans@@AEXAAVCAr@@KKKPAEK@Z@std@@@4@$0A@@std@@@std@@QAE?AViterator@12@XZ
_TEXT	SEGMENT PARA USE32 PUBLIC 'CODE'
_TEXT	ENDS
;	COMDAT ?find@?$_Tree@V?$_Tmap_traits@KP8CDPTrans@@AEXAAVCAr@@KKKPAEK@ZU?$less@K@std@@V?$allocator@U?$pair@$$CBKP8CDPTrans@@AEXAAVCAr@@KKKPAEK@Z@std@@@4@$0A@@std@@@std@@QAE?AViterator@12@ABK@Z
_TEXT	SEGMENT PARA USE32 PUBLIC 'CODE'
_TEXT	ENDS
;	COMDAT ??Citerator@?$_Tree@V?$_Tmap_traits@KP8CDPTrans@@AEXAAVCAr@@KKKPAEK@ZU?$less@K@std@@V?$allocator@U?$pair@$$CBKP8CDPTrans@@AEXAAVCAr@@KKKPAEK@Z@std@@@4@$0A@@std@@@std@@QBEPAU?$pair@$$CBKP8CDPTrans@@AEXAAVCAr@@KKKPAEK@Z@2@XZ
_TEXT	SEGMENT PARA USE32 PUBLIC 'CODE'
_TEXT	ENDS
;	COMDAT ??9const_iterator@?$_Tree@V?$_Tmap_traits@KP8CDPTrans@@AEXAAVCAr@@KKKPAEK@ZU?$less@K@std@@V?$allocator@U?$pair@$$CBKP8CDPTrans@@AEXAAVCAr@@KKKPAEK@Z@std@@@4@$0A@@std@@@std@@QBE_NABV012@@Z
_TEXT	SEGMENT PARA USE32 PUBLIC 'CODE'
_TEXT	ENDS
;	COMDAT ?Alloc@?$MemPooler@VCParty@@@@QAEPAVCParty@@XZ
_TEXT	SEGMENT PARA USE32 PUBLIC 'CODE'
_TEXT	ENDS
;	COMDAT ?Free@?$MemPooler@VCParty@@@@QAEHPAVCParty@@@Z
_TEXT	SEGMENT PARA USE32 PUBLIC 'CODE'
_TEXT	ENDS
;	COMDAT ?size@?$_Tree@V?$_Tmap_traits@KPAVCGuildWar@@U?$less@K@std@@V?$allocator@U?$pair@$$CBKPAVCGuildWar@@@std@@@3@$0A@@std@@@std@@QBEIXZ
_TEXT	SEGMENT PARA USE32 PUBLIC 'CODE'
_TEXT	ENDS
;	COMDAT ?size@?$vector@PAU__JOINPLAYER@CGuildCombat@@V?$allocator@PAU__JOINPLAYER@CGuildCombat@@@std@@@std@@QBEIXZ
_TEXT	SEGMENT PARA USE32 PUBLIC 'CODE'
_TEXT	ENDS
;	COMDAT ??A?$vector@PAU__JOINPLAYER@CGuildCombat@@V?$allocator@PAU__JOINPLAYER@CGuildCombat@@@std@@@std@@QAEAAPAU__JOINPLAYER@CGuildCombat@@I@Z
_TEXT	SEGMENT PARA USE32 PUBLIC 'CODE'
_TEXT	ENDS
;	COMDAT ?clear@?$vector@PAU__JOINPLAYER@CGuildCombat@@V?$allocator@PAU__JOINPLAYER@CGuildCombat@@@std@@@std@@QAEXXZ
_TEXT	SEGMENT PARA USE32 PUBLIC 'CODE'
_TEXT	ENDS
;	COMDAT ?clear@?$list@PAU__JOINPLAYER@CGuildCombat@@V?$allocator@PAU__JOINPLAYER@CGuildCombat@@@std@@@std@@QAEXXZ
_TEXT	SEGMENT PARA USE32 PUBLIC 'CODE'
_TEXT	ENDS
;	COMDAT ?size@?$vector@UGuildHouse_Furniture_Info@CGuildHouseBase@@V?$allocator@UGuildHouse_Furniture_Info@CGuildHouseBase@@@std@@@std@@QBEIXZ
_TEXT	SEGMENT PARA USE32 PUBLIC 'CODE'
_TEXT	ENDS
;	COMDAT ??A?$vector@UGuildHouse_Furniture_Info@CGuildHouseBase@@V?$allocator@UGuildHouse_Furniture_Info@CGuildHouseBase@@@std@@@std@@QAEAAUGuildHouse_Furniture_Info@CGuildHouseBase@@I@Z
_TEXT	SEGMENT PARA USE32 PUBLIC 'CODE'
_TEXT	ENDS
;	COMDAT ?empty@?$_Tree@V?$_Tmap_traits@KPAVCGuildHouseBase@@U?$less@K@std@@V?$allocator@U?$pair@$$CBKPAVCGuildHouseBase@@@std@@@3@$0A@@std@@@std@@QBE_NXZ
_TEXT	SEGMENT PARA USE32 PUBLIC 'CODE'
_TEXT	ENDS
;	COMDAT ?insert@?$_Tree@V?$_Tmap_traits@KPAVCGuildHouseBase@@U?$less@K@std@@V?$allocator@U?$pair@$$CBKPAVCGuildHouseBase@@@std@@@3@$0A@@std@@@std@@QAE?AU?$pair@Viterator@?$_Tree@V?$_Tmap_traits@KPAVCGuildHouseBase@@U?$less@K@std@@V?$allocator@U?$pair@$$CBKPAVCGuildHouseBase@@@std@@@3@$0A@@std@@@std@@_N@2@ABU?$pair@$$CBKPAVCGuildHouseBase@@@2@@Z
_TEXT	SEGMENT PARA USE32 PUBLIC 'CODE'
_TEXT	ENDS
;	COMDAT ?CharNextA@?$ChTraitsCRT@D@ATL@@SAPADPBD@Z
_TEXT	SEGMENT PARA USE32 PUBLIC 'CODE'
_TEXT	ENDS
;	COMDAT ?StringFindString@?$ChTraitsCRT@D@ATL@@SAPADPADPBD@Z
_TEXT	SEGMENT PARA USE32 PUBLIC 'CODE'
_TEXT	ENDS
;	COMDAT ?SafeStringLen@?$ChTraitsCRT@D@ATL@@SAHPBD@Z
_TEXT	SEGMENT PARA USE32 PUBLIC 'CODE'
_TEXT	ENDS
;	COMDAT ?compare@?$basic_string@DU?$char_traits@D@std@@V?$allocator@D@2@@std@@QBEHIIPBDI@Z
_TEXT	SEGMENT PARA USE32 PUBLIC 'CODE'
_TEXT	ENDS
;	COMDAT ??0?$allocator@H@std@@QAE@XZ
_TEXT	SEGMENT PARA USE32 PUBLIC 'CODE'
_TEXT	ENDS
;	COMDAT ?_Key@?$_Tree@V?$_Tmap_traits@KP8CDPLoginSrvr@@AEXAAVCAr@@KPAEK@ZU?$less@K@std@@V?$allocator@U?$pair@$$CBKP8CDPLoginSrvr@@AEXAAVCAr@@KPAEK@Z@std@@@4@$0A@@std@@@std@@KAABKPAU_Node@?$_Tree_nod@V?$_Tmap_traits@KP8CDPLoginSrvr@@AEXAAVCAr@@KPAEK@ZU?$less@K@std@@V?$allocator@U?$pair@$$CBKP8CDPLoginSrvr@@AEXAAVCAr@@KPAEK@Z@std@@@4@$0A@@std@@@2@@Z
_TEXT	SEGMENT PARA USE32 PUBLIC 'CODE'
_TEXT	ENDS
;	COMDAT ?lower_bound@?$_Tree@V?$_Tmap_traits@KP8CDPLoginSrvr@@AEXAAVCAr@@KPAEK@ZU?$less@K@std@@V?$allocator@U?$pair@$$CBKP8CDPLoginSrvr@@AEXAAVCAr@@KPAEK@Z@std@@@4@$0A@@std@@@std@@QAE?AViterator@12@ABK@Z
_TEXT	SEGMENT PARA USE32 PUBLIC 'CODE'
_TEXT	ENDS
;	COMDAT ??0iterator@?$_Tree@V?$_Tmap_traits@KP8CDPLoginSrvr@@AEXAAVCAr@@KPAEK@ZU?$less@K@std@@V?$allocator@U?$pair@$$CBKP8CDPLoginSrvr@@AEXAAVCAr@@KPAEK@Z@std@@@4@$0A@@std@@@std@@QAE@PAU_Node@?$_Tree_nod@V?$_Tmap_traits@KP8CDPLoginSrvr@@AEXAAVCAr@@KPAEK@ZU?$less@K@std@@V?$allocator@U?$pair@$$CBKP8CDPLoginSrvr@@AEXAAVCAr@@KPAEK@Z@std@@@4@$0A@@std@@@2@@Z
_TEXT	SEGMENT PARA USE32 PUBLIC 'CODE'
_TEXT	ENDS
;	COMDAT ??Diterator@?$_Tree@V?$_Tmap_traits@KP8CDPLoginSrvr@@AEXAAVCAr@@KPAEK@ZU?$less@K@std@@V?$allocator@U?$pair@$$CBKP8CDPLoginSrvr@@AEXAAVCAr@@KPAEK@Z@std@@@4@$0A@@std@@@std@@QBEAAU?$pair@$$CBKP8CDPLoginSrvr@@AEXAAVCAr@@KPAEK@Z@2@XZ
_TEXT	SEGMENT PARA USE32 PUBLIC 'CODE'
_TEXT	ENDS
;	COMDAT ??8const_iterator@?$_Tree@V?$_Tmap_traits@KP8CDPLoginSrvr@@AEXAAVCAr@@KPAEK@ZU?$less@K@std@@V?$allocator@U?$pair@$$CBKP8CDPLoginSrvr@@AEXAAVCAr@@KPAEK@Z@std@@@4@$0A@@std@@@std@@QBE_NABV012@@Z
_TEXT	SEGMENT PARA USE32 PUBLIC 'CODE'
_TEXT	ENDS
;	COMDAT ?_Mynode@const_iterator@?$_Tree@V?$_Tmap_traits@KP8CDPLoginSrvr@@AEXAAVCAr@@KPAEK@ZU?$less@K@std@@V?$allocator@U?$pair@$$CBKP8CDPLoginSrvr@@AEXAAVCAr@@KPAEK@Z@std@@@4@$0A@@std@@@std@@QBEPAU_Node@?$_Tree_nod@V?$_Tmap_traits@KP8CDPLoginSrvr@@AEXAAVCAr@@KPAEK@ZU?$less@K@std@@V?$allocator@U?$pair@$$CBKP8CDPLoginSrvr@@AEXAAVCAr@@KPAEK@Z@std@@@4@$0A@@std@@@3@XZ
_TEXT	SEGMENT PARA USE32 PUBLIC 'CODE'
_TEXT	ENDS
;	COMDAT ?Create@?$MemPooler@VCGuildMember@@@@IAEXXZ
_TEXT	SEGMENT PARA USE32 PUBLIC 'CODE'
_TEXT	ENDS
;	COMDAT ?Create@?$MemPooler@VCGuild@@@@IAEXXZ
_TEXT	SEGMENT PARA USE32 PUBLIC 'CODE'
_TEXT	ENDS
;	COMDAT ?_Key@?$_Tree@V?$_Tmap_traits@KP8CDPCoreSrvr@@AEXAAVCAr@@PAEK@ZU?$less@K@std@@V?$allocator@U?$pair@$$CBKP8CDPCoreSrvr@@AEXAAVCAr@@PAEK@Z@std@@@4@$0A@@std@@@std@@KAABKPAU_Node@?$_Tree_nod@V?$_Tmap_traits@KP8CDPCoreSrvr@@AEXAAVCAr@@PAEK@ZU?$less@K@std@@V?$allocator@U?$pair@$$CBKP8CDPCoreSrvr@@AEXAAVCAr@@PAEK@Z@std@@@4@$0A@@std@@@2@@Z
_TEXT	SEGMENT PARA USE32 PUBLIC 'CODE'
_TEXT	ENDS
;	COMDAT ?lower_bound@?$_Tree@V?$_Tmap_traits@KP8CDPCoreSrvr@@AEXAAVCAr@@PAEK@ZU?$less@K@std@@V?$allocator@U?$pair@$$CBKP8CDPCoreSrvr@@AEXAAVCAr@@PAEK@Z@std@@@4@$0A@@std@@@std@@QAE?AViterator@12@ABK@Z
_TEXT	SEGMENT PARA USE32 PUBLIC 'CODE'
_TEXT	ENDS
;	COMDAT ??0iterator@?$_Tree@V?$_Tmap_traits@KP8CDPCoreSrvr@@AEXAAVCAr@@PAEK@ZU?$less@K@std@@V?$allocator@U?$pair@$$CBKP8CDPCoreSrvr@@AEXAAVCAr@@PAEK@Z@std@@@4@$0A@@std@@@std@@QAE@PAU_Node@?$_Tree_nod@V?$_Tmap_traits@KP8CDPCoreSrvr@@AEXAAVCAr@@PAEK@ZU?$less@K@std@@V?$allocator@U?$pair@$$CBKP8CDPCoreSrvr@@AEXAAVCAr@@PAEK@Z@std@@@4@$0A@@std@@@2@@Z
_TEXT	SEGMENT PARA USE32 PUBLIC 'CODE'
_TEXT	ENDS
;	COMDAT ??Diterator@?$_Tree@V?$_Tmap_traits@KP8CDPCoreSrvr@@AEXAAVCAr@@PAEK@ZU?$less@K@std@@V?$allocator@U?$pair@$$CBKP8CDPCoreSrvr@@AEXAAVCAr@@PAEK@Z@std@@@4@$0A@@std@@@std@@QBEAAU?$pair@$$CBKP8CDPCoreSrvr@@AEXAAVCAr@@PAEK@Z@2@XZ
_TEXT	SEGMENT PARA USE32 PUBLIC 'CODE'
_TEXT	ENDS
;	COMDAT ??8const_iterator@?$_Tree@V?$_Tmap_traits@KP8CDPCoreSrvr@@AEXAAVCAr@@PAEK@ZU?$less@K@std@@V?$allocator@U?$pair@$$CBKP8CDPCoreSrvr@@AEXAAVCAr@@PAEK@Z@std@@@4@$0A@@std@@@std@@QBE_NABV012@@Z
_TEXT	SEGMENT PARA USE32 PUBLIC 'CODE'
_TEXT	ENDS
;	COMDAT ?_Mynode@const_iterator@?$_Tree@V?$_Tmap_traits@KP8CDPCoreSrvr@@AEXAAVCAr@@PAEK@ZU?$less@K@std@@V?$allocator@U?$pair@$$CBKP8CDPCoreSrvr@@AEXAAVCAr@@PAEK@Z@std@@@4@$0A@@std@@@std@@QBEPAU_Node@?$_Tree_nod@V?$_Tmap_traits@KP8CDPCoreSrvr@@AEXAAVCAr@@PAEK@ZU?$less@K@std@@V?$allocator@U?$pair@$$CBKP8CDPCoreSrvr@@AEXAAVCAr@@PAEK@Z@std@@@4@$0A@@std@@@3@XZ
_TEXT	SEGMENT PARA USE32 PUBLIC 'CODE'
_TEXT	ENDS
;	COMDAT ?_Buy@?$vector@MV?$allocator@M@std@@@std@@IAE_NI@Z
_TEXT	SEGMENT PARA USE32 PUBLIC 'CODE'
_TEXT	ENDS
;	COMDAT ?_Tidy@?$vector@MV?$allocator@M@std@@@std@@IAEXXZ
_TEXT	SEGMENT PARA USE32 PUBLIC 'CODE'
_TEXT	ENDS
;	COMDAT ??0?$_Vector_val@MV?$allocator@M@std@@@std@@IAE@V?$allocator@M@1@@Z
_TEXT	SEGMENT PARA USE32 PUBLIC 'CODE'
_TEXT	ENDS
;	COMDAT ??0?$allocator@M@std@@QAE@XZ
_TEXT	SEGMENT PARA USE32 PUBLIC 'CODE'
_TEXT	ENDS
;	COMDAT ?_Buy@?$vector@HV?$allocator@H@std@@@std@@IAE_NI@Z
_TEXT	SEGMENT PARA USE32 PUBLIC 'CODE'
_TEXT	ENDS
;	COMDAT ?_Tidy@?$vector@HV?$allocator@H@std@@@std@@IAEXXZ
_TEXT	SEGMENT PARA USE32 PUBLIC 'CODE'
_TEXT	ENDS
;	COMDAT ??0?$_Vector_val@HV?$allocator@H@std@@@std@@IAE@V?$allocator@H@1@@Z
_TEXT	SEGMENT PARA USE32 PUBLIC 'CODE'
_TEXT	ENDS
;	COMDAT ?_Key@?$_Tree@V?$_Tmap_traits@KP8CDPTrans@@AEXAAVCAr@@KKKPAEK@ZU?$less@K@std@@V?$allocator@U?$pair@$$CBKP8CDPTrans@@AEXAAVCAr@@KKKPAEK@Z@std@@@4@$0A@@std@@@std@@KAABKPAU_Node@?$_Tree_nod@V?$_Tmap_traits@KP8CDPTrans@@AEXAAVCAr@@KKKPAEK@ZU?$less@K@std@@V?$allocator@U?$pair@$$CBKP8CDPTrans@@AEXAAVCAr@@KKKPAEK@Z@std@@@4@$0A@@std@@@2@@Z
_TEXT	SEGMENT PARA USE32 PUBLIC 'CODE'
_TEXT	ENDS
;	COMDAT ?lower_bound@?$_Tree@V?$_Tmap_traits@KP8CDPTrans@@AEXAAVCAr@@KKKPAEK@ZU?$less@K@std@@V?$allocator@U?$pair@$$CBKP8CDPTrans@@AEXAAVCAr@@KKKPAEK@Z@std@@@4@$0A@@std@@@std@@QAE?AViterator@12@ABK@Z
_TEXT	SEGMENT PARA USE32 PUBLIC 'CODE'
_TEXT	ENDS
;	COMDAT ??0iterator@?$_Tree@V?$_Tmap_traits@KP8CDPTrans@@AEXAAVCAr@@KKKPAEK@ZU?$less@K@std@@V?$allocator@U?$pair@$$CBKP8CDPTrans@@AEXAAVCAr@@KKKPAEK@Z@std@@@4@$0A@@std@@@std@@QAE@PAU_Node@?$_Tree_nod@V?$_Tmap_traits@KP8CDPTrans@@AEXAAVCAr@@KKKPAEK@ZU?$less@K@std@@V?$allocator@U?$pair@$$CBKP8CDPTrans@@AEXAAVCAr@@KKKPAEK@Z@std@@@4@$0A@@std@@@2@@Z
_TEXT	SEGMENT PARA USE32 PUBLIC 'CODE'
_TEXT	ENDS
;	COMDAT ??Diterator@?$_Tree@V?$_Tmap_traits@KP8CDPTrans@@AEXAAVCAr@@KKKPAEK@ZU?$less@K@std@@V?$allocator@U?$pair@$$CBKP8CDPTrans@@AEXAAVCAr@@KKKPAEK@Z@std@@@4@$0A@@std@@@std@@QBEAAU?$pair@$$CBKP8CDPTrans@@AEXAAVCAr@@KKKPAEK@Z@2@XZ
_TEXT	SEGMENT PARA USE32 PUBLIC 'CODE'
_TEXT	ENDS
;	COMDAT ??8const_iterator@?$_Tree@V?$_Tmap_traits@KP8CDPTrans@@AEXAAVCAr@@KKKPAEK@ZU?$less@K@std@@V?$allocator@U?$pair@$$CBKP8CDPTrans@@AEXAAVCAr@@KKKPAEK@Z@std@@@4@$0A@@std@@@std@@QBE_NABV012@@Z
_TEXT	SEGMENT PARA USE32 PUBLIC 'CODE'
_TEXT	ENDS
;	COMDAT ?_Mynode@const_iterator@?$_Tree@V?$_Tmap_traits@KP8CDPTrans@@AEXAAVCAr@@KKKPAEK@ZU?$less@K@std@@V?$allocator@U?$pair@$$CBKP8CDPTrans@@AEXAAVCAr@@KKKPAEK@Z@std@@@4@$0A@@std@@@std@@QBEPAU_Node@?$_Tree_nod@V?$_Tmap_traits@KP8CDPTrans@@AEXAAVCAr@@KKKPAEK@ZU?$less@K@std@@V?$allocator@U?$pair@$$CBKP8CDPTrans@@AEXAAVCAr@@KKKPAEK@Z@std@@@4@$0A@@std@@@3@XZ
_TEXT	SEGMENT PARA USE32 PUBLIC 'CODE'
_TEXT	ENDS
;	COMDAT ?Create@?$MemPooler@VCParty@@@@IAEXXZ
_TEXT	SEGMENT PARA USE32 PUBLIC 'CODE'
_TEXT	ENDS
;	COMDAT ?begin@?$vector@PAU__JOINPLAYER@CGuildCombat@@V?$allocator@PAU__JOINPLAYER@CGuildCombat@@@std@@@std@@QAE?AViterator@12@XZ
_TEXT	SEGMENT PARA USE32 PUBLIC 'CODE'
_TEXT	ENDS
;	COMDAT ?_Tidy@?$vector@PAU__JOINPLAYER@CGuildCombat@@V?$allocator@PAU__JOINPLAYER@CGuildCombat@@@std@@@std@@IAEXXZ
_TEXT	SEGMENT PARA USE32 PUBLIC 'CODE'
_TEXT	ENDS
;	COMDAT ?_Nextnode@?$list@PAU__JOINPLAYER@CGuildCombat@@V?$allocator@PAU__JOINPLAYER@CGuildCombat@@@std@@@std@@KAAAPAU_Node@?$_List_nod@PAU__JOINPLAYER@CGuildCombat@@V?$allocator@PAU__JOINPLAYER@CGuildCombat@@@std@@@2@PAU342@@Z
_TEXT	SEGMENT PARA USE32 PUBLIC 'CODE'
_TEXT	ENDS
;	COMDAT ?_Prevnode@?$list@PAU__JOINPLAYER@CGuildCombat@@V?$allocator@PAU__JOINPLAYER@CGuildCombat@@@std@@@std@@KAAAPAU_Node@?$_List_nod@PAU__JOINPLAYER@CGuildCombat@@V?$allocator@PAU__JOINPLAYER@CGuildCombat@@@std@@@2@PAU342@@Z
_TEXT	SEGMENT PARA USE32 PUBLIC 'CODE'
_TEXT	ENDS
;	COMDAT ?deallocate@?$allocator@U_Node@?$_List_nod@PAU__JOINPLAYER@CGuildCombat@@V?$allocator@PAU__JOINPLAYER@CGuildCombat@@@std@@@std@@@std@@QAEXPAU_Node@?$_List_nod@PAU__JOINPLAYER@CGuildCombat@@V?$allocator@PAU__JOINPLAYER@CGuildCombat@@@std@@@2@I@Z
_TEXT	SEGMENT PARA USE32 PUBLIC 'CODE'
_TEXT	ENDS
;	COMDAT ?destroy@?$allocator@U_Node@?$_List_nod@PAU__JOINPLAYER@CGuildCombat@@V?$allocator@PAU__JOINPLAYER@CGuildCombat@@@std@@@std@@@std@@QAEXPAU_Node@?$_List_nod@PAU__JOINPLAYER@CGuildCombat@@V?$allocator@PAU__JOINPLAYER@CGuildCombat@@@std@@@2@@Z
_TEXT	SEGMENT PARA USE32 PUBLIC 'CODE'
_TEXT	ENDS
;	COMDAT ?begin@?$vector@UGuildHouse_Furniture_Info@CGuildHouseBase@@V?$allocator@UGuildHouse_Furniture_Info@CGuildHouseBase@@@std@@@std@@QAE?AViterator@12@XZ
_TEXT	SEGMENT PARA USE32 PUBLIC 'CODE'
_TEXT	ENDS
;	COMDAT ?_Isnil@?$_Tree@V?$_Tmap_traits@KPAVCGuildHouseBase@@U?$less@K@std@@V?$allocator@U?$pair@$$CBKPAVCGuildHouseBase@@@std@@@3@$0A@@std@@@std@@KAAADPAU_Node@?$_Tree_nod@V?$_Tmap_traits@KPAVCGuildHouseBase@@U?$less@K@std@@V?$allocator@U?$pair@$$CBKPAVCGuildHouseBase@@@std@@@3@$0A@@std@@@2@@Z
_TEXT	SEGMENT PARA USE32 PUBLIC 'CODE'
_TEXT	ENDS
;	COMDAT ?_Key@?$_Tree@V?$_Tmap_traits@KPAVCGuildHouseBase@@U?$less@K@std@@V?$allocator@U?$pair@$$CBKPAVCGuildHouseBase@@@std@@@3@$0A@@std@@@std@@KAABKPAU_Node@?$_Tree_nod@V?$_Tmap_traits@KPAVCGuildHouseBase@@U?$less@K@std@@V?$allocator@U?$pair@$$CBKPAVCGuildHouseBase@@@std@@@3@$0A@@std@@@2@@Z
_TEXT	SEGMENT PARA USE32 PUBLIC 'CODE'
_TEXT	ENDS
;	COMDAT ?_Left@?$_Tree@V?$_Tmap_traits@KPAVCGuildHouseBase@@U?$less@K@std@@V?$allocator@U?$pair@$$CBKPAVCGuildHouseBase@@@std@@@3@$0A@@std@@@std@@KAAAPAU_Node@?$_Tree_nod@V?$_Tmap_traits@KPAVCGuildHouseBase@@U?$less@K@std@@V?$allocator@U?$pair@$$CBKPAVCGuildHouseBase@@@std@@@3@$0A@@std@@@2@PAU342@@Z
_TEXT	SEGMENT PARA USE32 PUBLIC 'CODE'
_TEXT	ENDS
;	COMDAT ?_Right@?$_Tree@V?$_Tmap_traits@KPAVCGuildHouseBase@@U?$less@K@std@@V?$allocator@U?$pair@$$CBKPAVCGuildHouseBase@@@std@@@3@$0A@@std@@@std@@KAAAPAU_Node@?$_Tree_nod@V?$_Tmap_traits@KPAVCGuildHouseBase@@U?$less@K@std@@V?$allocator@U?$pair@$$CBKPAVCGuildHouseBase@@@std@@@3@$0A@@std@@@2@PAU342@@Z
_TEXT	SEGMENT PARA USE32 PUBLIC 'CODE'
_TEXT	ENDS
;	COMDAT ?begin@?$_Tree@V?$_Tmap_traits@KPAVCGuildHouseBase@@U?$less@K@std@@V?$allocator@U?$pair@$$CBKPAVCGuildHouseBase@@@std@@@3@$0A@@std@@@std@@QAE?AViterator@12@XZ
_TEXT	SEGMENT PARA USE32 PUBLIC 'CODE'
_TEXT	ENDS
;	COMDAT ?size@?$_Tree@V?$_Tmap_traits@KPAVCGuildHouseBase@@U?$less@K@std@@V?$allocator@U?$pair@$$CBKPAVCGuildHouseBase@@@std@@@3@$0A@@std@@@std@@QBEIXZ
_TEXT	SEGMENT PARA USE32 PUBLIC 'CODE'
_TEXT	ENDS
;	COMDAT ?_Insert@?$_Tree@V?$_Tmap_traits@KPAVCGuildHouseBase@@U?$less@K@std@@V?$allocator@U?$pair@$$CBKPAVCGuildHouseBase@@@std@@@3@$0A@@std@@@std@@IAE?AViterator@12@_NPAU_Node@?$_Tree_nod@V?$_Tmap_traits@KPAVCGuildHouseBase@@U?$less@K@std@@V?$allocator@U?$pair@$$CBKPAVCGuildHouseBase@@@std@@@3@$0A@@std@@@2@ABU?$pair@$$CBKPAVCGuildHouseBase@@@2@@Z
_TEXT	SEGMENT PARA USE32 PUBLIC 'CODE'
_TEXT	ENDS
;	COMDAT ?_Root@?$_Tree@V?$_Tmap_traits@KPAVCGuildHouseBase@@U?$less@K@std@@V?$allocator@U?$pair@$$CBKPAVCGuildHouseBase@@@std@@@3@$0A@@std@@@std@@IAEAAPAU_Node@?$_Tree_nod@V?$_Tmap_traits@KPAVCGuildHouseBase@@U?$less@K@std@@V?$allocator@U?$pair@$$CBKPAVCGuildHouseBase@@@std@@@3@$0A@@std@@@2@XZ
_TEXT	SEGMENT PARA USE32 PUBLIC 'CODE'
_TEXT	ENDS
;	COMDAT ?_Kfn@?$_Tmap_traits@KPAVCGuildHouseBase@@U?$less@K@std@@V?$allocator@U?$pair@$$CBKPAVCGuildHouseBase@@@std@@@3@$0A@@std@@SAABKABU?$pair@$$CBKPAVCGuildHouseBase@@@2@@Z
_TEXT	SEGMENT PARA USE32 PUBLIC 'CODE'
_TEXT	ENDS
;	COMDAT ??0?$pair@Viterator@?$_Tree@V?$_Tmap_traits@KPAVCGuildHouseBase@@U?$less@K@std@@V?$allocator@U?$pair@$$CBKPAVCGuildHouseBase@@@std@@@3@$0A@@std@@@std@@_N@std@@QAE@ABViterator@?$_Tree@V?$_Tmap_traits@KPAVCGuildHouseBase@@U?$less@K@std@@V?$allocator@U?$pair@$$CBKPAVCGuildHouseBase@@@std@@@3@$0A@@std@@@1@AB_N@Z
_TEXT	SEGMENT PARA USE32 PUBLIC 'CODE'
_TEXT	ENDS
;	COMDAT ??0iterator@?$_Tree@V?$_Tmap_traits@KPAVCGuildHouseBase@@U?$less@K@std@@V?$allocator@U?$pair@$$CBKPAVCGuildHouseBase@@@std@@@3@$0A@@std@@@std@@QAE@PAU_Node@?$_Tree_nod@V?$_Tmap_traits@KPAVCGuildHouseBase@@U?$less@K@std@@V?$allocator@U?$pair@$$CBKPAVCGuildHouseBase@@@std@@@3@$0A@@std@@@2@@Z
_TEXT	SEGMENT PARA USE32 PUBLIC 'CODE'
_TEXT	ENDS
;	COMDAT ??Fiterator@?$_Tree@V?$_Tmap_traits@KPAVCGuildHouseBase@@U?$less@K@std@@V?$allocator@U?$pair@$$CBKPAVCGuildHouseBase@@@std@@@3@$0A@@std@@@std@@QAEAAV012@XZ
_TEXT	SEGMENT PARA USE32 PUBLIC 'CODE'
_TEXT	ENDS
;	COMDAT ??8const_iterator@?$_Tree@V?$_Tmap_traits@KPAVCGuildHouseBase@@U?$less@K@std@@V?$allocator@U?$pair@$$CBKPAVCGuildHouseBase@@@std@@@3@$0A@@std@@@std@@QBE_NABV012@@Z
_TEXT	SEGMENT PARA USE32 PUBLIC 'CODE'
_TEXT	ENDS
;	COMDAT ?_Mynode@const_iterator@?$_Tree@V?$_Tmap_traits@KPAVCGuildHouseBase@@U?$less@K@std@@V?$allocator@U?$pair@$$CBKPAVCGuildHouseBase@@@std@@@3@$0A@@std@@@std@@QBEPAU_Node@?$_Tree_nod@V?$_Tmap_traits@KPAVCGuildHouseBase@@U?$less@K@std@@V?$allocator@U?$pair@$$CBKPAVCGuildHouseBase@@@std@@@3@$0A@@std@@@3@XZ
_TEXT	SEGMENT PARA USE32 PUBLIC 'CODE'
_TEXT	ENDS
;	COMDAT ??Diterator@?$vector@PAU__JOINPLAYER@CGuildCombat@@V?$allocator@PAU__JOINPLAYER@CGuildCombat@@@std@@@std@@QBEAAPAU__JOINPLAYER@CGuildCombat@@XZ
_TEXT	SEGMENT PARA USE32 PUBLIC 'CODE'
_TEXT	ENDS
;	COMDAT ??Hiterator@?$vector@PAU__JOINPLAYER@CGuildCombat@@V?$allocator@PAU__JOINPLAYER@CGuildCombat@@@std@@@std@@QBE?AV012@H@Z
_TEXT	SEGMENT PARA USE32 PUBLIC 'CODE'
_TEXT	ENDS
;	COMDAT ??Diterator@?$vector@UGuildHouse_Furniture_Info@CGuildHouseBase@@V?$allocator@UGuildHouse_Furniture_Info@CGuildHouseBase@@@std@@@std@@QBEAAUGuildHouse_Furniture_Info@CGuildHouseBase@@XZ
_TEXT	SEGMENT PARA USE32 PUBLIC 'CODE'
_TEXT	ENDS
;	COMDAT ??Hiterator@?$vector@UGuildHouse_Furniture_Info@CGuildHouseBase@@V?$allocator@UGuildHouse_Furniture_Info@CGuildHouseBase@@@std@@@std@@QBE?AV012@H@Z
_TEXT	SEGMENT PARA USE32 PUBLIC 'CODE'
_TEXT	ENDS
;	COMDAT ??0?$allocator@H@std@@QAE@ABV01@@Z
_TEXT	SEGMENT PARA USE32 PUBLIC 'CODE'
_TEXT	ENDS
;	COMDAT ?deallocate@?$allocator@H@std@@QAEXPAHI@Z
_TEXT	SEGMENT PARA USE32 PUBLIC 'CODE'
_TEXT	ENDS
;	COMDAT ?allocate@?$allocator@H@std@@QAEPAHI@Z
_TEXT	SEGMENT PARA USE32 PUBLIC 'CODE'
_TEXT	ENDS
;	COMDAT ?_Myval@?$_Tree@V?$_Tmap_traits@KP8CDPLoginSrvr@@AEXAAVCAr@@KPAEK@ZU?$less@K@std@@V?$allocator@U?$pair@$$CBKP8CDPLoginSrvr@@AEXAAVCAr@@KPAEK@Z@std@@@4@$0A@@std@@@std@@KAAAU?$pair@$$CBKP8CDPLoginSrvr@@AEXAAVCAr@@KPAEK@Z@2@PAU_Node@?$_Tree_nod@V?$_Tmap_traits@KP8CDPLoginSrvr@@AEXAAVCAr@@KPAEK@ZU?$less@K@std@@V?$allocator@U?$pair@$$CBKP8CDPLoginSrvr@@AEXAAVCAr@@KPAEK@Z@std@@@4@$0A@@std@@@2@@Z
_TEXT	SEGMENT PARA USE32 PUBLIC 'CODE'
_TEXT	ENDS
;	COMDAT ?_Lbound@?$_Tree@V?$_Tmap_traits@KP8CDPLoginSrvr@@AEXAAVCAr@@KPAEK@ZU?$less@K@std@@V?$allocator@U?$pair@$$CBKP8CDPLoginSrvr@@AEXAAVCAr@@KPAEK@Z@std@@@4@$0A@@std@@@std@@IBEPAU_Node@?$_Tree_nod@V?$_Tmap_traits@KP8CDPLoginSrvr@@AEXAAVCAr@@KPAEK@ZU?$less@K@std@@V?$allocator@U?$pair@$$CBKP8CDPLoginSrvr@@AEXAAVCAr@@KPAEK@Z@std@@@4@$0A@@std@@@2@ABK@Z
_TEXT	SEGMENT PARA USE32 PUBLIC 'CODE'
_TEXT	ENDS
;	COMDAT ?_Kfn@?$_Tmap_traits@KP8CDPLoginSrvr@@AEXAAVCAr@@KPAEK@ZU?$less@K@std@@V?$allocator@U?$pair@$$CBKP8CDPLoginSrvr@@AEXAAVCAr@@KPAEK@Z@std@@@4@$0A@@std@@SAABKABU?$pair@$$CBKP8CDPLoginSrvr@@AEXAAVCAr@@KPAEK@Z@2@@Z
_TEXT	SEGMENT PARA USE32 PUBLIC 'CODE'
_TEXT	ENDS
;	COMDAT ??0const_iterator@?$_Tree@V?$_Tmap_traits@KP8CDPLoginSrvr@@AEXAAVCAr@@KPAEK@ZU?$less@K@std@@V?$allocator@U?$pair@$$CBKP8CDPLoginSrvr@@AEXAAVCAr@@KPAEK@Z@std@@@4@$0A@@std@@@std@@QAE@PAU_Node@?$_Tree_nod@V?$_Tmap_traits@KP8CDPLoginSrvr@@AEXAAVCAr@@KPAEK@ZU?$less@K@std@@V?$allocator@U?$pair@$$CBKP8CDPLoginSrvr@@AEXAAVCAr@@KPAEK@Z@std@@@4@$0A@@std@@@2@@Z
_TEXT	SEGMENT PARA USE32 PUBLIC 'CODE'
_TEXT	ENDS
;	COMDAT ??Dconst_iterator@?$_Tree@V?$_Tmap_traits@KP8CDPLoginSrvr@@AEXAAVCAr@@KPAEK@ZU?$less@K@std@@V?$allocator@U?$pair@$$CBKP8CDPLoginSrvr@@AEXAAVCAr@@KPAEK@Z@std@@@4@$0A@@std@@@std@@QBEABU?$pair@$$CBKP8CDPLoginSrvr@@AEXAAVCAr@@KPAEK@Z@2@XZ
_TEXT	SEGMENT PARA USE32 PUBLIC 'CODE'
_TEXT	ENDS
;	COMDAT ?_Myval@?$_Tree@V?$_Tmap_traits@KP8CDPCoreSrvr@@AEXAAVCAr@@PAEK@ZU?$less@K@std@@V?$allocator@U?$pair@$$CBKP8CDPCoreSrvr@@AEXAAVCAr@@PAEK@Z@std@@@4@$0A@@std@@@std@@KAAAU?$pair@$$CBKP8CDPCoreSrvr@@AEXAAVCAr@@PAEK@Z@2@PAU_Node@?$_Tree_nod@V?$_Tmap_traits@KP8CDPCoreSrvr@@AEXAAVCAr@@PAEK@ZU?$less@K@std@@V?$allocator@U?$pair@$$CBKP8CDPCoreSrvr@@AEXAAVCAr@@PAEK@Z@std@@@4@$0A@@std@@@2@@Z
_TEXT	SEGMENT PARA USE32 PUBLIC 'CODE'
_TEXT	ENDS
;	COMDAT ?_Lbound@?$_Tree@V?$_Tmap_traits@KP8CDPCoreSrvr@@AEXAAVCAr@@PAEK@ZU?$less@K@std@@V?$allocator@U?$pair@$$CBKP8CDPCoreSrvr@@AEXAAVCAr@@PAEK@Z@std@@@4@$0A@@std@@@std@@IBEPAU_Node@?$_Tree_nod@V?$_Tmap_traits@KP8CDPCoreSrvr@@AEXAAVCAr@@PAEK@ZU?$less@K@std@@V?$allocator@U?$pair@$$CBKP8CDPCoreSrvr@@AEXAAVCAr@@PAEK@Z@std@@@4@$0A@@std@@@2@ABK@Z
_TEXT	SEGMENT PARA USE32 PUBLIC 'CODE'
_TEXT	ENDS
;	COMDAT ?_Kfn@?$_Tmap_traits@KP8CDPCoreSrvr@@AEXAAVCAr@@PAEK@ZU?$less@K@std@@V?$allocator@U?$pair@$$CBKP8CDPCoreSrvr@@AEXAAVCAr@@PAEK@Z@std@@@4@$0A@@std@@SAABKABU?$pair@$$CBKP8CDPCoreSrvr@@AEXAAVCAr@@PAEK@Z@2@@Z
_TEXT	SEGMENT PARA USE32 PUBLIC 'CODE'
_TEXT	ENDS
;	COMDAT ??0const_iterator@?$_Tree@V?$_Tmap_traits@KP8CDPCoreSrvr@@AEXAAVCAr@@PAEK@ZU?$less@K@std@@V?$allocator@U?$pair@$$CBKP8CDPCoreSrvr@@AEXAAVCAr@@PAEK@Z@std@@@4@$0A@@std@@@std@@QAE@PAU_Node@?$_Tree_nod@V?$_Tmap_traits@KP8CDPCoreSrvr@@AEXAAVCAr@@PAEK@ZU?$less@K@std@@V?$allocator@U?$pair@$$CBKP8CDPCoreSrvr@@AEXAAVCAr@@PAEK@Z@std@@@4@$0A@@std@@@2@@Z
_TEXT	SEGMENT PARA USE32 PUBLIC 'CODE'
_TEXT	ENDS
;	COMDAT ??Dconst_iterator@?$_Tree@V?$_Tmap_traits@KP8CDPCoreSrvr@@AEXAAVCAr@@PAEK@ZU?$less@K@std@@V?$allocator@U?$pair@$$CBKP8CDPCoreSrvr@@AEXAAVCAr@@PAEK@Z@std@@@4@$0A@@std@@@std@@QBEABU?$pair@$$CBKP8CDPCoreSrvr@@AEXAAVCAr@@PAEK@Z@2@XZ
_TEXT	SEGMENT PARA USE32 PUBLIC 'CODE'
_TEXT	ENDS
;	COMDAT ?max_size@?$vector@MV?$allocator@M@std@@@std@@QBEIXZ
_TEXT	SEGMENT PARA USE32 PUBLIC 'CODE'
_TEXT	ENDS
;	COMDAT ?_Destroy@?$vector@MV?$allocator@M@std@@@std@@IAEXPAM0@Z
_TEXT	SEGMENT PARA USE32 PUBLIC 'CODE'
_TEXT	ENDS
;	COMDAT ?_Xlen@?$vector@MV?$allocator@M@std@@@std@@IBEXXZ
_TEXT	SEGMENT PARA USE32 PUBLIC 'CODE'
_TEXT	ENDS
;	COMDAT ??0?$allocator@M@std@@QAE@ABV01@@Z
_TEXT	SEGMENT PARA USE32 PUBLIC 'CODE'
_TEXT	ENDS
;	COMDAT ?deallocate@?$allocator@M@std@@QAEXPAMI@Z
_TEXT	SEGMENT PARA USE32 PUBLIC 'CODE'
_TEXT	ENDS
;	COMDAT ?allocate@?$allocator@M@std@@QAEPAMI@Z
_TEXT	SEGMENT PARA USE32 PUBLIC 'CODE'
_TEXT	ENDS
;	COMDAT ?max_size@?$vector@HV?$allocator@H@std@@@std@@QBEIXZ
_TEXT	SEGMENT PARA USE32 PUBLIC 'CODE'
_TEXT	ENDS
;	COMDAT ?_Destroy@?$vector@HV?$allocator@H@std@@@std@@IAEXPAH0@Z
_TEXT	SEGMENT PARA USE32 PUBLIC 'CODE'
_TEXT	ENDS
;	COMDAT ?_Xlen@?$vector@HV?$allocator@H@std@@@std@@IBEXXZ
_TEXT	SEGMENT PARA USE32 PUBLIC 'CODE'
_TEXT	ENDS
;	COMDAT ?_Myval@?$_Tree@V?$_Tmap_traits@KP8CDPTrans@@AEXAAVCAr@@KKKPAEK@ZU?$less@K@std@@V?$allocator@U?$pair@$$CBKP8CDPTrans@@AEXAAVCAr@@KKKPAEK@Z@std@@@4@$0A@@std@@@std@@KAAAU?$pair@$$CBKP8CDPTrans@@AEXAAVCAr@@KKKPAEK@Z@2@PAU_Node@?$_Tree_nod@V?$_Tmap_traits@KP8CDPTrans@@AEXAAVCAr@@KKKPAEK@ZU?$less@K@std@@V?$allocator@U?$pair@$$CBKP8CDPTrans@@AEXAAVCAr@@KKKPAEK@Z@std@@@4@$0A@@std@@@2@@Z
_TEXT	SEGMENT PARA USE32 PUBLIC 'CODE'
_TEXT	ENDS
;	COMDAT ?_Lbound@?$_Tree@V?$_Tmap_traits@KP8CDPTrans@@AEXAAVCAr@@KKKPAEK@ZU?$less@K@std@@V?$allocator@U?$pair@$$CBKP8CDPTrans@@AEXAAVCAr@@KKKPAEK@Z@std@@@4@$0A@@std@@@std@@IBEPAU_Node@?$_Tree_nod@V?$_Tmap_traits@KP8CDPTrans@@AEXAAVCAr@@KKKPAEK@ZU?$less@K@std@@V?$allocator@U?$pair@$$CBKP8CDPTrans@@AEXAAVCAr@@KKKPAEK@Z@std@@@4@$0A@@std@@@2@ABK@Z
_TEXT	SEGMENT PARA USE32 PUBLIC 'CODE'
_TEXT	ENDS
;	COMDAT ?_Kfn@?$_Tmap_traits@KP8CDPTrans@@AEXAAVCAr@@KKKPAEK@ZU?$less@K@std@@V?$allocator@U?$pair@$$CBKP8CDPTrans@@AEXAAVCAr@@KKKPAEK@Z@std@@@4@$0A@@std@@SAABKABU?$pair@$$CBKP8CDPTrans@@AEXAAVCAr@@KKKPAEK@Z@2@@Z
_TEXT	SEGMENT PARA USE32 PUBLIC 'CODE'
_TEXT	ENDS
;	COMDAT ??0const_iterator@?$_Tree@V?$_Tmap_traits@KP8CDPTrans@@AEXAAVCAr@@KKKPAEK@ZU?$less@K@std@@V?$allocator@U?$pair@$$CBKP8CDPTrans@@AEXAAVCAr@@KKKPAEK@Z@std@@@4@$0A@@std@@@std@@QAE@PAU_Node@?$_Tree_nod@V?$_Tmap_traits@KP8CDPTrans@@AEXAAVCAr@@KKKPAEK@ZU?$less@K@std@@V?$allocator@U?$pair@$$CBKP8CDPTrans@@AEXAAVCAr@@KKKPAEK@Z@std@@@4@$0A@@std@@@2@@Z
_TEXT	SEGMENT PARA USE32 PUBLIC 'CODE'
_TEXT	ENDS
;	COMDAT ??Dconst_iterator@?$_Tree@V?$_Tmap_traits@KP8CDPTrans@@AEXAAVCAr@@KKKPAEK@ZU?$less@K@std@@V?$allocator@U?$pair@$$CBKP8CDPTrans@@AEXAAVCAr@@KKKPAEK@Z@std@@@4@$0A@@std@@@std@@QBEABU?$pair@$$CBKP8CDPTrans@@AEXAAVCAr@@KKKPAEK@Z@2@XZ
_TEXT	SEGMENT PARA USE32 PUBLIC 'CODE'
_TEXT	ENDS
;	COMDAT ?_Destroy@?$vector@PAU__JOINPLAYER@CGuildCombat@@V?$allocator@PAU__JOINPLAYER@CGuildCombat@@@std@@@std@@IAEXPAPAU__JOINPLAYER@CGuildCombat@@0@Z
_TEXT	SEGMENT PARA USE32 PUBLIC 'CODE'
_TEXT	ENDS
;	COMDAT ?deallocate@?$allocator@PAU__JOINPLAYER@CGuildCombat@@@std@@QAEXPAPAU__JOINPLAYER@CGuildCombat@@I@Z
_TEXT	SEGMENT PARA USE32 PUBLIC 'CODE'
_TEXT	ENDS
;	COMDAT ?_Color@?$_Tree@V?$_Tmap_traits@KPAVCGuildHouseBase@@U?$less@K@std@@V?$allocator@U?$pair@$$CBKPAVCGuildHouseBase@@@std@@@3@$0A@@std@@@std@@KAAADPAU_Node@?$_Tree_nod@V?$_Tmap_traits@KPAVCGuildHouseBase@@U?$less@K@std@@V?$allocator@U?$pair@$$CBKPAVCGuildHouseBase@@@std@@@3@$0A@@std@@@2@@Z
_TEXT	SEGMENT PARA USE32 PUBLIC 'CODE'
_TEXT	ENDS
;	COMDAT ?_Parent@?$_Tree@V?$_Tmap_traits@KPAVCGuildHouseBase@@U?$less@K@std@@V?$allocator@U?$pair@$$CBKPAVCGuildHouseBase@@@std@@@3@$0A@@std@@@std@@KAAAPAU_Node@?$_Tree_nod@V?$_Tmap_traits@KPAVCGuildHouseBase@@U?$less@K@std@@V?$allocator@U?$pair@$$CBKPAVCGuildHouseBase@@@std@@@3@$0A@@std@@@2@PAU342@@Z
_TEXT	SEGMENT PARA USE32 PUBLIC 'CODE'
_TEXT	ENDS
;	COMDAT ?_Myval@?$_Tree@V?$_Tmap_traits@KPAVCGuildHouseBase@@U?$less@K@std@@V?$allocator@U?$pair@$$CBKPAVCGuildHouseBase@@@std@@@3@$0A@@std@@@std@@KAAAU?$pair@$$CBKPAVCGuildHouseBase@@@2@PAU_Node@?$_Tree_nod@V?$_Tmap_traits@KPAVCGuildHouseBase@@U?$less@K@std@@V?$allocator@U?$pair@$$CBKPAVCGuildHouseBase@@@std@@@3@$0A@@std@@@2@@Z
_TEXT	SEGMENT PARA USE32 PUBLIC 'CODE'
_TEXT	ENDS
;	COMDAT ?max_size@?$_Tree@V?$_Tmap_traits@KPAVCGuildHouseBase@@U?$less@K@std@@V?$allocator@U?$pair@$$CBKPAVCGuildHouseBase@@@std@@@3@$0A@@std@@@std@@QBEIXZ
_TEXT	SEGMENT PARA USE32 PUBLIC 'CODE'
_TEXT	ENDS
;	COMDAT ?_Lmost@?$_Tree@V?$_Tmap_traits@KPAVCGuildHouseBase@@U?$less@K@std@@V?$allocator@U?$pair@$$CBKPAVCGuildHouseBase@@@std@@@3@$0A@@std@@@std@@IAEAAPAU_Node@?$_Tree_nod@V?$_Tmap_traits@KPAVCGuildHouseBase@@U?$less@K@std@@V?$allocator@U?$pair@$$CBKPAVCGuildHouseBase@@@std@@@3@$0A@@std@@@2@XZ
_TEXT	SEGMENT PARA USE32 PUBLIC 'CODE'
_TEXT	ENDS
;	COMDAT ?_Lrotate@?$_Tree@V?$_Tmap_traits@KPAVCGuildHouseBase@@U?$less@K@std@@V?$allocator@U?$pair@$$CBKPAVCGuildHouseBase@@@std@@@3@$0A@@std@@@std@@IAEXPAU_Node@?$_Tree_nod@V?$_Tmap_traits@KPAVCGuildHouseBase@@U?$less@K@std@@V?$allocator@U?$pair@$$CBKPAVCGuildHouseBase@@@std@@@3@$0A@@std@@@2@@Z
_TEXT	SEGMENT PARA USE32 PUBLIC 'CODE'
_TEXT	ENDS
;	COMDAT ?_Rmost@?$_Tree@V?$_Tmap_traits@KPAVCGuildHouseBase@@U?$less@K@std@@V?$allocator@U?$pair@$$CBKPAVCGuildHouseBase@@@std@@@3@$0A@@std@@@std@@IAEAAPAU_Node@?$_Tree_nod@V?$_Tmap_traits@KPAVCGuildHouseBase@@U?$less@K@std@@V?$allocator@U?$pair@$$CBKPAVCGuildHouseBase@@@std@@@3@$0A@@std@@@2@XZ
_TEXT	SEGMENT PARA USE32 PUBLIC 'CODE'
_TEXT	ENDS
;	COMDAT ?_Rrotate@?$_Tree@V?$_Tmap_traits@KPAVCGuildHouseBase@@U?$less@K@std@@V?$allocator@U?$pair@$$CBKPAVCGuildHouseBase@@@std@@@3@$0A@@std@@@std@@IAEXPAU_Node@?$_Tree_nod@V?$_Tmap_traits@KPAVCGuildHouseBase@@U?$less@K@std@@V?$allocator@U?$pair@$$CBKPAVCGuildHouseBase@@@std@@@3@$0A@@std@@@2@@Z
_TEXT	SEGMENT PARA USE32 PUBLIC 'CODE'
_TEXT	ENDS
;	COMDAT ?_Buynode@?$_Tree@V?$_Tmap_traits@KPAVCGuildHouseBase@@U?$less@K@std@@V?$allocator@U?$pair@$$CBKPAVCGuildHouseBase@@@std@@@3@$0A@@std@@@std@@IAEPAU_Node@?$_Tree_nod@V?$_Tmap_traits@KPAVCGuildHouseBase@@U?$less@K@std@@V?$allocator@U?$pair@$$CBKPAVCGuildHouseBase@@@std@@@3@$0A@@std@@@2@PAU342@00ABU?$pair@$$CBKPAVCGuildHouseBase@@@2@D@Z
_TEXT	SEGMENT PARA USE32 PUBLIC 'CODE'
_TEXT	ENDS
;	COMDAT ??0const_iterator@?$_Tree@V?$_Tmap_traits@KPAVCGuildHouseBase@@U?$less@K@std@@V?$allocator@U?$pair@$$CBKPAVCGuildHouseBase@@@std@@@3@$0A@@std@@@std@@QAE@PAU_Node@?$_Tree_nod@V?$_Tmap_traits@KPAVCGuildHouseBase@@U?$less@K@std@@V?$allocator@U?$pair@$$CBKPAVCGuildHouseBase@@@std@@@3@$0A@@std@@@2@@Z
_TEXT	SEGMENT PARA USE32 PUBLIC 'CODE'
_TEXT	ENDS
;	COMDAT ??Fconst_iterator@?$_Tree@V?$_Tmap_traits@KPAVCGuildHouseBase@@U?$less@K@std@@V?$allocator@U?$pair@$$CBKPAVCGuildHouseBase@@@std@@@3@$0A@@std@@@std@@QAEAAV012@XZ
_TEXT	SEGMENT PARA USE32 PUBLIC 'CODE'
_TEXT	ENDS
;	COMDAT ??0iterator@?$vector@PAU__JOINPLAYER@CGuildCombat@@V?$allocator@PAU__JOINPLAYER@CGuildCombat@@@std@@@std@@QAE@PAPAU__JOINPLAYER@CGuildCombat@@@Z
_TEXT	SEGMENT PARA USE32 PUBLIC 'CODE'
_TEXT	ENDS
;	COMDAT ??Yiterator@?$vector@PAU__JOINPLAYER@CGuildCombat@@V?$allocator@PAU__JOINPLAYER@CGuildCombat@@@std@@@std@@QAEAAV012@H@Z
_TEXT	SEGMENT PARA USE32 PUBLIC 'CODE'
_TEXT	ENDS
;	COMDAT ??Dconst_iterator@?$vector@PAU__JOINPLAYER@CGuildCombat@@V?$allocator@PAU__JOINPLAYER@CGuildCombat@@@std@@@std@@QBEABQAU__JOINPLAYER@CGuildCombat@@XZ
_TEXT	SEGMENT PARA USE32 PUBLIC 'CODE'
_TEXT	ENDS
;	COMDAT ??0iterator@?$vector@UGuildHouse_Furniture_Info@CGuildHouseBase@@V?$allocator@UGuildHouse_Furniture_Info@CGuildHouseBase@@@std@@@std@@QAE@PAUGuildHouse_Furniture_Info@CGuildHouseBase@@@Z
_TEXT	SEGMENT PARA USE32 PUBLIC 'CODE'
_TEXT	ENDS
;	COMDAT ??Yiterator@?$vector@UGuildHouse_Furniture_Info@CGuildHouseBase@@V?$allocator@UGuildHouse_Furniture_Info@CGuildHouseBase@@@std@@@std@@QAEAAV012@H@Z
_TEXT	SEGMENT PARA USE32 PUBLIC 'CODE'
_TEXT	ENDS
;	COMDAT ??Dconst_iterator@?$vector@UGuildHouse_Furniture_Info@CGuildHouseBase@@V?$allocator@UGuildHouse_Furniture_Info@CGuildHouseBase@@@std@@@std@@QBEABUGuildHouse_Furniture_Info@CGuildHouseBase@@XZ
_TEXT	SEGMENT PARA USE32 PUBLIC 'CODE'
_TEXT	ENDS
;	COMDAT ?max_size@?$allocator@H@std@@QBEIXZ
_TEXT	SEGMENT PARA USE32 PUBLIC 'CODE'
_TEXT	ENDS
;	COMDAT ?_Isnil@?$_Tree@V?$_Tmap_traits@KP8CDPLoginSrvr@@AEXAAVCAr@@KPAEK@ZU?$less@K@std@@V?$allocator@U?$pair@$$CBKP8CDPLoginSrvr@@AEXAAVCAr@@KPAEK@Z@std@@@4@$0A@@std@@@std@@KAAADPAU_Node@?$_Tree_nod@V?$_Tmap_traits@KP8CDPLoginSrvr@@AEXAAVCAr@@KPAEK@ZU?$less@K@std@@V?$allocator@U?$pair@$$CBKP8CDPLoginSrvr@@AEXAAVCAr@@KPAEK@Z@std@@@4@$0A@@std@@@2@@Z
_TEXT	SEGMENT PARA USE32 PUBLIC 'CODE'
_TEXT	ENDS
;	COMDAT ?_Left@?$_Tree@V?$_Tmap_traits@KP8CDPLoginSrvr@@AEXAAVCAr@@KPAEK@ZU?$less@K@std@@V?$allocator@U?$pair@$$CBKP8CDPLoginSrvr@@AEXAAVCAr@@KPAEK@Z@std@@@4@$0A@@std@@@std@@KAAAPAU_Node@?$_Tree_nod@V?$_Tmap_traits@KP8CDPLoginSrvr@@AEXAAVCAr@@KPAEK@ZU?$less@K@std@@V?$allocator@U?$pair@$$CBKP8CDPLoginSrvr@@AEXAAVCAr@@KPAEK@Z@std@@@4@$0A@@std@@@2@PAU342@@Z
_TEXT	SEGMENT PARA USE32 PUBLIC 'CODE'
_TEXT	ENDS
;	COMDAT ?_Right@?$_Tree@V?$_Tmap_traits@KP8CDPLoginSrvr@@AEXAAVCAr@@KPAEK@ZU?$less@K@std@@V?$allocator@U?$pair@$$CBKP8CDPLoginSrvr@@AEXAAVCAr@@KPAEK@Z@std@@@4@$0A@@std@@@std@@KAAAPAU_Node@?$_Tree_nod@V?$_Tmap_traits@KP8CDPLoginSrvr@@AEXAAVCAr@@KPAEK@ZU?$less@K@std@@V?$allocator@U?$pair@$$CBKP8CDPLoginSrvr@@AEXAAVCAr@@KPAEK@Z@std@@@4@$0A@@std@@@2@PAU342@@Z
_TEXT	SEGMENT PARA USE32 PUBLIC 'CODE'
_TEXT	ENDS
;	COMDAT ?_Root@?$_Tree@V?$_Tmap_traits@KP8CDPLoginSrvr@@AEXAAVCAr@@KPAEK@ZU?$less@K@std@@V?$allocator@U?$pair@$$CBKP8CDPLoginSrvr@@AEXAAVCAr@@KPAEK@Z@std@@@4@$0A@@std@@@std@@IBEAAPAU_Node@?$_Tree_nod@V?$_Tmap_traits@KP8CDPLoginSrvr@@AEXAAVCAr@@KPAEK@ZU?$less@K@std@@V?$allocator@U?$pair@$$CBKP8CDPLoginSrvr@@AEXAAVCAr@@KPAEK@Z@std@@@4@$0A@@std@@@2@XZ
_TEXT	SEGMENT PARA USE32 PUBLIC 'CODE'
_TEXT	ENDS
;	COMDAT ?_Isnil@?$_Tree@V?$_Tmap_traits@KP8CDPCoreSrvr@@AEXAAVCAr@@PAEK@ZU?$less@K@std@@V?$allocator@U?$pair@$$CBKP8CDPCoreSrvr@@AEXAAVCAr@@PAEK@Z@std@@@4@$0A@@std@@@std@@KAAADPAU_Node@?$_Tree_nod@V?$_Tmap_traits@KP8CDPCoreSrvr@@AEXAAVCAr@@PAEK@ZU?$less@K@std@@V?$allocator@U?$pair@$$CBKP8CDPCoreSrvr@@AEXAAVCAr@@PAEK@Z@std@@@4@$0A@@std@@@2@@Z
_TEXT	SEGMENT PARA USE32 PUBLIC 'CODE'
_TEXT	ENDS
;	COMDAT ?_Left@?$_Tree@V?$_Tmap_traits@KP8CDPCoreSrvr@@AEXAAVCAr@@PAEK@ZU?$less@K@std@@V?$allocator@U?$pair@$$CBKP8CDPCoreSrvr@@AEXAAVCAr@@PAEK@Z@std@@@4@$0A@@std@@@std@@KAAAPAU_Node@?$_Tree_nod@V?$_Tmap_traits@KP8CDPCoreSrvr@@AEXAAVCAr@@PAEK@ZU?$less@K@std@@V?$allocator@U?$pair@$$CBKP8CDPCoreSrvr@@AEXAAVCAr@@PAEK@Z@std@@@4@$0A@@std@@@2@PAU342@@Z
_TEXT	SEGMENT PARA USE32 PUBLIC 'CODE'
_TEXT	ENDS
;	COMDAT ?_Right@?$_Tree@V?$_Tmap_traits@KP8CDPCoreSrvr@@AEXAAVCAr@@PAEK@ZU?$less@K@std@@V?$allocator@U?$pair@$$CBKP8CDPCoreSrvr@@AEXAAVCAr@@PAEK@Z@std@@@4@$0A@@std@@@std@@KAAAPAU_Node@?$_Tree_nod@V?$_Tmap_traits@KP8CDPCoreSrvr@@AEXAAVCAr@@PAEK@ZU?$less@K@std@@V?$allocator@U?$pair@$$CBKP8CDPCoreSrvr@@AEXAAVCAr@@PAEK@Z@std@@@4@$0A@@std@@@2@PAU342@@Z
_TEXT	SEGMENT PARA USE32 PUBLIC 'CODE'
_TEXT	ENDS
;	COMDAT ?_Root@?$_Tree@V?$_Tmap_traits@KP8CDPCoreSrvr@@AEXAAVCAr@@PAEK@ZU?$less@K@std@@V?$allocator@U?$pair@$$CBKP8CDPCoreSrvr@@AEXAAVCAr@@PAEK@Z@std@@@4@$0A@@std@@@std@@IBEAAPAU_Node@?$_Tree_nod@V?$_Tmap_traits@KP8CDPCoreSrvr@@AEXAAVCAr@@PAEK@ZU?$less@K@std@@V?$allocator@U?$pair@$$CBKP8CDPCoreSrvr@@AEXAAVCAr@@PAEK@Z@std@@@4@$0A@@std@@@2@XZ
_TEXT	SEGMENT PARA USE32 PUBLIC 'CODE'
_TEXT	ENDS
;	COMDAT ?max_size@?$allocator@M@std@@QBEIXZ
_TEXT	SEGMENT PARA USE32 PUBLIC 'CODE'
_TEXT	ENDS
;	COMDAT ?_Isnil@?$_Tree@V?$_Tmap_traits@KP8CDPTrans@@AEXAAVCAr@@KKKPAEK@ZU?$less@K@std@@V?$allocator@U?$pair@$$CBKP8CDPTrans@@AEXAAVCAr@@KKKPAEK@Z@std@@@4@$0A@@std@@@std@@KAAADPAU_Node@?$_Tree_nod@V?$_Tmap_traits@KP8CDPTrans@@AEXAAVCAr@@KKKPAEK@ZU?$less@K@std@@V?$allocator@U?$pair@$$CBKP8CDPTrans@@AEXAAVCAr@@KKKPAEK@Z@std@@@4@$0A@@std@@@2@@Z
_TEXT	SEGMENT PARA USE32 PUBLIC 'CODE'
_TEXT	ENDS
;	COMDAT ?_Left@?$_Tree@V?$_Tmap_traits@KP8CDPTrans@@AEXAAVCAr@@KKKPAEK@ZU?$less@K@std@@V?$allocator@U?$pair@$$CBKP8CDPTrans@@AEXAAVCAr@@KKKPAEK@Z@std@@@4@$0A@@std@@@std@@KAAAPAU_Node@?$_Tree_nod@V?$_Tmap_traits@KP8CDPTrans@@AEXAAVCAr@@KKKPAEK@ZU?$less@K@std@@V?$allocator@U?$pair@$$CBKP8CDPTrans@@AEXAAVCAr@@KKKPAEK@Z@std@@@4@$0A@@std@@@2@PAU342@@Z
_TEXT	SEGMENT PARA USE32 PUBLIC 'CODE'
_TEXT	ENDS
;	COMDAT ?_Right@?$_Tree@V?$_Tmap_traits@KP8CDPTrans@@AEXAAVCAr@@KKKPAEK@ZU?$less@K@std@@V?$allocator@U?$pair@$$CBKP8CDPTrans@@AEXAAVCAr@@KKKPAEK@Z@std@@@4@$0A@@std@@@std@@KAAAPAU_Node@?$_Tree_nod@V?$_Tmap_traits@KP8CDPTrans@@AEXAAVCAr@@KKKPAEK@ZU?$less@K@std@@V?$allocator@U?$pair@$$CBKP8CDPTrans@@AEXAAVCAr@@KKKPAEK@Z@std@@@4@$0A@@std@@@2@PAU342@@Z
_TEXT	SEGMENT PARA USE32 PUBLIC 'CODE'
_TEXT	ENDS
;	COMDAT ?_Root@?$_Tree@V?$_Tmap_traits@KP8CDPTrans@@AEXAAVCAr@@KKKPAEK@ZU?$less@K@std@@V?$allocator@U?$pair@$$CBKP8CDPTrans@@AEXAAVCAr@@KKKPAEK@Z@std@@@4@$0A@@std@@@std@@IBEAAPAU_Node@?$_Tree_nod@V?$_Tmap_traits@KP8CDPTrans@@AEXAAVCAr@@KKKPAEK@ZU?$less@K@std@@V?$allocator@U?$pair@$$CBKP8CDPTrans@@AEXAAVCAr@@KKKPAEK@Z@std@@@4@$0A@@std@@@2@XZ
_TEXT	SEGMENT PARA USE32 PUBLIC 'CODE'
_TEXT	ENDS
;	COMDAT ?max_size@?$allocator@U?$pair@$$CBKPAVCGuildHouseBase@@@std@@@std@@QBEIXZ
_TEXT	SEGMENT PARA USE32 PUBLIC 'CODE'
_TEXT	ENDS
;	COMDAT ?deallocate@?$allocator@U_Node@?$_Tree_nod@V?$_Tmap_traits@KPAVCGuildHouseBase@@U?$less@K@std@@V?$allocator@U?$pair@$$CBKPAVCGuildHouseBase@@@std@@@3@$0A@@std@@@std@@@std@@QAEXPAU_Node@?$_Tree_nod@V?$_Tmap_traits@KPAVCGuildHouseBase@@U?$less@K@std@@V?$allocator@U?$pair@$$CBKPAVCGuildHouseBase@@@std@@@3@$0A@@std@@@2@I@Z
_TEXT	SEGMENT PARA USE32 PUBLIC 'CODE'
_TEXT	ENDS
;	COMDAT ?allocate@?$allocator@U_Node@?$_Tree_nod@V?$_Tmap_traits@KPAVCGuildHouseBase@@U?$less@K@std@@V?$allocator@U?$pair@$$CBKPAVCGuildHouseBase@@@std@@@3@$0A@@std@@@std@@@std@@QAEPAU_Node@?$_Tree_nod@V?$_Tmap_traits@KPAVCGuildHouseBase@@U?$less@K@std@@V?$allocator@U?$pair@$$CBKPAVCGuildHouseBase@@@std@@@3@$0A@@std@@@2@I@Z
_TEXT	SEGMENT PARA USE32 PUBLIC 'CODE'
_TEXT	ENDS
;	COMDAT ?_Dec@const_iterator@?$_Tree@V?$_Tmap_traits@KPAVCGuildHouseBase@@U?$less@K@std@@V?$allocator@U?$pair@$$CBKPAVCGuildHouseBase@@@std@@@3@$0A@@std@@@std@@QAEXXZ
_TEXT	SEGMENT PARA USE32 PUBLIC 'CODE'
_TEXT	ENDS
;	COMDAT ??0const_iterator@?$vector@PAU__JOINPLAYER@CGuildCombat@@V?$allocator@PAU__JOINPLAYER@CGuildCombat@@@std@@@std@@QAE@PAPAU__JOINPLAYER@CGuildCombat@@@Z
_TEXT	SEGMENT PARA USE32 PUBLIC 'CODE'
_TEXT	ENDS
;	COMDAT ??0const_iterator@?$vector@UGuildHouse_Furniture_Info@CGuildHouseBase@@V?$allocator@UGuildHouse_Furniture_Info@CGuildHouseBase@@@std@@@std@@QAE@PAUGuildHouse_Furniture_Info@CGuildHouseBase@@@Z
_TEXT	SEGMENT PARA USE32 PUBLIC 'CODE'
_TEXT	ENDS
;	COMDAT ??0_Node@?$_Tree_nod@V?$_Tmap_traits@KPAVCGuildHouseBase@@U?$less@K@std@@V?$allocator@U?$pair@$$CBKPAVCGuildHouseBase@@@std@@@3@$0A@@std@@@std@@QAE@PAU012@00ABU?$pair@$$CBKPAVCGuildHouseBase@@@2@D@Z
_TEXT	SEGMENT PARA USE32 PUBLIC 'CODE'
_TEXT	ENDS
;	COMDAT ?_Parent@?$_Tree@V?$_Tmap_traits@KP8CDPLoginSrvr@@AEXAAVCAr@@KPAEK@ZU?$less@K@std@@V?$allocator@U?$pair@$$CBKP8CDPLoginSrvr@@AEXAAVCAr@@KPAEK@Z@std@@@4@$0A@@std@@@std@@KAAAPAU_Node@?$_Tree_nod@V?$_Tmap_traits@KP8CDPLoginSrvr@@AEXAAVCAr@@KPAEK@ZU?$less@K@std@@V?$allocator@U?$pair@$$CBKP8CDPLoginSrvr@@AEXAAVCAr@@KPAEK@Z@std@@@4@$0A@@std@@@2@PAU342@@Z
_TEXT	SEGMENT PARA USE32 PUBLIC 'CODE'
_TEXT	ENDS
;	COMDAT ?_Parent@?$_Tree@V?$_Tmap_traits@KP8CDPCoreSrvr@@AEXAAVCAr@@PAEK@ZU?$less@K@std@@V?$allocator@U?$pair@$$CBKP8CDPCoreSrvr@@AEXAAVCAr@@PAEK@Z@std@@@4@$0A@@std@@@std@@KAAAPAU_Node@?$_Tree_nod@V?$_Tmap_traits@KP8CDPCoreSrvr@@AEXAAVCAr@@PAEK@ZU?$less@K@std@@V?$allocator@U?$pair@$$CBKP8CDPCoreSrvr@@AEXAAVCAr@@PAEK@Z@std@@@4@$0A@@std@@@2@PAU342@@Z
_TEXT	SEGMENT PARA USE32 PUBLIC 'CODE'
_TEXT	ENDS
;	COMDAT ?_Parent@?$_Tree@V?$_Tmap_traits@KP8CDPTrans@@AEXAAVCAr@@KKKPAEK@ZU?$less@K@std@@V?$allocator@U?$pair@$$CBKP8CDPTrans@@AEXAAVCAr@@KKKPAEK@Z@std@@@4@$0A@@std@@@std@@KAAAPAU_Node@?$_Tree_nod@V?$_Tmap_traits@KP8CDPTrans@@AEXAAVCAr@@KKKPAEK@ZU?$less@K@std@@V?$allocator@U?$pair@$$CBKP8CDPTrans@@AEXAAVCAr@@KKKPAEK@Z@std@@@4@$0A@@std@@@2@PAU342@@Z
_TEXT	SEGMENT PARA USE32 PUBLIC 'CODE'
_TEXT	ENDS
;	COMDAT ?_Max@?$_Tree@V?$_Tmap_traits@KPAVCGuildHouseBase@@U?$less@K@std@@V?$allocator@U?$pair@$$CBKPAVCGuildHouseBase@@@std@@@3@$0A@@std@@@std@@KAPAU_Node@?$_Tree_nod@V?$_Tmap_traits@KPAVCGuildHouseBase@@U?$less@K@std@@V?$allocator@U?$pair@$$CBKPAVCGuildHouseBase@@@std@@@3@$0A@@std@@@2@PAU342@@Z
_TEXT	SEGMENT PARA USE32 PUBLIC 'CODE'
_TEXT	ENDS
;	COMDAT ??$_Iter_cat@Viterator@?$_Tree@V?$_Tmap_traits@KU_Friend@@U?$less@K@std@@V?$allocator@U?$pair@$$CBKU_Friend@@@std@@@3@$0A@@std@@@std@@@std@@YA?AUbidirectional_iterator_tag@0@ABViterator@?$_Tree@V?$_Tmap_traits@KU_Friend@@U?$less@K@std@@V?$allocator@U?$pair@$$CBKU_Friend@@@std@@@3@$0A@@std@@@0@@Z
_TEXT	SEGMENT PARA USE32 PUBLIC 'CODE'
_TEXT	ENDS
;	COMDAT ??$_Distance2@Viterator@?$_Tree@V?$_Tmap_traits@KU_Friend@@U?$less@K@std@@V?$allocator@U?$pair@$$CBKU_Friend@@@std@@@3@$0A@@std@@@std@@I@std@@YAXViterator@?$_Tree@V?$_Tmap_traits@KU_Friend@@U?$less@K@std@@V?$allocator@U?$pair@$$CBKU_Friend@@@std@@@3@$0A@@std@@@0@0AAIUbidirectional_iterator_tag@0@@Z
_TEXT	SEGMENT PARA USE32 PUBLIC 'CODE'
_TEXT	ENDS
;	COMDAT ??$_Copy_opt@PAJPAJ@std@@YAPAJPAJ00U_Scalar_ptr_iterator_tag@0@@Z
_TEXT	SEGMENT PARA USE32 PUBLIC 'CODE'
_TEXT	ENDS
;	COMDAT ??$_Uninitialized_copy@PAJPAJV?$allocator@J@std@@@std@@YAPAJPAJ00AAV?$allocator@J@0@@Z
_TEXT	SEGMENT PARA USE32 PUBLIC 'CODE'
_TEXT	ENDS
;	COMDAT ??$_Copy_backward_opt@PAJPAJ@std@@YAPAJPAJ00U_Scalar_ptr_iterator_tag@0@@Z
_TEXT	SEGMENT PARA USE32 PUBLIC 'CODE'
_TEXT	ENDS
;	COMDAT ??$_Ptr_cat@PAUtagDROPITEM@@PAU1@@std@@YA?AU_Nonscalar_ptr_iterator_tag@0@AAPAUtagDROPITEM@@0@Z
_TEXT	SEGMENT PARA USE32 PUBLIC 'CODE'
_TEXT	ENDS
;	COMDAT ??$_Destroy_range@UtagDROPITEM@@V?$allocator@UtagDROPITEM@@@std@@@std@@YAXPAUtagDROPITEM@@0AAV?$allocator@UtagDROPITEM@@@0@U_Nonscalar_ptr_iterator_tag@0@@Z
_TEXT	SEGMENT PARA USE32 PUBLIC 'CODE'
_TEXT	ENDS
;	COMDAT ??$_Destroy_range@KV?$allocator@K@std@@@std@@YAXPAK0AAV?$allocator@K@0@U_Scalar_ptr_iterator_tag@0@@Z
_TEXT	SEGMENT PARA USE32 PUBLIC 'CODE'
_TEXT	ENDS
;	COMDAT ??$_Destroy_range@JV?$allocator@J@std@@@std@@YAXPAJ0AAV?$allocator@J@0@U_Scalar_ptr_iterator_tag@0@@Z
_TEXT	SEGMENT PARA USE32 PUBLIC 'CODE'
_TEXT	ENDS
;	COMDAT ??$_Uninit_fill_n@JIJ@std@@YAXPAJIABJAAV?$allocator@J@0@U_Scalar_ptr_iterator_tag@0@@Z
_TEXT	SEGMENT PARA USE32 PUBLIC 'CODE'
_TEXT	ENDS
;	COMDAT ??$throw_exception@Vbad_weak_ptr@boost@@@boost@@YAXABVbad_weak_ptr@0@@Z
_TEXT	SEGMENT PARA USE32 PUBLIC 'CODE'
_TEXT	ENDS
;	COMDAT ??$make_pair@KPAVCGuildHouseBase@@@std@@YA?AU?$pair@KPAVCGuildHouseBase@@@0@KPAVCGuildHouseBase@@@Z
_TEXT	SEGMENT PARA USE32 PUBLIC 'CODE'
_TEXT	ENDS
;	COMDAT ??$?0KPAVCGuildHouseBase@@@?$pair@$$CBKPAVCGuildHouseBase@@@std@@QAE@ABU?$pair@KPAVCGuildHouseBase@@@1@@Z
_TEXT	SEGMENT PARA USE32 PUBLIC 'CODE'
_TEXT	ENDS
;	COMDAT ??$_Destroy@U_Node@?$_List_nod@PAU__JOINPLAYER@CGuildCombat@@V?$allocator@PAU__JOINPLAYER@CGuildCombat@@@std@@@std@@@std@@YAXPAU_Node@?$_List_nod@PAU__JOINPLAYER@CGuildCombat@@V?$allocator@PAU__JOINPLAYER@CGuildCombat@@@std@@@0@@Z
_TEXT	SEGMENT PARA USE32 PUBLIC 'CODE'
_TEXT	ENDS
;	COMDAT ??$_Allocate@H@std@@YAPAHIPAH@Z
_TEXT	SEGMENT PARA USE32 PUBLIC 'CODE'
_TEXT	ENDS
;	COMDAT ??$_Destroy_range@MV?$allocator@M@std@@@std@@YAXPAM0AAV?$allocator@M@0@@Z
_TEXT	SEGMENT PARA USE32 PUBLIC 'CODE'
_TEXT	ENDS
;	COMDAT ??$_Allocate@M@std@@YAPAMIPAM@Z
_TEXT	SEGMENT PARA USE32 PUBLIC 'CODE'
_TEXT	ENDS
;	COMDAT ??$_Destroy_range@HV?$allocator@H@std@@@std@@YAXPAH0AAV?$allocator@H@0@@Z
_TEXT	SEGMENT PARA USE32 PUBLIC 'CODE'
_TEXT	ENDS
;	COMDAT ??$_Destroy_range@PAU__JOINPLAYER@CGuildCombat@@V?$allocator@PAU__JOINPLAYER@CGuildCombat@@@std@@@std@@YAXPAPAU__JOINPLAYER@CGuildCombat@@0AAV?$allocator@PAU__JOINPLAYER@CGuildCombat@@@0@@Z
_TEXT	SEGMENT PARA USE32 PUBLIC 'CODE'
_TEXT	ENDS
;	COMDAT ??$_Allocate@U_Node@?$_Tree_nod@V?$_Tmap_traits@KPAVCGuildHouseBase@@U?$less@K@std@@V?$allocator@U?$pair@$$CBKPAVCGuildHouseBase@@@std@@@3@$0A@@std@@@std@@@std@@YAPAU_Node@?$_Tree_nod@V?$_Tmap_traits@KPAVCGuildHouseBase@@U?$less@K@std@@V?$allocator@U?$pair@$$CBKPAVCGuildHouseBase@@@std@@@3@$0A@@std@@@0@IPAU120@@Z
_TEXT	SEGMENT PARA USE32 PUBLIC 'CODE'
_TEXT	ENDS
;	COMDAT ??0bad_weak_ptr@boost@@QAE@ABV01@@Z
_TEXT	SEGMENT PARA USE32 PUBLIC 'CODE'
_TEXT	ENDS
;	COMDAT ?destroy@?$allocator@UtagDROPITEM@@@std@@QAEXPAUtagDROPITEM@@@Z
_TEXT	SEGMENT PARA USE32 PUBLIC 'CODE'
_TEXT	ENDS
;	COMDAT ??0?$pair@KPAVCGuildHouseBase@@@std@@QAE@ABKABQAVCGuildHouseBase@@@Z
_TEXT	SEGMENT PARA USE32 PUBLIC 'CODE'
_TEXT	ENDS
;	COMDAT ??$_Uninit_copy@JJ@std@@YAPAJPAJ00AAV?$allocator@J@0@U_Scalar_ptr_iterator_tag@0@@Z
_TEXT	SEGMENT PARA USE32 PUBLIC 'CODE'
_TEXT	ENDS
;	COMDAT ??$fill_n@PAJIJ@std@@YAXPAJIABJ@Z
_TEXT	SEGMENT PARA USE32 PUBLIC 'CODE'
_TEXT	ENDS
;	COMDAT ??$_Destroy_range@MV?$allocator@M@std@@@std@@YAXPAM0AAV?$allocator@M@0@U_Scalar_ptr_iterator_tag@0@@Z
_TEXT	SEGMENT PARA USE32 PUBLIC 'CODE'
_TEXT	ENDS
;	COMDAT ??$_Destroy_range@HV?$allocator@H@std@@@std@@YAXPAH0AAV?$allocator@H@0@U_Scalar_ptr_iterator_tag@0@@Z
_TEXT	SEGMENT PARA USE32 PUBLIC 'CODE'
_TEXT	ENDS
;	COMDAT ??$_Ptr_cat@U__JOINPLAYER@CGuildCombat@@@std@@YA?AU_Scalar_ptr_iterator_tag@0@PAPAU__JOINPLAYER@CGuildCombat@@0@Z
_TEXT	SEGMENT PARA USE32 PUBLIC 'CODE'
_TEXT	ENDS
;	COMDAT ??$_Destroy_range@PAU__JOINPLAYER@CGuildCombat@@V?$allocator@PAU__JOINPLAYER@CGuildCombat@@@std@@@std@@YAXPAPAU__JOINPLAYER@CGuildCombat@@0AAV?$allocator@PAU__JOINPLAYER@CGuildCombat@@@0@U_Scalar_ptr_iterator_tag@0@@Z
_TEXT	SEGMENT PARA USE32 PUBLIC 'CODE'
_TEXT	ENDS
;	COMDAT ??$_Destroy@UtagDROPITEM@@@std@@YAXPAUtagDROPITEM@@@Z
_TEXT	SEGMENT PARA USE32 PUBLIC 'CODE'
_TEXT	ENDS
;	COMDAT ?_Ptr_cat@std@@YA?AU_Scalar_ptr_iterator_tag@1@PAH0@Z
_TEXT	SEGMENT PARA USE32 PUBLIC 'CODE'
_TEXT	ENDS
;	COMDAT ?_Ptr_cat@std@@YA?AU_Scalar_ptr_iterator_tag@1@PAM0@Z
_TEXT	SEGMENT PARA USE32 PUBLIC 'CODE'
_TEXT	ENDS
;	COMDAT __CTA2?AVbad_weak_ptr@boost@@
xdata$x	SEGMENT DWORD USE32 PUBLIC 'CONST'
xdata$x	ENDS
;	COMDAT __CT??_R0?AVexception@@@8??0exception@@QAE@ABV0@@Z12
xdata$x	SEGMENT DWORD USE32 PUBLIC 'CONST'
xdata$x	ENDS
;	COMDAT ??_R0?AVexception@@@8
_DATA	SEGMENT DWORD USE32 PUBLIC 'DATA'
_DATA	ENDS
;	COMDAT __CT??_R0?AVbad_weak_ptr@boost@@@8??0bad_weak_ptr@boost@@QAE@ABV01@@Z12
xdata$x	SEGMENT DWORD USE32 PUBLIC 'CONST'
xdata$x	ENDS
;	COMDAT ??_R0?AVbad_weak_ptr@boost@@@8
_DATA	SEGMENT DWORD USE32 PUBLIC 'DATA'
_DATA	ENDS
;	COMDAT __TI2?AVbad_weak_ptr@boost@@
xdata$x	SEGMENT DWORD USE32 PUBLIC 'CONST'
xdata$x	ENDS
;	COMDAT ?_Ptr_cat@std@@YA?AU_Scalar_ptr_iterator_tag@1@PAJ0@Z
_TEXT	SEGMENT PARA USE32 PUBLIC 'CODE'
_TEXT	ENDS
;	COMDAT ??9const_iterator@?$_Tree@V?$_Tmap_traits@KU_Friend@@U?$less@K@std@@V?$allocator@U?$pair@$$CBKU_Friend@@@std@@@3@$0A@@std@@@std@@QBE_NABV012@@Z
_TEXT	SEGMENT PARA USE32 PUBLIC 'CODE'
_TEXT	ENDS
;	COMDAT ??8const_iterator@?$_Tree@V?$_Tmap_traits@KU_Friend@@U?$less@K@std@@V?$allocator@U?$pair@$$CBKU_Friend@@@std@@@3@$0A@@std@@@std@@QBE_NABV012@@Z
_TEXT	SEGMENT PARA USE32 PUBLIC 'CODE'
_TEXT	ENDS
;	COMDAT ??Eiterator@?$_Tree@V?$_Tmap_traits@KU_Friend@@U?$less@K@std@@V?$allocator@U?$pair@$$CBKU_Friend@@@std@@@3@$0A@@std@@@std@@QAEAAV012@XZ
_TEXT	SEGMENT PARA USE32 PUBLIC 'CODE'
_TEXT	ENDS
;	COMDAT ??Econst_iterator@?$_Tree@V?$_Tmap_traits@KU_Friend@@U?$less@K@std@@V?$allocator@U?$pair@$$CBKU_Friend@@@std@@@3@$0A@@std@@@std@@QAEAAV012@XZ
_TEXT	SEGMENT PARA USE32 PUBLIC 'CODE'
_TEXT	ENDS
;	COMDAT ?_Inc@const_iterator@?$_Tree@V?$_Tmap_traits@KU_Friend@@U?$less@K@std@@V?$allocator@U?$pair@$$CBKU_Friend@@@std@@@3@$0A@@std@@@std@@QAEXXZ
_TEXT	SEGMENT PARA USE32 PUBLIC 'CODE'
_TEXT	ENDS
;	COMDAT ?_Min@?$_Tree@V?$_Tmap_traits@KU_Friend@@U?$less@K@std@@V?$allocator@U?$pair@$$CBKU_Friend@@@std@@@3@$0A@@std@@@std@@KAPAU_Node@?$_Tree_nod@V?$_Tmap_traits@KU_Friend@@U?$less@K@std@@V?$allocator@U?$pair@$$CBKU_Friend@@@std@@@3@$0A@@std@@@2@PAU342@@Z
_TEXT	SEGMENT PARA USE32 PUBLIC 'CODE'
_TEXT	ENDS
;	COMDAT ?_Left@?$_Tree@V?$_Tmap_traits@KU_Friend@@U?$less@K@std@@V?$allocator@U?$pair@$$CBKU_Friend@@@std@@@3@$0A@@std@@@std@@KAAAPAU_Node@?$_Tree_nod@V?$_Tmap_traits@KU_Friend@@U?$less@K@std@@V?$allocator@U?$pair@$$CBKU_Friend@@@std@@@3@$0A@@std@@@2@PAU342@@Z
_TEXT	SEGMENT PARA USE32 PUBLIC 'CODE'
_TEXT	ENDS
;	COMDAT ?_Isnil@?$_Tree@V?$_Tmap_traits@KU_Friend@@U?$less@K@std@@V?$allocator@U?$pair@$$CBKU_Friend@@@std@@@3@$0A@@std@@@std@@KAAADPAU_Node@?$_Tree_nod@V?$_Tmap_traits@KU_Friend@@U?$less@K@std@@V?$allocator@U?$pair@$$CBKU_Friend@@@std@@@3@$0A@@std@@@2@@Z
_TEXT	SEGMENT PARA USE32 PUBLIC 'CODE'
_TEXT	ENDS
;	COMDAT ?_Parent@?$_Tree@V?$_Tmap_traits@KU_Friend@@U?$less@K@std@@V?$allocator@U?$pair@$$CBKU_Friend@@@std@@@3@$0A@@std@@@std@@KAAAPAU_Node@?$_Tree_nod@V?$_Tmap_traits@KU_Friend@@U?$less@K@std@@V?$allocator@U?$pair@$$CBKU_Friend@@@std@@@3@$0A@@std@@@2@PAU342@@Z
_TEXT	SEGMENT PARA USE32 PUBLIC 'CODE'
_TEXT	ENDS
;	COMDAT ?_Right@?$_Tree@V?$_Tmap_traits@KU_Friend@@U?$less@K@std@@V?$allocator@U?$pair@$$CBKU_Friend@@@std@@@3@$0A@@std@@@std@@KAAAPAU_Node@?$_Tree_nod@V?$_Tmap_traits@KU_Friend@@U?$less@K@std@@V?$allocator@U?$pair@$$CBKU_Friend@@@std@@@3@$0A@@std@@@2@PAU342@@Z
_TEXT	SEGMENT PARA USE32 PUBLIC 'CODE'
_TEXT	ENDS
;	COMDAT ?_Psave@?$_Facetptr@V?$ctype@G@std@@@std@@2PBVfacet@locale@2@B
_DATA	SEGMENT DWORD USE32 PUBLIC 'DATA'
_DATA	ENDS
;	COMDAT ?_Psave@?$_Facetptr@V?$ctype@D@std@@@std@@2PBVfacet@locale@2@B
_DATA	SEGMENT DWORD USE32 PUBLIC 'DATA'
_DATA	ENDS
;	COMDAT ??3@YAXPAX0@Z
_TEXT	SEGMENT PARA USE32 PUBLIC 'CODE'
_TEXT	ENDS
;	COMDAT ??2@YAPAXIPAX@Z
_TEXT	SEGMENT PARA USE32 PUBLIC 'CODE'
_TEXT	ENDS
;	COMDAT ??_C@_0BD@OLBABOEK@vector?$DMT?$DO?5too?5long?$AA@
CONST	SEGMENT DWORD USE32 PUBLIC 'CONST'
CONST	ENDS
;	COMDAT __TI3?AVlength_error@std@@
xdata$x	SEGMENT DWORD USE32 PUBLIC 'CONST'
xdata$x	ENDS
;	COMDAT ??1length_error@std@@UAE@XZ
_TEXT	SEGMENT PARA USE32 PUBLIC 'CODE'
_TEXT	ENDS
;	COMDAT ??_7length_error@std@@6B@
CONST	SEGMENT DWORD USE32 PUBLIC 'CONST'
CONST	ENDS
;	COMDAT ??_Glength_error@std@@UAEPAXI@Z
_TEXT	SEGMENT PARA USE32 PUBLIC 'CODE'
_TEXT	ENDS
;	COMDAT ?what@logic_error@std@@UBEPBDXZ
_TEXT	SEGMENT PARA USE32 PUBLIC 'CODE'
_TEXT	ENDS
;	COMDAT ?c_str@?$basic_string@DU?$char_traits@D@std@@V?$allocator@D@2@@std@@QBEPBDXZ
_TEXT	SEGMENT PARA USE32 PUBLIC 'CODE'
_TEXT	ENDS
;	COMDAT ??1logic_error@std@@UAE@XZ
_TEXT	SEGMENT PARA USE32 PUBLIC 'CODE'
_TEXT	ENDS
;	COMDAT ??_7logic_error@std@@6B@
CONST	SEGMENT DWORD USE32 PUBLIC 'CONST'
CONST	ENDS
;	COMDAT ??_Glogic_error@std@@UAEPAXI@Z
_TEXT	SEGMENT PARA USE32 PUBLIC 'CODE'
_TEXT	ENDS
;	COMDAT __CTA3?AVlength_error@std@@
xdata$x	SEGMENT DWORD USE32 PUBLIC 'CONST'
xdata$x	ENDS
;	COMDAT __CT??_R0?AVlength_error@std@@@8??0length_error@std@@QAE@ABV01@@Z40
xdata$x	SEGMENT DWORD USE32 PUBLIC 'CONST'
xdata$x	ENDS
;	COMDAT ??_R0?AVlength_error@std@@@8
_DATA	SEGMENT DWORD USE32 PUBLIC 'DATA'
_DATA	ENDS
;	COMDAT ??0length_error@std@@QAE@ABV01@@Z
_TEXT	SEGMENT PARA USE32 PUBLIC 'CODE'
_TEXT	ENDS
;	COMDAT ??0logic_error@std@@QAE@ABV01@@Z
_TEXT	SEGMENT PARA USE32 PUBLIC 'CODE'
_TEXT	ENDS
;	COMDAT ??0?$basic_string@DU?$char_traits@D@std@@V?$allocator@D@2@@std@@QAE@ABV01@@Z
_TEXT	SEGMENT PARA USE32 PUBLIC 'CODE'
_TEXT	ENDS
;	COMDAT ??0?$_String_val@DV?$allocator@D@std@@@std@@IAE@V?$allocator@D@1@@Z
_TEXT	SEGMENT PARA USE32 PUBLIC 'CODE'
_TEXT	ENDS
;	COMDAT ??0?$allocator@D@std@@QAE@ABV01@@Z
_TEXT	SEGMENT PARA USE32 PUBLIC 'CODE'
_TEXT	ENDS
;	COMDAT ?_Tidy@?$basic_string@DU?$char_traits@D@std@@V?$allocator@D@2@@std@@IAEX_NI@Z
_TEXT	SEGMENT PARA USE32 PUBLIC 'CODE'
_TEXT	ENDS
;	COMDAT ?copy@?$char_traits@D@std@@SAPADPADPBDI@Z
_TEXT	SEGMENT PARA USE32 PUBLIC 'CODE'
_TEXT	ENDS
;	COMDAT ?deallocate@?$allocator@D@std@@QAEXPADI@Z
_TEXT	SEGMENT PARA USE32 PUBLIC 'CODE'
_TEXT	ENDS
;	COMDAT ?_Eos@?$basic_string@DU?$char_traits@D@std@@V?$allocator@D@2@@std@@IAEXI@Z
_TEXT	SEGMENT PARA USE32 PUBLIC 'CODE'
_TEXT	ENDS
;	COMDAT ?assign@?$char_traits@D@std@@SAXAADABD@Z
_TEXT	SEGMENT PARA USE32 PUBLIC 'CODE'
_TEXT	ENDS
;	COMDAT ?_Myptr@?$basic_string@DU?$char_traits@D@std@@V?$allocator@D@2@@std@@QAEPADXZ
_TEXT	SEGMENT PARA USE32 PUBLIC 'CODE'
_TEXT	ENDS
;	COMDAT ?assign@?$basic_string@DU?$char_traits@D@std@@V?$allocator@D@2@@std@@QAEAAV12@ABV12@II@Z
_TEXT	SEGMENT PARA USE32 PUBLIC 'CODE'
_TEXT	ENDS
;	COMDAT ?erase@?$basic_string@DU?$char_traits@D@std@@V?$allocator@D@2@@std@@QAEAAV12@II@Z
_TEXT	SEGMENT PARA USE32 PUBLIC 'CODE'
_TEXT	ENDS
;	COMDAT ?move@?$char_traits@D@std@@SAPADPADPBDI@Z
_TEXT	SEGMENT PARA USE32 PUBLIC 'CODE'
_TEXT	ENDS
;	COMDAT ?_Grow@?$basic_string@DU?$char_traits@D@std@@V?$allocator@D@2@@std@@IAE_NI_N@Z
_TEXT	SEGMENT PARA USE32 PUBLIC 'CODE'
_TEXT	ENDS
;	COMDAT ?max_size@?$basic_string@DU?$char_traits@D@std@@V?$allocator@D@2@@std@@QBEIXZ
_TEXT	SEGMENT PARA USE32 PUBLIC 'CODE'
_TEXT	ENDS
;	COMDAT ?max_size@?$allocator@D@std@@QBEIXZ
_TEXT	SEGMENT PARA USE32 PUBLIC 'CODE'
_TEXT	ENDS
;	COMDAT ?_Copy@?$basic_string@DU?$char_traits@D@std@@V?$allocator@D@2@@std@@IAEXII@Z
_TEXT	SEGMENT PARA USE32 PUBLIC 'CODE'
_TEXT	ENDS
;	COMDAT ?allocate@?$allocator@D@std@@QAEPADI@Z
_TEXT	SEGMENT PARA USE32 PUBLIC 'CODE'
_TEXT	ENDS
;	COMDAT ??$_Allocate@D@std@@YAPADIPAD@Z
_TEXT	SEGMENT PARA USE32 PUBLIC 'CODE'
_TEXT	ENDS
;	COMDAT ?npos@?$basic_string@DU?$char_traits@D@std@@V?$allocator@D@2@@std@@2IB
CONST	SEGMENT DWORD USE32 PUBLIC 'CONST'
CONST	ENDS
;	COMDAT __CT??_R0?AVlogic_error@std@@@8??0logic_error@std@@QAE@ABV01@@Z40
xdata$x	SEGMENT DWORD USE32 PUBLIC 'CONST'
xdata$x	ENDS
;	COMDAT ??_R0?AVlogic_error@std@@@8
_DATA	SEGMENT DWORD USE32 PUBLIC 'DATA'
_DATA	ENDS
;	COMDAT ??1?$basic_string@DU?$char_traits@D@std@@V?$allocator@D@2@@std@@QAE@XZ
_TEXT	SEGMENT PARA USE32 PUBLIC 'CODE'
_TEXT	ENDS
;	COMDAT ??_C@_0BE@JONHPENG@map?1set?$DMT?$DO?5too?5long?$AA@
CONST	SEGMENT DWORD USE32 PUBLIC 'CONST'
CONST	ENDS
;	COMDAT ??0?$basic_string@DU?$char_traits@D@std@@V?$allocator@D@2@@std@@QAE@PBD@Z
_TEXT	SEGMENT PARA USE32 PUBLIC 'CODE'
_TEXT	ENDS
;	COMDAT ??0?$allocator@D@std@@QAE@XZ
_TEXT	SEGMENT PARA USE32 PUBLIC 'CODE'
_TEXT	ENDS
;	COMDAT ?assign@?$basic_string@DU?$char_traits@D@std@@V?$allocator@D@2@@std@@QAEAAV12@PBD@Z
_TEXT	SEGMENT PARA USE32 PUBLIC 'CODE'
_TEXT	ENDS
;	COMDAT ?assign@?$basic_string@DU?$char_traits@D@std@@V?$allocator@D@2@@std@@QAEAAV12@PBDI@Z
_TEXT	SEGMENT PARA USE32 PUBLIC 'CODE'
_TEXT	ENDS
;	COMDAT ?_Inside@?$basic_string@DU?$char_traits@D@std@@V?$allocator@D@2@@std@@IAE_NPBD@Z
_TEXT	SEGMENT PARA USE32 PUBLIC 'CODE'
_TEXT	ENDS
;	COMDAT ?length@?$char_traits@D@std@@SAIPBD@Z
_TEXT	SEGMENT PARA USE32 PUBLIC 'CODE'
_TEXT	ENDS
;	COMDAT ??0length_error@std@@QAE@ABV?$basic_string@DU?$char_traits@D@std@@V?$allocator@D@2@@1@@Z
_TEXT	SEGMENT PARA USE32 PUBLIC 'CODE'
_TEXT	ENDS
;	COMDAT ??0logic_error@std@@QAE@ABV?$basic_string@DU?$char_traits@D@std@@V?$allocator@D@2@@1@@Z
_TEXT	SEGMENT PARA USE32 PUBLIC 'CODE'
_TEXT	ENDS
;	COMDAT ?push_back@?$list@PAXV?$allocator@PAX@std@@@std@@QAEXABQAX@Z
_TEXT	SEGMENT PARA USE32 PUBLIC 'CODE'
_TEXT	ENDS
;	COMDAT ?_Insert@?$list@PAXV?$allocator@PAX@std@@@std@@QAEXViterator@12@ABQAX@Z
_TEXT	SEGMENT PARA USE32 PUBLIC 'CODE'
_TEXT	ENDS
;	COMDAT ?_Mynode@const_iterator@?$list@PAXV?$allocator@PAX@std@@@std@@QBEPAU_Node@?$_List_nod@PAXV?$allocator@PAX@std@@@3@XZ
_TEXT	SEGMENT PARA USE32 PUBLIC 'CODE'
_TEXT	ENDS
;	COMDAT ?_Buynode@?$list@PAXV?$allocator@PAX@std@@@std@@IAEPAU_Node@?$_List_nod@PAXV?$allocator@PAX@std@@@2@PAU342@0ABQAX@Z
_TEXT	SEGMENT PARA USE32 PUBLIC 'CODE'
_TEXT	ENDS
;	COMDAT ?allocate@?$allocator@U_Node@?$_List_nod@PAXV?$allocator@PAX@std@@@std@@@std@@QAEPAU_Node@?$_List_nod@PAXV?$allocator@PAX@std@@@2@I@Z
_TEXT	SEGMENT PARA USE32 PUBLIC 'CODE'
_TEXT	ENDS
;	COMDAT ??$_Allocate@U_Node@?$_List_nod@PAXV?$allocator@PAX@std@@@std@@@std@@YAPAU_Node@?$_List_nod@PAXV?$allocator@PAX@std@@@0@IPAU120@@Z
_TEXT	SEGMENT PARA USE32 PUBLIC 'CODE'
_TEXT	ENDS
;	COMDAT ??0_Node@?$_List_nod@PAXV?$allocator@PAX@std@@@std@@QAE@PAU012@0ABQAX@Z
_TEXT	SEGMENT PARA USE32 PUBLIC 'CODE'
_TEXT	ENDS
;	COMDAT ?deallocate@?$allocator@U_Node@?$_List_nod@PAXV?$allocator@PAX@std@@@std@@@std@@QAEXPAU_Node@?$_List_nod@PAXV?$allocator@PAX@std@@@2@I@Z
_TEXT	SEGMENT PARA USE32 PUBLIC 'CODE'
_TEXT	ENDS
;	COMDAT ?_Incsize@?$list@PAXV?$allocator@PAX@std@@@std@@IAEXI@Z
_TEXT	SEGMENT PARA USE32 PUBLIC 'CODE'
_TEXT	ENDS
;	COMDAT ?max_size@?$list@PAXV?$allocator@PAX@std@@@std@@QBEIXZ
_TEXT	SEGMENT PARA USE32 PUBLIC 'CODE'
_TEXT	ENDS
;	COMDAT ?max_size@?$allocator@PAX@std@@QBEIXZ
_TEXT	SEGMENT PARA USE32 PUBLIC 'CODE'
_TEXT	ENDS
;	COMDAT ??_C@_0BB@MOGOBHAF@list?$DMT?$DO?5too?5long?$AA@
CONST	SEGMENT DWORD USE32 PUBLIC 'CONST'
CONST	ENDS
;	COMDAT ?_Nextnode@?$list@PAXV?$allocator@PAX@std@@@std@@KAAAPAU_Node@?$_List_nod@PAXV?$allocator@PAX@std@@@2@PAU342@@Z
_TEXT	SEGMENT PARA USE32 PUBLIC 'CODE'
_TEXT	ENDS
;	COMDAT ?_Prevnode@?$list@PAXV?$allocator@PAX@std@@@std@@KAAAPAU_Node@?$_List_nod@PAXV?$allocator@PAX@std@@@2@PAU342@@Z
_TEXT	SEGMENT PARA USE32 PUBLIC 'CODE'
_TEXT	ENDS
;	COMDAT ?end@?$list@PAXV?$allocator@PAX@std@@@std@@QAE?AViterator@12@XZ
_TEXT	SEGMENT PARA USE32 PUBLIC 'CODE'
_TEXT	ENDS
;	COMDAT ??0iterator@?$list@PAXV?$allocator@PAX@std@@@std@@QAE@PAU_Node@?$_List_nod@PAXV?$allocator@PAX@std@@@2@@Z
_TEXT	SEGMENT PARA USE32 PUBLIC 'CODE'
_TEXT	ENDS
;	COMDAT ??0const_iterator@?$list@PAXV?$allocator@PAX@std@@@std@@QAE@PAU_Node@?$_List_nod@PAXV?$allocator@PAX@std@@@2@@Z
_TEXT	SEGMENT PARA USE32 PUBLIC 'CODE'
_TEXT	ENDS
;	COMDAT ??_C@_09PKKCPLIP@bad?5alloc?$AA@
CONST	SEGMENT DWORD USE32 PUBLIC 'CONST'
CONST	ENDS
;	COMDAT ?compare@?$char_traits@D@std@@SAHPBD0I@Z
_TEXT	SEGMENT PARA USE32 PUBLIC 'CODE'
_TEXT	ENDS
;	COMDAT ??R?$less@K@std@@QBE_NABK0@Z
_TEXT	SEGMENT PARA USE32 PUBLIC 'CODE'
_TEXT	ENDS
;	COMDAT ?_Myptr@?$basic_string@DU?$char_traits@D@std@@V?$allocator@D@2@@std@@QBEPBDXZ
_TEXT	SEGMENT PARA USE32 PUBLIC 'CODE'
_TEXT	ENDS
;	COMDAT ?size@?$basic_string@DU?$char_traits@D@std@@V?$allocator@D@2@@std@@QBEIXZ
_TEXT	SEGMENT PARA USE32 PUBLIC 'CODE'
_TEXT	ENDS
;	COMDAT ?Fork@?$CSimpleStringT@D$0A@@ATL@@AAEXH@Z
_TEXT	SEGMENT PARA USE32 PUBLIC 'CODE'
_TEXT	ENDS
;	COMDAT ?ThrowMemoryException@?$CSimpleStringT@D$0A@@ATL@@KAXXZ
_TEXT	SEGMENT PARA USE32 PUBLIC 'CODE'
_TEXT	ENDS
;	COMDAT ?AtlThrow@ATL@@YGXJ@Z
_TEXT	SEGMENT PARA USE32 PUBLIC 'CODE'
_TEXT	ENDS
;	COMDAT ?CopyChars@?$CSimpleStringT@D$0A@@ATL@@SAXPADPBDH@Z
_TEXT	SEGMENT PARA USE32 PUBLIC 'CODE'
_TEXT	ENDS
;	COMDAT ?data@CStringData@ATL@@QAEPAXXZ
_TEXT	SEGMENT PARA USE32 PUBLIC 'CODE'
_TEXT	ENDS
;	COMDAT ?Release@CStringData@ATL@@QAEXXZ
_TEXT	SEGMENT PARA USE32 PUBLIC 'CODE'
_TEXT	ENDS
;	COMDAT ?Attach@?$CSimpleStringT@D$0A@@ATL@@AAEXPAUCStringData@2@@Z
_TEXT	SEGMENT PARA USE32 PUBLIC 'CODE'
_TEXT	ENDS
;	COMDAT ?IsShared@CStringData@ATL@@QBE_NXZ
_TEXT	SEGMENT PARA USE32 PUBLIC 'CODE'
_TEXT	ENDS
;	COMDAT ?GetData@?$CSimpleStringT@D$0A@@ATL@@ABEPAUCStringData@2@XZ
_TEXT	SEGMENT PARA USE32 PUBLIC 'CODE'
_TEXT	ENDS
;	COMDAT ?StringFindString@?$ChTraitsCRT@D@ATL@@SAPBDPBD0@Z
_TEXT	SEGMENT PARA USE32 PUBLIC 'CODE'
_TEXT	ENDS
;	COMDAT ?ReleaseBufferSetLength@?$CSimpleStringT@D$0A@@ATL@@QAEXH@Z
_TEXT	SEGMENT PARA USE32 PUBLIC 'CODE'
_TEXT	ENDS
;	COMDAT ?SetLength@?$CSimpleStringT@D$0A@@ATL@@AAEXH@Z
_TEXT	SEGMENT PARA USE32 PUBLIC 'CODE'
_TEXT	ENDS
;	COMDAT ?GetString@?$CSimpleStringT@D$0A@@ATL@@QBEPBDXZ
_TEXT	SEGMENT PARA USE32 PUBLIC 'CODE'
_TEXT	ENDS
;	COMDAT ??5CAr@@QAEAAV0@AAD@Z
_TEXT	SEGMENT PARA USE32 PUBLIC 'CODE'
_TEXT	ENDS
;	COMDAT ??_C@_09GBAEEKDE@?$CFs?0?5?$CFd?7?$CFs?$AA@
CONST	SEGMENT DWORD USE32 PUBLIC 'CONST'
CONST	ENDS
;	COMDAT ?GetLength@?$CSimpleStringT@D$0A@@ATL@@QBEHXZ
_TEXT	SEGMENT PARA USE32 PUBLIC 'CODE'
_TEXT	ENDS
;	COMDAT ?GetBuffer@?$CSimpleStringT@D$0A@@ATL@@QAEPADH@Z
_TEXT	SEGMENT PARA USE32 PUBLIC 'CODE'
_TEXT	ENDS
;	COMDAT ?PrepareWrite@?$CSimpleStringT@D$0A@@ATL@@AAEPADH@Z
_TEXT	SEGMENT PARA USE32 PUBLIC 'CODE'
_TEXT	ENDS
;	COMDAT ?PrepareWrite2@?$CSimpleStringT@D$0A@@ATL@@AAEXH@Z
_TEXT	SEGMENT PARA USE32 PUBLIC 'CODE'
_TEXT	ENDS
;	COMDAT ?Reallocate@?$CSimpleStringT@D$0A@@ATL@@AAEXH@Z
_TEXT	SEGMENT PARA USE32 PUBLIC 'CODE'
_TEXT	ENDS
;	COMDAT ?Format@CTime@ATL@@QBE?AV?$CStringT@DV?$StrTraitMFC@DV?$ChTraitsCRT@D@ATL@@@@@2@PBD@Z
_TEXT	SEGMENT PARA USE32 PUBLIC 'CODE'
_TEXT	ENDS
;	COMDAT ??0CTime@ATL@@QAE@ABU_SYSTEMTIME@@H@Z
_TEXT	SEGMENT PARA USE32 PUBLIC 'CODE'
_TEXT	ENDS
;	COMDAT ??0CTime@ATL@@QAE@_J@Z
_TEXT	SEGMENT PARA USE32 PUBLIC 'CODE'
_TEXT	ENDS
;	COMDAT ??0CTime@ATL@@QAE@HHHHHHH@Z
_TEXT	SEGMENT PARA USE32 PUBLIC 'CODE'
_TEXT	ENDS
;	COMDAT ??5CAr@@QAEAAV0@AAG@Z
_TEXT	SEGMENT PARA USE32 PUBLIC 'CODE'
_TEXT	ENDS
;	COMDAT ??5CAr@@QAEAAV0@AAE@Z
_TEXT	SEGMENT PARA USE32 PUBLIC 'CODE'
_TEXT	ENDS
;	COMDAT ??5@YAAAVCAr@@AAV0@AA_J@Z
_TEXT	SEGMENT PARA USE32 PUBLIC 'CODE'
_TEXT	ENDS
;	COMDAT __tcsncpy
_TEXT	SEGMENT PARA USE32 PUBLIC 'CODE'
_TEXT	ENDS
;	COMDAT ??0_LogItemInfo@@QAE@XZ
_TEXT	SEGMENT PARA USE32 PUBLIC 'CODE'
_TEXT	ENDS
;	COMDAT ??5CAr@@QAEAAV0@AAF@Z
_TEXT	SEGMENT PARA USE32 PUBLIC 'CODE'
_TEXT	ENDS
;	COMDAT ??_C@_00CNPNBAHC@?$AA@
CONST	SEGMENT DWORD USE32 PUBLIC 'CONST'
CONST	ENDS
;	COMDAT ??1?$CStringT@DV?$StrTraitMFC@DV?$ChTraitsCRT@D@ATL@@@@@ATL@@QAE@XZ
_TEXT	SEGMENT PARA USE32 PUBLIC 'CODE'
_TEXT	ENDS
;	COMDAT ??1?$CSimpleStringT@D$0A@@ATL@@QAE@XZ
_TEXT	SEGMENT PARA USE32 PUBLIC 'CODE'
_TEXT	ENDS
;	COMDAT ??0?$CStringT@DV?$StrTraitMFC@DV?$ChTraitsCRT@D@ATL@@@@@ATL@@QAE@PBD@Z
_TEXT	SEGMENT PARA USE32 PUBLIC 'CODE'
_TEXT	ENDS
;	COMDAT ??0?$CSimpleStringT@D$0A@@ATL@@QAE@PAUIAtlStringMgr@1@@Z
_TEXT	SEGMENT PARA USE32 PUBLIC 'CODE'
_TEXT	ENDS
;	COMDAT ?GetDefaultManager@?$StrTraitMFC@DV?$ChTraitsCRT@D@ATL@@@@SAPAUIAtlStringMgr@ATL@@XZ
_TEXT	SEGMENT PARA USE32 PUBLIC 'CODE'
_TEXT	ENDS
;	COMDAT ?CheckImplicitLoad@?$CStringT@DV?$StrTraitMFC@DV?$ChTraitsCRT@D@ATL@@@@@ATL@@AAE_NPBX@Z
_TEXT	SEGMENT PARA USE32 PUBLIC 'CODE'
_TEXT	ENDS
;	COMDAT ?LoadStringA@?$CStringT@DV?$StrTraitMFC@DV?$ChTraitsCRT@D@ATL@@@@@ATL@@QAEHI@Z
_TEXT	SEGMENT PARA USE32 PUBLIC 'CODE'
_TEXT	ENDS
;	COMDAT ?FindStringResourceInstance@?$StrTraitMFC@DV?$ChTraitsCRT@D@ATL@@@@SAPAUHINSTANCE__@@I@Z
_TEXT	SEGMENT PARA USE32 PUBLIC 'CODE'
_TEXT	ENDS
;	COMDAT ?LoadStringA@?$CStringT@DV?$StrTraitMFC@DV?$ChTraitsCRT@D@ATL@@@@@ATL@@QAEHPAUHINSTANCE__@@I@Z
_TEXT	SEGMENT PARA USE32 PUBLIC 'CODE'
_TEXT	ENDS
;	COMDAT ?AtlGetStringResourceImage@ATL@@YAPBUATLSTRINGRESOURCEIMAGE@1@PAUHINSTANCE__@@I@Z
_TEXT	SEGMENT PARA USE32 PUBLIC 'CODE'
_TEXT	ENDS
;	COMDAT ?_AtlGetStringResourceImage@ATL@@YAPBUATLSTRINGRESOURCEIMAGE@1@PAUHINSTANCE__@@PAUHRSRC__@@I@Z
_TEXT	SEGMENT PARA USE32 PUBLIC 'CODE'
_TEXT	ENDS
;	COMDAT ?GetBaseTypeLength@?$ChTraitsCRT@D@ATL@@SAHPBGH@Z
_TEXT	SEGMENT PARA USE32 PUBLIC 'CODE'
_TEXT	ENDS
;	COMDAT ?_AtlGetConversionACP@ATL@@YGIXZ
_TEXT	SEGMENT PARA USE32 PUBLIC 'CODE'
_TEXT	ENDS
;	COMDAT ?g_pfnGetThreadACP@ATL@@3P6GIXZA
_DATA	SEGMENT DWORD USE32 PUBLIC 'DATA'
_DATA	ENDS
;	COMDAT ?_AtlGetThreadACPThunk@ATL@@YGIXZ
_TEXT	SEGMENT PARA USE32 PUBLIC 'CODE'
_TEXT	ENDS
;	COMDAT ?_AtlGetThreadACPReal@ATL@@YGIXZ
_TEXT	SEGMENT PARA USE32 PUBLIC 'CODE'
_TEXT	ENDS
;	COMDAT ?_AtlGetThreadACPFake@ATL@@YGIXZ
_TEXT	SEGMENT PARA USE32 PUBLIC 'CODE'
_TEXT	ENDS
;	COMDAT ?InterlockedExchangePointer@@YGPAXPAPAXPAX@Z
_TEXT	SEGMENT PARA USE32 PUBLIC 'CODE'
_TEXT	ENDS
;	COMDAT ?ConvertToBaseType@?$ChTraitsCRT@D@ATL@@SAXPADHPBGH@Z
_TEXT	SEGMENT PARA USE32 PUBLIC 'CODE'
_TEXT	ENDS
;	COMDAT ??4?$CStringT@DV?$StrTraitMFC@DV?$ChTraitsCRT@D@ATL@@@@@ATL@@QAEAAV01@PBD@Z
_TEXT	SEGMENT PARA USE32 PUBLIC 'CODE'
_TEXT	ENDS
;	COMDAT ??4?$CSimpleStringT@D$0A@@ATL@@QAEAAV01@PBD@Z
_TEXT	SEGMENT PARA USE32 PUBLIC 'CODE'
_TEXT	ENDS
;	COMDAT ?SetString@?$CSimpleStringT@D$0A@@ATL@@QAEXPBD@Z
_TEXT	SEGMENT PARA USE32 PUBLIC 'CODE'
_TEXT	ENDS
;	COMDAT ?SetString@?$CSimpleStringT@D$0A@@ATL@@QAEXPBDH@Z
_TEXT	SEGMENT PARA USE32 PUBLIC 'CODE'
_TEXT	ENDS
;	COMDAT ?Empty@?$CSimpleStringT@D$0A@@ATL@@QAEXXZ
_TEXT	SEGMENT PARA USE32 PUBLIC 'CODE'
_TEXT	ENDS
;	COMDAT ?IsLocked@CStringData@ATL@@QBE_NXZ
_TEXT	SEGMENT PARA USE32 PUBLIC 'CODE'
_TEXT	ENDS
;	COMDAT ?CopyCharsOverlapped@?$CSimpleStringT@D$0A@@ATL@@SAXPADPBDH@Z
_TEXT	SEGMENT PARA USE32 PUBLIC 'CODE'
_TEXT	ENDS
;	COMDAT ?StringLength@?$CSimpleStringT@D$0A@@ATL@@SAHPBD@Z
_TEXT	SEGMENT PARA USE32 PUBLIC 'CODE'
_TEXT	ENDS
;	COMDAT ??B?$CSimpleStringT@D$0A@@ATL@@QBEPBDXZ
_TEXT	SEGMENT PARA USE32 PUBLIC 'CODE'
_TEXT	ENDS
;	COMDAT ??5@YAAAVCAr@@AAV0@AAUD3DXVECTOR3@@@Z
_TEXT	SEGMENT PARA USE32 PUBLIC 'CODE'
_TEXT	ENDS
;	COMDAT ??5CAr@@QAEAAV0@AAM@Z
_TEXT	SEGMENT PARA USE32 PUBLIC 'CODE'
_TEXT	ENDS
;	COMDAT ??5CAr@@QAEAAV0@AAJ@Z
_TEXT	SEGMENT PARA USE32 PUBLIC 'CODE'
_TEXT	ENDS
;	COMDAT ?time_null@@YAJXZ
_TEXT	SEGMENT PARA USE32 PUBLIC 'CODE'
_TEXT	ENDS
;	COMDAT ??6CAr@@QAEAAV0@J@Z
_TEXT	SEGMENT PARA USE32 PUBLIC 'CODE'
_TEXT	ENDS
;	COMDAT ??6@YAAAVCAr@@AAV0@UD3DXVECTOR3@@@Z
_TEXT	SEGMENT PARA USE32 PUBLIC 'CODE'
_TEXT	ENDS
;	COMDAT ??6CAr@@QAEAAV0@M@Z
_TEXT	SEGMENT PARA USE32 PUBLIC 'CODE'
_TEXT	ENDS
;	COMDAT ?GetTime@CTime@ATL@@QBE_JXZ
_TEXT	SEGMENT PARA USE32 PUBLIC 'CODE'
_TEXT	ENDS
;	COMDAT ??0CTimeSpan@ATL@@QAE@JHHH@Z
_TEXT	SEGMENT PARA USE32 PUBLIC 'CODE'
_TEXT	ENDS
;	COMDAT ??HCTime@ATL@@QBE?AV01@VCTimeSpan@1@@Z
_TEXT	SEGMENT PARA USE32 PUBLIC 'CODE'
_TEXT	ENDS
;	COMDAT ?GetTimeSpan@CTimeSpan@ATL@@QBE_JXZ
_TEXT	SEGMENT PARA USE32 PUBLIC 'CODE'
_TEXT	ENDS
;	COMDAT ?GetItemProp@CProject@@QAEPAUItemProp@@H@Z
_TEXT	SEGMENT PARA USE32 PUBLIC 'CODE'
_TEXT	ENDS
;	COMDAT ?GetAt@?$CFixedArray@UItemProp@@@@QAEPAUItemProp@@K@Z
_TEXT	SEGMENT PARA USE32 PUBLIC 'CODE'
_TEXT	ENDS
;	COMDAT ??5CAr@@QAEAAV0@AAH@Z
_TEXT	SEGMENT PARA USE32 PUBLIC 'CODE'
_TEXT	ENDS
;	COMDAT ??6CAr@@QAEAAV0@H@Z
_TEXT	SEGMENT PARA USE32 PUBLIC 'CODE'
_TEXT	ENDS
;	COMDAT ??_7CLordSkillComponentExecutable@@6B@
CONST	SEGMENT DWORD USE32 PUBLIC 'CONST'
CONST	ENDS
;	COMDAT ??_7bad_weak_ptr@boost@@6B@
CONST	SEGMENT DWORD USE32 PUBLIC 'CONST'
CONST	ENDS
;	COMDAT ??_7sp_counted_base@detail@boost@@6B@
CONST	SEGMENT DWORD USE32 PUBLIC 'CONST'
CONST	ENDS
;	COMDAT ??5CAr@@QAEAAV0@AAK@Z
_TEXT	SEGMENT PARA USE32 PUBLIC 'CODE'
_TEXT	ENDS
;	COMDAT ??6CAr@@QAEAAV0@K@Z
_TEXT	SEGMENT PARA USE32 PUBLIC 'CODE'
_TEXT	ENDS
;	COMDAT ?IsStoring@CAr@@QBEHXZ
_TEXT	SEGMENT PARA USE32 PUBLIC 'CODE'
_TEXT	ENDS
;	COMDAT ?Leave@CMclCritSec@@QAEXXZ
_TEXT	SEGMENT PARA USE32 PUBLIC 'CODE'
_TEXT	ENDS
;	COMDAT ?Enter@CMclCritSec@@QAEXXZ
_TEXT	SEGMENT PARA USE32 PUBLIC 'CODE'
_TEXT	ENDS
;	COMDAT ?GetTickCount@CTime@ATL@@SG?AV12@XZ
_TEXT	SEGMENT PARA USE32 PUBLIC 'CODE'
_TEXT	ENDS
;	COMDAT ??0CTime@ATL@@QAE@XZ
_TEXT	SEGMENT PARA USE32 PUBLIC 'CODE'
_TEXT	ENDS
;	COMDAT ??1CMclCritSec@@UAE@XZ
_TEXT	SEGMENT PARA USE32 PUBLIC 'CODE'
_TEXT	ENDS
;	COMDAT ??_7CMclCritSec@@6B@
CONST	SEGMENT DWORD USE32 PUBLIC 'CONST'
CONST	ENDS
;	COMDAT ??_GCMclCritSec@@UAEPAXI@Z
_TEXT	SEGMENT PARA USE32 PUBLIC 'CODE'
_TEXT	ENDS
;	COMDAT ??0CMclCritSec@@QAE@XZ
_TEXT	SEGMENT PARA USE32 PUBLIC 'CODE'
_TEXT	ENDS
;	COMDAT ??0D3DXVECTOR3@@QAE@MMM@Z
_TEXT	SEGMENT PARA USE32 PUBLIC 'CODE'
_TEXT	ENDS
;	COMDAT ??0D3DXVECTOR3@@QAE@XZ
_TEXT	SEGMENT PARA USE32 PUBLIC 'CODE'
_TEXT	ENDS
sxdata	SEGMENT DWORD USE32 'SXDATA'
sxdata	ENDS
FLAT	GROUP _DATA, CONST, _BSS
	ASSUME	CS: FLAT, DS: FLAT, SS: FLAT
endif

INCLUDELIB LIBCMT
INCLUDELIB OLDNAMES

PUBLIC	?g_pfnGetThreadACP@ATL@@3P6GIXZA		; ATL::g_pfnGetThreadACP
PUBLIC	?_AtlGetThreadACPThunk@ATL@@YGIXZ		; ATL::_AtlGetThreadACPThunk
;	COMDAT ?g_pfnGetThreadACP@ATL@@3P6GIXZA
_DATA	SEGMENT
?g_pfnGetThreadACP@ATL@@3P6GIXZA DD FLAT:?_AtlGetThreadACPThunk@ATL@@YGIXZ ; ATL::g_pfnGetThreadACP
_DATA	ENDS
PUBLIC	__tcsncpy
EXTRN	__mbsnbcpy:NEAR
; Function compile flags: /Ogty
; File c:\program files\microsoft visual studio .net 2003\vc7\include\tchar.h
;	COMDAT __tcsncpy
_TEXT	SEGMENT
__s1$ = 8						; size = 4
__s2$ = 12						; size = 4
__n$ = 16						; size = 4
__tcsncpy PROC NEAR					; COMDAT

; 843  : __inline _PC _tcsncpy(_PC _s1,_CPC _s2,size_t _n) {return (_PC)_mbsnbcpy((_PUC)_s1,(_CPUC)_s2,_n);}

  00000	e9 00 00 00 00	 jmp	 __mbsnbcpy
__tcsncpy ENDP
_TEXT	ENDS
PUBLIC	?InterlockedExchangePointer@@YGPAXPAPAXPAX@Z	; InterlockedExchangePointer
EXTRN	__imp__InterlockedExchange@8:NEAR
; Function compile flags: /Ogty
; File c:\program files\microsoft visual studio .net 2003\vc7\atlmfc\include\atlconv.h
;	COMDAT ?InterlockedExchangePointer@@YGPAXPAPAXPAX@Z
_TEXT	SEGMENT
_pp$ = 8						; size = 4
_pNew$ = 12						; size = 4
?InterlockedExchangePointer@@YGPAXPAPAXPAX@Z PROC NEAR	; InterlockedExchangePointer, COMDAT

; 92   : 	return( reinterpret_cast<void*>(static_cast<LONG_PTR>(::InterlockedExchange(reinterpret_cast<LONG*>(pp), static_cast<LONG>(reinterpret_cast<LONG_PTR>(pNew))))) );

  00000	ff 25 00 00 00
	00		 jmp	 DWORD PTR __imp__InterlockedExchange@8
?InterlockedExchangePointer@@YGPAXPAPAXPAX@Z ENDP	; InterlockedExchangePointer
_TEXT	ENDS
PUBLIC	?_AtlGetThreadACPFake@ATL@@YGIXZ		; ATL::_AtlGetThreadACPFake
EXTRN	__imp__GetThreadLocale@0:NEAR
EXTRN	___security_cookie:DWORD
EXTRN	@__security_check_cookie@4:NEAR
EXTRN	__imp__GetACP@0:NEAR
EXTRN	__imp__GetLocaleInfoA@16:NEAR
; Function compile flags: /Ogty
;	COMDAT ?_AtlGetThreadACPFake@ATL@@YGIXZ
_TEXT	SEGMENT
_szACP$ = -12						; size = 7
__$ArrayPad$ = -4					; size = 4
__$ReturnAddr$ = 4					; size = 4
?_AtlGetThreadACPFake@ATL@@YGIXZ PROC NEAR		; ATL::_AtlGetThreadACPFake, COMDAT

; 101  : {

  00000	83 ec 0c	 sub	 esp, 12			; 0000000cH
  00003	a1 00 00 00 00	 mov	 eax, DWORD PTR ___security_cookie
  00008	33 c4		 xor	 eax, esp
  0000a	56		 push	 esi
  0000b	89 44 24 0c	 mov	 DWORD PTR __$ArrayPad$[esp+16], eax

; 102  : 	UINT nACP = 0;

  0000f	33 f6		 xor	 esi, esi

; 103  : 
; 104  : 	LCID lcidThread = ::GetThreadLocale();

  00011	ff 15 00 00 00
	00		 call	 DWORD PTR __imp__GetThreadLocale@0

; 105  : 
; 106  : 	char szACP[7];
; 107  : 	// GetLocaleInfoA will fail for a Unicode-only LCID, but those are only supported on 
; 108  : 	// Windows 2000.  Since Windows 2000 supports CP_THREAD_ACP, this code path is never
; 109  : 	// executed on Windows 2000.
; 110  : 	if (::GetLocaleInfoA(lcidThread, LOCALE_IDEFAULTANSICODEPAGE, szACP, 7) != 0)

  00017	6a 07		 push	 7
  00019	8d 4c 24 08	 lea	 ecx, DWORD PTR _szACP$[esp+20]
  0001d	51		 push	 ecx
  0001e	68 04 10 00 00	 push	 4100			; 00001004H
  00023	50		 push	 eax
  00024	ff 15 00 00 00
	00		 call	 DWORD PTR __imp__GetLocaleInfoA@16
  0002a	85 c0		 test	 eax, eax
  0002c	74 27		 je	 SHORT $L210576

; 111  : 	{
; 112  : 		char* pch = szACP;
; 113  : 		while (*pch != '\0')

  0002e	8a 44 24 04	 mov	 al, BYTE PTR _szACP$[esp+16]
  00032	84 c0		 test	 al, al
  00034	8d 4c 24 04	 lea	 ecx, DWORD PTR _szACP$[esp+16]
  00038	74 1b		 je	 SHORT $L210576
  0003a	8d 9b 00 00 00
	00		 npad	 6
$L38554:

; 114  : 		{
; 115  : 			nACP *= 10;
; 116  : 			nACP += *pch++ - '0';

  00040	0f be c0	 movsx	 eax, al
  00043	8d 14 b6	 lea	 edx, DWORD PTR [esi+esi*4]
  00046	41		 inc	 ecx
  00047	8d 74 50 d0	 lea	 esi, DWORD PTR [eax+edx*2-48]
  0004b	8a 01		 mov	 al, BYTE PTR [ecx]
  0004d	84 c0		 test	 al, al
  0004f	75 ef		 jne	 SHORT $L38554

; 117  : 		}
; 118  : 	}
; 119  : 	// Use the Default ANSI Code Page if we were unable to get the thread ACP or if one does not exist.
; 120  : 	if (nACP == 0)

  00051	85 f6		 test	 esi, esi
  00053	75 16		 jne	 SHORT $L210577
$L210576:

; 121  : 		nACP = ::GetACP();

  00055	ff 15 00 00 00
	00		 call	 DWORD PTR __imp__GetACP@0
  0005b	5e		 pop	 esi

; 122  : 
; 123  : 	return nACP;
; 124  : }

  0005c	8b 4c 24 08	 mov	 ecx, DWORD PTR __$ArrayPad$[esp+12]
  00060	33 cc		 xor	 ecx, esp
  00062	e8 00 00 00 00	 call	 @__security_check_cookie@4
  00067	83 c4 0c	 add	 esp, 12			; 0000000cH
  0006a	c3		 ret	 0
$L210577:
  0006b	8b 4c 24 0c	 mov	 ecx, DWORD PTR __$ArrayPad$[esp+16]
  0006f	8b c6		 mov	 eax, esi
  00071	5e		 pop	 esi
  00072	33 cc		 xor	 ecx, esp
  00074	e8 00 00 00 00	 call	 @__security_check_cookie@4
  00079	83 c4 0c	 add	 esp, 12			; 0000000cH
  0007c	c3		 ret	 0
?_AtlGetThreadACPFake@ATL@@YGIXZ ENDP			; ATL::_AtlGetThreadACPFake
_TEXT	ENDS
PUBLIC	?_AtlGetThreadACPReal@ATL@@YGIXZ		; ATL::_AtlGetThreadACPReal
; Function compile flags: /Ogty
;	COMDAT ?_AtlGetThreadACPReal@ATL@@YGIXZ
_TEXT	SEGMENT
?_AtlGetThreadACPReal@ATL@@YGIXZ PROC NEAR		; ATL::_AtlGetThreadACPReal, COMDAT

; 128  : 	return( CP_THREAD_ACP );

  00000	b8 03 00 00 00	 mov	 eax, 3

; 129  : }

  00005	c3		 ret	 0
?_AtlGetThreadACPReal@ATL@@YGIXZ ENDP			; ATL::_AtlGetThreadACPReal
_TEXT	ENDS
EXTRN	__imp__GetVersionExA@4:NEAR
; Function compile flags: /Ogty
;	COMDAT ?_AtlGetThreadACPThunk@ATL@@YGIXZ
_TEXT	SEGMENT
_ver$ = -152						; size = 148
__$ArrayPad$ = -4					; size = 4
__$ReturnAddr$ = 4					; size = 4
?_AtlGetThreadACPThunk@ATL@@YGIXZ PROC NEAR		; ATL::_AtlGetThreadACPThunk, COMDAT

; 134  : {

  00000	81 ec 98 00 00
	00		 sub	 esp, 152		; 00000098H
  00006	a1 00 00 00 00	 mov	 eax, DWORD PTR ___security_cookie
  0000b	33 c4		 xor	 eax, esp
  0000d	89 84 24 94 00
	00 00		 mov	 DWORD PTR __$ArrayPad$[esp+152], eax

; 135  : 	OSVERSIONINFO ver;
; 136  : 	ATLGETTHREADACP pfnGetThreadACP;
; 137  : 
; 138  : 	ver.dwOSVersionInfoSize = sizeof( ver );
; 139  : 	::GetVersionEx( &ver );

  00014	8d 04 24	 lea	 eax, DWORD PTR _ver$[esp+152]
  00017	50		 push	 eax
  00018	c7 44 24 04 94
	00 00 00	 mov	 DWORD PTR _ver$[esp+156], 148 ; 00000094H
  00020	ff 15 00 00 00
	00		 call	 DWORD PTR __imp__GetVersionExA@4

; 140  : 	if( (ver.dwPlatformId == VER_PLATFORM_WIN32_NT) && (ver.dwMajorVersion >= 5) )

  00026	83 7c 24 10 02	 cmp	 DWORD PTR _ver$[esp+168], 2
  0002b	75 0c		 jne	 SHORT $L38564
  0002d	83 7c 24 04 05	 cmp	 DWORD PTR _ver$[esp+156], 5

; 141  : 	{
; 142  : 		// On Win2K, CP_THREAD_ACP is supported
; 143  : 		pfnGetThreadACP = _AtlGetThreadACPReal;

  00032	b8 00 00 00 00	 mov	 eax, OFFSET FLAT:?_AtlGetThreadACPReal@ATL@@YGIXZ ; ATL::_AtlGetThreadACPReal
  00037	73 05		 jae	 SHORT $L38565
$L38564:

; 144  : 	}
; 145  : 	else
; 146  : 	{
; 147  : 		pfnGetThreadACP = _AtlGetThreadACPFake;

  00039	b8 00 00 00 00	 mov	 eax, OFFSET FLAT:?_AtlGetThreadACPFake@ATL@@YGIXZ ; ATL::_AtlGetThreadACPFake
$L38565:

; 148  : 	}
; 149  : 	InterlockedExchangePointer( reinterpret_cast< void** >(&g_pfnGetThreadACP), pfnGetThreadACP );

  0003e	50		 push	 eax
  0003f	68 00 00 00 00	 push	 OFFSET FLAT:?g_pfnGetThreadACP@ATL@@3P6GIXZA ; ATL::g_pfnGetThreadACP
  00044	ff 15 00 00 00
	00		 call	 DWORD PTR __imp__InterlockedExchange@8

; 150  : 
; 151  : 	return( g_pfnGetThreadACP() );

  0004a	ff 15 00 00 00
	00		 call	 DWORD PTR ?g_pfnGetThreadACP@ATL@@3P6GIXZA ; ATL::g_pfnGetThreadACP

; 152  : }

  00050	8b 8c 24 94 00
	00 00		 mov	 ecx, DWORD PTR __$ArrayPad$[esp+152]
  00057	33 cc		 xor	 ecx, esp
  00059	e8 00 00 00 00	 call	 @__security_check_cookie@4
  0005e	81 c4 98 00 00
	00		 add	 esp, 152		; 00000098H
  00064	c3		 ret	 0
?_AtlGetThreadACPThunk@ATL@@YGIXZ ENDP			; ATL::_AtlGetThreadACPThunk
_TEXT	ENDS
PUBLIC	?_AtlGetConversionACP@ATL@@YGIXZ		; ATL::_AtlGetConversionACP
; Function compile flags: /Ogty
;	COMDAT ?_AtlGetConversionACP@ATL@@YGIXZ
_TEXT	SEGMENT
?_AtlGetConversionACP@ATL@@YGIXZ PROC NEAR		; ATL::_AtlGetConversionACP, COMDAT

; 158  : 	return( g_pfnGetThreadACP() );

  00000	ff 25 00 00 00
	00		 jmp	 DWORD PTR ?g_pfnGetThreadACP@ATL@@3P6GIXZA ; ATL::g_pfnGetThreadACP
?_AtlGetConversionACP@ATL@@YGIXZ ENDP			; ATL::_AtlGetConversionACP
_TEXT	ENDS
PUBLIC	?AtlThrow@ATL@@YGXJ@Z				; ATL::AtlThrow
EXTRN	?AfxThrowMemoryException@@YGXXZ:NEAR		; AfxThrowMemoryException
EXTRN	?AfxThrowOleException@@YGXJ@Z:NEAR		; AfxThrowOleException
; Function compile flags: /Ogty
; File c:\program files\microsoft visual studio .net 2003\vc7\atlmfc\include\atlexcept.h
;	COMDAT ?AtlThrow@ATL@@YGXJ@Z
_TEXT	SEGMENT
_hr$ = 8						; size = 4
?AtlThrow@ATL@@YGXJ@Z PROC NEAR				; ATL::AtlThrow, COMDAT

; 62   : 	ATLTRACE(atlTraceException, 0, _T("AtlThrow: hr = 0x%x\n"), hr );
; 63   : #ifdef _AFX
; 64   : 	if( hr == E_OUTOFMEMORY )

  00000	8b 44 24 04	 mov	 eax, DWORD PTR _hr$[esp-4]
  00004	3d 0e 00 07 80	 cmp	 eax, -2147024882	; 8007000eH
  00009	75 05		 jne	 SHORT $L39166

; 65   : 	{
; 66   : 		AfxThrowMemoryException();

  0000b	e8 00 00 00 00	 call	 ?AfxThrowMemoryException@@YGXXZ ; AfxThrowMemoryException
$L39166:

; 67   : 	}
; 68   : 	else
; 69   : 	{
; 70   : 		AfxThrowOleException( hr );

  00010	50		 push	 eax
  00011	e8 00 00 00 00	 call	 ?AfxThrowOleException@@YGXJ@Z ; AfxThrowOleException
$L210595:
  00016	cc		 int	 3
?AtlThrow@ATL@@YGXJ@Z ENDP				; ATL::AtlThrow
_TEXT	ENDS
PUBLIC	?_AtlGetStringResourceImage@ATL@@YAPBUATLSTRINGRESOURCEIMAGE@1@PAUHINSTANCE__@@PAUHRSRC__@@I@Z ; ATL::_AtlGetStringResourceImage
EXTRN	__imp__LoadResource@8:NEAR
EXTRN	__imp__SizeofResource@8:NEAR
EXTRN	__imp__LockResource@4:NEAR
; Function compile flags: /Ogty
; File c:\program files\microsoft visual studio .net 2003\vc7\atlmfc\include\atlcore.h
;	COMDAT ?_AtlGetStringResourceImage@ATL@@YAPBUATLSTRINGRESOURCEIMAGE@1@PAUHINSTANCE__@@PAUHRSRC__@@I@Z
_TEXT	SEGMENT
_hInstance$ = 8						; size = 4
_hResource$ = 12					; size = 4
_id$ = 16						; size = 4
?_AtlGetStringResourceImage@ATL@@YAPBUATLSTRINGRESOURCEIMAGE@1@PAUHINSTANCE__@@PAUHRSRC__@@I@Z PROC NEAR ; ATL::_AtlGetStringResourceImage, COMDAT

; 239  : {

  00000	53		 push	 ebx

; 240  : 	const ATLSTRINGRESOURCEIMAGE* pImage;
; 241  : 	const ATLSTRINGRESOURCEIMAGE* pImageEnd;
; 242  : 	ULONG nResourceSize;
; 243  : 	HGLOBAL hGlobal;
; 244  : 	UINT iIndex;
; 245  : 
; 246  : 	hGlobal = ::LoadResource( hInstance, hResource );

  00001	8b 5c 24 08	 mov	 ebx, DWORD PTR _hInstance$[esp]
  00005	57		 push	 edi
  00006	8b 7c 24 10	 mov	 edi, DWORD PTR _hResource$[esp+4]
  0000a	57		 push	 edi
  0000b	53		 push	 ebx
  0000c	ff 15 00 00 00
	00		 call	 DWORD PTR __imp__LoadResource@8

; 247  : 	if( hGlobal == NULL )

  00012	85 c0		 test	 eax, eax
  00014	75 03		 jne	 SHORT $L39520
  00016	5f		 pop	 edi
  00017	5b		 pop	 ebx

; 272  : 	{
; 273  : 		return( NULL );
; 274  : 	}
; 275  : 
; 276  : 	return( pImage );
; 277  : }

  00018	c3		 ret	 0
$L39520:
  00019	56		 push	 esi

; 248  : 	{
; 249  : 		return( NULL );
; 250  : 	}
; 251  : 
; 252  : 	pImage = (const ATLSTRINGRESOURCEIMAGE*)::LockResource( hGlobal );

  0001a	50		 push	 eax
  0001b	ff 15 00 00 00
	00		 call	 DWORD PTR __imp__LockResource@4
  00021	8b f0		 mov	 esi, eax

; 253  : 	if( pImage == NULL )

  00023	85 f6		 test	 esi, esi
  00025	75 06		 jne	 SHORT $L39522
$L210600:
  00027	5e		 pop	 esi
  00028	5f		 pop	 edi

; 254  : 	{
; 255  : 		return( NULL );

  00029	33 c0		 xor	 eax, eax
  0002b	5b		 pop	 ebx

; 272  : 	{
; 273  : 		return( NULL );
; 274  : 	}
; 275  : 
; 276  : 	return( pImage );
; 277  : }

  0002c	c3		 ret	 0
$L39522:

; 256  : 	}
; 257  : 
; 258  : 	nResourceSize = ::SizeofResource( hInstance, hResource );

  0002d	57		 push	 edi
  0002e	53		 push	 ebx
  0002f	ff 15 00 00 00
	00		 call	 DWORD PTR __imp__SizeofResource@8

; 259  : 	pImageEnd = (const ATLSTRINGRESOURCEIMAGE*)(LPBYTE( pImage )+nResourceSize);
; 260  : 	iIndex = id&0x000f;

  00035	8b 4c 24 18	 mov	 ecx, DWORD PTR _id$[esp+8]
  00039	03 c6		 add	 eax, esi
  0003b	83 e1 0f	 and	 ecx, 15			; 0000000fH

; 261  : 
; 262  : 	while( (iIndex > 0) && (pImage < pImageEnd) )

  0003e	76 0e		 jbe	 SHORT $L39526
$L39525:
  00040	3b f0		 cmp	 esi, eax
  00042	73 e3		 jae	 SHORT $L210600

; 263  : 	{
; 264  : 		pImage = (const ATLSTRINGRESOURCEIMAGE*)(LPBYTE( pImage )+(sizeof( ATLSTRINGRESOURCEIMAGE )+(pImage->nLength*sizeof( WCHAR ))));
; 265  : 		iIndex--;

  00044	49		 dec	 ecx
  00045	0f b7 16	 movzx	 edx, WORD PTR [esi]
  00048	8d 74 56 02	 lea	 esi, DWORD PTR [esi+edx*2+2]
  0004c	75 f2		 jne	 SHORT $L39525
$L39526:

; 266  : 	}
; 267  : 	if( pImage >= pImageEnd )

  0004e	3b f0		 cmp	 esi, eax

; 268  : 	{
; 269  : 		return( NULL );

  00050	73 d5		 jae	 SHORT $L210600

; 270  : 	}
; 271  : 	if( pImage->nLength == 0 )

  00052	66 8b 06	 mov	 ax, WORD PTR [esi]
  00055	66 f7 d8	 neg	 ax
  00058	1b c0		 sbb	 eax, eax
  0005a	23 c6		 and	 eax, esi
  0005c	5e		 pop	 esi
  0005d	5f		 pop	 edi
  0005e	5b		 pop	 ebx

; 272  : 	{
; 273  : 		return( NULL );
; 274  : 	}
; 275  : 
; 276  : 	return( pImage );
; 277  : }

  0005f	c3		 ret	 0
?_AtlGetStringResourceImage@ATL@@YAPBUATLSTRINGRESOURCEIMAGE@1@PAUHINSTANCE__@@PAUHRSRC__@@I@Z ENDP ; ATL::_AtlGetStringResourceImage
_TEXT	ENDS
PUBLIC	?AtlGetStringResourceImage@ATL@@YAPBUATLSTRINGRESOURCEIMAGE@1@PAUHINSTANCE__@@I@Z ; ATL::AtlGetStringResourceImage
EXTRN	__imp__FindResourceA@12:NEAR
; Function compile flags: /Ogty
;	COMDAT ?AtlGetStringResourceImage@ATL@@YAPBUATLSTRINGRESOURCEIMAGE@1@PAUHINSTANCE__@@I@Z
_TEXT	SEGMENT
_hInstance$ = 8						; size = 4
_id$ = 12						; size = 4
?AtlGetStringResourceImage@ATL@@YAPBUATLSTRINGRESOURCEIMAGE@1@PAUHINSTANCE__@@I@Z PROC NEAR ; ATL::AtlGetStringResourceImage, COMDAT

; 280  : {

  00000	56		 push	 esi

; 281  : 	HRSRC hResource;
; 282  : 
; 283  : 	hResource = ::FindResource( hInstance, MAKEINTRESOURCE( ((id>>4)+1) ), RT_STRING );

  00001	8b 74 24 0c	 mov	 esi, DWORD PTR _id$[esp]
  00005	8b c6		 mov	 eax, esi
  00007	c1 e8 04	 shr	 eax, 4
  0000a	57		 push	 edi
  0000b	8b 7c 24 0c	 mov	 edi, DWORD PTR _hInstance$[esp+4]
  0000f	40		 inc	 eax
  00010	0f b7 c8	 movzx	 ecx, ax
  00013	6a 06		 push	 6
  00015	51		 push	 ecx
  00016	57		 push	 edi
  00017	ff 15 00 00 00
	00		 call	 DWORD PTR __imp__FindResourceA@12

; 284  : 	if( hResource == NULL )

  0001d	85 c0		 test	 eax, eax
  0001f	75 03		 jne	 SHORT $L39543
  00021	5f		 pop	 edi
  00022	5e		 pop	 esi

; 290  : }

  00023	c3		 ret	 0
$L39543:

; 285  : 	{
; 286  : 		return( NULL );
; 287  : 	}
; 288  : 
; 289  : 	return _AtlGetStringResourceImage( hInstance, hResource, id );

  00024	56		 push	 esi
  00025	50		 push	 eax
  00026	57		 push	 edi
  00027	e8 00 00 00 00	 call	 ?_AtlGetStringResourceImage@ATL@@YAPBUATLSTRINGRESOURCEIMAGE@1@PAUHINSTANCE__@@PAUHRSRC__@@I@Z ; ATL::_AtlGetStringResourceImage
  0002c	83 c4 0c	 add	 esp, 12			; 0000000cH
  0002f	5f		 pop	 edi
  00030	5e		 pop	 esi

; 290  : }

  00031	c3		 ret	 0
?AtlGetStringResourceImage@ATL@@YAPBUATLSTRINGRESOURCEIMAGE@1@PAUHINSTANCE__@@I@Z ENDP ; ATL::AtlGetStringResourceImage
_TEXT	ENDS
PUBLIC	?data@CStringData@ATL@@QAEPAXXZ			; ATL::CStringData::data
; Function compile flags: /Ogty
; File c:\program files\microsoft visual studio .net 2003\vc7\atlmfc\include\atlsimpstr.h
;	COMDAT ?data@CStringData@ATL@@QAEPAXXZ
_TEXT	SEGMENT
?data@CStringData@ATL@@QAEPAXXZ PROC NEAR		; ATL::CStringData::data, COMDAT
; _this$ = ecx

; 66   : 		return (this+1);

  00000	8d 41 10	 lea	 eax, DWORD PTR [ecx+16]

; 67   : 	}

  00003	c3		 ret	 0
?data@CStringData@ATL@@QAEPAXXZ ENDP			; ATL::CStringData::data
_TEXT	ENDS
PUBLIC	?IsLocked@CStringData@ATL@@QBE_NXZ		; ATL::CStringData::IsLocked
; Function compile flags: /Ogty
;	COMDAT ?IsLocked@CStringData@ATL@@QBE_NXZ
_TEXT	SEGMENT
?IsLocked@CStringData@ATL@@QBE_NXZ PROC NEAR		; ATL::CStringData::IsLocked, COMDAT
; _this$ = ecx

; 76   : 		return nRefs < 0;

  00000	8b 51 0c	 mov	 edx, DWORD PTR [ecx+12]
  00003	33 c0		 xor	 eax, eax
  00005	85 d2		 test	 edx, edx
  00007	0f 9c c0	 setl	 al

; 77   : 	}

  0000a	c3		 ret	 0
?IsLocked@CStringData@ATL@@QBE_NXZ ENDP			; ATL::CStringData::IsLocked
_TEXT	ENDS
PUBLIC	?IsShared@CStringData@ATL@@QBE_NXZ		; ATL::CStringData::IsShared
; Function compile flags: /Ogty
;	COMDAT ?IsShared@CStringData@ATL@@QBE_NXZ
_TEXT	SEGMENT
?IsShared@CStringData@ATL@@QBE_NXZ PROC NEAR		; ATL::CStringData::IsShared, COMDAT
; _this$ = ecx

; 80   : 		return( nRefs > 1 ); 

  00000	8b 51 0c	 mov	 edx, DWORD PTR [ecx+12]
  00003	33 c0		 xor	 eax, eax
  00005	83 fa 01	 cmp	 edx, 1
  00008	0f 9f c0	 setg	 al

; 81   : 	}

  0000b	c3		 ret	 0
?IsShared@CStringData@ATL@@QBE_NXZ ENDP			; ATL::CStringData::IsShared
_TEXT	ENDS
PUBLIC	?Release@CStringData@ATL@@QAEXXZ		; ATL::CStringData::Release
; Function compile flags: /Ogty
;	COMDAT ?Release@CStringData@ATL@@QAEXXZ
_TEXT	SEGMENT
?Release@CStringData@ATL@@QAEXXZ PROC NEAR		; ATL::CStringData::Release, COMDAT
; _this$ = ecx

; 93   : 		ATLASSERT( nRefs != 0 );
; 94   : 
; 95   : 		if( _InterlockedDecrement( &nRefs ) <= 0 )

  00000	8d 41 0c	 lea	 eax, DWORD PTR [ecx+12]
  00003	83 ca ff	 or	 edx, -1
  00006	f0 0f c1 10	 lock	  xadd	 DWORD PTR [eax], edx
  0000a	4a		 dec	 edx
  0000b	85 d2		 test	 edx, edx
  0000d	7f 0a		 jg	 SHORT $L39883

; 96   : 		{
; 97   : 			pStringMgr->Free( this );

  0000f	8b 01		 mov	 eax, DWORD PTR [ecx]
  00011	8b 10		 mov	 edx, DWORD PTR [eax]
  00013	51		 push	 ecx
  00014	8b c8		 mov	 ecx, eax
  00016	ff 52 04	 call	 DWORD PTR [edx+4]
$L39883:

; 98   : 		}
; 99   : 	}

  00019	c3		 ret	 0
?Release@CStringData@ATL@@QAEXXZ ENDP			; ATL::CStringData::Release
_TEXT	ENDS
PUBLIC	??0CTime@ATL@@QAE@_J@Z				; ATL::CTime::CTime
; Function compile flags: /Ogty
; File c:\program files\microsoft visual studio .net 2003\vc7\atlmfc\include\atltime.inl
;	COMDAT ??0CTime@ATL@@QAE@_J@Z
_TEXT	SEGMENT
_time$ = 8						; size = 8
??0CTime@ATL@@QAE@_J@Z PROC NEAR			; ATL::CTime::CTime, COMDAT
; _this$ = ecx

; 167  : {

  00000	8b 54 24 08	 mov	 edx, DWORD PTR _time$[esp]
  00004	8b c1		 mov	 eax, ecx
  00006	8b 4c 24 04	 mov	 ecx, DWORD PTR _time$[esp-4]
  0000a	89 08		 mov	 DWORD PTR [eax], ecx
  0000c	89 50 04	 mov	 DWORD PTR [eax+4], edx

; 168  : }

  0000f	c2 08 00	 ret	 8
??0CTime@ATL@@QAE@_J@Z ENDP				; ATL::CTime::CTime
_TEXT	ENDS
PUBLIC	??0CTime@ATL@@QAE@HHHHHHH@Z			; ATL::CTime::CTime
EXTRN	__mktime64:NEAR
; Function compile flags: /Ogty
;	COMDAT ??0CTime@ATL@@QAE@HHHHHHH@Z
_TEXT	SEGMENT
_atm$ = -36						; size = 36
_nYear$ = 8						; size = 4
_nMonth$ = 12						; size = 4
_nDay$ = 16						; size = 4
_nHour$ = 20						; size = 4
_nMin$ = 24						; size = 4
_nSec$ = 28						; size = 4
_nDST$ = 32						; size = 4
??0CTime@ATL@@QAE@HHHHHHH@Z PROC NEAR			; ATL::CTime::CTime, COMDAT
; _this$ = ecx

; 172  : {

  00000	83 ec 24	 sub	 esp, 36			; 00000024H

; 173  : 	struct tm atm;
; 174  : 	atm.tm_sec = nSec;

  00003	8b 44 24 3c	 mov	 eax, DWORD PTR _nSec$[esp+32]

; 175  : 	atm.tm_min = nMin;
; 176  : 	atm.tm_hour = nHour;

  00007	8b 54 24 34	 mov	 edx, DWORD PTR _nHour$[esp+32]
  0000b	56		 push	 esi
  0000c	8b f1		 mov	 esi, ecx
  0000e	8b 4c 24 3c	 mov	 ecx, DWORD PTR _nMin$[esp+36]
  00012	89 4c 24 08	 mov	 DWORD PTR _atm$[esp+44], ecx

; 177  : 	ATLASSERT(nDay >= 1 && nDay <= 31);
; 178  : 	atm.tm_mday = nDay;
; 179  : 	ATLASSERT(nMonth >= 1 && nMonth <= 12);
; 180  : 	atm.tm_mon = nMonth - 1;        // tm_mon is 0 based

  00016	8b 4c 24 30	 mov	 ecx, DWORD PTR _nMonth$[esp+36]
  0001a	89 44 24 04	 mov	 DWORD PTR _atm$[esp+40], eax
  0001e	8b 44 24 34	 mov	 eax, DWORD PTR _nDay$[esp+36]
  00022	49		 dec	 ecx
  00023	89 54 24 0c	 mov	 DWORD PTR _atm$[esp+48], edx

; 181  : 	ATLASSERT(nYear >= 1900);
; 182  : 	atm.tm_year = nYear - 1900;     // tm_year is 1900 based

  00027	8b 54 24 2c	 mov	 edx, DWORD PTR _nYear$[esp+36]
  0002b	89 4c 24 14	 mov	 DWORD PTR _atm$[esp+56], ecx
  0002f	89 44 24 10	 mov	 DWORD PTR _atm$[esp+52], eax

; 183  : 	atm.tm_isdst = nDST;

  00033	8b 44 24 44	 mov	 eax, DWORD PTR _nDST$[esp+36]

; 184  : 	m_time = _mktime64(&atm);

  00037	8d 4c 24 04	 lea	 ecx, DWORD PTR _atm$[esp+40]
  0003b	81 c2 94 f8 ff
	ff		 add	 edx, -1900		; fffff894H
  00041	51		 push	 ecx
  00042	89 54 24 1c	 mov	 DWORD PTR _atm$[esp+64], edx
  00046	89 44 24 28	 mov	 DWORD PTR _atm$[esp+76], eax
  0004a	e8 00 00 00 00	 call	 __mktime64
  0004f	89 56 04	 mov	 DWORD PTR [esi+4], edx

; 185  : 	ATLASSERT(m_time != -1);       // indicates an illegal input time
; 186  : 	
; 187  : 	if(m_time == -1)

  00052	8b 4e 04	 mov	 ecx, DWORD PTR [esi+4]
  00055	8b d0		 mov	 edx, eax
  00057	23 d1		 and	 edx, ecx
  00059	83 c4 04	 add	 esp, 4
  0005c	83 fa ff	 cmp	 edx, -1
  0005f	89 06		 mov	 DWORD PTR [esi], eax
  00061	75 0a		 jne	 SHORT $L42610

; 188  : 		AtlThrow(E_INVALIDARG);

  00063	68 57 00 07 80	 push	 -2147024809		; 80070057H
  00068	e8 00 00 00 00	 call	 ?AtlThrow@ATL@@YGXJ@Z	; ATL::AtlThrow
$L42610:

; 189  : }

  0006d	8b c6		 mov	 eax, esi
  0006f	5e		 pop	 esi
  00070	83 c4 24	 add	 esp, 36			; 00000024H
  00073	c2 1c 00	 ret	 28			; 0000001cH
$L210616:
??0CTime@ATL@@QAE@HHHHHHH@Z ENDP			; ATL::CTime::CTime
_TEXT	ENDS
PUBLIC	??0CTime@ATL@@QAE@ABU_SYSTEMTIME@@H@Z		; ATL::CTime::CTime
; Function compile flags: /Ogty
;	COMDAT ??0CTime@ATL@@QAE@ABU_SYSTEMTIME@@H@Z
_TEXT	SEGMENT
_timeT$42637 = -8					; size = 8
_sysTime$ = 8						; size = 4
_nDST$ = 12						; size = 4
??0CTime@ATL@@QAE@ABU_SYSTEMTIME@@H@Z PROC NEAR		; ATL::CTime::CTime, COMDAT
; _this$ = ecx

; 212  : 	if (sysTime.wYear < 1900)

  00000	8b 44 24 04	 mov	 eax, DWORD PTR _sysTime$[esp-4]
  00004	83 ec 08	 sub	 esp, 8
  00007	56		 push	 esi
  00008	8b f1		 mov	 esi, ecx
  0000a	66 8b 08	 mov	 cx, WORD PTR [eax]
  0000d	66 81 f9 6c 07	 cmp	 cx, 1900		; 0000076cH
  00012	73 16		 jae	 SHORT $L42627

; 213  : 	{
; 214  : 		__time64_t time0 = 0L;
; 215  : 		CTime timeT(time0);
; 216  : 		*this = timeT;

  00014	c7 06 00 00 00
	00		 mov	 DWORD PTR [esi], 0
  0001a	c7 46 04 00 00
	00 00		 mov	 DWORD PTR [esi+4], 0

; 225  : 	}
; 226  : }

  00021	8b c6		 mov	 eax, esi
  00023	5e		 pop	 esi
  00024	83 c4 08	 add	 esp, 8
  00027	c2 08 00	 ret	 8
$L42627:

; 217  : 	}
; 218  : 	else
; 219  : 	{
; 220  : 		CTime timeT(
; 221  : 			(int)sysTime.wYear, (int)sysTime.wMonth, (int)sysTime.wDay,
; 222  : 			(int)sysTime.wHour, (int)sysTime.wMinute, (int)sysTime.wSecond,
; 223  : 			nDST);

  0002a	8b 54 24 14	 mov	 edx, DWORD PTR _nDST$[esp+8]
  0002e	52		 push	 edx
  0002f	0f b7 50 0c	 movzx	 edx, WORD PTR [eax+12]
  00033	52		 push	 edx
  00034	0f b7 50 0a	 movzx	 edx, WORD PTR [eax+10]
  00038	52		 push	 edx
  00039	0f b7 50 08	 movzx	 edx, WORD PTR [eax+8]
  0003d	52		 push	 edx
  0003e	0f b7 50 06	 movzx	 edx, WORD PTR [eax+6]
  00042	0f b7 40 02	 movzx	 eax, WORD PTR [eax+2]
  00046	52		 push	 edx
  00047	0f b7 c9	 movzx	 ecx, cx
  0004a	50		 push	 eax
  0004b	51		 push	 ecx
  0004c	8d 4c 24 20	 lea	 ecx, DWORD PTR _timeT$42637[esp+40]
  00050	e8 00 00 00 00	 call	 ??0CTime@ATL@@QAE@HHHHHHH@Z ; ATL::CTime::CTime

; 224  : 		*this = timeT;

  00055	8b 44 24 08	 mov	 eax, DWORD PTR _timeT$42637[esp+16]
  00059	8b 54 24 04	 mov	 edx, DWORD PTR _timeT$42637[esp+12]
  0005d	89 46 04	 mov	 DWORD PTR [esi+4], eax
  00060	89 16		 mov	 DWORD PTR [esi], edx

; 225  : 	}
; 226  : }

  00062	8b c6		 mov	 eax, esi
  00064	5e		 pop	 esi
  00065	83 c4 08	 add	 esp, 8
  00068	c2 08 00	 ret	 8
??0CTime@ATL@@QAE@ABU_SYSTEMTIME@@H@Z ENDP		; ATL::CTime::CTime
_TEXT	ENDS
PUBLIC	?DBQryNewItemLog@CDbManager@@QAEXPADABU_LogItemInfo@@@Z ; CDbManager::DBQryNewItemLog
PUBLIC	??_C@_0DDM@PEJILMGA@LOG_ITEM_STR?5?$EAim_szName?$DN?8?$CFs?8?0?$EAis@ ; `string'
EXTRN	_sprintf:NEAR
EXTRN	?g_appInfo@@3UAppInfo@@A:QWORD			; g_appInfo
;	COMDAT ??_C@_0DDM@PEJILMGA@LOG_ITEM_STR?5?$EAim_szName?$DN?8?$CFs?8?0?$EAis@
; File c:\documents and settings\test\mes documents\source\virtuos_v17\build\program\_database\dbmanagerlog.cpp
CONST	SEGMENT
??_C@_0DDM@PEJILMGA@LOG_ITEM_STR?5?$EAim_szName?$DN?8?$CFs?8?0?$EAis@ DB 'L'
	DB	'OG_ITEM_STR @im_szName=''%s'',@iserverindex=''%02d'',@im_Gets'
	DB	'zName=''%s'',@idwWorldID=%d,@im_dwGold=%d,@im_nRemainGold=%d,'
	DB	'@iItem_UniqueNo=%d,@iItem_Name=''%s'',@iItem_durability=%d,@i'
	DB	'm_nAbilityOption=%d,@Im_GetdwGold=%d,@iItem_count=%d,@iState='
	DB	'''%s'',@im_nSlot0=%d,@im_nSlot1=%d,@im_bItemResist=%d,@im_nRe'
	DB	'sistAbilityOption=%d,@im_bCharged=%d,@im_dwKeepTime=%d,@im_nR'
	DB	'andomOptItemId=%I64d,@inPiercedSize=%d,@iadwItemId0=%d,@iadwI'
	DB	'temId1=%d,@iadwItemId2=%d,@iadwItemId3=%d,@iadwItemId4=%d,@iM'
	DB	'axDurability=%d,@inPetKind=%d,@inPetLevel=%d,@idwPetExp=%d,@i'
	DB	'wPetEnergy=%d,@iwPetLife=%d,@inPetAL_D=%d,@inPetAL_C=%d,@inPe'
	DB	'tAL_B=%d,@inPetAL_A=%d,@inPetAL_S=%d,@iadwItemId5=%d,@iadwIte'
	DB	'mId6=%d,@iadwItemId7=%d,@iadwItemId8=%d,@iadwItemId9=%d,@inUM'
	DB	'PiercedSize=%d,@iadwUMItemId0=%d,@iadwUMItemId1=%d,@iadwUMIte'
	DB	'mId2=%d,@iadwUMItemId3=%d,@iadwUMItemId4=%d', 00H ; `string'
; Function compile flags: /Ogty
CONST	ENDS
;	COMDAT ?DBQryNewItemLog@CDbManager@@QAEXPADABU_LogItemInfo@@@Z
_TEXT	SEGMENT
_qryLog$ = 8						; size = 4
_info$ = 12						; size = 4
?DBQryNewItemLog@CDbManager@@QAEXPADABU_LogItemInfo@@@Z PROC NEAR ; CDbManager::DBQryNewItemLog, COMDAT
; _this$ = ecx

; 1018 : 	sprintf( qryLog, "LOG_ITEM_STR "
; 1019 : 		"@im_szName='%s',@iserverindex='%02d',@im_GetszName='%s',@idwWorldID=%d,@im_dwGold=%d,@im_nRemainGold=%d,"
; 1020 : 		"@iItem_UniqueNo=%d,@iItem_Name='%s',@iItem_durability=%d,@im_nAbilityOption=%d,@Im_GetdwGold=%d,"
; 1021 : 		"@iItem_count=%d,@iState='%s',@im_nSlot0=%d,@im_nSlot1=%d,@im_bItemResist=%d,@im_nResistAbilityOption=%d"
; 1022 : 		",@im_bCharged=%d,@im_dwKeepTime=%d,"
; 1023 : #if __VER >= 11 // __SYS_IDENTIFY
; 1024 : 		"@im_nRandomOptItemId=%I64d"
; 1025 : #else	// __SYS_IDENTIFY
; 1026 : 		"@im_nRandomOptItemId=%d"
; 1027 : #endif	// __SYS_IDENTIFY
; 1028 : 		",@inPiercedSize=%d,@iadwItemId0=%d,@iadwItemId1=%d,@iadwItemId2=%d,@iadwItemId3=%d"
; 1029 : #if __VER >= 9 // __ULTIMATE
; 1030 : 		",@iadwItemId4=%d"
; 1031 : #endif // __ULTIMATE
; 1032 : 
; 1033 : 		",@iMaxDurability=%d"
; 1034 : 
; 1035 : #if __VER >= 9 // __PET_0410
; 1036 : 		",@inPetKind=%d,@inPetLevel=%d,@idwPetExp=%d,@iwPetEnergy=%d,@iwPetLife=%d"
; 1037 : 		",@inPetAL_D=%d,@inPetAL_C=%d,@inPetAL_B=%d,@inPetAL_A=%d,@inPetAL_S=%d"
; 1038 : #endif // __PET_0410
; 1039 : #if __VER >= 12 // __EXT_PIERCING
; 1040 : 		",@iadwItemId5=%d,@iadwItemId6=%d,@iadwItemId7=%d,@iadwItemId8=%d,@iadwItemId9=%d"
; 1041 : 		",@inUMPiercedSize=%d,@iadwUMItemId0=%d,@iadwUMItemId1=%d,@iadwUMItemId2=%d,@iadwUMItemId3=%d,@iadwUMItemId4=%d"
; 1042 : #endif // __EXT_PIERCING
; 1043 : 		,
; 1044 : 		info.SendName, g_appInfo.dwSys, info.RecvName, info.WorldId, info.Gold, info.Gold2, 
; 1045 : 		info.ItemNo, info.szItemName, info.Negudo, info.nAbilityOption, info.Gold_1,
; 1046 : 		info.itemNumber, info.Action, info.nSlot, info.nSlot1, info.nItemResist, info.nResistAbilityOption
; 1047 : 		, info.m_bCharged, info.m_dwKeepTime,
; 1048 : #if __VER >= 11 // __SYS_IDENTIFY
; 1049 : 		info.m_iRandomOptItemId
; 1050 : #else	// __SYS_IDENTIFY
; 1051 : 		info.m_nRandomOptItemId
; 1052 : #endif	// __SYS_IDENTIFY
; 1053 : #if __VER >= 12 // __EXT_PIERCING
; 1054 : 		, info.nPiercedSize, info.adwItemId[0], info.adwItemId[1], info.adwItemId[2], info.adwItemId[3]
; 1055 : 		, info.adwItemId[4]
; 1056 : #else // __EXT_PIERCING
; 1057 : 		, info.nPiercedSize, info.adwItemId0, info.adwItemId1, info.adwItemId2, info.adwItemId3
; 1058 : #if __VER >= 9 // __ULTIMATE
; 1059 : 		, info.adwItemId4
; 1060 : #endif // __ULTIMATE
; 1061 : #endif // __EXT_PIERCING
; 1062 : 		, info.MaxNegudo
; 1063 : #if __VER >= 9 // __PET_0410
; 1064 : 		, info.nPetKind, info.nPetLevel, info.dwPetExp, info.wPetEnergy, info.wPetLife
; 1065 : 		, info.nPetAL_D, info.nPetAL_C, info.nPetAL_B, info.nPetAL_A, info.nPetAL_S
; 1066 : #endif // __PET_0410
; 1067 : #if __VER >= 12 // __EXT_PIERCING
; 1068 : 		, info.adwItemId[5], info.adwItemId[6], info.adwItemId[7], info.adwItemId[8], info.adwItemId[9]
; 1069 : 		, info.nUMPiercedSize, info.adwUMItemId[0], info.adwUMItemId[1], info.adwUMItemId[2], info.adwUMItemId[3], info.adwUMItemId[4]
; 1070 : #endif // __EXT_PIERCING
; 1071 : 		);	

  00000	8b 44 24 08	 mov	 eax, DWORD PTR _info$[esp-4]
  00004	8b 88 b0 00 00
	00		 mov	 ecx, DWORD PTR [eax+176]
  0000a	51		 push	 ecx
  0000b	8b 90 ac 00 00
	00		 mov	 edx, DWORD PTR [eax+172]
  00011	52		 push	 edx
  00012	8b 88 a8 00 00
	00		 mov	 ecx, DWORD PTR [eax+168]
  00018	51		 push	 ecx
  00019	8b 90 a4 00 00
	00		 mov	 edx, DWORD PTR [eax+164]
  0001f	52		 push	 edx
  00020	8b 88 a0 00 00
	00		 mov	 ecx, DWORD PTR [eax+160]
  00026	51		 push	 ecx
  00027	8b 90 9c 00 00
	00		 mov	 edx, DWORD PTR [eax+156]
  0002d	52		 push	 edx
  0002e	8b 88 98 00 00
	00		 mov	 ecx, DWORD PTR [eax+152]
  00034	51		 push	 ecx
  00035	8b 90 94 00 00
	00		 mov	 edx, DWORD PTR [eax+148]
  0003b	52		 push	 edx
  0003c	8b 88 90 00 00
	00		 mov	 ecx, DWORD PTR [eax+144]
  00042	51		 push	 ecx
  00043	8b 90 8c 00 00
	00		 mov	 edx, DWORD PTR [eax+140]
  00049	52		 push	 edx
  0004a	8b 88 88 00 00
	00		 mov	 ecx, DWORD PTR [eax+136]
  00050	51		 push	 ecx
  00051	0f b6 90 c4 00
	00 00		 movzx	 edx, BYTE PTR [eax+196]
  00058	52		 push	 edx
  00059	0f b6 88 c3 00
	00 00		 movzx	 ecx, BYTE PTR [eax+195]
  00060	51		 push	 ecx
  00061	0f b6 90 c2 00
	00 00		 movzx	 edx, BYTE PTR [eax+194]
  00068	52		 push	 edx
  00069	0f b6 88 c1 00
	00 00		 movzx	 ecx, BYTE PTR [eax+193]
  00070	51		 push	 ecx
  00071	0f b6 90 c0 00
	00 00		 movzx	 edx, BYTE PTR [eax+192]
  00078	52		 push	 edx
  00079	0f b7 88 be 00
	00 00		 movzx	 ecx, WORD PTR [eax+190]
  00080	0f b7 90 bc 00
	00 00		 movzx	 edx, WORD PTR [eax+188]
  00087	51		 push	 ecx
  00088	8b 88 b8 00 00
	00		 mov	 ecx, DWORD PTR [eax+184]
  0008e	52		 push	 edx
  0008f	0f b6 90 b5 00
	00 00		 movzx	 edx, BYTE PTR [eax+181]
  00096	51		 push	 ecx
  00097	0f b6 88 b4 00
	00 00		 movzx	 ecx, BYTE PTR [eax+180]
  0009e	52		 push	 edx
  0009f	8b 50 20	 mov	 edx, DWORD PTR [eax+32]
  000a2	51		 push	 ecx
  000a3	8b 88 84 00 00
	00		 mov	 ecx, DWORD PTR [eax+132]
  000a9	52		 push	 edx
  000aa	8b 90 80 00 00
	00		 mov	 edx, DWORD PTR [eax+128]
  000b0	51		 push	 ecx
  000b1	8b 48 7c	 mov	 ecx, DWORD PTR [eax+124]
  000b4	52		 push	 edx
  000b5	8b 50 78	 mov	 edx, DWORD PTR [eax+120]
  000b8	51		 push	 ecx
  000b9	8b 48 74	 mov	 ecx, DWORD PTR [eax+116]
  000bc	52		 push	 edx
  000bd	8b 50 70	 mov	 edx, DWORD PTR [eax+112]
  000c0	51		 push	 ecx
  000c1	8b 48 6c	 mov	 ecx, DWORD PTR [eax+108]
  000c4	52		 push	 edx
  000c5	8b 50 68	 mov	 edx, DWORD PTR [eax+104]
  000c8	51		 push	 ecx
  000c9	8b 48 64	 mov	 ecx, DWORD PTR [eax+100]
  000cc	52		 push	 edx
  000cd	8b 50 60	 mov	 edx, DWORD PTR [eax+96]
  000d0	51		 push	 ecx
  000d1	8b 48 5c	 mov	 ecx, DWORD PTR [eax+92]
  000d4	52		 push	 edx
  000d5	8b 50 58	 mov	 edx, DWORD PTR [eax+88]
  000d8	51		 push	 ecx
  000d9	8b 48 54	 mov	 ecx, DWORD PTR [eax+84]
  000dc	52		 push	 edx
  000dd	8b 50 50	 mov	 edx, DWORD PTR [eax+80]
  000e0	51		 push	 ecx
  000e1	8b 08		 mov	 ecx, DWORD PTR [eax]
  000e3	52		 push	 edx
  000e4	8b 50 44	 mov	 edx, DWORD PTR [eax+68]
  000e7	51		 push	 ecx
  000e8	8b 48 4c	 mov	 ecx, DWORD PTR [eax+76]
  000eb	52		 push	 edx
  000ec	8b 50 48	 mov	 edx, DWORD PTR [eax+72]
  000ef	51		 push	 ecx
  000f0	52		 push	 edx
  000f1	8b 48 1c	 mov	 ecx, DWORD PTR [eax+28]
  000f4	51		 push	 ecx
  000f5	8b 48 18	 mov	 ecx, DWORD PTR [eax+24]
  000f8	8d 50 24	 lea	 edx, DWORD PTR [eax+36]
  000fb	52		 push	 edx
  000fc	8b 50 14	 mov	 edx, DWORD PTR [eax+20]
  000ff	51		 push	 ecx
  00100	8b 48 10	 mov	 ecx, DWORD PTR [eax+16]
  00103	52		 push	 edx
  00104	8b 50 0c	 mov	 edx, DWORD PTR [eax+12]
  00107	51		 push	 ecx
  00108	8b 48 08	 mov	 ecx, DWORD PTR [eax+8]
  0010b	8b 40 04	 mov	 eax, DWORD PTR [eax+4]
  0010e	52		 push	 edx
  0010f	8b 15 00 00 00
	00		 mov	 edx, DWORD PTR ?g_appInfo@@3UAppInfo@@A
  00115	51		 push	 ecx
  00116	8b 8c 24 c0 00
	00 00		 mov	 ecx, DWORD PTR _qryLog$[esp+184]
  0011d	52		 push	 edx
  0011e	50		 push	 eax
  0011f	68 00 00 00 00	 push	 OFFSET FLAT:??_C@_0DDM@PEJILMGA@LOG_ITEM_STR?5?$EAim_szName?$DN?8?$CFs?8?0?$EAis@
  00124	51		 push	 ecx
  00125	e8 00 00 00 00	 call	 _sprintf
  0012a	81 c4 cc 00 00
	00		 add	 esp, 204		; 000000ccH

; 1072 : 	if( strlen(qryLog) > 40960 )
; 1073 : 		ASSERT(0);
; 1074 : ///	TRACE("%s\n", qryLog);
; 1075 : }

  00130	c2 08 00	 ret	 8
?DBQryNewItemLog@CDbManager@@QAEXPADABU_LogItemInfo@@@Z ENDP ; CDbManager::DBQryNewItemLog
_TEXT	ENDS
PUBLIC	??_C@_0GH@LHPNFEPP@?2Documents?5and?5Settings?2test?2Mes@ ; `string'
PUBLIC	??_C@_0EL@JGHMGDLE@uspLoggingTrade?5?$EApFlag?$DN0?0?5?$EApTrad@ ; `string'
PUBLIC	??_C@_0JF@NEPENEDF@uspLoggingTrade?5?$EApFlag?$DN1?0?5?$EApTrad@ ; `string'
PUBLIC	??_C@_0MP@KFMPAGF@uspLoggingTrade?5?$EApFlag?$DN2?0?5?$EApTrad@ ; `string'
PUBLIC	??_C@_0L@EBJDFKBI@?$CFs?0?5?$CFd?3?7?$CFs?$AA@	; `string'
PUBLIC	?call_uspLoggingTrade@CDbManager@@QAEHPAVCQuery@@HHKKKPBDHHHKHHHH_J@Z ; CDbManager::call_uspLoggingTrade
EXTRN	?Exec@CQuery@@QAEHPBD@Z:NEAR			; CQuery::Exec
EXTRN	?WriteLog@@YAXPBDZZ:NEAR			; WriteLog
;	COMDAT ??_C@_0MP@KFMPAGF@uspLoggingTrade?5?$EApFlag?$DN2?0?5?$EApTrad@
CONST	SEGMENT
??_C@_0MP@KFMPAGF@uspLoggingTrade?5?$EApFlag?$DN2?0?5?$EApTrad@ DB 'uspLo'
	DB	'ggingTrade @pFlag=2, @pTradeID=%d, @pserverindex=''%02d'', @p'
	DB	'idPlayer=''%07d'', @pItemIndex=''%d'', @pItemSerialNum=%d, @p'
	DB	'ItemCnt=%d, @pAbilityOpt=%d, @pItemResist=%d, @pResistAbility'
	DB	'Opt=%d,@pRandomOpt=%I64d', 00H		; `string'
CONST	ENDS
;	COMDAT ??_C@_0JF@NEPENEDF@uspLoggingTrade?5?$EApFlag?$DN1?0?5?$EApTrad@
CONST	SEGMENT
??_C@_0JF@NEPENEDF@uspLoggingTrade?5?$EApFlag?$DN1?0?5?$EApTrad@ DB 'uspL'
	DB	'oggingTrade @pFlag=1, @pTradeID=%d, @pserverindex=''%02d'', @'
	DB	'pWorldID=%d, @pidPlayer=''%07d'', @pTradeGold=%d, @pPlayerIP='
	DB	'''%s'', @pLevel=%d, @pJob=%d', 00H		; `string'
CONST	ENDS
;	COMDAT ??_C@_0EL@JGHMGDLE@uspLoggingTrade?5?$EApFlag?$DN0?0?5?$EApTrad@
CONST	SEGMENT
??_C@_0EL@JGHMGDLE@uspLoggingTrade?5?$EApFlag?$DN0?0?5?$EApTrad@ DB 'uspL'
	DB	'oggingTrade @pFlag=0, @pTradeID=%d, @pserverindex=''%02d'', @'
	DB	'pWorldID=%d', 00H				; `string'
CONST	ENDS
;	COMDAT ??_C@_0GH@LHPNFEPP@?2Documents?5and?5Settings?2test?2Mes@
CONST	SEGMENT
??_C@_0GH@LHPNFEPP@?2Documents?5and?5Settings?2test?2Mes@ DB '\Documents '
	DB	'and Settings\test\Mes documents\Source\Virtuos_v17\Build\Prog'
	DB	'ram\_Database\DbManagerLog.cpp', 00H	; `string'
CONST	ENDS
;	COMDAT ??_C@_0L@EBJDFKBI@?$CFs?0?5?$CFd?3?7?$CFs?$AA@
CONST	SEGMENT
??_C@_0L@EBJDFKBI@?$CFs?0?5?$CFd?3?7?$CFs?$AA@ DB '%s, %d:', 09H, '%s', 00H ; `string'
; Function compile flags: /Ogty
CONST	ENDS
;	COMDAT ?call_uspLoggingTrade@CDbManager@@QAEHPAVCQuery@@HHKKKPBDHHHKHHHH_J@Z
_TEXT	SEGMENT
_pszQuery$ = -1032					; size = 1024
__$ArrayPad$ = -4					; size = 4
__$ReturnAddr$ = 4					; size = 4
_pQuery$ = 8						; size = 4
_nFlag$ = 12						; size = 4
_nTradeID$ = 16						; size = 4
_dwWorldID$ = 20					; size = 4
_idPlayer$ = 24						; size = 4
_dwTradeGold$ = 28					; size = 4
_lpAddr$ = 32						; size = 4
_nLevel$ = 36						; size = 4
_nJob$ = 40						; size = 4
_nItemIndex$ = 44					; size = 4
_iItemSerialNum$ = 48					; size = 4
_nItemCnt$ = 52						; size = 4
_nAbilityOpt$ = 56					; size = 4
_nItemResist$ = 60					; size = 4
_nResistAbilityOpt$ = 64				; size = 4
_iRandomOpt$ = 68					; size = 8
?call_uspLoggingTrade@CDbManager@@QAEHPAVCQuery@@HHKKKPBDHHHKHHHH_J@Z PROC NEAR ; CDbManager::call_uspLoggingTrade, COMDAT
; _this$ = ecx

; 1082 : {

  00000	55		 push	 ebp
  00001	8b ec		 mov	 ebp, esp
  00003	83 e4 f8	 and	 esp, -8			; fffffff8H
  00006	81 ec 08 04 00
	00		 sub	 esp, 1032		; 00000408H
  0000c	a1 00 00 00 00	 mov	 eax, DWORD PTR ___security_cookie
  00011	8b 55 20	 mov	 edx, DWORD PTR _lpAddr$[ebp]
  00014	33 c5		 xor	 eax, ebp
  00016	89 84 24 04 04
	00 00		 mov	 DWORD PTR __$ArrayPad$[esp+1032], eax
  0001d	56		 push	 esi
  0001e	8b 75 08	 mov	 esi, DWORD PTR _pQuery$[ebp]
  00021	57		 push	 edi

; 1083 : 	char pszQuery[1024]	= { 0, };

  00022	33 c0		 xor	 eax, eax
  00024	c6 44 24 08 00	 mov	 BYTE PTR _pszQuery$[esp+1040], 0
  00029	b9 ff 00 00 00	 mov	 ecx, 255		; 000000ffH
  0002e	8d 7c 24 09	 lea	 edi, DWORD PTR _pszQuery$[esp+1041]
  00032	f3 ab		 rep stosd
  00034	66 ab		 stosw
  00036	aa		 stosb

; 1084 : 	switch( nFlag )

  00037	8b 45 0c	 mov	 eax, DWORD PTR _nFlag$[ebp]
  0003a	83 e8 00	 sub	 eax, 0
  0003d	0f 84 80 00 00
	00		 je	 $L208731
  00043	48		 dec	 eax
  00044	74 49		 je	 SHORT $L208733
  00046	48		 dec	 eax
  00047	0f 85 96 00 00
	00		 jne	 $L208728

; 1097 : 			}
; 1098 : 		case 2:
; 1099 : 			{
; 1100 : 				sprintf( pszQuery, "uspLoggingTrade @pFlag=2, @pTradeID=%d, @pserverindex='%02d', @pidPlayer='%07d', @pItemIndex='%d', @pItemSerialNum=%d, @pItemCnt=%d, @pAbilityOpt=%d, @pItemResist=%d, @pResistAbilityOpt=%d,"
; 1101 : #if __VER >= 11 // __SYS_IDENTIFY
; 1102 : 						"@pRandomOpt=%I64d",
; 1103 : #else	// __SYS_IDENTIFY
; 1104 : 						"@pRandomOpt=%d",
; 1105 : #endif	// __SYS_IDENTIFY
; 1106 : #if __VER >= 11 // __SYS_IDENTIFY
; 1107 : 					nTradeID, g_appInfo.dwSys, idPlayer, nItemIndex, iItemSerialNum, nItemCnt, nAbilityOpt, nItemResist, nResistAbilityOpt, iRandomOpt );

  0004d	8b 45 48	 mov	 eax, DWORD PTR _iRandomOpt$[ebp+4]
  00050	8b 4d 44	 mov	 ecx, DWORD PTR _iRandomOpt$[ebp]
  00053	8b 55 40	 mov	 edx, DWORD PTR _nResistAbilityOpt$[ebp]
  00056	50		 push	 eax
  00057	8b 45 3c	 mov	 eax, DWORD PTR _nItemResist$[ebp]
  0005a	51		 push	 ecx
  0005b	8b 4d 38	 mov	 ecx, DWORD PTR _nAbilityOpt$[ebp]
  0005e	52		 push	 edx
  0005f	8b 55 34	 mov	 edx, DWORD PTR _nItemCnt$[ebp]
  00062	50		 push	 eax
  00063	8b 45 30	 mov	 eax, DWORD PTR _iItemSerialNum$[ebp]
  00066	51		 push	 ecx
  00067	8b 4d 2c	 mov	 ecx, DWORD PTR _nItemIndex$[ebp]
  0006a	52		 push	 edx
  0006b	8b 55 18	 mov	 edx, DWORD PTR _idPlayer$[ebp]
  0006e	50		 push	 eax
  0006f	a1 00 00 00 00	 mov	 eax, DWORD PTR ?g_appInfo@@3UAppInfo@@A
  00074	51		 push	 ecx
  00075	8b 4d 10	 mov	 ecx, DWORD PTR _nTradeID$[ebp]
  00078	52		 push	 edx
  00079	50		 push	 eax
  0007a	51		 push	 ecx
  0007b	8d 54 24 34	 lea	 edx, DWORD PTR _pszQuery$[esp+1084]
  0007f	68 00 00 00 00	 push	 OFFSET FLAT:??_C@_0MP@KFMPAGF@uspLoggingTrade?5?$EApFlag?$DN2?0?5?$EApTrad@
  00084	52		 push	 edx
  00085	e8 00 00 00 00	 call	 _sprintf
  0008a	83 c4 34	 add	 esp, 52			; 00000034H

; 1108 : #else	// __SYS_IDENTIFY
; 1109 : 					nTradeID, g_appInfo.dwSys, idPlayer, nItemIndex, iItemSerialNum, nItemCnt, nAbilityOpt, nItemResist, nResistAbilityOpt, nRandomOpt );
; 1110 : #endif	// __SYS_IDENTIFY
; 1111 : 				break;

  0008d	eb 54		 jmp	 SHORT $L208728
$L208733:

; 1090 : 				break;
; 1091 : 			}
; 1092 : 		case 1:
; 1093 : 			{
; 1094 : 				sprintf( pszQuery, "uspLoggingTrade @pFlag=1, @pTradeID=%d, @pserverindex='%02d', @pWorldID=%d, @pidPlayer='%07d', @pTradeGold=%d, @pPlayerIP='%s', @pLevel=%d, @pJob=%d",
; 1095 : 					nTradeID, g_appInfo.dwSys, dwWorldID, idPlayer, dwTradeGold, lpAddr, nLevel, nJob );

  0008f	8b 45 28	 mov	 eax, DWORD PTR _nJob$[ebp]
  00092	8b 4d 24	 mov	 ecx, DWORD PTR _nLevel$[ebp]
  00095	50		 push	 eax
  00096	8b 45 18	 mov	 eax, DWORD PTR _idPlayer$[ebp]
  00099	51		 push	 ecx
  0009a	8b 4d 14	 mov	 ecx, DWORD PTR _dwWorldID$[ebp]
  0009d	52		 push	 edx
  0009e	8b 55 1c	 mov	 edx, DWORD PTR _dwTradeGold$[ebp]
  000a1	52		 push	 edx
  000a2	8b 15 00 00 00
	00		 mov	 edx, DWORD PTR ?g_appInfo@@3UAppInfo@@A
  000a8	50		 push	 eax
  000a9	8b 45 10	 mov	 eax, DWORD PTR _nTradeID$[ebp]
  000ac	51		 push	 ecx
  000ad	52		 push	 edx
  000ae	50		 push	 eax
  000af	8d 4c 24 28	 lea	 ecx, DWORD PTR _pszQuery$[esp+1072]
  000b3	68 00 00 00 00	 push	 OFFSET FLAT:??_C@_0JF@NEPENEDF@uspLoggingTrade?5?$EApFlag?$DN1?0?5?$EApTrad@
  000b8	51		 push	 ecx
  000b9	e8 00 00 00 00	 call	 _sprintf
  000be	83 c4 28	 add	 esp, 40			; 00000028H

; 1096 : 				break;

  000c1	eb 20		 jmp	 SHORT $L208728
$L208731:

; 1085 : 	{
; 1086 : 		case 0:
; 1087 : 			{
; 1088 : 				sprintf( pszQuery, "uspLoggingTrade @pFlag=0, @pTradeID=%d, @pserverindex='%02d', @pWorldID=%d",
; 1089 : 					nTradeID, g_appInfo.dwSys, dwWorldID );

  000c3	8b 55 14	 mov	 edx, DWORD PTR _dwWorldID$[ebp]
  000c6	a1 00 00 00 00	 mov	 eax, DWORD PTR ?g_appInfo@@3UAppInfo@@A
  000cb	8b 4d 10	 mov	 ecx, DWORD PTR _nTradeID$[ebp]
  000ce	52		 push	 edx
  000cf	50		 push	 eax
  000d0	51		 push	 ecx
  000d1	8d 54 24 14	 lea	 edx, DWORD PTR _pszQuery$[esp+1052]
  000d5	68 00 00 00 00	 push	 OFFSET FLAT:??_C@_0EL@JGHMGDLE@uspLoggingTrade?5?$EApFlag?$DN0?0?5?$EApTrad@
  000da	52		 push	 edx
  000db	e8 00 00 00 00	 call	 _sprintf
  000e0	83 c4 14	 add	 esp, 20			; 00000014H
$L208728:

; 1112 : 			}
; 1113 : 	}
; 1114 : 	if ( FALSE == pQuery->Exec( pszQuery ) )

  000e3	8d 44 24 08	 lea	 eax, DWORD PTR _pszQuery$[esp+1040]
  000e7	50		 push	 eax
  000e8	8b ce		 mov	 ecx, esi
  000ea	e8 00 00 00 00	 call	 ?Exec@CQuery@@QAEHPBD@Z	; CQuery::Exec
  000ef	85 c0		 test	 eax, eax
  000f1	75 34		 jne	 SHORT $L208737

; 1115 : 	{
; 1116 : 		WriteLog( "%s, %d:\t%s", __FILE__, __LINE__, pszQuery );

  000f3	8d 4c 24 08	 lea	 ecx, DWORD PTR _pszQuery$[esp+1040]
  000f7	51		 push	 ecx
  000f8	68 5c 04 00 00	 push	 1116			; 0000045cH
  000fd	68 00 00 00 00	 push	 OFFSET FLAT:??_C@_0GH@LHPNFEPP@?2Documents?5and?5Settings?2test?2Mes@
  00102	68 00 00 00 00	 push	 OFFSET FLAT:??_C@_0L@EBJDFKBI@?$CFs?0?5?$CFd?3?7?$CFs?$AA@
  00107	e8 00 00 00 00	 call	 ?WriteLog@@YAXPBDZZ	; WriteLog
  0010c	83 c4 10	 add	 esp, 16			; 00000010H

; 1117 : 		return FALSE;

  0010f	33 c0		 xor	 eax, eax

; 1118 : 	}
; 1119 : //	OutputDebugString( pszQuery );
; 1120 : 	return TRUE;
; 1121 : }

  00111	5f		 pop	 edi
  00112	5e		 pop	 esi
  00113	8b 8c 24 04 04
	00 00		 mov	 ecx, DWORD PTR __$ArrayPad$[esp+1032]
  0011a	33 cd		 xor	 ecx, ebp
  0011c	e8 00 00 00 00	 call	 @__security_check_cookie@4
  00121	8b e5		 mov	 esp, ebp
  00123	5d		 pop	 ebp
  00124	c2 44 00	 ret	 68			; 00000044H
$L208737:
  00127	8b 8c 24 0c 04
	00 00		 mov	 ecx, DWORD PTR __$ArrayPad$[esp+1040]
  0012e	5f		 pop	 edi
  0012f	33 cd		 xor	 ecx, ebp
  00131	b8 01 00 00 00	 mov	 eax, 1
  00136	5e		 pop	 esi
  00137	e8 00 00 00 00	 call	 @__security_check_cookie@4
  0013c	8b e5		 mov	 esp, ebp
  0013e	5d		 pop	 ebp
  0013f	c2 44 00	 ret	 68			; 00000044H
?call_uspLoggingTrade@CDbManager@@QAEHPAVCQuery@@HHKKKPBDHHHKHHHH_J@Z ENDP ; CDbManager::call_uspLoggingTrade
_TEXT	ENDS
PUBLIC	?CharNextA@?$ChTraitsCRT@D@ATL@@SAPADPBD@Z	; ATL::ChTraitsCRT<char>::CharNextA
EXTRN	__mbsinc:NEAR
; Function compile flags: /Ogty
; File c:\program files\microsoft visual studio .net 2003\vc7\atlmfc\include\cstringt.h
;	COMDAT ?CharNextA@?$ChTraitsCRT@D@ATL@@SAPADPBD@Z
_TEXT	SEGMENT
_p$ = 8							; size = 4
?CharNextA@?$ChTraitsCRT@D@ATL@@SAPADPBD@Z PROC NEAR	; ATL::ChTraitsCRT<char>::CharNextA, COMDAT

; 321  : 		return reinterpret_cast< char* >( _mbsinc( reinterpret_cast< const unsigned char* >( p ) ) );

  00000	e9 00 00 00 00	 jmp	 __mbsinc
?CharNextA@?$ChTraitsCRT@D@ATL@@SAPADPBD@Z ENDP		; ATL::ChTraitsCRT<char>::CharNextA
_TEXT	ENDS
PUBLIC	?SafeStringLen@?$ChTraitsCRT@D@ATL@@SAHPBD@Z	; ATL::ChTraitsCRT<char>::SafeStringLen
; Function compile flags: /Ogty
;	COMDAT ?SafeStringLen@?$ChTraitsCRT@D@ATL@@SAHPBD@Z
_TEXT	SEGMENT
_psz$ = 8						; size = 4
?SafeStringLen@?$ChTraitsCRT@D@ATL@@SAHPBD@Z PROC NEAR	; ATL::ChTraitsCRT<char>::SafeStringLen, COMDAT

; 508  : 		// returns length in bytes
; 509  : 		return (psz != NULL) ? int( strlen( psz ) ) : 0;

  00000	8b 44 24 04	 mov	 eax, DWORD PTR _psz$[esp-4]
  00004	85 c0		 test	 eax, eax
  00006	74 12		 je	 SHORT $L210635
  00008	8d 50 01	 lea	 edx, DWORD PTR [eax+1]
  0000b	eb 03 8d 49 00	 npad	 5
$L210637:
  00010	8a 08		 mov	 cl, BYTE PTR [eax]
  00012	40		 inc	 eax
  00013	84 c9		 test	 cl, cl
  00015	75 f9		 jne	 SHORT $L210637
  00017	2b c2		 sub	 eax, edx

; 510  : 	}

  00019	c3		 ret	 0
$L210635:

; 508  : 		// returns length in bytes
; 509  : 		return (psz != NULL) ? int( strlen( psz ) ) : 0;

  0001a	33 c0		 xor	 eax, eax

; 510  : 	}

  0001c	c3		 ret	 0
?SafeStringLen@?$ChTraitsCRT@D@ATL@@SAHPBD@Z ENDP	; ATL::ChTraitsCRT<char>::SafeStringLen
_TEXT	ENDS
PUBLIC	??_C@_00CNPNBAHC@?$AA@				; `string'
PUBLIC	??0_LogItemInfo@@QAE@XZ				; _LogItemInfo::_LogItemInfo
;	COMDAT ??_C@_00CNPNBAHC@?$AA@
; File c:\documents and settings\test\mes documents\source\virtuos_v17\build\program\_network\cmnhdr.h
CONST	SEGMENT
??_C@_00CNPNBAHC@?$AA@ DB 00H				; `string'
; Function compile flags: /Ogty
CONST	ENDS
;	COMDAT ??0_LogItemInfo@@QAE@XZ
_TEXT	SEGMENT
??0_LogItemInfo@@QAE@XZ PROC NEAR			; _LogItemInfo::_LogItemInfo, COMDAT
; _this$ = ecx

; 641  : 	_LogItemInfo()

  00000	8b c1		 mov	 eax, ecx
  00002	56		 push	 esi

; 642  : 	{
; 643  : 		Action = _T("");
; 644  : 		SendName = _T("");
; 645  : 		RecvName = _T("");
; 646  : 		WorldId = Gold = Gold2 = 0;
; 647  : 		Negudo = 0;
; 648  : 		MaxNegudo = 0;
; 649  : 		ItemNo = 0;
; 650  : 		//ItemName = _T("");
; 651  : 		::memset( szItemName, 0, sizeof(szItemName) );

  00003	33 d2		 xor	 edx, edx
  00005	b9 00 00 00 00	 mov	 ecx, OFFSET FLAT:??_C@_00CNPNBAHC@?$AA@
  0000a	89 08		 mov	 DWORD PTR [eax], ecx
  0000c	89 48 04	 mov	 DWORD PTR [eax+4], ecx
  0000f	89 48 08	 mov	 DWORD PTR [eax+8], ecx
  00012	33 c9		 xor	 ecx, ecx
  00014	89 48 14	 mov	 DWORD PTR [eax+20], ecx
  00017	89 48 10	 mov	 DWORD PTR [eax+16], ecx
  0001a	89 48 0c	 mov	 DWORD PTR [eax+12], ecx
  0001d	89 48 1c	 mov	 DWORD PTR [eax+28], ecx
  00020	89 48 20	 mov	 DWORD PTR [eax+32], ecx
  00023	89 48 18	 mov	 DWORD PTR [eax+24], ecx
  00026	8d 70 24	 lea	 esi, DWORD PTR [eax+36]
  00029	89 16		 mov	 DWORD PTR [esi], edx
  0002b	89 56 04	 mov	 DWORD PTR [esi+4], edx
  0002e	89 56 08	 mov	 DWORD PTR [esi+8], edx
  00031	89 56 0c	 mov	 DWORD PTR [esi+12], edx
  00034	89 56 10	 mov	 DWORD PTR [esi+16], edx
  00037	89 56 14	 mov	 DWORD PTR [esi+20], edx
  0003a	89 56 18	 mov	 DWORD PTR [esi+24], edx
  0003d	89 56 1c	 mov	 DWORD PTR [esi+28], edx

; 652  : 		itemNumber = 0;

  00040	89 48 44	 mov	 DWORD PTR [eax+68], ecx

; 653  : 		nAbilityOption = 0;

  00043	89 48 48	 mov	 DWORD PTR [eax+72], ecx

; 654  : 		Gold_1 = 0;

  00046	89 48 4c	 mov	 DWORD PTR [eax+76], ecx

; 655  : 		nSlot = 100;
; 656  : 		nSlot1 = 100;
; 657  : 		nItemResist = 0;

  00049	89 48 58	 mov	 DWORD PTR [eax+88], ecx

; 658  : 		nResistAbilityOption = 0;

  0004c	89 48 5c	 mov	 DWORD PTR [eax+92], ecx

; 659  : 		m_bCharged = FALSE;

  0004f	89 48 60	 mov	 DWORD PTR [eax+96], ecx

; 660  : 		m_dwKeepTime = 0;

  00052	89 48 64	 mov	 DWORD PTR [eax+100], ecx

; 661  : #if __VER >= 11 // __SYS_IDENTIFY
; 662  : 		m_iRandomOptItemId = 0;

  00055	89 48 68	 mov	 DWORD PTR [eax+104], ecx
  00058	89 48 6c	 mov	 DWORD PTR [eax+108], ecx

; 663  : #else	//__SYS_IDENTIFY
; 664  : 		m_nRandomOptItemId = 0;
; 665  : #endif	// __SYS_IDENTIFY
; 666  : #if __VER >= 12 // __EXT_PIERCING
; 667  : 		nPiercedSize = 0;

  0005b	89 48 70	 mov	 DWORD PTR [eax+112], ecx
  0005e	ba 64 00 00 00	 mov	 edx, 100		; 00000064H
  00063	89 50 50	 mov	 DWORD PTR [eax+80], edx
  00066	89 50 54	 mov	 DWORD PTR [eax+84], edx

; 668  : //		for( int i=0; i<MAX_PIERCING_WEAPON; i++ )
; 669  : //			adwItemId[i] = 0;
; 670  : 		memset( adwItemId, 0, sizeof(adwItemId) );

  00069	33 d2		 xor	 edx, edx
  0006b	8d 70 74	 lea	 esi, DWORD PTR [eax+116]
  0006e	89 16		 mov	 DWORD PTR [esi], edx
  00070	89 56 04	 mov	 DWORD PTR [esi+4], edx
  00073	89 56 08	 mov	 DWORD PTR [esi+8], edx
  00076	89 56 0c	 mov	 DWORD PTR [esi+12], edx
  00079	89 56 10	 mov	 DWORD PTR [esi+16], edx
  0007c	89 56 14	 mov	 DWORD PTR [esi+20], edx
  0007f	89 56 18	 mov	 DWORD PTR [esi+24], edx
  00082	89 56 1c	 mov	 DWORD PTR [esi+28], edx
  00085	89 56 20	 mov	 DWORD PTR [esi+32], edx
  00088	89 56 24	 mov	 DWORD PTR [esi+36], edx

; 671  : 		nUMPiercedSize = 0;

  0008b	89 88 9c 00 00
	00		 mov	 DWORD PTR [eax+156], ecx

; 672  : //		for( i=0; i<MAX_PIERCING_ULTIMATE; i++ )
; 673  : //	adwUMItemId[i] = 0;
; 674  : 		memset( adwUMItemId, 0, sizeof(adwUMItemId) );

  00091	8d b0 a0 00 00
	00		 lea	 esi, DWORD PTR [eax+160]
  00097	89 16		 mov	 DWORD PTR [esi], edx
  00099	89 56 04	 mov	 DWORD PTR [esi+4], edx
  0009c	89 56 08	 mov	 DWORD PTR [esi+8], edx
  0009f	89 56 0c	 mov	 DWORD PTR [esi+12], edx
  000a2	89 56 10	 mov	 DWORD PTR [esi+16], edx

; 675  : #else // __EXT_PIERCING
; 676  : 		nPiercedSize = 0;
; 677  : 		adwItemId0 = 0;
; 678  : 		adwItemId1 = 0;
; 679  : 		adwItemId2 = 0;
; 680  : 		adwItemId3 = 0;
; 681  : #if __VER >= 9 // __ULTIMATE
; 682  : 		adwItemId4 = 0;
; 683  : #endif // __ULTIMATE
; 684  : #endif // __EXT_PIERCING
; 685  : #if __VER >= 9 // __PET_0410
; 686  : 		nPetKind = 0;

  000a5	88 88 b4 00 00
	00		 mov	 BYTE PTR [eax+180], cl

; 687  : 		nPetLevel = 0;

  000ab	88 88 b5 00 00
	00		 mov	 BYTE PTR [eax+181], cl

; 688  : 		dwPetExp = 0;

  000b1	89 88 b8 00 00
	00		 mov	 DWORD PTR [eax+184], ecx

; 689  : 		wPetEnergy = 0;

  000b7	66 89 88 bc 00
	00 00		 mov	 WORD PTR [eax+188], cx

; 690  : 		wPetLife = 0;

  000be	66 89 88 be 00
	00 00		 mov	 WORD PTR [eax+190], cx

; 691  : 		nPetAL_D = 0;

  000c5	88 88 c0 00 00
	00		 mov	 BYTE PTR [eax+192], cl

; 692  : 		nPetAL_C = 0;

  000cb	88 88 c1 00 00
	00		 mov	 BYTE PTR [eax+193], cl

; 693  : 		nPetAL_B = 0;

  000d1	88 88 c2 00 00
	00		 mov	 BYTE PTR [eax+194], cl

; 694  : 		nPetAL_A = 0;

  000d7	88 88 c3 00 00
	00		 mov	 BYTE PTR [eax+195], cl

; 695  : 		nPetAL_S = 0;

  000dd	88 88 c4 00 00
	00		 mov	 BYTE PTR [eax+196], cl
  000e3	5e		 pop	 esi

; 696  : #endif // __PET_0410
; 697  : 	}

  000e4	c3		 ret	 0
??0_LogItemInfo@@QAE@XZ ENDP				; _LogItemInfo::_LogItemInfo
_TEXT	ENDS
PUBLIC	??0D3DXVECTOR3@@QAE@XZ				; D3DXVECTOR3::D3DXVECTOR3
; Function compile flags: /Ogty
; File c:\documents and settings\test\mes documents\source\virtuos_v17\build\program\dx_sdk\d3dx9math.h
;	COMDAT ??0D3DXVECTOR3@@QAE@XZ
_TEXT	SEGMENT
??0D3DXVECTOR3@@QAE@XZ PROC NEAR			; D3DXVECTOR3::D3DXVECTOR3, COMDAT
; _this$ = ecx

; 165  :     D3DXVECTOR3() {};

  00000	8b c1		 mov	 eax, ecx
  00002	c3		 ret	 0
??0D3DXVECTOR3@@QAE@XZ ENDP				; D3DXVECTOR3::D3DXVECTOR3
_TEXT	ENDS
PUBLIC	??0D3DXVECTOR3@@QAE@MMM@Z			; D3DXVECTOR3::D3DXVECTOR3
EXTRN	__fltused:NEAR
; Function compile flags: /Ogty
; File c:\documents and settings\test\mes documents\source\virtuos_v17\build\program\dx_sdk\d3dx9math.inl
;	COMDAT ??0D3DXVECTOR3@@QAE@MMM@Z
_TEXT	SEGMENT
_fx$ = 8						; size = 4
_fy$ = 12						; size = 4
_fz$ = 16						; size = 4
??0D3DXVECTOR3@@QAE@MMM@Z PROC NEAR			; D3DXVECTOR3::D3DXVECTOR3, COMDAT
; _this$ = ecx

; 300  :     x = fx;
; 301  :     y = fy;

  00000	8b 54 24 08	 mov	 edx, DWORD PTR _fy$[esp-4]
  00004	8b c1		 mov	 eax, ecx
  00006	8b 4c 24 04	 mov	 ecx, DWORD PTR _fx$[esp-4]
  0000a	89 08		 mov	 DWORD PTR [eax], ecx

; 302  :     z = fz;

  0000c	8b 4c 24 0c	 mov	 ecx, DWORD PTR _fz$[esp-4]
  00010	89 50 04	 mov	 DWORD PTR [eax+4], edx
  00013	89 48 08	 mov	 DWORD PTR [eax+8], ecx

; 303  : }

  00016	c2 0c 00	 ret	 12			; 0000000cH
??0D3DXVECTOR3@@QAE@MMM@Z ENDP				; D3DXVECTOR3::D3DXVECTOR3
_TEXT	ENDS
PUBLIC	??5CAr@@QAEAAV0@AAE@Z				; CAr::operator>>
; Function compile flags: /Ogty
; File c:\documents and settings\test\mes documents\source\virtuos_v17\build\program\_network\misc\include\ar.h
;	COMDAT ??5CAr@@QAEAAV0@AAE@Z
_TEXT	SEGMENT
_by$ = 8						; size = 4
??5CAr@@QAEAAV0@AAE@Z PROC NEAR				; CAr::operator>>, COMDAT
; _this$ = ecx

; 142  : 	{	CAR_SAFE_READ( BYTE, by );	}

  00000	8b c1		 mov	 eax, ecx
  00002	8b 48 08	 mov	 ecx, DWORD PTR [eax+8]
  00005	56		 push	 esi
  00006	8b 70 0c	 mov	 esi, DWORD PTR [eax+12]
  00009	8d 51 01	 lea	 edx, DWORD PTR [ecx+1]
  0000c	3b d6		 cmp	 edx, esi
  0000e	5e		 pop	 esi
  0000f	77 0e		 ja	 SHORT $L162848
  00011	8a 09		 mov	 cl, BYTE PTR [ecx]
  00013	8b 54 24 04	 mov	 edx, DWORD PTR _by$[esp-4]
  00017	88 0a		 mov	 BYTE PTR [edx], cl
  00019	ff 40 08	 inc	 DWORD PTR [eax+8]
  0001c	c2 04 00	 ret	 4
$L162848:
  0001f	8b 4c 24 04	 mov	 ecx, DWORD PTR _by$[esp-4]
  00023	c6 01 00	 mov	 BYTE PTR [ecx], 0
  00026	8b 50 0c	 mov	 edx, DWORD PTR [eax+12]
  00029	89 50 08	 mov	 DWORD PTR [eax+8], edx
  0002c	c2 04 00	 ret	 4
??5CAr@@QAEAAV0@AAE@Z ENDP				; CAr::operator>>
_TEXT	ENDS
PUBLIC	??5CAr@@QAEAAV0@AAG@Z				; CAr::operator>>
; Function compile flags: /Ogty
;	COMDAT ??5CAr@@QAEAAV0@AAG@Z
_TEXT	SEGMENT
_w$ = 8							; size = 4
??5CAr@@QAEAAV0@AAG@Z PROC NEAR				; CAr::operator>>, COMDAT
; _this$ = ecx

; 144  : 	{	CAR_SAFE_READ( WORD, w );	}

  00000	8b c1		 mov	 eax, ecx
  00002	8b 48 08	 mov	 ecx, DWORD PTR [eax+8]
  00005	56		 push	 esi
  00006	8b 70 0c	 mov	 esi, DWORD PTR [eax+12]
  00009	8d 51 02	 lea	 edx, DWORD PTR [ecx+2]
  0000c	3b d6		 cmp	 edx, esi
  0000e	5e		 pop	 esi
  0000f	77 11		 ja	 SHORT $L162858
  00011	66 8b 09	 mov	 cx, WORD PTR [ecx]
  00014	8b 54 24 04	 mov	 edx, DWORD PTR _w$[esp-4]
  00018	66 89 0a	 mov	 WORD PTR [edx], cx
  0001b	83 40 08 02	 add	 DWORD PTR [eax+8], 2
  0001f	c2 04 00	 ret	 4
$L162858:
  00022	8b 4c 24 04	 mov	 ecx, DWORD PTR _w$[esp-4]
  00026	66 c7 01 00 00	 mov	 WORD PTR [ecx], 0
  0002b	8b 50 0c	 mov	 edx, DWORD PTR [eax+12]
  0002e	89 50 08	 mov	 DWORD PTR [eax+8], edx
  00031	c2 04 00	 ret	 4
??5CAr@@QAEAAV0@AAG@Z ENDP				; CAr::operator>>
_TEXT	ENDS
PUBLIC	??5CAr@@QAEAAV0@AAK@Z				; CAr::operator>>
; Function compile flags: /Ogty
;	COMDAT ??5CAr@@QAEAAV0@AAK@Z
_TEXT	SEGMENT
_dw$ = 8						; size = 4
??5CAr@@QAEAAV0@AAK@Z PROC NEAR				; CAr::operator>>, COMDAT
; _this$ = ecx

; 146  : 	{	CAR_SAFE_READ( DWORD, dw );	}

  00000	8b c1		 mov	 eax, ecx
  00002	8b 48 08	 mov	 ecx, DWORD PTR [eax+8]
  00005	56		 push	 esi
  00006	8b 70 0c	 mov	 esi, DWORD PTR [eax+12]
  00009	8d 51 04	 lea	 edx, DWORD PTR [ecx+4]
  0000c	3b d6		 cmp	 edx, esi
  0000e	5e		 pop	 esi
  0000f	77 0f		 ja	 SHORT $L162868
  00011	8b 09		 mov	 ecx, DWORD PTR [ecx]
  00013	8b 54 24 04	 mov	 edx, DWORD PTR _dw$[esp-4]
  00017	89 0a		 mov	 DWORD PTR [edx], ecx
  00019	83 40 08 04	 add	 DWORD PTR [eax+8], 4
  0001d	c2 04 00	 ret	 4
$L162868:
  00020	8b 4c 24 04	 mov	 ecx, DWORD PTR _dw$[esp-4]
  00024	c7 01 00 00 00
	00		 mov	 DWORD PTR [ecx], 0
  0002a	8b 50 0c	 mov	 edx, DWORD PTR [eax+12]
  0002d	89 50 08	 mov	 DWORD PTR [eax+8], edx
  00030	c2 04 00	 ret	 4
??5CAr@@QAEAAV0@AAK@Z ENDP				; CAr::operator>>
_TEXT	ENDS
PUBLIC	??5CAr@@QAEAAV0@AAJ@Z				; CAr::operator>>
; Function compile flags: /Ogty
;	COMDAT ??5CAr@@QAEAAV0@AAJ@Z
_TEXT	SEGMENT
_l$ = 8							; size = 4
??5CAr@@QAEAAV0@AAJ@Z PROC NEAR				; CAr::operator>>, COMDAT
; _this$ = ecx

; 152  : 	{	CAR_SAFE_READ( LONG, l );	}

  00000	8b c1		 mov	 eax, ecx
  00002	8b 48 08	 mov	 ecx, DWORD PTR [eax+8]
  00005	56		 push	 esi
  00006	8b 70 0c	 mov	 esi, DWORD PTR [eax+12]
  00009	8d 51 04	 lea	 edx, DWORD PTR [ecx+4]
  0000c	3b d6		 cmp	 edx, esi
  0000e	5e		 pop	 esi
  0000f	77 0f		 ja	 SHORT $L162898
  00011	8b 09		 mov	 ecx, DWORD PTR [ecx]
  00013	8b 54 24 04	 mov	 edx, DWORD PTR _l$[esp-4]
  00017	89 0a		 mov	 DWORD PTR [edx], ecx
  00019	83 40 08 04	 add	 DWORD PTR [eax+8], 4
  0001d	c2 04 00	 ret	 4
$L162898:
  00020	8b 4c 24 04	 mov	 ecx, DWORD PTR _l$[esp-4]
  00024	c7 01 00 00 00
	00		 mov	 DWORD PTR [ecx], 0
  0002a	8b 50 0c	 mov	 edx, DWORD PTR [eax+12]
  0002d	89 50 08	 mov	 DWORD PTR [eax+8], edx
  00030	c2 04 00	 ret	 4
??5CAr@@QAEAAV0@AAJ@Z ENDP				; CAr::operator>>
_TEXT	ENDS
PUBLIC	??5@YAAAVCAr@@AAV0@AAUD3DXVECTOR3@@@Z		; operator>>
EXTRN	?Read@CAr@@QAEXPAXI@Z:NEAR			; CAr::Read
; Function compile flags: /Ogty
;	COMDAT ??5@YAAAVCAr@@AAV0@AAUD3DXVECTOR3@@@Z
_TEXT	SEGMENT
_ar$ = 8						; size = 4
_v$ = 12						; size = 4
??5@YAAAVCAr@@AAV0@AAUD3DXVECTOR3@@@Z PROC NEAR		; operator>>, COMDAT

; 160  : 	{	ar.Read( &v, sizeof(D3DXVECTOR3) );		return ar;	}

  00000	8b 44 24 08	 mov	 eax, DWORD PTR _v$[esp-4]
  00004	56		 push	 esi
  00005	8b 74 24 08	 mov	 esi, DWORD PTR _ar$[esp]
  00009	6a 0c		 push	 12			; 0000000cH
  0000b	50		 push	 eax
  0000c	8b ce		 mov	 ecx, esi
  0000e	e8 00 00 00 00	 call	 ?Read@CAr@@QAEXPAXI@Z	; CAr::Read
  00013	8b c6		 mov	 eax, esi
  00015	5e		 pop	 esi
  00016	c3		 ret	 0
??5@YAAAVCAr@@AAV0@AAUD3DXVECTOR3@@@Z ENDP		; operator>>
_TEXT	ENDS
PUBLIC	??5@YAAAVCAr@@AAV0@AA_J@Z			; operator>>
; Function compile flags: /Ogty
;	COMDAT ??5@YAAAVCAr@@AAV0@AA_J@Z
_TEXT	SEGMENT
_ar$ = 8						; size = 4
_i$ = 12						; size = 4
??5@YAAAVCAr@@AAV0@AA_J@Z PROC NEAR			; operator>>, COMDAT

; 166  : 	{	ar.Read( &i, sizeof(__int64) );	return ar;	}

  00000	8b 44 24 08	 mov	 eax, DWORD PTR _i$[esp-4]
  00004	56		 push	 esi
  00005	8b 74 24 08	 mov	 esi, DWORD PTR _ar$[esp]
  00009	6a 08		 push	 8
  0000b	50		 push	 eax
  0000c	8b ce		 mov	 ecx, esi
  0000e	e8 00 00 00 00	 call	 ?Read@CAr@@QAEXPAXI@Z	; CAr::Read
  00013	8b c6		 mov	 eax, esi
  00015	5e		 pop	 esi
  00016	c3		 ret	 0
??5@YAAAVCAr@@AAV0@AA_J@Z ENDP				; operator>>
_TEXT	ENDS
PUBLIC	??B?$CSimpleStringT@D$0A@@ATL@@QBEPBDXZ		; ATL::CSimpleStringT<char,0>::operator char const *
; Function compile flags: /Ogty
; File c:\program files\microsoft visual studio .net 2003\vc7\atlmfc\include\atlsimpstr.h
;	COMDAT ??B?$CSimpleStringT@D$0A@@ATL@@QBEPBDXZ
_TEXT	SEGMENT
??B?$CSimpleStringT@D$0A@@ATL@@QBEPBDXZ PROC NEAR	; ATL::CSimpleStringT<char,0>::operator char const *, COMDAT
; _this$ = ecx

; 379  : 		return( m_pszData );

  00000	8b 01		 mov	 eax, DWORD PTR [ecx]

; 380  : 	}

  00002	c3		 ret	 0
??B?$CSimpleStringT@D$0A@@ATL@@QBEPBDXZ ENDP		; ATL::CSimpleStringT<char,0>::operator char const *
_TEXT	ENDS
PUBLIC	?GetString@?$CSimpleStringT@D$0A@@ATL@@QBEPBDXZ	; ATL::CSimpleStringT<char,0>::GetString
; Function compile flags: /Ogty
;	COMDAT ?GetString@?$CSimpleStringT@D$0A@@ATL@@QBEPBDXZ
_TEXT	SEGMENT
?GetString@?$CSimpleStringT@D$0A@@ATL@@QBEPBDXZ PROC NEAR ; ATL::CSimpleStringT<char,0>::GetString, COMDAT
; _this$ = ecx

; 510  : 		return( m_pszData );

  00000	8b 01		 mov	 eax, DWORD PTR [ecx]

; 511  : 	}

  00002	c3		 ret	 0
?GetString@?$CSimpleStringT@D$0A@@ATL@@QBEPBDXZ ENDP	; ATL::CSimpleStringT<char,0>::GetString
_TEXT	ENDS
PUBLIC	?StringLength@?$CSimpleStringT@D$0A@@ATL@@SAHPBD@Z ; ATL::CSimpleStringT<char,0>::StringLength
; Function compile flags: /Ogty
;	COMDAT ?StringLength@?$CSimpleStringT@D$0A@@ATL@@SAHPBD@Z
_TEXT	SEGMENT
_psz$ = 8						; size = 4
?StringLength@?$CSimpleStringT@D$0A@@ATL@@SAHPBD@Z PROC NEAR ; ATL::CSimpleStringT<char,0>::StringLength, COMDAT

; 678  : 		if( psz == NULL )

  00000	8b 44 24 04	 mov	 eax, DWORD PTR _psz$[esp-4]
  00004	85 c0		 test	 eax, eax
  00006	75 01		 jne	 SHORT $L184226

; 683  : 	}

  00008	c3		 ret	 0
$L184226:

; 679  : 		{
; 680  : 			return( 0 );
; 681  : 		}
; 682  : 		return( int( strlen( psz ) ) );

  00009	8d 50 01	 lea	 edx, DWORD PTR [eax+1]
  0000c	8d 64 24 00	 npad	 4
$L210663:
  00010	8a 08		 mov	 cl, BYTE PTR [eax]
  00012	40		 inc	 eax
  00013	84 c9		 test	 cl, cl
  00015	75 f9		 jne	 SHORT $L210663
  00017	2b c2		 sub	 eax, edx

; 683  : 	}

  00019	c3		 ret	 0
?StringLength@?$CSimpleStringT@D$0A@@ATL@@SAHPBD@Z ENDP	; ATL::CSimpleStringT<char,0>::StringLength
_TEXT	ENDS
PUBLIC	?GetData@?$CSimpleStringT@D$0A@@ATL@@ABEPAUCStringData@2@XZ ; ATL::CSimpleStringT<char,0>::GetData
; Function compile flags: /Ogty
;	COMDAT ?GetData@?$CSimpleStringT@D$0A@@ATL@@ABEPAUCStringData@2@XZ
_TEXT	SEGMENT
?GetData@?$CSimpleStringT@D$0A@@ATL@@ABEPAUCStringData@2@XZ PROC NEAR ; ATL::CSimpleStringT<char,0>::GetData, COMDAT
; _this$ = ecx

; 731  : 		return( reinterpret_cast< CStringData* >( m_pszData )-1 );

  00000	8b 01		 mov	 eax, DWORD PTR [ecx]
  00002	83 e8 10	 sub	 eax, 16			; 00000010H

; 732  : 	}

  00005	c3		 ret	 0
?GetData@?$CSimpleStringT@D$0A@@ATL@@ABEPAUCStringData@2@XZ ENDP ; ATL::CSimpleStringT<char,0>::GetData
_TEXT	ENDS
PUBLIC	?SetLength@?$CSimpleStringT@D$0A@@ATL@@AAEXH@Z	; ATL::CSimpleStringT<char,0>::SetLength
; Function compile flags: /Ogty
;	COMDAT ?SetLength@?$CSimpleStringT@D$0A@@ATL@@AAEXH@Z
_TEXT	SEGMENT
_nLength$ = 8						; size = 4
?SetLength@?$CSimpleStringT@D$0A@@ATL@@AAEXH@Z PROC NEAR ; ATL::CSimpleStringT<char,0>::SetLength, COMDAT
; _this$ = ecx

; 790  : 		ATLASSERT( nLength >= 0 );
; 791  : 		ATLASSERT( nLength <= GetData()->nAllocLength );
; 792  : 
; 793  : 		if( nLength < 0 || nLength > GetData()->nAllocLength)

  00000	8b 44 24 04	 mov	 eax, DWORD PTR _nLength$[esp-4]
  00004	85 c0		 test	 eax, eax
  00006	7c 13		 jl	 SHORT $L184241
  00008	8b 11		 mov	 edx, DWORD PTR [ecx]
  0000a	3b 42 f8	 cmp	 eax, DWORD PTR [edx-8]
  0000d	7f 0c		 jg	 SHORT $L184241

; 794  : 			AtlThrow(E_INVALIDARG);
; 795  : 			
; 796  : 		GetData()->nDataLength = nLength;

  0000f	89 42 f4	 mov	 DWORD PTR [edx-12], eax

; 797  : 		m_pszData[nLength] = 0;

  00012	8b 09		 mov	 ecx, DWORD PTR [ecx]
  00014	c6 04 08 00	 mov	 BYTE PTR [eax+ecx], 0

; 798  : 	}

  00018	c2 04 00	 ret	 4
$L184241:
  0001b	68 57 00 07 80	 push	 -2147024809		; 80070057H
  00020	e8 00 00 00 00	 call	 ?AtlThrow@ATL@@YGXJ@Z	; ATL::AtlThrow
$L210674:
  00025	cc		 int	 3
?SetLength@?$CSimpleStringT@D$0A@@ATL@@AAEXH@Z ENDP	; ATL::CSimpleStringT<char,0>::SetLength
_TEXT	ENDS
PUBLIC	?FindStringResourceInstance@?$StrTraitMFC@DV?$ChTraitsCRT@D@ATL@@@@SAPAUHINSTANCE__@@I@Z ; StrTraitMFC<char,ATL::ChTraitsCRT<char> >::FindStringResourceInstance
EXTRN	?AfxFindStringResourceHandle@@YGPAUHINSTANCE__@@I@Z:NEAR ; AfxFindStringResourceHandle
; Function compile flags: /Ogty
; File c:\program files\microsoft visual studio .net 2003\vc7\atlmfc\include\afxstr.h
;	COMDAT ?FindStringResourceInstance@?$StrTraitMFC@DV?$ChTraitsCRT@D@ATL@@@@SAPAUHINSTANCE__@@I@Z
_TEXT	SEGMENT
_nID$ = 8						; size = 4
?FindStringResourceInstance@?$StrTraitMFC@DV?$ChTraitsCRT@D@ATL@@@@SAPAUHINSTANCE__@@I@Z PROC NEAR ; StrTraitMFC<char,ATL::ChTraitsCRT<char> >::FindStringResourceInstance, COMDAT

; 45   : 		return( AfxFindStringResourceHandle( nID ) );

  00000	8b 44 24 04	 mov	 eax, DWORD PTR _nID$[esp-4]
  00004	50		 push	 eax
  00005	e8 00 00 00 00	 call	 ?AfxFindStringResourceHandle@@YGPAUHINSTANCE__@@I@Z ; AfxFindStringResourceHandle

; 46   : 	}

  0000a	c3		 ret	 0
?FindStringResourceInstance@?$StrTraitMFC@DV?$ChTraitsCRT@D@ATL@@@@SAPAUHINSTANCE__@@I@Z ENDP ; StrTraitMFC<char,ATL::ChTraitsCRT<char> >::FindStringResourceInstance
_TEXT	ENDS
PUBLIC	?GetDefaultManager@?$StrTraitMFC@DV?$ChTraitsCRT@D@ATL@@@@SAPAUIAtlStringMgr@ATL@@XZ ; StrTraitMFC<char,ATL::ChTraitsCRT<char> >::GetDefaultManager
EXTRN	?AfxGetStringManager@@YGPAUIAtlStringMgr@ATL@@XZ:NEAR ; AfxGetStringManager
; Function compile flags: /Ogty
;	COMDAT ?GetDefaultManager@?$StrTraitMFC@DV?$ChTraitsCRT@D@ATL@@@@SAPAUIAtlStringMgr@ATL@@XZ
_TEXT	SEGMENT
?GetDefaultManager@?$StrTraitMFC@DV?$ChTraitsCRT@D@ATL@@@@SAPAUIAtlStringMgr@ATL@@XZ PROC NEAR ; StrTraitMFC<char,ATL::ChTraitsCRT<char> >::GetDefaultManager, COMDAT

; 50   : 		return( AfxGetStringManager() );

  00000	e9 00 00 00 00	 jmp	 ?AfxGetStringManager@@YGPAUIAtlStringMgr@ATL@@XZ ; AfxGetStringManager
?GetDefaultManager@?$StrTraitMFC@DV?$ChTraitsCRT@D@ATL@@@@SAPAUIAtlStringMgr@ATL@@XZ ENDP ; StrTraitMFC<char,ATL::ChTraitsCRT<char> >::GetDefaultManager
_TEXT	ENDS
PUBLIC	?StringFindString@?$ChTraitsCRT@D@ATL@@SAPBDPBD0@Z ; ATL::ChTraitsCRT<char>::StringFindString
EXTRN	__mbsstr:NEAR
; Function compile flags: /Ogty
; File c:\program files\microsoft visual studio .net 2003\vc7\atlmfc\include\cstringt.h
;	COMDAT ?StringFindString@?$ChTraitsCRT@D@ATL@@SAPBDPBD0@Z
_TEXT	SEGMENT
_pszBlock$ = 8						; size = 4
_pszMatch$ = 12						; size = 4
?StringFindString@?$ChTraitsCRT@D@ATL@@SAPBDPBD0@Z PROC NEAR ; ATL::ChTraitsCRT<char>::StringFindString, COMDAT

; 356  : 		return reinterpret_cast< LPCSTR >( _mbsstr( reinterpret_cast< const unsigned char* >( pszBlock ),
; 357  : 			reinterpret_cast< const unsigned char* >( pszMatch ) ) );

  00000	e9 00 00 00 00	 jmp	 __mbsstr
?StringFindString@?$ChTraitsCRT@D@ATL@@SAPBDPBD0@Z ENDP	; ATL::ChTraitsCRT<char>::StringFindString
_TEXT	ENDS
PUBLIC	?Attach@?$CSimpleStringT@D$0A@@ATL@@AAEXPAUCStringData@2@@Z ; ATL::CSimpleStringT<char,0>::Attach
; Function compile flags: /Ogty
; File c:\program files\microsoft visual studio .net 2003\vc7\atlmfc\include\atlsimpstr.h
;	COMDAT ?Attach@?$CSimpleStringT@D$0A@@ATL@@AAEXPAUCStringData@2@@Z
_TEXT	SEGMENT
_pData$ = 8						; size = 4
?Attach@?$CSimpleStringT@D$0A@@ATL@@AAEXPAUCStringData@2@@Z PROC NEAR ; ATL::CSimpleStringT<char,0>::Attach, COMDAT
; _this$ = ecx

; 712  : 		m_pszData = static_cast< PXSTR >( pData->data() );

  00000	8b 44 24 04	 mov	 eax, DWORD PTR _pData$[esp-4]
  00004	83 c0 10	 add	 eax, 16			; 00000010H
  00007	89 01		 mov	 DWORD PTR [ecx], eax

; 713  : 	}

  00009	c2 04 00	 ret	 4
?Attach@?$CSimpleStringT@D$0A@@ATL@@AAEXPAUCStringData@2@@Z ENDP ; ATL::CSimpleStringT<char,0>::Attach
_TEXT	ENDS
PUBLIC	?GetBaseTypeLength@?$ChTraitsCRT@D@ATL@@SAHPBGH@Z ; ATL::ChTraitsCRT<char>::GetBaseTypeLength
EXTRN	__imp__WideCharToMultiByte@32:NEAR
; Function compile flags: /Ogty
; File c:\program files\microsoft visual studio .net 2003\vc7\atlmfc\include\cstringt.h
;	COMDAT ?GetBaseTypeLength@?$ChTraitsCRT@D@ATL@@SAHPBGH@Z
_TEXT	SEGMENT
_pszSource$ = 8						; size = 4
_nLength$ = 12						; size = 4
?GetBaseTypeLength@?$ChTraitsCRT@D@ATL@@SAHPBGH@Z PROC NEAR ; ATL::ChTraitsCRT<char>::GetBaseTypeLength, COMDAT

; 437  : 		// Returns required buffer length in XCHARs
; 438  : 		return ::WideCharToMultiByte( _AtlGetConversionACP(), 0, pszSource, nLength, NULL, 0, NULL, NULL );

  00000	ff 15 00 00 00
	00		 call	 DWORD PTR ?g_pfnGetThreadACP@ATL@@3P6GIXZA ; ATL::g_pfnGetThreadACP
  00006	8b 4c 24 08	 mov	 ecx, DWORD PTR _nLength$[esp-4]
  0000a	8b 54 24 04	 mov	 edx, DWORD PTR _pszSource$[esp-4]
  0000e	6a 00		 push	 0
  00010	6a 00		 push	 0
  00012	6a 00		 push	 0
  00014	6a 00		 push	 0
  00016	51		 push	 ecx
  00017	52		 push	 edx
  00018	6a 00		 push	 0
  0001a	50		 push	 eax
  0001b	ff 15 00 00 00
	00		 call	 DWORD PTR __imp__WideCharToMultiByte@32

; 439  : 	}

  00021	c3		 ret	 0
?GetBaseTypeLength@?$ChTraitsCRT@D@ATL@@SAHPBGH@Z ENDP	; ATL::ChTraitsCRT<char>::GetBaseTypeLength
_TEXT	ENDS
PUBLIC	?ConvertToBaseType@?$ChTraitsCRT@D@ATL@@SAXPADHPBGH@Z ; ATL::ChTraitsCRT<char>::ConvertToBaseType
; Function compile flags: /Ogty
;	COMDAT ?ConvertToBaseType@?$ChTraitsCRT@D@ATL@@SAXPADHPBGH@Z
_TEXT	SEGMENT
_pszDest$ = 8						; size = 4
_nDestLength$ = 12					; size = 4
_pszSrc$ = 16						; size = 4
_nSrcLength$ = 20					; size = 4
?ConvertToBaseType@?$ChTraitsCRT@D@ATL@@SAXPADHPBGH@Z PROC NEAR ; ATL::ChTraitsCRT<char>::ConvertToBaseType, COMDAT

; 452  : 		// nLen is in XCHARs
; 453  : 		::WideCharToMultiByte( _AtlGetConversionACP(), 0, pszSrc, nSrcLength, pszDest, nDestLength, NULL, NULL );

  00000	8b 44 24 08	 mov	 eax, DWORD PTR _nDestLength$[esp-4]
  00004	8b 4c 24 04	 mov	 ecx, DWORD PTR _pszDest$[esp-4]
  00008	8b 54 24 10	 mov	 edx, DWORD PTR _nSrcLength$[esp-4]
  0000c	6a 00		 push	 0
  0000e	6a 00		 push	 0
  00010	50		 push	 eax
  00011	8b 44 24 18	 mov	 eax, DWORD PTR _pszSrc$[esp+8]
  00015	51		 push	 ecx
  00016	52		 push	 edx
  00017	50		 push	 eax
  00018	6a 00		 push	 0
  0001a	ff 15 00 00 00
	00		 call	 DWORD PTR ?g_pfnGetThreadACP@ATL@@3P6GIXZA ; ATL::g_pfnGetThreadACP
  00020	50		 push	 eax
  00021	ff 15 00 00 00
	00		 call	 DWORD PTR __imp__WideCharToMultiByte@32

; 454  : 	}

  00027	c3		 ret	 0
?ConvertToBaseType@?$ChTraitsCRT@D@ATL@@SAXPADHPBGH@Z ENDP ; ATL::ChTraitsCRT<char>::ConvertToBaseType
_TEXT	ENDS
PUBLIC	?CopyChars@?$CSimpleStringT@D$0A@@ATL@@SAXPADPBDH@Z ; ATL::CSimpleStringT<char,0>::CopyChars
; Function compile flags: /Ogty
; File c:\program files\microsoft visual studio .net 2003\vc7\atlmfc\include\atlsimpstr.h
;	COMDAT ?CopyChars@?$CSimpleStringT@D$0A@@ATL@@SAXPADPBDH@Z
_TEXT	SEGMENT
_pchDest$ = 8						; size = 4
_pchSrc$ = 12						; size = 4
_nChars$ = 16						; size = 4
?CopyChars@?$CSimpleStringT@D$0A@@ATL@@SAXPADPBDH@Z PROC NEAR ; ATL::CSimpleStringT<char,0>::CopyChars, COMDAT

; 653  : 		memcpy( pchDest, pchSrc, nChars*sizeof( XCHAR ) );

  00000	8b 4c 24 0c	 mov	 ecx, DWORD PTR _nChars$[esp-4]
  00004	56		 push	 esi
  00005	8b 74 24 0c	 mov	 esi, DWORD PTR _pchSrc$[esp]
  00009	8b c1		 mov	 eax, ecx
  0000b	57		 push	 edi
  0000c	8b 7c 24 0c	 mov	 edi, DWORD PTR _pchDest$[esp+4]
  00010	c1 e9 02	 shr	 ecx, 2
  00013	f3 a5		 rep movsd
  00015	8b c8		 mov	 ecx, eax
  00017	83 e1 03	 and	 ecx, 3
  0001a	f3 a4		 rep movsb
  0001c	5f		 pop	 edi
  0001d	5e		 pop	 esi

; 654  : 	}

  0001e	c3		 ret	 0
?CopyChars@?$CSimpleStringT@D$0A@@ATL@@SAXPADPBDH@Z ENDP ; ATL::CSimpleStringT<char,0>::CopyChars
_TEXT	ENDS
PUBLIC	?CopyCharsOverlapped@?$CSimpleStringT@D$0A@@ATL@@SAXPADPBDH@Z ; ATL::CSimpleStringT<char,0>::CopyCharsOverlapped
EXTRN	_memmove:NEAR
; Function compile flags: /Ogty
;	COMDAT ?CopyCharsOverlapped@?$CSimpleStringT@D$0A@@ATL@@SAXPADPBDH@Z
_TEXT	SEGMENT
_pchDest$ = 8						; size = 4
_pchSrc$ = 12						; size = 4
_nChars$ = 16						; size = 4
?CopyCharsOverlapped@?$CSimpleStringT@D$0A@@ATL@@SAXPADPBDH@Z PROC NEAR ; ATL::CSimpleStringT<char,0>::CopyCharsOverlapped, COMDAT

; 657  : 		memmove( pchDest, pchSrc, nChars*sizeof( XCHAR ) );

  00000	e9 00 00 00 00	 jmp	 _memmove
?CopyCharsOverlapped@?$CSimpleStringT@D$0A@@ATL@@SAXPADPBDH@Z ENDP ; ATL::CSimpleStringT<char,0>::CopyCharsOverlapped
_TEXT	ENDS
PUBLIC	?ThrowMemoryException@?$CSimpleStringT@D$0A@@ATL@@KAXXZ ; ATL::CSimpleStringT<char,0>::ThrowMemoryException
; Function compile flags: /Ogty
;	COMDAT ?ThrowMemoryException@?$CSimpleStringT@D$0A@@ATL@@KAXXZ
_TEXT	SEGMENT
?ThrowMemoryException@?$CSimpleStringT@D$0A@@ATL@@KAXXZ PROC NEAR ; ATL::CSimpleStringT<char,0>::ThrowMemoryException, COMDAT

; 705  : 		AtlThrow( E_OUTOFMEMORY );

  00000	68 0e 00 07 80	 push	 -2147024882		; 8007000eH
  00005	e8 00 00 00 00	 call	 ?AtlThrow@ATL@@YGXJ@Z	; ATL::AtlThrow
$L210705:
  0000a	cc		 int	 3
?ThrowMemoryException@?$CSimpleStringT@D$0A@@ATL@@KAXXZ ENDP ; ATL::CSimpleStringT<char,0>::ThrowMemoryException
_TEXT	ENDS
PUBLIC	?Fork@?$CSimpleStringT@D$0A@@ATL@@AAEXH@Z	; ATL::CSimpleStringT<char,0>::Fork
; Function compile flags: /Ogty
;	COMDAT ?Fork@?$CSimpleStringT@D$0A@@ATL@@AAEXH@Z
_TEXT	SEGMENT
_this$ = -4						; size = 4
tv181 = 8						; size = 4
_nLength$ = 8						; size = 4
?Fork@?$CSimpleStringT@D$0A@@ATL@@AAEXH@Z PROC NEAR	; ATL::CSimpleStringT<char,0>::Fork, COMDAT
; _this$ = ecx

; 715  : 	{

  00000	51		 push	 ecx
  00001	53		 push	 ebx

; 716  : 		CStringData* pOldData = GetData();

  00002	8b 19		 mov	 ebx, DWORD PTR [ecx]
  00004	83 eb 10	 sub	 ebx, 16			; 00000010H
  00007	55		 push	 ebp

; 717  : 		int nOldLength = pOldData->nDataLength;

  00008	8b 6b 04	 mov	 ebp, DWORD PTR [ebx+4]
  0000b	89 4c 24 08	 mov	 DWORD PTR _this$[esp+12], ecx

; 718  : 		CStringData* pNewData = pOldData->pStringMgr->Clone()->Allocate( nLength, sizeof( XCHAR ) );

  0000f	8b 0b		 mov	 ecx, DWORD PTR [ebx]
  00011	8b 01		 mov	 eax, DWORD PTR [ecx]
  00013	56		 push	 esi
  00014	ff 50 10	 call	 DWORD PTR [eax+16]
  00017	8b 74 24 14	 mov	 esi, DWORD PTR _nLength$[esp+12]
  0001b	8b 10		 mov	 edx, DWORD PTR [eax]
  0001d	6a 01		 push	 1
  0001f	56		 push	 esi
  00020	8b c8		 mov	 ecx, eax
  00022	ff 12		 call	 DWORD PTR [edx]

; 719  : 		if( pNewData == NULL )

  00024	85 c0		 test	 eax, eax
  00026	75 05		 jne	 SHORT $L185534

; 720  : 		{
; 721  : 			ThrowMemoryException();

  00028	e8 00 00 00 00	 call	 ?ThrowMemoryException@?$CSimpleStringT@D$0A@@ATL@@KAXXZ ; ATL::CSimpleStringT<char,0>::ThrowMemoryException
$L185534:

; 722  : 		}
; 723  : 		int nCharsToCopy = ((nOldLength < nLength) ? nOldLength : nLength)+1;  // Copy '\0'

  0002d	3b ee		 cmp	 ebp, esi
  0002f	7d 02		 jge	 SHORT $L210709
  00031	8b f5		 mov	 esi, ebp
$L210709:
  00033	8d 4e 01	 lea	 ecx, DWORD PTR [esi+1]

; 724  : 		CopyChars( PXSTR( pNewData->data() ), PCXSTR( pOldData->data() ), nCharsToCopy );

  00036	8b d1		 mov	 edx, ecx
  00038	57		 push	 edi
  00039	c1 e9 02	 shr	 ecx, 2
  0003c	8d 78 10	 lea	 edi, DWORD PTR [eax+16]
  0003f	89 7c 24 18	 mov	 DWORD PTR tv181[esp+16], edi
  00043	8d 73 10	 lea	 esi, DWORD PTR [ebx+16]
  00046	f3 a5		 rep movsd
  00048	8b ca		 mov	 ecx, edx
  0004a	83 e1 03	 and	 ecx, 3
  0004d	f3 a4		 rep movsb

; 725  : 		pNewData->nDataLength = nOldLength;

  0004f	89 68 04	 mov	 DWORD PTR [eax+4], ebp

; 726  : 		pOldData->Release();

  00052	8d 43 0c	 lea	 eax, DWORD PTR [ebx+12]
  00055	83 c9 ff	 or	 ecx, -1
  00058	f0 0f c1 08	 lock	  xadd	 DWORD PTR [eax], ecx
  0005c	49		 dec	 ecx
  0005d	85 c9		 test	 ecx, ecx
  0005f	5f		 pop	 edi
  00060	7f 08		 jg	 SHORT $L210725
  00062	8b 0b		 mov	 ecx, DWORD PTR [ebx]
  00064	8b 11		 mov	 edx, DWORD PTR [ecx]
  00066	53		 push	 ebx
  00067	ff 52 04	 call	 DWORD PTR [edx+4]
$L210725:

; 727  : 		Attach( pNewData );

  0006a	8b 44 24 14	 mov	 eax, DWORD PTR tv181[esp+12]
  0006e	8b 4c 24 0c	 mov	 ecx, DWORD PTR _this$[esp+16]
  00072	5e		 pop	 esi
  00073	5d		 pop	 ebp
  00074	89 01		 mov	 DWORD PTR [ecx], eax
  00076	5b		 pop	 ebx

; 728  : 	}

  00077	59		 pop	 ecx
  00078	c2 04 00	 ret	 4
$L210734:
?Fork@?$CSimpleStringT@D$0A@@ATL@@AAEXH@Z ENDP		; ATL::CSimpleStringT<char,0>::Fork
_TEXT	ENDS
PUBLIC	?Reallocate@?$CSimpleStringT@D$0A@@ATL@@AAEXH@Z	; ATL::CSimpleStringT<char,0>::Reallocate
; Function compile flags: /Ogty
;	COMDAT ?Reallocate@?$CSimpleStringT@D$0A@@ATL@@AAEXH@Z
_TEXT	SEGMENT
_nLength$ = 8						; size = 4
?Reallocate@?$CSimpleStringT@D$0A@@ATL@@AAEXH@Z PROC NEAR ; ATL::CSimpleStringT<char,0>::Reallocate, COMDAT
; _this$ = ecx

; 776  : 	{

  00000	56		 push	 esi
  00001	57		 push	 edi

; 777  : 		CStringData* pOldData = GetData();
; 778  : 		ATLASSERT( pOldData->nAllocLength < nLength );
; 779  : 		IAtlStringMgr* pStringMgr = pOldData->pStringMgr;
; 780  : 		CStringData* pNewData = pStringMgr->Reallocate( pOldData, nLength, sizeof( XCHAR ) );

  00002	8b 7c 24 0c	 mov	 edi, DWORD PTR _nLength$[esp+4]
  00006	8b f1		 mov	 esi, ecx
  00008	8b 06		 mov	 eax, DWORD PTR [esi]
  0000a	8b 48 f0	 mov	 ecx, DWORD PTR [eax-16]
  0000d	8b 11		 mov	 edx, DWORD PTR [ecx]
  0000f	83 e8 10	 sub	 eax, 16			; 00000010H
  00012	6a 01		 push	 1
  00014	57		 push	 edi
  00015	50		 push	 eax
  00016	ff 52 08	 call	 DWORD PTR [edx+8]

; 781  : 		if( pNewData == NULL )

  00019	85 c0		 test	 eax, eax
  0001b	75 05		 jne	 SHORT $L185543

; 782  : 		{
; 783  : 			ThrowMemoryException();

  0001d	e8 00 00 00 00	 call	 ?ThrowMemoryException@?$CSimpleStringT@D$0A@@ATL@@KAXXZ ; ATL::CSimpleStringT<char,0>::ThrowMemoryException
$L185543:

; 784  : 		}
; 785  : 		Attach( pNewData );

  00022	83 c0 10	 add	 eax, 16			; 00000010H
  00025	5f		 pop	 edi
  00026	89 06		 mov	 DWORD PTR [esi], eax
  00028	5e		 pop	 esi

; 786  : 	}

  00029	c2 04 00	 ret	 4
$L210748:
?Reallocate@?$CSimpleStringT@D$0A@@ATL@@AAEXH@Z ENDP	; ATL::CSimpleStringT<char,0>::Reallocate
_TEXT	ENDS
PUBLIC	?GetTickCount@CTime@ATL@@SG?AV12@XZ		; ATL::CTime::GetTickCount
EXTRN	__time64:NEAR
; Function compile flags: /Ogty
; File c:\program files\microsoft visual studio .net 2003\vc7\atlmfc\include\atltime.inl
;	COMDAT ?GetTickCount@CTime@ATL@@SG?AV12@XZ
_TEXT	SEGMENT
___$ReturnUdt$ = 8					; size = 4
?GetTickCount@CTime@ATL@@SG?AV12@XZ PROC NEAR		; ATL::CTime::GetTickCount, COMDAT

; 139  : 	return( CTime( ::_time64( NULL ) ) );

  00000	6a 00		 push	 0
  00002	e8 00 00 00 00	 call	 __time64
  00007	8b 4c 24 08	 mov	 ecx, DWORD PTR ___$ReturnUdt$[esp]
  0000b	89 01		 mov	 DWORD PTR [ecx], eax
  0000d	83 c4 04	 add	 esp, 4
  00010	89 51 04	 mov	 DWORD PTR [ecx+4], edx
  00013	8b c1		 mov	 eax, ecx

; 140  : }

  00015	c2 04 00	 ret	 4
?GetTickCount@CTime@ATL@@SG?AV12@XZ ENDP		; ATL::CTime::GetTickCount
_TEXT	ENDS
PUBLIC	?LogSchool@CDbManager@@AAEXPAVCQuery@@PAUtagDB_OVERLAPPED_PLUS@@@Z ; CDbManager::LogSchool
PUBLIC	??_C@_09GBAEEKDE@?$CFs?0?5?$CFd?7?$CFs?$AA@	; `string'
PUBLIC	??_C@_0EO@NODPKHNH@LOG_EVENT_STR?5?$EAim_idPlayer?5?$DN?5?8?$CF0@ ; `string'
EXTRN	?FreeRequest@CDbManager@@QAEXPAUtagDB_OVERLAPPED_PLUS@@@Z:NEAR ; CDbManager::FreeRequest
EXTRN	__except_list:DWORD
EXTRN	__chkstk:NEAR
EXTRN	___CxxFrameHandler:NEAR
EXTRN	??0CAr@@QAE@PAXI@Z:NEAR				; CAr::CAr
EXTRN	??1CAr@@QAE@XZ:NEAR				; CAr::~CAr
EXTRN	?ReadString@CAr@@QAEPADPADH@Z:NEAR		; CAr::ReadString
;	COMDAT xdata$x
; File c:\documents and settings\test\mes documents\source\virtuos_v17\build\program\_network\misc\include\ar.h
xdata$x	SEGMENT
$T210775 DD	0ffffffffH
	DD	FLAT:$L210758
$T210770 DD	019930520H
	DD	01H
	DD	FLAT:$T210775
	DD	2 DUP(00H)
	DD	2 DUP(00H)
xdata$x	ENDS
;	COMDAT ??_C@_0EO@NODPKHNH@LOG_EVENT_STR?5?$EAim_idPlayer?5?$DN?5?8?$CF0@
CONST	SEGMENT
??_C@_0EO@NODPKHNH@LOG_EVENT_STR?5?$EAim_idPlayer?5?$DN?5?8?$CF0@ DB 'LOG'
	DB	'_EVENT_STR @im_idPlayer = ''%07d'',@iserverindex = ''%02d'', '
	DB	'@im_szName = ''%s''', 00H			; `string'
CONST	ENDS
;	COMDAT ??_C@_09GBAEEKDE@?$CFs?0?5?$CFd?7?$CFs?$AA@
CONST	SEGMENT
??_C@_09GBAEEKDE@?$CFs?0?5?$CFd?7?$CFs?$AA@ DB '%s, %d', 09H, '%s', 00H ; `string'
; Function compile flags: /Ogty
; File c:\documents and settings\test\mes documents\source\virtuos_v17\build\program\_database\dbmanagerlog.cpp
CONST	ENDS
;	COMDAT ?LogSchool@CDbManager@@AAEXPAVCQuery@@PAUtagDB_OVERLAPPED_PLUS@@@Z
_TEXT	SEGMENT
$T210764 = -57528					; size = 4
_uidPlayer$ = -57524					; size = 4
_arRead$ = -57520					; size = 16404
_szName$ = -41112					; size = 128
_szQuery$ = -40984					; size = 40960
__$ArrayPad$ = -20					; size = 4
__$EHRec$ = -12						; size = 12
__$ReturnAddr$ = 4					; size = 4
_qry$ = 8						; size = 4
_lpDbOverlappedPlus$ = 12				; size = 4
?LogSchool@CDbManager@@AAEXPAVCQuery@@PAUtagDB_OVERLAPPED_PLUS@@@Z PROC NEAR ; CDbManager::LogSchool, COMDAT
; _this$ = ecx

; 943  : {

  00000	55		 push	 ebp
  00001	8b ec		 mov	 ebp, esp
  00003	83 e4 f8	 and	 esp, -8			; fffffff8H
  00006	6a ff		 push	 -1
  00008	68 00 00 00 00	 push	 __ehhandler$?LogSchool@CDbManager@@AAEXPAVCQuery@@PAUtagDB_OVERLAPPED_PLUS@@@Z
  0000d	64 a1 00 00 00
	00		 mov	 eax, DWORD PTR fs:__except_list
  00013	50		 push	 eax
  00014	64 89 25 00 00
	00 00		 mov	 DWORD PTR fs:__except_list, esp
  0001b	51		 push	 ecx
  0001c	b8 ac e0 00 00	 mov	 eax, 57516		; 0000e0acH
  00021	e8 00 00 00 00	 call	 __chkstk
  00026	a1 00 00 00 00	 mov	 eax, DWORD PTR ___security_cookie
  0002b	53		 push	 ebx
  0002c	8b 5d 08	 mov	 ebx, DWORD PTR _qry$[ebp]
  0002f	56		 push	 esi
  00030	8b 75 0c	 mov	 esi, DWORD PTR _lpDbOverlappedPlus$[ebp]
  00033	33 c5		 xor	 eax, ebp
  00035	89 84 24 b0 e0
	00 00		 mov	 DWORD PTR __$ArrayPad$[esp+57540], eax

; 944  : 	CAr arRead( lpDbOverlappedPlus->lpBuf, lpDbOverlappedPlus->uBufSize );

  0003c	8b 46 1c	 mov	 eax, DWORD PTR [esi+28]
  0003f	57		 push	 edi
  00040	89 4c 24 10	 mov	 DWORD PTR $T210764[esp+57544], ecx
  00044	8b 4e 18	 mov	 ecx, DWORD PTR [esi+24]
  00047	50		 push	 eax
  00048	51		 push	 ecx
  00049	8d 4c 24 20	 lea	 ecx, DWORD PTR _arRead$[esp+57552]
  0004d	e8 00 00 00 00	 call	 ??0CAr@@QAE@PAXI@Z	; CAr::CAr

; 945  : 	
; 946  : 	u_long uidPlayer;
; 947  : 	char szName[128];
; 948  : 		
; 949  : 	arRead >> uidPlayer;

  00052	8b 4c 24 20	 mov	 ecx, DWORD PTR _arRead$[esp+57552]
  00056	8b 54 24 24	 mov	 edx, DWORD PTR _arRead$[esp+57556]
  0005a	33 ff		 xor	 edi, edi
  0005c	8d 41 04	 lea	 eax, DWORD PTR [ecx+4]
  0005f	3b c2		 cmp	 eax, edx
  00061	89 bc 24 c4 e0
	00 00		 mov	 DWORD PTR __$EHRec$[esp+57552], edi
  00068	77 0c		 ja	 SHORT $L210761
  0006a	8b 11		 mov	 edx, DWORD PTR [ecx]
  0006c	89 54 24 14	 mov	 DWORD PTR _uidPlayer$[esp+57544], edx
  00070	89 44 24 20	 mov	 DWORD PTR _arRead$[esp+57552], eax
  00074	eb 08		 jmp	 SHORT $L210762
$L210761:
  00076	89 7c 24 14	 mov	 DWORD PTR _uidPlayer$[esp+57544], edi
  0007a	89 54 24 20	 mov	 DWORD PTR _arRead$[esp+57552], edx
$L210762:

; 950  : 	arRead.ReadString( szName, 128 );

  0007e	68 80 00 00 00	 push	 128			; 00000080H
  00083	8d 84 24 34 40
	00 00		 lea	 eax, DWORD PTR _szName$[esp+57548]
  0008a	50		 push	 eax
  0008b	8d 4c 24 20	 lea	 ecx, DWORD PTR _arRead$[esp+57552]
  0008f	e8 00 00 00 00	 call	 ?ReadString@CAr@@QAEPADPADH@Z ; CAr::ReadString

; 951  : 	
; 952  : 	//LOG_EVENT_STR @im_idPlayer = '000001',@iserverindex = '00'
; 953  : 	char szQuery[QUERY_SIZE]	= { 0,};
; 954  : 	sprintf( szQuery, "LOG_EVENT_STR @im_idPlayer = '%07d',@iserverindex = '%02d', @im_szName = '%s'", uidPlayer, g_appInfo.dwSys, szName );

  00094	8b 15 00 00 00
	00		 mov	 edx, DWORD PTR ?g_appInfo@@3UAppInfo@@A
  0009a	33 c0		 xor	 eax, eax
  0009c	c6 84 24 b0 40
	00 00 00	 mov	 BYTE PTR _szQuery$[esp+57544], 0
  000a4	b9 ff 27 00 00	 mov	 ecx, 10239		; 000027ffH
  000a9	8d bc 24 b1 40
	00 00		 lea	 edi, DWORD PTR _szQuery$[esp+57545]
  000b0	f3 ab		 rep stosd
  000b2	66 ab		 stosw
  000b4	8d 8c 24 30 40
	00 00		 lea	 ecx, DWORD PTR _szName$[esp+57544]
  000bb	51		 push	 ecx
  000bc	52		 push	 edx
  000bd	aa		 stosb
  000be	8b 44 24 1c	 mov	 eax, DWORD PTR _uidPlayer$[esp+57552]
  000c2	50		 push	 eax
  000c3	8d 8c 24 bc 40
	00 00		 lea	 ecx, DWORD PTR _szQuery$[esp+57556]
  000ca	68 00 00 00 00	 push	 OFFSET FLAT:??_C@_0EO@NODPKHNH@LOG_EVENT_STR?5?$EAim_idPlayer?5?$DN?5?8?$CF0@
  000cf	51		 push	 ecx
  000d0	e8 00 00 00 00	 call	 _sprintf
  000d5	83 c4 14	 add	 esp, 20			; 00000014H

; 955  : 
; 956  : 	if ( FALSE == qry->Exec( szQuery ) )

  000d8	8d 94 24 b0 40
	00 00		 lea	 edx, DWORD PTR _szQuery$[esp+57544]
  000df	52		 push	 edx
  000e0	8b cb		 mov	 ecx, ebx
  000e2	e8 00 00 00 00	 call	 ?Exec@CQuery@@QAEHPBD@Z	; CQuery::Exec
  000e7	85 c0		 test	 eax, eax
  000e9	75 18		 jne	 SHORT $L208674

; 957  : 	{
; 958  : 		WriteLog( "%s, %d\t%s", __FILE__, __LINE__, qry );

  000eb	53		 push	 ebx
  000ec	68 be 03 00 00	 push	 958			; 000003beH
  000f1	68 00 00 00 00	 push	 OFFSET FLAT:??_C@_0GH@LHPNFEPP@?2Documents?5and?5Settings?2test?2Mes@
  000f6	68 00 00 00 00	 push	 OFFSET FLAT:??_C@_09GBAEEKDE@?$CFs?0?5?$CFd?7?$CFs?$AA@
  000fb	e8 00 00 00 00	 call	 ?WriteLog@@YAXPBDZZ	; WriteLog
  00100	83 c4 10	 add	 esp, 16			; 00000010H
$L208674:

; 959  : 		FreeRequest( lpDbOverlappedPlus );
; 960  : 		return;
; 961  : 	}
; 962  : 			
; 963  : //	qry->Clear();
; 964  : 		
; 965  : 	FreeRequest( lpDbOverlappedPlus );

  00103	8b 4c 24 10	 mov	 ecx, DWORD PTR $T210764[esp+57544]
  00107	56		 push	 esi
  00108	e8 00 00 00 00	 call	 ?FreeRequest@CDbManager@@QAEXPAUtagDB_OVERLAPPED_PLUS@@@Z ; CDbManager::FreeRequest

; 966  : }

  0010d	8d 4c 24 18	 lea	 ecx, DWORD PTR _arRead$[esp+57544]
  00111	c7 84 24 c4 e0
	00 00 ff ff ff
	ff		 mov	 DWORD PTR __$EHRec$[esp+57552], -1
  0011c	e8 00 00 00 00	 call	 ??1CAr@@QAE@XZ		; CAr::~CAr
  00121	8b 8c 24 bc e0
	00 00		 mov	 ecx, DWORD PTR __$EHRec$[esp+57544]
  00128	64 89 0d 00 00
	00 00		 mov	 DWORD PTR fs:__except_list, ecx
  0012f	8b 8c 24 b4 e0
	00 00		 mov	 ecx, DWORD PTR __$ArrayPad$[esp+57544]
  00136	5f		 pop	 edi
  00137	5e		 pop	 esi
  00138	33 cd		 xor	 ecx, ebp
  0013a	5b		 pop	 ebx
  0013b	e8 00 00 00 00	 call	 @__security_check_cookie@4
  00140	8b e5		 mov	 esp, ebp
  00142	5d		 pop	 ebp
  00143	c2 08 00	 ret	 8
_TEXT	ENDS
;	COMDAT text$x
text$x	SEGMENT
$L210758:
  00000	8d 8d 50 1f ff
	ff		 lea	 ecx, DWORD PTR _arRead$[ebp]
  00006	e9 00 00 00 00	 jmp	 ??1CAr@@QAE@XZ		; CAr::~CAr
__ehhandler$?LogSchool@CDbManager@@AAEXPAVCQuery@@PAUtagDB_OVERLAPPED_PLUS@@@Z:
  0000b	b8 00 00 00 00	 mov	 eax, OFFSET FLAT:$T210770
  00010	e9 00 00 00 00	 jmp	 ___CxxFrameHandler
text$x	ENDS
?LogSchool@CDbManager@@AAEXPAVCQuery@@PAUtagDB_OVERLAPPED_PLUS@@@Z ENDP ; CDbManager::LogSchool
PUBLIC	?GetBuffer@?$CSimpleStringT@D$0A@@ATL@@QAEPADXZ	; ATL::CSimpleStringT<char,0>::GetBuffer
; Function compile flags: /Ogty
; File c:\program files\microsoft visual studio .net 2003\vc7\atlmfc\include\atlsimpstr.h
;	COMDAT ?GetBuffer@?$CSimpleStringT@D$0A@@ATL@@QAEPADXZ
_TEXT	SEGMENT
?GetBuffer@?$CSimpleStringT@D$0A@@ATL@@QAEPADXZ PROC NEAR ; ATL::CSimpleStringT<char,0>::GetBuffer, COMDAT
; _this$ = ecx

; 479  : 	{

  00000	56		 push	 esi
  00001	8b f1		 mov	 esi, ecx

; 480  : 		CStringData* pData = GetData();

  00003	8b 06		 mov	 eax, DWORD PTR [esi]

; 481  : 		if( pData->IsShared() )

  00005	8b 48 fc	 mov	 ecx, DWORD PTR [eax-4]
  00008	83 e8 10	 sub	 eax, 16			; 00000010H
  0000b	83 f9 01	 cmp	 ecx, 1
  0000e	7e 0b		 jle	 SHORT $L210786

; 482  : 		{
; 483  : 			Fork( pData->nDataLength );

  00010	8b 40 04	 mov	 eax, DWORD PTR [eax+4]
  00013	50		 push	 eax
  00014	8b ce		 mov	 ecx, esi
  00016	e8 00 00 00 00	 call	 ?Fork@?$CSimpleStringT@D$0A@@ATL@@AAEXH@Z ; ATL::CSimpleStringT<char,0>::Fork
$L210786:

; 484  : 		}
; 485  : 
; 486  : 		return( m_pszData );

  0001b	8b 06		 mov	 eax, DWORD PTR [esi]
  0001d	5e		 pop	 esi

; 487  : 	}

  0001e	c3		 ret	 0
?GetBuffer@?$CSimpleStringT@D$0A@@ATL@@QAEPADXZ ENDP	; ATL::CSimpleStringT<char,0>::GetBuffer
_TEXT	ENDS
PUBLIC	?StringFindString@?$ChTraitsCRT@D@ATL@@SAPADPADPBD@Z ; ATL::ChTraitsCRT<char>::StringFindString
; Function compile flags: /Ogty
; File c:\program files\microsoft visual studio .net 2003\vc7\atlmfc\include\cstringt.h
;	COMDAT ?StringFindString@?$ChTraitsCRT@D@ATL@@SAPADPADPBD@Z
_TEXT	SEGMENT
_pszBlock$ = 8						; size = 4
_pszMatch$ = 12						; size = 4
?StringFindString@?$ChTraitsCRT@D@ATL@@SAPADPADPBD@Z PROC NEAR ; ATL::ChTraitsCRT<char>::StringFindString, COMDAT

; 362  : 		return( const_cast< LPSTR >( StringFindString( const_cast< LPCSTR >( pszBlock ), pszMatch ) ) );

  00000	e9 00 00 00 00	 jmp	 __mbsstr
?StringFindString@?$ChTraitsCRT@D@ATL@@SAPADPADPBD@Z ENDP ; ATL::ChTraitsCRT<char>::StringFindString
_TEXT	ENDS
PUBLIC	??5CAr@@QAEAAV0@AAH@Z				; CAr::operator>>
; Function compile flags: /Ogty
; File c:\documents and settings\test\mes documents\source\virtuos_v17\build\program\_network\misc\include\ar.h
;	COMDAT ??5CAr@@QAEAAV0@AAH@Z
_TEXT	SEGMENT
_i$ = 8							; size = 4
??5CAr@@QAEAAV0@AAH@Z PROC NEAR				; CAr::operator>>, COMDAT
; _this$ = ecx

; 126  : 	{ return CAr::operator>>((LONG&)i); }

  00000	8b c1		 mov	 eax, ecx
  00002	8b 48 08	 mov	 ecx, DWORD PTR [eax+8]
  00005	56		 push	 esi
  00006	8b 70 0c	 mov	 esi, DWORD PTR [eax+12]
  00009	8d 51 04	 lea	 edx, DWORD PTR [ecx+4]
  0000c	3b d6		 cmp	 edx, esi
  0000e	5e		 pop	 esi
  0000f	77 0f		 ja	 SHORT $L210797
  00011	8b 09		 mov	 ecx, DWORD PTR [ecx]
  00013	8b 54 24 04	 mov	 edx, DWORD PTR _i$[esp-4]
  00017	89 0a		 mov	 DWORD PTR [edx], ecx
  00019	83 40 08 04	 add	 DWORD PTR [eax+8], 4
  0001d	c2 04 00	 ret	 4
$L210797:
  00020	8b 4c 24 04	 mov	 ecx, DWORD PTR _i$[esp-4]
  00024	c7 01 00 00 00
	00		 mov	 DWORD PTR [ecx], 0
  0002a	8b 50 0c	 mov	 edx, DWORD PTR [eax+12]
  0002d	89 50 08	 mov	 DWORD PTR [eax+8], edx
  00030	c2 04 00	 ret	 4
??5CAr@@QAEAAV0@AAH@Z ENDP				; CAr::operator>>
_TEXT	ENDS
PUBLIC	??5CAr@@QAEAAV0@AAF@Z				; CAr::operator>>
; Function compile flags: /Ogty
;	COMDAT ??5CAr@@QAEAAV0@AAF@Z
_TEXT	SEGMENT
_w$ = 8							; size = 4
??5CAr@@QAEAAV0@AAF@Z PROC NEAR				; CAr::operator>>, COMDAT
; _this$ = ecx

; 130  : 	{ return CAr::operator>>((WORD&)w); }

  00000	8b c1		 mov	 eax, ecx
  00002	8b 48 08	 mov	 ecx, DWORD PTR [eax+8]
  00005	56		 push	 esi
  00006	8b 70 0c	 mov	 esi, DWORD PTR [eax+12]
  00009	8d 51 02	 lea	 edx, DWORD PTR [ecx+2]
  0000c	3b d6		 cmp	 edx, esi
  0000e	5e		 pop	 esi
  0000f	77 11		 ja	 SHORT $L210804
  00011	66 8b 09	 mov	 cx, WORD PTR [ecx]
  00014	8b 54 24 04	 mov	 edx, DWORD PTR _w$[esp-4]
  00018	66 89 0a	 mov	 WORD PTR [edx], cx
  0001b	83 40 08 02	 add	 DWORD PTR [eax+8], 2
  0001f	c2 04 00	 ret	 4
$L210804:
  00022	8b 4c 24 04	 mov	 ecx, DWORD PTR _w$[esp-4]
  00026	66 c7 01 00 00	 mov	 WORD PTR [ecx], 0
  0002b	8b 50 0c	 mov	 edx, DWORD PTR [eax+12]
  0002e	89 50 08	 mov	 DWORD PTR [eax+8], edx
  00031	c2 04 00	 ret	 4
??5CAr@@QAEAAV0@AAF@Z ENDP				; CAr::operator>>
_TEXT	ENDS
PUBLIC	??5CAr@@QAEAAV0@AAD@Z				; CAr::operator>>
; Function compile flags: /Ogty
;	COMDAT ??5CAr@@QAEAAV0@AAD@Z
_TEXT	SEGMENT
_ch$ = 8						; size = 4
??5CAr@@QAEAAV0@AAD@Z PROC NEAR				; CAr::operator>>, COMDAT
; _this$ = ecx

; 132  : 	{ return CAr::operator>>((BYTE&)ch); }

  00000	8b c1		 mov	 eax, ecx
  00002	8b 48 08	 mov	 ecx, DWORD PTR [eax+8]
  00005	56		 push	 esi
  00006	8b 70 0c	 mov	 esi, DWORD PTR [eax+12]
  00009	8d 51 01	 lea	 edx, DWORD PTR [ecx+1]
  0000c	3b d6		 cmp	 edx, esi
  0000e	5e		 pop	 esi
  0000f	77 0e		 ja	 SHORT $L210811
  00011	8a 09		 mov	 cl, BYTE PTR [ecx]
  00013	8b 54 24 04	 mov	 edx, DWORD PTR _ch$[esp-4]
  00017	88 0a		 mov	 BYTE PTR [edx], cl
  00019	ff 40 08	 inc	 DWORD PTR [eax+8]
  0001c	c2 04 00	 ret	 4
$L210811:
  0001f	8b 4c 24 04	 mov	 ecx, DWORD PTR _ch$[esp-4]
  00023	c6 01 00	 mov	 BYTE PTR [ecx], 0
  00026	8b 50 0c	 mov	 edx, DWORD PTR [eax+12]
  00029	89 50 08	 mov	 DWORD PTR [eax+8], edx
  0002c	c2 04 00	 ret	 4
??5CAr@@QAEAAV0@AAD@Z ENDP				; CAr::operator>>
_TEXT	ENDS
PUBLIC	?GetLength@?$CSimpleStringT@D$0A@@ATL@@QBEHXZ	; ATL::CSimpleStringT<char,0>::GetLength
; Function compile flags: /Ogty
; File c:\program files\microsoft visual studio .net 2003\vc7\atlmfc\include\atlsimpstr.h
;	COMDAT ?GetLength@?$CSimpleStringT@D$0A@@ATL@@QBEHXZ
_TEXT	SEGMENT
?GetLength@?$CSimpleStringT@D$0A@@ATL@@QBEHXZ PROC NEAR	; ATL::CSimpleStringT<char,0>::GetLength, COMDAT
; _this$ = ecx

; 501  : 		return( GetData()->nDataLength );

  00000	8b 01		 mov	 eax, DWORD PTR [ecx]
  00002	8b 40 f4	 mov	 eax, DWORD PTR [eax-12]

; 502  : 	}

  00005	c3		 ret	 0
?GetLength@?$CSimpleStringT@D$0A@@ATL@@QBEHXZ ENDP	; ATL::CSimpleStringT<char,0>::GetLength
_TEXT	ENDS
PUBLIC	??0?$CSimpleStringT@D$0A@@ATL@@QAE@PAUIAtlStringMgr@1@@Z ; ATL::CSimpleStringT<char,0>::CSimpleStringT<char,0>
; Function compile flags: /Ogty
;	COMDAT ??0?$CSimpleStringT@D$0A@@ATL@@QAE@PAUIAtlStringMgr@1@@Z
_TEXT	SEGMENT
_pStringMgr$ = 8					; size = 4
??0?$CSimpleStringT@D$0A@@ATL@@QAE@PAUIAtlStringMgr@1@@Z PROC NEAR ; ATL::CSimpleStringT<char,0>::CSimpleStringT<char,0>, COMDAT
; _this$ = ecx

; 210  : 	explicit CSimpleStringT( IAtlStringMgr* pStringMgr ) throw()

  00000	56		 push	 esi
  00001	8b f1		 mov	 esi, ecx

; 211  : 	{
; 212  : 		ATLASSERT( pStringMgr != NULL );
; 213  : 		CStringData* pData = pStringMgr->GetNilString();

  00003	8b 4c 24 08	 mov	 ecx, DWORD PTR _pStringMgr$[esp]
  00007	8b 01		 mov	 eax, DWORD PTR [ecx]
  00009	ff 50 0c	 call	 DWORD PTR [eax+12]

; 214  : 		Attach( pData );

  0000c	83 c0 10	 add	 eax, 16			; 00000010H
  0000f	89 06		 mov	 DWORD PTR [esi], eax

; 215  : 	}

  00011	8b c6		 mov	 eax, esi
  00013	5e		 pop	 esi
  00014	c2 04 00	 ret	 4
??0?$CSimpleStringT@D$0A@@ATL@@QAE@PAUIAtlStringMgr@1@@Z ENDP ; ATL::CSimpleStringT<char,0>::CSimpleStringT<char,0>
_TEXT	ENDS
PUBLIC	??1?$CSimpleStringT@D$0A@@ATL@@QAE@XZ		; ATL::CSimpleStringT<char,0>::~CSimpleStringT<char,0>
; Function compile flags: /Ogty
;	COMDAT ??1?$CSimpleStringT@D$0A@@ATL@@QAE@XZ
_TEXT	SEGMENT
??1?$CSimpleStringT@D$0A@@ATL@@QAE@XZ PROC NEAR		; ATL::CSimpleStringT<char,0>::~CSimpleStringT<char,0>, COMDAT
; _this$ = ecx

; 263  : 		CStringData* pData = GetData();

  00000	8b 01		 mov	 eax, DWORD PTR [ecx]
  00002	83 e8 10	 sub	 eax, 16			; 00000010H

; 264  : 		pData->Release();

  00005	8d 48 0c	 lea	 ecx, DWORD PTR [eax+12]
  00008	83 ca ff	 or	 edx, -1
  0000b	f0 0f c1 11	 lock	  xadd	 DWORD PTR [ecx], edx
  0000f	4a		 dec	 edx
  00010	85 d2		 test	 edx, edx
  00012	7f 08		 jg	 SHORT $L210837
  00014	8b 08		 mov	 ecx, DWORD PTR [eax]
  00016	8b 11		 mov	 edx, DWORD PTR [ecx]
  00018	50		 push	 eax
  00019	ff 52 04	 call	 DWORD PTR [edx+4]
$L210837:

; 265  : 	}

  0001c	c3		 ret	 0
??1?$CSimpleStringT@D$0A@@ATL@@QAE@XZ ENDP		; ATL::CSimpleStringT<char,0>::~CSimpleStringT<char,0>
_TEXT	ENDS
PUBLIC	?ReleaseBufferSetLength@?$CSimpleStringT@D$0A@@ATL@@QAEXH@Z ; ATL::CSimpleStringT<char,0>::ReleaseBufferSetLength
; Function compile flags: /Ogty
;	COMDAT ?ReleaseBufferSetLength@?$CSimpleStringT@D$0A@@ATL@@QAEXH@Z
_TEXT	SEGMENT
_nNewLength$ = 8					; size = 4
?ReleaseBufferSetLength@?$CSimpleStringT@D$0A@@ATL@@QAEXH@Z PROC NEAR ; ATL::CSimpleStringT<char,0>::ReleaseBufferSetLength, COMDAT
; _this$ = ecx

; 547  : 		ATLASSERT( nNewLength >= 0 );
; 548  : 		SetLength( nNewLength );

  00000	8b 44 24 04	 mov	 eax, DWORD PTR _nNewLength$[esp-4]
  00004	85 c0		 test	 eax, eax
  00006	7c 13		 jl	 SHORT $L210854
  00008	8b 11		 mov	 edx, DWORD PTR [ecx]
  0000a	3b 42 f8	 cmp	 eax, DWORD PTR [edx-8]
  0000d	7f 0c		 jg	 SHORT $L210854
  0000f	89 42 f4	 mov	 DWORD PTR [edx-12], eax
  00012	8b 09		 mov	 ecx, DWORD PTR [ecx]
  00014	c6 04 08 00	 mov	 BYTE PTR [eax+ecx], 0

; 549  : 	}

  00018	c2 04 00	 ret	 4
$L210854:
  0001b	68 57 00 07 80	 push	 -2147024809		; 80070057H
  00020	e8 00 00 00 00	 call	 ?AtlThrow@ATL@@YGXJ@Z	; ATL::AtlThrow
$L210856:
  00025	cc		 int	 3
?ReleaseBufferSetLength@?$CSimpleStringT@D$0A@@ATL@@QAEXH@Z ENDP ; ATL::CSimpleStringT<char,0>::ReleaseBufferSetLength
_TEXT	ENDS
PUBLIC	?Empty@?$CSimpleStringT@D$0A@@ATL@@QAEXXZ	; ATL::CSimpleStringT<char,0>::Empty
; Function compile flags: /Ogty
;	COMDAT ?Empty@?$CSimpleStringT@D$0A@@ATL@@QAEXXZ
_TEXT	SEGMENT
?Empty@?$CSimpleStringT@D$0A@@ATL@@QAEXXZ PROC NEAR	; ATL::CSimpleStringT<char,0>::Empty, COMDAT
; _this$ = ecx

; 421  : 	{

  00000	56		 push	 esi
  00001	8b f1		 mov	 esi, ecx

; 422  : 		CStringData* pOldData = GetData();

  00003	8b 0e		 mov	 ecx, DWORD PTR [esi]

; 423  : 		IAtlStringMgr* pStringMgr = pOldData->pStringMgr;
; 424  : 		if( pOldData->nDataLength == 0 )

  00005	8b 51 f4	 mov	 edx, DWORD PTR [ecx-12]
  00008	85 d2		 test	 edx, edx
  0000a	8d 41 f0	 lea	 eax, DWORD PTR [ecx-16]
  0000d	57		 push	 edi
  0000e	8b 38		 mov	 edi, DWORD PTR [eax]
  00010	74 4c		 je	 SHORT $L210889
  00012	53		 push	 ebx

; 425  : 		{
; 426  : 			return;
; 427  : 		}
; 428  : 
; 429  : 		if( pOldData->IsLocked() )

  00013	8b 58 0c	 mov	 ebx, DWORD PTR [eax+12]
  00016	8d 50 0c	 lea	 edx, DWORD PTR [eax+12]
  00019	85 db		 test	 ebx, ebx
  0001b	5b		 pop	 ebx
  0001c	7d 20		 jge	 SHORT $L184939

; 430  : 		{
; 431  : 			// Don't reallocate a locked buffer that's shrinking
; 432  : 			SetLength( 0 );

  0001e	8b 41 f8	 mov	 eax, DWORD PTR [ecx-8]
  00021	85 c0		 test	 eax, eax
  00023	7d 0a		 jge	 SHORT $L210873
  00025	68 57 00 07 80	 push	 -2147024809		; 80070057H
  0002a	e8 00 00 00 00	 call	 ?AtlThrow@ATL@@YGXJ@Z	; ATL::AtlThrow
$L210873:
  0002f	c7 41 f4 00 00
	00 00		 mov	 DWORD PTR [ecx-12], 0
  00036	8b 06		 mov	 eax, DWORD PTR [esi]
  00038	5f		 pop	 edi
  00039	c6 00 00	 mov	 BYTE PTR [eax], 0
  0003c	5e		 pop	 esi

; 439  : 		}
; 440  : 	}

  0003d	c3		 ret	 0
$L184939:

; 433  : 		}
; 434  : 		else
; 435  : 		{
; 436  : 			pOldData->Release();

  0003e	83 c9 ff	 or	 ecx, -1
  00041	f0 0f c1 0a	 lock	  xadd	 DWORD PTR [edx], ecx
  00045	49		 dec	 ecx
  00046	85 c9		 test	 ecx, ecx
  00048	7f 08		 jg	 SHORT $L210884
  0004a	8b 08		 mov	 ecx, DWORD PTR [eax]
  0004c	8b 11		 mov	 edx, DWORD PTR [ecx]
  0004e	50		 push	 eax
  0004f	ff 52 04	 call	 DWORD PTR [edx+4]
$L210884:

; 437  : 			CStringData* pNewData = pStringMgr->GetNilString();

  00052	8b 07		 mov	 eax, DWORD PTR [edi]
  00054	8b cf		 mov	 ecx, edi
  00056	ff 50 0c	 call	 DWORD PTR [eax+12]

; 438  : 			Attach( pNewData );

  00059	83 c0 10	 add	 eax, 16			; 00000010H
  0005c	89 06		 mov	 DWORD PTR [esi], eax
$L210889:
  0005e	5f		 pop	 edi
  0005f	5e		 pop	 esi

; 439  : 		}
; 440  : 	}

  00060	c3		 ret	 0
$L210893:
?Empty@?$CSimpleStringT@D$0A@@ATL@@QAEXXZ ENDP		; ATL::CSimpleStringT<char,0>::Empty
_TEXT	ENDS
PUBLIC	?PrepareWrite2@?$CSimpleStringT@D$0A@@ATL@@AAEXH@Z ; ATL::CSimpleStringT<char,0>::PrepareWrite2
; Function compile flags: /Ogty
;	COMDAT ?PrepareWrite2@?$CSimpleStringT@D$0A@@ATL@@AAEXH@Z
_TEXT	SEGMENT
_nLength$ = 8						; size = 4
?PrepareWrite2@?$CSimpleStringT@D$0A@@ATL@@AAEXH@Z PROC NEAR ; ATL::CSimpleStringT<char,0>::PrepareWrite2, COMDAT
; _this$ = ecx

; 747  : 		CStringData* pOldData = GetData();

  00000	8b 01		 mov	 eax, DWORD PTR [ecx]

; 748  : 		if( pOldData->nDataLength > nLength )

  00002	8b 54 24 04	 mov	 edx, DWORD PTR _nLength$[esp-4]
  00006	83 e8 10	 sub	 eax, 16			; 00000010H
  00009	56		 push	 esi
  0000a	8b 70 04	 mov	 esi, DWORD PTR [eax+4]
  0000d	3b f2		 cmp	 esi, edx
  0000f	7e 02		 jle	 SHORT $L184961

; 749  : 		{
; 750  : 			nLength = pOldData->nDataLength;

  00011	8b d6		 mov	 edx, esi
$L184961:

; 751  : 		}
; 752  : 		if( pOldData->IsShared() )

  00013	83 78 0c 01	 cmp	 DWORD PTR [eax+12], 1
  00017	5e		 pop	 esi
  00018	7e 09		 jle	 SHORT $L184962

; 753  : 		{
; 754  : 			Fork( nLength );

  0001a	89 54 24 04	 mov	 DWORD PTR _nLength$[esp-4], edx
  0001e	e9 00 00 00 00	 jmp	 ?Fork@?$CSimpleStringT@D$0A@@ATL@@AAEXH@Z ; ATL::CSimpleStringT<char,0>::Fork
$L184962:

; 755  : 		}
; 756  : 		else if( pOldData->nAllocLength < nLength )

  00023	8b 40 08	 mov	 eax, DWORD PTR [eax+8]
  00026	3b c2		 cmp	 eax, edx
  00028	7d 1f		 jge	 SHORT $L184964

; 757  : 		{
; 758  : 			// Grow exponentially, until we hit 1K.
; 759  : 			int nNewLength = pOldData->nAllocLength;
; 760  : 			if( nNewLength > 1024 )

  0002a	3d 00 04 00 00	 cmp	 eax, 1024		; 00000400H
  0002f	7e 07		 jle	 SHORT $L184966

; 761  : 			{
; 762  : 				nNewLength += 1024;

  00031	05 00 04 00 00	 add	 eax, 1024		; 00000400H

; 763  : 			}
; 764  : 			else

  00036	eb 02		 jmp	 SHORT $L184967
$L184966:

; 765  : 			{
; 766  : 				nNewLength *= 2;

  00038	03 c0		 add	 eax, eax
$L184967:

; 767  : 			}
; 768  : 			if( nNewLength < nLength )

  0003a	3b c2		 cmp	 eax, edx
  0003c	7d 02		 jge	 SHORT $L184968

; 769  : 			{
; 770  : 				nNewLength = nLength;

  0003e	8b c2		 mov	 eax, edx
$L184968:

; 771  : 			}
; 772  : 			Reallocate( nNewLength );

  00040	89 44 24 04	 mov	 DWORD PTR _nLength$[esp-4], eax
  00044	e9 00 00 00 00	 jmp	 ?Reallocate@?$CSimpleStringT@D$0A@@ATL@@AAEXH@Z ; ATL::CSimpleStringT<char,0>::Reallocate
$L184964:

; 773  : 		}
; 774  : 	}

  00049	c2 04 00	 ret	 4
?PrepareWrite2@?$CSimpleStringT@D$0A@@ATL@@AAEXH@Z ENDP	; ATL::CSimpleStringT<char,0>::PrepareWrite2
_TEXT	ENDS
PUBLIC	?LogGetHonorTime@CDbManager@@AAEXPAVCQuery@@PAUtagDB_OVERLAPPED_PLUS@@@Z ; CDbManager::LogGetHonorTime
PUBLIC	??_C@_0DO@JFEBANLH@uspHonorLog?5?$EAserverindex?$DN?8?$CF02d?8?0@ ; `string'
;	COMDAT xdata$x
; File c:\documents and settings\test\mes documents\source\virtuos_v17\build\program\_network\misc\include\ar.h
xdata$x	SEGMENT
$T210931 DD	0ffffffffH
	DD	FLAT:$L210905
$T210927 DD	019930520H
	DD	01H
	DD	FLAT:$T210931
	DD	2 DUP(00H)
	DD	2 DUP(00H)
xdata$x	ENDS
;	COMDAT ??_C@_0DO@JFEBANLH@uspHonorLog?5?$EAserverindex?$DN?8?$CF02d?8?0@
CONST	SEGMENT
??_C@_0DO@JFEBANLH@uspHonorLog?5?$EAserverindex?$DN?8?$CF02d?8?0@ DB 'usp'
	DB	'HonorLog @serverindex=''%02d'',@idPlayer=''%07d'',@nHonor=''%'
	DB	'd''', 00H					; `string'
; Function compile flags: /Ogty
; File c:\documents and settings\test\mes documents\source\virtuos_v17\build\program\_database\dbmanagerlog.cpp
CONST	ENDS
;	COMDAT ?LogGetHonorTime@CDbManager@@AAEXPAVCQuery@@PAUtagDB_OVERLAPPED_PLUS@@@Z
_TEXT	SEGMENT
$T210923 = -57400					; size = 4
$T210924 = -57396					; size = 4
_arRead$ = -57392					; size = 16404
_szQuery$ = -40984					; size = 40960
__$ArrayPad$ = -20					; size = 4
__$EHRec$ = -12						; size = 12
__$ReturnAddr$ = 4					; size = 4
_qry$ = 8						; size = 4
_lpDbOverlappedPlus$ = 12				; size = 4
?LogGetHonorTime@CDbManager@@AAEXPAVCQuery@@PAUtagDB_OVERLAPPED_PLUS@@@Z PROC NEAR ; CDbManager::LogGetHonorTime, COMDAT
; _this$ = ecx

; 616  : {

  00000	55		 push	 ebp
  00001	8b ec		 mov	 ebp, esp
  00003	83 e4 f8	 and	 esp, -8			; fffffff8H
  00006	6a ff		 push	 -1
  00008	68 00 00 00 00	 push	 __ehhandler$?LogGetHonorTime@CDbManager@@AAEXPAVCQuery@@PAUtagDB_OVERLAPPED_PLUS@@@Z
  0000d	64 a1 00 00 00
	00		 mov	 eax, DWORD PTR fs:__except_list
  00013	50		 push	 eax
  00014	64 89 25 00 00
	00 00		 mov	 DWORD PTR fs:__except_list, esp
  0001b	51		 push	 ecx
  0001c	b8 2c e0 00 00	 mov	 eax, 57388		; 0000e02cH
  00021	e8 00 00 00 00	 call	 __chkstk
  00026	a1 00 00 00 00	 mov	 eax, DWORD PTR ___security_cookie
  0002b	53		 push	 ebx
  0002c	56		 push	 esi
  0002d	8b 75 0c	 mov	 esi, DWORD PTR _lpDbOverlappedPlus$[ebp]

; 617  : 	CAr arRead( lpDbOverlappedPlus->lpBuf, lpDbOverlappedPlus->uBufSize );

  00030	8b 56 18	 mov	 edx, DWORD PTR [esi+24]
  00033	89 4c 24 0c	 mov	 DWORD PTR $T210923[esp+57412], ecx
  00037	8b 4e 1c	 mov	 ecx, DWORD PTR [esi+28]
  0003a	33 c5		 xor	 eax, ebp
  0003c	57		 push	 edi
  0003d	51		 push	 ecx
  0003e	89 84 24 38 e0
	00 00		 mov	 DWORD PTR __$ArrayPad$[esp+57420], eax
  00045	8b 45 08	 mov	 eax, DWORD PTR _qry$[ebp]
  00048	52		 push	 edx
  00049	8d 4c 24 20	 lea	 ecx, DWORD PTR _arRead$[esp+57424]

; 626  : 
; 627  : 	char szQuery[QUERY_SIZE]	= { 0,};

  0004d	89 44 24 1c	 mov	 DWORD PTR $T210924[esp+57424], eax
  00051	e8 00 00 00 00	 call	 ??0CAr@@QAE@PAXI@Z	; CAr::CAr
  00056	8b 54 24 20	 mov	 edx, DWORD PTR _arRead$[esp+57424]
  0005a	8b 4c 24 24	 mov	 ecx, DWORD PTR _arRead$[esp+57428]
  0005e	33 db		 xor	 ebx, ebx
  00060	8d 42 04	 lea	 eax, DWORD PTR [edx+4]
  00063	3b c1		 cmp	 eax, ecx
  00065	89 9c 24 44 e0
	00 00		 mov	 DWORD PTR __$EHRec$[esp+57424], ebx
  0006c	77 04		 ja	 SHORT $L210915

; 618  : 
; 619  : 	int			iServer_No;							//  
; 620  : 	u_long		uidPlayer;
; 621  : 	int			nGetHonor;
; 622  : 	
; 623  : 	iServer_No	= g_appInfo.dwSys;
; 624  : 	arRead >> nGetHonor;

  0006e	8b 1a		 mov	 ebx, DWORD PTR [edx]
  00070	eb 02		 jmp	 SHORT $L210930
$L210915:
  00072	8b c1		 mov	 eax, ecx
$L210930:

; 625  : 	arRead >> uidPlayer;

  00074	8d 78 04	 lea	 edi, DWORD PTR [eax+4]
  00077	3b f9		 cmp	 edi, ecx
  00079	89 44 24 20	 mov	 DWORD PTR _arRead$[esp+57424], eax
  0007d	77 08		 ja	 SHORT $L210920
  0007f	8b 10		 mov	 edx, DWORD PTR [eax]
  00081	89 7c 24 20	 mov	 DWORD PTR _arRead$[esp+57424], edi
  00085	eb 06		 jmp	 SHORT $L210921
$L210920:
  00087	33 d2		 xor	 edx, edx
  00089	89 4c 24 20	 mov	 DWORD PTR _arRead$[esp+57424], ecx
$L210921:

; 626  : 
; 627  : 	char szQuery[QUERY_SIZE]	= { 0,};

  0008d	33 c0		 xor	 eax, eax
  0008f	c6 84 24 30 40
	00 00 00	 mov	 BYTE PTR _szQuery$[esp+57416], 0
  00097	b9 ff 27 00 00	 mov	 ecx, 10239		; 000027ffH
  0009c	8d bc 24 31 40
	00 00		 lea	 edi, DWORD PTR _szQuery$[esp+57417]
  000a3	f3 ab		 rep stosd
  000a5	66 ab		 stosw

; 628  : 	sprintf( szQuery,
; 629  : 		"uspHonorLog @serverindex='%02d',@idPlayer='%07d',@nHonor='%d'",  g_appInfo.dwSys,uidPlayer, nGetHonor );

  000a7	53		 push	 ebx
  000a8	52		 push	 edx
  000a9	aa		 stosb
  000aa	a1 00 00 00 00	 mov	 eax, DWORD PTR ?g_appInfo@@3UAppInfo@@A
  000af	50		 push	 eax
  000b0	8d 8c 24 3c 40
	00 00		 lea	 ecx, DWORD PTR _szQuery$[esp+57428]
  000b7	68 00 00 00 00	 push	 OFFSET FLAT:??_C@_0DO@JFEBANLH@uspHonorLog?5?$EAserverindex?$DN?8?$CF02d?8?0@
  000bc	51		 push	 ecx
  000bd	e8 00 00 00 00	 call	 _sprintf

; 630  : //	qry->Clear();
; 631  : 	if ( FALSE == qry->Exec( szQuery ) )

  000c2	8b 4c 24 28	 mov	 ecx, DWORD PTR $T210924[esp+57436]
  000c6	83 c4 14	 add	 esp, 20			; 00000014H
  000c9	8d 94 24 30 40
	00 00		 lea	 edx, DWORD PTR _szQuery$[esp+57416]
  000d0	52		 push	 edx
  000d1	e8 00 00 00 00	 call	 ?Exec@CQuery@@QAEHPBD@Z	; CQuery::Exec
  000d6	85 c0		 test	 eax, eax
  000d8	75 1f		 jne	 SHORT $L208514

; 632  : 	{
; 633  : 		WriteLog( "%s, %d\t%s", __FILE__, __LINE__, szQuery );

  000da	8d 84 24 30 40
	00 00		 lea	 eax, DWORD PTR _szQuery$[esp+57416]
  000e1	50		 push	 eax
  000e2	68 79 02 00 00	 push	 633			; 00000279H
  000e7	68 00 00 00 00	 push	 OFFSET FLAT:??_C@_0GH@LHPNFEPP@?2Documents?5and?5Settings?2test?2Mes@
  000ec	68 00 00 00 00	 push	 OFFSET FLAT:??_C@_09GBAEEKDE@?$CFs?0?5?$CFd?7?$CFs?$AA@
  000f1	e8 00 00 00 00	 call	 ?WriteLog@@YAXPBDZZ	; WriteLog
  000f6	83 c4 10	 add	 esp, 16			; 00000010H
$L208514:

; 634  : //		qry->Clear();
; 635  : 		FreeRequest( lpDbOverlappedPlus );
; 636  : 		return;
; 637  : 	}
; 638  : 
; 639  : //	qry->Clear();
; 640  : 	FreeRequest( lpDbOverlappedPlus );;

  000f9	8b 4c 24 10	 mov	 ecx, DWORD PTR $T210923[esp+57416]
  000fd	56		 push	 esi
  000fe	e8 00 00 00 00	 call	 ?FreeRequest@CDbManager@@QAEXPAUtagDB_OVERLAPPED_PLUS@@@Z ; CDbManager::FreeRequest

; 641  : }

  00103	8d 4c 24 18	 lea	 ecx, DWORD PTR _arRead$[esp+57416]
  00107	c7 84 24 44 e0
	00 00 ff ff ff
	ff		 mov	 DWORD PTR __$EHRec$[esp+57424], -1
  00112	e8 00 00 00 00	 call	 ??1CAr@@QAE@XZ		; CAr::~CAr
  00117	8b 8c 24 3c e0
	00 00		 mov	 ecx, DWORD PTR __$EHRec$[esp+57416]
  0011e	64 89 0d 00 00
	00 00		 mov	 DWORD PTR fs:__except_list, ecx
  00125	8b 8c 24 34 e0
	00 00		 mov	 ecx, DWORD PTR __$ArrayPad$[esp+57416]
  0012c	5f		 pop	 edi
  0012d	5e		 pop	 esi
  0012e	33 cd		 xor	 ecx, ebp
  00130	5b		 pop	 ebx
  00131	e8 00 00 00 00	 call	 @__security_check_cookie@4
  00136	8b e5		 mov	 esp, ebp
  00138	5d		 pop	 ebp
  00139	c2 08 00	 ret	 8
_TEXT	ENDS
;	COMDAT text$x
text$x	SEGMENT
$L210905:
  00000	8d 8d d0 1f ff
	ff		 lea	 ecx, DWORD PTR _arRead$[ebp]
  00006	e9 00 00 00 00	 jmp	 ??1CAr@@QAE@XZ		; CAr::~CAr
__ehhandler$?LogGetHonorTime@CDbManager@@AAEXPAVCQuery@@PAUtagDB_OVERLAPPED_PLUS@@@Z:
  0000b	b8 00 00 00 00	 mov	 eax, OFFSET FLAT:$T210927
  00010	e9 00 00 00 00	 jmp	 ___CxxFrameHandler
text$x	ENDS
?LogGetHonorTime@CDbManager@@AAEXPAVCQuery@@PAUtagDB_OVERLAPPED_PLUS@@@Z ENDP ; CDbManager::LogGetHonorTime
PUBLIC	?LogConcurrentUserNumber@CDbManager@@AAEXPAVCQuery@@PAUtagDB_OVERLAPPED_PLUS@@@Z ; CDbManager::LogConcurrentUserNumber
PUBLIC	??_C@_0BM@PFNCDNBM@LOG_USER_CNT_STR?5?8?$CF02d?8?0?5?$CFd?$AA@ ; `string'
PUBLIC	??_C@_04KCMJEPHB@?0?5?$CFd?$AA@			; `string'
;	COMDAT xdata$x
; File c:\documents and settings\test\mes documents\source\virtuos_v17\build\program\_network\misc\include\ar.h
xdata$x	SEGMENT
$T210973 DD	0ffffffffH
	DD	FLAT:$L210936
$T210965 DD	019930520H
	DD	01H
	DD	FLAT:$T210973
	DD	2 DUP(00H)
	DD	2 DUP(00H)
xdata$x	ENDS
;	COMDAT ??_C@_0BM@PFNCDNBM@LOG_USER_CNT_STR?5?8?$CF02d?8?0?5?$CFd?$AA@
CONST	SEGMENT
??_C@_0BM@PFNCDNBM@LOG_USER_CNT_STR?5?8?$CF02d?8?0?5?$CFd?$AA@ DB 'LOG_US'
	DB	'ER_CNT_STR ''%02d'', %d', 00H		; `string'
CONST	ENDS
;	COMDAT ??_C@_04KCMJEPHB@?0?5?$CFd?$AA@
CONST	SEGMENT
??_C@_04KCMJEPHB@?0?5?$CFd?$AA@ DB ', %d', 00H		; `string'
; Function compile flags: /Ogty
; File c:\documents and settings\test\mes documents\source\virtuos_v17\build\program\_database\dbmanagerlog.cpp
CONST	ENDS
;	COMDAT ?LogConcurrentUserNumber@CDbManager@@AAEXPAVCQuery@@PAUtagDB_OVERLAPPED_PLUS@@@Z
_TEXT	SEGMENT
_cbSize$ = -57680					; size = 4
$T210961 = -57676					; size = 4
$T210963 = -57672					; size = 4
$T210962 = -57668					; size = 4
_anCount$ = -57664					; size = 256
_ar$ = -57408						; size = 16404
_szCount$ = -40996					; size = 10
_szQuery$ = -40984					; size = 40960
__$ArrayPad$ = -20					; size = 4
__$EHRec$ = -12						; size = 12
__$ReturnAddr$ = 4					; size = 4
_qry$ = 8						; size = 4
_lpDbOverlappedPlus$ = 12				; size = 4
?LogConcurrentUserNumber@CDbManager@@AAEXPAVCQuery@@PAUtagDB_OVERLAPPED_PLUS@@@Z PROC NEAR ; CDbManager::LogConcurrentUserNumber, COMDAT
; _this$ = ecx

; 793  : {

  00000	55		 push	 ebp
  00001	8b ec		 mov	 ebp, esp
  00003	83 e4 f8	 and	 esp, -8			; fffffff8H
  00006	6a ff		 push	 -1
  00008	68 00 00 00 00	 push	 __ehhandler$?LogConcurrentUserNumber@CDbManager@@AAEXPAVCQuery@@PAUtagDB_OVERLAPPED_PLUS@@@Z
  0000d	64 a1 00 00 00
	00		 mov	 eax, DWORD PTR fs:__except_list
  00013	50		 push	 eax
  00014	64 89 25 00 00
	00 00		 mov	 DWORD PTR fs:__except_list, esp
  0001b	51		 push	 ecx
  0001c	b8 44 e1 00 00	 mov	 eax, 57668		; 0000e144H
  00021	e8 00 00 00 00	 call	 __chkstk
  00026	a1 00 00 00 00	 mov	 eax, DWORD PTR ___security_cookie
  0002b	53		 push	 ebx
  0002c	56		 push	 esi
  0002d	8b 75 0c	 mov	 esi, DWORD PTR _lpDbOverlappedPlus$[ebp]

; 794  : 	CAr ar( lpDbOverlappedPlus->lpBuf, lpDbOverlappedPlus->uBufSize );

  00030	8b 56 18	 mov	 edx, DWORD PTR [esi+24]
  00033	89 4c 24 10	 mov	 DWORD PTR $T210961[esp+57692], ecx
  00037	8b 4e 1c	 mov	 ecx, DWORD PTR [esi+28]
  0003a	33 c5		 xor	 eax, ebp
  0003c	57		 push	 edi
  0003d	51		 push	 ecx
  0003e	89 84 24 50 e1
	00 00		 mov	 DWORD PTR __$ArrayPad$[esp+57700], eax

; 827  : }

  00045	8b 45 08	 mov	 eax, DWORD PTR _qry$[ebp]
  00048	52		 push	 edx
  00049	8d 8c 24 28 01
	00 00		 lea	 ecx, DWORD PTR _ar$[esp+57704]
  00050	89 44 24 24	 mov	 DWORD PTR $T210962[esp+57704], eax
  00054	89 74 24 20	 mov	 DWORD PTR $T210963[esp+57704], esi
  00058	e8 00 00 00 00	 call	 ??0CAr@@QAE@PAXI@Z	; CAr::CAr
  0005d	8b 94 24 28 01
	00 00		 mov	 edx, DWORD PTR _ar$[esp+57704]
  00064	8b 8c 24 2c 01
	00 00		 mov	 ecx, DWORD PTR _ar$[esp+57708]
  0006b	33 ff		 xor	 edi, edi
  0006d	8d 42 04	 lea	 eax, DWORD PTR [edx+4]
  00070	3b c1		 cmp	 eax, ecx
  00072	89 bc 24 5c e1
	00 00		 mov	 DWORD PTR __$EHRec$[esp+57704], edi
  00079	77 04		 ja	 SHORT $L210946

; 795  : 	
; 796  : 	//	qry->Clear();
; 797  : 	
; 798  : 	int cbSize;
; 799  : 	int anCount[64];
; 800  : #ifdef __LOG_PLAYERCOUNT_CHANNEL
; 801  : 	int nChannel;
; 802  : 	ar >> nChannel;

  0007b	8b 1a		 mov	 ebx, DWORD PTR [edx]
  0007d	eb 04		 jmp	 SHORT $L210972
$L210946:
  0007f	33 db		 xor	 ebx, ebx
  00081	8b c1		 mov	 eax, ecx
$L210972:

; 803  : #endif // __LOG_PLAYERCOUNT_CHANNEL
; 804  : 	ar >> cbSize;

  00083	8d 50 04	 lea	 edx, DWORD PTR [eax+4]
  00086	3b d1		 cmp	 edx, ecx
  00088	89 84 24 28 01
	00 00		 mov	 DWORD PTR _ar$[esp+57704], eax
  0008f	77 0f		 ja	 SHORT $L210958
  00091	8b 00		 mov	 eax, DWORD PTR [eax]
  00093	89 44 24 10	 mov	 DWORD PTR _cbSize$[esp+57696], eax
  00097	89 94 24 28 01
	00 00		 mov	 DWORD PTR _ar$[esp+57704], edx
  0009e	eb 0b		 jmp	 SHORT $L210960
$L210958:
  000a0	89 7c 24 10	 mov	 DWORD PTR _cbSize$[esp+57696], edi
  000a4	89 8c 24 28 01
	00 00		 mov	 DWORD PTR _ar$[esp+57704], ecx
$L210960:

; 805  : 	//	memset( (void*)anCount, 0, sizeof(int) * 64 );
; 806  : 	ar.Read( (void*)anCount, sizeof(int) * cbSize );

  000ab	8b 4c 24 10	 mov	 ecx, DWORD PTR _cbSize$[esp+57696]
  000af	8d 14 8d 00 00
	00 00		 lea	 edx, DWORD PTR [ecx*4]
  000b6	52		 push	 edx
  000b7	8d 44 24 24	 lea	 eax, DWORD PTR _anCount$[esp+57700]
  000bb	50		 push	 eax
  000bc	8d 8c 24 28 01
	00 00		 lea	 ecx, DWORD PTR _ar$[esp+57704]
  000c3	e8 00 00 00 00	 call	 ?Read@CAr@@QAEXPAXI@Z	; CAr::Read

; 807  : 	//	LOG_USER_CNT_STR '00', 0, 0, 0, 0
; 808  : 	char szQuery[QUERY_SIZE]	= { 0,};

  000c8	c6 84 24 48 41
	00 00 00	 mov	 BYTE PTR _szQuery$[esp+57696], 0
  000d0	33 c0		 xor	 eax, eax
  000d2	b9 ff 27 00 00	 mov	 ecx, 10239		; 000027ffH
  000d7	8d bc 24 49 41
	00 00		 lea	 edi, DWORD PTR _szQuery$[esp+57697]
  000de	f3 ab		 rep stosd

; 809  : #ifdef __LOG_PLAYERCOUNT_CHANNEL
; 810  : 	sprintf( szQuery, "LOG_USER_CNT_STR '%02d', %d", g_appInfo.dwSys, nChannel );

  000e0	8b 0d 00 00 00
	00		 mov	 ecx, DWORD PTR ?g_appInfo@@3UAppInfo@@A
  000e6	53		 push	 ebx
  000e7	51		 push	 ecx
  000e8	66 ab		 stosw
  000ea	8d 94 24 50 41
	00 00		 lea	 edx, DWORD PTR _szQuery$[esp+57704]
  000f1	68 00 00 00 00	 push	 OFFSET FLAT:??_C@_0BM@PFNCDNBM@LOG_USER_CNT_STR?5?8?$CF02d?8?0?5?$CFd?$AA@
  000f6	52		 push	 edx
  000f7	aa		 stosb
  000f8	e8 00 00 00 00	 call	 _sprintf

; 811  : #else // __LOG_PLAYERCOUNT_CHANNEL
; 812  : 	sprintf( szQuery, "LOG_USER_CNT_STR '%02d'", g_appInfo.dwSys );
; 813  : #endif // __LOG_PLAYERCOUNT_CHANNEL
; 814  : 	
; 815  : 	char szCount[10];
; 816  : 	for( int i = 0; i < cbSize; i++ )

  000fd	8b 44 24 20	 mov	 eax, DWORD PTR _cbSize$[esp+57712]
  00101	83 c4 10	 add	 esp, 16			; 00000010H
  00104	33 db		 xor	 ebx, ebx
  00106	85 c0		 test	 eax, eax
  00108	7e 5f		 jle	 SHORT $L208628
  0010a	8d 9b 00 00 00
	00		 npad	 6
$L208626:

; 817  : 	{
; 818  : 		sprintf( szCount, ", %d", anCount[i] );

  00110	8b 44 9c 20	 mov	 eax, DWORD PTR _anCount$[esp+ebx*4+57696]
  00114	50		 push	 eax
  00115	8d 8c 24 40 41
	00 00		 lea	 ecx, DWORD PTR _szCount$[esp+57700]
  0011c	68 00 00 00 00	 push	 OFFSET FLAT:??_C@_04KCMJEPHB@?0?5?$CFd?$AA@
  00121	51		 push	 ecx
  00122	e8 00 00 00 00	 call	 _sprintf

; 819  : 		strcat( szQuery, szCount );

  00127	8d 84 24 48 41
	00 00		 lea	 eax, DWORD PTR _szCount$[esp+57708]
  0012e	83 c4 0c	 add	 esp, 12			; 0000000cH
  00131	8b d0		 mov	 edx, eax
$L210968:
  00133	8a 08		 mov	 cl, BYTE PTR [eax]
  00135	40		 inc	 eax
  00136	84 c9		 test	 cl, cl
  00138	75 f9		 jne	 SHORT $L210968
  0013a	8d bc 24 48 41
	00 00		 lea	 edi, DWORD PTR _szQuery$[esp+57696]
  00141	2b c2		 sub	 eax, edx
  00143	4f		 dec	 edi
$L210969:
  00144	8a 4f 01	 mov	 cl, BYTE PTR [edi+1]
  00147	47		 inc	 edi
  00148	84 c9		 test	 cl, cl
  0014a	75 f8		 jne	 SHORT $L210969
  0014c	8b c8		 mov	 ecx, eax
  0014e	c1 e9 02	 shr	 ecx, 2
  00151	8b f2		 mov	 esi, edx
  00153	f3 a5		 rep movsd
  00155	8b c8		 mov	 ecx, eax
  00157	8b 44 24 10	 mov	 eax, DWORD PTR _cbSize$[esp+57696]
  0015b	83 e1 03	 and	 ecx, 3
  0015e	43		 inc	 ebx
  0015f	3b d8		 cmp	 ebx, eax
  00161	f3 a4		 rep movsb
  00163	7c ab		 jl	 SHORT $L208626

; 811  : #else // __LOG_PLAYERCOUNT_CHANNEL
; 812  : 	sprintf( szQuery, "LOG_USER_CNT_STR '%02d'", g_appInfo.dwSys );
; 813  : #endif // __LOG_PLAYERCOUNT_CHANNEL
; 814  : 	
; 815  : 	char szCount[10];
; 816  : 	for( int i = 0; i < cbSize; i++ )

  00165	8b 74 24 18	 mov	 esi, DWORD PTR $T210963[esp+57696]
$L208628:

; 820  : 	}
; 821  : 	
; 822  : 	qry->Exec( szQuery );

  00169	8b 4c 24 1c	 mov	 ecx, DWORD PTR $T210962[esp+57696]
  0016d	8d 94 24 48 41
	00 00		 lea	 edx, DWORD PTR _szQuery$[esp+57696]
  00174	52		 push	 edx
  00175	e8 00 00 00 00	 call	 ?Exec@CQuery@@QAEHPBD@Z	; CQuery::Exec

; 823  : 	
; 824  : 	//	qry->Clear();
; 825  : 	
; 826  : 	FreeRequest( lpDbOverlappedPlus );

  0017a	8b 4c 24 14	 mov	 ecx, DWORD PTR $T210961[esp+57696]
  0017e	56		 push	 esi
  0017f	e8 00 00 00 00	 call	 ?FreeRequest@CDbManager@@QAEXPAUtagDB_OVERLAPPED_PLUS@@@Z ; CDbManager::FreeRequest

; 827  : }

  00184	8d 8c 24 20 01
	00 00		 lea	 ecx, DWORD PTR _ar$[esp+57696]
  0018b	c7 84 24 5c e1
	00 00 ff ff ff
	ff		 mov	 DWORD PTR __$EHRec$[esp+57704], -1
  00196	e8 00 00 00 00	 call	 ??1CAr@@QAE@XZ		; CAr::~CAr
  0019b	8b 8c 24 54 e1
	00 00		 mov	 ecx, DWORD PTR __$EHRec$[esp+57696]
  001a2	64 89 0d 00 00
	00 00		 mov	 DWORD PTR fs:__except_list, ecx
  001a9	8b 8c 24 4c e1
	00 00		 mov	 ecx, DWORD PTR __$ArrayPad$[esp+57696]
  001b0	5f		 pop	 edi
  001b1	5e		 pop	 esi
  001b2	33 cd		 xor	 ecx, ebp
  001b4	5b		 pop	 ebx
  001b5	e8 00 00 00 00	 call	 @__security_check_cookie@4
  001ba	8b e5		 mov	 esp, ebp
  001bc	5d		 pop	 ebp
  001bd	c2 08 00	 ret	 8
_TEXT	ENDS
;	COMDAT text$x
text$x	SEGMENT
$L210936:
  00000	8d 8d c0 1f ff
	ff		 lea	 ecx, DWORD PTR _ar$[ebp]
  00006	e9 00 00 00 00	 jmp	 ??1CAr@@QAE@XZ		; CAr::~CAr
__ehhandler$?LogConcurrentUserNumber@CDbManager@@AAEXPAVCQuery@@PAUtagDB_OVERLAPPED_PLUS@@@Z:
  0000b	b8 00 00 00 00	 mov	 eax, OFFSET FLAT:$T210965
  00010	e9 00 00 00 00	 jmp	 ___CxxFrameHandler
text$x	ENDS
?LogConcurrentUserNumber@CDbManager@@AAEXPAVCQuery@@PAUtagDB_OVERLAPPED_PLUS@@@Z ENDP ; CDbManager::LogConcurrentUserNumber
PUBLIC	?LogSkillPoint@CDbManager@@AAEXPAVCQuery@@PAUtagDB_OVERLAPPED_PLUS@@@Z ; CDbManager::LogSkillPoint
PUBLIC	??_C@_0EC@CBOOBAOL@uspLoggingAcquireSkillPoint?5?8?$CF02@ ; `string'
PUBLIC	??_C@_0EC@DIPFCBKK@uspLoggingAcquireSkillPoint?5?8?$CF02@ ; `string'
PUBLIC	??_C@_0EA@PKCEFONH@uspLoggingUsingSkillPoint?5?8?$CF02d?8@ ; `string'
;	COMDAT xdata$x
; File c:\documents and settings\test\mes documents\source\virtuos_v17\build\program\_network\misc\include\ar.h
xdata$x	SEGMENT
$T211057 DD	0ffffffffH
	DD	FLAT:$L210978
$T211046 DD	019930520H
	DD	01H
	DD	FLAT:$T211057
	DD	2 DUP(00H)
	DD	2 DUP(00H)
xdata$x	ENDS
;	COMDAT ??_C@_0EC@CBOOBAOL@uspLoggingAcquireSkillPoint?5?8?$CF02@
CONST	SEGMENT
??_C@_0EC@CBOOBAOL@uspLoggingAcquireSkillPoint?5?8?$CF02@ DB 'uspLoggingA'
	DB	'cquireSkillPoint ''%02d'',''%07d'',%d,%d,%d,%d,%d,%I64d,10', 00H ; `string'
CONST	ENDS
;	COMDAT ??_C@_0EC@DIPFCBKK@uspLoggingAcquireSkillPoint?5?8?$CF02@
CONST	SEGMENT
??_C@_0EC@DIPFCBKK@uspLoggingAcquireSkillPoint?5?8?$CF02@ DB 'uspLoggingA'
	DB	'cquireSkillPoint ''%02d'',''%07d'',%d,%d,%d,%d,%d,%I64d,11', 00H ; `string'
CONST	ENDS
;	COMDAT ??_C@_0EA@PKCEFONH@uspLoggingUsingSkillPoint?5?8?$CF02d?8@
CONST	SEGMENT
??_C@_0EA@PKCEFONH@uspLoggingUsingSkillPoint?5?8?$CF02d?8@ DB 'uspLogging'
	DB	'UsingSkillPoint ''%02d'',''%07d'',%d,%d,%d,%d,%d,%I64d,20', 00H ; `string'
; Function compile flags: /Ogty
; File c:\documents and settings\test\mes documents\source\virtuos_v17\build\program\_database\dbmanagerlog.cpp
CONST	ENDS
;	COMDAT ?LogSkillPoint@CDbManager@@AAEXPAVCQuery@@PAUtagDB_OVERLAPPED_PLUS@@@Z
_TEXT	SEGMENT
_nSkillPoint$ = -57420					; size = 4
_nSkillLevel$ = -57416					; size = 4
_uidPlayer$ = -57412					; size = 4
$T211044 = -57408					; size = 4
_nAction$ = -57404					; size = 4
$T211042 = -57400					; size = 4
$T211043 = -57396					; size = 4
_arRead$ = -57392					; size = 16404
_szQuery$ = -40984					; size = 40960
__$ArrayPad$ = -20					; size = 4
__$EHRec$ = -12						; size = 12
__$ReturnAddr$ = 4					; size = 4
_pQuery$ = 8						; size = 4
_lpDbOverlappedPlus$ = 12				; size = 4
?LogSkillPoint@CDbManager@@AAEXPAVCQuery@@PAUtagDB_OVERLAPPED_PLUS@@@Z PROC NEAR ; CDbManager::LogSkillPoint, COMDAT
; _this$ = ecx

; 969  : {

  00000	55		 push	 ebp
  00001	8b ec		 mov	 ebp, esp
  00003	83 e4 f8	 and	 esp, -8			; fffffff8H
  00006	6a ff		 push	 -1
  00008	68 00 00 00 00	 push	 __ehhandler$?LogSkillPoint@CDbManager@@AAEXPAVCQuery@@PAUtagDB_OVERLAPPED_PLUS@@@Z
  0000d	64 a1 00 00 00
	00		 mov	 eax, DWORD PTR fs:__except_list
  00013	50		 push	 eax
  00014	64 89 25 00 00
	00 00		 mov	 DWORD PTR fs:__except_list, esp
  0001b	51		 push	 ecx
  0001c	b8 3c e0 00 00	 mov	 eax, 57404		; 0000e03cH
  00021	e8 00 00 00 00	 call	 __chkstk
  00026	a1 00 00 00 00	 mov	 eax, DWORD PTR ___security_cookie
  0002b	33 c5		 xor	 eax, ebp
  0002d	89 84 24 38 e0
	00 00		 mov	 DWORD PTR __$ArrayPad$[esp+57420], eax
  00034	8b 45 08	 mov	 eax, DWORD PTR _pQuery$[ebp]
  00037	53		 push	 ebx
  00038	56		 push	 esi

; 1002 : 	{
; 1003 : 		sprintf( szQuery, "uspLoggingUsingSkillPoint '%02d','%07d',%d,%d,%d,%d,%d,%I64d,20", 
; 1004 : 			g_appInfo.dwSys, uidPlayer, dwSkillID, dwLevel, nPoint, nSkillPoint, nSkillLevel, nSkillExp );

  00039	89 44 24 20	 mov	 DWORD PTR $T211043[esp+57428], eax
  0003d	8b 45 0c	 mov	 eax, DWORD PTR _lpDbOverlappedPlus$[ebp]
  00040	8b 50 18	 mov	 edx, DWORD PTR [eax+24]
  00043	89 4c 24 1c	 mov	 DWORD PTR $T211042[esp+57428], ecx
  00047	8b 48 1c	 mov	 ecx, DWORD PTR [eax+28]
  0004a	57		 push	 edi
  0004b	51		 push	 ecx
  0004c	52		 push	 edx
  0004d	8d 4c 24 30	 lea	 ecx, DWORD PTR _arRead$[esp+57440]
  00051	89 44 24 20	 mov	 DWORD PTR $T211044[esp+57440], eax
  00055	e8 00 00 00 00	 call	 ??0CAr@@QAE@PAXI@Z	; CAr::CAr
  0005a	8b 74 24 30	 mov	 esi, DWORD PTR _arRead$[esp+57440]
  0005e	8b 44 24 34	 mov	 eax, DWORD PTR _arRead$[esp+57444]
  00062	33 d2		 xor	 edx, edx
  00064	8d 4e 04	 lea	 ecx, DWORD PTR [esi+4]
  00067	3b c8		 cmp	 ecx, eax
  00069	89 94 24 54 e0
	00 00		 mov	 DWORD PTR __$EHRec$[esp+57440], edx
  00070	77 08		 ja	 SHORT $L210989
  00072	8b 36		 mov	 esi, DWORD PTR [esi]
  00074	89 74 24 1c	 mov	 DWORD PTR _nAction$[esp+57432], esi
  00078	eb 06		 jmp	 SHORT $L211049

; 970  : 	CAr arRead( lpDbOverlappedPlus->lpBuf, lpDbOverlappedPlus->uBufSize );
; 971  : 	
; 972  : 	u_long			uidPlayer;						//  
; 973  : 	int				nAction;						// 
; 974  : 	EXPINTEGER		nSkillExp = 0;						// 
; 975  : 	int				nSkillPoint;					// SP
; 976  : 	int				nSkillLevel = 0;					//   
; 977  : 	DWORD			dwSkillID;						//  
; 978  : 	DWORD			dwLevel;						//   
; 979  : 	int				nPoint;							//   
; 980  : 	
; 981  : 	arRead >> nAction;

$L210989:
  0007a	89 54 24 1c	 mov	 DWORD PTR _nAction$[esp+57432], edx
  0007e	8b c8		 mov	 ecx, eax
$L211049:

; 982  : 	arRead >> uidPlayer;

  00080	8d 71 04	 lea	 esi, DWORD PTR [ecx+4]
  00083	3b f0		 cmp	 esi, eax
  00085	89 4c 24 30	 mov	 DWORD PTR _arRead$[esp+57440], ecx
  00089	77 08		 ja	 SHORT $L210994
  0008b	8b 09		 mov	 ecx, DWORD PTR [ecx]
  0008d	89 4c 24 14	 mov	 DWORD PTR _uidPlayer$[esp+57432], ecx
  00091	eb 06		 jmp	 SHORT $L211050
$L210994:
  00093	89 54 24 14	 mov	 DWORD PTR _uidPlayer$[esp+57432], edx
  00097	8b f0		 mov	 esi, eax
$L211050:

; 983  : 	arRead >> nSkillLevel;

  00099	8d 4e 04	 lea	 ecx, DWORD PTR [esi+4]
  0009c	3b c8		 cmp	 ecx, eax
  0009e	89 74 24 30	 mov	 DWORD PTR _arRead$[esp+57440], esi
  000a2	77 08		 ja	 SHORT $L211006
  000a4	8b 36		 mov	 esi, DWORD PTR [esi]
  000a6	89 74 24 10	 mov	 DWORD PTR _nSkillLevel$[esp+57432], esi
  000aa	eb 06		 jmp	 SHORT $L211051
$L211006:
  000ac	89 54 24 10	 mov	 DWORD PTR _nSkillLevel$[esp+57432], edx
  000b0	8b c8		 mov	 ecx, eax
$L211051:

; 984  : 	arRead >> nSkillPoint;

  000b2	8d 71 04	 lea	 esi, DWORD PTR [ecx+4]
  000b5	3b f0		 cmp	 esi, eax
  000b7	89 4c 24 30	 mov	 DWORD PTR _arRead$[esp+57440], ecx
  000bb	77 08		 ja	 SHORT $L211018
  000bd	8b 09		 mov	 ecx, DWORD PTR [ecx]
  000bf	89 4c 24 0c	 mov	 DWORD PTR _nSkillPoint$[esp+57432], ecx
  000c3	eb 06		 jmp	 SHORT $L211052
$L211018:
  000c5	89 54 24 0c	 mov	 DWORD PTR _nSkillPoint$[esp+57432], edx
  000c9	8b f0		 mov	 esi, eax
$L211052:

; 985  : 	arRead >> dwSkillID;

  000cb	8d 4e 04	 lea	 ecx, DWORD PTR [esi+4]
  000ce	3b c8		 cmp	 ecx, eax
  000d0	89 74 24 30	 mov	 DWORD PTR _arRead$[esp+57440], esi
  000d4	77 04		 ja	 SHORT $L211022
  000d6	8b 1e		 mov	 ebx, DWORD PTR [esi]
  000d8	eb 04		 jmp	 SHORT $L211053
$L211022:
  000da	33 db		 xor	 ebx, ebx
  000dc	8b c8		 mov	 ecx, eax
$L211053:

; 986  : 	arRead >> dwLevel;

  000de	8d 79 04	 lea	 edi, DWORD PTR [ecx+4]
  000e1	3b f8		 cmp	 edi, eax
  000e3	89 4c 24 30	 mov	 DWORD PTR _arRead$[esp+57440], ecx
  000e7	77 06		 ja	 SHORT $L211027
  000e9	8b 31		 mov	 esi, DWORD PTR [ecx]
  000eb	8b cf		 mov	 ecx, edi
  000ed	eb 04		 jmp	 SHORT $L211054
$L211027:
  000ef	33 f6		 xor	 esi, esi
  000f1	8b c8		 mov	 ecx, eax
$L211054:

; 987  : 	arRead >> nPoint;

  000f3	8d 79 04	 lea	 edi, DWORD PTR [ecx+4]
  000f6	3b f8		 cmp	 edi, eax
  000f8	89 4c 24 30	 mov	 DWORD PTR _arRead$[esp+57440], ecx
  000fc	77 08		 ja	 SHORT $L211039
  000fe	8b 11		 mov	 edx, DWORD PTR [ecx]
  00100	89 7c 24 30	 mov	 DWORD PTR _arRead$[esp+57440], edi
  00104	eb 04		 jmp	 SHORT $L211040
$L211039:
  00106	89 44 24 30	 mov	 DWORD PTR _arRead$[esp+57440], eax
$L211040:

; 988  : 
; 989  : 	char szQuery[QUERY_SIZE]	= { 0,};

  0010a	33 c0		 xor	 eax, eax
  0010c	c6 84 24 40 40
	00 00 00	 mov	 BYTE PTR _szQuery$[esp+57432], 0
  00114	b9 ff 27 00 00	 mov	 ecx, 10239		; 000027ffH
  00119	8d bc 24 41 40
	00 00		 lea	 edi, DWORD PTR _szQuery$[esp+57433]
  00120	f3 ab		 rep stosd
  00122	66 ab		 stosw
  00124	aa		 stosb

; 990  : 
; 991  : 	if( nAction == LOG_SKILLPOINT_GET_QUEST )

  00125	8b 44 24 1c	 mov	 eax, DWORD PTR _nAction$[esp+57432]
  00129	85 c0		 test	 eax, eax
  0012b	75 21		 jne	 SHORT $L208690

; 992  : 	{
; 993  : 		sprintf( szQuery, "uspLoggingAcquireSkillPoint '%02d','%07d',%d,%d,%d,%d,%d,%I64d,10", 
; 994  : 			g_appInfo.dwSys, uidPlayer, dwSkillID, dwLevel, nPoint, nSkillPoint, nSkillLevel, nSkillExp );

  0012d	8b 4c 24 0c	 mov	 ecx, DWORD PTR _nSkillPoint$[esp+57432]
  00131	50		 push	 eax
  00132	50		 push	 eax
  00133	8b 44 24 18	 mov	 eax, DWORD PTR _nSkillLevel$[esp+57440]
  00137	50		 push	 eax
  00138	a1 00 00 00 00	 mov	 eax, DWORD PTR ?g_appInfo@@3UAppInfo@@A
  0013d	51		 push	 ecx
  0013e	52		 push	 edx
  0013f	8b 54 24 28	 mov	 edx, DWORD PTR _uidPlayer$[esp+57452]
  00143	56		 push	 esi
  00144	53		 push	 ebx
  00145	52		 push	 edx
  00146	50		 push	 eax
  00147	68 00 00 00 00	 push	 OFFSET FLAT:??_C@_0EC@CBOOBAOL@uspLoggingAcquireSkillPoint?5?8?$CF02@

; 995  : 	}
; 996  : 	else if( nAction == LOG_SKILLPOINT_GET_HUNT )

  0014c	eb 4e		 jmp	 SHORT $L211055
$L208690:
  0014e	83 f8 01	 cmp	 eax, 1
  00151	75 23		 jne	 SHORT $L208693

; 997  : 	{
; 998  : 		sprintf( szQuery, "uspLoggingAcquireSkillPoint '%02d','%07d',%d,%d,%d,%d,%d,%I64d,11", 
; 999  : 			g_appInfo.dwSys, uidPlayer, dwSkillID, dwLevel, nPoint, nSkillPoint, nSkillLevel, nSkillExp );

  00153	8b 44 24 10	 mov	 eax, DWORD PTR _nSkillLevel$[esp+57432]
  00157	8b 4c 24 0c	 mov	 ecx, DWORD PTR _nSkillPoint$[esp+57432]
  0015b	6a 00		 push	 0
  0015d	6a 00		 push	 0
  0015f	50		 push	 eax
  00160	a1 00 00 00 00	 mov	 eax, DWORD PTR ?g_appInfo@@3UAppInfo@@A
  00165	51		 push	 ecx
  00166	52		 push	 edx
  00167	8b 54 24 28	 mov	 edx, DWORD PTR _uidPlayer$[esp+57452]
  0016b	56		 push	 esi
  0016c	53		 push	 ebx
  0016d	52		 push	 edx
  0016e	50		 push	 eax
  0016f	68 00 00 00 00	 push	 OFFSET FLAT:??_C@_0EC@DIPFCBKK@uspLoggingAcquireSkillPoint?5?8?$CF02@

; 1000 : 	}
; 1001 : 	else if( nAction == LOG_SKILLPOINT_USE )

  00174	eb 26		 jmp	 SHORT $L211055
$L208693:
  00176	83 f8 10	 cmp	 eax, 16			; 00000010H
  00179	75 31		 jne	 SHORT $L208696

; 1002 : 	{
; 1003 : 		sprintf( szQuery, "uspLoggingUsingSkillPoint '%02d','%07d',%d,%d,%d,%d,%d,%I64d,20", 
; 1004 : 			g_appInfo.dwSys, uidPlayer, dwSkillID, dwLevel, nPoint, nSkillPoint, nSkillLevel, nSkillExp );

  0017b	8b 44 24 10	 mov	 eax, DWORD PTR _nSkillLevel$[esp+57432]
  0017f	8b 4c 24 0c	 mov	 ecx, DWORD PTR _nSkillPoint$[esp+57432]
  00183	6a 00		 push	 0
  00185	6a 00		 push	 0
  00187	50		 push	 eax
  00188	a1 00 00 00 00	 mov	 eax, DWORD PTR ?g_appInfo@@3UAppInfo@@A
  0018d	51		 push	 ecx
  0018e	52		 push	 edx
  0018f	8b 54 24 28	 mov	 edx, DWORD PTR _uidPlayer$[esp+57452]
  00193	56		 push	 esi
  00194	53		 push	 ebx
  00195	52		 push	 edx
  00196	50		 push	 eax
  00197	68 00 00 00 00	 push	 OFFSET FLAT:??_C@_0EA@PKCEFONH@uspLoggingUsingSkillPoint?5?8?$CF02d?8@
$L211055:
  0019c	8d 8c 24 68 40
	00 00		 lea	 ecx, DWORD PTR _szQuery$[esp+57472]
  001a3	51		 push	 ecx
  001a4	e8 00 00 00 00	 call	 _sprintf
  001a9	83 c4 2c	 add	 esp, 44			; 0000002cH
$L208696:

; 1005 : 	}
; 1006 : 
; 1007 : 	if ( FALSE == pQuery->Exec( szQuery ) )

  001ac	8b 74 24 24	 mov	 esi, DWORD PTR $T211043[esp+57432]
  001b0	8d 94 24 40 40
	00 00		 lea	 edx, DWORD PTR _szQuery$[esp+57432]
  001b7	52		 push	 edx
  001b8	8b ce		 mov	 ecx, esi
  001ba	e8 00 00 00 00	 call	 ?Exec@CQuery@@QAEHPBD@Z	; CQuery::Exec
  001bf	85 c0		 test	 eax, eax
  001c1	75 1f		 jne	 SHORT $L208698

; 1008 : 	{
; 1009 : 		WriteLog( "%s, %d\t%s", __FILE__, __LINE__, pQuery );

  001c3	56		 push	 esi
  001c4	68 f1 03 00 00	 push	 1009			; 000003f1H
  001c9	68 00 00 00 00	 push	 OFFSET FLAT:??_C@_0GH@LHPNFEPP@?2Documents?5and?5Settings?2test?2Mes@
  001ce	68 00 00 00 00	 push	 OFFSET FLAT:??_C@_09GBAEEKDE@?$CFs?0?5?$CFd?7?$CFs?$AA@
  001d3	e8 00 00 00 00	 call	 ?WriteLog@@YAXPBDZZ	; WriteLog

; 1010 : 		FreeRequest( lpDbOverlappedPlus );

  001d8	8b 44 24 28	 mov	 eax, DWORD PTR $T211044[esp+57448]
  001dc	83 c4 10	 add	 esp, 16			; 00000010H
  001df	50		 push	 eax

; 1011 : 		return;

  001e0	eb 05		 jmp	 SHORT $L211056
$L208698:

; 1012 : 	}
; 1013 : 	FreeRequest( lpDbOverlappedPlus );

  001e2	8b 4c 24 18	 mov	 ecx, DWORD PTR $T211044[esp+57432]
  001e6	51		 push	 ecx
$L211056:
  001e7	8b 4c 24 24	 mov	 ecx, DWORD PTR $T211042[esp+57436]
  001eb	e8 00 00 00 00	 call	 ?FreeRequest@CDbManager@@QAEXPAUtagDB_OVERLAPPED_PLUS@@@Z ; CDbManager::FreeRequest

; 1014 : }

  001f0	8d 4c 24 28	 lea	 ecx, DWORD PTR _arRead$[esp+57432]
  001f4	c7 84 24 54 e0
	00 00 ff ff ff
	ff		 mov	 DWORD PTR __$EHRec$[esp+57440], -1
  001ff	e8 00 00 00 00	 call	 ??1CAr@@QAE@XZ		; CAr::~CAr
  00204	8b 8c 24 4c e0
	00 00		 mov	 ecx, DWORD PTR __$EHRec$[esp+57432]
  0020b	64 89 0d 00 00
	00 00		 mov	 DWORD PTR fs:__except_list, ecx
  00212	8b 8c 24 44 e0
	00 00		 mov	 ecx, DWORD PTR __$ArrayPad$[esp+57432]
  00219	5f		 pop	 edi
  0021a	5e		 pop	 esi
  0021b	33 cd		 xor	 ecx, ebp
  0021d	5b		 pop	 ebx
  0021e	e8 00 00 00 00	 call	 @__security_check_cookie@4
  00223	8b e5		 mov	 esp, ebp
  00225	5d		 pop	 ebp
  00226	c2 08 00	 ret	 8
_TEXT	ENDS
;	COMDAT text$x
text$x	SEGMENT
$L210978:
  00000	8d 8d d0 1f ff
	ff		 lea	 ecx, DWORD PTR _arRead$[ebp]
  00006	e9 00 00 00 00	 jmp	 ??1CAr@@QAE@XZ		; CAr::~CAr
__ehhandler$?LogSkillPoint@CDbManager@@AAEXPAVCQuery@@PAUtagDB_OVERLAPPED_PLUS@@@Z:
  0000b	b8 00 00 00 00	 mov	 eax, OFFSET FLAT:$T211046
  00010	e9 00 00 00 00	 jmp	 ___CxxFrameHandler
text$x	ENDS
?LogSkillPoint@CDbManager@@AAEXPAVCQuery@@PAUtagDB_OVERLAPPED_PLUS@@@Z ENDP ; CDbManager::LogSkillPoint
PUBLIC	?LogExpBox@CDbManager@@AAEXPAVCQuery@@PAUtagDB_OVERLAPPED_PLUS@@@Z ; CDbManager::LogExpBox
PUBLIC	??_C@_0FN@JANPKKBA@uspLogExpBox?5?$EApserverindex?$DN?8?$CF02d@ ; `string'
;	COMDAT xdata$x
; File c:\documents and settings\test\mes documents\source\virtuos_v17\build\program\_network\misc\include\ar.h
xdata$x	SEGMENT
$T211096 DD	0ffffffffH
	DD	FLAT:$L211062
$T211092 DD	019930520H
	DD	01H
	DD	FLAT:$T211096
	DD	2 DUP(00H)
	DD	2 DUP(00H)
xdata$x	ENDS
;	COMDAT ??_C@_0FN@JANPKKBA@uspLogExpBox?5?$EApserverindex?$DN?8?$CF02d@
CONST	SEGMENT
??_C@_0FN@JANPKKBA@uspLogExpBox?5?$EApserverindex?$DN?8?$CF02d@ DB 'uspLo'
	DB	'gExpBox @pserverindex=''%02d'', @pidPlayer=''%07d'', @pobjid='
	DB	'%d, @piExp=%I64d, @pState=''%c''', 00H	; `string'
; Function compile flags: /Ogty
; File c:\documents and settings\test\mes documents\source\virtuos_v17\build\program\_database\dbmanagerlog.cpp
CONST	ENDS
;	COMDAT ?LogExpBox@CDbManager@@AAEXPAVCQuery@@PAUtagDB_OVERLAPPED_PLUS@@@Z
_TEXT	SEGMENT
_idPlayer$ = -17476					; size = 4
$T211088 = -17472					; size = 4
$T211089 = -17468					; size = 4
_iExp$ = -17464						; size = 8
_ar$ = -17456						; size = 16404
_pszQuery$ = -1048					; size = 1024
__$ArrayPad$ = -20					; size = 4
__$EHRec$ = -12						; size = 12
__$ReturnAddr$ = 4					; size = 4
_pQuery$ = 8						; size = 4
_pov$ = 12						; size = 4
?LogExpBox@CDbManager@@AAEXPAVCQuery@@PAUtagDB_OVERLAPPED_PLUS@@@Z PROC NEAR ; CDbManager::LogExpBox, COMDAT
; _this$ = ecx

; 1124 : {

  00000	55		 push	 ebp
  00001	8b ec		 mov	 ebp, esp
  00003	83 e4 f8	 and	 esp, -8			; fffffff8H
  00006	6a ff		 push	 -1
  00008	68 00 00 00 00	 push	 __ehhandler$?LogExpBox@CDbManager@@AAEXPAVCQuery@@PAUtagDB_OVERLAPPED_PLUS@@@Z
  0000d	64 a1 00 00 00
	00		 mov	 eax, DWORD PTR fs:__except_list
  00013	50		 push	 eax
  00014	64 89 25 00 00
	00 00		 mov	 DWORD PTR fs:__except_list, esp
  0001b	51		 push	 ecx
  0001c	b8 34 44 00 00	 mov	 eax, 17460		; 00004434H
  00021	e8 00 00 00 00	 call	 __chkstk
  00026	a1 00 00 00 00	 mov	 eax, DWORD PTR ___security_cookie
  0002b	53		 push	 ebx
  0002c	56		 push	 esi
  0002d	8b 75 0c	 mov	 esi, DWORD PTR _pov$[ebp]

; 1125 : 	u_long idPlayer;
; 1126 : 	OBJID objid;
; 1127 : 	EXPINTEGER iExp;
; 1128 : 	BOOL bGet;
; 1129 : 
; 1130 : 	CAr ar( pov->lpBuf, pov->uBufSize );

  00030	8b 56 18	 mov	 edx, DWORD PTR [esi+24]
  00033	89 4c 24 0c	 mov	 DWORD PTR $T211088[esp+17484], ecx
  00037	8b 4e 1c	 mov	 ecx, DWORD PTR [esi+28]
  0003a	33 c5		 xor	 eax, ebp
  0003c	57		 push	 edi
  0003d	51		 push	 ecx
  0003e	89 84 24 40 44
	00 00		 mov	 DWORD PTR __$ArrayPad$[esp+17492], eax
  00045	8b 45 08	 mov	 eax, DWORD PTR _pQuery$[ebp]
  00048	52		 push	 edx
  00049	8d 4c 24 28	 lea	 ecx, DWORD PTR _ar$[esp+17496]

; 1132 : 	char pszQuery[1024]	= { 0, };

  0004d	89 44 24 1c	 mov	 DWORD PTR $T211089[esp+17496], eax
  00051	e8 00 00 00 00	 call	 ??0CAr@@QAE@PAXI@Z	; CAr::CAr
  00056	8b 54 24 28	 mov	 edx, DWORD PTR _ar$[esp+17496]
  0005a	8b 4c 24 2c	 mov	 ecx, DWORD PTR _ar$[esp+17500]
  0005e	33 db		 xor	 ebx, ebx
  00060	8d 42 04	 lea	 eax, DWORD PTR [edx+4]
  00063	3b c1		 cmp	 eax, ecx
  00065	89 9c 24 4c 44
	00 00		 mov	 DWORD PTR __$EHRec$[esp+17496], ebx
  0006c	77 08		 ja	 SHORT $L211065
  0006e	8b 12		 mov	 edx, DWORD PTR [edx]
  00070	89 54 24 0c	 mov	 DWORD PTR _idPlayer$[esp+17488], edx
  00074	eb 06		 jmp	 SHORT $L211095

; 1131 : 	ar >> idPlayer >> objid >> iExp >> bGet;

$L211065:
  00076	89 5c 24 0c	 mov	 DWORD PTR _idPlayer$[esp+17488], ebx
  0007a	8b c1		 mov	 eax, ecx
$L211095:
  0007c	8d 50 04	 lea	 edx, DWORD PTR [eax+4]
  0007f	3b d1		 cmp	 edx, ecx
  00081	89 44 24 28	 mov	 DWORD PTR _ar$[esp+17496], eax
  00085	77 08		 ja	 SHORT $L211070
  00087	8b 18		 mov	 ebx, DWORD PTR [eax]
  00089	89 54 24 28	 mov	 DWORD PTR _ar$[esp+17496], edx
  0008d	eb 04		 jmp	 SHORT $L211071
$L211070:
  0008f	89 4c 24 28	 mov	 DWORD PTR _ar$[esp+17496], ecx
$L211071:
  00093	6a 08		 push	 8
  00095	8d 44 24 1c	 lea	 eax, DWORD PTR _iExp$[esp+17492]
  00099	50		 push	 eax
  0009a	8d 4c 24 28	 lea	 ecx, DWORD PTR _ar$[esp+17496]
  0009e	e8 00 00 00 00	 call	 ?Read@CAr@@QAEXPAXI@Z	; CAr::Read
  000a3	8b 4c 24 28	 mov	 ecx, DWORD PTR _ar$[esp+17496]
  000a7	8b 7c 24 2c	 mov	 edi, DWORD PTR _ar$[esp+17500]
  000ab	8d 41 04	 lea	 eax, DWORD PTR [ecx+4]
  000ae	3b c7		 cmp	 eax, edi
  000b0	77 08		 ja	 SHORT $L211085
  000b2	8b 11		 mov	 edx, DWORD PTR [ecx]
  000b4	89 44 24 28	 mov	 DWORD PTR _ar$[esp+17496], eax
  000b8	eb 06		 jmp	 SHORT $L211086
$L211085:
  000ba	33 d2		 xor	 edx, edx
  000bc	89 7c 24 28	 mov	 DWORD PTR _ar$[esp+17496], edi
$L211086:

; 1132 : 	char pszQuery[1024]	= { 0, };

  000c0	33 c0		 xor	 eax, eax

; 1133 : 
; 1134 : 	sprintf( pszQuery, "uspLogExpBox @pserverindex='%02d', @pidPlayer='%07d', @pobjid=%d, @piExp=%I64d, @pState='%c'",
; 1135 : 		g_appInfo.dwSys, idPlayer, objid, iExp, ( bGet? 'G': 'D' ) );

  000c2	85 d2		 test	 edx, edx
  000c4	c6 84 24 38 40
	00 00 00	 mov	 BYTE PTR _pszQuery$[esp+17488], 0
  000cc	b9 ff 00 00 00	 mov	 ecx, 255		; 000000ffH
  000d1	8d bc 24 39 40
	00 00		 lea	 edi, DWORD PTR _pszQuery$[esp+17489]
  000d8	f3 ab		 rep stosd
  000da	0f 94 c1	 sete	 cl
  000dd	fe c9		 dec	 cl
  000df	80 e1 03	 and	 cl, 3
  000e2	80 c1 44	 add	 cl, 68			; 00000044H
  000e5	66 ab		 stosw
  000e7	0f be d1	 movsx	 edx, cl
  000ea	8b 4c 24 18	 mov	 ecx, DWORD PTR _iExp$[esp+17488]
  000ee	52		 push	 edx
  000ef	8b 54 24 10	 mov	 edx, DWORD PTR _idPlayer$[esp+17492]
  000f3	aa		 stosb
  000f4	8b 44 24 20	 mov	 eax, DWORD PTR _iExp$[esp+17496]
  000f8	50		 push	 eax
  000f9	a1 00 00 00 00	 mov	 eax, DWORD PTR ?g_appInfo@@3UAppInfo@@A
  000fe	51		 push	 ecx
  000ff	53		 push	 ebx
  00100	52		 push	 edx
  00101	50		 push	 eax
  00102	8d 8c 24 50 40
	00 00		 lea	 ecx, DWORD PTR _pszQuery$[esp+17512]
  00109	68 00 00 00 00	 push	 OFFSET FLAT:??_C@_0FN@JANPKKBA@uspLogExpBox?5?$EApserverindex?$DN?8?$CF02d@
  0010e	51		 push	 ecx
  0010f	e8 00 00 00 00	 call	 _sprintf

; 1136 : 
; 1137 : 	if ( FALSE == pQuery->Exec( pszQuery ) )

  00114	8b 4c 24 34	 mov	 ecx, DWORD PTR $T211089[esp+17520]
  00118	83 c4 20	 add	 esp, 32			; 00000020H
  0011b	8d 94 24 38 40
	00 00		 lea	 edx, DWORD PTR _pszQuery$[esp+17488]
  00122	52		 push	 edx
  00123	e8 00 00 00 00	 call	 ?Exec@CQuery@@QAEHPBD@Z	; CQuery::Exec
  00128	85 c0		 test	 eax, eax
  0012a	75 1f		 jne	 SHORT $L208751

; 1138 : 		WriteLog( "%s, %d:\t%s", __FILE__, __LINE__, pszQuery );

  0012c	8d 84 24 38 40
	00 00		 lea	 eax, DWORD PTR _pszQuery$[esp+17488]
  00133	50		 push	 eax
  00134	68 72 04 00 00	 push	 1138			; 00000472H
  00139	68 00 00 00 00	 push	 OFFSET FLAT:??_C@_0GH@LHPNFEPP@?2Documents?5and?5Settings?2test?2Mes@
  0013e	68 00 00 00 00	 push	 OFFSET FLAT:??_C@_0L@EBJDFKBI@?$CFs?0?5?$CFd?3?7?$CFs?$AA@
  00143	e8 00 00 00 00	 call	 ?WriteLog@@YAXPBDZZ	; WriteLog
  00148	83 c4 10	 add	 esp, 16			; 00000010H
$L208751:

; 1139 : 	FreeRequest( pov );

  0014b	8b 4c 24 10	 mov	 ecx, DWORD PTR $T211088[esp+17488]
  0014f	56		 push	 esi
  00150	e8 00 00 00 00	 call	 ?FreeRequest@CDbManager@@QAEXPAUtagDB_OVERLAPPED_PLUS@@@Z ; CDbManager::FreeRequest

; 1140 : //	OutputDebugString( pszQuery );
; 1141 : }

  00155	8d 4c 24 20	 lea	 ecx, DWORD PTR _ar$[esp+17488]
  00159	c7 84 24 4c 44
	00 00 ff ff ff
	ff		 mov	 DWORD PTR __$EHRec$[esp+17496], -1
  00164	e8 00 00 00 00	 call	 ??1CAr@@QAE@XZ		; CAr::~CAr
  00169	8b 8c 24 44 44
	00 00		 mov	 ecx, DWORD PTR __$EHRec$[esp+17488]
  00170	64 89 0d 00 00
	00 00		 mov	 DWORD PTR fs:__except_list, ecx
  00177	8b 8c 24 3c 44
	00 00		 mov	 ecx, DWORD PTR __$ArrayPad$[esp+17488]
  0017e	5f		 pop	 edi
  0017f	5e		 pop	 esi
  00180	33 cd		 xor	 ecx, ebp
  00182	5b		 pop	 ebx
  00183	e8 00 00 00 00	 call	 @__security_check_cookie@4
  00188	8b e5		 mov	 esp, ebp
  0018a	5d		 pop	 ebp
  0018b	c2 08 00	 ret	 8
_TEXT	ENDS
;	COMDAT text$x
text$x	SEGMENT
$L211062:
  00000	8d 8d d0 bb ff
	ff		 lea	 ecx, DWORD PTR _ar$[ebp]
  00006	e9 00 00 00 00	 jmp	 ??1CAr@@QAE@XZ		; CAr::~CAr
__ehhandler$?LogExpBox@CDbManager@@AAEXPAVCQuery@@PAUtagDB_OVERLAPPED_PLUS@@@Z:
  0000b	b8 00 00 00 00	 mov	 eax, OFFSET FLAT:$T211092
  00010	e9 00 00 00 00	 jmp	 ___CxxFrameHandler
text$x	ENDS
?LogExpBox@CDbManager@@AAEXPAVCQuery@@PAUtagDB_OVERLAPPED_PLUS@@@Z ENDP ; CDbManager::LogExpBox
PUBLIC	?LogInstanceDungeon@CDbManager@@AAEXPAVCQuery@@PAUtagDB_OVERLAPPED_PLUS@@@Z ; CDbManager::LogInstanceDungeon
PUBLIC	??_C@_0IJ@FAMDIIKP@usp_Log_Ins_Dungeon_Insert?5?$EAserv@ ; `string'
EXTRN	?Execute@CQuery@@QAAHPBDZZ:NEAR			; CQuery::Execute
;	COMDAT xdata$x
; File c:\documents and settings\test\mes documents\source\virtuos_v17\build\program\_network\misc\include\ar.h
xdata$x	SEGMENT
$T211152 DD	0ffffffffH
	DD	FLAT:$L211101
$T211145 DD	019930520H
	DD	01H
	DD	FLAT:$T211152
	DD	2 DUP(00H)
	DD	2 DUP(00H)
xdata$x	ENDS
;	COMDAT ??_C@_0IJ@FAMDIIKP@usp_Log_Ins_Dungeon_Insert?5?$EAserv@
CONST	SEGMENT
??_C@_0IJ@FAMDIIKP@usp_Log_Ins_Dungeon_Insert?5?$EAserv@ DB 'usp_Log_Ins_'
	DB	'Dungeon_Insert @serverindex = ''%02d'', @m_DungeonID = ''%07d'
	DB	''', @m_WorldID = %d, @m_channel = %d, @m_Type = %d, @m_State '
	DB	'= ''%c''', 00H				; `string'
; Function compile flags: /Ogty
; File c:\documents and settings\test\mes documents\source\virtuos_v17\build\program\_database\dbmanagerlog.cpp
CONST	ENDS
;	COMDAT ?LogInstanceDungeon@CDbManager@@AAEXPAVCQuery@@PAUtagDB_OVERLAPPED_PLUS@@@Z
_TEXT	SEGMENT
_dwWorldId$ = -16436					; size = 4
_dwDungeonId$ = -16432					; size = 4
$T211142 = -16428					; size = 4
$T211141 = -16424					; size = 4
_arRead$ = -16420					; size = 16404
__$ArrayPad$ = -16					; size = 4
__$EHRec$ = -12						; size = 12
__$ReturnAddr$ = 4					; size = 4
_pQuery$ = 8						; size = 4
_lpDbOverlappedPlus$ = 12				; size = 4
?LogInstanceDungeon@CDbManager@@AAEXPAVCQuery@@PAUtagDB_OVERLAPPED_PLUS@@@Z PROC NEAR ; CDbManager::LogInstanceDungeon, COMDAT
; _this$ = ecx

; 1145 : {

  00000	6a ff		 push	 -1
  00002	68 00 00 00 00	 push	 __ehhandler$?LogInstanceDungeon@CDbManager@@AAEXPAVCQuery@@PAUtagDB_OVERLAPPED_PLUS@@@Z
  00007	64 a1 00 00 00
	00		 mov	 eax, DWORD PTR fs:__except_list
  0000d	50		 push	 eax
  0000e	b8 28 40 00 00	 mov	 eax, 16424		; 00004028H
  00013	64 89 25 00 00
	00 00		 mov	 DWORD PTR fs:__except_list, esp
  0001a	e8 00 00 00 00	 call	 __chkstk
  0001f	a1 00 00 00 00	 mov	 eax, DWORD PTR ___security_cookie
  00024	33 c4		 xor	 eax, esp
  00026	53		 push	 ebx
  00027	55		 push	 ebp
  00028	8b ac 24 44 40
	00 00		 mov	 ebp, DWORD PTR _lpDbOverlappedPlus$[esp+16440]

; 1146 : 	CAr arRead( lpDbOverlappedPlus->lpBuf, lpDbOverlappedPlus->uBufSize );

  0002f	8b 55 18	 mov	 edx, DWORD PTR [ebp+24]
  00032	56		 push	 esi
  00033	89 4c 24 18	 mov	 DWORD PTR $T211141[esp+16448], ecx
  00037	8b 4d 1c	 mov	 ecx, DWORD PTR [ebp+28]
  0003a	57		 push	 edi
  0003b	51		 push	 ecx
  0003c	89 84 24 38 40
	00 00		 mov	 DWORD PTR __$ArrayPad$[esp+16456], eax
  00043	8b 84 24 4c 40
	00 00		 mov	 eax, DWORD PTR _pQuery$[esp+16452]
  0004a	52		 push	 edx
  0004b	8d 4c 24 28	 lea	 ecx, DWORD PTR _arRead$[esp+16460]

; 1154 : 	
; 1155 : 	pQuery->Execute( "usp_Log_Ins_Dungeon_Insert @serverindex = '%02d', @m_DungeonID = '%07d', @m_WorldID = %d, @m_channel = %d, @m_Type = %d, @m_State = '%c'", 
; 1156 : 	g_appInfo.dwSys, dwDungeonId, dwWorldId, uChannel, nDungeonType, chState );

  0004f	89 44 24 20	 mov	 DWORD PTR $T211142[esp+16460], eax
  00053	e8 00 00 00 00	 call	 ??0CAr@@QAE@PAXI@Z	; CAr::CAr
  00058	8b 54 24 28	 mov	 edx, DWORD PTR _arRead$[esp+16460]
  0005c	8b 44 24 2c	 mov	 eax, DWORD PTR _arRead$[esp+16464]
  00060	33 db		 xor	 ebx, ebx
  00062	8d 4a 04	 lea	 ecx, DWORD PTR [edx+4]
  00065	3b c8		 cmp	 ecx, eax
  00067	89 9c 24 40 40
	00 00		 mov	 DWORD PTR __$EHRec$[esp+16460], ebx
  0006e	77 08		 ja	 SHORT $L211104
  00070	8b 12		 mov	 edx, DWORD PTR [edx]
  00072	89 54 24 14	 mov	 DWORD PTR _dwDungeonId$[esp+16452], edx
  00076	eb 06		 jmp	 SHORT $L211148

; 1147 : 
; 1148 : 	DWORD dwDungeonId, dwWorldId;
; 1149 : 	u_long uChannel;
; 1150 : 	int	nDungeonType;
; 1151 : 	char chState;
; 1152 : 
; 1153 : 	arRead >> dwDungeonId >> dwWorldId >> uChannel >> nDungeonType >> chState;

$L211104:
  00078	89 5c 24 14	 mov	 DWORD PTR _dwDungeonId$[esp+16452], ebx
  0007c	8b c8		 mov	 ecx, eax
$L211148:
  0007e	8d 51 04	 lea	 edx, DWORD PTR [ecx+4]
  00081	3b d0		 cmp	 edx, eax
  00083	89 4c 24 28	 mov	 DWORD PTR _arRead$[esp+16460], ecx
  00087	77 08		 ja	 SHORT $L211109
  00089	8b 09		 mov	 ecx, DWORD PTR [ecx]
  0008b	89 4c 24 10	 mov	 DWORD PTR _dwWorldId$[esp+16452], ecx
  0008f	eb 06		 jmp	 SHORT $L211149
$L211109:
  00091	89 5c 24 10	 mov	 DWORD PTR _dwWorldId$[esp+16452], ebx
  00095	8b d0		 mov	 edx, eax
$L211149:
  00097	8d 4a 04	 lea	 ecx, DWORD PTR [edx+4]
  0009a	3b c8		 cmp	 ecx, eax
  0009c	89 54 24 28	 mov	 DWORD PTR _arRead$[esp+16460], edx
  000a0	77 04		 ja	 SHORT $L211114
  000a2	8b 12		 mov	 edx, DWORD PTR [edx]
  000a4	eb 04		 jmp	 SHORT $L211150
$L211114:
  000a6	33 d2		 xor	 edx, edx
  000a8	8b c8		 mov	 ecx, eax
$L211150:
  000aa	8d 71 04	 lea	 esi, DWORD PTR [ecx+4]
  000ad	3b f0		 cmp	 esi, eax
  000af	89 4c 24 28	 mov	 DWORD PTR _arRead$[esp+16460], ecx
  000b3	77 04		 ja	 SHORT $L211126
  000b5	8b 09		 mov	 ecx, DWORD PTR [ecx]
  000b7	eb 04		 jmp	 SHORT $L211151
$L211126:
  000b9	33 c9		 xor	 ecx, ecx
  000bb	8b f0		 mov	 esi, eax
$L211151:
  000bd	8d 7e 01	 lea	 edi, DWORD PTR [esi+1]
  000c0	3b f8		 cmp	 edi, eax
  000c2	89 74 24 28	 mov	 DWORD PTR _arRead$[esp+16460], esi
  000c6	77 08		 ja	 SHORT $L211138
  000c8	8a 1e		 mov	 bl, BYTE PTR [esi]
  000ca	89 7c 24 28	 mov	 DWORD PTR _arRead$[esp+16460], edi
  000ce	eb 04		 jmp	 SHORT $L211139
$L211138:
  000d0	89 44 24 28	 mov	 DWORD PTR _arRead$[esp+16460], eax
$L211139:

; 1154 : 	
; 1155 : 	pQuery->Execute( "usp_Log_Ins_Dungeon_Insert @serverindex = '%02d', @m_DungeonID = '%07d', @m_WorldID = %d, @m_channel = %d, @m_Type = %d, @m_State = '%c'", 
; 1156 : 	g_appInfo.dwSys, dwDungeonId, dwWorldId, uChannel, nDungeonType, chState );

  000d4	0f be c3	 movsx	 eax, bl
  000d7	50		 push	 eax
  000d8	a1 00 00 00 00	 mov	 eax, DWORD PTR ?g_appInfo@@3UAppInfo@@A
  000dd	51		 push	 ecx
  000de	8b 4c 24 18	 mov	 ecx, DWORD PTR _dwWorldId$[esp+16460]
  000e2	52		 push	 edx
  000e3	8b 54 24 20	 mov	 edx, DWORD PTR _dwDungeonId$[esp+16464]
  000e7	51		 push	 ecx
  000e8	8b 4c 24 28	 mov	 ecx, DWORD PTR $T211142[esp+16468]
  000ec	52		 push	 edx
  000ed	50		 push	 eax
  000ee	68 00 00 00 00	 push	 OFFSET FLAT:??_C@_0IJ@FAMDIIKP@usp_Log_Ins_Dungeon_Insert?5?$EAserv@
  000f3	51		 push	 ecx
  000f4	e8 00 00 00 00	 call	 ?Execute@CQuery@@QAAHPBDZZ ; CQuery::Execute

; 1157 : 	
; 1158 : 	FreeRequest( lpDbOverlappedPlus );

  000f9	8b 4c 24 3c	 mov	 ecx, DWORD PTR $T211141[esp+16484]
  000fd	83 c4 20	 add	 esp, 32			; 00000020H
  00100	55		 push	 ebp
  00101	e8 00 00 00 00	 call	 ?FreeRequest@CDbManager@@QAEXPAUtagDB_OVERLAPPED_PLUS@@@Z ; CDbManager::FreeRequest

; 1159 : }

  00106	8d 4c 24 20	 lea	 ecx, DWORD PTR _arRead$[esp+16452]
  0010a	c7 84 24 40 40
	00 00 ff ff ff
	ff		 mov	 DWORD PTR __$EHRec$[esp+16460], -1
  00115	e8 00 00 00 00	 call	 ??1CAr@@QAE@XZ		; CAr::~CAr
  0011a	8b 8c 24 38 40
	00 00		 mov	 ecx, DWORD PTR __$EHRec$[esp+16452]
  00121	5f		 pop	 edi
  00122	5e		 pop	 esi
  00123	5d		 pop	 ebp
  00124	64 89 0d 00 00
	00 00		 mov	 DWORD PTR fs:__except_list, ecx
  0012b	8b 8c 24 28 40
	00 00		 mov	 ecx, DWORD PTR __$ArrayPad$[esp+16440]
  00132	5b		 pop	 ebx
  00133	33 cc		 xor	 ecx, esp
  00135	e8 00 00 00 00	 call	 @__security_check_cookie@4
  0013a	81 c4 34 40 00
	00		 add	 esp, 16436		; 00004034H
  00140	c2 08 00	 ret	 8
_TEXT	ENDS
;	COMDAT text$x
text$x	SEGMENT
$L211101:
  00000	8d 8d dc bf ff
	ff		 lea	 ecx, DWORD PTR _arRead$[ebp]
  00006	e9 00 00 00 00	 jmp	 ??1CAr@@QAE@XZ		; CAr::~CAr
__ehhandler$?LogInstanceDungeon@CDbManager@@AAEXPAVCQuery@@PAUtagDB_OVERLAPPED_PLUS@@@Z:
  0000b	b8 00 00 00 00	 mov	 eax, OFFSET FLAT:$T211145
  00010	e9 00 00 00 00	 jmp	 ___CxxFrameHandler
text$x	ENDS
?LogInstanceDungeon@CDbManager@@AAEXPAVCQuery@@PAUtagDB_OVERLAPPED_PLUS@@@Z ENDP ; CDbManager::LogInstanceDungeon
PUBLIC	?LogError@CDbManager@@AAEXPAVCQuery@@PAUtagDB_OVERLAPPED_PLUS@@@Z ; CDbManager::LogError
PUBLIC	??_C@_0ID@PMGIPGNI@usp_SystemError_Insert?5?$EAm_idPlay@ ; `string'
;	COMDAT xdata$x
; File c:\documents and settings\test\mes documents\source\virtuos_v17\build\program\_network\misc\include\ar.h
xdata$x	SEGMENT
$T211189 DD	0ffffffffH
	DD	FLAT:$L211158
$T211185 DD	019930520H
	DD	01H
	DD	FLAT:$T211189
	DD	2 DUP(00H)
	DD	2 DUP(00H)
xdata$x	ENDS
;	COMDAT ??_C@_0ID@PMGIPGNI@usp_SystemError_Insert?5?$EAm_idPlay@
CONST	SEGMENT
??_C@_0ID@PMGIPGNI@usp_SystemError_Insert?5?$EAm_idPlay@ DB 'usp_SystemEr'
	DB	'ror_Insert @m_idPlayer = ''%07d'', @serverindex = ''%02d'', @'
	DB	'account = %s, @nChannel = %d, @chType = ''%c'', @szError = '''
	DB	'%s''', 00H					; `string'
; Function compile flags: /Ogty
; File c:\documents and settings\test\mes documents\source\virtuos_v17\build\program\_database\dbmanagerlog.cpp
CONST	ENDS
;	COMDAT ?LogError@CDbManager@@AAEXPAVCQuery@@PAUtagDB_OVERLAPPED_PLUS@@@Z
_TEXT	SEGMENT
_idPlayer$ = -17516					; size = 4
$T211181 = -17512					; size = 4
$T211182 = -17508					; size = 4
_arRead$ = -17504					; size = 16404
_szAccount$ = -1092					; size = 42
_szError$ = -1048					; size = 1024
__$ArrayPad$ = -20					; size = 4
__$EHRec$ = -12						; size = 12
__$ReturnAddr$ = 4					; size = 4
_pQuery$ = 8						; size = 4
_lpDbOverlappedPlus$ = 12				; size = 4
?LogError@CDbManager@@AAEXPAVCQuery@@PAUtagDB_OVERLAPPED_PLUS@@@Z PROC NEAR ; CDbManager::LogError, COMDAT
; _this$ = ecx

; 1164 : {

  00000	55		 push	 ebp
  00001	8b ec		 mov	 ebp, esp
  00003	83 e4 f8	 and	 esp, -8			; fffffff8H
  00006	6a ff		 push	 -1
  00008	68 00 00 00 00	 push	 __ehhandler$?LogError@CDbManager@@AAEXPAVCQuery@@PAUtagDB_OVERLAPPED_PLUS@@@Z
  0000d	64 a1 00 00 00
	00		 mov	 eax, DWORD PTR fs:__except_list
  00013	50		 push	 eax
  00014	64 89 25 00 00
	00 00		 mov	 DWORD PTR fs:__except_list, esp
  0001b	51		 push	 ecx
  0001c	b8 5c 44 00 00	 mov	 eax, 17500		; 0000445cH
  00021	e8 00 00 00 00	 call	 __chkstk
  00026	a1 00 00 00 00	 mov	 eax, DWORD PTR ___security_cookie
  0002b	53		 push	 ebx
  0002c	56		 push	 esi
  0002d	8b 75 0c	 mov	 esi, DWORD PTR _lpDbOverlappedPlus$[ebp]

; 1165 : 	CAr arRead( lpDbOverlappedPlus->lpBuf, lpDbOverlappedPlus->uBufSize );

  00030	8b 56 18	 mov	 edx, DWORD PTR [esi+24]
  00033	89 4c 24 0c	 mov	 DWORD PTR $T211181[esp+17524], ecx
  00037	8b 4e 1c	 mov	 ecx, DWORD PTR [esi+28]
  0003a	33 c5		 xor	 eax, ebp
  0003c	57		 push	 edi
  0003d	51		 push	 ecx
  0003e	89 84 24 68 44
	00 00		 mov	 DWORD PTR __$ArrayPad$[esp+17532], eax
  00045	8b 45 08	 mov	 eax, DWORD PTR _pQuery$[ebp]
  00048	52		 push	 edx
  00049	8d 4c 24 20	 lea	 ecx, DWORD PTR _arRead$[esp+17536]

; 1175 : 	arRead.ReadString( szError, 1024 );

  0004d	89 44 24 1c	 mov	 DWORD PTR $T211182[esp+17536], eax
  00051	e8 00 00 00 00	 call	 ??0CAr@@QAE@PAXI@Z	; CAr::CAr
  00056	8b 54 24 24	 mov	 edx, DWORD PTR _arRead$[esp+17540]
  0005a	33 c0		 xor	 eax, eax
  0005c	33 db		 xor	 ebx, ebx
  0005e	88 9c 24 34 40
	00 00		 mov	 BYTE PTR _szAccount$[esp+17528], bl
  00065	b9 0a 00 00 00	 mov	 ecx, 10			; 0000000aH
  0006a	8d bc 24 35 40
	00 00		 lea	 edi, DWORD PTR _szAccount$[esp+17529]
  00071	f3 ab		 rep stosd
  00073	aa		 stosb
  00074	33 c0		 xor	 eax, eax
  00076	88 9c 24 60 40
	00 00		 mov	 BYTE PTR _szError$[esp+17528], bl
  0007d	b9 ff 00 00 00	 mov	 ecx, 255		; 000000ffH
  00082	8d bc 24 61 40
	00 00		 lea	 edi, DWORD PTR _szError$[esp+17529]
  00089	f3 ab		 rep stosd
  0008b	8b 4c 24 20	 mov	 ecx, DWORD PTR _arRead$[esp+17536]
  0008f	66 ab		 stosw
  00091	aa		 stosb
  00092	8d 41 04	 lea	 eax, DWORD PTR [ecx+4]
  00095	3b c2		 cmp	 eax, edx
  00097	89 9c 24 74 44
	00 00		 mov	 DWORD PTR __$EHRec$[esp+17536], ebx
  0009e	77 0c		 ja	 SHORT $L211161
  000a0	8b 09		 mov	 ecx, DWORD PTR [ecx]
  000a2	89 4c 24 0c	 mov	 DWORD PTR _idPlayer$[esp+17528], ecx
  000a6	89 44 24 20	 mov	 DWORD PTR _arRead$[esp+17536], eax
  000aa	eb 08		 jmp	 SHORT $L211162

; 1166 : 
; 1167 : 	u_long idPlayer, idChannel;
; 1168 : 	char szAccount[MAX_ACCOUNT] = {0, };
; 1169 : 	char chType;
; 1170 : 	char szError[1024] = {0, };
; 1171 : 
; 1172 : 	arRead >> idPlayer;

$L211161:
  000ac	89 5c 24 0c	 mov	 DWORD PTR _idPlayer$[esp+17528], ebx
  000b0	89 54 24 20	 mov	 DWORD PTR _arRead$[esp+17536], edx
$L211162:

; 1173 : 	arRead.ReadString( szAccount, MAX_ACCOUNT );

  000b4	6a 2a		 push	 42			; 0000002aH
  000b6	8d 94 24 38 40
	00 00		 lea	 edx, DWORD PTR _szAccount$[esp+17532]
  000bd	52		 push	 edx
  000be	8d 4c 24 20	 lea	 ecx, DWORD PTR _arRead$[esp+17536]
  000c2	e8 00 00 00 00	 call	 ?ReadString@CAr@@QAEPADPADH@Z ; CAr::ReadString

; 1174 : 	arRead >> idChannel >> chType;

  000c7	8b 54 24 20	 mov	 edx, DWORD PTR _arRead$[esp+17536]
  000cb	8b 4c 24 24	 mov	 ecx, DWORD PTR _arRead$[esp+17540]
  000cf	8d 42 04	 lea	 eax, DWORD PTR [edx+4]
  000d2	3b c1		 cmp	 eax, ecx
  000d4	77 04		 ja	 SHORT $L211166
  000d6	8b 3a		 mov	 edi, DWORD PTR [edx]
  000d8	eb 04		 jmp	 SHORT $L211188
$L211166:
  000da	33 ff		 xor	 edi, edi
  000dc	8b c1		 mov	 eax, ecx
$L211188:
  000de	8d 50 01	 lea	 edx, DWORD PTR [eax+1]
  000e1	3b d1		 cmp	 edx, ecx
  000e3	89 44 24 20	 mov	 DWORD PTR _arRead$[esp+17536], eax
  000e7	77 08		 ja	 SHORT $L211178
  000e9	8a 18		 mov	 bl, BYTE PTR [eax]
  000eb	89 54 24 20	 mov	 DWORD PTR _arRead$[esp+17536], edx
  000ef	eb 04		 jmp	 SHORT $L211179
$L211178:
  000f1	89 4c 24 20	 mov	 DWORD PTR _arRead$[esp+17536], ecx
$L211179:

; 1175 : 	arRead.ReadString( szError, 1024 );

  000f5	68 00 04 00 00	 push	 1024			; 00000400H
  000fa	8d 84 24 64 40
	00 00		 lea	 eax, DWORD PTR _szError$[esp+17532]
  00101	50		 push	 eax
  00102	8d 4c 24 20	 lea	 ecx, DWORD PTR _arRead$[esp+17536]
  00106	e8 00 00 00 00	 call	 ?ReadString@CAr@@QAEPADPADH@Z ; CAr::ReadString

; 1176 : 	
; 1177 : 	pQuery->Execute( "usp_SystemError_Insert @m_idPlayer = '%07d', @serverindex = '%02d', @account = %s, @nChannel = %d, @chType = '%c', @szError = '%s'", 
; 1178 : 	idPlayer, g_appInfo.dwSys, szAccount, idChannel, chType, szError );

  0010b	8d 8c 24 60 40
	00 00		 lea	 ecx, DWORD PTR _szError$[esp+17528]
  00112	51		 push	 ecx
  00113	8b 0d 00 00 00
	00		 mov	 ecx, DWORD PTR ?g_appInfo@@3UAppInfo@@A
  00119	0f be d3	 movsx	 edx, bl
  0011c	52		 push	 edx
  0011d	8b 54 24 14	 mov	 edx, DWORD PTR _idPlayer$[esp+17536]
  00121	57		 push	 edi
  00122	8d 84 24 40 40
	00 00		 lea	 eax, DWORD PTR _szAccount$[esp+17540]
  00129	50		 push	 eax
  0012a	8b 44 24 24	 mov	 eax, DWORD PTR $T211182[esp+17544]
  0012e	51		 push	 ecx
  0012f	52		 push	 edx
  00130	68 00 00 00 00	 push	 OFFSET FLAT:??_C@_0ID@PMGIPGNI@usp_SystemError_Insert?5?$EAm_idPlay@
  00135	50		 push	 eax
  00136	e8 00 00 00 00	 call	 ?Execute@CQuery@@QAAHPBDZZ ; CQuery::Execute

; 1179 : 	
; 1180 : 	FreeRequest( lpDbOverlappedPlus );

  0013b	8b 4c 24 30	 mov	 ecx, DWORD PTR $T211181[esp+17560]
  0013f	83 c4 20	 add	 esp, 32			; 00000020H
  00142	56		 push	 esi
  00143	e8 00 00 00 00	 call	 ?FreeRequest@CDbManager@@QAEXPAUtagDB_OVERLAPPED_PLUS@@@Z ; CDbManager::FreeRequest

; 1181 : }

  00148	8d 4c 24 18	 lea	 ecx, DWORD PTR _arRead$[esp+17528]
  0014c	c7 84 24 74 44
	00 00 ff ff ff
	ff		 mov	 DWORD PTR __$EHRec$[esp+17536], -1
  00157	e8 00 00 00 00	 call	 ??1CAr@@QAE@XZ		; CAr::~CAr
  0015c	8b 8c 24 6c 44
	00 00		 mov	 ecx, DWORD PTR __$EHRec$[esp+17528]
  00163	64 89 0d 00 00
	00 00		 mov	 DWORD PTR fs:__except_list, ecx
  0016a	8b 8c 24 64 44
	00 00		 mov	 ecx, DWORD PTR __$ArrayPad$[esp+17528]
  00171	5f		 pop	 edi
  00172	5e		 pop	 esi
  00173	33 cd		 xor	 ecx, ebp
  00175	5b		 pop	 ebx
  00176	e8 00 00 00 00	 call	 @__security_check_cookie@4
  0017b	8b e5		 mov	 esp, ebp
  0017d	5d		 pop	 ebp
  0017e	c2 08 00	 ret	 8
_TEXT	ENDS
;	COMDAT text$x
text$x	SEGMENT
$L211158:
  00000	8d 8d a0 bb ff
	ff		 lea	 ecx, DWORD PTR _arRead$[ebp]
  00006	e9 00 00 00 00	 jmp	 ??1CAr@@QAE@XZ		; CAr::~CAr
__ehhandler$?LogError@CDbManager@@AAEXPAVCQuery@@PAUtagDB_OVERLAPPED_PLUS@@@Z:
  0000b	b8 00 00 00 00	 mov	 eax, OFFSET FLAT:$T211185
  00010	e9 00 00 00 00	 jmp	 ___CxxFrameHandler
text$x	ENDS
?LogError@CDbManager@@AAEXPAVCQuery@@PAUtagDB_OVERLAPPED_PLUS@@@Z ENDP ; CDbManager::LogError
PUBLIC	?LogGuildFurniture@CDbManager@@AAEXPAVCQuery@@PAUtagDB_OVERLAPPED_PLUS@@@Z ; CDbManager::LogGuildFurniture
PUBLIC	??_C@_0IN@GLPAOOJ@usp_GuildFurniture_Log?5?$EAserverin@ ; `string'
EXTRN	??0GuildHouse_Furniture_Info@CGuildHouseBase@@QAE@KHUD3DXVECTOR3@@MJ@Z:NEAR ; CGuildHouseBase::GuildHouse_Furniture_Info::GuildHouse_Furniture_Info
EXTRN	?Serialize@GuildHouse_Furniture_Info@CGuildHouseBase@@QAEXAAVCAr@@@Z:NEAR ; CGuildHouseBase::GuildHouse_Furniture_Info::Serialize
;	COMDAT xdata$x
; File c:\documents and settings\test\mes documents\source\virtuos_v17\build\program\_network\misc\include\ar.h
xdata$x	SEGMENT
$T211225 DD	0ffffffffH
	DD	FLAT:$L211195
$T211220 DD	019930520H
	DD	01H
	DD	FLAT:$T211225
	DD	2 DUP(00H)
	DD	2 DUP(00H)
xdata$x	ENDS
;	COMDAT ??_C@_0IN@GLPAOOJ@usp_GuildFurniture_Log?5?$EAserverin@
CONST	SEGMENT
??_C@_0IN@GLPAOOJ@usp_GuildFurniture_Log?5?$EAserverin@ DB 'usp_GuildFurn'
	DB	'iture_Log @serverindex = ''%02d'', @m_idGuild = ''%06d'', @SE'
	DB	'Q = %d, @ItemIndex = %d, @tKeepTime = %d, @bSetup = %d, @nSta'
	DB	'te = ''%c''', 00H				; `string'
; Function compile flags: /Ogty
; File c:\documents and settings\test\mes documents\source\virtuos_v17\build\program\_database\dbmanagerlog.cpp
CONST	ENDS
;	COMDAT ?LogGuildFurniture@CDbManager@@AAEXPAVCQuery@@PAUtagDB_OVERLAPPED_PLUS@@@Z
_TEXT	SEGMENT
$T211194 = -16468					; size = 12
_gfi$ = -16456						; size = 36
_arRead$ = -16420					; size = 16404
__$ArrayPad$ = -16					; size = 4
__$EHRec$ = -12						; size = 12
__$ReturnAddr$ = 4					; size = 4
_pQuery$ = 8						; size = 4
_lpDbOverlappedPlus$ = 12				; size = 4
?LogGuildFurniture@CDbManager@@AAEXPAVCQuery@@PAUtagDB_OVERLAPPED_PLUS@@@Z PROC NEAR ; CDbManager::LogGuildFurniture, COMDAT
; _this$ = ecx

; 1186 : {

  00000	6a ff		 push	 -1
  00002	68 00 00 00 00	 push	 __ehhandler$?LogGuildFurniture@CDbManager@@AAEXPAVCQuery@@PAUtagDB_OVERLAPPED_PLUS@@@Z
  00007	64 a1 00 00 00
	00		 mov	 eax, DWORD PTR fs:__except_list
  0000d	50		 push	 eax
  0000e	b8 48 40 00 00	 mov	 eax, 16456		; 00004048H
  00013	64 89 25 00 00
	00 00		 mov	 DWORD PTR fs:__except_list, esp
  0001a	e8 00 00 00 00	 call	 __chkstk
  0001f	a1 00 00 00 00	 mov	 eax, DWORD PTR ___security_cookie
  00024	33 c4		 xor	 eax, esp
  00026	53		 push	 ebx
  00027	55		 push	 ebp
  00028	8b ac 24 60 40
	00 00		 mov	 ebp, DWORD PTR _pQuery$[esp+16472]
  0002f	56		 push	 esi
  00030	8b b4 24 68 40
	00 00		 mov	 esi, DWORD PTR _lpDbOverlappedPlus$[esp+16476]
  00037	89 84 24 50 40
	00 00		 mov	 DWORD PTR __$ArrayPad$[esp+16480], eax

; 1187 : 	CAr arRead( lpDbOverlappedPlus->lpBuf, lpDbOverlappedPlus->uBufSize );

  0003e	8b 46 1c	 mov	 eax, DWORD PTR [esi+28]
  00041	57		 push	 edi
  00042	8b d9		 mov	 ebx, ecx
  00044	8b 4e 18	 mov	 ecx, DWORD PTR [esi+24]
  00047	50		 push	 eax
  00048	51		 push	 ecx
  00049	8d 4c 24 48	 lea	 ecx, DWORD PTR _arRead$[esp+16492]
  0004d	e8 00 00 00 00	 call	 ??0CAr@@QAE@PAXI@Z	; CAr::CAr
  00052	33 ff		 xor	 edi, edi

; 1188 : 
; 1189 : 	DWORD dwGuildId;
; 1190 : 	GH_Fntr_Info gfi;

  00054	57		 push	 edi
  00055	57		 push	 edi
  00056	83 ec 0c	 sub	 esp, 12			; 0000000cH
  00059	8b d4		 mov	 edx, esp
  0005b	8b c7		 mov	 eax, edi
  0005d	89 02		 mov	 DWORD PTR [edx], eax
  0005f	8b cf		 mov	 ecx, edi
  00061	89 4a 04	 mov	 DWORD PTR [edx+4], ecx
  00064	57		 push	 edi
  00065	6a ff		 push	 -1
  00067	8d 4c 24 38	 lea	 ecx, DWORD PTR _gfi$[esp+16512]
  0006b	89 bc 24 7c 40
	00 00		 mov	 DWORD PTR __$EHRec$[esp+16520], edi
  00072	89 7c 24 2c	 mov	 DWORD PTR $T211194[esp+16512], edi
  00076	89 7c 24 30	 mov	 DWORD PTR $T211194[esp+16516], edi
  0007a	89 7c 24 34	 mov	 DWORD PTR $T211194[esp+16520], edi
  0007e	89 42 08	 mov	 DWORD PTR [edx+8], eax
  00081	e8 00 00 00 00	 call	 ??0GuildHouse_Furniture_Info@CGuildHouseBase@@QAE@KHUD3DXVECTOR3@@MJ@Z ; CGuildHouseBase::GuildHouse_Furniture_Info::GuildHouse_Furniture_Info

; 1191 : 	char chState;
; 1192 : 
; 1193 : 	arRead >> dwGuildId;

  00086	8b 4c 24 48	 mov	 ecx, DWORD PTR _arRead$[esp+16492]
  0008a	8b 54 24 4c	 mov	 edx, DWORD PTR _arRead$[esp+16496]
  0008e	8d 41 04	 lea	 eax, DWORD PTR [ecx+4]
  00091	3b c2		 cmp	 eax, edx
  00093	77 08		 ja	 SHORT $L211201
  00095	8b 39		 mov	 edi, DWORD PTR [ecx]
  00097	89 44 24 48	 mov	 DWORD PTR _arRead$[esp+16492], eax
  0009b	eb 04		 jmp	 SHORT $L211202
$L211201:
  0009d	89 54 24 48	 mov	 DWORD PTR _arRead$[esp+16492], edx
$L211202:

; 1194 : 	gfi.Serialize( arRead );

  000a1	8d 4c 24 40	 lea	 ecx, DWORD PTR _arRead$[esp+16484]
  000a5	51		 push	 ecx
  000a6	8d 4c 24 20	 lea	 ecx, DWORD PTR _gfi$[esp+16488]
  000aa	e8 00 00 00 00	 call	 ?Serialize@GuildHouse_Furniture_Info@CGuildHouseBase@@QAEXAAVCAr@@@Z ; CGuildHouseBase::GuildHouse_Furniture_Info::Serialize

; 1195 : 	arRead >> chState;

  000af	8b 44 24 48	 mov	 eax, DWORD PTR _arRead$[esp+16492]
  000b3	8b 54 24 4c	 mov	 edx, DWORD PTR _arRead$[esp+16496]
  000b7	8d 48 01	 lea	 ecx, DWORD PTR [eax+1]
  000ba	3b ca		 cmp	 ecx, edx
  000bc	77 08		 ja	 SHORT $L211213
  000be	8a 00		 mov	 al, BYTE PTR [eax]
  000c0	89 4c 24 48	 mov	 DWORD PTR _arRead$[esp+16492], ecx
  000c4	eb 06		 jmp	 SHORT $L211214
$L211213:
  000c6	32 c0		 xor	 al, al
  000c8	89 54 24 48	 mov	 DWORD PTR _arRead$[esp+16492], edx
$L211214:

; 1196 : 
; 1197 : 	pQuery->Execute( "usp_GuildFurniture_Log @serverindex = '%02d', @m_idGuild = '%06d', @SEQ = %d, @ItemIndex = %d, @tKeepTime = %d, @bSetup = %d, @nState = '%c'", 
; 1198 : 		g_appInfo.dwSys, dwGuildId, gfi.nSeqNum, gfi.dwItemId, gfi.tKeepTime, static_cast<int>( gfi.bSetup ), chState );

  000cc	8b 4c 24 38	 mov	 ecx, DWORD PTR _gfi$[esp+16512]
  000d0	0f be d0	 movsx	 edx, al
  000d3	8b 44 24 20	 mov	 eax, DWORD PTR _gfi$[esp+16488]
  000d7	52		 push	 edx
  000d8	8b 54 24 20	 mov	 edx, DWORD PTR _gfi$[esp+16488]
  000dc	50		 push	 eax
  000dd	8b 44 24 44	 mov	 eax, DWORD PTR _gfi$[esp+16524]
  000e1	51		 push	 ecx
  000e2	8b 0d 00 00 00
	00		 mov	 ecx, DWORD PTR ?g_appInfo@@3UAppInfo@@A
  000e8	52		 push	 edx
  000e9	50		 push	 eax
  000ea	57		 push	 edi
  000eb	51		 push	 ecx
  000ec	68 00 00 00 00	 push	 OFFSET FLAT:??_C@_0IN@GLPAOOJ@usp_GuildFurniture_Log?5?$EAserverin@
  000f1	55		 push	 ebp
  000f2	e8 00 00 00 00	 call	 ?Execute@CQuery@@QAAHPBDZZ ; CQuery::Execute
  000f7	83 c4 24	 add	 esp, 36			; 00000024H

; 1199 : 
; 1200 : 	FreeRequest( lpDbOverlappedPlus );

  000fa	56		 push	 esi
  000fb	8b cb		 mov	 ecx, ebx
  000fd	e8 00 00 00 00	 call	 ?FreeRequest@CDbManager@@QAEXPAUtagDB_OVERLAPPED_PLUS@@@Z ; CDbManager::FreeRequest

; 1201 : }

  00102	8d 4c 24 40	 lea	 ecx, DWORD PTR _arRead$[esp+16484]
  00106	c7 84 24 60 40
	00 00 ff ff ff
	ff		 mov	 DWORD PTR __$EHRec$[esp+16492], -1
  00111	e8 00 00 00 00	 call	 ??1CAr@@QAE@XZ		; CAr::~CAr
  00116	8b 8c 24 58 40
	00 00		 mov	 ecx, DWORD PTR __$EHRec$[esp+16484]
  0011d	5f		 pop	 edi
  0011e	5e		 pop	 esi
  0011f	64 89 0d 00 00
	00 00		 mov	 DWORD PTR fs:__except_list, ecx
  00126	8b 8c 24 4c 40
	00 00		 mov	 ecx, DWORD PTR __$ArrayPad$[esp+16476]
  0012d	5d		 pop	 ebp
  0012e	5b		 pop	 ebx
  0012f	33 cc		 xor	 ecx, esp
  00131	e8 00 00 00 00	 call	 @__security_check_cookie@4
  00136	81 c4 54 40 00
	00		 add	 esp, 16468		; 00004054H
  0013c	c2 08 00	 ret	 8
_TEXT	ENDS
;	COMDAT text$x
text$x	SEGMENT
$L211195:
  00000	8d 8d dc bf ff
	ff		 lea	 ecx, DWORD PTR _arRead$[ebp]
  00006	e9 00 00 00 00	 jmp	 ??1CAr@@QAE@XZ		; CAr::~CAr
__ehhandler$?LogGuildFurniture@CDbManager@@AAEXPAVCQuery@@PAUtagDB_OVERLAPPED_PLUS@@@Z:
  0000b	b8 00 00 00 00	 mov	 eax, OFFSET FLAT:$T211220
  00010	e9 00 00 00 00	 jmp	 ___CxxFrameHandler
text$x	ENDS
?LogGuildFurniture@CDbManager@@AAEXPAVCQuery@@PAUtagDB_OVERLAPPED_PLUS@@@Z ENDP ; CDbManager::LogGuildFurniture
PUBLIC	??1?$CStringT@DV?$StrTraitMFC@DV?$ChTraitsCRT@D@ATL@@@@@ATL@@QAE@XZ ; ATL::CStringT<char,StrTraitMFC<char,ATL::ChTraitsCRT<char> > >::~CStringT<char,StrTraitMFC<char,ATL::ChTraitsCRT<char> > >
; Function compile flags: /Ogty
; File c:\program files\microsoft visual studio .net 2003\vc7\atlmfc\include\cstringt.h
;	COMDAT ??1?$CStringT@DV?$StrTraitMFC@DV?$ChTraitsCRT@D@ATL@@@@@ATL@@QAE@XZ
_TEXT	SEGMENT
??1?$CStringT@DV?$StrTraitMFC@DV?$ChTraitsCRT@D@ATL@@@@@ATL@@QAE@XZ PROC NEAR ; ATL::CStringT<char,StrTraitMFC<char,ATL::ChTraitsCRT<char> > >::~CStringT<char,StrTraitMFC<char,ATL::ChTraitsCRT<char> > >, COMDAT
; _this$ = ecx

; 963  : 	}

  00000	8b 01		 mov	 eax, DWORD PTR [ecx]
  00002	83 e8 10	 sub	 eax, 16			; 00000010H
  00005	8d 48 0c	 lea	 ecx, DWORD PTR [eax+12]
  00008	83 ca ff	 or	 edx, -1
  0000b	f0 0f c1 11	 lock	  xadd	 DWORD PTR [ecx], edx
  0000f	4a		 dec	 edx
  00010	85 d2		 test	 edx, edx
  00012	7f 08		 jg	 SHORT $L211243
  00014	8b 08		 mov	 ecx, DWORD PTR [eax]
  00016	8b 11		 mov	 edx, DWORD PTR [ecx]
  00018	50		 push	 eax
  00019	ff 52 04	 call	 DWORD PTR [edx+4]
$L211243:
  0001c	c3		 ret	 0
??1?$CStringT@DV?$StrTraitMFC@DV?$ChTraitsCRT@D@ATL@@@@@ATL@@QAE@XZ ENDP ; ATL::CStringT<char,StrTraitMFC<char,ATL::ChTraitsCRT<char> > >::~CStringT<char,StrTraitMFC<char,ATL::ChTraitsCRT<char> > >
_TEXT	ENDS
PUBLIC	?PrepareWrite@?$CSimpleStringT@D$0A@@ATL@@AAEPADH@Z ; ATL::CSimpleStringT<char,0>::PrepareWrite
; Function compile flags: /Ogty
; File c:\program files\microsoft visual studio .net 2003\vc7\atlmfc\include\atlsimpstr.h
;	COMDAT ?PrepareWrite@?$CSimpleStringT@D$0A@@ATL@@AAEPADH@Z
_TEXT	SEGMENT
_nLength$ = 8						; size = 4
?PrepareWrite@?$CSimpleStringT@D$0A@@ATL@@AAEPADH@Z PROC NEAR ; ATL::CSimpleStringT<char,0>::PrepareWrite, COMDAT
; _this$ = ecx

; 734  : 	{

  00000	56		 push	 esi
  00001	8b f1		 mov	 esi, ecx

; 735  : 		CStringData* pOldData = GetData();

  00003	8b 06		 mov	 eax, DWORD PTR [esi]

; 736  : 		int nShared = 1-pOldData->nRefs;  // nShared < 0 means true, >= 0 means false

  00005	8b 50 fc	 mov	 edx, DWORD PTR [eax-4]
  00008	83 e8 10	 sub	 eax, 16			; 00000010H
  0000b	b9 01 00 00 00	 mov	 ecx, 1
  00010	2b ca		 sub	 ecx, edx

; 737  : 		int nTooShort = pOldData->nAllocLength-nLength;  // nTooShort < 0 means true, >= 0 means false

  00012	8b 50 08	 mov	 edx, DWORD PTR [eax+8]
  00015	8b 44 24 08	 mov	 eax, DWORD PTR _nLength$[esp]
  00019	2b d0		 sub	 edx, eax

; 738  : 		if( (nShared|nTooShort) < 0 )  // If either sign bit is set (i.e. either is less than zero), we need to copy data

  0001b	0b ca		 or	 ecx, edx
  0001d	7d 08		 jge	 SHORT $L211251

; 739  : 		{
; 740  : 			PrepareWrite2( nLength );

  0001f	50		 push	 eax
  00020	8b ce		 mov	 ecx, esi
  00022	e8 00 00 00 00	 call	 ?PrepareWrite2@?$CSimpleStringT@D$0A@@ATL@@AAEXH@Z ; ATL::CSimpleStringT<char,0>::PrepareWrite2
$L211251:

; 741  : 		}
; 742  : 
; 743  : 		return( m_pszData );

  00027	8b 06		 mov	 eax, DWORD PTR [esi]
  00029	5e		 pop	 esi

; 744  : 	}

  0002a	c2 04 00	 ret	 4
?PrepareWrite@?$CSimpleStringT@D$0A@@ATL@@AAEPADH@Z ENDP ; ATL::CSimpleStringT<char,0>::PrepareWrite
_TEXT	ENDS
PUBLIC	?GetBuffer@?$CSimpleStringT@D$0A@@ATL@@QAEPADH@Z ; ATL::CSimpleStringT<char,0>::GetBuffer
; Function compile flags: /Ogty
;	COMDAT ?GetBuffer@?$CSimpleStringT@D$0A@@ATL@@QAEPADH@Z
_TEXT	SEGMENT
_nMinBufferLength$ = 8					; size = 4
?GetBuffer@?$CSimpleStringT@D$0A@@ATL@@QAEPADH@Z PROC NEAR ; ATL::CSimpleStringT<char,0>::GetBuffer, COMDAT
; _this$ = ecx

; 489  : 	{

  00000	56		 push	 esi
  00001	8b f1		 mov	 esi, ecx

; 490  : 		return( PrepareWrite( nMinBufferLength ) );

  00003	8b 06		 mov	 eax, DWORD PTR [esi]
  00005	8b 50 fc	 mov	 edx, DWORD PTR [eax-4]
  00008	83 e8 10	 sub	 eax, 16			; 00000010H
  0000b	b9 01 00 00 00	 mov	 ecx, 1
  00010	2b ca		 sub	 ecx, edx
  00012	8b 50 08	 mov	 edx, DWORD PTR [eax+8]
  00015	8b 44 24 08	 mov	 eax, DWORD PTR _nMinBufferLength$[esp]
  00019	2b d0		 sub	 edx, eax
  0001b	0b ca		 or	 ecx, edx
  0001d	7d 08		 jge	 SHORT $L211267
  0001f	50		 push	 eax
  00020	8b ce		 mov	 ecx, esi
  00022	e8 00 00 00 00	 call	 ?PrepareWrite2@?$CSimpleStringT@D$0A@@ATL@@AAEXH@Z ; ATL::CSimpleStringT<char,0>::PrepareWrite2
$L211267:
  00027	8b 06		 mov	 eax, DWORD PTR [esi]
  00029	5e		 pop	 esi

; 491  : 	}

  0002a	c2 04 00	 ret	 4
?GetBuffer@?$CSimpleStringT@D$0A@@ATL@@QAEPADH@Z ENDP	; ATL::CSimpleStringT<char,0>::GetBuffer
_TEXT	ENDS
PUBLIC	?LoadStringA@?$CStringT@DV?$StrTraitMFC@DV?$ChTraitsCRT@D@ATL@@@@@ATL@@QAEHPAUHINSTANCE__@@I@Z ; ATL::CStringT<char,StrTraitMFC<char,ATL::ChTraitsCRT<char> > >::LoadStringA
; Function compile flags: /Ogty
; File c:\program files\microsoft visual studio .net 2003\vc7\atlmfc\include\cstringt.h
;	COMDAT ?LoadStringA@?$CStringT@DV?$StrTraitMFC@DV?$ChTraitsCRT@D@ATL@@@@@ATL@@QAEHPAUHINSTANCE__@@I@Z
_TEXT	SEGMENT
_hInstance$ = 8						; size = 4
_nID$ = 12						; size = 4
?LoadStringA@?$CStringT@DV?$StrTraitMFC@DV?$ChTraitsCRT@D@ATL@@@@@ATL@@QAEHPAUHINSTANCE__@@I@Z PROC NEAR ; ATL::CStringT<char,StrTraitMFC<char,ATL::ChTraitsCRT<char> > >::LoadStringA, COMDAT
; _this$ = ecx

; 1981 : 	{

  00000	53		 push	 ebx
  00001	56		 push	 esi

; 1982 : 		const ATLSTRINGRESOURCEIMAGE* pImage = AtlGetStringResourceImage( hInstance, nID );

  00002	8b 74 24 10	 mov	 esi, DWORD PTR _nID$[esp+4]
  00006	8b c6		 mov	 eax, esi
  00008	c1 e8 04	 shr	 eax, 4
  0000b	57		 push	 edi
  0000c	8b 7c 24 10	 mov	 edi, DWORD PTR _hInstance$[esp+8]
  00010	40		 inc	 eax
  00011	8b d9		 mov	 ebx, ecx
  00013	0f b7 c8	 movzx	 ecx, ax
  00016	6a 06		 push	 6
  00018	51		 push	 ecx
  00019	57		 push	 edi
  0001a	ff 15 00 00 00
	00		 call	 DWORD PTR __imp__FindResourceA@12
  00020	85 c0		 test	 eax, eax
  00022	74 11		 je	 SHORT $L211346
  00024	56		 push	 esi
  00025	50		 push	 eax
  00026	57		 push	 edi
  00027	e8 00 00 00 00	 call	 ?_AtlGetStringResourceImage@ATL@@YAPBUATLSTRINGRESOURCEIMAGE@1@PAUHINSTANCE__@@PAUHRSRC__@@I@Z ; ATL::_AtlGetStringResourceImage
  0002c	8b f8		 mov	 edi, eax
  0002e	83 c4 0c	 add	 esp, 12			; 0000000cH

; 1983 : 		if( pImage == NULL )

  00031	85 ff		 test	 edi, edi
  00033	75 08		 jne	 SHORT $L184183
$L211346:
  00035	5f		 pop	 edi
  00036	5e		 pop	 esi

; 1984 : 		{
; 1985 : 			return( FALSE );

  00037	33 c0		 xor	 eax, eax
  00039	5b		 pop	 ebx

; 1994 : 	}

  0003a	c2 08 00	 ret	 8
$L184183:

; 1986 : 		}
; 1987 : 
; 1988 : 		int nLength = StringTraits::GetBaseTypeLength( pImage->achString, pImage->nLength );

  0003d	0f b7 37	 movzx	 esi, WORD PTR [edi]
  00040	55		 push	 ebp
  00041	ff 15 00 00 00
	00		 call	 DWORD PTR ?g_pfnGetThreadACP@ATL@@3P6GIXZA ; ATL::g_pfnGetThreadACP
  00047	6a 00		 push	 0
  00049	6a 00		 push	 0
  0004b	6a 00		 push	 0
  0004d	6a 00		 push	 0
  0004f	56		 push	 esi
  00050	8d 6f 02	 lea	 ebp, DWORD PTR [edi+2]
  00053	55		 push	 ebp
  00054	6a 00		 push	 0
  00056	50		 push	 eax
  00057	ff 15 00 00 00
	00		 call	 DWORD PTR __imp__WideCharToMultiByte@32
  0005d	8b f0		 mov	 esi, eax

; 1989 : 		PXSTR pszBuffer = GetBuffer( nLength );

  0005f	8b 03		 mov	 eax, DWORD PTR [ebx]
  00061	8b 48 fc	 mov	 ecx, DWORD PTR [eax-4]
  00064	83 e8 10	 sub	 eax, 16			; 00000010H
  00067	8b 40 08	 mov	 eax, DWORD PTR [eax+8]
  0006a	ba 01 00 00 00	 mov	 edx, 1
  0006f	2b d1		 sub	 edx, ecx
  00071	2b c6		 sub	 eax, esi
  00073	0b d0		 or	 edx, eax
  00075	7d 08		 jge	 SHORT $L211307
  00077	56		 push	 esi
  00078	8b cb		 mov	 ecx, ebx
  0007a	e8 00 00 00 00	 call	 ?PrepareWrite2@?$CSimpleStringT@D$0A@@ATL@@AAEXH@Z ; ATL::CSimpleStringT<char,0>::PrepareWrite2
$L211307:
  0007f	8b 03		 mov	 eax, DWORD PTR [ebx]

; 1990 : 		StringTraits::ConvertToBaseType( pszBuffer, nLength, pImage->achString, pImage->nLength );

  00081	0f b7 0f	 movzx	 ecx, WORD PTR [edi]
  00084	6a 00		 push	 0
  00086	6a 00		 push	 0
  00088	56		 push	 esi
  00089	50		 push	 eax
  0008a	51		 push	 ecx
  0008b	55		 push	 ebp
  0008c	6a 00		 push	 0
  0008e	ff 15 00 00 00
	00		 call	 DWORD PTR ?g_pfnGetThreadACP@ATL@@3P6GIXZA ; ATL::g_pfnGetThreadACP
  00094	50		 push	 eax
  00095	ff 15 00 00 00
	00		 call	 DWORD PTR __imp__WideCharToMultiByte@32

; 1991 : 		ReleaseBufferSetLength( nLength );

  0009b	85 f6		 test	 esi, esi
  0009d	5d		 pop	 ebp
  0009e	7c 1b		 jl	 SHORT $L211343
  000a0	8b 03		 mov	 eax, DWORD PTR [ebx]
  000a2	3b 70 f8	 cmp	 esi, DWORD PTR [eax-8]
  000a5	7f 14		 jg	 SHORT $L211343
  000a7	89 70 f4	 mov	 DWORD PTR [eax-12], esi
  000aa	8b 0b		 mov	 ecx, DWORD PTR [ebx]
  000ac	5f		 pop	 edi
  000ad	c6 04 0e 00	 mov	 BYTE PTR [esi+ecx], 0
  000b1	5e		 pop	 esi

; 1992 : 
; 1993 : 		return( TRUE );

  000b2	b8 01 00 00 00	 mov	 eax, 1
  000b7	5b		 pop	 ebx

; 1994 : 	}

  000b8	c2 08 00	 ret	 8
$L211343:
