; Listing generated by Microsoft (R) Optimizing Compiler Version 13.10.6030 

	TITLE	\Documents and Settings\test\Mes documents\Source\Virtuos_v17\Build\Program\_Database\DbManagerJoin.cpp
	.386P
include listing.inc
if @Version gt 510
.model FLAT
else
_TEXT	SEGMENT PARA USE32 PUBLIC 'CODE'
_TEXT	ENDS
_DATA	SEGMENT DWORD USE32 PUBLIC 'DATA'
_DATA	ENDS
CONST	SEGMENT DWORD USE32 PUBLIC 'CONST'
CONST	ENDS
_BSS	SEGMENT DWORD USE32 PUBLIC 'BSS'
_BSS	ENDS
$$SYMBOLS	SEGMENT BYTE USE32 'DEBSYM'
$$SYMBOLS	ENDS
_TLS	SEGMENT DWORD USE32 PUBLIC 'TLS'
_TLS	ENDS
;	COMDAT ??_C@_0DB@BEDINLHB@RANKING?4RANKING_DBF?4dbo?4RANKING_@
CONST	SEGMENT DWORD USE32 PUBLIC 'CONST'
CONST	ENDS
;	COMDAT ??_C@_0CN@HNMEKJGP@CDbManager?3?3UpdateGuildRanking?$LP?$KB@
CONST	SEGMENT DWORD USE32 PUBLIC 'CONST'
CONST	ENDS
;	COMDAT ??_C@_08LJMBJH@m_dwLogo?$AA@
CONST	SEGMENT DWORD USE32 PUBLIC 'CONST'
CONST	ENDS
;	COMDAT ??_C@_09NKFNPOPN@m_szGuild?$AA@
CONST	SEGMENT DWORD USE32 PUBLIC 'CONST'
CONST	ENDS
;	COMDAT ??_C@_08HDDJDJAG@m_szName?$AA@
CONST	SEGMENT DWORD USE32 PUBLIC 'CONST'
CONST	ENDS
;	COMDAT ??_C@_06LJIKPPDH@m_nWin?$AA@
CONST	SEGMENT DWORD USE32 PUBLIC 'CONST'
CONST	ENDS
;	COMDAT ??_C@_07IGCLHJHO@m_nLose?$AA@
CONST	SEGMENT DWORD USE32 PUBLIC 'CONST'
CONST	ENDS
;	COMDAT ??_C@_0N@BBOGLCAO@m_nSurrender?$AA@
CONST	SEGMENT DWORD USE32 PUBLIC 'CONST'
CONST	ENDS
;	COMDAT ??_C@_0L@EKKIFFNL@m_AvgLevel?$AA@
CONST	SEGMENT DWORD USE32 PUBLIC 'CONST'
CONST	ENDS
;	COMDAT ??_C@_0M@EMHJODPK@m_nWinPoint?$AA@
CONST	SEGMENT DWORD USE32 PUBLIC 'CONST'
CONST	ENDS
;	COMDAT ??_C@_0BG@CJGBCKAI@MAKE_RANKING_STR?5?8?$CFd?8?$AA@
CONST	SEGMENT DWORD USE32 PUBLIC 'CONST'
CONST	ENDS
;	COMDAT ??_C@_0CG@IPKIBOKB@CDbManager?3?3RankingDBUpdate?5?$CI?$CFs?$CJ@
CONST	SEGMENT DWORD USE32 PUBLIC 'CONST'
CONST	ENDS
;	COMDAT ??_C@_0BC@MOGJFHKK@tr1?3?3bad_weak_ptr?$AA@
CONST	SEGMENT DWORD USE32 PUBLIC 'CONST'
CONST	ENDS
;	COMDAT ??_C@_0BD@IOHNFIBA@SetLOD?5?3?5lv?$DN?$CFd?0?5?$CFs?$AA@
CONST	SEGMENT DWORD USE32 PUBLIC 'CONST'
CONST	ENDS
;	COMDAT ??_C@_02PCIJFNDE@?$AN?6?$AA@
CONST	SEGMENT DWORD USE32 PUBLIC 'CONST'
CONST	ENDS
;	COMDAT ??_C@_01DNKMNLPK@?$HM?$AA@
CONST	SEGMENT DWORD USE32 PUBLIC 'CONST'
CONST	ENDS
;	COMDAT ??_C@_0CE@DOPOPHPI@DATABASESERVER?4EXE?7?1?1?5JOIN_1?7?1?1?5@
CONST	SEGMENT DWORD USE32 PUBLIC 'CONST'
CONST	ENDS
;	COMDAT ??_C@_0CE@CJIFODLL@DATABASESERVER?4EXE?7?1?1?5JOIN_0?7?1?1?5@
CONST	SEGMENT DWORD USE32 PUBLIC 'CONST'
CONST	ENDS
;	COMDAT ??_C@_02HJNLAKPP@S8?$AA@
CONST	SEGMENT DWORD USE32 PUBLIC 'CONST'
CONST	ENDS
;	COMDAT ??_C@_0L@BLIMKIB@playerslot?$AA@
CONST	SEGMENT DWORD USE32 PUBLIC 'CONST'
CONST	ENDS
;	COMDAT ??_C@_09PLACNOOD@m_dwIndex?$AA@
CONST	SEGMENT DWORD USE32 PUBLIC 'CONST'
CONST	ENDS
;	COMDAT ??_C@_0L@FONFFEJF@m_idPlayer?$AA@
CONST	SEGMENT DWORD USE32 PUBLIC 'CONST'
CONST	ENDS
;	COMDAT ??_C@_0M@FNJGDDDM@m_idCompany?$AA@
CONST	SEGMENT DWORD USE32 PUBLIC 'CONST'
CONST	ENDS
;	COMDAT ??_C@_0BC@IEAFGFF@m_nMessengerState?$AA@
CONST	SEGMENT DWORD USE32 PUBLIC 'CONST'
CONST	ENDS
;	COMDAT ??_C@_0BC@MIOGNHI@m_dwReturnWorldID?$AA@
CONST	SEGMENT DWORD USE32 PUBLIC 'CONST'
CONST	ENDS
;	COMDAT ??_C@_0P@JCFLJGGL@m_vReturnPos_x?$AA@
CONST	SEGMENT DWORD USE32 PUBLIC 'CONST'
CONST	ENDS
;	COMDAT ??_C@_0P@ILEAKHCK@m_vReturnPos_y?$AA@
CONST	SEGMENT DWORD USE32 PUBLIC 'CONST'
CONST	ENDS
;	COMDAT ??_C@_0P@KAGNPEOJ@m_vReturnPos_z?$AA@
CONST	SEGMENT DWORD USE32 PUBLIC 'CONST'
CONST	ENDS
;	COMDAT ??_C@_0O@GDGPCDJB@TotalPlayTime?$AA@
CONST	SEGMENT DWORD USE32 PUBLIC 'CONST'
CONST	ENDS
;	COMDAT ??_C@_0M@MJKONAGD@m_dwFlyTime?$AA@
CONST	SEGMENT DWORD USE32 PUBLIC 'CONST'
CONST	ENDS
;	COMDAT ??_C@_0BA@NNOIPPOE@m_nMaximumLevel?$AA@
CONST	SEGMENT DWORD USE32 PUBLIC 'CONST'
CONST	ENDS
;	COMDAT ??_C@_0P@ELDJOFJA@m_tGuildMember?$AA@
CONST	SEGMENT DWORD USE32 PUBLIC 'CONST'
CONST	ENDS
;	COMDAT ??_C@_0BD@CKCGLHFA@m_chLoginAuthority?$AA@
CONST	SEGMENT DWORD USE32 PUBLIC 'CONST'
CONST	ENDS
;	COMDAT ??_C@_0O@EENGJBPN@m_chAuthority?$AA@
CONST	SEGMENT DWORD USE32 PUBLIC 'CONST'
CONST	ENDS
;	COMDAT ??_C@_0N@NIOAJHOA@last_connect?$AA@
CONST	SEGMENT DWORD USE32 PUBLIC 'CONST'
CONST	ENDS
;	COMDAT ??_C@_09MHDEIN@m_idGuild?$AA@
CONST	SEGMENT DWORD USE32 PUBLIC 'CONST'
CONST	ENDS
;	COMDAT ??_C@_07EFCBAOMF@m_idWar?$AA@
CONST	SEGMENT DWORD USE32 PUBLIC 'CONST'
CONST	ENDS
;	COMDAT ??_C@_0M@JFJGDALJ@dwEventFlag?$AA@
CONST	SEGMENT DWORD USE32 PUBLIC 'CONST'
CONST	ENDS
;	COMDAT ??_C@_0M@IDEEJPIP@dwEventTime?$AA@
CONST	SEGMENT DWORD USE32 PUBLIC 'CONST'
CONST	ENDS
;	COMDAT ??_C@_0P@GGONCBOD@dwEventElapsed?$AA@
CONST	SEGMENT DWORD USE32 PUBLIC 'CONST'
CONST	ENDS
;	COMDAT ??_C@_09CPDCAJOH@m_dwPetId?$AA@
CONST	SEGMENT DWORD USE32 PUBLIC 'CONST'
CONST	ENDS
;	COMDAT ??_C@_09OAIDIHCC@m_nExpLog?$AA@
CONST	SEGMENT DWORD USE32 PUBLIC 'CONST'
CONST	ENDS
;	COMDAT ??_C@_0P@KIBMOJIA@m_nAngelExpLog?$AA@
CONST	SEGMENT DWORD USE32 PUBLIC 'CONST'
CONST	ENDS
;	COMDAT ??_C@_09DOFPPDBL@m_nCoupon?$AA@
CONST	SEGMENT DWORD USE32 PUBLIC 'CONST'
CONST	ENDS
;	COMDAT ??_C@_08HKLPDCDD@m_nLayer?$AA@
CONST	SEGMENT DWORD USE32 PUBLIC 'CONST'
CONST	ENDS
;	COMDAT ??_C@_0P@HAGDFNOH@m_nCampusPoint?$AA@
CONST	SEGMENT DWORD USE32 PUBLIC 'CONST'
CONST	ENDS
;	COMDAT ??_C@_08FHGJFCBK@idCampus?$AA@
CONST	SEGMENT DWORD USE32 PUBLIC 'CONST'
CONST	ENDS
;	COMDAT ??_C@_0N@DMCMIBPB@m_nRestPoint?$AA@
CONST	SEGMENT DWORD USE32 PUBLIC 'CONST'
CONST	ENDS
;	COMDAT ??_C@_0N@DOGBIIJB@m_LogOutTime?$AA@
CONST	SEGMENT DWORD USE32 PUBLIC 'CONST'
CONST	ENDS
;	COMDAT ??_C@_08OOAHKMMI@m_BankPw?$AA@
CONST	SEGMENT DWORD USE32 PUBLIC 'CONST'
CONST	ENDS
;	COMDAT ??_C@_0L@LJLIEKDC@bResult?3?51?$AA@
CONST	SEGMENT DWORD USE32 PUBLIC 'CONST'
CONST	ENDS
xdata$x	SEGMENT DWORD USE32 PUBLIC 'CONST'
xdata$x	ENDS
;	COMDAT ??0_GUILDQUEST@@QAE@XZ
_TEXT	SEGMENT PARA USE32 PUBLIC 'CODE'
_TEXT	ENDS
;	COMDAT ?what@bad_weak_ptr@boost@@UBEPBDXZ
_TEXT	SEGMENT PARA USE32 PUBLIC 'CODE'
_TEXT	ENDS
;	COMDAT ??1sp_counted_base@detail@boost@@UAE@XZ
_TEXT	SEGMENT PARA USE32 PUBLIC 'CODE'
_TEXT	ENDS
;	COMDAT ?destroy@sp_counted_base@detail@boost@@UAEXXZ
_TEXT	SEGMENT PARA USE32 PUBLIC 'CODE'
_TEXT	ENDS
;	COMDAT ?add_ref_copy@sp_counted_base@detail@boost@@QAEXXZ
_TEXT	SEGMENT PARA USE32 PUBLIC 'CODE'
_TEXT	ENDS
;	COMDAT ?add_ref_lock@sp_counted_base@detail@boost@@QAE_NXZ
_TEXT	SEGMENT PARA USE32 PUBLIC 'CODE'
_TEXT	ENDS
;	COMDAT ?release@sp_counted_base@detail@boost@@QAEXXZ
_TEXT	SEGMENT PARA USE32 PUBLIC 'CODE'
_TEXT	ENDS
;	COMDAT ?weak_add_ref@sp_counted_base@detail@boost@@QAEXXZ
_TEXT	SEGMENT PARA USE32 PUBLIC 'CODE'
_TEXT	ENDS
;	COMDAT ?weak_release@sp_counted_base@detail@boost@@QAEXXZ
_TEXT	SEGMENT PARA USE32 PUBLIC 'CODE'
_TEXT	ENDS
;	COMDAT ?use_count@sp_counted_base@detail@boost@@QBEJXZ
_TEXT	SEGMENT PARA USE32 PUBLIC 'CODE'
_TEXT	ENDS
;	COMDAT ??_Gsp_counted_base@detail@boost@@UAEPAXI@Z
_TEXT	SEGMENT PARA USE32 PUBLIC 'CODE'
_TEXT	ENDS
;	COMDAT ?use_count@shared_count@detail@boost@@QBEJXZ
_TEXT	SEGMENT PARA USE32 PUBLIC 'CODE'
_TEXT	ENDS
;	COMDAT ??0bad_weak_ptr@boost@@QAE@XZ
_TEXT	SEGMENT PARA USE32 PUBLIC 'CODE'
_TEXT	ENDS
;	COMDAT ??1bad_weak_ptr@boost@@UAE@XZ
_TEXT	SEGMENT PARA USE32 PUBLIC 'CODE'
_TEXT	ENDS
;	COMDAT ??_Gbad_weak_ptr@boost@@UAEPAXI@Z
_TEXT	SEGMENT PARA USE32 PUBLIC 'CODE'
_TEXT	ENDS
;	COMDAT ?GetCooltime@CLordSkillComponent@@QAEHXZ
_TEXT	SEGMENT PARA USE32 PUBLIC 'CODE'
_TEXT	ENDS
;	COMDAT ?SetTick@CLordSkillComponent@@QAEXH@Z
_TEXT	SEGMENT PARA USE32 PUBLIC 'CODE'
_TEXT	ENDS
;	COMDAT ??1CLordSkillComponentExecutable@@UAE@XZ
_TEXT	SEGMENT PARA USE32 PUBLIC 'CODE'
_TEXT	ENDS
;	COMDAT ?Use@CLordSkillComponentExecutable@@IAEXXZ
_TEXT	SEGMENT PARA USE32 PUBLIC 'CODE'
_TEXT	ENDS
;	COMDAT ?Execute@CLordSkillComponentExecutable@@UAEXKKPAX@Z
_TEXT	SEGMENT PARA USE32 PUBLIC 'CODE'
_TEXT	ENDS
;	COMDAT ??_GCLordSkillComponentExecutable@@UAEPAXI@Z
_TEXT	SEGMENT PARA USE32 PUBLIC 'CODE'
_TEXT	ENDS
;	COMDAT ?GetDeposit@CCandidate@@QBE_JXZ
_TEXT	SEGMENT PARA USE32 PUBLIC 'CODE'
_TEXT	ENDS
;	COMDAT ?GetVote@CCandidate@@QAEHXZ
_TEXT	SEGMENT PARA USE32 PUBLIC 'CODE'
_TEXT	ENDS
;	COMDAT ?GetCreate@CCandidate@@QAEJXZ
_TEXT	SEGMENT PARA USE32 PUBLIC 'CODE'
_TEXT	ENDS
;	COMDAT ?SendJoin@CDbManager@@QAEXPAVCMover@@PAUtagDB_OVERLAPPED_PLUS@@KKPBD2KKHHPAUTAG_ENTRY@@2@Z
_TEXT	SEGMENT PARA USE32 PUBLIC 'CODE'
_TEXT	ENDS
;	COMDAT ?Join@CDbManager@@QAEXPAVCQuery@@00PAUtagDB_OVERLAPPED_PLUS@@@Z
_TEXT	SEGMENT PARA USE32 PUBLIC 'CODE'
_TEXT	ENDS
;	COMDAT ?Replace@?$CStringT@DV?$StrTraitMFC@DV?$ChTraitsCRT@D@ATL@@@@@ATL@@QAEHPBD0@Z
_TEXT	SEGMENT PARA USE32 PUBLIC 'CODE'
_TEXT	ENDS
;	COMDAT ?compare@?$basic_string@DU?$char_traits@D@std@@V?$allocator@D@2@@std@@QBEHABV12@@Z
_TEXT	SEGMENT PARA USE32 PUBLIC 'CODE'
_TEXT	ENDS
;	COMDAT ?end@?$_Tree@V?$_Tmap_traits@KP8CDPLoginSrvr@@AEXAAVCAr@@KPAEK@ZU?$less@K@std@@V?$allocator@U?$pair@$$CBKP8CDPLoginSrvr@@AEXAAVCAr@@KPAEK@Z@std@@@4@$0A@@std@@@std@@QAE?AViterator@12@XZ
_TEXT	SEGMENT PARA USE32 PUBLIC 'CODE'
_TEXT	ENDS
;	COMDAT ?find@?$_Tree@V?$_Tmap_traits@KP8CDPLoginSrvr@@AEXAAVCAr@@KPAEK@ZU?$less@K@std@@V?$allocator@U?$pair@$$CBKP8CDPLoginSrvr@@AEXAAVCAr@@KPAEK@Z@std@@@4@$0A@@std@@@std@@QAE?AViterator@12@ABK@Z
_TEXT	SEGMENT PARA USE32 PUBLIC 'CODE'
_TEXT	ENDS
;	COMDAT ??Citerator@?$_Tree@V?$_Tmap_traits@KP8CDPLoginSrvr@@AEXAAVCAr@@KPAEK@ZU?$less@K@std@@V?$allocator@U?$pair@$$CBKP8CDPLoginSrvr@@AEXAAVCAr@@KPAEK@Z@std@@@4@$0A@@std@@@std@@QBEPAU?$pair@$$CBKP8CDPLoginSrvr@@AEXAAVCAr@@KPAEK@Z@2@XZ
_TEXT	SEGMENT PARA USE32 PUBLIC 'CODE'
_TEXT	ENDS
;	COMDAT ??9const_iterator@?$_Tree@V?$_Tmap_traits@KP8CDPLoginSrvr@@AEXAAVCAr@@KPAEK@ZU?$less@K@std@@V?$allocator@U?$pair@$$CBKP8CDPLoginSrvr@@AEXAAVCAr@@KPAEK@Z@std@@@4@$0A@@std@@@std@@QBE_NABV012@@Z
_TEXT	SEGMENT PARA USE32 PUBLIC 'CODE'
_TEXT	ENDS
;	COMDAT ?Alloc@?$MemPooler@VCGuildMember@@@@QAEPAVCGuildMember@@XZ
_TEXT	SEGMENT PARA USE32 PUBLIC 'CODE'
_TEXT	ENDS
;	COMDAT ?Free@?$MemPooler@VCGuildMember@@@@QAEHPAVCGuildMember@@@Z
_TEXT	SEGMENT PARA USE32 PUBLIC 'CODE'
_TEXT	ENDS
;	COMDAT ?size@?$_Tree@V?$_Tmap_traits@KPAVCGuildMember@@U?$less@K@std@@V?$allocator@U?$pair@$$CBKPAVCGuildMember@@@std@@@3@$0A@@std@@@std@@QBEIXZ
_TEXT	SEGMENT PARA USE32 PUBLIC 'CODE'
_TEXT	ENDS
;	COMDAT ?Alloc@?$MemPooler@VCGuild@@@@QAEPAVCGuild@@XZ
_TEXT	SEGMENT PARA USE32 PUBLIC 'CODE'
_TEXT	ENDS
;	COMDAT ?Free@?$MemPooler@VCGuild@@@@QAEHPAVCGuild@@@Z
_TEXT	SEGMENT PARA USE32 PUBLIC 'CODE'
_TEXT	ENDS
;	COMDAT ?size@?$_Tree@V?$_Tmap_traits@KPAVCGuild@@U?$less@K@std@@V?$allocator@U?$pair@$$CBKPAVCGuild@@@std@@@3@$0A@@std@@@std@@QBEIXZ
_TEXT	SEGMENT PARA USE32 PUBLIC 'CODE'
_TEXT	ENDS
;	COMDAT ?size@?$_Tree@V?$_Tmap_traits@KPAU_PlayerData@@U?$less@K@std@@V?$allocator@U?$pair@$$CBKPAU_PlayerData@@@std@@@3@$0A@@std@@@std@@QBEIXZ
_TEXT	SEGMENT PARA USE32 PUBLIC 'CODE'
_TEXT	ENDS
;	COMDAT ?end@?$_Tree@V?$_Tmap_traits@KP8CDPCoreSrvr@@AEXAAVCAr@@PAEK@ZU?$less@K@std@@V?$allocator@U?$pair@$$CBKP8CDPCoreSrvr@@AEXAAVCAr@@PAEK@Z@std@@@4@$0A@@std@@@std@@QAE?AViterator@12@XZ
_TEXT	SEGMENT PARA USE32 PUBLIC 'CODE'
_TEXT	ENDS
;	COMDAT ?find@?$_Tree@V?$_Tmap_traits@KP8CDPCoreSrvr@@AEXAAVCAr@@PAEK@ZU?$less@K@std@@V?$allocator@U?$pair@$$CBKP8CDPCoreSrvr@@AEXAAVCAr@@PAEK@Z@std@@@4@$0A@@std@@@std@@QAE?AViterator@12@ABK@Z
_TEXT	SEGMENT PARA USE32 PUBLIC 'CODE'
_TEXT	ENDS
;	COMDAT ??Citerator@?$_Tree@V?$_Tmap_traits@KP8CDPCoreSrvr@@AEXAAVCAr@@PAEK@ZU?$less@K@std@@V?$allocator@U?$pair@$$CBKP8CDPCoreSrvr@@AEXAAVCAr@@PAEK@Z@std@@@4@$0A@@std@@@std@@QBEPAU?$pair@$$CBKP8CDPCoreSrvr@@AEXAAVCAr@@PAEK@Z@2@XZ
_TEXT	SEGMENT PARA USE32 PUBLIC 'CODE'
_TEXT	ENDS
;	COMDAT ??9const_iterator@?$_Tree@V?$_Tmap_traits@KP8CDPCoreSrvr@@AEXAAVCAr@@PAEK@ZU?$less@K@std@@V?$allocator@U?$pair@$$CBKP8CDPCoreSrvr@@AEXAAVCAr@@PAEK@Z@std@@@4@$0A@@std@@@std@@QBE_NABV012@@Z
_TEXT	SEGMENT PARA USE32 PUBLIC 'CODE'
_TEXT	ENDS
;	COMDAT ??R?$less@PAVsp_counted_base@detail@boost@@@std@@QBE_NABQAVsp_counted_base@detail@boost@@0@Z
_TEXT	SEGMENT PARA USE32 PUBLIC 'CODE'
_TEXT	ENDS
;	COMDAT ?size@?$vector@PAVCLordSkillComponentExecutable@@V?$allocator@PAVCLordSkillComponentExecutable@@@std@@@std@@QBEIXZ
_TEXT	SEGMENT PARA USE32 PUBLIC 'CODE'
_TEXT	ENDS
;	COMDAT ?size@?$vector@V?$shared_ptr@VCCandidate@@@boost@@V?$allocator@V?$shared_ptr@VCCandidate@@@boost@@@std@@@std@@QBEIXZ
_TEXT	SEGMENT PARA USE32 PUBLIC 'CODE'
_TEXT	ENDS
;	COMDAT ??0?$vector@MV?$allocator@M@std@@@std@@QAE@XZ
_TEXT	SEGMENT PARA USE32 PUBLIC 'CODE'
_TEXT	ENDS
;	COMDAT ??1?$vector@MV?$allocator@M@std@@@std@@QAE@XZ
_TEXT	SEGMENT PARA USE32 PUBLIC 'CODE'
_TEXT	ENDS
;	COMDAT ??0?$vector@HV?$allocator@H@std@@@std@@QAE@XZ
_TEXT	SEGMENT PARA USE32 PUBLIC 'CODE'
_TEXT	ENDS
;	COMDAT ??1?$vector@HV?$allocator@H@std@@@std@@QAE@XZ
_TEXT	SEGMENT PARA USE32 PUBLIC 'CODE'
_TEXT	ENDS
;	COMDAT ??C?$shared_ptr@VCCandidate@@@boost@@QBEPAVCCandidate@@XZ
_TEXT	SEGMENT PARA USE32 PUBLIC 'CODE'
_TEXT	ENDS
;	COMDAT ?size@?$vector@PAVCLEComponent@@V?$allocator@PAVCLEComponent@@@std@@@std@@QBEIXZ
_TEXT	SEGMENT PARA USE32 PUBLIC 'CODE'
_TEXT	ENDS
;	COMDAT ?size@?$vector@U?$pair@M_J@std@@V?$allocator@U?$pair@M_J@std@@@2@@std@@QBEIXZ
_TEXT	SEGMENT PARA USE32 PUBLIC 'CODE'
_TEXT	ENDS
;	COMDAT ?end@?$_Tree@V?$_Tmap_traits@KP8CDPTrans@@AEXAAVCAr@@KKKPAEK@ZU?$less@K@std@@V?$allocator@U?$pair@$$CBKP8CDPTrans@@AEXAAVCAr@@KKKPAEK@Z@std@@@4@$0A@@std@@@std@@QAE?AViterator@12@XZ
_TEXT	SEGMENT PARA USE32 PUBLIC 'CODE'
_TEXT	ENDS
;	COMDAT ?find@?$_Tree@V?$_Tmap_traits@KP8CDPTrans@@AEXAAVCAr@@KKKPAEK@ZU?$less@K@std@@V?$allocator@U?$pair@$$CBKP8CDPTrans@@AEXAAVCAr@@KKKPAEK@Z@std@@@4@$0A@@std@@@std@@QAE?AViterator@12@ABK@Z
_TEXT	SEGMENT PARA USE32 PUBLIC 'CODE'
_TEXT	ENDS
;	COMDAT ??Citerator@?$_Tree@V?$_Tmap_traits@KP8CDPTrans@@AEXAAVCAr@@KKKPAEK@ZU?$less@K@std@@V?$allocator@U?$pair@$$CBKP8CDPTrans@@AEXAAVCAr@@KKKPAEK@Z@std@@@4@$0A@@std@@@std@@QBEPAU?$pair@$$CBKP8CDPTrans@@AEXAAVCAr@@KKKPAEK@Z@2@XZ
_TEXT	SEGMENT PARA USE32 PUBLIC 'CODE'
_TEXT	ENDS
;	COMDAT ??9const_iterator@?$_Tree@V?$_Tmap_traits@KP8CDPTrans@@AEXAAVCAr@@KKKPAEK@ZU?$less@K@std@@V?$allocator@U?$pair@$$CBKP8CDPTrans@@AEXAAVCAr@@KKKPAEK@Z@std@@@4@$0A@@std@@@std@@QBE_NABV012@@Z
_TEXT	SEGMENT PARA USE32 PUBLIC 'CODE'
_TEXT	ENDS
;	COMDAT ?Alloc@?$MemPooler@VCParty@@@@QAEPAVCParty@@XZ
_TEXT	SEGMENT PARA USE32 PUBLIC 'CODE'
_TEXT	ENDS
;	COMDAT ?Free@?$MemPooler@VCParty@@@@QAEHPAVCParty@@@Z
_TEXT	SEGMENT PARA USE32 PUBLIC 'CODE'
_TEXT	ENDS
;	COMDAT ?size@?$_Tree@V?$_Tmap_traits@KPAVCGuildWar@@U?$less@K@std@@V?$allocator@U?$pair@$$CBKPAVCGuildWar@@@std@@@3@$0A@@std@@@std@@QBEIXZ
_TEXT	SEGMENT PARA USE32 PUBLIC 'CODE'
_TEXT	ENDS
;	COMDAT ?end@?$_Tree@V?$_Tmap_traits@KP8CDPAccountClient@@AEXAAVCAr@@PAEK@ZU?$less@K@std@@V?$allocator@U?$pair@$$CBKP8CDPAccountClient@@AEXAAVCAr@@PAEK@Z@std@@@4@$0A@@std@@@std@@QAE?AViterator@12@XZ
_TEXT	SEGMENT PARA USE32 PUBLIC 'CODE'
_TEXT	ENDS
;	COMDAT ?find@?$_Tree@V?$_Tmap_traits@KP8CDPAccountClient@@AEXAAVCAr@@PAEK@ZU?$less@K@std@@V?$allocator@U?$pair@$$CBKP8CDPAccountClient@@AEXAAVCAr@@PAEK@Z@std@@@4@$0A@@std@@@std@@QAE?AViterator@12@ABK@Z
_TEXT	SEGMENT PARA USE32 PUBLIC 'CODE'
_TEXT	ENDS
;	COMDAT ??Citerator@?$_Tree@V?$_Tmap_traits@KP8CDPAccountClient@@AEXAAVCAr@@PAEK@ZU?$less@K@std@@V?$allocator@U?$pair@$$CBKP8CDPAccountClient@@AEXAAVCAr@@PAEK@Z@std@@@4@$0A@@std@@@std@@QBEPAU?$pair@$$CBKP8CDPAccountClient@@AEXAAVCAr@@PAEK@Z@2@XZ
_TEXT	SEGMENT PARA USE32 PUBLIC 'CODE'
_TEXT	ENDS
;	COMDAT ??9const_iterator@?$_Tree@V?$_Tmap_traits@KP8CDPAccountClient@@AEXAAVCAr@@PAEK@ZU?$less@K@std@@V?$allocator@U?$pair@$$CBKP8CDPAccountClient@@AEXAAVCAr@@PAEK@Z@std@@@4@$0A@@std@@@std@@QBE_NABV012@@Z
_TEXT	SEGMENT PARA USE32 PUBLIC 'CODE'
_TEXT	ENDS
;	COMDAT ?StringFindString@?$ChTraitsCRT@D@ATL@@SAPADPADPBD@Z
_TEXT	SEGMENT PARA USE32 PUBLIC 'CODE'
_TEXT	ENDS
;	COMDAT ?SafeStringLen@?$ChTraitsCRT@D@ATL@@SAHPBD@Z
_TEXT	SEGMENT PARA USE32 PUBLIC 'CODE'
_TEXT	ENDS
;	COMDAT ?compare@?$basic_string@DU?$char_traits@D@std@@V?$allocator@D@2@@std@@QBEHIIPBDI@Z
_TEXT	SEGMENT PARA USE32 PUBLIC 'CODE'
_TEXT	ENDS
;	COMDAT ??0?$allocator@H@std@@QAE@XZ
_TEXT	SEGMENT PARA USE32 PUBLIC 'CODE'
_TEXT	ENDS
;	COMDAT ?_Key@?$_Tree@V?$_Tmap_traits@KP8CDPLoginSrvr@@AEXAAVCAr@@KPAEK@ZU?$less@K@std@@V?$allocator@U?$pair@$$CBKP8CDPLoginSrvr@@AEXAAVCAr@@KPAEK@Z@std@@@4@$0A@@std@@@std@@KAABKPAU_Node@?$_Tree_nod@V?$_Tmap_traits@KP8CDPLoginSrvr@@AEXAAVCAr@@KPAEK@ZU?$less@K@std@@V?$allocator@U?$pair@$$CBKP8CDPLoginSrvr@@AEXAAVCAr@@KPAEK@Z@std@@@4@$0A@@std@@@2@@Z
_TEXT	SEGMENT PARA USE32 PUBLIC 'CODE'
_TEXT	ENDS
;	COMDAT ?lower_bound@?$_Tree@V?$_Tmap_traits@KP8CDPLoginSrvr@@AEXAAVCAr@@KPAEK@ZU?$less@K@std@@V?$allocator@U?$pair@$$CBKP8CDPLoginSrvr@@AEXAAVCAr@@KPAEK@Z@std@@@4@$0A@@std@@@std@@QAE?AViterator@12@ABK@Z
_TEXT	SEGMENT PARA USE32 PUBLIC 'CODE'
_TEXT	ENDS
;	COMDAT ??0iterator@?$_Tree@V?$_Tmap_traits@KP8CDPLoginSrvr@@AEXAAVCAr@@KPAEK@ZU?$less@K@std@@V?$allocator@U?$pair@$$CBKP8CDPLoginSrvr@@AEXAAVCAr@@KPAEK@Z@std@@@4@$0A@@std@@@std@@QAE@PAU_Node@?$_Tree_nod@V?$_Tmap_traits@KP8CDPLoginSrvr@@AEXAAVCAr@@KPAEK@ZU?$less@K@std@@V?$allocator@U?$pair@$$CBKP8CDPLoginSrvr@@AEXAAVCAr@@KPAEK@Z@std@@@4@$0A@@std@@@2@@Z
_TEXT	SEGMENT PARA USE32 PUBLIC 'CODE'
_TEXT	ENDS
;	COMDAT ??Diterator@?$_Tree@V?$_Tmap_traits@KP8CDPLoginSrvr@@AEXAAVCAr@@KPAEK@ZU?$less@K@std@@V?$allocator@U?$pair@$$CBKP8CDPLoginSrvr@@AEXAAVCAr@@KPAEK@Z@std@@@4@$0A@@std@@@std@@QBEAAU?$pair@$$CBKP8CDPLoginSrvr@@AEXAAVCAr@@KPAEK@Z@2@XZ
_TEXT	SEGMENT PARA USE32 PUBLIC 'CODE'
_TEXT	ENDS
;	COMDAT ??8const_iterator@?$_Tree@V?$_Tmap_traits@KP8CDPLoginSrvr@@AEXAAVCAr@@KPAEK@ZU?$less@K@std@@V?$allocator@U?$pair@$$CBKP8CDPLoginSrvr@@AEXAAVCAr@@KPAEK@Z@std@@@4@$0A@@std@@@std@@QBE_NABV012@@Z
_TEXT	SEGMENT PARA USE32 PUBLIC 'CODE'
_TEXT	ENDS
;	COMDAT ?_Mynode@const_iterator@?$_Tree@V?$_Tmap_traits@KP8CDPLoginSrvr@@AEXAAVCAr@@KPAEK@ZU?$less@K@std@@V?$allocator@U?$pair@$$CBKP8CDPLoginSrvr@@AEXAAVCAr@@KPAEK@Z@std@@@4@$0A@@std@@@std@@QBEPAU_Node@?$_Tree_nod@V?$_Tmap_traits@KP8CDPLoginSrvr@@AEXAAVCAr@@KPAEK@ZU?$less@K@std@@V?$allocator@U?$pair@$$CBKP8CDPLoginSrvr@@AEXAAVCAr@@KPAEK@Z@std@@@4@$0A@@std@@@3@XZ
_TEXT	SEGMENT PARA USE32 PUBLIC 'CODE'
_TEXT	ENDS
;	COMDAT ?Create@?$MemPooler@VCGuildMember@@@@IAEXXZ
_TEXT	SEGMENT PARA USE32 PUBLIC 'CODE'
_TEXT	ENDS
;	COMDAT ?Create@?$MemPooler@VCGuild@@@@IAEXXZ
_TEXT	SEGMENT PARA USE32 PUBLIC 'CODE'
_TEXT	ENDS
;	COMDAT ?_Key@?$_Tree@V?$_Tmap_traits@KP8CDPCoreSrvr@@AEXAAVCAr@@PAEK@ZU?$less@K@std@@V?$allocator@U?$pair@$$CBKP8CDPCoreSrvr@@AEXAAVCAr@@PAEK@Z@std@@@4@$0A@@std@@@std@@KAABKPAU_Node@?$_Tree_nod@V?$_Tmap_traits@KP8CDPCoreSrvr@@AEXAAVCAr@@PAEK@ZU?$less@K@std@@V?$allocator@U?$pair@$$CBKP8CDPCoreSrvr@@AEXAAVCAr@@PAEK@Z@std@@@4@$0A@@std@@@2@@Z
_TEXT	SEGMENT PARA USE32 PUBLIC 'CODE'
_TEXT	ENDS
;	COMDAT ?lower_bound@?$_Tree@V?$_Tmap_traits@KP8CDPCoreSrvr@@AEXAAVCAr@@PAEK@ZU?$less@K@std@@V?$allocator@U?$pair@$$CBKP8CDPCoreSrvr@@AEXAAVCAr@@PAEK@Z@std@@@4@$0A@@std@@@std@@QAE?AViterator@12@ABK@Z
_TEXT	SEGMENT PARA USE32 PUBLIC 'CODE'
_TEXT	ENDS
;	COMDAT ??0iterator@?$_Tree@V?$_Tmap_traits@KP8CDPCoreSrvr@@AEXAAVCAr@@PAEK@ZU?$less@K@std@@V?$allocator@U?$pair@$$CBKP8CDPCoreSrvr@@AEXAAVCAr@@PAEK@Z@std@@@4@$0A@@std@@@std@@QAE@PAU_Node@?$_Tree_nod@V?$_Tmap_traits@KP8CDPCoreSrvr@@AEXAAVCAr@@PAEK@ZU?$less@K@std@@V?$allocator@U?$pair@$$CBKP8CDPCoreSrvr@@AEXAAVCAr@@PAEK@Z@std@@@4@$0A@@std@@@2@@Z
_TEXT	SEGMENT PARA USE32 PUBLIC 'CODE'
_TEXT	ENDS
;	COMDAT ??Diterator@?$_Tree@V?$_Tmap_traits@KP8CDPCoreSrvr@@AEXAAVCAr@@PAEK@ZU?$less@K@std@@V?$allocator@U?$pair@$$CBKP8CDPCoreSrvr@@AEXAAVCAr@@PAEK@Z@std@@@4@$0A@@std@@@std@@QBEAAU?$pair@$$CBKP8CDPCoreSrvr@@AEXAAVCAr@@PAEK@Z@2@XZ
_TEXT	SEGMENT PARA USE32 PUBLIC 'CODE'
_TEXT	ENDS
;	COMDAT ??8const_iterator@?$_Tree@V?$_Tmap_traits@KP8CDPCoreSrvr@@AEXAAVCAr@@PAEK@ZU?$less@K@std@@V?$allocator@U?$pair@$$CBKP8CDPCoreSrvr@@AEXAAVCAr@@PAEK@Z@std@@@4@$0A@@std@@@std@@QBE_NABV012@@Z
_TEXT	SEGMENT PARA USE32 PUBLIC 'CODE'
_TEXT	ENDS
;	COMDAT ?_Mynode@const_iterator@?$_Tree@V?$_Tmap_traits@KP8CDPCoreSrvr@@AEXAAVCAr@@PAEK@ZU?$less@K@std@@V?$allocator@U?$pair@$$CBKP8CDPCoreSrvr@@AEXAAVCAr@@PAEK@Z@std@@@4@$0A@@std@@@std@@QBEPAU_Node@?$_Tree_nod@V?$_Tmap_traits@KP8CDPCoreSrvr@@AEXAAVCAr@@PAEK@ZU?$less@K@std@@V?$allocator@U?$pair@$$CBKP8CDPCoreSrvr@@AEXAAVCAr@@PAEK@Z@std@@@4@$0A@@std@@@3@XZ
_TEXT	SEGMENT PARA USE32 PUBLIC 'CODE'
_TEXT	ENDS
;	COMDAT ?_Buy@?$vector@MV?$allocator@M@std@@@std@@IAE_NI@Z
_TEXT	SEGMENT PARA USE32 PUBLIC 'CODE'
_TEXT	ENDS
;	COMDAT ?_Tidy@?$vector@MV?$allocator@M@std@@@std@@IAEXXZ
_TEXT	SEGMENT PARA USE32 PUBLIC 'CODE'
_TEXT	ENDS
;	COMDAT ??0?$_Vector_val@MV?$allocator@M@std@@@std@@IAE@V?$allocator@M@1@@Z
_TEXT	SEGMENT PARA USE32 PUBLIC 'CODE'
_TEXT	ENDS
;	COMDAT ??0?$allocator@M@std@@QAE@XZ
_TEXT	SEGMENT PARA USE32 PUBLIC 'CODE'
_TEXT	ENDS
;	COMDAT ?_Buy@?$vector@HV?$allocator@H@std@@@std@@IAE_NI@Z
_TEXT	SEGMENT PARA USE32 PUBLIC 'CODE'
_TEXT	ENDS
;	COMDAT ?_Tidy@?$vector@HV?$allocator@H@std@@@std@@IAEXXZ
_TEXT	SEGMENT PARA USE32 PUBLIC 'CODE'
_TEXT	ENDS
;	COMDAT ??0?$_Vector_val@HV?$allocator@H@std@@@std@@IAE@V?$allocator@H@1@@Z
_TEXT	SEGMENT PARA USE32 PUBLIC 'CODE'
_TEXT	ENDS
;	COMDAT ?_Key@?$_Tree@V?$_Tmap_traits@KP8CDPTrans@@AEXAAVCAr@@KKKPAEK@ZU?$less@K@std@@V?$allocator@U?$pair@$$CBKP8CDPTrans@@AEXAAVCAr@@KKKPAEK@Z@std@@@4@$0A@@std@@@std@@KAABKPAU_Node@?$_Tree_nod@V?$_Tmap_traits@KP8CDPTrans@@AEXAAVCAr@@KKKPAEK@ZU?$less@K@std@@V?$allocator@U?$pair@$$CBKP8CDPTrans@@AEXAAVCAr@@KKKPAEK@Z@std@@@4@$0A@@std@@@2@@Z
_TEXT	SEGMENT PARA USE32 PUBLIC 'CODE'
_TEXT	ENDS
;	COMDAT ?lower_bound@?$_Tree@V?$_Tmap_traits@KP8CDPTrans@@AEXAAVCAr@@KKKPAEK@ZU?$less@K@std@@V?$allocator@U?$pair@$$CBKP8CDPTrans@@AEXAAVCAr@@KKKPAEK@Z@std@@@4@$0A@@std@@@std@@QAE?AViterator@12@ABK@Z
_TEXT	SEGMENT PARA USE32 PUBLIC 'CODE'
_TEXT	ENDS
;	COMDAT ??0iterator@?$_Tree@V?$_Tmap_traits@KP8CDPTrans@@AEXAAVCAr@@KKKPAEK@ZU?$less@K@std@@V?$allocator@U?$pair@$$CBKP8CDPTrans@@AEXAAVCAr@@KKKPAEK@Z@std@@@4@$0A@@std@@@std@@QAE@PAU_Node@?$_Tree_nod@V?$_Tmap_traits@KP8CDPTrans@@AEXAAVCAr@@KKKPAEK@ZU?$less@K@std@@V?$allocator@U?$pair@$$CBKP8CDPTrans@@AEXAAVCAr@@KKKPAEK@Z@std@@@4@$0A@@std@@@2@@Z
_TEXT	SEGMENT PARA USE32 PUBLIC 'CODE'
_TEXT	ENDS
;	COMDAT ??Diterator@?$_Tree@V?$_Tmap_traits@KP8CDPTrans@@AEXAAVCAr@@KKKPAEK@ZU?$less@K@std@@V?$allocator@U?$pair@$$CBKP8CDPTrans@@AEXAAVCAr@@KKKPAEK@Z@std@@@4@$0A@@std@@@std@@QBEAAU?$pair@$$CBKP8CDPTrans@@AEXAAVCAr@@KKKPAEK@Z@2@XZ
_TEXT	SEGMENT PARA USE32 PUBLIC 'CODE'
_TEXT	ENDS
;	COMDAT ??8const_iterator@?$_Tree@V?$_Tmap_traits@KP8CDPTrans@@AEXAAVCAr@@KKKPAEK@ZU?$less@K@std@@V?$allocator@U?$pair@$$CBKP8CDPTrans@@AEXAAVCAr@@KKKPAEK@Z@std@@@4@$0A@@std@@@std@@QBE_NABV012@@Z
_TEXT	SEGMENT PARA USE32 PUBLIC 'CODE'
_TEXT	ENDS
;	COMDAT ?_Mynode@const_iterator@?$_Tree@V?$_Tmap_traits@KP8CDPTrans@@AEXAAVCAr@@KKKPAEK@ZU?$less@K@std@@V?$allocator@U?$pair@$$CBKP8CDPTrans@@AEXAAVCAr@@KKKPAEK@Z@std@@@4@$0A@@std@@@std@@QBEPAU_Node@?$_Tree_nod@V?$_Tmap_traits@KP8CDPTrans@@AEXAAVCAr@@KKKPAEK@ZU?$less@K@std@@V?$allocator@U?$pair@$$CBKP8CDPTrans@@AEXAAVCAr@@KKKPAEK@Z@std@@@4@$0A@@std@@@3@XZ
_TEXT	SEGMENT PARA USE32 PUBLIC 'CODE'
_TEXT	ENDS
;	COMDAT ?Create@?$MemPooler@VCParty@@@@IAEXXZ
_TEXT	SEGMENT PARA USE32 PUBLIC 'CODE'
_TEXT	ENDS
;	COMDAT ?_Key@?$_Tree@V?$_Tmap_traits@KP8CDPAccountClient@@AEXAAVCAr@@PAEK@ZU?$less@K@std@@V?$allocator@U?$pair@$$CBKP8CDPAccountClient@@AEXAAVCAr@@PAEK@Z@std@@@4@$0A@@std@@@std@@KAABKPAU_Node@?$_Tree_nod@V?$_Tmap_traits@KP8CDPAccountClient@@AEXAAVCAr@@PAEK@ZU?$less@K@std@@V?$allocator@U?$pair@$$CBKP8CDPAccountClient@@AEXAAVCAr@@PAEK@Z@std@@@4@$0A@@std@@@2@@Z
_TEXT	SEGMENT PARA USE32 PUBLIC 'CODE'
_TEXT	ENDS
;	COMDAT ?lower_bound@?$_Tree@V?$_Tmap_traits@KP8CDPAccountClient@@AEXAAVCAr@@PAEK@ZU?$less@K@std@@V?$allocator@U?$pair@$$CBKP8CDPAccountClient@@AEXAAVCAr@@PAEK@Z@std@@@4@$0A@@std@@@std@@QAE?AViterator@12@ABK@Z
_TEXT	SEGMENT PARA USE32 PUBLIC 'CODE'
_TEXT	ENDS
;	COMDAT ??0iterator@?$_Tree@V?$_Tmap_traits@KP8CDPAccountClient@@AEXAAVCAr@@PAEK@ZU?$less@K@std@@V?$allocator@U?$pair@$$CBKP8CDPAccountClient@@AEXAAVCAr@@PAEK@Z@std@@@4@$0A@@std@@@std@@QAE@PAU_Node@?$_Tree_nod@V?$_Tmap_traits@KP8CDPAccountClient@@AEXAAVCAr@@PAEK@ZU?$less@K@std@@V?$allocator@U?$pair@$$CBKP8CDPAccountClient@@AEXAAVCAr@@PAEK@Z@std@@@4@$0A@@std@@@2@@Z
_TEXT	SEGMENT PARA USE32 PUBLIC 'CODE'
_TEXT	ENDS
;	COMDAT ??Diterator@?$_Tree@V?$_Tmap_traits@KP8CDPAccountClient@@AEXAAVCAr@@PAEK@ZU?$less@K@std@@V?$allocator@U?$pair@$$CBKP8CDPAccountClient@@AEXAAVCAr@@PAEK@Z@std@@@4@$0A@@std@@@std@@QBEAAU?$pair@$$CBKP8CDPAccountClient@@AEXAAVCAr@@PAEK@Z@2@XZ
_TEXT	SEGMENT PARA USE32 PUBLIC 'CODE'
_TEXT	ENDS
;	COMDAT ??8const_iterator@?$_Tree@V?$_Tmap_traits@KP8CDPAccountClient@@AEXAAVCAr@@PAEK@ZU?$less@K@std@@V?$allocator@U?$pair@$$CBKP8CDPAccountClient@@AEXAAVCAr@@PAEK@Z@std@@@4@$0A@@std@@@std@@QBE_NABV012@@Z
_TEXT	SEGMENT PARA USE32 PUBLIC 'CODE'
_TEXT	ENDS
;	COMDAT ?_Mynode@const_iterator@?$_Tree@V?$_Tmap_traits@KP8CDPAccountClient@@AEXAAVCAr@@PAEK@ZU?$less@K@std@@V?$allocator@U?$pair@$$CBKP8CDPAccountClient@@AEXAAVCAr@@PAEK@Z@std@@@4@$0A@@std@@@std@@QBEPAU_Node@?$_Tree_nod@V?$_Tmap_traits@KP8CDPAccountClient@@AEXAAVCAr@@PAEK@ZU?$less@K@std@@V?$allocator@U?$pair@$$CBKP8CDPAccountClient@@AEXAAVCAr@@PAEK@Z@std@@@4@$0A@@std@@@3@XZ
_TEXT	SEGMENT PARA USE32 PUBLIC 'CODE'
_TEXT	ENDS
;	COMDAT ??0?$allocator@H@std@@QAE@ABV01@@Z
_TEXT	SEGMENT PARA USE32 PUBLIC 'CODE'
_TEXT	ENDS
;	COMDAT ?deallocate@?$allocator@H@std@@QAEXPAHI@Z
_TEXT	SEGMENT PARA USE32 PUBLIC 'CODE'
_TEXT	ENDS
;	COMDAT ?allocate@?$allocator@H@std@@QAEPAHI@Z
_TEXT	SEGMENT PARA USE32 PUBLIC 'CODE'
_TEXT	ENDS
;	COMDAT ?_Myval@?$_Tree@V?$_Tmap_traits@KP8CDPLoginSrvr@@AEXAAVCAr@@KPAEK@ZU?$less@K@std@@V?$allocator@U?$pair@$$CBKP8CDPLoginSrvr@@AEXAAVCAr@@KPAEK@Z@std@@@4@$0A@@std@@@std@@KAAAU?$pair@$$CBKP8CDPLoginSrvr@@AEXAAVCAr@@KPAEK@Z@2@PAU_Node@?$_Tree_nod@V?$_Tmap_traits@KP8CDPLoginSrvr@@AEXAAVCAr@@KPAEK@ZU?$less@K@std@@V?$allocator@U?$pair@$$CBKP8CDPLoginSrvr@@AEXAAVCAr@@KPAEK@Z@std@@@4@$0A@@std@@@2@@Z
_TEXT	SEGMENT PARA USE32 PUBLIC 'CODE'
_TEXT	ENDS
;	COMDAT ?_Lbound@?$_Tree@V?$_Tmap_traits@KP8CDPLoginSrvr@@AEXAAVCAr@@KPAEK@ZU?$less@K@std@@V?$allocator@U?$pair@$$CBKP8CDPLoginSrvr@@AEXAAVCAr@@KPAEK@Z@std@@@4@$0A@@std@@@std@@IBEPAU_Node@?$_Tree_nod@V?$_Tmap_traits@KP8CDPLoginSrvr@@AEXAAVCAr@@KPAEK@ZU?$less@K@std@@V?$allocator@U?$pair@$$CBKP8CDPLoginSrvr@@AEXAAVCAr@@KPAEK@Z@std@@@4@$0A@@std@@@2@ABK@Z
_TEXT	SEGMENT PARA USE32 PUBLIC 'CODE'
_TEXT	ENDS
;	COMDAT ?_Kfn@?$_Tmap_traits@KP8CDPLoginSrvr@@AEXAAVCAr@@KPAEK@ZU?$less@K@std@@V?$allocator@U?$pair@$$CBKP8CDPLoginSrvr@@AEXAAVCAr@@KPAEK@Z@std@@@4@$0A@@std@@SAABKABU?$pair@$$CBKP8CDPLoginSrvr@@AEXAAVCAr@@KPAEK@Z@2@@Z
_TEXT	SEGMENT PARA USE32 PUBLIC 'CODE'
_TEXT	ENDS
;	COMDAT ??0const_iterator@?$_Tree@V?$_Tmap_traits@KP8CDPLoginSrvr@@AEXAAVCAr@@KPAEK@ZU?$less@K@std@@V?$allocator@U?$pair@$$CBKP8CDPLoginSrvr@@AEXAAVCAr@@KPAEK@Z@std@@@4@$0A@@std@@@std@@QAE@PAU_Node@?$_Tree_nod@V?$_Tmap_traits@KP8CDPLoginSrvr@@AEXAAVCAr@@KPAEK@ZU?$less@K@std@@V?$allocator@U?$pair@$$CBKP8CDPLoginSrvr@@AEXAAVCAr@@KPAEK@Z@std@@@4@$0A@@std@@@2@@Z
_TEXT	SEGMENT PARA USE32 PUBLIC 'CODE'
_TEXT	ENDS
;	COMDAT ??Dconst_iterator@?$_Tree@V?$_Tmap_traits@KP8CDPLoginSrvr@@AEXAAVCAr@@KPAEK@ZU?$less@K@std@@V?$allocator@U?$pair@$$CBKP8CDPLoginSrvr@@AEXAAVCAr@@KPAEK@Z@std@@@4@$0A@@std@@@std@@QBEABU?$pair@$$CBKP8CDPLoginSrvr@@AEXAAVCAr@@KPAEK@Z@2@XZ
_TEXT	SEGMENT PARA USE32 PUBLIC 'CODE'
_TEXT	ENDS
;	COMDAT ?_Myval@?$_Tree@V?$_Tmap_traits@KP8CDPCoreSrvr@@AEXAAVCAr@@PAEK@ZU?$less@K@std@@V?$allocator@U?$pair@$$CBKP8CDPCoreSrvr@@AEXAAVCAr@@PAEK@Z@std@@@4@$0A@@std@@@std@@KAAAU?$pair@$$CBKP8CDPCoreSrvr@@AEXAAVCAr@@PAEK@Z@2@PAU_Node@?$_Tree_nod@V?$_Tmap_traits@KP8CDPCoreSrvr@@AEXAAVCAr@@PAEK@ZU?$less@K@std@@V?$allocator@U?$pair@$$CBKP8CDPCoreSrvr@@AEXAAVCAr@@PAEK@Z@std@@@4@$0A@@std@@@2@@Z
_TEXT	SEGMENT PARA USE32 PUBLIC 'CODE'
_TEXT	ENDS
;	COMDAT ?_Lbound@?$_Tree@V?$_Tmap_traits@KP8CDPCoreSrvr@@AEXAAVCAr@@PAEK@ZU?$less@K@std@@V?$allocator@U?$pair@$$CBKP8CDPCoreSrvr@@AEXAAVCAr@@PAEK@Z@std@@@4@$0A@@std@@@std@@IBEPAU_Node@?$_Tree_nod@V?$_Tmap_traits@KP8CDPCoreSrvr@@AEXAAVCAr@@PAEK@ZU?$less@K@std@@V?$allocator@U?$pair@$$CBKP8CDPCoreSrvr@@AEXAAVCAr@@PAEK@Z@std@@@4@$0A@@std@@@2@ABK@Z
_TEXT	SEGMENT PARA USE32 PUBLIC 'CODE'
_TEXT	ENDS
;	COMDAT ?_Kfn@?$_Tmap_traits@KP8CDPCoreSrvr@@AEXAAVCAr@@PAEK@ZU?$less@K@std@@V?$allocator@U?$pair@$$CBKP8CDPCoreSrvr@@AEXAAVCAr@@PAEK@Z@std@@@4@$0A@@std@@SAABKABU?$pair@$$CBKP8CDPCoreSrvr@@AEXAAVCAr@@PAEK@Z@2@@Z
_TEXT	SEGMENT PARA USE32 PUBLIC 'CODE'
_TEXT	ENDS
;	COMDAT ??0const_iterator@?$_Tree@V?$_Tmap_traits@KP8CDPCoreSrvr@@AEXAAVCAr@@PAEK@ZU?$less@K@std@@V?$allocator@U?$pair@$$CBKP8CDPCoreSrvr@@AEXAAVCAr@@PAEK@Z@std@@@4@$0A@@std@@@std@@QAE@PAU_Node@?$_Tree_nod@V?$_Tmap_traits@KP8CDPCoreSrvr@@AEXAAVCAr@@PAEK@ZU?$less@K@std@@V?$allocator@U?$pair@$$CBKP8CDPCoreSrvr@@AEXAAVCAr@@PAEK@Z@std@@@4@$0A@@std@@@2@@Z
_TEXT	SEGMENT PARA USE32 PUBLIC 'CODE'
_TEXT	ENDS
;	COMDAT ??Dconst_iterator@?$_Tree@V?$_Tmap_traits@KP8CDPCoreSrvr@@AEXAAVCAr@@PAEK@ZU?$less@K@std@@V?$allocator@U?$pair@$$CBKP8CDPCoreSrvr@@AEXAAVCAr@@PAEK@Z@std@@@4@$0A@@std@@@std@@QBEABU?$pair@$$CBKP8CDPCoreSrvr@@AEXAAVCAr@@PAEK@Z@2@XZ
_TEXT	SEGMENT PARA USE32 PUBLIC 'CODE'
_TEXT	ENDS
;	COMDAT ?max_size@?$vector@MV?$allocator@M@std@@@std@@QBEIXZ
_TEXT	SEGMENT PARA USE32 PUBLIC 'CODE'
_TEXT	ENDS
;	COMDAT ?_Destroy@?$vector@MV?$allocator@M@std@@@std@@IAEXPAM0@Z
_TEXT	SEGMENT PARA USE32 PUBLIC 'CODE'
_TEXT	ENDS
;	COMDAT ?_Xlen@?$vector@MV?$allocator@M@std@@@std@@IBEXXZ
_TEXT	SEGMENT PARA USE32 PUBLIC 'CODE'
_TEXT	ENDS
;	COMDAT ??0?$allocator@M@std@@QAE@ABV01@@Z
_TEXT	SEGMENT PARA USE32 PUBLIC 'CODE'
_TEXT	ENDS
;	COMDAT ?deallocate@?$allocator@M@std@@QAEXPAMI@Z
_TEXT	SEGMENT PARA USE32 PUBLIC 'CODE'
_TEXT	ENDS
;	COMDAT ?allocate@?$allocator@M@std@@QAEPAMI@Z
_TEXT	SEGMENT PARA USE32 PUBLIC 'CODE'
_TEXT	ENDS
;	COMDAT ?max_size@?$vector@HV?$allocator@H@std@@@std@@QBEIXZ
_TEXT	SEGMENT PARA USE32 PUBLIC 'CODE'
_TEXT	ENDS
;	COMDAT ?_Destroy@?$vector@HV?$allocator@H@std@@@std@@IAEXPAH0@Z
_TEXT	SEGMENT PARA USE32 PUBLIC 'CODE'
_TEXT	ENDS
;	COMDAT ?_Xlen@?$vector@HV?$allocator@H@std@@@std@@IBEXXZ
_TEXT	SEGMENT PARA USE32 PUBLIC 'CODE'
_TEXT	ENDS
;	COMDAT ?_Myval@?$_Tree@V?$_Tmap_traits@KP8CDPTrans@@AEXAAVCAr@@KKKPAEK@ZU?$less@K@std@@V?$allocator@U?$pair@$$CBKP8CDPTrans@@AEXAAVCAr@@KKKPAEK@Z@std@@@4@$0A@@std@@@std@@KAAAU?$pair@$$CBKP8CDPTrans@@AEXAAVCAr@@KKKPAEK@Z@2@PAU_Node@?$_Tree_nod@V?$_Tmap_traits@KP8CDPTrans@@AEXAAVCAr@@KKKPAEK@ZU?$less@K@std@@V?$allocator@U?$pair@$$CBKP8CDPTrans@@AEXAAVCAr@@KKKPAEK@Z@std@@@4@$0A@@std@@@2@@Z
_TEXT	SEGMENT PARA USE32 PUBLIC 'CODE'
_TEXT	ENDS
;	COMDAT ?_Lbound@?$_Tree@V?$_Tmap_traits@KP8CDPTrans@@AEXAAVCAr@@KKKPAEK@ZU?$less@K@std@@V?$allocator@U?$pair@$$CBKP8CDPTrans@@AEXAAVCAr@@KKKPAEK@Z@std@@@4@$0A@@std@@@std@@IBEPAU_Node@?$_Tree_nod@V?$_Tmap_traits@KP8CDPTrans@@AEXAAVCAr@@KKKPAEK@ZU?$less@K@std@@V?$allocator@U?$pair@$$CBKP8CDPTrans@@AEXAAVCAr@@KKKPAEK@Z@std@@@4@$0A@@std@@@2@ABK@Z
_TEXT	SEGMENT PARA USE32 PUBLIC 'CODE'
_TEXT	ENDS
;	COMDAT ?_Kfn@?$_Tmap_traits@KP8CDPTrans@@AEXAAVCAr@@KKKPAEK@ZU?$less@K@std@@V?$allocator@U?$pair@$$CBKP8CDPTrans@@AEXAAVCAr@@KKKPAEK@Z@std@@@4@$0A@@std@@SAABKABU?$pair@$$CBKP8CDPTrans@@AEXAAVCAr@@KKKPAEK@Z@2@@Z
_TEXT	SEGMENT PARA USE32 PUBLIC 'CODE'
_TEXT	ENDS
;	COMDAT ??0const_iterator@?$_Tree@V?$_Tmap_traits@KP8CDPTrans@@AEXAAVCAr@@KKKPAEK@ZU?$less@K@std@@V?$allocator@U?$pair@$$CBKP8CDPTrans@@AEXAAVCAr@@KKKPAEK@Z@std@@@4@$0A@@std@@@std@@QAE@PAU_Node@?$_Tree_nod@V?$_Tmap_traits@KP8CDPTrans@@AEXAAVCAr@@KKKPAEK@ZU?$less@K@std@@V?$allocator@U?$pair@$$CBKP8CDPTrans@@AEXAAVCAr@@KKKPAEK@Z@std@@@4@$0A@@std@@@2@@Z
_TEXT	SEGMENT PARA USE32 PUBLIC 'CODE'
_TEXT	ENDS
;	COMDAT ??Dconst_iterator@?$_Tree@V?$_Tmap_traits@KP8CDPTrans@@AEXAAVCAr@@KKKPAEK@ZU?$less@K@std@@V?$allocator@U?$pair@$$CBKP8CDPTrans@@AEXAAVCAr@@KKKPAEK@Z@std@@@4@$0A@@std@@@std@@QBEABU?$pair@$$CBKP8CDPTrans@@AEXAAVCAr@@KKKPAEK@Z@2@XZ
_TEXT	SEGMENT PARA USE32 PUBLIC 'CODE'
_TEXT	ENDS
;	COMDAT ?_Myval@?$_Tree@V?$_Tmap_traits@KP8CDPAccountClient@@AEXAAVCAr@@PAEK@ZU?$less@K@std@@V?$allocator@U?$pair@$$CBKP8CDPAccountClient@@AEXAAVCAr@@PAEK@Z@std@@@4@$0A@@std@@@std@@KAAAU?$pair@$$CBKP8CDPAccountClient@@AEXAAVCAr@@PAEK@Z@2@PAU_Node@?$_Tree_nod@V?$_Tmap_traits@KP8CDPAccountClient@@AEXAAVCAr@@PAEK@ZU?$less@K@std@@V?$allocator@U?$pair@$$CBKP8CDPAccountClient@@AEXAAVCAr@@PAEK@Z@std@@@4@$0A@@std@@@2@@Z
_TEXT	SEGMENT PARA USE32 PUBLIC 'CODE'
_TEXT	ENDS
;	COMDAT ?_Lbound@?$_Tree@V?$_Tmap_traits@KP8CDPAccountClient@@AEXAAVCAr@@PAEK@ZU?$less@K@std@@V?$allocator@U?$pair@$$CBKP8CDPAccountClient@@AEXAAVCAr@@PAEK@Z@std@@@4@$0A@@std@@@std@@IBEPAU_Node@?$_Tree_nod@V?$_Tmap_traits@KP8CDPAccountClient@@AEXAAVCAr@@PAEK@ZU?$less@K@std@@V?$allocator@U?$pair@$$CBKP8CDPAccountClient@@AEXAAVCAr@@PAEK@Z@std@@@4@$0A@@std@@@2@ABK@Z
_TEXT	SEGMENT PARA USE32 PUBLIC 'CODE'
_TEXT	ENDS
;	COMDAT ?_Kfn@?$_Tmap_traits@KP8CDPAccountClient@@AEXAAVCAr@@PAEK@ZU?$less@K@std@@V?$allocator@U?$pair@$$CBKP8CDPAccountClient@@AEXAAVCAr@@PAEK@Z@std@@@4@$0A@@std@@SAABKABU?$pair@$$CBKP8CDPAccountClient@@AEXAAVCAr@@PAEK@Z@2@@Z
_TEXT	SEGMENT PARA USE32 PUBLIC 'CODE'
_TEXT	ENDS
;	COMDAT ??0const_iterator@?$_Tree@V?$_Tmap_traits@KP8CDPAccountClient@@AEXAAVCAr@@PAEK@ZU?$less@K@std@@V?$allocator@U?$pair@$$CBKP8CDPAccountClient@@AEXAAVCAr@@PAEK@Z@std@@@4@$0A@@std@@@std@@QAE@PAU_Node@?$_Tree_nod@V?$_Tmap_traits@KP8CDPAccountClient@@AEXAAVCAr@@PAEK@ZU?$less@K@std@@V?$allocator@U?$pair@$$CBKP8CDPAccountClient@@AEXAAVCAr@@PAEK@Z@std@@@4@$0A@@std@@@2@@Z
_TEXT	SEGMENT PARA USE32 PUBLIC 'CODE'
_TEXT	ENDS
;	COMDAT ??Dconst_iterator@?$_Tree@V?$_Tmap_traits@KP8CDPAccountClient@@AEXAAVCAr@@PAEK@ZU?$less@K@std@@V?$allocator@U?$pair@$$CBKP8CDPAccountClient@@AEXAAVCAr@@PAEK@Z@std@@@4@$0A@@std@@@std@@QBEABU?$pair@$$CBKP8CDPAccountClient@@AEXAAVCAr@@PAEK@Z@2@XZ
_TEXT	SEGMENT PARA USE32 PUBLIC 'CODE'
_TEXT	ENDS
;	COMDAT ?max_size@?$allocator@H@std@@QBEIXZ
_TEXT	SEGMENT PARA USE32 PUBLIC 'CODE'
_TEXT	ENDS
;	COMDAT ?_Isnil@?$_Tree@V?$_Tmap_traits@KP8CDPLoginSrvr@@AEXAAVCAr@@KPAEK@ZU?$less@K@std@@V?$allocator@U?$pair@$$CBKP8CDPLoginSrvr@@AEXAAVCAr@@KPAEK@Z@std@@@4@$0A@@std@@@std@@KAAADPAU_Node@?$_Tree_nod@V?$_Tmap_traits@KP8CDPLoginSrvr@@AEXAAVCAr@@KPAEK@ZU?$less@K@std@@V?$allocator@U?$pair@$$CBKP8CDPLoginSrvr@@AEXAAVCAr@@KPAEK@Z@std@@@4@$0A@@std@@@2@@Z
_TEXT	SEGMENT PARA USE32 PUBLIC 'CODE'
_TEXT	ENDS
;	COMDAT ?_Left@?$_Tree@V?$_Tmap_traits@KP8CDPLoginSrvr@@AEXAAVCAr@@KPAEK@ZU?$less@K@std@@V?$allocator@U?$pair@$$CBKP8CDPLoginSrvr@@AEXAAVCAr@@KPAEK@Z@std@@@4@$0A@@std@@@std@@KAAAPAU_Node@?$_Tree_nod@V?$_Tmap_traits@KP8CDPLoginSrvr@@AEXAAVCAr@@KPAEK@ZU?$less@K@std@@V?$allocator@U?$pair@$$CBKP8CDPLoginSrvr@@AEXAAVCAr@@KPAEK@Z@std@@@4@$0A@@std@@@2@PAU342@@Z
_TEXT	SEGMENT PARA USE32 PUBLIC 'CODE'
_TEXT	ENDS
;	COMDAT ?_Right@?$_Tree@V?$_Tmap_traits@KP8CDPLoginSrvr@@AEXAAVCAr@@KPAEK@ZU?$less@K@std@@V?$allocator@U?$pair@$$CBKP8CDPLoginSrvr@@AEXAAVCAr@@KPAEK@Z@std@@@4@$0A@@std@@@std@@KAAAPAU_Node@?$_Tree_nod@V?$_Tmap_traits@KP8CDPLoginSrvr@@AEXAAVCAr@@KPAEK@ZU?$less@K@std@@V?$allocator@U?$pair@$$CBKP8CDPLoginSrvr@@AEXAAVCAr@@KPAEK@Z@std@@@4@$0A@@std@@@2@PAU342@@Z
_TEXT	SEGMENT PARA USE32 PUBLIC 'CODE'
_TEXT	ENDS
;	COMDAT ?_Root@?$_Tree@V?$_Tmap_traits@KP8CDPLoginSrvr@@AEXAAVCAr@@KPAEK@ZU?$less@K@std@@V?$allocator@U?$pair@$$CBKP8CDPLoginSrvr@@AEXAAVCAr@@KPAEK@Z@std@@@4@$0A@@std@@@std@@IBEAAPAU_Node@?$_Tree_nod@V?$_Tmap_traits@KP8CDPLoginSrvr@@AEXAAVCAr@@KPAEK@ZU?$less@K@std@@V?$allocator@U?$pair@$$CBKP8CDPLoginSrvr@@AEXAAVCAr@@KPAEK@Z@std@@@4@$0A@@std@@@2@XZ
_TEXT	SEGMENT PARA USE32 PUBLIC 'CODE'
_TEXT	ENDS
;	COMDAT ?_Isnil@?$_Tree@V?$_Tmap_traits@KP8CDPCoreSrvr@@AEXAAVCAr@@PAEK@ZU?$less@K@std@@V?$allocator@U?$pair@$$CBKP8CDPCoreSrvr@@AEXAAVCAr@@PAEK@Z@std@@@4@$0A@@std@@@std@@KAAADPAU_Node@?$_Tree_nod@V?$_Tmap_traits@KP8CDPCoreSrvr@@AEXAAVCAr@@PAEK@ZU?$less@K@std@@V?$allocator@U?$pair@$$CBKP8CDPCoreSrvr@@AEXAAVCAr@@PAEK@Z@std@@@4@$0A@@std@@@2@@Z
_TEXT	SEGMENT PARA USE32 PUBLIC 'CODE'
_TEXT	ENDS
;	COMDAT ?_Left@?$_Tree@V?$_Tmap_traits@KP8CDPCoreSrvr@@AEXAAVCAr@@PAEK@ZU?$less@K@std@@V?$allocator@U?$pair@$$CBKP8CDPCoreSrvr@@AEXAAVCAr@@PAEK@Z@std@@@4@$0A@@std@@@std@@KAAAPAU_Node@?$_Tree_nod@V?$_Tmap_traits@KP8CDPCoreSrvr@@AEXAAVCAr@@PAEK@ZU?$less@K@std@@V?$allocator@U?$pair@$$CBKP8CDPCoreSrvr@@AEXAAVCAr@@PAEK@Z@std@@@4@$0A@@std@@@2@PAU342@@Z
_TEXT	SEGMENT PARA USE32 PUBLIC 'CODE'
_TEXT	ENDS
;	COMDAT ?_Right@?$_Tree@V?$_Tmap_traits@KP8CDPCoreSrvr@@AEXAAVCAr@@PAEK@ZU?$less@K@std@@V?$allocator@U?$pair@$$CBKP8CDPCoreSrvr@@AEXAAVCAr@@PAEK@Z@std@@@4@$0A@@std@@@std@@KAAAPAU_Node@?$_Tree_nod@V?$_Tmap_traits@KP8CDPCoreSrvr@@AEXAAVCAr@@PAEK@ZU?$less@K@std@@V?$allocator@U?$pair@$$CBKP8CDPCoreSrvr@@AEXAAVCAr@@PAEK@Z@std@@@4@$0A@@std@@@2@PAU342@@Z
_TEXT	SEGMENT PARA USE32 PUBLIC 'CODE'
_TEXT	ENDS
;	COMDAT ?_Root@?$_Tree@V?$_Tmap_traits@KP8CDPCoreSrvr@@AEXAAVCAr@@PAEK@ZU?$less@K@std@@V?$allocator@U?$pair@$$CBKP8CDPCoreSrvr@@AEXAAVCAr@@PAEK@Z@std@@@4@$0A@@std@@@std@@IBEAAPAU_Node@?$_Tree_nod@V?$_Tmap_traits@KP8CDPCoreSrvr@@AEXAAVCAr@@PAEK@ZU?$less@K@std@@V?$allocator@U?$pair@$$CBKP8CDPCoreSrvr@@AEXAAVCAr@@PAEK@Z@std@@@4@$0A@@std@@@2@XZ
_TEXT	SEGMENT PARA USE32 PUBLIC 'CODE'
_TEXT	ENDS
;	COMDAT ?max_size@?$allocator@M@std@@QBEIXZ
_TEXT	SEGMENT PARA USE32 PUBLIC 'CODE'
_TEXT	ENDS
;	COMDAT ?_Isnil@?$_Tree@V?$_Tmap_traits@KP8CDPTrans@@AEXAAVCAr@@KKKPAEK@ZU?$less@K@std@@V?$allocator@U?$pair@$$CBKP8CDPTrans@@AEXAAVCAr@@KKKPAEK@Z@std@@@4@$0A@@std@@@std@@KAAADPAU_Node@?$_Tree_nod@V?$_Tmap_traits@KP8CDPTrans@@AEXAAVCAr@@KKKPAEK@ZU?$less@K@std@@V?$allocator@U?$pair@$$CBKP8CDPTrans@@AEXAAVCAr@@KKKPAEK@Z@std@@@4@$0A@@std@@@2@@Z
_TEXT	SEGMENT PARA USE32 PUBLIC 'CODE'
_TEXT	ENDS
;	COMDAT ?_Left@?$_Tree@V?$_Tmap_traits@KP8CDPTrans@@AEXAAVCAr@@KKKPAEK@ZU?$less@K@std@@V?$allocator@U?$pair@$$CBKP8CDPTrans@@AEXAAVCAr@@KKKPAEK@Z@std@@@4@$0A@@std@@@std@@KAAAPAU_Node@?$_Tree_nod@V?$_Tmap_traits@KP8CDPTrans@@AEXAAVCAr@@KKKPAEK@ZU?$less@K@std@@V?$allocator@U?$pair@$$CBKP8CDPTrans@@AEXAAVCAr@@KKKPAEK@Z@std@@@4@$0A@@std@@@2@PAU342@@Z
_TEXT	SEGMENT PARA USE32 PUBLIC 'CODE'
_TEXT	ENDS
;	COMDAT ?_Right@?$_Tree@V?$_Tmap_traits@KP8CDPTrans@@AEXAAVCAr@@KKKPAEK@ZU?$less@K@std@@V?$allocator@U?$pair@$$CBKP8CDPTrans@@AEXAAVCAr@@KKKPAEK@Z@std@@@4@$0A@@std@@@std@@KAAAPAU_Node@?$_Tree_nod@V?$_Tmap_traits@KP8CDPTrans@@AEXAAVCAr@@KKKPAEK@ZU?$less@K@std@@V?$allocator@U?$pair@$$CBKP8CDPTrans@@AEXAAVCAr@@KKKPAEK@Z@std@@@4@$0A@@std@@@2@PAU342@@Z
_TEXT	SEGMENT PARA USE32 PUBLIC 'CODE'
_TEXT	ENDS
;	COMDAT ?_Root@?$_Tree@V?$_Tmap_traits@KP8CDPTrans@@AEXAAVCAr@@KKKPAEK@ZU?$less@K@std@@V?$allocator@U?$pair@$$CBKP8CDPTrans@@AEXAAVCAr@@KKKPAEK@Z@std@@@4@$0A@@std@@@std@@IBEAAPAU_Node@?$_Tree_nod@V?$_Tmap_traits@KP8CDPTrans@@AEXAAVCAr@@KKKPAEK@ZU?$less@K@std@@V?$allocator@U?$pair@$$CBKP8CDPTrans@@AEXAAVCAr@@KKKPAEK@Z@std@@@4@$0A@@std@@@2@XZ
_TEXT	SEGMENT PARA USE32 PUBLIC 'CODE'
_TEXT	ENDS
;	COMDAT ?_Isnil@?$_Tree@V?$_Tmap_traits@KP8CDPAccountClient@@AEXAAVCAr@@PAEK@ZU?$less@K@std@@V?$allocator@U?$pair@$$CBKP8CDPAccountClient@@AEXAAVCAr@@PAEK@Z@std@@@4@$0A@@std@@@std@@KAAADPAU_Node@?$_Tree_nod@V?$_Tmap_traits@KP8CDPAccountClient@@AEXAAVCAr@@PAEK@ZU?$less@K@std@@V?$allocator@U?$pair@$$CBKP8CDPAccountClient@@AEXAAVCAr@@PAEK@Z@std@@@4@$0A@@std@@@2@@Z
_TEXT	SEGMENT PARA USE32 PUBLIC 'CODE'
_TEXT	ENDS
;	COMDAT ?_Left@?$_Tree@V?$_Tmap_traits@KP8CDPAccountClient@@AEXAAVCAr@@PAEK@ZU?$less@K@std@@V?$allocator@U?$pair@$$CBKP8CDPAccountClient@@AEXAAVCAr@@PAEK@Z@std@@@4@$0A@@std@@@std@@KAAAPAU_Node@?$_Tree_nod@V?$_Tmap_traits@KP8CDPAccountClient@@AEXAAVCAr@@PAEK@ZU?$less@K@std@@V?$allocator@U?$pair@$$CBKP8CDPAccountClient@@AEXAAVCAr@@PAEK@Z@std@@@4@$0A@@std@@@2@PAU342@@Z
_TEXT	SEGMENT PARA USE32 PUBLIC 'CODE'
_TEXT	ENDS
;	COMDAT ?_Right@?$_Tree@V?$_Tmap_traits@KP8CDPAccountClient@@AEXAAVCAr@@PAEK@ZU?$less@K@std@@V?$allocator@U?$pair@$$CBKP8CDPAccountClient@@AEXAAVCAr@@PAEK@Z@std@@@4@$0A@@std@@@std@@KAAAPAU_Node@?$_Tree_nod@V?$_Tmap_traits@KP8CDPAccountClient@@AEXAAVCAr@@PAEK@ZU?$less@K@std@@V?$allocator@U?$pair@$$CBKP8CDPAccountClient@@AEXAAVCAr@@PAEK@Z@std@@@4@$0A@@std@@@2@PAU342@@Z
_TEXT	SEGMENT PARA USE32 PUBLIC 'CODE'
_TEXT	ENDS
;	COMDAT ?_Root@?$_Tree@V?$_Tmap_traits@KP8CDPAccountClient@@AEXAAVCAr@@PAEK@ZU?$less@K@std@@V?$allocator@U?$pair@$$CBKP8CDPAccountClient@@AEXAAVCAr@@PAEK@Z@std@@@4@$0A@@std@@@std@@IBEAAPAU_Node@?$_Tree_nod@V?$_Tmap_traits@KP8CDPAccountClient@@AEXAAVCAr@@PAEK@ZU?$less@K@std@@V?$allocator@U?$pair@$$CBKP8CDPAccountClient@@AEXAAVCAr@@PAEK@Z@std@@@4@$0A@@std@@@2@XZ
_TEXT	SEGMENT PARA USE32 PUBLIC 'CODE'
_TEXT	ENDS
;	COMDAT ?_Parent@?$_Tree@V?$_Tmap_traits@KP8CDPLoginSrvr@@AEXAAVCAr@@KPAEK@ZU?$less@K@std@@V?$allocator@U?$pair@$$CBKP8CDPLoginSrvr@@AEXAAVCAr@@KPAEK@Z@std@@@4@$0A@@std@@@std@@KAAAPAU_Node@?$_Tree_nod@V?$_Tmap_traits@KP8CDPLoginSrvr@@AEXAAVCAr@@KPAEK@ZU?$less@K@std@@V?$allocator@U?$pair@$$CBKP8CDPLoginSrvr@@AEXAAVCAr@@KPAEK@Z@std@@@4@$0A@@std@@@2@PAU342@@Z
_TEXT	SEGMENT PARA USE32 PUBLIC 'CODE'
_TEXT	ENDS
;	COMDAT ?_Parent@?$_Tree@V?$_Tmap_traits@KP8CDPCoreSrvr@@AEXAAVCAr@@PAEK@ZU?$less@K@std@@V?$allocator@U?$pair@$$CBKP8CDPCoreSrvr@@AEXAAVCAr@@PAEK@Z@std@@@4@$0A@@std@@@std@@KAAAPAU_Node@?$_Tree_nod@V?$_Tmap_traits@KP8CDPCoreSrvr@@AEXAAVCAr@@PAEK@ZU?$less@K@std@@V?$allocator@U?$pair@$$CBKP8CDPCoreSrvr@@AEXAAVCAr@@PAEK@Z@std@@@4@$0A@@std@@@2@PAU342@@Z
_TEXT	SEGMENT PARA USE32 PUBLIC 'CODE'
_TEXT	ENDS
;	COMDAT ?_Parent@?$_Tree@V?$_Tmap_traits@KP8CDPTrans@@AEXAAVCAr@@KKKPAEK@ZU?$less@K@std@@V?$allocator@U?$pair@$$CBKP8CDPTrans@@AEXAAVCAr@@KKKPAEK@Z@std@@@4@$0A@@std@@@std@@KAAAPAU_Node@?$_Tree_nod@V?$_Tmap_traits@KP8CDPTrans@@AEXAAVCAr@@KKKPAEK@ZU?$less@K@std@@V?$allocator@U?$pair@$$CBKP8CDPTrans@@AEXAAVCAr@@KKKPAEK@Z@std@@@4@$0A@@std@@@2@PAU342@@Z
_TEXT	SEGMENT PARA USE32 PUBLIC 'CODE'
_TEXT	ENDS
;	COMDAT ?_Parent@?$_Tree@V?$_Tmap_traits@KP8CDPAccountClient@@AEXAAVCAr@@PAEK@ZU?$less@K@std@@V?$allocator@U?$pair@$$CBKP8CDPAccountClient@@AEXAAVCAr@@PAEK@Z@std@@@4@$0A@@std@@@std@@KAAAPAU_Node@?$_Tree_nod@V?$_Tmap_traits@KP8CDPAccountClient@@AEXAAVCAr@@PAEK@ZU?$less@K@std@@V?$allocator@U?$pair@$$CBKP8CDPAccountClient@@AEXAAVCAr@@PAEK@Z@std@@@4@$0A@@std@@@2@PAU342@@Z
_TEXT	SEGMENT PARA USE32 PUBLIC 'CODE'
_TEXT	ENDS
;	COMDAT ?Copy@?$CItemContainer@VCItemElem@@@@QAEXAAV1@@Z
_TEXT	SEGMENT PARA USE32 PUBLIC 'CODE'
_TEXT	ENDS
;	COMDAT ??$_Iter_cat@Viterator@?$_Tree@V?$_Tmap_traits@KU_Friend@@U?$less@K@std@@V?$allocator@U?$pair@$$CBKU_Friend@@@std@@@3@$0A@@std@@@std@@@std@@YA?AUbidirectional_iterator_tag@0@ABViterator@?$_Tree@V?$_Tmap_traits@KU_Friend@@U?$less@K@std@@V?$allocator@U?$pair@$$CBKU_Friend@@@std@@@3@$0A@@std@@@0@@Z
_TEXT	SEGMENT PARA USE32 PUBLIC 'CODE'
_TEXT	ENDS
;	COMDAT ??$_Distance2@Viterator@?$_Tree@V?$_Tmap_traits@KU_Friend@@U?$less@K@std@@V?$allocator@U?$pair@$$CBKU_Friend@@@std@@@3@$0A@@std@@@std@@I@std@@YAXViterator@?$_Tree@V?$_Tmap_traits@KU_Friend@@U?$less@K@std@@V?$allocator@U?$pair@$$CBKU_Friend@@@std@@@3@$0A@@std@@@0@0AAIUbidirectional_iterator_tag@0@@Z
_TEXT	SEGMENT PARA USE32 PUBLIC 'CODE'
_TEXT	ENDS
;	COMDAT ??$_Copy_opt@PAJPAJ@std@@YAPAJPAJ00U_Scalar_ptr_iterator_tag@0@@Z
_TEXT	SEGMENT PARA USE32 PUBLIC 'CODE'
_TEXT	ENDS
;	COMDAT ??$_Uninitialized_copy@PAJPAJV?$allocator@J@std@@@std@@YAPAJPAJ00AAV?$allocator@J@0@@Z
_TEXT	SEGMENT PARA USE32 PUBLIC 'CODE'
_TEXT	ENDS
;	COMDAT ??$_Copy_backward_opt@PAJPAJ@std@@YAPAJPAJ00U_Scalar_ptr_iterator_tag@0@@Z
_TEXT	SEGMENT PARA USE32 PUBLIC 'CODE'
_TEXT	ENDS
;	COMDAT ??$_Ptr_cat@PAUtagDROPITEM@@PAU1@@std@@YA?AU_Nonscalar_ptr_iterator_tag@0@AAPAUtagDROPITEM@@0@Z
_TEXT	SEGMENT PARA USE32 PUBLIC 'CODE'
_TEXT	ENDS
;	COMDAT ??$_Destroy_range@UtagDROPITEM@@V?$allocator@UtagDROPITEM@@@std@@@std@@YAXPAUtagDROPITEM@@0AAV?$allocator@UtagDROPITEM@@@0@U_Nonscalar_ptr_iterator_tag@0@@Z
_TEXT	SEGMENT PARA USE32 PUBLIC 'CODE'
_TEXT	ENDS
;	COMDAT ??$_Destroy_range@KV?$allocator@K@std@@@std@@YAXPAK0AAV?$allocator@K@0@U_Scalar_ptr_iterator_tag@0@@Z
_TEXT	SEGMENT PARA USE32 PUBLIC 'CODE'
_TEXT	ENDS
;	COMDAT ??$_Destroy_range@JV?$allocator@J@std@@@std@@YAXPAJ0AAV?$allocator@J@0@U_Scalar_ptr_iterator_tag@0@@Z
_TEXT	SEGMENT PARA USE32 PUBLIC 'CODE'
_TEXT	ENDS
;	COMDAT ??$_Uninit_fill_n@JIJ@std@@YAXPAJIABJAAV?$allocator@J@0@U_Scalar_ptr_iterator_tag@0@@Z
_TEXT	SEGMENT PARA USE32 PUBLIC 'CODE'
_TEXT	ENDS
;	COMDAT ??$throw_exception@Vbad_weak_ptr@boost@@@boost@@YAXABVbad_weak_ptr@0@@Z
_TEXT	SEGMENT PARA USE32 PUBLIC 'CODE'
_TEXT	ENDS
;	COMDAT ??$_Allocate@H@std@@YAPAHIPAH@Z
_TEXT	SEGMENT PARA USE32 PUBLIC 'CODE'
_TEXT	ENDS
;	COMDAT ??$_Destroy_range@MV?$allocator@M@std@@@std@@YAXPAM0AAV?$allocator@M@0@@Z
_TEXT	SEGMENT PARA USE32 PUBLIC 'CODE'
_TEXT	ENDS
;	COMDAT ??$_Allocate@M@std@@YAPAMIPAM@Z
_TEXT	SEGMENT PARA USE32 PUBLIC 'CODE'
_TEXT	ENDS
;	COMDAT ??$_Destroy_range@HV?$allocator@H@std@@@std@@YAXPAH0AAV?$allocator@H@0@@Z
_TEXT	SEGMENT PARA USE32 PUBLIC 'CODE'
_TEXT	ENDS
;	COMDAT ??0bad_weak_ptr@boost@@QAE@ABV01@@Z
_TEXT	SEGMENT PARA USE32 PUBLIC 'CODE'
_TEXT	ENDS
;	COMDAT ?destroy@?$allocator@UtagDROPITEM@@@std@@QAEXPAUtagDROPITEM@@@Z
_TEXT	SEGMENT PARA USE32 PUBLIC 'CODE'
_TEXT	ENDS
;	COMDAT ??$_Uninit_copy@JJ@std@@YAPAJPAJ00AAV?$allocator@J@0@U_Scalar_ptr_iterator_tag@0@@Z
_TEXT	SEGMENT PARA USE32 PUBLIC 'CODE'
_TEXT	ENDS
;	COMDAT ??$fill_n@PAJIJ@std@@YAXPAJIABJ@Z
_TEXT	SEGMENT PARA USE32 PUBLIC 'CODE'
_TEXT	ENDS
;	COMDAT ??$_Destroy_range@MV?$allocator@M@std@@@std@@YAXPAM0AAV?$allocator@M@0@U_Scalar_ptr_iterator_tag@0@@Z
_TEXT	SEGMENT PARA USE32 PUBLIC 'CODE'
_TEXT	ENDS
;	COMDAT ??$_Destroy_range@HV?$allocator@H@std@@@std@@YAXPAH0AAV?$allocator@H@0@U_Scalar_ptr_iterator_tag@0@@Z
_TEXT	SEGMENT PARA USE32 PUBLIC 'CODE'
_TEXT	ENDS
;	COMDAT ??$_Destroy@UtagDROPITEM@@@std@@YAXPAUtagDROPITEM@@@Z
_TEXT	SEGMENT PARA USE32 PUBLIC 'CODE'
_TEXT	ENDS
;	COMDAT ?_Ptr_cat@std@@YA?AU_Scalar_ptr_iterator_tag@1@PAH0@Z
_TEXT	SEGMENT PARA USE32 PUBLIC 'CODE'
_TEXT	ENDS
;	COMDAT ?_Ptr_cat@std@@YA?AU_Scalar_ptr_iterator_tag@1@PAM0@Z
_TEXT	SEGMENT PARA USE32 PUBLIC 'CODE'
_TEXT	ENDS
;	COMDAT __CTA2?AVbad_weak_ptr@boost@@
xdata$x	SEGMENT DWORD USE32 PUBLIC 'CONST'
xdata$x	ENDS
;	COMDAT __CT??_R0?AVexception@@@8??0exception@@QAE@ABV0@@Z12
xdata$x	SEGMENT DWORD USE32 PUBLIC 'CONST'
xdata$x	ENDS
;	COMDAT ??_R0?AVexception@@@8
_DATA	SEGMENT DWORD USE32 PUBLIC 'DATA'
_DATA	ENDS
;	COMDAT __CT??_R0?AVbad_weak_ptr@boost@@@8??0bad_weak_ptr@boost@@QAE@ABV01@@Z12
xdata$x	SEGMENT DWORD USE32 PUBLIC 'CONST'
xdata$x	ENDS
;	COMDAT ??_R0?AVbad_weak_ptr@boost@@@8
_DATA	SEGMENT DWORD USE32 PUBLIC 'DATA'
_DATA	ENDS
;	COMDAT __TI2?AVbad_weak_ptr@boost@@
xdata$x	SEGMENT DWORD USE32 PUBLIC 'CONST'
xdata$x	ENDS
;	COMDAT ?_Ptr_cat@std@@YA?AU_Scalar_ptr_iterator_tag@1@PAJ0@Z
_TEXT	SEGMENT PARA USE32 PUBLIC 'CODE'
_TEXT	ENDS
;	COMDAT ??9const_iterator@?$_Tree@V?$_Tmap_traits@KU_Friend@@U?$less@K@std@@V?$allocator@U?$pair@$$CBKU_Friend@@@std@@@3@$0A@@std@@@std@@QBE_NABV012@@Z
_TEXT	SEGMENT PARA USE32 PUBLIC 'CODE'
_TEXT	ENDS
;	COMDAT ??8const_iterator@?$_Tree@V?$_Tmap_traits@KU_Friend@@U?$less@K@std@@V?$allocator@U?$pair@$$CBKU_Friend@@@std@@@3@$0A@@std@@@std@@QBE_NABV012@@Z
_TEXT	SEGMENT PARA USE32 PUBLIC 'CODE'
_TEXT	ENDS
;	COMDAT ??Eiterator@?$_Tree@V?$_Tmap_traits@KU_Friend@@U?$less@K@std@@V?$allocator@U?$pair@$$CBKU_Friend@@@std@@@3@$0A@@std@@@std@@QAEAAV012@XZ
_TEXT	SEGMENT PARA USE32 PUBLIC 'CODE'
_TEXT	ENDS
;	COMDAT ??Econst_iterator@?$_Tree@V?$_Tmap_traits@KU_Friend@@U?$less@K@std@@V?$allocator@U?$pair@$$CBKU_Friend@@@std@@@3@$0A@@std@@@std@@QAEAAV012@XZ
_TEXT	SEGMENT PARA USE32 PUBLIC 'CODE'
_TEXT	ENDS
;	COMDAT ?_Inc@const_iterator@?$_Tree@V?$_Tmap_traits@KU_Friend@@U?$less@K@std@@V?$allocator@U?$pair@$$CBKU_Friend@@@std@@@3@$0A@@std@@@std@@QAEXXZ
_TEXT	SEGMENT PARA USE32 PUBLIC 'CODE'
_TEXT	ENDS
;	COMDAT ?_Min@?$_Tree@V?$_Tmap_traits@KU_Friend@@U?$less@K@std@@V?$allocator@U?$pair@$$CBKU_Friend@@@std@@@3@$0A@@std@@@std@@KAPAU_Node@?$_Tree_nod@V?$_Tmap_traits@KU_Friend@@U?$less@K@std@@V?$allocator@U?$pair@$$CBKU_Friend@@@std@@@3@$0A@@std@@@2@PAU342@@Z
_TEXT	SEGMENT PARA USE32 PUBLIC 'CODE'
_TEXT	ENDS
;	COMDAT ?_Left@?$_Tree@V?$_Tmap_traits@KU_Friend@@U?$less@K@std@@V?$allocator@U?$pair@$$CBKU_Friend@@@std@@@3@$0A@@std@@@std@@KAAAPAU_Node@?$_Tree_nod@V?$_Tmap_traits@KU_Friend@@U?$less@K@std@@V?$allocator@U?$pair@$$CBKU_Friend@@@std@@@3@$0A@@std@@@2@PAU342@@Z
_TEXT	SEGMENT PARA USE32 PUBLIC 'CODE'
_TEXT	ENDS
;	COMDAT ?_Isnil@?$_Tree@V?$_Tmap_traits@KU_Friend@@U?$less@K@std@@V?$allocator@U?$pair@$$CBKU_Friend@@@std@@@3@$0A@@std@@@std@@KAAADPAU_Node@?$_Tree_nod@V?$_Tmap_traits@KU_Friend@@U?$less@K@std@@V?$allocator@U?$pair@$$CBKU_Friend@@@std@@@3@$0A@@std@@@2@@Z
_TEXT	SEGMENT PARA USE32 PUBLIC 'CODE'
_TEXT	ENDS
;	COMDAT ?_Parent@?$_Tree@V?$_Tmap_traits@KU_Friend@@U?$less@K@std@@V?$allocator@U?$pair@$$CBKU_Friend@@@std@@@3@$0A@@std@@@std@@KAAAPAU_Node@?$_Tree_nod@V?$_Tmap_traits@KU_Friend@@U?$less@K@std@@V?$allocator@U?$pair@$$CBKU_Friend@@@std@@@3@$0A@@std@@@2@PAU342@@Z
_TEXT	SEGMENT PARA USE32 PUBLIC 'CODE'
_TEXT	ENDS
;	COMDAT ?_Right@?$_Tree@V?$_Tmap_traits@KU_Friend@@U?$less@K@std@@V?$allocator@U?$pair@$$CBKU_Friend@@@std@@@3@$0A@@std@@@std@@KAAAPAU_Node@?$_Tree_nod@V?$_Tmap_traits@KU_Friend@@U?$less@K@std@@V?$allocator@U?$pair@$$CBKU_Friend@@@std@@@3@$0A@@std@@@2@PAU342@@Z
_TEXT	SEGMENT PARA USE32 PUBLIC 'CODE'
_TEXT	ENDS
;	COMDAT ?IsEmpty@CItemBase@@QAEHXZ
_TEXT	SEGMENT PARA USE32 PUBLIC 'CODE'
_TEXT	ENDS
;	COMDAT ?_Psave@?$_Facetptr@V?$ctype@G@std@@@std@@2PBVfacet@locale@2@B
_DATA	SEGMENT DWORD USE32 PUBLIC 'DATA'
_DATA	ENDS
;	COMDAT ?_Psave@?$_Facetptr@V?$ctype@D@std@@@std@@2PBVfacet@locale@2@B
_DATA	SEGMENT DWORD USE32 PUBLIC 'DATA'
_DATA	ENDS
;	COMDAT __TI3?AVlength_error@std@@
xdata$x	SEGMENT DWORD USE32 PUBLIC 'CONST'
xdata$x	ENDS
;	COMDAT ??1length_error@std@@UAE@XZ
_TEXT	SEGMENT PARA USE32 PUBLIC 'CODE'
_TEXT	ENDS
;	COMDAT ??_7length_error@std@@6B@
CONST	SEGMENT DWORD USE32 PUBLIC 'CONST'
CONST	ENDS
;	COMDAT ??_Glength_error@std@@UAEPAXI@Z
_TEXT	SEGMENT PARA USE32 PUBLIC 'CODE'
_TEXT	ENDS
;	COMDAT ?what@logic_error@std@@UBEPBDXZ
_TEXT	SEGMENT PARA USE32 PUBLIC 'CODE'
_TEXT	ENDS
;	COMDAT ?c_str@?$basic_string@DU?$char_traits@D@std@@V?$allocator@D@2@@std@@QBEPBDXZ
_TEXT	SEGMENT PARA USE32 PUBLIC 'CODE'
_TEXT	ENDS
;	COMDAT ??1logic_error@std@@UAE@XZ
_TEXT	SEGMENT PARA USE32 PUBLIC 'CODE'
_TEXT	ENDS
;	COMDAT ??_7logic_error@std@@6B@
CONST	SEGMENT DWORD USE32 PUBLIC 'CONST'
CONST	ENDS
;	COMDAT ??_Glogic_error@std@@UAEPAXI@Z
_TEXT	SEGMENT PARA USE32 PUBLIC 'CODE'
_TEXT	ENDS
;	COMDAT __CTA3?AVlength_error@std@@
xdata$x	SEGMENT DWORD USE32 PUBLIC 'CONST'
xdata$x	ENDS
;	COMDAT __CT??_R0?AVlength_error@std@@@8??0length_error@std@@QAE@ABV01@@Z40
xdata$x	SEGMENT DWORD USE32 PUBLIC 'CONST'
xdata$x	ENDS
;	COMDAT ??_R0?AVlength_error@std@@@8
_DATA	SEGMENT DWORD USE32 PUBLIC 'DATA'
_DATA	ENDS
;	COMDAT ??0length_error@std@@QAE@ABV01@@Z
_TEXT	SEGMENT PARA USE32 PUBLIC 'CODE'
_TEXT	ENDS
;	COMDAT ??0logic_error@std@@QAE@ABV01@@Z
_TEXT	SEGMENT PARA USE32 PUBLIC 'CODE'
_TEXT	ENDS
;	COMDAT ??0?$basic_string@DU?$char_traits@D@std@@V?$allocator@D@2@@std@@QAE@ABV01@@Z
_TEXT	SEGMENT PARA USE32 PUBLIC 'CODE'
_TEXT	ENDS
;	COMDAT ??0?$_String_val@DV?$allocator@D@std@@@std@@IAE@V?$allocator@D@1@@Z
_TEXT	SEGMENT PARA USE32 PUBLIC 'CODE'
_TEXT	ENDS
;	COMDAT ??0?$allocator@D@std@@QAE@ABV01@@Z
_TEXT	SEGMENT PARA USE32 PUBLIC 'CODE'
_TEXT	ENDS
;	COMDAT ?_Tidy@?$basic_string@DU?$char_traits@D@std@@V?$allocator@D@2@@std@@IAEX_NI@Z
_TEXT	SEGMENT PARA USE32 PUBLIC 'CODE'
_TEXT	ENDS
;	COMDAT ?copy@?$char_traits@D@std@@SAPADPADPBDI@Z
_TEXT	SEGMENT PARA USE32 PUBLIC 'CODE'
_TEXT	ENDS
;	COMDAT ?deallocate@?$allocator@D@std@@QAEXPADI@Z
_TEXT	SEGMENT PARA USE32 PUBLIC 'CODE'
_TEXT	ENDS
;	COMDAT ?_Eos@?$basic_string@DU?$char_traits@D@std@@V?$allocator@D@2@@std@@IAEXI@Z
_TEXT	SEGMENT PARA USE32 PUBLIC 'CODE'
_TEXT	ENDS
;	COMDAT ?assign@?$char_traits@D@std@@SAXAADABD@Z
_TEXT	SEGMENT PARA USE32 PUBLIC 'CODE'
_TEXT	ENDS
;	COMDAT ?_Myptr@?$basic_string@DU?$char_traits@D@std@@V?$allocator@D@2@@std@@QAEPADXZ
_TEXT	SEGMENT PARA USE32 PUBLIC 'CODE'
_TEXT	ENDS
;	COMDAT ?assign@?$basic_string@DU?$char_traits@D@std@@V?$allocator@D@2@@std@@QAEAAV12@ABV12@II@Z
_TEXT	SEGMENT PARA USE32 PUBLIC 'CODE'
_TEXT	ENDS
;	COMDAT ?erase@?$basic_string@DU?$char_traits@D@std@@V?$allocator@D@2@@std@@QAEAAV12@II@Z
_TEXT	SEGMENT PARA USE32 PUBLIC 'CODE'
_TEXT	ENDS
;	COMDAT ?move@?$char_traits@D@std@@SAPADPADPBDI@Z
_TEXT	SEGMENT PARA USE32 PUBLIC 'CODE'
_TEXT	ENDS
;	COMDAT ?_Grow@?$basic_string@DU?$char_traits@D@std@@V?$allocator@D@2@@std@@IAE_NI_N@Z
_TEXT	SEGMENT PARA USE32 PUBLIC 'CODE'
_TEXT	ENDS
;	COMDAT ?max_size@?$basic_string@DU?$char_traits@D@std@@V?$allocator@D@2@@std@@QBEIXZ
_TEXT	SEGMENT PARA USE32 PUBLIC 'CODE'
_TEXT	ENDS
;	COMDAT ?max_size@?$allocator@D@std@@QBEIXZ
_TEXT	SEGMENT PARA USE32 PUBLIC 'CODE'
_TEXT	ENDS
;	COMDAT ?_Copy@?$basic_string@DU?$char_traits@D@std@@V?$allocator@D@2@@std@@IAEXII@Z
_TEXT	SEGMENT PARA USE32 PUBLIC 'CODE'
_TEXT	ENDS
;	COMDAT ?allocate@?$allocator@D@std@@QAEPADI@Z
_TEXT	SEGMENT PARA USE32 PUBLIC 'CODE'
_TEXT	ENDS
;	COMDAT ??$_Allocate@D@std@@YAPADIPAD@Z
_TEXT	SEGMENT PARA USE32 PUBLIC 'CODE'
_TEXT	ENDS
;	COMDAT ?npos@?$basic_string@DU?$char_traits@D@std@@V?$allocator@D@2@@std@@2IB
CONST	SEGMENT DWORD USE32 PUBLIC 'CONST'
CONST	ENDS
;	COMDAT __CT??_R0?AVlogic_error@std@@@8??0logic_error@std@@QAE@ABV01@@Z40
xdata$x	SEGMENT DWORD USE32 PUBLIC 'CONST'
xdata$x	ENDS
;	COMDAT ??_R0?AVlogic_error@std@@@8
_DATA	SEGMENT DWORD USE32 PUBLIC 'DATA'
_DATA	ENDS
;	COMDAT ??1?$basic_string@DU?$char_traits@D@std@@V?$allocator@D@2@@std@@QAE@XZ
_TEXT	SEGMENT PARA USE32 PUBLIC 'CODE'
_TEXT	ENDS
;	COMDAT ??_C@_0BD@OLBABOEK@vector?$DMT?$DO?5too?5long?$AA@
CONST	SEGMENT DWORD USE32 PUBLIC 'CONST'
CONST	ENDS
;	COMDAT ??0?$basic_string@DU?$char_traits@D@std@@V?$allocator@D@2@@std@@QAE@PBD@Z
_TEXT	SEGMENT PARA USE32 PUBLIC 'CODE'
_TEXT	ENDS
;	COMDAT ??0?$allocator@D@std@@QAE@XZ
_TEXT	SEGMENT PARA USE32 PUBLIC 'CODE'
_TEXT	ENDS
;	COMDAT ?assign@?$basic_string@DU?$char_traits@D@std@@V?$allocator@D@2@@std@@QAEAAV12@PBD@Z
_TEXT	SEGMENT PARA USE32 PUBLIC 'CODE'
_TEXT	ENDS
;	COMDAT ?assign@?$basic_string@DU?$char_traits@D@std@@V?$allocator@D@2@@std@@QAEAAV12@PBDI@Z
_TEXT	SEGMENT PARA USE32 PUBLIC 'CODE'
_TEXT	ENDS
;	COMDAT ?_Inside@?$basic_string@DU?$char_traits@D@std@@V?$allocator@D@2@@std@@IAE_NPBD@Z
_TEXT	SEGMENT PARA USE32 PUBLIC 'CODE'
_TEXT	ENDS
;	COMDAT ?length@?$char_traits@D@std@@SAIPBD@Z
_TEXT	SEGMENT PARA USE32 PUBLIC 'CODE'
_TEXT	ENDS
;	COMDAT ??0length_error@std@@QAE@ABV?$basic_string@DU?$char_traits@D@std@@V?$allocator@D@2@@1@@Z
_TEXT	SEGMENT PARA USE32 PUBLIC 'CODE'
_TEXT	ENDS
;	COMDAT ??0logic_error@std@@QAE@ABV?$basic_string@DU?$char_traits@D@std@@V?$allocator@D@2@@1@@Z
_TEXT	SEGMENT PARA USE32 PUBLIC 'CODE'
_TEXT	ENDS
;	COMDAT ?push_back@?$list@PAXV?$allocator@PAX@std@@@std@@QAEXABQAX@Z
_TEXT	SEGMENT PARA USE32 PUBLIC 'CODE'
_TEXT	ENDS
;	COMDAT ?_Insert@?$list@PAXV?$allocator@PAX@std@@@std@@QAEXViterator@12@ABQAX@Z
_TEXT	SEGMENT PARA USE32 PUBLIC 'CODE'
_TEXT	ENDS
;	COMDAT ?_Mynode@const_iterator@?$list@PAXV?$allocator@PAX@std@@@std@@QBEPAU_Node@?$_List_nod@PAXV?$allocator@PAX@std@@@3@XZ
_TEXT	SEGMENT PARA USE32 PUBLIC 'CODE'
_TEXT	ENDS
;	COMDAT ?_Buynode@?$list@PAXV?$allocator@PAX@std@@@std@@IAEPAU_Node@?$_List_nod@PAXV?$allocator@PAX@std@@@2@PAU342@0ABQAX@Z
_TEXT	SEGMENT PARA USE32 PUBLIC 'CODE'
_TEXT	ENDS
;	COMDAT ?allocate@?$allocator@U_Node@?$_List_nod@PAXV?$allocator@PAX@std@@@std@@@std@@QAEPAU_Node@?$_List_nod@PAXV?$allocator@PAX@std@@@2@I@Z
_TEXT	SEGMENT PARA USE32 PUBLIC 'CODE'
_TEXT	ENDS
;	COMDAT ??$_Allocate@U_Node@?$_List_nod@PAXV?$allocator@PAX@std@@@std@@@std@@YAPAU_Node@?$_List_nod@PAXV?$allocator@PAX@std@@@0@IPAU120@@Z
_TEXT	SEGMENT PARA USE32 PUBLIC 'CODE'
_TEXT	ENDS
;	COMDAT ??2@YAPAXIPAX@Z
_TEXT	SEGMENT PARA USE32 PUBLIC 'CODE'
_TEXT	ENDS
;	COMDAT ??3@YAXPAX0@Z
_TEXT	SEGMENT PARA USE32 PUBLIC 'CODE'
_TEXT	ENDS
;	COMDAT ??0_Node@?$_List_nod@PAXV?$allocator@PAX@std@@@std@@QAE@PAU012@0ABQAX@Z
_TEXT	SEGMENT PARA USE32 PUBLIC 'CODE'
_TEXT	ENDS
;	COMDAT ?deallocate@?$allocator@U_Node@?$_List_nod@PAXV?$allocator@PAX@std@@@std@@@std@@QAEXPAU_Node@?$_List_nod@PAXV?$allocator@PAX@std@@@2@I@Z
_TEXT	SEGMENT PARA USE32 PUBLIC 'CODE'
_TEXT	ENDS
;	COMDAT ?_Incsize@?$list@PAXV?$allocator@PAX@std@@@std@@IAEXI@Z
_TEXT	SEGMENT PARA USE32 PUBLIC 'CODE'
_TEXT	ENDS
;	COMDAT ?max_size@?$list@PAXV?$allocator@PAX@std@@@std@@QBEIXZ
_TEXT	SEGMENT PARA USE32 PUBLIC 'CODE'
_TEXT	ENDS
;	COMDAT ?max_size@?$allocator@PAX@std@@QBEIXZ
_TEXT	SEGMENT PARA USE32 PUBLIC 'CODE'
_TEXT	ENDS
;	COMDAT ??_C@_0BB@MOGOBHAF@list?$DMT?$DO?5too?5long?$AA@
CONST	SEGMENT DWORD USE32 PUBLIC 'CONST'
CONST	ENDS
;	COMDAT ?_Nextnode@?$list@PAXV?$allocator@PAX@std@@@std@@KAAAPAU_Node@?$_List_nod@PAXV?$allocator@PAX@std@@@2@PAU342@@Z
_TEXT	SEGMENT PARA USE32 PUBLIC 'CODE'
_TEXT	ENDS
;	COMDAT ?_Prevnode@?$list@PAXV?$allocator@PAX@std@@@std@@KAAAPAU_Node@?$_List_nod@PAXV?$allocator@PAX@std@@@2@PAU342@@Z
_TEXT	SEGMENT PARA USE32 PUBLIC 'CODE'
_TEXT	ENDS
;	COMDAT ?end@?$list@PAXV?$allocator@PAX@std@@@std@@QAE?AViterator@12@XZ
_TEXT	SEGMENT PARA USE32 PUBLIC 'CODE'
_TEXT	ENDS
;	COMDAT ??0iterator@?$list@PAXV?$allocator@PAX@std@@@std@@QAE@PAU_Node@?$_List_nod@PAXV?$allocator@PAX@std@@@2@@Z
_TEXT	SEGMENT PARA USE32 PUBLIC 'CODE'
_TEXT	ENDS
;	COMDAT ??0const_iterator@?$list@PAXV?$allocator@PAX@std@@@std@@QAE@PAU_Node@?$_List_nod@PAXV?$allocator@PAX@std@@@2@@Z
_TEXT	SEGMENT PARA USE32 PUBLIC 'CODE'
_TEXT	ENDS
;	COMDAT ??_C@_09PKKCPLIP@bad?5alloc?$AA@
CONST	SEGMENT DWORD USE32 PUBLIC 'CONST'
CONST	ENDS
;	COMDAT ?compare@?$char_traits@D@std@@SAHPBD0I@Z
_TEXT	SEGMENT PARA USE32 PUBLIC 'CODE'
_TEXT	ENDS
;	COMDAT ??R?$less@K@std@@QBE_NABK0@Z
_TEXT	SEGMENT PARA USE32 PUBLIC 'CODE'
_TEXT	ENDS
;	COMDAT ?_Myptr@?$basic_string@DU?$char_traits@D@std@@V?$allocator@D@2@@std@@QBEPBDXZ
_TEXT	SEGMENT PARA USE32 PUBLIC 'CODE'
_TEXT	ENDS
;	COMDAT ?size@?$basic_string@DU?$char_traits@D@std@@V?$allocator@D@2@@std@@QBEIXZ
_TEXT	SEGMENT PARA USE32 PUBLIC 'CODE'
_TEXT	ENDS
;	COMDAT ?ReleaseBufferSetLength@?$CSimpleStringT@D$0A@@ATL@@QAEXH@Z
_TEXT	SEGMENT PARA USE32 PUBLIC 'CODE'
_TEXT	ENDS
;	COMDAT ?SetLength@?$CSimpleStringT@D$0A@@ATL@@AAEXH@Z
_TEXT	SEGMENT PARA USE32 PUBLIC 'CODE'
_TEXT	ENDS
;	COMDAT ?AtlThrow@ATL@@YGXJ@Z
_TEXT	SEGMENT PARA USE32 PUBLIC 'CODE'
_TEXT	ENDS
;	COMDAT ?GetData@?$CSimpleStringT@D$0A@@ATL@@ABEPAUCStringData@2@XZ
_TEXT	SEGMENT PARA USE32 PUBLIC 'CODE'
_TEXT	ENDS
;	COMDAT ?GetBuffer@?$CSimpleStringT@D$0A@@ATL@@QAEPADH@Z
_TEXT	SEGMENT PARA USE32 PUBLIC 'CODE'
_TEXT	ENDS
;	COMDAT ?PrepareWrite@?$CSimpleStringT@D$0A@@ATL@@AAEPADH@Z
_TEXT	SEGMENT PARA USE32 PUBLIC 'CODE'
_TEXT	ENDS
;	COMDAT ?PrepareWrite2@?$CSimpleStringT@D$0A@@ATL@@AAEXH@Z
_TEXT	SEGMENT PARA USE32 PUBLIC 'CODE'
_TEXT	ENDS
;	COMDAT ?IsShared@CStringData@ATL@@QBE_NXZ
_TEXT	SEGMENT PARA USE32 PUBLIC 'CODE'
_TEXT	ENDS
;	COMDAT ?Fork@?$CSimpleStringT@D$0A@@ATL@@AAEXH@Z
_TEXT	SEGMENT PARA USE32 PUBLIC 'CODE'
_TEXT	ENDS
;	COMDAT ?ThrowMemoryException@?$CSimpleStringT@D$0A@@ATL@@KAXXZ
_TEXT	SEGMENT PARA USE32 PUBLIC 'CODE'
_TEXT	ENDS
;	COMDAT ?CopyChars@?$CSimpleStringT@D$0A@@ATL@@SAXPADPBDH@Z
_TEXT	SEGMENT PARA USE32 PUBLIC 'CODE'
_TEXT	ENDS
;	COMDAT ?data@CStringData@ATL@@QAEPAXXZ
_TEXT	SEGMENT PARA USE32 PUBLIC 'CODE'
_TEXT	ENDS
;	COMDAT ?Release@CStringData@ATL@@QAEXXZ
_TEXT	SEGMENT PARA USE32 PUBLIC 'CODE'
_TEXT	ENDS
;	COMDAT ?Attach@?$CSimpleStringT@D$0A@@ATL@@AAEXPAUCStringData@2@@Z
_TEXT	SEGMENT PARA USE32 PUBLIC 'CODE'
_TEXT	ENDS
;	COMDAT ?Reallocate@?$CSimpleStringT@D$0A@@ATL@@AAEXH@Z
_TEXT	SEGMENT PARA USE32 PUBLIC 'CODE'
_TEXT	ENDS
;	COMDAT ?StringFindString@?$ChTraitsCRT@D@ATL@@SAPBDPBD0@Z
_TEXT	SEGMENT PARA USE32 PUBLIC 'CODE'
_TEXT	ENDS
;	COMDAT ?GetLength@?$CSimpleStringT@D$0A@@ATL@@QBEHXZ
_TEXT	SEGMENT PARA USE32 PUBLIC 'CODE'
_TEXT	ENDS
;	COMDAT ?GetString@?$CSimpleStringT@D$0A@@ATL@@QBEPBDXZ
_TEXT	SEGMENT PARA USE32 PUBLIC 'CODE'
_TEXT	ENDS
;	COMDAT ?Unlock@CMover@@QAEXXZ
_TEXT	SEGMENT PARA USE32 PUBLIC 'CODE'
_TEXT	ENDS
;	COMDAT ?Lock@CMover@@QAEXXZ
_TEXT	SEGMENT PARA USE32 PUBLIC 'CODE'
_TEXT	ENDS
;	COMDAT ??3CMover@@SAXPAX@Z
_TEXT	SEGMENT PARA USE32 PUBLIC 'CODE'
_TEXT	ENDS
;	COMDAT ?Free@?$MemPooler@VCMover@@@@QAEHPAVCMover@@@Z
_TEXT	SEGMENT PARA USE32 PUBLIC 'CODE'
_TEXT	ENDS
;	COMDAT ??2CMover@@SAPAXI@Z
_TEXT	SEGMENT PARA USE32 PUBLIC 'CODE'
_TEXT	ENDS
;	COMDAT ?Alloc@?$MemPooler@VCMover@@@@QAEPAVCMover@@XZ
_TEXT	SEGMENT PARA USE32 PUBLIC 'CODE'
_TEXT	ENDS
;	COMDAT ?Create@?$MemPooler@VCMover@@@@IAEXXZ
_TEXT	SEGMENT PARA USE32 PUBLIC 'CODE'
_TEXT	ENDS
;	COMDAT ?SetCampusId@CMover@@QAEXK@Z
_TEXT	SEGMENT PARA USE32 PUBLIC 'CODE'
_TEXT	ENDS
;	COMDAT ?SetCampusPoint@CMover@@QAEXH@Z
_TEXT	SEGMENT PARA USE32 PUBLIC 'CODE'
_TEXT	ENDS
;	COMDAT ?SetLayer@CObj@@QAEXH@Z
_TEXT	SEGMENT PARA USE32 PUBLIC 'CODE'
_TEXT	ENDS
;	COMDAT ?SetPetId@CMover@@QAEXK@Z
_TEXT	SEGMENT PARA USE32 PUBLIC 'CODE'
_TEXT	ENDS
;	COMDAT ?SetState@CRTMessenger@@QAEXK@Z
_TEXT	SEGMENT PARA USE32 PUBLIC 'CODE'
_TEXT	ENDS
;	COMDAT ??5CAr@@QAEAAV0@AAE@Z
_TEXT	SEGMENT PARA USE32 PUBLIC 'CODE'
_TEXT	ENDS
;	COMDAT ?Send@CDPMng@@QAEHPAXKK@Z
_TEXT	SEGMENT PARA USE32 PUBLIC 'CODE'
_TEXT	ENDS
;	COMDAT ??6@YAAAVCAr@@AAV0@_J@Z
_TEXT	SEGMENT PARA USE32 PUBLIC 'CODE'
_TEXT	ENDS
;	COMDAT ?GetLayer@CObj@@QAEHXZ
_TEXT	SEGMENT PARA USE32 PUBLIC 'CODE'
_TEXT	ENDS
;	COMDAT ??6@YAAAVCAr@@AAV0@UtagPLAY_ACCOUNT@@@Z
_TEXT	SEGMENT PARA USE32 PUBLIC 'CODE'
_TEXT	ENDS
;	COMDAT ??4?$CStringT@DV?$StrTraitMFC@DV?$ChTraitsCRT@D@ATL@@@@@ATL@@QAEAAV01@PBD@Z
_TEXT	SEGMENT PARA USE32 PUBLIC 'CODE'
_TEXT	ENDS
;	COMDAT ??4?$CSimpleStringT@D$0A@@ATL@@QAEAAV01@PBD@Z
_TEXT	SEGMENT PARA USE32 PUBLIC 'CODE'
_TEXT	ENDS
;	COMDAT ?SetString@?$CSimpleStringT@D$0A@@ATL@@QAEXPBD@Z
_TEXT	SEGMENT PARA USE32 PUBLIC 'CODE'
_TEXT	ENDS
;	COMDAT ?SetString@?$CSimpleStringT@D$0A@@ATL@@QAEXPBDH@Z
_TEXT	SEGMENT PARA USE32 PUBLIC 'CODE'
_TEXT	ENDS
;	COMDAT ?Empty@?$CSimpleStringT@D$0A@@ATL@@QAEXXZ
_TEXT	SEGMENT PARA USE32 PUBLIC 'CODE'
_TEXT	ENDS
;	COMDAT ?IsLocked@CStringData@ATL@@QBE_NXZ
_TEXT	SEGMENT PARA USE32 PUBLIC 'CODE'
_TEXT	ENDS
;	COMDAT ?CopyCharsOverlapped@?$CSimpleStringT@D$0A@@ATL@@SAXPADPBDH@Z
_TEXT	SEGMENT PARA USE32 PUBLIC 'CODE'
_TEXT	ENDS
;	COMDAT ?StringLength@?$CSimpleStringT@D$0A@@ATL@@SAHPBD@Z
_TEXT	SEGMENT PARA USE32 PUBLIC 'CODE'
_TEXT	ENDS
;	COMDAT ??B?$CSimpleStringT@D$0A@@ATL@@QBEPBDXZ
_TEXT	SEGMENT PARA USE32 PUBLIC 'CODE'
_TEXT	ENDS
;	COMDAT ??5@YAAAVCAr@@AAV0@AAUD3DXVECTOR3@@@Z
_TEXT	SEGMENT PARA USE32 PUBLIC 'CODE'
_TEXT	ENDS
;	COMDAT ??5CAr@@QAEAAV0@AAM@Z
_TEXT	SEGMENT PARA USE32 PUBLIC 'CODE'
_TEXT	ENDS
;	COMDAT ??5CAr@@QAEAAV0@AAJ@Z
_TEXT	SEGMENT PARA USE32 PUBLIC 'CODE'
_TEXT	ENDS
;	COMDAT ?time_null@@YAJXZ
_TEXT	SEGMENT PARA USE32 PUBLIC 'CODE'
_TEXT	ENDS
;	COMDAT ??6CAr@@QAEAAV0@J@Z
_TEXT	SEGMENT PARA USE32 PUBLIC 'CODE'
_TEXT	ENDS
;	COMDAT ??6@YAAAVCAr@@AAV0@UD3DXVECTOR3@@@Z
_TEXT	SEGMENT PARA USE32 PUBLIC 'CODE'
_TEXT	ENDS
;	COMDAT ??6CAr@@QAEAAV0@M@Z
_TEXT	SEGMENT PARA USE32 PUBLIC 'CODE'
_TEXT	ENDS
;	COMDAT ?GetTime@CTime@ATL@@QBE_JXZ
_TEXT	SEGMENT PARA USE32 PUBLIC 'CODE'
_TEXT	ENDS
;	COMDAT ??0CTimeSpan@ATL@@QAE@JHHH@Z
_TEXT	SEGMENT PARA USE32 PUBLIC 'CODE'
_TEXT	ENDS
;	COMDAT ??HCTime@ATL@@QBE?AV01@VCTimeSpan@1@@Z
_TEXT	SEGMENT PARA USE32 PUBLIC 'CODE'
_TEXT	ENDS
;	COMDAT ??0CTime@ATL@@QAE@_J@Z
_TEXT	SEGMENT PARA USE32 PUBLIC 'CODE'
_TEXT	ENDS
;	COMDAT ?GetTimeSpan@CTimeSpan@ATL@@QBE_JXZ
_TEXT	SEGMENT PARA USE32 PUBLIC 'CODE'
_TEXT	ENDS
;	COMDAT ?GetItemProp@CProject@@QAEPAUItemProp@@H@Z
_TEXT	SEGMENT PARA USE32 PUBLIC 'CODE'
_TEXT	ENDS
;	COMDAT ?GetAt@?$CFixedArray@UItemProp@@@@QAEPAUItemProp@@K@Z
_TEXT	SEGMENT PARA USE32 PUBLIC 'CODE'
_TEXT	ENDS
;	COMDAT ??5CAr@@QAEAAV0@AAH@Z
_TEXT	SEGMENT PARA USE32 PUBLIC 'CODE'
_TEXT	ENDS
;	COMDAT ??6CAr@@QAEAAV0@H@Z
_TEXT	SEGMENT PARA USE32 PUBLIC 'CODE'
_TEXT	ENDS
;	COMDAT ??_7CLordSkillComponentExecutable@@6B@
CONST	SEGMENT DWORD USE32 PUBLIC 'CONST'
CONST	ENDS
;	COMDAT ??_7bad_weak_ptr@boost@@6B@
CONST	SEGMENT DWORD USE32 PUBLIC 'CONST'
CONST	ENDS
;	COMDAT ??_7sp_counted_base@detail@boost@@6B@
CONST	SEGMENT DWORD USE32 PUBLIC 'CONST'
CONST	ENDS
;	COMDAT ??5CAr@@QAEAAV0@AAK@Z
_TEXT	SEGMENT PARA USE32 PUBLIC 'CODE'
_TEXT	ENDS
;	COMDAT ??6CAr@@QAEAAV0@K@Z
_TEXT	SEGMENT PARA USE32 PUBLIC 'CODE'
_TEXT	ENDS
;	COMDAT ?IsStoring@CAr@@QBEHXZ
_TEXT	SEGMENT PARA USE32 PUBLIC 'CODE'
_TEXT	ENDS
;	COMDAT ?Leave@CMclCritSec@@QAEXXZ
_TEXT	SEGMENT PARA USE32 PUBLIC 'CODE'
_TEXT	ENDS
;	COMDAT ?Enter@CMclCritSec@@QAEXXZ
_TEXT	SEGMENT PARA USE32 PUBLIC 'CODE'
_TEXT	ENDS
;	COMDAT ?GetTickCount@CTime@ATL@@SG?AV12@XZ
_TEXT	SEGMENT PARA USE32 PUBLIC 'CODE'
_TEXT	ENDS
;	COMDAT ??0CTime@ATL@@QAE@XZ
_TEXT	SEGMENT PARA USE32 PUBLIC 'CODE'
_TEXT	ENDS
;	COMDAT ??1CMclCritSec@@UAE@XZ
_TEXT	SEGMENT PARA USE32 PUBLIC 'CODE'
_TEXT	ENDS
;	COMDAT ??_7CMclCritSec@@6B@
CONST	SEGMENT DWORD USE32 PUBLIC 'CONST'
CONST	ENDS
;	COMDAT ??_GCMclCritSec@@UAEPAXI@Z
_TEXT	SEGMENT PARA USE32 PUBLIC 'CODE'
_TEXT	ENDS
;	COMDAT ??0CMclCritSec@@QAE@XZ
_TEXT	SEGMENT PARA USE32 PUBLIC 'CODE'
_TEXT	ENDS
;	COMDAT ??0D3DXVECTOR3@@QAE@MMM@Z
_TEXT	SEGMENT PARA USE32 PUBLIC 'CODE'
_TEXT	ENDS
;	COMDAT ??0D3DXVECTOR3@@QAE@XZ
_TEXT	SEGMENT PARA USE32 PUBLIC 'CODE'
_TEXT	ENDS
sxdata	SEGMENT DWORD USE32 'SXDATA'
sxdata	ENDS
FLAT	GROUP _DATA, CONST, _BSS
	ASSUME	CS: FLAT, DS: FLAT, SS: FLAT
endif

INCLUDELIB LIBCMT
INCLUDELIB OLDNAMES

PUBLIC	??2@YAPAXIPAX@Z					; operator new
; Function compile flags: /Ogty
; File c:\program files\microsoft visual studio .net 2003\vc7\include\new.h
;	COMDAT ??2@YAPAXIPAX@Z
_TEXT	SEGMENT
___formal$ = 8						; size = 4
__P$ = 12						; size = 4
??2@YAPAXIPAX@Z PROC NEAR				; operator new, COMDAT

; 109  :         {return (_P); }

  00000	8b 44 24 08	 mov	 eax, DWORD PTR __P$[esp-4]
  00004	c3		 ret	 0
??2@YAPAXIPAX@Z ENDP					; operator new
_TEXT	ENDS
PUBLIC	??3@YAXPAX0@Z					; operator delete
; Function compile flags: /Ogty
;	COMDAT ??3@YAXPAX0@Z
_TEXT	SEGMENT
___formal$ = 8						; size = 4
___formal$ = 12						; size = 4
??3@YAXPAX0@Z PROC NEAR					; operator delete, COMDAT

; 112  :         {return; }

  00000	c3		 ret	 0
??3@YAXPAX0@Z ENDP					; operator delete
_TEXT	ENDS
PUBLIC	?assign@?$char_traits@D@std@@SAXAADABD@Z	; std::char_traits<char>::assign
; Function compile flags: /Ogty
; File c:\program files\microsoft visual studio .net 2003\vc7\include\iosfwd
;	COMDAT ?assign@?$char_traits@D@std@@SAXAADABD@Z
_TEXT	SEGMENT
__Left$ = 8						; size = 4
__Right$ = 12						; size = 4
?assign@?$char_traits@D@std@@SAXAADABD@Z PROC NEAR	; std::char_traits<char>::assign, COMDAT

; 331  : 		_Left = _Right;

  00000	8b 44 24 08	 mov	 eax, DWORD PTR __Right$[esp-4]
  00004	8a 08		 mov	 cl, BYTE PTR [eax]
  00006	8b 54 24 04	 mov	 edx, DWORD PTR __Left$[esp-4]
  0000a	88 0a		 mov	 BYTE PTR [edx], cl

; 332  : 		}

  0000c	c3		 ret	 0
?assign@?$char_traits@D@std@@SAXAADABD@Z ENDP		; std::char_traits<char>::assign
_TEXT	ENDS
PUBLIC	?length@?$char_traits@D@std@@SAIPBD@Z		; std::char_traits<char>::length
; Function compile flags: /Ogty
;	COMDAT ?length@?$char_traits@D@std@@SAIPBD@Z
_TEXT	SEGMENT
__First$ = 8						; size = 4
?length@?$char_traits@D@std@@SAIPBD@Z PROC NEAR		; std::char_traits<char>::length, COMDAT

; 352  : 		return (::strlen(_First));

  00000	8b 44 24 04	 mov	 eax, DWORD PTR __First$[esp-4]
  00004	8d 50 01	 lea	 edx, DWORD PTR [eax+1]
$L207798:
  00007	8a 08		 mov	 cl, BYTE PTR [eax]
  00009	40		 inc	 eax
  0000a	84 c9		 test	 cl, cl
  0000c	75 f9		 jne	 SHORT $L207798
  0000e	2b c2		 sub	 eax, edx

; 353  : 		}

  00010	c3		 ret	 0
?length@?$char_traits@D@std@@SAIPBD@Z ENDP		; std::char_traits<char>::length
_TEXT	ENDS
PUBLIC	?copy@?$char_traits@D@std@@SAPADPADPBDI@Z	; std::char_traits<char>::copy
; Function compile flags: /Ogty
;	COMDAT ?copy@?$char_traits@D@std@@SAPADPADPBDI@Z
_TEXT	SEGMENT
__First1$ = 8						; size = 4
__First2$ = 12						; size = 4
__Count$ = 16						; size = 4
?copy@?$char_traits@D@std@@SAPADPADPBDI@Z PROC NEAR	; std::char_traits<char>::copy, COMDAT

; 358  : 		return ((_Elem *)::memcpy(_First1, _First2, _Count));

  00000	8b 4c 24 0c	 mov	 ecx, DWORD PTR __Count$[esp-4]
  00004	56		 push	 esi
  00005	8b 74 24 0c	 mov	 esi, DWORD PTR __First2$[esp]
  00009	57		 push	 edi
  0000a	8b 7c 24 0c	 mov	 edi, DWORD PTR __First1$[esp+4]
  0000e	8b c1		 mov	 eax, ecx
  00010	8b d7		 mov	 edx, edi
  00012	c1 e9 02	 shr	 ecx, 2
  00015	f3 a5		 rep movsd
  00017	8b c8		 mov	 ecx, eax
  00019	83 e1 03	 and	 ecx, 3
  0001c	f3 a4		 rep movsb
  0001e	5f		 pop	 edi
  0001f	8b c2		 mov	 eax, edx
  00021	5e		 pop	 esi

; 359  : 		}

  00022	c3		 ret	 0
?copy@?$char_traits@D@std@@SAPADPADPBDI@Z ENDP		; std::char_traits<char>::copy
_TEXT	ENDS
PUBLIC	?move@?$char_traits@D@std@@SAPADPADPBDI@Z	; std::char_traits<char>::move
EXTRN	_memmove:NEAR
; Function compile flags: /Ogty
;	COMDAT ?move@?$char_traits@D@std@@SAPADPADPBDI@Z
_TEXT	SEGMENT
__First1$ = 8						; size = 4
__First2$ = 12						; size = 4
__Count$ = 16						; size = 4
?move@?$char_traits@D@std@@SAPADPADPBDI@Z PROC NEAR	; std::char_traits<char>::move, COMDAT

; 370  : 		return ((_Elem *)::memmove(_First1, _First2, _Count));

  00000	e9 00 00 00 00	 jmp	 _memmove
?move@?$char_traits@D@std@@SAPADPADPBDI@Z ENDP		; std::char_traits<char>::move
_TEXT	ENDS
PUBLIC	?Enter@CMclCritSec@@QAEXXZ			; CMclCritSec::Enter
EXTRN	__imp__EnterCriticalSection@4:NEAR
; Function compile flags: /Ogty
; File c:\documents and settings\test\mes documents\source\virtuos_v17\build\program\_network\mcl\include\cmclcritsec.h
;	COMDAT ?Enter@CMclCritSec@@QAEXXZ
_TEXT	SEGMENT
?Enter@CMclCritSec@@QAEXXZ PROC NEAR			; CMclCritSec::Enter, COMDAT
; _this$ = ecx

; 33   : 		::EnterCriticalSection( &m_CritSec );

  00000	83 c1 04	 add	 ecx, 4
  00003	51		 push	 ecx
  00004	ff 15 00 00 00
	00		 call	 DWORD PTR __imp__EnterCriticalSection@4

; 34   : 	}

  0000a	c3		 ret	 0
?Enter@CMclCritSec@@QAEXXZ ENDP				; CMclCritSec::Enter
_TEXT	ENDS
PUBLIC	?Leave@CMclCritSec@@QAEXXZ			; CMclCritSec::Leave
EXTRN	__imp__LeaveCriticalSection@4:NEAR
; Function compile flags: /Ogty
;	COMDAT ?Leave@CMclCritSec@@QAEXXZ
_TEXT	SEGMENT
?Leave@CMclCritSec@@QAEXXZ PROC NEAR			; CMclCritSec::Leave, COMDAT
; _this$ = ecx

; 39   : 		::LeaveCriticalSection( &m_CritSec );

  00000	83 c1 04	 add	 ecx, 4
  00003	51		 push	 ecx
  00004	ff 15 00 00 00
	00		 call	 DWORD PTR __imp__LeaveCriticalSection@4

; 40   : 	}

  0000a	c3		 ret	 0
?Leave@CMclCritSec@@QAEXXZ ENDP				; CMclCritSec::Leave
_TEXT	ENDS
PUBLIC	?time_null@@YAJXZ				; time_null
EXTRN	_time:NEAR
; Function compile flags: /Ogty
; File c:\documents and settings\test\mes documents\source\virtuos_v17\build\program\_network\cmnhdr.h
;	COMDAT ?time_null@@YAJXZ
_TEXT	SEGMENT
?time_null@@YAJXZ PROC NEAR				; time_null, COMDAT

; 702  : #if defined(__WORLDSERVER) || defined(__CLIENT)
; 703  : 	return	g_tCurrent;
; 704  : #else	//
; 705  : 	return time( NULL );

  00000	6a 00		 push	 0
  00002	e8 00 00 00 00	 call	 _time
  00007	83 c4 04	 add	 esp, 4

; 706  : #endif	//
; 707  : }

  0000a	c3		 ret	 0
?time_null@@YAJXZ ENDP					; time_null
_TEXT	ENDS
PUBLIC	??6CAr@@QAEAAV0@J@Z				; CAr::operator<<
EXTRN	?CheckBuf@CAr@@QAEXI@Z:NEAR			; CAr::CheckBuf
; Function compile flags: /Ogty
; File c:\documents and settings\test\mes documents\source\virtuos_v17\build\program\_network\misc\include\ar.h
;	COMDAT ??6CAr@@QAEAAV0@J@Z
_TEXT	SEGMENT
_l$ = 8							; size = 4
??6CAr@@QAEAAV0@J@Z PROC NEAR				; CAr::operator<<, COMDAT
; _this$ = ecx

; 113  : 	{ CheckBuf( sizeof(LONG) );

  00000	56		 push	 esi
  00001	6a 04		 push	 4
  00003	8b f1		 mov	 esi, ecx
  00005	e8 00 00 00 00	 call	 ?CheckBuf@CAr@@QAEXI@Z	; CAr::CheckBuf

; 114  : 		*(UNALIGNED LONG*)m_lpBufCur = l; m_lpBufCur += sizeof(LONG); return *this; }

  0000a	8b 46 08	 mov	 eax, DWORD PTR [esi+8]
  0000d	8b 4c 24 08	 mov	 ecx, DWORD PTR _l$[esp]
  00011	89 08		 mov	 DWORD PTR [eax], ecx
  00013	83 46 08 04	 add	 DWORD PTR [esi+8], 4
  00017	8b c6		 mov	 eax, esi
  00019	5e		 pop	 esi
  0001a	c2 04 00	 ret	 4
??6CAr@@QAEAAV0@J@Z ENDP				; CAr::operator<<
_TEXT	ENDS
PUBLIC	??6CAr@@QAEAAV0@K@Z				; CAr::operator<<
; Function compile flags: /Ogty
;	COMDAT ??6CAr@@QAEAAV0@K@Z
_TEXT	SEGMENT
_dw$ = 8						; size = 4
??6CAr@@QAEAAV0@K@Z PROC NEAR				; CAr::operator<<, COMDAT
; _this$ = ecx

; 116  : 	{ CheckBuf( sizeof(DWORD) );

  00000	56		 push	 esi
  00001	6a 04		 push	 4
  00003	8b f1		 mov	 esi, ecx
  00005	e8 00 00 00 00	 call	 ?CheckBuf@CAr@@QAEXI@Z	; CAr::CheckBuf

; 117  : 		*(UNALIGNED DWORD*)m_lpBufCur = dw; m_lpBufCur += sizeof(DWORD); return *this; }

  0000a	8b 46 08	 mov	 eax, DWORD PTR [esi+8]
  0000d	8b 4c 24 08	 mov	 ecx, DWORD PTR _dw$[esp]
  00011	89 08		 mov	 DWORD PTR [eax], ecx
  00013	83 46 08 04	 add	 DWORD PTR [esi+8], 4
  00017	8b c6		 mov	 eax, esi
  00019	5e		 pop	 esi
  0001a	c2 04 00	 ret	 4
??6CAr@@QAEAAV0@K@Z ENDP				; CAr::operator<<
_TEXT	ENDS
PUBLIC	??5CAr@@QAEAAV0@AAE@Z				; CAr::operator>>
; Function compile flags: /Ogty
;	COMDAT ??5CAr@@QAEAAV0@AAE@Z
_TEXT	SEGMENT
_by$ = 8						; size = 4
??5CAr@@QAEAAV0@AAE@Z PROC NEAR				; CAr::operator>>, COMDAT
; _this$ = ecx

; 142  : 	{	CAR_SAFE_READ( BYTE, by );	}

  00000	8b c1		 mov	 eax, ecx
  00002	8b 48 08	 mov	 ecx, DWORD PTR [eax+8]
  00005	56		 push	 esi
  00006	8b 70 0c	 mov	 esi, DWORD PTR [eax+12]
  00009	8d 51 01	 lea	 edx, DWORD PTR [ecx+1]
  0000c	3b d6		 cmp	 edx, esi
  0000e	5e		 pop	 esi
  0000f	77 0e		 ja	 SHORT $L162848
  00011	8a 09		 mov	 cl, BYTE PTR [ecx]
  00013	8b 54 24 04	 mov	 edx, DWORD PTR _by$[esp-4]
  00017	88 0a		 mov	 BYTE PTR [edx], cl
  00019	ff 40 08	 inc	 DWORD PTR [eax+8]
  0001c	c2 04 00	 ret	 4
$L162848:
  0001f	8b 4c 24 04	 mov	 ecx, DWORD PTR _by$[esp-4]
  00023	c6 01 00	 mov	 BYTE PTR [ecx], 0
  00026	8b 50 0c	 mov	 edx, DWORD PTR [eax+12]
  00029	89 50 08	 mov	 DWORD PTR [eax+8], edx
  0002c	c2 04 00	 ret	 4
??5CAr@@QAEAAV0@AAE@Z ENDP				; CAr::operator>>
_TEXT	ENDS
PUBLIC	??5CAr@@QAEAAV0@AAK@Z				; CAr::operator>>
; Function compile flags: /Ogty
;	COMDAT ??5CAr@@QAEAAV0@AAK@Z
_TEXT	SEGMENT
_dw$ = 8						; size = 4
??5CAr@@QAEAAV0@AAK@Z PROC NEAR				; CAr::operator>>, COMDAT
; _this$ = ecx

; 146  : 	{	CAR_SAFE_READ( DWORD, dw );	}

  00000	8b c1		 mov	 eax, ecx
  00002	8b 48 08	 mov	 ecx, DWORD PTR [eax+8]
  00005	56		 push	 esi
  00006	8b 70 0c	 mov	 esi, DWORD PTR [eax+12]
  00009	8d 51 04	 lea	 edx, DWORD PTR [ecx+4]
  0000c	3b d6		 cmp	 edx, esi
  0000e	5e		 pop	 esi
  0000f	77 0f		 ja	 SHORT $L162868
  00011	8b 09		 mov	 ecx, DWORD PTR [ecx]
  00013	8b 54 24 04	 mov	 edx, DWORD PTR _dw$[esp-4]
  00017	89 0a		 mov	 DWORD PTR [edx], ecx
  00019	83 40 08 04	 add	 DWORD PTR [eax+8], 4
  0001d	c2 04 00	 ret	 4
$L162868:
  00020	8b 4c 24 04	 mov	 ecx, DWORD PTR _dw$[esp-4]
  00024	c7 01 00 00 00
	00		 mov	 DWORD PTR [ecx], 0
  0002a	8b 50 0c	 mov	 edx, DWORD PTR [eax+12]
  0002d	89 50 08	 mov	 DWORD PTR [eax+8], edx
  00030	c2 04 00	 ret	 4
??5CAr@@QAEAAV0@AAK@Z ENDP				; CAr::operator>>
_TEXT	ENDS
PUBLIC	??6@YAAAVCAr@@AAV0@UD3DXVECTOR3@@@Z		; operator<<
EXTRN	?Write@CAr@@QAEXPBXI@Z:NEAR			; CAr::Write
; Function compile flags: /Ogty
;	COMDAT ??6@YAAAVCAr@@AAV0@UD3DXVECTOR3@@@Z
_TEXT	SEGMENT
_ar$ = 8						; size = 4
_v$ = 12						; size = 12
??6@YAAAVCAr@@AAV0@UD3DXVECTOR3@@@Z PROC NEAR		; operator<<, COMDAT

; 157  : 	{	ar.Write( &v, sizeof(D3DXVECTOR3) );	return ar;	}

  00000	56		 push	 esi
  00001	8b 74 24 08	 mov	 esi, DWORD PTR _ar$[esp]
  00005	6a 0c		 push	 12			; 0000000cH
  00007	8d 44 24 10	 lea	 eax, DWORD PTR _v$[esp+4]
  0000b	50		 push	 eax
  0000c	8b ce		 mov	 ecx, esi
  0000e	e8 00 00 00 00	 call	 ?Write@CAr@@QAEXPBXI@Z	; CAr::Write
  00013	8b c6		 mov	 eax, esi
  00015	5e		 pop	 esi
  00016	c3		 ret	 0
??6@YAAAVCAr@@AAV0@UD3DXVECTOR3@@@Z ENDP		; operator<<
_TEXT	ENDS
PUBLIC	??6@YAAAVCAr@@AAV0@_J@Z				; operator<<
; Function compile flags: /Ogty
;	COMDAT ??6@YAAAVCAr@@AAV0@_J@Z
_TEXT	SEGMENT
_ar$ = 8						; size = 4
_i$ = 12						; size = 8
??6@YAAAVCAr@@AAV0@_J@Z PROC NEAR			; operator<<, COMDAT

; 163  : 	{	ar.Write( &i, sizeof(__int64) );	return ar;	}

  00000	56		 push	 esi
  00001	8b 74 24 08	 mov	 esi, DWORD PTR _ar$[esp]
  00005	6a 08		 push	 8
  00007	8d 44 24 10	 lea	 eax, DWORD PTR _i$[esp+4]
  0000b	50		 push	 eax
  0000c	8b ce		 mov	 ecx, esi
  0000e	e8 00 00 00 00	 call	 ?Write@CAr@@QAEXPBXI@Z	; CAr::Write
  00013	8b c6		 mov	 eax, esi
  00015	5e		 pop	 esi
  00016	c3		 ret	 0
??6@YAAAVCAr@@AAV0@_J@Z ENDP				; operator<<
_TEXT	ENDS
PUBLIC	??6@YAAAVCAr@@AAV0@UtagPLAY_ACCOUNT@@@Z		; operator<<
EXTRN	___security_cookie:DWORD
EXTRN	@__security_check_cookie@4:NEAR
; Function compile flags: /Ogty
;	COMDAT ??6@YAAAVCAr@@AAV0@UtagPLAY_ACCOUNT@@@Z
_TEXT	SEGMENT
$T207826 = -72						; size = 68
__$ArrayPad$ = -4					; size = 4
__$ReturnAddr$ = 4					; size = 4
_ar$ = 8						; size = 4
_pa$ = 12						; size = 68
??6@YAAAVCAr@@AAV0@UtagPLAY_ACCOUNT@@@Z PROC NEAR	; operator<<, COMDAT

; 183  : 	{	ar.Write( &pa, sizeof(PLAY_ACCOUNT) );	return ar;	}

  00000	83 ec 48	 sub	 esp, 72			; 00000048H
  00003	a1 00 00 00 00	 mov	 eax, DWORD PTR ___security_cookie
  00008	33 c4		 xor	 eax, esp
  0000a	53		 push	 ebx
  0000b	8b 5c 24 50	 mov	 ebx, DWORD PTR _ar$[esp+72]
  0000f	56		 push	 esi
  00010	57		 push	 edi
  00011	89 44 24 50	 mov	 DWORD PTR __$ArrayPad$[esp+84], eax
  00015	b9 11 00 00 00	 mov	 ecx, 17			; 00000011H
  0001a	8d 74 24 5c	 lea	 esi, DWORD PTR _pa$[esp+80]
  0001e	8d 7c 24 0c	 lea	 edi, DWORD PTR $T207826[esp+84]
  00022	6a 44		 push	 68			; 00000044H
  00024	8d 44 24 10	 lea	 eax, DWORD PTR $T207826[esp+88]
  00028	f3 a5		 rep movsd
  0002a	50		 push	 eax
  0002b	8b cb		 mov	 ecx, ebx
  0002d	e8 00 00 00 00	 call	 ?Write@CAr@@QAEXPBXI@Z	; CAr::Write
  00032	8b 4c 24 50	 mov	 ecx, DWORD PTR __$ArrayPad$[esp+84]
  00036	5f		 pop	 edi
  00037	5e		 pop	 esi
  00038	8b c3		 mov	 eax, ebx
  0003a	5b		 pop	 ebx
  0003b	33 cc		 xor	 ecx, esp
  0003d	e8 00 00 00 00	 call	 @__security_check_cookie@4
  00042	83 c4 48	 add	 esp, 72			; 00000048H
  00045	c3		 ret	 0
??6@YAAAVCAr@@AAV0@UtagPLAY_ACCOUNT@@@Z ENDP		; operator<<
_TEXT	ENDS
PUBLIC	?Send@CDPMng@@QAEHPAXKK@Z			; CDPMng::Send
EXTRN	?Send@CDPSock@@QAEHPADKK@Z:NEAR			; CDPSock::Send
; Function compile flags: /Ogty
; File c:\documents and settings\test\mes documents\source\virtuos_v17\build\program\_network\net\include\dpmng.h
;	COMDAT ?Send@CDPMng@@QAEHPAXKK@Z
_TEXT	SEGMENT
_lpData$ = 8						; size = 4
_dwDataSize$ = 12					; size = 4
_dpidTo$ = 16						; size = 4
?Send@CDPMng@@QAEHPAXKK@Z PROC NEAR			; CDPMng::Send, COMDAT
; _this$ = ecx

; 171  : 	if( !m_pDPSock )

  00000	8b 49 04	 mov	 ecx, DWORD PTR [ecx+4]
  00003	85 c9		 test	 ecx, ecx
  00005	75 05		 jne	 SHORT $L165681

; 172  : 		return FALSE;

  00007	33 c0		 xor	 eax, eax

; 174  : }

  00009	c2 0c 00	 ret	 12			; 0000000cH
$L165681:

; 173  : 	return m_pDPSock->Send( (char*)lpData, dwDataSize, dpidTo );

  0000c	e9 00 00 00 00	 jmp	 ?Send@CDPSock@@QAEHPADKK@Z ; CDPSock::Send
?Send@CDPMng@@QAEHPAXKK@Z ENDP				; CDPMng::Send
_TEXT	ENDS
PUBLIC	?SetState@CRTMessenger@@QAEXK@Z			; CRTMessenger::SetState
; Function compile flags: /Ogty
; File c:\documents and settings\test\mes documents\source\virtuos_v17\build\program\_common\rtmessenger.h
;	COMDAT ?SetState@CRTMessenger@@QAEXK@Z
_TEXT	SEGMENT
_dwState$ = 8						; size = 4
?SetState@CRTMessenger@@QAEXK@Z PROC NEAR		; CRTMessenger::SetState, COMDAT
; _this$ = ecx

; 32   : 	void	SetState( DWORD dwState )	{	m_dwState	= dwState;	}

  00000	8b 44 24 04	 mov	 eax, DWORD PTR _dwState$[esp-4]
  00004	89 41 10	 mov	 DWORD PTR [ecx+16], eax
  00007	c2 04 00	 ret	 4
?SetState@CRTMessenger@@QAEXK@Z ENDP			; CRTMessenger::SetState
_TEXT	ENDS
PUBLIC	?SetLayer@CObj@@QAEXH@Z				; CObj::SetLayer
; Function compile flags: /Ogty
; File c:\documents and settings\test\mes documents\source\virtuos_v17\build\program\_network\objects\obj.h
;	COMDAT ?SetLayer@CObj@@QAEXH@Z
_TEXT	SEGMENT
_nLayer$ = 8						; size = 4
?SetLayer@CObj@@QAEXH@Z PROC NEAR			; CObj::SetLayer, COMDAT
; _this$ = ecx

; 93   : 	void	SetLayer( int nLayer )	{	m_nLayer	= nLayer;	}

  00000	8b 44 24 04	 mov	 eax, DWORD PTR _nLayer$[esp-4]
  00004	89 41 2c	 mov	 DWORD PTR [ecx+44], eax
  00007	c2 04 00	 ret	 4
?SetLayer@CObj@@QAEXH@Z ENDP				; CObj::SetLayer
_TEXT	ENDS
PUBLIC	?GetLayer@CObj@@QAEHXZ				; CObj::GetLayer
; Function compile flags: /Ogty
;	COMDAT ?GetLayer@CObj@@QAEHXZ
_TEXT	SEGMENT
?GetLayer@CObj@@QAEHXZ PROC NEAR			; CObj::GetLayer, COMDAT
; _this$ = ecx

; 94   : 	int		GetLayer()	{	return m_nLayer;	}

  00000	8b 41 2c	 mov	 eax, DWORD PTR [ecx+44]
  00003	c3		 ret	 0
?GetLayer@CObj@@QAEHXZ ENDP				; CObj::GetLayer
_TEXT	ENDS
PUBLIC	?IsEmpty@CItemBase@@QAEHXZ			; CItemBase::IsEmpty
; Function compile flags: /Ogty
;	COMDAT ?IsEmpty@CItemBase@@QAEHXZ
_TEXT	SEGMENT
?IsEmpty@CItemBase@@QAEHXZ PROC NEAR			; CItemBase::IsEmpty, COMDAT
; _this$ = ecx

; 133  : 	BOOL	IsEmpty()	{	return m_dwItemId ? FALSE : TRUE;	}

  00000	8b 51 08	 mov	 edx, DWORD PTR [ecx+8]
  00003	33 c0		 xor	 eax, eax
  00005	85 d2		 test	 edx, edx
  00007	0f 94 c0	 sete	 al
  0000a	c3		 ret	 0
?IsEmpty@CItemBase@@QAEHXZ ENDP				; CItemBase::IsEmpty
_TEXT	ENDS
PUBLIC	?SetPetId@CMover@@QAEXK@Z			; CMover::SetPetId
; Function compile flags: /Ogty
;	COMDAT ?SetPetId@CMover@@QAEXK@Z
_TEXT	SEGMENT
_dwPetId$ = 8						; size = 4
?SetPetId@CMover@@QAEXK@Z PROC NEAR			; CMover::SetPetId, COMDAT
; _this$ = ecx

; 1087 : 	void	SetPetId( DWORD dwPetId )		{	m_dwPetId	= dwPetId;	}

  00000	8b 44 24 04	 mov	 eax, DWORD PTR _dwPetId$[esp-4]
  00004	89 81 30 42 00
	00		 mov	 DWORD PTR [ecx+16944], eax
  0000a	c2 04 00	 ret	 4
?SetPetId@CMover@@QAEXK@Z ENDP				; CMover::SetPetId
_TEXT	ENDS
PUBLIC	?SetCampusId@CMover@@QAEXK@Z			; CMover::SetCampusId
; Function compile flags: /Ogty
;	COMDAT ?SetCampusId@CMover@@QAEXK@Z
_TEXT	SEGMENT
_idCampus$ = 8						; size = 4
?SetCampusId@CMover@@QAEXK@Z PROC NEAR			; CMover::SetCampusId, COMDAT
; _this$ = ecx

; 1151 : 	void	SetCampusId( u_long idCampus )	{	m_idCampus = idCampus;	}

  00000	8b 44 24 04	 mov	 eax, DWORD PTR _idCampus$[esp-4]
  00004	89 81 c4 46 00
	00		 mov	 DWORD PTR [ecx+18116], eax
  0000a	c2 04 00	 ret	 4
?SetCampusId@CMover@@QAEXK@Z ENDP			; CMover::SetCampusId
_TEXT	ENDS
PUBLIC	?SetCampusPoint@CMover@@QAEXH@Z			; CMover::SetCampusPoint
; Function compile flags: /Ogty
;	COMDAT ?SetCampusPoint@CMover@@QAEXH@Z
_TEXT	SEGMENT
_nMPPoint$ = 8						; size = 4
?SetCampusPoint@CMover@@QAEXH@Z PROC NEAR		; CMover::SetCampusPoint, COMDAT
; _this$ = ecx

; 1153 : 	void	SetCampusPoint( int nMPPoint )		{	m_nCampusPoint = nMPPoint;	}

  00000	8b 44 24 04	 mov	 eax, DWORD PTR _nMPPoint$[esp-4]
  00004	89 81 c8 46 00
	00		 mov	 DWORD PTR [ecx+18120], eax
  0000a	c2 04 00	 ret	 4
?SetCampusPoint@CMover@@QAEXH@Z ENDP			; CMover::SetCampusPoint
_TEXT	ENDS
PUBLIC	?Lock@CMover@@QAEXXZ				; CMover::Lock
; Function compile flags: /Ogty
;	COMDAT ?Lock@CMover@@QAEXXZ
_TEXT	SEGMENT
?Lock@CMover@@QAEXXZ PROC NEAR				; CMover::Lock, COMDAT
; _this$ = ecx

; 1207 : 	void	Lock( void )	{	m_AccessLock.Enter();	}

  00000	81 c1 fc 41 00
	00		 add	 ecx, 16892		; 000041fcH
  00006	51		 push	 ecx
  00007	ff 15 00 00 00
	00		 call	 DWORD PTR __imp__EnterCriticalSection@4
  0000d	c3		 ret	 0
?Lock@CMover@@QAEXXZ ENDP				; CMover::Lock
_TEXT	ENDS
PUBLIC	?Unlock@CMover@@QAEXXZ				; CMover::Unlock
; Function compile flags: /Ogty
;	COMDAT ?Unlock@CMover@@QAEXXZ
_TEXT	SEGMENT
?Unlock@CMover@@QAEXXZ PROC NEAR			; CMover::Unlock, COMDAT
; _this$ = ecx

; 1208 : 	void	Unlock( void )	{	m_AccessLock.Leave();	}

  00000	81 c1 fc 41 00
	00		 add	 ecx, 16892		; 000041fcH
  00006	51		 push	 ecx
  00007	ff 15 00 00 00
	00		 call	 DWORD PTR __imp__LeaveCriticalSection@4
  0000d	c3		 ret	 0
?Unlock@CMover@@QAEXXZ ENDP				; CMover::Unlock
_TEXT	ENDS
PUBLIC	?size@?$basic_string@DU?$char_traits@D@std@@V?$allocator@D@2@@std@@QBEIXZ ; std::basic_string<char,std::char_traits<char>,std::allocator<char> >::size
; Function compile flags: /Ogty
; File c:\program files\microsoft visual studio .net 2003\vc7\include\xstring
;	COMDAT ?size@?$basic_string@DU?$char_traits@D@std@@V?$allocator@D@2@@std@@QBEIXZ
_TEXT	SEGMENT
?size@?$basic_string@DU?$char_traits@D@std@@V?$allocator@D@2@@std@@QBEIXZ PROC NEAR ; std::basic_string<char,std::char_traits<char>,std::allocator<char> >::size, COMDAT
; _this$ = ecx

; 1109 : 		return (_Mysize);

  00000	8b 41 14	 mov	 eax, DWORD PTR [ecx+20]

; 1110 : 		}

  00003	c3		 ret	 0
?size@?$basic_string@DU?$char_traits@D@std@@V?$allocator@D@2@@std@@QBEIXZ ENDP ; std::basic_string<char,std::char_traits<char>,std::allocator<char> >::size
_TEXT	ENDS
PUBLIC	?Free@?$MemPooler@VCMover@@@@QAEHPAVCMover@@@Z	; MemPooler<CMover>::Free
; Function compile flags: /Ogty
; File c:\documents and settings\test\mes documents\source\virtuos_v17\build\program\_network\misc\include\mempooler.h
;	COMDAT ?Free@?$MemPooler@VCMover@@@@QAEHPAVCMover@@@Z
_TEXT	SEGMENT
_lpMem$ = 8						; size = 4
?Free@?$MemPooler@VCMover@@@@QAEHPAVCMover@@@Z PROC NEAR ; MemPooler<CMover>::Free, COMDAT
; _this$ = ecx

; 80   : 		{

  00000	53		 push	 ebx
  00001	56		 push	 esi
  00002	8b f1		 mov	 esi, ecx
  00004	57		 push	 edi

; 81   : #ifdef __VERIFY_MEMPOOL
; 82   : 			::operator delete(lpMem);
; 83   : 			return TRUE;
; 84   : #endif
; 85   : 
; 86   : 			BlockNode* pNode	= NULL;
; 87   : 
; 88   : 			EnterCriticalSection( &m_cs );

  00005	8d 5e 1c	 lea	 ebx, DWORD PTR [esi+28]
  00008	53		 push	 ebx
  00009	ff 15 00 00 00
	00		 call	 DWORD PTR __imp__EnterCriticalSection@4

; 89   : 
; 90   : 			pNode	= ( reinterpret_cast<BlockNode*>( lpMem ) ) - 1;
; 91   : 			if( m_nAllocCount > 0 )

  0000f	8b 4e 18	 mov	 ecx, DWORD PTR [esi+24]
  00012	85 c9		 test	 ecx, ecx
  00014	8b 7c 24 10	 mov	 edi, DWORD PTR _lpMem$[esp+8]
  00018	8d 47 fc	 lea	 eax, DWORD PTR [edi-4]
  0001b	7e 09		 jle	 SHORT $L184103

; 92   : 			{
; 93   : 				pNode->pNext	= m_pFreeList;

  0001d	8b 0e		 mov	 ecx, DWORD PTR [esi]
  0001f	89 08		 mov	 DWORD PTR [eax], ecx

; 94   : 				m_pFreeList		= pNode;

  00021	89 06		 mov	 DWORD PTR [esi], eax

; 95   : 				m_nAllocCount--;

  00023	ff 4e 18	 dec	 DWORD PTR [esi+24]
$L184103:

; 96   : 			}
; 97   : 
; 98   : 			//	mulcom	BEGIN100422	 
; 99   : 			::memset( lpMem, 0, sizeof(T) );

  00026	33 c0		 xor	 eax, eax
  00028	b9 c2 11 00 00	 mov	 ecx, 4546		; 000011c2H

; 100  : 			//	mulcom	END100422	 
; 101  : 
; 102  : 			LeaveCriticalSection( &m_cs );

  0002d	53		 push	 ebx
  0002e	f3 ab		 rep stosd
  00030	ff 15 00 00 00
	00		 call	 DWORD PTR __imp__LeaveCriticalSection@4
  00036	5f		 pop	 edi
  00037	5e		 pop	 esi

; 103  : 
; 104  : 			return TRUE;

  00038	b8 01 00 00 00	 mov	 eax, 1
  0003d	5b		 pop	 ebx

; 105  : 		}

  0003e	c2 04 00	 ret	 4
?Free@?$MemPooler@VCMover@@@@QAEHPAVCMover@@@Z ENDP	; MemPooler<CMover>::Free
_TEXT	ENDS
PUBLIC	?_Myptr@?$basic_string@DU?$char_traits@D@std@@V?$allocator@D@2@@std@@QBEPBDXZ ; std::basic_string<char,std::char_traits<char>,std::allocator<char> >::_Myptr
; Function compile flags: /Ogty
; File c:\program files\microsoft visual studio .net 2003\vc7\include\xstring
;	COMDAT ?_Myptr@?$basic_string@DU?$char_traits@D@std@@V?$allocator@D@2@@std@@QBEPBDXZ
_TEXT	SEGMENT
?_Myptr@?$basic_string@DU?$char_traits@D@std@@V?$allocator@D@2@@std@@QBEPBDXZ PROC NEAR ; std::basic_string<char,std::char_traits<char>,std::allocator<char> >::_Myptr, COMDAT
; _this$ = ecx

; 1537 : 		return (_BUF_SIZE <= _Myres ? _Bx._Ptr : _Bx._Buf);

  00000	83 79 18 10	 cmp	 DWORD PTR [ecx+24], 16	; 00000010H
  00004	72 04		 jb	 SHORT $L207862
  00006	8b 41 04	 mov	 eax, DWORD PTR [ecx+4]

; 1538 : 		}

  00009	c3		 ret	 0
$L207862:

; 1537 : 		return (_BUF_SIZE <= _Myres ? _Bx._Ptr : _Bx._Buf);

  0000a	8d 41 04	 lea	 eax, DWORD PTR [ecx+4]

; 1538 : 		}

  0000d	c3		 ret	 0
?_Myptr@?$basic_string@DU?$char_traits@D@std@@V?$allocator@D@2@@std@@QBEPBDXZ ENDP ; std::basic_string<char,std::char_traits<char>,std::allocator<char> >::_Myptr
_TEXT	ENDS
PUBLIC	??0?$allocator@D@std@@QAE@XZ			; std::allocator<char>::allocator<char>
; Function compile flags: /Ogty
; File c:\program files\microsoft visual studio .net 2003\vc7\include\xmemory
;	COMDAT ??0?$allocator@D@std@@QAE@XZ
_TEXT	SEGMENT
??0?$allocator@D@std@@QAE@XZ PROC NEAR			; std::allocator<char>::allocator<char>, COMDAT
; _this$ = ecx

; 111  : 	allocator()

  00000	8b c1		 mov	 eax, ecx

; 112  : 		{	// construct default allocator (do nothing)
; 113  : 		}

  00002	c3		 ret	 0
??0?$allocator@D@std@@QAE@XZ ENDP			; std::allocator<char>::allocator<char>
_TEXT	ENDS
PUBLIC	??0?$allocator@D@std@@QAE@ABV01@@Z		; std::allocator<char>::allocator<char>
; Function compile flags: /Ogty
;	COMDAT ??0?$allocator@D@std@@QAE@ABV01@@Z
_TEXT	SEGMENT
___formal$ = 8						; size = 4
??0?$allocator@D@std@@QAE@ABV01@@Z PROC NEAR		; std::allocator<char>::allocator<char>, COMDAT
; _this$ = ecx

; 115  : 	allocator(const allocator<_Ty>&)

  00000	8b c1		 mov	 eax, ecx

; 116  : 		{	// construct by copying (do nothing)
; 117  : 		}

  00002	c2 04 00	 ret	 4
??0?$allocator@D@std@@QAE@ABV01@@Z ENDP			; std::allocator<char>::allocator<char>
_TEXT	ENDS
PUBLIC	?_Myptr@?$basic_string@DU?$char_traits@D@std@@V?$allocator@D@2@@std@@QAEPADXZ ; std::basic_string<char,std::char_traits<char>,std::allocator<char> >::_Myptr
; Function compile flags: /Ogty
; File c:\program files\microsoft visual studio .net 2003\vc7\include\xstring
;	COMDAT ?_Myptr@?$basic_string@DU?$char_traits@D@std@@V?$allocator@D@2@@std@@QAEPADXZ
_TEXT	SEGMENT
?_Myptr@?$basic_string@DU?$char_traits@D@std@@V?$allocator@D@2@@std@@QAEPADXZ PROC NEAR ; std::basic_string<char,std::char_traits<char>,std::allocator<char> >::_Myptr, COMDAT
; _this$ = ecx

; 1532 : 		return (_BUF_SIZE <= _Myres ? _Bx._Ptr : _Bx._Buf);

  00000	83 79 18 10	 cmp	 DWORD PTR [ecx+24], 16	; 00000010H
  00004	72 04		 jb	 SHORT $L207870
  00006	8b 41 04	 mov	 eax, DWORD PTR [ecx+4]

; 1533 : 		}

  00009	c3		 ret	 0
$L207870:

; 1532 : 		return (_BUF_SIZE <= _Myres ? _Bx._Ptr : _Bx._Buf);

  0000a	8d 41 04	 lea	 eax, DWORD PTR [ecx+4]

; 1533 : 		}

  0000d	c3		 ret	 0
?_Myptr@?$basic_string@DU?$char_traits@D@std@@V?$allocator@D@2@@std@@QAEPADXZ ENDP ; std::basic_string<char,std::char_traits<char>,std::allocator<char> >::_Myptr
_TEXT	ENDS
PUBLIC	?deallocate@?$allocator@D@std@@QAEXPADI@Z	; std::allocator<char>::deallocate
EXTRN	??3@YAXPAX@Z:NEAR				; operator delete
; Function compile flags: /Ogty
; File c:\program files\microsoft visual studio .net 2003\vc7\include\xmemory
;	COMDAT ?deallocate@?$allocator@D@std@@QAEXPADI@Z
_TEXT	SEGMENT
__Ptr$ = 8						; size = 4
___formal$ = 12						; size = 4
?deallocate@?$allocator@D@std@@QAEXPADI@Z PROC NEAR	; std::allocator<char>::deallocate, COMDAT
; _this$ = ecx

; 132  : 		operator delete(_Ptr);

  00000	8b 44 24 04	 mov	 eax, DWORD PTR __Ptr$[esp-4]
  00004	50		 push	 eax
  00005	e8 00 00 00 00	 call	 ??3@YAXPAX@Z		; operator delete
  0000a	59		 pop	 ecx

; 133  : 		}

  0000b	c2 08 00	 ret	 8
?deallocate@?$allocator@D@std@@QAEXPADI@Z ENDP		; std::allocator<char>::deallocate
_TEXT	ENDS
PUBLIC	?_Inside@?$basic_string@DU?$char_traits@D@std@@V?$allocator@D@2@@std@@IAE_NPBD@Z ; std::basic_string<char,std::char_traits<char>,std::allocator<char> >::_Inside
; Function compile flags: /Ogty
; File c:\program files\microsoft visual studio .net 2003\vc7\include\xstring
;	COMDAT ?_Inside@?$basic_string@DU?$char_traits@D@std@@V?$allocator@D@2@@std@@IAE_NPBD@Z
_TEXT	SEGMENT
__Ptr$ = 8						; size = 4
?_Inside@?$basic_string@DU?$char_traits@D@std@@V?$allocator@D@2@@std@@IAE_NPBD@Z PROC NEAR ; std::basic_string<char,std::char_traits<char>,std::allocator<char> >::_Inside, COMDAT
; _this$ = ecx

; 1494 : 		{	// test if _Ptr points inside string

  00000	56		 push	 esi

; 1495 : 		if (_Ptr < _Myptr() || _Myptr() + _Mysize <= _Ptr)

  00001	8b 71 18	 mov	 esi, DWORD PTR [ecx+24]
  00004	83 fe 10	 cmp	 esi, 16			; 00000010H
  00007	57		 push	 edi
  00008	8d 41 04	 lea	 eax, DWORD PTR [ecx+4]
  0000b	72 04		 jb	 SHORT $L207880
  0000d	8b 10		 mov	 edx, DWORD PTR [eax]
  0000f	eb 02		 jmp	 SHORT $L207881
$L207880:
  00011	8b d0		 mov	 edx, eax
$L207881:
  00013	8b 7c 24 0c	 mov	 edi, DWORD PTR __Ptr$[esp+4]
  00017	3b fa		 cmp	 edi, edx
  00019	72 17		 jb	 SHORT $L185560
  0001b	83 fe 10	 cmp	 esi, 16			; 00000010H
  0001e	72 02		 jb	 SHORT $L207888
  00020	8b 00		 mov	 eax, DWORD PTR [eax]
$L207888:
  00022	8b 49 14	 mov	 ecx, DWORD PTR [ecx+20]
  00025	03 c8		 add	 ecx, eax
  00027	3b cf		 cmp	 ecx, edi
  00029	76 07		 jbe	 SHORT $L185560
  0002b	5f		 pop	 edi

; 1497 : 		else
; 1498 : 			return (true);

  0002c	b0 01		 mov	 al, 1
  0002e	5e		 pop	 esi

; 1499 : 		}

  0002f	c2 04 00	 ret	 4
$L185560:
  00032	5f		 pop	 edi

; 1496 : 			return (false);	// don't ask

  00033	32 c0		 xor	 al, al
  00035	5e		 pop	 esi

; 1499 : 		}

  00036	c2 04 00	 ret	 4
?_Inside@?$basic_string@DU?$char_traits@D@std@@V?$allocator@D@2@@std@@IAE_NPBD@Z ENDP ; std::basic_string<char,std::char_traits<char>,std::allocator<char> >::_Inside
_TEXT	ENDS
PUBLIC	?max_size@?$allocator@D@std@@QBEIXZ		; std::allocator<char>::max_size
; Function compile flags: /Ogty
; File c:\program files\microsoft visual studio .net 2003\vc7\include\xmemory
;	COMDAT ?max_size@?$allocator@D@std@@QBEIXZ
_TEXT	SEGMENT
?max_size@?$allocator@D@std@@QBEIXZ PROC NEAR		; std::allocator<char>::max_size, COMDAT
; _this$ = ecx

; 157  : 		_SIZT _Count = (_SIZT)(-1) / sizeof (_Ty);
; 158  : 		return (0 < _Count ? _Count : 1);

  00000	83 c8 ff	 or	 eax, -1

; 159  : 		}

  00003	c3		 ret	 0
?max_size@?$allocator@D@std@@QBEIXZ ENDP		; std::allocator<char>::max_size
_TEXT	ENDS
PUBLIC	?_Nextnode@?$list@PAXV?$allocator@PAX@std@@@std@@KAAAPAU_Node@?$_List_nod@PAXV?$allocator@PAX@std@@@2@PAU342@@Z ; std::list<void *,std::allocator<void *> >::_Nextnode
; Function compile flags: /Ogty
; File c:\program files\microsoft visual studio .net 2003\vc7\include\list
;	COMDAT ?_Nextnode@?$list@PAXV?$allocator@PAX@std@@@std@@KAAAPAU_Node@?$_List_nod@PAXV?$allocator@PAX@std@@@2@PAU342@@Z
_TEXT	SEGMENT
__Pnode$ = 8						; size = 4
?_Nextnode@?$list@PAXV?$allocator@PAX@std@@@std@@KAAAPAU_Node@?$_List_nod@PAXV?$allocator@PAX@std@@@2@PAU342@@Z PROC NEAR ; std::list<void *,std::allocator<void *> >::_Nextnode, COMDAT

; 108  : 		return ((_Nodepref)(*_Pnode)._Next);

  00000	8b 44 24 04	 mov	 eax, DWORD PTR __Pnode$[esp-4]

; 109  : 		}

  00004	c3		 ret	 0
?_Nextnode@?$list@PAXV?$allocator@PAX@std@@@std@@KAAAPAU_Node@?$_List_nod@PAXV?$allocator@PAX@std@@@2@PAU342@@Z ENDP ; std::list<void *,std::allocator<void *> >::_Nextnode
_TEXT	ENDS
PUBLIC	?_Prevnode@?$list@PAXV?$allocator@PAX@std@@@std@@KAAAPAU_Node@?$_List_nod@PAXV?$allocator@PAX@std@@@2@PAU342@@Z ; std::list<void *,std::allocator<void *> >::_Prevnode
; Function compile flags: /Ogty
;	COMDAT ?_Prevnode@?$list@PAXV?$allocator@PAX@std@@@std@@KAAAPAU_Node@?$_List_nod@PAXV?$allocator@PAX@std@@@2@PAU342@@Z
_TEXT	SEGMENT
__Pnode$ = 8						; size = 4
?_Prevnode@?$list@PAXV?$allocator@PAX@std@@@std@@KAAAPAU_Node@?$_List_nod@PAXV?$allocator@PAX@std@@@2@PAU342@@Z PROC NEAR ; std::list<void *,std::allocator<void *> >::_Prevnode, COMDAT

; 113  : 		return ((_Nodepref)(*_Pnode)._Prev);

  00000	8b 44 24 04	 mov	 eax, DWORD PTR __Pnode$[esp-4]
  00004	83 c0 04	 add	 eax, 4

; 114  : 		}

  00007	c3		 ret	 0
?_Prevnode@?$list@PAXV?$allocator@PAX@std@@@std@@KAAAPAU_Node@?$_List_nod@PAXV?$allocator@PAX@std@@@2@PAU342@@Z ENDP ; std::list<void *,std::allocator<void *> >::_Prevnode
_TEXT	ENDS
PUBLIC	?_Mynode@const_iterator@?$list@PAXV?$allocator@PAX@std@@@std@@QBEPAU_Node@?$_List_nod@PAXV?$allocator@PAX@std@@@3@XZ ; std::list<void *,std::allocator<void *> >::const_iterator::_Mynode
; Function compile flags: /Ogty
;	COMDAT ?_Mynode@const_iterator@?$list@PAXV?$allocator@PAX@std@@@std@@QBEPAU_Node@?$_List_nod@PAXV?$allocator@PAX@std@@@3@XZ
_TEXT	SEGMENT
?_Mynode@const_iterator@?$list@PAXV?$allocator@PAX@std@@@std@@QBEPAU_Node@?$_List_nod@PAXV?$allocator@PAX@std@@@3@XZ PROC NEAR ; std::list<void *,std::allocator<void *> >::const_iterator::_Mynode, COMDAT
; _this$ = ecx

; 207  : 			return (_Ptr);

  00000	8b 01		 mov	 eax, DWORD PTR [ecx]

; 208  : 			}

  00002	c3		 ret	 0
?_Mynode@const_iterator@?$list@PAXV?$allocator@PAX@std@@@std@@QBEPAU_Node@?$_List_nod@PAXV?$allocator@PAX@std@@@3@XZ ENDP ; std::list<void *,std::allocator<void *> >::const_iterator::_Mynode
_TEXT	ENDS
PUBLIC	?deallocate@?$allocator@U_Node@?$_List_nod@PAXV?$allocator@PAX@std@@@std@@@std@@QAEXPAU_Node@?$_List_nod@PAXV?$allocator@PAX@std@@@2@I@Z ; std::allocator<std::_List_nod<void *,std::allocator<void *> >::_Node>::deallocate
; Function compile flags: /Ogty
; File c:\program files\microsoft visual studio .net 2003\vc7\include\xmemory
;	COMDAT ?deallocate@?$allocator@U_Node@?$_List_nod@PAXV?$allocator@PAX@std@@@std@@@std@@QAEXPAU_Node@?$_List_nod@PAXV?$allocator@PAX@std@@@2@I@Z
_TEXT	SEGMENT
__Ptr$ = 8						; size = 4
___formal$ = 12						; size = 4
?deallocate@?$allocator@U_Node@?$_List_nod@PAXV?$allocator@PAX@std@@@std@@@std@@QAEXPAU_Node@?$_List_nod@PAXV?$allocator@PAX@std@@@2@I@Z PROC NEAR ; std::allocator<std::_List_nod<void *,std::allocator<void *> >::_Node>::deallocate, COMDAT
; _this$ = ecx

; 132  : 		operator delete(_Ptr);

  00000	8b 44 24 04	 mov	 eax, DWORD PTR __Ptr$[esp-4]
  00004	50		 push	 eax
  00005	e8 00 00 00 00	 call	 ??3@YAXPAX@Z		; operator delete
  0000a	59		 pop	 ecx

; 133  : 		}

  0000b	c2 08 00	 ret	 8
?deallocate@?$allocator@U_Node@?$_List_nod@PAXV?$allocator@PAX@std@@@std@@@std@@QAEXPAU_Node@?$_List_nod@PAXV?$allocator@PAX@std@@@2@I@Z ENDP ; std::allocator<std::_List_nod<void *,std::allocator<void *> >::_Node>::deallocate
_TEXT	ENDS
PUBLIC	??0const_iterator@?$list@PAXV?$allocator@PAX@std@@@std@@QAE@PAU_Node@?$_List_nod@PAXV?$allocator@PAX@std@@@2@@Z ; std::list<void *,std::allocator<void *> >::const_iterator::const_iterator
; Function compile flags: /Ogty
; File c:\program files\microsoft visual studio .net 2003\vc7\include\list
;	COMDAT ??0const_iterator@?$list@PAXV?$allocator@PAX@std@@@std@@QAE@PAU_Node@?$_List_nod@PAXV?$allocator@PAX@std@@@2@@Z
_TEXT	SEGMENT
__Pnode$ = 8						; size = 4
??0const_iterator@?$list@PAXV?$allocator@PAX@std@@@std@@QAE@PAU_Node@?$_List_nod@PAXV?$allocator@PAX@std@@@2@@Z PROC NEAR ; std::list<void *,std::allocator<void *> >::const_iterator::const_iterator, COMDAT
; _this$ = ecx

; 156  : 			{	// construct with node pointer _Pnode

  00000	8b c1		 mov	 eax, ecx
  00002	8b 4c 24 04	 mov	 ecx, DWORD PTR __Pnode$[esp-4]
  00006	89 08		 mov	 DWORD PTR [eax], ecx

; 157  : 			}

  00008	c2 04 00	 ret	 4
??0const_iterator@?$list@PAXV?$allocator@PAX@std@@@std@@QAE@PAU_Node@?$_List_nod@PAXV?$allocator@PAX@std@@@2@@Z ENDP ; std::list<void *,std::allocator<void *> >::const_iterator::const_iterator
_TEXT	ENDS
PUBLIC	??0_Node@?$_List_nod@PAXV?$allocator@PAX@std@@@std@@QAE@PAU012@0ABQAX@Z ; std::_List_nod<void *,std::allocator<void *> >::_Node::_Node
; Function compile flags: /Ogty
;	COMDAT ??0_Node@?$_List_nod@PAXV?$allocator@PAX@std@@@std@@QAE@PAU012@0ABQAX@Z
_TEXT	SEGMENT
__Nextarg$ = 8						; size = 4
__Prevarg$ = 12						; size = 4
__Myvalarg$ = 16					; size = 4
??0_Node@?$_List_nod@PAXV?$allocator@PAX@std@@@std@@QAE@PAU012@0ABQAX@Z PROC NEAR ; std::_List_nod<void *,std::allocator<void *> >::_Node::_Node, COMDAT
; _this$ = ecx

; 34   : 			{	// construct a node with value

  00000	8b 54 24 08	 mov	 edx, DWORD PTR __Prevarg$[esp-4]
  00004	8b c1		 mov	 eax, ecx
  00006	8b 4c 24 04	 mov	 ecx, DWORD PTR __Nextarg$[esp-4]
  0000a	89 08		 mov	 DWORD PTR [eax], ecx
  0000c	8b 4c 24 0c	 mov	 ecx, DWORD PTR __Myvalarg$[esp-4]
  00010	89 50 04	 mov	 DWORD PTR [eax+4], edx
  00013	8b 11		 mov	 edx, DWORD PTR [ecx]
  00015	89 50 08	 mov	 DWORD PTR [eax+8], edx

; 35   : 			}

  00018	c2 0c 00	 ret	 12			; 0000000cH
??0_Node@?$_List_nod@PAXV?$allocator@PAX@std@@@std@@QAE@PAU012@0ABQAX@Z ENDP ; std::_List_nod<void *,std::allocator<void *> >::_Node::_Node
_TEXT	ENDS
PUBLIC	?max_size@?$allocator@PAX@std@@QBEIXZ		; std::allocator<void *>::max_size
; Function compile flags: /Ogty
; File c:\program files\microsoft visual studio .net 2003\vc7\include\xmemory
;	COMDAT ?max_size@?$allocator@PAX@std@@QBEIXZ
_TEXT	SEGMENT
?max_size@?$allocator@PAX@std@@QBEIXZ PROC NEAR		; std::allocator<void *>::max_size, COMDAT
; _this$ = ecx

; 157  : 		_SIZT _Count = (_SIZT)(-1) / sizeof (_Ty);
; 158  : 		return (0 < _Count ? _Count : 1);

  00000	b8 ff ff ff 3f	 mov	 eax, 1073741823		; 3fffffffH

; 159  : 		}

  00005	c3		 ret	 0
?max_size@?$allocator@PAX@std@@QBEIXZ ENDP		; std::allocator<void *>::max_size
_TEXT	ENDS
PUBLIC	??$_Allocate@D@std@@YAPADIPAD@Z			; std::_Allocate<char>
EXTRN	??2@YAPAXI@Z:NEAR				; operator new
; Function compile flags: /Ogty
;	COMDAT ??$_Allocate@D@std@@YAPADIPAD@Z
_TEXT	SEGMENT
__Count$ = 8						; size = 4
___formal$ = 12						; size = 4
??$_Allocate@D@std@@YAPADIPAD@Z PROC NEAR		; std::_Allocate<char>, COMDAT

; 34   : 	return ((_Ty _FARQ *)operator new(_Count * sizeof (_Ty)));

  00000	8b 44 24 04	 mov	 eax, DWORD PTR __Count$[esp-4]
  00004	50		 push	 eax
  00005	e8 00 00 00 00	 call	 ??2@YAPAXI@Z		; operator new
  0000a	83 c4 04	 add	 esp, 4

; 35   : 	}

  0000d	c3		 ret	 0
??$_Allocate@D@std@@YAPADIPAD@Z ENDP			; std::_Allocate<char>
_TEXT	ENDS
PUBLIC	??$_Allocate@U_Node@?$_List_nod@PAXV?$allocator@PAX@std@@@std@@@std@@YAPAU_Node@?$_List_nod@PAXV?$allocator@PAX@std@@@0@IPAU120@@Z ; std::_Allocate<std::_List_nod<void *,std::allocator<void *> >::_Node>
; Function compile flags: /Ogty
;	COMDAT ??$_Allocate@U_Node@?$_List_nod@PAXV?$allocator@PAX@std@@@std@@@std@@YAPAU_Node@?$_List_nod@PAXV?$allocator@PAX@std@@@0@IPAU120@@Z
_TEXT	SEGMENT
__Count$ = 8						; size = 4
___formal$ = 12						; size = 4
??$_Allocate@U_Node@?$_List_nod@PAXV?$allocator@PAX@std@@@std@@@std@@YAPAU_Node@?$_List_nod@PAXV?$allocator@PAX@std@@@0@IPAU120@@Z PROC NEAR ; std::_Allocate<std::_List_nod<void *,std::allocator<void *> >::_Node>, COMDAT

; 34   : 	return ((_Ty _FARQ *)operator new(_Count * sizeof (_Ty)));

  00000	8b 44 24 04	 mov	 eax, DWORD PTR __Count$[esp-4]
  00004	8d 04 40	 lea	 eax, DWORD PTR [eax+eax*2]
  00007	c1 e0 02	 shl	 eax, 2
  0000a	50		 push	 eax
  0000b	e8 00 00 00 00	 call	 ??2@YAPAXI@Z		; operator new
  00010	83 c4 04	 add	 esp, 4

; 35   : 	}

  00013	c3		 ret	 0
??$_Allocate@U_Node@?$_List_nod@PAXV?$allocator@PAX@std@@@std@@@std@@YAPAU_Node@?$_List_nod@PAXV?$allocator@PAX@std@@@0@IPAU120@@Z ENDP ; std::_Allocate<std::_List_nod<void *,std::allocator<void *> >::_Node>
_TEXT	ENDS
PUBLIC	?Copy@?$CItemContainer@VCItemElem@@@@QAEXAAV1@@Z ; CItemContainer<CItemElem>::Copy
; Function compile flags: /Ogty
; File c:\documents and settings\test\mes documents\source\virtuos_v17\build\program\_network\objects\obj.h
;	COMDAT ?Copy@?$CItemContainer@VCItemElem@@@@QAEXAAV1@@Z
_TEXT	SEGMENT
_rItemContainer$ = 8					; size = 4
?Copy@?$CItemContainer@VCItemElem@@@@QAEXAAV1@@Z PROC NEAR ; CItemContainer<CItemElem>::Copy, COMDAT
; _this$ = ecx

; 789  : {

  00000	53		 push	 ebx
  00001	8b d9		 mov	 ebx, ecx

; 791  : 	memcpy( (void*)m_apIndex, (void*)rItemContainer.m_apIndex, sizeof(DWORD) * m_dwItemMax );

  00003	8b 4b 10	 mov	 ecx, DWORD PTR [ebx+16]
  00006	c1 e1 02	 shl	 ecx, 2
  00009	55		 push	 ebp
  0000a	8b 6c 24 0c	 mov	 ebp, DWORD PTR _rItemContainer$[esp+4]
  0000e	8b 45 08	 mov	 eax, DWORD PTR [ebp+8]
  00011	56		 push	 esi
  00012	8b d1		 mov	 edx, ecx
  00014	57		 push	 edi
  00015	8b 7b 04	 mov	 edi, DWORD PTR [ebx+4]
  00018	89 43 08	 mov	 DWORD PTR [ebx+8], eax
  0001b	8b 75 04	 mov	 esi, DWORD PTR [ebp+4]
  0001e	c1 e9 02	 shr	 ecx, 2
  00021	f3 a5		 rep movsd
  00023	8b ca		 mov	 ecx, edx
  00025	83 e1 03	 and	 ecx, 3
  00028	f3 a4		 rep movsb

; 792  : 	for( u_long i = 0; i < m_dwItemMax; i++ )

  0002a	8b 43 10	 mov	 eax, DWORD PTR [ebx+16]
  0002d	33 ff		 xor	 edi, edi
  0002f	85 c0		 test	 eax, eax
  00031	76 4f		 jbe	 SHORT $L207224

; 790  : 	m_dwIndexNum	= rItemContainer.m_dwIndexNum;

  00033	33 f6		 xor	 esi, esi
$L207921:

; 793  : 	{
; 794  : 		m_apItem[i].m_dwObjId	= rItemContainer.m_apItem[i].m_dwObjId;

  00035	8b 45 0c	 mov	 eax, DWORD PTR [ebp+12]
  00038	8b 54 06 04	 mov	 edx, DWORD PTR [esi+eax+4]
  0003c	8b 4b 0c	 mov	 ecx, DWORD PTR [ebx+12]
  0003f	89 54 31 04	 mov	 DWORD PTR [ecx+esi+4], edx

; 795  : 		m_apItem[i].m_dwObjIndex	= rItemContainer.m_apItem[i].m_dwObjIndex;

  00043	8b 45 0c	 mov	 eax, DWORD PTR [ebp+12]
  00046	8b 4b 0c	 mov	 ecx, DWORD PTR [ebx+12]
  00049	8b 54 06 2c	 mov	 edx, DWORD PTR [esi+eax+44]
  0004d	89 54 31 2c	 mov	 DWORD PTR [ecx+esi+44], edx

; 796  : 		if( rItemContainer.m_apItem[i].IsEmpty() == FALSE )

  00051	8b 45 0c	 mov	 eax, DWORD PTR [ebp+12]
  00054	8b 4c 06 08	 mov	 ecx, DWORD PTR [esi+eax+8]
  00058	85 c9		 test	 ecx, ecx

; 797  : 			m_apItem[i]		= rItemContainer.m_apItem[i];

  0005a	8b 4b 0c	 mov	 ecx, DWORD PTR [ebx+12]
  0005d	74 0d		 je	 SHORT $L207225
  0005f	8b 14 31	 mov	 edx, DWORD PTR [ecx+esi]
  00062	03 ce		 add	 ecx, esi
  00064	03 c6		 add	 eax, esi
  00066	50		 push	 eax
  00067	ff 52 10	 call	 DWORD PTR [edx+16]

; 798  : 		else

  0006a	eb 08		 jmp	 SHORT $L207223
$L207225:

; 799  : 			m_apItem[i].Empty();

  0006c	8b 14 31	 mov	 edx, DWORD PTR [ecx+esi]
  0006f	03 ce		 add	 ecx, esi
  00071	ff 52 04	 call	 DWORD PTR [edx+4]
$L207223:
  00074	8b 43 10	 mov	 eax, DWORD PTR [ebx+16]
  00077	47		 inc	 edi
  00078	81 c6 a0 00 00
	00		 add	 esi, 160		; 000000a0H
  0007e	3b f8		 cmp	 edi, eax
  00080	72 b3		 jb	 SHORT $L207921
$L207224:
  00082	5f		 pop	 edi
  00083	5e		 pop	 esi
  00084	5d		 pop	 ebp
  00085	5b		 pop	 ebx

; 800  : 	}
; 801  : }

  00086	c2 04 00	 ret	 4
?Copy@?$CItemContainer@VCItemElem@@@@QAEXAAV1@@Z ENDP	; CItemContainer<CItemElem>::Copy
_TEXT	ENDS
PUBLIC	??6CAr@@QAEAAV0@H@Z				; CAr::operator<<
; Function compile flags: /Ogty
; File c:\documents and settings\test\mes documents\source\virtuos_v17\build\program\_network\misc\include\ar.h
;	COMDAT ??6CAr@@QAEAAV0@H@Z
_TEXT	SEGMENT
_i$ = 8							; size = 4
??6CAr@@QAEAAV0@H@Z PROC NEAR				; CAr::operator<<, COMDAT
; _this$ = ecx

; 99   : 	{ return CAr::operator<<((LONG)i); }

  00000	56		 push	 esi
  00001	6a 04		 push	 4
  00003	8b f1		 mov	 esi, ecx
  00005	e8 00 00 00 00	 call	 ?CheckBuf@CAr@@QAEXI@Z	; CAr::CheckBuf
  0000a	8b 46 08	 mov	 eax, DWORD PTR [esi+8]
  0000d	8b 4c 24 08	 mov	 ecx, DWORD PTR _i$[esp]
  00011	89 08		 mov	 DWORD PTR [eax], ecx
  00013	83 46 08 04	 add	 DWORD PTR [esi+8], 4
  00017	8b c6		 mov	 eax, esi
  00019	5e		 pop	 esi
  0001a	c2 04 00	 ret	 4
??6CAr@@QAEAAV0@H@Z ENDP				; CAr::operator<<
_TEXT	ENDS
PUBLIC	??3CMover@@SAXPAX@Z				; CMover::operator delete
EXTRN	?m_pPool@CMover@@2PAV?$MemPooler@VCMover@@@@A:DWORD ; CMover::m_pPool
; Function compile flags: /Ogty
; File c:\documents and settings\test\mes documents\source\virtuos_v17\build\program\_network\objects\obj.h
;	COMDAT ??3CMover@@SAXPAX@Z
_TEXT	SEGMENT
_lpMem$ = 8						; size = 4
??3CMover@@SAXPAX@Z PROC NEAR				; CMover::operator delete, COMDAT

; 1219 : 	void	operator delete( void* lpMem )	{	CMover::m_pPool->Free( (CMover*)lpMem );	}

  00000	53		 push	 ebx
  00001	56		 push	 esi
  00002	8b 35 00 00 00
	00		 mov	 esi, DWORD PTR ?m_pPool@CMover@@2PAV?$MemPooler@VCMover@@@@A ; CMover::m_pPool
  00008	57		 push	 edi
  00009	8d 5e 1c	 lea	 ebx, DWORD PTR [esi+28]
  0000c	53		 push	 ebx
  0000d	ff 15 00 00 00
	00		 call	 DWORD PTR __imp__EnterCriticalSection@4
  00013	8b 4e 18	 mov	 ecx, DWORD PTR [esi+24]
  00016	85 c9		 test	 ecx, ecx
  00018	8b 7c 24 10	 mov	 edi, DWORD PTR _lpMem$[esp+8]
  0001c	8d 47 fc	 lea	 eax, DWORD PTR [edi-4]
  0001f	7e 09		 jle	 SHORT $L207933
  00021	8b 0e		 mov	 ecx, DWORD PTR [esi]
  00023	89 08		 mov	 DWORD PTR [eax], ecx
  00025	89 06		 mov	 DWORD PTR [esi], eax
  00027	ff 4e 18	 dec	 DWORD PTR [esi+24]
$L207933:
  0002a	33 c0		 xor	 eax, eax
  0002c	b9 c2 11 00 00	 mov	 ecx, 4546		; 000011c2H
  00031	53		 push	 ebx
  00032	f3 ab		 rep stosd
  00034	ff 15 00 00 00
	00		 call	 DWORD PTR __imp__LeaveCriticalSection@4
  0003a	5f		 pop	 edi
  0003b	5e		 pop	 esi
  0003c	5b		 pop	 ebx
  0003d	c3		 ret	 0
??3CMover@@SAXPAX@Z ENDP				; CMover::operator delete
_TEXT	ENDS
PUBLIC	??0?$_String_val@DV?$allocator@D@std@@@std@@IAE@V?$allocator@D@1@@Z ; std::_String_val<char,std::allocator<char> >::_String_val<char,std::allocator<char> >
; Function compile flags: /Ogty
; File c:\program files\microsoft visual studio .net 2003\vc7\include\xstring
;	COMDAT ??0?$_String_val@DV?$allocator@D@std@@@std@@IAE@V?$allocator@D@1@@Z
_TEXT	SEGMENT
__Al$ = 8						; size = 1
??0?$_String_val@DV?$allocator@D@std@@@std@@IAE@V?$allocator@D@1@@Z PROC NEAR ; std::_String_val<char,std::allocator<char> >::_String_val<char,std::allocator<char> >, COMDAT
; _this$ = ecx

; 34   : 		{	// construct allocator from _Al

  00000	8b c1		 mov	 eax, ecx

; 35   : 		}

  00002	c2 04 00	 ret	 4
??0?$_String_val@DV?$allocator@D@std@@@std@@IAE@V?$allocator@D@1@@Z ENDP ; std::_String_val<char,std::allocator<char> >::_String_val<char,std::allocator<char> >
_TEXT	ENDS
PUBLIC	?_Eos@?$basic_string@DU?$char_traits@D@std@@V?$allocator@D@2@@std@@IAEXI@Z ; std::basic_string<char,std::char_traits<char>,std::allocator<char> >::_Eos
; Function compile flags: /Ogty
;	COMDAT ?_Eos@?$basic_string@DU?$char_traits@D@std@@V?$allocator@D@2@@std@@IAEXI@Z
_TEXT	SEGMENT
__Newsize$ = 8						; size = 4
?_Eos@?$basic_string@DU?$char_traits@D@std@@V?$allocator@D@2@@std@@IAEXI@Z PROC NEAR ; std::basic_string<char,std::char_traits<char>,std::allocator<char> >::_Eos, COMDAT
; _this$ = ecx

; 1475 : 		_Traits::assign(_Myptr()[_Mysize = _Newsize], _Elem());

  00000	83 79 18 10	 cmp	 DWORD PTR [ecx+24], 16	; 00000010H
  00004	8b 44 24 04	 mov	 eax, DWORD PTR __Newsize$[esp-4]
  00008	89 41 14	 mov	 DWORD PTR [ecx+20], eax
  0000b	72 0a		 jb	 SHORT $L207947
  0000d	8b 49 04	 mov	 ecx, DWORD PTR [ecx+4]
  00010	c6 04 01 00	 mov	 BYTE PTR [ecx+eax], 0

; 1476 : 		}

  00014	c2 04 00	 ret	 4

; 1475 : 		_Traits::assign(_Myptr()[_Mysize = _Newsize], _Elem());

$L207947:
  00017	c6 44 01 04 00	 mov	 BYTE PTR [ecx+eax+4], 0

; 1476 : 		}

  0001c	c2 04 00	 ret	 4
?_Eos@?$basic_string@DU?$char_traits@D@std@@V?$allocator@D@2@@std@@IAEXI@Z ENDP ; std::basic_string<char,std::char_traits<char>,std::allocator<char> >::_Eos
_TEXT	ENDS
PUBLIC	?max_size@?$basic_string@DU?$char_traits@D@std@@V?$allocator@D@2@@std@@QBEIXZ ; std::basic_string<char,std::char_traits<char>,std::allocator<char> >::max_size
; Function compile flags: /Ogty
;	COMDAT ?max_size@?$basic_string@DU?$char_traits@D@std@@V?$allocator@D@2@@std@@QBEIXZ
_TEXT	SEGMENT
?max_size@?$basic_string@DU?$char_traits@D@std@@V?$allocator@D@2@@std@@QBEIXZ PROC NEAR ; std::basic_string<char,std::char_traits<char>,std::allocator<char> >::max_size, COMDAT
; _this$ = ecx

; 1114 : 		size_type _Num = _Mybase::_Alval.max_size();
; 1115 : 		return (_Num <= 1 ? 1 : _Num - 1);

  00000	b8 fe ff ff ff	 mov	 eax, -2			; fffffffeH

; 1116 : 		}

  00005	c3		 ret	 0
?max_size@?$basic_string@DU?$char_traits@D@std@@V?$allocator@D@2@@std@@QBEIXZ ENDP ; std::basic_string<char,std::char_traits<char>,std::allocator<char> >::max_size
_TEXT	ENDS
PUBLIC	?allocate@?$allocator@D@std@@QAEPADI@Z		; std::allocator<char>::allocate
; Function compile flags: /Ogty
; File c:\program files\microsoft visual studio .net 2003\vc7\include\xmemory
;	COMDAT ?allocate@?$allocator@D@std@@QAEPADI@Z
_TEXT	SEGMENT
__Count$ = 8						; size = 4
?allocate@?$allocator@D@std@@QAEPADI@Z PROC NEAR	; std::allocator<char>::allocate, COMDAT
; _this$ = ecx

; 137  : 		return (_Allocate(_Count, (pointer)0));

  00000	8b 44 24 04	 mov	 eax, DWORD PTR __Count$[esp-4]
  00004	50		 push	 eax
  00005	e8 00 00 00 00	 call	 ??2@YAPAXI@Z		; operator new
  0000a	83 c4 04	 add	 esp, 4

; 138  : 		}

  0000d	c2 04 00	 ret	 4
?allocate@?$allocator@D@std@@QAEPADI@Z ENDP		; std::allocator<char>::allocate
_TEXT	ENDS
PUBLIC	??0iterator@?$list@PAXV?$allocator@PAX@std@@@std@@QAE@PAU_Node@?$_List_nod@PAXV?$allocator@PAX@std@@@2@@Z ; std::list<void *,std::allocator<void *> >::iterator::iterator
; Function compile flags: /Ogty
; File c:\program files\microsoft visual studio .net 2003\vc7\include\list
;	COMDAT ??0iterator@?$list@PAXV?$allocator@PAX@std@@@std@@QAE@PAU_Node@?$_List_nod@PAXV?$allocator@PAX@std@@@2@@Z
_TEXT	SEGMENT
__Pnode$ = 8						; size = 4
??0iterator@?$list@PAXV?$allocator@PAX@std@@@std@@QAE@PAU_Node@?$_List_nod@PAXV?$allocator@PAX@std@@@2@@Z PROC NEAR ; std::list<void *,std::allocator<void *> >::iterator::iterator, COMDAT
; _this$ = ecx

; 235  : 			{	// construct with node pointer _Pnode

  00000	8b c1		 mov	 eax, ecx
  00002	8b 4c 24 04	 mov	 ecx, DWORD PTR __Pnode$[esp-4]
  00006	89 08		 mov	 DWORD PTR [eax], ecx

; 236  : 			}

  00008	c2 04 00	 ret	 4
??0iterator@?$list@PAXV?$allocator@PAX@std@@@std@@QAE@PAU_Node@?$_List_nod@PAXV?$allocator@PAX@std@@@2@@Z ENDP ; std::list<void *,std::allocator<void *> >::iterator::iterator
_TEXT	ENDS
PUBLIC	?max_size@?$list@PAXV?$allocator@PAX@std@@@std@@QBEIXZ ; std::list<void *,std::allocator<void *> >::max_size
; Function compile flags: /Ogty
;	COMDAT ?max_size@?$list@PAXV?$allocator@PAX@std@@@std@@QBEIXZ
_TEXT	SEGMENT
?max_size@?$list@PAXV?$allocator@PAX@std@@@std@@QBEIXZ PROC NEAR ; std::list<void *,std::allocator<void *> >::max_size, COMDAT
; _this$ = ecx

; 436  : 		return (this->_Alval.max_size());

  00000	b8 ff ff ff 3f	 mov	 eax, 1073741823		; 3fffffffH

; 437  : 		}

  00005	c3		 ret	 0
?max_size@?$list@PAXV?$allocator@PAX@std@@@std@@QBEIXZ ENDP ; std::list<void *,std::allocator<void *> >::max_size
_TEXT	ENDS
PUBLIC	?allocate@?$allocator@U_Node@?$_List_nod@PAXV?$allocator@PAX@std@@@std@@@std@@QAEPAU_Node@?$_List_nod@PAXV?$allocator@PAX@std@@@2@I@Z ; std::allocator<std::_List_nod<void *,std::allocator<void *> >::_Node>::allocate
; Function compile flags: /Ogty
; File c:\program files\microsoft visual studio .net 2003\vc7\include\xmemory
;	COMDAT ?allocate@?$allocator@U_Node@?$_List_nod@PAXV?$allocator@PAX@std@@@std@@@std@@QAEPAU_Node@?$_List_nod@PAXV?$allocator@PAX@std@@@2@I@Z
_TEXT	SEGMENT
__Count$ = 8						; size = 4
?allocate@?$allocator@U_Node@?$_List_nod@PAXV?$allocator@PAX@std@@@std@@@std@@QAEPAU_Node@?$_List_nod@PAXV?$allocator@PAX@std@@@2@I@Z PROC NEAR ; std::allocator<std::_List_nod<void *,std::allocator<void *> >::_Node>::allocate, COMDAT
; _this$ = ecx

; 137  : 		return (_Allocate(_Count, (pointer)0));

  00000	8b 44 24 04	 mov	 eax, DWORD PTR __Count$[esp-4]
  00004	8d 04 40	 lea	 eax, DWORD PTR [eax+eax*2]
  00007	c1 e0 02	 shl	 eax, 2
  0000a	50		 push	 eax
  0000b	e8 00 00 00 00	 call	 ??2@YAPAXI@Z		; operator new
  00010	83 c4 04	 add	 esp, 4

; 138  : 		}

  00013	c2 04 00	 ret	 4
?allocate@?$allocator@U_Node@?$_List_nod@PAXV?$allocator@PAX@std@@@std@@@std@@QAEPAU_Node@?$_List_nod@PAXV?$allocator@PAX@std@@@2@I@Z ENDP ; std::allocator<std::_List_nod<void *,std::allocator<void *> >::_Node>::allocate
_TEXT	ENDS
PUBLIC	??_C@_0CE@DOPOPHPI@DATABASESERVER?4EXE?7?1?1?5JOIN_1?7?1?1?5@ ; `string'
PUBLIC	?SendJoin@CDbManager@@QAEXPAVCMover@@PAUtagDB_OVERLAPPED_PLUS@@KKPBD2KKHHPAUTAG_ENTRY@@2@Z ; CDbManager::SendJoin
EXTRN	?Serialize@CRTMessenger@@QAEHAAVCAr@@@Z:NEAR	; CRTMessenger::Serialize
EXTRN	__imp__OutputDebugStringA@4:NEAR
EXTRN	__except_list:DWORD
EXTRN	__chkstk:NEAR
EXTRN	___CxxFrameHandler:NEAR
EXTRN	__imp__GetLocalTime@4:NEAR
EXTRN	_sprintf:NEAR
EXTRN	?WriteTag@CDbManager@@AAEXAAVCAr@@HPBUTAG_ENTRY@@@Z:NEAR ; CDbManager::WriteTag
EXTRN	??0CAr@@QAE@PAXI@Z:NEAR				; CAr::CAr
EXTRN	??1CAr@@QAE@XZ:NEAR				; CAr::~CAr
EXTRN	?WriteString@CAr@@QAEXPBD@Z:NEAR		; CAr::WriteString
EXTRN	?GetBuffer@CAr@@QAEPAEPAH@Z:NEAR		; CAr::GetBuffer
EXTRN	?Serialize@CUserTaskBar@@QAEXAAVCAr@@@Z:NEAR	; CUserTaskBar::Serialize
EXTRN	?GetInstance@CDPTrans@@SAPAV1@XZ:NEAR		; CDPTrans::GetInstance
;	COMDAT xdata$x
; File c:\documents and settings\test\mes documents\source\virtuos_v17\build\program\_network\net\include\dpmng.h
xdata$x	SEGMENT
$T208139 DD	0ffffffffH
	DD	FLAT:$L207996
$T208133 DD	019930520H
	DD	01H
	DD	FLAT:$T208139
	DD	2 DUP(00H)
	DD	2 DUP(00H)
xdata$x	ENDS
;	COMDAT ??_C@_0CE@DOPOPHPI@DATABASESERVER?4EXE?7?1?1?5JOIN_1?7?1?1?5@
CONST	SEGMENT
??_C@_0CE@DOPOPHPI@DATABASESERVER?4EXE?7?1?1?5JOIN_1?7?1?1?5@ DB 'DATABAS'
	DB	'ESERVER.EXE', 09H, '// JOIN_1', 09H, '// %d', 0aH, 00H ; `string'
; Function compile flags: /Ogty
; File c:\documents and settings\test\mes documents\source\virtuos_v17\build\program\_database\dbmanagerjoin.cpp
CONST	ENDS
;	COMDAT ?SendJoin@CDbManager@@QAEXPAVCMover@@PAUtagDB_OVERLAPPED_PLUS@@KKPBD2KKHHPAUTAG_ENTRY@@2@Z
_TEXT	SEGMENT
$T208129 = -16736					; size = 4
$T208059 = -16736					; size = 8
$T208055 = -16736					; size = 12
$T208125 = -16724					; size = 4
_nBufSize$ = -16720					; size = 4
$T208127 = -16716					; size = 4
$T208126 = -16712					; size = 4
$T208128 = -16708					; size = 4
$T208123 = -16704					; size = 4
$T208016 = -16700					; size = 68
_playAccount$ = -16632					; size = 68
_ar$ = -16560						; size = 16404
_lpOutputString$ = -152					; size = 128
__$ArrayPad$ = -20					; size = 4
__$EHRec$ = -12						; size = 12
__$ReturnAddr$ = 4					; size = 4
_pMover$ = 8						; size = 4
_lpDBOP$ = 12						; size = 4
_dwAuthKey$ = 16					; size = 4
_dwBillingClass$ = 20					; size = 4
_szPartyName$ = 24					; size = 4
_szBankPass$ = 28					; size = 4
_dwPlayTime$ = 32					; size = 4
_dwFlyTime$ = 36					; size = 4
_nMaximumLevel$ = 40					; size = 4
_nTags$ = 44						; size = 4
_tags$ = 48						; size = 4
_szTimeGuild$ = 52					; size = 4
?SendJoin@CDbManager@@QAEXPAVCMover@@PAUtagDB_OVERLAPPED_PLUS@@KKPBD2KKHHPAUTAG_ENTRY@@2@Z PROC NEAR ; CDbManager::SendJoin, COMDAT
; _this$ = ecx

; 47   : {

  00000	55		 push	 ebp
  00001	8b ec		 mov	 ebp, esp
  00003	83 e4 f8	 and	 esp, -8			; fffffff8H
  00006	6a ff		 push	 -1
  00008	68 00 00 00 00	 push	 __ehhandler$?SendJoin@CDbManager@@QAEXPAVCMover@@PAUtagDB_OVERLAPPED_PLUS@@KKPBD2KKHHPAUTAG_ENTRY@@2@Z
  0000d	64 a1 00 00 00
	00		 mov	 eax, DWORD PTR fs:__except_list
  00013	50		 push	 eax
  00014	64 89 25 00 00
	00 00		 mov	 DWORD PTR fs:__except_list, esp
  0001b	51		 push	 ecx
  0001c	b8 54 41 00 00	 mov	 eax, 16724		; 00004154H
  00021	e8 00 00 00 00	 call	 __chkstk
  00026	a1 00 00 00 00	 mov	 eax, DWORD PTR ___security_cookie
  0002b	8b 55 30	 mov	 edx, DWORD PTR _tags$[ebp]
  0002e	33 c5		 xor	 eax, ebp
  00030	89 84 24 50 41
	00 00		 mov	 DWORD PTR __$ArrayPad$[esp+16740], eax
  00037	8b 45 18	 mov	 eax, DWORD PTR _szPartyName$[ebp]
  0003a	53		 push	 ebx
  0003b	8b 5d 08	 mov	 ebx, DWORD PTR _pMover$[ebp]

; 48   : 	PLAY_ACCOUNT playAccount;
; 49   : 	_tcscpy( playAccount.lpszAccount, lpDBOP->AccountInfo.szAccount );
; 50   : 	GetLocalTime( &playAccount.m_stLogin );
; 51   : #ifdef __BILLING0712
; 52   : 	playAccount.dwBillingClass	= dwBillingClass;
; 53   : #endif	// __BILLING0712
; 54   : 
; 55   : 	BEFORESENDDUAL( ar, PACKETTYPE_JOIN, lpDBOP->dpidCache, lpDBOP->dpidUser );
; 56   : 	ar << dwAuthKey;
; 57   : 	ar << playAccount;
; 58   : 	ar << pMover->m_dwWorldID;
; 59   : #ifdef __LAYER_1015
; 60   : 	ar << pMover->GetLayer();
; 61   : #endif	// __LAYER_1015
; 62   : 	ar << pMover->m_dwIndex;
; 63   : 	pMover->Serialize( ar );			
; 64   : 	pMover->m_UserTaskBar.Serialize( ar );
; 65   : #ifdef __RT_1025
; 66   : 	pMover->m_RTMessenger.Serialize( ar );
; 67   : #else	// __RT_1025
; 68   : 	pMover->m_Messenger.Serialize( ar );
; 69   : #endif	// __RT_1025
; 70   : 	ar.WriteString( szPartyName );
; 71   : 	ar.WriteString( szBankPass );
; 72   : 	ar << dwPlayTime;
; 73   : #ifndef __JEFF_9_20
; 74   : 	ar << dwFlyTime;
; 75   : #endif	// __JEFF_9_20
; 76   : 	ar << nMaximumLevel;
; 77   : 	WriteTag(ar, nTags, tags);	//   
; 78   : 	ar.WriteString( szTimeGuild );
; 79   : 	ar << pMover->m_dwReturnWorldID;
; 80   : 	ar << pMover->m_vReturnPos;
; 81   : 
; 82   : #ifdef __EVENT_1101
; 83   : #ifdef __EVENT_1101_2
; 84   : 	ar << pMover->m_nEventFlag;
; 85   : #else // __EVENT_1101_2
; 86   : 	ar << pMover->m_dwEventFlag;
; 87   : #endif // __EVENT_1101_2
; 88   : 	ar << pMover->m_dwEventTime;
; 89   : 	ar << pMover->m_dwEventElapsed;
; 90   : #endif	// __EVENT_1101
; 91   : 
; 92   : #ifdef __EXP_ANGELEXP_LOG
; 93   : 	ar << pMover->m_nExpLog;
; 94   : 	ar << pMover->m_nAngelExpLog;
; 95   : #endif // __EXP_ANGELEXP_LOG
; 96   : 
; 97   : #ifdef __EVENTLUA_COUPON
; 98   : 	ar << pMover->m_nCoupon;
; 99   : #endif // __EVENTLUA_COUPON
; 100  : #if __VER >= 14 // __PCBANG
; 101  : 	ar << pMover->m_dwPCBangClass;
; 102  : #endif // __PCBANG
; 103  : #if __VER >= 15 // __GUILD_HOUSE
; 104  : 	ar << pMover->m_nRestPoint << static_cast<time_t>( pMover->m_tLogOut ? time_null() - pMover->m_tLogOut : 0 );

  0003e	89 44 24 20	 mov	 DWORD PTR $T208126[esp+16744], eax
  00042	8b 45 34	 mov	 eax, DWORD PTR _szTimeGuild$[ebp]
  00045	56		 push	 esi
  00046	8b 75 0c	 mov	 esi, DWORD PTR _lpDBOP$[ebp]
  00049	57		 push	 edi
  0004a	89 4c 24 30	 mov	 DWORD PTR $T208123[esp+16752], ecx
  0004e	8b 4d 1c	 mov	 ecx, DWORD PTR _szBankPass$[ebp]
  00051	89 44 24 10	 mov	 DWORD PTR $T208129[esp+16752], eax
  00055	8d 46 20	 lea	 eax, DWORD PTR [esi+32]
  00058	8d 7c 24 78	 lea	 edi, DWORD PTR _playAccount$[esp+16752]
  0005c	89 74 24 1c	 mov	 DWORD PTR $T208125[esp+16752], esi
  00060	89 4c 24 24	 mov	 DWORD PTR $T208127[esp+16752], ecx
  00064	89 54 24 2c	 mov	 DWORD PTR $T208128[esp+16752], edx
  00068	2b f8		 sub	 edi, eax
  0006a	8d 9b 00 00 00
	00		 npad	 6
$L207993:
  00070	8a 08		 mov	 cl, BYTE PTR [eax]
  00072	88 0c 07	 mov	 BYTE PTR [edi+eax], cl
  00075	40		 inc	 eax
  00076	84 c9		 test	 cl, cl
  00078	75 f6		 jne	 SHORT $L207993
  0007a	8d 8c 24 9c 00
	00 00		 lea	 ecx, DWORD PTR _playAccount$[esp+16788]
  00081	51		 push	 ecx
  00082	ff 15 00 00 00
	00		 call	 DWORD PTR __imp__GetLocalTime@4
  00088	6a 00		 push	 0
  0008a	6a 00		 push	 0
  0008c	8d 8c 24 c8 00
	00 00		 lea	 ecx, DWORD PTR _ar$[esp+16760]
  00093	e8 00 00 00 00	 call	 ??0CAr@@QAE@PAXI@Z	; CAr::CAr
  00098	8b be ac 00 00
	00		 mov	 edi, DWORD PTR [esi+172]
  0009e	6a 04		 push	 4
  000a0	8d 8c 24 c4 00
	00 00		 lea	 ecx, DWORD PTR _ar$[esp+16756]
  000a7	c7 84 24 70 41
	00 00 00 00 00
	00		 mov	 DWORD PTR __$EHRec$[esp+16764], 0
  000b2	e8 00 00 00 00	 call	 ?CheckBuf@CAr@@QAEXI@Z	; CAr::CheckBuf
  000b7	8b 94 24 c8 00
	00 00		 mov	 edx, DWORD PTR _ar$[esp+16760]
  000be	89 3a		 mov	 DWORD PTR [edx], edi
  000c0	8b 94 24 c8 00
	00 00		 mov	 edx, DWORD PTR _ar$[esp+16760]
  000c7	8b b6 b0 00 00
	00		 mov	 esi, DWORD PTR [esi+176]
  000cd	bf 04 00 00 00	 mov	 edi, 4
  000d2	03 d7		 add	 edx, edi
  000d4	57		 push	 edi
  000d5	8d 8c 24 c4 00
	00 00		 lea	 ecx, DWORD PTR _ar$[esp+16756]
  000dc	89 94 24 cc 00
	00 00		 mov	 DWORD PTR _ar$[esp+16764], edx
  000e3	e8 00 00 00 00	 call	 ?CheckBuf@CAr@@QAEXI@Z	; CAr::CheckBuf
  000e8	8b 84 24 c8 00
	00 00		 mov	 eax, DWORD PTR _ar$[esp+16760]
  000ef	89 30		 mov	 DWORD PTR [eax], esi
  000f1	8b 84 24 c8 00
	00 00		 mov	 eax, DWORD PTR _ar$[esp+16760]
  000f8	03 c7		 add	 eax, edi
  000fa	57		 push	 edi
  000fb	8d 8c 24 c4 00
	00 00		 lea	 ecx, DWORD PTR _ar$[esp+16756]
  00102	89 84 24 cc 00
	00 00		 mov	 DWORD PTR _ar$[esp+16764], eax
  00109	e8 00 00 00 00	 call	 ?CheckBuf@CAr@@QAEXI@Z	; CAr::CheckBuf
  0010e	8b 8c 24 c8 00
	00 00		 mov	 ecx, DWORD PTR _ar$[esp+16760]
  00115	c7 01 00 ff 00
	00		 mov	 DWORD PTR [ecx], 65280	; 0000ff00H
  0011b	8b 94 24 c8 00
	00 00		 mov	 edx, DWORD PTR _ar$[esp+16760]
  00122	03 d7		 add	 edx, edi
  00124	57		 push	 edi
  00125	8d 8c 24 c4 00
	00 00		 lea	 ecx, DWORD PTR _ar$[esp+16756]
  0012c	89 94 24 cc 00
	00 00		 mov	 DWORD PTR _ar$[esp+16764], edx
  00133	e8 00 00 00 00	 call	 ?CheckBuf@CAr@@QAEXI@Z	; CAr::CheckBuf
  00138	8b 94 24 c8 00
	00 00		 mov	 edx, DWORD PTR _ar$[esp+16760]
  0013f	8b 45 10	 mov	 eax, DWORD PTR _dwAuthKey$[ebp]
  00142	89 02		 mov	 DWORD PTR [edx], eax
  00144	8b 84 24 c8 00
	00 00		 mov	 eax, DWORD PTR _ar$[esp+16760]
  0014b	03 c7		 add	 eax, edi
  0014d	b9 11 00 00 00	 mov	 ecx, 17			; 00000011H
  00152	8d 74 24 78	 lea	 esi, DWORD PTR _playAccount$[esp+16752]
  00156	8d 7c 24 34	 lea	 edi, DWORD PTR $T208016[esp+16752]
  0015a	f3 a5		 rep movsd
  0015c	6a 44		 push	 68			; 00000044H
  0015e	8d 4c 24 38	 lea	 ecx, DWORD PTR $T208016[esp+16756]
  00162	51		 push	 ecx
  00163	8d 8c 24 c8 00
	00 00		 lea	 ecx, DWORD PTR _ar$[esp+16760]
  0016a	89 84 24 d0 00
	00 00		 mov	 DWORD PTR _ar$[esp+16768], eax
  00171	e8 00 00 00 00	 call	 ?Write@CAr@@QAEXPBXI@Z	; CAr::Write
  00176	8b b3 f4 41 00
	00		 mov	 esi, DWORD PTR [ebx+16884]
  0017c	bf 04 00 00 00	 mov	 edi, 4
  00181	57		 push	 edi
  00182	8d 8c 24 c4 00
	00 00		 lea	 ecx, DWORD PTR _ar$[esp+16756]
  00189	e8 00 00 00 00	 call	 ?CheckBuf@CAr@@QAEXI@Z	; CAr::CheckBuf
  0018e	8b 94 24 c8 00
	00 00		 mov	 edx, DWORD PTR _ar$[esp+16760]
  00195	89 32		 mov	 DWORD PTR [edx], esi
  00197	01 bc 24 c8 00
	00 00		 add	 DWORD PTR _ar$[esp+16760], edi
  0019e	8b 73 2c	 mov	 esi, DWORD PTR [ebx+44]
  001a1	57		 push	 edi
  001a2	8d 8c 24 c4 00
	00 00		 lea	 ecx, DWORD PTR _ar$[esp+16756]
  001a9	e8 00 00 00 00	 call	 ?CheckBuf@CAr@@QAEXI@Z	; CAr::CheckBuf
  001ae	8b 84 24 c8 00
	00 00		 mov	 eax, DWORD PTR _ar$[esp+16760]
  001b5	89 30		 mov	 DWORD PTR [eax], esi
  001b7	8b 8c 24 c8 00
	00 00		 mov	 ecx, DWORD PTR _ar$[esp+16760]
  001be	8b 73 08	 mov	 esi, DWORD PTR [ebx+8]
  001c1	03 cf		 add	 ecx, edi
  001c3	89 8c 24 c8 00
	00 00		 mov	 DWORD PTR _ar$[esp+16760], ecx
  001ca	57		 push	 edi
  001cb	8d 8c 24 c4 00
	00 00		 lea	 ecx, DWORD PTR _ar$[esp+16756]
  001d2	e8 00 00 00 00	 call	 ?CheckBuf@CAr@@QAEXI@Z	; CAr::CheckBuf
  001d7	8b 8c 24 c8 00
	00 00		 mov	 ecx, DWORD PTR _ar$[esp+16760]
  001de	89 31		 mov	 DWORD PTR [ecx], esi
  001e0	8b 94 24 c8 00
	00 00		 mov	 edx, DWORD PTR _ar$[esp+16760]
  001e7	03 d7		 add	 edx, edi
  001e9	8d 84 24 c0 00
	00 00		 lea	 eax, DWORD PTR _ar$[esp+16752]
  001f0	89 94 24 c8 00
	00 00		 mov	 DWORD PTR _ar$[esp+16760], edx
  001f7	8b 13		 mov	 edx, DWORD PTR [ebx]
  001f9	50		 push	 eax
  001fa	8b cb		 mov	 ecx, ebx
  001fc	ff 52 04	 call	 DWORD PTR [edx+4]
  001ff	8d 8c 24 c0 00
	00 00		 lea	 ecx, DWORD PTR _ar$[esp+16752]
  00206	51		 push	 ecx
  00207	8d 8b e8 02 00
	00		 lea	 ecx, DWORD PTR [ebx+744]
  0020d	e8 00 00 00 00	 call	 ?Serialize@CUserTaskBar@@QAEXAAVCAr@@@Z ; CUserTaskBar::Serialize
  00212	8d 94 24 c0 00
	00 00		 lea	 edx, DWORD PTR _ar$[esp+16752]
  00219	52		 push	 edx
  0021a	8d 8b b4 40 00
	00		 lea	 ecx, DWORD PTR [ebx+16564]
  00220	e8 00 00 00 00	 call	 ?Serialize@CRTMessenger@@QAEHAAVCAr@@@Z ; CRTMessenger::Serialize
  00225	8b 44 24 28	 mov	 eax, DWORD PTR $T208126[esp+16752]
  00229	50		 push	 eax
  0022a	8d 8c 24 c4 00
	00 00		 lea	 ecx, DWORD PTR _ar$[esp+16756]
  00231	e8 00 00 00 00	 call	 ?WriteString@CAr@@QAEXPBD@Z ; CAr::WriteString
  00236	8b 4c 24 24	 mov	 ecx, DWORD PTR $T208127[esp+16752]
  0023a	51		 push	 ecx
  0023b	8d 8c 24 c4 00
	00 00		 lea	 ecx, DWORD PTR _ar$[esp+16756]
  00242	e8 00 00 00 00	 call	 ?WriteString@CAr@@QAEXPBD@Z ; CAr::WriteString
  00247	57		 push	 edi
  00248	8d 8c 24 c4 00
	00 00		 lea	 ecx, DWORD PTR _ar$[esp+16756]
  0024f	e8 00 00 00 00	 call	 ?CheckBuf@CAr@@QAEXI@Z	; CAr::CheckBuf
  00254	8b 94 24 c8 00
	00 00		 mov	 edx, DWORD PTR _ar$[esp+16760]
  0025b	8b 45 20	 mov	 eax, DWORD PTR _dwPlayTime$[ebp]
  0025e	89 02		 mov	 DWORD PTR [edx], eax
  00260	8b 94 24 c8 00
	00 00		 mov	 edx, DWORD PTR _ar$[esp+16760]
  00267	03 d7		 add	 edx, edi
  00269	57		 push	 edi
  0026a	8d 8c 24 c4 00
	00 00		 lea	 ecx, DWORD PTR _ar$[esp+16756]
  00271	89 94 24 cc 00
	00 00		 mov	 DWORD PTR _ar$[esp+16764], edx
  00278	e8 00 00 00 00	 call	 ?CheckBuf@CAr@@QAEXI@Z	; CAr::CheckBuf
  0027d	8b 8c 24 c8 00
	00 00		 mov	 ecx, DWORD PTR _ar$[esp+16760]
  00284	8b 55 28	 mov	 edx, DWORD PTR _nMaximumLevel$[ebp]
  00287	89 11		 mov	 DWORD PTR [ecx], edx
  00289	8b 84 24 c8 00
	00 00		 mov	 eax, DWORD PTR _ar$[esp+16760]
  00290	8b 4d 2c	 mov	 ecx, DWORD PTR _nTags$[ebp]
  00293	03 c7		 add	 eax, edi
  00295	89 84 24 c8 00
	00 00		 mov	 DWORD PTR _ar$[esp+16760], eax
  0029c	8b 44 24 2c	 mov	 eax, DWORD PTR $T208128[esp+16752]
  002a0	50		 push	 eax
  002a1	51		 push	 ecx
  002a2	8b 4c 24 38	 mov	 ecx, DWORD PTR $T208123[esp+16760]
  002a6	8d 94 24 c8 00
	00 00		 lea	 edx, DWORD PTR _ar$[esp+16760]
  002ad	52		 push	 edx
  002ae	e8 00 00 00 00	 call	 ?WriteTag@CDbManager@@AAEXAAVCAr@@HPBUTAG_ENTRY@@@Z ; CDbManager::WriteTag
  002b3	8b 44 24 10	 mov	 eax, DWORD PTR $T208129[esp+16752]
  002b7	50		 push	 eax
  002b8	8d 8c 24 c4 00
	00 00		 lea	 ecx, DWORD PTR _ar$[esp+16756]
  002bf	e8 00 00 00 00	 call	 ?WriteString@CAr@@QAEXPBD@Z ; CAr::WriteString
  002c4	8b b3 e8 41 00
	00		 mov	 esi, DWORD PTR [ebx+16872]
  002ca	57		 push	 edi
  002cb	8d 8c 24 c4 00
	00 00		 lea	 ecx, DWORD PTR _ar$[esp+16756]
  002d2	e8 00 00 00 00	 call	 ?CheckBuf@CAr@@QAEXI@Z	; CAr::CheckBuf
  002d7	8b 8c 24 c8 00
	00 00		 mov	 ecx, DWORD PTR _ar$[esp+16760]
  002de	89 31		 mov	 DWORD PTR [ecx], esi
  002e0	8b 8c 24 c8 00
	00 00		 mov	 ecx, DWORD PTR _ar$[esp+16760]
  002e7	03 cf		 add	 ecx, edi
  002e9	8d 93 dc 41 00
	00		 lea	 edx, DWORD PTR [ebx+16860]
  002ef	8b 02		 mov	 eax, DWORD PTR [edx]
  002f1	89 8c 24 c8 00
	00 00		 mov	 DWORD PTR _ar$[esp+16760], ecx
  002f8	8b 4a 04	 mov	 ecx, DWORD PTR [edx+4]
  002fb	8b 52 08	 mov	 edx, DWORD PTR [edx+8]
  002fe	89 44 24 10	 mov	 DWORD PTR $T208055[esp+16752], eax
  00302	6a 0c		 push	 12			; 0000000cH
  00304	8d 44 24 14	 lea	 eax, DWORD PTR $T208055[esp+16756]
  00308	89 4c 24 18	 mov	 DWORD PTR $T208055[esp+16760], ecx
  0030c	50		 push	 eax
  0030d	8d 8c 24 c8 00
	00 00		 lea	 ecx, DWORD PTR _ar$[esp+16760]
  00314	89 54 24 20	 mov	 DWORD PTR $T208055[esp+16768], edx
  00318	e8 00 00 00 00	 call	 ?Write@CAr@@QAEXPBXI@Z	; CAr::Write
  0031d	8b 8b 18 42 00
	00		 mov	 ecx, DWORD PTR [ebx+16920]
  00323	8b 93 1c 42 00
	00		 mov	 edx, DWORD PTR [ebx+16924]
  00329	6a 08		 push	 8
  0032b	8d 44 24 14	 lea	 eax, DWORD PTR $T208059[esp+16756]
  0032f	89 4c 24 14	 mov	 DWORD PTR $T208059[esp+16756], ecx
  00333	89 54 24 18	 mov	 DWORD PTR $T208059[esp+16760], edx
  00337	50		 push	 eax
  00338	8d 8c 24 c8 00
	00 00		 lea	 ecx, DWORD PTR _ar$[esp+16760]
  0033f	e8 00 00 00 00	 call	 ?Write@CAr@@QAEXPBXI@Z	; CAr::Write
  00344	8b b3 20 42 00
	00		 mov	 esi, DWORD PTR [ebx+16928]
  0034a	57		 push	 edi
  0034b	8d 8c 24 c4 00
	00 00		 lea	 ecx, DWORD PTR _ar$[esp+16756]
  00352	e8 00 00 00 00	 call	 ?CheckBuf@CAr@@QAEXI@Z	; CAr::CheckBuf
  00357	8b 8c 24 c8 00
	00 00		 mov	 ecx, DWORD PTR _ar$[esp+16760]
  0035e	89 31		 mov	 DWORD PTR [ecx], esi
  00360	01 bc 24 c8 00
	00 00		 add	 DWORD PTR _ar$[esp+16760], edi
  00367	8b b3 24 42 00
	00		 mov	 esi, DWORD PTR [ebx+16932]
  0036d	57		 push	 edi
  0036e	8d 8c 24 c4 00
	00 00		 lea	 ecx, DWORD PTR _ar$[esp+16756]
  00375	e8 00 00 00 00	 call	 ?CheckBuf@CAr@@QAEXI@Z	; CAr::CheckBuf
  0037a	8b 94 24 c8 00
	00 00		 mov	 edx, DWORD PTR _ar$[esp+16760]
  00381	89 32		 mov	 DWORD PTR [edx], esi
  00383	8b 8c 24 c8 00
	00 00		 mov	 ecx, DWORD PTR _ar$[esp+16760]
  0038a	8b b3 38 42 00
	00		 mov	 esi, DWORD PTR [ebx+16952]
  00390	03 cf		 add	 ecx, edi
  00392	89 8c 24 c8 00
	00 00		 mov	 DWORD PTR _ar$[esp+16760], ecx
  00399	57		 push	 edi
  0039a	8d 8c 24 c4 00
	00 00		 lea	 ecx, DWORD PTR _ar$[esp+16756]
  003a1	e8 00 00 00 00	 call	 ?CheckBuf@CAr@@QAEXI@Z	; CAr::CheckBuf
  003a6	8b 84 24 c8 00
	00 00		 mov	 eax, DWORD PTR _ar$[esp+16760]
  003ad	89 30		 mov	 DWORD PTR [eax], esi
  003af	01 bc 24 c8 00
	00 00		 add	 DWORD PTR _ar$[esp+16760], edi
  003b6	8b b3 3c 42 00
	00		 mov	 esi, DWORD PTR [ebx+16956]
  003bc	57		 push	 edi
  003bd	8d 8c 24 c4 00
	00 00		 lea	 ecx, DWORD PTR _ar$[esp+16756]
  003c4	e8 00 00 00 00	 call	 ?CheckBuf@CAr@@QAEXI@Z	; CAr::CheckBuf
  003c9	8b 8c 24 c8 00
	00 00		 mov	 ecx, DWORD PTR _ar$[esp+16760]
  003d0	89 31		 mov	 DWORD PTR [ecx], esi
  003d2	8b 8c 24 c8 00
	00 00		 mov	 ecx, DWORD PTR _ar$[esp+16760]
  003d9	8b b3 40 42 00
	00		 mov	 esi, DWORD PTR [ebx+16960]
  003df	03 cf		 add	 ecx, edi
  003e1	89 8c 24 c8 00
	00 00		 mov	 DWORD PTR _ar$[esp+16760], ecx
  003e8	57		 push	 edi
  003e9	8d 8c 24 c4 00
	00 00		 lea	 ecx, DWORD PTR _ar$[esp+16756]
  003f0	e8 00 00 00 00	 call	 ?CheckBuf@CAr@@QAEXI@Z	; CAr::CheckBuf
  003f5	8b 94 24 c8 00
	00 00		 mov	 edx, DWORD PTR _ar$[esp+16760]
  003fc	89 32		 mov	 DWORD PTR [edx], esi
  003fe	01 bc 24 c8 00
	00 00		 add	 DWORD PTR _ar$[esp+16760], edi
  00405	8b b3 b8 46 00
	00		 mov	 esi, DWORD PTR [ebx+18104]
  0040b	57		 push	 edi
  0040c	8d 8c 24 c4 00
	00 00		 lea	 ecx, DWORD PTR _ar$[esp+16756]
  00413	e8 00 00 00 00	 call	 ?CheckBuf@CAr@@QAEXI@Z	; CAr::CheckBuf
  00418	8b 84 24 c8 00
	00 00		 mov	 eax, DWORD PTR _ar$[esp+16760]
  0041f	89 30		 mov	 DWORD PTR [eax], esi
  00421	8b 8c 24 c8 00
	00 00		 mov	 ecx, DWORD PTR _ar$[esp+16760]
  00428	8b 83 d0 46 00
	00		 mov	 eax, DWORD PTR [ebx+18128]
  0042e	03 cf		 add	 ecx, edi
  00430	85 c0		 test	 eax, eax
  00432	89 8c 24 c8 00
	00 00		 mov	 DWORD PTR _ar$[esp+16760], ecx
  00439	74 16		 je	 SHORT $L207994
  0043b	6a 00		 push	 0
  0043d	e8 00 00 00 00	 call	 _time
  00442	8b 8b d0 46 00
	00		 mov	 ecx, DWORD PTR [ebx+18128]
  00448	83 c4 04	 add	 esp, 4
  0044b	2b c1		 sub	 eax, ecx
  0044d	8b f0		 mov	 esi, eax
  0044f	eb 02		 jmp	 SHORT $L207995
$L207994:
  00451	33 f6		 xor	 esi, esi
$L207995:
  00453	8b 9b cc 46 00
	00		 mov	 ebx, DWORD PTR [ebx+18124]
  00459	57		 push	 edi
  0045a	8d 8c 24 c4 00
	00 00		 lea	 ecx, DWORD PTR _ar$[esp+16756]
  00461	e8 00 00 00 00	 call	 ?CheckBuf@CAr@@QAEXI@Z	; CAr::CheckBuf
  00466	8b 8c 24 c8 00
	00 00		 mov	 ecx, DWORD PTR _ar$[esp+16760]
  0046d	89 19		 mov	 DWORD PTR [ecx], ebx
  0046f	8b 84 24 c8 00
	00 00		 mov	 eax, DWORD PTR _ar$[esp+16760]
  00476	03 c7		 add	 eax, edi
  00478	57		 push	 edi
  00479	8d 8c 24 c4 00
	00 00		 lea	 ecx, DWORD PTR _ar$[esp+16756]
  00480	89 84 24 cc 00
	00 00		 mov	 DWORD PTR _ar$[esp+16764], eax
  00487	e8 00 00 00 00	 call	 ?CheckBuf@CAr@@QAEXI@Z	; CAr::CheckBuf
  0048c	8b 94 24 c8 00
	00 00		 mov	 edx, DWORD PTR _ar$[esp+16760]
  00493	89 32		 mov	 DWORD PTR [edx], esi
  00495	8b 94 24 c8 00
	00 00		 mov	 edx, DWORD PTR _ar$[esp+16760]

; 105  : #endif // __GUILD_HOUSE
; 106  : 	SEND( ar, CDPTrans::GetInstance(), lpDBOP->dpid );

  0049c	8d 44 24 20	 lea	 eax, DWORD PTR _nBufSize$[esp+16752]
  004a0	03 d7		 add	 edx, edi
  004a2	50		 push	 eax
  004a3	8d 8c 24 c4 00
	00 00		 lea	 ecx, DWORD PTR _ar$[esp+16756]
  004aa	89 94 24 cc 00
	00 00		 mov	 DWORD PTR _ar$[esp+16764], edx
  004b1	e8 00 00 00 00	 call	 ?GetBuffer@CAr@@QAEPAEPAH@Z ; CAr::GetBuffer
  004b6	8b 4c 24 1c	 mov	 ecx, DWORD PTR $T208125[esp+16752]
  004ba	8b b9 a8 00 00
	00		 mov	 edi, DWORD PTR [ecx+168]
  004c0	8b 5c 24 20	 mov	 ebx, DWORD PTR _nBufSize$[esp+16752]
  004c4	8b f0		 mov	 esi, eax
  004c6	e8 00 00 00 00	 call	 ?GetInstance@CDPTrans@@SAPAV1@XZ ; CDPTrans::GetInstance
  004cb	8b 48 04	 mov	 ecx, DWORD PTR [eax+4]
  004ce	85 c9		 test	 ecx, ecx
  004d0	74 08		 je	 SHORT $L208118
  004d2	57		 push	 edi
  004d3	53		 push	 ebx
  004d4	56		 push	 esi
  004d5	e8 00 00 00 00	 call	 ?Send@CDPSock@@QAEHPADKK@Z ; CDPSock::Send
$L208118:

; 107  : 	
; 108  : 	char lpOutputString[128]	= { 0, };
; 109  : 	sprintf( lpOutputString, "DATABASESERVER.EXE\t// JOIN_1\t// %d\n", lpDBOP->dpid );

  004da	8b 54 24 1c	 mov	 edx, DWORD PTR $T208125[esp+16752]
  004de	33 c0		 xor	 eax, eax
  004e0	c6 84 24 d8 40
	00 00 00	 mov	 BYTE PTR _lpOutputString$[esp+16752], 0
  004e8	b9 1f 00 00 00	 mov	 ecx, 31			; 0000001fH
  004ed	8d bc 24 d9 40
	00 00		 lea	 edi, DWORD PTR _lpOutputString$[esp+16753]
  004f4	f3 ab		 rep stosd
  004f6	66 ab		 stosw
  004f8	aa		 stosb
  004f9	8b 82 a8 00 00
	00		 mov	 eax, DWORD PTR [edx+168]
  004ff	50		 push	 eax
  00500	8d 8c 24 dc 40
	00 00		 lea	 ecx, DWORD PTR _lpOutputString$[esp+16756]
  00507	68 00 00 00 00	 push	 OFFSET FLAT:??_C@_0CE@DOPOPHPI@DATABASESERVER?4EXE?7?1?1?5JOIN_1?7?1?1?5@
  0050c	51		 push	 ecx
  0050d	e8 00 00 00 00	 call	 _sprintf
  00512	83 c4 0c	 add	 esp, 12			; 0000000cH

; 110  : 	OutputDebugString( lpOutputString );

  00515	8d 94 24 d8 40
	00 00		 lea	 edx, DWORD PTR _lpOutputString$[esp+16752]
  0051c	52		 push	 edx
  0051d	ff 15 00 00 00
	00		 call	 DWORD PTR __imp__OutputDebugStringA@4

; 111  : }

  00523	8d 8c 24 c0 00
	00 00		 lea	 ecx, DWORD PTR _ar$[esp+16752]
  0052a	c7 84 24 6c 41
	00 00 ff ff ff
	ff		 mov	 DWORD PTR __$EHRec$[esp+16760], -1
  00535	e8 00 00 00 00	 call	 ??1CAr@@QAE@XZ		; CAr::~CAr
  0053a	8b 8c 24 64 41
	00 00		 mov	 ecx, DWORD PTR __$EHRec$[esp+16752]
  00541	64 89 0d 00 00
	00 00		 mov	 DWORD PTR fs:__except_list, ecx
  00548	8b 8c 24 5c 41
	00 00		 mov	 ecx, DWORD PTR __$ArrayPad$[esp+16752]
  0054f	5f		 pop	 edi
  00550	5e		 pop	 esi
  00551	33 cd		 xor	 ecx, ebp
  00553	5b		 pop	 ebx
  00554	e8 00 00 00 00	 call	 @__security_check_cookie@4
  00559	8b e5		 mov	 esp, ebp
  0055b	5d		 pop	 ebp
  0055c	c2 30 00	 ret	 48			; 00000030H
_TEXT	ENDS
;	COMDAT text$x
text$x	SEGMENT
$L207996:
  00000	8d 8d 50 bf ff
	ff		 lea	 ecx, DWORD PTR _ar$[ebp]
  00006	e9 00 00 00 00	 jmp	 ??1CAr@@QAE@XZ		; CAr::~CAr
__ehhandler$?SendJoin@CDbManager@@QAEXPAVCMover@@PAUtagDB_OVERLAPPED_PLUS@@KKPBD2KKHHPAUTAG_ENTRY@@2@Z:
  0000b	b8 00 00 00 00	 mov	 eax, OFFSET FLAT:$T208133
  00010	e9 00 00 00 00	 jmp	 ___CxxFrameHandler
text$x	ENDS
?SendJoin@CDbManager@@QAEXPAVCMover@@PAUtagDB_OVERLAPPED_PLUS@@KKPBD2KKHHPAUTAG_ENTRY@@2@Z ENDP ; CDbManager::SendJoin
PUBLIC	?_Tidy@?$basic_string@DU?$char_traits@D@std@@V?$allocator@D@2@@std@@IAEX_NI@Z ; std::basic_string<char,std::char_traits<char>,std::allocator<char> >::_Tidy
; Function compile flags: /Ogty
; File c:\program files\microsoft visual studio .net 2003\vc7\include\xstring
;	COMDAT ?_Tidy@?$basic_string@DU?$char_traits@D@std@@V?$allocator@D@2@@std@@IAEX_NI@Z
_TEXT	SEGMENT
__Built$ = 8						; size = 1
__Newsize$ = 12						; size = 4
?_Tidy@?$basic_string@DU?$char_traits@D@std@@V?$allocator@D@2@@std@@IAEX_NI@Z PROC NEAR ; std::basic_string<char,std::char_traits<char>,std::allocator<char> >::_Tidy, COMDAT
; _this$ = ecx

; 1510 : 		if (!_Built)

  00000	8a 44 24 04	 mov	 al, BYTE PTR __Built$[esp-4]
  00004	84 c0		 test	 al, al
  00006	53		 push	 ebx
  00007	55		 push	 ebp
  00008	8b 6c 24 10	 mov	 ebp, DWORD PTR __Newsize$[esp+4]
  0000c	8b d9		 mov	 ebx, ecx
  0000e	74 2f		 je	 SHORT $L208149

; 1511 : 			;
; 1512 : 		else if (_BUF_SIZE <= _Myres)

  00010	83 7b 18 10	 cmp	 DWORD PTR [ebx+24], 16	; 00000010H
  00014	72 29		 jb	 SHORT $L208149

; 1513 : 			{	// copy any leftovers to small buffer and deallocate
; 1514 : 			_Elem *_Ptr = _Bx._Ptr;
; 1515 : 			if (0 < _Newsize)

  00016	85 ed		 test	 ebp, ebp
  00018	8b 43 04	 mov	 eax, DWORD PTR [ebx+4]
  0001b	57		 push	 edi
  0001c	8d 7b 04	 lea	 edi, DWORD PTR [ebx+4]
  0001f	76 14		 jbe	 SHORT $L208146
  00021	56		 push	 esi

; 1516 : 				_Traits::copy(_Bx._Buf, _Ptr, _Newsize);

  00022	8b cd		 mov	 ecx, ebp
  00024	8b d1		 mov	 edx, ecx
  00026	c1 e9 02	 shr	 ecx, 2
  00029	8b f0		 mov	 esi, eax
  0002b	f3 a5		 rep movsd
  0002d	8b ca		 mov	 ecx, edx
  0002f	83 e1 03	 and	 ecx, 3
  00032	f3 a4		 rep movsb
  00034	5e		 pop	 esi
$L208146:

; 1517 : 			_Mybase::_Alval.deallocate(_Ptr, _Myres + 1);

  00035	50		 push	 eax
  00036	e8 00 00 00 00	 call	 ??3@YAXPAX@Z		; operator delete
  0003b	83 c4 04	 add	 esp, 4
  0003e	5f		 pop	 edi
$L208149:

; 1518 : 			}
; 1519 : 		_Myres = _BUF_SIZE - 1;
; 1520 : 		_Eos(_Newsize);

  0003f	89 6b 14	 mov	 DWORD PTR [ebx+20], ebp
  00042	c7 43 18 0f 00
	00 00		 mov	 DWORD PTR [ebx+24], 15	; 0000000fH
  00049	c6 44 2b 04 00	 mov	 BYTE PTR [ebx+ebp+4], 0
  0004e	5d		 pop	 ebp
  0004f	5b		 pop	 ebx

; 1521 : 		}

  00050	c2 08 00	 ret	 8
?_Tidy@?$basic_string@DU?$char_traits@D@std@@V?$allocator@D@2@@std@@IAEX_NI@Z ENDP ; std::basic_string<char,std::char_traits<char>,std::allocator<char> >::_Tidy
_TEXT	ENDS
PUBLIC	?erase@?$basic_string@DU?$char_traits@D@std@@V?$allocator@D@2@@std@@QAEAAV12@II@Z ; std::basic_string<char,std::char_traits<char>,std::allocator<char> >::erase
EXTRN	?_Xran@_String_base@std@@QBEXXZ:NEAR		; std::_String_base::_Xran
; Function compile flags: /Ogty
;	COMDAT ?erase@?$basic_string@DU?$char_traits@D@std@@V?$allocator@D@2@@std@@QAEAAV12@II@Z
_TEXT	SEGMENT
__Off$ = 8						; size = 4
__Count$ = 12						; size = 4
?erase@?$basic_string@DU?$char_traits@D@std@@V?$allocator@D@2@@std@@QAEAAV12@II@Z PROC NEAR ; std::basic_string<char,std::char_traits<char>,std::allocator<char> >::erase, COMDAT
; _this$ = ecx

; 792  : 		{	// erase elements [_Off, _Off + _Count)

  00000	55		 push	 ebp

; 793  : 		if (_Mysize < _Off)

  00001	8b 6c 24 08	 mov	 ebp, DWORD PTR __Off$[esp]
  00005	56		 push	 esi
  00006	8b f1		 mov	 esi, ecx
  00008	39 6e 14	 cmp	 DWORD PTR [esi+20], ebp
  0000b	57		 push	 edi
  0000c	73 05		 jae	 SHORT $L184993

; 794  : 			_String_base::_Xran();	// _Off off end

  0000e	e8 00 00 00 00	 call	 ?_Xran@_String_base@std@@QBEXXZ ; std::_String_base::_Xran
$L184993:

; 795  : 		if (_Mysize - _Off < _Count)

  00013	8b 46 14	 mov	 eax, DWORD PTR [esi+20]
  00016	8b 7c 24 14	 mov	 edi, DWORD PTR __Count$[esp+8]
  0001a	2b c5		 sub	 eax, ebp
  0001c	3b c7		 cmp	 eax, edi
  0001e	73 02		 jae	 SHORT $L184994

; 796  : 			_Count = _Mysize - _Off;	// trim _Count

  00020	8b f8		 mov	 edi, eax
$L184994:

; 797  : 		if (0 < _Count)

  00022	85 ff		 test	 edi, edi
  00024	76 47		 jbe	 SHORT $L208213

; 798  : 			{	// move elements down
; 799  : 			_Traits::move(_Myptr() + _Off, _Myptr() + _Off + _Count,
; 800  : 				_Mysize - _Off - _Count);

  00026	8b 4e 18	 mov	 ecx, DWORD PTR [esi+24]
  00029	83 f9 10	 cmp	 ecx, 16			; 00000010H
  0002c	53		 push	 ebx
  0002d	8d 5e 04	 lea	 ebx, DWORD PTR [esi+4]
  00030	72 04		 jb	 SHORT $L208178
  00032	8b 13		 mov	 edx, DWORD PTR [ebx]
  00034	eb 02		 jmp	 SHORT $L208179
$L208178:
  00036	8b d3		 mov	 edx, ebx
$L208179:
  00038	83 f9 10	 cmp	 ecx, 16			; 00000010H
  0003b	72 04		 jb	 SHORT $L208185
  0003d	8b 0b		 mov	 ecx, DWORD PTR [ebx]
  0003f	eb 02		 jmp	 SHORT $L208186
$L208185:
  00041	8b cb		 mov	 ecx, ebx
$L208186:
  00043	2b c7		 sub	 eax, edi

; 803  : 			}
; 804  : 		return (*this);

  00045	03 d5		 add	 edx, ebp
  00047	50		 push	 eax
  00048	03 d7		 add	 edx, edi
  0004a	52		 push	 edx
  0004b	03 cd		 add	 ecx, ebp
  0004d	51		 push	 ecx
  0004e	e8 00 00 00 00	 call	 _memmove
  00053	8b 46 14	 mov	 eax, DWORD PTR [esi+20]
  00056	8b 4e 18	 mov	 ecx, DWORD PTR [esi+24]
  00059	2b c7		 sub	 eax, edi
  0005b	83 c4 0c	 add	 esp, 12			; 0000000cH
  0005e	83 f9 10	 cmp	 ecx, 16			; 00000010H
  00061	89 46 14	 mov	 DWORD PTR [esi+20], eax
  00064	72 02		 jb	 SHORT $L208208

; 801  : 			size_type _Newsize = _Mysize - _Count;
; 802  : 			_Eos(_Newsize);

  00066	8b 1b		 mov	 ebx, DWORD PTR [ebx]
$L208208:
  00068	c6 04 03 00	 mov	 BYTE PTR [ebx+eax], 0
  0006c	5b		 pop	 ebx
$L208213:
  0006d	5f		 pop	 edi

; 803  : 			}
; 804  : 		return (*this);

  0006e	8b c6		 mov	 eax, esi
  00070	5e		 pop	 esi
  00071	5d		 pop	 ebp

; 805  : 		}

  00072	c2 08 00	 ret	 8
?erase@?$basic_string@DU?$char_traits@D@std@@V?$allocator@D@2@@std@@QAEAAV12@II@Z ENDP ; std::basic_string<char,std::char_traits<char>,std::allocator<char> >::erase
_TEXT	ENDS
PUBLIC	?_Copy@?$basic_string@DU?$char_traits@D@std@@V?$allocator@D@2@@std@@IAEXII@Z ; std::basic_string<char,std::char_traits<char>,std::allocator<char> >::_Copy
EXTRN	__CxxThrowException@8:NEAR
;	COMDAT xdata$x
; File c:\program files\microsoft visual studio .net 2003\vc7\include\iosfwd
xdata$x	SEGMENT
$T208417 DD	0ffffffffH
	DD	00H
	DD	0ffffffffH
	DD	00H
	DD	01H
	DD	00H
	DD	01H
	DD	00H
$T208419 DD	00H
	DD	00H
	DD	00H
	DD	FLAT:$L208220
$T208420 DD	00H
	DD	00H
	DD	00H
	DD	FLAT:$L208218
$T208418 DD	02H
	DD	02H
	DD	03H
	DD	01H
	DD	FLAT:$T208419
	DD	00H
	DD	00H
	DD	03H
	DD	01H
	DD	FLAT:$T208420
$T208412 DD	019930520H
	DD	04H
	DD	FLAT:$T208417
	DD	02H
	DD	FLAT:$T208418
	DD	2 DUP(00H)
; Function compile flags: /Ogty
; File c:\program files\microsoft visual studio .net 2003\vc7\include\xstring
xdata$x	ENDS
;	COMDAT ?_Copy@?$basic_string@DU?$char_traits@D@std@@V?$allocator@D@2@@std@@IAEXII@Z
_TEXT	SEGMENT
__Newres$ = -24						; size = 4
_this$ = -20						; size = 4
__$EHRec$ = -16						; size = 16
__Ptr$ = 8						; size = 4
__Newsize$ = 8						; size = 4
__Oldlen$ = 12						; size = 4
?_Copy@?$basic_string@DU?$char_traits@D@std@@V?$allocator@D@2@@std@@IAEXII@Z PROC NEAR ; std::basic_string<char,std::char_traits<char>,std::allocator<char> >::_Copy, COMDAT
; _this$ = ecx

; 1444 : 		{	// copy _Oldlen elements to newly allocated buffer

  00000	55		 push	 ebp
  00001	8b ec		 mov	 ebp, esp
  00003	6a ff		 push	 -1
  00005	68 00 00 00 00	 push	 __ehhandler$?_Copy@?$basic_string@DU?$char_traits@D@std@@V?$allocator@D@2@@std@@IAEXII@Z
  0000a	64 a1 00 00 00
	00		 mov	 eax, DWORD PTR fs:__except_list
  00010	50		 push	 eax
  00011	64 89 25 00 00
	00 00		 mov	 DWORD PTR fs:__except_list, esp
  00018	83 ec 0c	 sub	 esp, 12			; 0000000cH

; 1445 : 		size_type _Newres = _Newsize | _ALLOC_MASK;

  0001b	8b 45 08	 mov	 eax, DWORD PTR __Newsize$[ebp]
  0001e	53		 push	 ebx
  0001f	56		 push	 esi
  00020	8b d8		 mov	 ebx, eax
  00022	83 cb 0f	 or	 ebx, 15			; 0000000fH

; 1446 : 		if (max_size() < _Newres)

  00025	83 fb fe	 cmp	 ebx, -2			; fffffffeH
  00028	57		 push	 edi
  00029	8b f1		 mov	 esi, ecx
  0002b	89 65 f0	 mov	 DWORD PTR __$EHRec$[ebp], esp
  0002e	89 75 ec	 mov	 DWORD PTR _this$[ebp], esi
  00031	76 04		 jbe	 SHORT $L185550

; 1447 : 			_Newres = _Newsize;	// undo roundup if too big

  00033	8b d8		 mov	 ebx, eax

; 1448 : 		else if (_Newres / 3 < _Myres / 2

  00035	eb 22		 jmp	 SHORT $L185552
$L185550:

; 1449 : 			&& _Myres <= max_size() - _Myres / 2)

  00037	8b 7e 18	 mov	 edi, DWORD PTR [esi+24]
  0003a	b8 ab aa aa aa	 mov	 eax, -1431655765	; aaaaaaabH
  0003f	f7 e3		 mul	 ebx
  00041	8b cf		 mov	 ecx, edi
  00043	d1 e9		 shr	 ecx, 1
  00045	d1 ea		 shr	 edx, 1
  00047	3b d1		 cmp	 edx, ecx
  00049	73 0e		 jae	 SHORT $L185552
  0004b	b8 fe ff ff ff	 mov	 eax, -2			; fffffffeH
  00050	2b c1		 sub	 eax, ecx
  00052	3b f8		 cmp	 edi, eax
  00054	77 03		 ja	 SHORT $L185552

; 1450 : 			_Newres = _Myres + _Myres / 2;	// grow exponentially if possible

  00056	8d 1c 39	 lea	 ebx, DWORD PTR [ecx+edi]
$L185552:

; 1451 : 		_Elem *_Ptr;
; 1452 : 
; 1453 : 		_TRY_BEGIN
; 1454 : 			_Ptr = _Mybase::_Alval.allocate(_Newres + 1);

  00059	8d 4b 01	 lea	 ecx, DWORD PTR [ebx+1]
  0005c	51		 push	 ecx
  0005d	c7 45 fc 00 00
	00 00		 mov	 DWORD PTR __$EHRec$[ebp+12], 0
  00064	e8 00 00 00 00	 call	 ??2@YAPAXI@Z		; operator new
  00069	8b d0		 mov	 edx, eax
  0006b	83 c4 04	 add	 esp, 4
  0006e	89 55 08	 mov	 DWORD PTR __Ptr$[ebp], edx
  00071	eb 29		 jmp	 SHORT $L185554
$L208218:

; 1455 : 		_CATCH_ALL
; 1456 : 			_Newres = _Newsize;	// allocation failed, undo roundup and retry

  00073	8b 45 08	 mov	 eax, DWORD PTR __Newsize$[ebp]
  00076	89 45 e8	 mov	 DWORD PTR __Newres$[ebp], eax

; 1457 : 			_TRY_BEGIN
; 1458 : 				_Ptr = _Mybase::_Alval.allocate(_Newres + 1);

  00079	40		 inc	 eax
  0007a	89 65 f0	 mov	 DWORD PTR __$EHRec$[ebp], esp
  0007d	50		 push	 eax
  0007e	c6 45 fc 02	 mov	 BYTE PTR __$EHRec$[ebp+12], 2
  00082	e8 00 00 00 00	 call	 ??2@YAPAXI@Z		; operator new
  00087	89 45 08	 mov	 DWORD PTR __Ptr$[ebp], eax
  0008a	83 c4 04	 add	 esp, 4

; 1462 : 			_CATCH_END
; 1463 : 		_CATCH_END

  0008d	b8 00 00 00 00	 mov	 eax, $L208413
  00092	c3		 ret	 0
$L208413:
  00093	8b 5d e8	 mov	 ebx, DWORD PTR __Newres$[ebp]
  00096	8b 75 ec	 mov	 esi, DWORD PTR _this$[ebp]
  00099	8b 55 08	 mov	 edx, DWORD PTR __Ptr$[ebp]
$L185554:

; 1464 : 
; 1465 : 		if (0 < _Oldlen)

  0009c	8b 4d 0c	 mov	 ecx, DWORD PTR __Oldlen$[ebp]
  0009f	85 c9		 test	 ecx, ecx
  000a1	76 24		 jbe	 SHORT $L208338

; 1466 : 			_Traits::copy(_Ptr, _Myptr(), _Oldlen);	// copy existing elements

  000a3	83 7e 18 10	 cmp	 DWORD PTR [esi+24], 16	; 00000010H
  000a7	72 05		 jb	 SHORT $L208333
  000a9	8b 76 04	 mov	 esi, DWORD PTR [esi+4]
  000ac	eb 03		 jmp	 SHORT $L208334
$L208333:
  000ae	83 c6 04	 add	 esi, 4
$L208334:
  000b1	8b c1		 mov	 eax, ecx
  000b3	c1 e9 02	 shr	 ecx, 2
  000b6	8b fa		 mov	 edi, edx
  000b8	f3 a5		 rep movsd
  000ba	8b c8		 mov	 ecx, eax
  000bc	83 e1 03	 and	 ecx, 3
  000bf	f3 a4		 rep movsb
  000c1	8b 75 ec	 mov	 esi, DWORD PTR _this$[ebp]
  000c4	8b 4d 0c	 mov	 ecx, DWORD PTR __Oldlen$[ebp]
$L208338:

; 1467 : 		_Tidy(true);

  000c7	83 7e 18 10	 cmp	 DWORD PTR [esi+24], 16	; 00000010H
  000cb	72 12		 jb	 SHORT $L208380
  000cd	8b 4e 04	 mov	 ecx, DWORD PTR [esi+4]
  000d0	51		 push	 ecx
  000d1	e8 00 00 00 00	 call	 ??3@YAXPAX@Z		; operator delete
  000d6	8b 55 08	 mov	 edx, DWORD PTR __Ptr$[ebp]
  000d9	8b 4d 0c	 mov	 ecx, DWORD PTR __Oldlen$[ebp]
  000dc	83 c4 04	 add	 esp, 4
$L208380:

; 1468 : 		_Bx._Ptr = _Ptr;
; 1469 : 		_Myres = _Newres;
; 1470 : 		_Eos(_Oldlen);

  000df	83 fb 10	 cmp	 ebx, 16			; 00000010H
  000e2	8d 46 04	 lea	 eax, DWORD PTR [esi+4]
  000e5	c6 00 00	 mov	 BYTE PTR [eax], 0
  000e8	89 10		 mov	 DWORD PTR [eax], edx
  000ea	89 5e 18	 mov	 DWORD PTR [esi+24], ebx
  000ed	89 4e 14	 mov	 DWORD PTR [esi+20], ecx
  000f0	72 02		 jb	 SHORT $L208406
  000f2	8b c2		 mov	 eax, edx
$L208406:

; 1471 : 		}

  000f4	5f		 pop	 edi
  000f5	c6 04 08 00	 mov	 BYTE PTR [eax+ecx], 0
  000f9	8b 4d f4	 mov	 ecx, DWORD PTR __$EHRec$[ebp+4]
  000fc	5e		 pop	 esi
  000fd	64 89 0d 00 00
	00 00		 mov	 DWORD PTR fs:__except_list, ecx
  00104	5b		 pop	 ebx
  00105	8b e5		 mov	 esp, ebp
  00107	5d		 pop	 ebp
  00108	c2 08 00	 ret	 8
$L208220:

; 1459 : 			_CATCH_ALL
; 1460 : 			_Tidy(true);	// failed again, discard storage and reraise

  0010b	8b 75 ec	 mov	 esi, DWORD PTR _this$[ebp]
  0010e	83 7e 18 10	 cmp	 DWORD PTR [esi+24], 16	; 00000010H
  00112	72 0c		 jb	 SHORT $L208319
  00114	8b 56 04	 mov	 edx, DWORD PTR [esi+4]
  00117	52		 push	 edx
  00118	e8 00 00 00 00	 call	 ??3@YAXPAX@Z		; operator delete
  0011d	83 c4 04	 add	 esp, 4
$L208319:

; 1461 : 			_RERAISE;

  00120	6a 00		 push	 0
  00122	c7 46 18 0f 00
	00 00		 mov	 DWORD PTR [esi+24], 15	; 0000000fH
  00129	c7 46 14 00 00
	00 00		 mov	 DWORD PTR [esi+20], 0
  00130	6a 00		 push	 0
  00132	c6 46 04 00	 mov	 BYTE PTR [esi+4], 0
  00136	e8 00 00 00 00	 call	 __CxxThrowException@8
$L208416:
  0013b	cc		 int	 3
_TEXT	ENDS
;	COMDAT text$x
text$x	SEGMENT
__ehhandler$?_Copy@?$basic_string@DU?$char_traits@D@std@@V?$allocator@D@2@@std@@IAEXII@Z:
  00000	b8 00 00 00 00	 mov	 eax, OFFSET FLAT:$T208412
  00005	e9 00 00 00 00	 jmp	 ___CxxFrameHandler
text$x	ENDS
?_Copy@?$basic_string@DU?$char_traits@D@std@@V?$allocator@D@2@@std@@IAEXII@Z ENDP ; std::basic_string<char,std::char_traits<char>,std::allocator<char> >::_Copy
PUBLIC	?end@?$list@PAXV?$allocator@PAX@std@@@std@@QAE?AViterator@12@XZ ; std::list<void *,std::allocator<void *> >::end
; Function compile flags: /Ogty
; File c:\program files\microsoft visual studio .net 2003\vc7\include\list
;	COMDAT ?end@?$list@PAXV?$allocator@PAX@std@@@std@@QAE?AViterator@12@XZ
_TEXT	SEGMENT
___$ReturnUdt$ = 8					; size = 4
?end@?$list@PAXV?$allocator@PAX@std@@@std@@QAE?AViterator@12@XZ PROC NEAR ; std::list<void *,std::allocator<void *> >::end, COMDAT
; _this$ = ecx

; 387  : 		return (iterator(_Myhead));

  00000	8b 49 04	 mov	 ecx, DWORD PTR [ecx+4]
  00003	8b 44 24 04	 mov	 eax, DWORD PTR ___$ReturnUdt$[esp-4]
  00007	89 08		 mov	 DWORD PTR [eax], ecx

; 388  : 		}

  00009	c2 04 00	 ret	 4
?end@?$list@PAXV?$allocator@PAX@std@@@std@@QAE?AViterator@12@XZ ENDP ; std::list<void *,std::allocator<void *> >::end
_TEXT	ENDS
PUBLIC	?_Buynode@?$list@PAXV?$allocator@PAX@std@@@std@@IAEPAU_Node@?$_List_nod@PAXV?$allocator@PAX@std@@@2@PAU342@0ABQAX@Z ; std::list<void *,std::allocator<void *> >::_Buynode
; Function compile flags: /Ogty
;	COMDAT ?_Buynode@?$list@PAXV?$allocator@PAX@std@@@std@@IAEPAU_Node@?$_List_nod@PAXV?$allocator@PAX@std@@@2@PAU342@0ABQAX@Z
_TEXT	SEGMENT
__Next$ = 8						; size = 4
__Prev$ = 12						; size = 4
__Val$ = 16						; size = 4
?_Buynode@?$list@PAXV?$allocator@PAX@std@@@std@@IAEPAU_Node@?$_List_nod@PAXV?$allocator@PAX@std@@@2@PAU342@0ABQAX@Z PROC NEAR ; std::list<void *,std::allocator<void *> >::_Buynode, COMDAT
; _this$ = ecx

; 918  : 		_Nodeptr _Pnode = this->_Alnod.allocate(1);

  00000	6a 0c		 push	 12			; 0000000cH
  00002	e8 00 00 00 00	 call	 ??2@YAPAXI@Z		; operator new
  00007	83 c4 04	 add	 esp, 4

; 919  : 		_TRY_BEGIN
; 920  : 		new ((void *)_Pnode) _Node(_Next, _Prev, _Val);

  0000a	85 c0		 test	 eax, eax
  0000c	74 16		 je	 SHORT $L208437
  0000e	8b 4c 24 04	 mov	 ecx, DWORD PTR __Next$[esp-4]
  00012	8b 54 24 08	 mov	 edx, DWORD PTR __Prev$[esp-4]
  00016	89 08		 mov	 DWORD PTR [eax], ecx
  00018	8b 4c 24 0c	 mov	 ecx, DWORD PTR __Val$[esp-4]
  0001c	89 50 04	 mov	 DWORD PTR [eax+4], edx
  0001f	8b 11		 mov	 edx, DWORD PTR [ecx]
  00021	89 50 08	 mov	 DWORD PTR [eax+8], edx
$L208437:

; 921  : 		_CATCH_ALL
; 922  : 		this->_Alnod.deallocate(_Pnode, 1);
; 923  : 		_RERAISE;
; 924  : 		_CATCH_END
; 925  : 		return (_Pnode);
; 926  : 		}

  00024	c2 0c 00	 ret	 12			; 0000000cH
?_Buynode@?$list@PAXV?$allocator@PAX@std@@@std@@IAEPAU_Node@?$_List_nod@PAXV?$allocator@PAX@std@@@2@PAU342@0ABQAX@Z ENDP ; std::list<void *,std::allocator<void *> >::_Buynode
_TEXT	ENDS
PUBLIC	??1?$basic_string@DU?$char_traits@D@std@@V?$allocator@D@2@@std@@QAE@XZ ; std::basic_string<char,std::char_traits<char>,std::allocator<char> >::~basic_string<char,std::char_traits<char>,std::allocator<char> >
; Function compile flags: /Ogty
; File c:\program files\microsoft visual studio .net 2003\vc7\include\xstring
;	COMDAT ??1?$basic_string@DU?$char_traits@D@std@@V?$allocator@D@2@@std@@QAE@XZ
_TEXT	SEGMENT
??1?$basic_string@DU?$char_traits@D@std@@V?$allocator@D@2@@std@@QAE@XZ PROC NEAR ; std::basic_string<char,std::char_traits<char>,std::allocator<char> >::~basic_string<char,std::char_traits<char>,std::allocator<char> >, COMDAT
; _this$ = ecx

; 456  : 		{	// destroy the string

  00000	56		 push	 esi
  00001	8b f1		 mov	 esi, ecx

; 457  : 		_Tidy(true);

  00003	83 7e 18 10	 cmp	 DWORD PTR [esi+24], 16	; 00000010H
  00007	72 0c		 jb	 SHORT $L208504
  00009	8b 46 04	 mov	 eax, DWORD PTR [esi+4]
  0000c	50		 push	 eax
  0000d	e8 00 00 00 00	 call	 ??3@YAXPAX@Z		; operator delete
  00012	83 c4 04	 add	 esp, 4
$L208504:
  00015	33 c0		 xor	 eax, eax
  00017	c7 46 18 0f 00
	00 00		 mov	 DWORD PTR [esi+24], 15	; 0000000fH
  0001e	89 46 14	 mov	 DWORD PTR [esi+20], eax
  00021	88 46 04	 mov	 BYTE PTR [esi+4], al
  00024	5e		 pop	 esi

; 458  : 		}

  00025	c3		 ret	 0
??1?$basic_string@DU?$char_traits@D@std@@V?$allocator@D@2@@std@@QAE@XZ ENDP ; std::basic_string<char,std::char_traits<char>,std::allocator<char> >::~basic_string<char,std::char_traits<char>,std::allocator<char> >
_TEXT	ENDS
PUBLIC	?_Grow@?$basic_string@DU?$char_traits@D@std@@V?$allocator@D@2@@std@@IAE_NI_N@Z ; std::basic_string<char,std::char_traits<char>,std::allocator<char> >::_Grow
EXTRN	?_Xlen@_String_base@std@@QBEXXZ:NEAR		; std::_String_base::_Xlen
; Function compile flags: /Ogty
;	COMDAT ?_Grow@?$basic_string@DU?$char_traits@D@std@@V?$allocator@D@2@@std@@IAE_NI_N@Z
_TEXT	SEGMENT
__Newsize$ = 8						; size = 4
__Trim$ = 12						; size = 1
?_Grow@?$basic_string@DU?$char_traits@D@std@@V?$allocator@D@2@@std@@IAE_NI_N@Z PROC NEAR ; std::basic_string<char,std::char_traits<char>,std::allocator<char> >::_Grow, COMDAT
; _this$ = ecx

; 1480 : 		{	// ensure buffer is big enough, trim to size if _Trim is true

  00000	55		 push	 ebp
  00001	56		 push	 esi

; 1481 : 		if (max_size() < _Newsize)

  00002	8b 74 24 0c	 mov	 esi, DWORD PTR __Newsize$[esp+4]
  00006	83 fe fe	 cmp	 esi, -2			; fffffffeH
  00009	8b e9		 mov	 ebp, ecx
  0000b	76 05		 jbe	 SHORT $L185002

; 1482 : 			_String_base::_Xlen();	// result too long

  0000d	e8 00 00 00 00	 call	 ?_Xlen@_String_base@std@@QBEXXZ ; std::_String_base::_Xlen
$L185002:

; 1483 : 		if (_Myres < _Newsize)

  00012	8b 45 18	 mov	 eax, DWORD PTR [ebp+24]
  00015	3b c6		 cmp	 eax, esi
  00017	73 19		 jae	 SHORT $L185003

; 1484 : 			_Copy(_Newsize, _Mysize);	// reallocate to grow

  00019	8b 45 14	 mov	 eax, DWORD PTR [ebp+20]
  0001c	50		 push	 eax
  0001d	56		 push	 esi
  0001e	8b cd		 mov	 ecx, ebp
  00020	e8 00 00 00 00	 call	 ?_Copy@?$basic_string@DU?$char_traits@D@std@@V?$allocator@D@2@@std@@IAEXII@Z ; std::basic_string<char,std::char_traits<char>,std::allocator<char> >::_Copy

; 1490 : 		return (0 < _Newsize);	// return true only if more work to do

  00025	33 c0		 xor	 eax, eax
  00027	3b c6		 cmp	 eax, esi
  00029	1b c0		 sbb	 eax, eax
  0002b	5e		 pop	 esi
  0002c	f7 d8		 neg	 eax
  0002e	5d		 pop	 ebp

; 1491 : 		}

  0002f	c2 08 00	 ret	 8
$L185003:

; 1485 : 		else if (_Trim && _Newsize < _BUF_SIZE)

  00032	8a 4c 24 10	 mov	 cl, BYTE PTR __Trim$[esp+4]
  00036	84 c9		 test	 cl, cl
  00038	74 5c		 je	 SHORT $L185005
  0003a	83 fe 10	 cmp	 esi, 16			; 00000010H
  0003d	73 57		 jae	 SHORT $L185005
  0003f	53		 push	 ebx

; 1486 : 			_Tidy(true,	// copy and deallocate if trimming to small string
; 1487 : 				_Newsize < _Mysize ? _Newsize : _Mysize);

  00040	8b 5d 14	 mov	 ebx, DWORD PTR [ebp+20]
  00043	3b f3		 cmp	 esi, ebx
  00045	73 02		 jae	 SHORT $L208517
  00047	8b de		 mov	 ebx, esi
$L208517:
  00049	83 f8 10	 cmp	 eax, 16			; 00000010H
  0004c	72 2b		 jb	 SHORT $L208578
  0004e	85 db		 test	 ebx, ebx
  00050	8b 45 04	 mov	 eax, DWORD PTR [ebp+4]
  00053	57		 push	 edi
  00054	8d 7d 04	 lea	 edi, DWORD PTR [ebp+4]
  00057	76 16		 jbe	 SHORT $L208576
  00059	8b cb		 mov	 ecx, ebx
  0005b	8b d1		 mov	 edx, ecx
  0005d	c1 e9 02	 shr	 ecx, 2
  00060	8b f0		 mov	 esi, eax
  00062	f3 a5		 rep movsd
  00064	8b ca		 mov	 ecx, edx
  00066	83 e1 03	 and	 ecx, 3
  00069	f3 a4		 rep movsb
  0006b	8b 74 24 14	 mov	 esi, DWORD PTR __Newsize$[esp+12]
$L208576:
  0006f	50		 push	 eax
  00070	e8 00 00 00 00	 call	 ??3@YAXPAX@Z		; operator delete
  00075	83 c4 04	 add	 esp, 4
  00078	5f		 pop	 edi
$L208578:
  00079	89 5d 14	 mov	 DWORD PTR [ebp+20], ebx

; 1490 : 		return (0 < _Newsize);	// return true only if more work to do

  0007c	33 c0		 xor	 eax, eax
  0007e	c7 45 18 0f 00
	00 00		 mov	 DWORD PTR [ebp+24], 15	; 0000000fH
  00085	c6 44 2b 04 00	 mov	 BYTE PTR [ebx+ebp+4], 0
  0008a	3b c6		 cmp	 eax, esi
  0008c	5b		 pop	 ebx
  0008d	1b c0		 sbb	 eax, eax
  0008f	5e		 pop	 esi
  00090	f7 d8		 neg	 eax
  00092	5d		 pop	 ebp

; 1491 : 		}

  00093	c2 08 00	 ret	 8
$L185005:

; 1488 : 		else if (_Newsize == 0)

  00096	85 f6		 test	 esi, esi
  00098	75 23		 jne	 SHORT $L208609

; 1489 : 			_Eos(0);	// new size is zero, just null terminate

  0009a	83 f8 10	 cmp	 eax, 16			; 00000010H
  0009d	89 75 14	 mov	 DWORD PTR [ebp+20], esi
  000a0	72 14		 jb	 SHORT $L208606
  000a2	8b 6d 04	 mov	 ebp, DWORD PTR [ebp+4]

; 1490 : 		return (0 < _Newsize);	// return true only if more work to do

  000a5	33 c0		 xor	 eax, eax
  000a7	3b c6		 cmp	 eax, esi
  000a9	1b c0		 sbb	 eax, eax
  000ab	5e		 pop	 esi
  000ac	c6 45 00 00	 mov	 BYTE PTR [ebp], 0
  000b0	f7 d8		 neg	 eax
  000b2	5d		 pop	 ebp

; 1491 : 		}

  000b3	c2 08 00	 ret	 8

; 1489 : 			_Eos(0);	// new size is zero, just null terminate

$L208606:
  000b6	83 c5 04	 add	 ebp, 4
  000b9	c6 45 00 00	 mov	 BYTE PTR [ebp], 0
$L208609:

; 1490 : 		return (0 < _Newsize);	// return true only if more work to do

  000bd	33 c0		 xor	 eax, eax
  000bf	3b c6		 cmp	 eax, esi
  000c1	1b c0		 sbb	 eax, eax
  000c3	5e		 pop	 esi
  000c4	f7 d8		 neg	 eax
  000c6	5d		 pop	 ebp

; 1491 : 		}

  000c7	c2 08 00	 ret	 8
?_Grow@?$basic_string@DU?$char_traits@D@std@@V?$allocator@D@2@@std@@IAE_NI_N@Z ENDP ; std::basic_string<char,std::char_traits<char>,std::allocator<char> >::_Grow
_TEXT	ENDS
PUBLIC	??_7logic_error@std@@6B@			; std::logic_error::`vftable'
PUBLIC	??_Glogic_error@std@@UAEPAXI@Z			; std::logic_error::`scalar deleting destructor'
PUBLIC	??1logic_error@std@@UAE@XZ			; std::logic_error::~logic_error
PUBLIC	?what@logic_error@std@@UBEPBDXZ			; std::logic_error::what
EXTRN	??_Elogic_error@std@@UAEPAXI@Z:NEAR		; std::logic_error::`vector deleting destructor'
EXTRN	??1exception@@UAE@XZ:NEAR			; exception::~exception
;	COMDAT ??_7logic_error@std@@6B@
; File c:\program files\microsoft visual studio .net 2003\vc7\include\iosfwd
CONST	SEGMENT
??_7logic_error@std@@6B@ DD FLAT:??_Elogic_error@std@@UAEPAXI@Z ; std::logic_error::`vftable'
	DD	FLAT:?what@logic_error@std@@UBEPBDXZ
; Function compile flags: /Ogty
; File c:\program files\microsoft visual studio .net 2003\vc7\include\stdexcept
CONST	ENDS
;	COMDAT ??1logic_error@std@@UAE@XZ
_TEXT	SEGMENT
??1logic_error@std@@UAE@XZ PROC NEAR			; std::logic_error::~logic_error, COMDAT
; _this$ = ecx

; 23   : 		{}	// destroy the object

  00000	56		 push	 esi
  00001	8b f1		 mov	 esi, ecx
  00003	c7 06 00 00 00
	00		 mov	 DWORD PTR [esi], OFFSET FLAT:??_7logic_error@std@@6B@
  00009	83 7e 24 10	 cmp	 DWORD PTR [esi+36], 16	; 00000010H
  0000d	72 0c		 jb	 SHORT $L208676
  0000f	8b 46 10	 mov	 eax, DWORD PTR [esi+16]
  00012	50		 push	 eax
  00013	e8 00 00 00 00	 call	 ??3@YAXPAX@Z		; operator delete
  00018	83 c4 04	 add	 esp, 4
$L208676:
  0001b	33 c0		 xor	 eax, eax
  0001d	c7 46 24 0f 00
	00 00		 mov	 DWORD PTR [esi+36], 15	; 0000000fH
  00024	89 46 20	 mov	 DWORD PTR [esi+32], eax
  00027	88 46 10	 mov	 BYTE PTR [esi+16], al
  0002a	8b ce		 mov	 ecx, esi
  0002c	5e		 pop	 esi
  0002d	e9 00 00 00 00	 jmp	 ??1exception@@UAE@XZ	; exception::~exception
??1logic_error@std@@UAE@XZ ENDP				; std::logic_error::~logic_error
; Function compile flags: /Ogty
_TEXT	ENDS
;	COMDAT ?what@logic_error@std@@UBEPBDXZ
_TEXT	SEGMENT
?what@logic_error@std@@UBEPBDXZ PROC NEAR		; std::logic_error::what, COMDAT
; _this$ = ecx

; 27   : 		return (_Str.c_str());

  00000	83 79 24 10	 cmp	 DWORD PTR [ecx+36], 16	; 00000010H
  00004	72 04		 jb	 SHORT $L208703
  00006	8b 41 10	 mov	 eax, DWORD PTR [ecx+16]

; 28   : 		}

  00009	c3		 ret	 0

; 27   : 		return (_Str.c_str());

$L208703:
  0000a	8d 41 10	 lea	 eax, DWORD PTR [ecx+16]

; 28   : 		}

  0000d	c3		 ret	 0
?what@logic_error@std@@UBEPBDXZ ENDP			; std::logic_error::what
; Function compile flags: /Ogty
_TEXT	ENDS
;	COMDAT ??_Glogic_error@std@@UAEPAXI@Z
_TEXT	SEGMENT
___flags$ = 8						; size = 4
??_Glogic_error@std@@UAEPAXI@Z PROC NEAR		; std::logic_error::`scalar deleting destructor', COMDAT
; _this$ = ecx
  00000	56		 push	 esi
  00001	8b f1		 mov	 esi, ecx
  00003	e8 00 00 00 00	 call	 ??1logic_error@std@@UAE@XZ ; std::logic_error::~logic_error
  00008	f6 44 24 08 01	 test	 BYTE PTR ___flags$[esp], 1
  0000d	74 09		 je	 SHORT $L208709
  0000f	56		 push	 esi
  00010	e8 00 00 00 00	 call	 ??3@YAXPAX@Z		; operator delete
  00015	83 c4 04	 add	 esp, 4
$L208709:
  00018	8b c6		 mov	 eax, esi
  0001a	5e		 pop	 esi
  0001b	c2 04 00	 ret	 4
??_Glogic_error@std@@UAEPAXI@Z ENDP			; std::logic_error::`scalar deleting destructor'
_TEXT	ENDS
PUBLIC	?assign@?$basic_string@DU?$char_traits@D@std@@V?$allocator@D@2@@std@@QAEAAV12@ABV12@II@Z ; std::basic_string<char,std::char_traits<char>,std::allocator<char> >::assign
; Function compile flags: /Ogty
; File c:\program files\microsoft visual studio .net 2003\vc7\include\xstring
;	COMDAT ?assign@?$basic_string@DU?$char_traits@D@std@@V?$allocator@D@2@@std@@QAEAAV12@ABV12@II@Z
_TEXT	SEGMENT
__Right$ = 8						; size = 4
__Roff$ = 12						; size = 4
__Count$ = 16						; size = 4
?assign@?$basic_string@DU?$char_traits@D@std@@V?$allocator@D@2@@std@@QAEAAV12@ABV12@II@Z PROC NEAR ; std::basic_string<char,std::char_traits<char>,std::allocator<char> >::assign, COMDAT
; _this$ = ecx

; 590  : 		{	// assign _Right [_Roff, _Roff + _Count)

  00000	53		 push	 ebx
  00001	55		 push	 ebp
  00002	56		 push	 esi

; 591  : 		if (_Right.size() < _Roff)

  00003	8b 74 24 14	 mov	 esi, DWORD PTR __Roff$[esp+8]
  00007	57		 push	 edi
  00008	8b 7c 24 14	 mov	 edi, DWORD PTR __Right$[esp+12]
  0000c	39 77 14	 cmp	 DWORD PTR [edi+20], esi
  0000f	8b d9		 mov	 ebx, ecx
  00011	73 05		 jae	 SHORT $L184271

; 592  : 			_String_base::_Xran();	// _Roff off end

  00013	e8 00 00 00 00	 call	 ?_Xran@_String_base@std@@QBEXXZ ; std::_String_base::_Xran
$L184271:

; 593  : 		size_type _Num = _Right.size() - _Roff;

  00018	8b 6f 14	 mov	 ebp, DWORD PTR [edi+20]

; 594  : 		if (_Count < _Num)

  0001b	8b 44 24 1c	 mov	 eax, DWORD PTR __Count$[esp+12]
  0001f	2b ee		 sub	 ebp, esi
  00021	3b c5		 cmp	 eax, ebp
  00023	73 02		 jae	 SHORT $L184273

; 595  : 			_Num = _Count;	// trim _Num to size

  00025	8b e8		 mov	 ebp, eax
$L184273:

; 596  : 
; 597  : 		if (this == &_Right)

  00027	3b df		 cmp	 ebx, edi
  00029	75 1f		 jne	 SHORT $L184274

; 598  : 			erase((size_type)(_Roff + _Num)), erase(0, _Roff);	// substring

  0002b	6a ff		 push	 -1
  0002d	03 ee		 add	 ebp, esi
  0002f	55		 push	 ebp
  00030	8b cb		 mov	 ecx, ebx
  00032	e8 00 00 00 00	 call	 ?erase@?$basic_string@DU?$char_traits@D@std@@V?$allocator@D@2@@std@@QAEAAV12@II@Z ; std::basic_string<char,std::char_traits<char>,std::allocator<char> >::erase
  00037	56		 push	 esi
  00038	6a 00		 push	 0
  0003a	8b cb		 mov	 ecx, ebx
  0003c	e8 00 00 00 00	 call	 ?erase@?$basic_string@DU?$char_traits@D@std@@V?$allocator@D@2@@std@@QAEAAV12@II@Z ; std::basic_string<char,std::char_traits<char>,std::allocator<char> >::erase
  00041	5f		 pop	 edi
  00042	5e		 pop	 esi
  00043	5d		 pop	 ebp

; 603  : 			}
; 604  : 		return (*this);

  00044	8b c3		 mov	 eax, ebx
  00046	5b		 pop	 ebx

; 605  : 		}

  00047	c2 0c 00	 ret	 12			; 0000000cH
$L184274:

; 599  : 		else if (_Grow(_Num))

  0004a	83 fd fe	 cmp	 ebp, -2			; fffffffeH
  0004d	76 07		 jbe	 SHORT $L208817
  0004f	8b cb		 mov	 ecx, ebx
  00051	e8 00 00 00 00	 call	 ?_Xlen@_String_base@std@@QBEXXZ ; std::_String_base::_Xlen
$L208817:
  00056	8b 43 18	 mov	 eax, DWORD PTR [ebx+24]
  00059	3b c5		 cmp	 eax, ebp
  0005b	73 21		 jae	 SHORT $L208818
  0005d	8b 43 14	 mov	 eax, DWORD PTR [ebx+20]
  00060	50		 push	 eax
  00061	55		 push	 ebp
  00062	8b cb		 mov	 ecx, ebx
  00064	e8 00 00 00 00	 call	 ?_Copy@?$basic_string@DU?$char_traits@D@std@@V?$allocator@D@2@@std@@IAEXII@Z ; std::basic_string<char,std::char_traits<char>,std::allocator<char> >::_Copy
  00069	85 ed		 test	 ebp, ebp
$L208905:
  0006b	76 6d		 jbe	 SHORT $L208904

; 600  : 			{	// make room and assign new stuff
; 601  : 			_Traits::copy(_Myptr(), _Right._Myptr() + _Roff, _Num);

  0006d	8b 4f 18	 mov	 ecx, DWORD PTR [edi+24]
  00070	b8 10 00 00 00	 mov	 eax, 16			; 00000010H
  00075	3b c8		 cmp	 ecx, eax
  00077	72 2f		 jb	 SHORT $L208870
  00079	8b 57 04	 mov	 edx, DWORD PTR [edi+4]
  0007c	eb 2d		 jmp	 SHORT $L208871

; 599  : 		else if (_Grow(_Num))

$L208818:
  0007e	85 ed		 test	 ebp, ebp
  00080	75 e9		 jne	 SHORT $L208905
  00082	83 f8 10	 cmp	 eax, 16			; 00000010H
  00085	89 6b 14	 mov	 DWORD PTR [ebx+20], ebp
  00088	72 0f		 jb	 SHORT $L208861
  0008a	8b 43 04	 mov	 eax, DWORD PTR [ebx+4]
  0008d	5f		 pop	 edi
  0008e	5e		 pop	 esi
  0008f	c6 00 00	 mov	 BYTE PTR [eax], 0
  00092	5d		 pop	 ebp

; 603  : 			}
; 604  : 		return (*this);

  00093	8b c3		 mov	 eax, ebx
  00095	5b		 pop	 ebx

; 605  : 		}

  00096	c2 0c 00	 ret	 12			; 0000000cH

; 599  : 		else if (_Grow(_Num))

$L208861:
  00099	5f		 pop	 edi
  0009a	8d 43 04	 lea	 eax, DWORD PTR [ebx+4]
  0009d	5e		 pop	 esi
  0009e	c6 00 00	 mov	 BYTE PTR [eax], 0
  000a1	5d		 pop	 ebp

; 603  : 			}
; 604  : 		return (*this);

  000a2	8b c3		 mov	 eax, ebx
  000a4	5b		 pop	 ebx

; 605  : 		}

  000a5	c2 0c 00	 ret	 12			; 0000000cH

; 600  : 			{	// make room and assign new stuff
; 601  : 			_Traits::copy(_Myptr(), _Right._Myptr() + _Roff, _Num);

$L208870:
  000a8	8d 57 04	 lea	 edx, DWORD PTR [edi+4]
$L208871:
  000ab	39 43 18	 cmp	 DWORD PTR [ebx+24], eax
  000ae	8d 43 04	 lea	 eax, DWORD PTR [ebx+4]
  000b1	72 04		 jb	 SHORT $L208877
  000b3	8b 38		 mov	 edi, DWORD PTR [eax]
  000b5	eb 02		 jmp	 SHORT $L208878
$L208877:
  000b7	8b f8		 mov	 edi, eax
$L208878:
  000b9	03 f2		 add	 esi, edx
  000bb	8b cd		 mov	 ecx, ebp
  000bd	8b d1		 mov	 edx, ecx
  000bf	c1 e9 02	 shr	 ecx, 2
  000c2	f3 a5		 rep movsd
  000c4	8b ca		 mov	 ecx, edx
  000c6	83 e1 03	 and	 ecx, 3
  000c9	f3 a4		 rep movsb

; 602  : 			_Eos(_Num);

  000cb	83 7b 18 10	 cmp	 DWORD PTR [ebx+24], 16	; 00000010H
  000cf	89 6b 14	 mov	 DWORD PTR [ebx+20], ebp
  000d2	72 02		 jb	 SHORT $L208901
  000d4	8b 00		 mov	 eax, DWORD PTR [eax]
$L208901:
  000d6	c6 04 28 00	 mov	 BYTE PTR [eax+ebp], 0
$L208904:
  000da	5f		 pop	 edi
  000db	5e		 pop	 esi
  000dc	5d		 pop	 ebp

; 603  : 			}
; 604  : 		return (*this);

  000dd	8b c3		 mov	 eax, ebx
  000df	5b		 pop	 ebx

; 605  : 		}

  000e0	c2 0c 00	 ret	 12			; 0000000cH
?assign@?$basic_string@DU?$char_traits@D@std@@V?$allocator@D@2@@std@@QAEAAV12@ABV12@II@Z ENDP ; std::basic_string<char,std::char_traits<char>,std::allocator<char> >::assign
_TEXT	ENDS
PUBLIC	?assign@?$basic_string@DU?$char_traits@D@std@@V?$allocator@D@2@@std@@QAEAAV12@PBDI@Z ; std::basic_string<char,std::char_traits<char>,std::allocator<char> >::assign
; Function compile flags: /Ogty
;	COMDAT ?assign@?$basic_string@DU?$char_traits@D@std@@V?$allocator@D@2@@std@@QAEAAV12@PBDI@Z
_TEXT	SEGMENT
__Ptr$ = 8						; size = 4
__Num$ = 12						; size = 4
?assign@?$basic_string@DU?$char_traits@D@std@@V?$allocator@D@2@@std@@QAEAAV12@PBDI@Z PROC NEAR ; std::basic_string<char,std::char_traits<char>,std::allocator<char> >::assign, COMDAT
; _this$ = ecx

; 608  : 		{	// assign [_Ptr, _Ptr + _Num)

  00000	53		 push	 ebx
  00001	8b d9		 mov	 ebx, ecx

; 609  : 		if (_Inside(_Ptr))

  00003	8b 53 18	 mov	 edx, DWORD PTR [ebx+24]
  00006	83 fa 10	 cmp	 edx, 16			; 00000010H
  00009	56		 push	 esi
  0000a	57		 push	 edi
  0000b	72 05		 jb	 SHORT $L208925
  0000d	8b 43 04	 mov	 eax, DWORD PTR [ebx+4]
  00010	eb 03		 jmp	 SHORT $L208926
$L208925:
  00012	8d 43 04	 lea	 eax, DWORD PTR [ebx+4]
$L208926:
  00015	8b 74 24 10	 mov	 esi, DWORD PTR __Ptr$[esp+8]
  00019	3b f0		 cmp	 esi, eax
  0001b	72 34		 jb	 SHORT $L184989
  0001d	83 fa 10	 cmp	 edx, 16			; 00000010H
  00020	8d 43 04	 lea	 eax, DWORD PTR [ebx+4]
  00023	72 04		 jb	 SHORT $L208929
  00025	8b 08		 mov	 ecx, DWORD PTR [eax]
  00027	eb 02		 jmp	 SHORT $L208930
$L208929:
  00029	8b c8		 mov	 ecx, eax
$L208930:
  0002b	8b 7b 14	 mov	 edi, DWORD PTR [ebx+20]
  0002e	03 f9		 add	 edi, ecx
  00030	3b fe		 cmp	 edi, esi
  00032	76 1d		 jbe	 SHORT $L184989

; 610  : 			return (assign(*this, _Ptr - _Myptr(), _Num));	// substring

  00034	83 fa 10	 cmp	 edx, 16			; 00000010H
  00037	72 02		 jb	 SHORT $L208942
  00039	8b 00		 mov	 eax, DWORD PTR [eax]
$L208942:
  0003b	8b 4c 24 14	 mov	 ecx, DWORD PTR __Num$[esp+8]
  0003f	51		 push	 ecx
  00040	2b f0		 sub	 esi, eax
  00042	56		 push	 esi
  00043	53		 push	 ebx
  00044	8b cb		 mov	 ecx, ebx
  00046	e8 00 00 00 00	 call	 ?assign@?$basic_string@DU?$char_traits@D@std@@V?$allocator@D@2@@std@@QAEAAV12@ABV12@II@Z ; std::basic_string<char,std::char_traits<char>,std::allocator<char> >::assign
  0004b	5f		 pop	 edi
  0004c	5e		 pop	 esi
  0004d	5b		 pop	 ebx

; 618  : 		}

  0004e	c2 08 00	 ret	 8
$L184989:
  00051	55		 push	 ebp

; 611  : 
; 612  : 		if (_Grow(_Num))

  00052	8b 6c 24 18	 mov	 ebp, DWORD PTR __Num$[esp+12]
  00056	83 fd fe	 cmp	 ebp, -2			; fffffffeH
  00059	76 07		 jbe	 SHORT $L209083
  0005b	8b cb		 mov	 ecx, ebx
  0005d	e8 00 00 00 00	 call	 ?_Xlen@_String_base@std@@QBEXXZ ; std::_String_base::_Xlen
$L209083:
  00062	8b 43 18	 mov	 eax, DWORD PTR [ebx+24]
  00065	3b c5		 cmp	 eax, ebp
  00067	73 1b		 jae	 SHORT $L209084
  00069	8b 53 14	 mov	 edx, DWORD PTR [ebx+20]
  0006c	52		 push	 edx
  0006d	55		 push	 ebp
  0006e	8b cb		 mov	 ecx, ebx
  00070	e8 00 00 00 00	 call	 ?_Copy@?$basic_string@DU?$char_traits@D@std@@V?$allocator@D@2@@std@@IAEXII@Z ; std::basic_string<char,std::char_traits<char>,std::allocator<char> >::_Copy
  00075	85 ed		 test	 ebp, ebp
$L209122:
  00077	76 68		 jbe	 SHORT $L209119

; 613  : 			{	// make room and assign new stuff
; 614  : 			_Traits::copy(_Myptr(), _Ptr, _Num);

  00079	83 7b 18 10	 cmp	 DWORD PTR [ebx+24], 16	; 00000010H
  0007d	72 2f		 jb	 SHORT $L209093
  0007f	8b 7b 04	 mov	 edi, DWORD PTR [ebx+4]
  00082	eb 2d		 jmp	 SHORT $L209094

; 611  : 
; 612  : 		if (_Grow(_Num))

$L209084:
  00084	85 ed		 test	 ebp, ebp
  00086	75 ef		 jne	 SHORT $L209122
  00088	83 f8 10	 cmp	 eax, 16			; 00000010H
  0008b	89 6b 14	 mov	 DWORD PTR [ebx+20], ebp
  0008e	72 0f		 jb	 SHORT $L209076
  00090	8b 43 04	 mov	 eax, DWORD PTR [ebx+4]
  00093	5d		 pop	 ebp
  00094	5f		 pop	 edi
  00095	c6 00 00	 mov	 BYTE PTR [eax], 0
  00098	5e		 pop	 esi

; 616  : 			}
; 617  : 		return (*this);

  00099	8b c3		 mov	 eax, ebx
  0009b	5b		 pop	 ebx

; 618  : 		}

  0009c	c2 08 00	 ret	 8

; 611  : 
; 612  : 		if (_Grow(_Num))

$L209076:
  0009f	5d		 pop	 ebp
  000a0	8d 43 04	 lea	 eax, DWORD PTR [ebx+4]
  000a3	5f		 pop	 edi
  000a4	c6 00 00	 mov	 BYTE PTR [eax], 0
  000a7	5e		 pop	 esi

; 616  : 			}
; 617  : 		return (*this);

  000a8	8b c3		 mov	 eax, ebx
  000aa	5b		 pop	 ebx

; 618  : 		}

  000ab	c2 08 00	 ret	 8

; 613  : 			{	// make room and assign new stuff
; 614  : 			_Traits::copy(_Myptr(), _Ptr, _Num);

$L209093:
  000ae	8d 7b 04	 lea	 edi, DWORD PTR [ebx+4]
$L209094:
  000b1	8b cd		 mov	 ecx, ebp
  000b3	8b c1		 mov	 eax, ecx
  000b5	c1 e9 02	 shr	 ecx, 2
  000b8	f3 a5		 rep movsd
  000ba	8b c8		 mov	 ecx, eax
  000bc	83 e1 03	 and	 ecx, 3
  000bf	f3 a4		 rep movsb

; 615  : 			_Eos(_Num);

  000c1	83 7b 18 10	 cmp	 DWORD PTR [ebx+24], 16	; 00000010H
  000c5	89 6b 14	 mov	 DWORD PTR [ebx+20], ebp
  000c8	72 10		 jb	 SHORT $L209115
  000ca	8b 43 04	 mov	 eax, DWORD PTR [ebx+4]
  000cd	c6 04 28 00	 mov	 BYTE PTR [eax+ebp], 0
  000d1	5d		 pop	 ebp
  000d2	5f		 pop	 edi
  000d3	5e		 pop	 esi

; 616  : 			}
; 617  : 		return (*this);

  000d4	8b c3		 mov	 eax, ebx
  000d6	5b		 pop	 ebx

; 618  : 		}

  000d7	c2 08 00	 ret	 8

; 615  : 			_Eos(_Num);

$L209115:
  000da	8d 43 04	 lea	 eax, DWORD PTR [ebx+4]
  000dd	c6 04 28 00	 mov	 BYTE PTR [eax+ebp], 0
$L209119:
  000e1	5d		 pop	 ebp
  000e2	5f		 pop	 edi
  000e3	5e		 pop	 esi

; 616  : 			}
; 617  : 		return (*this);

  000e4	8b c3		 mov	 eax, ebx
  000e6	5b		 pop	 ebx

; 618  : 		}

  000e7	c2 08 00	 ret	 8
?assign@?$basic_string@DU?$char_traits@D@std@@V?$allocator@D@2@@std@@QAEAAV12@PBDI@Z ENDP ; std::basic_string<char,std::char_traits<char>,std::allocator<char> >::assign
_TEXT	ENDS
PUBLIC	??0?$basic_string@DU?$char_traits@D@std@@V?$allocator@D@2@@std@@QAE@ABV01@@Z ; std::basic_string<char,std::char_traits<char>,std::allocator<char> >::basic_string<char,std::char_traits<char>,std::allocator<char> >
; Function compile flags: /Ogty
;	COMDAT ??0?$basic_string@DU?$char_traits@D@std@@V?$allocator@D@2@@std@@QAE@ABV01@@Z
_TEXT	SEGMENT
__Right$ = 8						; size = 4
??0?$basic_string@DU?$char_traits@D@std@@V?$allocator@D@2@@std@@QAE@ABV01@@Z PROC NEAR ; std::basic_string<char,std::char_traits<char>,std::allocator<char> >::basic_string<char,std::char_traits<char>,std::allocator<char> >, COMDAT
; _this$ = ecx

; 323  : 		{	// construct by copying _Right

  00000	56		 push	 esi

; 324  : 		_Tidy();

  00001	33 c0		 xor	 eax, eax
  00003	8b f1		 mov	 esi, ecx

; 325  : 		assign(_Right, 0, npos);

  00005	6a ff		 push	 -1
  00007	89 46 14	 mov	 DWORD PTR [esi+20], eax
  0000a	c7 46 18 0f 00
	00 00		 mov	 DWORD PTR [esi+24], 15	; 0000000fH
  00011	50		 push	 eax
  00012	88 46 04	 mov	 BYTE PTR [esi+4], al
  00015	8b 44 24 10	 mov	 eax, DWORD PTR __Right$[esp+8]
  00019	50		 push	 eax
  0001a	e8 00 00 00 00	 call	 ?assign@?$basic_string@DU?$char_traits@D@std@@V?$allocator@D@2@@std@@QAEAAV12@ABV12@II@Z ; std::basic_string<char,std::char_traits<char>,std::allocator<char> >::assign

; 326  : 		}

  0001f	8b c6		 mov	 eax, esi
  00021	5e		 pop	 esi
  00022	c2 04 00	 ret	 4
??0?$basic_string@DU?$char_traits@D@std@@V?$allocator@D@2@@std@@QAE@ABV01@@Z ENDP ; std::basic_string<char,std::char_traits<char>,std::allocator<char> >::basic_string<char,std::char_traits<char>,std::allocator<char> >
_TEXT	ENDS
PUBLIC	?assign@?$basic_string@DU?$char_traits@D@std@@V?$allocator@D@2@@std@@QAEAAV12@PBD@Z ; std::basic_string<char,std::char_traits<char>,std::allocator<char> >::assign
; Function compile flags: /Ogty
;	COMDAT ?assign@?$basic_string@DU?$char_traits@D@std@@V?$allocator@D@2@@std@@QAEAAV12@PBD@Z
_TEXT	SEGMENT
__Ptr$ = 8						; size = 4
?assign@?$basic_string@DU?$char_traits@D@std@@V?$allocator@D@2@@std@@QAEAAV12@PBD@Z PROC NEAR ; std::basic_string<char,std::char_traits<char>,std::allocator<char> >::assign, COMDAT
; _this$ = ecx

; 621  : 		{	// assign [_Ptr, <null>)

  00000	56		 push	 esi

; 622  : 		return (assign(_Ptr, _Traits::length(_Ptr)));

  00001	8b 74 24 08	 mov	 esi, DWORD PTR __Ptr$[esp]
  00005	8b c6		 mov	 eax, esi
  00007	57		 push	 edi
  00008	8d 78 01	 lea	 edi, DWORD PTR [eax+1]
  0000b	eb 03 8d 49 00	 npad	 5
$L209194:
  00010	8a 10		 mov	 dl, BYTE PTR [eax]
  00012	40		 inc	 eax
  00013	84 d2		 test	 dl, dl
  00015	75 f9		 jne	 SHORT $L209194
  00017	2b c7		 sub	 eax, edi
  00019	50		 push	 eax
  0001a	56		 push	 esi
  0001b	e8 00 00 00 00	 call	 ?assign@?$basic_string@DU?$char_traits@D@std@@V?$allocator@D@2@@std@@QAEAAV12@PBDI@Z ; std::basic_string<char,std::char_traits<char>,std::allocator<char> >::assign
  00020	5f		 pop	 edi
  00021	5e		 pop	 esi

; 623  : 		}

  00022	c2 04 00	 ret	 4
?assign@?$basic_string@DU?$char_traits@D@std@@V?$allocator@D@2@@std@@QAEAAV12@PBD@Z ENDP ; std::basic_string<char,std::char_traits<char>,std::allocator<char> >::assign
_TEXT	ENDS
PUBLIC	??0logic_error@std@@QAE@ABV?$basic_string@DU?$char_traits@D@std@@V?$allocator@D@2@@1@@Z ; std::logic_error::logic_error
EXTRN	??0exception@@QAE@XZ:NEAR			; exception::exception
;	COMDAT xdata$x
; File c:\program files\microsoft visual studio .net 2003\vc7\include\iosfwd
xdata$x	SEGMENT
$T209297 DD	0ffffffffH
	DD	FLAT:$L209197
$T209295 DD	019930520H
	DD	01H
	DD	FLAT:$T209297
	DD	2 DUP(00H)
	DD	2 DUP(00H)
; Function compile flags: /Ogty
; File c:\program files\microsoft visual studio .net 2003\vc7\include\stdexcept
xdata$x	ENDS
;	COMDAT ??0logic_error@std@@QAE@ABV?$basic_string@DU?$char_traits@D@std@@V?$allocator@D@2@@1@@Z
_TEXT	SEGMENT
_this$ = -16						; size = 4
__$EHRec$ = -12						; size = 12
__Message$ = 8						; size = 4
??0logic_error@std@@QAE@ABV?$basic_string@DU?$char_traits@D@std@@V?$allocator@D@2@@1@@Z PROC NEAR ; std::logic_error::logic_error, COMDAT
; _this$ = ecx

; 19   : 		{	// construct from message string

  00000	6a ff		 push	 -1
  00002	68 00 00 00 00	 push	 __ehhandler$??0logic_error@std@@QAE@ABV?$basic_string@DU?$char_traits@D@std@@V?$allocator@D@2@@1@@Z
  00007	64 a1 00 00 00
	00		 mov	 eax, DWORD PTR fs:__except_list
  0000d	50		 push	 eax
  0000e	64 89 25 00 00
	00 00		 mov	 DWORD PTR fs:__except_list, esp
  00015	51		 push	 ecx
  00016	56		 push	 esi
  00017	8b f1		 mov	 esi, ecx
  00019	89 74 24 04	 mov	 DWORD PTR _this$[esp+20], esi
  0001d	e8 00 00 00 00	 call	 ??0exception@@QAE@XZ	; exception::exception
  00022	33 c0		 xor	 eax, eax
  00024	8d 4e 0c	 lea	 ecx, DWORD PTR [esi+12]
  00027	c7 06 00 00 00
	00		 mov	 DWORD PTR [esi], OFFSET FLAT:??_7logic_error@std@@6B@
  0002d	6a ff		 push	 -1
  0002f	89 41 14	 mov	 DWORD PTR [ecx+20], eax
  00032	c7 41 18 0f 00
	00 00		 mov	 DWORD PTR [ecx+24], 15	; 0000000fH
  00039	50		 push	 eax
  0003a	89 44 24 18	 mov	 DWORD PTR __$EHRec$[esp+36], eax
  0003e	88 41 04	 mov	 BYTE PTR [ecx+4], al
  00041	8b 44 24 20	 mov	 eax, DWORD PTR __Message$[esp+24]
  00045	50		 push	 eax
  00046	e8 00 00 00 00	 call	 ?assign@?$basic_string@DU?$char_traits@D@std@@V?$allocator@D@2@@std@@QAEAAV12@ABV12@II@Z ; std::basic_string<char,std::char_traits<char>,std::allocator<char> >::assign

; 20   : 		}

  0004b	8b 4c 24 08	 mov	 ecx, DWORD PTR __$EHRec$[esp+20]
  0004f	8b c6		 mov	 eax, esi
  00051	5e		 pop	 esi
  00052	64 89 0d 00 00
	00 00		 mov	 DWORD PTR fs:__except_list, ecx
  00059	83 c4 10	 add	 esp, 16			; 00000010H
  0005c	c2 04 00	 ret	 4
_TEXT	ENDS
;	COMDAT text$x
text$x	SEGMENT
$L209197:
  00000	8b 4d f0	 mov	 ecx, DWORD PTR _this$[ebp]
  00003	e9 00 00 00 00	 jmp	 ??1exception@@UAE@XZ	; exception::~exception
__ehhandler$??0logic_error@std@@QAE@ABV?$basic_string@DU?$char_traits@D@std@@V?$allocator@D@2@@1@@Z:
  00008	b8 00 00 00 00	 mov	 eax, OFFSET FLAT:$T209295
  0000d	e9 00 00 00 00	 jmp	 ___CxxFrameHandler
text$x	ENDS
??0logic_error@std@@QAE@ABV?$basic_string@DU?$char_traits@D@std@@V?$allocator@D@2@@1@@Z ENDP ; std::logic_error::logic_error
PUBLIC	??0length_error@std@@QAE@ABV?$basic_string@DU?$char_traits@D@std@@V?$allocator@D@2@@1@@Z ; std::length_error::length_error
PUBLIC	??_7length_error@std@@6B@			; std::length_error::`vftable'
PUBLIC	??_Glength_error@std@@UAEPAXI@Z			; std::length_error::`scalar deleting destructor'
EXTRN	??_Elength_error@std@@UAEPAXI@Z:NEAR		; std::length_error::`vector deleting destructor'
;	COMDAT ??_7length_error@std@@6B@
CONST	SEGMENT
??_7length_error@std@@6B@ DD FLAT:??_Elength_error@std@@UAEPAXI@Z ; std::length_error::`vftable'
	DD	FLAT:?what@logic_error@std@@UBEPBDXZ
; Function compile flags: /Ogty
CONST	ENDS
;	COMDAT ??0length_error@std@@QAE@ABV?$basic_string@DU?$char_traits@D@std@@V?$allocator@D@2@@1@@Z
_TEXT	SEGMENT
__Message$ = 8						; size = 4
??0length_error@std@@QAE@ABV?$basic_string@DU?$char_traits@D@std@@V?$allocator@D@2@@1@@Z PROC NEAR ; std::length_error::length_error, COMDAT
; _this$ = ecx

; 95   : 		{	// construct from message string

  00000	8b 44 24 04	 mov	 eax, DWORD PTR __Message$[esp-4]
  00004	56		 push	 esi
  00005	50		 push	 eax
  00006	8b f1		 mov	 esi, ecx
  00008	e8 00 00 00 00	 call	 ??0logic_error@std@@QAE@ABV?$basic_string@DU?$char_traits@D@std@@V?$allocator@D@2@@1@@Z ; std::logic_error::logic_error
  0000d	c7 06 00 00 00
	00		 mov	 DWORD PTR [esi], OFFSET FLAT:??_7length_error@std@@6B@

; 96   : 		}

  00013	8b c6		 mov	 eax, esi
  00015	5e		 pop	 esi
  00016	c2 04 00	 ret	 4
??0length_error@std@@QAE@ABV?$basic_string@DU?$char_traits@D@std@@V?$allocator@D@2@@1@@Z ENDP ; std::length_error::length_error
_TEXT	ENDS
PUBLIC	??1length_error@std@@UAE@XZ			; std::length_error::~length_error
; Function compile flags: /Ogty
;	COMDAT ??_Glength_error@std@@UAEPAXI@Z
_TEXT	SEGMENT
___flags$ = 8						; size = 4
??_Glength_error@std@@UAEPAXI@Z PROC NEAR		; std::length_error::`scalar deleting destructor', COMDAT
; _this$ = ecx
  00000	56		 push	 esi
  00001	8b f1		 mov	 esi, ecx
  00003	e8 00 00 00 00	 call	 ??1length_error@std@@UAE@XZ ; std::length_error::~length_error
  00008	f6 44 24 08 01	 test	 BYTE PTR ___flags$[esp], 1
  0000d	74 09		 je	 SHORT $L209305
  0000f	56		 push	 esi
  00010	e8 00 00 00 00	 call	 ??3@YAXPAX@Z		; operator delete
  00015	83 c4 04	 add	 esp, 4
$L209305:
  00018	8b c6		 mov	 eax, esi
  0001a	5e		 pop	 esi
  0001b	c2 04 00	 ret	 4
??_Glength_error@std@@UAEPAXI@Z ENDP			; std::length_error::`scalar deleting destructor'
; Function compile flags: /Ogty
_TEXT	ENDS
;	COMDAT ??1length_error@std@@UAE@XZ
_TEXT	SEGMENT
??1length_error@std@@UAE@XZ PROC NEAR			; std::length_error::~length_error, COMDAT
; _this$ = ecx

; 99   : 		{}	// destroy the object

  00000	56		 push	 esi
  00001	8b f1		 mov	 esi, ecx
  00003	c7 06 00 00 00
	00		 mov	 DWORD PTR [esi], OFFSET FLAT:??_7logic_error@std@@6B@
  00009	83 7e 24 10	 cmp	 DWORD PTR [esi+36], 16	; 00000010H
  0000d	72 0c		 jb	 SHORT $L209399
  0000f	8b 46 10	 mov	 eax, DWORD PTR [esi+16]
  00012	50		 push	 eax
  00013	e8 00 00 00 00	 call	 ??3@YAXPAX@Z		; operator delete
  00018	83 c4 04	 add	 esp, 4
$L209399:
  0001b	33 c0		 xor	 eax, eax
  0001d	c7 46 24 0f 00
	00 00		 mov	 DWORD PTR [esi+36], 15	; 0000000fH
  00024	89 46 20	 mov	 DWORD PTR [esi+32], eax
  00027	88 46 10	 mov	 BYTE PTR [esi+16], al
  0002a	8b ce		 mov	 ecx, esi
  0002c	5e		 pop	 esi
  0002d	e9 00 00 00 00	 jmp	 ??1exception@@UAE@XZ	; exception::~exception
??1length_error@std@@UAE@XZ ENDP			; std::length_error::~length_error
_TEXT	ENDS
PUBLIC	??0?$basic_string@DU?$char_traits@D@std@@V?$allocator@D@2@@std@@QAE@PBD@Z ; std::basic_string<char,std::char_traits<char>,std::allocator<char> >::basic_string<char,std::char_traits<char>,std::allocator<char> >
; Function compile flags: /Ogty
; File c:\program files\microsoft visual studio .net 2003\vc7\include\xstring
;	COMDAT ??0?$basic_string@DU?$char_traits@D@std@@V?$allocator@D@2@@std@@QAE@PBD@Z
_TEXT	SEGMENT
__Ptr$ = 8						; size = 4
??0?$basic_string@DU?$char_traits@D@std@@V?$allocator@D@2@@std@@QAE@PBD@Z PROC NEAR ; std::basic_string<char,std::char_traits<char>,std::allocator<char> >::basic_string<char,std::char_traits<char>,std::allocator<char> >, COMDAT
; _this$ = ecx

; 361  : 		_Tidy();
; 362  : 		assign(_Ptr);

  00000	8b 54 24 04	 mov	 edx, DWORD PTR __Ptr$[esp-4]
  00004	56		 push	 esi
  00005	8b f1		 mov	 esi, ecx
  00007	8b c2		 mov	 eax, edx
  00009	57		 push	 edi
  0000a	c7 46 18 0f 00
	00 00		 mov	 DWORD PTR [esi+24], 15	; 0000000fH
  00011	c7 46 14 00 00
	00 00		 mov	 DWORD PTR [esi+20], 0
  00018	c6 46 04 00	 mov	 BYTE PTR [esi+4], 0
  0001c	8d 78 01	 lea	 edi, DWORD PTR [eax+1]
  0001f	90		 npad	 1
$L209485:
  00020	8a 08		 mov	 cl, BYTE PTR [eax]
  00022	40		 inc	 eax
  00023	84 c9		 test	 cl, cl
  00025	75 f9		 jne	 SHORT $L209485
  00027	2b c7		 sub	 eax, edi
  00029	50		 push	 eax
  0002a	52		 push	 edx
  0002b	8b ce		 mov	 ecx, esi
  0002d	e8 00 00 00 00	 call	 ?assign@?$basic_string@DU?$char_traits@D@std@@V?$allocator@D@2@@std@@QAEAAV12@PBDI@Z ; std::basic_string<char,std::char_traits<char>,std::allocator<char> >::assign
  00032	5f		 pop	 edi

; 363  : 		}

  00033	8b c6		 mov	 eax, esi
  00035	5e		 pop	 esi
  00036	c2 04 00	 ret	 4
??0?$basic_string@DU?$char_traits@D@std@@V?$allocator@D@2@@std@@QAE@PBD@Z ENDP ; std::basic_string<char,std::char_traits<char>,std::allocator<char> >::basic_string<char,std::char_traits<char>,std::allocator<char> >
_TEXT	ENDS
PUBLIC	??_R0?AVlogic_error@std@@@8			; std::logic_error `RTTI Type Descriptor'
PUBLIC	__CT??_R0?AVlogic_error@std@@@8??0logic_error@std@@QAE@ABV01@@Z40
PUBLIC	??_R0?AVexception@@@8				; exception `RTTI Type Descriptor'
PUBLIC	__CT??_R0?AVexception@@@8??0exception@@QAE@ABV0@@Z12
PUBLIC	??0logic_error@std@@QAE@ABV01@@Z		; std::logic_error::logic_error
PUBLIC	??0length_error@std@@QAE@ABV01@@Z		; std::length_error::length_error
PUBLIC	__TI3?AVlength_error@std@@
PUBLIC	__CTA3?AVlength_error@std@@
PUBLIC	??_R0?AVlength_error@std@@@8			; std::length_error `RTTI Type Descriptor'
PUBLIC	__CT??_R0?AVlength_error@std@@@8??0length_error@std@@QAE@ABV01@@Z40
PUBLIC	??_C@_0BB@MOGOBHAF@list?$DMT?$DO?5too?5long?$AA@ ; `string'
PUBLIC	?_Incsize@?$list@PAXV?$allocator@PAX@std@@@std@@IAEXI@Z ; std::list<void *,std::allocator<void *> >::_Incsize
EXTRN	??0exception@@QAE@ABV0@@Z:NEAR			; exception::exception
EXTRN	??_7type_info@@6B@:DWORD			; type_info::`vftable'
;	COMDAT xdata$x
; File c:\program files\microsoft visual studio .net 2003\vc7\include\stdexcept
xdata$x	SEGMENT
$T209621 DD	0ffffffffH
	DD	FLAT:$L209490
$T209618 DD	019930520H
	DD	01H
	DD	FLAT:$T209621
	DD	2 DUP(00H)
	DD	2 DUP(00H)
xdata$x	ENDS
;	COMDAT ??_C@_0BB@MOGOBHAF@list?$DMT?$DO?5too?5long?$AA@
CONST	SEGMENT
??_C@_0BB@MOGOBHAF@list?$DMT?$DO?5too?5long?$AA@ DB 'list<T> too long', 00H ; `string'
CONST	ENDS
;	COMDAT __TI3?AVlength_error@std@@
xdata$x	SEGMENT
__TI3?AVlength_error@std@@ DD 00H
	DD	FLAT:??1length_error@std@@UAE@XZ
	DD	00H
	DD	FLAT:__CTA3?AVlength_error@std@@
xdata$x	ENDS
;	COMDAT __CTA3?AVlength_error@std@@
xdata$x	SEGMENT
__CTA3?AVlength_error@std@@ DD 03H
	DD	FLAT:__CT??_R0?AVlength_error@std@@@8??0length_error@std@@QAE@ABV01@@Z40
	DD	FLAT:__CT??_R0?AVlogic_error@std@@@8??0logic_error@std@@QAE@ABV01@@Z40
	DD	FLAT:__CT??_R0?AVexception@@@8??0exception@@QAE@ABV0@@Z12
xdata$x	ENDS
;	COMDAT __CT??_R0?AVlength_error@std@@@8??0length_error@std@@QAE@ABV01@@Z40
xdata$x	SEGMENT
__CT??_R0?AVlength_error@std@@@8??0length_error@std@@QAE@ABV01@@Z40 DD 00H
	DD	FLAT:??_R0?AVlength_error@std@@@8
	DD	00H
	DD	0ffffffffH
	ORG $+4
	DD	028H
	DD	FLAT:??0length_error@std@@QAE@ABV01@@Z
xdata$x	ENDS
;	COMDAT ??_R0?AVlength_error@std@@@8
_DATA	SEGMENT
??_R0?AVlength_error@std@@@8 DD FLAT:??_7type_info@@6B@	; std::length_error `RTTI Type Descriptor'
	DD	00H
	DB	'.?AVlength_error@std@@', 00H
_DATA	ENDS
;	COMDAT __CT??_R0?AVlogic_error@std@@@8??0logic_error@std@@QAE@ABV01@@Z40
xdata$x	SEGMENT
__CT??_R0?AVlogic_error@std@@@8??0logic_error@std@@QAE@ABV01@@Z40 DD 00H
	DD	FLAT:??_R0?AVlogic_error@std@@@8
	DD	00H
	DD	0ffffffffH
	ORG $+4
	DD	028H
	DD	FLAT:??0logic_error@std@@QAE@ABV01@@Z
xdata$x	ENDS
;	COMDAT ??_R0?AVlogic_error@std@@@8
_DATA	SEGMENT
??_R0?AVlogic_error@std@@@8 DD FLAT:??_7type_info@@6B@	; std::logic_error `RTTI Type Descriptor'
	DD	00H
	DB	'.?AVlogic_error@std@@', 00H
_DATA	ENDS
;	COMDAT __CT??_R0?AVexception@@@8??0exception@@QAE@ABV0@@Z12
xdata$x	SEGMENT
__CT??_R0?AVexception@@@8??0exception@@QAE@ABV0@@Z12 DD 00H
	DD	FLAT:??_R0?AVexception@@@8
	DD	00H
	DD	0ffffffffH
	ORG $+4
	DD	0cH
	DD	FLAT:??0exception@@QAE@ABV0@@Z
xdata$x	ENDS
;	COMDAT ??_R0?AVexception@@@8
_DATA	SEGMENT
??_R0?AVexception@@@8 DD FLAT:??_7type_info@@6B@	; exception `RTTI Type Descriptor'
	DD	00H
	DB	'.?AVexception@@', 00H
; Function compile flags: /Ogty
; File c:\program files\microsoft visual studio .net 2003\vc7\include\list
_DATA	ENDS
;	COMDAT ?_Incsize@?$list@PAXV?$allocator@PAX@std@@@std@@IAEXI@Z
_TEXT	SEGMENT
$T209489 = -80						; size = 28
$T209488 = -52						; size = 40
__$EHRec$ = -12						; size = 12
__Count$ = 8						; size = 4
?_Incsize@?$list@PAXV?$allocator@PAX@std@@@std@@IAEXI@Z PROC NEAR ; std::list<void *,std::allocator<void *> >::_Incsize, COMDAT
; _this$ = ecx

; 956  : 		{	// alter element count, with checking

  00000	64 a1 00 00 00
	00		 mov	 eax, DWORD PTR fs:__except_list

; 957  : 		if (max_size() - _Mysize < _Count)

  00006	8b 54 24 04	 mov	 edx, DWORD PTR __Count$[esp-4]
  0000a	6a ff		 push	 -1
  0000c	68 00 00 00 00	 push	 __ehhandler$?_Incsize@?$list@PAXV?$allocator@PAX@std@@@std@@IAEXI@Z
  00011	50		 push	 eax
  00012	64 89 25 00 00
	00 00		 mov	 DWORD PTR fs:__except_list, esp
  00019	8b 41 08	 mov	 eax, DWORD PTR [ecx+8]
  0001c	83 ec 44	 sub	 esp, 68			; 00000044H
  0001f	56		 push	 esi
  00020	be ff ff ff 3f	 mov	 esi, 1073741823		; 3fffffffH
  00025	2b f0		 sub	 esi, eax
  00027	3b f2		 cmp	 esi, edx
  00029	5e		 pop	 esi
  0002a	73 51		 jae	 SHORT $L185954

; 958  : 			_THROW(length_error, "list<T> too long");

  0002c	6a 10		 push	 16			; 00000010H
  0002e	68 00 00 00 00	 push	 OFFSET FLAT:??_C@_0BB@MOGOBHAF@list?$DMT?$DO?5too?5long?$AA@
  00033	8d 4c 24 08	 lea	 ecx, DWORD PTR $T209489[esp+88]
  00037	c7 44 24 20 0f
	00 00 00	 mov	 DWORD PTR $T209489[esp+112], 15 ; 0000000fH
  0003f	c7 44 24 1c 00
	00 00 00	 mov	 DWORD PTR $T209489[esp+108], 0
  00047	c6 44 24 0c 00	 mov	 BYTE PTR $T209489[esp+92], 0
  0004c	e8 00 00 00 00	 call	 ?assign@?$basic_string@DU?$char_traits@D@std@@V?$allocator@D@2@@std@@QAEAAV12@PBDI@Z ; std::basic_string<char,std::char_traits<char>,std::allocator<char> >::assign
  00051	8d 04 24	 lea	 eax, DWORD PTR $T209489[esp+80]
  00054	50		 push	 eax
  00055	8d 4c 24 20	 lea	 ecx, DWORD PTR $T209488[esp+84]
  00059	c7 44 24 50 00
	00 00 00	 mov	 DWORD PTR __$EHRec$[esp+92], 0
  00061	e8 00 00 00 00	 call	 ??0logic_error@std@@QAE@ABV?$basic_string@DU?$char_traits@D@std@@V?$allocator@D@2@@1@@Z ; std::logic_error::logic_error
  00066	68 00 00 00 00	 push	 OFFSET FLAT:__TI3?AVlength_error@std@@
  0006b	8d 4c 24 20	 lea	 ecx, DWORD PTR $T209488[esp+84]
  0006f	51		 push	 ecx
  00070	c7 44 24 24 00
	00 00 00	 mov	 DWORD PTR $T209488[esp+88], OFFSET FLAT:??_7length_error@std@@6B@
  00078	e8 00 00 00 00	 call	 __CxxThrowException@8
$L185954:

; 959  : 		_Mysize += _Count;

  0007d	03 c2		 add	 eax, edx
  0007f	89 41 08	 mov	 DWORD PTR [ecx+8], eax

; 960  : 		}

  00082	8b 4c 24 44	 mov	 ecx, DWORD PTR __$EHRec$[esp+80]
  00086	64 89 0d 00 00
	00 00		 mov	 DWORD PTR fs:__except_list, ecx
  0008d	83 c4 50	 add	 esp, 80			; 00000050H
  00090	c2 04 00	 ret	 4
$L209620:
_TEXT	ENDS
;	COMDAT text$x
text$x	SEGMENT
$L209490:
  00000	8d 4d b0	 lea	 ecx, DWORD PTR $T209489[ebp]
  00003	e9 00 00 00 00	 jmp	 ??1?$basic_string@DU?$char_traits@D@std@@V?$allocator@D@2@@std@@QAE@XZ ; std::basic_string<char,std::char_traits<char>,std::allocator<char> >::~basic_string<char,std::char_traits<char>,std::allocator<char> >
__ehhandler$?_Incsize@?$list@PAXV?$allocator@PAX@std@@@std@@IAEXI@Z:
  00008	b8 00 00 00 00	 mov	 eax, OFFSET FLAT:$T209618
  0000d	e9 00 00 00 00	 jmp	 ___CxxFrameHandler
text$x	ENDS
?_Incsize@?$list@PAXV?$allocator@PAX@std@@@std@@IAEXI@Z ENDP ; std::list<void *,std::allocator<void *> >::_Incsize
;	COMDAT xdata$x
xdata$x	SEGMENT
$T209726 DD	0ffffffffH
	DD	FLAT:$L209626
$T209724 DD	019930520H
	DD	01H
	DD	FLAT:$T209726
	DD	2 DUP(00H)
	DD	2 DUP(00H)
; Function compile flags: /Ogty
xdata$x	ENDS
;	COMDAT ??0logic_error@std@@QAE@ABV01@@Z
_TEXT	SEGMENT
_this$ = -16						; size = 4
__$EHRec$ = -12						; size = 12
___that$ = 8						; size = 4
??0logic_error@std@@QAE@ABV01@@Z PROC NEAR		; std::logic_error::logic_error, COMDAT
; _this$ = ecx
  00000	6a ff		 push	 -1
  00002	68 00 00 00 00	 push	 __ehhandler$??0logic_error@std@@QAE@ABV01@@Z
  00007	64 a1 00 00 00
	00		 mov	 eax, DWORD PTR fs:__except_list
  0000d	50		 push	 eax
  0000e	64 89 25 00 00
	00 00		 mov	 DWORD PTR fs:__except_list, esp
  00015	51		 push	 ecx
  00016	56		 push	 esi
  00017	57		 push	 edi
  00018	8b 7c 24 1c	 mov	 edi, DWORD PTR ___that$[esp+20]
  0001c	8b f1		 mov	 esi, ecx
  0001e	57		 push	 edi
  0001f	89 74 24 0c	 mov	 DWORD PTR _this$[esp+28], esi
  00023	e8 00 00 00 00	 call	 ??0exception@@QAE@ABV0@@Z ; exception::exception
  00028	33 c0		 xor	 eax, eax
  0002a	6a ff		 push	 -1
  0002c	8d 4e 0c	 lea	 ecx, DWORD PTR [esi+12]
  0002f	c7 06 00 00 00
	00		 mov	 DWORD PTR [esi], OFFSET FLAT:??_7logic_error@std@@6B@
  00035	50		 push	 eax
  00036	83 c7 0c	 add	 edi, 12			; 0000000cH
  00039	c7 41 18 0f 00
	00 00		 mov	 DWORD PTR [ecx+24], 15	; 0000000fH
  00040	89 41 14	 mov	 DWORD PTR [ecx+20], eax
  00043	57		 push	 edi
  00044	89 44 24 20	 mov	 DWORD PTR __$EHRec$[esp+44], eax
  00048	88 41 04	 mov	 BYTE PTR [ecx+4], al
  0004b	e8 00 00 00 00	 call	 ?assign@?$basic_string@DU?$char_traits@D@std@@V?$allocator@D@2@@std@@QAEAAV12@ABV12@II@Z ; std::basic_string<char,std::char_traits<char>,std::allocator<char> >::assign
  00050	8b 4c 24 0c	 mov	 ecx, DWORD PTR __$EHRec$[esp+24]
  00054	5f		 pop	 edi
  00055	8b c6		 mov	 eax, esi
  00057	5e		 pop	 esi
  00058	64 89 0d 00 00
	00 00		 mov	 DWORD PTR fs:__except_list, ecx
  0005f	83 c4 10	 add	 esp, 16			; 00000010H
  00062	c2 04 00	 ret	 4
_TEXT	ENDS
;	COMDAT text$x
text$x	SEGMENT
$L209626:
  00000	8b 4d f0	 mov	 ecx, DWORD PTR _this$[ebp]
  00003	e9 00 00 00 00	 jmp	 ??1exception@@UAE@XZ	; exception::~exception
__ehhandler$??0logic_error@std@@QAE@ABV01@@Z:
  00008	b8 00 00 00 00	 mov	 eax, OFFSET FLAT:$T209724
  0000d	e9 00 00 00 00	 jmp	 ___CxxFrameHandler
text$x	ENDS
??0logic_error@std@@QAE@ABV01@@Z ENDP			; std::logic_error::logic_error
; Function compile flags: /Ogty
;	COMDAT ??0length_error@std@@QAE@ABV01@@Z
_TEXT	SEGMENT
___that$ = 8						; size = 4
??0length_error@std@@QAE@ABV01@@Z PROC NEAR		; std::length_error::length_error, COMDAT
; _this$ = ecx
  00000	8b 44 24 04	 mov	 eax, DWORD PTR ___that$[esp-4]
  00004	56		 push	 esi
  00005	50		 push	 eax
  00006	8b f1		 mov	 esi, ecx
  00008	e8 00 00 00 00	 call	 ??0logic_error@std@@QAE@ABV01@@Z
  0000d	c7 06 00 00 00
	00		 mov	 DWORD PTR [esi], OFFSET FLAT:??_7length_error@std@@6B@
  00013	8b c6		 mov	 eax, esi
  00015	5e		 pop	 esi
  00016	c2 04 00	 ret	 4
??0length_error@std@@QAE@ABV01@@Z ENDP			; std::length_error::length_error
_TEXT	ENDS
PUBLIC	?_Insert@?$list@PAXV?$allocator@PAX@std@@@std@@QAEXViterator@12@ABQAX@Z ; std::list<void *,std::allocator<void *> >::_Insert
; Function compile flags: /Ogty
;	COMDAT ?_Insert@?$list@PAXV?$allocator@PAX@std@@@std@@QAEXViterator@12@ABQAX@Z
_TEXT	SEGMENT
__Where$ = 8						; size = 4
__Val$ = 12						; size = 4
?_Insert@?$list@PAXV?$allocator@PAX@std@@@std@@QAEXViterator@12@ABQAX@Z PROC NEAR ; std::list<void *,std::allocator<void *> >::_Insert, COMDAT
; _this$ = ecx

; 522  : 		_Nodeptr _Pnode = _Where._Mynode();
; 523  : 		_Nodeptr _Newnode = _Buynode(_Pnode, _Prevnode(_Pnode), _Val);

  00000	8b 44 24 08	 mov	 eax, DWORD PTR __Val$[esp-4]
  00004	53		 push	 ebx
  00005	8b 5c 24 08	 mov	 ebx, DWORD PTR __Where$[esp]
  00009	56		 push	 esi
  0000a	57		 push	 edi
  0000b	8b f9		 mov	 edi, ecx
  0000d	8b 4b 04	 mov	 ecx, DWORD PTR [ebx+4]
  00010	50		 push	 eax
  00011	51		 push	 ecx
  00012	53		 push	 ebx
  00013	8b cf		 mov	 ecx, edi
  00015	e8 00 00 00 00	 call	 ?_Buynode@?$list@PAXV?$allocator@PAX@std@@@std@@IAEPAU_Node@?$_List_nod@PAXV?$allocator@PAX@std@@@2@PAU342@0ABQAX@Z ; std::list<void *,std::allocator<void *> >::_Buynode

; 524  : 		_Incsize(1);

  0001a	6a 01		 push	 1
  0001c	8b cf		 mov	 ecx, edi
  0001e	8b f0		 mov	 esi, eax
  00020	e8 00 00 00 00	 call	 ?_Incsize@?$list@PAXV?$allocator@PAX@std@@@std@@IAEXI@Z ; std::list<void *,std::allocator<void *> >::_Incsize

; 525  : 		_Prevnode(_Pnode) = _Newnode;

  00025	89 73 04	 mov	 DWORD PTR [ebx+4], esi

; 526  : 		_Nextnode(_Prevnode(_Newnode)) = _Newnode;

  00028	8b 56 04	 mov	 edx, DWORD PTR [esi+4]
  0002b	5f		 pop	 edi
  0002c	89 32		 mov	 DWORD PTR [edx], esi
  0002e	5e		 pop	 esi
  0002f	5b		 pop	 ebx

; 527  : 		}

  00030	c2 08 00	 ret	 8
?_Insert@?$list@PAXV?$allocator@PAX@std@@@std@@QAEXViterator@12@ABQAX@Z ENDP ; std::list<void *,std::allocator<void *> >::_Insert
_TEXT	ENDS
PUBLIC	?push_back@?$list@PAXV?$allocator@PAX@std@@@std@@QAEXABQAX@Z ; std::list<void *,std::allocator<void *> >::push_back
; Function compile flags: /Ogty
;	COMDAT ?push_back@?$list@PAXV?$allocator@PAX@std@@@std@@QAEXABQAX@Z
_TEXT	SEGMENT
__Val$ = 8						; size = 4
?push_back@?$list@PAXV?$allocator@PAX@std@@@std@@QAEXABQAX@Z PROC NEAR ; std::list<void *,std::allocator<void *> >::push_back, COMDAT
; _this$ = ecx

; 481  : 		_Insert(end(), _Val);

  00000	8b 44 24 04	 mov	 eax, DWORD PTR __Val$[esp-4]
  00004	53		 push	 ebx
  00005	56		 push	 esi
  00006	57		 push	 edi
  00007	8b f1		 mov	 esi, ecx
  00009	8b 7e 04	 mov	 edi, DWORD PTR [esi+4]
  0000c	8b 4f 04	 mov	 ecx, DWORD PTR [edi+4]
  0000f	50		 push	 eax
  00010	51		 push	 ecx
  00011	57		 push	 edi
  00012	8b ce		 mov	 ecx, esi
  00014	e8 00 00 00 00	 call	 ?_Buynode@?$list@PAXV?$allocator@PAX@std@@@std@@IAEPAU_Node@?$_List_nod@PAXV?$allocator@PAX@std@@@2@PAU342@0ABQAX@Z ; std::list<void *,std::allocator<void *> >::_Buynode
  00019	6a 01		 push	 1
  0001b	8b ce		 mov	 ecx, esi
  0001d	8b d8		 mov	 ebx, eax
  0001f	e8 00 00 00 00	 call	 ?_Incsize@?$list@PAXV?$allocator@PAX@std@@@std@@IAEXI@Z ; std::list<void *,std::allocator<void *> >::_Incsize
  00024	89 5f 04	 mov	 DWORD PTR [edi+4], ebx
  00027	8b 53 04	 mov	 edx, DWORD PTR [ebx+4]
  0002a	5f		 pop	 edi
  0002b	5e		 pop	 esi
  0002c	89 1a		 mov	 DWORD PTR [edx], ebx
  0002e	5b		 pop	 ebx

; 482  : 		}

  0002f	c2 04 00	 ret	 4
?push_back@?$list@PAXV?$allocator@PAX@std@@@std@@QAEXABQAX@Z ENDP ; std::list<void *,std::allocator<void *> >::push_back
_TEXT	ENDS
PUBLIC	??_C@_09PKKCPLIP@bad?5alloc?$AA@		; `string'
PUBLIC	?Create@?$MemPooler@VCMover@@@@IAEXXZ		; MemPooler<CMover>::Create
EXTRN	__imp__VirtualAlloc@16:NEAR
EXTRN	?Error@@YAPBDPBDZZ:NEAR				; Error
;	COMDAT ??_C@_09PKKCPLIP@bad?5alloc?$AA@
CONST	SEGMENT
??_C@_09PKKCPLIP@bad?5alloc?$AA@ DB 'bad alloc', 00H	; `string'
; Function compile flags: /Ogty
; File c:\documents and settings\test\mes documents\source\virtuos_v17\build\program\_network\misc\include\mempooler.h
CONST	ENDS
;	COMDAT ?Create@?$MemPooler@VCMover@@@@IAEXXZ
_TEXT	SEGMENT
_pMemBlock$ = -4					; size = 4
?Create@?$MemPooler@VCMover@@@@IAEXXZ PROC NEAR		; MemPooler<CMover>::Create, COMDAT
; _this$ = ecx

; 120  : 		{

  00000	51		 push	 ecx
  00001	56		 push	 esi
  00002	8b f1		 mov	 esi, ecx

; 121  : #ifdef __VERIFY_MEMPOOL
; 122  : 			return;
; 123  : #endif
; 124  : #ifdef __VM_0819
; 125  : 			Log( "Create" );
; 126  : #endif	// __VM_0819
; 127  : 			const int AllocationSize	= m_nListBlockSize * m_nNumOfBlock;

  00004	8b 46 10	 mov	 eax, DWORD PTR [esi+16]
  00007	0f af 46 14	 imul	 eax, DWORD PTR [esi+20]
  0000b	57		 push	 edi

; 128  : 			void* pMemBlock		= VirtualAlloc( NULL, AllocationSize, MEM_RESERVE | MEM_COMMIT, PAGE_READWRITE );

  0000c	6a 04		 push	 4
  0000e	68 00 30 00 00	 push	 12288			; 00003000H
  00013	50		 push	 eax
  00014	6a 00		 push	 0
  00016	ff 15 00 00 00
	00		 call	 DWORD PTR __imp__VirtualAlloc@16

; 129  : 			ASSERT( pMemBlock );
; 130  : 			if( !pMemBlock )

  0001c	85 c0		 test	 eax, eax
  0001e	89 44 24 08	 mov	 DWORD PTR _pMemBlock$[esp+12], eax
  00022	75 0d		 jne	 SHORT $L184871

; 131  : 				Error( "bad alloc" );

  00024	68 00 00 00 00	 push	 OFFSET FLAT:??_C@_09PKKCPLIP@bad?5alloc?$AA@
  00029	e8 00 00 00 00	 call	 ?Error@@YAPBDPBDZZ	; Error
  0002e	83 c4 04	 add	 esp, 4
$L184871:
  00031	53		 push	 ebx

; 132  : 			m_ListOfMemBlockPtr.push_back( pMemBlock );

  00032	8b 5e 08	 mov	 ebx, DWORD PTR [esi+8]
  00035	8b 4b 04	 mov	 ecx, DWORD PTR [ebx+4]
  00038	55		 push	 ebp
  00039	8d 7e 04	 lea	 edi, DWORD PTR [esi+4]
  0003c	8d 44 24 10	 lea	 eax, DWORD PTR _pMemBlock$[esp+20]
  00040	50		 push	 eax
  00041	51		 push	 ecx
  00042	53		 push	 ebx
  00043	8b cf		 mov	 ecx, edi
  00045	e8 00 00 00 00	 call	 ?_Buynode@?$list@PAXV?$allocator@PAX@std@@@std@@IAEPAU_Node@?$_List_nod@PAXV?$allocator@PAX@std@@@2@PAU342@0ABQAX@Z ; std::list<void *,std::allocator<void *> >::_Buynode
  0004a	6a 01		 push	 1
  0004c	8b cf		 mov	 ecx, edi
  0004e	8b e8		 mov	 ebp, eax
  00050	e8 00 00 00 00	 call	 ?_Incsize@?$list@PAXV?$allocator@PAX@std@@@std@@IAEXI@Z ; std::list<void *,std::allocator<void *> >::_Incsize

; 133  : 			BlockNode* pNode	= reinterpret_cast<BlockNode*>(pMemBlock);
; 134  : 			pNode	= reinterpret_cast<BlockNode*>( ( reinterpret_cast<DWORD>( pNode ) ) + ( m_nNumOfBlock - 1 ) * ( m_nListBlockSize ) );	// set pNode to last

  00055	8b 7c 24 10	 mov	 edi, DWORD PTR _pMemBlock$[esp+20]
  00059	89 6b 04	 mov	 DWORD PTR [ebx+4], ebp
  0005c	8b 55 04	 mov	 edx, DWORD PTR [ebp+4]
  0005f	89 2a		 mov	 DWORD PTR [edx], ebp
  00061	8b 46 10	 mov	 eax, DWORD PTR [esi+16]
  00064	8d 48 ff	 lea	 ecx, DWORD PTR [eax-1]
  00067	8b 46 14	 mov	 eax, DWORD PTR [esi+20]
  0006a	0f af c1	 imul	 eax, ecx
  0006d	03 c7		 add	 eax, edi

; 135  : 			for( int i = m_nNumOfBlock - 1; i >= 0; i-- )

  0006f	85 c9		 test	 ecx, ecx
  00071	5d		 pop	 ebp
  00072	5b		 pop	 ebx
  00073	7c 0f		 jl	 SHORT $L184879

; 132  : 			m_ListOfMemBlockPtr.push_back( pMemBlock );

  00075	41		 inc	 ecx
$L184877:

; 136  : 			{
; 137  : 				pNode->pNext	= m_pFreeList;

  00076	8b 16		 mov	 edx, DWORD PTR [esi]
  00078	89 10		 mov	 DWORD PTR [eax], edx

; 138  : 				m_pFreeList	= pNode;
; 139  : 				pNode	= reinterpret_cast<BlockNode*>( ( reinterpret_cast<DWORD>( pNode ) ) - m_nListBlockSize );	// set pNode to previous

  0007a	8b 7e 14	 mov	 edi, DWORD PTR [esi+20]
  0007d	89 06		 mov	 DWORD PTR [esi], eax
  0007f	2b c7		 sub	 eax, edi
  00081	49		 dec	 ecx
  00082	75 f2		 jne	 SHORT $L184877
$L184879:
  00084	5f		 pop	 edi
  00085	5e		 pop	 esi

; 140  : 			}
; 141  : 		}

  00086	59		 pop	 ecx
  00087	c3		 ret	 0
?Create@?$MemPooler@VCMover@@@@IAEXXZ ENDP		; MemPooler<CMover>::Create
_TEXT	ENDS
PUBLIC	?Alloc@?$MemPooler@VCMover@@@@QAEPAVCMover@@XZ	; MemPooler<CMover>::Alloc
; Function compile flags: /Ogty
;	COMDAT ?Alloc@?$MemPooler@VCMover@@@@QAEPAVCMover@@XZ
_TEXT	SEGMENT
?Alloc@?$MemPooler@VCMover@@@@QAEPAVCMover@@XZ PROC NEAR ; MemPooler<CMover>::Alloc, COMDAT
; _this$ = ecx

; 56   : 		{

  00000	53		 push	 ebx
  00001	56		 push	 esi
  00002	8b f1		 mov	 esi, ecx
  00004	57		 push	 edi

; 57   : #ifdef __VERIFY_MEMPOOL
; 58   : 			return (T*) ::operator new( sizeof(T) );
; 59   : #endif
; 60   : 
; 61   : 			BlockNode* pNode	= NULL;
; 62   : 			T* lpMem	= NULL;
; 63   : 
; 64   : 			EnterCriticalSection( &m_cs );

  00005	8d 5e 1c	 lea	 ebx, DWORD PTR [esi+28]
  00008	53		 push	 ebx
  00009	ff 15 00 00 00
	00		 call	 DWORD PTR __imp__EnterCriticalSection@4

; 65   : 
; 66   : 			if( !m_pFreeList )

  0000f	83 3e 00	 cmp	 DWORD PTR [esi], 0
  00012	75 07		 jne	 SHORT $L184090

; 67   : 				Create();

  00014	8b ce		 mov	 ecx, esi
  00016	e8 00 00 00 00	 call	 ?Create@?$MemPooler@VCMover@@@@IAEXXZ ; MemPooler<CMover>::Create
$L184090:

; 68   : 
; 69   : 			pNode	= m_pFreeList;

  0001b	8b 3e		 mov	 edi, DWORD PTR [esi]

; 70   : 			m_pFreeList		= m_pFreeList->pNext;
; 71   : 			m_nAllocCount++;

  0001d	8b 4e 18	 mov	 ecx, DWORD PTR [esi+24]
  00020	8b 07		 mov	 eax, DWORD PTR [edi]
  00022	41		 inc	 ecx

; 72   : 			lpMem	= reinterpret_cast<T*>( pNode + 1 );
; 73   : 
; 74   : 			LeaveCriticalSection( &m_cs );

  00023	53		 push	 ebx
  00024	89 06		 mov	 DWORD PTR [esi], eax
  00026	89 4e 18	 mov	 DWORD PTR [esi+24], ecx
  00029	ff 15 00 00 00
	00		 call	 DWORD PTR __imp__LeaveCriticalSection@4
  0002f	8d 47 04	 lea	 eax, DWORD PTR [edi+4]
  00032	5f		 pop	 edi
  00033	5e		 pop	 esi
  00034	5b		 pop	 ebx

; 75   : 
; 76   : 			return lpMem;
; 77   : 		}

  00035	c3		 ret	 0
?Alloc@?$MemPooler@VCMover@@@@QAEPAVCMover@@XZ ENDP	; MemPooler<CMover>::Alloc
_TEXT	ENDS
PUBLIC	??2CMover@@SAPAXI@Z				; CMover::operator new
; Function compile flags: /Ogty
; File c:\documents and settings\test\mes documents\source\virtuos_v17\build\program\_network\objects\obj.h
;	COMDAT ??2CMover@@SAPAXI@Z
_TEXT	SEGMENT
_nSize$ = 8						; size = 4
??2CMover@@SAPAXI@Z PROC NEAR				; CMover::operator new, COMDAT

; 1217 : 	void*	operator new( size_t nSize )	{	return CMover::m_pPool->Alloc();	}

  00000	53		 push	 ebx
  00001	56		 push	 esi
  00002	8b 35 00 00 00
	00		 mov	 esi, DWORD PTR ?m_pPool@CMover@@2PAV?$MemPooler@VCMover@@@@A ; CMover::m_pPool
  00008	57		 push	 edi
  00009	8d 5e 1c	 lea	 ebx, DWORD PTR [esi+28]
  0000c	53		 push	 ebx
  0000d	ff 15 00 00 00
	00		 call	 DWORD PTR __imp__EnterCriticalSection@4
  00013	83 3e 00	 cmp	 DWORD PTR [esi], 0
  00016	75 07		 jne	 SHORT $L209887
  00018	8b ce		 mov	 ecx, esi
  0001a	e8 00 00 00 00	 call	 ?Create@?$MemPooler@VCMover@@@@IAEXXZ ; MemPooler<CMover>::Create
$L209887:
  0001f	8b 3e		 mov	 edi, DWORD PTR [esi]
  00021	8b 4e 18	 mov	 ecx, DWORD PTR [esi+24]
  00024	8b 07		 mov	 eax, DWORD PTR [edi]
  00026	41		 inc	 ecx
  00027	53		 push	 ebx
  00028	89 06		 mov	 DWORD PTR [esi], eax
  0002a	89 4e 18	 mov	 DWORD PTR [esi+24], ecx
  0002d	ff 15 00 00 00
	00		 call	 DWORD PTR __imp__LeaveCriticalSection@4
  00033	8d 47 04	 lea	 eax, DWORD PTR [edi+4]
  00036	5f		 pop	 edi
  00037	5e		 pop	 esi
  00038	5b		 pop	 ebx
  00039	c3		 ret	 0
??2CMover@@SAPAXI@Z ENDP				; CMover::operator new
_TEXT	ENDS
PUBLIC	??_C@_08HDDJDJAG@m_szName?$AA@			; `string'
PUBLIC	?Join@CDbManager@@QAEXPAVCQuery@@00PAUtagDB_OVERLAPPED_PLUS@@@Z ; CDbManager::Join
PUBLIC	??_C@_0CE@CJIFODLL@DATABASESERVER?4EXE?7?1?1?5JOIN_0?7?1?1?5@ ; `string'
PUBLIC	??_C@_02HJNLAKPP@S8?$AA@			; `string'
PUBLIC	??_C@_0L@BLIMKIB@playerslot?$AA@		; `string'
PUBLIC	??_C@_09PLACNOOD@m_dwIndex?$AA@			; `string'
PUBLIC	??_C@_0L@FONFFEJF@m_idPlayer?$AA@		; `string'
PUBLIC	??_C@_0M@FNJGDDDM@m_idCompany?$AA@		; `string'
PUBLIC	??_C@_0BC@IEAFGFF@m_nMessengerState?$AA@	; `string'
PUBLIC	??_C@_0BC@MIOGNHI@m_dwReturnWorldID?$AA@	; `string'
PUBLIC	??_C@_0P@JCFLJGGL@m_vReturnPos_x?$AA@		; `string'
PUBLIC	??_C@_0P@ILEAKHCK@m_vReturnPos_y?$AA@		; `string'
PUBLIC	??_C@_0P@KAGNPEOJ@m_vReturnPos_z?$AA@		; `string'
PUBLIC	??_C@_0O@GDGPCDJB@TotalPlayTime?$AA@		; `string'
PUBLIC	??_C@_0M@MJKONAGD@m_dwFlyTime?$AA@		; `string'
PUBLIC	??_C@_0BA@NNOIPPOE@m_nMaximumLevel?$AA@		; `string'
PUBLIC	??_C@_0P@ELDJOFJA@m_tGuildMember?$AA@		; `string'
PUBLIC	??_C@_0BD@CKCGLHFA@m_chLoginAuthority?$AA@	; `string'
PUBLIC	??_C@_0O@EENGJBPN@m_chAuthority?$AA@		; `string'
PUBLIC	??_C@_0N@NIOAJHOA@last_connect?$AA@		; `string'
PUBLIC	??_C@_09MHDEIN@m_idGuild?$AA@			; `string'
PUBLIC	??_C@_07EFCBAOMF@m_idWar?$AA@			; `string'
PUBLIC	??_C@_0M@JFJGDALJ@dwEventFlag?$AA@		; `string'
PUBLIC	??_C@_0M@IDEEJPIP@dwEventTime?$AA@		; `string'
PUBLIC	??_C@_0P@GGONCBOD@dwEventElapsed?$AA@		; `string'
PUBLIC	??_C@_09CPDCAJOH@m_dwPetId?$AA@			; `string'
PUBLIC	??_C@_09OAIDIHCC@m_nExpLog?$AA@			; `string'
PUBLIC	??_C@_0P@KIBMOJIA@m_nAngelExpLog?$AA@		; `string'
PUBLIC	??_C@_09DOFPPDBL@m_nCoupon?$AA@			; `string'
PUBLIC	??_C@_08HKLPDCDD@m_nLayer?$AA@			; `string'
PUBLIC	??_C@_0P@HAGDFNOH@m_nCampusPoint?$AA@		; `string'
PUBLIC	??_C@_08FHGJFCBK@idCampus?$AA@			; `string'
PUBLIC	??_C@_0N@DMCMIBPB@m_nRestPoint?$AA@		; `string'
PUBLIC	??_C@_0N@DOGBIIJB@m_LogOutTime?$AA@		; `string'
PUBLIC	??_C@_08OOAHKMMI@m_BankPw?$AA@			; `string'
PUBLIC	??_C@_0L@LJLIEKDC@bResult?3?51?$AA@		; `string'
EXTRN	?GetJobLv@CDbManager@@QAEXPAVCMover@@PAVCQuery@@PAUtagDB_OVERLAPPED_PLUS@@@Z:NEAR ; CDbManager::GetJobLv
EXTRN	?GetQuest@CDbManager@@QAEHPAVCMover@@PAVCQuery@@PAUtagDB_OVERLAPPED_PLUS@@@Z:NEAR ; CDbManager::GetQuest
EXTRN	?GetSMMode@CDbManager@@QAEHPAVCMover@@PAVCQuery@@PAUtagDB_OVERLAPPED_PLUS@@@Z:NEAR ; CDbManager::GetSMMode
EXTRN	?GetSKillInfluence@CDbManager@@QAEHPAVCMover@@PAVCQuery@@PAUtagDB_OVERLAPPED_PLUS@@@Z:NEAR ; CDbManager::GetSKillInfluence
EXTRN	?GetHonor@CDbManager@@QAEXPAVCMover@@PAVCQuery@@PAUtagDB_OVERLAPPED_PLUS@@@Z:NEAR ; CDbManager::GetHonor
EXTRN	?SendMemberTime@CDPCoreSrvr@@QAEXKPBD@Z:NEAR	; CDPCoreSrvr::SendMemberTime
EXTRN	?DBQryCharacter@CDbManager@@QAEXPAD0KH00HKKMMM0KKKKKMKMHHHKKH0HHHHH_J1000KHMMMHHHHH0DKHHH1HKKH0000000000000H000KHH00K00000KMMMHKK1J00KHHHHHHK0@Z:NEAR ; CDbManager::DBQryCharacter
EXTRN	__fltused:NEAR
EXTRN	?Exec@CQuery@@QAEHPBD@Z:NEAR			; CQuery::Exec
EXTRN	?Fetch@CQuery@@QAEHXZ:NEAR			; CQuery::Fetch
EXTRN	?GetInt@CQuery@@QAEHPAD@Z:NEAR			; CQuery::GetInt
EXTRN	?GetInt64@CQuery@@QAE_JPAD@Z:NEAR		; CQuery::GetInt64
EXTRN	?GetFloat@CQuery@@QAEMPAD@Z:NEAR		; CQuery::GetFloat
EXTRN	?GetChar@CQuery@@QAEDPAD@Z:NEAR			; CQuery::GetChar
EXTRN	?GetStr@CQuery@@QAEXPAD0@Z:NEAR			; CQuery::GetStr
EXTRN	?MoreResults@CQuery@@QAEHXZ:NEAR		; CQuery::MoreResults
EXTRN	??0CMover@@QAE@XZ:NEAR				; CMover::CMover
EXTRN	??1CMover@@UAE@XZ:NEAR				; CMover::~CMover
EXTRN	?InitProp@CMover@@QAEXXZ:NEAR			; CMover::InitProp
EXTRN	?LoadMessenger@CDbManager@@AAEXPAVCMover@@PAVCQuery@@@Z:NEAR ; CDbManager::LoadMessenger
EXTRN	?RemoveItemIK3@CMover@@QAEHXZ:NEAR		; CMover::RemoveItemIK3
EXTRN	?SelectTag@CDbManager@@AAEHPAVCQuery@@PAUtagDB_OVERLAPPED_PLUS@@KPAUTAG_ENTRY@@@Z:NEAR ; CDbManager::SelectTag
EXTRN	?Copy@CMover@@QAEXPAV1@H@Z:NEAR			; CMover::Copy
EXTRN	?PeriodTick@CMover@@QAEXXZ:NEAR			; CMover::PeriodTick
EXTRN	?Find@CAccountCacheMgr@@QAEPAUACCOUNT_CACHE@@PBD@Z:NEAR ; CAccountCacheMgr::Find
EXTRN	?g_appInfo@@3UAppInfo@@A:QWORD			; g_appInfo
EXTRN	?PutExpLog@CDbManager@@AAEXPAVCQuery@@PAVCMover@@D@Z:NEAR ; CDbManager::PutExpLog
EXTRN	?AddAccount@CAccountCacheMgr@@QAEXKPBDHPAUACCOUNT_CACHE@@@Z:NEAR ; CAccountCacheMgr::AddAccount
EXTRN	?GetAccount@CAccountCacheMgr@@QAEPAUACCOUNT_CACHE@@PBDPAH@Z:NEAR ; CAccountCacheMgr::GetAccount
EXTRN	?SendItemtoCharacter@CDbManager@@AAEHHPAVCMover@@PAVCQuery@@11PAUtagDB_OVERLAPPED_PLUS@@@Z:NEAR ; CDbManager::SendItemtoCharacter
EXTRN	?RemoveItemtoCharacter@CDbManager@@AAEHPAVCMover@@PAVCQuery@@11PAUtagDB_OVERLAPPED_PLUS@@@Z:NEAR ; CDbManager::RemoveItemtoCharacter
EXTRN	?FreeRequest@CDbManager@@QAEXPAUtagDB_OVERLAPPED_PLUS@@@Z:NEAR ; CDbManager::FreeRequest
EXTRN	?CanJoin@CDbManager@@AAEHPBDPAUACCOUNT_CACHE@@@Z:NEAR ; CDbManager::CanJoin
EXTRN	?g_dpCoreSrvr@@3VCDPCoreSrvr@@A:BYTE		; g_dpCoreSrvr
EXTRN	?GetMyPartyName@CDbManager@@QAEHPAVCQuery@@PAUtagDB_OVERLAPPED_PLUS@@KPAD@Z:NEAR ; CDbManager::GetMyPartyName
EXTRN	?ReadString@CAr@@QAEPADPADH@Z:NEAR		; CAr::ReadString
EXTRN	?GetBank@CDbManager@@QAEHPAVCMover@@PAVCQuery@@PAUtagDB_OVERLAPPED_PLUS@@H@Z:NEAR ; CDbManager::GetBank
EXTRN	?GetInventory@CDbManager@@QAEHPAVCMover@@PAVCQuery@@PAUtagDB_OVERLAPPED_PLUS@@@Z:NEAR ; CDbManager::GetInventory
EXTRN	?GetPocket@CDbManager@@QAEHPAVCMover@@PAVCQuery@@PAUtagDB_OVERLAPPED_PLUS@@@Z:NEAR ; CDbManager::GetPocket
EXTRN	?GetEquipment@CDbManager@@QAEHPAVCMover@@PAVCQuery@@PAUtagDB_OVERLAPPED_PLUS@@@Z:NEAR ; CDbManager::GetEquipment
EXTRN	?GetTaskBar@CDbManager@@QAEHPAVCMover@@PAVCQuery@@PAUtagDB_OVERLAPPED_PLUS@@@Z:NEAR ; CDbManager::GetTaskBar
EXTRN	?GetCardCube@CDbManager@@QAEXPAVCMover@@PAVCQuery@@PAUtagDB_OVERLAPPED_PLUS@@@Z:NEAR ; CDbManager::GetCardCube
EXTRN	?GetBaseCharacter@CDbManager@@QAEXPAVCMover@@PAVCQuery@@PAUtagDB_OVERLAPPED_PLUS@@@Z:NEAR ; CDbManager::GetBaseCharacter
EXTRN	?GetSkill@CDbManager@@QAEHPAVCMover@@PAVCQuery@@PAUtagDB_OVERLAPPED_PLUS@@@Z:NEAR ; CDbManager::GetSkill
;	COMDAT xdata$x
; File c:\documents and settings\test\mes documents\source\virtuos_v17\build\program\_network\mcl\include\cmclcritsec.h
xdata$x	SEGMENT
$T210064 DD	0ffffffffH
	DD	FLAT:$L209908
	DD	00H
	DD	FLAT:$L209909
	DD	01H
	DD	FLAT:$L209910
	DD	01H
	DD	FLAT:$L209911
$T210032 DD	019930520H
	DD	04H
	DD	FLAT:$T210064
	DD	2 DUP(00H)
	DD	2 DUP(00H)
xdata$x	ENDS
;	COMDAT ??_C@_0CE@CJIFODLL@DATABASESERVER?4EXE?7?1?1?5JOIN_0?7?1?1?5@
CONST	SEGMENT
??_C@_0CE@CJIFODLL@DATABASESERVER?4EXE?7?1?1?5JOIN_0?7?1?1?5@ DB 'DATABAS'
	DB	'ESERVER.EXE', 09H, '// JOIN_0', 09H, '// %d', 0aH, 00H ; `string'
CONST	ENDS
;	COMDAT ??_C@_02HJNLAKPP@S8?$AA@
CONST	SEGMENT
??_C@_02HJNLAKPP@S8?$AA@ DB 'S8', 00H			; `string'
CONST	ENDS
;	COMDAT ??_C@_08HDDJDJAG@m_szName?$AA@
CONST	SEGMENT
??_C@_08HDDJDJAG@m_szName?$AA@ DB 'm_szName', 00H	; `string'
CONST	ENDS
;	COMDAT ??_C@_0L@BLIMKIB@playerslot?$AA@
CONST	SEGMENT
??_C@_0L@BLIMKIB@playerslot?$AA@ DB 'playerslot', 00H	; `string'
CONST	ENDS
;	COMDAT ??_C@_09PLACNOOD@m_dwIndex?$AA@
CONST	SEGMENT
??_C@_09PLACNOOD@m_dwIndex?$AA@ DB 'm_dwIndex', 00H	; `string'
CONST	ENDS
;	COMDAT ??_C@_0L@FONFFEJF@m_idPlayer?$AA@
CONST	SEGMENT
??_C@_0L@FONFFEJF@m_idPlayer?$AA@ DB 'm_idPlayer', 00H	; `string'
CONST	ENDS
;	COMDAT ??_C@_0M@FNJGDDDM@m_idCompany?$AA@
CONST	SEGMENT
??_C@_0M@FNJGDDDM@m_idCompany?$AA@ DB 'm_idCompany', 00H ; `string'
CONST	ENDS
;	COMDAT ??_C@_0BC@IEAFGFF@m_nMessengerState?$AA@
CONST	SEGMENT
??_C@_0BC@IEAFGFF@m_nMessengerState?$AA@ DB 'm_nMessengerState', 00H ; `string'
CONST	ENDS
;	COMDAT ??_C@_0BC@MIOGNHI@m_dwReturnWorldID?$AA@
CONST	SEGMENT
??_C@_0BC@MIOGNHI@m_dwReturnWorldID?$AA@ DB 'm_dwReturnWorldID', 00H ; `string'
CONST	ENDS
;	COMDAT ??_C@_0P@JCFLJGGL@m_vReturnPos_x?$AA@
CONST	SEGMENT
??_C@_0P@JCFLJGGL@m_vReturnPos_x?$AA@ DB 'm_vReturnPos_x', 00H ; `string'
CONST	ENDS
;	COMDAT ??_C@_0P@ILEAKHCK@m_vReturnPos_y?$AA@
CONST	SEGMENT
??_C@_0P@ILEAKHCK@m_vReturnPos_y?$AA@ DB 'm_vReturnPos_y', 00H ; `string'
CONST	ENDS
;	COMDAT ??_C@_0P@KAGNPEOJ@m_vReturnPos_z?$AA@
CONST	SEGMENT
??_C@_0P@KAGNPEOJ@m_vReturnPos_z?$AA@ DB 'm_vReturnPos_z', 00H ; `string'
CONST	ENDS
;	COMDAT ??_C@_0O@GDGPCDJB@TotalPlayTime?$AA@
CONST	SEGMENT
??_C@_0O@GDGPCDJB@TotalPlayTime?$AA@ DB 'TotalPlayTime', 00H ; `string'
CONST	ENDS
;	COMDAT ??_C@_0M@MJKONAGD@m_dwFlyTime?$AA@
CONST	SEGMENT
??_C@_0M@MJKONAGD@m_dwFlyTime?$AA@ DB 'm_dwFlyTime', 00H ; `string'
CONST	ENDS
;	COMDAT ??_C@_0BA@NNOIPPOE@m_nMaximumLevel?$AA@
CONST	SEGMENT
??_C@_0BA@NNOIPPOE@m_nMaximumLevel?$AA@ DB 'm_nMaximumLevel', 00H ; `string'
CONST	ENDS
;	COMDAT ??_C@_0P@ELDJOFJA@m_tGuildMember?$AA@
CONST	SEGMENT
??_C@_0P@ELDJOFJA@m_tGuildMember?$AA@ DB 'm_tGuildMember', 00H ; `string'
CONST	ENDS
;	COMDAT ??_C@_0BD@CKCGLHFA@m_chLoginAuthority?$AA@
CONST	SEGMENT
??_C@_0BD@CKCGLHFA@m_chLoginAuthority?$AA@ DB 'm_chLoginAuthority', 00H ; `string'
CONST	ENDS
;	COMDAT ??_C@_0O@EENGJBPN@m_chAuthority?$AA@
CONST	SEGMENT
??_C@_0O@EENGJBPN@m_chAuthority?$AA@ DB 'm_chAuthority', 00H ; `string'
CONST	ENDS
;	COMDAT ??_C@_0N@NIOAJHOA@last_connect?$AA@
CONST	SEGMENT
??_C@_0N@NIOAJHOA@last_connect?$AA@ DB 'last_connect', 00H ; `string'
CONST	ENDS
;	COMDAT ??_C@_09MHDEIN@m_idGuild?$AA@
CONST	SEGMENT
??_C@_09MHDEIN@m_idGuild?$AA@ DB 'm_idGuild', 00H	; `string'
CONST	ENDS
;	COMDAT ??_C@_07EFCBAOMF@m_idWar?$AA@
CONST	SEGMENT
??_C@_07EFCBAOMF@m_idWar?$AA@ DB 'm_idWar', 00H		; `string'
CONST	ENDS
;	COMDAT ??_C@_0M@JFJGDALJ@dwEventFlag?$AA@
CONST	SEGMENT
??_C@_0M@JFJGDALJ@dwEventFlag?$AA@ DB 'dwEventFlag', 00H ; `string'
CONST	ENDS
;	COMDAT ??_C@_0M@IDEEJPIP@dwEventTime?$AA@
CONST	SEGMENT
??_C@_0M@IDEEJPIP@dwEventTime?$AA@ DB 'dwEventTime', 00H ; `string'
CONST	ENDS
;	COMDAT ??_C@_0P@GGONCBOD@dwEventElapsed?$AA@
CONST	SEGMENT
??_C@_0P@GGONCBOD@dwEventElapsed?$AA@ DB 'dwEventElapsed', 00H ; `string'
CONST	ENDS
;	COMDAT ??_C@_09CPDCAJOH@m_dwPetId?$AA@
CONST	SEGMENT
??_C@_09CPDCAJOH@m_dwPetId?$AA@ DB 'm_dwPetId', 00H	; `string'
CONST	ENDS
;	COMDAT ??_C@_09OAIDIHCC@m_nExpLog?$AA@
CONST	SEGMENT
??_C@_09OAIDIHCC@m_nExpLog?$AA@ DB 'm_nExpLog', 00H	; `string'
CONST	ENDS
;	COMDAT ??_C@_0P@KIBMOJIA@m_nAngelExpLog?$AA@
CONST	SEGMENT
??_C@_0P@KIBMOJIA@m_nAngelExpLog?$AA@ DB 'm_nAngelExpLog', 00H ; `string'
CONST	ENDS
;	COMDAT ??_C@_09DOFPPDBL@m_nCoupon?$AA@
CONST	SEGMENT
??_C@_09DOFPPDBL@m_nCoupon?$AA@ DB 'm_nCoupon', 00H	; `string'
CONST	ENDS
;	COMDAT ??_C@_08HKLPDCDD@m_nLayer?$AA@
CONST	SEGMENT
??_C@_08HKLPDCDD@m_nLayer?$AA@ DB 'm_nLayer', 00H	; `string'
CONST	ENDS
;	COMDAT ??_C@_0P@HAGDFNOH@m_nCampusPoint?$AA@
CONST	SEGMENT
??_C@_0P@HAGDFNOH@m_nCampusPoint?$AA@ DB 'm_nCampusPoint', 00H ; `string'
CONST	ENDS
;	COMDAT ??_C@_08FHGJFCBK@idCampus?$AA@
CONST	SEGMENT
??_C@_08FHGJFCBK@idCampus?$AA@ DB 'idCampus', 00H	; `string'
CONST	ENDS
;	COMDAT ??_C@_0N@DMCMIBPB@m_nRestPoint?$AA@
CONST	SEGMENT
??_C@_0N@DMCMIBPB@m_nRestPoint?$AA@ DB 'm_nRestPoint', 00H ; `string'
CONST	ENDS
;	COMDAT ??_C@_0N@DOGBIIJB@m_LogOutTime?$AA@
CONST	SEGMENT
??_C@_0N@DOGBIIJB@m_LogOutTime?$AA@ DB 'm_LogOutTime', 00H ; `string'
CONST	ENDS
;	COMDAT ??_C@_08OOAHKMMI@m_BankPw?$AA@
CONST	SEGMENT
??_C@_08OOAHKMMI@m_BankPw?$AA@ DB 'm_BankPw', 00H	; `string'
CONST	ENDS
;	COMDAT ??_C@_0L@LJLIEKDC@bResult?3?51?$AA@
CONST	SEGMENT
??_C@_0L@LJLIEKDC@bResult?3?51?$AA@ DB 'bResult: 1', 00H ; `string'
; Function compile flags: /Ogty
; File c:\documents and settings\test\mes documents\source\virtuos_v17\build\program\_database\dbmanagerjoin.cpp
CONST	ENDS
;	COMDAT ?Join@CDbManager@@QAEXPAVCQuery@@00PAUtagDB_OVERLAPPED_PLUS@@@Z
_TEXT	SEGMENT
_nSlot$ = -81113					; size = 1
tv1327 = -81112						; size = 4
tv402 = -81112						; size = 4
_dwPCBangClass$ = -81112				; size = 4
tv1329 = -81108						; size = 4
_bRefresh$ = -81108					; size = 4
_pCache$ = -81104					; size = 4
tv1084 = -81100						; size = 4
$T209978 = -81100					; size = 4
$T209899 = -81100					; size = 4
_nPlayerSlot$206568 = -81100				; size = 4
tv1097 = -81096						; size = 4
_idPlayer$ = -81096					; size = 4
$T210026 = -81092					; size = 4
tv934 = -81088						; size = 4
_bExists$ = -81088					; size = 4
tv1123 = -81084						; size = 4
$T210030 = -81084					; size = 4
_bResult$ = -81084					; size = 4
_bCacheHit$ = -81080					; size = 4
_pMover$ = -81076					; size = 4
$T209895 = -81076					; size = 4
$T210029 = -81072					; size = 4
_dwPlayTime$ = -81068					; size = 4
_dwAuthKey$ = -81064					; size = 4
$T210028 = -81060					; size = 4
_nMaximumLevel$ = -81056				; size = 4
_nTags$ = -81052					; size = 4
_mover$ = -81048					; size = 18184
_arRead$ = -62864					; size = 16404
_tags$ = -46456						; size = 5280
_szBankPass$ = -41172					; size = 5
_szTimeGuild$ = -41164					; size = 15
_szPartyName$ = -41148					; size = 36
_lpOutputString$ = -41112				; size = 128
_szQuery$ = -40984					; size = 40960
__$ArrayPad$ = -20					; size = 4
__$EHRec$ = -12						; size = 12
__$ReturnAddr$ = 4					; size = 4
_qry$ = 8						; size = 4
_qry1$ = 12						; size = 4
_qrylog$ = 16						; size = 4
_lpDBOP$ = 20						; size = 4
?Join@CDbManager@@QAEXPAVCQuery@@00PAUtagDB_OVERLAPPED_PLUS@@@Z PROC NEAR ; CDbManager::Join, COMDAT
; _this$ = ecx

; 127  : {

  00000	55		 push	 ebp
  00001	8b ec		 mov	 ebp, esp
  00003	83 e4 f8	 and	 esp, -8			; fffffff8H
  00006	6a ff		 push	 -1
  00008	68 00 00 00 00	 push	 __ehhandler$?Join@CDbManager@@QAEXPAVCQuery@@00PAUtagDB_OVERLAPPED_PLUS@@@Z
  0000d	64 a1 00 00 00
	00		 mov	 eax, DWORD PTR fs:__except_list
  00013	50		 push	 eax
  00014	64 89 25 00 00
	00 00		 mov	 DWORD PTR fs:__except_list, esp
  0001b	51		 push	 ecx
  0001c	b8 cc 3c 01 00	 mov	 eax, 81100		; 00013cccH
  00021	e8 00 00 00 00	 call	 __chkstk
  00026	a1 00 00 00 00	 mov	 eax, DWORD PTR ___security_cookie

; 128  : 	BYTE	_nSlot;
; 129  : 	u_long	idPlayer;
; 130  : 	DWORD	dwAuthKey, dwBillingClass		= 0;
; 131  : 	char	szBankPass[5]	= { 0, };
; 132  : 	char	szPartyName[36]	= { 0, };

  0002b	33 c5		 xor	 eax, ebp
  0002d	89 84 24 c8 3c
	01 00		 mov	 DWORD PTR __$ArrayPad$[esp+81116], eax
  00034	53		 push	 ebx

; 385  : 	memcpy( pMover->m_idPlayerBank, pCache->m_idPlayerBank, sizeof(u_long) * 3 );

  00035	56		 push	 esi
  00036	57		 push	 edi

; 128  : 	BYTE	_nSlot;
; 129  : 	u_long	idPlayer;
; 130  : 	DWORD	dwAuthKey, dwBillingClass		= 0;
; 131  : 	char	szBankPass[5]	= { 0, };
; 132  : 	char	szPartyName[36]	= { 0, };

  00037	33 d2		 xor	 edx, edx
  00039	89 94 24 2d 9c
	00 00		 mov	 DWORD PTR _szPartyName$[esp+81129], edx
  00040	89 94 24 31 9c
	00 00		 mov	 DWORD PTR _szPartyName$[esp+81133], edx
  00047	89 94 24 35 9c
	00 00		 mov	 DWORD PTR _szPartyName$[esp+81137], edx
  0004e	89 94 24 39 9c
	00 00		 mov	 DWORD PTR _szPartyName$[esp+81141], edx
  00055	89 94 24 3d 9c
	00 00		 mov	 DWORD PTR _szPartyName$[esp+81145], edx
  0005c	8b 45 0c	 mov	 eax, DWORD PTR _qry1$[ebp]
  0005f	89 94 24 41 9c
	00 00		 mov	 DWORD PTR _szPartyName$[esp+81149], edx
  00066	8b 5d 08	 mov	 ebx, DWORD PTR _qry$[ebp]

; 385  : 	memcpy( pMover->m_idPlayerBank, pCache->m_idPlayerBank, sizeof(u_long) * 3 );

  00069	89 44 24 44	 mov	 DWORD PTR $T210028[esp+81128], eax
  0006d	89 94 24 45 9c
	00 00		 mov	 DWORD PTR _szPartyName$[esp+81153], edx
  00074	8b 75 14	 mov	 esi, DWORD PTR _lpDBOP$[ebp]
  00077	89 4c 24 24	 mov	 DWORD PTR $T210026[esp+81128], ecx
  0007b	8b 4d 10	 mov	 ecx, DWORD PTR _qrylog$[ebp]
  0007e	33 c0		 xor	 eax, eax
  00080	89 94 24 49 9c
	00 00		 mov	 DWORD PTR _szPartyName$[esp+81157], edx
  00087	66 89 94 24 4d
	9c 00 00	 mov	 WORD PTR _szPartyName$[esp+81161], dx
  0008f	89 4c 24 38	 mov	 DWORD PTR $T210029[esp+81128], ecx
  00093	8b 4e 1c	 mov	 ecx, DWORD PTR [esi+28]
  00096	89 84 24 1d 9c
	00 00		 mov	 DWORD PTR _szTimeGuild$[esp+81129], eax
  0009d	88 94 24 4f 9c
	00 00		 mov	 BYTE PTR _szPartyName$[esp+81163], dl
  000a4	88 94 24 1c 9c
	00 00		 mov	 BYTE PTR _szTimeGuild$[esp+81128], dl
  000ab	8b 56 18	 mov	 edx, DWORD PTR [esi+24]
  000ae	89 84 24 21 9c
	00 00		 mov	 DWORD PTR _szTimeGuild$[esp+81133], eax
  000b5	51		 push	 ecx
  000b6	89 84 24 29 9c
	00 00		 mov	 DWORD PTR _szTimeGuild$[esp+81141], eax
  000bd	33 ff		 xor	 edi, edi
  000bf	52		 push	 edx
  000c0	8d 8c 24 60 47
	00 00		 lea	 ecx, DWORD PTR _arRead$[esp+81136]
  000c7	89 74 24 34	 mov	 DWORD PTR $T210030[esp+81136], esi
  000cb	c6 84 24 1c 9c
	00 00 00	 mov	 BYTE PTR _szBankPass$[esp+81136], 0
  000d3	89 bc 24 1d 9c
	00 00		 mov	 DWORD PTR _szBankPass$[esp+81137], edi
  000da	c6 84 24 34 9c
	00 00 00	 mov	 BYTE PTR _szPartyName$[esp+81136], 0
  000e2	66 89 84 24 31
	9c 00 00	 mov	 WORD PTR _szTimeGuild$[esp+81149], ax
  000ea	e8 00 00 00 00	 call	 ??0CAr@@QAE@PAXI@Z	; CAr::CAr
  000ef	8b 8c 24 60 47
	00 00		 mov	 ecx, DWORD PTR _arRead$[esp+81136]
  000f6	8b 94 24 64 47
	00 00		 mov	 edx, DWORD PTR _arRead$[esp+81140]
  000fd	8d 41 04	 lea	 eax, DWORD PTR [ecx+4]
  00100	3b c2		 cmp	 eax, edx
  00102	89 bc 24 e4 3c
	01 00		 mov	 DWORD PTR __$EHRec$[esp+81136], edi
  00109	77 0f		 ja	 SHORT $L209914
  0010b	8b 09		 mov	 ecx, DWORD PTR [ecx]
  0010d	89 4c 24 40	 mov	 DWORD PTR _dwAuthKey$[esp+81128], ecx
  00111	89 84 24 60 47
	00 00		 mov	 DWORD PTR _arRead$[esp+81136], eax
  00118	eb 0b		 jmp	 SHORT $L209915

; 133  : 	char	szTimeGuild[15]	= { 0, };
; 134  : 	TAG_ENTRY tags[MAX_TAGS];
; 135  : 
; 136  : 	CAr arRead( lpDBOP->lpBuf, lpDBOP->uBufSize );
; 137  : 	arRead >> dwAuthKey;	// o

$L209914:
  0011a	89 7c 24 40	 mov	 DWORD PTR _dwAuthKey$[esp+81128], edi
  0011e	89 94 24 60 47
	00 00		 mov	 DWORD PTR _arRead$[esp+81136], edx
$L209915:

; 138  : 	arRead.ReadString( lpDBOP->AccountInfo.szAccount, MAX_ACCOUNT );

  00125	8d 46 20	 lea	 eax, DWORD PTR [esi+32]
  00128	6a 2a		 push	 42			; 0000002aH
  0012a	50		 push	 eax
  0012b	8d 8c 24 60 47
	00 00		 lea	 ecx, DWORD PTR _arRead$[esp+81136]
  00132	e8 00 00 00 00	 call	 ?ReadString@CAr@@QAEPADPADH@Z ; CAr::ReadString

; 139  : 	arRead.ReadString( lpDBOP->AccountInfo.szPassword, MAX_PASSWORD );

  00137	6a 2a		 push	 42			; 0000002aH
  00139	8d 56 4a	 lea	 edx, DWORD PTR [esi+74]
  0013c	52		 push	 edx
  0013d	8d 8c 24 60 47
	00 00		 lea	 ecx, DWORD PTR _arRead$[esp+81136]
  00144	e8 00 00 00 00	 call	 ?ReadString@CAr@@QAEPADPADH@Z ; CAr::ReadString

; 140  : 	arRead >> _nSlot >> idPlayer;

  00149	8b 8c 24 60 47
	00 00		 mov	 ecx, DWORD PTR _arRead$[esp+81136]
  00150	8b 84 24 64 47
	00 00		 mov	 eax, DWORD PTR _arRead$[esp+81140]
  00157	8d 79 01	 lea	 edi, DWORD PTR [ecx+1]
  0015a	3b f8		 cmp	 edi, eax
  0015c	77 06		 ja	 SHORT $L209919
  0015e	8a 11		 mov	 dl, BYTE PTR [ecx]
  00160	8b cf		 mov	 ecx, edi
  00162	eb 04		 jmp	 SHORT $L210053
$L209919:
  00164	32 d2		 xor	 dl, dl
  00166	8b c8		 mov	 ecx, eax
$L210053:
  00168	8d 79 04	 lea	 edi, DWORD PTR [ecx+4]
  0016b	3b f8		 cmp	 edi, eax
  0016d	89 8c 24 60 47
	00 00		 mov	 DWORD PTR _arRead$[esp+81136], ecx
  00174	77 08		 ja	 SHORT $L209925
  00176	8b 09		 mov	 ecx, DWORD PTR [ecx]
  00178	89 4c 24 20	 mov	 DWORD PTR _idPlayer$[esp+81128], ecx
  0017c	eb 0a		 jmp	 SHORT $L210054
$L209925:
  0017e	c7 44 24 20 00
	00 00 00	 mov	 DWORD PTR _idPlayer$[esp+81128], 0
  00186	8b f8		 mov	 edi, eax
$L210054:

; 141  : 	lpDBOP->AccountInfo.nPlayerSlot		= _nSlot;

  00188	0f b6 d2	 movzx	 edx, dl
  0018b	89 96 a4 00 00
	00		 mov	 DWORD PTR [esi+164], edx

; 142  : 
; 143  : 	arRead >> lpDBOP->dpid >> lpDBOP->dpidCache >> lpDBOP->dpidUser;

  00191	8d 57 04	 lea	 edx, DWORD PTR [edi+4]
  00194	3b d0		 cmp	 edx, eax
  00196	89 bc 24 60 47
	00 00		 mov	 DWORD PTR _arRead$[esp+81136], edi
  0019d	77 0c		 ja	 SHORT $L209930
  0019f	8b 0f		 mov	 ecx, DWORD PTR [edi]
  001a1	89 8e a8 00 00
	00		 mov	 DWORD PTR [esi+168], ecx
  001a7	33 ff		 xor	 edi, edi
  001a9	eb 0a		 jmp	 SHORT $L210055
$L209930:
  001ab	33 ff		 xor	 edi, edi
  001ad	89 be a8 00 00
	00		 mov	 DWORD PTR [esi+168], edi
  001b3	8b d0		 mov	 edx, eax
$L210055:
  001b5	8d 4a 04	 lea	 ecx, DWORD PTR [edx+4]
  001b8	3b c8		 cmp	 ecx, eax
  001ba	89 94 24 60 47
	00 00		 mov	 DWORD PTR _arRead$[esp+81136], edx
  001c1	77 0a		 ja	 SHORT $L209936
  001c3	8b 12		 mov	 edx, DWORD PTR [edx]
  001c5	89 96 ac 00 00
	00		 mov	 DWORD PTR [esi+172], edx
  001cb	eb 08		 jmp	 SHORT $L210056
$L209936:
  001cd	89 be ac 00 00
	00		 mov	 DWORD PTR [esi+172], edi
  001d3	8b c8		 mov	 ecx, eax
$L210056:
  001d5	8d 51 04	 lea	 edx, DWORD PTR [ecx+4]
  001d8	3b d0		 cmp	 edx, eax
  001da	89 8c 24 60 47
	00 00		 mov	 DWORD PTR _arRead$[esp+81136], ecx
  001e1	77 0c		 ja	 SHORT $L209942
  001e3	8b 09		 mov	 ecx, DWORD PTR [ecx]
  001e5	89 8e b0 00 00
	00		 mov	 DWORD PTR [esi+176], ecx
  001eb	8b ca		 mov	 ecx, edx
  001ed	eb 08		 jmp	 SHORT $L210057
$L209942:
  001ef	89 be b0 00 00
	00		 mov	 DWORD PTR [esi+176], edi
  001f5	8b c8		 mov	 ecx, eax
$L210057:

; 144  : #ifdef __BILLING0712
; 145  : 	arRead >> dwBillingClass;
; 146  : #endif	// __BILLING0712
; 147  : #if __VER >= 14 // __PCBANG
; 148  : 	DWORD dwPCBangClass;
; 149  : 	arRead >> dwPCBangClass;

  001f7	8d 51 04	 lea	 edx, DWORD PTR [ecx+4]
  001fa	3b d0		 cmp	 edx, eax
  001fc	89 8c 24 60 47
	00 00		 mov	 DWORD PTR _arRead$[esp+81136], ecx
  00203	77 0f		 ja	 SHORT $L209948
  00205	8b 01		 mov	 eax, DWORD PTR [ecx]
  00207	89 44 24 10	 mov	 DWORD PTR _dwPCBangClass$[esp+81128], eax
  0020b	89 94 24 60 47
	00 00		 mov	 DWORD PTR _arRead$[esp+81136], edx
  00212	eb 0b		 jmp	 SHORT $L209949
$L209948:
  00214	89 7c 24 10	 mov	 DWORD PTR _dwPCBangClass$[esp+81128], edi
  00218	89 84 24 60 47
	00 00		 mov	 DWORD PTR _arRead$[esp+81136], eax
$L209949:

; 150  : #endif // __PCBANG
; 151  : 	char lpOutputString[128]	= { 0, };

  0021f	c6 84 24 50 9c
	00 00 00	 mov	 BYTE PTR _lpOutputString$[esp+81128], 0
  00227	33 c0		 xor	 eax, eax
  00229	b9 1f 00 00 00	 mov	 ecx, 31			; 0000001fH
  0022e	8d bc 24 51 9c
	00 00		 lea	 edi, DWORD PTR _lpOutputString$[esp+81129]
  00235	f3 ab		 rep stosd

; 152  : 	sprintf( lpOutputString, "DATABASESERVER.EXE\t// JOIN_0\t// %d\n", lpDBOP->dpid );

  00237	8b 8e a8 00 00
	00		 mov	 ecx, DWORD PTR [esi+168]
  0023d	51		 push	 ecx
  0023e	66 ab		 stosw
  00240	8d 94 24 54 9c
	00 00		 lea	 edx, DWORD PTR _lpOutputString$[esp+81132]
  00247	68 00 00 00 00	 push	 OFFSET FLAT:??_C@_0CE@CJIFODLL@DATABASESERVER?4EXE?7?1?1?5JOIN_0?7?1?1?5@
  0024c	52		 push	 edx
  0024d	aa		 stosb
  0024e	e8 00 00 00 00	 call	 _sprintf
  00253	83 c4 0c	 add	 esp, 12			; 0000000cH

; 153  : 	OutputDebugString( lpOutputString );

  00256	8d 84 24 50 9c
	00 00		 lea	 eax, DWORD PTR _lpOutputString$[esp+81128]
  0025d	50		 push	 eax
  0025e	ff 15 00 00 00
	00		 call	 DWORD PTR __imp__OutputDebugStringA@4

; 154  : 
; 155  : 	// CHARACTER_STR 'S8',@im_idPlayer,@iserverindex,@account
; 156  : 	// CHARACTER_STR 'S8','000001','01',''
; 157  : 	char szQuery[QUERY_SIZE]	= { 0,};
; 158  : 	DBQryCharacter( szQuery, "S8", idPlayer, g_appInfo.dwSys, lpDBOP->AccountInfo.szAccount );

  00264	6a 00		 push	 0
  00266	6a 00		 push	 0
  00268	6a 00		 push	 0
  0026a	6a 00		 push	 0
  0026c	6a ff		 push	 -1
  0026e	6a 00		 push	 0
  00270	6a 00		 push	 0
  00272	6a 00		 push	 0
  00274	6a 00		 push	 0
  00276	6a 00		 push	 0
  00278	6a 00		 push	 0
  0027a	6a 00		 push	 0
  0027c	6a 00		 push	 0
  0027e	6a 00		 push	 0
  00280	6a 00		 push	 0
  00282	6a 00		 push	 0
  00284	6a 00		 push	 0
  00286	6a 00		 push	 0
  00288	6a 00		 push	 0
  0028a	6a 00		 push	 0
  0028c	6a 00		 push	 0
  0028e	6a 00		 push	 0
  00290	6a 00		 push	 0
  00292	6a 00		 push	 0
  00294	6a 00		 push	 0
  00296	6a 00		 push	 0
  00298	6a 00		 push	 0
  0029a	6a 00		 push	 0
  0029c	6a 00		 push	 0
  0029e	6a 00		 push	 0
  002a0	6a 00		 push	 0
  002a2	6a 00		 push	 0
  002a4	6a 00		 push	 0
  002a6	6a 00		 push	 0
  002a8	6a 00		 push	 0
  002aa	6a 00		 push	 0
  002ac	6a 00		 push	 0
  002ae	6a 00		 push	 0
  002b0	6a 00		 push	 0
  002b2	6a 00		 push	 0
  002b4	6a 00		 push	 0
  002b6	6a 00		 push	 0
  002b8	6a 00		 push	 0
  002ba	6a 00		 push	 0
  002bc	6a 00		 push	 0
  002be	6a 00		 push	 0
  002c0	6a 00		 push	 0
  002c2	6a 00		 push	 0
  002c4	6a 00		 push	 0
  002c6	6a 00		 push	 0
  002c8	6a 00		 push	 0
  002ca	c6 84 24 9c 9d
	00 00 00	 mov	 BYTE PTR _szQuery$[esp+81332], 0
  002d2	33 c0		 xor	 eax, eax
  002d4	6a 00		 push	 0
  002d6	b9 ff 27 00 00	 mov	 ecx, 10239		; 000027ffH
  002db	8d bc 24 a1 9d
	00 00		 lea	 edi, DWORD PTR _szQuery$[esp+81337]
  002e2	f3 ab		 rep stosd
  002e4	6a 00		 push	 0
  002e6	6a 00		 push	 0
  002e8	6a 00		 push	 0
  002ea	66 ab		 stosw
  002ec	6a 00		 push	 0
  002ee	aa		 stosb
  002ef	6a 00		 push	 0
  002f1	6a 00		 push	 0
  002f3	6a 00		 push	 0
  002f5	6a 46		 push	 70			; 00000046H
  002f7	6a 00		 push	 0
  002f9	6a 00		 push	 0
  002fb	6a 00		 push	 0
  002fd	6a 00		 push	 0
  002ff	6a 00		 push	 0
  00301	6a 00		 push	 0
  00303	6a 00		 push	 0
  00305	6a 00		 push	 0
  00307	6a 00		 push	 0
  00309	6a 00		 push	 0
  0030b	6a 00		 push	 0
  0030d	6a 00		 push	 0
  0030f	6a 00		 push	 0
  00311	6a 00		 push	 0
  00313	6a 00		 push	 0
  00315	6a 00		 push	 0
  00317	6a 00		 push	 0
  00319	6a 00		 push	 0
  0031b	6a 00		 push	 0
  0031d	6a 00		 push	 0
  0031f	6a 00		 push	 0
  00321	6a 00		 push	 0
  00323	6a 00		 push	 0
  00325	6a 00		 push	 0
  00327	6a 00		 push	 0
  00329	6a 00		 push	 0
  0032b	6a 00		 push	 0
  0032d	6a 00		 push	 0
  0032f	6a 00		 push	 0
  00331	6a 00		 push	 0
  00333	6a 00		 push	 0
  00335	6a 00		 push	 0
  00337	6a 00		 push	 0
  00339	6a 00		 push	 0
  0033b	6a 00		 push	 0
  0033d	6a 00		 push	 0
  0033f	6a 00		 push	 0
  00341	8b 0d 00 00 00
	00		 mov	 ecx, DWORD PTR ?g_appInfo@@3UAppInfo@@A
  00347	6a 00		 push	 0
  00349	8b 94 24 a8 01
	00 00		 mov	 edx, DWORD PTR _idPlayer$[esp+81520]
  00350	6a 00		 push	 0
  00352	6a 00		 push	 0
  00354	6a 00		 push	 0
  00356	6a 00		 push	 0
  00358	6a 00		 push	 0
  0035a	6a 00		 push	 0
  0035c	6a 00		 push	 0
  0035e	6a 00		 push	 0
  00360	8d 46 20	 lea	 eax, DWORD PTR [esi+32]
  00363	50		 push	 eax
  00364	51		 push	 ecx
  00365	8b 8c 24 d4 01
	00 00		 mov	 ecx, DWORD PTR $T210026[esp+81560]
  0036c	52		 push	 edx
  0036d	68 00 00 00 00	 push	 OFFSET FLAT:??_C@_02HJNLAKPP@S8?$AA@
  00372	8d 84 24 88 9e
	00 00		 lea	 eax, DWORD PTR _szQuery$[esp+81568]
  00379	50		 push	 eax
  0037a	e8 00 00 00 00	 call	 ?DBQryCharacter@CDbManager@@QAEXPAD0KH00HKKMMM0KKKKKMKMHHHKKH0HHHHH_J1000KHMMMHHHHH0DKHHH1HKKH0000000000000H000KHH00K00000KMMMHKK1J00KHHHHHHK0@Z ; CDbManager::DBQryCharacter

; 159  : 
; 160  : 	if( !qry->Exec( szQuery ) )

  0037f	8d 8c 24 d0 9c
	00 00		 lea	 ecx, DWORD PTR _szQuery$[esp+81128]
  00386	51		 push	 ecx
  00387	8b cb		 mov	 ecx, ebx
  00389	e8 00 00 00 00	 call	 ?Exec@CQuery@@QAEHPBD@Z	; CQuery::Exec
  0038e	85 c0		 test	 eax, eax

; 161  : 	{
; 162  : 		FreeRequest( lpDBOP );
; 163  : 		return;

  00390	74 0b		 je	 SHORT $L210061

; 164  : 	}
; 165  : 	if( !qry->Fetch() )

  00392	8b cb		 mov	 ecx, ebx
  00394	e8 00 00 00 00	 call	 ?Fetch@CQuery@@QAEHXZ	; CQuery::Fetch
  00399	85 c0		 test	 eax, eax
  0039b	75 0f		 jne	 SHORT $L206508
$L210061:

; 166  : 	{
; 167  : 		FreeRequest( lpDBOP );

  0039d	8b 4c 24 24	 mov	 ecx, DWORD PTR $T210026[esp+81128]
  003a1	56		 push	 esi
  003a2	e8 00 00 00 00	 call	 ?FreeRequest@CDbManager@@QAEXPAUtagDB_OVERLAPPED_PLUS@@@Z ; CDbManager::FreeRequest

; 168  : 		return;

  003a7	e9 f1 08 00 00	 jmp	 $L210058
$L206508:

; 169  : 	}
; 170  : 	qry->GetStr( "m_szName", lpDBOP->AccountInfo.szPlayer );

  003ac	8d 46 74	 lea	 eax, DWORD PTR [esi+116]
  003af	50		 push	 eax
  003b0	68 00 00 00 00	 push	 OFFSET FLAT:??_C@_08HDDJDJAG@m_szName?$AA@
  003b5	8b cb		 mov	 ecx, ebx
  003b7	e8 00 00 00 00	 call	 ?GetStr@CQuery@@QAEXPAD0@Z ; CQuery::GetStr

; 171  : 	m_joinLock.Enter();

  003bc	8b 7c 24 24	 mov	 edi, DWORD PTR $T210026[esp+81128]
  003c0	8d 47 64	 lea	 eax, DWORD PTR [edi+100]
  003c3	50		 push	 eax
  003c4	ff 15 00 00 00
	00		 call	 DWORD PTR __imp__EnterCriticalSection@4

; 172  : 	strcpy( m_aszJoin[m_nJoin], lpDBOP->AccountInfo.szPlayer );

  003ca	8b 97 1c 03 00
	00		 mov	 edx, DWORD PTR [edi+796]
  003d0	6b d2 2a	 imul	 edx, 42			; 0000002aH
  003d3	8d 4e 74	 lea	 ecx, DWORD PTR [esi+116]
  003d6	8d 54 3a 7c	 lea	 edx, DWORD PTR [edx+edi+124]
  003da	8d 9b 00 00 00
	00		 npad	 6
$L209893:
  003e0	8a 01		 mov	 al, BYTE PTR [ecx]
  003e2	41		 inc	 ecx
  003e3	88 02		 mov	 BYTE PTR [edx], al
  003e5	42		 inc	 edx
  003e6	84 c0		 test	 al, al
  003e8	75 f6		 jne	 SHORT $L209893

; 173  : 	m_nJoin	= ( m_nJoin + 1 ) % MAX_JOIN_SIZE;

  003ea	8b 87 1c 03 00
	00		 mov	 eax, DWORD PTR [edi+796]
  003f0	40		 inc	 eax
  003f1	25 0f 00 00 80	 and	 eax, -2147483633	; 8000000fH
  003f6	79 05		 jns	 SHORT $L210052
  003f8	48		 dec	 eax
  003f9	83 c8 f0	 or	 eax, -16		; fffffff0H
  003fc	40		 inc	 eax
$L210052:
  003fd	89 87 1c 03 00
	00		 mov	 DWORD PTR [edi+796], eax

; 174  : 	m_joinLock.Leave();

  00403	8d 47 64	 lea	 eax, DWORD PTR [edi+100]
  00406	50		 push	 eax
  00407	ff 15 00 00 00
	00		 call	 DWORD PTR __imp__LeaveCriticalSection@4

; 175  : 
; 176  : 	
; 177  : 	BYTE nSlot = (BYTE)qry->GetInt( "playerslot" );

  0040d	68 00 00 00 00	 push	 OFFSET FLAT:??_C@_0L@BLIMKIB@playerslot?$AA@
  00412	8b cb		 mov	 ecx, ebx
  00414	e8 00 00 00 00	 call	 ?GetInt@CQuery@@QAEHPAD@Z ; CQuery::GetInt

; 178  : 
; 179  : 	//     
; 180  : 	CMover	mover;

  00419	8d 4c 24 50	 lea	 ecx, DWORD PTR _mover$[esp+81128]
  0041d	88 44 24 0f	 mov	 BYTE PTR _nSlot$[esp+81128], al
  00421	e8 00 00 00 00	 call	 ??0CMover@@QAE@XZ	; CMover::CMover

; 181  : 	mover.m_nSlot	= nSlot;

  00426	8a 4c 24 0f	 mov	 cl, BYTE PTR _nSlot$[esp+81128]

; 182  : #if __VER >= 14 // __PCBANG
; 183  : 	mover.m_dwPCBangClass = dwPCBangClass;

  0042a	8b 54 24 10	 mov	 edx, DWORD PTR _dwPCBangClass$[esp+81128]
  0042e	88 8c 24 18 01
	00 00		 mov	 BYTE PTR _mover$[esp+81328], cl

; 184  : #endif // __PCBANG
; 185  : 	mover.m_dwIndex	= (DWORD)qry->GetInt( "m_dwIndex" );

  00435	68 00 00 00 00	 push	 OFFSET FLAT:??_C@_09PLACNOOD@m_dwIndex?$AA@
  0043a	8b cb		 mov	 ecx, ebx
  0043c	c6 84 24 e8 3c
	01 00 01	 mov	 BYTE PTR __$EHRec$[esp+81140], 1
  00444	89 94 24 0c 47
	00 00		 mov	 DWORD PTR _mover$[esp+99236], edx
  0044b	e8 00 00 00 00	 call	 ?GetInt@CQuery@@QAEHPAD@Z ; CQuery::GetInt

; 186  : 	mover.InitProp();

  00450	8d 4c 24 50	 lea	 ecx, DWORD PTR _mover$[esp+81128]
  00454	89 44 24 58	 mov	 DWORD PTR _mover$[esp+81136], eax
  00458	e8 00 00 00 00	 call	 ?InitProp@CMover@@QAEXXZ ; CMover::InitProp

; 187  : 	mover.m_idPlayer	= (u_long)qry->GetInt( "m_idPlayer" );

  0045d	68 00 00 00 00	 push	 OFFSET FLAT:??_C@_0L@FONFFEJF@m_idPlayer?$AA@
  00462	8b cb		 mov	 ecx, ebx
  00464	e8 00 00 00 00	 call	 ?GetInt@CQuery@@QAEHPAD@Z ; CQuery::GetInt

; 188  : 
; 189  : 	BOOL bRefresh	= FALSE;
; 190  : 	if( qry->GetInt( "m_idCompany" ) > 0 )

  00469	68 00 00 00 00	 push	 OFFSET FLAT:??_C@_0M@FNJGDDDM@m_idCompany?$AA@
  0046e	8b cb		 mov	 ecx, ebx
  00470	89 84 24 e4 00
	00 00		 mov	 DWORD PTR _mover$[esp+81276], eax
  00477	c7 44 24 18 00
	00 00 00	 mov	 DWORD PTR _bRefresh$[esp+81132], 0
  0047f	e8 00 00 00 00	 call	 ?GetInt@CQuery@@QAEHPAD@Z ; CQuery::GetInt
  00484	85 c0		 test	 eax, eax
  00486	7e 08		 jle	 SHORT $L206518

; 191  : 		bRefresh	= TRUE;

  00488	c7 44 24 14 01
	00 00 00	 mov	 DWORD PTR _bRefresh$[esp+81128], 1
$L206518:

; 192  : 
; 193  : 	/*GetInventory( &mover, qry, lpDBOP );
; 194  : 	GetEquipment( &mover, qry, lpDBOP );
; 195  : 	GetTaskBar( &mover, qry, lpDBOP );
; 196  : 	GetCardCube( &mover, qry, lpDBOP );
; 197  : 	GetBaseCharacter( &mover, qry, lpDBOP );
; 198  : 	GetJobLv( &mover, qry, lpDBOP );
; 199  : 	GetQuest( &mover, qry, lpDBOP );
; 200  : 	GetSMMode( &mover, qry, lpDBOP );
; 201  : 	GetSKillInfluence( &mover, qry, lpDBOP );*/
; 202  : 	// mirchang_100416 VERIFYSTRING use return value
; 203  : 	GetBaseCharacter( &mover, qry, lpDBOP );

  00490	56		 push	 esi
  00491	53		 push	 ebx
  00492	8d 44 24 58	 lea	 eax, DWORD PTR _mover$[esp+81136]
  00496	50		 push	 eax
  00497	8b cf		 mov	 ecx, edi
  00499	e8 00 00 00 00	 call	 ?GetBaseCharacter@CDbManager@@QAEXPAVCMover@@PAVCQuery@@PAUtagDB_OVERLAPPED_PLUS@@@Z ; CDbManager::GetBaseCharacter

; 204  : 	if( GetInventory( &mover, qry, lpDBOP ) == FALSE
; 205  : 		|| GetEquipment( &mover, qry, lpDBOP ) == FALSE
; 206  : 		|| GetTaskBar( &mover, qry, lpDBOP ) == FALSE
; 207  : 		|| GetQuest( &mover, qry, lpDBOP ) == FALSE
; 208  : 		|| GetSMMode( &mover, qry, lpDBOP ) == FALSE
; 209  : 		|| GetSKillInfluence( &mover, qry, lpDBOP ) == FALSE )

  0049e	56		 push	 esi
  0049f	53		 push	 ebx
  004a0	8d 4c 24 58	 lea	 ecx, DWORD PTR _mover$[esp+81136]
  004a4	51		 push	 ecx
  004a5	8b cf		 mov	 ecx, edi
  004a7	e8 00 00 00 00	 call	 ?GetInventory@CDbManager@@QAEHPAVCMover@@PAVCQuery@@PAUtagDB_OVERLAPPED_PLUS@@@Z ; CDbManager::GetInventory
  004ac	85 c0		 test	 eax, eax
  004ae	0f 84 d8 07 00
	00		 je	 $L206521
  004b4	56		 push	 esi
  004b5	53		 push	 ebx
  004b6	8d 54 24 58	 lea	 edx, DWORD PTR _mover$[esp+81136]
  004ba	52		 push	 edx
  004bb	8b cf		 mov	 ecx, edi
  004bd	e8 00 00 00 00	 call	 ?GetEquipment@CDbManager@@QAEHPAVCMover@@PAVCQuery@@PAUtagDB_OVERLAPPED_PLUS@@@Z ; CDbManager::GetEquipment
  004c2	85 c0		 test	 eax, eax
  004c4	0f 84 c2 07 00
	00		 je	 $L206521
  004ca	56		 push	 esi
  004cb	53		 push	 ebx
  004cc	8d 44 24 58	 lea	 eax, DWORD PTR _mover$[esp+81136]
  004d0	50		 push	 eax
  004d1	8b cf		 mov	 ecx, edi
  004d3	e8 00 00 00 00	 call	 ?GetTaskBar@CDbManager@@QAEHPAVCMover@@PAVCQuery@@PAUtagDB_OVERLAPPED_PLUS@@@Z ; CDbManager::GetTaskBar
  004d8	85 c0		 test	 eax, eax
  004da	0f 84 ac 07 00
	00		 je	 $L206521
  004e0	56		 push	 esi
  004e1	53		 push	 ebx
  004e2	8d 4c 24 58	 lea	 ecx, DWORD PTR _mover$[esp+81136]
  004e6	51		 push	 ecx
  004e7	8b cf		 mov	 ecx, edi
  004e9	e8 00 00 00 00	 call	 ?GetQuest@CDbManager@@QAEHPAVCMover@@PAVCQuery@@PAUtagDB_OVERLAPPED_PLUS@@@Z ; CDbManager::GetQuest
  004ee	85 c0		 test	 eax, eax
  004f0	0f 84 96 07 00
	00		 je	 $L206521
  004f6	56		 push	 esi
  004f7	53		 push	 ebx
  004f8	8d 54 24 58	 lea	 edx, DWORD PTR _mover$[esp+81136]
  004fc	52		 push	 edx
  004fd	8b cf		 mov	 ecx, edi
  004ff	e8 00 00 00 00	 call	 ?GetSMMode@CDbManager@@QAEHPAVCMover@@PAVCQuery@@PAUtagDB_OVERLAPPED_PLUS@@@Z ; CDbManager::GetSMMode
  00504	85 c0		 test	 eax, eax
  00506	0f 84 80 07 00
	00		 je	 $L206521
  0050c	56		 push	 esi
  0050d	53		 push	 ebx
  0050e	8d 44 24 58	 lea	 eax, DWORD PTR _mover$[esp+81136]
  00512	50		 push	 eax
  00513	8b cf		 mov	 ecx, edi
  00515	e8 00 00 00 00	 call	 ?GetSKillInfluence@CDbManager@@QAEHPAVCMover@@PAVCQuery@@PAUtagDB_OVERLAPPED_PLUS@@@Z ; CDbManager::GetSKillInfluence
  0051a	85 c0		 test	 eax, eax
  0051c	0f 84 6a 07 00
	00		 je	 $L206521

; 212  : 	}
; 213  : 	GetCardCube( &mover, qry, lpDBOP );

  00522	56		 push	 esi
  00523	53		 push	 ebx
  00524	8d 4c 24 58	 lea	 ecx, DWORD PTR _mover$[esp+81136]
  00528	51		 push	 ecx
  00529	8b cf		 mov	 ecx, edi
  0052b	e8 00 00 00 00	 call	 ?GetCardCube@CDbManager@@QAEXPAVCMover@@PAVCQuery@@PAUtagDB_OVERLAPPED_PLUS@@@Z ; CDbManager::GetCardCube

; 214  : 	GetJobLv( &mover, qry, lpDBOP );

  00530	56		 push	 esi
  00531	53		 push	 ebx
  00532	8d 54 24 58	 lea	 edx, DWORD PTR _mover$[esp+81136]
  00536	52		 push	 edx
  00537	8b cf		 mov	 ecx, edi
  00539	e8 00 00 00 00	 call	 ?GetJobLv@CDbManager@@QAEXPAVCMover@@PAVCQuery@@PAUtagDB_OVERLAPPED_PLUS@@@Z ; CDbManager::GetJobLv

; 215  : 	// mirchang_100416
; 216  : 
; 217  : #ifdef __RT_1025
; 218  : 	mover.m_RTMessenger.SetState( (DWORD)qry->GetInt( "m_nMessengerState" ) );

  0053e	68 00 00 00 00	 push	 OFFSET FLAT:??_C@_0BC@IEAFGFF@m_nMessengerState?$AA@
  00543	8b cb		 mov	 ecx, ebx
  00545	e8 00 00 00 00	 call	 ?GetInt@CQuery@@QAEHPAD@Z ; CQuery::GetInt

; 219  : #else	// __RT_1025
; 220  : 	mover.m_Messenger.m_dwMyState	= (DWORD)qry->GetInt( "m_nMessengerState" );
; 221  : #endif	// __RT_1025
; 222  : 	mover.m_dwReturnWorldID		= qry->GetInt( "m_dwReturnWorldID" );

  0054a	68 00 00 00 00	 push	 OFFSET FLAT:??_C@_0BC@MIOGNHI@m_dwReturnWorldID?$AA@
  0054f	8b cb		 mov	 ecx, ebx
  00551	89 84 24 18 41
	00 00		 mov	 DWORD PTR _mover$[esp+97712], eax
  00558	e8 00 00 00 00	 call	 ?GetInt@CQuery@@QAEHPAD@Z ; CQuery::GetInt

; 223  : 	mover.m_vReturnPos.x	= qry->GetFloat( "m_vReturnPos_x" );

  0055d	68 00 00 00 00	 push	 OFFSET FLAT:??_C@_0P@JCFLJGGL@m_vReturnPos_x?$AA@
  00562	8b cb		 mov	 ecx, ebx
  00564	89 84 24 3c 42
	00 00		 mov	 DWORD PTR _mover$[esp+98004], eax
  0056b	e8 00 00 00 00	 call	 ?GetFloat@CQuery@@QAEMPAD@Z ; CQuery::GetFloat
  00570	d9 9c 24 2c 42
	00 00		 fstp	 DWORD PTR _mover$[esp+97988]

; 224  : 	mover.m_vReturnPos.y	= qry->GetFloat( "m_vReturnPos_y" );

  00577	68 00 00 00 00	 push	 OFFSET FLAT:??_C@_0P@ILEAKHCK@m_vReturnPos_y?$AA@
  0057c	8b cb		 mov	 ecx, ebx
  0057e	e8 00 00 00 00	 call	 ?GetFloat@CQuery@@QAEMPAD@Z ; CQuery::GetFloat
  00583	d9 9c 24 30 42
	00 00		 fstp	 DWORD PTR _mover$[esp+97992]

; 225  : 	mover.m_vReturnPos.z	= qry->GetFloat( "m_vReturnPos_z" );

  0058a	68 00 00 00 00	 push	 OFFSET FLAT:??_C@_0P@KAGNPEOJ@m_vReturnPos_z?$AA@
  0058f	8b cb		 mov	 ecx, ebx
  00591	e8 00 00 00 00	 call	 ?GetFloat@CQuery@@QAEMPAD@Z ; CQuery::GetFloat
  00596	d9 9c 24 34 42
	00 00		 fstp	 DWORD PTR _mover$[esp+97996]

; 226  : 	
; 227  : 	DWORD dwPlayTime	= qry->GetInt( "TotalPlayTime" );

  0059d	68 00 00 00 00	 push	 OFFSET FLAT:??_C@_0O@GDGPCDJB@TotalPlayTime?$AA@
  005a2	8b cb		 mov	 ecx, ebx
  005a4	e8 00 00 00 00	 call	 ?GetInt@CQuery@@QAEHPAD@Z ; CQuery::GetInt

; 228  : #ifdef __JEFF_9_20
; 229  : 	mover.m_dwMute		= qry->GetInt( "m_dwFlyTime" );

  005a9	68 00 00 00 00	 push	 OFFSET FLAT:??_C@_0M@MJKONAGD@m_dwFlyTime?$AA@
  005ae	8b cb		 mov	 ecx, ebx
  005b0	89 44 24 40	 mov	 DWORD PTR _dwPlayTime$[esp+81132], eax
  005b4	e8 00 00 00 00	 call	 ?GetInt@CQuery@@QAEHPAD@Z ; CQuery::GetInt

; 230  : 	DWORD dwFlyTime		= 0;	//
; 231  : #else	// __JEFF_9_20
; 232  : 	DWORD dwFlyTime		= qry->GetInt( "m_dwFlyTime" );
; 233  : #endif	// __JEFF_9_20
; 234  : 	int nMaximumLevel	= qry->GetInt( "m_nMaximumLevel" );

  005b9	68 00 00 00 00	 push	 OFFSET FLAT:??_C@_0BA@NNOIPPOE@m_nMaximumLevel?$AA@
  005be	8b cb		 mov	 ecx, ebx
  005c0	89 84 24 44 42
	00 00		 mov	 DWORD PTR _mover$[esp+98012], eax
  005c7	e8 00 00 00 00	 call	 ?GetInt@CQuery@@QAEHPAD@Z ; CQuery::GetInt
  005cc	89 44 24 48	 mov	 DWORD PTR _nMaximumLevel$[esp+81128], eax

; 235  : 	qry->GetStr( "m_tGuildMember", szTimeGuild );

  005d0	8d 84 24 1c 9c
	00 00		 lea	 eax, DWORD PTR _szTimeGuild$[esp+81128]
  005d7	50		 push	 eax
  005d8	68 00 00 00 00	 push	 OFFSET FLAT:??_C@_0P@ELDJOFJA@m_tGuildMember?$AA@
  005dd	8b cb		 mov	 ecx, ebx
  005df	e8 00 00 00 00	 call	 ?GetStr@CQuery@@QAEXPAD0@Z ; CQuery::GetStr

; 236  : 	
; 237  : 	char cAuth = qry->GetChar( "m_chLoginAuthority" );

  005e4	68 00 00 00 00	 push	 OFFSET FLAT:??_C@_0BD@CKCGLHFA@m_chLoginAuthority?$AA@
  005e9	8b cb		 mov	 ecx, ebx
  005eb	e8 00 00 00 00	 call	 ?GetChar@CQuery@@QAEDPAD@Z ; CQuery::GetChar

; 238  : 	if( cAuth == 'F' )

  005f0	3c 46		 cmp	 al, 70			; 00000046H
  005f2	75 0c		 jne	 SHORT $L206537

; 239  : 		cAuth = qry->GetChar( "m_chAuthority" );	

  005f4	68 00 00 00 00	 push	 OFFSET FLAT:??_C@_0O@EENGJBPN@m_chAuthority?$AA@
  005f9	8b cb		 mov	 ecx, ebx
  005fb	e8 00 00 00 00	 call	 ?GetChar@CQuery@@QAEDPAD@Z ; CQuery::GetChar
$L206537:

; 240  : 	mover.m_dwAuthorization = (DWORD)cAuth;

  00600	0f be c8	 movsx	 ecx, al

; 241  : 	mover.m_dwMode	&= ~( EVENT_OLDBOY_MODE );

  00603	8b 84 24 34 03
	00 00		 mov	 eax, DWORD PTR _mover$[esp+81868]
  0060a	89 8c 24 30 03
	00 00		 mov	 DWORD PTR _mover$[esp+81864], ecx
  00611	25 ff ff fe ff	 and	 eax, -65537		; fffeffffH

; 242  : 	if( qry->GetInt( "last_connect" ) == 0 )

  00616	68 00 00 00 00	 push	 OFFSET FLAT:??_C@_0N@NIOAJHOA@last_connect?$AA@
  0061b	8b cb		 mov	 ecx, ebx
  0061d	89 84 24 38 03
	00 00		 mov	 DWORD PTR _mover$[esp+81872], eax
  00624	e8 00 00 00 00	 call	 ?GetInt@CQuery@@QAEHPAD@Z ; CQuery::GetInt
  00629	85 c0		 test	 eax, eax
  0062b	75 0b		 jne	 SHORT $L206541

; 243  : 		mover.m_dwMode	|= EVENT_OLDBOY_MODE;

  0062d	81 8c 24 34 03
	00 00 00 00 01
	00		 or	 DWORD PTR _mover$[esp+81868], 65536 ; 00010000H
$L206541:

; 244  : 	mover.m_idGuild		= (u_long)qry->GetInt( "m_idGuild" );

  00638	68 00 00 00 00	 push	 OFFSET FLAT:??_C@_09MHDEIN@m_idGuild?$AA@
  0063d	8b cb		 mov	 ecx, ebx
  0063f	e8 00 00 00 00	 call	 ?GetInt@CQuery@@QAEHPAD@Z ; CQuery::GetInt

; 245  : 	mover.m_idWar	= (u_long)qry->GetInt( "m_idWar" );

  00644	68 00 00 00 00	 push	 OFFSET FLAT:??_C@_07EFCBAOMF@m_idWar?$AA@
  00649	8b cb		 mov	 ecx, ebx
  0064b	89 84 24 20 41
	00 00		 mov	 DWORD PTR _mover$[esp+97720], eax
  00652	e8 00 00 00 00	 call	 ?GetInt@CQuery@@QAEHPAD@Z ; CQuery::GetInt

; 246  : 
; 247  : #ifdef __EVENT_1101
; 248  : #ifdef __EVENT_1101_2
; 249  : 	mover.m_nEventFlag	= qry->GetInt64( "dwEventFlag" );

  00657	68 00 00 00 00	 push	 OFFSET FLAT:??_C@_0M@JFJGDALJ@dwEventFlag?$AA@
  0065c	8b cb		 mov	 ecx, ebx
  0065e	89 84 24 24 41
	00 00		 mov	 DWORD PTR _mover$[esp+97724], eax
  00665	e8 00 00 00 00	 call	 ?GetInt64@CQuery@@QAE_JPAD@Z ; CQuery::GetInt64

; 250  : #else // __EVENT_1101_2
; 251  : 	mover.m_dwEventFlag	= (DWORD)qry->GetInt( "dwEventFlag" );
; 252  : #endif // __EVENT_1101_2
; 253  : 	mover.m_dwEventTime	= (DWORD)qry->GetInt( "dwEventTime" );

  0066a	68 00 00 00 00	 push	 OFFSET FLAT:??_C@_0M@IDEEJPIP@dwEventTime?$AA@
  0066f	8b cb		 mov	 ecx, ebx
  00671	89 84 24 6c 42
	00 00		 mov	 DWORD PTR _mover$[esp+98052], eax
  00678	89 94 24 70 42
	00 00		 mov	 DWORD PTR _mover$[esp+98056], edx
  0067f	e8 00 00 00 00	 call	 ?GetInt@CQuery@@QAEHPAD@Z ; CQuery::GetInt

; 254  : 	mover.m_dwEventElapsed	= (DWORD)qry->GetInt( "dwEventElapsed" );

  00684	68 00 00 00 00	 push	 OFFSET FLAT:??_C@_0P@GGONCBOD@dwEventElapsed?$AA@
  00689	8b cb		 mov	 ecx, ebx
  0068b	89 84 24 74 42
	00 00		 mov	 DWORD PTR _mover$[esp+98060], eax
  00692	e8 00 00 00 00	 call	 ?GetInt@CQuery@@QAEHPAD@Z ; CQuery::GetInt

; 255  : #endif	// __EVENT1101
; 256  : 
; 257  : 	DWORD dwPetId	= (DWORD)qry->GetInt( "m_dwPetId" );

  00697	68 00 00 00 00	 push	 OFFSET FLAT:??_C@_09CPDCAJOH@m_dwPetId?$AA@
  0069c	8b cb		 mov	 ecx, ebx
  0069e	89 84 24 78 42
	00 00		 mov	 DWORD PTR _mover$[esp+98064], eax
  006a5	e8 00 00 00 00	 call	 ?GetInt@CQuery@@QAEHPAD@Z ; CQuery::GetInt

; 258  : 	mover.SetPetId( dwPetId );
; 259  : 
; 260  : #ifdef __EXP_ANGELEXP_LOG
; 261  : 	mover.m_nExpLog			= qry->GetInt( "m_nExpLog" );

  006aa	68 00 00 00 00	 push	 OFFSET FLAT:??_C@_09OAIDIHCC@m_nExpLog?$AA@
  006af	8b cb		 mov	 ecx, ebx
  006b1	89 84 24 84 42
	00 00		 mov	 DWORD PTR _mover$[esp+98076], eax
  006b8	e8 00 00 00 00	 call	 ?GetInt@CQuery@@QAEHPAD@Z ; CQuery::GetInt

; 262  : 	mover.m_nAngelExpLog	= qry->GetInt( "m_nAngelExpLog" );

  006bd	68 00 00 00 00	 push	 OFFSET FLAT:??_C@_0P@KIBMOJIA@m_nAngelExpLog?$AA@
  006c2	8b cb		 mov	 ecx, ebx
  006c4	89 84 24 8c 42
	00 00		 mov	 DWORD PTR _mover$[esp+98084], eax
  006cb	e8 00 00 00 00	 call	 ?GetInt@CQuery@@QAEHPAD@Z ; CQuery::GetInt

; 263  : #endif // __EXP_ANGELEXP_LOG
; 264  : 
; 265  : #ifdef __EVENTLUA_COUPON
; 266  : 	mover.m_nCoupon = qry->GetInt( "m_nCoupon" );

  006d0	68 00 00 00 00	 push	 OFFSET FLAT:??_C@_09DOFPPDBL@m_nCoupon?$AA@
  006d5	8b cb		 mov	 ecx, ebx
  006d7	89 84 24 90 42
	00 00		 mov	 DWORD PTR _mover$[esp+98088], eax
  006de	e8 00 00 00 00	 call	 ?GetInt@CQuery@@QAEHPAD@Z ; CQuery::GetInt

; 267  : #endif // __EVENTLUA_COUPON
; 268  : 
; 269  : #ifdef __LAYER_1015
; 270  : 	mover.SetLayer( qry->GetInt( "m_nLayer" ) );

