; Listing generated by Microsoft (R) Optimizing Compiler Version 13.10.6030 

	TITLE	\Documents and Settings\test\Mes documents\Source\Virtuos_v17\Build\Program\_Database\DbManagerSave.cpp
	.386P
include listing.inc
if @Version gt 510
.model FLAT
else
_TEXT	SEGMENT PARA USE32 PUBLIC 'CODE'
_TEXT	ENDS
_DATA	SEGMENT DWORD USE32 PUBLIC 'DATA'
_DATA	ENDS
CONST	SEGMENT DWORD USE32 PUBLIC 'CONST'
CONST	ENDS
_BSS	SEGMENT DWORD USE32 PUBLIC 'BSS'
_BSS	ENDS
$$SYMBOLS	SEGMENT BYTE USE32 'DEBSYM'
$$SYMBOLS	ENDS
_TLS	SEGMENT DWORD USE32 PUBLIC 'TLS'
_TLS	ENDS
;	COMDAT ??_C@_0DB@BEDINLHB@RANKING?4RANKING_DBF?4dbo?4RANKING_@
CONST	SEGMENT DWORD USE32 PUBLIC 'CONST'
CONST	ENDS
;	COMDAT ??_C@_0CN@HNMEKJGP@CDbManager?3?3UpdateGuildRanking?$LP?$KB@
CONST	SEGMENT DWORD USE32 PUBLIC 'CONST'
CONST	ENDS
;	COMDAT ??_C@_08LJMBJH@m_dwLogo?$AA@
CONST	SEGMENT DWORD USE32 PUBLIC 'CONST'
CONST	ENDS
;	COMDAT ??_C@_09NKFNPOPN@m_szGuild?$AA@
CONST	SEGMENT DWORD USE32 PUBLIC 'CONST'
CONST	ENDS
;	COMDAT ??_C@_08HDDJDJAG@m_szName?$AA@
CONST	SEGMENT DWORD USE32 PUBLIC 'CONST'
CONST	ENDS
;	COMDAT ??_C@_06LJIKPPDH@m_nWin?$AA@
CONST	SEGMENT DWORD USE32 PUBLIC 'CONST'
CONST	ENDS
;	COMDAT ??_C@_07IGCLHJHO@m_nLose?$AA@
CONST	SEGMENT DWORD USE32 PUBLIC 'CONST'
CONST	ENDS
;	COMDAT ??_C@_0N@BBOGLCAO@m_nSurrender?$AA@
CONST	SEGMENT DWORD USE32 PUBLIC 'CONST'
CONST	ENDS
;	COMDAT ??_C@_0L@EKKIFFNL@m_AvgLevel?$AA@
CONST	SEGMENT DWORD USE32 PUBLIC 'CONST'
CONST	ENDS
;	COMDAT ??_C@_0M@EMHJODPK@m_nWinPoint?$AA@
CONST	SEGMENT DWORD USE32 PUBLIC 'CONST'
CONST	ENDS
;	COMDAT ??_C@_0BG@CJGBCKAI@MAKE_RANKING_STR?5?8?$CFd?8?$AA@
CONST	SEGMENT DWORD USE32 PUBLIC 'CONST'
CONST	ENDS
;	COMDAT ??_C@_0CG@IPKIBOKB@CDbManager?3?3RankingDBUpdate?5?$CI?$CFs?$CJ@
CONST	SEGMENT DWORD USE32 PUBLIC 'CONST'
CONST	ENDS
;	COMDAT ??_C@_0BC@MOGJFHKK@tr1?3?3bad_weak_ptr?$AA@
CONST	SEGMENT DWORD USE32 PUBLIC 'CONST'
CONST	ENDS
;	COMDAT ??_C@_0BD@IOHNFIBA@SetLOD?5?3?5lv?$DN?$CFd?0?5?$CFs?$AA@
CONST	SEGMENT DWORD USE32 PUBLIC 'CONST'
CONST	ENDS
;	COMDAT ??_C@_02PCIJFNDE@?$AN?6?$AA@
CONST	SEGMENT DWORD USE32 PUBLIC 'CONST'
CONST	ENDS
;	COMDAT ??_C@_01DNKMNLPK@?$HM?$AA@
CONST	SEGMENT DWORD USE32 PUBLIC 'CONST'
CONST	ENDS
;	COMDAT ??_C@_05KABNCBHK@?$CFd?0?$CFd?$AA@
CONST	SEGMENT DWORD USE32 PUBLIC 'CONST'
CONST	ENDS
;	COMDAT ??_C@_01EPMOAMKG@$?$AA@
CONST	SEGMENT DWORD USE32 PUBLIC 'CONST'
CONST	ENDS
;	COMDAT ??_C@_0BBA@DPFEJPON@?$HLcall?5CHARACTER_STR?$CI?8U1?8?0?8?$CF07d?8?0@
CONST	SEGMENT DWORD USE32 PUBLIC 'CONST'
CONST	ENDS
;	COMDAT ??_C@_01BIAFAFID@F?$AA@
CONST	SEGMENT DWORD USE32 PUBLIC 'CONST'
CONST	ENDS
;	COMDAT ??_C@_0CL@CFFKAAJH@SavePlayer?$CI?$CFs?$CJ?5?9?5?$CFdth?5bindparam?5@
CONST	SEGMENT DWORD USE32 PUBLIC 'CONST'
CONST	ENDS
;	COMDAT ??_C@_0CE@ELFBACKP@try?5DB?5Reconnect?4?4?4?5?9?5ThreadId?5?3@
CONST	SEGMENT DWORD USE32 PUBLIC 'CONST'
CONST	ENDS
;	COMDAT ??_C@_0CG@FNBKCMMG@DB?5Reconnect?5Success?$CB?5?9?5ThreadId@
CONST	SEGMENT DWORD USE32 PUBLIC 'CONST'
CONST	ENDS
;	COMDAT ??_C@_0CF@CBPPBEJP@DB?5Reconnect?5Failed?$CB?5?9?5ThreadId?5@
CONST	SEGMENT DWORD USE32 PUBLIC 'CONST'
CONST	ENDS
;	COMDAT ??_C@_0DC@JGALDGNI@SavePlayer?$CI?$CFs?$CJ?5?9?5Exec?5RETURN?5FAL@
CONST	SEGMENT DWORD USE32 PUBLIC 'CONST'
CONST	ENDS
;	COMDAT ??_C@_06MJMGIOFA@fError?$AA@
CONST	SEGMENT DWORD USE32 PUBLIC 'CONST'
CONST	ENDS
;	COMDAT ??_C@_0BL@JKHLBFHF@SavePlayer?$CI?$CFs?$CJ?5?9?5fError?3?$CFd?$AA@
CONST	SEGMENT DWORD USE32 PUBLIC 'CONST'
CONST	ENDS
;	COMDAT ??_C@_02KMJEMNAE@U1?$AA@
CONST	SEGMENT DWORD USE32 PUBLIC 'CONST'
CONST	ENDS
;	COMDAT ??_C@_0BNB@EKGJLBLA@usp_Master_Update?5?$EAserverindex?$DN?8@
CONST	SEGMENT DWORD USE32 PUBLIC 'CONST'
CONST	ENDS
;	COMDAT ??_C@_0GI@CCIAPNOB@?2Documents?5and?5Settings?2test?2Mes@
CONST	SEGMENT DWORD USE32 PUBLIC 'CONST'
CONST	ENDS
;	COMDAT ??_C@_0GB@BHCCFDGD@uspLearnSkill?5?$EAserverindex?$DN?8?$CF02d@
CONST	SEGMENT DWORD USE32 PUBLIC 'CONST'
CONST	ENDS
;	COMDAT ??_C@_03BEJFCEHO@?$CFd?1?$AA@
CONST	SEGMENT DWORD USE32 PUBLIC 'CONST'
CONST	ENDS
;	COMDAT ??_C@_0CI@NCHFPLMO@?$CFd?0?$CFd?0?$CFd?0?$CFd?0?$CFd?0?$CFd?0?$CFd?0?$CFd?0?$CFd?0?$CFd?0?$CFd@
CONST	SEGMENT DWORD USE32 PUBLIC 'CONST'
CONST	ENDS
;	COMDAT ??_C@_0BF@ECALHJFL@?$CFd?0?$CFd?0?$CFd?0?$CFd?0?$CFd?0?$CFd?0?$CFd?$AA@
CONST	SEGMENT DWORD USE32 PUBLIC 'CONST'
CONST	ENDS
;	COMDAT ??_C@_01KMDKNFGN@?1?$AA@
CONST	SEGMENT DWORD USE32 PUBLIC 'CONST'
CONST	ENDS
;	COMDAT ??_C@_0BI@NMDFOAAK@?$CFd?0?$CFd?0?$CFd?0?$CFd?0?$CFd?0?$CFd?0?$CFd?0?$CFd?$AA@
CONST	SEGMENT DWORD USE32 PUBLIC 'CONST'
CONST	ENDS
;	COMDAT ??_C@_0BG@OOOHLLGI@?$CFd?0?$CFd?0?$CFd?0?$CFd?0?$CFd?0?$CFd?0?$CFd?1?$AA@
CONST	SEGMENT DWORD USE32 PUBLIC 'CONST'
CONST	ENDS
;	COMDAT ??_C@_06IJEBOOKN@?$CFd?0?$CFd?0?$AA@
CONST	SEGMENT DWORD USE32 PUBLIC 'CONST'
CONST	ENDS
;	COMDAT ??_C@_03DPLIHHLN@?$CFd?0?$AA@
CONST	SEGMENT DWORD USE32 PUBLIC 'CONST'
CONST	ENDS
;	COMDAT ??_C@_02JOKCKPIG@U3?$AA@
CONST	SEGMENT DWORD USE32 PUBLIC 'CONST'
CONST	ENDS
;	COMDAT ??_C@_0P@GKFFLOOO@?$CFs?0?5?$CFd?7?$CFs?$AN?6?7?$CFs?$AA@
CONST	SEGMENT DWORD USE32 PUBLIC 'CONST'
CONST	ENDS
;	COMDAT ??_C@_0DN@DMOMIHCK@?$HLcall?5ADD_BANK_STR?$CI?8U1?8?0?8?$CF07d?8?0?8@
CONST	SEGMENT DWORD USE32 PUBLIC 'CONST'
CONST	ENDS
;	COMDAT ??_C@_0EC@CHCDNIKK@?$HLcall?5uspSavePocket?$CI?5?8?$CF02d?8?0?5?8?$CF0@
CONST	SEGMENT DWORD USE32 PUBLIC 'CONST'
CONST	ENDS
;	COMDAT ??_C@_0DC@NJLIMCIB@?$CFd?0?$CFd?0?$CFd?0?$CFd?0?0?$CFd?0?$CFd?0?$CFd?0?$CFd?0?$CFd?0?$CFd?0?$CF@
CONST	SEGMENT DWORD USE32 PUBLIC 'CONST'
CONST	ENDS
;	COMDAT ??_C@_0DE@ILKBDCNN@?$CFd?0?$CFd?0?$CFd?0?$CFd?0?$CFs?0?$CFd?0?$CFd?0?$CFd?0?$CFd?0?$CFd?0?$CFd@
CONST	SEGMENT DWORD USE32 PUBLIC 'CONST'
CONST	ENDS
;	COMDAT ??_C@_0BA@MBMDEEJC@?$CFd?0?$CFd?0?$CFI64d?0?$CFd?1?$AA@
CONST	SEGMENT DWORD USE32 PUBLIC 'CONST'
CONST	ENDS
;	COMDAT ??_C@_02DPKJAMEF@?$CFd?$AA@
CONST	SEGMENT DWORD USE32 PUBLIC 'CONST'
CONST	ENDS
;	COMDAT ??_C@_03LEIBKMN@?0?$CFd?$AA@
CONST	SEGMENT DWORD USE32 PUBLIC 'CONST'
CONST	ENDS
;	COMDAT ??_C@_0BB@HAKKFLHF@1?0?$CFd?0?$CFd?0?$CFd?0?$CFd?0?$CFd?$AA@
CONST	SEGMENT DWORD USE32 PUBLIC 'CONST'
CONST	ENDS
;	COMDAT ??_C@_03OMLJOFL@?0?$CFs?$AA@
CONST	SEGMENT DWORD USE32 PUBLIC 'CONST'
CONST	ENDS
;	COMDAT ??_C@_02DGMJPLBA@0?1?$AA@
CONST	SEGMENT DWORD USE32 PUBLIC 'CONST'
CONST	ENDS
;	COMDAT ??_C@_09NKKIGFED@?$CFd?0?$CFd?0?$CFd?1?$AA@
CONST	SEGMENT DWORD USE32 PUBLIC 'CONST'
CONST	ENDS
xdata$x	SEGMENT DWORD USE32 PUBLIC 'CONST'
xdata$x	ENDS
;	COMDAT ??0_GUILDQUEST@@QAE@XZ
_TEXT	SEGMENT PARA USE32 PUBLIC 'CODE'
_TEXT	ENDS
;	COMDAT ?what@bad_weak_ptr@boost@@UBEPBDXZ
_TEXT	SEGMENT PARA USE32 PUBLIC 'CODE'
_TEXT	ENDS
;	COMDAT ??1sp_counted_base@detail@boost@@UAE@XZ
_TEXT	SEGMENT PARA USE32 PUBLIC 'CODE'
_TEXT	ENDS
;	COMDAT ?destroy@sp_counted_base@detail@boost@@UAEXXZ
_TEXT	SEGMENT PARA USE32 PUBLIC 'CODE'
_TEXT	ENDS
;	COMDAT ?add_ref_copy@sp_counted_base@detail@boost@@QAEXXZ
_TEXT	SEGMENT PARA USE32 PUBLIC 'CODE'
_TEXT	ENDS
;	COMDAT ?add_ref_lock@sp_counted_base@detail@boost@@QAE_NXZ
_TEXT	SEGMENT PARA USE32 PUBLIC 'CODE'
_TEXT	ENDS
;	COMDAT ?release@sp_counted_base@detail@boost@@QAEXXZ
_TEXT	SEGMENT PARA USE32 PUBLIC 'CODE'
_TEXT	ENDS
;	COMDAT ?weak_add_ref@sp_counted_base@detail@boost@@QAEXXZ
_TEXT	SEGMENT PARA USE32 PUBLIC 'CODE'
_TEXT	ENDS
;	COMDAT ?weak_release@sp_counted_base@detail@boost@@QAEXXZ
_TEXT	SEGMENT PARA USE32 PUBLIC 'CODE'
_TEXT	ENDS
;	COMDAT ?use_count@sp_counted_base@detail@boost@@QBEJXZ
_TEXT	SEGMENT PARA USE32 PUBLIC 'CODE'
_TEXT	ENDS
;	COMDAT ??_Gsp_counted_base@detail@boost@@UAEPAXI@Z
_TEXT	SEGMENT PARA USE32 PUBLIC 'CODE'
_TEXT	ENDS
;	COMDAT ?use_count@shared_count@detail@boost@@QBEJXZ
_TEXT	SEGMENT PARA USE32 PUBLIC 'CODE'
_TEXT	ENDS
;	COMDAT ??0bad_weak_ptr@boost@@QAE@XZ
_TEXT	SEGMENT PARA USE32 PUBLIC 'CODE'
_TEXT	ENDS
;	COMDAT ??1bad_weak_ptr@boost@@UAE@XZ
_TEXT	SEGMENT PARA USE32 PUBLIC 'CODE'
_TEXT	ENDS
;	COMDAT ??_Gbad_weak_ptr@boost@@UAEPAXI@Z
_TEXT	SEGMENT PARA USE32 PUBLIC 'CODE'
_TEXT	ENDS
;	COMDAT ?GetCooltime@CLordSkillComponent@@QAEHXZ
_TEXT	SEGMENT PARA USE32 PUBLIC 'CODE'
_TEXT	ENDS
;	COMDAT ?SetTick@CLordSkillComponent@@QAEXH@Z
_TEXT	SEGMENT PARA USE32 PUBLIC 'CODE'
_TEXT	ENDS
;	COMDAT ??1CLordSkillComponentExecutable@@UAE@XZ
_TEXT	SEGMENT PARA USE32 PUBLIC 'CODE'
_TEXT	ENDS
;	COMDAT ?Use@CLordSkillComponentExecutable@@IAEXXZ
_TEXT	SEGMENT PARA USE32 PUBLIC 'CODE'
_TEXT	ENDS
;	COMDAT ?Execute@CLordSkillComponentExecutable@@UAEXKKPAX@Z
_TEXT	SEGMENT PARA USE32 PUBLIC 'CODE'
_TEXT	ENDS
;	COMDAT ??_GCLordSkillComponentExecutable@@UAEPAXI@Z
_TEXT	SEGMENT PARA USE32 PUBLIC 'CODE'
_TEXT	ENDS
;	COMDAT ?GetDeposit@CCandidate@@QBE_JXZ
_TEXT	SEGMENT PARA USE32 PUBLIC 'CODE'
_TEXT	ENDS
;	COMDAT ?GetVote@CCandidate@@QAEHXZ
_TEXT	SEGMENT PARA USE32 PUBLIC 'CODE'
_TEXT	ENDS
;	COMDAT ?GetCreate@CCandidate@@QAEJXZ
_TEXT	SEGMENT PARA USE32 PUBLIC 'CODE'
_TEXT	ENDS
;	COMDAT ?Init@HonorData@@QAEXXZ
_TEXT	SEGMENT PARA USE32 PUBLIC 'CODE'
_TEXT	ENDS
;	COMDAT ?SelectMemberClear@__GuildCombatMember@CGuildCombat@@QAEXXZ
_TEXT	SEGMENT PARA USE32 PUBLIC 'CODE'
_TEXT	ENDS
;	COMDAT ?SavePlayer@CDbManager@@QAEXPAVCQuery@@0PAVCMover@@PAD@Z
_TEXT	SEGMENT PARA USE32 PUBLIC 'CODE'
_TEXT	ENDS
;	COMDAT ??_H@YGXPAXIHP6EPAX0@Z@Z
_TEXT	SEGMENT PARA USE32 PUBLIC 'CODE'
_TEXT	ENDS
;	COMDAT ?SaveHonor@CDbManager@@QAEXPAVCQuery@@KPAHPAD@Z
_TEXT	SEGMENT PARA USE32 PUBLIC 'CODE'
_TEXT	ENDS
;	COMDAT ?SaveSkill@CDbManager@@QAEXPAVCQuery@@KPAUtagSKILL@@PAEPAD@Z
_TEXT	SEGMENT PARA USE32 PUBLIC 'CODE'
_TEXT	ENDS
;	COMDAT ?SaveJobLv@CDbManager@@QAEXPAVCMover@@PAD@Z
_TEXT	SEGMENT PARA USE32 PUBLIC 'CODE'
_TEXT	ENDS
;	COMDAT ?SaveQuest@CDbManager@@QAEXPAVCMover@@PAD11@Z
_TEXT	SEGMENT PARA USE32 PUBLIC 'CODE'
_TEXT	ENDS
;	COMDAT ?SavePocket@CDbManager@@QAEXPAVCMover@@PAU_PocketStruct@@@Z
_TEXT	SEGMENT PARA USE32 PUBLIC 'CODE'
_TEXT	ENDS
;	COMDAT ?SaveInventory@CDbManager@@QAEXPAVCMover@@PAU_ItemContainerStruct@@@Z
_TEXT	SEGMENT PARA USE32 PUBLIC 'CODE'
_TEXT	ENDS
;	COMDAT ?SaveEquipment@CDbManager@@QAEXPAVCMover@@PAD@Z
_TEXT	SEGMENT PARA USE32 PUBLIC 'CODE'
_TEXT	ENDS
;	COMDAT ?SaveBank@CDbManager@@QAEXPAVCMover@@PAV?$CItemContainer@VCItemElem@@@@PAU_ItemContainerStruct@@@Z
_TEXT	SEGMENT PARA USE32 PUBLIC 'CODE'
_TEXT	ENDS
;	COMDAT ?SaveGuildBank@CDbManager@@QAEXPAV?$CItemContainer@VCItemElem@@@@PAU_ItemContainerStruct@@@Z
_TEXT	SEGMENT PARA USE32 PUBLIC 'CODE'
_TEXT	ENDS
;	COMDAT ?SaveCardCube@CDbManager@@QAEXPAVCMover@@PAD11111@Z
_TEXT	SEGMENT PARA USE32 PUBLIC 'CODE'
_TEXT	ENDS
;	COMDAT ?SaveTaskBar@CDbManager@@QAEXPAVCMover@@PAD11@Z
_TEXT	SEGMENT PARA USE32 PUBLIC 'CODE'
_TEXT	ENDS
;	COMDAT ?SaveSMCode@CDbManager@@QAEXPAVCMover@@PAD@Z
_TEXT	SEGMENT PARA USE32 PUBLIC 'CODE'
_TEXT	ENDS
;	COMDAT ?SaveSkillInfluence@CDbManager@@QAEXPAVCMover@@PAD@Z
_TEXT	SEGMENT PARA USE32 PUBLIC 'CODE'
_TEXT	ENDS
;	COMDAT ?SavePlayTime@CDbManager@@QAEXPAVCQuery@@PAUtagDB_OVERLAPPED_PLUS@@@Z
_TEXT	SEGMENT PARA USE32 PUBLIC 'CODE'
_TEXT	ENDS
;	COMDAT ?DBQryAddBankSave@CDbManager@@QAEXPADABUADDBANK_QUERYINFO@@@Z
_TEXT	SEGMENT PARA USE32 PUBLIC 'CODE'
_TEXT	ENDS
;	COMDAT ?MakeQueryPocket@CDbManager@@QAEXPADABU_PocketParam@@@Z
_TEXT	SEGMENT PARA USE32 PUBLIC 'CODE'
_TEXT	ENDS
;	COMDAT ?SaveOneItem@CDbManager@@QAEXPAVCItemElem@@PAU_ItemStruct@@@Z
_TEXT	SEGMENT PARA USE32 PUBLIC 'CODE'
_TEXT	ENDS
;	COMDAT ?Replace@?$CStringT@DV?$StrTraitMFC@DV?$ChTraitsCRT@D@ATL@@@@@ATL@@QAEHPBD0@Z
_TEXT	SEGMENT PARA USE32 PUBLIC 'CODE'
_TEXT	ENDS
;	COMDAT ?compare@?$basic_string@DU?$char_traits@D@std@@V?$allocator@D@2@@std@@QBEHABV12@@Z
_TEXT	SEGMENT PARA USE32 PUBLIC 'CODE'
_TEXT	ENDS
;	COMDAT ?end@?$_Tree@V?$_Tmap_traits@KP8CDPLoginSrvr@@AEXAAVCAr@@KPAEK@ZU?$less@K@std@@V?$allocator@U?$pair@$$CBKP8CDPLoginSrvr@@AEXAAVCAr@@KPAEK@Z@std@@@4@$0A@@std@@@std@@QAE?AViterator@12@XZ
_TEXT	SEGMENT PARA USE32 PUBLIC 'CODE'
_TEXT	ENDS
;	COMDAT ?find@?$_Tree@V?$_Tmap_traits@KP8CDPLoginSrvr@@AEXAAVCAr@@KPAEK@ZU?$less@K@std@@V?$allocator@U?$pair@$$CBKP8CDPLoginSrvr@@AEXAAVCAr@@KPAEK@Z@std@@@4@$0A@@std@@@std@@QAE?AViterator@12@ABK@Z
_TEXT	SEGMENT PARA USE32 PUBLIC 'CODE'
_TEXT	ENDS
;	COMDAT ??Citerator@?$_Tree@V?$_Tmap_traits@KP8CDPLoginSrvr@@AEXAAVCAr@@KPAEK@ZU?$less@K@std@@V?$allocator@U?$pair@$$CBKP8CDPLoginSrvr@@AEXAAVCAr@@KPAEK@Z@std@@@4@$0A@@std@@@std@@QBEPAU?$pair@$$CBKP8CDPLoginSrvr@@AEXAAVCAr@@KPAEK@Z@2@XZ
_TEXT	SEGMENT PARA USE32 PUBLIC 'CODE'
_TEXT	ENDS
;	COMDAT ??9const_iterator@?$_Tree@V?$_Tmap_traits@KP8CDPLoginSrvr@@AEXAAVCAr@@KPAEK@ZU?$less@K@std@@V?$allocator@U?$pair@$$CBKP8CDPLoginSrvr@@AEXAAVCAr@@KPAEK@Z@std@@@4@$0A@@std@@@std@@QBE_NABV012@@Z
_TEXT	SEGMENT PARA USE32 PUBLIC 'CODE'
_TEXT	ENDS
;	COMDAT ?Alloc@?$MemPooler@VCGuildMember@@@@QAEPAVCGuildMember@@XZ
_TEXT	SEGMENT PARA USE32 PUBLIC 'CODE'
_TEXT	ENDS
;	COMDAT ?Free@?$MemPooler@VCGuildMember@@@@QAEHPAVCGuildMember@@@Z
_TEXT	SEGMENT PARA USE32 PUBLIC 'CODE'
_TEXT	ENDS
;	COMDAT ?size@?$_Tree@V?$_Tmap_traits@KPAVCGuildMember@@U?$less@K@std@@V?$allocator@U?$pair@$$CBKPAVCGuildMember@@@std@@@3@$0A@@std@@@std@@QBEIXZ
_TEXT	SEGMENT PARA USE32 PUBLIC 'CODE'
_TEXT	ENDS
;	COMDAT ?Alloc@?$MemPooler@VCGuild@@@@QAEPAVCGuild@@XZ
_TEXT	SEGMENT PARA USE32 PUBLIC 'CODE'
_TEXT	ENDS
;	COMDAT ?Free@?$MemPooler@VCGuild@@@@QAEHPAVCGuild@@@Z
_TEXT	SEGMENT PARA USE32 PUBLIC 'CODE'
_TEXT	ENDS
;	COMDAT ?size@?$_Tree@V?$_Tmap_traits@KPAVCGuild@@U?$less@K@std@@V?$allocator@U?$pair@$$CBKPAVCGuild@@@std@@@3@$0A@@std@@@std@@QBEIXZ
_TEXT	SEGMENT PARA USE32 PUBLIC 'CODE'
_TEXT	ENDS
;	COMDAT ?size@?$_Tree@V?$_Tmap_traits@KPAU_PlayerData@@U?$less@K@std@@V?$allocator@U?$pair@$$CBKPAU_PlayerData@@@std@@@3@$0A@@std@@@std@@QBEIXZ
_TEXT	SEGMENT PARA USE32 PUBLIC 'CODE'
_TEXT	ENDS
;	COMDAT ?end@?$_Tree@V?$_Tmap_traits@KP8CDPCoreSrvr@@AEXAAVCAr@@PAEK@ZU?$less@K@std@@V?$allocator@U?$pair@$$CBKP8CDPCoreSrvr@@AEXAAVCAr@@PAEK@Z@std@@@4@$0A@@std@@@std@@QAE?AViterator@12@XZ
_TEXT	SEGMENT PARA USE32 PUBLIC 'CODE'
_TEXT	ENDS
;	COMDAT ?find@?$_Tree@V?$_Tmap_traits@KP8CDPCoreSrvr@@AEXAAVCAr@@PAEK@ZU?$less@K@std@@V?$allocator@U?$pair@$$CBKP8CDPCoreSrvr@@AEXAAVCAr@@PAEK@Z@std@@@4@$0A@@std@@@std@@QAE?AViterator@12@ABK@Z
_TEXT	SEGMENT PARA USE32 PUBLIC 'CODE'
_TEXT	ENDS
;	COMDAT ??Citerator@?$_Tree@V?$_Tmap_traits@KP8CDPCoreSrvr@@AEXAAVCAr@@PAEK@ZU?$less@K@std@@V?$allocator@U?$pair@$$CBKP8CDPCoreSrvr@@AEXAAVCAr@@PAEK@Z@std@@@4@$0A@@std@@@std@@QBEPAU?$pair@$$CBKP8CDPCoreSrvr@@AEXAAVCAr@@PAEK@Z@2@XZ
_TEXT	SEGMENT PARA USE32 PUBLIC 'CODE'
_TEXT	ENDS
;	COMDAT ??9const_iterator@?$_Tree@V?$_Tmap_traits@KP8CDPCoreSrvr@@AEXAAVCAr@@PAEK@ZU?$less@K@std@@V?$allocator@U?$pair@$$CBKP8CDPCoreSrvr@@AEXAAVCAr@@PAEK@Z@std@@@4@$0A@@std@@@std@@QBE_NABV012@@Z
_TEXT	SEGMENT PARA USE32 PUBLIC 'CODE'
_TEXT	ENDS
;	COMDAT ??R?$less@PAVsp_counted_base@detail@boost@@@std@@QBE_NABQAVsp_counted_base@detail@boost@@0@Z
_TEXT	SEGMENT PARA USE32 PUBLIC 'CODE'
_TEXT	ENDS
;	COMDAT ?size@?$vector@PAVCLordSkillComponentExecutable@@V?$allocator@PAVCLordSkillComponentExecutable@@@std@@@std@@QBEIXZ
_TEXT	SEGMENT PARA USE32 PUBLIC 'CODE'
_TEXT	ENDS
;	COMDAT ?size@?$vector@V?$shared_ptr@VCCandidate@@@boost@@V?$allocator@V?$shared_ptr@VCCandidate@@@boost@@@std@@@std@@QBEIXZ
_TEXT	SEGMENT PARA USE32 PUBLIC 'CODE'
_TEXT	ENDS
;	COMDAT ??0?$vector@MV?$allocator@M@std@@@std@@QAE@XZ
_TEXT	SEGMENT PARA USE32 PUBLIC 'CODE'
_TEXT	ENDS
;	COMDAT ??1?$vector@MV?$allocator@M@std@@@std@@QAE@XZ
_TEXT	SEGMENT PARA USE32 PUBLIC 'CODE'
_TEXT	ENDS
;	COMDAT ??0?$vector@HV?$allocator@H@std@@@std@@QAE@XZ
_TEXT	SEGMENT PARA USE32 PUBLIC 'CODE'
_TEXT	ENDS
;	COMDAT ??1?$vector@HV?$allocator@H@std@@@std@@QAE@XZ
_TEXT	SEGMENT PARA USE32 PUBLIC 'CODE'
_TEXT	ENDS
;	COMDAT ??C?$shared_ptr@VCCandidate@@@boost@@QBEPAVCCandidate@@XZ
_TEXT	SEGMENT PARA USE32 PUBLIC 'CODE'
_TEXT	ENDS
;	COMDAT ?size@?$vector@PAVCLEComponent@@V?$allocator@PAVCLEComponent@@@std@@@std@@QBEIXZ
_TEXT	SEGMENT PARA USE32 PUBLIC 'CODE'
_TEXT	ENDS
;	COMDAT ?size@?$vector@U?$pair@M_J@std@@V?$allocator@U?$pair@M_J@std@@@2@@std@@QBEIXZ
_TEXT	SEGMENT PARA USE32 PUBLIC 'CODE'
_TEXT	ENDS
;	COMDAT ?end@?$_Tree@V?$_Tmap_traits@KP8CDPTrans@@AEXAAVCAr@@KKKPAEK@ZU?$less@K@std@@V?$allocator@U?$pair@$$CBKP8CDPTrans@@AEXAAVCAr@@KKKPAEK@Z@std@@@4@$0A@@std@@@std@@QAE?AViterator@12@XZ
_TEXT	SEGMENT PARA USE32 PUBLIC 'CODE'
_TEXT	ENDS
;	COMDAT ?find@?$_Tree@V?$_Tmap_traits@KP8CDPTrans@@AEXAAVCAr@@KKKPAEK@ZU?$less@K@std@@V?$allocator@U?$pair@$$CBKP8CDPTrans@@AEXAAVCAr@@KKKPAEK@Z@std@@@4@$0A@@std@@@std@@QAE?AViterator@12@ABK@Z
_TEXT	SEGMENT PARA USE32 PUBLIC 'CODE'
_TEXT	ENDS
;	COMDAT ??Citerator@?$_Tree@V?$_Tmap_traits@KP8CDPTrans@@AEXAAVCAr@@KKKPAEK@ZU?$less@K@std@@V?$allocator@U?$pair@$$CBKP8CDPTrans@@AEXAAVCAr@@KKKPAEK@Z@std@@@4@$0A@@std@@@std@@QBEPAU?$pair@$$CBKP8CDPTrans@@AEXAAVCAr@@KKKPAEK@Z@2@XZ
_TEXT	SEGMENT PARA USE32 PUBLIC 'CODE'
_TEXT	ENDS
;	COMDAT ??9const_iterator@?$_Tree@V?$_Tmap_traits@KP8CDPTrans@@AEXAAVCAr@@KKKPAEK@ZU?$less@K@std@@V?$allocator@U?$pair@$$CBKP8CDPTrans@@AEXAAVCAr@@KKKPAEK@Z@std@@@4@$0A@@std@@@std@@QBE_NABV012@@Z
_TEXT	SEGMENT PARA USE32 PUBLIC 'CODE'
_TEXT	ENDS
;	COMDAT ?Alloc@?$MemPooler@VCParty@@@@QAEPAVCParty@@XZ
_TEXT	SEGMENT PARA USE32 PUBLIC 'CODE'
_TEXT	ENDS
;	COMDAT ?Free@?$MemPooler@VCParty@@@@QAEHPAVCParty@@@Z
_TEXT	SEGMENT PARA USE32 PUBLIC 'CODE'
_TEXT	ENDS
;	COMDAT ?size@?$_Tree@V?$_Tmap_traits@KPAVCGuildWar@@U?$less@K@std@@V?$allocator@U?$pair@$$CBKPAVCGuildWar@@@std@@@3@$0A@@std@@@std@@QBEIXZ
_TEXT	SEGMENT PARA USE32 PUBLIC 'CODE'
_TEXT	ENDS
;	COMDAT ?size@?$vector@PAU__JOINPLAYER@CGuildCombat@@V?$allocator@PAU__JOINPLAYER@CGuildCombat@@@std@@@std@@QBEIXZ
_TEXT	SEGMENT PARA USE32 PUBLIC 'CODE'
_TEXT	ENDS
;	COMDAT ??A?$vector@PAU__JOINPLAYER@CGuildCombat@@V?$allocator@PAU__JOINPLAYER@CGuildCombat@@@std@@@std@@QAEAAPAU__JOINPLAYER@CGuildCombat@@I@Z
_TEXT	SEGMENT PARA USE32 PUBLIC 'CODE'
_TEXT	ENDS
;	COMDAT ?clear@?$vector@PAU__JOINPLAYER@CGuildCombat@@V?$allocator@PAU__JOINPLAYER@CGuildCombat@@@std@@@std@@QAEXXZ
_TEXT	SEGMENT PARA USE32 PUBLIC 'CODE'
_TEXT	ENDS
;	COMDAT ?clear@?$list@PAU__JOINPLAYER@CGuildCombat@@V?$allocator@PAU__JOINPLAYER@CGuildCombat@@@std@@@std@@QAEXXZ
_TEXT	SEGMENT PARA USE32 PUBLIC 'CODE'
_TEXT	ENDS
;	COMDAT ?StringFindString@?$ChTraitsCRT@D@ATL@@SAPADPADPBD@Z
_TEXT	SEGMENT PARA USE32 PUBLIC 'CODE'
_TEXT	ENDS
;	COMDAT ?SafeStringLen@?$ChTraitsCRT@D@ATL@@SAHPBD@Z
_TEXT	SEGMENT PARA USE32 PUBLIC 'CODE'
_TEXT	ENDS
;	COMDAT ?compare@?$basic_string@DU?$char_traits@D@std@@V?$allocator@D@2@@std@@QBEHIIPBDI@Z
_TEXT	SEGMENT PARA USE32 PUBLIC 'CODE'
_TEXT	ENDS
;	COMDAT ??0?$allocator@H@std@@QAE@XZ
_TEXT	SEGMENT PARA USE32 PUBLIC 'CODE'
_TEXT	ENDS
;	COMDAT ?_Key@?$_Tree@V?$_Tmap_traits@KP8CDPLoginSrvr@@AEXAAVCAr@@KPAEK@ZU?$less@K@std@@V?$allocator@U?$pair@$$CBKP8CDPLoginSrvr@@AEXAAVCAr@@KPAEK@Z@std@@@4@$0A@@std@@@std@@KAABKPAU_Node@?$_Tree_nod@V?$_Tmap_traits@KP8CDPLoginSrvr@@AEXAAVCAr@@KPAEK@ZU?$less@K@std@@V?$allocator@U?$pair@$$CBKP8CDPLoginSrvr@@AEXAAVCAr@@KPAEK@Z@std@@@4@$0A@@std@@@2@@Z
_TEXT	SEGMENT PARA USE32 PUBLIC 'CODE'
_TEXT	ENDS
;	COMDAT ?lower_bound@?$_Tree@V?$_Tmap_traits@KP8CDPLoginSrvr@@AEXAAVCAr@@KPAEK@ZU?$less@K@std@@V?$allocator@U?$pair@$$CBKP8CDPLoginSrvr@@AEXAAVCAr@@KPAEK@Z@std@@@4@$0A@@std@@@std@@QAE?AViterator@12@ABK@Z
_TEXT	SEGMENT PARA USE32 PUBLIC 'CODE'
_TEXT	ENDS
;	COMDAT ??0iterator@?$_Tree@V?$_Tmap_traits@KP8CDPLoginSrvr@@AEXAAVCAr@@KPAEK@ZU?$less@K@std@@V?$allocator@U?$pair@$$CBKP8CDPLoginSrvr@@AEXAAVCAr@@KPAEK@Z@std@@@4@$0A@@std@@@std@@QAE@PAU_Node@?$_Tree_nod@V?$_Tmap_traits@KP8CDPLoginSrvr@@AEXAAVCAr@@KPAEK@ZU?$less@K@std@@V?$allocator@U?$pair@$$CBKP8CDPLoginSrvr@@AEXAAVCAr@@KPAEK@Z@std@@@4@$0A@@std@@@2@@Z
_TEXT	SEGMENT PARA USE32 PUBLIC 'CODE'
_TEXT	ENDS
;	COMDAT ??Diterator@?$_Tree@V?$_Tmap_traits@KP8CDPLoginSrvr@@AEXAAVCAr@@KPAEK@ZU?$less@K@std@@V?$allocator@U?$pair@$$CBKP8CDPLoginSrvr@@AEXAAVCAr@@KPAEK@Z@std@@@4@$0A@@std@@@std@@QBEAAU?$pair@$$CBKP8CDPLoginSrvr@@AEXAAVCAr@@KPAEK@Z@2@XZ
_TEXT	SEGMENT PARA USE32 PUBLIC 'CODE'
_TEXT	ENDS
;	COMDAT ??8const_iterator@?$_Tree@V?$_Tmap_traits@KP8CDPLoginSrvr@@AEXAAVCAr@@KPAEK@ZU?$less@K@std@@V?$allocator@U?$pair@$$CBKP8CDPLoginSrvr@@AEXAAVCAr@@KPAEK@Z@std@@@4@$0A@@std@@@std@@QBE_NABV012@@Z
_TEXT	SEGMENT PARA USE32 PUBLIC 'CODE'
_TEXT	ENDS
;	COMDAT ?_Mynode@const_iterator@?$_Tree@V?$_Tmap_traits@KP8CDPLoginSrvr@@AEXAAVCAr@@KPAEK@ZU?$less@K@std@@V?$allocator@U?$pair@$$CBKP8CDPLoginSrvr@@AEXAAVCAr@@KPAEK@Z@std@@@4@$0A@@std@@@std@@QBEPAU_Node@?$_Tree_nod@V?$_Tmap_traits@KP8CDPLoginSrvr@@AEXAAVCAr@@KPAEK@ZU?$less@K@std@@V?$allocator@U?$pair@$$CBKP8CDPLoginSrvr@@AEXAAVCAr@@KPAEK@Z@std@@@4@$0A@@std@@@3@XZ
_TEXT	SEGMENT PARA USE32 PUBLIC 'CODE'
_TEXT	ENDS
;	COMDAT ?Create@?$MemPooler@VCGuildMember@@@@IAEXXZ
_TEXT	SEGMENT PARA USE32 PUBLIC 'CODE'
_TEXT	ENDS
;	COMDAT ?Create@?$MemPooler@VCGuild@@@@IAEXXZ
_TEXT	SEGMENT PARA USE32 PUBLIC 'CODE'
_TEXT	ENDS
;	COMDAT ?_Key@?$_Tree@V?$_Tmap_traits@KP8CDPCoreSrvr@@AEXAAVCAr@@PAEK@ZU?$less@K@std@@V?$allocator@U?$pair@$$CBKP8CDPCoreSrvr@@AEXAAVCAr@@PAEK@Z@std@@@4@$0A@@std@@@std@@KAABKPAU_Node@?$_Tree_nod@V?$_Tmap_traits@KP8CDPCoreSrvr@@AEXAAVCAr@@PAEK@ZU?$less@K@std@@V?$allocator@U?$pair@$$CBKP8CDPCoreSrvr@@AEXAAVCAr@@PAEK@Z@std@@@4@$0A@@std@@@2@@Z
_TEXT	SEGMENT PARA USE32 PUBLIC 'CODE'
_TEXT	ENDS
;	COMDAT ?lower_bound@?$_Tree@V?$_Tmap_traits@KP8CDPCoreSrvr@@AEXAAVCAr@@PAEK@ZU?$less@K@std@@V?$allocator@U?$pair@$$CBKP8CDPCoreSrvr@@AEXAAVCAr@@PAEK@Z@std@@@4@$0A@@std@@@std@@QAE?AViterator@12@ABK@Z
_TEXT	SEGMENT PARA USE32 PUBLIC 'CODE'
_TEXT	ENDS
;	COMDAT ??0iterator@?$_Tree@V?$_Tmap_traits@KP8CDPCoreSrvr@@AEXAAVCAr@@PAEK@ZU?$less@K@std@@V?$allocator@U?$pair@$$CBKP8CDPCoreSrvr@@AEXAAVCAr@@PAEK@Z@std@@@4@$0A@@std@@@std@@QAE@PAU_Node@?$_Tree_nod@V?$_Tmap_traits@KP8CDPCoreSrvr@@AEXAAVCAr@@PAEK@ZU?$less@K@std@@V?$allocator@U?$pair@$$CBKP8CDPCoreSrvr@@AEXAAVCAr@@PAEK@Z@std@@@4@$0A@@std@@@2@@Z
_TEXT	SEGMENT PARA USE32 PUBLIC 'CODE'
_TEXT	ENDS
;	COMDAT ??Diterator@?$_Tree@V?$_Tmap_traits@KP8CDPCoreSrvr@@AEXAAVCAr@@PAEK@ZU?$less@K@std@@V?$allocator@U?$pair@$$CBKP8CDPCoreSrvr@@AEXAAVCAr@@PAEK@Z@std@@@4@$0A@@std@@@std@@QBEAAU?$pair@$$CBKP8CDPCoreSrvr@@AEXAAVCAr@@PAEK@Z@2@XZ
_TEXT	SEGMENT PARA USE32 PUBLIC 'CODE'
_TEXT	ENDS
;	COMDAT ??8const_iterator@?$_Tree@V?$_Tmap_traits@KP8CDPCoreSrvr@@AEXAAVCAr@@PAEK@ZU?$less@K@std@@V?$allocator@U?$pair@$$CBKP8CDPCoreSrvr@@AEXAAVCAr@@PAEK@Z@std@@@4@$0A@@std@@@std@@QBE_NABV012@@Z
_TEXT	SEGMENT PARA USE32 PUBLIC 'CODE'
_TEXT	ENDS
;	COMDAT ?_Mynode@const_iterator@?$_Tree@V?$_Tmap_traits@KP8CDPCoreSrvr@@AEXAAVCAr@@PAEK@ZU?$less@K@std@@V?$allocator@U?$pair@$$CBKP8CDPCoreSrvr@@AEXAAVCAr@@PAEK@Z@std@@@4@$0A@@std@@@std@@QBEPAU_Node@?$_Tree_nod@V?$_Tmap_traits@KP8CDPCoreSrvr@@AEXAAVCAr@@PAEK@ZU?$less@K@std@@V?$allocator@U?$pair@$$CBKP8CDPCoreSrvr@@AEXAAVCAr@@PAEK@Z@std@@@4@$0A@@std@@@3@XZ
_TEXT	SEGMENT PARA USE32 PUBLIC 'CODE'
_TEXT	ENDS
;	COMDAT ?_Buy@?$vector@MV?$allocator@M@std@@@std@@IAE_NI@Z
_TEXT	SEGMENT PARA USE32 PUBLIC 'CODE'
_TEXT	ENDS
;	COMDAT ?_Tidy@?$vector@MV?$allocator@M@std@@@std@@IAEXXZ
_TEXT	SEGMENT PARA USE32 PUBLIC 'CODE'
_TEXT	ENDS
;	COMDAT ??0?$_Vector_val@MV?$allocator@M@std@@@std@@IAE@V?$allocator@M@1@@Z
_TEXT	SEGMENT PARA USE32 PUBLIC 'CODE'
_TEXT	ENDS
;	COMDAT ??0?$allocator@M@std@@QAE@XZ
_TEXT	SEGMENT PARA USE32 PUBLIC 'CODE'
_TEXT	ENDS
;	COMDAT ?_Buy@?$vector@HV?$allocator@H@std@@@std@@IAE_NI@Z
_TEXT	SEGMENT PARA USE32 PUBLIC 'CODE'
_TEXT	ENDS
;	COMDAT ?_Tidy@?$vector@HV?$allocator@H@std@@@std@@IAEXXZ
_TEXT	SEGMENT PARA USE32 PUBLIC 'CODE'
_TEXT	ENDS
;	COMDAT ??0?$_Vector_val@HV?$allocator@H@std@@@std@@IAE@V?$allocator@H@1@@Z
_TEXT	SEGMENT PARA USE32 PUBLIC 'CODE'
_TEXT	ENDS
;	COMDAT ?_Key@?$_Tree@V?$_Tmap_traits@KP8CDPTrans@@AEXAAVCAr@@KKKPAEK@ZU?$less@K@std@@V?$allocator@U?$pair@$$CBKP8CDPTrans@@AEXAAVCAr@@KKKPAEK@Z@std@@@4@$0A@@std@@@std@@KAABKPAU_Node@?$_Tree_nod@V?$_Tmap_traits@KP8CDPTrans@@AEXAAVCAr@@KKKPAEK@ZU?$less@K@std@@V?$allocator@U?$pair@$$CBKP8CDPTrans@@AEXAAVCAr@@KKKPAEK@Z@std@@@4@$0A@@std@@@2@@Z
_TEXT	SEGMENT PARA USE32 PUBLIC 'CODE'
_TEXT	ENDS
;	COMDAT ?lower_bound@?$_Tree@V?$_Tmap_traits@KP8CDPTrans@@AEXAAVCAr@@KKKPAEK@ZU?$less@K@std@@V?$allocator@U?$pair@$$CBKP8CDPTrans@@AEXAAVCAr@@KKKPAEK@Z@std@@@4@$0A@@std@@@std@@QAE?AViterator@12@ABK@Z
_TEXT	SEGMENT PARA USE32 PUBLIC 'CODE'
_TEXT	ENDS
;	COMDAT ??0iterator@?$_Tree@V?$_Tmap_traits@KP8CDPTrans@@AEXAAVCAr@@KKKPAEK@ZU?$less@K@std@@V?$allocator@U?$pair@$$CBKP8CDPTrans@@AEXAAVCAr@@KKKPAEK@Z@std@@@4@$0A@@std@@@std@@QAE@PAU_Node@?$_Tree_nod@V?$_Tmap_traits@KP8CDPTrans@@AEXAAVCAr@@KKKPAEK@ZU?$less@K@std@@V?$allocator@U?$pair@$$CBKP8CDPTrans@@AEXAAVCAr@@KKKPAEK@Z@std@@@4@$0A@@std@@@2@@Z
_TEXT	SEGMENT PARA USE32 PUBLIC 'CODE'
_TEXT	ENDS
;	COMDAT ??Diterator@?$_Tree@V?$_Tmap_traits@KP8CDPTrans@@AEXAAVCAr@@KKKPAEK@ZU?$less@K@std@@V?$allocator@U?$pair@$$CBKP8CDPTrans@@AEXAAVCAr@@KKKPAEK@Z@std@@@4@$0A@@std@@@std@@QBEAAU?$pair@$$CBKP8CDPTrans@@AEXAAVCAr@@KKKPAEK@Z@2@XZ
_TEXT	SEGMENT PARA USE32 PUBLIC 'CODE'
_TEXT	ENDS
;	COMDAT ??8const_iterator@?$_Tree@V?$_Tmap_traits@KP8CDPTrans@@AEXAAVCAr@@KKKPAEK@ZU?$less@K@std@@V?$allocator@U?$pair@$$CBKP8CDPTrans@@AEXAAVCAr@@KKKPAEK@Z@std@@@4@$0A@@std@@@std@@QBE_NABV012@@Z
_TEXT	SEGMENT PARA USE32 PUBLIC 'CODE'
_TEXT	ENDS
;	COMDAT ?_Mynode@const_iterator@?$_Tree@V?$_Tmap_traits@KP8CDPTrans@@AEXAAVCAr@@KKKPAEK@ZU?$less@K@std@@V?$allocator@U?$pair@$$CBKP8CDPTrans@@AEXAAVCAr@@KKKPAEK@Z@std@@@4@$0A@@std@@@std@@QBEPAU_Node@?$_Tree_nod@V?$_Tmap_traits@KP8CDPTrans@@AEXAAVCAr@@KKKPAEK@ZU?$less@K@std@@V?$allocator@U?$pair@$$CBKP8CDPTrans@@AEXAAVCAr@@KKKPAEK@Z@std@@@4@$0A@@std@@@3@XZ
_TEXT	SEGMENT PARA USE32 PUBLIC 'CODE'
_TEXT	ENDS
;	COMDAT ?Create@?$MemPooler@VCParty@@@@IAEXXZ
_TEXT	SEGMENT PARA USE32 PUBLIC 'CODE'
_TEXT	ENDS
;	COMDAT ?begin@?$vector@PAU__JOINPLAYER@CGuildCombat@@V?$allocator@PAU__JOINPLAYER@CGuildCombat@@@std@@@std@@QAE?AViterator@12@XZ
_TEXT	SEGMENT PARA USE32 PUBLIC 'CODE'
_TEXT	ENDS
;	COMDAT ?_Tidy@?$vector@PAU__JOINPLAYER@CGuildCombat@@V?$allocator@PAU__JOINPLAYER@CGuildCombat@@@std@@@std@@IAEXXZ
_TEXT	SEGMENT PARA USE32 PUBLIC 'CODE'
_TEXT	ENDS
;	COMDAT ?_Nextnode@?$list@PAU__JOINPLAYER@CGuildCombat@@V?$allocator@PAU__JOINPLAYER@CGuildCombat@@@std@@@std@@KAAAPAU_Node@?$_List_nod@PAU__JOINPLAYER@CGuildCombat@@V?$allocator@PAU__JOINPLAYER@CGuildCombat@@@std@@@2@PAU342@@Z
_TEXT	SEGMENT PARA USE32 PUBLIC 'CODE'
_TEXT	ENDS
;	COMDAT ?_Prevnode@?$list@PAU__JOINPLAYER@CGuildCombat@@V?$allocator@PAU__JOINPLAYER@CGuildCombat@@@std@@@std@@KAAAPAU_Node@?$_List_nod@PAU__JOINPLAYER@CGuildCombat@@V?$allocator@PAU__JOINPLAYER@CGuildCombat@@@std@@@2@PAU342@@Z
_TEXT	SEGMENT PARA USE32 PUBLIC 'CODE'
_TEXT	ENDS
;	COMDAT ?deallocate@?$allocator@U_Node@?$_List_nod@PAU__JOINPLAYER@CGuildCombat@@V?$allocator@PAU__JOINPLAYER@CGuildCombat@@@std@@@std@@@std@@QAEXPAU_Node@?$_List_nod@PAU__JOINPLAYER@CGuildCombat@@V?$allocator@PAU__JOINPLAYER@CGuildCombat@@@std@@@2@I@Z
_TEXT	SEGMENT PARA USE32 PUBLIC 'CODE'
_TEXT	ENDS
;	COMDAT ?destroy@?$allocator@U_Node@?$_List_nod@PAU__JOINPLAYER@CGuildCombat@@V?$allocator@PAU__JOINPLAYER@CGuildCombat@@@std@@@std@@@std@@QAEXPAU_Node@?$_List_nod@PAU__JOINPLAYER@CGuildCombat@@V?$allocator@PAU__JOINPLAYER@CGuildCombat@@@std@@@2@@Z
_TEXT	SEGMENT PARA USE32 PUBLIC 'CODE'
_TEXT	ENDS
;	COMDAT ??Diterator@?$vector@PAU__JOINPLAYER@CGuildCombat@@V?$allocator@PAU__JOINPLAYER@CGuildCombat@@@std@@@std@@QBEAAPAU__JOINPLAYER@CGuildCombat@@XZ
_TEXT	SEGMENT PARA USE32 PUBLIC 'CODE'
_TEXT	ENDS
;	COMDAT ??Hiterator@?$vector@PAU__JOINPLAYER@CGuildCombat@@V?$allocator@PAU__JOINPLAYER@CGuildCombat@@@std@@@std@@QBE?AV012@H@Z
_TEXT	SEGMENT PARA USE32 PUBLIC 'CODE'
_TEXT	ENDS
;	COMDAT ??0?$allocator@H@std@@QAE@ABV01@@Z
_TEXT	SEGMENT PARA USE32 PUBLIC 'CODE'
_TEXT	ENDS
;	COMDAT ?deallocate@?$allocator@H@std@@QAEXPAHI@Z
_TEXT	SEGMENT PARA USE32 PUBLIC 'CODE'
_TEXT	ENDS
;	COMDAT ?allocate@?$allocator@H@std@@QAEPAHI@Z
_TEXT	SEGMENT PARA USE32 PUBLIC 'CODE'
_TEXT	ENDS
;	COMDAT ?_Myval@?$_Tree@V?$_Tmap_traits@KP8CDPLoginSrvr@@AEXAAVCAr@@KPAEK@ZU?$less@K@std@@V?$allocator@U?$pair@$$CBKP8CDPLoginSrvr@@AEXAAVCAr@@KPAEK@Z@std@@@4@$0A@@std@@@std@@KAAAU?$pair@$$CBKP8CDPLoginSrvr@@AEXAAVCAr@@KPAEK@Z@2@PAU_Node@?$_Tree_nod@V?$_Tmap_traits@KP8CDPLoginSrvr@@AEXAAVCAr@@KPAEK@ZU?$less@K@std@@V?$allocator@U?$pair@$$CBKP8CDPLoginSrvr@@AEXAAVCAr@@KPAEK@Z@std@@@4@$0A@@std@@@2@@Z
_TEXT	SEGMENT PARA USE32 PUBLIC 'CODE'
_TEXT	ENDS
;	COMDAT ?_Lbound@?$_Tree@V?$_Tmap_traits@KP8CDPLoginSrvr@@AEXAAVCAr@@KPAEK@ZU?$less@K@std@@V?$allocator@U?$pair@$$CBKP8CDPLoginSrvr@@AEXAAVCAr@@KPAEK@Z@std@@@4@$0A@@std@@@std@@IBEPAU_Node@?$_Tree_nod@V?$_Tmap_traits@KP8CDPLoginSrvr@@AEXAAVCAr@@KPAEK@ZU?$less@K@std@@V?$allocator@U?$pair@$$CBKP8CDPLoginSrvr@@AEXAAVCAr@@KPAEK@Z@std@@@4@$0A@@std@@@2@ABK@Z
_TEXT	SEGMENT PARA USE32 PUBLIC 'CODE'
_TEXT	ENDS
;	COMDAT ?_Kfn@?$_Tmap_traits@KP8CDPLoginSrvr@@AEXAAVCAr@@KPAEK@ZU?$less@K@std@@V?$allocator@U?$pair@$$CBKP8CDPLoginSrvr@@AEXAAVCAr@@KPAEK@Z@std@@@4@$0A@@std@@SAABKABU?$pair@$$CBKP8CDPLoginSrvr@@AEXAAVCAr@@KPAEK@Z@2@@Z
_TEXT	SEGMENT PARA USE32 PUBLIC 'CODE'
_TEXT	ENDS
;	COMDAT ??0const_iterator@?$_Tree@V?$_Tmap_traits@KP8CDPLoginSrvr@@AEXAAVCAr@@KPAEK@ZU?$less@K@std@@V?$allocator@U?$pair@$$CBKP8CDPLoginSrvr@@AEXAAVCAr@@KPAEK@Z@std@@@4@$0A@@std@@@std@@QAE@PAU_Node@?$_Tree_nod@V?$_Tmap_traits@KP8CDPLoginSrvr@@AEXAAVCAr@@KPAEK@ZU?$less@K@std@@V?$allocator@U?$pair@$$CBKP8CDPLoginSrvr@@AEXAAVCAr@@KPAEK@Z@std@@@4@$0A@@std@@@2@@Z
_TEXT	SEGMENT PARA USE32 PUBLIC 'CODE'
_TEXT	ENDS
;	COMDAT ??Dconst_iterator@?$_Tree@V?$_Tmap_traits@KP8CDPLoginSrvr@@AEXAAVCAr@@KPAEK@ZU?$less@K@std@@V?$allocator@U?$pair@$$CBKP8CDPLoginSrvr@@AEXAAVCAr@@KPAEK@Z@std@@@4@$0A@@std@@@std@@QBEABU?$pair@$$CBKP8CDPLoginSrvr@@AEXAAVCAr@@KPAEK@Z@2@XZ
_TEXT	SEGMENT PARA USE32 PUBLIC 'CODE'
_TEXT	ENDS
;	COMDAT ?_Myval@?$_Tree@V?$_Tmap_traits@KP8CDPCoreSrvr@@AEXAAVCAr@@PAEK@ZU?$less@K@std@@V?$allocator@U?$pair@$$CBKP8CDPCoreSrvr@@AEXAAVCAr@@PAEK@Z@std@@@4@$0A@@std@@@std@@KAAAU?$pair@$$CBKP8CDPCoreSrvr@@AEXAAVCAr@@PAEK@Z@2@PAU_Node@?$_Tree_nod@V?$_Tmap_traits@KP8CDPCoreSrvr@@AEXAAVCAr@@PAEK@ZU?$less@K@std@@V?$allocator@U?$pair@$$CBKP8CDPCoreSrvr@@AEXAAVCAr@@PAEK@Z@std@@@4@$0A@@std@@@2@@Z
_TEXT	SEGMENT PARA USE32 PUBLIC 'CODE'
_TEXT	ENDS
;	COMDAT ?_Lbound@?$_Tree@V?$_Tmap_traits@KP8CDPCoreSrvr@@AEXAAVCAr@@PAEK@ZU?$less@K@std@@V?$allocator@U?$pair@$$CBKP8CDPCoreSrvr@@AEXAAVCAr@@PAEK@Z@std@@@4@$0A@@std@@@std@@IBEPAU_Node@?$_Tree_nod@V?$_Tmap_traits@KP8CDPCoreSrvr@@AEXAAVCAr@@PAEK@ZU?$less@K@std@@V?$allocator@U?$pair@$$CBKP8CDPCoreSrvr@@AEXAAVCAr@@PAEK@Z@std@@@4@$0A@@std@@@2@ABK@Z
_TEXT	SEGMENT PARA USE32 PUBLIC 'CODE'
_TEXT	ENDS
;	COMDAT ?_Kfn@?$_Tmap_traits@KP8CDPCoreSrvr@@AEXAAVCAr@@PAEK@ZU?$less@K@std@@V?$allocator@U?$pair@$$CBKP8CDPCoreSrvr@@AEXAAVCAr@@PAEK@Z@std@@@4@$0A@@std@@SAABKABU?$pair@$$CBKP8CDPCoreSrvr@@AEXAAVCAr@@PAEK@Z@2@@Z
_TEXT	SEGMENT PARA USE32 PUBLIC 'CODE'
_TEXT	ENDS
;	COMDAT ??0const_iterator@?$_Tree@V?$_Tmap_traits@KP8CDPCoreSrvr@@AEXAAVCAr@@PAEK@ZU?$less@K@std@@V?$allocator@U?$pair@$$CBKP8CDPCoreSrvr@@AEXAAVCAr@@PAEK@Z@std@@@4@$0A@@std@@@std@@QAE@PAU_Node@?$_Tree_nod@V?$_Tmap_traits@KP8CDPCoreSrvr@@AEXAAVCAr@@PAEK@ZU?$less@K@std@@V?$allocator@U?$pair@$$CBKP8CDPCoreSrvr@@AEXAAVCAr@@PAEK@Z@std@@@4@$0A@@std@@@2@@Z
_TEXT	SEGMENT PARA USE32 PUBLIC 'CODE'
_TEXT	ENDS
;	COMDAT ??Dconst_iterator@?$_Tree@V?$_Tmap_traits@KP8CDPCoreSrvr@@AEXAAVCAr@@PAEK@ZU?$less@K@std@@V?$allocator@U?$pair@$$CBKP8CDPCoreSrvr@@AEXAAVCAr@@PAEK@Z@std@@@4@$0A@@std@@@std@@QBEABU?$pair@$$CBKP8CDPCoreSrvr@@AEXAAVCAr@@PAEK@Z@2@XZ
_TEXT	SEGMENT PARA USE32 PUBLIC 'CODE'
_TEXT	ENDS
;	COMDAT ?max_size@?$vector@MV?$allocator@M@std@@@std@@QBEIXZ
_TEXT	SEGMENT PARA USE32 PUBLIC 'CODE'
_TEXT	ENDS
;	COMDAT ?_Destroy@?$vector@MV?$allocator@M@std@@@std@@IAEXPAM0@Z
_TEXT	SEGMENT PARA USE32 PUBLIC 'CODE'
_TEXT	ENDS
;	COMDAT ?_Xlen@?$vector@MV?$allocator@M@std@@@std@@IBEXXZ
_TEXT	SEGMENT PARA USE32 PUBLIC 'CODE'
_TEXT	ENDS
;	COMDAT ??0?$allocator@M@std@@QAE@ABV01@@Z
_TEXT	SEGMENT PARA USE32 PUBLIC 'CODE'
_TEXT	ENDS
;	COMDAT ?deallocate@?$allocator@M@std@@QAEXPAMI@Z
_TEXT	SEGMENT PARA USE32 PUBLIC 'CODE'
_TEXT	ENDS
;	COMDAT ?allocate@?$allocator@M@std@@QAEPAMI@Z
_TEXT	SEGMENT PARA USE32 PUBLIC 'CODE'
_TEXT	ENDS
;	COMDAT ?max_size@?$vector@HV?$allocator@H@std@@@std@@QBEIXZ
_TEXT	SEGMENT PARA USE32 PUBLIC 'CODE'
_TEXT	ENDS
;	COMDAT ?_Destroy@?$vector@HV?$allocator@H@std@@@std@@IAEXPAH0@Z
_TEXT	SEGMENT PARA USE32 PUBLIC 'CODE'
_TEXT	ENDS
;	COMDAT ?_Xlen@?$vector@HV?$allocator@H@std@@@std@@IBEXXZ
_TEXT	SEGMENT PARA USE32 PUBLIC 'CODE'
_TEXT	ENDS
;	COMDAT ?_Myval@?$_Tree@V?$_Tmap_traits@KP8CDPTrans@@AEXAAVCAr@@KKKPAEK@ZU?$less@K@std@@V?$allocator@U?$pair@$$CBKP8CDPTrans@@AEXAAVCAr@@KKKPAEK@Z@std@@@4@$0A@@std@@@std@@KAAAU?$pair@$$CBKP8CDPTrans@@AEXAAVCAr@@KKKPAEK@Z@2@PAU_Node@?$_Tree_nod@V?$_Tmap_traits@KP8CDPTrans@@AEXAAVCAr@@KKKPAEK@ZU?$less@K@std@@V?$allocator@U?$pair@$$CBKP8CDPTrans@@AEXAAVCAr@@KKKPAEK@Z@std@@@4@$0A@@std@@@2@@Z
_TEXT	SEGMENT PARA USE32 PUBLIC 'CODE'
_TEXT	ENDS
;	COMDAT ?_Lbound@?$_Tree@V?$_Tmap_traits@KP8CDPTrans@@AEXAAVCAr@@KKKPAEK@ZU?$less@K@std@@V?$allocator@U?$pair@$$CBKP8CDPTrans@@AEXAAVCAr@@KKKPAEK@Z@std@@@4@$0A@@std@@@std@@IBEPAU_Node@?$_Tree_nod@V?$_Tmap_traits@KP8CDPTrans@@AEXAAVCAr@@KKKPAEK@ZU?$less@K@std@@V?$allocator@U?$pair@$$CBKP8CDPTrans@@AEXAAVCAr@@KKKPAEK@Z@std@@@4@$0A@@std@@@2@ABK@Z
_TEXT	SEGMENT PARA USE32 PUBLIC 'CODE'
_TEXT	ENDS
;	COMDAT ?_Kfn@?$_Tmap_traits@KP8CDPTrans@@AEXAAVCAr@@KKKPAEK@ZU?$less@K@std@@V?$allocator@U?$pair@$$CBKP8CDPTrans@@AEXAAVCAr@@KKKPAEK@Z@std@@@4@$0A@@std@@SAABKABU?$pair@$$CBKP8CDPTrans@@AEXAAVCAr@@KKKPAEK@Z@2@@Z
_TEXT	SEGMENT PARA USE32 PUBLIC 'CODE'
_TEXT	ENDS
;	COMDAT ??0const_iterator@?$_Tree@V?$_Tmap_traits@KP8CDPTrans@@AEXAAVCAr@@KKKPAEK@ZU?$less@K@std@@V?$allocator@U?$pair@$$CBKP8CDPTrans@@AEXAAVCAr@@KKKPAEK@Z@std@@@4@$0A@@std@@@std@@QAE@PAU_Node@?$_Tree_nod@V?$_Tmap_traits@KP8CDPTrans@@AEXAAVCAr@@KKKPAEK@ZU?$less@K@std@@V?$allocator@U?$pair@$$CBKP8CDPTrans@@AEXAAVCAr@@KKKPAEK@Z@std@@@4@$0A@@std@@@2@@Z
_TEXT	SEGMENT PARA USE32 PUBLIC 'CODE'
_TEXT	ENDS
;	COMDAT ??Dconst_iterator@?$_Tree@V?$_Tmap_traits@KP8CDPTrans@@AEXAAVCAr@@KKKPAEK@ZU?$less@K@std@@V?$allocator@U?$pair@$$CBKP8CDPTrans@@AEXAAVCAr@@KKKPAEK@Z@std@@@4@$0A@@std@@@std@@QBEABU?$pair@$$CBKP8CDPTrans@@AEXAAVCAr@@KKKPAEK@Z@2@XZ
_TEXT	SEGMENT PARA USE32 PUBLIC 'CODE'
_TEXT	ENDS
;	COMDAT ?_Destroy@?$vector@PAU__JOINPLAYER@CGuildCombat@@V?$allocator@PAU__JOINPLAYER@CGuildCombat@@@std@@@std@@IAEXPAPAU__JOINPLAYER@CGuildCombat@@0@Z
_TEXT	SEGMENT PARA USE32 PUBLIC 'CODE'
_TEXT	ENDS
;	COMDAT ?deallocate@?$allocator@PAU__JOINPLAYER@CGuildCombat@@@std@@QAEXPAPAU__JOINPLAYER@CGuildCombat@@I@Z
_TEXT	SEGMENT PARA USE32 PUBLIC 'CODE'
_TEXT	ENDS
;	COMDAT ??0iterator@?$vector@PAU__JOINPLAYER@CGuildCombat@@V?$allocator@PAU__JOINPLAYER@CGuildCombat@@@std@@@std@@QAE@PAPAU__JOINPLAYER@CGuildCombat@@@Z
_TEXT	SEGMENT PARA USE32 PUBLIC 'CODE'
_TEXT	ENDS
;	COMDAT ??Yiterator@?$vector@PAU__JOINPLAYER@CGuildCombat@@V?$allocator@PAU__JOINPLAYER@CGuildCombat@@@std@@@std@@QAEAAV012@H@Z
_TEXT	SEGMENT PARA USE32 PUBLIC 'CODE'
_TEXT	ENDS
;	COMDAT ??Dconst_iterator@?$vector@PAU__JOINPLAYER@CGuildCombat@@V?$allocator@PAU__JOINPLAYER@CGuildCombat@@@std@@@std@@QBEABQAU__JOINPLAYER@CGuildCombat@@XZ
_TEXT	SEGMENT PARA USE32 PUBLIC 'CODE'
_TEXT	ENDS
;	COMDAT ?max_size@?$allocator@H@std@@QBEIXZ
_TEXT	SEGMENT PARA USE32 PUBLIC 'CODE'
_TEXT	ENDS
;	COMDAT ?_Isnil@?$_Tree@V?$_Tmap_traits@KP8CDPLoginSrvr@@AEXAAVCAr@@KPAEK@ZU?$less@K@std@@V?$allocator@U?$pair@$$CBKP8CDPLoginSrvr@@AEXAAVCAr@@KPAEK@Z@std@@@4@$0A@@std@@@std@@KAAADPAU_Node@?$_Tree_nod@V?$_Tmap_traits@KP8CDPLoginSrvr@@AEXAAVCAr@@KPAEK@ZU?$less@K@std@@V?$allocator@U?$pair@$$CBKP8CDPLoginSrvr@@AEXAAVCAr@@KPAEK@Z@std@@@4@$0A@@std@@@2@@Z
_TEXT	SEGMENT PARA USE32 PUBLIC 'CODE'
_TEXT	ENDS
;	COMDAT ?_Left@?$_Tree@V?$_Tmap_traits@KP8CDPLoginSrvr@@AEXAAVCAr@@KPAEK@ZU?$less@K@std@@V?$allocator@U?$pair@$$CBKP8CDPLoginSrvr@@AEXAAVCAr@@KPAEK@Z@std@@@4@$0A@@std@@@std@@KAAAPAU_Node@?$_Tree_nod@V?$_Tmap_traits@KP8CDPLoginSrvr@@AEXAAVCAr@@KPAEK@ZU?$less@K@std@@V?$allocator@U?$pair@$$CBKP8CDPLoginSrvr@@AEXAAVCAr@@KPAEK@Z@std@@@4@$0A@@std@@@2@PAU342@@Z
_TEXT	SEGMENT PARA USE32 PUBLIC 'CODE'
_TEXT	ENDS
;	COMDAT ?_Right@?$_Tree@V?$_Tmap_traits@KP8CDPLoginSrvr@@AEXAAVCAr@@KPAEK@ZU?$less@K@std@@V?$allocator@U?$pair@$$CBKP8CDPLoginSrvr@@AEXAAVCAr@@KPAEK@Z@std@@@4@$0A@@std@@@std@@KAAAPAU_Node@?$_Tree_nod@V?$_Tmap_traits@KP8CDPLoginSrvr@@AEXAAVCAr@@KPAEK@ZU?$less@K@std@@V?$allocator@U?$pair@$$CBKP8CDPLoginSrvr@@AEXAAVCAr@@KPAEK@Z@std@@@4@$0A@@std@@@2@PAU342@@Z
_TEXT	SEGMENT PARA USE32 PUBLIC 'CODE'
_TEXT	ENDS
;	COMDAT ?_Root@?$_Tree@V?$_Tmap_traits@KP8CDPLoginSrvr@@AEXAAVCAr@@KPAEK@ZU?$less@K@std@@V?$allocator@U?$pair@$$CBKP8CDPLoginSrvr@@AEXAAVCAr@@KPAEK@Z@std@@@4@$0A@@std@@@std@@IBEAAPAU_Node@?$_Tree_nod@V?$_Tmap_traits@KP8CDPLoginSrvr@@AEXAAVCAr@@KPAEK@ZU?$less@K@std@@V?$allocator@U?$pair@$$CBKP8CDPLoginSrvr@@AEXAAVCAr@@KPAEK@Z@std@@@4@$0A@@std@@@2@XZ
_TEXT	SEGMENT PARA USE32 PUBLIC 'CODE'
_TEXT	ENDS
;	COMDAT ?_Isnil@?$_Tree@V?$_Tmap_traits@KP8CDPCoreSrvr@@AEXAAVCAr@@PAEK@ZU?$less@K@std@@V?$allocator@U?$pair@$$CBKP8CDPCoreSrvr@@AEXAAVCAr@@PAEK@Z@std@@@4@$0A@@std@@@std@@KAAADPAU_Node@?$_Tree_nod@V?$_Tmap_traits@KP8CDPCoreSrvr@@AEXAAVCAr@@PAEK@ZU?$less@K@std@@V?$allocator@U?$pair@$$CBKP8CDPCoreSrvr@@AEXAAVCAr@@PAEK@Z@std@@@4@$0A@@std@@@2@@Z
_TEXT	SEGMENT PARA USE32 PUBLIC 'CODE'
_TEXT	ENDS
;	COMDAT ?_Left@?$_Tree@V?$_Tmap_traits@KP8CDPCoreSrvr@@AEXAAVCAr@@PAEK@ZU?$less@K@std@@V?$allocator@U?$pair@$$CBKP8CDPCoreSrvr@@AEXAAVCAr@@PAEK@Z@std@@@4@$0A@@std@@@std@@KAAAPAU_Node@?$_Tree_nod@V?$_Tmap_traits@KP8CDPCoreSrvr@@AEXAAVCAr@@PAEK@ZU?$less@K@std@@V?$allocator@U?$pair@$$CBKP8CDPCoreSrvr@@AEXAAVCAr@@PAEK@Z@std@@@4@$0A@@std@@@2@PAU342@@Z
_TEXT	SEGMENT PARA USE32 PUBLIC 'CODE'
_TEXT	ENDS
;	COMDAT ?_Right@?$_Tree@V?$_Tmap_traits@KP8CDPCoreSrvr@@AEXAAVCAr@@PAEK@ZU?$less@K@std@@V?$allocator@U?$pair@$$CBKP8CDPCoreSrvr@@AEXAAVCAr@@PAEK@Z@std@@@4@$0A@@std@@@std@@KAAAPAU_Node@?$_Tree_nod@V?$_Tmap_traits@KP8CDPCoreSrvr@@AEXAAVCAr@@PAEK@ZU?$less@K@std@@V?$allocator@U?$pair@$$CBKP8CDPCoreSrvr@@AEXAAVCAr@@PAEK@Z@std@@@4@$0A@@std@@@2@PAU342@@Z
_TEXT	SEGMENT PARA USE32 PUBLIC 'CODE'
_TEXT	ENDS
;	COMDAT ?_Root@?$_Tree@V?$_Tmap_traits@KP8CDPCoreSrvr@@AEXAAVCAr@@PAEK@ZU?$less@K@std@@V?$allocator@U?$pair@$$CBKP8CDPCoreSrvr@@AEXAAVCAr@@PAEK@Z@std@@@4@$0A@@std@@@std@@IBEAAPAU_Node@?$_Tree_nod@V?$_Tmap_traits@KP8CDPCoreSrvr@@AEXAAVCAr@@PAEK@ZU?$less@K@std@@V?$allocator@U?$pair@$$CBKP8CDPCoreSrvr@@AEXAAVCAr@@PAEK@Z@std@@@4@$0A@@std@@@2@XZ
_TEXT	SEGMENT PARA USE32 PUBLIC 'CODE'
_TEXT	ENDS
;	COMDAT ?max_size@?$allocator@M@std@@QBEIXZ
_TEXT	SEGMENT PARA USE32 PUBLIC 'CODE'
_TEXT	ENDS
;	COMDAT ?_Isnil@?$_Tree@V?$_Tmap_traits@KP8CDPTrans@@AEXAAVCAr@@KKKPAEK@ZU?$less@K@std@@V?$allocator@U?$pair@$$CBKP8CDPTrans@@AEXAAVCAr@@KKKPAEK@Z@std@@@4@$0A@@std@@@std@@KAAADPAU_Node@?$_Tree_nod@V?$_Tmap_traits@KP8CDPTrans@@AEXAAVCAr@@KKKPAEK@ZU?$less@K@std@@V?$allocator@U?$pair@$$CBKP8CDPTrans@@AEXAAVCAr@@KKKPAEK@Z@std@@@4@$0A@@std@@@2@@Z
_TEXT	SEGMENT PARA USE32 PUBLIC 'CODE'
_TEXT	ENDS
;	COMDAT ?_Left@?$_Tree@V?$_Tmap_traits@KP8CDPTrans@@AEXAAVCAr@@KKKPAEK@ZU?$less@K@std@@V?$allocator@U?$pair@$$CBKP8CDPTrans@@AEXAAVCAr@@KKKPAEK@Z@std@@@4@$0A@@std@@@std@@KAAAPAU_Node@?$_Tree_nod@V?$_Tmap_traits@KP8CDPTrans@@AEXAAVCAr@@KKKPAEK@ZU?$less@K@std@@V?$allocator@U?$pair@$$CBKP8CDPTrans@@AEXAAVCAr@@KKKPAEK@Z@std@@@4@$0A@@std@@@2@PAU342@@Z
_TEXT	SEGMENT PARA USE32 PUBLIC 'CODE'
_TEXT	ENDS
;	COMDAT ?_Right@?$_Tree@V?$_Tmap_traits@KP8CDPTrans@@AEXAAVCAr@@KKKPAEK@ZU?$less@K@std@@V?$allocator@U?$pair@$$CBKP8CDPTrans@@AEXAAVCAr@@KKKPAEK@Z@std@@@4@$0A@@std@@@std@@KAAAPAU_Node@?$_Tree_nod@V?$_Tmap_traits@KP8CDPTrans@@AEXAAVCAr@@KKKPAEK@ZU?$less@K@std@@V?$allocator@U?$pair@$$CBKP8CDPTrans@@AEXAAVCAr@@KKKPAEK@Z@std@@@4@$0A@@std@@@2@PAU342@@Z
_TEXT	SEGMENT PARA USE32 PUBLIC 'CODE'
_TEXT	ENDS
;	COMDAT ?_Root@?$_Tree@V?$_Tmap_traits@KP8CDPTrans@@AEXAAVCAr@@KKKPAEK@ZU?$less@K@std@@V?$allocator@U?$pair@$$CBKP8CDPTrans@@AEXAAVCAr@@KKKPAEK@Z@std@@@4@$0A@@std@@@std@@IBEAAPAU_Node@?$_Tree_nod@V?$_Tmap_traits@KP8CDPTrans@@AEXAAVCAr@@KKKPAEK@ZU?$less@K@std@@V?$allocator@U?$pair@$$CBKP8CDPTrans@@AEXAAVCAr@@KKKPAEK@Z@std@@@4@$0A@@std@@@2@XZ
_TEXT	SEGMENT PARA USE32 PUBLIC 'CODE'
_TEXT	ENDS
;	COMDAT ??0const_iterator@?$vector@PAU__JOINPLAYER@CGuildCombat@@V?$allocator@PAU__JOINPLAYER@CGuildCombat@@@std@@@std@@QAE@PAPAU__JOINPLAYER@CGuildCombat@@@Z
_TEXT	SEGMENT PARA USE32 PUBLIC 'CODE'
_TEXT	ENDS
;	COMDAT ?_Parent@?$_Tree@V?$_Tmap_traits@KP8CDPLoginSrvr@@AEXAAVCAr@@KPAEK@ZU?$less@K@std@@V?$allocator@U?$pair@$$CBKP8CDPLoginSrvr@@AEXAAVCAr@@KPAEK@Z@std@@@4@$0A@@std@@@std@@KAAAPAU_Node@?$_Tree_nod@V?$_Tmap_traits@KP8CDPLoginSrvr@@AEXAAVCAr@@KPAEK@ZU?$less@K@std@@V?$allocator@U?$pair@$$CBKP8CDPLoginSrvr@@AEXAAVCAr@@KPAEK@Z@std@@@4@$0A@@std@@@2@PAU342@@Z
_TEXT	SEGMENT PARA USE32 PUBLIC 'CODE'
_TEXT	ENDS
;	COMDAT ?_Parent@?$_Tree@V?$_Tmap_traits@KP8CDPCoreSrvr@@AEXAAVCAr@@PAEK@ZU?$less@K@std@@V?$allocator@U?$pair@$$CBKP8CDPCoreSrvr@@AEXAAVCAr@@PAEK@Z@std@@@4@$0A@@std@@@std@@KAAAPAU_Node@?$_Tree_nod@V?$_Tmap_traits@KP8CDPCoreSrvr@@AEXAAVCAr@@PAEK@ZU?$less@K@std@@V?$allocator@U?$pair@$$CBKP8CDPCoreSrvr@@AEXAAVCAr@@PAEK@Z@std@@@4@$0A@@std@@@2@PAU342@@Z
_TEXT	SEGMENT PARA USE32 PUBLIC 'CODE'
_TEXT	ENDS
;	COMDAT ?_Parent@?$_Tree@V?$_Tmap_traits@KP8CDPTrans@@AEXAAVCAr@@KKKPAEK@ZU?$less@K@std@@V?$allocator@U?$pair@$$CBKP8CDPTrans@@AEXAAVCAr@@KKKPAEK@Z@std@@@4@$0A@@std@@@std@@KAAAPAU_Node@?$_Tree_nod@V?$_Tmap_traits@KP8CDPTrans@@AEXAAVCAr@@KKKPAEK@ZU?$less@K@std@@V?$allocator@U?$pair@$$CBKP8CDPTrans@@AEXAAVCAr@@KKKPAEK@Z@std@@@4@$0A@@std@@@2@PAU342@@Z
_TEXT	SEGMENT PARA USE32 PUBLIC 'CODE'
_TEXT	ENDS
;	COMDAT ??$_Iter_cat@Viterator@?$_Tree@V?$_Tmap_traits@KU_Friend@@U?$less@K@std@@V?$allocator@U?$pair@$$CBKU_Friend@@@std@@@3@$0A@@std@@@std@@@std@@YA?AUbidirectional_iterator_tag@0@ABViterator@?$_Tree@V?$_Tmap_traits@KU_Friend@@U?$less@K@std@@V?$allocator@U?$pair@$$CBKU_Friend@@@std@@@3@$0A@@std@@@0@@Z
_TEXT	SEGMENT PARA USE32 PUBLIC 'CODE'
_TEXT	ENDS
;	COMDAT ??$_Distance2@Viterator@?$_Tree@V?$_Tmap_traits@KU_Friend@@U?$less@K@std@@V?$allocator@U?$pair@$$CBKU_Friend@@@std@@@3@$0A@@std@@@std@@I@std@@YAXViterator@?$_Tree@V?$_Tmap_traits@KU_Friend@@U?$less@K@std@@V?$allocator@U?$pair@$$CBKU_Friend@@@std@@@3@$0A@@std@@@0@0AAIUbidirectional_iterator_tag@0@@Z
_TEXT	SEGMENT PARA USE32 PUBLIC 'CODE'
_TEXT	ENDS
;	COMDAT ??$_Copy_opt@PAJPAJ@std@@YAPAJPAJ00U_Scalar_ptr_iterator_tag@0@@Z
_TEXT	SEGMENT PARA USE32 PUBLIC 'CODE'
_TEXT	ENDS
;	COMDAT ??$_Uninitialized_copy@PAJPAJV?$allocator@J@std@@@std@@YAPAJPAJ00AAV?$allocator@J@0@@Z
_TEXT	SEGMENT PARA USE32 PUBLIC 'CODE'
_TEXT	ENDS
;	COMDAT ??$_Copy_backward_opt@PAJPAJ@std@@YAPAJPAJ00U_Scalar_ptr_iterator_tag@0@@Z
_TEXT	SEGMENT PARA USE32 PUBLIC 'CODE'
_TEXT	ENDS
;	COMDAT ??$_Ptr_cat@PAUtagDROPITEM@@PAU1@@std@@YA?AU_Nonscalar_ptr_iterator_tag@0@AAPAUtagDROPITEM@@0@Z
_TEXT	SEGMENT PARA USE32 PUBLIC 'CODE'
_TEXT	ENDS
;	COMDAT ??$_Destroy_range@UtagDROPITEM@@V?$allocator@UtagDROPITEM@@@std@@@std@@YAXPAUtagDROPITEM@@0AAV?$allocator@UtagDROPITEM@@@0@U_Nonscalar_ptr_iterator_tag@0@@Z
_TEXT	SEGMENT PARA USE32 PUBLIC 'CODE'
_TEXT	ENDS
;	COMDAT ??$_Destroy_range@KV?$allocator@K@std@@@std@@YAXPAK0AAV?$allocator@K@0@U_Scalar_ptr_iterator_tag@0@@Z
_TEXT	SEGMENT PARA USE32 PUBLIC 'CODE'
_TEXT	ENDS
;	COMDAT ??$_Destroy_range@JV?$allocator@J@std@@@std@@YAXPAJ0AAV?$allocator@J@0@U_Scalar_ptr_iterator_tag@0@@Z
_TEXT	SEGMENT PARA USE32 PUBLIC 'CODE'
_TEXT	ENDS
;	COMDAT ??$_Uninit_fill_n@JIJ@std@@YAXPAJIABJAAV?$allocator@J@0@U_Scalar_ptr_iterator_tag@0@@Z
_TEXT	SEGMENT PARA USE32 PUBLIC 'CODE'
_TEXT	ENDS
;	COMDAT ??$throw_exception@Vbad_weak_ptr@boost@@@boost@@YAXABVbad_weak_ptr@0@@Z
_TEXT	SEGMENT PARA USE32 PUBLIC 'CODE'
_TEXT	ENDS
;	COMDAT ??$_Destroy@U_Node@?$_List_nod@PAU__JOINPLAYER@CGuildCombat@@V?$allocator@PAU__JOINPLAYER@CGuildCombat@@@std@@@std@@@std@@YAXPAU_Node@?$_List_nod@PAU__JOINPLAYER@CGuildCombat@@V?$allocator@PAU__JOINPLAYER@CGuildCombat@@@std@@@0@@Z
_TEXT	SEGMENT PARA USE32 PUBLIC 'CODE'
_TEXT	ENDS
;	COMDAT ??$_Allocate@H@std@@YAPAHIPAH@Z
_TEXT	SEGMENT PARA USE32 PUBLIC 'CODE'
_TEXT	ENDS
;	COMDAT ??$_Destroy_range@MV?$allocator@M@std@@@std@@YAXPAM0AAV?$allocator@M@0@@Z
_TEXT	SEGMENT PARA USE32 PUBLIC 'CODE'
_TEXT	ENDS
;	COMDAT ??$_Allocate@M@std@@YAPAMIPAM@Z
_TEXT	SEGMENT PARA USE32 PUBLIC 'CODE'
_TEXT	ENDS
;	COMDAT ??$_Destroy_range@HV?$allocator@H@std@@@std@@YAXPAH0AAV?$allocator@H@0@@Z
_TEXT	SEGMENT PARA USE32 PUBLIC 'CODE'
_TEXT	ENDS
;	COMDAT ??$_Destroy_range@PAU__JOINPLAYER@CGuildCombat@@V?$allocator@PAU__JOINPLAYER@CGuildCombat@@@std@@@std@@YAXPAPAU__JOINPLAYER@CGuildCombat@@0AAV?$allocator@PAU__JOINPLAYER@CGuildCombat@@@0@@Z
_TEXT	SEGMENT PARA USE32 PUBLIC 'CODE'
_TEXT	ENDS
;	COMDAT ??0bad_weak_ptr@boost@@QAE@ABV01@@Z
_TEXT	SEGMENT PARA USE32 PUBLIC 'CODE'
_TEXT	ENDS
;	COMDAT ?destroy@?$allocator@UtagDROPITEM@@@std@@QAEXPAUtagDROPITEM@@@Z
_TEXT	SEGMENT PARA USE32 PUBLIC 'CODE'
_TEXT	ENDS
;	COMDAT ??$_Uninit_copy@JJ@std@@YAPAJPAJ00AAV?$allocator@J@0@U_Scalar_ptr_iterator_tag@0@@Z
_TEXT	SEGMENT PARA USE32 PUBLIC 'CODE'
_TEXT	ENDS
;	COMDAT ??$fill_n@PAJIJ@std@@YAXPAJIABJ@Z
_TEXT	SEGMENT PARA USE32 PUBLIC 'CODE'
_TEXT	ENDS
;	COMDAT ??$_Destroy_range@MV?$allocator@M@std@@@std@@YAXPAM0AAV?$allocator@M@0@U_Scalar_ptr_iterator_tag@0@@Z
_TEXT	SEGMENT PARA USE32 PUBLIC 'CODE'
_TEXT	ENDS
;	COMDAT ??$_Destroy_range@HV?$allocator@H@std@@@std@@YAXPAH0AAV?$allocator@H@0@U_Scalar_ptr_iterator_tag@0@@Z
_TEXT	SEGMENT PARA USE32 PUBLIC 'CODE'
_TEXT	ENDS
;	COMDAT ??$_Ptr_cat@U__JOINPLAYER@CGuildCombat@@@std@@YA?AU_Scalar_ptr_iterator_tag@0@PAPAU__JOINPLAYER@CGuildCombat@@0@Z
_TEXT	SEGMENT PARA USE32 PUBLIC 'CODE'
_TEXT	ENDS
;	COMDAT ??$_Destroy_range@PAU__JOINPLAYER@CGuildCombat@@V?$allocator@PAU__JOINPLAYER@CGuildCombat@@@std@@@std@@YAXPAPAU__JOINPLAYER@CGuildCombat@@0AAV?$allocator@PAU__JOINPLAYER@CGuildCombat@@@0@U_Scalar_ptr_iterator_tag@0@@Z
_TEXT	SEGMENT PARA USE32 PUBLIC 'CODE'
_TEXT	ENDS
;	COMDAT ??$_Destroy@UtagDROPITEM@@@std@@YAXPAUtagDROPITEM@@@Z
_TEXT	SEGMENT PARA USE32 PUBLIC 'CODE'
_TEXT	ENDS
;	COMDAT ?_Ptr_cat@std@@YA?AU_Scalar_ptr_iterator_tag@1@PAH0@Z
_TEXT	SEGMENT PARA USE32 PUBLIC 'CODE'
_TEXT	ENDS
;	COMDAT ?_Ptr_cat@std@@YA?AU_Scalar_ptr_iterator_tag@1@PAM0@Z
_TEXT	SEGMENT PARA USE32 PUBLIC 'CODE'
_TEXT	ENDS
;	COMDAT __CTA2?AVbad_weak_ptr@boost@@
xdata$x	SEGMENT DWORD USE32 PUBLIC 'CONST'
xdata$x	ENDS
;	COMDAT __CT??_R0?AVexception@@@8??0exception@@QAE@ABV0@@Z12
xdata$x	SEGMENT DWORD USE32 PUBLIC 'CONST'
xdata$x	ENDS
;	COMDAT ??_R0?AVexception@@@8
_DATA	SEGMENT DWORD USE32 PUBLIC 'DATA'
_DATA	ENDS
;	COMDAT __CT??_R0?AVbad_weak_ptr@boost@@@8??0bad_weak_ptr@boost@@QAE@ABV01@@Z12
xdata$x	SEGMENT DWORD USE32 PUBLIC 'CONST'
xdata$x	ENDS
;	COMDAT ??_R0?AVbad_weak_ptr@boost@@@8
_DATA	SEGMENT DWORD USE32 PUBLIC 'DATA'
_DATA	ENDS
;	COMDAT __TI2?AVbad_weak_ptr@boost@@
xdata$x	SEGMENT DWORD USE32 PUBLIC 'CONST'
xdata$x	ENDS
;	COMDAT ?_Ptr_cat@std@@YA?AU_Scalar_ptr_iterator_tag@1@PAJ0@Z
_TEXT	SEGMENT PARA USE32 PUBLIC 'CODE'
_TEXT	ENDS
;	COMDAT ??9const_iterator@?$_Tree@V?$_Tmap_traits@KU_Friend@@U?$less@K@std@@V?$allocator@U?$pair@$$CBKU_Friend@@@std@@@3@$0A@@std@@@std@@QBE_NABV012@@Z
_TEXT	SEGMENT PARA USE32 PUBLIC 'CODE'
_TEXT	ENDS
;	COMDAT ??8const_iterator@?$_Tree@V?$_Tmap_traits@KU_Friend@@U?$less@K@std@@V?$allocator@U?$pair@$$CBKU_Friend@@@std@@@3@$0A@@std@@@std@@QBE_NABV012@@Z
_TEXT	SEGMENT PARA USE32 PUBLIC 'CODE'
_TEXT	ENDS
;	COMDAT ??Eiterator@?$_Tree@V?$_Tmap_traits@KU_Friend@@U?$less@K@std@@V?$allocator@U?$pair@$$CBKU_Friend@@@std@@@3@$0A@@std@@@std@@QAEAAV012@XZ
_TEXT	SEGMENT PARA USE32 PUBLIC 'CODE'
_TEXT	ENDS
;	COMDAT ??Econst_iterator@?$_Tree@V?$_Tmap_traits@KU_Friend@@U?$less@K@std@@V?$allocator@U?$pair@$$CBKU_Friend@@@std@@@3@$0A@@std@@@std@@QAEAAV012@XZ
_TEXT	SEGMENT PARA USE32 PUBLIC 'CODE'
_TEXT	ENDS
;	COMDAT ?_Inc@const_iterator@?$_Tree@V?$_Tmap_traits@KU_Friend@@U?$less@K@std@@V?$allocator@U?$pair@$$CBKU_Friend@@@std@@@3@$0A@@std@@@std@@QAEXXZ
_TEXT	SEGMENT PARA USE32 PUBLIC 'CODE'
_TEXT	ENDS
;	COMDAT ?_Min@?$_Tree@V?$_Tmap_traits@KU_Friend@@U?$less@K@std@@V?$allocator@U?$pair@$$CBKU_Friend@@@std@@@3@$0A@@std@@@std@@KAPAU_Node@?$_Tree_nod@V?$_Tmap_traits@KU_Friend@@U?$less@K@std@@V?$allocator@U?$pair@$$CBKU_Friend@@@std@@@3@$0A@@std@@@2@PAU342@@Z
_TEXT	SEGMENT PARA USE32 PUBLIC 'CODE'
_TEXT	ENDS
;	COMDAT ?_Left@?$_Tree@V?$_Tmap_traits@KU_Friend@@U?$less@K@std@@V?$allocator@U?$pair@$$CBKU_Friend@@@std@@@3@$0A@@std@@@std@@KAAAPAU_Node@?$_Tree_nod@V?$_Tmap_traits@KU_Friend@@U?$less@K@std@@V?$allocator@U?$pair@$$CBKU_Friend@@@std@@@3@$0A@@std@@@2@PAU342@@Z
_TEXT	SEGMENT PARA USE32 PUBLIC 'CODE'
_TEXT	ENDS
;	COMDAT ?_Isnil@?$_Tree@V?$_Tmap_traits@KU_Friend@@U?$less@K@std@@V?$allocator@U?$pair@$$CBKU_Friend@@@std@@@3@$0A@@std@@@std@@KAAADPAU_Node@?$_Tree_nod@V?$_Tmap_traits@KU_Friend@@U?$less@K@std@@V?$allocator@U?$pair@$$CBKU_Friend@@@std@@@3@$0A@@std@@@2@@Z
_TEXT	SEGMENT PARA USE32 PUBLIC 'CODE'
_TEXT	ENDS
;	COMDAT ?_Parent@?$_Tree@V?$_Tmap_traits@KU_Friend@@U?$less@K@std@@V?$allocator@U?$pair@$$CBKU_Friend@@@std@@@3@$0A@@std@@@std@@KAAAPAU_Node@?$_Tree_nod@V?$_Tmap_traits@KU_Friend@@U?$less@K@std@@V?$allocator@U?$pair@$$CBKU_Friend@@@std@@@3@$0A@@std@@@2@PAU342@@Z
_TEXT	SEGMENT PARA USE32 PUBLIC 'CODE'
_TEXT	ENDS
;	COMDAT ?_Right@?$_Tree@V?$_Tmap_traits@KU_Friend@@U?$less@K@std@@V?$allocator@U?$pair@$$CBKU_Friend@@@std@@@3@$0A@@std@@@std@@KAAAPAU_Node@?$_Tree_nod@V?$_Tmap_traits@KU_Friend@@U?$less@K@std@@V?$allocator@U?$pair@$$CBKU_Friend@@@std@@@3@$0A@@std@@@2@PAU342@@Z
_TEXT	SEGMENT PARA USE32 PUBLIC 'CODE'
_TEXT	ENDS
;	COMDAT ?_Psave@?$_Facetptr@V?$ctype@G@std@@@std@@2PBVfacet@locale@2@B
_DATA	SEGMENT DWORD USE32 PUBLIC 'DATA'
_DATA	ENDS
;	COMDAT ?_Psave@?$_Facetptr@V?$ctype@D@std@@@std@@2PBVfacet@locale@2@B
_DATA	SEGMENT DWORD USE32 PUBLIC 'DATA'
_DATA	ENDS
;	COMDAT __TI3?AVlength_error@std@@
xdata$x	SEGMENT DWORD USE32 PUBLIC 'CONST'
xdata$x	ENDS
;	COMDAT ??1length_error@std@@UAE@XZ
_TEXT	SEGMENT PARA USE32 PUBLIC 'CODE'
_TEXT	ENDS
;	COMDAT ??_7length_error@std@@6B@
CONST	SEGMENT DWORD USE32 PUBLIC 'CONST'
CONST	ENDS
;	COMDAT ??_Glength_error@std@@UAEPAXI@Z
_TEXT	SEGMENT PARA USE32 PUBLIC 'CODE'
_TEXT	ENDS
;	COMDAT ?what@logic_error@std@@UBEPBDXZ
_TEXT	SEGMENT PARA USE32 PUBLIC 'CODE'
_TEXT	ENDS
;	COMDAT ?c_str@?$basic_string@DU?$char_traits@D@std@@V?$allocator@D@2@@std@@QBEPBDXZ
_TEXT	SEGMENT PARA USE32 PUBLIC 'CODE'
_TEXT	ENDS
;	COMDAT ??1logic_error@std@@UAE@XZ
_TEXT	SEGMENT PARA USE32 PUBLIC 'CODE'
_TEXT	ENDS
;	COMDAT ??_7logic_error@std@@6B@
CONST	SEGMENT DWORD USE32 PUBLIC 'CONST'
CONST	ENDS
;	COMDAT ??_Glogic_error@std@@UAEPAXI@Z
_TEXT	SEGMENT PARA USE32 PUBLIC 'CODE'
_TEXT	ENDS
;	COMDAT __CTA3?AVlength_error@std@@
xdata$x	SEGMENT DWORD USE32 PUBLIC 'CONST'
xdata$x	ENDS
;	COMDAT __CT??_R0?AVlength_error@std@@@8??0length_error@std@@QAE@ABV01@@Z40
xdata$x	SEGMENT DWORD USE32 PUBLIC 'CONST'
xdata$x	ENDS
;	COMDAT ??_R0?AVlength_error@std@@@8
_DATA	SEGMENT DWORD USE32 PUBLIC 'DATA'
_DATA	ENDS
;	COMDAT ??0length_error@std@@QAE@ABV01@@Z
_TEXT	SEGMENT PARA USE32 PUBLIC 'CODE'
_TEXT	ENDS
;	COMDAT ??0logic_error@std@@QAE@ABV01@@Z
_TEXT	SEGMENT PARA USE32 PUBLIC 'CODE'
_TEXT	ENDS
;	COMDAT ??0?$basic_string@DU?$char_traits@D@std@@V?$allocator@D@2@@std@@QAE@ABV01@@Z
_TEXT	SEGMENT PARA USE32 PUBLIC 'CODE'
_TEXT	ENDS
;	COMDAT ??0?$_String_val@DV?$allocator@D@std@@@std@@IAE@V?$allocator@D@1@@Z
_TEXT	SEGMENT PARA USE32 PUBLIC 'CODE'
_TEXT	ENDS
;	COMDAT ??0?$allocator@D@std@@QAE@ABV01@@Z
_TEXT	SEGMENT PARA USE32 PUBLIC 'CODE'
_TEXT	ENDS
;	COMDAT ?_Tidy@?$basic_string@DU?$char_traits@D@std@@V?$allocator@D@2@@std@@IAEX_NI@Z
_TEXT	SEGMENT PARA USE32 PUBLIC 'CODE'
_TEXT	ENDS
;	COMDAT ?copy@?$char_traits@D@std@@SAPADPADPBDI@Z
_TEXT	SEGMENT PARA USE32 PUBLIC 'CODE'
_TEXT	ENDS
;	COMDAT ?deallocate@?$allocator@D@std@@QAEXPADI@Z
_TEXT	SEGMENT PARA USE32 PUBLIC 'CODE'
_TEXT	ENDS
;	COMDAT ?_Eos@?$basic_string@DU?$char_traits@D@std@@V?$allocator@D@2@@std@@IAEXI@Z
_TEXT	SEGMENT PARA USE32 PUBLIC 'CODE'
_TEXT	ENDS
;	COMDAT ?assign@?$char_traits@D@std@@SAXAADABD@Z
_TEXT	SEGMENT PARA USE32 PUBLIC 'CODE'
_TEXT	ENDS
;	COMDAT ?_Myptr@?$basic_string@DU?$char_traits@D@std@@V?$allocator@D@2@@std@@QAEPADXZ
_TEXT	SEGMENT PARA USE32 PUBLIC 'CODE'
_TEXT	ENDS
;	COMDAT ?assign@?$basic_string@DU?$char_traits@D@std@@V?$allocator@D@2@@std@@QAEAAV12@ABV12@II@Z
_TEXT	SEGMENT PARA USE32 PUBLIC 'CODE'
_TEXT	ENDS
;	COMDAT ?erase@?$basic_string@DU?$char_traits@D@std@@V?$allocator@D@2@@std@@QAEAAV12@II@Z
_TEXT	SEGMENT PARA USE32 PUBLIC 'CODE'
_TEXT	ENDS
;	COMDAT ?move@?$char_traits@D@std@@SAPADPADPBDI@Z
_TEXT	SEGMENT PARA USE32 PUBLIC 'CODE'
_TEXT	ENDS
;	COMDAT ?_Grow@?$basic_string@DU?$char_traits@D@std@@V?$allocator@D@2@@std@@IAE_NI_N@Z
_TEXT	SEGMENT PARA USE32 PUBLIC 'CODE'
_TEXT	ENDS
;	COMDAT ?max_size@?$basic_string@DU?$char_traits@D@std@@V?$allocator@D@2@@std@@QBEIXZ
_TEXT	SEGMENT PARA USE32 PUBLIC 'CODE'
_TEXT	ENDS
;	COMDAT ?max_size@?$allocator@D@std@@QBEIXZ
_TEXT	SEGMENT PARA USE32 PUBLIC 'CODE'
_TEXT	ENDS
;	COMDAT ?_Copy@?$basic_string@DU?$char_traits@D@std@@V?$allocator@D@2@@std@@IAEXII@Z
_TEXT	SEGMENT PARA USE32 PUBLIC 'CODE'
_TEXT	ENDS
;	COMDAT ?allocate@?$allocator@D@std@@QAEPADI@Z
_TEXT	SEGMENT PARA USE32 PUBLIC 'CODE'
_TEXT	ENDS
;	COMDAT ??$_Allocate@D@std@@YAPADIPAD@Z
_TEXT	SEGMENT PARA USE32 PUBLIC 'CODE'
_TEXT	ENDS
;	COMDAT ?npos@?$basic_string@DU?$char_traits@D@std@@V?$allocator@D@2@@std@@2IB
CONST	SEGMENT DWORD USE32 PUBLIC 'CONST'
CONST	ENDS
;	COMDAT __CT??_R0?AVlogic_error@std@@@8??0logic_error@std@@QAE@ABV01@@Z40
xdata$x	SEGMENT DWORD USE32 PUBLIC 'CONST'
xdata$x	ENDS
;	COMDAT ??_R0?AVlogic_error@std@@@8
_DATA	SEGMENT DWORD USE32 PUBLIC 'DATA'
_DATA	ENDS
;	COMDAT ??1?$basic_string@DU?$char_traits@D@std@@V?$allocator@D@2@@std@@QAE@XZ
_TEXT	SEGMENT PARA USE32 PUBLIC 'CODE'
_TEXT	ENDS
;	COMDAT ??_C@_0BD@OLBABOEK@vector?$DMT?$DO?5too?5long?$AA@
CONST	SEGMENT DWORD USE32 PUBLIC 'CONST'
CONST	ENDS
;	COMDAT ??0?$basic_string@DU?$char_traits@D@std@@V?$allocator@D@2@@std@@QAE@PBD@Z
_TEXT	SEGMENT PARA USE32 PUBLIC 'CODE'
_TEXT	ENDS
;	COMDAT ??0?$allocator@D@std@@QAE@XZ
_TEXT	SEGMENT PARA USE32 PUBLIC 'CODE'
_TEXT	ENDS
;	COMDAT ?assign@?$basic_string@DU?$char_traits@D@std@@V?$allocator@D@2@@std@@QAEAAV12@PBD@Z
_TEXT	SEGMENT PARA USE32 PUBLIC 'CODE'
_TEXT	ENDS
;	COMDAT ?assign@?$basic_string@DU?$char_traits@D@std@@V?$allocator@D@2@@std@@QAEAAV12@PBDI@Z
_TEXT	SEGMENT PARA USE32 PUBLIC 'CODE'
_TEXT	ENDS
;	COMDAT ?_Inside@?$basic_string@DU?$char_traits@D@std@@V?$allocator@D@2@@std@@IAE_NPBD@Z
_TEXT	SEGMENT PARA USE32 PUBLIC 'CODE'
_TEXT	ENDS
;	COMDAT ?length@?$char_traits@D@std@@SAIPBD@Z
_TEXT	SEGMENT PARA USE32 PUBLIC 'CODE'
_TEXT	ENDS
;	COMDAT ??0length_error@std@@QAE@ABV?$basic_string@DU?$char_traits@D@std@@V?$allocator@D@2@@1@@Z
_TEXT	SEGMENT PARA USE32 PUBLIC 'CODE'
_TEXT	ENDS
;	COMDAT ??0logic_error@std@@QAE@ABV?$basic_string@DU?$char_traits@D@std@@V?$allocator@D@2@@1@@Z
_TEXT	SEGMENT PARA USE32 PUBLIC 'CODE'
_TEXT	ENDS
;	COMDAT ?push_back@?$list@PAXV?$allocator@PAX@std@@@std@@QAEXABQAX@Z
_TEXT	SEGMENT PARA USE32 PUBLIC 'CODE'
_TEXT	ENDS
;	COMDAT ?_Insert@?$list@PAXV?$allocator@PAX@std@@@std@@QAEXViterator@12@ABQAX@Z
_TEXT	SEGMENT PARA USE32 PUBLIC 'CODE'
_TEXT	ENDS
;	COMDAT ?_Mynode@const_iterator@?$list@PAXV?$allocator@PAX@std@@@std@@QBEPAU_Node@?$_List_nod@PAXV?$allocator@PAX@std@@@3@XZ
_TEXT	SEGMENT PARA USE32 PUBLIC 'CODE'
_TEXT	ENDS
;	COMDAT ?_Buynode@?$list@PAXV?$allocator@PAX@std@@@std@@IAEPAU_Node@?$_List_nod@PAXV?$allocator@PAX@std@@@2@PAU342@0ABQAX@Z
_TEXT	SEGMENT PARA USE32 PUBLIC 'CODE'
_TEXT	ENDS
;	COMDAT ?allocate@?$allocator@U_Node@?$_List_nod@PAXV?$allocator@PAX@std@@@std@@@std@@QAEPAU_Node@?$_List_nod@PAXV?$allocator@PAX@std@@@2@I@Z
_TEXT	SEGMENT PARA USE32 PUBLIC 'CODE'
_TEXT	ENDS
;	COMDAT ??$_Allocate@U_Node@?$_List_nod@PAXV?$allocator@PAX@std@@@std@@@std@@YAPAU_Node@?$_List_nod@PAXV?$allocator@PAX@std@@@0@IPAU120@@Z
_TEXT	SEGMENT PARA USE32 PUBLIC 'CODE'
_TEXT	ENDS
;	COMDAT ??2@YAPAXIPAX@Z
_TEXT	SEGMENT PARA USE32 PUBLIC 'CODE'
_TEXT	ENDS
;	COMDAT ??3@YAXPAX0@Z
_TEXT	SEGMENT PARA USE32 PUBLIC 'CODE'
_TEXT	ENDS
;	COMDAT ??0_Node@?$_List_nod@PAXV?$allocator@PAX@std@@@std@@QAE@PAU012@0ABQAX@Z
_TEXT	SEGMENT PARA USE32 PUBLIC 'CODE'
_TEXT	ENDS
;	COMDAT ?deallocate@?$allocator@U_Node@?$_List_nod@PAXV?$allocator@PAX@std@@@std@@@std@@QAEXPAU_Node@?$_List_nod@PAXV?$allocator@PAX@std@@@2@I@Z
_TEXT	SEGMENT PARA USE32 PUBLIC 'CODE'
_TEXT	ENDS
;	COMDAT ?_Incsize@?$list@PAXV?$allocator@PAX@std@@@std@@IAEXI@Z
_TEXT	SEGMENT PARA USE32 PUBLIC 'CODE'
_TEXT	ENDS
;	COMDAT ?max_size@?$list@PAXV?$allocator@PAX@std@@@std@@QBEIXZ
_TEXT	SEGMENT PARA USE32 PUBLIC 'CODE'
_TEXT	ENDS
;	COMDAT ?max_size@?$allocator@PAX@std@@QBEIXZ
_TEXT	SEGMENT PARA USE32 PUBLIC 'CODE'
_TEXT	ENDS
;	COMDAT ??_C@_0BB@MOGOBHAF@list?$DMT?$DO?5too?5long?$AA@
CONST	SEGMENT DWORD USE32 PUBLIC 'CONST'
CONST	ENDS
;	COMDAT ?_Nextnode@?$list@PAXV?$allocator@PAX@std@@@std@@KAAAPAU_Node@?$_List_nod@PAXV?$allocator@PAX@std@@@2@PAU342@@Z
_TEXT	SEGMENT PARA USE32 PUBLIC 'CODE'
_TEXT	ENDS
;	COMDAT ?_Prevnode@?$list@PAXV?$allocator@PAX@std@@@std@@KAAAPAU_Node@?$_List_nod@PAXV?$allocator@PAX@std@@@2@PAU342@@Z
_TEXT	SEGMENT PARA USE32 PUBLIC 'CODE'
_TEXT	ENDS
;	COMDAT ?end@?$list@PAXV?$allocator@PAX@std@@@std@@QAE?AViterator@12@XZ
_TEXT	SEGMENT PARA USE32 PUBLIC 'CODE'
_TEXT	ENDS
;	COMDAT ??0iterator@?$list@PAXV?$allocator@PAX@std@@@std@@QAE@PAU_Node@?$_List_nod@PAXV?$allocator@PAX@std@@@2@@Z
_TEXT	SEGMENT PARA USE32 PUBLIC 'CODE'
_TEXT	ENDS
;	COMDAT ??0const_iterator@?$list@PAXV?$allocator@PAX@std@@@std@@QAE@PAU_Node@?$_List_nod@PAXV?$allocator@PAX@std@@@2@@Z
_TEXT	SEGMENT PARA USE32 PUBLIC 'CODE'
_TEXT	ENDS
;	COMDAT ??_C@_09PKKCPLIP@bad?5alloc?$AA@
CONST	SEGMENT DWORD USE32 PUBLIC 'CONST'
CONST	ENDS
;	COMDAT ?compare@?$char_traits@D@std@@SAHPBD0I@Z
_TEXT	SEGMENT PARA USE32 PUBLIC 'CODE'
_TEXT	ENDS
;	COMDAT ??R?$less@K@std@@QBE_NABK0@Z
_TEXT	SEGMENT PARA USE32 PUBLIC 'CODE'
_TEXT	ENDS
;	COMDAT ?_Myptr@?$basic_string@DU?$char_traits@D@std@@V?$allocator@D@2@@std@@QBEPBDXZ
_TEXT	SEGMENT PARA USE32 PUBLIC 'CODE'
_TEXT	ENDS
;	COMDAT ?size@?$basic_string@DU?$char_traits@D@std@@V?$allocator@D@2@@std@@QBEIXZ
_TEXT	SEGMENT PARA USE32 PUBLIC 'CODE'
_TEXT	ENDS
;	COMDAT ?ReleaseBufferSetLength@?$CSimpleStringT@D$0A@@ATL@@QAEXH@Z
_TEXT	SEGMENT PARA USE32 PUBLIC 'CODE'
_TEXT	ENDS
;	COMDAT ?SetLength@?$CSimpleStringT@D$0A@@ATL@@AAEXH@Z
_TEXT	SEGMENT PARA USE32 PUBLIC 'CODE'
_TEXT	ENDS
;	COMDAT ?AtlThrow@ATL@@YGXJ@Z
_TEXT	SEGMENT PARA USE32 PUBLIC 'CODE'
_TEXT	ENDS
;	COMDAT ?GetData@?$CSimpleStringT@D$0A@@ATL@@ABEPAUCStringData@2@XZ
_TEXT	SEGMENT PARA USE32 PUBLIC 'CODE'
_TEXT	ENDS
;	COMDAT ?GetBuffer@?$CSimpleStringT@D$0A@@ATL@@QAEPADH@Z
_TEXT	SEGMENT PARA USE32 PUBLIC 'CODE'
_TEXT	ENDS
;	COMDAT ?PrepareWrite@?$CSimpleStringT@D$0A@@ATL@@AAEPADH@Z
_TEXT	SEGMENT PARA USE32 PUBLIC 'CODE'
_TEXT	ENDS
;	COMDAT ?PrepareWrite2@?$CSimpleStringT@D$0A@@ATL@@AAEXH@Z
_TEXT	SEGMENT PARA USE32 PUBLIC 'CODE'
_TEXT	ENDS
;	COMDAT ?IsShared@CStringData@ATL@@QBE_NXZ
_TEXT	SEGMENT PARA USE32 PUBLIC 'CODE'
_TEXT	ENDS
;	COMDAT ?Fork@?$CSimpleStringT@D$0A@@ATL@@AAEXH@Z
_TEXT	SEGMENT PARA USE32 PUBLIC 'CODE'
_TEXT	ENDS
;	COMDAT ?ThrowMemoryException@?$CSimpleStringT@D$0A@@ATL@@KAXXZ
_TEXT	SEGMENT PARA USE32 PUBLIC 'CODE'
_TEXT	ENDS
;	COMDAT ?CopyChars@?$CSimpleStringT@D$0A@@ATL@@SAXPADPBDH@Z
_TEXT	SEGMENT PARA USE32 PUBLIC 'CODE'
_TEXT	ENDS
;	COMDAT ?data@CStringData@ATL@@QAEPAXXZ
_TEXT	SEGMENT PARA USE32 PUBLIC 'CODE'
_TEXT	ENDS
;	COMDAT ?Release@CStringData@ATL@@QAEXXZ
_TEXT	SEGMENT PARA USE32 PUBLIC 'CODE'
_TEXT	ENDS
;	COMDAT ?Attach@?$CSimpleStringT@D$0A@@ATL@@AAEXPAUCStringData@2@@Z
_TEXT	SEGMENT PARA USE32 PUBLIC 'CODE'
_TEXT	ENDS
;	COMDAT ?Reallocate@?$CSimpleStringT@D$0A@@ATL@@AAEXH@Z
_TEXT	SEGMENT PARA USE32 PUBLIC 'CODE'
_TEXT	ENDS
;	COMDAT ?StringFindString@?$ChTraitsCRT@D@ATL@@SAPBDPBD0@Z
_TEXT	SEGMENT PARA USE32 PUBLIC 'CODE'
_TEXT	ENDS
;	COMDAT ?GetLength@?$CSimpleStringT@D$0A@@ATL@@QBEHXZ
_TEXT	SEGMENT PARA USE32 PUBLIC 'CODE'
_TEXT	ENDS
;	COMDAT ?GetString@?$CSimpleStringT@D$0A@@ATL@@QBEPBDXZ
_TEXT	SEGMENT PARA USE32 PUBLIC 'CODE'
_TEXT	ENDS
;	COMDAT ?GetName@CPet@@QAEPBDXZ
_TEXT	SEGMENT PARA USE32 PUBLIC 'CODE'
_TEXT	ENDS
;	COMDAT ?GetKind@CPet@@QAEEXZ
_TEXT	SEGMENT PARA USE32 PUBLIC 'CODE'
_TEXT	ENDS
;	COMDAT ?GetLevel@CPet@@QAEEXZ
_TEXT	SEGMENT PARA USE32 PUBLIC 'CODE'
_TEXT	ENDS
;	COMDAT ?GetExp@CPet@@QAEKXZ
_TEXT	SEGMENT PARA USE32 PUBLIC 'CODE'
_TEXT	ENDS
;	COMDAT ?GetEnergy@CPet@@QAEGXZ
_TEXT	SEGMENT PARA USE32 PUBLIC 'CODE'
_TEXT	ENDS
;	COMDAT ?GetVisKeepTime@CItemElem@@QAEJH@Z
_TEXT	SEGMENT PARA USE32 PUBLIC 'CODE'
_TEXT	ENDS
;	COMDAT ?IsVisPet@CItemElem@@QAEHXZ
_TEXT	SEGMENT PARA USE32 PUBLIC 'CODE'
_TEXT	ENDS
;	COMDAT ?IsVisPet@ItemProp@@QAEHXZ
_TEXT	SEGMENT PARA USE32 PUBLIC 'CODE'
_TEXT	ENDS
;	COMDAT ?GetPropA@CItemElem@@QAEPAUItemProp@@XZ
_TEXT	SEGMENT PARA USE32 PUBLIC 'CODE'
_TEXT	ENDS
;	COMDAT ?IsTransformVisPet@CItemElem@@QAEHXZ
_TEXT	SEGMENT PARA USE32 PUBLIC 'CODE'
_TEXT	ENDS
;	COMDAT ?GetPiercingItem@CItemElem@@QAEKH@Z
_TEXT	SEGMENT PARA USE32 PUBLIC 'CODE'
_TEXT	ENDS
;	COMDAT ?GetPiercingSize@CItemElem@@QAEHXZ
_TEXT	SEGMENT PARA USE32 PUBLIC 'CODE'
_TEXT	ENDS
;	COMDAT ?GetUltimatePiercingItem@CItemElem@@QAEKH@Z
_TEXT	SEGMENT PARA USE32 PUBLIC 'CODE'
_TEXT	ENDS
;	COMDAT ?GetUltimatePiercingSize@CItemElem@@QAEHXZ
_TEXT	SEGMENT PARA USE32 PUBLIC 'CODE'
_TEXT	ENDS
;	COMDAT ?IsUltimate@ItemProp@@QAEHXZ
_TEXT	SEGMENT PARA USE32 PUBLIC 'CODE'
_TEXT	ENDS
;	COMDAT ?GetSerialNumber@CItemBase@@QAEKXZ
_TEXT	SEGMENT PARA USE32 PUBLIC 'CODE'
_TEXT	ENDS
;	COMDAT ?GetOption@CItemElem@@QAEHXZ
_TEXT	SEGMENT PARA USE32 PUBLIC 'CODE'
_TEXT	ENDS
;	COMDAT ?IsEmpty@CItemBase@@QAEHXZ
_TEXT	SEGMENT PARA USE32 PUBLIC 'CODE'
_TEXT	ENDS
;	COMDAT ??_C@_00CNPNBAHC@?$AA@
CONST	SEGMENT DWORD USE32 PUBLIC 'CONST'
CONST	ENDS
;	COMDAT ?GetExpirationDate@CPocket@@QAEJXZ
_TEXT	SEGMENT PARA USE32 PUBLIC 'CODE'
_TEXT	ENDS
;	COMDAT ?IsExpired@CPocket@@QAEHXZ
_TEXT	SEGMENT PARA USE32 PUBLIC 'CODE'
_TEXT	ENDS
;	COMDAT ?IsPiercedItem@CItemElem@@QAEHXZ
_TEXT	SEGMENT PARA USE32 PUBLIC 'CODE'
_TEXT	ENDS
;	COMDAT ?GetRandomOptItemId@CItemElem@@QAE_JXZ
_TEXT	SEGMENT PARA USE32 PUBLIC 'CODE'
_TEXT	ENDS
;	COMDAT ??0_ItemStruct@@QAE@XZ
_TEXT	SEGMENT PARA USE32 PUBLIC 'CODE'
_TEXT	ENDS
;	COMDAT ??_C@_09GBAEEKDE@?$CFs?0?5?$CFd?7?$CFs?$AA@
CONST	SEGMENT DWORD USE32 PUBLIC 'CONST'
CONST	ENDS
;	COMDAT ??0_PocketParam@@QAE@XZ
_TEXT	SEGMENT PARA USE32 PUBLIC 'CODE'
_TEXT	ENDS
;	COMDAT ??0_PocketStruct@@QAE@XZ
_TEXT	SEGMENT PARA USE32 PUBLIC 'CODE'
_TEXT	ENDS
;	COMDAT ??0ADDBANK_QUERYINFO@@QAE@PBD@Z
_TEXT	SEGMENT PARA USE32 PUBLIC 'CODE'
_TEXT	ENDS
;	COMDAT ?GetCampusId@CMover@@QAEKXZ
_TEXT	SEGMENT PARA USE32 PUBLIC 'CODE'
_TEXT	ENDS
;	COMDAT ?GetCampusPoint@CMover@@QAEHXZ
_TEXT	SEGMENT PARA USE32 PUBLIC 'CODE'
_TEXT	ENDS
;	COMDAT ?GetLayer@CObj@@QAEHXZ
_TEXT	SEGMENT PARA USE32 PUBLIC 'CODE'
_TEXT	ENDS
;	COMDAT ?GetPetId@CMover@@QAEKXZ
_TEXT	SEGMENT PARA USE32 PUBLIC 'CODE'
_TEXT	ENDS
;	COMDAT ?GetState@CRTMessenger@@QAEKXZ
_TEXT	SEGMENT PARA USE32 PUBLIC 'CODE'
_TEXT	ENDS
;	COMDAT ?GetTutorialState@CMover@@QAEHXZ
_TEXT	SEGMENT PARA USE32 PUBLIC 'CODE'
_TEXT	ENDS
;	COMDAT ?GetGold@CMover@@QAEHXZ
_TEXT	SEGMENT PARA USE32 PUBLIC 'CODE'
_TEXT	ENDS
;	COMDAT ?GetSex@CMover@@QAEEXZ
_TEXT	SEGMENT PARA USE32 PUBLIC 'CODE'
_TEXT	ENDS
;	COMDAT ??0_ItemContainerStruct@@QAE@XZ
_TEXT	SEGMENT PARA USE32 PUBLIC 'CODE'
_TEXT	ENDS
;	COMDAT ?Empty@?$CSimpleStringT@D$0A@@ATL@@QAEXXZ
_TEXT	SEGMENT PARA USE32 PUBLIC 'CODE'
_TEXT	ENDS
;	COMDAT ?IsLocked@CStringData@ATL@@QBE_NXZ
_TEXT	SEGMENT PARA USE32 PUBLIC 'CODE'
_TEXT	ENDS
;	COMDAT ??1?$CStringT@DV?$StrTraitMFC@DV?$ChTraitsCRT@D@ATL@@@@@ATL@@QAE@XZ
_TEXT	SEGMENT PARA USE32 PUBLIC 'CODE'
_TEXT	ENDS
;	COMDAT ??1?$CSimpleStringT@D$0A@@ATL@@QAE@XZ
_TEXT	SEGMENT PARA USE32 PUBLIC 'CODE'
_TEXT	ENDS
;	COMDAT ??0?$CStringT@DV?$StrTraitMFC@DV?$ChTraitsCRT@D@ATL@@@@@ATL@@QAE@XZ
_TEXT	SEGMENT PARA USE32 PUBLIC 'CODE'
_TEXT	ENDS
;	COMDAT ??0?$CSimpleStringT@D$0A@@ATL@@QAE@PAUIAtlStringMgr@1@@Z
_TEXT	SEGMENT PARA USE32 PUBLIC 'CODE'
_TEXT	ENDS
;	COMDAT ?GetDefaultManager@?$StrTraitMFC@DV?$ChTraitsCRT@D@ATL@@@@SAPAUIAtlStringMgr@ATL@@XZ
_TEXT	SEGMENT PARA USE32 PUBLIC 'CODE'
_TEXT	ENDS
;	COMDAT ??4?$CStringT@DV?$StrTraitMFC@DV?$ChTraitsCRT@D@ATL@@@@@ATL@@QAEAAV01@PBD@Z
_TEXT	SEGMENT PARA USE32 PUBLIC 'CODE'
_TEXT	ENDS
;	COMDAT ??4?$CSimpleStringT@D$0A@@ATL@@QAEAAV01@PBD@Z
_TEXT	SEGMENT PARA USE32 PUBLIC 'CODE'
_TEXT	ENDS
;	COMDAT ?SetString@?$CSimpleStringT@D$0A@@ATL@@QAEXPBD@Z
_TEXT	SEGMENT PARA USE32 PUBLIC 'CODE'
_TEXT	ENDS
;	COMDAT ?SetString@?$CSimpleStringT@D$0A@@ATL@@QAEXPBDH@Z
_TEXT	SEGMENT PARA USE32 PUBLIC 'CODE'
_TEXT	ENDS
;	COMDAT ?CopyCharsOverlapped@?$CSimpleStringT@D$0A@@ATL@@SAXPADPBDH@Z
_TEXT	SEGMENT PARA USE32 PUBLIC 'CODE'
_TEXT	ENDS
;	COMDAT ?StringLength@?$CSimpleStringT@D$0A@@ATL@@SAHPBD@Z
_TEXT	SEGMENT PARA USE32 PUBLIC 'CODE'
_TEXT	ENDS
;	COMDAT ??B?$CSimpleStringT@D$0A@@ATL@@QBEPBDXZ
_TEXT	SEGMENT PARA USE32 PUBLIC 'CODE'
_TEXT	ENDS
;	COMDAT ??5@YAAAVCAr@@AAV0@AAUD3DXVECTOR3@@@Z
_TEXT	SEGMENT PARA USE32 PUBLIC 'CODE'
_TEXT	ENDS
;	COMDAT ??5CAr@@QAEAAV0@AAM@Z
_TEXT	SEGMENT PARA USE32 PUBLIC 'CODE'
_TEXT	ENDS
;	COMDAT ??5CAr@@QAEAAV0@AAJ@Z
_TEXT	SEGMENT PARA USE32 PUBLIC 'CODE'
_TEXT	ENDS
;	COMDAT ?time_null@@YAJXZ
_TEXT	SEGMENT PARA USE32 PUBLIC 'CODE'
_TEXT	ENDS
;	COMDAT ??6CAr@@QAEAAV0@J@Z
_TEXT	SEGMENT PARA USE32 PUBLIC 'CODE'
_TEXT	ENDS
;	COMDAT ??6@YAAAVCAr@@AAV0@UD3DXVECTOR3@@@Z
_TEXT	SEGMENT PARA USE32 PUBLIC 'CODE'
_TEXT	ENDS
;	COMDAT ??6CAr@@QAEAAV0@M@Z
_TEXT	SEGMENT PARA USE32 PUBLIC 'CODE'
_TEXT	ENDS
;	COMDAT ?GetTime@CTime@ATL@@QBE_JXZ
_TEXT	SEGMENT PARA USE32 PUBLIC 'CODE'
_TEXT	ENDS
;	COMDAT ??0CTimeSpan@ATL@@QAE@JHHH@Z
_TEXT	SEGMENT PARA USE32 PUBLIC 'CODE'
_TEXT	ENDS
;	COMDAT ??HCTime@ATL@@QBE?AV01@VCTimeSpan@1@@Z
_TEXT	SEGMENT PARA USE32 PUBLIC 'CODE'
_TEXT	ENDS
;	COMDAT ??0CTime@ATL@@QAE@_J@Z
_TEXT	SEGMENT PARA USE32 PUBLIC 'CODE'
_TEXT	ENDS
;	COMDAT ?GetTimeSpan@CTimeSpan@ATL@@QBE_JXZ
_TEXT	SEGMENT PARA USE32 PUBLIC 'CODE'
_TEXT	ENDS
;	COMDAT ?GetItemProp@CProject@@QAEPAUItemProp@@H@Z
_TEXT	SEGMENT PARA USE32 PUBLIC 'CODE'
_TEXT	ENDS
;	COMDAT ?GetAt@?$CFixedArray@UItemProp@@@@QAEPAUItemProp@@K@Z
_TEXT	SEGMENT PARA USE32 PUBLIC 'CODE'
_TEXT	ENDS
;	COMDAT ??5CAr@@QAEAAV0@AAH@Z
_TEXT	SEGMENT PARA USE32 PUBLIC 'CODE'
_TEXT	ENDS
;	COMDAT ??6CAr@@QAEAAV0@H@Z
_TEXT	SEGMENT PARA USE32 PUBLIC 'CODE'
_TEXT	ENDS
;	COMDAT ??_7CLordSkillComponentExecutable@@6B@
CONST	SEGMENT DWORD USE32 PUBLIC 'CONST'
CONST	ENDS
;	COMDAT ??_7bad_weak_ptr@boost@@6B@
CONST	SEGMENT DWORD USE32 PUBLIC 'CONST'
CONST	ENDS
;	COMDAT ??_7sp_counted_base@detail@boost@@6B@
CONST	SEGMENT DWORD USE32 PUBLIC 'CONST'
CONST	ENDS
;	COMDAT ??5CAr@@QAEAAV0@AAK@Z
_TEXT	SEGMENT PARA USE32 PUBLIC 'CODE'
_TEXT	ENDS
;	COMDAT ??6CAr@@QAEAAV0@K@Z
_TEXT	SEGMENT PARA USE32 PUBLIC 'CODE'
_TEXT	ENDS
;	COMDAT ?IsStoring@CAr@@QBEHXZ
_TEXT	SEGMENT PARA USE32 PUBLIC 'CODE'
_TEXT	ENDS
;	COMDAT ?Leave@CMclCritSec@@QAEXXZ
_TEXT	SEGMENT PARA USE32 PUBLIC 'CODE'
_TEXT	ENDS
;	COMDAT ?Enter@CMclCritSec@@QAEXXZ
_TEXT	SEGMENT PARA USE32 PUBLIC 'CODE'
_TEXT	ENDS
;	COMDAT ?GetTickCount@CTime@ATL@@SG?AV12@XZ
_TEXT	SEGMENT PARA USE32 PUBLIC 'CODE'
_TEXT	ENDS
;	COMDAT ??0CTime@ATL@@QAE@XZ
_TEXT	SEGMENT PARA USE32 PUBLIC 'CODE'
_TEXT	ENDS
;	COMDAT ??1CMclCritSec@@UAE@XZ
_TEXT	SEGMENT PARA USE32 PUBLIC 'CODE'
_TEXT	ENDS
;	COMDAT ??_7CMclCritSec@@6B@
CONST	SEGMENT DWORD USE32 PUBLIC 'CONST'
CONST	ENDS
;	COMDAT ??_GCMclCritSec@@UAEPAXI@Z
_TEXT	SEGMENT PARA USE32 PUBLIC 'CODE'
_TEXT	ENDS
;	COMDAT ??0CMclCritSec@@QAE@XZ
_TEXT	SEGMENT PARA USE32 PUBLIC 'CODE'
_TEXT	ENDS
;	COMDAT ??0D3DXVECTOR3@@QAE@MMM@Z
_TEXT	SEGMENT PARA USE32 PUBLIC 'CODE'
_TEXT	ENDS
;	COMDAT ??0D3DXVECTOR3@@QAE@XZ
_TEXT	SEGMENT PARA USE32 PUBLIC 'CODE'
_TEXT	ENDS
sxdata	SEGMENT DWORD USE32 'SXDATA'
sxdata	ENDS
FLAT	GROUP _DATA, CONST, _BSS
	ASSUME	CS: FLAT, DS: FLAT, SS: FLAT
endif

INCLUDELIB LIBCMT
INCLUDELIB OLDNAMES

CONST	SEGMENT
_NullStr DB	'$', 00H
CONST	ENDS
PUBLIC	??_H@YGXPAXIHP6EPAX0@Z@Z			; `vector constructor iterator'
; Function compile flags: /Ogty
;	COMDAT ??_H@YGXPAXIHP6EPAX0@Z@Z
_TEXT	SEGMENT
___t$ = 8						; size = 4
___s$ = 12						; size = 4
___n$ = 16						; size = 4
___f$ = 20						; size = 4
??_H@YGXPAXIHP6EPAX0@Z@Z PROC NEAR			; `vector constructor iterator', COMDAT
  00000	8b 44 24 0c	 mov	 eax, DWORD PTR ___n$[esp-4]
  00004	48		 dec	 eax
  00005	78 26		 js	 SHORT $L207947
  00007	53		 push	 ebx
  00008	8b 5c 24 14	 mov	 ebx, DWORD PTR ___f$[esp]
  0000c	55		 push	 ebp
  0000d	8b 6c 24 10	 mov	 ebp, DWORD PTR ___s$[esp+4]
  00011	56		 push	 esi
  00012	8b 74 24 10	 mov	 esi, DWORD PTR ___t$[esp+8]
  00016	57		 push	 edi
  00017	8d 78 01	 lea	 edi, DWORD PTR [eax+1]
  0001a	8d 9b 00 00 00
	00		 npad	 6
$L207946:
  00020	8b ce		 mov	 ecx, esi
  00022	ff d3		 call	 ebx
  00024	03 f5		 add	 esi, ebp
  00026	4f		 dec	 edi
  00027	75 f7		 jne	 SHORT $L207946
  00029	5f		 pop	 edi
  0002a	5e		 pop	 esi
  0002b	5d		 pop	 ebp
  0002c	5b		 pop	 ebx
$L207947:
  0002d	c2 10 00	 ret	 16			; 00000010H
??_H@YGXPAXIHP6EPAX0@Z@Z ENDP				; `vector constructor iterator'
_TEXT	ENDS
PUBLIC	??_C@_0BNB@EKGJLBLA@usp_Master_Update?5?$EAserverindex?$DN?8@ ; `string'
PUBLIC	??_C@_0GI@CCIAPNOB@?2Documents?5and?5Settings?2test?2Mes@ ; `string'
PUBLIC	?SaveHonor@CDbManager@@QAEXPAVCQuery@@KPAHPAD@Z	; CDbManager::SaveHonor
PUBLIC	??_C@_09GBAEEKDE@?$CFs?0?5?$CFd?7?$CFs?$AA@	; `string'
EXTRN	?Exec@CQuery@@QAEHPBD@Z:NEAR			; CQuery::Exec
EXTRN	?WriteLog@@YAXPBDZZ:NEAR			; WriteLog
EXTRN	_sprintf:NEAR
EXTRN	?g_appInfo@@3UAppInfo@@A:QWORD			; g_appInfo
EXTRN	?Instance@CTitleManager@@SAPAV1@XZ:NEAR		; CTitleManager::Instance
EXTRN	?GetIdxType@CTitleManager@@QAEHH@Z:NEAR		; CTitleManager::GetIdxType
;	COMDAT ??_C@_0BNB@EKGJLBLA@usp_Master_Update?5?$EAserverindex?$DN?8@
; File c:\documents and settings\test\mes documents\source\virtuos_v17\build\program\_database\dbmanagersave.cpp
CONST	SEGMENT
??_C@_0BNB@EKGJLBLA@usp_Master_Update?5?$EAserverindex?$DN?8@ DB 'usp_Mas'
	DB	'ter_Update @serverindex=''%02d'',@m_idPlayer=''%07d'',@sec=%d'
	DB	',@c01=%d,@c02=%d,@c03=%d,@c04=%d,@c05=%d,@c06=%d,@c07=%d,@c08'
	DB	'=%d,@c09=%d,@c10=%d,@c11=%d,@c12=%d,@c13=%d,@c14=%d,@c15=%d,@'
	DB	'c16=%d,@c17=%d,@c18=%d,@c19=%d,@c20=%d,@c21=%d,@c22=%d,@c23=%'
	DB	'd,@c24=%d,@c25=%d,@c26=%d,@c27=%d,@c28=%d,@c29=%d,@c30=%d,@c3'
	DB	'1=%d,@c32=%d,@c33=%d,@c34=%d,@c35=%d,@c36=%d,@c37=%d,@c38=%d,'
	DB	'@c39=%d,@c40=%d,@c41=%d,@c42=%d,@c43=%d,@c44=%d,@c45=%d,@c46='
	DB	'%d,@c47=%d,@c48=%d,@c49=%d,@c50=%d', 00H	; `string'
CONST	ENDS
;	COMDAT ??_C@_0GI@CCIAPNOB@?2Documents?5and?5Settings?2test?2Mes@
CONST	SEGMENT
??_C@_0GI@CCIAPNOB@?2Documents?5and?5Settings?2test?2Mes@ DB '\Documents '
	DB	'and Settings\test\Mes documents\Source\Virtuos_v17\Build\Prog'
	DB	'ram\_Database\DbManagerSave.cpp', 00H	; `string'
CONST	ENDS
;	COMDAT ??_C@_09GBAEEKDE@?$CFs?0?5?$CFd?7?$CFs?$AA@
CONST	SEGMENT
??_C@_09GBAEEKDE@?$CFs?0?5?$CFd?7?$CFs?$AA@ DB '%s, %d', 09H, '%s', 00H ; `string'
; Function compile flags: /Ogty
CONST	ENDS
;	COMDAT ?SaveHonor@CDbManager@@QAEXPAVCQuery@@KPAHPAD@Z
_TEXT	SEGMENT
tv722 = -612						; size = 4
tv720 = -608						; size = 4
_nCurrentTitleCount$ = -604				; size = 4
_aHonorItem$ = -600					; size = 200
_aHonorEtc$ = -400					; size = 200
_aHonorMonster$ = -200					; size = 200
_qry$ = 8						; size = 4
_uidPlayer$ = 12					; size = 4
_aHonor$ = 16						; size = 4
_szQuery$ = 20						; size = 4
?SaveHonor@CDbManager@@QAEXPAVCQuery@@KPAHPAD@Z PROC NEAR ; CDbManager::SaveHonor, COMDAT
; _this$ = ecx

; 602  : {

  00000	55		 push	 ebp
  00001	8b ec		 mov	 ebp, esp
  00003	83 e4 f8	 and	 esp, -8			; fffffff8H
  00006	81 ec 64 02 00
	00		 sub	 esp, 612		; 00000264H
  0000c	53		 push	 ebx
  0000d	56		 push	 esi
  0000e	57		 push	 edi

; 603  : 	int	aHonorEtc[50] = {0,};

  0000f	33 f6		 xor	 esi, esi
  00011	33 c0		 xor	 eax, eax
  00013	b9 31 00 00 00	 mov	 ecx, 49			; 00000031H
  00018	8d bc 24 e4 00
	00 00		 lea	 edi, DWORD PTR _aHonorEtc$[esp+628]
  0001f	89 b4 24 e0 00
	00 00		 mov	 DWORD PTR _aHonorEtc$[esp+624], esi
  00026	f3 ab		 rep stosd

; 604  : 	int	aHonorItem[50] = {0,};

  00028	b9 31 00 00 00	 mov	 ecx, 49			; 00000031H
  0002d	8d 7c 24 1c	 lea	 edi, DWORD PTR _aHonorItem$[esp+628]
  00031	89 74 24 18	 mov	 DWORD PTR _aHonorItem$[esp+624], esi
  00035	f3 ab		 rep stosd

; 605  : 	int	aHonorMonster[50] = {0,};

  00037	b9 31 00 00 00	 mov	 ecx, 49			; 00000031H
  0003c	8d bc 24 ac 01
	00 00		 lea	 edi, DWORD PTR _aHonorMonster$[esp+628]
  00043	89 b4 24 a8 01
	00 00		 mov	 DWORD PTR _aHonorMonster$[esp+624], esi
  0004a	f3 ab		 rep stosd

; 606  : 
; 607  :     int nEtc = 0,nItem = 0,nMonster = 0;
; 608  : 	int nType = 0;
; 609  : 	int nCurrentTitleCount =  CTitleManager::Instance()->m_nCurrentTitleCount;

  0004c	e8 00 00 00 00	 call	 ?Instance@CTitleManager@@SAPAV1@XZ ; CTitleManager::Instance
  00051	8b 40 30	 mov	 eax, DWORD PTR [eax+48]

; 610  : 	for(int i=0;i<nCurrentTitleCount;i++)

  00054	3b c6		 cmp	 eax, esi
  00056	89 44 24 14	 mov	 DWORD PTR _nCurrentTitleCount$[esp+624], eax
  0005a	7e 70		 jle	 SHORT $L207967
  0005c	8b 7d 10	 mov	 edi, DWORD PTR _aHonor$[ebp]
  0005f	8d 44 24 18	 lea	 eax, DWORD PTR _aHonorItem$[esp+624]
  00063	8d 8c 24 a8 01
	00 00		 lea	 ecx, DWORD PTR _aHonorMonster$[esp+624]
  0006a	8d 9c 24 e0 00
	00 00		 lea	 ebx, DWORD PTR _aHonorEtc$[esp+624]
  00071	89 44 24 10	 mov	 DWORD PTR tv720[esp+624], eax
  00075	89 4c 24 0c	 mov	 DWORD PTR tv722[esp+624], ecx
  00079	8d a4 24 00 00
	00 00		 npad	 7
$L207965:

; 611  : 	{
; 612  : 		nType = CTitleManager::Instance()->GetIdxType(i);

  00080	56		 push	 esi
  00081	e8 00 00 00 00	 call	 ?Instance@CTitleManager@@SAPAV1@XZ ; CTitleManager::Instance
  00086	8b c8		 mov	 ecx, eax
  00088	e8 00 00 00 00	 call	 ?GetIdxType@CTitleManager@@QAEHH@Z ; CTitleManager::GetIdxType

; 613  : 		if( nType == HI_HUNT_MONSTER)

  0008d	83 f8 04	 cmp	 eax, 4
  00090	75 12		 jne	 SHORT $L207968

; 614  : 		{
; 615  : 			aHonorMonster[nMonster] = aHonor[i];

  00092	8b 44 24 0c	 mov	 eax, DWORD PTR tv722[esp+624]
  00096	8b 14 b7	 mov	 edx, DWORD PTR [edi+esi*4]
  00099	89 10		 mov	 DWORD PTR [eax], edx

; 616  : 			nMonster++;

  0009b	83 c0 04	 add	 eax, 4
  0009e	89 44 24 0c	 mov	 DWORD PTR tv722[esp+624], eax

; 617  : 		}
; 618  : 		else if( nType == HI_USE_ITEM)

  000a2	eb 1f		 jmp	 SHORT $L207966
$L207968:
  000a4	83 f8 05	 cmp	 eax, 5
  000a7	75 12		 jne	 SHORT $L207970

; 619  : 		{
; 620  : 			aHonorItem[nItem] = aHonor[i];

  000a9	8b 44 24 10	 mov	 eax, DWORD PTR tv720[esp+624]
  000ad	8b 0c b7	 mov	 ecx, DWORD PTR [edi+esi*4]
  000b0	89 08		 mov	 DWORD PTR [eax], ecx

; 621  : 			nItem++;

  000b2	83 c0 04	 add	 eax, 4
  000b5	89 44 24 10	 mov	 DWORD PTR tv720[esp+624], eax

; 622  : 		}
; 623  : 		else

  000b9	eb 08		 jmp	 SHORT $L207966
$L207970:

; 624  : 		{
; 625  : 			aHonorEtc[nEtc] = aHonor[i];

  000bb	8b 14 b7	 mov	 edx, DWORD PTR [edi+esi*4]
  000be	89 13		 mov	 DWORD PTR [ebx], edx

; 626  : 			nEtc++;

  000c0	83 c3 04	 add	 ebx, 4
$L207966:
  000c3	8b 44 24 14	 mov	 eax, DWORD PTR _nCurrentTitleCount$[esp+624]
  000c7	46		 inc	 esi
  000c8	3b f0		 cmp	 esi, eax
  000ca	7c b4		 jl	 SHORT $L207965
$L207967:

; 627  : 		}
; 628  : 	}
; 629  : 
; 630  : 	sprintf( szQuery,
; 631  : 		"usp_Master_Update @serverindex='%02d',@m_idPlayer='%07d',@sec=%d,@c01=%d,@c02=%d,@c03=%d,@c04=%d,@c05=%d,@c06=%d,@c07=%d,@c08=%d,@c09=%d,@c10=%d,@c11=%d,@c12=%d,@c13=%d,@c14=%d,@c15=%d,@c16=%d,@c17=%d,@c18=%d,@c19=%d,@c20=%d,@c21=%d,@c22=%d,@c23=%d,@c24=%d,@c25=%d,@c26=%d,@c27=%d,@c28=%d,@c29=%d,@c30=%d,@c31=%d,@c32=%d,@c33=%d,@c34=%d,@c35=%d,@c36=%d,@c37=%d,@c38=%d,@c39=%d,@c40=%d,@c41=%d,@c42=%d,@c43=%d,@c44=%d,@c45=%d,@c46=%d,@c47=%d,@c48=%d,@c49=%d,@c50=%d",
; 632  : 		g_appInfo.dwSys, uidPlayer, 1,
; 633  : 		aHonorEtc[0],aHonorEtc[1],aHonorEtc[2],aHonorEtc[3],aHonorEtc[4],aHonorEtc[5],aHonorEtc[6],aHonorEtc[7],aHonorEtc[8],aHonorEtc[9],
; 634  : 		aHonorEtc[10],aHonorEtc[11],aHonorEtc[12],aHonorEtc[13],aHonorEtc[14],aHonorEtc[15],aHonorEtc[16],aHonorEtc[17],aHonorEtc[18],aHonorEtc[19],
; 635  : 		aHonorEtc[20],aHonorEtc[21],aHonorEtc[22],aHonorEtc[23],aHonorEtc[24],aHonorEtc[25],aHonorEtc[26],aHonorEtc[27],aHonorEtc[28],aHonorEtc[29],
; 636  : 		aHonorEtc[30],aHonorEtc[31],aHonorEtc[32],aHonorEtc[33],aHonorEtc[34],aHonorEtc[35],aHonorEtc[36],aHonorEtc[37],aHonorEtc[38],aHonorEtc[39],
; 637  : 		aHonorEtc[40],aHonorEtc[41],aHonorEtc[42],aHonorEtc[43],aHonorEtc[44],aHonorEtc[45],aHonorEtc[46],aHonorEtc[47],aHonorEtc[48],aHonorEtc[49]	); 

  000cc	8b 84 24 a4 01
	00 00		 mov	 eax, DWORD PTR _aHonorEtc$[esp+820]
  000d3	50		 push	 eax
  000d4	8b 8c 24 a4 01
	00 00		 mov	 ecx, DWORD PTR _aHonorEtc$[esp+820]
  000db	51		 push	 ecx
  000dc	8b 94 24 a4 01
	00 00		 mov	 edx, DWORD PTR _aHonorEtc$[esp+820]
  000e3	52		 push	 edx
  000e4	8b 84 24 a4 01
	00 00		 mov	 eax, DWORD PTR _aHonorEtc$[esp+820]
  000eb	50		 push	 eax
  000ec	8b 8c 24 a4 01
	00 00		 mov	 ecx, DWORD PTR _aHonorEtc$[esp+820]
  000f3	51		 push	 ecx
  000f4	8b 94 24 a4 01
	00 00		 mov	 edx, DWORD PTR _aHonorEtc$[esp+820]
  000fb	52		 push	 edx
  000fc	8b 84 24 a4 01
	00 00		 mov	 eax, DWORD PTR _aHonorEtc$[esp+820]
  00103	50		 push	 eax
  00104	8b 8c 24 a4 01
	00 00		 mov	 ecx, DWORD PTR _aHonorEtc$[esp+820]
  0010b	51		 push	 ecx
  0010c	8b 94 24 a4 01
	00 00		 mov	 edx, DWORD PTR _aHonorEtc$[esp+820]
  00113	52		 push	 edx
  00114	8b 84 24 a4 01
	00 00		 mov	 eax, DWORD PTR _aHonorEtc$[esp+820]
  0011b	50		 push	 eax
  0011c	8b 8c 24 a4 01
	00 00		 mov	 ecx, DWORD PTR _aHonorEtc$[esp+820]
  00123	51		 push	 ecx
  00124	8b 94 24 a4 01
	00 00		 mov	 edx, DWORD PTR _aHonorEtc$[esp+820]
  0012b	52		 push	 edx
  0012c	8b 84 24 a4 01
	00 00		 mov	 eax, DWORD PTR _aHonorEtc$[esp+820]
  00133	50		 push	 eax
  00134	8b 8c 24 a4 01
	00 00		 mov	 ecx, DWORD PTR _aHonorEtc$[esp+820]
  0013b	51		 push	 ecx
  0013c	8b 94 24 a4 01
	00 00		 mov	 edx, DWORD PTR _aHonorEtc$[esp+820]
  00143	8b 84 24 a0 01
	00 00		 mov	 eax, DWORD PTR _aHonorEtc$[esp+816]
  0014a	52		 push	 edx
  0014b	8b 8c 24 a0 01
	00 00		 mov	 ecx, DWORD PTR _aHonorEtc$[esp+816]
  00152	50		 push	 eax
  00153	8b 94 24 a0 01
	00 00		 mov	 edx, DWORD PTR _aHonorEtc$[esp+816]
  0015a	8b 84 24 9c 01
	00 00		 mov	 eax, DWORD PTR _aHonorEtc$[esp+812]
  00161	51		 push	 ecx
  00162	8b 8c 24 9c 01
	00 00		 mov	 ecx, DWORD PTR _aHonorEtc$[esp+812]
  00169	52		 push	 edx
  0016a	8b 94 24 9c 01
	00 00		 mov	 edx, DWORD PTR _aHonorEtc$[esp+812]
  00171	50		 push	 eax
  00172	8b 84 24 9c 01
	00 00		 mov	 eax, DWORD PTR _aHonorEtc$[esp+812]
  00179	51		 push	 ecx
  0017a	8b 8c 24 9c 01
	00 00		 mov	 ecx, DWORD PTR _aHonorEtc$[esp+812]
  00181	52		 push	 edx
  00182	8b 94 24 9c 01
	00 00		 mov	 edx, DWORD PTR _aHonorEtc$[esp+812]
  00189	50		 push	 eax
  0018a	8b 84 24 9c 01
	00 00		 mov	 eax, DWORD PTR _aHonorEtc$[esp+812]
  00191	51		 push	 ecx
  00192	8b 8c 24 9c 01
	00 00		 mov	 ecx, DWORD PTR _aHonorEtc$[esp+812]
  00199	52		 push	 edx
  0019a	8b 94 24 9c 01
	00 00		 mov	 edx, DWORD PTR _aHonorEtc$[esp+812]
  001a1	50		 push	 eax
  001a2	8b 84 24 9c 01
	00 00		 mov	 eax, DWORD PTR _aHonorEtc$[esp+812]
  001a9	51		 push	 ecx
  001aa	8b 8c 24 9c 01
	00 00		 mov	 ecx, DWORD PTR _aHonorEtc$[esp+812]
  001b1	52		 push	 edx
  001b2	8b 94 24 9c 01
	00 00		 mov	 edx, DWORD PTR _aHonorEtc$[esp+812]
  001b9	50		 push	 eax
  001ba	8b 84 24 9c 01
	00 00		 mov	 eax, DWORD PTR _aHonorEtc$[esp+812]
  001c1	51		 push	 ecx
  001c2	8b 8c 24 9c 01
	00 00		 mov	 ecx, DWORD PTR _aHonorEtc$[esp+812]
  001c9	52		 push	 edx
  001ca	8b 94 24 9c 01
	00 00		 mov	 edx, DWORD PTR _aHonorEtc$[esp+812]
  001d1	50		 push	 eax
  001d2	8b 84 24 9c 01
	00 00		 mov	 eax, DWORD PTR _aHonorEtc$[esp+812]
  001d9	51		 push	 ecx
  001da	8b 8c 24 9c 01
	00 00		 mov	 ecx, DWORD PTR _aHonorEtc$[esp+812]
  001e1	52		 push	 edx
  001e2	8b 94 24 9c 01
	00 00		 mov	 edx, DWORD PTR _aHonorEtc$[esp+812]
  001e9	50		 push	 eax
  001ea	8b 84 24 9c 01
	00 00		 mov	 eax, DWORD PTR _aHonorEtc$[esp+812]
  001f1	51		 push	 ecx
  001f2	8b 8c 24 9c 01
	00 00		 mov	 ecx, DWORD PTR _aHonorEtc$[esp+812]
  001f9	52		 push	 edx
  001fa	8b 94 24 9c 01
	00 00		 mov	 edx, DWORD PTR _aHonorEtc$[esp+812]
  00201	50		 push	 eax
  00202	8b 84 24 9c 01
	00 00		 mov	 eax, DWORD PTR _aHonorEtc$[esp+812]
  00209	51		 push	 ecx
  0020a	8b 8c 24 9c 01
	00 00		 mov	 ecx, DWORD PTR _aHonorEtc$[esp+812]
  00211	52		 push	 edx
  00212	50		 push	 eax
  00213	8b 94 24 a0 01
	00 00		 mov	 edx, DWORD PTR _aHonorEtc$[esp+816]
  0021a	8b 84 24 9c 01
	00 00		 mov	 eax, DWORD PTR _aHonorEtc$[esp+812]
  00221	51		 push	 ecx
  00222	8b 8c 24 9c 01
	00 00		 mov	 ecx, DWORD PTR _aHonorEtc$[esp+812]
  00229	52		 push	 edx
  0022a	8b 94 24 9c 01
	00 00		 mov	 edx, DWORD PTR _aHonorEtc$[esp+812]
  00231	8b 7d 0c	 mov	 edi, DWORD PTR _uidPlayer$[ebp]
  00234	50		 push	 eax
  00235	8b 84 24 9c 01
	00 00		 mov	 eax, DWORD PTR _aHonorEtc$[esp+812]
  0023c	51		 push	 ecx
  0023d	8b 8c 24 9c 01
	00 00		 mov	 ecx, DWORD PTR _aHonorEtc$[esp+812]
  00244	8b 75 14	 mov	 esi, DWORD PTR _szQuery$[ebp]
  00247	52		 push	 edx
  00248	8b 94 24 9c 01
	00 00		 mov	 edx, DWORD PTR _aHonorEtc$[esp+812]
  0024f	50		 push	 eax
  00250	8b 84 24 9c 01
	00 00		 mov	 eax, DWORD PTR _aHonorEtc$[esp+812]
  00257	51		 push	 ecx
  00258	8b 8c 24 9c 01
	00 00		 mov	 ecx, DWORD PTR _aHonorEtc$[esp+812]
  0025f	52		 push	 edx
  00260	8b 15 00 00 00
	00		 mov	 edx, DWORD PTR ?g_appInfo@@3UAppInfo@@A
  00266	50		 push	 eax
  00267	51		 push	 ecx
  00268	6a 01		 push	 1
  0026a	57		 push	 edi
  0026b	52		 push	 edx
  0026c	68 00 00 00 00	 push	 OFFSET FLAT:??_C@_0BNB@EKGJLBLA@usp_Master_Update?5?$EAserverindex?$DN?8@
  00271	56		 push	 esi
  00272	e8 00 00 00 00	 call	 _sprintf

; 638  : 
; 639  : 	if( FALSE == qry->Exec( szQuery ) )

  00277	8b 5d 08	 mov	 ebx, DWORD PTR _qry$[ebp]
  0027a	81 c4 dc 00 00
	00		 add	 esp, 220		; 000000dcH
  00280	56		 push	 esi
  00281	8b cb		 mov	 ecx, ebx
  00283	e8 00 00 00 00	 call	 ?Exec@CQuery@@QAEHPBD@Z	; CQuery::Exec
  00288	85 c0		 test	 eax, eax
  0028a	75 0b		 jne	 SHORT $L207973

; 640  : 	{
; 641  : 		WriteLog( "%s, %d\t%s", __FILE__, __LINE__, szQuery );

  0028c	56		 push	 esi
  0028d	68 81 02 00 00	 push	 641			; 00000281H

; 642  : 		return;

  00292	e9 7f 03 00 00	 jmp	 $L209643
$L207973:

; 643  : 	}
; 644  : 
; 645  : 	sprintf( szQuery,
; 646  : 		"usp_Master_Update @serverindex='%02d',@m_idPlayer='%07d',@sec=%d,@c01=%d,@c02=%d,@c03=%d,@c04=%d,@c05=%d,@c06=%d,@c07=%d,@c08=%d,@c09=%d,@c10=%d,@c11=%d,@c12=%d,@c13=%d,@c14=%d,@c15=%d,@c16=%d,@c17=%d,@c18=%d,@c19=%d,@c20=%d,@c21=%d,@c22=%d,@c23=%d,@c24=%d,@c25=%d,@c26=%d,@c27=%d,@c28=%d,@c29=%d,@c30=%d,@c31=%d,@c32=%d,@c33=%d,@c34=%d,@c35=%d,@c36=%d,@c37=%d,@c38=%d,@c39=%d,@c40=%d,@c41=%d,@c42=%d,@c43=%d,@c44=%d,@c45=%d,@c46=%d,@c47=%d,@c48=%d,@c49=%d,@c50=%d",
; 647  : 		g_appInfo.dwSys, uidPlayer, 2,
; 648  : 		aHonorItem[0],aHonorItem[1],aHonorItem[2],aHonorItem[3],aHonorItem[4],aHonorItem[5],aHonorItem[6],aHonorItem[7],aHonorItem[8],aHonorItem[9],
; 649  : 		aHonorItem[10],aHonorItem[11],aHonorItem[12],aHonorItem[13],aHonorItem[14],aHonorItem[15],aHonorItem[16],aHonorItem[17],aHonorItem[18],aHonorItem[19],
; 650  : 		aHonorItem[20],aHonorItem[21],aHonorItem[22],aHonorItem[23],aHonorItem[24],aHonorItem[25],aHonorItem[26],aHonorItem[27],aHonorItem[28],aHonorItem[29],
; 651  : 		aHonorItem[30],aHonorItem[31],aHonorItem[32],aHonorItem[33],aHonorItem[34],aHonorItem[35],aHonorItem[36],aHonorItem[37],aHonorItem[38],aHonorItem[39],
; 652  : 		aHonorItem[40],aHonorItem[41],aHonorItem[42],aHonorItem[43],aHonorItem[44],aHonorItem[45],aHonorItem[46],aHonorItem[47],aHonorItem[48],aHonorItem[49]	); 

  00297	8b 84 24 dc 00
	00 00		 mov	 eax, DWORD PTR _aHonorItem$[esp+820]
  0029e	50		 push	 eax
  0029f	8b 8c 24 dc 00
	00 00		 mov	 ecx, DWORD PTR _aHonorItem$[esp+820]
  002a6	51		 push	 ecx
  002a7	8b 94 24 dc 00
	00 00		 mov	 edx, DWORD PTR _aHonorItem$[esp+820]
  002ae	52		 push	 edx
  002af	8b 84 24 dc 00
	00 00		 mov	 eax, DWORD PTR _aHonorItem$[esp+820]
  002b6	50		 push	 eax
  002b7	8b 8c 24 dc 00
	00 00		 mov	 ecx, DWORD PTR _aHonorItem$[esp+820]
  002be	51		 push	 ecx
  002bf	8b 94 24 dc 00
	00 00		 mov	 edx, DWORD PTR _aHonorItem$[esp+820]
  002c6	52		 push	 edx
  002c7	8b 84 24 dc 00
	00 00		 mov	 eax, DWORD PTR _aHonorItem$[esp+820]
  002ce	50		 push	 eax
  002cf	8b 8c 24 dc 00
	00 00		 mov	 ecx, DWORD PTR _aHonorItem$[esp+820]
  002d6	51		 push	 ecx
  002d7	8b 94 24 dc 00
	00 00		 mov	 edx, DWORD PTR _aHonorItem$[esp+820]
  002de	52		 push	 edx
  002df	8b 84 24 dc 00
	00 00		 mov	 eax, DWORD PTR _aHonorItem$[esp+820]
  002e6	50		 push	 eax
  002e7	8b 8c 24 dc 00
	00 00		 mov	 ecx, DWORD PTR _aHonorItem$[esp+820]
  002ee	51		 push	 ecx
  002ef	8b 94 24 dc 00
	00 00		 mov	 edx, DWORD PTR _aHonorItem$[esp+820]
  002f6	52		 push	 edx
  002f7	8b 84 24 dc 00
	00 00		 mov	 eax, DWORD PTR _aHonorItem$[esp+820]
  002fe	50		 push	 eax
  002ff	8b 8c 24 dc 00
	00 00		 mov	 ecx, DWORD PTR _aHonorItem$[esp+820]
  00306	51		 push	 ecx
  00307	8b 94 24 dc 00
	00 00		 mov	 edx, DWORD PTR _aHonorItem$[esp+820]
  0030e	8b 84 24 d8 00
	00 00		 mov	 eax, DWORD PTR _aHonorItem$[esp+816]
  00315	52		 push	 edx
  00316	8b 8c 24 d8 00
	00 00		 mov	 ecx, DWORD PTR _aHonorItem$[esp+816]
  0031d	50		 push	 eax
  0031e	8b 94 24 d8 00
	00 00		 mov	 edx, DWORD PTR _aHonorItem$[esp+816]
  00325	8b 84 24 d4 00
	00 00		 mov	 eax, DWORD PTR _aHonorItem$[esp+812]
  0032c	51		 push	 ecx
  0032d	8b 8c 24 d4 00
	00 00		 mov	 ecx, DWORD PTR _aHonorItem$[esp+812]
  00334	52		 push	 edx
  00335	8b 94 24 d4 00
	00 00		 mov	 edx, DWORD PTR _aHonorItem$[esp+812]
  0033c	50		 push	 eax
  0033d	8b 84 24 d4 00
	00 00		 mov	 eax, DWORD PTR _aHonorItem$[esp+812]
  00344	51		 push	 ecx
  00345	8b 8c 24 d4 00
	00 00		 mov	 ecx, DWORD PTR _aHonorItem$[esp+812]
  0034c	52		 push	 edx
  0034d	8b 94 24 d4 00
	00 00		 mov	 edx, DWORD PTR _aHonorItem$[esp+812]
  00354	50		 push	 eax
  00355	8b 84 24 d4 00
	00 00		 mov	 eax, DWORD PTR _aHonorItem$[esp+812]
  0035c	51		 push	 ecx
  0035d	8b 8c 24 d4 00
	00 00		 mov	 ecx, DWORD PTR _aHonorItem$[esp+812]
  00364	52		 push	 edx
  00365	8b 94 24 d4 00
	00 00		 mov	 edx, DWORD PTR _aHonorItem$[esp+812]
  0036c	50		 push	 eax
  0036d	8b 84 24 d4 00
	00 00		 mov	 eax, DWORD PTR _aHonorItem$[esp+812]
  00374	51		 push	 ecx
  00375	8b 8c 24 d4 00
	00 00		 mov	 ecx, DWORD PTR _aHonorItem$[esp+812]
  0037c	52		 push	 edx
  0037d	8b 94 24 d4 00
	00 00		 mov	 edx, DWORD PTR _aHonorItem$[esp+812]
  00384	50		 push	 eax
  00385	8b 84 24 d4 00
	00 00		 mov	 eax, DWORD PTR _aHonorItem$[esp+812]
  0038c	51		 push	 ecx
  0038d	8b 8c 24 d4 00
	00 00		 mov	 ecx, DWORD PTR _aHonorItem$[esp+812]
  00394	52		 push	 edx
  00395	8b 94 24 d4 00
	00 00		 mov	 edx, DWORD PTR _aHonorItem$[esp+812]
  0039c	50		 push	 eax
  0039d	8b 84 24 d4 00
	00 00		 mov	 eax, DWORD PTR _aHonorItem$[esp+812]
  003a4	51		 push	 ecx
  003a5	8b 8c 24 d4 00
	00 00		 mov	 ecx, DWORD PTR _aHonorItem$[esp+812]
  003ac	52		 push	 edx
  003ad	8b 94 24 d4 00
	00 00		 mov	 edx, DWORD PTR _aHonorItem$[esp+812]
  003b4	50		 push	 eax
  003b5	8b 84 24 d4 00
	00 00		 mov	 eax, DWORD PTR _aHonorItem$[esp+812]
  003bc	51		 push	 ecx
  003bd	8b 8c 24 d4 00
	00 00		 mov	 ecx, DWORD PTR _aHonorItem$[esp+812]
  003c4	52		 push	 edx
  003c5	8b 94 24 d4 00
	00 00		 mov	 edx, DWORD PTR _aHonorItem$[esp+812]
  003cc	50		 push	 eax
  003cd	8b 84 24 d4 00
	00 00		 mov	 eax, DWORD PTR _aHonorItem$[esp+812]
  003d4	51		 push	 ecx
  003d5	8b 8c 24 d4 00
	00 00		 mov	 ecx, DWORD PTR _aHonorItem$[esp+812]
  003dc	52		 push	 edx
  003dd	50		 push	 eax
  003de	8b 94 24 d8 00
	00 00		 mov	 edx, DWORD PTR _aHonorItem$[esp+816]
  003e5	8b 84 24 d4 00
	00 00		 mov	 eax, DWORD PTR _aHonorItem$[esp+812]
  003ec	51		 push	 ecx
  003ed	8b 8c 24 d4 00
	00 00		 mov	 ecx, DWORD PTR _aHonorItem$[esp+812]
  003f4	52		 push	 edx
  003f5	8b 94 24 d4 00
	00 00		 mov	 edx, DWORD PTR _aHonorItem$[esp+812]
  003fc	50		 push	 eax
  003fd	8b 84 24 d4 00
	00 00		 mov	 eax, DWORD PTR _aHonorItem$[esp+812]
  00404	51		 push	 ecx
  00405	8b 8c 24 d4 00
	00 00		 mov	 ecx, DWORD PTR _aHonorItem$[esp+812]
  0040c	52		 push	 edx
  0040d	8b 94 24 d4 00
	00 00		 mov	 edx, DWORD PTR _aHonorItem$[esp+812]
  00414	50		 push	 eax
  00415	8b 84 24 d4 00
	00 00		 mov	 eax, DWORD PTR _aHonorItem$[esp+812]
  0041c	51		 push	 ecx
  0041d	8b 8c 24 d4 00
	00 00		 mov	 ecx, DWORD PTR _aHonorItem$[esp+812]
  00424	52		 push	 edx
  00425	8b 15 00 00 00
	00		 mov	 edx, DWORD PTR ?g_appInfo@@3UAppInfo@@A
  0042b	50		 push	 eax
  0042c	51		 push	 ecx
  0042d	6a 02		 push	 2
  0042f	57		 push	 edi
  00430	52		 push	 edx
  00431	68 00 00 00 00	 push	 OFFSET FLAT:??_C@_0BNB@EKGJLBLA@usp_Master_Update?5?$EAserverindex?$DN?8@
  00436	56		 push	 esi
  00437	e8 00 00 00 00	 call	 _sprintf
  0043c	81 c4 dc 00 00
	00		 add	 esp, 220		; 000000dcH

; 653  : 
; 654  : 	if( FALSE == qry->Exec( szQuery ) )

  00442	56		 push	 esi
  00443	8b cb		 mov	 ecx, ebx
  00445	e8 00 00 00 00	 call	 ?Exec@CQuery@@QAEHPBD@Z	; CQuery::Exec
  0044a	85 c0		 test	 eax, eax
  0044c	75 0b		 jne	 SHORT $L207975

; 655  : 	{
; 656  : 		WriteLog( "%s, %d\t%s", __FILE__, __LINE__, szQuery );

  0044e	56		 push	 esi
  0044f	68 90 02 00 00	 push	 656			; 00000290H

; 657  : 		return;

  00454	e9 bd 01 00 00	 jmp	 $L209643
$L207975:

; 658  : 	}
; 659  : 
; 660  : 	sprintf( szQuery,
; 661  : 		"usp_Master_Update @serverindex='%02d',@m_idPlayer='%07d',@sec=%d,@c01=%d,@c02=%d,@c03=%d,@c04=%d,@c05=%d,@c06=%d,@c07=%d,@c08=%d,@c09=%d,@c10=%d,@c11=%d,@c12=%d,@c13=%d,@c14=%d,@c15=%d,@c16=%d,@c17=%d,@c18=%d,@c19=%d,@c20=%d,@c21=%d,@c22=%d,@c23=%d,@c24=%d,@c25=%d,@c26=%d,@c27=%d,@c28=%d,@c29=%d,@c30=%d,@c31=%d,@c32=%d,@c33=%d,@c34=%d,@c35=%d,@c36=%d,@c37=%d,@c38=%d,@c39=%d,@c40=%d,@c41=%d,@c42=%d,@c43=%d,@c44=%d,@c45=%d,@c46=%d,@c47=%d,@c48=%d,@c49=%d,@c50=%d",
; 662  : 		g_appInfo.dwSys, uidPlayer, 3,
; 663  : 		aHonorMonster[0],aHonorMonster[1],aHonorMonster[2],aHonorMonster[3],aHonorMonster[4],aHonorMonster[5],aHonorMonster[6],aHonorMonster[7],aHonorMonster[8],aHonorMonster[9],
; 664  : 		aHonorMonster[10],aHonorMonster[11],aHonorMonster[12],aHonorMonster[13],aHonorMonster[14],aHonorMonster[15],aHonorMonster[16],aHonorMonster[17],aHonorMonster[18],aHonorMonster[19],
; 665  : 		aHonorMonster[20],aHonorMonster[21],aHonorMonster[22],aHonorMonster[23],aHonorMonster[24],aHonorMonster[25],aHonorMonster[26],aHonorMonster[27],aHonorMonster[28],aHonorMonster[29],
; 666  : 		aHonorMonster[30],aHonorMonster[31],aHonorMonster[32],aHonorMonster[33],aHonorMonster[34],aHonorMonster[35],aHonorMonster[36],aHonorMonster[37],aHonorMonster[38],aHonorMonster[39],
; 667  : 		aHonorMonster[40],aHonorMonster[41],aHonorMonster[42],aHonorMonster[43],aHonorMonster[44],aHonorMonster[45],aHonorMonster[46],aHonorMonster[47],aHonorMonster[48],aHonorMonster[49]	); 

  00459	8b 84 24 6c 02
	00 00		 mov	 eax, DWORD PTR _aHonorMonster$[esp+820]
  00460	50		 push	 eax
  00461	8b 8c 24 6c 02
	00 00		 mov	 ecx, DWORD PTR _aHonorMonster$[esp+820]
  00468	51		 push	 ecx
  00469	8b 94 24 6c 02
	00 00		 mov	 edx, DWORD PTR _aHonorMonster$[esp+820]
  00470	52		 push	 edx
  00471	8b 84 24 6c 02
	00 00		 mov	 eax, DWORD PTR _aHonorMonster$[esp+820]
  00478	50		 push	 eax
  00479	8b 8c 24 6c 02
	00 00		 mov	 ecx, DWORD PTR _aHonorMonster$[esp+820]
  00480	51		 push	 ecx
  00481	8b 94 24 6c 02
	00 00		 mov	 edx, DWORD PTR _aHonorMonster$[esp+820]
  00488	52		 push	 edx
  00489	8b 84 24 6c 02
	00 00		 mov	 eax, DWORD PTR _aHonorMonster$[esp+820]
  00490	50		 push	 eax
  00491	8b 8c 24 6c 02
	00 00		 mov	 ecx, DWORD PTR _aHonorMonster$[esp+820]
  00498	51		 push	 ecx
  00499	8b 94 24 6c 02
	00 00		 mov	 edx, DWORD PTR _aHonorMonster$[esp+820]
  004a0	52		 push	 edx
  004a1	8b 84 24 6c 02
	00 00		 mov	 eax, DWORD PTR _aHonorMonster$[esp+820]
  004a8	50		 push	 eax
  004a9	8b 8c 24 6c 02
	00 00		 mov	 ecx, DWORD PTR _aHonorMonster$[esp+820]
  004b0	51		 push	 ecx
  004b1	8b 94 24 6c 02
	00 00		 mov	 edx, DWORD PTR _aHonorMonster$[esp+820]
  004b8	52		 push	 edx
  004b9	8b 84 24 6c 02
	00 00		 mov	 eax, DWORD PTR _aHonorMonster$[esp+820]
  004c0	50		 push	 eax
  004c1	8b 8c 24 6c 02
	00 00		 mov	 ecx, DWORD PTR _aHonorMonster$[esp+820]
  004c8	51		 push	 ecx
  004c9	8b 94 24 6c 02
	00 00		 mov	 edx, DWORD PTR _aHonorMonster$[esp+820]
  004d0	8b 84 24 68 02
	00 00		 mov	 eax, DWORD PTR _aHonorMonster$[esp+816]
  004d7	52		 push	 edx
  004d8	8b 8c 24 68 02
	00 00		 mov	 ecx, DWORD PTR _aHonorMonster$[esp+816]
  004df	50		 push	 eax
  004e0	8b 94 24 68 02
	00 00		 mov	 edx, DWORD PTR _aHonorMonster$[esp+816]
  004e7	8b 84 24 64 02
	00 00		 mov	 eax, DWORD PTR _aHonorMonster$[esp+812]
  004ee	51		 push	 ecx
  004ef	8b 8c 24 64 02
	00 00		 mov	 ecx, DWORD PTR _aHonorMonster$[esp+812]
  004f6	52		 push	 edx
  004f7	8b 94 24 64 02
	00 00		 mov	 edx, DWORD PTR _aHonorMonster$[esp+812]
  004fe	50		 push	 eax
  004ff	8b 84 24 64 02
	00 00		 mov	 eax, DWORD PTR _aHonorMonster$[esp+812]
  00506	51		 push	 ecx
  00507	8b 8c 24 64 02
	00 00		 mov	 ecx, DWORD PTR _aHonorMonster$[esp+812]
  0050e	52		 push	 edx
  0050f	8b 94 24 64 02
	00 00		 mov	 edx, DWORD PTR _aHonorMonster$[esp+812]
  00516	50		 push	 eax
  00517	8b 84 24 64 02
	00 00		 mov	 eax, DWORD PTR _aHonorMonster$[esp+812]
  0051e	51		 push	 ecx
  0051f	8b 8c 24 64 02
	00 00		 mov	 ecx, DWORD PTR _aHonorMonster$[esp+812]
  00526	52		 push	 edx
  00527	8b 94 24 64 02
	00 00		 mov	 edx, DWORD PTR _aHonorMonster$[esp+812]
  0052e	50		 push	 eax
  0052f	8b 84 24 64 02
	00 00		 mov	 eax, DWORD PTR _aHonorMonster$[esp+812]
  00536	51		 push	 ecx
  00537	8b 8c 24 64 02
	00 00		 mov	 ecx, DWORD PTR _aHonorMonster$[esp+812]
  0053e	52		 push	 edx
  0053f	8b 94 24 64 02
	00 00		 mov	 edx, DWORD PTR _aHonorMonster$[esp+812]
  00546	50		 push	 eax
  00547	8b 84 24 64 02
	00 00		 mov	 eax, DWORD PTR _aHonorMonster$[esp+812]
  0054e	51		 push	 ecx
  0054f	8b 8c 24 64 02
	00 00		 mov	 ecx, DWORD PTR _aHonorMonster$[esp+812]
  00556	52		 push	 edx
  00557	8b 94 24 64 02
	00 00		 mov	 edx, DWORD PTR _aHonorMonster$[esp+812]
  0055e	50		 push	 eax
  0055f	8b 84 24 64 02
	00 00		 mov	 eax, DWORD PTR _aHonorMonster$[esp+812]
  00566	51		 push	 ecx
  00567	8b 8c 24 64 02
	00 00		 mov	 ecx, DWORD PTR _aHonorMonster$[esp+812]
  0056e	52		 push	 edx
  0056f	8b 94 24 64 02
	00 00		 mov	 edx, DWORD PTR _aHonorMonster$[esp+812]
  00576	50		 push	 eax
  00577	8b 84 24 64 02
	00 00		 mov	 eax, DWORD PTR _aHonorMonster$[esp+812]
  0057e	51		 push	 ecx
  0057f	8b 8c 24 64 02
	00 00		 mov	 ecx, DWORD PTR _aHonorMonster$[esp+812]
  00586	52		 push	 edx
  00587	8b 94 24 64 02
	00 00		 mov	 edx, DWORD PTR _aHonorMonster$[esp+812]
  0058e	50		 push	 eax
  0058f	8b 84 24 64 02
	00 00		 mov	 eax, DWORD PTR _aHonorMonster$[esp+812]
  00596	51		 push	 ecx
  00597	8b 8c 24 64 02
	00 00		 mov	 ecx, DWORD PTR _aHonorMonster$[esp+812]
  0059e	52		 push	 edx
  0059f	50		 push	 eax
  005a0	8b 94 24 68 02
	00 00		 mov	 edx, DWORD PTR _aHonorMonster$[esp+816]
  005a7	8b 84 24 64 02
	00 00		 mov	 eax, DWORD PTR _aHonorMonster$[esp+812]
  005ae	51		 push	 ecx
  005af	8b 8c 24 64 02
	00 00		 mov	 ecx, DWORD PTR _aHonorMonster$[esp+812]
  005b6	52		 push	 edx
  005b7	8b 94 24 64 02
	00 00		 mov	 edx, DWORD PTR _aHonorMonster$[esp+812]
  005be	50		 push	 eax
  005bf	8b 84 24 64 02
	00 00		 mov	 eax, DWORD PTR _aHonorMonster$[esp+812]
  005c6	51		 push	 ecx
  005c7	8b 8c 24 64 02
	00 00		 mov	 ecx, DWORD PTR _aHonorMonster$[esp+812]
  005ce	52		 push	 edx
  005cf	8b 94 24 64 02
	00 00		 mov	 edx, DWORD PTR _aHonorMonster$[esp+812]
  005d6	50		 push	 eax
  005d7	8b 84 24 64 02
	00 00		 mov	 eax, DWORD PTR _aHonorMonster$[esp+812]
  005de	51		 push	 ecx
  005df	8b 8c 24 64 02
	00 00		 mov	 ecx, DWORD PTR _aHonorMonster$[esp+812]
  005e6	52		 push	 edx
  005e7	8b 15 00 00 00
	00		 mov	 edx, DWORD PTR ?g_appInfo@@3UAppInfo@@A
  005ed	50		 push	 eax
  005ee	51		 push	 ecx
  005ef	6a 03		 push	 3
  005f1	57		 push	 edi
  005f2	52		 push	 edx
  005f3	68 00 00 00 00	 push	 OFFSET FLAT:??_C@_0BNB@EKGJLBLA@usp_Master_Update?5?$EAserverindex?$DN?8@
  005f8	56		 push	 esi
  005f9	e8 00 00 00 00	 call	 _sprintf
  005fe	81 c4 dc 00 00
	00		 add	 esp, 220		; 000000dcH

; 668  : 
; 669  : 	if( FALSE == qry->Exec( szQuery ) )

  00604	56		 push	 esi
  00605	8b cb		 mov	 ecx, ebx
  00607	e8 00 00 00 00	 call	 ?Exec@CQuery@@QAEHPBD@Z	; CQuery::Exec
  0060c	85 c0		 test	 eax, eax
  0060e	75 18		 jne	 SHORT $L207976

; 670  : 	{
; 671  : 		WriteLog( "%s, %d\t%s", __FILE__, __LINE__, szQuery );

  00610	56		 push	 esi
  00611	68 9f 02 00 00	 push	 671			; 0000029fH
$L209643:
  00616	68 00 00 00 00	 push	 OFFSET FLAT:??_C@_0GI@CCIAPNOB@?2Documents?5and?5Settings?2test?2Mes@
  0061b	68 00 00 00 00	 push	 OFFSET FLAT:??_C@_09GBAEEKDE@?$CFs?0?5?$CFd?7?$CFs?$AA@
  00620	e8 00 00 00 00	 call	 ?WriteLog@@YAXPBDZZ	; WriteLog
  00625	83 c4 10	 add	 esp, 16			; 00000010H
$L207976:

; 672  : 		return;
; 673  : 	}
; 674  : 
; 675  : 
; 676  : }

  00628	5f		 pop	 edi
  00629	5e		 pop	 esi
  0062a	5b		 pop	 ebx
  0062b	8b e5		 mov	 esp, ebp
  0062d	5d		 pop	 ebp
  0062e	c2 10 00	 ret	 16			; 00000010H
?SaveHonor@CDbManager@@QAEXPAVCQuery@@KPAHPAD@Z ENDP	; CDbManager::SaveHonor
_TEXT	ENDS
PUBLIC	??_C@_0GB@BHCCFDGD@uspLearnSkill?5?$EAserverindex?$DN?8?$CF02d@ ; `string'
PUBLIC	?SaveSkill@CDbManager@@QAEXPAVCQuery@@KPAUtagSKILL@@PAEPAD@Z ; CDbManager::SaveSkill
;	COMDAT ??_C@_0GB@BHCCFDGD@uspLearnSkill?5?$EAserverindex?$DN?8?$CF02d@
CONST	SEGMENT
??_C@_0GB@BHCCFDGD@uspLearnSkill?5?$EAserverindex?$DN?8?$CF02d@ DB 'uspLe'
	DB	'arnSkill @serverindex=''%02d'',@pPlayerID=''%07d'',@pSkillID='
	DB	'%d,@pSkillLv=%d,@pSkillPosition=%d', 00H	; `string'
; Function compile flags: /Ogty
CONST	ENDS
;	COMDAT ?SaveSkill@CDbManager@@QAEXPAVCQuery@@KPAUtagSKILL@@PAEPAD@Z
_TEXT	SEGMENT
_qry$ = 8						; size = 4
_uidPlayer$ = 12					; size = 4
_aJobSkill$ = 16					; size = 4
_abUpdateSkill$ = 20					; size = 4
_szQuery$ = 24						; size = 4
?SaveSkill@CDbManager@@QAEXPAVCQuery@@KPAUtagSKILL@@PAEPAD@Z PROC NEAR ; CDbManager::SaveSkill, COMDAT
; _this$ = ecx

; 685  : {

  00000	53		 push	 ebx

; 686  : #ifdef __3RD_LEGEND16
; 687  : 	for( int i = 0 ; i < (MAX_JOB_SKILL + MAX_EXPERT_SKILL + MAX_PRO_SKILL + MAX_MASTER_SKILL + MAX_HERO_SKILL + MAX_LEGEND_HERO_SKILL ) ; i++)

  00001	8b 5c 24 10	 mov	 ebx, DWORD PTR _aJobSkill$[esp]
  00005	55		 push	 ebp
  00006	8b 6c 24 10	 mov	 ebp, DWORD PTR _uidPlayer$[esp+4]
  0000a	56		 push	 esi
  0000b	57		 push	 edi
  0000c	8b 7c 24 24	 mov	 edi, DWORD PTR _szQuery$[esp+12]
  00010	33 f6		 xor	 esi, esi
$L207986:

; 688  : #else // __3RD_LEGEND16
; 689  : #if __VER >= 10 //__LEGEND	//	10 	Neuz, World, Trans
; 690  : 	for( int i = 0 ; i < (MAX_JOB_SKILL + MAX_EXPERT_SKILL + MAX_PRO_SKILL + MAX_MASTER_SKILL + MAX_HERO_SKILL ) ; i++)
; 691  : #else //__LEGEND	//	10 	Neuz, World, Trans
; 692  : 	for( int i = 0 ; i < (MAX_JOB_SKILL + MAX_EXPERT_SKILL + MAX_PRO_SKILL) ; i++)
; 693  : #endif	//__LEGEND	//	10 	Neuz, World, Trans
; 694  : #endif // __3RD_LEGEND16
; 695  : 	{
; 696  : #ifdef __SKILL_0205
; 697  : 		if( abUpdateSkill[i] == 0 )

  00012	8b 44 24 20	 mov	 eax, DWORD PTR _abUpdateSkill$[esp+12]
  00016	80 3c 06 00	 cmp	 BYTE PTR [esi+eax], 0
  0001a	74 2d		 je	 SHORT $L207987

; 698  : 			continue;
; 699  : #endif	// __SKILL_0205
; 700  : 		sprintf( szQuery,
; 701  : 			"uspLearnSkill @serverindex='%02d',@pPlayerID='%07d',@pSkillID=%d,@pSkillLv=%d,@pSkillPosition=%d",
; 702  : 			g_appInfo.dwSys, uidPlayer, aJobSkill[i].dwSkill, aJobSkill[i].dwLevel, i ); 

  0001c	8b 4c f3 04	 mov	 ecx, DWORD PTR [ebx+esi*8+4]
  00020	8b 14 f3	 mov	 edx, DWORD PTR [ebx+esi*8]
  00023	a1 00 00 00 00	 mov	 eax, DWORD PTR ?g_appInfo@@3UAppInfo@@A
  00028	56		 push	 esi
  00029	51		 push	 ecx
  0002a	52		 push	 edx
  0002b	55		 push	 ebp
  0002c	50		 push	 eax
  0002d	68 00 00 00 00	 push	 OFFSET FLAT:??_C@_0GB@BHCCFDGD@uspLearnSkill?5?$EAserverindex?$DN?8?$CF02d@
  00032	57		 push	 edi
  00033	e8 00 00 00 00	 call	 _sprintf

; 703  : 	
; 704  : 		if( FALSE == qry->Exec( szQuery ) )

  00038	8b 4c 24 30	 mov	 ecx, DWORD PTR _qry$[esp+40]
  0003c	83 c4 1c	 add	 esp, 28			; 0000001cH
  0003f	57		 push	 edi
  00040	e8 00 00 00 00	 call	 ?Exec@CQuery@@QAEHPBD@Z	; CQuery::Exec
  00045	85 c0		 test	 eax, eax
  00047	74 0d		 je	 SHORT $L209646
$L207987:

; 686  : #ifdef __3RD_LEGEND16
; 687  : 	for( int i = 0 ; i < (MAX_JOB_SKILL + MAX_EXPERT_SKILL + MAX_PRO_SKILL + MAX_MASTER_SKILL + MAX_HERO_SKILL + MAX_LEGEND_HERO_SKILL ) ; i++)

  00049	46		 inc	 esi
  0004a	83 fe 33	 cmp	 esi, 51			; 00000033H
  0004d	7c c3		 jl	 SHORT $L207986
  0004f	5f		 pop	 edi
  00050	5e		 pop	 esi
  00051	5d		 pop	 ebp
  00052	5b		 pop	 ebx

; 707  : 			return;
; 708  : //			continue;
; 709  : 		}
; 710  : 	}
; 711  : }

  00053	c2 14 00	 ret	 20			; 00000014H
$L209646:

; 705  : 		{
; 706  : 			WriteLog( "%s, %d\t%s", __FILE__, __LINE__, szQuery );

  00056	57		 push	 edi
  00057	68 c2 02 00 00	 push	 706			; 000002c2H
  0005c	68 00 00 00 00	 push	 OFFSET FLAT:??_C@_0GI@CCIAPNOB@?2Documents?5and?5Settings?2test?2Mes@
  00061	68 00 00 00 00	 push	 OFFSET FLAT:??_C@_09GBAEEKDE@?$CFs?0?5?$CFd?7?$CFs?$AA@
  00066	e8 00 00 00 00	 call	 ?WriteLog@@YAXPBDZZ	; WriteLog
  0006b	83 c4 10	 add	 esp, 16			; 00000010H
  0006e	5f		 pop	 edi
  0006f	5e		 pop	 esi
  00070	5d		 pop	 ebp
  00071	5b		 pop	 ebx

; 707  : 			return;
; 708  : //			continue;
; 709  : 		}
; 710  : 	}
; 711  : }

  00072	c2 14 00	 ret	 20			; 00000014H
?SaveSkill@CDbManager@@QAEXPAVCQuery@@KPAUtagSKILL@@PAEPAD@Z ENDP ; CDbManager::SaveSkill
_TEXT	ENDS
PUBLIC	??_C@_03BEJFCEHO@?$CFd?1?$AA@			; `string'
PUBLIC	?SaveJobLv@CDbManager@@QAEXPAVCMover@@PAD@Z	; CDbManager::SaveJobLv
EXTRN	_strncat:NEAR
EXTRN	___security_cookie:DWORD
EXTRN	@__security_check_cookie@4:NEAR
;	COMDAT ??_C@_03BEJFCEHO@?$CFd?1?$AA@
CONST	SEGMENT
??_C@_03BEJFCEHO@?$CFd?1?$AA@ DB '%d/', 00H		; `string'
; Function compile flags: /Ogty
CONST	ENDS
;	COMDAT ?SaveJobLv@CDbManager@@QAEXPAVCMover@@PAD@Z
_TEXT	SEGMENT
_OneJobLv$ = -20					; size = 16
__$ArrayPad$ = -4					; size = 4
__$ReturnAddr$ = 4					; size = 4
_pMover$ = 8						; size = 4
_szJobLv$ = 12						; size = 4
?SaveJobLv@CDbManager@@QAEXPAVCMover@@PAD@Z PROC NEAR	; CDbManager::SaveJobLv, COMDAT
; _this$ = ecx

; 715  : {

  00000	83 ec 14	 sub	 esp, 20			; 00000014H
  00003	a1 00 00 00 00	 mov	 eax, DWORD PTR ___security_cookie
  00008	33 c4		 xor	 eax, esp
  0000a	89 44 24 10	 mov	 DWORD PTR __$ArrayPad$[esp+20], eax

; 716  : 	char OneJobLv[16] = {0,};

  0000e	33 c0		 xor	 eax, eax
  00010	89 44 24 01	 mov	 DWORD PTR _OneJobLv$[esp+21], eax
  00014	89 44 24 05	 mov	 DWORD PTR _OneJobLv$[esp+25], eax
  00018	56		 push	 esi
  00019	8b 74 24 20	 mov	 esi, DWORD PTR _szJobLv$[esp+20]
  0001d	89 44 24 0d	 mov	 DWORD PTR _OneJobLv$[esp+33], eax
  00021	66 89 44 24 11	 mov	 WORD PTR _OneJobLv$[esp+37], ax
  00026	57		 push	 edi
  00027	c6 44 24 08 00	 mov	 BYTE PTR _OneJobLv$[esp+28], 0
  0002c	88 44 24 17	 mov	 BYTE PTR _OneJobLv$[esp+43], al

; 717  : 	for( int i = 0 ; i < MAX_JOB ; i++)

  00030	bf 28 00 00 00	 mov	 edi, 40			; 00000028H
$L207999:

; 718  : 	{
; 719  : 		sprintf(OneJobLv, "%d/", 0);

  00035	6a 00		 push	 0
  00037	8d 4c 24 0c	 lea	 ecx, DWORD PTR _OneJobLv$[esp+32]
  0003b	68 00 00 00 00	 push	 OFFSET FLAT:??_C@_03BEJFCEHO@?$CFd?1?$AA@
  00040	51		 push	 ecx
  00041	e8 00 00 00 00	 call	 _sprintf

; 720  : 		strncat(szJobLv, OneJobLv, sizeof(OneJobLv));

  00046	6a 10		 push	 16			; 00000010H
  00048	8d 54 24 18	 lea	 edx, DWORD PTR _OneJobLv$[esp+44]
  0004c	52		 push	 edx
  0004d	56		 push	 esi
  0004e	e8 00 00 00 00	 call	 _strncat
  00053	83 c4 18	 add	 esp, 24			; 00000018H
  00056	4f		 dec	 edi
  00057	75 dc		 jne	 SHORT $L207999

; 721  : 	}
; 722  : 	strncat(szJobLv, NullStr, sizeof(NullStr));

  00059	6a 02		 push	 2
  0005b	68 00 00 00 00	 push	 OFFSET FLAT:_NullStr
  00060	56		 push	 esi
  00061	e8 00 00 00 00	 call	 _strncat

; 723  : }

  00066	8b 4c 24 24	 mov	 ecx, DWORD PTR __$ArrayPad$[esp+40]
  0006a	83 c4 0c	 add	 esp, 12			; 0000000cH
  0006d	5f		 pop	 edi
  0006e	5e		 pop	 esi
  0006f	33 cc		 xor	 ecx, esp
  00071	e8 00 00 00 00	 call	 @__security_check_cookie@4
  00076	83 c4 14	 add	 esp, 20			; 00000014H
  00079	c2 08 00	 ret	 8
?SaveJobLv@CDbManager@@QAEXPAVCMover@@PAD@Z ENDP	; CDbManager::SaveJobLv
_TEXT	ENDS
PUBLIC	??_C@_0CI@NCHFPLMO@?$CFd?0?$CFd?0?$CFd?0?$CFd?0?$CFd?0?$CFd?0?$CFd?0?$CFd?0?$CFd?0?$CFd?0?$CFd@ ; `string'
PUBLIC	?SaveQuest@CDbManager@@QAEXPAVCMover@@PAD11@Z	; CDbManager::SaveQuest
;	COMDAT ??_C@_0CI@NCHFPLMO@?$CFd?0?$CFd?0?$CFd?0?$CFd?0?$CFd?0?$CFd?0?$CFd?0?$CFd?0?$CFd?0?$CFd?0?$CFd@
CONST	SEGMENT
??_C@_0CI@NCHFPLMO@?$CFd?0?$CFd?0?$CFd?0?$CFd?0?$CFd?0?$CFd?0?$CFd?0?$CFd?0?$CFd?0?$CFd?0?$CFd@ DB '%'
	DB	'd,%d,%d,%d,%d,%d,%d,%d,%d,%d,%d,%d,%d/', 00H ; `string'
; Function compile flags: /Ogty
CONST	ENDS
;	COMDAT ?SaveQuest@CDbManager@@QAEXPAVCMover@@PAD11@Z
_TEXT	SEGMENT
$T209662 = -180						; size = 4
$T209663 = -176						; size = 4
_OneCompleteQuest$ = -172				; size = 20
_OneCheckedQuest$ = -152				; size = 20
_sPerQuest$ = -132					; size = 128
__$ArrayPad$ = -4					; size = 4
__$ReturnAddr$ = 4					; size = 4
_pMover$ = 8						; size = 4
_szQuestCnt$ = 12					; size = 4
_szm_aCompleteQuest$ = 16				; size = 4
_szCheckedQuest$ = 20					; size = 4
?SaveQuest@CDbManager@@QAEXPAVCMover@@PAD11@Z PROC NEAR	; CDbManager::SaveQuest, COMDAT
; _this$ = ecx

; 730  : {

  00000	81 ec b4 00 00
	00		 sub	 esp, 180		; 000000b4H
  00006	a1 00 00 00 00	 mov	 eax, DWORD PTR ___security_cookie
  0000b	33 c4		 xor	 eax, esp
  0000d	89 84 24 b0 00
	00 00		 mov	 DWORD PTR __$ArrayPad$[esp+180], eax

; 762  : 	}
; 763  : 	strcat( szCheckedQuest, NullStr );

  00014	53		 push	 ebx
  00015	55		 push	 ebp
  00016	56		 push	 esi
  00017	57		 push	 edi

; 730  : {

  00018	8b 94 24 d0 00
	00 00		 mov	 edx, DWORD PTR _szm_aCompleteQuest$[esp+192]

; 762  : 	}
; 763  : 	strcat( szCheckedQuest, NullStr );

  0001f	8b 84 24 d4 00
	00 00		 mov	 eax, DWORD PTR _szCheckedQuest$[esp+192]
  00026	89 44 24 14	 mov	 DWORD PTR $T209663[esp+196], eax
  0002a	33 c0		 xor	 eax, eax
  0002c	89 44 24 2d	 mov	 DWORD PTR _OneCheckedQuest$[esp+197], eax
  00030	33 c9		 xor	 ecx, ecx
  00032	89 44 24 31	 mov	 DWORD PTR _OneCheckedQuest$[esp+201], eax
  00036	89 4c 24 19	 mov	 DWORD PTR _OneCompleteQuest$[esp+197], ecx
  0003a	89 44 24 35	 mov	 DWORD PTR _OneCheckedQuest$[esp+205], eax
  0003e	8b 9c 24 cc 00
	00 00		 mov	 ebx, DWORD PTR _szQuestCnt$[esp+192]
  00045	89 4c 24 1d	 mov	 DWORD PTR _OneCompleteQuest$[esp+201], ecx
  00049	89 44 24 39	 mov	 DWORD PTR _OneCheckedQuest$[esp+209], eax
  0004d	8b ac 24 c8 00
	00 00		 mov	 ebp, DWORD PTR _pMover$[esp+192]
  00054	89 4c 24 21	 mov	 DWORD PTR _OneCompleteQuest$[esp+205], ecx
  00058	66 89 44 24 3d	 mov	 WORD PTR _OneCheckedQuest$[esp+213], ax
  0005d	89 4c 24 25	 mov	 DWORD PTR _OneCompleteQuest$[esp+209], ecx
  00061	88 44 24 3f	 mov	 BYTE PTR _OneCheckedQuest$[esp+215], al
  00065	8a 85 a8 46 00
	00		 mov	 al, BYTE PTR [ebp+18088]
  0006b	66 89 4c 24 29	 mov	 WORD PTR _OneCompleteQuest$[esp+213], cx
  00070	33 f6		 xor	 esi, esi
  00072	84 c0		 test	 al, al
  00074	89 54 24 10	 mov	 DWORD PTR $T209662[esp+196], edx
  00078	c6 44 24 18 00	 mov	 BYTE PTR _OneCompleteQuest$[esp+196], 0
  0007d	88 4c 24 2b	 mov	 BYTE PTR _OneCompleteQuest$[esp+215], cl
  00081	88 4c 24 2c	 mov	 BYTE PTR _OneCheckedQuest$[esp+196], cl
  00085	0f 86 a5 00 00
	00		 jbe	 $L208016

; 738  : 	{
; 739  : 		sprintf( sPerQuest, "%d,%d,%d,%d,%d,%d,%d,%d,%d,%d,%d,%d,%d/",
; 740  : 			pMover->m_aQuest[i].m_wId, pMover->m_aQuest[i].m_nState, pMover->m_aQuest[i].m_wTime,
; 741  : 			pMover->m_aQuest[i].m_nKillNPCNum[0], pMover->m_aQuest[i].m_nKillNPCNum[1],
; 742  : 			pMover->m_aQuest[i].m_bPatrol, pMover->m_aQuest[i].m_bReserve2,	pMover->m_aQuest[i].m_bReserve3, pMover->m_aQuest[i].m_bReserve4,
; 743  : 			pMover->m_aQuest[i].m_bReserve5, pMover->m_aQuest[i].m_bReserve6, pMover->m_aQuest[i].m_bReserve7, pMover->m_aQuest[i].m_bReserve8
; 744  : 			);

  0008b	33 ff		 xor	 edi, edi
  0008d	8d 49 00	 npad	 3
$L208014:
  00090	8b 8d a0 46 00
	00		 mov	 ecx, DWORD PTR [ebp+18080]
  00096	0f b6 44 39 0a	 movzx	 eax, BYTE PTR [ecx+edi+10]
  0009b	03 cf		 add	 ecx, edi
  0009d	8b d0		 mov	 edx, eax
  0009f	c1 ea 07	 shr	 edx, 7
  000a2	52		 push	 edx
  000a3	8b d0		 mov	 edx, eax
  000a5	c1 ea 06	 shr	 edx, 6
  000a8	83 e2 01	 and	 edx, 1
  000ab	52		 push	 edx
  000ac	8b d0		 mov	 edx, eax
  000ae	c1 ea 05	 shr	 edx, 5
  000b1	83 e2 01	 and	 edx, 1
  000b4	52		 push	 edx
  000b5	8b d0		 mov	 edx, eax
  000b7	c1 ea 04	 shr	 edx, 4
  000ba	83 e2 01	 and	 edx, 1
  000bd	52		 push	 edx
  000be	8b d0		 mov	 edx, eax
  000c0	c1 ea 03	 shr	 edx, 3
  000c3	83 e2 01	 and	 edx, 1
  000c6	52		 push	 edx
  000c7	8b d0		 mov	 edx, eax
  000c9	c1 ea 02	 shr	 edx, 2
  000cc	83 e2 01	 and	 edx, 1
  000cf	52		 push	 edx
  000d0	8b d0		 mov	 edx, eax
  000d2	d1 ea		 shr	 edx, 1
  000d4	83 e2 01	 and	 edx, 1
  000d7	52		 push	 edx
  000d8	0f b7 51 06	 movzx	 edx, WORD PTR [ecx+6]
  000dc	83 e0 01	 and	 eax, 1
  000df	50		 push	 eax
  000e0	0f b7 41 08	 movzx	 eax, WORD PTR [ecx+8]
  000e4	50		 push	 eax
  000e5	0f b7 41 02	 movzx	 eax, WORD PTR [ecx+2]
  000e9	52		 push	 edx
  000ea	0f b6 11	 movzx	 edx, BYTE PTR [ecx]
  000ed	50		 push	 eax
  000ee	0f b7 41 04	 movzx	 eax, WORD PTR [ecx+4]
  000f2	52		 push	 edx
  000f3	50		 push	 eax
  000f4	8d 4c 24 74	 lea	 ecx, DWORD PTR _sPerQuest$[esp+248]
  000f8	68 00 00 00 00	 push	 OFFSET FLAT:??_C@_0CI@NCHFPLMO@?$CFd?0?$CFd?0?$CFd?0?$CFd?0?$CFd?0?$CFd?0?$CFd?0?$CFd?0?$CFd?0?$CFd?0?$CFd@
  000fd	51		 push	 ecx
  000fe	e8 00 00 00 00	 call	 _sprintf

; 745  : 		strncat( szQuestCnt, sPerQuest, sizeof(sPerQuest) );

  00103	68 80 00 00 00	 push	 128			; 00000080H
  00108	8d 94 24 80 00
	00 00		 lea	 edx, DWORD PTR _sPerQuest$[esp+260]
  0010f	52		 push	 edx
  00110	53		 push	 ebx
  00111	e8 00 00 00 00	 call	 _strncat
  00116	0f b6 85 a8 46
	00 00		 movzx	 eax, BYTE PTR [ebp+18088]
  0011d	83 c4 48	 add	 esp, 72			; 00000048H
  00120	46		 inc	 esi
  00121	83 c7 0c	 add	 edi, 12			; 0000000cH
  00124	3b f0		 cmp	 esi, eax
  00126	0f 8c 64 ff ff
	ff		 jl	 $L208014

; 731  : 	char sPerQuest[128];
; 732  : 	char OneCompleteQuest[20] = {0,};
; 733  : #if __VER >= 15 // __IMPROVE_QUEST_INTERFACE
; 734  : 	char OneCheckedQuest[20] = {0, };
; 735  : #endif // __IMPROVE_QUEST_INTERFACE
; 736  : 
; 737  : 	for( int i = 0; i < pMover->m_nQuestSize; i++ )

  0012c	8b 54 24 10	 mov	 edx, DWORD PTR $T209662[esp+196]
$L208016:

; 746  : 	}
; 747  : 	
; 748  : 	for( i = 0; i < pMover->m_nCompleteQuestSize; i++ )

  00130	8a 85 a9 46 00
	00		 mov	 al, BYTE PTR [ebp+18089]
  00136	33 f6		 xor	 esi, esi
  00138	84 c0		 test	 al, al
  0013a	76 42		 jbe	 SHORT $L208020
  0013c	8d 64 24 00	 npad	 4
$L208018:

; 749  : 	{
; 750  : 		sprintf(OneCompleteQuest, "%d/", pMover->m_aCompleteQuest[i]);

  00140	8b 8d a4 46 00
	00		 mov	 ecx, DWORD PTR [ebp+18084]
  00146	0f b7 14 71	 movzx	 edx, WORD PTR [ecx+esi*2]
  0014a	52		 push	 edx
  0014b	8d 44 24 1c	 lea	 eax, DWORD PTR _OneCompleteQuest$[esp+200]
  0014f	68 00 00 00 00	 push	 OFFSET FLAT:??_C@_03BEJFCEHO@?$CFd?1?$AA@
  00154	50		 push	 eax
  00155	e8 00 00 00 00	 call	 _sprintf

; 751  : 		strncat( szm_aCompleteQuest, OneCompleteQuest, sizeof(OneCompleteQuest) );

  0015a	8b 54 24 1c	 mov	 edx, DWORD PTR $T209662[esp+208]
  0015e	6a 14		 push	 20			; 00000014H
  00160	8d 4c 24 28	 lea	 ecx, DWORD PTR _OneCompleteQuest$[esp+212]
  00164	51		 push	 ecx
  00165	52		 push	 edx
  00166	e8 00 00 00 00	 call	 _strncat
  0016b	0f b6 85 a9 46
	00 00		 movzx	 eax, BYTE PTR [ebp+18089]
  00172	83 c4 18	 add	 esp, 24			; 00000018H
  00175	46		 inc	 esi
  00176	3b f0		 cmp	 esi, eax
  00178	7c c6		 jl	 SHORT $L208018

; 746  : 	}
; 747  : 	
; 748  : 	for( i = 0; i < pMover->m_nCompleteQuestSize; i++ )

  0017a	8b 54 24 10	 mov	 edx, DWORD PTR $T209662[esp+196]
$L208020:

; 752  : 	}
; 753  : 
; 754  : 	strcat( szQuestCnt, NullStr );

  0017e	b8 00 00 00 00	 mov	 eax, OFFSET FLAT:_NullStr
  00183	8b f0		 mov	 esi, eax
$L209670:
  00185	8a 08		 mov	 cl, BYTE PTR [eax]
  00187	40		 inc	 eax
  00188	84 c9		 test	 cl, cl
  0018a	75 f9		 jne	 SHORT $L209670
  0018c	2b c6		 sub	 eax, esi
  0018e	4b		 dec	 ebx
  0018f	90		 npad	 1
$L209671:
  00190	8a 4b 01	 mov	 cl, BYTE PTR [ebx+1]
  00193	43		 inc	 ebx
  00194	84 c9		 test	 cl, cl
  00196	75 f8		 jne	 SHORT $L209671
  00198	8b c8		 mov	 ecx, eax
  0019a	c1 e9 02	 shr	 ecx, 2
  0019d	8b fb		 mov	 edi, ebx
  0019f	f3 a5		 rep movsd
  001a1	8b c8		 mov	 ecx, eax
  001a3	83 e1 03	 and	 ecx, 3

; 755  : 	strcat( szm_aCompleteQuest, NullStr );

  001a6	b8 00 00 00 00	 mov	 eax, OFFSET FLAT:_NullStr
  001ab	f3 a4		 rep movsb
  001ad	8b c8		 mov	 ecx, eax
  001af	90		 npad	 1
$L209672:
  001b0	8a 18		 mov	 bl, BYTE PTR [eax]
  001b2	40		 inc	 eax
  001b3	84 db		 test	 bl, bl
  001b5	75 f9		 jne	 SHORT $L209672
  001b7	2b c1		 sub	 eax, ecx
  001b9	4a		 dec	 edx
  001ba	8b f1		 mov	 esi, ecx
  001bc	8b fa		 mov	 edi, edx
  001be	8b ff		 npad	 2
$L209673:
  001c0	8a 4f 01	 mov	 cl, BYTE PTR [edi+1]
  001c3	47		 inc	 edi
  001c4	84 c9		 test	 cl, cl
  001c6	75 f8		 jne	 SHORT $L209673
  001c8	8b c8		 mov	 ecx, eax
  001ca	c1 e9 02	 shr	 ecx, 2
  001cd	f3 a5		 rep movsd
  001cf	8b c8		 mov	 ecx, eax
  001d1	83 e1 03	 and	 ecx, 3
  001d4	f3 a4		 rep movsb

; 756  : 
; 757  : #if __VER >= 15 // __IMPROVE_QUEST_INTERFACE
; 758  : 	for( i = 0; i < pMover->m_nCheckedQuestSize; ++i )

  001d6	8a 85 c0 46 00
	00		 mov	 al, BYTE PTR [ebp+18112]
  001dc	33 f6		 xor	 esi, esi
  001de	84 c0		 test	 al, al
  001e0	76 3a		 jbe	 SHORT $L208023
$L208021:

; 759  : 	{
; 760  : 		sprintf( OneCheckedQuest, "%d/", pMover->m_aCheckedQuest[i]);

  001e2	8b 8d bc 46 00
	00		 mov	 ecx, DWORD PTR [ebp+18108]
  001e8	0f b7 14 71	 movzx	 edx, WORD PTR [ecx+esi*2]
  001ec	52		 push	 edx
  001ed	8d 44 24 30	 lea	 eax, DWORD PTR _OneCheckedQuest$[esp+200]
  001f1	68 00 00 00 00	 push	 OFFSET FLAT:??_C@_03BEJFCEHO@?$CFd?1?$AA@
  001f6	50		 push	 eax
  001f7	e8 00 00 00 00	 call	 _sprintf

; 761  : 		strncat( szCheckedQuest, OneCheckedQuest, sizeof( OneCheckedQuest ) );

  001fc	8b 54 24 20	 mov	 edx, DWORD PTR $T209663[esp+208]
  00200	6a 14		 push	 20			; 00000014H
  00202	8d 4c 24 3c	 lea	 ecx, DWORD PTR _OneCheckedQuest$[esp+212]
  00206	51		 push	 ecx
  00207	52		 push	 edx
  00208	e8 00 00 00 00	 call	 _strncat
  0020d	0f b6 85 c0 46
	00 00		 movzx	 eax, BYTE PTR [ebp+18112]
  00214	83 c4 18	 add	 esp, 24			; 00000018H
  00217	46		 inc	 esi
  00218	3b f0		 cmp	 esi, eax
  0021a	7c c6		 jl	 SHORT $L208021
$L208023:

; 762  : 	}
; 763  : 	strcat( szCheckedQuest, NullStr );

  0021c	b8 00 00 00 00	 mov	 eax, OFFSET FLAT:_NullStr
  00221	8b d0		 mov	 edx, eax
$L209674:
  00223	8a 08		 mov	 cl, BYTE PTR [eax]
  00225	40		 inc	 eax
  00226	84 c9		 test	 cl, cl
  00228	75 f9		 jne	 SHORT $L209674
  0022a	8b 7c 24 14	 mov	 edi, DWORD PTR $T209663[esp+196]
  0022e	2b c2		 sub	 eax, edx
  00230	4f		 dec	 edi
$L209675:
  00231	8a 4f 01	 mov	 cl, BYTE PTR [edi+1]
  00234	47		 inc	 edi
  00235	84 c9		 test	 cl, cl
  00237	75 f8		 jne	 SHORT $L209675
  00239	8b c8		 mov	 ecx, eax
  0023b	c1 e9 02	 shr	 ecx, 2
  0023e	8b f2		 mov	 esi, edx
  00240	f3 a5		 rep movsd
  00242	8b c8		 mov	 ecx, eax
  00244	83 e1 03	 and	 ecx, 3
  00247	f3 a4		 rep movsb

; 764  : #endif // __IMPROVE_QUEST_INTERFACE
; 765  : }

  00249	8b 8c 24 c0 00
	00 00		 mov	 ecx, DWORD PTR __$ArrayPad$[esp+196]
  00250	5f		 pop	 edi
  00251	5e		 pop	 esi
  00252	5d		 pop	 ebp
  00253	5b		 pop	 ebx
  00254	33 cc		 xor	 ecx, esp
  00256	e8 00 00 00 00	 call	 @__security_check_cookie@4
  0025b	81 c4 b4 00 00
	00		 add	 esp, 180		; 000000b4H
  00261	c2 10 00	 ret	 16			; 00000010H
?SaveQuest@CDbManager@@QAEXPAVCMover@@PAD11@Z ENDP	; CDbManager::SaveQuest
_TEXT	ENDS
PUBLIC	?SaveEquipment@CDbManager@@QAEXPAVCMover@@PAD@Z	; CDbManager::SaveEquipment
; Function compile flags: /Ogty
;	COMDAT ?SaveEquipment@CDbManager@@QAEXPAVCMover@@PAD@Z
_TEXT	SEGMENT
_OneEquipment$ = -20					; size = 16
__$ArrayPad$ = -4					; size = 4
__$ReturnAddr$ = 4					; size = 4
_pMover$ = 8						; size = 4
_szEquipment$ = 12					; size = 4
?SaveEquipment@CDbManager@@QAEXPAVCMover@@PAD@Z PROC NEAR ; CDbManager::SaveEquipment, COMDAT
; _this$ = ecx

; 874  : {

  00000	83 ec 14	 sub	 esp, 20			; 00000014H
  00003	a1 00 00 00 00	 mov	 eax, DWORD PTR ___security_cookie
  00008	33 c4		 xor	 eax, esp

; 875  : 	char OneEquipment[16] = {0,};

  0000a	33 c9		 xor	 ecx, ecx
  0000c	89 4c 24 01	 mov	 DWORD PTR _OneEquipment$[esp+21], ecx
  00010	53		 push	 ebx
  00011	89 4c 24 09	 mov	 DWORD PTR _OneEquipment$[esp+29], ecx
  00015	56		 push	 esi
  00016	89 4c 24 11	 mov	 DWORD PTR _OneEquipment$[esp+37], ecx
  0001a	89 44 24 18	 mov	 DWORD PTR __$ArrayPad$[esp+28], eax
  0001e	8b 44 24 20	 mov	 eax, DWORD PTR _pMover$[esp+24]
  00022	66 89 4c 24 15	 mov	 WORD PTR _OneEquipment$[esp+41], cx
  00027	57		 push	 edi
  00028	8b 7c 24 28	 mov	 edi, DWORD PTR _szEquipment$[esp+28]
  0002c	c6 44 24 0c 00	 mov	 BYTE PTR _OneEquipment$[esp+32], 0
  00031	88 4c 24 1b	 mov	 BYTE PTR _OneEquipment$[esp+47], cl

; 876  : 	for( int i = 0 ; i < MAX_HUMAN_PARTS ; i++)
; 877  : 	{
; 878  : 		sprintf( OneEquipment, "%d/", pMover->m_aEquipInfo[i].byFlag );

  00035	8d b0 2c 45 00
	00		 lea	 esi, DWORD PTR [eax+17708]
  0003b	bb 1f 00 00 00	 mov	 ebx, 31			; 0000001fH
$L208082:
  00040	0f b6 16	 movzx	 edx, BYTE PTR [esi]
  00043	52		 push	 edx
  00044	8d 44 24 10	 lea	 eax, DWORD PTR _OneEquipment$[esp+36]
  00048	68 00 00 00 00	 push	 OFFSET FLAT:??_C@_03BEJFCEHO@?$CFd?1?$AA@
  0004d	50		 push	 eax
  0004e	e8 00 00 00 00	 call	 _sprintf

; 879  : 		strncat(szEquipment, OneEquipment, sizeof(OneEquipment));

  00053	6a 10		 push	 16			; 00000010H
  00055	8d 4c 24 1c	 lea	 ecx, DWORD PTR _OneEquipment$[esp+48]
  00059	51		 push	 ecx
  0005a	57		 push	 edi
  0005b	e8 00 00 00 00	 call	 _strncat
  00060	83 c4 18	 add	 esp, 24			; 00000018H
  00063	83 c6 0c	 add	 esi, 12			; 0000000cH
  00066	4b		 dec	 ebx
  00067	75 d7		 jne	 SHORT $L208082

; 880  : 	}
; 881  : 	strncat(szEquipment, NullStr, sizeof(NullStr));

  00069	6a 02		 push	 2
  0006b	68 00 00 00 00	 push	 OFFSET FLAT:_NullStr
  00070	57		 push	 edi
  00071	e8 00 00 00 00	 call	 _strncat

; 882  : }

  00076	8b 4c 24 28	 mov	 ecx, DWORD PTR __$ArrayPad$[esp+44]
  0007a	83 c4 0c	 add	 esp, 12			; 0000000cH
  0007d	5f		 pop	 edi
  0007e	5e		 pop	 esi
  0007f	5b		 pop	 ebx
  00080	33 cc		 xor	 ecx, esp
  00082	e8 00 00 00 00	 call	 @__security_check_cookie@4
  00087	83 c4 14	 add	 esp, 20			; 00000014H
  0008a	c2 08 00	 ret	 8
?SaveEquipment@CDbManager@@QAEXPAVCMover@@PAD@Z ENDP	; CDbManager::SaveEquipment
_TEXT	ENDS
PUBLIC	?SaveCardCube@CDbManager@@QAEXPAVCMover@@PAD11111@Z ; CDbManager::SaveCardCube
; Function compile flags: /Ogty
;	COMDAT ?SaveCardCube@CDbManager@@QAEXPAVCMover@@PAD11111@Z
_TEXT	SEGMENT
_pMover$ = 8						; size = 4
_szCard$ = 12						; size = 4
_szsCardIndex$ = 16					; size = 4
_szsCardObjIndex$ = 20					; size = 4
_szCube$ = 24						; size = 4
_szsCubeIndex$ = 28					; size = 4
_szsCubeObjIndex$ = 32					; size = 4
?SaveCardCube@CDbManager@@QAEXPAVCMover@@PAD11111@Z PROC NEAR ; CDbManager::SaveCardCube, COMDAT
; _this$ = ecx

; 968  : }

  00000	c2 1c 00	 ret	 28			; 0000001cH
?SaveCardCube@CDbManager@@QAEXPAVCMover@@PAD11111@Z ENDP ; CDbManager::SaveCardCube
_TEXT	ENDS
PUBLIC	??_C@_0BF@ECALHJFL@?$CFd?0?$CFd?0?$CFd?0?$CFd?0?$CFd?0?$CFd?0?$CFd?$AA@ ; `string'
PUBLIC	??_C@_01KMDKNFGN@?1?$AA@			; `string'
PUBLIC	??_C@_0BI@NMDFOAAK@?$CFd?0?$CFd?0?$CFd?0?$CFd?0?$CFd?0?$CFd?0?$CFd?0?$CFd?$AA@ ; `string'
PUBLIC	??_C@_0BG@OOOHLLGI@?$CFd?0?$CFd?0?$CFd?0?$CFd?0?$CFd?0?$CFd?0?$CFd?1?$AA@ ; `string'
PUBLIC	?SaveTaskBar@CDbManager@@QAEXPAVCMover@@PAD11@Z	; CDbManager::SaveTaskBar
EXTRN	?SetStrDBFormat@CDbManager@@AAEXPADPBD@Z:NEAR	; CDbManager::SetStrDBFormat
;	COMDAT ??_C@_0BF@ECALHJFL@?$CFd?0?$CFd?0?$CFd?0?$CFd?0?$CFd?0?$CFd?0?$CFd?$AA@
CONST	SEGMENT
??_C@_0BF@ECALHJFL@?$CFd?0?$CFd?0?$CFd?0?$CFd?0?$CFd?0?$CFd?0?$CFd?$AA@ DB '%'
	DB	'd,%d,%d,%d,%d,%d,%d', 00H			; `string'
CONST	ENDS
;	COMDAT ??_C@_01KMDKNFGN@?1?$AA@
CONST	SEGMENT
??_C@_01KMDKNFGN@?1?$AA@ DB '/', 00H			; `string'
CONST	ENDS
;	COMDAT ??_C@_0BI@NMDFOAAK@?$CFd?0?$CFd?0?$CFd?0?$CFd?0?$CFd?0?$CFd?0?$CFd?0?$CFd?$AA@
CONST	SEGMENT
??_C@_0BI@NMDFOAAK@?$CFd?0?$CFd?0?$CFd?0?$CFd?0?$CFd?0?$CFd?0?$CFd?0?$CFd?$AA@ DB '%'
	DB	'd,%d,%d,%d,%d,%d,%d,%d', 00H		; `string'
CONST	ENDS
;	COMDAT ??_C@_0BG@OOOHLLGI@?$CFd?0?$CFd?0?$CFd?0?$CFd?0?$CFd?0?$CFd?0?$CFd?1?$AA@
CONST	SEGMENT
??_C@_0BG@OOOHLLGI@?$CFd?0?$CFd?0?$CFd?0?$CFd?0?$CFd?0?$CFd?0?$CFd?1?$AA@ DB '%'
	DB	'd,%d,%d,%d,%d,%d,%d/', 00H			; `string'
; Function compile flags: /Ogty
CONST	ENDS
;	COMDAT ?SaveTaskBar@CDbManager@@QAEXPAVCMover@@PAD11@Z
_TEXT	SEGMENT
_ch$208149 = -880					; size = 4
$T209691 = -876						; size = 4
$T209693 = -872						; size = 4
$T209694 = -868						; size = 4
$T209690 = -864						; size = 4
_OneItemTaskBar$ = -860					; size = 300
_OneAppletTaskBar$ = -560				; size = 300
_OneSkillTaskBar$ = -260				; size = 256
__$ArrayPad$ = -4					; size = 4
__$ReturnAddr$ = 4					; size = 4
_pMover$ = 8						; size = 4
_szAppletTaskBar$ = 12					; size = 4
_szItemTaskBar$ = 16					; size = 4
_szSkillTaskBar$ = 20					; size = 4
?SaveTaskBar@CDbManager@@QAEXPAVCMover@@PAD11@Z PROC NEAR ; CDbManager::SaveTaskBar, COMDAT
; _this$ = ecx

; 971  : {

  00000	81 ec 70 03 00
	00		 sub	 esp, 880		; 00000370H
  00006	a1 00 00 00 00	 mov	 eax, DWORD PTR ___security_cookie
  0000b	33 c4		 xor	 eax, esp
  0000d	89 84 24 6c 03
	00 00		 mov	 DWORD PTR __$ArrayPad$[esp+880], eax
  00014	8b 84 24 7c 03
	00 00		 mov	 eax, DWORD PTR _szItemTaskBar$[esp+876]
  0001b	53		 push	 ebx
  0001c	89 4c 24 14	 mov	 DWORD PTR $T209690[esp+884], ecx
  00020	8b 8c 24 84 03
	00 00		 mov	 ecx, DWORD PTR _szSkillTaskBar$[esp+880]

; 972  : 	char OneAppletTaskBar[MAX_TASKBAR] = { 0, };
; 973  : 	char OneItemTaskBar[MAX_TASKBAR] = { 0, };
; 974  : 	char OneSkillTaskBar[256] = { 0, };
; 975  : 	for( int ch = 0 ; ch < MAX_SLOT_APPLET ; ch++ )
; 976  : 	{
; 977  : 		if( pMover->m_UserTaskBar.m_aSlotApplet[ch].m_dwShortcut != SHORTCUT_NONE )
; 978  : 		{
; 979  : 			sprintf( OneAppletTaskBar, "%d,%d,%d,%d,%d,%d,%d", ch, 
; 980  : 				pMover->m_UserTaskBar.m_aSlotApplet[ch].m_dwShortcut, pMover->m_UserTaskBar.m_aSlotApplet[ch].m_dwId, pMover->m_UserTaskBar.m_aSlotApplet[ch].m_dwType,
; 981  : 				pMover->m_UserTaskBar.m_aSlotApplet[ch].m_dwIndex, pMover->m_UserTaskBar.m_aSlotApplet[ch].m_dwUserId, pMover->m_UserTaskBar.m_aSlotApplet[ch].m_dwData );
; 982  : 			
; 983  : 			if( pMover->m_UserTaskBar.m_aSlotApplet[ch].m_dwShortcut == SHORTCUT_CHAT)
; 984  : 				SetStrDBFormat( OneAppletTaskBar, pMover->m_UserTaskBar.m_aSlotApplet[ch].m_szString );
; 985  : 			
; 986  : 			strncat( szAppletTaskBar, OneAppletTaskBar, sizeof(OneAppletTaskBar));
; 987  : 			strcat( szAppletTaskBar, "/" );
; 988  : 		}
; 989  : 	}
; 990  : 	strcat( szAppletTaskBar, NullStr );
; 991  : 	
; 992  : 	for( ch = 0; ch < MAX_SLOT_ITEM_COUNT; ch++ )

  00027	89 44 24 0c	 mov	 DWORD PTR $T209693[esp+884], eax
  0002b	33 c0		 xor	 eax, eax
  0002d	55		 push	 ebp
  0002e	89 4c 24 14	 mov	 DWORD PTR $T209694[esp+888], ecx
  00032	56		 push	 esi
  00033	57		 push	 edi
  00034	c6 84 24 50 01
	00 00 00	 mov	 BYTE PTR _OneAppletTaskBar$[esp+896], 0
  0003c	b9 4a 00 00 00	 mov	 ecx, 74			; 0000004aH
  00041	8d bc 24 51 01
	00 00		 lea	 edi, DWORD PTR _OneAppletTaskBar$[esp+897]
  00048	f3 ab		 rep stosd
  0004a	66 ab		 stosw
  0004c	aa		 stosb
  0004d	8b b4 24 84 03
	00 00		 mov	 esi, DWORD PTR _pMover$[esp+892]
  00054	8b ac 24 88 03
	00 00		 mov	 ebp, DWORD PTR _szAppletTaskBar$[esp+892]
  0005b	33 c0		 xor	 eax, eax
  0005d	c6 44 24 24 00	 mov	 BYTE PTR _OneItemTaskBar$[esp+896], 0
  00062	b9 4a 00 00 00	 mov	 ecx, 74			; 0000004aH
  00067	8d 7c 24 25	 lea	 edi, DWORD PTR _OneItemTaskBar$[esp+897]
  0006b	f3 ab		 rep stosd
  0006d	66 ab		 stosw
  0006f	aa		 stosb
  00070	33 c0		 xor	 eax, eax
  00072	c6 84 24 7c 02
	00 00 00	 mov	 BYTE PTR _OneSkillTaskBar$[esp+896], 0
  0007a	b9 3f 00 00 00	 mov	 ecx, 63			; 0000003fH
  0007f	8d bc 24 7d 02
	00 00		 lea	 edi, DWORD PTR _OneSkillTaskBar$[esp+897]
  00086	f3 ab		 rep stosd
  00088	66 ab		 stosw
  0008a	89 74 24 14	 mov	 DWORD PTR $T209691[esp+896], esi
  0008e	33 db		 xor	 ebx, ebx
  00090	aa		 stosb
  00091	81 c6 fc 02 00
	00		 add	 esi, 764		; 000002fcH
$L209713:
  00097	8b 46 f0	 mov	 eax, DWORD PTR [esi-16]
  0009a	85 c0		 test	 eax, eax
  0009c	74 74		 je	 SHORT $L208151
  0009e	8b 56 04	 mov	 edx, DWORD PTR [esi+4]
  000a1	8b 0e		 mov	 ecx, DWORD PTR [esi]
  000a3	52		 push	 edx
  000a4	8b 56 fc	 mov	 edx, DWORD PTR [esi-4]
  000a7	51		 push	 ecx
  000a8	8b 4e f8	 mov	 ecx, DWORD PTR [esi-8]
  000ab	52		 push	 edx
  000ac	8b 56 f4	 mov	 edx, DWORD PTR [esi-12]
  000af	51		 push	 ecx
  000b0	52		 push	 edx
  000b1	50		 push	 eax
  000b2	53		 push	 ebx
  000b3	8d 84 24 6c 01
	00 00		 lea	 eax, DWORD PTR _OneAppletTaskBar$[esp+924]
  000ba	68 00 00 00 00	 push	 OFFSET FLAT:??_C@_0BF@ECALHJFL@?$CFd?0?$CFd?0?$CFd?0?$CFd?0?$CFd?0?$CFd?0?$CFd?$AA@
  000bf	50		 push	 eax
  000c0	e8 00 00 00 00	 call	 _sprintf
  000c5	8b 46 f0	 mov	 eax, DWORD PTR [esi-16]
  000c8	83 c4 24	 add	 esp, 36			; 00000024H
  000cb	83 f8 08	 cmp	 eax, 8
  000ce	75 15		 jne	 SHORT $L208155
  000d0	8d 4e 08	 lea	 ecx, DWORD PTR [esi+8]
  000d3	51		 push	 ecx
  000d4	8b 4c 24 24	 mov	 ecx, DWORD PTR $T209690[esp+900]
  000d8	8d 94 24 54 01
	00 00		 lea	 edx, DWORD PTR _OneAppletTaskBar$[esp+900]
  000df	52		 push	 edx
  000e0	e8 00 00 00 00	 call	 ?SetStrDBFormat@CDbManager@@AAEXPADPBD@Z ; CDbManager::SetStrDBFormat
$L208155:
  000e5	68 2c 01 00 00	 push	 300			; 0000012cH
  000ea	8d 84 24 54 01
	00 00		 lea	 eax, DWORD PTR _OneAppletTaskBar$[esp+900]
  000f1	50		 push	 eax
  000f2	55		 push	 ebp
  000f3	e8 00 00 00 00	 call	 _strncat
  000f8	8b fd		 mov	 edi, ebp
  000fa	83 c4 0c	 add	 esp, 12			; 0000000cH
  000fd	4f		 dec	 edi
  000fe	8b ff		 npad	 2
$L209703:
  00100	8a 47 01	 mov	 al, BYTE PTR [edi+1]
  00103	47		 inc	 edi
  00104	84 c0		 test	 al, al
  00106	75 f8		 jne	 SHORT $L209703
  00108	66 8b 0d 00 00
	00 00		 mov	 cx, WORD PTR ??_C@_01KMDKNFGN@?1?$AA@
  0010f	66 89 0f	 mov	 WORD PTR [edi], cx
$L208151:
  00112	43		 inc	 ebx
  00113	81 c6 98 00 00
	00		 add	 esi, 152		; 00000098H
  00119	83 fb 12	 cmp	 ebx, 18			; 00000012H
  0011c	0f 8c 75 ff ff
	ff		 jl	 $L209713
  00122	b8 00 00 00 00	 mov	 eax, OFFSET FLAT:_NullStr
  00127	8b f0		 mov	 esi, eax
  00129	8d a4 24 00 00
	00 00		 npad	 7
$L209704:
  00130	8a 08		 mov	 cl, BYTE PTR [eax]
  00132	40		 inc	 eax
  00133	84 c9		 test	 cl, cl
  00135	75 f9		 jne	 SHORT $L209704
  00137	2b c6		 sub	 eax, esi
  00139	4d		 dec	 ebp
  0013a	8b fd		 mov	 edi, ebp
  0013c	8d 64 24 00	 npad	 4
$L209705:
  00140	8a 4f 01	 mov	 cl, BYTE PTR [edi+1]
  00143	47		 inc	 edi
  00144	84 c9		 test	 cl, cl
  00146	75 f8		 jne	 SHORT $L209705
  00148	8b c8		 mov	 ecx, eax
  0014a	c1 e9 02	 shr	 ecx, 2
  0014d	f3 a5		 rep movsd
  0014f	8b c8		 mov	 ecx, eax
  00151	83 e1 03	 and	 ecx, 3
  00154	f3 a4		 rep movsb
  00156	8b 74 24 14	 mov	 esi, DWORD PTR $T209691[esp+896]
  0015a	33 db		 xor	 ebx, ebx
  0015c	89 5c 24 10	 mov	 DWORD PTR _ch$208149[esp+896], ebx
  00160	81 c6 ac 0d 00
	00		 add	 esi, 3500		; 00000dacH
$L209711:

; 993  : 	{
; 994  : 		for( int j = 0; j < MAX_SLOT_ITEM; j++ )

  00166	33 ed		 xor	 ebp, ebp
  00168	eb 06 8d 9b 00
	00 00 00	 npad	 8
$L209712:

; 995  : 		{
; 996  : 			if( pMover->m_UserTaskBar.m_aSlotItem[ch][j].m_dwShortcut != SHORTCUT_NONE )

  00170	8b 46 f0	 mov	 eax, DWORD PTR [esi-16]
  00173	85 c0		 test	 eax, eax
  00175	0f 84 7e 00 00
	00		 je	 $L208162

; 997  : 			{
; 998  : 				sprintf( OneItemTaskBar, "%d,%d,%d,%d,%d,%d,%d,%d", ch, j,
; 999  : 					pMover->m_UserTaskBar.m_aSlotItem[ch][j].m_dwShortcut, pMover->m_UserTaskBar.m_aSlotItem[ch][j].m_dwId, pMover->m_UserTaskBar.m_aSlotItem[ch][j].m_dwType,
; 1000 : 					pMover->m_UserTaskBar.m_aSlotItem[ch][j].m_dwIndex, pMover->m_UserTaskBar.m_aSlotItem[ch][j].m_dwUserId, pMover->m_UserTaskBar.m_aSlotItem[ch][j].m_dwData );

  0017b	8b 56 04	 mov	 edx, DWORD PTR [esi+4]
  0017e	8b 0e		 mov	 ecx, DWORD PTR [esi]
  00180	52		 push	 edx
  00181	51		 push	 ecx
  00182	8b 4c 24 1c	 mov	 ecx, DWORD PTR $T209691[esp+904]
  00186	8d 54 2b 17	 lea	 edx, DWORD PTR [ebx+ebp+23]
  0018a	69 d2 98 00 00
	00		 imul	 edx, 152		; 00000098H
  00190	8b 14 0a	 mov	 edx, DWORD PTR [edx+ecx]
  00193	8b 4e f8	 mov	 ecx, DWORD PTR [esi-8]
  00196	52		 push	 edx
  00197	8b 56 f4	 mov	 edx, DWORD PTR [esi-12]
  0019a	51		 push	 ecx
  0019b	52		 push	 edx
  0019c	50		 push	 eax
  0019d	8b 44 24 28	 mov	 eax, DWORD PTR _ch$208149[esp+920]
  001a1	55		 push	 ebp
  001a2	50		 push	 eax
  001a3	8d 4c 24 44	 lea	 ecx, DWORD PTR _OneItemTaskBar$[esp+928]
  001a7	68 00 00 00 00	 push	 OFFSET FLAT:??_C@_0BI@NMDFOAAK@?$CFd?0?$CFd?0?$CFd?0?$CFd?0?$CFd?0?$CFd?0?$CFd?0?$CFd?$AA@
  001ac	51		 push	 ecx
  001ad	e8 00 00 00 00	 call	 _sprintf

; 1001 : 				
; 1002 : 				if( pMover->m_UserTaskBar.m_aSlotItem[ch][j].m_dwShortcut == SHORTCUT_CHAT )

  001b2	8b 46 f0	 mov	 eax, DWORD PTR [esi-16]
  001b5	83 c4 28	 add	 esp, 40			; 00000028H
  001b8	83 f8 08	 cmp	 eax, 8
  001bb	75 12		 jne	 SHORT $L208166

; 1003 : 					SetStrDBFormat( OneItemTaskBar, pMover->m_UserTaskBar.m_aSlotItem[ch][j].m_szString );

  001bd	8b 4c 24 20	 mov	 ecx, DWORD PTR $T209690[esp+896]
  001c1	8d 56 08	 lea	 edx, DWORD PTR [esi+8]
  001c4	52		 push	 edx
  001c5	8d 44 24 28	 lea	 eax, DWORD PTR _OneItemTaskBar$[esp+900]
  001c9	50		 push	 eax
  001ca	e8 00 00 00 00	 call	 ?SetStrDBFormat@CDbManager@@AAEXPADPBD@Z ; CDbManager::SetStrDBFormat
$L208166:

; 1004 : 				
; 1005 : 				strncat( szItemTaskBar, OneItemTaskBar, sizeof(OneItemTaskBar) );

  001cf	8b 7c 24 18	 mov	 edi, DWORD PTR $T209693[esp+896]
  001d3	68 2c 01 00 00	 push	 300			; 0000012cH
  001d8	8d 4c 24 28	 lea	 ecx, DWORD PTR _OneItemTaskBar$[esp+900]
  001dc	51		 push	 ecx
  001dd	57		 push	 edi
  001de	e8 00 00 00 00	 call	 _strncat
  001e3	83 c4 0c	 add	 esp, 12			; 0000000cH

; 1006 : 				strcat( szItemTaskBar, "/" );

  001e6	4f		 dec	 edi
$L209706:
  001e7	8a 47 01	 mov	 al, BYTE PTR [edi+1]
  001ea	47		 inc	 edi
  001eb	84 c0		 test	 al, al
  001ed	75 f8		 jne	 SHORT $L209706
  001ef	66 8b 15 00 00
	00 00		 mov	 dx, WORD PTR ??_C@_01KMDKNFGN@?1?$AA@
  001f6	66 89 17	 mov	 WORD PTR [edi], dx
$L208162:
  001f9	45		 inc	 ebp
  001fa	81 c6 98 00 00
	00		 add	 esi, 152		; 00000098H
  00200	83 fd 0a	 cmp	 ebp, 10			; 0000000aH
  00203	0f 8c 67 ff ff
	ff		 jl	 $L209712
  00209	8b 54 24 10	 mov	 edx, DWORD PTR _ch$208149[esp+896]
  0020d	42		 inc	 edx
  0020e	83 c3 0a	 add	 ebx, 10			; 0000000aH
  00211	83 fb 50	 cmp	 ebx, 80			; 00000050H
  00214	89 54 24 10	 mov	 DWORD PTR _ch$208149[esp+896], edx
  00218	0f 8c 48 ff ff
	ff		 jl	 $L209711

; 1007 : 			}
; 1008 : 		}
; 1009 : 	}
; 1010 : 	strcat( szItemTaskBar, NullStr );

  0021e	b8 00 00 00 00	 mov	 eax, OFFSET FLAT:_NullStr
  00223	8b d0		 mov	 edx, eax
$L209707:
  00225	8a 08		 mov	 cl, BYTE PTR [eax]
  00227	40		 inc	 eax
  00228	84 c9		 test	 cl, cl
  0022a	75 f9		 jne	 SHORT $L209707
  0022c	8b 7c 24 18	 mov	 edi, DWORD PTR $T209693[esp+896]
  00230	2b c2		 sub	 eax, edx
  00232	4f		 dec	 edi
$L209708:
  00233	8a 4f 01	 mov	 cl, BYTE PTR [edi+1]
  00236	47		 inc	 edi
  00237	84 c9		 test	 cl, cl
  00239	75 f8		 jne	 SHORT $L209708
  0023b	8b c8		 mov	 ecx, eax
  0023d	c1 e9 02	 shr	 ecx, 2
  00240	8b f2		 mov	 esi, edx
  00242	f3 a5		 rep movsd
  00244	8b c8		 mov	 ecx, eax
  00246	83 e1 03	 and	 ecx, 3
  00249	f3 a4		 rep movsb
  0024b	8b 74 24 14	 mov	 esi, DWORD PTR $T209691[esp+896]

; 1011 : 	
; 1012 : 	for( ch = 0; ch < MAX_SLOT_QUEUE; ch++ )

  0024f	33 ff		 xor	 edi, edi
  00251	81 c6 2c 3d 00
	00		 add	 esi, 15660		; 00003d2cH
$L208167:

; 1013 : 	{
; 1014 : 		if( pMover->m_UserTaskBar.m_aSlotQueue[ch].m_dwShortcut != SHORTCUT_NONE )		//   

  00257	8b 46 f0	 mov	 eax, DWORD PTR [esi-16]
  0025a	85 c0		 test	 eax, eax
  0025c	74 41		 je	 SHORT $L208168

; 1015 : 		{
; 1016 : 			sprintf( OneSkillTaskBar, "%d,%d,%d,%d,%d,%d,%d/", ch,
; 1017 : 				pMover->m_UserTaskBar.m_aSlotQueue[ch].m_dwShortcut, pMover->m_UserTaskBar.m_aSlotQueue[ch].m_dwId, pMover->m_UserTaskBar.m_aSlotQueue[ch].m_dwType,
; 1018 : 				pMover->m_UserTaskBar.m_aSlotQueue[ch].m_dwIndex, pMover->m_UserTaskBar.m_aSlotQueue[ch].m_dwUserId, pMover->m_UserTaskBar.m_aSlotQueue[ch].m_dwData );

  0025e	8b 4e 04	 mov	 ecx, DWORD PTR [esi+4]
  00261	8b 16		 mov	 edx, DWORD PTR [esi]
  00263	51		 push	 ecx
  00264	8b 4e fc	 mov	 ecx, DWORD PTR [esi-4]
  00267	52		 push	 edx
  00268	8b 56 f8	 mov	 edx, DWORD PTR [esi-8]
  0026b	51		 push	 ecx
  0026c	8b 4e f4	 mov	 ecx, DWORD PTR [esi-12]
  0026f	52		 push	 edx
  00270	51		 push	 ecx
  00271	50		 push	 eax
  00272	57		 push	 edi
  00273	8d 94 24 98 02
	00 00		 lea	 edx, DWORD PTR _OneSkillTaskBar$[esp+924]
  0027a	68 00 00 00 00	 push	 OFFSET FLAT:??_C@_0BG@OOOHLLGI@?$CFd?0?$CFd?0?$CFd?0?$CFd?0?$CFd?0?$CFd?0?$CFd?1?$AA@
  0027f	52		 push	 edx
  00280	e8 00 00 00 00	 call	 _sprintf

; 1019 : 			strncat( szSkillTaskBar, OneSkillTaskBar, sizeof( OneSkillTaskBar ) );

  00285	8b 4c 24 40	 mov	 ecx, DWORD PTR $T209694[esp+932]
  00289	68 00 01 00 00	 push	 256			; 00000100H
  0028e	8d 84 24 a4 02
	00 00		 lea	 eax, DWORD PTR _OneSkillTaskBar$[esp+936]
  00295	50		 push	 eax
  00296	51		 push	 ecx
  00297	e8 00 00 00 00	 call	 _strncat
  0029c	83 c4 30	 add	 esp, 48			; 00000030H
$L208168:
  0029f	47		 inc	 edi
  002a0	81 c6 98 00 00
	00		 add	 esi, 152		; 00000098H
  002a6	83 ff 06	 cmp	 edi, 6
  002a9	7c ac		 jl	 SHORT $L208167

; 1020 : 		}			
; 1021 : 	}
; 1022 : 	strcat( szSkillTaskBar, NullStr );

  002ab	b8 00 00 00 00	 mov	 eax, OFFSET FLAT:_NullStr
  002b0	8b d0		 mov	 edx, eax
$L209709:
  002b2	8a 08		 mov	 cl, BYTE PTR [eax]
  002b4	40		 inc	 eax
  002b5	84 c9		 test	 cl, cl
  002b7	75 f9		 jne	 SHORT $L209709
  002b9	8b 7c 24 1c	 mov	 edi, DWORD PTR $T209694[esp+896]
  002bd	2b c2		 sub	 eax, edx
  002bf	4f		 dec	 edi
$L209710:
  002c0	8a 4f 01	 mov	 cl, BYTE PTR [edi+1]
  002c3	47		 inc	 edi
  002c4	84 c9		 test	 cl, cl
  002c6	75 f8		 jne	 SHORT $L209710
  002c8	8b c8		 mov	 ecx, eax
  002ca	c1 e9 02	 shr	 ecx, 2
  002cd	8b f2		 mov	 esi, edx
  002cf	f3 a5		 rep movsd
  002d1	8b c8		 mov	 ecx, eax
  002d3	83 e1 03	 and	 ecx, 3
  002d6	f3 a4		 rep movsb

; 1023 : }

  002d8	8b 8c 24 7c 03
	00 00		 mov	 ecx, DWORD PTR __$ArrayPad$[esp+896]
  002df	5f		 pop	 edi
  002e0	5e		 pop	 esi
  002e1	5d		 pop	 ebp
  002e2	5b		 pop	 ebx
  002e3	33 cc		 xor	 ecx, esp
  002e5	e8 00 00 00 00	 call	 @__security_check_cookie@4
  002ea	81 c4 70 03 00
	00		 add	 esp, 880		; 00000370H
  002f0	c2 10 00	 ret	 16			; 00000010H
?SaveTaskBar@CDbManager@@QAEXPAVCMover@@PAD11@Z ENDP	; CDbManager::SaveTaskBar
_TEXT	ENDS
PUBLIC	??_C@_06IJEBOOKN@?$CFd?0?$CFd?0?$AA@		; `string'
PUBLIC	??_C@_03DPLIHHLN@?$CFd?0?$AA@			; `string'
PUBLIC	?SaveSMCode@CDbManager@@QAEXPAVCMover@@PAD@Z	; CDbManager::SaveSMCode
;	COMDAT ??_C@_06IJEBOOKN@?$CFd?0?$CFd?0?$AA@
CONST	SEGMENT
??_C@_06IJEBOOKN@?$CFd?0?$CFd?0?$AA@ DB '%d,%d,', 00H	; `string'
CONST	ENDS
;	COMDAT ??_C@_03DPLIHHLN@?$CFd?0?$AA@
CONST	SEGMENT
??_C@_03DPLIHHLN@?$CFd?0?$AA@ DB '%d,', 00H		; `string'
; Function compile flags: /Ogty
CONST	ENDS
;	COMDAT ?SaveSMCode@CDbManager@@QAEXPAVCMover@@PAD@Z
_TEXT	SEGMENT
_bSMSave$ = -276					; size = 4
$T209719 = -272						; size = 4
$T209718 = -268						; size = 4
_OneSMTime$208183 = -264				; size = 256
__$ArrayPad$ = -4					; size = 4
__$ReturnAddr$ = 4					; size = 4
_pMover$ = 8						; size = 4
_szszSMTime$ = 12					; size = 4
?SaveSMCode@CDbManager@@QAEXPAVCMover@@PAD@Z PROC NEAR	; CDbManager::SaveSMCode, COMDAT
; _this$ = ecx

; 1026 : {

  00000	55		 push	 ebp
  00001	8b ec		 mov	 ebp, esp
  00003	83 e4 f8	 and	 esp, -8			; fffffff8H
  00006	81 ec 14 01 00
	00		 sub	 esp, 276		; 00000114H
  0000c	a1 00 00 00 00	 mov	 eax, DWORD PTR ___security_cookie
  00011	8b 55 08	 mov	 edx, DWORD PTR _pMover$[ebp]
  00014	33 c5		 xor	 eax, ebp
  00016	53		 push	 ebx
  00017	89 84 24 14 01
	00 00		 mov	 DWORD PTR __$ArrayPad$[esp+280], eax

; 1057 : 		}
; 1058 : 		strcat( szszSMTime, OneSMTime );

  0001e	8b 45 0c	 mov	 eax, DWORD PTR _szszSMTime$[ebp]
  00021	56		 push	 esi
  00022	33 db		 xor	 ebx, ebx
  00024	57		 push	 edi
  00025	89 54 24 14	 mov	 DWORD PTR $T209718[esp+288], edx
  00029	89 44 24 10	 mov	 DWORD PTR $T209719[esp+288], eax
  0002d	89 5c 24 0c	 mov	 DWORD PTR _bSMSave$[esp+288], ebx
  00031	eb 0d		 jmp	 SHORT $L208179
$L209726:

; 1027 : 	BOOL bSMSave = FALSE;
; 1028 : 	for( int ch = 0 ; ch < SM_MAX ; ++ch )

  00033	8b 54 24 14	 mov	 edx, DWORD PTR $T209718[esp+288]
  00037	eb 07 8d a4 24
	00 00 00 00	 npad	 9
$L208179:

; 1029 : 	{
; 1030 : 		if( 0 < pMover->m_dwSMTime[ch] )

  00040	8b b4 9a a4 44
	00 00		 mov	 esi, DWORD PTR [edx+ebx*4+17572]
  00047	85 f6		 test	 esi, esi
  00049	76 08		 jbe	 SHORT $L208182

; 1031 : 		{
; 1032 : 			bSMSave = TRUE;

  0004b	c7 44 24 0c 01
	00 00 00	 mov	 DWORD PTR _bSMSave$[esp+288], 1
$L208182:

; 1033 : 		}
; 1034 : 		char OneSMTime[256] = { 0, };

  00053	33 c0		 xor	 eax, eax

; 1035 : 		if( ch == SM_MAX_HP50 )

  00055	83 fb 09	 cmp	 ebx, 9
  00058	c6 44 24 18 00	 mov	 BYTE PTR _OneSMTime$208183[esp+288], 0
  0005d	b9 3f 00 00 00	 mov	 ecx, 63			; 0000003fH
  00062	8d 7c 24 19	 lea	 edi, DWORD PTR _OneSMTime$208183[esp+289]
  00066	f3 ab		 rep stosd
  00068	66 ab		 stosw
  0006a	aa		 stosb
  0006b	75 22		 jne	 SHORT $L208184

; 1036 : 		{
; 1037 : 			sprintf( OneSMTime, "%d,%d,", pMover->m_dwSMTime[ch], pMover->m_nPlusMaxHitPoint );

  0006d	8b 8a a0 44 00
	00		 mov	 ecx, DWORD PTR [edx+17568]
  00073	8b 92 c8 44 00
	00		 mov	 edx, DWORD PTR [edx+17608]
$L209729:
  00079	51		 push	 ecx
  0007a	52		 push	 edx
  0007b	8d 44 24 20	 lea	 eax, DWORD PTR _OneSMTime$208183[esp+296]
  0007f	68 00 00 00 00	 push	 OFFSET FLAT:??_C@_06IJEBOOKN@?$CFd?0?$CFd?0?$AA@
  00084	50		 push	 eax
  00085	e8 00 00 00 00	 call	 _sprintf
  0008a	83 c4 10	 add	 esp, 16			; 00000010H

; 1038 : 		}
; 1039 : 		else

  0008d	eb 4f		 jmp	 SHORT $L208192
$L208184:

; 1040 : 		if( ch == SM_RESIST_ATTACK_LEFT )

  0008f	83 fb 10	 cmp	 ebx, 16			; 00000010H
  00092	75 0f		 jne	 SHORT $L208187

; 1041 : 		{
; 1042 : 			sprintf( OneSMTime, "%d,%d,", pMover->m_dwSMTime[ch], pMover->m_nAttackResistLeft );

  00094	0f b6 8a 0c 45
	00 00		 movzx	 ecx, BYTE PTR [edx+17676]
  0009b	8b 92 e4 44 00
	00		 mov	 edx, DWORD PTR [edx+17636]

; 1043 : 		}
; 1044 : 		else

  000a1	eb d6		 jmp	 SHORT $L209729
$L208187:

; 1045 : 		if( ch == SM_RESIST_ATTACK_RIGHT )

  000a3	83 fb 11	 cmp	 ebx, 17			; 00000011H
  000a6	75 0f		 jne	 SHORT $L208189

; 1046 : 		{
; 1047 : 			sprintf( OneSMTime, "%d,%d,", pMover->m_dwSMTime[ch], pMover->m_nAttackResistRight );

  000a8	0f b6 8a 0d 45
	00 00		 movzx	 ecx, BYTE PTR [edx+17677]
  000af	8b 92 e8 44 00
	00		 mov	 edx, DWORD PTR [edx+17640]

; 1048 : 		}
; 1049 : 		else

  000b5	eb c2		 jmp	 SHORT $L209729
$L208189:

; 1050 : 		if( ch == SM_RESIST_DEFENSE )

  000b7	83 fb 12	 cmp	 ebx, 18			; 00000012H
  000ba	75 0f		 jne	 SHORT $L208191

; 1051 : 		{
; 1052 : 			sprintf( OneSMTime, "%d,%d,", pMover->m_dwSMTime[ch], pMover->m_nDefenseResist );

  000bc	0f b6 8a 0e 45
	00 00		 movzx	 ecx, BYTE PTR [edx+17678]
  000c3	8b 92 ec 44 00
	00		 mov	 edx, DWORD PTR [edx+17644]

; 1053 : 		}
; 1054 : 		else

  000c9	eb ae		 jmp	 SHORT $L209729
$L208191:

; 1055 : 		{
; 1056 : 			sprintf( OneSMTime, "%d,", pMover->m_dwSMTime[ch] );

  000cb	56		 push	 esi
  000cc	8d 4c 24 1c	 lea	 ecx, DWORD PTR _OneSMTime$208183[esp+292]
  000d0	68 00 00 00 00	 push	 OFFSET FLAT:??_C@_03DPLIHHLN@?$CFd?0?$AA@
  000d5	51		 push	 ecx
  000d6	e8 00 00 00 00	 call	 _sprintf
  000db	83 c4 0c	 add	 esp, 12			; 0000000cH
$L208192:

; 1057 : 		}
; 1058 : 		strcat( szszSMTime, OneSMTime );

  000de	8d 44 24 18	 lea	 eax, DWORD PTR _OneSMTime$208183[esp+288]
  000e2	8b d0		 mov	 edx, eax
$L209722:
  000e4	8a 08		 mov	 cl, BYTE PTR [eax]
  000e6	40		 inc	 eax
  000e7	84 c9		 test	 cl, cl
  000e9	75 f9		 jne	 SHORT $L209722
  000eb	8b 7c 24 10	 mov	 edi, DWORD PTR $T209719[esp+288]
  000ef	2b c2		 sub	 eax, edx
  000f1	4f		 dec	 edi
$L209723:
  000f2	8a 4f 01	 mov	 cl, BYTE PTR [edi+1]
  000f5	47		 inc	 edi
  000f6	84 c9		 test	 cl, cl
  000f8	75 f8		 jne	 SHORT $L209723
  000fa	8b c8		 mov	 ecx, eax
  000fc	c1 e9 02	 shr	 ecx, 2
  000ff	8b f2		 mov	 esi, edx
  00101	f3 a5		 rep movsd
  00103	8b c8		 mov	 ecx, eax
  00105	83 e1 03	 and	 ecx, 3
  00108	43		 inc	 ebx
  00109	83 fb 1a	 cmp	 ebx, 26			; 0000001aH
  0010c	f3 a4		 rep movsb
  0010e	0f 8c 1f ff ff
	ff		 jl	 $L209726

; 1059 : 	}
; 1060 : 	strcat( szszSMTime, NullStr );

  00114	b8 00 00 00 00	 mov	 eax, OFFSET FLAT:_NullStr
  00119	8b d0		 mov	 edx, eax
  0011b	eb 03 8d 49 00	 npad	 5
$L209724:
  00120	8a 08		 mov	 cl, BYTE PTR [eax]
  00122	40		 inc	 eax
  00123	84 c9		 test	 cl, cl
  00125	75 f9		 jne	 SHORT $L209724
  00127	8b 5c 24 10	 mov	 ebx, DWORD PTR $T209719[esp+288]
  0012b	8b fb		 mov	 edi, ebx
  0012d	2b c2		 sub	 eax, edx
  0012f	4f		 dec	 edi
$L209725:
  00130	8a 4f 01	 mov	 cl, BYTE PTR [edi+1]
  00133	47		 inc	 edi
  00134	84 c9		 test	 cl, cl
  00136	75 f8		 jne	 SHORT $L209725
  00138	8b c8		 mov	 ecx, eax
  0013a	c1 e9 02	 shr	 ecx, 2
  0013d	8b f2		 mov	 esi, edx
  0013f	f3 a5		 rep movsd
  00141	8b c8		 mov	 ecx, eax

; 1061 : 	
; 1062 : 	if( bSMSave == FALSE )

  00143	8b 44 24 0c	 mov	 eax, DWORD PTR _bSMSave$[esp+288]
  00147	83 e1 03	 and	 ecx, 3
  0014a	85 c0		 test	 eax, eax
  0014c	f3 a4		 rep movsb
  0014e	75 06		 jne	 SHORT $L208194

; 1063 : 	{
; 1064 : 		memset( szszSMTime, 0, sizeof( szszSMTime ) );

  00150	c7 03 00 00 00
	00		 mov	 DWORD PTR [ebx], 0
$L208194:

; 1065 : 	}
; 1066 : }

  00156	8b 8c 24 1c 01
	00 00		 mov	 ecx, DWORD PTR __$ArrayPad$[esp+288]
  0015d	5f		 pop	 edi
  0015e	5e		 pop	 esi
  0015f	33 cd		 xor	 ecx, ebp
  00161	5b		 pop	 ebx
  00162	e8 00 00 00 00	 call	 @__security_check_cookie@4
  00167	8b e5		 mov	 esp, ebp
  00169	5d		 pop	 ebp
  0016a	c2 08 00	 ret	 8
?SaveSMCode@CDbManager@@QAEXPAVCMover@@PAD@Z ENDP	; CDbManager::SaveSMCode
_TEXT	ENDS
PUBLIC	?SaveSkillInfluence@CDbManager@@QAEXPAVCMover@@PAD@Z ; CDbManager::SaveSkillInfluence
EXTRN	?ToString@CBuffMgr@@QAEXPAD@Z:NEAR		; CBuffMgr::ToString
; Function compile flags: /Ogty
;	COMDAT ?SaveSkillInfluence@CDbManager@@QAEXPAVCMover@@PAD@Z
_TEXT	SEGMENT
_pMover$ = 8						; size = 4
_szszSkillInfluence$ = 12				; size = 4
?SaveSkillInfluence@CDbManager@@QAEXPAVCMover@@PAD@Z PROC NEAR ; CDbManager::SaveSkillInfluence, COMDAT
; _this$ = ecx

; 1070 : #ifdef __BUFF_1107
; 1071 : 	pMover->m_buffs.ToString( szszSkillInfluence );

  00000	8b 44 24 08	 mov	 eax, DWORD PTR _szszSkillInfluence$[esp-4]
  00004	8b 4c 24 04	 mov	 ecx, DWORD PTR _pMover$[esp-4]
  00008	50		 push	 eax
  00009	81 c1 10 45 00
	00		 add	 ecx, 17680		; 00004510H
  0000f	e8 00 00 00 00	 call	 ?ToString@CBuffMgr@@QAEXPAD@Z ; CBuffMgr::ToString

; 1072 : #else	// __BUFF_1107
; 1073 : 	char OneSkillInfluence[256] = { 0, };
; 1074 : 	for( int ch = 0 ; ch < MAX_SKILLINFLUENCE ; ++ ch )
; 1075 : 	{
; 1076 : 		SKILLINFLUENCE* pSkillInfluenece = &pMover->m_SkillState.m_aSkillInfluence[ch];
; 1077 : 		if( pSkillInfluenece->wType == BUFF_EQUIP )
; 1078 : 			continue;
; 1079 : #if __VER >= 13 // __HOUSING
; 1080 : 		if( pSkillInfluenece->wType == 0 && pSkillInfluenece->wID == 0
; 1081 : 			&& pSkillInfluenece->dwLevel == 0 && pSkillInfluenece->tmCount == 0 )
; 1082 : 			break;
; 1083 : #endif // __HOUSING
; 1084 : 		sprintf( OneSkillInfluence, "%d,%d,%d,%d/", 
; 1085 : 			pSkillInfluenece->wType, pSkillInfluenece->wID,
; 1086 : 			pSkillInfluenece->dwLevel, pSkillInfluenece->tmCount );
; 1087 : 		strcat( szszSkillInfluence, OneSkillInfluence );
; 1088 : 	}
; 1089 : 	strcat( szszSkillInfluence, NullStr );
; 1090 : #endif	// __BUFF_1107
; 1091 : }

  00014	c2 08 00	 ret	 8
?SaveSkillInfluence@CDbManager@@QAEXPAVCMover@@PAD@Z ENDP ; CDbManager::SaveSkillInfluence
_TEXT	ENDS
PUBLIC	??_C@_0DN@DMOMIHCK@?$HLcall?5ADD_BANK_STR?$CI?8U1?8?0?8?$CF07d?8?0?8@ ; `string'
PUBLIC	?DBQryAddBankSave@CDbManager@@QAEXPADABUADDBANK_QUERYINFO@@@Z ; CDbManager::DBQryAddBankSave
;	COMDAT ??_C@_0DN@DMOMIHCK@?$HLcall?5ADD_BANK_STR?$CI?8U1?8?0?8?$CF07d?8?0?8@
CONST	SEGMENT
??_C@_0DN@DMOMIHCK@?$HLcall?5ADD_BANK_STR?$CI?8U1?8?0?8?$CF07d?8?0?8@ DB '{'
	DB	'call ADD_BANK_STR(''U1'',''%07d'',''%02d'', ?, ?, ?, ?, ?, ?,'
	DB	' ?)}', 00H					; `string'
; Function compile flags: /Ogty
CONST	ENDS
;	COMDAT ?DBQryAddBankSave@CDbManager@@QAEXPADABUADDBANK_QUERYINFO@@@Z
_TEXT	SEGMENT
_szSql$ = 8						; size = 4
_info$ = 12						; size = 4
?DBQryAddBankSave@CDbManager@@QAEXPADABUADDBANK_QUERYINFO@@@Z PROC NEAR ; CDbManager::DBQryAddBankSave, COMDAT
; _this$ = ecx

; 1117 : 		sprintf( szSql, "{call ADD_BANK_STR('U1','%07d','%02d', ?, ?, ?, ?, ?, ?, ?)}", info.idPlayer, g_appInfo.dwSys ); 

  00000	a1 00 00 00 00	 mov	 eax, DWORD PTR ?g_appInfo@@3UAppInfo@@A
  00005	8b 4c 24 08	 mov	 ecx, DWORD PTR _info$[esp-4]
  00009	8b 51 04	 mov	 edx, DWORD PTR [ecx+4]
  0000c	50		 push	 eax
  0000d	8b 44 24 08	 mov	 eax, DWORD PTR _szSql$[esp]
  00011	52		 push	 edx
  00012	68 00 00 00 00	 push	 OFFSET FLAT:??_C@_0DN@DMOMIHCK@?$HLcall?5ADD_BANK_STR?$CI?8U1?8?0?8?$CF07d?8?0?8@
  00017	50		 push	 eax
  00018	e8 00 00 00 00	 call	 _sprintf
  0001d	83 c4 10	 add	 esp, 16			; 00000010H

; 1118 : }

  00020	c2 08 00	 ret	 8
?DBQryAddBankSave@CDbManager@@QAEXPADABUADDBANK_QUERYINFO@@@Z ENDP ; CDbManager::DBQryAddBankSave
_TEXT	ENDS
PUBLIC	??_C@_0EC@CHCDNIKK@?$HLcall?5uspSavePocket?$CI?5?8?$CF02d?8?0?5?8?$CF0@ ; `string'
PUBLIC	?MakeQueryPocket@CDbManager@@QAEXPADABU_PocketParam@@@Z ; CDbManager::MakeQueryPocket
;	COMDAT ??_C@_0EC@CHCDNIKK@?$HLcall?5uspSavePocket?$CI?5?8?$CF02d?8?0?5?8?$CF0@
CONST	SEGMENT
??_C@_0EC@CHCDNIKK@?$HLcall?5uspSavePocket?$CI?5?8?$CF02d?8?0?5?8?$CF0@ DB '{'
	DB	'call uspSavePocket( ''%02d'', ''%07d'', ?, ?, ?, ?, ?, ?, ?, '
	DB	'?, ?) }', 00H				; `string'
; Function compile flags: /Ogty
CONST	ENDS
;	COMDAT ?MakeQueryPocket@CDbManager@@QAEXPADABU_PocketParam@@@Z
_TEXT	SEGMENT
_szQuery$ = 8						; size = 4
_p$ = 12						; size = 4
?MakeQueryPocket@CDbManager@@QAEXPADABU_PocketParam@@@Z PROC NEAR ; CDbManager::MakeQueryPocket, COMDAT
; _this$ = ecx

; 1123 : 	sprintf( szQuery, "{call uspSavePocket( '%02d', '%07d', ?, ?, ?, ?, ?, ?, ?, ?, ?) }", g_appInfo.dwSys, p.idPlayer );

  00000	8b 44 24 08	 mov	 eax, DWORD PTR _p$[esp-4]
  00004	8b 08		 mov	 ecx, DWORD PTR [eax]
  00006	8b 15 00 00 00
	00		 mov	 edx, DWORD PTR ?g_appInfo@@3UAppInfo@@A
  0000c	8b 44 24 04	 mov	 eax, DWORD PTR _szQuery$[esp-4]
  00010	51		 push	 ecx
  00011	52		 push	 edx
  00012	68 00 00 00 00	 push	 OFFSET FLAT:??_C@_0EC@CHCDNIKK@?$HLcall?5uspSavePocket?$CI?5?8?$CF02d?8?0?5?8?$CF0@
  00017	50		 push	 eax
  00018	e8 00 00 00 00	 call	 _sprintf
  0001d	83 c4 10	 add	 esp, 16			; 00000010H

; 1124 : }

  00020	c2 08 00	 ret	 8
?MakeQueryPocket@CDbManager@@QAEXPADABU_PocketParam@@@Z ENDP ; CDbManager::MakeQueryPocket
_TEXT	ENDS
PUBLIC	?IsUltimate@ItemProp@@QAEHXZ			; ItemProp::IsUltimate
; Function compile flags: /Ogty
; File c:\documents and settings\test\mes documents\source\virtuos_v17\build\program\_common\projectcmn.h
;	COMDAT ?IsUltimate@ItemProp@@QAEHXZ
_TEXT	SEGMENT
?IsUltimate@ItemProp@@QAEHXZ PROC NEAR			; ItemProp::IsUltimate, COMDAT
; _this$ = ecx

; 457  : 			return( 
; 458  : 					(
; 459  : 						dwItemKind2 == IK2_WEAPON_DIRECT
; 460  : 						|| dwItemKind2 == IK2_WEAPON_MAGIC
; 461  : 					)
; 462  : 				&& dwReferStat1 == WEAPON_ULTIMATE
; 463  : 			);

  00000	8b 41 74	 mov	 eax, DWORD PTR [ecx+116]
  00003	83 f8 02	 cmp	 eax, 2
  00006	74 05		 je	 SHORT $L209737
  00008	83 f8 03	 cmp	 eax, 3
  0000b	75 0f		 jne	 SHORT $L209738
$L209737:
  0000d	83 b9 00 02 00
	00 02		 cmp	 DWORD PTR [ecx+512], 2
  00014	75 06		 jne	 SHORT $L209738
  00016	b8 01 00 00 00	 mov	 eax, 1

; 464  : 		}

  0001b	c3		 ret	 0
$L209738:

; 457  : 			return( 
; 458  : 					(
; 459  : 						dwItemKind2 == IK2_WEAPON_DIRECT
; 460  : 						|| dwItemKind2 == IK2_WEAPON_MAGIC
; 461  : 					)
; 462  : 				&& dwReferStat1 == WEAPON_ULTIMATE
; 463  : 			);

  0001c	33 c0		 xor	 eax, eax

; 464  : 		}

  0001e	c3		 ret	 0
?IsUltimate@ItemProp@@QAEHXZ ENDP			; ItemProp::IsUltimate
_TEXT	ENDS
PUBLIC	?IsVisPet@ItemProp@@QAEHXZ			; ItemProp::IsVisPet
; Function compile flags: /Ogty
;	COMDAT ?IsVisPet@ItemProp@@QAEHXZ
_TEXT	SEGMENT
?IsVisPet@ItemProp@@QAEHXZ PROC NEAR			; ItemProp::IsVisPet, COMDAT
; _this$ = ecx

; 509  : 	BOOL	IsVisPet()	{ return (dwItemKind3 == IK3_PET) && (dwReferStat1 == PET_VIS); }

  00000	83 79 78 64	 cmp	 DWORD PTR [ecx+120], 100 ; 00000064H
  00004	75 0f		 jne	 SHORT $L209742
  00006	8b 91 00 02 00
	00		 mov	 edx, DWORD PTR [ecx+512]
  0000c	b8 01 00 00 00	 mov	 eax, 1
  00011	3b d0		 cmp	 edx, eax
  00013	74 02		 je	 SHORT $L209743
$L209742:
  00015	33 c0		 xor	 eax, eax
$L209743:
  00017	c3		 ret	 0
?IsVisPet@ItemProp@@QAEHXZ ENDP				; ItemProp::IsVisPet
_TEXT	ENDS
PUBLIC	??5CAr@@QAEAAV0@AAK@Z				; CAr::operator>>
; Function compile flags: /Ogty
; File c:\documents and settings\test\mes documents\source\virtuos_v17\build\program\_network\misc\include\ar.h
;	COMDAT ??5CAr@@QAEAAV0@AAK@Z
_TEXT	SEGMENT
_dw$ = 8						; size = 4
??5CAr@@QAEAAV0@AAK@Z PROC NEAR				; CAr::operator>>, COMDAT
; _this$ = ecx

; 146  : 	{	CAR_SAFE_READ( DWORD, dw );	}

  00000	8b c1		 mov	 eax, ecx
  00002	8b 48 08	 mov	 ecx, DWORD PTR [eax+8]
  00005	56		 push	 esi
  00006	8b 70 0c	 mov	 esi, DWORD PTR [eax+12]
  00009	8d 51 04	 lea	 edx, DWORD PTR [ecx+4]
  0000c	3b d6		 cmp	 edx, esi
  0000e	5e		 pop	 esi
  0000f	77 0f		 ja	 SHORT $L162868
  00011	8b 09		 mov	 ecx, DWORD PTR [ecx]
  00013	8b 54 24 04	 mov	 edx, DWORD PTR _dw$[esp-4]
  00017	89 0a		 mov	 DWORD PTR [edx], ecx
  00019	83 40 08 04	 add	 DWORD PTR [eax+8], 4
  0001d	c2 04 00	 ret	 4
$L162868:
  00020	8b 4c 24 04	 mov	 ecx, DWORD PTR _dw$[esp-4]
  00024	c7 01 00 00 00
	00		 mov	 DWORD PTR [ecx], 0
  0002a	8b 50 0c	 mov	 edx, DWORD PTR [eax+12]
  0002d	89 50 08	 mov	 DWORD PTR [eax+8], edx
  00030	c2 04 00	 ret	 4
??5CAr@@QAEAAV0@AAK@Z ENDP				; CAr::operator>>
_TEXT	ENDS
PUBLIC	?GetState@CRTMessenger@@QAEKXZ			; CRTMessenger::GetState
; Function compile flags: /Ogty
; File c:\documents and settings\test\mes documents\source\virtuos_v17\build\program\_common\rtmessenger.h
;	COMDAT ?GetState@CRTMessenger@@QAEKXZ
_TEXT	SEGMENT
?GetState@CRTMessenger@@QAEKXZ PROC NEAR		; CRTMessenger::GetState, COMDAT
; _this$ = ecx

; 31   : 	DWORD	GetState( void )	{	return m_dwState;	}

  00000	8b 41 10	 mov	 eax, DWORD PTR [ecx+16]
  00003	c3		 ret	 0
?GetState@CRTMessenger@@QAEKXZ ENDP			; CRTMessenger::GetState
_TEXT	ENDS
PUBLIC	?GetKind@CPet@@QAEEXZ				; CPet::GetKind
; Function compile flags: /Ogty
; File c:\documents and settings\test\mes documents\source\virtuos_v17\build\program\_common\pet.h
;	COMDAT ?GetKind@CPet@@QAEEXZ
_TEXT	SEGMENT
?GetKind@CPet@@QAEEXZ PROC NEAR				; CPet::GetKind, COMDAT
; _this$ = ecx

; 132  : 	BYTE	GetKind( void )	{	return m_nKind;	}

  00000	8a 41 04	 mov	 al, BYTE PTR [ecx+4]
  00003	c3		 ret	 0
?GetKind@CPet@@QAEEXZ ENDP				; CPet::GetKind
_TEXT	ENDS
PUBLIC	?GetLevel@CPet@@QAEEXZ				; CPet::GetLevel
; Function compile flags: /Ogty
;	COMDAT ?GetLevel@CPet@@QAEEXZ
_TEXT	SEGMENT
?GetLevel@CPet@@QAEEXZ PROC NEAR			; CPet::GetLevel, COMDAT
; _this$ = ecx

; 134  : 	BYTE	GetLevel( void )	{	return m_nLevel;	}

  00000	8a 41 05	 mov	 al, BYTE PTR [ecx+5]
  00003	c3		 ret	 0
?GetLevel@CPet@@QAEEXZ ENDP				; CPet::GetLevel
_TEXT	ENDS
PUBLIC	?GetExp@CPet@@QAEKXZ				; CPet::GetExp
; Function compile flags: /Ogty
;	COMDAT ?GetExp@CPet@@QAEKXZ
_TEXT	SEGMENT
?GetExp@CPet@@QAEKXZ PROC NEAR				; CPet::GetExp, COMDAT
; _this$ = ecx

; 137  : 	DWORD	GetExp( void )	{	return m_dwExp;		}

  00000	8b 41 08	 mov	 eax, DWORD PTR [ecx+8]
  00003	c3		 ret	 0
?GetExp@CPet@@QAEKXZ ENDP				; CPet::GetExp
_TEXT	ENDS
PUBLIC	?GetEnergy@CPet@@QAEGXZ				; CPet::GetEnergy
; Function compile flags: /Ogty
;	COMDAT ?GetEnergy@CPet@@QAEGXZ
_TEXT	SEGMENT
?GetEnergy@CPet@@QAEGXZ PROC NEAR			; CPet::GetEnergy, COMDAT
; _this$ = ecx

; 141  : 	WORD	GetEnergy( void )	{	return m_wEnergy;	}

  00000	66 8b 41 0c	 mov	 ax, WORD PTR [ecx+12]
  00004	c3		 ret	 0
?GetEnergy@CPet@@QAEGXZ ENDP				; CPet::GetEnergy
_TEXT	ENDS
PUBLIC	?GetName@CPet@@QAEPBDXZ				; CPet::GetName
; Function compile flags: /Ogty
;	COMDAT ?GetName@CPet@@QAEPBDXZ
_TEXT	SEGMENT
?GetName@CPet@@QAEPBDXZ PROC NEAR			; CPet::GetName, COMDAT
; _this$ = ecx

; 149  : 	const char*	GetName()	{	return m_szName;	}

  00000	8d 41 16	 lea	 eax, DWORD PTR [ecx+22]
  00003	c3		 ret	 0
?GetName@CPet@@QAEPBDXZ ENDP				; CPet::GetName
_TEXT	ENDS
PUBLIC	?GetLayer@CObj@@QAEHXZ				; CObj::GetLayer
; Function compile flags: /Ogty
; File c:\documents and settings\test\mes documents\source\virtuos_v17\build\program\_network\objects\obj.h
;	COMDAT ?GetLayer@CObj@@QAEHXZ
_TEXT	SEGMENT
?GetLayer@CObj@@QAEHXZ PROC NEAR			; CObj::GetLayer, COMDAT
; _this$ = ecx

; 94   : 	int		GetLayer()	{	return m_nLayer;	}

  00000	8b 41 2c	 mov	 eax, DWORD PTR [ecx+44]
  00003	c3		 ret	 0
?GetLayer@CObj@@QAEHXZ ENDP				; CObj::GetLayer
_TEXT	ENDS
PUBLIC	?IsEmpty@CItemBase@@QAEHXZ			; CItemBase::IsEmpty
; Function compile flags: /Ogty
;	COMDAT ?IsEmpty@CItemBase@@QAEHXZ
_TEXT	SEGMENT
?IsEmpty@CItemBase@@QAEHXZ PROC NEAR			; CItemBase::IsEmpty, COMDAT
; _this$ = ecx

; 133  : 	BOOL	IsEmpty()	{	return m_dwItemId ? FALSE : TRUE;	}

  00000	8b 51 08	 mov	 edx, DWORD PTR [ecx+8]
  00003	33 c0		 xor	 eax, eax
  00005	85 d2		 test	 edx, edx
  00007	0f 94 c0	 sete	 al
  0000a	c3		 ret	 0
?IsEmpty@CItemBase@@QAEHXZ ENDP				; CItemBase::IsEmpty
_TEXT	ENDS
PUBLIC	?GetSerialNumber@CItemBase@@QAEKXZ		; CItemBase::GetSerialNumber
; Function compile flags: /Ogty
;	COMDAT ?GetSerialNumber@CItemBase@@QAEKXZ
_TEXT	SEGMENT
?GetSerialNumber@CItemBase@@QAEKXZ PROC NEAR		; CItemBase::GetSerialNumber, COMDAT
; _this$ = ecx

; 142  : 	SERIALNUMBER	GetSerialNumber( void )	{	return m_liSerialNumber;	}

  00000	8b 41 30	 mov	 eax, DWORD PTR [ecx+48]
  00003	c3		 ret	 0
?GetSerialNumber@CItemBase@@QAEKXZ ENDP			; CItemBase::GetSerialNumber
_TEXT	ENDS
PUBLIC	?GetPiercingSize@CItemElem@@QAEHXZ		; CItemElem::GetPiercingSize
EXTRN	?GetPiercingSize@CPiercing@@QAEHXZ:NEAR		; CPiercing::GetPiercingSize
; Function compile flags: /Ogty
;	COMDAT ?GetPiercingSize@CItemElem@@QAEHXZ
_TEXT	SEGMENT
?GetPiercingSize@CItemElem@@QAEHXZ PROC NEAR		; CItemElem::GetPiercingSize, COMDAT
; _this$ = ecx

; 153  : 	int		GetPiercingSize()	{	return m_piercing.GetPiercingSize();		}

  00000	83 c1 34	 add	 ecx, 52			; 00000034H
  00003	e9 00 00 00 00	 jmp	 ?GetPiercingSize@CPiercing@@QAEHXZ ; CPiercing::GetPiercingSize
?GetPiercingSize@CItemElem@@QAEHXZ ENDP			; CItemElem::GetPiercingSize
_TEXT	ENDS
PUBLIC	?GetPiercingItem@CItemElem@@QAEKH@Z		; CItemElem::GetPiercingItem
EXTRN	?GetPiercingItem@CPiercing@@QAEKH@Z:NEAR	; CPiercing::GetPiercingItem
; Function compile flags: /Ogty
;	COMDAT ?GetPiercingItem@CItemElem@@QAEKH@Z
_TEXT	SEGMENT
_nth$ = 8						; size = 4
?GetPiercingItem@CItemElem@@QAEKH@Z PROC NEAR		; CItemElem::GetPiercingItem, COMDAT
; _this$ = ecx

; 155  : 	DWORD	GetPiercingItem( int nth )	{	return m_piercing.GetPiercingItem( nth );	}

  00000	83 c1 34	 add	 ecx, 52			; 00000034H
  00003	e9 00 00 00 00	 jmp	 ?GetPiercingItem@CPiercing@@QAEKH@Z ; CPiercing::GetPiercingItem
?GetPiercingItem@CItemElem@@QAEKH@Z ENDP		; CItemElem::GetPiercingItem
_TEXT	ENDS
PUBLIC	?IsPiercedItem@CItemElem@@QAEHXZ		; CItemElem::IsPiercedItem
EXTRN	?IsPiercedItem@CPiercing@@QAEHXZ:NEAR		; CPiercing::IsPiercedItem
; Function compile flags: /Ogty
;	COMDAT ?IsPiercedItem@CItemElem@@QAEHXZ
_TEXT	SEGMENT
?IsPiercedItem@CItemElem@@QAEHXZ PROC NEAR		; CItemElem::IsPiercedItem, COMDAT
; _this$ = ecx

; 158  : 	BOOL	IsPiercedItem()	{ return m_piercing.IsPiercedItem(); }

  00000	83 c1 34	 add	 ecx, 52			; 00000034H
  00003	e9 00 00 00 00	 jmp	 ?IsPiercedItem@CPiercing@@QAEHXZ ; CPiercing::IsPiercedItem
?IsPiercedItem@CItemElem@@QAEHXZ ENDP			; CItemElem::IsPiercedItem
_TEXT	ENDS
PUBLIC	?GetUltimatePiercingSize@CItemElem@@QAEHXZ	; CItemElem::GetUltimatePiercingSize
EXTRN	?GetUltimatePiercingSize@CPiercing@@QAEHXZ:NEAR	; CPiercing::GetUltimatePiercingSize
; Function compile flags: /Ogty
;	COMDAT ?GetUltimatePiercingSize@CItemElem@@QAEHXZ
_TEXT	SEGMENT
?GetUltimatePiercingSize@CItemElem@@QAEHXZ PROC NEAR	; CItemElem::GetUltimatePiercingSize, COMDAT
; _this$ = ecx

; 162  : 	int		GetUltimatePiercingSize()	{	return m_piercing.GetUltimatePiercingSize();		}

  00000	83 c1 34	 add	 ecx, 52			; 00000034H
  00003	e9 00 00 00 00	 jmp	 ?GetUltimatePiercingSize@CPiercing@@QAEHXZ ; CPiercing::GetUltimatePiercingSize
?GetUltimatePiercingSize@CItemElem@@QAEHXZ ENDP		; CItemElem::GetUltimatePiercingSize
_TEXT	ENDS
PUBLIC	?GetUltimatePiercingItem@CItemElem@@QAEKH@Z	; CItemElem::GetUltimatePiercingItem
EXTRN	?GetUltimatePiercingItem@CPiercing@@QAEKH@Z:NEAR ; CPiercing::GetUltimatePiercingItem
; Function compile flags: /Ogty
;	COMDAT ?GetUltimatePiercingItem@CItemElem@@QAEKH@Z
_TEXT	SEGMENT
_nth$ = 8						; size = 4
?GetUltimatePiercingItem@CItemElem@@QAEKH@Z PROC NEAR	; CItemElem::GetUltimatePiercingItem, COMDAT
; _this$ = ecx

; 164  : 	DWORD	GetUltimatePiercingItem( int nth )	{	return m_piercing.GetUltimatePiercingItem( nth );	}

  00000	83 c1 34	 add	 ecx, 52			; 00000034H
  00003	e9 00 00 00 00	 jmp	 ?GetUltimatePiercingItem@CPiercing@@QAEKH@Z ; CPiercing::GetUltimatePiercingItem
?GetUltimatePiercingItem@CItemElem@@QAEKH@Z ENDP	; CItemElem::GetUltimatePiercingItem
_TEXT	ENDS
PUBLIC	?GetRandomOptItemId@CItemElem@@QAE_JXZ		; CItemElem::GetRandomOptItemId
; Function compile flags: /Ogty
;	COMDAT ?GetRandomOptItemId@CItemElem@@QAE_JXZ
_TEXT	SEGMENT
?GetRandomOptItemId@CItemElem@@QAE_JXZ PROC NEAR	; CItemElem::GetRandomOptItemId, COMDAT
; _this$ = ecx

; 196  : 	__int64		GetRandomOptItemId( void )	{	return m_iRandomOptItemId;	}

  00000	8b 81 90 00 00
	00		 mov	 eax, DWORD PTR [ecx+144]
  00006	8b 91 94 00 00
	00		 mov	 edx, DWORD PTR [ecx+148]
  0000c	c3		 ret	 0
?GetRandomOptItemId@CItemElem@@QAE_JXZ ENDP		; CItemElem::GetRandomOptItemId
_TEXT	ENDS
PUBLIC	?GetOption@CItemElem@@QAEHXZ			; CItemElem::GetOption
; Function compile flags: /Ogty
;	COMDAT ?GetOption@CItemElem@@QAEHXZ
_TEXT	SEGMENT
?GetOption@CItemElem@@QAEHXZ PROC NEAR			; CItemElem::GetOption, COMDAT
; _this$ = ecx

; 218  : 	int		GetOption( void )			{ return m_nAbilityOption;	}

  00000	8b 41 68	 mov	 eax, DWORD PTR [ecx+104]
  00003	c3		 ret	 0
?GetOption@CItemElem@@QAEHXZ ENDP			; CItemElem::GetOption
_TEXT	ENDS
PUBLIC	?GetVisKeepTime@CItemElem@@QAEJH@Z		; CItemElem::GetVisKeepTime
EXTRN	?GetVisKeepTime@CPiercing@@QAEJH@Z:NEAR		; CPiercing::GetVisKeepTime
; Function compile flags: /Ogty
;	COMDAT ?GetVisKeepTime@CItemElem@@QAEJH@Z
_TEXT	SEGMENT
_nth$ = 8						; size = 4
?GetVisKeepTime@CItemElem@@QAEJH@Z PROC NEAR		; CItemElem::GetVisKeepTime, COMDAT
; _this$ = ecx

; 239  : 	time_t	GetVisKeepTime( int nth )					{ return m_piercing.GetVisKeepTime( nth ); }

  00000	83 c1 34	 add	 ecx, 52			; 00000034H
  00003	e9 00 00 00 00	 jmp	 ?GetVisKeepTime@CPiercing@@QAEJH@Z ; CPiercing::GetVisKeepTime
?GetVisKeepTime@CItemElem@@QAEJH@Z ENDP			; CItemElem::GetVisKeepTime
_TEXT	ENDS
PUBLIC	?IsExpired@CPocket@@QAEHXZ			; CPocket::IsExpired
; Function compile flags: /Ogty
; File c:\documents and settings\test\mes documents\source\virtuos_v17\build\program\_common\pocket.h
;	COMDAT ?IsExpired@CPocket@@QAEHXZ
_TEXT	SEGMENT
?IsExpired@CPocket@@QAEHXZ PROC NEAR			; CPocket::IsExpired, COMDAT
; _this$ = ecx

; 19   : 	BOOL	IsExpired( void )	{	return m_bExpired;	}

  00000	8b 41 14	 mov	 eax, DWORD PTR [ecx+20]
  00003	c3		 ret	 0
?IsExpired@CPocket@@QAEHXZ ENDP				; CPocket::IsExpired
_TEXT	ENDS
PUBLIC	?GetExpirationDate@CPocket@@QAEJXZ		; CPocket::GetExpirationDate
; Function compile flags: /Ogty
;	COMDAT ?GetExpirationDate@CPocket@@QAEJXZ
_TEXT	SEGMENT
?GetExpirationDate@CPocket@@QAEJXZ PROC NEAR		; CPocket::GetExpirationDate, COMDAT
; _this$ = ecx

; 21   : 	time_t	GetExpirationDate( void )	{	return m_tExpirationDate;	}

  00000	8b 41 18	 mov	 eax, DWORD PTR [ecx+24]
  00003	c3		 ret	 0
?GetExpirationDate@CPocket@@QAEJXZ ENDP			; CPocket::GetExpirationDate
_TEXT	ENDS
PUBLIC	?GetTutorialState@CMover@@QAEHXZ		; CMover::GetTutorialState
; Function compile flags: /Ogty
; File c:\documents and settings\test\mes documents\source\virtuos_v17\build\program\_network\objects\obj.h
;	COMDAT ?GetTutorialState@CMover@@QAEHXZ
_TEXT	SEGMENT
?GetTutorialState@CMover@@QAEHXZ PROC NEAR		; CMover::GetTutorialState, COMDAT
; _this$ = ecx

; 977  : 	int		GetTutorialState( void )	{	return m_nTutorialState;	}

  00000	8b 81 b0 00 00
	00		 mov	 eax, DWORD PTR [ecx+176]
  00006	c3		 ret	 0
?GetTutorialState@CMover@@QAEHXZ ENDP			; CMover::GetTutorialState
_TEXT	ENDS
PUBLIC	?GetPetId@CMover@@QAEKXZ			; CMover::GetPetId
; Function compile flags: /Ogty
;	COMDAT ?GetPetId@CMover@@QAEKXZ
_TEXT	SEGMENT
?GetPetId@CMover@@QAEKXZ PROC NEAR			; CMover::GetPetId, COMDAT
; _this$ = ecx

; 1086 : 	DWORD	GetPetId( void )	{	return m_dwPetId;	}

  00000	8b 81 30 42 00
	00		 mov	 eax, DWORD PTR [ecx+16944]
  00006	c3		 ret	 0
?GetPetId@CMover@@QAEKXZ ENDP				; CMover::GetPetId
_TEXT	ENDS
PUBLIC	?GetCampusId@CMover@@QAEKXZ			; CMover::GetCampusId
; Function compile flags: /Ogty
;	COMDAT ?GetCampusId@CMover@@QAEKXZ
_TEXT	SEGMENT
?GetCampusId@CMover@@QAEKXZ PROC NEAR			; CMover::GetCampusId, COMDAT
; _this$ = ecx

; 1150 : 	u_long	GetCampusId()	{	return m_idCampus;	}

  00000	8b 81 c4 46 00
	00		 mov	 eax, DWORD PTR [ecx+18116]
  00006	c3		 ret	 0
?GetCampusId@CMover@@QAEKXZ ENDP			; CMover::GetCampusId
_TEXT	ENDS
PUBLIC	?GetCampusPoint@CMover@@QAEHXZ			; CMover::GetCampusPoint
; Function compile flags: /Ogty
;	COMDAT ?GetCampusPoint@CMover@@QAEHXZ
_TEXT	SEGMENT
?GetCampusPoint@CMover@@QAEHXZ PROC NEAR		; CMover::GetCampusPoint, COMDAT
; _this$ = ecx

; 1152 : 	int		GetCampusPoint()	{	return m_nCampusPoint;	}

  00000	8b 81 c8 46 00
	00		 mov	 eax, DWORD PTR [ecx+18120]
  00006	c3		 ret	 0
?GetCampusPoint@CMover@@QAEHXZ ENDP			; CMover::GetCampusPoint
_TEXT	ENDS
PUBLIC	?GetSex@CMover@@QAEEXZ				; CMover::GetSex
; Function compile flags: /Ogty
;	COMDAT ?GetSex@CMover@@QAEEXZ
_TEXT	SEGMENT
?GetSex@CMover@@QAEEXZ PROC NEAR			; CMover::GetSex, COMDAT
; _this$ = ecx

; 1197 : 	BYTE	GetSex() { return m_bySex; }

  00000	8a 81 b8 00 00
	00		 mov	 al, BYTE PTR [ecx+184]
  00006	c3		 ret	 0
?GetSex@CMover@@QAEEXZ ENDP				; CMover::GetSex
_TEXT	ENDS
PUBLIC	?GetGold@CMover@@QAEHXZ				; CMover::GetGold
; Function compile flags: /Ogty
;	COMDAT ?GetGold@CMover@@QAEHXZ
_TEXT	SEGMENT
?GetGold@CMover@@QAEHXZ PROC NEAR			; CMover::GetGold, COMDAT
; _this$ = ecx

; 1230 : 	ASSERT( m_dwGold <= INT_MAX );
; 1231 : 	return m_dwGold;

  00000	8b 41 34	 mov	 eax, DWORD PTR [ecx+52]

; 1232 : }

  00003	c3		 ret	 0
?GetGold@CMover@@QAEHXZ ENDP				; CMover::GetGold
_TEXT	ENDS
PUBLIC	??_C@_00CNPNBAHC@?$AA@				; `string'
PUBLIC	??0ADDBANK_QUERYINFO@@QAE@PBD@Z			; ADDBANK_QUERYINFO::ADDBANK_QUERYINFO
;	COMDAT ??_C@_00CNPNBAHC@?$AA@
; File c:\documents and settings\test\mes documents\source\virtuos_v17\build\program\_database\dbmanager.h
CONST	SEGMENT
??_C@_00CNPNBAHC@?$AA@ DB 00H				; `string'
; Function compile flags: /Ogty
CONST	ENDS
;	COMDAT ??0ADDBANK_QUERYINFO@@QAE@PBD@Z
_TEXT	SEGMENT
_pszQueryType$ = 8					; size = 4
??0ADDBANK_QUERYINFO@@QAE@PBD@Z PROC NEAR		; ADDBANK_QUERYINFO::ADDBANK_QUERYINFO, COMDAT
; _this$ = ecx

; 395  : 	ADDBANK_QUERYINFO( LPCTSTR pszQueryType )

  00000	8b c1		 mov	 eax, ecx

; 396  : 	{
; 397  : 		pszType = pszQueryType;

  00002	8b 4c 24 04	 mov	 ecx, DWORD PTR _pszQueryType$[esp-4]
  00006	89 08		 mov	 DWORD PTR [eax], ecx

; 398  : 		idPlayer = 0;
; 399  : 		pszBank = "";

  00008	b9 00 00 00 00	 mov	 ecx, OFFSET FLAT:??_C@_00CNPNBAHC@?$AA@
  0000d	33 d2		 xor	 edx, edx
  0000f	89 50 04	 mov	 DWORD PTR [eax+4], edx
  00012	89 48 08	 mov	 DWORD PTR [eax+8], ecx

; 400  : 		pszBankIndex = "";

  00015	89 48 0c	 mov	 DWORD PTR [eax+12], ecx

; 401  : 		pszObjIndexBank = "";

  00018	89 48 10	 mov	 DWORD PTR [eax+16], ecx

; 402  : 		pszExtBank = "";

  0001b	89 48 14	 mov	 DWORD PTR [eax+20], ecx

; 403  : 		pszPirecingBank = "";

  0001e	89 48 18	 mov	 DWORD PTR [eax+24], ecx

; 404  : 		dwGoldBank = 0;

  00021	89 50 1c	 mov	 DWORD PTR [eax+28], edx

; 405  : 		pszBankPet	= "";

  00024	89 48 20	 mov	 DWORD PTR [eax+32], ecx

; 406  : 	};

  00027	c2 04 00	 ret	 4
??0ADDBANK_QUERYINFO@@QAE@PBD@Z ENDP			; ADDBANK_QUERYINFO::ADDBANK_QUERYINFO
_TEXT	ENDS
PUBLIC	??0_PocketParam@@QAE@XZ				; _PocketParam::_PocketParam
; Function compile flags: /Ogty
;	COMDAT ??0_PocketParam@@QAE@XZ
_TEXT	SEGMENT
??0_PocketParam@@QAE@XZ PROC NEAR			; _PocketParam::_PocketParam, COMDAT
; _this$ = ecx

; 423  : 	_PocketParam()

  00000	8b c1		 mov	 eax, ecx

; 424  : 	{
; 425  : 		idPlayer	= 0;
; 426  : 		nPocket		= 0;
; 427  : 		pszItem		= "";

  00002	b9 00 00 00 00	 mov	 ecx, OFFSET FLAT:??_C@_00CNPNBAHC@?$AA@
  00007	33 d2		 xor	 edx, edx
  00009	89 10		 mov	 DWORD PTR [eax], edx
  0000b	89 50 04	 mov	 DWORD PTR [eax+4], edx
  0000e	89 48 08	 mov	 DWORD PTR [eax+8], ecx

; 428  : 		pszIndex	= "";

  00011	89 48 0c	 mov	 DWORD PTR [eax+12], ecx

; 429  : 		pszObjIndex		= "";

  00014	89 48 10	 mov	 DWORD PTR [eax+16], ecx

; 430  : 		pszExt	= "";

  00017	89 48 14	 mov	 DWORD PTR [eax+20], ecx

; 431  : 		pszPiercing		= "";

  0001a	89 48 18	 mov	 DWORD PTR [eax+24], ecx

; 432  : 		pszPet	= "";

  0001d	89 48 1c	 mov	 DWORD PTR [eax+28], ecx

; 433  : 		bExpired	= TRUE;

  00020	c7 40 20 01 00
	00 00		 mov	 DWORD PTR [eax+32], 1

; 434  : 		tExpirationDate		= 0;

  00027	89 50 24	 mov	 DWORD PTR [eax+36], edx

; 435  : 	}

  0002a	c3		 ret	 0
??0_PocketParam@@QAE@XZ ENDP				; _PocketParam::_PocketParam
_TEXT	ENDS
PUBLIC	??0_ItemStruct@@QAE@XZ				; _ItemStruct::_ItemStruct
; Function compile flags: /Ogty
;	COMDAT ??0_ItemStruct@@QAE@XZ
_TEXT	SEGMENT
??0_ItemStruct@@QAE@XZ PROC NEAR			; _ItemStruct::_ItemStruct, COMDAT
; _this$ = ecx

; 588  : 	_ItemStruct()

  00000	8b c1		 mov	 eax, ecx

; 589  : 		{
; 590  : 			szItem[0]	= '\0';

  00002	32 c9		 xor	 cl, cl
  00004	88 08		 mov	 BYTE PTR [eax], cl

; 591  : 			szExt[0]	= '\0';

  00006	88 88 00 02 00
	00		 mov	 BYTE PTR [eax+512], cl

; 592  : 			szPiercing[0]	= '\0';

  0000c	88 88 40 02 00
	00		 mov	 BYTE PTR [eax+576], cl

; 593  : 			szPet[0]	= '\0';

  00012	88 88 40 03 00
	00		 mov	 BYTE PTR [eax+832], cl

; 594  : 		}

  00018	c3		 ret	 0
??0_ItemStruct@@QAE@XZ ENDP				; _ItemStruct::_ItemStruct
_TEXT	ENDS
PUBLIC	??0_ItemContainerStruct@@QAE@XZ			; _ItemContainerStruct::_ItemContainerStruct
; Function compile flags: /Ogty
;	COMDAT ??0_ItemContainerStruct@@QAE@XZ
_TEXT	SEGMENT
??0_ItemContainerStruct@@QAE@XZ PROC NEAR		; _ItemContainerStruct::_ItemContainerStruct, COMDAT
; _this$ = ecx

; 613  : 	_ItemContainerStruct()

  00000	8b c1		 mov	 eax, ecx

; 614  : 		{
; 615  : 			*szItem	= '\0';

  00002	32 c9		 xor	 cl, cl
  00004	88 08		 mov	 BYTE PTR [eax], cl

; 616  : 			*szIndex	= '\0';

  00006	88 88 00 18 00
	00		 mov	 BYTE PTR [eax+6144], cl

; 617  : 			*szObjIndex	= '\0';

  0000c	88 88 00 1a 00
	00		 mov	 BYTE PTR [eax+6656], cl

; 618  : 			*szExt	= '\0';

  00012	88 88 00 1c 00
	00		 mov	 BYTE PTR [eax+7168], cl

; 619  : 			*szPiercing	= '\0';

  00018	88 88 00 24 00
	00		 mov	 BYTE PTR [eax+9216], cl

; 620  : 			*szPet	= '\0';

  0001e	88 88 40 43 00
	00		 mov	 BYTE PTR [eax+17216], cl

; 621  : 		}

  00024	c3		 ret	 0
??0_ItemContainerStruct@@QAE@XZ ENDP			; _ItemContainerStruct::_ItemContainerStruct
_TEXT	ENDS
PUBLIC	??0_PocketStruct@@QAE@XZ			; _PocketStruct::_PocketStruct
; Function compile flags: /Ogty
;	COMDAT ??0_PocketStruct@@QAE@XZ
_TEXT	SEGMENT
??0_PocketStruct@@QAE@XZ PROC NEAR			; _PocketStruct::_PocketStruct, COMDAT
; _this$ = ecx

; 630  : 	{

  00000	8b c1		 mov	 eax, ecx
  00002	33 c9		 xor	 ecx, ecx
  00004	88 08		 mov	 BYTE PTR [eax], cl
  00006	88 88 00 18 00
	00		 mov	 BYTE PTR [eax+6144], cl
  0000c	88 88 00 1a 00
	00		 mov	 BYTE PTR [eax+6656], cl
  00012	88 88 00 1c 00
	00		 mov	 BYTE PTR [eax+7168], cl
  00018	88 88 00 24 00
	00		 mov	 BYTE PTR [eax+9216], cl
  0001e	88 88 40 43 00
	00		 mov	 BYTE PTR [eax+17216], cl

; 631  : 		bExpired	= TRUE;

  00024	c7 80 a8 53 00
	00 01 00 00 00	 mov	 DWORD PTR [eax+21416], 1

; 632  : 		tExpirationDate		= 0;

  0002e	89 88 ac 53 00
	00		 mov	 DWORD PTR [eax+21420], ecx

; 633  : 	}

  00034	c3		 ret	 0
??0_PocketStruct@@QAE@XZ ENDP				; _PocketStruct::_PocketStruct
_TEXT	ENDS
PUBLIC	?GetAt@?$CFixedArray@UItemProp@@@@QAEPAUItemProp@@K@Z ; CFixedArray<ItemProp>::GetAt
; Function compile flags: /Ogty
; File c:\documents and settings\test\mes documents\source\virtuos_v17\build\program\_common\data.h
;	COMDAT ?GetAt@?$CFixedArray@UItemProp@@@@QAEPAUItemProp@@K@Z
_TEXT	SEGMENT
_dwIndex$ = 8						; size = 4
?GetAt@?$CFixedArray@UItemProp@@@@QAEPAUItemProp@@K@Z PROC NEAR ; CFixedArray<ItemProp>::GetAt, COMDAT
; _this$ = ecx

; 270  : 	if( dwIndex >= (DWORD)m_nMaxIndex )

  00000	8b 44 24 04	 mov	 eax, DWORD PTR _dwIndex$[esp-4]
  00004	3b 41 18	 cmp	 eax, DWORD PTR [ecx+24]
  00007	72 05		 jb	 SHORT $L186281

; 271  : 		return NULL;

  00009	33 c0		 xor	 eax, eax

; 273  : }

  0000b	c2 04 00	 ret	 4
$L186281:

; 272  : 	return (T*) m_apOffset[ dwIndex ];

  0000e	8b 49 08	 mov	 ecx, DWORD PTR [ecx+8]
  00011	8b 04 81	 mov	 eax, DWORD PTR [ecx+eax*4]

; 273  : }

  00014	c2 04 00	 ret	 4
?GetAt@?$CFixedArray@UItemProp@@@@QAEPAUItemProp@@K@Z ENDP ; CFixedArray<ItemProp>::GetAt
_TEXT	ENDS
PUBLIC	??_C@_02JOKCKPIG@U3?$AA@			; `string'
PUBLIC	??_C@_0P@GKFFLOOO@?$CFs?0?5?$CFd?7?$CFs?$AN?6?7?$CFs?$AA@ ; `string'
PUBLIC	?SavePlayTime@CDbManager@@QAEXPAVCQuery@@PAUtagDB_OVERLAPPED_PLUS@@@Z ; CDbManager::SavePlayTime
EXTRN	?DBQryCharacter@CDbManager@@QAEXPAD0KH00HKKMMM0KKKKKMKMHHHKKH0HHHHH_J1000KHMMMHHHHH0DKHHH1HKKH0000000000000H000KHH00K00000KMMMHKK1J00KHHHHHHK0@Z:NEAR ; CDbManager::DBQryCharacter
EXTRN	?FreeRequest@CDbManager@@QAEXPAUtagDB_OVERLAPPED_PLUS@@@Z:NEAR ; CDbManager::FreeRequest
EXTRN	??0CAr@@QAE@PAXI@Z:NEAR				; CAr::CAr
EXTRN	??1CAr@@QAE@XZ:NEAR				; CAr::~CAr
EXTRN	?ReadString@CAr@@QAEPADPADH@Z:NEAR		; CAr::ReadString
EXTRN	__except_list:DWORD
EXTRN	__chkstk:NEAR
EXTRN	__fltused:NEAR
EXTRN	___CxxFrameHandler:NEAR
;	COMDAT xdata$x
; File c:\documents and settings\test\mes documents\source\virtuos_v17\build\program\_network\misc\include\ar.h
xdata$x	SEGMENT
$T209844 DD	0ffffffffH
	DD	FLAT:$L209820
$T209837 DD	019930520H
	DD	01H
	DD	FLAT:$T209844
	DD	2 DUP(00H)
	DD	2 DUP(00H)
xdata$x	ENDS
;	COMDAT ??_C@_02JOKCKPIG@U3?$AA@
CONST	SEGMENT
??_C@_02JOKCKPIG@U3?$AA@ DB 'U3', 00H			; `string'
CONST	ENDS
;	COMDAT ??_C@_0P@GKFFLOOO@?$CFs?0?5?$CFd?7?$CFs?$AN?6?7?$CFs?$AA@
CONST	SEGMENT
??_C@_0P@GKFFLOOO@?$CFs?0?5?$CFd?7?$CFs?$AN?6?7?$CFs?$AA@ DB '%s, %d', 09H
	DB	'%s', 0dH, 0aH, 09H, '%s', 00H		; `string'
; Function compile flags: /Ogty
; File c:\documents and settings\test\mes documents\source\virtuos_v17\build\program\_database\dbmanagersave.cpp
CONST	ENDS
;	COMDAT ?SavePlayTime@CDbManager@@QAEXPAVCQuery@@PAUtagDB_OVERLAPPED_PLUS@@@Z
_TEXT	SEGMENT
$T209832 = -57400					; size = 4
$T209831 = -57396					; size = 4
_arRead$ = -57392					; size = 16404
_szQuery$ = -40984					; size = 40960
__$ArrayPad$ = -20					; size = 4
__$EHRec$ = -12						; size = 12
__$ReturnAddr$ = 4					; size = 4
_qry$ = 8						; size = 4
_lpDbOverlappedPlus$ = 12				; size = 4
?SavePlayTime@CDbManager@@QAEXPAVCQuery@@PAUtagDB_OVERLAPPED_PLUS@@@Z PROC NEAR ; CDbManager::SavePlayTime, COMDAT
; _this$ = ecx

; 1094 : {

  00000	55		 push	 ebp
  00001	8b ec		 mov	 ebp, esp
  00003	83 e4 f8	 and	 esp, -8			; fffffff8H
  00006	6a ff		 push	 -1
  00008	68 00 00 00 00	 push	 __ehhandler$?SavePlayTime@CDbManager@@QAEXPAVCQuery@@PAUtagDB_OVERLAPPED_PLUS@@@Z
  0000d	64 a1 00 00 00
	00		 mov	 eax, DWORD PTR fs:__except_list
  00013	50		 push	 eax
  00014	64 89 25 00 00
	00 00		 mov	 DWORD PTR fs:__except_list, esp
  0001b	51		 push	 ecx
  0001c	b8 2c e0 00 00	 mov	 eax, 57388		; 0000e02cH
  00021	e8 00 00 00 00	 call	 __chkstk
  00026	a1 00 00 00 00	 mov	 eax, DWORD PTR ___security_cookie
  0002b	53		 push	 ebx
  0002c	56		 push	 esi
  0002d	8b 75 0c	 mov	 esi, DWORD PTR _lpDbOverlappedPlus$[ebp]

; 1095 : 	CAr arRead( lpDbOverlappedPlus->lpBuf, lpDbOverlappedPlus->uBufSize );

  00030	8b 56 18	 mov	 edx, DWORD PTR [esi+24]
  00033	89 4c 24 10	 mov	 DWORD PTR $T209831[esp+57412], ecx
  00037	8b 4e 1c	 mov	 ecx, DWORD PTR [esi+28]
  0003a	33 c5		 xor	 eax, ebp
  0003c	57		 push	 edi
  0003d	51		 push	 ecx
  0003e	89 84 24 38 e0
	00 00		 mov	 DWORD PTR __$ArrayPad$[esp+57420], eax
  00045	8b 45 08	 mov	 eax, DWORD PTR _qry$[ebp]
  00048	52		 push	 edx
  00049	8d 4c 24 20	 lea	 ecx, DWORD PTR _arRead$[esp+57424]

; 1102 : 	dwTime /= 1000;

  0004d	89 44 24 18	 mov	 DWORD PTR $T209832[esp+57424], eax
  00051	e8 00 00 00 00	 call	 ??0CAr@@QAE@PAXI@Z	; CAr::CAr
  00056	6a 2a		 push	 42			; 0000002aH
  00058	8d 46 20	 lea	 eax, DWORD PTR [esi+32]
  0005b	33 db		 xor	 ebx, ebx
  0005d	50		 push	 eax
  0005e	8d 4c 24 20	 lea	 ecx, DWORD PTR _arRead$[esp+57424]
  00062	89 9c 24 4c e0
	00 00		 mov	 DWORD PTR __$EHRec$[esp+57432], ebx
  00069	e8 00 00 00 00	 call	 ?ReadString@CAr@@QAEPADPADH@Z ; CAr::ReadString
  0006e	8b 54 24 20	 mov	 edx, DWORD PTR _arRead$[esp+57424]
  00072	8b 4c 24 24	 mov	 ecx, DWORD PTR _arRead$[esp+57428]
  00076	8d 42 04	 lea	 eax, DWORD PTR [edx+4]
  00079	3b c1		 cmp	 eax, ecx
  0007b	77 04		 ja	 SHORT $L209823

; 1096 : 	
; 1097 : 	DWORD dwTime;
; 1098 : 	arRead.ReadString( lpDbOverlappedPlus->AccountInfo.szAccount, MAX_ACCOUNT );
; 1099 : 	u_long idPlayer;
; 1100 : 	arRead >> idPlayer;

  0007d	8b 1a		 mov	 ebx, DWORD PTR [edx]
  0007f	eb 02		 jmp	 SHORT $L209842
$L209823:
  00081	8b c1		 mov	 eax, ecx
$L209842:

; 1101 : 	arRead >> dwTime; // 

  00083	8d 78 04	 lea	 edi, DWORD PTR [eax+4]
  00086	3b f9		 cmp	 edi, ecx
  00088	89 44 24 20	 mov	 DWORD PTR _arRead$[esp+57424], eax
  0008c	77 08		 ja	 SHORT $L209828
  0008e	8b 10		 mov	 edx, DWORD PTR [eax]
  00090	89 7c 24 20	 mov	 DWORD PTR _arRead$[esp+57424], edi
  00094	eb 06		 jmp	 SHORT $L209829
$L209828:
  00096	33 d2		 xor	 edx, edx
  00098	89 4c 24 20	 mov	 DWORD PTR _arRead$[esp+57424], ecx
$L209829:

; 1103 : 
; 1104 : 	char szQuery[QUERY_SIZE]	= { 0,};
; 1105 : 	DBQryCharacter( szQuery, "U3", idPlayer, g_appInfo.dwSys, '\0', "", dwTime );

  0009c	6a 00		 push	 0
  0009e	6a 00		 push	 0
  000a0	6a 00		 push	 0
  000a2	6a 00		 push	 0
  000a4	6a ff		 push	 -1
  000a6	6a 00		 push	 0
  000a8	6a 00		 push	 0
  000aa	6a 00		 push	 0
  000ac	6a 00		 push	 0
  000ae	6a 00		 push	 0
  000b0	6a 00		 push	 0
  000b2	6a 00		 push	 0
  000b4	6a 00		 push	 0
  000b6	6a 00		 push	 0
  000b8	6a 00		 push	 0
  000ba	6a 00		 push	 0
  000bc	6a 00		 push	 0
  000be	6a 00		 push	 0
  000c0	6a 00		 push	 0
  000c2	6a 00		 push	 0
  000c4	6a 00		 push	 0
  000c6	6a 00		 push	 0
  000c8	6a 00		 push	 0
  000ca	6a 00		 push	 0
  000cc	6a 00		 push	 0
  000ce	6a 00		 push	 0
  000d0	6a 00		 push	 0
  000d2	6a 00		 push	 0
  000d4	6a 00		 push	 0
  000d6	6a 00		 push	 0
  000d8	6a 00		 push	 0
  000da	6a 00		 push	 0
  000dc	6a 00		 push	 0
  000de	6a 00		 push	 0
  000e0	6a 00		 push	 0
  000e2	6a 00		 push	 0
  000e4	6a 00		 push	 0
  000e6	6a 00		 push	 0
  000e8	6a 00		 push	 0
  000ea	6a 00		 push	 0
  000ec	6a 00		 push	 0
  000ee	6a 00		 push	 0
  000f0	6a 00		 push	 0
  000f2	6a 00		 push	 0
  000f4	6a 00		 push	 0
  000f6	6a 00		 push	 0
  000f8	6a 00		 push	 0
  000fa	6a 00		 push	 0
  000fc	6a 00		 push	 0
  000fe	6a 00		 push	 0
  00100	6a 00		 push	 0
  00102	6a 00		 push	 0
  00104	6a 00		 push	 0
  00106	6a 00		 push	 0
  00108	6a 00		 push	 0
  0010a	6a 00		 push	 0
  0010c	6a 00		 push	 0
  0010e	6a 00		 push	 0
  00110	6a 00		 push	 0
  00112	6a 46		 push	 70			; 00000046H
  00114	6a 00		 push	 0
  00116	b8 d3 4d 62 10	 mov	 eax, 274877907		; 10624dd3H
  0011b	f7 e2		 mul	 edx
  0011d	6a 00		 push	 0
  0011f	6a 00		 push	 0
  00121	6a 00		 push	 0
  00123	6a 00		 push	 0
  00125	c1 ea 06	 shr	 edx, 6
  00128	c6 84 24 34 41
	00 00 00	 mov	 BYTE PTR _szQuery$[esp+57676], 0
  00130	33 c0		 xor	 eax, eax
  00132	6a 00		 push	 0
  00134	b9 ff 27 00 00	 mov	 ecx, 10239		; 000027ffH
  00139	8d bc 24 39 41
	00 00		 lea	 edi, DWORD PTR _szQuery$[esp+57681]
  00140	f3 ab		 rep stosd
  00142	6a 00		 push	 0
  00144	6a 00		 push	 0
  00146	6a 00		 push	 0
  00148	66 ab		 stosw
  0014a	6a 00		 push	 0
  0014c	aa		 stosb
  0014d	6a 00		 push	 0
  0014f	6a 00		 push	 0
  00151	6a 00		 push	 0
  00153	6a 00		 push	 0
  00155	6a 00		 push	 0
  00157	6a 00		 push	 0
  00159	6a 00		 push	 0
  0015b	6a 00		 push	 0
  0015d	6a 00		 push	 0
  0015f	6a 00		 push	 0
  00161	6a 00		 push	 0
  00163	6a 00		 push	 0
  00165	6a 00		 push	 0
  00167	6a 00		 push	 0
  00169	6a 00		 push	 0
  0016b	6a 00		 push	 0
  0016d	6a 00		 push	 0
  0016f	6a 00		 push	 0
  00171	6a 00		 push	 0
  00173	6a 00		 push	 0
  00175	6a 00		 push	 0
  00177	6a 00		 push	 0
  00179	6a 00		 push	 0
  0017b	6a 00		 push	 0
  0017d	6a 00		 push	 0
  0017f	6a 00		 push	 0
  00181	6a 00		 push	 0
  00183	8b 0d 00 00 00
	00		 mov	 ecx, DWORD PTR ?g_appInfo@@3UAppInfo@@A
  00189	6a 00		 push	 0
  0018b	6a 00		 push	 0
  0018d	8b bc 24 a0 01
	00 00		 mov	 edi, DWORD PTR $T209831[esp+57812]
  00194	6a 00		 push	 0
  00196	6a 00		 push	 0
  00198	6a 00		 push	 0
  0019a	6a 00		 push	 0
  0019c	6a 00		 push	 0
  0019e	52		 push	 edx
  0019f	68 00 00 00 00	 push	 OFFSET FLAT:??_C@_00CNPNBAHC@?$AA@
  001a4	6a 00		 push	 0
  001a6	51		 push	 ecx
  001a7	53		 push	 ebx
  001a8	68 00 00 00 00	 push	 OFFSET FLAT:??_C@_02JOKCKPIG@U3?$AA@
  001ad	8d 94 24 e8 41
	00 00		 lea	 edx, DWORD PTR _szQuery$[esp+57856]
  001b4	52		 push	 edx
  001b5	8b cf		 mov	 ecx, edi
  001b7	e8 00 00 00 00	 call	 ?DBQryCharacter@CDbManager@@QAEXPAD0KH00HKKMMM0KKKKKMKMHHHKKH0HHHHH_J1000KHMMMHHHHH0DKHHH1HKKH0000000000000H000KHH00K00000KMMMHKK1J00KHHHHHHK0@Z ; CDbManager::DBQryCharacter

; 1106 : 	
; 1107 : 	if( FALSE == qry->Exec( szQuery ) )

  001bc	8b 4c 24 10	 mov	 ecx, DWORD PTR $T209832[esp+57416]
  001c0	8d 84 24 30 40
	00 00		 lea	 eax, DWORD PTR _szQuery$[esp+57416]
  001c7	50		 push	 eax
  001c8	e8 00 00 00 00	 call	 ?Exec@CQuery@@QAEHPBD@Z	; CQuery::Exec
  001cd	85 c0		 test	 eax, eax
  001cf	75 23		 jne	 SHORT $L208210

; 1108 : 	{
; 1109 : 		WriteLog( "%s, %d\t%s\r\n\t%s", __FILE__, __LINE__, szQuery, lpDbOverlappedPlus->AccountInfo.szPlayer );

  001d1	8d 4e 74	 lea	 ecx, DWORD PTR [esi+116]
  001d4	51		 push	 ecx
  001d5	8d 94 24 34 40
	00 00		 lea	 edx, DWORD PTR _szQuery$[esp+57420]
  001dc	52		 push	 edx
  001dd	68 55 04 00 00	 push	 1109			; 00000455H
  001e2	68 00 00 00 00	 push	 OFFSET FLAT:??_C@_0GI@CCIAPNOB@?2Documents?5and?5Settings?2test?2Mes@
  001e7	68 00 00 00 00	 push	 OFFSET FLAT:??_C@_0P@GKFFLOOO@?$CFs?0?5?$CFd?7?$CFs?$AN?6?7?$CFs?$AA@
  001ec	e8 00 00 00 00	 call	 ?WriteLog@@YAXPBDZZ	; WriteLog
  001f1	83 c4 14	 add	 esp, 20			; 00000014H
$L208210:

; 1110 : 	}
; 1111 : 	
; 1112 : 	FreeRequest( lpDbOverlappedPlus );

  001f4	56		 push	 esi
  001f5	8b cf		 mov	 ecx, edi
  001f7	e8 00 00 00 00	 call	 ?FreeRequest@CDbManager@@QAEXPAUtagDB_OVERLAPPED_PLUS@@@Z ; CDbManager::FreeRequest

; 1113 : }

  001fc	8d 4c 24 18	 lea	 ecx, DWORD PTR _arRead$[esp+57416]
  00200	c7 84 24 44 e0
	00 00 ff ff ff
	ff		 mov	 DWORD PTR __$EHRec$[esp+57424], -1
  0020b	e8 00 00 00 00	 call	 ??1CAr@@QAE@XZ		; CAr::~CAr
  00210	8b 8c 24 3c e0
	00 00		 mov	 ecx, DWORD PTR __$EHRec$[esp+57416]
  00217	64 89 0d 00 00
	00 00		 mov	 DWORD PTR fs:__except_list, ecx
  0021e	8b 8c 24 34 e0
	00 00		 mov	 ecx, DWORD PTR __$ArrayPad$[esp+57416]
  00225	5f		 pop	 edi
  00226	5e		 pop	 esi
  00227	33 cd		 xor	 ecx, ebp
  00229	5b		 pop	 ebx
  0022a	e8 00 00 00 00	 call	 @__security_check_cookie@4
  0022f	8b e5		 mov	 esp, ebp
  00231	5d		 pop	 ebp
  00232	c2 08 00	 ret	 8
_TEXT	ENDS
;	COMDAT text$x
text$x	SEGMENT
$L209820:
  00000	8d 8d d0 1f ff
	ff		 lea	 ecx, DWORD PTR _arRead$[ebp]
  00006	e9 00 00 00 00	 jmp	 ??1CAr@@QAE@XZ		; CAr::~CAr
__ehhandler$?SavePlayTime@CDbManager@@QAEXPAVCQuery@@PAUtagDB_OVERLAPPED_PLUS@@@Z:
  0000b	b8 00 00 00 00	 mov	 eax, OFFSET FLAT:$T209837
  00010	e9 00 00 00 00	 jmp	 ___CxxFrameHandler
text$x	ENDS
?SavePlayTime@CDbManager@@QAEXPAVCQuery@@PAUtagDB_OVERLAPPED_PLUS@@@Z ENDP ; CDbManager::SavePlayTime
PUBLIC	?GetItemProp@CProject@@QAEPAUItemProp@@H@Z	; CProject::GetItemProp
; Function compile flags: /Ogty
; File c:\documents and settings\test\mes documents\source\virtuos_v17\build\program\databaseserver\project.h
;	COMDAT ?GetItemProp@CProject@@QAEPAUItemProp@@H@Z
_TEXT	SEGMENT
_nIndex$ = 8						; size = 4
?GetItemProp@CProject@@QAEPAUItemProp@@H@Z PROC NEAR	; CProject::GetItemProp, COMDAT
; _this$ = ecx

; 200  : 	ItemProp*	GetItemProp( int nIndex )	{	return m_aPropItem.GetAt( nIndex );	}

  00000	8b 44 24 04	 mov	 eax, DWORD PTR _nIndex$[esp-4]
  00004	3b 41 50	 cmp	 eax, DWORD PTR [ecx+80]
  00007	72 05		 jb	 SHORT $L209851
  00009	33 c0		 xor	 eax, eax
  0000b	c2 04 00	 ret	 4
$L209851:
  0000e	8b 49 40	 mov	 ecx, DWORD PTR [ecx+64]
  00011	8b 04 81	 mov	 eax, DWORD PTR [ecx+eax*4]
  00014	c2 04 00	 ret	 4
?GetItemProp@CProject@@QAEPAUItemProp@@H@Z ENDP		; CProject::GetItemProp
_TEXT	ENDS
PUBLIC	?GetPropA@CItemElem@@QAEPAUItemProp@@XZ		; CItemElem::GetPropA
EXTRN	?prj@@3VCProject@@A:BYTE			; prj
; Function compile flags: /Ogty
; File c:\documents and settings\test\mes documents\source\virtuos_v17\build\program\_network\objects\obj.h
;	COMDAT ?GetPropA@CItemElem@@QAEPAUItemProp@@XZ
_TEXT	SEGMENT
?GetPropA@CItemElem@@QAEPAUItemProp@@XZ PROC NEAR	; CItemElem::GetPropA, COMDAT
; _this$ = ecx

; 166  : 	ItemProp*	GetProp()	{	return prj.GetItemProp( m_dwItemId );	}

  00000	8b 41 08	 mov	 eax, DWORD PTR [ecx+8]
  00003	3b 05 50 00 00
	00		 cmp	 eax, DWORD PTR ?prj@@3VCProject@@A+80
  00009	72 03		 jb	 SHORT $L209867
  0000b	33 c0		 xor	 eax, eax
  0000d	c3		 ret	 0
$L209867:
  0000e	8b 0d 40 00 00
	00		 mov	 ecx, DWORD PTR ?prj@@3VCProject@@A+64
  00014	8b 04 81	 mov	 eax, DWORD PTR [ecx+eax*4]
  00017	c3		 ret	 0
?GetPropA@CItemElem@@QAEPAUItemProp@@XZ ENDP		; CItemElem::GetPropA
_TEXT	ENDS
PUBLIC	?IsTransformVisPet@CItemElem@@QAEHXZ		; CItemElem::IsTransformVisPet
; Function compile flags: /Ogty
;	COMDAT ?IsTransformVisPet@CItemElem@@QAEHXZ
_TEXT	SEGMENT
?IsTransformVisPet@CItemElem@@QAEHXZ PROC NEAR		; CItemElem::IsTransformVisPet, COMDAT
; _this$ = ecx

; 240  : 	BOOL	IsTransformVisPet() { return GetProp() && GetProp()->dwItemKind3 == IK3_PET && m_bTranformVisPet; }

  00000	8b 41 08	 mov	 eax, DWORD PTR [ecx+8]
  00003	56		 push	 esi
  00004	8b 35 50 00 00
	00		 mov	 esi, DWORD PTR ?prj@@3VCProject@@A+80
  0000a	3b c6		 cmp	 eax, esi
  0000c	73 2e		 jae	 SHORT $L209872
  0000e	8b 15 40 00 00
	00		 mov	 edx, DWORD PTR ?prj@@3VCProject@@A+64
  00014	83 3c 82 00	 cmp	 DWORD PTR [edx+eax*4], 0
  00018	74 22		 je	 SHORT $L209872
  0001a	3b c6		 cmp	 eax, esi
  0001c	72 04		 jb	 SHORT $L209914
  0001e	33 c0		 xor	 eax, eax
  00020	eb 03		 jmp	 SHORT $L209913
$L209914:
  00022	8b 04 82	 mov	 eax, DWORD PTR [edx+eax*4]
$L209913:
  00025	83 78 78 64	 cmp	 DWORD PTR [eax+120], 100 ; 00000064H
  00029	75 11		 jne	 SHORT $L209872
  0002b	8b 81 9c 00 00
	00		 mov	 eax, DWORD PTR [ecx+156]
  00031	85 c0		 test	 eax, eax
  00033	74 07		 je	 SHORT $L209872
  00035	b8 01 00 00 00	 mov	 eax, 1
  0003a	5e		 pop	 esi
  0003b	c3		 ret	 0
$L209872:
  0003c	33 c0		 xor	 eax, eax
  0003e	5e		 pop	 esi
  0003f	c3		 ret	 0
?IsTransformVisPet@CItemElem@@QAEHXZ ENDP		; CItemElem::IsTransformVisPet
_TEXT	ENDS
PUBLIC	?IsVisPet@CItemElem@@QAEHXZ			; CItemElem::IsVisPet
; Function compile flags: /Ogty
;	COMDAT ?IsVisPet@CItemElem@@QAEHXZ
_TEXT	SEGMENT
?IsVisPet@CItemElem@@QAEHXZ PROC NEAR			; CItemElem::IsVisPet, COMDAT
; _this$ = ecx

; 236  : 	BOOL	IsVisPet()	{ return ( GetProp() && GetProp()->IsVisPet() ) || IsTransformVisPet() ; }

  00000	8b 41 08	 mov	 eax, DWORD PTR [ecx+8]
  00003	56		 push	 esi
  00004	8b 35 40 00 00
	00		 mov	 esi, DWORD PTR ?prj@@3VCProject@@A+64
  0000a	57		 push	 edi
  0000b	8b 3d 50 00 00
	00		 mov	 edi, DWORD PTR ?prj@@3VCProject@@A+80
  00011	3b c7		 cmp	 eax, edi
  00013	73 45		 jae	 SHORT $L210016
  00015	83 3c 86 00	 cmp	 DWORD PTR [esi+eax*4], 0
  00019	74 1a		 je	 SHORT $L209967
  0001b	3b c7		 cmp	 eax, edi
  0001d	72 04		 jb	 SHORT $L209960
  0001f	33 d2		 xor	 edx, edx
  00021	eb 03		 jmp	 SHORT $L209959
$L209960:
  00023	8b 14 86	 mov	 edx, DWORD PTR [esi+eax*4]
$L209959:
  00026	83 7a 78 64	 cmp	 DWORD PTR [edx+120], 100 ; 00000064H
  0002a	75 09		 jne	 SHORT $L209967
  0002c	83 ba 00 02 00
	00 01		 cmp	 DWORD PTR [edx+512], 1
  00033	74 2a		 je	 SHORT $L209919
$L209967:
  00035	3b c7		 cmp	 eax, edi
  00037	73 21		 jae	 SHORT $L210016
  00039	83 3c 86 00	 cmp	 DWORD PTR [esi+eax*4], 0
  0003d	74 1b		 je	 SHORT $L210016
  0003f	3b c7		 cmp	 eax, edi
  00041	72 04		 jb	 SHORT $L210030
  00043	33 c0		 xor	 eax, eax
  00045	eb 03		 jmp	 SHORT $L210029
$L210030:
  00047	8b 04 86	 mov	 eax, DWORD PTR [esi+eax*4]
$L210029:
  0004a	83 78 78 64	 cmp	 DWORD PTR [eax+120], 100 ; 00000064H
  0004e	75 0a		 jne	 SHORT $L210016
  00050	8b 81 9c 00 00
	00		 mov	 eax, DWORD PTR [ecx+156]
  00056	85 c0		 test	 eax, eax
  00058	75 05		 jne	 SHORT $L209919
$L210016:
  0005a	5f		 pop	 edi
  0005b	5e		 pop	 esi
  0005c	33 c0		 xor	 eax, eax
  0005e	c3		 ret	 0
$L209919:
  0005f	5f		 pop	 edi
  00060	5e		 pop	 esi
  00061	b8 01 00 00 00	 mov	 eax, 1
  00066	c3		 ret	 0
?IsVisPet@CItemElem@@QAEHXZ ENDP			; CItemElem::IsVisPet
_TEXT	ENDS
PUBLIC	??_C@_0DC@NJLIMCIB@?$CFd?0?$CFd?0?$CFd?0?$CFd?0?0?$CFd?0?$CFd?0?$CFd?0?$CFd?0?$CFd?0?$CFd?0?$CF@ ; `string'
PUBLIC	??_C@_0DE@ILKBDCNN@?$CFd?0?$CFd?0?$CFd?0?$CFd?0?$CFs?0?$CFd?0?$CFd?0?$CFd?0?$CFd?0?$CFd?0?$CFd@ ; `string'
PUBLIC	??_C@_0BA@MBMDEEJC@?$CFd?0?$CFd?0?$CFI64d?0?$CFd?1?$AA@ ; `string'
PUBLIC	??_C@_02DPKJAMEF@?$CFd?$AA@			; `string'
PUBLIC	??_C@_03LEIBKMN@?0?$CFd?$AA@			; `string'
PUBLIC	??_C@_0BB@HAKKFLHF@1?0?$CFd?0?$CFd?0?$CFd?0?$CFd?0?$CFd?$AA@ ; `string'
PUBLIC	??_C@_03OMLJOFL@?0?$CFs?$AA@			; `string'
PUBLIC	??_C@_02DGMJPLBA@0?1?$AA@			; `string'
PUBLIC	??_C@_09NKKIGFED@?$CFd?0?$CFd?0?$CFd?1?$AA@	; `string'
PUBLIC	?SaveOneItem@CDbManager@@QAEXPAVCItemElem@@PAU_ItemStruct@@@Z ; CDbManager::SaveOneItem
EXTRN	?SetDBFormatStr@CDbManager@@AAEXPADHPBD@Z:NEAR	; CDbManager::SetDBFormatStr
EXTRN	?GetAvailLevel@CPet@@QAEEE@Z:NEAR		; CPet::GetAvailLevel
EXTRN	?GetLife@CPet@@QAEGXZ:NEAR			; CPet::GetLife
;	COMDAT ??_C@_0DC@NJLIMCIB@?$CFd?0?$CFd?0?$CFd?0?$CFd?0?0?$CFd?0?$CFd?0?$CFd?0?$CFd?0?$CFd?0?$CFd?0?$CF@
; File c:\documents and settings\test\mes documents\source\virtuos_v17\build\program\_common\pet.h
CONST	SEGMENT
??_C@_0DC@NJLIMCIB@?$CFd?0?$CFd?0?$CFd?0?$CFd?0?0?$CFd?0?$CFd?0?$CFd?0?$CFd?0?$CFd?0?$CFd?0?$CF@ DB '%'
	DB	'd,%d,%d,%d,,%d,%d,%d,%d,%d,%d,%d,%d,%d,%d,%d,%d/', 00H ; `string'
CONST	ENDS
;	COMDAT ??_C@_0DE@ILKBDCNN@?$CFd?0?$CFd?0?$CFd?0?$CFd?0?$CFs?0?$CFd?0?$CFd?0?$CFd?0?$CFd?0?$CFd?0?$CFd@
CONST	SEGMENT
??_C@_0DE@ILKBDCNN@?$CFd?0?$CFd?0?$CFd?0?$CFd?0?$CFs?0?$CFd?0?$CFd?0?$CFd?0?$CFd?0?$CFd?0?$CFd@ DB '%'
	DB	'd,%d,%d,%d,%s,%d,%d,%d,%d,%d,%d,%d,%d,%d,%d,%d,%d/', 00H ; `string'
CONST	ENDS
;	COMDAT ??_C@_0BA@MBMDEEJC@?$CFd?0?$CFd?0?$CFI64d?0?$CFd?1?$AA@
CONST	SEGMENT
??_C@_0BA@MBMDEEJC@?$CFd?0?$CFd?0?$CFI64d?0?$CFd?1?$AA@ DB '%d,%d,%I64d,%'
	DB	'd/', 00H					; `string'
CONST	ENDS
;	COMDAT ??_C@_02DPKJAMEF@?$CFd?$AA@
CONST	SEGMENT
??_C@_02DPKJAMEF@?$CFd?$AA@ DB '%d', 00H		; `string'
CONST	ENDS
;	COMDAT ??_C@_03LEIBKMN@?0?$CFd?$AA@
CONST	SEGMENT
??_C@_03LEIBKMN@?0?$CFd?$AA@ DB ',%d', 00H		; `string'
CONST	ENDS
;	COMDAT ??_C@_0BB@HAKKFLHF@1?0?$CFd?0?$CFd?0?$CFd?0?$CFd?0?$CFd?$AA@
CONST	SEGMENT
??_C@_0BB@HAKKFLHF@1?0?$CFd?0?$CFd?0?$CFd?0?$CFd?0?$CFd?$AA@ DB '1,%d,%d,'
	DB	'%d,%d,%d', 00H				; `string'
CONST	ENDS
;	COMDAT ??_C@_03OMLJOFL@?0?$CFs?$AA@
CONST	SEGMENT
??_C@_03OMLJOFL@?0?$CFs?$AA@ DB ',%s', 00H		; `string'
CONST	ENDS
;	COMDAT ??_C@_02DGMJPLBA@0?1?$AA@
CONST	SEGMENT
??_C@_02DGMJPLBA@0?1?$AA@ DB '0/', 00H			; `string'
CONST	ENDS
;	COMDAT ??_C@_09NKKIGFED@?$CFd?0?$CFd?0?$CFd?1?$AA@
CONST	SEGMENT
??_C@_09NKKIGFED@?$CFd?0?$CFd?0?$CFd?1?$AA@ DB '%d,%d,%d/', 00H ; `string'
; Function compile flags: /Ogty
; File c:\documents and settings\test\mes documents\source\virtuos_v17\build\program\_database\dbmanagersave.cpp
CONST	ENDS
;	COMDAT ?SaveOneItem@CDbManager@@QAEXPAVCItemElem@@PAU_ItemStruct@@@Z
_TEXT	SEGMENT
$T210285 = -134						; size = 1
$T210281 = -133						; size = 1
tv720 = -132						; size = 4
$T210295 = -132						; size = 4
$T210293 = -128						; size = 4
_szPiercing$ = -124					; size = 32
_szAvailLevel$208261 = -92				; size = 16
_szTemp$208262 = -76					; size = 34
_szFmt$208263 = -40					; size = 33
__$ArrayPad$ = -4					; size = 4
__$ReturnAddr$ = 4					; size = 4
_pItemElem$ = 8						; size = 4
_pItemStruct$ = 12					; size = 4
?SaveOneItem@CDbManager@@QAEXPAVCItemElem@@PAU_ItemStruct@@@Z PROC NEAR ; CDbManager::SaveOneItem, COMDAT
; _this$ = ecx

; 1128 : {

  00000	81 ec 88 00 00
	00		 sub	 esp, 136		; 00000088H
  00006	a1 00 00 00 00	 mov	 eax, DWORD PTR ___security_cookie
  0000b	33 c4		 xor	 eax, esp
  0000d	89 84 24 84 00
	00 00		 mov	 DWORD PTR __$ArrayPad$[esp+136], eax

; 1129 : 	char szPiercing[32]		= {0,};

  00014	33 c0		 xor	 eax, eax
  00016	89 44 24 0d	 mov	 DWORD PTR _szPiercing$[esp+137], eax
  0001a	89 44 24 11	 mov	 DWORD PTR _szPiercing$[esp+141], eax
  0001e	89 44 24 15	 mov	 DWORD PTR _szPiercing$[esp+145], eax
  00022	89 44 24 19	 mov	 DWORD PTR _szPiercing$[esp+149], eax
  00026	89 44 24 1d	 mov	 DWORD PTR _szPiercing$[esp+153], eax
  0002a	89 44 24 21	 mov	 DWORD PTR _szPiercing$[esp+157], eax
  0002e	53		 push	 ebx
  0002f	8b 9c 24 94 00
	00 00		 mov	 ebx, DWORD PTR _pItemStruct$[esp+136]
  00036	89 44 24 29	 mov	 DWORD PTR _szPiercing$[esp+165], eax
  0003a	55		 push	 ebp
  0003b	8b ac 24 94 00
	00 00		 mov	 ebp, DWORD PTR _pItemElem$[esp+140]
  00042	66 89 44 24 31	 mov	 WORD PTR _szPiercing$[esp+173], ax
  00047	88 44 24 33	 mov	 BYTE PTR _szPiercing$[esp+175], al

; 1130 : 
; 1131 : 	if( pItemElem->IsEmpty() == FALSE )

  0004b	8b 45 08	 mov	 eax, DWORD PTR [ebp+8]
  0004e	85 c0		 test	 eax, eax
  00050	57		 push	 edi
  00051	89 4c 24 14	 mov	 DWORD PTR $T210293[esp+148], ecx

; 1195 : 			{
; 1196 : 				sprintf( szPiercing, ",%d", pItemElem->GetUltimatePiercingItem( nPirecing ) );

  00055	89 5c 24 10	 mov	 DWORD PTR $T210295[esp+148], ebx
  00059	c6 44 24 18 00	 mov	 BYTE PTR _szPiercing$[esp+148], 0
  0005e	0f 84 c2 04 00
	00		 je	 $L208230
  00064	3d 6c 67 00 00	 cmp	 eax, 26476		; 0000676cH
  00069	8b 8d 84 00 00
	00		 mov	 ecx, DWORD PTR [ebp+132]
  0006f	8b 55 78	 mov	 edx, DWORD PTR [ebp+120]
  00072	51		 push	 ecx
  00073	52		 push	 edx
  00074	75 4a		 jne	 SHORT $L208231
  00076	8b 85 80 00 00
	00		 mov	 eax, DWORD PTR [ebp+128]
  0007c	0f b6 4d 7c	 movzx	 ecx, BYTE PTR [ebp+124]
  00080	8b 55 68	 mov	 edx, DWORD PTR [ebp+104]
  00083	50		 push	 eax
  00084	8b 45 30	 mov	 eax, DWORD PTR [ebp+48]
  00087	51		 push	 ecx
  00088	0f b6 4d 71	 movzx	 ecx, BYTE PTR [ebp+113]
  0008c	52		 push	 edx
  0008d	8b 55 6c	 mov	 edx, DWORD PTR [ebp+108]
  00090	50		 push	 eax
  00091	8b 45 74	 mov	 eax, DWORD PTR [ebp+116]
  00094	51		 push	 ecx
  00095	0f b6 4d 70	 movzx	 ecx, BYTE PTR [ebp+112]
  00099	6a 00		 push	 0
  0009b	52		 push	 edx
  0009c	0f bf 55 72	 movsx	 edx, WORD PTR [ebp+114]
  000a0	50		 push	 eax
  000a1	8b 45 04	 mov	 eax, DWORD PTR [ebp+4]
  000a4	51		 push	 ecx
  000a5	52		 push	 edx
  000a6	6a 00		 push	 0
  000a8	6a 00		 push	 0
  000aa	68 6c 67 00 00	 push	 26476			; 0000676cH
  000af	50		 push	 eax
  000b0	68 00 00 00 00	 push	 OFFSET FLAT:??_C@_0DC@NJLIMCIB@?$CFd?0?$CFd?0?$CFd?0?$CFd?0?0?$CFd?0?$CFd?0?$CFd?0?$CFd?0?$CFd?0?$CFd?0?$CF@
  000b5	53		 push	 ebx
  000b6	e8 00 00 00 00	 call	 _sprintf
  000bb	83 c4 48	 add	 esp, 72			; 00000048H
  000be	eb 48		 jmp	 SHORT $L208233
$L208231:

; 1132 : 	{
; 1133 : #if __VER >= 11 // __MA_VER11_05	//     world,database,neuz
; 1134 : 		if( pItemElem->m_dwItemId == II_SYS_SYS_SCR_SEALCHARACTER )
; 1135 : 			sprintf( pItemStruct->szItem, "%d,%d,%d,%d,,%d,%d,%d,%d,%d,%d,%d,%d,%d,%d,%d,%d/",
; 1136 : 					pItemElem->m_dwObjId, pItemElem->m_dwItemId,
; 1137 : 					0, 0, 
; 1138 : 					pItemElem->m_nItemNum, pItemElem->m_nRepairNumber,
; 1139 : 					pItemElem->m_nHitPoint, pItemElem->m_nRepair,
; 1140 : 					0, pItemElem->m_byFlag,
; 1141 : 					pItemElem->GetSerialNumber(), pItemElem->GetOption(), 
; 1142 :   					pItemElem->m_bItemResist, pItemElem->m_nResistAbilityOption,
; 1143 :   					pItemElem->m_idGuild,
; 1144 : 					pItemElem->m_nResistSMItemId
; 1145 : 				);
; 1146 : 		else
; 1147 : 			sprintf( pItemStruct->szItem, "%d,%d,%d,%d,%s,%d,%d,%d,%d,%d,%d,%d,%d,%d,%d,%d,%d/",
; 1148 : 					pItemElem->m_dwObjId, pItemElem->m_dwItemId,
; 1149 : 					0, 0, pItemElem->m_szItemText,
; 1150 : 					pItemElem->m_nItemNum, pItemElem->m_nRepairNumber,
; 1151 : 					pItemElem->m_nHitPoint, pItemElem->m_nRepair,
; 1152 : 					0, pItemElem->m_byFlag,
; 1153 : 					pItemElem->GetSerialNumber(), pItemElem->GetOption(), 
; 1154 :   					pItemElem->m_bItemResist, pItemElem->m_nResistAbilityOption,
; 1155 :   					pItemElem->m_idGuild,
; 1156 : 					pItemElem->m_nResistSMItemId
; 1157 : 				);

  000c0	8b 8d 80 00 00
	00		 mov	 ecx, DWORD PTR [ebp+128]
  000c6	0f b6 55 7c	 movzx	 edx, BYTE PTR [ebp+124]
  000ca	51		 push	 ecx
  000cb	8b 4d 68	 mov	 ecx, DWORD PTR [ebp+104]
  000ce	52		 push	 edx
  000cf	8b 55 30	 mov	 edx, DWORD PTR [ebp+48]
  000d2	51		 push	 ecx
  000d3	0f b6 4d 71	 movzx	 ecx, BYTE PTR [ebp+113]
  000d7	52		 push	 edx
  000d8	8b 55 6c	 mov	 edx, DWORD PTR [ebp+108]
  000db	51		 push	 ecx
  000dc	8b 4d 74	 mov	 ecx, DWORD PTR [ebp+116]
  000df	6a 00		 push	 0
  000e1	52		 push	 edx
  000e2	0f b6 55 70	 movzx	 edx, BYTE PTR [ebp+112]
  000e6	51		 push	 ecx
  000e7	0f bf 4d 72	 movsx	 ecx, WORD PTR [ebp+114]
  000eb	52		 push	 edx
  000ec	51		 push	 ecx
  000ed	8d 55 0c	 lea	 edx, DWORD PTR [ebp+12]
  000f0	52		 push	 edx
  000f1	6a 00		 push	 0
  000f3	6a 00		 push	 0
  000f5	50		 push	 eax
  000f6	8b 45 04	 mov	 eax, DWORD PTR [ebp+4]
  000f9	50		 push	 eax
  000fa	68 00 00 00 00	 push	 OFFSET FLAT:??_C@_0DE@ILKBDCNN@?$CFd?0?$CFd?0?$CFd?0?$CFd?0?$CFs?0?$CFd?0?$CFd?0?$CFd?0?$CFd?0?$CFd?0?$CFd@
  000ff	53		 push	 ebx
  00100	e8 00 00 00 00	 call	 _sprintf
  00105	83 c4 4c	 add	 esp, 76			; 0000004cH
$L208233:

; 1158 : #else	//  __MA_VER11_05	//     world,database,neuz
; 1159 : 		// item
; 1160 : 		sprintf( pItemStruct->szItem, "%d,%d,%d,%d,%s,%d,%d,%d,%d,%d,%d,%d,%d,%d,%d,%d,%d/",
; 1161 : 				pItemElem->m_dwObjId, pItemElem->m_dwItemId,
; 1162 : 				0, 0, pItemElem->m_szItemText,
; 1163 : 				pItemElem->m_nItemNum, pItemElem->m_nRepairNumber,
; 1164 : 				pItemElem->m_nHitPoint, pItemElem->m_nRepair,
; 1165 : 				0, pItemElem->m_byFlag,
; 1166 : 				pItemElem->GetSerialNumber(), pItemElem->GetOption(), 
; 1167 :   				pItemElem->m_bItemResist, pItemElem->m_nResistAbilityOption,
; 1168 :   				pItemElem->m_idGuild,
; 1169 : 				pItemElem->m_nResistSMItemId
; 1170 : 			);
; 1171 : #endif // __MA_VER11_05	//     world,database,neuz
; 1172 : 
; 1173 : 		// ext
; 1174 : #if __VER >= 11 // __SYS_IDENTIFY
; 1175 : 		sprintf( pItemStruct->szExt, "%d,%d,%I64d"
; 1176 : #if __VER >= 15 // __PETVIS	
; 1177 : 			",%d"
; 1178 : #endif // __PETVIS
; 1179 : 			"/", pItemElem->m_bCharged, pItemElem->m_dwKeepTime, pItemElem->GetRandomOptItemId()
; 1180 : #if __VER >= 15 // __PETVIS
; 1181 : 			, static_cast<int>( pItemElem->m_bTranformVisPet )
; 1182 : #endif // __PETVIS
; 1183 : 			);

  00108	8b 8d 9c 00 00
	00		 mov	 ecx, DWORD PTR [ebp+156]
  0010e	8b 95 94 00 00
	00		 mov	 edx, DWORD PTR [ebp+148]
  00114	8b 85 90 00 00
	00		 mov	 eax, DWORD PTR [ebp+144]
  0011a	56		 push	 esi
  0011b	51		 push	 ecx
  0011c	8b 8d 8c 00 00
	00		 mov	 ecx, DWORD PTR [ebp+140]
  00122	52		 push	 edx
  00123	8b 95 88 00 00
	00		 mov	 edx, DWORD PTR [ebp+136]
  00129	50		 push	 eax
  0012a	51		 push	 ecx
  0012b	52		 push	 edx
  0012c	8d 83 00 02 00
	00		 lea	 eax, DWORD PTR [ebx+512]
  00132	68 00 00 00 00	 push	 OFFSET FLAT:??_C@_0BA@MBMDEEJC@?$CFd?0?$CFd?0?$CFI64d?0?$CFd?1?$AA@
  00137	50		 push	 eax
  00138	e8 00 00 00 00	 call	 _sprintf

; 1184 : #else	// __SYS_IDENTIFY
; 1185 : 		sprintf( pItemStruct->szExt, "%d,%d,%d/", pItemElem->m_bCharged, pItemElem->m_dwKeepTime, pItemElem->GetRandomOptItemId() );
; 1186 : #endif	// __SYS_IDENTIFY
; 1187 : 
; 1188 : 		// piercing
; 1189 : #if __VER >= 12 // __EXT_PIERCING
; 1190 : 		ItemProp* itemProp = prj.GetItemProp( pItemElem->m_dwItemId );

  0013d	8b 45 08	 mov	 eax, DWORD PTR [ebp+8]
  00140	8b 0d 50 00 00
	00		 mov	 ecx, DWORD PTR ?prj@@3VCProject@@A+80
  00146	83 c4 1c	 add	 esp, 28			; 0000001cH
  00149	3b c1		 cmp	 eax, ecx
  0014b	0f 83 c7 00 00
	00		 jae	 $L210314
  00151	8b 0d 40 00 00
	00		 mov	 ecx, DWORD PTR ?prj@@3VCProject@@A+64
  00157	8b 04 81	 mov	 eax, DWORD PTR [ecx+eax*4]

; 1191 : 		if( itemProp && itemProp->IsUltimate() )

  0015a	85 c0		 test	 eax, eax
  0015c	0f 84 b6 00 00
	00		 je	 $L210314
  00162	8b 48 74	 mov	 ecx, DWORD PTR [eax+116]
  00165	83 f9 02	 cmp	 ecx, 2
  00168	74 09		 je	 SHORT $L210313
  0016a	83 f9 03	 cmp	 ecx, 3
  0016d	0f 85 a5 00 00
	00		 jne	 $L210314
$L210313:
  00173	83 b8 00 02 00
	00 02		 cmp	 DWORD PTR [eax+512], 2
  0017a	0f 85 98 00 00
	00		 jne	 $L210314

; 1192 : 		{
; 1193 : 			sprintf( pItemStruct->szPiercing, "%d", pItemElem->GetUltimatePiercingSize() );

  00180	8d 75 34	 lea	 esi, DWORD PTR [ebp+52]
  00183	8b ce		 mov	 ecx, esi
  00185	8d bb 40 02 00
	00		 lea	 edi, DWORD PTR [ebx+576]
  0018b	e8 00 00 00 00	 call	 ?GetUltimatePiercingSize@CPiercing@@QAEHXZ ; CPiercing::GetUltimatePiercingSize
  00190	50		 push	 eax
  00191	68 00 00 00 00	 push	 OFFSET FLAT:??_C@_02DPKJAMEF@?$CFd?$AA@
  00196	57		 push	 edi
  00197	e8 00 00 00 00	 call	 _sprintf
  0019c	83 c4 0c	 add	 esp, 12			; 0000000cH

; 1194 : 			for( int nPirecing = 0 ; nPirecing < pItemElem->GetUltimatePiercingSize(); ++nPirecing )

  0019f	8b ce		 mov	 ecx, esi
  001a1	33 db		 xor	 ebx, ebx
  001a3	e8 00 00 00 00	 call	 ?GetUltimatePiercingSize@CPiercing@@QAEHXZ ; CPiercing::GetUltimatePiercingSize
  001a8	85 c0		 test	 eax, eax
  001aa	7e 38		 jle	 SHORT $L208243
  001ac	8d 64 24 00	 npad	 4
$L208241:

; 1195 : 			{
; 1196 : 				sprintf( szPiercing, ",%d", pItemElem->GetUltimatePiercingItem( nPirecing ) );

  001b0	53		 push	 ebx
  001b1	8b ce		 mov	 ecx, esi
  001b3	e8 00 00 00 00	 call	 ?GetUltimatePiercingItem@CPiercing@@QAEKH@Z ; CPiercing::GetUltimatePiercingItem
  001b8	50		 push	 eax
  001b9	8d 54 24 20	 lea	 edx, DWORD PTR _szPiercing$[esp+156]
  001bd	68 00 00 00 00	 push	 OFFSET FLAT:??_C@_03LEIBKMN@?0?$CFd?$AA@
  001c2	52		 push	 edx
  001c3	e8 00 00 00 00	 call	 _sprintf

; 1197 : 				strncat( pItemStruct->szPiercing, szPiercing, sizeof(szPiercing) );

  001c8	6a 20		 push	 32			; 00000020H
  001ca	8d 44 24 2c	 lea	 eax, DWORD PTR _szPiercing$[esp+168]
  001ce	50		 push	 eax
  001cf	57		 push	 edi
  001d0	e8 00 00 00 00	 call	 _strncat
  001d5	83 c4 18	 add	 esp, 24			; 00000018H
  001d8	8b ce		 mov	 ecx, esi
  001da	43		 inc	 ebx
  001db	e8 00 00 00 00	 call	 ?GetUltimatePiercingSize@CPiercing@@QAEHXZ ; CPiercing::GetUltimatePiercingSize
  001e0	3b d8		 cmp	 ebx, eax
  001e2	7c cc		 jl	 SHORT $L208241
$L208243:

; 1198 : 			}
; 1199 : 			if( pItemElem->GetPiercingSize() > 0 )

  001e4	8b ce		 mov	 ecx, esi
  001e6	e8 00 00 00 00	 call	 ?GetPiercingSize@CPiercing@@QAEHXZ ; CPiercing::GetPiercingSize
  001eb	85 c0		 test	 eax, eax
  001ed	7e 48		 jle	 SHORT $L210315

; 1200 : 			{
; 1201 : 				sprintf( szPiercing, ",%d", pItemElem->GetPiercingSize() );

  001ef	8b ce		 mov	 ecx, esi
  001f1	e8 00 00 00 00	 call	 ?GetPiercingSize@CPiercing@@QAEHXZ ; CPiercing::GetPiercingSize
  001f6	50		 push	 eax
  001f7	8d 4c 24 20	 lea	 ecx, DWORD PTR _szPiercing$[esp+156]
  001fb	68 00 00 00 00	 push	 OFFSET FLAT:??_C@_03LEIBKMN@?0?$CFd?$AA@
  00200	51		 push	 ecx
  00201	e8 00 00 00 00	 call	 _sprintf

; 1202 : 				strncat( pItemStruct->szPiercing, szPiercing, sizeof(szPiercing) );

  00206	6a 20		 push	 32			; 00000020H
  00208	8d 54 24 2c	 lea	 edx, DWORD PTR _szPiercing$[esp+168]
  0020c	52		 push	 edx
  0020d	57		 push	 edi
  0020e	e8 00 00 00 00	 call	 _strncat
  00213	83 c4 18	 add	 esp, 24			; 00000018H

; 1203 : 			}
; 1204 : 		}
; 1205 : 		else

  00216	eb 1f		 jmp	 SHORT $L210315
$L210314:

; 1206 : #endif // __EXT_PIERCING
; 1207 : 			sprintf( pItemStruct->szPiercing, "%d", pItemElem->GetPiercingSize() );

  00218	8d 75 34	 lea	 esi, DWORD PTR [ebp+52]
  0021b	8b ce		 mov	 ecx, esi
  0021d	8d bb 40 02 00
	00		 lea	 edi, DWORD PTR [ebx+576]
  00223	e8 00 00 00 00	 call	 ?GetPiercingSize@CPiercing@@QAEHXZ ; CPiercing::GetPiercingSize
  00228	50		 push	 eax
  00229	68 00 00 00 00	 push	 OFFSET FLAT:??_C@_02DPKJAMEF@?$CFd?$AA@
  0022e	57		 push	 edi
  0022f	e8 00 00 00 00	 call	 _sprintf
  00234	83 c4 0c	 add	 esp, 12			; 0000000cH
$L210315:

; 1208 : 
; 1209 : 		for( int nPirecing = 0 ; nPirecing < pItemElem->GetPiercingSize(); ++nPirecing )

  00237	8b ce		 mov	 ecx, esi
  00239	33 db		 xor	 ebx, ebx
  0023b	e8 00 00 00 00	 call	 ?GetPiercingSize@CPiercing@@QAEHXZ ; CPiercing::GetPiercingSize
  00240	85 c0		 test	 eax, eax
  00242	7e 34		 jle	 SHORT $L208250
$L208248:

; 1210 : 		{
; 1211 : 			sprintf( szPiercing, ",%d", pItemElem->GetPiercingItem( nPirecing ) );

  00244	53		 push	 ebx
  00245	8b ce		 mov	 ecx, esi
  00247	e8 00 00 00 00	 call	 ?GetPiercingItem@CPiercing@@QAEKH@Z ; CPiercing::GetPiercingItem
  0024c	50		 push	 eax
  0024d	8d 44 24 20	 lea	 eax, DWORD PTR _szPiercing$[esp+156]
  00251	68 00 00 00 00	 push	 OFFSET FLAT:??_C@_03LEIBKMN@?0?$CFd?$AA@
  00256	50		 push	 eax
  00257	e8 00 00 00 00	 call	 _sprintf

; 1212 : 			strncat( pItemStruct->szPiercing, szPiercing, sizeof(szPiercing) );

  0025c	6a 20		 push	 32			; 00000020H
  0025e	8d 4c 24 2c	 lea	 ecx, DWORD PTR _szPiercing$[esp+168]
  00262	51		 push	 ecx
  00263	57		 push	 edi
  00264	e8 00 00 00 00	 call	 _strncat
  00269	83 c4 18	 add	 esp, 24			; 00000018H
  0026c	8b ce		 mov	 ecx, esi
  0026e	43		 inc	 ebx
  0026f	e8 00 00 00 00	 call	 ?GetPiercingSize@CPiercing@@QAEHXZ ; CPiercing::GetPiercingSize
  00274	3b d8		 cmp	 ebx, eax
  00276	7c cc		 jl	 SHORT $L208248
$L208250:

; 1213 : 		}
; 1214 : #if __VER >= 15 // __PETVIS
; 1215 : 		if( pItemElem->IsVisPet() )

  00278	8b 45 08	 mov	 eax, DWORD PTR [ebp+8]
  0027b	8b 1d 50 00 00
	00		 mov	 ebx, DWORD PTR ?prj@@3VCProject@@A+80
  00281	3b c3		 cmp	 eax, ebx
  00283	8b 15 40 00 00
	00		 mov	 edx, DWORD PTR ?prj@@3VCProject@@A+64
  00289	0f 83 86 00 00
	00		 jae	 $L210318
  0028f	83 3c 82 00	 cmp	 DWORD PTR [edx+eax*4], 0
  00293	74 1a		 je	 SHORT $L210319
  00295	3b c3		 cmp	 eax, ebx
  00297	72 04		 jb	 SHORT $L210239
  00299	33 c9		 xor	 ecx, ecx
  0029b	eb 03		 jmp	 SHORT $L210238
$L210239:
  0029d	8b 0c 82	 mov	 ecx, DWORD PTR [edx+eax*4]
$L210238:
  002a0	83 79 78 64	 cmp	 DWORD PTR [ecx+120], 100 ; 00000064H
  002a4	75 09		 jne	 SHORT $L210319
  002a6	83 b9 00 02 00
	00 01		 cmp	 DWORD PTR [ecx+512], 1
  002ad	74 25		 je	 SHORT $L210322
$L210319:
  002af	3b c3		 cmp	 eax, ebx
  002b1	73 62		 jae	 SHORT $L210318
  002b3	83 3c 82 00	 cmp	 DWORD PTR [edx+eax*4], 0
  002b7	74 5c		 je	 SHORT $L210318
  002b9	3b c3		 cmp	 eax, ebx
  002bb	72 04		 jb	 SHORT $L210260
  002bd	33 c0		 xor	 eax, eax
  002bf	eb 03		 jmp	 SHORT $L210259
$L210260:
  002c1	8b 04 82	 mov	 eax, DWORD PTR [edx+eax*4]
$L210259:
  002c4	83 78 78 64	 cmp	 DWORD PTR [eax+120], 100 ; 00000064H
  002c8	75 4b		 jne	 SHORT $L210318
  002ca	8b 85 9c 00 00
	00		 mov	 eax, DWORD PTR [ebp+156]
  002d0	85 c0		 test	 eax, eax
  002d2	74 41		 je	 SHORT $L210318
$L210322:

; 1216 : 		{
; 1217 : 			for( nPirecing = 0; nPirecing < pItemElem->GetPiercingSize(); ++nPirecing )

  002d4	8b ce		 mov	 ecx, esi
  002d6	33 db		 xor	 ebx, ebx
  002d8	e8 00 00 00 00	 call	 ?GetPiercingSize@CPiercing@@QAEHXZ ; CPiercing::GetPiercingSize
  002dd	85 c0		 test	 eax, eax
  002df	7e 34		 jle	 SHORT $L210318
$L208252:

; 1218 : 			{
; 1219 : 				sprintf( szPiercing, ",%d", pItemElem->GetVisKeepTime( nPirecing ) );

  002e1	53		 push	 ebx
  002e2	8b ce		 mov	 ecx, esi
  002e4	e8 00 00 00 00	 call	 ?GetVisKeepTime@CPiercing@@QAEJH@Z ; CPiercing::GetVisKeepTime
  002e9	50		 push	 eax
  002ea	8d 54 24 20	 lea	 edx, DWORD PTR _szPiercing$[esp+156]
  002ee	68 00 00 00 00	 push	 OFFSET FLAT:??_C@_03LEIBKMN@?0?$CFd?$AA@
  002f3	52		 push	 edx
  002f4	e8 00 00 00 00	 call	 _sprintf

; 1220 : 				strncat( pItemStruct->szPiercing, szPiercing, sizeof(szPiercing) );

  002f9	6a 20		 push	 32			; 00000020H
  002fb	8d 44 24 2c	 lea	 eax, DWORD PTR _szPiercing$[esp+168]
  002ff	50		 push	 eax
  00300	57		 push	 edi
  00301	e8 00 00 00 00	 call	 _strncat
  00306	83 c4 18	 add	 esp, 24			; 00000018H
  00309	8b ce		 mov	 ecx, esi
  0030b	43		 inc	 ebx
  0030c	e8 00 00 00 00	 call	 ?GetPiercingSize@CPiercing@@QAEHXZ ; CPiercing::GetPiercingSize
  00311	3b d8		 cmp	 ebx, eax
  00313	7c cc		 jl	 SHORT $L208252
$L210318:

; 1221 : 			}
; 1222 : 		}
; 1223 : #endif // __PETVIS
; 1224 : 		strcat( pItemStruct->szPiercing, "/" );

  00315	4f		 dec	 edi
$L210307:
  00316	8a 47 01	 mov	 al, BYTE PTR [edi+1]
  00319	47		 inc	 edi
  0031a	84 c0		 test	 al, al
  0031c	75 f8		 jne	 SHORT $L210307
  0031e	66 8b 0d 00 00
	00 00		 mov	 cx, WORD PTR ??_C@_01KMDKNFGN@?1?$AA@
  00325	66 89 0f	 mov	 WORD PTR [edi], cx

; 1225 : 
; 1226 : 		// pet
; 1227 : 		if( pItemElem->m_pPet )

  00328	8b 85 98 00 00
	00		 mov	 eax, DWORD PTR [ebp+152]
  0032e	85 c0		 test	 eax, eax
  00330	0f 84 d6 01 00
	00		 je	 $L208255

; 1228 : 		{
; 1229 : 			sprintf( pItemStruct->szPet, "1,%d,%d,%d,%d,%d", 
; 1230 : 				pItemElem->m_pPet->GetKind(), pItemElem->m_pPet->GetLevel(),
; 1231 : 				pItemElem->m_pPet->GetExp(), pItemElem->m_pPet->GetEnergy(),
; 1232 : 				pItemElem->m_pPet->GetLife() );

  00336	8b 7c 24 14	 mov	 edi, DWORD PTR $T210295[esp+152]
  0033a	8b c8		 mov	 ecx, eax
  0033c	8a 51 05	 mov	 dl, BYTE PTR [ecx+5]
  0033f	8a 41 04	 mov	 al, BYTE PTR [ecx+4]
  00342	66 8b 71 0c	 mov	 si, WORD PTR [ecx+12]
  00346	8b 59 08	 mov	 ebx, DWORD PTR [ecx+8]
  00349	81 c7 40 03 00
	00		 add	 edi, 832		; 00000340H
  0034f	88 54 24 13	 mov	 BYTE PTR $T210281[esp+152], dl
  00353	88 44 24 12	 mov	 BYTE PTR $T210285[esp+152], al
  00357	89 7c 24 14	 mov	 DWORD PTR tv720[esp+152], edi
  0035b	e8 00 00 00 00	 call	 ?GetLife@CPet@@QAEGXZ	; CPet::GetLife
  00360	0f b7 c8	 movzx	 ecx, ax
  00363	0f b6 44 24 13	 movzx	 eax, BYTE PTR $T210281[esp+152]
  00368	51		 push	 ecx
  00369	0f b6 4c 24 16	 movzx	 ecx, BYTE PTR $T210285[esp+156]
  0036e	0f b7 d6	 movzx	 edx, si
  00371	52		 push	 edx
  00372	53		 push	 ebx
  00373	50		 push	 eax
  00374	51		 push	 ecx
  00375	68 00 00 00 00	 push	 OFFSET FLAT:??_C@_0BB@HAKKFLHF@1?0?$CFd?0?$CFd?0?$CFd?0?$CFd?0?$CFd?$AA@
  0037a	57		 push	 edi
  0037b	e8 00 00 00 00	 call	 _sprintf

; 1233 : 			for( int i = PL_D; i <= pItemElem->m_pPet->GetLevel(); i++ )

  00380	8b 8d 98 00 00
	00		 mov	 ecx, DWORD PTR [ebp+152]
  00386	8a 41 05	 mov	 al, BYTE PTR [ecx+5]
  00389	bb 01 00 00 00	 mov	 ebx, 1
  0038e	83 c4 1c	 add	 esp, 28			; 0000001cH
  00391	3a c3		 cmp	 al, bl
  00393	0f 82 80 00 00
	00		 jb	 $L208260
  00399	8d a4 24 00 00
	00 00		 npad	 7
$L208258:

; 1234 : 			{
; 1235 : 				char szAvailLevel[16]	= { 0,};

  003a0	33 d2		 xor	 edx, edx
  003a2	89 54 24 3d	 mov	 DWORD PTR _szAvailLevel$208261[esp+153], edx
  003a6	89 54 24 41	 mov	 DWORD PTR _szAvailLevel$208261[esp+157], edx
  003aa	89 54 24 45	 mov	 DWORD PTR _szAvailLevel$208261[esp+161], edx
  003ae	66 89 54 24 49	 mov	 WORD PTR _szAvailLevel$208261[esp+165], dx

; 1236 : 				sprintf( szAvailLevel, ",%d", pItemElem->m_pPet->GetAvailLevel( i ) );

  003b3	53		 push	 ebx
  003b4	c6 44 24 40 00	 mov	 BYTE PTR _szAvailLevel$208261[esp+156], 0
  003b9	88 54 24 4f	 mov	 BYTE PTR _szAvailLevel$208261[esp+171], dl
  003bd	e8 00 00 00 00	 call	 ?GetAvailLevel@CPet@@QAEEE@Z ; CPet::GetAvailLevel
  003c2	0f b6 c0	 movzx	 eax, al
  003c5	50		 push	 eax
  003c6	8d 4c 24 40	 lea	 ecx, DWORD PTR _szAvailLevel$208261[esp+156]
  003ca	68 00 00 00 00	 push	 OFFSET FLAT:??_C@_03LEIBKMN@?0?$CFd?$AA@
  003cf	51		 push	 ecx
  003d0	e8 00 00 00 00	 call	 _sprintf

; 1237 : 				strcat( pItemStruct->szPet, szAvailLevel );

  003d5	8d 44 24 48	 lea	 eax, DWORD PTR _szAvailLevel$208261[esp+164]
  003d9	83 c4 0c	 add	 esp, 12			; 0000000cH
  003dc	8b f0		 mov	 esi, eax
  003de	8b ff		 npad	 2
$L210308:
  003e0	8a 08		 mov	 cl, BYTE PTR [eax]
  003e2	40		 inc	 eax
  003e3	84 c9		 test	 cl, cl
  003e5	75 f9		 jne	 SHORT $L210308
  003e7	2b c6		 sub	 eax, esi
  003e9	4f		 dec	 edi
  003ea	8d 9b 00 00 00
	00		 npad	 6
$L210309:
  003f0	8a 4f 01	 mov	 cl, BYTE PTR [edi+1]
  003f3	47		 inc	 edi
  003f4	84 c9		 test	 cl, cl
  003f6	75 f8		 jne	 SHORT $L210309
  003f8	8b c8		 mov	 ecx, eax
  003fa	c1 e9 02	 shr	 ecx, 2
  003fd	f3 a5		 rep movsd
  003ff	8b c8		 mov	 ecx, eax
  00401	83 e1 03	 and	 ecx, 3
  00404	f3 a4		 rep movsb
  00406	8b 8d 98 00 00
	00		 mov	 ecx, DWORD PTR [ebp+152]
  0040c	0f b6 51 05	 movzx	 edx, BYTE PTR [ecx+5]
  00410	8b 7c 24 14	 mov	 edi, DWORD PTR tv720[esp+152]
  00414	43		 inc	 ebx
  00415	3b da		 cmp	 ebx, edx
  00417	7e 87		 jle	 SHORT $L208258
$L208260:

; 1238 : 			}
; 1239 : #ifdef __PET_1024
; 1240 : 			char szTemp[MAX_PET_NAME_FMT+1]		= { 0,};
; 1241 : 			char szFmt[MAX_PET_NAME_FMT]	= { 0,};
; 1242 : 			SetDBFormatStr( szFmt, MAX_PET_NAME_FMT, pItemElem->m_pPet->GetName() );

  00419	8b 95 98 00 00
	00		 mov	 edx, DWORD PTR [ebp+152]
  0041f	33 c0		 xor	 eax, eax
  00421	89 44 24 4d	 mov	 DWORD PTR _szTemp$208262[esp+153], eax
  00425	33 c9		 xor	 ecx, ecx
  00427	89 44 24 51	 mov	 DWORD PTR _szTemp$208262[esp+157], eax
  0042b	89 4c 24 71	 mov	 DWORD PTR _szFmt$208263[esp+153], ecx
  0042f	89 44 24 55	 mov	 DWORD PTR _szTemp$208262[esp+161], eax
  00433	89 4c 24 75	 mov	 DWORD PTR _szFmt$208263[esp+157], ecx
  00437	89 44 24 59	 mov	 DWORD PTR _szTemp$208262[esp+165], eax
  0043b	89 4c 24 79	 mov	 DWORD PTR _szFmt$208263[esp+161], ecx
  0043f	89 44 24 5d	 mov	 DWORD PTR _szTemp$208262[esp+169], eax
  00443	89 4c 24 7d	 mov	 DWORD PTR _szFmt$208263[esp+165], ecx
  00447	89 44 24 61	 mov	 DWORD PTR _szTemp$208262[esp+173], eax
  0044b	89 8c 24 81 00
	00 00		 mov	 DWORD PTR _szFmt$208263[esp+169], ecx
  00452	89 44 24 65	 mov	 DWORD PTR _szTemp$208262[esp+177], eax
  00456	89 44 24 69	 mov	 DWORD PTR _szTemp$208262[esp+181], eax
  0045a	89 8c 24 85 00
	00 00		 mov	 DWORD PTR _szFmt$208263[esp+173], ecx
  00461	83 c2 16	 add	 edx, 22			; 00000016H
  00464	52		 push	 edx
  00465	89 8c 24 8d 00
	00 00		 mov	 DWORD PTR _szFmt$208263[esp+181], ecx
  0046c	88 44 24 71	 mov	 BYTE PTR _szTemp$208262[esp+189], al
  00470	88 44 24 74	 mov	 BYTE PTR _szFmt$208263[esp+156], al
  00474	6a 21		 push	 33			; 00000021H
  00476	8d 44 24 78	 lea	 eax, DWORD PTR _szFmt$208263[esp+160]
  0047a	89 8c 24 95 00
	00 00		 mov	 DWORD PTR _szFmt$208263[esp+189], ecx
  00481	8b 4c 24 20	 mov	 ecx, DWORD PTR $T210293[esp+160]
  00485	50		 push	 eax
  00486	c6 44 24 58 00	 mov	 BYTE PTR _szTemp$208262[esp+164], 0
  0048b	e8 00 00 00 00	 call	 ?SetDBFormatStr@CDbManager@@AAEXPADHPBD@Z ; CDbManager::SetDBFormatStr

; 1243 : 			sprintf( szTemp, ",%s", szFmt );

  00490	8d 4c 24 70	 lea	 ecx, DWORD PTR _szFmt$208263[esp+152]
  00494	51		 push	 ecx
  00495	8d 54 24 50	 lea	 edx, DWORD PTR _szTemp$208262[esp+156]
  00499	68 00 00 00 00	 push	 OFFSET FLAT:??_C@_03OMLJOFL@?0?$CFs?$AA@
  0049e	52		 push	 edx
  0049f	e8 00 00 00 00	 call	 _sprintf

; 1244 : 			strcat( pItemStruct->szPet, szTemp );

  004a4	8d 44 24 58	 lea	 eax, DWORD PTR _szTemp$208262[esp+164]
  004a8	83 c4 0c	 add	 esp, 12			; 0000000cH
  004ab	8b c8		 mov	 ecx, eax
  004ad	8d 49 00	 npad	 3
$L210310:
  004b0	8a 10		 mov	 dl, BYTE PTR [eax]
  004b2	40		 inc	 eax
  004b3	84 d2		 test	 dl, dl
  004b5	75 f9		 jne	 SHORT $L210310
  004b7	2b c1		 sub	 eax, ecx
  004b9	8b f1		 mov	 esi, ecx
  004bb	4f		 dec	 edi
  004bc	8d 64 24 00	 npad	 4
$L210311:
  004c0	8a 4f 01	 mov	 cl, BYTE PTR [edi+1]
  004c3	47		 inc	 edi
  004c4	84 c9		 test	 cl, cl
  004c6	75 f8		 jne	 SHORT $L210311
  004c8	8b c8		 mov	 ecx, eax
  004ca	c1 e9 02	 shr	 ecx, 2
  004cd	f3 a5		 rep movsd
  004cf	8b c8		 mov	 ecx, eax
  004d1	83 e1 03	 and	 ecx, 3
  004d4	f3 a4		 rep movsb

; 1245 : #endif	// __PET_1024
; 1246 : 			strcat( pItemStruct->szPet, "/" );

  004d6	8b 7c 24 14	 mov	 edi, DWORD PTR tv720[esp+152]
  004da	4f		 dec	 edi
  004db	eb 03 8d 49 00	 npad	 5
$L210312:
  004e0	8a 47 01	 mov	 al, BYTE PTR [edi+1]
  004e3	47		 inc	 edi
  004e4	84 c0		 test	 al, al
  004e6	75 f8		 jne	 SHORT $L210312
  004e8	66 a1 00 00 00
	00		 mov	 ax, WORD PTR ??_C@_01KMDKNFGN@?1?$AA@
  004ee	66 89 07	 mov	 WORD PTR [edi], ax
$L210324:
  004f1	5e		 pop	 esi
$L208267:

; 1263 : 	}
; 1264 : }

  004f2	8b 8c 24 90 00
	00 00		 mov	 ecx, DWORD PTR __$ArrayPad$[esp+148]
  004f9	5f		 pop	 edi
  004fa	5d		 pop	 ebp
  004fb	5b		 pop	 ebx
  004fc	33 cc		 xor	 ecx, esp
  004fe	e8 00 00 00 00	 call	 @__security_check_cookie@4
  00503	81 c4 88 00 00
	00		 add	 esp, 136		; 00000088H
  00509	c2 08 00	 ret	 8
$L208255:

; 1247 : 		}
; 1248 : 		else
; 1249 : 		{
; 1250 : 			sprintf( pItemStruct->szPet, "0/" );

  0050c	8b 4c 24 14	 mov	 ecx, DWORD PTR $T210295[esp+152]
  00510	81 c1 40 03 00
	00		 add	 ecx, 832		; 00000340H
  00516	68 00 00 00 00	 push	 OFFSET FLAT:??_C@_02DGMJPLBA@0?1?$AA@
  0051b	51		 push	 ecx
  0051c	e8 00 00 00 00	 call	 _sprintf
  00521	83 c4 08	 add	 esp, 8

; 1251 : 		}
; 1252 : 	}
; 1253 : 	else

  00524	eb cb		 jmp	 SHORT $L210324
$L208230:

; 1254 : 	{
; 1255 : 		// item
; 1256 : 		ZeroMemory( pItemStruct->szItem, sizeof(pItemStruct->szItem) );

  00526	33 c0		 xor	 eax, eax

; 1257 : 		// ext
; 1258 : 		sprintf( pItemStruct->szExt, "%d,%d,%d/", 0, 0, 0 );

  00528	50		 push	 eax
  00529	50		 push	 eax
  0052a	50		 push	 eax
  0052b	8d 93 00 02 00
	00		 lea	 edx, DWORD PTR [ebx+512]
  00531	68 00 00 00 00	 push	 OFFSET FLAT:??_C@_09NKKIGFED@?$CFd?0?$CFd?0?$CFd?1?$AA@
  00536	b9 80 00 00 00	 mov	 ecx, 128		; 00000080H
  0053b	8b fb		 mov	 edi, ebx
  0053d	52		 push	 edx
  0053e	f3 ab		 rep stosd
  00540	e8 00 00 00 00	 call	 _sprintf

; 1259 : 		// piercing
; 1260 : 		sprintf( pItemStruct->szPiercing, "%d/", 0 );

  00545	6a 00		 push	 0
  00547	8d 83 40 02 00
	00		 lea	 eax, DWORD PTR [ebx+576]
  0054d	68 00 00 00 00	 push	 OFFSET FLAT:??_C@_03BEJFCEHO@?$CFd?1?$AA@
  00552	50		 push	 eax
  00553	e8 00 00 00 00	 call	 _sprintf

; 1261 : 		// pet
; 1262 : 		sprintf( pItemStruct->szPet, "0/" );

  00558	68 00 00 00 00	 push	 OFFSET FLAT:??_C@_02DGMJPLBA@0?1?$AA@
  0055d	81 c3 40 03 00
	00		 add	 ebx, 832		; 00000340H
  00563	53		 push	 ebx
  00564	e8 00 00 00 00	 call	 _sprintf
  00569	83 c4 28	 add	 esp, 40			; 00000028H
  0056c	eb 84		 jmp	 SHORT $L208267
?SaveOneItem@CDbManager@@QAEXPAVCItemElem@@PAU_ItemStruct@@@Z ENDP ; CDbManager::SaveOneItem
_TEXT	ENDS
PUBLIC	?SavePocket@CDbManager@@QAEXPAVCMover@@PAU_PocketStruct@@@Z ; CDbManager::SavePocket
EXTRN	?GetPocket@CPocketController@@QAEPAVCPocket@@H@Z:NEAR ; CPocketController::GetPocket
EXTRN	__imp__lstrcpyA@8:NEAR
; Function compile flags: /Ogty
;	COMDAT ?SavePocket@CDbManager@@QAEXPAVCMover@@PAU_PocketStruct@@@Z
_TEXT	SEGMENT
tv653 = -996						; size = 4
_i$208041 = -992					; size = 4
_nPocket$208029 = -988					; size = 4
_bPet$208036 = -984					; size = 4
_bPiercing$208035 = -980				; size = 4
_bExt$208034 = -976					; size = 4
tv417 = -972						; size = 4
$T210348 = -968						; size = 4
_is$208033 = -964					; size = 932
_sIndex$208037 = -32					; size = 10
_sObjIndex$208038 = -20					; size = 16
__$ArrayPad$ = -4					; size = 4
__$ReturnAddr$ = 4					; size = 4
_pMover$ = 8						; size = 4
_pPocketStruct$ = 12					; size = 4
?SavePocket@CDbManager@@QAEXPAVCMover@@PAU_PocketStruct@@@Z PROC NEAR ; CDbManager::SavePocket, COMDAT
; _this$ = ecx

; 769  : {

  00000	81 ec e4 03 00
	00		 sub	 esp, 996		; 000003e4H
  00006	a1 00 00 00 00	 mov	 eax, DWORD PTR ___security_cookie
  0000b	33 c4		 xor	 eax, esp
  0000d	53		 push	 ebx
  0000e	55		 push	 ebp
  0000f	56		 push	 esi
  00010	89 84 24 ec 03
	00 00		 mov	 DWORD PTR __$ArrayPad$[esp+1008], eax
  00017	8b 84 24 f4 03
	00 00		 mov	 eax, DWORD PTR _pMover$[esp+1004]
  0001e	57		 push	 edi
  0001f	8b bc 24 fc 03
	00 00		 mov	 edi, DWORD PTR _pPocketStruct$[esp+1008]

; 770  : 	for( int nPocket = 0; nPocket < MAX_POCKET; nPocket++ )

  00026	33 ed		 xor	 ebp, ebp

; 780  : 		{
; 781  : 			for( DWORD i = 0; i < pPocket->m_dwItemMax; i++ )

  00028	05 78 41 00 00	 add	 eax, 16760		; 00004178H
  0002d	33 f6		 xor	 esi, esi
  0002f	81 c7 00 1a 00
	00		 add	 edi, 6656		; 00001a00H
  00035	89 4c 24 2c	 mov	 DWORD PTR $T210348[esp+1012], ecx
  00039	89 6c 24 18	 mov	 DWORD PTR _nPocket$208029[esp+1012], ebp
  0003d	89 44 24 28	 mov	 DWORD PTR tv417[esp+1012], eax
  00041	89 7c 24 10	 mov	 DWORD PTR tv653[esp+1012], edi
  00045	eb 09		 jmp	 SHORT $L208030
$L210369:

; 770  : 	for( int nPocket = 0; nPocket < MAX_POCKET; nPocket++ )

  00047	33 f6		 xor	 esi, esi
  00049	8d a4 24 00 00
	00 00		 npad	 7
$L208030:

; 771  : 	{
; 772  : 		ItemStruct is;
; 773  : 		BOOL	bExt	= FALSE;
; 774  : 		BOOL	bPiercing	= FALSE;
; 775  : 		BOOL	bPet	= FALSE;
; 776  : 		char sIndex[10]		= { 0,};
; 777  : 		char sObjIndex[16]		= { 0,};

  00050	33 c9		 xor	 ecx, ecx
  00052	89 8c 24 e1 03
	00 00		 mov	 DWORD PTR _sObjIndex$208038[esp+1013], ecx
  00059	89 8c 24 e5 03
	00 00		 mov	 DWORD PTR _sObjIndex$208038[esp+1017], ecx
  00060	33 c0		 xor	 eax, eax
  00062	89 8c 24 e9 03
	00 00		 mov	 DWORD PTR _sObjIndex$208038[esp+1021], ecx
  00069	66 89 8c 24 ed
	03 00 00	 mov	 WORD PTR _sObjIndex$208038[esp+1025], cx
  00071	89 84 24 d5 03
	00 00		 mov	 DWORD PTR _sIndex$208037[esp+1013], eax
  00078	89 84 24 d9 03
	00 00		 mov	 DWORD PTR _sIndex$208037[esp+1017], eax
  0007f	88 8c 24 ef 03
	00 00		 mov	 BYTE PTR _sObjIndex$208038[esp+1027], cl

; 778  : 		CPocket* pPocket	= pMover->m_Pocket.GetPocket( nPocket );

  00086	8b 4c 24 28	 mov	 ecx, DWORD PTR tv417[esp+1012]
  0008a	55		 push	 ebp
  0008b	c6 44 24 34 00	 mov	 BYTE PTR _is$208033[esp+1016], 0
  00090	c6 84 24 34 02
	00 00 00	 mov	 BYTE PTR _is$208033[esp+1528], 0
  00098	c6 84 24 74 02
	00 00 00	 mov	 BYTE PTR _is$208033[esp+1592], 0
  000a0	c6 84 24 74 03
	00 00 00	 mov	 BYTE PTR _is$208033[esp+1848], 0
  000a8	89 74 24 28	 mov	 DWORD PTR _bExt$208034[esp+1016], esi
  000ac	89 74 24 24	 mov	 DWORD PTR _bPiercing$208035[esp+1016], esi
  000b0	89 74 24 20	 mov	 DWORD PTR _bPet$208036[esp+1016], esi
  000b4	c6 84 24 d8 03
	00 00 00	 mov	 BYTE PTR _sIndex$208037[esp+1016], 0
  000bc	88 84 24 e1 03
	00 00		 mov	 BYTE PTR _sIndex$208037[esp+1025], al
  000c3	88 84 24 e4 03
	00 00		 mov	 BYTE PTR _sObjIndex$208038[esp+1016], al
  000ca	e8 00 00 00 00	 call	 ?GetPocket@CPocketController@@QAEPAVCPocket@@H@Z ; CPocketController::GetPocket
  000cf	8b d8		 mov	 ebx, eax

; 779  : 		if( pPocket )

  000d1	3b de		 cmp	 ebx, esi
  000d3	0f 84 b9 02 00
	00		 je	 $L208040

; 780  : 		{
; 781  : 			for( DWORD i = 0; i < pPocket->m_dwItemMax; i++ )

  000d9	39 73 10	 cmp	 DWORD PTR [ebx+16], esi
  000dc	89 74 24 14	 mov	 DWORD PTR _i$208041[esp+1012], esi
  000e0	0f 86 7a 01 00
	00		 jbe	 $L208044
  000e6	33 ed		 xor	 ebp, ebp
  000e8	eb 06 8d 9b 00
	00 00 00	 npad	 8
$L208042:

; 782  : 			{
; 783  : 				SaveOneItem( &pPocket->m_apItem[i], &is );

  000f0	8b 43 0c	 mov	 eax, DWORD PTR [ebx+12]
  000f3	8b 4c 24 2c	 mov	 ecx, DWORD PTR $T210348[esp+1012]
  000f7	8d 54 24 30	 lea	 edx, DWORD PTR _is$208033[esp+1012]
  000fb	52		 push	 edx
  000fc	03 c5		 add	 eax, ebp
  000fe	50		 push	 eax
  000ff	e8 00 00 00 00	 call	 ?SaveOneItem@CDbManager@@QAEXPAVCItemElem@@PAU_ItemStruct@@@Z ; CDbManager::SaveOneItem

; 784  : 				strncat( pPocketStruct[nPocket].szItem, is.szItem, sizeof(is.szItem) );

  00104	68 00 02 00 00	 push	 512			; 00000200H
  00109	8d 4c 24 34	 lea	 ecx, DWORD PTR _is$208033[esp+1016]
  0010d	51		 push	 ecx
  0010e	8d 87 00 e6 ff
	ff		 lea	 eax, DWORD PTR [edi-6656]
  00114	50		 push	 eax
  00115	e8 00 00 00 00	 call	 _strncat

; 785  : 				strncat( pPocketStruct[nPocket].szExt, is.szExt, sizeof(is.szExt) );

  0011a	6a 40		 push	 64			; 00000040H
  0011c	8d 94 24 40 02
	00 00		 lea	 edx, DWORD PTR _is$208033[esp+1540]
  00123	52		 push	 edx
  00124	8d 87 00 02 00
	00		 lea	 eax, DWORD PTR [edi+512]
  0012a	50		 push	 eax
  0012b	e8 00 00 00 00	 call	 _strncat

; 786  : 				strncat( pPocketStruct[nPocket].szPiercing, is.szPiercing, sizeof(is.szPiercing) );

  00130	68 00 01 00 00	 push	 256			; 00000100H
  00135	8d 84 24 8c 02
	00 00		 lea	 eax, DWORD PTR _is$208033[esp+1616]
  0013c	50		 push	 eax
  0013d	8d 87 00 0a 00
	00		 lea	 eax, DWORD PTR [edi+2560]
  00143	50		 push	 eax
  00144	e8 00 00 00 00	 call	 _strncat

; 787  : 				sprintf( sIndex, "%d/", pPocket->m_apIndex[i] );

  00149	8b 4b 04	 mov	 ecx, DWORD PTR [ebx+4]
  0014c	8b 54 24 38	 mov	 edx, DWORD PTR _i$208041[esp+1048]
  00150	8b 04 91	 mov	 eax, DWORD PTR [ecx+edx*4]
  00153	50		 push	 eax
  00154	8d 8c 24 fc 03
	00 00		 lea	 ecx, DWORD PTR _sIndex$208037[esp+1052]
  0015b	68 00 00 00 00	 push	 OFFSET FLAT:??_C@_03BEJFCEHO@?$CFd?1?$AA@
  00160	51		 push	 ecx
  00161	e8 00 00 00 00	 call	 _sprintf

; 788  : 				strncat( pPocketStruct[nPocket].szIndex, sIndex, sizeof(sIndex) );

  00166	6a 0a		 push	 10			; 0000000aH
  00168	8d 94 24 08 04
	00 00		 lea	 edx, DWORD PTR _sIndex$208037[esp+1064]
  0016f	52		 push	 edx
  00170	8d 87 00 fe ff
	ff		 lea	 eax, DWORD PTR [edi-512]
  00176	50		 push	 eax
  00177	e8 00 00 00 00	 call	 _strncat

; 789  : 				sprintf( sObjIndex, "%d/", pPocket->m_apItem[i].m_dwObjIndex );

  0017c	8b 43 0c	 mov	 eax, DWORD PTR [ebx+12]
  0017f	8b 4c 28 2c	 mov	 ecx, DWORD PTR [eax+ebp+44]
  00183	51		 push	 ecx
  00184	8d 94 24 20 04
	00 00		 lea	 edx, DWORD PTR _sObjIndex$208038[esp+1076]
  0018b	68 00 00 00 00	 push	 OFFSET FLAT:??_C@_03BEJFCEHO@?$CFd?1?$AA@
  00190	52		 push	 edx
  00191	e8 00 00 00 00	 call	 _sprintf

; 790  : 				strcat( pPocketStruct[nPocket].szObjIndex, sObjIndex );

  00196	8d 84 24 28 04
	00 00		 lea	 eax, DWORD PTR _sObjIndex$208038[esp+1084]
  0019d	83 c4 48	 add	 esp, 72			; 00000048H
  001a0	8b f0		 mov	 esi, eax
$L210355:
  001a2	8a 08		 mov	 cl, BYTE PTR [eax]
  001a4	40		 inc	 eax
  001a5	84 c9		 test	 cl, cl
  001a7	75 f9		 jne	 SHORT $L210355
  001a9	2b c6		 sub	 eax, esi
  001ab	4f		 dec	 edi
  001ac	8d 64 24 00	 npad	 4
$L210356:
  001b0	8a 4f 01	 mov	 cl, BYTE PTR [edi+1]
  001b3	47		 inc	 edi
  001b4	84 c9		 test	 cl, cl
  001b6	75 f8		 jne	 SHORT $L210356
  001b8	8b c8		 mov	 ecx, eax
  001ba	c1 e9 02	 shr	 ecx, 2
  001bd	f3 a5		 rep movsd
  001bf	8b c8		 mov	 ecx, eax

; 791  : 				strncat( pPocketStruct[nPocket].szPet, is.szPet, sizeof(is.szPet) );

  001c1	6a 64		 push	 100			; 00000064H
  001c3	8d 84 24 74 03
	00 00		 lea	 eax, DWORD PTR _is$208033[esp+1848]
  001ca	50		 push	 eax
  001cb	8b 44 24 18	 mov	 eax, DWORD PTR tv653[esp+1020]
  001cf	05 40 29 00 00	 add	 eax, 10560		; 00002940H
  001d4	83 e1 03	 and	 ecx, 3
  001d7	50		 push	 eax
  001d8	f3 a4		 rep movsb
  001da	e8 00 00 00 00	 call	 _strncat

; 792  : 				if( pPocket->m_apItem[i].m_bCharged || 0 < pPocket->m_apItem[i].m_dwKeepTime || 0 != pPocket->m_apItem[i].GetRandomOptItemId() )

  001df	8b 4b 0c	 mov	 ecx, DWORD PTR [ebx+12]
  001e2	8d 04 29	 lea	 eax, DWORD PTR [ecx+ebp]
  001e5	8b 88 88 00 00
	00		 mov	 ecx, DWORD PTR [eax+136]
  001eb	83 c4 0c	 add	 esp, 12			; 0000000cH
  001ee	85 c9		 test	 ecx, ecx
  001f0	75 1e		 jne	 SHORT $L210357
  001f2	8b 88 8c 00 00
	00		 mov	 ecx, DWORD PTR [eax+140]
  001f8	85 c9		 test	 ecx, ecx
  001fa	77 14		 ja	 SHORT $L210357
  001fc	8b 88 90 00 00
	00		 mov	 ecx, DWORD PTR [eax+144]
  00202	85 c9		 test	 ecx, ecx
  00204	75 0a		 jne	 SHORT $L210357
  00206	8b 88 94 00 00
	00		 mov	 ecx, DWORD PTR [eax+148]
  0020c	85 c9		 test	 ecx, ecx
  0020e	74 0b		 je	 SHORT $L210367
$L210357:

; 793  : 					bExt	= TRUE;

  00210	be 01 00 00 00	 mov	 esi, 1
  00215	89 74 24 24	 mov	 DWORD PTR _bExt$208034[esp+1012], esi
  00219	eb 05		 jmp	 SHORT $L208045
$L210367:
  0021b	be 01 00 00 00	 mov	 esi, 1
$L208045:

; 794  : 				if( pPocket->m_apItem[i].IsPiercedItem() )

  00220	8d 48 34	 lea	 ecx, DWORD PTR [eax+52]
  00223	e8 00 00 00 00	 call	 ?IsPiercedItem@CPiercing@@QAEHXZ ; CPiercing::IsPiercedItem
  00228	85 c0		 test	 eax, eax
  0022a	74 04		 je	 SHORT $L208047

; 795  : 					bPiercing	= TRUE;

  0022c	89 74 24 20	 mov	 DWORD PTR _bPiercing$208035[esp+1012], esi
$L208047:

; 796  : 				if( pPocket->m_apItem[i].m_pPet )

  00230	8b 53 0c	 mov	 edx, DWORD PTR [ebx+12]
  00233	8b 84 2a 98 00
	00 00		 mov	 eax, DWORD PTR [edx+ebp+152]
  0023a	85 c0		 test	 eax, eax
  0023c	74 04		 je	 SHORT $L208043

; 797  : 					bPet	= TRUE;

  0023e	89 74 24 1c	 mov	 DWORD PTR _bPet$208036[esp+1012], esi
$L208043:

; 780  : 		{
; 781  : 			for( DWORD i = 0; i < pPocket->m_dwItemMax; i++ )

  00242	8b 44 24 14	 mov	 eax, DWORD PTR _i$208041[esp+1012]
  00246	8b 4b 10	 mov	 ecx, DWORD PTR [ebx+16]
  00249	8b 7c 24 10	 mov	 edi, DWORD PTR tv653[esp+1012]
  0024d	40		 inc	 eax
  0024e	81 c5 a0 00 00
	00		 add	 ebp, 160		; 000000a0H
  00254	3b c1		 cmp	 eax, ecx
  00256	89 44 24 14	 mov	 DWORD PTR _i$208041[esp+1012], eax
  0025a	0f 82 90 fe ff
	ff		 jb	 $L208042
$L208044:

; 798  : 			}
; 799  : 			strncat( pPocketStruct[nPocket].szItem, NullStr, sizeof(NullStr) );

  00260	6a 02		 push	 2
  00262	8d 87 00 e6 ff
	ff		 lea	 eax, DWORD PTR [edi-6656]
  00268	68 00 00 00 00	 push	 OFFSET FLAT:_NullStr
  0026d	50		 push	 eax
  0026e	e8 00 00 00 00	 call	 _strncat

; 800  : 			strncat( pPocketStruct[nPocket].szIndex, NullStr, sizeof(NullStr) );

  00273	6a 02		 push	 2
  00275	8d 8f 00 fe ff
	ff		 lea	 ecx, DWORD PTR [edi-512]
  0027b	68 00 00 00 00	 push	 OFFSET FLAT:_NullStr
  00280	51		 push	 ecx
  00281	e8 00 00 00 00	 call	 _strncat

; 801  : 			strcat( pPocketStruct[nPocket].szObjIndex, NullStr );

  00286	b8 00 00 00 00	 mov	 eax, OFFSET FLAT:_NullStr
  0028b	83 c4 18	 add	 esp, 24			; 00000018H
  0028e	8b f0		 mov	 esi, eax
$L210358:
  00290	8a 08		 mov	 cl, BYTE PTR [eax]
  00292	40		 inc	 eax
  00293	84 c9		 test	 cl, cl
  00295	75 f9		 jne	 SHORT $L210358
  00297	2b c6		 sub	 eax, esi
  00299	4f		 dec	 edi
  0029a	8d 9b 00 00 00
	00		 npad	 6
$L210359:
  002a0	8a 4f 01	 mov	 cl, BYTE PTR [edi+1]
  002a3	47		 inc	 edi
  002a4	84 c9		 test	 cl, cl
  002a6	75 f8		 jne	 SHORT $L210359

; 802  : 			if( bExt == FALSE )
; 803  : 				*pPocketStruct[nPocket].szExt	= '\0';

  002a8	8b 6c 24 10	 mov	 ebp, DWORD PTR tv653[esp+1012]
  002ac	8b c8		 mov	 ecx, eax
  002ae	c1 e9 02	 shr	 ecx, 2
  002b1	f3 a5		 rep movsd
  002b3	8b c8		 mov	 ecx, eax
  002b5	8b 44 24 24	 mov	 eax, DWORD PTR _bExt$208034[esp+1012]
  002b9	83 e1 03	 and	 ecx, 3
  002bc	85 c0		 test	 eax, eax
  002be	f3 a4		 rep movsb
  002c0	75 07		 jne	 SHORT $L208049
  002c2	c6 85 00 02 00
	00 00		 mov	 BYTE PTR [ebp+512], 0
$L208049:

; 804  : 			if( bPiercing == FALSE )

  002c9	8b 44 24 20	 mov	 eax, DWORD PTR _bPiercing$208035[esp+1012]
  002cd	85 c0		 test	 eax, eax
  002cf	75 07		 jne	 SHORT $L208050

; 805  : 				*pPocketStruct[nPocket].szPiercing	= '\0';

  002d1	c6 85 00 0a 00
	00 00		 mov	 BYTE PTR [ebp+2560], 0
$L208050:

; 806  : 			if( bPet == FALSE )

  002d8	8b 44 24 1c	 mov	 eax, DWORD PTR _bPet$208036[esp+1012]
  002dc	85 c0		 test	 eax, eax
  002de	75 07		 jne	 SHORT $L208051

; 807  : 				*pPocketStruct[nPocket].szPet	= '\0';

  002e0	c6 85 40 29 00
	00 00		 mov	 BYTE PTR [ebp+10560], 0
$L208051:

; 808  : 			strcat( pPocketStruct[nPocket].szExt, NullStr );

  002e7	b8 00 00 00 00	 mov	 eax, OFFSET FLAT:_NullStr
  002ec	8b d0		 mov	 edx, eax
  002ee	8b ff		 npad	 2
$L210360:
  002f0	8a 08		 mov	 cl, BYTE PTR [eax]
  002f2	40		 inc	 eax
  002f3	84 c9		 test	 cl, cl
  002f5	75 f9		 jne	 SHORT $L210360
  002f7	8d bd 00 02 00
	00		 lea	 edi, DWORD PTR [ebp+512]
  002fd	2b c2		 sub	 eax, edx
  002ff	4f		 dec	 edi
$L210361:
  00300	8a 4f 01	 mov	 cl, BYTE PTR [edi+1]
  00303	47		 inc	 edi
  00304	84 c9		 test	 cl, cl
  00306	75 f8		 jne	 SHORT $L210361
  00308	8b c8		 mov	 ecx, eax
  0030a	c1 e9 02	 shr	 ecx, 2
  0030d	8b f2		 mov	 esi, edx
  0030f	f3 a5		 rep movsd
  00311	8b c8		 mov	 ecx, eax
  00313	83 e1 03	 and	 ecx, 3

; 809  : 			strcat( pPocketStruct[nPocket].szPiercing, NullStr );

  00316	b8 00 00 00 00	 mov	 eax, OFFSET FLAT:_NullStr
  0031b	f3 a4		 rep movsb
  0031d	8b f0		 mov	 esi, eax
  0031f	90		 npad	 1
$L210362:
  00320	8a 08		 mov	 cl, BYTE PTR [eax]
  00322	40		 inc	 eax
  00323	84 c9		 test	 cl, cl
  00325	75 f9		 jne	 SHORT $L210362
  00327	8d bd 00 0a 00
	00		 lea	 edi, DWORD PTR [ebp+2560]
  0032d	2b c6		 sub	 eax, esi
  0032f	4f		 dec	 edi
$L210363:
  00330	8a 4f 01	 mov	 cl, BYTE PTR [edi+1]
  00333	47		 inc	 edi
  00334	84 c9		 test	 cl, cl
  00336	75 f8		 jne	 SHORT $L210363
  00338	8b c8		 mov	 ecx, eax
  0033a	c1 e9 02	 shr	 ecx, 2
  0033d	f3 a5		 rep movsd
  0033f	8b c8		 mov	 ecx, eax
  00341	83 e1 03	 and	 ecx, 3

; 810  : 			strcat( pPocketStruct[nPocket].szPet, NullStr );

  00344	b8 00 00 00 00	 mov	 eax, OFFSET FLAT:_NullStr
  00349	f3 a4		 rep movsb
  0034b	8b f0		 mov	 esi, eax
  0034d	8d 49 00	 npad	 3
$L210364:
  00350	8a 08		 mov	 cl, BYTE PTR [eax]
  00352	40		 inc	 eax
  00353	84 c9		 test	 cl, cl
  00355	75 f9		 jne	 SHORT $L210364
  00357	8d bd 40 29 00
	00		 lea	 edi, DWORD PTR [ebp+10560]
  0035d	2b c6		 sub	 eax, esi
  0035f	4f		 dec	 edi
$L210365:
  00360	8a 4f 01	 mov	 cl, BYTE PTR [edi+1]
  00363	47		 inc	 edi
  00364	84 c9		 test	 cl, cl
  00366	75 f8		 jne	 SHORT $L210365
  00368	8b c8		 mov	 ecx, eax
  0036a	c1 e9 02	 shr	 ecx, 2
  0036d	f3 a5		 rep movsd
  0036f	8b c8		 mov	 ecx, eax
  00371	83 e1 03	 and	 ecx, 3
  00374	f3 a4		 rep movsb

; 811  : 			pPocketStruct[nPocket].bExpired		= pPocket->IsExpired();

  00376	8b 53 14	 mov	 edx, DWORD PTR [ebx+20]

; 812  : 			pPocketStruct[nPocket].tExpirationDate	= pPocket->GetExpirationDate();
; 813  : 		}
; 814  : 		else

  00379	8b 7c 24 10	 mov	 edi, DWORD PTR tv653[esp+1012]
  0037d	89 95 a8 39 00
	00		 mov	 DWORD PTR [ebp+14760], edx
  00383	8b 43 18	 mov	 eax, DWORD PTR [ebx+24]
  00386	89 85 ac 39 00
	00		 mov	 DWORD PTR [ebp+14764], eax
  0038c	8b 6c 24 18	 mov	 ebp, DWORD PTR _nPocket$208029[esp+1012]
  00390	eb 68		 jmp	 SHORT $L208031
$L208040:

; 815  : 		{
; 816  : 			lstrcpy( pPocketStruct[nPocket].szItem, NullStr ); 

  00392	8b 35 00 00 00
	00		 mov	 esi, DWORD PTR __imp__lstrcpyA@8
  00398	68 00 00 00 00	 push	 OFFSET FLAT:_NullStr
  0039d	8d 8f 00 e6 ff
	ff		 lea	 ecx, DWORD PTR [edi-6656]
  003a3	51		 push	 ecx
  003a4	ff d6		 call	 esi

; 817  : 			lstrcpy( pPocketStruct[nPocket].szIndex, NullStr ); 

  003a6	68 00 00 00 00	 push	 OFFSET FLAT:_NullStr
  003ab	8d 97 00 fe ff
	ff		 lea	 edx, DWORD PTR [edi-512]
  003b1	52		 push	 edx
  003b2	ff d6		 call	 esi

; 818  : 			lstrcpy( pPocketStruct[nPocket].szObjIndex, NullStr ); 

  003b4	68 00 00 00 00	 push	 OFFSET FLAT:_NullStr
  003b9	57		 push	 edi
  003ba	ff d6		 call	 esi

; 819  : 			lstrcpy( pPocketStruct[nPocket].szExt, NullStr ); 

  003bc	68 00 00 00 00	 push	 OFFSET FLAT:_NullStr
  003c1	8d 87 00 02 00
	00		 lea	 eax, DWORD PTR [edi+512]
  003c7	50		 push	 eax
  003c8	ff d6		 call	 esi

; 820  : 			lstrcpy( pPocketStruct[nPocket].szPiercing, NullStr ); 

  003ca	68 00 00 00 00	 push	 OFFSET FLAT:_NullStr
  003cf	8d 8f 00 0a 00
	00		 lea	 ecx, DWORD PTR [edi+2560]
  003d5	51		 push	 ecx
  003d6	ff d6		 call	 esi

; 821  : 			lstrcpy( pPocketStruct[nPocket].szPet, NullStr ); 

  003d8	68 00 00 00 00	 push	 OFFSET FLAT:_NullStr
  003dd	8d 97 40 29 00
	00		 lea	 edx, DWORD PTR [edi+10560]
  003e3	52		 push	 edx
  003e4	ff d6		 call	 esi

; 822  : 			pPocketStruct[nPocket].bExpired		= TRUE;

  003e6	c7 87 a8 39 00
	00 01 00 00 00	 mov	 DWORD PTR [edi+14760], 1

; 823  : 			pPocketStruct[nPocket].tExpirationDate	= 0;

  003f0	c7 87 ac 39 00
	00 00 00 00 00	 mov	 DWORD PTR [edi+14764], 0
$L208031:
  003fa	45		 inc	 ebp
  003fb	81 c7 b0 53 00
	00		 add	 edi, 21424		; 000053b0H
  00401	83 fd 03	 cmp	 ebp, 3
  00404	89 6c 24 18	 mov	 DWORD PTR _nPocket$208029[esp+1012], ebp
  00408	89 7c 24 10	 mov	 DWORD PTR tv653[esp+1012], edi
  0040c	0f 8c 35 fc ff
	ff		 jl	 $L210369

; 824  : 		}
; 825  : 	}
; 826  : }

  00412	8b 8c 24 f0 03
	00 00		 mov	 ecx, DWORD PTR __$ArrayPad$[esp+1012]
  00419	5f		 pop	 edi
  0041a	5e		 pop	 esi
  0041b	5d		 pop	 ebp
  0041c	5b		 pop	 ebx
  0041d	33 cc		 xor	 ecx, esp
  0041f	e8 00 00 00 00	 call	 @__security_check_cookie@4
  00424	81 c4 e4 03 00
	00		 add	 esp, 996		; 000003e4H
  0042a	c2 08 00	 ret	 8
?SavePocket@CDbManager@@QAEXPAVCMover@@PAU_PocketStruct@@@Z ENDP ; CDbManager::SavePocket
_TEXT	ENDS
PUBLIC	?SaveInventory@CDbManager@@QAEXPAVCMover@@PAU_ItemContainerStruct@@@Z ; CDbManager::SaveInventory
; Function compile flags: /Ogty
;	COMDAT ?SaveInventory@CDbManager@@QAEXPAVCMover@@PAU_ItemContainerStruct@@@Z
_TEXT	SEGMENT
$T210387 = -988						; size = 4
_ch$208064 = -984					; size = 4
_bPet$ = -980						; size = 4
_bPirecingInven$ = -976					; size = 4
_bExtInven$ = -972					; size = 4
$T210385 = -968						; size = 4
_is$ = -964						; size = 932
_Onem_apIndex$ = -32					; size = 10
_sPerObjIndex$ = -20					; size = 16
__$ArrayPad$ = -4					; size = 4
__$ReturnAddr$ = 4					; size = 4
_pMover$ = 8						; size = 4
_pItemContainerStruct$ = 12				; size = 4
?SaveInventory@CDbManager@@QAEXPAVCMover@@PAU_ItemContainerStruct@@@Z PROC NEAR ; CDbManager::SaveInventory, COMDAT
; _this$ = ecx

; 830  : {

  00000	81 ec dc 03 00
	00		 sub	 esp, 988		; 000003dcH
  00006	a1 00 00 00 00	 mov	 eax, DWORD PTR ___security_cookie
  0000b	33 c4		 xor	 eax, esp
  0000d	89 4c 24 14	 mov	 DWORD PTR $T210385[esp+988], ecx
  00011	89 84 24 d8 03
	00 00		 mov	 DWORD PTR __$ArrayPad$[esp+988], eax

; 831  : 	ItemStruct	is;
; 832  : 	char Onem_apIndex[10]		= {0,};
; 833  : 	char sPerObjIndex[16]		= {0,};

  00018	33 c9		 xor	 ecx, ecx
  0001a	33 c0		 xor	 eax, eax
  0001c	53		 push	 ebx
  0001d	89 8c 24 cd 03
	00 00		 mov	 DWORD PTR _sPerObjIndex$[esp+993], ecx
  00024	55		 push	 ebp
  00025	8b ac 24 e8 03
	00 00		 mov	 ebp, DWORD PTR _pMover$[esp+992]
  0002c	89 84 24 c5 03
	00 00		 mov	 DWORD PTR _Onem_apIndex$[esp+997], eax
  00033	89 84 24 c9 03
	00 00		 mov	 DWORD PTR _Onem_apIndex$[esp+1001], eax
  0003a	89 8c 24 d5 03
	00 00		 mov	 DWORD PTR _sPerObjIndex$[esp+1001], ecx

; 834  : 	BOOL bExtInven = FALSE;

  00041	33 db		 xor	 ebx, ebx
  00043	56		 push	 esi
  00044	88 84 24 d1 03
	00 00		 mov	 BYTE PTR _Onem_apIndex$[esp+1009], al
  0004b	88 84 24 d4 03
	00 00		 mov	 BYTE PTR _sPerObjIndex$[esp+1000], al

; 835  : 	BOOL bPirecingInven = FALSE;
; 836  : 
; 837  : 	BOOL	bPet	= FALSE;
; 838  : 
; 839  : 	for( DWORD ch = 0; ch < pMover->m_Inventory.m_dwItemMax; ch++ )	// 0-504

  00052	39 9d 24 41 00
	00		 cmp	 DWORD PTR [ebp+16676], ebx
  00058	89 8c 24 dd 03
	00 00		 mov	 DWORD PTR _sPerObjIndex$[esp+1009], ecx
  0005f	57		 push	 edi
  00060	8b bc 24 f4 03
	00 00		 mov	 edi, DWORD PTR _pItemContainerStruct$[esp+1000]
  00067	66 89 8c 24 e5
	03 00 00	 mov	 WORD PTR _sPerObjIndex$[esp+1017], cx
  0006f	89 7c 24 10	 mov	 DWORD PTR $T210387[esp+1004], edi
  00073	c6 44 24 28 00	 mov	 BYTE PTR _is$[esp+1004], 0
  00078	c6 84 24 28 02
	00 00 00	 mov	 BYTE PTR _is$[esp+1516], 0
  00080	c6 84 24 68 02
	00 00 00	 mov	 BYTE PTR _is$[esp+1580], 0
  00088	c6 84 24 68 03
	00 00 00	 mov	 BYTE PTR _is$[esp+1836], 0
  00090	c6 84 24 cc 03
	00 00 00	 mov	 BYTE PTR _Onem_apIndex$[esp+1004], 0
  00098	88 8c 24 e7 03
	00 00		 mov	 BYTE PTR _sPerObjIndex$[esp+1019], cl
  0009f	89 5c 24 20	 mov	 DWORD PTR _bExtInven$[esp+1004], ebx
  000a3	89 5c 24 1c	 mov	 DWORD PTR _bPirecingInven$[esp+1004], ebx
  000a7	89 5c 24 18	 mov	 DWORD PTR _bPet$[esp+1004], ebx
  000ab	89 5c 24 14	 mov	 DWORD PTR _ch$208064[esp+1004], ebx
  000af	0f 86 88 01 00
	00		 jbe	 $L208067
  000b5	eb 09 8d a4 24
	00 00 00 00 8b
	ff		 npad	 11
$L208065:

; 840  : 	{
; 841  : 		SaveOneItem( &pMover->m_Inventory.m_apItem[ch], &is );

  000c0	8b 85 20 41 00
	00		 mov	 eax, DWORD PTR [ebp+16672]
  000c6	8b 4c 24 24	 mov	 ecx, DWORD PTR $T210385[esp+1004]
  000ca	8d 54 24 28	 lea	 edx, DWORD PTR _is$[esp+1004]
  000ce	52		 push	 edx
  000cf	03 c3		 add	 eax, ebx
  000d1	50		 push	 eax
  000d2	e8 00 00 00 00	 call	 ?SaveOneItem@CDbManager@@QAEXPAVCItemElem@@PAU_ItemStruct@@@Z ; CDbManager::SaveOneItem

; 842  : 		strncat( pItemContainerStruct->szItem, is.szItem, sizeof(is.szItem) );

  000d7	68 00 02 00 00	 push	 512			; 00000200H
  000dc	8d 4c 24 2c	 lea	 ecx, DWORD PTR _is$[esp+1008]
  000e0	51		 push	 ecx
  000e1	57		 push	 edi
  000e2	e8 00 00 00 00	 call	 _strncat

; 843  : 		strncat( pItemContainerStruct->szExt, is.szExt, sizeof(is.szExt) );

  000e7	6a 40		 push	 64			; 00000040H
  000e9	8d 94 24 38 02
	00 00		 lea	 edx, DWORD PTR _is$[esp+1532]
  000f0	52		 push	 edx
  000f1	8d 87 00 1c 00
	00		 lea	 eax, DWORD PTR [edi+7168]
  000f7	50		 push	 eax
  000f8	e8 00 00 00 00	 call	 _strncat

; 844  : 		strncat( pItemContainerStruct->szPiercing, is.szPiercing, sizeof(is.szPiercing) );

  000fd	68 00 01 00 00	 push	 256			; 00000100H
  00102	8d 84 24 84 02
	00 00		 lea	 eax, DWORD PTR _is$[esp+1608]
  00109	50		 push	 eax
  0010a	8d 87 00 24 00
	00		 lea	 eax, DWORD PTR [edi+9216]
  00110	50		 push	 eax
  00111	e8 00 00 00 00	 call	 _strncat

; 845  : 		sprintf( Onem_apIndex, "%d/", pMover->m_Inventory.m_apIndex[ch] );

  00116	8b 8d 18 41 00
	00		 mov	 ecx, DWORD PTR [ebp+16664]
  0011c	8b 54 24 38	 mov	 edx, DWORD PTR _ch$208064[esp+1040]
  00120	8b 04 91	 mov	 eax, DWORD PTR [ecx+edx*4]
  00123	50		 push	 eax
  00124	8d 8c 24 f4 03
	00 00		 lea	 ecx, DWORD PTR _Onem_apIndex$[esp+1044]
  0012b	68 00 00 00 00	 push	 OFFSET FLAT:??_C@_03BEJFCEHO@?$CFd?1?$AA@
  00130	51		 push	 ecx
  00131	e8 00 00 00 00	 call	 _sprintf

; 846  : 		strncat( pItemContainerStruct->szIndex, Onem_apIndex, sizeof(Onem_apIndex) );

  00136	6a 0a		 push	 10			; 0000000aH
  00138	8d 94 24 00 04
	00 00		 lea	 edx, DWORD PTR _Onem_apIndex$[esp+1056]
  0013f	52		 push	 edx
  00140	8d 87 00 18 00
	00		 lea	 eax, DWORD PTR [edi+6144]
  00146	50		 push	 eax
  00147	e8 00 00 00 00	 call	 _strncat

; 847  : 		sprintf( sPerObjIndex, "%d/", pMover->m_Inventory.m_apItem[ch].m_dwObjIndex );

  0014c	8b 85 20 41 00
	00		 mov	 eax, DWORD PTR [ebp+16672]
  00152	8b 4c 03 2c	 mov	 ecx, DWORD PTR [ebx+eax+44]
  00156	51		 push	 ecx
  00157	8d 94 24 18 04
	00 00		 lea	 edx, DWORD PTR _sPerObjIndex$[esp+1068]
  0015e	68 00 00 00 00	 push	 OFFSET FLAT:??_C@_03BEJFCEHO@?$CFd?1?$AA@
  00163	52		 push	 edx
  00164	e8 00 00 00 00	 call	 _sprintf

; 848  : 		strcat( pItemContainerStruct->szObjIndex, sPerObjIndex );

  00169	8d 84 24 20 04
	00 00		 lea	 eax, DWORD PTR _sPerObjIndex$[esp+1076]
  00170	83 c4 48	 add	 esp, 72			; 00000048H
  00173	8b f0		 mov	 esi, eax
$L210390:
  00175	8a 08		 mov	 cl, BYTE PTR [eax]
  00177	40		 inc	 eax
  00178	84 c9		 test	 cl, cl
  0017a	75 f9		 jne	 SHORT $L210390
  0017c	2b c6		 sub	 eax, esi
  0017e	81 c7 ff 19 00
	00		 add	 edi, 6655		; 000019ffH
$L210391:
  00184	8a 4f 01	 mov	 cl, BYTE PTR [edi+1]
  00187	47		 inc	 edi
  00188	84 c9		 test	 cl, cl
  0018a	75 f8		 jne	 SHORT $L210391
  0018c	8b c8		 mov	 ecx, eax
  0018e	c1 e9 02	 shr	 ecx, 2
  00191	f3 a5		 rep movsd
  00193	8b c8		 mov	 ecx, eax

; 849  : 		strncat( pItemContainerStruct->szPet, is.szPet, sizeof(is.szPet) );

  00195	6a 64		 push	 100			; 00000064H
  00197	8d 84 24 6c 03
	00 00		 lea	 eax, DWORD PTR _is$[esp+1840]
  0019e	50		 push	 eax
  0019f	8b 44 24 18	 mov	 eax, DWORD PTR $T210387[esp+1012]
  001a3	05 40 43 00 00	 add	 eax, 17216		; 00004340H
  001a8	83 e1 03	 and	 ecx, 3
  001ab	50		 push	 eax
  001ac	f3 a4		 rep movsb
  001ae	e8 00 00 00 00	 call	 _strncat

; 850  : 
; 851  : 		if( pMover->m_Inventory.m_apItem[ch].m_bCharged || 0 < pMover->m_Inventory.m_apItem[ch].m_dwKeepTime || 0 != pMover->m_Inventory.m_apItem[ch].GetRandomOptItemId() )

  001b3	8b 8d 20 41 00
	00		 mov	 ecx, DWORD PTR [ebp+16672]
  001b9	8d 04 0b	 lea	 eax, DWORD PTR [ebx+ecx]
  001bc	8b 88 88 00 00
	00		 mov	 ecx, DWORD PTR [eax+136]
  001c2	83 c4 0c	 add	 esp, 12			; 0000000cH
  001c5	85 c9		 test	 ecx, ecx
  001c7	75 1e		 jne	 SHORT $L210392
  001c9	8b 88 8c 00 00
	00		 mov	 ecx, DWORD PTR [eax+140]
  001cf	85 c9		 test	 ecx, ecx
  001d1	77 14		 ja	 SHORT $L210392
  001d3	8b 88 90 00 00
	00		 mov	 ecx, DWORD PTR [eax+144]
  001d9	85 c9		 test	 ecx, ecx
  001db	75 0a		 jne	 SHORT $L210392
  001dd	8b 88 94 00 00
	00		 mov	 ecx, DWORD PTR [eax+148]
  001e3	85 c9		 test	 ecx, ecx
  001e5	74 0b		 je	 SHORT $L210402
$L210392:

; 852  : 			bExtInven = TRUE;

  001e7	be 01 00 00 00	 mov	 esi, 1
  001ec	89 74 24 20	 mov	 DWORD PTR _bExtInven$[esp+1004], esi
  001f0	eb 05		 jmp	 SHORT $L208068
$L210402:
  001f2	be 01 00 00 00	 mov	 esi, 1
$L208068:

; 853  : 		if( pMover->m_Inventory.m_apItem[ch].IsPiercedItem() )

  001f7	8d 48 34	 lea	 ecx, DWORD PTR [eax+52]
  001fa	e8 00 00 00 00	 call	 ?IsPiercedItem@CPiercing@@QAEHXZ ; CPiercing::IsPiercedItem
  001ff	85 c0		 test	 eax, eax
  00201	74 04		 je	 SHORT $L208070

; 854  : 			bPirecingInven = TRUE;

  00203	89 74 24 1c	 mov	 DWORD PTR _bPirecingInven$[esp+1004], esi
$L208070:

; 855  : 		if( pMover->m_Inventory.m_apItem[ch].m_pPet )

  00207	8b 95 20 41 00
	00		 mov	 edx, DWORD PTR [ebp+16672]
  0020d	8b 84 13 98 00
	00 00		 mov	 eax, DWORD PTR [ebx+edx+152]
  00214	85 c0		 test	 eax, eax
  00216	74 04		 je	 SHORT $L208066

; 856  : 			bPet	= TRUE;

  00218	89 74 24 18	 mov	 DWORD PTR _bPet$[esp+1004], esi
$L208066:

; 835  : 	BOOL bPirecingInven = FALSE;
; 836  : 
; 837  : 	BOOL	bPet	= FALSE;
; 838  : 
; 839  : 	for( DWORD ch = 0; ch < pMover->m_Inventory.m_dwItemMax; ch++ )	// 0-504

  0021c	8b 44 24 14	 mov	 eax, DWORD PTR _ch$208064[esp+1004]
  00220	8b 8d 24 41 00
	00		 mov	 ecx, DWORD PTR [ebp+16676]
  00226	8b 7c 24 10	 mov	 edi, DWORD PTR $T210387[esp+1004]
  0022a	40		 inc	 eax
  0022b	81 c3 a0 00 00
	00		 add	 ebx, 160		; 000000a0H
  00231	3b c1		 cmp	 eax, ecx
  00233	89 44 24 14	 mov	 DWORD PTR _ch$208064[esp+1004], eax
  00237	0f 82 83 fe ff
	ff		 jb	 $L208065
$L208067:

; 857  : 	}
; 858  : 
; 859  : 	strncat( pItemContainerStruct->szItem, NullStr, sizeof(NullStr) );

  0023d	6a 02		 push	 2
  0023f	68 00 00 00 00	 push	 OFFSET FLAT:_NullStr
  00244	57		 push	 edi
  00245	e8 00 00 00 00	 call	 _strncat

; 860  : 	strncat( pItemContainerStruct->szIndex, NullStr, sizeof(NullStr) );

  0024a	6a 02		 push	 2
  0024c	8d 87 00 18 00
	00		 lea	 eax, DWORD PTR [edi+6144]
  00252	68 00 00 00 00	 push	 OFFSET FLAT:_NullStr
  00257	50		 push	 eax
  00258	e8 00 00 00 00	 call	 _strncat

; 861  : 	strcat( pItemContainerStruct->szObjIndex, NullStr );

  0025d	b8 00 00 00 00	 mov	 eax, OFFSET FLAT:_NullStr
  00262	83 c4 18	 add	 esp, 24			; 00000018H
  00265	8b c8		 mov	 ecx, eax
$L210393:
  00267	8a 10		 mov	 dl, BYTE PTR [eax]
  00269	40		 inc	 eax
  0026a	84 d2		 test	 dl, dl
  0026c	75 f9		 jne	 SHORT $L210393
  0026e	2b c1		 sub	 eax, ecx
  00270	8b f1		 mov	 esi, ecx
  00272	81 c7 ff 19 00
	00		 add	 edi, 6655		; 000019ffH
$L210394:
  00278	8a 4f 01	 mov	 cl, BYTE PTR [edi+1]
  0027b	47		 inc	 edi
  0027c	84 c9		 test	 cl, cl
  0027e	75 f8		 jne	 SHORT $L210394

; 862  : 	if( bExtInven == FALSE )
; 863  : 		*pItemContainerStruct->szExt	= '\0';

  00280	8b 5c 24 10	 mov	 ebx, DWORD PTR $T210387[esp+1004]
  00284	8b c8		 mov	 ecx, eax
  00286	c1 e9 02	 shr	 ecx, 2
  00289	f3 a5		 rep movsd
  0028b	8b c8		 mov	 ecx, eax
  0028d	8b 44 24 20	 mov	 eax, DWORD PTR _bExtInven$[esp+1004]
  00291	83 e1 03	 and	 ecx, 3
  00294	85 c0		 test	 eax, eax
  00296	f3 a4		 rep movsb
  00298	75 07		 jne	 SHORT $L208072
  0029a	c6 83 00 1c 00
	00 00		 mov	 BYTE PTR [ebx+7168], 0
$L208072:

; 864  : 	if( bPirecingInven == FALSE )

  002a1	8b 44 24 1c	 mov	 eax, DWORD PTR _bPirecingInven$[esp+1004]
  002a5	85 c0		 test	 eax, eax
  002a7	75 07		 jne	 SHORT $L208073

; 865  : 		*pItemContainerStruct->szPiercing	= '\0';

  002a9	c6 83 00 24 00
	00 00		 mov	 BYTE PTR [ebx+9216], 0
$L208073:

; 866  : 	if( bPet == FALSE )

  002b0	8b 44 24 18	 mov	 eax, DWORD PTR _bPet$[esp+1004]
  002b4	85 c0		 test	 eax, eax
  002b6	75 07		 jne	 SHORT $L208074

; 867  : 		*pItemContainerStruct->szPet	= '\0';

  002b8	c6 83 40 43 00
	00 00		 mov	 BYTE PTR [ebx+17216], 0
$L208074:

; 868  : 	strcat( pItemContainerStruct->szExt, NullStr );

  002bf	b8 00 00 00 00	 mov	 eax, OFFSET FLAT:_NullStr
  002c4	8b d0		 mov	 edx, eax
$L210395:
  002c6	8a 08		 mov	 cl, BYTE PTR [eax]
  002c8	40		 inc	 eax
  002c9	84 c9		 test	 cl, cl
  002cb	75 f9		 jne	 SHORT $L210395
  002cd	8d bb 00 1c 00
	00		 lea	 edi, DWORD PTR [ebx+7168]
  002d3	2b c2		 sub	 eax, edx
  002d5	4f		 dec	 edi
$L210396:
  002d6	8a 4f 01	 mov	 cl, BYTE PTR [edi+1]
  002d9	47		 inc	 edi
  002da	84 c9		 test	 cl, cl
  002dc	75 f8		 jne	 SHORT $L210396
  002de	8b c8		 mov	 ecx, eax
  002e0	c1 e9 02	 shr	 ecx, 2
  002e3	8b f2		 mov	 esi, edx
  002e5	f3 a5		 rep movsd
  002e7	8b c8		 mov	 ecx, eax
  002e9	83 e1 03	 and	 ecx, 3

; 869  : 	strcat( pItemContainerStruct->szPiercing, NullStr );

  002ec	b8 00 00 00 00	 mov	 eax, OFFSET FLAT:_NullStr
  002f1	f3 a4		 rep movsb
  002f3	8b c8		 mov	 ecx, eax
$L210397:
  002f5	8a 10		 mov	 dl, BYTE PTR [eax]
  002f7	40		 inc	 eax
  002f8	84 d2		 test	 dl, dl
  002fa	75 f9		 jne	 SHORT $L210397
  002fc	8d bb 00 24 00
	00		 lea	 edi, DWORD PTR [ebx+9216]
  00302	2b c1		 sub	 eax, ecx
  00304	8b f1		 mov	 esi, ecx
  00306	4f		 dec	 edi
$L210398:
  00307	8a 4f 01	 mov	 cl, BYTE PTR [edi+1]
  0030a	47		 inc	 edi
  0030b	84 c9		 test	 cl, cl
  0030d	75 f8		 jne	 SHORT $L210398
  0030f	8b c8		 mov	 ecx, eax
  00311	c1 e9 02	 shr	 ecx, 2
  00314	f3 a5		 rep movsd
  00316	8b c8		 mov	 ecx, eax
  00318	83 e1 03	 and	 ecx, 3

; 870  : 	strcat( pItemContainerStruct->szPet, NullStr );

  0031b	b8 00 00 00 00	 mov	 eax, OFFSET FLAT:_NullStr
  00320	f3 a4		 rep movsb
  00322	8b c8		 mov	 ecx, eax
$L210399:
  00324	8a 10		 mov	 dl, BYTE PTR [eax]
  00326	40		 inc	 eax
  00327	84 d2		 test	 dl, dl
  00329	75 f9		 jne	 SHORT $L210399
  0032b	8d bb 40 43 00
	00		 lea	 edi, DWORD PTR [ebx+17216]
  00331	2b c1		 sub	 eax, ecx
  00333	8b f1		 mov	 esi, ecx
  00335	4f		 dec	 edi
$L210400:
  00336	8a 4f 01	 mov	 cl, BYTE PTR [edi+1]
  00339	47		 inc	 edi
  0033a	84 c9		 test	 cl, cl
  0033c	75 f8		 jne	 SHORT $L210400
  0033e	8b c8		 mov	 ecx, eax
  00340	c1 e9 02	 shr	 ecx, 2
  00343	f3 a5		 rep movsd
  00345	8b c8		 mov	 ecx, eax
  00347	83 e1 03	 and	 ecx, 3
  0034a	f3 a4		 rep movsb

; 871  : }

  0034c	8b 8c 24 e8 03
	00 00		 mov	 ecx, DWORD PTR __$ArrayPad$[esp+1004]
  00353	5f		 pop	 edi
  00354	5e		 pop	 esi
  00355	5d		 pop	 ebp
  00356	5b		 pop	 ebx
  00357	33 cc		 xor	 ecx, esp
  00359	e8 00 00 00 00	 call	 @__security_check_cookie@4
  0035e	81 c4 dc 03 00
	00		 add	 esp, 988		; 000003dcH
  00364	c2 08 00	 ret	 8
?SaveInventory@CDbManager@@QAEXPAVCMover@@PAU_ItemContainerStruct@@@Z ENDP ; CDbManager::SaveInventory
_TEXT	ENDS
PUBLIC	?SaveBank@CDbManager@@QAEXPAVCMover@@PAV?$CItemContainer@VCItemElem@@@@PAU_ItemContainerStruct@@@Z ; CDbManager::SaveBank
; Function compile flags: /Ogty
;	COMDAT ?SaveBank@CDbManager@@QAEXPAVCMover@@PAV?$CItemContainer@VCItemElem@@@@PAU_ItemContainerStruct@@@Z
_TEXT	SEGMENT
$T210421 = -988						; size = 4
_ch$208097 = -984					; size = 4
_bPet$ = -980						; size = 4
_bPirecingBank$ = -976					; size = 4
_bExtBank$ = -972					; size = 4
$T210419 = -968						; size = 4
_is$ = -964						; size = 932
_Onem_apIndex$ = -32					; size = 10
_sPerObjIndex$ = -20					; size = 16
__$ArrayPad$ = -4					; size = 4
__$ReturnAddr$ = 4					; size = 4
_pMover$ = 8						; size = 4
_pPlayerBank$ = 12					; size = 4
_pItemContainerStruct$ = 16				; size = 4
?SaveBank@CDbManager@@QAEXPAVCMover@@PAV?$CItemContainer@VCItemElem@@@@PAU_ItemContainerStruct@@@Z PROC NEAR ; CDbManager::SaveBank, COMDAT
; _this$ = ecx

; 885  : {

  00000	81 ec dc 03 00
	00		 sub	 esp, 988		; 000003dcH
  00006	a1 00 00 00 00	 mov	 eax, DWORD PTR ___security_cookie
  0000b	33 c4		 xor	 eax, esp
  0000d	89 4c 24 14	 mov	 DWORD PTR $T210419[esp+988], ecx
  00011	89 84 24 d8 03
	00 00		 mov	 DWORD PTR __$ArrayPad$[esp+988], eax

; 886  : 	ItemStruct	is;
; 887  : 	char Onem_apIndex[10] = {0,};
; 888  : 	char sPerObjIndex[16]	= { 0, };

  00018	33 c9		 xor	 ecx, ecx
  0001a	33 c0		 xor	 eax, eax
  0001c	53		 push	 ebx
  0001d	89 8c 24 cd 03
	00 00		 mov	 DWORD PTR _sPerObjIndex$[esp+993], ecx
  00024	55		 push	 ebp
  00025	8b ac 24 ec 03
	00 00		 mov	 ebp, DWORD PTR _pPlayerBank$[esp+992]
  0002c	89 84 24 c5 03
	00 00		 mov	 DWORD PTR _Onem_apIndex$[esp+997], eax
  00033	89 84 24 c9 03
	00 00		 mov	 DWORD PTR _Onem_apIndex$[esp+1001], eax
  0003a	89 8c 24 d5 03
	00 00		 mov	 DWORD PTR _sPerObjIndex$[esp+1001], ecx

; 889  : 	BOOL bExtBank = FALSE;

  00041	33 db		 xor	 ebx, ebx
  00043	56		 push	 esi
  00044	88 84 24 d1 03
	00 00		 mov	 BYTE PTR _Onem_apIndex$[esp+1009], al
  0004b	88 84 24 d4 03
	00 00		 mov	 BYTE PTR _sPerObjIndex$[esp+1000], al

; 890  : 	BOOL bPirecingBank = FALSE;
; 891  : 
; 892  : 	BOOL	bPet	= FALSE;
; 893  : 
; 894  : 	for( DWORD ch = 0; ch < pPlayerBank->m_dwItemMax; ch++ )	// 0-504

  00052	39 5d 10	 cmp	 DWORD PTR [ebp+16], ebx
  00055	89 8c 24 dd 03
	00 00		 mov	 DWORD PTR _sPerObjIndex$[esp+1009], ecx
  0005c	57		 push	 edi
  0005d	8b bc 24 f8 03
	00 00		 mov	 edi, DWORD PTR _pItemContainerStruct$[esp+1000]
  00064	66 89 8c 24 e5
	03 00 00	 mov	 WORD PTR _sPerObjIndex$[esp+1017], cx
  0006c	89 7c 24 10	 mov	 DWORD PTR $T210421[esp+1004], edi
  00070	c6 44 24 28 00	 mov	 BYTE PTR _is$[esp+1004], 0
  00075	c6 84 24 28 02
	00 00 00	 mov	 BYTE PTR _is$[esp+1516], 0
  0007d	c6 84 24 68 02
	00 00 00	 mov	 BYTE PTR _is$[esp+1580], 0
  00085	c6 84 24 68 03
	00 00 00	 mov	 BYTE PTR _is$[esp+1836], 0
  0008d	c6 84 24 cc 03
	00 00 00	 mov	 BYTE PTR _Onem_apIndex$[esp+1004], 0
  00095	88 8c 24 e7 03
	00 00		 mov	 BYTE PTR _sPerObjIndex$[esp+1019], cl
  0009c	89 5c 24 20	 mov	 DWORD PTR _bExtBank$[esp+1004], ebx
  000a0	89 5c 24 1c	 mov	 DWORD PTR _bPirecingBank$[esp+1004], ebx
  000a4	89 5c 24 18	 mov	 DWORD PTR _bPet$[esp+1004], ebx
  000a8	89 5c 24 14	 mov	 DWORD PTR _ch$208097[esp+1004], ebx
  000ac	0f 86 6e 01 00
	00		 jbe	 $L208100
$L208098:

; 895  : 	{	
; 896  : 		SaveOneItem( &pPlayerBank->m_apItem[ch], &is );

  000b2	8b 45 0c	 mov	 eax, DWORD PTR [ebp+12]
  000b5	8b 4c 24 24	 mov	 ecx, DWORD PTR $T210419[esp+1004]
  000b9	8d 54 24 28	 lea	 edx, DWORD PTR _is$[esp+1004]
  000bd	52		 push	 edx
  000be	03 c3		 add	 eax, ebx
  000c0	50		 push	 eax
  000c1	e8 00 00 00 00	 call	 ?SaveOneItem@CDbManager@@QAEXPAVCItemElem@@PAU_ItemStruct@@@Z ; CDbManager::SaveOneItem

; 897  : 		strncat( pItemContainerStruct->szItem, is.szItem, sizeof(is.szItem) );

  000c6	68 00 02 00 00	 push	 512			; 00000200H
  000cb	8d 4c 24 2c	 lea	 ecx, DWORD PTR _is$[esp+1008]
  000cf	51		 push	 ecx
  000d0	57		 push	 edi
  000d1	e8 00 00 00 00	 call	 _strncat

; 898  : 		strncat( pItemContainerStruct->szExt, is.szExt, sizeof(is.szExt) );

  000d6	6a 40		 push	 64			; 00000040H
  000d8	8d 94 24 38 02
	00 00		 lea	 edx, DWORD PTR _is$[esp+1532]
  000df	52		 push	 edx
  000e0	8d 87 00 1c 00
	00		 lea	 eax, DWORD PTR [edi+7168]
  000e6	50		 push	 eax
  000e7	e8 00 00 00 00	 call	 _strncat

; 899  : 		strncat( pItemContainerStruct->szPiercing, is.szPiercing, sizeof(is.szPiercing) );

  000ec	68 00 01 00 00	 push	 256			; 00000100H
  000f1	8d 84 24 84 02
	00 00		 lea	 eax, DWORD PTR _is$[esp+1608]
  000f8	50		 push	 eax
  000f9	8d 87 00 24 00
	00		 lea	 eax, DWORD PTR [edi+9216]
  000ff	50		 push	 eax
  00100	e8 00 00 00 00	 call	 _strncat

; 900  : 		sprintf( Onem_apIndex, "%d/", pPlayerBank->m_apIndex[ch]);

  00105	8b 4d 04	 mov	 ecx, DWORD PTR [ebp+4]
  00108	8b 54 24 38	 mov	 edx, DWORD PTR _ch$208097[esp+1040]
  0010c	8b 04 91	 mov	 eax, DWORD PTR [ecx+edx*4]
  0010f	50		 push	 eax
  00110	8d 8c 24 f4 03
	00 00		 lea	 ecx, DWORD PTR _Onem_apIndex$[esp+1044]
  00117	68 00 00 00 00	 push	 OFFSET FLAT:??_C@_03BEJFCEHO@?$CFd?1?$AA@
  0011c	51		 push	 ecx
  0011d	e8 00 00 00 00	 call	 _sprintf

; 901  : 		strncat( pItemContainerStruct->szIndex, Onem_apIndex, sizeof(Onem_apIndex) );

  00122	6a 0a		 push	 10			; 0000000aH
  00124	8d 94 24 00 04
	00 00		 lea	 edx, DWORD PTR _Onem_apIndex$[esp+1056]
  0012b	52		 push	 edx
  0012c	8d 87 00 18 00
	00		 lea	 eax, DWORD PTR [edi+6144]
  00132	50		 push	 eax
  00133	e8 00 00 00 00	 call	 _strncat

; 902  : 		sprintf( sPerObjIndex, "%d/", pPlayerBank->m_apItem[ch].m_dwObjIndex );

  00138	8b 45 0c	 mov	 eax, DWORD PTR [ebp+12]
  0013b	8b 4c 03 2c	 mov	 ecx, DWORD PTR [ebx+eax+44]
  0013f	51		 push	 ecx
  00140	8d 94 24 18 04
	00 00		 lea	 edx, DWORD PTR _sPerObjIndex$[esp+1068]
  00147	68 00 00 00 00	 push	 OFFSET FLAT:??_C@_03BEJFCEHO@?$CFd?1?$AA@
  0014c	52		 push	 edx
  0014d	e8 00 00 00 00	 call	 _sprintf

; 903  : 		strcat( pItemContainerStruct->szObjIndex, sPerObjIndex );

  00152	8d 84 24 20 04
	00 00		 lea	 eax, DWORD PTR _sPerObjIndex$[esp+1076]
  00159	83 c4 48	 add	 esp, 72			; 00000048H
  0015c	8b f0		 mov	 esi, eax
  0015e	8b ff		 npad	 2
$L210424:
  00160	8a 08		 mov	 cl, BYTE PTR [eax]
  00162	40		 inc	 eax
  00163	84 c9		 test	 cl, cl
  00165	75 f9		 jne	 SHORT $L210424
  00167	2b c6		 sub	 eax, esi
  00169	81 c7 ff 19 00
	00		 add	 edi, 6655		; 000019ffH
  0016f	90		 npad	 1
$L210425:
  00170	8a 4f 01	 mov	 cl, BYTE PTR [edi+1]
  00173	47		 inc	 edi
  00174	84 c9		 test	 cl, cl
  00176	75 f8		 jne	 SHORT $L210425
  00178	8b c8		 mov	 ecx, eax
  0017a	c1 e9 02	 shr	 ecx, 2
  0017d	f3 a5		 rep movsd
  0017f	8b c8		 mov	 ecx, eax

; 904  : 		strncat( pItemContainerStruct->szPet, is.szPet, sizeof(is.szPet) );

  00181	6a 64		 push	 100			; 00000064H
  00183	8d 84 24 6c 03
	00 00		 lea	 eax, DWORD PTR _is$[esp+1840]
  0018a	50		 push	 eax
  0018b	8b 44 24 18	 mov	 eax, DWORD PTR $T210421[esp+1012]
  0018f	05 40 43 00 00	 add	 eax, 17216		; 00004340H
  00194	83 e1 03	 and	 ecx, 3
  00197	50		 push	 eax
  00198	f3 a4		 rep movsb
  0019a	e8 00 00 00 00	 call	 _strncat

; 905  : 		if( pPlayerBank->m_apItem[ch].m_bCharged || 0 < pPlayerBank->m_apItem[ch].m_dwKeepTime || 0 != pPlayerBank->m_apItem[ch].GetRandomOptItemId() )

  0019f	8b 4d 0c	 mov	 ecx, DWORD PTR [ebp+12]
  001a2	8d 04 0b	 lea	 eax, DWORD PTR [ebx+ecx]
  001a5	8b 88 88 00 00
	00		 mov	 ecx, DWORD PTR [eax+136]
  001ab	83 c4 0c	 add	 esp, 12			; 0000000cH
  001ae	85 c9		 test	 ecx, ecx
  001b0	75 1e		 jne	 SHORT $L210426
  001b2	8b 88 8c 00 00
	00		 mov	 ecx, DWORD PTR [eax+140]
  001b8	85 c9		 test	 ecx, ecx
  001ba	77 14		 ja	 SHORT $L210426
  001bc	8b 88 90 00 00
	00		 mov	 ecx, DWORD PTR [eax+144]
  001c2	85 c9		 test	 ecx, ecx
  001c4	75 0a		 jne	 SHORT $L210426
  001c6	8b 88 94 00 00
	00		 mov	 ecx, DWORD PTR [eax+148]
  001cc	85 c9		 test	 ecx, ecx
  001ce	74 0b		 je	 SHORT $L210436
$L210426:

; 906  : 			bExtBank = TRUE;

  001d0	be 01 00 00 00	 mov	 esi, 1
  001d5	89 74 24 20	 mov	 DWORD PTR _bExtBank$[esp+1004], esi
  001d9	eb 05		 jmp	 SHORT $L208101
$L210436:
  001db	be 01 00 00 00	 mov	 esi, 1
$L208101:

; 907  : 		if( pPlayerBank->m_apItem[ch].IsPiercedItem() )

  001e0	8d 48 34	 lea	 ecx, DWORD PTR [eax+52]
  001e3	e8 00 00 00 00	 call	 ?IsPiercedItem@CPiercing@@QAEHXZ ; CPiercing::IsPiercedItem
  001e8	85 c0		 test	 eax, eax
  001ea	74 04		 je	 SHORT $L208103

; 908  : 			bPirecingBank = TRUE;

  001ec	89 74 24 1c	 mov	 DWORD PTR _bPirecingBank$[esp+1004], esi
$L208103:

; 909  : 		if( pPlayerBank->m_apItem[ch].m_pPet )

  001f0	8b 55 0c	 mov	 edx, DWORD PTR [ebp+12]
  001f3	8b 84 13 98 00
	00 00		 mov	 eax, DWORD PTR [ebx+edx+152]
  001fa	85 c0		 test	 eax, eax
  001fc	74 04		 je	 SHORT $L208099

; 910  : 			bPet	= TRUE;

  001fe	89 74 24 18	 mov	 DWORD PTR _bPet$[esp+1004], esi
$L208099:

; 890  : 	BOOL bPirecingBank = FALSE;
; 891  : 
; 892  : 	BOOL	bPet	= FALSE;
; 893  : 
; 894  : 	for( DWORD ch = 0; ch < pPlayerBank->m_dwItemMax; ch++ )	// 0-504

  00202	8b 44 24 14	 mov	 eax, DWORD PTR _ch$208097[esp+1004]
  00206	8b 4d 10	 mov	 ecx, DWORD PTR [ebp+16]
  00209	8b 7c 24 10	 mov	 edi, DWORD PTR $T210421[esp+1004]
  0020d	40		 inc	 eax
  0020e	81 c3 a0 00 00
	00		 add	 ebx, 160		; 000000a0H
  00214	3b c1		 cmp	 eax, ecx
  00216	89 44 24 14	 mov	 DWORD PTR _ch$208097[esp+1004], eax
  0021a	0f 82 92 fe ff
	ff		 jb	 $L208098
$L208100:

; 911  : 	}
; 912  : 	strncat( pItemContainerStruct->szItem, NullStr, sizeof(NullStr) );

  00220	6a 02		 push	 2
  00222	68 00 00 00 00	 push	 OFFSET FLAT:_NullStr
  00227	57		 push	 edi
  00228	e8 00 00 00 00	 call	 _strncat

; 913  : 	strncat( pItemContainerStruct->szIndex, NullStr, sizeof(NullStr) );

  0022d	6a 02		 push	 2
  0022f	8d 87 00 18 00
	00		 lea	 eax, DWORD PTR [edi+6144]
  00235	68 00 00 00 00	 push	 OFFSET FLAT:_NullStr
  0023a	50		 push	 eax
  0023b	e8 00 00 00 00	 call	 _strncat

; 914  : 	strcat( pItemContainerStruct->szObjIndex, NullStr );

  00240	b8 00 00 00 00	 mov	 eax, OFFSET FLAT:_NullStr
  00245	83 c4 18	 add	 esp, 24			; 00000018H
  00248	8b c8		 mov	 ecx, eax
  0024a	8d 9b 00 00 00
	00		 npad	 6
$L210427:
  00250	8a 10		 mov	 dl, BYTE PTR [eax]
  00252	40		 inc	 eax
  00253	84 d2		 test	 dl, dl
  00255	75 f9		 jne	 SHORT $L210427
  00257	2b c1		 sub	 eax, ecx
  00259	8b f1		 mov	 esi, ecx
  0025b	81 c7 ff 19 00
	00		 add	 edi, 6655		; 000019ffH
$L210428:
  00261	8a 4f 01	 mov	 cl, BYTE PTR [edi+1]
  00264	47		 inc	 edi
  00265	84 c9		 test	 cl, cl
  00267	75 f8		 jne	 SHORT $L210428

; 915  : 	if( bExtBank == FALSE )
; 916  : 		*pItemContainerStruct->szExt	= '\0';

  00269	8b 5c 24 10	 mov	 ebx, DWORD PTR $T210421[esp+1004]
  0026d	8b c8		 mov	 ecx, eax
  0026f	c1 e9 02	 shr	 ecx, 2
  00272	f3 a5		 rep movsd
  00274	8b c8		 mov	 ecx, eax
  00276	8b 44 24 20	 mov	 eax, DWORD PTR _bExtBank$[esp+1004]
  0027a	83 e1 03	 and	 ecx, 3
  0027d	85 c0		 test	 eax, eax
  0027f	f3 a4		 rep movsb
  00281	75 07		 jne	 SHORT $L208105
  00283	c6 83 00 1c 00
	00 00		 mov	 BYTE PTR [ebx+7168], 0
$L208105:

; 917  : 	if( bPirecingBank == FALSE )

  0028a	8b 44 24 1c	 mov	 eax, DWORD PTR _bPirecingBank$[esp+1004]
  0028e	85 c0		 test	 eax, eax
  00290	75 07		 jne	 SHORT $L208106

; 918  : 		*pItemContainerStruct->szPiercing	= '\0';

  00292	c6 83 00 24 00
	00 00		 mov	 BYTE PTR [ebx+9216], 0
$L208106:

; 919  : 	if( bPet == FALSE )

  00299	8b 44 24 18	 mov	 eax, DWORD PTR _bPet$[esp+1004]
  0029d	85 c0		 test	 eax, eax
  0029f	75 07		 jne	 SHORT $L208107

; 920  : 		*pItemContainerStruct->szPet	= '\0';

  002a1	c6 83 40 43 00
	00 00		 mov	 BYTE PTR [ebx+17216], 0
$L208107:

; 921  : 	strcat( pItemContainerStruct->szExt, NullStr );

  002a8	b8 00 00 00 00	 mov	 eax, OFFSET FLAT:_NullStr
  002ad	8b d0		 mov	 edx, eax
  002af	90		 npad	 1
$L210429:
  002b0	8a 08		 mov	 cl, BYTE PTR [eax]
  002b2	40		 inc	 eax
  002b3	84 c9		 test	 cl, cl
  002b5	75 f9		 jne	 SHORT $L210429
  002b7	8d bb 00 1c 00
	00		 lea	 edi, DWORD PTR [ebx+7168]
  002bd	2b c2		 sub	 eax, edx
  002bf	4f		 dec	 edi
$L210430:
  002c0	8a 4f 01	 mov	 cl, BYTE PTR [edi+1]
  002c3	47		 inc	 edi
  002c4	84 c9		 test	 cl, cl
  002c6	75 f8		 jne	 SHORT $L210430
  002c8	8b c8		 mov	 ecx, eax
  002ca	c1 e9 02	 shr	 ecx, 2
  002cd	8b f2		 mov	 esi, edx
  002cf	f3 a5		 rep movsd
  002d1	8b c8		 mov	 ecx, eax
  002d3	83 e1 03	 and	 ecx, 3

; 922  : 	strcat( pItemContainerStruct->szPiercing, NullStr );

  002d6	b8 00 00 00 00	 mov	 eax, OFFSET FLAT:_NullStr
  002db	f3 a4		 rep movsb
  002dd	8b c8		 mov	 ecx, eax
  002df	90		 npad	 1
$L210431:
  002e0	8a 10		 mov	 dl, BYTE PTR [eax]
  002e2	40		 inc	 eax
  002e3	84 d2		 test	 dl, dl
  002e5	75 f9		 jne	 SHORT $L210431
  002e7	8d bb 00 24 00
	00		 lea	 edi, DWORD PTR [ebx+9216]
  002ed	2b c1		 sub	 eax, ecx
  002ef	8b f1		 mov	 esi, ecx
  002f1	4f		 dec	 edi
$L210432:
  002f2	8a 4f 01	 mov	 cl, BYTE PTR [edi+1]
  002f5	47		 inc	 edi
  002f6	84 c9		 test	 cl, cl
  002f8	75 f8		 jne	 SHORT $L210432
  002fa	8b c8		 mov	 ecx, eax
  002fc	c1 e9 02	 shr	 ecx, 2
  002ff	f3 a5		 rep movsd
  00301	8b c8		 mov	 ecx, eax
  00303	83 e1 03	 and	 ecx, 3

; 923  : 	strcat( pItemContainerStruct->szPet, NullStr );

  00306	b8 00 00 00 00	 mov	 eax, OFFSET FLAT:_NullStr
  0030b	f3 a4		 rep movsb
  0030d	8b c8		 mov	 ecx, eax
  0030f	90		 npad	 1
$L210433:
  00310	8a 10		 mov	 dl, BYTE PTR [eax]
  00312	40		 inc	 eax
  00313	84 d2		 test	 dl, dl
  00315	75 f9		 jne	 SHORT $L210433
  00317	8d bb 40 43 00
	00		 lea	 edi, DWORD PTR [ebx+17216]
  0031d	2b c1		 sub	 eax, ecx
  0031f	8b f1		 mov	 esi, ecx
  00321	4f		 dec	 edi
$L210434:
  00322	8a 4f 01	 mov	 cl, BYTE PTR [edi+1]
  00325	47		 inc	 edi
  00326	84 c9		 test	 cl, cl
  00328	75 f8		 jne	 SHORT $L210434
  0032a	8b c8		 mov	 ecx, eax
  0032c	c1 e9 02	 shr	 ecx, 2
  0032f	f3 a5		 rep movsd
  00331	8b c8		 mov	 ecx, eax
  00333	83 e1 03	 and	 ecx, 3
  00336	f3 a4		 rep movsb

; 924  : }

  00338	8b 8c 24 e8 03
	00 00		 mov	 ecx, DWORD PTR __$ArrayPad$[esp+1004]
  0033f	5f		 pop	 edi
  00340	5e		 pop	 esi
  00341	5d		 pop	 ebp
  00342	5b		 pop	 ebx
  00343	33 cc		 xor	 ecx, esp
  00345	e8 00 00 00 00	 call	 @__security_check_cookie@4
  0034a	81 c4 dc 03 00
	00		 add	 esp, 988		; 000003dcH
  00350	c2 0c 00	 ret	 12			; 0000000cH
?SaveBank@CDbManager@@QAEXPAVCMover@@PAV?$CItemContainer@VCItemElem@@@@PAU_ItemContainerStruct@@@Z ENDP ; CDbManager::SaveBank
_TEXT	ENDS
PUBLIC	?SaveGuildBank@CDbManager@@QAEXPAV?$CItemContainer@VCItemElem@@@@PAU_ItemContainerStruct@@@Z ; CDbManager::SaveGuildBank
; Function compile flags: /Ogty
;	COMDAT ?SaveGuildBank@CDbManager@@QAEXPAV?$CItemContainer@VCItemElem@@@@PAU_ItemContainerStruct@@@Z
_TEXT	SEGMENT
$T210455 = -984						; size = 4
_ch$208119 = -980					; size = 4
_bPirecingBank$ = -976					; size = 4
_bExtBank$ = -972					; size = 4
$T210453 = -968						; size = 4
_is$ = -964						; size = 932
_Onem_apIndex$ = -32					; size = 10
_sPerObjIndex$ = -20					; size = 16
__$ArrayPad$ = -4					; size = 4
__$ReturnAddr$ = 4					; size = 4
_pGuildBank$ = 8					; size = 4
_pItemContainerStruct$ = 12				; size = 4
?SaveGuildBank@CDbManager@@QAEXPAV?$CItemContainer@VCItemElem@@@@PAU_ItemContainerStruct@@@Z PROC NEAR ; CDbManager::SaveGuildBank, COMDAT
; _this$ = ecx

; 927  : {

  00000	81 ec d8 03 00
	00		 sub	 esp, 984		; 000003d8H
  00006	a1 00 00 00 00	 mov	 eax, DWORD PTR ___security_cookie
  0000b	33 c4		 xor	 eax, esp
  0000d	89 4c 24 10	 mov	 DWORD PTR $T210453[esp+984], ecx
  00011	89 84 24 d4 03
	00 00		 mov	 DWORD PTR __$ArrayPad$[esp+984], eax

; 928  : 	ItemStruct is;
; 929  : 	char Onem_apIndex[10] = {0,};
; 930  : 	char sPerObjIndex[16]	= { 0, };

  00018	33 c9		 xor	 ecx, ecx
  0001a	33 c0		 xor	 eax, eax
  0001c	53		 push	 ebx
  0001d	89 8c 24 c9 03
	00 00		 mov	 DWORD PTR _sPerObjIndex$[esp+989], ecx
  00024	55		 push	 ebp
  00025	8b ac 24 e4 03
	00 00		 mov	 ebp, DWORD PTR _pGuildBank$[esp+988]
  0002c	89 84 24 c1 03
	00 00		 mov	 DWORD PTR _Onem_apIndex$[esp+993], eax
  00033	89 84 24 c5 03
	00 00		 mov	 DWORD PTR _Onem_apIndex$[esp+997], eax
  0003a	89 8c 24 d1 03
	00 00		 mov	 DWORD PTR _sPerObjIndex$[esp+997], ecx

; 931  : 	BOOL bExtBank = FALSE;

  00041	33 db		 xor	 ebx, ebx
  00043	56		 push	 esi
  00044	88 84 24 cd 03
	00 00		 mov	 BYTE PTR _Onem_apIndex$[esp+1005], al
  0004b	88 84 24 d0 03
	00 00		 mov	 BYTE PTR _sPerObjIndex$[esp+996], al

; 932  : 	BOOL bPirecingBank = FALSE;
; 933  : 	BOOL bPet	= FALSE;
; 934  : 
; 935  : 	for( DWORD ch = 0; ch < pGuildBank->m_dwItemMax; ch++ )	// 0-504

  00052	39 5d 10	 cmp	 DWORD PTR [ebp+16], ebx
  00055	89 8c 24 d9 03
	00 00		 mov	 DWORD PTR _sPerObjIndex$[esp+1005], ecx
  0005c	57		 push	 edi
  0005d	8b bc 24 f0 03
	00 00		 mov	 edi, DWORD PTR _pItemContainerStruct$[esp+996]
  00064	66 89 8c 24 e1
	03 00 00	 mov	 WORD PTR _sPerObjIndex$[esp+1013], cx
  0006c	89 7c 24 10	 mov	 DWORD PTR $T210455[esp+1000], edi
  00070	c6 44 24 24 00	 mov	 BYTE PTR _is$[esp+1000], 0
  00075	c6 84 24 24 02
	00 00 00	 mov	 BYTE PTR _is$[esp+1512], 0
  0007d	c6 84 24 64 02
	00 00 00	 mov	 BYTE PTR _is$[esp+1576], 0
  00085	c6 84 24 64 03
	00 00 00	 mov	 BYTE PTR _is$[esp+1832], 0
  0008d	c6 84 24 c8 03
	00 00 00	 mov	 BYTE PTR _Onem_apIndex$[esp+1000], 0
  00095	88 8c 24 e3 03
	00 00		 mov	 BYTE PTR _sPerObjIndex$[esp+1015], cl
  0009c	89 5c 24 1c	 mov	 DWORD PTR _bExtBank$[esp+1000], ebx
  000a0	89 5c 24 18	 mov	 DWORD PTR _bPirecingBank$[esp+1000], ebx
  000a4	89 5c 24 14	 mov	 DWORD PTR _ch$208119[esp+1000], ebx
  000a8	0f 86 5c 01 00
	00		 jbe	 $L208122
  000ae	8b ff		 npad	 2
$L208120:

; 936  : 	{	
; 937  : 		SaveOneItem( &pGuildBank->m_apItem[ch], &is );

  000b0	8b 45 0c	 mov	 eax, DWORD PTR [ebp+12]
  000b3	8b 4c 24 20	 mov	 ecx, DWORD PTR $T210453[esp+1000]
  000b7	8d 54 24 24	 lea	 edx, DWORD PTR _is$[esp+1000]
  000bb	52		 push	 edx
  000bc	03 c3		 add	 eax, ebx
  000be	50		 push	 eax
  000bf	e8 00 00 00 00	 call	 ?SaveOneItem@CDbManager@@QAEXPAVCItemElem@@PAU_ItemStruct@@@Z ; CDbManager::SaveOneItem

; 938  : 		strncat( pItemContainerStruct->szItem, is.szItem, sizeof(is.szItem) );

  000c4	68 00 02 00 00	 push	 512			; 00000200H
  000c9	8d 4c 24 28	 lea	 ecx, DWORD PTR _is$[esp+1004]
  000cd	51		 push	 ecx
  000ce	57		 push	 edi
  000cf	e8 00 00 00 00	 call	 _strncat

; 939  : 		strncat( pItemContainerStruct->szExt, is.szExt, sizeof(is.szExt) );

  000d4	6a 40		 push	 64			; 00000040H
  000d6	8d 94 24 34 02
	00 00		 lea	 edx, DWORD PTR _is$[esp+1528]
  000dd	52		 push	 edx
  000de	8d 87 00 1c 00
	00		 lea	 eax, DWORD PTR [edi+7168]
  000e4	50		 push	 eax
  000e5	e8 00 00 00 00	 call	 _strncat

; 940  : 		strncat( pItemContainerStruct->szPiercing, is.szPiercing, sizeof(is.szPiercing) );

  000ea	68 00 01 00 00	 push	 256			; 00000100H
  000ef	8d 84 24 80 02
	00 00		 lea	 eax, DWORD PTR _is$[esp+1604]
  000f6	50		 push	 eax
  000f7	8d 87 00 24 00
	00		 lea	 eax, DWORD PTR [edi+9216]
  000fd	50		 push	 eax
  000fe	e8 00 00 00 00	 call	 _strncat

; 941  : 		sprintf( Onem_apIndex, "%d/", pGuildBank->m_apIndex[ch]);

  00103	8b 4d 04	 mov	 ecx, DWORD PTR [ebp+4]
  00106	8b 54 24 38	 mov	 edx, DWORD PTR _ch$208119[esp+1036]
  0010a	8b 04 91	 mov	 eax, DWORD PTR [ecx+edx*4]
  0010d	50		 push	 eax
  0010e	8d 8c 24 f0 03
	00 00		 lea	 ecx, DWORD PTR _Onem_apIndex$[esp+1040]
  00115	68 00 00 00 00	 push	 OFFSET FLAT:??_C@_03BEJFCEHO@?$CFd?1?$AA@
  0011a	51		 push	 ecx
  0011b	e8 00 00 00 00	 call	 _sprintf

; 942  : 		strncat( pItemContainerStruct->szIndex, Onem_apIndex, sizeof(Onem_apIndex) );

  00120	6a 0a		 push	 10			; 0000000aH
  00122	8d 94 24 fc 03
	00 00		 lea	 edx, DWORD PTR _Onem_apIndex$[esp+1052]
  00129	52		 push	 edx
  0012a	8d 87 00 18 00
	00		 lea	 eax, DWORD PTR [edi+6144]
  00130	50		 push	 eax
  00131	e8 00 00 00 00	 call	 _strncat

; 943  : 		sprintf( sPerObjIndex, "%d/", pGuildBank->m_apItem[ch].m_dwObjIndex );

  00136	8b 45 0c	 mov	 eax, DWORD PTR [ebp+12]
  00139	8b 4c 03 2c	 mov	 ecx, DWORD PTR [ebx+eax+44]
  0013d	51		 push	 ecx
  0013e	8d 94 24 14 04
	00 00		 lea	 edx, DWORD PTR _sPerObjIndex$[esp+1064]
  00145	68 00 00 00 00	 push	 OFFSET FLAT:??_C@_03BEJFCEHO@?$CFd?1?$AA@
  0014a	52		 push	 edx
  0014b	e8 00 00 00 00	 call	 _sprintf

; 944  : 		strcat( pItemContainerStruct->szObjIndex, sPerObjIndex );

  00150	8d 84 24 1c 04
	00 00		 lea	 eax, DWORD PTR _sPerObjIndex$[esp+1072]
  00157	83 c4 48	 add	 esp, 72			; 00000048H
  0015a	8b f0		 mov	 esi, eax
  0015c	8d 64 24 00	 npad	 4
$L210458:
  00160	8a 08		 mov	 cl, BYTE PTR [eax]
  00162	40		 inc	 eax
  00163	84 c9		 test	 cl, cl
  00165	75 f9		 jne	 SHORT $L210458
  00167	2b c6		 sub	 eax, esi
  00169	81 c7 ff 19 00
	00		 add	 edi, 6655		; 000019ffH
  0016f	90		 npad	 1
$L210459:
  00170	8a 4f 01	 mov	 cl, BYTE PTR [edi+1]
  00173	47		 inc	 edi
  00174	84 c9		 test	 cl, cl
  00176	75 f8		 jne	 SHORT $L210459
  00178	8b c8		 mov	 ecx, eax
  0017a	c1 e9 02	 shr	 ecx, 2
  0017d	f3 a5		 rep movsd
  0017f	8b c8		 mov	 ecx, eax

; 945  : 		strncat( pItemContainerStruct->szPet, is.szPet, sizeof(is.szPet) );

  00181	6a 64		 push	 100			; 00000064H
  00183	8d 84 24 68 03
	00 00		 lea	 eax, DWORD PTR _is$[esp+1836]
  0018a	50		 push	 eax
  0018b	8b 44 24 18	 mov	 eax, DWORD PTR $T210455[esp+1008]
  0018f	05 40 43 00 00	 add	 eax, 17216		; 00004340H
  00194	83 e1 03	 and	 ecx, 3
  00197	50		 push	 eax
  00198	f3 a4		 rep movsb
  0019a	e8 00 00 00 00	 call	 _strncat

; 946  : 
; 947  : 		if( pGuildBank->m_apItem[ch].m_bCharged || 0 < pGuildBank->m_apItem[ch].m_dwKeepTime || 0 != pGuildBank->m_apItem[ch].GetRandomOptItemId() )

  0019f	8b 4d 0c	 mov	 ecx, DWORD PTR [ebp+12]
  001a2	8d 04 0b	 lea	 eax, DWORD PTR [ebx+ecx]
  001a5	8b 88 88 00 00
	00		 mov	 ecx, DWORD PTR [eax+136]
  001ab	83 c4 0c	 add	 esp, 12			; 0000000cH
  001ae	85 c9		 test	 ecx, ecx
  001b0	75 1e		 jne	 SHORT $L210460
  001b2	8b 88 8c 00 00
	00		 mov	 ecx, DWORD PTR [eax+140]
  001b8	85 c9		 test	 ecx, ecx
  001ba	77 14		 ja	 SHORT $L210460
  001bc	8b 88 90 00 00
	00		 mov	 ecx, DWORD PTR [eax+144]
  001c2	85 c9		 test	 ecx, ecx
  001c4	75 0a		 jne	 SHORT $L210460
  001c6	8b 88 94 00 00
	00		 mov	 ecx, DWORD PTR [eax+148]
  001cc	85 c9		 test	 ecx, ecx
  001ce	74 08		 je	 SHORT $L210470
$L210460:

; 948  : 			bExtBank = TRUE;

  001d0	c7 44 24 1c 01
	00 00 00	 mov	 DWORD PTR _bExtBank$[esp+1000], 1
$L210470:

; 949  : 		if( pGuildBank->m_apItem[ch].IsPiercedItem() )

  001d8	8d 48 34	 lea	 ecx, DWORD PTR [eax+52]
  001db	e8 00 00 00 00	 call	 ?IsPiercedItem@CPiercing@@QAEHXZ ; CPiercing::IsPiercedItem
  001e0	85 c0		 test	 eax, eax
  001e2	74 08		 je	 SHORT $L208121

; 950  : 			bPirecingBank = TRUE;

  001e4	c7 44 24 18 01
	00 00 00	 mov	 DWORD PTR _bPirecingBank$[esp+1000], 1
$L208121:

; 932  : 	BOOL bPirecingBank = FALSE;
; 933  : 	BOOL bPet	= FALSE;
; 934  : 
; 935  : 	for( DWORD ch = 0; ch < pGuildBank->m_dwItemMax; ch++ )	// 0-504

  001ec	8b 44 24 14	 mov	 eax, DWORD PTR _ch$208119[esp+1000]
  001f0	8b 4d 10	 mov	 ecx, DWORD PTR [ebp+16]
  001f3	8b 7c 24 10	 mov	 edi, DWORD PTR $T210455[esp+1000]
  001f7	40		 inc	 eax
  001f8	81 c3 a0 00 00
	00		 add	 ebx, 160		; 000000a0H
  001fe	3b c1		 cmp	 eax, ecx
  00200	89 44 24 14	 mov	 DWORD PTR _ch$208119[esp+1000], eax
  00204	0f 82 a6 fe ff
	ff		 jb	 $L208120
$L208122:

; 951  : 		if( pGuildBank->m_apItem[ch].m_pPet )
; 952  : 			bPet	= TRUE;
; 953  : 	}
; 954  : 	strncat( pItemContainerStruct->szItem, NullStr, sizeof(NullStr) );

  0020a	6a 02		 push	 2
  0020c	68 00 00 00 00	 push	 OFFSET FLAT:_NullStr
  00211	57		 push	 edi
  00212	e8 00 00 00 00	 call	 _strncat

; 955  : 	strncat( pItemContainerStruct->szIndex, NullStr, sizeof(NullStr));

  00217	6a 02		 push	 2
  00219	8d 97 00 18 00
	00		 lea	 edx, DWORD PTR [edi+6144]
  0021f	68 00 00 00 00	 push	 OFFSET FLAT:_NullStr
  00224	52		 push	 edx
  00225	e8 00 00 00 00	 call	 _strncat

; 956  : 	strcat( pItemContainerStruct->szObjIndex, NullStr );

  0022a	b8 00 00 00 00	 mov	 eax, OFFSET FLAT:_NullStr
  0022f	83 c4 18	 add	 esp, 24			; 00000018H
  00232	8b c8		 mov	 ecx, eax
$L210461:
  00234	8a 10		 mov	 dl, BYTE PTR [eax]
  00236	40		 inc	 eax
  00237	84 d2		 test	 dl, dl
  00239	75 f9		 jne	 SHORT $L210461
  0023b	2b c1		 sub	 eax, ecx
  0023d	8b f1		 mov	 esi, ecx
  0023f	81 c7 ff 19 00
	00		 add	 edi, 6655		; 000019ffH
$L210462:
  00245	8a 4f 01	 mov	 cl, BYTE PTR [edi+1]
  00248	47		 inc	 edi
  00249	84 c9		 test	 cl, cl
  0024b	75 f8		 jne	 SHORT $L210462

; 957  : 	if( bExtBank == FALSE )
; 958  : 		*pItemContainerStruct->szExt	= '\0';

  0024d	8b 5c 24 10	 mov	 ebx, DWORD PTR $T210455[esp+1000]
  00251	8b c8		 mov	 ecx, eax
  00253	c1 e9 02	 shr	 ecx, 2
  00256	f3 a5		 rep movsd
  00258	8b c8		 mov	 ecx, eax
  0025a	8b 44 24 1c	 mov	 eax, DWORD PTR _bExtBank$[esp+1000]
  0025e	83 e1 03	 and	 ecx, 3
  00261	85 c0		 test	 eax, eax
  00263	f3 a4		 rep movsb
  00265	75 07		 jne	 SHORT $L208127
  00267	c6 83 00 1c 00
	00 00		 mov	 BYTE PTR [ebx+7168], 0
$L208127:

; 959  : 	if( bPirecingBank == FALSE )

  0026e	8b 44 24 18	 mov	 eax, DWORD PTR _bPirecingBank$[esp+1000]
  00272	85 c0		 test	 eax, eax
  00274	75 07		 jne	 SHORT $L208128

; 960  : 		*pItemContainerStruct->szPiercing	= '\0';

  00276	c6 83 00 24 00
	00 00		 mov	 BYTE PTR [ebx+9216], 0
$L208128:

; 961  : 	strcat( pItemContainerStruct->szExt, NullStr );

  0027d	b8 00 00 00 00	 mov	 eax, OFFSET FLAT:_NullStr
  00282	8b d0		 mov	 edx, eax
$L210463:
  00284	8a 08		 mov	 cl, BYTE PTR [eax]
  00286	40		 inc	 eax
  00287	84 c9		 test	 cl, cl
  00289	75 f9		 jne	 SHORT $L210463
  0028b	8d bb 00 1c 00
	00		 lea	 edi, DWORD PTR [ebx+7168]
  00291	2b c2		 sub	 eax, edx
  00293	4f		 dec	 edi
$L210464:
  00294	8a 4f 01	 mov	 cl, BYTE PTR [edi+1]
  00297	47		 inc	 edi
  00298	84 c9		 test	 cl, cl
  0029a	75 f8		 jne	 SHORT $L210464
  0029c	8b c8		 mov	 ecx, eax
  0029e	c1 e9 02	 shr	 ecx, 2
  002a1	8b f2		 mov	 esi, edx
  002a3	f3 a5		 rep movsd
  002a5	8b c8		 mov	 ecx, eax
  002a7	83 e1 03	 and	 ecx, 3

; 962  : 	strcat( pItemContainerStruct->szPiercing, NullStr );

  002aa	b8 00 00 00 00	 mov	 eax, OFFSET FLAT:_NullStr
  002af	f3 a4		 rep movsb
  002b1	8b c8		 mov	 ecx, eax
$L210465:
  002b3	8a 10		 mov	 dl, BYTE PTR [eax]
  002b5	40		 inc	 eax
  002b6	84 d2		 test	 dl, dl
  002b8	75 f9		 jne	 SHORT $L210465
  002ba	8d bb 00 24 00
	00		 lea	 edi, DWORD PTR [ebx+9216]
  002c0	2b c1		 sub	 eax, ecx
  002c2	8b f1		 mov	 esi, ecx
  002c4	4f		 dec	 edi
$L210466:
  002c5	8a 4f 01	 mov	 cl, BYTE PTR [edi+1]
  002c8	47		 inc	 edi
  002c9	84 c9		 test	 cl, cl
  002cb	75 f8		 jne	 SHORT $L210466
  002cd	8b c8		 mov	 ecx, eax
  002cf	c1 e9 02	 shr	 ecx, 2
  002d2	f3 a5		 rep movsd
  002d4	8b c8		 mov	 ecx, eax
  002d6	83 e1 03	 and	 ecx, 3

; 963  : 	strcat( pItemContainerStruct->szPet, NullStr );

  002d9	b8 00 00 00 00	 mov	 eax, OFFSET FLAT:_NullStr
  002de	f3 a4		 rep movsb
  002e0	8b c8		 mov	 ecx, eax
$L210467:
  002e2	8a 10		 mov	 dl, BYTE PTR [eax]
  002e4	40		 inc	 eax
  002e5	84 d2		 test	 dl, dl
  002e7	75 f9		 jne	 SHORT $L210467
  002e9	8d bb 40 43 00
	00		 lea	 edi, DWORD PTR [ebx+17216]
  002ef	2b c1		 sub	 eax, ecx
  002f1	8b f1		 mov	 esi, ecx
  002f3	4f		 dec	 edi
$L210468:
  002f4	8a 4f 01	 mov	 cl, BYTE PTR [edi+1]
  002f7	47		 inc	 edi
  002f8	84 c9		 test	 cl, cl
  002fa	75 f8		 jne	 SHORT $L210468
  002fc	8b c8		 mov	 ecx, eax
  002fe	c1 e9 02	 shr	 ecx, 2
  00301	f3 a5		 rep movsd
  00303	8b c8		 mov	 ecx, eax
  00305	83 e1 03	 and	 ecx, 3
  00308	f3 a4		 rep movsb

; 964  : }

  0030a	8b 8c 24 e4 03
	00 00		 mov	 ecx, DWORD PTR __$ArrayPad$[esp+1000]
  00311	5f		 pop	 edi
  00312	5e		 pop	 esi
  00313	5d		 pop	 ebp
  00314	5b		 pop	 ebx
  00315	33 cc		 xor	 ecx, esp
  00317	e8 00 00 00 00	 call	 @__security_check_cookie@4
  0031c	81 c4 d8 03 00
	00		 add	 esp, 984		; 000003d8H
  00322	c2 08 00	 ret	 8
?SaveGuildBank@CDbManager@@QAEXPAV?$CItemContainer@VCItemElem@@@@PAU_ItemContainerStruct@@@Z ENDP ; CDbManager::SaveGuildBank
_TEXT	ENDS
PUBLIC	??_C@_0CL@CFFKAAJH@SavePlayer?$CI?$CFs?$CJ?5?9?5?$CFdth?5bindparam?5@ ; `string'
PUBLIC	??_C@_0CE@ELFBACKP@try?5DB?5Reconnect?4?4?4?5?9?5ThreadId?5?3@ ; `string'
PUBLIC	??_C@_0CG@FNBKCMMG@DB?5Reconnect?5Success?$CB?5?9?5ThreadId@ ; `string'
PUBLIC	??_C@_0CF@CBPPBEJP@DB?5Reconnect?5Failed?$CB?5?9?5ThreadId?5@ ; `string'
PUBLIC	??_C@_0DC@JGALDGNI@SavePlayer?$CI?$CFs?$CJ?5?9?5Exec?5RETURN?5FAL@ ; `string'
PUBLIC	??_C@_06MJMGIOFA@fError?$AA@			; `string'
PUBLIC	??_C@_0BL@JKHLBFHF@SavePlayer?$CI?$CFs?$CJ?5?9?5fError?3?$CFd?$AA@ ; `string'
PUBLIC	??_C@_02KMJEMNAE@U1?$AA@			; `string'
PUBLIC	?SavePlayer@CDbManager@@QAEXPAVCQuery@@0PAVCMover@@PAD@Z ; CDbManager::SavePlayer
PUBLIC	??_C@_05KABNCBHK@?$CFd?0?$CFd?$AA@		; `string'
PUBLIC	??_C@_0BBA@DPFEJPON@?$HLcall?5CHARACTER_STR?$CI?8U1?8?0?8?$CF07d?8?0@ ; `string'
EXTRN	?Connect@CQuery@@QAEHHPAD0PBD@Z:NEAR		; CQuery::Connect
EXTRN	?DisConnect@CQuery@@QAEXXZ:NEAR			; CQuery::DisConnect
EXTRN	?Fetch@CQuery@@QAEHXZ:NEAR			; CQuery::Fetch
EXTRN	?Clear@CQuery@@QAEXXZ:NEAR			; CQuery::Clear
EXTRN	?GetInt@CQuery@@QAEHPAD@Z:NEAR			; CQuery::GetInt
EXTRN	??_U@YAPAXI@Z:NEAR				; operator new[]
EXTRN	??_V@YAXPAX@Z:NEAR				; operator delete[]
EXTRN	?BindParameter@CQuery@@QAEHGFFFKFPAXJPAJ@Z:NEAR	; CQuery::BindParameter
EXTRN	?PutExpLog@CDbManager@@AAEXPAVCQuery@@PAVCMover@@D@Z:NEAR ; CDbManager::PutExpLog
EXTRN	__imp__GetCurrentThreadId@0:NEAR
;	COMDAT ??_C@_05KABNCBHK@?$CFd?0?$CFd?$AA@
CONST	SEGMENT
??_C@_05KABNCBHK@?$CFd?0?$CFd?$AA@ DB '%d,%d', 00H	; `string'
CONST	ENDS
;	COMDAT ??_C@_0BBA@DPFEJPON@?$HLcall?5CHARACTER_STR?$CI?8U1?8?0?8?$CF07d?8?0@
CONST	SEGMENT
??_C@_0BBA@DPFEJPON@?$HLcall?5CHARACTER_STR?$CI?8U1?8?0?8?$CF07d?8?0@ DB '{'
	DB	'call CHARACTER_STR(''U1'',''%07d'',''%02d'','''',?,?,?,?,?,?,'
	DB	'?,?,?,?,?,?,?,?,?,?,?,?,?,?,?,?,?,?,?,?,?,?,?,?,?,?,?,?,?,?,?'
	DB	',?,?,?,?,?,?,?,?,?,?,?,?,?,?,?,?,?,?,?,?,?,?,?,?,?,?,?,?,?,?,'
	DB	'?,?,?,?,?,?,?,?,?,?,?,?,?,?,?,?,?,?,?,%7.0f,%7.0f,%7.0f,?,?,?'
	DB	',?,?,?,?,?,?,?,?,?,?,?,?,?,?,?,?)}', 00H	; `string'
CONST	ENDS
;	COMDAT ??_C@_0DC@JGALDGNI@SavePlayer?$CI?$CFs?$CJ?5?9?5Exec?5RETURN?5FAL@
CONST	SEGMENT
??_C@_0DC@JGALDGNI@SavePlayer?$CI?$CFs?$CJ?5?9?5Exec?5RETURN?5FAL@ DB 'Sa'
	DB	'vePlayer(%s) - Exec RETURN FALSE, ThreadID : %d', 00H ; `string'
CONST	ENDS
;	COMDAT ??_C@_0CL@CFFKAAJH@SavePlayer?$CI?$CFs?$CJ?5?9?5?$CFdth?5bindparam?5@
CONST	SEGMENT
??_C@_0CL@CFFKAAJH@SavePlayer?$CI?$CFs?$CJ?5?9?5?$CFdth?5bindparam?5@ DB 'S'
	DB	'avePlayer(%s) - %dth bindparam error - %d', 00H ; `string'
CONST	ENDS
;	COMDAT ??_C@_0CE@ELFBACKP@try?5DB?5Reconnect?4?4?4?5?9?5ThreadId?5?3@
CONST	SEGMENT
??_C@_0CE@ELFBACKP@try?5DB?5Reconnect?4?4?4?5?9?5ThreadId?5?3@ DB 'try DB'
	DB	' Reconnect... - ThreadId : %d', 00H		; `string'
CONST	ENDS
;	COMDAT ??_C@_0CG@FNBKCMMG@DB?5Reconnect?5Success?$CB?5?9?5ThreadId@
CONST	SEGMENT
??_C@_0CG@FNBKCMMG@DB?5Reconnect?5Success?$CB?5?9?5ThreadId@ DB 'DB Recon'
	DB	'nect Success! - ThreadId : %d', 00H		; `string'
CONST	ENDS
;	COMDAT ??_C@_0CF@CBPPBEJP@DB?5Reconnect?5Failed?$CB?5?9?5ThreadId?5@
CONST	SEGMENT
??_C@_0CF@CBPPBEJP@DB?5Reconnect?5Failed?$CB?5?9?5ThreadId?5@ DB 'DB Reco'
	DB	'nnect Failed! - ThreadId : %d', 00H		; `string'
CONST	ENDS
;	COMDAT ??_C@_06MJMGIOFA@fError?$AA@
CONST	SEGMENT
??_C@_06MJMGIOFA@fError?$AA@ DB 'fError', 00H		; `string'
CONST	ENDS
;	COMDAT ??_C@_0BL@JKHLBFHF@SavePlayer?$CI?$CFs?$CJ?5?9?5fError?3?$CFd?$AA@
CONST	SEGMENT
??_C@_0BL@JKHLBFHF@SavePlayer?$CI?$CFs?$CJ?5?9?5fError?3?$CFd?$AA@ DB 'Sa'
	DB	'vePlayer(%s) - fError:%d', 00H		; `string'
CONST	ENDS
;	COMDAT ??_C@_02KMJEMNAE@U1?$AA@
CONST	SEGMENT
??_C@_02KMJEMNAE@U1?$AA@ DB 'U1', 00H			; `string'
; Function compile flags: /Ogty
CONST	ENDS
;	COMDAT ?SavePlayer@CDbManager@@QAEXPAVCQuery@@0PAVCMover@@PAD@Z
_TEXT	SEGMENT
_i$ = -198548						; size = 4
_cbLen$ = -198544					; size = 4
$T210566 = -198540					; size = 4
_cbLen$207923 = -198540					; size = 4
tv4055 = -198536					; size = 4
tv2624 = -198536					; size = 4
_cbLen$207905 = -198536					; size = 4
$T210570 = -198532					; size = 4
_p$207922 = -198528					; size = 40
_info$207903 = -198528					; size = 36
_sCubeObjIndex$ = -198488				; size = 2
_sCubeIndex$ = -198484					; size = 2
_sCardIndex$ = -198480					; size = 2
_Card$ = -198476					; size = 2
_Cube$ = -198472					; size = 2
_szAuthority$ = -198468					; size = 2
_sCardObjIndex$ = -198464				; size = 2
tv2505 = -198460					; size = 4
_dwPetId$ = -198456					; size = 4
$T210568 = -198452					; size = 4
_nLayer$ = -198448					; size = 4
_dwGold$ = -198444					; size = 4
_nCampusPoint$ = -198440				; size = 4
_nRemainLP$ = -198436					; size = 4
_idCampus$ = -198432					; size = 4
_dwState$ = -198428					; size = 4
_nTutorialState$ = -198424				; size = 4
_nTotalPlayTime$ = -198420				; size = 4
_nExpertLv$ = -198416					; size = 4
_dwSkillPoint$ = -198412				; size = 4
_nSex$ = -198408					; size = 4
_nSlot$ = -198404					; size = 4
_nExp2$ = -198400					; size = 8
_nSkillExp$ = -198392					; size = 8
_icsInventory$ = -198384				; size = 21416
_aPocket$ = -176968					; size = 64272
_icsBank$ = -112696					; size = 64248
_cActMover$ = -48444					; size = 50
_CheckedQuest$ = -48392					; size = 100
_szBuffer$207876 = -48288				; size = 128
_JobLv$ = -48160					; size = 500
_Equipment$ = -47656					; size = 500
_m_aCompleteQuest$ = -47152				; size = 1024
_SkillTaskBar$ = -46128					; size = 1024
_JobSkill$ = -45104					; size = 1024
_LicenseSkill$ = -44080					; size = 1024
_szSMTime$ = -43056					; size = 3072
_QuestCnt$ = -39984					; size = 3072
_ItemTaskBar$ = -36912					; size = 24000
_AppletTaskBar$ = -12912				; size = 5400
_szSkillInfluence$ = -7512				; size = 7500
__$ArrayPad$ = -4					; size = 4
__$ReturnAddr$ = 4					; size = 4
_qry$ = 8						; size = 4
_pQueryLog$ = 12					; size = 4
_pMover$ = 16						; size = 4
_szQuery$ = 20						; size = 4
?SavePlayer@CDbManager@@QAEXPAVCQuery@@0PAVCMover@@PAD@Z PROC NEAR ; CDbManager::SavePlayer, COMDAT
; _this$ = ecx

; 47   : {

  00000	55		 push	 ebp
  00001	8b ec		 mov	 ebp, esp
  00003	83 e4 f8	 and	 esp, -8			; fffffff8H
  00006	b8 94 07 03 00	 mov	 eax, 198548		; 00030794H
  0000b	e8 00 00 00 00	 call	 __chkstk
  00010	a1 00 00 00 00	 mov	 eax, DWORD PTR ___security_cookie
  00015	33 c5		 xor	 eax, ebp
  00017	89 84 24 90 07
	03 00		 mov	 DWORD PTR __$ArrayPad$[esp+198548], eax
  0001e	8b 45 0c	 mov	 eax, DWORD PTR _pQueryLog$[ebp]
  00021	53		 push	 ebx
  00022	8b 5d 10	 mov	 ebx, DWORD PTR _pMover$[ebp]

; 477  : 	for( i = 0; i < MAX_POCKET; i++ )

  00025	89 44 24 64	 mov	 DWORD PTR $T210568[esp+198552], eax
  00029	8b 45 14	 mov	 eax, DWORD PTR _szQuery$[ebp]
  0002c	56		 push	 esi
  0002d	8b 75 08	 mov	 esi, DWORD PTR _qry$[ebp]
  00030	57		 push	 edi
  00031	c6 00 00	 mov	 BYTE PTR [eax], 0
  00034	89 44 24 1c	 mov	 DWORD PTR $T210570[esp+198560], eax
  00038	89 4c 24 14	 mov	 DWORD PTR $T210566[esp+198560], ecx
  0003c	c6 84 24 64 4a
	02 00 00	 mov	 BYTE PTR _cActMover$[esp+198560], 0
  00044	33 c0		 xor	 eax, eax
  00046	b9 0c 00 00 00	 mov	 ecx, 12			; 0000000cH
  0004b	8d bc 24 65 4a
	02 00		 lea	 edi, DWORD PTR _cActMover$[esp+198561]
  00052	f3 ab		 rep stosd
  00054	aa		 stosb
  00055	8b 83 10 41 00
	00		 mov	 eax, DWORD PTR [ebx+16656]
  0005b	8b 48 08	 mov	 ecx, DWORD PTR [eax+8]
  0005e	8b 50 04	 mov	 edx, DWORD PTR [eax+4]
  00061	51		 push	 ecx
  00062	52		 push	 edx
  00063	8d 84 24 6c 4a
	02 00		 lea	 eax, DWORD PTR _cActMover$[esp+198568]
  0006a	68 00 00 00 00	 push	 OFFSET FLAT:??_C@_05KABNCBHK@?$CFd?0?$CFd?$AA@
  0006f	50		 push	 eax
  00070	e8 00 00 00 00	 call	 _sprintf
  00075	33 c0		 xor	 eax, eax
  00077	c6 84 24 80 57
	02 00 00	 mov	 BYTE PTR _JobSkill$[esp+198576], 0
  0007f	b9 ff 00 00 00	 mov	 ecx, 255		; 000000ffH
  00084	8d bc 24 81 57
	02 00		 lea	 edi, DWORD PTR _JobSkill$[esp+198577]
  0008b	f3 ab		 rep stosd
  0008d	66 ab		 stosw
  0008f	aa		 stosb
  00090	33 c0		 xor	 eax, eax
  00092	c6 84 24 80 5b
	02 00 00	 mov	 BYTE PTR _LicenseSkill$[esp+198576], 0
  0009a	b9 ff 00 00 00	 mov	 ecx, 255		; 000000ffH
  0009f	8d bc 24 81 5b
	02 00		 lea	 edi, DWORD PTR _LicenseSkill$[esp+198577]
  000a6	f3 ab		 rep stosd
  000a8	66 ab		 stosw
  000aa	aa		 stosb
  000ab	c6 84 24 90 4b
	02 00 00	 mov	 BYTE PTR _JobLv$[esp+198576], 0
  000b3	33 c0		 xor	 eax, eax
  000b5	b9 7c 00 00 00	 mov	 ecx, 124		; 0000007cH
  000ba	8d bc 24 91 4b
	02 00		 lea	 edi, DWORD PTR _JobLv$[esp+198577]
  000c1	f3 ab		 rep stosd
  000c3	83 c4 10	 add	 esp, 16			; 00000010H
  000c6	8d 8c 24 80 4b
	02 00		 lea	 ecx, DWORD PTR _JobLv$[esp+198560]
  000cd	66 ab		 stosw
  000cf	51		 push	 ecx
  000d0	8b 4c 24 18	 mov	 ecx, DWORD PTR $T210566[esp+198564]
  000d4	53		 push	 ebx
  000d5	aa		 stosb
  000d6	e8 00 00 00 00	 call	 ?SaveJobLv@CDbManager@@QAEXPAVCMover@@PAD@Z ; CDbManager::SaveJobLv
  000db	33 c0		 xor	 eax, eax
  000dd	c6 84 24 70 6b
	02 00 00	 mov	 BYTE PTR _QuestCnt$[esp+198560], 0
  000e5	b9 ff 02 00 00	 mov	 ecx, 767		; 000002ffH
  000ea	8d bc 24 71 6b
	02 00		 lea	 edi, DWORD PTR _QuestCnt$[esp+198561]
  000f1	f3 ab		 rep stosd
  000f3	66 ab		 stosw
  000f5	aa		 stosb
  000f6	33 c0		 xor	 eax, eax
  000f8	c6 84 24 70 4f
	02 00 00	 mov	 BYTE PTR _m_aCompleteQuest$[esp+198560], 0
  00100	b9 ff 00 00 00	 mov	 ecx, 255		; 000000ffH
  00105	8d bc 24 71 4f
	02 00		 lea	 edi, DWORD PTR _m_aCompleteQuest$[esp+198561]
  0010c	f3 ab		 rep stosd
  0010e	66 ab		 stosw
  00110	aa		 stosb
  00111	c6 84 24 98 4a
	02 00 00	 mov	 BYTE PTR _CheckedQuest$[esp+198560], 0
  00119	33 c0		 xor	 eax, eax
  0011b	b9 18 00 00 00	 mov	 ecx, 24			; 00000018H
  00120	8d bc 24 99 4a
	02 00		 lea	 edi, DWORD PTR _CheckedQuest$[esp+198561]
  00127	f3 ab		 rep stosd
  00129	66 ab		 stosw
  0012b	8d 94 24 98 4a
	02 00		 lea	 edx, DWORD PTR _CheckedQuest$[esp+198560]
  00132	aa		 stosb
  00133	52		 push	 edx
  00134	8b 7c 24 18	 mov	 edi, DWORD PTR $T210566[esp+198564]
  00138	8d 84 24 74 4f
	02 00		 lea	 eax, DWORD PTR _m_aCompleteQuest$[esp+198564]
  0013f	50		 push	 eax
  00140	8d 8c 24 78 6b
	02 00		 lea	 ecx, DWORD PTR _QuestCnt$[esp+198568]
  00147	51		 push	 ecx
  00148	53		 push	 ebx
  00149	8b cf		 mov	 ecx, edi
  0014b	e8 00 00 00 00	 call	 ?SaveQuest@CDbManager@@QAEXPAVCMover@@PAD11@Z ; CDbManager::SaveQuest
  00150	8d 94 24 b0 00
	00 00		 lea	 edx, DWORD PTR _icsInventory$[esp+198560]
  00157	52		 push	 edx
  00158	53		 push	 ebx
  00159	8b cf		 mov	 ecx, edi
  0015b	c6 84 24 b8 00
	00 00 00	 mov	 BYTE PTR _icsInventory$[esp+198568], 0
  00163	c6 84 24 b8 18
	00 00 00	 mov	 BYTE PTR _icsInventory$[esp+204712], 0
  0016b	c6 84 24 b8 1a
	00 00 00	 mov	 BYTE PTR _icsInventory$[esp+205224], 0
  00173	c6 84 24 b8 1c
	00 00 00	 mov	 BYTE PTR _icsInventory$[esp+205736], 0
  0017b	c6 84 24 b8 24
	00 00 00	 mov	 BYTE PTR _icsInventory$[esp+207784], 0
  00183	c6 84 24 f8 43
	00 00 00	 mov	 BYTE PTR _icsInventory$[esp+215784], 0
  0018b	c6 84 24 70 4f
	01 00 00	 mov	 BYTE PTR _icsBank$[esp+198568], 0
  00193	c6 84 24 70 67
	01 00 00	 mov	 BYTE PTR _icsBank$[esp+204712], 0
  0019b	c6 84 24 70 69
	01 00 00	 mov	 BYTE PTR _icsBank$[esp+205224], 0
  001a3	c6 84 24 70 6b
	01 00 00	 mov	 BYTE PTR _icsBank$[esp+205736], 0
  001ab	c6 84 24 70 73
	01 00 00	 mov	 BYTE PTR _icsBank$[esp+207784], 0
  001b3	c6 84 24 b0 92
	01 00 00	 mov	 BYTE PTR _icsBank$[esp+215784], 0
  001bb	c6 84 24 18 a3
	01 00 00	 mov	 BYTE PTR _icsBank$[esp+219984], 0
  001c3	c6 84 24 18 bb
	01 00 00	 mov	 BYTE PTR _icsBank$[esp+226128], 0
  001cb	c6 84 24 18 bd
	01 00 00	 mov	 BYTE PTR _icsBank$[esp+226640], 0
  001d3	c6 84 24 18 bf
	01 00 00	 mov	 BYTE PTR _icsBank$[esp+227152], 0
  001db	c6 84 24 18 c7
	01 00 00	 mov	 BYTE PTR _icsBank$[esp+229200], 0
  001e3	c6 84 24 58 e6
	01 00 00	 mov	 BYTE PTR _icsBank$[esp+237200], 0
  001eb	c6 84 24 c0 f6
	01 00 00	 mov	 BYTE PTR _icsBank$[esp+241400], 0
  001f3	c6 84 24 c0 0e
	02 00 00	 mov	 BYTE PTR _icsBank$[esp+247544], 0
  001fb	c6 84 24 c0 10
	02 00 00	 mov	 BYTE PTR _icsBank$[esp+248056], 0
  00203	c6 84 24 c0 12
	02 00 00	 mov	 BYTE PTR _icsBank$[esp+248568], 0
  0020b	c6 84 24 c0 1a
	02 00 00	 mov	 BYTE PTR _icsBank$[esp+250616], 0
  00213	c6 84 24 00 3a
	02 00 00	 mov	 BYTE PTR _icsBank$[esp+258616], 0
  0021b	e8 00 00 00 00	 call	 ?SaveInventory@CDbManager@@QAEXPAVCMover@@PAU_ItemContainerStruct@@@Z ; CDbManager::SaveInventory
  00220	8d 83 94 41 00
	00		 lea	 eax, DWORD PTR [ebx+16788]
  00226	8d bc 24 68 4f
	01 00		 lea	 edi, DWORD PTR _icsBank$[esp+198560]
  0022d	89 44 24 18	 mov	 DWORD PTR tv4055[esp+198560], eax
  00231	c7 44 24 64 03
	00 00 00	 mov	 DWORD PTR tv2505[esp+198560], 3
  00239	8d a4 24 00 00
	00 00		 npad	 7
$L207829:
  00240	8b 4c 24 18	 mov	 ecx, DWORD PTR tv4055[esp+198560]
  00244	57		 push	 edi
  00245	51		 push	 ecx
  00246	8b 4c 24 1c	 mov	 ecx, DWORD PTR $T210566[esp+198568]
  0024a	53		 push	 ebx
  0024b	e8 00 00 00 00	 call	 ?SaveBank@CDbManager@@QAEXPAVCMover@@PAV?$CItemContainer@VCItemElem@@@@PAU_ItemContainerStruct@@@Z ; CDbManager::SaveBank
  00250	8b 4c 24 18	 mov	 ecx, DWORD PTR tv4055[esp+198560]
  00254	8b 44 24 64	 mov	 eax, DWORD PTR tv2505[esp+198560]
  00258	83 c1 14	 add	 ecx, 20			; 00000014H
  0025b	81 c7 a8 53 00
	00		 add	 edi, 21416		; 000053a8H
  00261	48		 dec	 eax
  00262	89 4c 24 18	 mov	 DWORD PTR tv4055[esp+198560], ecx
  00266	89 44 24 64	 mov	 DWORD PTR tv2505[esp+198560], eax
  0026a	75 d4		 jne	 SHORT $L207829
  0026c	c6 84 24 78 4d
	02 00 00	 mov	 BYTE PTR _Equipment$[esp+198560], 0
  00274	33 c0		 xor	 eax, eax
  00276	b9 7c 00 00 00	 mov	 ecx, 124		; 0000007cH
  0027b	8d bc 24 79 4d
	02 00		 lea	 edi, DWORD PTR _Equipment$[esp+198561]
  00282	f3 ab		 rep stosd
  00284	8b 4c 24 14	 mov	 ecx, DWORD PTR $T210566[esp+198560]
  00288	8d 94 24 78 4d
	02 00		 lea	 edx, DWORD PTR _Equipment$[esp+198560]
  0028f	66 ab		 stosw
  00291	52		 push	 edx
  00292	53		 push	 ebx
  00293	aa		 stosb
  00294	e8 00 00 00 00	 call	 ?SaveEquipment@CDbManager@@QAEXPAVCMover@@PAD@Z ; CDbManager::SaveEquipment
  00299	b8 24 00 00 00	 mov	 eax, 36			; 00000024H
  0029e	66 89 44 24 54	 mov	 WORD PTR _Card$[esp+198560], ax
  002a3	66 89 44 24 50	 mov	 WORD PTR _sCardIndex$[esp+198560], ax
  002a8	66 89 44 24 60	 mov	 WORD PTR _sCardObjIndex$[esp+198560], ax
  002ad	66 89 44 24 58	 mov	 WORD PTR _Cube$[esp+198560], ax
  002b2	66 89 44 24 4c	 mov	 WORD PTR _sCubeIndex$[esp+198560], ax
  002b7	66 89 44 24 48	 mov	 WORD PTR _sCubeObjIndex$[esp+198560], ax
  002bc	33 c0		 xor	 eax, eax
  002be	c6 84 24 30 d5
	02 00 00	 mov	 BYTE PTR _AppletTaskBar$[esp+198560], 0
  002c6	b9 45 05 00 00	 mov	 ecx, 1349		; 00000545H
  002cb	8d bc 24 31 d5
	02 00		 lea	 edi, DWORD PTR _AppletTaskBar$[esp+198561]
  002d2	f3 ab		 rep stosd
  002d4	66 ab		 stosw
  002d6	aa		 stosb
  002d7	33 c0		 xor	 eax, eax
  002d9	c6 84 24 70 77
	02 00 00	 mov	 BYTE PTR _ItemTaskBar$[esp+198560], 0
  002e1	b9 6f 17 00 00	 mov	 ecx, 5999		; 0000176fH
  002e6	8d bc 24 71 77
	02 00		 lea	 edi, DWORD PTR _ItemTaskBar$[esp+198561]
  002ed	f3 ab		 rep stosd
  002ef	66 ab		 stosw
  002f1	aa		 stosb
  002f2	33 c0		 xor	 eax, eax
  002f4	c6 84 24 70 53
	02 00 00	 mov	 BYTE PTR _SkillTaskBar$[esp+198560], 0
  002fc	b9 ff 00 00 00	 mov	 ecx, 255		; 000000ffH
  00301	8d bc 24 71 53
	02 00		 lea	 edi, DWORD PTR _SkillTaskBar$[esp+198561]
  00308	f3 ab		 rep stosd
  0030a	66 ab		 stosw
  0030c	aa		 stosb
  0030d	8d 84 24 70 53
	02 00		 lea	 eax, DWORD PTR _SkillTaskBar$[esp+198560]
  00314	50		 push	 eax
  00315	8d 8c 24 74 77
	02 00		 lea	 ecx, DWORD PTR _ItemTaskBar$[esp+198564]
  0031c	51		 push	 ecx
  0031d	8b 4c 24 1c	 mov	 ecx, DWORD PTR $T210566[esp+198568]
  00321	8d 94 24 38 d5
	02 00		 lea	 edx, DWORD PTR _AppletTaskBar$[esp+198568]
  00328	52		 push	 edx
  00329	53		 push	 ebx
  0032a	e8 00 00 00 00	 call	 ?SaveTaskBar@CDbManager@@QAEXPAVCMover@@PAD11@Z ; CDbManager::SaveTaskBar
  0032f	33 c0		 xor	 eax, eax
  00331	c6 84 24 70 5f
	02 00 00	 mov	 BYTE PTR _szSMTime$[esp+198560], 0
  00339	b9 ff 02 00 00	 mov	 ecx, 767		; 000002ffH
  0033e	8d bc 24 71 5f
	02 00		 lea	 edi, DWORD PTR _szSMTime$[esp+198561]
  00345	f3 ab		 rep stosd
  00347	8b 4c 24 14	 mov	 ecx, DWORD PTR $T210566[esp+198560]
  0034b	66 ab		 stosw
  0034d	aa		 stosb
  0034e	8d 84 24 70 5f
	02 00		 lea	 eax, DWORD PTR _szSMTime$[esp+198560]
  00355	50		 push	 eax
  00356	53		 push	 ebx
  00357	e8 00 00 00 00	 call	 ?SaveSMCode@CDbManager@@QAEXPAVCMover@@PAD@Z ; CDbManager::SaveSMCode
  0035c	c6 84 24 48 ea
	02 00 00	 mov	 BYTE PTR _szSkillInfluence$[esp+198560], 0
  00364	33 c0		 xor	 eax, eax
  00366	b9 52 07 00 00	 mov	 ecx, 1874		; 00000752H
  0036b	8d bc 24 49 ea
	02 00		 lea	 edi, DWORD PTR _szSkillInfluence$[esp+198561]
  00372	f3 ab		 rep stosd
  00374	66 ab		 stosw
  00376	8d 8c 24 48 ea
	02 00		 lea	 ecx, DWORD PTR _szSkillInfluence$[esp+198560]
  0037d	51		 push	 ecx
  0037e	8d 8b 10 45 00
	00		 lea	 ecx, DWORD PTR [ebx+17680]
  00384	aa		 stosb
  00385	e8 00 00 00 00	 call	 ?ToString@CBuffMgr@@QAEXPAD@Z ; CBuffMgr::ToString
  0038a	8b 93 ac 46 00
	00		 mov	 edx, DWORD PTR [ebx+18092]
  00390	8b 44 24 6c	 mov	 eax, DWORD PTR $T210568[esp+198560]
  00394	33 ff		 xor	 edi, edi
  00396	3b d7		 cmp	 edx, edi
  00398	0f 95 c2	 setne	 dl
  0039b	80 c2 4f	 add	 dl, 79			; 0000004fH
  0039e	52		 push	 edx
  0039f	53		 push	 ebx
  003a0	50		 push	 eax
  003a1	8b 4c 24 20	 mov	 ecx, DWORD PTR $T210566[esp+198572]
  003a5	e8 00 00 00 00	 call	 ?PutExpLog@CDbManager@@AAEXPAVCQuery@@PAVCMover@@D@Z ; CDbManager::PutExpLog
  003aa	d9 83 e4 41 00
	00		 fld	 DWORD PTR [ebx+16868]
  003b0	8b 0d 00 00 00
	00		 mov	 ecx, DWORD PTR ?g_appInfo@@3UAppInfo@@A
  003b6	8b 93 90 00 00
	00		 mov	 edx, DWORD PTR [ebx+144]
  003bc	8b 44 24 1c	 mov	 eax, DWORD PTR $T210570[esp+198560]
  003c0	83 ec 18	 sub	 esp, 24			; 00000018H
  003c3	dd 5c 24 10	 fstp	 QWORD PTR [esp+16]
  003c7	d9 83 e0 41 00
	00		 fld	 DWORD PTR [ebx+16864]
  003cd	dd 5c 24 08	 fstp	 QWORD PTR [esp+8]
  003d1	d9 83 dc 41 00
	00		 fld	 DWORD PTR [ebx+16860]
  003d7	dd 1c 24	 fstp	 QWORD PTR [esp]
  003da	51		 push	 ecx
  003db	52		 push	 edx
  003dc	68 00 00 00 00	 push	 OFFSET FLAT:??_C@_0BBA@DPFEJPON@?$HLcall?5CHARACTER_STR?$CI?8U1?8?0?8?$CF07d?8?0@
  003e1	50		 push	 eax
  003e2	e8 00 00 00 00	 call	 _sprintf
  003e7	0f b6 8b b8 00
	00 00		 movzx	 ecx, BYTE PTR [ebx+184]
  003ee	8b 53 34	 mov	 edx, DWORD PTR [ebx+52]
  003f1	68 b0 01 00 00	 push	 432			; 000001b0H
  003f6	66 c7 84 24 88
	00 00 00 46 00	 mov	 WORD PTR _szAuthority$[esp+198604], 70 ; 00000046H
  00400	89 bc 24 c8 00
	00 00		 mov	 DWORD PTR _nSlot$[esp+198604], edi
  00407	89 8c 24 c4 00
	00 00		 mov	 DWORD PTR _nSex$[esp+198604], ecx
  0040e	89 bc 24 bc 00
	00 00		 mov	 DWORD PTR _nExpertLv$[esp+198604], edi
  00415	89 bc 24 a8 00
	00 00		 mov	 DWORD PTR _nRemainLP$[esp+198604], edi
  0041c	89 bc 24 b8 00
	00 00		 mov	 DWORD PTR _nTotalPlayTime$[esp+198604], edi
  00423	89 94 24 a0 00
	00 00		 mov	 DWORD PTR _dwGold$[esp+198604], edx
  0042a	89 7c 24 38	 mov	 DWORD PTR _i$[esp+198604], edi
  0042e	89 bc 24 cc 00
	00 00		 mov	 DWORD PTR _nExp2$[esp+198604], edi
  00435	89 bc 24 d0 00
	00 00		 mov	 DWORD PTR _nExp2$[esp+198608], edi
  0043c	89 bc 24 d4 00
	00 00		 mov	 DWORD PTR _nSkillExp$[esp+198604], edi
  00443	89 bc 24 d8 00
	00 00		 mov	 DWORD PTR _nSkillExp$[esp+198608], edi
  0044a	89 bc 24 c0 00
	00 00		 mov	 DWORD PTR _dwSkillPoint$[esp+198604], edi
  00451	c7 44 24 3c fd
	ff ff ff	 mov	 DWORD PTR _cbLen$[esp+198604], -3 ; fffffffdH
  00459	e8 00 00 00 00	 call	 ??_U@YAPAXI@Z		; operator new[]
  0045e	8b 4c 24 38	 mov	 ecx, DWORD PTR _i$[esp+198604]
  00462	83 c4 2c	 add	 esp, 44			; 0000002cH
  00465	8d 54 24 10	 lea	 edx, DWORD PTR _cbLen$[esp+198560]
  00469	52		 push	 edx
  0046a	6a 00		 push	 0
  0046c	8b f8		 mov	 edi, eax
  0046e	8d 43 6c	 lea	 eax, DWORD PTR [ebx+108]
  00471	50		 push	 eax
  00472	6a 00		 push	 0
  00474	6a 20		 push	 32			; 00000020H
  00476	6a 0c		 push	 12			; 0000000cH
  00478	6a 01		 push	 1
  0047a	41		 inc	 ecx
  0047b	6a 01		 push	 1
  0047d	89 4c 24 2c	 mov	 DWORD PTR _i$[esp+198592], ecx
  00481	51		 push	 ecx
  00482	8b ce		 mov	 ecx, esi
  00484	89 44 24 3c	 mov	 DWORD PTR tv2624[esp+198596], eax
  00488	e8 00 00 00 00	 call	 ?BindParameter@CQuery@@QAEHGFFFKFPAXJPAJ@Z ; CQuery::BindParameter
  0048d	6a 00		 push	 0
  0048f	6a 00		 push	 0
  00491	8d 8c 24 a4 00
	00 00		 lea	 ecx, DWORD PTR _nSlot$[esp+198568]
  00498	51		 push	 ecx
  00499	6a 00		 push	 0
  0049b	6a 00		 push	 0
  0049d	6a 04		 push	 4
  0049f	89 07		 mov	 DWORD PTR [edi], eax
  004a1	8b 44 24 24	 mov	 eax, DWORD PTR _i$[esp+198584]
  004a5	6a 04		 push	 4
  004a7	40		 inc	 eax
  004a8	6a 01		 push	 1
  004aa	50		 push	 eax
  004ab	8b ce		 mov	 ecx, esi
  004ad	89 44 24 30	 mov	 DWORD PTR _i$[esp+198596], eax
  004b1	e8 00 00 00 00	 call	 ?BindParameter@CQuery@@QAEHGFFFKFPAXJPAJ@Z ; CQuery::BindParameter
  004b6	6a 00		 push	 0
  004b8	6a 00		 push	 0
  004ba	8d 93 f4 41 00
	00		 lea	 edx, DWORD PTR [ebx+16884]
  004c0	52		 push	 edx
  004c1	89 47 04	 mov	 DWORD PTR [edi+4], eax
  004c4	8b 44 24 18	 mov	 eax, DWORD PTR _i$[esp+198572]
  004c8	6a 00		 push	 0
  004ca	40		 inc	 eax
  004cb	6a 00		 push	 0
  004cd	89 44 24 20	 mov	 DWORD PTR _i$[esp+198580], eax
  004d1	6a 04		 push	 4
  004d3	6a 04		 push	 4
  004d5	6a 01		 push	 1
  004d7	50		 push	 eax
  004d8	8b ce		 mov	 ecx, esi
  004da	e8 00 00 00 00	 call	 ?BindParameter@CQuery@@QAEHGFFFKFPAXJPAJ@Z ; CQuery::BindParameter
  004df	6a 00		 push	 0
  004e1	6a 00		 push	 0
  004e3	8d 4b 08	 lea	 ecx, DWORD PTR [ebx+8]
  004e6	51		 push	 ecx
  004e7	6a 00		 push	 0
  004e9	6a 00		 push	 0
  004eb	6a 04		 push	 4
  004ed	89 47 08	 mov	 DWORD PTR [edi+8], eax
  004f0	8b 44 24 24	 mov	 eax, DWORD PTR _i$[esp+198584]
  004f4	6a 04		 push	 4
  004f6	40		 inc	 eax
  004f7	6a 01		 push	 1
  004f9	50		 push	 eax
  004fa	8b ce		 mov	 ecx, esi
  004fc	89 44 24 30	 mov	 DWORD PTR _i$[esp+198596], eax
  00500	e8 00 00 00 00	 call	 ?BindParameter@CQuery@@QAEHGFFFKFPAXJPAJ@Z ; CQuery::BindParameter
  00505	6a 00		 push	 0
  00507	6a 00		 push	 0
  00509	8d 53 1c	 lea	 edx, DWORD PTR [ebx+28]
  0050c	52		 push	 edx
  0050d	6a 00		 push	 0
  0050f	6a 00		 push	 0
  00511	6a 07		 push	 7
  00513	89 47 0c	 mov	 DWORD PTR [edi+12], eax
  00516	8b 44 24 24	 mov	 eax, DWORD PTR _i$[esp+198584]
  0051a	6a 07		 push	 7
  0051c	40		 inc	 eax
  0051d	6a 01		 push	 1
  0051f	50		 push	 eax
  00520	8b ce		 mov	 ecx, esi
  00522	89 44 24 30	 mov	 DWORD PTR _i$[esp+198596], eax
  00526	e8 00 00 00 00	 call	 ?BindParameter@CQuery@@QAEHGFFFKFPAXJPAJ@Z ; CQuery::BindParameter
  0052b	6a 00		 push	 0
  0052d	6a 00		 push	 0
  0052f	8d 4b 20	 lea	 ecx, DWORD PTR [ebx+32]
  00532	51		 push	 ecx
  00533	6a 00		 push	 0
  00535	6a 00		 push	 0
  00537	6a 07		 push	 7
  00539	89 47 10	 mov	 DWORD PTR [edi+16], eax
  0053c	8b 44 24 24	 mov	 eax, DWORD PTR _i$[esp+198584]
  00540	6a 07		 push	 7
  00542	40		 inc	 eax
  00543	6a 01		 push	 1
  00545	50		 push	 eax
  00546	8b ce		 mov	 ecx, esi
  00548	89 44 24 30	 mov	 DWORD PTR _i$[esp+198596], eax
  0054c	e8 00 00 00 00	 call	 ?BindParameter@CQuery@@QAEHGFFFKFPAXJPAJ@Z ; CQuery::BindParameter
  00551	6a 00		 push	 0
  00553	6a 00		 push	 0
  00555	8d 53 24	 lea	 edx, DWORD PTR [ebx+36]
  00558	52		 push	 edx
  00559	6a 00		 push	 0
  0055b	6a 00		 push	 0
  0055d	6a 07		 push	 7
  0055f	89 47 14	 mov	 DWORD PTR [edi+20], eax
  00562	8b 44 24 24	 mov	 eax, DWORD PTR _i$[esp+198584]
  00566	6a 07		 push	 7
  00568	40		 inc	 eax
  00569	6a 01		 push	 1
  0056b	50		 push	 eax
  0056c	8b ce		 mov	 ecx, esi
  0056e	89 44 24 30	 mov	 DWORD PTR _i$[esp+198596], eax
  00572	e8 00 00 00 00	 call	 ?BindParameter@CQuery@@QAEHGFFFKFPAXJPAJ@Z ; CQuery::BindParameter
  00577	8d 4c 24 10	 lea	 ecx, DWORD PTR _cbLen$[esp+198560]
  0057b	51		 push	 ecx
  0057c	6a 00		 push	 0
  0057e	8d 53 38	 lea	 edx, DWORD PTR [ebx+56]
  00581	52		 push	 edx
  00582	89 47 18	 mov	 DWORD PTR [edi+24], eax
  00585	8b 44 24 18	 mov	 eax, DWORD PTR _i$[esp+198572]
  00589	6a 00		 push	 0
  0058b	40		 inc	 eax
  0058c	6a 20		 push	 32			; 00000020H
  0058e	89 44 24 20	 mov	 DWORD PTR _i$[esp+198580], eax
  00592	6a 0c		 push	 12			; 0000000cH
  00594	6a 01		 push	 1
  00596	6a 01		 push	 1
  00598	50		 push	 eax
  00599	8b ce		 mov	 ecx, esi
  0059b	e8 00 00 00 00	 call	 ?BindParameter@CQuery@@QAEHGFFFKFPAXJPAJ@Z ; CQuery::BindParameter
  005a0	6a 00		 push	 0
  005a2	6a 00		 push	 0
  005a4	8d 8b a0 00 00
	00		 lea	 ecx, DWORD PTR [ebx+160]
  005aa	51		 push	 ecx
  005ab	6a 00		 push	 0
  005ad	6a 00		 push	 0
  005af	6a 04		 push	 4
  005b1	89 47 1c	 mov	 DWORD PTR [edi+28], eax
  005b4	8b 44 24 24	 mov	 eax, DWORD PTR _i$[esp+198584]
  005b8	6a 04		 push	 4
  005ba	40		 inc	 eax
  005bb	6a 01		 push	 1
  005bd	50		 push	 eax
  005be	8b ce		 mov	 ecx, esi
  005c0	89 44 24 30	 mov	 DWORD PTR _i$[esp+198596], eax
  005c4	e8 00 00 00 00	 call	 ?BindParameter@CQuery@@QAEHGFFFKFPAXJPAJ@Z ; CQuery::BindParameter
  005c9	6a 00		 push	 0
  005cb	6a 00		 push	 0
  005cd	8d 93 a4 00 00
	00		 lea	 edx, DWORD PTR [ebx+164]
  005d3	52		 push	 edx
  005d4	6a 00		 push	 0
  005d6	6a 00		 push	 0
  005d8	6a 04		 push	 4
  005da	89 47 20	 mov	 DWORD PTR [edi+32], eax
  005dd	8b 44 24 24	 mov	 eax, DWORD PTR _i$[esp+198584]
  005e1	6a 04		 push	 4
  005e3	40		 inc	 eax
  005e4	6a 01		 push	 1
  005e6	50		 push	 eax
  005e7	8b ce		 mov	 ecx, esi
  005e9	89 44 24 30	 mov	 DWORD PTR _i$[esp+198596], eax
  005ed	e8 00 00 00 00	 call	 ?BindParameter@CQuery@@QAEHGFFFKFPAXJPAJ@Z ; CQuery::BindParameter
  005f2	6a 00		 push	 0
  005f4	6a 00		 push	 0
  005f6	8d 8b a8 00 00
	00		 lea	 ecx, DWORD PTR [ebx+168]
  005fc	51		 push	 ecx
  005fd	6a 00		 push	 0
  005ff	6a 00		 push	 0
  00601	6a 04		 push	 4
  00603	89 47 24	 mov	 DWORD PTR [edi+36], eax
  00606	8b 44 24 24	 mov	 eax, DWORD PTR _i$[esp+198584]
  0060a	6a 04		 push	 4
  0060c	40		 inc	 eax
  0060d	6a 01		 push	 1
  0060f	50		 push	 eax
  00610	8b ce		 mov	 ecx, esi
  00612	89 44 24 30	 mov	 DWORD PTR _i$[esp+198596], eax
  00616	e8 00 00 00 00	 call	 ?BindParameter@CQuery@@QAEHGFFFKFPAXJPAJ@Z ; CQuery::BindParameter
  0061b	6a 00		 push	 0
  0061d	6a 00		 push	 0
  0061f	8d 93 ac 00 00
	00		 lea	 edx, DWORD PTR [ebx+172]
  00625	52		 push	 edx
  00626	6a 00		 push	 0
  00628	6a 00		 push	 0
  0062a	6a 04		 push	 4
  0062c	89 47 28	 mov	 DWORD PTR [edi+40], eax
  0062f	8b 44 24 24	 mov	 eax, DWORD PTR _i$[esp+198584]
  00633	6a 04		 push	 4
  00635	40		 inc	 eax
  00636	6a 01		 push	 1
  00638	50		 push	 eax
  00639	8b ce		 mov	 ecx, esi
  0063b	89 44 24 30	 mov	 DWORD PTR _i$[esp+198596], eax
  0063f	e8 00 00 00 00	 call	 ?BindParameter@CQuery@@QAEHGFFFKFPAXJPAJ@Z ; CQuery::BindParameter
  00644	6a 00		 push	 0
  00646	6a 00		 push	 0
  00648	8d 8c 24 a0 00
	00 00		 lea	 ecx, DWORD PTR _nSex$[esp+198568]
  0064f	51		 push	 ecx
  00650	6a 00		 push	 0
  00652	89 47 2c	 mov	 DWORD PTR [edi+44], eax
  00655	8b 44 24 1c	 mov	 eax, DWORD PTR _i$[esp+198576]
  00659	6a 00		 push	 0
  0065b	40		 inc	 eax
  0065c	6a 04		 push	 4
  0065e	89 44 24 24	 mov	 DWORD PTR _i$[esp+198584], eax
  00662	6a 04		 push	 4
  00664	6a 01		 push	 1
  00666	50		 push	 eax
  00667	8b ce		 mov	 ecx, esi
  00669	e8 00 00 00 00	 call	 ?BindParameter@CQuery@@QAEHGFFFKFPAXJPAJ@Z ; CQuery::BindParameter
  0066e	6a 00		 push	 0
  00670	6a 00		 push	 0
  00672	8d 53 0c	 lea	 edx, DWORD PTR [ebx+12]
  00675	52		 push	 edx
  00676	6a 00		 push	 0
  00678	6a 00		 push	 0
  0067a	6a 07		 push	 7
  0067c	89 47 30	 mov	 DWORD PTR [edi+48], eax
  0067f	8b 44 24 24	 mov	 eax, DWORD PTR _i$[esp+198584]
  00683	6a 07		 push	 7
  00685	40		 inc	 eax
  00686	6a 01		 push	 1
  00688	50		 push	 eax
  00689	8b ce		 mov	 ecx, esi
  0068b	89 44 24 30	 mov	 DWORD PTR _i$[esp+198596], eax
  0068f	e8 00 00 00 00	 call	 ?BindParameter@CQuery@@QAEHGFFFKFPAXJPAJ@Z ; CQuery::BindParameter
  00694	6a 00		 push	 0
  00696	6a 00		 push	 0
  00698	8d 4b 18	 lea	 ecx, DWORD PTR [ebx+24]
  0069b	51		 push	 ecx
  0069c	6a 00		 push	 0
  0069e	6a 00		 push	 0
  006a0	6a 04		 push	 4
  006a2	89 47 34	 mov	 DWORD PTR [edi+52], eax
  006a5	8b 44 24 24	 mov	 eax, DWORD PTR _i$[esp+198584]
  006a9	6a 04		 push	 4
  006ab	40		 inc	 eax
  006ac	6a 01		 push	 1
  006ae	50		 push	 eax
  006af	8b ce		 mov	 ecx, esi
  006b1	89 44 24 30	 mov	 DWORD PTR _i$[esp+198596], eax
  006b5	e8 00 00 00 00	 call	 ?BindParameter@CQuery@@QAEHGFFFKFPAXJPAJ@Z ; CQuery::BindParameter
  006ba	6a 00		 push	 0
  006bc	6a 00		 push	 0
  006be	8d 53 28	 lea	 edx, DWORD PTR [ebx+40]
  006c1	52		 push	 edx
  006c2	6a 00		 push	 0
  006c4	6a 00		 push	 0
  006c6	6a 07		 push	 7
  006c8	89 47 38	 mov	 DWORD PTR [edi+56], eax
  006cb	8b 44 24 24	 mov	 eax, DWORD PTR _i$[esp+198584]
  006cf	6a 07		 push	 7
  006d1	40		 inc	 eax
  006d2	6a 01		 push	 1
  006d4	50		 push	 eax
  006d5	8b ce		 mov	 ecx, esi
  006d7	89 44 24 30	 mov	 DWORD PTR _i$[esp+198596], eax
  006db	e8 00 00 00 00	 call	 ?BindParameter@CQuery@@QAEHGFFFKFPAXJPAJ@Z ; CQuery::BindParameter
  006e0	6a 00		 push	 0
  006e2	6a 00		 push	 0
  006e4	8d 8b 94 00 00
	00		 lea	 ecx, DWORD PTR [ebx+148]
  006ea	51		 push	 ecx
  006eb	6a 00		 push	 0
  006ed	6a 00		 push	 0
  006ef	6a 04		 push	 4
  006f1	89 47 3c	 mov	 DWORD PTR [edi+60], eax
  006f4	8b 44 24 24	 mov	 eax, DWORD PTR _i$[esp+198584]
  006f8	6a 04		 push	 4
  006fa	40		 inc	 eax
  006fb	6a 01		 push	 1
  006fd	50		 push	 eax
  006fe	8b ce		 mov	 ecx, esi
  00700	89 44 24 30	 mov	 DWORD PTR _i$[esp+198596], eax
  00704	e8 00 00 00 00	 call	 ?BindParameter@CQuery@@QAEHGFFFKFPAXJPAJ@Z ; CQuery::BindParameter
  00709	6a 00		 push	 0
  0070b	6a 00		 push	 0
  0070d	8d 93 98 00 00
	00		 lea	 edx, DWORD PTR [ebx+152]
  00713	52		 push	 edx
  00714	6a 00		 push	 0
  00716	6a 00		 push	 0
  00718	89 47 40	 mov	 DWORD PTR [edi+64], eax
  0071b	8b 44 24 20	 mov	 eax, DWORD PTR _i$[esp+198580]
  0071f	6a 04		 push	 4
  00721	40		 inc	 eax
  00722	6a 04		 push	 4
  00724	89 44 24 28	 mov	 DWORD PTR _i$[esp+198588], eax
  00728	6a 01		 push	 1
  0072a	50		 push	 eax
  0072b	8b ce		 mov	 ecx, esi
  0072d	e8 00 00 00 00	 call	 ?BindParameter@CQuery@@QAEHGFFFKFPAXJPAJ@Z ; CQuery::BindParameter
  00732	6a 00		 push	 0
  00734	6a 00		 push	 0
  00736	8d 8b 9c 00 00
	00		 lea	 ecx, DWORD PTR [ebx+156]
  0073c	51		 push	 ecx
  0073d	6a 00		 push	 0
  0073f	6a 00		 push	 0
  00741	6a 04		 push	 4
  00743	89 47 44	 mov	 DWORD PTR [edi+68], eax
  00746	8b 44 24 24	 mov	 eax, DWORD PTR _i$[esp+198584]
  0074a	6a 04		 push	 4
  0074c	40		 inc	 eax
  0074d	6a 01		 push	 1
  0074f	50		 push	 eax
  00750	8b ce		 mov	 ecx, esi
  00752	89 44 24 30	 mov	 DWORD PTR _i$[esp+198596], eax
  00756	e8 00 00 00 00	 call	 ?BindParameter@CQuery@@QAEHGFFFKFPAXJPAJ@Z ; CQuery::BindParameter
  0075b	6a 00		 push	 0
  0075d	6a 00		 push	 0
  0075f	8d 93 bc 00 00
	00		 lea	 edx, DWORD PTR [ebx+188]
  00765	52		 push	 edx
  00766	6a 00		 push	 0
  00768	6a 00		 push	 0
  0076a	6a 04		 push	 4
  0076c	89 47 48	 mov	 DWORD PTR [edi+72], eax
  0076f	8b 44 24 24	 mov	 eax, DWORD PTR _i$[esp+198584]
  00773	6a 04		 push	 4
  00775	40		 inc	 eax
  00776	6a 01		 push	 1
  00778	50		 push	 eax
  00779	8b ce		 mov	 ecx, esi
  0077b	89 44 24 30	 mov	 DWORD PTR _i$[esp+198596], eax
  0077f	e8 00 00 00 00	 call	 ?BindParameter@CQuery@@QAEHGFFFKFPAXJPAJ@Z ; CQuery::BindParameter
  00784	6a 00		 push	 0
  00786	6a 00		 push	 0
  00788	8d 4c 24 7c	 lea	 ecx, DWORD PTR _dwGold$[esp+198568]
  0078c	51		 push	 ecx
  0078d	6a 00		 push	 0
  0078f	6a 00		 push	 0
  00791	6a 04		 push	 4
  00793	89 47 4c	 mov	 DWORD PTR [edi+76], eax
  00796	8b 44 24 24	 mov	 eax, DWORD PTR _i$[esp+198584]
  0079a	6a 04		 push	 4
  0079c	40		 inc	 eax
  0079d	6a 01		 push	 1
  0079f	50		 push	 eax
  007a0	8b ce		 mov	 ecx, esi
  007a2	89 44 24 30	 mov	 DWORD PTR _i$[esp+198596], eax
  007a6	e8 00 00 00 00	 call	 ?BindParameter@CQuery@@QAEHGFFFKFPAXJPAJ@Z ; CQuery::BindParameter
  007ab	6a 00		 push	 0
  007ad	6a 00		 push	 0
  007af	8d 93 c4 00 00
	00		 lea	 edx, DWORD PTR [ebx+196]
  007b5	52		 push	 edx
  007b6	6a 00		 push	 0
  007b8	6a 00		 push	 0
  007ba	6a 04		 push	 4
  007bc	89 47 50	 mov	 DWORD PTR [edi+80], eax
  007bf	8b 44 24 24	 mov	 eax, DWORD PTR _i$[esp+198584]
  007c3	6a 04		 push	 4
  007c5	40		 inc	 eax
  007c6	6a 01		 push	 1
  007c8	50		 push	 eax
  007c9	8b ce		 mov	 ecx, esi
  007cb	89 44 24 30	 mov	 DWORD PTR _i$[esp+198596], eax
  007cf	e8 00 00 00 00	 call	 ?BindParameter@CQuery@@QAEHGFFFKFPAXJPAJ@Z ; CQuery::BindParameter
  007d4	8d 4c 24 10	 lea	 ecx, DWORD PTR _cbLen$[esp+198560]
  007d8	51		 push	 ecx
  007d9	6a 00		 push	 0
  007db	8d 94 24 6c 4a
	02 00		 lea	 edx, DWORD PTR _cActMover$[esp+198568]
  007e2	52		 push	 edx
  007e3	6a 00		 push	 0
  007e5	6a 32		 push	 50			; 00000032H
  007e7	89 47 54	 mov	 DWORD PTR [edi+84], eax
  007ea	8b 44 24 20	 mov	 eax, DWORD PTR _i$[esp+198580]
  007ee	6a 0c		 push	 12			; 0000000cH
  007f0	40		 inc	 eax
  007f1	6a 01		 push	 1
  007f3	89 44 24 28	 mov	 DWORD PTR _i$[esp+198588], eax
  007f7	6a 01		 push	 1
  007f9	50		 push	 eax
  007fa	8b ce		 mov	 ecx, esi
  007fc	e8 00 00 00 00	 call	 ?BindParameter@CQuery@@QAEHGFFFKFPAXJPAJ@Z ; CQuery::BindParameter
  00801	6a 00		 push	 0
  00803	6a 00		 push	 0
  00805	8d 8b d4 00 00
	00		 lea	 ecx, DWORD PTR [ebx+212]
  0080b	51		 push	 ecx
  0080c	6a 00		 push	 0
  0080e	6a 00		 push	 0
  00810	6a 04		 push	 4
  00812	89 47 58	 mov	 DWORD PTR [edi+88], eax
  00815	8b 44 24 24	 mov	 eax, DWORD PTR _i$[esp+198584]
  00819	6a 04		 push	 4
  0081b	40		 inc	 eax
  0081c	6a 01		 push	 1
  0081e	50		 push	 eax
  0081f	8b ce		 mov	 ecx, esi
  00821	89 44 24 30	 mov	 DWORD PTR _i$[esp+198596], eax
  00825	e8 00 00 00 00	 call	 ?BindParameter@CQuery@@QAEHGFFFKFPAXJPAJ@Z ; CQuery::BindParameter
  0082a	6a 00		 push	 0
  0082c	6a 00		 push	 0
  0082e	8d 93 d8 00 00
	00		 lea	 edx, DWORD PTR [ebx+216]
  00834	52		 push	 edx
  00835	6a 00		 push	 0
  00837	6a 00		 push	 0
  00839	6a 04		 push	 4
  0083b	89 47 5c	 mov	 DWORD PTR [edi+92], eax
  0083e	8b 44 24 24	 mov	 eax, DWORD PTR _i$[esp+198584]
  00842	6a 04		 push	 4
  00844	40		 inc	 eax
  00845	6a 01		 push	 1
  00847	50		 push	 eax
  00848	8b ce		 mov	 ecx, esi
  0084a	89 44 24 30	 mov	 DWORD PTR _i$[esp+198596], eax
  0084e	e8 00 00 00 00	 call	 ?BindParameter@CQuery@@QAEHGFFFKFPAXJPAJ@Z ; CQuery::BindParameter
  00853	6a 00		 push	 0
  00855	6a 00		 push	 0
  00857	8d 8b dc 00 00
	00		 lea	 ecx, DWORD PTR [ebx+220]
  0085d	51		 push	 ecx
  0085e	6a 00		 push	 0
  00860	6a 00		 push	 0
  00862	6a 04		 push	 4
  00864	89 47 60	 mov	 DWORD PTR [edi+96], eax
  00867	8b 44 24 24	 mov	 eax, DWORD PTR _i$[esp+198584]
  0086b	6a 04		 push	 4
  0086d	40		 inc	 eax
  0086e	6a 01		 push	 1
  00870	50		 push	 eax
  00871	8b ce		 mov	 ecx, esi
  00873	89 44 24 30	 mov	 DWORD PTR _i$[esp+198596], eax
  00877	e8 00 00 00 00	 call	 ?BindParameter@CQuery@@QAEHGFFFKFPAXJPAJ@Z ; CQuery::BindParameter
  0087c	6a 00		 push	 0
  0087e	6a 00		 push	 0
  00880	8d 93 e0 00 00
	00		 lea	 edx, DWORD PTR [ebx+224]
  00886	52		 push	 edx
  00887	6a 00		 push	 0
  00889	6a 00		 push	 0
  0088b	6a 04		 push	 4
  0088d	89 47 64	 mov	 DWORD PTR [edi+100], eax
  00890	8b 44 24 24	 mov	 eax, DWORD PTR _i$[esp+198584]
  00894	6a 04		 push	 4
  00896	40		 inc	 eax
  00897	6a 01		 push	 1
  00899	50		 push	 eax
  0089a	8b ce		 mov	 ecx, esi
  0089c	89 44 24 30	 mov	 DWORD PTR _i$[esp+198596], eax
  008a0	e8 00 00 00 00	 call	 ?BindParameter@CQuery@@QAEHGFFFKFPAXJPAJ@Z ; CQuery::BindParameter
  008a5	6a 00		 push	 0
  008a7	6a 00		 push	 0
  008a9	8d 8b e4 00 00
	00		 lea	 ecx, DWORD PTR [ebx+228]
  008af	51		 push	 ecx
  008b0	6a 00		 push	 0
  008b2	6a 00		 push	 0
  008b4	6a 04		 push	 4
  008b6	89 47 68	 mov	 DWORD PTR [edi+104], eax
  008b9	8b 44 24 24	 mov	 eax, DWORD PTR _i$[esp+198584]
  008bd	6a 04		 push	 4
  008bf	40		 inc	 eax
  008c0	6a 01		 push	 1
  008c2	89 44 24 2c	 mov	 DWORD PTR _i$[esp+198592], eax
  008c6	50		 push	 eax
  008c7	8b ce		 mov	 ecx, esi
  008c9	e8 00 00 00 00	 call	 ?BindParameter@CQuery@@QAEHGFFFKFPAXJPAJ@Z ; CQuery::BindParameter
  008ce	6a 00		 push	 0
  008d0	6a 00		 push	 0
  008d2	8d 93 f0 00 00
	00		 lea	 edx, DWORD PTR [ebx+240]
  008d8	52		 push	 edx
  008d9	6a 00		 push	 0
  008db	6a 00		 push	 0
  008dd	6a fb		 push	 -5			; fffffffbH
  008df	89 47 6c	 mov	 DWORD PTR [edi+108], eax
  008e2	8b 44 24 24	 mov	 eax, DWORD PTR _i$[esp+198584]
  008e6	6a e7		 push	 -25			; ffffffe7H
  008e8	40		 inc	 eax
  008e9	6a 01		 push	 1
  008eb	50		 push	 eax
  008ec	8b ce		 mov	 ecx, esi
  008ee	89 44 24 30	 mov	 DWORD PTR _i$[esp+198596], eax
  008f2	e8 00 00 00 00	 call	 ?BindParameter@CQuery@@QAEHGFFFKFPAXJPAJ@Z ; CQuery::BindParameter
  008f7	6a 00		 push	 0
  008f9	6a 00		 push	 0
  008fb	8d 8c 24 a8 00
	00 00		 lea	 ecx, DWORD PTR _nExp2$[esp+198568]
  00902	51		 push	 ecx
  00903	6a 00		 push	 0
  00905	6a 00		 push	 0
  00907	6a fb		 push	 -5			; fffffffbH
  00909	89 47 70	 mov	 DWORD PTR [edi+112], eax
  0090c	8b 44 24 24	 mov	 eax, DWORD PTR _i$[esp+198584]
  00910	6a e7		 push	 -25			; ffffffe7H
  00912	40		 inc	 eax
  00913	6a 01		 push	 1
  00915	50		 push	 eax
  00916	8b ce		 mov	 ecx, esi
  00918	89 44 24 30	 mov	 DWORD PTR _i$[esp+198596], eax
  0091c	e8 00 00 00 00	 call	 ?BindParameter@CQuery@@QAEHGFFFKFPAXJPAJ@Z ; CQuery::BindParameter
  00921	8d 54 24 10	 lea	 edx, DWORD PTR _cbLen$[esp+198560]
  00925	52		 push	 edx
  00926	6a 00		 push	 0
  00928	8d 8c 24 78 57
	02 00		 lea	 ecx, DWORD PTR _JobSkill$[esp+198568]
  0092f	51		 push	 ecx
  00930	6a 00		 push	 0
  00932	68 f4 01 00 00	 push	 500			; 000001f4H
  00937	6a 0c		 push	 12			; 0000000cH
  00939	89 47 74	 mov	 DWORD PTR [edi+116], eax
  0093c	8b 44 24 24	 mov	 eax, DWORD PTR _i$[esp+198584]
  00940	6a 01		 push	 1
  00942	40		 inc	 eax
  00943	6a 01		 push	 1
  00945	50		 push	 eax
  00946	8b ce		 mov	 ecx, esi
  00948	89 44 24 30	 mov	 DWORD PTR _i$[esp+198596], eax
  0094c	e8 00 00 00 00	 call	 ?BindParameter@CQuery@@QAEHGFFFKFPAXJPAJ@Z ; CQuery::BindParameter
  00951	8d 54 24 10	 lea	 edx, DWORD PTR _cbLen$[esp+198560]
  00955	52		 push	 edx
  00956	6a 00		 push	 0
  00958	8d 8c 24 78 5b
	02 00		 lea	 ecx, DWORD PTR _LicenseSkill$[esp+198568]
  0095f	51		 push	 ecx
  00960	6a 00		 push	 0
  00962	68 f4 01 00 00	 push	 500			; 000001f4H
  00967	6a 0c		 push	 12			; 0000000cH
  00969	89 47 78	 mov	 DWORD PTR [edi+120], eax
  0096c	8b 44 24 24	 mov	 eax, DWORD PTR _i$[esp+198584]
  00970	6a 01		 push	 1
  00972	40		 inc	 eax
  00973	6a 01		 push	 1
  00975	50		 push	 eax
  00976	8b ce		 mov	 ecx, esi
  00978	89 44 24 30	 mov	 DWORD PTR _i$[esp+198596], eax
  0097c	e8 00 00 00 00	 call	 ?BindParameter@CQuery@@QAEHGFFFKFPAXJPAJ@Z ; CQuery::BindParameter
  00981	8d 54 24 10	 lea	 edx, DWORD PTR _cbLen$[esp+198560]
  00985	52		 push	 edx
  00986	6a 00		 push	 0
  00988	8d 8c 24 88 4b
	02 00		 lea	 ecx, DWORD PTR _JobLv$[esp+198568]
  0098f	51		 push	 ecx
  00990	6a 00		 push	 0
  00992	89 47 7c	 mov	 DWORD PTR [edi+124], eax
  00995	8b 44 24 1c	 mov	 eax, DWORD PTR _i$[esp+198576]
  00999	68 f4 01 00 00	 push	 500			; 000001f4H
  0099e	40		 inc	 eax
  0099f	6a 0c		 push	 12			; 0000000cH
  009a1	89 44 24 24	 mov	 DWORD PTR _i$[esp+198584], eax
  009a5	6a 01		 push	 1
  009a7	6a 01		 push	 1
  009a9	50		 push	 eax
  009aa	8b ce		 mov	 ecx, esi
  009ac	e8 00 00 00 00	 call	 ?BindParameter@CQuery@@QAEHGFFFKFPAXJPAJ@Z ; CQuery::BindParameter
  009b1	6a 00		 push	 0
  009b3	6a 00		 push	 0
  009b5	8d 94 24 98 00
	00 00		 lea	 edx, DWORD PTR _nExpertLv$[esp+198568]
  009bc	52		 push	 edx
  009bd	6a 00		 push	 0
  009bf	6a 00		 push	 0
  009c1	6a 04		 push	 4
  009c3	89 87 80 00 00
	00		 mov	 DWORD PTR [edi+128], eax
  009c9	8b 44 24 24	 mov	 eax, DWORD PTR _i$[esp+198584]
  009cd	6a 04		 push	 4
  009cf	40		 inc	 eax
  009d0	6a 01		 push	 1
  009d2	50		 push	 eax
  009d3	8b ce		 mov	 ecx, esi
  009d5	89 44 24 30	 mov	 DWORD PTR _i$[esp+198596], eax
  009d9	e8 00 00 00 00	 call	 ?BindParameter@CQuery@@QAEHGFFFKFPAXJPAJ@Z ; CQuery::BindParameter
  009de	6a 00		 push	 0
  009e0	6a 00		 push	 0
  009e2	8d 8b cc 02 00
	00		 lea	 ecx, DWORD PTR [ebx+716]
  009e8	51		 push	 ecx
  009e9	6a 00		 push	 0
  009eb	6a 00		 push	 0
  009ed	6a 04		 push	 4
  009ef	89 87 84 00 00
	00		 mov	 DWORD PTR [edi+132], eax
  009f5	8b 44 24 24	 mov	 eax, DWORD PTR _i$[esp+198584]
  009f9	6a 04		 push	 4
  009fb	40		 inc	 eax
  009fc	6a 01		 push	 1
  009fe	50		 push	 eax
  009ff	8b ce		 mov	 ecx, esi
  00a01	89 44 24 30	 mov	 DWORD PTR _i$[esp+198596], eax
  00a05	e8 00 00 00 00	 call	 ?BindParameter@CQuery@@QAEHGFFFKFPAXJPAJ@Z ; CQuery::BindParameter
  00a0a	6a 00		 push	 0
  00a0c	6a 00		 push	 0
  00a0e	8d 93 d0 02 00
	00		 lea	 edx, DWORD PTR [ebx+720]
  00a14	52		 push	 edx
  00a15	6a 00		 push	 0
  00a17	6a 00		 push	 0
  00a19	6a 07		 push	 7
  00a1b	89 87 88 00 00
	00		 mov	 DWORD PTR [edi+136], eax
  00a21	8b 44 24 24	 mov	 eax, DWORD PTR _i$[esp+198584]
  00a25	6a 07		 push	 7
  00a27	40		 inc	 eax
  00a28	6a 01		 push	 1
  00a2a	50		 push	 eax
  00a2b	8b ce		 mov	 ecx, esi
  00a2d	89 44 24 30	 mov	 DWORD PTR _i$[esp+198596], eax
  00a31	e8 00 00 00 00	 call	 ?BindParameter@CQuery@@QAEHGFFFKFPAXJPAJ@Z ; CQuery::BindParameter
  00a36	6a 00		 push	 0
  00a38	6a 00		 push	 0
  00a3a	8d 8b d4 02 00
	00		 lea	 ecx, DWORD PTR [ebx+724]
  00a40	51		 push	 ecx
  00a41	6a 00		 push	 0
  00a43	6a 00		 push	 0
  00a45	6a 07		 push	 7
  00a47	89 87 8c 00 00
	00		 mov	 DWORD PTR [edi+140], eax
  00a4d	8b 44 24 24	 mov	 eax, DWORD PTR _i$[esp+198584]
  00a51	6a 07		 push	 7
  00a53	40		 inc	 eax
  00a54	6a 01		 push	 1
  00a56	50		 push	 eax
  00a57	8b ce		 mov	 ecx, esi
  00a59	89 44 24 30	 mov	 DWORD PTR _i$[esp+198596], eax
  00a5d	e8 00 00 00 00	 call	 ?BindParameter@CQuery@@QAEHGFFFKFPAXJPAJ@Z ; CQuery::BindParameter
  00a62	6a 00		 push	 0
  00a64	6a 00		 push	 0
  00a66	8d 93 d8 02 00
	00		 lea	 edx, DWORD PTR [ebx+728]
  00a6c	52		 push	 edx
  00a6d	6a 00		 push	 0
  00a6f	6a 00		 push	 0
  00a71	89 87 90 00 00
	00		 mov	 DWORD PTR [edi+144], eax
  00a77	8b 44 24 20	 mov	 eax, DWORD PTR _i$[esp+198580]
  00a7b	6a 07		 push	 7
  00a7d	40		 inc	 eax
  00a7e	6a 07		 push	 7
  00a80	89 44 24 28	 mov	 DWORD PTR _i$[esp+198588], eax
  00a84	6a 01		 push	 1
  00a86	50		 push	 eax
  00a87	8b ce		 mov	 ecx, esi
  00a89	e8 00 00 00 00	 call	 ?BindParameter@CQuery@@QAEHGFFFKFPAXJPAJ@Z ; CQuery::BindParameter
  00a8e	6a 00		 push	 0
  00a90	6a 00		 push	 0
  00a92	8d 8b dc 02 00
	00		 lea	 ecx, DWORD PTR [ebx+732]
  00a98	51		 push	 ecx
  00a99	6a 00		 push	 0
  00a9b	6a 00		 push	 0
  00a9d	6a 04		 push	 4
  00a9f	89 87 94 00 00
	00		 mov	 DWORD PTR [edi+148], eax
  00aa5	8b 44 24 24	 mov	 eax, DWORD PTR _i$[esp+198584]
  00aa9	6a 04		 push	 4
  00aab	40		 inc	 eax
  00aac	6a 01		 push	 1
  00aae	50		 push	 eax
  00aaf	8b ce		 mov	 ecx, esi
  00ab1	89 44 24 30	 mov	 DWORD PTR _i$[esp+198596], eax
  00ab5	e8 00 00 00 00	 call	 ?BindParameter@CQuery@@QAEHGFFFKFPAXJPAJ@Z ; CQuery::BindParameter
  00aba	6a 00		 push	 0
  00abc	6a 00		 push	 0
  00abe	8d 94 24 84 00
	00 00		 lea	 edx, DWORD PTR _nRemainLP$[esp+198568]
  00ac5	52		 push	 edx
  00ac6	6a 00		 push	 0
  00ac8	6a 00		 push	 0
  00aca	6a 04		 push	 4
  00acc	89 87 98 00 00
	00		 mov	 DWORD PTR [edi+152], eax
  00ad2	8b 44 24 24	 mov	 eax, DWORD PTR _i$[esp+198584]
  00ad6	6a 04		 push	 4
  00ad8	40		 inc	 eax
  00ad9	6a 01		 push	 1
  00adb	50		 push	 eax
  00adc	8b ce		 mov	 ecx, esi
  00ade	89 44 24 30	 mov	 DWORD PTR _i$[esp+198596], eax
  00ae2	e8 00 00 00 00	 call	 ?BindParameter@CQuery@@QAEHGFFFKFPAXJPAJ@Z ; CQuery::BindParameter
  00ae7	6a 00		 push	 0
  00ae9	6a 00		 push	 0
  00aeb	8d 8c 24 90 00
	00 00		 lea	 ecx, DWORD PTR _nTutorialState$[esp+198568]
  00af2	51		 push	 ecx
  00af3	6a 00		 push	 0
  00af5	89 87 9c 00 00
	00		 mov	 DWORD PTR [edi+156], eax
  00afb	8b 83 b0 00 00
	00		 mov	 eax, DWORD PTR [ebx+176]
  00b01	6a 00		 push	 0
  00b03	6a 04		 push	 4
  00b05	89 84 24 a0 00
	00 00		 mov	 DWORD PTR _nTutorialState$[esp+198584], eax
  00b0c	8b 44 24 24	 mov	 eax, DWORD PTR _i$[esp+198584]
  00b10	6a 04		 push	 4
  00b12	40		 inc	 eax
  00b13	6a 01		 push	 1
  00b15	50		 push	 eax
  00b16	8b ce		 mov	 ecx, esi
  00b18	89 44 24 30	 mov	 DWORD PTR _i$[esp+198596], eax
  00b1c	e8 00 00 00 00	 call	 ?BindParameter@CQuery@@QAEHGFFFKFPAXJPAJ@Z ; CQuery::BindParameter
  00b21	6a 00		 push	 0
  00b23	6a 00		 push	 0
  00b25	89 87 a0 00 00
	00		 mov	 DWORD PTR [edi+160], eax
  00b2b	8b 4c 24 14	 mov	 ecx, DWORD PTR _i$[esp+198568]
  00b2f	8d 83 b4 00 00
	00		 lea	 eax, DWORD PTR [ebx+180]
  00b35	50		 push	 eax
  00b36	6a 00		 push	 0
  00b38	6a 00		 push	 0
  00b3a	6a 04		 push	 4
  00b3c	6a 04		 push	 4
  00b3e	41		 inc	 ecx
  00b3f	6a 01		 push	 1
  00b41	89 4c 24 2c	 mov	 DWORD PTR _i$[esp+198592], ecx
  00b45	51		 push	 ecx
  00b46	8b ce		 mov	 ecx, esi
  00b48	e8 00 00 00 00	 call	 ?BindParameter@CQuery@@QAEHGFFFKFPAXJPAJ@Z ; CQuery::BindParameter
  00b4d	6a 00		 push	 0
  00b4f	6a 00		 push	 0
  00b51	89 87 a4 00 00
	00		 mov	 DWORD PTR [edi+164], eax
  00b57	8b 4c 24 14	 mov	 ecx, DWORD PTR _i$[esp+198568]
  00b5b	8d 83 b4 00 00
	00		 lea	 eax, DWORD PTR [ebx+180]
  00b61	50		 push	 eax
  00b62	6a 00		 push	 0
  00b64	6a 00		 push	 0
  00b66	41		 inc	 ecx
  00b67	6a 04		 push	 4
  00b69	89 4c 24 24	 mov	 DWORD PTR _i$[esp+198584], ecx
  00b6d	6a 04		 push	 4
  00b6f	6a 01		 push	 1
  00b71	51		 push	 ecx
  00b72	8b ce		 mov	 ecx, esi
  00b74	e8 00 00 00 00	 call	 ?BindParameter@CQuery@@QAEHGFFFKFPAXJPAJ@Z ; CQuery::BindParameter
  00b79	8d 54 24 10	 lea	 edx, DWORD PTR _cbLen$[esp+198560]
  00b7d	52		 push	 edx
  00b7e	6a 00		 push	 0
  00b80	8d 8c 24 78 6b
	02 00		 lea	 ecx, DWORD PTR _QuestCnt$[esp+198568]
  00b87	51		 push	 ecx
  00b88	6a 00		 push	 0
  00b8a	68 00 0c 00 00	 push	 3072			; 00000c00H
  00b8f	6a 0c		 push	 12			; 0000000cH
  00b91	89 87 a8 00 00
	00		 mov	 DWORD PTR [edi+168], eax
  00b97	8b 44 24 24	 mov	 eax, DWORD PTR _i$[esp+198584]
  00b9b	6a 01		 push	 1
  00b9d	40		 inc	 eax
  00b9e	6a 01		 push	 1
  00ba0	50		 push	 eax
  00ba1	8b ce		 mov	 ecx, esi
  00ba3	89 44 24 30	 mov	 DWORD PTR _i$[esp+198596], eax
  00ba7	e8 00 00 00 00	 call	 ?BindParameter@CQuery@@QAEHGFFFKFPAXJPAJ@Z ; CQuery::BindParameter
  00bac	6a 00		 push	 0
  00bae	6a 00		 push	 0
  00bb0	8d 54 24 64	 lea	 edx, DWORD PTR _szAuthority$[esp+198568]
  00bb4	52		 push	 edx
  00bb5	6a 00		 push	 0
  00bb7	6a 01		 push	 1
  00bb9	6a 01		 push	 1
  00bbb	89 87 ac 00 00
	00		 mov	 DWORD PTR [edi+172], eax
  00bc1	8b 44 24 24	 mov	 eax, DWORD PTR _i$[esp+198584]
  00bc5	6a 01		 push	 1
  00bc7	40		 inc	 eax
  00bc8	6a 01		 push	 1
  00bca	50		 push	 eax
  00bcb	8b ce		 mov	 ecx, esi
  00bcd	89 44 24 30	 mov	 DWORD PTR _i$[esp+198596], eax
  00bd1	e8 00 00 00 00	 call	 ?BindParameter@CQuery@@QAEHGFFFKFPAXJPAJ@Z ; CQuery::BindParameter
  00bd6	6a 00		 push	 0
  00bd8	6a 00		 push	 0
  00bda	8d 8b e4 02 00
	00		 lea	 ecx, DWORD PTR [ebx+740]
  00be0	51		 push	 ecx
  00be1	6a 00		 push	 0
  00be3	6a 00		 push	 0
  00be5	6a 04		 push	 4
  00be7	89 87 b0 00 00
	00		 mov	 DWORD PTR [edi+176], eax
  00bed	8b 44 24 24	 mov	 eax, DWORD PTR _i$[esp+198584]
  00bf1	6a 04		 push	 4
  00bf3	40		 inc	 eax
  00bf4	6a 01		 push	 1
  00bf6	50		 push	 eax
  00bf7	8b ce		 mov	 ecx, esi
  00bf9	89 44 24 30	 mov	 DWORD PTR _i$[esp+198596], eax
  00bfd	e8 00 00 00 00	 call	 ?BindParameter@CQuery@@QAEHGFFFKFPAXJPAJ@Z ; CQuery::BindParameter
  00c02	6a 00		 push	 0
  00c04	6a 00		 push	 0
  00c06	8d 93 c8 40 00
	00		 lea	 edx, DWORD PTR [ebx+16584]
  00c0c	52		 push	 edx
  00c0d	6a 00		 push	 0
  00c0f	6a 00		 push	 0
  00c11	6a 04		 push	 4
  00c13	89 87 b4 00 00
	00		 mov	 DWORD PTR [edi+180], eax
  00c19	8b 44 24 24	 mov	 eax, DWORD PTR _i$[esp+198584]
  00c1d	6a 04		 push	 4
  00c1f	40		 inc	 eax
  00c20	6a 01		 push	 1
  00c22	50		 push	 eax
  00c23	8b ce		 mov	 ecx, esi
  00c25	89 44 24 30	 mov	 DWORD PTR _i$[esp+198596], eax
  00c29	e8 00 00 00 00	 call	 ?BindParameter@CQuery@@QAEHGFFFKFPAXJPAJ@Z ; CQuery::BindParameter
  00c2e	6a 00		 push	 0
  00c30	6a 00		 push	 0
  00c32	8d 8b f8 40 00
	00		 lea	 ecx, DWORD PTR [ebx+16632]
  00c38	51		 push	 ecx
  00c39	6a 00		 push	 0
  00c3b	89 87 b8 00 00
	00		 mov	 DWORD PTR [edi+184], eax
  00c41	8b 44 24 1c	 mov	 eax, DWORD PTR _i$[esp+198576]
  00c45	6a 00		 push	 0
  00c47	40		 inc	 eax
  00c48	6a 04		 push	 4
  00c4a	89 44 24 24	 mov	 DWORD PTR _i$[esp+198584], eax
  00c4e	6a 04		 push	 4
  00c50	6a 01		 push	 1
  00c52	50		 push	 eax
  00c53	8b ce		 mov	 ecx, esi
  00c55	e8 00 00 00 00	 call	 ?BindParameter@CQuery@@QAEHGFFFKFPAXJPAJ@Z ; CQuery::BindParameter
  00c5a	6a 00		 push	 0
  00c5c	6a 00		 push	 0
  00c5e	8d 93 f4 40 00
	00		 lea	 edx, DWORD PTR [ebx+16628]
  00c64	52		 push	 edx
  00c65	6a 00		 push	 0
  00c67	6a 00		 push	 0
  00c69	6a 04		 push	 4
  00c6b	89 87 bc 00 00
	00		 mov	 DWORD PTR [edi+188], eax
  00c71	8b 44 24 24	 mov	 eax, DWORD PTR _i$[esp+198584]
  00c75	6a 04		 push	 4
  00c77	40		 inc	 eax
  00c78	6a 01		 push	 1
  00c7a	50		 push	 eax
  00c7b	8b ce		 mov	 ecx, esi
  00c7d	89 44 24 30	 mov	 DWORD PTR _i$[esp+198596], eax
  00c81	e8 00 00 00 00	 call	 ?BindParameter@CQuery@@QAEHGFFFKFPAXJPAJ@Z ; CQuery::BindParameter
  00c86	6a 00		 push	 0
  00c88	6a 00		 push	 0
  00c8a	8d 8b f8 00 00
	00		 lea	 ecx, DWORD PTR [ebx+248]
  00c90	51		 push	 ecx
  00c91	6a 00		 push	 0
  00c93	6a 00		 push	 0
  00c95	6a fb		 push	 -5			; fffffffbH
  00c97	89 87 c0 00 00
	00		 mov	 DWORD PTR [edi+192], eax
  00c9d	8b 44 24 24	 mov	 eax, DWORD PTR _i$[esp+198584]
  00ca1	6a e7		 push	 -25			; ffffffe7H
  00ca3	40		 inc	 eax
  00ca4	6a 01		 push	 1
  00ca6	50		 push	 eax
  00ca7	8b ce		 mov	 ecx, esi
  00ca9	89 44 24 30	 mov	 DWORD PTR _i$[esp+198596], eax
  00cad	e8 00 00 00 00	 call	 ?BindParameter@CQuery@@QAEHGFFFKFPAXJPAJ@Z ; CQuery::BindParameter
  00cb2	6a 00		 push	 0
  00cb4	6a 00		 push	 0
  00cb6	8d 93 e8 00 00
	00		 lea	 edx, DWORD PTR [ebx+232]
  00cbc	52		 push	 edx
  00cbd	6a 00		 push	 0
  00cbf	6a 00		 push	 0
  00cc1	6a 04		 push	 4
  00cc3	89 87 c4 00 00
	00		 mov	 DWORD PTR [edi+196], eax
  00cc9	8b 44 24 24	 mov	 eax, DWORD PTR _i$[esp+198584]
  00ccd	6a 04		 push	 4
  00ccf	40		 inc	 eax
  00cd0	6a 01		 push	 1
  00cd2	50		 push	 eax
  00cd3	8b ce		 mov	 ecx, esi
  00cd5	89 44 24 30	 mov	 DWORD PTR _i$[esp+198596], eax
  00cd9	e8 00 00 00 00	 call	 ?BindParameter@CQuery@@QAEHGFFFKFPAXJPAJ@Z ; CQuery::BindParameter
  00cde	6a 00		 push	 0
  00ce0	6a 00		 push	 0
  00ce2	8d 8b f0 41 00
	00		 lea	 ecx, DWORD PTR [ebx+16880]
  00ce8	51		 push	 ecx
  00ce9	6a 00		 push	 0
  00ceb	6a 00		 push	 0
  00ced	6a 04		 push	 4
  00cef	89 87 c8 00 00
	00		 mov	 DWORD PTR [edi+200], eax
  00cf5	8b 44 24 24	 mov	 eax, DWORD PTR _i$[esp+198584]
  00cf9	6a 04		 push	 4
  00cfb	40		 inc	 eax
  00cfc	6a 01		 push	 1
  00cfe	50		 push	 eax
  00cff	8b ce		 mov	 ecx, esi
  00d01	89 44 24 30	 mov	 DWORD PTR _i$[esp+198596], eax
  00d05	e8 00 00 00 00	 call	 ?BindParameter@CQuery@@QAEHGFFFKFPAXJPAJ@Z ; CQuery::BindParameter
  00d0a	6a 00		 push	 0
  00d0c	6a 00		 push	 0
  00d0e	89 87 cc 00 00
	00		 mov	 DWORD PTR [edi+204], eax
  00d14	8b 44 24 14	 mov	 eax, DWORD PTR _i$[esp+198568]
  00d18	8b 93 c4 40 00
	00		 mov	 edx, DWORD PTR [ebx+16580]
  00d1e	8d 8c 24 8c 00
	00 00		 lea	 ecx, DWORD PTR _dwState$[esp+198568]
  00d25	51		 push	 ecx
  00d26	6a 00		 push	 0
  00d28	40		 inc	 eax
  00d29	6a 00		 push	 0
  00d2b	89 94 24 98 00
	00 00		 mov	 DWORD PTR _dwState$[esp+198580], edx
  00d32	89 44 24 20	 mov	 DWORD PTR _i$[esp+198580], eax
  00d36	6a 04		 push	 4
  00d38	6a 04		 push	 4
  00d3a	6a 01		 push	 1
  00d3c	50		 push	 eax
  00d3d	8b ce		 mov	 ecx, esi
  00d3f	e8 00 00 00 00	 call	 ?BindParameter@CQuery@@QAEHGFFFKFPAXJPAJ@Z ; CQuery::BindParameter
  00d44	6a 00		 push	 0
  00d46	6a 00		 push	 0
  00d48	8d 94 24 94 00
	00 00		 lea	 edx, DWORD PTR _nTotalPlayTime$[esp+198568]
  00d4f	52		 push	 edx
  00d50	6a 00		 push	 0
  00d52	6a 00		 push	 0
  00d54	6a 04		 push	 4
  00d56	89 87 d0 00 00
	00		 mov	 DWORD PTR [edi+208], eax
  00d5c	8b 44 24 24	 mov	 eax, DWORD PTR _i$[esp+198584]
  00d60	6a 04		 push	 4
  00d62	40		 inc	 eax
  00d63	6a 01		 push	 1
  00d65	50		 push	 eax
  00d66	8b ce		 mov	 ecx, esi
  00d68	89 44 24 30	 mov	 DWORD PTR _i$[esp+198596], eax
  00d6c	e8 00 00 00 00	 call	 ?BindParameter@CQuery@@QAEHGFFFKFPAXJPAJ@Z ; CQuery::BindParameter
  00d71	6a 00		 push	 0
  00d73	6a 00		 push	 0
  00d75	8d 8b d8 40 00
	00		 lea	 ecx, DWORD PTR [ebx+16600]
  00d7b	51		 push	 ecx
  00d7c	6a 00		 push	 0
  00d7e	6a 00		 push	 0
  00d80	6a 04		 push	 4
  00d82	89 87 d4 00 00
	00		 mov	 DWORD PTR [edi+212], eax
  00d88	8b 44 24 24	 mov	 eax, DWORD PTR _i$[esp+198584]
  00d8c	6a 04		 push	 4
  00d8e	40		 inc	 eax
  00d8f	6a 01		 push	 1
  00d91	50		 push	 eax
  00d92	8b ce		 mov	 ecx, esi
  00d94	89 44 24 30	 mov	 DWORD PTR _i$[esp+198596], eax
  00d98	e8 00 00 00 00	 call	 ?BindParameter@CQuery@@QAEHGFFFKFPAXJPAJ@Z ; CQuery::BindParameter
  00d9d	6a 00		 push	 0
  00d9f	6a 00		 push	 0
  00da1	8d 93 dc 40 00
	00		 lea	 edx, DWORD PTR [ebx+16604]
  00da7	52		 push	 edx
  00da8	6a 00		 push	 0
  00daa	6a 00		 push	 0
  00dac	6a 04		 push	 4
  00dae	89 87 d8 00 00
	00		 mov	 DWORD PTR [edi+216], eax
  00db4	8b 44 24 24	 mov	 eax, DWORD PTR _i$[esp+198584]
  00db8	6a 04		 push	 4
  00dba	40		 inc	 eax
  00dbb	6a 01		 push	 1
  00dbd	50		 push	 eax
  00dbe	8b ce		 mov	 ecx, esi
  00dc0	89 44 24 30	 mov	 DWORD PTR _i$[esp+198596], eax
  00dc4	e8 00 00 00 00	 call	 ?BindParameter@CQuery@@QAEHGFFFKFPAXJPAJ@Z ; CQuery::BindParameter
  00dc9	6a 00		 push	 0
  00dcb	6a 00		 push	 0
  00dcd	8d 8b e0 40 00
	00		 lea	 ecx, DWORD PTR [ebx+16608]
  00dd3	51		 push	 ecx
  00dd4	6a 00		 push	 0
  00dd6	6a 00		 push	 0
  00dd8	6a 04		 push	 4
  00dda	89 87 dc 00 00
	00		 mov	 DWORD PTR [edi+220], eax
  00de0	8b 44 24 24	 mov	 eax, DWORD PTR _i$[esp+198584]
  00de4	6a 04		 push	 4
  00de6	40		 inc	 eax
  00de7	6a 01		 push	 1
  00de9	50		 push	 eax
  00dea	8b ce		 mov	 ecx, esi
  00dec	89 44 24 30	 mov	 DWORD PTR _i$[esp+198596], eax
  00df0	e8 00 00 00 00	 call	 ?BindParameter@CQuery@@QAEHGFFFKFPAXJPAJ@Z ; CQuery::BindParameter
  00df5	8d 54 24 10	 lea	 edx, DWORD PTR _cbLen$[esp+198560]
  00df9	52		 push	 edx
  00dfa	6a 00		 push	 0
  00dfc	8d 4c 24 5c	 lea	 ecx, DWORD PTR _Card$[esp+198568]
  00e00	51		 push	 ecx
  00e01	89 87 e0 00 00
	00		 mov	 DWORD PTR [edi+224], eax
  00e07	8b 44 24 18	 mov	 eax, DWORD PTR _i$[esp+198572]
  00e0b	6a 00		 push	 0
  00e0d	40		 inc	 eax
  00e0e	68 bc 07 00 00	 push	 1980			; 000007bcH
  00e13	89 44 24 20	 mov	 DWORD PTR _i$[esp+198580], eax
  00e17	6a 0c		 push	 12			; 0000000cH
  00e19	6a 01		 push	 1
  00e1b	6a 01		 push	 1
  00e1d	50		 push	 eax
  00e1e	8b ce		 mov	 ecx, esi
  00e20	e8 00 00 00 00	 call	 ?BindParameter@CQuery@@QAEHGFFFKFPAXJPAJ@Z ; CQuery::BindParameter
  00e25	8d 54 24 10	 lea	 edx, DWORD PTR _cbLen$[esp+198560]
  00e29	52		 push	 edx
  00e2a	6a 00		 push	 0
  00e2c	8d 4c 24 58	 lea	 ecx, DWORD PTR _sCardIndex$[esp+198568]
  00e30	51		 push	 ecx
  00e31	6a 00		 push	 0
  00e33	68 d7 00 00 00	 push	 215			; 000000d7H
  00e38	6a 0c		 push	 12			; 0000000cH
  00e3a	89 87 e4 00 00
	00		 mov	 DWORD PTR [edi+228], eax
  00e40	8b 44 24 24	 mov	 eax, DWORD PTR _i$[esp+198584]
  00e44	6a 01		 push	 1
  00e46	40		 inc	 eax
  00e47	6a 01		 push	 1
  00e49	50		 push	 eax
  00e4a	8b ce		 mov	 ecx, esi
  00e4c	89 44 24 30	 mov	 DWORD PTR _i$[esp+198596], eax
  00e50	e8 00 00 00 00	 call	 ?BindParameter@CQuery@@QAEHGFFFKFPAXJPAJ@Z ; CQuery::BindParameter
  00e55	8d 54 24 10	 lea	 edx, DWORD PTR _cbLen$[esp+198560]
  00e59	52		 push	 edx
  00e5a	6a 00		 push	 0
  00e5c	8d 4c 24 68	 lea	 ecx, DWORD PTR _sCardObjIndex$[esp+198568]
  00e60	51		 push	 ecx
  00e61	6a 00		 push	 0
  00e63	68 d7 00 00 00	 push	 215			; 000000d7H
  00e68	6a 0c		 push	 12			; 0000000cH
  00e6a	89 87 e8 00 00
	00		 mov	 DWORD PTR [edi+232], eax
  00e70	8b 44 24 24	 mov	 eax, DWORD PTR _i$[esp+198584]
  00e74	6a 01		 push	 1
  00e76	40		 inc	 eax
  00e77	6a 01		 push	 1
  00e79	50		 push	 eax
  00e7a	8b ce		 mov	 ecx, esi
  00e7c	89 44 24 30	 mov	 DWORD PTR _i$[esp+198596], eax
  00e80	e8 00 00 00 00	 call	 ?BindParameter@CQuery@@QAEHGFFFKFPAXJPAJ@Z ; CQuery::BindParameter
  00e85	8d 54 24 10	 lea	 edx, DWORD PTR _cbLen$[esp+198560]
  00e89	52		 push	 edx
  00e8a	6a 00		 push	 0
  00e8c	8d 4c 24 60	 lea	 ecx, DWORD PTR _Cube$[esp+198568]
  00e90	51		 push	 ecx
  00e91	6a 00		 push	 0
  00e93	68 bc 07 00 00	 push	 1980			; 000007bcH
  00e98	6a 0c		 push	 12			; 0000000cH
  00e9a	89 87 ec 00 00
	00		 mov	 DWORD PTR [edi+236], eax
  00ea0	8b 44 24 24	 mov	 eax, DWORD PTR _i$[esp+198584]
  00ea4	6a 01		 push	 1
  00ea6	40		 inc	 eax
  00ea7	6a 01		 push	 1
  00ea9	50		 push	 eax
  00eaa	8b ce		 mov	 ecx, esi
  00eac	89 44 24 30	 mov	 DWORD PTR _i$[esp+198596], eax
  00eb0	e8 00 00 00 00	 call	 ?BindParameter@CQuery@@QAEHGFFFKFPAXJPAJ@Z ; CQuery::BindParameter
  00eb5	8d 54 24 10	 lea	 edx, DWORD PTR _cbLen$[esp+198560]
  00eb9	52		 push	 edx
  00eba	6a 00		 push	 0
  00ebc	8d 4c 24 54	 lea	 ecx, DWORD PTR _sCubeIndex$[esp+198568]
  00ec0	51		 push	 ecx
  00ec1	6a 00		 push	 0
  00ec3	68 d7 00 00 00	 push	 215			; 000000d7H
  00ec8	6a 0c		 push	 12			; 0000000cH
  00eca	89 87 f0 00 00
	00		 mov	 DWORD PTR [edi+240], eax
  00ed0	8b 44 24 24	 mov	 eax, DWORD PTR _i$[esp+198584]
  00ed4	6a 01		 push	 1
  00ed6	40		 inc	 eax
  00ed7	6a 01		 push	 1
  00ed9	50		 push	 eax
  00eda	8b ce		 mov	 ecx, esi
  00edc	89 44 24 30	 mov	 DWORD PTR _i$[esp+198596], eax
  00ee0	e8 00 00 00 00	 call	 ?BindParameter@CQuery@@QAEHGFFFKFPAXJPAJ@Z ; CQuery::BindParameter
  00ee5	89 87 f4 00 00
	00		 mov	 DWORD PTR [edi+244], eax
  00eeb	8b 44 24 0c	 mov	 eax, DWORD PTR _i$[esp+198560]
  00eef	8d 54 24 10	 lea	 edx, DWORD PTR _cbLen$[esp+198560]
  00ef3	40		 inc	 eax
  00ef4	52		 push	 edx
  00ef5	89 44 24 10	 mov	 DWORD PTR _i$[esp+198564], eax
  00ef9	6a 00		 push	 0
  00efb	8d 4c 24 50	 lea	 ecx, DWORD PTR _sCubeObjIndex$[esp+198568]
  00eff	51		 push	 ecx
  00f00	6a 00		 push	 0
  00f02	68 d7 00 00 00	 push	 215			; 000000d7H
  00f07	6a 0c		 push	 12			; 0000000cH
  00f09	6a 01		 push	 1
  00f0b	6a 01		 push	 1
  00f0d	50		 push	 eax
  00f0e	8b ce		 mov	 ecx, esi
  00f10	e8 00 00 00 00	 call	 ?BindParameter@CQuery@@QAEHGFFFKFPAXJPAJ@Z ; CQuery::BindParameter
  00f15	8d 54 24 10	 lea	 edx, DWORD PTR _cbLen$[esp+198560]
  00f19	52		 push	 edx
  00f1a	6a 00		 push	 0
  00f1c	8d 8c 24 b8 00
	00 00		 lea	 ecx, DWORD PTR _icsInventory$[esp+198568]
  00f23	51		 push	 ecx
  00f24	6a 00		 push	 0
  00f26	68 1c 1b 00 00	 push	 6940			; 00001b1cH
  00f2b	6a 0c		 push	 12			; 0000000cH
  00f2d	89 87 f8 00 00
	00		 mov	 DWORD PTR [edi+248], eax
  00f33	8b 44 24 24	 mov	 eax, DWORD PTR _i$[esp+198584]
  00f37	6a 01		 push	 1
  00f39	40		 inc	 eax
  00f3a	6a 01		 push	 1
  00f3c	50		 push	 eax
  00f3d	8b ce		 mov	 ecx, esi
  00f3f	89 44 24 30	 mov	 DWORD PTR _i$[esp+198596], eax
  00f43	e8 00 00 00 00	 call	 ?BindParameter@CQuery@@QAEHGFFFKFPAXJPAJ@Z ; CQuery::BindParameter
  00f48	8d 54 24 10	 lea	 edx, DWORD PTR _cbLen$[esp+198560]
  00f4c	52		 push	 edx
  00f4d	6a 00		 push	 0
  00f4f	8d 8c 24 b8 18
	00 00		 lea	 ecx, DWORD PTR _icsInventory$[esp+204712]
  00f56	51		 push	 ecx
  00f57	6a 00		 push	 0
  00f59	68 59 01 00 00	 push	 345			; 00000159H
  00f5e	6a 0c		 push	 12			; 0000000cH
  00f60	89 87 fc 00 00
	00		 mov	 DWORD PTR [edi+252], eax
  00f66	8b 44 24 24	 mov	 eax, DWORD PTR _i$[esp+198584]
  00f6a	6a 01		 push	 1
  00f6c	40		 inc	 eax
  00f6d	6a 01		 push	 1
  00f6f	50		 push	 eax
  00f70	8b ce		 mov	 ecx, esi
  00f72	89 44 24 30	 mov	 DWORD PTR _i$[esp+198596], eax
  00f76	e8 00 00 00 00	 call	 ?BindParameter@CQuery@@QAEHGFFFKFPAXJPAJ@Z ; CQuery::BindParameter
  00f7b	8d 54 24 10	 lea	 edx, DWORD PTR _cbLen$[esp+198560]
  00f7f	52		 push	 edx
  00f80	6a 00		 push	 0
  00f82	8d 8c 24 80 4d
	02 00		 lea	 ecx, DWORD PTR _Equipment$[esp+198568]
  00f89	51		 push	 ecx
  00f8a	6a 00		 push	 0
  00f8c	68 87 00 00 00	 push	 135			; 00000087H
  00f91	6a 0c		 push	 12			; 0000000cH
  00f93	89 87 00 01 00
	00		 mov	 DWORD PTR [edi+256], eax
  00f99	8b 44 24 24	 mov	 eax, DWORD PTR _i$[esp+198584]
  00f9d	6a 01		 push	 1
  00f9f	40		 inc	 eax
  00fa0	6a 01		 push	 1
  00fa2	50		 push	 eax
  00fa3	8b ce		 mov	 ecx, esi
  00fa5	89 44 24 30	 mov	 DWORD PTR _i$[esp+198596], eax
  00fa9	e8 00 00 00 00	 call	 ?BindParameter@CQuery@@QAEHGFFFKFPAXJPAJ@Z ; CQuery::BindParameter
  00fae	8d 54 24 10	 lea	 edx, DWORD PTR _cbLen$[esp+198560]
  00fb2	52		 push	 edx
  00fb3	6a 00		 push	 0
  00fb5	8d 8c 24 b8 1a
	00 00		 lea	 ecx, DWORD PTR _icsInventory$[esp+205224]
  00fbc	51		 push	 ecx
  00fbd	6a 00		 push	 0
  00fbf	68 59 01 00 00	 push	 345			; 00000159H
  00fc4	6a 0c		 push	 12			; 0000000cH
  00fc6	89 87 04 01 00
	00		 mov	 DWORD PTR [edi+260], eax
  00fcc	8b 44 24 24	 mov	 eax, DWORD PTR _i$[esp+198584]
  00fd0	6a 01		 push	 1
  00fd2	40		 inc	 eax
  00fd3	6a 01		 push	 1
  00fd5	50		 push	 eax
  00fd6	8b ce		 mov	 ecx, esi
  00fd8	89 44 24 30	 mov	 DWORD PTR _i$[esp+198596], eax
  00fdc	e8 00 00 00 00	 call	 ?BindParameter@CQuery@@QAEHGFFFKFPAXJPAJ@Z ; CQuery::BindParameter
  00fe1	89 87 08 01 00
	00		 mov	 DWORD PTR [edi+264], eax
  00fe7	8b 44 24 0c	 mov	 eax, DWORD PTR _i$[esp+198560]
  00feb	40		 inc	 eax
  00fec	89 44 24 0c	 mov	 DWORD PTR _i$[esp+198560], eax
  00ff0	8d 54 24 10	 lea	 edx, DWORD PTR _cbLen$[esp+198560]
  00ff4	52		 push	 edx
  00ff5	6a 00		 push	 0
  00ff7	8d 8c 24 38 d5
	02 00		 lea	 ecx, DWORD PTR _AppletTaskBar$[esp+198568]
  00ffe	51		 push	 ecx
  00fff	6a 00		 push	 0
  01001	68 1c 0c 00 00	 push	 3100			; 00000c1cH
  01006	6a 0c		 push	 12			; 0000000cH
  01008	6a 01		 push	 1
  0100a	6a 01		 push	 1
  0100c	50		 push	 eax
  0100d	8b ce		 mov	 ecx, esi
  0100f	e8 00 00 00 00	 call	 ?BindParameter@CQuery@@QAEHGFFFKFPAXJPAJ@Z ; CQuery::BindParameter
  01014	8d 54 24 10	 lea	 edx, DWORD PTR _cbLen$[esp+198560]
  01018	52		 push	 edx
  01019	6a 00		 push	 0
  0101b	8d 8c 24 78 77
	02 00		 lea	 ecx, DWORD PTR _ItemTaskBar$[esp+198568]
  01022	51		 push	 ecx
  01023	6a 00		 push	 0
  01025	68 e5 1a 00 00	 push	 6885			; 00001ae5H
  0102a	6a 0c		 push	 12			; 0000000cH
  0102c	89 87 0c 01 00
	00		 mov	 DWORD PTR [edi+268], eax
  01032	8b 44 24 24	 mov	 eax, DWORD PTR _i$[esp+198584]
  01036	6a 01		 push	 1
  01038	40		 inc	 eax
  01039	6a 01		 push	 1
  0103b	50		 push	 eax
  0103c	8b ce		 mov	 ecx, esi
  0103e	89 44 24 30	 mov	 DWORD PTR _i$[esp+198596], eax
  01042	e8 00 00 00 00	 call	 ?BindParameter@CQuery@@QAEHGFFFKFPAXJPAJ@Z ; CQuery::BindParameter
  01047	8d 54 24 10	 lea	 edx, DWORD PTR _cbLen$[esp+198560]
  0104b	52		 push	 edx
  0104c	6a 00		 push	 0
  0104e	8d 8c 24 78 53
	02 00		 lea	 ecx, DWORD PTR _SkillTaskBar$[esp+198568]
  01055	51		 push	 ecx
  01056	6a 00		 push	 0
  01058	68 e1 00 00 00	 push	 225			; 000000e1H
  0105d	6a 0c		 push	 12			; 0000000cH
  0105f	89 87 10 01 00
	00		 mov	 DWORD PTR [edi+272], eax
  01065	8b 44 24 24	 mov	 eax, DWORD PTR _i$[esp+198584]
  01069	6a 01		 push	 1
  0106b	40		 inc	 eax
  0106c	6a 01		 push	 1
  0106e	50		 push	 eax
  0106f	8b ce		 mov	 ecx, esi
  01071	89 44 24 30	 mov	 DWORD PTR _i$[esp+198596], eax
  01075	e8 00 00 00 00	 call	 ?BindParameter@CQuery@@QAEHGFFFKFPAXJPAJ@Z ; CQuery::BindParameter
  0107a	6a 00		 push	 0
  0107c	6a 00		 push	 0
  0107e	8d 93 ac 40 00
	00		 lea	 edx, DWORD PTR [ebx+16556]
  01084	52		 push	 edx
  01085	6a 00		 push	 0
  01087	6a 00		 push	 0
  01089	6a 05		 push	 5
  0108b	89 87 14 01 00
	00		 mov	 DWORD PTR [edi+276], eax
  01091	8b 44 24 24	 mov	 eax, DWORD PTR _i$[esp+198584]
  01095	6a 05		 push	 5
  01097	40		 inc	 eax
  01098	6a 01		 push	 1
  0109a	50		 push	 eax
  0109b	8b ce		 mov	 ecx, esi
  0109d	89 44 24 30	 mov	 DWORD PTR _i$[esp+198596], eax
  010a1	e8 00 00 00 00	 call	 ?BindParameter@CQuery@@QAEHGFFFKFPAXJPAJ@Z ; CQuery::BindParameter
  010a6	89 87 18 01 00
	00		 mov	 DWORD PTR [edi+280], eax
  010ac	8b 44 24 0c	 mov	 eax, DWORD PTR _i$[esp+198560]
  010b0	0f b6 93 c8 00
	00 00		 movzx	 edx, BYTE PTR [ebx+200]
  010b7	40		 inc	 eax
  010b8	69 d2 a8 53 00
	00		 imul	 edx, 21416		; 000053a8H
  010be	8d 4c 24 10	 lea	 ecx, DWORD PTR _cbLen$[esp+198560]
  010c2	51		 push	 ecx
  010c3	6a 00		 push	 0
  010c5	8d 8c 14 70 4f
	01 00		 lea	 ecx, DWORD PTR _icsBank$[esp+edx+198568]
  010cc	51		 push	 ecx
  010cd	6a 00		 push	 0
  010cf	68 c2 10 00 00	 push	 4290			; 000010c2H
  010d4	6a 0c		 push	 12			; 0000000cH
  010d6	6a 01		 push	 1
  010d8	6a 01		 push	 1
  010da	89 44 24 2c	 mov	 DWORD PTR _i$[esp+198592], eax
  010de	50		 push	 eax
  010df	8b ce		 mov	 ecx, esi
  010e1	e8 00 00 00 00	 call	 ?BindParameter@CQuery@@QAEHGFFFKFPAXJPAJ@Z ; CQuery::BindParameter
  010e6	89 87 1c 01 00
	00		 mov	 DWORD PTR [edi+284], eax
  010ec	0f b6 8b c8 00
	00 00		 movzx	 ecx, BYTE PTR [ebx+200]
  010f3	8b 44 24 0c	 mov	 eax, DWORD PTR _i$[esp+198560]
  010f7	69 c9 a8 53 00
	00		 imul	 ecx, 21416		; 000053a8H
  010fd	8d 54 24 10	 lea	 edx, DWORD PTR _cbLen$[esp+198560]
  01101	52		 push	 edx
  01102	6a 00		 push	 0
  01104	8d 94 0c 70 67
	01 00		 lea	 edx, DWORD PTR _icsBank$[esp+ecx+204712]
  0110b	52		 push	 edx
  0110c	6a 00		 push	 0
  0110e	68 d7 00 00 00	 push	 215			; 000000d7H
  01113	6a 0c		 push	 12			; 0000000cH
  01115	6a 01		 push	 1
  01117	40		 inc	 eax
  01118	6a 01		 push	 1
  0111a	50		 push	 eax
  0111b	8b ce		 mov	 ecx, esi
  0111d	89 44 24 30	 mov	 DWORD PTR _i$[esp+198596], eax
  01121	e8 00 00 00 00	 call	 ?BindParameter@CQuery@@QAEHGFFFKFPAXJPAJ@Z ; CQuery::BindParameter
  01126	89 87 20 01 00
	00		 mov	 DWORD PTR [edi+288], eax
  0112c	0f b6 93 c8 00
	00 00		 movzx	 edx, BYTE PTR [ebx+200]
  01133	8b 44 24 0c	 mov	 eax, DWORD PTR _i$[esp+198560]
  01137	69 d2 a8 53 00
	00		 imul	 edx, 21416		; 000053a8H
  0113d	8d 4c 24 10	 lea	 ecx, DWORD PTR _cbLen$[esp+198560]
  01141	51		 push	 ecx
  01142	6a 00		 push	 0
  01144	8d 8c 14 70 69
	01 00		 lea	 ecx, DWORD PTR _icsBank$[esp+edx+205224]
  0114b	51		 push	 ecx
  0114c	6a 00		 push	 0
  0114e	68 d7 00 00 00	 push	 215			; 000000d7H
  01153	6a 0c		 push	 12			; 0000000cH
  01155	6a 01		 push	 1
  01157	40		 inc	 eax
  01158	6a 01		 push	 1
  0115a	50		 push	 eax
  0115b	8b ce		 mov	 ecx, esi
  0115d	89 44 24 30	 mov	 DWORD PTR _i$[esp+198596], eax
  01161	e8 00 00 00 00	 call	 ?BindParameter@CQuery@@QAEHGFFFKFPAXJPAJ@Z ; CQuery::BindParameter
  01166	6a 00		 push	 0
  01168	89 87 24 01 00
	00		 mov	 DWORD PTR [edi+292], eax
  0116e	0f b6 93 c8 00
	00 00		 movzx	 edx, BYTE PTR [ebx+200]
  01175	8b 44 24 10	 mov	 eax, DWORD PTR _i$[esp+198564]
  01179	6a 00		 push	 0
  0117b	8d 8c 93 d0 41
	00 00		 lea	 ecx, DWORD PTR [ebx+edx*4+16848]
  01182	51		 push	 ecx
  01183	6a 00		 push	 0
  01185	6a 00		 push	 0
  01187	6a 04		 push	 4
  01189	6a 04		 push	 4
  0118b	40		 inc	 eax
  0118c	6a 01		 push	 1
  0118e	50		 push	 eax
  0118f	8b ce		 mov	 ecx, esi
  01191	89 44 24 30	 mov	 DWORD PTR _i$[esp+198596], eax
  01195	e8 00 00 00 00	 call	 ?BindParameter@CQuery@@QAEHGFFFKFPAXJPAJ@Z ; CQuery::BindParameter
  0119a	6a 00		 push	 0
  0119c	6a 00		 push	 0
  0119e	8d 93 c0 00 00
	00		 lea	 edx, DWORD PTR [ebx+192]
  011a4	52		 push	 edx
  011a5	6a 00		 push	 0
  011a7	6a 00		 push	 0
  011a9	6a 04		 push	 4
  011ab	89 87 28 01 00
	00		 mov	 DWORD PTR [edi+296], eax
  011b1	8b 44 24 24	 mov	 eax, DWORD PTR _i$[esp+198584]
  011b5	6a 04		 push	 4
  011b7	40		 inc	 eax
  011b8	6a 01		 push	 1
  011ba	50		 push	 eax
  011bb	8b ce		 mov	 ecx, esi
  011bd	89 44 24 30	 mov	 DWORD PTR _i$[esp+198596], eax
  011c1	e8 00 00 00 00	 call	 ?BindParameter@CQuery@@QAEHGFFFKFPAXJPAJ@Z ; CQuery::BindParameter
  011c6	6a 00		 push	 0
  011c8	89 87 2c 01 00
	00		 mov	 DWORD PTR [edi+300], eax
  011ce	8b 44 24 10	 mov	 eax, DWORD PTR _i$[esp+198564]
  011d2	6a 00		 push	 0
  011d4	8d 8b ec 41 00
	00		 lea	 ecx, DWORD PTR [ebx+16876]
  011da	40		 inc	 eax
  011db	51		 push	 ecx
  011dc	89 44 24 18	 mov	 DWORD PTR _i$[esp+198572], eax
  011e0	6a 00		 push	 0
  011e2	6a 00		 push	 0
  011e4	6a 04		 push	 4
  011e6	6a 04		 push	 4
  011e8	6a 01		 push	 1
  011ea	50		 push	 eax
  011eb	8b ce		 mov	 ecx, esi
  011ed	e8 00 00 00 00	 call	 ?BindParameter@CQuery@@QAEHGFFFKFPAXJPAJ@Z ; CQuery::BindParameter
  011f2	8d 54 24 10	 lea	 edx, DWORD PTR _cbLen$[esp+198560]
  011f6	52		 push	 edx
  011f7	6a 00		 push	 0
  011f9	8d 8c 24 78 5f
	02 00		 lea	 ecx, DWORD PTR _szSMTime$[esp+198568]
  01200	51		 push	 ecx
  01201	6a 00		 push	 0
  01203	68 00 0a 00 00	 push	 2560			; 00000a00H
  01208	6a 0c		 push	 12			; 0000000cH
  0120a	89 87 30 01 00
	00		 mov	 DWORD PTR [edi+304], eax
  01210	8b 44 24 24	 mov	 eax, DWORD PTR _i$[esp+198584]
  01214	6a 01		 push	 1
  01216	40		 inc	 eax
  01217	6a 01		 push	 1
  01219	50		 push	 eax
  0121a	8b ce		 mov	 ecx, esi
  0121c	89 44 24 30	 mov	 DWORD PTR _i$[esp+198596], eax
  01220	e8 00 00 00 00	 call	 ?BindParameter@CQuery@@QAEHGFFFKFPAXJPAJ@Z ; CQuery::BindParameter
  01225	8d 54 24 10	 lea	 edx, DWORD PTR _cbLen$[esp+198560]
  01229	52		 push	 edx
  0122a	6a 00		 push	 0
  0122c	8d 8c 24 50 ea
	02 00		 lea	 ecx, DWORD PTR _szSkillInfluence$[esp+198568]
  01233	51		 push	 ecx
  01234	6a 00		 push	 0
  01236	68 4c 1d 00 00	 push	 7500			; 00001d4cH
  0123b	6a 0c		 push	 12			; 0000000cH
  0123d	89 87 34 01 00
	00		 mov	 DWORD PTR [edi+308], eax
  01243	8b 44 24 24	 mov	 eax, DWORD PTR _i$[esp+198584]
  01247	6a 01		 push	 1
  01249	40		 inc	 eax
  0124a	6a 01		 push	 1
  0124c	50		 push	 eax
  0124d	8b ce		 mov	 ecx, esi
  0124f	89 44 24 30	 mov	 DWORD PTR _i$[esp+198596], eax
  01253	e8 00 00 00 00	 call	 ?BindParameter@CQuery@@QAEHGFFFKFPAXJPAJ@Z ; CQuery::BindParameter
  01258	6a 00		 push	 0
  0125a	6a 00		 push	 0
  0125c	8d 94 24 9c 00
	00 00		 lea	 edx, DWORD PTR _dwSkillPoint$[esp+198568]
  01263	52		 push	 edx
  01264	6a 00		 push	 0
  01266	6a 00		 push	 0
  01268	6a 04		 push	 4
  0126a	89 87 38 01 00
	00		 mov	 DWORD PTR [edi+312], eax
  01270	8b 44 24 24	 mov	 eax, DWORD PTR _i$[esp+198584]
  01274	6a 04		 push	 4
  01276	40		 inc	 eax
  01277	6a 01		 push	 1
  01279	50		 push	 eax
  0127a	8b ce		 mov	 ecx, esi
  0127c	89 44 24 30	 mov	 DWORD PTR _i$[esp+198596], eax
  01280	e8 00 00 00 00	 call	 ?BindParameter@CQuery@@QAEHGFFFKFPAXJPAJ@Z ; CQuery::BindParameter
  01285	8d 4c 24 10	 lea	 ecx, DWORD PTR _cbLen$[esp+198560]
  01289	51		 push	 ecx
  0128a	6a 00		 push	 0
  0128c	8d 94 24 78 4f
	02 00		 lea	 edx, DWORD PTR _m_aCompleteQuest$[esp+198568]
  01293	52		 push	 edx
  01294	6a 00		 push	 0
  01296	68 00 04 00 00	 push	 1024			; 00000400H
  0129b	6a 0c		 push	 12			; 0000000cH
  0129d	89 87 3c 01 00
	00		 mov	 DWORD PTR [edi+316], eax
  012a3	8b 44 24 24	 mov	 eax, DWORD PTR _i$[esp+198584]
  012a7	6a 01		 push	 1
  012a9	40		 inc	 eax
  012aa	6a 01		 push	 1
  012ac	50		 push	 eax
  012ad	8b ce		 mov	 ecx, esi
  012af	89 44 24 30	 mov	 DWORD PTR _i$[esp+198596], eax
  012b3	e8 00 00 00 00	 call	 ?BindParameter@CQuery@@QAEHGFFFKFPAXJPAJ@Z ; CQuery::BindParameter
  012b8	89 87 40 01 00
	00		 mov	 DWORD PTR [edi+320], eax
  012be	8b 44 24 0c	 mov	 eax, DWORD PTR _i$[esp+198560]
  012c2	8d 4c 24 10	 lea	 ecx, DWORD PTR _cbLen$[esp+198560]
  012c6	40		 inc	 eax
  012c7	51		 push	 ecx
  012c8	89 44 24 10	 mov	 DWORD PTR _i$[esp+198564], eax
  012cc	6a 00		 push	 0
  012ce	8d 94 24 b8 1c
	00 00		 lea	 edx, DWORD PTR _icsInventory$[esp+205736]
  012d5	52		 push	 edx
  012d6	6a 00		 push	 0
  012d8	68 d0 07 00 00	 push	 2000			; 000007d0H
  012dd	6a 0c		 push	 12			; 0000000cH
  012df	6a 01		 push	 1
  012e1	6a 01		 push	 1
  012e3	50		 push	 eax
  012e4	8b ce		 mov	 ecx, esi
  012e6	e8 00 00 00 00	 call	 ?BindParameter@CQuery@@QAEHGFFFKFPAXJPAJ@Z ; CQuery::BindParameter
  012eb	89 87 44 01 00
	00		 mov	 DWORD PTR [edi+324], eax
  012f1	0f b6 93 c8 00
	00 00		 movzx	 edx, BYTE PTR [ebx+200]
  012f8	8b 44 24 0c	 mov	 eax, DWORD PTR _i$[esp+198560]
  012fc	69 d2 a8 53 00
	00		 imul	 edx, 21416		; 000053a8H
  01302	8d 4c 24 10	 lea	 ecx, DWORD PTR _cbLen$[esp+198560]
  01306	51		 push	 ecx
  01307	6a 00		 push	 0
  01309	8d 8c 14 70 6b
	01 00		 lea	 ecx, DWORD PTR _icsBank$[esp+edx+205736]
  01310	51		 push	 ecx
  01311	6a 00		 push	 0
  01313	68 d0 07 00 00	 push	 2000			; 000007d0H
  01318	6a 0c		 push	 12			; 0000000cH
  0131a	6a 01		 push	 1
  0131c	40		 inc	 eax
  0131d	6a 01		 push	 1
  0131f	50		 push	 eax
  01320	8b ce		 mov	 ecx, esi
  01322	89 44 24 30	 mov	 DWORD PTR _i$[esp+198596], eax
  01326	e8 00 00 00 00	 call	 ?BindParameter@CQuery@@QAEHGFFFKFPAXJPAJ@Z ; CQuery::BindParameter
  0132b	8d 54 24 10	 lea	 edx, DWORD PTR _cbLen$[esp+198560]
  0132f	52		 push	 edx
  01330	6a 00		 push	 0
  01332	8d 8c 24 b8 24
	00 00		 lea	 ecx, DWORD PTR _icsInventory$[esp+207784]
  01339	51		 push	 ecx
  0133a	6a 00		 push	 0
  0133c	68 78 1e 00 00	 push	 7800			; 00001e78H
  01341	6a 0c		 push	 12			; 0000000cH
  01343	89 87 48 01 00
	00		 mov	 DWORD PTR [edi+328], eax
  01349	8b 44 24 24	 mov	 eax, DWORD PTR _i$[esp+198584]
  0134d	6a 01		 push	 1
  0134f	40		 inc	 eax
  01350	6a 01		 push	 1
  01352	50		 push	 eax
  01353	8b ce		 mov	 ecx, esi
  01355	89 44 24 30	 mov	 DWORD PTR _i$[esp+198596], eax
  01359	e8 00 00 00 00	 call	 ?BindParameter@CQuery@@QAEHGFFFKFPAXJPAJ@Z ; CQuery::BindParameter
  0135e	89 87 4c 01 00
	00		 mov	 DWORD PTR [edi+332], eax
  01364	0f b6 8b c8 00
	00 00		 movzx	 ecx, BYTE PTR [ebx+200]
  0136b	8b 44 24 0c	 mov	 eax, DWORD PTR _i$[esp+198560]
  0136f	69 c9 a8 53 00
	00		 imul	 ecx, 21416		; 000053a8H
  01375	8d 54 24 10	 lea	 edx, DWORD PTR _cbLen$[esp+198560]
  01379	52		 push	 edx
  0137a	6a 00		 push	 0
  0137c	8d 94 0c 70 73
	01 00		 lea	 edx, DWORD PTR _icsBank$[esp+ecx+207784]
  01383	52		 push	 edx
  01384	6a 00		 push	 0
  01386	68 78 1e 00 00	 push	 7800			; 00001e78H
  0138b	6a 0c		 push	 12			; 0000000cH
  0138d	6a 01		 push	 1
  0138f	40		 inc	 eax
  01390	6a 01		 push	 1
  01392	50		 push	 eax
  01393	8b ce		 mov	 ecx, esi
  01395	89 44 24 30	 mov	 DWORD PTR _i$[esp+198596], eax
  01399	e8 00 00 00 00	 call	 ?BindParameter@CQuery@@QAEHGFFFKFPAXJPAJ@Z ; CQuery::BindParameter
  0139e	6a 00		 push	 0
  013a0	6a 00		 push	 0
  013a2	8d 8b e8 41 00
	00		 lea	 ecx, DWORD PTR [ebx+16872]
  013a8	51		 push	 ecx
  013a9	6a 00		 push	 0
  013ab	6a 00		 push	 0
  013ad	6a 04		 push	 4
  013af	89 87 50 01 00
	00		 mov	 DWORD PTR [edi+336], eax
  013b5	8b 44 24 24	 mov	 eax, DWORD PTR _i$[esp+198584]
  013b9	6a 04		 push	 4
  013bb	40		 inc	 eax
  013bc	6a 01		 push	 1
  013be	50		 push	 eax
  013bf	8b ce		 mov	 ecx, esi
  013c1	89 44 24 30	 mov	 DWORD PTR _i$[esp+198596], eax
  013c5	e8 00 00 00 00	 call	 ?BindParameter@CQuery@@QAEHGFFFKFPAXJPAJ@Z ; CQuery::BindParameter
  013ca	6a 00		 push	 0
  013cc	6a 00		 push	 0
  013ce	8d 93 0c 41 00
	00		 lea	 edx, DWORD PTR [ebx+16652]
  013d4	52		 push	 edx
  013d5	6a 00		 push	 0
  013d7	6a 00		 push	 0
  013d9	6a 04		 push	 4
  013db	89 87 54 01 00
	00		 mov	 DWORD PTR [edi+340], eax
  013e1	8b 44 24 24	 mov	 eax, DWORD PTR _i$[esp+198584]
  013e5	6a 04		 push	 4
  013e7	40		 inc	 eax
  013e8	6a 01		 push	 1
  013ea	50		 push	 eax
  013eb	8b ce		 mov	 ecx, esi
  013ed	89 44 24 30	 mov	 DWORD PTR _i$[esp+198596], eax
  013f1	e8 00 00 00 00	 call	 ?BindParameter@CQuery@@QAEHGFFFKFPAXJPAJ@Z ; CQuery::BindParameter
  013f6	6a 00		 push	 0
  013f8	6a 00		 push	 0
  013fa	8d 8b 08 41 00
	00		 lea	 ecx, DWORD PTR [ebx+16648]
  01400	51		 push	 ecx
  01401	6a 00		 push	 0
  01403	6a 00		 push	 0
  01405	6a 04		 push	 4
  01407	89 87 58 01 00
	00		 mov	 DWORD PTR [edi+344], eax
  0140d	8b 44 24 24	 mov	 eax, DWORD PTR _i$[esp+198584]
  01411	6a 04		 push	 4
  01413	40		 inc	 eax
  01414	6a 01		 push	 1
  01416	50		 push	 eax
  01417	8b ce		 mov	 ecx, esi
  01419	89 44 24 30	 mov	 DWORD PTR _i$[esp+198596], eax
  0141d	e8 00 00 00 00	 call	 ?BindParameter@CQuery@@QAEHGFFFKFPAXJPAJ@Z ; CQuery::BindParameter
  01422	6a 00		 push	 0
  01424	6a 00		 push	 0
  01426	8d 94 24 b0 00
	00 00		 lea	 edx, DWORD PTR _nSkillExp$[esp+198568]
  0142d	52		 push	 edx
  0142e	6a 00		 push	 0
  01430	6a 00		 push	 0
  01432	6a fb		 push	 -5			; fffffffbH
  01434	89 87 5c 01 00
	00		 mov	 DWORD PTR [edi+348], eax
  0143a	8b 44 24 24	 mov	 eax, DWORD PTR _i$[esp+198584]
  0143e	6a e7		 push	 -25			; ffffffe7H
  01440	40		 inc	 eax
  01441	6a 01		 push	 1
  01443	50		 push	 eax
  01444	8b ce		 mov	 ecx, esi
  01446	89 44 24 30	 mov	 DWORD PTR _i$[esp+198596], eax
  0144a	e8 00 00 00 00	 call	 ?BindParameter@CQuery@@QAEHGFFFKFPAXJPAJ@Z ; CQuery::BindParameter
  0144f	6a 00		 push	 0
  01451	6a 00		 push	 0
  01453	8d 8b 18 42 00
	00		 lea	 ecx, DWORD PTR [ebx+16920]
  01459	51		 push	 ecx
  0145a	6a 00		 push	 0
  0145c	6a 00		 push	 0
  0145e	6a fb		 push	 -5			; fffffffbH
  01460	89 87 60 01 00
	00		 mov	 DWORD PTR [edi+352], eax
  01466	8b 44 24 24	 mov	 eax, DWORD PTR _i$[esp+198584]
  0146a	6a e7		 push	 -25			; ffffffe7H
  0146c	40		 inc	 eax
  0146d	6a 01		 push	 1
  0146f	50		 push	 eax
  01470	8b ce		 mov	 ecx, esi
  01472	89 44 24 30	 mov	 DWORD PTR _i$[esp+198596], eax
  01476	e8 00 00 00 00	 call	 ?BindParameter@CQuery@@QAEHGFFFKFPAXJPAJ@Z ; CQuery::BindParameter
  0147b	6a 00		 push	 0
  0147d	6a 00		 push	 0
  0147f	8d 93 20 42 00
	00		 lea	 edx, DWORD PTR [ebx+16928]
  01485	52		 push	 edx
  01486	6a 00		 push	 0
  01488	6a 00		 push	 0
  0148a	6a 04		 push	 4
  0148c	89 87 64 01 00
	00		 mov	 DWORD PTR [edi+356], eax
  01492	8b 44 24 24	 mov	 eax, DWORD PTR _i$[esp+198584]
  01496	6a 04		 push	 4
  01498	40		 inc	 eax
  01499	6a 01		 push	 1
  0149b	50		 push	 eax
  0149c	8b ce		 mov	 ecx, esi
  0149e	89 44 24 30	 mov	 DWORD PTR _i$[esp+198596], eax
  014a2	e8 00 00 00 00	 call	 ?BindParameter@CQuery@@QAEHGFFFKFPAXJPAJ@Z ; CQuery::BindParameter
  014a7	89 87 68 01 00
	00		 mov	 DWORD PTR [edi+360], eax
  014ad	8b 44 24 0c	 mov	 eax, DWORD PTR _i$[esp+198560]
  014b1	6a 00		 push	 0
  014b3	6a 00		 push	 0
  014b5	8d 8b 24 42 00
	00		 lea	 ecx, DWORD PTR [ebx+16932]
  014bb	51		 push	 ecx
  014bc	6a 00		 push	 0
  014be	6a 00		 push	 0
  014c0	6a 04		 push	 4
  014c2	6a 04		 push	 4
  014c4	40		 inc	 eax
  014c5	6a 01		 push	 1
  014c7	50		 push	 eax
  014c8	8b ce		 mov	 ecx, esi
  014ca	89 44 24 30	 mov	 DWORD PTR _i$[esp+198596], eax
  014ce	e8 00 00 00 00	 call	 ?BindParameter@CQuery@@QAEHGFFFKFPAXJPAJ@Z ; CQuery::BindParameter
  014d3	6a 00		 push	 0
  014d5	6a 00		 push	 0
  014d7	8d 93 e8 40 00
	00		 lea	 edx, DWORD PTR [ebx+16616]
  014dd	52		 push	 edx
  014de	6a 00		 push	 0
  014e0	6a 00		 push	 0
  014e2	6a fb		 push	 -5			; fffffffbH
  014e4	89 87 6c 01 00
	00		 mov	 DWORD PTR [edi+364], eax
  014ea	8b 44 24 24	 mov	 eax, DWORD PTR _i$[esp+198584]
  014ee	6a e7		 push	 -25			; ffffffe7H
  014f0	40		 inc	 eax
  014f1	6a 01		 push	 1
  014f3	50		 push	 eax
  014f4	8b ce		 mov	 ecx, esi
  014f6	89 44 24 30	 mov	 DWORD PTR _i$[esp+198596], eax
  014fa	e8 00 00 00 00	 call	 ?BindParameter@CQuery@@QAEHGFFFKFPAXJPAJ@Z ; CQuery::BindParameter
  014ff	6a 00		 push	 0
  01501	6a 00		 push	 0
  01503	8d 8b f0 40 00
	00		 lea	 ecx, DWORD PTR [ebx+16624]
  01509	51		 push	 ecx
  0150a	6a 00		 push	 0
  0150c	6a 00		 push	 0
  0150e	6a 04		 push	 4
  01510	89 87 70 01 00
	00		 mov	 DWORD PTR [edi+368], eax
  01516	8b 44 24 24	 mov	 eax, DWORD PTR _i$[esp+198584]
  0151a	6a 04		 push	 4
  0151c	40		 inc	 eax
  0151d	6a 01		 push	 1
  0151f	50		 push	 eax
  01520	8b ce		 mov	 ecx, esi
  01522	89 44 24 30	 mov	 DWORD PTR _i$[esp+198596], eax
  01526	e8 00 00 00 00	 call	 ?BindParameter@CQuery@@QAEHGFFFKFPAXJPAJ@Z ; CQuery::BindParameter
  0152b	8d 54 24 10	 lea	 edx, DWORD PTR _cbLen$[esp+198560]
  0152f	52		 push	 edx
  01530	6a 00		 push	 0
  01532	8d 8c 24 f8 43
	00 00		 lea	 ecx, DWORD PTR _icsInventory$[esp+215784]
  01539	51		 push	 ecx
  0153a	6a 00		 push	 0
  0153c	68 d0 07 00 00	 push	 2000			; 000007d0H
  01541	6a 0c		 push	 12			; 0000000cH
  01543	89 87 74 01 00
	00		 mov	 DWORD PTR [edi+372], eax
  01549	8b 44 24 24	 mov	 eax, DWORD PTR _i$[esp+198584]
  0154d	6a 01		 push	 1
  0154f	40		 inc	 eax
  01550	6a 01		 push	 1
  01552	50		 push	 eax
  01553	8b ce		 mov	 ecx, esi
  01555	89 44 24 30	 mov	 DWORD PTR _i$[esp+198596], eax
  01559	e8 00 00 00 00	 call	 ?BindParameter@CQuery@@QAEHGFFFKFPAXJPAJ@Z ; CQuery::BindParameter
  0155e	89 87 78 01 00
	00		 mov	 DWORD PTR [edi+376], eax
  01564	8b 44 24 0c	 mov	 eax, DWORD PTR _i$[esp+198560]
  01568	0f b6 8b c8 00
	00 00		 movzx	 ecx, BYTE PTR [ebx+200]
  0156f	40		 inc	 eax
  01570	69 c9 a8 53 00
	00		 imul	 ecx, 21416		; 000053a8H
  01576	8d 54 24 10	 lea	 edx, DWORD PTR _cbLen$[esp+198560]
  0157a	52		 push	 edx
  0157b	6a 00		 push	 0
  0157d	8d 94 0c b0 92
	01 00		 lea	 edx, DWORD PTR _icsBank$[esp+ecx+215784]
  01584	52		 push	 edx
  01585	6a 00		 push	 0
  01587	68 d0 07 00 00	 push	 2000			; 000007d0H
  0158c	6a 0c		 push	 12			; 0000000cH
  0158e	6a 01		 push	 1
  01590	6a 01		 push	 1
  01592	89 44 24 2c	 mov	 DWORD PTR _i$[esp+198592], eax
  01596	50		 push	 eax
  01597	8b ce		 mov	 ecx, esi
  01599	e8 00 00 00 00	 call	 ?BindParameter@CQuery@@QAEHGFFFKFPAXJPAJ@Z ; CQuery::BindParameter
  0159e	6a 00		 push	 0
  015a0	6a 00		 push	 0
  015a2	8d 4c 24 70	 lea	 ecx, DWORD PTR _dwPetId$[esp+198568]
  015a6	51		 push	 ecx
  015a7	6a 00		 push	 0
  015a9	89 87 7c 01 00
	00		 mov	 DWORD PTR [edi+380], eax
  015af	8b 83 30 42 00
	00		 mov	 eax, DWORD PTR [ebx+16944]
  015b5	6a 00		 push	 0
  015b7	6a 04		 push	 4
  015b9	89 84 24 80 00
	00 00		 mov	 DWORD PTR _dwPetId$[esp+198584], eax
  015c0	8b 44 24 24	 mov	 eax, DWORD PTR _i$[esp+198584]
  015c4	6a 04		 push	 4
  015c6	40		 inc	 eax
  015c7	6a 01		 push	 1
  015c9	50		 push	 eax
  015ca	8b ce		 mov	 ecx, esi
  015cc	89 44 24 30	 mov	 DWORD PTR _i$[esp+198596], eax
  015d0	e8 00 00 00 00	 call	 ?BindParameter@CQuery@@QAEHGFFFKFPAXJPAJ@Z ; CQuery::BindParameter
  015d5	6a 00		 push	 0
  015d7	6a 00		 push	 0
  015d9	8d 93 38 42 00
	00		 lea	 edx, DWORD PTR [ebx+16952]
  015df	52		 push	 edx
  015e0	6a 00		 push	 0
  015e2	6a 00		 push	 0
  015e4	6a 04		 push	 4
  015e6	89 87 80 01 00
	00		 mov	 DWORD PTR [edi+384], eax
  015ec	8b 44 24 24	 mov	 eax, DWORD PTR _i$[esp+198584]
  015f0	6a 04		 push	 4
  015f2	40		 inc	 eax
  015f3	6a 01		 push	 1
  015f5	50		 push	 eax
  015f6	8b ce		 mov	 ecx, esi
  015f8	89 44 24 30	 mov	 DWORD PTR _i$[esp+198596], eax
  015fc	e8 00 00 00 00	 call	 ?BindParameter@CQuery@@QAEHGFFFKFPAXJPAJ@Z ; CQuery::BindParameter
  01601	6a 00		 push	 0
  01603	6a 00		 push	 0
  01605	8d 8b 3c 42 00
	00		 lea	 ecx, DWORD PTR [ebx+16956]
  0160b	51		 push	 ecx
  0160c	6a 00		 push	 0
  0160e	6a 00		 push	 0
  01610	6a 04		 push	 4
  01612	89 87 84 01 00
	00		 mov	 DWORD PTR [edi+388], eax
  01618	8b 44 24 24	 mov	 eax, DWORD PTR _i$[esp+198584]
  0161c	6a 04		 push	 4
  0161e	40		 inc	 eax
  0161f	6a 01		 push	 1
  01621	50		 push	 eax
  01622	8b ce		 mov	 ecx, esi
  01624	89 44 24 30	 mov	 DWORD PTR _i$[esp+198596], eax
  01628	e8 00 00 00 00	 call	 ?BindParameter@CQuery@@QAEHGFFFKFPAXJPAJ@Z ; CQuery::BindParameter
  0162d	6a 00		 push	 0
  0162f	6a 00		 push	 0
  01631	8d 93 40 42 00
	00		 lea	 edx, DWORD PTR [ebx+16960]
  01637	52		 push	 edx
  01638	6a 00		 push	 0
  0163a	6a 00		 push	 0
  0163c	6a 04		 push	 4
  0163e	89 87 88 01 00
	00		 mov	 DWORD PTR [edi+392], eax
  01644	8b 44 24 24	 mov	 eax, DWORD PTR _i$[esp+198584]
  01648	6a 04		 push	 4
  0164a	40		 inc	 eax
  0164b	6a 01		 push	 1
  0164d	50		 push	 eax
  0164e	8b ce		 mov	 ecx, esi
  01650	89 44 24 30	 mov	 DWORD PTR _i$[esp+198596], eax
  01654	e8 00 00 00 00	 call	 ?BindParameter@CQuery@@QAEHGFFFKFPAXJPAJ@Z ; CQuery::BindParameter
  01659	6a 00		 push	 0
  0165b	6a 00		 push	 0
  0165d	8d 8b 44 42 00
	00		 lea	 ecx, DWORD PTR [ebx+16964]
  01663	51		 push	 ecx
  01664	6a 00		 push	 0
  01666	6a 00		 push	 0
  01668	89 87 8c 01 00
	00		 mov	 DWORD PTR [edi+396], eax
  0166e	8b 44 24 20	 mov	 eax, DWORD PTR _i$[esp+198580]
  01672	6a 04		 push	 4
  01674	40		 inc	 eax
  01675	6a 04		 push	 4
  01677	89 44 24 28	 mov	 DWORD PTR _i$[esp+198588], eax
  0167b	6a 01		 push	 1
  0167d	50		 push	 eax
  0167e	8b ce		 mov	 ecx, esi
  01680	e8 00 00 00 00	 call	 ?BindParameter@CQuery@@QAEHGFFFKFPAXJPAJ@Z ; CQuery::BindParameter
  01685	6a 00		 push	 0
  01687	6a 00		 push	 0
  01689	8d 4c 24 78	 lea	 ecx, DWORD PTR _nLayer$[esp+198568]
  0168d	51		 push	 ecx
  0168e	6a 00		 push	 0
  01690	6a 00		 push	 0
  01692	89 87 90 01 00
	00		 mov	 DWORD PTR [edi+400], eax
  01698	8b 44 24 20	 mov	 eax, DWORD PTR _i$[esp+198580]
  0169c	8b 53 2c	 mov	 edx, DWORD PTR [ebx+44]
  0169f	6a 04		 push	 4
  016a1	6a 04		 push	 4
  016a3	40		 inc	 eax
  016a4	6a 01		 push	 1
  016a6	50		 push	 eax
  016a7	8b ce		 mov	 ecx, esi
  016a9	89 94 24 94 00
	00 00		 mov	 DWORD PTR _nLayer$[esp+198596], edx
  016b0	89 44 24 30	 mov	 DWORD PTR _i$[esp+198596], eax
  016b4	e8 00 00 00 00	 call	 ?BindParameter@CQuery@@QAEHGFFFKFPAXJPAJ@Z ; CQuery::BindParameter
  016b9	8d 54 24 10	 lea	 edx, DWORD PTR _cbLen$[esp+198560]
  016bd	52		 push	 edx
  016be	6a 00		 push	 0
  016c0	8d 8c 24 a0 4a
	02 00		 lea	 ecx, DWORD PTR _CheckedQuest$[esp+198568]
  016c7	51		 push	 ecx
  016c8	6a 00		 push	 0
  016ca	6a 64		 push	 100			; 00000064H
  016cc	6a 0c		 push	 12			; 0000000cH
  016ce	89 87 94 01 00
	00		 mov	 DWORD PTR [edi+404], eax
  016d4	8b 44 24 24	 mov	 eax, DWORD PTR _i$[esp+198584]
  016d8	6a 01		 push	 1
  016da	40		 inc	 eax
  016db	6a 01		 push	 1
  016dd	50		 push	 eax
  016de	8b ce		 mov	 ecx, esi
  016e0	89 44 24 30	 mov	 DWORD PTR _i$[esp+198596], eax
  016e4	e8 00 00 00 00	 call	 ?BindParameter@CQuery@@QAEHGFFFKFPAXJPAJ@Z ; CQuery::BindParameter
  016e9	6a 00		 push	 0
  016eb	6a 00		 push	 0
  016ed	8d 8c 24 80 00
	00 00		 lea	 ecx, DWORD PTR _nCampusPoint$[esp+198568]
  016f4	51		 push	 ecx
  016f5	6a 00		 push	 0
  016f7	6a 00		 push	 0
  016f9	89 87 98 01 00
	00		 mov	 DWORD PTR [edi+408], eax
  016ff	8b 44 24 20	 mov	 eax, DWORD PTR _i$[esp+198580]
  01703	8b 93 c8 46 00
	00		 mov	 edx, DWORD PTR [ebx+18120]
  01709	6a 04		 push	 4
  0170b	6a 04		 push	 4
  0170d	40		 inc	 eax
  0170e	6a 01		 push	 1
  01710	50		 push	 eax
  01711	8b ce		 mov	 ecx, esi
  01713	89 94 24 9c 00
	00 00		 mov	 DWORD PTR _nCampusPoint$[esp+198596], edx
  0171a	89 44 24 30	 mov	 DWORD PTR _i$[esp+198596], eax
  0171e	e8 00 00 00 00	 call	 ?BindParameter@CQuery@@QAEHGFFFKFPAXJPAJ@Z ; CQuery::BindParameter
  01723	6a 00		 push	 0
  01725	6a 00		 push	 0
  01727	8d 8c 24 88 00
	00 00		 lea	 ecx, DWORD PTR _idCampus$[esp+198568]
  0172e	51		 push	 ecx
  0172f	6a 00		 push	 0
  01731	6a 00		 push	 0
  01733	89 87 9c 01 00
	00		 mov	 DWORD PTR [edi+412], eax
  01739	8b 44 24 20	 mov	 eax, DWORD PTR _i$[esp+198580]
  0173d	8b 93 c4 46 00
	00		 mov	 edx, DWORD PTR [ebx+18116]
  01743	6a 04		 push	 4
  01745	6a 04		 push	 4
  01747	40		 inc	 eax
  01748	6a 01		 push	 1
  0174a	50		 push	 eax
  0174b	8b ce		 mov	 ecx, esi
  0174d	89 94 24 a4 00
	00 00		 mov	 DWORD PTR _idCampus$[esp+198596], edx
  01754	89 44 24 30	 mov	 DWORD PTR _i$[esp+198596], eax
  01758	e8 00 00 00 00	 call	 ?BindParameter@CQuery@@QAEHGFFFKFPAXJPAJ@Z ; CQuery::BindParameter
  0175d	89 87 a0 01 00
	00		 mov	 DWORD PTR [edi+416], eax
  01763	33 c0		 xor	 eax, eax
  01765	89 44 24 0c	 mov	 DWORD PTR _i$[esp+198560], eax
  01769	8d a4 24 00 00
	00 00		 npad	 7
$L207872:
  01770	83 3c 87 00	 cmp	 DWORD PTR [edi+eax*4], 0
  01774	74 54		 je	 SHORT $L210577
  01776	40		 inc	 eax
  01777	83 f8 68	 cmp	 eax, 104		; 00000068H
  0177a	89 44 24 0c	 mov	 DWORD PTR _i$[esp+198560], eax
  0177e	7c f0		 jl	 SHORT $L207872
  01780	8b 54 24 1c	 mov	 edx, DWORD PTR $T210570[esp+198560]
  01784	52		 push	 edx
  01785	8b ce		 mov	 ecx, esi
  01787	e8 00 00 00 00	 call	 ?Exec@CQuery@@QAEHPBD@Z	; CQuery::Exec
  0178c	85 c0		 test	 eax, eax
  0178e	0f 85 d7 00 00
	00		 jne	 $L207886
  01794	ff 15 00 00 00
	00		 call	 DWORD PTR __imp__GetCurrentThreadId@0
  0179a	50		 push	 eax
  0179b	8b 44 24 1c	 mov	 eax, DWORD PTR tv2624[esp+198564]
  0179f	50		 push	 eax
  017a0	68 00 00 00 00	 push	 OFFSET FLAT:??_C@_0DC@JGALDGNI@SavePlayer?$CI?$CFs?$CJ?5?9?5Exec?5RETURN?5FAL@
  017a5	e8 00 00 00 00	 call	 ?WriteLog@@YAXPBDZZ	; WriteLog
  017aa	57		 push	 edi
  017ab	e8 00 00 00 00	 call	 ??_V@YAXPAX@Z		; operator delete[]
  017b0	83 c4 10	 add	 esp, 16			; 00000010H

; 518  : }

  017b3	5f		 pop	 edi
  017b4	5e		 pop	 esi
  017b5	5b		 pop	 ebx
  017b6	8b 8c 24 90 07
	03 00		 mov	 ecx, DWORD PTR __$ArrayPad$[esp+198548]
  017bd	33 cd		 xor	 ecx, ebp
  017bf	e8 00 00 00 00	 call	 @__security_check_cookie@4
  017c4	8b e5		 mov	 esp, ebp
  017c6	5d		 pop	 ebp
  017c7	c2 10 00	 ret	 16			; 00000010H
$L210577:

; 48   : 	szQuery[0] = '\0';
; 49   : 
; 50   : 	///////// actMover
; 51   : 	char cActMover[50] = {0,};
; 52   : 	sprintf(cActMover, "%d,%d", pMover->m_pActMover->m_dwState, pMover->m_pActMover->m_dwStateFlag);
; 53   : 
; 54   : 	///////// Skill
; 55   : 	char JobSkill[1024] = {0,};
; 56   : 	char LicenseSkill[1024] = {0,};			
; 57   : 	
; 58   : 	///////// JobLv
; 59   : 	char JobLv[500] = {0,};
; 60   : 	SaveJobLv( pMover, JobLv );
; 61   : 	
; 62   : 	///////// Quest
; 63   : 	char QuestCnt[3072]	= { 0, };
; 64   : 	char m_aCompleteQuest[1024] = { 0, };
; 65   : #if __VER >= 15 // __IMPROVE_QUEST_INTERFACE
; 66   : 	char CheckedQuest[100] = {0, };
; 67   : 	SaveQuest( pMover, QuestCnt, m_aCompleteQuest, CheckedQuest );
; 68   : #else // __IMPROVE_QUEST_INTERFACE
; 69   : 	SaveQuest( pMover, QuestCnt, m_aCompleteQuest );
; 70   : #endif // __IMPROVE_QUEST_INTERFACE
; 71   : 
; 72   : 	///////// Inventory
; 73   : 	ItemContainerStruct	icsInventory, icsBank[3];
; 74   : 	SaveInventory( pMover, &icsInventory );
; 75   : 	for( int k = 0 ; k < 3 ; ++k )
; 76   : 		SaveBank( pMover, &pMover->m_Bank[k], &icsBank[k] );
; 77   : 
; 78   : 	///////// Equipment
; 79   : 	char Equipment[500] = {0,};
; 80   : 	SaveEquipment( pMover, Equipment );
; 81   : 
; 82   : 	///////// CardCube	
; 83   : 	char Card[2]	= "$";
; 84   : 	char sCardIndex[2]	= "$";
; 85   : 	char sCardObjIndex[2]	= "$";
; 86   : 	char Cube[2]	= "$";
; 87   : 	char sCubeIndex[2]	= "$";
; 88   : 	char sCubeObjIndex[2]	= "$";
; 89   : 	
; 90   : 	///////// TaskBar
; 91   : 	char AppletTaskBar[MAX_APPLETTASKBAR] = { 0, }; 
; 92   : 	char ItemTaskBar[MAX_ITEMTASKBAR] = { 0, };  
; 93   : 	char SkillTaskBar[1024] = { 0, };
; 94   : 	SaveTaskBar( pMover, AppletTaskBar, ItemTaskBar, SkillTaskBar );
; 95   : 
; 96   : 	///////// SM  
; 97   : 	char szSMTime[3072] = { 0, };
; 98   : 	SaveSMCode( pMover, szSMTime );
; 99   : 
; 100  : 	char szSkillInfluence[7500] = { 0, };
; 101  : 	SaveSkillInfluence( pMover, szSkillInfluence );
; 102  : 
; 103  : 	PutExpLog( pQueryLog, pMover, ( pMover->m_dwPeriodicTick == 0 ? 'O': 'P' ) );
; 104  : 
; 105  : 	//	mulcom	100218	   CHARACTER_STR U1  ( U1 -> C1 )
; 106  : 	sprintf( szQuery, "{call CHARACTER_STR('U1','%07d','%02d','',"
; 107  : 					  "?,?,?,?,?,?,?,?,?,?,?,"		// 1
; 108  : 					  "?,?,?,?,?,?,?,?,?,?,?,"		// 2
; 109  : 					  "?,?,?,?,?,?,?,?,?,?,?,"		// 3
; 110  : 					  "?,?,?,?,?,?,?,?,?,?,?,"		// 4
; 111  : 					  "?,?,?,?,?,?,?,?,?,?,?,"		// 5
; 112  : 					  "?,?,?,?,?,?,?,?,?,?,?,"		// 6
; 113  : 					  "?,?,?,?,?,?,?,?,?,?,?,"		// 7
; 114  : //					  "?,?,?,?,?,?,?,?,?,?,?,"		// 8
; 115  : 					  "?,?,?,?,?,?,?,?,?,%7.0f,%7.0f,"		// 8
; 116  : 	#ifdef __EVENT_1101
; 117  : //					  "?,?,?,?,?,?"
; 118  : 						"%7.0f,?,?,?,?,?"
; 119  : 	#else	// __EVENT_1101
; 120  : 					  "?,?,?"
; 121  : 	#endif	// __EVENT_1101
; 122  : #if __VER >= 8 // __S8_PK
; 123  : 					  ",?"
; 124  : #endif // __VER >= 8 // __S8_PK
; 125  : #if __VER >= 8 // __CSC_VER8_5
; 126  : 					  ",?,?"
; 127  : #endif // __CSC_VER8_5
; 128  : 					  ",?,?,?"
; 129  : #ifdef __EXP_ANGELEXP_LOG
; 130  : 					  ",?,?"
; 131  : #endif // __EXP_ANGELEXP_LOG
; 132  : #ifdef __EVENTLUA_COUPON
; 133  : 					  ",?"
; 134  : #endif // __EVENTLUA_COUPON
; 135  : #if __VER >= 13 // __HONORABLE_TITLE			// 
; 136  : 					  ",?"
; 137  : #endif	// __HONORABLE_TITLE			// 
; 138  : #ifdef __LAYER_1015
; 139  : 					  ",?"
; 140  : #endif	// __LAYER_1015
; 141  : #if __VER >= 15 // __IMPROVE_QUEST_INTERFACE
; 142  : 					  ",?"
; 143  : #endif // __IMPROVE_QUEST_INTERFACE
; 144  : #if __VER >= 15 // __CAMPUS
; 145  : 					  ",?,?"
; 146  : #endif // __CAMPUS
; 147  : 
; 148  : //					  ")}", pMover->m_idPlayer, g_appInfo.dwSys );		// +3
; 149  : 					  ")}", pMover->m_idPlayer, g_appInfo.dwSys, pMover->m_vReturnPos.x, pMover->m_vReturnPos.y, pMover->m_vReturnPos.z );		// +3
; 150  : 
; 151  : 	char szAuthority[2] = "F";
; 152  : 	int nSlot = 0;
; 153  : 	int nSex = pMover->GetSex();
; 154  : 	int nExpertLv = 0;
; 155  : 	int nRemainLP = 0;
; 156  : 	int nTotalPlayTime = 0;
; 157  : 	DWORD dwGold = pMover->GetGold();
; 158  : 	int i=0;
; 159  : 	int j=-1;
; 160  : 	__int64 nExp2 = 0;
; 161  : 	__int64 nSkillExp = 0;
; 162  : 	DWORD dwSkillPoint = 0;
; 163  : 
; 164  : //////////////////////////////////////////////////////////////////////////////////////
; 165  : int MAX_SAVEPARAM = 88;
; 166  : 	MAX_SAVEPARAM += 3;
; 167  : #ifdef __EVENT_1101
; 168  : 		MAX_SAVEPARAM += 3;
; 169  : #endif // __EVENT_1101
; 170  : #if __VER >= 8 // __S8_PK
; 171  : 	MAX_SAVEPARAM += 1;
; 172  : #endif // __VER >= 8 // __S8_PK
; 173  : #if __VER >= 8 // __CSC_VER8_5
; 174  : 	MAX_SAVEPARAM += 2;
; 175  : #endif // __CSC_VER8_5
; 176  : 
; 177  : 	MAX_SAVEPARAM += 3;
; 178  : 
; 179  : #ifdef __EXP_ANGELEXP_LOG
; 180  : 	MAX_SAVEPARAM += 2;
; 181  : #endif // __EXP_ANGELEXP_LOG
; 182  : 
; 183  : #ifdef __EVENTLUA_COUPON
; 184  : 	MAX_SAVEPARAM += 1;
; 185  : #endif // __EVENTLUA_COUPON
; 186  : 
; 187  : #if __VER >= 13 // __HONORABLE_TITLE			// 
; 188  : 	MAX_SAVEPARAM += 1;
; 189  : #endif	// __HONORABLE_TITLE			// 
; 190  : #ifdef __LAYER_1015
; 191  : 	MAX_SAVEPARAM	+= 1;	// m_nLayer
; 192  : #endif	// __LAYER_1015
; 193  : #if __VER >= 15 // __IMPROVE_QUEST_INTERFACE
; 194  : 	MAX_SAVEPARAM	+= 1;	// m_aCheckedQuest
; 195  : #endif // __IMPROVE_QUEST_INTERFACE
; 196  : #if __VER >= 15 // __CAMPUS
; 197  : 	MAX_SAVEPARAM	+= 2;	// m_nCampusPoint, m_idCampus
; 198  : #endif // __CAMPUS
; 199  : 
; 200  : //////////////////////////////////////////////////////////////////////////////////////
; 201  : 	
; 202  : #if __VER >= 8 // __S8_PK
; 203  : 	int nNumSkill = 0;
; 204  : 	int nSlaughter = 0;
; 205  : #endif // __VER >= 8 // __S8_PK
; 206  : 	SQLINTEGER cbLen = SQL_NTS;
; 207  : 	BOOL* bOK = new BOOL[MAX_SAVEPARAM];
; 208  : //	BOOL bOK[MAX_SAVEPARAM];
; 209  : 	bOK[++j] = qry->BindParameter( ++i, SQL_PARAM_INPUT, SQL_C_CHAR,  SQL_VARCHAR,  32, 0, pMover->m_szName, 0, &cbLen );
; 210  : 	bOK[++j] = qry->BindParameter( ++i, SQL_PARAM_INPUT, SQL_C_LONG, SQL_INTEGER,   0, 0, &nSlot, 0, 0 );
; 211  : 	bOK[++j] = qry->BindParameter( ++i, SQL_PARAM_INPUT, SQL_C_LONG, SQL_INTEGER,   0, 0, &pMover->m_dwWorldID, 0, 0 );
; 212  : 	bOK[++j] = qry->BindParameter( ++i, SQL_PARAM_INPUT, SQL_C_LONG, SQL_INTEGER,   0, 0, &pMover->m_dwIndex, 0, 0 );
; 213  : 	bOK[++j] = qry->BindParameter( ++i, SQL_PARAM_INPUT, SQL_C_FLOAT, SQL_REAL,     0, 0, &pMover->m_vPos.x, 0, 0 );
; 214  : 	bOK[++j] = qry->BindParameter( ++i, SQL_PARAM_INPUT, SQL_C_FLOAT, SQL_REAL,     0, 0, &pMover->m_vPos.y, 0, 0 );
; 215  : 	bOK[++j] = qry->BindParameter( ++i, SQL_PARAM_INPUT, SQL_C_FLOAT, SQL_REAL,     0, 0, &pMover->m_vPos.z, 0, 0 );
; 216  : 	bOK[++j] = qry->BindParameter( ++i, SQL_PARAM_INPUT, SQL_C_CHAR,  SQL_VARCHAR,  32, 0, pMover->m_szCharacterKey, 0, &cbLen );
; 217  : 	bOK[++j] = qry->BindParameter( ++i, SQL_PARAM_INPUT, SQL_C_LONG, SQL_INTEGER,   0, 0, &pMover->m_dwSkinSet, 0, 0 );
; 218  : 	bOK[++j] = qry->BindParameter( ++i, SQL_PARAM_INPUT, SQL_C_LONG, SQL_INTEGER,   0, 0, &pMover->m_dwHairMesh, 0, 0 );
; 219  : 	bOK[++j] = qry->BindParameter( ++i, SQL_PARAM_INPUT, SQL_C_LONG, SQL_INTEGER,   0, 0, &pMover->m_dwHairColor, 0, 0 );
; 220  : 	// 1
; 221  : 	bOK[++j] = qry->BindParameter( ++i, SQL_PARAM_INPUT, SQL_C_LONG, SQL_INTEGER,   0, 0, &pMover->m_dwHeadMesh, 0, 0 );
; 222  : 	bOK[++j] = qry->BindParameter( ++i, SQL_PARAM_INPUT, SQL_C_LONG, SQL_INTEGER,   0, 0, &nSex, 0, 0 );
; 223  : 	bOK[++j] = qry->BindParameter( ++i, SQL_PARAM_INPUT, SQL_C_FLOAT, SQL_REAL,     0, 0, &pMover->m_vScale.x, 0, 0 );
; 224  : 	bOK[++j] = qry->BindParameter( ++i, SQL_PARAM_INPUT, SQL_C_LONG, SQL_INTEGER,   0, 0, &pMover->m_dwMotion, 0, 0 );
; 225  : 	bOK[++j] = qry->BindParameter( ++i, SQL_PARAM_INPUT, SQL_C_FLOAT, SQL_REAL,     0, 0, &pMover->m_fAngle, 0, 0 );
; 226  : 	bOK[++j] = qry->BindParameter( ++i, SQL_PARAM_INPUT, SQL_C_LONG, SQL_INTEGER,   0, 0, &pMover->m_nHitPoint, 0, 0 );
; 227  : 	bOK[++j] = qry->BindParameter( ++i, SQL_PARAM_INPUT, SQL_C_LONG, SQL_INTEGER,   0, 0, &pMover->m_nManaPoint, 0, 0 );
; 228  : 	bOK[++j] = qry->BindParameter( ++i, SQL_PARAM_INPUT, SQL_C_LONG, SQL_INTEGER,   0, 0, &pMover->m_nFatiguePoint, 0, 0 );
; 229  : 	bOK[++j] = qry->BindParameter( ++i, SQL_PARAM_INPUT, SQL_C_LONG, SQL_INTEGER,   0, 0, &pMover->m_dwRideItemIdx, 0, 0 );
; 230  : 	bOK[++j] = qry->BindParameter( ++i, SQL_PARAM_INPUT, SQL_C_LONG, SQL_INTEGER,   0, 0, &dwGold, 0, 0 );
; 231  : 	bOK[++j] = qry->BindParameter( ++i, SQL_PARAM_INPUT, SQL_C_LONG, SQL_INTEGER,   0, 0, &pMover->m_nJob, 0, 0 );
; 232  : 	// 2
; 233  : 	bOK[++j] = qry->BindParameter( ++i, SQL_PARAM_INPUT, SQL_C_CHAR,  SQL_VARCHAR,  50, 0, cActMover, 0, &cbLen );
; 234  : 	bOK[++j] = qry->BindParameter( ++i, SQL_PARAM_INPUT, SQL_C_LONG, SQL_INTEGER,   0, 0, &pMover->m_nStr, 0, 0 );
; 235  : 	bOK[++j] = qry->BindParameter( ++i, SQL_PARAM_INPUT, SQL_C_LONG, SQL_INTEGER,   0, 0, &pMover->m_nSta, 0, 0 );
; 236  : 	bOK[++j] = qry->BindParameter( ++i, SQL_PARAM_INPUT, SQL_C_LONG, SQL_INTEGER,   0, 0, &pMover->m_nDex, 0, 0 );
; 237  : 	bOK[++j] = qry->BindParameter( ++i, SQL_PARAM_INPUT, SQL_C_LONG, SQL_INTEGER,   0, 0, &pMover->m_nInt, 0, 0 );
; 238  : 	bOK[++j] = qry->BindParameter( ++i, SQL_PARAM_INPUT, SQL_C_LONG, SQL_INTEGER,   0, 0, &pMover->m_nLevel, 0, 0 );
; 239  : 	bOK[++j] = qry->BindParameter( ++i, SQL_PARAM_INPUT, SQL_C_SBIGINT, SQL_BIGINT, 0, 0, &pMover->m_nExp1, 0, 0 );
; 240  : 	bOK[++j] = qry->BindParameter( ++i, SQL_PARAM_INPUT, SQL_C_SBIGINT, SQL_BIGINT, 0, 0, &nExp2, 0, 0 );
; 241  : 	bOK[++j] = qry->BindParameter( ++i, SQL_PARAM_INPUT, SQL_C_CHAR, SQL_VARCHAR,   500, 0, JobSkill, 0, &cbLen );
; 242  : 	bOK[++j] = qry->BindParameter( ++i, SQL_PARAM_INPUT, SQL_C_CHAR, SQL_VARCHAR,   500, 0, LicenseSkill, 0, &cbLen );
; 243  : 	bOK[++j] = qry->BindParameter( ++i, SQL_PARAM_INPUT, SQL_C_CHAR, SQL_VARCHAR,   500, 0, JobLv, 0, &cbLen );
; 244  : 	// 3
; 245  : 	bOK[++j] = qry->BindParameter( ++i, SQL_PARAM_INPUT, SQL_C_LONG, SQL_INTEGER,   0, 0, &nExpertLv, 0, 0 );
; 246  : 	bOK[++j] = qry->BindParameter( ++i, SQL_PARAM_INPUT, SQL_C_LONG, SQL_INTEGER,   0, 0, &pMover->m_idMarkingWorld, 0, 0 );
; 247  : 	bOK[++j] = qry->BindParameter( ++i, SQL_PARAM_INPUT, SQL_C_FLOAT, SQL_REAL,     0, 0, &pMover->m_vMarkingPos.x, 0, 0 );
; 248  : 	bOK[++j] = qry->BindParameter( ++i, SQL_PARAM_INPUT, SQL_C_FLOAT, SQL_REAL,     0, 0, &pMover->m_vMarkingPos.y, 0, 0 );
; 249  : 	bOK[++j] = qry->BindParameter( ++i, SQL_PARAM_INPUT, SQL_C_FLOAT, SQL_REAL,     0, 0, &pMover->m_vMarkingPos.z, 0, 0 );
; 250  : 	bOK[++j] = qry->BindParameter( ++i, SQL_PARAM_INPUT, SQL_C_LONG, SQL_INTEGER,   0, 0, &pMover->m_nRemainGP, 0, 0 );
; 251  : 	bOK[++j] = qry->BindParameter( ++i, SQL_PARAM_INPUT, SQL_C_LONG, SQL_INTEGER,   0, 0, &nRemainLP, 0, 0 );
; 252  : #if __VER >= 12 // __MOD_TUTORIAL
; 253  : 	int nTutorialState	= pMover->GetTutorialState();
; 254  : 	bOK[++j] = qry->BindParameter( ++i, SQL_PARAM_INPUT, SQL_C_LONG, SQL_INTEGER,   0, 0, &nTutorialState, 0, 0 );
; 255  : #else	// __MOD_TUTORIAL
; 256  : 	bOK[++j] = qry->BindParameter( ++i, SQL_PARAM_INPUT, SQL_C_LONG, SQL_INTEGER,   0, 0, &pMover->m_nFlightLv, 0, 0 );
; 257  : #endif	// __MOD_TUTORIAL
; 258  : 	bOK[++j] = qry->BindParameter( ++i, SQL_PARAM_INPUT, SQL_C_LONG, SQL_INTEGER,   0, 0, &pMover->m_nFxp, 0, 0 );
; 259  : 	bOK[++j] = qry->BindParameter( ++i, SQL_PARAM_INPUT, SQL_C_LONG, SQL_INTEGER,   0, 0, &pMover->m_nFxp, 0, 0 );
; 260  : 	bOK[++j] = qry->BindParameter( ++i, SQL_PARAM_INPUT, SQL_C_CHAR,  SQL_VARCHAR,  3072, 0, QuestCnt, 0, &cbLen );
; 261  : 	// 4
; 262  : 	bOK[++j] = qry->BindParameter( ++i, SQL_PARAM_INPUT, SQL_C_CHAR,  SQL_CHAR,     1, 0, szAuthority, 0, 0 );
; 263  : 	bOK[++j] = qry->BindParameter( ++i, SQL_PARAM_INPUT, SQL_C_LONG, SQL_INTEGER,   0, 0, &pMover->m_dwMode, 0, 0 );
; 264  : 	bOK[++j] = qry->BindParameter( ++i, SQL_PARAM_INPUT, SQL_C_LONG, SQL_INTEGER,   0, 0, &pMover->m_idparty, 0, 0 );
; 265  : #if __VER < 8 // __S8_PK
; 266  : 	bOK[++j] = qry->BindParameter( ++i, SQL_PARAM_INPUT, SQL_C_LONG, SQL_INTEGER,   0, 0, &pMover->m_nNumKill, 0, 0 );
; 267  : #endif // __VER < 8 // __S8_PK
; 268  : 	bOK[++j] = qry->BindParameter( ++i, SQL_PARAM_INPUT, SQL_C_LONG, SQL_INTEGER,   0, 0, &pMover->m_idMurderer, 0, 0 );
; 269  : #if __VER < 8 // __S8_PK
; 270  : 	bOK[++j] = qry->BindParameter( ++i, SQL_PARAM_INPUT, SQL_C_LONG, SQL_INTEGER,   0, 0, &pMover->m_nSlaughter, 0, 0 );
; 271  : #endif // __VER < 8 // __S8_PK
; 272  : 	bOK[++j] = qry->BindParameter( ++i, SQL_PARAM_INPUT, SQL_C_LONG, SQL_INTEGER,   0, 0, &pMover->m_nFame, 0, 0 );
; 273  : 	bOK[++j] = qry->BindParameter( ++i, SQL_PARAM_INPUT, SQL_C_SBIGINT, SQL_BIGINT, 0, 0, &pMover->m_nDeathExp, 0, 0 );
; 274  : 	bOK[++j] = qry->BindParameter( ++i, SQL_PARAM_INPUT, SQL_C_LONG, SQL_INTEGER,   0, 0, &pMover->m_nDeathLevel, 0, 0 );
; 275  : #ifdef __JEFF_9_20
; 276  : 	bOK[++j] = qry->BindParameter( ++i, SQL_PARAM_INPUT, SQL_C_LONG, SQL_INTEGER,   0, 0, &pMover->m_dwMute, 0, 0 );
; 277  : #else	// __JEFF_9_20
; 278  : 	bOK[++j] = qry->BindParameter( ++i, SQL_PARAM_INPUT, SQL_C_LONG, SQL_INTEGER,   0, 0, &pMover->m_dwFlyTime, 0, 0 );
; 279  : #endif	// __JEFF_9_20
; 280  : #ifdef __RT_1025
; 281  : 	DWORD dwState	= pMover->m_RTMessenger.GetState();
; 282  : 	bOK[++j] = qry->BindParameter( ++i, SQL_PARAM_INPUT, SQL_C_LONG, SQL_INTEGER,   0, 0, &dwState, 0, 0 );
; 283  : #else	// __RT_1025
; 284  : 	bOK[++j] = qry->BindParameter( ++i, SQL_PARAM_INPUT, SQL_C_LONG, SQL_INTEGER,   0, 0, &pMover->m_Messenger.m_dwMyState, 0, 0 );
; 285  : #endif	// __RT_1025
; 286  : 	bOK[++j] = qry->BindParameter( ++i, SQL_PARAM_INPUT, SQL_C_LONG, SQL_INTEGER,   0, 0, &nTotalPlayTime, 0, 0 );
; 287  : #if __VER >= 8 // __S8_PK
; 288  : 	bOK[++j] = qry->BindParameter( ++i, SQL_PARAM_INPUT, SQL_C_LONG, SQL_INTEGER,   0, 0, &pMover->m_nPKValue, 0, 0 );
; 289  : 	// 5
; 290  : 	bOK[++j] = qry->BindParameter( ++i, SQL_PARAM_INPUT, SQL_C_LONG, SQL_INTEGER,   0, 0, &pMover->m_dwPKPropensity, 0, 0 );
; 291  : 	bOK[++j] = qry->BindParameter( ++i, SQL_PARAM_INPUT, SQL_C_LONG, SQL_INTEGER,   0, 0, &pMover->m_dwPKExp, 0, 0 );
; 292  : #endif // __VER >= 8 // __S8_PK
; 293  : 	bOK[++j] = qry->BindParameter( ++i, SQL_PARAM_INPUT, SQL_C_CHAR,  SQL_VARCHAR,  1980, 0, Card, 0, &cbLen );
; 294  : 	bOK[++j] = qry->BindParameter( ++i, SQL_PARAM_INPUT, SQL_C_CHAR,  SQL_VARCHAR,  215,  0, sCardIndex, 0, &cbLen );
; 295  : 	bOK[++j] = qry->BindParameter( ++i, SQL_PARAM_INPUT, SQL_C_CHAR,  SQL_VARCHAR,  215,  0, sCardObjIndex, 0, &cbLen );
; 296  : 	bOK[++j] = qry->BindParameter( ++i, SQL_PARAM_INPUT, SQL_C_CHAR,  SQL_VARCHAR,  1980, 0, Cube, 0, &cbLen );
; 297  : 	bOK[++j] = qry->BindParameter( ++i, SQL_PARAM_INPUT, SQL_C_CHAR,  SQL_VARCHAR,  215,  0, sCubeIndex, 0, &cbLen );
; 298  : 	bOK[++j] = qry->BindParameter( ++i, SQL_PARAM_INPUT, SQL_C_CHAR,  SQL_VARCHAR,  215,  0, sCubeObjIndex, 0, &cbLen );
; 299  : 	bOK[++j] = qry->BindParameter( ++i, SQL_PARAM_INPUT, SQL_C_CHAR,  SQL_VARCHAR,  6940, 0, icsInventory.szItem, 0, &cbLen );
; 300  : 	bOK[++j] = qry->BindParameter( ++i, SQL_PARAM_INPUT, SQL_C_CHAR,  SQL_VARCHAR,  345 , 0, icsInventory.szIndex, 0, &cbLen );
; 301  : 	bOK[++j] = qry->BindParameter( ++i, SQL_PARAM_INPUT, SQL_C_CHAR,  SQL_VARCHAR,  135 , 0, Equipment, 0, &cbLen );
; 302  : 	// 6
; 303  : 	bOK[++j] = qry->BindParameter( ++i, SQL_PARAM_INPUT, SQL_C_CHAR,  SQL_VARCHAR,  345 , 0, icsInventory.szObjIndex, 0, &cbLen );
; 304  : 	bOK[++j] = qry->BindParameter( ++i, SQL_PARAM_INPUT, SQL_C_CHAR,  SQL_VARCHAR,  3100, 0, AppletTaskBar, 0, &cbLen );
; 305  : 	bOK[++j] = qry->BindParameter( ++i, SQL_PARAM_INPUT, SQL_C_CHAR,  SQL_VARCHAR,  6885, 0, ItemTaskBar, 0, &cbLen );
; 306  : 	bOK[++j] = qry->BindParameter( ++i, SQL_PARAM_INPUT, SQL_C_CHAR,  SQL_VARCHAR,  225, 0, SkillTaskBar, 0, &cbLen );
; 307  : 	bOK[++j] = qry->BindParameter( ++i, SQL_PARAM_INPUT, SQL_C_SHORT, SQL_SMALLINT, 0, 0, &pMover->m_UserTaskBar.m_nActionPoint, 0, 0 );
; 308  : 	bOK[++j] = qry->BindParameter( ++i, SQL_PARAM_INPUT, SQL_C_CHAR,  SQL_VARCHAR,  4290, 0, icsBank[pMover->m_nSlot].szItem, 0, &cbLen );
; 309  : 	bOK[++j] = qry->BindParameter( ++i, SQL_PARAM_INPUT, SQL_C_CHAR,  SQL_VARCHAR,  215, 0, icsBank[pMover->m_nSlot].szIndex, 0, &cbLen );
; 310  : 	bOK[++j] = qry->BindParameter( ++i, SQL_PARAM_INPUT, SQL_C_CHAR,  SQL_VARCHAR,  215, 0, icsBank[pMover->m_nSlot].szObjIndex, 0, &cbLen );
; 311  : 	bOK[++j] = qry->BindParameter( ++i, SQL_PARAM_INPUT, SQL_C_LONG, SQL_INTEGER,   0, 0, &pMover->m_dwGoldBank[pMover->m_nSlot], 0, 0 );
; 312  : 	bOK[++j] = qry->BindParameter( ++i, SQL_PARAM_INPUT, SQL_C_LONG, SQL_INTEGER,   0, 0, &pMover->m_nFuel, 0, 0 );
; 313  : 	bOK[++j] = qry->BindParameter( ++i, SQL_PARAM_INPUT, SQL_C_LONG, SQL_INTEGER,   0, 0, &pMover->m_tmAccFuel, 0, 0 );
; 314  : 	// 7
; 315  : 	bOK[++j] = qry->BindParameter( ++i, SQL_PARAM_INPUT, SQL_C_CHAR,  SQL_VARCHAR,  2560, 0, szSMTime, 0, &cbLen );
; 316  : 	bOK[++j] = qry->BindParameter( ++i, SQL_PARAM_INPUT, SQL_C_CHAR,  SQL_VARCHAR,  7500, 0, szSkillInfluence, 0, &cbLen );
; 317  : 	bOK[++j] = qry->BindParameter( ++i, SQL_PARAM_INPUT, SQL_C_LONG, SQL_INTEGER,   0, 0, &dwSkillPoint, 0, 0 );
; 318  : 	bOK[++j] = qry->BindParameter( ++i, SQL_PARAM_INPUT, SQL_C_CHAR,  SQL_VARCHAR,  1024, 0, m_aCompleteQuest, 0, &cbLen );
; 319  : 	bOK[++j] = qry->BindParameter( ++i, SQL_PARAM_INPUT, SQL_C_CHAR,  SQL_VARCHAR,  2000, 0, icsInventory.szExt, 0, &cbLen );
; 320  : 	bOK[++j] = qry->BindParameter( ++i, SQL_PARAM_INPUT, SQL_C_CHAR,  SQL_VARCHAR,  2000, 0, icsBank[pMover->m_nSlot].szExt, 0, &cbLen );
; 321  : #if __VER >= 15 // __PETVIS
; 322  : 	bOK[++j] = qry->BindParameter( ++i, SQL_PARAM_INPUT, SQL_C_CHAR,  SQL_VARCHAR,  7800, 0, icsInventory.szPiercing, 0, &cbLen );
; 323  : 	bOK[++j] = qry->BindParameter( ++i, SQL_PARAM_INPUT, SQL_C_CHAR,  SQL_VARCHAR,  7800, 0, icsBank[pMover->m_nSlot].szPiercing, 0, &cbLen );
; 324  : #else // __PETVIS
; 325  : 	bOK[++j] = qry->BindParameter( ++i, SQL_PARAM_INPUT, SQL_C_CHAR,  SQL_VARCHAR,  2000, 0, icsInventory.szPiercing, 0, &cbLen );
; 326  : 	bOK[++j] = qry->BindParameter( ++i, SQL_PARAM_INPUT, SQL_C_CHAR,  SQL_VARCHAR,  2000, 0, icsBank[pMover->m_nSlot].szPiercing, 0, &cbLen );
; 327  : #endif // __PETVIS
; 328  : 	bOK[++j] = qry->BindParameter( ++i, SQL_PARAM_INPUT, SQL_C_LONG, SQL_INTEGER,   0, 0, &pMover->m_dwReturnWorldID, 0, 0 );
; 329  : 	bOK[++j] = qry->BindParameter( ++i, SQL_PARAM_INPUT, SQL_C_LONG, SQL_INTEGER,   0, 0, &pMover->m_nSkillPoint, 0, 0 );
; 330  : 	bOK[++j] = qry->BindParameter( ++i, SQL_PARAM_INPUT, SQL_C_LONG, SQL_INTEGER,   0, 0, &pMover->m_nSkillLevel, 0, 0 );
; 331  : 	bOK[++j] = qry->BindParameter( ++i, SQL_PARAM_INPUT, SQL_C_SBIGINT, SQL_BIGINT, 0, 0, &nSkillExp, 0, 0 );
; 332  : #ifdef __EVENT_1101
; 333  : 	#ifdef __EVENT_1101_2
; 334  : 	bOK[++j] = qry->BindParameter( ++i, SQL_PARAM_INPUT, SQL_C_SBIGINT, SQL_BIGINT,   0, 0, &pMover->m_nEventFlag, 0, 0 );
; 335  : 	#else // __EVENT_1101_2
; 336  : 	bOK[++j] = qry->BindParameter( ++i, SQL_PARAM_INPUT, SQL_C_LONG, SQL_INTEGER,   0, 0, &pMover->m_dwEventFlag, 0, 0 );
; 337  : 	#endif // __EVENT_1101_2
; 338  : 	bOK[++j] = qry->BindParameter( ++i, SQL_PARAM_INPUT, SQL_C_LONG, SQL_INTEGER,   0, 0, &pMover->m_dwEventTime, 0, 0 );
; 339  : 	bOK[++j] = qry->BindParameter( ++i, SQL_PARAM_INPUT, SQL_C_LONG, SQL_INTEGER,   0, 0, &pMover->m_dwEventElapsed, 0, 0 );
; 340  : #endif	// __EVENT_1101
; 341  : #if __VER >= 8 // __CSC_VER8_5
; 342  : 	bOK[++j] = qry->BindParameter( ++i, SQL_PARAM_INPUT, SQL_C_SBIGINT, SQL_BIGINT, 0, 0, &pMover->m_nAngelExp, 0, 0 );
; 343  : 	bOK[++j] = qry->BindParameter( ++i, SQL_PARAM_INPUT, SQL_C_LONG, SQL_INTEGER, 0, 0, &pMover->m_nAngelLevel, 0, 0 );
; 344  : #endif // __CSC_VER8_5
; 345  : 	bOK[++j] = qry->BindParameter( ++i, SQL_PARAM_INPUT, SQL_C_CHAR,  SQL_VARCHAR,  2000, 0, icsInventory.szPet, 0, &cbLen );
; 346  : 	bOK[++j] = qry->BindParameter( ++i, SQL_PARAM_INPUT, SQL_C_CHAR,  SQL_VARCHAR,  2000, 0, icsBank[pMover->m_nSlot].szPet, 0, &cbLen );
; 347  : 	DWORD dwPetId	= pMover->GetPetId();
; 348  : 	bOK[++j] = qry->BindParameter( ++i, SQL_PARAM_INPUT, SQL_C_LONG, SQL_INTEGER,   0, 0, &dwPetId, 0, 0 );
; 349  : #ifdef __EXP_ANGELEXP_LOG
; 350  : 	bOK[++j] = qry->BindParameter( ++i, SQL_PARAM_INPUT, SQL_C_LONG, SQL_INTEGER,   0, 0, &pMover->m_nExpLog, 0, 0 );
; 351  : 	bOK[++j] = qry->BindParameter( ++i, SQL_PARAM_INPUT, SQL_C_LONG, SQL_INTEGER,   0, 0, &pMover->m_nAngelExpLog, 0, 0 );
; 352  : #endif // __EXP_ANGELEXP_LOG
; 353  : 
; 354  : #ifdef __EVENTLUA_COUPON
; 355  : 	bOK[++j] = qry->BindParameter( ++i, SQL_PARAM_INPUT, SQL_C_LONG, SQL_INTEGER,   0, 0, &pMover->m_nCoupon, 0, 0 );
; 356  : #endif // __EVENTLUA_COUPON
; 357  : #if __VER >= 13 // __HONORABLE_TITLE			// 
; 358  : 	bOK[++j] = qry->BindParameter( ++i, SQL_PARAM_INPUT, SQL_C_LONG, SQL_INTEGER,   0, 0, &pMover->m_nHonor, 0, 0 );
; 359  : #endif	// __HONORABLE_TITLE			// 
; 360  : #ifdef __LAYER_1015
; 361  : 	int nLayer	= pMover->GetLayer();
; 362  : 	bOK[++j]	= qry->BindParameter( ++i, SQL_PARAM_INPUT, SQL_C_LONG, SQL_INTEGER,   0, 0, &nLayer, 0, 0 );
; 363  : #endif	// __LAYER_1015
; 364  : #if __VER >= 15 // __IMPROVE_QUEST_INTERFACE
; 365  : 	bOK[++j] = qry->BindParameter( ++i, SQL_PARAM_INPUT, SQL_C_CHAR,  SQL_VARCHAR,  100, 0, CheckedQuest, 0, &cbLen );
; 366  : #endif // __IMPROVE_QUEST_INTERFACE
; 367  : #if __VER >= 15 // __CAMPUS
; 368  : 	int nCampusPoint	= pMover->GetCampusPoint();
; 369  : 	bOK[++j]	= qry->BindParameter( ++i, SQL_PARAM_INPUT, SQL_C_LONG, SQL_INTEGER,   0, 0, &nCampusPoint, 0, 0 );
; 370  : 	u_long idCampus		= pMover->GetCampusId();
; 371  : 	bOK[++j]	= qry->BindParameter( ++i, SQL_PARAM_INPUT, SQL_C_LONG, SQL_INTEGER,   0, 0, &idCampus, 0, 0 );
; 372  : #endif // __CAMPUS
; 373  : 	for( i=0; i<j; ++i )
; 374  : 	{
; 375  : 		if( bOK[i] == FALSE )
; 376  : 		{
; 377  : 			char szBuffer[128];
; 378  : 			sprintf( szBuffer, "SavePlayer(%s) - %dth bindparam error - %d", pMover->m_szName, i+1, ::GetCurrentThreadId() );

  017ca	8b 1d 00 00 00
	00		 mov	 ebx, DWORD PTR __imp__GetCurrentThreadId@0
  017d0	ff d3		 call	 ebx
  017d2	8b 54 24 0c	 mov	 edx, DWORD PTR _i$[esp+198560]
  017d6	50		 push	 eax
  017d7	8b 44 24 1c	 mov	 eax, DWORD PTR tv2624[esp+198564]
  017db	42		 inc	 edx
  017dc	52		 push	 edx
  017dd	50		 push	 eax
  017de	8d 8c 24 0c 4b
	02 00		 lea	 ecx, DWORD PTR _szBuffer$207876[esp+198572]
  017e5	68 00 00 00 00	 push	 OFFSET FLAT:??_C@_0CL@CFFKAAJH@SavePlayer?$CI?$CFs?$CJ?5?9?5?$CFdth?5bindparam?5@
  017ea	51		 push	 ecx
  017eb	e8 00 00 00 00	 call	 _sprintf

; 379  : 		#ifdef _DEBUG
; 380  : 			AfxMessageBox( szBuffer );
; 381  : 		#endif
; 382  : 			WriteLog( szBuffer );

  017f0	8d 94 24 14 4b
	02 00		 lea	 edx, DWORD PTR _szBuffer$207876[esp+198580]
  017f7	52		 push	 edx
  017f8	e8 00 00 00 00	 call	 ?WriteLog@@YAXPBDZZ	; WriteLog
  017fd	83 c4 18	 add	 esp, 24			; 00000018H

; 383  : 
; 384  : 			// chipi_  DB Reconnect
; 385  : 			WriteLog( "try DB Reconnect... - ThreadId : %d", ::GetCurrentThreadId() );

  01800	ff d3		 call	 ebx
  01802	50		 push	 eax
  01803	68 00 00 00 00	 push	 OFFSET FLAT:??_C@_0CE@ELFBACKP@try?5DB?5Reconnect?4?4?4?5?9?5ThreadId?5?3@
  01808	e8 00 00 00 00	 call	 ?WriteLog@@YAXPBDZZ	; WriteLog
  0180d	83 c4 08	 add	 esp, 8

; 386  : 			qry->DisConnect();

  01810	8b ce		 mov	 ecx, esi
  01812	e8 00 00 00 00	 call	 ?DisConnect@CQuery@@QAEXXZ ; CQuery::DisConnect

; 387  : 			if( qry->Connect( 3, qry->DBName, qry->DBId, qry->DBPass ) )

  01817	8d 86 00 02 00
	00		 lea	 eax, DWORD PTR [esi+512]
  0181d	50		 push	 eax
  0181e	8d 8e 00 01 00
	00		 lea	 ecx, DWORD PTR [esi+256]
  01824	51		 push	 ecx
  01825	56		 push	 esi
  01826	6a 03		 push	 3
  01828	8b ce		 mov	 ecx, esi
  0182a	e8 00 00 00 00	 call	 ?Connect@CQuery@@QAEHHPAD0PBD@Z ; CQuery::Connect
  0182f	85 c0		 test	 eax, eax
  01831	74 1c		 je	 SHORT $L207879

; 388  : 				WriteLog( "DB Reconnect Success! - ThreadId : %d", ::GetCurrentThreadId() );

  01833	ff d3		 call	 ebx
  01835	50		 push	 eax
  01836	68 00 00 00 00	 push	 OFFSET FLAT:??_C@_0CG@FNBKCMMG@DB?5Reconnect?5Success?$CB?5?9?5ThreadId@

; 389  : 			else
; 390  : 				WriteLog( "DB Reconnect Failed! - ThreadId : %d", ::GetCurrentThreadId() );

  0183b	e8 00 00 00 00	 call	 ?WriteLog@@YAXPBDZZ	; WriteLog
  01840	83 c4 08	 add	 esp, 8

; 391  : 			qry->Clear();

  01843	8b ce		 mov	 ecx, esi
  01845	e8 00 00 00 00	 call	 ?Clear@CQuery@@QAEXXZ	; CQuery::Clear

; 392  : 			// chipi_  DB Reconnect
; 393  : 
; 394  : 			SAFE_DELETE_ARRAY( bOK );
; 395  : 			return;

  0184a	e9 3e 05 00 00	 jmp	 $L207921
$L207879:

; 389  : 			else
; 390  : 				WriteLog( "DB Reconnect Failed! - ThreadId : %d", ::GetCurrentThreadId() );

  0184f	ff d3		 call	 ebx
  01851	50		 push	 eax
  01852	68 00 00 00 00	 push	 OFFSET FLAT:??_C@_0CF@CBPPBEJP@DB?5Reconnect?5Failed?$CB?5?9?5ThreadId?5@
  01857	e8 00 00 00 00	 call	 ?WriteLog@@YAXPBDZZ	; WriteLog
  0185c	83 c4 08	 add	 esp, 8

; 391  : 			qry->Clear();

  0185f	8b ce		 mov	 ecx, esi
  01861	e8 00 00 00 00	 call	 ?Clear@CQuery@@QAEXXZ	; CQuery::Clear

; 392  : 			// chipi_  DB Reconnect
; 393  : 
; 394  : 			SAFE_DELETE_ARRAY( bOK );
; 395  : 			return;

  01866	e9 22 05 00 00	 jmp	 $L207921
$L207886:

; 396  : 		}
; 397  : 	}
; 398  : 
; 399  : 	if( qry->Exec( szQuery ) == FALSE )
; 400  : 	{
; 401  : 		WriteLog( "SavePlayer(%s) - Exec RETURN FALSE, ThreadID : %d", pMover->m_szName, ::GetCurrentThreadId() );
; 402  : 		SAFE_DELETE_ARRAY( bOK );
; 403  : 		return;
; 404  : 	}
; 405  : 
; 406  : 	if( qry->Fetch() )

  0186b	8b ce		 mov	 ecx, esi
  0186d	e8 00 00 00 00	 call	 ?Fetch@CQuery@@QAEHXZ	; CQuery::Fetch
  01872	85 c0		 test	 eax, eax
  01874	74 41		 je	 SHORT $L207894

; 407  : 	{
; 408  : 		int nError = qry->GetInt( "fError" );

  01876	68 00 00 00 00	 push	 OFFSET FLAT:??_C@_06MJMGIOFA@fError?$AA@
  0187b	8b ce		 mov	 ecx, esi
  0187d	e8 00 00 00 00	 call	 ?GetInt@CQuery@@QAEHPAD@Z ; CQuery::GetInt

; 409  : 		if( nError != 1 )

  01882	83 f8 01	 cmp	 eax, 1
  01885	74 30		 je	 SHORT $L207894

; 410  : 		{
; 411  : 			WriteLog( "SavePlayer(%s) - fError:%d", pMover->m_szName, nError );

  01887	8b 4c 24 18	 mov	 ecx, DWORD PTR tv2624[esp+198560]
  0188b	50		 push	 eax
  0188c	51		 push	 ecx
  0188d	68 00 00 00 00	 push	 OFFSET FLAT:??_C@_0BL@JKHLBFHF@SavePlayer?$CI?$CFs?$CJ?5?9?5fError?3?$CFd?$AA@
  01892	e8 00 00 00 00	 call	 ?WriteLog@@YAXPBDZZ	; WriteLog

; 412  : 			SAFE_DELETE_ARRAY( bOK );

  01897	57		 push	 edi
  01898	e8 00 00 00 00	 call	 ??_V@YAXPAX@Z		; operator delete[]
  0189d	83 c4 10	 add	 esp, 16			; 00000010H

; 518  : }

  018a0	5f		 pop	 edi
  018a1	5e		 pop	 esi
  018a2	5b		 pop	 ebx
  018a3	8b 8c 24 90 07
	03 00		 mov	 ecx, DWORD PTR __$ArrayPad$[esp+198548]
  018aa	33 cd		 xor	 ecx, ebp
  018ac	e8 00 00 00 00	 call	 @__security_check_cookie@4
  018b1	8b e5		 mov	 esp, ebp
  018b3	5d		 pop	 ebp
  018b4	c2 10 00	 ret	 16			; 00000010H
$L207894:

; 413  : 			return;
; 414  : 		}
; 415  : 	}
; 416  : 
; 417  : #ifndef __RT_1025
; 418  : 	SaveMessengerFriend( qry, pMover, szQuery );
; 419  : #endif	// __RT_1025
; 420  : 
; 421  : #if __VER >= 13 // __HONORABLE_TITLE			// 
; 422  : 	SaveHonor( qry, pMover->m_idPlayer, pMover->m_aHonorTitle, szQuery );

  018b7	8b 54 24 1c	 mov	 edx, DWORD PTR $T210570[esp+198560]
  018bb	8b 8b 90 00 00
	00		 mov	 ecx, DWORD PTR [ebx+144]
  018c1	52		 push	 edx
  018c2	8d 83 48 42 00
	00		 lea	 eax, DWORD PTR [ebx+16968]
  018c8	50		 push	 eax
  018c9	51		 push	 ecx
  018ca	8b 4c 24 20	 mov	 ecx, DWORD PTR $T210566[esp+198572]
  018ce	56		 push	 esi
  018cf	e8 00 00 00 00	 call	 ?SaveHonor@CDbManager@@QAEXPAVCQuery@@KPAHPAD@Z ; CDbManager::SaveHonor

; 423  : #endif	// __HONORABLE_TITLE			// 
; 424  : 
; 425  : #ifndef __S_NEW_SKILL_2
; 426  : #ifdef __SKILL_0205
; 427  : 	SaveSkill( qry, pMover->m_idPlayer, pMover->m_aJobSkill, pMover->m_abUpdateSkill, szQuery );

  018d4	8b 54 24 1c	 mov	 edx, DWORD PTR $T210570[esp+198560]
  018d8	52		 push	 edx
  018d9	8b 93 90 00 00
	00		 mov	 edx, DWORD PTR [ebx+144]
  018df	8d 83 98 02 00
	00		 lea	 eax, DWORD PTR [ebx+664]
  018e5	50		 push	 eax
  018e6	8d 8b 00 01 00
	00		 lea	 ecx, DWORD PTR [ebx+256]
  018ec	51		 push	 ecx
  018ed	8b 4c 24 20	 mov	 ecx, DWORD PTR $T210566[esp+198572]
  018f1	52		 push	 edx
  018f2	56		 push	 esi
  018f3	e8 00 00 00 00	 call	 ?SaveSkill@CDbManager@@QAEXPAVCQuery@@KPAUtagSKILL@@PAEPAD@Z ; CDbManager::SaveSkill

; 428  : #else	// __SKILL_0205
; 429  : 	SaveSkill( qry, pMover->m_idPlayer, pMover->m_aJobSkill, szQuery );
; 430  : #endif	// __SKILL_0205
; 431  : 
; 432  : #endif // __S_NEW_SKILL_2
; 433  : 
; 434  : 	//   bank 
; 435  : 	for( i = 0 ; i < 3 ; ++i )

  018f8	33 d2		 xor	 edx, edx
  018fa	33 c0		 xor	 eax, eax
  018fc	89 44 24 0c	 mov	 DWORD PTR _i$[esp+198560], eax
$L207899:

; 436  : 	{
; 437  : 		if( pMover->m_idPlayerBank[i] != 0 && i != pMover->m_nSlot )

  01900	39 94 83 88 41
	00 00		 cmp	 DWORD PTR [ebx+eax*4+16776], edx
  01907	0f 84 be 01 00
	00		 je	 $L207900
  0190d	0f b6 8b c8 00
	00 00		 movzx	 ecx, BYTE PTR [ebx+200]
  01914	3b c1		 cmp	 eax, ecx
  01916	0f 84 af 01 00
	00		 je	 $L207900

; 438  : 		{
; 439  : 			ADDBANK_QUERYINFO info( "U1" );

  0191c	89 54 24 24	 mov	 DWORD PTR _info$207903[esp+198564], edx
  01920	89 54 24 3c	 mov	 DWORD PTR _info$207903[esp+198588], edx
  01924	b9 00 00 00 00	 mov	 ecx, OFFSET FLAT:??_C@_00CNPNBAHC@?$AA@
  01929	89 4c 24 28	 mov	 DWORD PTR _info$207903[esp+198568], ecx
  0192d	89 4c 24 2c	 mov	 DWORD PTR _info$207903[esp+198572], ecx
  01931	89 4c 24 30	 mov	 DWORD PTR _info$207903[esp+198576], ecx
  01935	89 4c 24 34	 mov	 DWORD PTR _info$207903[esp+198580], ecx
  01939	89 4c 24 38	 mov	 DWORD PTR _info$207903[esp+198584], ecx
  0193d	89 4c 24 40	 mov	 DWORD PTR _info$207903[esp+198592], ecx
  01941	c7 44 24 20 00
	00 00 00	 mov	 DWORD PTR _info$207903[esp+198560], OFFSET FLAT:??_C@_02KMJEMNAE@U1?$AA@

; 440  : 			info.idPlayer			= pMover->m_idPlayerBank[i];

  01949	8b 8c 83 88 41
	00 00		 mov	 ecx, DWORD PTR [ebx+eax*4+16776]
  01950	89 4c 24 24	 mov	 DWORD PTR _info$207903[esp+198564], ecx

; 441  : 			info.dwGoldBank			= pMover->m_dwGoldBank[i];

  01954	8b 94 83 d0 41
	00 00		 mov	 edx, DWORD PTR [ebx+eax*4+16848]

; 442  : 			info.pszBank			= icsBank[i].szItem;

  0195b	69 c0 a8 53 00
	00		 imul	 eax, 21416		; 000053a8H
  01961	89 54 24 3c	 mov	 DWORD PTR _info$207903[esp+198588], edx
  01965	8d 94 04 68 4f
	01 00		 lea	 edx, DWORD PTR _icsBank$[esp+eax+198560]
  0196c	89 54 24 28	 mov	 DWORD PTR _info$207903[esp+198568], edx

; 443  : 			info.pszBankIndex		= icsBank[i].szIndex;

  01970	8d 94 04 68 67
	01 00		 lea	 edx, DWORD PTR _icsBank$[esp+eax+204704]
  01977	89 54 24 2c	 mov	 DWORD PTR _info$207903[esp+198572], edx

; 444  : 			info.pszObjIndexBank	= icsBank[i].szObjIndex;

  0197b	8d 94 04 68 69
	01 00		 lea	 edx, DWORD PTR _icsBank$[esp+eax+205216]
  01982	89 54 24 30	 mov	 DWORD PTR _info$207903[esp+198576], edx

; 445  : 			info.pszExtBank			= icsBank[i].szExt;

  01986	8d 94 04 68 6b
	01 00		 lea	 edx, DWORD PTR _icsBank$[esp+eax+205728]
  0198d	89 54 24 34	 mov	 DWORD PTR _info$207903[esp+198580], edx

; 446  : 			info.pszPirecingBank	= icsBank[i].szPiercing;

  01991	8d 94 04 68 73
	01 00		 lea	 edx, DWORD PTR _icsBank$[esp+eax+207776]
  01998	89 54 24 38	 mov	 DWORD PTR _info$207903[esp+198584], edx

; 447  : 			info.pszBankPet		= icsBank[i].szPet;
; 448  : 
; 449  : 			DBQryAddBankSave( szQuery, info );

  0199c	8b 15 00 00 00
	00		 mov	 edx, DWORD PTR ?g_appInfo@@3UAppInfo@@A
  019a2	52		 push	 edx
  019a3	8d 84 04 ac 92
	01 00		 lea	 eax, DWORD PTR _icsBank$[esp+eax+215780]
  019aa	51		 push	 ecx
  019ab	89 44 24 48	 mov	 DWORD PTR _info$207903[esp+198600], eax
  019af	8b 44 24 24	 mov	 eax, DWORD PTR $T210570[esp+198568]
  019b3	68 00 00 00 00	 push	 OFFSET FLAT:??_C@_0DN@DMOMIHCK@?$HLcall?5ADD_BANK_STR?$CI?8U1?8?0?8?$CF07d?8?0?8@
  019b8	50		 push	 eax
  019b9	e8 00 00 00 00	 call	 _sprintf

; 450  : 			
; 451  : 			{
; 452  : 				SQLINTEGER cbLen = SQL_NTS;
; 453  : 				BOOL bOK[7];
; 454  : 				bOK[0] = qry->BindParameter( 1, SQL_PARAM_INPUT, SQL_C_CHAR,  SQL_VARCHAR,  4290, 0, (char*)info.pszBank, 0, &cbLen );

  019be	8b 54 24 38	 mov	 edx, DWORD PTR _info$207903[esp+198584]
  019c2	83 c4 10	 add	 esp, 16			; 00000010H
  019c5	8d 4c 24 18	 lea	 ecx, DWORD PTR _cbLen$207905[esp+198560]
  019c9	51		 push	 ecx
  019ca	6a 00		 push	 0
  019cc	52		 push	 edx
  019cd	6a 00		 push	 0
  019cf	68 c2 10 00 00	 push	 4290			; 000010c2H
  019d4	6a 0c		 push	 12			; 0000000cH
  019d6	6a 01		 push	 1
  019d8	6a 01		 push	 1
  019da	6a 01		 push	 1
  019dc	8b ce		 mov	 ecx, esi
  019de	c7 44 24 3c fd
	ff ff ff	 mov	 DWORD PTR _cbLen$207905[esp+198596], -3 ; fffffffdH
  019e6	e8 00 00 00 00	 call	 ?BindParameter@CQuery@@QAEHGFFFKFPAXJPAJ@Z ; CQuery::BindParameter

; 455  : 				bOK[1] = qry->BindParameter( 2, SQL_PARAM_INPUT, SQL_C_CHAR,  SQL_VARCHAR,  215, 0, (char*)info.pszBankIndex, 0, &cbLen );

  019eb	8b 4c 24 2c	 mov	 ecx, DWORD PTR _info$207903[esp+198572]
  019ef	8d 44 24 18	 lea	 eax, DWORD PTR _cbLen$207905[esp+198560]
  019f3	50		 push	 eax
  019f4	6a 00		 push	 0
  019f6	51		 push	 ecx
  019f7	6a 00		 push	 0
  019f9	68 d7 00 00 00	 push	 215			; 000000d7H
  019fe	6a 0c		 push	 12			; 0000000cH
  01a00	6a 01		 push	 1
  01a02	6a 01		 push	 1
  01a04	6a 02		 push	 2
  01a06	8b ce		 mov	 ecx, esi
  01a08	e8 00 00 00 00	 call	 ?BindParameter@CQuery@@QAEHGFFFKFPAXJPAJ@Z ; CQuery::BindParameter

; 456  : 				bOK[2] = qry->BindParameter( 3, SQL_PARAM_INPUT, SQL_C_CHAR,  SQL_VARCHAR,  215, 0, (char*)info.pszObjIndexBank, 0, &cbLen );

  01a0d	8b 44 24 30	 mov	 eax, DWORD PTR _info$207903[esp+198576]
  01a11	8d 54 24 18	 lea	 edx, DWORD PTR _cbLen$207905[esp+198560]
  01a15	52		 push	 edx
  01a16	6a 00		 push	 0
  01a18	50		 push	 eax
  01a19	6a 00		 push	 0
  01a1b	68 d7 00 00 00	 push	 215			; 000000d7H
  01a20	6a 0c		 push	 12			; 0000000cH
  01a22	6a 01		 push	 1
  01a24	6a 01		 push	 1
  01a26	6a 03		 push	 3
  01a28	8b ce		 mov	 ecx, esi
  01a2a	e8 00 00 00 00	 call	 ?BindParameter@CQuery@@QAEHGFFFKFPAXJPAJ@Z ; CQuery::BindParameter

; 457  : 				bOK[3] = qry->BindParameter( 4, SQL_PARAM_INPUT, SQL_C_LONG,  SQL_INTEGER,  0, 0, &info.dwGoldBank, 0, 0 );

  01a2f	6a 00		 push	 0
  01a31	6a 00		 push	 0
  01a33	8d 4c 24 44	 lea	 ecx, DWORD PTR _info$207903[esp+198596]
  01a37	51		 push	 ecx
  01a38	6a 00		 push	 0
  01a3a	6a 00		 push	 0
  01a3c	6a 04		 push	 4
  01a3e	6a 04		 push	 4
  01a40	6a 01		 push	 1
  01a42	6a 04		 push	 4
  01a44	8b ce		 mov	 ecx, esi
  01a46	e8 00 00 00 00	 call	 ?BindParameter@CQuery@@QAEHGFFFKFPAXJPAJ@Z ; CQuery::BindParameter

; 458  : 				bOK[4] = qry->BindParameter( 5, SQL_PARAM_INPUT, SQL_C_CHAR,  SQL_VARCHAR,  2000, 0, (char*)info.pszExtBank, 0, &cbLen );

  01a4b	8b 44 24 34	 mov	 eax, DWORD PTR _info$207903[esp+198580]
  01a4f	8d 54 24 18	 lea	 edx, DWORD PTR _cbLen$207905[esp+198560]
  01a53	52		 push	 edx
  01a54	6a 00		 push	 0
  01a56	50		 push	 eax
  01a57	6a 00		 push	 0
  01a59	68 d0 07 00 00	 push	 2000			; 000007d0H
  01a5e	6a 0c		 push	 12			; 0000000cH
  01a60	6a 01		 push	 1
  01a62	6a 01		 push	 1
  01a64	6a 05		 push	 5
  01a66	8b ce		 mov	 ecx, esi
  01a68	e8 00 00 00 00	 call	 ?BindParameter@CQuery@@QAEHGFFFKFPAXJPAJ@Z ; CQuery::BindParameter

; 459  : #if __VER >= 15 // __PETVIS
; 460  : 				bOK[5] = qry->BindParameter( 6, SQL_PARAM_INPUT, SQL_C_CHAR,  SQL_VARCHAR,  7800, 0, (char*)info.pszPirecingBank, 0, &cbLen );

  01a6d	8b 54 24 38	 mov	 edx, DWORD PTR _info$207903[esp+198584]
  01a71	8d 4c 24 18	 lea	 ecx, DWORD PTR _cbLen$207905[esp+198560]
  01a75	51		 push	 ecx
  01a76	6a 00		 push	 0
  01a78	52		 push	 edx
  01a79	6a 00		 push	 0
  01a7b	68 78 1e 00 00	 push	 7800			; 00001e78H
  01a80	6a 0c		 push	 12			; 0000000cH
  01a82	6a 01		 push	 1
  01a84	6a 01		 push	 1
  01a86	6a 06		 push	 6
  01a88	8b ce		 mov	 ecx, esi
  01a8a	e8 00 00 00 00	 call	 ?BindParameter@CQuery@@QAEHGFFFKFPAXJPAJ@Z ; CQuery::BindParameter

; 461  : #else // __PETVIS
; 462  : 				bOK[5] = qry->BindParameter( 6, SQL_PARAM_INPUT, SQL_C_CHAR,  SQL_VARCHAR,  2000, 0, (char*)info.pszPirecingBank, 0, &cbLen );
; 463  : #endif // __PETVIS
; 464  : 				bOK[6] = qry->BindParameter( 7, SQL_PARAM_INPUT, SQL_C_CHAR,  SQL_VARCHAR,  2689, 0, (char*)info.pszBankPet, 0, &cbLen );

  01a8f	8b 4c 24 40	 mov	 ecx, DWORD PTR _info$207903[esp+198592]
  01a93	8d 44 24 18	 lea	 eax, DWORD PTR _cbLen$207905[esp+198560]
  01a97	50		 push	 eax
  01a98	6a 00		 push	 0
  01a9a	51		 push	 ecx
  01a9b	6a 00		 push	 0
  01a9d	68 81 0a 00 00	 push	 2689			; 00000a81H
  01aa2	6a 0c		 push	 12			; 0000000cH
  01aa4	6a 01		 push	 1
  01aa6	6a 01		 push	 1
  01aa8	6a 07		 push	 7
  01aaa	8b ce		 mov	 ecx, esi
  01aac	e8 00 00 00 00	 call	 ?BindParameter@CQuery@@QAEHGFFFKFPAXJPAJ@Z ; CQuery::BindParameter

; 465  : 			}
; 466  : 
; 467  : 			if( FALSE == qry->Exec( szQuery ) )

  01ab1	8b 54 24 1c	 mov	 edx, DWORD PTR $T210570[esp+198560]
  01ab5	52		 push	 edx
  01ab6	8b ce		 mov	 ecx, esi
  01ab8	e8 00 00 00 00	 call	 ?Exec@CQuery@@QAEHPBD@Z	; CQuery::Exec
  01abd	85 c0		 test	 eax, eax
  01abf	0f 84 c8 02 00
	00		 je	 $L207921
  01ac5	8b 44 24 0c	 mov	 eax, DWORD PTR _i$[esp+198560]
  01ac9	33 d2		 xor	 edx, edx
$L207900:
  01acb	40		 inc	 eax
  01acc	83 f8 03	 cmp	 eax, 3
  01acf	89 44 24 0c	 mov	 DWORD PTR _i$[esp+198560], eax
  01ad3	0f 8c 27 fe ff
	ff		 jl	 $L207899

; 468  : 			{
; 469  : 				SAFE_DELETE_ARRAY( bOK );
; 470  : 				return;
; 471  : 			}
; 472  : 		}
; 473  : 	}
; 474  : #if __VER >= 11 // __SYS_POCKET
; 475  : 	PocketStruct	aPocket[3];
; 476  : 	SavePocket( pMover, aPocket );

  01ad9	8b 4c 24 14	 mov	 ecx, DWORD PTR $T210566[esp+198560]
  01add	b8 01 00 00 00	 mov	 eax, 1
  01ae2	89 84 24 00 a8
	00 00		 mov	 DWORD PTR _aPocket$[esp+219976], eax
  01ae9	89 84 24 b0 fb
	00 00		 mov	 DWORD PTR _aPocket$[esp+241400], eax
  01af0	89 84 24 60 4f
	01 00		 mov	 DWORD PTR _aPocket$[esp+262824], eax
  01af7	8d 84 24 58 54
	00 00		 lea	 eax, DWORD PTR _aPocket$[esp+198560]
  01afe	50		 push	 eax
  01aff	53		 push	 ebx
  01b00	c6 84 24 60 54
	00 00 00	 mov	 BYTE PTR _aPocket$[esp+198568], 0
  01b08	c6 84 24 60 6c
	00 00 00	 mov	 BYTE PTR _aPocket$[esp+204712], 0
  01b10	c6 84 24 60 6e
	00 00 00	 mov	 BYTE PTR _aPocket$[esp+205224], 0
  01b18	c6 84 24 60 70
	00 00 00	 mov	 BYTE PTR _aPocket$[esp+205736], 0
  01b20	c6 84 24 60 78
	00 00 00	 mov	 BYTE PTR _aPocket$[esp+207784], 0
  01b28	c6 84 24 a0 97
	00 00 00	 mov	 BYTE PTR _aPocket$[esp+215784], 0
  01b30	89 94 24 0c a8
	00 00		 mov	 DWORD PTR _aPocket$[esp+219988], edx
  01b37	c6 84 24 10 a8
	00 00 00	 mov	 BYTE PTR _aPocket$[esp+219992], 0
  01b3f	c6 84 24 10 c0
	00 00 00	 mov	 BYTE PTR _aPocket$[esp+226136], 0
  01b47	c6 84 24 10 c2
	00 00 00	 mov	 BYTE PTR _aPocket$[esp+226648], 0
  01b4f	c6 84 24 10 c4
	00 00 00	 mov	 BYTE PTR _aPocket$[esp+227160], 0
  01b57	c6 84 24 10 cc
	00 00 00	 mov	 BYTE PTR _aPocket$[esp+229208], 0
  01b5f	c6 84 24 50 eb
	00 00 00	 mov	 BYTE PTR _aPocket$[esp+237208], 0
  01b67	89 94 24 bc fb
	00 00		 mov	 DWORD PTR _aPocket$[esp+241412], edx
  01b6e	c6 84 24 c0 fb
	00 00 00	 mov	 BYTE PTR _aPocket$[esp+241416], 0
  01b76	c6 84 24 c0 13
	01 00 00	 mov	 BYTE PTR _aPocket$[esp+247560], 0
  01b7e	c6 84 24 c0 15
	01 00 00	 mov	 BYTE PTR _aPocket$[esp+248072], 0
  01b86	c6 84 24 c0 17
	01 00 00	 mov	 BYTE PTR _aPocket$[esp+248584], 0
  01b8e	c6 84 24 c0 1f
	01 00 00	 mov	 BYTE PTR _aPocket$[esp+250632], 0
  01b96	c6 84 24 00 3f
	01 00 00	 mov	 BYTE PTR _aPocket$[esp+258632], 0
  01b9e	89 94 24 6c 4f
	01 00		 mov	 DWORD PTR _aPocket$[esp+262836], edx
  01ba5	e8 00 00 00 00	 call	 ?SavePocket@CDbManager@@QAEXPAVCMover@@PAU_PocketStruct@@@Z ; CDbManager::SavePocket

; 477  : 	for( i = 0; i < MAX_POCKET; i++ )

  01baa	33 c0		 xor	 eax, eax
  01bac	89 44 24 0c	 mov	 DWORD PTR _i$[esp+198560], eax
$L207919:

; 478  : 	{
; 479  : 		PocketParam	p;
; 480  : 		p.idPlayer	= pMover->m_idPlayer;

  01bb0	8b 8b 90 00 00
	00		 mov	 ecx, DWORD PTR [ebx+144]

; 481  : 		p.pszItem	= aPocket[i].szItem;

  01bb6	69 c0 b0 53 00
	00		 imul	 eax, 21424		; 000053b0H
  01bbc	8d 94 04 58 54
	00 00		 lea	 edx, DWORD PTR _aPocket$[esp+eax+198560]
  01bc3	89 54 24 28	 mov	 DWORD PTR _p$207922[esp+198568], edx

; 482  : 		p.pszIndex	= aPocket[i].szIndex;

  01bc7	8d 94 04 58 6c
	00 00		 lea	 edx, DWORD PTR _aPocket$[esp+eax+204704]
  01bce	89 54 24 2c	 mov	 DWORD PTR _p$207922[esp+198572], edx

; 483  : 		p.pszObjIndex	= aPocket[i].szObjIndex;

  01bd2	8d 94 04 58 6e
	00 00		 lea	 edx, DWORD PTR _aPocket$[esp+eax+205216]
  01bd9	89 54 24 30	 mov	 DWORD PTR _p$207922[esp+198576], edx

; 484  : 		p.pszExt	= aPocket[i].szExt;

  01bdd	8d 94 04 58 70
	00 00		 lea	 edx, DWORD PTR _aPocket$[esp+eax+205728]
  01be4	89 54 24 34	 mov	 DWORD PTR _p$207922[esp+198580], edx

; 485  : 		p.pszPiercing	= aPocket[i].szPiercing;

  01be8	8d 94 04 58 78
	00 00		 lea	 edx, DWORD PTR _aPocket$[esp+eax+207776]
  01bef	89 54 24 38	 mov	 DWORD PTR _p$207922[esp+198584], edx

; 486  : 		p.pszPet	= aPocket[i].szPet;

  01bf3	8d 94 04 98 97
	00 00		 lea	 edx, DWORD PTR _aPocket$[esp+eax+215776]

; 487  : 		p.bExpired	= aPocket[i].bExpired;
; 488  : 		p.tExpirationDate	= aPocket[i].tExpirationDate;
; 489  : 
; 490  : 		MakeQueryPocket( szQuery, p );

  01bfa	51		 push	 ecx
  01bfb	89 4c 24 24	 mov	 DWORD PTR _p$207922[esp+198564], ecx
  01bff	8b 0d 00 00 00
	00		 mov	 ecx, DWORD PTR ?g_appInfo@@3UAppInfo@@A
  01c05	89 54 24 40	 mov	 DWORD PTR _p$207922[esp+198592], edx
  01c09	8b 94 04 04 a8
	00 00		 mov	 edx, DWORD PTR _aPocket$[esp+eax+219980]
  01c10	8b 84 04 08 a8
	00 00		 mov	 eax, DWORD PTR _aPocket$[esp+eax+219984]
  01c17	51		 push	 ecx
  01c18	89 54 24 48	 mov	 DWORD PTR _p$207922[esp+198600], edx
  01c1c	8b 54 24 24	 mov	 edx, DWORD PTR $T210570[esp+198568]
  01c20	68 00 00 00 00	 push	 OFFSET FLAT:??_C@_0EC@CHCDNIKK@?$HLcall?5uspSavePocket?$CI?5?8?$CF02d?8?0?5?8?$CF0@
  01c25	52		 push	 edx
  01c26	c7 44 24 34 00
	00 00 00	 mov	 DWORD PTR _p$207922[esp+198580], 0
  01c2e	89 44 24 54	 mov	 DWORD PTR _p$207922[esp+198612], eax
  01c32	e8 00 00 00 00	 call	 _sprintf
  01c37	83 c4 10	 add	 esp, 16			; 00000010H

; 491  : 		SQLINTEGER	cbLen	= SQL_NTS;
; 492  : 		BOOL	bOk[9];
; 493  : 
; 494  : 		bOk[0]	= qry->BindParameter( 1, SQL_PARAM_INPUT, SQL_C_LONG, SQL_INTEGER, 0, 0, &i, 0, &cbLen );

  01c3a	8d 44 24 14	 lea	 eax, DWORD PTR _cbLen$207923[esp+198560]
  01c3e	50		 push	 eax
  01c3f	6a 00		 push	 0
  01c41	8d 4c 24 14	 lea	 ecx, DWORD PTR _i$[esp+198568]
  01c45	51		 push	 ecx
  01c46	6a 00		 push	 0
  01c48	6a 00		 push	 0
  01c4a	6a 04		 push	 4
  01c4c	6a 04		 push	 4
  01c4e	6a 01		 push	 1
  01c50	6a 01		 push	 1
  01c52	8b ce		 mov	 ecx, esi
  01c54	c7 44 24 38 fd
	ff ff ff	 mov	 DWORD PTR _cbLen$207923[esp+198596], -3 ; fffffffdH
  01c5c	e8 00 00 00 00	 call	 ?BindParameter@CQuery@@QAEHGFFFKFPAXJPAJ@Z ; CQuery::BindParameter

; 495  : 		bOk[1]	= qry->BindParameter( 2, SQL_PARAM_INPUT, SQL_C_CHAR, SQL_VARCHAR, 4290, 0, (char*)p.pszItem, 0, &cbLen );

  01c61	8b 44 24 28	 mov	 eax, DWORD PTR _p$207922[esp+198568]
  01c65	8d 54 24 14	 lea	 edx, DWORD PTR _cbLen$207923[esp+198560]
  01c69	52		 push	 edx
  01c6a	6a 00		 push	 0
  01c6c	50		 push	 eax
  01c6d	6a 00		 push	 0
  01c6f	68 c2 10 00 00	 push	 4290			; 000010c2H
  01c74	6a 0c		 push	 12			; 0000000cH
  01c76	6a 01		 push	 1
  01c78	6a 01		 push	 1
  01c7a	6a 02		 push	 2
  01c7c	8b ce		 mov	 ecx, esi
  01c7e	e8 00 00 00 00	 call	 ?BindParameter@CQuery@@QAEHGFFFKFPAXJPAJ@Z ; CQuery::BindParameter

; 496  : 		bOk[2]	= qry->BindParameter( 3, SQL_PARAM_INPUT, SQL_C_CHAR, SQL_VARCHAR, 215, 0, (char*)p.pszIndex, 0, &cbLen );

  01c83	8b 54 24 2c	 mov	 edx, DWORD PTR _p$207922[esp+198572]
  01c87	8d 4c 24 14	 lea	 ecx, DWORD PTR _cbLen$207923[esp+198560]
  01c8b	51		 push	 ecx
  01c8c	6a 00		 push	 0
  01c8e	52		 push	 edx
  01c8f	6a 00		 push	 0
  01c91	68 d7 00 00 00	 push	 215			; 000000d7H
  01c96	6a 0c		 push	 12			; 0000000cH
  01c98	6a 01		 push	 1
  01c9a	6a 01		 push	 1
  01c9c	6a 03		 push	 3
  01c9e	8b ce		 mov	 ecx, esi
  01ca0	e8 00 00 00 00	 call	 ?BindParameter@CQuery@@QAEHGFFFKFPAXJPAJ@Z ; CQuery::BindParameter

; 497  : 		bOk[3]	= qry->BindParameter( 4, SQL_PARAM_INPUT, SQL_C_CHAR, SQL_VARCHAR, 215, 0, (char*)p.pszObjIndex, 0, &cbLen );

  01ca5	8b 4c 24 30	 mov	 ecx, DWORD PTR _p$207922[esp+198576]
  01ca9	8d 44 24 14	 lea	 eax, DWORD PTR _cbLen$207923[esp+198560]
  01cad	50		 push	 eax
  01cae	6a 00		 push	 0
  01cb0	51		 push	 ecx
  01cb1	6a 00		 push	 0
  01cb3	68 d7 00 00 00	 push	 215			; 000000d7H
  01cb8	6a 0c		 push	 12			; 0000000cH
  01cba	6a 01		 push	 1
  01cbc	6a 01		 push	 1
  01cbe	6a 04		 push	 4
  01cc0	8b ce		 mov	 ecx, esi
  01cc2	e8 00 00 00 00	 call	 ?BindParameter@CQuery@@QAEHGFFFKFPAXJPAJ@Z ; CQuery::BindParameter

; 498  : 		bOk[4]	= qry->BindParameter( 5, SQL_PARAM_INPUT, SQL_C_CHAR, SQL_VARCHAR, 2000, 0, (char*)p.pszExt, 0, &cbLen );

  01cc7	8b 44 24 34	 mov	 eax, DWORD PTR _p$207922[esp+198580]
  01ccb	8d 54 24 14	 lea	 edx, DWORD PTR _cbLen$207923[esp+198560]
  01ccf	52		 push	 edx
  01cd0	6a 00		 push	 0
  01cd2	50		 push	 eax
  01cd3	6a 00		 push	 0
  01cd5	68 d0 07 00 00	 push	 2000			; 000007d0H
  01cda	6a 0c		 push	 12			; 0000000cH
  01cdc	6a 01		 push	 1
  01cde	6a 01		 push	 1
  01ce0	6a 05		 push	 5
  01ce2	8b ce		 mov	 ecx, esi
  01ce4	e8 00 00 00 00	 call	 ?BindParameter@CQuery@@QAEHGFFFKFPAXJPAJ@Z ; CQuery::BindParameter

; 499  : #if __VER >= 15 // __PETVIS
; 500  : 		bOk[5]	= qry->BindParameter( 6, SQL_PARAM_INPUT, SQL_C_CHAR, SQL_VARCHAR, 7800, 0, (char*)p.pszPiercing, 0, &cbLen );

  01ce9	8b 54 24 38	 mov	 edx, DWORD PTR _p$207922[esp+198584]
  01ced	8d 4c 24 14	 lea	 ecx, DWORD PTR _cbLen$207923[esp+198560]
  01cf1	51		 push	 ecx
  01cf2	6a 00		 push	 0
  01cf4	52		 push	 edx
  01cf5	6a 00		 push	 0
  01cf7	68 78 1e 00 00	 push	 7800			; 00001e78H
  01cfc	6a 0c		 push	 12			; 0000000cH
  01cfe	6a 01		 push	 1
  01d00	6a 01		 push	 1
  01d02	6a 06		 push	 6
  01d04	8b ce		 mov	 ecx, esi
  01d06	e8 00 00 00 00	 call	 ?BindParameter@CQuery@@QAEHGFFFKFPAXJPAJ@Z ; CQuery::BindParameter

; 501  : #else // __PETVIS
; 502  : 		bOk[5]	= qry->BindParameter( 6, SQL_PARAM_INPUT, SQL_C_CHAR, SQL_VARCHAR, 2000, 0, (char*)p.pszPiercing, 0, &cbLen );
; 503  : #endif // __PETVIS
; 504  : 		bOk[6]	= qry->BindParameter( 7, SQL_PARAM_INPUT, SQL_C_CHAR, SQL_VARCHAR, 2689, 0, (char*)p.pszPet, 0, &cbLen );

  01d0b	8b 4c 24 3c	 mov	 ecx, DWORD PTR _p$207922[esp+198588]
  01d0f	8d 44 24 14	 lea	 eax, DWORD PTR _cbLen$207923[esp+198560]
  01d13	50		 push	 eax
  01d14	6a 00		 push	 0
  01d16	51		 push	 ecx
  01d17	6a 00		 push	 0
  01d19	68 81 0a 00 00	 push	 2689			; 00000a81H
  01d1e	6a 0c		 push	 12			; 0000000cH
  01d20	6a 01		 push	 1
  01d22	6a 01		 push	 1
  01d24	6a 07		 push	 7
  01d26	8b ce		 mov	 ecx, esi
  01d28	e8 00 00 00 00	 call	 ?BindParameter@CQuery@@QAEHGFFFKFPAXJPAJ@Z ; CQuery::BindParameter

; 505  : 		bOk[7]	= qry->BindParameter( 8, SQL_PARAM_INPUT, SQL_C_LONG, SQL_INTEGER, 0, 0, &p.bExpired, 0, &cbLen );

  01d2d	8d 54 24 14	 lea	 edx, DWORD PTR _cbLen$207923[esp+198560]
  01d31	52		 push	 edx
  01d32	6a 00		 push	 0
  01d34	8d 44 24 48	 lea	 eax, DWORD PTR _p$207922[esp+198600]
  01d38	50		 push	 eax
  01d39	6a 00		 push	 0
  01d3b	6a 00		 push	 0
  01d3d	6a 04		 push	 4
  01d3f	6a 04		 push	 4
  01d41	6a 01		 push	 1
  01d43	6a 08		 push	 8
  01d45	8b ce		 mov	 ecx, esi
  01d47	e8 00 00 00 00	 call	 ?BindParameter@CQuery@@QAEHGFFFKFPAXJPAJ@Z ; CQuery::BindParameter

; 506  : 		bOk[8]	= qry->BindParameter( 9, SQL_PARAM_INPUT, SQL_C_LONG, SQL_INTEGER, 0, 0, &p.tExpirationDate, 0, &cbLen );

  01d4c	8d 4c 24 14	 lea	 ecx, DWORD PTR _cbLen$207923[esp+198560]
  01d50	51		 push	 ecx
  01d51	6a 00		 push	 0
  01d53	8d 54 24 4c	 lea	 edx, DWORD PTR _p$207922[esp+198604]
  01d57	52		 push	 edx
  01d58	6a 00		 push	 0
  01d5a	6a 00		 push	 0
  01d5c	6a 04		 push	 4
  01d5e	6a 04		 push	 4
  01d60	6a 01		 push	 1
  01d62	6a 09		 push	 9
  01d64	8b ce		 mov	 ecx, esi
  01d66	e8 00 00 00 00	 call	 ?BindParameter@CQuery@@QAEHGFFFKFPAXJPAJ@Z ; CQuery::BindParameter

; 507  : 
; 508  : 
; 509  : 		if( !qry->Exec( szQuery ) )

  01d6b	8b 44 24 1c	 mov	 eax, DWORD PTR $T210570[esp+198560]
  01d6f	50		 push	 eax
  01d70	8b ce		 mov	 ecx, esi
  01d72	e8 00 00 00 00	 call	 ?Exec@CQuery@@QAEHPBD@Z	; CQuery::Exec
  01d77	85 c0		 test	 eax, eax
  01d79	74 12		 je	 SHORT $L207921
  01d7b	8b 44 24 0c	 mov	 eax, DWORD PTR _i$[esp+198560]
  01d7f	40		 inc	 eax
  01d80	83 f8 03	 cmp	 eax, 3
  01d83	89 44 24 0c	 mov	 DWORD PTR _i$[esp+198560], eax
  01d87	0f 8c 23 fe ff
	ff		 jl	 $L207919
$L207921:

; 510  : 		{
; 511  : 			SAFE_DELETE_ARRAY( bOK );
; 512  : 			return;
; 513  : 		}
; 514  : 	}
; 515  : #endif	// __SYS_POCKET
; 516  : 
; 517  : 	SAFE_DELETE_ARRAY( bOK );

  01d8d	57		 push	 edi
  01d8e	e8 00 00 00 00	 call	 ??_V@YAXPAX@Z		; operator delete[]

; 518  : }

  01d93	8b 8c 24 a0 07
	03 00		 mov	 ecx, DWORD PTR __$ArrayPad$[esp+198564]
  01d9a	83 c4 04	 add	 esp, 4
  01d9d	5f		 pop	 edi
  01d9e	5e		 pop	 esi
  01d9f	33 cd		 xor	 ecx, ebp
  01da1	5b		 pop	 ebx
  01da2	e8 00 00 00 00	 call	 @__security_check_cookie@4
  01da7	8b e5		 mov	 esp, ebp
  01da9	5d		 pop	 ebp
  01daa	c2 10 00	 ret	 16			; 00000010H
?SavePlayer@CDbManager@@QAEXPAVCQuery@@0PAVCMover@@PAD@Z ENDP ; CDbManager::SavePlayer
_TEXT	ENDS
END
