; Listing generated by Microsoft (R) Optimizing Compiler Version 13.10.6030 

	TITLE	\Documents and Settings\test\Mes documents\Source\Virtuos_v17\Build\Program\_Database\des.c
	.386P
include listing.inc
if @Version gt 510
.model FLAT
else
_TEXT	SEGMENT PARA USE32 PUBLIC 'CODE'
_TEXT	ENDS
_DATA	SEGMENT DWORD USE32 PUBLIC 'DATA'
_DATA	ENDS
CONST	SEGMENT DWORD USE32 PUBLIC 'CONST'
CONST	ENDS
_BSS	SEGMENT DWORD USE32 PUBLIC 'BSS'
_BSS	ENDS
$$SYMBOLS	SEGMENT BYTE USE32 'DEBSYM'
$$SYMBOLS	ENDS
_TLS	SEGMENT DWORD USE32 PUBLIC 'TLS'
_TLS	ENDS
;	COMDAT _des_main_ks
_TEXT	SEGMENT PARA USE32 PUBLIC 'CODE'
_TEXT	ENDS
;	COMDAT _des_set_key
_TEXT	SEGMENT PARA USE32 PUBLIC 'CODE'
_TEXT	ENDS
;	COMDAT _des_crypt
_TEXT	SEGMENT PARA USE32 PUBLIC 'CODE'
_TEXT	ENDS
;	COMDAT _des_encrypt
_TEXT	SEGMENT PARA USE32 PUBLIC 'CODE'
_TEXT	ENDS
;	COMDAT _des_decrypt
_TEXT	SEGMENT PARA USE32 PUBLIC 'CODE'
_TEXT	ENDS
;	COMDAT _des3_set_2keys
_TEXT	SEGMENT PARA USE32 PUBLIC 'CODE'
_TEXT	ENDS
;	COMDAT _des3_set_3keys
_TEXT	SEGMENT PARA USE32 PUBLIC 'CODE'
_TEXT	ENDS
;	COMDAT _des3_crypt
_TEXT	SEGMENT PARA USE32 PUBLIC 'CODE'
_TEXT	ENDS
;	COMDAT _des3_encrypt
_TEXT	SEGMENT PARA USE32 PUBLIC 'CODE'
_TEXT	ENDS
;	COMDAT _des3_decrypt
_TEXT	SEGMENT PARA USE32 PUBLIC 'CODE'
_TEXT	ENDS
sxdata	SEGMENT DWORD USE32 'SXDATA'
sxdata	ENDS
FLAT	GROUP _DATA, CONST, _BSS
	ASSUME	CS: FLAT, DS: FLAT, SS: FLAT
endif

INCLUDELIB LIBCMT
INCLUDELIB OLDNAMES

PUBLIC	_SB1
_DATA	SEGMENT
_SB1	DD	01010400H
	DD	00H
	DD	010000H
	DD	01010404H
	DD	01010004H
	DD	010404H
	DD	04H
	DD	010000H
	DD	0400H
	DD	01010400H
	DD	01010404H
	DD	0400H
	DD	01000404H
	DD	01010004H
	DD	01000000H
	DD	04H
	DD	0404H
	DD	01000400H
	DD	01000400H
	DD	010400H
	DD	010400H
	DD	01010000H
	DD	01010000H
	DD	01000404H
	DD	010004H
	DD	01000004H
	DD	01000004H
	DD	010004H
	DD	00H
	DD	0404H
	DD	010404H
	DD	01000000H
	DD	010000H
	DD	01010404H
	DD	04H
	DD	01010000H
	DD	01010400H
	DD	01000000H
	DD	01000000H
	DD	0400H
	DD	01010004H
	DD	010000H
	DD	010400H
	DD	01000004H
	DD	0400H
	DD	04H
	DD	01000404H
	DD	010404H
	DD	01010404H
	DD	010004H
	DD	01010000H
	DD	01000404H
	DD	01000004H
	DD	0404H
	DD	010404H
	DD	01010400H
	DD	0404H
	DD	01000400H
	DD	01000400H
	DD	00H
	DD	010004H
	DD	010400H
	DD	00H
	DD	01010004H
_SB2	DD	080108020H
	DD	080008000H
	DD	08000H
	DD	0108020H
	DD	0100000H
	DD	020H
	DD	080100020H
	DD	080008020H
	DD	080000020H
	DD	080108020H
	DD	080108000H
	DD	080000000H
	DD	080008000H
	DD	0100000H
	DD	020H
	DD	080100020H
	DD	0108000H
	DD	0100020H
	DD	080008020H
	DD	00H
	DD	080000000H
	DD	08000H
	DD	0108020H
	DD	080100000H
	DD	0100020H
	DD	080000020H
	DD	00H
	DD	0108000H
	DD	08020H
	DD	080108000H
	DD	080100000H
	DD	08020H
	DD	00H
	DD	0108020H
	DD	080100020H
	DD	0100000H
	DD	080008020H
	DD	080100000H
	DD	080108000H
	DD	08000H
	DD	080100000H
	DD	080008000H
	DD	020H
	DD	080108020H
	DD	0108020H
	DD	020H
	DD	08000H
	DD	080000000H
	DD	08020H
	DD	080108000H
	DD	0100000H
	DD	080000020H
	DD	0100020H
	DD	080008020H
	DD	080000020H
	DD	0100020H
	DD	0108000H
	DD	00H
	DD	080008000H
	DD	08020H
	DD	080000000H
	DD	080100020H
	DD	080108020H
	DD	0108000H
_SB3	DD	0208H
	DD	08020200H
	DD	00H
	DD	08020008H
	DD	08000200H
	DD	00H
	DD	020208H
	DD	08000200H
	DD	020008H
	DD	08000008H
	DD	08000008H
	DD	020000H
	DD	08020208H
	DD	020008H
	DD	08020000H
	DD	0208H
	DD	08000000H
	DD	08H
	DD	08020200H
	DD	0200H
	DD	020200H
	DD	08020000H
	DD	08020008H
	DD	020208H
	DD	08000208H
	DD	020200H
	DD	020000H
	DD	08000208H
	DD	08H
	DD	08020208H
	DD	0200H
	DD	08000000H
	DD	08020200H
	DD	08000000H
	DD	020008H
	DD	0208H
	DD	020000H
	DD	08020200H
	DD	08000200H
	DD	00H
	DD	0200H
	DD	020008H
	DD	08020208H
	DD	08000200H
	DD	08000008H
	DD	0200H
	DD	00H
	DD	08020008H
	DD	08000208H
	DD	020000H
	DD	08000000H
	DD	08020208H
	DD	08H
	DD	020208H
	DD	020200H
	DD	08000008H
	DD	08020000H
	DD	08000208H
	DD	0208H
	DD	08020000H
	DD	020208H
	DD	08H
	DD	08020008H
	DD	020200H
_SB4	DD	0802001H
	DD	02081H
	DD	02081H
	DD	080H
	DD	0802080H
	DD	0800081H
	DD	0800001H
	DD	02001H
	DD	00H
	DD	0802000H
	DD	0802000H
	DD	0802081H
	DD	081H
	DD	00H
	DD	0800080H
	DD	0800001H
	DD	01H
	DD	02000H
	DD	0800000H
	DD	0802001H
	DD	080H
	DD	0800000H
	DD	02001H
	DD	02080H
	DD	0800081H
	DD	01H
	DD	02080H
	DD	0800080H
	DD	02000H
	DD	0802080H
	DD	0802081H
	DD	081H
	DD	0800080H
	DD	0800001H
	DD	0802000H
	DD	0802081H
	DD	081H
	DD	00H
	DD	00H
	DD	0802000H
	DD	02080H
	DD	0800080H
	DD	0800081H
	DD	01H
	DD	0802001H
	DD	02081H
	DD	02081H
	DD	080H
	DD	0802081H
	DD	081H
	DD	01H
	DD	02000H
	DD	0800001H
	DD	02001H
	DD	0802080H
	DD	0800081H
	DD	02001H
	DD	02080H
	DD	0800000H
	DD	0802001H
	DD	080H
	DD	0800000H
	DD	02000H
	DD	0802080H
_SB5	DD	0100H
	DD	02080100H
	DD	02080000H
	DD	042000100H
	DD	080000H
	DD	0100H
	DD	040000000H
	DD	02080000H
	DD	040080100H
	DD	080000H
	DD	02000100H
	DD	040080100H
	DD	042000100H
	DD	042080000H
	DD	080100H
	DD	040000000H
	DD	02000000H
	DD	040080000H
	DD	040080000H
	DD	00H
	DD	040000100H
	DD	042080100H
	DD	042080100H
	DD	02000100H
	DD	042080000H
	DD	040000100H
	DD	00H
	DD	042000000H
	DD	02080100H
	DD	02000000H
	DD	042000000H
	DD	080100H
	DD	080000H
	DD	042000100H
	DD	0100H
	DD	02000000H
	DD	040000000H
	DD	02080000H
	DD	042000100H
	DD	040080100H
	DD	02000100H
	DD	040000000H
	DD	042080000H
	DD	02080100H
	DD	040080100H
	DD	0100H
	DD	02000000H
	DD	042080000H
	DD	042080100H
	DD	080100H
	DD	042000000H
	DD	042080100H
	DD	02080000H
	DD	00H
	DD	040080000H
	DD	042000000H
	DD	080100H
	DD	02000100H
	DD	040000100H
	DD	080000H
	DD	00H
	DD	040080000H
	DD	02080100H
	DD	040000100H
_SB6	DD	020000010H
	DD	020400000H
	DD	04000H
	DD	020404010H
	DD	020400000H
	DD	010H
	DD	020404010H
	DD	0400000H
	DD	020004000H
	DD	0404010H
	DD	0400000H
	DD	020000010H
	DD	0400010H
	DD	020004000H
	DD	020000000H
	DD	04010H
	DD	00H
	DD	0400010H
	DD	020004010H
	DD	04000H
	DD	0404000H
	DD	020004010H
	DD	010H
	DD	020400010H
	DD	020400010H
	DD	00H
	DD	0404010H
	DD	020404000H
	DD	04010H
	DD	0404000H
	DD	020404000H
	DD	020000000H
	DD	020004000H
	DD	010H
	DD	020400010H
	DD	0404000H
	DD	020404010H
	DD	0400000H
	DD	04010H
	DD	020000010H
	DD	0400000H
	DD	020004000H
	DD	020000000H
	DD	04010H
	DD	020000010H
	DD	020404010H
	DD	0404000H
	DD	020400000H
	DD	0404010H
	DD	020404000H
	DD	00H
	DD	020400010H
	DD	010H
	DD	04000H
	DD	020400000H
	DD	0404010H
	DD	04000H
	DD	0400010H
	DD	020004010H
	DD	00H
	DD	020404000H
	DD	020000000H
	DD	0400010H
	DD	020004010H
_SB7	DD	0200000H
	DD	04200002H
	DD	04000802H
	DD	00H
	DD	0800H
	DD	04000802H
	DD	0200802H
	DD	04200800H
	DD	04200802H
	DD	0200000H
	DD	00H
	DD	04000002H
	DD	02H
	DD	04000000H
	DD	04200002H
	DD	0802H
	DD	04000800H
	DD	0200802H
	DD	0200002H
	DD	04000800H
	DD	04000002H
	DD	04200000H
	DD	04200800H
	DD	0200002H
	DD	04200000H
	DD	0800H
	DD	0802H
	DD	04200802H
	DD	0200800H
	DD	02H
	DD	04000000H
	DD	0200800H
	DD	04000000H
	DD	0200800H
	DD	0200000H
	DD	04000802H
	DD	04000802H
	DD	04200002H
	DD	04200002H
	DD	02H
	DD	0200002H
	DD	04000000H
	DD	04000800H
	DD	0200000H
	DD	04200800H
	DD	0802H
	DD	0200802H
	DD	04200800H
	DD	0802H
	DD	04000002H
	DD	04200802H
	DD	04200000H
	DD	0200800H
	DD	00H
	DD	02H
	DD	04200802H
	DD	00H
	DD	0200802H
	DD	04200000H
	DD	0800H
	DD	04000002H
	DD	04000800H
	DD	0800H
	DD	0200002H
_SB8	DD	010001040H
	DD	01000H
	DD	040000H
	DD	010041040H
	DD	010000000H
	DD	010001040H
	DD	040H
	DD	010000000H
	DD	040040H
	DD	010040000H
	DD	010041040H
	DD	041000H
	DD	010041000H
	DD	041040H
	DD	01000H
	DD	040H
	DD	010040000H
	DD	010000040H
	DD	010001000H
	DD	01040H
	DD	041000H
	DD	040040H
	DD	010040040H
	DD	010041000H
	DD	01040H
	DD	00H
	DD	00H
	DD	010040040H
	DD	010000040H
	DD	010001000H
	DD	041040H
	DD	040000H
	DD	041040H
	DD	040000H
	DD	010041000H
	DD	01000H
	DD	040H
	DD	010040040H
	DD	01000H
	DD	041040H
	DD	010001000H
	DD	040H
	DD	010000040H
	DD	010040000H
	DD	010040040H
	DD	010000000H
	DD	040000H
	DD	010001040H
	DD	00H
	DD	010041040H
	DD	040040H
	DD	010000040H
	DD	010040000H
	DD	010001000H
	DD	010001040H
	DD	00H
	DD	010041040H
	DD	041000H
	DD	041000H
	DD	01040H
	DD	01040H
	DD	040040H
	DD	010000000H
	DD	010041000H
_LHs	DD	00H
	DD	01H
	DD	0100H
	DD	0101H
	DD	010000H
	DD	010001H
	DD	010100H
	DD	010101H
	DD	01000000H
	DD	01000001H
	DD	01000100H
	DD	01000101H
	DD	01010000H
	DD	01010001H
	DD	01010100H
	DD	01010101H
_RHs	DD	00H
	DD	01000000H
	DD	010000H
	DD	01010000H
	DD	0100H
	DD	01000100H
	DD	010100H
	DD	01010100H
	DD	01H
	DD	01000001H
	DD	010001H
	DD	01010001H
	DD	0101H
	DD	01000101H
	DD	010101H
	DD	01010101H
_DATA	ENDS
PUBLIC	_des_main_ks
; Function compile flags: /Ogty
; File c:\documents and settings\test\mes documents\source\virtuos_v17\build\program\_database\des.c
;	COMDAT _des_main_ks
_TEXT	SEGMENT
_SK$ = 8						; size = 4
_key$ = 12						; size = 4
_des_main_ks PROC NEAR					; COMDAT

; 268  :     int i;
; 269  :     uint32 X, Y, T;
; 270  : 
; 271  :     GET_UINT32( X, key, 0 );

  00000	8b 4c 24 08	 mov	 ecx, DWORD PTR _key$[esp-4]
  00004	0f b6 51 02	 movzx	 edx, BYTE PTR [ecx+2]
  00008	33 c0		 xor	 eax, eax
  0000a	8a 21		 mov	 ah, BYTE PTR [ecx]
  0000c	53		 push	 ebx
  0000d	55		 push	 ebp
  0000e	56		 push	 esi

; 272  :     GET_UINT32( Y, key, 4 );

  0000f	0f b6 71 06	 movzx	 esi, BYTE PTR [ecx+6]
  00013	8a 41 01	 mov	 al, BYTE PTR [ecx+1]
  00016	57		 push	 edi
  00017	c1 e0 08	 shl	 eax, 8
  0001a	0b c2		 or	 eax, edx
  0001c	0f b6 51 03	 movzx	 edx, BYTE PTR [ecx+3]
  00020	c1 e0 08	 shl	 eax, 8
  00023	0b c2		 or	 eax, edx
  00025	33 d2		 xor	 edx, edx
  00027	8a 71 04	 mov	 dh, BYTE PTR [ecx+4]
  0002a	8a 51 05	 mov	 dl, BYTE PTR [ecx+5]
  0002d	0f b6 49 07	 movzx	 ecx, BYTE PTR [ecx+7]
  00031	c1 e2 08	 shl	 edx, 8
  00034	0b d6		 or	 edx, esi
  00036	c1 e2 08	 shl	 edx, 8
  00039	0b d1		 or	 edx, ecx

; 273  : 
; 274  :     /* Permuted Choice 1 */
; 275  : 
; 276  :     T =  ((Y >>  4) ^ X) & 0x0F0F0F0F;  X ^= T; Y ^= (T <<  4);

  0003b	8b ca		 mov	 ecx, edx
  0003d	c1 e9 04	 shr	 ecx, 4
  00040	33 c8		 xor	 ecx, eax
  00042	81 e1 0f 0f 0f
	0f		 and	 ecx, 252645135		; 0f0f0f0fH
  00048	33 c1		 xor	 eax, ecx
  0004a	c1 e1 04	 shl	 ecx, 4
  0004d	33 d1		 xor	 edx, ecx

; 277  :     T =  ((Y      ) ^ X) & 0x10101010;  X ^= T; Y ^= (T      );

  0004f	8b ca		 mov	 ecx, edx
  00051	33 c8		 xor	 ecx, eax
  00053	81 e1 10 10 10
	10		 and	 ecx, 269488144		; 10101010H
  00059	33 c1		 xor	 eax, ecx
  0005b	33 d1		 xor	 edx, ecx

; 278  : 
; 279  :     X =   (LHs[ (X      ) & 0xF] << 3) | (LHs[ (X >>  8) & 0xF ] << 2)
; 280  :         | (LHs[ (X >> 16) & 0xF] << 1) | (LHs[ (X >> 24) & 0xF ]     )
; 281  :         | (LHs[ (X >>  5) & 0xF] << 7) | (LHs[ (X >> 13) & 0xF ] << 6)
; 282  :         | (LHs[ (X >> 21) & 0xF] << 5) | (LHs[ (X >> 29) & 0xF ] << 4);
; 283  : 
; 284  :     Y =   (RHs[ (Y >>  1) & 0xF] << 3) | (RHs[ (Y >>  9) & 0xF ] << 2)
; 285  :         | (RHs[ (Y >> 17) & 0xF] << 1) | (RHs[ (Y >> 25) & 0xF ]     )
; 286  :         | (RHs[ (Y >>  4) & 0xF] << 7) | (RHs[ (Y >> 12) & 0xF ] << 6)
; 287  :         | (RHs[ (Y >> 20) & 0xF] << 5) | (RHs[ (Y >> 28) & 0xF ] << 4);
; 288  : 
; 289  :     X &= 0x0FFFFFFF;

  0005d	8b c8		 mov	 ecx, eax
  0005f	c1 e9 05	 shr	 ecx, 5
  00062	83 e1 0f	 and	 ecx, 15			; 0000000fH
  00065	8b 0c 8d 00 00
	00 00		 mov	 ecx, DWORD PTR _LHs[ecx*4]
  0006c	81 e1 ff ff 1f
	00		 and	 ecx, 2097151		; 001fffffH
  00072	c1 e1 03	 shl	 ecx, 3
  00075	8b f0		 mov	 esi, eax
  00077	c1 ee 1d	 shr	 esi, 29			; 0000001dH
  0007a	8b 34 b5 00 00
	00 00		 mov	 esi, DWORD PTR _LHs[esi*4]
  00081	81 e6 ff ff ff
	00		 and	 esi, 16777215		; 00ffffffH
  00087	0b ce		 or	 ecx, esi
  00089	8b f0		 mov	 esi, eax
  0008b	83 e6 0f	 and	 esi, 15			; 0000000fH
  0008e	8b 34 b5 00 00
	00 00		 mov	 esi, DWORD PTR _LHs[esi*4]
  00095	81 e6 ff ff ff
	01		 and	 esi, 33554431		; 01ffffffH
  0009b	d1 e1		 shl	 ecx, 1
  0009d	0b ce		 or	 ecx, esi
  0009f	8b f0		 mov	 esi, eax
  000a1	c1 ee 08	 shr	 esi, 8
  000a4	83 e6 0f	 and	 esi, 15			; 0000000fH
  000a7	8b 34 b5 00 00
	00 00		 mov	 esi, DWORD PTR _LHs[esi*4]
  000ae	81 e6 ff ff ff
	03		 and	 esi, 67108863		; 03ffffffH
  000b4	d1 e1		 shl	 ecx, 1
  000b6	0b ce		 or	 ecx, esi
  000b8	8b f0		 mov	 esi, eax
  000ba	c1 ee 10	 shr	 esi, 16			; 00000010H
  000bd	83 e6 0f	 and	 esi, 15			; 0000000fH
  000c0	8b 34 b5 00 00
	00 00		 mov	 esi, DWORD PTR _LHs[esi*4]
  000c7	81 e6 ff ff ff
	07		 and	 esi, 134217727		; 07ffffffH
  000cd	d1 e1		 shl	 ecx, 1
  000cf	0b ce		 or	 ecx, esi
  000d1	8b f0		 mov	 esi, eax
  000d3	c1 ee 0d	 shr	 esi, 13			; 0000000dH
  000d6	83 e6 0f	 and	 esi, 15			; 0000000fH
  000d9	8b 34 b5 00 00
	00 00		 mov	 esi, DWORD PTR _LHs[esi*4]
  000e0	8b f8		 mov	 edi, eax
  000e2	c1 ef 15	 shr	 edi, 21			; 00000015H
  000e5	83 e7 0f	 and	 edi, 15			; 0000000fH
  000e8	8b 1c bd 00 00
	00 00		 mov	 ebx, DWORD PTR _LHs[edi*4]
  000ef	d1 e6		 shl	 esi, 1
  000f1	0b f3		 or	 esi, ebx
  000f3	c1 e8 18	 shr	 eax, 24			; 00000018H
  000f6	d1 e1		 shl	 ecx, 1
  000f8	c1 e6 05	 shl	 esi, 5
  000fb	83 e0 0f	 and	 eax, 15			; 0000000fH
  000fe	0b 34 85 00 00
	00 00		 or	 esi, DWORD PTR _LHs[eax*4]
  00105	81 e6 ff ff ff
	0f		 and	 esi, 268435455		; 0fffffffH
  0010b	0b ce		 or	 ecx, esi

; 290  :     Y &= 0x0FFFFFFF;

  0010d	8b c2		 mov	 eax, edx
  0010f	c1 e8 04	 shr	 eax, 4
  00112	83 e0 0f	 and	 eax, 15			; 0000000fH
  00115	8b 04 85 00 00
	00 00		 mov	 eax, DWORD PTR _RHs[eax*4]
  0011c	25 ff ff 1f 00	 and	 eax, 2097151		; 001fffffH
  00121	8b f2		 mov	 esi, edx
  00123	c1 ee 0c	 shr	 esi, 12			; 0000000cH
  00126	83 e6 0f	 and	 esi, 15			; 0000000fH
  00129	8b 34 b5 00 00
	00 00		 mov	 esi, DWORD PTR _RHs[esi*4]
  00130	81 e6 ff ff 3f
	00		 and	 esi, 4194303		; 003fffffH
  00136	d1 e0		 shl	 eax, 1
  00138	0b c6		 or	 eax, esi
  0013a	8b f2		 mov	 esi, edx
  0013c	c1 ee 1c	 shr	 esi, 28			; 0000001cH
  0013f	8b 34 b5 00 00
	00 00		 mov	 esi, DWORD PTR _RHs[esi*4]
  00146	81 e6 ff ff ff
	00		 and	 esi, 16777215		; 00ffffffH
  0014c	c1 e0 02	 shl	 eax, 2
  0014f	0b c6		 or	 eax, esi
  00151	8b f2		 mov	 esi, edx
  00153	d1 ee		 shr	 esi, 1
  00155	83 e6 0f	 and	 esi, 15			; 0000000fH
  00158	8b 34 b5 00 00
	00 00		 mov	 esi, DWORD PTR _RHs[esi*4]
  0015f	81 e6 ff ff ff
	01		 and	 esi, 33554431		; 01ffffffH
  00165	d1 e0		 shl	 eax, 1
  00167	0b c6		 or	 eax, esi
  00169	8b f2		 mov	 esi, edx
  0016b	c1 ee 09	 shr	 esi, 9
  0016e	83 e6 0f	 and	 esi, 15			; 0000000fH
  00171	8b 34 b5 00 00
	00 00		 mov	 esi, DWORD PTR _RHs[esi*4]
  00178	81 e6 ff ff ff
	03		 and	 esi, 67108863		; 03ffffffH
  0017e	d1 e0		 shl	 eax, 1
  00180	0b c6		 or	 eax, esi
  00182	8b f2		 mov	 esi, edx
  00184	c1 ee 14	 shr	 esi, 20			; 00000014H
  00187	83 e6 0f	 and	 esi, 15			; 0000000fH
  0018a	8b 34 b5 00 00
	00 00		 mov	 esi, DWORD PTR _RHs[esi*4]
  00191	8b fa		 mov	 edi, edx
  00193	c1 ef 11	 shr	 edi, 17			; 00000011H
  00196	c1 e6 04	 shl	 esi, 4
  00199	83 e7 0f	 and	 edi, 15			; 0000000fH
  0019c	8b 2c bd 00 00
	00 00		 mov	 ebp, DWORD PTR _RHs[edi*4]
  001a3	c1 ea 19	 shr	 edx, 25			; 00000019H
  001a6	0b f5		 or	 esi, ebp
  001a8	83 e2 0f	 and	 edx, 15			; 0000000fH
  001ab	8b 1c 95 00 00
	00 00		 mov	 ebx, DWORD PTR _RHs[edx*4]

; 291  : 
; 292  :     /* calculate subkeys */
; 293  : 
; 294  :     for( i = 0; i < 16; i++ )

  001b2	8b 54 24 14	 mov	 edx, DWORD PTR _SK$[esp+12]
  001b6	d1 e6		 shl	 esi, 1
  001b8	0b f3		 or	 esi, ebx
  001ba	c1 e0 02	 shl	 eax, 2
  001bd	81 e6 ff ff ff
	0f		 and	 esi, 268435455		; 0fffffffH
  001c3	0b c6		 or	 eax, esi
  001c5	33 f6		 xor	 esi, esi
$L773:

; 295  :     {
; 296  :         if( i < 2 || i == 8 || i == 15 )

  001c7	83 fe 02	 cmp	 esi, 2
  001ca	7c 26		 jl	 SHORT $L636
  001cc	83 fe 08	 cmp	 esi, 8
  001cf	74 21		 je	 SHORT $L636
  001d1	83 fe 0f	 cmp	 esi, 15			; 0000000fH
  001d4	74 1c		 je	 SHORT $L636

; 300  :         }
; 301  :         else
; 302  :         {
; 303  :             X = ((X <<  2) | (X >> 26)) & 0x0FFFFFFF;

  001d6	8b f9		 mov	 edi, ecx
  001d8	c1 ef 1a	 shr	 edi, 26			; 0000001aH
  001db	c1 e1 02	 shl	 ecx, 2
  001de	0b f9		 or	 edi, ecx
  001e0	81 e7 ff ff ff
	0f		 and	 edi, 268435455		; 0fffffffH
  001e6	8b cf		 mov	 ecx, edi

; 304  :             Y = ((Y <<  2) | (Y >> 26)) & 0x0FFFFFFF;

  001e8	8b f8		 mov	 edi, eax
  001ea	c1 ef 1a	 shr	 edi, 26			; 0000001aH
  001ed	c1 e0 02	 shl	 eax, 2
  001f0	eb 18		 jmp	 SHORT $L774
$L636:

; 297  :         {
; 298  :             X = ((X <<  1) | (X >> 27)) & 0x0FFFFFFF;

  001f2	8b f9		 mov	 edi, ecx
  001f4	c1 ef 1b	 shr	 edi, 27			; 0000001bH
  001f7	03 c9		 add	 ecx, ecx
  001f9	0b f9		 or	 edi, ecx
  001fb	81 e7 ff ff ff
	0f		 and	 edi, 268435455		; 0fffffffH
  00201	8b cf		 mov	 ecx, edi

; 299  :             Y = ((Y <<  1) | (Y >> 27)) & 0x0FFFFFFF;

  00203	8b f8		 mov	 edi, eax
  00205	c1 ef 1b	 shr	 edi, 27			; 0000001bH
  00208	03 c0		 add	 eax, eax
$L774:
  0020a	0b f8		 or	 edi, eax
  0020c	81 e7 ff ff ff
	0f		 and	 edi, 268435455		; 0fffffffH
  00212	8b c7		 mov	 eax, edi

; 305  :         }
; 306  : 
; 307  :         *SK++ =   ((X <<  4) & 0x24000000) | ((X << 28) & 0x10000000)
; 308  :                 | ((X << 14) & 0x08000000) | ((X << 18) & 0x02080000)
; 309  :                 | ((X <<  6) & 0x01000000) | ((X <<  9) & 0x00200000)
; 310  :                 | ((X >>  1) & 0x00100000) | ((X << 10) & 0x00040000)
; 311  :                 | ((X <<  2) & 0x00020000) | ((X >> 10) & 0x00010000)
; 312  :                 | ((Y >> 13) & 0x00002000) | ((Y >>  4) & 0x00001000)
; 313  :                 | ((Y <<  6) & 0x00000800) | ((Y >>  1) & 0x00000400)
; 314  :                 | ((Y >> 14) & 0x00000200) | ((Y      ) & 0x00000100)
; 315  :                 | ((Y >>  5) & 0x00000020) | ((Y >> 10) & 0x00000010)
; 316  :                 | ((Y >>  3) & 0x00000008) | ((Y >> 18) & 0x00000004)
; 317  :                 | ((Y >> 26) & 0x00000002) | ((Y >> 24) & 0x00000001);

  00214	c1 ef 02	 shr	 edi, 2
  00217	81 e7 00 00 00
	02		 and	 edi, 33554432		; 02000000H
  0021d	8b d8		 mov	 ebx, eax
  0021f	81 e3 00 00 00
	01		 and	 ebx, 16777216		; 01000000H
  00225	0b fb		 or	 edi, ebx
  00227	c1 ef 06	 shr	 edi, 6
  0022a	8b d8		 mov	 ebx, eax
  0022c	81 e3 00 00 10
	00		 and	 ebx, 1048576		; 00100000H
  00232	0b fb		 or	 edi, ebx
  00234	c1 ef 04	 shr	 edi, 4
  00237	8b d8		 mov	 ebx, eax
  00239	81 e3 00 00 80
	00		 and	 ebx, 8388608		; 00800000H
  0023f	0b fb		 or	 edi, ebx
  00241	d1 ef		 shr	 edi, 1
  00243	8b d8		 mov	 ebx, eax
  00245	81 e3 00 00 00
	04		 and	 ebx, 67108864		; 04000000H
  0024b	0b fb		 or	 edi, ebx
  0024d	c1 ef 03	 shr	 edi, 3
  00250	8b d8		 mov	 ebx, eax
  00252	81 e3 00 40 00
	00		 and	 ebx, 16384		; 00004000H
  00258	0b fb		 or	 edi, ebx
  0025a	8b d9		 mov	 ebx, ecx
  0025c	81 e3 00 00 00
	04		 and	 ebx, 67108864		; 04000000H
  00262	0b fb		 or	 edi, ebx
  00264	c1 ef 05	 shr	 edi, 5
  00267	8b d8		 mov	 ebx, eax
  00269	81 e3 00 04 00
	00		 and	 ebx, 1024		; 00000400H
  0026f	0b fb		 or	 edi, ebx
  00271	d1 ef		 shr	 edi, 1
  00273	8b d8		 mov	 ebx, eax
  00275	81 e3 00 00 01
	00		 and	 ebx, 65536		; 00010000H
  0027b	0b fb		 or	 edi, ebx
  0027d	d1 ef		 shr	 edi, 1
  0027f	8b d8		 mov	 ebx, eax
  00281	83 e3 40	 and	 ebx, 64			; 00000040H
  00284	0b fb		 or	 edi, ebx
  00286	c1 ef 02	 shr	 edi, 2
  00289	8b d8		 mov	 ebx, eax
  0028b	81 e3 00 08 00
	00		 and	 ebx, 2048		; 00000800H
  00291	0b fb		 or	 edi, ebx
  00293	8b d9		 mov	 ebx, ecx
  00295	81 e3 00 00 20
	00		 and	 ebx, 2097152		; 00200000H
  0029b	0b fb		 or	 edi, ebx
  0029d	8b d9		 mov	 ebx, ecx
  0029f	83 e3 01	 and	 ebx, 1
  002a2	c1 e3 0a	 shl	 ebx, 10			; 0000000aH
  002a5	8b e9		 mov	 ebp, ecx
  002a7	81 e5 82 00 00
	00		 and	 ebp, 130		; 00000082H
  002ad	0b dd		 or	 ebx, ebp
  002af	c1 e3 04	 shl	 ebx, 4
  002b2	8b e9		 mov	 ebp, ecx
  002b4	81 e5 00 20 00
	00		 and	 ebp, 8192		; 00002000H
  002ba	0b dd		 or	 ebx, ebp
  002bc	c1 e3 04	 shl	 ebx, 4
  002bf	8b e9		 mov	 ebp, ecx
  002c1	81 e5 00 01 00
	00		 and	 ebp, 256		; 00000100H
  002c7	0b dd		 or	 ebx, ebp
  002c9	d1 e3		 shl	 ebx, 1
  002cb	8b e9		 mov	 ebp, ecx
  002cd	81 e5 00 10 00
	00		 and	 ebp, 4096		; 00001000H
  002d3	0b dd		 or	 ebx, ebp
  002d5	c1 e3 03	 shl	 ebx, 3
  002d8	8b e8		 mov	 ebp, eax
  002da	83 e5 20	 and	 ebp, 32			; 00000020H
  002dd	0b dd		 or	 ebx, ebp
  002df	8b e9		 mov	 ebp, ecx
  002e1	81 e5 00 00 04
	00		 and	 ebp, 262144		; 00040000H
  002e7	0b dd		 or	 ebx, ebp
  002e9	c1 e3 02	 shl	 ebx, 2
  002ec	8b e9		 mov	 ebp, ecx
  002ee	81 e5 00 00 40
	02		 and	 ebp, 37748736		; 02400000H
  002f4	0b dd		 or	 ebx, ebp
  002f6	8b e9		 mov	 ebp, ecx
  002f8	c1 e3 02	 shl	 ebx, 2
  002fb	81 e5 00 80 00
	00		 and	 ebp, 32768		; 00008000H
  00301	0b dd		 or	 ebx, ebp
  00303	d1 ef		 shr	 edi, 1
  00305	c1 e3 02	 shl	 ebx, 2
  00308	0b fb		 or	 edi, ebx
  0030a	8b d8		 mov	 ebx, eax
  0030c	81 e3 00 01 00
	00		 and	 ebx, 256		; 00000100H
  00312	0b fb		 or	 edi, ebx
  00314	89 3a		 mov	 DWORD PTR [edx], edi

; 318  : 
; 319  :         *SK++ =   ((X << 15) & 0x20000000) | ((X << 17) & 0x10000000)
; 320  :                 | ((X << 10) & 0x08000000) | ((X << 22) & 0x04000000)
; 321  :                 | ((X >>  2) & 0x02000000) | ((X <<  1) & 0x01000000)
; 322  :                 | ((X << 16) & 0x00200000) | ((X << 11) & 0x00100000)
; 323  :                 | ((X <<  3) & 0x00080000) | ((X >>  6) & 0x00040000)
; 324  :                 | ((X << 15) & 0x00020000) | ((X >>  4) & 0x00010000)
; 325  :                 | ((Y >>  2) & 0x00002000) | ((Y <<  8) & 0x00001000)
; 326  :                 | ((Y >> 14) & 0x00000808) | ((Y >>  9) & 0x00000400)
; 327  :                 | ((Y      ) & 0x00000200) | ((Y <<  7) & 0x00000100)
; 328  :                 | ((Y >>  7) & 0x00000020) | ((Y >>  3) & 0x00000011)
; 329  :                 | ((Y <<  2) & 0x00000004) | ((Y >> 21) & 0x00000002);

  00316	8b f9		 mov	 edi, ecx
  00318	83 e7 10	 and	 edi, 16			; 00000010H
  0031b	c1 e7 05	 shl	 edi, 5
  0031e	8b d9		 mov	 ebx, ecx
  00320	81 e3 00 08 00
	00		 and	 ebx, 2048		; 00000800H
  00326	0b fb		 or	 edi, ebx
  00328	d1 e7		 shl	 edi, 1
  0032a	8b d9		 mov	 ebx, ecx
  0032c	83 e3 20	 and	 ebx, 32			; 00000020H
  0032f	0b fb		 or	 edi, ebx
  00331	d1 e7		 shl	 edi, 1
  00333	8b d9		 mov	 ebx, ecx
  00335	81 e3 04 40 00
	00		 and	 ebx, 16388		; 00004004H
  0033b	0b fb		 or	 edi, ebx
  0033d	c1 e7 04	 shl	 edi, 4
  00340	8b d9		 mov	 ebx, ecx
  00342	81 e3 00 02 00
	00		 and	 ebx, 512		; 00000200H
  00348	0b fb		 or	 edi, ebx
  0034a	d1 e7		 shl	 edi, 1
  0034c	8b d9		 mov	 ebx, ecx
  0034e	81 e3 00 00 02
	00		 and	 ebx, 131072		; 00020000H
  00354	0b fb		 or	 edi, ebx
  00356	c1 e7 02	 shl	 edi, 2
  00359	8b d8		 mov	 ebx, eax
  0035b	83 e3 10	 and	 ebx, 16			; 00000010H
  0035e	0b fb		 or	 edi, ebx
  00360	d1 e7		 shl	 edi, 1
  00362	8b d8		 mov	 ebx, eax
  00364	83 e3 02	 and	 ebx, 2
  00367	0b fb		 or	 edi, ebx
  00369	c1 e7 04	 shl	 edi, 4
  0036c	8b d9		 mov	 ebx, ecx
  0036e	81 e3 00 00 01
	00		 and	 ebx, 65536		; 00010000H
  00374	0b fb		 or	 edi, ebx
  00376	d1 e7		 shl	 edi, 1
  00378	8b d8		 mov	 ebx, eax
  0037a	83 e3 01	 and	 ebx, 1
  0037d	0b fb		 or	 edi, ebx
  0037f	d1 e7		 shl	 edi, 1
  00381	8b d9		 mov	 ebx, ecx
  00383	81 e3 00 00 80
	00		 and	 ebx, 8388608		; 00800000H
  00389	0b fb		 or	 edi, ebx
  0038b	8b d8		 mov	 ebx, eax
  0038d	c1 eb 07	 shr	 ebx, 7
  00390	81 e3 00 80 00
	00		 and	 ebx, 32768		; 00008000H
  00396	8b e8		 mov	 ebp, eax
  00398	81 e5 00 00 02
	02		 and	 ebp, 33685504		; 02020000H
  0039e	0b dd		 or	 ebx, ebp
  003a0	c1 eb 05	 shr	 ebx, 5
  003a3	8b e8		 mov	 ebp, eax
  003a5	81 e5 00 00 08
	00		 and	 ebp, 524288		; 00080000H
  003ab	0b dd		 or	 ebx, ebp
  003ad	c1 eb 02	 shr	 ebx, 2
  003b0	8b e8		 mov	 ebp, eax
  003b2	81 e5 00 10 00
	00		 and	 ebp, 4096		; 00001000H
  003b8	0b dd		 or	 ebx, ebp
  003ba	d1 eb		 shr	 ebx, 1
  003bc	8b e9		 mov	 ebp, ecx
  003be	81 e5 00 00 00
	01		 and	 ebp, 16777216		; 01000000H
  003c4	0b dd		 or	 ebx, ebp
  003c6	c1 eb 02	 shr	 ebx, 2
  003c9	8b e9		 mov	 ebp, ecx
  003cb	81 e5 00 00 10
	00		 and	 ebp, 1048576		; 00100000H
  003d1	0b dd		 or	 ebx, ebp
  003d3	d1 eb		 shr	 ebx, 1
  003d5	8b e8		 mov	 ebp, eax
  003d7	81 e5 88 00 00
	00		 and	 ebp, 136		; 00000088H
  003dd	0b dd		 or	 ebx, ebp
  003df	8b e9		 mov	 ebp, ecx
  003e1	81 e5 00 00 00
	08		 and	 ebp, 134217728		; 08000000H
  003e7	d1 eb		 shr	 ebx, 1
  003e9	0b dd		 or	 ebx, ebp
  003eb	8b e8		 mov	 ebp, eax
  003ed	83 c2 04	 add	 edx, 4
  003f0	d1 e7		 shl	 edi, 1
  003f2	81 e5 00 80 00
	00		 and	 ebp, 32768		; 00008000H
  003f8	0b dd		 or	 ebx, ebp
  003fa	c1 eb 02	 shr	 ebx, 2
  003fd	0b fb		 or	 edi, ebx
  003ff	8b d8		 mov	 ebx, eax
  00401	81 e3 00 02 00
	00		 and	 ebx, 512		; 00000200H
  00407	0b fb		 or	 edi, ebx
  00409	89 3a		 mov	 DWORD PTR [edx], edi
  0040b	83 c2 04	 add	 edx, 4
  0040e	46		 inc	 esi
  0040f	83 fe 10	 cmp	 esi, 16			; 00000010H
  00412	0f 8c af fd ff
	ff		 jl	 $L773
  00418	5f		 pop	 edi
  00419	5e		 pop	 esi
  0041a	5d		 pop	 ebp

; 330  :     }
; 331  : 
; 332  :     return( 0 );

  0041b	33 c0		 xor	 eax, eax
  0041d	5b		 pop	 ebx

; 333  : }

  0041e	c3		 ret	 0
_des_main_ks ENDP
_TEXT	ENDS
PUBLIC	_des_set_key
; Function compile flags: /Ogty
;	COMDAT _des_set_key
_TEXT	SEGMENT
_ctx$ = 8						; size = 4
_key$ = 12						; size = 4
_des_set_key PROC NEAR					; COMDAT

; 337  :     int i;
; 338  : 
; 339  :     /* setup encryption subkeys */
; 340  : 
; 341  :     des_main_ks( ctx->esk, key );

  00000	8b 44 24 08	 mov	 eax, DWORD PTR _key$[esp-4]
  00004	56		 push	 esi
  00005	8b 74 24 08	 mov	 esi, DWORD PTR _ctx$[esp]
  00009	50		 push	 eax
  0000a	56		 push	 esi
  0000b	e8 00 00 00 00	 call	 _des_main_ks
  00010	83 c4 08	 add	 esp, 8
  00013	8d 86 84 00 00
	00		 lea	 eax, DWORD PTR [esi+132]
  00019	8d 4e 7c	 lea	 ecx, DWORD PTR [esi+124]
  0001c	ba 10 00 00 00	 mov	 edx, 16			; 00000010H
$L644:

; 342  : 
; 343  :     /* setup decryption subkeys */
; 344  : 
; 345  :     for( i = 0; i < 32; i += 2 )
; 346  :     {
; 347  :         ctx->dsk[i    ] = ctx->esk[30 - i];

  00021	8b 71 fc	 mov	 esi, DWORD PTR [ecx-4]
  00024	89 70 fc	 mov	 DWORD PTR [eax-4], esi

; 348  :         ctx->dsk[i + 1] = ctx->esk[31 - i];

  00027	8b 31		 mov	 esi, DWORD PTR [ecx]
  00029	89 30		 mov	 DWORD PTR [eax], esi
  0002b	83 c0 08	 add	 eax, 8
  0002e	83 e9 08	 sub	 ecx, 8
  00031	4a		 dec	 edx
  00032	75 ed		 jne	 SHORT $L644

; 349  :     }
; 350  : 
; 351  :     return( 0 );

  00034	33 c0		 xor	 eax, eax
  00036	5e		 pop	 esi

; 352  : }

  00037	c3		 ret	 0
_des_set_key ENDP
_TEXT	ENDS
PUBLIC	_des_crypt
; Function compile flags: /Ogty
;	COMDAT _des_crypt
_TEXT	SEGMENT
_SK$ = 8						; size = 4
_input$ = 12						; size = 4
_output$ = 16						; size = 4
_des_crypt PROC NEAR					; COMDAT

; 358  :     uint32 X, Y, T;
; 359  : 
; 360  :     GET_UINT32( X, input, 0 );

  00000	8b 44 24 08	 mov	 eax, DWORD PTR _input$[esp-4]
  00004	33 c9		 xor	 ecx, ecx
  00006	8a 28		 mov	 ch, BYTE PTR [eax]
  00008	0f b6 50 02	 movzx	 edx, BYTE PTR [eax+2]
  0000c	53		 push	 ebx
  0000d	55		 push	 ebp
  0000e	56		 push	 esi
  0000f	8a 48 01	 mov	 cl, BYTE PTR [eax+1]
  00012	57		 push	 edi
  00013	c1 e1 08	 shl	 ecx, 8
  00016	0b ca		 or	 ecx, edx
  00018	0f b6 50 03	 movzx	 edx, BYTE PTR [eax+3]
  0001c	c1 e1 08	 shl	 ecx, 8
  0001f	0b ca		 or	 ecx, edx
  00021	8b f1		 mov	 esi, ecx

; 361  :     GET_UINT32( Y, input, 4 );

  00023	33 c9		 xor	 ecx, ecx
  00025	8a 68 04	 mov	 ch, BYTE PTR [eax+4]
  00028	0f b6 50 06	 movzx	 edx, BYTE PTR [eax+6]
  0002c	8a 48 05	 mov	 cl, BYTE PTR [eax+5]
  0002f	0f b6 40 07	 movzx	 eax, BYTE PTR [eax+7]
  00033	c1 e1 08	 shl	 ecx, 8
  00036	0b ca		 or	 ecx, edx
  00038	c1 e1 08	 shl	 ecx, 8
  0003b	0b c1		 or	 eax, ecx

; 362  : 
; 363  :     DES_IP( X, Y );

  0003d	8b ce		 mov	 ecx, esi
  0003f	c1 e9 04	 shr	 ecx, 4
  00042	33 c8		 xor	 ecx, eax
  00044	81 e1 0f 0f 0f
	0f		 and	 ecx, 252645135		; 0f0f0f0fH
  0004a	33 c1		 xor	 eax, ecx
  0004c	c1 e1 04	 shl	 ecx, 4
  0004f	33 f1		 xor	 esi, ecx
  00051	8b ce		 mov	 ecx, esi
  00053	c1 e9 10	 shr	 ecx, 16			; 00000010H
  00056	33 c8		 xor	 ecx, eax
  00058	81 e1 ff ff 00
	00		 and	 ecx, 65535		; 0000ffffH
  0005e	33 c1		 xor	 eax, ecx
  00060	c1 e1 10	 shl	 ecx, 16			; 00000010H
  00063	33 f1		 xor	 esi, ecx
  00065	8b c8		 mov	 ecx, eax
  00067	c1 e9 02	 shr	 ecx, 2
  0006a	33 ce		 xor	 ecx, esi
  0006c	81 e1 33 33 33
	33		 and	 ecx, 858993459		; 33333333H
  00072	33 f1		 xor	 esi, ecx
  00074	c1 e1 02	 shl	 ecx, 2
  00077	33 c1		 xor	 eax, ecx
  00079	8b c8		 mov	 ecx, eax
  0007b	c1 e9 08	 shr	 ecx, 8
  0007e	33 ce		 xor	 ecx, esi
  00080	81 e1 ff 00 ff
	00		 and	 ecx, 16711935		; 00ff00ffH
  00086	33 f1		 xor	 esi, ecx
  00088	c1 e1 08	 shl	 ecx, 8
  0008b	33 c1		 xor	 eax, ecx
  0008d	8b d0		 mov	 edx, eax
  0008f	03 c0		 add	 eax, eax
  00091	c1 ea 1f	 shr	 edx, 31			; 0000001fH
  00094	0b d0		 or	 edx, eax
  00096	8b c2		 mov	 eax, edx
  00098	33 c6		 xor	 eax, esi
  0009a	25 aa aa aa aa	 and	 eax, -1431655766	; aaaaaaaaH
  0009f	33 f0		 xor	 esi, eax
  000a1	8b ce		 mov	 ecx, esi
  000a3	03 f6		 add	 esi, esi
  000a5	33 d0		 xor	 edx, eax

; 364  : 
; 365  :     DES_ROUND( Y, X );  DES_ROUND( X, Y );

  000a7	8b 44 24 14	 mov	 eax, DWORD PTR _SK$[esp+12]
  000ab	8b 38		 mov	 edi, DWORD PTR [eax]
  000ad	c1 e9 1f	 shr	 ecx, 31			; 0000001fH
  000b0	0b ce		 or	 ecx, esi
  000b2	33 fa		 xor	 edi, edx
  000b4	8b f7		 mov	 esi, edi
  000b6	c1 ee 18	 shr	 esi, 24			; 00000018H
  000b9	83 e6 3f	 and	 esi, 63			; 0000003fH

; 366  :     DES_ROUND( Y, X );  DES_ROUND( X, Y );
; 367  :     DES_ROUND( Y, X );  DES_ROUND( X, Y );
; 368  :     DES_ROUND( Y, X );  DES_ROUND( X, Y );
; 369  :     DES_ROUND( Y, X );  DES_ROUND( X, Y );
; 370  :     DES_ROUND( Y, X );  DES_ROUND( X, Y );
; 371  :     DES_ROUND( Y, X );  DES_ROUND( X, Y );
; 372  :     DES_ROUND( Y, X );  DES_ROUND( X, Y );
; 373  : 
; 374  :     DES_FP( Y, X );
; 375  : 
; 376  :     PUT_UINT32( Y, output, 0 );
; 377  :     PUT_UINT32( X, output, 4 );

  000bc	8b 2c b5 00 00
	00 00		 mov	 ebp, DWORD PTR _SB2[esi*4]
  000c3	8b f7		 mov	 esi, edi
  000c5	c1 ee 10	 shr	 esi, 16			; 00000010H
  000c8	83 e6 3f	 and	 esi, 63			; 0000003fH
  000cb	8b 1c b5 00 00
	00 00		 mov	 ebx, DWORD PTR _SB4[esi*4]
  000d2	33 cd		 xor	 ecx, ebp
  000d4	8b f7		 mov	 esi, edi
  000d6	83 c0 04	 add	 eax, 4
  000d9	33 cb		 xor	 ecx, ebx
  000db	c1 ee 08	 shr	 esi, 8
  000de	8b 18		 mov	 ebx, DWORD PTR [eax]
  000e0	83 e7 3f	 and	 edi, 63			; 0000003fH
  000e3	83 e6 3f	 and	 esi, 63			; 0000003fH
  000e6	8b 2c b5 00 00
	00 00		 mov	 ebp, DWORD PTR _SB6[esi*4]
  000ed	8b 34 bd 00 00
	00 00		 mov	 esi, DWORD PTR _SB8[edi*4]
  000f4	33 cd		 xor	 ecx, ebp
  000f6	33 ce		 xor	 ecx, esi
  000f8	8b f2		 mov	 esi, edx
  000fa	c1 e6 1c	 shl	 esi, 28			; 0000001cH
  000fd	8b fa		 mov	 edi, edx
  000ff	c1 ef 04	 shr	 edi, 4
  00102	0b f7		 or	 esi, edi
  00104	33 f3		 xor	 esi, ebx
  00106	8b de		 mov	 ebx, esi
  00108	c1 eb 10	 shr	 ebx, 16			; 00000010H
  0010b	83 e3 3f	 and	 ebx, 63			; 0000003fH
  0010e	8b 2c 9d 00 00
	00 00		 mov	 ebp, DWORD PTR _SB3[ebx*4]
  00115	8b fe		 mov	 edi, esi
  00117	c1 ef 18	 shr	 edi, 24			; 00000018H
  0011a	83 e7 3f	 and	 edi, 63			; 0000003fH
  0011d	8b 3c bd 00 00
	00 00		 mov	 edi, DWORD PTR _SB1[edi*4]
  00124	33 fd		 xor	 edi, ebp
  00126	8b de		 mov	 ebx, esi
  00128	c1 eb 08	 shr	 ebx, 8
  0012b	83 e3 3f	 and	 ebx, 63			; 0000003fH
  0012e	33 3c 9d 00 00
	00 00		 xor	 edi, DWORD PTR _SB5[ebx*4]
  00135	83 e6 3f	 and	 esi, 63			; 0000003fH
  00138	33 3c b5 00 00
	00 00		 xor	 edi, DWORD PTR _SB7[esi*4]
  0013f	8b 70 04	 mov	 esi, DWORD PTR [eax+4]
  00142	33 cf		 xor	 ecx, edi
  00144	33 f1		 xor	 esi, ecx
  00146	83 c0 04	 add	 eax, 4
  00149	8b de		 mov	 ebx, esi
  0014b	c1 eb 10	 shr	 ebx, 16			; 00000010H
  0014e	83 e3 3f	 and	 ebx, 63			; 0000003fH
  00151	8b 2c 9d 00 00
	00 00		 mov	 ebp, DWORD PTR _SB4[ebx*4]
  00158	8b fe		 mov	 edi, esi
  0015a	c1 ef 18	 shr	 edi, 24			; 00000018H
  0015d	83 e7 3f	 and	 edi, 63			; 0000003fH
  00160	8b 3c bd 00 00
	00 00		 mov	 edi, DWORD PTR _SB2[edi*4]
  00167	33 fd		 xor	 edi, ebp
  00169	8b de		 mov	 ebx, esi
  0016b	c1 eb 08	 shr	 ebx, 8
  0016e	83 e3 3f	 and	 ebx, 63			; 0000003fH
  00171	33 3c 9d 00 00
	00 00		 xor	 edi, DWORD PTR _SB6[ebx*4]
  00178	83 e6 3f	 and	 esi, 63			; 0000003fH
  0017b	33 3c b5 00 00
	00 00		 xor	 edi, DWORD PTR _SB8[esi*4]
  00182	8b 58 04	 mov	 ebx, DWORD PTR [eax+4]
  00185	33 d7		 xor	 edx, edi
  00187	83 c0 04	 add	 eax, 4
  0018a	8b f1		 mov	 esi, ecx
  0018c	c1 e6 1c	 shl	 esi, 28			; 0000001cH
  0018f	8b f9		 mov	 edi, ecx
  00191	c1 ef 04	 shr	 edi, 4
  00194	0b f7		 or	 esi, edi
  00196	33 f3		 xor	 esi, ebx
  00198	8b de		 mov	 ebx, esi
  0019a	c1 eb 10	 shr	 ebx, 16			; 00000010H
  0019d	83 e3 3f	 and	 ebx, 63			; 0000003fH
  001a0	8b 2c 9d 00 00
	00 00		 mov	 ebp, DWORD PTR _SB3[ebx*4]
  001a7	8b fe		 mov	 edi, esi
  001a9	c1 ef 18	 shr	 edi, 24			; 00000018H
  001ac	83 e7 3f	 and	 edi, 63			; 0000003fH
  001af	8b 3c bd 00 00
	00 00		 mov	 edi, DWORD PTR _SB1[edi*4]
  001b6	8b de		 mov	 ebx, esi
  001b8	c1 eb 08	 shr	 ebx, 8
  001bb	33 fd		 xor	 edi, ebp
  001bd	83 e3 3f	 and	 ebx, 63			; 0000003fH
  001c0	8b 2c 9d 00 00
	00 00		 mov	 ebp, DWORD PTR _SB5[ebx*4]
  001c7	83 e6 3f	 and	 esi, 63			; 0000003fH
  001ca	8b 1c b5 00 00
	00 00		 mov	 ebx, DWORD PTR _SB7[esi*4]
  001d1	8b 70 04	 mov	 esi, DWORD PTR [eax+4]
  001d4	33 fd		 xor	 edi, ebp
  001d6	83 c0 04	 add	 eax, 4
  001d9	33 fb		 xor	 edi, ebx
  001db	33 d7		 xor	 edx, edi
  001dd	33 f2		 xor	 esi, edx
  001df	8b de		 mov	 ebx, esi
  001e1	c1 eb 10	 shr	 ebx, 16			; 00000010H
  001e4	83 e3 3f	 and	 ebx, 63			; 0000003fH
  001e7	8b 2c 9d 00 00
	00 00		 mov	 ebp, DWORD PTR _SB4[ebx*4]
  001ee	8b fe		 mov	 edi, esi
  001f0	c1 ef 18	 shr	 edi, 24			; 00000018H
  001f3	83 e7 3f	 and	 edi, 63			; 0000003fH
  001f6	8b 3c bd 00 00
	00 00		 mov	 edi, DWORD PTR _SB2[edi*4]
  001fd	33 fd		 xor	 edi, ebp
  001ff	8b de		 mov	 ebx, esi
  00201	c1 eb 08	 shr	 ebx, 8
  00204	83 e3 3f	 and	 ebx, 63			; 0000003fH
  00207	33 3c 9d 00 00
	00 00		 xor	 edi, DWORD PTR _SB6[ebx*4]
  0020e	83 e6 3f	 and	 esi, 63			; 0000003fH
  00211	33 3c b5 00 00
	00 00		 xor	 edi, DWORD PTR _SB8[esi*4]
  00218	8b 58 04	 mov	 ebx, DWORD PTR [eax+4]
  0021b	33 cf		 xor	 ecx, edi
  0021d	83 c0 04	 add	 eax, 4
  00220	8b f2		 mov	 esi, edx
  00222	c1 e6 1c	 shl	 esi, 28			; 0000001cH
  00225	8b fa		 mov	 edi, edx
  00227	c1 ef 04	 shr	 edi, 4
  0022a	0b f7		 or	 esi, edi
  0022c	33 f3		 xor	 esi, ebx
  0022e	8b de		 mov	 ebx, esi
  00230	c1 eb 10	 shr	 ebx, 16			; 00000010H
  00233	83 e3 3f	 and	 ebx, 63			; 0000003fH
  00236	8b 2c 9d 00 00
	00 00		 mov	 ebp, DWORD PTR _SB3[ebx*4]
  0023d	8b fe		 mov	 edi, esi
  0023f	c1 ef 18	 shr	 edi, 24			; 00000018H
  00242	83 e7 3f	 and	 edi, 63			; 0000003fH
  00245	8b 3c bd 00 00
	00 00		 mov	 edi, DWORD PTR _SB1[edi*4]
  0024c	33 fd		 xor	 edi, ebp
  0024e	8b de		 mov	 ebx, esi
  00250	c1 eb 08	 shr	 ebx, 8
  00253	83 e3 3f	 and	 ebx, 63			; 0000003fH
  00256	33 3c 9d 00 00
	00 00		 xor	 edi, DWORD PTR _SB5[ebx*4]
  0025d	83 e6 3f	 and	 esi, 63			; 0000003fH
  00260	8b 1c b5 00 00
	00 00		 mov	 ebx, DWORD PTR _SB7[esi*4]
  00267	8b 70 04	 mov	 esi, DWORD PTR [eax+4]
  0026a	33 fb		 xor	 edi, ebx
  0026c	33 cf		 xor	 ecx, edi
  0026e	33 f1		 xor	 esi, ecx
  00270	83 c0 04	 add	 eax, 4
  00273	8b de		 mov	 ebx, esi
  00275	c1 eb 10	 shr	 ebx, 16			; 00000010H
  00278	83 e3 3f	 and	 ebx, 63			; 0000003fH
  0027b	8b 2c 9d 00 00
	00 00		 mov	 ebp, DWORD PTR _SB4[ebx*4]
  00282	8b fe		 mov	 edi, esi
  00284	c1 ef 18	 shr	 edi, 24			; 00000018H
  00287	83 e7 3f	 and	 edi, 63			; 0000003fH
  0028a	8b 3c bd 00 00
	00 00		 mov	 edi, DWORD PTR _SB2[edi*4]
  00291	8b de		 mov	 ebx, esi
  00293	33 fd		 xor	 edi, ebp
  00295	c1 eb 08	 shr	 ebx, 8
  00298	83 e3 3f	 and	 ebx, 63			; 0000003fH
  0029b	33 3c 9d 00 00
	00 00		 xor	 edi, DWORD PTR _SB6[ebx*4]
  002a2	83 e6 3f	 and	 esi, 63			; 0000003fH
  002a5	33 3c b5 00 00
	00 00		 xor	 edi, DWORD PTR _SB8[esi*4]
  002ac	8b 58 04	 mov	 ebx, DWORD PTR [eax+4]
  002af	33 d7		 xor	 edx, edi
  002b1	83 c0 04	 add	 eax, 4
  002b4	8b f1		 mov	 esi, ecx
  002b6	c1 e6 1c	 shl	 esi, 28			; 0000001cH
  002b9	8b f9		 mov	 edi, ecx
  002bb	c1 ef 04	 shr	 edi, 4
  002be	0b f7		 or	 esi, edi
  002c0	33 f3		 xor	 esi, ebx
  002c2	8b fe		 mov	 edi, esi
  002c4	c1 ef 18	 shr	 edi, 24			; 00000018H
  002c7	8b de		 mov	 ebx, esi
  002c9	83 e7 3f	 and	 edi, 63			; 0000003fH
  002cc	8b 3c bd 00 00
	00 00		 mov	 edi, DWORD PTR _SB1[edi*4]
  002d3	c1 eb 10	 shr	 ebx, 16			; 00000010H
  002d6	83 c0 04	 add	 eax, 4
  002d9	83 e3 3f	 and	 ebx, 63			; 0000003fH
  002dc	33 3c 9d 00 00
	00 00		 xor	 edi, DWORD PTR _SB3[ebx*4]
  002e3	8b de		 mov	 ebx, esi
  002e5	c1 eb 08	 shr	 ebx, 8
  002e8	83 e3 3f	 and	 ebx, 63			; 0000003fH
  002eb	33 3c 9d 00 00
	00 00		 xor	 edi, DWORD PTR _SB5[ebx*4]
  002f2	83 e6 3f	 and	 esi, 63			; 0000003fH
  002f5	33 3c b5 00 00
	00 00		 xor	 edi, DWORD PTR _SB7[esi*4]
  002fc	8b 30		 mov	 esi, DWORD PTR [eax]
  002fe	33 d7		 xor	 edx, edi
  00300	33 f2		 xor	 esi, edx
  00302	8b de		 mov	 ebx, esi
  00304	c1 eb 10	 shr	 ebx, 16			; 00000010H
  00307	83 e3 3f	 and	 ebx, 63			; 0000003fH
  0030a	8b 2c 9d 00 00
	00 00		 mov	 ebp, DWORD PTR _SB4[ebx*4]
  00311	8b fe		 mov	 edi, esi
  00313	c1 ef 18	 shr	 edi, 24			; 00000018H
  00316	83 e7 3f	 and	 edi, 63			; 0000003fH
  00319	8b 3c bd 00 00
	00 00		 mov	 edi, DWORD PTR _SB2[edi*4]
  00320	33 fd		 xor	 edi, ebp
  00322	8b de		 mov	 ebx, esi
  00324	c1 eb 08	 shr	 ebx, 8
  00327	83 e3 3f	 and	 ebx, 63			; 0000003fH
  0032a	33 3c 9d 00 00
	00 00		 xor	 edi, DWORD PTR _SB6[ebx*4]
  00331	83 e6 3f	 and	 esi, 63			; 0000003fH
  00334	33 3c b5 00 00
	00 00		 xor	 edi, DWORD PTR _SB8[esi*4]
  0033b	8b 58 04	 mov	 ebx, DWORD PTR [eax+4]
  0033e	33 cf		 xor	 ecx, edi
  00340	83 c0 04	 add	 eax, 4
  00343	8b f2		 mov	 esi, edx
  00345	c1 e6 1c	 shl	 esi, 28			; 0000001cH
  00348	8b fa		 mov	 edi, edx
  0034a	c1 ef 04	 shr	 edi, 4
  0034d	0b f7		 or	 esi, edi
  0034f	33 f3		 xor	 esi, ebx
  00351	8b de		 mov	 ebx, esi
  00353	c1 eb 10	 shr	 ebx, 16			; 00000010H
  00356	83 e3 3f	 and	 ebx, 63			; 0000003fH
  00359	8b 2c 9d 00 00
	00 00		 mov	 ebp, DWORD PTR _SB3[ebx*4]
  00360	8b fe		 mov	 edi, esi
  00362	c1 ef 18	 shr	 edi, 24			; 00000018H
  00365	83 e7 3f	 and	 edi, 63			; 0000003fH
  00368	8b 3c bd 00 00
	00 00		 mov	 edi, DWORD PTR _SB1[edi*4]
  0036f	33 fd		 xor	 edi, ebp
  00371	8b de		 mov	 ebx, esi
  00373	c1 eb 08	 shr	 ebx, 8
  00376	83 e3 3f	 and	 ebx, 63			; 0000003fH
  00379	33 3c 9d 00 00
	00 00		 xor	 edi, DWORD PTR _SB5[ebx*4]
  00380	83 e6 3f	 and	 esi, 63			; 0000003fH
  00383	8b 1c b5 00 00
	00 00		 mov	 ebx, DWORD PTR _SB7[esi*4]
  0038a	8b 70 04	 mov	 esi, DWORD PTR [eax+4]
  0038d	33 fb		 xor	 edi, ebx
  0038f	33 cf		 xor	 ecx, edi
  00391	83 c0 04	 add	 eax, 4
  00394	33 f1		 xor	 esi, ecx
  00396	8b de		 mov	 ebx, esi
  00398	c1 eb 10	 shr	 ebx, 16			; 00000010H
  0039b	83 e3 3f	 and	 ebx, 63			; 0000003fH
  0039e	8b 2c 9d 00 00
	00 00		 mov	 ebp, DWORD PTR _SB4[ebx*4]
  003a5	8b fe		 mov	 edi, esi
  003a7	c1 ef 18	 shr	 edi, 24			; 00000018H
  003aa	83 e7 3f	 and	 edi, 63			; 0000003fH
  003ad	8b 3c bd 00 00
	00 00		 mov	 edi, DWORD PTR _SB2[edi*4]
  003b4	8b de		 mov	 ebx, esi
  003b6	c1 eb 08	 shr	 ebx, 8
  003b9	33 fd		 xor	 edi, ebp
  003bb	83 e3 3f	 and	 ebx, 63			; 0000003fH
  003be	8b 2c 9d 00 00
	00 00		 mov	 ebp, DWORD PTR _SB6[ebx*4]
  003c5	83 e6 3f	 and	 esi, 63			; 0000003fH
  003c8	8b 1c b5 00 00
	00 00		 mov	 ebx, DWORD PTR _SB8[esi*4]
  003cf	33 fd		 xor	 edi, ebp
  003d1	33 fb		 xor	 edi, ebx
  003d3	8b f1		 mov	 esi, ecx
  003d5	83 c0 04	 add	 eax, 4
  003d8	33 d7		 xor	 edx, edi
  003da	c1 e6 1c	 shl	 esi, 28			; 0000001cH
  003dd	8b 18		 mov	 ebx, DWORD PTR [eax]
  003df	8b f9		 mov	 edi, ecx
  003e1	c1 ef 04	 shr	 edi, 4
  003e4	0b f7		 or	 esi, edi
  003e6	33 f3		 xor	 esi, ebx
  003e8	8b de		 mov	 ebx, esi
  003ea	c1 eb 10	 shr	 ebx, 16			; 00000010H
  003ed	83 e3 3f	 and	 ebx, 63			; 0000003fH
  003f0	8b 2c 9d 00 00
	00 00		 mov	 ebp, DWORD PTR _SB3[ebx*4]
  003f7	8b fe		 mov	 edi, esi
  003f9	c1 ef 18	 shr	 edi, 24			; 00000018H
  003fc	83 e7 3f	 and	 edi, 63			; 0000003fH
  003ff	8b 3c bd 00 00
	00 00		 mov	 edi, DWORD PTR _SB1[edi*4]
  00406	33 fd		 xor	 edi, ebp
  00408	8b de		 mov	 ebx, esi
  0040a	c1 eb 08	 shr	 ebx, 8
  0040d	83 e3 3f	 and	 ebx, 63			; 0000003fH
  00410	33 3c 9d 00 00
	00 00		 xor	 edi, DWORD PTR _SB5[ebx*4]
  00417	83 e6 3f	 and	 esi, 63			; 0000003fH
  0041a	33 3c b5 00 00
	00 00		 xor	 edi, DWORD PTR _SB7[esi*4]
  00421	8b 70 04	 mov	 esi, DWORD PTR [eax+4]
  00424	33 d7		 xor	 edx, edi
  00426	33 f2		 xor	 esi, edx
  00428	83 c0 04	 add	 eax, 4
  0042b	8b de		 mov	 ebx, esi
  0042d	c1 eb 10	 shr	 ebx, 16			; 00000010H
  00430	83 e3 3f	 and	 ebx, 63			; 0000003fH
  00433	8b 2c 9d 00 00
	00 00		 mov	 ebp, DWORD PTR _SB4[ebx*4]
  0043a	8b fe		 mov	 edi, esi
  0043c	c1 ef 18	 shr	 edi, 24			; 00000018H
  0043f	83 e7 3f	 and	 edi, 63			; 0000003fH
  00442	8b 3c bd 00 00
	00 00		 mov	 edi, DWORD PTR _SB2[edi*4]
  00449	33 fd		 xor	 edi, ebp
  0044b	8b de		 mov	 ebx, esi
  0044d	c1 eb 08	 shr	 ebx, 8
  00450	83 e3 3f	 and	 ebx, 63			; 0000003fH
  00453	33 3c 9d 00 00
	00 00		 xor	 edi, DWORD PTR _SB6[ebx*4]
  0045a	83 e6 3f	 and	 esi, 63			; 0000003fH
  0045d	33 3c b5 00 00
	00 00		 xor	 edi, DWORD PTR _SB8[esi*4]
  00464	8b 58 04	 mov	 ebx, DWORD PTR [eax+4]
  00467	33 cf		 xor	 ecx, edi
  00469	83 c0 04	 add	 eax, 4
  0046c	8b f2		 mov	 esi, edx
  0046e	c1 e6 1c	 shl	 esi, 28			; 0000001cH
  00471	8b fa		 mov	 edi, edx
  00473	c1 ef 04	 shr	 edi, 4
  00476	0b f7		 or	 esi, edi
  00478	33 f3		 xor	 esi, ebx
  0047a	8b de		 mov	 ebx, esi
  0047c	c1 eb 10	 shr	 ebx, 16			; 00000010H
  0047f	83 e3 3f	 and	 ebx, 63			; 0000003fH
  00482	8b 2c 9d 00 00
	00 00		 mov	 ebp, DWORD PTR _SB3[ebx*4]
  00489	8b fe		 mov	 edi, esi
  0048b	c1 ef 18	 shr	 edi, 24			; 00000018H
  0048e	83 e7 3f	 and	 edi, 63			; 0000003fH
  00491	8b 3c bd 00 00
	00 00		 mov	 edi, DWORD PTR _SB1[edi*4]
  00498	8b de		 mov	 ebx, esi
  0049a	33 fd		 xor	 edi, ebp
  0049c	c1 eb 08	 shr	 ebx, 8
  0049f	83 e3 3f	 and	 ebx, 63			; 0000003fH
  004a2	33 3c 9d 00 00
	00 00		 xor	 edi, DWORD PTR _SB5[ebx*4]
  004a9	83 e6 3f	 and	 esi, 63			; 0000003fH
  004ac	8b 1c b5 00 00
	00 00		 mov	 ebx, DWORD PTR _SB7[esi*4]
  004b3	8b 70 04	 mov	 esi, DWORD PTR [eax+4]
  004b6	33 fb		 xor	 edi, ebx
  004b8	33 cf		 xor	 ecx, edi
  004ba	83 c0 04	 add	 eax, 4
  004bd	33 f1		 xor	 esi, ecx
  004bf	8b fe		 mov	 edi, esi
  004c1	c1 ef 18	 shr	 edi, 24			; 00000018H
  004c4	8b de		 mov	 ebx, esi
  004c6	83 e7 3f	 and	 edi, 63			; 0000003fH
  004c9	8b 3c bd 00 00
	00 00		 mov	 edi, DWORD PTR _SB2[edi*4]
  004d0	c1 eb 10	 shr	 ebx, 16			; 00000010H
  004d3	83 c0 04	 add	 eax, 4
  004d6	83 e3 3f	 and	 ebx, 63			; 0000003fH
  004d9	33 3c 9d 00 00
	00 00		 xor	 edi, DWORD PTR _SB4[ebx*4]
  004e0	8b de		 mov	 ebx, esi
  004e2	c1 eb 08	 shr	 ebx, 8
  004e5	83 e3 3f	 and	 ebx, 63			; 0000003fH
  004e8	33 3c 9d 00 00
	00 00		 xor	 edi, DWORD PTR _SB6[ebx*4]
  004ef	83 e6 3f	 and	 esi, 63			; 0000003fH
  004f2	33 3c b5 00 00
	00 00		 xor	 edi, DWORD PTR _SB8[esi*4]
  004f9	8b 18		 mov	 ebx, DWORD PTR [eax]
  004fb	33 d7		 xor	 edx, edi
  004fd	8b f1		 mov	 esi, ecx
  004ff	c1 e6 1c	 shl	 esi, 28			; 0000001cH
  00502	8b f9		 mov	 edi, ecx
  00504	c1 ef 04	 shr	 edi, 4
  00507	0b f7		 or	 esi, edi
  00509	33 f3		 xor	 esi, ebx
  0050b	8b de		 mov	 ebx, esi
  0050d	c1 eb 10	 shr	 ebx, 16			; 00000010H
  00510	83 e3 3f	 and	 ebx, 63			; 0000003fH
  00513	8b 2c 9d 00 00
	00 00		 mov	 ebp, DWORD PTR _SB3[ebx*4]
  0051a	8b fe		 mov	 edi, esi
  0051c	c1 ef 18	 shr	 edi, 24			; 00000018H
  0051f	83 e7 3f	 and	 edi, 63			; 0000003fH
  00522	8b 3c bd 00 00
	00 00		 mov	 edi, DWORD PTR _SB1[edi*4]
  00529	33 fd		 xor	 edi, ebp
  0052b	8b de		 mov	 ebx, esi
  0052d	c1 eb 08	 shr	 ebx, 8
  00530	83 e3 3f	 and	 ebx, 63			; 0000003fH
  00533	33 3c 9d 00 00
	00 00		 xor	 edi, DWORD PTR _SB5[ebx*4]
  0053a	83 e6 3f	 and	 esi, 63			; 0000003fH
  0053d	8b 1c b5 00 00
	00 00		 mov	 ebx, DWORD PTR _SB7[esi*4]
  00544	8b 70 04	 mov	 esi, DWORD PTR [eax+4]
  00547	33 fb		 xor	 edi, ebx
  00549	33 d7		 xor	 edx, edi
  0054b	33 f2		 xor	 esi, edx
  0054d	83 c0 04	 add	 eax, 4
  00550	8b de		 mov	 ebx, esi
  00552	c1 eb 10	 shr	 ebx, 16			; 00000010H
  00555	83 e3 3f	 and	 ebx, 63			; 0000003fH
  00558	8b 2c 9d 00 00
	00 00		 mov	 ebp, DWORD PTR _SB4[ebx*4]
  0055f	8b fe		 mov	 edi, esi
  00561	c1 ef 18	 shr	 edi, 24			; 00000018H
  00564	83 e7 3f	 and	 edi, 63			; 0000003fH
  00567	8b 3c bd 00 00
	00 00		 mov	 edi, DWORD PTR _SB2[edi*4]
  0056e	33 fd		 xor	 edi, ebp
  00570	8b de		 mov	 ebx, esi
  00572	c1 eb 08	 shr	 ebx, 8
  00575	83 e3 3f	 and	 ebx, 63			; 0000003fH
  00578	33 3c 9d 00 00
	00 00		 xor	 edi, DWORD PTR _SB6[ebx*4]
  0057f	83 e6 3f	 and	 esi, 63			; 0000003fH
  00582	33 3c b5 00 00
	00 00		 xor	 edi, DWORD PTR _SB8[esi*4]
  00589	8b 58 04	 mov	 ebx, DWORD PTR [eax+4]
  0058c	33 cf		 xor	 ecx, edi
  0058e	83 c0 04	 add	 eax, 4
  00591	8b f2		 mov	 esi, edx
  00593	c1 e6 1c	 shl	 esi, 28			; 0000001cH
  00596	8b fa		 mov	 edi, edx
  00598	c1 ef 04	 shr	 edi, 4
  0059b	0b f7		 or	 esi, edi
  0059d	33 f3		 xor	 esi, ebx
  0059f	8b de		 mov	 ebx, esi
  005a1	c1 eb 10	 shr	 ebx, 16			; 00000010H
  005a4	83 e3 3f	 and	 ebx, 63			; 0000003fH
  005a7	8b 2c 9d 00 00
	00 00		 mov	 ebp, DWORD PTR _SB3[ebx*4]
  005ae	8b fe		 mov	 edi, esi
  005b0	c1 ef 18	 shr	 edi, 24			; 00000018H
  005b3	83 e7 3f	 and	 edi, 63			; 0000003fH
  005b6	8b 3c bd 00 00
	00 00		 mov	 edi, DWORD PTR _SB1[edi*4]
  005bd	8b de		 mov	 ebx, esi
  005bf	c1 eb 08	 shr	 ebx, 8
  005c2	33 fd		 xor	 edi, ebp
  005c4	83 e3 3f	 and	 ebx, 63			; 0000003fH
  005c7	8b 2c 9d 00 00
	00 00		 mov	 ebp, DWORD PTR _SB5[ebx*4]
  005ce	83 c0 04	 add	 eax, 4
  005d1	33 fd		 xor	 edi, ebp
  005d3	83 e6 3f	 and	 esi, 63			; 0000003fH
  005d6	33 3c b5 00 00
	00 00		 xor	 edi, DWORD PTR _SB7[esi*4]
  005dd	8b 30		 mov	 esi, DWORD PTR [eax]
  005df	33 cf		 xor	 ecx, edi
  005e1	33 f1		 xor	 esi, ecx
  005e3	8b de		 mov	 ebx, esi
  005e5	c1 eb 10	 shr	 ebx, 16			; 00000010H
  005e8	83 e3 3f	 and	 ebx, 63			; 0000003fH
  005eb	8b 2c 9d 00 00
	00 00		 mov	 ebp, DWORD PTR _SB4[ebx*4]
  005f2	8b fe		 mov	 edi, esi
  005f4	c1 ef 18	 shr	 edi, 24			; 00000018H
  005f7	83 e7 3f	 and	 edi, 63			; 0000003fH
  005fa	8b 3c bd 00 00
	00 00		 mov	 edi, DWORD PTR _SB2[edi*4]
  00601	33 fd		 xor	 edi, ebp
  00603	8b de		 mov	 ebx, esi
  00605	c1 eb 08	 shr	 ebx, 8
  00608	83 e3 3f	 and	 ebx, 63			; 0000003fH
  0060b	33 3c 9d 00 00
	00 00		 xor	 edi, DWORD PTR _SB6[ebx*4]
  00612	83 e6 3f	 and	 esi, 63			; 0000003fH
  00615	33 3c b5 00 00
	00 00		 xor	 edi, DWORD PTR _SB8[esi*4]
  0061c	8b 58 04	 mov	 ebx, DWORD PTR [eax+4]
  0061f	33 d7		 xor	 edx, edi
  00621	83 c0 04	 add	 eax, 4
  00624	8b f1		 mov	 esi, ecx
  00626	c1 e6 1c	 shl	 esi, 28			; 0000001cH
  00629	8b f9		 mov	 edi, ecx
  0062b	c1 ef 04	 shr	 edi, 4
  0062e	0b f7		 or	 esi, edi
  00630	33 f3		 xor	 esi, ebx
  00632	8b de		 mov	 ebx, esi
  00634	c1 eb 10	 shr	 ebx, 16			; 00000010H
  00637	83 e3 3f	 and	 ebx, 63			; 0000003fH
  0063a	8b 2c 9d 00 00
	00 00		 mov	 ebp, DWORD PTR _SB3[ebx*4]
  00641	8b fe		 mov	 edi, esi
  00643	c1 ef 18	 shr	 edi, 24			; 00000018H
  00646	83 e7 3f	 and	 edi, 63			; 0000003fH
  00649	8b 3c bd 00 00
	00 00		 mov	 edi, DWORD PTR _SB1[edi*4]
  00650	33 fd		 xor	 edi, ebp
  00652	8b de		 mov	 ebx, esi
  00654	c1 eb 08	 shr	 ebx, 8
  00657	83 e3 3f	 and	 ebx, 63			; 0000003fH
  0065a	33 3c 9d 00 00
	00 00		 xor	 edi, DWORD PTR _SB5[ebx*4]
  00661	83 e6 3f	 and	 esi, 63			; 0000003fH
  00664	8b 1c b5 00 00
	00 00		 mov	 ebx, DWORD PTR _SB7[esi*4]
  0066b	8b 70 04	 mov	 esi, DWORD PTR [eax+4]
  0066e	33 fb		 xor	 edi, ebx
  00670	33 d7		 xor	 edx, edi
  00672	33 f2		 xor	 esi, edx
  00674	83 c0 04	 add	 eax, 4
  00677	8b de		 mov	 ebx, esi
  00679	c1 eb 10	 shr	 ebx, 16			; 00000010H
  0067c	83 e3 3f	 and	 ebx, 63			; 0000003fH
  0067f	8b 2c 9d 00 00
	00 00		 mov	 ebp, DWORD PTR _SB4[ebx*4]
  00686	8b fe		 mov	 edi, esi
  00688	c1 ef 18	 shr	 edi, 24			; 00000018H
  0068b	83 e7 3f	 and	 edi, 63			; 0000003fH
  0068e	8b 3c bd 00 00
	00 00		 mov	 edi, DWORD PTR _SB2[edi*4]
  00695	8b de		 mov	 ebx, esi
  00697	33 fd		 xor	 edi, ebp
  00699	c1 eb 08	 shr	 ebx, 8
  0069c	83 e3 3f	 and	 ebx, 63			; 0000003fH
  0069f	8b 2c 9d 00 00
	00 00		 mov	 ebp, DWORD PTR _SB6[ebx*4]
  006a6	83 e6 3f	 and	 esi, 63			; 0000003fH
  006a9	8b 1c b5 00 00
	00 00		 mov	 ebx, DWORD PTR _SB8[esi*4]
  006b0	33 fd		 xor	 edi, ebp
  006b2	33 fb		 xor	 edi, ebx
  006b4	8b 58 04	 mov	 ebx, DWORD PTR [eax+4]
  006b7	33 cf		 xor	 ecx, edi
  006b9	83 c0 04	 add	 eax, 4
  006bc	8b f2		 mov	 esi, edx
  006be	c1 e6 1c	 shl	 esi, 28			; 0000001cH
  006c1	8b fa		 mov	 edi, edx
  006c3	c1 ef 04	 shr	 edi, 4
  006c6	0b f7		 or	 esi, edi
  006c8	33 f3		 xor	 esi, ebx
  006ca	8b fe		 mov	 edi, esi
  006cc	83 c0 04	 add	 eax, 4
  006cf	c1 ef 18	 shr	 edi, 24			; 00000018H
  006d2	83 e7 3f	 and	 edi, 63			; 0000003fH
  006d5	8b 3c bd 00 00
	00 00		 mov	 edi, DWORD PTR _SB1[edi*4]
  006dc	8b de		 mov	 ebx, esi
  006de	c1 eb 10	 shr	 ebx, 16			; 00000010H
  006e1	83 e3 3f	 and	 ebx, 63			; 0000003fH
  006e4	33 3c 9d 00 00
	00 00		 xor	 edi, DWORD PTR _SB3[ebx*4]
  006eb	8b de		 mov	 ebx, esi
  006ed	c1 eb 08	 shr	 ebx, 8
  006f0	83 e3 3f	 and	 ebx, 63			; 0000003fH
  006f3	33 3c 9d 00 00
	00 00		 xor	 edi, DWORD PTR _SB5[ebx*4]
  006fa	83 e6 3f	 and	 esi, 63			; 0000003fH
  006fd	33 3c b5 00 00
	00 00		 xor	 edi, DWORD PTR _SB7[esi*4]
  00704	8b 30		 mov	 esi, DWORD PTR [eax]
  00706	33 cf		 xor	 ecx, edi
  00708	33 f1		 xor	 esi, ecx
  0070a	8b de		 mov	 ebx, esi
  0070c	c1 eb 10	 shr	 ebx, 16			; 00000010H
  0070f	83 e3 3f	 and	 ebx, 63			; 0000003fH
  00712	8b 2c 9d 00 00
	00 00		 mov	 ebp, DWORD PTR _SB4[ebx*4]
  00719	8b fe		 mov	 edi, esi
  0071b	c1 ef 18	 shr	 edi, 24			; 00000018H
  0071e	83 e7 3f	 and	 edi, 63			; 0000003fH
  00721	8b 3c bd 00 00
	00 00		 mov	 edi, DWORD PTR _SB2[edi*4]
  00728	33 fd		 xor	 edi, ebp
  0072a	8b de		 mov	 ebx, esi
  0072c	c1 eb 08	 shr	 ebx, 8
  0072f	83 e3 3f	 and	 ebx, 63			; 0000003fH
  00732	33 3c 9d 00 00
	00 00		 xor	 edi, DWORD PTR _SB6[ebx*4]
  00739	83 e6 3f	 and	 esi, 63			; 0000003fH
  0073c	33 3c b5 00 00
	00 00		 xor	 edi, DWORD PTR _SB8[esi*4]
  00743	8b 58 04	 mov	 ebx, DWORD PTR [eax+4]
  00746	33 d7		 xor	 edx, edi
  00748	83 c0 04	 add	 eax, 4
  0074b	8b f1		 mov	 esi, ecx
  0074d	c1 e6 1c	 shl	 esi, 28			; 0000001cH
  00750	8b f9		 mov	 edi, ecx
  00752	c1 ef 04	 shr	 edi, 4
  00755	0b f7		 or	 esi, edi
  00757	33 f3		 xor	 esi, ebx
  00759	8b de		 mov	 ebx, esi
  0075b	c1 eb 10	 shr	 ebx, 16			; 00000010H
  0075e	83 e3 3f	 and	 ebx, 63			; 0000003fH
  00761	8b 2c 9d 00 00
	00 00		 mov	 ebp, DWORD PTR _SB3[ebx*4]
  00768	8b fe		 mov	 edi, esi
  0076a	c1 ef 18	 shr	 edi, 24			; 00000018H
  0076d	83 e7 3f	 and	 edi, 63			; 0000003fH
  00770	8b 3c bd 00 00
	00 00		 mov	 edi, DWORD PTR _SB1[edi*4]
  00777	33 fd		 xor	 edi, ebp
  00779	8b de		 mov	 ebx, esi
  0077b	c1 eb 08	 shr	 ebx, 8
  0077e	83 e3 3f	 and	 ebx, 63			; 0000003fH
  00781	33 3c 9d 00 00
	00 00		 xor	 edi, DWORD PTR _SB5[ebx*4]
  00788	83 e6 3f	 and	 esi, 63			; 0000003fH
  0078b	8b 1c b5 00 00
	00 00		 mov	 ebx, DWORD PTR _SB7[esi*4]
  00792	8b 70 04	 mov	 esi, DWORD PTR [eax+4]
  00795	33 fb		 xor	 edi, ebx
  00797	33 d7		 xor	 edx, edi
  00799	83 c0 04	 add	 eax, 4
  0079c	33 f2		 xor	 esi, edx
  0079e	8b de		 mov	 ebx, esi
  007a0	c1 eb 10	 shr	 ebx, 16			; 00000010H
  007a3	83 e3 3f	 and	 ebx, 63			; 0000003fH
  007a6	8b 2c 9d 00 00
	00 00		 mov	 ebp, DWORD PTR _SB4[ebx*4]
  007ad	8b fe		 mov	 edi, esi
  007af	c1 ef 18	 shr	 edi, 24			; 00000018H
  007b2	83 e7 3f	 and	 edi, 63			; 0000003fH
  007b5	8b 3c bd 00 00
	00 00		 mov	 edi, DWORD PTR _SB2[edi*4]
  007bc	8b de		 mov	 ebx, esi
  007be	c1 eb 08	 shr	 ebx, 8
  007c1	33 fd		 xor	 edi, ebp
  007c3	83 e3 3f	 and	 ebx, 63			; 0000003fH
  007c6	8b 2c 9d 00 00
	00 00		 mov	 ebp, DWORD PTR _SB6[ebx*4]
  007cd	83 c0 04	 add	 eax, 4
  007d0	33 fd		 xor	 edi, ebp
  007d2	83 e6 3f	 and	 esi, 63			; 0000003fH
  007d5	33 3c b5 00 00
	00 00		 xor	 edi, DWORD PTR _SB8[esi*4]
  007dc	8b 18		 mov	 ebx, DWORD PTR [eax]
  007de	33 cf		 xor	 ecx, edi
  007e0	8b f2		 mov	 esi, edx
  007e2	c1 e6 1c	 shl	 esi, 28			; 0000001cH
  007e5	8b fa		 mov	 edi, edx
  007e7	c1 ef 04	 shr	 edi, 4
  007ea	0b f7		 or	 esi, edi
  007ec	33 f3		 xor	 esi, ebx
  007ee	8b de		 mov	 ebx, esi
  007f0	c1 eb 10	 shr	 ebx, 16			; 00000010H
  007f3	83 e3 3f	 and	 ebx, 63			; 0000003fH
  007f6	8b 2c 9d 00 00
	00 00		 mov	 ebp, DWORD PTR _SB3[ebx*4]
  007fd	8b fe		 mov	 edi, esi
  007ff	c1 ef 18	 shr	 edi, 24			; 00000018H
  00802	83 e7 3f	 and	 edi, 63			; 0000003fH
  00805	8b 3c bd 00 00
	00 00		 mov	 edi, DWORD PTR _SB1[edi*4]
  0080c	33 fd		 xor	 edi, ebp
  0080e	8b de		 mov	 ebx, esi
  00810	c1 eb 08	 shr	 ebx, 8
  00813	83 e3 3f	 and	 ebx, 63			; 0000003fH
  00816	33 3c 9d 00 00
	00 00		 xor	 edi, DWORD PTR _SB5[ebx*4]
  0081d	83 e6 3f	 and	 esi, 63			; 0000003fH
  00820	33 3c b5 00 00
	00 00		 xor	 edi, DWORD PTR _SB7[esi*4]
  00827	8b 70 04	 mov	 esi, DWORD PTR [eax+4]
  0082a	33 cf		 xor	 ecx, edi
  0082c	33 f1		 xor	 esi, ecx
  0082e	83 c0 04	 add	 eax, 4
  00831	8b de		 mov	 ebx, esi
  00833	c1 eb 10	 shr	 ebx, 16			; 00000010H
  00836	83 e3 3f	 and	 ebx, 63			; 0000003fH
  00839	8b 2c 9d 00 00
	00 00		 mov	 ebp, DWORD PTR _SB4[ebx*4]
  00840	8b fe		 mov	 edi, esi
  00842	c1 ef 18	 shr	 edi, 24			; 00000018H
  00845	83 e7 3f	 and	 edi, 63			; 0000003fH
  00848	8b 3c bd 00 00
	00 00		 mov	 edi, DWORD PTR _SB2[edi*4]
  0084f	33 fd		 xor	 edi, ebp
  00851	8b de		 mov	 ebx, esi
  00853	c1 eb 08	 shr	 ebx, 8
  00856	83 e3 3f	 and	 ebx, 63			; 0000003fH
  00859	33 3c 9d 00 00
	00 00		 xor	 edi, DWORD PTR _SB6[ebx*4]
  00860	83 e6 3f	 and	 esi, 63			; 0000003fH
  00863	33 3c b5 00 00
	00 00		 xor	 edi, DWORD PTR _SB8[esi*4]
  0086a	8b 58 04	 mov	 ebx, DWORD PTR [eax+4]
  0086d	33 d7		 xor	 edx, edi
  0086f	83 c0 04	 add	 eax, 4
  00872	8b f1		 mov	 esi, ecx
  00874	c1 e6 1c	 shl	 esi, 28			; 0000001cH
  00877	8b f9		 mov	 edi, ecx
  00879	c1 ef 04	 shr	 edi, 4
  0087c	0b f7		 or	 esi, edi
  0087e	33 f3		 xor	 esi, ebx
  00880	8b de		 mov	 ebx, esi
  00882	c1 eb 10	 shr	 ebx, 16			; 00000010H
  00885	83 e3 3f	 and	 ebx, 63			; 0000003fH
  00888	8b 2c 9d 00 00
	00 00		 mov	 ebp, DWORD PTR _SB3[ebx*4]
  0088f	8b fe		 mov	 edi, esi
  00891	c1 ef 18	 shr	 edi, 24			; 00000018H
  00894	83 e7 3f	 and	 edi, 63			; 0000003fH
  00897	8b 3c bd 00 00
	00 00		 mov	 edi, DWORD PTR _SB1[edi*4]
  0089e	8b de		 mov	 ebx, esi
  008a0	c1 eb 08	 shr	 ebx, 8
  008a3	33 fd		 xor	 edi, ebp
  008a5	83 e3 3f	 and	 ebx, 63			; 0000003fH
  008a8	8b 2c 9d 00 00
	00 00		 mov	 ebp, DWORD PTR _SB5[ebx*4]
  008af	83 e6 3f	 and	 esi, 63			; 0000003fH
  008b2	8b 1c b5 00 00
	00 00		 mov	 ebx, DWORD PTR _SB7[esi*4]
  008b9	8b 70 04	 mov	 esi, DWORD PTR [eax+4]
  008bc	33 fd		 xor	 edi, ebp
  008be	83 c0 04	 add	 eax, 4
  008c1	33 fb		 xor	 edi, ebx
  008c3	33 d7		 xor	 edx, edi
  008c5	33 f2		 xor	 esi, edx
  008c7	8b fe		 mov	 edi, esi
  008c9	83 c0 04	 add	 eax, 4
  008cc	c1 ef 18	 shr	 edi, 24			; 00000018H
  008cf	83 e7 3f	 and	 edi, 63			; 0000003fH
  008d2	8b 3c bd 00 00
	00 00		 mov	 edi, DWORD PTR _SB2[edi*4]
  008d9	8b de		 mov	 ebx, esi
  008db	c1 eb 10	 shr	 ebx, 16			; 00000010H
  008de	83 e3 3f	 and	 ebx, 63			; 0000003fH
  008e1	33 3c 9d 00 00
	00 00		 xor	 edi, DWORD PTR _SB4[ebx*4]
  008e8	8b de		 mov	 ebx, esi
  008ea	c1 eb 08	 shr	 ebx, 8
  008ed	83 e3 3f	 and	 ebx, 63			; 0000003fH
  008f0	33 3c 9d 00 00
	00 00		 xor	 edi, DWORD PTR _SB6[ebx*4]
  008f7	83 e6 3f	 and	 esi, 63			; 0000003fH
  008fa	33 3c b5 00 00
	00 00		 xor	 edi, DWORD PTR _SB8[esi*4]
  00901	8b 18		 mov	 ebx, DWORD PTR [eax]
  00903	33 cf		 xor	 ecx, edi
  00905	8b f2		 mov	 esi, edx
  00907	c1 e6 1c	 shl	 esi, 28			; 0000001cH
  0090a	8b fa		 mov	 edi, edx
  0090c	c1 ef 04	 shr	 edi, 4
  0090f	0b f7		 or	 esi, edi
  00911	33 f3		 xor	 esi, ebx
  00913	8b de		 mov	 ebx, esi
  00915	c1 eb 10	 shr	 ebx, 16			; 00000010H
  00918	83 e3 3f	 and	 ebx, 63			; 0000003fH
  0091b	8b 2c 9d 00 00
	00 00		 mov	 ebp, DWORD PTR _SB3[ebx*4]
  00922	8b fe		 mov	 edi, esi
  00924	c1 ef 18	 shr	 edi, 24			; 00000018H
  00927	83 e7 3f	 and	 edi, 63			; 0000003fH
  0092a	8b 3c bd 00 00
	00 00		 mov	 edi, DWORD PTR _SB1[edi*4]
  00931	33 fd		 xor	 edi, ebp
  00933	8b de		 mov	 ebx, esi
  00935	c1 eb 08	 shr	 ebx, 8
  00938	83 e3 3f	 and	 ebx, 63			; 0000003fH
  0093b	33 3c 9d 00 00
	00 00		 xor	 edi, DWORD PTR _SB5[ebx*4]
  00942	83 e6 3f	 and	 esi, 63			; 0000003fH
  00945	8b 2c b5 00 00
	00 00		 mov	 ebp, DWORD PTR _SB7[esi*4]
  0094c	8b 70 04	 mov	 esi, DWORD PTR [eax+4]
  0094f	33 fd		 xor	 edi, ebp
  00951	33 cf		 xor	 ecx, edi
  00953	83 c0 04	 add	 eax, 4
  00956	33 f1		 xor	 esi, ecx
  00958	8b de		 mov	 ebx, esi
  0095a	c1 eb 10	 shr	 ebx, 16			; 00000010H
  0095d	83 e3 3f	 and	 ebx, 63			; 0000003fH
  00960	8b 2c 9d 00 00
	00 00		 mov	 ebp, DWORD PTR _SB4[ebx*4]
  00967	8b fe		 mov	 edi, esi
  00969	c1 ef 18	 shr	 edi, 24			; 00000018H
  0096c	83 e7 3f	 and	 edi, 63			; 0000003fH
  0096f	8b 3c bd 00 00
	00 00		 mov	 edi, DWORD PTR _SB2[edi*4]
  00976	33 fd		 xor	 edi, ebp
  00978	8b de		 mov	 ebx, esi
  0097a	c1 eb 08	 shr	 ebx, 8
  0097d	83 e3 3f	 and	 ebx, 63			; 0000003fH
  00980	33 3c 9d 00 00
	00 00		 xor	 edi, DWORD PTR _SB6[ebx*4]
  00987	83 e6 3f	 and	 esi, 63			; 0000003fH
  0098a	33 3c b5 00 00
	00 00		 xor	 edi, DWORD PTR _SB8[esi*4]
  00991	33 d7		 xor	 edx, edi
  00993	8b f1		 mov	 esi, ecx
  00995	c1 e6 1c	 shl	 esi, 28			; 0000001cH
  00998	8b f9		 mov	 edi, ecx
  0099a	c1 ef 04	 shr	 edi, 4
  0099d	0b f7		 or	 esi, edi
  0099f	33 70 04	 xor	 esi, DWORD PTR [eax+4]
  009a2	8b fe		 mov	 edi, esi
  009a4	c1 ef 10	 shr	 edi, 16			; 00000010H
  009a7	83 e7 3f	 and	 edi, 63			; 0000003fH
  009aa	8b 1c bd 00 00
	00 00		 mov	 ebx, DWORD PTR _SB3[edi*4]
  009b1	8b c6		 mov	 eax, esi
  009b3	c1 e8 18	 shr	 eax, 24			; 00000018H
  009b6	83 e0 3f	 and	 eax, 63			; 0000003fH
  009b9	8b 04 85 00 00
	00 00		 mov	 eax, DWORD PTR _SB1[eax*4]
  009c0	8b fe		 mov	 edi, esi
  009c2	c1 ef 08	 shr	 edi, 8
  009c5	33 c3		 xor	 eax, ebx
  009c7	83 e7 3f	 and	 edi, 63			; 0000003fH
  009ca	33 04 bd 00 00
	00 00		 xor	 eax, DWORD PTR _SB5[edi*4]
  009d1	83 e6 3f	 and	 esi, 63			; 0000003fH
  009d4	33 04 b5 00 00
	00 00		 xor	 eax, DWORD PTR _SB7[esi*4]
  009db	33 d0		 xor	 edx, eax
  009dd	8b c2		 mov	 eax, edx
  009df	d1 ea		 shr	 edx, 1
  009e1	c1 e0 1f	 shl	 eax, 31			; 0000001fH
  009e4	0b c2		 or	 eax, edx
  009e6	8b d0		 mov	 edx, eax
  009e8	33 d1		 xor	 edx, ecx
  009ea	81 e2 aa aa aa
	aa		 and	 edx, -1431655766	; aaaaaaaaH
  009f0	33 ca		 xor	 ecx, edx
  009f2	33 c2		 xor	 eax, edx
  009f4	8b d1		 mov	 edx, ecx
  009f6	d1 e9		 shr	 ecx, 1
  009f8	c1 e2 1f	 shl	 edx, 31			; 0000001fH
  009fb	0b d1		 or	 edx, ecx
  009fd	8b ca		 mov	 ecx, edx
  009ff	c1 e9 08	 shr	 ecx, 8
  00a02	33 c8		 xor	 ecx, eax
  00a04	81 e1 ff 00 ff
	00		 and	 ecx, 16711935		; 00ff00ffH
  00a0a	33 c1		 xor	 eax, ecx
  00a0c	c1 e1 08	 shl	 ecx, 8
  00a0f	33 d1		 xor	 edx, ecx
  00a11	8b ca		 mov	 ecx, edx
  00a13	c1 e9 02	 shr	 ecx, 2
  00a16	33 c8		 xor	 ecx, eax
  00a18	81 e1 33 33 33
	33		 and	 ecx, 858993459		; 33333333H
  00a1e	33 c1		 xor	 eax, ecx
  00a20	c1 e1 02	 shl	 ecx, 2
  00a23	33 d1		 xor	 edx, ecx
  00a25	8b 74 24 1c	 mov	 esi, DWORD PTR _output$[esp+12]
  00a29	8b c8		 mov	 ecx, eax
  00a2b	c1 e9 10	 shr	 ecx, 16			; 00000010H
  00a2e	33 ca		 xor	 ecx, edx
  00a30	81 e1 ff ff 00
	00		 and	 ecx, 65535		; 0000ffffH
  00a36	33 d1		 xor	 edx, ecx
  00a38	c1 e1 10	 shl	 ecx, 16			; 00000010H
  00a3b	33 c1		 xor	 eax, ecx
  00a3d	8b c8		 mov	 ecx, eax
  00a3f	c1 e9 04	 shr	 ecx, 4
  00a42	33 ca		 xor	 ecx, edx
  00a44	81 e1 0f 0f 0f
	0f		 and	 ecx, 252645135		; 0f0f0f0fH
  00a4a	33 d1		 xor	 edx, ecx
  00a4c	c1 e1 04	 shl	 ecx, 4
  00a4f	33 c1		 xor	 eax, ecx
  00a51	8b c8		 mov	 ecx, eax
  00a53	c1 e9 18	 shr	 ecx, 24			; 00000018H
  00a56	88 0e		 mov	 BYTE PTR [esi], cl
  00a58	8b c8		 mov	 ecx, eax
  00a5a	c1 e9 10	 shr	 ecx, 16			; 00000010H
  00a5d	88 4e 01	 mov	 BYTE PTR [esi+1], cl
  00a60	8b c8		 mov	 ecx, eax
  00a62	88 46 03	 mov	 BYTE PTR [esi+3], al
  00a65	c1 e9 08	 shr	 ecx, 8
  00a68	8b c2		 mov	 eax, edx
  00a6a	c1 e8 18	 shr	 eax, 24			; 00000018H
  00a6d	88 4e 02	 mov	 BYTE PTR [esi+2], cl
  00a70	88 46 04	 mov	 BYTE PTR [esi+4], al
  00a73	8b ca		 mov	 ecx, edx
  00a75	8b c2		 mov	 eax, edx
  00a77	5f		 pop	 edi
  00a78	c1 e9 10	 shr	 ecx, 16			; 00000010H
  00a7b	c1 e8 08	 shr	 eax, 8
  00a7e	88 4e 05	 mov	 BYTE PTR [esi+5], cl
  00a81	88 46 06	 mov	 BYTE PTR [esi+6], al
  00a84	88 56 07	 mov	 BYTE PTR [esi+7], dl
  00a87	5e		 pop	 esi
  00a88	5d		 pop	 ebp
  00a89	5b		 pop	 ebx

; 378  : }

  00a8a	c3		 ret	 0
_des_crypt ENDP
_TEXT	ENDS
PUBLIC	_des_encrypt
; Function compile flags: /Ogty
;	COMDAT _des_encrypt
_TEXT	SEGMENT
_ctx$ = 8						; size = 4
_input$ = 12						; size = 4
_output$ = 16						; size = 4
_des_encrypt PROC NEAR					; COMDAT

; 382  :     des_crypt( ctx->esk, input, output );

  00000	e9 00 00 00 00	 jmp	 _des_crypt
_des_encrypt ENDP
_TEXT	ENDS
PUBLIC	_des_decrypt
; Function compile flags: /Ogty
;	COMDAT _des_decrypt
_TEXT	SEGMENT
_ctx$ = 8						; size = 4
_input$ = 12						; size = 4
_output$ = 16						; size = 4
_des_decrypt PROC NEAR					; COMDAT

; 387  :     des_crypt( ctx->dsk, input, output );

  00000	8b 54 24 04	 mov	 edx, DWORD PTR _ctx$[esp-4]
  00004	81 c2 80 00 00
	00		 add	 edx, 128		; 00000080H
  0000a	89 54 24 04	 mov	 DWORD PTR _ctx$[esp-4], edx
  0000e	e9 00 00 00 00	 jmp	 _des_crypt
_des_decrypt ENDP
_TEXT	ENDS
PUBLIC	_des3_set_2keys
; Function compile flags: /Ogty
;	COMDAT _des3_set_2keys
_TEXT	SEGMENT
_ctx$ = 8						; size = 4
_key1$ = 12						; size = 4
_key2$ = 16						; size = 4
_des3_set_2keys PROC NEAR				; COMDAT

; 394  :     int i;
; 395  : 
; 396  :     des_main_ks( ctx->esk     , key1 );

  00000	8b 44 24 08	 mov	 eax, DWORD PTR _key1$[esp-4]
  00004	53		 push	 ebx
  00005	56		 push	 esi
  00006	8b 74 24 0c	 mov	 esi, DWORD PTR _ctx$[esp+4]
  0000a	57		 push	 edi
  0000b	50		 push	 eax
  0000c	56		 push	 esi
  0000d	e8 00 00 00 00	 call	 _des_main_ks

; 397  :     des_main_ks( ctx->dsk + 32, key2 );

  00012	8b 4c 24 20	 mov	 ecx, DWORD PTR _key2$[esp+16]
  00016	51		 push	 ecx
  00017	8d 96 00 02 00
	00		 lea	 edx, DWORD PTR [esi+512]
  0001d	52		 push	 edx
  0001e	e8 00 00 00 00	 call	 _des_main_ks
  00023	83 c4 10	 add	 esp, 16			; 00000010H
  00026	8d 86 84 01 00
	00		 lea	 eax, DWORD PTR [esi+388]
  0002c	8d 4e 7c	 lea	 ecx, DWORD PTR [esi+124]
  0002f	bf 10 00 00 00	 mov	 edi, 16			; 00000010H
$L696:

; 398  : 
; 399  :     for( i = 0; i < 32; i += 2 )
; 400  :     {
; 401  :         ctx->dsk[i     ] = ctx->esk[30 - i];
; 402  :         ctx->dsk[i +  1] = ctx->esk[31 - i];
; 403  : 
; 404  :         ctx->esk[i + 32] = ctx->dsk[62 - i];

  00034	8b 99 fc 01 00
	00		 mov	 ebx, DWORD PTR [ecx+508]
  0003a	8b 51 fc	 mov	 edx, DWORD PTR [ecx-4]
  0003d	8b 31		 mov	 esi, DWORD PTR [ecx]
  0003f	89 98 fc fe ff
	ff		 mov	 DWORD PTR [eax-260], ebx

; 405  :         ctx->esk[i + 33] = ctx->dsk[63 - i];

  00045	8b 99 00 02 00
	00		 mov	 ebx, DWORD PTR [ecx+512]
  0004b	89 98 00 ff ff
	ff		 mov	 DWORD PTR [eax-256], ebx

; 406  : 
; 407  :         ctx->esk[i + 64] = ctx->esk[     i];

  00051	8b 98 7c fe ff
	ff		 mov	 ebx, DWORD PTR [eax-388]
  00057	89 98 7c ff ff
	ff		 mov	 DWORD PTR [eax-132], ebx

; 408  :         ctx->esk[i + 65] = ctx->esk[ 1 + i];

  0005d	8b 98 80 fe ff
	ff		 mov	 ebx, DWORD PTR [eax-384]
  00063	89 50 fc	 mov	 DWORD PTR [eax-4], edx
  00066	89 30		 mov	 DWORD PTR [eax], esi
  00068	89 58 80	 mov	 DWORD PTR [eax-128], ebx

; 409  : 
; 410  :         ctx->dsk[i + 64] = ctx->dsk[     i];

  0006b	89 90 fc 00 00
	00		 mov	 DWORD PTR [eax+252], edx

; 411  :         ctx->dsk[i + 65] = ctx->dsk[ 1 + i];

  00071	89 b0 00 01 00
	00		 mov	 DWORD PTR [eax+256], esi
  00077	83 e9 08	 sub	 ecx, 8
  0007a	83 c0 08	 add	 eax, 8
  0007d	4f		 dec	 edi
  0007e	75 b4		 jne	 SHORT $L696
  00080	5f		 pop	 edi
  00081	5e		 pop	 esi

; 412  :     }
; 413  : 
; 414  :     return( 0 );

  00082	33 c0		 xor	 eax, eax
  00084	5b		 pop	 ebx

; 415  : }

  00085	c3		 ret	 0
_des3_set_2keys ENDP
_TEXT	ENDS
PUBLIC	_des3_set_3keys
; Function compile flags: /Ogty
;	COMDAT _des3_set_3keys
_TEXT	SEGMENT
_ctx$ = 8						; size = 4
_key1$ = 12						; size = 4
_key2$ = 16						; size = 4
_key3$ = 20						; size = 4
_des3_set_3keys PROC NEAR				; COMDAT

; 420  :     int i;
; 421  : 
; 422  :     des_main_ks( ctx->esk     , key1 );

  00000	8b 44 24 08	 mov	 eax, DWORD PTR _key1$[esp-4]
  00004	56		 push	 esi
  00005	8b 74 24 08	 mov	 esi, DWORD PTR _ctx$[esp]
  00009	50		 push	 eax
  0000a	56		 push	 esi
  0000b	e8 00 00 00 00	 call	 _des_main_ks

; 423  :     des_main_ks( ctx->dsk + 32, key2 );

  00010	8b 4c 24 18	 mov	 ecx, DWORD PTR _key2$[esp+8]
  00014	51		 push	 ecx
  00015	8d 96 00 02 00
	00		 lea	 edx, DWORD PTR [esi+512]
  0001b	52		 push	 edx
  0001c	e8 00 00 00 00	 call	 _des_main_ks

; 424  :     des_main_ks( ctx->esk + 64, key3 );

  00021	8b 44 24 24	 mov	 eax, DWORD PTR _key3$[esp+16]
  00025	50		 push	 eax
  00026	8d 8e 00 01 00
	00		 lea	 ecx, DWORD PTR [esi+256]
  0002c	51		 push	 ecx
  0002d	e8 00 00 00 00	 call	 _des_main_ks
  00032	83 c4 18	 add	 esp, 24			; 00000018H
  00035	8d 86 84 01 00
	00		 lea	 eax, DWORD PTR [esi+388]
  0003b	8d 8e 7c 01 00
	00		 lea	 ecx, DWORD PTR [esi+380]
  00041	ba 10 00 00 00	 mov	 edx, 16			; 00000010H
$L709:

; 425  : 
; 426  :     for( i = 0; i < 32; i += 2 )
; 427  :     {
; 428  :         ctx->dsk[i     ] = ctx->esk[94 - i];

  00046	8b 71 fc	 mov	 esi, DWORD PTR [ecx-4]
  00049	89 70 fc	 mov	 DWORD PTR [eax-4], esi

; 429  :         ctx->dsk[i +  1] = ctx->esk[95 - i];

  0004c	8b 31		 mov	 esi, DWORD PTR [ecx]
  0004e	89 30		 mov	 DWORD PTR [eax], esi

; 430  : 
; 431  :         ctx->esk[i + 32] = ctx->dsk[62 - i];

  00050	8b b1 fc 00 00
	00		 mov	 esi, DWORD PTR [ecx+252]
  00056	89 b0 fc fe ff
	ff		 mov	 DWORD PTR [eax-260], esi

; 432  :         ctx->esk[i + 33] = ctx->dsk[63 - i];

  0005c	8b b1 00 01 00
	00		 mov	 esi, DWORD PTR [ecx+256]
  00062	89 b0 00 ff ff
	ff		 mov	 DWORD PTR [eax-256], esi

; 433  : 
; 434  :         ctx->dsk[i + 64] = ctx->esk[30 - i];

  00068	8b b1 fc fe ff
	ff		 mov	 esi, DWORD PTR [ecx-260]
  0006e	89 b0 fc 00 00
	00		 mov	 DWORD PTR [eax+252], esi

; 435  :         ctx->dsk[i + 65] = ctx->esk[31 - i];

  00074	8b b1 00 ff ff
	ff		 mov	 esi, DWORD PTR [ecx-256]
  0007a	89 b0 00 01 00
	00		 mov	 DWORD PTR [eax+256], esi
  00080	83 c0 08	 add	 eax, 8
  00083	83 e9 08	 sub	 ecx, 8
  00086	4a		 dec	 edx
  00087	75 bd		 jne	 SHORT $L709

; 436  :     }
; 437  : 
; 438  :     return( 0 );

  00089	33 c0		 xor	 eax, eax
  0008b	5e		 pop	 esi

; 439  : }

  0008c	c3		 ret	 0
_des3_set_3keys ENDP
_TEXT	ENDS
PUBLIC	_des3_crypt
; Function compile flags: /Ogty
;	COMDAT _des3_crypt
_TEXT	SEGMENT
_SK$ = 8						; size = 4
_input$ = 12						; size = 4
_output$ = 16						; size = 4
_des3_crypt PROC NEAR					; COMDAT

; 445  :     uint32 X, Y, T;
; 446  : 
; 447  :     GET_UINT32( X, input, 0 );

  00000	8b 44 24 08	 mov	 eax, DWORD PTR _input$[esp-4]
  00004	33 c9		 xor	 ecx, ecx
  00006	8a 28		 mov	 ch, BYTE PTR [eax]
  00008	0f b6 50 02	 movzx	 edx, BYTE PTR [eax+2]
  0000c	53		 push	 ebx
  0000d	55		 push	 ebp
  0000e	56		 push	 esi
  0000f	8a 48 01	 mov	 cl, BYTE PTR [eax+1]
  00012	57		 push	 edi
  00013	c1 e1 08	 shl	 ecx, 8
  00016	0b ca		 or	 ecx, edx
  00018	0f b6 50 03	 movzx	 edx, BYTE PTR [eax+3]
  0001c	c1 e1 08	 shl	 ecx, 8
  0001f	0b ca		 or	 ecx, edx
  00021	8b f1		 mov	 esi, ecx

; 448  :     GET_UINT32( Y, input, 4 );

  00023	33 c9		 xor	 ecx, ecx
  00025	8a 68 04	 mov	 ch, BYTE PTR [eax+4]
  00028	0f b6 50 06	 movzx	 edx, BYTE PTR [eax+6]
  0002c	8a 48 05	 mov	 cl, BYTE PTR [eax+5]
  0002f	0f b6 40 07	 movzx	 eax, BYTE PTR [eax+7]
  00033	c1 e1 08	 shl	 ecx, 8
  00036	0b ca		 or	 ecx, edx
  00038	c1 e1 08	 shl	 ecx, 8
  0003b	0b c1		 or	 eax, ecx

; 449  : 
; 450  :     DES_IP( X, Y );

  0003d	8b ce		 mov	 ecx, esi
  0003f	c1 e9 04	 shr	 ecx, 4
  00042	33 c8		 xor	 ecx, eax
  00044	81 e1 0f 0f 0f
	0f		 and	 ecx, 252645135		; 0f0f0f0fH
  0004a	33 c1		 xor	 eax, ecx
  0004c	c1 e1 04	 shl	 ecx, 4
  0004f	33 f1		 xor	 esi, ecx
  00051	8b ce		 mov	 ecx, esi
  00053	c1 e9 10	 shr	 ecx, 16			; 00000010H
  00056	33 c8		 xor	 ecx, eax
  00058	81 e1 ff ff 00
	00		 and	 ecx, 65535		; 0000ffffH
  0005e	33 c1		 xor	 eax, ecx
  00060	c1 e1 10	 shl	 ecx, 16			; 00000010H
  00063	33 f1		 xor	 esi, ecx
  00065	8b c8		 mov	 ecx, eax
  00067	c1 e9 02	 shr	 ecx, 2
  0006a	33 ce		 xor	 ecx, esi
  0006c	81 e1 33 33 33
	33		 and	 ecx, 858993459		; 33333333H
  00072	33 f1		 xor	 esi, ecx
  00074	c1 e1 02	 shl	 ecx, 2
  00077	33 c1		 xor	 eax, ecx
  00079	8b c8		 mov	 ecx, eax
  0007b	c1 e9 08	 shr	 ecx, 8
  0007e	33 ce		 xor	 ecx, esi
  00080	81 e1 ff 00 ff
	00		 and	 ecx, 16711935		; 00ff00ffH
  00086	33 f1		 xor	 esi, ecx
  00088	c1 e1 08	 shl	 ecx, 8
  0008b	33 c1		 xor	 eax, ecx
  0008d	8b d0		 mov	 edx, eax
  0008f	03 c0		 add	 eax, eax
  00091	c1 ea 1f	 shr	 edx, 31			; 0000001fH
  00094	0b d0		 or	 edx, eax
  00096	8b c2		 mov	 eax, edx
  00098	33 c6		 xor	 eax, esi
  0009a	25 aa aa aa aa	 and	 eax, -1431655766	; aaaaaaaaH
  0009f	33 f0		 xor	 esi, eax
  000a1	8b ce		 mov	 ecx, esi
  000a3	03 f6		 add	 esi, esi
  000a5	33 d0		 xor	 edx, eax

; 451  : 
; 452  :     DES_ROUND( Y, X );  DES_ROUND( X, Y );

  000a7	8b 44 24 14	 mov	 eax, DWORD PTR _SK$[esp+12]
  000ab	8b 38		 mov	 edi, DWORD PTR [eax]
  000ad	c1 e9 1f	 shr	 ecx, 31			; 0000001fH
  000b0	0b ce		 or	 ecx, esi
  000b2	33 fa		 xor	 edi, edx
  000b4	8b f7		 mov	 esi, edi
  000b6	c1 ee 18	 shr	 esi, 24			; 00000018H
  000b9	83 e6 3f	 and	 esi, 63			; 0000003fH

; 453  :     DES_ROUND( Y, X );  DES_ROUND( X, Y );
; 454  :     DES_ROUND( Y, X );  DES_ROUND( X, Y );
; 455  :     DES_ROUND( Y, X );  DES_ROUND( X, Y );
; 456  :     DES_ROUND( Y, X );  DES_ROUND( X, Y );
; 457  :     DES_ROUND( Y, X );  DES_ROUND( X, Y );
; 458  :     DES_ROUND( Y, X );  DES_ROUND( X, Y );
; 459  :     DES_ROUND( Y, X );  DES_ROUND( X, Y );
; 460  : 
; 461  :     DES_ROUND( X, Y );  DES_ROUND( Y, X );
; 462  :     DES_ROUND( X, Y );  DES_ROUND( Y, X );
; 463  :     DES_ROUND( X, Y );  DES_ROUND( Y, X );
; 464  :     DES_ROUND( X, Y );  DES_ROUND( Y, X );
; 465  :     DES_ROUND( X, Y );  DES_ROUND( Y, X );
; 466  :     DES_ROUND( X, Y );  DES_ROUND( Y, X );
; 467  :     DES_ROUND( X, Y );  DES_ROUND( Y, X );
; 468  :     DES_ROUND( X, Y );  DES_ROUND( Y, X );
; 469  : 
; 470  :     DES_ROUND( Y, X );  DES_ROUND( X, Y );
; 471  :     DES_ROUND( Y, X );  DES_ROUND( X, Y );
; 472  :     DES_ROUND( Y, X );  DES_ROUND( X, Y );
; 473  :     DES_ROUND( Y, X );  DES_ROUND( X, Y );
; 474  :     DES_ROUND( Y, X );  DES_ROUND( X, Y );
; 475  :     DES_ROUND( Y, X );  DES_ROUND( X, Y );
; 476  :     DES_ROUND( Y, X );  DES_ROUND( X, Y );
; 477  :     DES_ROUND( Y, X );  DES_ROUND( X, Y );
; 478  : 
; 479  :     DES_FP( Y, X );
; 480  : 
; 481  :     PUT_UINT32( Y, output, 0 );
; 482  :     PUT_UINT32( X, output, 4 );

  000bc	8b 2c b5 00 00
	00 00		 mov	 ebp, DWORD PTR _SB2[esi*4]
  000c3	8b f7		 mov	 esi, edi
  000c5	c1 ee 10	 shr	 esi, 16			; 00000010H
  000c8	83 e6 3f	 and	 esi, 63			; 0000003fH
  000cb	8b 1c b5 00 00
	00 00		 mov	 ebx, DWORD PTR _SB4[esi*4]
  000d2	33 cd		 xor	 ecx, ebp
  000d4	8b f7		 mov	 esi, edi
  000d6	83 c0 04	 add	 eax, 4
  000d9	33 cb		 xor	 ecx, ebx
  000db	c1 ee 08	 shr	 esi, 8
  000de	8b 18		 mov	 ebx, DWORD PTR [eax]
  000e0	83 e7 3f	 and	 edi, 63			; 0000003fH
  000e3	83 e6 3f	 and	 esi, 63			; 0000003fH
  000e6	8b 2c b5 00 00
	00 00		 mov	 ebp, DWORD PTR _SB6[esi*4]
  000ed	8b 34 bd 00 00
	00 00		 mov	 esi, DWORD PTR _SB8[edi*4]
  000f4	33 cd		 xor	 ecx, ebp
  000f6	33 ce		 xor	 ecx, esi
  000f8	8b f2		 mov	 esi, edx
  000fa	c1 e6 1c	 shl	 esi, 28			; 0000001cH
  000fd	8b fa		 mov	 edi, edx
  000ff	c1 ef 04	 shr	 edi, 4
  00102	0b f7		 or	 esi, edi
  00104	33 f3		 xor	 esi, ebx
  00106	8b de		 mov	 ebx, esi
  00108	c1 eb 10	 shr	 ebx, 16			; 00000010H
  0010b	83 e3 3f	 and	 ebx, 63			; 0000003fH
  0010e	8b 2c 9d 00 00
	00 00		 mov	 ebp, DWORD PTR _SB3[ebx*4]
  00115	8b fe		 mov	 edi, esi
  00117	c1 ef 18	 shr	 edi, 24			; 00000018H
  0011a	83 e7 3f	 and	 edi, 63			; 0000003fH
  0011d	8b 3c bd 00 00
	00 00		 mov	 edi, DWORD PTR _SB1[edi*4]
  00124	33 fd		 xor	 edi, ebp
  00126	8b de		 mov	 ebx, esi
  00128	c1 eb 08	 shr	 ebx, 8
  0012b	83 e3 3f	 and	 ebx, 63			; 0000003fH
  0012e	33 3c 9d 00 00
	00 00		 xor	 edi, DWORD PTR _SB5[ebx*4]
  00135	83 e6 3f	 and	 esi, 63			; 0000003fH
  00138	33 3c b5 00 00
	00 00		 xor	 edi, DWORD PTR _SB7[esi*4]
  0013f	8b 70 04	 mov	 esi, DWORD PTR [eax+4]
  00142	33 cf		 xor	 ecx, edi
  00144	33 f1		 xor	 esi, ecx
  00146	83 c0 04	 add	 eax, 4
  00149	8b de		 mov	 ebx, esi
  0014b	c1 eb 10	 shr	 ebx, 16			; 00000010H
  0014e	83 e3 3f	 and	 ebx, 63			; 0000003fH
  00151	8b 2c 9d 00 00
	00 00		 mov	 ebp, DWORD PTR _SB4[ebx*4]
  00158	8b fe		 mov	 edi, esi
  0015a	c1 ef 18	 shr	 edi, 24			; 00000018H
  0015d	83 e7 3f	 and	 edi, 63			; 0000003fH
  00160	8b 3c bd 00 00
	00 00		 mov	 edi, DWORD PTR _SB2[edi*4]
  00167	33 fd		 xor	 edi, ebp
  00169	8b de		 mov	 ebx, esi
  0016b	c1 eb 08	 shr	 ebx, 8
  0016e	83 e3 3f	 and	 ebx, 63			; 0000003fH
  00171	33 3c 9d 00 00
	00 00		 xor	 edi, DWORD PTR _SB6[ebx*4]
  00178	83 e6 3f	 and	 esi, 63			; 0000003fH
  0017b	33 3c b5 00 00
	00 00		 xor	 edi, DWORD PTR _SB8[esi*4]
  00182	8b 58 04	 mov	 ebx, DWORD PTR [eax+4]
  00185	33 d7		 xor	 edx, edi
  00187	83 c0 04	 add	 eax, 4
  0018a	8b f1		 mov	 esi, ecx
  0018c	c1 e6 1c	 shl	 esi, 28			; 0000001cH
  0018f	8b f9		 mov	 edi, ecx
  00191	c1 ef 04	 shr	 edi, 4
  00194	0b f7		 or	 esi, edi
  00196	33 f3		 xor	 esi, ebx
  00198	8b de		 mov	 ebx, esi
  0019a	c1 eb 10	 shr	 ebx, 16			; 00000010H
  0019d	83 e3 3f	 and	 ebx, 63			; 0000003fH
  001a0	8b 2c 9d 00 00
	00 00		 mov	 ebp, DWORD PTR _SB3[ebx*4]
  001a7	8b fe		 mov	 edi, esi
  001a9	c1 ef 18	 shr	 edi, 24			; 00000018H
  001ac	83 e7 3f	 and	 edi, 63			; 0000003fH
  001af	8b 3c bd 00 00
	00 00		 mov	 edi, DWORD PTR _SB1[edi*4]
  001b6	8b de		 mov	 ebx, esi
  001b8	c1 eb 08	 shr	 ebx, 8
  001bb	33 fd		 xor	 edi, ebp
  001bd	83 e3 3f	 and	 ebx, 63			; 0000003fH
  001c0	8b 2c 9d 00 00
	00 00		 mov	 ebp, DWORD PTR _SB5[ebx*4]
  001c7	83 e6 3f	 and	 esi, 63			; 0000003fH
  001ca	8b 1c b5 00 00
	00 00		 mov	 ebx, DWORD PTR _SB7[esi*4]
  001d1	8b 70 04	 mov	 esi, DWORD PTR [eax+4]
  001d4	33 fd		 xor	 edi, ebp
  001d6	83 c0 04	 add	 eax, 4
  001d9	33 fb		 xor	 edi, ebx
  001db	33 d7		 xor	 edx, edi
  001dd	33 f2		 xor	 esi, edx
  001df	8b de		 mov	 ebx, esi
  001e1	c1 eb 10	 shr	 ebx, 16			; 00000010H
  001e4	83 e3 3f	 and	 ebx, 63			; 0000003fH
  001e7	8b 2c 9d 00 00
	00 00		 mov	 ebp, DWORD PTR _SB4[ebx*4]
  001ee	8b fe		 mov	 edi, esi
  001f0	c1 ef 18	 shr	 edi, 24			; 00000018H
  001f3	83 e7 3f	 and	 edi, 63			; 0000003fH
  001f6	8b 3c bd 00 00
	00 00		 mov	 edi, DWORD PTR _SB2[edi*4]
  001fd	33 fd		 xor	 edi, ebp
  001ff	8b de		 mov	 ebx, esi
  00201	c1 eb 08	 shr	 ebx, 8
  00204	83 e3 3f	 and	 ebx, 63			; 0000003fH
  00207	33 3c 9d 00 00
	00 00		 xor	 edi, DWORD PTR _SB6[ebx*4]
  0020e	83 e6 3f	 and	 esi, 63			; 0000003fH
  00211	33 3c b5 00 00
	00 00		 xor	 edi, DWORD PTR _SB8[esi*4]
  00218	8b 58 04	 mov	 ebx, DWORD PTR [eax+4]
  0021b	33 cf		 xor	 ecx, edi
  0021d	83 c0 04	 add	 eax, 4
  00220	8b f2		 mov	 esi, edx
  00222	c1 e6 1c	 shl	 esi, 28			; 0000001cH
  00225	8b fa		 mov	 edi, edx
  00227	c1 ef 04	 shr	 edi, 4
  0022a	0b f7		 or	 esi, edi
  0022c	33 f3		 xor	 esi, ebx
  0022e	8b de		 mov	 ebx, esi
  00230	c1 eb 10	 shr	 ebx, 16			; 00000010H
  00233	83 e3 3f	 and	 ebx, 63			; 0000003fH
  00236	8b 2c 9d 00 00
	00 00		 mov	 ebp, DWORD PTR _SB3[ebx*4]
  0023d	8b fe		 mov	 edi, esi
  0023f	c1 ef 18	 shr	 edi, 24			; 00000018H
  00242	83 e7 3f	 and	 edi, 63			; 0000003fH
  00245	8b 3c bd 00 00
	00 00		 mov	 edi, DWORD PTR _SB1[edi*4]
  0024c	33 fd		 xor	 edi, ebp
  0024e	8b de		 mov	 ebx, esi
  00250	c1 eb 08	 shr	 ebx, 8
  00253	83 e3 3f	 and	 ebx, 63			; 0000003fH
  00256	33 3c 9d 00 00
	00 00		 xor	 edi, DWORD PTR _SB5[ebx*4]
  0025d	83 e6 3f	 and	 esi, 63			; 0000003fH
  00260	8b 1c b5 00 00
	00 00		 mov	 ebx, DWORD PTR _SB7[esi*4]
  00267	8b 70 04	 mov	 esi, DWORD PTR [eax+4]
  0026a	33 fb		 xor	 edi, ebx
  0026c	33 cf		 xor	 ecx, edi
  0026e	33 f1		 xor	 esi, ecx
  00270	83 c0 04	 add	 eax, 4
  00273	8b de		 mov	 ebx, esi
  00275	c1 eb 10	 shr	 ebx, 16			; 00000010H
  00278	83 e3 3f	 and	 ebx, 63			; 0000003fH
  0027b	8b 2c 9d 00 00
	00 00		 mov	 ebp, DWORD PTR _SB4[ebx*4]
  00282	8b fe		 mov	 edi, esi
  00284	c1 ef 18	 shr	 edi, 24			; 00000018H
  00287	83 e7 3f	 and	 edi, 63			; 0000003fH
  0028a	8b 3c bd 00 00
	00 00		 mov	 edi, DWORD PTR _SB2[edi*4]
  00291	8b de		 mov	 ebx, esi
  00293	33 fd		 xor	 edi, ebp
  00295	c1 eb 08	 shr	 ebx, 8
  00298	83 e3 3f	 and	 ebx, 63			; 0000003fH
  0029b	33 3c 9d 00 00
	00 00		 xor	 edi, DWORD PTR _SB6[ebx*4]
  002a2	83 e6 3f	 and	 esi, 63			; 0000003fH
  002a5	33 3c b5 00 00
	00 00		 xor	 edi, DWORD PTR _SB8[esi*4]
  002ac	8b 58 04	 mov	 ebx, DWORD PTR [eax+4]
  002af	33 d7		 xor	 edx, edi
  002b1	83 c0 04	 add	 eax, 4
  002b4	8b f1		 mov	 esi, ecx
  002b6	c1 e6 1c	 shl	 esi, 28			; 0000001cH
  002b9	8b f9		 mov	 edi, ecx
  002bb	c1 ef 04	 shr	 edi, 4
  002be	0b f7		 or	 esi, edi
  002c0	33 f3		 xor	 esi, ebx
  002c2	8b fe		 mov	 edi, esi
  002c4	c1 ef 18	 shr	 edi, 24			; 00000018H
  002c7	8b de		 mov	 ebx, esi
  002c9	83 e7 3f	 and	 edi, 63			; 0000003fH
  002cc	8b 3c bd 00 00
	00 00		 mov	 edi, DWORD PTR _SB1[edi*4]
  002d3	c1 eb 10	 shr	 ebx, 16			; 00000010H
  002d6	83 c0 04	 add	 eax, 4
  002d9	83 e3 3f	 and	 ebx, 63			; 0000003fH
  002dc	33 3c 9d 00 00
	00 00		 xor	 edi, DWORD PTR _SB3[ebx*4]
  002e3	8b de		 mov	 ebx, esi
  002e5	c1 eb 08	 shr	 ebx, 8
  002e8	83 e3 3f	 and	 ebx, 63			; 0000003fH
  002eb	33 3c 9d 00 00
	00 00		 xor	 edi, DWORD PTR _SB5[ebx*4]
  002f2	83 e6 3f	 and	 esi, 63			; 0000003fH
  002f5	33 3c b5 00 00
	00 00		 xor	 edi, DWORD PTR _SB7[esi*4]
  002fc	8b 30		 mov	 esi, DWORD PTR [eax]
  002fe	33 d7		 xor	 edx, edi
  00300	33 f2		 xor	 esi, edx
  00302	8b de		 mov	 ebx, esi
  00304	c1 eb 10	 shr	 ebx, 16			; 00000010H
  00307	83 e3 3f	 and	 ebx, 63			; 0000003fH
  0030a	8b 2c 9d 00 00
	00 00		 mov	 ebp, DWORD PTR _SB4[ebx*4]
  00311	8b fe		 mov	 edi, esi
  00313	c1 ef 18	 shr	 edi, 24			; 00000018H
  00316	83 e7 3f	 and	 edi, 63			; 0000003fH
  00319	8b 3c bd 00 00
	00 00		 mov	 edi, DWORD PTR _SB2[edi*4]
  00320	33 fd		 xor	 edi, ebp
  00322	8b de		 mov	 ebx, esi
  00324	c1 eb 08	 shr	 ebx, 8
  00327	83 e3 3f	 and	 ebx, 63			; 0000003fH
  0032a	33 3c 9d 00 00
	00 00		 xor	 edi, DWORD PTR _SB6[ebx*4]
  00331	83 e6 3f	 and	 esi, 63			; 0000003fH
  00334	33 3c b5 00 00
	00 00		 xor	 edi, DWORD PTR _SB8[esi*4]
  0033b	8b 58 04	 mov	 ebx, DWORD PTR [eax+4]
  0033e	33 cf		 xor	 ecx, edi
  00340	83 c0 04	 add	 eax, 4
  00343	8b f2		 mov	 esi, edx
  00345	c1 e6 1c	 shl	 esi, 28			; 0000001cH
  00348	8b fa		 mov	 edi, edx
  0034a	c1 ef 04	 shr	 edi, 4
  0034d	0b f7		 or	 esi, edi
  0034f	33 f3		 xor	 esi, ebx
  00351	8b de		 mov	 ebx, esi
  00353	c1 eb 10	 shr	 ebx, 16			; 00000010H
  00356	83 e3 3f	 and	 ebx, 63			; 0000003fH
  00359	8b 2c 9d 00 00
	00 00		 mov	 ebp, DWORD PTR _SB3[ebx*4]
  00360	8b fe		 mov	 edi, esi
  00362	c1 ef 18	 shr	 edi, 24			; 00000018H
  00365	83 e7 3f	 and	 edi, 63			; 0000003fH
  00368	8b 3c bd 00 00
	00 00		 mov	 edi, DWORD PTR _SB1[edi*4]
  0036f	33 fd		 xor	 edi, ebp
  00371	8b de		 mov	 ebx, esi
  00373	c1 eb 08	 shr	 ebx, 8
  00376	83 e3 3f	 and	 ebx, 63			; 0000003fH
  00379	33 3c 9d 00 00
	00 00		 xor	 edi, DWORD PTR _SB5[ebx*4]
  00380	83 e6 3f	 and	 esi, 63			; 0000003fH
  00383	8b 1c b5 00 00
	00 00		 mov	 ebx, DWORD PTR _SB7[esi*4]
  0038a	8b 70 04	 mov	 esi, DWORD PTR [eax+4]
  0038d	33 fb		 xor	 edi, ebx
  0038f	33 cf		 xor	 ecx, edi
  00391	83 c0 04	 add	 eax, 4
  00394	33 f1		 xor	 esi, ecx
  00396	8b de		 mov	 ebx, esi
  00398	c1 eb 10	 shr	 ebx, 16			; 00000010H
  0039b	83 e3 3f	 and	 ebx, 63			; 0000003fH
  0039e	8b 2c 9d 00 00
	00 00		 mov	 ebp, DWORD PTR _SB4[ebx*4]
  003a5	8b fe		 mov	 edi, esi
  003a7	c1 ef 18	 shr	 edi, 24			; 00000018H
  003aa	83 e7 3f	 and	 edi, 63			; 0000003fH
  003ad	8b 3c bd 00 00
	00 00		 mov	 edi, DWORD PTR _SB2[edi*4]
  003b4	8b de		 mov	 ebx, esi
  003b6	c1 eb 08	 shr	 ebx, 8
  003b9	33 fd		 xor	 edi, ebp
  003bb	83 e3 3f	 and	 ebx, 63			; 0000003fH
  003be	8b 2c 9d 00 00
	00 00		 mov	 ebp, DWORD PTR _SB6[ebx*4]
  003c5	83 e6 3f	 and	 esi, 63			; 0000003fH
  003c8	8b 1c b5 00 00
	00 00		 mov	 ebx, DWORD PTR _SB8[esi*4]
  003cf	33 fd		 xor	 edi, ebp
  003d1	33 fb		 xor	 edi, ebx
  003d3	8b f1		 mov	 esi, ecx
  003d5	83 c0 04	 add	 eax, 4
  003d8	33 d7		 xor	 edx, edi
  003da	c1 e6 1c	 shl	 esi, 28			; 0000001cH
  003dd	8b 18		 mov	 ebx, DWORD PTR [eax]
  003df	8b f9		 mov	 edi, ecx
  003e1	c1 ef 04	 shr	 edi, 4
  003e4	0b f7		 or	 esi, edi
  003e6	33 f3		 xor	 esi, ebx
  003e8	8b de		 mov	 ebx, esi
  003ea	c1 eb 10	 shr	 ebx, 16			; 00000010H
  003ed	83 e3 3f	 and	 ebx, 63			; 0000003fH
  003f0	8b 2c 9d 00 00
	00 00		 mov	 ebp, DWORD PTR _SB3[ebx*4]
  003f7	8b fe		 mov	 edi, esi
  003f9	c1 ef 18	 shr	 edi, 24			; 00000018H
  003fc	83 e7 3f	 and	 edi, 63			; 0000003fH
  003ff	8b 3c bd 00 00
	00 00		 mov	 edi, DWORD PTR _SB1[edi*4]
  00406	33 fd		 xor	 edi, ebp
  00408	8b de		 mov	 ebx, esi
  0040a	c1 eb 08	 shr	 ebx, 8
  0040d	83 e3 3f	 and	 ebx, 63			; 0000003fH
  00410	33 3c 9d 00 00
	00 00		 xor	 edi, DWORD PTR _SB5[ebx*4]
  00417	83 e6 3f	 and	 esi, 63			; 0000003fH
  0041a	33 3c b5 00 00
	00 00		 xor	 edi, DWORD PTR _SB7[esi*4]
  00421	8b 70 04	 mov	 esi, DWORD PTR [eax+4]
  00424	33 d7		 xor	 edx, edi
  00426	33 f2		 xor	 esi, edx
  00428	83 c0 04	 add	 eax, 4
  0042b	8b de		 mov	 ebx, esi
  0042d	c1 eb 10	 shr	 ebx, 16			; 00000010H
  00430	83 e3 3f	 and	 ebx, 63			; 0000003fH
  00433	8b 2c 9d 00 00
	00 00		 mov	 ebp, DWORD PTR _SB4[ebx*4]
  0043a	8b fe		 mov	 edi, esi
  0043c	c1 ef 18	 shr	 edi, 24			; 00000018H
  0043f	83 e7 3f	 and	 edi, 63			; 0000003fH
  00442	8b 3c bd 00 00
	00 00		 mov	 edi, DWORD PTR _SB2[edi*4]
  00449	33 fd		 xor	 edi, ebp
  0044b	8b de		 mov	 ebx, esi
  0044d	c1 eb 08	 shr	 ebx, 8
  00450	83 e3 3f	 and	 ebx, 63			; 0000003fH
  00453	33 3c 9d 00 00
	00 00		 xor	 edi, DWORD PTR _SB6[ebx*4]
  0045a	83 e6 3f	 and	 esi, 63			; 0000003fH
  0045d	33 3c b5 00 00
	00 00		 xor	 edi, DWORD PTR _SB8[esi*4]
  00464	8b 58 04	 mov	 ebx, DWORD PTR [eax+4]
  00467	33 cf		 xor	 ecx, edi
  00469	83 c0 04	 add	 eax, 4
  0046c	8b f2		 mov	 esi, edx
  0046e	c1 e6 1c	 shl	 esi, 28			; 0000001cH
  00471	8b fa		 mov	 edi, edx
  00473	c1 ef 04	 shr	 edi, 4
  00476	0b f7		 or	 esi, edi
  00478	33 f3		 xor	 esi, ebx
  0047a	8b de		 mov	 ebx, esi
  0047c	c1 eb 10	 shr	 ebx, 16			; 00000010H
  0047f	83 e3 3f	 and	 ebx, 63			; 0000003fH
  00482	8b 2c 9d 00 00
	00 00		 mov	 ebp, DWORD PTR _SB3[ebx*4]
  00489	8b fe		 mov	 edi, esi
  0048b	c1 ef 18	 shr	 edi, 24			; 00000018H
  0048e	83 e7 3f	 and	 edi, 63			; 0000003fH
  00491	8b 3c bd 00 00
	00 00		 mov	 edi, DWORD PTR _SB1[edi*4]
  00498	8b de		 mov	 ebx, esi
  0049a	33 fd		 xor	 edi, ebp
  0049c	c1 eb 08	 shr	 ebx, 8
  0049f	83 e3 3f	 and	 ebx, 63			; 0000003fH
  004a2	33 3c 9d 00 00
	00 00		 xor	 edi, DWORD PTR _SB5[ebx*4]
  004a9	83 e6 3f	 and	 esi, 63			; 0000003fH
  004ac	8b 1c b5 00 00
	00 00		 mov	 ebx, DWORD PTR _SB7[esi*4]
  004b3	8b 70 04	 mov	 esi, DWORD PTR [eax+4]
  004b6	33 fb		 xor	 edi, ebx
  004b8	33 cf		 xor	 ecx, edi
  004ba	83 c0 04	 add	 eax, 4
  004bd	33 f1		 xor	 esi, ecx
  004bf	8b fe		 mov	 edi, esi
  004c1	c1 ef 18	 shr	 edi, 24			; 00000018H
  004c4	8b de		 mov	 ebx, esi
  004c6	83 e7 3f	 and	 edi, 63			; 0000003fH
  004c9	8b 3c bd 00 00
	00 00		 mov	 edi, DWORD PTR _SB2[edi*4]
  004d0	c1 eb 10	 shr	 ebx, 16			; 00000010H
  004d3	83 c0 04	 add	 eax, 4
  004d6	83 e3 3f	 and	 ebx, 63			; 0000003fH
  004d9	33 3c 9d 00 00
	00 00		 xor	 edi, DWORD PTR _SB4[ebx*4]
  004e0	8b de		 mov	 ebx, esi
  004e2	c1 eb 08	 shr	 ebx, 8
  004e5	83 e3 3f	 and	 ebx, 63			; 0000003fH
  004e8	33 3c 9d 00 00
	00 00		 xor	 edi, DWORD PTR _SB6[ebx*4]
  004ef	83 e6 3f	 and	 esi, 63			; 0000003fH
  004f2	33 3c b5 00 00
	00 00		 xor	 edi, DWORD PTR _SB8[esi*4]
  004f9	8b 18		 mov	 ebx, DWORD PTR [eax]
  004fb	33 d7		 xor	 edx, edi
  004fd	8b f1		 mov	 esi, ecx
  004ff	c1 e6 1c	 shl	 esi, 28			; 0000001cH
  00502	8b f9		 mov	 edi, ecx
  00504	c1 ef 04	 shr	 edi, 4
  00507	0b f7		 or	 esi, edi
  00509	33 f3		 xor	 esi, ebx
  0050b	8b de		 mov	 ebx, esi
  0050d	c1 eb 10	 shr	 ebx, 16			; 00000010H
  00510	83 e3 3f	 and	 ebx, 63			; 0000003fH
  00513	8b 2c 9d 00 00
	00 00		 mov	 ebp, DWORD PTR _SB3[ebx*4]
  0051a	8b fe		 mov	 edi, esi
  0051c	c1 ef 18	 shr	 edi, 24			; 00000018H
  0051f	83 e7 3f	 and	 edi, 63			; 0000003fH
  00522	8b 3c bd 00 00
	00 00		 mov	 edi, DWORD PTR _SB1[edi*4]
  00529	33 fd		 xor	 edi, ebp
  0052b	8b de		 mov	 ebx, esi
  0052d	c1 eb 08	 shr	 ebx, 8
  00530	83 e3 3f	 and	 ebx, 63			; 0000003fH
  00533	33 3c 9d 00 00
	00 00		 xor	 edi, DWORD PTR _SB5[ebx*4]
  0053a	83 e6 3f	 and	 esi, 63			; 0000003fH
  0053d	8b 1c b5 00 00
	00 00		 mov	 ebx, DWORD PTR _SB7[esi*4]
  00544	8b 70 04	 mov	 esi, DWORD PTR [eax+4]
  00547	33 fb		 xor	 edi, ebx
  00549	33 d7		 xor	 edx, edi
  0054b	33 f2		 xor	 esi, edx
  0054d	83 c0 04	 add	 eax, 4
  00550	8b de		 mov	 ebx, esi
  00552	c1 eb 10	 shr	 ebx, 16			; 00000010H
  00555	83 e3 3f	 and	 ebx, 63			; 0000003fH
  00558	8b 2c 9d 00 00
	00 00		 mov	 ebp, DWORD PTR _SB4[ebx*4]
  0055f	8b fe		 mov	 edi, esi
  00561	c1 ef 18	 shr	 edi, 24			; 00000018H
  00564	83 e7 3f	 and	 edi, 63			; 0000003fH
  00567	8b 3c bd 00 00
	00 00		 mov	 edi, DWORD PTR _SB2[edi*4]
  0056e	33 fd		 xor	 edi, ebp
  00570	8b de		 mov	 ebx, esi
  00572	c1 eb 08	 shr	 ebx, 8
  00575	83 e3 3f	 and	 ebx, 63			; 0000003fH
  00578	33 3c 9d 00 00
	00 00		 xor	 edi, DWORD PTR _SB6[ebx*4]
  0057f	83 e6 3f	 and	 esi, 63			; 0000003fH
  00582	33 3c b5 00 00
	00 00		 xor	 edi, DWORD PTR _SB8[esi*4]
  00589	8b 58 04	 mov	 ebx, DWORD PTR [eax+4]
  0058c	33 cf		 xor	 ecx, edi
  0058e	83 c0 04	 add	 eax, 4
  00591	8b f2		 mov	 esi, edx
  00593	c1 e6 1c	 shl	 esi, 28			; 0000001cH
  00596	8b fa		 mov	 edi, edx
  00598	c1 ef 04	 shr	 edi, 4
  0059b	0b f7		 or	 esi, edi
  0059d	33 f3		 xor	 esi, ebx
  0059f	8b de		 mov	 ebx, esi
  005a1	c1 eb 10	 shr	 ebx, 16			; 00000010H
  005a4	83 e3 3f	 and	 ebx, 63			; 0000003fH
  005a7	8b 2c 9d 00 00
	00 00		 mov	 ebp, DWORD PTR _SB3[ebx*4]
  005ae	8b fe		 mov	 edi, esi
  005b0	c1 ef 18	 shr	 edi, 24			; 00000018H
  005b3	83 e7 3f	 and	 edi, 63			; 0000003fH
  005b6	8b 3c bd 00 00
	00 00		 mov	 edi, DWORD PTR _SB1[edi*4]
  005bd	8b de		 mov	 ebx, esi
  005bf	c1 eb 08	 shr	 ebx, 8
  005c2	33 fd		 xor	 edi, ebp
  005c4	83 e3 3f	 and	 ebx, 63			; 0000003fH
  005c7	8b 2c 9d 00 00
	00 00		 mov	 ebp, DWORD PTR _SB5[ebx*4]
  005ce	83 c0 04	 add	 eax, 4
  005d1	33 fd		 xor	 edi, ebp
  005d3	83 e6 3f	 and	 esi, 63			; 0000003fH
  005d6	33 3c b5 00 00
	00 00		 xor	 edi, DWORD PTR _SB7[esi*4]
  005dd	8b 30		 mov	 esi, DWORD PTR [eax]
  005df	33 cf		 xor	 ecx, edi
  005e1	33 f1		 xor	 esi, ecx
  005e3	8b de		 mov	 ebx, esi
  005e5	c1 eb 10	 shr	 ebx, 16			; 00000010H
  005e8	83 e3 3f	 and	 ebx, 63			; 0000003fH
  005eb	8b 2c 9d 00 00
	00 00		 mov	 ebp, DWORD PTR _SB4[ebx*4]
  005f2	8b fe		 mov	 edi, esi
  005f4	c1 ef 18	 shr	 edi, 24			; 00000018H
  005f7	83 e7 3f	 and	 edi, 63			; 0000003fH
  005fa	8b 3c bd 00 00
	00 00		 mov	 edi, DWORD PTR _SB2[edi*4]
  00601	33 fd		 xor	 edi, ebp
  00603	8b de		 mov	 ebx, esi
  00605	c1 eb 08	 shr	 ebx, 8
  00608	83 e3 3f	 and	 ebx, 63			; 0000003fH
  0060b	33 3c 9d 00 00
	00 00		 xor	 edi, DWORD PTR _SB6[ebx*4]
  00612	83 e6 3f	 and	 esi, 63			; 0000003fH
  00615	33 3c b5 00 00
	00 00		 xor	 edi, DWORD PTR _SB8[esi*4]
  0061c	8b 58 04	 mov	 ebx, DWORD PTR [eax+4]
  0061f	33 d7		 xor	 edx, edi
  00621	83 c0 04	 add	 eax, 4
  00624	8b f1		 mov	 esi, ecx
  00626	c1 e6 1c	 shl	 esi, 28			; 0000001cH
  00629	8b f9		 mov	 edi, ecx
  0062b	c1 ef 04	 shr	 edi, 4
  0062e	0b f7		 or	 esi, edi
  00630	33 f3		 xor	 esi, ebx
  00632	8b de		 mov	 ebx, esi
  00634	c1 eb 10	 shr	 ebx, 16			; 00000010H
  00637	83 e3 3f	 and	 ebx, 63			; 0000003fH
  0063a	8b 2c 9d 00 00
	00 00		 mov	 ebp, DWORD PTR _SB3[ebx*4]
  00641	8b fe		 mov	 edi, esi
  00643	c1 ef 18	 shr	 edi, 24			; 00000018H
  00646	83 e7 3f	 and	 edi, 63			; 0000003fH
  00649	8b 3c bd 00 00
	00 00		 mov	 edi, DWORD PTR _SB1[edi*4]
  00650	33 fd		 xor	 edi, ebp
  00652	8b de		 mov	 ebx, esi
  00654	c1 eb 08	 shr	 ebx, 8
  00657	83 e3 3f	 and	 ebx, 63			; 0000003fH
  0065a	33 3c 9d 00 00
	00 00		 xor	 edi, DWORD PTR _SB5[ebx*4]
  00661	83 e6 3f	 and	 esi, 63			; 0000003fH
  00664	8b 1c b5 00 00
	00 00		 mov	 ebx, DWORD PTR _SB7[esi*4]
  0066b	8b 70 04	 mov	 esi, DWORD PTR [eax+4]
  0066e	33 fb		 xor	 edi, ebx
  00670	33 d7		 xor	 edx, edi
  00672	33 f2		 xor	 esi, edx
  00674	83 c0 04	 add	 eax, 4
  00677	8b de		 mov	 ebx, esi
  00679	c1 eb 10	 shr	 ebx, 16			; 00000010H
  0067c	83 e3 3f	 and	 ebx, 63			; 0000003fH
  0067f	8b 2c 9d 00 00
	00 00		 mov	 ebp, DWORD PTR _SB4[ebx*4]
  00686	8b fe		 mov	 edi, esi
  00688	c1 ef 18	 shr	 edi, 24			; 00000018H
  0068b	83 e7 3f	 and	 edi, 63			; 0000003fH
  0068e	8b 3c bd 00 00
	00 00		 mov	 edi, DWORD PTR _SB2[edi*4]
  00695	8b de		 mov	 ebx, esi
  00697	33 fd		 xor	 edi, ebp
  00699	c1 eb 08	 shr	 ebx, 8
  0069c	83 e3 3f	 and	 ebx, 63			; 0000003fH
  0069f	8b 2c 9d 00 00
	00 00		 mov	 ebp, DWORD PTR _SB6[ebx*4]
  006a6	83 e6 3f	 and	 esi, 63			; 0000003fH
  006a9	8b 1c b5 00 00
	00 00		 mov	 ebx, DWORD PTR _SB8[esi*4]
  006b0	33 fd		 xor	 edi, ebp
  006b2	33 fb		 xor	 edi, ebx
  006b4	8b 58 04	 mov	 ebx, DWORD PTR [eax+4]
  006b7	33 cf		 xor	 ecx, edi
  006b9	83 c0 04	 add	 eax, 4
  006bc	8b f2		 mov	 esi, edx
  006be	c1 e6 1c	 shl	 esi, 28			; 0000001cH
  006c1	8b fa		 mov	 edi, edx
  006c3	c1 ef 04	 shr	 edi, 4
  006c6	0b f7		 or	 esi, edi
  006c8	33 f3		 xor	 esi, ebx
  006ca	8b fe		 mov	 edi, esi
  006cc	83 c0 04	 add	 eax, 4
  006cf	c1 ef 18	 shr	 edi, 24			; 00000018H
  006d2	83 e7 3f	 and	 edi, 63			; 0000003fH
  006d5	8b 3c bd 00 00
	00 00		 mov	 edi, DWORD PTR _SB1[edi*4]
  006dc	8b de		 mov	 ebx, esi
  006de	c1 eb 10	 shr	 ebx, 16			; 00000010H
  006e1	83 e3 3f	 and	 ebx, 63			; 0000003fH
  006e4	33 3c 9d 00 00
	00 00		 xor	 edi, DWORD PTR _SB3[ebx*4]
  006eb	8b de		 mov	 ebx, esi
  006ed	c1 eb 08	 shr	 ebx, 8
  006f0	83 e3 3f	 and	 ebx, 63			; 0000003fH
  006f3	33 3c 9d 00 00
	00 00		 xor	 edi, DWORD PTR _SB5[ebx*4]
  006fa	83 e6 3f	 and	 esi, 63			; 0000003fH
  006fd	33 3c b5 00 00
	00 00		 xor	 edi, DWORD PTR _SB7[esi*4]
  00704	8b 30		 mov	 esi, DWORD PTR [eax]
  00706	33 cf		 xor	 ecx, edi
  00708	33 f1		 xor	 esi, ecx
  0070a	8b de		 mov	 ebx, esi
  0070c	c1 eb 10	 shr	 ebx, 16			; 00000010H
  0070f	83 e3 3f	 and	 ebx, 63			; 0000003fH
  00712	8b 2c 9d 00 00
	00 00		 mov	 ebp, DWORD PTR _SB4[ebx*4]
  00719	8b fe		 mov	 edi, esi
  0071b	c1 ef 18	 shr	 edi, 24			; 00000018H
  0071e	83 e7 3f	 and	 edi, 63			; 0000003fH
  00721	8b 3c bd 00 00
	00 00		 mov	 edi, DWORD PTR _SB2[edi*4]
  00728	33 fd		 xor	 edi, ebp
  0072a	8b de		 mov	 ebx, esi
  0072c	c1 eb 08	 shr	 ebx, 8
  0072f	83 e3 3f	 and	 ebx, 63			; 0000003fH
  00732	33 3c 9d 00 00
	00 00		 xor	 edi, DWORD PTR _SB6[ebx*4]
  00739	83 e6 3f	 and	 esi, 63			; 0000003fH
  0073c	33 3c b5 00 00
	00 00		 xor	 edi, DWORD PTR _SB8[esi*4]
  00743	8b 58 04	 mov	 ebx, DWORD PTR [eax+4]
  00746	33 d7		 xor	 edx, edi
  00748	83 c0 04	 add	 eax, 4
  0074b	8b f1		 mov	 esi, ecx
  0074d	c1 e6 1c	 shl	 esi, 28			; 0000001cH
  00750	8b f9		 mov	 edi, ecx
  00752	c1 ef 04	 shr	 edi, 4
  00755	0b f7		 or	 esi, edi
  00757	33 f3		 xor	 esi, ebx
  00759	8b de		 mov	 ebx, esi
  0075b	c1 eb 10	 shr	 ebx, 16			; 00000010H
  0075e	83 e3 3f	 and	 ebx, 63			; 0000003fH
  00761	8b 2c 9d 00 00
	00 00		 mov	 ebp, DWORD PTR _SB3[ebx*4]
  00768	8b fe		 mov	 edi, esi
  0076a	c1 ef 18	 shr	 edi, 24			; 00000018H
  0076d	83 e7 3f	 and	 edi, 63			; 0000003fH
  00770	8b 3c bd 00 00
	00 00		 mov	 edi, DWORD PTR _SB1[edi*4]
  00777	33 fd		 xor	 edi, ebp
  00779	8b de		 mov	 ebx, esi
  0077b	c1 eb 08	 shr	 ebx, 8
  0077e	83 e3 3f	 and	 ebx, 63			; 0000003fH
  00781	33 3c 9d 00 00
	00 00		 xor	 edi, DWORD PTR _SB5[ebx*4]
  00788	83 e6 3f	 and	 esi, 63			; 0000003fH
  0078b	8b 1c b5 00 00
	00 00		 mov	 ebx, DWORD PTR _SB7[esi*4]
  00792	8b 70 04	 mov	 esi, DWORD PTR [eax+4]
  00795	33 fb		 xor	 edi, ebx
  00797	33 d7		 xor	 edx, edi
  00799	83 c0 04	 add	 eax, 4
  0079c	33 f2		 xor	 esi, edx
  0079e	8b de		 mov	 ebx, esi
  007a0	c1 eb 10	 shr	 ebx, 16			; 00000010H
  007a3	83 e3 3f	 and	 ebx, 63			; 0000003fH
  007a6	8b 2c 9d 00 00
	00 00		 mov	 ebp, DWORD PTR _SB4[ebx*4]
  007ad	8b fe		 mov	 edi, esi
  007af	c1 ef 18	 shr	 edi, 24			; 00000018H
  007b2	83 e7 3f	 and	 edi, 63			; 0000003fH
  007b5	8b 3c bd 00 00
	00 00		 mov	 edi, DWORD PTR _SB2[edi*4]
  007bc	8b de		 mov	 ebx, esi
  007be	c1 eb 08	 shr	 ebx, 8
  007c1	33 fd		 xor	 edi, ebp
  007c3	83 e3 3f	 and	 ebx, 63			; 0000003fH
  007c6	8b 2c 9d 00 00
	00 00		 mov	 ebp, DWORD PTR _SB6[ebx*4]
  007cd	83 c0 04	 add	 eax, 4
  007d0	33 fd		 xor	 edi, ebp
  007d2	83 e6 3f	 and	 esi, 63			; 0000003fH
  007d5	33 3c b5 00 00
	00 00		 xor	 edi, DWORD PTR _SB8[esi*4]
  007dc	8b 18		 mov	 ebx, DWORD PTR [eax]
  007de	33 cf		 xor	 ecx, edi
  007e0	8b f2		 mov	 esi, edx
  007e2	c1 e6 1c	 shl	 esi, 28			; 0000001cH
  007e5	8b fa		 mov	 edi, edx
  007e7	c1 ef 04	 shr	 edi, 4
  007ea	0b f7		 or	 esi, edi
  007ec	33 f3		 xor	 esi, ebx
  007ee	8b de		 mov	 ebx, esi
  007f0	c1 eb 10	 shr	 ebx, 16			; 00000010H
  007f3	83 e3 3f	 and	 ebx, 63			; 0000003fH
  007f6	8b 2c 9d 00 00
	00 00		 mov	 ebp, DWORD PTR _SB3[ebx*4]
  007fd	8b fe		 mov	 edi, esi
  007ff	c1 ef 18	 shr	 edi, 24			; 00000018H
  00802	83 e7 3f	 and	 edi, 63			; 0000003fH
  00805	8b 3c bd 00 00
	00 00		 mov	 edi, DWORD PTR _SB1[edi*4]
  0080c	33 fd		 xor	 edi, ebp
  0080e	8b de		 mov	 ebx, esi
  00810	c1 eb 08	 shr	 ebx, 8
  00813	83 e3 3f	 and	 ebx, 63			; 0000003fH
  00816	33 3c 9d 00 00
	00 00		 xor	 edi, DWORD PTR _SB5[ebx*4]
  0081d	83 e6 3f	 and	 esi, 63			; 0000003fH
  00820	33 3c b5 00 00
	00 00		 xor	 edi, DWORD PTR _SB7[esi*4]
  00827	8b 70 04	 mov	 esi, DWORD PTR [eax+4]
  0082a	33 cf		 xor	 ecx, edi
  0082c	33 f1		 xor	 esi, ecx
  0082e	83 c0 04	 add	 eax, 4
  00831	8b de		 mov	 ebx, esi
  00833	c1 eb 10	 shr	 ebx, 16			; 00000010H
  00836	83 e3 3f	 and	 ebx, 63			; 0000003fH
  00839	8b 2c 9d 00 00
	00 00		 mov	 ebp, DWORD PTR _SB4[ebx*4]
  00840	8b fe		 mov	 edi, esi
  00842	c1 ef 18	 shr	 edi, 24			; 00000018H
  00845	83 e7 3f	 and	 edi, 63			; 0000003fH
  00848	8b 3c bd 00 00
	00 00		 mov	 edi, DWORD PTR _SB2[edi*4]
  0084f	33 fd		 xor	 edi, ebp
  00851	8b de		 mov	 ebx, esi
  00853	c1 eb 08	 shr	 ebx, 8
  00856	83 e3 3f	 and	 ebx, 63			; 0000003fH
  00859	33 3c 9d 00 00
	00 00		 xor	 edi, DWORD PTR _SB6[ebx*4]
  00860	83 e6 3f	 and	 esi, 63			; 0000003fH
  00863	33 3c b5 00 00
	00 00		 xor	 edi, DWORD PTR _SB8[esi*4]
  0086a	8b 58 04	 mov	 ebx, DWORD PTR [eax+4]
  0086d	33 d7		 xor	 edx, edi
  0086f	83 c0 04	 add	 eax, 4
  00872	8b f1		 mov	 esi, ecx
  00874	c1 e6 1c	 shl	 esi, 28			; 0000001cH
  00877	8b f9		 mov	 edi, ecx
  00879	c1 ef 04	 shr	 edi, 4
  0087c	0b f7		 or	 esi, edi
  0087e	33 f3		 xor	 esi, ebx
  00880	8b de		 mov	 ebx, esi
  00882	c1 eb 10	 shr	 ebx, 16			; 00000010H
  00885	83 e3 3f	 and	 ebx, 63			; 0000003fH
  00888	8b 2c 9d 00 00
	00 00		 mov	 ebp, DWORD PTR _SB3[ebx*4]
  0088f	8b fe		 mov	 edi, esi
  00891	c1 ef 18	 shr	 edi, 24			; 00000018H
  00894	83 e7 3f	 and	 edi, 63			; 0000003fH
  00897	8b 3c bd 00 00
	00 00		 mov	 edi, DWORD PTR _SB1[edi*4]
  0089e	8b de		 mov	 ebx, esi
  008a0	c1 eb 08	 shr	 ebx, 8
  008a3	33 fd		 xor	 edi, ebp
  008a5	83 e3 3f	 and	 ebx, 63			; 0000003fH
  008a8	8b 2c 9d 00 00
	00 00		 mov	 ebp, DWORD PTR _SB5[ebx*4]
  008af	83 e6 3f	 and	 esi, 63			; 0000003fH
  008b2	8b 1c b5 00 00
	00 00		 mov	 ebx, DWORD PTR _SB7[esi*4]
  008b9	8b 70 04	 mov	 esi, DWORD PTR [eax+4]
  008bc	33 fd		 xor	 edi, ebp
  008be	83 c0 04	 add	 eax, 4
  008c1	33 fb		 xor	 edi, ebx
  008c3	33 d7		 xor	 edx, edi
  008c5	33 f2		 xor	 esi, edx
  008c7	8b fe		 mov	 edi, esi
  008c9	83 c0 04	 add	 eax, 4
  008cc	c1 ef 18	 shr	 edi, 24			; 00000018H
  008cf	83 e7 3f	 and	 edi, 63			; 0000003fH
  008d2	8b 3c bd 00 00
	00 00		 mov	 edi, DWORD PTR _SB2[edi*4]
  008d9	8b de		 mov	 ebx, esi
  008db	c1 eb 10	 shr	 ebx, 16			; 00000010H
  008de	83 e3 3f	 and	 ebx, 63			; 0000003fH
  008e1	33 3c 9d 00 00
	00 00		 xor	 edi, DWORD PTR _SB4[ebx*4]
  008e8	8b de		 mov	 ebx, esi
  008ea	c1 eb 08	 shr	 ebx, 8
  008ed	83 e3 3f	 and	 ebx, 63			; 0000003fH
  008f0	33 3c 9d 00 00
	00 00		 xor	 edi, DWORD PTR _SB6[ebx*4]
  008f7	83 e6 3f	 and	 esi, 63			; 0000003fH
  008fa	33 3c b5 00 00
	00 00		 xor	 edi, DWORD PTR _SB8[esi*4]
  00901	8b 18		 mov	 ebx, DWORD PTR [eax]
  00903	33 cf		 xor	 ecx, edi
  00905	8b f2		 mov	 esi, edx
  00907	c1 e6 1c	 shl	 esi, 28			; 0000001cH
  0090a	8b fa		 mov	 edi, edx
  0090c	c1 ef 04	 shr	 edi, 4
  0090f	0b f7		 or	 esi, edi
  00911	33 f3		 xor	 esi, ebx
  00913	8b de		 mov	 ebx, esi
  00915	c1 eb 10	 shr	 ebx, 16			; 00000010H
  00918	83 e3 3f	 and	 ebx, 63			; 0000003fH
  0091b	8b 2c 9d 00 00
	00 00		 mov	 ebp, DWORD PTR _SB3[ebx*4]
  00922	8b fe		 mov	 edi, esi
  00924	c1 ef 18	 shr	 edi, 24			; 00000018H
  00927	83 e7 3f	 and	 edi, 63			; 0000003fH
  0092a	8b 3c bd 00 00
	00 00		 mov	 edi, DWORD PTR _SB1[edi*4]
  00931	33 fd		 xor	 edi, ebp
  00933	8b de		 mov	 ebx, esi
  00935	c1 eb 08	 shr	 ebx, 8
  00938	83 e3 3f	 and	 ebx, 63			; 0000003fH
  0093b	33 3c 9d 00 00
	00 00		 xor	 edi, DWORD PTR _SB5[ebx*4]
  00942	83 e6 3f	 and	 esi, 63			; 0000003fH
  00945	8b 1c b5 00 00
	00 00		 mov	 ebx, DWORD PTR _SB7[esi*4]
  0094c	8b 70 04	 mov	 esi, DWORD PTR [eax+4]
  0094f	33 fb		 xor	 edi, ebx
  00951	33 cf		 xor	 ecx, edi
  00953	33 f1		 xor	 esi, ecx
  00955	83 c0 04	 add	 eax, 4
  00958	8b de		 mov	 ebx, esi
  0095a	c1 eb 10	 shr	 ebx, 16			; 00000010H
  0095d	83 e3 3f	 and	 ebx, 63			; 0000003fH
  00960	8b 2c 9d 00 00
	00 00		 mov	 ebp, DWORD PTR _SB4[ebx*4]
  00967	8b fe		 mov	 edi, esi
  00969	c1 ef 18	 shr	 edi, 24			; 00000018H
  0096c	83 e7 3f	 and	 edi, 63			; 0000003fH
  0096f	8b 3c bd 00 00
	00 00		 mov	 edi, DWORD PTR _SB2[edi*4]
  00976	33 fd		 xor	 edi, ebp
  00978	8b de		 mov	 ebx, esi
  0097a	c1 eb 08	 shr	 ebx, 8
  0097d	83 e3 3f	 and	 ebx, 63			; 0000003fH
  00980	33 3c 9d 00 00
	00 00		 xor	 edi, DWORD PTR _SB6[ebx*4]
  00987	83 e6 3f	 and	 esi, 63			; 0000003fH
  0098a	33 3c b5 00 00
	00 00		 xor	 edi, DWORD PTR _SB8[esi*4]
  00991	33 d7		 xor	 edx, edi
  00993	8b f9		 mov	 edi, ecx
  00995	8b f1		 mov	 esi, ecx
  00997	c1 ee 04	 shr	 esi, 4
  0099a	83 c0 04	 add	 eax, 4
  0099d	c1 e7 1c	 shl	 edi, 28			; 0000001cH
  009a0	0b fe		 or	 edi, esi
  009a2	8b 30		 mov	 esi, DWORD PTR [eax]
  009a4	33 f7		 xor	 esi, edi
  009a6	8b de		 mov	 ebx, esi
  009a8	c1 eb 18	 shr	 ebx, 24			; 00000018H
  009ab	83 e3 3f	 and	 ebx, 63			; 0000003fH
  009ae	8b 1c 9d 00 00
	00 00		 mov	 ebx, DWORD PTR _SB1[ebx*4]
  009b5	8b ee		 mov	 ebp, esi
  009b7	c1 ed 10	 shr	 ebp, 16			; 00000010H
  009ba	83 e5 3f	 and	 ebp, 63			; 0000003fH
  009bd	33 1c ad 00 00
	00 00		 xor	 ebx, DWORD PTR _SB3[ebp*4]
  009c4	8b ee		 mov	 ebp, esi
  009c6	83 c0 04	 add	 eax, 4
  009c9	c1 ed 08	 shr	 ebp, 8
  009cc	83 e5 3f	 and	 ebp, 63			; 0000003fH
  009cf	33 1c ad 00 00
	00 00		 xor	 ebx, DWORD PTR _SB5[ebp*4]
  009d6	83 e6 3f	 and	 esi, 63			; 0000003fH
  009d9	8b 2c b5 00 00
	00 00		 mov	 ebp, DWORD PTR _SB7[esi*4]
  009e0	8b 30		 mov	 esi, DWORD PTR [eax]
  009e2	33 dd		 xor	 ebx, ebp
  009e4	33 d3		 xor	 edx, ebx
  009e6	33 f1		 xor	 esi, ecx
  009e8	8b de		 mov	 ebx, esi
  009ea	c1 eb 18	 shr	 ebx, 24			; 00000018H
  009ed	83 e3 3f	 and	 ebx, 63			; 0000003fH
  009f0	8b 1c 9d 00 00
	00 00		 mov	 ebx, DWORD PTR _SB2[ebx*4]
  009f7	8b ee		 mov	 ebp, esi
  009f9	c1 ed 10	 shr	 ebp, 16			; 00000010H
  009fc	83 e5 3f	 and	 ebp, 63			; 0000003fH
  009ff	33 1c ad 00 00
	00 00		 xor	 ebx, DWORD PTR _SB4[ebp*4]
  00a06	8b ee		 mov	 ebp, esi
  00a08	83 e6 3f	 and	 esi, 63			; 0000003fH
  00a0b	c1 ed 08	 shr	 ebp, 8
  00a0e	83 e5 3f	 and	 ebp, 63			; 0000003fH
  00a11	33 1c ad 00 00
	00 00		 xor	 ebx, DWORD PTR _SB6[ebp*4]
  00a18	8b 2c b5 00 00
	00 00		 mov	 ebp, DWORD PTR _SB8[esi*4]
  00a1f	8b 70 04	 mov	 esi, DWORD PTR [eax+4]
  00a22	33 f7		 xor	 esi, edi
  00a24	33 dd		 xor	 ebx, ebp
  00a26	33 d3		 xor	 edx, ebx
  00a28	83 c0 04	 add	 eax, 4
  00a2b	8b de		 mov	 ebx, esi
  00a2d	c1 eb 10	 shr	 ebx, 16			; 00000010H
  00a30	83 e3 3f	 and	 ebx, 63			; 0000003fH
  00a33	8b 2c 9d 00 00
	00 00		 mov	 ebp, DWORD PTR _SB3[ebx*4]
  00a3a	8b fe		 mov	 edi, esi
  00a3c	c1 ef 18	 shr	 edi, 24			; 00000018H
  00a3f	83 e7 3f	 and	 edi, 63			; 0000003fH
  00a42	8b 3c bd 00 00
	00 00		 mov	 edi, DWORD PTR _SB1[edi*4]
  00a49	33 fd		 xor	 edi, ebp
  00a4b	8b de		 mov	 ebx, esi
  00a4d	c1 eb 08	 shr	 ebx, 8
  00a50	83 e3 3f	 and	 ebx, 63			; 0000003fH
  00a53	33 3c 9d 00 00
	00 00		 xor	 edi, DWORD PTR _SB5[ebx*4]
  00a5a	83 e6 3f	 and	 esi, 63			; 0000003fH
  00a5d	8b 1c b5 00 00
	00 00		 mov	 ebx, DWORD PTR _SB7[esi*4]
  00a64	8b 70 04	 mov	 esi, DWORD PTR [eax+4]
  00a67	33 fb		 xor	 edi, ebx
  00a69	33 d7		 xor	 edx, edi
  00a6b	33 f2		 xor	 esi, edx
  00a6d	83 c0 04	 add	 eax, 4
  00a70	8b de		 mov	 ebx, esi
  00a72	c1 eb 10	 shr	 ebx, 16			; 00000010H
  00a75	83 e3 3f	 and	 ebx, 63			; 0000003fH
  00a78	8b 2c 9d 00 00
	00 00		 mov	 ebp, DWORD PTR _SB4[ebx*4]
  00a7f	8b fe		 mov	 edi, esi
  00a81	c1 ef 18	 shr	 edi, 24			; 00000018H
  00a84	83 e7 3f	 and	 edi, 63			; 0000003fH
  00a87	8b 3c bd 00 00
	00 00		 mov	 edi, DWORD PTR _SB2[edi*4]
  00a8e	8b de		 mov	 ebx, esi
  00a90	33 fd		 xor	 edi, ebp
  00a92	c1 eb 08	 shr	 ebx, 8
  00a95	83 e3 3f	 and	 ebx, 63			; 0000003fH
  00a98	8b 2c 9d 00 00
	00 00		 mov	 ebp, DWORD PTR _SB6[ebx*4]
  00a9f	83 e6 3f	 and	 esi, 63			; 0000003fH
  00aa2	8b 1c b5 00 00
	00 00		 mov	 ebx, DWORD PTR _SB8[esi*4]
  00aa9	33 fd		 xor	 edi, ebp
  00aab	33 fb		 xor	 edi, ebx
  00aad	8b 58 04	 mov	 ebx, DWORD PTR [eax+4]
  00ab0	33 cf		 xor	 ecx, edi
  00ab2	83 c0 04	 add	 eax, 4
  00ab5	8b f2		 mov	 esi, edx
  00ab7	c1 e6 1c	 shl	 esi, 28			; 0000001cH
  00aba	8b fa		 mov	 edi, edx
  00abc	c1 ef 04	 shr	 edi, 4
  00abf	0b f7		 or	 esi, edi
  00ac1	33 f3		 xor	 esi, ebx
  00ac3	8b fe		 mov	 edi, esi
  00ac5	c1 ef 18	 shr	 edi, 24			; 00000018H
  00ac8	8b de		 mov	 ebx, esi
  00aca	c1 eb 10	 shr	 ebx, 16			; 00000010H
  00acd	83 c0 04	 add	 eax, 4
  00ad0	83 e7 3f	 and	 edi, 63			; 0000003fH
  00ad3	83 e3 3f	 and	 ebx, 63			; 0000003fH
  00ad6	8b 2c 9d 00 00
	00 00		 mov	 ebp, DWORD PTR _SB3[ebx*4]
  00add	8b 3c bd 00 00
	00 00		 mov	 edi, DWORD PTR _SB1[edi*4]
  00ae4	33 fd		 xor	 edi, ebp
  00ae6	8b de		 mov	 ebx, esi
  00ae8	c1 eb 08	 shr	 ebx, 8
  00aeb	83 e3 3f	 and	 ebx, 63			; 0000003fH
  00aee	33 3c 9d 00 00
	00 00		 xor	 edi, DWORD PTR _SB5[ebx*4]
  00af5	83 e6 3f	 and	 esi, 63			; 0000003fH
  00af8	33 3c b5 00 00
	00 00		 xor	 edi, DWORD PTR _SB7[esi*4]
  00aff	8b 30		 mov	 esi, DWORD PTR [eax]
  00b01	33 cf		 xor	 ecx, edi
  00b03	33 f1		 xor	 esi, ecx
  00b05	8b de		 mov	 ebx, esi
  00b07	c1 eb 10	 shr	 ebx, 16			; 00000010H
  00b0a	83 e3 3f	 and	 ebx, 63			; 0000003fH
  00b0d	8b 2c 9d 00 00
	00 00		 mov	 ebp, DWORD PTR _SB4[ebx*4]
  00b14	8b fe		 mov	 edi, esi
  00b16	c1 ef 18	 shr	 edi, 24			; 00000018H
  00b19	83 e7 3f	 and	 edi, 63			; 0000003fH
  00b1c	8b 3c bd 00 00
	00 00		 mov	 edi, DWORD PTR _SB2[edi*4]
  00b23	33 fd		 xor	 edi, ebp
  00b25	8b de		 mov	 ebx, esi
  00b27	c1 eb 08	 shr	 ebx, 8
  00b2a	83 e3 3f	 and	 ebx, 63			; 0000003fH
  00b2d	33 3c 9d 00 00
	00 00		 xor	 edi, DWORD PTR _SB6[ebx*4]
  00b34	83 e6 3f	 and	 esi, 63			; 0000003fH
  00b37	33 3c b5 00 00
	00 00		 xor	 edi, DWORD PTR _SB8[esi*4]
  00b3e	8b 58 04	 mov	 ebx, DWORD PTR [eax+4]
  00b41	33 d7		 xor	 edx, edi
  00b43	83 c0 04	 add	 eax, 4
  00b46	8b f1		 mov	 esi, ecx
  00b48	c1 e6 1c	 shl	 esi, 28			; 0000001cH
  00b4b	8b f9		 mov	 edi, ecx
  00b4d	c1 ef 04	 shr	 edi, 4
  00b50	0b f7		 or	 esi, edi
  00b52	33 f3		 xor	 esi, ebx
  00b54	8b de		 mov	 ebx, esi
  00b56	c1 eb 10	 shr	 ebx, 16			; 00000010H
  00b59	83 e3 3f	 and	 ebx, 63			; 0000003fH
  00b5c	8b 2c 9d 00 00
	00 00		 mov	 ebp, DWORD PTR _SB3[ebx*4]
  00b63	8b fe		 mov	 edi, esi
  00b65	c1 ef 18	 shr	 edi, 24			; 00000018H
  00b68	83 e7 3f	 and	 edi, 63			; 0000003fH
  00b6b	8b 3c bd 00 00
	00 00		 mov	 edi, DWORD PTR _SB1[edi*4]
  00b72	33 fd		 xor	 edi, ebp
  00b74	8b de		 mov	 ebx, esi
  00b76	c1 eb 08	 shr	 ebx, 8
  00b79	83 e3 3f	 and	 ebx, 63			; 0000003fH
  00b7c	33 3c 9d 00 00
	00 00		 xor	 edi, DWORD PTR _SB5[ebx*4]
  00b83	83 e6 3f	 and	 esi, 63			; 0000003fH
  00b86	8b 1c b5 00 00
	00 00		 mov	 ebx, DWORD PTR _SB7[esi*4]
  00b8d	8b 70 04	 mov	 esi, DWORD PTR [eax+4]
  00b90	33 fb		 xor	 edi, ebx
  00b92	33 d7		 xor	 edx, edi
  00b94	83 c0 04	 add	 eax, 4
  00b97	33 f2		 xor	 esi, edx
  00b99	8b de		 mov	 ebx, esi
  00b9b	c1 eb 10	 shr	 ebx, 16			; 00000010H
  00b9e	83 e3 3f	 and	 ebx, 63			; 0000003fH
  00ba1	8b 2c 9d 00 00
	00 00		 mov	 ebp, DWORD PTR _SB4[ebx*4]
  00ba8	8b fe		 mov	 edi, esi
  00baa	c1 ef 18	 shr	 edi, 24			; 00000018H
  00bad	83 e7 3f	 and	 edi, 63			; 0000003fH
  00bb0	8b 3c bd 00 00
	00 00		 mov	 edi, DWORD PTR _SB2[edi*4]
  00bb7	8b de		 mov	 ebx, esi
  00bb9	c1 eb 08	 shr	 ebx, 8
  00bbc	33 fd		 xor	 edi, ebp
  00bbe	83 e3 3f	 and	 ebx, 63			; 0000003fH
  00bc1	8b 2c 9d 00 00
	00 00		 mov	 ebp, DWORD PTR _SB6[ebx*4]
  00bc8	83 e6 3f	 and	 esi, 63			; 0000003fH
  00bcb	8b 1c b5 00 00
	00 00		 mov	 ebx, DWORD PTR _SB8[esi*4]
  00bd2	33 fd		 xor	 edi, ebp
  00bd4	33 fb		 xor	 edi, ebx
  00bd6	83 c0 04	 add	 eax, 4
  00bd9	33 cf		 xor	 ecx, edi
  00bdb	8b f2		 mov	 esi, edx
  00bdd	8b 18		 mov	 ebx, DWORD PTR [eax]
  00bdf	c1 e6 1c	 shl	 esi, 28			; 0000001cH
  00be2	8b fa		 mov	 edi, edx
  00be4	c1 ef 04	 shr	 edi, 4
  00be7	0b f7		 or	 esi, edi
  00be9	33 f3		 xor	 esi, ebx
  00beb	8b de		 mov	 ebx, esi
  00bed	c1 eb 10	 shr	 ebx, 16			; 00000010H
  00bf0	83 e3 3f	 and	 ebx, 63			; 0000003fH
  00bf3	8b 2c 9d 00 00
	00 00		 mov	 ebp, DWORD PTR _SB3[ebx*4]
  00bfa	8b fe		 mov	 edi, esi
  00bfc	c1 ef 18	 shr	 edi, 24			; 00000018H
  00bff	83 e7 3f	 and	 edi, 63			; 0000003fH
  00c02	8b 3c bd 00 00
	00 00		 mov	 edi, DWORD PTR _SB1[edi*4]
  00c09	33 fd		 xor	 edi, ebp
  00c0b	8b de		 mov	 ebx, esi
  00c0d	c1 eb 08	 shr	 ebx, 8
  00c10	83 e3 3f	 and	 ebx, 63			; 0000003fH
  00c13	33 3c 9d 00 00
	00 00		 xor	 edi, DWORD PTR _SB5[ebx*4]
  00c1a	83 e6 3f	 and	 esi, 63			; 0000003fH
  00c1d	33 3c b5 00 00
	00 00		 xor	 edi, DWORD PTR _SB7[esi*4]
  00c24	8b 70 04	 mov	 esi, DWORD PTR [eax+4]
  00c27	33 cf		 xor	 ecx, edi
  00c29	33 f1		 xor	 esi, ecx
  00c2b	83 c0 04	 add	 eax, 4
  00c2e	8b de		 mov	 ebx, esi
  00c30	c1 eb 10	 shr	 ebx, 16			; 00000010H
  00c33	83 e3 3f	 and	 ebx, 63			; 0000003fH
  00c36	8b 2c 9d 00 00
	00 00		 mov	 ebp, DWORD PTR _SB4[ebx*4]
  00c3d	8b fe		 mov	 edi, esi
  00c3f	c1 ef 18	 shr	 edi, 24			; 00000018H
  00c42	83 e7 3f	 and	 edi, 63			; 0000003fH
  00c45	8b 3c bd 00 00
	00 00		 mov	 edi, DWORD PTR _SB2[edi*4]
  00c4c	33 fd		 xor	 edi, ebp
  00c4e	8b de		 mov	 ebx, esi
  00c50	c1 eb 08	 shr	 ebx, 8
  00c53	83 e3 3f	 and	 ebx, 63			; 0000003fH
  00c56	33 3c 9d 00 00
	00 00		 xor	 edi, DWORD PTR _SB6[ebx*4]
  00c5d	83 e6 3f	 and	 esi, 63			; 0000003fH
  00c60	33 3c b5 00 00
	00 00		 xor	 edi, DWORD PTR _SB8[esi*4]
  00c67	8b 58 04	 mov	 ebx, DWORD PTR [eax+4]
  00c6a	33 d7		 xor	 edx, edi
  00c6c	83 c0 04	 add	 eax, 4
  00c6f	8b f1		 mov	 esi, ecx
  00c71	c1 e6 1c	 shl	 esi, 28			; 0000001cH
  00c74	8b f9		 mov	 edi, ecx
  00c76	c1 ef 04	 shr	 edi, 4
  00c79	0b f7		 or	 esi, edi
  00c7b	33 f3		 xor	 esi, ebx
  00c7d	8b de		 mov	 ebx, esi
  00c7f	c1 eb 10	 shr	 ebx, 16			; 00000010H
  00c82	83 e3 3f	 and	 ebx, 63			; 0000003fH
  00c85	8b 2c 9d 00 00
	00 00		 mov	 ebp, DWORD PTR _SB3[ebx*4]
  00c8c	8b fe		 mov	 edi, esi
  00c8e	c1 ef 18	 shr	 edi, 24			; 00000018H
  00c91	83 e7 3f	 and	 edi, 63			; 0000003fH
  00c94	8b 3c bd 00 00
	00 00		 mov	 edi, DWORD PTR _SB1[edi*4]
  00c9b	8b de		 mov	 ebx, esi
  00c9d	c1 eb 08	 shr	 ebx, 8
  00ca0	33 fd		 xor	 edi, ebp
  00ca2	83 e3 3f	 and	 ebx, 63			; 0000003fH
  00ca5	8b 2c 9d 00 00
	00 00		 mov	 ebp, DWORD PTR _SB5[ebx*4]
  00cac	83 e6 3f	 and	 esi, 63			; 0000003fH
  00caf	8b 1c b5 00 00
	00 00		 mov	 ebx, DWORD PTR _SB7[esi*4]
  00cb6	8b 70 04	 mov	 esi, DWORD PTR [eax+4]
  00cb9	33 fd		 xor	 edi, ebp
  00cbb	33 fb		 xor	 edi, ebx
  00cbd	83 c0 04	 add	 eax, 4
  00cc0	33 d7		 xor	 edx, edi
  00cc2	33 f2		 xor	 esi, edx
  00cc4	8b fe		 mov	 edi, esi
  00cc6	c1 ef 18	 shr	 edi, 24			; 00000018H
  00cc9	8b de		 mov	 ebx, esi
  00ccb	c1 eb 10	 shr	 ebx, 16			; 00000010H
  00cce	83 c0 04	 add	 eax, 4
  00cd1	83 e7 3f	 and	 edi, 63			; 0000003fH
  00cd4	83 e3 3f	 and	 ebx, 63			; 0000003fH
  00cd7	8b 2c 9d 00 00
	00 00		 mov	 ebp, DWORD PTR _SB4[ebx*4]
  00cde	8b 3c bd 00 00
	00 00		 mov	 edi, DWORD PTR _SB2[edi*4]
  00ce5	33 fd		 xor	 edi, ebp
  00ce7	8b de		 mov	 ebx, esi
  00ce9	c1 eb 08	 shr	 ebx, 8
  00cec	83 e3 3f	 and	 ebx, 63			; 0000003fH
  00cef	33 3c 9d 00 00
	00 00		 xor	 edi, DWORD PTR _SB6[ebx*4]
  00cf6	83 e6 3f	 and	 esi, 63			; 0000003fH
  00cf9	33 3c b5 00 00
	00 00		 xor	 edi, DWORD PTR _SB8[esi*4]
  00d00	8b 18		 mov	 ebx, DWORD PTR [eax]
  00d02	33 cf		 xor	 ecx, edi
  00d04	8b f2		 mov	 esi, edx
  00d06	c1 e6 1c	 shl	 esi, 28			; 0000001cH
  00d09	8b fa		 mov	 edi, edx
  00d0b	c1 ef 04	 shr	 edi, 4
  00d0e	0b f7		 or	 esi, edi
  00d10	33 f3		 xor	 esi, ebx
  00d12	8b de		 mov	 ebx, esi
  00d14	c1 eb 10	 shr	 ebx, 16			; 00000010H
  00d17	83 e3 3f	 and	 ebx, 63			; 0000003fH
  00d1a	8b 2c 9d 00 00
	00 00		 mov	 ebp, DWORD PTR _SB3[ebx*4]
  00d21	8b fe		 mov	 edi, esi
  00d23	c1 ef 18	 shr	 edi, 24			; 00000018H
  00d26	83 e7 3f	 and	 edi, 63			; 0000003fH
  00d29	8b 3c bd 00 00
	00 00		 mov	 edi, DWORD PTR _SB1[edi*4]
  00d30	33 fd		 xor	 edi, ebp
  00d32	8b de		 mov	 ebx, esi
  00d34	c1 eb 08	 shr	 ebx, 8
  00d37	83 e3 3f	 and	 ebx, 63			; 0000003fH
  00d3a	33 3c 9d 00 00
	00 00		 xor	 edi, DWORD PTR _SB5[ebx*4]
  00d41	83 e6 3f	 and	 esi, 63			; 0000003fH
  00d44	8b 1c b5 00 00
	00 00		 mov	 ebx, DWORD PTR _SB7[esi*4]
  00d4b	8b 70 04	 mov	 esi, DWORD PTR [eax+4]
  00d4e	33 fb		 xor	 edi, ebx
  00d50	33 cf		 xor	 ecx, edi
  00d52	33 f1		 xor	 esi, ecx
  00d54	83 c0 04	 add	 eax, 4
  00d57	8b de		 mov	 ebx, esi
  00d59	c1 eb 10	 shr	 ebx, 16			; 00000010H
  00d5c	83 e3 3f	 and	 ebx, 63			; 0000003fH
  00d5f	8b 2c 9d 00 00
	00 00		 mov	 ebp, DWORD PTR _SB4[ebx*4]
  00d66	8b fe		 mov	 edi, esi
  00d68	c1 ef 18	 shr	 edi, 24			; 00000018H
  00d6b	83 e7 3f	 and	 edi, 63			; 0000003fH
  00d6e	8b 3c bd 00 00
	00 00		 mov	 edi, DWORD PTR _SB2[edi*4]
  00d75	33 fd		 xor	 edi, ebp
  00d77	8b de		 mov	 ebx, esi
  00d79	c1 eb 08	 shr	 ebx, 8
  00d7c	83 e3 3f	 and	 ebx, 63			; 0000003fH
  00d7f	33 3c 9d 00 00
	00 00		 xor	 edi, DWORD PTR _SB6[ebx*4]
  00d86	83 e6 3f	 and	 esi, 63			; 0000003fH
  00d89	33 3c b5 00 00
	00 00		 xor	 edi, DWORD PTR _SB8[esi*4]
  00d90	8b 58 04	 mov	 ebx, DWORD PTR [eax+4]
  00d93	33 d7		 xor	 edx, edi
  00d95	83 c0 04	 add	 eax, 4
  00d98	8b f1		 mov	 esi, ecx
  00d9a	c1 e6 1c	 shl	 esi, 28			; 0000001cH
  00d9d	8b f9		 mov	 edi, ecx
  00d9f	c1 ef 04	 shr	 edi, 4
  00da2	0b f7		 or	 esi, edi
  00da4	33 f3		 xor	 esi, ebx
  00da6	8b de		 mov	 ebx, esi
  00da8	c1 eb 10	 shr	 ebx, 16			; 00000010H
  00dab	83 e3 3f	 and	 ebx, 63			; 0000003fH
  00dae	8b 2c 9d 00 00
	00 00		 mov	 ebp, DWORD PTR _SB3[ebx*4]
  00db5	8b fe		 mov	 edi, esi
  00db7	c1 ef 18	 shr	 edi, 24			; 00000018H
  00dba	83 e7 3f	 and	 edi, 63			; 0000003fH
  00dbd	8b 3c bd 00 00
	00 00		 mov	 edi, DWORD PTR _SB1[edi*4]
  00dc4	8b de		 mov	 ebx, esi
  00dc6	c1 eb 08	 shr	 ebx, 8
  00dc9	83 e3 3f	 and	 ebx, 63			; 0000003fH
  00dcc	33 fd		 xor	 edi, ebp
  00dce	8b 2c 9d 00 00
	00 00		 mov	 ebp, DWORD PTR _SB5[ebx*4]
  00dd5	83 c0 04	 add	 eax, 4
  00dd8	33 fd		 xor	 edi, ebp
  00dda	83 e6 3f	 and	 esi, 63			; 0000003fH
  00ddd	33 3c b5 00 00
	00 00		 xor	 edi, DWORD PTR _SB7[esi*4]
  00de4	8b 30		 mov	 esi, DWORD PTR [eax]
  00de6	33 d7		 xor	 edx, edi
  00de8	33 f2		 xor	 esi, edx
  00dea	8b de		 mov	 ebx, esi
  00dec	c1 eb 10	 shr	 ebx, 16			; 00000010H
  00def	83 e3 3f	 and	 ebx, 63			; 0000003fH
  00df2	8b 2c 9d 00 00
	00 00		 mov	 ebp, DWORD PTR _SB4[ebx*4]
  00df9	8b fe		 mov	 edi, esi
  00dfb	c1 ef 18	 shr	 edi, 24			; 00000018H
  00dfe	83 e7 3f	 and	 edi, 63			; 0000003fH
  00e01	8b 3c bd 00 00
	00 00		 mov	 edi, DWORD PTR _SB2[edi*4]
  00e08	33 fd		 xor	 edi, ebp
  00e0a	8b de		 mov	 ebx, esi
  00e0c	c1 eb 08	 shr	 ebx, 8
  00e0f	83 e3 3f	 and	 ebx, 63			; 0000003fH
  00e12	33 3c 9d 00 00
	00 00		 xor	 edi, DWORD PTR _SB6[ebx*4]
  00e19	83 e6 3f	 and	 esi, 63			; 0000003fH
  00e1c	33 3c b5 00 00
	00 00		 xor	 edi, DWORD PTR _SB8[esi*4]
  00e23	8b 58 04	 mov	 ebx, DWORD PTR [eax+4]
  00e26	33 cf		 xor	 ecx, edi
  00e28	83 c0 04	 add	 eax, 4
  00e2b	8b f2		 mov	 esi, edx
  00e2d	c1 e6 1c	 shl	 esi, 28			; 0000001cH
  00e30	8b fa		 mov	 edi, edx
  00e32	c1 ef 04	 shr	 edi, 4
  00e35	0b f7		 or	 esi, edi
  00e37	33 f3		 xor	 esi, ebx
  00e39	8b de		 mov	 ebx, esi
  00e3b	c1 eb 10	 shr	 ebx, 16			; 00000010H
  00e3e	83 e3 3f	 and	 ebx, 63			; 0000003fH
  00e41	8b 2c 9d 00 00
	00 00		 mov	 ebp, DWORD PTR _SB3[ebx*4]
  00e48	8b fe		 mov	 edi, esi
  00e4a	c1 ef 18	 shr	 edi, 24			; 00000018H
  00e4d	83 e7 3f	 and	 edi, 63			; 0000003fH
  00e50	8b 3c bd 00 00
	00 00		 mov	 edi, DWORD PTR _SB1[edi*4]
  00e57	33 fd		 xor	 edi, ebp
  00e59	8b de		 mov	 ebx, esi
  00e5b	c1 eb 08	 shr	 ebx, 8
  00e5e	83 e3 3f	 and	 ebx, 63			; 0000003fH
  00e61	33 3c 9d 00 00
	00 00		 xor	 edi, DWORD PTR _SB5[ebx*4]
  00e68	83 e6 3f	 and	 esi, 63			; 0000003fH
  00e6b	8b 1c b5 00 00
	00 00		 mov	 ebx, DWORD PTR _SB7[esi*4]
  00e72	8b 70 04	 mov	 esi, DWORD PTR [eax+4]
  00e75	33 fb		 xor	 edi, ebx
  00e77	33 cf		 xor	 ecx, edi
  00e79	33 f1		 xor	 esi, ecx
  00e7b	83 c0 04	 add	 eax, 4
  00e7e	8b de		 mov	 ebx, esi
  00e80	c1 eb 10	 shr	 ebx, 16			; 00000010H
  00e83	83 e3 3f	 and	 ebx, 63			; 0000003fH
  00e86	8b 2c 9d 00 00
	00 00		 mov	 ebp, DWORD PTR _SB4[ebx*4]
  00e8d	8b fe		 mov	 edi, esi
  00e8f	c1 ef 18	 shr	 edi, 24			; 00000018H
  00e92	83 e7 3f	 and	 edi, 63			; 0000003fH
  00e95	8b 3c bd 00 00
	00 00		 mov	 edi, DWORD PTR _SB2[edi*4]
  00e9c	8b de		 mov	 ebx, esi
  00e9e	33 fd		 xor	 edi, ebp
  00ea0	c1 eb 08	 shr	 ebx, 8
  00ea3	83 e3 3f	 and	 ebx, 63			; 0000003fH
  00ea6	8b 2c 9d 00 00
	00 00		 mov	 ebp, DWORD PTR _SB6[ebx*4]
  00ead	83 e6 3f	 and	 esi, 63			; 0000003fH
  00eb0	8b 1c b5 00 00
	00 00		 mov	 ebx, DWORD PTR _SB8[esi*4]
  00eb7	33 fd		 xor	 edi, ebp
  00eb9	33 fb		 xor	 edi, ebx
  00ebb	8b 58 04	 mov	 ebx, DWORD PTR [eax+4]
  00ebe	33 d7		 xor	 edx, edi
  00ec0	8b f1		 mov	 esi, ecx
  00ec2	c1 e6 1c	 shl	 esi, 28			; 0000001cH
  00ec5	8b f9		 mov	 edi, ecx
  00ec7	c1 ef 04	 shr	 edi, 4
  00eca	83 c0 04	 add	 eax, 4
  00ecd	0b f7		 or	 esi, edi
  00ecf	33 f3		 xor	 esi, ebx
  00ed1	83 c0 04	 add	 eax, 4
  00ed4	8b fe		 mov	 edi, esi
  00ed6	c1 ef 18	 shr	 edi, 24			; 00000018H
  00ed9	83 e7 3f	 and	 edi, 63			; 0000003fH
  00edc	8b 3c bd 00 00
	00 00		 mov	 edi, DWORD PTR _SB1[edi*4]
  00ee3	8b de		 mov	 ebx, esi
  00ee5	c1 eb 10	 shr	 ebx, 16			; 00000010H
  00ee8	83 e3 3f	 and	 ebx, 63			; 0000003fH
  00eeb	33 3c 9d 00 00
	00 00		 xor	 edi, DWORD PTR _SB3[ebx*4]
  00ef2	8b de		 mov	 ebx, esi
  00ef4	c1 eb 08	 shr	 ebx, 8
  00ef7	83 e3 3f	 and	 ebx, 63			; 0000003fH
  00efa	33 3c 9d 00 00
	00 00		 xor	 edi, DWORD PTR _SB5[ebx*4]
  00f01	83 e6 3f	 and	 esi, 63			; 0000003fH
  00f04	33 3c b5 00 00
	00 00		 xor	 edi, DWORD PTR _SB7[esi*4]
  00f0b	8b 30		 mov	 esi, DWORD PTR [eax]
  00f0d	33 d7		 xor	 edx, edi
  00f0f	33 f2		 xor	 esi, edx
  00f11	8b de		 mov	 ebx, esi
  00f13	c1 eb 10	 shr	 ebx, 16			; 00000010H
  00f16	83 e3 3f	 and	 ebx, 63			; 0000003fH
  00f19	8b 2c 9d 00 00
	00 00		 mov	 ebp, DWORD PTR _SB4[ebx*4]
  00f20	8b fe		 mov	 edi, esi
  00f22	c1 ef 18	 shr	 edi, 24			; 00000018H
  00f25	83 e7 3f	 and	 edi, 63			; 0000003fH
  00f28	8b 3c bd 00 00
	00 00		 mov	 edi, DWORD PTR _SB2[edi*4]
  00f2f	33 fd		 xor	 edi, ebp
  00f31	8b de		 mov	 ebx, esi
  00f33	c1 eb 08	 shr	 ebx, 8
  00f36	83 e3 3f	 and	 ebx, 63			; 0000003fH
  00f39	33 3c 9d 00 00
	00 00		 xor	 edi, DWORD PTR _SB6[ebx*4]
  00f40	83 e6 3f	 and	 esi, 63			; 0000003fH
  00f43	33 3c b5 00 00
	00 00		 xor	 edi, DWORD PTR _SB8[esi*4]
  00f4a	8b 58 04	 mov	 ebx, DWORD PTR [eax+4]
  00f4d	33 cf		 xor	 ecx, edi
  00f4f	83 c0 04	 add	 eax, 4
  00f52	8b f2		 mov	 esi, edx
  00f54	c1 e6 1c	 shl	 esi, 28			; 0000001cH
  00f57	8b fa		 mov	 edi, edx
  00f59	c1 ef 04	 shr	 edi, 4
  00f5c	0b f7		 or	 esi, edi
  00f5e	33 f3		 xor	 esi, ebx
  00f60	8b de		 mov	 ebx, esi
  00f62	c1 eb 10	 shr	 ebx, 16			; 00000010H
  00f65	83 e3 3f	 and	 ebx, 63			; 0000003fH
  00f68	8b 2c 9d 00 00
	00 00		 mov	 ebp, DWORD PTR _SB3[ebx*4]
  00f6f	8b fe		 mov	 edi, esi
  00f71	c1 ef 18	 shr	 edi, 24			; 00000018H
  00f74	83 e7 3f	 and	 edi, 63			; 0000003fH
  00f77	8b 3c bd 00 00
	00 00		 mov	 edi, DWORD PTR _SB1[edi*4]
  00f7e	33 fd		 xor	 edi, ebp
  00f80	8b de		 mov	 ebx, esi
  00f82	c1 eb 08	 shr	 ebx, 8
  00f85	83 e3 3f	 and	 ebx, 63			; 0000003fH
  00f88	33 3c 9d 00 00
	00 00		 xor	 edi, DWORD PTR _SB5[ebx*4]
  00f8f	83 e6 3f	 and	 esi, 63			; 0000003fH
  00f92	8b 1c b5 00 00
	00 00		 mov	 ebx, DWORD PTR _SB7[esi*4]
  00f99	8b 70 04	 mov	 esi, DWORD PTR [eax+4]
  00f9c	33 fb		 xor	 edi, ebx
  00f9e	33 cf		 xor	 ecx, edi
  00fa0	83 c0 04	 add	 eax, 4
  00fa3	33 f1		 xor	 esi, ecx
  00fa5	8b de		 mov	 ebx, esi
  00fa7	c1 eb 10	 shr	 ebx, 16			; 00000010H
  00faa	83 e3 3f	 and	 ebx, 63			; 0000003fH
  00fad	8b 2c 9d 00 00
	00 00		 mov	 ebp, DWORD PTR _SB4[ebx*4]
  00fb4	8b fe		 mov	 edi, esi
  00fb6	c1 ef 18	 shr	 edi, 24			; 00000018H
  00fb9	83 e7 3f	 and	 edi, 63			; 0000003fH
  00fbc	8b 3c bd 00 00
	00 00		 mov	 edi, DWORD PTR _SB2[edi*4]
  00fc3	8b de		 mov	 ebx, esi
  00fc5	c1 eb 08	 shr	 ebx, 8
  00fc8	83 e3 3f	 and	 ebx, 63			; 0000003fH
  00fcb	33 fd		 xor	 edi, ebp
  00fcd	8b 2c 9d 00 00
	00 00		 mov	 ebp, DWORD PTR _SB6[ebx*4]
  00fd4	83 c0 04	 add	 eax, 4
  00fd7	33 fd		 xor	 edi, ebp
  00fd9	83 e6 3f	 and	 esi, 63			; 0000003fH
  00fdc	33 3c b5 00 00
	00 00		 xor	 edi, DWORD PTR _SB8[esi*4]
  00fe3	8b 18		 mov	 ebx, DWORD PTR [eax]
  00fe5	33 d7		 xor	 edx, edi
  00fe7	8b f1		 mov	 esi, ecx
  00fe9	c1 e6 1c	 shl	 esi, 28			; 0000001cH
  00fec	8b f9		 mov	 edi, ecx
  00fee	c1 ef 04	 shr	 edi, 4
  00ff1	0b f7		 or	 esi, edi
  00ff3	33 f3		 xor	 esi, ebx
  00ff5	8b de		 mov	 ebx, esi
  00ff7	c1 eb 10	 shr	 ebx, 16			; 00000010H
  00ffa	83 e3 3f	 and	 ebx, 63			; 0000003fH
  00ffd	8b 2c 9d 00 00
	00 00		 mov	 ebp, DWORD PTR _SB3[ebx*4]
  01004	8b fe		 mov	 edi, esi
  01006	c1 ef 18	 shr	 edi, 24			; 00000018H
  01009	83 e7 3f	 and	 edi, 63			; 0000003fH
  0100c	8b 3c bd 00 00
	00 00		 mov	 edi, DWORD PTR _SB1[edi*4]
  01013	33 fd		 xor	 edi, ebp
  01015	8b de		 mov	 ebx, esi
  01017	c1 eb 08	 shr	 ebx, 8
  0101a	83 e3 3f	 and	 ebx, 63			; 0000003fH
  0101d	33 3c 9d 00 00
	00 00		 xor	 edi, DWORD PTR _SB5[ebx*4]
  01024	83 e6 3f	 and	 esi, 63			; 0000003fH
  01027	33 3c b5 00 00
	00 00		 xor	 edi, DWORD PTR _SB7[esi*4]
  0102e	8b 70 04	 mov	 esi, DWORD PTR [eax+4]
  01031	33 d7		 xor	 edx, edi
  01033	33 f2		 xor	 esi, edx
  01035	83 c0 04	 add	 eax, 4
  01038	8b de		 mov	 ebx, esi
  0103a	c1 eb 10	 shr	 ebx, 16			; 00000010H
  0103d	83 e3 3f	 and	 ebx, 63			; 0000003fH
  01040	8b 2c 9d 00 00
	00 00		 mov	 ebp, DWORD PTR _SB4[ebx*4]
  01047	8b fe		 mov	 edi, esi
  01049	c1 ef 18	 shr	 edi, 24			; 00000018H
  0104c	83 e7 3f	 and	 edi, 63			; 0000003fH
  0104f	8b 3c bd 00 00
	00 00		 mov	 edi, DWORD PTR _SB2[edi*4]
  01056	33 fd		 xor	 edi, ebp
  01058	8b de		 mov	 ebx, esi
  0105a	c1 eb 08	 shr	 ebx, 8
  0105d	83 e3 3f	 and	 ebx, 63			; 0000003fH
  01060	33 3c 9d 00 00
	00 00		 xor	 edi, DWORD PTR _SB6[ebx*4]
  01067	83 e6 3f	 and	 esi, 63			; 0000003fH
  0106a	33 3c b5 00 00
	00 00		 xor	 edi, DWORD PTR _SB8[esi*4]
  01071	8b 58 04	 mov	 ebx, DWORD PTR [eax+4]
  01074	33 cf		 xor	 ecx, edi
  01076	83 c0 04	 add	 eax, 4
  01079	8b f2		 mov	 esi, edx
  0107b	c1 e6 1c	 shl	 esi, 28			; 0000001cH
  0107e	8b fa		 mov	 edi, edx
  01080	c1 ef 04	 shr	 edi, 4
  01083	0b f7		 or	 esi, edi
  01085	33 f3		 xor	 esi, ebx
  01087	8b de		 mov	 ebx, esi
  01089	c1 eb 10	 shr	 ebx, 16			; 00000010H
  0108c	83 e3 3f	 and	 ebx, 63			; 0000003fH
  0108f	8b 2c 9d 00 00
	00 00		 mov	 ebp, DWORD PTR _SB3[ebx*4]
  01096	8b fe		 mov	 edi, esi
  01098	c1 ef 18	 shr	 edi, 24			; 00000018H
  0109b	83 e7 3f	 and	 edi, 63			; 0000003fH
  0109e	8b 3c bd 00 00
	00 00		 mov	 edi, DWORD PTR _SB1[edi*4]
  010a5	8b de		 mov	 ebx, esi
  010a7	c1 eb 08	 shr	 ebx, 8
  010aa	33 fd		 xor	 edi, ebp
  010ac	83 e3 3f	 and	 ebx, 63			; 0000003fH
  010af	8b 2c 9d 00 00
	00 00		 mov	 ebp, DWORD PTR _SB5[ebx*4]
  010b6	83 e6 3f	 and	 esi, 63			; 0000003fH
  010b9	8b 1c b5 00 00
	00 00		 mov	 ebx, DWORD PTR _SB7[esi*4]
  010c0	8b 70 04	 mov	 esi, DWORD PTR [eax+4]
  010c3	33 fd		 xor	 edi, ebp
  010c5	33 fb		 xor	 edi, ebx
  010c7	83 c0 04	 add	 eax, 4
  010ca	33 cf		 xor	 ecx, edi
  010cc	33 f1		 xor	 esi, ecx
  010ce	83 c0 04	 add	 eax, 4
  010d1	8b fe		 mov	 edi, esi
  010d3	c1 ef 18	 shr	 edi, 24			; 00000018H
  010d6	83 e7 3f	 and	 edi, 63			; 0000003fH
  010d9	8b 3c bd 00 00
	00 00		 mov	 edi, DWORD PTR _SB2[edi*4]
  010e0	8b de		 mov	 ebx, esi
  010e2	c1 eb 10	 shr	 ebx, 16			; 00000010H
  010e5	83 e3 3f	 and	 ebx, 63			; 0000003fH
  010e8	33 3c 9d 00 00
	00 00		 xor	 edi, DWORD PTR _SB4[ebx*4]
  010ef	8b de		 mov	 ebx, esi
  010f1	c1 eb 08	 shr	 ebx, 8
  010f4	83 e3 3f	 and	 ebx, 63			; 0000003fH
  010f7	33 3c 9d 00 00
	00 00		 xor	 edi, DWORD PTR _SB6[ebx*4]
  010fe	83 e6 3f	 and	 esi, 63			; 0000003fH
  01101	33 3c b5 00 00
	00 00		 xor	 edi, DWORD PTR _SB8[esi*4]
  01108	8b 18		 mov	 ebx, DWORD PTR [eax]
  0110a	33 d7		 xor	 edx, edi
  0110c	8b f1		 mov	 esi, ecx
  0110e	c1 e6 1c	 shl	 esi, 28			; 0000001cH
  01111	8b f9		 mov	 edi, ecx
  01113	c1 ef 04	 shr	 edi, 4
  01116	0b f7		 or	 esi, edi
  01118	33 f3		 xor	 esi, ebx
  0111a	8b de		 mov	 ebx, esi
  0111c	c1 eb 10	 shr	 ebx, 16			; 00000010H
  0111f	83 e3 3f	 and	 ebx, 63			; 0000003fH
  01122	8b 2c 9d 00 00
	00 00		 mov	 ebp, DWORD PTR _SB3[ebx*4]
  01129	8b fe		 mov	 edi, esi
  0112b	c1 ef 18	 shr	 edi, 24			; 00000018H
  0112e	83 e7 3f	 and	 edi, 63			; 0000003fH
  01131	8b 3c bd 00 00
	00 00		 mov	 edi, DWORD PTR _SB1[edi*4]
  01138	33 fd		 xor	 edi, ebp
  0113a	8b de		 mov	 ebx, esi
  0113c	c1 eb 08	 shr	 ebx, 8
  0113f	83 e3 3f	 and	 ebx, 63			; 0000003fH
  01142	33 3c 9d 00 00
	00 00		 xor	 edi, DWORD PTR _SB5[ebx*4]
  01149	83 e6 3f	 and	 esi, 63			; 0000003fH
  0114c	8b 1c b5 00 00
	00 00		 mov	 ebx, DWORD PTR _SB7[esi*4]
  01153	8b 70 04	 mov	 esi, DWORD PTR [eax+4]
  01156	33 fb		 xor	 edi, ebx
  01158	33 d7		 xor	 edx, edi
  0115a	33 f2		 xor	 esi, edx
  0115c	83 c0 04	 add	 eax, 4
  0115f	8b de		 mov	 ebx, esi
  01161	c1 eb 10	 shr	 ebx, 16			; 00000010H
  01164	83 e3 3f	 and	 ebx, 63			; 0000003fH
  01167	8b 2c 9d 00 00
	00 00		 mov	 ebp, DWORD PTR _SB4[ebx*4]
  0116e	8b fe		 mov	 edi, esi
  01170	c1 ef 18	 shr	 edi, 24			; 00000018H
  01173	83 e7 3f	 and	 edi, 63			; 0000003fH
  01176	8b 3c bd 00 00
	00 00		 mov	 edi, DWORD PTR _SB2[edi*4]
  0117d	33 fd		 xor	 edi, ebp
  0117f	8b de		 mov	 ebx, esi
  01181	c1 eb 08	 shr	 ebx, 8
  01184	83 e3 3f	 and	 ebx, 63			; 0000003fH
  01187	33 3c 9d 00 00
	00 00		 xor	 edi, DWORD PTR _SB6[ebx*4]
  0118e	83 e6 3f	 and	 esi, 63			; 0000003fH
  01191	33 3c b5 00 00
	00 00		 xor	 edi, DWORD PTR _SB8[esi*4]
  01198	8b 58 04	 mov	 ebx, DWORD PTR [eax+4]
  0119b	33 cf		 xor	 ecx, edi
  0119d	83 c0 04	 add	 eax, 4
  011a0	8b f2		 mov	 esi, edx
  011a2	c1 e6 1c	 shl	 esi, 28			; 0000001cH
  011a5	8b fa		 mov	 edi, edx
  011a7	c1 ef 04	 shr	 edi, 4
  011aa	0b f7		 or	 esi, edi
  011ac	33 f3		 xor	 esi, ebx
  011ae	8b fe		 mov	 edi, esi
  011b0	c1 ef 18	 shr	 edi, 24			; 00000018H
  011b3	8b de		 mov	 ebx, esi
  011b5	c1 eb 10	 shr	 ebx, 16			; 00000010H
  011b8	83 e7 3f	 and	 edi, 63			; 0000003fH
  011bb	8b 3c bd 00 00
	00 00		 mov	 edi, DWORD PTR _SB1[edi*4]
  011c2	83 e3 3f	 and	 ebx, 63			; 0000003fH
  011c5	8b 2c 9d 00 00
	00 00		 mov	 ebp, DWORD PTR _SB3[ebx*4]
  011cc	83 c0 04	 add	 eax, 4
  011cf	33 fd		 xor	 edi, ebp
  011d1	8b de		 mov	 ebx, esi
  011d3	c1 eb 08	 shr	 ebx, 8
  011d6	83 e3 3f	 and	 ebx, 63			; 0000003fH
  011d9	33 3c 9d 00 00
	00 00		 xor	 edi, DWORD PTR _SB5[ebx*4]
  011e0	83 e6 3f	 and	 esi, 63			; 0000003fH
  011e3	33 3c b5 00 00
	00 00		 xor	 edi, DWORD PTR _SB7[esi*4]
  011ea	8b 30		 mov	 esi, DWORD PTR [eax]
  011ec	33 cf		 xor	 ecx, edi
  011ee	33 f1		 xor	 esi, ecx
  011f0	8b de		 mov	 ebx, esi
  011f2	c1 eb 10	 shr	 ebx, 16			; 00000010H
  011f5	83 e3 3f	 and	 ebx, 63			; 0000003fH
  011f8	8b 2c 9d 00 00
	00 00		 mov	 ebp, DWORD PTR _SB4[ebx*4]
  011ff	8b fe		 mov	 edi, esi
  01201	c1 ef 18	 shr	 edi, 24			; 00000018H
  01204	83 e7 3f	 and	 edi, 63			; 0000003fH
  01207	8b 3c bd 00 00
	00 00		 mov	 edi, DWORD PTR _SB2[edi*4]
  0120e	33 fd		 xor	 edi, ebp
  01210	8b de		 mov	 ebx, esi
  01212	c1 eb 08	 shr	 ebx, 8
  01215	83 e3 3f	 and	 ebx, 63			; 0000003fH
  01218	33 3c 9d 00 00
	00 00		 xor	 edi, DWORD PTR _SB6[ebx*4]
  0121f	83 e6 3f	 and	 esi, 63			; 0000003fH
  01222	33 3c b5 00 00
	00 00		 xor	 edi, DWORD PTR _SB8[esi*4]
  01229	8b 58 04	 mov	 ebx, DWORD PTR [eax+4]
  0122c	33 d7		 xor	 edx, edi
  0122e	83 c0 04	 add	 eax, 4
  01231	8b f1		 mov	 esi, ecx
  01233	c1 e6 1c	 shl	 esi, 28			; 0000001cH
  01236	8b f9		 mov	 edi, ecx
  01238	c1 ef 04	 shr	 edi, 4
  0123b	0b f7		 or	 esi, edi
  0123d	33 f3		 xor	 esi, ebx
  0123f	8b de		 mov	 ebx, esi
  01241	c1 eb 10	 shr	 ebx, 16			; 00000010H
  01244	83 e3 3f	 and	 ebx, 63			; 0000003fH
  01247	8b 2c 9d 00 00
	00 00		 mov	 ebp, DWORD PTR _SB3[ebx*4]
  0124e	8b fe		 mov	 edi, esi
  01250	c1 ef 18	 shr	 edi, 24			; 00000018H
  01253	83 e7 3f	 and	 edi, 63			; 0000003fH
  01256	8b 3c bd 00 00
	00 00		 mov	 edi, DWORD PTR _SB1[edi*4]
  0125d	33 fd		 xor	 edi, ebp
  0125f	8b de		 mov	 ebx, esi
  01261	c1 eb 08	 shr	 ebx, 8
  01264	83 e3 3f	 and	 ebx, 63			; 0000003fH
  01267	33 3c 9d 00 00
	00 00		 xor	 edi, DWORD PTR _SB5[ebx*4]
  0126e	83 e6 3f	 and	 esi, 63			; 0000003fH
  01271	8b 1c b5 00 00
	00 00		 mov	 ebx, DWORD PTR _SB7[esi*4]
  01278	8b 70 04	 mov	 esi, DWORD PTR [eax+4]
  0127b	33 fb		 xor	 edi, ebx
  0127d	33 d7		 xor	 edx, edi
  0127f	83 c0 04	 add	 eax, 4
  01282	33 f2		 xor	 esi, edx
  01284	8b de		 mov	 ebx, esi
  01286	c1 eb 10	 shr	 ebx, 16			; 00000010H
  01289	83 e3 3f	 and	 ebx, 63			; 0000003fH
  0128c	8b 2c 9d 00 00
	00 00		 mov	 ebp, DWORD PTR _SB4[ebx*4]
  01293	8b fe		 mov	 edi, esi
  01295	c1 ef 18	 shr	 edi, 24			; 00000018H
  01298	83 e7 3f	 and	 edi, 63			; 0000003fH
  0129b	8b 3c bd 00 00
	00 00		 mov	 edi, DWORD PTR _SB2[edi*4]
  012a2	8b de		 mov	 ebx, esi
  012a4	33 fd		 xor	 edi, ebp
  012a6	c1 eb 08	 shr	 ebx, 8
  012a9	83 e3 3f	 and	 ebx, 63			; 0000003fH
  012ac	33 3c 9d 00 00
	00 00		 xor	 edi, DWORD PTR _SB6[ebx*4]
  012b3	83 e6 3f	 and	 esi, 63			; 0000003fH
  012b6	33 3c b5 00 00
	00 00		 xor	 edi, DWORD PTR _SB8[esi*4]
  012bd	33 cf		 xor	 ecx, edi
  012bf	8b fa		 mov	 edi, edx
  012c1	8b f2		 mov	 esi, edx
  012c3	83 c0 04	 add	 eax, 4
  012c6	c1 e7 1c	 shl	 edi, 28			; 0000001cH
  012c9	c1 ee 04	 shr	 esi, 4
  012cc	0b fe		 or	 edi, esi
  012ce	8b 30		 mov	 esi, DWORD PTR [eax]
  012d0	33 f7		 xor	 esi, edi
  012d2	8b de		 mov	 ebx, esi
  012d4	c1 eb 18	 shr	 ebx, 24			; 00000018H
  012d7	83 e3 3f	 and	 ebx, 63			; 0000003fH
  012da	8b 1c 9d 00 00
	00 00		 mov	 ebx, DWORD PTR _SB1[ebx*4]
  012e1	8b ee		 mov	 ebp, esi
  012e3	c1 ed 10	 shr	 ebp, 16			; 00000010H
  012e6	83 e5 3f	 and	 ebp, 63			; 0000003fH
  012e9	33 1c ad 00 00
	00 00		 xor	 ebx, DWORD PTR _SB3[ebp*4]
  012f0	8b ee		 mov	 ebp, esi
  012f2	c1 ed 08	 shr	 ebp, 8
  012f5	83 e5 3f	 and	 ebp, 63			; 0000003fH
  012f8	33 1c ad 00 00
	00 00		 xor	 ebx, DWORD PTR _SB5[ebp*4]
  012ff	83 e6 3f	 and	 esi, 63			; 0000003fH
  01302	8b 2c b5 00 00
	00 00		 mov	 ebp, DWORD PTR _SB7[esi*4]
  01309	8b 70 04	 mov	 esi, DWORD PTR [eax+4]
  0130c	33 dd		 xor	 ebx, ebp
  0130e	33 cb		 xor	 ecx, ebx
  01310	33 f2		 xor	 esi, edx
  01312	83 c0 04	 add	 eax, 4
  01315	8b de		 mov	 ebx, esi
  01317	c1 eb 18	 shr	 ebx, 24			; 00000018H
  0131a	83 e3 3f	 and	 ebx, 63			; 0000003fH
  0131d	8b 1c 9d 00 00
	00 00		 mov	 ebx, DWORD PTR _SB2[ebx*4]
  01324	8b ee		 mov	 ebp, esi
  01326	c1 ed 10	 shr	 ebp, 16			; 00000010H
  01329	83 e5 3f	 and	 ebp, 63			; 0000003fH
  0132c	33 1c ad 00 00
	00 00		 xor	 ebx, DWORD PTR _SB4[ebp*4]
  01333	8b ee		 mov	 ebp, esi
  01335	c1 ed 08	 shr	 ebp, 8
  01338	83 e5 3f	 and	 ebp, 63			; 0000003fH
  0133b	33 1c ad 00 00
	00 00		 xor	 ebx, DWORD PTR _SB6[ebp*4]
  01342	83 e6 3f	 and	 esi, 63			; 0000003fH
  01345	8b 2c b5 00 00
	00 00		 mov	 ebp, DWORD PTR _SB8[esi*4]
  0134c	8b 70 04	 mov	 esi, DWORD PTR [eax+4]
  0134f	33 dd		 xor	 ebx, ebp
  01351	33 f7		 xor	 esi, edi
  01353	33 cb		 xor	 ecx, ebx
  01355	83 c0 04	 add	 eax, 4
  01358	8b de		 mov	 ebx, esi
  0135a	c1 eb 10	 shr	 ebx, 16			; 00000010H
  0135d	83 e3 3f	 and	 ebx, 63			; 0000003fH
  01360	8b 2c 9d 00 00
	00 00		 mov	 ebp, DWORD PTR _SB3[ebx*4]
  01367	8b fe		 mov	 edi, esi
  01369	c1 ef 18	 shr	 edi, 24			; 00000018H
  0136c	83 e7 3f	 and	 edi, 63			; 0000003fH
  0136f	8b 3c bd 00 00
	00 00		 mov	 edi, DWORD PTR _SB1[edi*4]
  01376	33 fd		 xor	 edi, ebp
  01378	8b de		 mov	 ebx, esi
  0137a	c1 eb 08	 shr	 ebx, 8
  0137d	83 e3 3f	 and	 ebx, 63			; 0000003fH
  01380	33 3c 9d 00 00
	00 00		 xor	 edi, DWORD PTR _SB5[ebx*4]
  01387	83 e6 3f	 and	 esi, 63			; 0000003fH
  0138a	8b 1c b5 00 00
	00 00		 mov	 ebx, DWORD PTR _SB7[esi*4]
  01391	8b 70 04	 mov	 esi, DWORD PTR [eax+4]
  01394	33 fb		 xor	 edi, ebx
  01396	33 cf		 xor	 ecx, edi
  01398	83 c0 04	 add	 eax, 4
  0139b	33 f1		 xor	 esi, ecx
  0139d	8b de		 mov	 ebx, esi
  0139f	c1 eb 10	 shr	 ebx, 16			; 00000010H
  013a2	83 e3 3f	 and	 ebx, 63			; 0000003fH
  013a5	8b 2c 9d 00 00
	00 00		 mov	 ebp, DWORD PTR _SB4[ebx*4]
  013ac	8b fe		 mov	 edi, esi
  013ae	c1 ef 18	 shr	 edi, 24			; 00000018H
  013b1	83 e7 3f	 and	 edi, 63			; 0000003fH
  013b4	8b 3c bd 00 00
	00 00		 mov	 edi, DWORD PTR _SB2[edi*4]
  013bb	8b de		 mov	 ebx, esi
  013bd	c1 eb 08	 shr	 ebx, 8
  013c0	33 fd		 xor	 edi, ebp
  013c2	83 e3 3f	 and	 ebx, 63			; 0000003fH
  013c5	8b 2c 9d 00 00
	00 00		 mov	 ebp, DWORD PTR _SB6[ebx*4]
  013cc	83 e6 3f	 and	 esi, 63			; 0000003fH
  013cf	8b 1c b5 00 00
	00 00		 mov	 ebx, DWORD PTR _SB8[esi*4]
  013d6	33 fd		 xor	 edi, ebp
  013d8	33 fb		 xor	 edi, ebx
  013da	83 c0 04	 add	 eax, 4
  013dd	33 d7		 xor	 edx, edi
  013df	8b 18		 mov	 ebx, DWORD PTR [eax]
  013e1	8b f1		 mov	 esi, ecx
  013e3	c1 e6 1c	 shl	 esi, 28			; 0000001cH
  013e6	8b f9		 mov	 edi, ecx
  013e8	c1 ef 04	 shr	 edi, 4
  013eb	0b f7		 or	 esi, edi
  013ed	33 f3		 xor	 esi, ebx
  013ef	8b de		 mov	 ebx, esi
  013f1	c1 eb 10	 shr	 ebx, 16			; 00000010H
  013f4	83 e3 3f	 and	 ebx, 63			; 0000003fH
  013f7	8b 2c 9d 00 00
	00 00		 mov	 ebp, DWORD PTR _SB3[ebx*4]
  013fe	8b fe		 mov	 edi, esi
  01400	c1 ef 18	 shr	 edi, 24			; 00000018H
  01403	83 e7 3f	 and	 edi, 63			; 0000003fH
  01406	8b 3c bd 00 00
	00 00		 mov	 edi, DWORD PTR _SB1[edi*4]
  0140d	33 fd		 xor	 edi, ebp
  0140f	8b de		 mov	 ebx, esi
  01411	c1 eb 08	 shr	 ebx, 8
  01414	83 e3 3f	 and	 ebx, 63			; 0000003fH
  01417	33 3c 9d 00 00
	00 00		 xor	 edi, DWORD PTR _SB5[ebx*4]
  0141e	83 e6 3f	 and	 esi, 63			; 0000003fH
  01421	33 3c b5 00 00
	00 00		 xor	 edi, DWORD PTR _SB7[esi*4]
  01428	8b 70 04	 mov	 esi, DWORD PTR [eax+4]
  0142b	33 d7		 xor	 edx, edi
  0142d	33 f2		 xor	 esi, edx
  0142f	83 c0 04	 add	 eax, 4
  01432	8b de		 mov	 ebx, esi
  01434	c1 eb 10	 shr	 ebx, 16			; 00000010H
  01437	83 e3 3f	 and	 ebx, 63			; 0000003fH
  0143a	8b 2c 9d 00 00
	00 00		 mov	 ebp, DWORD PTR _SB4[ebx*4]
  01441	8b fe		 mov	 edi, esi
  01443	c1 ef 18	 shr	 edi, 24			; 00000018H
  01446	83 e7 3f	 and	 edi, 63			; 0000003fH
  01449	8b 3c bd 00 00
	00 00		 mov	 edi, DWORD PTR _SB2[edi*4]
  01450	33 fd		 xor	 edi, ebp
  01452	8b de		 mov	 ebx, esi
  01454	c1 eb 08	 shr	 ebx, 8
  01457	83 e3 3f	 and	 ebx, 63			; 0000003fH
  0145a	33 3c 9d 00 00
	00 00		 xor	 edi, DWORD PTR _SB6[ebx*4]
  01461	83 e6 3f	 and	 esi, 63			; 0000003fH
  01464	33 3c b5 00 00
	00 00		 xor	 edi, DWORD PTR _SB8[esi*4]
  0146b	8b 58 04	 mov	 ebx, DWORD PTR [eax+4]
  0146e	33 cf		 xor	 ecx, edi
  01470	83 c0 04	 add	 eax, 4
  01473	8b f2		 mov	 esi, edx
  01475	c1 e6 1c	 shl	 esi, 28			; 0000001cH
  01478	8b fa		 mov	 edi, edx
  0147a	c1 ef 04	 shr	 edi, 4
  0147d	0b f7		 or	 esi, edi
  0147f	33 f3		 xor	 esi, ebx
  01481	8b de		 mov	 ebx, esi
  01483	c1 eb 10	 shr	 ebx, 16			; 00000010H
  01486	83 e3 3f	 and	 ebx, 63			; 0000003fH
  01489	8b 2c 9d 00 00
	00 00		 mov	 ebp, DWORD PTR _SB3[ebx*4]
  01490	8b fe		 mov	 edi, esi
  01492	c1 ef 18	 shr	 edi, 24			; 00000018H
  01495	83 e7 3f	 and	 edi, 63			; 0000003fH
  01498	8b 3c bd 00 00
	00 00		 mov	 edi, DWORD PTR _SB1[edi*4]
  0149f	8b de		 mov	 ebx, esi
  014a1	33 fd		 xor	 edi, ebp
  014a3	c1 eb 08	 shr	 ebx, 8
  014a6	83 e3 3f	 and	 ebx, 63			; 0000003fH
  014a9	8b 2c 9d 00 00
	00 00		 mov	 ebp, DWORD PTR _SB5[ebx*4]
  014b0	83 e6 3f	 and	 esi, 63			; 0000003fH
  014b3	8b 1c b5 00 00
	00 00		 mov	 ebx, DWORD PTR _SB7[esi*4]
  014ba	8b 70 04	 mov	 esi, DWORD PTR [eax+4]
  014bd	33 fd		 xor	 edi, ebp
  014bf	33 fb		 xor	 edi, ebx
  014c1	83 c0 04	 add	 eax, 4
  014c4	33 cf		 xor	 ecx, edi
  014c6	33 f1		 xor	 esi, ecx
  014c8	8b fe		 mov	 edi, esi
  014ca	c1 ef 18	 shr	 edi, 24			; 00000018H
  014cd	8b de		 mov	 ebx, esi
  014cf	83 c0 04	 add	 eax, 4
  014d2	83 e7 3f	 and	 edi, 63			; 0000003fH
  014d5	c1 eb 10	 shr	 ebx, 16			; 00000010H
  014d8	8b 3c bd 00 00
	00 00		 mov	 edi, DWORD PTR _SB2[edi*4]
  014df	83 e3 3f	 and	 ebx, 63			; 0000003fH
  014e2	33 3c 9d 00 00
	00 00		 xor	 edi, DWORD PTR _SB4[ebx*4]
  014e9	8b de		 mov	 ebx, esi
  014eb	c1 eb 08	 shr	 ebx, 8
  014ee	83 e3 3f	 and	 ebx, 63			; 0000003fH
  014f1	33 3c 9d 00 00
	00 00		 xor	 edi, DWORD PTR _SB6[ebx*4]
  014f8	83 e6 3f	 and	 esi, 63			; 0000003fH
  014fb	33 3c b5 00 00
	00 00		 xor	 edi, DWORD PTR _SB8[esi*4]
  01502	8b 18		 mov	 ebx, DWORD PTR [eax]
  01504	33 d7		 xor	 edx, edi
  01506	8b f1		 mov	 esi, ecx
  01508	c1 e6 1c	 shl	 esi, 28			; 0000001cH
  0150b	8b f9		 mov	 edi, ecx
  0150d	c1 ef 04	 shr	 edi, 4
  01510	0b f7		 or	 esi, edi
  01512	33 f3		 xor	 esi, ebx
  01514	8b de		 mov	 ebx, esi
  01516	c1 eb 10	 shr	 ebx, 16			; 00000010H
  01519	83 e3 3f	 and	 ebx, 63			; 0000003fH
  0151c	8b 2c 9d 00 00
	00 00		 mov	 ebp, DWORD PTR _SB3[ebx*4]
  01523	8b fe		 mov	 edi, esi
  01525	c1 ef 18	 shr	 edi, 24			; 00000018H
  01528	83 e7 3f	 and	 edi, 63			; 0000003fH
  0152b	8b 3c bd 00 00
	00 00		 mov	 edi, DWORD PTR _SB1[edi*4]
  01532	33 fd		 xor	 edi, ebp
  01534	8b de		 mov	 ebx, esi
  01536	c1 eb 08	 shr	 ebx, 8
  01539	83 e3 3f	 and	 ebx, 63			; 0000003fH
  0153c	33 3c 9d 00 00
	00 00		 xor	 edi, DWORD PTR _SB5[ebx*4]
  01543	83 e6 3f	 and	 esi, 63			; 0000003fH
  01546	8b 1c b5 00 00
	00 00		 mov	 ebx, DWORD PTR _SB7[esi*4]
  0154d	8b 70 04	 mov	 esi, DWORD PTR [eax+4]
  01550	33 fb		 xor	 edi, ebx
  01552	33 d7		 xor	 edx, edi
  01554	33 f2		 xor	 esi, edx
  01556	83 c0 04	 add	 eax, 4
  01559	8b de		 mov	 ebx, esi
  0155b	c1 eb 10	 shr	 ebx, 16			; 00000010H
  0155e	83 e3 3f	 and	 ebx, 63			; 0000003fH
  01561	8b 2c 9d 00 00
	00 00		 mov	 ebp, DWORD PTR _SB4[ebx*4]
  01568	8b fe		 mov	 edi, esi
  0156a	c1 ef 18	 shr	 edi, 24			; 00000018H
  0156d	83 e7 3f	 and	 edi, 63			; 0000003fH
  01570	8b 3c bd 00 00
	00 00		 mov	 edi, DWORD PTR _SB2[edi*4]
  01577	33 fd		 xor	 edi, ebp
  01579	8b de		 mov	 ebx, esi
  0157b	c1 eb 08	 shr	 ebx, 8
  0157e	83 e3 3f	 and	 ebx, 63			; 0000003fH
  01581	33 3c 9d 00 00
	00 00		 xor	 edi, DWORD PTR _SB6[ebx*4]
  01588	83 e6 3f	 and	 esi, 63			; 0000003fH
  0158b	33 3c b5 00 00
	00 00		 xor	 edi, DWORD PTR _SB8[esi*4]
  01592	8b 58 04	 mov	 ebx, DWORD PTR [eax+4]
  01595	33 cf		 xor	 ecx, edi
  01597	83 c0 04	 add	 eax, 4
  0159a	8b f2		 mov	 esi, edx
  0159c	c1 e6 1c	 shl	 esi, 28			; 0000001cH
  0159f	8b fa		 mov	 edi, edx
  015a1	c1 ef 04	 shr	 edi, 4
  015a4	0b f7		 or	 esi, edi
  015a6	33 f3		 xor	 esi, ebx
  015a8	8b de		 mov	 ebx, esi
  015aa	c1 eb 10	 shr	 ebx, 16			; 00000010H
  015ad	83 e3 3f	 and	 ebx, 63			; 0000003fH
  015b0	8b 2c 9d 00 00
	00 00		 mov	 ebp, DWORD PTR _SB3[ebx*4]
  015b7	8b fe		 mov	 edi, esi
  015b9	c1 ef 18	 shr	 edi, 24			; 00000018H
  015bc	83 e7 3f	 and	 edi, 63			; 0000003fH
  015bf	8b 3c bd 00 00
	00 00		 mov	 edi, DWORD PTR _SB1[edi*4]
  015c6	8b de		 mov	 ebx, esi
  015c8	33 fd		 xor	 edi, ebp
  015ca	c1 eb 08	 shr	 ebx, 8
  015cd	83 c0 04	 add	 eax, 4
  015d0	83 e3 3f	 and	 ebx, 63			; 0000003fH
  015d3	33 3c 9d 00 00
	00 00		 xor	 edi, DWORD PTR _SB5[ebx*4]
  015da	83 e6 3f	 and	 esi, 63			; 0000003fH
  015dd	33 3c b5 00 00
	00 00		 xor	 edi, DWORD PTR _SB7[esi*4]
  015e4	8b 30		 mov	 esi, DWORD PTR [eax]
  015e6	33 cf		 xor	 ecx, edi
  015e8	33 f1		 xor	 esi, ecx
  015ea	8b de		 mov	 ebx, esi
  015ec	c1 eb 10	 shr	 ebx, 16			; 00000010H
  015ef	83 e3 3f	 and	 ebx, 63			; 0000003fH
  015f2	8b 2c 9d 00 00
	00 00		 mov	 ebp, DWORD PTR _SB4[ebx*4]
  015f9	8b fe		 mov	 edi, esi
  015fb	c1 ef 18	 shr	 edi, 24			; 00000018H
  015fe	83 e7 3f	 and	 edi, 63			; 0000003fH
  01601	8b 3c bd 00 00
	00 00		 mov	 edi, DWORD PTR _SB2[edi*4]
  01608	33 fd		 xor	 edi, ebp
  0160a	8b de		 mov	 ebx, esi
  0160c	c1 eb 08	 shr	 ebx, 8
  0160f	83 e3 3f	 and	 ebx, 63			; 0000003fH
  01612	33 3c 9d 00 00
	00 00		 xor	 edi, DWORD PTR _SB6[ebx*4]
  01619	83 e6 3f	 and	 esi, 63			; 0000003fH
  0161c	33 3c b5 00 00
	00 00		 xor	 edi, DWORD PTR _SB8[esi*4]
  01623	8b 58 04	 mov	 ebx, DWORD PTR [eax+4]
  01626	33 d7		 xor	 edx, edi
  01628	83 c0 04	 add	 eax, 4
  0162b	8b f1		 mov	 esi, ecx
  0162d	c1 e6 1c	 shl	 esi, 28			; 0000001cH
  01630	8b f9		 mov	 edi, ecx
  01632	c1 ef 04	 shr	 edi, 4
  01635	0b f7		 or	 esi, edi
  01637	33 f3		 xor	 esi, ebx
  01639	8b de		 mov	 ebx, esi
  0163b	c1 eb 10	 shr	 ebx, 16			; 00000010H
  0163e	83 e3 3f	 and	 ebx, 63			; 0000003fH
  01641	8b 2c 9d 00 00
	00 00		 mov	 ebp, DWORD PTR _SB3[ebx*4]
  01648	8b fe		 mov	 edi, esi
  0164a	c1 ef 18	 shr	 edi, 24			; 00000018H
  0164d	83 e7 3f	 and	 edi, 63			; 0000003fH
  01650	8b 3c bd 00 00
	00 00		 mov	 edi, DWORD PTR _SB1[edi*4]
  01657	33 fd		 xor	 edi, ebp
  01659	8b de		 mov	 ebx, esi
  0165b	c1 eb 08	 shr	 ebx, 8
  0165e	83 e3 3f	 and	 ebx, 63			; 0000003fH
  01661	33 3c 9d 00 00
	00 00		 xor	 edi, DWORD PTR _SB5[ebx*4]
  01668	83 e6 3f	 and	 esi, 63			; 0000003fH
  0166b	8b 1c b5 00 00
	00 00		 mov	 ebx, DWORD PTR _SB7[esi*4]
  01672	8b 70 04	 mov	 esi, DWORD PTR [eax+4]
  01675	33 fb		 xor	 edi, ebx
  01677	33 d7		 xor	 edx, edi
  01679	33 f2		 xor	 esi, edx
  0167b	83 c0 04	 add	 eax, 4
  0167e	8b de		 mov	 ebx, esi
  01680	c1 eb 10	 shr	 ebx, 16			; 00000010H
  01683	83 e3 3f	 and	 ebx, 63			; 0000003fH
  01686	8b 2c 9d 00 00
	00 00		 mov	 ebp, DWORD PTR _SB4[ebx*4]
  0168d	8b fe		 mov	 edi, esi
  0168f	c1 ef 18	 shr	 edi, 24			; 00000018H
  01692	83 e7 3f	 and	 edi, 63			; 0000003fH
  01695	8b 3c bd 00 00
	00 00		 mov	 edi, DWORD PTR _SB2[edi*4]
  0169c	8b de		 mov	 ebx, esi
  0169e	c1 eb 08	 shr	 ebx, 8
  016a1	33 fd		 xor	 edi, ebp
  016a3	83 e3 3f	 and	 ebx, 63			; 0000003fH
  016a6	8b 2c 9d 00 00
	00 00		 mov	 ebp, DWORD PTR _SB6[ebx*4]
  016ad	83 e6 3f	 and	 esi, 63			; 0000003fH
  016b0	8b 1c b5 00 00
	00 00		 mov	 ebx, DWORD PTR _SB8[esi*4]
  016b7	33 fd		 xor	 edi, ebp
  016b9	33 fb		 xor	 edi, ebx
  016bb	8b 58 04	 mov	 ebx, DWORD PTR [eax+4]
  016be	33 cf		 xor	 ecx, edi
  016c0	8b f2		 mov	 esi, edx
  016c2	c1 e6 1c	 shl	 esi, 28			; 0000001cH
  016c5	8b fa		 mov	 edi, edx
  016c7	83 c0 04	 add	 eax, 4
  016ca	c1 ef 04	 shr	 edi, 4
  016cd	0b f7		 or	 esi, edi
  016cf	33 f3		 xor	 esi, ebx
  016d1	83 c0 04	 add	 eax, 4
  016d4	8b de		 mov	 ebx, esi
  016d6	c1 eb 10	 shr	 ebx, 16			; 00000010H
  016d9	83 e3 3f	 and	 ebx, 63			; 0000003fH
  016dc	8b 2c 9d 00 00
	00 00		 mov	 ebp, DWORD PTR _SB3[ebx*4]
  016e3	8b fe		 mov	 edi, esi
  016e5	c1 ef 18	 shr	 edi, 24			; 00000018H
  016e8	83 e7 3f	 and	 edi, 63			; 0000003fH
  016eb	8b 3c bd 00 00
	00 00		 mov	 edi, DWORD PTR _SB1[edi*4]
  016f2	33 fd		 xor	 edi, ebp
  016f4	8b de		 mov	 ebx, esi
  016f6	c1 eb 08	 shr	 ebx, 8
  016f9	83 e3 3f	 and	 ebx, 63			; 0000003fH
  016fc	33 3c 9d 00 00
	00 00		 xor	 edi, DWORD PTR _SB5[ebx*4]
  01703	83 e6 3f	 and	 esi, 63			; 0000003fH
  01706	33 3c b5 00 00
	00 00		 xor	 edi, DWORD PTR _SB7[esi*4]
  0170d	8b 30		 mov	 esi, DWORD PTR [eax]
  0170f	33 cf		 xor	 ecx, edi
  01711	33 f1		 xor	 esi, ecx
  01713	8b de		 mov	 ebx, esi
  01715	c1 eb 10	 shr	 ebx, 16			; 00000010H
  01718	83 e3 3f	 and	 ebx, 63			; 0000003fH
  0171b	8b 2c 9d 00 00
	00 00		 mov	 ebp, DWORD PTR _SB4[ebx*4]
  01722	8b fe		 mov	 edi, esi
  01724	c1 ef 18	 shr	 edi, 24			; 00000018H
  01727	83 e7 3f	 and	 edi, 63			; 0000003fH
  0172a	8b 3c bd 00 00
	00 00		 mov	 edi, DWORD PTR _SB2[edi*4]
  01731	33 fd		 xor	 edi, ebp
  01733	8b de		 mov	 ebx, esi
  01735	c1 eb 08	 shr	 ebx, 8
  01738	83 e3 3f	 and	 ebx, 63			; 0000003fH
  0173b	33 3c 9d 00 00
	00 00		 xor	 edi, DWORD PTR _SB6[ebx*4]
  01742	83 e6 3f	 and	 esi, 63			; 0000003fH
  01745	33 3c b5 00 00
	00 00		 xor	 edi, DWORD PTR _SB8[esi*4]
  0174c	8b 58 04	 mov	 ebx, DWORD PTR [eax+4]
  0174f	33 d7		 xor	 edx, edi
  01751	83 c0 04	 add	 eax, 4
  01754	8b f1		 mov	 esi, ecx
  01756	c1 e6 1c	 shl	 esi, 28			; 0000001cH
  01759	8b f9		 mov	 edi, ecx
  0175b	c1 ef 04	 shr	 edi, 4
  0175e	0b f7		 or	 esi, edi
  01760	33 f3		 xor	 esi, ebx
  01762	8b de		 mov	 ebx, esi
  01764	c1 eb 10	 shr	 ebx, 16			; 00000010H
  01767	83 e3 3f	 and	 ebx, 63			; 0000003fH
  0176a	8b 2c 9d 00 00
	00 00		 mov	 ebp, DWORD PTR _SB3[ebx*4]
  01771	8b fe		 mov	 edi, esi
  01773	c1 ef 18	 shr	 edi, 24			; 00000018H
  01776	83 e7 3f	 and	 edi, 63			; 0000003fH
  01779	8b 3c bd 00 00
	00 00		 mov	 edi, DWORD PTR _SB1[edi*4]
  01780	33 fd		 xor	 edi, ebp
  01782	8b de		 mov	 ebx, esi
  01784	c1 eb 08	 shr	 ebx, 8
  01787	83 e3 3f	 and	 ebx, 63			; 0000003fH
  0178a	33 3c 9d 00 00
	00 00		 xor	 edi, DWORD PTR _SB5[ebx*4]
  01791	83 e6 3f	 and	 esi, 63			; 0000003fH
  01794	8b 1c b5 00 00
	00 00		 mov	 ebx, DWORD PTR _SB7[esi*4]
  0179b	8b 70 04	 mov	 esi, DWORD PTR [eax+4]
  0179e	33 fb		 xor	 edi, ebx
  017a0	33 d7		 xor	 edx, edi
  017a2	83 c0 04	 add	 eax, 4
  017a5	33 f2		 xor	 esi, edx
  017a7	8b de		 mov	 ebx, esi
  017a9	c1 eb 10	 shr	 ebx, 16			; 00000010H
  017ac	83 e3 3f	 and	 ebx, 63			; 0000003fH
  017af	8b 2c 9d 00 00
	00 00		 mov	 ebp, DWORD PTR _SB4[ebx*4]
  017b6	8b fe		 mov	 edi, esi
  017b8	c1 ef 18	 shr	 edi, 24			; 00000018H
  017bb	83 e7 3f	 and	 edi, 63			; 0000003fH
  017be	8b 3c bd 00 00
	00 00		 mov	 edi, DWORD PTR _SB2[edi*4]
  017c5	8b de		 mov	 ebx, esi
  017c7	33 fd		 xor	 edi, ebp
  017c9	c1 eb 08	 shr	 ebx, 8
  017cc	83 c0 04	 add	 eax, 4
  017cf	83 e3 3f	 and	 ebx, 63			; 0000003fH
  017d2	33 3c 9d 00 00
	00 00		 xor	 edi, DWORD PTR _SB6[ebx*4]
  017d9	83 e6 3f	 and	 esi, 63			; 0000003fH
  017dc	33 3c b5 00 00
	00 00		 xor	 edi, DWORD PTR _SB8[esi*4]
  017e3	8b 18		 mov	 ebx, DWORD PTR [eax]
  017e5	33 cf		 xor	 ecx, edi
  017e7	8b f2		 mov	 esi, edx
  017e9	c1 e6 1c	 shl	 esi, 28			; 0000001cH
  017ec	8b fa		 mov	 edi, edx
  017ee	c1 ef 04	 shr	 edi, 4
  017f1	0b f7		 or	 esi, edi
  017f3	33 f3		 xor	 esi, ebx
  017f5	8b de		 mov	 ebx, esi
  017f7	c1 eb 10	 shr	 ebx, 16			; 00000010H
  017fa	83 e3 3f	 and	 ebx, 63			; 0000003fH
  017fd	8b 2c 9d 00 00
	00 00		 mov	 ebp, DWORD PTR _SB3[ebx*4]
  01804	8b fe		 mov	 edi, esi
  01806	c1 ef 18	 shr	 edi, 24			; 00000018H
  01809	83 e7 3f	 and	 edi, 63			; 0000003fH
  0180c	8b 3c bd 00 00
	00 00		 mov	 edi, DWORD PTR _SB1[edi*4]
  01813	33 fd		 xor	 edi, ebp
  01815	8b de		 mov	 ebx, esi
  01817	c1 eb 08	 shr	 ebx, 8
  0181a	83 e3 3f	 and	 ebx, 63			; 0000003fH
  0181d	33 3c 9d 00 00
	00 00		 xor	 edi, DWORD PTR _SB5[ebx*4]
  01824	83 e6 3f	 and	 esi, 63			; 0000003fH
  01827	8b 1c b5 00 00
	00 00		 mov	 ebx, DWORD PTR _SB7[esi*4]
  0182e	8b 70 04	 mov	 esi, DWORD PTR [eax+4]
  01831	33 fb		 xor	 edi, ebx
  01833	33 cf		 xor	 ecx, edi
  01835	33 f1		 xor	 esi, ecx
  01837	83 c0 04	 add	 eax, 4
  0183a	8b de		 mov	 ebx, esi
  0183c	c1 eb 10	 shr	 ebx, 16			; 00000010H
  0183f	83 e3 3f	 and	 ebx, 63			; 0000003fH
  01842	8b 2c 9d 00 00
	00 00		 mov	 ebp, DWORD PTR _SB4[ebx*4]
  01849	8b fe		 mov	 edi, esi
  0184b	c1 ef 18	 shr	 edi, 24			; 00000018H
  0184e	83 e7 3f	 and	 edi, 63			; 0000003fH
  01851	8b 3c bd 00 00
	00 00		 mov	 edi, DWORD PTR _SB2[edi*4]
  01858	33 fd		 xor	 edi, ebp
  0185a	8b de		 mov	 ebx, esi
  0185c	c1 eb 08	 shr	 ebx, 8
  0185f	83 e3 3f	 and	 ebx, 63			; 0000003fH
  01862	33 3c 9d 00 00
	00 00		 xor	 edi, DWORD PTR _SB6[ebx*4]
  01869	83 e6 3f	 and	 esi, 63			; 0000003fH
  0186c	33 3c b5 00 00
	00 00		 xor	 edi, DWORD PTR _SB8[esi*4]
  01873	8b 58 04	 mov	 ebx, DWORD PTR [eax+4]
  01876	33 d7		 xor	 edx, edi
  01878	83 c0 04	 add	 eax, 4
  0187b	8b f1		 mov	 esi, ecx
  0187d	c1 e6 1c	 shl	 esi, 28			; 0000001cH
  01880	8b f9		 mov	 edi, ecx
  01882	c1 ef 04	 shr	 edi, 4
  01885	0b f7		 or	 esi, edi
  01887	33 f3		 xor	 esi, ebx
  01889	8b de		 mov	 ebx, esi
  0188b	c1 eb 10	 shr	 ebx, 16			; 00000010H
  0188e	83 e3 3f	 and	 ebx, 63			; 0000003fH
  01891	8b 2c 9d 00 00
	00 00		 mov	 ebp, DWORD PTR _SB3[ebx*4]
  01898	8b fe		 mov	 edi, esi
  0189a	c1 ef 18	 shr	 edi, 24			; 00000018H
  0189d	83 e7 3f	 and	 edi, 63			; 0000003fH
  018a0	8b 3c bd 00 00
	00 00		 mov	 edi, DWORD PTR _SB1[edi*4]
  018a7	8b de		 mov	 ebx, esi
  018a9	c1 eb 08	 shr	 ebx, 8
  018ac	33 fd		 xor	 edi, ebp
  018ae	83 e3 3f	 and	 ebx, 63			; 0000003fH
  018b1	8b 2c 9d 00 00
	00 00		 mov	 ebp, DWORD PTR _SB5[ebx*4]
  018b8	83 e6 3f	 and	 esi, 63			; 0000003fH
  018bb	8b 1c b5 00 00
	00 00		 mov	 ebx, DWORD PTR _SB7[esi*4]
  018c2	8b 70 04	 mov	 esi, DWORD PTR [eax+4]
  018c5	33 fd		 xor	 edi, ebp
  018c7	83 c0 04	 add	 eax, 4
  018ca	33 fb		 xor	 edi, ebx
  018cc	33 d7		 xor	 edx, edi
  018ce	33 f2		 xor	 esi, edx
  018d0	83 c0 04	 add	 eax, 4
  018d3	8b de		 mov	 ebx, esi
  018d5	c1 eb 10	 shr	 ebx, 16			; 00000010H
  018d8	83 e3 3f	 and	 ebx, 63			; 0000003fH
  018db	8b 2c 9d 00 00
	00 00		 mov	 ebp, DWORD PTR _SB4[ebx*4]
  018e2	8b fe		 mov	 edi, esi
  018e4	c1 ef 18	 shr	 edi, 24			; 00000018H
  018e7	83 e7 3f	 and	 edi, 63			; 0000003fH
  018ea	8b 3c bd 00 00
	00 00		 mov	 edi, DWORD PTR _SB2[edi*4]
  018f1	33 fd		 xor	 edi, ebp
  018f3	8b de		 mov	 ebx, esi
  018f5	c1 eb 08	 shr	 ebx, 8
  018f8	83 e3 3f	 and	 ebx, 63			; 0000003fH
  018fb	33 3c 9d 00 00
	00 00		 xor	 edi, DWORD PTR _SB6[ebx*4]
  01902	83 e6 3f	 and	 esi, 63			; 0000003fH
  01905	33 3c b5 00 00
	00 00		 xor	 edi, DWORD PTR _SB8[esi*4]
  0190c	8b 18		 mov	 ebx, DWORD PTR [eax]
  0190e	33 cf		 xor	 ecx, edi
  01910	8b f2		 mov	 esi, edx
  01912	c1 e6 1c	 shl	 esi, 28			; 0000001cH
  01915	8b fa		 mov	 edi, edx
  01917	c1 ef 04	 shr	 edi, 4
  0191a	0b f7		 or	 esi, edi
  0191c	33 f3		 xor	 esi, ebx
  0191e	8b de		 mov	 ebx, esi
  01920	c1 eb 10	 shr	 ebx, 16			; 00000010H
  01923	83 e3 3f	 and	 ebx, 63			; 0000003fH
  01926	8b 2c 9d 00 00
	00 00		 mov	 ebp, DWORD PTR _SB3[ebx*4]
  0192d	8b fe		 mov	 edi, esi
  0192f	c1 ef 18	 shr	 edi, 24			; 00000018H
  01932	83 e7 3f	 and	 edi, 63			; 0000003fH
  01935	8b 3c bd 00 00
	00 00		 mov	 edi, DWORD PTR _SB1[edi*4]
  0193c	33 fd		 xor	 edi, ebp
  0193e	8b de		 mov	 ebx, esi
  01940	c1 eb 08	 shr	 ebx, 8
  01943	83 e3 3f	 and	 ebx, 63			; 0000003fH
  01946	33 3c 9d 00 00
	00 00		 xor	 edi, DWORD PTR _SB5[ebx*4]
  0194d	83 e6 3f	 and	 esi, 63			; 0000003fH
  01950	8b 1c b5 00 00
	00 00		 mov	 ebx, DWORD PTR _SB7[esi*4]
  01957	8b 70 04	 mov	 esi, DWORD PTR [eax+4]
  0195a	33 fb		 xor	 edi, ebx
  0195c	33 cf		 xor	 ecx, edi
  0195e	33 f1		 xor	 esi, ecx
  01960	83 c0 04	 add	 eax, 4
  01963	8b de		 mov	 ebx, esi
  01965	c1 eb 10	 shr	 ebx, 16			; 00000010H
  01968	83 e3 3f	 and	 ebx, 63			; 0000003fH
  0196b	8b 2c 9d 00 00
	00 00		 mov	 ebp, DWORD PTR _SB4[ebx*4]
  01972	8b fe		 mov	 edi, esi
  01974	c1 ef 18	 shr	 edi, 24			; 00000018H
  01977	83 e7 3f	 and	 edi, 63			; 0000003fH
  0197a	8b 3c bd 00 00
	00 00		 mov	 edi, DWORD PTR _SB2[edi*4]
  01981	33 fd		 xor	 edi, ebp
  01983	8b de		 mov	 ebx, esi
  01985	c1 eb 08	 shr	 ebx, 8
  01988	83 e3 3f	 and	 ebx, 63			; 0000003fH
  0198b	33 3c 9d 00 00
	00 00		 xor	 edi, DWORD PTR _SB6[ebx*4]
  01992	83 e6 3f	 and	 esi, 63			; 0000003fH
  01995	33 3c b5 00 00
	00 00		 xor	 edi, DWORD PTR _SB8[esi*4]
  0199c	8b 58 04	 mov	 ebx, DWORD PTR [eax+4]
  0199f	33 d7		 xor	 edx, edi
  019a1	83 c0 04	 add	 eax, 4
  019a4	8b f1		 mov	 esi, ecx
  019a6	c1 e6 1c	 shl	 esi, 28			; 0000001cH
  019a9	8b f9		 mov	 edi, ecx
  019ab	c1 ef 04	 shr	 edi, 4
  019ae	0b f7		 or	 esi, edi
  019b0	33 f3		 xor	 esi, ebx
  019b2	8b fe		 mov	 edi, esi
  019b4	c1 ef 18	 shr	 edi, 24			; 00000018H
  019b7	8b de		 mov	 ebx, esi
  019b9	83 e7 3f	 and	 edi, 63			; 0000003fH
  019bc	8b 3c bd 00 00
	00 00		 mov	 edi, DWORD PTR _SB1[edi*4]
  019c3	c1 eb 10	 shr	 ebx, 16			; 00000010H
  019c6	83 c0 04	 add	 eax, 4
  019c9	83 e3 3f	 and	 ebx, 63			; 0000003fH
  019cc	33 3c 9d 00 00
	00 00		 xor	 edi, DWORD PTR _SB3[ebx*4]
  019d3	8b de		 mov	 ebx, esi
  019d5	c1 eb 08	 shr	 ebx, 8
  019d8	83 e3 3f	 and	 ebx, 63			; 0000003fH
  019db	33 3c 9d 00 00
	00 00		 xor	 edi, DWORD PTR _SB5[ebx*4]
  019e2	83 e6 3f	 and	 esi, 63			; 0000003fH
  019e5	33 3c b5 00 00
	00 00		 xor	 edi, DWORD PTR _SB7[esi*4]
  019ec	8b 30		 mov	 esi, DWORD PTR [eax]
  019ee	33 d7		 xor	 edx, edi
  019f0	33 f2		 xor	 esi, edx
  019f2	8b de		 mov	 ebx, esi
  019f4	c1 eb 10	 shr	 ebx, 16			; 00000010H
  019f7	83 e3 3f	 and	 ebx, 63			; 0000003fH
  019fa	8b 2c 9d 00 00
	00 00		 mov	 ebp, DWORD PTR _SB4[ebx*4]
  01a01	8b fe		 mov	 edi, esi
  01a03	c1 ef 18	 shr	 edi, 24			; 00000018H
  01a06	83 e7 3f	 and	 edi, 63			; 0000003fH
  01a09	8b 3c bd 00 00
	00 00		 mov	 edi, DWORD PTR _SB2[edi*4]
  01a10	33 fd		 xor	 edi, ebp
  01a12	8b de		 mov	 ebx, esi
  01a14	c1 eb 08	 shr	 ebx, 8
  01a17	83 e3 3f	 and	 ebx, 63			; 0000003fH
  01a1a	33 3c 9d 00 00
	00 00		 xor	 edi, DWORD PTR _SB6[ebx*4]
  01a21	83 e6 3f	 and	 esi, 63			; 0000003fH
  01a24	33 3c b5 00 00
	00 00		 xor	 edi, DWORD PTR _SB8[esi*4]
  01a2b	8b 58 04	 mov	 ebx, DWORD PTR [eax+4]
  01a2e	33 cf		 xor	 ecx, edi
  01a30	83 c0 04	 add	 eax, 4
  01a33	8b f2		 mov	 esi, edx
  01a35	c1 e6 1c	 shl	 esi, 28			; 0000001cH
  01a38	8b fa		 mov	 edi, edx
  01a3a	c1 ef 04	 shr	 edi, 4
  01a3d	0b f7		 or	 esi, edi
  01a3f	33 f3		 xor	 esi, ebx
  01a41	8b de		 mov	 ebx, esi
  01a43	c1 eb 10	 shr	 ebx, 16			; 00000010H
  01a46	83 e3 3f	 and	 ebx, 63			; 0000003fH
  01a49	8b 2c 9d 00 00
	00 00		 mov	 ebp, DWORD PTR _SB3[ebx*4]
  01a50	8b fe		 mov	 edi, esi
  01a52	c1 ef 18	 shr	 edi, 24			; 00000018H
  01a55	83 e7 3f	 and	 edi, 63			; 0000003fH
  01a58	8b 3c bd 00 00
	00 00		 mov	 edi, DWORD PTR _SB1[edi*4]
  01a5f	33 fd		 xor	 edi, ebp
  01a61	8b de		 mov	 ebx, esi
  01a63	c1 eb 08	 shr	 ebx, 8
  01a66	83 e3 3f	 and	 ebx, 63			; 0000003fH
  01a69	33 3c 9d 00 00
	00 00		 xor	 edi, DWORD PTR _SB5[ebx*4]
  01a70	83 e6 3f	 and	 esi, 63			; 0000003fH
  01a73	8b 1c b5 00 00
	00 00		 mov	 ebx, DWORD PTR _SB7[esi*4]
  01a7a	8b 70 04	 mov	 esi, DWORD PTR [eax+4]
  01a7d	33 fb		 xor	 edi, ebx
  01a7f	33 cf		 xor	 ecx, edi
  01a81	83 c0 04	 add	 eax, 4
  01a84	33 f1		 xor	 esi, ecx
  01a86	8b de		 mov	 ebx, esi
  01a88	c1 eb 10	 shr	 ebx, 16			; 00000010H
  01a8b	83 e3 3f	 and	 ebx, 63			; 0000003fH
  01a8e	8b 2c 9d 00 00
	00 00		 mov	 ebp, DWORD PTR _SB4[ebx*4]
  01a95	8b fe		 mov	 edi, esi
  01a97	c1 ef 18	 shr	 edi, 24			; 00000018H
  01a9a	83 e7 3f	 and	 edi, 63			; 0000003fH
  01a9d	8b 3c bd 00 00
	00 00		 mov	 edi, DWORD PTR _SB2[edi*4]
  01aa4	8b de		 mov	 ebx, esi
  01aa6	c1 eb 08	 shr	 ebx, 8
  01aa9	33 fd		 xor	 edi, ebp
  01aab	83 e3 3f	 and	 ebx, 63			; 0000003fH
  01aae	8b 2c 9d 00 00
	00 00		 mov	 ebp, DWORD PTR _SB6[ebx*4]
  01ab5	83 e6 3f	 and	 esi, 63			; 0000003fH
  01ab8	8b 1c b5 00 00
	00 00		 mov	 ebx, DWORD PTR _SB8[esi*4]
  01abf	33 fd		 xor	 edi, ebp
  01ac1	33 fb		 xor	 edi, ebx
  01ac3	33 d7		 xor	 edx, edi
  01ac5	8b f1		 mov	 esi, ecx
  01ac7	83 c0 04	 add	 eax, 4
  01aca	c1 e6 1c	 shl	 esi, 28			; 0000001cH
  01acd	8b f9		 mov	 edi, ecx
  01acf	8b 18		 mov	 ebx, DWORD PTR [eax]
  01ad1	c1 ef 04	 shr	 edi, 4
  01ad4	0b f7		 or	 esi, edi
  01ad6	33 f3		 xor	 esi, ebx
  01ad8	8b de		 mov	 ebx, esi
  01ada	c1 eb 10	 shr	 ebx, 16			; 00000010H
  01add	83 e3 3f	 and	 ebx, 63			; 0000003fH
  01ae0	8b 2c 9d 00 00
	00 00		 mov	 ebp, DWORD PTR _SB3[ebx*4]
  01ae7	8b fe		 mov	 edi, esi
  01ae9	c1 ef 18	 shr	 edi, 24			; 00000018H
  01aec	83 e7 3f	 and	 edi, 63			; 0000003fH
  01aef	8b 3c bd 00 00
	00 00		 mov	 edi, DWORD PTR _SB1[edi*4]
  01af6	33 fd		 xor	 edi, ebp
  01af8	8b de		 mov	 ebx, esi
  01afa	c1 eb 08	 shr	 ebx, 8
  01afd	83 e3 3f	 and	 ebx, 63			; 0000003fH
  01b00	33 3c 9d 00 00
	00 00		 xor	 edi, DWORD PTR _SB5[ebx*4]
  01b07	83 e6 3f	 and	 esi, 63			; 0000003fH
  01b0a	33 3c b5 00 00
	00 00		 xor	 edi, DWORD PTR _SB7[esi*4]
  01b11	8b 70 04	 mov	 esi, DWORD PTR [eax+4]
  01b14	33 d7		 xor	 edx, edi
  01b16	33 f2		 xor	 esi, edx
  01b18	83 c0 04	 add	 eax, 4
  01b1b	8b de		 mov	 ebx, esi
  01b1d	c1 eb 10	 shr	 ebx, 16			; 00000010H
  01b20	83 e3 3f	 and	 ebx, 63			; 0000003fH
  01b23	8b 2c 9d 00 00
	00 00		 mov	 ebp, DWORD PTR _SB4[ebx*4]
  01b2a	8b fe		 mov	 edi, esi
  01b2c	c1 ef 18	 shr	 edi, 24			; 00000018H
  01b2f	83 e7 3f	 and	 edi, 63			; 0000003fH
  01b32	8b 3c bd 00 00
	00 00		 mov	 edi, DWORD PTR _SB2[edi*4]
  01b39	33 fd		 xor	 edi, ebp
  01b3b	8b de		 mov	 ebx, esi
  01b3d	c1 eb 08	 shr	 ebx, 8
  01b40	83 e3 3f	 and	 ebx, 63			; 0000003fH
  01b43	33 3c 9d 00 00
	00 00		 xor	 edi, DWORD PTR _SB6[ebx*4]
  01b4a	83 e6 3f	 and	 esi, 63			; 0000003fH
  01b4d	33 3c b5 00 00
	00 00		 xor	 edi, DWORD PTR _SB8[esi*4]
  01b54	8b 58 04	 mov	 ebx, DWORD PTR [eax+4]
  01b57	33 cf		 xor	 ecx, edi
  01b59	83 c0 04	 add	 eax, 4
  01b5c	8b f2		 mov	 esi, edx
  01b5e	c1 e6 1c	 shl	 esi, 28			; 0000001cH
  01b61	8b fa		 mov	 edi, edx
  01b63	c1 ef 04	 shr	 edi, 4
  01b66	0b f7		 or	 esi, edi
  01b68	33 f3		 xor	 esi, ebx
  01b6a	8b de		 mov	 ebx, esi
  01b6c	c1 eb 10	 shr	 ebx, 16			; 00000010H
  01b6f	83 e3 3f	 and	 ebx, 63			; 0000003fH
  01b72	8b 2c 9d 00 00
	00 00		 mov	 ebp, DWORD PTR _SB3[ebx*4]
  01b79	8b fe		 mov	 edi, esi
  01b7b	c1 ef 18	 shr	 edi, 24			; 00000018H
  01b7e	83 e7 3f	 and	 edi, 63			; 0000003fH
  01b81	8b 3c bd 00 00
	00 00		 mov	 edi, DWORD PTR _SB1[edi*4]
  01b88	33 fd		 xor	 edi, ebp
  01b8a	8b de		 mov	 ebx, esi
  01b8c	c1 eb 08	 shr	 ebx, 8
  01b8f	83 e3 3f	 and	 ebx, 63			; 0000003fH
  01b92	33 3c 9d 00 00
	00 00		 xor	 edi, DWORD PTR _SB5[ebx*4]
  01b99	83 e6 3f	 and	 esi, 63			; 0000003fH
  01b9c	8b 2c b5 00 00
	00 00		 mov	 ebp, DWORD PTR _SB7[esi*4]
  01ba3	8b 70 04	 mov	 esi, DWORD PTR [eax+4]
  01ba6	33 fd		 xor	 edi, ebp
  01ba8	33 cf		 xor	 ecx, edi
  01baa	83 c0 04	 add	 eax, 4
  01bad	33 f1		 xor	 esi, ecx
  01baf	8b fe		 mov	 edi, esi
  01bb1	c1 ef 18	 shr	 edi, 24			; 00000018H
  01bb4	8b de		 mov	 ebx, esi
  01bb6	c1 eb 10	 shr	 ebx, 16			; 00000010H
  01bb9	83 e7 3f	 and	 edi, 63			; 0000003fH
  01bbc	8b 3c bd 00 00
	00 00		 mov	 edi, DWORD PTR _SB2[edi*4]
  01bc3	83 e3 3f	 and	 ebx, 63			; 0000003fH
  01bc6	33 3c 9d 00 00
	00 00		 xor	 edi, DWORD PTR _SB4[ebx*4]
  01bcd	8b de		 mov	 ebx, esi
  01bcf	c1 eb 08	 shr	 ebx, 8
  01bd2	83 e6 3f	 and	 esi, 63			; 0000003fH
  01bd5	83 e3 3f	 and	 ebx, 63			; 0000003fH
  01bd8	8b 2c 9d 00 00
	00 00		 mov	 ebp, DWORD PTR _SB6[ebx*4]
  01bdf	8b 1c b5 00 00
	00 00		 mov	 ebx, DWORD PTR _SB8[esi*4]
  01be6	8b f1		 mov	 esi, ecx
  01be8	33 fd		 xor	 edi, ebp
  01bea	33 fb		 xor	 edi, ebx
  01bec	8b 58 04	 mov	 ebx, DWORD PTR [eax+4]
  01bef	33 d7		 xor	 edx, edi
  01bf1	8b f9		 mov	 edi, ecx
  01bf3	c1 ef 04	 shr	 edi, 4
  01bf6	c1 e6 1c	 shl	 esi, 28			; 0000001cH
  01bf9	0b f7		 or	 esi, edi
  01bfb	33 f3		 xor	 esi, ebx
  01bfd	8b fe		 mov	 edi, esi
  01bff	c1 ef 10	 shr	 edi, 16			; 00000010H
  01c02	83 e7 3f	 and	 edi, 63			; 0000003fH
  01c05	8b 1c bd 00 00
	00 00		 mov	 ebx, DWORD PTR _SB3[edi*4]
  01c0c	8b c6		 mov	 eax, esi
  01c0e	c1 e8 18	 shr	 eax, 24			; 00000018H
  01c11	83 e0 3f	 and	 eax, 63			; 0000003fH
  01c14	8b 04 85 00 00
	00 00		 mov	 eax, DWORD PTR _SB1[eax*4]
  01c1b	33 c3		 xor	 eax, ebx
  01c1d	8b fe		 mov	 edi, esi
  01c1f	c1 ef 08	 shr	 edi, 8
  01c22	83 e7 3f	 and	 edi, 63			; 0000003fH
  01c25	33 04 bd 00 00
	00 00		 xor	 eax, DWORD PTR _SB5[edi*4]
  01c2c	83 e6 3f	 and	 esi, 63			; 0000003fH
  01c2f	33 04 b5 00 00
	00 00		 xor	 eax, DWORD PTR _SB7[esi*4]
  01c36	33 d0		 xor	 edx, eax
  01c38	8b c2		 mov	 eax, edx
  01c3a	d1 ea		 shr	 edx, 1
  01c3c	c1 e0 1f	 shl	 eax, 31			; 0000001fH
  01c3f	0b c2		 or	 eax, edx
  01c41	8b d0		 mov	 edx, eax
  01c43	33 d1		 xor	 edx, ecx
  01c45	81 e2 aa aa aa
	aa		 and	 edx, -1431655766	; aaaaaaaaH
  01c4b	33 ca		 xor	 ecx, edx
  01c4d	33 c2		 xor	 eax, edx
  01c4f	8b d1		 mov	 edx, ecx
  01c51	d1 e9		 shr	 ecx, 1
  01c53	c1 e2 1f	 shl	 edx, 31			; 0000001fH
  01c56	0b d1		 or	 edx, ecx
  01c58	8b ca		 mov	 ecx, edx
  01c5a	c1 e9 08	 shr	 ecx, 8
  01c5d	33 c8		 xor	 ecx, eax
  01c5f	81 e1 ff 00 ff
	00		 and	 ecx, 16711935		; 00ff00ffH
  01c65	33 c1		 xor	 eax, ecx
  01c67	c1 e1 08	 shl	 ecx, 8
  01c6a	33 d1		 xor	 edx, ecx
  01c6c	8b ca		 mov	 ecx, edx
  01c6e	c1 e9 02	 shr	 ecx, 2
  01c71	33 c8		 xor	 ecx, eax
  01c73	81 e1 33 33 33
	33		 and	 ecx, 858993459		; 33333333H
  01c79	33 c1		 xor	 eax, ecx
  01c7b	c1 e1 02	 shl	 ecx, 2
  01c7e	33 d1		 xor	 edx, ecx
  01c80	8b 74 24 1c	 mov	 esi, DWORD PTR _output$[esp+12]
  01c84	8b c8		 mov	 ecx, eax
  01c86	c1 e9 10	 shr	 ecx, 16			; 00000010H
  01c89	33 ca		 xor	 ecx, edx
  01c8b	81 e1 ff ff 00
	00		 and	 ecx, 65535		; 0000ffffH
  01c91	33 d1		 xor	 edx, ecx
  01c93	c1 e1 10	 shl	 ecx, 16			; 00000010H
  01c96	33 c1		 xor	 eax, ecx
  01c98	8b c8		 mov	 ecx, eax
  01c9a	c1 e9 04	 shr	 ecx, 4
  01c9d	33 ca		 xor	 ecx, edx
  01c9f	81 e1 0f 0f 0f
	0f		 and	 ecx, 252645135		; 0f0f0f0fH
  01ca5	33 d1		 xor	 edx, ecx
  01ca7	c1 e1 04	 shl	 ecx, 4
  01caa	33 c1		 xor	 eax, ecx
  01cac	8b c8		 mov	 ecx, eax
  01cae	c1 e9 18	 shr	 ecx, 24			; 00000018H
  01cb1	88 0e		 mov	 BYTE PTR [esi], cl
  01cb3	8b c8		 mov	 ecx, eax
  01cb5	c1 e9 10	 shr	 ecx, 16			; 00000010H
  01cb8	88 4e 01	 mov	 BYTE PTR [esi+1], cl
  01cbb	8b c8		 mov	 ecx, eax
  01cbd	88 46 03	 mov	 BYTE PTR [esi+3], al
  01cc0	c1 e9 08	 shr	 ecx, 8
  01cc3	8b c2		 mov	 eax, edx
  01cc5	c1 e8 18	 shr	 eax, 24			; 00000018H
  01cc8	88 4e 02	 mov	 BYTE PTR [esi+2], cl
  01ccb	88 46 04	 mov	 BYTE PTR [esi+4], al
  01cce	8b ca		 mov	 ecx, edx
  01cd0	8b c2		 mov	 eax, edx
  01cd2	5f		 pop	 edi
  01cd3	c1 e9 10	 shr	 ecx, 16			; 00000010H
  01cd6	c1 e8 08	 shr	 eax, 8
  01cd9	88 4e 05	 mov	 BYTE PTR [esi+5], cl
  01cdc	88 46 06	 mov	 BYTE PTR [esi+6], al
  01cdf	88 56 07	 mov	 BYTE PTR [esi+7], dl
  01ce2	5e		 pop	 esi
  01ce3	5d		 pop	 ebp
  01ce4	5b		 pop	 ebx

; 483  : }

  01ce5	c3		 ret	 0
_des3_crypt ENDP
_TEXT	ENDS
PUBLIC	_des3_encrypt
; Function compile flags: /Ogty
;	COMDAT _des3_encrypt
_TEXT	SEGMENT
_ctx$ = 8						; size = 4
_input$ = 12						; size = 4
_output$ = 16						; size = 4
_des3_encrypt PROC NEAR					; COMDAT

; 487  :     des3_crypt( ctx->esk, input, output );

  00000	e9 00 00 00 00	 jmp	 _des3_crypt
_des3_encrypt ENDP
_TEXT	ENDS
PUBLIC	_des3_decrypt
; Function compile flags: /Ogty
;	COMDAT _des3_decrypt
_TEXT	SEGMENT
_ctx$ = 8						; size = 4
_input$ = 12						; size = 4
_output$ = 16						; size = 4
_des3_decrypt PROC NEAR					; COMDAT

; 492  :     des3_crypt( ctx->dsk, input, output );

  00000	8b 54 24 04	 mov	 edx, DWORD PTR _ctx$[esp-4]
  00004	81 c2 80 01 00
	00		 add	 edx, 384		; 00000180H
  0000a	89 54 24 04	 mov	 DWORD PTR _ctx$[esp-4], edx
  0000e	e9 00 00 00 00	 jmp	 _des3_crypt
_des3_decrypt ENDP
_TEXT	ENDS
END
