; Listing generated by Microsoft (R) Optimizing Compiler Version 13.10.6030 

	TITLE	\Documents and Settings\test\Mes documents\Source\Virtuos_v17\Build\Program\_Common\EventLua.cpp
	.386P
include listing.inc
if @Version gt 510
.model FLAT
else
_TEXT	SEGMENT PARA USE32 PUBLIC 'CODE'
_TEXT	ENDS
_DATA	SEGMENT DWORD USE32 PUBLIC 'DATA'
_DATA	ENDS
CONST	SEGMENT DWORD USE32 PUBLIC 'CONST'
CONST	ENDS
_BSS	SEGMENT DWORD USE32 PUBLIC 'BSS'
_BSS	ENDS
$$SYMBOLS	SEGMENT BYTE USE32 'DEBSYM'
$$SYMBOLS	ENDS
_TLS	SEGMENT DWORD USE32 PUBLIC 'TLS'
_TLS	ENDS
;	COMDAT ??_C@_0N@GOCBOLOF@IsNoticeTime?$AA@
CONST	SEGMENT DWORD USE32 PUBLIC 'CONST'
CONST	ENDS
;	COMDAT ??_C@_0BB@IJPGLPDI@GetNoticeMessage?$AA@
CONST	SEGMENT DWORD USE32 PUBLIC 'CONST'
CONST	ENDS
;	COMDAT ??_C@_0O@OHPKDJLJ@GetEventState?$AA@
CONST	SEGMENT DWORD USE32 PUBLIC 'CONST'
CONST	ENDS
;	COMDAT ??_C@_03HLJILIDP@nId?$AA@
CONST	SEGMENT DWORD USE32 PUBLIC 'CONST'
CONST	ENDS
;	COMDAT ??_C@_05JNKNAC@State?$AA@
CONST	SEGMENT DWORD USE32 PUBLIC 'CONST'
CONST	ENDS
;	COMDAT ??_C@_0N@CAKNNDNG@GetEventList?$AA@
CONST	SEGMENT DWORD USE32 PUBLIC 'CONST'
CONST	ENDS
;	COMDAT ??_C@_09BFLDBOAB@Event?4lua?$AA@
CONST	SEGMENT DWORD USE32 PUBLIC 'CONST'
CONST	ENDS
;	COMDAT ??_C@_0BH@KMCEPDIF@Event?4lua?5?$LN?G?G?$OA?5?$LN?G?F?P?$CB?$CB?$CB?$AA@
CONST	SEGMENT DWORD USE32 PUBLIC 'CONST'
CONST	ENDS
xdata$x	SEGMENT DWORD USE32 PUBLIC 'CONST'
xdata$x	ENDS
;	COMDAT ??0CEventLua@@QAE@XZ
_TEXT	SEGMENT PARA USE32 PUBLIC 'CODE'
_TEXT	ENDS
;	COMDAT ??_GCEventLua@@UAEPAXI@Z
_TEXT	SEGMENT PARA USE32 PUBLIC 'CODE'
_TEXT	ENDS
;	COMDAT ??1?$map@EHU?$less@E@std@@V?$allocator@U?$pair@$$CBEH@std@@@2@@std@@QAE@XZ
_TEXT	SEGMENT PARA USE32 PUBLIC 'CODE'
_TEXT	ENDS
;	COMDAT ??1CEventLua@@UAE@XZ
_TEXT	SEGMENT PARA USE32 PUBLIC 'CODE'
_TEXT	ENDS
;	COMDAT ?IsNoticeTime@CEventLua@@QAEHXZ
_TEXT	SEGMENT PARA USE32 PUBLIC 'CODE'
_TEXT	ENDS
;	COMDAT ?GetNoticeMessage@CEventLua@@QAE?AV?$vector@V?$basic_string@DU?$char_traits@D@std@@V?$allocator@D@2@@std@@V?$allocator@V?$basic_string@DU?$char_traits@D@std@@V?$allocator@D@2@@std@@@2@@std@@XZ
_TEXT	SEGMENT PARA USE32 PUBLIC 'CODE'
_TEXT	ENDS
;	COMDAT ?CheckEventState@CEventLua@@QAEHXZ
_TEXT	SEGMENT PARA USE32 PUBLIC 'CODE'
_TEXT	ENDS
;	COMDAT ?GetEventList@CEventLua@@QAE?AV?$vector@EV?$allocator@E@std@@@std@@H@Z
_TEXT	SEGMENT PARA USE32 PUBLIC 'CODE'
_TEXT	ENDS
;	COMDAT ?LoadScript@CEventLua@@QAEXXZ
_TEXT	SEGMENT PARA USE32 PUBLIC 'CODE'
_TEXT	ENDS
;	COMDAT ??0?$basic_string@DU?$char_traits@D@std@@V?$allocator@D@2@@std@@QAE@XZ
_TEXT	SEGMENT PARA USE32 PUBLIC 'CODE'
_TEXT	ENDS
;	COMDAT ?compare@?$basic_string@DU?$char_traits@D@std@@V?$allocator@D@2@@std@@QBEHABV12@@Z
_TEXT	SEGMENT PARA USE32 PUBLIC 'CODE'
_TEXT	ENDS
;	COMDAT ??0?$map@EHU?$less@E@std@@V?$allocator@U?$pair@$$CBEH@std@@@2@@std@@QAE@XZ
_TEXT	SEGMENT PARA USE32 PUBLIC 'CODE'
_TEXT	ENDS
;	COMDAT ??1?$_Tree@V?$_Tmap_traits@EHU?$less@E@std@@V?$allocator@U?$pair@$$CBEH@std@@@2@$0A@@std@@@std@@QAE@XZ
_TEXT	SEGMENT PARA USE32 PUBLIC 'CODE'
_TEXT	ENDS
;	COMDAT ?empty@?$_Tree@V?$_Tmap_traits@EHU?$less@E@std@@V?$allocator@U?$pair@$$CBEH@std@@@2@$0A@@std@@@std@@QBE_NXZ
_TEXT	SEGMENT PARA USE32 PUBLIC 'CODE'
_TEXT	ENDS
;	COMDAT ?insert@?$_Tree@V?$_Tmap_traits@EHU?$less@E@std@@V?$allocator@U?$pair@$$CBEH@std@@@2@$0A@@std@@@std@@QAE?AU?$pair@Viterator@?$_Tree@V?$_Tmap_traits@EHU?$less@E@std@@V?$allocator@U?$pair@$$CBEH@std@@@2@$0A@@std@@@std@@_N@2@ABU?$pair@$$CBEH@2@@Z
_TEXT	SEGMENT PARA USE32 PUBLIC 'CODE'
_TEXT	ENDS
;	COMDAT ?clear@?$_Tree@V?$_Tmap_traits@EHU?$less@E@std@@V?$allocator@U?$pair@$$CBEH@std@@@2@$0A@@std@@@std@@QAEXXZ
_TEXT	SEGMENT PARA USE32 PUBLIC 'CODE'
_TEXT	ENDS
;	COMDAT ??0?$vector@V?$basic_string@DU?$char_traits@D@std@@V?$allocator@D@2@@std@@V?$allocator@V?$basic_string@DU?$char_traits@D@std@@V?$allocator@D@2@@std@@@2@@std@@QAE@XZ
_TEXT	SEGMENT PARA USE32 PUBLIC 'CODE'
_TEXT	ENDS
;	COMDAT ??0?$vector@V?$basic_string@DU?$char_traits@D@std@@V?$allocator@D@2@@std@@V?$allocator@V?$basic_string@DU?$char_traits@D@std@@V?$allocator@D@2@@std@@@2@@std@@QAE@ABV01@@Z
_TEXT	SEGMENT PARA USE32 PUBLIC 'CODE'
_TEXT	ENDS
;	COMDAT ??1?$vector@V?$basic_string@DU?$char_traits@D@std@@V?$allocator@D@2@@std@@V?$allocator@V?$basic_string@DU?$char_traits@D@std@@V?$allocator@D@2@@std@@@2@@std@@QAE@XZ
_TEXT	SEGMENT PARA USE32 PUBLIC 'CODE'
_TEXT	ENDS
;	COMDAT ?push_back@?$vector@V?$basic_string@DU?$char_traits@D@std@@V?$allocator@D@2@@std@@V?$allocator@V?$basic_string@DU?$char_traits@D@std@@V?$allocator@D@2@@std@@@2@@std@@QAEXABV?$basic_string@DU?$char_traits@D@std@@V?$allocator@D@2@@2@@Z
_TEXT	SEGMENT PARA USE32 PUBLIC 'CODE'
_TEXT	ENDS
;	COMDAT ??0?$vector@EV?$allocator@E@std@@@std@@QAE@XZ
_TEXT	SEGMENT PARA USE32 PUBLIC 'CODE'
_TEXT	ENDS
;	COMDAT ??0?$vector@EV?$allocator@E@std@@@std@@QAE@ABV01@@Z
_TEXT	SEGMENT PARA USE32 PUBLIC 'CODE'
_TEXT	ENDS
;	COMDAT ??1?$vector@EV?$allocator@E@std@@@std@@QAE@XZ
_TEXT	SEGMENT PARA USE32 PUBLIC 'CODE'
_TEXT	ENDS
;	COMDAT ?push_back@?$vector@EV?$allocator@E@std@@@std@@QAEXABE@Z
_TEXT	SEGMENT PARA USE32 PUBLIC 'CODE'
_TEXT	ENDS
;	COMDAT ?compare@?$basic_string@DU?$char_traits@D@std@@V?$allocator@D@2@@std@@QBEHIIPBDI@Z
_TEXT	SEGMENT PARA USE32 PUBLIC 'CODE'
_TEXT	ENDS
;	COMDAT ??0?$allocator@V?$basic_string@DU?$char_traits@D@std@@V?$allocator@D@2@@std@@@std@@QAE@XZ
_TEXT	SEGMENT PARA USE32 PUBLIC 'CODE'
_TEXT	ENDS
;	COMDAT ??0?$allocator@V?$basic_string@DU?$char_traits@D@std@@V?$allocator@D@2@@std@@@std@@QAE@ABV01@@Z
_TEXT	SEGMENT PARA USE32 PUBLIC 'CODE'
_TEXT	ENDS
;	COMDAT ?_Isnil@?$_Tree@V?$_Tmap_traits@EHU?$less@E@std@@V?$allocator@U?$pair@$$CBEH@std@@@2@$0A@@std@@@std@@KAAADPAU_Node@?$_Tree_nod@V?$_Tmap_traits@EHU?$less@E@std@@V?$allocator@U?$pair@$$CBEH@std@@@2@$0A@@std@@@2@@Z
_TEXT	SEGMENT PARA USE32 PUBLIC 'CODE'
_TEXT	ENDS
;	COMDAT ?_Key@?$_Tree@V?$_Tmap_traits@EHU?$less@E@std@@V?$allocator@U?$pair@$$CBEH@std@@@2@$0A@@std@@@std@@KAABEPAU_Node@?$_Tree_nod@V?$_Tmap_traits@EHU?$less@E@std@@V?$allocator@U?$pair@$$CBEH@std@@@2@$0A@@std@@@2@@Z
_TEXT	SEGMENT PARA USE32 PUBLIC 'CODE'
_TEXT	ENDS
;	COMDAT ?_Left@?$_Tree@V?$_Tmap_traits@EHU?$less@E@std@@V?$allocator@U?$pair@$$CBEH@std@@@2@$0A@@std@@@std@@KAAAPAU_Node@?$_Tree_nod@V?$_Tmap_traits@EHU?$less@E@std@@V?$allocator@U?$pair@$$CBEH@std@@@2@$0A@@std@@@2@PAU342@@Z
_TEXT	SEGMENT PARA USE32 PUBLIC 'CODE'
_TEXT	ENDS
;	COMDAT ?_Right@?$_Tree@V?$_Tmap_traits@EHU?$less@E@std@@V?$allocator@U?$pair@$$CBEH@std@@@2@$0A@@std@@@std@@KAAAPAU_Node@?$_Tree_nod@V?$_Tmap_traits@EHU?$less@E@std@@V?$allocator@U?$pair@$$CBEH@std@@@2@$0A@@std@@@2@PAU342@@Z
_TEXT	SEGMENT PARA USE32 PUBLIC 'CODE'
_TEXT	ENDS
;	COMDAT ??0?$_Tree@V?$_Tmap_traits@EHU?$less@E@std@@V?$allocator@U?$pair@$$CBEH@std@@@2@$0A@@std@@@std@@QAE@ABU?$less@E@1@ABV?$allocator@U?$pair@$$CBEH@std@@@1@@Z
_TEXT	SEGMENT PARA USE32 PUBLIC 'CODE'
_TEXT	ENDS
;	COMDAT ?begin@?$_Tree@V?$_Tmap_traits@EHU?$less@E@std@@V?$allocator@U?$pair@$$CBEH@std@@@2@$0A@@std@@@std@@QAE?AViterator@12@XZ
_TEXT	SEGMENT PARA USE32 PUBLIC 'CODE'
_TEXT	ENDS
;	COMDAT ?size@?$_Tree@V?$_Tmap_traits@EHU?$less@E@std@@V?$allocator@U?$pair@$$CBEH@std@@@2@$0A@@std@@@std@@QBEIXZ
_TEXT	SEGMENT PARA USE32 PUBLIC 'CODE'
_TEXT	ENDS
;	COMDAT ?_Erase@?$_Tree@V?$_Tmap_traits@EHU?$less@E@std@@V?$allocator@U?$pair@$$CBEH@std@@@2@$0A@@std@@@std@@IAEXPAU_Node@?$_Tree_nod@V?$_Tmap_traits@EHU?$less@E@std@@V?$allocator@U?$pair@$$CBEH@std@@@2@$0A@@std@@@2@@Z
_TEXT	SEGMENT PARA USE32 PUBLIC 'CODE'
_TEXT	ENDS
;	COMDAT ?_Insert@?$_Tree@V?$_Tmap_traits@EHU?$less@E@std@@V?$allocator@U?$pair@$$CBEH@std@@@2@$0A@@std@@@std@@IAE?AViterator@12@_NPAU_Node@?$_Tree_nod@V?$_Tmap_traits@EHU?$less@E@std@@V?$allocator@U?$pair@$$CBEH@std@@@2@$0A@@std@@@2@ABU?$pair@$$CBEH@2@@Z
_TEXT	SEGMENT PARA USE32 PUBLIC 'CODE'
_TEXT	ENDS
;	COMDAT ?_Lmost@?$_Tree@V?$_Tmap_traits@EHU?$less@E@std@@V?$allocator@U?$pair@$$CBEH@std@@@2@$0A@@std@@@std@@IAEAAPAU_Node@?$_Tree_nod@V?$_Tmap_traits@EHU?$less@E@std@@V?$allocator@U?$pair@$$CBEH@std@@@2@$0A@@std@@@2@XZ
_TEXT	SEGMENT PARA USE32 PUBLIC 'CODE'
_TEXT	ENDS
;	COMDAT ?_Rmost@?$_Tree@V?$_Tmap_traits@EHU?$less@E@std@@V?$allocator@U?$pair@$$CBEH@std@@@2@$0A@@std@@@std@@IAEAAPAU_Node@?$_Tree_nod@V?$_Tmap_traits@EHU?$less@E@std@@V?$allocator@U?$pair@$$CBEH@std@@@2@$0A@@std@@@2@XZ
_TEXT	SEGMENT PARA USE32 PUBLIC 'CODE'
_TEXT	ENDS
;	COMDAT ?_Root@?$_Tree@V?$_Tmap_traits@EHU?$less@E@std@@V?$allocator@U?$pair@$$CBEH@std@@@2@$0A@@std@@@std@@IAEAAPAU_Node@?$_Tree_nod@V?$_Tmap_traits@EHU?$less@E@std@@V?$allocator@U?$pair@$$CBEH@std@@@2@$0A@@std@@@2@XZ
_TEXT	SEGMENT PARA USE32 PUBLIC 'CODE'
_TEXT	ENDS
;	COMDAT ?_Tidy@?$_Tree@V?$_Tmap_traits@EHU?$less@E@std@@V?$allocator@U?$pair@$$CBEH@std@@@2@$0A@@std@@@std@@IAEXXZ
_TEXT	SEGMENT PARA USE32 PUBLIC 'CODE'
_TEXT	ENDS
;	COMDAT ?_Kfn@?$_Tmap_traits@EHU?$less@E@std@@V?$allocator@U?$pair@$$CBEH@std@@@2@$0A@@std@@SAABEABU?$pair@$$CBEH@2@@Z
_TEXT	SEGMENT PARA USE32 PUBLIC 'CODE'
_TEXT	ENDS
;	COMDAT ??0?$allocator@U?$pair@$$CBEH@std@@@std@@QAE@XZ
_TEXT	SEGMENT PARA USE32 PUBLIC 'CODE'
_TEXT	ENDS
;	COMDAT ??R?$less@E@std@@QBE_NABE0@Z
_TEXT	SEGMENT PARA USE32 PUBLIC 'CODE'
_TEXT	ENDS
;	COMDAT ??0?$allocator@E@std@@QAE@XZ
_TEXT	SEGMENT PARA USE32 PUBLIC 'CODE'
_TEXT	ENDS
;	COMDAT ??0?$allocator@E@std@@QAE@ABV01@@Z
_TEXT	SEGMENT PARA USE32 PUBLIC 'CODE'
_TEXT	ENDS
;	COMDAT ?capacity@?$vector@V?$basic_string@DU?$char_traits@D@std@@V?$allocator@D@2@@std@@V?$allocator@V?$basic_string@DU?$char_traits@D@std@@V?$allocator@D@2@@std@@@2@@std@@QBEIXZ
_TEXT	SEGMENT PARA USE32 PUBLIC 'CODE'
_TEXT	ENDS
;	COMDAT ?begin@?$vector@V?$basic_string@DU?$char_traits@D@std@@V?$allocator@D@2@@std@@V?$allocator@V?$basic_string@DU?$char_traits@D@std@@V?$allocator@D@2@@std@@@2@@std@@QBE?AVconst_iterator@12@XZ
_TEXT	SEGMENT PARA USE32 PUBLIC 'CODE'
_TEXT	ENDS
;	COMDAT ?end@?$vector@V?$basic_string@DU?$char_traits@D@std@@V?$allocator@D@2@@std@@V?$allocator@V?$basic_string@DU?$char_traits@D@std@@V?$allocator@D@2@@std@@@2@@std@@QAE?AViterator@12@XZ
_TEXT	SEGMENT PARA USE32 PUBLIC 'CODE'
_TEXT	ENDS
;	COMDAT ?end@?$vector@V?$basic_string@DU?$char_traits@D@std@@V?$allocator@D@2@@std@@V?$allocator@V?$basic_string@DU?$char_traits@D@std@@V?$allocator@D@2@@std@@@2@@std@@QBE?AVconst_iterator@12@XZ
_TEXT	SEGMENT PARA USE32 PUBLIC 'CODE'
_TEXT	ENDS
;	COMDAT ?size@?$vector@V?$basic_string@DU?$char_traits@D@std@@V?$allocator@D@2@@std@@V?$allocator@V?$basic_string@DU?$char_traits@D@std@@V?$allocator@D@2@@std@@@2@@std@@QBEIXZ
_TEXT	SEGMENT PARA USE32 PUBLIC 'CODE'
_TEXT	ENDS
;	COMDAT ?insert@?$vector@V?$basic_string@DU?$char_traits@D@std@@V?$allocator@D@2@@std@@V?$allocator@V?$basic_string@DU?$char_traits@D@std@@V?$allocator@D@2@@std@@@2@@std@@QAE?AViterator@12@V312@ABV?$basic_string@DU?$char_traits@D@std@@V?$allocator@D@2@@2@@Z
_TEXT	SEGMENT PARA USE32 PUBLIC 'CODE'
_TEXT	ENDS
;	COMDAT ?_Buy@?$vector@V?$basic_string@DU?$char_traits@D@std@@V?$allocator@D@2@@std@@V?$allocator@V?$basic_string@DU?$char_traits@D@std@@V?$allocator@D@2@@std@@@2@@std@@IAE_NI@Z
_TEXT	SEGMENT PARA USE32 PUBLIC 'CODE'
_TEXT	ENDS
;	COMDAT ?_Tidy@?$vector@V?$basic_string@DU?$char_traits@D@std@@V?$allocator@D@2@@std@@V?$allocator@V?$basic_string@DU?$char_traits@D@std@@V?$allocator@D@2@@std@@@2@@std@@IAEXXZ
_TEXT	SEGMENT PARA USE32 PUBLIC 'CODE'
_TEXT	ENDS
;	COMDAT ?_Ufill@?$vector@V?$basic_string@DU?$char_traits@D@std@@V?$allocator@D@2@@std@@V?$allocator@V?$basic_string@DU?$char_traits@D@std@@V?$allocator@D@2@@std@@@2@@std@@IAEPAV?$basic_string@DU?$char_traits@D@std@@V?$allocator@D@2@@2@PAV32@IABV32@@Z
_TEXT	SEGMENT PARA USE32 PUBLIC 'CODE'
_TEXT	ENDS
;	COMDAT ??0?$_Vector_val@V?$basic_string@DU?$char_traits@D@std@@V?$allocator@D@2@@std@@V?$allocator@V?$basic_string@DU?$char_traits@D@std@@V?$allocator@D@2@@std@@@2@@std@@IAE@V?$allocator@V?$basic_string@DU?$char_traits@D@std@@V?$allocator@D@2@@std@@@1@@Z
_TEXT	SEGMENT PARA USE32 PUBLIC 'CODE'
_TEXT	ENDS
;	COMDAT ??0?$pair@Viterator@?$_Tree@V?$_Tmap_traits@EHU?$less@E@std@@V?$allocator@U?$pair@$$CBEH@std@@@2@$0A@@std@@@std@@_N@std@@QAE@ABViterator@?$_Tree@V?$_Tmap_traits@EHU?$less@E@std@@V?$allocator@U?$pair@$$CBEH@std@@@2@$0A@@std@@@1@AB_N@Z
_TEXT	SEGMENT PARA USE32 PUBLIC 'CODE'
_TEXT	ENDS
;	COMDAT ??0iterator@?$_Tree@V?$_Tmap_traits@EHU?$less@E@std@@V?$allocator@U?$pair@$$CBEH@std@@@2@$0A@@std@@@std@@QAE@PAU_Node@?$_Tree_nod@V?$_Tmap_traits@EHU?$less@E@std@@V?$allocator@U?$pair@$$CBEH@std@@@2@$0A@@std@@@2@@Z
_TEXT	SEGMENT PARA USE32 PUBLIC 'CODE'
_TEXT	ENDS
;	COMDAT ??Fiterator@?$_Tree@V?$_Tmap_traits@EHU?$less@E@std@@V?$allocator@U?$pair@$$CBEH@std@@@2@$0A@@std@@@std@@QAEAAV012@XZ
_TEXT	SEGMENT PARA USE32 PUBLIC 'CODE'
_TEXT	ENDS
;	COMDAT ??8const_iterator@?$_Tree@V?$_Tmap_traits@EHU?$less@E@std@@V?$allocator@U?$pair@$$CBEH@std@@@2@$0A@@std@@@std@@QBE_NABV012@@Z
_TEXT	SEGMENT PARA USE32 PUBLIC 'CODE'
_TEXT	ENDS
;	COMDAT ?_Mynode@const_iterator@?$_Tree@V?$_Tmap_traits@EHU?$less@E@std@@V?$allocator@U?$pair@$$CBEH@std@@@2@$0A@@std@@@std@@QBEPAU_Node@?$_Tree_nod@V?$_Tmap_traits@EHU?$less@E@std@@V?$allocator@U?$pair@$$CBEH@std@@@2@$0A@@std@@@3@XZ
_TEXT	SEGMENT PARA USE32 PUBLIC 'CODE'
_TEXT	ENDS
;	COMDAT ?capacity@?$vector@EV?$allocator@E@std@@@std@@QBEIXZ
_TEXT	SEGMENT PARA USE32 PUBLIC 'CODE'
_TEXT	ENDS
;	COMDAT ?begin@?$vector@EV?$allocator@E@std@@@std@@QBE?AVconst_iterator@12@XZ
_TEXT	SEGMENT PARA USE32 PUBLIC 'CODE'
_TEXT	ENDS
;	COMDAT ?end@?$vector@EV?$allocator@E@std@@@std@@QAE?AViterator@12@XZ
_TEXT	SEGMENT PARA USE32 PUBLIC 'CODE'
_TEXT	ENDS
;	COMDAT ?end@?$vector@EV?$allocator@E@std@@@std@@QBE?AVconst_iterator@12@XZ
_TEXT	SEGMENT PARA USE32 PUBLIC 'CODE'
_TEXT	ENDS
;	COMDAT ?size@?$vector@EV?$allocator@E@std@@@std@@QBEIXZ
_TEXT	SEGMENT PARA USE32 PUBLIC 'CODE'
_TEXT	ENDS
;	COMDAT ?insert@?$vector@EV?$allocator@E@std@@@std@@QAE?AViterator@12@V312@ABE@Z
_TEXT	SEGMENT PARA USE32 PUBLIC 'CODE'
_TEXT	ENDS
;	COMDAT ?_Buy@?$vector@EV?$allocator@E@std@@@std@@IAE_NI@Z
_TEXT	SEGMENT PARA USE32 PUBLIC 'CODE'
_TEXT	ENDS
;	COMDAT ?_Tidy@?$vector@EV?$allocator@E@std@@@std@@IAEXXZ
_TEXT	SEGMENT PARA USE32 PUBLIC 'CODE'
_TEXT	ENDS
;	COMDAT ?_Ufill@?$vector@EV?$allocator@E@std@@@std@@IAEPAEPAEIABE@Z
_TEXT	SEGMENT PARA USE32 PUBLIC 'CODE'
_TEXT	ENDS
;	COMDAT ??0?$_Vector_val@EV?$allocator@E@std@@@std@@IAE@V?$allocator@E@1@@Z
_TEXT	SEGMENT PARA USE32 PUBLIC 'CODE'
_TEXT	ENDS
;	COMDAT ?deallocate@?$allocator@V?$basic_string@DU?$char_traits@D@std@@V?$allocator@D@2@@std@@@std@@QAEXPAV?$basic_string@DU?$char_traits@D@std@@V?$allocator@D@2@@2@I@Z
_TEXT	SEGMENT PARA USE32 PUBLIC 'CODE'
_TEXT	ENDS
;	COMDAT ?allocate@?$allocator@V?$basic_string@DU?$char_traits@D@std@@V?$allocator@D@2@@std@@@std@@QAEPAV?$basic_string@DU?$char_traits@D@std@@V?$allocator@D@2@@2@I@Z
_TEXT	SEGMENT PARA USE32 PUBLIC 'CODE'
_TEXT	ENDS
;	COMDAT ?_Color@?$_Tree@V?$_Tmap_traits@EHU?$less@E@std@@V?$allocator@U?$pair@$$CBEH@std@@@2@$0A@@std@@@std@@KAAADPAU_Node@?$_Tree_nod@V?$_Tmap_traits@EHU?$less@E@std@@V?$allocator@U?$pair@$$CBEH@std@@@2@$0A@@std@@@2@@Z
_TEXT	SEGMENT PARA USE32 PUBLIC 'CODE'
_TEXT	ENDS
;	COMDAT ?_Parent@?$_Tree@V?$_Tmap_traits@EHU?$less@E@std@@V?$allocator@U?$pair@$$CBEH@std@@@2@$0A@@std@@@std@@KAAAPAU_Node@?$_Tree_nod@V?$_Tmap_traits@EHU?$less@E@std@@V?$allocator@U?$pair@$$CBEH@std@@@2@$0A@@std@@@2@PAU342@@Z
_TEXT	SEGMENT PARA USE32 PUBLIC 'CODE'
_TEXT	ENDS
;	COMDAT ?_Myval@?$_Tree@V?$_Tmap_traits@EHU?$less@E@std@@V?$allocator@U?$pair@$$CBEH@std@@@2@$0A@@std@@@std@@KAAAU?$pair@$$CBEH@2@PAU_Node@?$_Tree_nod@V?$_Tmap_traits@EHU?$less@E@std@@V?$allocator@U?$pair@$$CBEH@std@@@2@$0A@@std@@@2@@Z
_TEXT	SEGMENT PARA USE32 PUBLIC 'CODE'
_TEXT	ENDS
;	COMDAT ?end@?$_Tree@V?$_Tmap_traits@EHU?$less@E@std@@V?$allocator@U?$pair@$$CBEH@std@@@2@$0A@@std@@@std@@QAE?AViterator@12@XZ
_TEXT	SEGMENT PARA USE32 PUBLIC 'CODE'
_TEXT	ENDS
;	COMDAT ?max_size@?$_Tree@V?$_Tmap_traits@EHU?$less@E@std@@V?$allocator@U?$pair@$$CBEH@std@@@2@$0A@@std@@@std@@QBEIXZ
_TEXT	SEGMENT PARA USE32 PUBLIC 'CODE'
_TEXT	ENDS
;	COMDAT ?erase@?$_Tree@V?$_Tmap_traits@EHU?$less@E@std@@V?$allocator@U?$pair@$$CBEH@std@@@2@$0A@@std@@@std@@QAE?AViterator@12@V312@0@Z
_TEXT	SEGMENT PARA USE32 PUBLIC 'CODE'
_TEXT	ENDS
;	COMDAT ?_Init@?$_Tree@V?$_Tmap_traits@EHU?$less@E@std@@V?$allocator@U?$pair@$$CBEH@std@@@2@$0A@@std@@@std@@IAEXXZ
_TEXT	SEGMENT PARA USE32 PUBLIC 'CODE'
_TEXT	ENDS
;	COMDAT ?_Lrotate@?$_Tree@V?$_Tmap_traits@EHU?$less@E@std@@V?$allocator@U?$pair@$$CBEH@std@@@2@$0A@@std@@@std@@IAEXPAU_Node@?$_Tree_nod@V?$_Tmap_traits@EHU?$less@E@std@@V?$allocator@U?$pair@$$CBEH@std@@@2@$0A@@std@@@2@@Z
_TEXT	SEGMENT PARA USE32 PUBLIC 'CODE'
_TEXT	ENDS
;	COMDAT ?_Rrotate@?$_Tree@V?$_Tmap_traits@EHU?$less@E@std@@V?$allocator@U?$pair@$$CBEH@std@@@2@$0A@@std@@@std@@IAEXPAU_Node@?$_Tree_nod@V?$_Tmap_traits@EHU?$less@E@std@@V?$allocator@U?$pair@$$CBEH@std@@@2@$0A@@std@@@2@@Z
_TEXT	SEGMENT PARA USE32 PUBLIC 'CODE'
_TEXT	ENDS
;	COMDAT ?_Buynode@?$_Tree@V?$_Tmap_traits@EHU?$less@E@std@@V?$allocator@U?$pair@$$CBEH@std@@@2@$0A@@std@@@std@@IAEPAU_Node@?$_Tree_nod@V?$_Tmap_traits@EHU?$less@E@std@@V?$allocator@U?$pair@$$CBEH@std@@@2@$0A@@std@@@2@PAU342@00ABU?$pair@$$CBEH@2@D@Z
_TEXT	SEGMENT PARA USE32 PUBLIC 'CODE'
_TEXT	ENDS
;	COMDAT ??0?$_Tree_val@V?$_Tmap_traits@EHU?$less@E@std@@V?$allocator@U?$pair@$$CBEH@std@@@2@$0A@@std@@@std@@IAE@ABU?$less@E@1@V?$allocator@U?$pair@$$CBEH@std@@@1@@Z
_TEXT	SEGMENT PARA USE32 PUBLIC 'CODE'
_TEXT	ENDS
;	COMDAT ??0?$allocator@U?$pair@$$CBEH@std@@@std@@QAE@ABV01@@Z
_TEXT	SEGMENT PARA USE32 PUBLIC 'CODE'
_TEXT	ENDS
;	COMDAT ?deallocate@?$allocator@U_Node@?$_Tree_nod@V?$_Tmap_traits@EHU?$less@E@std@@V?$allocator@U?$pair@$$CBEH@std@@@2@$0A@@std@@@std@@@std@@QAEXPAU_Node@?$_Tree_nod@V?$_Tmap_traits@EHU?$less@E@std@@V?$allocator@U?$pair@$$CBEH@std@@@2@$0A@@std@@@2@I@Z
_TEXT	SEGMENT PARA USE32 PUBLIC 'CODE'
_TEXT	ENDS
;	COMDAT ?destroy@?$allocator@U_Node@?$_Tree_nod@V?$_Tmap_traits@EHU?$less@E@std@@V?$allocator@U?$pair@$$CBEH@std@@@2@$0A@@std@@@std@@@std@@QAEXPAU_Node@?$_Tree_nod@V?$_Tmap_traits@EHU?$less@E@std@@V?$allocator@U?$pair@$$CBEH@std@@@2@$0A@@std@@@2@@Z
_TEXT	SEGMENT PARA USE32 PUBLIC 'CODE'
_TEXT	ENDS
;	COMDAT ?destroy@?$allocator@PAU_Node@?$_Tree_nod@V?$_Tmap_traits@EHU?$less@E@std@@V?$allocator@U?$pair@$$CBEH@std@@@2@$0A@@std@@@std@@@std@@QAEXPAPAU_Node@?$_Tree_nod@V?$_Tmap_traits@EHU?$less@E@std@@V?$allocator@U?$pair@$$CBEH@std@@@2@$0A@@std@@@2@@Z
_TEXT	SEGMENT PARA USE32 PUBLIC 'CODE'
_TEXT	ENDS
;	COMDAT ?deallocate@?$allocator@E@std@@QAEXPAEI@Z
_TEXT	SEGMENT PARA USE32 PUBLIC 'CODE'
_TEXT	ENDS
;	COMDAT ?allocate@?$allocator@E@std@@QAEPAEI@Z
_TEXT	SEGMENT PARA USE32 PUBLIC 'CODE'
_TEXT	ENDS
;	COMDAT ?begin@?$vector@V?$basic_string@DU?$char_traits@D@std@@V?$allocator@D@2@@std@@V?$allocator@V?$basic_string@DU?$char_traits@D@std@@V?$allocator@D@2@@std@@@2@@std@@QAE?AViterator@12@XZ
_TEXT	SEGMENT PARA USE32 PUBLIC 'CODE'
_TEXT	ENDS
;	COMDAT ?max_size@?$vector@V?$basic_string@DU?$char_traits@D@std@@V?$allocator@D@2@@std@@V?$allocator@V?$basic_string@DU?$char_traits@D@std@@V?$allocator@D@2@@std@@@2@@std@@QBEIXZ
_TEXT	SEGMENT PARA USE32 PUBLIC 'CODE'
_TEXT	ENDS
;	COMDAT ?_Destroy@?$vector@V?$basic_string@DU?$char_traits@D@std@@V?$allocator@D@2@@std@@V?$allocator@V?$basic_string@DU?$char_traits@D@std@@V?$allocator@D@2@@std@@@2@@std@@IAEXPAV?$basic_string@DU?$char_traits@D@std@@V?$allocator@D@2@@2@0@Z
_TEXT	SEGMENT PARA USE32 PUBLIC 'CODE'
_TEXT	ENDS
;	COMDAT ?_Insert_n@?$vector@V?$basic_string@DU?$char_traits@D@std@@V?$allocator@D@2@@std@@V?$allocator@V?$basic_string@DU?$char_traits@D@std@@V?$allocator@D@2@@std@@@2@@std@@IAEXViterator@12@IABV?$basic_string@DU?$char_traits@D@std@@V?$allocator@D@2@@2@@Z
_TEXT	SEGMENT PARA USE32 PUBLIC 'CODE'
_TEXT	ENDS
;	COMDAT ?_Xlen@?$vector@V?$basic_string@DU?$char_traits@D@std@@V?$allocator@D@2@@std@@V?$allocator@V?$basic_string@DU?$char_traits@D@std@@V?$allocator@D@2@@std@@@2@@std@@IBEXXZ
_TEXT	SEGMENT PARA USE32 PUBLIC 'CODE'
_TEXT	ENDS
;	COMDAT ??0const_iterator@?$_Tree@V?$_Tmap_traits@EHU?$less@E@std@@V?$allocator@U?$pair@$$CBEH@std@@@2@$0A@@std@@@std@@QAE@PAU_Node@?$_Tree_nod@V?$_Tmap_traits@EHU?$less@E@std@@V?$allocator@U?$pair@$$CBEH@std@@@2@$0A@@std@@@2@@Z
_TEXT	SEGMENT PARA USE32 PUBLIC 'CODE'
_TEXT	ENDS
;	COMDAT ??Fconst_iterator@?$_Tree@V?$_Tmap_traits@EHU?$less@E@std@@V?$allocator@U?$pair@$$CBEH@std@@@2@$0A@@std@@@std@@QAEAAV012@XZ
_TEXT	SEGMENT PARA USE32 PUBLIC 'CODE'
_TEXT	ENDS
;	COMDAT ?begin@?$vector@EV?$allocator@E@std@@@std@@QAE?AViterator@12@XZ
_TEXT	SEGMENT PARA USE32 PUBLIC 'CODE'
_TEXT	ENDS
;	COMDAT ?max_size@?$vector@EV?$allocator@E@std@@@std@@QBEIXZ
_TEXT	SEGMENT PARA USE32 PUBLIC 'CODE'
_TEXT	ENDS
;	COMDAT ?_Destroy@?$vector@EV?$allocator@E@std@@@std@@IAEXPAE0@Z
_TEXT	SEGMENT PARA USE32 PUBLIC 'CODE'
_TEXT	ENDS
;	COMDAT ?_Insert_n@?$vector@EV?$allocator@E@std@@@std@@IAEXViterator@12@IABE@Z
_TEXT	SEGMENT PARA USE32 PUBLIC 'CODE'
_TEXT	ENDS
;	COMDAT ?_Xlen@?$vector@EV?$allocator@E@std@@@std@@IBEXXZ
_TEXT	SEGMENT PARA USE32 PUBLIC 'CODE'
_TEXT	ENDS
;	COMDAT ??0const_iterator@?$vector@V?$basic_string@DU?$char_traits@D@std@@V?$allocator@D@2@@std@@V?$allocator@V?$basic_string@DU?$char_traits@D@std@@V?$allocator@D@2@@std@@@2@@std@@QAE@PAV?$basic_string@DU?$char_traits@D@std@@V?$allocator@D@2@@2@@Z
_TEXT	SEGMENT PARA USE32 PUBLIC 'CODE'
_TEXT	ENDS
;	COMDAT ??0iterator@?$vector@V?$basic_string@DU?$char_traits@D@std@@V?$allocator@D@2@@std@@V?$allocator@V?$basic_string@DU?$char_traits@D@std@@V?$allocator@D@2@@std@@@2@@std@@QAE@PAV?$basic_string@DU?$char_traits@D@std@@V?$allocator@D@2@@2@@Z
_TEXT	SEGMENT PARA USE32 PUBLIC 'CODE'
_TEXT	ENDS
;	COMDAT ??Hiterator@?$vector@V?$basic_string@DU?$char_traits@D@std@@V?$allocator@D@2@@std@@V?$allocator@V?$basic_string@DU?$char_traits@D@std@@V?$allocator@D@2@@std@@@2@@std@@QBE?AV012@H@Z
_TEXT	SEGMENT PARA USE32 PUBLIC 'CODE'
_TEXT	ENDS
;	COMDAT ??Giterator@?$vector@V?$basic_string@DU?$char_traits@D@std@@V?$allocator@D@2@@std@@V?$allocator@V?$basic_string@DU?$char_traits@D@std@@V?$allocator@D@2@@std@@@2@@std@@QBEHABVconst_iterator@12@@Z
_TEXT	SEGMENT PARA USE32 PUBLIC 'CODE'
_TEXT	ENDS
;	COMDAT ??0const_iterator@?$vector@EV?$allocator@E@std@@@std@@QAE@PAE@Z
_TEXT	SEGMENT PARA USE32 PUBLIC 'CODE'
_TEXT	ENDS
;	COMDAT ??0iterator@?$vector@EV?$allocator@E@std@@@std@@QAE@PAE@Z
_TEXT	SEGMENT PARA USE32 PUBLIC 'CODE'
_TEXT	ENDS
;	COMDAT ??Hiterator@?$vector@EV?$allocator@E@std@@@std@@QBE?AV012@H@Z
_TEXT	SEGMENT PARA USE32 PUBLIC 'CODE'
_TEXT	ENDS
;	COMDAT ??Giterator@?$vector@EV?$allocator@E@std@@@std@@QBEHABVconst_iterator@12@@Z
_TEXT	SEGMENT PARA USE32 PUBLIC 'CODE'
_TEXT	ENDS
;	COMDAT ?max_size@?$allocator@V?$basic_string@DU?$char_traits@D@std@@V?$allocator@D@2@@std@@@std@@QBEIXZ
_TEXT	SEGMENT PARA USE32 PUBLIC 'CODE'
_TEXT	ENDS
;	COMDAT ?erase@?$_Tree@V?$_Tmap_traits@EHU?$less@E@std@@V?$allocator@U?$pair@$$CBEH@std@@@2@$0A@@std@@@std@@QAE?AViterator@12@V312@@Z
_TEXT	SEGMENT PARA USE32 PUBLIC 'CODE'
_TEXT	ENDS
;	COMDAT ?_Buynode@?$_Tree@V?$_Tmap_traits@EHU?$less@E@std@@V?$allocator@U?$pair@$$CBEH@std@@@2@$0A@@std@@@std@@IAEPAU_Node@?$_Tree_nod@V?$_Tmap_traits@EHU?$less@E@std@@V?$allocator@U?$pair@$$CBEH@std@@@2@$0A@@std@@@2@XZ
_TEXT	SEGMENT PARA USE32 PUBLIC 'CODE'
_TEXT	ENDS
;	COMDAT ??0?$_Tree_ptr@V?$_Tmap_traits@EHU?$less@E@std@@V?$allocator@U?$pair@$$CBEH@std@@@2@$0A@@std@@@std@@IAE@ABU?$less@E@1@V?$allocator@U?$pair@$$CBEH@std@@@1@@Z
_TEXT	SEGMENT PARA USE32 PUBLIC 'CODE'
_TEXT	ENDS
;	COMDAT ?max_size@?$allocator@U?$pair@$$CBEH@std@@@std@@QBEIXZ
_TEXT	SEGMENT PARA USE32 PUBLIC 'CODE'
_TEXT	ENDS
;	COMDAT ?allocate@?$allocator@U_Node@?$_Tree_nod@V?$_Tmap_traits@EHU?$less@E@std@@V?$allocator@U?$pair@$$CBEH@std@@@2@$0A@@std@@@std@@@std@@QAEPAU_Node@?$_Tree_nod@V?$_Tmap_traits@EHU?$less@E@std@@V?$allocator@U?$pair@$$CBEH@std@@@2@$0A@@std@@@2@I@Z
_TEXT	SEGMENT PARA USE32 PUBLIC 'CODE'
_TEXT	ENDS
;	COMDAT ?max_size@?$allocator@E@std@@QBEIXZ
_TEXT	SEGMENT PARA USE32 PUBLIC 'CODE'
_TEXT	ENDS
;	COMDAT ??Eiterator@?$_Tree@V?$_Tmap_traits@EHU?$less@E@std@@V?$allocator@U?$pair@$$CBEH@std@@@2@$0A@@std@@@std@@QAE?AV012@H@Z
_TEXT	SEGMENT PARA USE32 PUBLIC 'CODE'
_TEXT	ENDS
;	COMDAT ??9const_iterator@?$_Tree@V?$_Tmap_traits@EHU?$less@E@std@@V?$allocator@U?$pair@$$CBEH@std@@@2@$0A@@std@@@std@@QBE_NABV012@@Z
_TEXT	SEGMENT PARA USE32 PUBLIC 'CODE'
_TEXT	ENDS
;	COMDAT ?_Dec@const_iterator@?$_Tree@V?$_Tmap_traits@EHU?$less@E@std@@V?$allocator@U?$pair@$$CBEH@std@@@2@$0A@@std@@@std@@QAEXXZ
_TEXT	SEGMENT PARA USE32 PUBLIC 'CODE'
_TEXT	ENDS
;	COMDAT ??Gconst_iterator@?$vector@V?$basic_string@DU?$char_traits@D@std@@V?$allocator@D@2@@std@@V?$allocator@V?$basic_string@DU?$char_traits@D@std@@V?$allocator@D@2@@std@@@2@@std@@QBEHABV012@@Z
_TEXT	SEGMENT PARA USE32 PUBLIC 'CODE'
_TEXT	ENDS
;	COMDAT ??Yiterator@?$vector@V?$basic_string@DU?$char_traits@D@std@@V?$allocator@D@2@@std@@V?$allocator@V?$basic_string@DU?$char_traits@D@std@@V?$allocator@D@2@@std@@@2@@std@@QAEAAV012@H@Z
_TEXT	SEGMENT PARA USE32 PUBLIC 'CODE'
_TEXT	ENDS
;	COMDAT ??Gconst_iterator@?$vector@EV?$allocator@E@std@@@std@@QBEHABV012@@Z
_TEXT	SEGMENT PARA USE32 PUBLIC 'CODE'
_TEXT	ENDS
;	COMDAT ??Yiterator@?$vector@EV?$allocator@E@std@@@std@@QAEAAV012@H@Z
_TEXT	SEGMENT PARA USE32 PUBLIC 'CODE'
_TEXT	ENDS
;	COMDAT ??0_Node@?$_Tree_nod@V?$_Tmap_traits@EHU?$less@E@std@@V?$allocator@U?$pair@$$CBEH@std@@@2@$0A@@std@@@std@@QAE@PAU012@00ABU?$pair@$$CBEH@2@D@Z
_TEXT	SEGMENT PARA USE32 PUBLIC 'CODE'
_TEXT	ENDS
;	COMDAT ?_Max@?$_Tree@V?$_Tmap_traits@EHU?$less@E@std@@V?$allocator@U?$pair@$$CBEH@std@@@2@$0A@@std@@@std@@KAPAU_Node@?$_Tree_nod@V?$_Tmap_traits@EHU?$less@E@std@@V?$allocator@U?$pair@$$CBEH@std@@@2@$0A@@std@@@2@PAU342@@Z
_TEXT	SEGMENT PARA USE32 PUBLIC 'CODE'
_TEXT	ENDS
;	COMDAT ?_Min@?$_Tree@V?$_Tmap_traits@EHU?$less@E@std@@V?$allocator@U?$pair@$$CBEH@std@@@2@$0A@@std@@@std@@KAPAU_Node@?$_Tree_nod@V?$_Tmap_traits@EHU?$less@E@std@@V?$allocator@U?$pair@$$CBEH@std@@@2@$0A@@std@@@2@PAU342@@Z
_TEXT	SEGMENT PARA USE32 PUBLIC 'CODE'
_TEXT	ENDS
;	COMDAT ??0?$_Tree_nod@V?$_Tmap_traits@EHU?$less@E@std@@V?$allocator@U?$pair@$$CBEH@std@@@2@$0A@@std@@@std@@IAE@ABU?$less@E@1@V?$allocator@U?$pair@$$CBEH@std@@@1@@Z
_TEXT	SEGMENT PARA USE32 PUBLIC 'CODE'
_TEXT	ENDS
;	COMDAT ?construct@?$allocator@PAU_Node@?$_Tree_nod@V?$_Tmap_traits@EHU?$less@E@std@@V?$allocator@U?$pair@$$CBEH@std@@@2@$0A@@std@@@std@@@std@@QAEXPAPAU_Node@?$_Tree_nod@V?$_Tmap_traits@EHU?$less@E@std@@V?$allocator@U?$pair@$$CBEH@std@@@2@$0A@@std@@@2@ABQAU342@@Z
_TEXT	SEGMENT PARA USE32 PUBLIC 'CODE'
_TEXT	ENDS
;	COMDAT ??Eiterator@?$_Tree@V?$_Tmap_traits@EHU?$less@E@std@@V?$allocator@U?$pair@$$CBEH@std@@@2@$0A@@std@@@std@@QAEAAV012@XZ
_TEXT	SEGMENT PARA USE32 PUBLIC 'CODE'
_TEXT	ENDS
;	COMDAT ??0?$_Tmap_traits@EHU?$less@E@std@@V?$allocator@U?$pair@$$CBEH@std@@@2@$0A@@std@@QAE@U?$less@E@1@@Z
_TEXT	SEGMENT PARA USE32 PUBLIC 'CODE'
_TEXT	ENDS
;	COMDAT ??Econst_iterator@?$_Tree@V?$_Tmap_traits@EHU?$less@E@std@@V?$allocator@U?$pair@$$CBEH@std@@@2@$0A@@std@@@std@@QAEAAV012@XZ
_TEXT	SEGMENT PARA USE32 PUBLIC 'CODE'
_TEXT	ENDS
;	COMDAT ?_Inc@const_iterator@?$_Tree@V?$_Tmap_traits@EHU?$less@E@std@@V?$allocator@U?$pair@$$CBEH@std@@@2@$0A@@std@@@std@@QAEXXZ
_TEXT	SEGMENT PARA USE32 PUBLIC 'CODE'
_TEXT	ENDS
;	COMDAT ??$_Iter_cat@Viterator@?$_Tree@V?$_Tmap_traits@KU_Friend@@U?$less@K@std@@V?$allocator@U?$pair@$$CBKU_Friend@@@std@@@3@$0A@@std@@@std@@@std@@YA?AUbidirectional_iterator_tag@0@ABViterator@?$_Tree@V?$_Tmap_traits@KU_Friend@@U?$less@K@std@@V?$allocator@U?$pair@$$CBKU_Friend@@@std@@@3@$0A@@std@@@0@@Z
_TEXT	SEGMENT PARA USE32 PUBLIC 'CODE'
_TEXT	ENDS
;	COMDAT ??$_Distance2@Viterator@?$_Tree@V?$_Tmap_traits@KU_Friend@@U?$less@K@std@@V?$allocator@U?$pair@$$CBKU_Friend@@@std@@@3@$0A@@std@@@std@@I@std@@YAXViterator@?$_Tree@V?$_Tmap_traits@KU_Friend@@U?$less@K@std@@V?$allocator@U?$pair@$$CBKU_Friend@@@std@@@3@$0A@@std@@@0@0AAIUbidirectional_iterator_tag@0@@Z
_TEXT	SEGMENT PARA USE32 PUBLIC 'CODE'
_TEXT	ENDS
;	COMDAT ??$_Copy_opt@PAJPAJ@std@@YAPAJPAJ00U_Scalar_ptr_iterator_tag@0@@Z
_TEXT	SEGMENT PARA USE32 PUBLIC 'CODE'
_TEXT	ENDS
;	COMDAT ??$_Uninitialized_copy@PAJPAJV?$allocator@J@std@@@std@@YAPAJPAJ00AAV?$allocator@J@0@@Z
_TEXT	SEGMENT PARA USE32 PUBLIC 'CODE'
_TEXT	ENDS
;	COMDAT ??$_Copy_backward_opt@PAJPAJ@std@@YAPAJPAJ00U_Scalar_ptr_iterator_tag@0@@Z
_TEXT	SEGMENT PARA USE32 PUBLIC 'CODE'
_TEXT	ENDS
;	COMDAT ??$_Ptr_cat@PAUtagDROPITEM@@PAU1@@std@@YA?AU_Nonscalar_ptr_iterator_tag@0@AAPAUtagDROPITEM@@0@Z
_TEXT	SEGMENT PARA USE32 PUBLIC 'CODE'
_TEXT	ENDS
;	COMDAT ??$_Destroy_range@UtagDROPITEM@@V?$allocator@UtagDROPITEM@@@std@@@std@@YAXPAUtagDROPITEM@@0AAV?$allocator@UtagDROPITEM@@@0@U_Nonscalar_ptr_iterator_tag@0@@Z
_TEXT	SEGMENT PARA USE32 PUBLIC 'CODE'
_TEXT	ENDS
;	COMDAT ??$_Destroy_range@KV?$allocator@K@std@@@std@@YAXPAK0AAV?$allocator@K@0@U_Scalar_ptr_iterator_tag@0@@Z
_TEXT	SEGMENT PARA USE32 PUBLIC 'CODE'
_TEXT	ENDS
;	COMDAT ??$_Destroy_range@JV?$allocator@J@std@@@std@@YAXPAJ0AAV?$allocator@J@0@U_Scalar_ptr_iterator_tag@0@@Z
_TEXT	SEGMENT PARA USE32 PUBLIC 'CODE'
_TEXT	ENDS
;	COMDAT ??$_Uninit_fill_n@JIJ@std@@YAXPAJIABJAAV?$allocator@J@0@U_Scalar_ptr_iterator_tag@0@@Z
_TEXT	SEGMENT PARA USE32 PUBLIC 'CODE'
_TEXT	ENDS
;	COMDAT ??$make_pair@EH@std@@YA?AU?$pair@EH@0@EH@Z
_TEXT	SEGMENT PARA USE32 PUBLIC 'CODE'
_TEXT	ENDS
;	COMDAT ??$?0EH@?$pair@$$CBEH@std@@QAE@ABU?$pair@EH@1@@Z
_TEXT	SEGMENT PARA USE32 PUBLIC 'CODE'
_TEXT	ENDS
;	COMDAT ??$_Ucopy@Vconst_iterator@?$vector@V?$basic_string@DU?$char_traits@D@std@@V?$allocator@D@2@@std@@V?$allocator@V?$basic_string@DU?$char_traits@D@std@@V?$allocator@D@2@@std@@@2@@std@@@?$vector@V?$basic_string@DU?$char_traits@D@std@@V?$allocator@D@2@@std@@V?$allocator@V?$basic_string@DU?$char_traits@D@std@@V?$allocator@D@2@@std@@@2@@std@@IAEPAV?$basic_string@DU?$char_traits@D@std@@V?$allocator@D@2@@1@Vconst_iterator@01@0PAV21@@Z
_TEXT	SEGMENT PARA USE32 PUBLIC 'CODE'
_TEXT	ENDS
;	COMDAT ??$_Ucopy@Vconst_iterator@?$vector@EV?$allocator@E@std@@@std@@@?$vector@EV?$allocator@E@std@@@std@@IAEPAEVconst_iterator@01@0PAE@Z
_TEXT	SEGMENT PARA USE32 PUBLIC 'CODE'
_TEXT	ENDS
;	COMDAT ??$_Uninitialized_fill_n@PAV?$basic_string@DU?$char_traits@D@std@@V?$allocator@D@2@@std@@IV12@V?$allocator@V?$basic_string@DU?$char_traits@D@std@@V?$allocator@D@2@@std@@@2@@std@@YAXPAV?$basic_string@DU?$char_traits@D@std@@V?$allocator@D@2@@0@IABV10@AAV?$allocator@V?$basic_string@DU?$char_traits@D@std@@V?$allocator@D@2@@std@@@0@@Z
_TEXT	SEGMENT PARA USE32 PUBLIC 'CODE'
_TEXT	ENDS
;	COMDAT ??$_Uninitialized_fill_n@PAEIEV?$allocator@E@std@@@std@@YAXPAEIABEAAV?$allocator@E@0@@Z
_TEXT	SEGMENT PARA USE32 PUBLIC 'CODE'
_TEXT	ENDS
;	COMDAT ??$_Allocate@V?$basic_string@DU?$char_traits@D@std@@V?$allocator@D@2@@std@@@std@@YAPAV?$basic_string@DU?$char_traits@D@std@@V?$allocator@D@2@@0@IPAV10@@Z
_TEXT	SEGMENT PARA USE32 PUBLIC 'CODE'
_TEXT	ENDS
;	COMDAT ??$_Destroy@U_Node@?$_Tree_nod@V?$_Tmap_traits@EHU?$less@E@std@@V?$allocator@U?$pair@$$CBEH@std@@@2@$0A@@std@@@std@@@std@@YAXPAU_Node@?$_Tree_nod@V?$_Tmap_traits@EHU?$less@E@std@@V?$allocator@U?$pair@$$CBEH@std@@@2@$0A@@std@@@0@@Z
_TEXT	SEGMENT PARA USE32 PUBLIC 'CODE'
_TEXT	ENDS
;	COMDAT ??$_Destroy@PAU_Node@?$_Tree_nod@V?$_Tmap_traits@EHU?$less@E@std@@V?$allocator@U?$pair@$$CBEH@std@@@2@$0A@@std@@@std@@@std@@YAXPAPAU_Node@?$_Tree_nod@V?$_Tmap_traits@EHU?$less@E@std@@V?$allocator@U?$pair@$$CBEH@std@@@2@$0A@@std@@@0@@Z
_TEXT	SEGMENT PARA USE32 PUBLIC 'CODE'
_TEXT	ENDS
;	COMDAT ??$_Allocate@E@std@@YAPAEIPAE@Z
_TEXT	SEGMENT PARA USE32 PUBLIC 'CODE'
_TEXT	ENDS
;	COMDAT ??$_Destroy_range@V?$basic_string@DU?$char_traits@D@std@@V?$allocator@D@2@@std@@V?$allocator@V?$basic_string@DU?$char_traits@D@std@@V?$allocator@D@2@@std@@@2@@std@@YAXPAV?$basic_string@DU?$char_traits@D@std@@V?$allocator@D@2@@0@0AAV?$allocator@V?$basic_string@DU?$char_traits@D@std@@V?$allocator@D@2@@std@@@0@@Z
_TEXT	SEGMENT PARA USE32 PUBLIC 'CODE'
_TEXT	ENDS
;	COMDAT ??$_Ucopy@PAV?$basic_string@DU?$char_traits@D@std@@V?$allocator@D@2@@std@@@?$vector@V?$basic_string@DU?$char_traits@D@std@@V?$allocator@D@2@@std@@V?$allocator@V?$basic_string@DU?$char_traits@D@std@@V?$allocator@D@2@@std@@@2@@std@@IAEPAV?$basic_string@DU?$char_traits@D@std@@V?$allocator@D@2@@1@PAV21@00@Z
_TEXT	SEGMENT PARA USE32 PUBLIC 'CODE'
_TEXT	ENDS
;	COMDAT ??$fill@PAV?$basic_string@DU?$char_traits@D@std@@V?$allocator@D@2@@std@@V12@@std@@YAXPAV?$basic_string@DU?$char_traits@D@std@@V?$allocator@D@2@@0@0ABV10@@Z
_TEXT	SEGMENT PARA USE32 PUBLIC 'CODE'
_TEXT	ENDS
;	COMDAT ??$copy_backward@PAV?$basic_string@DU?$char_traits@D@std@@V?$allocator@D@2@@std@@PAV12@@std@@YAPAV?$basic_string@DU?$char_traits@D@std@@V?$allocator@D@2@@0@PAV10@00@Z
_TEXT	SEGMENT PARA USE32 PUBLIC 'CODE'
_TEXT	ENDS
;	COMDAT ??$_Destroy_range@EV?$allocator@E@std@@@std@@YAXPAE0AAV?$allocator@E@0@@Z
_TEXT	SEGMENT PARA USE32 PUBLIC 'CODE'
_TEXT	ENDS
;	COMDAT ??$_Ucopy@PAE@?$vector@EV?$allocator@E@std@@@std@@IAEPAEPAE00@Z
_TEXT	SEGMENT PARA USE32 PUBLIC 'CODE'
_TEXT	ENDS
;	COMDAT ??$fill@PAEE@std@@YAXPAE0ABE@Z
_TEXT	SEGMENT PARA USE32 PUBLIC 'CODE'
_TEXT	ENDS
;	COMDAT ??$copy_backward@PAEPAE@std@@YAPAEPAE00@Z
_TEXT	SEGMENT PARA USE32 PUBLIC 'CODE'
_TEXT	ENDS
;	COMDAT ??$?0U?$pair@$$CBEH@std@@@?$allocator@PAU_Node@?$_Tree_nod@V?$_Tmap_traits@EHU?$less@E@std@@V?$allocator@U?$pair@$$CBEH@std@@@2@$0A@@std@@@std@@@std@@QAE@ABV?$allocator@U?$pair@$$CBEH@std@@@1@@Z
_TEXT	SEGMENT PARA USE32 PUBLIC 'CODE'
_TEXT	ENDS
;	COMDAT ??$_Allocate@U_Node@?$_Tree_nod@V?$_Tmap_traits@EHU?$less@E@std@@V?$allocator@U?$pair@$$CBEH@std@@@2@$0A@@std@@@std@@@std@@YAPAU_Node@?$_Tree_nod@V?$_Tmap_traits@EHU?$less@E@std@@V?$allocator@U?$pair@$$CBEH@std@@@2@$0A@@std@@@0@IPAU120@@Z
_TEXT	SEGMENT PARA USE32 PUBLIC 'CODE'
_TEXT	ENDS
;	COMDAT ??$?0U?$pair@$$CBEH@std@@@?$allocator@U_Node@?$_Tree_nod@V?$_Tmap_traits@EHU?$less@E@std@@V?$allocator@U?$pair@$$CBEH@std@@@2@$0A@@std@@@std@@@std@@QAE@ABV?$allocator@U?$pair@$$CBEH@std@@@1@@Z
_TEXT	SEGMENT PARA USE32 PUBLIC 'CODE'
_TEXT	ENDS
;	COMDAT ??$_Construct@PAU_Node@?$_Tree_nod@V?$_Tmap_traits@EHU?$less@E@std@@V?$allocator@U?$pair@$$CBEH@std@@@2@$0A@@std@@@std@@PAU123@@std@@YAXPAPAU_Node@?$_Tree_nod@V?$_Tmap_traits@EHU?$less@E@std@@V?$allocator@U?$pair@$$CBEH@std@@@2@$0A@@std@@@0@ABQAU120@@Z
_TEXT	SEGMENT PARA USE32 PUBLIC 'CODE'
_TEXT	ENDS
;	COMDAT ??4?$basic_string@DU?$char_traits@D@std@@V?$allocator@D@2@@std@@QAEAAV01@ABV01@@Z
_TEXT	SEGMENT PARA USE32 PUBLIC 'CODE'
_TEXT	ENDS
;	COMDAT ?destroy@?$allocator@UtagDROPITEM@@@std@@QAEXPAUtagDROPITEM@@@Z
_TEXT	SEGMENT PARA USE32 PUBLIC 'CODE'
_TEXT	ENDS
;	COMDAT ??0?$pair@EH@std@@QAE@ABEABH@Z
_TEXT	SEGMENT PARA USE32 PUBLIC 'CODE'
_TEXT	ENDS
;	COMDAT ?assign@?$basic_string@DU?$char_traits@D@std@@V?$allocator@D@2@@std@@QAEAAV12@ABV12@@Z
_TEXT	SEGMENT PARA USE32 PUBLIC 'CODE'
_TEXT	ENDS
;	COMDAT ??$_Uninit_copy@JJ@std@@YAPAJPAJ00AAV?$allocator@J@0@U_Scalar_ptr_iterator_tag@0@@Z
_TEXT	SEGMENT PARA USE32 PUBLIC 'CODE'
_TEXT	ENDS
;	COMDAT ??$fill_n@PAJIJ@std@@YAXPAJIABJ@Z
_TEXT	SEGMENT PARA USE32 PUBLIC 'CODE'
_TEXT	ENDS
;	COMDAT ??$_Uninitialized_copy@Vconst_iterator@?$vector@V?$basic_string@DU?$char_traits@D@std@@V?$allocator@D@2@@std@@V?$allocator@V?$basic_string@DU?$char_traits@D@std@@V?$allocator@D@2@@std@@@2@@std@@PAV?$basic_string@DU?$char_traits@D@std@@V?$allocator@D@2@@3@V?$allocator@V?$basic_string@DU?$char_traits@D@std@@V?$allocator@D@2@@std@@@3@@std@@YAPAV?$basic_string@DU?$char_traits@D@std@@V?$allocator@D@2@@0@Vconst_iterator@?$vector@V?$basic_string@DU?$char_traits@D@std@@V?$allocator@D@2@@std@@V?$allocator@V?$basic_string@DU?$char_traits@D@std@@V?$allocator@D@2@@std@@@2@@0@0PAV10@AAV?$allocator@V?$basic_string@DU?$char_traits@D@std@@V?$allocator@D@2@@std@@@0@@Z
_TEXT	SEGMENT PARA USE32 PUBLIC 'CODE'
_TEXT	ENDS
;	COMDAT ??$_Uninitialized_copy@Vconst_iterator@?$vector@EV?$allocator@E@std@@@std@@PAEV?$allocator@E@3@@std@@YAPAEVconst_iterator@?$vector@EV?$allocator@E@std@@@0@0PAEAAV?$allocator@E@0@@Z
_TEXT	SEGMENT PARA USE32 PUBLIC 'CODE'
_TEXT	ENDS
;	COMDAT ??$_Ptr_cat@PAV?$basic_string@DU?$char_traits@D@std@@V?$allocator@D@2@@std@@PAV12@@std@@YA?AU_Nonscalar_ptr_iterator_tag@0@AAPAV?$basic_string@DU?$char_traits@D@std@@V?$allocator@D@2@@0@0@Z
_TEXT	SEGMENT PARA USE32 PUBLIC 'CODE'
_TEXT	ENDS
;	COMDAT ??$_Uninit_fill_n@PAV?$basic_string@DU?$char_traits@D@std@@V?$allocator@D@2@@std@@IV12@V?$allocator@V?$basic_string@DU?$char_traits@D@std@@V?$allocator@D@2@@std@@@2@@std@@YAXPAV?$basic_string@DU?$char_traits@D@std@@V?$allocator@D@2@@0@IABV10@AAV?$allocator@V?$basic_string@DU?$char_traits@D@std@@V?$allocator@D@2@@std@@@0@U_Nonscalar_ptr_iterator_tag@0@@Z
_TEXT	SEGMENT PARA USE32 PUBLIC 'CODE'
_TEXT	ENDS
;	COMDAT ??$_Uninit_fill_n@EIE@std@@YAXPAEIABEAAV?$allocator@E@0@U_Scalar_ptr_iterator_tag@0@@Z
_TEXT	SEGMENT PARA USE32 PUBLIC 'CODE'
_TEXT	ENDS
;	COMDAT ??$_Destroy_range@V?$basic_string@DU?$char_traits@D@std@@V?$allocator@D@2@@std@@V?$allocator@V?$basic_string@DU?$char_traits@D@std@@V?$allocator@D@2@@std@@@2@@std@@YAXPAV?$basic_string@DU?$char_traits@D@std@@V?$allocator@D@2@@0@0AAV?$allocator@V?$basic_string@DU?$char_traits@D@std@@V?$allocator@D@2@@std@@@0@U_Nonscalar_ptr_iterator_tag@0@@Z
_TEXT	SEGMENT PARA USE32 PUBLIC 'CODE'
_TEXT	ENDS
;	COMDAT ??$_Uninitialized_copy@PAV?$basic_string@DU?$char_traits@D@std@@V?$allocator@D@2@@std@@PAV12@V?$allocator@V?$basic_string@DU?$char_traits@D@std@@V?$allocator@D@2@@std@@@2@@std@@YAPAV?$basic_string@DU?$char_traits@D@std@@V?$allocator@D@2@@0@PAV10@00AAV?$allocator@V?$basic_string@DU?$char_traits@D@std@@V?$allocator@D@2@@std@@@0@@Z
_TEXT	SEGMENT PARA USE32 PUBLIC 'CODE'
_TEXT	ENDS
;	COMDAT ??$_Copy_backward_opt@PAV?$basic_string@DU?$char_traits@D@std@@V?$allocator@D@2@@std@@PAV12@@std@@YAPAV?$basic_string@DU?$char_traits@D@std@@V?$allocator@D@2@@0@PAV10@00U_Nonscalar_ptr_iterator_tag@0@@Z
_TEXT	SEGMENT PARA USE32 PUBLIC 'CODE'
_TEXT	ENDS
;	COMDAT ??$_Destroy_range@EV?$allocator@E@std@@@std@@YAXPAE0AAV?$allocator@E@0@U_Scalar_ptr_iterator_tag@0@@Z
_TEXT	SEGMENT PARA USE32 PUBLIC 'CODE'
_TEXT	ENDS
;	COMDAT ??$_Uninitialized_copy@PAEPAEV?$allocator@E@std@@@std@@YAPAEPAE00AAV?$allocator@E@0@@Z
_TEXT	SEGMENT PARA USE32 PUBLIC 'CODE'
_TEXT	ENDS
;	COMDAT ??$_Copy_backward_opt@PAEPAE@std@@YAPAEPAE00U_Scalar_ptr_iterator_tag@0@@Z
_TEXT	SEGMENT PARA USE32 PUBLIC 'CODE'
_TEXT	ENDS
;	COMDAT ??$_Destroy@UtagDROPITEM@@@std@@YAXPAUtagDROPITEM@@@Z
_TEXT	SEGMENT PARA USE32 PUBLIC 'CODE'
_TEXT	ENDS
;	COMDAT ?construct@?$allocator@V?$basic_string@DU?$char_traits@D@std@@V?$allocator@D@2@@std@@@std@@QAEXPAV?$basic_string@DU?$char_traits@D@std@@V?$allocator@D@2@@2@ABV32@@Z
_TEXT	SEGMENT PARA USE32 PUBLIC 'CODE'
_TEXT	ENDS
;	COMDAT ?destroy@?$allocator@V?$basic_string@DU?$char_traits@D@std@@V?$allocator@D@2@@std@@@std@@QAEXPAV?$basic_string@DU?$char_traits@D@std@@V?$allocator@D@2@@2@@Z
_TEXT	SEGMENT PARA USE32 PUBLIC 'CODE'
_TEXT	ENDS
;	COMDAT ??$_Ptr_cat@Vconst_iterator@?$vector@V?$basic_string@DU?$char_traits@D@std@@V?$allocator@D@2@@std@@V?$allocator@V?$basic_string@DU?$char_traits@D@std@@V?$allocator@D@2@@std@@@2@@std@@PAV?$basic_string@DU?$char_traits@D@std@@V?$allocator@D@2@@3@@std@@YA?AU_Nonscalar_ptr_iterator_tag@0@AAVconst_iterator@?$vector@V?$basic_string@DU?$char_traits@D@std@@V?$allocator@D@2@@std@@V?$allocator@V?$basic_string@DU?$char_traits@D@std@@V?$allocator@D@2@@std@@@2@@0@AAPAV?$basic_string@DU?$char_traits@D@std@@V?$allocator@D@2@@0@@Z
_TEXT	SEGMENT PARA USE32 PUBLIC 'CODE'
_TEXT	ENDS
;	COMDAT ??$_Uninit_copy@Vconst_iterator@?$vector@V?$basic_string@DU?$char_traits@D@std@@V?$allocator@D@2@@std@@V?$allocator@V?$basic_string@DU?$char_traits@D@std@@V?$allocator@D@2@@std@@@2@@std@@PAV?$basic_string@DU?$char_traits@D@std@@V?$allocator@D@2@@3@V?$allocator@V?$basic_string@DU?$char_traits@D@std@@V?$allocator@D@2@@std@@@3@@std@@YAPAV?$basic_string@DU?$char_traits@D@std@@V?$allocator@D@2@@0@Vconst_iterator@?$vector@V?$basic_string@DU?$char_traits@D@std@@V?$allocator@D@2@@std@@V?$allocator@V?$basic_string@DU?$char_traits@D@std@@V?$allocator@D@2@@std@@@2@@0@0PAV10@AAV?$allocator@V?$basic_string@DU?$char_traits@D@std@@V?$allocator@D@2@@std@@@0@U_Nonscalar_ptr_iterator_tag@0@@Z
_TEXT	SEGMENT PARA USE32 PUBLIC 'CODE'
_TEXT	ENDS
;	COMDAT ??$_Ptr_cat@Vconst_iterator@?$vector@EV?$allocator@E@std@@@std@@PAE@std@@YA?AU_Nonscalar_ptr_iterator_tag@0@AAVconst_iterator@?$vector@EV?$allocator@E@std@@@0@AAPAE@Z
_TEXT	SEGMENT PARA USE32 PUBLIC 'CODE'
_TEXT	ENDS
;	COMDAT ??$_Uninit_copy@Vconst_iterator@?$vector@EV?$allocator@E@std@@@std@@PAEV?$allocator@E@3@@std@@YAPAEVconst_iterator@?$vector@EV?$allocator@E@std@@@0@0PAEAAV?$allocator@E@0@U_Nonscalar_ptr_iterator_tag@0@@Z
_TEXT	SEGMENT PARA USE32 PUBLIC 'CODE'
_TEXT	ENDS
;	COMDAT ??$fill_n@PAEIE@std@@YAXPAEIABE@Z
_TEXT	SEGMENT PARA USE32 PUBLIC 'CODE'
_TEXT	ENDS
;	COMDAT ??$_Uninit_copy@PAV?$basic_string@DU?$char_traits@D@std@@V?$allocator@D@2@@std@@PAV12@V?$allocator@V?$basic_string@DU?$char_traits@D@std@@V?$allocator@D@2@@std@@@2@@std@@YAPAV?$basic_string@DU?$char_traits@D@std@@V?$allocator@D@2@@0@PAV10@00AAV?$allocator@V?$basic_string@DU?$char_traits@D@std@@V?$allocator@D@2@@std@@@0@U_Nonscalar_ptr_iterator_tag@0@@Z
_TEXT	SEGMENT PARA USE32 PUBLIC 'CODE'
_TEXT	ENDS
;	COMDAT ??$_Uninit_copy@EE@std@@YAPAEPAE00AAV?$allocator@E@0@U_Scalar_ptr_iterator_tag@0@@Z
_TEXT	SEGMENT PARA USE32 PUBLIC 'CODE'
_TEXT	ENDS
;	COMDAT ??$_Construct@V?$basic_string@DU?$char_traits@D@std@@V?$allocator@D@2@@std@@V12@@std@@YAXPAV?$basic_string@DU?$char_traits@D@std@@V?$allocator@D@2@@0@ABV10@@Z
_TEXT	SEGMENT PARA USE32 PUBLIC 'CODE'
_TEXT	ENDS
;	COMDAT ??$_Destroy@V?$basic_string@DU?$char_traits@D@std@@V?$allocator@D@2@@std@@@std@@YAXPAV?$basic_string@DU?$char_traits@D@std@@V?$allocator@D@2@@0@@Z
_TEXT	SEGMENT PARA USE32 PUBLIC 'CODE'
_TEXT	ENDS
;	COMDAT ??_G?$basic_string@DU?$char_traits@D@std@@V?$allocator@D@2@@std@@QAEPAXI@Z
_TEXT	SEGMENT PARA USE32 PUBLIC 'CODE'
_TEXT	ENDS
;	COMDAT ?construct@?$allocator@E@std@@QAEXPAEABE@Z
_TEXT	SEGMENT PARA USE32 PUBLIC 'CODE'
_TEXT	ENDS
;	COMDAT ?destroy@?$allocator@E@std@@QAEXPAE@Z
_TEXT	SEGMENT PARA USE32 PUBLIC 'CODE'
_TEXT	ENDS
;	COMDAT ??Dconst_iterator@?$vector@V?$basic_string@DU?$char_traits@D@std@@V?$allocator@D@2@@std@@V?$allocator@V?$basic_string@DU?$char_traits@D@std@@V?$allocator@D@2@@std@@@2@@std@@QBEABV?$basic_string@DU?$char_traits@D@std@@V?$allocator@D@2@@2@XZ
_TEXT	SEGMENT PARA USE32 PUBLIC 'CODE'
_TEXT	ENDS
;	COMDAT ??Econst_iterator@?$vector@V?$basic_string@DU?$char_traits@D@std@@V?$allocator@D@2@@std@@V?$allocator@V?$basic_string@DU?$char_traits@D@std@@V?$allocator@D@2@@std@@@2@@std@@QAEAAV012@XZ
_TEXT	SEGMENT PARA USE32 PUBLIC 'CODE'
_TEXT	ENDS
;	COMDAT ??9const_iterator@?$vector@V?$basic_string@DU?$char_traits@D@std@@V?$allocator@D@2@@std@@V?$allocator@V?$basic_string@DU?$char_traits@D@std@@V?$allocator@D@2@@std@@@2@@std@@QBE_NABV012@@Z
_TEXT	SEGMENT PARA USE32 PUBLIC 'CODE'
_TEXT	ENDS
;	COMDAT ??Dconst_iterator@?$vector@EV?$allocator@E@std@@@std@@QBEABEXZ
_TEXT	SEGMENT PARA USE32 PUBLIC 'CODE'
_TEXT	ENDS
;	COMDAT ??Econst_iterator@?$vector@EV?$allocator@E@std@@@std@@QAEAAV012@XZ
_TEXT	SEGMENT PARA USE32 PUBLIC 'CODE'
_TEXT	ENDS
;	COMDAT ??9const_iterator@?$vector@EV?$allocator@E@std@@@std@@QBE_NABV012@@Z
_TEXT	SEGMENT PARA USE32 PUBLIC 'CODE'
_TEXT	ENDS
;	COMDAT ??8const_iterator@?$vector@V?$basic_string@DU?$char_traits@D@std@@V?$allocator@D@2@@std@@V?$allocator@V?$basic_string@DU?$char_traits@D@std@@V?$allocator@D@2@@std@@@2@@std@@QBE_NABV012@@Z
_TEXT	SEGMENT PARA USE32 PUBLIC 'CODE'
_TEXT	ENDS
;	COMDAT ??8const_iterator@?$vector@EV?$allocator@E@std@@@std@@QBE_NABV012@@Z
_TEXT	SEGMENT PARA USE32 PUBLIC 'CODE'
_TEXT	ENDS
;	COMDAT ??$_Construct@EE@std@@YAXPAEABE@Z
_TEXT	SEGMENT PARA USE32 PUBLIC 'CODE'
_TEXT	ENDS
;	COMDAT ??$_Destroy@E@std@@YAXPAE@Z
_TEXT	SEGMENT PARA USE32 PUBLIC 'CODE'
_TEXT	ENDS
;	COMDAT ?assign@?$basic_string@DU?$char_traits@D@std@@V?$allocator@D@2@@std@@QAEAAV12@ABV12@II@Z
_TEXT	SEGMENT PARA USE32 PUBLIC 'CODE'
_TEXT	ENDS
;	COMDAT ?npos@?$basic_string@DU?$char_traits@D@std@@V?$allocator@D@2@@std@@2IB
CONST	SEGMENT DWORD USE32 PUBLIC 'CONST'
CONST	ENDS
;	COMDAT ?erase@?$basic_string@DU?$char_traits@D@std@@V?$allocator@D@2@@std@@QAEAAV12@II@Z
_TEXT	SEGMENT PARA USE32 PUBLIC 'CODE'
_TEXT	ENDS
;	COMDAT ?move@?$char_traits@D@std@@SAPADPADPBDI@Z
_TEXT	SEGMENT PARA USE32 PUBLIC 'CODE'
_TEXT	ENDS
;	COMDAT ?_Grow@?$basic_string@DU?$char_traits@D@std@@V?$allocator@D@2@@std@@IAE_NI_N@Z
_TEXT	SEGMENT PARA USE32 PUBLIC 'CODE'
_TEXT	ENDS
;	COMDAT ?max_size@?$basic_string@DU?$char_traits@D@std@@V?$allocator@D@2@@std@@QBEIXZ
_TEXT	SEGMENT PARA USE32 PUBLIC 'CODE'
_TEXT	ENDS
;	COMDAT ?max_size@?$allocator@D@std@@QBEIXZ
_TEXT	SEGMENT PARA USE32 PUBLIC 'CODE'
_TEXT	ENDS
;	COMDAT ?_Copy@?$basic_string@DU?$char_traits@D@std@@V?$allocator@D@2@@std@@IAEXII@Z
_TEXT	SEGMENT PARA USE32 PUBLIC 'CODE'
_TEXT	ENDS
;	COMDAT ?allocate@?$allocator@D@std@@QAEPADI@Z
_TEXT	SEGMENT PARA USE32 PUBLIC 'CODE'
_TEXT	ENDS
;	COMDAT ??$_Allocate@D@std@@YAPADIPAD@Z
_TEXT	SEGMENT PARA USE32 PUBLIC 'CODE'
_TEXT	ENDS
;	COMDAT ?copy@?$char_traits@D@std@@SAPADPADPBDI@Z
_TEXT	SEGMENT PARA USE32 PUBLIC 'CODE'
_TEXT	ENDS
;	COMDAT ?_Myptr@?$basic_string@DU?$char_traits@D@std@@V?$allocator@D@2@@std@@QAEPADXZ
_TEXT	SEGMENT PARA USE32 PUBLIC 'CODE'
_TEXT	ENDS
;	COMDAT ?_Eos@?$basic_string@DU?$char_traits@D@std@@V?$allocator@D@2@@std@@IAEXI@Z
_TEXT	SEGMENT PARA USE32 PUBLIC 'CODE'
_TEXT	ENDS
;	COMDAT ?assign@?$char_traits@D@std@@SAXAADABD@Z
_TEXT	SEGMENT PARA USE32 PUBLIC 'CODE'
_TEXT	ENDS
;	COMDAT ?_Ptr_cat@std@@YA?AU_Scalar_ptr_iterator_tag@1@PAE0@Z
_TEXT	SEGMENT PARA USE32 PUBLIC 'CODE'
_TEXT	ENDS
;	COMDAT ?_Ptr_cat@std@@YA?AU_Scalar_ptr_iterator_tag@1@PAJ0@Z
_TEXT	SEGMENT PARA USE32 PUBLIC 'CODE'
_TEXT	ENDS
;	COMDAT ??9const_iterator@?$_Tree@V?$_Tmap_traits@KU_Friend@@U?$less@K@std@@V?$allocator@U?$pair@$$CBKU_Friend@@@std@@@3@$0A@@std@@@std@@QBE_NABV012@@Z
_TEXT	SEGMENT PARA USE32 PUBLIC 'CODE'
_TEXT	ENDS
;	COMDAT ??8const_iterator@?$_Tree@V?$_Tmap_traits@KU_Friend@@U?$less@K@std@@V?$allocator@U?$pair@$$CBKU_Friend@@@std@@@3@$0A@@std@@@std@@QBE_NABV012@@Z
_TEXT	SEGMENT PARA USE32 PUBLIC 'CODE'
_TEXT	ENDS
;	COMDAT ??Eiterator@?$_Tree@V?$_Tmap_traits@KU_Friend@@U?$less@K@std@@V?$allocator@U?$pair@$$CBKU_Friend@@@std@@@3@$0A@@std@@@std@@QAEAAV012@XZ
_TEXT	SEGMENT PARA USE32 PUBLIC 'CODE'
_TEXT	ENDS
;	COMDAT ??Econst_iterator@?$_Tree@V?$_Tmap_traits@KU_Friend@@U?$less@K@std@@V?$allocator@U?$pair@$$CBKU_Friend@@@std@@@3@$0A@@std@@@std@@QAEAAV012@XZ
_TEXT	SEGMENT PARA USE32 PUBLIC 'CODE'
_TEXT	ENDS
;	COMDAT ?_Inc@const_iterator@?$_Tree@V?$_Tmap_traits@KU_Friend@@U?$less@K@std@@V?$allocator@U?$pair@$$CBKU_Friend@@@std@@@3@$0A@@std@@@std@@QAEXXZ
_TEXT	SEGMENT PARA USE32 PUBLIC 'CODE'
_TEXT	ENDS
;	COMDAT ?_Min@?$_Tree@V?$_Tmap_traits@KU_Friend@@U?$less@K@std@@V?$allocator@U?$pair@$$CBKU_Friend@@@std@@@3@$0A@@std@@@std@@KAPAU_Node@?$_Tree_nod@V?$_Tmap_traits@KU_Friend@@U?$less@K@std@@V?$allocator@U?$pair@$$CBKU_Friend@@@std@@@3@$0A@@std@@@2@PAU342@@Z
_TEXT	SEGMENT PARA USE32 PUBLIC 'CODE'
_TEXT	ENDS
;	COMDAT ?_Left@?$_Tree@V?$_Tmap_traits@KU_Friend@@U?$less@K@std@@V?$allocator@U?$pair@$$CBKU_Friend@@@std@@@3@$0A@@std@@@std@@KAAAPAU_Node@?$_Tree_nod@V?$_Tmap_traits@KU_Friend@@U?$less@K@std@@V?$allocator@U?$pair@$$CBKU_Friend@@@std@@@3@$0A@@std@@@2@PAU342@@Z
_TEXT	SEGMENT PARA USE32 PUBLIC 'CODE'
_TEXT	ENDS
;	COMDAT ?_Isnil@?$_Tree@V?$_Tmap_traits@KU_Friend@@U?$less@K@std@@V?$allocator@U?$pair@$$CBKU_Friend@@@std@@@3@$0A@@std@@@std@@KAAADPAU_Node@?$_Tree_nod@V?$_Tmap_traits@KU_Friend@@U?$less@K@std@@V?$allocator@U?$pair@$$CBKU_Friend@@@std@@@3@$0A@@std@@@2@@Z
_TEXT	SEGMENT PARA USE32 PUBLIC 'CODE'
_TEXT	ENDS
;	COMDAT ?_Parent@?$_Tree@V?$_Tmap_traits@KU_Friend@@U?$less@K@std@@V?$allocator@U?$pair@$$CBKU_Friend@@@std@@@3@$0A@@std@@@std@@KAAAPAU_Node@?$_Tree_nod@V?$_Tmap_traits@KU_Friend@@U?$less@K@std@@V?$allocator@U?$pair@$$CBKU_Friend@@@std@@@3@$0A@@std@@@2@PAU342@@Z
_TEXT	SEGMENT PARA USE32 PUBLIC 'CODE'
_TEXT	ENDS
;	COMDAT ?_Right@?$_Tree@V?$_Tmap_traits@KU_Friend@@U?$less@K@std@@V?$allocator@U?$pair@$$CBKU_Friend@@@std@@@3@$0A@@std@@@std@@KAAAPAU_Node@?$_Tree_nod@V?$_Tmap_traits@KU_Friend@@U?$less@K@std@@V?$allocator@U?$pair@$$CBKU_Friend@@@std@@@3@$0A@@std@@@2@PAU342@@Z
_TEXT	SEGMENT PARA USE32 PUBLIC 'CODE'
_TEXT	ENDS
;	COMDAT ?_Psave@?$_Facetptr@V?$ctype@G@std@@@std@@2PBVfacet@locale@2@B
_DATA	SEGMENT DWORD USE32 PUBLIC 'DATA'
_DATA	ENDS
;	COMDAT ?_Psave@?$_Facetptr@V?$ctype@D@std@@@std@@2PBVfacet@locale@2@B
_DATA	SEGMENT DWORD USE32 PUBLIC 'DATA'
_DATA	ENDS
;	COMDAT ??$swap@D@std@@YAXAAD0@Z
_TEXT	SEGMENT PARA USE32 PUBLIC 'CODE'
_TEXT	ENDS
;	COMDAT __TI3?AVout_of_range@std@@
xdata$x	SEGMENT DWORD USE32 PUBLIC 'CONST'
xdata$x	ENDS
;	COMDAT ??1out_of_range@std@@UAE@XZ
_TEXT	SEGMENT PARA USE32 PUBLIC 'CODE'
_TEXT	ENDS
;	COMDAT ??_7out_of_range@std@@6B@
CONST	SEGMENT DWORD USE32 PUBLIC 'CONST'
CONST	ENDS
;	COMDAT ??_Gout_of_range@std@@UAEPAXI@Z
_TEXT	SEGMENT PARA USE32 PUBLIC 'CODE'
_TEXT	ENDS
;	COMDAT ?what@logic_error@std@@UBEPBDXZ
_TEXT	SEGMENT PARA USE32 PUBLIC 'CODE'
_TEXT	ENDS
;	COMDAT ?c_str@?$basic_string@DU?$char_traits@D@std@@V?$allocator@D@2@@std@@QBEPBDXZ
_TEXT	SEGMENT PARA USE32 PUBLIC 'CODE'
_TEXT	ENDS
;	COMDAT ??1logic_error@std@@UAE@XZ
_TEXT	SEGMENT PARA USE32 PUBLIC 'CODE'
_TEXT	ENDS
;	COMDAT ??_7logic_error@std@@6B@
CONST	SEGMENT DWORD USE32 PUBLIC 'CONST'
CONST	ENDS
;	COMDAT ??_Glogic_error@std@@UAEPAXI@Z
_TEXT	SEGMENT PARA USE32 PUBLIC 'CODE'
_TEXT	ENDS
;	COMDAT __CTA3?AVout_of_range@std@@
xdata$x	SEGMENT DWORD USE32 PUBLIC 'CONST'
xdata$x	ENDS
;	COMDAT __CT??_R0?AVout_of_range@std@@@8??0out_of_range@std@@QAE@ABV01@@Z40
xdata$x	SEGMENT DWORD USE32 PUBLIC 'CONST'
xdata$x	ENDS
;	COMDAT ??_R0?AVout_of_range@std@@@8
_DATA	SEGMENT DWORD USE32 PUBLIC 'DATA'
_DATA	ENDS
;	COMDAT ??0out_of_range@std@@QAE@ABV01@@Z
_TEXT	SEGMENT PARA USE32 PUBLIC 'CODE'
_TEXT	ENDS
;	COMDAT ??0logic_error@std@@QAE@ABV01@@Z
_TEXT	SEGMENT PARA USE32 PUBLIC 'CODE'
_TEXT	ENDS
;	COMDAT __CT??_R0?AVlogic_error@std@@@8??0logic_error@std@@QAE@ABV01@@Z40
xdata$x	SEGMENT DWORD USE32 PUBLIC 'CONST'
xdata$x	ENDS
;	COMDAT ??_R0?AVlogic_error@std@@@8
_DATA	SEGMENT DWORD USE32 PUBLIC 'DATA'
_DATA	ENDS
;	COMDAT __CT??_R0?AVexception@@@8??0exception@@QAE@ABV0@@Z12
xdata$x	SEGMENT DWORD USE32 PUBLIC 'CONST'
xdata$x	ENDS
;	COMDAT ??_R0?AVexception@@@8
_DATA	SEGMENT DWORD USE32 PUBLIC 'DATA'
_DATA	ENDS
;	COMDAT ??_C@_0BM@PAPJHAGI@invalid?5map?1set?$DMT?$DO?5iterator?$AA@
CONST	SEGMENT DWORD USE32 PUBLIC 'CONST'
CONST	ENDS
;	COMDAT ??0out_of_range@std@@QAE@ABV?$basic_string@DU?$char_traits@D@std@@V?$allocator@D@2@@1@@Z
_TEXT	SEGMENT PARA USE32 PUBLIC 'CODE'
_TEXT	ENDS
;	COMDAT ??0logic_error@std@@QAE@ABV?$basic_string@DU?$char_traits@D@std@@V?$allocator@D@2@@1@@Z
_TEXT	SEGMENT PARA USE32 PUBLIC 'CODE'
_TEXT	ENDS
;	COMDAT ??_C@_0BD@OLBABOEK@vector?$DMT?$DO?5too?5long?$AA@
CONST	SEGMENT DWORD USE32 PUBLIC 'CONST'
CONST	ENDS
;	COMDAT ??0?$basic_string@DU?$char_traits@D@std@@V?$allocator@D@2@@std@@QAE@ABV01@@Z
_TEXT	SEGMENT PARA USE32 PUBLIC 'CODE'
_TEXT	ENDS
;	COMDAT ??0?$allocator@D@std@@QAE@ABV01@@Z
_TEXT	SEGMENT PARA USE32 PUBLIC 'CODE'
_TEXT	ENDS
;	COMDAT ??3@YAXPAX0@Z
_TEXT	SEGMENT PARA USE32 PUBLIC 'CODE'
_TEXT	ENDS
;	COMDAT ??2@YAPAXIPAX@Z
_TEXT	SEGMENT PARA USE32 PUBLIC 'CODE'
_TEXT	ENDS
;	COMDAT __TI3?AVlength_error@std@@
xdata$x	SEGMENT DWORD USE32 PUBLIC 'CONST'
xdata$x	ENDS
;	COMDAT ??1length_error@std@@UAE@XZ
_TEXT	SEGMENT PARA USE32 PUBLIC 'CODE'
_TEXT	ENDS
;	COMDAT ??_7length_error@std@@6B@
CONST	SEGMENT DWORD USE32 PUBLIC 'CONST'
CONST	ENDS
;	COMDAT ??_Glength_error@std@@UAEPAXI@Z
_TEXT	SEGMENT PARA USE32 PUBLIC 'CODE'
_TEXT	ENDS
;	COMDAT __CTA3?AVlength_error@std@@
xdata$x	SEGMENT DWORD USE32 PUBLIC 'CONST'
xdata$x	ENDS
;	COMDAT __CT??_R0?AVlength_error@std@@@8??0length_error@std@@QAE@ABV01@@Z40
xdata$x	SEGMENT DWORD USE32 PUBLIC 'CONST'
xdata$x	ENDS
;	COMDAT ??_R0?AVlength_error@std@@@8
_DATA	SEGMENT DWORD USE32 PUBLIC 'DATA'
_DATA	ENDS
;	COMDAT ??0length_error@std@@QAE@ABV01@@Z
_TEXT	SEGMENT PARA USE32 PUBLIC 'CODE'
_TEXT	ENDS
;	COMDAT ??_C@_0BE@JONHPENG@map?1set?$DMT?$DO?5too?5long?$AA@
CONST	SEGMENT DWORD USE32 PUBLIC 'CONST'
CONST	ENDS
;	COMDAT ??0?$basic_string@DU?$char_traits@D@std@@V?$allocator@D@2@@std@@QAE@PBD@Z
_TEXT	SEGMENT PARA USE32 PUBLIC 'CODE'
_TEXT	ENDS
;	COMDAT ?assign@?$basic_string@DU?$char_traits@D@std@@V?$allocator@D@2@@std@@QAEAAV12@PBD@Z
_TEXT	SEGMENT PARA USE32 PUBLIC 'CODE'
_TEXT	ENDS
;	COMDAT ?assign@?$basic_string@DU?$char_traits@D@std@@V?$allocator@D@2@@std@@QAEAAV12@PBDI@Z
_TEXT	SEGMENT PARA USE32 PUBLIC 'CODE'
_TEXT	ENDS
;	COMDAT ?_Inside@?$basic_string@DU?$char_traits@D@std@@V?$allocator@D@2@@std@@IAE_NPBD@Z
_TEXT	SEGMENT PARA USE32 PUBLIC 'CODE'
_TEXT	ENDS
;	COMDAT ?length@?$char_traits@D@std@@SAIPBD@Z
_TEXT	SEGMENT PARA USE32 PUBLIC 'CODE'
_TEXT	ENDS
;	COMDAT ??0length_error@std@@QAE@ABV?$basic_string@DU?$char_traits@D@std@@V?$allocator@D@2@@1@@Z
_TEXT	SEGMENT PARA USE32 PUBLIC 'CODE'
_TEXT	ENDS
;	COMDAT ?compare@?$char_traits@D@std@@SAHPBD0I@Z
_TEXT	SEGMENT PARA USE32 PUBLIC 'CODE'
_TEXT	ENDS
;	COMDAT ?_Myptr@?$basic_string@DU?$char_traits@D@std@@V?$allocator@D@2@@std@@QBEPBDXZ
_TEXT	SEGMENT PARA USE32 PUBLIC 'CODE'
_TEXT	ENDS
;	COMDAT ?size@?$basic_string@DU?$char_traits@D@std@@V?$allocator@D@2@@std@@QBEIXZ
_TEXT	SEGMENT PARA USE32 PUBLIC 'CODE'
_TEXT	ENDS
;	COMDAT ?_Tidy@?$basic_string@DU?$char_traits@D@std@@V?$allocator@D@2@@std@@IAEX_NI@Z
_TEXT	SEGMENT PARA USE32 PUBLIC 'CODE'
_TEXT	ENDS
;	COMDAT ?deallocate@?$allocator@D@std@@QAEXPADI@Z
_TEXT	SEGMENT PARA USE32 PUBLIC 'CODE'
_TEXT	ENDS
;	COMDAT ??0?$allocator@D@std@@QAE@XZ
_TEXT	SEGMENT PARA USE32 PUBLIC 'CODE'
_TEXT	ENDS
;	COMDAT ??0?$_String_val@DV?$allocator@D@std@@@std@@IAE@V?$allocator@D@1@@Z
_TEXT	SEGMENT PARA USE32 PUBLIC 'CODE'
_TEXT	ENDS
;	COMDAT ?ToNumber@CLuaBase@@QAENH@Z
_TEXT	SEGMENT PARA USE32 PUBLIC 'CODE'
_TEXT	ENDS
;	COMDAT ?GetLuaState@CLuaBase@@QAEPAUlua_State@@XZ
_TEXT	SEGMENT PARA USE32 PUBLIC 'CODE'
_TEXT	ENDS
;	COMDAT ?IsNil@CLuaBase@@QAEHH@Z
_TEXT	SEGMENT PARA USE32 PUBLIC 'CODE'
_TEXT	ENDS
;	COMDAT ?ToString@CLuaBase@@QAEPBDH@Z
_TEXT	SEGMENT PARA USE32 PUBLIC 'CODE'
_TEXT	ENDS
;	COMDAT ??4?$basic_string@DU?$char_traits@D@std@@V?$allocator@D@2@@std@@QAEAAV01@PBD@Z
_TEXT	SEGMENT PARA USE32 PUBLIC 'CODE'
_TEXT	ENDS
;	COMDAT ??1?$basic_string@DU?$char_traits@D@std@@V?$allocator@D@2@@std@@QAE@XZ
_TEXT	SEGMENT PARA USE32 PUBLIC 'CODE'
_TEXT	ENDS
;	COMDAT ?TableLoop@CLuaBase@@QAEHH@Z
_TEXT	SEGMENT PARA USE32 PUBLIC 'CODE'
_TEXT	ENDS
;	COMDAT ?PushNil@CLuaBase@@QAEXXZ
_TEXT	SEGMENT PARA USE32 PUBLIC 'CODE'
_TEXT	ENDS
;	COMDAT ?ToBool@CLuaBase@@QAEHH@Z
_TEXT	SEGMENT PARA USE32 PUBLIC 'CODE'
_TEXT	ENDS
;	COMDAT ?IsPossible@CEventLua@@QAEHXZ
_TEXT	SEGMENT PARA USE32 PUBLIC 'CODE'
_TEXT	ENDS
;	COMDAT ??1CMclCritSec@@UAE@XZ
_TEXT	SEGMENT PARA USE32 PUBLIC 'CODE'
_TEXT	ENDS
;	COMDAT ??_7CMclCritSec@@6B@
CONST	SEGMENT DWORD USE32 PUBLIC 'CONST'
CONST	ENDS
;	COMDAT ??_GCMclCritSec@@UAEPAXI@Z
_TEXT	SEGMENT PARA USE32 PUBLIC 'CODE'
_TEXT	ENDS
;	COMDAT ??0CMclCritSec@@QAE@XZ
_TEXT	SEGMENT PARA USE32 PUBLIC 'CODE'
_TEXT	ENDS
;	COMDAT ??_7CEventLua@@6B@
CONST	SEGMENT DWORD USE32 PUBLIC 'CONST'
CONST	ENDS
sxdata	SEGMENT DWORD USE32 'SXDATA'
sxdata	ENDS
FLAT	GROUP _DATA, CONST, _BSS
	ASSUME	CS: FLAT, DS: FLAT, SS: FLAT
endif

INCLUDELIB LIBCMT
INCLUDELIB OLDNAMES

PUBLIC	??2@YAPAXIPAX@Z					; operator new
; Function compile flags: /Ogty
; File c:\program files\microsoft visual studio .net 2003\vc7\include\new.h
;	COMDAT ??2@YAPAXIPAX@Z
_TEXT	SEGMENT
___formal$ = 8						; size = 4
__P$ = 12						; size = 4
??2@YAPAXIPAX@Z PROC NEAR				; operator new, COMDAT

; 109  :         {return (_P); }

  00000	8b 44 24 08	 mov	 eax, DWORD PTR __P$[esp-4]
  00004	c3		 ret	 0
??2@YAPAXIPAX@Z ENDP					; operator new
_TEXT	ENDS
PUBLIC	??3@YAXPAX0@Z					; operator delete
; Function compile flags: /Ogty
;	COMDAT ??3@YAXPAX0@Z
_TEXT	SEGMENT
___formal$ = 8						; size = 4
___formal$ = 12						; size = 4
??3@YAXPAX0@Z PROC NEAR					; operator delete, COMDAT

; 112  :         {return; }

  00000	c3		 ret	 0
??3@YAXPAX0@Z ENDP					; operator delete
_TEXT	ENDS
PUBLIC	?LoadScript@CEventLua@@QAEXXZ			; CEventLua::LoadScript
PUBLIC	??_C@_09BFLDBOAB@Event?4lua?$AA@		; `string'
PUBLIC	??_C@_0BH@KMCEPDIF@Event?4lua?5?$LN?G?G?$OA?5?$LN?G?F?P?$CB?$CB?$CB?$AA@ ; `string'
EXTRN	?Error@@YAPBDPBDZZ:NEAR				; Error
EXTRN	?RunScript@CLuaBase@@QAEHPBD@Z:NEAR		; CLuaBase::RunScript
;	COMDAT ??_C@_09BFLDBOAB@Event?4lua?$AA@
; File c:\documents and settings\test\mes documents\source\virtuos_v17\build\program\_common\eventlua.cpp
CONST	SEGMENT
??_C@_09BFLDBOAB@Event?4lua?$AA@ DB 'Event.lua', 00H	; `string'
CONST	ENDS
;	COMDAT ??_C@_0BH@KMCEPDIF@Event?4lua?5?$LN?G?G?$OA?5?$LN?G?F?P?$CB?$CB?$CB?$AA@
CONST	SEGMENT
??_C@_0BH@KMCEPDIF@Event?4lua?5?$LN?G?G?$OA?5?$LN?G?F?P?$CB?$CB?$CB?$AA@ DB 'E'
	DB	'vent.lua ', 0bdH, 0c7H, 0c7H, 0e0H, ' ', 0bdH, 0c7H, 0c6H, 0d0H
	DB	'!!!', 00H					; `string'
; Function compile flags: /Ogty
CONST	ENDS
;	COMDAT ?LoadScript@CEventLua@@QAEXXZ
_TEXT	SEGMENT
?LoadScript@CEventLua@@QAEXXZ PROC NEAR			; CEventLua::LoadScript, COMDAT
; _this$ = ecx

; 174  : {

  00000	56		 push	 esi
  00001	8b f1		 mov	 esi, ecx

; 175  : 	m_bRun = FALSE;
; 176  : 	if( m_Lua.RunScript( "Event.lua" ) == 0 )

  00003	68 00 00 00 00	 push	 OFFSET FLAT:??_C@_09BFLDBOAB@Event?4lua?$AA@
  00008	8d 4e 30	 lea	 ecx, DWORD PTR [esi+48]
  0000b	c7 46 2c 00 00
	00 00		 mov	 DWORD PTR [esi+44], 0
  00012	e8 00 00 00 00	 call	 ?RunScript@CLuaBase@@QAEHPBD@Z ; CLuaBase::RunScript
  00017	85 c0		 test	 eax, eax
  00019	75 09		 jne	 SHORT $L187325

; 177  : 	{
; 178  : 		m_bRun = TRUE;

  0001b	c7 46 2c 01 00
	00 00		 mov	 DWORD PTR [esi+44], 1
  00022	5e		 pop	 esi

; 199  : 	}
; 200  : }

  00023	c3		 ret	 0
$L187325:

; 179  : #ifdef __WORLDSERVER
; 180  : #if __VER >= 12 // __EVENTLUA_0826
; 181  : 		PrepareProxy();
; 182  : #endif	// __EVENTLUA_0826
; 183  : #ifdef __EVENTLUA_SPAWN
; 184  : 		for( map<BYTE, VECSPAWNINFO>::iterator it=m_mapSpawnList.begin(); it!=m_mapSpawnList.end(); it++ )
; 185  : 			m_vecEndSpawnEvent.push_back( it->first );
; 186  : 		m_mapSpawnList.clear();
; 187  : #endif // __EVENTLUA_SPAWN
; 188  : #endif // __WORLDSERVER
; 189  : #ifdef __DBSERVER
; 190  : #ifdef __VTN_TIMELIMIT
; 191  : 		if( ::GetLanguage() == LANG_VTN )
; 192  : 			m_bTimeLimit = m_Lua.GetGlobalBool( "bTimeLimit" );
; 193  : #endif // __VTN_TIMELIMIT
; 194  : #endif // __DBSERVER
; 195  : 	}
; 196  : 	else
; 197  : 	{
; 198  : 		Error( "Event.lua  !!!" );

  00024	68 00 00 00 00	 push	 OFFSET FLAT:??_C@_0BH@KMCEPDIF@Event?4lua?5?$LN?G?G?$OA?5?$LN?G?F?P?$CB?$CB?$CB?$AA@
  00029	e8 00 00 00 00	 call	 ?Error@@YAPBDPBDZZ	; Error
  0002e	83 c4 04	 add	 esp, 4
  00031	5e		 pop	 esi

; 199  : 	}
; 200  : }

  00032	c3		 ret	 0
?LoadScript@CEventLua@@QAEXXZ ENDP			; CEventLua::LoadScript
_TEXT	ENDS
PUBLIC	??0?$allocator@V?$basic_string@DU?$char_traits@D@std@@V?$allocator@D@2@@std@@@std@@QAE@XZ ; std::allocator<std::basic_string<char,std::char_traits<char>,std::allocator<char> > >::allocator<std::basic_string<char,std::char_traits<char>,std::allocator<char> > >
; Function compile flags: /Ogty
; File c:\program files\microsoft visual studio .net 2003\vc7\include\xmemory
;	COMDAT ??0?$allocator@V?$basic_string@DU?$char_traits@D@std@@V?$allocator@D@2@@std@@@std@@QAE@XZ
_TEXT	SEGMENT
??0?$allocator@V?$basic_string@DU?$char_traits@D@std@@V?$allocator@D@2@@std@@@std@@QAE@XZ PROC NEAR ; std::allocator<std::basic_string<char,std::char_traits<char>,std::allocator<char> > >::allocator<std::basic_string<char,std::char_traits<char>,std::allocator<char> > >, COMDAT
; _this$ = ecx

; 111  : 	allocator()

  00000	8b c1		 mov	 eax, ecx

; 112  : 		{	// construct default allocator (do nothing)
; 113  : 		}

  00002	c3		 ret	 0
??0?$allocator@V?$basic_string@DU?$char_traits@D@std@@V?$allocator@D@2@@std@@@std@@QAE@XZ ENDP ; std::allocator<std::basic_string<char,std::char_traits<char>,std::allocator<char> > >::allocator<std::basic_string<char,std::char_traits<char>,std::allocator<char> > >
_TEXT	ENDS
PUBLIC	??0?$allocator@V?$basic_string@DU?$char_traits@D@std@@V?$allocator@D@2@@std@@@std@@QAE@ABV01@@Z ; std::allocator<std::basic_string<char,std::char_traits<char>,std::allocator<char> > >::allocator<std::basic_string<char,std::char_traits<char>,std::allocator<char> > >
; Function compile flags: /Ogty
;	COMDAT ??0?$allocator@V?$basic_string@DU?$char_traits@D@std@@V?$allocator@D@2@@std@@@std@@QAE@ABV01@@Z
_TEXT	SEGMENT
___formal$ = 8						; size = 4
??0?$allocator@V?$basic_string@DU?$char_traits@D@std@@V?$allocator@D@2@@std@@@std@@QAE@ABV01@@Z PROC NEAR ; std::allocator<std::basic_string<char,std::char_traits<char>,std::allocator<char> > >::allocator<std::basic_string<char,std::char_traits<char>,std::allocator<char> > >, COMDAT
; _this$ = ecx

; 115  : 	allocator(const allocator<_Ty>&)

  00000	8b c1		 mov	 eax, ecx

; 116  : 		{	// construct by copying (do nothing)
; 117  : 		}

  00002	c2 04 00	 ret	 4
??0?$allocator@V?$basic_string@DU?$char_traits@D@std@@V?$allocator@D@2@@std@@@std@@QAE@ABV01@@Z ENDP ; std::allocator<std::basic_string<char,std::char_traits<char>,std::allocator<char> > >::allocator<std::basic_string<char,std::char_traits<char>,std::allocator<char> > >
_TEXT	ENDS
PUBLIC	?_Isnil@?$_Tree@V?$_Tmap_traits@EHU?$less@E@std@@V?$allocator@U?$pair@$$CBEH@std@@@2@$0A@@std@@@std@@KAAADPAU_Node@?$_Tree_nod@V?$_Tmap_traits@EHU?$less@E@std@@V?$allocator@U?$pair@$$CBEH@std@@@2@$0A@@std@@@2@@Z ; std::_Tree<std::_Tmap_traits<unsigned char,int,std::less<unsigned char>,std::allocator<std::pair<unsigned char const ,int> >,0> >::_Isnil
; Function compile flags: /Ogty
; File c:\program files\microsoft visual studio .net 2003\vc7\include\xtree
;	COMDAT ?_Isnil@?$_Tree@V?$_Tmap_traits@EHU?$less@E@std@@V?$allocator@U?$pair@$$CBEH@std@@@2@$0A@@std@@@std@@KAAADPAU_Node@?$_Tree_nod@V?$_Tmap_traits@EHU?$less@E@std@@V?$allocator@U?$pair@$$CBEH@std@@@2@$0A@@std@@@2@@Z
_TEXT	SEGMENT
__Pnode$ = 8						; size = 4
?_Isnil@?$_Tree@V?$_Tmap_traits@EHU?$less@E@std@@V?$allocator@U?$pair@$$CBEH@std@@@2@$0A@@std@@@std@@KAAADPAU_Node@?$_Tree_nod@V?$_Tmap_traits@EHU?$less@E@std@@V?$allocator@U?$pair@$$CBEH@std@@@2@$0A@@std@@@2@@Z PROC NEAR ; std::_Tree<std::_Tmap_traits<unsigned char,int,std::less<unsigned char>,std::allocator<std::pair<unsigned char const ,int> >,0> >::_Isnil, COMDAT

; 137  : 		return ((_Charref)(*_Pnode)._Isnil);

  00000	8b 44 24 04	 mov	 eax, DWORD PTR __Pnode$[esp-4]
  00004	83 c0 15	 add	 eax, 21			; 00000015H

; 138  : 		}

  00007	c3		 ret	 0
?_Isnil@?$_Tree@V?$_Tmap_traits@EHU?$less@E@std@@V?$allocator@U?$pair@$$CBEH@std@@@2@$0A@@std@@@std@@KAAADPAU_Node@?$_Tree_nod@V?$_Tmap_traits@EHU?$less@E@std@@V?$allocator@U?$pair@$$CBEH@std@@@2@$0A@@std@@@2@@Z ENDP ; std::_Tree<std::_Tmap_traits<unsigned char,int,std::less<unsigned char>,std::allocator<std::pair<unsigned char const ,int> >,0> >::_Isnil
_TEXT	ENDS
PUBLIC	?_Left@?$_Tree@V?$_Tmap_traits@EHU?$less@E@std@@V?$allocator@U?$pair@$$CBEH@std@@@2@$0A@@std@@@std@@KAAAPAU_Node@?$_Tree_nod@V?$_Tmap_traits@EHU?$less@E@std@@V?$allocator@U?$pair@$$CBEH@std@@@2@$0A@@std@@@2@PAU342@@Z ; std::_Tree<std::_Tmap_traits<unsigned char,int,std::less<unsigned char>,std::allocator<std::pair<unsigned char const ,int> >,0> >::_Left
; Function compile flags: /Ogty
;	COMDAT ?_Left@?$_Tree@V?$_Tmap_traits@EHU?$less@E@std@@V?$allocator@U?$pair@$$CBEH@std@@@2@$0A@@std@@@std@@KAAAPAU_Node@?$_Tree_nod@V?$_Tmap_traits@EHU?$less@E@std@@V?$allocator@U?$pair@$$CBEH@std@@@2@$0A@@std@@@2@PAU342@@Z
_TEXT	SEGMENT
__Pnode$ = 8						; size = 4
?_Left@?$_Tree@V?$_Tmap_traits@EHU?$less@E@std@@V?$allocator@U?$pair@$$CBEH@std@@@2@$0A@@std@@@std@@KAAAPAU_Node@?$_Tree_nod@V?$_Tmap_traits@EHU?$less@E@std@@V?$allocator@U?$pair@$$CBEH@std@@@2@$0A@@std@@@2@PAU342@@Z PROC NEAR ; std::_Tree<std::_Tmap_traits<unsigned char,int,std::less<unsigned char>,std::allocator<std::pair<unsigned char const ,int> >,0> >::_Left, COMDAT

; 147  : 		return ((_Nodepref)(*_Pnode)._Left);

  00000	8b 44 24 04	 mov	 eax, DWORD PTR __Pnode$[esp-4]

; 148  : 		}

  00004	c3		 ret	 0
?_Left@?$_Tree@V?$_Tmap_traits@EHU?$less@E@std@@V?$allocator@U?$pair@$$CBEH@std@@@2@$0A@@std@@@std@@KAAAPAU_Node@?$_Tree_nod@V?$_Tmap_traits@EHU?$less@E@std@@V?$allocator@U?$pair@$$CBEH@std@@@2@$0A@@std@@@2@PAU342@@Z ENDP ; std::_Tree<std::_Tmap_traits<unsigned char,int,std::less<unsigned char>,std::allocator<std::pair<unsigned char const ,int> >,0> >::_Left
_TEXT	ENDS
PUBLIC	?_Right@?$_Tree@V?$_Tmap_traits@EHU?$less@E@std@@V?$allocator@U?$pair@$$CBEH@std@@@2@$0A@@std@@@std@@KAAAPAU_Node@?$_Tree_nod@V?$_Tmap_traits@EHU?$less@E@std@@V?$allocator@U?$pair@$$CBEH@std@@@2@$0A@@std@@@2@PAU342@@Z ; std::_Tree<std::_Tmap_traits<unsigned char,int,std::less<unsigned char>,std::allocator<std::pair<unsigned char const ,int> >,0> >::_Right
; Function compile flags: /Ogty
;	COMDAT ?_Right@?$_Tree@V?$_Tmap_traits@EHU?$less@E@std@@V?$allocator@U?$pair@$$CBEH@std@@@2@$0A@@std@@@std@@KAAAPAU_Node@?$_Tree_nod@V?$_Tmap_traits@EHU?$less@E@std@@V?$allocator@U?$pair@$$CBEH@std@@@2@$0A@@std@@@2@PAU342@@Z
_TEXT	SEGMENT
__Pnode$ = 8						; size = 4
?_Right@?$_Tree@V?$_Tmap_traits@EHU?$less@E@std@@V?$allocator@U?$pair@$$CBEH@std@@@2@$0A@@std@@@std@@KAAAPAU_Node@?$_Tree_nod@V?$_Tmap_traits@EHU?$less@E@std@@V?$allocator@U?$pair@$$CBEH@std@@@2@$0A@@std@@@2@PAU342@@Z PROC NEAR ; std::_Tree<std::_Tmap_traits<unsigned char,int,std::less<unsigned char>,std::allocator<std::pair<unsigned char const ,int> >,0> >::_Right, COMDAT

; 157  : 		return ((_Nodepref)(*_Pnode)._Right);

  00000	8b 44 24 04	 mov	 eax, DWORD PTR __Pnode$[esp-4]
  00004	83 c0 08	 add	 eax, 8

; 158  : 		}

  00007	c3		 ret	 0
?_Right@?$_Tree@V?$_Tmap_traits@EHU?$less@E@std@@V?$allocator@U?$pair@$$CBEH@std@@@2@$0A@@std@@@std@@KAAAPAU_Node@?$_Tree_nod@V?$_Tmap_traits@EHU?$less@E@std@@V?$allocator@U?$pair@$$CBEH@std@@@2@$0A@@std@@@2@PAU342@@Z ENDP ; std::_Tree<std::_Tmap_traits<unsigned char,int,std::less<unsigned char>,std::allocator<std::pair<unsigned char const ,int> >,0> >::_Right
_TEXT	ENDS
PUBLIC	?size@?$_Tree@V?$_Tmap_traits@EHU?$less@E@std@@V?$allocator@U?$pair@$$CBEH@std@@@2@$0A@@std@@@std@@QBEIXZ ; std::_Tree<std::_Tmap_traits<unsigned char,int,std::less<unsigned char>,std::allocator<std::pair<unsigned char const ,int> >,0> >::size
; Function compile flags: /Ogty
;	COMDAT ?size@?$_Tree@V?$_Tmap_traits@EHU?$less@E@std@@V?$allocator@U?$pair@$$CBEH@std@@@2@$0A@@std@@@std@@QBEIXZ
_TEXT	SEGMENT
?size@?$_Tree@V?$_Tmap_traits@EHU?$less@E@std@@V?$allocator@U?$pair@$$CBEH@std@@@2@$0A@@std@@@std@@QBEIXZ PROC NEAR ; std::_Tree<std::_Tmap_traits<unsigned char,int,std::less<unsigned char>,std::allocator<std::pair<unsigned char const ,int> >,0> >::size, COMDAT
; _this$ = ecx

; 448  : 		return (_Mysize);

  00000	8b 41 08	 mov	 eax, DWORD PTR [ecx+8]

; 449  : 		}

  00003	c3		 ret	 0
?size@?$_Tree@V?$_Tmap_traits@EHU?$less@E@std@@V?$allocator@U?$pair@$$CBEH@std@@@2@$0A@@std@@@std@@QBEIXZ ENDP ; std::_Tree<std::_Tmap_traits<unsigned char,int,std::less<unsigned char>,std::allocator<std::pair<unsigned char const ,int> >,0> >::size
_TEXT	ENDS
PUBLIC	?_Lmost@?$_Tree@V?$_Tmap_traits@EHU?$less@E@std@@V?$allocator@U?$pair@$$CBEH@std@@@2@$0A@@std@@@std@@IAEAAPAU_Node@?$_Tree_nod@V?$_Tmap_traits@EHU?$less@E@std@@V?$allocator@U?$pair@$$CBEH@std@@@2@$0A@@std@@@2@XZ ; std::_Tree<std::_Tmap_traits<unsigned char,int,std::less<unsigned char>,std::allocator<std::pair<unsigned char const ,int> >,0> >::_Lmost
; Function compile flags: /Ogty
;	COMDAT ?_Lmost@?$_Tree@V?$_Tmap_traits@EHU?$less@E@std@@V?$allocator@U?$pair@$$CBEH@std@@@2@$0A@@std@@@std@@IAEAAPAU_Node@?$_Tree_nod@V?$_Tmap_traits@EHU?$less@E@std@@V?$allocator@U?$pair@$$CBEH@std@@@2@$0A@@std@@@2@XZ
_TEXT	SEGMENT
?_Lmost@?$_Tree@V?$_Tmap_traits@EHU?$less@E@std@@V?$allocator@U?$pair@$$CBEH@std@@@2@$0A@@std@@@std@@IAEAAPAU_Node@?$_Tree_nod@V?$_Tmap_traits@EHU?$less@E@std@@V?$allocator@U?$pair@$$CBEH@std@@@2@$0A@@std@@@2@XZ PROC NEAR ; std::_Tree<std::_Tmap_traits<unsigned char,int,std::less<unsigned char>,std::allocator<std::pair<unsigned char const ,int> >,0> >::_Lmost, COMDAT
; _this$ = ecx

; 1005 : 		return (_Left(_Myhead));

  00000	8b 41 04	 mov	 eax, DWORD PTR [ecx+4]

; 1006 : 		}

  00003	c3		 ret	 0
?_Lmost@?$_Tree@V?$_Tmap_traits@EHU?$less@E@std@@V?$allocator@U?$pair@$$CBEH@std@@@2@$0A@@std@@@std@@IAEAAPAU_Node@?$_Tree_nod@V?$_Tmap_traits@EHU?$less@E@std@@V?$allocator@U?$pair@$$CBEH@std@@@2@$0A@@std@@@2@XZ ENDP ; std::_Tree<std::_Tmap_traits<unsigned char,int,std::less<unsigned char>,std::allocator<std::pair<unsigned char const ,int> >,0> >::_Lmost
_TEXT	ENDS
PUBLIC	?_Rmost@?$_Tree@V?$_Tmap_traits@EHU?$less@E@std@@V?$allocator@U?$pair@$$CBEH@std@@@2@$0A@@std@@@std@@IAEAAPAU_Node@?$_Tree_nod@V?$_Tmap_traits@EHU?$less@E@std@@V?$allocator@U?$pair@$$CBEH@std@@@2@$0A@@std@@@2@XZ ; std::_Tree<std::_Tmap_traits<unsigned char,int,std::less<unsigned char>,std::allocator<std::pair<unsigned char const ,int> >,0> >::_Rmost
; Function compile flags: /Ogty
;	COMDAT ?_Rmost@?$_Tree@V?$_Tmap_traits@EHU?$less@E@std@@V?$allocator@U?$pair@$$CBEH@std@@@2@$0A@@std@@@std@@IAEAAPAU_Node@?$_Tree_nod@V?$_Tmap_traits@EHU?$less@E@std@@V?$allocator@U?$pair@$$CBEH@std@@@2@$0A@@std@@@2@XZ
_TEXT	SEGMENT
?_Rmost@?$_Tree@V?$_Tmap_traits@EHU?$less@E@std@@V?$allocator@U?$pair@$$CBEH@std@@@2@$0A@@std@@@std@@IAEAAPAU_Node@?$_Tree_nod@V?$_Tmap_traits@EHU?$less@E@std@@V?$allocator@U?$pair@$$CBEH@std@@@2@$0A@@std@@@2@XZ PROC NEAR ; std::_Tree<std::_Tmap_traits<unsigned char,int,std::less<unsigned char>,std::allocator<std::pair<unsigned char const ,int> >,0> >::_Rmost, COMDAT
; _this$ = ecx

; 1049 : 		return (_Right(_Myhead));

  00000	8b 41 04	 mov	 eax, DWORD PTR [ecx+4]
  00003	83 c0 08	 add	 eax, 8

; 1050 : 		}

  00006	c3		 ret	 0
?_Rmost@?$_Tree@V?$_Tmap_traits@EHU?$less@E@std@@V?$allocator@U?$pair@$$CBEH@std@@@2@$0A@@std@@@std@@IAEAAPAU_Node@?$_Tree_nod@V?$_Tmap_traits@EHU?$less@E@std@@V?$allocator@U?$pair@$$CBEH@std@@@2@$0A@@std@@@2@XZ ENDP ; std::_Tree<std::_Tmap_traits<unsigned char,int,std::less<unsigned char>,std::allocator<std::pair<unsigned char const ,int> >,0> >::_Rmost
_TEXT	ENDS
PUBLIC	?_Kfn@?$_Tmap_traits@EHU?$less@E@std@@V?$allocator@U?$pair@$$CBEH@std@@@2@$0A@@std@@SAABEABU?$pair@$$CBEH@2@@Z ; std::_Tmap_traits<unsigned char,int,std::less<unsigned char>,std::allocator<std::pair<unsigned char const ,int> >,0>::_Kfn
; Function compile flags: /Ogty
; File c:\program files\microsoft visual studio .net 2003\vc7\include\map
;	COMDAT ?_Kfn@?$_Tmap_traits@EHU?$less@E@std@@V?$allocator@U?$pair@$$CBEH@std@@@2@$0A@@std@@SAABEABU?$pair@$$CBEH@2@@Z
_TEXT	SEGMENT
__Val$ = 8						; size = 4
?_Kfn@?$_Tmap_traits@EHU?$less@E@std@@V?$allocator@U?$pair@$$CBEH@std@@@2@$0A@@std@@SAABEABU?$pair@$$CBEH@2@@Z PROC NEAR ; std::_Tmap_traits<unsigned char,int,std::less<unsigned char>,std::allocator<std::pair<unsigned char const ,int> >,0>::_Kfn, COMDAT

; 64   : 		return (_Val.first);

  00000	8b 44 24 04	 mov	 eax, DWORD PTR __Val$[esp-4]

; 65   : 		}

  00004	c3		 ret	 0
?_Kfn@?$_Tmap_traits@EHU?$less@E@std@@V?$allocator@U?$pair@$$CBEH@std@@@2@$0A@@std@@SAABEABU?$pair@$$CBEH@2@@Z ENDP ; std::_Tmap_traits<unsigned char,int,std::less<unsigned char>,std::allocator<std::pair<unsigned char const ,int> >,0>::_Kfn
_TEXT	ENDS
PUBLIC	??0?$allocator@U?$pair@$$CBEH@std@@@std@@QAE@XZ	; std::allocator<std::pair<unsigned char const ,int> >::allocator<std::pair<unsigned char const ,int> >
; Function compile flags: /Ogty
; File c:\program files\microsoft visual studio .net 2003\vc7\include\xmemory
;	COMDAT ??0?$allocator@U?$pair@$$CBEH@std@@@std@@QAE@XZ
_TEXT	SEGMENT
??0?$allocator@U?$pair@$$CBEH@std@@@std@@QAE@XZ PROC NEAR ; std::allocator<std::pair<unsigned char const ,int> >::allocator<std::pair<unsigned char const ,int> >, COMDAT
; _this$ = ecx

; 111  : 	allocator()

  00000	8b c1		 mov	 eax, ecx

; 112  : 		{	// construct default allocator (do nothing)
; 113  : 		}

  00002	c3		 ret	 0
??0?$allocator@U?$pair@$$CBEH@std@@@std@@QAE@XZ ENDP	; std::allocator<std::pair<unsigned char const ,int> >::allocator<std::pair<unsigned char const ,int> >
_TEXT	ENDS
PUBLIC	??R?$less@E@std@@QBE_NABE0@Z			; std::less<unsigned char>::operator()
; Function compile flags: /Ogty
; File c:\program files\microsoft visual studio .net 2003\vc7\include\functional
;	COMDAT ??R?$less@E@std@@QBE_NABE0@Z
_TEXT	SEGMENT
__Left$ = 8						; size = 4
__Right$ = 12						; size = 4
??R?$less@E@std@@QBE_NABE0@Z PROC NEAR			; std::less<unsigned char>::operator(), COMDAT
; _this$ = ecx

; 139  : 		return (_Left < _Right);

  00000	8b 44 24 04	 mov	 eax, DWORD PTR __Left$[esp-4]
  00004	8a 08		 mov	 cl, BYTE PTR [eax]
  00006	8b 54 24 08	 mov	 edx, DWORD PTR __Right$[esp-4]
  0000a	33 c0		 xor	 eax, eax
  0000c	3a 0a		 cmp	 cl, BYTE PTR [edx]
  0000e	1b c0		 sbb	 eax, eax
  00010	f7 d8		 neg	 eax

; 140  : 		}

  00012	c2 08 00	 ret	 8
??R?$less@E@std@@QBE_NABE0@Z ENDP			; std::less<unsigned char>::operator()
_TEXT	ENDS
PUBLIC	??0?$allocator@E@std@@QAE@XZ			; std::allocator<unsigned char>::allocator<unsigned char>
; Function compile flags: /Ogty
; File c:\program files\microsoft visual studio .net 2003\vc7\include\xmemory
;	COMDAT ??0?$allocator@E@std@@QAE@XZ
_TEXT	SEGMENT
??0?$allocator@E@std@@QAE@XZ PROC NEAR			; std::allocator<unsigned char>::allocator<unsigned char>, COMDAT
; _this$ = ecx

; 111  : 	allocator()

  00000	8b c1		 mov	 eax, ecx

; 112  : 		{	// construct default allocator (do nothing)
; 113  : 		}

  00002	c3		 ret	 0
??0?$allocator@E@std@@QAE@XZ ENDP			; std::allocator<unsigned char>::allocator<unsigned char>
_TEXT	ENDS
PUBLIC	??0?$allocator@E@std@@QAE@ABV01@@Z		; std::allocator<unsigned char>::allocator<unsigned char>
; Function compile flags: /Ogty
;	COMDAT ??0?$allocator@E@std@@QAE@ABV01@@Z
_TEXT	SEGMENT
___formal$ = 8						; size = 4
??0?$allocator@E@std@@QAE@ABV01@@Z PROC NEAR		; std::allocator<unsigned char>::allocator<unsigned char>, COMDAT
; _this$ = ecx

; 115  : 	allocator(const allocator<_Ty>&)

  00000	8b c1		 mov	 eax, ecx

; 116  : 		{	// construct by copying (do nothing)
; 117  : 		}

  00002	c2 04 00	 ret	 4
??0?$allocator@E@std@@QAE@ABV01@@Z ENDP			; std::allocator<unsigned char>::allocator<unsigned char>
_TEXT	ENDS
PUBLIC	?capacity@?$vector@V?$basic_string@DU?$char_traits@D@std@@V?$allocator@D@2@@std@@V?$allocator@V?$basic_string@DU?$char_traits@D@std@@V?$allocator@D@2@@std@@@2@@std@@QBEIXZ ; std::vector<std::basic_string<char,std::char_traits<char>,std::allocator<char> >,std::allocator<std::basic_string<char,std::char_traits<char>,std::allocator<char> > > >::capacity
; Function compile flags: /Ogty
; File c:\program files\microsoft visual studio .net 2003\vc7\include\vector
;	COMDAT ?capacity@?$vector@V?$basic_string@DU?$char_traits@D@std@@V?$allocator@D@2@@std@@V?$allocator@V?$basic_string@DU?$char_traits@D@std@@V?$allocator@D@2@@std@@@2@@std@@QBEIXZ
_TEXT	SEGMENT
?capacity@?$vector@V?$basic_string@DU?$char_traits@D@std@@V?$allocator@D@2@@std@@V?$allocator@V?$basic_string@DU?$char_traits@D@std@@V?$allocator@D@2@@std@@@2@@std@@QBEIXZ PROC NEAR ; std::vector<std::basic_string<char,std::char_traits<char>,std::allocator<char> >,std::allocator<std::basic_string<char,std::char_traits<char>,std::allocator<char> > > >::capacity, COMDAT
; _this$ = ecx

; 458  : 		return (_Myfirst == 0 ? 0 : _Myend - _Myfirst);

  00000	8b 41 04	 mov	 eax, DWORD PTR [ecx+4]
  00003	85 c0		 test	 eax, eax
  00005	75 01		 jne	 SHORT $L189336

; 459  : 		}

  00007	c3		 ret	 0
$L189336:

; 458  : 		return (_Myfirst == 0 ? 0 : _Myend - _Myfirst);

  00008	8b 49 0c	 mov	 ecx, DWORD PTR [ecx+12]
  0000b	2b c8		 sub	 ecx, eax
  0000d	b8 93 24 49 92	 mov	 eax, -1840700269	; 92492493H
  00012	f7 e9		 imul	 ecx
  00014	03 d1		 add	 edx, ecx
  00016	c1 fa 04	 sar	 edx, 4
  00019	8b c2		 mov	 eax, edx
  0001b	c1 e8 1f	 shr	 eax, 31			; 0000001fH
  0001e	03 c2		 add	 eax, edx

; 459  : 		}

  00020	c3		 ret	 0
?capacity@?$vector@V?$basic_string@DU?$char_traits@D@std@@V?$allocator@D@2@@std@@V?$allocator@V?$basic_string@DU?$char_traits@D@std@@V?$allocator@D@2@@std@@@2@@std@@QBEIXZ ENDP ; std::vector<std::basic_string<char,std::char_traits<char>,std::allocator<char> >,std::allocator<std::basic_string<char,std::char_traits<char>,std::allocator<char> > > >::capacity
_TEXT	ENDS
PUBLIC	?size@?$vector@V?$basic_string@DU?$char_traits@D@std@@V?$allocator@D@2@@std@@V?$allocator@V?$basic_string@DU?$char_traits@D@std@@V?$allocator@D@2@@std@@@2@@std@@QBEIXZ ; std::vector<std::basic_string<char,std::char_traits<char>,std::allocator<char> >,std::allocator<std::basic_string<char,std::char_traits<char>,std::allocator<char> > > >::size
; Function compile flags: /Ogty
;	COMDAT ?size@?$vector@V?$basic_string@DU?$char_traits@D@std@@V?$allocator@D@2@@std@@V?$allocator@V?$basic_string@DU?$char_traits@D@std@@V?$allocator@D@2@@std@@@2@@std@@QBEIXZ
_TEXT	SEGMENT
?size@?$vector@V?$basic_string@DU?$char_traits@D@std@@V?$allocator@D@2@@std@@V?$allocator@V?$basic_string@DU?$char_traits@D@std@@V?$allocator@D@2@@std@@@2@@std@@QBEIXZ PROC NEAR ; std::vector<std::basic_string<char,std::char_traits<char>,std::allocator<char> >,std::allocator<std::basic_string<char,std::char_traits<char>,std::allocator<char> > > >::size, COMDAT
; _this$ = ecx

; 516  : 		return (_Myfirst == 0 ? 0 : _Mylast - _Myfirst);

  00000	8b 41 04	 mov	 eax, DWORD PTR [ecx+4]
  00003	85 c0		 test	 eax, eax
  00005	75 01		 jne	 SHORT $L189340

; 517  : 		}

  00007	c3		 ret	 0
$L189340:

; 516  : 		return (_Myfirst == 0 ? 0 : _Mylast - _Myfirst);

  00008	8b 49 08	 mov	 ecx, DWORD PTR [ecx+8]
  0000b	2b c8		 sub	 ecx, eax
  0000d	b8 93 24 49 92	 mov	 eax, -1840700269	; 92492493H
  00012	f7 e9		 imul	 ecx
  00014	03 d1		 add	 edx, ecx
  00016	c1 fa 04	 sar	 edx, 4
  00019	8b c2		 mov	 eax, edx
  0001b	c1 e8 1f	 shr	 eax, 31			; 0000001fH
  0001e	03 c2		 add	 eax, edx

; 517  : 		}

  00020	c3		 ret	 0
?size@?$vector@V?$basic_string@DU?$char_traits@D@std@@V?$allocator@D@2@@std@@V?$allocator@V?$basic_string@DU?$char_traits@D@std@@V?$allocator@D@2@@std@@@2@@std@@QBEIXZ ENDP ; std::vector<std::basic_string<char,std::char_traits<char>,std::allocator<char> >,std::allocator<std::basic_string<char,std::char_traits<char>,std::allocator<char> > > >::size
_TEXT	ENDS
PUBLIC	??0?$_Vector_val@V?$basic_string@DU?$char_traits@D@std@@V?$allocator@D@2@@std@@V?$allocator@V?$basic_string@DU?$char_traits@D@std@@V?$allocator@D@2@@std@@@2@@std@@IAE@V?$allocator@V?$basic_string@DU?$char_traits@D@std@@V?$allocator@D@2@@std@@@1@@Z ; std::_Vector_val<std::basic_string<char,std::char_traits<char>,std::allocator<char> >,std::allocator<std::basic_string<char,std::char_traits<char>,std::allocator<char> > > >::_Vector_val<std::basic_string<char,std::char_traits<char>,std::allocator<char> >,std::allocator<std::basic_string<char,std::char_traits<char>,std::allocator<char> > > >
; Function compile flags: /Ogty
;	COMDAT ??0?$_Vector_val@V?$basic_string@DU?$char_traits@D@std@@V?$allocator@D@2@@std@@V?$allocator@V?$basic_string@DU?$char_traits@D@std@@V?$allocator@D@2@@std@@@2@@std@@IAE@V?$allocator@V?$basic_string@DU?$char_traits@D@std@@V?$allocator@D@2@@std@@@1@@Z
_TEXT	SEGMENT
__Al$ = 8						; size = 1
??0?$_Vector_val@V?$basic_string@DU?$char_traits@D@std@@V?$allocator@D@2@@std@@V?$allocator@V?$basic_string@DU?$char_traits@D@std@@V?$allocator@D@2@@std@@@2@@std@@IAE@V?$allocator@V?$basic_string@DU?$char_traits@D@std@@V?$allocator@D@2@@std@@@1@@Z PROC NEAR ; std::_Vector_val<std::basic_string<char,std::char_traits<char>,std::allocator<char> >,std::allocator<std::basic_string<char,std::char_traits<char>,std::allocator<char> > > >::_Vector_val<std::basic_string<char,std::char_traits<char>,std::allocator<char> >,std::allocator<std::basic_string<char,std::char_traits<char>,std::allocator<char> > > >, COMDAT
; _this$ = ecx

; 21   : 		{	// construct allocator from _Al

  00000	8b c1		 mov	 eax, ecx

; 22   : 		}

  00002	c2 04 00	 ret	 4
??0?$_Vector_val@V?$basic_string@DU?$char_traits@D@std@@V?$allocator@D@2@@std@@V?$allocator@V?$basic_string@DU?$char_traits@D@std@@V?$allocator@D@2@@std@@@2@@std@@IAE@V?$allocator@V?$basic_string@DU?$char_traits@D@std@@V?$allocator@D@2@@std@@@1@@Z ENDP ; std::_Vector_val<std::basic_string<char,std::char_traits<char>,std::allocator<char> >,std::allocator<std::basic_string<char,std::char_traits<char>,std::allocator<char> > > >::_Vector_val<std::basic_string<char,std::char_traits<char>,std::allocator<char> >,std::allocator<std::basic_string<char,std::char_traits<char>,std::allocator<char> > > >
_TEXT	ENDS
PUBLIC	??0?$pair@Viterator@?$_Tree@V?$_Tmap_traits@EHU?$less@E@std@@V?$allocator@U?$pair@$$CBEH@std@@@2@$0A@@std@@@std@@_N@std@@QAE@ABViterator@?$_Tree@V?$_Tmap_traits@EHU?$less@E@std@@V?$allocator@U?$pair@$$CBEH@std@@@2@$0A@@std@@@1@AB_N@Z ; std::pair<std::_Tree<std::_Tmap_traits<unsigned char,int,std::less<unsigned char>,std::allocator<std::pair<unsigned char const ,int> >,0> >::iterator,bool>::pair<std::_Tree<std::_Tmap_traits<unsigned char,int,std::less<unsigned char>,std::allocator<std::pair<unsigned char const ,int> >,0> >::iterator,bool>
; Function compile flags: /Ogty
; File c:\program files\microsoft visual studio .net 2003\vc7\include\utility
;	COMDAT ??0?$pair@Viterator@?$_Tree@V?$_Tmap_traits@EHU?$less@E@std@@V?$allocator@U?$pair@$$CBEH@std@@@2@$0A@@std@@@std@@_N@std@@QAE@ABViterator@?$_Tree@V?$_Tmap_traits@EHU?$less@E@std@@V?$allocator@U?$pair@$$CBEH@std@@@2@$0A@@std@@@1@AB_N@Z
_TEXT	SEGMENT
__Val1$ = 8						; size = 4
__Val2$ = 12						; size = 4
??0?$pair@Viterator@?$_Tree@V?$_Tmap_traits@EHU?$less@E@std@@V?$allocator@U?$pair@$$CBEH@std@@@2@$0A@@std@@@std@@_N@std@@QAE@ABViterator@?$_Tree@V?$_Tmap_traits@EHU?$less@E@std@@V?$allocator@U?$pair@$$CBEH@std@@@2@$0A@@std@@@1@AB_N@Z PROC NEAR ; std::pair<std::_Tree<std::_Tmap_traits<unsigned char,int,std::less<unsigned char>,std::allocator<std::pair<unsigned char const ,int> >,0> >::iterator,bool>::pair<std::_Tree<std::_Tmap_traits<unsigned char,int,std::less<unsigned char>,std::allocator<std::pair<unsigned char const ,int> >,0> >::iterator,bool>, COMDAT
; _this$ = ecx

; 34   : 		{	// construct from specified values

  00000	8b c1		 mov	 eax, ecx
  00002	8b 4c 24 04	 mov	 ecx, DWORD PTR __Val1$[esp-4]
  00006	8b 11		 mov	 edx, DWORD PTR [ecx]
  00008	8b 4c 24 08	 mov	 ecx, DWORD PTR __Val2$[esp-4]
  0000c	89 10		 mov	 DWORD PTR [eax], edx
  0000e	8a 11		 mov	 dl, BYTE PTR [ecx]
  00010	88 50 04	 mov	 BYTE PTR [eax+4], dl

; 35   : 		}

  00013	c2 08 00	 ret	 8
??0?$pair@Viterator@?$_Tree@V?$_Tmap_traits@EHU?$less@E@std@@V?$allocator@U?$pair@$$CBEH@std@@@2@$0A@@std@@@std@@_N@std@@QAE@ABViterator@?$_Tree@V?$_Tmap_traits@EHU?$less@E@std@@V?$allocator@U?$pair@$$CBEH@std@@@2@$0A@@std@@@1@AB_N@Z ENDP ; std::pair<std::_Tree<std::_Tmap_traits<unsigned char,int,std::less<unsigned char>,std::allocator<std::pair<unsigned char const ,int> >,0> >::iterator,bool>::pair<std::_Tree<std::_Tmap_traits<unsigned char,int,std::less<unsigned char>,std::allocator<std::pair<unsigned char const ,int> >,0> >::iterator,bool>
_TEXT	ENDS
PUBLIC	??8const_iterator@?$_Tree@V?$_Tmap_traits@EHU?$less@E@std@@V?$allocator@U?$pair@$$CBEH@std@@@2@$0A@@std@@@std@@QBE_NABV012@@Z ; std::_Tree<std::_Tmap_traits<unsigned char,int,std::less<unsigned char>,std::allocator<std::pair<unsigned char const ,int> >,0> >::const_iterator::operator==
; Function compile flags: /Ogty
; File c:\program files\microsoft visual studio .net 2003\vc7\include\xtree
;	COMDAT ??8const_iterator@?$_Tree@V?$_Tmap_traits@EHU?$less@E@std@@V?$allocator@U?$pair@$$CBEH@std@@@2@$0A@@std@@@std@@QBE_NABV012@@Z
_TEXT	SEGMENT
__Right$ = 8						; size = 4
??8const_iterator@?$_Tree@V?$_Tmap_traits@EHU?$less@E@std@@V?$allocator@U?$pair@$$CBEH@std@@@2@$0A@@std@@@std@@QBE_NABV012@@Z PROC NEAR ; std::_Tree<std::_Tmap_traits<unsigned char,int,std::less<unsigned char>,std::allocator<std::pair<unsigned char const ,int> >,0> >::const_iterator::operator==, COMDAT
; _this$ = ecx

; 241  : 			return (_Ptr == _Right._Ptr);

  00000	8b 01		 mov	 eax, DWORD PTR [ecx]
  00002	8b 4c 24 04	 mov	 ecx, DWORD PTR __Right$[esp-4]
  00006	2b 01		 sub	 eax, DWORD PTR [ecx]
  00008	f7 d8		 neg	 eax
  0000a	1b c0		 sbb	 eax, eax
  0000c	40		 inc	 eax

; 242  : 			}

  0000d	c2 04 00	 ret	 4
??8const_iterator@?$_Tree@V?$_Tmap_traits@EHU?$less@E@std@@V?$allocator@U?$pair@$$CBEH@std@@@2@$0A@@std@@@std@@QBE_NABV012@@Z ENDP ; std::_Tree<std::_Tmap_traits<unsigned char,int,std::less<unsigned char>,std::allocator<std::pair<unsigned char const ,int> >,0> >::const_iterator::operator==
_TEXT	ENDS
PUBLIC	?_Mynode@const_iterator@?$_Tree@V?$_Tmap_traits@EHU?$less@E@std@@V?$allocator@U?$pair@$$CBEH@std@@@2@$0A@@std@@@std@@QBEPAU_Node@?$_Tree_nod@V?$_Tmap_traits@EHU?$less@E@std@@V?$allocator@U?$pair@$$CBEH@std@@@2@$0A@@std@@@3@XZ ; std::_Tree<std::_Tmap_traits<unsigned char,int,std::less<unsigned char>,std::allocator<std::pair<unsigned char const ,int> >,0> >::const_iterator::_Mynode
; Function compile flags: /Ogty
;	COMDAT ?_Mynode@const_iterator@?$_Tree@V?$_Tmap_traits@EHU?$less@E@std@@V?$allocator@U?$pair@$$CBEH@std@@@2@$0A@@std@@@std@@QBEPAU_Node@?$_Tree_nod@V?$_Tmap_traits@EHU?$less@E@std@@V?$allocator@U?$pair@$$CBEH@std@@@2@$0A@@std@@@3@XZ
_TEXT	SEGMENT
?_Mynode@const_iterator@?$_Tree@V?$_Tmap_traits@EHU?$less@E@std@@V?$allocator@U?$pair@$$CBEH@std@@@2@$0A@@std@@@std@@QBEPAU_Node@?$_Tree_nod@V?$_Tmap_traits@EHU?$less@E@std@@V?$allocator@U?$pair@$$CBEH@std@@@2@$0A@@std@@@3@XZ PROC NEAR ; std::_Tree<std::_Tmap_traits<unsigned char,int,std::less<unsigned char>,std::allocator<std::pair<unsigned char const ,int> >,0> >::const_iterator::_Mynode, COMDAT
; _this$ = ecx

; 284  : 			return (_Ptr);

  00000	8b 01		 mov	 eax, DWORD PTR [ecx]

; 285  : 			}

  00002	c3		 ret	 0
?_Mynode@const_iterator@?$_Tree@V?$_Tmap_traits@EHU?$less@E@std@@V?$allocator@U?$pair@$$CBEH@std@@@2@$0A@@std@@@std@@QBEPAU_Node@?$_Tree_nod@V?$_Tmap_traits@EHU?$less@E@std@@V?$allocator@U?$pair@$$CBEH@std@@@2@$0A@@std@@@3@XZ ENDP ; std::_Tree<std::_Tmap_traits<unsigned char,int,std::less<unsigned char>,std::allocator<std::pair<unsigned char const ,int> >,0> >::const_iterator::_Mynode
_TEXT	ENDS
PUBLIC	?capacity@?$vector@EV?$allocator@E@std@@@std@@QBEIXZ ; std::vector<unsigned char,std::allocator<unsigned char> >::capacity
; Function compile flags: /Ogty
; File c:\program files\microsoft visual studio .net 2003\vc7\include\vector
;	COMDAT ?capacity@?$vector@EV?$allocator@E@std@@@std@@QBEIXZ
_TEXT	SEGMENT
?capacity@?$vector@EV?$allocator@E@std@@@std@@QBEIXZ PROC NEAR ; std::vector<unsigned char,std::allocator<unsigned char> >::capacity, COMDAT
; _this$ = ecx

; 458  : 		return (_Myfirst == 0 ? 0 : _Myend - _Myfirst);

  00000	8b 51 04	 mov	 edx, DWORD PTR [ecx+4]
  00003	85 d2		 test	 edx, edx
  00005	75 03		 jne	 SHORT $L189355
  00007	33 c0		 xor	 eax, eax

; 459  : 		}

  00009	c3		 ret	 0
$L189355:

; 458  : 		return (_Myfirst == 0 ? 0 : _Myend - _Myfirst);

  0000a	8b 41 0c	 mov	 eax, DWORD PTR [ecx+12]
  0000d	2b c2		 sub	 eax, edx

; 459  : 		}

  0000f	c3		 ret	 0
?capacity@?$vector@EV?$allocator@E@std@@@std@@QBEIXZ ENDP ; std::vector<unsigned char,std::allocator<unsigned char> >::capacity
_TEXT	ENDS
PUBLIC	?size@?$vector@EV?$allocator@E@std@@@std@@QBEIXZ ; std::vector<unsigned char,std::allocator<unsigned char> >::size
; Function compile flags: /Ogty
;	COMDAT ?size@?$vector@EV?$allocator@E@std@@@std@@QBEIXZ
_TEXT	SEGMENT
?size@?$vector@EV?$allocator@E@std@@@std@@QBEIXZ PROC NEAR ; std::vector<unsigned char,std::allocator<unsigned char> >::size, COMDAT
; _this$ = ecx

; 516  : 		return (_Myfirst == 0 ? 0 : _Mylast - _Myfirst);

  00000	8b 51 04	 mov	 edx, DWORD PTR [ecx+4]
  00003	85 d2		 test	 edx, edx
  00005	75 03		 jne	 SHORT $L189359
  00007	33 c0		 xor	 eax, eax

; 517  : 		}

  00009	c3		 ret	 0
$L189359:

; 516  : 		return (_Myfirst == 0 ? 0 : _Mylast - _Myfirst);

  0000a	8b 41 08	 mov	 eax, DWORD PTR [ecx+8]
  0000d	2b c2		 sub	 eax, edx

; 517  : 		}

  0000f	c3		 ret	 0
?size@?$vector@EV?$allocator@E@std@@@std@@QBEIXZ ENDP	; std::vector<unsigned char,std::allocator<unsigned char> >::size
_TEXT	ENDS
PUBLIC	??0?$_Vector_val@EV?$allocator@E@std@@@std@@IAE@V?$allocator@E@1@@Z ; std::_Vector_val<unsigned char,std::allocator<unsigned char> >::_Vector_val<unsigned char,std::allocator<unsigned char> >
; Function compile flags: /Ogty
;	COMDAT ??0?$_Vector_val@EV?$allocator@E@std@@@std@@IAE@V?$allocator@E@1@@Z
_TEXT	SEGMENT
__Al$ = 8						; size = 1
??0?$_Vector_val@EV?$allocator@E@std@@@std@@IAE@V?$allocator@E@1@@Z PROC NEAR ; std::_Vector_val<unsigned char,std::allocator<unsigned char> >::_Vector_val<unsigned char,std::allocator<unsigned char> >, COMDAT
; _this$ = ecx

; 21   : 		{	// construct allocator from _Al

  00000	8b c1		 mov	 eax, ecx

; 22   : 		}

  00002	c2 04 00	 ret	 4
??0?$_Vector_val@EV?$allocator@E@std@@@std@@IAE@V?$allocator@E@1@@Z ENDP ; std::_Vector_val<unsigned char,std::allocator<unsigned char> >::_Vector_val<unsigned char,std::allocator<unsigned char> >
_TEXT	ENDS
PUBLIC	?deallocate@?$allocator@V?$basic_string@DU?$char_traits@D@std@@V?$allocator@D@2@@std@@@std@@QAEXPAV?$basic_string@DU?$char_traits@D@std@@V?$allocator@D@2@@2@I@Z ; std::allocator<std::basic_string<char,std::char_traits<char>,std::allocator<char> > >::deallocate
EXTRN	??3@YAXPAX@Z:NEAR				; operator delete
; Function compile flags: /Ogty
; File c:\program files\microsoft visual studio .net 2003\vc7\include\xmemory
;	COMDAT ?deallocate@?$allocator@V?$basic_string@DU?$char_traits@D@std@@V?$allocator@D@2@@std@@@std@@QAEXPAV?$basic_string@DU?$char_traits@D@std@@V?$allocator@D@2@@2@I@Z
_TEXT	SEGMENT
__Ptr$ = 8						; size = 4
___formal$ = 12						; size = 4
?deallocate@?$allocator@V?$basic_string@DU?$char_traits@D@std@@V?$allocator@D@2@@std@@@std@@QAEXPAV?$basic_string@DU?$char_traits@D@std@@V?$allocator@D@2@@2@I@Z PROC NEAR ; std::allocator<std::basic_string<char,std::char_traits<char>,std::allocator<char> > >::deallocate, COMDAT
; _this$ = ecx

; 132  : 		operator delete(_Ptr);

  00000	8b 44 24 04	 mov	 eax, DWORD PTR __Ptr$[esp-4]
  00004	50		 push	 eax
  00005	e8 00 00 00 00	 call	 ??3@YAXPAX@Z		; operator delete
  0000a	59		 pop	 ecx

; 133  : 		}

  0000b	c2 08 00	 ret	 8
?deallocate@?$allocator@V?$basic_string@DU?$char_traits@D@std@@V?$allocator@D@2@@std@@@std@@QAEXPAV?$basic_string@DU?$char_traits@D@std@@V?$allocator@D@2@@2@I@Z ENDP ; std::allocator<std::basic_string<char,std::char_traits<char>,std::allocator<char> > >::deallocate
_TEXT	ENDS
PUBLIC	?_Color@?$_Tree@V?$_Tmap_traits@EHU?$less@E@std@@V?$allocator@U?$pair@$$CBEH@std@@@2@$0A@@std@@@std@@KAAADPAU_Node@?$_Tree_nod@V?$_Tmap_traits@EHU?$less@E@std@@V?$allocator@U?$pair@$$CBEH@std@@@2@$0A@@std@@@2@@Z ; std::_Tree<std::_Tmap_traits<unsigned char,int,std::less<unsigned char>,std::allocator<std::pair<unsigned char const ,int> >,0> >::_Color
; Function compile flags: /Ogty
; File c:\program files\microsoft visual studio .net 2003\vc7\include\xtree
;	COMDAT ?_Color@?$_Tree@V?$_Tmap_traits@EHU?$less@E@std@@V?$allocator@U?$pair@$$CBEH@std@@@2@$0A@@std@@@std@@KAAADPAU_Node@?$_Tree_nod@V?$_Tmap_traits@EHU?$less@E@std@@V?$allocator@U?$pair@$$CBEH@std@@@2@$0A@@std@@@2@@Z
_TEXT	SEGMENT
__Pnode$ = 8						; size = 4
?_Color@?$_Tree@V?$_Tmap_traits@EHU?$less@E@std@@V?$allocator@U?$pair@$$CBEH@std@@@2@$0A@@std@@@std@@KAAADPAU_Node@?$_Tree_nod@V?$_Tmap_traits@EHU?$less@E@std@@V?$allocator@U?$pair@$$CBEH@std@@@2@$0A@@std@@@2@@Z PROC NEAR ; std::_Tree<std::_Tmap_traits<unsigned char,int,std::less<unsigned char>,std::allocator<std::pair<unsigned char const ,int> >,0> >::_Color, COMDAT

; 132  : 		return ((_Charref)(*_Pnode)._Color);

  00000	8b 44 24 04	 mov	 eax, DWORD PTR __Pnode$[esp-4]
  00004	83 c0 14	 add	 eax, 20			; 00000014H

; 133  : 		}

  00007	c3		 ret	 0
?_Color@?$_Tree@V?$_Tmap_traits@EHU?$less@E@std@@V?$allocator@U?$pair@$$CBEH@std@@@2@$0A@@std@@@std@@KAAADPAU_Node@?$_Tree_nod@V?$_Tmap_traits@EHU?$less@E@std@@V?$allocator@U?$pair@$$CBEH@std@@@2@$0A@@std@@@2@@Z ENDP ; std::_Tree<std::_Tmap_traits<unsigned char,int,std::less<unsigned char>,std::allocator<std::pair<unsigned char const ,int> >,0> >::_Color
_TEXT	ENDS
PUBLIC	?_Parent@?$_Tree@V?$_Tmap_traits@EHU?$less@E@std@@V?$allocator@U?$pair@$$CBEH@std@@@2@$0A@@std@@@std@@KAAAPAU_Node@?$_Tree_nod@V?$_Tmap_traits@EHU?$less@E@std@@V?$allocator@U?$pair@$$CBEH@std@@@2@$0A@@std@@@2@PAU342@@Z ; std::_Tree<std::_Tmap_traits<unsigned char,int,std::less<unsigned char>,std::allocator<std::pair<unsigned char const ,int> >,0> >::_Parent
; Function compile flags: /Ogty
;	COMDAT ?_Parent@?$_Tree@V?$_Tmap_traits@EHU?$less@E@std@@V?$allocator@U?$pair@$$CBEH@std@@@2@$0A@@std@@@std@@KAAAPAU_Node@?$_Tree_nod@V?$_Tmap_traits@EHU?$less@E@std@@V?$allocator@U?$pair@$$CBEH@std@@@2@$0A@@std@@@2@PAU342@@Z
_TEXT	SEGMENT
__Pnode$ = 8						; size = 4
?_Parent@?$_Tree@V?$_Tmap_traits@EHU?$less@E@std@@V?$allocator@U?$pair@$$CBEH@std@@@2@$0A@@std@@@std@@KAAAPAU_Node@?$_Tree_nod@V?$_Tmap_traits@EHU?$less@E@std@@V?$allocator@U?$pair@$$CBEH@std@@@2@$0A@@std@@@2@PAU342@@Z PROC NEAR ; std::_Tree<std::_Tmap_traits<unsigned char,int,std::less<unsigned char>,std::allocator<std::pair<unsigned char const ,int> >,0> >::_Parent, COMDAT

; 152  : 		return ((_Nodepref)(*_Pnode)._Parent);

  00000	8b 44 24 04	 mov	 eax, DWORD PTR __Pnode$[esp-4]
  00004	83 c0 04	 add	 eax, 4

; 153  : 		}

  00007	c3		 ret	 0
?_Parent@?$_Tree@V?$_Tmap_traits@EHU?$less@E@std@@V?$allocator@U?$pair@$$CBEH@std@@@2@$0A@@std@@@std@@KAAAPAU_Node@?$_Tree_nod@V?$_Tmap_traits@EHU?$less@E@std@@V?$allocator@U?$pair@$$CBEH@std@@@2@$0A@@std@@@2@PAU342@@Z ENDP ; std::_Tree<std::_Tmap_traits<unsigned char,int,std::less<unsigned char>,std::allocator<std::pair<unsigned char const ,int> >,0> >::_Parent
_TEXT	ENDS
PUBLIC	?_Myval@?$_Tree@V?$_Tmap_traits@EHU?$less@E@std@@V?$allocator@U?$pair@$$CBEH@std@@@2@$0A@@std@@@std@@KAAAU?$pair@$$CBEH@2@PAU_Node@?$_Tree_nod@V?$_Tmap_traits@EHU?$less@E@std@@V?$allocator@U?$pair@$$CBEH@std@@@2@$0A@@std@@@2@@Z ; std::_Tree<std::_Tmap_traits<unsigned char,int,std::less<unsigned char>,std::allocator<std::pair<unsigned char const ,int> >,0> >::_Myval
; Function compile flags: /Ogty
;	COMDAT ?_Myval@?$_Tree@V?$_Tmap_traits@EHU?$less@E@std@@V?$allocator@U?$pair@$$CBEH@std@@@2@$0A@@std@@@std@@KAAAU?$pair@$$CBEH@2@PAU_Node@?$_Tree_nod@V?$_Tmap_traits@EHU?$less@E@std@@V?$allocator@U?$pair@$$CBEH@std@@@2@$0A@@std@@@2@@Z
_TEXT	SEGMENT
__Pnode$ = 8						; size = 4
?_Myval@?$_Tree@V?$_Tmap_traits@EHU?$less@E@std@@V?$allocator@U?$pair@$$CBEH@std@@@2@$0A@@std@@@std@@KAAAU?$pair@$$CBEH@2@PAU_Node@?$_Tree_nod@V?$_Tmap_traits@EHU?$less@E@std@@V?$allocator@U?$pair@$$CBEH@std@@@2@$0A@@std@@@2@@Z PROC NEAR ; std::_Tree<std::_Tmap_traits<unsigned char,int,std::less<unsigned char>,std::allocator<std::pair<unsigned char const ,int> >,0> >::_Myval, COMDAT

; 162  : 		return ((_Vref)(*_Pnode)._Myval);

  00000	8b 44 24 04	 mov	 eax, DWORD PTR __Pnode$[esp-4]
  00004	83 c0 0c	 add	 eax, 12			; 0000000cH

; 163  : 		}

  00007	c3		 ret	 0
?_Myval@?$_Tree@V?$_Tmap_traits@EHU?$less@E@std@@V?$allocator@U?$pair@$$CBEH@std@@@2@$0A@@std@@@std@@KAAAU?$pair@$$CBEH@2@PAU_Node@?$_Tree_nod@V?$_Tmap_traits@EHU?$less@E@std@@V?$allocator@U?$pair@$$CBEH@std@@@2@$0A@@std@@@2@@Z ENDP ; std::_Tree<std::_Tmap_traits<unsigned char,int,std::less<unsigned char>,std::allocator<std::pair<unsigned char const ,int> >,0> >::_Myval
_TEXT	ENDS
PUBLIC	??0?$allocator@U?$pair@$$CBEH@std@@@std@@QAE@ABV01@@Z ; std::allocator<std::pair<unsigned char const ,int> >::allocator<std::pair<unsigned char const ,int> >
; Function compile flags: /Ogty
; File c:\program files\microsoft visual studio .net 2003\vc7\include\xmemory
;	COMDAT ??0?$allocator@U?$pair@$$CBEH@std@@@std@@QAE@ABV01@@Z
_TEXT	SEGMENT
___formal$ = 8						; size = 4
??0?$allocator@U?$pair@$$CBEH@std@@@std@@QAE@ABV01@@Z PROC NEAR ; std::allocator<std::pair<unsigned char const ,int> >::allocator<std::pair<unsigned char const ,int> >, COMDAT
; _this$ = ecx

; 115  : 	allocator(const allocator<_Ty>&)

  00000	8b c1		 mov	 eax, ecx

; 116  : 		{	// construct by copying (do nothing)
; 117  : 		}

  00002	c2 04 00	 ret	 4
??0?$allocator@U?$pair@$$CBEH@std@@@std@@QAE@ABV01@@Z ENDP ; std::allocator<std::pair<unsigned char const ,int> >::allocator<std::pair<unsigned char const ,int> >
_TEXT	ENDS
PUBLIC	?deallocate@?$allocator@U_Node@?$_Tree_nod@V?$_Tmap_traits@EHU?$less@E@std@@V?$allocator@U?$pair@$$CBEH@std@@@2@$0A@@std@@@std@@@std@@QAEXPAU_Node@?$_Tree_nod@V?$_Tmap_traits@EHU?$less@E@std@@V?$allocator@U?$pair@$$CBEH@std@@@2@$0A@@std@@@2@I@Z ; std::allocator<std::_Tree_nod<std::_Tmap_traits<unsigned char,int,std::less<unsigned char>,std::allocator<std::pair<unsigned char const ,int> >,0> >::_Node>::deallocate
; Function compile flags: /Ogty
;	COMDAT ?deallocate@?$allocator@U_Node@?$_Tree_nod@V?$_Tmap_traits@EHU?$less@E@std@@V?$allocator@U?$pair@$$CBEH@std@@@2@$0A@@std@@@std@@@std@@QAEXPAU_Node@?$_Tree_nod@V?$_Tmap_traits@EHU?$less@E@std@@V?$allocator@U?$pair@$$CBEH@std@@@2@$0A@@std@@@2@I@Z
_TEXT	SEGMENT
__Ptr$ = 8						; size = 4
___formal$ = 12						; size = 4
?deallocate@?$allocator@U_Node@?$_Tree_nod@V?$_Tmap_traits@EHU?$less@E@std@@V?$allocator@U?$pair@$$CBEH@std@@@2@$0A@@std@@@std@@@std@@QAEXPAU_Node@?$_Tree_nod@V?$_Tmap_traits@EHU?$less@E@std@@V?$allocator@U?$pair@$$CBEH@std@@@2@$0A@@std@@@2@I@Z PROC NEAR ; std::allocator<std::_Tree_nod<std::_Tmap_traits<unsigned char,int,std::less<unsigned char>,std::allocator<std::pair<unsigned char const ,int> >,0> >::_Node>::deallocate, COMDAT
; _this$ = ecx

; 132  : 		operator delete(_Ptr);

  00000	8b 44 24 04	 mov	 eax, DWORD PTR __Ptr$[esp-4]
  00004	50		 push	 eax
  00005	e8 00 00 00 00	 call	 ??3@YAXPAX@Z		; operator delete
  0000a	59		 pop	 ecx

; 133  : 		}

  0000b	c2 08 00	 ret	 8
?deallocate@?$allocator@U_Node@?$_Tree_nod@V?$_Tmap_traits@EHU?$less@E@std@@V?$allocator@U?$pair@$$CBEH@std@@@2@$0A@@std@@@std@@@std@@QAEXPAU_Node@?$_Tree_nod@V?$_Tmap_traits@EHU?$less@E@std@@V?$allocator@U?$pair@$$CBEH@std@@@2@$0A@@std@@@2@I@Z ENDP ; std::allocator<std::_Tree_nod<std::_Tmap_traits<unsigned char,int,std::less<unsigned char>,std::allocator<std::pair<unsigned char const ,int> >,0> >::_Node>::deallocate
_TEXT	ENDS
PUBLIC	?deallocate@?$allocator@E@std@@QAEXPAEI@Z	; std::allocator<unsigned char>::deallocate
; Function compile flags: /Ogty
;	COMDAT ?deallocate@?$allocator@E@std@@QAEXPAEI@Z
_TEXT	SEGMENT
__Ptr$ = 8						; size = 4
___formal$ = 12						; size = 4
?deallocate@?$allocator@E@std@@QAEXPAEI@Z PROC NEAR	; std::allocator<unsigned char>::deallocate, COMDAT
; _this$ = ecx

; 132  : 		operator delete(_Ptr);

  00000	8b 44 24 04	 mov	 eax, DWORD PTR __Ptr$[esp-4]
  00004	50		 push	 eax
  00005	e8 00 00 00 00	 call	 ??3@YAXPAX@Z		; operator delete
  0000a	59		 pop	 ecx

; 133  : 		}

  0000b	c2 08 00	 ret	 8
?deallocate@?$allocator@E@std@@QAEXPAEI@Z ENDP		; std::allocator<unsigned char>::deallocate
_TEXT	ENDS
PUBLIC	??0const_iterator@?$_Tree@V?$_Tmap_traits@EHU?$less@E@std@@V?$allocator@U?$pair@$$CBEH@std@@@2@$0A@@std@@@std@@QAE@PAU_Node@?$_Tree_nod@V?$_Tmap_traits@EHU?$less@E@std@@V?$allocator@U?$pair@$$CBEH@std@@@2@$0A@@std@@@2@@Z ; std::_Tree<std::_Tmap_traits<unsigned char,int,std::less<unsigned char>,std::allocator<std::pair<unsigned char const ,int> >,0> >::const_iterator::const_iterator
; Function compile flags: /Ogty
; File c:\program files\microsoft visual studio .net 2003\vc7\include\xtree
;	COMDAT ??0const_iterator@?$_Tree@V?$_Tmap_traits@EHU?$less@E@std@@V?$allocator@U?$pair@$$CBEH@std@@@2@$0A@@std@@@std@@QAE@PAU_Node@?$_Tree_nod@V?$_Tmap_traits@EHU?$less@E@std@@V?$allocator@U?$pair@$$CBEH@std@@@2@$0A@@std@@@2@@Z
_TEXT	SEGMENT
__Pnode$ = 8						; size = 4
??0const_iterator@?$_Tree@V?$_Tmap_traits@EHU?$less@E@std@@V?$allocator@U?$pair@$$CBEH@std@@@2@$0A@@std@@@std@@QAE@PAU_Node@?$_Tree_nod@V?$_Tmap_traits@EHU?$less@E@std@@V?$allocator@U?$pair@$$CBEH@std@@@2@$0A@@std@@@2@@Z PROC NEAR ; std::_Tree<std::_Tmap_traits<unsigned char,int,std::less<unsigned char>,std::allocator<std::pair<unsigned char const ,int> >,0> >::const_iterator::const_iterator, COMDAT
; _this$ = ecx

; 200  : 			{	// construct with node pointer _Pnode

  00000	8b c1		 mov	 eax, ecx
  00002	8b 4c 24 04	 mov	 ecx, DWORD PTR __Pnode$[esp-4]
  00006	89 08		 mov	 DWORD PTR [eax], ecx

; 201  : 			}

  00008	c2 04 00	 ret	 4
??0const_iterator@?$_Tree@V?$_Tmap_traits@EHU?$less@E@std@@V?$allocator@U?$pair@$$CBEH@std@@@2@$0A@@std@@@std@@QAE@PAU_Node@?$_Tree_nod@V?$_Tmap_traits@EHU?$less@E@std@@V?$allocator@U?$pair@$$CBEH@std@@@2@$0A@@std@@@2@@Z ENDP ; std::_Tree<std::_Tmap_traits<unsigned char,int,std::less<unsigned char>,std::allocator<std::pair<unsigned char const ,int> >,0> >::const_iterator::const_iterator
_TEXT	ENDS
PUBLIC	??0const_iterator@?$vector@V?$basic_string@DU?$char_traits@D@std@@V?$allocator@D@2@@std@@V?$allocator@V?$basic_string@DU?$char_traits@D@std@@V?$allocator@D@2@@std@@@2@@std@@QAE@PAV?$basic_string@DU?$char_traits@D@std@@V?$allocator@D@2@@2@@Z ; std::vector<std::basic_string<char,std::char_traits<char>,std::allocator<char> >,std::allocator<std::basic_string<char,std::char_traits<char>,std::allocator<char> > > >::const_iterator::const_iterator
; Function compile flags: /Ogty
; File c:\program files\microsoft visual studio .net 2003\vc7\include\vector
;	COMDAT ??0const_iterator@?$vector@V?$basic_string@DU?$char_traits@D@std@@V?$allocator@D@2@@std@@V?$allocator@V?$basic_string@DU?$char_traits@D@std@@V?$allocator@D@2@@std@@@2@@std@@QAE@PAV?$basic_string@DU?$char_traits@D@std@@V?$allocator@D@2@@2@@Z
_TEXT	SEGMENT
__Ptr$ = 8						; size = 4
??0const_iterator@?$vector@V?$basic_string@DU?$char_traits@D@std@@V?$allocator@D@2@@std@@V?$allocator@V?$basic_string@DU?$char_traits@D@std@@V?$allocator@D@2@@std@@@2@@std@@QAE@PAV?$basic_string@DU?$char_traits@D@std@@V?$allocator@D@2@@2@@Z PROC NEAR ; std::vector<std::basic_string<char,std::char_traits<char>,std::allocator<char> >,std::allocator<std::basic_string<char,std::char_traits<char>,std::allocator<char> > > >::const_iterator::const_iterator, COMDAT
; _this$ = ecx

; 73   : 		const_iterator(_Tptr _Ptr)

  00000	8b c1		 mov	 eax, ecx

; 74   : 			{	// construct with pointer _Ptr
; 75   : 			_Myptr = _Ptr;

  00002	8b 4c 24 04	 mov	 ecx, DWORD PTR __Ptr$[esp-4]
  00006	89 08		 mov	 DWORD PTR [eax], ecx

; 76   : 			}

  00008	c2 04 00	 ret	 4
??0const_iterator@?$vector@V?$basic_string@DU?$char_traits@D@std@@V?$allocator@D@2@@std@@V?$allocator@V?$basic_string@DU?$char_traits@D@std@@V?$allocator@D@2@@std@@@2@@std@@QAE@PAV?$basic_string@DU?$char_traits@D@std@@V?$allocator@D@2@@2@@Z ENDP ; std::vector<std::basic_string<char,std::char_traits<char>,std::allocator<char> >,std::allocator<std::basic_string<char,std::char_traits<char>,std::allocator<char> > > >::const_iterator::const_iterator
_TEXT	ENDS
PUBLIC	??0iterator@?$vector@V?$basic_string@DU?$char_traits@D@std@@V?$allocator@D@2@@std@@V?$allocator@V?$basic_string@DU?$char_traits@D@std@@V?$allocator@D@2@@std@@@2@@std@@QAE@PAV?$basic_string@DU?$char_traits@D@std@@V?$allocator@D@2@@2@@Z ; std::vector<std::basic_string<char,std::char_traits<char>,std::allocator<char> >,std::allocator<std::basic_string<char,std::char_traits<char>,std::allocator<char> > > >::iterator::iterator
; Function compile flags: /Ogty
;	COMDAT ??0iterator@?$vector@V?$basic_string@DU?$char_traits@D@std@@V?$allocator@D@2@@std@@V?$allocator@V?$basic_string@DU?$char_traits@D@std@@V?$allocator@D@2@@std@@@2@@std@@QAE@PAV?$basic_string@DU?$char_traits@D@std@@V?$allocator@D@2@@2@@Z
_TEXT	SEGMENT
__Ptr$ = 8						; size = 4
??0iterator@?$vector@V?$basic_string@DU?$char_traits@D@std@@V?$allocator@D@2@@std@@V?$allocator@V?$basic_string@DU?$char_traits@D@std@@V?$allocator@D@2@@std@@@2@@std@@QAE@PAV?$basic_string@DU?$char_traits@D@std@@V?$allocator@D@2@@2@@Z PROC NEAR ; std::vector<std::basic_string<char,std::char_traits<char>,std::allocator<char> >,std::allocator<std::basic_string<char,std::char_traits<char>,std::allocator<char> > > >::iterator::iterator, COMDAT
; _this$ = ecx

; 215  : 			{	// construct with pointer _Ptr

  00000	8b c1		 mov	 eax, ecx
  00002	8b 4c 24 04	 mov	 ecx, DWORD PTR __Ptr$[esp-4]
  00006	89 08		 mov	 DWORD PTR [eax], ecx

; 216  : 			}

  00008	c2 04 00	 ret	 4
??0iterator@?$vector@V?$basic_string@DU?$char_traits@D@std@@V?$allocator@D@2@@std@@V?$allocator@V?$basic_string@DU?$char_traits@D@std@@V?$allocator@D@2@@std@@@2@@std@@QAE@PAV?$basic_string@DU?$char_traits@D@std@@V?$allocator@D@2@@2@@Z ENDP ; std::vector<std::basic_string<char,std::char_traits<char>,std::allocator<char> >,std::allocator<std::basic_string<char,std::char_traits<char>,std::allocator<char> > > >::iterator::iterator
_TEXT	ENDS
PUBLIC	??0const_iterator@?$vector@EV?$allocator@E@std@@@std@@QAE@PAE@Z ; std::vector<unsigned char,std::allocator<unsigned char> >::const_iterator::const_iterator
; Function compile flags: /Ogty
;	COMDAT ??0const_iterator@?$vector@EV?$allocator@E@std@@@std@@QAE@PAE@Z
_TEXT	SEGMENT
__Ptr$ = 8						; size = 4
??0const_iterator@?$vector@EV?$allocator@E@std@@@std@@QAE@PAE@Z PROC NEAR ; std::vector<unsigned char,std::allocator<unsigned char> >::const_iterator::const_iterator, COMDAT
; _this$ = ecx

; 73   : 		const_iterator(_Tptr _Ptr)

  00000	8b c1		 mov	 eax, ecx

; 74   : 			{	// construct with pointer _Ptr
; 75   : 			_Myptr = _Ptr;

  00002	8b 4c 24 04	 mov	 ecx, DWORD PTR __Ptr$[esp-4]
  00006	89 08		 mov	 DWORD PTR [eax], ecx

; 76   : 			}

  00008	c2 04 00	 ret	 4
??0const_iterator@?$vector@EV?$allocator@E@std@@@std@@QAE@PAE@Z ENDP ; std::vector<unsigned char,std::allocator<unsigned char> >::const_iterator::const_iterator
_TEXT	ENDS
PUBLIC	??0iterator@?$vector@EV?$allocator@E@std@@@std@@QAE@PAE@Z ; std::vector<unsigned char,std::allocator<unsigned char> >::iterator::iterator
; Function compile flags: /Ogty
;	COMDAT ??0iterator@?$vector@EV?$allocator@E@std@@@std@@QAE@PAE@Z
_TEXT	SEGMENT
__Ptr$ = 8						; size = 4
??0iterator@?$vector@EV?$allocator@E@std@@@std@@QAE@PAE@Z PROC NEAR ; std::vector<unsigned char,std::allocator<unsigned char> >::iterator::iterator, COMDAT
; _this$ = ecx

; 215  : 			{	// construct with pointer _Ptr

  00000	8b c1		 mov	 eax, ecx
  00002	8b 4c 24 04	 mov	 ecx, DWORD PTR __Ptr$[esp-4]
  00006	89 08		 mov	 DWORD PTR [eax], ecx

; 216  : 			}

  00008	c2 04 00	 ret	 4
??0iterator@?$vector@EV?$allocator@E@std@@@std@@QAE@PAE@Z ENDP ; std::vector<unsigned char,std::allocator<unsigned char> >::iterator::iterator
_TEXT	ENDS
PUBLIC	?max_size@?$allocator@V?$basic_string@DU?$char_traits@D@std@@V?$allocator@D@2@@std@@@std@@QBEIXZ ; std::allocator<std::basic_string<char,std::char_traits<char>,std::allocator<char> > >::max_size
; Function compile flags: /Ogty
; File c:\program files\microsoft visual studio .net 2003\vc7\include\xmemory
;	COMDAT ?max_size@?$allocator@V?$basic_string@DU?$char_traits@D@std@@V?$allocator@D@2@@std@@@std@@QBEIXZ
_TEXT	SEGMENT
?max_size@?$allocator@V?$basic_string@DU?$char_traits@D@std@@V?$allocator@D@2@@std@@@std@@QBEIXZ PROC NEAR ; std::allocator<std::basic_string<char,std::char_traits<char>,std::allocator<char> > >::max_size, COMDAT
; _this$ = ecx

; 157  : 		_SIZT _Count = (_SIZT)(-1) / sizeof (_Ty);
; 158  : 		return (0 < _Count ? _Count : 1);

  00000	b8 49 92 24 09	 mov	 eax, 153391689		; 09249249H

; 159  : 		}

  00005	c3		 ret	 0
?max_size@?$allocator@V?$basic_string@DU?$char_traits@D@std@@V?$allocator@D@2@@std@@@std@@QBEIXZ ENDP ; std::allocator<std::basic_string<char,std::char_traits<char>,std::allocator<char> > >::max_size
_TEXT	ENDS
PUBLIC	?max_size@?$allocator@U?$pair@$$CBEH@std@@@std@@QBEIXZ ; std::allocator<std::pair<unsigned char const ,int> >::max_size
; Function compile flags: /Ogty
;	COMDAT ?max_size@?$allocator@U?$pair@$$CBEH@std@@@std@@QBEIXZ
_TEXT	SEGMENT
?max_size@?$allocator@U?$pair@$$CBEH@std@@@std@@QBEIXZ PROC NEAR ; std::allocator<std::pair<unsigned char const ,int> >::max_size, COMDAT
; _this$ = ecx

; 157  : 		_SIZT _Count = (_SIZT)(-1) / sizeof (_Ty);
; 158  : 		return (0 < _Count ? _Count : 1);

  00000	b8 ff ff ff 1f	 mov	 eax, 536870911		; 1fffffffH

; 159  : 		}

  00005	c3		 ret	 0
?max_size@?$allocator@U?$pair@$$CBEH@std@@@std@@QBEIXZ ENDP ; std::allocator<std::pair<unsigned char const ,int> >::max_size
_TEXT	ENDS
PUBLIC	?max_size@?$allocator@E@std@@QBEIXZ		; std::allocator<unsigned char>::max_size
; Function compile flags: /Ogty
;	COMDAT ?max_size@?$allocator@E@std@@QBEIXZ
_TEXT	SEGMENT
?max_size@?$allocator@E@std@@QBEIXZ PROC NEAR		; std::allocator<unsigned char>::max_size, COMDAT
; _this$ = ecx

; 157  : 		_SIZT _Count = (_SIZT)(-1) / sizeof (_Ty);
; 158  : 		return (0 < _Count ? _Count : 1);

  00000	83 c8 ff	 or	 eax, -1

; 159  : 		}

  00003	c3		 ret	 0
?max_size@?$allocator@E@std@@QBEIXZ ENDP		; std::allocator<unsigned char>::max_size
_TEXT	ENDS
PUBLIC	??9const_iterator@?$_Tree@V?$_Tmap_traits@EHU?$less@E@std@@V?$allocator@U?$pair@$$CBEH@std@@@2@$0A@@std@@@std@@QBE_NABV012@@Z ; std::_Tree<std::_Tmap_traits<unsigned char,int,std::less<unsigned char>,std::allocator<std::pair<unsigned char const ,int> >,0> >::const_iterator::operator!=
; Function compile flags: /Ogty
; File c:\program files\microsoft visual studio .net 2003\vc7\include\xtree
;	COMDAT ??9const_iterator@?$_Tree@V?$_Tmap_traits@EHU?$less@E@std@@V?$allocator@U?$pair@$$CBEH@std@@@2@$0A@@std@@@std@@QBE_NABV012@@Z
_TEXT	SEGMENT
__Right$ = 8						; size = 4
??9const_iterator@?$_Tree@V?$_Tmap_traits@EHU?$less@E@std@@V?$allocator@U?$pair@$$CBEH@std@@@2@$0A@@std@@@std@@QBE_NABV012@@Z PROC NEAR ; std::_Tree<std::_Tmap_traits<unsigned char,int,std::less<unsigned char>,std::allocator<std::pair<unsigned char const ,int> >,0> >::const_iterator::operator!=, COMDAT
; _this$ = ecx

; 246  : 			return (!(*this == _Right));

  00000	8b 01		 mov	 eax, DWORD PTR [ecx]
  00002	8b 54 24 04	 mov	 edx, DWORD PTR __Right$[esp-4]
  00006	56		 push	 esi
  00007	8b 32		 mov	 esi, DWORD PTR [edx]
  00009	33 c9		 xor	 ecx, ecx
  0000b	3b c6		 cmp	 eax, esi
  0000d	0f 95 c1	 setne	 cl
  00010	8a c1		 mov	 al, cl
  00012	5e		 pop	 esi

; 247  : 			}

  00013	c2 04 00	 ret	 4
??9const_iterator@?$_Tree@V?$_Tmap_traits@EHU?$less@E@std@@V?$allocator@U?$pair@$$CBEH@std@@@2@$0A@@std@@@std@@QBE_NABV012@@Z ENDP ; std::_Tree<std::_Tmap_traits<unsigned char,int,std::less<unsigned char>,std::allocator<std::pair<unsigned char const ,int> >,0> >::const_iterator::operator!=
_TEXT	ENDS
PUBLIC	??Gconst_iterator@?$vector@V?$basic_string@DU?$char_traits@D@std@@V?$allocator@D@2@@std@@V?$allocator@V?$basic_string@DU?$char_traits@D@std@@V?$allocator@D@2@@std@@@2@@std@@QBEHABV012@@Z ; std::vector<std::basic_string<char,std::char_traits<char>,std::allocator<char> >,std::allocator<std::basic_string<char,std::char_traits<char>,std::allocator<char> > > >::const_iterator::operator-
; Function compile flags: /Ogty
; File c:\program files\microsoft visual studio .net 2003\vc7\include\vector
;	COMDAT ??Gconst_iterator@?$vector@V?$basic_string@DU?$char_traits@D@std@@V?$allocator@D@2@@std@@V?$allocator@V?$basic_string@DU?$char_traits@D@std@@V?$allocator@D@2@@std@@@2@@std@@QBEHABV012@@Z
_TEXT	SEGMENT
__Right$ = 8						; size = 4
??Gconst_iterator@?$vector@V?$basic_string@DU?$char_traits@D@std@@V?$allocator@D@2@@std@@V?$allocator@V?$basic_string@DU?$char_traits@D@std@@V?$allocator@D@2@@std@@@2@@std@@QBEHABV012@@Z PROC NEAR ; std::vector<std::basic_string<char,std::char_traits<char>,std::allocator<char> >,std::allocator<std::basic_string<char,std::char_traits<char>,std::allocator<char> > > >::const_iterator::operator-, COMDAT
; _this$ = ecx

; 141  : 
; 142  : 
; 143  : 			return (_Myptr - _Right._Myptr);

  00000	8b 44 24 04	 mov	 eax, DWORD PTR __Right$[esp-4]
  00004	8b 10		 mov	 edx, DWORD PTR [eax]
  00006	8b 09		 mov	 ecx, DWORD PTR [ecx]
  00008	2b ca		 sub	 ecx, edx
  0000a	b8 93 24 49 92	 mov	 eax, -1840700269	; 92492493H
  0000f	f7 e9		 imul	 ecx
  00011	03 d1		 add	 edx, ecx
  00013	c1 fa 04	 sar	 edx, 4
  00016	8b c2		 mov	 eax, edx
  00018	c1 e8 1f	 shr	 eax, 31			; 0000001fH
  0001b	03 c2		 add	 eax, edx

; 144  : 			}

  0001d	c2 04 00	 ret	 4
??Gconst_iterator@?$vector@V?$basic_string@DU?$char_traits@D@std@@V?$allocator@D@2@@std@@V?$allocator@V?$basic_string@DU?$char_traits@D@std@@V?$allocator@D@2@@std@@@2@@std@@QBEHABV012@@Z ENDP ; std::vector<std::basic_string<char,std::char_traits<char>,std::allocator<char> >,std::allocator<std::basic_string<char,std::char_traits<char>,std::allocator<char> > > >::const_iterator::operator-
_TEXT	ENDS
PUBLIC	??Yiterator@?$vector@V?$basic_string@DU?$char_traits@D@std@@V?$allocator@D@2@@std@@V?$allocator@V?$basic_string@DU?$char_traits@D@std@@V?$allocator@D@2@@std@@@2@@std@@QAEAAV012@H@Z ; std::vector<std::basic_string<char,std::char_traits<char>,std::allocator<char> >,std::allocator<std::basic_string<char,std::char_traits<char>,std::allocator<char> > > >::iterator::operator+=
; Function compile flags: /Ogty
;	COMDAT ??Yiterator@?$vector@V?$basic_string@DU?$char_traits@D@std@@V?$allocator@D@2@@std@@V?$allocator@V?$basic_string@DU?$char_traits@D@std@@V?$allocator@D@2@@std@@@2@@std@@QAEAAV012@H@Z
_TEXT	SEGMENT
__Off$ = 8						; size = 4
??Yiterator@?$vector@V?$basic_string@DU?$char_traits@D@std@@V?$allocator@D@2@@std@@V?$allocator@V?$basic_string@DU?$char_traits@D@std@@V?$allocator@D@2@@std@@@2@@std@@QAEAAV012@H@Z PROC NEAR ; std::vector<std::basic_string<char,std::char_traits<char>,std::allocator<char> >,std::allocator<std::basic_string<char,std::char_traits<char>,std::allocator<char> > > >::iterator::operator+=, COMDAT
; _this$ = ecx

; 255  : 			{	// increment by integer

  00000	8b c1		 mov	 eax, ecx

; 256  : 			this->_Myptr += _Off;

  00002	8b 4c 24 04	 mov	 ecx, DWORD PTR __Off$[esp-4]
  00006	8b 10		 mov	 edx, DWORD PTR [eax]
  00008	6b c9 1c	 imul	 ecx, 28			; 0000001cH
  0000b	03 d1		 add	 edx, ecx
  0000d	89 10		 mov	 DWORD PTR [eax], edx

; 257  : 			return (*this);
; 258  : 			}

  0000f	c2 04 00	 ret	 4
??Yiterator@?$vector@V?$basic_string@DU?$char_traits@D@std@@V?$allocator@D@2@@std@@V?$allocator@V?$basic_string@DU?$char_traits@D@std@@V?$allocator@D@2@@std@@@2@@std@@QAEAAV012@H@Z ENDP ; std::vector<std::basic_string<char,std::char_traits<char>,std::allocator<char> >,std::allocator<std::basic_string<char,std::char_traits<char>,std::allocator<char> > > >::iterator::operator+=
_TEXT	ENDS
PUBLIC	??Gconst_iterator@?$vector@EV?$allocator@E@std@@@std@@QBEHABV012@@Z ; std::vector<unsigned char,std::allocator<unsigned char> >::const_iterator::operator-
; Function compile flags: /Ogty
;	COMDAT ??Gconst_iterator@?$vector@EV?$allocator@E@std@@@std@@QBEHABV012@@Z
_TEXT	SEGMENT
__Right$ = 8						; size = 4
??Gconst_iterator@?$vector@EV?$allocator@E@std@@@std@@QBEHABV012@@Z PROC NEAR ; std::vector<unsigned char,std::allocator<unsigned char> >::const_iterator::operator-, COMDAT
; _this$ = ecx

; 141  : 
; 142  : 
; 143  : 			return (_Myptr - _Right._Myptr);

  00000	8b 01		 mov	 eax, DWORD PTR [ecx]
  00002	8b 4c 24 04	 mov	 ecx, DWORD PTR __Right$[esp-4]
  00006	2b 01		 sub	 eax, DWORD PTR [ecx]

; 144  : 			}

  00008	c2 04 00	 ret	 4
??Gconst_iterator@?$vector@EV?$allocator@E@std@@@std@@QBEHABV012@@Z ENDP ; std::vector<unsigned char,std::allocator<unsigned char> >::const_iterator::operator-
_TEXT	ENDS
PUBLIC	??Yiterator@?$vector@EV?$allocator@E@std@@@std@@QAEAAV012@H@Z ; std::vector<unsigned char,std::allocator<unsigned char> >::iterator::operator+=
; Function compile flags: /Ogty
;	COMDAT ??Yiterator@?$vector@EV?$allocator@E@std@@@std@@QAEAAV012@H@Z
_TEXT	SEGMENT
__Off$ = 8						; size = 4
??Yiterator@?$vector@EV?$allocator@E@std@@@std@@QAEAAV012@H@Z PROC NEAR ; std::vector<unsigned char,std::allocator<unsigned char> >::iterator::operator+=, COMDAT
; _this$ = ecx

; 255  : 			{	// increment by integer

  00000	8b c1		 mov	 eax, ecx

; 256  : 			this->_Myptr += _Off;

  00002	8b 10		 mov	 edx, DWORD PTR [eax]
  00004	8b 4c 24 04	 mov	 ecx, DWORD PTR __Off$[esp-4]
  00008	03 d1		 add	 edx, ecx
  0000a	89 10		 mov	 DWORD PTR [eax], edx

; 257  : 			return (*this);
; 258  : 			}

  0000c	c2 04 00	 ret	 4
??Yiterator@?$vector@EV?$allocator@E@std@@@std@@QAEAAV012@H@Z ENDP ; std::vector<unsigned char,std::allocator<unsigned char> >::iterator::operator+=
_TEXT	ENDS
PUBLIC	??0_Node@?$_Tree_nod@V?$_Tmap_traits@EHU?$less@E@std@@V?$allocator@U?$pair@$$CBEH@std@@@2@$0A@@std@@@std@@QAE@PAU012@00ABU?$pair@$$CBEH@2@D@Z ; std::_Tree_nod<std::_Tmap_traits<unsigned char,int,std::less<unsigned char>,std::allocator<std::pair<unsigned char const ,int> >,0> >::_Node::_Node
; Function compile flags: /Ogty
; File c:\program files\microsoft visual studio .net 2003\vc7\include\xtree
;	COMDAT ??0_Node@?$_Tree_nod@V?$_Tmap_traits@EHU?$less@E@std@@V?$allocator@U?$pair@$$CBEH@std@@@2@$0A@@std@@@std@@QAE@PAU012@00ABU?$pair@$$CBEH@2@D@Z
_TEXT	SEGMENT
__Larg$ = 8						; size = 4
__Parg$ = 12						; size = 4
__Rarg$ = 16						; size = 4
__Val$ = 20						; size = 4
__Carg$ = 24						; size = 1
??0_Node@?$_Tree_nod@V?$_Tmap_traits@EHU?$less@E@std@@V?$allocator@U?$pair@$$CBEH@std@@@2@$0A@@std@@@std@@QAE@PAU012@00ABU?$pair@$$CBEH@2@D@Z PROC NEAR ; std::_Tree_nod<std::_Tmap_traits<unsigned char,int,std::less<unsigned char>,std::allocator<std::pair<unsigned char const ,int> >,0> >::_Node::_Node, COMDAT
; _this$ = ecx

; 40   : 			{	// construct a node with value

  00000	8b 54 24 08	 mov	 edx, DWORD PTR __Parg$[esp-4]
  00004	8b c1		 mov	 eax, ecx
  00006	8b 4c 24 04	 mov	 ecx, DWORD PTR __Larg$[esp-4]
  0000a	89 08		 mov	 DWORD PTR [eax], ecx
  0000c	8b 4c 24 0c	 mov	 ecx, DWORD PTR __Rarg$[esp-4]
  00010	89 48 08	 mov	 DWORD PTR [eax+8], ecx
  00013	8b 4c 24 10	 mov	 ecx, DWORD PTR __Val$[esp-4]
  00017	89 50 04	 mov	 DWORD PTR [eax+4], edx
  0001a	8b 11		 mov	 edx, DWORD PTR [ecx]
  0001c	89 50 0c	 mov	 DWORD PTR [eax+12], edx
  0001f	8b 49 04	 mov	 ecx, DWORD PTR [ecx+4]
  00022	8a 54 24 14	 mov	 dl, BYTE PTR __Carg$[esp-4]
  00026	89 48 10	 mov	 DWORD PTR [eax+16], ecx
  00029	88 50 14	 mov	 BYTE PTR [eax+20], dl
  0002c	c6 40 15 00	 mov	 BYTE PTR [eax+21], 0

; 41   : 			}

  00030	c2 14 00	 ret	 20			; 00000014H
??0_Node@?$_Tree_nod@V?$_Tmap_traits@EHU?$less@E@std@@V?$allocator@U?$pair@$$CBEH@std@@@2@$0A@@std@@@std@@QAE@PAU012@00ABU?$pair@$$CBEH@2@D@Z ENDP ; std::_Tree_nod<std::_Tmap_traits<unsigned char,int,std::less<unsigned char>,std::allocator<std::pair<unsigned char const ,int> >,0> >::_Node::_Node
_TEXT	ENDS
PUBLIC	?_Max@?$_Tree@V?$_Tmap_traits@EHU?$less@E@std@@V?$allocator@U?$pair@$$CBEH@std@@@2@$0A@@std@@@std@@KAPAU_Node@?$_Tree_nod@V?$_Tmap_traits@EHU?$less@E@std@@V?$allocator@U?$pair@$$CBEH@std@@@2@$0A@@std@@@2@PAU342@@Z ; std::_Tree<std::_Tmap_traits<unsigned char,int,std::less<unsigned char>,std::allocator<std::pair<unsigned char const ,int> >,0> >::_Max
; Function compile flags: /Ogty
;	COMDAT ?_Max@?$_Tree@V?$_Tmap_traits@EHU?$less@E@std@@V?$allocator@U?$pair@$$CBEH@std@@@2@$0A@@std@@@std@@KAPAU_Node@?$_Tree_nod@V?$_Tmap_traits@EHU?$less@E@std@@V?$allocator@U?$pair@$$CBEH@std@@@2@$0A@@std@@@2@PAU342@@Z
_TEXT	SEGMENT
__Pnode$ = 8						; size = 4
?_Max@?$_Tree@V?$_Tmap_traits@EHU?$less@E@std@@V?$allocator@U?$pair@$$CBEH@std@@@2@$0A@@std@@@std@@KAPAU_Node@?$_Tree_nod@V?$_Tmap_traits@EHU?$less@E@std@@V?$allocator@U?$pair@$$CBEH@std@@@2@$0A@@std@@@2@PAU342@@Z PROC NEAR ; std::_Tree<std::_Tmap_traits<unsigned char,int,std::less<unsigned char>,std::allocator<std::pair<unsigned char const ,int> >,0> >::_Max, COMDAT

; 1035 : 		while (!_Isnil(_Right(_Pnode)))

  00000	8b 44 24 04	 mov	 eax, DWORD PTR __Pnode$[esp-4]
  00004	8b 48 08	 mov	 ecx, DWORD PTR [eax+8]
  00007	8a 51 15	 mov	 dl, BYTE PTR [ecx+21]
  0000a	84 d2		 test	 dl, dl
  0000c	75 0e		 jne	 SHORT $L188230
  0000e	8b ff		 npad	 2
$L188229:

; 1036 : 			_Pnode = _Right(_Pnode);

  00010	8b c1		 mov	 eax, ecx
  00012	8b 48 08	 mov	 ecx, DWORD PTR [eax+8]
  00015	8a 51 15	 mov	 dl, BYTE PTR [ecx+21]
  00018	84 d2		 test	 dl, dl
  0001a	74 f4		 je	 SHORT $L188229
$L188230:

; 1037 : 		return (_Pnode);
; 1038 : 		}

  0001c	c3		 ret	 0
?_Max@?$_Tree@V?$_Tmap_traits@EHU?$less@E@std@@V?$allocator@U?$pair@$$CBEH@std@@@2@$0A@@std@@@std@@KAPAU_Node@?$_Tree_nod@V?$_Tmap_traits@EHU?$less@E@std@@V?$allocator@U?$pair@$$CBEH@std@@@2@$0A@@std@@@2@PAU342@@Z ENDP ; std::_Tree<std::_Tmap_traits<unsigned char,int,std::less<unsigned char>,std::allocator<std::pair<unsigned char const ,int> >,0> >::_Max
_TEXT	ENDS
PUBLIC	?_Min@?$_Tree@V?$_Tmap_traits@EHU?$less@E@std@@V?$allocator@U?$pair@$$CBEH@std@@@2@$0A@@std@@@std@@KAPAU_Node@?$_Tree_nod@V?$_Tmap_traits@EHU?$less@E@std@@V?$allocator@U?$pair@$$CBEH@std@@@2@$0A@@std@@@2@PAU342@@Z ; std::_Tree<std::_Tmap_traits<unsigned char,int,std::less<unsigned char>,std::allocator<std::pair<unsigned char const ,int> >,0> >::_Min
; Function compile flags: /Ogty
;	COMDAT ?_Min@?$_Tree@V?$_Tmap_traits@EHU?$less@E@std@@V?$allocator@U?$pair@$$CBEH@std@@@2@$0A@@std@@@std@@KAPAU_Node@?$_Tree_nod@V?$_Tmap_traits@EHU?$less@E@std@@V?$allocator@U?$pair@$$CBEH@std@@@2@$0A@@std@@@2@PAU342@@Z
_TEXT	SEGMENT
__Pnode$ = 8						; size = 4
?_Min@?$_Tree@V?$_Tmap_traits@EHU?$less@E@std@@V?$allocator@U?$pair@$$CBEH@std@@@2@$0A@@std@@@std@@KAPAU_Node@?$_Tree_nod@V?$_Tmap_traits@EHU?$less@E@std@@V?$allocator@U?$pair@$$CBEH@std@@@2@$0A@@std@@@2@PAU342@@Z PROC NEAR ; std::_Tree<std::_Tmap_traits<unsigned char,int,std::less<unsigned char>,std::allocator<std::pair<unsigned char const ,int> >,0> >::_Min, COMDAT

; 1042 : 		while (!_Isnil(_Left(_Pnode)))

  00000	8b 44 24 04	 mov	 eax, DWORD PTR __Pnode$[esp-4]
  00004	8b 08		 mov	 ecx, DWORD PTR [eax]
  00006	8a 51 15	 mov	 dl, BYTE PTR [ecx+21]
  00009	84 d2		 test	 dl, dl
  0000b	75 0e		 jne	 SHORT $L188234
  0000d	8d 49 00	 npad	 3
$L188233:

; 1043 : 			_Pnode = _Left(_Pnode);

  00010	8b c1		 mov	 eax, ecx
  00012	8b 08		 mov	 ecx, DWORD PTR [eax]
  00014	8a 51 15	 mov	 dl, BYTE PTR [ecx+21]
  00017	84 d2		 test	 dl, dl
  00019	74 f5		 je	 SHORT $L188233
$L188234:

; 1044 : 		return (_Pnode);
; 1045 : 		}

  0001b	c3		 ret	 0
?_Min@?$_Tree@V?$_Tmap_traits@EHU?$less@E@std@@V?$allocator@U?$pair@$$CBEH@std@@@2@$0A@@std@@@std@@KAPAU_Node@?$_Tree_nod@V?$_Tmap_traits@EHU?$less@E@std@@V?$allocator@U?$pair@$$CBEH@std@@@2@$0A@@std@@@2@PAU342@@Z ENDP ; std::_Tree<std::_Tmap_traits<unsigned char,int,std::less<unsigned char>,std::allocator<std::pair<unsigned char const ,int> >,0> >::_Min
_TEXT	ENDS
PUBLIC	??0?$_Tmap_traits@EHU?$less@E@std@@V?$allocator@U?$pair@$$CBEH@std@@@2@$0A@@std@@QAE@U?$less@E@1@@Z ; std::_Tmap_traits<unsigned char,int,std::less<unsigned char>,std::allocator<std::pair<unsigned char const ,int> >,0>::_Tmap_traits<unsigned char,int,std::less<unsigned char>,std::allocator<std::pair<unsigned char const ,int> >,0>
; Function compile flags: /Ogty
; File c:\program files\microsoft visual studio .net 2003\vc7\include\map
;	COMDAT ??0?$_Tmap_traits@EHU?$less@E@std@@V?$allocator@U?$pair@$$CBEH@std@@@2@$0A@@std@@QAE@U?$less@E@1@@Z
_TEXT	SEGMENT
__Parg$ = 8						; size = 1
??0?$_Tmap_traits@EHU?$less@E@std@@V?$allocator@U?$pair@$$CBEH@std@@@2@$0A@@std@@QAE@U?$less@E@1@@Z PROC NEAR ; std::_Tmap_traits<unsigned char,int,std::less<unsigned char>,std::allocator<std::pair<unsigned char const ,int> >,0>::_Tmap_traits<unsigned char,int,std::less<unsigned char>,std::allocator<std::pair<unsigned char const ,int> >,0>, COMDAT
; _this$ = ecx

; 38   : 		{	// construct with specified comparator

  00000	8b c1		 mov	 eax, ecx

; 39   : 		}

  00002	c2 04 00	 ret	 4
??0?$_Tmap_traits@EHU?$less@E@std@@V?$allocator@U?$pair@$$CBEH@std@@@2@$0A@@std@@QAE@U?$less@E@1@@Z ENDP ; std::_Tmap_traits<unsigned char,int,std::less<unsigned char>,std::allocator<std::pair<unsigned char const ,int> >,0>::_Tmap_traits<unsigned char,int,std::less<unsigned char>,std::allocator<std::pair<unsigned char const ,int> >,0>
_TEXT	ENDS
PUBLIC	?_Inc@const_iterator@?$_Tree@V?$_Tmap_traits@EHU?$less@E@std@@V?$allocator@U?$pair@$$CBEH@std@@@2@$0A@@std@@@std@@QAEXXZ ; std::_Tree<std::_Tmap_traits<unsigned char,int,std::less<unsigned char>,std::allocator<std::pair<unsigned char const ,int> >,0> >::const_iterator::_Inc
; Function compile flags: /Ogty
; File c:\program files\microsoft visual studio .net 2003\vc7\include\xtree
;	COMDAT ?_Inc@const_iterator@?$_Tree@V?$_Tmap_traits@EHU?$less@E@std@@V?$allocator@U?$pair@$$CBEH@std@@@2@$0A@@std@@@std@@QAEXXZ
_TEXT	SEGMENT
?_Inc@const_iterator@?$_Tree@V?$_Tmap_traits@EHU?$less@E@std@@V?$allocator@U?$pair@$$CBEH@std@@@2@$0A@@std@@@std@@QAEXXZ PROC NEAR ; std::_Tree<std::_Tmap_traits<unsigned char,int,std::less<unsigned char>,std::allocator<std::pair<unsigned char const ,int> >,0> >::const_iterator::_Inc, COMDAT
; _this$ = ecx

; 268  : 			if (_Isnil(_Ptr))

  00000	8b 01		 mov	 eax, DWORD PTR [ecx]
  00002	8a 50 15	 mov	 dl, BYTE PTR [eax+21]
  00005	84 d2		 test	 dl, dl
  00007	75 4d		 jne	 SHORT $L188260

; 269  : 				;	// end() shouldn't be incremented, don't move
; 270  : 			else if (!_Isnil(_Right(_Ptr)))

  00009	8b 50 08	 mov	 edx, DWORD PTR [eax+8]
  0000c	53		 push	 ebx
  0000d	8a 5a 15	 mov	 bl, BYTE PTR [edx+21]
  00010	84 db		 test	 bl, bl
  00012	75 1b		 jne	 SHORT $L189498

; 271  : 				_Ptr = _Min(_Right(_Ptr));	// ==> smallest of right subtree

  00014	8b 02		 mov	 eax, DWORD PTR [edx]
  00016	8a 58 15	 mov	 bl, BYTE PTR [eax+21]
  00019	84 db		 test	 bl, bl
  0001b	75 0e		 jne	 SHORT $L189486
  0001d	8d 49 00	 npad	 3
$L189485:
  00020	8b d0		 mov	 edx, eax
  00022	8b 02		 mov	 eax, DWORD PTR [edx]
  00024	8a 58 15	 mov	 bl, BYTE PTR [eax+21]
  00027	84 db		 test	 bl, bl
  00029	74 f5		 je	 SHORT $L189485
$L189486:
  0002b	89 11		 mov	 DWORD PTR [ecx], edx
  0002d	5b		 pop	 ebx

; 279  : 				}
; 280  : 			}

  0002e	c3		 ret	 0
$L189498:

; 272  : 			else
; 273  : 				{	// climb looking for right subtree
; 274  : 				_Nodeptr _Pnode;
; 275  : 				while (!_Isnil(_Pnode = _Parent(_Ptr))
; 276  : 					&& _Ptr == _Right(_Pnode))

  0002f	8b 40 04	 mov	 eax, DWORD PTR [eax+4]
  00032	8a 50 15	 mov	 dl, BYTE PTR [eax+21]
  00035	84 d2		 test	 dl, dl
  00037	75 1a		 jne	 SHORT $L188264
  00039	8d a4 24 00 00
	00 00		 npad	 7
$L188263:
  00040	8b 11		 mov	 edx, DWORD PTR [ecx]
  00042	3b 50 08	 cmp	 edx, DWORD PTR [eax+8]
  00045	75 0c		 jne	 SHORT $L188264

; 277  : 					_Ptr = _Pnode;	// ==> parent while right subtree

  00047	89 01		 mov	 DWORD PTR [ecx], eax
  00049	8b 40 04	 mov	 eax, DWORD PTR [eax+4]
  0004c	8a 50 15	 mov	 dl, BYTE PTR [eax+21]
  0004f	84 d2		 test	 dl, dl
  00051	74 ed		 je	 SHORT $L188263
$L188264:

; 278  : 				_Ptr = _Pnode;	// ==> parent (head if end())

  00053	89 01		 mov	 DWORD PTR [ecx], eax
  00055	5b		 pop	 ebx
$L188260:

; 279  : 				}
; 280  : 			}

  00056	c3		 ret	 0
?_Inc@const_iterator@?$_Tree@V?$_Tmap_traits@EHU?$less@E@std@@V?$allocator@U?$pair@$$CBEH@std@@@2@$0A@@std@@@std@@QAEXXZ ENDP ; std::_Tree<std::_Tmap_traits<unsigned char,int,std::less<unsigned char>,std::allocator<std::pair<unsigned char const ,int> >,0> >::const_iterator::_Inc
_TEXT	ENDS
PUBLIC	??$?0EH@?$pair@$$CBEH@std@@QAE@ABU?$pair@EH@1@@Z ; std::pair<unsigned char const ,int>::pair<unsigned char const ,int><unsigned char,int>
; Function compile flags: /Ogty
; File c:\program files\microsoft visual studio .net 2003\vc7\include\utility
;	COMDAT ??$?0EH@?$pair@$$CBEH@std@@QAE@ABU?$pair@EH@1@@Z
_TEXT	SEGMENT
__Right$ = 8						; size = 4
??$?0EH@?$pair@$$CBEH@std@@QAE@ABU?$pair@EH@1@@Z PROC NEAR ; std::pair<unsigned char const ,int>::pair<unsigned char const ,int><unsigned char,int>, COMDAT
; _this$ = ecx

; 41   : 		{	// construct from compatible pair

  00000	8b c1		 mov	 eax, ecx
  00002	8b 4c 24 04	 mov	 ecx, DWORD PTR __Right$[esp-4]
  00006	8a 11		 mov	 dl, BYTE PTR [ecx]
  00008	88 10		 mov	 BYTE PTR [eax], dl
  0000a	8b 49 04	 mov	 ecx, DWORD PTR [ecx+4]
  0000d	89 48 04	 mov	 DWORD PTR [eax+4], ecx

; 42   : 		}

  00010	c2 04 00	 ret	 4
??$?0EH@?$pair@$$CBEH@std@@QAE@ABU?$pair@EH@1@@Z ENDP	; std::pair<unsigned char const ,int>::pair<unsigned char const ,int><unsigned char,int>
_TEXT	ENDS
PUBLIC	??$_Allocate@V?$basic_string@DU?$char_traits@D@std@@V?$allocator@D@2@@std@@@std@@YAPAV?$basic_string@DU?$char_traits@D@std@@V?$allocator@D@2@@0@IPAV10@@Z ; std::_Allocate<std::basic_string<char,std::char_traits<char>,std::allocator<char> > >
EXTRN	??2@YAPAXI@Z:NEAR				; operator new
; Function compile flags: /Ogty
; File c:\program files\microsoft visual studio .net 2003\vc7\include\xmemory
;	COMDAT ??$_Allocate@V?$basic_string@DU?$char_traits@D@std@@V?$allocator@D@2@@std@@@std@@YAPAV?$basic_string@DU?$char_traits@D@std@@V?$allocator@D@2@@0@IPAV10@@Z
_TEXT	SEGMENT
__Count$ = 8						; size = 4
___formal$ = 12						; size = 4
??$_Allocate@V?$basic_string@DU?$char_traits@D@std@@V?$allocator@D@2@@std@@@std@@YAPAV?$basic_string@DU?$char_traits@D@std@@V?$allocator@D@2@@0@IPAV10@@Z PROC NEAR ; std::_Allocate<std::basic_string<char,std::char_traits<char>,std::allocator<char> > >, COMDAT

; 34   : 	return ((_Ty _FARQ *)operator new(_Count * sizeof (_Ty)));

  00000	8b 44 24 04	 mov	 eax, DWORD PTR __Count$[esp-4]
  00004	6b c0 1c	 imul	 eax, 28			; 0000001cH
  00007	50		 push	 eax
  00008	e8 00 00 00 00	 call	 ??2@YAPAXI@Z		; operator new
  0000d	83 c4 04	 add	 esp, 4

; 35   : 	}

  00010	c3		 ret	 0
??$_Allocate@V?$basic_string@DU?$char_traits@D@std@@V?$allocator@D@2@@std@@@std@@YAPAV?$basic_string@DU?$char_traits@D@std@@V?$allocator@D@2@@0@IPAV10@@Z ENDP ; std::_Allocate<std::basic_string<char,std::char_traits<char>,std::allocator<char> > >
_TEXT	ENDS
PUBLIC	??$_Destroy@U_Node@?$_Tree_nod@V?$_Tmap_traits@EHU?$less@E@std@@V?$allocator@U?$pair@$$CBEH@std@@@2@$0A@@std@@@std@@@std@@YAXPAU_Node@?$_Tree_nod@V?$_Tmap_traits@EHU?$less@E@std@@V?$allocator@U?$pair@$$CBEH@std@@@2@$0A@@std@@@0@@Z ; std::_Destroy<std::_Tree_nod<std::_Tmap_traits<unsigned char,int,std::less<unsigned char>,std::allocator<std::pair<unsigned char const ,int> >,0> >::_Node>
; Function compile flags: /Ogty
;	COMDAT ??$_Destroy@U_Node@?$_Tree_nod@V?$_Tmap_traits@EHU?$less@E@std@@V?$allocator@U?$pair@$$CBEH@std@@@2@$0A@@std@@@std@@@std@@YAXPAU_Node@?$_Tree_nod@V?$_Tmap_traits@EHU?$less@E@std@@V?$allocator@U?$pair@$$CBEH@std@@@2@$0A@@std@@@0@@Z
_TEXT	SEGMENT
__Ptr$ = 8						; size = 4
??$_Destroy@U_Node@?$_Tree_nod@V?$_Tmap_traits@EHU?$less@E@std@@V?$allocator@U?$pair@$$CBEH@std@@@2@$0A@@std@@@std@@@std@@YAXPAU_Node@?$_Tree_nod@V?$_Tmap_traits@EHU?$less@E@std@@V?$allocator@U?$pair@$$CBEH@std@@@2@$0A@@std@@@0@@Z PROC NEAR ; std::_Destroy<std::_Tree_nod<std::_Tmap_traits<unsigned char,int,std::less<unsigned char>,std::allocator<std::pair<unsigned char const ,int> >,0> >::_Node>, COMDAT

; 49   : 	_DESTRUCTOR(_Ty, _Ptr);
; 50   : 	}

  00000	c3		 ret	 0
??$_Destroy@U_Node@?$_Tree_nod@V?$_Tmap_traits@EHU?$less@E@std@@V?$allocator@U?$pair@$$CBEH@std@@@2@$0A@@std@@@std@@@std@@YAXPAU_Node@?$_Tree_nod@V?$_Tmap_traits@EHU?$less@E@std@@V?$allocator@U?$pair@$$CBEH@std@@@2@$0A@@std@@@0@@Z ENDP ; std::_Destroy<std::_Tree_nod<std::_Tmap_traits<unsigned char,int,std::less<unsigned char>,std::allocator<std::pair<unsigned char const ,int> >,0> >::_Node>
_TEXT	ENDS
PUBLIC	??$_Destroy@PAU_Node@?$_Tree_nod@V?$_Tmap_traits@EHU?$less@E@std@@V?$allocator@U?$pair@$$CBEH@std@@@2@$0A@@std@@@std@@@std@@YAXPAPAU_Node@?$_Tree_nod@V?$_Tmap_traits@EHU?$less@E@std@@V?$allocator@U?$pair@$$CBEH@std@@@2@$0A@@std@@@0@@Z ; std::_Destroy<std::_Tree_nod<std::_Tmap_traits<unsigned char,int,std::less<unsigned char>,std::allocator<std::pair<unsigned char const ,int> >,0> >::_Node *>
; Function compile flags: /Ogty
;	COMDAT ??$_Destroy@PAU_Node@?$_Tree_nod@V?$_Tmap_traits@EHU?$less@E@std@@V?$allocator@U?$pair@$$CBEH@std@@@2@$0A@@std@@@std@@@std@@YAXPAPAU_Node@?$_Tree_nod@V?$_Tmap_traits@EHU?$less@E@std@@V?$allocator@U?$pair@$$CBEH@std@@@2@$0A@@std@@@0@@Z
_TEXT	SEGMENT
__Ptr$ = 8						; size = 4
??$_Destroy@PAU_Node@?$_Tree_nod@V?$_Tmap_traits@EHU?$less@E@std@@V?$allocator@U?$pair@$$CBEH@std@@@2@$0A@@std@@@std@@@std@@YAXPAPAU_Node@?$_Tree_nod@V?$_Tmap_traits@EHU?$less@E@std@@V?$allocator@U?$pair@$$CBEH@std@@@2@$0A@@std@@@0@@Z PROC NEAR ; std::_Destroy<std::_Tree_nod<std::_Tmap_traits<unsigned char,int,std::less<unsigned char>,std::allocator<std::pair<unsigned char const ,int> >,0> >::_Node *>, COMDAT

; 49   : 	_DESTRUCTOR(_Ty, _Ptr);
; 50   : 	}

  00000	c3		 ret	 0
??$_Destroy@PAU_Node@?$_Tree_nod@V?$_Tmap_traits@EHU?$less@E@std@@V?$allocator@U?$pair@$$CBEH@std@@@2@$0A@@std@@@std@@@std@@YAXPAPAU_Node@?$_Tree_nod@V?$_Tmap_traits@EHU?$less@E@std@@V?$allocator@U?$pair@$$CBEH@std@@@2@$0A@@std@@@0@@Z ENDP ; std::_Destroy<std::_Tree_nod<std::_Tmap_traits<unsigned char,int,std::less<unsigned char>,std::allocator<std::pair<unsigned char const ,int> >,0> >::_Node *>
_TEXT	ENDS
PUBLIC	??$_Allocate@E@std@@YAPAEIPAE@Z			; std::_Allocate<unsigned char>
; Function compile flags: /Ogty
;	COMDAT ??$_Allocate@E@std@@YAPAEIPAE@Z
_TEXT	SEGMENT
__Count$ = 8						; size = 4
___formal$ = 12						; size = 4
??$_Allocate@E@std@@YAPAEIPAE@Z PROC NEAR		; std::_Allocate<unsigned char>, COMDAT

; 34   : 	return ((_Ty _FARQ *)operator new(_Count * sizeof (_Ty)));

  00000	8b 44 24 04	 mov	 eax, DWORD PTR __Count$[esp-4]
  00004	50		 push	 eax
  00005	e8 00 00 00 00	 call	 ??2@YAPAXI@Z		; operator new
  0000a	83 c4 04	 add	 esp, 4

; 35   : 	}

  0000d	c3		 ret	 0
??$_Allocate@E@std@@YAPAEIPAE@Z ENDP			; std::_Allocate<unsigned char>
_TEXT	ENDS
PUBLIC	??$fill@PAEE@std@@YAXPAE0ABE@Z			; std::fill<unsigned char *,unsigned char>
; Function compile flags: /Ogty
; File c:\program files\microsoft visual studio .net 2003\vc7\include\xutility
;	COMDAT ??$fill@PAEE@std@@YAXPAE0ABE@Z
_TEXT	SEGMENT
__First$ = 8						; size = 4
__Last$ = 12						; size = 4
__Val$ = 16						; size = 4
??$fill@PAEE@std@@YAXPAE0ABE@Z PROC NEAR		; std::fill<unsigned char *,unsigned char>, COMDAT

; 1135 : 	for (; _First != _Last; ++_First)

  00000	8b 44 24 04	 mov	 eax, DWORD PTR __First$[esp-4]
  00004	8b 4c 24 08	 mov	 ecx, DWORD PTR __Last$[esp-4]
  00008	3b c1		 cmp	 eax, ecx
  0000a	74 0f		 je	 SHORT $L188662
  0000c	56		 push	 esi
  0000d	8b 74 24 10	 mov	 esi, DWORD PTR __Val$[esp]
$L188660:

; 1136 : 		*_First = _Val;

  00011	8a 16		 mov	 dl, BYTE PTR [esi]
  00013	88 10		 mov	 BYTE PTR [eax], dl
  00015	40		 inc	 eax
  00016	3b c1		 cmp	 eax, ecx
  00018	75 f7		 jne	 SHORT $L188660
  0001a	5e		 pop	 esi
$L188662:

; 1137 : 	}

  0001b	c3		 ret	 0
??$fill@PAEE@std@@YAXPAE0ABE@Z ENDP			; std::fill<unsigned char *,unsigned char>
_TEXT	ENDS
PUBLIC	??$?0U?$pair@$$CBEH@std@@@?$allocator@PAU_Node@?$_Tree_nod@V?$_Tmap_traits@EHU?$less@E@std@@V?$allocator@U?$pair@$$CBEH@std@@@2@$0A@@std@@@std@@@std@@QAE@ABV?$allocator@U?$pair@$$CBEH@std@@@1@@Z ; std::allocator<std::_Tree_nod<std::_Tmap_traits<unsigned char,int,std::less<unsigned char>,std::allocator<std::pair<unsigned char const ,int> >,0> >::_Node *>::allocator<std::_Tree_nod<std::_Tmap_traits<unsigned char,int,std::less<unsigned char>,std::allocator<std::pair<unsigned char const ,int> >,0> >::_Node *><std::pair<unsigned char const ,int> >
; Function compile flags: /Ogty
; File c:\program files\microsoft visual studio .net 2003\vc7\include\xmemory
;	COMDAT ??$?0U?$pair@$$CBEH@std@@@?$allocator@PAU_Node@?$_Tree_nod@V?$_Tmap_traits@EHU?$less@E@std@@V?$allocator@U?$pair@$$CBEH@std@@@2@$0A@@std@@@std@@@std@@QAE@ABV?$allocator@U?$pair@$$CBEH@std@@@1@@Z
_TEXT	SEGMENT
___formal$ = 8						; size = 4
??$?0U?$pair@$$CBEH@std@@@?$allocator@PAU_Node@?$_Tree_nod@V?$_Tmap_traits@EHU?$less@E@std@@V?$allocator@U?$pair@$$CBEH@std@@@2@$0A@@std@@@std@@@std@@QAE@ABV?$allocator@U?$pair@$$CBEH@std@@@1@@Z PROC NEAR ; std::allocator<std::_Tree_nod<std::_Tmap_traits<unsigned char,int,std::less<unsigned char>,std::allocator<std::pair<unsigned char const ,int> >,0> >::_Node *>::allocator<std::_Tree_nod<std::_Tmap_traits<unsigned char,int,std::less<unsigned char>,std::allocator<std::pair<unsigned char const ,int> >,0> >::_Node *><std::pair<unsigned char const ,int> >, COMDAT
; _this$ = ecx

; 120  : 		allocator(const allocator<_Other>&)

  00000	8b c1		 mov	 eax, ecx

; 121  : 		{	// construct from a related allocator (do nothing)
; 122  : 		}

  00002	c2 04 00	 ret	 4
??$?0U?$pair@$$CBEH@std@@@?$allocator@PAU_Node@?$_Tree_nod@V?$_Tmap_traits@EHU?$less@E@std@@V?$allocator@U?$pair@$$CBEH@std@@@2@$0A@@std@@@std@@@std@@QAE@ABV?$allocator@U?$pair@$$CBEH@std@@@1@@Z ENDP ; std::allocator<std::_Tree_nod<std::_Tmap_traits<unsigned char,int,std::less<unsigned char>,std::allocator<std::pair<unsigned char const ,int> >,0> >::_Node *>::allocator<std::_Tree_nod<std::_Tmap_traits<unsigned char,int,std::less<unsigned char>,std::allocator<std::pair<unsigned char const ,int> >,0> >::_Node *><std::pair<unsigned char const ,int> >
_TEXT	ENDS
PUBLIC	??$_Allocate@U_Node@?$_Tree_nod@V?$_Tmap_traits@EHU?$less@E@std@@V?$allocator@U?$pair@$$CBEH@std@@@2@$0A@@std@@@std@@@std@@YAPAU_Node@?$_Tree_nod@V?$_Tmap_traits@EHU?$less@E@std@@V?$allocator@U?$pair@$$CBEH@std@@@2@$0A@@std@@@0@IPAU120@@Z ; std::_Allocate<std::_Tree_nod<std::_Tmap_traits<unsigned char,int,std::less<unsigned char>,std::allocator<std::pair<unsigned char const ,int> >,0> >::_Node>
; Function compile flags: /Ogty
;	COMDAT ??$_Allocate@U_Node@?$_Tree_nod@V?$_Tmap_traits@EHU?$less@E@std@@V?$allocator@U?$pair@$$CBEH@std@@@2@$0A@@std@@@std@@@std@@YAPAU_Node@?$_Tree_nod@V?$_Tmap_traits@EHU?$less@E@std@@V?$allocator@U?$pair@$$CBEH@std@@@2@$0A@@std@@@0@IPAU120@@Z
_TEXT	SEGMENT
__Count$ = 8						; size = 4
___formal$ = 12						; size = 4
??$_Allocate@U_Node@?$_Tree_nod@V?$_Tmap_traits@EHU?$less@E@std@@V?$allocator@U?$pair@$$CBEH@std@@@2@$0A@@std@@@std@@@std@@YAPAU_Node@?$_Tree_nod@V?$_Tmap_traits@EHU?$less@E@std@@V?$allocator@U?$pair@$$CBEH@std@@@2@$0A@@std@@@0@IPAU120@@Z PROC NEAR ; std::_Allocate<std::_Tree_nod<std::_Tmap_traits<unsigned char,int,std::less<unsigned char>,std::allocator<std::pair<unsigned char const ,int> >,0> >::_Node>, COMDAT

; 34   : 	return ((_Ty _FARQ *)operator new(_Count * sizeof (_Ty)));

  00000	8b 44 24 04	 mov	 eax, DWORD PTR __Count$[esp-4]
  00004	8d 04 40	 lea	 eax, DWORD PTR [eax+eax*2]
  00007	c1 e0 03	 shl	 eax, 3
  0000a	50		 push	 eax
  0000b	e8 00 00 00 00	 call	 ??2@YAPAXI@Z		; operator new
  00010	83 c4 04	 add	 esp, 4

; 35   : 	}

  00013	c3		 ret	 0
??$_Allocate@U_Node@?$_Tree_nod@V?$_Tmap_traits@EHU?$less@E@std@@V?$allocator@U?$pair@$$CBEH@std@@@2@$0A@@std@@@std@@@std@@YAPAU_Node@?$_Tree_nod@V?$_Tmap_traits@EHU?$less@E@std@@V?$allocator@U?$pair@$$CBEH@std@@@2@$0A@@std@@@0@IPAU120@@Z ENDP ; std::_Allocate<std::_Tree_nod<std::_Tmap_traits<unsigned char,int,std::less<unsigned char>,std::allocator<std::pair<unsigned char const ,int> >,0> >::_Node>
_TEXT	ENDS
PUBLIC	??$?0U?$pair@$$CBEH@std@@@?$allocator@U_Node@?$_Tree_nod@V?$_Tmap_traits@EHU?$less@E@std@@V?$allocator@U?$pair@$$CBEH@std@@@2@$0A@@std@@@std@@@std@@QAE@ABV?$allocator@U?$pair@$$CBEH@std@@@1@@Z ; std::allocator<std::_Tree_nod<std::_Tmap_traits<unsigned char,int,std::less<unsigned char>,std::allocator<std::pair<unsigned char const ,int> >,0> >::_Node>::allocator<std::_Tree_nod<std::_Tmap_traits<unsigned char,int,std::less<unsigned char>,std::allocator<std::pair<unsigned char const ,int> >,0> >::_Node><std::pair<unsigned char const ,int> >
; Function compile flags: /Ogty
;	COMDAT ??$?0U?$pair@$$CBEH@std@@@?$allocator@U_Node@?$_Tree_nod@V?$_Tmap_traits@EHU?$less@E@std@@V?$allocator@U?$pair@$$CBEH@std@@@2@$0A@@std@@@std@@@std@@QAE@ABV?$allocator@U?$pair@$$CBEH@std@@@1@@Z
_TEXT	SEGMENT
___formal$ = 8						; size = 4
??$?0U?$pair@$$CBEH@std@@@?$allocator@U_Node@?$_Tree_nod@V?$_Tmap_traits@EHU?$less@E@std@@V?$allocator@U?$pair@$$CBEH@std@@@2@$0A@@std@@@std@@@std@@QAE@ABV?$allocator@U?$pair@$$CBEH@std@@@1@@Z PROC NEAR ; std::allocator<std::_Tree_nod<std::_Tmap_traits<unsigned char,int,std::less<unsigned char>,std::allocator<std::pair<unsigned char const ,int> >,0> >::_Node>::allocator<std::_Tree_nod<std::_Tmap_traits<unsigned char,int,std::less<unsigned char>,std::allocator<std::pair<unsigned char const ,int> >,0> >::_Node><std::pair<unsigned char const ,int> >, COMDAT
; _this$ = ecx

; 120  : 		allocator(const allocator<_Other>&)

  00000	8b c1		 mov	 eax, ecx

; 121  : 		{	// construct from a related allocator (do nothing)
; 122  : 		}

  00002	c2 04 00	 ret	 4
??$?0U?$pair@$$CBEH@std@@@?$allocator@U_Node@?$_Tree_nod@V?$_Tmap_traits@EHU?$less@E@std@@V?$allocator@U?$pair@$$CBEH@std@@@2@$0A@@std@@@std@@@std@@QAE@ABV?$allocator@U?$pair@$$CBEH@std@@@1@@Z ENDP ; std::allocator<std::_Tree_nod<std::_Tmap_traits<unsigned char,int,std::less<unsigned char>,std::allocator<std::pair<unsigned char const ,int> >,0> >::_Node>::allocator<std::_Tree_nod<std::_Tmap_traits<unsigned char,int,std::less<unsigned char>,std::allocator<std::pair<unsigned char const ,int> >,0> >::_Node><std::pair<unsigned char const ,int> >
_TEXT	ENDS
PUBLIC	??$_Construct@PAU_Node@?$_Tree_nod@V?$_Tmap_traits@EHU?$less@E@std@@V?$allocator@U?$pair@$$CBEH@std@@@2@$0A@@std@@@std@@PAU123@@std@@YAXPAPAU_Node@?$_Tree_nod@V?$_Tmap_traits@EHU?$less@E@std@@V?$allocator@U?$pair@$$CBEH@std@@@2@$0A@@std@@@0@ABQAU120@@Z ; std::_Construct<std::_Tree_nod<std::_Tmap_traits<unsigned char,int,std::less<unsigned char>,std::allocator<std::pair<unsigned char const ,int> >,0> >::_Node *,std::_Tree_nod<std::_Tmap_traits<unsigned char,int,std::less<unsigned char>,std::allocator<std::pair<unsigned char const ,int> >,0> >::_Node *>
; Function compile flags: /Ogty
;	COMDAT ??$_Construct@PAU_Node@?$_Tree_nod@V?$_Tmap_traits@EHU?$less@E@std@@V?$allocator@U?$pair@$$CBEH@std@@@2@$0A@@std@@@std@@PAU123@@std@@YAXPAPAU_Node@?$_Tree_nod@V?$_Tmap_traits@EHU?$less@E@std@@V?$allocator@U?$pair@$$CBEH@std@@@2@$0A@@std@@@0@ABQAU120@@Z
_TEXT	SEGMENT
__Ptr$ = 8						; size = 4
__Val$ = 12						; size = 4
??$_Construct@PAU_Node@?$_Tree_nod@V?$_Tmap_traits@EHU?$less@E@std@@V?$allocator@U?$pair@$$CBEH@std@@@2@$0A@@std@@@std@@PAU123@@std@@YAXPAPAU_Node@?$_Tree_nod@V?$_Tmap_traits@EHU?$less@E@std@@V?$allocator@U?$pair@$$CBEH@std@@@2@$0A@@std@@@0@ABQAU120@@Z PROC NEAR ; std::_Construct<std::_Tree_nod<std::_Tmap_traits<unsigned char,int,std::less<unsigned char>,std::allocator<std::pair<unsigned char const ,int> >,0> >::_Node *,std::_Tree_nod<std::_Tmap_traits<unsigned char,int,std::less<unsigned char>,std::allocator<std::pair<unsigned char const ,int> >,0> >::_Node *>, COMDAT

; 42   : 	new ((void _FARQ *)_Ptr) _T1(_Val);

  00000	8b 44 24 04	 mov	 eax, DWORD PTR __Ptr$[esp-4]
  00004	85 c0		 test	 eax, eax
  00006	74 08		 je	 SHORT $L189525
  00008	8b 4c 24 08	 mov	 ecx, DWORD PTR __Val$[esp-4]
  0000c	8b 11		 mov	 edx, DWORD PTR [ecx]
  0000e	89 10		 mov	 DWORD PTR [eax], edx
$L189525:

; 43   : 	}

  00010	c3		 ret	 0
??$_Construct@PAU_Node@?$_Tree_nod@V?$_Tmap_traits@EHU?$less@E@std@@V?$allocator@U?$pair@$$CBEH@std@@@2@$0A@@std@@@std@@PAU123@@std@@YAXPAPAU_Node@?$_Tree_nod@V?$_Tmap_traits@EHU?$less@E@std@@V?$allocator@U?$pair@$$CBEH@std@@@2@$0A@@std@@@0@ABQAU120@@Z ENDP ; std::_Construct<std::_Tree_nod<std::_Tmap_traits<unsigned char,int,std::less<unsigned char>,std::allocator<std::pair<unsigned char const ,int> >,0> >::_Node *,std::_Tree_nod<std::_Tmap_traits<unsigned char,int,std::less<unsigned char>,std::allocator<std::pair<unsigned char const ,int> >,0> >::_Node *>
_TEXT	ENDS
PUBLIC	??0?$pair@EH@std@@QAE@ABEABH@Z			; std::pair<unsigned char,int>::pair<unsigned char,int>
; Function compile flags: /Ogty
; File c:\program files\microsoft visual studio .net 2003\vc7\include\utility
;	COMDAT ??0?$pair@EH@std@@QAE@ABEABH@Z
_TEXT	SEGMENT
__Val1$ = 8						; size = 4
__Val2$ = 12						; size = 4
??0?$pair@EH@std@@QAE@ABEABH@Z PROC NEAR		; std::pair<unsigned char,int>::pair<unsigned char,int>, COMDAT
; _this$ = ecx

; 34   : 		{	// construct from specified values

  00000	8b c1		 mov	 eax, ecx
  00002	8b 4c 24 04	 mov	 ecx, DWORD PTR __Val1$[esp-4]
  00006	8a 11		 mov	 dl, BYTE PTR [ecx]
  00008	8b 4c 24 08	 mov	 ecx, DWORD PTR __Val2$[esp-4]
  0000c	88 10		 mov	 BYTE PTR [eax], dl
  0000e	8b 11		 mov	 edx, DWORD PTR [ecx]
  00010	89 50 04	 mov	 DWORD PTR [eax+4], edx

; 35   : 		}

  00013	c2 08 00	 ret	 8
??0?$pair@EH@std@@QAE@ABEABH@Z ENDP			; std::pair<unsigned char,int>::pair<unsigned char,int>
_TEXT	ENDS
PUBLIC	??$_Ptr_cat@PAV?$basic_string@DU?$char_traits@D@std@@V?$allocator@D@2@@std@@PAV12@@std@@YA?AU_Nonscalar_ptr_iterator_tag@0@AAPAV?$basic_string@DU?$char_traits@D@std@@V?$allocator@D@2@@0@0@Z ; std::_Ptr_cat<std::basic_string<char,std::char_traits<char>,std::allocator<char> > *,std::basic_string<char,std::char_traits<char>,std::allocator<char> > *>
; Function compile flags: /Ogty
; File c:\program files\microsoft visual studio .net 2003\vc7\include\xutility
;	COMDAT ??$_Ptr_cat@PAV?$basic_string@DU?$char_traits@D@std@@V?$allocator@D@2@@std@@PAV12@@std@@YA?AU_Nonscalar_ptr_iterator_tag@0@AAPAV?$basic_string@DU?$char_traits@D@std@@V?$allocator@D@2@@0@0@Z
_TEXT	SEGMENT
__Cat$ = -1						; size = 1
___formal$ = 8						; size = 4
___formal$ = 12						; size = 4
??$_Ptr_cat@PAV?$basic_string@DU?$char_traits@D@std@@V?$allocator@D@2@@std@@PAV12@@std@@YA?AU_Nonscalar_ptr_iterator_tag@0@AAPAV?$basic_string@DU?$char_traits@D@std@@V?$allocator@D@2@@0@0@Z PROC NEAR ; std::_Ptr_cat<std::basic_string<char,std::char_traits<char>,std::allocator<char> > *,std::basic_string<char,std::char_traits<char>,std::allocator<char> > *>, COMDAT

; 211  : 	{	// return pointer category from arbitrary arguments

  00000	51		 push	 ecx

; 212  : 	_Nonscalar_ptr_iterator_tag _Cat;
; 213  : 	return (_Cat);

  00001	8a 44 24 03	 mov	 al, BYTE PTR __Cat$[esp+4]

; 214  : 	}

  00005	59		 pop	 ecx
  00006	c3		 ret	 0
??$_Ptr_cat@PAV?$basic_string@DU?$char_traits@D@std@@V?$allocator@D@2@@std@@PAV12@@std@@YA?AU_Nonscalar_ptr_iterator_tag@0@AAPAV?$basic_string@DU?$char_traits@D@std@@V?$allocator@D@2@@0@0@Z ENDP ; std::_Ptr_cat<std::basic_string<char,std::char_traits<char>,std::allocator<char> > *,std::basic_string<char,std::char_traits<char>,std::allocator<char> > *>
_TEXT	ENDS
PUBLIC	??$_Destroy_range@EV?$allocator@E@std@@@std@@YAXPAE0AAV?$allocator@E@0@U_Scalar_ptr_iterator_tag@0@@Z ; std::_Destroy_range<unsigned char,std::allocator<unsigned char> >
; Function compile flags: /Ogty
; File c:\program files\microsoft visual studio .net 2003\vc7\include\xmemory
;	COMDAT ??$_Destroy_range@EV?$allocator@E@std@@@std@@YAXPAE0AAV?$allocator@E@0@U_Scalar_ptr_iterator_tag@0@@Z
_TEXT	SEGMENT
__First$ = 8						; size = 4
__Last$ = 12						; size = 4
__Al$ = 16						; size = 4
___formal$ = 20						; size = 1
??$_Destroy_range@EV?$allocator@E@std@@@std@@YAXPAE0AAV?$allocator@E@0@U_Scalar_ptr_iterator_tag@0@@Z PROC NEAR ; std::_Destroy_range<unsigned char,std::allocator<unsigned char> >, COMDAT

; 234  : 	}

  00000	c3		 ret	 0
??$_Destroy_range@EV?$allocator@E@std@@@std@@YAXPAE0AAV?$allocator@E@0@U_Scalar_ptr_iterator_tag@0@@Z ENDP ; std::_Destroy_range<unsigned char,std::allocator<unsigned char> >
_TEXT	ENDS
PUBLIC	??$_Copy_backward_opt@PAEPAE@std@@YAPAEPAE00U_Scalar_ptr_iterator_tag@0@@Z ; std::_Copy_backward_opt<unsigned char *,unsigned char *>
EXTRN	_memmove:NEAR
; Function compile flags: /Ogty
; File c:\program files\microsoft visual studio .net 2003\vc7\include\xutility
;	COMDAT ??$_Copy_backward_opt@PAEPAE@std@@YAPAEPAE00U_Scalar_ptr_iterator_tag@0@@Z
_TEXT	SEGMENT
__First$ = 8						; size = 4
__Last$ = 12						; size = 4
__Dest$ = 16						; size = 4
___formal$ = 20						; size = 1
??$_Copy_backward_opt@PAEPAE@std@@YAPAEPAE00U_Scalar_ptr_iterator_tag@0@@Z PROC NEAR ; std::_Copy_backward_opt<unsigned char *,unsigned char *>, COMDAT

; 1059 : 	ptrdiff_t _Off = _Last - _First;	// NB: non-overlapping move

  00000	8b 4c 24 04	 mov	 ecx, DWORD PTR __First$[esp-4]
  00004	8b 44 24 08	 mov	 eax, DWORD PTR __Last$[esp-4]
  00008	2b c1		 sub	 eax, ecx

; 1060 : 	return ((_OutIt)memmove(&*_Dest - _Off, &*_First,
; 1061 : 		_Off * sizeof (*_First)));

  0000a	50		 push	 eax
  0000b	51		 push	 ecx
  0000c	8b 4c 24 14	 mov	 ecx, DWORD PTR __Dest$[esp+4]
  00010	2b c8		 sub	 ecx, eax
  00012	51		 push	 ecx
  00013	e8 00 00 00 00	 call	 _memmove
  00018	83 c4 0c	 add	 esp, 12			; 0000000cH

; 1062 : 	}

  0001b	c3		 ret	 0
??$_Copy_backward_opt@PAEPAE@std@@YAPAEPAE00U_Scalar_ptr_iterator_tag@0@@Z ENDP ; std::_Copy_backward_opt<unsigned char *,unsigned char *>
_TEXT	ENDS
PUBLIC	??$_Ptr_cat@Vconst_iterator@?$vector@V?$basic_string@DU?$char_traits@D@std@@V?$allocator@D@2@@std@@V?$allocator@V?$basic_string@DU?$char_traits@D@std@@V?$allocator@D@2@@std@@@2@@std@@PAV?$basic_string@DU?$char_traits@D@std@@V?$allocator@D@2@@3@@std@@YA?AU_Nonscalar_ptr_iterator_tag@0@AAVconst_iterator@?$vector@V?$basic_string@DU?$char_traits@D@std@@V?$allocator@D@2@@std@@V?$allocator@V?$basic_string@DU?$char_traits@D@std@@V?$allocator@D@2@@std@@@2@@0@AAPAV?$basic_string@DU?$char_traits@D@std@@V?$allocator@D@2@@0@@Z ; std::_Ptr_cat<std::vector<std::basic_string<char,std::char_traits<char>,std::allocator<char> >,std::allocator<std::basic_string<char,std::char_traits<char>,std::allocator<char> > > >::const_iterator,std::basic_string<char,std::char_traits<char>,std::allocator<char> > *>
; Function compile flags: /Ogty
;	COMDAT ??$_Ptr_cat@Vconst_iterator@?$vector@V?$basic_string@DU?$char_traits@D@std@@V?$allocator@D@2@@std@@V?$allocator@V?$basic_string@DU?$char_traits@D@std@@V?$allocator@D@2@@std@@@2@@std@@PAV?$basic_string@DU?$char_traits@D@std@@V?$allocator@D@2@@3@@std@@YA?AU_Nonscalar_ptr_iterator_tag@0@AAVconst_iterator@?$vector@V?$basic_string@DU?$char_traits@D@std@@V?$allocator@D@2@@std@@V?$allocator@V?$basic_string@DU?$char_traits@D@std@@V?$allocator@D@2@@std@@@2@@0@AAPAV?$basic_string@DU?$char_traits@D@std@@V?$allocator@D@2@@0@@Z
_TEXT	SEGMENT
__Cat$ = -1						; size = 1
___formal$ = 8						; size = 4
___formal$ = 12						; size = 4
??$_Ptr_cat@Vconst_iterator@?$vector@V?$basic_string@DU?$char_traits@D@std@@V?$allocator@D@2@@std@@V?$allocator@V?$basic_string@DU?$char_traits@D@std@@V?$allocator@D@2@@std@@@2@@std@@PAV?$basic_string@DU?$char_traits@D@std@@V?$allocator@D@2@@3@@std@@YA?AU_Nonscalar_ptr_iterator_tag@0@AAVconst_iterator@?$vector@V?$basic_string@DU?$char_traits@D@std@@V?$allocator@D@2@@std@@V?$allocator@V?$basic_string@DU?$char_traits@D@std@@V?$allocator@D@2@@std@@@2@@0@AAPAV?$basic_string@DU?$char_traits@D@std@@V?$allocator@D@2@@0@@Z PROC NEAR ; std::_Ptr_cat<std::vector<std::basic_string<char,std::char_traits<char>,std::allocator<char> >,std::allocator<std::basic_string<char,std::char_traits<char>,std::allocator<char> > > >::const_iterator,std::basic_string<char,std::char_traits<char>,std::allocator<char> > *>, COMDAT

; 211  : 	{	// return pointer category from arbitrary arguments

  00000	51		 push	 ecx

; 212  : 	_Nonscalar_ptr_iterator_tag _Cat;
; 213  : 	return (_Cat);

  00001	8a 44 24 03	 mov	 al, BYTE PTR __Cat$[esp+4]

; 214  : 	}

  00005	59		 pop	 ecx
  00006	c3		 ret	 0
??$_Ptr_cat@Vconst_iterator@?$vector@V?$basic_string@DU?$char_traits@D@std@@V?$allocator@D@2@@std@@V?$allocator@V?$basic_string@DU?$char_traits@D@std@@V?$allocator@D@2@@std@@@2@@std@@PAV?$basic_string@DU?$char_traits@D@std@@V?$allocator@D@2@@3@@std@@YA?AU_Nonscalar_ptr_iterator_tag@0@AAVconst_iterator@?$vector@V?$basic_string@DU?$char_traits@D@std@@V?$allocator@D@2@@std@@V?$allocator@V?$basic_string@DU?$char_traits@D@std@@V?$allocator@D@2@@std@@@2@@0@AAPAV?$basic_string@DU?$char_traits@D@std@@V?$allocator@D@2@@0@@Z ENDP ; std::_Ptr_cat<std::vector<std::basic_string<char,std::char_traits<char>,std::allocator<char> >,std::allocator<std::basic_string<char,std::char_traits<char>,std::allocator<char> > > >::const_iterator,std::basic_string<char,std::char_traits<char>,std::allocator<char> > *>
_TEXT	ENDS
PUBLIC	??$_Ptr_cat@Vconst_iterator@?$vector@EV?$allocator@E@std@@@std@@PAE@std@@YA?AU_Nonscalar_ptr_iterator_tag@0@AAVconst_iterator@?$vector@EV?$allocator@E@std@@@0@AAPAE@Z ; std::_Ptr_cat<std::vector<unsigned char,std::allocator<unsigned char> >::const_iterator,unsigned char *>
; Function compile flags: /Ogty
;	COMDAT ??$_Ptr_cat@Vconst_iterator@?$vector@EV?$allocator@E@std@@@std@@PAE@std@@YA?AU_Nonscalar_ptr_iterator_tag@0@AAVconst_iterator@?$vector@EV?$allocator@E@std@@@0@AAPAE@Z
_TEXT	SEGMENT
__Cat$ = -1						; size = 1
___formal$ = 8						; size = 4
___formal$ = 12						; size = 4
??$_Ptr_cat@Vconst_iterator@?$vector@EV?$allocator@E@std@@@std@@PAE@std@@YA?AU_Nonscalar_ptr_iterator_tag@0@AAVconst_iterator@?$vector@EV?$allocator@E@std@@@0@AAPAE@Z PROC NEAR ; std::_Ptr_cat<std::vector<unsigned char,std::allocator<unsigned char> >::const_iterator,unsigned char *>, COMDAT

; 211  : 	{	// return pointer category from arbitrary arguments

  00000	51		 push	 ecx

; 212  : 	_Nonscalar_ptr_iterator_tag _Cat;
; 213  : 	return (_Cat);

  00001	8a 44 24 03	 mov	 al, BYTE PTR __Cat$[esp+4]

; 214  : 	}

  00005	59		 pop	 ecx
  00006	c3		 ret	 0
??$_Ptr_cat@Vconst_iterator@?$vector@EV?$allocator@E@std@@@std@@PAE@std@@YA?AU_Nonscalar_ptr_iterator_tag@0@AAVconst_iterator@?$vector@EV?$allocator@E@std@@@0@AAPAE@Z ENDP ; std::_Ptr_cat<std::vector<unsigned char,std::allocator<unsigned char> >::const_iterator,unsigned char *>
_TEXT	ENDS
PUBLIC	??$fill_n@PAEIE@std@@YAXPAEIABE@Z		; std::fill_n<unsigned char *,unsigned int,unsigned char>
; Function compile flags: /Ogty
;	COMDAT ??$fill_n@PAEIE@std@@YAXPAEIABE@Z
_TEXT	SEGMENT
__First$ = 8						; size = 4
__Count$ = 12						; size = 4
__Val$ = 16						; size = 4
??$fill_n@PAEIE@std@@YAXPAEIABE@Z PROC NEAR		; std::fill_n<unsigned char *,unsigned int,unsigned char>, COMDAT

; 1160 : 	for (; 0 < _Count; --_Count, ++_First)

  00000	8b 4c 24 08	 mov	 ecx, DWORD PTR __Count$[esp-4]
  00004	85 c9		 test	 ecx, ecx
  00006	76 12		 jbe	 SHORT $L188920
  00008	8b 44 24 04	 mov	 eax, DWORD PTR __First$[esp-4]
  0000c	56		 push	 esi
  0000d	8b 74 24 10	 mov	 esi, DWORD PTR __Val$[esp]
$L188918:

; 1161 : 		*_First = _Val;

  00011	8a 16		 mov	 dl, BYTE PTR [esi]
  00013	88 10		 mov	 BYTE PTR [eax], dl
  00015	40		 inc	 eax
  00016	49		 dec	 ecx
  00017	75 f8		 jne	 SHORT $L188918
  00019	5e		 pop	 esi
$L188920:

; 1162 : 	}

  0001a	c3		 ret	 0
??$fill_n@PAEIE@std@@YAXPAEIABE@Z ENDP			; std::fill_n<unsigned char *,unsigned int,unsigned char>
_TEXT	ENDS
PUBLIC	??$_Uninit_copy@EE@std@@YAPAEPAE00AAV?$allocator@E@0@U_Scalar_ptr_iterator_tag@0@@Z ; std::_Uninit_copy<unsigned char,unsigned char>
; Function compile flags: /Ogty
; File c:\program files\microsoft visual studio .net 2003\vc7\include\memory
;	COMDAT ??$_Uninit_copy@EE@std@@YAPAEPAE00AAV?$allocator@E@0@U_Scalar_ptr_iterator_tag@0@@Z
_TEXT	SEGMENT
__First$ = 8						; size = 4
__Last$ = 12						; size = 4
__Dest$ = 16						; size = 4
___formal$ = 20						; size = 4
___formal$ = 24						; size = 1
??$_Uninit_copy@EE@std@@YAPAEPAE00AAV?$allocator@E@0@U_Scalar_ptr_iterator_tag@0@@Z PROC NEAR ; std::_Uninit_copy<unsigned char,unsigned char>, COMDAT

; 106  : 	size_t _Count = (size_t)(_Last - _First);

  00000	8b 44 24 04	 mov	 eax, DWORD PTR __First$[esp-4]
  00004	56		 push	 esi
  00005	8b 74 24 0c	 mov	 esi, DWORD PTR __Last$[esp]
  00009	2b f0		 sub	 esi, eax

; 107  : 	return ((_Ty2 *)memmove(&*_Dest, &*_First,
; 108  : 		_Count * sizeof (*_First)) + _Count);	// NB: non-overlapping move

  0000b	56		 push	 esi
  0000c	50		 push	 eax
  0000d	8b 44 24 18	 mov	 eax, DWORD PTR __Dest$[esp+8]
  00011	50		 push	 eax
  00012	e8 00 00 00 00	 call	 _memmove
  00017	83 c4 0c	 add	 esp, 12			; 0000000cH
  0001a	03 c6		 add	 eax, esi
  0001c	5e		 pop	 esi

; 109  : 	}

  0001d	c3		 ret	 0
??$_Uninit_copy@EE@std@@YAPAEPAE00AAV?$allocator@E@0@U_Scalar_ptr_iterator_tag@0@@Z ENDP ; std::_Uninit_copy<unsigned char,unsigned char>
_TEXT	ENDS
PUBLIC	??Dconst_iterator@?$vector@V?$basic_string@DU?$char_traits@D@std@@V?$allocator@D@2@@std@@V?$allocator@V?$basic_string@DU?$char_traits@D@std@@V?$allocator@D@2@@std@@@2@@std@@QBEABV?$basic_string@DU?$char_traits@D@std@@V?$allocator@D@2@@2@XZ ; std::vector<std::basic_string<char,std::char_traits<char>,std::allocator<char> >,std::allocator<std::basic_string<char,std::char_traits<char>,std::allocator<char> > > >::const_iterator::operator*
; Function compile flags: /Ogty
; File c:\program files\microsoft visual studio .net 2003\vc7\include\vector
;	COMDAT ??Dconst_iterator@?$vector@V?$basic_string@DU?$char_traits@D@std@@V?$allocator@D@2@@std@@V?$allocator@V?$basic_string@DU?$char_traits@D@std@@V?$allocator@D@2@@std@@@2@@std@@QBEABV?$basic_string@DU?$char_traits@D@std@@V?$allocator@D@2@@2@XZ
_TEXT	SEGMENT
??Dconst_iterator@?$vector@V?$basic_string@DU?$char_traits@D@std@@V?$allocator@D@2@@std@@V?$allocator@V?$basic_string@DU?$char_traits@D@std@@V?$allocator@D@2@@std@@@2@@std@@QBEABV?$basic_string@DU?$char_traits@D@std@@V?$allocator@D@2@@2@XZ PROC NEAR ; std::vector<std::basic_string<char,std::char_traits<char>,std::allocator<char> >,std::allocator<std::basic_string<char,std::char_traits<char>,std::allocator<char> > > >::const_iterator::operator*, COMDAT
; _this$ = ecx

; 80   : 
; 81   : 
; 82   : 			return (*_Myptr);

  00000	8b 01		 mov	 eax, DWORD PTR [ecx]

; 83   : 			}

  00002	c3		 ret	 0
??Dconst_iterator@?$vector@V?$basic_string@DU?$char_traits@D@std@@V?$allocator@D@2@@std@@V?$allocator@V?$basic_string@DU?$char_traits@D@std@@V?$allocator@D@2@@std@@@2@@std@@QBEABV?$basic_string@DU?$char_traits@D@std@@V?$allocator@D@2@@2@XZ ENDP ; std::vector<std::basic_string<char,std::char_traits<char>,std::allocator<char> >,std::allocator<std::basic_string<char,std::char_traits<char>,std::allocator<char> > > >::const_iterator::operator*
_TEXT	ENDS
PUBLIC	??Econst_iterator@?$vector@V?$basic_string@DU?$char_traits@D@std@@V?$allocator@D@2@@std@@V?$allocator@V?$basic_string@DU?$char_traits@D@std@@V?$allocator@D@2@@std@@@2@@std@@QAEAAV012@XZ ; std::vector<std::basic_string<char,std::char_traits<char>,std::allocator<char> >,std::allocator<std::basic_string<char,std::char_traits<char>,std::allocator<char> > > >::const_iterator::operator++
; Function compile flags: /Ogty
;	COMDAT ??Econst_iterator@?$vector@V?$basic_string@DU?$char_traits@D@std@@V?$allocator@D@2@@std@@V?$allocator@V?$basic_string@DU?$char_traits@D@std@@V?$allocator@D@2@@std@@@2@@std@@QAEAAV012@XZ
_TEXT	SEGMENT
??Econst_iterator@?$vector@V?$basic_string@DU?$char_traits@D@std@@V?$allocator@D@2@@std@@V?$allocator@V?$basic_string@DU?$char_traits@D@std@@V?$allocator@D@2@@std@@@2@@std@@QAEAAV012@XZ PROC NEAR ; std::vector<std::basic_string<char,std::char_traits<char>,std::allocator<char> >,std::allocator<std::basic_string<char,std::char_traits<char>,std::allocator<char> > > >::const_iterator::operator++, COMDAT
; _this$ = ecx

; 91   : 			{	// preincrement

  00000	8b c1		 mov	 eax, ecx

; 92   : 			++_Myptr;

  00002	83 00 1c	 add	 DWORD PTR [eax], 28	; 0000001cH

; 93   : 			return (*this);
; 94   : 			}

  00005	c3		 ret	 0
??Econst_iterator@?$vector@V?$basic_string@DU?$char_traits@D@std@@V?$allocator@D@2@@std@@V?$allocator@V?$basic_string@DU?$char_traits@D@std@@V?$allocator@D@2@@std@@@2@@std@@QAEAAV012@XZ ENDP ; std::vector<std::basic_string<char,std::char_traits<char>,std::allocator<char> >,std::allocator<std::basic_string<char,std::char_traits<char>,std::allocator<char> > > >::const_iterator::operator++
_TEXT	ENDS
PUBLIC	??Dconst_iterator@?$vector@EV?$allocator@E@std@@@std@@QBEABEXZ ; std::vector<unsigned char,std::allocator<unsigned char> >::const_iterator::operator*
; Function compile flags: /Ogty
;	COMDAT ??Dconst_iterator@?$vector@EV?$allocator@E@std@@@std@@QBEABEXZ
_TEXT	SEGMENT
??Dconst_iterator@?$vector@EV?$allocator@E@std@@@std@@QBEABEXZ PROC NEAR ; std::vector<unsigned char,std::allocator<unsigned char> >::const_iterator::operator*, COMDAT
; _this$ = ecx

; 80   : 
; 81   : 
; 82   : 			return (*_Myptr);

  00000	8b 01		 mov	 eax, DWORD PTR [ecx]

; 83   : 			}

  00002	c3		 ret	 0
??Dconst_iterator@?$vector@EV?$allocator@E@std@@@std@@QBEABEXZ ENDP ; std::vector<unsigned char,std::allocator<unsigned char> >::const_iterator::operator*
_TEXT	ENDS
PUBLIC	??Econst_iterator@?$vector@EV?$allocator@E@std@@@std@@QAEAAV012@XZ ; std::vector<unsigned char,std::allocator<unsigned char> >::const_iterator::operator++
; Function compile flags: /Ogty
;	COMDAT ??Econst_iterator@?$vector@EV?$allocator@E@std@@@std@@QAEAAV012@XZ
_TEXT	SEGMENT
??Econst_iterator@?$vector@EV?$allocator@E@std@@@std@@QAEAAV012@XZ PROC NEAR ; std::vector<unsigned char,std::allocator<unsigned char> >::const_iterator::operator++, COMDAT
; _this$ = ecx

; 91   : 			{	// preincrement

  00000	8b c1		 mov	 eax, ecx

; 92   : 			++_Myptr;

  00002	ff 00		 inc	 DWORD PTR [eax]

; 93   : 			return (*this);
; 94   : 			}

  00004	c3		 ret	 0
??Econst_iterator@?$vector@EV?$allocator@E@std@@@std@@QAEAAV012@XZ ENDP ; std::vector<unsigned char,std::allocator<unsigned char> >::const_iterator::operator++
_TEXT	ENDS
PUBLIC	??8const_iterator@?$vector@V?$basic_string@DU?$char_traits@D@std@@V?$allocator@D@2@@std@@V?$allocator@V?$basic_string@DU?$char_traits@D@std@@V?$allocator@D@2@@std@@@2@@std@@QBE_NABV012@@Z ; std::vector<std::basic_string<char,std::char_traits<char>,std::allocator<char> >,std::allocator<std::basic_string<char,std::char_traits<char>,std::allocator<char> > > >::const_iterator::operator==
; Function compile flags: /Ogty
;	COMDAT ??8const_iterator@?$vector@V?$basic_string@DU?$char_traits@D@std@@V?$allocator@D@2@@std@@V?$allocator@V?$basic_string@DU?$char_traits@D@std@@V?$allocator@D@2@@std@@@2@@std@@QBE_NABV012@@Z
_TEXT	SEGMENT
__Right$ = 8						; size = 4
??8const_iterator@?$vector@V?$basic_string@DU?$char_traits@D@std@@V?$allocator@D@2@@std@@V?$allocator@V?$basic_string@DU?$char_traits@D@std@@V?$allocator@D@2@@std@@@2@@std@@QBE_NABV012@@Z PROC NEAR ; std::vector<std::basic_string<char,std::char_traits<char>,std::allocator<char> >,std::allocator<std::basic_string<char,std::char_traits<char>,std::allocator<char> > > >::const_iterator::operator==, COMDAT
; _this$ = ecx

; 153  : 
; 154  : 
; 155  : 			return (_Myptr == _Right._Myptr);

  00000	8b 01		 mov	 eax, DWORD PTR [ecx]
  00002	8b 4c 24 04	 mov	 ecx, DWORD PTR __Right$[esp-4]
  00006	2b 01		 sub	 eax, DWORD PTR [ecx]
  00008	f7 d8		 neg	 eax
  0000a	1b c0		 sbb	 eax, eax
  0000c	40		 inc	 eax

; 156  : 			}

  0000d	c2 04 00	 ret	 4
??8const_iterator@?$vector@V?$basic_string@DU?$char_traits@D@std@@V?$allocator@D@2@@std@@V?$allocator@V?$basic_string@DU?$char_traits@D@std@@V?$allocator@D@2@@std@@@2@@std@@QBE_NABV012@@Z ENDP ; std::vector<std::basic_string<char,std::char_traits<char>,std::allocator<char> >,std::allocator<std::basic_string<char,std::char_traits<char>,std::allocator<char> > > >::const_iterator::operator==
_TEXT	ENDS
PUBLIC	??8const_iterator@?$vector@EV?$allocator@E@std@@@std@@QBE_NABV012@@Z ; std::vector<unsigned char,std::allocator<unsigned char> >::const_iterator::operator==
; Function compile flags: /Ogty
;	COMDAT ??8const_iterator@?$vector@EV?$allocator@E@std@@@std@@QBE_NABV012@@Z
_TEXT	SEGMENT
__Right$ = 8						; size = 4
??8const_iterator@?$vector@EV?$allocator@E@std@@@std@@QBE_NABV012@@Z PROC NEAR ; std::vector<unsigned char,std::allocator<unsigned char> >::const_iterator::operator==, COMDAT
; _this$ = ecx

; 153  : 
; 154  : 
; 155  : 			return (_Myptr == _Right._Myptr);

  00000	8b 01		 mov	 eax, DWORD PTR [ecx]
  00002	8b 4c 24 04	 mov	 ecx, DWORD PTR __Right$[esp-4]
  00006	2b 01		 sub	 eax, DWORD PTR [ecx]
  00008	f7 d8		 neg	 eax
  0000a	1b c0		 sbb	 eax, eax
  0000c	40		 inc	 eax

; 156  : 			}

  0000d	c2 04 00	 ret	 4
??8const_iterator@?$vector@EV?$allocator@E@std@@@std@@QBE_NABV012@@Z ENDP ; std::vector<unsigned char,std::allocator<unsigned char> >::const_iterator::operator==
_TEXT	ENDS
PUBLIC	??$_Construct@EE@std@@YAXPAEABE@Z		; std::_Construct<unsigned char,unsigned char>
; Function compile flags: /Ogty
; File c:\program files\microsoft visual studio .net 2003\vc7\include\xmemory
;	COMDAT ??$_Construct@EE@std@@YAXPAEABE@Z
_TEXT	SEGMENT
__Ptr$ = 8						; size = 4
__Val$ = 12						; size = 4
??$_Construct@EE@std@@YAXPAEABE@Z PROC NEAR		; std::_Construct<unsigned char,unsigned char>, COMDAT

; 42   : 	new ((void _FARQ *)_Ptr) _T1(_Val);

  00000	8b 44 24 04	 mov	 eax, DWORD PTR __Ptr$[esp-4]
  00004	85 c0		 test	 eax, eax
  00006	74 08		 je	 SHORT $L189563
  00008	8b 4c 24 08	 mov	 ecx, DWORD PTR __Val$[esp-4]
  0000c	8a 11		 mov	 dl, BYTE PTR [ecx]
  0000e	88 10		 mov	 BYTE PTR [eax], dl
$L189563:

; 43   : 	}

  00010	c3		 ret	 0
??$_Construct@EE@std@@YAXPAEABE@Z ENDP			; std::_Construct<unsigned char,unsigned char>
_TEXT	ENDS
PUBLIC	??$_Destroy@E@std@@YAXPAE@Z			; std::_Destroy<unsigned char>
; Function compile flags: /Ogty
;	COMDAT ??$_Destroy@E@std@@YAXPAE@Z
_TEXT	SEGMENT
__Ptr$ = 8						; size = 4
??$_Destroy@E@std@@YAXPAE@Z PROC NEAR			; std::_Destroy<unsigned char>, COMDAT

; 49   : 	_DESTRUCTOR(_Ty, _Ptr);
; 50   : 	}

  00000	c3		 ret	 0
??$_Destroy@E@std@@YAXPAE@Z ENDP			; std::_Destroy<unsigned char>
_TEXT	ENDS
PUBLIC	?assign@?$char_traits@D@std@@SAXAADABD@Z	; std::char_traits<char>::assign
; Function compile flags: /Ogty
; File c:\program files\microsoft visual studio .net 2003\vc7\include\iosfwd
;	COMDAT ?assign@?$char_traits@D@std@@SAXAADABD@Z
_TEXT	SEGMENT
__Left$ = 8						; size = 4
__Right$ = 12						; size = 4
?assign@?$char_traits@D@std@@SAXAADABD@Z PROC NEAR	; std::char_traits<char>::assign, COMDAT

; 331  : 		_Left = _Right;

  00000	8b 44 24 08	 mov	 eax, DWORD PTR __Right$[esp-4]
  00004	8a 08		 mov	 cl, BYTE PTR [eax]
  00006	8b 54 24 04	 mov	 edx, DWORD PTR __Left$[esp-4]
  0000a	88 0a		 mov	 BYTE PTR [edx], cl

; 332  : 		}

  0000c	c3		 ret	 0
?assign@?$char_traits@D@std@@SAXAADABD@Z ENDP		; std::char_traits<char>::assign
_TEXT	ENDS
PUBLIC	?length@?$char_traits@D@std@@SAIPBD@Z		; std::char_traits<char>::length
; Function compile flags: /Ogty
;	COMDAT ?length@?$char_traits@D@std@@SAIPBD@Z
_TEXT	SEGMENT
__First$ = 8						; size = 4
?length@?$char_traits@D@std@@SAIPBD@Z PROC NEAR		; std::char_traits<char>::length, COMDAT

; 352  : 		return (::strlen(_First));

  00000	8b 44 24 04	 mov	 eax, DWORD PTR __First$[esp-4]
  00004	8d 50 01	 lea	 edx, DWORD PTR [eax+1]
$L189574:
  00007	8a 08		 mov	 cl, BYTE PTR [eax]
  00009	40		 inc	 eax
  0000a	84 c9		 test	 cl, cl
  0000c	75 f9		 jne	 SHORT $L189574
  0000e	2b c2		 sub	 eax, edx

; 353  : 		}

  00010	c3		 ret	 0
?length@?$char_traits@D@std@@SAIPBD@Z ENDP		; std::char_traits<char>::length
_TEXT	ENDS
PUBLIC	?copy@?$char_traits@D@std@@SAPADPADPBDI@Z	; std::char_traits<char>::copy
; Function compile flags: /Ogty
;	COMDAT ?copy@?$char_traits@D@std@@SAPADPADPBDI@Z
_TEXT	SEGMENT
__First1$ = 8						; size = 4
__First2$ = 12						; size = 4
__Count$ = 16						; size = 4
?copy@?$char_traits@D@std@@SAPADPADPBDI@Z PROC NEAR	; std::char_traits<char>::copy, COMDAT

; 358  : 		return ((_Elem *)::memcpy(_First1, _First2, _Count));

  00000	8b 4c 24 0c	 mov	 ecx, DWORD PTR __Count$[esp-4]
  00004	56		 push	 esi
  00005	8b 74 24 0c	 mov	 esi, DWORD PTR __First2$[esp]
  00009	57		 push	 edi
  0000a	8b 7c 24 0c	 mov	 edi, DWORD PTR __First1$[esp+4]
  0000e	8b c1		 mov	 eax, ecx
  00010	8b d7		 mov	 edx, edi
  00012	c1 e9 02	 shr	 ecx, 2
  00015	f3 a5		 rep movsd
  00017	8b c8		 mov	 ecx, eax
  00019	83 e1 03	 and	 ecx, 3
  0001c	f3 a4		 rep movsb
  0001e	5f		 pop	 edi
  0001f	8b c2		 mov	 eax, edx
  00021	5e		 pop	 esi

; 359  : 		}

  00022	c3		 ret	 0
?copy@?$char_traits@D@std@@SAPADPADPBDI@Z ENDP		; std::char_traits<char>::copy
_TEXT	ENDS
PUBLIC	?move@?$char_traits@D@std@@SAPADPADPBDI@Z	; std::char_traits<char>::move
; Function compile flags: /Ogty
;	COMDAT ?move@?$char_traits@D@std@@SAPADPADPBDI@Z
_TEXT	SEGMENT
__First1$ = 8						; size = 4
__First2$ = 12						; size = 4
__Count$ = 16						; size = 4
?move@?$char_traits@D@std@@SAPADPADPBDI@Z PROC NEAR	; std::char_traits<char>::move, COMDAT

; 370  : 		return ((_Elem *)::memmove(_First1, _First2, _Count));

  00000	e9 00 00 00 00	 jmp	 _memmove
?move@?$char_traits@D@std@@SAPADPADPBDI@Z ENDP		; std::char_traits<char>::move
_TEXT	ENDS
PUBLIC	?_Ptr_cat@std@@YA?AU_Scalar_ptr_iterator_tag@1@PAE0@Z ; std::_Ptr_cat
; Function compile flags: /Ogty
; File c:\program files\microsoft visual studio .net 2003\vc7\include\xutility
;	COMDAT ?_Ptr_cat@std@@YA?AU_Scalar_ptr_iterator_tag@1@PAE0@Z
_TEXT	SEGMENT
__Cat$ = -1						; size = 1
___formal$ = 8						; size = 4
___formal$ = 12						; size = 4
?_Ptr_cat@std@@YA?AU_Scalar_ptr_iterator_tag@1@PAE0@Z PROC NEAR ; std::_Ptr_cat, COMDAT

; 282  : 	{	// return pointer category from pointer to unsigned char arguments

  00000	51		 push	 ecx

; 283  : 	_Scalar_ptr_iterator_tag _Cat;
; 284  : 	return (_Cat);

  00001	8a 44 24 03	 mov	 al, BYTE PTR __Cat$[esp+4]

; 285  : 	}

  00005	59		 pop	 ecx
  00006	c3		 ret	 0
?_Ptr_cat@std@@YA?AU_Scalar_ptr_iterator_tag@1@PAE0@Z ENDP ; std::_Ptr_cat
_TEXT	ENDS
PUBLIC	??0CMclCritSec@@QAE@XZ				; CMclCritSec::CMclCritSec
PUBLIC	??_7CMclCritSec@@6B@				; CMclCritSec::`vftable'
PUBLIC	??_GCMclCritSec@@UAEPAXI@Z			; CMclCritSec::`scalar deleting destructor'
EXTRN	??_ECMclCritSec@@UAEPAXI@Z:NEAR			; CMclCritSec::`vector deleting destructor'
EXTRN	__imp__InitializeCriticalSection@4:NEAR
;	COMDAT ??_7CMclCritSec@@6B@
; File c:\documents and settings\test\mes documents\source\virtuos_v17\build\program\_network\mcl\include\cmclcritsec.h
CONST	SEGMENT
??_7CMclCritSec@@6B@ DD FLAT:??_ECMclCritSec@@UAEPAXI@Z	; CMclCritSec::`vftable'
; Function compile flags: /Ogty
CONST	ENDS
;	COMDAT ??0CMclCritSec@@QAE@XZ
_TEXT	SEGMENT
??0CMclCritSec@@QAE@XZ PROC NEAR			; CMclCritSec::CMclCritSec, COMDAT
; _this$ = ecx

; 19   :     CMclCritSec(void)

  00000	56		 push	 esi
  00001	8b f1		 mov	 esi, ecx

; 20   :     {
; 21   : 		::InitializeCriticalSection( &m_CritSec );

  00003	8d 46 04	 lea	 eax, DWORD PTR [esi+4]
  00006	50		 push	 eax
  00007	c7 06 00 00 00
	00		 mov	 DWORD PTR [esi], OFFSET FLAT:??_7CMclCritSec@@6B@
  0000d	ff 15 00 00 00
	00		 call	 DWORD PTR __imp__InitializeCriticalSection@4

; 22   : 	}

  00013	8b c6		 mov	 eax, esi
  00015	5e		 pop	 esi
  00016	c3		 ret	 0
??0CMclCritSec@@QAE@XZ ENDP				; CMclCritSec::CMclCritSec
_TEXT	ENDS
PUBLIC	??1CMclCritSec@@UAE@XZ				; CMclCritSec::~CMclCritSec
EXTRN	__imp__DeleteCriticalSection@4:NEAR
; Function compile flags: /Ogty
;	COMDAT ??1CMclCritSec@@UAE@XZ
_TEXT	SEGMENT
??1CMclCritSec@@UAE@XZ PROC NEAR			; CMclCritSec::~CMclCritSec, COMDAT
; _this$ = ecx

; 26   : 	{

  00000	c7 01 00 00 00
	00		 mov	 DWORD PTR [ecx], OFFSET FLAT:??_7CMclCritSec@@6B@

; 27   : 		::DeleteCriticalSection( &m_CritSec );

  00006	83 c1 04	 add	 ecx, 4
  00009	51		 push	 ecx
  0000a	ff 15 00 00 00
	00		 call	 DWORD PTR __imp__DeleteCriticalSection@4

; 28   : 	}

  00010	c3		 ret	 0
??1CMclCritSec@@UAE@XZ ENDP				; CMclCritSec::~CMclCritSec
; Function compile flags: /Ogty
_TEXT	ENDS
;	COMDAT ??_GCMclCritSec@@UAEPAXI@Z
_TEXT	SEGMENT
___flags$ = 8						; size = 4
??_GCMclCritSec@@UAEPAXI@Z PROC NEAR			; CMclCritSec::`scalar deleting destructor', COMDAT
; _this$ = ecx
  00000	56		 push	 esi
  00001	8b f1		 mov	 esi, ecx
  00003	8d 46 04	 lea	 eax, DWORD PTR [esi+4]
  00006	50		 push	 eax
  00007	c7 06 00 00 00
	00		 mov	 DWORD PTR [esi], OFFSET FLAT:??_7CMclCritSec@@6B@
  0000d	ff 15 00 00 00
	00		 call	 DWORD PTR __imp__DeleteCriticalSection@4
  00013	f6 44 24 08 01	 test	 BYTE PTR ___flags$[esp], 1
  00018	74 09		 je	 SHORT $L189591
  0001a	56		 push	 esi
  0001b	e8 00 00 00 00	 call	 ??3@YAXPAX@Z		; operator delete
  00020	83 c4 04	 add	 esp, 4
$L189591:
  00023	8b c6		 mov	 eax, esi
  00025	5e		 pop	 esi
  00026	c2 04 00	 ret	 4
??_GCMclCritSec@@UAEPAXI@Z ENDP				; CMclCritSec::`scalar deleting destructor'
_TEXT	ENDS
PUBLIC	?GetLuaState@CLuaBase@@QAEPAUlua_State@@XZ	; CLuaBase::GetLuaState
; Function compile flags: /Ogty
; File c:\documents and settings\test\mes documents\source\virtuos_v17\build\program\_common\luabase.h
;	COMDAT ?GetLuaState@CLuaBase@@QAEPAUlua_State@@XZ
_TEXT	SEGMENT
?GetLuaState@CLuaBase@@QAEPAUlua_State@@XZ PROC NEAR	; CLuaBase::GetLuaState, COMDAT
; _this$ = ecx

; 29   : 	lua_State*	GetLuaState()								{  return m_pLuaState;  }

  00000	8b 41 04	 mov	 eax, DWORD PTR [ecx+4]
  00003	c3		 ret	 0
?GetLuaState@CLuaBase@@QAEPAUlua_State@@XZ ENDP		; CLuaBase::GetLuaState
_TEXT	ENDS
PUBLIC	?IsNil@CLuaBase@@QAEHH@Z			; CLuaBase::IsNil
EXTRN	_lua_type:NEAR
; Function compile flags: /Ogty
;	COMDAT ?IsNil@CLuaBase@@QAEHH@Z
_TEXT	SEGMENT
_nStackPos$ = 8						; size = 4
?IsNil@CLuaBase@@QAEHH@Z PROC NEAR			; CLuaBase::IsNil, COMDAT
; _this$ = ecx

; 33   : 	BOOL		IsNil( int nStackPos )						{  return lua_isnil( m_pLuaState, nStackPos );  }

  00000	8b 44 24 04	 mov	 eax, DWORD PTR _nStackPos$[esp-4]
  00004	8b 49 04	 mov	 ecx, DWORD PTR [ecx+4]
  00007	50		 push	 eax
  00008	51		 push	 ecx
  00009	e8 00 00 00 00	 call	 _lua_type
  0000e	83 c4 08	 add	 esp, 8
  00011	f7 d8		 neg	 eax
  00013	1b c0		 sbb	 eax, eax
  00015	40		 inc	 eax
  00016	c2 04 00	 ret	 4
?IsNil@CLuaBase@@QAEHH@Z ENDP				; CLuaBase::IsNil
_TEXT	ENDS
PUBLIC	?PushNil@CLuaBase@@QAEXXZ			; CLuaBase::PushNil
EXTRN	_lua_pushnil:NEAR
; Function compile flags: /Ogty
;	COMDAT ?PushNil@CLuaBase@@QAEXXZ
_TEXT	SEGMENT
?PushNil@CLuaBase@@QAEXXZ PROC NEAR			; CLuaBase::PushNil, COMDAT
; _this$ = ecx

; 40   : 	void		PushNil()									{  lua_pushnil( m_pLuaState );  }

  00000	8b 41 04	 mov	 eax, DWORD PTR [ecx+4]
  00003	50		 push	 eax
  00004	e8 00 00 00 00	 call	 _lua_pushnil
  00009	59		 pop	 ecx
  0000a	c3		 ret	 0
?PushNil@CLuaBase@@QAEXXZ ENDP				; CLuaBase::PushNil
_TEXT	ENDS
PUBLIC	?ToNumber@CLuaBase@@QAENH@Z			; CLuaBase::ToNumber
EXTRN	__fltused:NEAR
EXTRN	_lua_tonumber:NEAR
; Function compile flags: /Ogty
;	COMDAT ?ToNumber@CLuaBase@@QAENH@Z
_TEXT	SEGMENT
_nStackPos$ = 8						; size = 4
?ToNumber@CLuaBase@@QAENH@Z PROC NEAR			; CLuaBase::ToNumber, COMDAT
; _this$ = ecx

; 43   : 	double		ToNumber( int nStackPos )					{  return lua_tonumber( m_pLuaState, nStackPos );  }

  00000	8b 44 24 04	 mov	 eax, DWORD PTR _nStackPos$[esp-4]
  00004	8b 49 04	 mov	 ecx, DWORD PTR [ecx+4]
  00007	50		 push	 eax
  00008	51		 push	 ecx
  00009	e8 00 00 00 00	 call	 _lua_tonumber
  0000e	83 c4 08	 add	 esp, 8
  00011	c2 04 00	 ret	 4
?ToNumber@CLuaBase@@QAENH@Z ENDP			; CLuaBase::ToNumber
_TEXT	ENDS
PUBLIC	?ToString@CLuaBase@@QAEPBDH@Z			; CLuaBase::ToString
EXTRN	_lua_tolstring:NEAR
; Function compile flags: /Ogty
;	COMDAT ?ToString@CLuaBase@@QAEPBDH@Z
_TEXT	SEGMENT
_nStackPos$ = 8						; size = 4
?ToString@CLuaBase@@QAEPBDH@Z PROC NEAR			; CLuaBase::ToString, COMDAT
; _this$ = ecx

; 44   : 	const char*	ToString( int nStackPos )					{  return lua_tostring( m_pLuaState, nStackPos );  }

  00000	8b 44 24 04	 mov	 eax, DWORD PTR _nStackPos$[esp-4]
  00004	8b 49 04	 mov	 ecx, DWORD PTR [ecx+4]
  00007	6a 00		 push	 0
  00009	50		 push	 eax
  0000a	51		 push	 ecx
  0000b	e8 00 00 00 00	 call	 _lua_tolstring
  00010	83 c4 0c	 add	 esp, 12			; 0000000cH
  00013	c2 04 00	 ret	 4
?ToString@CLuaBase@@QAEPBDH@Z ENDP			; CLuaBase::ToString
_TEXT	ENDS
PUBLIC	?ToBool@CLuaBase@@QAEHH@Z			; CLuaBase::ToBool
EXTRN	_lua_toboolean:NEAR
; Function compile flags: /Ogty
;	COMDAT ?ToBool@CLuaBase@@QAEHH@Z
_TEXT	SEGMENT
_nStackPos$ = 8						; size = 4
?ToBool@CLuaBase@@QAEHH@Z PROC NEAR			; CLuaBase::ToBool, COMDAT
; _this$ = ecx

; 45   : 	BOOL		ToBool( int nStackPos )						{  return static_cast<BOOL>( lua_toboolean( m_pLuaState, nStackPos ) );  }

  00000	8b 44 24 04	 mov	 eax, DWORD PTR _nStackPos$[esp-4]
  00004	8b 49 04	 mov	 ecx, DWORD PTR [ecx+4]
  00007	50		 push	 eax
  00008	51		 push	 ecx
  00009	e8 00 00 00 00	 call	 _lua_toboolean
  0000e	83 c4 08	 add	 esp, 8
  00011	c2 04 00	 ret	 4
?ToBool@CLuaBase@@QAEHH@Z ENDP				; CLuaBase::ToBool
_TEXT	ENDS
PUBLIC	?TableLoop@CLuaBase@@QAEHH@Z			; CLuaBase::TableLoop
EXTRN	_lua_next:NEAR
; Function compile flags: /Ogty
;	COMDAT ?TableLoop@CLuaBase@@QAEHH@Z
_TEXT	SEGMENT
_nStackPos$ = 8						; size = 4
?TableLoop@CLuaBase@@QAEHH@Z PROC NEAR			; CLuaBase::TableLoop, COMDAT
; _this$ = ecx

; 46   : 	int			TableLoop( int nStackPos )					{  return lua_next( m_pLuaState, nStackPos );  }	

  00000	8b 44 24 04	 mov	 eax, DWORD PTR _nStackPos$[esp-4]
  00004	8b 49 04	 mov	 ecx, DWORD PTR [ecx+4]
  00007	50		 push	 eax
  00008	51		 push	 ecx
  00009	e8 00 00 00 00	 call	 _lua_next
  0000e	83 c4 08	 add	 esp, 8
  00011	c2 04 00	 ret	 4
?TableLoop@CLuaBase@@QAEHH@Z ENDP			; CLuaBase::TableLoop
_TEXT	ENDS
PUBLIC	?IsPossible@CEventLua@@QAEHXZ			; CEventLua::IsPossible
; Function compile flags: /Ogty
; File c:\documents and settings\test\mes documents\source\virtuos_v17\build\program\_common\eventlua.h
;	COMDAT ?IsPossible@CEventLua@@QAEHXZ
_TEXT	SEGMENT
?IsPossible@CEventLua@@QAEHXZ PROC NEAR			; CEventLua::IsPossible, COMDAT
; _this$ = ecx

; 139  : 	BOOL			IsPossible() { return m_bRun; }

  00000	8b 41 2c	 mov	 eax, DWORD PTR [ecx+44]
  00003	c3		 ret	 0
?IsPossible@CEventLua@@QAEHXZ ENDP			; CEventLua::IsPossible
_TEXT	ENDS
PUBLIC	?size@?$basic_string@DU?$char_traits@D@std@@V?$allocator@D@2@@std@@QBEIXZ ; std::basic_string<char,std::char_traits<char>,std::allocator<char> >::size
; Function compile flags: /Ogty
; File c:\program files\microsoft visual studio .net 2003\vc7\include\xstring
;	COMDAT ?size@?$basic_string@DU?$char_traits@D@std@@V?$allocator@D@2@@std@@QBEIXZ
_TEXT	SEGMENT
?size@?$basic_string@DU?$char_traits@D@std@@V?$allocator@D@2@@std@@QBEIXZ PROC NEAR ; std::basic_string<char,std::char_traits<char>,std::allocator<char> >::size, COMDAT
; _this$ = ecx

; 1109 : 		return (_Mysize);

  00000	8b 41 14	 mov	 eax, DWORD PTR [ecx+20]

; 1110 : 		}

  00003	c3		 ret	 0
?size@?$basic_string@DU?$char_traits@D@std@@V?$allocator@D@2@@std@@QBEIXZ ENDP ; std::basic_string<char,std::char_traits<char>,std::allocator<char> >::size
_TEXT	ENDS
PUBLIC	?_Myptr@?$basic_string@DU?$char_traits@D@std@@V?$allocator@D@2@@std@@QBEPBDXZ ; std::basic_string<char,std::char_traits<char>,std::allocator<char> >::_Myptr
; Function compile flags: /Ogty
;	COMDAT ?_Myptr@?$basic_string@DU?$char_traits@D@std@@V?$allocator@D@2@@std@@QBEPBDXZ
_TEXT	SEGMENT
?_Myptr@?$basic_string@DU?$char_traits@D@std@@V?$allocator@D@2@@std@@QBEPBDXZ PROC NEAR ; std::basic_string<char,std::char_traits<char>,std::allocator<char> >::_Myptr, COMDAT
; _this$ = ecx

; 1537 : 		return (_BUF_SIZE <= _Myres ? _Bx._Ptr : _Bx._Buf);

  00000	83 79 18 10	 cmp	 DWORD PTR [ecx+24], 16	; 00000010H
  00004	72 04		 jb	 SHORT $L189613
  00006	8b 41 04	 mov	 eax, DWORD PTR [ecx+4]

; 1538 : 		}

  00009	c3		 ret	 0
$L189613:

; 1537 : 		return (_BUF_SIZE <= _Myres ? _Bx._Ptr : _Bx._Buf);

  0000a	8d 41 04	 lea	 eax, DWORD PTR [ecx+4]

; 1538 : 		}

  0000d	c3		 ret	 0
?_Myptr@?$basic_string@DU?$char_traits@D@std@@V?$allocator@D@2@@std@@QBEPBDXZ ENDP ; std::basic_string<char,std::char_traits<char>,std::allocator<char> >::_Myptr
_TEXT	ENDS
PUBLIC	??0?$allocator@D@std@@QAE@XZ			; std::allocator<char>::allocator<char>
; Function compile flags: /Ogty
; File c:\program files\microsoft visual studio .net 2003\vc7\include\xmemory
;	COMDAT ??0?$allocator@D@std@@QAE@XZ
_TEXT	SEGMENT
??0?$allocator@D@std@@QAE@XZ PROC NEAR			; std::allocator<char>::allocator<char>, COMDAT
; _this$ = ecx

; 111  : 	allocator()

  00000	8b c1		 mov	 eax, ecx

; 112  : 		{	// construct default allocator (do nothing)
; 113  : 		}

  00002	c3		 ret	 0
??0?$allocator@D@std@@QAE@XZ ENDP			; std::allocator<char>::allocator<char>
_TEXT	ENDS
PUBLIC	??0?$allocator@D@std@@QAE@ABV01@@Z		; std::allocator<char>::allocator<char>
; Function compile flags: /Ogty
;	COMDAT ??0?$allocator@D@std@@QAE@ABV01@@Z
_TEXT	SEGMENT
___formal$ = 8						; size = 4
??0?$allocator@D@std@@QAE@ABV01@@Z PROC NEAR		; std::allocator<char>::allocator<char>, COMDAT
; _this$ = ecx

; 115  : 	allocator(const allocator<_Ty>&)

  00000	8b c1		 mov	 eax, ecx

; 116  : 		{	// construct by copying (do nothing)
; 117  : 		}

  00002	c2 04 00	 ret	 4
??0?$allocator@D@std@@QAE@ABV01@@Z ENDP			; std::allocator<char>::allocator<char>
_TEXT	ENDS
PUBLIC	?_Myptr@?$basic_string@DU?$char_traits@D@std@@V?$allocator@D@2@@std@@QAEPADXZ ; std::basic_string<char,std::char_traits<char>,std::allocator<char> >::_Myptr
; Function compile flags: /Ogty
; File c:\program files\microsoft visual studio .net 2003\vc7\include\xstring
;	COMDAT ?_Myptr@?$basic_string@DU?$char_traits@D@std@@V?$allocator@D@2@@std@@QAEPADXZ
_TEXT	SEGMENT
?_Myptr@?$basic_string@DU?$char_traits@D@std@@V?$allocator@D@2@@std@@QAEPADXZ PROC NEAR ; std::basic_string<char,std::char_traits<char>,std::allocator<char> >::_Myptr, COMDAT
; _this$ = ecx

; 1532 : 		return (_BUF_SIZE <= _Myres ? _Bx._Ptr : _Bx._Buf);

  00000	83 79 18 10	 cmp	 DWORD PTR [ecx+24], 16	; 00000010H
  00004	72 04		 jb	 SHORT $L189621
  00006	8b 41 04	 mov	 eax, DWORD PTR [ecx+4]

; 1533 : 		}

  00009	c3		 ret	 0
$L189621:

; 1532 : 		return (_BUF_SIZE <= _Myres ? _Bx._Ptr : _Bx._Buf);

  0000a	8d 41 04	 lea	 eax, DWORD PTR [ecx+4]

; 1533 : 		}

  0000d	c3		 ret	 0
?_Myptr@?$basic_string@DU?$char_traits@D@std@@V?$allocator@D@2@@std@@QAEPADXZ ENDP ; std::basic_string<char,std::char_traits<char>,std::allocator<char> >::_Myptr
_TEXT	ENDS
PUBLIC	?deallocate@?$allocator@D@std@@QAEXPADI@Z	; std::allocator<char>::deallocate
; Function compile flags: /Ogty
; File c:\program files\microsoft visual studio .net 2003\vc7\include\xmemory
;	COMDAT ?deallocate@?$allocator@D@std@@QAEXPADI@Z
_TEXT	SEGMENT
__Ptr$ = 8						; size = 4
___formal$ = 12						; size = 4
?deallocate@?$allocator@D@std@@QAEXPADI@Z PROC NEAR	; std::allocator<char>::deallocate, COMDAT
; _this$ = ecx

; 132  : 		operator delete(_Ptr);

  00000	8b 44 24 04	 mov	 eax, DWORD PTR __Ptr$[esp-4]
  00004	50		 push	 eax
  00005	e8 00 00 00 00	 call	 ??3@YAXPAX@Z		; operator delete
  0000a	59		 pop	 ecx

; 133  : 		}

  0000b	c2 08 00	 ret	 8
?deallocate@?$allocator@D@std@@QAEXPADI@Z ENDP		; std::allocator<char>::deallocate
_TEXT	ENDS
PUBLIC	?_Inside@?$basic_string@DU?$char_traits@D@std@@V?$allocator@D@2@@std@@IAE_NPBD@Z ; std::basic_string<char,std::char_traits<char>,std::allocator<char> >::_Inside
; Function compile flags: /Ogty
; File c:\program files\microsoft visual studio .net 2003\vc7\include\xstring
;	COMDAT ?_Inside@?$basic_string@DU?$char_traits@D@std@@V?$allocator@D@2@@std@@IAE_NPBD@Z
_TEXT	SEGMENT
__Ptr$ = 8						; size = 4
?_Inside@?$basic_string@DU?$char_traits@D@std@@V?$allocator@D@2@@std@@IAE_NPBD@Z PROC NEAR ; std::basic_string<char,std::char_traits<char>,std::allocator<char> >::_Inside, COMDAT
; _this$ = ecx

; 1494 : 		{	// test if _Ptr points inside string

  00000	56		 push	 esi

; 1495 : 		if (_Ptr < _Myptr() || _Myptr() + _Mysize <= _Ptr)

  00001	8b 71 18	 mov	 esi, DWORD PTR [ecx+24]
  00004	83 fe 10	 cmp	 esi, 16			; 00000010H
  00007	57		 push	 edi
  00008	8d 41 04	 lea	 eax, DWORD PTR [ecx+4]
  0000b	72 04		 jb	 SHORT $L189631
  0000d	8b 10		 mov	 edx, DWORD PTR [eax]
  0000f	eb 02		 jmp	 SHORT $L189632
$L189631:
  00011	8b d0		 mov	 edx, eax
$L189632:
  00013	8b 7c 24 0c	 mov	 edi, DWORD PTR __Ptr$[esp+4]
  00017	3b fa		 cmp	 edi, edx
  00019	72 17		 jb	 SHORT $L185560
  0001b	83 fe 10	 cmp	 esi, 16			; 00000010H
  0001e	72 02		 jb	 SHORT $L189639
  00020	8b 00		 mov	 eax, DWORD PTR [eax]
$L189639:
  00022	8b 49 14	 mov	 ecx, DWORD PTR [ecx+20]
  00025	03 c8		 add	 ecx, eax
  00027	3b cf		 cmp	 ecx, edi
  00029	76 07		 jbe	 SHORT $L185560
  0002b	5f		 pop	 edi

; 1497 : 		else
; 1498 : 			return (true);

  0002c	b0 01		 mov	 al, 1
  0002e	5e		 pop	 esi

; 1499 : 		}

  0002f	c2 04 00	 ret	 4
$L185560:
  00032	5f		 pop	 edi

; 1496 : 			return (false);	// don't ask

  00033	32 c0		 xor	 al, al
  00035	5e		 pop	 esi

; 1499 : 		}

  00036	c2 04 00	 ret	 4
?_Inside@?$basic_string@DU?$char_traits@D@std@@V?$allocator@D@2@@std@@IAE_NPBD@Z ENDP ; std::basic_string<char,std::char_traits<char>,std::allocator<char> >::_Inside
_TEXT	ENDS
PUBLIC	?max_size@?$allocator@D@std@@QBEIXZ		; std::allocator<char>::max_size
; Function compile flags: /Ogty
; File c:\program files\microsoft visual studio .net 2003\vc7\include\xmemory
;	COMDAT ?max_size@?$allocator@D@std@@QBEIXZ
_TEXT	SEGMENT
?max_size@?$allocator@D@std@@QBEIXZ PROC NEAR		; std::allocator<char>::max_size, COMDAT
; _this$ = ecx

; 157  : 		_SIZT _Count = (_SIZT)(-1) / sizeof (_Ty);
; 158  : 		return (0 < _Count ? _Count : 1);

  00000	83 c8 ff	 or	 eax, -1

; 159  : 		}

  00003	c3		 ret	 0
?max_size@?$allocator@D@std@@QBEIXZ ENDP		; std::allocator<char>::max_size
_TEXT	ENDS
PUBLIC	??$swap@D@std@@YAXAAD0@Z			; std::swap<char>
; Function compile flags: /Ogty
; File c:\program files\microsoft visual studio .net 2003\vc7\include\utility
;	COMDAT ??$swap@D@std@@YAXAAD0@Z
_TEXT	SEGMENT
__Left$ = 8						; size = 4
__Right$ = 12						; size = 4
??$swap@D@std@@YAXAAD0@Z PROC NEAR			; std::swap<char>, COMDAT

; 15   : 	_Ty _Tmp = _Left;

  00000	8b 44 24 04	 mov	 eax, DWORD PTR __Left$[esp-4]
  00004	8a 08		 mov	 cl, BYTE PTR [eax]
  00006	56		 push	 esi

; 16   : 	_Left = _Right, _Right = _Tmp;

  00007	8b 74 24 0c	 mov	 esi, DWORD PTR __Right$[esp]
  0000b	8a 16		 mov	 dl, BYTE PTR [esi]
  0000d	88 10		 mov	 BYTE PTR [eax], dl
  0000f	88 0e		 mov	 BYTE PTR [esi], cl
  00011	5e		 pop	 esi

; 17   : 	}

  00012	c3		 ret	 0
??$swap@D@std@@YAXAAD0@Z ENDP				; std::swap<char>
_TEXT	ENDS
PUBLIC	??$_Allocate@D@std@@YAPADIPAD@Z			; std::_Allocate<char>
; Function compile flags: /Ogty
; File c:\program files\microsoft visual studio .net 2003\vc7\include\xmemory
;	COMDAT ??$_Allocate@D@std@@YAPADIPAD@Z
_TEXT	SEGMENT
__Count$ = 8						; size = 4
___formal$ = 12						; size = 4
??$_Allocate@D@std@@YAPADIPAD@Z PROC NEAR		; std::_Allocate<char>, COMDAT

; 34   : 	return ((_Ty _FARQ *)operator new(_Count * sizeof (_Ty)));

  00000	8b 44 24 04	 mov	 eax, DWORD PTR __Count$[esp-4]
  00004	50		 push	 eax
  00005	e8 00 00 00 00	 call	 ??2@YAPAXI@Z		; operator new
  0000a	83 c4 04	 add	 esp, 4

; 35   : 	}

  0000d	c3		 ret	 0
??$_Allocate@D@std@@YAPADIPAD@Z ENDP			; std::_Allocate<char>
_TEXT	ENDS
PUBLIC	??_C@_0N@GOCBOLOF@IsNoticeTime?$AA@		; `string'
PUBLIC	?IsNoticeTime@CEventLua@@QAEHXZ			; CEventLua::IsNoticeTime
EXTRN	?Pop@CLuaBase@@QAEXH@Z:NEAR			; CLuaBase::Pop
EXTRN	?GetLuaFunction@CLuaBase@@QAEHPAD@Z:NEAR	; CLuaBase::GetLuaFunction
EXTRN	?CallLuaFunction@CLuaBase@@QAEXHH@Z:NEAR	; CLuaBase::CallLuaFunction
;	COMDAT ??_C@_0N@GOCBOLOF@IsNoticeTime?$AA@
; File c:\documents and settings\test\mes documents\source\virtuos_v17\build\program\_common\luabase.h
CONST	SEGMENT
??_C@_0N@GOCBOLOF@IsNoticeTime?$AA@ DB 'IsNoticeTime', 00H ; `string'
; Function compile flags: /Ogty
; File c:\documents and settings\test\mes documents\source\virtuos_v17\build\program\_common\eventlua.cpp
CONST	ENDS
;	COMDAT ?IsNoticeTime@CEventLua@@QAEHXZ
_TEXT	SEGMENT
?IsNoticeTime@CEventLua@@QAEHXZ PROC NEAR		; CEventLua::IsNoticeTime, COMDAT
; _this$ = ecx

; 59   : {

  00000	57		 push	 edi
  00001	8b f9		 mov	 edi, ecx

; 60   : 	if( !IsPossible() )

  00003	8b 47 2c	 mov	 eax, DWORD PTR [edi+44]
  00006	85 c0		 test	 eax, eax
  00008	75 04		 jne	 SHORT $L186713

; 61   : 		return FALSE;

  0000a	33 c0		 xor	 eax, eax
  0000c	5f		 pop	 edi

; 72   : }

  0000d	c3		 ret	 0
$L186713:
  0000e	53		 push	 ebx
  0000f	56		 push	 esi

; 62   : 
; 63   : 	BOOL bIsNoticeTime = FALSE;
; 64   : 	if( m_Lua.GetLuaFunction("IsNoticeTime") )

  00010	8d 77 30	 lea	 esi, DWORD PTR [edi+48]
  00013	68 00 00 00 00	 push	 OFFSET FLAT:??_C@_0N@GOCBOLOF@IsNoticeTime?$AA@
  00018	8b ce		 mov	 ecx, esi
  0001a	33 db		 xor	 ebx, ebx
  0001c	e8 00 00 00 00	 call	 ?GetLuaFunction@CLuaBase@@QAEHPAD@Z ; CLuaBase::GetLuaFunction
  00021	85 c0		 test	 eax, eax
  00023	74 1a		 je	 SHORT $L186715

; 65   : 	{
; 66   : 		m_Lua.CallLuaFunction( 0, 1 );

  00025	6a 01		 push	 1
  00027	53		 push	 ebx
  00028	8b ce		 mov	 ecx, esi
  0002a	e8 00 00 00 00	 call	 ?CallLuaFunction@CLuaBase@@QAEXHH@Z ; CLuaBase::CallLuaFunction

; 67   : 		bIsNoticeTime = static_cast<BOOL>( m_Lua.ToBool( -1 ) );

  0002f	8b 47 34	 mov	 eax, DWORD PTR [edi+52]
  00032	6a ff		 push	 -1
  00034	50		 push	 eax
  00035	e8 00 00 00 00	 call	 _lua_toboolean
  0003a	83 c4 08	 add	 esp, 8
  0003d	8b d8		 mov	 ebx, eax
$L186715:

; 68   : 	}
; 69   : 	m_Lua.Pop(0);

  0003f	6a 00		 push	 0
  00041	8b ce		 mov	 ecx, esi
  00043	e8 00 00 00 00	 call	 ?Pop@CLuaBase@@QAEXH@Z	; CLuaBase::Pop
  00048	5e		 pop	 esi

; 70   : 
; 71   : 	return bIsNoticeTime;

  00049	8b c3		 mov	 eax, ebx
  0004b	5b		 pop	 ebx
  0004c	5f		 pop	 edi

; 72   : }

  0004d	c3		 ret	 0
?IsNoticeTime@CEventLua@@QAEHXZ ENDP			; CEventLua::IsNoticeTime
_TEXT	ENDS
PUBLIC	?empty@?$_Tree@V?$_Tmap_traits@EHU?$less@E@std@@V?$allocator@U?$pair@$$CBEH@std@@@2@$0A@@std@@@std@@QBE_NXZ ; std::_Tree<std::_Tmap_traits<unsigned char,int,std::less<unsigned char>,std::allocator<std::pair<unsigned char const ,int> >,0> >::empty
; Function compile flags: /Ogty
; File c:\program files\microsoft visual studio .net 2003\vc7\include\xtree
;	COMDAT ?empty@?$_Tree@V?$_Tmap_traits@EHU?$less@E@std@@V?$allocator@U?$pair@$$CBEH@std@@@2@$0A@@std@@@std@@QBE_NXZ
_TEXT	SEGMENT
?empty@?$_Tree@V?$_Tmap_traits@EHU?$less@E@std@@V?$allocator@U?$pair@$$CBEH@std@@@2@$0A@@std@@@std@@QBE_NXZ PROC NEAR ; std::_Tree<std::_Tmap_traits<unsigned char,int,std::less<unsigned char>,std::allocator<std::pair<unsigned char const ,int> >,0> >::empty, COMDAT
; _this$ = ecx

; 458  : 		return (size() == 0);

  00000	8b 51 08	 mov	 edx, DWORD PTR [ecx+8]
  00003	33 c0		 xor	 eax, eax
  00005	85 d2		 test	 edx, edx
  00007	0f 94 c0	 sete	 al

; 459  : 		}

  0000a	c3		 ret	 0
?empty@?$_Tree@V?$_Tmap_traits@EHU?$less@E@std@@V?$allocator@U?$pair@$$CBEH@std@@@2@$0A@@std@@@std@@QBE_NXZ ENDP ; std::_Tree<std::_Tmap_traits<unsigned char,int,std::less<unsigned char>,std::allocator<std::pair<unsigned char const ,int> >,0> >::empty
_TEXT	ENDS
PUBLIC	?_Key@?$_Tree@V?$_Tmap_traits@EHU?$less@E@std@@V?$allocator@U?$pair@$$CBEH@std@@@2@$0A@@std@@@std@@KAABEPAU_Node@?$_Tree_nod@V?$_Tmap_traits@EHU?$less@E@std@@V?$allocator@U?$pair@$$CBEH@std@@@2@$0A@@std@@@2@@Z ; std::_Tree<std::_Tmap_traits<unsigned char,int,std::less<unsigned char>,std::allocator<std::pair<unsigned char const ,int> >,0> >::_Key
; Function compile flags: /Ogty
;	COMDAT ?_Key@?$_Tree@V?$_Tmap_traits@EHU?$less@E@std@@V?$allocator@U?$pair@$$CBEH@std@@@2@$0A@@std@@@std@@KAABEPAU_Node@?$_Tree_nod@V?$_Tmap_traits@EHU?$less@E@std@@V?$allocator@U?$pair@$$CBEH@std@@@2@$0A@@std@@@2@@Z
_TEXT	SEGMENT
__Pnode$ = 8						; size = 4
?_Key@?$_Tree@V?$_Tmap_traits@EHU?$less@E@std@@V?$allocator@U?$pair@$$CBEH@std@@@2@$0A@@std@@@std@@KAABEPAU_Node@?$_Tree_nod@V?$_Tmap_traits@EHU?$less@E@std@@V?$allocator@U?$pair@$$CBEH@std@@@2@$0A@@std@@@2@@Z PROC NEAR ; std::_Tree<std::_Tmap_traits<unsigned char,int,std::less<unsigned char>,std::allocator<std::pair<unsigned char const ,int> >,0> >::_Key, COMDAT

; 142  : 		return (_Mybase::_Kfn(_Myval(_Pnode)));

  00000	8b 44 24 04	 mov	 eax, DWORD PTR __Pnode$[esp-4]
  00004	83 c0 0c	 add	 eax, 12			; 0000000cH

; 143  : 		}

  00007	c3		 ret	 0
?_Key@?$_Tree@V?$_Tmap_traits@EHU?$less@E@std@@V?$allocator@U?$pair@$$CBEH@std@@@2@$0A@@std@@@std@@KAABEPAU_Node@?$_Tree_nod@V?$_Tmap_traits@EHU?$less@E@std@@V?$allocator@U?$pair@$$CBEH@std@@@2@$0A@@std@@@2@@Z ENDP ; std::_Tree<std::_Tmap_traits<unsigned char,int,std::less<unsigned char>,std::allocator<std::pair<unsigned char const ,int> >,0> >::_Key
_TEXT	ENDS
PUBLIC	?_Root@?$_Tree@V?$_Tmap_traits@EHU?$less@E@std@@V?$allocator@U?$pair@$$CBEH@std@@@2@$0A@@std@@@std@@IAEAAPAU_Node@?$_Tree_nod@V?$_Tmap_traits@EHU?$less@E@std@@V?$allocator@U?$pair@$$CBEH@std@@@2@$0A@@std@@@2@XZ ; std::_Tree<std::_Tmap_traits<unsigned char,int,std::less<unsigned char>,std::allocator<std::pair<unsigned char const ,int> >,0> >::_Root
; Function compile flags: /Ogty
;	COMDAT ?_Root@?$_Tree@V?$_Tmap_traits@EHU?$less@E@std@@V?$allocator@U?$pair@$$CBEH@std@@@2@$0A@@std@@@std@@IAEAAPAU_Node@?$_Tree_nod@V?$_Tmap_traits@EHU?$less@E@std@@V?$allocator@U?$pair@$$CBEH@std@@@2@$0A@@std@@@2@XZ
_TEXT	SEGMENT
?_Root@?$_Tree@V?$_Tmap_traits@EHU?$less@E@std@@V?$allocator@U?$pair@$$CBEH@std@@@2@$0A@@std@@@std@@IAEAAPAU_Node@?$_Tree_nod@V?$_Tmap_traits@EHU?$less@E@std@@V?$allocator@U?$pair@$$CBEH@std@@@2@$0A@@std@@@2@XZ PROC NEAR ; std::_Tree<std::_Tmap_traits<unsigned char,int,std::less<unsigned char>,std::allocator<std::pair<unsigned char const ,int> >,0> >::_Root, COMDAT
; _this$ = ecx

; 1059 : 		return (_Parent(_Myhead));

  00000	8b 41 04	 mov	 eax, DWORD PTR [ecx+4]
  00003	83 c0 04	 add	 eax, 4

; 1060 : 		}

  00006	c3		 ret	 0
?_Root@?$_Tree@V?$_Tmap_traits@EHU?$less@E@std@@V?$allocator@U?$pair@$$CBEH@std@@@2@$0A@@std@@@std@@IAEAAPAU_Node@?$_Tree_nod@V?$_Tmap_traits@EHU?$less@E@std@@V?$allocator@U?$pair@$$CBEH@std@@@2@$0A@@std@@@2@XZ ENDP ; std::_Tree<std::_Tmap_traits<unsigned char,int,std::less<unsigned char>,std::allocator<std::pair<unsigned char const ,int> >,0> >::_Root
_TEXT	ENDS
PUBLIC	?begin@?$vector@V?$basic_string@DU?$char_traits@D@std@@V?$allocator@D@2@@std@@V?$allocator@V?$basic_string@DU?$char_traits@D@std@@V?$allocator@D@2@@std@@@2@@std@@QBE?AVconst_iterator@12@XZ ; std::vector<std::basic_string<char,std::char_traits<char>,std::allocator<char> >,std::allocator<std::basic_string<char,std::char_traits<char>,std::allocator<char> > > >::begin
; Function compile flags: /Ogty
; File c:\program files\microsoft visual studio .net 2003\vc7\include\vector
;	COMDAT ?begin@?$vector@V?$basic_string@DU?$char_traits@D@std@@V?$allocator@D@2@@std@@V?$allocator@V?$basic_string@DU?$char_traits@D@std@@V?$allocator@D@2@@std@@@2@@std@@QBE?AVconst_iterator@12@XZ
_TEXT	SEGMENT
___$ReturnUdt$ = 8					; size = 4
?begin@?$vector@V?$basic_string@DU?$char_traits@D@std@@V?$allocator@D@2@@std@@V?$allocator@V?$basic_string@DU?$char_traits@D@std@@V?$allocator@D@2@@std@@@2@@std@@QBE?AVconst_iterator@12@XZ PROC NEAR ; std::vector<std::basic_string<char,std::char_traits<char>,std::allocator<char> >,std::allocator<std::basic_string<char,std::char_traits<char>,std::allocator<char> > > >::begin, COMDAT
; _this$ = ecx

; 468  : 		return (const_iterator(_Myfirst));

  00000	8b 49 04	 mov	 ecx, DWORD PTR [ecx+4]
  00003	8b 44 24 04	 mov	 eax, DWORD PTR ___$ReturnUdt$[esp-4]
  00007	89 08		 mov	 DWORD PTR [eax], ecx

; 469  : 		}

  00009	c2 04 00	 ret	 4
?begin@?$vector@V?$basic_string@DU?$char_traits@D@std@@V?$allocator@D@2@@std@@V?$allocator@V?$basic_string@DU?$char_traits@D@std@@V?$allocator@D@2@@std@@@2@@std@@QBE?AVconst_iterator@12@XZ ENDP ; std::vector<std::basic_string<char,std::char_traits<char>,std::allocator<char> >,std::allocator<std::basic_string<char,std::char_traits<char>,std::allocator<char> > > >::begin
_TEXT	ENDS
PUBLIC	?end@?$vector@V?$basic_string@DU?$char_traits@D@std@@V?$allocator@D@2@@std@@V?$allocator@V?$basic_string@DU?$char_traits@D@std@@V?$allocator@D@2@@std@@@2@@std@@QAE?AViterator@12@XZ ; std::vector<std::basic_string<char,std::char_traits<char>,std::allocator<char> >,std::allocator<std::basic_string<char,std::char_traits<char>,std::allocator<char> > > >::end
; Function compile flags: /Ogty
;	COMDAT ?end@?$vector@V?$basic_string@DU?$char_traits@D@std@@V?$allocator@D@2@@std@@V?$allocator@V?$basic_string@DU?$char_traits@D@std@@V?$allocator@D@2@@std@@@2@@std@@QAE?AViterator@12@XZ
_TEXT	SEGMENT
___$ReturnUdt$ = 8					; size = 4
?end@?$vector@V?$basic_string@DU?$char_traits@D@std@@V?$allocator@D@2@@std@@V?$allocator@V?$basic_string@DU?$char_traits@D@std@@V?$allocator@D@2@@std@@@2@@std@@QAE?AViterator@12@XZ PROC NEAR ; std::vector<std::basic_string<char,std::char_traits<char>,std::allocator<char> >,std::allocator<std::basic_string<char,std::char_traits<char>,std::allocator<char> > > >::end, COMDAT
; _this$ = ecx

; 473  : 		return (iterator(_Mylast));

  00000	8b 49 08	 mov	 ecx, DWORD PTR [ecx+8]
  00003	8b 44 24 04	 mov	 eax, DWORD PTR ___$ReturnUdt$[esp-4]
  00007	89 08		 mov	 DWORD PTR [eax], ecx

; 474  : 		}

  00009	c2 04 00	 ret	 4
?end@?$vector@V?$basic_string@DU?$char_traits@D@std@@V?$allocator@D@2@@std@@V?$allocator@V?$basic_string@DU?$char_traits@D@std@@V?$allocator@D@2@@std@@@2@@std@@QAE?AViterator@12@XZ ENDP ; std::vector<std::basic_string<char,std::char_traits<char>,std::allocator<char> >,std::allocator<std::basic_string<char,std::char_traits<char>,std::allocator<char> > > >::end
_TEXT	ENDS
PUBLIC	?end@?$vector@V?$basic_string@DU?$char_traits@D@std@@V?$allocator@D@2@@std@@V?$allocator@V?$basic_string@DU?$char_traits@D@std@@V?$allocator@D@2@@std@@@2@@std@@QBE?AVconst_iterator@12@XZ ; std::vector<std::basic_string<char,std::char_traits<char>,std::allocator<char> >,std::allocator<std::basic_string<char,std::char_traits<char>,std::allocator<char> > > >::end
; Function compile flags: /Ogty
;	COMDAT ?end@?$vector@V?$basic_string@DU?$char_traits@D@std@@V?$allocator@D@2@@std@@V?$allocator@V?$basic_string@DU?$char_traits@D@std@@V?$allocator@D@2@@std@@@2@@std@@QBE?AVconst_iterator@12@XZ
_TEXT	SEGMENT
___$ReturnUdt$ = 8					; size = 4
?end@?$vector@V?$basic_string@DU?$char_traits@D@std@@V?$allocator@D@2@@std@@V?$allocator@V?$basic_string@DU?$char_traits@D@std@@V?$allocator@D@2@@std@@@2@@std@@QBE?AVconst_iterator@12@XZ PROC NEAR ; std::vector<std::basic_string<char,std::char_traits<char>,std::allocator<char> >,std::allocator<std::basic_string<char,std::char_traits<char>,std::allocator<char> > > >::end, COMDAT
; _this$ = ecx

; 478  : 		return (const_iterator(_Mylast));

  00000	8b 49 08	 mov	 ecx, DWORD PTR [ecx+8]
  00003	8b 44 24 04	 mov	 eax, DWORD PTR ___$ReturnUdt$[esp-4]
  00007	89 08		 mov	 DWORD PTR [eax], ecx

; 479  : 		}

  00009	c2 04 00	 ret	 4
?end@?$vector@V?$basic_string@DU?$char_traits@D@std@@V?$allocator@D@2@@std@@V?$allocator@V?$basic_string@DU?$char_traits@D@std@@V?$allocator@D@2@@std@@@2@@std@@QBE?AVconst_iterator@12@XZ ENDP ; std::vector<std::basic_string<char,std::char_traits<char>,std::allocator<char> >,std::allocator<std::basic_string<char,std::char_traits<char>,std::allocator<char> > > >::end
_TEXT	ENDS
PUBLIC	??0iterator@?$_Tree@V?$_Tmap_traits@EHU?$less@E@std@@V?$allocator@U?$pair@$$CBEH@std@@@2@$0A@@std@@@std@@QAE@PAU_Node@?$_Tree_nod@V?$_Tmap_traits@EHU?$less@E@std@@V?$allocator@U?$pair@$$CBEH@std@@@2@$0A@@std@@@2@@Z ; std::_Tree<std::_Tmap_traits<unsigned char,int,std::less<unsigned char>,std::allocator<std::pair<unsigned char const ,int> >,0> >::iterator::iterator
; Function compile flags: /Ogty
; File c:\program files\microsoft visual studio .net 2003\vc7\include\xtree
;	COMDAT ??0iterator@?$_Tree@V?$_Tmap_traits@EHU?$less@E@std@@V?$allocator@U?$pair@$$CBEH@std@@@2@$0A@@std@@@std@@QAE@PAU_Node@?$_Tree_nod@V?$_Tmap_traits@EHU?$less@E@std@@V?$allocator@U?$pair@$$CBEH@std@@@2@$0A@@std@@@2@@Z
_TEXT	SEGMENT
__Pnode$ = 8						; size = 4
??0iterator@?$_Tree@V?$_Tmap_traits@EHU?$less@E@std@@V?$allocator@U?$pair@$$CBEH@std@@@2@$0A@@std@@@std@@QAE@PAU_Node@?$_Tree_nod@V?$_Tmap_traits@EHU?$less@E@std@@V?$allocator@U?$pair@$$CBEH@std@@@2@$0A@@std@@@2@@Z PROC NEAR ; std::_Tree<std::_Tmap_traits<unsigned char,int,std::less<unsigned char>,std::allocator<std::pair<unsigned char const ,int> >,0> >::iterator::iterator, COMDAT
; _this$ = ecx

; 312  : 			{	// construct with node pointer _Pnode

  00000	8b c1		 mov	 eax, ecx
  00002	8b 4c 24 04	 mov	 ecx, DWORD PTR __Pnode$[esp-4]
  00006	89 08		 mov	 DWORD PTR [eax], ecx

; 313  : 			}

  00008	c2 04 00	 ret	 4
??0iterator@?$_Tree@V?$_Tmap_traits@EHU?$less@E@std@@V?$allocator@U?$pair@$$CBEH@std@@@2@$0A@@std@@@std@@QAE@PAU_Node@?$_Tree_nod@V?$_Tmap_traits@EHU?$less@E@std@@V?$allocator@U?$pair@$$CBEH@std@@@2@$0A@@std@@@2@@Z ENDP ; std::_Tree<std::_Tmap_traits<unsigned char,int,std::less<unsigned char>,std::allocator<std::pair<unsigned char const ,int> >,0> >::iterator::iterator
_TEXT	ENDS
PUBLIC	?begin@?$vector@EV?$allocator@E@std@@@std@@QBE?AVconst_iterator@12@XZ ; std::vector<unsigned char,std::allocator<unsigned char> >::begin
; Function compile flags: /Ogty
; File c:\program files\microsoft visual studio .net 2003\vc7\include\vector
;	COMDAT ?begin@?$vector@EV?$allocator@E@std@@@std@@QBE?AVconst_iterator@12@XZ
_TEXT	SEGMENT
___$ReturnUdt$ = 8					; size = 4
?begin@?$vector@EV?$allocator@E@std@@@std@@QBE?AVconst_iterator@12@XZ PROC NEAR ; std::vector<unsigned char,std::allocator<unsigned char> >::begin, COMDAT
; _this$ = ecx

; 468  : 		return (const_iterator(_Myfirst));

  00000	8b 49 04	 mov	 ecx, DWORD PTR [ecx+4]
  00003	8b 44 24 04	 mov	 eax, DWORD PTR ___$ReturnUdt$[esp-4]
  00007	89 08		 mov	 DWORD PTR [eax], ecx

; 469  : 		}

  00009	c2 04 00	 ret	 4
?begin@?$vector@EV?$allocator@E@std@@@std@@QBE?AVconst_iterator@12@XZ ENDP ; std::vector<unsigned char,std::allocator<unsigned char> >::begin
_TEXT	ENDS
PUBLIC	?end@?$vector@EV?$allocator@E@std@@@std@@QAE?AViterator@12@XZ ; std::vector<unsigned char,std::allocator<unsigned char> >::end
; Function compile flags: /Ogty
;	COMDAT ?end@?$vector@EV?$allocator@E@std@@@std@@QAE?AViterator@12@XZ
_TEXT	SEGMENT
___$ReturnUdt$ = 8					; size = 4
?end@?$vector@EV?$allocator@E@std@@@std@@QAE?AViterator@12@XZ PROC NEAR ; std::vector<unsigned char,std::allocator<unsigned char> >::end, COMDAT
; _this$ = ecx

; 473  : 		return (iterator(_Mylast));

  00000	8b 49 08	 mov	 ecx, DWORD PTR [ecx+8]
  00003	8b 44 24 04	 mov	 eax, DWORD PTR ___$ReturnUdt$[esp-4]
  00007	89 08		 mov	 DWORD PTR [eax], ecx

; 474  : 		}

  00009	c2 04 00	 ret	 4
?end@?$vector@EV?$allocator@E@std@@@std@@QAE?AViterator@12@XZ ENDP ; std::vector<unsigned char,std::allocator<unsigned char> >::end
_TEXT	ENDS
PUBLIC	?end@?$vector@EV?$allocator@E@std@@@std@@QBE?AVconst_iterator@12@XZ ; std::vector<unsigned char,std::allocator<unsigned char> >::end
; Function compile flags: /Ogty
;	COMDAT ?end@?$vector@EV?$allocator@E@std@@@std@@QBE?AVconst_iterator@12@XZ
_TEXT	SEGMENT
___$ReturnUdt$ = 8					; size = 4
?end@?$vector@EV?$allocator@E@std@@@std@@QBE?AVconst_iterator@12@XZ PROC NEAR ; std::vector<unsigned char,std::allocator<unsigned char> >::end, COMDAT
; _this$ = ecx

; 478  : 		return (const_iterator(_Mylast));

  00000	8b 49 08	 mov	 ecx, DWORD PTR [ecx+8]
  00003	8b 44 24 04	 mov	 eax, DWORD PTR ___$ReturnUdt$[esp-4]
  00007	89 08		 mov	 DWORD PTR [eax], ecx

; 479  : 		}

  00009	c2 04 00	 ret	 4
?end@?$vector@EV?$allocator@E@std@@@std@@QBE?AVconst_iterator@12@XZ ENDP ; std::vector<unsigned char,std::allocator<unsigned char> >::end
_TEXT	ENDS
PUBLIC	?allocate@?$allocator@V?$basic_string@DU?$char_traits@D@std@@V?$allocator@D@2@@std@@@std@@QAEPAV?$basic_string@DU?$char_traits@D@std@@V?$allocator@D@2@@2@I@Z ; std::allocator<std::basic_string<char,std::char_traits<char>,std::allocator<char> > >::allocate
; Function compile flags: /Ogty
; File c:\program files\microsoft visual studio .net 2003\vc7\include\xmemory
;	COMDAT ?allocate@?$allocator@V?$basic_string@DU?$char_traits@D@std@@V?$allocator@D@2@@std@@@std@@QAEPAV?$basic_string@DU?$char_traits@D@std@@V?$allocator@D@2@@2@I@Z
_TEXT	SEGMENT
__Count$ = 8						; size = 4
?allocate@?$allocator@V?$basic_string@DU?$char_traits@D@std@@V?$allocator@D@2@@std@@@std@@QAEPAV?$basic_string@DU?$char_traits@D@std@@V?$allocator@D@2@@2@I@Z PROC NEAR ; std::allocator<std::basic_string<char,std::char_traits<char>,std::allocator<char> > >::allocate, COMDAT
; _this$ = ecx

; 137  : 		return (_Allocate(_Count, (pointer)0));

  00000	8b 44 24 04	 mov	 eax, DWORD PTR __Count$[esp-4]
  00004	6b c0 1c	 imul	 eax, 28			; 0000001cH
  00007	50		 push	 eax
  00008	e8 00 00 00 00	 call	 ??2@YAPAXI@Z		; operator new
  0000d	83 c4 04	 add	 esp, 4

; 138  : 		}

  00010	c2 04 00	 ret	 4
?allocate@?$allocator@V?$basic_string@DU?$char_traits@D@std@@V?$allocator@D@2@@std@@@std@@QAEPAV?$basic_string@DU?$char_traits@D@std@@V?$allocator@D@2@@2@I@Z ENDP ; std::allocator<std::basic_string<char,std::char_traits<char>,std::allocator<char> > >::allocate
_TEXT	ENDS
PUBLIC	?end@?$_Tree@V?$_Tmap_traits@EHU?$less@E@std@@V?$allocator@U?$pair@$$CBEH@std@@@2@$0A@@std@@@std@@QAE?AViterator@12@XZ ; std::_Tree<std::_Tmap_traits<unsigned char,int,std::less<unsigned char>,std::allocator<std::pair<unsigned char const ,int> >,0> >::end
; Function compile flags: /Ogty
; File c:\program files\microsoft visual studio .net 2003\vc7\include\xtree
;	COMDAT ?end@?$_Tree@V?$_Tmap_traits@EHU?$less@E@std@@V?$allocator@U?$pair@$$CBEH@std@@@2@$0A@@std@@@std@@QAE?AViterator@12@XZ
_TEXT	SEGMENT
___$ReturnUdt$ = 8					; size = 4
?end@?$_Tree@V?$_Tmap_traits@EHU?$less@E@std@@V?$allocator@U?$pair@$$CBEH@std@@@2@$0A@@std@@@std@@QAE?AViterator@12@XZ PROC NEAR ; std::_Tree<std::_Tmap_traits<unsigned char,int,std::less<unsigned char>,std::allocator<std::pair<unsigned char const ,int> >,0> >::end, COMDAT
; _this$ = ecx

; 418  : 		return (_TREE_ITERATOR(_Myhead));

  00000	8b 49 04	 mov	 ecx, DWORD PTR [ecx+4]
  00003	8b 44 24 04	 mov	 eax, DWORD PTR ___$ReturnUdt$[esp-4]
  00007	89 08		 mov	 DWORD PTR [eax], ecx

; 419  : 		}

  00009	c2 04 00	 ret	 4
?end@?$_Tree@V?$_Tmap_traits@EHU?$less@E@std@@V?$allocator@U?$pair@$$CBEH@std@@@2@$0A@@std@@@std@@QAE?AViterator@12@XZ ENDP ; std::_Tree<std::_Tmap_traits<unsigned char,int,std::less<unsigned char>,std::allocator<std::pair<unsigned char const ,int> >,0> >::end
_TEXT	ENDS
PUBLIC	?max_size@?$_Tree@V?$_Tmap_traits@EHU?$less@E@std@@V?$allocator@U?$pair@$$CBEH@std@@@2@$0A@@std@@@std@@QBEIXZ ; std::_Tree<std::_Tmap_traits<unsigned char,int,std::less<unsigned char>,std::allocator<std::pair<unsigned char const ,int> >,0> >::max_size
; Function compile flags: /Ogty
;	COMDAT ?max_size@?$_Tree@V?$_Tmap_traits@EHU?$less@E@std@@V?$allocator@U?$pair@$$CBEH@std@@@2@$0A@@std@@@std@@QBEIXZ
_TEXT	SEGMENT
?max_size@?$_Tree@V?$_Tmap_traits@EHU?$less@E@std@@V?$allocator@U?$pair@$$CBEH@std@@@2@$0A@@std@@@std@@QBEIXZ PROC NEAR ; std::_Tree<std::_Tmap_traits<unsigned char,int,std::less<unsigned char>,std::allocator<std::pair<unsigned char const ,int> >,0> >::max_size, COMDAT
; _this$ = ecx

; 453  : 		return (this->_Alval.max_size());

  00000	b8 ff ff ff 1f	 mov	 eax, 536870911		; 1fffffffH

; 454  : 		}

  00005	c3		 ret	 0
?max_size@?$_Tree@V?$_Tmap_traits@EHU?$less@E@std@@V?$allocator@U?$pair@$$CBEH@std@@@2@$0A@@std@@@std@@QBEIXZ ENDP ; std::_Tree<std::_Tmap_traits<unsigned char,int,std::less<unsigned char>,std::allocator<std::pair<unsigned char const ,int> >,0> >::max_size
_TEXT	ENDS
PUBLIC	?_Lrotate@?$_Tree@V?$_Tmap_traits@EHU?$less@E@std@@V?$allocator@U?$pair@$$CBEH@std@@@2@$0A@@std@@@std@@IAEXPAU_Node@?$_Tree_nod@V?$_Tmap_traits@EHU?$less@E@std@@V?$allocator@U?$pair@$$CBEH@std@@@2@$0A@@std@@@2@@Z ; std::_Tree<std::_Tmap_traits<unsigned char,int,std::less<unsigned char>,std::allocator<std::pair<unsigned char const ,int> >,0> >::_Lrotate
; Function compile flags: /Ogty
;	COMDAT ?_Lrotate@?$_Tree@V?$_Tmap_traits@EHU?$less@E@std@@V?$allocator@U?$pair@$$CBEH@std@@@2@$0A@@std@@@std@@IAEXPAU_Node@?$_Tree_nod@V?$_Tmap_traits@EHU?$less@E@std@@V?$allocator@U?$pair@$$CBEH@std@@@2@$0A@@std@@@2@@Z
_TEXT	SEGMENT
__Wherenode$ = 8					; size = 4
?_Lrotate@?$_Tree@V?$_Tmap_traits@EHU?$less@E@std@@V?$allocator@U?$pair@$$CBEH@std@@@2@$0A@@std@@@std@@IAEXPAU_Node@?$_Tree_nod@V?$_Tmap_traits@EHU?$less@E@std@@V?$allocator@U?$pair@$$CBEH@std@@@2@$0A@@std@@@2@@Z PROC NEAR ; std::_Tree<std::_Tmap_traits<unsigned char,int,std::less<unsigned char>,std::allocator<std::pair<unsigned char const ,int> >,0> >::_Lrotate, COMDAT
; _this$ = ecx

; 1015 : 		_Nodeptr _Pnode = _Right(_Wherenode);

  00000	8b 54 24 04	 mov	 edx, DWORD PTR __Wherenode$[esp-4]
  00004	8b 42 08	 mov	 eax, DWORD PTR [edx+8]
  00007	53		 push	 ebx
  00008	56		 push	 esi

; 1016 : 		_Right(_Wherenode) = _Left(_Pnode);

  00009	8b 30		 mov	 esi, DWORD PTR [eax]
  0000b	89 72 08	 mov	 DWORD PTR [edx+8], esi

; 1017 : 
; 1018 : 		if (!_Isnil(_Left(_Pnode)))

  0000e	8b 30		 mov	 esi, DWORD PTR [eax]
  00010	8a 5e 15	 mov	 bl, BYTE PTR [esi+21]
  00013	84 db		 test	 bl, bl
  00015	75 03		 jne	 SHORT $L187910

; 1019 : 			_Parent(_Left(_Pnode)) = _Wherenode;

  00017	89 56 04	 mov	 DWORD PTR [esi+4], edx
$L187910:

; 1020 : 		_Parent(_Pnode) = _Parent(_Wherenode);

  0001a	8b 72 04	 mov	 esi, DWORD PTR [edx+4]
  0001d	89 70 04	 mov	 DWORD PTR [eax+4], esi

; 1021 : 
; 1022 : 		if (_Wherenode == _Root())

  00020	8b 49 04	 mov	 ecx, DWORD PTR [ecx+4]
  00023	3b 51 04	 cmp	 edx, DWORD PTR [ecx+4]
  00026	75 0d		 jne	 SHORT $L187911

; 1023 : 			_Root() = _Pnode;

  00028	89 41 04	 mov	 DWORD PTR [ecx+4], eax
  0002b	5e		 pop	 esi

; 1028 : 
; 1029 : 		_Left(_Pnode) = _Wherenode;

  0002c	89 10		 mov	 DWORD PTR [eax], edx

; 1030 : 		_Parent(_Wherenode) = _Pnode;

  0002e	89 42 04	 mov	 DWORD PTR [edx+4], eax
  00031	5b		 pop	 ebx

; 1031 : 		}

  00032	c2 04 00	 ret	 4
$L187911:

; 1024 : 		else if (_Wherenode == _Left(_Parent(_Wherenode)))

  00035	8b 4a 04	 mov	 ecx, DWORD PTR [edx+4]
  00038	3b 11		 cmp	 edx, DWORD PTR [ecx]
  0003a	75 0c		 jne	 SHORT $L187913

; 1025 : 			_Left(_Parent(_Wherenode)) = _Pnode;

  0003c	89 01		 mov	 DWORD PTR [ecx], eax
  0003e	5e		 pop	 esi

; 1028 : 
; 1029 : 		_Left(_Pnode) = _Wherenode;

  0003f	89 10		 mov	 DWORD PTR [eax], edx

; 1030 : 		_Parent(_Wherenode) = _Pnode;

  00041	89 42 04	 mov	 DWORD PTR [edx+4], eax
  00044	5b		 pop	 ebx

; 1031 : 		}

  00045	c2 04 00	 ret	 4
$L187913:

; 1026 : 		else
; 1027 : 			_Right(_Parent(_Wherenode)) = _Pnode;

  00048	89 41 08	 mov	 DWORD PTR [ecx+8], eax
  0004b	5e		 pop	 esi

; 1028 : 
; 1029 : 		_Left(_Pnode) = _Wherenode;

  0004c	89 10		 mov	 DWORD PTR [eax], edx

; 1030 : 		_Parent(_Wherenode) = _Pnode;

  0004e	89 42 04	 mov	 DWORD PTR [edx+4], eax
  00051	5b		 pop	 ebx

; 1031 : 		}

  00052	c2 04 00	 ret	 4
?_Lrotate@?$_Tree@V?$_Tmap_traits@EHU?$less@E@std@@V?$allocator@U?$pair@$$CBEH@std@@@2@$0A@@std@@@std@@IAEXPAU_Node@?$_Tree_nod@V?$_Tmap_traits@EHU?$less@E@std@@V?$allocator@U?$pair@$$CBEH@std@@@2@$0A@@std@@@2@@Z ENDP ; std::_Tree<std::_Tmap_traits<unsigned char,int,std::less<unsigned char>,std::allocator<std::pair<unsigned char const ,int> >,0> >::_Lrotate
_TEXT	ENDS
PUBLIC	?_Rrotate@?$_Tree@V?$_Tmap_traits@EHU?$less@E@std@@V?$allocator@U?$pair@$$CBEH@std@@@2@$0A@@std@@@std@@IAEXPAU_Node@?$_Tree_nod@V?$_Tmap_traits@EHU?$less@E@std@@V?$allocator@U?$pair@$$CBEH@std@@@2@$0A@@std@@@2@@Z ; std::_Tree<std::_Tmap_traits<unsigned char,int,std::less<unsigned char>,std::allocator<std::pair<unsigned char const ,int> >,0> >::_Rrotate
; Function compile flags: /Ogty
;	COMDAT ?_Rrotate@?$_Tree@V?$_Tmap_traits@EHU?$less@E@std@@V?$allocator@U?$pair@$$CBEH@std@@@2@$0A@@std@@@std@@IAEXPAU_Node@?$_Tree_nod@V?$_Tmap_traits@EHU?$less@E@std@@V?$allocator@U?$pair@$$CBEH@std@@@2@$0A@@std@@@2@@Z
_TEXT	SEGMENT
__Wherenode$ = 8					; size = 4
?_Rrotate@?$_Tree@V?$_Tmap_traits@EHU?$less@E@std@@V?$allocator@U?$pair@$$CBEH@std@@@2@$0A@@std@@@std@@IAEXPAU_Node@?$_Tree_nod@V?$_Tmap_traits@EHU?$less@E@std@@V?$allocator@U?$pair@$$CBEH@std@@@2@$0A@@std@@@2@@Z PROC NEAR ; std::_Tree<std::_Tmap_traits<unsigned char,int,std::less<unsigned char>,std::allocator<std::pair<unsigned char const ,int> >,0> >::_Rrotate, COMDAT
; _this$ = ecx

; 1069 : 		_Nodeptr _Pnode = _Left(_Wherenode);

  00000	8b 54 24 04	 mov	 edx, DWORD PTR __Wherenode$[esp-4]
  00004	8b 02		 mov	 eax, DWORD PTR [edx]
  00006	53		 push	 ebx
  00007	56		 push	 esi

; 1070 : 		_Left(_Wherenode) = _Right(_Pnode);

  00008	8b 70 08	 mov	 esi, DWORD PTR [eax+8]
  0000b	89 32		 mov	 DWORD PTR [edx], esi

; 1071 : 
; 1072 : 		if (!_Isnil(_Right(_Pnode)))

  0000d	8b 70 08	 mov	 esi, DWORD PTR [eax+8]
  00010	8a 5e 15	 mov	 bl, BYTE PTR [esi+21]
  00013	84 db		 test	 bl, bl
  00015	75 03		 jne	 SHORT $L187918

; 1073 : 			_Parent(_Right(_Pnode)) = _Wherenode;

  00017	89 56 04	 mov	 DWORD PTR [esi+4], edx
$L187918:

; 1074 : 		_Parent(_Pnode) = _Parent(_Wherenode);

  0001a	8b 72 04	 mov	 esi, DWORD PTR [edx+4]
  0001d	89 70 04	 mov	 DWORD PTR [eax+4], esi

; 1075 : 
; 1076 : 		if (_Wherenode == _Root())

  00020	8b 49 04	 mov	 ecx, DWORD PTR [ecx+4]
  00023	3b 51 04	 cmp	 edx, DWORD PTR [ecx+4]
  00026	75 0e		 jne	 SHORT $L187919

; 1077 : 			_Root() = _Pnode;

  00028	89 41 04	 mov	 DWORD PTR [ecx+4], eax
  0002b	5e		 pop	 esi

; 1082 : 
; 1083 : 		_Right(_Pnode) = _Wherenode;

  0002c	89 50 08	 mov	 DWORD PTR [eax+8], edx

; 1084 : 		_Parent(_Wherenode) = _Pnode;

  0002f	89 42 04	 mov	 DWORD PTR [edx+4], eax
  00032	5b		 pop	 ebx

; 1085 : 		}

  00033	c2 04 00	 ret	 4
$L187919:

; 1078 : 		else if (_Wherenode == _Right(_Parent(_Wherenode)))

  00036	8b 4a 04	 mov	 ecx, DWORD PTR [edx+4]
  00039	3b 51 08	 cmp	 edx, DWORD PTR [ecx+8]
  0003c	75 0e		 jne	 SHORT $L187921

; 1079 : 			_Right(_Parent(_Wherenode)) = _Pnode;

  0003e	89 41 08	 mov	 DWORD PTR [ecx+8], eax
  00041	5e		 pop	 esi

; 1082 : 
; 1083 : 		_Right(_Pnode) = _Wherenode;

  00042	89 50 08	 mov	 DWORD PTR [eax+8], edx

; 1084 : 		_Parent(_Wherenode) = _Pnode;

  00045	89 42 04	 mov	 DWORD PTR [edx+4], eax
  00048	5b		 pop	 ebx

; 1085 : 		}

  00049	c2 04 00	 ret	 4
$L187921:

; 1080 : 		else
; 1081 : 			_Left(_Parent(_Wherenode)) = _Pnode;

  0004c	89 01		 mov	 DWORD PTR [ecx], eax
  0004e	5e		 pop	 esi

; 1082 : 
; 1083 : 		_Right(_Pnode) = _Wherenode;

  0004f	89 50 08	 mov	 DWORD PTR [eax+8], edx

; 1084 : 		_Parent(_Wherenode) = _Pnode;

  00052	89 42 04	 mov	 DWORD PTR [edx+4], eax
  00055	5b		 pop	 ebx

; 1085 : 		}

  00056	c2 04 00	 ret	 4
?_Rrotate@?$_Tree@V?$_Tmap_traits@EHU?$less@E@std@@V?$allocator@U?$pair@$$CBEH@std@@@2@$0A@@std@@@std@@IAEXPAU_Node@?$_Tree_nod@V?$_Tmap_traits@EHU?$less@E@std@@V?$allocator@U?$pair@$$CBEH@std@@@2@$0A@@std@@@2@@Z ENDP ; std::_Tree<std::_Tmap_traits<unsigned char,int,std::less<unsigned char>,std::allocator<std::pair<unsigned char const ,int> >,0> >::_Rrotate
_TEXT	ENDS
PUBLIC	?destroy@?$allocator@U_Node@?$_Tree_nod@V?$_Tmap_traits@EHU?$less@E@std@@V?$allocator@U?$pair@$$CBEH@std@@@2@$0A@@std@@@std@@@std@@QAEXPAU_Node@?$_Tree_nod@V?$_Tmap_traits@EHU?$less@E@std@@V?$allocator@U?$pair@$$CBEH@std@@@2@$0A@@std@@@2@@Z ; std::allocator<std::_Tree_nod<std::_Tmap_traits<unsigned char,int,std::less<unsigned char>,std::allocator<std::pair<unsigned char const ,int> >,0> >::_Node>::destroy
; Function compile flags: /Ogty
; File c:\program files\microsoft visual studio .net 2003\vc7\include\xmemory
;	COMDAT ?destroy@?$allocator@U_Node@?$_Tree_nod@V?$_Tmap_traits@EHU?$less@E@std@@V?$allocator@U?$pair@$$CBEH@std@@@2@$0A@@std@@@std@@@std@@QAEXPAU_Node@?$_Tree_nod@V?$_Tmap_traits@EHU?$less@E@std@@V?$allocator@U?$pair@$$CBEH@std@@@2@$0A@@std@@@2@@Z
_TEXT	SEGMENT
__Ptr$ = 8						; size = 4
?destroy@?$allocator@U_Node@?$_Tree_nod@V?$_Tmap_traits@EHU?$less@E@std@@V?$allocator@U?$pair@$$CBEH@std@@@2@$0A@@std@@@std@@@std@@QAEXPAU_Node@?$_Tree_nod@V?$_Tmap_traits@EHU?$less@E@std@@V?$allocator@U?$pair@$$CBEH@std@@@2@$0A@@std@@@2@@Z PROC NEAR ; std::allocator<std::_Tree_nod<std::_Tmap_traits<unsigned char,int,std::less<unsigned char>,std::allocator<std::pair<unsigned char const ,int> >,0> >::_Node>::destroy, COMDAT
; _this$ = ecx

; 152  : 		_Destroy(_Ptr);
; 153  : 		}

  00000	c2 04 00	 ret	 4
?destroy@?$allocator@U_Node@?$_Tree_nod@V?$_Tmap_traits@EHU?$less@E@std@@V?$allocator@U?$pair@$$CBEH@std@@@2@$0A@@std@@@std@@@std@@QAEXPAU_Node@?$_Tree_nod@V?$_Tmap_traits@EHU?$less@E@std@@V?$allocator@U?$pair@$$CBEH@std@@@2@$0A@@std@@@2@@Z ENDP ; std::allocator<std::_Tree_nod<std::_Tmap_traits<unsigned char,int,std::less<unsigned char>,std::allocator<std::pair<unsigned char const ,int> >,0> >::_Node>::destroy
_TEXT	ENDS
PUBLIC	?destroy@?$allocator@PAU_Node@?$_Tree_nod@V?$_Tmap_traits@EHU?$less@E@std@@V?$allocator@U?$pair@$$CBEH@std@@@2@$0A@@std@@@std@@@std@@QAEXPAPAU_Node@?$_Tree_nod@V?$_Tmap_traits@EHU?$less@E@std@@V?$allocator@U?$pair@$$CBEH@std@@@2@$0A@@std@@@2@@Z ; std::allocator<std::_Tree_nod<std::_Tmap_traits<unsigned char,int,std::less<unsigned char>,std::allocator<std::pair<unsigned char const ,int> >,0> >::_Node *>::destroy
; Function compile flags: /Ogty
;	COMDAT ?destroy@?$allocator@PAU_Node@?$_Tree_nod@V?$_Tmap_traits@EHU?$less@E@std@@V?$allocator@U?$pair@$$CBEH@std@@@2@$0A@@std@@@std@@@std@@QAEXPAPAU_Node@?$_Tree_nod@V?$_Tmap_traits@EHU?$less@E@std@@V?$allocator@U?$pair@$$CBEH@std@@@2@$0A@@std@@@2@@Z
_TEXT	SEGMENT
__Ptr$ = 8						; size = 4
?destroy@?$allocator@PAU_Node@?$_Tree_nod@V?$_Tmap_traits@EHU?$less@E@std@@V?$allocator@U?$pair@$$CBEH@std@@@2@$0A@@std@@@std@@@std@@QAEXPAPAU_Node@?$_Tree_nod@V?$_Tmap_traits@EHU?$less@E@std@@V?$allocator@U?$pair@$$CBEH@std@@@2@$0A@@std@@@2@@Z PROC NEAR ; std::allocator<std::_Tree_nod<std::_Tmap_traits<unsigned char,int,std::less<unsigned char>,std::allocator<std::pair<unsigned char const ,int> >,0> >::_Node *>::destroy, COMDAT
; _this$ = ecx

; 152  : 		_Destroy(_Ptr);
; 153  : 		}

  00000	c2 04 00	 ret	 4
?destroy@?$allocator@PAU_Node@?$_Tree_nod@V?$_Tmap_traits@EHU?$less@E@std@@V?$allocator@U?$pair@$$CBEH@std@@@2@$0A@@std@@@std@@@std@@QAEXPAPAU_Node@?$_Tree_nod@V?$_Tmap_traits@EHU?$less@E@std@@V?$allocator@U?$pair@$$CBEH@std@@@2@$0A@@std@@@2@@Z ENDP ; std::allocator<std::_Tree_nod<std::_Tmap_traits<unsigned char,int,std::less<unsigned char>,std::allocator<std::pair<unsigned char const ,int> >,0> >::_Node *>::destroy
_TEXT	ENDS
PUBLIC	?allocate@?$allocator@E@std@@QAEPAEI@Z		; std::allocator<unsigned char>::allocate
; Function compile flags: /Ogty
;	COMDAT ?allocate@?$allocator@E@std@@QAEPAEI@Z
_TEXT	SEGMENT
__Count$ = 8						; size = 4
?allocate@?$allocator@E@std@@QAEPAEI@Z PROC NEAR	; std::allocator<unsigned char>::allocate, COMDAT
; _this$ = ecx

; 137  : 		return (_Allocate(_Count, (pointer)0));

  00000	8b 44 24 04	 mov	 eax, DWORD PTR __Count$[esp-4]
  00004	50		 push	 eax
  00005	e8 00 00 00 00	 call	 ??2@YAPAXI@Z		; operator new
  0000a	83 c4 04	 add	 esp, 4

; 138  : 		}

  0000d	c2 04 00	 ret	 4
?allocate@?$allocator@E@std@@QAEPAEI@Z ENDP		; std::allocator<unsigned char>::allocate
_TEXT	ENDS
PUBLIC	?begin@?$vector@V?$basic_string@DU?$char_traits@D@std@@V?$allocator@D@2@@std@@V?$allocator@V?$basic_string@DU?$char_traits@D@std@@V?$allocator@D@2@@std@@@2@@std@@QAE?AViterator@12@XZ ; std::vector<std::basic_string<char,std::char_traits<char>,std::allocator<char> >,std::allocator<std::basic_string<char,std::char_traits<char>,std::allocator<char> > > >::begin
; Function compile flags: /Ogty
; File c:\program files\microsoft visual studio .net 2003\vc7\include\vector
;	COMDAT ?begin@?$vector@V?$basic_string@DU?$char_traits@D@std@@V?$allocator@D@2@@std@@V?$allocator@V?$basic_string@DU?$char_traits@D@std@@V?$allocator@D@2@@std@@@2@@std@@QAE?AViterator@12@XZ
_TEXT	SEGMENT
___$ReturnUdt$ = 8					; size = 4
?begin@?$vector@V?$basic_string@DU?$char_traits@D@std@@V?$allocator@D@2@@std@@V?$allocator@V?$basic_string@DU?$char_traits@D@std@@V?$allocator@D@2@@std@@@2@@std@@QAE?AViterator@12@XZ PROC NEAR ; std::vector<std::basic_string<char,std::char_traits<char>,std::allocator<char> >,std::allocator<std::basic_string<char,std::char_traits<char>,std::allocator<char> > > >::begin, COMDAT
; _this$ = ecx

; 463  : 		return (iterator(_Myfirst));

  00000	8b 49 04	 mov	 ecx, DWORD PTR [ecx+4]
  00003	8b 44 24 04	 mov	 eax, DWORD PTR ___$ReturnUdt$[esp-4]
  00007	89 08		 mov	 DWORD PTR [eax], ecx

; 464  : 		}

  00009	c2 04 00	 ret	 4
?begin@?$vector@V?$basic_string@DU?$char_traits@D@std@@V?$allocator@D@2@@std@@V?$allocator@V?$basic_string@DU?$char_traits@D@std@@V?$allocator@D@2@@std@@@2@@std@@QAE?AViterator@12@XZ ENDP ; std::vector<std::basic_string<char,std::char_traits<char>,std::allocator<char> >,std::allocator<std::basic_string<char,std::char_traits<char>,std::allocator<char> > > >::begin
_TEXT	ENDS
PUBLIC	?max_size@?$vector@V?$basic_string@DU?$char_traits@D@std@@V?$allocator@D@2@@std@@V?$allocator@V?$basic_string@DU?$char_traits@D@std@@V?$allocator@D@2@@std@@@2@@std@@QBEIXZ ; std::vector<std::basic_string<char,std::char_traits<char>,std::allocator<char> >,std::allocator<std::basic_string<char,std::char_traits<char>,std::allocator<char> > > >::max_size
; Function compile flags: /Ogty
;	COMDAT ?max_size@?$vector@V?$basic_string@DU?$char_traits@D@std@@V?$allocator@D@2@@std@@V?$allocator@V?$basic_string@DU?$char_traits@D@std@@V?$allocator@D@2@@std@@@2@@std@@QBEIXZ
_TEXT	SEGMENT
?max_size@?$vector@V?$basic_string@DU?$char_traits@D@std@@V?$allocator@D@2@@std@@V?$allocator@V?$basic_string@DU?$char_traits@D@std@@V?$allocator@D@2@@std@@@2@@std@@QBEIXZ PROC NEAR ; std::vector<std::basic_string<char,std::char_traits<char>,std::allocator<char> >,std::allocator<std::basic_string<char,std::char_traits<char>,std::allocator<char> > > >::max_size, COMDAT
; _this$ = ecx

; 521  : 		return (this->_Alval.max_size());

  00000	b8 49 92 24 09	 mov	 eax, 153391689		; 09249249H

; 522  : 		}

  00005	c3		 ret	 0
?max_size@?$vector@V?$basic_string@DU?$char_traits@D@std@@V?$allocator@D@2@@std@@V?$allocator@V?$basic_string@DU?$char_traits@D@std@@V?$allocator@D@2@@std@@@2@@std@@QBEIXZ ENDP ; std::vector<std::basic_string<char,std::char_traits<char>,std::allocator<char> >,std::allocator<std::basic_string<char,std::char_traits<char>,std::allocator<char> > > >::max_size
_TEXT	ENDS
PUBLIC	?begin@?$vector@EV?$allocator@E@std@@@std@@QAE?AViterator@12@XZ ; std::vector<unsigned char,std::allocator<unsigned char> >::begin
; Function compile flags: /Ogty
;	COMDAT ?begin@?$vector@EV?$allocator@E@std@@@std@@QAE?AViterator@12@XZ
_TEXT	SEGMENT
___$ReturnUdt$ = 8					; size = 4
?begin@?$vector@EV?$allocator@E@std@@@std@@QAE?AViterator@12@XZ PROC NEAR ; std::vector<unsigned char,std::allocator<unsigned char> >::begin, COMDAT
; _this$ = ecx

; 463  : 		return (iterator(_Myfirst));

  00000	8b 49 04	 mov	 ecx, DWORD PTR [ecx+4]
  00003	8b 44 24 04	 mov	 eax, DWORD PTR ___$ReturnUdt$[esp-4]
  00007	89 08		 mov	 DWORD PTR [eax], ecx

; 464  : 		}

  00009	c2 04 00	 ret	 4
?begin@?$vector@EV?$allocator@E@std@@@std@@QAE?AViterator@12@XZ ENDP ; std::vector<unsigned char,std::allocator<unsigned char> >::begin
_TEXT	ENDS
PUBLIC	?max_size@?$vector@EV?$allocator@E@std@@@std@@QBEIXZ ; std::vector<unsigned char,std::allocator<unsigned char> >::max_size
; Function compile flags: /Ogty
;	COMDAT ?max_size@?$vector@EV?$allocator@E@std@@@std@@QBEIXZ
_TEXT	SEGMENT
?max_size@?$vector@EV?$allocator@E@std@@@std@@QBEIXZ PROC NEAR ; std::vector<unsigned char,std::allocator<unsigned char> >::max_size, COMDAT
; _this$ = ecx

; 521  : 		return (this->_Alval.max_size());

  00000	83 c8 ff	 or	 eax, -1

; 522  : 		}

  00003	c3		 ret	 0
?max_size@?$vector@EV?$allocator@E@std@@@std@@QBEIXZ ENDP ; std::vector<unsigned char,std::allocator<unsigned char> >::max_size
_TEXT	ENDS
PUBLIC	??Hiterator@?$vector@V?$basic_string@DU?$char_traits@D@std@@V?$allocator@D@2@@std@@V?$allocator@V?$basic_string@DU?$char_traits@D@std@@V?$allocator@D@2@@std@@@2@@std@@QBE?AV012@H@Z ; std::vector<std::basic_string<char,std::char_traits<char>,std::allocator<char> >,std::allocator<std::basic_string<char,std::char_traits<char>,std::allocator<char> > > >::iterator::operator+
; Function compile flags: /Ogty
;	COMDAT ??Hiterator@?$vector@V?$basic_string@DU?$char_traits@D@std@@V?$allocator@D@2@@std@@V?$allocator@V?$basic_string@DU?$char_traits@D@std@@V?$allocator@D@2@@std@@@2@@std@@QBE?AV012@H@Z
_TEXT	SEGMENT
___$ReturnUdt$ = 8					; size = 4
__Off$ = 12						; size = 4
??Hiterator@?$vector@V?$basic_string@DU?$char_traits@D@std@@V?$allocator@D@2@@std@@V?$allocator@V?$basic_string@DU?$char_traits@D@std@@V?$allocator@D@2@@std@@@2@@std@@QBE?AV012@H@Z PROC NEAR ; std::vector<std::basic_string<char,std::char_traits<char>,std::allocator<char> >,std::allocator<std::basic_string<char,std::char_traits<char>,std::allocator<char> > > >::iterator::operator+, COMDAT
; _this$ = ecx

; 262  : 			iterator _Tmp = *this;
; 263  : 			return (_Tmp += _Off);

  00000	8b 54 24 08	 mov	 edx, DWORD PTR __Off$[esp-4]
  00004	8b 01		 mov	 eax, DWORD PTR [ecx]
  00006	6b d2 1c	 imul	 edx, 28			; 0000001cH
  00009	03 d0		 add	 edx, eax
  0000b	8b 44 24 04	 mov	 eax, DWORD PTR ___$ReturnUdt$[esp-4]
  0000f	89 10		 mov	 DWORD PTR [eax], edx

; 264  : 			}

  00011	c2 08 00	 ret	 8
??Hiterator@?$vector@V?$basic_string@DU?$char_traits@D@std@@V?$allocator@D@2@@std@@V?$allocator@V?$basic_string@DU?$char_traits@D@std@@V?$allocator@D@2@@std@@@2@@std@@QBE?AV012@H@Z ENDP ; std::vector<std::basic_string<char,std::char_traits<char>,std::allocator<char> >,std::allocator<std::basic_string<char,std::char_traits<char>,std::allocator<char> > > >::iterator::operator+
_TEXT	ENDS
PUBLIC	??Giterator@?$vector@V?$basic_string@DU?$char_traits@D@std@@V?$allocator@D@2@@std@@V?$allocator@V?$basic_string@DU?$char_traits@D@std@@V?$allocator@D@2@@std@@@2@@std@@QBEHABVconst_iterator@12@@Z ; std::vector<std::basic_string<char,std::char_traits<char>,std::allocator<char> >,std::allocator<std::basic_string<char,std::char_traits<char>,std::allocator<char> > > >::iterator::operator-
; Function compile flags: /Ogty
;	COMDAT ??Giterator@?$vector@V?$basic_string@DU?$char_traits@D@std@@V?$allocator@D@2@@std@@V?$allocator@V?$basic_string@DU?$char_traits@D@std@@V?$allocator@D@2@@std@@@2@@std@@QBEHABVconst_iterator@12@@Z
_TEXT	SEGMENT
__Right$ = 8						; size = 4
??Giterator@?$vector@V?$basic_string@DU?$char_traits@D@std@@V?$allocator@D@2@@std@@V?$allocator@V?$basic_string@DU?$char_traits@D@std@@V?$allocator@D@2@@std@@@2@@std@@QBEHABVconst_iterator@12@@Z PROC NEAR ; std::vector<std::basic_string<char,std::char_traits<char>,std::allocator<char> >,std::allocator<std::basic_string<char,std::char_traits<char>,std::allocator<char> > > >::iterator::operator-, COMDAT
; _this$ = ecx

; 279  : 			return ((const_iterator)*this - _Right);

  00000	8b 01		 mov	 eax, DWORD PTR [ecx]
  00002	8b 4c 24 04	 mov	 ecx, DWORD PTR __Right$[esp-4]
  00006	2b 01		 sub	 eax, DWORD PTR [ecx]
  00008	8b c8		 mov	 ecx, eax
  0000a	b8 93 24 49 92	 mov	 eax, -1840700269	; 92492493H
  0000f	f7 e9		 imul	 ecx
  00011	03 d1		 add	 edx, ecx
  00013	c1 fa 04	 sar	 edx, 4
  00016	8b c2		 mov	 eax, edx
  00018	c1 e8 1f	 shr	 eax, 31			; 0000001fH
  0001b	03 c2		 add	 eax, edx

; 280  : 			}

  0001d	c2 04 00	 ret	 4
??Giterator@?$vector@V?$basic_string@DU?$char_traits@D@std@@V?$allocator@D@2@@std@@V?$allocator@V?$basic_string@DU?$char_traits@D@std@@V?$allocator@D@2@@std@@@2@@std@@QBEHABVconst_iterator@12@@Z ENDP ; std::vector<std::basic_string<char,std::char_traits<char>,std::allocator<char> >,std::allocator<std::basic_string<char,std::char_traits<char>,std::allocator<char> > > >::iterator::operator-
_TEXT	ENDS
PUBLIC	??Hiterator@?$vector@EV?$allocator@E@std@@@std@@QBE?AV012@H@Z ; std::vector<unsigned char,std::allocator<unsigned char> >::iterator::operator+
; Function compile flags: /Ogty
;	COMDAT ??Hiterator@?$vector@EV?$allocator@E@std@@@std@@QBE?AV012@H@Z
_TEXT	SEGMENT
___$ReturnUdt$ = 8					; size = 4
__Off$ = 12						; size = 4
??Hiterator@?$vector@EV?$allocator@E@std@@@std@@QBE?AV012@H@Z PROC NEAR ; std::vector<unsigned char,std::allocator<unsigned char> >::iterator::operator+, COMDAT
; _this$ = ecx

; 262  : 			iterator _Tmp = *this;
; 263  : 			return (_Tmp += _Off);

  00000	8b 09		 mov	 ecx, DWORD PTR [ecx]
  00002	03 4c 24 08	 add	 ecx, DWORD PTR __Off$[esp-4]
  00006	8b 44 24 04	 mov	 eax, DWORD PTR ___$ReturnUdt$[esp-4]
  0000a	89 08		 mov	 DWORD PTR [eax], ecx

; 264  : 			}

  0000c	c2 08 00	 ret	 8
??Hiterator@?$vector@EV?$allocator@E@std@@@std@@QBE?AV012@H@Z ENDP ; std::vector<unsigned char,std::allocator<unsigned char> >::iterator::operator+
_TEXT	ENDS
PUBLIC	??Giterator@?$vector@EV?$allocator@E@std@@@std@@QBEHABVconst_iterator@12@@Z ; std::vector<unsigned char,std::allocator<unsigned char> >::iterator::operator-
; Function compile flags: /Ogty
;	COMDAT ??Giterator@?$vector@EV?$allocator@E@std@@@std@@QBEHABVconst_iterator@12@@Z
_TEXT	SEGMENT
__Right$ = 8						; size = 4
??Giterator@?$vector@EV?$allocator@E@std@@@std@@QBEHABVconst_iterator@12@@Z PROC NEAR ; std::vector<unsigned char,std::allocator<unsigned char> >::iterator::operator-, COMDAT
; _this$ = ecx

; 279  : 			return ((const_iterator)*this - _Right);

  00000	8b 01		 mov	 eax, DWORD PTR [ecx]
  00002	8b 4c 24 04	 mov	 ecx, DWORD PTR __Right$[esp-4]
  00006	2b 01		 sub	 eax, DWORD PTR [ecx]

; 280  : 			}

  00008	c2 04 00	 ret	 4
??Giterator@?$vector@EV?$allocator@E@std@@@std@@QBEHABVconst_iterator@12@@Z ENDP ; std::vector<unsigned char,std::allocator<unsigned char> >::iterator::operator-
_TEXT	ENDS
PUBLIC	?allocate@?$allocator@U_Node@?$_Tree_nod@V?$_Tmap_traits@EHU?$less@E@std@@V?$allocator@U?$pair@$$CBEH@std@@@2@$0A@@std@@@std@@@std@@QAEPAU_Node@?$_Tree_nod@V?$_Tmap_traits@EHU?$less@E@std@@V?$allocator@U?$pair@$$CBEH@std@@@2@$0A@@std@@@2@I@Z ; std::allocator<std::_Tree_nod<std::_Tmap_traits<unsigned char,int,std::less<unsigned char>,std::allocator<std::pair<unsigned char const ,int> >,0> >::_Node>::allocate
; Function compile flags: /Ogty
; File c:\program files\microsoft visual studio .net 2003\vc7\include\xmemory
;	COMDAT ?allocate@?$allocator@U_Node@?$_Tree_nod@V?$_Tmap_traits@EHU?$less@E@std@@V?$allocator@U?$pair@$$CBEH@std@@@2@$0A@@std@@@std@@@std@@QAEPAU_Node@?$_Tree_nod@V?$_Tmap_traits@EHU?$less@E@std@@V?$allocator@U?$pair@$$CBEH@std@@@2@$0A@@std@@@2@I@Z
_TEXT	SEGMENT
__Count$ = 8						; size = 4
?allocate@?$allocator@U_Node@?$_Tree_nod@V?$_Tmap_traits@EHU?$less@E@std@@V?$allocator@U?$pair@$$CBEH@std@@@2@$0A@@std@@@std@@@std@@QAEPAU_Node@?$_Tree_nod@V?$_Tmap_traits@EHU?$less@E@std@@V?$allocator@U?$pair@$$CBEH@std@@@2@$0A@@std@@@2@I@Z PROC NEAR ; std::allocator<std::_Tree_nod<std::_Tmap_traits<unsigned char,int,std::less<unsigned char>,std::allocator<std::pair<unsigned char const ,int> >,0> >::_Node>::allocate, COMDAT
; _this$ = ecx

; 137  : 		return (_Allocate(_Count, (pointer)0));

  00000	8b 44 24 04	 mov	 eax, DWORD PTR __Count$[esp-4]
  00004	8d 04 40	 lea	 eax, DWORD PTR [eax+eax*2]
  00007	c1 e0 03	 shl	 eax, 3
  0000a	50		 push	 eax
  0000b	e8 00 00 00 00	 call	 ??2@YAPAXI@Z		; operator new
  00010	83 c4 04	 add	 esp, 4

; 138  : 		}

  00013	c2 04 00	 ret	 4
?allocate@?$allocator@U_Node@?$_Tree_nod@V?$_Tmap_traits@EHU?$less@E@std@@V?$allocator@U?$pair@$$CBEH@std@@@2@$0A@@std@@@std@@@std@@QAEPAU_Node@?$_Tree_nod@V?$_Tmap_traits@EHU?$less@E@std@@V?$allocator@U?$pair@$$CBEH@std@@@2@$0A@@std@@@2@I@Z ENDP ; std::allocator<std::_Tree_nod<std::_Tmap_traits<unsigned char,int,std::less<unsigned char>,std::allocator<std::pair<unsigned char const ,int> >,0> >::_Node>::allocate
_TEXT	ENDS
PUBLIC	?_Dec@const_iterator@?$_Tree@V?$_Tmap_traits@EHU?$less@E@std@@V?$allocator@U?$pair@$$CBEH@std@@@2@$0A@@std@@@std@@QAEXXZ ; std::_Tree<std::_Tmap_traits<unsigned char,int,std::less<unsigned char>,std::allocator<std::pair<unsigned char const ,int> >,0> >::const_iterator::_Dec
; Function compile flags: /Ogty
; File c:\program files\microsoft visual studio .net 2003\vc7\include\xtree
;	COMDAT ?_Dec@const_iterator@?$_Tree@V?$_Tmap_traits@EHU?$less@E@std@@V?$allocator@U?$pair@$$CBEH@std@@@2@$0A@@std@@@std@@QAEXXZ
_TEXT	SEGMENT
?_Dec@const_iterator@?$_Tree@V?$_Tmap_traits@EHU?$less@E@std@@V?$allocator@U?$pair@$$CBEH@std@@@2@$0A@@std@@@std@@QAEXXZ PROC NEAR ; std::_Tree<std::_Tmap_traits<unsigned char,int,std::less<unsigned char>,std::allocator<std::pair<unsigned char const ,int> >,0> >::const_iterator::_Dec, COMDAT
; _this$ = ecx

; 251  : 			if (_Isnil(_Ptr))

  00000	8b 01		 mov	 eax, DWORD PTR [ecx]
  00002	8a 50 15	 mov	 dl, BYTE PTR [eax+21]
  00005	84 d2		 test	 dl, dl
  00007	74 06		 je	 SHORT $L188204

; 252  : 				_Ptr = _Right(_Ptr);	// end() ==> rightmost

  00009	8b 40 08	 mov	 eax, DWORD PTR [eax+8]
  0000c	89 01		 mov	 DWORD PTR [ecx], eax

; 263  : 				}
; 264  : 			}

  0000e	c3		 ret	 0
$L188204:

; 253  : 			else if (!_Isnil(_Left(_Ptr)))

  0000f	8b 10		 mov	 edx, DWORD PTR [eax]
  00011	53		 push	 ebx
  00012	8a 5a 15	 mov	 bl, BYTE PTR [edx+21]
  00015	84 db		 test	 bl, bl
  00017	75 1a		 jne	 SHORT $L190034

; 254  : 				_Ptr = _Max(_Left(_Ptr));	// ==> largest of left subtree

  00019	8b 42 08	 mov	 eax, DWORD PTR [edx+8]
  0001c	8a 58 15	 mov	 bl, BYTE PTR [eax+21]
  0001f	84 db		 test	 bl, bl
  00021	75 0c		 jne	 SHORT $L190019
$L190018:
  00023	8b d0		 mov	 edx, eax
  00025	8b 42 08	 mov	 eax, DWORD PTR [edx+8]
  00028	8a 58 15	 mov	 bl, BYTE PTR [eax+21]
  0002b	84 db		 test	 bl, bl
  0002d	74 f4		 je	 SHORT $L190018
$L190019:
  0002f	89 11		 mov	 DWORD PTR [ecx], edx
  00031	5b		 pop	 ebx

; 263  : 				}
; 264  : 			}

  00032	c3		 ret	 0
$L190034:

; 255  : 			else
; 256  : 				{	// climb looking for left subtree
; 257  : 				_Nodeptr _Pnode;
; 258  : 				while (!_Isnil(_Pnode = _Parent(_Ptr))
; 259  : 					&& _Ptr == _Left(_Pnode))

  00033	8b 40 04	 mov	 eax, DWORD PTR [eax+4]
  00036	8a 50 15	 mov	 dl, BYTE PTR [eax+21]
  00039	84 d2		 test	 dl, dl
  0003b	75 1e		 jne	 SHORT $L190037
  0003d	8d 49 00	 npad	 3
$L188210:
  00040	8b 11		 mov	 edx, DWORD PTR [ecx]
  00042	3b 10		 cmp	 edx, DWORD PTR [eax]
  00044	75 0c		 jne	 SHORT $L188211

; 260  : 					_Ptr = _Pnode;	// ==> parent while left subtree

  00046	89 01		 mov	 DWORD PTR [ecx], eax
  00048	8b 40 04	 mov	 eax, DWORD PTR [eax+4]
  0004b	8a 50 15	 mov	 dl, BYTE PTR [eax+21]
  0004e	84 d2		 test	 dl, dl
  00050	74 ee		 je	 SHORT $L188210
$L188211:

; 261  : 				if (!_Isnil(_Pnode))

  00052	8a 50 15	 mov	 dl, BYTE PTR [eax+21]
  00055	84 d2		 test	 dl, dl
  00057	75 02		 jne	 SHORT $L190037

; 262  : 					_Ptr = _Pnode;	// ==> parent if not head

  00059	89 01		 mov	 DWORD PTR [ecx], eax
$L190037:
  0005b	5b		 pop	 ebx

; 263  : 				}
; 264  : 			}

  0005c	c3		 ret	 0
?_Dec@const_iterator@?$_Tree@V?$_Tmap_traits@EHU?$less@E@std@@V?$allocator@U?$pair@$$CBEH@std@@@2@$0A@@std@@@std@@QAEXXZ ENDP ; std::_Tree<std::_Tmap_traits<unsigned char,int,std::less<unsigned char>,std::allocator<std::pair<unsigned char const ,int> >,0> >::const_iterator::_Dec
_TEXT	ENDS
PUBLIC	??0?$_Tree_nod@V?$_Tmap_traits@EHU?$less@E@std@@V?$allocator@U?$pair@$$CBEH@std@@@2@$0A@@std@@@std@@IAE@ABU?$less@E@1@V?$allocator@U?$pair@$$CBEH@std@@@1@@Z ; std::_Tree_nod<std::_Tmap_traits<unsigned char,int,std::less<unsigned char>,std::allocator<std::pair<unsigned char const ,int> >,0> >::_Tree_nod<std::_Tmap_traits<unsigned char,int,std::less<unsigned char>,std::allocator<std::pair<unsigned char const ,int> >,0> >
; Function compile flags: /Ogty
;	COMDAT ??0?$_Tree_nod@V?$_Tmap_traits@EHU?$less@E@std@@V?$allocator@U?$pair@$$CBEH@std@@@2@$0A@@std@@@std@@IAE@ABU?$less@E@1@V?$allocator@U?$pair@$$CBEH@std@@@1@@Z
_TEXT	SEGMENT
__Parg$ = 8						; size = 4
__Al$ = 12						; size = 1
??0?$_Tree_nod@V?$_Tmap_traits@EHU?$less@E@std@@V?$allocator@U?$pair@$$CBEH@std@@@2@$0A@@std@@@std@@IAE@ABU?$less@E@1@V?$allocator@U?$pair@$$CBEH@std@@@1@@Z PROC NEAR ; std::_Tree_nod<std::_Tmap_traits<unsigned char,int,std::less<unsigned char>,std::allocator<std::pair<unsigned char const ,int> >,0> >::_Tree_nod<std::_Tmap_traits<unsigned char,int,std::less<unsigned char>,std::allocator<std::pair<unsigned char const ,int> >,0> >, COMDAT
; _this$ = ecx

; 54   : 		{	// construct traits from _Parg and allocator from _Al

  00000	8b c1		 mov	 eax, ecx

; 55   : 		}

  00002	c2 08 00	 ret	 8
??0?$_Tree_nod@V?$_Tmap_traits@EHU?$less@E@std@@V?$allocator@U?$pair@$$CBEH@std@@@2@$0A@@std@@@std@@IAE@ABU?$less@E@1@V?$allocator@U?$pair@$$CBEH@std@@@1@@Z ENDP ; std::_Tree_nod<std::_Tmap_traits<unsigned char,int,std::less<unsigned char>,std::allocator<std::pair<unsigned char const ,int> >,0> >::_Tree_nod<std::_Tmap_traits<unsigned char,int,std::less<unsigned char>,std::allocator<std::pair<unsigned char const ,int> >,0> >
_TEXT	ENDS
PUBLIC	?construct@?$allocator@PAU_Node@?$_Tree_nod@V?$_Tmap_traits@EHU?$less@E@std@@V?$allocator@U?$pair@$$CBEH@std@@@2@$0A@@std@@@std@@@std@@QAEXPAPAU_Node@?$_Tree_nod@V?$_Tmap_traits@EHU?$less@E@std@@V?$allocator@U?$pair@$$CBEH@std@@@2@$0A@@std@@@2@ABQAU342@@Z ; std::allocator<std::_Tree_nod<std::_Tmap_traits<unsigned char,int,std::less<unsigned char>,std::allocator<std::pair<unsigned char const ,int> >,0> >::_Node *>::construct
; Function compile flags: /Ogty
; File c:\program files\microsoft visual studio .net 2003\vc7\include\xmemory
;	COMDAT ?construct@?$allocator@PAU_Node@?$_Tree_nod@V?$_Tmap_traits@EHU?$less@E@std@@V?$allocator@U?$pair@$$CBEH@std@@@2@$0A@@std@@@std@@@std@@QAEXPAPAU_Node@?$_Tree_nod@V?$_Tmap_traits@EHU?$less@E@std@@V?$allocator@U?$pair@$$CBEH@std@@@2@$0A@@std@@@2@ABQAU342@@Z
_TEXT	SEGMENT
__Ptr$ = 8						; size = 4
__Val$ = 12						; size = 4
?construct@?$allocator@PAU_Node@?$_Tree_nod@V?$_Tmap_traits@EHU?$less@E@std@@V?$allocator@U?$pair@$$CBEH@std@@@2@$0A@@std@@@std@@@std@@QAEXPAPAU_Node@?$_Tree_nod@V?$_Tmap_traits@EHU?$less@E@std@@V?$allocator@U?$pair@$$CBEH@std@@@2@$0A@@std@@@2@ABQAU342@@Z PROC NEAR ; std::allocator<std::_Tree_nod<std::_Tmap_traits<unsigned char,int,std::less<unsigned char>,std::allocator<std::pair<unsigned char const ,int> >,0> >::_Node *>::construct, COMDAT
; _this$ = ecx

; 147  : 		_Construct(_Ptr, _Val);

  00000	8b 44 24 04	 mov	 eax, DWORD PTR __Ptr$[esp-4]
  00004	85 c0		 test	 eax, eax
  00006	74 08		 je	 SHORT $L190059
  00008	8b 4c 24 08	 mov	 ecx, DWORD PTR __Val$[esp-4]
  0000c	8b 11		 mov	 edx, DWORD PTR [ecx]
  0000e	89 10		 mov	 DWORD PTR [eax], edx
$L190059:

; 148  : 		}

  00010	c2 08 00	 ret	 8
?construct@?$allocator@PAU_Node@?$_Tree_nod@V?$_Tmap_traits@EHU?$less@E@std@@V?$allocator@U?$pair@$$CBEH@std@@@2@$0A@@std@@@std@@@std@@QAEXPAPAU_Node@?$_Tree_nod@V?$_Tmap_traits@EHU?$less@E@std@@V?$allocator@U?$pair@$$CBEH@std@@@2@$0A@@std@@@2@ABQAU342@@Z ENDP ; std::allocator<std::_Tree_nod<std::_Tmap_traits<unsigned char,int,std::less<unsigned char>,std::allocator<std::pair<unsigned char const ,int> >,0> >::_Node *>::construct
_TEXT	ENDS
PUBLIC	??Econst_iterator@?$_Tree@V?$_Tmap_traits@EHU?$less@E@std@@V?$allocator@U?$pair@$$CBEH@std@@@2@$0A@@std@@@std@@QAEAAV012@XZ ; std::_Tree<std::_Tmap_traits<unsigned char,int,std::less<unsigned char>,std::allocator<std::pair<unsigned char const ,int> >,0> >::const_iterator::operator++
; Function compile flags: /Ogty
; File c:\program files\microsoft visual studio .net 2003\vc7\include\xtree
;	COMDAT ??Econst_iterator@?$_Tree@V?$_Tmap_traits@EHU?$less@E@std@@V?$allocator@U?$pair@$$CBEH@std@@@2@$0A@@std@@@std@@QAEAAV012@XZ
_TEXT	SEGMENT
??Econst_iterator@?$_Tree@V?$_Tmap_traits@EHU?$less@E@std@@V?$allocator@U?$pair@$$CBEH@std@@@2@$0A@@std@@@std@@QAEAAV012@XZ PROC NEAR ; std::_Tree<std::_Tmap_traits<unsigned char,int,std::less<unsigned char>,std::allocator<std::pair<unsigned char const ,int> >,0> >::const_iterator::operator++, COMDAT
; _this$ = ecx

; 214  : 			{	// preincrement

  00000	56		 push	 esi
  00001	8b f1		 mov	 esi, ecx

; 215  : 			_Inc();

  00003	e8 00 00 00 00	 call	 ?_Inc@const_iterator@?$_Tree@V?$_Tmap_traits@EHU?$less@E@std@@V?$allocator@U?$pair@$$CBEH@std@@@2@$0A@@std@@@std@@QAEXXZ ; std::_Tree<std::_Tmap_traits<unsigned char,int,std::less<unsigned char>,std::allocator<std::pair<unsigned char const ,int> >,0> >::const_iterator::_Inc

; 216  : 			return (*this);

  00008	8b c6		 mov	 eax, esi
  0000a	5e		 pop	 esi

; 217  : 			}

  0000b	c3		 ret	 0
??Econst_iterator@?$_Tree@V?$_Tmap_traits@EHU?$less@E@std@@V?$allocator@U?$pair@$$CBEH@std@@@2@$0A@@std@@@std@@QAEAAV012@XZ ENDP ; std::_Tree<std::_Tmap_traits<unsigned char,int,std::less<unsigned char>,std::allocator<std::pair<unsigned char const ,int> >,0> >::const_iterator::operator++
_TEXT	ENDS
PUBLIC	??$make_pair@EH@std@@YA?AU?$pair@EH@0@EH@Z	; std::make_pair<unsigned char,int>
; Function compile flags: /Ogty
; File c:\program files\microsoft visual studio .net 2003\vc7\include\utility
;	COMDAT ??$make_pair@EH@std@@YA?AU?$pair@EH@0@EH@Z
_TEXT	SEGMENT
___$ReturnUdt$ = 8					; size = 4
__Val1$ = 12						; size = 1
__Val2$ = 16						; size = 4
??$make_pair@EH@std@@YA?AU?$pair@EH@0@EH@Z PROC NEAR	; std::make_pair<unsigned char,int>, COMDAT

; 108  : 	return (pair<_Ty1, _Ty2>(_Val1, _Val2));

  00000	8b 44 24 04	 mov	 eax, DWORD PTR ___$ReturnUdt$[esp-4]
  00004	8a 4c 24 08	 mov	 cl, BYTE PTR __Val1$[esp-4]
  00008	8b 54 24 0c	 mov	 edx, DWORD PTR __Val2$[esp-4]
  0000c	88 08		 mov	 BYTE PTR [eax], cl
  0000e	89 50 04	 mov	 DWORD PTR [eax+4], edx

; 109  : 	}

  00011	c3		 ret	 0
??$make_pair@EH@std@@YA?AU?$pair@EH@0@EH@Z ENDP		; std::make_pair<unsigned char,int>
_TEXT	ENDS
PUBLIC	??$_Destroy_range@EV?$allocator@E@std@@@std@@YAXPAE0AAV?$allocator@E@0@@Z ; std::_Destroy_range<unsigned char,std::allocator<unsigned char> >
; Function compile flags: /Ogty
; File c:\program files\microsoft visual studio .net 2003\vc7\include\xmemory
;	COMDAT ??$_Destroy_range@EV?$allocator@E@std@@@std@@YAXPAE0AAV?$allocator@E@0@@Z
_TEXT	SEGMENT
__First$ = 8						; size = 4
__Last$ = 12						; size = 4
__Al$ = 16						; size = 4
??$_Destroy_range@EV?$allocator@E@std@@@std@@YAXPAE0AAV?$allocator@E@0@@Z PROC NEAR ; std::_Destroy_range<unsigned char,std::allocator<unsigned char> >, COMDAT

; 217  : 	_Destroy_range(_First, _Last, _Al, _Ptr_cat(_First, _Last));
; 218  : 	}

  00000	c3		 ret	 0
??$_Destroy_range@EV?$allocator@E@std@@@std@@YAXPAE0AAV?$allocator@E@0@@Z ENDP ; std::_Destroy_range<unsigned char,std::allocator<unsigned char> >
_TEXT	ENDS
PUBLIC	??$copy_backward@PAEPAE@std@@YAPAEPAE00@Z	; std::copy_backward<unsigned char *,unsigned char *>
; Function compile flags: /Ogty
; File c:\program files\microsoft visual studio .net 2003\vc7\include\xutility
;	COMDAT ??$copy_backward@PAEPAE@std@@YAPAEPAE00@Z
_TEXT	SEGMENT
__First$ = 8						; size = 4
__Last$ = 12						; size = 4
__Dest$ = 16						; size = 4
??$copy_backward@PAEPAE@std@@YAPAEPAE00@Z PROC NEAR	; std::copy_backward<unsigned char *,unsigned char *>, COMDAT

; 1068 : 	return (_Copy_backward_opt(_First, _Last, _Dest,
; 1069 : 		_Ptr_cat(_First, _Dest)));

  00000	8b 4c 24 04	 mov	 ecx, DWORD PTR __First$[esp-4]
  00004	8b 44 24 08	 mov	 eax, DWORD PTR __Last$[esp-4]
  00008	2b c1		 sub	 eax, ecx
  0000a	50		 push	 eax
  0000b	51		 push	 ecx
  0000c	8b 4c 24 14	 mov	 ecx, DWORD PTR __Dest$[esp+4]
  00010	2b c8		 sub	 ecx, eax
  00012	51		 push	 ecx
  00013	e8 00 00 00 00	 call	 _memmove
  00018	83 c4 0c	 add	 esp, 12			; 0000000cH

; 1070 : 	}

  0001b	c3		 ret	 0
??$copy_backward@PAEPAE@std@@YAPAEPAE00@Z ENDP		; std::copy_backward<unsigned char *,unsigned char *>
_TEXT	ENDS
PUBLIC	??$_Uninit_fill_n@EIE@std@@YAXPAEIABEAAV?$allocator@E@0@U_Scalar_ptr_iterator_tag@0@@Z ; std::_Uninit_fill_n<unsigned char,unsigned int,unsigned char>
; Function compile flags: /Ogty
; File c:\program files\microsoft visual studio .net 2003\vc7\include\memory
;	COMDAT ??$_Uninit_fill_n@EIE@std@@YAXPAEIABEAAV?$allocator@E@0@U_Scalar_ptr_iterator_tag@0@@Z
_TEXT	SEGMENT
__First$ = 8						; size = 4
__Count$ = 12						; size = 4
__Val$ = 16						; size = 4
___formal$ = 20						; size = 4
___formal$ = 24						; size = 1
??$_Uninit_fill_n@EIE@std@@YAXPAEIABEAAV?$allocator@E@0@U_Scalar_ptr_iterator_tag@0@@Z PROC NEAR ; std::_Uninit_fill_n<unsigned char,unsigned int,unsigned char>, COMDAT

; 237  : 	fill_n(_First, _Count, _Val);

  00000	8b 4c 24 08	 mov	 ecx, DWORD PTR __Count$[esp-4]
  00004	85 c9		 test	 ecx, ecx
  00006	8b 44 24 04	 mov	 eax, DWORD PTR __First$[esp-4]
  0000a	76 0e		 jbe	 SHORT $L190097
  0000c	56		 push	 esi
  0000d	8b 74 24 10	 mov	 esi, DWORD PTR __Val$[esp]
$L190095:
  00011	8a 16		 mov	 dl, BYTE PTR [esi]
  00013	88 10		 mov	 BYTE PTR [eax], dl
  00015	40		 inc	 eax
  00016	49		 dec	 ecx
  00017	75 f8		 jne	 SHORT $L190095
  00019	5e		 pop	 esi
$L190097:

; 238  : 	}

  0001a	c3		 ret	 0
??$_Uninit_fill_n@EIE@std@@YAXPAEIABEAAV?$allocator@E@0@U_Scalar_ptr_iterator_tag@0@@Z ENDP ; std::_Uninit_fill_n<unsigned char,unsigned int,unsigned char>
_TEXT	ENDS
PUBLIC	??$_Uninitialized_copy@PAEPAEV?$allocator@E@std@@@std@@YAPAEPAE00AAV?$allocator@E@0@@Z ; std::_Uninitialized_copy<unsigned char *,unsigned char *,std::allocator<unsigned char> >
; Function compile flags: /Ogty
;	COMDAT ??$_Uninitialized_copy@PAEPAEV?$allocator@E@std@@@std@@YAPAEPAE00AAV?$allocator@E@0@@Z
_TEXT	SEGMENT
__First$ = 8						; size = 4
__Last$ = 12						; size = 4
__Dest$ = 16						; size = 4
__Al$ = 20						; size = 4
??$_Uninitialized_copy@PAEPAEV?$allocator@E@std@@@std@@YAPAEPAE00AAV?$allocator@E@0@@Z PROC NEAR ; std::_Uninitialized_copy<unsigned char *,unsigned char *,std::allocator<unsigned char> >, COMDAT

; 127  : 	return (_Uninit_copy(_First, _Last, _Dest, _Al,
; 128  : 		_Ptr_cat(_First, _Dest)));

  00000	8b 44 24 04	 mov	 eax, DWORD PTR __First$[esp-4]
  00004	56		 push	 esi
  00005	8b 74 24 0c	 mov	 esi, DWORD PTR __Last$[esp]
  00009	2b f0		 sub	 esi, eax
  0000b	56		 push	 esi
  0000c	50		 push	 eax
  0000d	8b 44 24 18	 mov	 eax, DWORD PTR __Dest$[esp+8]
  00011	50		 push	 eax
  00012	e8 00 00 00 00	 call	 _memmove
  00017	83 c4 0c	 add	 esp, 12			; 0000000cH
  0001a	03 c6		 add	 eax, esi
  0001c	5e		 pop	 esi

; 129  : 	}

  0001d	c3		 ret	 0
??$_Uninitialized_copy@PAEPAEV?$allocator@E@std@@@std@@YAPAEPAE00AAV?$allocator@E@0@@Z ENDP ; std::_Uninitialized_copy<unsigned char *,unsigned char *,std::allocator<unsigned char> >
_TEXT	ENDS
PUBLIC	?construct@?$allocator@E@std@@QAEXPAEABE@Z	; std::allocator<unsigned char>::construct
; Function compile flags: /Ogty
; File c:\program files\microsoft visual studio .net 2003\vc7\include\xmemory
;	COMDAT ?construct@?$allocator@E@std@@QAEXPAEABE@Z
_TEXT	SEGMENT
__Ptr$ = 8						; size = 4
__Val$ = 12						; size = 4
?construct@?$allocator@E@std@@QAEXPAEABE@Z PROC NEAR	; std::allocator<unsigned char>::construct, COMDAT
; _this$ = ecx

; 147  : 		_Construct(_Ptr, _Val);

  00000	8b 44 24 04	 mov	 eax, DWORD PTR __Ptr$[esp-4]
  00004	85 c0		 test	 eax, eax
  00006	74 08		 je	 SHORT $L190126
  00008	8b 4c 24 08	 mov	 ecx, DWORD PTR __Val$[esp-4]
  0000c	8a 11		 mov	 dl, BYTE PTR [ecx]
  0000e	88 10		 mov	 BYTE PTR [eax], dl
$L190126:

; 148  : 		}

  00010	c2 08 00	 ret	 8
?construct@?$allocator@E@std@@QAEXPAEABE@Z ENDP		; std::allocator<unsigned char>::construct
_TEXT	ENDS
PUBLIC	?destroy@?$allocator@E@std@@QAEXPAE@Z		; std::allocator<unsigned char>::destroy
; Function compile flags: /Ogty
;	COMDAT ?destroy@?$allocator@E@std@@QAEXPAE@Z
_TEXT	SEGMENT
__Ptr$ = 8						; size = 4
?destroy@?$allocator@E@std@@QAEXPAE@Z PROC NEAR		; std::allocator<unsigned char>::destroy, COMDAT
; _this$ = ecx

; 152  : 		_Destroy(_Ptr);
; 153  : 		}

  00000	c2 04 00	 ret	 4
?destroy@?$allocator@E@std@@QAEXPAE@Z ENDP		; std::allocator<unsigned char>::destroy
_TEXT	ENDS
PUBLIC	??9const_iterator@?$vector@V?$basic_string@DU?$char_traits@D@std@@V?$allocator@D@2@@std@@V?$allocator@V?$basic_string@DU?$char_traits@D@std@@V?$allocator@D@2@@std@@@2@@std@@QBE_NABV012@@Z ; std::vector<std::basic_string<char,std::char_traits<char>,std::allocator<char> >,std::allocator<std::basic_string<char,std::char_traits<char>,std::allocator<char> > > >::const_iterator::operator!=
; Function compile flags: /Ogty
; File c:\program files\microsoft visual studio .net 2003\vc7\include\vector
;	COMDAT ??9const_iterator@?$vector@V?$basic_string@DU?$char_traits@D@std@@V?$allocator@D@2@@std@@V?$allocator@V?$basic_string@DU?$char_traits@D@std@@V?$allocator@D@2@@std@@@2@@std@@QBE_NABV012@@Z
_TEXT	SEGMENT
__Right$ = 8						; size = 4
??9const_iterator@?$vector@V?$basic_string@DU?$char_traits@D@std@@V?$allocator@D@2@@std@@V?$allocator@V?$basic_string@DU?$char_traits@D@std@@V?$allocator@D@2@@std@@@2@@std@@QBE_NABV012@@Z PROC NEAR ; std::vector<std::basic_string<char,std::char_traits<char>,std::allocator<char> >,std::allocator<std::basic_string<char,std::char_traits<char>,std::allocator<char> > > >::const_iterator::operator!=, COMDAT
; _this$ = ecx

; 160  : 			return (!(*this == _Right));

  00000	8b 01		 mov	 eax, DWORD PTR [ecx]
  00002	8b 54 24 04	 mov	 edx, DWORD PTR __Right$[esp-4]
  00006	56		 push	 esi
  00007	8b 32		 mov	 esi, DWORD PTR [edx]
  00009	33 c9		 xor	 ecx, ecx
  0000b	3b c6		 cmp	 eax, esi
  0000d	0f 95 c1	 setne	 cl
  00010	8a c1		 mov	 al, cl
  00012	5e		 pop	 esi

; 161  : 			}

  00013	c2 04 00	 ret	 4
??9const_iterator@?$vector@V?$basic_string@DU?$char_traits@D@std@@V?$allocator@D@2@@std@@V?$allocator@V?$basic_string@DU?$char_traits@D@std@@V?$allocator@D@2@@std@@@2@@std@@QBE_NABV012@@Z ENDP ; std::vector<std::basic_string<char,std::char_traits<char>,std::allocator<char> >,std::allocator<std::basic_string<char,std::char_traits<char>,std::allocator<char> > > >::const_iterator::operator!=
_TEXT	ENDS
PUBLIC	??9const_iterator@?$vector@EV?$allocator@E@std@@@std@@QBE_NABV012@@Z ; std::vector<unsigned char,std::allocator<unsigned char> >::const_iterator::operator!=
; Function compile flags: /Ogty
;	COMDAT ??9const_iterator@?$vector@EV?$allocator@E@std@@@std@@QBE_NABV012@@Z
_TEXT	SEGMENT
__Right$ = 8						; size = 4
??9const_iterator@?$vector@EV?$allocator@E@std@@@std@@QBE_NABV012@@Z PROC NEAR ; std::vector<unsigned char,std::allocator<unsigned char> >::const_iterator::operator!=, COMDAT
; _this$ = ecx

; 160  : 			return (!(*this == _Right));

  00000	8b 01		 mov	 eax, DWORD PTR [ecx]
  00002	8b 54 24 04	 mov	 edx, DWORD PTR __Right$[esp-4]
  00006	56		 push	 esi
  00007	8b 32		 mov	 esi, DWORD PTR [edx]
  00009	33 c9		 xor	 ecx, ecx
  0000b	3b c6		 cmp	 eax, esi
  0000d	0f 95 c1	 setne	 cl
  00010	8a c1		 mov	 al, cl
  00012	5e		 pop	 esi

; 161  : 			}

  00013	c2 04 00	 ret	 4
??9const_iterator@?$vector@EV?$allocator@E@std@@@std@@QBE_NABV012@@Z ENDP ; std::vector<unsigned char,std::allocator<unsigned char> >::const_iterator::operator!=
_TEXT	ENDS
PUBLIC	??0?$_String_val@DV?$allocator@D@std@@@std@@IAE@V?$allocator@D@1@@Z ; std::_String_val<char,std::allocator<char> >::_String_val<char,std::allocator<char> >
; Function compile flags: /Ogty
; File c:\program files\microsoft visual studio .net 2003\vc7\include\xstring
;	COMDAT ??0?$_String_val@DV?$allocator@D@std@@@std@@IAE@V?$allocator@D@1@@Z
_TEXT	SEGMENT
__Al$ = 8						; size = 1
??0?$_String_val@DV?$allocator@D@std@@@std@@IAE@V?$allocator@D@1@@Z PROC NEAR ; std::_String_val<char,std::allocator<char> >::_String_val<char,std::allocator<char> >, COMDAT
; _this$ = ecx

; 34   : 		{	// construct allocator from _Al

  00000	8b c1		 mov	 eax, ecx

; 35   : 		}

  00002	c2 04 00	 ret	 4
??0?$_String_val@DV?$allocator@D@std@@@std@@IAE@V?$allocator@D@1@@Z ENDP ; std::_String_val<char,std::allocator<char> >::_String_val<char,std::allocator<char> >
_TEXT	ENDS
PUBLIC	?_Eos@?$basic_string@DU?$char_traits@D@std@@V?$allocator@D@2@@std@@IAEXI@Z ; std::basic_string<char,std::char_traits<char>,std::allocator<char> >::_Eos
; Function compile flags: /Ogty
;	COMDAT ?_Eos@?$basic_string@DU?$char_traits@D@std@@V?$allocator@D@2@@std@@IAEXI@Z
_TEXT	SEGMENT
__Newsize$ = 8						; size = 4
?_Eos@?$basic_string@DU?$char_traits@D@std@@V?$allocator@D@2@@std@@IAEXI@Z PROC NEAR ; std::basic_string<char,std::char_traits<char>,std::allocator<char> >::_Eos, COMDAT
; _this$ = ecx

; 1475 : 		_Traits::assign(_Myptr()[_Mysize = _Newsize], _Elem());

  00000	83 79 18 10	 cmp	 DWORD PTR [ecx+24], 16	; 00000010H
  00004	8b 44 24 04	 mov	 eax, DWORD PTR __Newsize$[esp-4]
  00008	89 41 14	 mov	 DWORD PTR [ecx+20], eax
  0000b	72 0a		 jb	 SHORT $L190158
  0000d	8b 49 04	 mov	 ecx, DWORD PTR [ecx+4]
  00010	c6 04 01 00	 mov	 BYTE PTR [ecx+eax], 0

; 1476 : 		}

  00014	c2 04 00	 ret	 4

; 1475 : 		_Traits::assign(_Myptr()[_Mysize = _Newsize], _Elem());

$L190158:
  00017	c6 44 01 04 00	 mov	 BYTE PTR [ecx+eax+4], 0

; 1476 : 		}

  0001c	c2 04 00	 ret	 4
?_Eos@?$basic_string@DU?$char_traits@D@std@@V?$allocator@D@2@@std@@IAEXI@Z ENDP ; std::basic_string<char,std::char_traits<char>,std::allocator<char> >::_Eos
_TEXT	ENDS
PUBLIC	?max_size@?$basic_string@DU?$char_traits@D@std@@V?$allocator@D@2@@std@@QBEIXZ ; std::basic_string<char,std::char_traits<char>,std::allocator<char> >::max_size
; Function compile flags: /Ogty
;	COMDAT ?max_size@?$basic_string@DU?$char_traits@D@std@@V?$allocator@D@2@@std@@QBEIXZ
_TEXT	SEGMENT
?max_size@?$basic_string@DU?$char_traits@D@std@@V?$allocator@D@2@@std@@QBEIXZ PROC NEAR ; std::basic_string<char,std::char_traits<char>,std::allocator<char> >::max_size, COMDAT
; _this$ = ecx

; 1114 : 		size_type _Num = _Mybase::_Alval.max_size();
; 1115 : 		return (_Num <= 1 ? 1 : _Num - 1);

  00000	b8 fe ff ff ff	 mov	 eax, -2			; fffffffeH

; 1116 : 		}

  00005	c3		 ret	 0
?max_size@?$basic_string@DU?$char_traits@D@std@@V?$allocator@D@2@@std@@QBEIXZ ENDP ; std::basic_string<char,std::char_traits<char>,std::allocator<char> >::max_size
_TEXT	ENDS
PUBLIC	?allocate@?$allocator@D@std@@QAEPADI@Z		; std::allocator<char>::allocate
; Function compile flags: /Ogty
; File c:\program files\microsoft visual studio .net 2003\vc7\include\xmemory
;	COMDAT ?allocate@?$allocator@D@std@@QAEPADI@Z
_TEXT	SEGMENT
__Count$ = 8						; size = 4
?allocate@?$allocator@D@std@@QAEPADI@Z PROC NEAR	; std::allocator<char>::allocate, COMDAT
; _this$ = ecx

; 137  : 		return (_Allocate(_Count, (pointer)0));

  00000	8b 44 24 04	 mov	 eax, DWORD PTR __Count$[esp-4]
  00004	50		 push	 eax
  00005	e8 00 00 00 00	 call	 ??2@YAPAXI@Z		; operator new
  0000a	83 c4 04	 add	 esp, 4

; 138  : 		}

  0000d	c2 04 00	 ret	 4
?allocate@?$allocator@D@std@@QAEPADI@Z ENDP		; std::allocator<char>::allocate
_TEXT	ENDS
PUBLIC	?begin@?$_Tree@V?$_Tmap_traits@EHU?$less@E@std@@V?$allocator@U?$pair@$$CBEH@std@@@2@$0A@@std@@@std@@QAE?AViterator@12@XZ ; std::_Tree<std::_Tmap_traits<unsigned char,int,std::less<unsigned char>,std::allocator<std::pair<unsigned char const ,int> >,0> >::begin
; Function compile flags: /Ogty
; File c:\program files\microsoft visual studio .net 2003\vc7\include\xtree
;	COMDAT ?begin@?$_Tree@V?$_Tmap_traits@EHU?$less@E@std@@V?$allocator@U?$pair@$$CBEH@std@@@2@$0A@@std@@@std@@QAE?AViterator@12@XZ
_TEXT	SEGMENT
___$ReturnUdt$ = 8					; size = 4
?begin@?$_Tree@V?$_Tmap_traits@EHU?$less@E@std@@V?$allocator@U?$pair@$$CBEH@std@@@2@$0A@@std@@@std@@QAE?AViterator@12@XZ PROC NEAR ; std::_Tree<std::_Tmap_traits<unsigned char,int,std::less<unsigned char>,std::allocator<std::pair<unsigned char const ,int> >,0> >::begin, COMDAT
; _this$ = ecx

; 408  : 		return (_TREE_ITERATOR(_Lmost()));

  00000	8b 41 04	 mov	 eax, DWORD PTR [ecx+4]
  00003	8b 08		 mov	 ecx, DWORD PTR [eax]
  00005	8b 44 24 04	 mov	 eax, DWORD PTR ___$ReturnUdt$[esp-4]
  00009	89 08		 mov	 DWORD PTR [eax], ecx

; 409  : 		}

  0000b	c2 04 00	 ret	 4
?begin@?$_Tree@V?$_Tmap_traits@EHU?$less@E@std@@V?$allocator@U?$pair@$$CBEH@std@@@2@$0A@@std@@@std@@QAE?AViterator@12@XZ ENDP ; std::_Tree<std::_Tmap_traits<unsigned char,int,std::less<unsigned char>,std::allocator<std::pair<unsigned char const ,int> >,0> >::begin
_TEXT	ENDS
PUBLIC	?_Erase@?$_Tree@V?$_Tmap_traits@EHU?$less@E@std@@V?$allocator@U?$pair@$$CBEH@std@@@2@$0A@@std@@@std@@IAEXPAU_Node@?$_Tree_nod@V?$_Tmap_traits@EHU?$less@E@std@@V?$allocator@U?$pair@$$CBEH@std@@@2@$0A@@std@@@2@@Z ; std::_Tree<std::_Tmap_traits<unsigned char,int,std::less<unsigned char>,std::allocator<std::pair<unsigned char const ,int> >,0> >::_Erase
; Function compile flags: /Ogty
;	COMDAT ?_Erase@?$_Tree@V?$_Tmap_traits@EHU?$less@E@std@@V?$allocator@U?$pair@$$CBEH@std@@@2@$0A@@std@@@std@@IAEXPAU_Node@?$_Tree_nod@V?$_Tmap_traits@EHU?$less@E@std@@V?$allocator@U?$pair@$$CBEH@std@@@2@$0A@@std@@@2@@Z
_TEXT	SEGMENT
__Rootnode$ = 8						; size = 4
?_Erase@?$_Tree@V?$_Tmap_traits@EHU?$less@E@std@@V?$allocator@U?$pair@$$CBEH@std@@@2@$0A@@std@@@std@@IAEXPAU_Node@?$_Tree_nod@V?$_Tmap_traits@EHU?$less@E@std@@V?$allocator@U?$pair@$$CBEH@std@@@2@$0A@@std@@@2@@Z PROC NEAR ; std::_Tree<std::_Tmap_traits<unsigned char,int,std::less<unsigned char>,std::allocator<std::pair<unsigned char const ,int> >,0> >::_Erase, COMDAT
; _this$ = ecx

; 890  : 		{	// free entire subtree, recursively

  00000	53		 push	 ebx
  00001	56		 push	 esi
  00002	57		 push	 edi

; 891  : 		for (_Nodeptr _Pnode = _Rootnode; !_Isnil(_Pnode); _Rootnode = _Pnode)

  00003	8b 7c 24 10	 mov	 edi, DWORD PTR __Rootnode$[esp+8]
  00007	8a 47 15	 mov	 al, BYTE PTR [edi+21]
  0000a	84 c0		 test	 al, al
  0000c	8b d9		 mov	 ebx, ecx
  0000e	8b f7		 mov	 esi, edi
  00010	75 1f		 jne	 SHORT $L187717
$L187715:

; 892  : 			{	// free subtrees, then node
; 893  : 			_Erase(_Right(_Pnode));

  00012	8b 46 08	 mov	 eax, DWORD PTR [esi+8]
  00015	50		 push	 eax
  00016	8b cb		 mov	 ecx, ebx
  00018	e8 00 00 00 00	 call	 ?_Erase@?$_Tree@V?$_Tmap_traits@EHU?$less@E@std@@V?$allocator@U?$pair@$$CBEH@std@@@2@$0A@@std@@@std@@IAEXPAU_Node@?$_Tree_nod@V?$_Tmap_traits@EHU?$less@E@std@@V?$allocator@U?$pair@$$CBEH@std@@@2@$0A@@std@@@2@@Z ; std::_Tree<std::_Tmap_traits<unsigned char,int,std::less<unsigned char>,std::allocator<std::pair<unsigned char const ,int> >,0> >::_Erase

; 894  : 			_Pnode = _Left(_Pnode);

  0001d	8b 36		 mov	 esi, DWORD PTR [esi]

; 895  : 			this->_Alnod.destroy(_Rootnode);	// destroy, free erased node
; 896  : 			this->_Alnod.deallocate(_Rootnode, 1);

  0001f	57		 push	 edi
  00020	e8 00 00 00 00	 call	 ??3@YAXPAX@Z		; operator delete
  00025	8a 46 15	 mov	 al, BYTE PTR [esi+21]
  00028	83 c4 04	 add	 esp, 4
  0002b	84 c0		 test	 al, al
  0002d	8b fe		 mov	 edi, esi
  0002f	74 e1		 je	 SHORT $L187715
$L187717:
  00031	5f		 pop	 edi
  00032	5e		 pop	 esi
  00033	5b		 pop	 ebx

; 897  : 			}
; 898  : 		}

  00034	c2 04 00	 ret	 4
?_Erase@?$_Tree@V?$_Tmap_traits@EHU?$less@E@std@@V?$allocator@U?$pair@$$CBEH@std@@@2@$0A@@std@@@std@@IAEXPAU_Node@?$_Tree_nod@V?$_Tmap_traits@EHU?$less@E@std@@V?$allocator@U?$pair@$$CBEH@std@@@2@$0A@@std@@@2@@Z ENDP ; std::_Tree<std::_Tmap_traits<unsigned char,int,std::less<unsigned char>,std::allocator<std::pair<unsigned char const ,int> >,0> >::_Erase
_TEXT	ENDS
PUBLIC	?_Buynode@?$_Tree@V?$_Tmap_traits@EHU?$less@E@std@@V?$allocator@U?$pair@$$CBEH@std@@@2@$0A@@std@@@std@@IAEPAU_Node@?$_Tree_nod@V?$_Tmap_traits@EHU?$less@E@std@@V?$allocator@U?$pair@$$CBEH@std@@@2@$0A@@std@@@2@PAU342@00ABU?$pair@$$CBEH@2@D@Z ; std::_Tree<std::_Tmap_traits<unsigned char,int,std::less<unsigned char>,std::allocator<std::pair<unsigned char const ,int> >,0> >::_Buynode
EXTRN	__CxxThrowException@8:NEAR
; Function compile flags: /Ogty
;	COMDAT ?_Buynode@?$_Tree@V?$_Tmap_traits@EHU?$less@E@std@@V?$allocator@U?$pair@$$CBEH@std@@@2@$0A@@std@@@std@@IAEPAU_Node@?$_Tree_nod@V?$_Tmap_traits@EHU?$less@E@std@@V?$allocator@U?$pair@$$CBEH@std@@@2@$0A@@std@@@2@PAU342@00ABU?$pair@$$CBEH@2@D@Z
_TEXT	SEGMENT
__Larg$ = 8						; size = 4
__Parg$ = 12						; size = 4
__Rarg$ = 16						; size = 4
__Val$ = 20						; size = 4
__Carg$ = 24						; size = 1
?_Buynode@?$_Tree@V?$_Tmap_traits@EHU?$less@E@std@@V?$allocator@U?$pair@$$CBEH@std@@@2@$0A@@std@@@std@@IAEPAU_Node@?$_Tree_nod@V?$_Tmap_traits@EHU?$less@E@std@@V?$allocator@U?$pair@$$CBEH@std@@@2@$0A@@std@@@2@PAU342@00ABU?$pair@$$CBEH@2@D@Z PROC NEAR ; std::_Tree<std::_Tmap_traits<unsigned char,int,std::less<unsigned char>,std::allocator<std::pair<unsigned char const ,int> >,0> >::_Buynode, COMDAT
; _this$ = ecx

; 1131 : 		_Nodeptr _Wherenode = this->_Alnod.allocate(1);

  00000	6a 18		 push	 24			; 00000018H
  00002	e8 00 00 00 00	 call	 ??2@YAPAXI@Z		; operator new
  00007	83 c4 04	 add	 esp, 4

; 1132 : 		_TRY_BEGIN
; 1133 : 		new (_Wherenode) _Node(_Larg, _Parg, _Rarg, _Val, _Carg);

  0000a	85 c0		 test	 eax, eax
  0000c	74 2e		 je	 SHORT $L190220
  0000e	8b 4c 24 04	 mov	 ecx, DWORD PTR __Larg$[esp-4]
  00012	8b 54 24 08	 mov	 edx, DWORD PTR __Parg$[esp-4]
  00016	89 08		 mov	 DWORD PTR [eax], ecx
  00018	8b 4c 24 0c	 mov	 ecx, DWORD PTR __Rarg$[esp-4]
  0001c	89 48 08	 mov	 DWORD PTR [eax+8], ecx
  0001f	8b 4c 24 10	 mov	 ecx, DWORD PTR __Val$[esp-4]
  00023	89 50 04	 mov	 DWORD PTR [eax+4], edx
  00026	8b 11		 mov	 edx, DWORD PTR [ecx]
  00028	89 50 0c	 mov	 DWORD PTR [eax+12], edx
  0002b	8b 49 04	 mov	 ecx, DWORD PTR [ecx+4]
  0002e	8a 54 24 14	 mov	 dl, BYTE PTR __Carg$[esp-4]
  00032	89 48 10	 mov	 DWORD PTR [eax+16], ecx
  00035	88 50 14	 mov	 BYTE PTR [eax+20], dl
  00038	c6 40 15 00	 mov	 BYTE PTR [eax+21], 0
$L190220:

; 1134 : 		_CATCH_ALL
; 1135 : 		this->_Alnod.deallocate(_Wherenode, 1);
; 1136 : 		_RERAISE;
; 1137 : 		_CATCH_END
; 1138 : 		return (_Wherenode);
; 1139 : 		}

  0003c	c2 14 00	 ret	 20			; 00000014H
?_Buynode@?$_Tree@V?$_Tmap_traits@EHU?$less@E@std@@V?$allocator@U?$pair@$$CBEH@std@@@2@$0A@@std@@@std@@IAEPAU_Node@?$_Tree_nod@V?$_Tmap_traits@EHU?$less@E@std@@V?$allocator@U?$pair@$$CBEH@std@@@2@$0A@@std@@@2@PAU342@00ABU?$pair@$$CBEH@2@D@Z ENDP ; std::_Tree<std::_Tmap_traits<unsigned char,int,std::less<unsigned char>,std::allocator<std::pair<unsigned char const ,int> >,0> >::_Buynode
_TEXT	ENDS
PUBLIC	??Fconst_iterator@?$_Tree@V?$_Tmap_traits@EHU?$less@E@std@@V?$allocator@U?$pair@$$CBEH@std@@@2@$0A@@std@@@std@@QAEAAV012@XZ ; std::_Tree<std::_Tmap_traits<unsigned char,int,std::less<unsigned char>,std::allocator<std::pair<unsigned char const ,int> >,0> >::const_iterator::operator--
; Function compile flags: /Ogty
;	COMDAT ??Fconst_iterator@?$_Tree@V?$_Tmap_traits@EHU?$less@E@std@@V?$allocator@U?$pair@$$CBEH@std@@@2@$0A@@std@@@std@@QAEAAV012@XZ
_TEXT	SEGMENT
??Fconst_iterator@?$_Tree@V?$_Tmap_traits@EHU?$less@E@std@@V?$allocator@U?$pair@$$CBEH@std@@@2@$0A@@std@@@std@@QAEAAV012@XZ PROC NEAR ; std::_Tree<std::_Tmap_traits<unsigned char,int,std::less<unsigned char>,std::allocator<std::pair<unsigned char const ,int> >,0> >::const_iterator::operator--, COMDAT
; _this$ = ecx

; 227  : 			{	// predecrement

  00000	56		 push	 esi
  00001	8b f1		 mov	 esi, ecx

; 228  : 			_Dec();

  00003	e8 00 00 00 00	 call	 ?_Dec@const_iterator@?$_Tree@V?$_Tmap_traits@EHU?$less@E@std@@V?$allocator@U?$pair@$$CBEH@std@@@2@$0A@@std@@@std@@QAEXXZ ; std::_Tree<std::_Tmap_traits<unsigned char,int,std::less<unsigned char>,std::allocator<std::pair<unsigned char const ,int> >,0> >::const_iterator::_Dec

; 229  : 			return (*this);

  00008	8b c6		 mov	 eax, esi
  0000a	5e		 pop	 esi

; 230  : 			}

  0000b	c3		 ret	 0
??Fconst_iterator@?$_Tree@V?$_Tmap_traits@EHU?$less@E@std@@V?$allocator@U?$pair@$$CBEH@std@@@2@$0A@@std@@@std@@QAEAAV012@XZ ENDP ; std::_Tree<std::_Tmap_traits<unsigned char,int,std::less<unsigned char>,std::allocator<std::pair<unsigned char const ,int> >,0> >::const_iterator::operator--
_TEXT	ENDS
PUBLIC	?_Destroy@?$vector@EV?$allocator@E@std@@@std@@IAEXPAE0@Z ; std::vector<unsigned char,std::allocator<unsigned char> >::_Destroy
; Function compile flags: /Ogty
; File c:\program files\microsoft visual studio .net 2003\vc7\include\vector
;	COMDAT ?_Destroy@?$vector@EV?$allocator@E@std@@@std@@IAEXPAE0@Z
_TEXT	SEGMENT
__First$ = 8						; size = 4
__Last$ = 12						; size = 4
?_Destroy@?$vector@EV?$allocator@E@std@@@std@@IAEXPAE0@Z PROC NEAR ; std::vector<unsigned char,std::allocator<unsigned char> >::_Destroy, COMDAT
; _this$ = ecx

; 787  : 		_Destroy_range(_First, _Last, this->_Alval);
; 788  : 		}

  00000	c2 08 00	 ret	 8
?_Destroy@?$vector@EV?$allocator@E@std@@@std@@IAEXPAE0@Z ENDP ; std::vector<unsigned char,std::allocator<unsigned char> >::_Destroy
_TEXT	ENDS
PUBLIC	?_Buynode@?$_Tree@V?$_Tmap_traits@EHU?$less@E@std@@V?$allocator@U?$pair@$$CBEH@std@@@2@$0A@@std@@@std@@IAEPAU_Node@?$_Tree_nod@V?$_Tmap_traits@EHU?$less@E@std@@V?$allocator@U?$pair@$$CBEH@std@@@2@$0A@@std@@@2@XZ ; std::_Tree<std::_Tmap_traits<unsigned char,int,std::less<unsigned char>,std::allocator<std::pair<unsigned char const ,int> >,0> >::_Buynode
; Function compile flags: /Ogty
; File c:\program files\microsoft visual studio .net 2003\vc7\include\xtree
;	COMDAT ?_Buynode@?$_Tree@V?$_Tmap_traits@EHU?$less@E@std@@V?$allocator@U?$pair@$$CBEH@std@@@2@$0A@@std@@@std@@IAEPAU_Node@?$_Tree_nod@V?$_Tmap_traits@EHU?$less@E@std@@V?$allocator@U?$pair@$$CBEH@std@@@2@$0A@@std@@@2@XZ
_TEXT	SEGMENT
?_Buynode@?$_Tree@V?$_Tmap_traits@EHU?$less@E@std@@V?$allocator@U?$pair@$$CBEH@std@@@2@$0A@@std@@@std@@IAEPAU_Node@?$_Tree_nod@V?$_Tmap_traits@EHU?$less@E@std@@V?$allocator@U?$pair@$$CBEH@std@@@2@$0A@@std@@@2@XZ PROC NEAR ; std::_Tree<std::_Tmap_traits<unsigned char,int,std::less<unsigned char>,std::allocator<std::pair<unsigned char const ,int> >,0> >::_Buynode, COMDAT
; _this$ = ecx

; 1106 : 		_Nodeptr _Wherenode = this->_Alnod.allocate(1);

  00000	6a 18		 push	 24			; 00000018H
  00002	e8 00 00 00 00	 call	 ??2@YAPAXI@Z		; operator new
  00007	83 c4 04	 add	 esp, 4

; 1107 : 		int _Linkcnt = 0;
; 1108 : 
; 1109 : 		_TRY_BEGIN
; 1110 : 		this->_Alptr.construct(&_Left(_Wherenode), 0);

  0000a	85 c0		 test	 eax, eax
  0000c	74 06		 je	 SHORT $L190289
  0000e	c7 00 00 00 00
	00		 mov	 DWORD PTR [eax], 0
$L190289:

; 1111 : 		++_Linkcnt;
; 1112 : 		this->_Alptr.construct(&_Parent(_Wherenode), 0);

  00014	8d 48 04	 lea	 ecx, DWORD PTR [eax+4]
  00017	85 c9		 test	 ecx, ecx
  00019	74 06		 je	 SHORT $L190317
  0001b	c7 01 00 00 00
	00		 mov	 DWORD PTR [ecx], 0
$L190317:

; 1113 : 		++_Linkcnt;
; 1114 : 		this->_Alptr.construct(&_Right(_Wherenode), 0);

  00021	8d 48 08	 lea	 ecx, DWORD PTR [eax+8]
  00024	85 c9		 test	 ecx, ecx
  00026	74 06		 je	 SHORT $L190344
  00028	c7 01 00 00 00
	00		 mov	 DWORD PTR [ecx], 0
$L190344:

; 1115 : 		_CATCH_ALL
; 1116 : 		if (1 < _Linkcnt)
; 1117 : 			this->_Alptr.destroy(&_Parent(_Wherenode));
; 1118 : 		if (0 < _Linkcnt)
; 1119 : 			this->_Alptr.destroy(&_Left(_Wherenode));
; 1120 : 		this->_Alnod.deallocate(_Wherenode, 1);
; 1121 : 		_RERAISE;
; 1122 : 		_CATCH_END
; 1123 : 		_Color(_Wherenode) = _Black;

  0002e	c6 40 14 01	 mov	 BYTE PTR [eax+20], 1

; 1124 : 		_Isnil(_Wherenode) = false;

  00032	c6 40 15 00	 mov	 BYTE PTR [eax+21], 0

; 1125 : 		return (_Wherenode);
; 1126 : 		}

  00036	c3		 ret	 0
?_Buynode@?$_Tree@V?$_Tmap_traits@EHU?$less@E@std@@V?$allocator@U?$pair@$$CBEH@std@@@2@$0A@@std@@@std@@IAEPAU_Node@?$_Tree_nod@V?$_Tmap_traits@EHU?$less@E@std@@V?$allocator@U?$pair@$$CBEH@std@@@2@$0A@@std@@@2@XZ ENDP ; std::_Tree<std::_Tmap_traits<unsigned char,int,std::less<unsigned char>,std::allocator<std::pair<unsigned char const ,int> >,0> >::_Buynode
_TEXT	ENDS
PUBLIC	??0?$_Tree_ptr@V?$_Tmap_traits@EHU?$less@E@std@@V?$allocator@U?$pair@$$CBEH@std@@@2@$0A@@std@@@std@@IAE@ABU?$less@E@1@V?$allocator@U?$pair@$$CBEH@std@@@1@@Z ; std::_Tree_ptr<std::_Tmap_traits<unsigned char,int,std::less<unsigned char>,std::allocator<std::pair<unsigned char const ,int> >,0> >::_Tree_ptr<std::_Tmap_traits<unsigned char,int,std::less<unsigned char>,std::allocator<std::pair<unsigned char const ,int> >,0> >
; Function compile flags: /Ogty
;	COMDAT ??0?$_Tree_ptr@V?$_Tmap_traits@EHU?$less@E@std@@V?$allocator@U?$pair@$$CBEH@std@@@2@$0A@@std@@@std@@IAE@ABU?$less@E@1@V?$allocator@U?$pair@$$CBEH@std@@@1@@Z
_TEXT	SEGMENT
__Parg$ = 8						; size = 4
__Al$ = 12						; size = 1
??0?$_Tree_ptr@V?$_Tmap_traits@EHU?$less@E@std@@V?$allocator@U?$pair@$$CBEH@std@@@2@$0A@@std@@@std@@IAE@ABU?$less@E@1@V?$allocator@U?$pair@$$CBEH@std@@@1@@Z PROC NEAR ; std::_Tree_ptr<std::_Tmap_traits<unsigned char,int,std::less<unsigned char>,std::allocator<std::pair<unsigned char const ,int> >,0> >::_Tree_ptr<std::_Tmap_traits<unsigned char,int,std::less<unsigned char>,std::allocator<std::pair<unsigned char const ,int> >,0> >, COMDAT
; _this$ = ecx

; 76   : 		{	// construct base, and allocator from _Al

  00000	8b c1		 mov	 eax, ecx

; 77   : 		}

  00002	c2 08 00	 ret	 8
??0?$_Tree_ptr@V?$_Tmap_traits@EHU?$less@E@std@@V?$allocator@U?$pair@$$CBEH@std@@@2@$0A@@std@@@std@@IAE@ABU?$less@E@1@V?$allocator@U?$pair@$$CBEH@std@@@1@@Z ENDP ; std::_Tree_ptr<std::_Tmap_traits<unsigned char,int,std::less<unsigned char>,std::allocator<std::pair<unsigned char const ,int> >,0> >::_Tree_ptr<std::_Tmap_traits<unsigned char,int,std::less<unsigned char>,std::allocator<std::pair<unsigned char const ,int> >,0> >
_TEXT	ENDS
PUBLIC	??Eiterator@?$_Tree@V?$_Tmap_traits@EHU?$less@E@std@@V?$allocator@U?$pair@$$CBEH@std@@@2@$0A@@std@@@std@@QAEAAV012@XZ ; std::_Tree<std::_Tmap_traits<unsigned char,int,std::less<unsigned char>,std::allocator<std::pair<unsigned char const ,int> >,0> >::iterator::operator++
; Function compile flags: /Ogty
;	COMDAT ??Eiterator@?$_Tree@V?$_Tmap_traits@EHU?$less@E@std@@V?$allocator@U?$pair@$$CBEH@std@@@2@$0A@@std@@@std@@QAEAAV012@XZ
_TEXT	SEGMENT
??Eiterator@?$_Tree@V?$_Tmap_traits@EHU?$less@E@std@@V?$allocator@U?$pair@$$CBEH@std@@@2@$0A@@std@@@std@@QAEAAV012@XZ PROC NEAR ; std::_Tree<std::_Tmap_traits<unsigned char,int,std::less<unsigned char>,std::allocator<std::pair<unsigned char const ,int> >,0> >::iterator::operator++, COMDAT
; _this$ = ecx

; 326  : 			{	// preincrement

  00000	56		 push	 esi
  00001	8b f1		 mov	 esi, ecx

; 327  : 			++(*(const_iterator *)this);

  00003	e8 00 00 00 00	 call	 ?_Inc@const_iterator@?$_Tree@V?$_Tmap_traits@EHU?$less@E@std@@V?$allocator@U?$pair@$$CBEH@std@@@2@$0A@@std@@@std@@QAEXXZ ; std::_Tree<std::_Tmap_traits<unsigned char,int,std::less<unsigned char>,std::allocator<std::pair<unsigned char const ,int> >,0> >::const_iterator::_Inc

; 328  : 			return (*this);

  00008	8b c6		 mov	 eax, esi
  0000a	5e		 pop	 esi

; 329  : 			}

  0000b	c3		 ret	 0
??Eiterator@?$_Tree@V?$_Tmap_traits@EHU?$less@E@std@@V?$allocator@U?$pair@$$CBEH@std@@@2@$0A@@std@@@std@@QAEAAV012@XZ ENDP ; std::_Tree<std::_Tmap_traits<unsigned char,int,std::less<unsigned char>,std::allocator<std::pair<unsigned char const ,int> >,0> >::iterator::operator++
_TEXT	ENDS
PUBLIC	??$_Uninitialized_fill_n@PAEIEV?$allocator@E@std@@@std@@YAXPAEIABEAAV?$allocator@E@0@@Z ; std::_Uninitialized_fill_n<unsigned char *,unsigned int,unsigned char,std::allocator<unsigned char> >
; Function compile flags: /Ogty
; File c:\program files\microsoft visual studio .net 2003\vc7\include\memory
;	COMDAT ??$_Uninitialized_fill_n@PAEIEV?$allocator@E@std@@@std@@YAXPAEIABEAAV?$allocator@E@0@@Z
_TEXT	SEGMENT
__First$ = 8						; size = 4
__Count$ = 12						; size = 4
__Val$ = 16						; size = 4
__Al$ = 20						; size = 4
??$_Uninitialized_fill_n@PAEIEV?$allocator@E@std@@@std@@YAXPAEIABEAAV?$allocator@E@0@@Z PROC NEAR ; std::_Uninitialized_fill_n<unsigned char *,unsigned int,unsigned char,std::allocator<unsigned char> >, COMDAT

; 256  : 	_Uninit_fill_n(_First, _Count, _Val, _Al,
; 257  : 		_Ptr_cat(_First, _First));

  00000	8b 4c 24 08	 mov	 ecx, DWORD PTR __Count$[esp-4]
  00004	85 c9		 test	 ecx, ecx
  00006	8b 44 24 04	 mov	 eax, DWORD PTR __First$[esp-4]
  0000a	76 0e		 jbe	 SHORT $L190415
  0000c	56		 push	 esi
  0000d	8b 74 24 10	 mov	 esi, DWORD PTR __Val$[esp]
$L190413:
  00011	8a 16		 mov	 dl, BYTE PTR [esi]
  00013	88 10		 mov	 BYTE PTR [eax], dl
  00015	40		 inc	 eax
  00016	49		 dec	 ecx
  00017	75 f8		 jne	 SHORT $L190413
  00019	5e		 pop	 esi
$L190415:

; 258  : 	}

  0001a	c3		 ret	 0
??$_Uninitialized_fill_n@PAEIEV?$allocator@E@std@@@std@@YAXPAEIABEAAV?$allocator@E@0@@Z ENDP ; std::_Uninitialized_fill_n<unsigned char *,unsigned int,unsigned char,std::allocator<unsigned char> >
_TEXT	ENDS
PUBLIC	??$_Ucopy@PAE@?$vector@EV?$allocator@E@std@@@std@@IAEPAEPAE00@Z ; std::vector<unsigned char,std::allocator<unsigned char> >::_Ucopy<unsigned char *>
; Function compile flags: /Ogty
; File c:\program files\microsoft visual studio .net 2003\vc7\include\vector
;	COMDAT ??$_Ucopy@PAE@?$vector@EV?$allocator@E@std@@@std@@IAEPAEPAE00@Z
_TEXT	SEGMENT
__First$ = 8						; size = 4
__Last$ = 12						; size = 4
__Ptr$ = 16						; size = 4
??$_Ucopy@PAE@?$vector@EV?$allocator@E@std@@@std@@IAEPAEPAE00@Z PROC NEAR ; std::vector<unsigned char,std::allocator<unsigned char> >::_Ucopy<unsigned char *>, COMDAT
; _this$ = ecx

; 802  : 		{	// copy initializing [_First, _Last), using allocator
; 803  : 		return (_Uninitialized_copy(_First, _Last,
; 804  : 			_Ptr, this->_Alval));

  00000	8b 44 24 04	 mov	 eax, DWORD PTR __First$[esp-4]
  00004	56		 push	 esi
  00005	8b 74 24 0c	 mov	 esi, DWORD PTR __Last$[esp]
  00009	2b f0		 sub	 esi, eax
  0000b	56		 push	 esi
  0000c	50		 push	 eax
  0000d	8b 44 24 18	 mov	 eax, DWORD PTR __Ptr$[esp+8]
  00011	50		 push	 eax
  00012	e8 00 00 00 00	 call	 _memmove
  00017	83 c4 0c	 add	 esp, 12			; 0000000cH
  0001a	03 c6		 add	 eax, esi
  0001c	5e		 pop	 esi

; 805  : 		}

  0001d	c2 0c 00	 ret	 12			; 0000000cH
??$_Ucopy@PAE@?$vector@EV?$allocator@E@std@@@std@@IAEPAEPAE00@Z ENDP ; std::vector<unsigned char,std::allocator<unsigned char> >::_Ucopy<unsigned char *>
_TEXT	ENDS
PUBLIC	??$_Uninit_copy@Vconst_iterator@?$vector@EV?$allocator@E@std@@@std@@PAEV?$allocator@E@3@@std@@YAPAEVconst_iterator@?$vector@EV?$allocator@E@std@@@0@0PAEAAV?$allocator@E@0@U_Nonscalar_ptr_iterator_tag@0@@Z ; std::_Uninit_copy<std::vector<unsigned char,std::allocator<unsigned char> >::const_iterator,unsigned char *,std::allocator<unsigned char> >
; Function compile flags: /Ogty
; File c:\program files\microsoft visual studio .net 2003\vc7\include\memory
;	COMDAT ??$_Uninit_copy@Vconst_iterator@?$vector@EV?$allocator@E@std@@@std@@PAEV?$allocator@E@3@@std@@YAPAEVconst_iterator@?$vector@EV?$allocator@E@std@@@0@0PAEAAV?$allocator@E@0@U_Nonscalar_ptr_iterator_tag@0@@Z
_TEXT	SEGMENT
__First$ = 8						; size = 4
__Last$ = 12						; size = 4
__Dest$ = 16						; size = 4
__Al$ = 20						; size = 4
___formal$ = 24						; size = 1
??$_Uninit_copy@Vconst_iterator@?$vector@EV?$allocator@E@std@@@std@@PAEV?$allocator@E@3@@std@@YAPAEVconst_iterator@?$vector@EV?$allocator@E@std@@@0@0PAEAAV?$allocator@E@0@U_Nonscalar_ptr_iterator_tag@0@@Z PROC NEAR ; std::_Uninit_copy<std::vector<unsigned char,std::allocator<unsigned char> >::const_iterator,unsigned char *,std::allocator<unsigned char> >, COMDAT

; 78   : 	_FwdIt _Next = _Dest;
; 79   : 
; 80   : 	_TRY_BEGIN
; 81   : 	for (; _First != _Last; ++_Dest, ++_First)

  00000	8b 4c 24 04	 mov	 ecx, DWORD PTR __First$[esp-4]
  00004	8b 44 24 0c	 mov	 eax, DWORD PTR __Dest$[esp-4]
  00008	56		 push	 esi
  00009	8b 74 24 0c	 mov	 esi, DWORD PTR __Last$[esp]
  0000d	3b ce		 cmp	 ecx, esi
  0000f	74 0e		 je	 SHORT $L188913
$L190445:

; 82   : 		_Al.construct(_Dest, *_First);

  00011	85 c0		 test	 eax, eax
  00013	74 04		 je	 SHORT $L188912
  00015	8a 11		 mov	 dl, BYTE PTR [ecx]
  00017	88 10		 mov	 BYTE PTR [eax], dl
$L188912:
  00019	40		 inc	 eax
  0001a	41		 inc	 ecx
  0001b	3b ce		 cmp	 ecx, esi
  0001d	75 f2		 jne	 SHORT $L190445
$L188913:
  0001f	5e		 pop	 esi

; 83   : 	_CATCH_ALL
; 84   : 	for (; _Next != _Dest; ++_Next)
; 85   : 		_Al.destroy(_Next);
; 86   : 	_RERAISE;
; 87   : 	_CATCH_END
; 88   : 	return (_Dest);
; 89   : 	}

  00020	c3		 ret	 0
??$_Uninit_copy@Vconst_iterator@?$vector@EV?$allocator@E@std@@@std@@PAEV?$allocator@E@3@@std@@YAPAEVconst_iterator@?$vector@EV?$allocator@E@std@@@0@0PAEAAV?$allocator@E@0@U_Nonscalar_ptr_iterator_tag@0@@Z ENDP ; std::_Uninit_copy<std::vector<unsigned char,std::allocator<unsigned char> >::const_iterator,unsigned char *,std::allocator<unsigned char> >
_TEXT	ENDS
PUBLIC	?_Tidy@?$basic_string@DU?$char_traits@D@std@@V?$allocator@D@2@@std@@IAEX_NI@Z ; std::basic_string<char,std::char_traits<char>,std::allocator<char> >::_Tidy
; Function compile flags: /Ogty
; File c:\program files\microsoft visual studio .net 2003\vc7\include\xstring
;	COMDAT ?_Tidy@?$basic_string@DU?$char_traits@D@std@@V?$allocator@D@2@@std@@IAEX_NI@Z
_TEXT	SEGMENT
__Built$ = 8						; size = 1
__Newsize$ = 12						; size = 4
?_Tidy@?$basic_string@DU?$char_traits@D@std@@V?$allocator@D@2@@std@@IAEX_NI@Z PROC NEAR ; std::basic_string<char,std::char_traits<char>,std::allocator<char> >::_Tidy, COMDAT
; _this$ = ecx

; 1510 : 		if (!_Built)

  00000	8a 44 24 04	 mov	 al, BYTE PTR __Built$[esp-4]
  00004	84 c0		 test	 al, al
  00006	53		 push	 ebx
  00007	55		 push	 ebp
  00008	8b 6c 24 10	 mov	 ebp, DWORD PTR __Newsize$[esp+4]
  0000c	8b d9		 mov	 ebx, ecx
  0000e	74 2f		 je	 SHORT $L190495

; 1511 : 			;
; 1512 : 		else if (_BUF_SIZE <= _Myres)

  00010	83 7b 18 10	 cmp	 DWORD PTR [ebx+24], 16	; 00000010H
  00014	72 29		 jb	 SHORT $L190495

; 1513 : 			{	// copy any leftovers to small buffer and deallocate
; 1514 : 			_Elem *_Ptr = _Bx._Ptr;
; 1515 : 			if (0 < _Newsize)

  00016	85 ed		 test	 ebp, ebp
  00018	8b 43 04	 mov	 eax, DWORD PTR [ebx+4]
  0001b	57		 push	 edi
  0001c	8d 7b 04	 lea	 edi, DWORD PTR [ebx+4]
  0001f	76 14		 jbe	 SHORT $L190492
  00021	56		 push	 esi

; 1516 : 				_Traits::copy(_Bx._Buf, _Ptr, _Newsize);

  00022	8b cd		 mov	 ecx, ebp
  00024	8b d1		 mov	 edx, ecx
  00026	c1 e9 02	 shr	 ecx, 2
  00029	8b f0		 mov	 esi, eax
  0002b	f3 a5		 rep movsd
  0002d	8b ca		 mov	 ecx, edx
  0002f	83 e1 03	 and	 ecx, 3
  00032	f3 a4		 rep movsb
  00034	5e		 pop	 esi
$L190492:

; 1517 : 			_Mybase::_Alval.deallocate(_Ptr, _Myres + 1);

  00035	50		 push	 eax
  00036	e8 00 00 00 00	 call	 ??3@YAXPAX@Z		; operator delete
  0003b	83 c4 04	 add	 esp, 4
  0003e	5f		 pop	 edi
$L190495:

; 1518 : 			}
; 1519 : 		_Myres = _BUF_SIZE - 1;
; 1520 : 		_Eos(_Newsize);

  0003f	89 6b 14	 mov	 DWORD PTR [ebx+20], ebp
  00042	c7 43 18 0f 00
	00 00		 mov	 DWORD PTR [ebx+24], 15	; 0000000fH
  00049	c6 44 2b 04 00	 mov	 BYTE PTR [ebx+ebp+4], 0
  0004e	5d		 pop	 ebp
  0004f	5b		 pop	 ebx

; 1521 : 		}

  00050	c2 08 00	 ret	 8
?_Tidy@?$basic_string@DU?$char_traits@D@std@@V?$allocator@D@2@@std@@IAEX_NI@Z ENDP ; std::basic_string<char,std::char_traits<char>,std::allocator<char> >::_Tidy
_TEXT	ENDS
PUBLIC	?erase@?$basic_string@DU?$char_traits@D@std@@V?$allocator@D@2@@std@@QAEAAV12@II@Z ; std::basic_string<char,std::char_traits<char>,std::allocator<char> >::erase
EXTRN	?_Xran@_String_base@std@@QBEXXZ:NEAR		; std::_String_base::_Xran
; Function compile flags: /Ogty
;	COMDAT ?erase@?$basic_string@DU?$char_traits@D@std@@V?$allocator@D@2@@std@@QAEAAV12@II@Z
_TEXT	SEGMENT
__Off$ = 8						; size = 4
__Count$ = 12						; size = 4
?erase@?$basic_string@DU?$char_traits@D@std@@V?$allocator@D@2@@std@@QAEAAV12@II@Z PROC NEAR ; std::basic_string<char,std::char_traits<char>,std::allocator<char> >::erase, COMDAT
; _this$ = ecx

; 792  : 		{	// erase elements [_Off, _Off + _Count)

  00000	55		 push	 ebp

; 793  : 		if (_Mysize < _Off)

  00001	8b 6c 24 08	 mov	 ebp, DWORD PTR __Off$[esp]
  00005	56		 push	 esi
  00006	8b f1		 mov	 esi, ecx
  00008	39 6e 14	 cmp	 DWORD PTR [esi+20], ebp
  0000b	57		 push	 edi
  0000c	73 05		 jae	 SHORT $L184993

; 794  : 			_String_base::_Xran();	// _Off off end

  0000e	e8 00 00 00 00	 call	 ?_Xran@_String_base@std@@QBEXXZ ; std::_String_base::_Xran
$L184993:

; 795  : 		if (_Mysize - _Off < _Count)

  00013	8b 46 14	 mov	 eax, DWORD PTR [esi+20]
  00016	8b 7c 24 14	 mov	 edi, DWORD PTR __Count$[esp+8]
  0001a	2b c5		 sub	 eax, ebp
  0001c	3b c7		 cmp	 eax, edi
  0001e	73 02		 jae	 SHORT $L184994

; 796  : 			_Count = _Mysize - _Off;	// trim _Count

  00020	8b f8		 mov	 edi, eax
$L184994:

; 797  : 		if (0 < _Count)

  00022	85 ff		 test	 edi, edi
  00024	76 47		 jbe	 SHORT $L190559

; 798  : 			{	// move elements down
; 799  : 			_Traits::move(_Myptr() + _Off, _Myptr() + _Off + _Count,
; 800  : 				_Mysize - _Off - _Count);

  00026	8b 4e 18	 mov	 ecx, DWORD PTR [esi+24]
  00029	83 f9 10	 cmp	 ecx, 16			; 00000010H
  0002c	53		 push	 ebx
  0002d	8d 5e 04	 lea	 ebx, DWORD PTR [esi+4]
  00030	72 04		 jb	 SHORT $L190524
  00032	8b 13		 mov	 edx, DWORD PTR [ebx]
  00034	eb 02		 jmp	 SHORT $L190525
$L190524:
  00036	8b d3		 mov	 edx, ebx
$L190525:
  00038	83 f9 10	 cmp	 ecx, 16			; 00000010H
  0003b	72 04		 jb	 SHORT $L190531
  0003d	8b 0b		 mov	 ecx, DWORD PTR [ebx]
  0003f	eb 02		 jmp	 SHORT $L190532
$L190531:
  00041	8b cb		 mov	 ecx, ebx
$L190532:
  00043	2b c7		 sub	 eax, edi

; 803  : 			}
; 804  : 		return (*this);

  00045	03 d5		 add	 edx, ebp
  00047	50		 push	 eax
  00048	03 d7		 add	 edx, edi
  0004a	52		 push	 edx
  0004b	03 cd		 add	 ecx, ebp
  0004d	51		 push	 ecx
  0004e	e8 00 00 00 00	 call	 _memmove
  00053	8b 46 14	 mov	 eax, DWORD PTR [esi+20]
  00056	8b 4e 18	 mov	 ecx, DWORD PTR [esi+24]
  00059	2b c7		 sub	 eax, edi
  0005b	83 c4 0c	 add	 esp, 12			; 0000000cH
  0005e	83 f9 10	 cmp	 ecx, 16			; 00000010H
  00061	89 46 14	 mov	 DWORD PTR [esi+20], eax
  00064	72 02		 jb	 SHORT $L190554

; 801  : 			size_type _Newsize = _Mysize - _Count;
; 802  : 			_Eos(_Newsize);

  00066	8b 1b		 mov	 ebx, DWORD PTR [ebx]
$L190554:
  00068	c6 04 03 00	 mov	 BYTE PTR [ebx+eax], 0
  0006c	5b		 pop	 ebx
$L190559:
  0006d	5f		 pop	 edi

; 803  : 			}
; 804  : 		return (*this);

  0006e	8b c6		 mov	 eax, esi
  00070	5e		 pop	 esi
  00071	5d		 pop	 ebp

; 805  : 		}

  00072	c2 08 00	 ret	 8
?erase@?$basic_string@DU?$char_traits@D@std@@V?$allocator@D@2@@std@@QAEAAV12@II@Z ENDP ; std::basic_string<char,std::char_traits<char>,std::allocator<char> >::erase
_TEXT	ENDS
PUBLIC	?_Copy@?$basic_string@DU?$char_traits@D@std@@V?$allocator@D@2@@std@@IAEXII@Z ; std::basic_string<char,std::char_traits<char>,std::allocator<char> >::_Copy
EXTRN	__except_list:DWORD
EXTRN	___CxxFrameHandler:NEAR
;	COMDAT xdata$x
; File c:\program files\microsoft visual studio .net 2003\vc7\include\iosfwd
xdata$x	SEGMENT
$T190763 DD	0ffffffffH
	DD	00H
	DD	0ffffffffH
	DD	00H
	DD	01H
	DD	00H
	DD	01H
	DD	00H
$T190765 DD	00H
	DD	00H
	DD	00H
	DD	FLAT:$L190565
$T190766 DD	00H
	DD	00H
	DD	00H
	DD	FLAT:$L190563
$T190764 DD	02H
	DD	02H
	DD	03H
	DD	01H
	DD	FLAT:$T190765
	DD	00H
	DD	00H
	DD	03H
	DD	01H
	DD	FLAT:$T190766
$T190757 DD	019930520H
	DD	04H
	DD	FLAT:$T190763
	DD	02H
	DD	FLAT:$T190764
	DD	2 DUP(00H)
; Function compile flags: /Ogty
; File c:\program files\microsoft visual studio .net 2003\vc7\include\xstring
xdata$x	ENDS
;	COMDAT ?_Copy@?$basic_string@DU?$char_traits@D@std@@V?$allocator@D@2@@std@@IAEXII@Z
_TEXT	SEGMENT
__Newres$ = -24						; size = 4
_this$ = -20						; size = 4
__$EHRec$ = -16						; size = 16
__Ptr$ = 8						; size = 4
__Newsize$ = 8						; size = 4
__Oldlen$ = 12						; size = 4
?_Copy@?$basic_string@DU?$char_traits@D@std@@V?$allocator@D@2@@std@@IAEXII@Z PROC NEAR ; std::basic_string<char,std::char_traits<char>,std::allocator<char> >::_Copy, COMDAT
; _this$ = ecx

; 1444 : 		{	// copy _Oldlen elements to newly allocated buffer

  00000	55		 push	 ebp
  00001	8b ec		 mov	 ebp, esp
  00003	6a ff		 push	 -1
  00005	68 00 00 00 00	 push	 __ehhandler$?_Copy@?$basic_string@DU?$char_traits@D@std@@V?$allocator@D@2@@std@@IAEXII@Z
  0000a	64 a1 00 00 00
	00		 mov	 eax, DWORD PTR fs:__except_list
  00010	50		 push	 eax
  00011	64 89 25 00 00
	00 00		 mov	 DWORD PTR fs:__except_list, esp
  00018	83 ec 0c	 sub	 esp, 12			; 0000000cH

; 1445 : 		size_type _Newres = _Newsize | _ALLOC_MASK;

  0001b	8b 45 08	 mov	 eax, DWORD PTR __Newsize$[ebp]
  0001e	53		 push	 ebx
  0001f	56		 push	 esi
  00020	8b d8		 mov	 ebx, eax
  00022	83 cb 0f	 or	 ebx, 15			; 0000000fH

; 1446 : 		if (max_size() < _Newres)

  00025	83 fb fe	 cmp	 ebx, -2			; fffffffeH
  00028	57		 push	 edi
  00029	8b f1		 mov	 esi, ecx
  0002b	89 65 f0	 mov	 DWORD PTR __$EHRec$[ebp], esp
  0002e	89 75 ec	 mov	 DWORD PTR _this$[ebp], esi
  00031	76 04		 jbe	 SHORT $L185550

; 1447 : 			_Newres = _Newsize;	// undo roundup if too big

  00033	8b d8		 mov	 ebx, eax

; 1448 : 		else if (_Newres / 3 < _Myres / 2

  00035	eb 22		 jmp	 SHORT $L185552
$L185550:

; 1449 : 			&& _Myres <= max_size() - _Myres / 2)

  00037	8b 7e 18	 mov	 edi, DWORD PTR [esi+24]
  0003a	b8 ab aa aa aa	 mov	 eax, -1431655765	; aaaaaaabH
  0003f	f7 e3		 mul	 ebx
  00041	8b cf		 mov	 ecx, edi
  00043	d1 e9		 shr	 ecx, 1
  00045	d1 ea		 shr	 edx, 1
  00047	3b d1		 cmp	 edx, ecx
  00049	73 0e		 jae	 SHORT $L185552
  0004b	b8 fe ff ff ff	 mov	 eax, -2			; fffffffeH
  00050	2b c1		 sub	 eax, ecx
  00052	3b f8		 cmp	 edi, eax
  00054	77 03		 ja	 SHORT $L185552

; 1450 : 			_Newres = _Myres + _Myres / 2;	// grow exponentially if possible

  00056	8d 1c 39	 lea	 ebx, DWORD PTR [ecx+edi]
$L185552:

; 1451 : 		_Elem *_Ptr;
; 1452 : 
; 1453 : 		_TRY_BEGIN
; 1454 : 			_Ptr = _Mybase::_Alval.allocate(_Newres + 1);

  00059	8d 4b 01	 lea	 ecx, DWORD PTR [ebx+1]
  0005c	51		 push	 ecx
  0005d	c7 45 fc 00 00
	00 00		 mov	 DWORD PTR __$EHRec$[ebp+12], 0
  00064	e8 00 00 00 00	 call	 ??2@YAPAXI@Z		; operator new
  00069	8b d0		 mov	 edx, eax
  0006b	83 c4 04	 add	 esp, 4
  0006e	89 55 08	 mov	 DWORD PTR __Ptr$[ebp], edx
  00071	eb 29		 jmp	 SHORT $L185554
$L190563:

; 1455 : 		_CATCH_ALL
; 1456 : 			_Newres = _Newsize;	// allocation failed, undo roundup and retry

  00073	8b 45 08	 mov	 eax, DWORD PTR __Newsize$[ebp]
  00076	89 45 e8	 mov	 DWORD PTR __Newres$[ebp], eax

; 1457 : 			_TRY_BEGIN
; 1458 : 				_Ptr = _Mybase::_Alval.allocate(_Newres + 1);

  00079	40		 inc	 eax
  0007a	89 65 f0	 mov	 DWORD PTR __$EHRec$[ebp], esp
  0007d	50		 push	 eax
  0007e	c6 45 fc 02	 mov	 BYTE PTR __$EHRec$[ebp+12], 2
  00082	e8 00 00 00 00	 call	 ??2@YAPAXI@Z		; operator new
  00087	89 45 08	 mov	 DWORD PTR __Ptr$[ebp], eax
  0008a	83 c4 04	 add	 esp, 4

; 1462 : 			_CATCH_END
; 1463 : 		_CATCH_END

  0008d	b8 00 00 00 00	 mov	 eax, $L190758
  00092	c3		 ret	 0
$L190758:
  00093	8b 5d e8	 mov	 ebx, DWORD PTR __Newres$[ebp]
  00096	8b 75 ec	 mov	 esi, DWORD PTR _this$[ebp]
  00099	8b 55 08	 mov	 edx, DWORD PTR __Ptr$[ebp]
$L185554:

; 1464 : 
; 1465 : 		if (0 < _Oldlen)

  0009c	8b 4d 0c	 mov	 ecx, DWORD PTR __Oldlen$[ebp]
  0009f	85 c9		 test	 ecx, ecx
  000a1	76 24		 jbe	 SHORT $L190683

; 1466 : 			_Traits::copy(_Ptr, _Myptr(), _Oldlen);	// copy existing elements

  000a3	83 7e 18 10	 cmp	 DWORD PTR [esi+24], 16	; 00000010H
  000a7	72 05		 jb	 SHORT $L190678
  000a9	8b 76 04	 mov	 esi, DWORD PTR [esi+4]
  000ac	eb 03		 jmp	 SHORT $L190679
$L190678:
  000ae	83 c6 04	 add	 esi, 4
$L190679:
  000b1	8b c1		 mov	 eax, ecx
  000b3	c1 e9 02	 shr	 ecx, 2
  000b6	8b fa		 mov	 edi, edx
  000b8	f3 a5		 rep movsd
  000ba	8b c8		 mov	 ecx, eax
  000bc	83 e1 03	 and	 ecx, 3
  000bf	f3 a4		 rep movsb
  000c1	8b 75 ec	 mov	 esi, DWORD PTR _this$[ebp]
  000c4	8b 4d 0c	 mov	 ecx, DWORD PTR __Oldlen$[ebp]
$L190683:

; 1467 : 		_Tidy(true);

  000c7	83 7e 18 10	 cmp	 DWORD PTR [esi+24], 16	; 00000010H
  000cb	72 12		 jb	 SHORT $L190725
  000cd	8b 4e 04	 mov	 ecx, DWORD PTR [esi+4]
  000d0	51		 push	 ecx
  000d1	e8 00 00 00 00	 call	 ??3@YAXPAX@Z		; operator delete
  000d6	8b 55 08	 mov	 edx, DWORD PTR __Ptr$[ebp]
  000d9	8b 4d 0c	 mov	 ecx, DWORD PTR __Oldlen$[ebp]
  000dc	83 c4 04	 add	 esp, 4
$L190725:

; 1468 : 		_Bx._Ptr = _Ptr;
; 1469 : 		_Myres = _Newres;
; 1470 : 		_Eos(_Oldlen);

  000df	83 fb 10	 cmp	 ebx, 16			; 00000010H
  000e2	8d 46 04	 lea	 eax, DWORD PTR [esi+4]
  000e5	c6 00 00	 mov	 BYTE PTR [eax], 0
  000e8	89 10		 mov	 DWORD PTR [eax], edx
  000ea	89 5e 18	 mov	 DWORD PTR [esi+24], ebx
  000ed	89 4e 14	 mov	 DWORD PTR [esi+20], ecx
  000f0	72 02		 jb	 SHORT $L190751
  000f2	8b c2		 mov	 eax, edx
$L190751:

; 1471 : 		}

  000f4	5f		 pop	 edi
  000f5	c6 04 08 00	 mov	 BYTE PTR [eax+ecx], 0
  000f9	8b 4d f4	 mov	 ecx, DWORD PTR __$EHRec$[ebp+4]
  000fc	5e		 pop	 esi
  000fd	64 89 0d 00 00
	00 00		 mov	 DWORD PTR fs:__except_list, ecx
  00104	5b		 pop	 ebx
  00105	8b e5		 mov	 esp, ebp
  00107	5d		 pop	 ebp
  00108	c2 08 00	 ret	 8
$L190565:

; 1459 : 			_CATCH_ALL
; 1460 : 			_Tidy(true);	// failed again, discard storage and reraise

  0010b	8b 75 ec	 mov	 esi, DWORD PTR _this$[ebp]
  0010e	83 7e 18 10	 cmp	 DWORD PTR [esi+24], 16	; 00000010H
  00112	72 0c		 jb	 SHORT $L190664
  00114	8b 56 04	 mov	 edx, DWORD PTR [esi+4]
  00117	52		 push	 edx
  00118	e8 00 00 00 00	 call	 ??3@YAXPAX@Z		; operator delete
  0011d	83 c4 04	 add	 esp, 4
$L190664:

; 1461 : 			_RERAISE;

  00120	6a 00		 push	 0
  00122	c7 46 18 0f 00
	00 00		 mov	 DWORD PTR [esi+24], 15	; 0000000fH
  00129	c7 46 14 00 00
	00 00		 mov	 DWORD PTR [esi+20], 0
  00130	6a 00		 push	 0
  00132	c6 46 04 00	 mov	 BYTE PTR [esi+4], 0
  00136	e8 00 00 00 00	 call	 __CxxThrowException@8
$L190762:
  0013b	cc		 int	 3
_TEXT	ENDS
;	COMDAT text$x
text$x	SEGMENT
__ehhandler$?_Copy@?$basic_string@DU?$char_traits@D@std@@V?$allocator@D@2@@std@@IAEXII@Z:
  00000	b8 00 00 00 00	 mov	 eax, OFFSET FLAT:$T190757
  00005	e9 00 00 00 00	 jmp	 ___CxxFrameHandler
text$x	ENDS
?_Copy@?$basic_string@DU?$char_traits@D@std@@V?$allocator@D@2@@std@@IAEXII@Z ENDP ; std::basic_string<char,std::char_traits<char>,std::allocator<char> >::_Copy
PUBLIC	??0?$basic_string@DU?$char_traits@D@std@@V?$allocator@D@2@@std@@QAE@XZ ; std::basic_string<char,std::char_traits<char>,std::allocator<char> >::basic_string<char,std::char_traits<char>,std::allocator<char> >
; Function compile flags: /Ogty
;	COMDAT ??0?$basic_string@DU?$char_traits@D@std@@V?$allocator@D@2@@std@@QAE@XZ
_TEXT	SEGMENT
??0?$basic_string@DU?$char_traits@D@std@@V?$allocator@D@2@@std@@QAE@XZ PROC NEAR ; std::basic_string<char,std::char_traits<char>,std::allocator<char> >::basic_string<char,std::char_traits<char>,std::allocator<char> >, COMDAT
; _this$ = ecx

; 311  : 		{	// construct empty string

  00000	8b c1		 mov	 eax, ecx

; 312  : 		_Tidy();

  00002	33 c9		 xor	 ecx, ecx
  00004	c7 40 18 0f 00
	00 00		 mov	 DWORD PTR [eax+24], 15	; 0000000fH
  0000b	89 48 14	 mov	 DWORD PTR [eax+20], ecx
  0000e	88 48 04	 mov	 BYTE PTR [eax+4], cl

; 313  : 		}

  00011	c3		 ret	 0
??0?$basic_string@DU?$char_traits@D@std@@V?$allocator@D@2@@std@@QAE@XZ ENDP ; std::basic_string<char,std::char_traits<char>,std::allocator<char> >::basic_string<char,std::char_traits<char>,std::allocator<char> >
_TEXT	ENDS
PUBLIC	?clear@?$_Tree@V?$_Tmap_traits@EHU?$less@E@std@@V?$allocator@U?$pair@$$CBEH@std@@@2@$0A@@std@@@std@@QAEXXZ ; std::_Tree<std::_Tmap_traits<unsigned char,int,std::less<unsigned char>,std::allocator<std::pair<unsigned char const ,int> >,0> >::clear
; Function compile flags: /Ogty
; File c:\program files\microsoft visual studio .net 2003\vc7\include\xtree
;	COMDAT ?clear@?$_Tree@V?$_Tmap_traits@EHU?$less@E@std@@V?$allocator@U?$pair@$$CBEH@std@@@2@$0A@@std@@@std@@QAEXXZ
_TEXT	SEGMENT
?clear@?$_Tree@V?$_Tmap_traits@EHU?$less@E@std@@V?$allocator@U?$pair@$$CBEH@std@@@2@$0A@@std@@@std@@QAEXXZ PROC NEAR ; std::_Tree<std::_Tmap_traits<unsigned char,int,std::less<unsigned char>,std::allocator<std::pair<unsigned char const ,int> >,0> >::clear, COMDAT
; _this$ = ecx

; 780  : 		{	// erase all

  00000	56		 push	 esi
  00001	8b f1		 mov	 esi, ecx

; 781  : 		_Erase(_Root());

  00003	8b 46 04	 mov	 eax, DWORD PTR [esi+4]
  00006	8b 48 04	 mov	 ecx, DWORD PTR [eax+4]
  00009	51		 push	 ecx
  0000a	8b ce		 mov	 ecx, esi
  0000c	e8 00 00 00 00	 call	 ?_Erase@?$_Tree@V?$_Tmap_traits@EHU?$less@E@std@@V?$allocator@U?$pair@$$CBEH@std@@@2@$0A@@std@@@std@@IAEXPAU_Node@?$_Tree_nod@V?$_Tmap_traits@EHU?$less@E@std@@V?$allocator@U?$pair@$$CBEH@std@@@2@$0A@@std@@@2@@Z ; std::_Tree<std::_Tmap_traits<unsigned char,int,std::less<unsigned char>,std::allocator<std::pair<unsigned char const ,int> >,0> >::_Erase

; 782  : 		_Root() = _Myhead, _Mysize = 0;

  00011	8b 46 04	 mov	 eax, DWORD PTR [esi+4]
  00014	89 40 04	 mov	 DWORD PTR [eax+4], eax

; 783  : 		_Lmost() = _Myhead, _Rmost() = _Myhead;

  00017	8b 46 04	 mov	 eax, DWORD PTR [esi+4]
  0001a	c7 46 08 00 00
	00 00		 mov	 DWORD PTR [esi+8], 0
  00021	89 00		 mov	 DWORD PTR [eax], eax
  00023	8b 76 04	 mov	 esi, DWORD PTR [esi+4]
  00026	89 76 08	 mov	 DWORD PTR [esi+8], esi
  00029	5e		 pop	 esi

; 784  : 		}

  0002a	c3		 ret	 0
?clear@?$_Tree@V?$_Tmap_traits@EHU?$less@E@std@@V?$allocator@U?$pair@$$CBEH@std@@@2@$0A@@std@@@std@@QAEXXZ ENDP ; std::_Tree<std::_Tmap_traits<unsigned char,int,std::less<unsigned char>,std::allocator<std::pair<unsigned char const ,int> >,0> >::clear
_TEXT	ENDS
PUBLIC	??Fiterator@?$_Tree@V?$_Tmap_traits@EHU?$less@E@std@@V?$allocator@U?$pair@$$CBEH@std@@@2@$0A@@std@@@std@@QAEAAV012@XZ ; std::_Tree<std::_Tmap_traits<unsigned char,int,std::less<unsigned char>,std::allocator<std::pair<unsigned char const ,int> >,0> >::iterator::operator--
; Function compile flags: /Ogty
;	COMDAT ??Fiterator@?$_Tree@V?$_Tmap_traits@EHU?$less@E@std@@V?$allocator@U?$pair@$$CBEH@std@@@2@$0A@@std@@@std@@QAEAAV012@XZ
_TEXT	SEGMENT
??Fiterator@?$_Tree@V?$_Tmap_traits@EHU?$less@E@std@@V?$allocator@U?$pair@$$CBEH@std@@@2@$0A@@std@@@std@@QAEAAV012@XZ PROC NEAR ; std::_Tree<std::_Tmap_traits<unsigned char,int,std::less<unsigned char>,std::allocator<std::pair<unsigned char const ,int> >,0> >::iterator::operator--, COMDAT
; _this$ = ecx

; 339  : 			{	// predecrement

  00000	56		 push	 esi
  00001	8b f1		 mov	 esi, ecx

; 340  : 			--(*(const_iterator *)this);

  00003	e8 00 00 00 00	 call	 ?_Dec@const_iterator@?$_Tree@V?$_Tmap_traits@EHU?$less@E@std@@V?$allocator@U?$pair@$$CBEH@std@@@2@$0A@@std@@@std@@QAEXXZ ; std::_Tree<std::_Tmap_traits<unsigned char,int,std::less<unsigned char>,std::allocator<std::pair<unsigned char const ,int> >,0> >::const_iterator::_Dec

; 341  : 			return (*this);

  00008	8b c6		 mov	 eax, esi
  0000a	5e		 pop	 esi

; 342  : 			}

  0000b	c3		 ret	 0
??Fiterator@?$_Tree@V?$_Tmap_traits@EHU?$less@E@std@@V?$allocator@U?$pair@$$CBEH@std@@@2@$0A@@std@@@std@@QAEAAV012@XZ ENDP ; std::_Tree<std::_Tmap_traits<unsigned char,int,std::less<unsigned char>,std::allocator<std::pair<unsigned char const ,int> >,0> >::iterator::operator--
_TEXT	ENDS
PUBLIC	?_Tidy@?$vector@EV?$allocator@E@std@@@std@@IAEXXZ ; std::vector<unsigned char,std::allocator<unsigned char> >::_Tidy
; Function compile flags: /Ogty
; File c:\program files\microsoft visual studio .net 2003\vc7\include\vector
;	COMDAT ?_Tidy@?$vector@EV?$allocator@E@std@@@std@@IAEXXZ
_TEXT	SEGMENT
?_Tidy@?$vector@EV?$allocator@E@std@@@std@@IAEXXZ PROC NEAR ; std::vector<unsigned char,std::allocator<unsigned char> >::_Tidy, COMDAT
; _this$ = ecx

; 791  : 		{	// free all storage

  00000	56		 push	 esi
  00001	8b f1		 mov	 esi, ecx

; 792  : 		if (_Myfirst != 0)

  00003	8b 46 04	 mov	 eax, DWORD PTR [esi+4]
  00006	85 c0		 test	 eax, eax
  00008	74 09		 je	 SHORT $L190879

; 793  : 			{	// something to free, destroy and deallocate it
; 794  : 			_Destroy(_Myfirst, _Mylast);
; 795  : 			this->_Alval.deallocate(_Myfirst, _Myend - _Myfirst);

  0000a	50		 push	 eax
  0000b	e8 00 00 00 00	 call	 ??3@YAXPAX@Z		; operator delete
  00010	83 c4 04	 add	 esp, 4
$L190879:

; 796  : 			}
; 797  : 		_Myfirst = 0, _Mylast = 0, _Myend = 0;

  00013	c7 46 04 00 00
	00 00		 mov	 DWORD PTR [esi+4], 0
  0001a	c7 46 08 00 00
	00 00		 mov	 DWORD PTR [esi+8], 0
  00021	c7 46 0c 00 00
	00 00		 mov	 DWORD PTR [esi+12], 0
  00028	5e		 pop	 esi

; 798  : 		}

  00029	c3		 ret	 0
?_Tidy@?$vector@EV?$allocator@E@std@@@std@@IAEXXZ ENDP	; std::vector<unsigned char,std::allocator<unsigned char> >::_Tidy
_TEXT	ENDS
PUBLIC	?_Ufill@?$vector@EV?$allocator@E@std@@@std@@IAEPAEPAEIABE@Z ; std::vector<unsigned char,std::allocator<unsigned char> >::_Ufill
; Function compile flags: /Ogty
;	COMDAT ?_Ufill@?$vector@EV?$allocator@E@std@@@std@@IAEPAEPAEIABE@Z
_TEXT	SEGMENT
__Ptr$ = 8						; size = 4
__Count$ = 12						; size = 4
__Val$ = 16						; size = 4
?_Ufill@?$vector@EV?$allocator@E@std@@@std@@IAEPAEPAEIABE@Z PROC NEAR ; std::vector<unsigned char,std::allocator<unsigned char> >::_Ufill, COMDAT
; _this$ = ecx

; 877  : 		{	// copy initializing _Count * _Val, using allocator

  00000	55		 push	 ebp

; 878  : 		_Uninitialized_fill_n(_Ptr, _Count, _Val, this->_Alval);

  00001	8b 6c 24 08	 mov	 ebp, DWORD PTR __Ptr$[esp]
  00005	57		 push	 edi
  00006	8b 7c 24 10	 mov	 edi, DWORD PTR __Count$[esp+4]
  0000a	85 ff		 test	 edi, edi
  0000c	8b c5		 mov	 eax, ebp
  0000e	76 10		 jbe	 SHORT $L190921
  00010	56		 push	 esi
  00011	8b 74 24 18	 mov	 esi, DWORD PTR __Val$[esp+8]
  00015	8b cf		 mov	 ecx, edi
$L190916:
  00017	8a 16		 mov	 dl, BYTE PTR [esi]
  00019	88 10		 mov	 BYTE PTR [eax], dl
  0001b	40		 inc	 eax
  0001c	49		 dec	 ecx
  0001d	75 f8		 jne	 SHORT $L190916
  0001f	5e		 pop	 esi
$L190921:

; 879  : 		return (_Ptr + _Count);

  00020	8d 04 2f	 lea	 eax, DWORD PTR [edi+ebp]
  00023	5f		 pop	 edi
  00024	5d		 pop	 ebp

; 880  : 		}

  00025	c2 0c 00	 ret	 12			; 0000000cH
?_Ufill@?$vector@EV?$allocator@E@std@@@std@@IAEPAEPAEIABE@Z ENDP ; std::vector<unsigned char,std::allocator<unsigned char> >::_Ufill
_TEXT	ENDS
PUBLIC	?_Init@?$_Tree@V?$_Tmap_traits@EHU?$less@E@std@@V?$allocator@U?$pair@$$CBEH@std@@@2@$0A@@std@@@std@@IAEXXZ ; std::_Tree<std::_Tmap_traits<unsigned char,int,std::less<unsigned char>,std::allocator<std::pair<unsigned char const ,int> >,0> >::_Init
; Function compile flags: /Ogty
; File c:\program files\microsoft visual studio .net 2003\vc7\include\xtree
;	COMDAT ?_Init@?$_Tree@V?$_Tmap_traits@EHU?$less@E@std@@V?$allocator@U?$pair@$$CBEH@std@@@2@$0A@@std@@@std@@IAEXXZ
_TEXT	SEGMENT
?_Init@?$_Tree@V?$_Tmap_traits@EHU?$less@E@std@@V?$allocator@U?$pair@$$CBEH@std@@@2@$0A@@std@@@std@@IAEXXZ PROC NEAR ; std::_Tree<std::_Tmap_traits<unsigned char,int,std::less<unsigned char>,std::allocator<std::pair<unsigned char const ,int> >,0> >::_Init, COMDAT
; _this$ = ecx

; 901  : 		{	// create head/nil node and make tree empty

  00000	56		 push	 esi
  00001	8b f1		 mov	 esi, ecx

; 902  : 		_Myhead = _Buynode();

  00003	e8 00 00 00 00	 call	 ?_Buynode@?$_Tree@V?$_Tmap_traits@EHU?$less@E@std@@V?$allocator@U?$pair@$$CBEH@std@@@2@$0A@@std@@@std@@IAEPAU_Node@?$_Tree_nod@V?$_Tmap_traits@EHU?$less@E@std@@V?$allocator@U?$pair@$$CBEH@std@@@2@$0A@@std@@@2@XZ ; std::_Tree<std::_Tmap_traits<unsigned char,int,std::less<unsigned char>,std::allocator<std::pair<unsigned char const ,int> >,0> >::_Buynode
  00008	89 46 04	 mov	 DWORD PTR [esi+4], eax

; 903  : 		_Isnil(_Myhead) = true;

  0000b	c6 40 15 01	 mov	 BYTE PTR [eax+21], 1

; 904  : 		_Root() = _Myhead;

  0000f	8b 46 04	 mov	 eax, DWORD PTR [esi+4]
  00012	89 40 04	 mov	 DWORD PTR [eax+4], eax

; 905  : 		_Lmost() = _Myhead, _Rmost() = _Myhead;

  00015	8b 46 04	 mov	 eax, DWORD PTR [esi+4]
  00018	89 00		 mov	 DWORD PTR [eax], eax
  0001a	8b 46 04	 mov	 eax, DWORD PTR [esi+4]
  0001d	89 40 08	 mov	 DWORD PTR [eax+8], eax

; 906  : 		_Mysize = 0;

  00020	c7 46 08 00 00
	00 00		 mov	 DWORD PTR [esi+8], 0
  00027	5e		 pop	 esi

; 907  : 		}

  00028	c3		 ret	 0
?_Init@?$_Tree@V?$_Tmap_traits@EHU?$less@E@std@@V?$allocator@U?$pair@$$CBEH@std@@@2@$0A@@std@@@std@@IAEXXZ ENDP ; std::_Tree<std::_Tmap_traits<unsigned char,int,std::less<unsigned char>,std::allocator<std::pair<unsigned char const ,int> >,0> >::_Init
_TEXT	ENDS
PUBLIC	??0?$_Tree_val@V?$_Tmap_traits@EHU?$less@E@std@@V?$allocator@U?$pair@$$CBEH@std@@@2@$0A@@std@@@std@@IAE@ABU?$less@E@1@V?$allocator@U?$pair@$$CBEH@std@@@1@@Z ; std::_Tree_val<std::_Tmap_traits<unsigned char,int,std::less<unsigned char>,std::allocator<std::pair<unsigned char const ,int> >,0> >::_Tree_val<std::_Tmap_traits<unsigned char,int,std::less<unsigned char>,std::allocator<std::pair<unsigned char const ,int> >,0> >
; Function compile flags: /Ogty
;	COMDAT ??0?$_Tree_val@V?$_Tmap_traits@EHU?$less@E@std@@V?$allocator@U?$pair@$$CBEH@std@@@2@$0A@@std@@@std@@IAE@ABU?$less@E@1@V?$allocator@U?$pair@$$CBEH@std@@@1@@Z
_TEXT	SEGMENT
__Parg$ = 8						; size = 4
__Al$ = 12						; size = 1
??0?$_Tree_val@V?$_Tmap_traits@EHU?$less@E@std@@V?$allocator@U?$pair@$$CBEH@std@@@2@$0A@@std@@@std@@IAE@ABU?$less@E@1@V?$allocator@U?$pair@$$CBEH@std@@@1@@Z PROC NEAR ; std::_Tree_val<std::_Tmap_traits<unsigned char,int,std::less<unsigned char>,std::allocator<std::pair<unsigned char const ,int> >,0> >::_Tree_val<std::_Tmap_traits<unsigned char,int,std::less<unsigned char>,std::allocator<std::pair<unsigned char const ,int> >,0> >, COMDAT
; _this$ = ecx

; 95   : 		{	// construct base, and allocator from _Al

  00000	8b c1		 mov	 eax, ecx

; 96   : 		}

  00002	c2 08 00	 ret	 8
??0?$_Tree_val@V?$_Tmap_traits@EHU?$less@E@std@@V?$allocator@U?$pair@$$CBEH@std@@@2@$0A@@std@@@std@@IAE@ABU?$less@E@1@V?$allocator@U?$pair@$$CBEH@std@@@1@@Z ENDP ; std::_Tree_val<std::_Tmap_traits<unsigned char,int,std::less<unsigned char>,std::allocator<std::pair<unsigned char const ,int> >,0> >::_Tree_val<std::_Tmap_traits<unsigned char,int,std::less<unsigned char>,std::allocator<std::pair<unsigned char const ,int> >,0> >
_TEXT	ENDS
PUBLIC	??Eiterator@?$_Tree@V?$_Tmap_traits@EHU?$less@E@std@@V?$allocator@U?$pair@$$CBEH@std@@@2@$0A@@std@@@std@@QAE?AV012@H@Z ; std::_Tree<std::_Tmap_traits<unsigned char,int,std::less<unsigned char>,std::allocator<std::pair<unsigned char const ,int> >,0> >::iterator::operator++
; Function compile flags: /Ogty
;	COMDAT ??Eiterator@?$_Tree@V?$_Tmap_traits@EHU?$less@E@std@@V?$allocator@U?$pair@$$CBEH@std@@@2@$0A@@std@@@std@@QAE?AV012@H@Z
_TEXT	SEGMENT
___$ReturnUdt$ = 8					; size = 4
___formal$ = 12						; size = 4
??Eiterator@?$_Tree@V?$_Tmap_traits@EHU?$less@E@std@@V?$allocator@U?$pair@$$CBEH@std@@@2@$0A@@std@@@std@@QAE?AV012@H@Z PROC NEAR ; std::_Tree<std::_Tmap_traits<unsigned char,int,std::less<unsigned char>,std::allocator<std::pair<unsigned char const ,int> >,0> >::iterator::operator++, COMDAT
; _this$ = ecx

; 332  : 			{	// postincrement

  00000	56		 push	 esi

; 333  : 			iterator _Tmp = *this;

  00001	8b 31		 mov	 esi, DWORD PTR [ecx]

; 334  : 			++*this;

  00003	e8 00 00 00 00	 call	 ?_Inc@const_iterator@?$_Tree@V?$_Tmap_traits@EHU?$less@E@std@@V?$allocator@U?$pair@$$CBEH@std@@@2@$0A@@std@@@std@@QAEXXZ ; std::_Tree<std::_Tmap_traits<unsigned char,int,std::less<unsigned char>,std::allocator<std::pair<unsigned char const ,int> >,0> >::const_iterator::_Inc

; 335  : 			return (_Tmp);

  00008	8b 44 24 08	 mov	 eax, DWORD PTR ___$ReturnUdt$[esp]
  0000c	89 30		 mov	 DWORD PTR [eax], esi
  0000e	5e		 pop	 esi

; 336  : 			}

  0000f	c2 08 00	 ret	 8
??Eiterator@?$_Tree@V?$_Tmap_traits@EHU?$less@E@std@@V?$allocator@U?$pair@$$CBEH@std@@@2@$0A@@std@@@std@@QAE?AV012@H@Z ENDP ; std::_Tree<std::_Tmap_traits<unsigned char,int,std::less<unsigned char>,std::allocator<std::pair<unsigned char const ,int> >,0> >::iterator::operator++
_TEXT	ENDS
PUBLIC	??$_Uninitialized_copy@Vconst_iterator@?$vector@EV?$allocator@E@std@@@std@@PAEV?$allocator@E@3@@std@@YAPAEVconst_iterator@?$vector@EV?$allocator@E@std@@@0@0PAEAAV?$allocator@E@0@@Z ; std::_Uninitialized_copy<std::vector<unsigned char,std::allocator<unsigned char> >::const_iterator,unsigned char *,std::allocator<unsigned char> >
; Function compile flags: /Ogty
; File c:\program files\microsoft visual studio .net 2003\vc7\include\memory
;	COMDAT ??$_Uninitialized_copy@Vconst_iterator@?$vector@EV?$allocator@E@std@@@std@@PAEV?$allocator@E@3@@std@@YAPAEVconst_iterator@?$vector@EV?$allocator@E@std@@@0@0PAEAAV?$allocator@E@0@@Z
_TEXT	SEGMENT
__Cat$191014 = -4					; size = 1
__First$ = 8						; size = 4
__Last$ = 12						; size = 4
__Dest$ = 16						; size = 4
__Al$ = 20						; size = 4
??$_Uninitialized_copy@Vconst_iterator@?$vector@EV?$allocator@E@std@@@std@@PAEV?$allocator@E@3@@std@@YAPAEVconst_iterator@?$vector@EV?$allocator@E@std@@@0@0PAEAAV?$allocator@E@0@@Z PROC NEAR ; std::_Uninitialized_copy<std::vector<unsigned char,std::allocator<unsigned char> >::const_iterator,unsigned char *,std::allocator<unsigned char> >, COMDAT

; 126  : 	{	// copy [_First, _Last) to raw _Dest, using _Al

  00000	51		 push	 ecx

; 127  : 	return (_Uninit_copy(_First, _Last, _Dest, _Al,
; 128  : 		_Ptr_cat(_First, _Dest)));

  00001	8b 04 24	 mov	 eax, DWORD PTR __Cat$191014[esp+4]
  00004	8b 4c 24 14	 mov	 ecx, DWORD PTR __Al$[esp]
  00008	8b 54 24 10	 mov	 edx, DWORD PTR __Dest$[esp]
  0000c	50		 push	 eax
  0000d	8b 44 24 10	 mov	 eax, DWORD PTR __Last$[esp+4]
  00011	51		 push	 ecx
  00012	8b 4c 24 10	 mov	 ecx, DWORD PTR __First$[esp+8]
  00016	52		 push	 edx
  00017	50		 push	 eax
  00018	51		 push	 ecx
  00019	e8 00 00 00 00	 call	 ??$_Uninit_copy@Vconst_iterator@?$vector@EV?$allocator@E@std@@@std@@PAEV?$allocator@E@3@@std@@YAPAEVconst_iterator@?$vector@EV?$allocator@E@std@@@0@0PAEAAV?$allocator@E@0@U_Nonscalar_ptr_iterator_tag@0@@Z ; std::_Uninit_copy<std::vector<unsigned char,std::allocator<unsigned char> >::const_iterator,unsigned char *,std::allocator<unsigned char> >

; 129  : 	}

  0001e	83 c4 18	 add	 esp, 24			; 00000018H
  00021	c3		 ret	 0
??$_Uninitialized_copy@Vconst_iterator@?$vector@EV?$allocator@E@std@@@std@@PAEV?$allocator@E@3@@std@@YAPAEVconst_iterator@?$vector@EV?$allocator@E@std@@@0@0PAEAAV?$allocator@E@0@@Z ENDP ; std::_Uninitialized_copy<std::vector<unsigned char,std::allocator<unsigned char> >::const_iterator,unsigned char *,std::allocator<unsigned char> >
_TEXT	ENDS
PUBLIC	??1?$basic_string@DU?$char_traits@D@std@@V?$allocator@D@2@@std@@QAE@XZ ; std::basic_string<char,std::char_traits<char>,std::allocator<char> >::~basic_string<char,std::char_traits<char>,std::allocator<char> >
; Function compile flags: /Ogty
; File c:\program files\microsoft visual studio .net 2003\vc7\include\xstring
;	COMDAT ??1?$basic_string@DU?$char_traits@D@std@@V?$allocator@D@2@@std@@QAE@XZ
_TEXT	SEGMENT
??1?$basic_string@DU?$char_traits@D@std@@V?$allocator@D@2@@std@@QAE@XZ PROC NEAR ; std::basic_string<char,std::char_traits<char>,std::allocator<char> >::~basic_string<char,std::char_traits<char>,std::allocator<char> >, COMDAT
; _this$ = ecx

; 456  : 		{	// destroy the string

  00000	56		 push	 esi
  00001	8b f1		 mov	 esi, ecx

; 457  : 		_Tidy(true);

  00003	83 7e 18 10	 cmp	 DWORD PTR [esi+24], 16	; 00000010H
  00007	72 0c		 jb	 SHORT $L191058
  00009	8b 46 04	 mov	 eax, DWORD PTR [esi+4]
  0000c	50		 push	 eax
  0000d	e8 00 00 00 00	 call	 ??3@YAXPAX@Z		; operator delete
  00012	83 c4 04	 add	 esp, 4
$L191058:
  00015	33 c0		 xor	 eax, eax
  00017	c7 46 18 0f 00
	00 00		 mov	 DWORD PTR [esi+24], 15	; 0000000fH
  0001e	89 46 14	 mov	 DWORD PTR [esi+20], eax
  00021	88 46 04	 mov	 BYTE PTR [esi+4], al
  00024	5e		 pop	 esi

; 458  : 		}

  00025	c3		 ret	 0
??1?$basic_string@DU?$char_traits@D@std@@V?$allocator@D@2@@std@@QAE@XZ ENDP ; std::basic_string<char,std::char_traits<char>,std::allocator<char> >::~basic_string<char,std::char_traits<char>,std::allocator<char> >
_TEXT	ENDS
PUBLIC	?_Grow@?$basic_string@DU?$char_traits@D@std@@V?$allocator@D@2@@std@@IAE_NI_N@Z ; std::basic_string<char,std::char_traits<char>,std::allocator<char> >::_Grow
EXTRN	?_Xlen@_String_base@std@@QBEXXZ:NEAR		; std::_String_base::_Xlen
; Function compile flags: /Ogty
;	COMDAT ?_Grow@?$basic_string@DU?$char_traits@D@std@@V?$allocator@D@2@@std@@IAE_NI_N@Z
_TEXT	SEGMENT
__Newsize$ = 8						; size = 4
__Trim$ = 12						; size = 1
?_Grow@?$basic_string@DU?$char_traits@D@std@@V?$allocator@D@2@@std@@IAE_NI_N@Z PROC NEAR ; std::basic_string<char,std::char_traits<char>,std::allocator<char> >::_Grow, COMDAT
; _this$ = ecx

; 1480 : 		{	// ensure buffer is big enough, trim to size if _Trim is true

  00000	55		 push	 ebp
  00001	56		 push	 esi

; 1481 : 		if (max_size() < _Newsize)

  00002	8b 74 24 0c	 mov	 esi, DWORD PTR __Newsize$[esp+4]
  00006	83 fe fe	 cmp	 esi, -2			; fffffffeH
  00009	8b e9		 mov	 ebp, ecx
  0000b	76 05		 jbe	 SHORT $L185002

; 1482 : 			_String_base::_Xlen();	// result too long

  0000d	e8 00 00 00 00	 call	 ?_Xlen@_String_base@std@@QBEXXZ ; std::_String_base::_Xlen
$L185002:

; 1483 : 		if (_Myres < _Newsize)

  00012	8b 45 18	 mov	 eax, DWORD PTR [ebp+24]
  00015	3b c6		 cmp	 eax, esi
  00017	73 19		 jae	 SHORT $L185003

; 1484 : 			_Copy(_Newsize, _Mysize);	// reallocate to grow

  00019	8b 45 14	 mov	 eax, DWORD PTR [ebp+20]
  0001c	50		 push	 eax
  0001d	56		 push	 esi
  0001e	8b cd		 mov	 ecx, ebp
  00020	e8 00 00 00 00	 call	 ?_Copy@?$basic_string@DU?$char_traits@D@std@@V?$allocator@D@2@@std@@IAEXII@Z ; std::basic_string<char,std::char_traits<char>,std::allocator<char> >::_Copy

; 1490 : 		return (0 < _Newsize);	// return true only if more work to do

  00025	33 c0		 xor	 eax, eax
  00027	3b c6		 cmp	 eax, esi
  00029	1b c0		 sbb	 eax, eax
  0002b	5e		 pop	 esi
  0002c	f7 d8		 neg	 eax
  0002e	5d		 pop	 ebp

; 1491 : 		}

  0002f	c2 08 00	 ret	 8
$L185003:

; 1485 : 		else if (_Trim && _Newsize < _BUF_SIZE)

  00032	8a 4c 24 10	 mov	 cl, BYTE PTR __Trim$[esp+4]
  00036	84 c9		 test	 cl, cl
  00038	74 5c		 je	 SHORT $L185005
  0003a	83 fe 10	 cmp	 esi, 16			; 00000010H
  0003d	73 57		 jae	 SHORT $L185005
  0003f	53		 push	 ebx

; 1486 : 			_Tidy(true,	// copy and deallocate if trimming to small string
; 1487 : 				_Newsize < _Mysize ? _Newsize : _Mysize);

  00040	8b 5d 14	 mov	 ebx, DWORD PTR [ebp+20]
  00043	3b f3		 cmp	 esi, ebx
  00045	73 02		 jae	 SHORT $L191071
  00047	8b de		 mov	 ebx, esi
$L191071:
  00049	83 f8 10	 cmp	 eax, 16			; 00000010H
  0004c	72 2b		 jb	 SHORT $L191132
  0004e	85 db		 test	 ebx, ebx
  00050	8b 45 04	 mov	 eax, DWORD PTR [ebp+4]
  00053	57		 push	 edi
  00054	8d 7d 04	 lea	 edi, DWORD PTR [ebp+4]
  00057	76 16		 jbe	 SHORT $L191130
  00059	8b cb		 mov	 ecx, ebx
  0005b	8b d1		 mov	 edx, ecx
  0005d	c1 e9 02	 shr	 ecx, 2
  00060	8b f0		 mov	 esi, eax
  00062	f3 a5		 rep movsd
  00064	8b ca		 mov	 ecx, edx
  00066	83 e1 03	 and	 ecx, 3
  00069	f3 a4		 rep movsb
  0006b	8b 74 24 14	 mov	 esi, DWORD PTR __Newsize$[esp+12]
$L191130:
  0006f	50		 push	 eax
  00070	e8 00 00 00 00	 call	 ??3@YAXPAX@Z		; operator delete
  00075	83 c4 04	 add	 esp, 4
  00078	5f		 pop	 edi
$L191132:
  00079	89 5d 14	 mov	 DWORD PTR [ebp+20], ebx

; 1490 : 		return (0 < _Newsize);	// return true only if more work to do

  0007c	33 c0		 xor	 eax, eax
  0007e	c7 45 18 0f 00
	00 00		 mov	 DWORD PTR [ebp+24], 15	; 0000000fH
  00085	c6 44 2b 04 00	 mov	 BYTE PTR [ebx+ebp+4], 0
  0008a	3b c6		 cmp	 eax, esi
  0008c	5b		 pop	 ebx
  0008d	1b c0		 sbb	 eax, eax
  0008f	5e		 pop	 esi
  00090	f7 d8		 neg	 eax
  00092	5d		 pop	 ebp

; 1491 : 		}

  00093	c2 08 00	 ret	 8
$L185005:

; 1488 : 		else if (_Newsize == 0)

  00096	85 f6		 test	 esi, esi
  00098	75 23		 jne	 SHORT $L191163

; 1489 : 			_Eos(0);	// new size is zero, just null terminate

  0009a	83 f8 10	 cmp	 eax, 16			; 00000010H
  0009d	89 75 14	 mov	 DWORD PTR [ebp+20], esi
  000a0	72 14		 jb	 SHORT $L191159
  000a2	8b 6d 04	 mov	 ebp, DWORD PTR [ebp+4]

; 1490 : 		return (0 < _Newsize);	// return true only if more work to do

  000a5	33 c0		 xor	 eax, eax
  000a7	3b c6		 cmp	 eax, esi
  000a9	1b c0		 sbb	 eax, eax
  000ab	5e		 pop	 esi
  000ac	c6 45 00 00	 mov	 BYTE PTR [ebp], 0
  000b0	f7 d8		 neg	 eax
  000b2	5d		 pop	 ebp

; 1491 : 		}

  000b3	c2 08 00	 ret	 8

; 1489 : 			_Eos(0);	// new size is zero, just null terminate

$L191159:
  000b6	83 c5 04	 add	 ebp, 4
  000b9	c6 45 00 00	 mov	 BYTE PTR [ebp], 0
$L191163:

; 1490 : 		return (0 < _Newsize);	// return true only if more work to do

  000bd	33 c0		 xor	 eax, eax
  000bf	3b c6		 cmp	 eax, esi
  000c1	1b c0		 sbb	 eax, eax
  000c3	5e		 pop	 esi
  000c4	f7 d8		 neg	 eax
  000c6	5d		 pop	 ebp

; 1491 : 		}

  000c7	c2 08 00	 ret	 8
?_Grow@?$basic_string@DU?$char_traits@D@std@@V?$allocator@D@2@@std@@IAE_NI_N@Z ENDP ; std::basic_string<char,std::char_traits<char>,std::allocator<char> >::_Grow
_TEXT	ENDS
PUBLIC	??1?$vector@EV?$allocator@E@std@@@std@@QAE@XZ	; std::vector<unsigned char,std::allocator<unsigned char> >::~vector<unsigned char,std::allocator<unsigned char> >
; Function compile flags: /Ogty
; File c:\program files\microsoft visual studio .net 2003\vc7\include\vector
;	COMDAT ??1?$vector@EV?$allocator@E@std@@@std@@QAE@XZ
_TEXT	SEGMENT
??1?$vector@EV?$allocator@E@std@@@std@@QAE@XZ PROC NEAR	; std::vector<unsigned char,std::allocator<unsigned char> >::~vector<unsigned char,std::allocator<unsigned char> >, COMDAT
; _this$ = ecx

; 387  : 		{	// destroy the object

  00000	56		 push	 esi
  00001	8b f1		 mov	 esi, ecx

; 388  : 		_Tidy();

  00003	8b 46 04	 mov	 eax, DWORD PTR [esi+4]
  00006	85 c0		 test	 eax, eax
  00008	74 09		 je	 SHORT $L191176
  0000a	50		 push	 eax
  0000b	e8 00 00 00 00	 call	 ??3@YAXPAX@Z		; operator delete
  00010	83 c4 04	 add	 esp, 4
$L191176:
  00013	c7 46 04 00 00
	00 00		 mov	 DWORD PTR [esi+4], 0
  0001a	c7 46 08 00 00
	00 00		 mov	 DWORD PTR [esi+8], 0
  00021	c7 46 0c 00 00
	00 00		 mov	 DWORD PTR [esi+12], 0
  00028	5e		 pop	 esi

; 389  : 		}

  00029	c3		 ret	 0
??1?$vector@EV?$allocator@E@std@@@std@@QAE@XZ ENDP	; std::vector<unsigned char,std::allocator<unsigned char> >::~vector<unsigned char,std::allocator<unsigned char> >
_TEXT	ENDS
PUBLIC	??0?$_Tree@V?$_Tmap_traits@EHU?$less@E@std@@V?$allocator@U?$pair@$$CBEH@std@@@2@$0A@@std@@@std@@QAE@ABU?$less@E@1@ABV?$allocator@U?$pair@$$CBEH@std@@@1@@Z ; std::_Tree<std::_Tmap_traits<unsigned char,int,std::less<unsigned char>,std::allocator<std::pair<unsigned char const ,int> >,0> >::_Tree<std::_Tmap_traits<unsigned char,int,std::less<unsigned char>,std::allocator<std::pair<unsigned char const ,int> >,0> >
; Function compile flags: /Ogty
; File c:\program files\microsoft visual studio .net 2003\vc7\include\xtree
;	COMDAT ??0?$_Tree@V?$_Tmap_traits@EHU?$less@E@std@@V?$allocator@U?$pair@$$CBEH@std@@@2@$0A@@std@@@std@@QAE@ABU?$less@E@1@ABV?$allocator@U?$pair@$$CBEH@std@@@1@@Z
_TEXT	SEGMENT
__Parg$ = 8						; size = 4
__Al$ = 12						; size = 4
??0?$_Tree@V?$_Tmap_traits@EHU?$less@E@std@@V?$allocator@U?$pair@$$CBEH@std@@@2@$0A@@std@@@std@@QAE@ABU?$less@E@1@ABV?$allocator@U?$pair@$$CBEH@std@@@1@@Z PROC NEAR ; std::_Tree<std::_Tmap_traits<unsigned char,int,std::less<unsigned char>,std::allocator<std::pair<unsigned char const ,int> >,0> >::_Tree<std::_Tmap_traits<unsigned char,int,std::less<unsigned char>,std::allocator<std::pair<unsigned char const ,int> >,0> >, COMDAT
; _this$ = ecx

; 361  : 		{	// construct empty tree

  00000	56		 push	 esi
  00001	8b f1		 mov	 esi, ecx

; 362  : 		_Init();

  00003	e8 00 00 00 00	 call	 ?_Buynode@?$_Tree@V?$_Tmap_traits@EHU?$less@E@std@@V?$allocator@U?$pair@$$CBEH@std@@@2@$0A@@std@@@std@@IAEPAU_Node@?$_Tree_nod@V?$_Tmap_traits@EHU?$less@E@std@@V?$allocator@U?$pair@$$CBEH@std@@@2@$0A@@std@@@2@XZ ; std::_Tree<std::_Tmap_traits<unsigned char,int,std::less<unsigned char>,std::allocator<std::pair<unsigned char const ,int> >,0> >::_Buynode
  00008	89 46 04	 mov	 DWORD PTR [esi+4], eax
  0000b	c6 40 15 01	 mov	 BYTE PTR [eax+21], 1
  0000f	8b 46 04	 mov	 eax, DWORD PTR [esi+4]
  00012	89 40 04	 mov	 DWORD PTR [eax+4], eax
  00015	8b 46 04	 mov	 eax, DWORD PTR [esi+4]
  00018	89 00		 mov	 DWORD PTR [eax], eax
  0001a	8b 46 04	 mov	 eax, DWORD PTR [esi+4]
  0001d	89 40 08	 mov	 DWORD PTR [eax+8], eax
  00020	c7 46 08 00 00
	00 00		 mov	 DWORD PTR [esi+8], 0

; 363  : 		}

  00027	8b c6		 mov	 eax, esi
  00029	5e		 pop	 esi
  0002a	c2 08 00	 ret	 8
??0?$_Tree@V?$_Tmap_traits@EHU?$less@E@std@@V?$allocator@U?$pair@$$CBEH@std@@@2@$0A@@std@@@std@@QAE@ABU?$less@E@1@ABV?$allocator@U?$pair@$$CBEH@std@@@1@@Z ENDP ; std::_Tree<std::_Tmap_traits<unsigned char,int,std::less<unsigned char>,std::allocator<std::pair<unsigned char const ,int> >,0> >::_Tree<std::_Tmap_traits<unsigned char,int,std::less<unsigned char>,std::allocator<std::pair<unsigned char const ,int> >,0> >
_TEXT	ENDS
PUBLIC	??$_Ucopy@Vconst_iterator@?$vector@EV?$allocator@E@std@@@std@@@?$vector@EV?$allocator@E@std@@@std@@IAEPAEVconst_iterator@01@0PAE@Z ; std::vector<unsigned char,std::allocator<unsigned char> >::_Ucopy<std::vector<unsigned char,std::allocator<unsigned char> >::const_iterator>
; Function compile flags: /Ogty
; File c:\program files\microsoft visual studio .net 2003\vc7\include\vector
;	COMDAT ??$_Ucopy@Vconst_iterator@?$vector@EV?$allocator@E@std@@@std@@@?$vector@EV?$allocator@E@std@@@std@@IAEPAEVconst_iterator@01@0PAE@Z
_TEXT	SEGMENT
__First$ = 8						; size = 4
__Last$ = 12						; size = 4
__Cat$191309 = 16					; size = 1
__Ptr$ = 16						; size = 4
??$_Ucopy@Vconst_iterator@?$vector@EV?$allocator@E@std@@@std@@@?$vector@EV?$allocator@E@std@@@std@@IAEPAEVconst_iterator@01@0PAE@Z PROC NEAR ; std::vector<unsigned char,std::allocator<unsigned char> >::_Ucopy<std::vector<unsigned char,std::allocator<unsigned char> >::const_iterator>, COMDAT
; _this$ = ecx

; 802  : 		{	// copy initializing [_First, _Last), using allocator
; 803  : 		return (_Uninitialized_copy(_First, _Last,
; 804  : 			_Ptr, this->_Alval));

  00000	8b 44 24 0c	 mov	 eax, DWORD PTR __Cat$191309[esp-4]
  00004	8b 54 24 08	 mov	 edx, DWORD PTR __Last$[esp-4]
  00008	50		 push	 eax
  00009	8b 44 24 08	 mov	 eax, DWORD PTR __First$[esp]
  0000d	51		 push	 ecx
  0000e	8b 4c 24 14	 mov	 ecx, DWORD PTR __Ptr$[esp+4]
  00012	51		 push	 ecx
  00013	52		 push	 edx
  00014	50		 push	 eax
  00015	e8 00 00 00 00	 call	 ??$_Uninit_copy@Vconst_iterator@?$vector@EV?$allocator@E@std@@@std@@PAEV?$allocator@E@3@@std@@YAPAEVconst_iterator@?$vector@EV?$allocator@E@std@@@0@0PAEAAV?$allocator@E@0@U_Nonscalar_ptr_iterator_tag@0@@Z ; std::_Uninit_copy<std::vector<unsigned char,std::allocator<unsigned char> >::const_iterator,unsigned char *,std::allocator<unsigned char> >
  0001a	83 c4 14	 add	 esp, 20			; 00000014H

; 805  : 		}

  0001d	c2 0c 00	 ret	 12			; 0000000cH
??$_Ucopy@Vconst_iterator@?$vector@EV?$allocator@E@std@@@std@@@?$vector@EV?$allocator@E@std@@@std@@IAEPAEVconst_iterator@01@0PAE@Z ENDP ; std::vector<unsigned char,std::allocator<unsigned char> >::_Ucopy<std::vector<unsigned char,std::allocator<unsigned char> >::const_iterator>
_TEXT	ENDS
PUBLIC	??_G?$basic_string@DU?$char_traits@D@std@@V?$allocator@D@2@@std@@QAEPAXI@Z ; std::basic_string<char,std::char_traits<char>,std::allocator<char> >::`scalar deleting destructor'
; Function compile flags: /Ogty
;	COMDAT ??_G?$basic_string@DU?$char_traits@D@std@@V?$allocator@D@2@@std@@QAEPAXI@Z
_TEXT	SEGMENT
___flags$ = 8						; size = 4
??_G?$basic_string@DU?$char_traits@D@std@@V?$allocator@D@2@@std@@QAEPAXI@Z PROC NEAR ; std::basic_string<char,std::char_traits<char>,std::allocator<char> >::`scalar deleting destructor', COMDAT
; _this$ = ecx
  00000	56		 push	 esi
  00001	8b f1		 mov	 esi, ecx
  00003	83 7e 18 10	 cmp	 DWORD PTR [esi+24], 16	; 00000010H
  00007	72 0c		 jb	 SHORT $L191376
  00009	8b 46 04	 mov	 eax, DWORD PTR [esi+4]
  0000c	50		 push	 eax
  0000d	e8 00 00 00 00	 call	 ??3@YAXPAX@Z		; operator delete
  00012	83 c4 04	 add	 esp, 4
$L191376:
  00015	33 c0		 xor	 eax, eax
  00017	89 46 14	 mov	 DWORD PTR [esi+20], eax
  0001a	c7 46 18 0f 00
	00 00		 mov	 DWORD PTR [esi+24], 15	; 0000000fH
  00021	88 46 04	 mov	 BYTE PTR [esi+4], al
  00024	f6 44 24 08 01	 test	 BYTE PTR ___flags$[esp], 1
  00029	74 09		 je	 SHORT $L191388
  0002b	56		 push	 esi
  0002c	e8 00 00 00 00	 call	 ??3@YAXPAX@Z		; operator delete
  00031	83 c4 04	 add	 esp, 4
$L191388:
  00034	8b c6		 mov	 eax, esi
  00036	5e		 pop	 esi
  00037	c2 04 00	 ret	 4
??_G?$basic_string@DU?$char_traits@D@std@@V?$allocator@D@2@@std@@QAEPAXI@Z ENDP ; std::basic_string<char,std::char_traits<char>,std::allocator<char> >::`scalar deleting destructor'
_TEXT	ENDS
PUBLIC	??_7logic_error@std@@6B@			; std::logic_error::`vftable'
PUBLIC	??_Glogic_error@std@@UAEPAXI@Z			; std::logic_error::`scalar deleting destructor'
PUBLIC	??1logic_error@std@@UAE@XZ			; std::logic_error::~logic_error
PUBLIC	?what@logic_error@std@@UBEPBDXZ			; std::logic_error::what
EXTRN	??_Elogic_error@std@@UAEPAXI@Z:NEAR		; std::logic_error::`vector deleting destructor'
EXTRN	??1exception@@UAE@XZ:NEAR			; exception::~exception
;	COMDAT ??_7logic_error@std@@6B@
; File c:\program files\microsoft visual studio .net 2003\vc7\include\iosfwd
CONST	SEGMENT
??_7logic_error@std@@6B@ DD FLAT:??_Elogic_error@std@@UAEPAXI@Z ; std::logic_error::`vftable'
	DD	FLAT:?what@logic_error@std@@UBEPBDXZ
; Function compile flags: /Ogty
; File c:\program files\microsoft visual studio .net 2003\vc7\include\stdexcept
CONST	ENDS
;	COMDAT ??1logic_error@std@@UAE@XZ
_TEXT	SEGMENT
??1logic_error@std@@UAE@XZ PROC NEAR			; std::logic_error::~logic_error, COMDAT
; _this$ = ecx

; 23   : 		{}	// destroy the object

  00000	56		 push	 esi
  00001	8b f1		 mov	 esi, ecx
  00003	c7 06 00 00 00
	00		 mov	 DWORD PTR [esi], OFFSET FLAT:??_7logic_error@std@@6B@
  00009	83 7e 24 10	 cmp	 DWORD PTR [esi+36], 16	; 00000010H
  0000d	72 0c		 jb	 SHORT $L191455
  0000f	8b 46 10	 mov	 eax, DWORD PTR [esi+16]
  00012	50		 push	 eax
  00013	e8 00 00 00 00	 call	 ??3@YAXPAX@Z		; operator delete
  00018	83 c4 04	 add	 esp, 4
$L191455:
  0001b	33 c0		 xor	 eax, eax
  0001d	c7 46 24 0f 00
	00 00		 mov	 DWORD PTR [esi+36], 15	; 0000000fH
  00024	89 46 20	 mov	 DWORD PTR [esi+32], eax
  00027	88 46 10	 mov	 BYTE PTR [esi+16], al
  0002a	8b ce		 mov	 ecx, esi
  0002c	5e		 pop	 esi
  0002d	e9 00 00 00 00	 jmp	 ??1exception@@UAE@XZ	; exception::~exception
??1logic_error@std@@UAE@XZ ENDP				; std::logic_error::~logic_error
; Function compile flags: /Ogty
_TEXT	ENDS
;	COMDAT ?what@logic_error@std@@UBEPBDXZ
_TEXT	SEGMENT
?what@logic_error@std@@UBEPBDXZ PROC NEAR		; std::logic_error::what, COMDAT
; _this$ = ecx

; 27   : 		return (_Str.c_str());

  00000	83 79 24 10	 cmp	 DWORD PTR [ecx+36], 16	; 00000010H
  00004	72 04		 jb	 SHORT $L191482
  00006	8b 41 10	 mov	 eax, DWORD PTR [ecx+16]

; 28   : 		}

  00009	c3		 ret	 0

; 27   : 		return (_Str.c_str());

$L191482:
  0000a	8d 41 10	 lea	 eax, DWORD PTR [ecx+16]

; 28   : 		}

  0000d	c3		 ret	 0
?what@logic_error@std@@UBEPBDXZ ENDP			; std::logic_error::what
; Function compile flags: /Ogty
_TEXT	ENDS
;	COMDAT ??_Glogic_error@std@@UAEPAXI@Z
_TEXT	SEGMENT
___flags$ = 8						; size = 4
??_Glogic_error@std@@UAEPAXI@Z PROC NEAR		; std::logic_error::`scalar deleting destructor', COMDAT
; _this$ = ecx
  00000	56		 push	 esi
  00001	8b f1		 mov	 esi, ecx
  00003	e8 00 00 00 00	 call	 ??1logic_error@std@@UAE@XZ ; std::logic_error::~logic_error
  00008	f6 44 24 08 01	 test	 BYTE PTR ___flags$[esp], 1
  0000d	74 09		 je	 SHORT $L191487
  0000f	56		 push	 esi
  00010	e8 00 00 00 00	 call	 ??3@YAXPAX@Z		; operator delete
  00015	83 c4 04	 add	 esp, 4
$L191487:
  00018	8b c6		 mov	 eax, esi
  0001a	5e		 pop	 esi
  0001b	c2 04 00	 ret	 4
??_Glogic_error@std@@UAEPAXI@Z ENDP			; std::logic_error::`scalar deleting destructor'
_TEXT	ENDS
PUBLIC	?assign@?$basic_string@DU?$char_traits@D@std@@V?$allocator@D@2@@std@@QAEAAV12@ABV12@II@Z ; std::basic_string<char,std::char_traits<char>,std::allocator<char> >::assign
; Function compile flags: /Ogty
; File c:\program files\microsoft visual studio .net 2003\vc7\include\xstring
;	COMDAT ?assign@?$basic_string@DU?$char_traits@D@std@@V?$allocator@D@2@@std@@QAEAAV12@ABV12@II@Z
_TEXT	SEGMENT
__Right$ = 8						; size = 4
__Roff$ = 12						; size = 4
__Count$ = 16						; size = 4
?assign@?$basic_string@DU?$char_traits@D@std@@V?$allocator@D@2@@std@@QAEAAV12@ABV12@II@Z PROC NEAR ; std::basic_string<char,std::char_traits<char>,std::allocator<char> >::assign, COMDAT
; _this$ = ecx

; 590  : 		{	// assign _Right [_Roff, _Roff + _Count)

  00000	53		 push	 ebx
  00001	55		 push	 ebp
  00002	56		 push	 esi

; 591  : 		if (_Right.size() < _Roff)

  00003	8b 74 24 14	 mov	 esi, DWORD PTR __Roff$[esp+8]
  00007	57		 push	 edi
  00008	8b 7c 24 14	 mov	 edi, DWORD PTR __Right$[esp+12]
  0000c	39 77 14	 cmp	 DWORD PTR [edi+20], esi
  0000f	8b d9		 mov	 ebx, ecx
  00011	73 05		 jae	 SHORT $L184271

; 592  : 			_String_base::_Xran();	// _Roff off end

  00013	e8 00 00 00 00	 call	 ?_Xran@_String_base@std@@QBEXXZ ; std::_String_base::_Xran
$L184271:

; 593  : 		size_type _Num = _Right.size() - _Roff;

  00018	8b 6f 14	 mov	 ebp, DWORD PTR [edi+20]

; 594  : 		if (_Count < _Num)

  0001b	8b 44 24 1c	 mov	 eax, DWORD PTR __Count$[esp+12]
  0001f	2b ee		 sub	 ebp, esi
  00021	3b c5		 cmp	 eax, ebp
  00023	73 02		 jae	 SHORT $L184273

; 595  : 			_Num = _Count;	// trim _Num to size

  00025	8b e8		 mov	 ebp, eax
$L184273:

; 596  : 
; 597  : 		if (this == &_Right)

  00027	3b df		 cmp	 ebx, edi
  00029	75 1f		 jne	 SHORT $L184274

; 598  : 			erase((size_type)(_Roff + _Num)), erase(0, _Roff);	// substring

  0002b	6a ff		 push	 -1
  0002d	03 ee		 add	 ebp, esi
  0002f	55		 push	 ebp
  00030	8b cb		 mov	 ecx, ebx
  00032	e8 00 00 00 00	 call	 ?erase@?$basic_string@DU?$char_traits@D@std@@V?$allocator@D@2@@std@@QAEAAV12@II@Z ; std::basic_string<char,std::char_traits<char>,std::allocator<char> >::erase
  00037	56		 push	 esi
  00038	6a 00		 push	 0
  0003a	8b cb		 mov	 ecx, ebx
  0003c	e8 00 00 00 00	 call	 ?erase@?$basic_string@DU?$char_traits@D@std@@V?$allocator@D@2@@std@@QAEAAV12@II@Z ; std::basic_string<char,std::char_traits<char>,std::allocator<char> >::erase
  00041	5f		 pop	 edi
  00042	5e		 pop	 esi
  00043	5d		 pop	 ebp

; 603  : 			}
; 604  : 		return (*this);

  00044	8b c3		 mov	 eax, ebx
  00046	5b		 pop	 ebx

; 605  : 		}

  00047	c2 0c 00	 ret	 12			; 0000000cH
$L184274:

; 599  : 		else if (_Grow(_Num))

  0004a	83 fd fe	 cmp	 ebp, -2			; fffffffeH
  0004d	76 07		 jbe	 SHORT $L191637
  0004f	8b cb		 mov	 ecx, ebx
  00051	e8 00 00 00 00	 call	 ?_Xlen@_String_base@std@@QBEXXZ ; std::_String_base::_Xlen
$L191637:
  00056	8b 43 18	 mov	 eax, DWORD PTR [ebx+24]
  00059	3b c5		 cmp	 eax, ebp
  0005b	73 21		 jae	 SHORT $L191638
  0005d	8b 43 14	 mov	 eax, DWORD PTR [ebx+20]
  00060	50		 push	 eax
  00061	55		 push	 ebp
  00062	8b cb		 mov	 ecx, ebx
  00064	e8 00 00 00 00	 call	 ?_Copy@?$basic_string@DU?$char_traits@D@std@@V?$allocator@D@2@@std@@IAEXII@Z ; std::basic_string<char,std::char_traits<char>,std::allocator<char> >::_Copy
  00069	85 ed		 test	 ebp, ebp
$L191683:
  0006b	76 6d		 jbe	 SHORT $L191682

; 600  : 			{	// make room and assign new stuff
; 601  : 			_Traits::copy(_Myptr(), _Right._Myptr() + _Roff, _Num);

  0006d	8b 4f 18	 mov	 ecx, DWORD PTR [edi+24]
  00070	b8 10 00 00 00	 mov	 eax, 16			; 00000010H
  00075	3b c8		 cmp	 ecx, eax
  00077	72 2f		 jb	 SHORT $L191648
  00079	8b 57 04	 mov	 edx, DWORD PTR [edi+4]
  0007c	eb 2d		 jmp	 SHORT $L191649

; 599  : 		else if (_Grow(_Num))

$L191638:
  0007e	85 ed		 test	 ebp, ebp
  00080	75 e9		 jne	 SHORT $L191683
  00082	83 f8 10	 cmp	 eax, 16			; 00000010H
  00085	89 6b 14	 mov	 DWORD PTR [ebx+20], ebp
  00088	72 0f		 jb	 SHORT $L191630
  0008a	8b 43 04	 mov	 eax, DWORD PTR [ebx+4]
  0008d	5f		 pop	 edi
  0008e	5e		 pop	 esi
  0008f	c6 00 00	 mov	 BYTE PTR [eax], 0
  00092	5d		 pop	 ebp

; 603  : 			}
; 604  : 		return (*this);

  00093	8b c3		 mov	 eax, ebx
  00095	5b		 pop	 ebx

; 605  : 		}

  00096	c2 0c 00	 ret	 12			; 0000000cH

; 599  : 		else if (_Grow(_Num))

$L191630:
  00099	5f		 pop	 edi
  0009a	8d 43 04	 lea	 eax, DWORD PTR [ebx+4]
  0009d	5e		 pop	 esi
  0009e	c6 00 00	 mov	 BYTE PTR [eax], 0
  000a1	5d		 pop	 ebp

; 603  : 			}
; 604  : 		return (*this);

  000a2	8b c3		 mov	 eax, ebx
  000a4	5b		 pop	 ebx

; 605  : 		}

  000a5	c2 0c 00	 ret	 12			; 0000000cH

; 600  : 			{	// make room and assign new stuff
; 601  : 			_Traits::copy(_Myptr(), _Right._Myptr() + _Roff, _Num);

$L191648:
  000a8	8d 57 04	 lea	 edx, DWORD PTR [edi+4]
$L191649:
  000ab	39 43 18	 cmp	 DWORD PTR [ebx+24], eax
  000ae	8d 43 04	 lea	 eax, DWORD PTR [ebx+4]
  000b1	72 04		 jb	 SHORT $L191654
  000b3	8b 38		 mov	 edi, DWORD PTR [eax]
  000b5	eb 02		 jmp	 SHORT $L191655
$L191654:
  000b7	8b f8		 mov	 edi, eax
$L191655:
  000b9	03 f2		 add	 esi, edx
  000bb	8b cd		 mov	 ecx, ebp
  000bd	8b d1		 mov	 edx, ecx
  000bf	c1 e9 02	 shr	 ecx, 2
  000c2	f3 a5		 rep movsd
  000c4	8b ca		 mov	 ecx, edx
  000c6	83 e1 03	 and	 ecx, 3
  000c9	f3 a4		 rep movsb

; 602  : 			_Eos(_Num);

  000cb	83 7b 18 10	 cmp	 DWORD PTR [ebx+24], 16	; 00000010H
  000cf	89 6b 14	 mov	 DWORD PTR [ebx+20], ebp
  000d2	72 02		 jb	 SHORT $L191677
  000d4	8b 00		 mov	 eax, DWORD PTR [eax]
$L191677:
  000d6	c6 04 28 00	 mov	 BYTE PTR [eax+ebp], 0
$L191682:
  000da	5f		 pop	 edi
  000db	5e		 pop	 esi
  000dc	5d		 pop	 ebp

; 603  : 			}
; 604  : 		return (*this);

  000dd	8b c3		 mov	 eax, ebx
  000df	5b		 pop	 ebx

; 605  : 		}

  000e0	c2 0c 00	 ret	 12			; 0000000cH
?assign@?$basic_string@DU?$char_traits@D@std@@V?$allocator@D@2@@std@@QAEAAV12@ABV12@II@Z ENDP ; std::basic_string<char,std::char_traits<char>,std::allocator<char> >::assign
_TEXT	ENDS
PUBLIC	?assign@?$basic_string@DU?$char_traits@D@std@@V?$allocator@D@2@@std@@QAEAAV12@PBDI@Z ; std::basic_string<char,std::char_traits<char>,std::allocator<char> >::assign
; Function compile flags: /Ogty
;	COMDAT ?assign@?$basic_string@DU?$char_traits@D@std@@V?$allocator@D@2@@std@@QAEAAV12@PBDI@Z
_TEXT	SEGMENT
__Ptr$ = 8						; size = 4
__Num$ = 12						; size = 4
?assign@?$basic_string@DU?$char_traits@D@std@@V?$allocator@D@2@@std@@QAEAAV12@PBDI@Z PROC NEAR ; std::basic_string<char,std::char_traits<char>,std::allocator<char> >::assign, COMDAT
; _this$ = ecx

; 608  : 		{	// assign [_Ptr, _Ptr + _Num)

  00000	53		 push	 ebx
  00001	8b d9		 mov	 ebx, ecx

; 609  : 		if (_Inside(_Ptr))

  00003	8b 53 18	 mov	 edx, DWORD PTR [ebx+24]
  00006	83 fa 10	 cmp	 edx, 16			; 00000010H
  00009	56		 push	 esi
  0000a	57		 push	 edi
  0000b	72 05		 jb	 SHORT $L191703
  0000d	8b 43 04	 mov	 eax, DWORD PTR [ebx+4]
  00010	eb 03		 jmp	 SHORT $L191704
$L191703:
  00012	8d 43 04	 lea	 eax, DWORD PTR [ebx+4]
$L191704:
  00015	8b 74 24 10	 mov	 esi, DWORD PTR __Ptr$[esp+8]
  00019	3b f0		 cmp	 esi, eax
  0001b	72 34		 jb	 SHORT $L184989
  0001d	83 fa 10	 cmp	 edx, 16			; 00000010H
  00020	8d 43 04	 lea	 eax, DWORD PTR [ebx+4]
  00023	72 04		 jb	 SHORT $L191707
  00025	8b 08		 mov	 ecx, DWORD PTR [eax]
  00027	eb 02		 jmp	 SHORT $L191708
$L191707:
  00029	8b c8		 mov	 ecx, eax
$L191708:
  0002b	8b 7b 14	 mov	 edi, DWORD PTR [ebx+20]
  0002e	03 f9		 add	 edi, ecx
  00030	3b fe		 cmp	 edi, esi
  00032	76 1d		 jbe	 SHORT $L184989

; 610  : 			return (assign(*this, _Ptr - _Myptr(), _Num));	// substring

  00034	83 fa 10	 cmp	 edx, 16			; 00000010H
  00037	72 02		 jb	 SHORT $L191720
  00039	8b 00		 mov	 eax, DWORD PTR [eax]
$L191720:
  0003b	8b 4c 24 14	 mov	 ecx, DWORD PTR __Num$[esp+8]
  0003f	51		 push	 ecx
  00040	2b f0		 sub	 esi, eax
  00042	56		 push	 esi
  00043	53		 push	 ebx
  00044	8b cb		 mov	 ecx, ebx
  00046	e8 00 00 00 00	 call	 ?assign@?$basic_string@DU?$char_traits@D@std@@V?$allocator@D@2@@std@@QAEAAV12@ABV12@II@Z ; std::basic_string<char,std::char_traits<char>,std::allocator<char> >::assign
  0004b	5f		 pop	 edi
  0004c	5e		 pop	 esi
  0004d	5b		 pop	 ebx

; 618  : 		}

  0004e	c2 08 00	 ret	 8
$L184989:
  00051	55		 push	 ebp

; 611  : 
; 612  : 		if (_Grow(_Num))

  00052	8b 6c 24 18	 mov	 ebp, DWORD PTR __Num$[esp+12]
  00056	83 fd fe	 cmp	 ebp, -2			; fffffffeH
  00059	76 07		 jbe	 SHORT $L191861
  0005b	8b cb		 mov	 ecx, ebx
  0005d	e8 00 00 00 00	 call	 ?_Xlen@_String_base@std@@QBEXXZ ; std::_String_base::_Xlen
$L191861:
  00062	8b 43 18	 mov	 eax, DWORD PTR [ebx+24]
  00065	3b c5		 cmp	 eax, ebp
  00067	73 1b		 jae	 SHORT $L191862
  00069	8b 53 14	 mov	 edx, DWORD PTR [ebx+20]
  0006c	52		 push	 edx
  0006d	55		 push	 ebp
  0006e	8b cb		 mov	 ecx, ebx
  00070	e8 00 00 00 00	 call	 ?_Copy@?$basic_string@DU?$char_traits@D@std@@V?$allocator@D@2@@std@@IAEXII@Z ; std::basic_string<char,std::char_traits<char>,std::allocator<char> >::_Copy
  00075	85 ed		 test	 ebp, ebp
$L191900:
  00077	76 68		 jbe	 SHORT $L191897

; 613  : 			{	// make room and assign new stuff
; 614  : 			_Traits::copy(_Myptr(), _Ptr, _Num);

  00079	83 7b 18 10	 cmp	 DWORD PTR [ebx+24], 16	; 00000010H
  0007d	72 2f		 jb	 SHORT $L191871
  0007f	8b 7b 04	 mov	 edi, DWORD PTR [ebx+4]
  00082	eb 2d		 jmp	 SHORT $L191872

; 611  : 
; 612  : 		if (_Grow(_Num))

$L191862:
  00084	85 ed		 test	 ebp, ebp
  00086	75 ef		 jne	 SHORT $L191900
  00088	83 f8 10	 cmp	 eax, 16			; 00000010H
  0008b	89 6b 14	 mov	 DWORD PTR [ebx+20], ebp
  0008e	72 0f		 jb	 SHORT $L191854
  00090	8b 43 04	 mov	 eax, DWORD PTR [ebx+4]
  00093	5d		 pop	 ebp
  00094	5f		 pop	 edi
  00095	c6 00 00	 mov	 BYTE PTR [eax], 0
  00098	5e		 pop	 esi

; 616  : 			}
; 617  : 		return (*this);

  00099	8b c3		 mov	 eax, ebx
  0009b	5b		 pop	 ebx

; 618  : 		}

  0009c	c2 08 00	 ret	 8

; 611  : 
; 612  : 		if (_Grow(_Num))

$L191854:
  0009f	5d		 pop	 ebp
  000a0	8d 43 04	 lea	 eax, DWORD PTR [ebx+4]
  000a3	5f		 pop	 edi
  000a4	c6 00 00	 mov	 BYTE PTR [eax], 0
  000a7	5e		 pop	 esi

; 616  : 			}
; 617  : 		return (*this);

  000a8	8b c3		 mov	 eax, ebx
  000aa	5b		 pop	 ebx

; 618  : 		}

  000ab	c2 08 00	 ret	 8

; 613  : 			{	// make room and assign new stuff
; 614  : 			_Traits::copy(_Myptr(), _Ptr, _Num);

$L191871:
  000ae	8d 7b 04	 lea	 edi, DWORD PTR [ebx+4]
$L191872:
  000b1	8b cd		 mov	 ecx, ebp
  000b3	8b c1		 mov	 eax, ecx
  000b5	c1 e9 02	 shr	 ecx, 2
  000b8	f3 a5		 rep movsd
  000ba	8b c8		 mov	 ecx, eax
  000bc	83 e1 03	 and	 ecx, 3
  000bf	f3 a4		 rep movsb

; 615  : 			_Eos(_Num);

  000c1	83 7b 18 10	 cmp	 DWORD PTR [ebx+24], 16	; 00000010H
  000c5	89 6b 14	 mov	 DWORD PTR [ebx+20], ebp
  000c8	72 10		 jb	 SHORT $L191893
  000ca	8b 43 04	 mov	 eax, DWORD PTR [ebx+4]
  000cd	c6 04 28 00	 mov	 BYTE PTR [eax+ebp], 0
  000d1	5d		 pop	 ebp
  000d2	5f		 pop	 edi
  000d3	5e		 pop	 esi

; 616  : 			}
; 617  : 		return (*this);

  000d4	8b c3		 mov	 eax, ebx
  000d6	5b		 pop	 ebx

; 618  : 		}

  000d7	c2 08 00	 ret	 8

; 615  : 			_Eos(_Num);

$L191893:
  000da	8d 43 04	 lea	 eax, DWORD PTR [ebx+4]
  000dd	c6 04 28 00	 mov	 BYTE PTR [eax+ebp], 0
$L191897:
  000e1	5d		 pop	 ebp
  000e2	5f		 pop	 edi
  000e3	5e		 pop	 esi

; 616  : 			}
; 617  : 		return (*this);

  000e4	8b c3		 mov	 eax, ebx
  000e6	5b		 pop	 ebx

; 618  : 		}

  000e7	c2 08 00	 ret	 8
?assign@?$basic_string@DU?$char_traits@D@std@@V?$allocator@D@2@@std@@QAEAAV12@PBDI@Z ENDP ; std::basic_string<char,std::char_traits<char>,std::allocator<char> >::assign
_TEXT	ENDS
PUBLIC	?assign@?$basic_string@DU?$char_traits@D@std@@V?$allocator@D@2@@std@@QAEAAV12@ABV12@@Z ; std::basic_string<char,std::char_traits<char>,std::allocator<char> >::assign
; Function compile flags: /Ogty
;	COMDAT ?assign@?$basic_string@DU?$char_traits@D@std@@V?$allocator@D@2@@std@@QAEAAV12@ABV12@@Z
_TEXT	SEGMENT
__Right$ = 8						; size = 4
?assign@?$basic_string@DU?$char_traits@D@std@@V?$allocator@D@2@@std@@QAEAAV12@ABV12@@Z PROC NEAR ; std::basic_string<char,std::char_traits<char>,std::allocator<char> >::assign, COMDAT
; _this$ = ecx

; 585  : 		return (assign(_Right, 0, npos));

  00000	8b 44 24 04	 mov	 eax, DWORD PTR __Right$[esp-4]
  00004	6a ff		 push	 -1
  00006	6a 00		 push	 0
  00008	50		 push	 eax
  00009	e8 00 00 00 00	 call	 ?assign@?$basic_string@DU?$char_traits@D@std@@V?$allocator@D@2@@std@@QAEAAV12@ABV12@II@Z ; std::basic_string<char,std::char_traits<char>,std::allocator<char> >::assign

; 586  : 		}

  0000e	c2 04 00	 ret	 4
?assign@?$basic_string@DU?$char_traits@D@std@@V?$allocator@D@2@@std@@QAEAAV12@ABV12@@Z ENDP ; std::basic_string<char,std::char_traits<char>,std::allocator<char> >::assign
_TEXT	ENDS
PUBLIC	??$_Destroy@V?$basic_string@DU?$char_traits@D@std@@V?$allocator@D@2@@std@@@std@@YAXPAV?$basic_string@DU?$char_traits@D@std@@V?$allocator@D@2@@0@@Z ; std::_Destroy<std::basic_string<char,std::char_traits<char>,std::allocator<char> > >
; Function compile flags: /Ogty
; File c:\program files\microsoft visual studio .net 2003\vc7\include\xmemory
;	COMDAT ??$_Destroy@V?$basic_string@DU?$char_traits@D@std@@V?$allocator@D@2@@std@@@std@@YAXPAV?$basic_string@DU?$char_traits@D@std@@V?$allocator@D@2@@0@@Z
_TEXT	SEGMENT
__Ptr$ = 8						; size = 4
??$_Destroy@V?$basic_string@DU?$char_traits@D@std@@V?$allocator@D@2@@std@@@std@@YAXPAV?$basic_string@DU?$char_traits@D@std@@V?$allocator@D@2@@0@@Z PROC NEAR ; std::_Destroy<std::basic_string<char,std::char_traits<char>,std::allocator<char> > >, COMDAT

; 48   : 	{	// destroy object at _Ptr

  00000	56		 push	 esi

; 49   : 	_DESTRUCTOR(_Ty, _Ptr);

  00001	8b 74 24 08	 mov	 esi, DWORD PTR __Ptr$[esp]
  00005	83 7e 18 10	 cmp	 DWORD PTR [esi+24], 16	; 00000010H
  00009	72 0c		 jb	 SHORT $L191991
  0000b	8b 46 04	 mov	 eax, DWORD PTR [esi+4]
  0000e	50		 push	 eax
  0000f	e8 00 00 00 00	 call	 ??3@YAXPAX@Z		; operator delete
  00014	83 c4 04	 add	 esp, 4
$L191991:
  00017	33 c0		 xor	 eax, eax
  00019	c7 46 18 0f 00
	00 00		 mov	 DWORD PTR [esi+24], 15	; 0000000fH
  00020	89 46 14	 mov	 DWORD PTR [esi+20], eax
  00023	88 46 04	 mov	 BYTE PTR [esi+4], al
  00026	5e		 pop	 esi

; 50   : 	}

  00027	c3		 ret	 0
??$_Destroy@V?$basic_string@DU?$char_traits@D@std@@V?$allocator@D@2@@std@@@std@@YAXPAV?$basic_string@DU?$char_traits@D@std@@V?$allocator@D@2@@0@@Z ENDP ; std::_Destroy<std::basic_string<char,std::char_traits<char>,std::allocator<char> > >
_TEXT	ENDS
PUBLIC	??0?$basic_string@DU?$char_traits@D@std@@V?$allocator@D@2@@std@@QAE@ABV01@@Z ; std::basic_string<char,std::char_traits<char>,std::allocator<char> >::basic_string<char,std::char_traits<char>,std::allocator<char> >
; Function compile flags: /Ogty
; File c:\program files\microsoft visual studio .net 2003\vc7\include\xstring
;	COMDAT ??0?$basic_string@DU?$char_traits@D@std@@V?$allocator@D@2@@std@@QAE@ABV01@@Z
_TEXT	SEGMENT
__Right$ = 8						; size = 4
??0?$basic_string@DU?$char_traits@D@std@@V?$allocator@D@2@@std@@QAE@ABV01@@Z PROC NEAR ; std::basic_string<char,std::char_traits<char>,std::allocator<char> >::basic_string<char,std::char_traits<char>,std::allocator<char> >, COMDAT
; _this$ = ecx

; 323  : 		{	// construct by copying _Right

  00000	56		 push	 esi

; 324  : 		_Tidy();

  00001	33 c0		 xor	 eax, eax
  00003	8b f1		 mov	 esi, ecx

; 325  : 		assign(_Right, 0, npos);

  00005	6a ff		 push	 -1
  00007	89 46 14	 mov	 DWORD PTR [esi+20], eax
  0000a	c7 46 18 0f 00
	00 00		 mov	 DWORD PTR [esi+24], 15	; 0000000fH
  00011	50		 push	 eax
  00012	88 46 04	 mov	 BYTE PTR [esi+4], al
  00015	8b 44 24 10	 mov	 eax, DWORD PTR __Right$[esp+8]
  00019	50		 push	 eax
  0001a	e8 00 00 00 00	 call	 ?assign@?$basic_string@DU?$char_traits@D@std@@V?$allocator@D@2@@std@@QAEAAV12@ABV12@II@Z ; std::basic_string<char,std::char_traits<char>,std::allocator<char> >::assign

; 326  : 		}

  0001f	8b c6		 mov	 eax, esi
  00021	5e		 pop	 esi
  00022	c2 04 00	 ret	 4
??0?$basic_string@DU?$char_traits@D@std@@V?$allocator@D@2@@std@@QAE@ABV01@@Z ENDP ; std::basic_string<char,std::char_traits<char>,std::allocator<char> >::basic_string<char,std::char_traits<char>,std::allocator<char> >
_TEXT	ENDS
PUBLIC	?assign@?$basic_string@DU?$char_traits@D@std@@V?$allocator@D@2@@std@@QAEAAV12@PBD@Z ; std::basic_string<char,std::char_traits<char>,std::allocator<char> >::assign
; Function compile flags: /Ogty
;	COMDAT ?assign@?$basic_string@DU?$char_traits@D@std@@V?$allocator@D@2@@std@@QAEAAV12@PBD@Z
_TEXT	SEGMENT
__Ptr$ = 8						; size = 4
?assign@?$basic_string@DU?$char_traits@D@std@@V?$allocator@D@2@@std@@QAEAAV12@PBD@Z PROC NEAR ; std::basic_string<char,std::char_traits<char>,std::allocator<char> >::assign, COMDAT
; _this$ = ecx

; 621  : 		{	// assign [_Ptr, <null>)

  00000	56		 push	 esi

; 622  : 		return (assign(_Ptr, _Traits::length(_Ptr)));

  00001	8b 74 24 08	 mov	 esi, DWORD PTR __Ptr$[esp]
  00005	8b c6		 mov	 eax, esi
  00007	57		 push	 edi
  00008	8d 78 01	 lea	 edi, DWORD PTR [eax+1]
  0000b	eb 03 8d 49 00	 npad	 5
$L192075:
  00010	8a 10		 mov	 dl, BYTE PTR [eax]
  00012	40		 inc	 eax
  00013	84 d2		 test	 dl, dl
  00015	75 f9		 jne	 SHORT $L192075
  00017	2b c7		 sub	 eax, edi
  00019	50		 push	 eax
  0001a	56		 push	 esi
  0001b	e8 00 00 00 00	 call	 ?assign@?$basic_string@DU?$char_traits@D@std@@V?$allocator@D@2@@std@@QAEAAV12@PBDI@Z ; std::basic_string<char,std::char_traits<char>,std::allocator<char> >::assign
  00020	5f		 pop	 edi
  00021	5e		 pop	 esi

; 623  : 		}

  00022	c2 04 00	 ret	 4
?assign@?$basic_string@DU?$char_traits@D@std@@V?$allocator@D@2@@std@@QAEAAV12@PBD@Z ENDP ; std::basic_string<char,std::char_traits<char>,std::allocator<char> >::assign
_TEXT	ENDS
PUBLIC	??4?$basic_string@DU?$char_traits@D@std@@V?$allocator@D@2@@std@@QAEAAV01@ABV01@@Z ; std::basic_string<char,std::char_traits<char>,std::allocator<char> >::operator=
; Function compile flags: /Ogty
;	COMDAT ??4?$basic_string@DU?$char_traits@D@std@@V?$allocator@D@2@@std@@QAEAAV01@ABV01@@Z
_TEXT	SEGMENT
__Right$ = 8						; size = 4
??4?$basic_string@DU?$char_traits@D@std@@V?$allocator@D@2@@std@@QAEAAV01@ABV01@@Z PROC NEAR ; std::basic_string<char,std::char_traits<char>,std::allocator<char> >::operator=, COMDAT
; _this$ = ecx

; 467  : 		return (assign(_Right));

  00000	8b 44 24 04	 mov	 eax, DWORD PTR __Right$[esp-4]
  00004	6a ff		 push	 -1
  00006	6a 00		 push	 0
  00008	50		 push	 eax
  00009	e8 00 00 00 00	 call	 ?assign@?$basic_string@DU?$char_traits@D@std@@V?$allocator@D@2@@std@@QAEAAV12@ABV12@II@Z ; std::basic_string<char,std::char_traits<char>,std::allocator<char> >::assign

; 468  : 		}

  0000e	c2 04 00	 ret	 4
??4?$basic_string@DU?$char_traits@D@std@@V?$allocator@D@2@@std@@QAEAAV01@ABV01@@Z ENDP ; std::basic_string<char,std::char_traits<char>,std::allocator<char> >::operator=
_TEXT	ENDS
PUBLIC	??$_Copy_backward_opt@PAV?$basic_string@DU?$char_traits@D@std@@V?$allocator@D@2@@std@@PAV12@@std@@YAPAV?$basic_string@DU?$char_traits@D@std@@V?$allocator@D@2@@0@PAV10@00U_Nonscalar_ptr_iterator_tag@0@@Z ; std::_Copy_backward_opt<std::basic_string<char,std::char_traits<char>,std::allocator<char> > *,std::basic_string<char,std::char_traits<char>,std::allocator<char> > *>
; Function compile flags: /Ogty
; File c:\program files\microsoft visual studio .net 2003\vc7\include\xutility
;	COMDAT ??$_Copy_backward_opt@PAV?$basic_string@DU?$char_traits@D@std@@V?$allocator@D@2@@std@@PAV12@@std@@YAPAV?$basic_string@DU?$char_traits@D@std@@V?$allocator@D@2@@0@PAV10@00U_Nonscalar_ptr_iterator_tag@0@@Z
_TEXT	SEGMENT
__First$ = 8						; size = 4
__Last$ = 12						; size = 4
__Dest$ = 16						; size = 4
___formal$ = 20						; size = 1
??$_Copy_backward_opt@PAV?$basic_string@DU?$char_traits@D@std@@V?$allocator@D@2@@std@@PAV12@@std@@YAPAV?$basic_string@DU?$char_traits@D@std@@V?$allocator@D@2@@0@PAV10@00U_Nonscalar_ptr_iterator_tag@0@@Z PROC NEAR ; std::_Copy_backward_opt<std::basic_string<char,std::char_traits<char>,std::allocator<char> > *,std::basic_string<char,std::char_traits<char>,std::allocator<char> > *>, COMDAT

; 1048 : 	{	// copy [_First, _Last) backwards to [..., _Dest), arbitrary iterators

  00000	53		 push	 ebx

; 1049 : 	while (_First != _Last)

  00001	8b 5c 24 08	 mov	 ebx, DWORD PTR __First$[esp]
  00005	56		 push	 esi
  00006	8b 74 24 10	 mov	 esi, DWORD PTR __Last$[esp+4]
  0000a	3b de		 cmp	 ebx, esi
  0000c	74 21		 je	 SHORT $L192092
  0000e	57		 push	 edi
  0000f	8b 7c 24 18	 mov	 edi, DWORD PTR __Dest$[esp+8]
$L188834:

; 1050 : 		*--_Dest = *--_Last;

  00013	6a ff		 push	 -1
  00015	6a 00		 push	 0
  00017	83 ee 1c	 sub	 esi, 28			; 0000001cH
  0001a	83 ef 1c	 sub	 edi, 28			; 0000001cH
  0001d	56		 push	 esi
  0001e	8b cf		 mov	 ecx, edi
  00020	e8 00 00 00 00	 call	 ?assign@?$basic_string@DU?$char_traits@D@std@@V?$allocator@D@2@@std@@QAEAAV12@ABV12@II@Z ; std::basic_string<char,std::char_traits<char>,std::allocator<char> >::assign
  00025	3b f3		 cmp	 esi, ebx
  00027	75 ea		 jne	 SHORT $L188834

; 1051 : 	return (_Dest);

  00029	8b c7		 mov	 eax, edi
  0002b	5f		 pop	 edi
  0002c	5e		 pop	 esi
  0002d	5b		 pop	 ebx

; 1052 : 	}

  0002e	c3		 ret	 0
$L192092:

; 1051 : 	return (_Dest);

  0002f	8b 44 24 14	 mov	 eax, DWORD PTR __Dest$[esp+4]
  00033	5e		 pop	 esi
  00034	5b		 pop	 ebx

; 1052 : 	}

  00035	c3		 ret	 0
??$_Copy_backward_opt@PAV?$basic_string@DU?$char_traits@D@std@@V?$allocator@D@2@@std@@PAV12@@std@@YAPAV?$basic_string@DU?$char_traits@D@std@@V?$allocator@D@2@@0@PAV10@00U_Nonscalar_ptr_iterator_tag@0@@Z ENDP ; std::_Copy_backward_opt<std::basic_string<char,std::char_traits<char>,std::allocator<char> > *,std::basic_string<char,std::char_traits<char>,std::allocator<char> > *>
_TEXT	ENDS
PUBLIC	?destroy@?$allocator@V?$basic_string@DU?$char_traits@D@std@@V?$allocator@D@2@@std@@@std@@QAEXPAV?$basic_string@DU?$char_traits@D@std@@V?$allocator@D@2@@2@@Z ; std::allocator<std::basic_string<char,std::char_traits<char>,std::allocator<char> > >::destroy
; Function compile flags: /Ogty
; File c:\program files\microsoft visual studio .net 2003\vc7\include\xmemory
;	COMDAT ?destroy@?$allocator@V?$basic_string@DU?$char_traits@D@std@@V?$allocator@D@2@@std@@@std@@QAEXPAV?$basic_string@DU?$char_traits@D@std@@V?$allocator@D@2@@2@@Z
_TEXT	SEGMENT
__Ptr$ = 8						; size = 4
?destroy@?$allocator@V?$basic_string@DU?$char_traits@D@std@@V?$allocator@D@2@@std@@@std@@QAEXPAV?$basic_string@DU?$char_traits@D@std@@V?$allocator@D@2@@2@@Z PROC NEAR ; std::allocator<std::basic_string<char,std::char_traits<char>,std::allocator<char> > >::destroy, COMDAT
; _this$ = ecx

; 151  : 		{	// destroy object at _Ptr

  00000	56		 push	 esi

; 152  : 		_Destroy(_Ptr);

  00001	8b 74 24 08	 mov	 esi, DWORD PTR __Ptr$[esp]
  00005	83 7e 18 10	 cmp	 DWORD PTR [esi+24], 16	; 00000010H
  00009	72 0c		 jb	 SHORT $L192211
  0000b	8b 46 04	 mov	 eax, DWORD PTR [esi+4]
  0000e	50		 push	 eax
  0000f	e8 00 00 00 00	 call	 ??3@YAXPAX@Z		; operator delete
  00014	83 c4 04	 add	 esp, 4
$L192211:
  00017	33 c0		 xor	 eax, eax
  00019	c7 46 18 0f 00
	00 00		 mov	 DWORD PTR [esi+24], 15	; 0000000fH
  00020	89 46 14	 mov	 DWORD PTR [esi+20], eax
  00023	88 46 04	 mov	 BYTE PTR [esi+4], al
  00026	5e		 pop	 esi

; 153  : 		}

  00027	c2 04 00	 ret	 4
?destroy@?$allocator@V?$basic_string@DU?$char_traits@D@std@@V?$allocator@D@2@@std@@@std@@QAEXPAV?$basic_string@DU?$char_traits@D@std@@V?$allocator@D@2@@2@@Z ENDP ; std::allocator<std::basic_string<char,std::char_traits<char>,std::allocator<char> > >::destroy
_TEXT	ENDS
PUBLIC	??$_Construct@V?$basic_string@DU?$char_traits@D@std@@V?$allocator@D@2@@std@@V12@@std@@YAXPAV?$basic_string@DU?$char_traits@D@std@@V?$allocator@D@2@@0@ABV10@@Z ; std::_Construct<std::basic_string<char,std::char_traits<char>,std::allocator<char> >,std::basic_string<char,std::char_traits<char>,std::allocator<char> > >
;	COMDAT xdata$x
; File c:\program files\microsoft visual studio .net 2003\vc7\include\iosfwd
xdata$x	SEGMENT
$T192329 DD	0ffffffffH
	DD	FLAT:$L192228
$T192327 DD	019930520H
	DD	01H
	DD	FLAT:$T192329
	DD	2 DUP(00H)
	DD	2 DUP(00H)
; Function compile flags: /Ogty
; File c:\program files\microsoft visual studio .net 2003\vc7\include\xmemory
xdata$x	ENDS
;	COMDAT ??$_Construct@V?$basic_string@DU?$char_traits@D@std@@V?$allocator@D@2@@std@@V12@@std@@YAXPAV?$basic_string@DU?$char_traits@D@std@@V?$allocator@D@2@@0@ABV10@@Z
_TEXT	SEGMENT
$T192225 = -16						; size = 4
__$EHRec$ = -12						; size = 12
__Ptr$ = 8						; size = 4
__Val$ = 12						; size = 4
??$_Construct@V?$basic_string@DU?$char_traits@D@std@@V?$allocator@D@2@@std@@V12@@std@@YAXPAV?$basic_string@DU?$char_traits@D@std@@V?$allocator@D@2@@0@ABV10@@Z PROC NEAR ; std::_Construct<std::basic_string<char,std::char_traits<char>,std::allocator<char> >,std::basic_string<char,std::char_traits<char>,std::allocator<char> > >, COMDAT

; 41   : 	{	// construct object at _Ptr with value _Val

  00000	6a ff		 push	 -1
  00002	68 00 00 00 00	 push	 __ehhandler$??$_Construct@V?$basic_string@DU?$char_traits@D@std@@V?$allocator@D@2@@std@@V12@@std@@YAXPAV?$basic_string@DU?$char_traits@D@std@@V?$allocator@D@2@@0@ABV10@@Z
  00007	64 a1 00 00 00
	00		 mov	 eax, DWORD PTR fs:__except_list
  0000d	50		 push	 eax
  0000e	64 89 25 00 00
	00 00		 mov	 DWORD PTR fs:__except_list, esp
  00015	51		 push	 ecx

; 42   : 	new ((void _FARQ *)_Ptr) _T1(_Val);

  00016	8b 4c 24 14	 mov	 ecx, DWORD PTR __Ptr$[esp+12]
  0001a	89 0c 24	 mov	 DWORD PTR $T192225[esp+16], ecx
  0001d	33 c0		 xor	 eax, eax
  0001f	3b c8		 cmp	 ecx, eax
  00021	89 44 24 0c	 mov	 DWORD PTR __$EHRec$[esp+24], eax
  00025	74 1a		 je	 SHORT $L192226
  00027	6a ff		 push	 -1
  00029	89 41 14	 mov	 DWORD PTR [ecx+20], eax
  0002c	c7 41 18 0f 00
	00 00		 mov	 DWORD PTR [ecx+24], 15	; 0000000fH
  00033	50		 push	 eax
  00034	88 41 04	 mov	 BYTE PTR [ecx+4], al
  00037	8b 44 24 20	 mov	 eax, DWORD PTR __Val$[esp+20]
  0003b	50		 push	 eax
  0003c	e8 00 00 00 00	 call	 ?assign@?$basic_string@DU?$char_traits@D@std@@V?$allocator@D@2@@std@@QAEAAV12@ABV12@II@Z ; std::basic_string<char,std::char_traits<char>,std::allocator<char> >::assign
$L192226:

; 43   : 	}

  00041	8b 4c 24 04	 mov	 ecx, DWORD PTR __$EHRec$[esp+16]
  00045	64 89 0d 00 00
	00 00		 mov	 DWORD PTR fs:__except_list, ecx
  0004c	83 c4 10	 add	 esp, 16			; 00000010H
  0004f	c3		 ret	 0
_TEXT	ENDS
;	COMDAT text$x
text$x	SEGMENT
$L192228:
  00000	8b 45 04	 mov	 eax, DWORD PTR __Ptr$[ebp-4]
  00003	50		 push	 eax
  00004	8b 4d f0	 mov	 ecx, DWORD PTR $T192225[ebp]
  00007	51		 push	 ecx
  00008	e8 00 00 00 00	 call	 ??3@YAXPAX0@Z		; operator delete
  0000d	83 c4 08	 add	 esp, 8
  00010	c3		 ret	 0
__ehhandler$??$_Construct@V?$basic_string@DU?$char_traits@D@std@@V?$allocator@D@2@@std@@V12@@std@@YAXPAV?$basic_string@DU?$char_traits@D@std@@V?$allocator@D@2@@0@ABV10@@Z:
  00011	b8 00 00 00 00	 mov	 eax, OFFSET FLAT:$T192327
  00016	e9 00 00 00 00	 jmp	 ___CxxFrameHandler
text$x	ENDS
??$_Construct@V?$basic_string@DU?$char_traits@D@std@@V?$allocator@D@2@@std@@V12@@std@@YAXPAV?$basic_string@DU?$char_traits@D@std@@V?$allocator@D@2@@0@ABV10@@Z ENDP ; std::_Construct<std::basic_string<char,std::char_traits<char>,std::allocator<char> >,std::basic_string<char,std::char_traits<char>,std::allocator<char> > >
PUBLIC	??0logic_error@std@@QAE@ABV?$basic_string@DU?$char_traits@D@std@@V?$allocator@D@2@@1@@Z ; std::logic_error::logic_error
EXTRN	??0exception@@QAE@XZ:NEAR			; exception::exception
;	COMDAT xdata$x
; File c:\program files\microsoft visual studio .net 2003\vc7\include\iosfwd
xdata$x	SEGMENT
$T192434 DD	0ffffffffH
	DD	FLAT:$L192334
$T192432 DD	019930520H
	DD	01H
	DD	FLAT:$T192434
	DD	2 DUP(00H)
	DD	2 DUP(00H)
; Function compile flags: /Ogty
; File c:\program files\microsoft visual studio .net 2003\vc7\include\stdexcept
xdata$x	ENDS
;	COMDAT ??0logic_error@std@@QAE@ABV?$basic_string@DU?$char_traits@D@std@@V?$allocator@D@2@@1@@Z
_TEXT	SEGMENT
_this$ = -16						; size = 4
__$EHRec$ = -12						; size = 12
__Message$ = 8						; size = 4
??0logic_error@std@@QAE@ABV?$basic_string@DU?$char_traits@D@std@@V?$allocator@D@2@@1@@Z PROC NEAR ; std::logic_error::logic_error, COMDAT
; _this$ = ecx

; 19   : 		{	// construct from message string

  00000	6a ff		 push	 -1
  00002	68 00 00 00 00	 push	 __ehhandler$??0logic_error@std@@QAE@ABV?$basic_string@DU?$char_traits@D@std@@V?$allocator@D@2@@1@@Z
  00007	64 a1 00 00 00
	00		 mov	 eax, DWORD PTR fs:__except_list
  0000d	50		 push	 eax
  0000e	64 89 25 00 00
	00 00		 mov	 DWORD PTR fs:__except_list, esp
  00015	51		 push	 ecx
  00016	56		 push	 esi
  00017	8b f1		 mov	 esi, ecx
  00019	89 74 24 04	 mov	 DWORD PTR _this$[esp+20], esi
  0001d	e8 00 00 00 00	 call	 ??0exception@@QAE@XZ	; exception::exception
  00022	33 c0		 xor	 eax, eax
  00024	8d 4e 0c	 lea	 ecx, DWORD PTR [esi+12]
  00027	c7 06 00 00 00
	00		 mov	 DWORD PTR [esi], OFFSET FLAT:??_7logic_error@std@@6B@
  0002d	6a ff		 push	 -1
  0002f	89 41 14	 mov	 DWORD PTR [ecx+20], eax
  00032	c7 41 18 0f 00
	00 00		 mov	 DWORD PTR [ecx+24], 15	; 0000000fH
  00039	50		 push	 eax
  0003a	89 44 24 18	 mov	 DWORD PTR __$EHRec$[esp+36], eax
  0003e	88 41 04	 mov	 BYTE PTR [ecx+4], al
  00041	8b 44 24 20	 mov	 eax, DWORD PTR __Message$[esp+24]
  00045	50		 push	 eax
  00046	e8 00 00 00 00	 call	 ?assign@?$basic_string@DU?$char_traits@D@std@@V?$allocator@D@2@@std@@QAEAAV12@ABV12@II@Z ; std::basic_string<char,std::char_traits<char>,std::allocator<char> >::assign

; 20   : 		}

  0004b	8b 4c 24 08	 mov	 ecx, DWORD PTR __$EHRec$[esp+20]
  0004f	8b c6		 mov	 eax, esi
  00051	5e		 pop	 esi
  00052	64 89 0d 00 00
	00 00		 mov	 DWORD PTR fs:__except_list, ecx
  00059	83 c4 10	 add	 esp, 16			; 00000010H
  0005c	c2 04 00	 ret	 4
_TEXT	ENDS
;	COMDAT text$x
text$x	SEGMENT
$L192334:
  00000	8b 4d f0	 mov	 ecx, DWORD PTR _this$[ebp]
  00003	e9 00 00 00 00	 jmp	 ??1exception@@UAE@XZ	; exception::~exception
__ehhandler$??0logic_error@std@@QAE@ABV?$basic_string@DU?$char_traits@D@std@@V?$allocator@D@2@@1@@Z:
  00008	b8 00 00 00 00	 mov	 eax, OFFSET FLAT:$T192432
  0000d	e9 00 00 00 00	 jmp	 ___CxxFrameHandler
text$x	ENDS
??0logic_error@std@@QAE@ABV?$basic_string@DU?$char_traits@D@std@@V?$allocator@D@2@@1@@Z ENDP ; std::logic_error::logic_error
PUBLIC	??0length_error@std@@QAE@ABV?$basic_string@DU?$char_traits@D@std@@V?$allocator@D@2@@1@@Z ; std::length_error::length_error
PUBLIC	??_7length_error@std@@6B@			; std::length_error::`vftable'
PUBLIC	??_Glength_error@std@@UAEPAXI@Z			; std::length_error::`scalar deleting destructor'
EXTRN	??_Elength_error@std@@UAEPAXI@Z:NEAR		; std::length_error::`vector deleting destructor'
;	COMDAT ??_7length_error@std@@6B@
CONST	SEGMENT
??_7length_error@std@@6B@ DD FLAT:??_Elength_error@std@@UAEPAXI@Z ; std::length_error::`vftable'
	DD	FLAT:?what@logic_error@std@@UBEPBDXZ
; Function compile flags: /Ogty
CONST	ENDS
;	COMDAT ??0length_error@std@@QAE@ABV?$basic_string@DU?$char_traits@D@std@@V?$allocator@D@2@@1@@Z
_TEXT	SEGMENT
__Message$ = 8						; size = 4
??0length_error@std@@QAE@ABV?$basic_string@DU?$char_traits@D@std@@V?$allocator@D@2@@1@@Z PROC NEAR ; std::length_error::length_error, COMDAT
; _this$ = ecx

; 95   : 		{	// construct from message string

  00000	8b 44 24 04	 mov	 eax, DWORD PTR __Message$[esp-4]
  00004	56		 push	 esi
  00005	50		 push	 eax
  00006	8b f1		 mov	 esi, ecx
  00008	e8 00 00 00 00	 call	 ??0logic_error@std@@QAE@ABV?$basic_string@DU?$char_traits@D@std@@V?$allocator@D@2@@1@@Z ; std::logic_error::logic_error
  0000d	c7 06 00 00 00
	00		 mov	 DWORD PTR [esi], OFFSET FLAT:??_7length_error@std@@6B@

; 96   : 		}

  00013	8b c6		 mov	 eax, esi
  00015	5e		 pop	 esi
  00016	c2 04 00	 ret	 4
??0length_error@std@@QAE@ABV?$basic_string@DU?$char_traits@D@std@@V?$allocator@D@2@@1@@Z ENDP ; std::length_error::length_error
_TEXT	ENDS
PUBLIC	??1length_error@std@@UAE@XZ			; std::length_error::~length_error
; Function compile flags: /Ogty
;	COMDAT ??_Glength_error@std@@UAEPAXI@Z
_TEXT	SEGMENT
___flags$ = 8						; size = 4
??_Glength_error@std@@UAEPAXI@Z PROC NEAR		; std::length_error::`scalar deleting destructor', COMDAT
; _this$ = ecx
  00000	56		 push	 esi
  00001	8b f1		 mov	 esi, ecx
  00003	e8 00 00 00 00	 call	 ??1length_error@std@@UAE@XZ ; std::length_error::~length_error
  00008	f6 44 24 08 01	 test	 BYTE PTR ___flags$[esp], 1
  0000d	74 09		 je	 SHORT $L192442
  0000f	56		 push	 esi
  00010	e8 00 00 00 00	 call	 ??3@YAXPAX@Z		; operator delete
  00015	83 c4 04	 add	 esp, 4
$L192442:
  00018	8b c6		 mov	 eax, esi
  0001a	5e		 pop	 esi
  0001b	c2 04 00	 ret	 4
??_Glength_error@std@@UAEPAXI@Z ENDP			; std::length_error::`scalar deleting destructor'
; Function compile flags: /Ogty
_TEXT	ENDS
;	COMDAT ??1length_error@std@@UAE@XZ
_TEXT	SEGMENT
??1length_error@std@@UAE@XZ PROC NEAR			; std::length_error::~length_error, COMDAT
; _this$ = ecx

; 99   : 		{}	// destroy the object

  00000	56		 push	 esi
  00001	8b f1		 mov	 esi, ecx
  00003	c7 06 00 00 00
	00		 mov	 DWORD PTR [esi], OFFSET FLAT:??_7logic_error@std@@6B@
  00009	83 7e 24 10	 cmp	 DWORD PTR [esi+36], 16	; 00000010H
  0000d	72 0c		 jb	 SHORT $L192546
  0000f	8b 46 10	 mov	 eax, DWORD PTR [esi+16]
  00012	50		 push	 eax
  00013	e8 00 00 00 00	 call	 ??3@YAXPAX@Z		; operator delete
  00018	83 c4 04	 add	 esp, 4
$L192546:
  0001b	33 c0		 xor	 eax, eax
  0001d	c7 46 24 0f 00
	00 00		 mov	 DWORD PTR [esi+36], 15	; 0000000fH
  00024	89 46 20	 mov	 DWORD PTR [esi+32], eax
  00027	88 46 10	 mov	 BYTE PTR [esi+16], al
  0002a	8b ce		 mov	 ecx, esi
  0002c	5e		 pop	 esi
  0002d	e9 00 00 00 00	 jmp	 ??1exception@@UAE@XZ	; exception::~exception
??1length_error@std@@UAE@XZ ENDP			; std::length_error::~length_error
_TEXT	ENDS
PUBLIC	??0out_of_range@std@@QAE@ABV?$basic_string@DU?$char_traits@D@std@@V?$allocator@D@2@@1@@Z ; std::out_of_range::out_of_range
PUBLIC	??_7out_of_range@std@@6B@			; std::out_of_range::`vftable'
PUBLIC	??_Gout_of_range@std@@UAEPAXI@Z			; std::out_of_range::`scalar deleting destructor'
EXTRN	??_Eout_of_range@std@@UAEPAXI@Z:NEAR		; std::out_of_range::`vector deleting destructor'
;	COMDAT ??_7out_of_range@std@@6B@
CONST	SEGMENT
??_7out_of_range@std@@6B@ DD FLAT:??_Eout_of_range@std@@UAEPAXI@Z ; std::out_of_range::`vftable'
	DD	FLAT:?what@logic_error@std@@UBEPBDXZ
; Function compile flags: /Ogty
CONST	ENDS
;	COMDAT ??0out_of_range@std@@QAE@ABV?$basic_string@DU?$char_traits@D@std@@V?$allocator@D@2@@1@@Z
_TEXT	SEGMENT
__Message$ = 8						; size = 4
??0out_of_range@std@@QAE@ABV?$basic_string@DU?$char_traits@D@std@@V?$allocator@D@2@@1@@Z PROC NEAR ; std::out_of_range::out_of_range, COMDAT
; _this$ = ecx

; 118  : 		{	// construct from message string

  00000	8b 44 24 04	 mov	 eax, DWORD PTR __Message$[esp-4]
  00004	56		 push	 esi
  00005	50		 push	 eax
  00006	8b f1		 mov	 esi, ecx
  00008	e8 00 00 00 00	 call	 ??0logic_error@std@@QAE@ABV?$basic_string@DU?$char_traits@D@std@@V?$allocator@D@2@@1@@Z ; std::logic_error::logic_error
  0000d	c7 06 00 00 00
	00		 mov	 DWORD PTR [esi], OFFSET FLAT:??_7out_of_range@std@@6B@

; 119  : 		}

  00013	8b c6		 mov	 eax, esi
  00015	5e		 pop	 esi
  00016	c2 04 00	 ret	 4
??0out_of_range@std@@QAE@ABV?$basic_string@DU?$char_traits@D@std@@V?$allocator@D@2@@1@@Z ENDP ; std::out_of_range::out_of_range
_TEXT	ENDS
PUBLIC	??1out_of_range@std@@UAE@XZ			; std::out_of_range::~out_of_range
; Function compile flags: /Ogty
;	COMDAT ??_Gout_of_range@std@@UAEPAXI@Z
_TEXT	SEGMENT
___flags$ = 8						; size = 4
??_Gout_of_range@std@@UAEPAXI@Z PROC NEAR		; std::out_of_range::`scalar deleting destructor', COMDAT
; _this$ = ecx
  00000	56		 push	 esi
  00001	8b f1		 mov	 esi, ecx
  00003	e8 00 00 00 00	 call	 ??1out_of_range@std@@UAE@XZ ; std::out_of_range::~out_of_range
  00008	f6 44 24 08 01	 test	 BYTE PTR ___flags$[esp], 1
  0000d	74 09		 je	 SHORT $L192553
  0000f	56		 push	 esi
  00010	e8 00 00 00 00	 call	 ??3@YAXPAX@Z		; operator delete
  00015	83 c4 04	 add	 esp, 4
$L192553:
  00018	8b c6		 mov	 eax, esi
  0001a	5e		 pop	 esi
  0001b	c2 04 00	 ret	 4
??_Gout_of_range@std@@UAEPAXI@Z ENDP			; std::out_of_range::`scalar deleting destructor'
; Function compile flags: /Ogty
_TEXT	ENDS
;	COMDAT ??1out_of_range@std@@UAE@XZ
_TEXT	SEGMENT
??1out_of_range@std@@UAE@XZ PROC NEAR			; std::out_of_range::~out_of_range, COMDAT
; _this$ = ecx

; 122  : 		{}	// destroy the object

  00000	56		 push	 esi
  00001	8b f1		 mov	 esi, ecx
  00003	c7 06 00 00 00
	00		 mov	 DWORD PTR [esi], OFFSET FLAT:??_7logic_error@std@@6B@
  00009	83 7e 24 10	 cmp	 DWORD PTR [esi+36], 16	; 00000010H
  0000d	72 0c		 jb	 SHORT $L192640
  0000f	8b 46 10	 mov	 eax, DWORD PTR [esi+16]
  00012	50		 push	 eax
  00013	e8 00 00 00 00	 call	 ??3@YAXPAX@Z		; operator delete
  00018	83 c4 04	 add	 esp, 4
$L192640:
  0001b	33 c0		 xor	 eax, eax
  0001d	c7 46 24 0f 00
	00 00		 mov	 DWORD PTR [esi+36], 15	; 0000000fH
  00024	89 46 20	 mov	 DWORD PTR [esi+32], eax
  00027	88 46 10	 mov	 BYTE PTR [esi+16], al
  0002a	8b ce		 mov	 ecx, esi
  0002c	5e		 pop	 esi
  0002d	e9 00 00 00 00	 jmp	 ??1exception@@UAE@XZ	; exception::~exception
??1out_of_range@std@@UAE@XZ ENDP			; std::out_of_range::~out_of_range
_TEXT	ENDS
PUBLIC	??0?$basic_string@DU?$char_traits@D@std@@V?$allocator@D@2@@std@@QAE@PBD@Z ; std::basic_string<char,std::char_traits<char>,std::allocator<char> >::basic_string<char,std::char_traits<char>,std::allocator<char> >
; Function compile flags: /Ogty
; File c:\program files\microsoft visual studio .net 2003\vc7\include\xstring
;	COMDAT ??0?$basic_string@DU?$char_traits@D@std@@V?$allocator@D@2@@std@@QAE@PBD@Z
_TEXT	SEGMENT
__Ptr$ = 8						; size = 4
??0?$basic_string@DU?$char_traits@D@std@@V?$allocator@D@2@@std@@QAE@PBD@Z PROC NEAR ; std::basic_string<char,std::char_traits<char>,std::allocator<char> >::basic_string<char,std::char_traits<char>,std::allocator<char> >, COMDAT
; _this$ = ecx

; 361  : 		_Tidy();
; 362  : 		assign(_Ptr);

  00000	8b 54 24 04	 mov	 edx, DWORD PTR __Ptr$[esp-4]
  00004	56		 push	 esi
  00005	8b f1		 mov	 esi, ecx
  00007	8b c2		 mov	 eax, edx
  00009	57		 push	 edi
  0000a	c7 46 18 0f 00
	00 00		 mov	 DWORD PTR [esi+24], 15	; 0000000fH
  00011	c7 46 14 00 00
	00 00		 mov	 DWORD PTR [esi+20], 0
  00018	c6 46 04 00	 mov	 BYTE PTR [esi+4], 0
  0001c	8d 78 01	 lea	 edi, DWORD PTR [eax+1]
  0001f	90		 npad	 1
$L192733:
  00020	8a 08		 mov	 cl, BYTE PTR [eax]
  00022	40		 inc	 eax
  00023	84 c9		 test	 cl, cl
  00025	75 f9		 jne	 SHORT $L192733
  00027	2b c7		 sub	 eax, edi
  00029	50		 push	 eax
  0002a	52		 push	 edx
  0002b	8b ce		 mov	 ecx, esi
  0002d	e8 00 00 00 00	 call	 ?assign@?$basic_string@DU?$char_traits@D@std@@V?$allocator@D@2@@std@@QAEAAV12@PBDI@Z ; std::basic_string<char,std::char_traits<char>,std::allocator<char> >::assign
  00032	5f		 pop	 edi

; 363  : 		}

  00033	8b c6		 mov	 eax, esi
  00035	5e		 pop	 esi
  00036	c2 04 00	 ret	 4
??0?$basic_string@DU?$char_traits@D@std@@V?$allocator@D@2@@std@@QAE@PBD@Z ENDP ; std::basic_string<char,std::char_traits<char>,std::allocator<char> >::basic_string<char,std::char_traits<char>,std::allocator<char> >
_TEXT	ENDS
PUBLIC	??4?$basic_string@DU?$char_traits@D@std@@V?$allocator@D@2@@std@@QAEAAV01@PBD@Z ; std::basic_string<char,std::char_traits<char>,std::allocator<char> >::operator=
; Function compile flags: /Ogty
;	COMDAT ??4?$basic_string@DU?$char_traits@D@std@@V?$allocator@D@2@@std@@QAEAAV01@PBD@Z
_TEXT	SEGMENT
__Ptr$ = 8						; size = 4
??4?$basic_string@DU?$char_traits@D@std@@V?$allocator@D@2@@std@@QAEAAV01@PBD@Z PROC NEAR ; std::basic_string<char,std::char_traits<char>,std::allocator<char> >::operator=, COMDAT
; _this$ = ecx

; 471  : 		{	// assign [_Ptr, <null>)

  00000	56		 push	 esi

; 472  : 		return (assign(_Ptr));

  00001	8b 74 24 08	 mov	 esi, DWORD PTR __Ptr$[esp]
  00005	8b c6		 mov	 eax, esi
  00007	57		 push	 edi
  00008	8d 78 01	 lea	 edi, DWORD PTR [eax+1]
  0000b	eb 03 8d 49 00	 npad	 5
$L192744:
  00010	8a 10		 mov	 dl, BYTE PTR [eax]
  00012	40		 inc	 eax
  00013	84 d2		 test	 dl, dl
  00015	75 f9		 jne	 SHORT $L192744
  00017	2b c7		 sub	 eax, edi
  00019	50		 push	 eax
  0001a	56		 push	 esi
  0001b	e8 00 00 00 00	 call	 ?assign@?$basic_string@DU?$char_traits@D@std@@V?$allocator@D@2@@std@@QAEAAV12@PBDI@Z ; std::basic_string<char,std::char_traits<char>,std::allocator<char> >::assign
  00020	5f		 pop	 edi
  00021	5e		 pop	 esi

; 473  : 		}

  00022	c2 04 00	 ret	 4
??4?$basic_string@DU?$char_traits@D@std@@V?$allocator@D@2@@std@@QAEAAV01@PBD@Z ENDP ; std::basic_string<char,std::char_traits<char>,std::allocator<char> >::operator=
_TEXT	ENDS
PUBLIC	??_R0?AVlogic_error@std@@@8			; std::logic_error `RTTI Type Descriptor'
PUBLIC	__CT??_R0?AVlogic_error@std@@@8??0logic_error@std@@QAE@ABV01@@Z40
PUBLIC	??_R0?AVexception@@@8				; exception `RTTI Type Descriptor'
PUBLIC	__CT??_R0?AVexception@@@8??0exception@@QAE@ABV0@@Z12
PUBLIC	??0logic_error@std@@QAE@ABV01@@Z		; std::logic_error::logic_error
PUBLIC	?_Insert@?$_Tree@V?$_Tmap_traits@EHU?$less@E@std@@V?$allocator@U?$pair@$$CBEH@std@@@2@$0A@@std@@@std@@IAE?AViterator@12@_NPAU_Node@?$_Tree_nod@V?$_Tmap_traits@EHU?$less@E@std@@V?$allocator@U?$pair@$$CBEH@std@@@2@$0A@@std@@@2@ABU?$pair@$$CBEH@2@@Z ; std::_Tree<std::_Tmap_traits<unsigned char,int,std::less<unsigned char>,std::allocator<std::pair<unsigned char const ,int> >,0> >::_Insert
PUBLIC	??0length_error@std@@QAE@ABV01@@Z		; std::length_error::length_error
PUBLIC	__TI3?AVlength_error@std@@
PUBLIC	__CTA3?AVlength_error@std@@
PUBLIC	??_R0?AVlength_error@std@@@8			; std::length_error `RTTI Type Descriptor'
PUBLIC	__CT??_R0?AVlength_error@std@@@8??0length_error@std@@QAE@ABV01@@Z40
PUBLIC	??_C@_0BE@JONHPENG@map?1set?$DMT?$DO?5too?5long?$AA@ ; `string'
EXTRN	??0exception@@QAE@ABV0@@Z:NEAR			; exception::exception
EXTRN	??_7type_info@@6B@:DWORD			; type_info::`vftable'
;	COMDAT xdata$x
; File c:\program files\microsoft visual studio .net 2003\vc7\include\xtree
xdata$x	SEGMENT
$T193119 DD	0ffffffffH
	DD	FLAT:$L192749
$T193114 DD	019930520H
	DD	01H
	DD	FLAT:$T193119
	DD	2 DUP(00H)
	DD	2 DUP(00H)
xdata$x	ENDS
;	COMDAT ??_C@_0BE@JONHPENG@map?1set?$DMT?$DO?5too?5long?$AA@
CONST	SEGMENT
??_C@_0BE@JONHPENG@map?1set?$DMT?$DO?5too?5long?$AA@ DB 'map/set<T> too l'
	DB	'ong', 00H					; `string'
CONST	ENDS
;	COMDAT __TI3?AVlength_error@std@@
xdata$x	SEGMENT
__TI3?AVlength_error@std@@ DD 00H
	DD	FLAT:??1length_error@std@@UAE@XZ
	DD	00H
	DD	FLAT:__CTA3?AVlength_error@std@@
xdata$x	ENDS
;	COMDAT __CTA3?AVlength_error@std@@
xdata$x	SEGMENT
__CTA3?AVlength_error@std@@ DD 03H
	DD	FLAT:__CT??_R0?AVlength_error@std@@@8??0length_error@std@@QAE@ABV01@@Z40
	DD	FLAT:__CT??_R0?AVlogic_error@std@@@8??0logic_error@std@@QAE@ABV01@@Z40
	DD	FLAT:__CT??_R0?AVexception@@@8??0exception@@QAE@ABV0@@Z12
xdata$x	ENDS
;	COMDAT __CT??_R0?AVlength_error@std@@@8??0length_error@std@@QAE@ABV01@@Z40
xdata$x	SEGMENT
__CT??_R0?AVlength_error@std@@@8??0length_error@std@@QAE@ABV01@@Z40 DD 00H
	DD	FLAT:??_R0?AVlength_error@std@@@8
	DD	00H
	DD	0ffffffffH
	ORG $+4
	DD	028H
	DD	FLAT:??0length_error@std@@QAE@ABV01@@Z
xdata$x	ENDS
;	COMDAT ??_R0?AVlength_error@std@@@8
_DATA	SEGMENT
??_R0?AVlength_error@std@@@8 DD FLAT:??_7type_info@@6B@	; std::length_error `RTTI Type Descriptor'
	DD	00H
	DB	'.?AVlength_error@std@@', 00H
_DATA	ENDS
;	COMDAT __CT??_R0?AVlogic_error@std@@@8??0logic_error@std@@QAE@ABV01@@Z40
xdata$x	SEGMENT
__CT??_R0?AVlogic_error@std@@@8??0logic_error@std@@QAE@ABV01@@Z40 DD 00H
	DD	FLAT:??_R0?AVlogic_error@std@@@8
	DD	00H
	DD	0ffffffffH
	ORG $+4
	DD	028H
	DD	FLAT:??0logic_error@std@@QAE@ABV01@@Z
xdata$x	ENDS
;	COMDAT ??_R0?AVlogic_error@std@@@8
_DATA	SEGMENT
??_R0?AVlogic_error@std@@@8 DD FLAT:??_7type_info@@6B@	; std::logic_error `RTTI Type Descriptor'
	DD	00H
	DB	'.?AVlogic_error@std@@', 00H
_DATA	ENDS
;	COMDAT __CT??_R0?AVexception@@@8??0exception@@QAE@ABV0@@Z12
xdata$x	SEGMENT
__CT??_R0?AVexception@@@8??0exception@@QAE@ABV0@@Z12 DD 00H
	DD	FLAT:??_R0?AVexception@@@8
	DD	00H
	DD	0ffffffffH
	ORG $+4
	DD	0cH
	DD	FLAT:??0exception@@QAE@ABV0@@Z
xdata$x	ENDS
;	COMDAT ??_R0?AVexception@@@8
_DATA	SEGMENT
??_R0?AVexception@@@8 DD FLAT:??_7type_info@@6B@	; exception `RTTI Type Descriptor'
	DD	00H
	DB	'.?AVexception@@', 00H
; Function compile flags: /Ogty
_DATA	ENDS
;	COMDAT ?_Insert@?$_Tree@V?$_Tmap_traits@EHU?$less@E@std@@V?$allocator@U?$pair@$$CBEH@std@@@2@$0A@@std@@@std@@IAE?AViterator@12@_NPAU_Node@?$_Tree_nod@V?$_Tmap_traits@EHU?$less@E@std@@V?$allocator@U?$pair@$$CBEH@std@@@2@$0A@@std@@@2@ABU?$pair@$$CBEH@2@@Z
_TEXT	SEGMENT
$T192748 = -80						; size = 28
$T192747 = -52						; size = 40
__$EHRec$ = -12						; size = 12
___$ReturnUdt$ = 8					; size = 4
__Addleft$ = 12						; size = 1
__Wherenode$ = 16					; size = 4
__Newnode$ = 20						; size = 4
__Val$ = 20						; size = 4
?_Insert@?$_Tree@V?$_Tmap_traits@EHU?$less@E@std@@V?$allocator@U?$pair@$$CBEH@std@@@2@$0A@@std@@@std@@IAE?AViterator@12@_NPAU_Node@?$_Tree_nod@V?$_Tmap_traits@EHU?$less@E@std@@V?$allocator@U?$pair@$$CBEH@std@@@2@$0A@@std@@@2@ABU?$pair@$$CBEH@2@@Z PROC NEAR ; std::_Tree<std::_Tmap_traits<unsigned char,int,std::less<unsigned char>,std::allocator<std::pair<unsigned char const ,int> >,0> >::_Insert, COMDAT
; _this$ = ecx

; 911  : 		{	// add node with value next to _Wherenode, to left if _Addnode

  00000	64 a1 00 00 00
	00		 mov	 eax, DWORD PTR fs:__except_list
  00006	6a ff		 push	 -1
  00008	68 00 00 00 00	 push	 __ehhandler$?_Insert@?$_Tree@V?$_Tmap_traits@EHU?$less@E@std@@V?$allocator@U?$pair@$$CBEH@std@@@2@$0A@@std@@@std@@IAE?AViterator@12@_NPAU_Node@?$_Tree_nod@V?$_Tmap_traits@EHU?$less@E@std@@V?$allocator@U?$pair@$$CBEH@std@@@2@$0A@@std@@@2@ABU?$pair@$$CBEH@2@@Z
  0000d	50		 push	 eax
  0000e	64 89 25 00 00
	00 00		 mov	 DWORD PTR fs:__except_list, esp
  00015	83 ec 44	 sub	 esp, 68			; 00000044H
  00018	56		 push	 esi
  00019	57		 push	 edi
  0001a	8b f9		 mov	 edi, ecx

; 912  : 		if (max_size() - 1 <= _Mysize)

  0001c	81 7f 08 fe ff
	ff 1f		 cmp	 DWORD PTR [edi+8], 536870910 ; 1ffffffeH
  00023	72 4c		 jb	 SHORT $L187721

; 913  : 			_THROW(length_error, "map/set<T> too long");

  00025	6a 13		 push	 19			; 00000013H
  00027	33 f6		 xor	 esi, esi
  00029	68 00 00 00 00	 push	 OFFSET FLAT:??_C@_0BE@JONHPENG@map?1set?$DMT?$DO?5too?5long?$AA@
  0002e	8d 4c 24 10	 lea	 ecx, DWORD PTR $T192748[esp+96]
  00032	c7 44 24 28 0f
	00 00 00	 mov	 DWORD PTR $T192748[esp+120], 15 ; 0000000fH
  0003a	89 74 24 24	 mov	 DWORD PTR $T192748[esp+116], esi
  0003e	c6 44 24 14 00	 mov	 BYTE PTR $T192748[esp+100], 0
  00043	e8 00 00 00 00	 call	 ?assign@?$basic_string@DU?$char_traits@D@std@@V?$allocator@D@2@@std@@QAEAAV12@PBDI@Z ; std::basic_string<char,std::char_traits<char>,std::allocator<char> >::assign
  00048	8d 44 24 08	 lea	 eax, DWORD PTR $T192748[esp+88]
  0004c	50		 push	 eax
  0004d	8d 4c 24 28	 lea	 ecx, DWORD PTR $T192747[esp+92]
  00051	89 74 24 58	 mov	 DWORD PTR __$EHRec$[esp+100], esi
  00055	e8 00 00 00 00	 call	 ??0logic_error@std@@QAE@ABV?$basic_string@DU?$char_traits@D@std@@V?$allocator@D@2@@1@@Z ; std::logic_error::logic_error
  0005a	68 00 00 00 00	 push	 OFFSET FLAT:__TI3?AVlength_error@std@@
  0005f	8d 4c 24 28	 lea	 ecx, DWORD PTR $T192747[esp+92]
  00063	51		 push	 ecx
  00064	c7 44 24 2c 00
	00 00 00	 mov	 DWORD PTR $T192747[esp+96], OFFSET FLAT:??_7length_error@std@@6B@
  0006c	e8 00 00 00 00	 call	 __CxxThrowException@8
$L187721:

; 914  : 		_Nodeptr _Newnode = _Buynode(_Myhead, _Wherenode, _Myhead,
; 915  : 			_Val, _Red);

  00071	8b 54 24 68	 mov	 edx, DWORD PTR __Val$[esp+84]
  00075	8b 47 04	 mov	 eax, DWORD PTR [edi+4]
  00078	8b 74 24 64	 mov	 esi, DWORD PTR __Wherenode$[esp+84]
  0007c	53		 push	 ebx
  0007d	6a 00		 push	 0
  0007f	52		 push	 edx
  00080	50		 push	 eax
  00081	56		 push	 esi
  00082	50		 push	 eax
  00083	8b cf		 mov	 ecx, edi
  00085	e8 00 00 00 00	 call	 ?_Buynode@?$_Tree@V?$_Tmap_traits@EHU?$less@E@std@@V?$allocator@U?$pair@$$CBEH@std@@@2@$0A@@std@@@std@@IAEPAU_Node@?$_Tree_nod@V?$_Tmap_traits@EHU?$less@E@std@@V?$allocator@U?$pair@$$CBEH@std@@@2@$0A@@std@@@2@PAU342@00ABU?$pair@$$CBEH@2@D@Z ; std::_Tree<std::_Tmap_traits<unsigned char,int,std::less<unsigned char>,std::allocator<std::pair<unsigned char const ,int> >,0> >::_Buynode

; 916  : 
; 917  : 		++_Mysize;

  0008a	8b 5f 08	 mov	 ebx, DWORD PTR [edi+8]
  0008d	8b c8		 mov	 ecx, eax

; 918  : 		if (_Wherenode == _Myhead)

  0008f	8b 47 04	 mov	 eax, DWORD PTR [edi+4]
  00092	43		 inc	 ebx
  00093	3b f0		 cmp	 esi, eax
  00095	89 4c 24 6c	 mov	 DWORD PTR __Newnode$[esp+88], ecx
  00099	89 5f 08	 mov	 DWORD PTR [edi+8], ebx
  0009c	75 10		 jne	 SHORT $L187726

; 919  : 			{	// first node in tree, just set head values
; 920  : 			_Root() = _Newnode;

  0009e	89 48 04	 mov	 DWORD PTR [eax+4], ecx

; 921  : 			_Lmost() = _Newnode, _Rmost() = _Newnode;

  000a1	8b 47 04	 mov	 eax, DWORD PTR [edi+4]
  000a4	89 08		 mov	 DWORD PTR [eax], ecx
  000a6	8b 57 04	 mov	 edx, DWORD PTR [edi+4]
  000a9	89 4a 08	 mov	 DWORD PTR [edx+8], ecx

; 922  : 			}
; 923  : 		else if (_Addleft)

  000ac	eb 23		 jmp	 SHORT $L187731
$L187726:
  000ae	8a 44 24 64	 mov	 al, BYTE PTR __Addleft$[esp+88]
  000b2	84 c0		 test	 al, al
  000b4	74 0d		 je	 SHORT $L187728

; 924  : 			{	// add to left of _Wherenode
; 925  : 			_Left(_Wherenode) = _Newnode;

  000b6	89 0e		 mov	 DWORD PTR [esi], ecx

; 926  : 			if (_Wherenode == _Lmost())

  000b8	8b 47 04	 mov	 eax, DWORD PTR [edi+4]
  000bb	3b 30		 cmp	 esi, DWORD PTR [eax]
  000bd	75 12		 jne	 SHORT $L187731

; 927  : 				_Lmost() = _Newnode;

  000bf	89 08		 mov	 DWORD PTR [eax], ecx

; 928  : 			}
; 929  : 		else

  000c1	eb 0e		 jmp	 SHORT $L187731
$L187728:

; 930  : 			{	// add to right of _Wherenode
; 931  : 			_Right(_Wherenode) = _Newnode;

  000c3	89 4e 08	 mov	 DWORD PTR [esi+8], ecx

; 932  : 			if (_Wherenode == _Rmost())

  000c6	8b 47 04	 mov	 eax, DWORD PTR [edi+4]
  000c9	3b 70 08	 cmp	 esi, DWORD PTR [eax+8]
  000cc	75 03		 jne	 SHORT $L187731

; 933  : 				_Rmost() = _Newnode;

  000ce	89 48 08	 mov	 DWORD PTR [eax+8], ecx
$L187731:

; 934  : 			}
; 935  : 
; 936  : 		for (_Nodeptr _Pnode = _Newnode; _Color(_Parent(_Pnode)) == _Red; )

  000d1	8b 51 04	 mov	 edx, DWORD PTR [ecx+4]
  000d4	80 7a 14 00	 cmp	 BYTE PTR [edx+20], 0
  000d8	8d 41 04	 lea	 eax, DWORD PTR [ecx+4]
  000db	8b f1		 mov	 esi, ecx
  000dd	b3 01		 mov	 bl, 1
  000df	0f 85 a5 00 00
	00		 jne	 $L187735
  000e5	55		 push	 ebp
$L187734:

; 937  : 			if (_Parent(_Pnode) == _Left(_Parent(_Parent(_Pnode))))

  000e6	8b 08		 mov	 ecx, DWORD PTR [eax]
  000e8	8b 69 04	 mov	 ebp, DWORD PTR [ecx+4]
  000eb	8b 55 00	 mov	 edx, DWORD PTR [ebp]
  000ee	3b ca		 cmp	 ecx, edx
  000f0	75 50		 jne	 SHORT $L187736

; 938  : 				{	// fixup red-red in left subtree
; 939  : 				_Wherenode = _Right(_Parent(_Parent(_Pnode)));

  000f2	8b 55 08	 mov	 edx, DWORD PTR [ebp+8]

; 940  : 				if (_Color(_Wherenode) == _Red)

  000f5	80 7a 14 00	 cmp	 BYTE PTR [edx+20], 0
  000f9	75 18		 jne	 SHORT $L187737
$L193118:

; 941  : 					{	// parent has two red children, blacken both
; 942  : 					_Color(_Parent(_Pnode)) = _Black;

  000fb	8b 08		 mov	 ecx, DWORD PTR [eax]
  000fd	88 59 14	 mov	 BYTE PTR [ecx+20], bl

; 943  : 					_Color(_Wherenode) = _Black;

  00100	88 5a 14	 mov	 BYTE PTR [edx+20], bl

; 944  : 					_Color(_Parent(_Parent(_Pnode))) = _Red;

  00103	8b 10		 mov	 edx, DWORD PTR [eax]
  00105	8b 4a 04	 mov	 ecx, DWORD PTR [edx+4]
  00108	c6 41 14 00	 mov	 BYTE PTR [ecx+20], 0

; 945  : 					_Pnode = _Parent(_Parent(_Pnode));

  0010c	8b 10		 mov	 edx, DWORD PTR [eax]
  0010e	8b 72 04	 mov	 esi, DWORD PTR [edx+4]

; 946  : 					}
; 947  : 				else

  00111	eb 61		 jmp	 SHORT $L187742
$L187737:

; 948  : 					{	// parent has red and black children
; 949  : 					if (_Pnode == _Right(_Parent(_Pnode)))

  00113	3b 71 08	 cmp	 esi, DWORD PTR [ecx+8]
  00116	75 0a		 jne	 SHORT $L187739

; 950  : 						{	// rotate right child to left
; 951  : 						_Pnode = _Parent(_Pnode);

  00118	8b f1		 mov	 esi, ecx

; 952  : 						_Lrotate(_Pnode);

  0011a	56		 push	 esi
  0011b	8b cf		 mov	 ecx, edi
  0011d	e8 00 00 00 00	 call	 ?_Lrotate@?$_Tree@V?$_Tmap_traits@EHU?$less@E@std@@V?$allocator@U?$pair@$$CBEH@std@@@2@$0A@@std@@@std@@IAEXPAU_Node@?$_Tree_nod@V?$_Tmap_traits@EHU?$less@E@std@@V?$allocator@U?$pair@$$CBEH@std@@@2@$0A@@std@@@2@@Z ; std::_Tree<std::_Tmap_traits<unsigned char,int,std::less<unsigned char>,std::allocator<std::pair<unsigned char const ,int> >,0> >::_Lrotate
$L187739:

; 953  : 						}
; 954  : 					_Color(_Parent(_Pnode)) = _Black;	// propagate red up

  00122	8b 46 04	 mov	 eax, DWORD PTR [esi+4]
  00125	88 58 14	 mov	 BYTE PTR [eax+20], bl

; 955  : 					_Color(_Parent(_Parent(_Pnode))) = _Red;

  00128	8b 4e 04	 mov	 ecx, DWORD PTR [esi+4]
  0012b	8b 51 04	 mov	 edx, DWORD PTR [ecx+4]
  0012e	c6 42 14 00	 mov	 BYTE PTR [edx+20], 0

; 956  : 					_Rrotate(_Parent(_Parent(_Pnode)));

  00132	8b 46 04	 mov	 eax, DWORD PTR [esi+4]
  00135	8b 48 04	 mov	 ecx, DWORD PTR [eax+4]
  00138	51		 push	 ecx
  00139	8b cf		 mov	 ecx, edi
  0013b	e8 00 00 00 00	 call	 ?_Rrotate@?$_Tree@V?$_Tmap_traits@EHU?$less@E@std@@V?$allocator@U?$pair@$$CBEH@std@@@2@$0A@@std@@@std@@IAEXPAU_Node@?$_Tree_nod@V?$_Tmap_traits@EHU?$less@E@std@@V?$allocator@U?$pair@$$CBEH@std@@@2@$0A@@std@@@2@@Z ; std::_Tree<std::_Tmap_traits<unsigned char,int,std::less<unsigned char>,std::allocator<std::pair<unsigned char const ,int> >,0> >::_Rrotate

; 957  : 					}
; 958  : 				}
; 959  : 			else

  00140	eb 32		 jmp	 SHORT $L187742
$L187736:

; 960  : 				{	// fixup red-red in right subtree
; 961  : 				_Wherenode = _Left(_Parent(_Parent(_Pnode)));
; 962  : 				if (_Color(_Wherenode) == _Red)

  00142	80 7a 14 00	 cmp	 BYTE PTR [edx+20], 0

; 963  : 					{	// parent has two red children, blacken both
; 964  : 					_Color(_Parent(_Pnode)) = _Black;
; 965  : 					_Color(_Wherenode) = _Black;
; 966  : 					_Color(_Parent(_Parent(_Pnode))) = _Red;
; 967  : 					_Pnode = _Parent(_Parent(_Pnode));
; 968  : 					}
; 969  : 				else

  00146	74 b3		 je	 SHORT $L193118

; 970  : 					{	// parent has red and black children
; 971  : 					if (_Pnode == _Left(_Parent(_Pnode)))

  00148	3b 31		 cmp	 esi, DWORD PTR [ecx]
  0014a	75 0a		 jne	 SHORT $L187743

; 972  : 						{	// rotate left child to right
; 973  : 						_Pnode = _Parent(_Pnode);

  0014c	8b f1		 mov	 esi, ecx

; 974  : 						_Rrotate(_Pnode);

  0014e	56		 push	 esi
  0014f	8b cf		 mov	 ecx, edi
  00151	e8 00 00 00 00	 call	 ?_Rrotate@?$_Tree@V?$_Tmap_traits@EHU?$less@E@std@@V?$allocator@U?$pair@$$CBEH@std@@@2@$0A@@std@@@std@@IAEXPAU_Node@?$_Tree_nod@V?$_Tmap_traits@EHU?$less@E@std@@V?$allocator@U?$pair@$$CBEH@std@@@2@$0A@@std@@@2@@Z ; std::_Tree<std::_Tmap_traits<unsigned char,int,std::less<unsigned char>,std::allocator<std::pair<unsigned char const ,int> >,0> >::_Rrotate
$L187743:

; 975  : 						}
; 976  : 					_Color(_Parent(_Pnode)) = _Black;	// propagate red up

  00156	8b 46 04	 mov	 eax, DWORD PTR [esi+4]
  00159	88 58 14	 mov	 BYTE PTR [eax+20], bl

; 977  : 					_Color(_Parent(_Parent(_Pnode))) = _Red;

  0015c	8b 4e 04	 mov	 ecx, DWORD PTR [esi+4]
  0015f	8b 51 04	 mov	 edx, DWORD PTR [ecx+4]
  00162	c6 42 14 00	 mov	 BYTE PTR [edx+20], 0

; 978  : 					_Lrotate(_Parent(_Parent(_Pnode)));

  00166	8b 46 04	 mov	 eax, DWORD PTR [esi+4]
  00169	8b 48 04	 mov	 ecx, DWORD PTR [eax+4]
  0016c	51		 push	 ecx
  0016d	8b cf		 mov	 ecx, edi
  0016f	e8 00 00 00 00	 call	 ?_Lrotate@?$_Tree@V?$_Tmap_traits@EHU?$less@E@std@@V?$allocator@U?$pair@$$CBEH@std@@@2@$0A@@std@@@std@@IAEXPAU_Node@?$_Tree_nod@V?$_Tmap_traits@EHU?$less@E@std@@V?$allocator@U?$pair@$$CBEH@std@@@2@$0A@@std@@@2@@Z ; std::_Tree<std::_Tmap_traits<unsigned char,int,std::less<unsigned char>,std::allocator<std::pair<unsigned char const ,int> >,0> >::_Lrotate
$L187742:
  00174	8b 56 04	 mov	 edx, DWORD PTR [esi+4]
  00177	8a 4a 14	 mov	 cl, BYTE PTR [edx+20]
  0017a	84 c9		 test	 cl, cl
  0017c	8d 46 04	 lea	 eax, DWORD PTR [esi+4]
  0017f	0f 84 61 ff ff
	ff		 je	 $L187734
  00185	8b 4c 24 70	 mov	 ecx, DWORD PTR __Newnode$[esp+92]
  00189	5d		 pop	 ebp
$L187735:

; 979  : 					}
; 980  : 				}
; 981  : 
; 982  : 		_Color(_Root()) = _Black;	// root is always black

  0018a	8b 47 04	 mov	 eax, DWORD PTR [edi+4]
  0018d	8b 50 04	 mov	 edx, DWORD PTR [eax+4]

; 983  : 		return (_TREE_ITERATOR(_Newnode));

  00190	8b 44 24 60	 mov	 eax, DWORD PTR ___$ReturnUdt$[esp+88]
  00194	88 5a 14	 mov	 BYTE PTR [edx+20], bl
  00197	5b		 pop	 ebx
  00198	89 08		 mov	 DWORD PTR [eax], ecx

; 984  : 		}

  0019a	8b 4c 24 4c	 mov	 ecx, DWORD PTR __$EHRec$[esp+88]
  0019e	5f		 pop	 edi
  0019f	5e		 pop	 esi
  001a0	64 89 0d 00 00
	00 00		 mov	 DWORD PTR fs:__except_list, ecx
  001a7	83 c4 50	 add	 esp, 80			; 00000050H
  001aa	c2 10 00	 ret	 16			; 00000010H
$L193117:
_TEXT	ENDS
;	COMDAT text$x
text$x	SEGMENT
$L192749:
  00000	8d 4d b0	 lea	 ecx, DWORD PTR $T192748[ebp]
  00003	e9 00 00 00 00	 jmp	 ??1?$basic_string@DU?$char_traits@D@std@@V?$allocator@D@2@@std@@QAE@XZ ; std::basic_string<char,std::char_traits<char>,std::allocator<char> >::~basic_string<char,std::char_traits<char>,std::allocator<char> >
__ehhandler$?_Insert@?$_Tree@V?$_Tmap_traits@EHU?$less@E@std@@V?$allocator@U?$pair@$$CBEH@std@@@2@$0A@@std@@@std@@IAE?AViterator@12@_NPAU_Node@?$_Tree_nod@V?$_Tmap_traits@EHU?$less@E@std@@V?$allocator@U?$pair@$$CBEH@std@@@2@$0A@@std@@@2@ABU?$pair@$$CBEH@2@@Z:
  00008	b8 00 00 00 00	 mov	 eax, OFFSET FLAT:$T193114
  0000d	e9 00 00 00 00	 jmp	 ___CxxFrameHandler
text$x	ENDS
?_Insert@?$_Tree@V?$_Tmap_traits@EHU?$less@E@std@@V?$allocator@U?$pair@$$CBEH@std@@@2@$0A@@std@@@std@@IAE?AViterator@12@_NPAU_Node@?$_Tree_nod@V?$_Tmap_traits@EHU?$less@E@std@@V?$allocator@U?$pair@$$CBEH@std@@@2@$0A@@std@@@2@ABU?$pair@$$CBEH@2@@Z ENDP ; std::_Tree<std::_Tmap_traits<unsigned char,int,std::less<unsigned char>,std::allocator<std::pair<unsigned char const ,int> >,0> >::_Insert
;	COMDAT xdata$x
xdata$x	SEGMENT
$T193224 DD	0ffffffffH
	DD	FLAT:$L193124
$T193222 DD	019930520H
	DD	01H
	DD	FLAT:$T193224
	DD	2 DUP(00H)
	DD	2 DUP(00H)
; Function compile flags: /Ogty
xdata$x	ENDS
;	COMDAT ??0logic_error@std@@QAE@ABV01@@Z
_TEXT	SEGMENT
_this$ = -16						; size = 4
__$EHRec$ = -12						; size = 12
___that$ = 8						; size = 4
??0logic_error@std@@QAE@ABV01@@Z PROC NEAR		; std::logic_error::logic_error, COMDAT
; _this$ = ecx
  00000	6a ff		 push	 -1
  00002	68 00 00 00 00	 push	 __ehhandler$??0logic_error@std@@QAE@ABV01@@Z
  00007	64 a1 00 00 00
	00		 mov	 eax, DWORD PTR fs:__except_list
  0000d	50		 push	 eax
  0000e	64 89 25 00 00
	00 00		 mov	 DWORD PTR fs:__except_list, esp
  00015	51		 push	 ecx
  00016	56		 push	 esi
  00017	57		 push	 edi
  00018	8b 7c 24 1c	 mov	 edi, DWORD PTR ___that$[esp+20]
  0001c	8b f1		 mov	 esi, ecx
  0001e	57		 push	 edi
  0001f	89 74 24 0c	 mov	 DWORD PTR _this$[esp+28], esi
  00023	e8 00 00 00 00	 call	 ??0exception@@QAE@ABV0@@Z ; exception::exception
  00028	33 c0		 xor	 eax, eax
  0002a	6a ff		 push	 -1
  0002c	8d 4e 0c	 lea	 ecx, DWORD PTR [esi+12]
  0002f	c7 06 00 00 00
	00		 mov	 DWORD PTR [esi], OFFSET FLAT:??_7logic_error@std@@6B@
  00035	50		 push	 eax
  00036	83 c7 0c	 add	 edi, 12			; 0000000cH
  00039	c7 41 18 0f 00
	00 00		 mov	 DWORD PTR [ecx+24], 15	; 0000000fH
  00040	89 41 14	 mov	 DWORD PTR [ecx+20], eax
  00043	57		 push	 edi
  00044	89 44 24 20	 mov	 DWORD PTR __$EHRec$[esp+44], eax
  00048	88 41 04	 mov	 BYTE PTR [ecx+4], al
  0004b	e8 00 00 00 00	 call	 ?assign@?$basic_string@DU?$char_traits@D@std@@V?$allocator@D@2@@std@@QAEAAV12@ABV12@II@Z ; std::basic_string<char,std::char_traits<char>,std::allocator<char> >::assign
  00050	8b 4c 24 0c	 mov	 ecx, DWORD PTR __$EHRec$[esp+24]
  00054	5f		 pop	 edi
  00055	8b c6		 mov	 eax, esi
  00057	5e		 pop	 esi
  00058	64 89 0d 00 00
	00 00		 mov	 DWORD PTR fs:__except_list, ecx
  0005f	83 c4 10	 add	 esp, 16			; 00000010H
  00062	c2 04 00	 ret	 4
_TEXT	ENDS
;	COMDAT text$x
text$x	SEGMENT
$L193124:
  00000	8b 4d f0	 mov	 ecx, DWORD PTR _this$[ebp]
  00003	e9 00 00 00 00	 jmp	 ??1exception@@UAE@XZ	; exception::~exception
__ehhandler$??0logic_error@std@@QAE@ABV01@@Z:
  00008	b8 00 00 00 00	 mov	 eax, OFFSET FLAT:$T193222
  0000d	e9 00 00 00 00	 jmp	 ___CxxFrameHandler
text$x	ENDS
??0logic_error@std@@QAE@ABV01@@Z ENDP			; std::logic_error::logic_error
; Function compile flags: /Ogty
;	COMDAT ??0length_error@std@@QAE@ABV01@@Z
_TEXT	SEGMENT
___that$ = 8						; size = 4
??0length_error@std@@QAE@ABV01@@Z PROC NEAR		; std::length_error::length_error, COMDAT
; _this$ = ecx
  00000	8b 44 24 04	 mov	 eax, DWORD PTR ___that$[esp-4]
  00004	56		 push	 esi
  00005	50		 push	 eax
  00006	8b f1		 mov	 esi, ecx
  00008	e8 00 00 00 00	 call	 ??0logic_error@std@@QAE@ABV01@@Z
  0000d	c7 06 00 00 00
	00		 mov	 DWORD PTR [esi], OFFSET FLAT:??_7length_error@std@@6B@
  00013	8b c6		 mov	 eax, esi
  00015	5e		 pop	 esi
  00016	c2 04 00	 ret	 4
??0length_error@std@@QAE@ABV01@@Z ENDP			; std::length_error::length_error
_TEXT	ENDS
PUBLIC	?_Xlen@?$vector@V?$basic_string@DU?$char_traits@D@std@@V?$allocator@D@2@@std@@V?$allocator@V?$basic_string@DU?$char_traits@D@std@@V?$allocator@D@2@@std@@@2@@std@@IBEXXZ ; std::vector<std::basic_string<char,std::char_traits<char>,std::allocator<char> >,std::allocator<std::basic_string<char,std::char_traits<char>,std::allocator<char> > > >::_Xlen
PUBLIC	??_C@_0BD@OLBABOEK@vector?$DMT?$DO?5too?5long?$AA@ ; `string'
;	COMDAT xdata$x
; File c:\program files\microsoft visual studio .net 2003\vc7\include\stdexcept
xdata$x	SEGMENT
$T193349 DD	0ffffffffH
	DD	FLAT:$L193234
$T193346 DD	019930520H
	DD	01H
	DD	FLAT:$T193349
	DD	2 DUP(00H)
	DD	2 DUP(00H)
xdata$x	ENDS
;	COMDAT ??_C@_0BD@OLBABOEK@vector?$DMT?$DO?5too?5long?$AA@
CONST	SEGMENT
??_C@_0BD@OLBABOEK@vector?$DMT?$DO?5too?5long?$AA@ DB 'vector<T> too long'
	DB	00H						; `string'
; Function compile flags: /Ogty
; File c:\program files\microsoft visual studio .net 2003\vc7\include\vector
CONST	ENDS
;	COMDAT ?_Xlen@?$vector@V?$basic_string@DU?$char_traits@D@std@@V?$allocator@D@2@@std@@V?$allocator@V?$basic_string@DU?$char_traits@D@std@@V?$allocator@D@2@@std@@@2@@std@@IBEXXZ
_TEXT	SEGMENT
$T193233 = -80						; size = 28
$T193232 = -52						; size = 40
__$EHRec$ = -12						; size = 12
?_Xlen@?$vector@V?$basic_string@DU?$char_traits@D@std@@V?$allocator@D@2@@std@@V?$allocator@V?$basic_string@DU?$char_traits@D@std@@V?$allocator@D@2@@std@@@2@@std@@IBEXXZ PROC NEAR ; std::vector<std::basic_string<char,std::char_traits<char>,std::allocator<char> >,std::allocator<std::basic_string<char,std::char_traits<char>,std::allocator<char> > > >::_Xlen, COMDAT
; _this$ = ecx

; 883  : 		{	// report a length_error

  00000	6a ff		 push	 -1
  00002	68 00 00 00 00	 push	 __ehhandler$?_Xlen@?$vector@V?$basic_string@DU?$char_traits@D@std@@V?$allocator@D@2@@std@@V?$allocator@V?$basic_string@DU?$char_traits@D@std@@V?$allocator@D@2@@std@@@2@@std@@IBEXXZ
  00007	64 a1 00 00 00
	00		 mov	 eax, DWORD PTR fs:__except_list
  0000d	50		 push	 eax
  0000e	64 89 25 00 00
	00 00		 mov	 DWORD PTR fs:__except_list, esp
  00015	83 ec 44	 sub	 esp, 68			; 00000044H

; 884  : 		_THROW(length_error, "vector<T> too long");

  00018	6a 12		 push	 18			; 00000012H
  0001a	68 00 00 00 00	 push	 OFFSET FLAT:??_C@_0BD@OLBABOEK@vector?$DMT?$DO?5too?5long?$AA@
  0001f	8d 4c 24 08	 lea	 ecx, DWORD PTR $T193233[esp+88]
  00023	c7 44 24 20 0f
	00 00 00	 mov	 DWORD PTR $T193233[esp+112], 15 ; 0000000fH
  0002b	c7 44 24 1c 00
	00 00 00	 mov	 DWORD PTR $T193233[esp+108], 0
  00033	c6 44 24 0c 00	 mov	 BYTE PTR $T193233[esp+92], 0
  00038	e8 00 00 00 00	 call	 ?assign@?$basic_string@DU?$char_traits@D@std@@V?$allocator@D@2@@std@@QAEAAV12@PBDI@Z ; std::basic_string<char,std::char_traits<char>,std::allocator<char> >::assign
  0003d	8d 04 24	 lea	 eax, DWORD PTR $T193233[esp+80]
  00040	50		 push	 eax
  00041	8d 4c 24 20	 lea	 ecx, DWORD PTR $T193232[esp+84]
  00045	c7 44 24 50 00
	00 00 00	 mov	 DWORD PTR __$EHRec$[esp+92], 0
  0004d	e8 00 00 00 00	 call	 ??0logic_error@std@@QAE@ABV?$basic_string@DU?$char_traits@D@std@@V?$allocator@D@2@@1@@Z ; std::logic_error::logic_error
  00052	68 00 00 00 00	 push	 OFFSET FLAT:__TI3?AVlength_error@std@@
  00057	8d 4c 24 20	 lea	 ecx, DWORD PTR $T193232[esp+84]
  0005b	51		 push	 ecx
  0005c	c7 44 24 24 00
	00 00 00	 mov	 DWORD PTR $T193232[esp+88], OFFSET FLAT:??_7length_error@std@@6B@
  00064	e8 00 00 00 00	 call	 __CxxThrowException@8
$L193348:
  00069	cc		 int	 3
_TEXT	ENDS
;	COMDAT text$x
text$x	SEGMENT
$L193234:
  00000	8d 4d b0	 lea	 ecx, DWORD PTR $T193233[ebp]
  00003	e9 00 00 00 00	 jmp	 ??1?$basic_string@DU?$char_traits@D@std@@V?$allocator@D@2@@std@@QAE@XZ ; std::basic_string<char,std::char_traits<char>,std::allocator<char> >::~basic_string<char,std::char_traits<char>,std::allocator<char> >
__ehhandler$?_Xlen@?$vector@V?$basic_string@DU?$char_traits@D@std@@V?$allocator@D@2@@std@@V?$allocator@V?$basic_string@DU?$char_traits@D@std@@V?$allocator@D@2@@std@@@2@@std@@IBEXXZ:
  00008	b8 00 00 00 00	 mov	 eax, OFFSET FLAT:$T193346
  0000d	e9 00 00 00 00	 jmp	 ___CxxFrameHandler
text$x	ENDS
?_Xlen@?$vector@V?$basic_string@DU?$char_traits@D@std@@V?$allocator@D@2@@std@@V?$allocator@V?$basic_string@DU?$char_traits@D@std@@V?$allocator@D@2@@std@@@2@@std@@IBEXXZ ENDP ; std::vector<std::basic_string<char,std::char_traits<char>,std::allocator<char> >,std::allocator<std::basic_string<char,std::char_traits<char>,std::allocator<char> > > >::_Xlen
PUBLIC	?_Xlen@?$vector@EV?$allocator@E@std@@@std@@IBEXXZ ; std::vector<unsigned char,std::allocator<unsigned char> >::_Xlen
;	COMDAT xdata$x
; File c:\program files\microsoft visual studio .net 2003\vc7\include\stdexcept
xdata$x	SEGMENT
$T193471 DD	0ffffffffH
	DD	FLAT:$L193356
$T193468 DD	019930520H
	DD	01H
	DD	FLAT:$T193471
	DD	2 DUP(00H)
	DD	2 DUP(00H)
; Function compile flags: /Ogty
; File c:\program files\microsoft visual studio .net 2003\vc7\include\vector
xdata$x	ENDS
;	COMDAT ?_Xlen@?$vector@EV?$allocator@E@std@@@std@@IBEXXZ
_TEXT	SEGMENT
$T193355 = -80						; size = 28
$T193354 = -52						; size = 40
__$EHRec$ = -12						; size = 12
?_Xlen@?$vector@EV?$allocator@E@std@@@std@@IBEXXZ PROC NEAR ; std::vector<unsigned char,std::allocator<unsigned char> >::_Xlen, COMDAT
; _this$ = ecx

; 883  : 		{	// report a length_error

  00000	6a ff		 push	 -1
  00002	68 00 00 00 00	 push	 __ehhandler$?_Xlen@?$vector@EV?$allocator@E@std@@@std@@IBEXXZ
  00007	64 a1 00 00 00
	00		 mov	 eax, DWORD PTR fs:__except_list
  0000d	50		 push	 eax
  0000e	64 89 25 00 00
	00 00		 mov	 DWORD PTR fs:__except_list, esp
  00015	83 ec 44	 sub	 esp, 68			; 00000044H

; 884  : 		_THROW(length_error, "vector<T> too long");

  00018	6a 12		 push	 18			; 00000012H
  0001a	68 00 00 00 00	 push	 OFFSET FLAT:??_C@_0BD@OLBABOEK@vector?$DMT?$DO?5too?5long?$AA@
  0001f	8d 4c 24 08	 lea	 ecx, DWORD PTR $T193355[esp+88]
  00023	c7 44 24 20 0f
	00 00 00	 mov	 DWORD PTR $T193355[esp+112], 15 ; 0000000fH
  0002b	c7 44 24 1c 00
	00 00 00	 mov	 DWORD PTR $T193355[esp+108], 0
  00033	c6 44 24 0c 00	 mov	 BYTE PTR $T193355[esp+92], 0
  00038	e8 00 00 00 00	 call	 ?assign@?$basic_string@DU?$char_traits@D@std@@V?$allocator@D@2@@std@@QAEAAV12@PBDI@Z ; std::basic_string<char,std::char_traits<char>,std::allocator<char> >::assign
  0003d	8d 04 24	 lea	 eax, DWORD PTR $T193355[esp+80]
  00040	50		 push	 eax
  00041	8d 4c 24 20	 lea	 ecx, DWORD PTR $T193354[esp+84]
  00045	c7 44 24 50 00
	00 00 00	 mov	 DWORD PTR __$EHRec$[esp+92], 0
  0004d	e8 00 00 00 00	 call	 ??0logic_error@std@@QAE@ABV?$basic_string@DU?$char_traits@D@std@@V?$allocator@D@2@@1@@Z ; std::logic_error::logic_error
  00052	68 00 00 00 00	 push	 OFFSET FLAT:__TI3?AVlength_error@std@@
  00057	8d 4c 24 20	 lea	 ecx, DWORD PTR $T193354[esp+84]
  0005b	51		 push	 ecx
  0005c	c7 44 24 24 00
	00 00 00	 mov	 DWORD PTR $T193354[esp+88], OFFSET FLAT:??_7length_error@std@@6B@
  00064	e8 00 00 00 00	 call	 __CxxThrowException@8
$L193470:
  00069	cc		 int	 3
_TEXT	ENDS
;	COMDAT text$x
text$x	SEGMENT
$L193356:
  00000	8d 4d b0	 lea	 ecx, DWORD PTR $T193355[ebp]
  00003	e9 00 00 00 00	 jmp	 ??1?$basic_string@DU?$char_traits@D@std@@V?$allocator@D@2@@std@@QAE@XZ ; std::basic_string<char,std::char_traits<char>,std::allocator<char> >::~basic_string<char,std::char_traits<char>,std::allocator<char> >
__ehhandler$?_Xlen@?$vector@EV?$allocator@E@std@@@std@@IBEXXZ:
  00008	b8 00 00 00 00	 mov	 eax, OFFSET FLAT:$T193468
  0000d	e9 00 00 00 00	 jmp	 ___CxxFrameHandler
text$x	ENDS
?_Xlen@?$vector@EV?$allocator@E@std@@@std@@IBEXXZ ENDP	; std::vector<unsigned char,std::allocator<unsigned char> >::_Xlen
PUBLIC	??_C@_0BM@PAPJHAGI@invalid?5map?1set?$DMT?$DO?5iterator?$AA@ ; `string'
PUBLIC	__TI3?AVout_of_range@std@@
PUBLIC	__CTA3?AVout_of_range@std@@
PUBLIC	??_R0?AVout_of_range@std@@@8			; std::out_of_range `RTTI Type Descriptor'
PUBLIC	__CT??_R0?AVout_of_range@std@@@8??0out_of_range@std@@QAE@ABV01@@Z40
PUBLIC	?erase@?$_Tree@V?$_Tmap_traits@EHU?$less@E@std@@V?$allocator@U?$pair@$$CBEH@std@@@2@$0A@@std@@@std@@QAE?AViterator@12@V312@@Z ; std::_Tree<std::_Tmap_traits<unsigned char,int,std::less<unsigned char>,std::allocator<std::pair<unsigned char const ,int> >,0> >::erase
PUBLIC	??0out_of_range@std@@QAE@ABV01@@Z		; std::out_of_range::out_of_range
;	COMDAT xdata$x
; File c:\program files\microsoft visual studio .net 2003\vc7\include\xmemory
xdata$x	SEGMENT
$T193968 DD	0ffffffffH
	DD	FLAT:$L193482
$T193960 DD	019930520H
	DD	01H
	DD	FLAT:$T193968
	DD	2 DUP(00H)
	DD	2 DUP(00H)
xdata$x	ENDS
;	COMDAT ??_C@_0BM@PAPJHAGI@invalid?5map?1set?$DMT?$DO?5iterator?$AA@
CONST	SEGMENT
??_C@_0BM@PAPJHAGI@invalid?5map?1set?$DMT?$DO?5iterator?$AA@ DB 'invalid '
	DB	'map/set<T> iterator', 00H			; `string'
CONST	ENDS
;	COMDAT __TI3?AVout_of_range@std@@
xdata$x	SEGMENT
__TI3?AVout_of_range@std@@ DD 00H
	DD	FLAT:??1out_of_range@std@@UAE@XZ
	DD	00H
	DD	FLAT:__CTA3?AVout_of_range@std@@
xdata$x	ENDS
;	COMDAT __CTA3?AVout_of_range@std@@
xdata$x	SEGMENT
__CTA3?AVout_of_range@std@@ DD 03H
	DD	FLAT:__CT??_R0?AVout_of_range@std@@@8??0out_of_range@std@@QAE@ABV01@@Z40
	DD	FLAT:__CT??_R0?AVlogic_error@std@@@8??0logic_error@std@@QAE@ABV01@@Z40
	DD	FLAT:__CT??_R0?AVexception@@@8??0exception@@QAE@ABV0@@Z12
xdata$x	ENDS
;	COMDAT __CT??_R0?AVout_of_range@std@@@8??0out_of_range@std@@QAE@ABV01@@Z40
xdata$x	SEGMENT
__CT??_R0?AVout_of_range@std@@@8??0out_of_range@std@@QAE@ABV01@@Z40 DD 00H
	DD	FLAT:??_R0?AVout_of_range@std@@@8
	DD	00H
	DD	0ffffffffH
	ORG $+4
	DD	028H
	DD	FLAT:??0out_of_range@std@@QAE@ABV01@@Z
xdata$x	ENDS
;	COMDAT ??_R0?AVout_of_range@std@@@8
_DATA	SEGMENT
??_R0?AVout_of_range@std@@@8 DD FLAT:??_7type_info@@6B@	; std::out_of_range `RTTI Type Descriptor'
	DD	00H
	DB	'.?AVout_of_range@std@@', 00H
; Function compile flags: /Ogty
; File c:\program files\microsoft visual studio .net 2003\vc7\include\xtree
_DATA	ENDS
;	COMDAT ?erase@?$_Tree@V?$_Tmap_traits@EHU?$less@E@std@@V?$allocator@U?$pair@$$CBEH@std@@@2@$0A@@std@@@std@@QAE?AViterator@12@V312@@Z
_TEXT	SEGMENT
__Erasednode$ = -84					; size = 4
$T193477 = -80						; size = 28
$T193476 = -52						; size = 40
__$EHRec$ = -12						; size = 12
___$ReturnUdt$ = 8					; size = 4
__Where$ = 12						; size = 4
?erase@?$_Tree@V?$_Tmap_traits@EHU?$less@E@std@@V?$allocator@U?$pair@$$CBEH@std@@@2@$0A@@std@@@std@@QAE?AViterator@12@V312@@Z PROC NEAR ; std::_Tree<std::_Tmap_traits<unsigned char,int,std::less<unsigned char>,std::allocator<std::pair<unsigned char const ,int> >,0> >::erase, COMDAT
; _this$ = ecx

; 590  : 		{	// erase element at _Where

  00000	64 a1 00 00 00
	00		 mov	 eax, DWORD PTR fs:__except_list
  00006	6a ff		 push	 -1
  00008	68 00 00 00 00	 push	 __ehhandler$?erase@?$_Tree@V?$_Tmap_traits@EHU?$less@E@std@@V?$allocator@U?$pair@$$CBEH@std@@@2@$0A@@std@@@std@@QAE?AViterator@12@V312@@Z
  0000d	50		 push	 eax

; 591  : 		if (_Isnil(_Where._Mynode()))

  0000e	8b 44 24 14	 mov	 eax, DWORD PTR __Where$[esp+8]
  00012	64 89 25 00 00
	00 00		 mov	 DWORD PTR fs:__except_list, esp
  00019	83 ec 48	 sub	 esp, 72			; 00000048H
  0001c	55		 push	 ebp
  0001d	8b e9		 mov	 ebp, ecx
  0001f	8a 48 15	 mov	 cl, BYTE PTR [eax+21]
  00022	84 c9		 test	 cl, cl
  00024	56		 push	 esi
  00025	74 4c		 je	 SHORT $L188115

; 592  : 			_THROW(out_of_range, "invalid map/set<T> iterator");

  00027	6a 1b		 push	 27			; 0000001bH
  00029	33 f6		 xor	 esi, esi
  0002b	68 00 00 00 00	 push	 OFFSET FLAT:??_C@_0BM@PAPJHAGI@invalid?5map?1set?$DMT?$DO?5iterator?$AA@
  00030	8d 4c 24 14	 lea	 ecx, DWORD PTR $T193477[esp+100]
  00034	c7 44 24 2c 0f
	00 00 00	 mov	 DWORD PTR $T193477[esp+124], 15 ; 0000000fH
  0003c	89 74 24 28	 mov	 DWORD PTR $T193477[esp+120], esi
  00040	c6 44 24 18 00	 mov	 BYTE PTR $T193477[esp+104], 0
  00045	e8 00 00 00 00	 call	 ?assign@?$basic_string@DU?$char_traits@D@std@@V?$allocator@D@2@@std@@QAEAAV12@PBDI@Z ; std::basic_string<char,std::char_traits<char>,std::allocator<char> >::assign
  0004a	8d 44 24 0c	 lea	 eax, DWORD PTR $T193477[esp+92]
  0004e	50		 push	 eax
  0004f	8d 4c 24 2c	 lea	 ecx, DWORD PTR $T193476[esp+96]
  00053	89 74 24 5c	 mov	 DWORD PTR __$EHRec$[esp+104], esi
  00057	e8 00 00 00 00	 call	 ??0logic_error@std@@QAE@ABV?$basic_string@DU?$char_traits@D@std@@V?$allocator@D@2@@1@@Z ; std::logic_error::logic_error
  0005c	68 00 00 00 00	 push	 OFFSET FLAT:__TI3?AVout_of_range@std@@
  00061	8d 4c 24 2c	 lea	 ecx, DWORD PTR $T193476[esp+96]
  00065	51		 push	 ecx
  00066	c7 44 24 30 00
	00 00 00	 mov	 DWORD PTR $T193476[esp+100], OFFSET FLAT:??_7out_of_range@std@@6B@
  0006e	e8 00 00 00 00	 call	 __CxxThrowException@8
$L188115:
  00073	53		 push	 ebx

; 593  : 		_Nodeptr _Erasednode = _Where._Mynode();	// node to erase

  00074	8b d8		 mov	 ebx, eax
  00076	57		 push	 edi

; 594  : 		++_Where;	// save successor iterator for return

  00077	8d 4c 24 6c	 lea	 ecx, DWORD PTR __Where$[esp+96]
  0007b	89 5c 24 10	 mov	 DWORD PTR __Erasednode$[esp+100], ebx
  0007f	e8 00 00 00 00	 call	 ?_Inc@const_iterator@?$_Tree@V?$_Tmap_traits@EHU?$less@E@std@@V?$allocator@U?$pair@$$CBEH@std@@@2@$0A@@std@@@std@@QAEXXZ ; std::_Tree<std::_Tmap_traits<unsigned char,int,std::less<unsigned char>,std::allocator<std::pair<unsigned char const ,int> >,0> >::const_iterator::_Inc

; 595  : 
; 596  : 		_Nodeptr _Fixnode;	// the node to recolor as needed
; 597  : 		_Nodeptr _Fixnodeparent;	// parent of _Fixnode (which may be nil)
; 598  : 		_Nodeptr _Pnode = _Erasednode;
; 599  : 
; 600  : 		if (_Isnil(_Left(_Pnode)))

  00084	8b 03		 mov	 eax, DWORD PTR [ebx]
  00086	8a 48 15	 mov	 cl, BYTE PTR [eax+21]
  00089	84 c9		 test	 cl, cl
  0008b	74 05		 je	 SHORT $L188123

; 601  : 			_Fixnode = _Right(_Pnode);	// must stitch up right subtree

  0008d	8b 7b 08	 mov	 edi, DWORD PTR [ebx+8]

; 602  : 		else if (_Isnil(_Right(_Pnode)))

  00090	eb 19		 jmp	 SHORT $L193963
$L188123:
  00092	8b 53 08	 mov	 edx, DWORD PTR [ebx+8]
  00095	8a 4a 15	 mov	 cl, BYTE PTR [edx+21]
  00098	84 c9		 test	 cl, cl
  0009a	74 04		 je	 SHORT $L188125

; 603  : 			_Fixnode = _Left(_Pnode);	// must stitch up left subtree

  0009c	8b f8		 mov	 edi, eax

; 604  : 		else

  0009e	eb 0b		 jmp	 SHORT $L193963
$L188125:

; 605  : 			{	// two subtrees, must lift successor node to replace erased
; 606  : 			_Pnode = _Where._Mynode();	// _Pnode is successor node
; 607  : 			_Fixnode = _Right(_Pnode);	// _Fixnode is its only subtree

  000a0	8b 4c 24 6c	 mov	 ecx, DWORD PTR __Where$[esp+96]

; 608  : 			}
; 609  : 
; 610  : 		if (_Pnode == _Erasednode)

  000a4	3b cb		 cmp	 ecx, ebx
  000a6	8b 79 08	 mov	 edi, DWORD PTR [ecx+8]
  000a9	75 6e		 jne	 SHORT $L188127
$L193963:

; 611  : 			{	// at most one subtree, relink it
; 612  : 			_Fixnodeparent = _Parent(_Erasednode);
; 613  : 			if (!_Isnil(_Fixnode))

  000ab	8a 47 15	 mov	 al, BYTE PTR [edi+21]
  000ae	84 c0		 test	 al, al
  000b0	8b 73 04	 mov	 esi, DWORD PTR [ebx+4]
  000b3	75 03		 jne	 SHORT $L188128

; 614  : 				_Parent(_Fixnode) = _Fixnodeparent;	// link up

  000b5	89 77 04	 mov	 DWORD PTR [edi+4], esi
$L188128:

; 615  : 
; 616  : 			if (_Root() == _Erasednode)

  000b8	8b 45 04	 mov	 eax, DWORD PTR [ebp+4]
  000bb	39 58 04	 cmp	 DWORD PTR [eax+4], ebx
  000be	75 05		 jne	 SHORT $L188129

; 617  : 				_Root() = _Fixnode;	// link down from root

  000c0	89 78 04	 mov	 DWORD PTR [eax+4], edi

; 618  : 			else if (_Left(_Fixnodeparent) == _Erasednode)

  000c3	eb 0b		 jmp	 SHORT $L188132
$L188129:
  000c5	39 1e		 cmp	 DWORD PTR [esi], ebx
  000c7	75 04		 jne	 SHORT $L188131

; 619  : 				_Left(_Fixnodeparent) = _Fixnode;	// link down to left

  000c9	89 3e		 mov	 DWORD PTR [esi], edi

; 620  : 			else

  000cb	eb 03		 jmp	 SHORT $L188132
$L188131:

; 621  : 				_Right(_Fixnodeparent) = _Fixnode;	// link down to right

  000cd	89 7e 08	 mov	 DWORD PTR [esi+8], edi
$L188132:

; 622  : 
; 623  : 			if (_Lmost() == _Erasednode)

  000d0	8b 5d 04	 mov	 ebx, DWORD PTR [ebp+4]
  000d3	8b 03		 mov	 eax, DWORD PTR [ebx]
  000d5	3b 44 24 10	 cmp	 eax, DWORD PTR __Erasednode$[esp+100]
  000d9	75 16		 jne	 SHORT $L188133

; 624  : 				_Lmost() = _Isnil(_Fixnode)
; 625  : 					? _Fixnodeparent	// smallest is parent of erased node
; 626  : 					: _Min(_Fixnode);	// smallest in relinked subtree

  000db	8a 47 15	 mov	 al, BYTE PTR [edi+21]
  000de	84 c0		 test	 al, al
  000e0	74 04		 je	 SHORT $L193478
  000e2	8b c6		 mov	 eax, esi
  000e4	eb 09		 jmp	 SHORT $L193479
$L193478:
  000e6	57		 push	 edi
  000e7	e8 00 00 00 00	 call	 ?_Min@?$_Tree@V?$_Tmap_traits@EHU?$less@E@std@@V?$allocator@U?$pair@$$CBEH@std@@@2@$0A@@std@@@std@@KAPAU_Node@?$_Tree_nod@V?$_Tmap_traits@EHU?$less@E@std@@V?$allocator@U?$pair@$$CBEH@std@@@2@$0A@@std@@@2@PAU342@@Z ; std::_Tree<std::_Tmap_traits<unsigned char,int,std::less<unsigned char>,std::allocator<std::pair<unsigned char const ,int> >,0> >::_Min
  000ec	83 c4 04	 add	 esp, 4
$L193479:
  000ef	89 03		 mov	 DWORD PTR [ebx], eax
$L188133:

; 627  : 
; 628  : 			if (_Rmost() == _Erasednode)

  000f1	8b 5d 04	 mov	 ebx, DWORD PTR [ebp+4]
  000f4	8b 4c 24 10	 mov	 ecx, DWORD PTR __Erasednode$[esp+100]
  000f8	39 4b 08	 cmp	 DWORD PTR [ebx+8], ecx
  000fb	75 74		 jne	 SHORT $L193796

; 629  : 				_Rmost() = _Isnil(_Fixnode)
; 630  : 					? _Fixnodeparent	// largest is parent of erased node
; 631  : 					: _Max(_Fixnode);	// largest in relinked subtree

  000fd	8a 47 15	 mov	 al, BYTE PTR [edi+21]
  00100	84 c0		 test	 al, al
  00102	74 07		 je	 SHORT $L193480
  00104	8b c6		 mov	 eax, esi
  00106	89 43 08	 mov	 DWORD PTR [ebx+8], eax

; 632  : 			}
; 633  : 		else

  00109	eb 66		 jmp	 SHORT $L193796
$L193480:

; 629  : 				_Rmost() = _Isnil(_Fixnode)
; 630  : 					? _Fixnodeparent	// largest is parent of erased node
; 631  : 					: _Max(_Fixnode);	// largest in relinked subtree

  0010b	57		 push	 edi
  0010c	e8 00 00 00 00	 call	 ?_Max@?$_Tree@V?$_Tmap_traits@EHU?$less@E@std@@V?$allocator@U?$pair@$$CBEH@std@@@2@$0A@@std@@@std@@KAPAU_Node@?$_Tree_nod@V?$_Tmap_traits@EHU?$less@E@std@@V?$allocator@U?$pair@$$CBEH@std@@@2@$0A@@std@@@2@PAU342@@Z ; std::_Tree<std::_Tmap_traits<unsigned char,int,std::less<unsigned char>,std::allocator<std::pair<unsigned char const ,int> >,0> >::_Max
  00111	83 c4 04	 add	 esp, 4
  00114	89 43 08	 mov	 DWORD PTR [ebx+8], eax

; 632  : 			}
; 633  : 		else

  00117	eb 58		 jmp	 SHORT $L193796
$L188127:

; 634  : 			{	// erased has two subtrees, _Pnode is successor to erased
; 635  : 			_Parent(_Left(_Erasednode)) = _Pnode;	// link left up

  00119	89 48 04	 mov	 DWORD PTR [eax+4], ecx

; 636  : 			_Left(_Pnode) = _Left(_Erasednode);	// link successor down

  0011c	8b 13		 mov	 edx, DWORD PTR [ebx]
  0011e	89 11		 mov	 DWORD PTR [ecx], edx

; 637  : 
; 638  : 			if (_Pnode == _Right(_Erasednode))

  00120	3b 4b 08	 cmp	 ecx, DWORD PTR [ebx+8]
  00123	75 04		 jne	 SHORT $L188136

; 639  : 				_Fixnodeparent = _Pnode;	// successor is next to erased

  00125	8b f1		 mov	 esi, ecx

; 640  : 			else

  00127	eb 1b		 jmp	 SHORT $L188137
$L188136:

; 641  : 				{	// successor further down, link in place of erased
; 642  : 				_Fixnodeparent = _Parent(_Pnode);	// parent is successor's
; 643  : 				if (!_Isnil(_Fixnode))

  00129	8a 47 15	 mov	 al, BYTE PTR [edi+21]
  0012c	84 c0		 test	 al, al
  0012e	8b 71 04	 mov	 esi, DWORD PTR [ecx+4]
  00131	75 03		 jne	 SHORT $L188138

; 644  : 					_Parent(_Fixnode) = _Fixnodeparent;	// link fix up

  00133	89 77 04	 mov	 DWORD PTR [edi+4], esi
$L188138:

; 645  : 				_Left(_Fixnodeparent) = _Fixnode;	// link fix down

  00136	89 3e		 mov	 DWORD PTR [esi], edi

; 646  : 				_Right(_Pnode) = _Right(_Erasednode);	// link successor down

  00138	8b 43 08	 mov	 eax, DWORD PTR [ebx+8]
  0013b	89 41 08	 mov	 DWORD PTR [ecx+8], eax

; 647  : 				_Parent(_Right(_Erasednode)) = _Pnode;	// link right up

  0013e	8b 53 08	 mov	 edx, DWORD PTR [ebx+8]
  00141	89 4a 04	 mov	 DWORD PTR [edx+4], ecx
$L188137:

; 648  : 				}
; 649  : 
; 650  : 			if (_Root() == _Erasednode)

  00144	8b 45 04	 mov	 eax, DWORD PTR [ebp+4]
  00147	39 58 04	 cmp	 DWORD PTR [eax+4], ebx
  0014a	75 05		 jne	 SHORT $L188139

; 651  : 				_Root() = _Pnode;	// link down from root

  0014c	89 48 04	 mov	 DWORD PTR [eax+4], ecx

; 652  : 			else if (_Left(_Parent(_Erasednode)) == _Erasednode)

  0014f	eb 0e		 jmp	 SHORT $L188142
$L188139:
  00151	8b 43 04	 mov	 eax, DWORD PTR [ebx+4]
  00154	39 18		 cmp	 DWORD PTR [eax], ebx
  00156	75 04		 jne	 SHORT $L188141

; 653  : 				_Left(_Parent(_Erasednode)) = _Pnode;	// link down to left

  00158	89 08		 mov	 DWORD PTR [eax], ecx

; 654  : 			else

  0015a	eb 03		 jmp	 SHORT $L188142
$L188141:

; 655  : 				_Right(_Parent(_Erasednode)) = _Pnode;	// link down to right

  0015c	89 48 08	 mov	 DWORD PTR [eax+8], ecx
$L188142:

; 656  : 
; 657  : 			_Parent(_Pnode) = _Parent(_Erasednode);	// link successor up

  0015f	8b 43 04	 mov	 eax, DWORD PTR [ebx+4]
  00162	89 41 04	 mov	 DWORD PTR [ecx+4], eax

; 658  : 			std::swap(_Color(_Pnode), _Color(_Erasednode));	// recolor it

  00165	8a 53 14	 mov	 dl, BYTE PTR [ebx+20]
  00168	8a 41 14	 mov	 al, BYTE PTR [ecx+20]
  0016b	88 51 14	 mov	 BYTE PTR [ecx+20], dl
  0016e	88 43 14	 mov	 BYTE PTR [ebx+20], al
$L193796:

; 659  : 			}
; 660  : 
; 661  : 		if (_Color(_Erasednode) == _Black)

  00171	8b 44 24 10	 mov	 eax, DWORD PTR __Erasednode$[esp+100]
  00175	8a 48 14	 mov	 cl, BYTE PTR [eax+20]
  00178	b3 01		 mov	 bl, 1
  0017a	3a cb		 cmp	 cl, bl
  0017c	0f 85 ff 00 00
	00		 jne	 $L188143

; 662  : 			{	// erasing black link, must recolor/rebalance tree
; 663  : 			for (; _Fixnode != _Root() && _Color(_Fixnode) == _Black;
; 664  : 				_Fixnodeparent = _Parent(_Fixnode))

  00182	8b 4d 04	 mov	 ecx, DWORD PTR [ebp+4]
  00185	3b 79 04	 cmp	 edi, DWORD PTR [ecx+4]
  00188	0f 84 f0 00 00
	00		 je	 $L188146
  0018e	8b ff		 npad	 2
$L188144:
  00190	38 5f 14	 cmp	 BYTE PTR [edi+20], bl
  00193	0f 85 e5 00 00
	00		 jne	 $L188146

; 665  : 				if (_Fixnode == _Left(_Fixnodeparent))

  00199	8b 06		 mov	 eax, DWORD PTR [esi]
  0019b	3b f8		 cmp	 edi, eax
  0019d	75 67		 jne	 SHORT $L188147

; 666  : 					{	// fixup left subtree
; 667  : 					_Pnode = _Right(_Fixnodeparent);

  0019f	8b 46 08	 mov	 eax, DWORD PTR [esi+8]

; 668  : 					if (_Color(_Pnode) == _Red)

  001a2	8a 48 14	 mov	 cl, BYTE PTR [eax+20]
  001a5	84 c9		 test	 cl, cl
  001a7	75 12		 jne	 SHORT $L188148

; 669  : 						{	// rotate red up from right subtree
; 670  : 						_Color(_Pnode) = _Black;

  001a9	88 58 14	 mov	 BYTE PTR [eax+20], bl

; 671  : 						_Color(_Fixnodeparent) = _Red;
; 672  : 						_Lrotate(_Fixnodeparent);

  001ac	56		 push	 esi
  001ad	8b cd		 mov	 ecx, ebp
  001af	c6 46 14 00	 mov	 BYTE PTR [esi+20], 0
  001b3	e8 00 00 00 00	 call	 ?_Lrotate@?$_Tree@V?$_Tmap_traits@EHU?$less@E@std@@V?$allocator@U?$pair@$$CBEH@std@@@2@$0A@@std@@@std@@IAEXPAU_Node@?$_Tree_nod@V?$_Tmap_traits@EHU?$less@E@std@@V?$allocator@U?$pair@$$CBEH@std@@@2@$0A@@std@@@2@@Z ; std::_Tree<std::_Tmap_traits<unsigned char,int,std::less<unsigned char>,std::allocator<std::pair<unsigned char const ,int> >,0> >::_Lrotate

; 673  : 						_Pnode = _Right(_Fixnodeparent);

  001b8	8b 46 08	 mov	 eax, DWORD PTR [esi+8]
$L188148:

; 674  : 						}
; 675  : 
; 676  : 					if (_Isnil(_Pnode))

  001bb	8a 48 15	 mov	 cl, BYTE PTR [eax+21]
  001be	84 c9		 test	 cl, cl

; 677  : 						_Fixnode = _Fixnodeparent;	// shouldn't happen
; 678  : 					else if (_Color(_Left(_Pnode)) == _Black

  001c0	75 76		 jne	 SHORT $L193966

; 679  : 						&& _Color(_Right(_Pnode)) == _Black)

  001c2	8b 10		 mov	 edx, DWORD PTR [eax]
  001c4	38 5a 14	 cmp	 BYTE PTR [edx+20], bl
  001c7	75 08		 jne	 SHORT $L188151
  001c9	8b 48 08	 mov	 ecx, DWORD PTR [eax+8]
  001cc	38 59 14	 cmp	 BYTE PTR [ecx+20], bl
  001cf	74 63		 je	 SHORT $L193967
$L188151:

; 680  : 						{	// redden right subtree with black children
; 681  : 						_Color(_Pnode) = _Red;
; 682  : 						_Fixnode = _Fixnodeparent;
; 683  : 						}
; 684  : 					else
; 685  : 						{	// must rearrange right subtree
; 686  : 						if (_Color(_Right(_Pnode)) == _Black)

  001d1	8b 48 08	 mov	 ecx, DWORD PTR [eax+8]
  001d4	38 59 14	 cmp	 BYTE PTR [ecx+20], bl
  001d7	75 14		 jne	 SHORT $L188153

; 687  : 							{	// rotate red up from left sub-subtree
; 688  : 							_Color(_Left(_Pnode)) = _Black;

  001d9	8b 10		 mov	 edx, DWORD PTR [eax]
  001db	88 5a 14	 mov	 BYTE PTR [edx+20], bl

; 689  : 							_Color(_Pnode) = _Red;
; 690  : 							_Rrotate(_Pnode);

  001de	50		 push	 eax
  001df	8b cd		 mov	 ecx, ebp
  001e1	c6 40 14 00	 mov	 BYTE PTR [eax+20], 0
  001e5	e8 00 00 00 00	 call	 ?_Rrotate@?$_Tree@V?$_Tmap_traits@EHU?$less@E@std@@V?$allocator@U?$pair@$$CBEH@std@@@2@$0A@@std@@@std@@IAEXPAU_Node@?$_Tree_nod@V?$_Tmap_traits@EHU?$less@E@std@@V?$allocator@U?$pair@$$CBEH@std@@@2@$0A@@std@@@2@@Z ; std::_Tree<std::_Tmap_traits<unsigned char,int,std::less<unsigned char>,std::allocator<std::pair<unsigned char const ,int> >,0> >::_Rrotate

; 691  : 							_Pnode = _Right(_Fixnodeparent);

  001ea	8b 46 08	 mov	 eax, DWORD PTR [esi+8]
$L188153:

; 692  : 							}
; 693  : 
; 694  : 						_Color(_Pnode) = _Color(_Fixnodeparent);

  001ed	8a 4e 14	 mov	 cl, BYTE PTR [esi+20]
  001f0	88 48 14	 mov	 BYTE PTR [eax+20], cl

; 695  : 						_Color(_Fixnodeparent) = _Black;

  001f3	88 5e 14	 mov	 BYTE PTR [esi+20], bl

; 696  : 						_Color(_Right(_Pnode)) = _Black;

  001f6	8b 50 08	 mov	 edx, DWORD PTR [eax+8]

; 697  : 						_Lrotate(_Fixnodeparent);

  001f9	56		 push	 esi
  001fa	8b cd		 mov	 ecx, ebp
  001fc	88 5a 14	 mov	 BYTE PTR [edx+20], bl
  001ff	e8 00 00 00 00	 call	 ?_Lrotate@?$_Tree@V?$_Tmap_traits@EHU?$less@E@std@@V?$allocator@U?$pair@$$CBEH@std@@@2@$0A@@std@@@std@@IAEXPAU_Node@?$_Tree_nod@V?$_Tmap_traits@EHU?$less@E@std@@V?$allocator@U?$pair@$$CBEH@std@@@2@$0A@@std@@@2@@Z ; std::_Tree<std::_Tmap_traits<unsigned char,int,std::less<unsigned char>,std::allocator<std::pair<unsigned char const ,int> >,0> >::_Lrotate

; 698  : 						break;	// tree now recolored/rebalanced

  00204	eb 78		 jmp	 SHORT $L188146
$L188147:

; 699  : 						}
; 700  : 					}
; 701  : 				else
; 702  : 					{	// fixup right subtree
; 703  : 					_Pnode = _Left(_Fixnodeparent);
; 704  : 					if (_Color(_Pnode) == _Red)

  00206	8a 48 14	 mov	 cl, BYTE PTR [eax+20]
  00209	84 c9		 test	 cl, cl
  0020b	75 11		 jne	 SHORT $L188155

; 705  : 						{	// rotate red up from left subtree
; 706  : 						_Color(_Pnode) = _Black;

  0020d	88 58 14	 mov	 BYTE PTR [eax+20], bl

; 707  : 						_Color(_Fixnodeparent) = _Red;
; 708  : 						_Rrotate(_Fixnodeparent);

  00210	56		 push	 esi
  00211	8b cd		 mov	 ecx, ebp
  00213	c6 46 14 00	 mov	 BYTE PTR [esi+20], 0
  00217	e8 00 00 00 00	 call	 ?_Rrotate@?$_Tree@V?$_Tmap_traits@EHU?$less@E@std@@V?$allocator@U?$pair@$$CBEH@std@@@2@$0A@@std@@@std@@IAEXPAU_Node@?$_Tree_nod@V?$_Tmap_traits@EHU?$less@E@std@@V?$allocator@U?$pair@$$CBEH@std@@@2@$0A@@std@@@2@@Z ; std::_Tree<std::_Tmap_traits<unsigned char,int,std::less<unsigned char>,std::allocator<std::pair<unsigned char const ,int> >,0> >::_Rrotate

; 709  : 						_Pnode = _Left(_Fixnodeparent);

  0021c	8b 06		 mov	 eax, DWORD PTR [esi]
$L188155:

; 710  : 						}
; 711  : 					if (_Isnil(_Pnode))

  0021e	8a 48 15	 mov	 cl, BYTE PTR [eax+21]
  00221	84 c9		 test	 cl, cl

; 712  : 						_Fixnode = _Fixnodeparent;	// shouldn't happen
; 713  : 					else if (_Color(_Right(_Pnode)) == _Black

  00223	75 13		 jne	 SHORT $L193966

; 714  : 						&& _Color(_Left(_Pnode)) == _Black)

  00225	8b 50 08	 mov	 edx, DWORD PTR [eax+8]
  00228	38 5a 14	 cmp	 BYTE PTR [edx+20], bl
  0022b	75 20		 jne	 SHORT $L188158
  0022d	8b 08		 mov	 ecx, DWORD PTR [eax]
  0022f	38 59 14	 cmp	 BYTE PTR [ecx+20], bl
  00232	75 19		 jne	 SHORT $L188158
$L193967:

; 715  : 						{	// redden left subtree with black children
; 716  : 						_Color(_Pnode) = _Red;

  00234	c6 40 14 00	 mov	 BYTE PTR [eax+20], 0
$L193966:

; 662  : 			{	// erasing black link, must recolor/rebalance tree
; 663  : 			for (; _Fixnode != _Root() && _Color(_Fixnode) == _Black;
; 664  : 				_Fixnodeparent = _Parent(_Fixnode))

  00238	8b 55 04	 mov	 edx, DWORD PTR [ebp+4]
  0023b	8b 42 04	 mov	 eax, DWORD PTR [edx+4]

; 717  : 						_Fixnode = _Fixnodeparent;

  0023e	8b fe		 mov	 edi, esi
  00240	3b f8		 cmp	 edi, eax
  00242	8b 76 04	 mov	 esi, DWORD PTR [esi+4]
  00245	0f 85 45 ff ff
	ff		 jne	 $L188144

; 662  : 			{	// erasing black link, must recolor/rebalance tree
; 663  : 			for (; _Fixnode != _Root() && _Color(_Fixnode) == _Black;
; 664  : 				_Fixnodeparent = _Parent(_Fixnode))

  0024b	eb 31		 jmp	 SHORT $L188146
$L188158:

; 718  : 						}
; 719  : 					else
; 720  : 						{	// must rearrange left subtree
; 721  : 						if (_Color(_Left(_Pnode)) == _Black)

  0024d	8b 08		 mov	 ecx, DWORD PTR [eax]
  0024f	38 59 14	 cmp	 BYTE PTR [ecx+20], bl
  00252	75 14		 jne	 SHORT $L188160

; 722  : 							{	// rotate red up from right sub-subtree
; 723  : 							_Color(_Right(_Pnode)) = _Black;

  00254	8b 50 08	 mov	 edx, DWORD PTR [eax+8]
  00257	88 5a 14	 mov	 BYTE PTR [edx+20], bl

; 724  : 							_Color(_Pnode) = _Red;
; 725  : 							_Lrotate(_Pnode);

  0025a	50		 push	 eax
  0025b	8b cd		 mov	 ecx, ebp
  0025d	c6 40 14 00	 mov	 BYTE PTR [eax+20], 0
  00261	e8 00 00 00 00	 call	 ?_Lrotate@?$_Tree@V?$_Tmap_traits@EHU?$less@E@std@@V?$allocator@U?$pair@$$CBEH@std@@@2@$0A@@std@@@std@@IAEXPAU_Node@?$_Tree_nod@V?$_Tmap_traits@EHU?$less@E@std@@V?$allocator@U?$pair@$$CBEH@std@@@2@$0A@@std@@@2@@Z ; std::_Tree<std::_Tmap_traits<unsigned char,int,std::less<unsigned char>,std::allocator<std::pair<unsigned char const ,int> >,0> >::_Lrotate

; 726  : 							_Pnode = _Left(_Fixnodeparent);

  00266	8b 06		 mov	 eax, DWORD PTR [esi]
$L188160:

; 727  : 							}
; 728  : 
; 729  : 						_Color(_Pnode) = _Color(_Fixnodeparent);

  00268	8a 4e 14	 mov	 cl, BYTE PTR [esi+20]
  0026b	88 48 14	 mov	 BYTE PTR [eax+20], cl

; 730  : 						_Color(_Fixnodeparent) = _Black;

  0026e	88 5e 14	 mov	 BYTE PTR [esi+20], bl

; 731  : 						_Color(_Left(_Pnode)) = _Black;

  00271	8b 10		 mov	 edx, DWORD PTR [eax]

; 732  : 						_Rrotate(_Fixnodeparent);

  00273	56		 push	 esi
  00274	8b cd		 mov	 ecx, ebp
  00276	88 5a 14	 mov	 BYTE PTR [edx+20], bl
  00279	e8 00 00 00 00	 call	 ?_Rrotate@?$_Tree@V?$_Tmap_traits@EHU?$less@E@std@@V?$allocator@U?$pair@$$CBEH@std@@@2@$0A@@std@@@std@@IAEXPAU_Node@?$_Tree_nod@V?$_Tmap_traits@EHU?$less@E@std@@V?$allocator@U?$pair@$$CBEH@std@@@2@$0A@@std@@@2@@Z ; std::_Tree<std::_Tmap_traits<unsigned char,int,std::less<unsigned char>,std::allocator<std::pair<unsigned char const ,int> >,0> >::_Rrotate
$L188146:

; 733  : 						break;	// tree now recolored/rebalanced
; 734  : 						}
; 735  : 					}
; 736  : 
; 737  : 			_Color(_Fixnode) = _Black;	// ensure stopping node is black

  0027e	88 5f 14	 mov	 BYTE PTR [edi+20], bl
$L188143:

; 738  : 			}
; 739  : 
; 740  : 		this->_Alnod.destroy(_Erasednode);	// destroy, free erased node
; 741  : 		this->_Alnod.deallocate(_Erasednode, 1);

  00281	8b 44 24 10	 mov	 eax, DWORD PTR __Erasednode$[esp+100]
  00285	50		 push	 eax
  00286	e8 00 00 00 00	 call	 ??3@YAXPAX@Z		; operator delete

; 742  : 
; 743  : 		if (0 < _Mysize)

  0028b	8b 45 08	 mov	 eax, DWORD PTR [ebp+8]
  0028e	83 c4 04	 add	 esp, 4
  00291	85 c0		 test	 eax, eax
  00293	5f		 pop	 edi
  00294	5b		 pop	 ebx
  00295	76 04		 jbe	 SHORT $L188161

; 744  : 			--_Mysize;

  00297	48		 dec	 eax
  00298	89 45 08	 mov	 DWORD PTR [ebp+8], eax
$L188161:

; 745  : 
; 746  : 		return (_Where);	// return successor iterator

  0029b	8b 4c 24 64	 mov	 ecx, DWORD PTR __Where$[esp+88]
  0029f	8b 44 24 60	 mov	 eax, DWORD PTR ___$ReturnUdt$[esp+88]
  002a3	89 08		 mov	 DWORD PTR [eax], ecx

; 747  : 		}

  002a5	8b 4c 24 50	 mov	 ecx, DWORD PTR __$EHRec$[esp+92]
  002a9	5e		 pop	 esi
  002aa	5d		 pop	 ebp
  002ab	64 89 0d 00 00
	00 00		 mov	 DWORD PTR fs:__except_list, ecx
  002b2	83 c4 54	 add	 esp, 84			; 00000054H
  002b5	c2 08 00	 ret	 8
$L193965:
_TEXT	ENDS
;	COMDAT text$x
text$x	SEGMENT
$L193482:
  00000	8d 4d b0	 lea	 ecx, DWORD PTR $T193477[ebp]
  00003	e9 00 00 00 00	 jmp	 ??1?$basic_string@DU?$char_traits@D@std@@V?$allocator@D@2@@std@@QAE@XZ ; std::basic_string<char,std::char_traits<char>,std::allocator<char> >::~basic_string<char,std::char_traits<char>,std::allocator<char> >
__ehhandler$?erase@?$_Tree@V?$_Tmap_traits@EHU?$less@E@std@@V?$allocator@U?$pair@$$CBEH@std@@@2@$0A@@std@@@std@@QAE?AViterator@12@V312@@Z:
  00008	b8 00 00 00 00	 mov	 eax, OFFSET FLAT:$T193960
  0000d	e9 00 00 00 00	 jmp	 ___CxxFrameHandler
text$x	ENDS
?erase@?$_Tree@V?$_Tmap_traits@EHU?$less@E@std@@V?$allocator@U?$pair@$$CBEH@std@@@2@$0A@@std@@@std@@QAE?AViterator@12@V312@@Z ENDP ; std::_Tree<std::_Tmap_traits<unsigned char,int,std::less<unsigned char>,std::allocator<std::pair<unsigned char const ,int> >,0> >::erase
; Function compile flags: /Ogty
;	COMDAT ??0out_of_range@std@@QAE@ABV01@@Z
_TEXT	SEGMENT
___that$ = 8						; size = 4
??0out_of_range@std@@QAE@ABV01@@Z PROC NEAR		; std::out_of_range::out_of_range, COMDAT
; _this$ = ecx
  00000	8b 44 24 04	 mov	 eax, DWORD PTR ___that$[esp-4]
  00004	56		 push	 esi
  00005	50		 push	 eax
  00006	8b f1		 mov	 esi, ecx
  00008	e8 00 00 00 00	 call	 ??0logic_error@std@@QAE@ABV01@@Z
  0000d	c7 06 00 00 00
	00		 mov	 DWORD PTR [esi], OFFSET FLAT:??_7out_of_range@std@@6B@
  00013	8b c6		 mov	 eax, esi
  00015	5e		 pop	 esi
  00016	c2 04 00	 ret	 4
??0out_of_range@std@@QAE@ABV01@@Z ENDP			; std::out_of_range::out_of_range
_TEXT	ENDS
PUBLIC	??$fill@PAV?$basic_string@DU?$char_traits@D@std@@V?$allocator@D@2@@std@@V12@@std@@YAXPAV?$basic_string@DU?$char_traits@D@std@@V?$allocator@D@2@@0@0ABV10@@Z ; std::fill<std::basic_string<char,std::char_traits<char>,std::allocator<char> > *,std::basic_string<char,std::char_traits<char>,std::allocator<char> > >
; Function compile flags: /Ogty
; File c:\program files\microsoft visual studio .net 2003\vc7\include\xutility
;	COMDAT ??$fill@PAV?$basic_string@DU?$char_traits@D@std@@V?$allocator@D@2@@std@@V12@@std@@YAXPAV?$basic_string@DU?$char_traits@D@std@@V?$allocator@D@2@@0@0ABV10@@Z
_TEXT	SEGMENT
__First$ = 8						; size = 4
__Last$ = 12						; size = 4
__Val$ = 16						; size = 4
??$fill@PAV?$basic_string@DU?$char_traits@D@std@@V?$allocator@D@2@@std@@V12@@std@@YAXPAV?$basic_string@DU?$char_traits@D@std@@V?$allocator@D@2@@0@0ABV10@@Z PROC NEAR ; std::fill<std::basic_string<char,std::char_traits<char>,std::allocator<char> > *,std::basic_string<char,std::char_traits<char>,std::allocator<char> > >, COMDAT

; 1134 : 	{	// copy _Val through [_First, _Last)

  00000	53		 push	 ebx

; 1135 : 	for (; _First != _Last; ++_First)

  00001	8b 5c 24 0c	 mov	 ebx, DWORD PTR __Last$[esp]
  00005	56		 push	 esi
  00006	8b 74 24 0c	 mov	 esi, DWORD PTR __First$[esp+4]
  0000a	3b f3		 cmp	 esi, ebx
  0000c	74 19		 je	 SHORT $L188611
  0000e	57		 push	 edi
  0000f	8b 7c 24 18	 mov	 edi, DWORD PTR __Val$[esp+8]
$L188609:

; 1136 : 		*_First = _Val;

  00013	6a ff		 push	 -1
  00015	6a 00		 push	 0
  00017	57		 push	 edi
  00018	8b ce		 mov	 ecx, esi
  0001a	e8 00 00 00 00	 call	 ?assign@?$basic_string@DU?$char_traits@D@std@@V?$allocator@D@2@@std@@QAEAAV12@ABV12@II@Z ; std::basic_string<char,std::char_traits<char>,std::allocator<char> >::assign
  0001f	83 c6 1c	 add	 esi, 28			; 0000001cH
  00022	3b f3		 cmp	 esi, ebx
  00024	75 ed		 jne	 SHORT $L188609
  00026	5f		 pop	 edi
$L188611:
  00027	5e		 pop	 esi
  00028	5b		 pop	 ebx

; 1137 : 	}

  00029	c3		 ret	 0
??$fill@PAV?$basic_string@DU?$char_traits@D@std@@V?$allocator@D@2@@std@@V12@@std@@YAXPAV?$basic_string@DU?$char_traits@D@std@@V?$allocator@D@2@@0@0ABV10@@Z ENDP ; std::fill<std::basic_string<char,std::char_traits<char>,std::allocator<char> > *,std::basic_string<char,std::char_traits<char>,std::allocator<char> > >
_TEXT	ENDS
PUBLIC	??$copy_backward@PAV?$basic_string@DU?$char_traits@D@std@@V?$allocator@D@2@@std@@PAV12@@std@@YAPAV?$basic_string@DU?$char_traits@D@std@@V?$allocator@D@2@@0@PAV10@00@Z ; std::copy_backward<std::basic_string<char,std::char_traits<char>,std::allocator<char> > *,std::basic_string<char,std::char_traits<char>,std::allocator<char> > *>
; Function compile flags: /Ogty
;	COMDAT ??$copy_backward@PAV?$basic_string@DU?$char_traits@D@std@@V?$allocator@D@2@@std@@PAV12@@std@@YAPAV?$basic_string@DU?$char_traits@D@std@@V?$allocator@D@2@@0@PAV10@00@Z
_TEXT	SEGMENT
__Cat$193991 = -4					; size = 1
__First$ = 8						; size = 4
__Last$ = 12						; size = 4
__Dest$ = 16						; size = 4
??$copy_backward@PAV?$basic_string@DU?$char_traits@D@std@@V?$allocator@D@2@@std@@PAV12@@std@@YAPAV?$basic_string@DU?$char_traits@D@std@@V?$allocator@D@2@@0@PAV10@00@Z PROC NEAR ; std::copy_backward<std::basic_string<char,std::char_traits<char>,std::allocator<char> > *,std::basic_string<char,std::char_traits<char>,std::allocator<char> > *>, COMDAT

; 1067 : 	{	// copy [_First, _Last) backwards to [..., _Dest)

  00000	51		 push	 ecx

; 1068 : 	return (_Copy_backward_opt(_First, _Last, _Dest,
; 1069 : 		_Ptr_cat(_First, _Dest)));

  00001	8b 04 24	 mov	 eax, DWORD PTR __Cat$193991[esp+4]
  00004	8b 4c 24 10	 mov	 ecx, DWORD PTR __Dest$[esp]
  00008	8b 54 24 0c	 mov	 edx, DWORD PTR __Last$[esp]
  0000c	50		 push	 eax
  0000d	8b 44 24 0c	 mov	 eax, DWORD PTR __First$[esp+4]
  00011	51		 push	 ecx
  00012	52		 push	 edx
  00013	50		 push	 eax
  00014	e8 00 00 00 00	 call	 ??$_Copy_backward_opt@PAV?$basic_string@DU?$char_traits@D@std@@V?$allocator@D@2@@std@@PAV12@@std@@YAPAV?$basic_string@DU?$char_traits@D@std@@V?$allocator@D@2@@0@PAV10@00U_Nonscalar_ptr_iterator_tag@0@@Z ; std::_Copy_backward_opt<std::basic_string<char,std::char_traits<char>,std::allocator<char> > *,std::basic_string<char,std::char_traits<char>,std::allocator<char> > *>

; 1070 : 	}

  00019	83 c4 14	 add	 esp, 20			; 00000014H
  0001c	c3		 ret	 0
??$copy_backward@PAV?$basic_string@DU?$char_traits@D@std@@V?$allocator@D@2@@std@@PAV12@@std@@YAPAV?$basic_string@DU?$char_traits@D@std@@V?$allocator@D@2@@0@PAV10@00@Z ENDP ; std::copy_backward<std::basic_string<char,std::char_traits<char>,std::allocator<char> > *,std::basic_string<char,std::char_traits<char>,std::allocator<char> > *>
_TEXT	ENDS
PUBLIC	??$_Destroy_range@V?$basic_string@DU?$char_traits@D@std@@V?$allocator@D@2@@std@@V?$allocator@V?$basic_string@DU?$char_traits@D@std@@V?$allocator@D@2@@std@@@2@@std@@YAXPAV?$basic_string@DU?$char_traits@D@std@@V?$allocator@D@2@@0@0AAV?$allocator@V?$basic_string@DU?$char_traits@D@std@@V?$allocator@D@2@@std@@@0@U_Nonscalar_ptr_iterator_tag@0@@Z ; std::_Destroy_range<std::basic_string<char,std::char_traits<char>,std::allocator<char> >,std::allocator<std::basic_string<char,std::char_traits<char>,std::allocator<char> > > >
; Function compile flags: /Ogty
; File c:\program files\microsoft visual studio .net 2003\vc7\include\xmemory
;	COMDAT ??$_Destroy_range@V?$basic_string@DU?$char_traits@D@std@@V?$allocator@D@2@@std@@V?$allocator@V?$basic_string@DU?$char_traits@D@std@@V?$allocator@D@2@@std@@@2@@std@@YAXPAV?$basic_string@DU?$char_traits@D@std@@V?$allocator@D@2@@0@0AAV?$allocator@V?$basic_string@DU?$char_traits@D@std@@V?$allocator@D@2@@std@@@0@U_Nonscalar_ptr_iterator_tag@0@@Z
_TEXT	SEGMENT
__First$ = 8						; size = 4
__Last$ = 12						; size = 4
__Al$ = 16						; size = 4
___formal$ = 20						; size = 1
??$_Destroy_range@V?$basic_string@DU?$char_traits@D@std@@V?$allocator@D@2@@std@@V?$allocator@V?$basic_string@DU?$char_traits@D@std@@V?$allocator@D@2@@std@@@2@@std@@YAXPAV?$basic_string@DU?$char_traits@D@std@@V?$allocator@D@2@@0@0AAV?$allocator@V?$basic_string@DU?$char_traits@D@std@@V?$allocator@D@2@@std@@@0@U_Nonscalar_ptr_iterator_tag@0@@Z PROC NEAR ; std::_Destroy_range<std::basic_string<char,std::char_traits<char>,std::allocator<char> >,std::allocator<std::basic_string<char,std::char_traits<char>,std::allocator<char> > > >, COMDAT

; 224  : 	{	// destroy [_First, _Last), arbitrary type

  00000	56		 push	 esi

; 225  : 	for (; _First != _Last; ++_First)

  00001	8b 74 24 08	 mov	 esi, DWORD PTR __First$[esp]
  00005	57		 push	 edi
  00006	8b 7c 24 10	 mov	 edi, DWORD PTR __Last$[esp+4]
  0000a	3b f7		 cmp	 esi, edi
  0000c	74 2a		 je	 SHORT $L188791
  0000e	53		 push	 ebx
  0000f	33 db		 xor	 ebx, ebx
$L188789:

; 226  : 		_Al.destroy(_First);

  00011	83 7e 18 10	 cmp	 DWORD PTR [esi+24], 16	; 00000010H
  00015	72 0c		 jb	 SHORT $L194139
  00017	8b 46 04	 mov	 eax, DWORD PTR [esi+4]
  0001a	50		 push	 eax
  0001b	e8 00 00 00 00	 call	 ??3@YAXPAX@Z		; operator delete
  00020	83 c4 04	 add	 esp, 4
$L194139:
  00023	c7 46 18 0f 00
	00 00		 mov	 DWORD PTR [esi+24], 15	; 0000000fH
  0002a	89 5e 14	 mov	 DWORD PTR [esi+20], ebx
  0002d	88 5e 04	 mov	 BYTE PTR [esi+4], bl
  00030	83 c6 1c	 add	 esi, 28			; 0000001cH
  00033	3b f7		 cmp	 esi, edi
  00035	75 da		 jne	 SHORT $L188789
  00037	5b		 pop	 ebx
$L188791:
  00038	5f		 pop	 edi
  00039	5e		 pop	 esi

; 227  : 	}

  0003a	c3		 ret	 0
??$_Destroy_range@V?$basic_string@DU?$char_traits@D@std@@V?$allocator@D@2@@std@@V?$allocator@V?$basic_string@DU?$char_traits@D@std@@V?$allocator@D@2@@std@@@2@@std@@YAXPAV?$basic_string@DU?$char_traits@D@std@@V?$allocator@D@2@@0@0AAV?$allocator@V?$basic_string@DU?$char_traits@D@std@@V?$allocator@D@2@@std@@@0@U_Nonscalar_ptr_iterator_tag@0@@Z ENDP ; std::_Destroy_range<std::basic_string<char,std::char_traits<char>,std::allocator<char> >,std::allocator<std::basic_string<char,std::char_traits<char>,std::allocator<char> > > >
_TEXT	ENDS
PUBLIC	?construct@?$allocator@V?$basic_string@DU?$char_traits@D@std@@V?$allocator@D@2@@std@@@std@@QAEXPAV?$basic_string@DU?$char_traits@D@std@@V?$allocator@D@2@@2@ABV32@@Z ; std::allocator<std::basic_string<char,std::char_traits<char>,std::allocator<char> > >::construct
; Function compile flags: /Ogty
;	COMDAT ?construct@?$allocator@V?$basic_string@DU?$char_traits@D@std@@V?$allocator@D@2@@std@@@std@@QAEXPAV?$basic_string@DU?$char_traits@D@std@@V?$allocator@D@2@@2@ABV32@@Z
_TEXT	SEGMENT
__Ptr$ = 8						; size = 4
__Val$ = 12						; size = 4
?construct@?$allocator@V?$basic_string@DU?$char_traits@D@std@@V?$allocator@D@2@@std@@@std@@QAEXPAV?$basic_string@DU?$char_traits@D@std@@V?$allocator@D@2@@2@ABV32@@Z PROC NEAR ; std::allocator<std::basic_string<char,std::char_traits<char>,std::allocator<char> > >::construct, COMDAT
; _this$ = ecx

; 147  : 		_Construct(_Ptr, _Val);

  00000	8b 44 24 08	 mov	 eax, DWORD PTR __Val$[esp-4]
  00004	8b 4c 24 04	 mov	 ecx, DWORD PTR __Ptr$[esp-4]
  00008	50		 push	 eax
  00009	51		 push	 ecx
  0000a	e8 00 00 00 00	 call	 ??$_Construct@V?$basic_string@DU?$char_traits@D@std@@V?$allocator@D@2@@std@@V12@@std@@YAXPAV?$basic_string@DU?$char_traits@D@std@@V?$allocator@D@2@@0@ABV10@@Z ; std::_Construct<std::basic_string<char,std::char_traits<char>,std::allocator<char> >,std::basic_string<char,std::char_traits<char>,std::allocator<char> > >
  0000f	83 c4 08	 add	 esp, 8

; 148  : 		}

  00012	c2 08 00	 ret	 8
?construct@?$allocator@V?$basic_string@DU?$char_traits@D@std@@V?$allocator@D@2@@std@@@std@@QAEXPAV?$basic_string@DU?$char_traits@D@std@@V?$allocator@D@2@@2@ABV32@@Z ENDP ; std::allocator<std::basic_string<char,std::char_traits<char>,std::allocator<char> > >::construct
_TEXT	ENDS
PUBLIC	??$_Uninit_copy@Vconst_iterator@?$vector@V?$basic_string@DU?$char_traits@D@std@@V?$allocator@D@2@@std@@V?$allocator@V?$basic_string@DU?$char_traits@D@std@@V?$allocator@D@2@@std@@@2@@std@@PAV?$basic_string@DU?$char_traits@D@std@@V?$allocator@D@2@@3@V?$allocator@V?$basic_string@DU?$char_traits@D@std@@V?$allocator@D@2@@std@@@3@@std@@YAPAV?$basic_string@DU?$char_traits@D@std@@V?$allocator@D@2@@0@Vconst_iterator@?$vector@V?$basic_string@DU?$char_traits@D@std@@V?$allocator@D@2@@std@@V?$allocator@V?$basic_string@DU?$char_traits@D@std@@V?$allocator@D@2@@std@@@2@@0@0PAV10@AAV?$allocator@V?$basic_string@DU?$char_traits@D@std@@V?$allocator@D@2@@std@@@0@U_Nonscalar_ptr_iterator_tag@0@@Z ; std::_Uninit_copy<std::vector<std::basic_string<char,std::char_traits<char>,std::allocator<char> >,std::allocator<std::basic_string<char,std::char_traits<char>,std::allocator<char> > > >::const_iterator,std::basic_string<char,std::char_traits<char>,std::allocator<char> > *,std::allocator<std::basic_string<char,std::char_traits<char>,std::allocator<char> > > >
;	COMDAT xdata$x
; File c:\program files\microsoft visual studio .net 2003\vc7\include\iosfwd
xdata$x	SEGMENT
$T194362 DD	0ffffffffH
	DD	00H
	DD	00H
	DD	FLAT:$L194180
	DD	0ffffffffH
	DD	00H
$T194364 DD	00H
	DD	00H
	DD	00H
	DD	FLAT:$L194159
$T194363 DD	00H
	DD	01H
	DD	02H
	DD	01H
	DD	FLAT:$T194364
$T194356 DD	019930520H
	DD	03H
	DD	FLAT:$T194362
	DD	01H
	DD	FLAT:$T194363
	DD	2 DUP(00H)
; Function compile flags: /Ogty
; File c:\program files\microsoft visual studio .net 2003\vc7\include\memory
xdata$x	ENDS
;	COMDAT ??$_Uninit_copy@Vconst_iterator@?$vector@V?$basic_string@DU?$char_traits@D@std@@V?$allocator@D@2@@std@@V?$allocator@V?$basic_string@DU?$char_traits@D@std@@V?$allocator@D@2@@std@@@2@@std@@PAV?$basic_string@DU?$char_traits@D@std@@V?$allocator@D@2@@3@V?$allocator@V?$basic_string@DU?$char_traits@D@std@@V?$allocator@D@2@@std@@@3@@std@@YAPAV?$basic_string@DU?$char_traits@D@std@@V?$allocator@D@2@@0@Vconst_iterator@?$vector@V?$basic_string@DU?$char_traits@D@std@@V?$allocator@D@2@@std@@V?$allocator@V?$basic_string@DU?$char_traits@D@std@@V?$allocator@D@2@@std@@@2@@0@0PAV10@AAV?$allocator@V?$basic_string@DU?$char_traits@D@std@@V?$allocator@D@2@@std@@@0@U_Nonscalar_ptr_iterator_tag@0@@Z
_TEXT	SEGMENT
__Next$ = -20						; size = 4
__$EHRec$ = -16						; size = 16
$T194320 = 8						; size = 4
__First$ = 8						; size = 4
__Last$ = 12						; size = 4
__Dest$ = 16						; size = 4
__Al$ = 20						; size = 4
___formal$ = 24						; size = 1
??$_Uninit_copy@Vconst_iterator@?$vector@V?$basic_string@DU?$char_traits@D@std@@V?$allocator@D@2@@std@@V?$allocator@V?$basic_string@DU?$char_traits@D@std@@V?$allocator@D@2@@std@@@2@@std@@PAV?$basic_string@DU?$char_traits@D@std@@V?$allocator@D@2@@3@V?$allocator@V?$basic_string@DU?$char_traits@D@std@@V?$allocator@D@2@@std@@@3@@std@@YAPAV?$basic_string@DU?$char_traits@D@std@@V?$allocator@D@2@@0@Vconst_iterator@?$vector@V?$basic_string@DU?$char_traits@D@std@@V?$allocator@D@2@@std@@V?$allocator@V?$basic_string@DU?$char_traits@D@std@@V?$allocator@D@2@@std@@@2@@0@0PAV10@AAV?$allocator@V?$basic_string@DU?$char_traits@D@std@@V?$allocator@D@2@@std@@@0@U_Nonscalar_ptr_iterator_tag@0@@Z PROC NEAR ; std::_Uninit_copy<std::vector<std::basic_string<char,std::char_traits<char>,std::allocator<char> >,std::allocator<std::basic_string<char,std::char_traits<char>,std::allocator<char> > > >::const_iterator,std::basic_string<char,std::char_traits<char>,std::allocator<char> > *,std::allocator<std::basic_string<char,std::char_traits<char>,std::allocator<char> > > >, COMDAT

; 77   : 	{	// copy [_First, _Last) to raw _Dest, using _Al, arbitrary type

  00000	55		 push	 ebp
  00001	8b ec		 mov	 ebp, esp
  00003	6a ff		 push	 -1
  00005	68 00 00 00 00	 push	 __ehhandler$??$_Uninit_copy@Vconst_iterator@?$vector@V?$basic_string@DU?$char_traits@D@std@@V?$allocator@D@2@@std@@V?$allocator@V?$basic_string@DU?$char_traits@D@std@@V?$allocator@D@2@@std@@@2@@std@@PAV?$basic_string@DU?$char_traits@D@std@@V?$allocator@D@2@@3@V?$allocator@V?$basic_string@DU?$char_traits@D@std@@V?$allocator@D@2@@std@@@3@@std@@YAPAV?$basic_string@DU?$char_traits@D@std@@V?$allocator@D@2@@0@Vconst_iterator@?$vector@V?$basic_string@DU?$char_traits@D@std@@V?$allocator@D@2@@std@@V?$allocator@V?$basic_string@DU?$char_traits@D@std@@V?$allocator@D@2@@std@@@2@@0@0PAV10@AAV?$allocator@V?$basic_string@DU?$char_traits@D@std@@V?$allocator@D@2@@std@@@0@U_Nonscalar_ptr_iterator_tag@0@@Z
  0000a	64 a1 00 00 00
	00		 mov	 eax, DWORD PTR fs:__except_list
  00010	50		 push	 eax
  00011	64 89 25 00 00
	00 00		 mov	 DWORD PTR fs:__except_list, esp
  00018	83 ec 08	 sub	 esp, 8
  0001b	53		 push	 ebx
  0001c	56		 push	 esi

; 78   : 	_FwdIt _Next = _Dest;

  0001d	8b 75 10	 mov	 esi, DWORD PTR __Dest$[ebp]
  00020	57		 push	 edi

; 79   : 
; 80   : 	_TRY_BEGIN

  00021	8b 7d 08	 mov	 edi, DWORD PTR __First$[ebp]
  00024	33 db		 xor	 ebx, ebx
  00026	89 65 f0	 mov	 DWORD PTR __$EHRec$[ebp], esp
  00029	89 75 ec	 mov	 DWORD PTR __Next$[ebp], esi
  0002c	89 5d fc	 mov	 DWORD PTR __$EHRec$[ebp+12], ebx
  0002f	90		 npad	 1

; 81   : 	for (; _First != _Last; ++_Dest, ++_First)

$L194161:
  00030	3b 7d 0c	 cmp	 edi, DWORD PTR __Last$[ebp]
  00033	74 56		 je	 SHORT $L188902

; 82   : 		_Al.construct(_Dest, *_First);

  00035	89 75 08	 mov	 DWORD PTR $T194320[ebp], esi
  00038	3b f3		 cmp	 esi, ebx
  0003a	c6 45 fc 01	 mov	 BYTE PTR __$EHRec$[ebp+12], 1
  0003e	74 18		 je	 SHORT $L194321
  00040	6a ff		 push	 -1
  00042	53		 push	 ebx
  00043	c7 46 18 0f 00
	00 00		 mov	 DWORD PTR [esi+24], 15	; 0000000fH
  0004a	89 5e 14	 mov	 DWORD PTR [esi+20], ebx
  0004d	57		 push	 edi
  0004e	8b ce		 mov	 ecx, esi
  00050	88 5e 04	 mov	 BYTE PTR [esi+4], bl
  00053	e8 00 00 00 00	 call	 ?assign@?$basic_string@DU?$char_traits@D@std@@V?$allocator@D@2@@std@@QAEAAV12@ABV12@II@Z ; std::basic_string<char,std::char_traits<char>,std::allocator<char> >::assign
$L194321:
  00058	83 c6 1c	 add	 esi, 28			; 0000001cH
  0005b	88 5d fc	 mov	 BYTE PTR __$EHRec$[ebp+12], bl
  0005e	89 75 10	 mov	 DWORD PTR __Dest$[ebp], esi
  00061	83 c7 1c	 add	 edi, 28			; 0000001cH
  00064	eb ca		 jmp	 SHORT $L194161
$L194159:

; 83   : 	_CATCH_ALL
; 84   : 	for (; _Next != _Dest; ++_Next)

  00066	8b 75 ec	 mov	 esi, DWORD PTR __Next$[ebp]
  00069	8b 7d 10	 mov	 edi, DWORD PTR __Dest$[ebp]
  0006c	3b f7		 cmp	 esi, edi
  0006e	74 12		 je	 SHORT $L188905
  00070	8b 5d 14	 mov	 ebx, DWORD PTR __Al$[ebp]
$L188903:

; 85   : 		_Al.destroy(_Next);

  00073	56		 push	 esi
  00074	8b cb		 mov	 ecx, ebx
  00076	e8 00 00 00 00	 call	 ?destroy@?$allocator@V?$basic_string@DU?$char_traits@D@std@@V?$allocator@D@2@@std@@@std@@QAEXPAV?$basic_string@DU?$char_traits@D@std@@V?$allocator@D@2@@2@@Z ; std::allocator<std::basic_string<char,std::char_traits<char>,std::allocator<char> > >::destroy
  0007b	83 c6 1c	 add	 esi, 28			; 0000001cH
  0007e	3b f7		 cmp	 esi, edi
  00080	75 f1		 jne	 SHORT $L188903
$L188905:

; 86   : 	_RERAISE;

  00082	33 db		 xor	 ebx, ebx
  00084	53		 push	 ebx
  00085	53		 push	 ebx
  00086	e8 00 00 00 00	 call	 __CxxThrowException@8
$L188902:

; 87   : 	_CATCH_END
; 88   : 	return (_Dest);
; 89   : 	}

  0008b	8b 4d f4	 mov	 ecx, DWORD PTR __$EHRec$[ebp+4]
  0008e	5f		 pop	 edi
  0008f	8b c6		 mov	 eax, esi
  00091	5e		 pop	 esi
  00092	64 89 0d 00 00
	00 00		 mov	 DWORD PTR fs:__except_list, ecx
  00099	5b		 pop	 ebx
  0009a	8b e5		 mov	 esp, ebp
  0009c	5d		 pop	 ebp
  0009d	c3		 ret	 0
$L194361:
_TEXT	ENDS
;	COMDAT text$x
text$x	SEGMENT
$L194180:
  00000	8b 45 10	 mov	 eax, DWORD PTR __Dest$[ebp]
  00003	50		 push	 eax
  00004	8b 4d 08	 mov	 ecx, DWORD PTR $T194320[ebp]
  00007	51		 push	 ecx
  00008	e8 00 00 00 00	 call	 ??3@YAXPAX0@Z		; operator delete
  0000d	83 c4 08	 add	 esp, 8
  00010	c3		 ret	 0
__ehhandler$??$_Uninit_copy@Vconst_iterator@?$vector@V?$basic_string@DU?$char_traits@D@std@@V?$allocator@D@2@@std@@V?$allocator@V?$basic_string@DU?$char_traits@D@std@@V?$allocator@D@2@@std@@@2@@std@@PAV?$basic_string@DU?$char_traits@D@std@@V?$allocator@D@2@@3@V?$allocator@V?$basic_string@DU?$char_traits@D@std@@V?$allocator@D@2@@std@@@3@@std@@YAPAV?$basic_string@DU?$char_traits@D@std@@V?$allocator@D@2@@0@Vconst_iterator@?$vector@V?$basic_string@DU?$char_traits@D@std@@V?$allocator@D@2@@std@@V?$allocator@V?$basic_string@DU?$char_traits@D@std@@V?$allocator@D@2@@std@@@2@@0@0PAV10@AAV?$allocator@V?$basic_string@DU?$char_traits@D@std@@V?$allocator@D@2@@std@@@0@U_Nonscalar_ptr_iterator_tag@0@@Z:
  00011	b8 00 00 00 00	 mov	 eax, OFFSET FLAT:$T194356
  00016	e9 00 00 00 00	 jmp	 ___CxxFrameHandler
text$x	ENDS
??$_Uninit_copy@Vconst_iterator@?$vector@V?$basic_string@DU?$char_traits@D@std@@V?$allocator@D@2@@std@@V?$allocator@V?$basic_string@DU?$char_traits@D@std@@V?$allocator@D@2@@std@@@2@@std@@PAV?$basic_string@DU?$char_traits@D@std@@V?$allocator@D@2@@3@V?$allocator@V?$basic_string@DU?$char_traits@D@std@@V?$allocator@D@2@@std@@@3@@std@@YAPAV?$basic_string@DU?$char_traits@D@std@@V?$allocator@D@2@@0@Vconst_iterator@?$vector@V?$basic_string@DU?$char_traits@D@std@@V?$allocator@D@2@@std@@V?$allocator@V?$basic_string@DU?$char_traits@D@std@@V?$allocator@D@2@@std@@@2@@0@0PAV10@AAV?$allocator@V?$basic_string@DU?$char_traits@D@std@@V?$allocator@D@2@@std@@@0@U_Nonscalar_ptr_iterator_tag@0@@Z ENDP ; std::_Uninit_copy<std::vector<std::basic_string<char,std::char_traits<char>,std::allocator<char> >,std::allocator<std::basic_string<char,std::char_traits<char>,std::allocator<char> > > >::const_iterator,std::basic_string<char,std::char_traits<char>,std::allocator<char> > *,std::allocator<std::basic_string<char,std::char_traits<char>,std::allocator<char> > > >
PUBLIC	??$_Uninit_copy@PAV?$basic_string@DU?$char_traits@D@std@@V?$allocator@D@2@@std@@PAV12@V?$allocator@V?$basic_string@DU?$char_traits@D@std@@V?$allocator@D@2@@std@@@2@@std@@YAPAV?$basic_string@DU?$char_traits@D@std@@V?$allocator@D@2@@0@PAV10@00AAV?$allocator@V?$basic_string@DU?$char_traits@D@std@@V?$allocator@D@2@@std@@@0@U_Nonscalar_ptr_iterator_tag@0@@Z ; std::_Uninit_copy<std::basic_string<char,std::char_traits<char>,std::allocator<char> > *,std::basic_string<char,std::char_traits<char>,std::allocator<char> > *,std::allocator<std::basic_string<char,std::char_traits<char>,std::allocator<char> > > >
;	COMDAT xdata$x
; File c:\program files\microsoft visual studio .net 2003\vc7\include\iosfwd
xdata$x	SEGMENT
$T194557 DD	0ffffffffH
	DD	00H
	DD	00H
	DD	FLAT:$L194376
	DD	0ffffffffH
	DD	00H
$T194559 DD	00H
	DD	00H
	DD	00H
	DD	FLAT:$L194369
$T194558 DD	00H
	DD	01H
	DD	02H
	DD	01H
	DD	FLAT:$T194559
$T194551 DD	019930520H
	DD	03H
	DD	FLAT:$T194557
	DD	01H
	DD	FLAT:$T194558
	DD	2 DUP(00H)
; Function compile flags: /Ogty
; File c:\program files\microsoft visual studio .net 2003\vc7\include\memory
xdata$x	ENDS
;	COMDAT ??$_Uninit_copy@PAV?$basic_string@DU?$char_traits@D@std@@V?$allocator@D@2@@std@@PAV12@V?$allocator@V?$basic_string@DU?$char_traits@D@std@@V?$allocator@D@2@@std@@@2@@std@@YAPAV?$basic_string@DU?$char_traits@D@std@@V?$allocator@D@2@@0@PAV10@00AAV?$allocator@V?$basic_string@DU?$char_traits@D@std@@V?$allocator@D@2@@std@@@0@U_Nonscalar_ptr_iterator_tag@0@@Z
_TEXT	SEGMENT
__Next$ = -20						; size = 4
__$EHRec$ = -16						; size = 16
$T194516 = 8						; size = 4
__First$ = 8						; size = 4
__Last$ = 12						; size = 4
__Dest$ = 16						; size = 4
__Al$ = 20						; size = 4
___formal$ = 24						; size = 1
??$_Uninit_copy@PAV?$basic_string@DU?$char_traits@D@std@@V?$allocator@D@2@@std@@PAV12@V?$allocator@V?$basic_string@DU?$char_traits@D@std@@V?$allocator@D@2@@std@@@2@@std@@YAPAV?$basic_string@DU?$char_traits@D@std@@V?$allocator@D@2@@0@PAV10@00AAV?$allocator@V?$basic_string@DU?$char_traits@D@std@@V?$allocator@D@2@@std@@@0@U_Nonscalar_ptr_iterator_tag@0@@Z PROC NEAR ; std::_Uninit_copy<std::basic_string<char,std::char_traits<char>,std::allocator<char> > *,std::basic_string<char,std::char_traits<char>,std::allocator<char> > *,std::allocator<std::basic_string<char,std::char_traits<char>,std::allocator<char> > > >, COMDAT

; 77   : 	{	// copy [_First, _Last) to raw _Dest, using _Al, arbitrary type

  00000	55		 push	 ebp
  00001	8b ec		 mov	 ebp, esp
  00003	6a ff		 push	 -1
  00005	68 00 00 00 00	 push	 __ehhandler$??$_Uninit_copy@PAV?$basic_string@DU?$char_traits@D@std@@V?$allocator@D@2@@std@@PAV12@V?$allocator@V?$basic_string@DU?$char_traits@D@std@@V?$allocator@D@2@@std@@@2@@std@@YAPAV?$basic_string@DU?$char_traits@D@std@@V?$allocator@D@2@@0@PAV10@00AAV?$allocator@V?$basic_string@DU?$char_traits@D@std@@V?$allocator@D@2@@std@@@0@U_Nonscalar_ptr_iterator_tag@0@@Z
  0000a	64 a1 00 00 00
	00		 mov	 eax, DWORD PTR fs:__except_list
  00010	50		 push	 eax
  00011	64 89 25 00 00
	00 00		 mov	 DWORD PTR fs:__except_list, esp
  00018	83 ec 08	 sub	 esp, 8
  0001b	53		 push	 ebx
  0001c	56		 push	 esi

; 78   : 	_FwdIt _Next = _Dest;

  0001d	8b 75 10	 mov	 esi, DWORD PTR __Dest$[ebp]
  00020	57		 push	 edi

; 79   : 
; 80   : 	_TRY_BEGIN

  00021	8b 7d 08	 mov	 edi, DWORD PTR __First$[ebp]
  00024	33 db		 xor	 ebx, ebx
  00026	89 65 f0	 mov	 DWORD PTR __$EHRec$[ebp], esp
  00029	89 75 ec	 mov	 DWORD PTR __Next$[ebp], esi
  0002c	89 5d fc	 mov	 DWORD PTR __$EHRec$[ebp+12], ebx
  0002f	90		 npad	 1
$L188924:

; 81   : 	for (; _First != _Last; ++_Dest, ++_First)

  00030	3b 7d 0c	 cmp	 edi, DWORD PTR __Last$[ebp]
  00033	74 56		 je	 SHORT $L188926

; 82   : 		_Al.construct(_Dest, *_First);

  00035	89 75 08	 mov	 DWORD PTR $T194516[ebp], esi
  00038	3b f3		 cmp	 esi, ebx
  0003a	c6 45 fc 01	 mov	 BYTE PTR __$EHRec$[ebp+12], 1
  0003e	74 18		 je	 SHORT $L194517
  00040	6a ff		 push	 -1
  00042	53		 push	 ebx
  00043	c7 46 18 0f 00
	00 00		 mov	 DWORD PTR [esi+24], 15	; 0000000fH
  0004a	89 5e 14	 mov	 DWORD PTR [esi+20], ebx
  0004d	57		 push	 edi
  0004e	8b ce		 mov	 ecx, esi
  00050	88 5e 04	 mov	 BYTE PTR [esi+4], bl
  00053	e8 00 00 00 00	 call	 ?assign@?$basic_string@DU?$char_traits@D@std@@V?$allocator@D@2@@std@@QAEAAV12@ABV12@II@Z ; std::basic_string<char,std::char_traits<char>,std::allocator<char> >::assign
$L194517:
  00058	83 c6 1c	 add	 esi, 28			; 0000001cH
  0005b	88 5d fc	 mov	 BYTE PTR __$EHRec$[ebp+12], bl
  0005e	89 75 10	 mov	 DWORD PTR __Dest$[ebp], esi
  00061	83 c7 1c	 add	 edi, 28			; 0000001cH
  00064	eb ca		 jmp	 SHORT $L188924
$L194369:

; 83   : 	_CATCH_ALL
; 84   : 	for (; _Next != _Dest; ++_Next)

  00066	8b 75 ec	 mov	 esi, DWORD PTR __Next$[ebp]
  00069	8b 7d 10	 mov	 edi, DWORD PTR __Dest$[ebp]
  0006c	3b f7		 cmp	 esi, edi
  0006e	74 12		 je	 SHORT $L188929
  00070	8b 5d 14	 mov	 ebx, DWORD PTR __Al$[ebp]
$L188927:

; 85   : 		_Al.destroy(_Next);

  00073	56		 push	 esi
  00074	8b cb		 mov	 ecx, ebx
  00076	e8 00 00 00 00	 call	 ?destroy@?$allocator@V?$basic_string@DU?$char_traits@D@std@@V?$allocator@D@2@@std@@@std@@QAEXPAV?$basic_string@DU?$char_traits@D@std@@V?$allocator@D@2@@2@@Z ; std::allocator<std::basic_string<char,std::char_traits<char>,std::allocator<char> > >::destroy
  0007b	83 c6 1c	 add	 esi, 28			; 0000001cH
  0007e	3b f7		 cmp	 esi, edi
  00080	75 f1		 jne	 SHORT $L188927
$L188929:

; 86   : 	_RERAISE;

  00082	33 db		 xor	 ebx, ebx
  00084	53		 push	 ebx
  00085	53		 push	 ebx
  00086	e8 00 00 00 00	 call	 __CxxThrowException@8
$L188926:

; 87   : 	_CATCH_END
; 88   : 	return (_Dest);
; 89   : 	}

  0008b	8b 4d f4	 mov	 ecx, DWORD PTR __$EHRec$[ebp+4]
  0008e	5f		 pop	 edi
  0008f	8b c6		 mov	 eax, esi
  00091	5e		 pop	 esi
  00092	64 89 0d 00 00
	00 00		 mov	 DWORD PTR fs:__except_list, ecx
  00099	5b		 pop	 ebx
  0009a	8b e5		 mov	 esp, ebp
  0009c	5d		 pop	 ebp
  0009d	c3		 ret	 0
$L194556:
_TEXT	ENDS
;	COMDAT text$x
text$x	SEGMENT
$L194376:
  00000	8b 45 10	 mov	 eax, DWORD PTR __Dest$[ebp]
  00003	50		 push	 eax
  00004	8b 4d 08	 mov	 ecx, DWORD PTR $T194516[ebp]
  00007	51		 push	 ecx
  00008	e8 00 00 00 00	 call	 ??3@YAXPAX0@Z		; operator delete
  0000d	83 c4 08	 add	 esp, 8
  00010	c3		 ret	 0
__ehhandler$??$_Uninit_copy@PAV?$basic_string@DU?$char_traits@D@std@@V?$allocator@D@2@@std@@PAV12@V?$allocator@V?$basic_string@DU?$char_traits@D@std@@V?$allocator@D@2@@std@@@2@@std@@YAPAV?$basic_string@DU?$char_traits@D@std@@V?$allocator@D@2@@0@PAV10@00AAV?$allocator@V?$basic_string@DU?$char_traits@D@std@@V?$allocator@D@2@@std@@@0@U_Nonscalar_ptr_iterator_tag@0@@Z:
  00011	b8 00 00 00 00	 mov	 eax, OFFSET FLAT:$T194551
  00016	e9 00 00 00 00	 jmp	 ___CxxFrameHandler
text$x	ENDS
??$_Uninit_copy@PAV?$basic_string@DU?$char_traits@D@std@@V?$allocator@D@2@@std@@PAV12@V?$allocator@V?$basic_string@DU?$char_traits@D@std@@V?$allocator@D@2@@std@@@2@@std@@YAPAV?$basic_string@DU?$char_traits@D@std@@V?$allocator@D@2@@0@PAV10@00AAV?$allocator@V?$basic_string@DU?$char_traits@D@std@@V?$allocator@D@2@@std@@@0@U_Nonscalar_ptr_iterator_tag@0@@Z ENDP ; std::_Uninit_copy<std::basic_string<char,std::char_traits<char>,std::allocator<char> > *,std::basic_string<char,std::char_traits<char>,std::allocator<char> > *,std::allocator<std::basic_string<char,std::char_traits<char>,std::allocator<char> > > >
PUBLIC	?insert@?$_Tree@V?$_Tmap_traits@EHU?$less@E@std@@V?$allocator@U?$pair@$$CBEH@std@@@2@$0A@@std@@@std@@QAE?AU?$pair@Viterator@?$_Tree@V?$_Tmap_traits@EHU?$less@E@std@@V?$allocator@U?$pair@$$CBEH@std@@@2@$0A@@std@@@std@@_N@2@ABU?$pair@$$CBEH@2@@Z ; std::_Tree<std::_Tmap_traits<unsigned char,int,std::less<unsigned char>,std::allocator<std::pair<unsigned char const ,int> >,0> >::insert
; Function compile flags: /Ogty
; File c:\program files\microsoft visual studio .net 2003\vc7\include\xtree
;	COMDAT ?insert@?$_Tree@V?$_Tmap_traits@EHU?$less@E@std@@V?$allocator@U?$pair@$$CBEH@std@@@2@$0A@@std@@@std@@QAE?AU?$pair@Viterator@?$_Tree@V?$_Tmap_traits@EHU?$less@E@std@@V?$allocator@U?$pair@$$CBEH@std@@@2@$0A@@std@@@std@@_N@2@ABU?$pair@$$CBEH@2@@Z
_TEXT	SEGMENT
__Addleft$ = -4						; size = 1
___$ReturnUdt$ = 8					; size = 4
$T194571 = 12						; size = 4
$T194569 = 12						; size = 4
__Where$187361 = 12					; size = 4
__Val$ = 12						; size = 4
?insert@?$_Tree@V?$_Tmap_traits@EHU?$less@E@std@@V?$allocator@U?$pair@$$CBEH@std@@@2@$0A@@std@@@std@@QAE?AU?$pair@Viterator@?$_Tree@V?$_Tmap_traits@EHU?$less@E@std@@V?$allocator@U?$pair@$$CBEH@std@@@2@$0A@@std@@@std@@_N@2@ABU?$pair@$$CBEH@2@@Z PROC NEAR ; std::_Tree<std::_Tmap_traits<unsigned char,int,std::less<unsigned char>,std::allocator<std::pair<unsigned char const ,int> >,0> >::insert, COMDAT
; _this$ = ecx

; 477  : 		{	// try to insert node with value _Val

  00000	51		 push	 ecx
  00001	55		 push	 ebp

; 478  : 		_Nodeptr _Trynode = _Root();
; 479  : 		_Nodeptr _Wherenode = _Myhead;
; 480  : 		bool _Addleft = true;	// add to left of head if tree empty
; 481  : 		while (!_Isnil(_Trynode))

  00002	8b 6c 24 10	 mov	 ebp, DWORD PTR __Val$[esp+4]
  00006	56		 push	 esi
  00007	57		 push	 edi
  00008	8b f9		 mov	 edi, ecx
  0000a	8b 77 04	 mov	 esi, DWORD PTR [edi+4]
  0000d	8b 46 04	 mov	 eax, DWORD PTR [esi+4]
  00010	8a 50 15	 mov	 dl, BYTE PTR [eax+21]
  00013	84 d2		 test	 dl, dl
  00015	b1 01		 mov	 cl, 1
  00017	88 4c 24 0c	 mov	 BYTE PTR __Addleft$[esp+16], cl
  0001b	75 20		 jne	 SHORT $L187350
  0001d	8a 55 00	 mov	 dl, BYTE PTR [ebp]
$L187349:

; 482  : 			{	// look for leaf to insert before (_Addleft) or after
; 483  : 			_Wherenode = _Trynode;
; 484  : 			_Addleft = this->comp(this->_Kfn(_Val), _Key(_Trynode));

  00020	3a 50 0c	 cmp	 dl, BYTE PTR [eax+12]
  00023	0f 92 c1	 setb	 cl

; 485  : 			_Trynode = _Addleft ? _Left(_Trynode) : _Right(_Trynode);

  00026	84 c9		 test	 cl, cl
  00028	8b f0		 mov	 esi, eax
  0002a	88 4c 24 0c	 mov	 BYTE PTR __Addleft$[esp+16], cl
  0002e	74 04		 je	 SHORT $L194563
  00030	8b 00		 mov	 eax, DWORD PTR [eax]
  00032	eb 03		 jmp	 SHORT $L194564
$L194563:
  00034	8b 40 08	 mov	 eax, DWORD PTR [eax+8]
$L194564:

; 478  : 		_Nodeptr _Trynode = _Root();
; 479  : 		_Nodeptr _Wherenode = _Myhead;
; 480  : 		bool _Addleft = true;	// add to left of head if tree empty
; 481  : 		while (!_Isnil(_Trynode))

  00037	80 78 15 00	 cmp	 BYTE PTR [eax+21], 0
  0003b	74 e3		 je	 SHORT $L187349
$L187350:

; 486  : 			}
; 487  : 
; 488  : 		if (this->_Multi)
; 489  : 			return (_Pairib(_Insert(_Addleft, _Wherenode, _Val), true));
; 490  : 		else
; 491  : 			{	// insert only if unique
; 492  : 			iterator _Where = _TREE_ITERATOR(_Wherenode);
; 493  : 			if (!_Addleft)

  0003d	84 c9		 test	 cl, cl
  0003f	8b d6		 mov	 edx, esi
  00041	89 54 24 18	 mov	 DWORD PTR __Where$187361[esp+12], edx
  00045	74 33		 je	 SHORT $L194663

; 494  : 				;	// need to test if insert after is okay
; 495  : 			else if (_Where == begin())

  00047	8b 47 04	 mov	 eax, DWORD PTR [edi+4]
  0004a	3b 30		 cmp	 esi, DWORD PTR [eax]

; 496  : 				return (_Pairib(_Insert(true, _Wherenode, _Val), true));

  0004c	8d 4c 24 18	 lea	 ecx, DWORD PTR $T194569[esp+12]
  00050	75 1f		 jne	 SHORT $L187366
  00052	55		 push	 ebp
  00053	56		 push	 esi
  00054	6a 01		 push	 1
  00056	51		 push	 ecx
  00057	8b cf		 mov	 ecx, edi
  00059	e8 00 00 00 00	 call	 ?_Insert@?$_Tree@V?$_Tmap_traits@EHU?$less@E@std@@V?$allocator@U?$pair@$$CBEH@std@@@2@$0A@@std@@@std@@IAE?AViterator@12@_NPAU_Node@?$_Tree_nod@V?$_Tmap_traits@EHU?$less@E@std@@V?$allocator@U?$pair@$$CBEH@std@@@2@$0A@@std@@@2@ABU?$pair@$$CBEH@2@@Z ; std::_Tree<std::_Tmap_traits<unsigned char,int,std::less<unsigned char>,std::allocator<std::pair<unsigned char const ,int> >,0> >::_Insert
  0005e	8b 10		 mov	 edx, DWORD PTR [eax]
  00060	8b 44 24 14	 mov	 eax, DWORD PTR ___$ReturnUdt$[esp+12]
  00064	5f		 pop	 edi
  00065	5e		 pop	 esi
  00066	c6 40 04 01	 mov	 BYTE PTR [eax+4], 1

; 502  : 			else
; 503  : 				return (_Pairib(_Where, false));

  0006a	89 10		 mov	 DWORD PTR [eax], edx
  0006c	5d		 pop	 ebp

; 504  : 			}
; 505  : 		}

  0006d	59		 pop	 ecx
  0006e	c2 08 00	 ret	 8
$L187366:

; 497  : 			else
; 498  : 				--_Where;	// need to test if insert before is okay

  00071	e8 00 00 00 00	 call	 ?_Dec@const_iterator@?$_Tree@V?$_Tmap_traits@EHU?$less@E@std@@V?$allocator@U?$pair@$$CBEH@std@@@2@$0A@@std@@@std@@QAEXXZ ; std::_Tree<std::_Tmap_traits<unsigned char,int,std::less<unsigned char>,std::allocator<std::pair<unsigned char const ,int> >,0> >::const_iterator::_Dec
  00076	8b 54 24 18	 mov	 edx, DWORD PTR __Where$187361[esp+12]
$L194663:

; 499  : 
; 500  : 			if (this->comp(_Key(_Where._Mynode()), this->_Kfn(_Val)))

  0007a	8a 42 0c	 mov	 al, BYTE PTR [edx+12]
  0007d	3a 45 00	 cmp	 al, BYTE PTR [ebp]
  00080	73 26		 jae	 SHORT $L187371

; 501  : 				return (_Pairib(_Insert(_Addleft, _Wherenode, _Val), true));

  00082	8b 4c 24 0c	 mov	 ecx, DWORD PTR __Addleft$[esp+16]
  00086	55		 push	 ebp
  00087	56		 push	 esi
  00088	51		 push	 ecx
  00089	8d 54 24 24	 lea	 edx, DWORD PTR $T194571[esp+24]
  0008d	52		 push	 edx
  0008e	8b cf		 mov	 ecx, edi
  00090	e8 00 00 00 00	 call	 ?_Insert@?$_Tree@V?$_Tmap_traits@EHU?$less@E@std@@V?$allocator@U?$pair@$$CBEH@std@@@2@$0A@@std@@@std@@IAE?AViterator@12@_NPAU_Node@?$_Tree_nod@V?$_Tmap_traits@EHU?$less@E@std@@V?$allocator@U?$pair@$$CBEH@std@@@2@$0A@@std@@@2@ABU?$pair@$$CBEH@2@@Z ; std::_Tree<std::_Tmap_traits<unsigned char,int,std::less<unsigned char>,std::allocator<std::pair<unsigned char const ,int> >,0> >::_Insert
  00095	8b 08		 mov	 ecx, DWORD PTR [eax]
  00097	8b 44 24 14	 mov	 eax, DWORD PTR ___$ReturnUdt$[esp+12]
  0009b	5f		 pop	 edi
  0009c	5e		 pop	 esi
  0009d	89 08		 mov	 DWORD PTR [eax], ecx
  0009f	c6 40 04 01	 mov	 BYTE PTR [eax+4], 1
  000a3	5d		 pop	 ebp

; 504  : 			}
; 505  : 		}

  000a4	59		 pop	 ecx
  000a5	c2 08 00	 ret	 8
$L187371:

; 502  : 			else
; 503  : 				return (_Pairib(_Where, false));

  000a8	8b 44 24 14	 mov	 eax, DWORD PTR ___$ReturnUdt$[esp+12]
  000ac	5f		 pop	 edi
  000ad	5e		 pop	 esi
  000ae	c6 40 04 00	 mov	 BYTE PTR [eax+4], 0
  000b2	89 10		 mov	 DWORD PTR [eax], edx
  000b4	5d		 pop	 ebp

; 504  : 			}
; 505  : 		}

  000b5	59		 pop	 ecx
  000b6	c2 08 00	 ret	 8
?insert@?$_Tree@V?$_Tmap_traits@EHU?$less@E@std@@V?$allocator@U?$pair@$$CBEH@std@@@2@$0A@@std@@@std@@QAE?AU?$pair@Viterator@?$_Tree@V?$_Tmap_traits@EHU?$less@E@std@@V?$allocator@U?$pair@$$CBEH@std@@@2@$0A@@std@@@std@@_N@2@ABU?$pair@$$CBEH@2@@Z ENDP ; std::_Tree<std::_Tmap_traits<unsigned char,int,std::less<unsigned char>,std::allocator<std::pair<unsigned char const ,int> >,0> >::insert
_TEXT	ENDS
PUBLIC	?_Buy@?$vector@V?$basic_string@DU?$char_traits@D@std@@V?$allocator@D@2@@std@@V?$allocator@V?$basic_string@DU?$char_traits@D@std@@V?$allocator@D@2@@std@@@2@@std@@IAE_NI@Z ; std::vector<std::basic_string<char,std::char_traits<char>,std::allocator<char> >,std::allocator<std::basic_string<char,std::char_traits<char>,std::allocator<char> > > >::_Buy
; Function compile flags: /Ogty
; File c:\program files\microsoft visual studio .net 2003\vc7\include\vector
;	COMDAT ?_Buy@?$vector@V?$basic_string@DU?$char_traits@D@std@@V?$allocator@D@2@@std@@V?$allocator@V?$basic_string@DU?$char_traits@D@std@@V?$allocator@D@2@@std@@@2@@std@@IAE_NI@Z
_TEXT	SEGMENT
__Capacity$ = 8						; size = 4
?_Buy@?$vector@V?$basic_string@DU?$char_traits@D@std@@V?$allocator@D@2@@std@@V?$allocator@V?$basic_string@DU?$char_traits@D@std@@V?$allocator@D@2@@std@@@2@@std@@IAE_NI@Z PROC NEAR ; std::vector<std::basic_string<char,std::char_traits<char>,std::allocator<char> >,std::allocator<std::basic_string<char,std::char_traits<char>,std::allocator<char> > > >::_Buy, COMDAT
; _this$ = ecx

; 770  : 		{	// allocate array with _Capacity elements

  00000	56		 push	 esi

; 771  : 		_Myfirst = 0, _Mylast = 0, _Myend = 0;

  00001	33 c0		 xor	 eax, eax
  00003	57		 push	 edi

; 772  : 		if (_Capacity == 0)

  00004	8b 7c 24 0c	 mov	 edi, DWORD PTR __Capacity$[esp+4]
  00008	3b f8		 cmp	 edi, eax
  0000a	8b f1		 mov	 esi, ecx
  0000c	89 46 04	 mov	 DWORD PTR [esi+4], eax
  0000f	89 46 08	 mov	 DWORD PTR [esi+8], eax
  00012	89 46 0c	 mov	 DWORD PTR [esi+12], eax
  00015	75 07		 jne	 SHORT $L187791
  00017	5f		 pop	 edi

; 773  : 			return (false);

  00018	32 c0		 xor	 al, al
  0001a	5e		 pop	 esi

; 783  : 		}

  0001b	c2 04 00	 ret	 4
$L187791:

; 774  : 		else if (max_size() < _Capacity)

  0001e	81 ff 49 92 24
	09		 cmp	 edi, 153391689		; 09249249H
  00024	76 07		 jbe	 SHORT $L187793

; 775  : 			_Xlen();	// result too long

  00026	8b ce		 mov	 ecx, esi
  00028	e8 00 00 00 00	 call	 ?_Xlen@?$vector@V?$basic_string@DU?$char_traits@D@std@@V?$allocator@D@2@@std@@V?$allocator@V?$basic_string@DU?$char_traits@D@std@@V?$allocator@D@2@@std@@@2@@std@@IBEXXZ ; std::vector<std::basic_string<char,std::char_traits<char>,std::allocator<char> >,std::allocator<std::basic_string<char,std::char_traits<char>,std::allocator<char> > > >::_Xlen
$L187793:

; 776  : 		else
; 777  : 			{	// nonempty array, allocate storage
; 778  : 			_Myfirst = this->_Alval.allocate(_Capacity);

  0002d	6b ff 1c	 imul	 edi, 28			; 0000001cH
  00030	57		 push	 edi
  00031	e8 00 00 00 00	 call	 ??2@YAPAXI@Z		; operator new

; 779  : 			_Mylast = _Myfirst;
; 780  : 			_Myend = _Myfirst + _Capacity;

  00036	03 f8		 add	 edi, eax
  00038	83 c4 04	 add	 esp, 4
  0003b	89 7e 0c	 mov	 DWORD PTR [esi+12], edi
  0003e	89 46 04	 mov	 DWORD PTR [esi+4], eax
  00041	89 46 08	 mov	 DWORD PTR [esi+8], eax
  00044	5f		 pop	 edi

; 781  : 			}
; 782  : 		return (true);

  00045	b0 01		 mov	 al, 1
  00047	5e		 pop	 esi

; 783  : 		}

  00048	c2 04 00	 ret	 4
$L194723:
?_Buy@?$vector@V?$basic_string@DU?$char_traits@D@std@@V?$allocator@D@2@@std@@V?$allocator@V?$basic_string@DU?$char_traits@D@std@@V?$allocator@D@2@@std@@@2@@std@@IAE_NI@Z ENDP ; std::vector<std::basic_string<char,std::char_traits<char>,std::allocator<char> >,std::allocator<std::basic_string<char,std::char_traits<char>,std::allocator<char> > > >::_Buy
_TEXT	ENDS
PUBLIC	?_Buy@?$vector@EV?$allocator@E@std@@@std@@IAE_NI@Z ; std::vector<unsigned char,std::allocator<unsigned char> >::_Buy
; Function compile flags: /Ogty
;	COMDAT ?_Buy@?$vector@EV?$allocator@E@std@@@std@@IAE_NI@Z
_TEXT	SEGMENT
__Capacity$ = 8						; size = 4
?_Buy@?$vector@EV?$allocator@E@std@@@std@@IAE_NI@Z PROC NEAR ; std::vector<unsigned char,std::allocator<unsigned char> >::_Buy, COMDAT
; _this$ = ecx

; 770  : 		{	// allocate array with _Capacity elements

  00000	56		 push	 esi

; 771  : 		_Myfirst = 0, _Mylast = 0, _Myend = 0;

  00001	33 c0		 xor	 eax, eax
  00003	57		 push	 edi

; 772  : 		if (_Capacity == 0)

  00004	8b 7c 24 0c	 mov	 edi, DWORD PTR __Capacity$[esp+4]
  00008	3b f8		 cmp	 edi, eax
  0000a	8b f1		 mov	 esi, ecx
  0000c	89 46 04	 mov	 DWORD PTR [esi+4], eax
  0000f	89 46 08	 mov	 DWORD PTR [esi+8], eax
  00012	89 46 0c	 mov	 DWORD PTR [esi+12], eax
  00015	75 07		 jne	 SHORT $L187849
  00017	5f		 pop	 edi

; 773  : 			return (false);

  00018	32 c0		 xor	 al, al
  0001a	5e		 pop	 esi

; 783  : 		}

  0001b	c2 04 00	 ret	 4
$L187849:

; 774  : 		else if (max_size() < _Capacity)

  0001e	83 ff ff	 cmp	 edi, -1
  00021	76 07		 jbe	 SHORT $L187851

; 775  : 			_Xlen();	// result too long

  00023	8b ce		 mov	 ecx, esi
  00025	e8 00 00 00 00	 call	 ?_Xlen@?$vector@EV?$allocator@E@std@@@std@@IBEXXZ ; std::vector<unsigned char,std::allocator<unsigned char> >::_Xlen
$L187851:

; 776  : 		else
; 777  : 			{	// nonempty array, allocate storage
; 778  : 			_Myfirst = this->_Alval.allocate(_Capacity);

  0002a	57		 push	 edi
  0002b	e8 00 00 00 00	 call	 ??2@YAPAXI@Z		; operator new
  00030	89 46 04	 mov	 DWORD PTR [esi+4], eax

; 779  : 			_Mylast = _Myfirst;

  00033	89 46 08	 mov	 DWORD PTR [esi+8], eax
  00036	83 c4 04	 add	 esp, 4

; 780  : 			_Myend = _Myfirst + _Capacity;

  00039	03 c7		 add	 eax, edi
  0003b	89 46 0c	 mov	 DWORD PTR [esi+12], eax
  0003e	5f		 pop	 edi

; 781  : 			}
; 782  : 		return (true);

  0003f	b0 01		 mov	 al, 1
  00041	5e		 pop	 esi

; 783  : 		}

  00042	c2 04 00	 ret	 4
$L194750:
?_Buy@?$vector@EV?$allocator@E@std@@@std@@IAE_NI@Z ENDP	; std::vector<unsigned char,std::allocator<unsigned char> >::_Buy
_TEXT	ENDS
PUBLIC	?erase@?$_Tree@V?$_Tmap_traits@EHU?$less@E@std@@V?$allocator@U?$pair@$$CBEH@std@@@2@$0A@@std@@@std@@QAE?AViterator@12@V312@0@Z ; std::_Tree<std::_Tmap_traits<unsigned char,int,std::less<unsigned char>,std::allocator<std::pair<unsigned char const ,int> >,0> >::erase
; Function compile flags: /Ogty
; File c:\program files\microsoft visual studio .net 2003\vc7\include\xtree
;	COMDAT ?erase@?$_Tree@V?$_Tmap_traits@EHU?$less@E@std@@V?$allocator@U?$pair@$$CBEH@std@@@2@$0A@@std@@@std@@QAE?AViterator@12@V312@0@Z
_TEXT	SEGMENT
___$ReturnUdt$ = 8					; size = 4
$T194756 = 12						; size = 4
__First$ = 12						; size = 4
__Last$ = 16						; size = 4
?erase@?$_Tree@V?$_Tmap_traits@EHU?$less@E@std@@V?$allocator@U?$pair@$$CBEH@std@@@2@$0A@@std@@@std@@QAE?AViterator@12@V312@0@Z PROC NEAR ; std::_Tree<std::_Tmap_traits<unsigned char,int,std::less<unsigned char>,std::allocator<std::pair<unsigned char const ,int> >,0> >::erase, COMDAT
; _this$ = ecx

; 750  : 		{	// erase [_First, _Last)

  00000	53		 push	 ebx

; 751  : 		if (_First == begin() && _Last == end())

  00001	8b 5c 24 10	 mov	 ebx, DWORD PTR __Last$[esp]
  00005	56		 push	 esi
  00006	8b 74 24 10	 mov	 esi, DWORD PTR __First$[esp+4]
  0000a	57		 push	 edi
  0000b	8b f9		 mov	 edi, ecx
  0000d	8b 47 04	 mov	 eax, DWORD PTR [edi+4]
  00010	3b 30		 cmp	 esi, DWORD PTR [eax]
  00012	75 38		 jne	 SHORT $L195088
  00014	3b d8		 cmp	 ebx, eax
  00016	75 34		 jne	 SHORT $L195088

; 752  : 			{	// erase all
; 753  : 			clear();

  00018	8b 40 04	 mov	 eax, DWORD PTR [eax+4]
  0001b	50		 push	 eax
  0001c	8b cf		 mov	 ecx, edi
  0001e	e8 00 00 00 00	 call	 ?_Erase@?$_Tree@V?$_Tmap_traits@EHU?$less@E@std@@V?$allocator@U?$pair@$$CBEH@std@@@2@$0A@@std@@@std@@IAEXPAU_Node@?$_Tree_nod@V?$_Tmap_traits@EHU?$less@E@std@@V?$allocator@U?$pair@$$CBEH@std@@@2@$0A@@std@@@2@@Z ; std::_Tree<std::_Tmap_traits<unsigned char,int,std::less<unsigned char>,std::allocator<std::pair<unsigned char const ,int> >,0> >::_Erase
  00023	8b 47 04	 mov	 eax, DWORD PTR [edi+4]
  00026	89 40 04	 mov	 DWORD PTR [eax+4], eax
  00029	8b 47 04	 mov	 eax, DWORD PTR [edi+4]
  0002c	c7 47 08 00 00
	00 00		 mov	 DWORD PTR [edi+8], 0
  00033	89 00		 mov	 DWORD PTR [eax], eax
  00035	8b 47 04	 mov	 eax, DWORD PTR [edi+4]
  00038	89 40 08	 mov	 DWORD PTR [eax+8], eax

; 754  : 			return (begin());

  0003b	8b 4f 04	 mov	 ecx, DWORD PTR [edi+4]
  0003e	8b 11		 mov	 edx, DWORD PTR [ecx]
  00040	8b 44 24 10	 mov	 eax, DWORD PTR ___$ReturnUdt$[esp+8]
  00044	5f		 pop	 edi
  00045	5e		 pop	 esi
  00046	89 10		 mov	 DWORD PTR [eax], edx
  00048	5b		 pop	 ebx

; 761  : 			}
; 762  : 		}

  00049	c2 0c 00	 ret	 12			; 0000000cH
$L195088:

; 755  : 			}
; 756  : 		else
; 757  : 			{	// partial erase, one at a time
; 758  : 			while (_First != _Last)

  0004c	3b f3		 cmp	 esi, ebx
  0004e	74 5b		 je	 SHORT $L187902
$L187901:

; 759  : 				erase(_First++);

  00050	8a 46 15	 mov	 al, BYTE PTR [esi+21]
  00053	84 c0		 test	 al, al
  00055	8b ce		 mov	 ecx, esi
  00057	75 41		 jne	 SHORT $L195080
  00059	8b 46 08	 mov	 eax, DWORD PTR [esi+8]
  0005c	8a 50 15	 mov	 dl, BYTE PTR [eax+21]
  0005f	84 d2		 test	 dl, dl
  00061	75 1a		 jne	 SHORT $L195090
  00063	8b f0		 mov	 esi, eax
  00065	8b 06		 mov	 eax, DWORD PTR [esi]
  00067	8a 50 15	 mov	 dl, BYTE PTR [eax+21]
  0006a	84 d2		 test	 dl, dl
  0006c	75 2c		 jne	 SHORT $L195080
  0006e	8b ff		 npad	 2
$L195068:
  00070	8b f0		 mov	 esi, eax
  00072	8b 06		 mov	 eax, DWORD PTR [esi]
  00074	8a 50 15	 mov	 dl, BYTE PTR [eax+21]
  00077	84 d2		 test	 dl, dl
  00079	74 f5		 je	 SHORT $L195068
  0007b	eb 1d		 jmp	 SHORT $L195080
$L195090:
  0007d	8b 46 04	 mov	 eax, DWORD PTR [esi+4]
  00080	8a 50 15	 mov	 dl, BYTE PTR [eax+21]
  00083	84 d2		 test	 dl, dl
  00085	75 11		 jne	 SHORT $L195083
$L195082:
  00087	3b 70 08	 cmp	 esi, DWORD PTR [eax+8]
  0008a	75 0c		 jne	 SHORT $L195083
  0008c	8b f0		 mov	 esi, eax
  0008e	8b 40 04	 mov	 eax, DWORD PTR [eax+4]
  00091	8a 50 15	 mov	 dl, BYTE PTR [eax+21]
  00094	84 d2		 test	 dl, dl
  00096	74 ef		 je	 SHORT $L195082
$L195083:
  00098	8b f0		 mov	 esi, eax
$L195080:
  0009a	51		 push	 ecx
  0009b	8d 44 24 18	 lea	 eax, DWORD PTR $T194756[esp+12]
  0009f	50		 push	 eax
  000a0	8b cf		 mov	 ecx, edi
  000a2	e8 00 00 00 00	 call	 ?erase@?$_Tree@V?$_Tmap_traits@EHU?$less@E@std@@V?$allocator@U?$pair@$$CBEH@std@@@2@$0A@@std@@@std@@QAE?AViterator@12@V312@@Z ; std::_Tree<std::_Tmap_traits<unsigned char,int,std::less<unsigned char>,std::allocator<std::pair<unsigned char const ,int> >,0> >::erase
  000a7	3b f3		 cmp	 esi, ebx
  000a9	75 a5		 jne	 SHORT $L187901
$L187902:

; 760  : 			return (_First);

  000ab	8b 44 24 10	 mov	 eax, DWORD PTR ___$ReturnUdt$[esp+8]
  000af	5f		 pop	 edi
  000b0	89 30		 mov	 DWORD PTR [eax], esi
  000b2	5e		 pop	 esi
  000b3	5b		 pop	 ebx

; 761  : 			}
; 762  : 		}

  000b4	c2 0c 00	 ret	 12			; 0000000cH
?erase@?$_Tree@V?$_Tmap_traits@EHU?$less@E@std@@V?$allocator@U?$pair@$$CBEH@std@@@2@$0A@@std@@@std@@QAE?AViterator@12@V312@0@Z ENDP ; std::_Tree<std::_Tmap_traits<unsigned char,int,std::less<unsigned char>,std::allocator<std::pair<unsigned char const ,int> >,0> >::erase
_TEXT	ENDS
PUBLIC	?_Insert_n@?$vector@EV?$allocator@E@std@@@std@@IAEXViterator@12@IABE@Z ; std::vector<unsigned char,std::allocator<unsigned char> >::_Insert_n
; Function compile flags: /Ogty
; File c:\program files\microsoft visual studio .net 2003\vc7\include\vector
;	COMDAT ?_Insert_n@?$vector@EV?$allocator@E@std@@@std@@IAEXViterator@12@IABE@Z
_TEXT	SEGMENT
__Capacity$ = -4					; size = 4
__Count$195317 = 8					; size = 4
__Where$ = 8						; size = 4
__Newvec$188049 = 12					; size = 4
__Count$ = 12						; size = 4
__Tmp$ = 16						; size = 1
__Val$ = 16						; size = 4
?_Insert_n@?$vector@EV?$allocator@E@std@@@std@@IAEXViterator@12@IABE@Z PROC NEAR ; std::vector<unsigned char,std::allocator<unsigned char> >::_Insert_n, COMDAT
; _this$ = ecx

; 809  : 		{	// insert _Count * _Val at _Where

  00000	51		 push	 ecx

; 810  : 		_Ty _Tmp = _Val;	// in case _Val is in sequence

  00001	8b 44 24 10	 mov	 eax, DWORD PTR __Val$[esp]
  00005	56		 push	 esi
  00006	8b f1		 mov	 esi, ecx
  00008	8a 08		 mov	 cl, BYTE PTR [eax]

; 811  : 		size_type _Capacity = capacity();

  0000a	8b 46 04	 mov	 eax, DWORD PTR [esi+4]
  0000d	85 c0		 test	 eax, eax
  0000f	57		 push	 edi
  00010	88 4c 24 18	 mov	 BYTE PTR __Tmp$[esp+8], cl
  00014	75 04		 jne	 SHORT $L195107
  00016	33 c9		 xor	 ecx, ecx
  00018	eb 09		 jmp	 SHORT $L195108
$L195107:
  0001a	8b 4e 0c	 mov	 ecx, DWORD PTR [esi+12]
  0001d	2b c8		 sub	 ecx, eax
  0001f	89 4c 24 08	 mov	 DWORD PTR __Capacity$[esp+12], ecx
$L195108:

; 812  : 
; 813  : 		if (_Count == 0)

  00023	8b 7c 24 14	 mov	 edi, DWORD PTR __Count$[esp+8]
  00027	85 ff		 test	 edi, edi
  00029	0f 84 93 01 00
	00		 je	 $L188069

; 814  : 			;
; 815  : 		else if (max_size() - size() < _Count)

  0002f	85 c0		 test	 eax, eax
  00031	75 04		 jne	 SHORT $L195130
  00033	33 d2		 xor	 edx, edx
  00035	eb 05		 jmp	 SHORT $L195131
$L195130:
  00037	8b 56 08	 mov	 edx, DWORD PTR [esi+8]
  0003a	2b d0		 sub	 edx, eax
$L195131:
  0003c	53		 push	 ebx
  0003d	83 cb ff	 or	 ebx, -1
  00040	2b da		 sub	 ebx, edx
  00042	3b df		 cmp	 ebx, edi
  00044	73 07		 jae	 SHORT $L188045

; 816  : 			_Xlen();	// result too long

  00046	8b ce		 mov	 ecx, esi
  00048	e8 00 00 00 00	 call	 ?_Xlen@?$vector@EV?$allocator@E@std@@@std@@IBEXXZ ; std::vector<unsigned char,std::allocator<unsigned char> >::_Xlen
$L188045:

; 817  : 		else if (_Capacity < size() + _Count)

  0004d	85 c0		 test	 eax, eax
  0004f	75 04		 jne	 SHORT $L195137
  00051	33 d2		 xor	 edx, edx
  00053	eb 05		 jmp	 SHORT $L195138
$L195137:
  00055	8b 56 08	 mov	 edx, DWORD PTR [esi+8]
  00058	2b d0		 sub	 edx, eax
$L195138:
  0005a	03 d7		 add	 edx, edi
  0005c	3b ca		 cmp	 ecx, edx
  0005e	55		 push	 ebp
  0005f	0f 83 c7 00 00
	00		 jae	 $L188047

; 818  : 			{	// not enough room, reallocate
; 819  : 			_Capacity = max_size() - _Capacity / 2 < _Capacity
; 820  : 				? 0 : _Capacity + _Capacity / 2;	// try to grow by 50%

  00065	8b d1		 mov	 edx, ecx
  00067	d1 ea		 shr	 edx, 1
  00069	83 cb ff	 or	 ebx, -1
  0006c	2b da		 sub	 ebx, edx
  0006e	3b d9		 cmp	 ebx, ecx
  00070	73 0e		 jae	 SHORT $L195096
  00072	c7 44 24 10 00
	00 00 00	 mov	 DWORD PTR __Capacity$[esp+20], 0
  0007a	8b 4c 24 10	 mov	 ecx, DWORD PTR __Capacity$[esp+20]
  0007e	eb 06		 jmp	 SHORT $L195097
$L195096:
  00080	03 ca		 add	 ecx, edx
  00082	89 4c 24 10	 mov	 DWORD PTR __Capacity$[esp+20], ecx
$L195097:

; 821  : 			if (_Capacity < size() + _Count)

  00086	85 c0		 test	 eax, eax
  00088	75 04		 jne	 SHORT $L195160
  0008a	33 d2		 xor	 edx, edx
  0008c	eb 05		 jmp	 SHORT $L195161
$L195160:
  0008e	8b 56 08	 mov	 edx, DWORD PTR [esi+8]
  00091	2b d0		 sub	 edx, eax
$L195161:
  00093	03 d7		 add	 edx, edi
  00095	3b ca		 cmp	 ecx, edx
  00097	73 13		 jae	 SHORT $L188048

; 822  : 				_Capacity = size() + _Count;

  00099	85 c0		 test	 eax, eax
  0009b	75 04		 jne	 SHORT $L195167
  0009d	33 c9		 xor	 ecx, ecx
  0009f	eb 05		 jmp	 SHORT $L195168
$L195167:
  000a1	8b 4e 08	 mov	 ecx, DWORD PTR [esi+8]
  000a4	2b c8		 sub	 ecx, eax
$L195168:
  000a6	03 cf		 add	 ecx, edi
  000a8	89 4c 24 10	 mov	 DWORD PTR __Capacity$[esp+20], ecx
$L188048:

; 823  : 			pointer _Newvec = this->_Alval.allocate(_Capacity);

  000ac	51		 push	 ecx
  000ad	e8 00 00 00 00	 call	 ??2@YAPAXI@Z		; operator new

; 824  : 			pointer _Ptr = _Newvec;
; 825  : 
; 826  : 			_TRY_BEGIN
; 827  : 			_Ptr = _Ucopy(_Myfirst, _ITER_BASE(_Where),
; 828  : 				_Newvec);	// copy prefix

  000b2	8b 6c 24 1c	 mov	 ebp, DWORD PTR __Where$[esp+20]
  000b6	8b c8		 mov	 ecx, eax
  000b8	8b 46 04	 mov	 eax, DWORD PTR [esi+4]
  000bb	8b dd		 mov	 ebx, ebp
  000bd	2b d8		 sub	 ebx, eax
  000bf	53		 push	 ebx
  000c0	50		 push	 eax
  000c1	51		 push	 ecx
  000c2	89 4c 24 2c	 mov	 DWORD PTR __Newvec$188049[esp+32], ecx
  000c6	e8 00 00 00 00	 call	 _memmove
  000cb	83 c4 10	 add	 esp, 16			; 00000010H

; 829  : 			_Ptr = _Ufill(_Ptr, _Count, _Tmp);	// add new stuff

  000ce	8d 54 24 20	 lea	 edx, DWORD PTR __Tmp$[esp+16]
  000d2	52		 push	 edx
  000d3	03 c3		 add	 eax, ebx
  000d5	57		 push	 edi
  000d6	50		 push	 eax
  000d7	8b ce		 mov	 ecx, esi
  000d9	e8 00 00 00 00	 call	 ?_Ufill@?$vector@EV?$allocator@E@std@@@std@@IAEPAEPAEIABE@Z ; std::vector<unsigned char,std::allocator<unsigned char> >::_Ufill

; 830  : 			_Ucopy(_ITER_BASE(_Where), _Mylast, _Ptr);	// copy suffix

  000de	8b 4e 08	 mov	 ecx, DWORD PTR [esi+8]
  000e1	2b cd		 sub	 ecx, ebp
  000e3	51		 push	 ecx
  000e4	55		 push	 ebp
  000e5	50		 push	 eax
  000e6	e8 00 00 00 00	 call	 _memmove

; 831  : 			_CATCH_ALL
; 832  : 			_Destroy(_Newvec, _Ptr);
; 833  : 			this->_Alval.deallocate(_Newvec, _Capacity);
; 834  : 			_RERAISE;
; 835  : 			_CATCH_END
; 836  : 
; 837  : 			_Count += size();

  000eb	8b 46 04	 mov	 eax, DWORD PTR [esi+4]
  000ee	83 c4 0c	 add	 esp, 12			; 0000000cH
  000f1	85 c0		 test	 eax, eax
  000f3	75 04		 jne	 SHORT $L195249
  000f5	33 c9		 xor	 ecx, ecx
  000f7	eb 05		 jmp	 SHORT $L195250
$L195249:
  000f9	8b 4e 08	 mov	 ecx, DWORD PTR [esi+8]
  000fc	2b c8		 sub	 ecx, eax
$L195250:
  000fe	03 f9		 add	 edi, ecx

; 838  : 			if (_Myfirst != 0)

  00100	85 c0		 test	 eax, eax
  00102	74 09		 je	 SHORT $L195252

; 839  : 				{	// destroy and deallocate old array
; 840  : 				_Destroy(_Myfirst, _Mylast);
; 841  : 				this->_Alval.deallocate(_Myfirst, _Myend - _Myfirst);

  00104	50		 push	 eax
  00105	e8 00 00 00 00	 call	 ??3@YAXPAX@Z		; operator delete
  0010a	83 c4 04	 add	 esp, 4
$L195252:

; 842  : 				}
; 843  : 			_Myend = _Newvec + _Capacity;

  0010d	8b 44 24 1c	 mov	 eax, DWORD PTR __Newvec$188049[esp+16]
  00111	8b 54 24 10	 mov	 edx, DWORD PTR __Capacity$[esp+20]
  00115	5d		 pop	 ebp
  00116	8d 0c 10	 lea	 ecx, DWORD PTR [eax+edx]
  00119	5b		 pop	 ebx

; 844  : 			_Mylast = _Newvec + _Count;

  0011a	8d 14 38	 lea	 edx, DWORD PTR [eax+edi]
  0011d	5f		 pop	 edi
  0011e	89 4e 0c	 mov	 DWORD PTR [esi+12], ecx
  00121	89 56 08	 mov	 DWORD PTR [esi+8], edx

; 845  : 			_Myfirst = _Newvec;

  00124	89 46 04	 mov	 DWORD PTR [esi+4], eax
  00127	5e		 pop	 esi

; 873  : 			}
; 874  : 		}

  00128	59		 pop	 ecx
  00129	c2 0c 00	 ret	 12			; 0000000cH
$L188047:

; 846  : 			}
; 847  : 		else if ((size_type)(_Mylast - _ITER_BASE(_Where)) < _Count)

  0012c	8b 5e 08	 mov	 ebx, DWORD PTR [esi+8]
  0012f	8b 6c 24 18	 mov	 ebp, DWORD PTR __Where$[esp+16]
  00133	8b c3		 mov	 eax, ebx
  00135	2b c5		 sub	 eax, ebp
  00137	3b c7		 cmp	 eax, edi
  00139	73 48		 jae	 SHORT $L188060

; 848  : 			{	// new stuff spills off end
; 849  : 			_Ucopy(_ITER_BASE(_Where), _Mylast,
; 850  : 				_ITER_BASE(_Where) + _Count);	// copy suffix

  0013b	50		 push	 eax
  0013c	8d 04 2f	 lea	 eax, DWORD PTR [edi+ebp]
  0013f	55		 push	 ebp
  00140	50		 push	 eax
  00141	e8 00 00 00 00	 call	 _memmove

; 851  : 
; 852  : 			_TRY_BEGIN
; 853  : 			_Ufill(_Mylast, _Count - (_Mylast - _ITER_BASE(_Where)),
; 854  : 				_Tmp);	// insert new stuff off end

  00146	8b 46 08	 mov	 eax, DWORD PTR [esi+8]
  00149	83 c4 0c	 add	 esp, 12			; 0000000cH
  0014c	8b d5		 mov	 edx, ebp
  0014e	8d 4c 24 20	 lea	 ecx, DWORD PTR __Tmp$[esp+16]
  00152	51		 push	 ecx
  00153	2b d0		 sub	 edx, eax
  00155	03 d7		 add	 edx, edi
  00157	52		 push	 edx
  00158	50		 push	 eax
  00159	8b ce		 mov	 ecx, esi
  0015b	e8 00 00 00 00	 call	 ?_Ufill@?$vector@EV?$allocator@E@std@@@std@@IAEPAEPAEIABE@Z ; std::vector<unsigned char,std::allocator<unsigned char> >::_Ufill

; 855  : 			_CATCH_ALL
; 856  : 			_Destroy(_ITER_BASE(_Where) + _Count, _Mylast + _Count);
; 857  : 			_RERAISE;
; 858  : 			_CATCH_END
; 859  : 
; 860  : 			_Mylast += _Count;

  00160	8b 56 08	 mov	 edx, DWORD PTR [esi+8]
  00163	03 d7		 add	 edx, edi
  00165	89 56 08	 mov	 DWORD PTR [esi+8], edx
  00168	8b f2		 mov	 esi, edx

; 861  : 			fill(_ITER_BASE(_Where), _Mylast - _Count,
; 862  : 				_Tmp);	// insert up to old end

  0016a	8d 44 24 20	 lea	 eax, DWORD PTR __Tmp$[esp+16]
  0016e	50		 push	 eax
  0016f	2b f7		 sub	 esi, edi
  00171	56		 push	 esi
  00172	55		 push	 ebp
  00173	e8 00 00 00 00	 call	 ??$fill@PAEE@std@@YAXPAE0ABE@Z ; std::fill<unsigned char *,unsigned char>
  00178	83 c4 0c	 add	 esp, 12			; 0000000cH
  0017b	5d		 pop	 ebp
  0017c	5b		 pop	 ebx
  0017d	5f		 pop	 edi
  0017e	5e		 pop	 esi

; 873  : 			}
; 874  : 		}

  0017f	59		 pop	 ecx
  00180	c2 0c 00	 ret	 12			; 0000000cH
$L188060:

; 863  : 			}
; 864  : 		else
; 865  : 			{	// new stuff can all be assigned
; 866  : 			pointer _Oldend = _Mylast;
; 867  : 			_Mylast = _Ucopy(_Oldend - _Count, _Oldend,
; 868  : 				_Mylast);	// copy suffix

  00183	8b c3		 mov	 eax, ebx
  00185	2b c7		 sub	 eax, edi
  00187	8b cb		 mov	 ecx, ebx
  00189	2b c8		 sub	 ecx, eax
  0018b	51		 push	 ecx
  0018c	50		 push	 eax
  0018d	53		 push	 ebx
  0018e	89 4c 24 24	 mov	 DWORD PTR __Count$195317[esp+28], ecx
  00192	e8 00 00 00 00	 call	 _memmove
  00197	03 44 24 24	 add	 eax, DWORD PTR __Count$195317[esp+28]
  0019b	89 46 08	 mov	 DWORD PTR [esi+8], eax

; 869  : 			copy_backward(_ITER_BASE(_Where), _Oldend - _Count,
; 870  : 				_Oldend);	// copy hole

  0019e	8b c3		 mov	 eax, ebx
  001a0	2b c5		 sub	 eax, ebp
  001a2	2b c7		 sub	 eax, edi
  001a4	50		 push	 eax
  001a5	2b d8		 sub	 ebx, eax
  001a7	55		 push	 ebp
  001a8	53		 push	 ebx
  001a9	e8 00 00 00 00	 call	 _memmove

; 871  : 			fill(_ITER_BASE(_Where), _ITER_BASE(_Where) + _Count,
; 872  : 				_Tmp);	// insert into hole

  001ae	8d 4c 24 38	 lea	 ecx, DWORD PTR __Tmp$[esp+40]
  001b2	51		 push	 ecx
  001b3	8d 14 2f	 lea	 edx, DWORD PTR [edi+ebp]
  001b6	52		 push	 edx
  001b7	55		 push	 ebp
  001b8	e8 00 00 00 00	 call	 ??$fill@PAEE@std@@YAXPAE0ABE@Z ; std::fill<unsigned char *,unsigned char>
  001bd	83 c4 24	 add	 esp, 36			; 00000024H
  001c0	5d		 pop	 ebp
  001c1	5b		 pop	 ebx
$L188069:
  001c2	5f		 pop	 edi
  001c3	5e		 pop	 esi

; 873  : 			}
; 874  : 		}

  001c4	59		 pop	 ecx
  001c5	c2 0c 00	 ret	 12			; 0000000cH
$L195344:
?_Insert_n@?$vector@EV?$allocator@E@std@@@std@@IAEXViterator@12@IABE@Z ENDP ; std::vector<unsigned char,std::allocator<unsigned char> >::_Insert_n
_TEXT	ENDS
PUBLIC	??$_Destroy_range@V?$basic_string@DU?$char_traits@D@std@@V?$allocator@D@2@@std@@V?$allocator@V?$basic_string@DU?$char_traits@D@std@@V?$allocator@D@2@@std@@@2@@std@@YAXPAV?$basic_string@DU?$char_traits@D@std@@V?$allocator@D@2@@0@0AAV?$allocator@V?$basic_string@DU?$char_traits@D@std@@V?$allocator@D@2@@std@@@0@@Z ; std::_Destroy_range<std::basic_string<char,std::char_traits<char>,std::allocator<char> >,std::allocator<std::basic_string<char,std::char_traits<char>,std::allocator<char> > > >
; Function compile flags: /Ogty
; File c:\program files\microsoft visual studio .net 2003\vc7\include\xmemory
;	COMDAT ??$_Destroy_range@V?$basic_string@DU?$char_traits@D@std@@V?$allocator@D@2@@std@@V?$allocator@V?$basic_string@DU?$char_traits@D@std@@V?$allocator@D@2@@std@@@2@@std@@YAXPAV?$basic_string@DU?$char_traits@D@std@@V?$allocator@D@2@@0@0AAV?$allocator@V?$basic_string@DU?$char_traits@D@std@@V?$allocator@D@2@@std@@@0@@Z
_TEXT	SEGMENT
__Cat$195350 = -4					; size = 1
__First$ = 8						; size = 4
__Last$ = 12						; size = 4
__Al$ = 16						; size = 4
??$_Destroy_range@V?$basic_string@DU?$char_traits@D@std@@V?$allocator@D@2@@std@@V?$allocator@V?$basic_string@DU?$char_traits@D@std@@V?$allocator@D@2@@std@@@2@@std@@YAXPAV?$basic_string@DU?$char_traits@D@std@@V?$allocator@D@2@@0@0AAV?$allocator@V?$basic_string@DU?$char_traits@D@std@@V?$allocator@D@2@@std@@@0@@Z PROC NEAR ; std::_Destroy_range<std::basic_string<char,std::char_traits<char>,std::allocator<char> >,std::allocator<std::basic_string<char,std::char_traits<char>,std::allocator<char> > > >, COMDAT

; 216  : 	{	// destroy [_First, _Last)

  00000	51		 push	 ecx

; 217  : 	_Destroy_range(_First, _Last, _Al, _Ptr_cat(_First, _Last));

  00001	8b 04 24	 mov	 eax, DWORD PTR __Cat$195350[esp+4]
  00004	8b 4c 24 10	 mov	 ecx, DWORD PTR __Al$[esp]
  00008	8b 54 24 0c	 mov	 edx, DWORD PTR __Last$[esp]
  0000c	50		 push	 eax
  0000d	8b 44 24 0c	 mov	 eax, DWORD PTR __First$[esp+4]
  00011	51		 push	 ecx
  00012	52		 push	 edx
  00013	50		 push	 eax
  00014	e8 00 00 00 00	 call	 ??$_Destroy_range@V?$basic_string@DU?$char_traits@D@std@@V?$allocator@D@2@@std@@V?$allocator@V?$basic_string@DU?$char_traits@D@std@@V?$allocator@D@2@@std@@@2@@std@@YAXPAV?$basic_string@DU?$char_traits@D@std@@V?$allocator@D@2@@0@0AAV?$allocator@V?$basic_string@DU?$char_traits@D@std@@V?$allocator@D@2@@std@@@0@U_Nonscalar_ptr_iterator_tag@0@@Z ; std::_Destroy_range<std::basic_string<char,std::char_traits<char>,std::allocator<char> >,std::allocator<std::basic_string<char,std::char_traits<char>,std::allocator<char> > > >

; 218  : 	}

  00019	83 c4 14	 add	 esp, 20			; 00000014H
  0001c	c3		 ret	 0
??$_Destroy_range@V?$basic_string@DU?$char_traits@D@std@@V?$allocator@D@2@@std@@V?$allocator@V?$basic_string@DU?$char_traits@D@std@@V?$allocator@D@2@@std@@@2@@std@@YAXPAV?$basic_string@DU?$char_traits@D@std@@V?$allocator@D@2@@0@0AAV?$allocator@V?$basic_string@DU?$char_traits@D@std@@V?$allocator@D@2@@std@@@0@@Z ENDP ; std::_Destroy_range<std::basic_string<char,std::char_traits<char>,std::allocator<char> >,std::allocator<std::basic_string<char,std::char_traits<char>,std::allocator<char> > > >
_TEXT	ENDS
PUBLIC	??$_Uninitialized_copy@Vconst_iterator@?$vector@V?$basic_string@DU?$char_traits@D@std@@V?$allocator@D@2@@std@@V?$allocator@V?$basic_string@DU?$char_traits@D@std@@V?$allocator@D@2@@std@@@2@@std@@PAV?$basic_string@DU?$char_traits@D@std@@V?$allocator@D@2@@3@V?$allocator@V?$basic_string@DU?$char_traits@D@std@@V?$allocator@D@2@@std@@@3@@std@@YAPAV?$basic_string@DU?$char_traits@D@std@@V?$allocator@D@2@@0@Vconst_iterator@?$vector@V?$basic_string@DU?$char_traits@D@std@@V?$allocator@D@2@@std@@V?$allocator@V?$basic_string@DU?$char_traits@D@std@@V?$allocator@D@2@@std@@@2@@0@0PAV10@AAV?$allocator@V?$basic_string@DU?$char_traits@D@std@@V?$allocator@D@2@@std@@@0@@Z ; std::_Uninitialized_copy<std::vector<std::basic_string<char,std::char_traits<char>,std::allocator<char> >,std::allocator<std::basic_string<char,std::char_traits<char>,std::allocator<char> > > >::const_iterator,std::basic_string<char,std::char_traits<char>,std::allocator<char> > *,std::allocator<std::basic_string<char,std::char_traits<char>,std::allocator<char> > > >
; Function compile flags: /Ogty
; File c:\program files\microsoft visual studio .net 2003\vc7\include\memory
;	COMDAT ??$_Uninitialized_copy@Vconst_iterator@?$vector@V?$basic_string@DU?$char_traits@D@std@@V?$allocator@D@2@@std@@V?$allocator@V?$basic_string@DU?$char_traits@D@std@@V?$allocator@D@2@@std@@@2@@std@@PAV?$basic_string@DU?$char_traits@D@std@@V?$allocator@D@2@@3@V?$allocator@V?$basic_string@DU?$char_traits@D@std@@V?$allocator@D@2@@std@@@3@@std@@YAPAV?$basic_string@DU?$char_traits@D@std@@V?$allocator@D@2@@0@Vconst_iterator@?$vector@V?$basic_string@DU?$char_traits@D@std@@V?$allocator@D@2@@std@@V?$allocator@V?$basic_string@DU?$char_traits@D@std@@V?$allocator@D@2@@std@@@2@@0@0PAV10@AAV?$allocator@V?$basic_string@DU?$char_traits@D@std@@V?$allocator@D@2@@std@@@0@@Z
_TEXT	SEGMENT
__Cat$195357 = -4					; size = 1
__First$ = 8						; size = 4
__Last$ = 12						; size = 4
__Dest$ = 16						; size = 4
__Al$ = 20						; size = 4
??$_Uninitialized_copy@Vconst_iterator@?$vector@V?$basic_string@DU?$char_traits@D@std@@V?$allocator@D@2@@std@@V?$allocator@V?$basic_string@DU?$char_traits@D@std@@V?$allocator@D@2@@std@@@2@@std@@PAV?$basic_string@DU?$char_traits@D@std@@V?$allocator@D@2@@3@V?$allocator@V?$basic_string@DU?$char_traits@D@std@@V?$allocator@D@2@@std@@@3@@std@@YAPAV?$basic_string@DU?$char_traits@D@std@@V?$allocator@D@2@@0@Vconst_iterator@?$vector@V?$basic_string@DU?$char_traits@D@std@@V?$allocator@D@2@@std@@V?$allocator@V?$basic_string@DU?$char_traits@D@std@@V?$allocator@D@2@@std@@@2@@0@0PAV10@AAV?$allocator@V?$basic_string@DU?$char_traits@D@std@@V?$allocator@D@2@@std@@@0@@Z PROC NEAR ; std::_Uninitialized_copy<std::vector<std::basic_string<char,std::char_traits<char>,std::allocator<char> >,std::allocator<std::basic_string<char,std::char_traits<char>,std::allocator<char> > > >::const_iterator,std::basic_string<char,std::char_traits<char>,std::allocator<char> > *,std::allocator<std::basic_string<char,std::char_traits<char>,std::allocator<char> > > >, COMDAT

; 126  : 	{	// copy [_First, _Last) to raw _Dest, using _Al

  00000	51		 push	 ecx

; 127  : 	return (_Uninit_copy(_First, _Last, _Dest, _Al,
; 128  : 		_Ptr_cat(_First, _Dest)));

  00001	8b 04 24	 mov	 eax, DWORD PTR __Cat$195357[esp+4]
  00004	8b 4c 24 14	 mov	 ecx, DWORD PTR __Al$[esp]
  00008	8b 54 24 10	 mov	 edx, DWORD PTR __Dest$[esp]
  0000c	50		 push	 eax
  0000d	8b 44 24 10	 mov	 eax, DWORD PTR __Last$[esp+4]
  00011	51		 push	 ecx
  00012	8b 4c 24 10	 mov	 ecx, DWORD PTR __First$[esp+8]
  00016	52		 push	 edx
  00017	50		 push	 eax
  00018	51		 push	 ecx
  00019	e8 00 00 00 00	 call	 ??$_Uninit_copy@Vconst_iterator@?$vector@V?$basic_string@DU?$char_traits@D@std@@V?$allocator@D@2@@std@@V?$allocator@V?$basic_string@DU?$char_traits@D@std@@V?$allocator@D@2@@std@@@2@@std@@PAV?$basic_string@DU?$char_traits@D@std@@V?$allocator@D@2@@3@V?$allocator@V?$basic_string@DU?$char_traits@D@std@@V?$allocator@D@2@@std@@@3@@std@@YAPAV?$basic_string@DU?$char_traits@D@std@@V?$allocator@D@2@@0@Vconst_iterator@?$vector@V?$basic_string@DU?$char_traits@D@std@@V?$allocator@D@2@@std@@V?$allocator@V?$basic_string@DU?$char_traits@D@std@@V?$allocator@D@2@@std@@@2@@0@0PAV10@AAV?$allocator@V?$basic_string@DU?$char_traits@D@std@@V?$allocator@D@2@@std@@@0@U_Nonscalar_ptr_iterator_tag@0@@Z ; std::_Uninit_copy<std::vector<std::basic_string<char,std::char_traits<char>,std::allocator<char> >,std::allocator<std::basic_string<char,std::char_traits<char>,std::allocator<char> > > >::const_iterator,std::basic_string<char,std::char_traits<char>,std::allocator<char> > *,std::allocator<std::basic_string<char,std::char_traits<char>,std::allocator<char> > > >

; 129  : 	}

  0001e	83 c4 18	 add	 esp, 24			; 00000018H
  00021	c3		 ret	 0
??$_Uninitialized_copy@Vconst_iterator@?$vector@V?$basic_string@DU?$char_traits@D@std@@V?$allocator@D@2@@std@@V?$allocator@V?$basic_string@DU?$char_traits@D@std@@V?$allocator@D@2@@std@@@2@@std@@PAV?$basic_string@DU?$char_traits@D@std@@V?$allocator@D@2@@3@V?$allocator@V?$basic_string@DU?$char_traits@D@std@@V?$allocator@D@2@@std@@@3@@std@@YAPAV?$basic_string@DU?$char_traits@D@std@@V?$allocator@D@2@@0@Vconst_iterator@?$vector@V?$basic_string@DU?$char_traits@D@std@@V?$allocator@D@2@@std@@V?$allocator@V?$basic_string@DU?$char_traits@D@std@@V?$allocator@D@2@@std@@@2@@0@0PAV10@AAV?$allocator@V?$basic_string@DU?$char_traits@D@std@@V?$allocator@D@2@@std@@@0@@Z ENDP ; std::_Uninitialized_copy<std::vector<std::basic_string<char,std::char_traits<char>,std::allocator<char> >,std::allocator<std::basic_string<char,std::char_traits<char>,std::allocator<char> > > >::const_iterator,std::basic_string<char,std::char_traits<char>,std::allocator<char> > *,std::allocator<std::basic_string<char,std::char_traits<char>,std::allocator<char> > > >
_TEXT	ENDS
PUBLIC	??$_Uninit_fill_n@PAV?$basic_string@DU?$char_traits@D@std@@V?$allocator@D@2@@std@@IV12@V?$allocator@V?$basic_string@DU?$char_traits@D@std@@V?$allocator@D@2@@std@@@2@@std@@YAXPAV?$basic_string@DU?$char_traits@D@std@@V?$allocator@D@2@@0@IABV10@AAV?$allocator@V?$basic_string@DU?$char_traits@D@std@@V?$allocator@D@2@@std@@@0@U_Nonscalar_ptr_iterator_tag@0@@Z ; std::_Uninit_fill_n<std::basic_string<char,std::char_traits<char>,std::allocator<char> > *,unsigned int,std::basic_string<char,std::char_traits<char>,std::allocator<char> >,std::allocator<std::basic_string<char,std::char_traits<char>,std::allocator<char> > > >
;	COMDAT xdata$x
; File c:\program files\microsoft visual studio .net 2003\vc7\include\iosfwd
xdata$x	SEGMENT
$T195550 DD	0ffffffffH
	DD	00H
	DD	00H
	DD	FLAT:$L195369
	DD	0ffffffffH
	DD	00H
$T195552 DD	00H
	DD	00H
	DD	00H
	DD	FLAT:$L195362
$T195551 DD	00H
	DD	01H
	DD	02H
	DD	01H
	DD	FLAT:$T195552
$T195544 DD	019930520H
	DD	03H
	DD	FLAT:$T195550
	DD	01H
	DD	FLAT:$T195551
	DD	2 DUP(00H)
; Function compile flags: /Ogty
; File c:\program files\microsoft visual studio .net 2003\vc7\include\memory
xdata$x	ENDS
;	COMDAT ??$_Uninit_fill_n@PAV?$basic_string@DU?$char_traits@D@std@@V?$allocator@D@2@@std@@IV12@V?$allocator@V?$basic_string@DU?$char_traits@D@std@@V?$allocator@D@2@@std@@@2@@std@@YAXPAV?$basic_string@DU?$char_traits@D@std@@V?$allocator@D@2@@0@IABV10@AAV?$allocator@V?$basic_string@DU?$char_traits@D@std@@V?$allocator@D@2@@std@@@0@U_Nonscalar_ptr_iterator_tag@0@@Z
_TEXT	SEGMENT
__Next$ = -20						; size = 4
__$EHRec$ = -16						; size = 16
__First$ = 8						; size = 4
$T195509 = 12						; size = 4
__Count$ = 12						; size = 4
__Val$ = 16						; size = 4
__Al$ = 20						; size = 4
___formal$ = 24						; size = 1
??$_Uninit_fill_n@PAV?$basic_string@DU?$char_traits@D@std@@V?$allocator@D@2@@std@@IV12@V?$allocator@V?$basic_string@DU?$char_traits@D@std@@V?$allocator@D@2@@std@@@2@@std@@YAXPAV?$basic_string@DU?$char_traits@D@std@@V?$allocator@D@2@@0@IABV10@AAV?$allocator@V?$basic_string@DU?$char_traits@D@std@@V?$allocator@D@2@@std@@@0@U_Nonscalar_ptr_iterator_tag@0@@Z PROC NEAR ; std::_Uninit_fill_n<std::basic_string<char,std::char_traits<char>,std::allocator<char> > *,unsigned int,std::basic_string<char,std::char_traits<char>,std::allocator<char> >,std::allocator<std::basic_string<char,std::char_traits<char>,std::allocator<char> > > >, COMDAT

; 207  : 	{	// copy _Count *_Val to raw _First, using _Al, arbitrary type

  00000	55		 push	 ebp
  00001	8b ec		 mov	 ebp, esp
  00003	6a ff		 push	 -1
  00005	68 00 00 00 00	 push	 __ehhandler$??$_Uninit_fill_n@PAV?$basic_string@DU?$char_traits@D@std@@V?$allocator@D@2@@std@@IV12@V?$allocator@V?$basic_string@DU?$char_traits@D@std@@V?$allocator@D@2@@std@@@2@@std@@YAXPAV?$basic_string@DU?$char_traits@D@std@@V?$allocator@D@2@@0@IABV10@AAV?$allocator@V?$basic_string@DU?$char_traits@D@std@@V?$allocator@D@2@@std@@@0@U_Nonscalar_ptr_iterator_tag@0@@Z
  0000a	64 a1 00 00 00
	00		 mov	 eax, DWORD PTR fs:__except_list
  00010	50		 push	 eax
  00011	64 89 25 00 00
	00 00		 mov	 DWORD PTR fs:__except_list, esp
  00018	83 ec 08	 sub	 esp, 8
  0001b	53		 push	 ebx
  0001c	56		 push	 esi

; 208  : 	_FwdIt _Next = _First;

  0001d	8b 75 08	 mov	 esi, DWORD PTR __First$[ebp]
  00020	57		 push	 edi

; 209  : 
; 210  : 	_TRY_BEGIN

  00021	8b 7d 0c	 mov	 edi, DWORD PTR __Count$[ebp]
  00024	33 db		 xor	 ebx, ebx
  00026	89 65 f0	 mov	 DWORD PTR __$EHRec$[ebp], esp
  00029	89 75 ec	 mov	 DWORD PTR __Next$[ebp], esi
  0002c	89 5d fc	 mov	 DWORD PTR __$EHRec$[ebp+12], ebx
  0002f	90		 npad	 1
$L188773:

; 211  : 	for (; 0 < _Count; --_Count, ++_First)

  00030	3b fb		 cmp	 edi, ebx
  00032	76 57		 jbe	 SHORT $L188775

; 212  : 		_Al.construct(_First, _Val);

  00034	89 75 0c	 mov	 DWORD PTR $T195509[ebp], esi
  00037	3b f3		 cmp	 esi, ebx
  00039	c6 45 fc 01	 mov	 BYTE PTR __$EHRec$[ebp+12], 1
  0003d	74 1b		 je	 SHORT $L195510
  0003f	8b 45 10	 mov	 eax, DWORD PTR __Val$[ebp]
  00042	6a ff		 push	 -1
  00044	53		 push	 ebx
  00045	c7 46 18 0f 00
	00 00		 mov	 DWORD PTR [esi+24], 15	; 0000000fH
  0004c	89 5e 14	 mov	 DWORD PTR [esi+20], ebx
  0004f	50		 push	 eax
  00050	8b ce		 mov	 ecx, esi
  00052	88 5e 04	 mov	 BYTE PTR [esi+4], bl
  00055	e8 00 00 00 00	 call	 ?assign@?$basic_string@DU?$char_traits@D@std@@V?$allocator@D@2@@std@@QAEAAV12@ABV12@II@Z ; std::basic_string<char,std::char_traits<char>,std::allocator<char> >::assign
$L195510:
  0005a	4f		 dec	 edi
  0005b	83 c6 1c	 add	 esi, 28			; 0000001cH
  0005e	88 5d fc	 mov	 BYTE PTR __$EHRec$[ebp+12], bl
  00061	89 75 08	 mov	 DWORD PTR __First$[ebp], esi
  00064	eb ca		 jmp	 SHORT $L188773
$L195362:

; 213  : 	_CATCH_ALL
; 214  : 	for (; _Next != _First; ++_Next)

  00066	8b 75 ec	 mov	 esi, DWORD PTR __Next$[ebp]
  00069	8b 7d 08	 mov	 edi, DWORD PTR __First$[ebp]
  0006c	3b f7		 cmp	 esi, edi
  0006e	74 12		 je	 SHORT $L188778
  00070	8b 5d 14	 mov	 ebx, DWORD PTR __Al$[ebp]
$L188776:

; 215  : 		_Al.destroy(_Next);

  00073	56		 push	 esi
  00074	8b cb		 mov	 ecx, ebx
  00076	e8 00 00 00 00	 call	 ?destroy@?$allocator@V?$basic_string@DU?$char_traits@D@std@@V?$allocator@D@2@@std@@@std@@QAEXPAV?$basic_string@DU?$char_traits@D@std@@V?$allocator@D@2@@2@@Z ; std::allocator<std::basic_string<char,std::char_traits<char>,std::allocator<char> > >::destroy
  0007b	83 c6 1c	 add	 esi, 28			; 0000001cH
  0007e	3b f7		 cmp	 esi, edi
  00080	75 f1		 jne	 SHORT $L188776
$L188778:

; 216  : 	_RERAISE;

  00082	33 db		 xor	 ebx, ebx
  00084	53		 push	 ebx
  00085	53		 push	 ebx
  00086	e8 00 00 00 00	 call	 __CxxThrowException@8
$L188775:

; 217  : 	_CATCH_END
; 218  : 	}

  0008b	8b 4d f4	 mov	 ecx, DWORD PTR __$EHRec$[ebp+4]
  0008e	5f		 pop	 edi
  0008f	5e		 pop	 esi
  00090	64 89 0d 00 00
	00 00		 mov	 DWORD PTR fs:__except_list, ecx
  00097	5b		 pop	 ebx
  00098	8b e5		 mov	 esp, ebp
  0009a	5d		 pop	 ebp
  0009b	c3		 ret	 0
$L195549:
_TEXT	ENDS
;	COMDAT text$x
text$x	SEGMENT
$L195369:
  00000	8b 45 08	 mov	 eax, DWORD PTR __First$[ebp]
  00003	50		 push	 eax
  00004	8b 4d 0c	 mov	 ecx, DWORD PTR $T195509[ebp]
  00007	51		 push	 ecx
  00008	e8 00 00 00 00	 call	 ??3@YAXPAX0@Z		; operator delete
  0000d	83 c4 08	 add	 esp, 8
  00010	c3		 ret	 0
__ehhandler$??$_Uninit_fill_n@PAV?$basic_string@DU?$char_traits@D@std@@V?$allocator@D@2@@std@@IV12@V?$allocator@V?$basic_string@DU?$char_traits@D@std@@V?$allocator@D@2@@std@@@2@@std@@YAXPAV?$basic_string@DU?$char_traits@D@std@@V?$allocator@D@2@@0@IABV10@AAV?$allocator@V?$basic_string@DU?$char_traits@D@std@@V?$allocator@D@2@@std@@@0@U_Nonscalar_ptr_iterator_tag@0@@Z:
  00011	b8 00 00 00 00	 mov	 eax, OFFSET FLAT:$T195544
  00016	e9 00 00 00 00	 jmp	 ___CxxFrameHandler
text$x	ENDS
??$_Uninit_fill_n@PAV?$basic_string@DU?$char_traits@D@std@@V?$allocator@D@2@@std@@IV12@V?$allocator@V?$basic_string@DU?$char_traits@D@std@@V?$allocator@D@2@@std@@@2@@std@@YAXPAV?$basic_string@DU?$char_traits@D@std@@V?$allocator@D@2@@0@IABV10@AAV?$allocator@V?$basic_string@DU?$char_traits@D@std@@V?$allocator@D@2@@std@@@0@U_Nonscalar_ptr_iterator_tag@0@@Z ENDP ; std::_Uninit_fill_n<std::basic_string<char,std::char_traits<char>,std::allocator<char> > *,unsigned int,std::basic_string<char,std::char_traits<char>,std::allocator<char> >,std::allocator<std::basic_string<char,std::char_traits<char>,std::allocator<char> > > >
PUBLIC	??$_Uninitialized_copy@PAV?$basic_string@DU?$char_traits@D@std@@V?$allocator@D@2@@std@@PAV12@V?$allocator@V?$basic_string@DU?$char_traits@D@std@@V?$allocator@D@2@@std@@@2@@std@@YAPAV?$basic_string@DU?$char_traits@D@std@@V?$allocator@D@2@@0@PAV10@00AAV?$allocator@V?$basic_string@DU?$char_traits@D@std@@V?$allocator@D@2@@std@@@0@@Z ; std::_Uninitialized_copy<std::basic_string<char,std::char_traits<char>,std::allocator<char> > *,std::basic_string<char,std::char_traits<char>,std::allocator<char> > *,std::allocator<std::basic_string<char,std::char_traits<char>,std::allocator<char> > > >
; Function compile flags: /Ogty
;	COMDAT ??$_Uninitialized_copy@PAV?$basic_string@DU?$char_traits@D@std@@V?$allocator@D@2@@std@@PAV12@V?$allocator@V?$basic_string@DU?$char_traits@D@std@@V?$allocator@D@2@@std@@@2@@std@@YAPAV?$basic_string@DU?$char_traits@D@std@@V?$allocator@D@2@@0@PAV10@00AAV?$allocator@V?$basic_string@DU?$char_traits@D@std@@V?$allocator@D@2@@std@@@0@@Z
_TEXT	SEGMENT
__Cat$195559 = -4					; size = 1
__First$ = 8						; size = 4
__Last$ = 12						; size = 4
__Dest$ = 16						; size = 4
__Al$ = 20						; size = 4
??$_Uninitialized_copy@PAV?$basic_string@DU?$char_traits@D@std@@V?$allocator@D@2@@std@@PAV12@V?$allocator@V?$basic_string@DU?$char_traits@D@std@@V?$allocator@D@2@@std@@@2@@std@@YAPAV?$basic_string@DU?$char_traits@D@std@@V?$allocator@D@2@@0@PAV10@00AAV?$allocator@V?$basic_string@DU?$char_traits@D@std@@V?$allocator@D@2@@std@@@0@@Z PROC NEAR ; std::_Uninitialized_copy<std::basic_string<char,std::char_traits<char>,std::allocator<char> > *,std::basic_string<char,std::char_traits<char>,std::allocator<char> > *,std::allocator<std::basic_string<char,std::char_traits<char>,std::allocator<char> > > >, COMDAT

; 126  : 	{	// copy [_First, _Last) to raw _Dest, using _Al

  00000	51		 push	 ecx

; 127  : 	return (_Uninit_copy(_First, _Last, _Dest, _Al,
; 128  : 		_Ptr_cat(_First, _Dest)));

  00001	8b 04 24	 mov	 eax, DWORD PTR __Cat$195559[esp+4]
  00004	8b 4c 24 14	 mov	 ecx, DWORD PTR __Al$[esp]
  00008	8b 54 24 10	 mov	 edx, DWORD PTR __Dest$[esp]
  0000c	50		 push	 eax
  0000d	8b 44 24 10	 mov	 eax, DWORD PTR __Last$[esp+4]
  00011	51		 push	 ecx
  00012	8b 4c 24 10	 mov	 ecx, DWORD PTR __First$[esp+8]
  00016	52		 push	 edx
  00017	50		 push	 eax
  00018	51		 push	 ecx
  00019	e8 00 00 00 00	 call	 ??$_Uninit_copy@PAV?$basic_string@DU?$char_traits@D@std@@V?$allocator@D@2@@std@@PAV12@V?$allocator@V?$basic_string@DU?$char_traits@D@std@@V?$allocator@D@2@@std@@@2@@std@@YAPAV?$basic_string@DU?$char_traits@D@std@@V?$allocator@D@2@@0@PAV10@00AAV?$allocator@V?$basic_string@DU?$char_traits@D@std@@V?$allocator@D@2@@std@@@0@U_Nonscalar_ptr_iterator_tag@0@@Z ; std::_Uninit_copy<std::basic_string<char,std::char_traits<char>,std::allocator<char> > *,std::basic_string<char,std::char_traits<char>,std::allocator<char> > *,std::allocator<std::basic_string<char,std::char_traits<char>,std::allocator<char> > > >

; 129  : 	}

  0001e	83 c4 18	 add	 esp, 24			; 00000018H
  00021	c3		 ret	 0
??$_Uninitialized_copy@PAV?$basic_string@DU?$char_traits@D@std@@V?$allocator@D@2@@std@@PAV12@V?$allocator@V?$basic_string@DU?$char_traits@D@std@@V?$allocator@D@2@@std@@@2@@std@@YAPAV?$basic_string@DU?$char_traits@D@std@@V?$allocator@D@2@@0@PAV10@00AAV?$allocator@V?$basic_string@DU?$char_traits@D@std@@V?$allocator@D@2@@std@@@0@@Z ENDP ; std::_Uninitialized_copy<std::basic_string<char,std::char_traits<char>,std::allocator<char> > *,std::basic_string<char,std::char_traits<char>,std::allocator<char> > *,std::allocator<std::basic_string<char,std::char_traits<char>,std::allocator<char> > > >
_TEXT	ENDS
PUBLIC	??_C@_0O@OHPKDJLJ@GetEventState?$AA@		; `string'
PUBLIC	??_C@_03HLJILIDP@nId?$AA@			; `string'
PUBLIC	??_C@_05JNKNAC@State?$AA@			; `string'
PUBLIC	?CheckEventState@CEventLua@@QAEHXZ		; CEventLua::CheckEventState
EXTRN	__ftol2:NEAR
EXTRN	?GetFieldToNumber@CLuaBase@@QAENHPAD@Z:NEAR	; CLuaBase::GetFieldToNumber
;	COMDAT ??_C@_0O@OHPKDJLJ@GetEventState?$AA@
; File c:\program files\microsoft visual studio .net 2003\vc7\include\xtree
CONST	SEGMENT
??_C@_0O@OHPKDJLJ@GetEventState?$AA@ DB 'GetEventState', 00H ; `string'
CONST	ENDS
;	COMDAT ??_C@_03HLJILIDP@nId?$AA@
CONST	SEGMENT
??_C@_03HLJILIDP@nId?$AA@ DB 'nId', 00H			; `string'
CONST	ENDS
;	COMDAT ??_C@_05JNKNAC@State?$AA@
CONST	SEGMENT
??_C@_05JNKNAC@State?$AA@ DB 'State', 00H		; `string'
; Function compile flags: /Ogty
; File c:\documents and settings\test\mes documents\source\virtuos_v17\build\program\_common\eventlua.cpp
CONST	ENDS
;	COMDAT ?CheckEventState@CEventLua@@QAEHXZ
_TEXT	SEGMENT
$T195563 = -16						; size = 8
$T195565 = -8						; size = 8
?CheckEventState@CEventLua@@QAEHXZ PROC NEAR		; CEventLua::CheckEventState, COMDAT
; _this$ = ecx

; 102  : {

  00000	55		 push	 ebp
  00001	8b ec		 mov	 ebp, esp
  00003	83 e4 f8	 and	 esp, -8			; fffffff8H
  00006	83 ec 10	 sub	 esp, 16			; 00000010H
  00009	53		 push	 ebx
  0000a	55		 push	 ebp
  0000b	56		 push	 esi
  0000c	57		 push	 edi
  0000d	8b f9		 mov	 edi, ecx

; 103  : 	if( !IsPossible() )

  0000f	8b 47 2c	 mov	 eax, DWORD PTR [edi+44]
  00012	85 c0		 test	 eax, eax

; 104  : 		return FALSE;

  00014	0f 84 c9 00 00
	00		 je	 $L195607

; 105  : 
; 106  : 	if( m_Lua.GetLuaFunction("GetEventState") )

  0001a	8d 77 30	 lea	 esi, DWORD PTR [edi+48]
  0001d	68 00 00 00 00	 push	 OFFSET FLAT:??_C@_0O@OHPKDJLJ@GetEventState?$AA@
  00022	8b ce		 mov	 ecx, esi
  00024	e8 00 00 00 00	 call	 ?GetLuaFunction@CLuaBase@@QAEHPAD@Z ; CLuaBase::GetLuaFunction
  00029	85 c0		 test	 eax, eax
  0002b	0f 84 bc 00 00
	00		 je	 $L187099

; 107  : 	{
; 108  : 		m_Lua.CallLuaFunction( 0, 1 );

  00031	6a 01		 push	 1
  00033	6a 00		 push	 0
  00035	8b ce		 mov	 ecx, esi
  00037	e8 00 00 00 00	 call	 ?CallLuaFunction@CLuaBase@@QAEXHH@Z ; CLuaBase::CallLuaFunction

; 109  : 		if( m_Lua.IsNil( -1 ) )

  0003c	8b 47 34	 mov	 eax, DWORD PTR [edi+52]
  0003f	6a ff		 push	 -1
  00041	50		 push	 eax
  00042	e8 00 00 00 00	 call	 _lua_type
  00047	83 c4 08	 add	 esp, 8
  0004a	85 c0		 test	 eax, eax

; 110  : 		{
; 111  : 			m_Lua.Pop(0);
; 112  : 			return FALSE;

  0004c	0f 84 88 00 00
	00		 je	 $L195606

; 113  : 		}
; 114  : 		
; 115  : 		m_mapState.clear();

  00052	8d 6f 04	 lea	 ebp, DWORD PTR [edi+4]
  00055	8b cd		 mov	 ecx, ebp
  00057	e8 00 00 00 00	 call	 ?clear@?$_Tree@V?$_Tmap_traits@EHU?$less@E@std@@V?$allocator@U?$pair@$$CBEH@std@@@2@$0A@@std@@@std@@QAEXXZ ; std::_Tree<std::_Tmap_traits<unsigned char,int,std::less<unsigned char>,std::allocator<std::pair<unsigned char const ,int> >,0> >::clear

; 116  : 		m_Lua.PushNil();

  0005c	8b 4f 34	 mov	 ecx, DWORD PTR [edi+52]
  0005f	51		 push	 ecx
  00060	e8 00 00 00 00	 call	 _lua_pushnil

; 117  : 		while( m_Lua.TableLoop(-2) )

  00065	8b 57 34	 mov	 edx, DWORD PTR [edi+52]
  00068	6a fe		 push	 -2			; fffffffeH
  0006a	52		 push	 edx
  0006b	e8 00 00 00 00	 call	 _lua_next
  00070	83 c4 0c	 add	 esp, 12			; 0000000cH
  00073	85 c0		 test	 eax, eax
  00075	74 5c		 je	 SHORT $L186937
$L186936:

; 118  : 		{
; 119  : 			BYTE nId = (BYTE)m_Lua.GetFieldToNumber( -1, "nId" );

  00077	68 00 00 00 00	 push	 OFFSET FLAT:??_C@_03HLJILIDP@nId?$AA@
  0007c	6a ff		 push	 -1
  0007e	8b ce		 mov	 ecx, esi
  00080	e8 00 00 00 00	 call	 ?GetFieldToNumber@CLuaBase@@QAENHPAD@Z ; CLuaBase::GetFieldToNumber

; 120  : 			BOOL bState = (BOOL)m_Lua.GetFieldToNumber( -1, "State" );
; 121  : 			m_mapState.insert( make_pair( nId, bState ) );

  00085	e8 00 00 00 00	 call	 __ftol2
  0008a	68 00 00 00 00	 push	 OFFSET FLAT:??_C@_05JNKNAC@State?$AA@
  0008f	6a ff		 push	 -1
  00091	8b ce		 mov	 ecx, esi
  00093	8a d8		 mov	 bl, al
  00095	e8 00 00 00 00	 call	 ?GetFieldToNumber@CLuaBase@@QAENHPAD@Z ; CLuaBase::GetFieldToNumber
  0009a	e8 00 00 00 00	 call	 __ftol2
  0009f	89 44 24 14	 mov	 DWORD PTR $T195563[esp+36], eax
  000a3	8d 44 24 10	 lea	 eax, DWORD PTR $T195563[esp+32]
  000a7	50		 push	 eax
  000a8	8d 4c 24 1c	 lea	 ecx, DWORD PTR $T195565[esp+36]
  000ac	51		 push	 ecx
  000ad	8b cd		 mov	 ecx, ebp
  000af	88 5c 24 18	 mov	 BYTE PTR $T195563[esp+40], bl
  000b3	e8 00 00 00 00	 call	 ?insert@?$_Tree@V?$_Tmap_traits@EHU?$less@E@std@@V?$allocator@U?$pair@$$CBEH@std@@@2@$0A@@std@@@std@@QAE?AU?$pair@Viterator@?$_Tree@V?$_Tmap_traits@EHU?$less@E@std@@V?$allocator@U?$pair@$$CBEH@std@@@2@$0A@@std@@@std@@_N@2@ABU?$pair@$$CBEH@2@@Z ; std::_Tree<std::_Tmap_traits<unsigned char,int,std::less<unsigned char>,std::allocator<std::pair<unsigned char const ,int> >,0> >::insert

; 122  : 			m_Lua.Pop( 1 );

  000b8	6a 01		 push	 1
  000ba	8b ce		 mov	 ecx, esi
  000bc	e8 00 00 00 00	 call	 ?Pop@CLuaBase@@QAEXH@Z	; CLuaBase::Pop
  000c1	8b 57 34	 mov	 edx, DWORD PTR [edi+52]
  000c4	6a fe		 push	 -2			; fffffffeH
  000c6	52		 push	 edx
  000c7	e8 00 00 00 00	 call	 _lua_next
  000cc	83 c4 08	 add	 esp, 8
  000cf	85 c0		 test	 eax, eax
  000d1	75 a4		 jne	 SHORT $L186936
$L186937:

; 123  : 		}
; 124  : 		
; 125  : 		if( m_mapState.empty() )

  000d3	8b 47 0c	 mov	 eax, DWORD PTR [edi+12]
  000d6	85 c0		 test	 eax, eax
  000d8	75 13		 jne	 SHORT $L187099
$L195606:

; 126  : 		{
; 127  : 			m_Lua.Pop(0);

  000da	6a 00		 push	 0
  000dc	8b ce		 mov	 ecx, esi
  000de	e8 00 00 00 00	 call	 ?Pop@CLuaBase@@QAEXH@Z	; CLuaBase::Pop
$L195607:

; 128  : 			return FALSE;

  000e3	33 c0		 xor	 eax, eax

; 132  : 	
; 133  : 	return TRUE;
; 134  : }

  000e5	5f		 pop	 edi
  000e6	5e		 pop	 esi
  000e7	5d		 pop	 ebp
  000e8	5b		 pop	 ebx
  000e9	8b e5		 mov	 esp, ebp
  000eb	5d		 pop	 ebp
  000ec	c3		 ret	 0
$L187099:

; 129  : 		}
; 130  : 	}
; 131  : 	m_Lua.Pop(0);

  000ed	6a 00		 push	 0
  000ef	8b ce		 mov	 ecx, esi
  000f1	e8 00 00 00 00	 call	 ?Pop@CLuaBase@@QAEXH@Z	; CLuaBase::Pop

; 132  : 	
; 133  : 	return TRUE;
; 134  : }

  000f6	5f		 pop	 edi
  000f7	b8 01 00 00 00	 mov	 eax, 1
  000fc	5e		 pop	 esi
  000fd	5d		 pop	 ebp
  000fe	5b		 pop	 ebx
  000ff	8b e5		 mov	 esp, ebp
  00101	5d		 pop	 ebp
  00102	c3		 ret	 0
?CheckEventState@CEventLua@@QAEHXZ ENDP			; CEventLua::CheckEventState
_TEXT	ENDS
PUBLIC	??0?$vector@V?$basic_string@DU?$char_traits@D@std@@V?$allocator@D@2@@std@@V?$allocator@V?$basic_string@DU?$char_traits@D@std@@V?$allocator@D@2@@std@@@2@@std@@QAE@XZ ; std::vector<std::basic_string<char,std::char_traits<char>,std::allocator<char> >,std::allocator<std::basic_string<char,std::char_traits<char>,std::allocator<char> > > >::vector<std::basic_string<char,std::char_traits<char>,std::allocator<char> >,std::allocator<std::basic_string<char,std::char_traits<char>,std::allocator<char> > > >
; Function compile flags: /Ogty
; File c:\program files\microsoft visual studio .net 2003\vc7\include\vector
;	COMDAT ??0?$vector@V?$basic_string@DU?$char_traits@D@std@@V?$allocator@D@2@@std@@V?$allocator@V?$basic_string@DU?$char_traits@D@std@@V?$allocator@D@2@@std@@@2@@std@@QAE@XZ
_TEXT	SEGMENT
??0?$vector@V?$basic_string@DU?$char_traits@D@std@@V?$allocator@D@2@@std@@V?$allocator@V?$basic_string@DU?$char_traits@D@std@@V?$allocator@D@2@@std@@@2@@std@@QAE@XZ PROC NEAR ; std::vector<std::basic_string<char,std::char_traits<char>,std::allocator<char> >,std::allocator<std::basic_string<char,std::char_traits<char>,std::allocator<char> > > >::vector<std::basic_string<char,std::char_traits<char>,std::allocator<char> >,std::allocator<std::basic_string<char,std::char_traits<char>,std::allocator<char> > > >, COMDAT
; _this$ = ecx

; 299  : 		{	// construct empty vector

  00000	8b c1		 mov	 eax, ecx

; 300  : 		_Buy(0);

  00002	33 c9		 xor	 ecx, ecx
  00004	89 48 04	 mov	 DWORD PTR [eax+4], ecx
  00007	89 48 08	 mov	 DWORD PTR [eax+8], ecx
  0000a	89 48 0c	 mov	 DWORD PTR [eax+12], ecx

; 301  : 		}

  0000d	c3		 ret	 0
??0?$vector@V?$basic_string@DU?$char_traits@D@std@@V?$allocator@D@2@@std@@V?$allocator@V?$basic_string@DU?$char_traits@D@std@@V?$allocator@D@2@@std@@@2@@std@@QAE@XZ ENDP ; std::vector<std::basic_string<char,std::char_traits<char>,std::allocator<char> >,std::allocator<std::basic_string<char,std::char_traits<char>,std::allocator<char> > > >::vector<std::basic_string<char,std::char_traits<char>,std::allocator<char> >,std::allocator<std::basic_string<char,std::char_traits<char>,std::allocator<char> > > >
_TEXT	ENDS
PUBLIC	??0?$vector@EV?$allocator@E@std@@@std@@QAE@XZ	; std::vector<unsigned char,std::allocator<unsigned char> >::vector<unsigned char,std::allocator<unsigned char> >
; Function compile flags: /Ogty
;	COMDAT ??0?$vector@EV?$allocator@E@std@@@std@@QAE@XZ
_TEXT	SEGMENT
??0?$vector@EV?$allocator@E@std@@@std@@QAE@XZ PROC NEAR	; std::vector<unsigned char,std::allocator<unsigned char> >::vector<unsigned char,std::allocator<unsigned char> >, COMDAT
; _this$ = ecx

; 299  : 		{	// construct empty vector

  00000	8b c1		 mov	 eax, ecx

; 300  : 		_Buy(0);

  00002	33 c9		 xor	 ecx, ecx
  00004	89 48 04	 mov	 DWORD PTR [eax+4], ecx
  00007	89 48 08	 mov	 DWORD PTR [eax+8], ecx
  0000a	89 48 0c	 mov	 DWORD PTR [eax+12], ecx

; 301  : 		}

  0000d	c3		 ret	 0
??0?$vector@EV?$allocator@E@std@@@std@@QAE@XZ ENDP	; std::vector<unsigned char,std::allocator<unsigned char> >::vector<unsigned char,std::allocator<unsigned char> >
_TEXT	ENDS
PUBLIC	??0?$vector@EV?$allocator@E@std@@@std@@QAE@ABV01@@Z ; std::vector<unsigned char,std::allocator<unsigned char> >::vector<unsigned char,std::allocator<unsigned char> >
;	COMDAT xdata$x
; File c:\program files\microsoft visual studio .net 2003\vc7\include\xutility
xdata$x	SEGMENT
$T195847 DD	0ffffffffH
	DD	00H
	DD	0ffffffffH
	DD	00H
$T195849 DD	00H
	DD	00H
	DD	00H
	DD	FLAT:$L195732
$T195848 DD	00H
	DD	00H
	DD	01H
	DD	01H
	DD	FLAT:$T195849
$T195843 DD	019930520H
	DD	02H
	DD	FLAT:$T195847
	DD	01H
	DD	FLAT:$T195848
	DD	2 DUP(00H)
; Function compile flags: /Ogty
; File c:\program files\microsoft visual studio .net 2003\vc7\include\vector
xdata$x	ENDS
;	COMDAT ??0?$vector@EV?$allocator@E@std@@@std@@QAE@ABV01@@Z
_TEXT	SEGMENT
_this$ = -20						; size = 4
__$EHRec$ = -16						; size = 16
__Cat$195836 = 8					; size = 1
__Right$ = 8						; size = 4
??0?$vector@EV?$allocator@E@std@@@std@@QAE@ABV01@@Z PROC NEAR ; std::vector<unsigned char,std::allocator<unsigned char> >::vector<unsigned char,std::allocator<unsigned char> >, COMDAT
; _this$ = ecx

; 329  : 		{	// construct by copying _Right

  00000	55		 push	 ebp
  00001	8b ec		 mov	 ebp, esp
  00003	6a ff		 push	 -1
  00005	68 00 00 00 00	 push	 __ehhandler$??0?$vector@EV?$allocator@E@std@@@std@@QAE@ABV01@@Z
  0000a	64 a1 00 00 00
	00		 mov	 eax, DWORD PTR fs:__except_list
  00010	50		 push	 eax
  00011	64 89 25 00 00
	00 00		 mov	 DWORD PTR fs:__except_list, esp
  00018	83 ec 08	 sub	 esp, 8
  0001b	53		 push	 ebx

; 330  : 		if (_Buy(_Right.size()))

  0001c	8b 5d 08	 mov	 ebx, DWORD PTR __Right$[ebp]
  0001f	8b 43 04	 mov	 eax, DWORD PTR [ebx+4]
  00022	56		 push	 esi
  00023	8b f1		 mov	 esi, ecx
  00025	33 c9		 xor	 ecx, ecx
  00027	3b c1		 cmp	 eax, ecx
  00029	57		 push	 edi
  0002a	89 65 f0	 mov	 DWORD PTR __$EHRec$[ebp], esp
  0002d	89 75 ec	 mov	 DWORD PTR _this$[ebp], esi
  00030	75 04		 jne	 SHORT $L195750
  00032	33 ff		 xor	 edi, edi
  00034	eb 05		 jmp	 SHORT $L195751
$L195750:
  00036	8b 7b 08	 mov	 edi, DWORD PTR [ebx+8]
  00039	2b f8		 sub	 edi, eax
$L195751:
  0003b	3b f9		 cmp	 edi, ecx
  0003d	89 4e 04	 mov	 DWORD PTR [esi+4], ecx
  00040	89 4e 08	 mov	 DWORD PTR [esi+8], ecx
  00043	89 4e 0c	 mov	 DWORD PTR [esi+12], ecx
  00046	74 3e		 je	 SHORT $L187536
  00048	83 ff ff	 cmp	 edi, -1
  0004b	76 07		 jbe	 SHORT $L195793
  0004d	8b ce		 mov	 ecx, esi
  0004f	e8 00 00 00 00	 call	 ?_Xlen@?$vector@EV?$allocator@E@std@@@std@@IBEXXZ ; std::vector<unsigned char,std::allocator<unsigned char> >::_Xlen
$L195793:
  00054	57		 push	 edi
  00055	e8 00 00 00 00	 call	 ??2@YAPAXI@Z		; operator new

; 331  : 			_TRY_BEGIN
; 332  : 			_Mylast = _Ucopy(_Right.begin(), _Right.end(), _Myfirst);

  0005a	8b 55 08	 mov	 edx, DWORD PTR __Cat$195836[ebp]
  0005d	52		 push	 edx
  0005e	8d 0c 38	 lea	 ecx, DWORD PTR [eax+edi]
  00061	56		 push	 esi
  00062	89 46 04	 mov	 DWORD PTR [esi+4], eax
  00065	89 46 08	 mov	 DWORD PTR [esi+8], eax
  00068	89 4e 0c	 mov	 DWORD PTR [esi+12], ecx
  0006b	8b 4b 08	 mov	 ecx, DWORD PTR [ebx+8]
  0006e	8b 5b 04	 mov	 ebx, DWORD PTR [ebx+4]
  00071	50		 push	 eax
  00072	51		 push	 ecx
  00073	53		 push	 ebx
  00074	c7 45 fc 00 00
	00 00		 mov	 DWORD PTR __$EHRec$[ebp+12], 0
  0007b	e8 00 00 00 00	 call	 ??$_Uninit_copy@Vconst_iterator@?$vector@EV?$allocator@E@std@@@std@@PAEV?$allocator@E@3@@std@@YAPAEVconst_iterator@?$vector@EV?$allocator@E@std@@@0@0PAEAAV?$allocator@E@0@U_Nonscalar_ptr_iterator_tag@0@@Z ; std::_Uninit_copy<std::vector<unsigned char,std::allocator<unsigned char> >::const_iterator,unsigned char *,std::allocator<unsigned char> >
  00080	83 c4 18	 add	 esp, 24			; 00000018H
  00083	89 46 08	 mov	 DWORD PTR [esi+8], eax
$L187536:

; 336  : 			_CATCH_END
; 337  : 		}

  00086	8b 4d f4	 mov	 ecx, DWORD PTR __$EHRec$[ebp+4]
  00089	5f		 pop	 edi
  0008a	8b c6		 mov	 eax, esi
  0008c	5e		 pop	 esi
  0008d	64 89 0d 00 00
	00 00		 mov	 DWORD PTR fs:__except_list, ecx
  00094	5b		 pop	 ebx
  00095	8b e5		 mov	 esp, ebp
  00097	5d		 pop	 ebp
  00098	c2 04 00	 ret	 4
$L195732:

; 333  : 			_CATCH_ALL
; 334  : 			_Tidy();

  0009b	8b 4d ec	 mov	 ecx, DWORD PTR _this$[ebp]
  0009e	e8 00 00 00 00	 call	 ?_Tidy@?$vector@EV?$allocator@E@std@@@std@@IAEXXZ ; std::vector<unsigned char,std::allocator<unsigned char> >::_Tidy

; 335  : 			_RERAISE;

  000a3	6a 00		 push	 0
  000a5	6a 00		 push	 0
  000a7	e8 00 00 00 00	 call	 __CxxThrowException@8
$L195846:
  000ac	cc		 int	 3
_TEXT	ENDS
;	COMDAT text$x
text$x	SEGMENT
__ehhandler$??0?$vector@EV?$allocator@E@std@@@std@@QAE@ABV01@@Z:
  00000	b8 00 00 00 00	 mov	 eax, OFFSET FLAT:$T195843
  00005	e9 00 00 00 00	 jmp	 ___CxxFrameHandler
text$x	ENDS
??0?$vector@EV?$allocator@E@std@@@std@@QAE@ABV01@@Z ENDP ; std::vector<unsigned char,std::allocator<unsigned char> >::vector<unsigned char,std::allocator<unsigned char> >
PUBLIC	?_Tidy@?$_Tree@V?$_Tmap_traits@EHU?$less@E@std@@V?$allocator@U?$pair@$$CBEH@std@@@2@$0A@@std@@@std@@IAEXXZ ; std::_Tree<std::_Tmap_traits<unsigned char,int,std::less<unsigned char>,std::allocator<std::pair<unsigned char const ,int> >,0> >::_Tidy
; Function compile flags: /Ogty
; File c:\program files\microsoft visual studio .net 2003\vc7\include\xtree
;	COMDAT ?_Tidy@?$_Tree@V?$_Tmap_traits@EHU?$less@E@std@@V?$allocator@U?$pair@$$CBEH@std@@@2@$0A@@std@@@std@@IAEXXZ
_TEXT	SEGMENT
$T195855 = -4						; size = 4
?_Tidy@?$_Tree@V?$_Tmap_traits@EHU?$less@E@std@@V?$allocator@U?$pair@$$CBEH@std@@@2@$0A@@std@@@std@@IAEXXZ PROC NEAR ; std::_Tree<std::_Tmap_traits<unsigned char,int,std::less<unsigned char>,std::allocator<std::pair<unsigned char const ,int> >,0> >::_Tidy, COMDAT
; _this$ = ecx

; 1142 : 		{	// free all storage

  00000	51		 push	 ecx
  00001	56		 push	 esi
  00002	8b f1		 mov	 esi, ecx

; 1143 : 		erase(begin(), end());

  00004	8b 46 04	 mov	 eax, DWORD PTR [esi+4]
  00007	8b 08		 mov	 ecx, DWORD PTR [eax]
  00009	50		 push	 eax
  0000a	51		 push	 ecx
  0000b	8d 44 24 0c	 lea	 eax, DWORD PTR $T195855[esp+16]
  0000f	50		 push	 eax
  00010	8b ce		 mov	 ecx, esi
  00012	e8 00 00 00 00	 call	 ?erase@?$_Tree@V?$_Tmap_traits@EHU?$less@E@std@@V?$allocator@U?$pair@$$CBEH@std@@@2@$0A@@std@@@std@@QAE?AViterator@12@V312@0@Z ; std::_Tree<std::_Tmap_traits<unsigned char,int,std::less<unsigned char>,std::allocator<std::pair<unsigned char const ,int> >,0> >::erase

; 1144 : 		this->_Alptr.destroy(&_Left(_Myhead));
; 1145 : 		this->_Alptr.destroy(&_Parent(_Myhead));
; 1146 : 		this->_Alptr.destroy(&_Right(_Myhead));
; 1147 : 		this->_Alnod.deallocate(_Myhead, 1);

  00017	8b 4e 04	 mov	 ecx, DWORD PTR [esi+4]
  0001a	51		 push	 ecx
  0001b	e8 00 00 00 00	 call	 ??3@YAXPAX@Z		; operator delete
  00020	83 c4 04	 add	 esp, 4

; 1148 : 		_Myhead = 0, _Mysize = 0;

  00023	33 c0		 xor	 eax, eax
  00025	89 46 04	 mov	 DWORD PTR [esi+4], eax
  00028	89 46 08	 mov	 DWORD PTR [esi+8], eax
  0002b	5e		 pop	 esi

; 1149 : 		}

  0002c	59		 pop	 ecx
  0002d	c3		 ret	 0
?_Tidy@?$_Tree@V?$_Tmap_traits@EHU?$less@E@std@@V?$allocator@U?$pair@$$CBEH@std@@@2@$0A@@std@@@std@@IAEXXZ ENDP ; std::_Tree<std::_Tmap_traits<unsigned char,int,std::less<unsigned char>,std::allocator<std::pair<unsigned char const ,int> >,0> >::_Tidy
_TEXT	ENDS
PUBLIC	?insert@?$vector@EV?$allocator@E@std@@@std@@QAE?AViterator@12@V312@ABE@Z ; std::vector<unsigned char,std::allocator<unsigned char> >::insert
; Function compile flags: /Ogty
; File c:\program files\microsoft visual studio .net 2003\vc7\include\vector
;	COMDAT ?insert@?$vector@EV?$allocator@E@std@@@std@@QAE?AViterator@12@V312@ABE@Z
_TEXT	SEGMENT
___$ReturnUdt$ = 8					; size = 4
tv89 = 12						; size = 4
__Where$ = 12						; size = 4
__Val$ = 16						; size = 4
?insert@?$vector@EV?$allocator@E@std@@@std@@QAE?AViterator@12@V312@ABE@Z PROC NEAR ; std::vector<unsigned char,std::allocator<unsigned char> >::insert, COMDAT
; _this$ = ecx

; 620  : 		{	// insert _Val at _Where

  00000	56		 push	 esi
  00001	8b f1		 mov	 esi, ecx

; 621  : 		size_type _Off = size() == 0 ? 0 : _Where - begin();

  00003	8b 46 04	 mov	 eax, DWORD PTR [esi+4]
  00006	85 c0		 test	 eax, eax
  00008	8b 4c 24 0c	 mov	 ecx, DWORD PTR __Where$[esp]
  0000c	57		 push	 edi
  0000d	74 0b		 je	 SHORT $L195979
  0000f	8b 56 08	 mov	 edx, DWORD PTR [esi+8]
  00012	2b d0		 sub	 edx, eax
  00014	89 54 24 10	 mov	 DWORD PTR tv89[esp+4], edx
  00018	75 04		 jne	 SHORT $L195918
$L195979:
  0001a	33 ff		 xor	 edi, edi
  0001c	eb 04		 jmp	 SHORT $L195919
$L195918:
  0001e	8b f9		 mov	 edi, ecx
  00020	2b f8		 sub	 edi, eax
$L195919:

; 622  : 		_Insert_n(_Where, (size_type)1, _Val);

  00022	8b 44 24 14	 mov	 eax, DWORD PTR __Val$[esp+4]
  00026	50		 push	 eax
  00027	6a 01		 push	 1
  00029	51		 push	 ecx
  0002a	8b ce		 mov	 ecx, esi
  0002c	e8 00 00 00 00	 call	 ?_Insert_n@?$vector@EV?$allocator@E@std@@@std@@IAEXViterator@12@IABE@Z ; std::vector<unsigned char,std::allocator<unsigned char> >::_Insert_n

; 623  : 		return (begin() + _Off);

  00031	8b 4e 04	 mov	 ecx, DWORD PTR [esi+4]
  00034	8b 44 24 0c	 mov	 eax, DWORD PTR ___$ReturnUdt$[esp+4]
  00038	03 cf		 add	 ecx, edi
  0003a	5f		 pop	 edi
  0003b	89 08		 mov	 DWORD PTR [eax], ecx
  0003d	5e		 pop	 esi

; 624  : 		}

  0003e	c2 0c 00	 ret	 12			; 0000000cH
?insert@?$vector@EV?$allocator@E@std@@@std@@QAE?AViterator@12@V312@ABE@Z ENDP ; std::vector<unsigned char,std::allocator<unsigned char> >::insert
_TEXT	ENDS
PUBLIC	?_Destroy@?$vector@V?$basic_string@DU?$char_traits@D@std@@V?$allocator@D@2@@std@@V?$allocator@V?$basic_string@DU?$char_traits@D@std@@V?$allocator@D@2@@std@@@2@@std@@IAEXPAV?$basic_string@DU?$char_traits@D@std@@V?$allocator@D@2@@2@0@Z ; std::vector<std::basic_string<char,std::char_traits<char>,std::allocator<char> >,std::allocator<std::basic_string<char,std::char_traits<char>,std::allocator<char> > > >::_Destroy
; Function compile flags: /Ogty
;	COMDAT ?_Destroy@?$vector@V?$basic_string@DU?$char_traits@D@std@@V?$allocator@D@2@@std@@V?$allocator@V?$basic_string@DU?$char_traits@D@std@@V?$allocator@D@2@@std@@@2@@std@@IAEXPAV?$basic_string@DU?$char_traits@D@std@@V?$allocator@D@2@@2@0@Z
_TEXT	SEGMENT
__First$ = 8						; size = 4
__Cat$195992 = 12					; size = 1
__Last$ = 12						; size = 4
?_Destroy@?$vector@V?$basic_string@DU?$char_traits@D@std@@V?$allocator@D@2@@std@@V?$allocator@V?$basic_string@DU?$char_traits@D@std@@V?$allocator@D@2@@std@@@2@@std@@IAEXPAV?$basic_string@DU?$char_traits@D@std@@V?$allocator@D@2@@2@0@Z PROC NEAR ; std::vector<std::basic_string<char,std::char_traits<char>,std::allocator<char> >,std::allocator<std::basic_string<char,std::char_traits<char>,std::allocator<char> > > >::_Destroy, COMDAT
; _this$ = ecx

; 787  : 		_Destroy_range(_First, _Last, this->_Alval);

  00000	8b 44 24 08	 mov	 eax, DWORD PTR __Cat$195992[esp-4]
  00004	8b 54 24 04	 mov	 edx, DWORD PTR __First$[esp-4]
  00008	50		 push	 eax
  00009	51		 push	 ecx
  0000a	8b 4c 24 10	 mov	 ecx, DWORD PTR __Last$[esp+4]
  0000e	51		 push	 ecx
  0000f	52		 push	 edx
  00010	e8 00 00 00 00	 call	 ??$_Destroy_range@V?$basic_string@DU?$char_traits@D@std@@V?$allocator@D@2@@std@@V?$allocator@V?$basic_string@DU?$char_traits@D@std@@V?$allocator@D@2@@std@@@2@@std@@YAXPAV?$basic_string@DU?$char_traits@D@std@@V?$allocator@D@2@@0@0AAV?$allocator@V?$basic_string@DU?$char_traits@D@std@@V?$allocator@D@2@@std@@@0@U_Nonscalar_ptr_iterator_tag@0@@Z ; std::_Destroy_range<std::basic_string<char,std::char_traits<char>,std::allocator<char> >,std::allocator<std::basic_string<char,std::char_traits<char>,std::allocator<char> > > >
  00015	83 c4 10	 add	 esp, 16			; 00000010H

; 788  : 		}

  00018	c2 08 00	 ret	 8
?_Destroy@?$vector@V?$basic_string@DU?$char_traits@D@std@@V?$allocator@D@2@@std@@V?$allocator@V?$basic_string@DU?$char_traits@D@std@@V?$allocator@D@2@@std@@@2@@std@@IAEXPAV?$basic_string@DU?$char_traits@D@std@@V?$allocator@D@2@@2@0@Z ENDP ; std::vector<std::basic_string<char,std::char_traits<char>,std::allocator<char> >,std::allocator<std::basic_string<char,std::char_traits<char>,std::allocator<char> > > >::_Destroy
_TEXT	ENDS
PUBLIC	??$_Ucopy@Vconst_iterator@?$vector@V?$basic_string@DU?$char_traits@D@std@@V?$allocator@D@2@@std@@V?$allocator@V?$basic_string@DU?$char_traits@D@std@@V?$allocator@D@2@@std@@@2@@std@@@?$vector@V?$basic_string@DU?$char_traits@D@std@@V?$allocator@D@2@@std@@V?$allocator@V?$basic_string@DU?$char_traits@D@std@@V?$allocator@D@2@@std@@@2@@std@@IAEPAV?$basic_string@DU?$char_traits@D@std@@V?$allocator@D@2@@1@Vconst_iterator@01@0PAV21@@Z ; std::vector<std::basic_string<char,std::char_traits<char>,std::allocator<char> >,std::allocator<std::basic_string<char,std::char_traits<char>,std::allocator<char> > > >::_Ucopy<std::vector<std::basic_string<char,std::char_traits<char>,std::allocator<char> >,std::allocator<std::basic_string<char,std::char_traits<char>,std::allocator<char> > > >::const_iterator>
; Function compile flags: /Ogty
;	COMDAT ??$_Ucopy@Vconst_iterator@?$vector@V?$basic_string@DU?$char_traits@D@std@@V?$allocator@D@2@@std@@V?$allocator@V?$basic_string@DU?$char_traits@D@std@@V?$allocator@D@2@@std@@@2@@std@@@?$vector@V?$basic_string@DU?$char_traits@D@std@@V?$allocator@D@2@@std@@V?$allocator@V?$basic_string@DU?$char_traits@D@std@@V?$allocator@D@2@@std@@@2@@std@@IAEPAV?$basic_string@DU?$char_traits@D@std@@V?$allocator@D@2@@1@Vconst_iterator@01@0PAV21@@Z
_TEXT	SEGMENT
__First$ = 8						; size = 4
__Last$ = 12						; size = 4
__Cat$196009 = 16					; size = 1
__Ptr$ = 16						; size = 4
??$_Ucopy@Vconst_iterator@?$vector@V?$basic_string@DU?$char_traits@D@std@@V?$allocator@D@2@@std@@V?$allocator@V?$basic_string@DU?$char_traits@D@std@@V?$allocator@D@2@@std@@@2@@std@@@?$vector@V?$basic_string@DU?$char_traits@D@std@@V?$allocator@D@2@@std@@V?$allocator@V?$basic_string@DU?$char_traits@D@std@@V?$allocator@D@2@@std@@@2@@std@@IAEPAV?$basic_string@DU?$char_traits@D@std@@V?$allocator@D@2@@1@Vconst_iterator@01@0PAV21@@Z PROC NEAR ; std::vector<std::basic_string<char,std::char_traits<char>,std::allocator<char> >,std::allocator<std::basic_string<char,std::char_traits<char>,std::allocator<char> > > >::_Ucopy<std::vector<std::basic_string<char,std::char_traits<char>,std::allocator<char> >,std::allocator<std::basic_string<char,std::char_traits<char>,std::allocator<char> > > >::const_iterator>, COMDAT
; _this$ = ecx

; 802  : 		{	// copy initializing [_First, _Last), using allocator
; 803  : 		return (_Uninitialized_copy(_First, _Last,
; 804  : 			_Ptr, this->_Alval));

  00000	8b 44 24 0c	 mov	 eax, DWORD PTR __Cat$196009[esp-4]
  00004	8b 54 24 08	 mov	 edx, DWORD PTR __Last$[esp-4]
  00008	50		 push	 eax
  00009	8b 44 24 08	 mov	 eax, DWORD PTR __First$[esp]
  0000d	51		 push	 ecx
  0000e	8b 4c 24 14	 mov	 ecx, DWORD PTR __Ptr$[esp+4]
  00012	51		 push	 ecx
  00013	52		 push	 edx
  00014	50		 push	 eax
  00015	e8 00 00 00 00	 call	 ??$_Uninit_copy@Vconst_iterator@?$vector@V?$basic_string@DU?$char_traits@D@std@@V?$allocator@D@2@@std@@V?$allocator@V?$basic_string@DU?$char_traits@D@std@@V?$allocator@D@2@@std@@@2@@std@@PAV?$basic_string@DU?$char_traits@D@std@@V?$allocator@D@2@@3@V?$allocator@V?$basic_string@DU?$char_traits@D@std@@V?$allocator@D@2@@std@@@3@@std@@YAPAV?$basic_string@DU?$char_traits@D@std@@V?$allocator@D@2@@0@Vconst_iterator@?$vector@V?$basic_string@DU?$char_traits@D@std@@V?$allocator@D@2@@std@@V?$allocator@V?$basic_string@DU?$char_traits@D@std@@V?$allocator@D@2@@std@@@2@@0@0PAV10@AAV?$allocator@V?$basic_string@DU?$char_traits@D@std@@V?$allocator@D@2@@std@@@0@U_Nonscalar_ptr_iterator_tag@0@@Z ; std::_Uninit_copy<std::vector<std::basic_string<char,std::char_traits<char>,std::allocator<char> >,std::allocator<std::basic_string<char,std::char_traits<char>,std::allocator<char> > > >::const_iterator,std::basic_string<char,std::char_traits<char>,std::allocator<char> > *,std::allocator<std::basic_string<char,std::char_traits<char>,std::allocator<char> > > >
  0001a	83 c4 14	 add	 esp, 20			; 00000014H

; 805  : 		}

  0001d	c2 0c 00	 ret	 12			; 0000000cH
??$_Ucopy@Vconst_iterator@?$vector@V?$basic_string@DU?$char_traits@D@std@@V?$allocator@D@2@@std@@V?$allocator@V?$basic_string@DU?$char_traits@D@std@@V?$allocator@D@2@@std@@@2@@std@@@?$vector@V?$basic_string@DU?$char_traits@D@std@@V?$allocator@D@2@@std@@V?$allocator@V?$basic_string@DU?$char_traits@D@std@@V?$allocator@D@2@@std@@@2@@std@@IAEPAV?$basic_string@DU?$char_traits@D@std@@V?$allocator@D@2@@1@Vconst_iterator@01@0PAV21@@Z ENDP ; std::vector<std::basic_string<char,std::char_traits<char>,std::allocator<char> >,std::allocator<std::basic_string<char,std::char_traits<char>,std::allocator<char> > > >::_Ucopy<std::vector<std::basic_string<char,std::char_traits<char>,std::allocator<char> >,std::allocator<std::basic_string<char,std::char_traits<char>,std::allocator<char> > > >::const_iterator>
_TEXT	ENDS
PUBLIC	??$_Uninitialized_fill_n@PAV?$basic_string@DU?$char_traits@D@std@@V?$allocator@D@2@@std@@IV12@V?$allocator@V?$basic_string@DU?$char_traits@D@std@@V?$allocator@D@2@@std@@@2@@std@@YAXPAV?$basic_string@DU?$char_traits@D@std@@V?$allocator@D@2@@0@IABV10@AAV?$allocator@V?$basic_string@DU?$char_traits@D@std@@V?$allocator@D@2@@std@@@0@@Z ; std::_Uninitialized_fill_n<std::basic_string<char,std::char_traits<char>,std::allocator<char> > *,unsigned int,std::basic_string<char,std::char_traits<char>,std::allocator<char> >,std::allocator<std::basic_string<char,std::char_traits<char>,std::allocator<char> > > >
; Function compile flags: /Ogty
; File c:\program files\microsoft visual studio .net 2003\vc7\include\memory
;	COMDAT ??$_Uninitialized_fill_n@PAV?$basic_string@DU?$char_traits@D@std@@V?$allocator@D@2@@std@@IV12@V?$allocator@V?$basic_string@DU?$char_traits@D@std@@V?$allocator@D@2@@std@@@2@@std@@YAXPAV?$basic_string@DU?$char_traits@D@std@@V?$allocator@D@2@@0@IABV10@AAV?$allocator@V?$basic_string@DU?$char_traits@D@std@@V?$allocator@D@2@@std@@@0@@Z
_TEXT	SEGMENT
__Cat$196017 = -4					; size = 1
__First$ = 8						; size = 4
__Count$ = 12						; size = 4
__Val$ = 16						; size = 4
__Al$ = 20						; size = 4
??$_Uninitialized_fill_n@PAV?$basic_string@DU?$char_traits@D@std@@V?$allocator@D@2@@std@@IV12@V?$allocator@V?$basic_string@DU?$char_traits@D@std@@V?$allocator@D@2@@std@@@2@@std@@YAXPAV?$basic_string@DU?$char_traits@D@std@@V?$allocator@D@2@@0@IABV10@AAV?$allocator@V?$basic_string@DU?$char_traits@D@std@@V?$allocator@D@2@@std@@@0@@Z PROC NEAR ; std::_Uninitialized_fill_n<std::basic_string<char,std::char_traits<char>,std::allocator<char> > *,unsigned int,std::basic_string<char,std::char_traits<char>,std::allocator<char> >,std::allocator<std::basic_string<char,std::char_traits<char>,std::allocator<char> > > >, COMDAT

; 255  : 	{	// copy _Count *_Val to raw _First, using _Al

  00000	51		 push	 ecx

; 256  : 	_Uninit_fill_n(_First, _Count, _Val, _Al,
; 257  : 		_Ptr_cat(_First, _First));

  00001	8b 04 24	 mov	 eax, DWORD PTR __Cat$196017[esp+4]
  00004	8b 4c 24 14	 mov	 ecx, DWORD PTR __Al$[esp]
  00008	8b 54 24 10	 mov	 edx, DWORD PTR __Val$[esp]
  0000c	50		 push	 eax
  0000d	8b 44 24 10	 mov	 eax, DWORD PTR __Count$[esp+4]
  00011	51		 push	 ecx
  00012	8b 4c 24 10	 mov	 ecx, DWORD PTR __First$[esp+8]
  00016	52		 push	 edx
  00017	50		 push	 eax
  00018	51		 push	 ecx
  00019	e8 00 00 00 00	 call	 ??$_Uninit_fill_n@PAV?$basic_string@DU?$char_traits@D@std@@V?$allocator@D@2@@std@@IV12@V?$allocator@V?$basic_string@DU?$char_traits@D@std@@V?$allocator@D@2@@std@@@2@@std@@YAXPAV?$basic_string@DU?$char_traits@D@std@@V?$allocator@D@2@@0@IABV10@AAV?$allocator@V?$basic_string@DU?$char_traits@D@std@@V?$allocator@D@2@@std@@@0@U_Nonscalar_ptr_iterator_tag@0@@Z ; std::_Uninit_fill_n<std::basic_string<char,std::char_traits<char>,std::allocator<char> > *,unsigned int,std::basic_string<char,std::char_traits<char>,std::allocator<char> >,std::allocator<std::basic_string<char,std::char_traits<char>,std::allocator<char> > > >

; 258  : 	}

  0001e	83 c4 18	 add	 esp, 24			; 00000018H
  00021	c3		 ret	 0
??$_Uninitialized_fill_n@PAV?$basic_string@DU?$char_traits@D@std@@V?$allocator@D@2@@std@@IV12@V?$allocator@V?$basic_string@DU?$char_traits@D@std@@V?$allocator@D@2@@std@@@2@@std@@YAXPAV?$basic_string@DU?$char_traits@D@std@@V?$allocator@D@2@@0@IABV10@AAV?$allocator@V?$basic_string@DU?$char_traits@D@std@@V?$allocator@D@2@@std@@@0@@Z ENDP ; std::_Uninitialized_fill_n<std::basic_string<char,std::char_traits<char>,std::allocator<char> > *,unsigned int,std::basic_string<char,std::char_traits<char>,std::allocator<char> >,std::allocator<std::basic_string<char,std::char_traits<char>,std::allocator<char> > > >
_TEXT	ENDS
PUBLIC	??$_Ucopy@PAV?$basic_string@DU?$char_traits@D@std@@V?$allocator@D@2@@std@@@?$vector@V?$basic_string@DU?$char_traits@D@std@@V?$allocator@D@2@@std@@V?$allocator@V?$basic_string@DU?$char_traits@D@std@@V?$allocator@D@2@@std@@@2@@std@@IAEPAV?$basic_string@DU?$char_traits@D@std@@V?$allocator@D@2@@1@PAV21@00@Z ; std::vector<std::basic_string<char,std::char_traits<char>,std::allocator<char> >,std::allocator<std::basic_string<char,std::char_traits<char>,std::allocator<char> > > >::_Ucopy<std::basic_string<char,std::char_traits<char>,std::allocator<char> > *>
; Function compile flags: /Ogty
; File c:\program files\microsoft visual studio .net 2003\vc7\include\vector
;	COMDAT ??$_Ucopy@PAV?$basic_string@DU?$char_traits@D@std@@V?$allocator@D@2@@std@@@?$vector@V?$basic_string@DU?$char_traits@D@std@@V?$allocator@D@2@@std@@V?$allocator@V?$basic_string@DU?$char_traits@D@std@@V?$allocator@D@2@@std@@@2@@std@@IAEPAV?$basic_string@DU?$char_traits@D@std@@V?$allocator@D@2@@1@PAV21@00@Z
_TEXT	SEGMENT
__First$ = 8						; size = 4
__Last$ = 12						; size = 4
__Cat$196031 = 16					; size = 1
__Ptr$ = 16						; size = 4
??$_Ucopy@PAV?$basic_string@DU?$char_traits@D@std@@V?$allocator@D@2@@std@@@?$vector@V?$basic_string@DU?$char_traits@D@std@@V?$allocator@D@2@@std@@V?$allocator@V?$basic_string@DU?$char_traits@D@std@@V?$allocator@D@2@@std@@@2@@std@@IAEPAV?$basic_string@DU?$char_traits@D@std@@V?$allocator@D@2@@1@PAV21@00@Z PROC NEAR ; std::vector<std::basic_string<char,std::char_traits<char>,std::allocator<char> >,std::allocator<std::basic_string<char,std::char_traits<char>,std::allocator<char> > > >::_Ucopy<std::basic_string<char,std::char_traits<char>,std::allocator<char> > *>, COMDAT
; _this$ = ecx

; 802  : 		{	// copy initializing [_First, _Last), using allocator
; 803  : 		return (_Uninitialized_copy(_First, _Last,
; 804  : 			_Ptr, this->_Alval));

  00000	8b 44 24 0c	 mov	 eax, DWORD PTR __Cat$196031[esp-4]
  00004	8b 54 24 08	 mov	 edx, DWORD PTR __Last$[esp-4]
  00008	50		 push	 eax
  00009	8b 44 24 08	 mov	 eax, DWORD PTR __First$[esp]
  0000d	51		 push	 ecx
  0000e	8b 4c 24 14	 mov	 ecx, DWORD PTR __Ptr$[esp+4]
  00012	51		 push	 ecx
  00013	52		 push	 edx
  00014	50		 push	 eax
  00015	e8 00 00 00 00	 call	 ??$_Uninit_copy@PAV?$basic_string@DU?$char_traits@D@std@@V?$allocator@D@2@@std@@PAV12@V?$allocator@V?$basic_string@DU?$char_traits@D@std@@V?$allocator@D@2@@std@@@2@@std@@YAPAV?$basic_string@DU?$char_traits@D@std@@V?$allocator@D@2@@0@PAV10@00AAV?$allocator@V?$basic_string@DU?$char_traits@D@std@@V?$allocator@D@2@@std@@@0@U_Nonscalar_ptr_iterator_tag@0@@Z ; std::_Uninit_copy<std::basic_string<char,std::char_traits<char>,std::allocator<char> > *,std::basic_string<char,std::char_traits<char>,std::allocator<char> > *,std::allocator<std::basic_string<char,std::char_traits<char>,std::allocator<char> > > >
  0001a	83 c4 14	 add	 esp, 20			; 00000014H

; 805  : 		}

  0001d	c2 0c 00	 ret	 12			; 0000000cH
??$_Ucopy@PAV?$basic_string@DU?$char_traits@D@std@@V?$allocator@D@2@@std@@@?$vector@V?$basic_string@DU?$char_traits@D@std@@V?$allocator@D@2@@std@@V?$allocator@V?$basic_string@DU?$char_traits@D@std@@V?$allocator@D@2@@std@@@2@@std@@IAEPAV?$basic_string@DU?$char_traits@D@std@@V?$allocator@D@2@@1@PAV21@00@Z ENDP ; std::vector<std::basic_string<char,std::char_traits<char>,std::allocator<char> >,std::allocator<std::basic_string<char,std::char_traits<char>,std::allocator<char> > > >::_Ucopy<std::basic_string<char,std::char_traits<char>,std::allocator<char> > *>
_TEXT	ENDS
PUBLIC	??1?$_Tree@V?$_Tmap_traits@EHU?$less@E@std@@V?$allocator@U?$pair@$$CBEH@std@@@2@$0A@@std@@@std@@QAE@XZ ; std::_Tree<std::_Tmap_traits<unsigned char,int,std::less<unsigned char>,std::allocator<std::pair<unsigned char const ,int> >,0> >::~_Tree<std::_Tmap_traits<unsigned char,int,std::less<unsigned char>,std::allocator<std::pair<unsigned char const ,int> >,0> >
; Function compile flags: /Ogty
; File c:\program files\microsoft visual studio .net 2003\vc7\include\xtree
;	COMDAT ??1?$_Tree@V?$_Tmap_traits@EHU?$less@E@std@@V?$allocator@U?$pair@$$CBEH@std@@@2@$0A@@std@@@std@@QAE@XZ
_TEXT	SEGMENT
$T196104 = -4						; size = 4
??1?$_Tree@V?$_Tmap_traits@EHU?$less@E@std@@V?$allocator@U?$pair@$$CBEH@std@@@2@$0A@@std@@@std@@QAE@XZ PROC NEAR ; std::_Tree<std::_Tmap_traits<unsigned char,int,std::less<unsigned char>,std::allocator<std::pair<unsigned char const ,int> >,0> >::~_Tree<std::_Tmap_traits<unsigned char,int,std::less<unsigned char>,std::allocator<std::pair<unsigned char const ,int> >,0> >, COMDAT
; _this$ = ecx

; 391  : 		{	// destroy tree

  00000	51		 push	 ecx
  00001	56		 push	 esi
  00002	8b f1		 mov	 esi, ecx

; 392  : 		_Tidy();

  00004	8b 46 04	 mov	 eax, DWORD PTR [esi+4]
  00007	8b 08		 mov	 ecx, DWORD PTR [eax]
  00009	50		 push	 eax
  0000a	51		 push	 ecx
  0000b	8d 44 24 0c	 lea	 eax, DWORD PTR $T196104[esp+16]
  0000f	50		 push	 eax
  00010	8b ce		 mov	 ecx, esi
  00012	e8 00 00 00 00	 call	 ?erase@?$_Tree@V?$_Tmap_traits@EHU?$less@E@std@@V?$allocator@U?$pair@$$CBEH@std@@@2@$0A@@std@@@std@@QAE?AViterator@12@V312@0@Z ; std::_Tree<std::_Tmap_traits<unsigned char,int,std::less<unsigned char>,std::allocator<std::pair<unsigned char const ,int> >,0> >::erase
  00017	8b 4e 04	 mov	 ecx, DWORD PTR [esi+4]
  0001a	51		 push	 ecx
  0001b	e8 00 00 00 00	 call	 ??3@YAXPAX@Z		; operator delete
  00020	83 c4 04	 add	 esp, 4
  00023	33 c0		 xor	 eax, eax
  00025	89 46 04	 mov	 DWORD PTR [esi+4], eax
  00028	89 46 08	 mov	 DWORD PTR [esi+8], eax
  0002b	5e		 pop	 esi

; 393  : 		}

  0002c	59		 pop	 ecx
  0002d	c3		 ret	 0
??1?$_Tree@V?$_Tmap_traits@EHU?$less@E@std@@V?$allocator@U?$pair@$$CBEH@std@@@2@$0A@@std@@@std@@QAE@XZ ENDP ; std::_Tree<std::_Tmap_traits<unsigned char,int,std::less<unsigned char>,std::allocator<std::pair<unsigned char const ,int> >,0> >::~_Tree<std::_Tmap_traits<unsigned char,int,std::less<unsigned char>,std::allocator<std::pair<unsigned char const ,int> >,0> >
_TEXT	ENDS
PUBLIC	?push_back@?$vector@EV?$allocator@E@std@@@std@@QAEXABE@Z ; std::vector<unsigned char,std::allocator<unsigned char> >::push_back
; Function compile flags: /Ogty
; File c:\program files\microsoft visual studio .net 2003\vc7\include\vector
;	COMDAT ?push_back@?$vector@EV?$allocator@E@std@@@std@@QAEXABE@Z
_TEXT	SEGMENT
__Val$ = 8						; size = 4
?push_back@?$vector@EV?$allocator@E@std@@@std@@QAEXABE@Z PROC NEAR ; std::vector<unsigned char,std::allocator<unsigned char> >::push_back, COMDAT
; _this$ = ecx

; 579  : 		{	// insert element at end

  00000	56		 push	 esi

; 580  : 		if (size() < capacity())

  00001	8b 71 04	 mov	 esi, DWORD PTR [ecx+4]
  00004	85 f6		 test	 esi, esi
  00006	75 04		 jne	 SHORT $L196138
  00008	33 d2		 xor	 edx, edx
  0000a	eb 05		 jmp	 SHORT $L196139
$L196138:
  0000c	8b 51 08	 mov	 edx, DWORD PTR [ecx+8]
  0000f	2b d6		 sub	 edx, esi
$L196139:
  00011	85 f6		 test	 esi, esi
  00013	74 1c		 je	 SHORT $L187627
  00015	8b 41 0c	 mov	 eax, DWORD PTR [ecx+12]
  00018	2b c6		 sub	 eax, esi
  0001a	3b d0		 cmp	 edx, eax
  0001c	73 13		 jae	 SHORT $L187627

; 581  : 			_Mylast = _Ufill(_Mylast, 1, _Val);

  0001e	8b 41 08	 mov	 eax, DWORD PTR [ecx+8]
  00021	8b 54 24 08	 mov	 edx, DWORD PTR __Val$[esp]
  00025	8a 12		 mov	 dl, BYTE PTR [edx]
  00027	88 10		 mov	 BYTE PTR [eax], dl
  00029	40		 inc	 eax
  0002a	89 41 08	 mov	 DWORD PTR [ecx+8], eax
  0002d	5e		 pop	 esi

; 584  : 		}

  0002e	c2 04 00	 ret	 4
$L187627:

; 582  : 		else
; 583  : 			insert(end(), _Val);

  00031	8b 54 24 08	 mov	 edx, DWORD PTR __Val$[esp]
  00035	8b 41 08	 mov	 eax, DWORD PTR [ecx+8]
  00038	52		 push	 edx
  00039	6a 01		 push	 1
  0003b	50		 push	 eax
  0003c	e8 00 00 00 00	 call	 ?_Insert_n@?$vector@EV?$allocator@E@std@@@std@@IAEXViterator@12@IABE@Z ; std::vector<unsigned char,std::allocator<unsigned char> >::_Insert_n
  00041	5e		 pop	 esi

; 584  : 		}

  00042	c2 04 00	 ret	 4
?push_back@?$vector@EV?$allocator@E@std@@@std@@QAEXABE@Z ENDP ; std::vector<unsigned char,std::allocator<unsigned char> >::push_back
_TEXT	ENDS
PUBLIC	?_Tidy@?$vector@V?$basic_string@DU?$char_traits@D@std@@V?$allocator@D@2@@std@@V?$allocator@V?$basic_string@DU?$char_traits@D@std@@V?$allocator@D@2@@std@@@2@@std@@IAEXXZ ; std::vector<std::basic_string<char,std::char_traits<char>,std::allocator<char> >,std::allocator<std::basic_string<char,std::char_traits<char>,std::allocator<char> > > >::_Tidy
; Function compile flags: /Ogty
;	COMDAT ?_Tidy@?$vector@V?$basic_string@DU?$char_traits@D@std@@V?$allocator@D@2@@std@@V?$allocator@V?$basic_string@DU?$char_traits@D@std@@V?$allocator@D@2@@std@@@2@@std@@IAEXXZ
_TEXT	SEGMENT
__Cat$196338 = -4					; size = 1
?_Tidy@?$vector@V?$basic_string@DU?$char_traits@D@std@@V?$allocator@D@2@@std@@V?$allocator@V?$basic_string@DU?$char_traits@D@std@@V?$allocator@D@2@@std@@@2@@std@@IAEXXZ PROC NEAR ; std::vector<std::basic_string<char,std::char_traits<char>,std::allocator<char> >,std::allocator<std::basic_string<char,std::char_traits<char>,std::allocator<char> > > >::_Tidy, COMDAT
; _this$ = ecx

; 791  : 		{	// free all storage

  00000	51		 push	 ecx
  00001	56		 push	 esi
  00002	8b f1		 mov	 esi, ecx

; 792  : 		if (_Myfirst != 0)

  00004	8b 46 04	 mov	 eax, DWORD PTR [esi+4]
  00007	85 c0		 test	 eax, eax
  00009	74 1c		 je	 SHORT $L196343

; 793  : 			{	// something to free, destroy and deallocate it
; 794  : 			_Destroy(_Myfirst, _Mylast);

  0000b	8b 4c 24 04	 mov	 ecx, DWORD PTR __Cat$196338[esp+8]
  0000f	8b 56 08	 mov	 edx, DWORD PTR [esi+8]
  00012	51		 push	 ecx
  00013	56		 push	 esi
  00014	52		 push	 edx
  00015	50		 push	 eax
  00016	e8 00 00 00 00	 call	 ??$_Destroy_range@V?$basic_string@DU?$char_traits@D@std@@V?$allocator@D@2@@std@@V?$allocator@V?$basic_string@DU?$char_traits@D@std@@V?$allocator@D@2@@std@@@2@@std@@YAXPAV?$basic_string@DU?$char_traits@D@std@@V?$allocator@D@2@@0@0AAV?$allocator@V?$basic_string@DU?$char_traits@D@std@@V?$allocator@D@2@@std@@@0@U_Nonscalar_ptr_iterator_tag@0@@Z ; std::_Destroy_range<std::basic_string<char,std::char_traits<char>,std::allocator<char> >,std::allocator<std::basic_string<char,std::char_traits<char>,std::allocator<char> > > >

; 795  : 			this->_Alval.deallocate(_Myfirst, _Myend - _Myfirst);

  0001b	8b 46 04	 mov	 eax, DWORD PTR [esi+4]
  0001e	50		 push	 eax
  0001f	e8 00 00 00 00	 call	 ??3@YAXPAX@Z		; operator delete
  00024	83 c4 14	 add	 esp, 20			; 00000014H
$L196343:

; 796  : 			}
; 797  : 		_Myfirst = 0, _Mylast = 0, _Myend = 0;

  00027	c7 46 04 00 00
	00 00		 mov	 DWORD PTR [esi+4], 0
  0002e	c7 46 08 00 00
	00 00		 mov	 DWORD PTR [esi+8], 0
  00035	c7 46 0c 00 00
	00 00		 mov	 DWORD PTR [esi+12], 0
  0003c	5e		 pop	 esi

; 798  : 		}

  0003d	59		 pop	 ecx
  0003e	c3		 ret	 0
?_Tidy@?$vector@V?$basic_string@DU?$char_traits@D@std@@V?$allocator@D@2@@std@@V?$allocator@V?$basic_string@DU?$char_traits@D@std@@V?$allocator@D@2@@std@@@2@@std@@IAEXXZ ENDP ; std::vector<std::basic_string<char,std::char_traits<char>,std::allocator<char> >,std::allocator<std::basic_string<char,std::char_traits<char>,std::allocator<char> > > >::_Tidy
_TEXT	ENDS
PUBLIC	?_Ufill@?$vector@V?$basic_string@DU?$char_traits@D@std@@V?$allocator@D@2@@std@@V?$allocator@V?$basic_string@DU?$char_traits@D@std@@V?$allocator@D@2@@std@@@2@@std@@IAEPAV?$basic_string@DU?$char_traits@D@std@@V?$allocator@D@2@@2@PAV32@IABV32@@Z ; std::vector<std::basic_string<char,std::char_traits<char>,std::allocator<char> >,std::allocator<std::basic_string<char,std::char_traits<char>,std::allocator<char> > > >::_Ufill
; Function compile flags: /Ogty
;	COMDAT ?_Ufill@?$vector@V?$basic_string@DU?$char_traits@D@std@@V?$allocator@D@2@@std@@V?$allocator@V?$basic_string@DU?$char_traits@D@std@@V?$allocator@D@2@@std@@@2@@std@@IAEPAV?$basic_string@DU?$char_traits@D@std@@V?$allocator@D@2@@2@PAV32@IABV32@@Z
_TEXT	SEGMENT
__Ptr$ = 8						; size = 4
__Count$ = 12						; size = 4
__Cat$196358 = 16					; size = 1
__Val$ = 16						; size = 4
?_Ufill@?$vector@V?$basic_string@DU?$char_traits@D@std@@V?$allocator@D@2@@std@@V?$allocator@V?$basic_string@DU?$char_traits@D@std@@V?$allocator@D@2@@std@@@2@@std@@IAEPAV?$basic_string@DU?$char_traits@D@std@@V?$allocator@D@2@@2@PAV32@IABV32@@Z PROC NEAR ; std::vector<std::basic_string<char,std::char_traits<char>,std::allocator<char> >,std::allocator<std::basic_string<char,std::char_traits<char>,std::allocator<char> > > >::_Ufill, COMDAT
; _this$ = ecx

; 878  : 		_Uninitialized_fill_n(_Ptr, _Count, _Val, this->_Alval);

  00000	8b 44 24 0c	 mov	 eax, DWORD PTR __Cat$196358[esp-4]
  00004	56		 push	 esi
  00005	8b 74 24 0c	 mov	 esi, DWORD PTR __Count$[esp]
  00009	57		 push	 edi
  0000a	8b 7c 24 0c	 mov	 edi, DWORD PTR __Ptr$[esp+4]
  0000e	50		 push	 eax
  0000f	51		 push	 ecx
  00010	8b 4c 24 1c	 mov	 ecx, DWORD PTR __Val$[esp+12]
  00014	51		 push	 ecx
  00015	56		 push	 esi
  00016	57		 push	 edi
  00017	e8 00 00 00 00	 call	 ??$_Uninit_fill_n@PAV?$basic_string@DU?$char_traits@D@std@@V?$allocator@D@2@@std@@IV12@V?$allocator@V?$basic_string@DU?$char_traits@D@std@@V?$allocator@D@2@@std@@@2@@std@@YAXPAV?$basic_string@DU?$char_traits@D@std@@V?$allocator@D@2@@0@IABV10@AAV?$allocator@V?$basic_string@DU?$char_traits@D@std@@V?$allocator@D@2@@std@@@0@U_Nonscalar_ptr_iterator_tag@0@@Z ; std::_Uninit_fill_n<std::basic_string<char,std::char_traits<char>,std::allocator<char> > *,unsigned int,std::basic_string<char,std::char_traits<char>,std::allocator<char> >,std::allocator<std::basic_string<char,std::char_traits<char>,std::allocator<char> > > >

; 879  : 		return (_Ptr + _Count);

  0001c	8b c6		 mov	 eax, esi
  0001e	6b c0 1c	 imul	 eax, 28			; 0000001cH
  00021	83 c4 14	 add	 esp, 20			; 00000014H
  00024	03 c7		 add	 eax, edi
  00026	5f		 pop	 edi
  00027	5e		 pop	 esi

; 880  : 		}

  00028	c2 0c 00	 ret	 12			; 0000000cH
?_Ufill@?$vector@V?$basic_string@DU?$char_traits@D@std@@V?$allocator@D@2@@std@@V?$allocator@V?$basic_string@DU?$char_traits@D@std@@V?$allocator@D@2@@std@@@2@@std@@IAEPAV?$basic_string@DU?$char_traits@D@std@@V?$allocator@D@2@@2@PAV32@IABV32@@Z ENDP ; std::vector<std::basic_string<char,std::char_traits<char>,std::allocator<char> >,std::allocator<std::basic_string<char,std::char_traits<char>,std::allocator<char> > > >::_Ufill
_TEXT	ENDS
PUBLIC	?_Insert_n@?$vector@V?$basic_string@DU?$char_traits@D@std@@V?$allocator@D@2@@std@@V?$allocator@V?$basic_string@DU?$char_traits@D@std@@V?$allocator@D@2@@std@@@2@@std@@IAEXViterator@12@IABV?$basic_string@DU?$char_traits@D@std@@V?$allocator@D@2@@2@@Z ; std::vector<std::basic_string<char,std::char_traits<char>,std::allocator<char> >,std::allocator<std::basic_string<char,std::char_traits<char>,std::allocator<char> > > >::_Insert_n
EXTRN	___security_cookie:DWORD
EXTRN	@__security_check_cookie@4:NEAR
;	COMDAT xdata$x
; File c:\program files\microsoft visual studio .net 2003\vc7\include\iosfwd
xdata$x	SEGMENT
$T196788 DD	0ffffffffH
	DD	FLAT:$L196371
	DD	00H
	DD	00H
	DD	00H
	DD	00H
	DD	00H
	DD	00H
	DD	00H
	DD	00H
$T196790 DD	00H
	DD	00H
	DD	00H
	DD	FLAT:$L196368
$T196791 DD	00H
	DD	00H
	DD	00H
	DD	FLAT:$L196370
$T196789 DD	01H
	DD	01H
	DD	02H
	DD	01H
	DD	FLAT:$T196790
	DD	03H
	DD	03H
	DD	04H
	DD	01H
	DD	FLAT:$T196791
$T196782 DD	019930520H
	DD	05H
	DD	FLAT:$T196788
	DD	02H
	DD	FLAT:$T196789
	DD	2 DUP(00H)
; Function compile flags: /Ogty
; File c:\program files\microsoft visual studio .net 2003\vc7\include\vector
xdata$x	ENDS
;	COMDAT ?_Insert_n@?$vector@V?$basic_string@DU?$char_traits@D@std@@V?$allocator@D@2@@std@@V?$allocator@V?$basic_string@DU?$char_traits@D@std@@V?$allocator@D@2@@std@@@2@@std@@IAEXViterator@12@IABV?$basic_string@DU?$char_traits@D@std@@V?$allocator@D@2@@2@@Z
_TEXT	SEGMENT
$T196779 = -64						; size = 4
tv511 = -60						; size = 4
tv496 = -60						; size = 4
__Ptr$187987 = -56					; size = 4
tv573 = -52						; size = 4
tv525 = -52						; size = 4
tv512 = -52						; size = 4
__Cat$196702 = -52					; size = 1
__Cat$196688 = -52					; size = 1
__Cat$196664 = -52					; size = 1
__Cat$196634 = -52					; size = 1
__Cat$196601 = -52					; size = 1
__Cat$196578 = -52					; size = 1
__Cat$196555 = -52					; size = 1
__Newvec$187986 = -52					; size = 4
__Tmp$ = -48						; size = 28
__$ArrayPad$ = -20					; size = 4
__$EHRec$ = -16						; size = 16
__$ReturnAddr$ = 4					; size = 4
__Where$ = 8						; size = 4
__Count$ = 12						; size = 4
__Val$ = 16						; size = 4
?_Insert_n@?$vector@V?$basic_string@DU?$char_traits@D@std@@V?$allocator@D@2@@std@@V?$allocator@V?$basic_string@DU?$char_traits@D@std@@V?$allocator@D@2@@std@@@2@@std@@IAEXViterator@12@IABV?$basic_string@DU?$char_traits@D@std@@V?$allocator@D@2@@2@@Z PROC NEAR ; std::vector<std::basic_string<char,std::char_traits<char>,std::allocator<char> >,std::allocator<std::basic_string<char,std::char_traits<char>,std::allocator<char> > > >::_Insert_n, COMDAT
; _this$ = ecx

; 809  : 		{	// insert _Count * _Val at _Where

  00000	55		 push	 ebp
  00001	8b ec		 mov	 ebp, esp
  00003	6a ff		 push	 -1
  00005	68 00 00 00 00	 push	 __ehhandler$?_Insert_n@?$vector@V?$basic_string@DU?$char_traits@D@std@@V?$allocator@D@2@@std@@V?$allocator@V?$basic_string@DU?$char_traits@D@std@@V?$allocator@D@2@@std@@@2@@std@@IAEXViterator@12@IABV?$basic_string@DU?$char_traits@D@std@@V?$allocator@D@2@@2@@Z
  0000a	64 a1 00 00 00
	00		 mov	 eax, DWORD PTR fs:__except_list
  00010	50		 push	 eax
  00011	64 89 25 00 00
	00 00		 mov	 DWORD PTR fs:__except_list, esp
  00018	83 ec 34	 sub	 esp, 52			; 00000034H
  0001b	a1 00 00 00 00	 mov	 eax, DWORD PTR ___security_cookie
  00020	53		 push	 ebx
  00021	56		 push	 esi
  00022	57		 push	 edi
  00023	89 65 f0	 mov	 DWORD PTR __$EHRec$[ebp], esp
  00026	33 c5		 xor	 eax, ebp

; 810  : 		_Ty _Tmp = _Val;	// in case _Val is in sequence

  00028	6a ff		 push	 -1
  0002a	33 ff		 xor	 edi, edi
  0002c	89 45 ec	 mov	 DWORD PTR __$ArrayPad$[ebp], eax
  0002f	8b 45 10	 mov	 eax, DWORD PTR __Val$[ebp]
  00032	8b f1		 mov	 esi, ecx
  00034	57		 push	 edi
  00035	50		 push	 eax
  00036	8d 4d d0	 lea	 ecx, DWORD PTR __Tmp$[ebp]
  00039	89 75 c0	 mov	 DWORD PTR $T196779[ebp], esi
  0003c	c7 45 e8 0f 00
	00 00		 mov	 DWORD PTR __Tmp$[ebp+24], 15 ; 0000000fH
  00043	89 7d e4	 mov	 DWORD PTR __Tmp$[ebp+20], edi
  00046	c6 45 d4 00	 mov	 BYTE PTR __Tmp$[ebp+4], 0
  0004a	e8 00 00 00 00	 call	 ?assign@?$basic_string@DU?$char_traits@D@std@@V?$allocator@D@2@@std@@QAEAAV12@ABV12@II@Z ; std::basic_string<char,std::char_traits<char>,std::allocator<char> >::assign

; 811  : 		size_type _Capacity = capacity();

  0004f	8b 5e 04	 mov	 ebx, DWORD PTR [esi+4]
  00052	3b df		 cmp	 ebx, edi
  00054	89 7d fc	 mov	 DWORD PTR __$EHRec$[ebp+12], edi
  00057	75 04		 jne	 SHORT $L196471
  00059	33 c9		 xor	 ecx, ecx
  0005b	eb 18		 jmp	 SHORT $L196472
$L196471:
  0005d	8b 4e 0c	 mov	 ecx, DWORD PTR [esi+12]
  00060	2b cb		 sub	 ecx, ebx
  00062	b8 93 24 49 92	 mov	 eax, -1840700269	; 92492493H
  00067	f7 e9		 imul	 ecx
  00069	03 d1		 add	 edx, ecx
  0006b	c1 fa 04	 sar	 edx, 4
  0006e	8b ca		 mov	 ecx, edx
  00070	c1 e9 1f	 shr	 ecx, 31			; 0000001fH
  00073	03 ca		 add	 ecx, edx
$L196472:

; 812  : 
; 813  : 		if (_Count == 0)

  00075	8b 7d 0c	 mov	 edi, DWORD PTR __Count$[ebp]
  00078	85 ff		 test	 edi, edi
  0007a	0f 84 8e 02 00
	00		 je	 $L188006

; 814  : 			;
; 815  : 		else if (max_size() - size() < _Count)

  00080	85 db		 test	 ebx, ebx
  00082	75 04		 jne	 SHORT $L196494
  00084	33 c0		 xor	 eax, eax
  00086	eb 1b		 jmp	 SHORT $L196495
$L196494:
  00088	8b 56 04	 mov	 edx, DWORD PTR [esi+4]
  0008b	8b 5e 08	 mov	 ebx, DWORD PTR [esi+8]
  0008e	2b da		 sub	 ebx, edx
  00090	b8 93 24 49 92	 mov	 eax, -1840700269	; 92492493H
  00095	f7 eb		 imul	 ebx
  00097	03 d3		 add	 edx, ebx
  00099	c1 fa 04	 sar	 edx, 4
  0009c	8b c2		 mov	 eax, edx
  0009e	c1 e8 1f	 shr	 eax, 31			; 0000001fH
  000a1	03 c2		 add	 eax, edx
$L196495:
  000a3	ba 49 92 24 09	 mov	 edx, 153391689		; 09249249H
  000a8	2b d0		 sub	 edx, eax
  000aa	3b d7		 cmp	 edx, edi
  000ac	73 07		 jae	 SHORT $L187982

; 816  : 			_Xlen();	// result too long

  000ae	8b ce		 mov	 ecx, esi
  000b0	e8 00 00 00 00	 call	 ?_Xlen@?$vector@V?$basic_string@DU?$char_traits@D@std@@V?$allocator@D@2@@std@@V?$allocator@V?$basic_string@DU?$char_traits@D@std@@V?$allocator@D@2@@std@@@2@@std@@IBEXXZ ; std::vector<std::basic_string<char,std::char_traits<char>,std::allocator<char> >,std::allocator<std::basic_string<char,std::char_traits<char>,std::allocator<char> > > >::_Xlen
$L187982:

; 817  : 		else if (_Capacity < size() + _Count)

  000b5	8b 46 04	 mov	 eax, DWORD PTR [esi+4]
  000b8	85 c0		 test	 eax, eax
  000ba	75 04		 jne	 SHORT $L196501
  000bc	33 c0		 xor	 eax, eax
  000be	eb 1b		 jmp	 SHORT $L196502
$L196501:
  000c0	8b 56 04	 mov	 edx, DWORD PTR [esi+4]
  000c3	8b 5e 08	 mov	 ebx, DWORD PTR [esi+8]
  000c6	2b da		 sub	 ebx, edx
  000c8	b8 93 24 49 92	 mov	 eax, -1840700269	; 92492493H
  000cd	f7 eb		 imul	 ebx
  000cf	03 d3		 add	 edx, ebx
  000d1	c1 fa 04	 sar	 edx, 4
  000d4	8b c2		 mov	 eax, edx
  000d6	c1 e8 1f	 shr	 eax, 31			; 0000001fH
  000d9	03 c2		 add	 eax, edx
$L196502:
  000db	03 c7		 add	 eax, edi
  000dd	3b c8		 cmp	 ecx, eax
  000df	0f 83 30 01 00
	00		 jae	 $L187984

; 818  : 			{	// not enough room, reallocate
; 819  : 			_Capacity = max_size() - _Capacity / 2 < _Capacity
; 820  : 				? 0 : _Capacity + _Capacity / 2;	// try to grow by 50%

  000e5	8b c1		 mov	 eax, ecx
  000e7	d1 e8		 shr	 eax, 1
  000e9	ba 49 92 24 09	 mov	 edx, 153391689		; 09249249H
  000ee	2b d0		 sub	 edx, eax
  000f0	3b d1		 cmp	 edx, ecx
  000f2	73 04		 jae	 SHORT $L196365
  000f4	33 c9		 xor	 ecx, ecx
  000f6	eb 02		 jmp	 SHORT $L196366
$L196365:
  000f8	03 c8		 add	 ecx, eax
$L196366:

; 821  : 			if (_Capacity < size() + _Count)

  000fa	8b 46 04	 mov	 eax, DWORD PTR [esi+4]
  000fd	85 c0		 test	 eax, eax
  000ff	75 04		 jne	 SHORT $L196524
  00101	33 c0		 xor	 eax, eax
  00103	eb 1b		 jmp	 SHORT $L196525
$L196524:
  00105	8b 56 04	 mov	 edx, DWORD PTR [esi+4]
  00108	8b 5e 08	 mov	 ebx, DWORD PTR [esi+8]
  0010b	2b da		 sub	 ebx, edx
  0010d	b8 93 24 49 92	 mov	 eax, -1840700269	; 92492493H
  00112	f7 eb		 imul	 ebx
  00114	03 d3		 add	 edx, ebx
  00116	c1 fa 04	 sar	 edx, 4
  00119	8b c2		 mov	 eax, edx
  0011b	c1 e8 1f	 shr	 eax, 31			; 0000001fH
  0011e	03 c2		 add	 eax, edx
$L196525:
  00120	03 c7		 add	 eax, edi
  00122	3b c8		 cmp	 ecx, eax
  00124	73 0b		 jae	 SHORT $L187985

; 822  : 				_Capacity = size() + _Count;

  00126	8b ce		 mov	 ecx, esi
  00128	e8 00 00 00 00	 call	 ?size@?$vector@V?$basic_string@DU?$char_traits@D@std@@V?$allocator@D@2@@std@@V?$allocator@V?$basic_string@DU?$char_traits@D@std@@V?$allocator@D@2@@std@@@2@@std@@QBEIXZ ; std::vector<std::basic_string<char,std::char_traits<char>,std::allocator<char> >,std::allocator<std::basic_string<char,std::char_traits<char>,std::allocator<char> > > >::size
  0012d	8b c8		 mov	 ecx, eax
  0012f	03 cf		 add	 ecx, edi
$L187985:

; 823  : 			pointer _Newvec = this->_Alval.allocate(_Capacity);

  00131	6b c9 1c	 imul	 ecx, 28			; 0000001cH
  00134	51		 push	 ecx
  00135	89 4d c4	 mov	 DWORD PTR tv511[ebp], ecx
  00138	e8 00 00 00 00	 call	 ??2@YAPAXI@Z		; operator new

; 824  : 			pointer _Ptr = _Newvec;
; 825  : 
; 826  : 			_TRY_BEGIN
; 827  : 			_Ptr = _Ucopy(_Myfirst, _ITER_BASE(_Where),
; 828  : 				_Newvec);	// copy prefix

  0013d	8b 55 08	 mov	 edx, DWORD PTR __Where$[ebp]
  00140	8b d8		 mov	 ebx, eax
  00142	8b 46 04	 mov	 eax, DWORD PTR [esi+4]
  00145	89 5d cc	 mov	 DWORD PTR __Newvec$187986[ebp], ebx
  00148	8b 4d cc	 mov	 ecx, DWORD PTR __Cat$196555[ebp]
  0014b	51		 push	 ecx
  0014c	56		 push	 esi
  0014d	53		 push	 ebx
  0014e	52		 push	 edx
  0014f	50		 push	 eax
  00150	89 5d c8	 mov	 DWORD PTR __Ptr$187987[ebp], ebx
  00153	c6 45 fc 01	 mov	 BYTE PTR __$EHRec$[ebp+12], 1
  00157	e8 00 00 00 00	 call	 ??$_Uninit_copy@PAV?$basic_string@DU?$char_traits@D@std@@V?$allocator@D@2@@std@@PAV12@V?$allocator@V?$basic_string@DU?$char_traits@D@std@@V?$allocator@D@2@@std@@@2@@std@@YAPAV?$basic_string@DU?$char_traits@D@std@@V?$allocator@D@2@@0@PAV10@00AAV?$allocator@V?$basic_string@DU?$char_traits@D@std@@V?$allocator@D@2@@std@@@0@U_Nonscalar_ptr_iterator_tag@0@@Z ; std::_Uninit_copy<std::basic_string<char,std::char_traits<char>,std::allocator<char> > *,std::basic_string<char,std::char_traits<char>,std::allocator<char> > *,std::allocator<std::basic_string<char,std::char_traits<char>,std::allocator<char> > > >

; 829  : 			_Ptr = _Ufill(_Ptr, _Count, _Tmp);	// add new stuff

  0015c	8b 4d cc	 mov	 ecx, DWORD PTR __Cat$196578[ebp]
  0015f	83 c4 18	 add	 esp, 24			; 00000018H
  00162	51		 push	 ecx
  00163	56		 push	 esi
  00164	8d 55 d0	 lea	 edx, DWORD PTR __Tmp$[ebp]
  00167	52		 push	 edx
  00168	57		 push	 edi
  00169	50		 push	 eax
  0016a	89 45 c8	 mov	 DWORD PTR __Ptr$187987[ebp], eax
  0016d	e8 00 00 00 00	 call	 ??$_Uninit_fill_n@PAV?$basic_string@DU?$char_traits@D@std@@V?$allocator@D@2@@std@@IV12@V?$allocator@V?$basic_string@DU?$char_traits@D@std@@V?$allocator@D@2@@std@@@2@@std@@YAXPAV?$basic_string@DU?$char_traits@D@std@@V?$allocator@D@2@@0@IABV10@AAV?$allocator@V?$basic_string@DU?$char_traits@D@std@@V?$allocator@D@2@@std@@@0@U_Nonscalar_ptr_iterator_tag@0@@Z ; std::_Uninit_fill_n<std::basic_string<char,std::char_traits<char>,std::allocator<char> > *,unsigned int,std::basic_string<char,std::char_traits<char>,std::allocator<char> >,std::allocator<std::basic_string<char,std::char_traits<char>,std::allocator<char> > > >

; 830  : 			_Ucopy(_ITER_BASE(_Where), _Mylast, _Ptr);	// copy suffix

  00172	8b 55 cc	 mov	 edx, DWORD PTR __Cat$196601[ebp]
  00175	8b 4d c8	 mov	 ecx, DWORD PTR __Ptr$187987[ebp]
  00178	8b c7		 mov	 eax, edi
  0017a	6b c0 1c	 imul	 eax, 28			; 0000001cH
  0017d	83 c4 14	 add	 esp, 20			; 00000014H
  00180	52		 push	 edx
  00181	03 c8		 add	 ecx, eax
  00183	8b 46 08	 mov	 eax, DWORD PTR [esi+8]
  00186	56		 push	 esi
  00187	51		 push	 ecx
  00188	50		 push	 eax
  00189	8b 45 08	 mov	 eax, DWORD PTR __Where$[ebp]
  0018c	50		 push	 eax
  0018d	89 4d c8	 mov	 DWORD PTR __Ptr$187987[ebp], ecx
  00190	e8 00 00 00 00	 call	 ??$_Uninit_copy@PAV?$basic_string@DU?$char_traits@D@std@@V?$allocator@D@2@@std@@PAV12@V?$allocator@V?$basic_string@DU?$char_traits@D@std@@V?$allocator@D@2@@std@@@2@@std@@YAPAV?$basic_string@DU?$char_traits@D@std@@V?$allocator@D@2@@0@PAV10@00AAV?$allocator@V?$basic_string@DU?$char_traits@D@std@@V?$allocator@D@2@@std@@@0@U_Nonscalar_ptr_iterator_tag@0@@Z ; std::_Uninit_copy<std::basic_string<char,std::char_traits<char>,std::allocator<char> > *,std::basic_string<char,std::char_traits<char>,std::allocator<char> > *,std::allocator<std::basic_string<char,std::char_traits<char>,std::allocator<char> > > >

; 835  : 			_CATCH_END
; 836  : 
; 837  : 			_Count += size();

  00195	8b 46 04	 mov	 eax, DWORD PTR [esi+4]
  00198	83 c4 14	 add	 esp, 20			; 00000014H
  0019b	85 c0		 test	 eax, eax
  0019d	74 18		 je	 SHORT $L196611
$L196610:
  0019f	8b 4e 08	 mov	 ecx, DWORD PTR [esi+8]
  001a2	2b c8		 sub	 ecx, eax
  001a4	b8 93 24 49 92	 mov	 eax, -1840700269	; 92492493H
  001a9	f7 e9		 imul	 ecx
  001ab	03 d1		 add	 edx, ecx
  001ad	c1 fa 04	 sar	 edx, 4
  001b0	8b c2		 mov	 eax, edx
  001b2	c1 e8 1f	 shr	 eax, 31			; 0000001fH
  001b5	03 c2		 add	 eax, edx
$L196611:
  001b7	03 f8		 add	 edi, eax

; 838  : 			if (_Myfirst != 0)

  001b9	8b 46 04	 mov	 eax, DWORD PTR [esi+4]
  001bc	85 c0		 test	 eax, eax
  001be	74 1b		 je	 SHORT $L196641

; 839  : 				{	// destroy and deallocate old array
; 840  : 				_Destroy(_Myfirst, _Mylast);

  001c0	8b 4d cc	 mov	 ecx, DWORD PTR __Cat$196634[ebp]
  001c3	8b 56 08	 mov	 edx, DWORD PTR [esi+8]
  001c6	51		 push	 ecx
  001c7	56		 push	 esi
  001c8	52		 push	 edx
  001c9	50		 push	 eax
  001ca	e8 00 00 00 00	 call	 ??$_Destroy_range@V?$basic_string@DU?$char_traits@D@std@@V?$allocator@D@2@@std@@V?$allocator@V?$basic_string@DU?$char_traits@D@std@@V?$allocator@D@2@@std@@@2@@std@@YAXPAV?$basic_string@DU?$char_traits@D@std@@V?$allocator@D@2@@0@0AAV?$allocator@V?$basic_string@DU?$char_traits@D@std@@V?$allocator@D@2@@std@@@0@U_Nonscalar_ptr_iterator_tag@0@@Z ; std::_Destroy_range<std::basic_string<char,std::char_traits<char>,std::allocator<char> >,std::allocator<std::basic_string<char,std::char_traits<char>,std::allocator<char> > > >

; 841  : 				this->_Alval.deallocate(_Myfirst, _Myend - _Myfirst);

  001cf	8b 46 04	 mov	 eax, DWORD PTR [esi+4]
  001d2	50		 push	 eax
  001d3	e8 00 00 00 00	 call	 ??3@YAXPAX@Z		; operator delete
  001d8	83 c4 14	 add	 esp, 20			; 00000014H
$L196641:

; 842  : 				}
; 843  : 			_Myend = _Newvec + _Capacity;

  001db	8b 4d c4	 mov	 ecx, DWORD PTR tv511[ebp]

; 844  : 			_Mylast = _Newvec + _Count;

  001de	6b ff 1c	 imul	 edi, 28			; 0000001cH
  001e1	03 cb		 add	 ecx, ebx
  001e3	03 fb		 add	 edi, ebx
  001e5	89 4e 0c	 mov	 DWORD PTR [esi+12], ecx
  001e8	89 7e 08	 mov	 DWORD PTR [esi+8], edi

; 845  : 			_Myfirst = _Newvec;

  001eb	89 5e 04	 mov	 DWORD PTR [esi+4], ebx

; 846  : 			}
; 847  : 		else if ((size_type)(_Mylast - _ITER_BASE(_Where)) < _Count)

  001ee	e9 1b 01 00 00	 jmp	 $L188006
$L196368:

; 831  : 			_CATCH_ALL
; 832  : 			_Destroy(_Newvec, _Ptr);

  001f3	8b 55 c8	 mov	 edx, DWORD PTR __Ptr$187987[ebp]
  001f6	8b 75 cc	 mov	 esi, DWORD PTR __Newvec$187986[ebp]
  001f9	8b 4d c0	 mov	 ecx, DWORD PTR $T196779[ebp]
  001fc	52		 push	 edx
  001fd	56		 push	 esi
  001fe	e8 00 00 00 00	 call	 ?_Destroy@?$vector@V?$basic_string@DU?$char_traits@D@std@@V?$allocator@D@2@@std@@V?$allocator@V?$basic_string@DU?$char_traits@D@std@@V?$allocator@D@2@@std@@@2@@std@@IAEXPAV?$basic_string@DU?$char_traits@D@std@@V?$allocator@D@2@@2@0@Z ; std::vector<std::basic_string<char,std::char_traits<char>,std::allocator<char> >,std::allocator<std::basic_string<char,std::char_traits<char>,std::allocator<char> > > >::_Destroy

; 833  : 			this->_Alval.deallocate(_Newvec, _Capacity);

  00203	56		 push	 esi
  00204	e8 00 00 00 00	 call	 ??3@YAXPAX@Z		; operator delete
  00209	83 c4 04	 add	 esp, 4

; 834  : 			_RERAISE;

  0020c	6a 00		 push	 0
  0020e	6a 00		 push	 0
  00210	e8 00 00 00 00	 call	 __CxxThrowException@8
$L187984:

; 846  : 			}
; 847  : 		else if ((size_type)(_Mylast - _ITER_BASE(_Where)) < _Count)

  00215	8b 4e 08	 mov	 ecx, DWORD PTR [esi+8]
  00218	8b 5d 08	 mov	 ebx, DWORD PTR __Where$[ebp]
  0021b	8b d1		 mov	 edx, ecx
  0021d	2b d3		 sub	 edx, ebx
  0021f	89 55 cc	 mov	 DWORD PTR tv573[ebp], edx
  00222	b8 93 24 49 92	 mov	 eax, -1840700269	; 92492493H
  00227	f7 ea		 imul	 edx
  00229	03 55 cc	 add	 edx, DWORD PTR tv573[ebp]
  0022c	c1 fa 04	 sar	 edx, 4
  0022f	8b c2		 mov	 eax, edx
  00231	c1 e8 1f	 shr	 eax, 31			; 0000001fH
  00234	03 c2		 add	 eax, edx
  00236	3b c7		 cmp	 eax, edi
  00238	89 4d c4	 mov	 DWORD PTR tv496[ebp], ecx
  0023b	0f 83 91 00 00
	00		 jae	 $L187997

; 848  : 			{	// new stuff spills off end
; 849  : 			_Ucopy(_ITER_BASE(_Where), _Mylast,
; 850  : 				_ITER_BASE(_Where) + _Count);	// copy suffix

  00241	8b c7		 mov	 eax, edi
  00243	6b c0 1c	 imul	 eax, 28			; 0000001cH
  00246	89 45 cc	 mov	 DWORD PTR tv512[ebp], eax
  00249	8b 55 cc	 mov	 edx, DWORD PTR __Cat$196664[ebp]
  0024c	52		 push	 edx
  0024d	56		 push	 esi
  0024e	03 c3		 add	 eax, ebx
  00250	50		 push	 eax
  00251	51		 push	 ecx
  00252	53		 push	 ebx
  00253	e8 00 00 00 00	 call	 ??$_Uninit_copy@PAV?$basic_string@DU?$char_traits@D@std@@V?$allocator@D@2@@std@@PAV12@V?$allocator@V?$basic_string@DU?$char_traits@D@std@@V?$allocator@D@2@@std@@@2@@std@@YAPAV?$basic_string@DU?$char_traits@D@std@@V?$allocator@D@2@@0@PAV10@00AAV?$allocator@V?$basic_string@DU?$char_traits@D@std@@V?$allocator@D@2@@std@@@0@U_Nonscalar_ptr_iterator_tag@0@@Z ; std::_Uninit_copy<std::basic_string<char,std::char_traits<char>,std::allocator<char> > *,std::basic_string<char,std::char_traits<char>,std::allocator<char> > *,std::allocator<std::basic_string<char,std::char_traits<char>,std::allocator<char> > > >

; 851  : 
; 852  : 			_TRY_BEGIN
; 853  : 			_Ufill(_Mylast, _Count - (_Mylast - _ITER_BASE(_Where)),
; 854  : 				_Tmp);	// insert new stuff off end

  00258	8b 4e 08	 mov	 ecx, DWORD PTR [esi+8]
  0025b	83 c4 14	 add	 esp, 20			; 00000014H
  0025e	2b cb		 sub	 ecx, ebx
  00260	8d 45 d0	 lea	 eax, DWORD PTR __Tmp$[ebp]
  00263	50		 push	 eax
  00264	b8 93 24 49 92	 mov	 eax, -1840700269	; 92492493H
  00269	f7 e9		 imul	 ecx
  0026b	8b 46 08	 mov	 eax, DWORD PTR [esi+8]
  0026e	03 d1		 add	 edx, ecx
  00270	c1 fa 04	 sar	 edx, 4
  00273	8b ca		 mov	 ecx, edx
  00275	c1 e9 1f	 shr	 ecx, 31			; 0000001fH
  00278	03 ca		 add	 ecx, edx
  0027a	2b f9		 sub	 edi, ecx
  0027c	57		 push	 edi
  0027d	50		 push	 eax
  0027e	8b ce		 mov	 ecx, esi
  00280	c6 45 fc 03	 mov	 BYTE PTR __$EHRec$[ebp+12], 3
  00284	e8 00 00 00 00	 call	 ?_Ufill@?$vector@V?$basic_string@DU?$char_traits@D@std@@V?$allocator@D@2@@std@@V?$allocator@V?$basic_string@DU?$char_traits@D@std@@V?$allocator@D@2@@std@@@2@@std@@IAEPAV?$basic_string@DU?$char_traits@D@std@@V?$allocator@D@2@@2@PAV32@IABV32@@Z ; std::vector<std::basic_string<char,std::char_traits<char>,std::allocator<char> >,std::allocator<std::basic_string<char,std::char_traits<char>,std::allocator<char> > > >::_Ufill

; 858  : 			_CATCH_END
; 859  : 
; 860  : 			_Mylast += _Count;

  00289	8b 56 08	 mov	 edx, DWORD PTR [esi+8]
  0028c	8b 45 cc	 mov	 eax, DWORD PTR tv512[ebp]
  0028f	03 d0		 add	 edx, eax
  00291	89 56 08	 mov	 DWORD PTR [esi+8], edx
  00294	8b f2		 mov	 esi, edx

; 861  : 			fill(_ITER_BASE(_Where), _Mylast - _Count,
; 862  : 				_Tmp);	// insert up to old end

  00296	8d 55 d0	 lea	 edx, DWORD PTR __Tmp$[ebp]
  00299	52		 push	 edx
  0029a	2b f0		 sub	 esi, eax
  0029c	56		 push	 esi
  0029d	53		 push	 ebx
  0029e	c7 45 fc 00 00
	00 00		 mov	 DWORD PTR __$EHRec$[ebp+12], 0
  002a5	e8 00 00 00 00	 call	 ??$fill@PAV?$basic_string@DU?$char_traits@D@std@@V?$allocator@D@2@@std@@V12@@std@@YAXPAV?$basic_string@DU?$char_traits@D@std@@V?$allocator@D@2@@0@0ABV10@@Z ; std::fill<std::basic_string<char,std::char_traits<char>,std::allocator<char> > *,std::basic_string<char,std::char_traits<char>,std::allocator<char> > >
  002aa	83 c4 0c	 add	 esp, 12			; 0000000cH

; 863  : 			}
; 864  : 		else

  002ad	eb 5f		 jmp	 SHORT $L188006
$L196370:

; 855  : 			_CATCH_ALL
; 856  : 			_Destroy(_ITER_BASE(_Where) + _Count, _Mylast + _Count);

  002af	8b 45 0c	 mov	 eax, DWORD PTR __Count$[ebp]
  002b2	8b 4d c0	 mov	 ecx, DWORD PTR $T196779[ebp]
  002b5	6b c0 1c	 imul	 eax, 28			; 0000001cH
  002b8	8b 51 08	 mov	 edx, DWORD PTR [ecx+8]
  002bb	03 d0		 add	 edx, eax
  002bd	52		 push	 edx
  002be	8b 55 08	 mov	 edx, DWORD PTR __Where$[ebp]
  002c1	03 c2		 add	 eax, edx
  002c3	50		 push	 eax
  002c4	e8 00 00 00 00	 call	 ?_Destroy@?$vector@V?$basic_string@DU?$char_traits@D@std@@V?$allocator@D@2@@std@@V?$allocator@V?$basic_string@DU?$char_traits@D@std@@V?$allocator@D@2@@std@@@2@@std@@IAEXPAV?$basic_string@DU?$char_traits@D@std@@V?$allocator@D@2@@2@0@Z ; std::vector<std::basic_string<char,std::char_traits<char>,std::allocator<char> >,std::allocator<std::basic_string<char,std::char_traits<char>,std::allocator<char> > > >::_Destroy

; 857  : 			_RERAISE;

  002c9	6a 00		 push	 0
  002cb	6a 00		 push	 0
  002cd	e8 00 00 00 00	 call	 __CxxThrowException@8
$L187997:

; 865  : 			{	// new stuff can all be assigned
; 866  : 			pointer _Oldend = _Mylast;
; 867  : 			_Mylast = _Ucopy(_Oldend - _Count, _Oldend,
; 868  : 				_Mylast);	// copy suffix

  002d2	6b ff 1c	 imul	 edi, 28			; 0000001cH
  002d5	8b c1		 mov	 eax, ecx
  002d7	2b c7		 sub	 eax, edi
  002d9	89 45 cc	 mov	 DWORD PTR tv525[ebp], eax
  002dc	8b 55 cc	 mov	 edx, DWORD PTR __Cat$196688[ebp]
  002df	52		 push	 edx
  002e0	56		 push	 esi
  002e1	51		 push	 ecx
  002e2	51		 push	 ecx
  002e3	50		 push	 eax
  002e4	e8 00 00 00 00	 call	 ??$_Uninit_copy@PAV?$basic_string@DU?$char_traits@D@std@@V?$allocator@D@2@@std@@PAV12@V?$allocator@V?$basic_string@DU?$char_traits@D@std@@V?$allocator@D@2@@std@@@2@@std@@YAPAV?$basic_string@DU?$char_traits@D@std@@V?$allocator@D@2@@0@PAV10@00AAV?$allocator@V?$basic_string@DU?$char_traits@D@std@@V?$allocator@D@2@@std@@@0@U_Nonscalar_ptr_iterator_tag@0@@Z ; std::_Uninit_copy<std::basic_string<char,std::char_traits<char>,std::allocator<char> > *,std::basic_string<char,std::char_traits<char>,std::allocator<char> > *,std::allocator<std::basic_string<char,std::char_traits<char>,std::allocator<char> > > >

; 869  : 			copy_backward(_ITER_BASE(_Where), _Oldend - _Count,
; 870  : 				_Oldend);	// copy hole

  002e9	8b 4d c4	 mov	 ecx, DWORD PTR tv496[ebp]
  002ec	8b 55 cc	 mov	 edx, DWORD PTR tv525[ebp]
  002ef	89 46 08	 mov	 DWORD PTR [esi+8], eax
  002f2	8b 45 cc	 mov	 eax, DWORD PTR __Cat$196702[ebp]
  002f5	50		 push	 eax
  002f6	51		 push	 ecx
  002f7	52		 push	 edx
  002f8	53		 push	 ebx
  002f9	e8 00 00 00 00	 call	 ??$_Copy_backward_opt@PAV?$basic_string@DU?$char_traits@D@std@@V?$allocator@D@2@@std@@PAV12@@std@@YAPAV?$basic_string@DU?$char_traits@D@std@@V?$allocator@D@2@@0@PAV10@00U_Nonscalar_ptr_iterator_tag@0@@Z ; std::_Copy_backward_opt<std::basic_string<char,std::char_traits<char>,std::allocator<char> > *,std::basic_string<char,std::char_traits<char>,std::allocator<char> > *>

; 871  : 			fill(_ITER_BASE(_Where), _ITER_BASE(_Where) + _Count,
; 872  : 				_Tmp);	// insert into hole

  002fe	8d 45 d0	 lea	 eax, DWORD PTR __Tmp$[ebp]
  00301	50		 push	 eax
  00302	03 fb		 add	 edi, ebx
  00304	57		 push	 edi
  00305	53		 push	 ebx
  00306	e8 00 00 00 00	 call	 ??$fill@PAV?$basic_string@DU?$char_traits@D@std@@V?$allocator@D@2@@std@@V12@@std@@YAXPAV?$basic_string@DU?$char_traits@D@std@@V?$allocator@D@2@@0@0ABV10@@Z ; std::fill<std::basic_string<char,std::char_traits<char>,std::allocator<char> > *,std::basic_string<char,std::char_traits<char>,std::allocator<char> > >
  0030b	83 c4 30	 add	 esp, 48			; 00000030H
$L188006:

; 873  : 			}
; 874  : 		}

  0030e	83 7d e8 10	 cmp	 DWORD PTR __Tmp$[ebp+24], 16 ; 00000010H
  00312	72 0c		 jb	 SHORT $L196768
  00314	8b 4d d4	 mov	 ecx, DWORD PTR __Tmp$[ebp+4]
  00317	51		 push	 ecx
  00318	e8 00 00 00 00	 call	 ??3@YAXPAX@Z		; operator delete
  0031d	83 c4 04	 add	 esp, 4
$L196768:
  00320	8b 4d f4	 mov	 ecx, DWORD PTR __$EHRec$[ebp+4]
  00323	64 89 0d 00 00
	00 00		 mov	 DWORD PTR fs:__except_list, ecx
  0032a	8b 4d ec	 mov	 ecx, DWORD PTR __$ArrayPad$[ebp]
  0032d	5f		 pop	 edi
  0032e	5e		 pop	 esi
  0032f	33 cd		 xor	 ecx, ebp
  00331	5b		 pop	 ebx
  00332	e8 00 00 00 00	 call	 @__security_check_cookie@4
  00337	8b e5		 mov	 esp, ebp
  00339	5d		 pop	 ebp
  0033a	c2 0c 00	 ret	 12			; 0000000cH
$L196787:
_TEXT	ENDS
;	COMDAT text$x
text$x	SEGMENT
$L196371:
  00000	8d 4d d0	 lea	 ecx, DWORD PTR __Tmp$[ebp]
  00003	e9 00 00 00 00	 jmp	 ??1?$basic_string@DU?$char_traits@D@std@@V?$allocator@D@2@@std@@QAE@XZ ; std::basic_string<char,std::char_traits<char>,std::allocator<char> >::~basic_string<char,std::char_traits<char>,std::allocator<char> >
__ehhandler$?_Insert_n@?$vector@V?$basic_string@DU?$char_traits@D@std@@V?$allocator@D@2@@std@@V?$allocator@V?$basic_string@DU?$char_traits@D@std@@V?$allocator@D@2@@std@@@2@@std@@IAEXViterator@12@IABV?$basic_string@DU?$char_traits@D@std@@V?$allocator@D@2@@2@@Z:
  00008	b8 00 00 00 00	 mov	 eax, OFFSET FLAT:$T196782
  0000d	e9 00 00 00 00	 jmp	 ___CxxFrameHandler
text$x	ENDS
?_Insert_n@?$vector@V?$basic_string@DU?$char_traits@D@std@@V?$allocator@D@2@@std@@V?$allocator@V?$basic_string@DU?$char_traits@D@std@@V?$allocator@D@2@@std@@@2@@std@@IAEXViterator@12@IABV?$basic_string@DU?$char_traits@D@std@@V?$allocator@D@2@@2@@Z ENDP ; std::vector<std::basic_string<char,std::char_traits<char>,std::allocator<char> >,std::allocator<std::basic_string<char,std::char_traits<char>,std::allocator<char> > > >::_Insert_n
PUBLIC	??1?$map@EHU?$less@E@std@@V?$allocator@U?$pair@$$CBEH@std@@@2@@std@@QAE@XZ ; std::map<unsigned char,int,std::less<unsigned char>,std::allocator<std::pair<unsigned char const ,int> > >::~map<unsigned char,int,std::less<unsigned char>,std::allocator<std::pair<unsigned char const ,int> > >
; Function compile flags: /Ogty
;	COMDAT ??1?$map@EHU?$less@E@std@@V?$allocator@U?$pair@$$CBEH@std@@@2@@std@@QAE@XZ
_TEXT	SEGMENT
$T196893 = -4						; size = 4
??1?$map@EHU?$less@E@std@@V?$allocator@U?$pair@$$CBEH@std@@@2@@std@@QAE@XZ PROC NEAR ; std::map<unsigned char,int,std::less<unsigned char>,std::allocator<std::pair<unsigned char const ,int> > >::~map<unsigned char,int,std::less<unsigned char>,std::allocator<std::pair<unsigned char const ,int> > >, COMDAT
; _this$ = ecx
  00000	51		 push	 ecx
  00001	56		 push	 esi
  00002	8b f1		 mov	 esi, ecx
  00004	8b 46 04	 mov	 eax, DWORD PTR [esi+4]
  00007	8b 08		 mov	 ecx, DWORD PTR [eax]
  00009	50		 push	 eax
  0000a	51		 push	 ecx
  0000b	8d 44 24 0c	 lea	 eax, DWORD PTR $T196893[esp+16]
  0000f	50		 push	 eax
  00010	8b ce		 mov	 ecx, esi
  00012	e8 00 00 00 00	 call	 ?erase@?$_Tree@V?$_Tmap_traits@EHU?$less@E@std@@V?$allocator@U?$pair@$$CBEH@std@@@2@$0A@@std@@@std@@QAE?AViterator@12@V312@0@Z ; std::_Tree<std::_Tmap_traits<unsigned char,int,std::less<unsigned char>,std::allocator<std::pair<unsigned char const ,int> >,0> >::erase
  00017	8b 4e 04	 mov	 ecx, DWORD PTR [esi+4]
  0001a	51		 push	 ecx
  0001b	e8 00 00 00 00	 call	 ??3@YAXPAX@Z		; operator delete
  00020	83 c4 04	 add	 esp, 4
  00023	33 c0		 xor	 eax, eax
  00025	89 46 04	 mov	 DWORD PTR [esi+4], eax
  00028	89 46 08	 mov	 DWORD PTR [esi+8], eax
  0002b	5e		 pop	 esi
  0002c	59		 pop	 ecx
  0002d	c3		 ret	 0
??1?$map@EHU?$less@E@std@@V?$allocator@U?$pair@$$CBEH@std@@@2@@std@@QAE@XZ ENDP ; std::map<unsigned char,int,std::less<unsigned char>,std::allocator<std::pair<unsigned char const ,int> > >::~map<unsigned char,int,std::less<unsigned char>,std::allocator<std::pair<unsigned char const ,int> > >
_TEXT	ENDS
PUBLIC	??_7CEventLua@@6B@				; CEventLua::`vftable'
PUBLIC	??_GCEventLua@@UAEPAXI@Z			; CEventLua::`scalar deleting destructor'
PUBLIC	??1CEventLua@@UAE@XZ				; CEventLua::~CEventLua
EXTRN	??_ECEventLua@@UAEPAXI@Z:NEAR			; CEventLua::`vector deleting destructor'
EXTRN	??1CLuaBase@@UAE@XZ:NEAR			; CLuaBase::~CLuaBase
;	COMDAT xdata$x
; File c:\program files\microsoft visual studio .net 2003\vc7\include\xmemory
xdata$x	SEGMENT
$T197092 DD	0ffffffffH
	DD	FLAT:$L196922
	DD	00H
	DD	FLAT:$L196923
$T197090 DD	019930520H
	DD	02H
	DD	FLAT:$T197092
	DD	2 DUP(00H)
	DD	2 DUP(00H)
xdata$x	ENDS
;	COMDAT ??_7CEventLua@@6B@
CONST	SEGMENT
??_7CEventLua@@6B@ DD FLAT:??_ECEventLua@@UAEPAXI@Z	; CEventLua::`vftable'
; Function compile flags: /Ogty
; File c:\documents and settings\test\mes documents\source\virtuos_v17\build\program\_common\eventlua.cpp
CONST	ENDS
;	COMDAT ??1CEventLua@@UAE@XZ
_TEXT	SEGMENT
$T197061 = -16						; size = 4
_this$ = -16						; size = 4
__$EHRec$ = -12						; size = 12
??1CEventLua@@UAE@XZ PROC NEAR				; CEventLua::~CEventLua, COMDAT
; _this$ = ecx

; 40   : {

  00000	6a ff		 push	 -1
  00002	68 00 00 00 00	 push	 __ehhandler$??1CEventLua@@UAE@XZ
  00007	64 a1 00 00 00
	00		 mov	 eax, DWORD PTR fs:__except_list
  0000d	50		 push	 eax
  0000e	64 89 25 00 00
	00 00		 mov	 DWORD PTR fs:__except_list, esp
  00015	51		 push	 ecx
  00016	56		 push	 esi
  00017	8b f1		 mov	 esi, ecx
  00019	89 74 24 04	 mov	 DWORD PTR _this$[esp+20], esi
  0001d	c7 06 00 00 00
	00		 mov	 DWORD PTR [esi], OFFSET FLAT:??_7CEventLua@@6B@

; 41   : #ifdef __WORLDSERVER
; 42   : #ifdef __EVENTLUA_SPAWN
; 43   : 	m_mapSpawnList.clear();			// spawn       
; 44   : 	m_mapMonsterId.clear();			// spawn         
; 45   : 	m_vecSpawnRegion.clear();		// spawn      (  ) 
; 46   : 	m_mapSpawnedMonster.clear();	// spawn       (    )
; 47   : 	m_vecEndSpawnEvent.clear();		//   ID (  spawn      ID 
; 48   : #endif // __EVENTLUA_SPAWN
; 49   : #ifdef __EVENTLUA_KEEPCONNECT
; 50   : 	m_vecKeepConnectUser.clear();
; 51   : 	m_mapItemList.clear();
; 52   : #endif // __EVENTLUA_KEEPCONNECT
; 53   : #endif // __WORLDSERVER
; 54   : }

  00023	8d 4e 30	 lea	 ecx, DWORD PTR [esi+48]
  00026	c7 44 24 10 01
	00 00 00	 mov	 DWORD PTR __$EHRec$[esp+28], 1
  0002e	e8 00 00 00 00	 call	 ??1CLuaBase@@UAE@XZ	; CLuaBase::~CLuaBase
  00033	8d 46 14	 lea	 eax, DWORD PTR [esi+20]
  00036	50		 push	 eax
  00037	c7 46 10 00 00
	00 00		 mov	 DWORD PTR [esi+16], OFFSET FLAT:??_7CMclCritSec@@6B@
  0003e	ff 15 00 00 00
	00		 call	 DWORD PTR __imp__DeleteCriticalSection@4
  00044	8b 46 08	 mov	 eax, DWORD PTR [esi+8]
  00047	8b 08		 mov	 ecx, DWORD PTR [eax]
  00049	83 c6 04	 add	 esi, 4
  0004c	50		 push	 eax
  0004d	51		 push	 ecx
  0004e	8d 4c 24 0c	 lea	 ecx, DWORD PTR $T197061[esp+28]
  00052	51		 push	 ecx
  00053	8b ce		 mov	 ecx, esi
  00055	c7 44 24 1c ff
	ff ff ff	 mov	 DWORD PTR __$EHRec$[esp+40], -1
  0005d	e8 00 00 00 00	 call	 ?erase@?$_Tree@V?$_Tmap_traits@EHU?$less@E@std@@V?$allocator@U?$pair@$$CBEH@std@@@2@$0A@@std@@@std@@QAE?AViterator@12@V312@0@Z ; std::_Tree<std::_Tmap_traits<unsigned char,int,std::less<unsigned char>,std::allocator<std::pair<unsigned char const ,int> >,0> >::erase
  00062	8b 56 04	 mov	 edx, DWORD PTR [esi+4]
  00065	52		 push	 edx
  00066	e8 00 00 00 00	 call	 ??3@YAXPAX@Z		; operator delete
  0006b	8b 4c 24 0c	 mov	 ecx, DWORD PTR __$EHRec$[esp+24]
  0006f	83 c4 04	 add	 esp, 4
  00072	33 c0		 xor	 eax, eax
  00074	89 46 04	 mov	 DWORD PTR [esi+4], eax
  00077	89 46 08	 mov	 DWORD PTR [esi+8], eax
  0007a	5e		 pop	 esi
  0007b	64 89 0d 00 00
	00 00		 mov	 DWORD PTR fs:__except_list, ecx
  00082	83 c4 10	 add	 esp, 16			; 00000010H
  00085	c3		 ret	 0
_TEXT	ENDS
;	COMDAT text$x
text$x	SEGMENT
$L196922:
  00000	8b 4d f0	 mov	 ecx, DWORD PTR _this$[ebp]
  00003	83 c1 04	 add	 ecx, 4
  00006	e9 00 00 00 00	 jmp	 ??1?$map@EHU?$less@E@std@@V?$allocator@U?$pair@$$CBEH@std@@@2@@std@@QAE@XZ
$L196923:
  0000b	8b 4d f0	 mov	 ecx, DWORD PTR _this$[ebp]
  0000e	83 c1 10	 add	 ecx, 16			; 00000010H
  00011	e9 00 00 00 00	 jmp	 ??1CMclCritSec@@UAE@XZ	; CMclCritSec::~CMclCritSec
__ehhandler$??1CEventLua@@UAE@XZ:
  00016	b8 00 00 00 00	 mov	 eax, OFFSET FLAT:$T197090
  0001b	e9 00 00 00 00	 jmp	 ___CxxFrameHandler
text$x	ENDS
??1CEventLua@@UAE@XZ ENDP				; CEventLua::~CEventLua
PUBLIC	?GetEventList@CEventLua@@QAE?AV?$vector@EV?$allocator@E@std@@@std@@H@Z ; CEventLua::GetEventList
PUBLIC	??_C@_0N@CAKNNDNG@GetEventList?$AA@		; `string'
;	COMDAT xdata$x
; File c:\program files\microsoft visual studio .net 2003\vc7\include\xmemory
xdata$x	SEGMENT
$T197522 DD	0ffffffffH
	DD	FLAT:$L197098
$T197514 DD	019930520H
	DD	01H
	DD	FLAT:$T197522
	DD	2 DUP(00H)
	DD	2 DUP(00H)
xdata$x	ENDS
;	COMDAT ??_C@_0N@CAKNNDNG@GetEventList?$AA@
CONST	SEGMENT
??_C@_0N@CAKNNDNG@GetEventList?$AA@ DB 'GetEventList', 00H ; `string'
; Function compile flags: /Ogty
; File c:\documents and settings\test\mes documents\source\virtuos_v17\build\program\_common\eventlua.cpp
CONST	ENDS
;	COMDAT ?GetEventList@CEventLua@@QAE?AV?$vector@EV?$allocator@E@std@@@std@@H@Z
_TEXT	SEGMENT
$T197097 = -33						; size = 1
$T197100 = -32						; size = 4
_vecList$ = -28						; size = 16
__$EHRec$ = -12						; size = 12
___$ReturnUdt$ = 8					; size = 4
_bProxy$ = 12						; size = 4
?GetEventList@CEventLua@@QAE?AV?$vector@EV?$allocator@E@std@@@std@@H@Z PROC NEAR ; CEventLua::GetEventList, COMDAT
; _this$ = ecx

; 139  : {

  00000	6a ff		 push	 -1
  00002	68 00 00 00 00	 push	 __ehhandler$?GetEventList@CEventLua@@QAE?AV?$vector@EV?$allocator@E@std@@@std@@H@Z
  00007	64 a1 00 00 00
	00		 mov	 eax, DWORD PTR fs:__except_list
  0000d	50		 push	 eax
  0000e	64 89 25 00 00
	00 00		 mov	 DWORD PTR fs:__except_list, esp
  00015	83 ec 18	 sub	 esp, 24			; 00000018H
  00018	53		 push	 ebx
  00019	56		 push	 esi
  0001a	33 f6		 xor	 esi, esi

; 140  : 	vector<BYTE> vecList;

  0001c	33 db		 xor	 ebx, ebx
  0001e	57		 push	 edi
  0001f	8b f9		 mov	 edi, ecx
  00021	89 74 24 10	 mov	 DWORD PTR $T197100[esp+48], esi
  00025	89 74 24 18	 mov	 DWORD PTR _vecList$[esp+52], esi
  00029	89 5c 24 1c	 mov	 DWORD PTR _vecList$[esp+56], ebx
  0002d	89 74 24 20	 mov	 DWORD PTR _vecList$[esp+60], esi

; 141  : 
; 142  : 	if( !IsPossible() )

  00031	39 77 2c	 cmp	 DWORD PTR [edi+44], esi
  00034	89 74 24 2c	 mov	 DWORD PTR __$EHRec$[esp+56], esi
  00038	75 26		 jne	 SHORT $L187313

; 143  : 		return vecList;

  0003a	8b 74 24 34	 mov	 esi, DWORD PTR ___$ReturnUdt$[esp+44]
  0003e	8d 44 24 14	 lea	 eax, DWORD PTR _vecList$[esp+48]
  00042	50		 push	 eax
  00043	8b ce		 mov	 ecx, esi
  00045	e8 00 00 00 00	 call	 ??0?$vector@EV?$allocator@E@std@@@std@@QAE@ABV01@@Z ; std::vector<unsigned char,std::allocator<unsigned char> >::vector<unsigned char,std::allocator<unsigned char> >
  0004a	5f		 pop	 edi
  0004b	8b c6		 mov	 eax, esi
  0004d	5e		 pop	 esi
  0004e	5b		 pop	 ebx

; 171  : }

  0004f	8b 4c 24 18	 mov	 ecx, DWORD PTR __$EHRec$[esp+36]
  00053	64 89 0d 00 00
	00 00		 mov	 DWORD PTR fs:__except_list, ecx
  0005a	83 c4 24	 add	 esp, 36			; 00000024H
  0005d	c2 08 00	 ret	 8
$L187313:
  00060	55		 push	 ebp

; 144  : 
; 145  : #ifdef __WORLDSERVER
; 146  : #if __VER >= 12 // __EVENTLUA_0826
; 147  : 		if( bProxy )
; 148  : 			return m_proxy.GetEventList();
; 149  : #endif	// __EVENTLUA_0826
; 150  : #endif // __WORLDSERVER
; 151  : 
; 152  : 	if( m_Lua.GetLuaFunction( "GetEventList" ) )

  00061	8d 6f 30	 lea	 ebp, DWORD PTR [edi+48]
  00064	68 00 00 00 00	 push	 OFFSET FLAT:??_C@_0N@CAKNNDNG@GetEventList?$AA@
  00069	8b cd		 mov	 ecx, ebp
  0006b	e8 00 00 00 00	 call	 ?GetLuaFunction@CLuaBase@@QAEHPAD@Z ; CLuaBase::GetLuaFunction
  00070	85 c0		 test	 eax, eax
  00072	0f 84 ce 00 00
	00		 je	 $L187319

; 153  : 	{
; 154  : 		m_Lua.CallLuaFunction( 0, 1 );

  00078	6a 01		 push	 1
  0007a	6a 00		 push	 0
  0007c	8b cd		 mov	 ecx, ebp
  0007e	e8 00 00 00 00	 call	 ?CallLuaFunction@CLuaBase@@QAEXHH@Z ; CLuaBase::CallLuaFunction

; 155  : 		if( lua_isnil( m_Lua.GetLuaState(), -1 ) )

  00083	8b 47 34	 mov	 eax, DWORD PTR [edi+52]
  00086	6a ff		 push	 -1
  00088	50		 push	 eax
  00089	e8 00 00 00 00	 call	 _lua_type
  0008e	83 c4 08	 add	 esp, 8
  00091	85 c0		 test	 eax, eax
  00093	75 2f		 jne	 SHORT $L187316

; 156  : 		{
; 157  : 			m_Lua.Pop(0);

  00095	50		 push	 eax
  00096	8b cd		 mov	 ecx, ebp
  00098	e8 00 00 00 00	 call	 ?Pop@CLuaBase@@QAEXH@Z	; CLuaBase::Pop

; 158  : 			return vecList;

  0009d	8b 74 24 38	 mov	 esi, DWORD PTR ___$ReturnUdt$[esp+48]
  000a1	8d 4c 24 18	 lea	 ecx, DWORD PTR _vecList$[esp+52]
  000a5	51		 push	 ecx
  000a6	8b ce		 mov	 ecx, esi
  000a8	e8 00 00 00 00	 call	 ??0?$vector@EV?$allocator@E@std@@@std@@QAE@ABV01@@Z ; std::vector<unsigned char,std::allocator<unsigned char> >::vector<unsigned char,std::allocator<unsigned char> >
  000ad	5d		 pop	 ebp
  000ae	5f		 pop	 edi
  000af	8b c6		 mov	 eax, esi
  000b1	5e		 pop	 esi
  000b2	5b		 pop	 ebx

; 171  : }

  000b3	8b 4c 24 18	 mov	 ecx, DWORD PTR __$EHRec$[esp+36]
  000b7	64 89 0d 00 00
	00 00		 mov	 DWORD PTR fs:__except_list, ecx
  000be	83 c4 24	 add	 esp, 36			; 00000024H
  000c1	c2 08 00	 ret	 8
$L187316:

; 159  : 		}
; 160  : 		
; 161  : 		m_Lua.PushNil();

  000c4	8b 57 34	 mov	 edx, DWORD PTR [edi+52]
  000c7	52		 push	 edx
  000c8	e8 00 00 00 00	 call	 _lua_pushnil

; 162  : 		while( m_Lua.TableLoop(-2) )

  000cd	8b 47 34	 mov	 eax, DWORD PTR [edi+52]
  000d0	6a fe		 push	 -2			; fffffffeH
  000d2	50		 push	 eax
  000d3	e8 00 00 00 00	 call	 _lua_next
  000d8	83 c4 0c	 add	 esp, 12			; 0000000cH
  000db	85 c0		 test	 eax, eax
  000dd	74 67		 je	 SHORT $L187319
  000df	90		 npad	 1
$L187318:

; 163  : 		{
; 164  : 			vecList.push_back( (BYTE)m_Lua.ToNumber(-1) );

  000e0	8b 4f 34	 mov	 ecx, DWORD PTR [edi+52]
  000e3	6a ff		 push	 -1
  000e5	51		 push	 ecx
  000e6	e8 00 00 00 00	 call	 _lua_tonumber
  000eb	83 c4 08	 add	 esp, 8
  000ee	e8 00 00 00 00	 call	 __ftol2
  000f3	85 f6		 test	 esi, esi
  000f5	88 44 24 13	 mov	 BYTE PTR $T197097[esp+52], al
  000f9	74 17		 je	 SHORT $L197427
  000fb	8b 54 24 24	 mov	 edx, DWORD PTR _vecList$[esp+64]
  000ff	8b cb		 mov	 ecx, ebx
  00101	2b ce		 sub	 ecx, esi
  00103	2b d6		 sub	 edx, esi
  00105	3b ca		 cmp	 ecx, edx
  00107	73 09		 jae	 SHORT $L197427
  00109	88 03		 mov	 BYTE PTR [ebx], al
  0010b	43		 inc	 ebx
  0010c	89 5c 24 20	 mov	 DWORD PTR _vecList$[esp+60], ebx
  00110	eb 19		 jmp	 SHORT $L197489
$L197427:
  00112	8d 54 24 13	 lea	 edx, DWORD PTR $T197097[esp+52]
  00116	52		 push	 edx
  00117	6a 01		 push	 1
  00119	53		 push	 ebx
  0011a	8d 4c 24 24	 lea	 ecx, DWORD PTR _vecList$[esp+64]
  0011e	e8 00 00 00 00	 call	 ?_Insert_n@?$vector@EV?$allocator@E@std@@@std@@IAEXViterator@12@IABE@Z ; std::vector<unsigned char,std::allocator<unsigned char> >::_Insert_n
  00123	8b 5c 24 20	 mov	 ebx, DWORD PTR _vecList$[esp+60]
  00127	8b 74 24 1c	 mov	 esi, DWORD PTR _vecList$[esp+56]
$L197489:

; 165  : 			m_Lua.Pop(1);

  0012b	6a 01		 push	 1
  0012d	8b cd		 mov	 ecx, ebp
  0012f	e8 00 00 00 00	 call	 ?Pop@CLuaBase@@QAEXH@Z	; CLuaBase::Pop
  00134	8b 47 34	 mov	 eax, DWORD PTR [edi+52]
  00137	6a fe		 push	 -2			; fffffffeH
  00139	50		 push	 eax
  0013a	e8 00 00 00 00	 call	 _lua_next
  0013f	83 c4 08	 add	 esp, 8
  00142	85 c0		 test	 eax, eax
  00144	75 9a		 jne	 SHORT $L187318
$L187319:

; 166  : 		}
; 167  : 	}
; 168  : 	m_Lua.Pop(0);

  00146	6a 00		 push	 0
  00148	8b cd		 mov	 ecx, ebp
  0014a	e8 00 00 00 00	 call	 ?Pop@CLuaBase@@QAEXH@Z	; CLuaBase::Pop

; 169  : 	
; 170  : 	return vecList;

  0014f	8b 7c 24 38	 mov	 edi, DWORD PTR ___$ReturnUdt$[esp+48]
  00153	8d 4c 24 18	 lea	 ecx, DWORD PTR _vecList$[esp+52]
  00157	51		 push	 ecx
  00158	8b cf		 mov	 ecx, edi
  0015a	e8 00 00 00 00	 call	 ??0?$vector@EV?$allocator@E@std@@@std@@QAE@ABV01@@Z ; std::vector<unsigned char,std::allocator<unsigned char> >::vector<unsigned char,std::allocator<unsigned char> >
  0015f	85 f6		 test	 esi, esi
  00161	74 09		 je	 SHORT $L197511
  00163	56		 push	 esi
  00164	e8 00 00 00 00	 call	 ??3@YAXPAX@Z		; operator delete
  00169	83 c4 04	 add	 esp, 4
$L197511:

; 171  : }

  0016c	8b 4c 24 28	 mov	 ecx, DWORD PTR __$EHRec$[esp+52]
  00170	5d		 pop	 ebp
  00171	8b c7		 mov	 eax, edi
  00173	5f		 pop	 edi
  00174	5e		 pop	 esi
  00175	5b		 pop	 ebx
  00176	64 89 0d 00 00
	00 00		 mov	 DWORD PTR fs:__except_list, ecx
  0017d	83 c4 24	 add	 esp, 36			; 00000024H
  00180	c2 08 00	 ret	 8
_TEXT	ENDS
;	COMDAT text$x
text$x	SEGMENT
$L197098:
  00000	8d 4d e4	 lea	 ecx, DWORD PTR _vecList$[ebp]
  00003	e9 00 00 00 00	 jmp	 ??1?$vector@EV?$allocator@E@std@@@std@@QAE@XZ ; std::vector<unsigned char,std::allocator<unsigned char> >::~vector<unsigned char,std::allocator<unsigned char> >
__ehhandler$?GetEventList@CEventLua@@QAE?AV?$vector@EV?$allocator@E@std@@@std@@H@Z:
  00008	b8 00 00 00 00	 mov	 eax, OFFSET FLAT:$T197514
  0000d	e9 00 00 00 00	 jmp	 ___CxxFrameHandler
text$x	ENDS
?GetEventList@CEventLua@@QAE?AV?$vector@EV?$allocator@E@std@@@std@@H@Z ENDP ; CEventLua::GetEventList
PUBLIC	??0?$map@EHU?$less@E@std@@V?$allocator@U?$pair@$$CBEH@std@@@2@@std@@QAE@XZ ; std::map<unsigned char,int,std::less<unsigned char>,std::allocator<std::pair<unsigned char const ,int> > >::map<unsigned char,int,std::less<unsigned char>,std::allocator<std::pair<unsigned char const ,int> > >
; Function compile flags: /Ogty
; File c:\program files\microsoft visual studio .net 2003\vc7\include\map
;	COMDAT ??0?$map@EHU?$less@E@std@@V?$allocator@U?$pair@$$CBEH@std@@@2@@std@@QAE@XZ
_TEXT	SEGMENT
??0?$map@EHU?$less@E@std@@V?$allocator@U?$pair@$$CBEH@std@@@2@@std@@QAE@XZ PROC NEAR ; std::map<unsigned char,int,std::less<unsigned char>,std::allocator<std::pair<unsigned char const ,int> > >::map<unsigned char,int,std::less<unsigned char>,std::allocator<std::pair<unsigned char const ,int> > >, COMDAT
; _this$ = ecx

; 102  : 		{	// construct empty map from defaults

  00000	56		 push	 esi
  00001	8b f1		 mov	 esi, ecx
  00003	e8 00 00 00 00	 call	 ?_Buynode@?$_Tree@V?$_Tmap_traits@EHU?$less@E@std@@V?$allocator@U?$pair@$$CBEH@std@@@2@$0A@@std@@@std@@IAEPAU_Node@?$_Tree_nod@V?$_Tmap_traits@EHU?$less@E@std@@V?$allocator@U?$pair@$$CBEH@std@@@2@$0A@@std@@@2@XZ ; std::_Tree<std::_Tmap_traits<unsigned char,int,std::less<unsigned char>,std::allocator<std::pair<unsigned char const ,int> >,0> >::_Buynode
  00008	89 46 04	 mov	 DWORD PTR [esi+4], eax
  0000b	c6 40 15 01	 mov	 BYTE PTR [eax+21], 1
  0000f	8b 46 04	 mov	 eax, DWORD PTR [esi+4]
  00012	89 40 04	 mov	 DWORD PTR [eax+4], eax
  00015	8b 46 04	 mov	 eax, DWORD PTR [esi+4]
  00018	89 00		 mov	 DWORD PTR [eax], eax
  0001a	8b 46 04	 mov	 eax, DWORD PTR [esi+4]
  0001d	89 40 08	 mov	 DWORD PTR [eax+8], eax
  00020	c7 46 08 00 00
	00 00		 mov	 DWORD PTR [esi+8], 0

; 103  : 		}

  00027	8b c6		 mov	 eax, esi
  00029	5e		 pop	 esi
  0002a	c3		 ret	 0
??0?$map@EHU?$less@E@std@@V?$allocator@U?$pair@$$CBEH@std@@@2@@std@@QAE@XZ ENDP ; std::map<unsigned char,int,std::less<unsigned char>,std::allocator<std::pair<unsigned char const ,int> > >::map<unsigned char,int,std::less<unsigned char>,std::allocator<std::pair<unsigned char const ,int> > >
_TEXT	ENDS
PUBLIC	??0?$vector@V?$basic_string@DU?$char_traits@D@std@@V?$allocator@D@2@@std@@V?$allocator@V?$basic_string@DU?$char_traits@D@std@@V?$allocator@D@2@@std@@@2@@std@@QAE@ABV01@@Z ; std::vector<std::basic_string<char,std::char_traits<char>,std::allocator<char> >,std::allocator<std::basic_string<char,std::char_traits<char>,std::allocator<char> > > >::vector<std::basic_string<char,std::char_traits<char>,std::allocator<char> >,std::allocator<std::basic_string<char,std::char_traits<char>,std::allocator<char> > > >
;	COMDAT xdata$x
; File c:\program files\microsoft visual studio .net 2003\vc7\include\xutility
xdata$x	SEGMENT
$T197813 DD	0ffffffffH
	DD	00H
	DD	0ffffffffH
	DD	00H
$T197815 DD	00H
	DD	00H
	DD	00H
	DD	FLAT:$L197698
$T197814 DD	00H
	DD	00H
	DD	01H
	DD	01H
	DD	FLAT:$T197815
$T197809 DD	019930520H
	DD	02H
	DD	FLAT:$T197813
	DD	01H
	DD	FLAT:$T197814
	DD	2 DUP(00H)
; Function compile flags: /Ogty
; File c:\program files\microsoft visual studio .net 2003\vc7\include\vector
xdata$x	ENDS
;	COMDAT ??0?$vector@V?$basic_string@DU?$char_traits@D@std@@V?$allocator@D@2@@std@@V?$allocator@V?$basic_string@DU?$char_traits@D@std@@V?$allocator@D@2@@std@@@2@@std@@QAE@ABV01@@Z
_TEXT	SEGMENT
_this$ = -20						; size = 4
__$EHRec$ = -16						; size = 16
__Cat$197802 = 8					; size = 1
__Right$ = 8						; size = 4
??0?$vector@V?$basic_string@DU?$char_traits@D@std@@V?$allocator@D@2@@std@@V?$allocator@V?$basic_string@DU?$char_traits@D@std@@V?$allocator@D@2@@std@@@2@@std@@QAE@ABV01@@Z PROC NEAR ; std::vector<std::basic_string<char,std::char_traits<char>,std::allocator<char> >,std::allocator<std::basic_string<char,std::char_traits<char>,std::allocator<char> > > >::vector<std::basic_string<char,std::char_traits<char>,std::allocator<char> >,std::allocator<std::basic_string<char,std::char_traits<char>,std::allocator<char> > > >, COMDAT
; _this$ = ecx

; 329  : 		{	// construct by copying _Right

  00000	55		 push	 ebp
  00001	8b ec		 mov	 ebp, esp
  00003	6a ff		 push	 -1
  00005	68 00 00 00 00	 push	 __ehhandler$??0?$vector@V?$basic_string@DU?$char_traits@D@std@@V?$allocator@D@2@@std@@V?$allocator@V?$basic_string@DU?$char_traits@D@std@@V?$allocator@D@2@@std@@@2@@std@@QAE@ABV01@@Z
  0000a	64 a1 00 00 00
	00		 mov	 eax, DWORD PTR fs:__except_list
  00010	50		 push	 eax
  00011	64 89 25 00 00
	00 00		 mov	 DWORD PTR fs:__except_list, esp
  00018	83 ec 08	 sub	 esp, 8
  0001b	53		 push	 ebx

; 330  : 		if (_Buy(_Right.size()))

  0001c	8b 5d 08	 mov	 ebx, DWORD PTR __Right$[ebp]
  0001f	8b 43 04	 mov	 eax, DWORD PTR [ebx+4]
  00022	56		 push	 esi
  00023	8b f1		 mov	 esi, ecx
  00025	33 c9		 xor	 ecx, ecx
  00027	3b c1		 cmp	 eax, ecx
  00029	57		 push	 edi
  0002a	89 65 f0	 mov	 DWORD PTR __$EHRec$[ebp], esp
  0002d	89 75 ec	 mov	 DWORD PTR _this$[ebp], esi
  00030	75 04		 jne	 SHORT $L197716
  00032	33 ff		 xor	 edi, edi
  00034	eb 1a		 jmp	 SHORT $L197717
$L197716:
  00036	8b 4b 08	 mov	 ecx, DWORD PTR [ebx+8]
  00039	2b c8		 sub	 ecx, eax
  0003b	b8 93 24 49 92	 mov	 eax, -1840700269	; 92492493H
  00040	f7 e9		 imul	 ecx
  00042	03 d1		 add	 edx, ecx
  00044	c1 fa 04	 sar	 edx, 4
  00047	8b fa		 mov	 edi, edx
  00049	c1 ef 1f	 shr	 edi, 31			; 0000001fH
  0004c	03 fa		 add	 edi, edx
  0004e	33 c9		 xor	 ecx, ecx
$L197717:
  00050	3b f9		 cmp	 edi, ecx
  00052	89 4e 04	 mov	 DWORD PTR [esi+4], ecx
  00055	89 4e 08	 mov	 DWORD PTR [esi+8], ecx
  00058	89 4e 0c	 mov	 DWORD PTR [esi+12], ecx
  0005b	74 43		 je	 SHORT $L187392
  0005d	81 ff 49 92 24
	09		 cmp	 edi, 153391689		; 09249249H
  00063	76 07		 jbe	 SHORT $L197759
  00065	8b ce		 mov	 ecx, esi
  00067	e8 00 00 00 00	 call	 ?_Xlen@?$vector@V?$basic_string@DU?$char_traits@D@std@@V?$allocator@D@2@@std@@V?$allocator@V?$basic_string@DU?$char_traits@D@std@@V?$allocator@D@2@@std@@@2@@std@@IBEXXZ ; std::vector<std::basic_string<char,std::char_traits<char>,std::allocator<char> >,std::allocator<std::basic_string<char,std::char_traits<char>,std::allocator<char> > > >::_Xlen
$L197759:
  0006c	6b ff 1c	 imul	 edi, 28			; 0000001cH
  0006f	57		 push	 edi
  00070	e8 00 00 00 00	 call	 ??2@YAPAXI@Z		; operator new

; 331  : 			_TRY_BEGIN
; 332  : 			_Mylast = _Ucopy(_Right.begin(), _Right.end(), _Myfirst);

  00075	8b 55 08	 mov	 edx, DWORD PTR __Cat$197802[ebp]
  00078	52		 push	 edx
  00079	03 f8		 add	 edi, eax
  0007b	56		 push	 esi
  0007c	89 46 04	 mov	 DWORD PTR [esi+4], eax
  0007f	89 46 08	 mov	 DWORD PTR [esi+8], eax
  00082	89 7e 0c	 mov	 DWORD PTR [esi+12], edi
  00085	8b 4b 08	 mov	 ecx, DWORD PTR [ebx+8]
  00088	8b 5b 04	 mov	 ebx, DWORD PTR [ebx+4]
  0008b	50		 push	 eax
  0008c	51		 push	 ecx
  0008d	53		 push	 ebx
  0008e	c7 45 fc 00 00
	00 00		 mov	 DWORD PTR __$EHRec$[ebp+12], 0
  00095	e8 00 00 00 00	 call	 ??$_Uninit_copy@Vconst_iterator@?$vector@V?$basic_string@DU?$char_traits@D@std@@V?$allocator@D@2@@std@@V?$allocator@V?$basic_string@DU?$char_traits@D@std@@V?$allocator@D@2@@std@@@2@@std@@PAV?$basic_string@DU?$char_traits@D@std@@V?$allocator@D@2@@3@V?$allocator@V?$basic_string@DU?$char_traits@D@std@@V?$allocator@D@2@@std@@@3@@std@@YAPAV?$basic_string@DU?$char_traits@D@std@@V?$allocator@D@2@@0@Vconst_iterator@?$vector@V?$basic_string@DU?$char_traits@D@std@@V?$allocator@D@2@@std@@V?$allocator@V?$basic_string@DU?$char_traits@D@std@@V?$allocator@D@2@@std@@@2@@0@0PAV10@AAV?$allocator@V?$basic_string@DU?$char_traits@D@std@@V?$allocator@D@2@@std@@@0@U_Nonscalar_ptr_iterator_tag@0@@Z ; std::_Uninit_copy<std::vector<std::basic_string<char,std::char_traits<char>,std::allocator<char> >,std::allocator<std::basic_string<char,std::char_traits<char>,std::allocator<char> > > >::const_iterator,std::basic_string<char,std::char_traits<char>,std::allocator<char> > *,std::allocator<std::basic_string<char,std::char_traits<char>,std::allocator<char> > > >
  0009a	83 c4 18	 add	 esp, 24			; 00000018H
  0009d	89 46 08	 mov	 DWORD PTR [esi+8], eax
$L187392:

; 336  : 			_CATCH_END
; 337  : 		}

  000a0	8b 4d f4	 mov	 ecx, DWORD PTR __$EHRec$[ebp+4]
  000a3	5f		 pop	 edi
  000a4	8b c6		 mov	 eax, esi
  000a6	5e		 pop	 esi
  000a7	64 89 0d 00 00
	00 00		 mov	 DWORD PTR fs:__except_list, ecx
  000ae	5b		 pop	 ebx
  000af	8b e5		 mov	 esp, ebp
  000b1	5d		 pop	 ebp
  000b2	c2 04 00	 ret	 4
$L197698:

; 333  : 			_CATCH_ALL
; 334  : 			_Tidy();

  000b5	8b 4d ec	 mov	 ecx, DWORD PTR _this$[ebp]
  000b8	e8 00 00 00 00	 call	 ?_Tidy@?$vector@V?$basic_string@DU?$char_traits@D@std@@V?$allocator@D@2@@std@@V?$allocator@V?$basic_string@DU?$char_traits@D@std@@V?$allocator@D@2@@std@@@2@@std@@IAEXXZ ; std::vector<std::basic_string<char,std::char_traits<char>,std::allocator<char> >,std::allocator<std::basic_string<char,std::char_traits<char>,std::allocator<char> > > >::_Tidy

; 335  : 			_RERAISE;

  000bd	6a 00		 push	 0
  000bf	6a 00		 push	 0
  000c1	e8 00 00 00 00	 call	 __CxxThrowException@8
$L197812:
  000c6	cc		 int	 3
_TEXT	ENDS
;	COMDAT text$x
text$x	SEGMENT
__ehhandler$??0?$vector@V?$basic_string@DU?$char_traits@D@std@@V?$allocator@D@2@@std@@V?$allocator@V?$basic_string@DU?$char_traits@D@std@@V?$allocator@D@2@@std@@@2@@std@@QAE@ABV01@@Z:
  00000	b8 00 00 00 00	 mov	 eax, OFFSET FLAT:$T197809
  00005	e9 00 00 00 00	 jmp	 ___CxxFrameHandler
text$x	ENDS
??0?$vector@V?$basic_string@DU?$char_traits@D@std@@V?$allocator@D@2@@std@@V?$allocator@V?$basic_string@DU?$char_traits@D@std@@V?$allocator@D@2@@std@@@2@@std@@QAE@ABV01@@Z ENDP ; std::vector<std::basic_string<char,std::char_traits<char>,std::allocator<char> >,std::allocator<std::basic_string<char,std::char_traits<char>,std::allocator<char> > > >::vector<std::basic_string<char,std::char_traits<char>,std::allocator<char> >,std::allocator<std::basic_string<char,std::char_traits<char>,std::allocator<char> > > >
PUBLIC	??1?$vector@V?$basic_string@DU?$char_traits@D@std@@V?$allocator@D@2@@std@@V?$allocator@V?$basic_string@DU?$char_traits@D@std@@V?$allocator@D@2@@std@@@2@@std@@QAE@XZ ; std::vector<std::basic_string<char,std::char_traits<char>,std::allocator<char> >,std::allocator<std::basic_string<char,std::char_traits<char>,std::allocator<char> > > >::~vector<std::basic_string<char,std::char_traits<char>,std::allocator<char> >,std::allocator<std::basic_string<char,std::char_traits<char>,std::allocator<char> > > >
; Function compile flags: /Ogty
;	COMDAT ??1?$vector@V?$basic_string@DU?$char_traits@D@std@@V?$allocator@D@2@@std@@V?$allocator@V?$basic_string@DU?$char_traits@D@std@@V?$allocator@D@2@@std@@@2@@std@@QAE@XZ
_TEXT	SEGMENT
__Cat$197857 = -4					; size = 1
??1?$vector@V?$basic_string@DU?$char_traits@D@std@@V?$allocator@D@2@@std@@V?$allocator@V?$basic_string@DU?$char_traits@D@std@@V?$allocator@D@2@@std@@@2@@std@@QAE@XZ PROC NEAR ; std::vector<std::basic_string<char,std::char_traits<char>,std::allocator<char> >,std::allocator<std::basic_string<char,std::char_traits<char>,std::allocator<char> > > >::~vector<std::basic_string<char,std::char_traits<char>,std::allocator<char> >,std::allocator<std::basic_string<char,std::char_traits<char>,std::allocator<char> > > >, COMDAT
; _this$ = ecx

; 387  : 		{	// destroy the object

  00000	51		 push	 ecx
  00001	56		 push	 esi
  00002	8b f1		 mov	 esi, ecx

; 388  : 		_Tidy();

  00004	8b 46 04	 mov	 eax, DWORD PTR [esi+4]
  00007	85 c0		 test	 eax, eax
  00009	74 1c		 je	 SHORT $L197860
  0000b	8b 4c 24 04	 mov	 ecx, DWORD PTR __Cat$197857[esp+8]
  0000f	8b 56 08	 mov	 edx, DWORD PTR [esi+8]
  00012	51		 push	 ecx
  00013	56		 push	 esi
  00014	52		 push	 edx
  00015	50		 push	 eax
  00016	e8 00 00 00 00	 call	 ??$_Destroy_range@V?$basic_string@DU?$char_traits@D@std@@V?$allocator@D@2@@std@@V?$allocator@V?$basic_string@DU?$char_traits@D@std@@V?$allocator@D@2@@std@@@2@@std@@YAXPAV?$basic_string@DU?$char_traits@D@std@@V?$allocator@D@2@@0@0AAV?$allocator@V?$basic_string@DU?$char_traits@D@std@@V?$allocator@D@2@@std@@@0@U_Nonscalar_ptr_iterator_tag@0@@Z ; std::_Destroy_range<std::basic_string<char,std::char_traits<char>,std::allocator<char> >,std::allocator<std::basic_string<char,std::char_traits<char>,std::allocator<char> > > >
  0001b	8b 46 04	 mov	 eax, DWORD PTR [esi+4]
  0001e	50		 push	 eax
  0001f	e8 00 00 00 00	 call	 ??3@YAXPAX@Z		; operator delete
  00024	83 c4 14	 add	 esp, 20			; 00000014H
$L197860:
  00027	c7 46 04 00 00
	00 00		 mov	 DWORD PTR [esi+4], 0
  0002e	c7 46 08 00 00
	00 00		 mov	 DWORD PTR [esi+8], 0
  00035	c7 46 0c 00 00
	00 00		 mov	 DWORD PTR [esi+12], 0
  0003c	5e		 pop	 esi

; 389  : 		}

  0003d	59		 pop	 ecx
  0003e	c3		 ret	 0
??1?$vector@V?$basic_string@DU?$char_traits@D@std@@V?$allocator@D@2@@std@@V?$allocator@V?$basic_string@DU?$char_traits@D@std@@V?$allocator@D@2@@std@@@2@@std@@QAE@XZ ENDP ; std::vector<std::basic_string<char,std::char_traits<char>,std::allocator<char> >,std::allocator<std::basic_string<char,std::char_traits<char>,std::allocator<char> > > >::~vector<std::basic_string<char,std::char_traits<char>,std::allocator<char> >,std::allocator<std::basic_string<char,std::char_traits<char>,std::allocator<char> > > >
_TEXT	ENDS
PUBLIC	?insert@?$vector@V?$basic_string@DU?$char_traits@D@std@@V?$allocator@D@2@@std@@V?$allocator@V?$basic_string@DU?$char_traits@D@std@@V?$allocator@D@2@@std@@@2@@std@@QAE?AViterator@12@V312@ABV?$basic_string@DU?$char_traits@D@std@@V?$allocator@D@2@@2@@Z ; std::vector<std::basic_string<char,std::char_traits<char>,std::allocator<char> >,std::allocator<std::basic_string<char,std::char_traits<char>,std::allocator<char> > > >::insert
; Function compile flags: /Ogty
;	COMDAT ?insert@?$vector@V?$basic_string@DU?$char_traits@D@std@@V?$allocator@D@2@@std@@V?$allocator@V?$basic_string@DU?$char_traits@D@std@@V?$allocator@D@2@@std@@@2@@std@@QAE?AViterator@12@V312@ABV?$basic_string@DU?$char_traits@D@std@@V?$allocator@D@2@@2@@Z
_TEXT	SEGMENT
___$ReturnUdt$ = 8					; size = 4
tv90 = 12						; size = 4
__Where$ = 12						; size = 4
__Val$ = 16						; size = 4
?insert@?$vector@V?$basic_string@DU?$char_traits@D@std@@V?$allocator@D@2@@std@@V?$allocator@V?$basic_string@DU?$char_traits@D@std@@V?$allocator@D@2@@std@@@2@@std@@QAE?AViterator@12@V312@ABV?$basic_string@DU?$char_traits@D@std@@V?$allocator@D@2@@2@@Z PROC NEAR ; std::vector<std::basic_string<char,std::char_traits<char>,std::allocator<char> >,std::allocator<std::basic_string<char,std::char_traits<char>,std::allocator<char> > > >::insert, COMDAT
; _this$ = ecx

; 620  : 		{	// insert _Val at _Where

  00000	53		 push	 ebx

; 621  : 		size_type _Off = size() == 0 ? 0 : _Where - begin();

  00001	8b 5c 24 0c	 mov	 ebx, DWORD PTR __Where$[esp]
  00005	56		 push	 esi
  00006	57		 push	 edi
  00007	8b f9		 mov	 edi, ecx
  00009	8b 77 04	 mov	 esi, DWORD PTR [edi+4]
  0000c	85 f6		 test	 esi, esi
  0000e	74 1e		 je	 SHORT $L197927
  00010	8b 4f 08	 mov	 ecx, DWORD PTR [edi+8]
  00013	2b ce		 sub	 ecx, esi
  00015	b8 93 24 49 92	 mov	 eax, -1840700269	; 92492493H
  0001a	f7 e9		 imul	 ecx
  0001c	03 d1		 add	 edx, ecx
  0001e	c1 fa 04	 sar	 edx, 4
  00021	8b c2		 mov	 eax, edx
  00023	c1 e8 1f	 shr	 eax, 31			; 0000001fH
  00026	03 c2		 add	 eax, edx
  00028	89 44 24 14	 mov	 DWORD PTR tv90[esp+8], eax
  0002c	75 04		 jne	 SHORT $L197866
$L197927:
  0002e	33 f6		 xor	 esi, esi
  00030	eb 17		 jmp	 SHORT $L197867
$L197866:
  00032	8b cb		 mov	 ecx, ebx
  00034	2b ce		 sub	 ecx, esi
  00036	b8 93 24 49 92	 mov	 eax, -1840700269	; 92492493H
  0003b	f7 e9		 imul	 ecx
  0003d	03 d1		 add	 edx, ecx
  0003f	c1 fa 04	 sar	 edx, 4
  00042	8b f2		 mov	 esi, edx
  00044	c1 ee 1f	 shr	 esi, 31			; 0000001fH
  00047	03 f2		 add	 esi, edx
$L197867:

; 622  : 		_Insert_n(_Where, (size_type)1, _Val);

  00049	8b 4c 24 18	 mov	 ecx, DWORD PTR __Val$[esp+8]
  0004d	51		 push	 ecx
  0004e	6a 01		 push	 1
  00050	53		 push	 ebx
  00051	8b cf		 mov	 ecx, edi
  00053	e8 00 00 00 00	 call	 ?_Insert_n@?$vector@V?$basic_string@DU?$char_traits@D@std@@V?$allocator@D@2@@std@@V?$allocator@V?$basic_string@DU?$char_traits@D@std@@V?$allocator@D@2@@std@@@2@@std@@IAEXViterator@12@IABV?$basic_string@DU?$char_traits@D@std@@V?$allocator@D@2@@2@@Z ; std::vector<std::basic_string<char,std::char_traits<char>,std::allocator<char> >,std::allocator<std::basic_string<char,std::char_traits<char>,std::allocator<char> > > >::_Insert_n

; 623  : 		return (begin() + _Off);

  00058	6b f6 1c	 imul	 esi, 28			; 0000001cH
  0005b	03 77 04	 add	 esi, DWORD PTR [edi+4]
  0005e	8b 44 24 10	 mov	 eax, DWORD PTR ___$ReturnUdt$[esp+8]
  00062	5f		 pop	 edi
  00063	89 30		 mov	 DWORD PTR [eax], esi
  00065	5e		 pop	 esi
  00066	5b		 pop	 ebx

; 624  : 		}

  00067	c2 0c 00	 ret	 12			; 0000000cH
?insert@?$vector@V?$basic_string@DU?$char_traits@D@std@@V?$allocator@D@2@@std@@V?$allocator@V?$basic_string@DU?$char_traits@D@std@@V?$allocator@D@2@@std@@@2@@std@@QAE?AViterator@12@V312@ABV?$basic_string@DU?$char_traits@D@std@@V?$allocator@D@2@@2@@Z ENDP ; std::vector<std::basic_string<char,std::char_traits<char>,std::allocator<char> >,std::allocator<std::basic_string<char,std::char_traits<char>,std::allocator<char> > > >::insert
_TEXT	ENDS
PUBLIC	??0CEventLua@@QAE@XZ				; CEventLua::CEventLua
EXTRN	??0CLuaBase@@QAE@XZ:NEAR			; CLuaBase::CLuaBase
;	COMDAT xdata$x
; File c:\documents and settings\test\mes documents\source\virtuos_v17\build\program\_network\mcl\include\cmclcritsec.h
xdata$x	SEGMENT
$T198154 DD	0ffffffffH
	DD	FLAT:$L197930
	DD	00H
	DD	FLAT:$L197931
$T198152 DD	019930520H
	DD	02H
	DD	FLAT:$T198154
	DD	2 DUP(00H)
	DD	2 DUP(00H)
; Function compile flags: /Ogty
; File c:\documents and settings\test\mes documents\source\virtuos_v17\build\program\_common\eventlua.cpp
xdata$x	ENDS
;	COMDAT ??0CEventLua@@QAE@XZ
_TEXT	SEGMENT
_this$ = -16						; size = 4
__$EHRec$ = -12						; size = 12
??0CEventLua@@QAE@XZ PROC NEAR				; CEventLua::CEventLua, COMDAT
; _this$ = ecx

; 30   : {

  00000	6a ff		 push	 -1
  00002	68 00 00 00 00	 push	 __ehhandler$??0CEventLua@@QAE@XZ
  00007	64 a1 00 00 00
	00		 mov	 eax, DWORD PTR fs:__except_list
  0000d	50		 push	 eax
  0000e	64 89 25 00 00
	00 00		 mov	 DWORD PTR fs:__except_list, esp
  00015	51		 push	 ecx
  00016	56		 push	 esi
  00017	8b f1		 mov	 esi, ecx
  00019	57		 push	 edi
  0001a	8d 7e 04	 lea	 edi, DWORD PTR [esi+4]
  0001d	8b cf		 mov	 ecx, edi
  0001f	89 74 24 08	 mov	 DWORD PTR _this$[esp+24], esi
  00023	c7 06 00 00 00
	00		 mov	 DWORD PTR [esi], OFFSET FLAT:??_7CEventLua@@6B@
  00029	e8 00 00 00 00	 call	 ?_Buynode@?$_Tree@V?$_Tmap_traits@EHU?$less@E@std@@V?$allocator@U?$pair@$$CBEH@std@@@2@$0A@@std@@@std@@IAEPAU_Node@?$_Tree_nod@V?$_Tmap_traits@EHU?$less@E@std@@V?$allocator@U?$pair@$$CBEH@std@@@2@$0A@@std@@@2@XZ ; std::_Tree<std::_Tmap_traits<unsigned char,int,std::less<unsigned char>,std::allocator<std::pair<unsigned char const ,int> >,0> >::_Buynode
  0002e	89 47 04	 mov	 DWORD PTR [edi+4], eax
  00031	c6 40 15 01	 mov	 BYTE PTR [eax+21], 1
  00035	8b 47 04	 mov	 eax, DWORD PTR [edi+4]
  00038	89 40 04	 mov	 DWORD PTR [eax+4], eax
  0003b	8b 47 04	 mov	 eax, DWORD PTR [edi+4]
  0003e	89 00		 mov	 DWORD PTR [eax], eax
  00040	8b 47 04	 mov	 eax, DWORD PTR [edi+4]
  00043	89 40 08	 mov	 DWORD PTR [eax+8], eax
  00046	c7 47 08 00 00
	00 00		 mov	 DWORD PTR [edi+8], 0
  0004d	8d 46 14	 lea	 eax, DWORD PTR [esi+20]
  00050	50		 push	 eax
  00051	c7 44 24 18 00
	00 00 00	 mov	 DWORD PTR __$EHRec$[esp+36], 0
  00059	c7 46 10 00 00
	00 00		 mov	 DWORD PTR [esi+16], OFFSET FLAT:??_7CMclCritSec@@6B@
  00060	ff 15 00 00 00
	00		 call	 DWORD PTR __imp__InitializeCriticalSection@4
  00066	8d 4e 30	 lea	 ecx, DWORD PTR [esi+48]
  00069	c6 44 24 14 01	 mov	 BYTE PTR __$EHRec$[esp+32], 1
  0006e	e8 00 00 00 00	 call	 ??0CLuaBase@@QAE@XZ	; CLuaBase::CLuaBase

; 31   : 	m_bRun = FALSE;
; 32   : #ifdef __VTN_TIMELIMIT
; 33   : #ifdef __DBSERVER
; 34   : 	m_bTimeLimit = TRUE;
; 35   : #endif // __DBSERVER
; 36   : #endif // __VTN_TIMELIMIT
; 37   : }

  00073	8b 4c 24 0c	 mov	 ecx, DWORD PTR __$EHRec$[esp+24]
  00077	c7 46 2c 00 00
	00 00		 mov	 DWORD PTR [esi+44], 0
  0007e	5f		 pop	 edi
  0007f	8b c6		 mov	 eax, esi
  00081	5e		 pop	 esi
  00082	64 89 0d 00 00
	00 00		 mov	 DWORD PTR fs:__except_list, ecx
  00089	83 c4 10	 add	 esp, 16			; 00000010H
  0008c	c3		 ret	 0
_TEXT	ENDS
;	COMDAT text$x
text$x	SEGMENT
$L197930:
  00000	8b 4d f0	 mov	 ecx, DWORD PTR _this$[ebp]
  00003	83 c1 04	 add	 ecx, 4
  00006	e9 00 00 00 00	 jmp	 ??1?$map@EHU?$less@E@std@@V?$allocator@U?$pair@$$CBEH@std@@@2@@std@@QAE@XZ
$L197931:
  0000b	8b 4d f0	 mov	 ecx, DWORD PTR _this$[ebp]
  0000e	83 c1 10	 add	 ecx, 16			; 00000010H
  00011	e9 00 00 00 00	 jmp	 ??1CMclCritSec@@UAE@XZ	; CMclCritSec::~CMclCritSec
__ehhandler$??0CEventLua@@QAE@XZ:
  00016	b8 00 00 00 00	 mov	 eax, OFFSET FLAT:$T198152
  0001b	e9 00 00 00 00	 jmp	 ___CxxFrameHandler
text$x	ENDS
??0CEventLua@@QAE@XZ ENDP				; CEventLua::CEventLua
; Function compile flags: /Ogty
;	COMDAT ??_GCEventLua@@UAEPAXI@Z
_TEXT	SEGMENT
___flags$ = 8						; size = 4
??_GCEventLua@@UAEPAXI@Z PROC NEAR			; CEventLua::`scalar deleting destructor', COMDAT
; _this$ = ecx
  00000	56		 push	 esi
  00001	8b f1		 mov	 esi, ecx
  00003	e8 00 00 00 00	 call	 ??1CEventLua@@UAE@XZ	; CEventLua::~CEventLua
  00008	f6 44 24 08 01	 test	 BYTE PTR ___flags$[esp], 1
  0000d	74 09		 je	 SHORT $L198159
  0000f	56		 push	 esi
  00010	e8 00 00 00 00	 call	 ??3@YAXPAX@Z		; operator delete
  00015	83 c4 04	 add	 esp, 4
$L198159:
  00018	8b c6		 mov	 eax, esi
  0001a	5e		 pop	 esi
  0001b	c2 04 00	 ret	 4
??_GCEventLua@@UAEPAXI@Z ENDP				; CEventLua::`scalar deleting destructor'
_TEXT	ENDS
PUBLIC	?push_back@?$vector@V?$basic_string@DU?$char_traits@D@std@@V?$allocator@D@2@@std@@V?$allocator@V?$basic_string@DU?$char_traits@D@std@@V?$allocator@D@2@@std@@@2@@std@@QAEXABV?$basic_string@DU?$char_traits@D@std@@V?$allocator@D@2@@2@@Z ; std::vector<std::basic_string<char,std::char_traits<char>,std::allocator<char> >,std::allocator<std::basic_string<char,std::char_traits<char>,std::allocator<char> > > >::push_back
; Function compile flags: /Ogty
; File c:\program files\microsoft visual studio .net 2003\vc7\include\vector
;	COMDAT ?push_back@?$vector@V?$basic_string@DU?$char_traits@D@std@@V?$allocator@D@2@@std@@V?$allocator@V?$basic_string@DU?$char_traits@D@std@@V?$allocator@D@2@@std@@@2@@std@@QAEXABV?$basic_string@DU?$char_traits@D@std@@V?$allocator@D@2@@2@@Z
_TEXT	SEGMENT
__Cat$198197 = 8					; size = 1
$T198163 = 8						; size = 4
__Val$ = 8						; size = 4
?push_back@?$vector@V?$basic_string@DU?$char_traits@D@std@@V?$allocator@D@2@@std@@V?$allocator@V?$basic_string@DU?$char_traits@D@std@@V?$allocator@D@2@@std@@@2@@std@@QAEXABV?$basic_string@DU?$char_traits@D@std@@V?$allocator@D@2@@2@@Z PROC NEAR ; std::vector<std::basic_string<char,std::char_traits<char>,std::allocator<char> >,std::allocator<std::basic_string<char,std::char_traits<char>,std::allocator<char> > > >::push_back, COMDAT
; _this$ = ecx

; 579  : 		{	// insert element at end

  00000	53		 push	 ebx
  00001	56		 push	 esi
  00002	57		 push	 edi
  00003	8b f9		 mov	 edi, ecx

; 580  : 		if (size() < capacity())

  00005	8b 5f 04	 mov	 ebx, DWORD PTR [edi+4]
  00008	85 db		 test	 ebx, ebx
  0000a	75 04		 jne	 SHORT $L198169
  0000c	33 f6		 xor	 esi, esi
  0000e	eb 18		 jmp	 SHORT $L198170
$L198169:
  00010	8b 4f 08	 mov	 ecx, DWORD PTR [edi+8]
  00013	2b cb		 sub	 ecx, ebx
  00015	b8 93 24 49 92	 mov	 eax, -1840700269	; 92492493H
  0001a	f7 e9		 imul	 ecx
  0001c	03 d1		 add	 edx, ecx
  0001e	c1 fa 04	 sar	 edx, 4
  00021	8b f2		 mov	 esi, edx
  00023	c1 ee 1f	 shr	 esi, 31			; 0000001fH
  00026	03 f2		 add	 esi, edx
$L198170:
  00028	85 db		 test	 ebx, ebx
  0002a	74 41		 je	 SHORT $L187483
  0002c	8b 4f 0c	 mov	 ecx, DWORD PTR [edi+12]
  0002f	2b cb		 sub	 ecx, ebx
  00031	b8 93 24 49 92	 mov	 eax, -1840700269	; 92492493H
  00036	f7 e9		 imul	 ecx
  00038	03 d1		 add	 edx, ecx
  0003a	c1 fa 04	 sar	 edx, 4
  0003d	8b c2		 mov	 eax, edx
  0003f	c1 e8 1f	 shr	 eax, 31			; 0000001fH
  00042	03 c2		 add	 eax, edx
  00044	3b f0		 cmp	 esi, eax
  00046	73 25		 jae	 SHORT $L187483

; 581  : 			_Mylast = _Ufill(_Mylast, 1, _Val);

  00048	8b 44 24 10	 mov	 eax, DWORD PTR __Cat$198197[esp+8]
  0004c	8b 4c 24 10	 mov	 ecx, DWORD PTR __Val$[esp+8]
  00050	8b 77 08	 mov	 esi, DWORD PTR [edi+8]
  00053	50		 push	 eax
  00054	57		 push	 edi
  00055	51		 push	 ecx
  00056	6a 01		 push	 1
  00058	56		 push	 esi
  00059	e8 00 00 00 00	 call	 ??$_Uninit_fill_n@PAV?$basic_string@DU?$char_traits@D@std@@V?$allocator@D@2@@std@@IV12@V?$allocator@V?$basic_string@DU?$char_traits@D@std@@V?$allocator@D@2@@std@@@2@@std@@YAXPAV?$basic_string@DU?$char_traits@D@std@@V?$allocator@D@2@@0@IABV10@AAV?$allocator@V?$basic_string@DU?$char_traits@D@std@@V?$allocator@D@2@@std@@@0@U_Nonscalar_ptr_iterator_tag@0@@Z ; std::_Uninit_fill_n<std::basic_string<char,std::char_traits<char>,std::allocator<char> > *,unsigned int,std::basic_string<char,std::char_traits<char>,std::allocator<char> >,std::allocator<std::basic_string<char,std::char_traits<char>,std::allocator<char> > > >
  0005e	83 c4 14	 add	 esp, 20			; 00000014H
  00061	83 c6 1c	 add	 esi, 28			; 0000001cH
  00064	89 77 08	 mov	 DWORD PTR [edi+8], esi
  00067	5f		 pop	 edi
  00068	5e		 pop	 esi
  00069	5b		 pop	 ebx

; 584  : 		}

  0006a	c2 04 00	 ret	 4
$L187483:

; 582  : 		else
; 583  : 			insert(end(), _Val);

  0006d	8b 54 24 10	 mov	 edx, DWORD PTR __Val$[esp+8]
  00071	8b 47 08	 mov	 eax, DWORD PTR [edi+8]
  00074	52		 push	 edx
  00075	50		 push	 eax
  00076	8d 44 24 18	 lea	 eax, DWORD PTR $T198163[esp+16]
  0007a	50		 push	 eax
  0007b	8b cf		 mov	 ecx, edi
  0007d	e8 00 00 00 00	 call	 ?insert@?$vector@V?$basic_string@DU?$char_traits@D@std@@V?$allocator@D@2@@std@@V?$allocator@V?$basic_string@DU?$char_traits@D@std@@V?$allocator@D@2@@std@@@2@@std@@QAE?AViterator@12@V312@ABV?$basic_string@DU?$char_traits@D@std@@V?$allocator@D@2@@2@@Z ; std::vector<std::basic_string<char,std::char_traits<char>,std::allocator<char> >,std::allocator<std::basic_string<char,std::char_traits<char>,std::allocator<char> > > >::insert
  00082	5f		 pop	 edi
  00083	5e		 pop	 esi
  00084	5b		 pop	 ebx

; 584  : 		}

  00085	c2 04 00	 ret	 4
?push_back@?$vector@V?$basic_string@DU?$char_traits@D@std@@V?$allocator@D@2@@std@@V?$allocator@V?$basic_string@DU?$char_traits@D@std@@V?$allocator@D@2@@std@@@2@@std@@QAEXABV?$basic_string@DU?$char_traits@D@std@@V?$allocator@D@2@@2@@Z ENDP ; std::vector<std::basic_string<char,std::char_traits<char>,std::allocator<char> >,std::allocator<std::basic_string<char,std::char_traits<char>,std::allocator<char> > > >::push_back
_TEXT	ENDS
PUBLIC	??_C@_0BB@IJPGLPDI@GetNoticeMessage?$AA@	; `string'
PUBLIC	?GetNoticeMessage@CEventLua@@QAE?AV?$vector@V?$basic_string@DU?$char_traits@D@std@@V?$allocator@D@2@@std@@V?$allocator@V?$basic_string@DU?$char_traits@D@std@@V?$allocator@D@2@@std@@@2@@std@@XZ ; CEventLua::GetNoticeMessage
;	COMDAT xdata$x
; File c:\program files\microsoft visual studio .net 2003\vc7\include\xmemory
xdata$x	SEGMENT
$T198634 DD	0ffffffffH
	DD	FLAT:$L198220
	DD	00H
	DD	FLAT:$L198224
$T198629 DD	019930520H
	DD	02H
	DD	FLAT:$T198634
	DD	2 DUP(00H)
	DD	2 DUP(00H)
xdata$x	ENDS
;	COMDAT ??_C@_0BB@IJPGLPDI@GetNoticeMessage?$AA@
CONST	SEGMENT
??_C@_0BB@IJPGLPDI@GetNoticeMessage?$AA@ DB 'GetNoticeMessage', 00H ; `string'
; Function compile flags: /Ogty
; File c:\documents and settings\test\mes documents\source\virtuos_v17\build\program\_common\eventlua.cpp
CONST	ENDS
;	COMDAT ?GetNoticeMessage@CEventLua@@QAE?AV?$vector@V?$basic_string@DU?$char_traits@D@std@@V?$allocator@D@2@@std@@V?$allocator@V?$basic_string@DU?$char_traits@D@std@@V?$allocator@D@2@@std@@@2@@std@@XZ
_TEXT	SEGMENT
_vecstrMessage$ = -68					; size = 16
__Cat$198622 = -52					; size = 1
$T198222 = -52						; size = 4
$T198627 = -48						; size = 4
_strMessage$186927 = -44				; size = 28
__$ArrayPad$ = -16					; size = 4
__$EHRec$ = -12						; size = 12
__$ReturnAddr$ = 4					; size = 4
___$ReturnUdt$ = 8					; size = 4
?GetNoticeMessage@CEventLua@@QAE?AV?$vector@V?$basic_string@DU?$char_traits@D@std@@V?$allocator@D@2@@std@@V?$allocator@V?$basic_string@DU?$char_traits@D@std@@V?$allocator@D@2@@std@@@2@@std@@XZ PROC NEAR ; CEventLua::GetNoticeMessage, COMDAT
; _this$ = ecx

; 75   : {

  00000	6a ff		 push	 -1
  00002	68 00 00 00 00	 push	 __ehhandler$?GetNoticeMessage@CEventLua@@QAE?AV?$vector@V?$basic_string@DU?$char_traits@D@std@@V?$allocator@D@2@@std@@V?$allocator@V?$basic_string@DU?$char_traits@D@std@@V?$allocator@D@2@@std@@@2@@std@@XZ
  00007	64 a1 00 00 00
	00		 mov	 eax, DWORD PTR fs:__except_list
  0000d	50		 push	 eax
  0000e	64 89 25 00 00
	00 00		 mov	 DWORD PTR fs:__except_list, esp
  00015	83 ec 38	 sub	 esp, 56			; 00000038H
  00018	a1 00 00 00 00	 mov	 eax, DWORD PTR ___security_cookie
  0001d	33 c4		 xor	 eax, esp
  0001f	53		 push	 ebx
  00020	55		 push	 ebp
  00021	8b 6c 24 50	 mov	 ebp, DWORD PTR ___$ReturnUdt$[esp+72]
  00025	56		 push	 esi
  00026	33 db		 xor	 ebx, ebx
  00028	57		 push	 edi
  00029	89 5c 24 20	 mov	 DWORD PTR $T198222[esp+84], ebx

; 76   : 	vector<string> vecstrMessage;

  0002d	33 ff		 xor	 edi, edi
  0002f	89 44 24 44	 mov	 DWORD PTR __$ArrayPad$[esp+84], eax
  00033	8b f1		 mov	 esi, ecx

; 94   : 	}
; 95   : 	m_Lua.Pop( 0 );

  00035	89 6c 24 24	 mov	 DWORD PTR $T198627[esp+84], ebp
  00039	89 7c 24 14	 mov	 DWORD PTR _vecstrMessage$[esp+88], edi
  0003d	89 5c 24 18	 mov	 DWORD PTR _vecstrMessage$[esp+92], ebx
  00041	89 5c 24 1c	 mov	 DWORD PTR _vecstrMessage$[esp+96], ebx
  00045	39 5e 2c	 cmp	 DWORD PTR [esi+44], ebx
  00048	89 5c 24 50	 mov	 DWORD PTR __$EHRec$[esp+92], ebx
  0004c	75 13		 jne	 SHORT $L186921
  0004e	8d 44 24 10	 lea	 eax, DWORD PTR _vecstrMessage$[esp+84]
  00052	50		 push	 eax
  00053	8b cd		 mov	 ecx, ebp
  00055	e8 00 00 00 00	 call	 ??0?$vector@V?$basic_string@DU?$char_traits@D@std@@V?$allocator@D@2@@std@@V?$allocator@V?$basic_string@DU?$char_traits@D@std@@V?$allocator@D@2@@std@@@2@@std@@QAE@ABV01@@Z ; std::vector<std::basic_string<char,std::char_traits<char>,std::allocator<char> >,std::allocator<std::basic_string<char,std::char_traits<char>,std::allocator<char> > > >::vector<std::basic_string<char,std::char_traits<char>,std::allocator<char> >,std::allocator<std::basic_string<char,std::char_traits<char>,std::allocator<char> > > >
  0005a	8b c5		 mov	 eax, ebp
  0005c	e9 28 01 00 00	 jmp	 $L186918
$L186921:

; 77   : 
; 78   : 	if( !IsPossible() )
; 79   : 		return vecstrMessage;
; 80   : 
; 81   : 	if( m_Lua.GetLuaFunction( "GetNoticeMessage" ) )

  00061	8d 6e 30	 lea	 ebp, DWORD PTR [esi+48]
  00064	68 00 00 00 00	 push	 OFFSET FLAT:??_C@_0BB@IJPGLPDI@GetNoticeMessage?$AA@
  00069	8b cd		 mov	 ecx, ebp
  0006b	e8 00 00 00 00	 call	 ?GetLuaFunction@CLuaBase@@QAEHPAD@Z ; CLuaBase::GetLuaFunction
  00070	85 c0		 test	 eax, eax
  00072	0f 84 d5 00 00
	00		 je	 $L186926

; 82   : 	{
; 83   : 		m_Lua.CallLuaFunction( 0, 1 );

  00078	6a 01		 push	 1
  0007a	53		 push	 ebx
  0007b	8b cd		 mov	 ecx, ebp
  0007d	e8 00 00 00 00	 call	 ?CallLuaFunction@CLuaBase@@QAEXHH@Z ; CLuaBase::CallLuaFunction

; 84   : 
; 85   : 		m_Lua.PushNil();

  00082	8b 4e 34	 mov	 ecx, DWORD PTR [esi+52]
  00085	51		 push	 ecx
  00086	e8 00 00 00 00	 call	 _lua_pushnil

; 86   : 		while( m_Lua.TableLoop( -2 ) )

  0008b	8b 56 34	 mov	 edx, DWORD PTR [esi+52]
  0008e	6a fe		 push	 -2			; fffffffeH
  00090	52		 push	 edx
  00091	e8 00 00 00 00	 call	 _lua_next
  00096	83 c4 0c	 add	 esp, 12			; 0000000cH
  00099	85 c0		 test	 eax, eax
  0009b	0f 84 ac 00 00
	00		 je	 $L186926
  000a1	eb 0d 8d a4 24
	00 00 00 00 8d
	9b 00 00 00 00	 npad	 15
$L186925:

; 87   : 		{
; 88   : 			string strMessage;

  000b0	c7 44 24 40 0f
	00 00 00	 mov	 DWORD PTR _strMessage$186927[esp+108], 15 ; 0000000fH
  000b8	89 5c 24 3c	 mov	 DWORD PTR _strMessage$186927[esp+104], ebx
  000bc	88 5c 24 2c	 mov	 BYTE PTR _strMessage$186927[esp+88], bl

; 89   : 			strMessage = m_Lua.ToString( -1 );

  000c0	8b 46 34	 mov	 eax, DWORD PTR [esi+52]
  000c3	53		 push	 ebx
  000c4	6a ff		 push	 -1
  000c6	50		 push	 eax
  000c7	c6 44 24 5c 01	 mov	 BYTE PTR __$EHRec$[esp+104], 1
  000cc	e8 00 00 00 00	 call	 _lua_tolstring
  000d1	8b c8		 mov	 ecx, eax
  000d3	83 c4 0c	 add	 esp, 12			; 0000000cH
  000d6	8d 79 01	 lea	 edi, DWORD PTR [ecx+1]
  000d9	8d a4 24 00 00
	00 00		 npad	 7
$L198631:
  000e0	8a 11		 mov	 dl, BYTE PTR [ecx]
  000e2	41		 inc	 ecx
  000e3	3a d3		 cmp	 dl, bl
  000e5	75 f9		 jne	 SHORT $L198631
  000e7	2b cf		 sub	 ecx, edi
  000e9	51		 push	 ecx
  000ea	50		 push	 eax
  000eb	8d 4c 24 30	 lea	 ecx, DWORD PTR _strMessage$186927[esp+92]
  000ef	e8 00 00 00 00	 call	 ?assign@?$basic_string@DU?$char_traits@D@std@@V?$allocator@D@2@@std@@QAEAAV12@PBDI@Z ; std::basic_string<char,std::char_traits<char>,std::allocator<char> >::assign

; 90   : 			vecstrMessage.push_back( strMessage );

  000f4	8d 4c 24 28	 lea	 ecx, DWORD PTR _strMessage$186927[esp+84]
  000f8	51		 push	 ecx
  000f9	8d 4c 24 14	 lea	 ecx, DWORD PTR _vecstrMessage$[esp+88]
  000fd	e8 00 00 00 00	 call	 ?push_back@?$vector@V?$basic_string@DU?$char_traits@D@std@@V?$allocator@D@2@@std@@V?$allocator@V?$basic_string@DU?$char_traits@D@std@@V?$allocator@D@2@@std@@@2@@std@@QAEXABV?$basic_string@DU?$char_traits@D@std@@V?$allocator@D@2@@2@@Z ; std::vector<std::basic_string<char,std::char_traits<char>,std::allocator<char> >,std::allocator<std::basic_string<char,std::char_traits<char>,std::allocator<char> > > >::push_back

; 91   : 
; 92   : 			m_Lua.Pop( 1 );

  00102	6a 01		 push	 1
  00104	8b cd		 mov	 ecx, ebp
  00106	e8 00 00 00 00	 call	 ?Pop@CLuaBase@@QAEXH@Z	; CLuaBase::Pop

; 93   : 		}

  0010b	83 7c 24 40 10	 cmp	 DWORD PTR _strMessage$186927[esp+108], 16 ; 00000010H
  00110	88 5c 24 50	 mov	 BYTE PTR __$EHRec$[esp+92], bl
  00114	72 0d		 jb	 SHORT $L198554
  00116	8b 54 24 2c	 mov	 edx, DWORD PTR _strMessage$186927[esp+88]
  0011a	52		 push	 edx
  0011b	e8 00 00 00 00	 call	 ??3@YAXPAX@Z		; operator delete
  00120	83 c4 04	 add	 esp, 4
$L198554:
  00123	8b 46 34	 mov	 eax, DWORD PTR [esi+52]
  00126	6a fe		 push	 -2			; fffffffeH
  00128	50		 push	 eax
  00129	c7 44 24 48 0f
	00 00 00	 mov	 DWORD PTR _strMessage$186927[esp+116], 15 ; 0000000fH
  00131	89 5c 24 44	 mov	 DWORD PTR _strMessage$186927[esp+112], ebx
  00135	88 5c 24 34	 mov	 BYTE PTR _strMessage$186927[esp+96], bl
  00139	e8 00 00 00 00	 call	 _lua_next
  0013e	83 c4 08	 add	 esp, 8
  00141	85 c0		 test	 eax, eax
  00143	0f 85 67 ff ff
	ff		 jne	 $L186925

; 86   : 		while( m_Lua.TableLoop( -2 ) )

  00149	8b 7c 24 14	 mov	 edi, DWORD PTR _vecstrMessage$[esp+88]
$L186926:

; 94   : 	}
; 95   : 	m_Lua.Pop( 0 );

  0014d	53		 push	 ebx
  0014e	8b cd		 mov	 ecx, ebp
  00150	e8 00 00 00 00	 call	 ?Pop@CLuaBase@@QAEXH@Z	; CLuaBase::Pop

; 96   : 
; 97   : 	return vecstrMessage;

  00155	8b 74 24 24	 mov	 esi, DWORD PTR $T198627[esp+84]
  00159	8d 4c 24 10	 lea	 ecx, DWORD PTR _vecstrMessage$[esp+84]
  0015d	51		 push	 ecx
  0015e	8b ce		 mov	 ecx, esi
  00160	e8 00 00 00 00	 call	 ??0?$vector@V?$basic_string@DU?$char_traits@D@std@@V?$allocator@D@2@@std@@V?$allocator@V?$basic_string@DU?$char_traits@D@std@@V?$allocator@D@2@@std@@@2@@std@@QAE@ABV01@@Z ; std::vector<std::basic_string<char,std::char_traits<char>,std::allocator<char> >,std::allocator<std::basic_string<char,std::char_traits<char>,std::allocator<char> > > >::vector<std::basic_string<char,std::char_traits<char>,std::allocator<char> >,std::allocator<std::basic_string<char,std::char_traits<char>,std::allocator<char> > > >
  00165	3b fb		 cmp	 edi, ebx
  00167	74 1e		 je	 SHORT $L198624
  00169	8b 54 24 20	 mov	 edx, DWORD PTR __Cat$198622[esp+84]
  0016d	8b 4c 24 18	 mov	 ecx, DWORD PTR _vecstrMessage$[esp+92]
  00171	52		 push	 edx
  00172	8d 44 24 14	 lea	 eax, DWORD PTR _vecstrMessage$[esp+88]
  00176	50		 push	 eax
  00177	51		 push	 ecx
  00178	57		 push	 edi
  00179	e8 00 00 00 00	 call	 ??$_Destroy_range@V?$basic_string@DU?$char_traits@D@std@@V?$allocator@D@2@@std@@V?$allocator@V?$basic_string@DU?$char_traits@D@std@@V?$allocator@D@2@@std@@@2@@std@@YAXPAV?$basic_string@DU?$char_traits@D@std@@V?$allocator@D@2@@0@0AAV?$allocator@V?$basic_string@DU?$char_traits@D@std@@V?$allocator@D@2@@std@@@0@U_Nonscalar_ptr_iterator_tag@0@@Z ; std::_Destroy_range<std::basic_string<char,std::char_traits<char>,std::allocator<char> >,std::allocator<std::basic_string<char,std::char_traits<char>,std::allocator<char> > > >
  0017e	57		 push	 edi
  0017f	e8 00 00 00 00	 call	 ??3@YAXPAX@Z		; operator delete
  00184	83 c4 14	 add	 esp, 20			; 00000014H
$L198624:
  00187	8b c6		 mov	 eax, esi
$L186918:

; 98   : }

  00189	8b 4c 24 48	 mov	 ecx, DWORD PTR __$EHRec$[esp+84]
  0018d	5f		 pop	 edi
  0018e	5e		 pop	 esi
  0018f	5d		 pop	 ebp
  00190	64 89 0d 00 00
	00 00		 mov	 DWORD PTR fs:__except_list, ecx
  00197	8b 4c 24 38	 mov	 ecx, DWORD PTR __$ArrayPad$[esp+72]
  0019b	5b		 pop	 ebx
  0019c	33 cc		 xor	 ecx, esp
  0019e	e8 00 00 00 00	 call	 @__security_check_cookie@4
  001a3	83 c4 44	 add	 esp, 68			; 00000044H
  001a6	c2 04 00	 ret	 4
_TEXT	ENDS
;	COMDAT text$x
text$x	SEGMENT
$L198220:
  00000	8d 4d bc	 lea	 ecx, DWORD PTR _vecstrMessage$[ebp]
  00003	e9 00 00 00 00	 jmp	 ??1?$vector@V?$basic_string@DU?$char_traits@D@std@@V?$allocator@D@2@@std@@V?$allocator@V?$basic_string@DU?$char_traits@D@std@@V?$allocator@D@2@@std@@@2@@std@@QAE@XZ ; std::vector<std::basic_string<char,std::char_traits<char>,std::allocator<char> >,std::allocator<std::basic_string<char,std::char_traits<char>,std::allocator<char> > > >::~vector<std::basic_string<char,std::char_traits<char>,std::allocator<char> >,std::allocator<std::basic_string<char,std::char_traits<char>,std::allocator<char> > > >
$L198224:
  00008	8d 4d d4	 lea	 ecx, DWORD PTR _strMessage$186927[ebp]
  0000b	e9 00 00 00 00	 jmp	 ??1?$basic_string@DU?$char_traits@D@std@@V?$allocator@D@2@@std@@QAE@XZ ; std::basic_string<char,std::char_traits<char>,std::allocator<char> >::~basic_string<char,std::char_traits<char>,std::allocator<char> >
__ehhandler$?GetNoticeMessage@CEventLua@@QAE?AV?$vector@V?$basic_string@DU?$char_traits@D@std@@V?$allocator@D@2@@std@@V?$allocator@V?$basic_string@DU?$char_traits@D@std@@V?$allocator@D@2@@std@@@2@@std@@XZ:
  00010	b8 00 00 00 00	 mov	 eax, OFFSET FLAT:$T198629
  00015	e9 00 00 00 00	 jmp	 ___CxxFrameHandler
text$x	ENDS
?GetNoticeMessage@CEventLua@@QAE?AV?$vector@V?$basic_string@DU?$char_traits@D@std@@V?$allocator@D@2@@std@@V?$allocator@V?$basic_string@DU?$char_traits@D@std@@V?$allocator@D@2@@std@@@2@@std@@XZ ENDP ; CEventLua::GetNoticeMessage
END
