; Listing generated by Microsoft (R) Optimizing Compiler Version 13.10.6030 

	TITLE	\Documents and Settings\test\Mes documents\Source\Virtuos_v17\Build\Program\_Common\GuildCombat1to1.cpp
	.386P
include listing.inc
if @Version gt 510
.model FLAT
else
_TEXT	SEGMENT PARA USE32 PUBLIC 'CODE'
_TEXT	ENDS
_DATA	SEGMENT DWORD USE32 PUBLIC 'DATA'
_DATA	ENDS
CONST	SEGMENT DWORD USE32 PUBLIC 'CONST'
CONST	ENDS
_BSS	SEGMENT DWORD USE32 PUBLIC 'BSS'
_BSS	ENDS
$$SYMBOLS	SEGMENT BYTE USE32 'DEBSYM'
$$SYMBOLS	ENDS
_TLS	SEGMENT DWORD USE32 PUBLIC 'TLS'
_TLS	ENDS
;	COMDAT ??_C@_0O@ICJPAPLK@CheckOpenTime?$AA@
CONST	SEGMENT DWORD USE32 PUBLIC 'CONST'
CONST	ENDS
;	COMDAT ??_C@_0BE@BGEDOEJD@GuildCombat1to1?4lua?$AA@
CONST	SEGMENT DWORD USE32 PUBLIC 'CONST'
CONST	ENDS
;	COMDAT ??_C@_0N@CHPIPPI@MinJoinPenya?$AA@
CONST	SEGMENT DWORD USE32 PUBLIC 'CONST'
CONST	ENDS
;	COMDAT ??_C@_0O@JHCECGHF@MinGuildLevel?$AA@
CONST	SEGMENT DWORD USE32 PUBLIC 'CONST'
CONST	ENDS
;	COMDAT ??_C@_0N@IGABIHDO@MinJoinGuild?$AA@
CONST	SEGMENT DWORD USE32 PUBLIC 'CONST'
CONST	ENDS
;	COMDAT ??_C@_0N@MGEOPPEI@MaxJoinGuild?$AA@
CONST	SEGMENT DWORD USE32 PUBLIC 'CONST'
CONST	ENDS
;	COMDAT ??_C@_0O@MDLHABA@MinJoinPlayer?$AA@
CONST	SEGMENT DWORD USE32 PUBLIC 'CONST'
CONST	ENDS
;	COMDAT ??_C@_0O@LFBNOLGB@MaxJoinPlayer?$AA@
CONST	SEGMENT DWORD USE32 PUBLIC 'CONST'
CONST	ENDS
;	COMDAT ??_C@_0BD@GPBMJCGJ@MinJoinPlayerLevel?$AA@
CONST	SEGMENT DWORD USE32 PUBLIC 'CONST'
CONST	ENDS
;	COMDAT ??_C@_0BB@FDEBMJPD@CancelReturnRate?$AA@
CONST	SEGMENT DWORD USE32 PUBLIC 'CONST'
CONST	ENDS
;	COMDAT ??_C@_0P@OIBAJGIA@FailReturnRate?$AA@
CONST	SEGMENT DWORD USE32 PUBLIC 'CONST'
CONST	ENDS
;	COMDAT ??_C@_0L@MPIDICKM@PlayerLife?$AA@
CONST	SEGMENT DWORD USE32 PUBLIC 'CONST'
CONST	ENDS
xdata$x	SEGMENT DWORD USE32 PUBLIC 'CONST'
xdata$x	ENDS
;	COMDAT ??0CGuildCombat1to1Mng@@QAE@XZ
_TEXT	SEGMENT PARA USE32 PUBLIC 'CODE'
_TEXT	ENDS
;	COMDAT ??_GCGuildCombat1to1Mng@@UAEPAXI@Z
_TEXT	SEGMENT PARA USE32 PUBLIC 'CODE'
_TEXT	ENDS
;	COMDAT ??1CGuildCombat1to1Mng@@UAE@XZ
_TEXT	SEGMENT PARA USE32 PUBLIC 'CODE'
_TEXT	ENDS
;	COMDAT ?ClearTime@CGuildCombat1to1Mng@@QAEXXZ
_TEXT	SEGMENT PARA USE32 PUBLIC 'CODE'
_TEXT	ENDS
;	COMDAT ?CheckOpenTIme@CGuildCombat1to1Mng@@QAEHXZ
_TEXT	SEGMENT PARA USE32 PUBLIC 'CODE'
_TEXT	ENDS
;	COMDAT ?LoadScript@CGuildCombat1to1Mng@@QAEHXZ
_TEXT	SEGMENT PARA USE32 PUBLIC 'CODE'
_TEXT	ENDS
;	COMDAT ?compare@?$basic_string@DU?$char_traits@D@std@@V?$allocator@D@2@@std@@QBEHABV12@@Z
_TEXT	SEGMENT PARA USE32 PUBLIC 'CODE'
_TEXT	ENDS
;	COMDAT ?compare@?$basic_string@DU?$char_traits@D@std@@V?$allocator@D@2@@std@@QBEHIIPBDI@Z
_TEXT	SEGMENT PARA USE32 PUBLIC 'CODE'
_TEXT	ENDS
;	COMDAT ??$_Iter_cat@Viterator@?$_Tree@V?$_Tmap_traits@KU_Friend@@U?$less@K@std@@V?$allocator@U?$pair@$$CBKU_Friend@@@std@@@3@$0A@@std@@@std@@@std@@YA?AUbidirectional_iterator_tag@0@ABViterator@?$_Tree@V?$_Tmap_traits@KU_Friend@@U?$less@K@std@@V?$allocator@U?$pair@$$CBKU_Friend@@@std@@@3@$0A@@std@@@0@@Z
_TEXT	SEGMENT PARA USE32 PUBLIC 'CODE'
_TEXT	ENDS
;	COMDAT ??$_Distance2@Viterator@?$_Tree@V?$_Tmap_traits@KU_Friend@@U?$less@K@std@@V?$allocator@U?$pair@$$CBKU_Friend@@@std@@@3@$0A@@std@@@std@@I@std@@YAXViterator@?$_Tree@V?$_Tmap_traits@KU_Friend@@U?$less@K@std@@V?$allocator@U?$pair@$$CBKU_Friend@@@std@@@3@$0A@@std@@@0@0AAIUbidirectional_iterator_tag@0@@Z
_TEXT	SEGMENT PARA USE32 PUBLIC 'CODE'
_TEXT	ENDS
;	COMDAT ??$_Copy_opt@PAJPAJ@std@@YAPAJPAJ00U_Scalar_ptr_iterator_tag@0@@Z
_TEXT	SEGMENT PARA USE32 PUBLIC 'CODE'
_TEXT	ENDS
;	COMDAT ??$_Uninitialized_copy@PAJPAJV?$allocator@J@std@@@std@@YAPAJPAJ00AAV?$allocator@J@0@@Z
_TEXT	SEGMENT PARA USE32 PUBLIC 'CODE'
_TEXT	ENDS
;	COMDAT ??$_Copy_backward_opt@PAJPAJ@std@@YAPAJPAJ00U_Scalar_ptr_iterator_tag@0@@Z
_TEXT	SEGMENT PARA USE32 PUBLIC 'CODE'
_TEXT	ENDS
;	COMDAT ??$_Ptr_cat@PAUtagDROPITEM@@PAU1@@std@@YA?AU_Nonscalar_ptr_iterator_tag@0@AAPAUtagDROPITEM@@0@Z
_TEXT	SEGMENT PARA USE32 PUBLIC 'CODE'
_TEXT	ENDS
;	COMDAT ??$_Destroy_range@UtagDROPITEM@@V?$allocator@UtagDROPITEM@@@std@@@std@@YAXPAUtagDROPITEM@@0AAV?$allocator@UtagDROPITEM@@@0@U_Nonscalar_ptr_iterator_tag@0@@Z
_TEXT	SEGMENT PARA USE32 PUBLIC 'CODE'
_TEXT	ENDS
;	COMDAT ??$_Destroy_range@KV?$allocator@K@std@@@std@@YAXPAK0AAV?$allocator@K@0@U_Scalar_ptr_iterator_tag@0@@Z
_TEXT	SEGMENT PARA USE32 PUBLIC 'CODE'
_TEXT	ENDS
;	COMDAT ??$_Destroy_range@JV?$allocator@J@std@@@std@@YAXPAJ0AAV?$allocator@J@0@U_Scalar_ptr_iterator_tag@0@@Z
_TEXT	SEGMENT PARA USE32 PUBLIC 'CODE'
_TEXT	ENDS
;	COMDAT ??$_Uninit_fill_n@JIJ@std@@YAXPAJIABJAAV?$allocator@J@0@U_Scalar_ptr_iterator_tag@0@@Z
_TEXT	SEGMENT PARA USE32 PUBLIC 'CODE'
_TEXT	ENDS
;	COMDAT ?destroy@?$allocator@UtagDROPITEM@@@std@@QAEXPAUtagDROPITEM@@@Z
_TEXT	SEGMENT PARA USE32 PUBLIC 'CODE'
_TEXT	ENDS
;	COMDAT ??$_Uninit_copy@JJ@std@@YAPAJPAJ00AAV?$allocator@J@0@U_Scalar_ptr_iterator_tag@0@@Z
_TEXT	SEGMENT PARA USE32 PUBLIC 'CODE'
_TEXT	ENDS
;	COMDAT ??$fill_n@PAJIJ@std@@YAXPAJIABJ@Z
_TEXT	SEGMENT PARA USE32 PUBLIC 'CODE'
_TEXT	ENDS
;	COMDAT ??$_Destroy@UtagDROPITEM@@@std@@YAXPAUtagDROPITEM@@@Z
_TEXT	SEGMENT PARA USE32 PUBLIC 'CODE'
_TEXT	ENDS
;	COMDAT ?_Ptr_cat@std@@YA?AU_Scalar_ptr_iterator_tag@1@PAJ0@Z
_TEXT	SEGMENT PARA USE32 PUBLIC 'CODE'
_TEXT	ENDS
;	COMDAT ??9const_iterator@?$_Tree@V?$_Tmap_traits@KU_Friend@@U?$less@K@std@@V?$allocator@U?$pair@$$CBKU_Friend@@@std@@@3@$0A@@std@@@std@@QBE_NABV012@@Z
_TEXT	SEGMENT PARA USE32 PUBLIC 'CODE'
_TEXT	ENDS
;	COMDAT ??8const_iterator@?$_Tree@V?$_Tmap_traits@KU_Friend@@U?$less@K@std@@V?$allocator@U?$pair@$$CBKU_Friend@@@std@@@3@$0A@@std@@@std@@QBE_NABV012@@Z
_TEXT	SEGMENT PARA USE32 PUBLIC 'CODE'
_TEXT	ENDS
;	COMDAT ??Eiterator@?$_Tree@V?$_Tmap_traits@KU_Friend@@U?$less@K@std@@V?$allocator@U?$pair@$$CBKU_Friend@@@std@@@3@$0A@@std@@@std@@QAEAAV012@XZ
_TEXT	SEGMENT PARA USE32 PUBLIC 'CODE'
_TEXT	ENDS
;	COMDAT ??Econst_iterator@?$_Tree@V?$_Tmap_traits@KU_Friend@@U?$less@K@std@@V?$allocator@U?$pair@$$CBKU_Friend@@@std@@@3@$0A@@std@@@std@@QAEAAV012@XZ
_TEXT	SEGMENT PARA USE32 PUBLIC 'CODE'
_TEXT	ENDS
;	COMDAT ?_Inc@const_iterator@?$_Tree@V?$_Tmap_traits@KU_Friend@@U?$less@K@std@@V?$allocator@U?$pair@$$CBKU_Friend@@@std@@@3@$0A@@std@@@std@@QAEXXZ
_TEXT	SEGMENT PARA USE32 PUBLIC 'CODE'
_TEXT	ENDS
;	COMDAT ?_Min@?$_Tree@V?$_Tmap_traits@KU_Friend@@U?$less@K@std@@V?$allocator@U?$pair@$$CBKU_Friend@@@std@@@3@$0A@@std@@@std@@KAPAU_Node@?$_Tree_nod@V?$_Tmap_traits@KU_Friend@@U?$less@K@std@@V?$allocator@U?$pair@$$CBKU_Friend@@@std@@@3@$0A@@std@@@2@PAU342@@Z
_TEXT	SEGMENT PARA USE32 PUBLIC 'CODE'
_TEXT	ENDS
;	COMDAT ?_Left@?$_Tree@V?$_Tmap_traits@KU_Friend@@U?$less@K@std@@V?$allocator@U?$pair@$$CBKU_Friend@@@std@@@3@$0A@@std@@@std@@KAAAPAU_Node@?$_Tree_nod@V?$_Tmap_traits@KU_Friend@@U?$less@K@std@@V?$allocator@U?$pair@$$CBKU_Friend@@@std@@@3@$0A@@std@@@2@PAU342@@Z
_TEXT	SEGMENT PARA USE32 PUBLIC 'CODE'
_TEXT	ENDS
;	COMDAT ?_Isnil@?$_Tree@V?$_Tmap_traits@KU_Friend@@U?$less@K@std@@V?$allocator@U?$pair@$$CBKU_Friend@@@std@@@3@$0A@@std@@@std@@KAAADPAU_Node@?$_Tree_nod@V?$_Tmap_traits@KU_Friend@@U?$less@K@std@@V?$allocator@U?$pair@$$CBKU_Friend@@@std@@@3@$0A@@std@@@2@@Z
_TEXT	SEGMENT PARA USE32 PUBLIC 'CODE'
_TEXT	ENDS
;	COMDAT ?_Parent@?$_Tree@V?$_Tmap_traits@KU_Friend@@U?$less@K@std@@V?$allocator@U?$pair@$$CBKU_Friend@@@std@@@3@$0A@@std@@@std@@KAAAPAU_Node@?$_Tree_nod@V?$_Tmap_traits@KU_Friend@@U?$less@K@std@@V?$allocator@U?$pair@$$CBKU_Friend@@@std@@@3@$0A@@std@@@2@PAU342@@Z
_TEXT	SEGMENT PARA USE32 PUBLIC 'CODE'
_TEXT	ENDS
;	COMDAT ?_Right@?$_Tree@V?$_Tmap_traits@KU_Friend@@U?$less@K@std@@V?$allocator@U?$pair@$$CBKU_Friend@@@std@@@3@$0A@@std@@@std@@KAAAPAU_Node@?$_Tree_nod@V?$_Tmap_traits@KU_Friend@@U?$less@K@std@@V?$allocator@U?$pair@$$CBKU_Friend@@@std@@@3@$0A@@std@@@2@PAU342@@Z
_TEXT	SEGMENT PARA USE32 PUBLIC 'CODE'
_TEXT	ENDS
;	COMDAT ?_Psave@?$_Facetptr@V?$ctype@G@std@@@std@@2PBVfacet@locale@2@B
_DATA	SEGMENT DWORD USE32 PUBLIC 'DATA'
_DATA	ENDS
;	COMDAT ?_Psave@?$_Facetptr@V?$ctype@D@std@@@std@@2PBVfacet@locale@2@B
_DATA	SEGMENT DWORD USE32 PUBLIC 'DATA'
_DATA	ENDS
;	COMDAT ?compare@?$char_traits@D@std@@SAHPBD0I@Z
_TEXT	SEGMENT PARA USE32 PUBLIC 'CODE'
_TEXT	ENDS
;	COMDAT ?_Myptr@?$basic_string@DU?$char_traits@D@std@@V?$allocator@D@2@@std@@QBEPBDXZ
_TEXT	SEGMENT PARA USE32 PUBLIC 'CODE'
_TEXT	ENDS
;	COMDAT ?size@?$basic_string@DU?$char_traits@D@std@@V?$allocator@D@2@@std@@QBEIXZ
_TEXT	SEGMENT PARA USE32 PUBLIC 'CODE'
_TEXT	ENDS
;	COMDAT ?ToNumber@CLuaBase@@QAENH@Z
_TEXT	SEGMENT PARA USE32 PUBLIC 'CODE'
_TEXT	ENDS
;	COMDAT ??_7CGuildCombat1to1Mng@@6B@
CONST	SEGMENT DWORD USE32 PUBLIC 'CONST'
CONST	ENDS
sxdata	SEGMENT DWORD USE32 'SXDATA'
sxdata	ENDS
FLAT	GROUP _DATA, CONST, _BSS
	ASSUME	CS: FLAT, DS: FLAT, SS: FLAT
endif

INCLUDELIB LIBCMT
INCLUDELIB OLDNAMES

PUBLIC	??1CGuildCombat1to1Mng@@UAE@XZ			; CGuildCombat1to1Mng::~CGuildCombat1to1Mng
PUBLIC	??_7CGuildCombat1to1Mng@@6B@			; CGuildCombat1to1Mng::`vftable'
PUBLIC	??_GCGuildCombat1to1Mng@@UAEPAXI@Z		; CGuildCombat1to1Mng::`scalar deleting destructor'
EXTRN	??1CLuaBase@@UAE@XZ:NEAR			; CLuaBase::~CLuaBase
EXTRN	??_ECGuildCombat1to1Mng@@UAEPAXI@Z:NEAR		; CGuildCombat1to1Mng::`vector deleting destructor'
;	COMDAT ??_7CGuildCombat1to1Mng@@6B@
; File c:\documents and settings\test\mes documents\source\virtuos_v17\build\program\_common\guildcombat1to1.cpp
CONST	SEGMENT
??_7CGuildCombat1to1Mng@@6B@ DD FLAT:??_ECGuildCombat1to1Mng@@UAEPAXI@Z ; CGuildCombat1to1Mng::`vftable'
; Function compile flags: /Ogty
CONST	ENDS
;	COMDAT ??1CGuildCombat1to1Mng@@UAE@XZ
_TEXT	SEGMENT
??1CGuildCombat1to1Mng@@UAE@XZ PROC NEAR		; CGuildCombat1to1Mng::~CGuildCombat1to1Mng, COMDAT
; _this$ = ecx

; 712  : {

  00000	c7 01 00 00 00
	00		 mov	 DWORD PTR [ecx], OFFSET FLAT:??_7CGuildCombat1to1Mng@@6B@

; 713  : 
; 714  : }

  00006	83 c1 20	 add	 ecx, 32			; 00000020H
  00009	e9 00 00 00 00	 jmp	 ??1CLuaBase@@UAE@XZ	; CLuaBase::~CLuaBase
??1CGuildCombat1to1Mng@@UAE@XZ ENDP			; CGuildCombat1to1Mng::~CGuildCombat1to1Mng
_TEXT	ENDS
PUBLIC	?ClearTime@CGuildCombat1to1Mng@@QAEXXZ		; CGuildCombat1to1Mng::ClearTime
; Function compile flags: /Ogty
;	COMDAT ?ClearTime@CGuildCombat1to1Mng@@QAEXXZ
_TEXT	SEGMENT
?ClearTime@CGuildCombat1to1Mng@@QAEXXZ PROC NEAR	; CGuildCombat1to1Mng::ClearTime, COMDAT
; _this$ = ecx

; 771  : 	m_nWaitTime = 0;

  00000	33 c0		 xor	 eax, eax
  00002	89 41 18	 mov	 DWORD PTR [ecx+24], eax

; 772  : 	m_dwTime = 0;

  00005	89 41 1c	 mov	 DWORD PTR [ecx+28], eax

; 773  : }

  00008	c3		 ret	 0
?ClearTime@CGuildCombat1to1Mng@@QAEXXZ ENDP		; CGuildCombat1to1Mng::ClearTime
_TEXT	ENDS
PUBLIC	??_C@_0BE@BGEDOEJD@GuildCombat1to1?4lua?$AA@	; `string'
PUBLIC	??_C@_0N@CHPIPPI@MinJoinPenya?$AA@		; `string'
PUBLIC	??_C@_0O@JHCECGHF@MinGuildLevel?$AA@		; `string'
PUBLIC	??_C@_0N@IGABIHDO@MinJoinGuild?$AA@		; `string'
PUBLIC	??_C@_0N@MGEOPPEI@MaxJoinGuild?$AA@		; `string'
PUBLIC	??_C@_0O@MDLHABA@MinJoinPlayer?$AA@		; `string'
PUBLIC	??_C@_0O@LFBNOLGB@MaxJoinPlayer?$AA@		; `string'
PUBLIC	??_C@_0BD@GPBMJCGJ@MinJoinPlayerLevel?$AA@	; `string'
PUBLIC	??_C@_0BB@FDEBMJPD@CancelReturnRate?$AA@	; `string'
PUBLIC	??_C@_0P@OIBAJGIA@FailReturnRate?$AA@		; `string'
PUBLIC	??_C@_0L@MPIDICKM@PlayerLife?$AA@		; `string'
PUBLIC	?LoadScript@CGuildCombat1to1Mng@@QAEHXZ		; CGuildCombat1to1Mng::LoadScript
EXTRN	__ftol2:NEAR
EXTRN	__fltused:NEAR
EXTRN	?RunScript@CLuaBase@@QAEHPBD@Z:NEAR		; CLuaBase::RunScript
EXTRN	?GetGlobalNumber@CLuaBase@@QAENPAD@Z:NEAR	; CLuaBase::GetGlobalNumber
;	COMDAT ??_C@_0BE@BGEDOEJD@GuildCombat1to1?4lua?$AA@
CONST	SEGMENT
??_C@_0BE@BGEDOEJD@GuildCombat1to1?4lua?$AA@ DB 'GuildCombat1to1.lua', 00H ; `string'
CONST	ENDS
;	COMDAT ??_C@_0N@CHPIPPI@MinJoinPenya?$AA@
CONST	SEGMENT
??_C@_0N@CHPIPPI@MinJoinPenya?$AA@ DB 'MinJoinPenya', 00H ; `string'
CONST	ENDS
;	COMDAT ??_C@_0O@JHCECGHF@MinGuildLevel?$AA@
CONST	SEGMENT
??_C@_0O@JHCECGHF@MinGuildLevel?$AA@ DB 'MinGuildLevel', 00H ; `string'
CONST	ENDS
;	COMDAT ??_C@_0N@IGABIHDO@MinJoinGuild?$AA@
CONST	SEGMENT
??_C@_0N@IGABIHDO@MinJoinGuild?$AA@ DB 'MinJoinGuild', 00H ; `string'
CONST	ENDS
;	COMDAT ??_C@_0N@MGEOPPEI@MaxJoinGuild?$AA@
CONST	SEGMENT
??_C@_0N@MGEOPPEI@MaxJoinGuild?$AA@ DB 'MaxJoinGuild', 00H ; `string'
CONST	ENDS
;	COMDAT ??_C@_0O@MDLHABA@MinJoinPlayer?$AA@
CONST	SEGMENT
??_C@_0O@MDLHABA@MinJoinPlayer?$AA@ DB 'MinJoinPlayer', 00H ; `string'
CONST	ENDS
;	COMDAT ??_C@_0O@LFBNOLGB@MaxJoinPlayer?$AA@
CONST	SEGMENT
??_C@_0O@LFBNOLGB@MaxJoinPlayer?$AA@ DB 'MaxJoinPlayer', 00H ; `string'
CONST	ENDS
;	COMDAT ??_C@_0BD@GPBMJCGJ@MinJoinPlayerLevel?$AA@
CONST	SEGMENT
??_C@_0BD@GPBMJCGJ@MinJoinPlayerLevel?$AA@ DB 'MinJoinPlayerLevel', 00H ; `string'
CONST	ENDS
;	COMDAT ??_C@_0BB@FDEBMJPD@CancelReturnRate?$AA@
CONST	SEGMENT
??_C@_0BB@FDEBMJPD@CancelReturnRate?$AA@ DB 'CancelReturnRate', 00H ; `string'
CONST	ENDS
;	COMDAT ??_C@_0P@OIBAJGIA@FailReturnRate?$AA@
CONST	SEGMENT
??_C@_0P@OIBAJGIA@FailReturnRate?$AA@ DB 'FailReturnRate', 00H ; `string'
CONST	ENDS
;	COMDAT ??_C@_0L@MPIDICKM@PlayerLife?$AA@
CONST	SEGMENT
??_C@_0L@MPIDICKM@PlayerLife?$AA@ DB 'PlayerLife', 00H	; `string'
; Function compile flags: /Ogty
CONST	ENDS
;	COMDAT ?LoadScript@CGuildCombat1to1Mng@@QAEHXZ
_TEXT	SEGMENT
?LoadScript@CGuildCombat1to1Mng@@QAEHXZ PROC NEAR	; CGuildCombat1to1Mng::LoadScript, COMDAT
; _this$ = ecx

; 795  : {

  00000	56		 push	 esi
  00001	8b f1		 mov	 esi, ecx
  00003	57		 push	 edi

; 796  : 	if( m_Lua.RunScript( "GuildCombat1to1.lua" ) != 0 )

  00004	8d 7e 20	 lea	 edi, DWORD PTR [esi+32]
  00007	68 00 00 00 00	 push	 OFFSET FLAT:??_C@_0BE@BGEDOEJD@GuildCombat1to1?4lua?$AA@
  0000c	8b cf		 mov	 ecx, edi
  0000e	e8 00 00 00 00	 call	 ?RunScript@CLuaBase@@QAEHPBD@Z ; CLuaBase::RunScript

; 797  : 		ASSERT(0);
; 798  : 
; 799  : 	m_nJoinPenya = (int)m_Lua.GetGlobalNumber( "MinJoinPenya" );

  00013	68 00 00 00 00	 push	 OFFSET FLAT:??_C@_0N@CHPIPPI@MinJoinPenya?$AA@
  00018	8b cf		 mov	 ecx, edi
  0001a	e8 00 00 00 00	 call	 ?GetGlobalNumber@CLuaBase@@QAENPAD@Z ; CLuaBase::GetGlobalNumber
  0001f	e8 00 00 00 00	 call	 __ftol2

; 800  : 	m_nGuildLevel = (int)m_Lua.GetGlobalNumber( "MinGuildLevel" );

  00024	68 00 00 00 00	 push	 OFFSET FLAT:??_C@_0O@JHCECGHF@MinGuildLevel?$AA@
  00029	8b cf		 mov	 ecx, edi
  0002b	89 46 08	 mov	 DWORD PTR [esi+8], eax
  0002e	e8 00 00 00 00	 call	 ?GetGlobalNumber@CLuaBase@@QAENPAD@Z ; CLuaBase::GetGlobalNumber
  00033	e8 00 00 00 00	 call	 __ftol2

; 801  : 	m_nMinJoinGuild = (int)m_Lua.GetGlobalNumber( "MinJoinGuild" );

  00038	68 00 00 00 00	 push	 OFFSET FLAT:??_C@_0N@IGABIHDO@MinJoinGuild?$AA@
  0003d	8b cf		 mov	 ecx, edi
  0003f	89 46 28	 mov	 DWORD PTR [esi+40], eax
  00042	e8 00 00 00 00	 call	 ?GetGlobalNumber@CLuaBase@@QAENPAD@Z ; CLuaBase::GetGlobalNumber
  00047	e8 00 00 00 00	 call	 __ftol2

; 802  : 	m_nMaxJoinGuild = (int)m_Lua.GetGlobalNumber( "MaxJoinGuild" );

  0004c	68 00 00 00 00	 push	 OFFSET FLAT:??_C@_0N@MGEOPPEI@MaxJoinGuild?$AA@
  00051	8b cf		 mov	 ecx, edi
  00053	89 46 34	 mov	 DWORD PTR [esi+52], eax
  00056	e8 00 00 00 00	 call	 ?GetGlobalNumber@CLuaBase@@QAENPAD@Z ; CLuaBase::GetGlobalNumber
  0005b	e8 00 00 00 00	 call	 __ftol2

; 803  : 	m_nMinJoinPlayer = (int)m_Lua.GetGlobalNumber( "MinJoinPlayer" );

  00060	68 00 00 00 00	 push	 OFFSET FLAT:??_C@_0O@MDLHABA@MinJoinPlayer?$AA@
  00065	8b cf		 mov	 ecx, edi
  00067	89 46 30	 mov	 DWORD PTR [esi+48], eax
  0006a	e8 00 00 00 00	 call	 ?GetGlobalNumber@CLuaBase@@QAENPAD@Z ; CLuaBase::GetGlobalNumber
  0006f	e8 00 00 00 00	 call	 __ftol2

; 804  : #ifndef __MAINSERVER
; 805  : 	m_nMinJoinPlayer = 1;
; 806  : #endif // __MAINSERVER
; 807  : 	m_nMaxJoinPlayer = (int)m_Lua.GetGlobalNumber( "MaxJoinPlayer" );

  00074	68 00 00 00 00	 push	 OFFSET FLAT:??_C@_0O@LFBNOLGB@MaxJoinPlayer?$AA@
  00079	8b cf		 mov	 ecx, edi
  0007b	89 46 10	 mov	 DWORD PTR [esi+16], eax
  0007e	e8 00 00 00 00	 call	 ?GetGlobalNumber@CLuaBase@@QAENPAD@Z ; CLuaBase::GetGlobalNumber
  00083	e8 00 00 00 00	 call	 __ftol2

; 808  : 	m_nMinJoinPlayerLevel = (int)m_Lua.GetGlobalNumber( "MinJoinPlayerLevel" );

  00088	68 00 00 00 00	 push	 OFFSET FLAT:??_C@_0BD@GPBMJCGJ@MinJoinPlayerLevel?$AA@
  0008d	8b cf		 mov	 ecx, edi
  0008f	89 46 0c	 mov	 DWORD PTR [esi+12], eax
  00092	e8 00 00 00 00	 call	 ?GetGlobalNumber@CLuaBase@@QAENPAD@Z ; CLuaBase::GetGlobalNumber
  00097	e8 00 00 00 00	 call	 __ftol2

; 809  : 	m_nCancelReturnRate = (int)m_Lua.GetGlobalNumber( "CancelReturnRate" );

  0009c	68 00 00 00 00	 push	 OFFSET FLAT:??_C@_0BB@FDEBMJPD@CancelReturnRate?$AA@
  000a1	8b cf		 mov	 ecx, edi
  000a3	89 46 14	 mov	 DWORD PTR [esi+20], eax
  000a6	e8 00 00 00 00	 call	 ?GetGlobalNumber@CLuaBase@@QAENPAD@Z ; CLuaBase::GetGlobalNumber
  000ab	e8 00 00 00 00	 call	 __ftol2

; 810  : 	m_nFailReturnRate = (int)m_Lua.GetGlobalNumber( "FailReturnRate" );

  000b0	68 00 00 00 00	 push	 OFFSET FLAT:??_C@_0P@OIBAJGIA@FailReturnRate?$AA@
  000b5	8b cf		 mov	 ecx, edi
  000b7	89 46 38	 mov	 DWORD PTR [esi+56], eax
  000ba	e8 00 00 00 00	 call	 ?GetGlobalNumber@CLuaBase@@QAENPAD@Z ; CLuaBase::GetGlobalNumber
  000bf	e8 00 00 00 00	 call	 __ftol2

; 811  : 	m_nPlayerLife = (int)m_Lua.GetGlobalNumber( "PlayerLife" );

  000c4	68 00 00 00 00	 push	 OFFSET FLAT:??_C@_0L@MPIDICKM@PlayerLife?$AA@
  000c9	8b cf		 mov	 ecx, edi
  000cb	89 46 3c	 mov	 DWORD PTR [esi+60], eax
  000ce	e8 00 00 00 00	 call	 ?GetGlobalNumber@CLuaBase@@QAENPAD@Z ; CLuaBase::GetGlobalNumber
  000d3	e8 00 00 00 00	 call	 __ftol2
  000d8	89 46 2c	 mov	 DWORD PTR [esi+44], eax
  000db	5f		 pop	 edi

; 812  : 
; 813  : 	return TRUE;

  000dc	b8 01 00 00 00	 mov	 eax, 1
  000e1	5e		 pop	 esi

; 814  : }

  000e2	c3		 ret	 0
?LoadScript@CGuildCombat1to1Mng@@QAEHXZ ENDP		; CGuildCombat1to1Mng::LoadScript
_TEXT	ENDS
PUBLIC	?ToNumber@CLuaBase@@QAENH@Z			; CLuaBase::ToNumber
EXTRN	_lua_tonumber:NEAR
; Function compile flags: /Ogty
; File c:\documents and settings\test\mes documents\source\virtuos_v17\build\program\_common\luabase.h
;	COMDAT ?ToNumber@CLuaBase@@QAENH@Z
_TEXT	SEGMENT
_nStackPos$ = 8						; size = 4
?ToNumber@CLuaBase@@QAENH@Z PROC NEAR			; CLuaBase::ToNumber, COMDAT
; _this$ = ecx

; 43   : 	double		ToNumber( int nStackPos )					{  return lua_tonumber( m_pLuaState, nStackPos );  }

  00000	8b 44 24 04	 mov	 eax, DWORD PTR _nStackPos$[esp-4]
  00004	8b 49 04	 mov	 ecx, DWORD PTR [ecx+4]
  00007	50		 push	 eax
  00008	51		 push	 ecx
  00009	e8 00 00 00 00	 call	 _lua_tonumber
  0000e	83 c4 08	 add	 esp, 8
  00011	c2 04 00	 ret	 4
?ToNumber@CLuaBase@@QAENH@Z ENDP			; CLuaBase::ToNumber
_TEXT	ENDS
PUBLIC	??0CGuildCombat1to1Mng@@QAE@XZ			; CGuildCombat1to1Mng::CGuildCombat1to1Mng
EXTRN	??0CLuaBase@@QAE@XZ:NEAR			; CLuaBase::CLuaBase
; Function compile flags: /Ogty
; File c:\documents and settings\test\mes documents\source\virtuos_v17\build\program\_common\guildcombat1to1.cpp
;	COMDAT ??0CGuildCombat1to1Mng@@QAE@XZ
_TEXT	SEGMENT
??0CGuildCombat1to1Mng@@QAE@XZ PROC NEAR		; CGuildCombat1to1Mng::CGuildCombat1to1Mng, COMDAT
; _this$ = ecx

; 685  : {

  00000	56		 push	 esi
  00001	8b f1		 mov	 esi, ecx
  00003	8d 4e 20	 lea	 ecx, DWORD PTR [esi+32]
  00006	c7 06 00 00 00
	00		 mov	 DWORD PTR [esi], OFFSET FLAT:??_7CGuildCombat1to1Mng@@6B@
  0000c	e8 00 00 00 00	 call	 ??0CLuaBase@@QAE@XZ	; CLuaBase::CLuaBase

; 686  : 	m_nJoinPenya = 0;

  00011	33 c0		 xor	 eax, eax
  00013	89 46 08	 mov	 DWORD PTR [esi+8], eax

; 687  : 	m_nMaxJoinPlayer = 0;

  00016	89 46 0c	 mov	 DWORD PTR [esi+12], eax

; 688  : 	m_nMinJoinPlayer = 0;

  00019	89 46 10	 mov	 DWORD PTR [esi+16], eax

; 689  : 	m_nMinJoinPlayerLevel = 0;

  0001c	89 46 14	 mov	 DWORD PTR [esi+20], eax

; 690  : #ifdef __DBSERVER
; 691  : 	m_nCombatId = 0;

  0001f	89 46 40	 mov	 DWORD PTR [esi+64], eax

; 692  : #endif // __DBSERVER
; 693  : #if defined(__WORLDSERVER) || defined(__DBSERVER)
; 694  : 	m_nGuildLevel = 0;

  00022	89 46 28	 mov	 DWORD PTR [esi+40], eax

; 695  : 	m_nPlayerLife = 0;

  00025	89 46 2c	 mov	 DWORD PTR [esi+44], eax

; 696  : 	m_nMaxJoinGuild = 0;

  00028	89 46 30	 mov	 DWORD PTR [esi+48], eax

; 697  : 	m_nMinJoinGuild = 0;

  0002b	89 46 34	 mov	 DWORD PTR [esi+52], eax

; 698  : 	m_nCancelReturnRate = 0;

  0002e	89 46 38	 mov	 DWORD PTR [esi+56], eax

; 699  : 	m_nFailReturnRate = 0;

  00031	89 46 3c	 mov	 DWORD PTR [esi+60], eax

; 700  : #endif // __WORLDSERVER || __DBSERVER
; 701  : 	ClearTime();

  00034	89 46 18	 mov	 DWORD PTR [esi+24], eax
  00037	89 46 1c	 mov	 DWORD PTR [esi+28], eax

; 702  : 	m_nState = GC1TO1_CLOSE;

  0003a	89 46 04	 mov	 DWORD PTR [esi+4], eax

; 703  : #ifdef __CLIENT
; 704  : 	m_vecGuildCombat1to1_Players.clear();
; 705  : 	m_nGuildCombat1to1Guild = 0;
; 706  : 	m_nMyGuildCount = 0;
; 707  : 	m_nVsGuildCount = 0;
; 708  : #endif //__CLIENT
; 709  : }

  0003d	8b c6		 mov	 eax, esi
  0003f	5e		 pop	 esi
  00040	c3		 ret	 0
??0CGuildCombat1to1Mng@@QAE@XZ ENDP			; CGuildCombat1to1Mng::CGuildCombat1to1Mng
_TEXT	ENDS
EXTRN	??3@YAXPAX@Z:NEAR				; operator delete
; Function compile flags: /Ogty
;	COMDAT ??_GCGuildCombat1to1Mng@@UAEPAXI@Z
_TEXT	SEGMENT
___flags$ = 8						; size = 4
??_GCGuildCombat1to1Mng@@UAEPAXI@Z PROC NEAR		; CGuildCombat1to1Mng::`scalar deleting destructor', COMDAT
; _this$ = ecx
  00000	56		 push	 esi
  00001	8b f1		 mov	 esi, ecx
  00003	e8 00 00 00 00	 call	 ??1CGuildCombat1to1Mng@@UAE@XZ ; CGuildCombat1to1Mng::~CGuildCombat1to1Mng
  00008	f6 44 24 08 01	 test	 BYTE PTR ___flags$[esp], 1
  0000d	74 09		 je	 SHORT $L186917
  0000f	56		 push	 esi
  00010	e8 00 00 00 00	 call	 ??3@YAXPAX@Z		; operator delete
  00015	83 c4 04	 add	 esp, 4
$L186917:
  00018	8b c6		 mov	 eax, esi
  0001a	5e		 pop	 esi
  0001b	c2 04 00	 ret	 4
??_GCGuildCombat1to1Mng@@UAEPAXI@Z ENDP			; CGuildCombat1to1Mng::`scalar deleting destructor'
_TEXT	ENDS
PUBLIC	??_C@_0O@ICJPAPLK@CheckOpenTime?$AA@		; `string'
PUBLIC	?CheckOpenTIme@CGuildCombat1to1Mng@@QAEHXZ	; CGuildCombat1to1Mng::CheckOpenTIme
EXTRN	?Pop@CLuaBase@@QAEXH@Z:NEAR			; CLuaBase::Pop
EXTRN	?GetLuaFunction@CLuaBase@@QAEHPAD@Z:NEAR	; CLuaBase::GetLuaFunction
EXTRN	?CallLuaFunction@CLuaBase@@QAEXHH@Z:NEAR	; CLuaBase::CallLuaFunction
;	COMDAT ??_C@_0O@ICJPAPLK@CheckOpenTime?$AA@
; File c:\documents and settings\test\mes documents\source\virtuos_v17\build\program\_common\luabase.h
CONST	SEGMENT
??_C@_0O@ICJPAPLK@CheckOpenTime?$AA@ DB 'CheckOpenTime', 00H ; `string'
; Function compile flags: /Ogty
; File c:\documents and settings\test\mes documents\source\virtuos_v17\build\program\_common\guildcombat1to1.cpp
CONST	ENDS
;	COMDAT ?CheckOpenTIme@CGuildCombat1to1Mng@@QAEHXZ
_TEXT	SEGMENT
?CheckOpenTIme@CGuildCombat1to1Mng@@QAEHXZ PROC NEAR	; CGuildCombat1to1Mng::CheckOpenTIme, COMDAT
; _this$ = ecx

; 778  : {

  00000	53		 push	 ebx
  00001	56		 push	 esi
  00002	57		 push	 edi
  00003	8b f9		 mov	 edi, ecx

; 779  : 	int nReturnValue = 0;
; 780  : 	if( m_Lua.GetLuaFunction( "CheckOpenTime" ) )

  00005	8d 77 20	 lea	 esi, DWORD PTR [edi+32]
  00008	68 00 00 00 00	 push	 OFFSET FLAT:??_C@_0O@ICJPAPLK@CheckOpenTime?$AA@
  0000d	8b ce		 mov	 ecx, esi
  0000f	33 db		 xor	 ebx, ebx
  00011	e8 00 00 00 00	 call	 ?GetLuaFunction@CLuaBase@@QAEHPAD@Z ; CLuaBase::GetLuaFunction
  00016	85 c0		 test	 eax, eax
  00018	74 1f		 je	 SHORT $L186715

; 781  : 	{
; 782  : 		m_Lua.CallLuaFunction( 0, 1 );

  0001a	6a 01		 push	 1
  0001c	53		 push	 ebx
  0001d	8b ce		 mov	 ecx, esi
  0001f	e8 00 00 00 00	 call	 ?CallLuaFunction@CLuaBase@@QAEXHH@Z ; CLuaBase::CallLuaFunction

; 783  : 		
; 784  : 		nReturnValue = (int)( m_Lua.ToNumber( -1 ) );

  00024	8b 47 24	 mov	 eax, DWORD PTR [edi+36]
  00027	6a ff		 push	 -1
  00029	50		 push	 eax
  0002a	e8 00 00 00 00	 call	 _lua_tonumber
  0002f	83 c4 08	 add	 esp, 8
  00032	e8 00 00 00 00	 call	 __ftol2
  00037	8b d8		 mov	 ebx, eax
$L186715:

; 785  : 	}
; 786  : 	m_Lua.Pop(0);

  00039	6a 00		 push	 0
  0003b	8b ce		 mov	 ecx, esi
  0003d	e8 00 00 00 00	 call	 ?Pop@CLuaBase@@QAEXH@Z	; CLuaBase::Pop
  00042	5f		 pop	 edi
  00043	5e		 pop	 esi

; 787  : 
; 788  : 	return nReturnValue;

  00044	8b c3		 mov	 eax, ebx
  00046	5b		 pop	 ebx

; 789  : }

  00047	c3		 ret	 0
?CheckOpenTIme@CGuildCombat1to1Mng@@QAEHXZ ENDP		; CGuildCombat1to1Mng::CheckOpenTIme
_TEXT	ENDS
END
