; Listing generated by Microsoft (R) Optimizing Compiler Version 13.10.6030 

	TITLE	\Documents and Settings\test\Mes documents\Source\Virtuos_v17\Build\Program\_Common\GuildHouse.cpp
	.386P
include listing.inc
if @Version gt 510
.model FLAT
else
_TEXT	SEGMENT PARA USE32 PUBLIC 'CODE'
_TEXT	ENDS
_DATA	SEGMENT DWORD USE32 PUBLIC 'DATA'
_DATA	ENDS
CONST	SEGMENT DWORD USE32 PUBLIC 'CONST'
CONST	ENDS
_BSS	SEGMENT DWORD USE32 PUBLIC 'BSS'
_BSS	ENDS
$$SYMBOLS	SEGMENT BYTE USE32 'DEBSYM'
$$SYMBOLS	ENDS
_TLS	SEGMENT DWORD USE32 PUBLIC 'TLS'
_TLS	ENDS
;	COMDAT ??_C@_0BN@EFGJIHNF@usp_GuildHouse_MaxSEQ?5?8?$CF02d?8?$AA@
CONST	SEGMENT DWORD USE32 PUBLIC 'CONST'
CONST	ENDS
;	COMDAT ??_C@_03NCPCKDJB@SEQ?$AA@
CONST	SEGMENT DWORD USE32 PUBLIC 'CONST'
CONST	ENDS
;	COMDAT ??_C@_0BL@KLBKELLI@usp_GuildHouse_Load?5?8?$CF02d?8?$AA@
CONST	SEGMENT DWORD USE32 PUBLIC 'CONST'
CONST	ENDS
;	COMDAT ??_C@_09MHDEIN@m_idGuild?$AA@
CONST	SEGMENT DWORD USE32 PUBLIC 'CONST'
CONST	ENDS
;	COMDAT ??_C@_09DHJEDBNA@dwWorldID?$AA@
CONST	SEGMENT DWORD USE32 PUBLIC 'CONST'
CONST	ENDS
;	COMDAT ??_C@_09CGIPPJPO@tKeepTime?$AA@
CONST	SEGMENT DWORD USE32 PUBLIC 'CONST'
CONST	ENDS
;	COMDAT ??_C@_0EO@OANJGIDM@CGuildHouseMng?3?3DBLoadGuildHouse@
CONST	SEGMENT DWORD USE32 PUBLIC 'CONST'
CONST	ENDS
;	COMDAT ??_C@_0CI@JAMDLPN@usp_GuildFurniture_Load?5?5?8?$CF02d?8?0@
CONST	SEGMENT DWORD USE32 PUBLIC 'CONST'
CONST	ENDS
;	COMDAT ??_C@_09LCBEKCCJ@ItemIndex?$AA@
CONST	SEGMENT DWORD USE32 PUBLIC 'CONST'
CONST	ENDS
;	COMDAT ??_C@_06DMCKBLKP@bSetup?$AA@
CONST	SEGMENT DWORD USE32 PUBLIC 'CONST'
CONST	ENDS
;	COMDAT ??_C@_05JPJLCAGA@x_Pos?$AA@
CONST	SEGMENT DWORD USE32 PUBLIC 'CONST'
CONST	ENDS
;	COMDAT ??_C@_05FEMHPDMF@y_Pos?$AA@
CONST	SEGMENT DWORD USE32 PUBLIC 'CONST'
CONST	ENDS
;	COMDAT ??_C@_05NCFDIBGL@z_Pos?$AA@
CONST	SEGMENT DWORD USE32 PUBLIC 'CONST'
CONST	ENDS
;	COMDAT ??_C@_06JHEFCLKH@fAngle?$AA@
CONST	SEGMENT DWORD USE32 PUBLIC 'CONST'
CONST	ENDS
text$yd	SEGMENT PARA USE32 PUBLIC 'CODE'
text$yd	ENDS
xdata$x	SEGMENT DWORD USE32 PUBLIC 'CONST'
xdata$x	ENDS
;	COMDAT ?GetType@CGuildHouseBase@@QAEKXZ
_TEXT	SEGMENT PARA USE32 PUBLIC 'CODE'
_TEXT	ENDS
;	COMDAT ?GetFurnitureInfo@CGuildHouseBase@@QAE?AUGuildHouse_Furniture_Info@1@H@Z
_TEXT	SEGMENT PARA USE32 PUBLIC 'CODE'
_TEXT	ENDS
;	COMDAT ?GetUpkeepTime@CGuildHouseBase@@QAEJXZ
_TEXT	SEGMENT PARA USE32 PUBLIC 'CODE'
_TEXT	ENDS
;	COMDAT ?SetUpkeeptime@CGuildHouseBase@@QAEXJ@Z
_TEXT	SEGMENT PARA USE32 PUBLIC 'CODE'
_TEXT	ENDS
;	COMDAT ?GetTeleporterPos@CGuildHouseSmall@@UAE?AUD3DXVECTOR3@@XZ
_TEXT	SEGMENT PARA USE32 PUBLIC 'CODE'
_TEXT	ENDS
;	COMDAT ?GetTeleporterPos@CGuildHouseMiddle@@UAE?AUD3DXVECTOR3@@XZ
_TEXT	SEGMENT PARA USE32 PUBLIC 'CODE'
_TEXT	ENDS
;	COMDAT ?AddGuildHouse@CGuildHouseMng@@QAEHKPAVCGuildHouseBase@@@Z
_TEXT	SEGMENT PARA USE32 PUBLIC 'CODE'
_TEXT	ENDS
;	COMDAT ?GetQueryObject@CDbController@@QAEPAVCQuery@@XZ
_TEXT	SEGMENT PARA USE32 PUBLIC 'CODE'
_TEXT	ENDS
;	COMDAT ?PostRequest@CGuildHouseDBMng@@QAEHHPAEHK@Z
_TEXT	SEGMENT PARA USE32 PUBLIC 'CODE'
_TEXT	ENDS
;	COMDAT ??0GuildHouse_Furniture_Info@CGuildHouseBase@@QAE@KHUD3DXVECTOR3@@MJ@Z
_TEXT	SEGMENT PARA USE32 PUBLIC 'CODE'
_TEXT	ENDS
;	COMDAT ?Serialize@GuildHouse_Furniture_Info@CGuildHouseBase@@QAEXAAVCAr@@@Z
_TEXT	SEGMENT PARA USE32 PUBLIC 'CODE'
_TEXT	ENDS
;	COMDAT ??0CGuildHouseBase@@QAE@KK@Z
_TEXT	SEGMENT PARA USE32 PUBLIC 'CODE'
_TEXT	ENDS
;	COMDAT ??_GCGuildHouseBase@@UAEPAXI@Z
_TEXT	SEGMENT PARA USE32 PUBLIC 'CODE'
_TEXT	ENDS
;	COMDAT ??1CGuildHouseBase@@UAE@XZ
_TEXT	SEGMENT PARA USE32 PUBLIC 'CODE'
_TEXT	ENDS
;	COMDAT ?Clear@CGuildHouseBase@@QAEXXZ
_TEXT	SEGMENT PARA USE32 PUBLIC 'CODE'
_TEXT	ENDS
;	COMDAT ?GetFirstExpiredFurnitureIndex@CGuildHouseBase@@QAEHXZ
_TEXT	SEGMENT PARA USE32 PUBLIC 'CODE'
_TEXT	ENDS
;	COMDAT ?SerializeAllInfo@CGuildHouseBase@@QAEXAAVCAr@@@Z
_TEXT	SEGMENT PARA USE32 PUBLIC 'CODE'
_TEXT	ENDS
;	COMDAT ?OnGuildHousePacket@CGuildHouseBase@@QAEHHAAUGuildHouse_Furniture_Info@1@H@Z
_TEXT	SEGMENT PARA USE32 PUBLIC 'CODE'
_TEXT	ENDS
;	COMDAT ?ListUpFurniture@CGuildHouseBase@@AAEHAAUGuildHouse_Furniture_Info@1@@Z
_TEXT	SEGMENT PARA USE32 PUBLIC 'CODE'
_TEXT	ENDS
;	COMDAT ?ListDropFurniture@CGuildHouseBase@@AAEHH@Z
_TEXT	SEGMENT PARA USE32 PUBLIC 'CODE'
_TEXT	ENDS
;	COMDAT ?SetupFurnitureCtrl@CGuildHouseBase@@AAEHHAAUGuildHouse_Furniture_Info@1@@Z
_TEXT	SEGMENT PARA USE32 PUBLIC 'CODE'
_TEXT	ENDS
;	COMDAT ?RemoveFurnitureCtrl@CGuildHouseBase@@AAEHHAAUGuildHouse_Furniture_Info@1@@Z
_TEXT	SEGMENT PARA USE32 PUBLIC 'CODE'
_TEXT	ENDS
;	COMDAT ?ResetFurnitureCtrl@CGuildHouseBase@@AAEHHAAUGuildHouse_Furniture_Info@1@@Z
_TEXT	SEGMENT PARA USE32 PUBLIC 'CODE'
_TEXT	ENDS
;	COMDAT ?ExpiredGuildHouse@CGuildHouseBase@@QAEHXZ
_TEXT	SEGMENT PARA USE32 PUBLIC 'CODE'
_TEXT	ENDS
;	COMDAT ??0CGuildHouseSmall@@QAE@K@Z
_TEXT	SEGMENT PARA USE32 PUBLIC 'CODE'
_TEXT	ENDS
;	COMDAT ??_GCGuildHouseSmall@@UAEPAXI@Z
_TEXT	SEGMENT PARA USE32 PUBLIC 'CODE'
_TEXT	ENDS
;	COMDAT ??1CGuildHouseSmall@@UAE@XZ
_TEXT	SEGMENT PARA USE32 PUBLIC 'CODE'
_TEXT	ENDS
;	COMDAT ??0CGuildHouseMiddle@@QAE@K@Z
_TEXT	SEGMENT PARA USE32 PUBLIC 'CODE'
_TEXT	ENDS
;	COMDAT ??_GCGuildHouseMiddle@@UAEPAXI@Z
_TEXT	SEGMENT PARA USE32 PUBLIC 'CODE'
_TEXT	ENDS
;	COMDAT ??1CGuildHouseMiddle@@UAE@XZ
_TEXT	SEGMENT PARA USE32 PUBLIC 'CODE'
_TEXT	ENDS
;	COMDAT ??0CGuildHouseMng@@QAE@XZ
_TEXT	SEGMENT PARA USE32 PUBLIC 'CODE'
_TEXT	ENDS
;	COMDAT ??1?$map@KPAVCGuildHouseBase@@U?$less@K@std@@V?$allocator@U?$pair@$$CBKPAVCGuildHouseBase@@@std@@@3@@std@@QAE@XZ
_TEXT	SEGMENT PARA USE32 PUBLIC 'CODE'
_TEXT	ENDS
;	COMDAT ??1CGuildHouseMng@@QAE@XZ
_TEXT	SEGMENT PARA USE32 PUBLIC 'CODE'
_TEXT	ENDS
;	COMDAT ?GetInstance@CGuildHouseMng@@SAPAV1@XZ
_TEXT	SEGMENT PARA USE32 PUBLIC 'CODE'
_TEXT	ENDS
;	COMDAT _$E2
text$yd	SEGMENT PARA USE32 PUBLIC 'CODE'
text$yd	ENDS
;	COMDAT ?MakeGuildHouse@CGuildHouseMng@@QAEPAVCGuildHouseBase@@KK@Z
_TEXT	SEGMENT PARA USE32 PUBLIC 'CODE'
_TEXT	ENDS
;	COMDAT ?RemoveGuildHouse@CGuildHouseMng@@QAEHK@Z
_TEXT	SEGMENT PARA USE32 PUBLIC 'CODE'
_TEXT	ENDS
;	COMDAT ?GetGuildHouse@CGuildHouseMng@@QAEPAVCGuildHouseBase@@K@Z
_TEXT	SEGMENT PARA USE32 PUBLIC 'CODE'
_TEXT	ENDS
;	COMDAT ?Serialize@CGuildHouseMng@@QAEXAAVCAr@@@Z
_TEXT	SEGMENT PARA USE32 PUBLIC 'CODE'
_TEXT	ENDS
;	COMDAT ?ProcessExpired@CGuildHouseMng@@QAEXXZ
_TEXT	SEGMENT PARA USE32 PUBLIC 'CODE'
_TEXT	ENDS
;	COMDAT ?DBLoadGuildHouse@CGuildHouseMng@@QAEHPAVCQuery@@@Z
_TEXT	SEGMENT PARA USE32 PUBLIC 'CODE'
_TEXT	ENDS
;	COMDAT ?compare@?$basic_string@DU?$char_traits@D@std@@V?$allocator@D@2@@std@@QBEHABV12@@Z
_TEXT	SEGMENT PARA USE32 PUBLIC 'CODE'
_TEXT	ENDS
;	COMDAT ??0?$vector@UGuildHouse_Furniture_Info@CGuildHouseBase@@V?$allocator@UGuildHouse_Furniture_Info@CGuildHouseBase@@@std@@@std@@QAE@XZ
_TEXT	SEGMENT PARA USE32 PUBLIC 'CODE'
_TEXT	ENDS
;	COMDAT ??1?$vector@UGuildHouse_Furniture_Info@CGuildHouseBase@@V?$allocator@UGuildHouse_Furniture_Info@CGuildHouseBase@@@std@@@std@@QAE@XZ
_TEXT	SEGMENT PARA USE32 PUBLIC 'CODE'
_TEXT	ENDS
;	COMDAT ?begin@?$vector@UGuildHouse_Furniture_Info@CGuildHouseBase@@V?$allocator@UGuildHouse_Furniture_Info@CGuildHouseBase@@@std@@@std@@QAE?AViterator@12@XZ
_TEXT	SEGMENT PARA USE32 PUBLIC 'CODE'
_TEXT	ENDS
;	COMDAT ?resize@?$vector@UGuildHouse_Furniture_Info@CGuildHouseBase@@V?$allocator@UGuildHouse_Furniture_Info@CGuildHouseBase@@@std@@@std@@QAEXI@Z
_TEXT	SEGMENT PARA USE32 PUBLIC 'CODE'
_TEXT	ENDS
;	COMDAT ?size@?$vector@UGuildHouse_Furniture_Info@CGuildHouseBase@@V?$allocator@UGuildHouse_Furniture_Info@CGuildHouseBase@@@std@@@std@@QBEIXZ
_TEXT	SEGMENT PARA USE32 PUBLIC 'CODE'
_TEXT	ENDS
;	COMDAT ??A?$vector@UGuildHouse_Furniture_Info@CGuildHouseBase@@V?$allocator@UGuildHouse_Furniture_Info@CGuildHouseBase@@@std@@@std@@QAEAAUGuildHouse_Furniture_Info@CGuildHouseBase@@I@Z
_TEXT	SEGMENT PARA USE32 PUBLIC 'CODE'
_TEXT	ENDS
;	COMDAT ?push_back@?$vector@UGuildHouse_Furniture_Info@CGuildHouseBase@@V?$allocator@UGuildHouse_Furniture_Info@CGuildHouseBase@@@std@@@std@@QAEXABUGuildHouse_Furniture_Info@CGuildHouseBase@@@Z
_TEXT	SEGMENT PARA USE32 PUBLIC 'CODE'
_TEXT	ENDS
;	COMDAT ?erase@?$vector@UGuildHouse_Furniture_Info@CGuildHouseBase@@V?$allocator@UGuildHouse_Furniture_Info@CGuildHouseBase@@@std@@@std@@QAE?AViterator@12@V312@@Z
_TEXT	SEGMENT PARA USE32 PUBLIC 'CODE'
_TEXT	ENDS
;	COMDAT ?clear@?$vector@UGuildHouse_Furniture_Info@CGuildHouseBase@@V?$allocator@UGuildHouse_Furniture_Info@CGuildHouseBase@@@std@@@std@@QAEXXZ
_TEXT	SEGMENT PARA USE32 PUBLIC 'CODE'
_TEXT	ENDS
;	COMDAT ??0?$map@KPAVCGuildHouseBase@@U?$less@K@std@@V?$allocator@U?$pair@$$CBKPAVCGuildHouseBase@@@std@@@3@@std@@QAE@XZ
_TEXT	SEGMENT PARA USE32 PUBLIC 'CODE'
_TEXT	ENDS
;	COMDAT ??1?$_Tree@V?$_Tmap_traits@KPAVCGuildHouseBase@@U?$less@K@std@@V?$allocator@U?$pair@$$CBKPAVCGuildHouseBase@@@std@@@3@$0A@@std@@@std@@QAE@XZ
_TEXT	SEGMENT PARA USE32 PUBLIC 'CODE'
_TEXT	ENDS
;	COMDAT ?begin@?$_Tree@V?$_Tmap_traits@KPAVCGuildHouseBase@@U?$less@K@std@@V?$allocator@U?$pair@$$CBKPAVCGuildHouseBase@@@std@@@3@$0A@@std@@@std@@QAE?AViterator@12@XZ
_TEXT	SEGMENT PARA USE32 PUBLIC 'CODE'
_TEXT	ENDS
;	COMDAT ?end@?$_Tree@V?$_Tmap_traits@KPAVCGuildHouseBase@@U?$less@K@std@@V?$allocator@U?$pair@$$CBKPAVCGuildHouseBase@@@std@@@3@$0A@@std@@@std@@QAE?AViterator@12@XZ
_TEXT	SEGMENT PARA USE32 PUBLIC 'CODE'
_TEXT	ENDS
;	COMDAT ?size@?$_Tree@V?$_Tmap_traits@KPAVCGuildHouseBase@@U?$less@K@std@@V?$allocator@U?$pair@$$CBKPAVCGuildHouseBase@@@std@@@3@$0A@@std@@@std@@QBEIXZ
_TEXT	SEGMENT PARA USE32 PUBLIC 'CODE'
_TEXT	ENDS
;	COMDAT ?empty@?$_Tree@V?$_Tmap_traits@KPAVCGuildHouseBase@@U?$less@K@std@@V?$allocator@U?$pair@$$CBKPAVCGuildHouseBase@@@std@@@3@$0A@@std@@@std@@QBE_NXZ
_TEXT	SEGMENT PARA USE32 PUBLIC 'CODE'
_TEXT	ENDS
;	COMDAT ?insert@?$_Tree@V?$_Tmap_traits@KPAVCGuildHouseBase@@U?$less@K@std@@V?$allocator@U?$pair@$$CBKPAVCGuildHouseBase@@@std@@@3@$0A@@std@@@std@@QAE?AU?$pair@Viterator@?$_Tree@V?$_Tmap_traits@KPAVCGuildHouseBase@@U?$less@K@std@@V?$allocator@U?$pair@$$CBKPAVCGuildHouseBase@@@std@@@3@$0A@@std@@@std@@_N@2@ABU?$pair@$$CBKPAVCGuildHouseBase@@@2@@Z
_TEXT	SEGMENT PARA USE32 PUBLIC 'CODE'
_TEXT	ENDS
;	COMDAT ?erase@?$_Tree@V?$_Tmap_traits@KPAVCGuildHouseBase@@U?$less@K@std@@V?$allocator@U?$pair@$$CBKPAVCGuildHouseBase@@@std@@@3@$0A@@std@@@std@@QAE?AViterator@12@V312@@Z
_TEXT	SEGMENT PARA USE32 PUBLIC 'CODE'
_TEXT	ENDS
;	COMDAT ?clear@?$_Tree@V?$_Tmap_traits@KPAVCGuildHouseBase@@U?$less@K@std@@V?$allocator@U?$pair@$$CBKPAVCGuildHouseBase@@@std@@@3@$0A@@std@@@std@@QAEXXZ
_TEXT	SEGMENT PARA USE32 PUBLIC 'CODE'
_TEXT	ENDS
;	COMDAT ?find@?$_Tree@V?$_Tmap_traits@KPAVCGuildHouseBase@@U?$less@K@std@@V?$allocator@U?$pair@$$CBKPAVCGuildHouseBase@@@std@@@3@$0A@@std@@@std@@QAE?AViterator@12@ABK@Z
_TEXT	SEGMENT PARA USE32 PUBLIC 'CODE'
_TEXT	ENDS
;	COMDAT ??Citerator@?$_Tree@V?$_Tmap_traits@KPAVCGuildHouseBase@@U?$less@K@std@@V?$allocator@U?$pair@$$CBKPAVCGuildHouseBase@@@std@@@3@$0A@@std@@@std@@QBEPAU?$pair@$$CBKPAVCGuildHouseBase@@@2@XZ
_TEXT	SEGMENT PARA USE32 PUBLIC 'CODE'
_TEXT	ENDS
;	COMDAT ??Eiterator@?$_Tree@V?$_Tmap_traits@KPAVCGuildHouseBase@@U?$less@K@std@@V?$allocator@U?$pair@$$CBKPAVCGuildHouseBase@@@std@@@3@$0A@@std@@@std@@QAE?AV012@H@Z
_TEXT	SEGMENT PARA USE32 PUBLIC 'CODE'
_TEXT	ENDS
;	COMDAT ??8const_iterator@?$_Tree@V?$_Tmap_traits@KPAVCGuildHouseBase@@U?$less@K@std@@V?$allocator@U?$pair@$$CBKPAVCGuildHouseBase@@@std@@@3@$0A@@std@@@std@@QBE_NABV012@@Z
_TEXT	SEGMENT PARA USE32 PUBLIC 'CODE'
_TEXT	ENDS
;	COMDAT ??9const_iterator@?$_Tree@V?$_Tmap_traits@KPAVCGuildHouseBase@@U?$less@K@std@@V?$allocator@U?$pair@$$CBKPAVCGuildHouseBase@@@std@@@3@$0A@@std@@@std@@QBE_NABV012@@Z
_TEXT	SEGMENT PARA USE32 PUBLIC 'CODE'
_TEXT	ENDS
;	COMDAT ??Hiterator@?$vector@UGuildHouse_Furniture_Info@CGuildHouseBase@@V?$allocator@UGuildHouse_Furniture_Info@CGuildHouseBase@@@std@@@std@@QBE?AV012@H@Z
_TEXT	SEGMENT PARA USE32 PUBLIC 'CODE'
_TEXT	ENDS
;	COMDAT ?compare@?$basic_string@DU?$char_traits@D@std@@V?$allocator@D@2@@std@@QBEHIIPBDI@Z
_TEXT	SEGMENT PARA USE32 PUBLIC 'CODE'
_TEXT	ENDS
;	COMDAT ?capacity@?$vector@UGuildHouse_Furniture_Info@CGuildHouseBase@@V?$allocator@UGuildHouse_Furniture_Info@CGuildHouseBase@@@std@@@std@@QBEIXZ
_TEXT	SEGMENT PARA USE32 PUBLIC 'CODE'
_TEXT	ENDS
;	COMDAT ?end@?$vector@UGuildHouse_Furniture_Info@CGuildHouseBase@@V?$allocator@UGuildHouse_Furniture_Info@CGuildHouseBase@@@std@@@std@@QAE?AViterator@12@XZ
_TEXT	SEGMENT PARA USE32 PUBLIC 'CODE'
_TEXT	ENDS
;	COMDAT ?resize@?$vector@UGuildHouse_Furniture_Info@CGuildHouseBase@@V?$allocator@UGuildHouse_Furniture_Info@CGuildHouseBase@@@std@@@std@@QAEXIUGuildHouse_Furniture_Info@CGuildHouseBase@@@Z
_TEXT	SEGMENT PARA USE32 PUBLIC 'CODE'
_TEXT	ENDS
;	COMDAT ?insert@?$vector@UGuildHouse_Furniture_Info@CGuildHouseBase@@V?$allocator@UGuildHouse_Furniture_Info@CGuildHouseBase@@@std@@@std@@QAE?AViterator@12@V312@ABUGuildHouse_Furniture_Info@CGuildHouseBase@@@Z
_TEXT	SEGMENT PARA USE32 PUBLIC 'CODE'
_TEXT	ENDS
;	COMDAT ?_Buy@?$vector@UGuildHouse_Furniture_Info@CGuildHouseBase@@V?$allocator@UGuildHouse_Furniture_Info@CGuildHouseBase@@@std@@@std@@IAE_NI@Z
_TEXT	SEGMENT PARA USE32 PUBLIC 'CODE'
_TEXT	ENDS
;	COMDAT ?_Destroy@?$vector@UGuildHouse_Furniture_Info@CGuildHouseBase@@V?$allocator@UGuildHouse_Furniture_Info@CGuildHouseBase@@@std@@@std@@IAEXPAUGuildHouse_Furniture_Info@CGuildHouseBase@@0@Z
_TEXT	SEGMENT PARA USE32 PUBLIC 'CODE'
_TEXT	ENDS
;	COMDAT ?_Tidy@?$vector@UGuildHouse_Furniture_Info@CGuildHouseBase@@V?$allocator@UGuildHouse_Furniture_Info@CGuildHouseBase@@@std@@@std@@IAEXXZ
_TEXT	SEGMENT PARA USE32 PUBLIC 'CODE'
_TEXT	ENDS
;	COMDAT ?_Ufill@?$vector@UGuildHouse_Furniture_Info@CGuildHouseBase@@V?$allocator@UGuildHouse_Furniture_Info@CGuildHouseBase@@@std@@@std@@IAEPAUGuildHouse_Furniture_Info@CGuildHouseBase@@PAU34@IABU34@@Z
_TEXT	SEGMENT PARA USE32 PUBLIC 'CODE'
_TEXT	ENDS
;	COMDAT ??0?$_Vector_val@UGuildHouse_Furniture_Info@CGuildHouseBase@@V?$allocator@UGuildHouse_Furniture_Info@CGuildHouseBase@@@std@@@std@@IAE@V?$allocator@UGuildHouse_Furniture_Info@CGuildHouseBase@@@1@@Z
_TEXT	SEGMENT PARA USE32 PUBLIC 'CODE'
_TEXT	ENDS
;	COMDAT ??0?$allocator@UGuildHouse_Furniture_Info@CGuildHouseBase@@@std@@QAE@XZ
_TEXT	SEGMENT PARA USE32 PUBLIC 'CODE'
_TEXT	ENDS
;	COMDAT ?_Color@?$_Tree@V?$_Tmap_traits@KPAVCGuildHouseBase@@U?$less@K@std@@V?$allocator@U?$pair@$$CBKPAVCGuildHouseBase@@@std@@@3@$0A@@std@@@std@@KAAADPAU_Node@?$_Tree_nod@V?$_Tmap_traits@KPAVCGuildHouseBase@@U?$less@K@std@@V?$allocator@U?$pair@$$CBKPAVCGuildHouseBase@@@std@@@3@$0A@@std@@@2@@Z
_TEXT	SEGMENT PARA USE32 PUBLIC 'CODE'
_TEXT	ENDS
;	COMDAT ?_Isnil@?$_Tree@V?$_Tmap_traits@KPAVCGuildHouseBase@@U?$less@K@std@@V?$allocator@U?$pair@$$CBKPAVCGuildHouseBase@@@std@@@3@$0A@@std@@@std@@KAAADPAU_Node@?$_Tree_nod@V?$_Tmap_traits@KPAVCGuildHouseBase@@U?$less@K@std@@V?$allocator@U?$pair@$$CBKPAVCGuildHouseBase@@@std@@@3@$0A@@std@@@2@@Z
_TEXT	SEGMENT PARA USE32 PUBLIC 'CODE'
_TEXT	ENDS
;	COMDAT ?_Key@?$_Tree@V?$_Tmap_traits@KPAVCGuildHouseBase@@U?$less@K@std@@V?$allocator@U?$pair@$$CBKPAVCGuildHouseBase@@@std@@@3@$0A@@std@@@std@@KAABKPAU_Node@?$_Tree_nod@V?$_Tmap_traits@KPAVCGuildHouseBase@@U?$less@K@std@@V?$allocator@U?$pair@$$CBKPAVCGuildHouseBase@@@std@@@3@$0A@@std@@@2@@Z
_TEXT	SEGMENT PARA USE32 PUBLIC 'CODE'
_TEXT	ENDS
;	COMDAT ?_Left@?$_Tree@V?$_Tmap_traits@KPAVCGuildHouseBase@@U?$less@K@std@@V?$allocator@U?$pair@$$CBKPAVCGuildHouseBase@@@std@@@3@$0A@@std@@@std@@KAAAPAU_Node@?$_Tree_nod@V?$_Tmap_traits@KPAVCGuildHouseBase@@U?$less@K@std@@V?$allocator@U?$pair@$$CBKPAVCGuildHouseBase@@@std@@@3@$0A@@std@@@2@PAU342@@Z
_TEXT	SEGMENT PARA USE32 PUBLIC 'CODE'
_TEXT	ENDS
;	COMDAT ?_Parent@?$_Tree@V?$_Tmap_traits@KPAVCGuildHouseBase@@U?$less@K@std@@V?$allocator@U?$pair@$$CBKPAVCGuildHouseBase@@@std@@@3@$0A@@std@@@std@@KAAAPAU_Node@?$_Tree_nod@V?$_Tmap_traits@KPAVCGuildHouseBase@@U?$less@K@std@@V?$allocator@U?$pair@$$CBKPAVCGuildHouseBase@@@std@@@3@$0A@@std@@@2@PAU342@@Z
_TEXT	SEGMENT PARA USE32 PUBLIC 'CODE'
_TEXT	ENDS
;	COMDAT ?_Right@?$_Tree@V?$_Tmap_traits@KPAVCGuildHouseBase@@U?$less@K@std@@V?$allocator@U?$pair@$$CBKPAVCGuildHouseBase@@@std@@@3@$0A@@std@@@std@@KAAAPAU_Node@?$_Tree_nod@V?$_Tmap_traits@KPAVCGuildHouseBase@@U?$less@K@std@@V?$allocator@U?$pair@$$CBKPAVCGuildHouseBase@@@std@@@3@$0A@@std@@@2@PAU342@@Z
_TEXT	SEGMENT PARA USE32 PUBLIC 'CODE'
_TEXT	ENDS
;	COMDAT ??0?$_Tree@V?$_Tmap_traits@KPAVCGuildHouseBase@@U?$less@K@std@@V?$allocator@U?$pair@$$CBKPAVCGuildHouseBase@@@std@@@3@$0A@@std@@@std@@QAE@ABU?$less@K@1@ABV?$allocator@U?$pair@$$CBKPAVCGuildHouseBase@@@std@@@1@@Z
_TEXT	SEGMENT PARA USE32 PUBLIC 'CODE'
_TEXT	ENDS
;	COMDAT ?lower_bound@?$_Tree@V?$_Tmap_traits@KPAVCGuildHouseBase@@U?$less@K@std@@V?$allocator@U?$pair@$$CBKPAVCGuildHouseBase@@@std@@@3@$0A@@std@@@std@@QAE?AViterator@12@ABK@Z
_TEXT	SEGMENT PARA USE32 PUBLIC 'CODE'
_TEXT	ENDS
;	COMDAT ?_Erase@?$_Tree@V?$_Tmap_traits@KPAVCGuildHouseBase@@U?$less@K@std@@V?$allocator@U?$pair@$$CBKPAVCGuildHouseBase@@@std@@@3@$0A@@std@@@std@@IAEXPAU_Node@?$_Tree_nod@V?$_Tmap_traits@KPAVCGuildHouseBase@@U?$less@K@std@@V?$allocator@U?$pair@$$CBKPAVCGuildHouseBase@@@std@@@3@$0A@@std@@@2@@Z
_TEXT	SEGMENT PARA USE32 PUBLIC 'CODE'
_TEXT	ENDS
;	COMDAT ?_Insert@?$_Tree@V?$_Tmap_traits@KPAVCGuildHouseBase@@U?$less@K@std@@V?$allocator@U?$pair@$$CBKPAVCGuildHouseBase@@@std@@@3@$0A@@std@@@std@@IAE?AViterator@12@_NPAU_Node@?$_Tree_nod@V?$_Tmap_traits@KPAVCGuildHouseBase@@U?$less@K@std@@V?$allocator@U?$pair@$$CBKPAVCGuildHouseBase@@@std@@@3@$0A@@std@@@2@ABU?$pair@$$CBKPAVCGuildHouseBase@@@2@@Z
_TEXT	SEGMENT PARA USE32 PUBLIC 'CODE'
_TEXT	ENDS
;	COMDAT ?_Lmost@?$_Tree@V?$_Tmap_traits@KPAVCGuildHouseBase@@U?$less@K@std@@V?$allocator@U?$pair@$$CBKPAVCGuildHouseBase@@@std@@@3@$0A@@std@@@std@@IAEAAPAU_Node@?$_Tree_nod@V?$_Tmap_traits@KPAVCGuildHouseBase@@U?$less@K@std@@V?$allocator@U?$pair@$$CBKPAVCGuildHouseBase@@@std@@@3@$0A@@std@@@2@XZ
_TEXT	SEGMENT PARA USE32 PUBLIC 'CODE'
_TEXT	ENDS
;	COMDAT ?_Lrotate@?$_Tree@V?$_Tmap_traits@KPAVCGuildHouseBase@@U?$less@K@std@@V?$allocator@U?$pair@$$CBKPAVCGuildHouseBase@@@std@@@3@$0A@@std@@@std@@IAEXPAU_Node@?$_Tree_nod@V?$_Tmap_traits@KPAVCGuildHouseBase@@U?$less@K@std@@V?$allocator@U?$pair@$$CBKPAVCGuildHouseBase@@@std@@@3@$0A@@std@@@2@@Z
_TEXT	SEGMENT PARA USE32 PUBLIC 'CODE'
_TEXT	ENDS
;	COMDAT ?_Max@?$_Tree@V?$_Tmap_traits@KPAVCGuildHouseBase@@U?$less@K@std@@V?$allocator@U?$pair@$$CBKPAVCGuildHouseBase@@@std@@@3@$0A@@std@@@std@@KAPAU_Node@?$_Tree_nod@V?$_Tmap_traits@KPAVCGuildHouseBase@@U?$less@K@std@@V?$allocator@U?$pair@$$CBKPAVCGuildHouseBase@@@std@@@3@$0A@@std@@@2@PAU342@@Z
_TEXT	SEGMENT PARA USE32 PUBLIC 'CODE'
_TEXT	ENDS
;	COMDAT ?_Min@?$_Tree@V?$_Tmap_traits@KPAVCGuildHouseBase@@U?$less@K@std@@V?$allocator@U?$pair@$$CBKPAVCGuildHouseBase@@@std@@@3@$0A@@std@@@std@@KAPAU_Node@?$_Tree_nod@V?$_Tmap_traits@KPAVCGuildHouseBase@@U?$less@K@std@@V?$allocator@U?$pair@$$CBKPAVCGuildHouseBase@@@std@@@3@$0A@@std@@@2@PAU342@@Z
_TEXT	SEGMENT PARA USE32 PUBLIC 'CODE'
_TEXT	ENDS
;	COMDAT ?_Rmost@?$_Tree@V?$_Tmap_traits@KPAVCGuildHouseBase@@U?$less@K@std@@V?$allocator@U?$pair@$$CBKPAVCGuildHouseBase@@@std@@@3@$0A@@std@@@std@@IAEAAPAU_Node@?$_Tree_nod@V?$_Tmap_traits@KPAVCGuildHouseBase@@U?$less@K@std@@V?$allocator@U?$pair@$$CBKPAVCGuildHouseBase@@@std@@@3@$0A@@std@@@2@XZ
_TEXT	SEGMENT PARA USE32 PUBLIC 'CODE'
_TEXT	ENDS
;	COMDAT ?_Root@?$_Tree@V?$_Tmap_traits@KPAVCGuildHouseBase@@U?$less@K@std@@V?$allocator@U?$pair@$$CBKPAVCGuildHouseBase@@@std@@@3@$0A@@std@@@std@@IAEAAPAU_Node@?$_Tree_nod@V?$_Tmap_traits@KPAVCGuildHouseBase@@U?$less@K@std@@V?$allocator@U?$pair@$$CBKPAVCGuildHouseBase@@@std@@@3@$0A@@std@@@2@XZ
_TEXT	SEGMENT PARA USE32 PUBLIC 'CODE'
_TEXT	ENDS
;	COMDAT ?_Rrotate@?$_Tree@V?$_Tmap_traits@KPAVCGuildHouseBase@@U?$less@K@std@@V?$allocator@U?$pair@$$CBKPAVCGuildHouseBase@@@std@@@3@$0A@@std@@@std@@IAEXPAU_Node@?$_Tree_nod@V?$_Tmap_traits@KPAVCGuildHouseBase@@U?$less@K@std@@V?$allocator@U?$pair@$$CBKPAVCGuildHouseBase@@@std@@@3@$0A@@std@@@2@@Z
_TEXT	SEGMENT PARA USE32 PUBLIC 'CODE'
_TEXT	ENDS
;	COMDAT ?_Tidy@?$_Tree@V?$_Tmap_traits@KPAVCGuildHouseBase@@U?$less@K@std@@V?$allocator@U?$pair@$$CBKPAVCGuildHouseBase@@@std@@@3@$0A@@std@@@std@@IAEXXZ
_TEXT	SEGMENT PARA USE32 PUBLIC 'CODE'
_TEXT	ENDS
;	COMDAT ?_Kfn@?$_Tmap_traits@KPAVCGuildHouseBase@@U?$less@K@std@@V?$allocator@U?$pair@$$CBKPAVCGuildHouseBase@@@std@@@3@$0A@@std@@SAABKABU?$pair@$$CBKPAVCGuildHouseBase@@@2@@Z
_TEXT	SEGMENT PARA USE32 PUBLIC 'CODE'
_TEXT	ENDS
;	COMDAT ??0?$allocator@U?$pair@$$CBKPAVCGuildHouseBase@@@std@@@std@@QAE@XZ
_TEXT	SEGMENT PARA USE32 PUBLIC 'CODE'
_TEXT	ENDS
;	COMDAT ?deallocate@?$allocator@U_Node@?$_Tree_nod@V?$_Tmap_traits@KPAVCGuildHouseBase@@U?$less@K@std@@V?$allocator@U?$pair@$$CBKPAVCGuildHouseBase@@@std@@@3@$0A@@std@@@std@@@std@@QAEXPAU_Node@?$_Tree_nod@V?$_Tmap_traits@KPAVCGuildHouseBase@@U?$less@K@std@@V?$allocator@U?$pair@$$CBKPAVCGuildHouseBase@@@std@@@3@$0A@@std@@@2@I@Z
_TEXT	SEGMENT PARA USE32 PUBLIC 'CODE'
_TEXT	ENDS
;	COMDAT ?destroy@?$allocator@U_Node@?$_Tree_nod@V?$_Tmap_traits@KPAVCGuildHouseBase@@U?$less@K@std@@V?$allocator@U?$pair@$$CBKPAVCGuildHouseBase@@@std@@@3@$0A@@std@@@std@@@std@@QAEXPAU_Node@?$_Tree_nod@V?$_Tmap_traits@KPAVCGuildHouseBase@@U?$less@K@std@@V?$allocator@U?$pair@$$CBKPAVCGuildHouseBase@@@std@@@3@$0A@@std@@@2@@Z
_TEXT	SEGMENT PARA USE32 PUBLIC 'CODE'
_TEXT	ENDS
;	COMDAT ??0?$pair@Viterator@?$_Tree@V?$_Tmap_traits@KPAVCGuildHouseBase@@U?$less@K@std@@V?$allocator@U?$pair@$$CBKPAVCGuildHouseBase@@@std@@@3@$0A@@std@@@std@@_N@std@@QAE@ABViterator@?$_Tree@V?$_Tmap_traits@KPAVCGuildHouseBase@@U?$less@K@std@@V?$allocator@U?$pair@$$CBKPAVCGuildHouseBase@@@std@@@3@$0A@@std@@@1@AB_N@Z
_TEXT	SEGMENT PARA USE32 PUBLIC 'CODE'
_TEXT	ENDS
;	COMDAT ??0iterator@?$_Tree@V?$_Tmap_traits@KPAVCGuildHouseBase@@U?$less@K@std@@V?$allocator@U?$pair@$$CBKPAVCGuildHouseBase@@@std@@@3@$0A@@std@@@std@@QAE@PAU_Node@?$_Tree_nod@V?$_Tmap_traits@KPAVCGuildHouseBase@@U?$less@K@std@@V?$allocator@U?$pair@$$CBKPAVCGuildHouseBase@@@std@@@3@$0A@@std@@@2@@Z
_TEXT	SEGMENT PARA USE32 PUBLIC 'CODE'
_TEXT	ENDS
;	COMDAT ??Diterator@?$_Tree@V?$_Tmap_traits@KPAVCGuildHouseBase@@U?$less@K@std@@V?$allocator@U?$pair@$$CBKPAVCGuildHouseBase@@@std@@@3@$0A@@std@@@std@@QBEAAU?$pair@$$CBKPAVCGuildHouseBase@@@2@XZ
_TEXT	SEGMENT PARA USE32 PUBLIC 'CODE'
_TEXT	ENDS
;	COMDAT ??Eiterator@?$_Tree@V?$_Tmap_traits@KPAVCGuildHouseBase@@U?$less@K@std@@V?$allocator@U?$pair@$$CBKPAVCGuildHouseBase@@@std@@@3@$0A@@std@@@std@@QAEAAV012@XZ
_TEXT	SEGMENT PARA USE32 PUBLIC 'CODE'
_TEXT	ENDS
;	COMDAT ??Fiterator@?$_Tree@V?$_Tmap_traits@KPAVCGuildHouseBase@@U?$less@K@std@@V?$allocator@U?$pair@$$CBKPAVCGuildHouseBase@@@std@@@3@$0A@@std@@@std@@QAEAAV012@XZ
_TEXT	SEGMENT PARA USE32 PUBLIC 'CODE'
_TEXT	ENDS
;	COMDAT ?_Mynode@const_iterator@?$_Tree@V?$_Tmap_traits@KPAVCGuildHouseBase@@U?$less@K@std@@V?$allocator@U?$pair@$$CBKPAVCGuildHouseBase@@@std@@@3@$0A@@std@@@std@@QBEPAU_Node@?$_Tree_nod@V?$_Tmap_traits@KPAVCGuildHouseBase@@U?$less@K@std@@V?$allocator@U?$pair@$$CBKPAVCGuildHouseBase@@@std@@@3@$0A@@std@@@3@XZ
_TEXT	SEGMENT PARA USE32 PUBLIC 'CODE'
_TEXT	ENDS
;	COMDAT ??0iterator@?$vector@UGuildHouse_Furniture_Info@CGuildHouseBase@@V?$allocator@UGuildHouse_Furniture_Info@CGuildHouseBase@@@std@@@std@@QAE@PAUGuildHouse_Furniture_Info@CGuildHouseBase@@@Z
_TEXT	SEGMENT PARA USE32 PUBLIC 'CODE'
_TEXT	ENDS
;	COMDAT ??Diterator@?$vector@UGuildHouse_Furniture_Info@CGuildHouseBase@@V?$allocator@UGuildHouse_Furniture_Info@CGuildHouseBase@@@std@@@std@@QBEAAUGuildHouse_Furniture_Info@CGuildHouseBase@@XZ
_TEXT	SEGMENT PARA USE32 PUBLIC 'CODE'
_TEXT	ENDS
;	COMDAT ??Yiterator@?$vector@UGuildHouse_Furniture_Info@CGuildHouseBase@@V?$allocator@UGuildHouse_Furniture_Info@CGuildHouseBase@@@std@@@std@@QAEAAV012@H@Z
_TEXT	SEGMENT PARA USE32 PUBLIC 'CODE'
_TEXT	ENDS
;	COMDAT ?max_size@?$vector@UGuildHouse_Furniture_Info@CGuildHouseBase@@V?$allocator@UGuildHouse_Furniture_Info@CGuildHouseBase@@@std@@@std@@QBEIXZ
_TEXT	SEGMENT PARA USE32 PUBLIC 'CODE'
_TEXT	ENDS
;	COMDAT ?erase@?$vector@UGuildHouse_Furniture_Info@CGuildHouseBase@@V?$allocator@UGuildHouse_Furniture_Info@CGuildHouseBase@@@std@@@std@@QAE?AViterator@12@V312@0@Z
_TEXT	SEGMENT PARA USE32 PUBLIC 'CODE'
_TEXT	ENDS
;	COMDAT ?_Insert_n@?$vector@UGuildHouse_Furniture_Info@CGuildHouseBase@@V?$allocator@UGuildHouse_Furniture_Info@CGuildHouseBase@@@std@@@std@@IAEXViterator@12@IABUGuildHouse_Furniture_Info@CGuildHouseBase@@@Z
_TEXT	SEGMENT PARA USE32 PUBLIC 'CODE'
_TEXT	ENDS
;	COMDAT ?_Xlen@?$vector@UGuildHouse_Furniture_Info@CGuildHouseBase@@V?$allocator@UGuildHouse_Furniture_Info@CGuildHouseBase@@@std@@@std@@IBEXXZ
_TEXT	SEGMENT PARA USE32 PUBLIC 'CODE'
_TEXT	ENDS
;	COMDAT ??0?$allocator@UGuildHouse_Furniture_Info@CGuildHouseBase@@@std@@QAE@ABV01@@Z
_TEXT	SEGMENT PARA USE32 PUBLIC 'CODE'
_TEXT	ENDS
;	COMDAT ?deallocate@?$allocator@UGuildHouse_Furniture_Info@CGuildHouseBase@@@std@@QAEXPAUGuildHouse_Furniture_Info@CGuildHouseBase@@I@Z
_TEXT	SEGMENT PARA USE32 PUBLIC 'CODE'
_TEXT	ENDS
;	COMDAT ?allocate@?$allocator@UGuildHouse_Furniture_Info@CGuildHouseBase@@@std@@QAEPAUGuildHouse_Furniture_Info@CGuildHouseBase@@I@Z
_TEXT	SEGMENT PARA USE32 PUBLIC 'CODE'
_TEXT	ENDS
;	COMDAT ?_Myval@?$_Tree@V?$_Tmap_traits@KPAVCGuildHouseBase@@U?$less@K@std@@V?$allocator@U?$pair@$$CBKPAVCGuildHouseBase@@@std@@@3@$0A@@std@@@std@@KAAAU?$pair@$$CBKPAVCGuildHouseBase@@@2@PAU_Node@?$_Tree_nod@V?$_Tmap_traits@KPAVCGuildHouseBase@@U?$less@K@std@@V?$allocator@U?$pair@$$CBKPAVCGuildHouseBase@@@std@@@3@$0A@@std@@@2@@Z
_TEXT	SEGMENT PARA USE32 PUBLIC 'CODE'
_TEXT	ENDS
;	COMDAT ?max_size@?$_Tree@V?$_Tmap_traits@KPAVCGuildHouseBase@@U?$less@K@std@@V?$allocator@U?$pair@$$CBKPAVCGuildHouseBase@@@std@@@3@$0A@@std@@@std@@QBEIXZ
_TEXT	SEGMENT PARA USE32 PUBLIC 'CODE'
_TEXT	ENDS
;	COMDAT ?erase@?$_Tree@V?$_Tmap_traits@KPAVCGuildHouseBase@@U?$less@K@std@@V?$allocator@U?$pair@$$CBKPAVCGuildHouseBase@@@std@@@3@$0A@@std@@@std@@QAE?AViterator@12@V312@0@Z
_TEXT	SEGMENT PARA USE32 PUBLIC 'CODE'
_TEXT	ENDS
;	COMDAT ?_Init@?$_Tree@V?$_Tmap_traits@KPAVCGuildHouseBase@@U?$less@K@std@@V?$allocator@U?$pair@$$CBKPAVCGuildHouseBase@@@std@@@3@$0A@@std@@@std@@IAEXXZ
_TEXT	SEGMENT PARA USE32 PUBLIC 'CODE'
_TEXT	ENDS
;	COMDAT ?_Lbound@?$_Tree@V?$_Tmap_traits@KPAVCGuildHouseBase@@U?$less@K@std@@V?$allocator@U?$pair@$$CBKPAVCGuildHouseBase@@@std@@@3@$0A@@std@@@std@@IBEPAU_Node@?$_Tree_nod@V?$_Tmap_traits@KPAVCGuildHouseBase@@U?$less@K@std@@V?$allocator@U?$pair@$$CBKPAVCGuildHouseBase@@@std@@@3@$0A@@std@@@2@ABK@Z
_TEXT	SEGMENT PARA USE32 PUBLIC 'CODE'
_TEXT	ENDS
;	COMDAT ?_Buynode@?$_Tree@V?$_Tmap_traits@KPAVCGuildHouseBase@@U?$less@K@std@@V?$allocator@U?$pair@$$CBKPAVCGuildHouseBase@@@std@@@3@$0A@@std@@@std@@IAEPAU_Node@?$_Tree_nod@V?$_Tmap_traits@KPAVCGuildHouseBase@@U?$less@K@std@@V?$allocator@U?$pair@$$CBKPAVCGuildHouseBase@@@std@@@3@$0A@@std@@@2@PAU342@00ABU?$pair@$$CBKPAVCGuildHouseBase@@@2@D@Z
_TEXT	SEGMENT PARA USE32 PUBLIC 'CODE'
_TEXT	ENDS
;	COMDAT ??0?$_Tree_val@V?$_Tmap_traits@KPAVCGuildHouseBase@@U?$less@K@std@@V?$allocator@U?$pair@$$CBKPAVCGuildHouseBase@@@std@@@3@$0A@@std@@@std@@IAE@ABU?$less@K@1@V?$allocator@U?$pair@$$CBKPAVCGuildHouseBase@@@std@@@1@@Z
_TEXT	SEGMENT PARA USE32 PUBLIC 'CODE'
_TEXT	ENDS
;	COMDAT ??0?$allocator@U?$pair@$$CBKPAVCGuildHouseBase@@@std@@@std@@QAE@ABV01@@Z
_TEXT	SEGMENT PARA USE32 PUBLIC 'CODE'
_TEXT	ENDS
;	COMDAT ?destroy@?$allocator@PAU_Node@?$_Tree_nod@V?$_Tmap_traits@KPAVCGuildHouseBase@@U?$less@K@std@@V?$allocator@U?$pair@$$CBKPAVCGuildHouseBase@@@std@@@3@$0A@@std@@@std@@@std@@QAEXPAPAU_Node@?$_Tree_nod@V?$_Tmap_traits@KPAVCGuildHouseBase@@U?$less@K@std@@V?$allocator@U?$pair@$$CBKPAVCGuildHouseBase@@@std@@@3@$0A@@std@@@2@@Z
_TEXT	SEGMENT PARA USE32 PUBLIC 'CODE'
_TEXT	ENDS
;	COMDAT ??0const_iterator@?$_Tree@V?$_Tmap_traits@KPAVCGuildHouseBase@@U?$less@K@std@@V?$allocator@U?$pair@$$CBKPAVCGuildHouseBase@@@std@@@3@$0A@@std@@@std@@QAE@PAU_Node@?$_Tree_nod@V?$_Tmap_traits@KPAVCGuildHouseBase@@U?$less@K@std@@V?$allocator@U?$pair@$$CBKPAVCGuildHouseBase@@@std@@@3@$0A@@std@@@2@@Z
_TEXT	SEGMENT PARA USE32 PUBLIC 'CODE'
_TEXT	ENDS
;	COMDAT ??Dconst_iterator@?$_Tree@V?$_Tmap_traits@KPAVCGuildHouseBase@@U?$less@K@std@@V?$allocator@U?$pair@$$CBKPAVCGuildHouseBase@@@std@@@3@$0A@@std@@@std@@QBEABU?$pair@$$CBKPAVCGuildHouseBase@@@2@XZ
_TEXT	SEGMENT PARA USE32 PUBLIC 'CODE'
_TEXT	ENDS
;	COMDAT ??Econst_iterator@?$_Tree@V?$_Tmap_traits@KPAVCGuildHouseBase@@U?$less@K@std@@V?$allocator@U?$pair@$$CBKPAVCGuildHouseBase@@@std@@@3@$0A@@std@@@std@@QAEAAV012@XZ
_TEXT	SEGMENT PARA USE32 PUBLIC 'CODE'
_TEXT	ENDS
;	COMDAT ??Fconst_iterator@?$_Tree@V?$_Tmap_traits@KPAVCGuildHouseBase@@U?$less@K@std@@V?$allocator@U?$pair@$$CBKPAVCGuildHouseBase@@@std@@@3@$0A@@std@@@std@@QAEAAV012@XZ
_TEXT	SEGMENT PARA USE32 PUBLIC 'CODE'
_TEXT	ENDS
;	COMDAT ??Giterator@?$vector@UGuildHouse_Furniture_Info@CGuildHouseBase@@V?$allocator@UGuildHouse_Furniture_Info@CGuildHouseBase@@@std@@@std@@QBEHABVconst_iterator@12@@Z
_TEXT	SEGMENT PARA USE32 PUBLIC 'CODE'
_TEXT	ENDS
;	COMDAT ??0const_iterator@?$vector@UGuildHouse_Furniture_Info@CGuildHouseBase@@V?$allocator@UGuildHouse_Furniture_Info@CGuildHouseBase@@@std@@@std@@QAE@PAUGuildHouse_Furniture_Info@CGuildHouseBase@@@Z
_TEXT	SEGMENT PARA USE32 PUBLIC 'CODE'
_TEXT	ENDS
;	COMDAT ??Dconst_iterator@?$vector@UGuildHouse_Furniture_Info@CGuildHouseBase@@V?$allocator@UGuildHouse_Furniture_Info@CGuildHouseBase@@@std@@@std@@QBEABUGuildHouse_Furniture_Info@CGuildHouseBase@@XZ
_TEXT	SEGMENT PARA USE32 PUBLIC 'CODE'
_TEXT	ENDS
;	COMDAT ?max_size@?$allocator@UGuildHouse_Furniture_Info@CGuildHouseBase@@@std@@QBEIXZ
_TEXT	SEGMENT PARA USE32 PUBLIC 'CODE'
_TEXT	ENDS
;	COMDAT ?_Root@?$_Tree@V?$_Tmap_traits@KPAVCGuildHouseBase@@U?$less@K@std@@V?$allocator@U?$pair@$$CBKPAVCGuildHouseBase@@@std@@@3@$0A@@std@@@std@@IBEAAPAU_Node@?$_Tree_nod@V?$_Tmap_traits@KPAVCGuildHouseBase@@U?$less@K@std@@V?$allocator@U?$pair@$$CBKPAVCGuildHouseBase@@@std@@@3@$0A@@std@@@2@XZ
_TEXT	SEGMENT PARA USE32 PUBLIC 'CODE'
_TEXT	ENDS
;	COMDAT ?_Buynode@?$_Tree@V?$_Tmap_traits@KPAVCGuildHouseBase@@U?$less@K@std@@V?$allocator@U?$pair@$$CBKPAVCGuildHouseBase@@@std@@@3@$0A@@std@@@std@@IAEPAU_Node@?$_Tree_nod@V?$_Tmap_traits@KPAVCGuildHouseBase@@U?$less@K@std@@V?$allocator@U?$pair@$$CBKPAVCGuildHouseBase@@@std@@@3@$0A@@std@@@2@XZ
_TEXT	SEGMENT PARA USE32 PUBLIC 'CODE'
_TEXT	ENDS
;	COMDAT ??0?$_Tree_ptr@V?$_Tmap_traits@KPAVCGuildHouseBase@@U?$less@K@std@@V?$allocator@U?$pair@$$CBKPAVCGuildHouseBase@@@std@@@3@$0A@@std@@@std@@IAE@ABU?$less@K@1@V?$allocator@U?$pair@$$CBKPAVCGuildHouseBase@@@std@@@1@@Z
_TEXT	SEGMENT PARA USE32 PUBLIC 'CODE'
_TEXT	ENDS
;	COMDAT ?max_size@?$allocator@U?$pair@$$CBKPAVCGuildHouseBase@@@std@@@std@@QBEIXZ
_TEXT	SEGMENT PARA USE32 PUBLIC 'CODE'
_TEXT	ENDS
;	COMDAT ?allocate@?$allocator@U_Node@?$_Tree_nod@V?$_Tmap_traits@KPAVCGuildHouseBase@@U?$less@K@std@@V?$allocator@U?$pair@$$CBKPAVCGuildHouseBase@@@std@@@3@$0A@@std@@@std@@@std@@QAEPAU_Node@?$_Tree_nod@V?$_Tmap_traits@KPAVCGuildHouseBase@@U?$less@K@std@@V?$allocator@U?$pair@$$CBKPAVCGuildHouseBase@@@std@@@3@$0A@@std@@@2@I@Z
_TEXT	SEGMENT PARA USE32 PUBLIC 'CODE'
_TEXT	ENDS
;	COMDAT ?_Dec@const_iterator@?$_Tree@V?$_Tmap_traits@KPAVCGuildHouseBase@@U?$less@K@std@@V?$allocator@U?$pair@$$CBKPAVCGuildHouseBase@@@std@@@3@$0A@@std@@@std@@QAEXXZ
_TEXT	SEGMENT PARA USE32 PUBLIC 'CODE'
_TEXT	ENDS
;	COMDAT ?_Inc@const_iterator@?$_Tree@V?$_Tmap_traits@KPAVCGuildHouseBase@@U?$less@K@std@@V?$allocator@U?$pair@$$CBKPAVCGuildHouseBase@@@std@@@3@$0A@@std@@@std@@QAEXXZ
_TEXT	SEGMENT PARA USE32 PUBLIC 'CODE'
_TEXT	ENDS
;	COMDAT ??Gconst_iterator@?$vector@UGuildHouse_Furniture_Info@CGuildHouseBase@@V?$allocator@UGuildHouse_Furniture_Info@CGuildHouseBase@@@std@@@std@@QBEHABV012@@Z
_TEXT	SEGMENT PARA USE32 PUBLIC 'CODE'
_TEXT	ENDS
;	COMDAT ??9const_iterator@?$vector@UGuildHouse_Furniture_Info@CGuildHouseBase@@V?$allocator@UGuildHouse_Furniture_Info@CGuildHouseBase@@@std@@@std@@QBE_NABV012@@Z
_TEXT	SEGMENT PARA USE32 PUBLIC 'CODE'
_TEXT	ENDS
;	COMDAT ??0_Node@?$_Tree_nod@V?$_Tmap_traits@KPAVCGuildHouseBase@@U?$less@K@std@@V?$allocator@U?$pair@$$CBKPAVCGuildHouseBase@@@std@@@3@$0A@@std@@@std@@QAE@PAU012@00ABU?$pair@$$CBKPAVCGuildHouseBase@@@2@D@Z
_TEXT	SEGMENT PARA USE32 PUBLIC 'CODE'
_TEXT	ENDS
;	COMDAT ??0?$_Tree_nod@V?$_Tmap_traits@KPAVCGuildHouseBase@@U?$less@K@std@@V?$allocator@U?$pair@$$CBKPAVCGuildHouseBase@@@std@@@3@$0A@@std@@@std@@IAE@ABU?$less@K@1@V?$allocator@U?$pair@$$CBKPAVCGuildHouseBase@@@std@@@1@@Z
_TEXT	SEGMENT PARA USE32 PUBLIC 'CODE'
_TEXT	ENDS
;	COMDAT ?construct@?$allocator@PAU_Node@?$_Tree_nod@V?$_Tmap_traits@KPAVCGuildHouseBase@@U?$less@K@std@@V?$allocator@U?$pair@$$CBKPAVCGuildHouseBase@@@std@@@3@$0A@@std@@@std@@@std@@QAEXPAPAU_Node@?$_Tree_nod@V?$_Tmap_traits@KPAVCGuildHouseBase@@U?$less@K@std@@V?$allocator@U?$pair@$$CBKPAVCGuildHouseBase@@@std@@@3@$0A@@std@@@2@ABQAU342@@Z
_TEXT	SEGMENT PARA USE32 PUBLIC 'CODE'
_TEXT	ENDS
;	COMDAT ??8const_iterator@?$vector@UGuildHouse_Furniture_Info@CGuildHouseBase@@V?$allocator@UGuildHouse_Furniture_Info@CGuildHouseBase@@@std@@@std@@QBE_NABV012@@Z
_TEXT	SEGMENT PARA USE32 PUBLIC 'CODE'
_TEXT	ENDS
;	COMDAT ??0?$_Tmap_traits@KPAVCGuildHouseBase@@U?$less@K@std@@V?$allocator@U?$pair@$$CBKPAVCGuildHouseBase@@@std@@@3@$0A@@std@@QAE@U?$less@K@1@@Z
_TEXT	SEGMENT PARA USE32 PUBLIC 'CODE'
_TEXT	ENDS
;	COMDAT ??$_Iter_cat@Viterator@?$_Tree@V?$_Tmap_traits@KU_Friend@@U?$less@K@std@@V?$allocator@U?$pair@$$CBKU_Friend@@@std@@@3@$0A@@std@@@std@@@std@@YA?AUbidirectional_iterator_tag@0@ABViterator@?$_Tree@V?$_Tmap_traits@KU_Friend@@U?$less@K@std@@V?$allocator@U?$pair@$$CBKU_Friend@@@std@@@3@$0A@@std@@@0@@Z
_TEXT	SEGMENT PARA USE32 PUBLIC 'CODE'
_TEXT	ENDS
;	COMDAT ??$_Distance2@Viterator@?$_Tree@V?$_Tmap_traits@KU_Friend@@U?$less@K@std@@V?$allocator@U?$pair@$$CBKU_Friend@@@std@@@3@$0A@@std@@@std@@I@std@@YAXViterator@?$_Tree@V?$_Tmap_traits@KU_Friend@@U?$less@K@std@@V?$allocator@U?$pair@$$CBKU_Friend@@@std@@@3@$0A@@std@@@0@0AAIUbidirectional_iterator_tag@0@@Z
_TEXT	SEGMENT PARA USE32 PUBLIC 'CODE'
_TEXT	ENDS
;	COMDAT ??$_Copy_opt@PAJPAJ@std@@YAPAJPAJ00U_Scalar_ptr_iterator_tag@0@@Z
_TEXT	SEGMENT PARA USE32 PUBLIC 'CODE'
_TEXT	ENDS
;	COMDAT ??$_Uninitialized_copy@PAJPAJV?$allocator@J@std@@@std@@YAPAJPAJ00AAV?$allocator@J@0@@Z
_TEXT	SEGMENT PARA USE32 PUBLIC 'CODE'
_TEXT	ENDS
;	COMDAT ??$_Copy_backward_opt@PAJPAJ@std@@YAPAJPAJ00U_Scalar_ptr_iterator_tag@0@@Z
_TEXT	SEGMENT PARA USE32 PUBLIC 'CODE'
_TEXT	ENDS
;	COMDAT ??$_Ptr_cat@PAUtagDROPITEM@@PAU1@@std@@YA?AU_Nonscalar_ptr_iterator_tag@0@AAPAUtagDROPITEM@@0@Z
_TEXT	SEGMENT PARA USE32 PUBLIC 'CODE'
_TEXT	ENDS
;	COMDAT ??$_Destroy_range@UtagDROPITEM@@V?$allocator@UtagDROPITEM@@@std@@@std@@YAXPAUtagDROPITEM@@0AAV?$allocator@UtagDROPITEM@@@0@U_Nonscalar_ptr_iterator_tag@0@@Z
_TEXT	SEGMENT PARA USE32 PUBLIC 'CODE'
_TEXT	ENDS
;	COMDAT ??$_Destroy_range@KV?$allocator@K@std@@@std@@YAXPAK0AAV?$allocator@K@0@U_Scalar_ptr_iterator_tag@0@@Z
_TEXT	SEGMENT PARA USE32 PUBLIC 'CODE'
_TEXT	ENDS
;	COMDAT ??$_Destroy_range@JV?$allocator@J@std@@@std@@YAXPAJ0AAV?$allocator@J@0@U_Scalar_ptr_iterator_tag@0@@Z
_TEXT	SEGMENT PARA USE32 PUBLIC 'CODE'
_TEXT	ENDS
;	COMDAT ??$_Uninit_fill_n@JIJ@std@@YAXPAJIABJAAV?$allocator@J@0@U_Scalar_ptr_iterator_tag@0@@Z
_TEXT	SEGMENT PARA USE32 PUBLIC 'CODE'
_TEXT	ENDS
;	COMDAT ??$make_pair@KPAVCGuildHouseBase@@@std@@YA?AU?$pair@KPAVCGuildHouseBase@@@0@KPAVCGuildHouseBase@@@Z
_TEXT	SEGMENT PARA USE32 PUBLIC 'CODE'
_TEXT	ENDS
;	COMDAT ??$?0KPAVCGuildHouseBase@@@?$pair@$$CBKPAVCGuildHouseBase@@@std@@QAE@ABU?$pair@KPAVCGuildHouseBase@@@1@@Z
_TEXT	SEGMENT PARA USE32 PUBLIC 'CODE'
_TEXT	ENDS
;	COMDAT ??$copy@PAUGuildHouse_Furniture_Info@CGuildHouseBase@@PAU12@@std@@YAPAUGuildHouse_Furniture_Info@CGuildHouseBase@@PAU12@00@Z
_TEXT	SEGMENT PARA USE32 PUBLIC 'CODE'
_TEXT	ENDS
;	COMDAT ??$_Destroy_range@UGuildHouse_Furniture_Info@CGuildHouseBase@@V?$allocator@UGuildHouse_Furniture_Info@CGuildHouseBase@@@std@@@std@@YAXPAUGuildHouse_Furniture_Info@CGuildHouseBase@@0AAV?$allocator@UGuildHouse_Furniture_Info@CGuildHouseBase@@@0@@Z
_TEXT	SEGMENT PARA USE32 PUBLIC 'CODE'
_TEXT	ENDS
;	COMDAT ??$_Uninitialized_fill_n@PAUGuildHouse_Furniture_Info@CGuildHouseBase@@IU12@V?$allocator@UGuildHouse_Furniture_Info@CGuildHouseBase@@@std@@@std@@YAXPAUGuildHouse_Furniture_Info@CGuildHouseBase@@IABU12@AAV?$allocator@UGuildHouse_Furniture_Info@CGuildHouseBase@@@0@@Z
_TEXT	SEGMENT PARA USE32 PUBLIC 'CODE'
_TEXT	ENDS
;	COMDAT ??$_Destroy@U_Node@?$_Tree_nod@V?$_Tmap_traits@KPAVCGuildHouseBase@@U?$less@K@std@@V?$allocator@U?$pair@$$CBKPAVCGuildHouseBase@@@std@@@3@$0A@@std@@@std@@@std@@YAXPAU_Node@?$_Tree_nod@V?$_Tmap_traits@KPAVCGuildHouseBase@@U?$less@K@std@@V?$allocator@U?$pair@$$CBKPAVCGuildHouseBase@@@std@@@3@$0A@@std@@@0@@Z
_TEXT	SEGMENT PARA USE32 PUBLIC 'CODE'
_TEXT	ENDS
;	COMDAT ??$_Ucopy@PAUGuildHouse_Furniture_Info@CGuildHouseBase@@@?$vector@UGuildHouse_Furniture_Info@CGuildHouseBase@@V?$allocator@UGuildHouse_Furniture_Info@CGuildHouseBase@@@std@@@std@@IAEPAUGuildHouse_Furniture_Info@CGuildHouseBase@@PAU23@00@Z
_TEXT	SEGMENT PARA USE32 PUBLIC 'CODE'
_TEXT	ENDS
;	COMDAT ??$fill@PAUGuildHouse_Furniture_Info@CGuildHouseBase@@U12@@std@@YAXPAUGuildHouse_Furniture_Info@CGuildHouseBase@@0ABU12@@Z
_TEXT	SEGMENT PARA USE32 PUBLIC 'CODE'
_TEXT	ENDS
;	COMDAT ??$copy_backward@PAUGuildHouse_Furniture_Info@CGuildHouseBase@@PAU12@@std@@YAPAUGuildHouse_Furniture_Info@CGuildHouseBase@@PAU12@00@Z
_TEXT	SEGMENT PARA USE32 PUBLIC 'CODE'
_TEXT	ENDS
;	COMDAT ??$_Allocate@UGuildHouse_Furniture_Info@CGuildHouseBase@@@std@@YAPAUGuildHouse_Furniture_Info@CGuildHouseBase@@IPAU12@@Z
_TEXT	SEGMENT PARA USE32 PUBLIC 'CODE'
_TEXT	ENDS
;	COMDAT ??$_Destroy@PAU_Node@?$_Tree_nod@V?$_Tmap_traits@KPAVCGuildHouseBase@@U?$less@K@std@@V?$allocator@U?$pair@$$CBKPAVCGuildHouseBase@@@std@@@3@$0A@@std@@@std@@@std@@YAXPAPAU_Node@?$_Tree_nod@V?$_Tmap_traits@KPAVCGuildHouseBase@@U?$less@K@std@@V?$allocator@U?$pair@$$CBKPAVCGuildHouseBase@@@std@@@3@$0A@@std@@@0@@Z
_TEXT	SEGMENT PARA USE32 PUBLIC 'CODE'
_TEXT	ENDS
;	COMDAT ??$?0U?$pair@$$CBKPAVCGuildHouseBase@@@std@@@?$allocator@PAU_Node@?$_Tree_nod@V?$_Tmap_traits@KPAVCGuildHouseBase@@U?$less@K@std@@V?$allocator@U?$pair@$$CBKPAVCGuildHouseBase@@@std@@@3@$0A@@std@@@std@@@std@@QAE@ABV?$allocator@U?$pair@$$CBKPAVCGuildHouseBase@@@std@@@1@@Z
_TEXT	SEGMENT PARA USE32 PUBLIC 'CODE'
_TEXT	ENDS
;	COMDAT ??$_Allocate@U_Node@?$_Tree_nod@V?$_Tmap_traits@KPAVCGuildHouseBase@@U?$less@K@std@@V?$allocator@U?$pair@$$CBKPAVCGuildHouseBase@@@std@@@3@$0A@@std@@@std@@@std@@YAPAU_Node@?$_Tree_nod@V?$_Tmap_traits@KPAVCGuildHouseBase@@U?$less@K@std@@V?$allocator@U?$pair@$$CBKPAVCGuildHouseBase@@@std@@@3@$0A@@std@@@0@IPAU120@@Z
_TEXT	SEGMENT PARA USE32 PUBLIC 'CODE'
_TEXT	ENDS
;	COMDAT ??$?0U?$pair@$$CBKPAVCGuildHouseBase@@@std@@@?$allocator@U_Node@?$_Tree_nod@V?$_Tmap_traits@KPAVCGuildHouseBase@@U?$less@K@std@@V?$allocator@U?$pair@$$CBKPAVCGuildHouseBase@@@std@@@3@$0A@@std@@@std@@@std@@QAE@ABV?$allocator@U?$pair@$$CBKPAVCGuildHouseBase@@@std@@@1@@Z
_TEXT	SEGMENT PARA USE32 PUBLIC 'CODE'
_TEXT	ENDS
;	COMDAT ??$_Construct@PAU_Node@?$_Tree_nod@V?$_Tmap_traits@KPAVCGuildHouseBase@@U?$less@K@std@@V?$allocator@U?$pair@$$CBKPAVCGuildHouseBase@@@std@@@3@$0A@@std@@@std@@PAU123@@std@@YAXPAPAU_Node@?$_Tree_nod@V?$_Tmap_traits@KPAVCGuildHouseBase@@U?$less@K@std@@V?$allocator@U?$pair@$$CBKPAVCGuildHouseBase@@@std@@@3@$0A@@std@@@0@ABQAU120@@Z
_TEXT	SEGMENT PARA USE32 PUBLIC 'CODE'
_TEXT	ENDS
;	COMDAT ?destroy@?$allocator@UtagDROPITEM@@@std@@QAEXPAUtagDROPITEM@@@Z
_TEXT	SEGMENT PARA USE32 PUBLIC 'CODE'
_TEXT	ENDS
;	COMDAT ??0?$pair@KPAVCGuildHouseBase@@@std@@QAE@ABKABQAVCGuildHouseBase@@@Z
_TEXT	SEGMENT PARA USE32 PUBLIC 'CODE'
_TEXT	ENDS
;	COMDAT ??$_Uninit_copy@JJ@std@@YAPAJPAJ00AAV?$allocator@J@0@U_Scalar_ptr_iterator_tag@0@@Z
_TEXT	SEGMENT PARA USE32 PUBLIC 'CODE'
_TEXT	ENDS
;	COMDAT ??$fill_n@PAJIJ@std@@YAXPAJIABJ@Z
_TEXT	SEGMENT PARA USE32 PUBLIC 'CODE'
_TEXT	ENDS
;	COMDAT ??$_Ptr_cat@PAUGuildHouse_Furniture_Info@CGuildHouseBase@@PAU12@@std@@YA?AU_Nonscalar_ptr_iterator_tag@0@AAPAUGuildHouse_Furniture_Info@CGuildHouseBase@@0@Z
_TEXT	SEGMENT PARA USE32 PUBLIC 'CODE'
_TEXT	ENDS
;	COMDAT ??$_Copy_opt@PAUGuildHouse_Furniture_Info@CGuildHouseBase@@PAU12@@std@@YAPAUGuildHouse_Furniture_Info@CGuildHouseBase@@PAU12@00U_Nonscalar_ptr_iterator_tag@0@@Z
_TEXT	SEGMENT PARA USE32 PUBLIC 'CODE'
_TEXT	ENDS
;	COMDAT ??$_Destroy_range@UGuildHouse_Furniture_Info@CGuildHouseBase@@V?$allocator@UGuildHouse_Furniture_Info@CGuildHouseBase@@@std@@@std@@YAXPAUGuildHouse_Furniture_Info@CGuildHouseBase@@0AAV?$allocator@UGuildHouse_Furniture_Info@CGuildHouseBase@@@0@U_Nonscalar_ptr_iterator_tag@0@@Z
_TEXT	SEGMENT PARA USE32 PUBLIC 'CODE'
_TEXT	ENDS
;	COMDAT ??$_Uninit_fill_n@PAUGuildHouse_Furniture_Info@CGuildHouseBase@@IU12@V?$allocator@UGuildHouse_Furniture_Info@CGuildHouseBase@@@std@@@std@@YAXPAUGuildHouse_Furniture_Info@CGuildHouseBase@@IABU12@AAV?$allocator@UGuildHouse_Furniture_Info@CGuildHouseBase@@@0@U_Nonscalar_ptr_iterator_tag@0@@Z
_TEXT	SEGMENT PARA USE32 PUBLIC 'CODE'
_TEXT	ENDS
;	COMDAT ??$_Uninitialized_copy@PAUGuildHouse_Furniture_Info@CGuildHouseBase@@PAU12@V?$allocator@UGuildHouse_Furniture_Info@CGuildHouseBase@@@std@@@std@@YAPAUGuildHouse_Furniture_Info@CGuildHouseBase@@PAU12@00AAV?$allocator@UGuildHouse_Furniture_Info@CGuildHouseBase@@@0@@Z
_TEXT	SEGMENT PARA USE32 PUBLIC 'CODE'
_TEXT	ENDS
;	COMDAT ??$_Copy_backward_opt@PAUGuildHouse_Furniture_Info@CGuildHouseBase@@PAU12@@std@@YAPAUGuildHouse_Furniture_Info@CGuildHouseBase@@PAU12@00U_Nonscalar_ptr_iterator_tag@0@@Z
_TEXT	SEGMENT PARA USE32 PUBLIC 'CODE'
_TEXT	ENDS
;	COMDAT ??$_Destroy@UtagDROPITEM@@@std@@YAXPAUtagDROPITEM@@@Z
_TEXT	SEGMENT PARA USE32 PUBLIC 'CODE'
_TEXT	ENDS
;	COMDAT ?construct@?$allocator@UGuildHouse_Furniture_Info@CGuildHouseBase@@@std@@QAEXPAUGuildHouse_Furniture_Info@CGuildHouseBase@@ABU34@@Z
_TEXT	SEGMENT PARA USE32 PUBLIC 'CODE'
_TEXT	ENDS
;	COMDAT ?destroy@?$allocator@UGuildHouse_Furniture_Info@CGuildHouseBase@@@std@@QAEXPAUGuildHouse_Furniture_Info@CGuildHouseBase@@@Z
_TEXT	SEGMENT PARA USE32 PUBLIC 'CODE'
_TEXT	ENDS
;	COMDAT ??$_Uninit_copy@PAUGuildHouse_Furniture_Info@CGuildHouseBase@@PAU12@V?$allocator@UGuildHouse_Furniture_Info@CGuildHouseBase@@@std@@@std@@YAPAUGuildHouse_Furniture_Info@CGuildHouseBase@@PAU12@00AAV?$allocator@UGuildHouse_Furniture_Info@CGuildHouseBase@@@0@U_Nonscalar_ptr_iterator_tag@0@@Z
_TEXT	SEGMENT PARA USE32 PUBLIC 'CODE'
_TEXT	ENDS
;	COMDAT ??$_Construct@UGuildHouse_Furniture_Info@CGuildHouseBase@@U12@@std@@YAXPAUGuildHouse_Furniture_Info@CGuildHouseBase@@ABU12@@Z
_TEXT	SEGMENT PARA USE32 PUBLIC 'CODE'
_TEXT	ENDS
;	COMDAT ??$_Destroy@UGuildHouse_Furniture_Info@CGuildHouseBase@@@std@@YAXPAUGuildHouse_Furniture_Info@CGuildHouseBase@@@Z
_TEXT	SEGMENT PARA USE32 PUBLIC 'CODE'
_TEXT	ENDS
;	COMDAT ?_Ptr_cat@std@@YA?AU_Scalar_ptr_iterator_tag@1@PAJ0@Z
_TEXT	SEGMENT PARA USE32 PUBLIC 'CODE'
_TEXT	ENDS
;	COMDAT ??9const_iterator@?$_Tree@V?$_Tmap_traits@KU_Friend@@U?$less@K@std@@V?$allocator@U?$pair@$$CBKU_Friend@@@std@@@3@$0A@@std@@@std@@QBE_NABV012@@Z
_TEXT	SEGMENT PARA USE32 PUBLIC 'CODE'
_TEXT	ENDS
;	COMDAT ??8const_iterator@?$_Tree@V?$_Tmap_traits@KU_Friend@@U?$less@K@std@@V?$allocator@U?$pair@$$CBKU_Friend@@@std@@@3@$0A@@std@@@std@@QBE_NABV012@@Z
_TEXT	SEGMENT PARA USE32 PUBLIC 'CODE'
_TEXT	ENDS
;	COMDAT ??Eiterator@?$_Tree@V?$_Tmap_traits@KU_Friend@@U?$less@K@std@@V?$allocator@U?$pair@$$CBKU_Friend@@@std@@@3@$0A@@std@@@std@@QAEAAV012@XZ
_TEXT	SEGMENT PARA USE32 PUBLIC 'CODE'
_TEXT	ENDS
;	COMDAT ??Econst_iterator@?$_Tree@V?$_Tmap_traits@KU_Friend@@U?$less@K@std@@V?$allocator@U?$pair@$$CBKU_Friend@@@std@@@3@$0A@@std@@@std@@QAEAAV012@XZ
_TEXT	SEGMENT PARA USE32 PUBLIC 'CODE'
_TEXT	ENDS
;	COMDAT ?_Inc@const_iterator@?$_Tree@V?$_Tmap_traits@KU_Friend@@U?$less@K@std@@V?$allocator@U?$pair@$$CBKU_Friend@@@std@@@3@$0A@@std@@@std@@QAEXXZ
_TEXT	SEGMENT PARA USE32 PUBLIC 'CODE'
_TEXT	ENDS
;	COMDAT ?_Min@?$_Tree@V?$_Tmap_traits@KU_Friend@@U?$less@K@std@@V?$allocator@U?$pair@$$CBKU_Friend@@@std@@@3@$0A@@std@@@std@@KAPAU_Node@?$_Tree_nod@V?$_Tmap_traits@KU_Friend@@U?$less@K@std@@V?$allocator@U?$pair@$$CBKU_Friend@@@std@@@3@$0A@@std@@@2@PAU342@@Z
_TEXT	SEGMENT PARA USE32 PUBLIC 'CODE'
_TEXT	ENDS
;	COMDAT ?_Left@?$_Tree@V?$_Tmap_traits@KU_Friend@@U?$less@K@std@@V?$allocator@U?$pair@$$CBKU_Friend@@@std@@@3@$0A@@std@@@std@@KAAAPAU_Node@?$_Tree_nod@V?$_Tmap_traits@KU_Friend@@U?$less@K@std@@V?$allocator@U?$pair@$$CBKU_Friend@@@std@@@3@$0A@@std@@@2@PAU342@@Z
_TEXT	SEGMENT PARA USE32 PUBLIC 'CODE'
_TEXT	ENDS
;	COMDAT ?_Isnil@?$_Tree@V?$_Tmap_traits@KU_Friend@@U?$less@K@std@@V?$allocator@U?$pair@$$CBKU_Friend@@@std@@@3@$0A@@std@@@std@@KAAADPAU_Node@?$_Tree_nod@V?$_Tmap_traits@KU_Friend@@U?$less@K@std@@V?$allocator@U?$pair@$$CBKU_Friend@@@std@@@3@$0A@@std@@@2@@Z
_TEXT	SEGMENT PARA USE32 PUBLIC 'CODE'
_TEXT	ENDS
;	COMDAT ?_Parent@?$_Tree@V?$_Tmap_traits@KU_Friend@@U?$less@K@std@@V?$allocator@U?$pair@$$CBKU_Friend@@@std@@@3@$0A@@std@@@std@@KAAAPAU_Node@?$_Tree_nod@V?$_Tmap_traits@KU_Friend@@U?$less@K@std@@V?$allocator@U?$pair@$$CBKU_Friend@@@std@@@3@$0A@@std@@@2@PAU342@@Z
_TEXT	SEGMENT PARA USE32 PUBLIC 'CODE'
_TEXT	ENDS
;	COMDAT ?_Right@?$_Tree@V?$_Tmap_traits@KU_Friend@@U?$less@K@std@@V?$allocator@U?$pair@$$CBKU_Friend@@@std@@@3@$0A@@std@@@std@@KAAAPAU_Node@?$_Tree_nod@V?$_Tmap_traits@KU_Friend@@U?$less@K@std@@V?$allocator@U?$pair@$$CBKU_Friend@@@std@@@3@$0A@@std@@@2@PAU342@@Z
_TEXT	SEGMENT PARA USE32 PUBLIC 'CODE'
_TEXT	ENDS
;	COMDAT ?_Psave@?$_Facetptr@V?$ctype@G@std@@@std@@2PBVfacet@locale@2@B
_DATA	SEGMENT DWORD USE32 PUBLIC 'DATA'
_DATA	ENDS
;	COMDAT ?_Psave@?$_Facetptr@V?$ctype@D@std@@@std@@2PBVfacet@locale@2@B
_DATA	SEGMENT DWORD USE32 PUBLIC 'DATA'
_DATA	ENDS
;	COMDAT ??3@YAXPAX0@Z
_TEXT	SEGMENT PARA USE32 PUBLIC 'CODE'
_TEXT	ENDS
;	COMDAT ??2@YAPAXIPAX@Z
_TEXT	SEGMENT PARA USE32 PUBLIC 'CODE'
_TEXT	ENDS
;	COMDAT ??_C@_0BD@OLBABOEK@vector?$DMT?$DO?5too?5long?$AA@
CONST	SEGMENT DWORD USE32 PUBLIC 'CONST'
CONST	ENDS
;	COMDAT __TI3?AVlength_error@std@@
xdata$x	SEGMENT DWORD USE32 PUBLIC 'CONST'
xdata$x	ENDS
;	COMDAT ??1length_error@std@@UAE@XZ
_TEXT	SEGMENT PARA USE32 PUBLIC 'CODE'
_TEXT	ENDS
;	COMDAT ??_7length_error@std@@6B@
CONST	SEGMENT DWORD USE32 PUBLIC 'CONST'
CONST	ENDS
;	COMDAT ??_Glength_error@std@@UAEPAXI@Z
_TEXT	SEGMENT PARA USE32 PUBLIC 'CODE'
_TEXT	ENDS
;	COMDAT ?what@logic_error@std@@UBEPBDXZ
_TEXT	SEGMENT PARA USE32 PUBLIC 'CODE'
_TEXT	ENDS
;	COMDAT ?c_str@?$basic_string@DU?$char_traits@D@std@@V?$allocator@D@2@@std@@QBEPBDXZ
_TEXT	SEGMENT PARA USE32 PUBLIC 'CODE'
_TEXT	ENDS
;	COMDAT ??1logic_error@std@@UAE@XZ
_TEXT	SEGMENT PARA USE32 PUBLIC 'CODE'
_TEXT	ENDS
;	COMDAT ??_7logic_error@std@@6B@
CONST	SEGMENT DWORD USE32 PUBLIC 'CONST'
CONST	ENDS
;	COMDAT ??_Glogic_error@std@@UAEPAXI@Z
_TEXT	SEGMENT PARA USE32 PUBLIC 'CODE'
_TEXT	ENDS
;	COMDAT __CTA3?AVlength_error@std@@
xdata$x	SEGMENT DWORD USE32 PUBLIC 'CONST'
xdata$x	ENDS
;	COMDAT __CT??_R0?AVlength_error@std@@@8??0length_error@std@@QAE@ABV01@@Z40
xdata$x	SEGMENT DWORD USE32 PUBLIC 'CONST'
xdata$x	ENDS
;	COMDAT ??_R0?AVlength_error@std@@@8
_DATA	SEGMENT DWORD USE32 PUBLIC 'DATA'
_DATA	ENDS
;	COMDAT ??0length_error@std@@QAE@ABV01@@Z
_TEXT	SEGMENT PARA USE32 PUBLIC 'CODE'
_TEXT	ENDS
;	COMDAT ??0logic_error@std@@QAE@ABV01@@Z
_TEXT	SEGMENT PARA USE32 PUBLIC 'CODE'
_TEXT	ENDS
;	COMDAT ??0?$basic_string@DU?$char_traits@D@std@@V?$allocator@D@2@@std@@QAE@ABV01@@Z
_TEXT	SEGMENT PARA USE32 PUBLIC 'CODE'
_TEXT	ENDS
;	COMDAT ??0?$_String_val@DV?$allocator@D@std@@@std@@IAE@V?$allocator@D@1@@Z
_TEXT	SEGMENT PARA USE32 PUBLIC 'CODE'
_TEXT	ENDS
;	COMDAT ??0?$allocator@D@std@@QAE@ABV01@@Z
_TEXT	SEGMENT PARA USE32 PUBLIC 'CODE'
_TEXT	ENDS
;	COMDAT ?_Tidy@?$basic_string@DU?$char_traits@D@std@@V?$allocator@D@2@@std@@IAEX_NI@Z
_TEXT	SEGMENT PARA USE32 PUBLIC 'CODE'
_TEXT	ENDS
;	COMDAT ?copy@?$char_traits@D@std@@SAPADPADPBDI@Z
_TEXT	SEGMENT PARA USE32 PUBLIC 'CODE'
_TEXT	ENDS
;	COMDAT ?deallocate@?$allocator@D@std@@QAEXPADI@Z
_TEXT	SEGMENT PARA USE32 PUBLIC 'CODE'
_TEXT	ENDS
;	COMDAT ?_Eos@?$basic_string@DU?$char_traits@D@std@@V?$allocator@D@2@@std@@IAEXI@Z
_TEXT	SEGMENT PARA USE32 PUBLIC 'CODE'
_TEXT	ENDS
;	COMDAT ?assign@?$char_traits@D@std@@SAXAADABD@Z
_TEXT	SEGMENT PARA USE32 PUBLIC 'CODE'
_TEXT	ENDS
;	COMDAT ?_Myptr@?$basic_string@DU?$char_traits@D@std@@V?$allocator@D@2@@std@@QAEPADXZ
_TEXT	SEGMENT PARA USE32 PUBLIC 'CODE'
_TEXT	ENDS
;	COMDAT ?assign@?$basic_string@DU?$char_traits@D@std@@V?$allocator@D@2@@std@@QAEAAV12@ABV12@II@Z
_TEXT	SEGMENT PARA USE32 PUBLIC 'CODE'
_TEXT	ENDS
;	COMDAT ?erase@?$basic_string@DU?$char_traits@D@std@@V?$allocator@D@2@@std@@QAEAAV12@II@Z
_TEXT	SEGMENT PARA USE32 PUBLIC 'CODE'
_TEXT	ENDS
;	COMDAT ?move@?$char_traits@D@std@@SAPADPADPBDI@Z
_TEXT	SEGMENT PARA USE32 PUBLIC 'CODE'
_TEXT	ENDS
;	COMDAT ?_Grow@?$basic_string@DU?$char_traits@D@std@@V?$allocator@D@2@@std@@IAE_NI_N@Z
_TEXT	SEGMENT PARA USE32 PUBLIC 'CODE'
_TEXT	ENDS
;	COMDAT ?max_size@?$basic_string@DU?$char_traits@D@std@@V?$allocator@D@2@@std@@QBEIXZ
_TEXT	SEGMENT PARA USE32 PUBLIC 'CODE'
_TEXT	ENDS
;	COMDAT ?max_size@?$allocator@D@std@@QBEIXZ
_TEXT	SEGMENT PARA USE32 PUBLIC 'CODE'
_TEXT	ENDS
;	COMDAT ?_Copy@?$basic_string@DU?$char_traits@D@std@@V?$allocator@D@2@@std@@IAEXII@Z
_TEXT	SEGMENT PARA USE32 PUBLIC 'CODE'
_TEXT	ENDS
;	COMDAT ?allocate@?$allocator@D@std@@QAEPADI@Z
_TEXT	SEGMENT PARA USE32 PUBLIC 'CODE'
_TEXT	ENDS
;	COMDAT ??$_Allocate@D@std@@YAPADIPAD@Z
_TEXT	SEGMENT PARA USE32 PUBLIC 'CODE'
_TEXT	ENDS
;	COMDAT ?npos@?$basic_string@DU?$char_traits@D@std@@V?$allocator@D@2@@std@@2IB
CONST	SEGMENT DWORD USE32 PUBLIC 'CONST'
CONST	ENDS
;	COMDAT __CT??_R0?AVlogic_error@std@@@8??0logic_error@std@@QAE@ABV01@@Z40
xdata$x	SEGMENT DWORD USE32 PUBLIC 'CONST'
xdata$x	ENDS
;	COMDAT ??_R0?AVlogic_error@std@@@8
_DATA	SEGMENT DWORD USE32 PUBLIC 'DATA'
_DATA	ENDS
;	COMDAT __CT??_R0?AVexception@@@8??0exception@@QAE@ABV0@@Z12
xdata$x	SEGMENT DWORD USE32 PUBLIC 'CONST'
xdata$x	ENDS
;	COMDAT ??_R0?AVexception@@@8
_DATA	SEGMENT DWORD USE32 PUBLIC 'DATA'
_DATA	ENDS
;	COMDAT ??_C@_0BE@JONHPENG@map?1set?$DMT?$DO?5too?5long?$AA@
CONST	SEGMENT DWORD USE32 PUBLIC 'CONST'
CONST	ENDS
;	COMDAT ??0length_error@std@@QAE@ABV?$basic_string@DU?$char_traits@D@std@@V?$allocator@D@2@@1@@Z
_TEXT	SEGMENT PARA USE32 PUBLIC 'CODE'
_TEXT	ENDS
;	COMDAT ??0logic_error@std@@QAE@ABV?$basic_string@DU?$char_traits@D@std@@V?$allocator@D@2@@1@@Z
_TEXT	SEGMENT PARA USE32 PUBLIC 'CODE'
_TEXT	ENDS
;	COMDAT ?compare@?$char_traits@D@std@@SAHPBD0I@Z
_TEXT	SEGMENT PARA USE32 PUBLIC 'CODE'
_TEXT	ENDS
;	COMDAT ??$swap@D@std@@YAXAAD0@Z
_TEXT	SEGMENT PARA USE32 PUBLIC 'CODE'
_TEXT	ENDS
;	COMDAT __TI3?AVout_of_range@std@@
xdata$x	SEGMENT DWORD USE32 PUBLIC 'CONST'
xdata$x	ENDS
;	COMDAT ??1out_of_range@std@@UAE@XZ
_TEXT	SEGMENT PARA USE32 PUBLIC 'CODE'
_TEXT	ENDS
;	COMDAT ??_7out_of_range@std@@6B@
CONST	SEGMENT DWORD USE32 PUBLIC 'CONST'
CONST	ENDS
;	COMDAT ??_Gout_of_range@std@@UAEPAXI@Z
_TEXT	SEGMENT PARA USE32 PUBLIC 'CODE'
_TEXT	ENDS
;	COMDAT __CTA3?AVout_of_range@std@@
xdata$x	SEGMENT DWORD USE32 PUBLIC 'CONST'
xdata$x	ENDS
;	COMDAT __CT??_R0?AVout_of_range@std@@@8??0out_of_range@std@@QAE@ABV01@@Z40
xdata$x	SEGMENT DWORD USE32 PUBLIC 'CONST'
xdata$x	ENDS
;	COMDAT ??_R0?AVout_of_range@std@@@8
_DATA	SEGMENT DWORD USE32 PUBLIC 'DATA'
_DATA	ENDS
;	COMDAT ??0out_of_range@std@@QAE@ABV01@@Z
_TEXT	SEGMENT PARA USE32 PUBLIC 'CODE'
_TEXT	ENDS
;	COMDAT ??1?$basic_string@DU?$char_traits@D@std@@V?$allocator@D@2@@std@@QAE@XZ
_TEXT	SEGMENT PARA USE32 PUBLIC 'CODE'
_TEXT	ENDS
;	COMDAT ??_C@_0BM@PAPJHAGI@invalid?5map?1set?$DMT?$DO?5iterator?$AA@
CONST	SEGMENT DWORD USE32 PUBLIC 'CONST'
CONST	ENDS
;	COMDAT ??0?$basic_string@DU?$char_traits@D@std@@V?$allocator@D@2@@std@@QAE@PBD@Z
_TEXT	SEGMENT PARA USE32 PUBLIC 'CODE'
_TEXT	ENDS
;	COMDAT ??0?$allocator@D@std@@QAE@XZ
_TEXT	SEGMENT PARA USE32 PUBLIC 'CODE'
_TEXT	ENDS
;	COMDAT ?assign@?$basic_string@DU?$char_traits@D@std@@V?$allocator@D@2@@std@@QAEAAV12@PBD@Z
_TEXT	SEGMENT PARA USE32 PUBLIC 'CODE'
_TEXT	ENDS
;	COMDAT ?assign@?$basic_string@DU?$char_traits@D@std@@V?$allocator@D@2@@std@@QAEAAV12@PBDI@Z
_TEXT	SEGMENT PARA USE32 PUBLIC 'CODE'
_TEXT	ENDS
;	COMDAT ?_Inside@?$basic_string@DU?$char_traits@D@std@@V?$allocator@D@2@@std@@IAE_NPBD@Z
_TEXT	SEGMENT PARA USE32 PUBLIC 'CODE'
_TEXT	ENDS
;	COMDAT ?length@?$char_traits@D@std@@SAIPBD@Z
_TEXT	SEGMENT PARA USE32 PUBLIC 'CODE'
_TEXT	ENDS
;	COMDAT ??0out_of_range@std@@QAE@ABV?$basic_string@DU?$char_traits@D@std@@V?$allocator@D@2@@1@@Z
_TEXT	SEGMENT PARA USE32 PUBLIC 'CODE'
_TEXT	ENDS
;	COMDAT ??R?$less@K@std@@QBE_NABK0@Z
_TEXT	SEGMENT PARA USE32 PUBLIC 'CODE'
_TEXT	ENDS
;	COMDAT ?_Myptr@?$basic_string@DU?$char_traits@D@std@@V?$allocator@D@2@@std@@QBEPBDXZ
_TEXT	SEGMENT PARA USE32 PUBLIC 'CODE'
_TEXT	ENDS
;	COMDAT ?size@?$basic_string@DU?$char_traits@D@std@@V?$allocator@D@2@@std@@QBEIXZ
_TEXT	SEGMENT PARA USE32 PUBLIC 'CODE'
_TEXT	ENDS
;	COMDAT ?sGHM@?1??GetInstance@CGuildHouseMng@@SAPAV2@XZ@4V2@A
_BSS	SEGMENT DWORD USE32 PUBLIC 'BSS'
_BSS	ENDS
;	COMDAT ?$S1@?1??GetInstance@CGuildHouseMng@@SAPAV2@XZ@4IA
_BSS	SEGMENT DWORD USE32 PUBLIC 'BSS'
_BSS	ENDS
;	COMDAT ??_7CGuildHouseMiddle@@6B@
CONST	SEGMENT DWORD USE32 PUBLIC 'CONST'
CONST	ENDS
;	COMDAT ??_7CGuildHouseSmall@@6B@
CONST	SEGMENT DWORD USE32 PUBLIC 'CONST'
CONST	ENDS
;	COMDAT ?GetItemProp@CProject@@QAEPAUItemProp@@H@Z
_TEXT	SEGMENT PARA USE32 PUBLIC 'CODE'
_TEXT	ENDS
;	COMDAT ?GetAt@?$CFixedArray@UItemProp@@@@QAEPAUItemProp@@K@Z
_TEXT	SEGMENT PARA USE32 PUBLIC 'CODE'
_TEXT	ENDS
;	COMDAT ??6CAr@@QAEAAV0@I@Z
_TEXT	SEGMENT PARA USE32 PUBLIC 'CODE'
_TEXT	ENDS
;	COMDAT ??_7CGuildHouseBase@@6B@
CONST	SEGMENT DWORD USE32 PUBLIC 'CONST'
CONST	ENDS
;	COMDAT ??5CAr@@QAEAAV0@AAJ@Z
_TEXT	SEGMENT PARA USE32 PUBLIC 'CODE'
_TEXT	ENDS
;	COMDAT ??5CAr@@QAEAAV0@AAH@Z
_TEXT	SEGMENT PARA USE32 PUBLIC 'CODE'
_TEXT	ENDS
;	COMDAT ??5@YAAAVCAr@@AAV0@AAUD3DXVECTOR3@@@Z
_TEXT	SEGMENT PARA USE32 PUBLIC 'CODE'
_TEXT	ENDS
;	COMDAT ??5CAr@@QAEAAV0@AAM@Z
_TEXT	SEGMENT PARA USE32 PUBLIC 'CODE'
_TEXT	ENDS
;	COMDAT ??5CAr@@QAEAAV0@AAK@Z
_TEXT	SEGMENT PARA USE32 PUBLIC 'CODE'
_TEXT	ENDS
;	COMDAT ??6CAr@@QAEAAV0@J@Z
_TEXT	SEGMENT PARA USE32 PUBLIC 'CODE'
_TEXT	ENDS
;	COMDAT ??6CAr@@QAEAAV0@H@Z
_TEXT	SEGMENT PARA USE32 PUBLIC 'CODE'
_TEXT	ENDS
;	COMDAT ??6@YAAAVCAr@@AAV0@UD3DXVECTOR3@@@Z
_TEXT	SEGMENT PARA USE32 PUBLIC 'CODE'
_TEXT	ENDS
;	COMDAT ??6CAr@@QAEAAV0@M@Z
_TEXT	SEGMENT PARA USE32 PUBLIC 'CODE'
_TEXT	ENDS
;	COMDAT ??6CAr@@QAEAAV0@K@Z
_TEXT	SEGMENT PARA USE32 PUBLIC 'CODE'
_TEXT	ENDS
;	COMDAT ?IsStoring@CAr@@QBEHXZ
_TEXT	SEGMENT PARA USE32 PUBLIC 'CODE'
_TEXT	ENDS
;	COMDAT ?time_null@@YAJXZ
_TEXT	SEGMENT PARA USE32 PUBLIC 'CODE'
_TEXT	ENDS
;	COMDAT ??0D3DXVECTOR3@@QAE@MMM@Z
_TEXT	SEGMENT PARA USE32 PUBLIC 'CODE'
_TEXT	ENDS
sxdata	SEGMENT DWORD USE32 'SXDATA'
sxdata	ENDS
FLAT	GROUP _DATA, CONST, _BSS
	ASSUME	CS: FLAT, DS: FLAT, SS: FLAT
endif

INCLUDELIB LIBCMT
INCLUDELIB OLDNAMES

PUBLIC	?GetType@CGuildHouseBase@@QAEKXZ		; CGuildHouseBase::GetType
; Function compile flags: /Ogty
; File c:\documents and settings\test\mes documents\source\virtuos_v17\build\program\_common\guildhouse.h
;	COMDAT ?GetType@CGuildHouseBase@@QAEKXZ
_TEXT	SEGMENT
?GetType@CGuildHouseBase@@QAEKXZ PROC NEAR		; CGuildHouseBase::GetType, COMDAT
; _this$ = ecx

; 98   : 	DWORD	GetType()	{ return m_dwWorldId; }

  00000	8b 41 08	 mov	 eax, DWORD PTR [ecx+8]
  00003	c3		 ret	 0
?GetType@CGuildHouseBase@@QAEKXZ ENDP			; CGuildHouseBase::GetType
_TEXT	ENDS
PUBLIC	?GetUpkeepTime@CGuildHouseBase@@QAEJXZ		; CGuildHouseBase::GetUpkeepTime
; Function compile flags: /Ogty
;	COMDAT ?GetUpkeepTime@CGuildHouseBase@@QAEJXZ
_TEXT	SEGMENT
?GetUpkeepTime@CGuildHouseBase@@QAEJXZ PROC NEAR	; CGuildHouseBase::GetUpkeepTime, COMDAT
; _this$ = ecx

; 102  : 	time_t	GetUpkeepTime()	{ return m_tUpkeepTime; }

  00000	8b 41 1c	 mov	 eax, DWORD PTR [ecx+28]
  00003	c3		 ret	 0
?GetUpkeepTime@CGuildHouseBase@@QAEJXZ ENDP		; CGuildHouseBase::GetUpkeepTime
_TEXT	ENDS
PUBLIC	?SetUpkeeptime@CGuildHouseBase@@QAEXJ@Z		; CGuildHouseBase::SetUpkeeptime
; Function compile flags: /Ogty
;	COMDAT ?SetUpkeeptime@CGuildHouseBase@@QAEXJ@Z
_TEXT	SEGMENT
_tUpkeepTime$ = 8					; size = 4
?SetUpkeeptime@CGuildHouseBase@@QAEXJ@Z PROC NEAR	; CGuildHouseBase::SetUpkeeptime, COMDAT
; _this$ = ecx

; 103  : 	void	SetUpkeeptime( time_t tUpkeepTime ) { m_tUpkeepTime = tUpkeepTime; }

  00000	8b 44 24 04	 mov	 eax, DWORD PTR _tUpkeepTime$[esp-4]
  00004	89 41 1c	 mov	 DWORD PTR [ecx+28], eax
  00007	c2 04 00	 ret	 4
?SetUpkeeptime@CGuildHouseBase@@QAEXJ@Z ENDP		; CGuildHouseBase::SetUpkeeptime
_TEXT	ENDS
PUBLIC	??2@YAPAXIPAX@Z					; operator new
; Function compile flags: /Ogty
; File c:\program files\microsoft visual studio .net 2003\vc7\include\new.h
;	COMDAT ??2@YAPAXIPAX@Z
_TEXT	SEGMENT
___formal$ = 8						; size = 4
__P$ = 12						; size = 4
??2@YAPAXIPAX@Z PROC NEAR				; operator new, COMDAT

; 109  :         {return (_P); }

  00000	8b 44 24 08	 mov	 eax, DWORD PTR __P$[esp-4]
  00004	c3		 ret	 0
??2@YAPAXIPAX@Z ENDP					; operator new
_TEXT	ENDS
PUBLIC	??3@YAXPAX0@Z					; operator delete
; Function compile flags: /Ogty
;	COMDAT ??3@YAXPAX0@Z
_TEXT	SEGMENT
___formal$ = 8						; size = 4
___formal$ = 12						; size = 4
??3@YAXPAX0@Z PROC NEAR					; operator delete, COMDAT

; 112  :         {return; }

  00000	c3		 ret	 0
??3@YAXPAX0@Z ENDP					; operator delete
_TEXT	ENDS
PUBLIC	?PostRequest@CGuildHouseDBMng@@QAEHHPAEHK@Z	; CGuildHouseDBMng::PostRequest
EXTRN	?PostRequest@CDbController@@QAEHHPAEHK@Z:NEAR	; CDbController::PostRequest
; Function compile flags: /Ogty
; File c:\documents and settings\test\mes documents\source\virtuos_v17\build\program\databaseserver\guildhousedbctrl.h
;	COMDAT ?PostRequest@CGuildHouseDBMng@@QAEHHPAEHK@Z
_TEXT	SEGMENT
_nQuery$ = 8						; size = 4
_lpBuf$ = 12						; size = 4
_nBufSize$ = 16						; size = 4
_dwCompletionKey$ = 20					; size = 4
?PostRequest@CGuildHouseDBMng@@QAEHHPAEHK@Z PROC NEAR	; CGuildHouseDBMng::PostRequest, COMDAT
; _this$ = ecx

; 87   : 	{ return m_GHDBCtrl.PostRequest( nQuery, lpBuf, nBufSize, dwCompletionKey );	}

  00000	e9 00 00 00 00	 jmp	 ?PostRequest@CDbController@@QAEHHPAEHK@Z ; CDbController::PostRequest
?PostRequest@CGuildHouseDBMng@@QAEHHPAEHK@Z ENDP	; CGuildHouseDBMng::PostRequest
_TEXT	ENDS
PUBLIC	?size@?$vector@UGuildHouse_Furniture_Info@CGuildHouseBase@@V?$allocator@UGuildHouse_Furniture_Info@CGuildHouseBase@@@std@@@std@@QBEIXZ ; std::vector<CGuildHouseBase::GuildHouse_Furniture_Info,std::allocator<CGuildHouseBase::GuildHouse_Furniture_Info> >::size
; Function compile flags: /Ogty
; File c:\program files\microsoft visual studio .net 2003\vc7\include\vector
;	COMDAT ?size@?$vector@UGuildHouse_Furniture_Info@CGuildHouseBase@@V?$allocator@UGuildHouse_Furniture_Info@CGuildHouseBase@@@std@@@std@@QBEIXZ
_TEXT	SEGMENT
?size@?$vector@UGuildHouse_Furniture_Info@CGuildHouseBase@@V?$allocator@UGuildHouse_Furniture_Info@CGuildHouseBase@@@std@@@std@@QBEIXZ PROC NEAR ; std::vector<CGuildHouseBase::GuildHouse_Furniture_Info,std::allocator<CGuildHouseBase::GuildHouse_Furniture_Info> >::size, COMDAT
; _this$ = ecx

; 516  : 		return (_Myfirst == 0 ? 0 : _Mylast - _Myfirst);

  00000	8b 41 04	 mov	 eax, DWORD PTR [ecx+4]
  00003	85 c0		 test	 eax, eax
  00005	75 01		 jne	 SHORT $L193934

; 517  : 		}

  00007	c3		 ret	 0
$L193934:

; 516  : 		return (_Myfirst == 0 ? 0 : _Mylast - _Myfirst);

  00008	8b 49 08	 mov	 ecx, DWORD PTR [ecx+8]
  0000b	2b c8		 sub	 ecx, eax
  0000d	b8 39 8e e3 38	 mov	 eax, 954437177		; 38e38e39H
  00012	f7 e9		 imul	 ecx
  00014	c1 fa 03	 sar	 edx, 3
  00017	8b c2		 mov	 eax, edx
  00019	c1 e8 1f	 shr	 eax, 31			; 0000001fH
  0001c	03 c2		 add	 eax, edx

; 517  : 		}

  0001e	c3		 ret	 0
?size@?$vector@UGuildHouse_Furniture_Info@CGuildHouseBase@@V?$allocator@UGuildHouse_Furniture_Info@CGuildHouseBase@@@std@@@std@@QBEIXZ ENDP ; std::vector<CGuildHouseBase::GuildHouse_Furniture_Info,std::allocator<CGuildHouseBase::GuildHouse_Furniture_Info> >::size
_TEXT	ENDS
PUBLIC	?size@?$_Tree@V?$_Tmap_traits@KPAVCGuildHouseBase@@U?$less@K@std@@V?$allocator@U?$pair@$$CBKPAVCGuildHouseBase@@@std@@@3@$0A@@std@@@std@@QBEIXZ ; std::_Tree<std::_Tmap_traits<unsigned long,CGuildHouseBase *,std::less<unsigned long>,std::allocator<std::pair<unsigned long const ,CGuildHouseBase *> >,0> >::size
; Function compile flags: /Ogty
; File c:\program files\microsoft visual studio .net 2003\vc7\include\xtree
;	COMDAT ?size@?$_Tree@V?$_Tmap_traits@KPAVCGuildHouseBase@@U?$less@K@std@@V?$allocator@U?$pair@$$CBKPAVCGuildHouseBase@@@std@@@3@$0A@@std@@@std@@QBEIXZ
_TEXT	SEGMENT
?size@?$_Tree@V?$_Tmap_traits@KPAVCGuildHouseBase@@U?$less@K@std@@V?$allocator@U?$pair@$$CBKPAVCGuildHouseBase@@@std@@@3@$0A@@std@@@std@@QBEIXZ PROC NEAR ; std::_Tree<std::_Tmap_traits<unsigned long,CGuildHouseBase *,std::less<unsigned long>,std::allocator<std::pair<unsigned long const ,CGuildHouseBase *> >,0> >::size, COMDAT
; _this$ = ecx

; 448  : 		return (_Mysize);

  00000	8b 41 08	 mov	 eax, DWORD PTR [ecx+8]

; 449  : 		}

  00003	c3		 ret	 0
?size@?$_Tree@V?$_Tmap_traits@KPAVCGuildHouseBase@@U?$less@K@std@@V?$allocator@U?$pair@$$CBKPAVCGuildHouseBase@@@std@@@3@$0A@@std@@@std@@QBEIXZ ENDP ; std::_Tree<std::_Tmap_traits<unsigned long,CGuildHouseBase *,std::less<unsigned long>,std::allocator<std::pair<unsigned long const ,CGuildHouseBase *> >,0> >::size
_TEXT	ENDS
PUBLIC	??8const_iterator@?$_Tree@V?$_Tmap_traits@KPAVCGuildHouseBase@@U?$less@K@std@@V?$allocator@U?$pair@$$CBKPAVCGuildHouseBase@@@std@@@3@$0A@@std@@@std@@QBE_NABV012@@Z ; std::_Tree<std::_Tmap_traits<unsigned long,CGuildHouseBase *,std::less<unsigned long>,std::allocator<std::pair<unsigned long const ,CGuildHouseBase *> >,0> >::const_iterator::operator==
; Function compile flags: /Ogty
;	COMDAT ??8const_iterator@?$_Tree@V?$_Tmap_traits@KPAVCGuildHouseBase@@U?$less@K@std@@V?$allocator@U?$pair@$$CBKPAVCGuildHouseBase@@@std@@@3@$0A@@std@@@std@@QBE_NABV012@@Z
_TEXT	SEGMENT
__Right$ = 8						; size = 4
??8const_iterator@?$_Tree@V?$_Tmap_traits@KPAVCGuildHouseBase@@U?$less@K@std@@V?$allocator@U?$pair@$$CBKPAVCGuildHouseBase@@@std@@@3@$0A@@std@@@std@@QBE_NABV012@@Z PROC NEAR ; std::_Tree<std::_Tmap_traits<unsigned long,CGuildHouseBase *,std::less<unsigned long>,std::allocator<std::pair<unsigned long const ,CGuildHouseBase *> >,0> >::const_iterator::operator==, COMDAT
; _this$ = ecx

; 241  : 			return (_Ptr == _Right._Ptr);

  00000	8b 01		 mov	 eax, DWORD PTR [ecx]
  00002	8b 4c 24 04	 mov	 ecx, DWORD PTR __Right$[esp-4]
  00006	2b 01		 sub	 eax, DWORD PTR [ecx]
  00008	f7 d8		 neg	 eax
  0000a	1b c0		 sbb	 eax, eax
  0000c	40		 inc	 eax

; 242  : 			}

  0000d	c2 04 00	 ret	 4
??8const_iterator@?$_Tree@V?$_Tmap_traits@KPAVCGuildHouseBase@@U?$less@K@std@@V?$allocator@U?$pair@$$CBKPAVCGuildHouseBase@@@std@@@3@$0A@@std@@@std@@QBE_NABV012@@Z ENDP ; std::_Tree<std::_Tmap_traits<unsigned long,CGuildHouseBase *,std::less<unsigned long>,std::allocator<std::pair<unsigned long const ,CGuildHouseBase *> >,0> >::const_iterator::operator==
_TEXT	ENDS
PUBLIC	??9const_iterator@?$_Tree@V?$_Tmap_traits@KPAVCGuildHouseBase@@U?$less@K@std@@V?$allocator@U?$pair@$$CBKPAVCGuildHouseBase@@@std@@@3@$0A@@std@@@std@@QBE_NABV012@@Z ; std::_Tree<std::_Tmap_traits<unsigned long,CGuildHouseBase *,std::less<unsigned long>,std::allocator<std::pair<unsigned long const ,CGuildHouseBase *> >,0> >::const_iterator::operator!=
; Function compile flags: /Ogty
;	COMDAT ??9const_iterator@?$_Tree@V?$_Tmap_traits@KPAVCGuildHouseBase@@U?$less@K@std@@V?$allocator@U?$pair@$$CBKPAVCGuildHouseBase@@@std@@@3@$0A@@std@@@std@@QBE_NABV012@@Z
_TEXT	SEGMENT
__Right$ = 8						; size = 4
??9const_iterator@?$_Tree@V?$_Tmap_traits@KPAVCGuildHouseBase@@U?$less@K@std@@V?$allocator@U?$pair@$$CBKPAVCGuildHouseBase@@@std@@@3@$0A@@std@@@std@@QBE_NABV012@@Z PROC NEAR ; std::_Tree<std::_Tmap_traits<unsigned long,CGuildHouseBase *,std::less<unsigned long>,std::allocator<std::pair<unsigned long const ,CGuildHouseBase *> >,0> >::const_iterator::operator!=, COMDAT
; _this$ = ecx

; 246  : 			return (!(*this == _Right));

  00000	8b 01		 mov	 eax, DWORD PTR [ecx]
  00002	8b 54 24 04	 mov	 edx, DWORD PTR __Right$[esp-4]
  00006	56		 push	 esi
  00007	8b 32		 mov	 esi, DWORD PTR [edx]
  00009	33 c9		 xor	 ecx, ecx
  0000b	3b c6		 cmp	 eax, esi
  0000d	0f 95 c1	 setne	 cl
  00010	8a c1		 mov	 al, cl
  00012	5e		 pop	 esi

; 247  : 			}

  00013	c2 04 00	 ret	 4
??9const_iterator@?$_Tree@V?$_Tmap_traits@KPAVCGuildHouseBase@@U?$less@K@std@@V?$allocator@U?$pair@$$CBKPAVCGuildHouseBase@@@std@@@3@$0A@@std@@@std@@QBE_NABV012@@Z ENDP ; std::_Tree<std::_Tmap_traits<unsigned long,CGuildHouseBase *,std::less<unsigned long>,std::allocator<std::pair<unsigned long const ,CGuildHouseBase *> >,0> >::const_iterator::operator!=
_TEXT	ENDS
PUBLIC	?capacity@?$vector@UGuildHouse_Furniture_Info@CGuildHouseBase@@V?$allocator@UGuildHouse_Furniture_Info@CGuildHouseBase@@@std@@@std@@QBEIXZ ; std::vector<CGuildHouseBase::GuildHouse_Furniture_Info,std::allocator<CGuildHouseBase::GuildHouse_Furniture_Info> >::capacity
; Function compile flags: /Ogty
; File c:\program files\microsoft visual studio .net 2003\vc7\include\vector
;	COMDAT ?capacity@?$vector@UGuildHouse_Furniture_Info@CGuildHouseBase@@V?$allocator@UGuildHouse_Furniture_Info@CGuildHouseBase@@@std@@@std@@QBEIXZ
_TEXT	SEGMENT
?capacity@?$vector@UGuildHouse_Furniture_Info@CGuildHouseBase@@V?$allocator@UGuildHouse_Furniture_Info@CGuildHouseBase@@@std@@@std@@QBEIXZ PROC NEAR ; std::vector<CGuildHouseBase::GuildHouse_Furniture_Info,std::allocator<CGuildHouseBase::GuildHouse_Furniture_Info> >::capacity, COMDAT
; _this$ = ecx

; 458  : 		return (_Myfirst == 0 ? 0 : _Myend - _Myfirst);

  00000	8b 41 04	 mov	 eax, DWORD PTR [ecx+4]
  00003	85 c0		 test	 eax, eax
  00005	75 01		 jne	 SHORT $L193947

; 459  : 		}

  00007	c3		 ret	 0
$L193947:

; 458  : 		return (_Myfirst == 0 ? 0 : _Myend - _Myfirst);

  00008	8b 49 0c	 mov	 ecx, DWORD PTR [ecx+12]
  0000b	2b c8		 sub	 ecx, eax
  0000d	b8 39 8e e3 38	 mov	 eax, 954437177		; 38e38e39H
  00012	f7 e9		 imul	 ecx
  00014	c1 fa 03	 sar	 edx, 3
  00017	8b c2		 mov	 eax, edx
  00019	c1 e8 1f	 shr	 eax, 31			; 0000001fH
  0001c	03 c2		 add	 eax, edx

; 459  : 		}

  0001e	c3		 ret	 0
?capacity@?$vector@UGuildHouse_Furniture_Info@CGuildHouseBase@@V?$allocator@UGuildHouse_Furniture_Info@CGuildHouseBase@@@std@@@std@@QBEIXZ ENDP ; std::vector<CGuildHouseBase::GuildHouse_Furniture_Info,std::allocator<CGuildHouseBase::GuildHouse_Furniture_Info> >::capacity
_TEXT	ENDS
PUBLIC	??0?$allocator@UGuildHouse_Furniture_Info@CGuildHouseBase@@@std@@QAE@XZ ; std::allocator<CGuildHouseBase::GuildHouse_Furniture_Info>::allocator<CGuildHouseBase::GuildHouse_Furniture_Info>
; Function compile flags: /Ogty
; File c:\program files\microsoft visual studio .net 2003\vc7\include\xmemory
;	COMDAT ??0?$allocator@UGuildHouse_Furniture_Info@CGuildHouseBase@@@std@@QAE@XZ
_TEXT	SEGMENT
??0?$allocator@UGuildHouse_Furniture_Info@CGuildHouseBase@@@std@@QAE@XZ PROC NEAR ; std::allocator<CGuildHouseBase::GuildHouse_Furniture_Info>::allocator<CGuildHouseBase::GuildHouse_Furniture_Info>, COMDAT
; _this$ = ecx

; 111  : 	allocator()

  00000	8b c1		 mov	 eax, ecx

; 112  : 		{	// construct default allocator (do nothing)
; 113  : 		}

  00002	c3		 ret	 0
??0?$allocator@UGuildHouse_Furniture_Info@CGuildHouseBase@@@std@@QAE@XZ ENDP ; std::allocator<CGuildHouseBase::GuildHouse_Furniture_Info>::allocator<CGuildHouseBase::GuildHouse_Furniture_Info>
_TEXT	ENDS
PUBLIC	?_Color@?$_Tree@V?$_Tmap_traits@KPAVCGuildHouseBase@@U?$less@K@std@@V?$allocator@U?$pair@$$CBKPAVCGuildHouseBase@@@std@@@3@$0A@@std@@@std@@KAAADPAU_Node@?$_Tree_nod@V?$_Tmap_traits@KPAVCGuildHouseBase@@U?$less@K@std@@V?$allocator@U?$pair@$$CBKPAVCGuildHouseBase@@@std@@@3@$0A@@std@@@2@@Z ; std::_Tree<std::_Tmap_traits<unsigned long,CGuildHouseBase *,std::less<unsigned long>,std::allocator<std::pair<unsigned long const ,CGuildHouseBase *> >,0> >::_Color
; Function compile flags: /Ogty
; File c:\program files\microsoft visual studio .net 2003\vc7\include\xtree
;	COMDAT ?_Color@?$_Tree@V?$_Tmap_traits@KPAVCGuildHouseBase@@U?$less@K@std@@V?$allocator@U?$pair@$$CBKPAVCGuildHouseBase@@@std@@@3@$0A@@std@@@std@@KAAADPAU_Node@?$_Tree_nod@V?$_Tmap_traits@KPAVCGuildHouseBase@@U?$less@K@std@@V?$allocator@U?$pair@$$CBKPAVCGuildHouseBase@@@std@@@3@$0A@@std@@@2@@Z
_TEXT	SEGMENT
__Pnode$ = 8						; size = 4
?_Color@?$_Tree@V?$_Tmap_traits@KPAVCGuildHouseBase@@U?$less@K@std@@V?$allocator@U?$pair@$$CBKPAVCGuildHouseBase@@@std@@@3@$0A@@std@@@std@@KAAADPAU_Node@?$_Tree_nod@V?$_Tmap_traits@KPAVCGuildHouseBase@@U?$less@K@std@@V?$allocator@U?$pair@$$CBKPAVCGuildHouseBase@@@std@@@3@$0A@@std@@@2@@Z PROC NEAR ; std::_Tree<std::_Tmap_traits<unsigned long,CGuildHouseBase *,std::less<unsigned long>,std::allocator<std::pair<unsigned long const ,CGuildHouseBase *> >,0> >::_Color, COMDAT

; 132  : 		return ((_Charref)(*_Pnode)._Color);

  00000	8b 44 24 04	 mov	 eax, DWORD PTR __Pnode$[esp-4]
  00004	83 c0 14	 add	 eax, 20			; 00000014H

; 133  : 		}

  00007	c3		 ret	 0
?_Color@?$_Tree@V?$_Tmap_traits@KPAVCGuildHouseBase@@U?$less@K@std@@V?$allocator@U?$pair@$$CBKPAVCGuildHouseBase@@@std@@@3@$0A@@std@@@std@@KAAADPAU_Node@?$_Tree_nod@V?$_Tmap_traits@KPAVCGuildHouseBase@@U?$less@K@std@@V?$allocator@U?$pair@$$CBKPAVCGuildHouseBase@@@std@@@3@$0A@@std@@@2@@Z ENDP ; std::_Tree<std::_Tmap_traits<unsigned long,CGuildHouseBase *,std::less<unsigned long>,std::allocator<std::pair<unsigned long const ,CGuildHouseBase *> >,0> >::_Color
_TEXT	ENDS
PUBLIC	?_Isnil@?$_Tree@V?$_Tmap_traits@KPAVCGuildHouseBase@@U?$less@K@std@@V?$allocator@U?$pair@$$CBKPAVCGuildHouseBase@@@std@@@3@$0A@@std@@@std@@KAAADPAU_Node@?$_Tree_nod@V?$_Tmap_traits@KPAVCGuildHouseBase@@U?$less@K@std@@V?$allocator@U?$pair@$$CBKPAVCGuildHouseBase@@@std@@@3@$0A@@std@@@2@@Z ; std::_Tree<std::_Tmap_traits<unsigned long,CGuildHouseBase *,std::less<unsigned long>,std::allocator<std::pair<unsigned long const ,CGuildHouseBase *> >,0> >::_Isnil
; Function compile flags: /Ogty
;	COMDAT ?_Isnil@?$_Tree@V?$_Tmap_traits@KPAVCGuildHouseBase@@U?$less@K@std@@V?$allocator@U?$pair@$$CBKPAVCGuildHouseBase@@@std@@@3@$0A@@std@@@std@@KAAADPAU_Node@?$_Tree_nod@V?$_Tmap_traits@KPAVCGuildHouseBase@@U?$less@K@std@@V?$allocator@U?$pair@$$CBKPAVCGuildHouseBase@@@std@@@3@$0A@@std@@@2@@Z
_TEXT	SEGMENT
__Pnode$ = 8						; size = 4
?_Isnil@?$_Tree@V?$_Tmap_traits@KPAVCGuildHouseBase@@U?$less@K@std@@V?$allocator@U?$pair@$$CBKPAVCGuildHouseBase@@@std@@@3@$0A@@std@@@std@@KAAADPAU_Node@?$_Tree_nod@V?$_Tmap_traits@KPAVCGuildHouseBase@@U?$less@K@std@@V?$allocator@U?$pair@$$CBKPAVCGuildHouseBase@@@std@@@3@$0A@@std@@@2@@Z PROC NEAR ; std::_Tree<std::_Tmap_traits<unsigned long,CGuildHouseBase *,std::less<unsigned long>,std::allocator<std::pair<unsigned long const ,CGuildHouseBase *> >,0> >::_Isnil, COMDAT

; 137  : 		return ((_Charref)(*_Pnode)._Isnil);

  00000	8b 44 24 04	 mov	 eax, DWORD PTR __Pnode$[esp-4]
  00004	83 c0 15	 add	 eax, 21			; 00000015H

; 138  : 		}

  00007	c3		 ret	 0
?_Isnil@?$_Tree@V?$_Tmap_traits@KPAVCGuildHouseBase@@U?$less@K@std@@V?$allocator@U?$pair@$$CBKPAVCGuildHouseBase@@@std@@@3@$0A@@std@@@std@@KAAADPAU_Node@?$_Tree_nod@V?$_Tmap_traits@KPAVCGuildHouseBase@@U?$less@K@std@@V?$allocator@U?$pair@$$CBKPAVCGuildHouseBase@@@std@@@3@$0A@@std@@@2@@Z ENDP ; std::_Tree<std::_Tmap_traits<unsigned long,CGuildHouseBase *,std::less<unsigned long>,std::allocator<std::pair<unsigned long const ,CGuildHouseBase *> >,0> >::_Isnil
_TEXT	ENDS
PUBLIC	?_Left@?$_Tree@V?$_Tmap_traits@KPAVCGuildHouseBase@@U?$less@K@std@@V?$allocator@U?$pair@$$CBKPAVCGuildHouseBase@@@std@@@3@$0A@@std@@@std@@KAAAPAU_Node@?$_Tree_nod@V?$_Tmap_traits@KPAVCGuildHouseBase@@U?$less@K@std@@V?$allocator@U?$pair@$$CBKPAVCGuildHouseBase@@@std@@@3@$0A@@std@@@2@PAU342@@Z ; std::_Tree<std::_Tmap_traits<unsigned long,CGuildHouseBase *,std::less<unsigned long>,std::allocator<std::pair<unsigned long const ,CGuildHouseBase *> >,0> >::_Left
; Function compile flags: /Ogty
;	COMDAT ?_Left@?$_Tree@V?$_Tmap_traits@KPAVCGuildHouseBase@@U?$less@K@std@@V?$allocator@U?$pair@$$CBKPAVCGuildHouseBase@@@std@@@3@$0A@@std@@@std@@KAAAPAU_Node@?$_Tree_nod@V?$_Tmap_traits@KPAVCGuildHouseBase@@U?$less@K@std@@V?$allocator@U?$pair@$$CBKPAVCGuildHouseBase@@@std@@@3@$0A@@std@@@2@PAU342@@Z
_TEXT	SEGMENT
__Pnode$ = 8						; size = 4
?_Left@?$_Tree@V?$_Tmap_traits@KPAVCGuildHouseBase@@U?$less@K@std@@V?$allocator@U?$pair@$$CBKPAVCGuildHouseBase@@@std@@@3@$0A@@std@@@std@@KAAAPAU_Node@?$_Tree_nod@V?$_Tmap_traits@KPAVCGuildHouseBase@@U?$less@K@std@@V?$allocator@U?$pair@$$CBKPAVCGuildHouseBase@@@std@@@3@$0A@@std@@@2@PAU342@@Z PROC NEAR ; std::_Tree<std::_Tmap_traits<unsigned long,CGuildHouseBase *,std::less<unsigned long>,std::allocator<std::pair<unsigned long const ,CGuildHouseBase *> >,0> >::_Left, COMDAT

; 147  : 		return ((_Nodepref)(*_Pnode)._Left);

  00000	8b 44 24 04	 mov	 eax, DWORD PTR __Pnode$[esp-4]

; 148  : 		}

  00004	c3		 ret	 0
?_Left@?$_Tree@V?$_Tmap_traits@KPAVCGuildHouseBase@@U?$less@K@std@@V?$allocator@U?$pair@$$CBKPAVCGuildHouseBase@@@std@@@3@$0A@@std@@@std@@KAAAPAU_Node@?$_Tree_nod@V?$_Tmap_traits@KPAVCGuildHouseBase@@U?$less@K@std@@V?$allocator@U?$pair@$$CBKPAVCGuildHouseBase@@@std@@@3@$0A@@std@@@2@PAU342@@Z ENDP ; std::_Tree<std::_Tmap_traits<unsigned long,CGuildHouseBase *,std::less<unsigned long>,std::allocator<std::pair<unsigned long const ,CGuildHouseBase *> >,0> >::_Left
_TEXT	ENDS
PUBLIC	?_Parent@?$_Tree@V?$_Tmap_traits@KPAVCGuildHouseBase@@U?$less@K@std@@V?$allocator@U?$pair@$$CBKPAVCGuildHouseBase@@@std@@@3@$0A@@std@@@std@@KAAAPAU_Node@?$_Tree_nod@V?$_Tmap_traits@KPAVCGuildHouseBase@@U?$less@K@std@@V?$allocator@U?$pair@$$CBKPAVCGuildHouseBase@@@std@@@3@$0A@@std@@@2@PAU342@@Z ; std::_Tree<std::_Tmap_traits<unsigned long,CGuildHouseBase *,std::less<unsigned long>,std::allocator<std::pair<unsigned long const ,CGuildHouseBase *> >,0> >::_Parent
; Function compile flags: /Ogty
;	COMDAT ?_Parent@?$_Tree@V?$_Tmap_traits@KPAVCGuildHouseBase@@U?$less@K@std@@V?$allocator@U?$pair@$$CBKPAVCGuildHouseBase@@@std@@@3@$0A@@std@@@std@@KAAAPAU_Node@?$_Tree_nod@V?$_Tmap_traits@KPAVCGuildHouseBase@@U?$less@K@std@@V?$allocator@U?$pair@$$CBKPAVCGuildHouseBase@@@std@@@3@$0A@@std@@@2@PAU342@@Z
_TEXT	SEGMENT
__Pnode$ = 8						; size = 4
?_Parent@?$_Tree@V?$_Tmap_traits@KPAVCGuildHouseBase@@U?$less@K@std@@V?$allocator@U?$pair@$$CBKPAVCGuildHouseBase@@@std@@@3@$0A@@std@@@std@@KAAAPAU_Node@?$_Tree_nod@V?$_Tmap_traits@KPAVCGuildHouseBase@@U?$less@K@std@@V?$allocator@U?$pair@$$CBKPAVCGuildHouseBase@@@std@@@3@$0A@@std@@@2@PAU342@@Z PROC NEAR ; std::_Tree<std::_Tmap_traits<unsigned long,CGuildHouseBase *,std::less<unsigned long>,std::allocator<std::pair<unsigned long const ,CGuildHouseBase *> >,0> >::_Parent, COMDAT

; 152  : 		return ((_Nodepref)(*_Pnode)._Parent);

  00000	8b 44 24 04	 mov	 eax, DWORD PTR __Pnode$[esp-4]
  00004	83 c0 04	 add	 eax, 4

; 153  : 		}

  00007	c3		 ret	 0
?_Parent@?$_Tree@V?$_Tmap_traits@KPAVCGuildHouseBase@@U?$less@K@std@@V?$allocator@U?$pair@$$CBKPAVCGuildHouseBase@@@std@@@3@$0A@@std@@@std@@KAAAPAU_Node@?$_Tree_nod@V?$_Tmap_traits@KPAVCGuildHouseBase@@U?$less@K@std@@V?$allocator@U?$pair@$$CBKPAVCGuildHouseBase@@@std@@@3@$0A@@std@@@2@PAU342@@Z ENDP ; std::_Tree<std::_Tmap_traits<unsigned long,CGuildHouseBase *,std::less<unsigned long>,std::allocator<std::pair<unsigned long const ,CGuildHouseBase *> >,0> >::_Parent
_TEXT	ENDS
PUBLIC	?_Right@?$_Tree@V?$_Tmap_traits@KPAVCGuildHouseBase@@U?$less@K@std@@V?$allocator@U?$pair@$$CBKPAVCGuildHouseBase@@@std@@@3@$0A@@std@@@std@@KAAAPAU_Node@?$_Tree_nod@V?$_Tmap_traits@KPAVCGuildHouseBase@@U?$less@K@std@@V?$allocator@U?$pair@$$CBKPAVCGuildHouseBase@@@std@@@3@$0A@@std@@@2@PAU342@@Z ; std::_Tree<std::_Tmap_traits<unsigned long,CGuildHouseBase *,std::less<unsigned long>,std::allocator<std::pair<unsigned long const ,CGuildHouseBase *> >,0> >::_Right
; Function compile flags: /Ogty
;	COMDAT ?_Right@?$_Tree@V?$_Tmap_traits@KPAVCGuildHouseBase@@U?$less@K@std@@V?$allocator@U?$pair@$$CBKPAVCGuildHouseBase@@@std@@@3@$0A@@std@@@std@@KAAAPAU_Node@?$_Tree_nod@V?$_Tmap_traits@KPAVCGuildHouseBase@@U?$less@K@std@@V?$allocator@U?$pair@$$CBKPAVCGuildHouseBase@@@std@@@3@$0A@@std@@@2@PAU342@@Z
_TEXT	SEGMENT
__Pnode$ = 8						; size = 4
?_Right@?$_Tree@V?$_Tmap_traits@KPAVCGuildHouseBase@@U?$less@K@std@@V?$allocator@U?$pair@$$CBKPAVCGuildHouseBase@@@std@@@3@$0A@@std@@@std@@KAAAPAU_Node@?$_Tree_nod@V?$_Tmap_traits@KPAVCGuildHouseBase@@U?$less@K@std@@V?$allocator@U?$pair@$$CBKPAVCGuildHouseBase@@@std@@@3@$0A@@std@@@2@PAU342@@Z PROC NEAR ; std::_Tree<std::_Tmap_traits<unsigned long,CGuildHouseBase *,std::less<unsigned long>,std::allocator<std::pair<unsigned long const ,CGuildHouseBase *> >,0> >::_Right, COMDAT

; 157  : 		return ((_Nodepref)(*_Pnode)._Right);

  00000	8b 44 24 04	 mov	 eax, DWORD PTR __Pnode$[esp-4]
  00004	83 c0 08	 add	 eax, 8

; 158  : 		}

  00007	c3		 ret	 0
?_Right@?$_Tree@V?$_Tmap_traits@KPAVCGuildHouseBase@@U?$less@K@std@@V?$allocator@U?$pair@$$CBKPAVCGuildHouseBase@@@std@@@3@$0A@@std@@@std@@KAAAPAU_Node@?$_Tree_nod@V?$_Tmap_traits@KPAVCGuildHouseBase@@U?$less@K@std@@V?$allocator@U?$pair@$$CBKPAVCGuildHouseBase@@@std@@@3@$0A@@std@@@2@PAU342@@Z ENDP ; std::_Tree<std::_Tmap_traits<unsigned long,CGuildHouseBase *,std::less<unsigned long>,std::allocator<std::pair<unsigned long const ,CGuildHouseBase *> >,0> >::_Right
_TEXT	ENDS
PUBLIC	?_Lmost@?$_Tree@V?$_Tmap_traits@KPAVCGuildHouseBase@@U?$less@K@std@@V?$allocator@U?$pair@$$CBKPAVCGuildHouseBase@@@std@@@3@$0A@@std@@@std@@IAEAAPAU_Node@?$_Tree_nod@V?$_Tmap_traits@KPAVCGuildHouseBase@@U?$less@K@std@@V?$allocator@U?$pair@$$CBKPAVCGuildHouseBase@@@std@@@3@$0A@@std@@@2@XZ ; std::_Tree<std::_Tmap_traits<unsigned long,CGuildHouseBase *,std::less<unsigned long>,std::allocator<std::pair<unsigned long const ,CGuildHouseBase *> >,0> >::_Lmost
; Function compile flags: /Ogty
;	COMDAT ?_Lmost@?$_Tree@V?$_Tmap_traits@KPAVCGuildHouseBase@@U?$less@K@std@@V?$allocator@U?$pair@$$CBKPAVCGuildHouseBase@@@std@@@3@$0A@@std@@@std@@IAEAAPAU_Node@?$_Tree_nod@V?$_Tmap_traits@KPAVCGuildHouseBase@@U?$less@K@std@@V?$allocator@U?$pair@$$CBKPAVCGuildHouseBase@@@std@@@3@$0A@@std@@@2@XZ
_TEXT	SEGMENT
?_Lmost@?$_Tree@V?$_Tmap_traits@KPAVCGuildHouseBase@@U?$less@K@std@@V?$allocator@U?$pair@$$CBKPAVCGuildHouseBase@@@std@@@3@$0A@@std@@@std@@IAEAAPAU_Node@?$_Tree_nod@V?$_Tmap_traits@KPAVCGuildHouseBase@@U?$less@K@std@@V?$allocator@U?$pair@$$CBKPAVCGuildHouseBase@@@std@@@3@$0A@@std@@@2@XZ PROC NEAR ; std::_Tree<std::_Tmap_traits<unsigned long,CGuildHouseBase *,std::less<unsigned long>,std::allocator<std::pair<unsigned long const ,CGuildHouseBase *> >,0> >::_Lmost, COMDAT
; _this$ = ecx

; 1005 : 		return (_Left(_Myhead));

  00000	8b 41 04	 mov	 eax, DWORD PTR [ecx+4]

; 1006 : 		}

  00003	c3		 ret	 0
?_Lmost@?$_Tree@V?$_Tmap_traits@KPAVCGuildHouseBase@@U?$less@K@std@@V?$allocator@U?$pair@$$CBKPAVCGuildHouseBase@@@std@@@3@$0A@@std@@@std@@IAEAAPAU_Node@?$_Tree_nod@V?$_Tmap_traits@KPAVCGuildHouseBase@@U?$less@K@std@@V?$allocator@U?$pair@$$CBKPAVCGuildHouseBase@@@std@@@3@$0A@@std@@@2@XZ ENDP ; std::_Tree<std::_Tmap_traits<unsigned long,CGuildHouseBase *,std::less<unsigned long>,std::allocator<std::pair<unsigned long const ,CGuildHouseBase *> >,0> >::_Lmost
_TEXT	ENDS
PUBLIC	?_Max@?$_Tree@V?$_Tmap_traits@KPAVCGuildHouseBase@@U?$less@K@std@@V?$allocator@U?$pair@$$CBKPAVCGuildHouseBase@@@std@@@3@$0A@@std@@@std@@KAPAU_Node@?$_Tree_nod@V?$_Tmap_traits@KPAVCGuildHouseBase@@U?$less@K@std@@V?$allocator@U?$pair@$$CBKPAVCGuildHouseBase@@@std@@@3@$0A@@std@@@2@PAU342@@Z ; std::_Tree<std::_Tmap_traits<unsigned long,CGuildHouseBase *,std::less<unsigned long>,std::allocator<std::pair<unsigned long const ,CGuildHouseBase *> >,0> >::_Max
; Function compile flags: /Ogty
;	COMDAT ?_Max@?$_Tree@V?$_Tmap_traits@KPAVCGuildHouseBase@@U?$less@K@std@@V?$allocator@U?$pair@$$CBKPAVCGuildHouseBase@@@std@@@3@$0A@@std@@@std@@KAPAU_Node@?$_Tree_nod@V?$_Tmap_traits@KPAVCGuildHouseBase@@U?$less@K@std@@V?$allocator@U?$pair@$$CBKPAVCGuildHouseBase@@@std@@@3@$0A@@std@@@2@PAU342@@Z
_TEXT	SEGMENT
__Pnode$ = 8						; size = 4
?_Max@?$_Tree@V?$_Tmap_traits@KPAVCGuildHouseBase@@U?$less@K@std@@V?$allocator@U?$pair@$$CBKPAVCGuildHouseBase@@@std@@@3@$0A@@std@@@std@@KAPAU_Node@?$_Tree_nod@V?$_Tmap_traits@KPAVCGuildHouseBase@@U?$less@K@std@@V?$allocator@U?$pair@$$CBKPAVCGuildHouseBase@@@std@@@3@$0A@@std@@@2@PAU342@@Z PROC NEAR ; std::_Tree<std::_Tmap_traits<unsigned long,CGuildHouseBase *,std::less<unsigned long>,std::allocator<std::pair<unsigned long const ,CGuildHouseBase *> >,0> >::_Max, COMDAT

; 1035 : 		while (!_Isnil(_Right(_Pnode)))

  00000	8b 44 24 04	 mov	 eax, DWORD PTR __Pnode$[esp-4]
  00004	8b 48 08	 mov	 ecx, DWORD PTR [eax+8]
  00007	8a 51 15	 mov	 dl, BYTE PTR [ecx+21]
  0000a	84 d2		 test	 dl, dl
  0000c	75 0e		 jne	 SHORT $L192969
  0000e	8b ff		 npad	 2
$L192968:

; 1036 : 			_Pnode = _Right(_Pnode);

  00010	8b c1		 mov	 eax, ecx
  00012	8b 48 08	 mov	 ecx, DWORD PTR [eax+8]
  00015	8a 51 15	 mov	 dl, BYTE PTR [ecx+21]
  00018	84 d2		 test	 dl, dl
  0001a	74 f4		 je	 SHORT $L192968
$L192969:

; 1037 : 		return (_Pnode);
; 1038 : 		}

  0001c	c3		 ret	 0
?_Max@?$_Tree@V?$_Tmap_traits@KPAVCGuildHouseBase@@U?$less@K@std@@V?$allocator@U?$pair@$$CBKPAVCGuildHouseBase@@@std@@@3@$0A@@std@@@std@@KAPAU_Node@?$_Tree_nod@V?$_Tmap_traits@KPAVCGuildHouseBase@@U?$less@K@std@@V?$allocator@U?$pair@$$CBKPAVCGuildHouseBase@@@std@@@3@$0A@@std@@@2@PAU342@@Z ENDP ; std::_Tree<std::_Tmap_traits<unsigned long,CGuildHouseBase *,std::less<unsigned long>,std::allocator<std::pair<unsigned long const ,CGuildHouseBase *> >,0> >::_Max
_TEXT	ENDS
PUBLIC	?_Min@?$_Tree@V?$_Tmap_traits@KPAVCGuildHouseBase@@U?$less@K@std@@V?$allocator@U?$pair@$$CBKPAVCGuildHouseBase@@@std@@@3@$0A@@std@@@std@@KAPAU_Node@?$_Tree_nod@V?$_Tmap_traits@KPAVCGuildHouseBase@@U?$less@K@std@@V?$allocator@U?$pair@$$CBKPAVCGuildHouseBase@@@std@@@3@$0A@@std@@@2@PAU342@@Z ; std::_Tree<std::_Tmap_traits<unsigned long,CGuildHouseBase *,std::less<unsigned long>,std::allocator<std::pair<unsigned long const ,CGuildHouseBase *> >,0> >::_Min
; Function compile flags: /Ogty
;	COMDAT ?_Min@?$_Tree@V?$_Tmap_traits@KPAVCGuildHouseBase@@U?$less@K@std@@V?$allocator@U?$pair@$$CBKPAVCGuildHouseBase@@@std@@@3@$0A@@std@@@std@@KAPAU_Node@?$_Tree_nod@V?$_Tmap_traits@KPAVCGuildHouseBase@@U?$less@K@std@@V?$allocator@U?$pair@$$CBKPAVCGuildHouseBase@@@std@@@3@$0A@@std@@@2@PAU342@@Z
_TEXT	SEGMENT
__Pnode$ = 8						; size = 4
?_Min@?$_Tree@V?$_Tmap_traits@KPAVCGuildHouseBase@@U?$less@K@std@@V?$allocator@U?$pair@$$CBKPAVCGuildHouseBase@@@std@@@3@$0A@@std@@@std@@KAPAU_Node@?$_Tree_nod@V?$_Tmap_traits@KPAVCGuildHouseBase@@U?$less@K@std@@V?$allocator@U?$pair@$$CBKPAVCGuildHouseBase@@@std@@@3@$0A@@std@@@2@PAU342@@Z PROC NEAR ; std::_Tree<std::_Tmap_traits<unsigned long,CGuildHouseBase *,std::less<unsigned long>,std::allocator<std::pair<unsigned long const ,CGuildHouseBase *> >,0> >::_Min, COMDAT

; 1042 : 		while (!_Isnil(_Left(_Pnode)))

  00000	8b 44 24 04	 mov	 eax, DWORD PTR __Pnode$[esp-4]
  00004	8b 08		 mov	 ecx, DWORD PTR [eax]
  00006	8a 51 15	 mov	 dl, BYTE PTR [ecx+21]
  00009	84 d2		 test	 dl, dl
  0000b	75 0e		 jne	 SHORT $L192973
  0000d	8d 49 00	 npad	 3
$L192972:

; 1043 : 			_Pnode = _Left(_Pnode);

  00010	8b c1		 mov	 eax, ecx
  00012	8b 08		 mov	 ecx, DWORD PTR [eax]
  00014	8a 51 15	 mov	 dl, BYTE PTR [ecx+21]
  00017	84 d2		 test	 dl, dl
  00019	74 f5		 je	 SHORT $L192972
$L192973:

; 1044 : 		return (_Pnode);
; 1045 : 		}

  0001b	c3		 ret	 0
?_Min@?$_Tree@V?$_Tmap_traits@KPAVCGuildHouseBase@@U?$less@K@std@@V?$allocator@U?$pair@$$CBKPAVCGuildHouseBase@@@std@@@3@$0A@@std@@@std@@KAPAU_Node@?$_Tree_nod@V?$_Tmap_traits@KPAVCGuildHouseBase@@U?$less@K@std@@V?$allocator@U?$pair@$$CBKPAVCGuildHouseBase@@@std@@@3@$0A@@std@@@2@PAU342@@Z ENDP ; std::_Tree<std::_Tmap_traits<unsigned long,CGuildHouseBase *,std::less<unsigned long>,std::allocator<std::pair<unsigned long const ,CGuildHouseBase *> >,0> >::_Min
_TEXT	ENDS
PUBLIC	?_Rmost@?$_Tree@V?$_Tmap_traits@KPAVCGuildHouseBase@@U?$less@K@std@@V?$allocator@U?$pair@$$CBKPAVCGuildHouseBase@@@std@@@3@$0A@@std@@@std@@IAEAAPAU_Node@?$_Tree_nod@V?$_Tmap_traits@KPAVCGuildHouseBase@@U?$less@K@std@@V?$allocator@U?$pair@$$CBKPAVCGuildHouseBase@@@std@@@3@$0A@@std@@@2@XZ ; std::_Tree<std::_Tmap_traits<unsigned long,CGuildHouseBase *,std::less<unsigned long>,std::allocator<std::pair<unsigned long const ,CGuildHouseBase *> >,0> >::_Rmost
; Function compile flags: /Ogty
;	COMDAT ?_Rmost@?$_Tree@V?$_Tmap_traits@KPAVCGuildHouseBase@@U?$less@K@std@@V?$allocator@U?$pair@$$CBKPAVCGuildHouseBase@@@std@@@3@$0A@@std@@@std@@IAEAAPAU_Node@?$_Tree_nod@V?$_Tmap_traits@KPAVCGuildHouseBase@@U?$less@K@std@@V?$allocator@U?$pair@$$CBKPAVCGuildHouseBase@@@std@@@3@$0A@@std@@@2@XZ
_TEXT	SEGMENT
?_Rmost@?$_Tree@V?$_Tmap_traits@KPAVCGuildHouseBase@@U?$less@K@std@@V?$allocator@U?$pair@$$CBKPAVCGuildHouseBase@@@std@@@3@$0A@@std@@@std@@IAEAAPAU_Node@?$_Tree_nod@V?$_Tmap_traits@KPAVCGuildHouseBase@@U?$less@K@std@@V?$allocator@U?$pair@$$CBKPAVCGuildHouseBase@@@std@@@3@$0A@@std@@@2@XZ PROC NEAR ; std::_Tree<std::_Tmap_traits<unsigned long,CGuildHouseBase *,std::less<unsigned long>,std::allocator<std::pair<unsigned long const ,CGuildHouseBase *> >,0> >::_Rmost, COMDAT
; _this$ = ecx

; 1049 : 		return (_Right(_Myhead));

  00000	8b 41 04	 mov	 eax, DWORD PTR [ecx+4]
  00003	83 c0 08	 add	 eax, 8

; 1050 : 		}

  00006	c3		 ret	 0
?_Rmost@?$_Tree@V?$_Tmap_traits@KPAVCGuildHouseBase@@U?$less@K@std@@V?$allocator@U?$pair@$$CBKPAVCGuildHouseBase@@@std@@@3@$0A@@std@@@std@@IAEAAPAU_Node@?$_Tree_nod@V?$_Tmap_traits@KPAVCGuildHouseBase@@U?$less@K@std@@V?$allocator@U?$pair@$$CBKPAVCGuildHouseBase@@@std@@@3@$0A@@std@@@2@XZ ENDP ; std::_Tree<std::_Tmap_traits<unsigned long,CGuildHouseBase *,std::less<unsigned long>,std::allocator<std::pair<unsigned long const ,CGuildHouseBase *> >,0> >::_Rmost
_TEXT	ENDS
PUBLIC	?_Root@?$_Tree@V?$_Tmap_traits@KPAVCGuildHouseBase@@U?$less@K@std@@V?$allocator@U?$pair@$$CBKPAVCGuildHouseBase@@@std@@@3@$0A@@std@@@std@@IAEAAPAU_Node@?$_Tree_nod@V?$_Tmap_traits@KPAVCGuildHouseBase@@U?$less@K@std@@V?$allocator@U?$pair@$$CBKPAVCGuildHouseBase@@@std@@@3@$0A@@std@@@2@XZ ; std::_Tree<std::_Tmap_traits<unsigned long,CGuildHouseBase *,std::less<unsigned long>,std::allocator<std::pair<unsigned long const ,CGuildHouseBase *> >,0> >::_Root
; Function compile flags: /Ogty
;	COMDAT ?_Root@?$_Tree@V?$_Tmap_traits@KPAVCGuildHouseBase@@U?$less@K@std@@V?$allocator@U?$pair@$$CBKPAVCGuildHouseBase@@@std@@@3@$0A@@std@@@std@@IAEAAPAU_Node@?$_Tree_nod@V?$_Tmap_traits@KPAVCGuildHouseBase@@U?$less@K@std@@V?$allocator@U?$pair@$$CBKPAVCGuildHouseBase@@@std@@@3@$0A@@std@@@2@XZ
_TEXT	SEGMENT
?_Root@?$_Tree@V?$_Tmap_traits@KPAVCGuildHouseBase@@U?$less@K@std@@V?$allocator@U?$pair@$$CBKPAVCGuildHouseBase@@@std@@@3@$0A@@std@@@std@@IAEAAPAU_Node@?$_Tree_nod@V?$_Tmap_traits@KPAVCGuildHouseBase@@U?$less@K@std@@V?$allocator@U?$pair@$$CBKPAVCGuildHouseBase@@@std@@@3@$0A@@std@@@2@XZ PROC NEAR ; std::_Tree<std::_Tmap_traits<unsigned long,CGuildHouseBase *,std::less<unsigned long>,std::allocator<std::pair<unsigned long const ,CGuildHouseBase *> >,0> >::_Root, COMDAT
; _this$ = ecx

; 1059 : 		return (_Parent(_Myhead));

  00000	8b 41 04	 mov	 eax, DWORD PTR [ecx+4]
  00003	83 c0 04	 add	 eax, 4

; 1060 : 		}

  00006	c3		 ret	 0
?_Root@?$_Tree@V?$_Tmap_traits@KPAVCGuildHouseBase@@U?$less@K@std@@V?$allocator@U?$pair@$$CBKPAVCGuildHouseBase@@@std@@@3@$0A@@std@@@std@@IAEAAPAU_Node@?$_Tree_nod@V?$_Tmap_traits@KPAVCGuildHouseBase@@U?$less@K@std@@V?$allocator@U?$pair@$$CBKPAVCGuildHouseBase@@@std@@@3@$0A@@std@@@2@XZ ENDP ; std::_Tree<std::_Tmap_traits<unsigned long,CGuildHouseBase *,std::less<unsigned long>,std::allocator<std::pair<unsigned long const ,CGuildHouseBase *> >,0> >::_Root
_TEXT	ENDS
PUBLIC	?_Rrotate@?$_Tree@V?$_Tmap_traits@KPAVCGuildHouseBase@@U?$less@K@std@@V?$allocator@U?$pair@$$CBKPAVCGuildHouseBase@@@std@@@3@$0A@@std@@@std@@IAEXPAU_Node@?$_Tree_nod@V?$_Tmap_traits@KPAVCGuildHouseBase@@U?$less@K@std@@V?$allocator@U?$pair@$$CBKPAVCGuildHouseBase@@@std@@@3@$0A@@std@@@2@@Z ; std::_Tree<std::_Tmap_traits<unsigned long,CGuildHouseBase *,std::less<unsigned long>,std::allocator<std::pair<unsigned long const ,CGuildHouseBase *> >,0> >::_Rrotate
; Function compile flags: /Ogty
;	COMDAT ?_Rrotate@?$_Tree@V?$_Tmap_traits@KPAVCGuildHouseBase@@U?$less@K@std@@V?$allocator@U?$pair@$$CBKPAVCGuildHouseBase@@@std@@@3@$0A@@std@@@std@@IAEXPAU_Node@?$_Tree_nod@V?$_Tmap_traits@KPAVCGuildHouseBase@@U?$less@K@std@@V?$allocator@U?$pair@$$CBKPAVCGuildHouseBase@@@std@@@3@$0A@@std@@@2@@Z
_TEXT	SEGMENT
__Wherenode$ = 8					; size = 4
?_Rrotate@?$_Tree@V?$_Tmap_traits@KPAVCGuildHouseBase@@U?$less@K@std@@V?$allocator@U?$pair@$$CBKPAVCGuildHouseBase@@@std@@@3@$0A@@std@@@std@@IAEXPAU_Node@?$_Tree_nod@V?$_Tmap_traits@KPAVCGuildHouseBase@@U?$less@K@std@@V?$allocator@U?$pair@$$CBKPAVCGuildHouseBase@@@std@@@3@$0A@@std@@@2@@Z PROC NEAR ; std::_Tree<std::_Tmap_traits<unsigned long,CGuildHouseBase *,std::less<unsigned long>,std::allocator<std::pair<unsigned long const ,CGuildHouseBase *> >,0> >::_Rrotate, COMDAT
; _this$ = ecx

; 1069 : 		_Nodeptr _Pnode = _Left(_Wherenode);

  00000	8b 54 24 04	 mov	 edx, DWORD PTR __Wherenode$[esp-4]
  00004	8b 02		 mov	 eax, DWORD PTR [edx]
  00006	53		 push	 ebx
  00007	56		 push	 esi

; 1070 : 		_Left(_Wherenode) = _Right(_Pnode);

  00008	8b 70 08	 mov	 esi, DWORD PTR [eax+8]
  0000b	89 32		 mov	 DWORD PTR [edx], esi

; 1071 : 
; 1072 : 		if (!_Isnil(_Right(_Pnode)))

  0000d	8b 70 08	 mov	 esi, DWORD PTR [eax+8]
  00010	8a 5e 15	 mov	 bl, BYTE PTR [esi+21]
  00013	84 db		 test	 bl, bl
  00015	75 03		 jne	 SHORT $L192981

; 1073 : 			_Parent(_Right(_Pnode)) = _Wherenode;

  00017	89 56 04	 mov	 DWORD PTR [esi+4], edx
$L192981:

; 1074 : 		_Parent(_Pnode) = _Parent(_Wherenode);

  0001a	8b 72 04	 mov	 esi, DWORD PTR [edx+4]
  0001d	89 70 04	 mov	 DWORD PTR [eax+4], esi

; 1075 : 
; 1076 : 		if (_Wherenode == _Root())

  00020	8b 49 04	 mov	 ecx, DWORD PTR [ecx+4]
  00023	3b 51 04	 cmp	 edx, DWORD PTR [ecx+4]
  00026	75 0e		 jne	 SHORT $L192982

; 1077 : 			_Root() = _Pnode;

  00028	89 41 04	 mov	 DWORD PTR [ecx+4], eax
  0002b	5e		 pop	 esi

; 1082 : 
; 1083 : 		_Right(_Pnode) = _Wherenode;

  0002c	89 50 08	 mov	 DWORD PTR [eax+8], edx

; 1084 : 		_Parent(_Wherenode) = _Pnode;

  0002f	89 42 04	 mov	 DWORD PTR [edx+4], eax
  00032	5b		 pop	 ebx

; 1085 : 		}

  00033	c2 04 00	 ret	 4
$L192982:

; 1078 : 		else if (_Wherenode == _Right(_Parent(_Wherenode)))

  00036	8b 4a 04	 mov	 ecx, DWORD PTR [edx+4]
  00039	3b 51 08	 cmp	 edx, DWORD PTR [ecx+8]
  0003c	75 0e		 jne	 SHORT $L192984

; 1079 : 			_Right(_Parent(_Wherenode)) = _Pnode;

  0003e	89 41 08	 mov	 DWORD PTR [ecx+8], eax
  00041	5e		 pop	 esi

; 1082 : 
; 1083 : 		_Right(_Pnode) = _Wherenode;

  00042	89 50 08	 mov	 DWORD PTR [eax+8], edx

; 1084 : 		_Parent(_Wherenode) = _Pnode;

  00045	89 42 04	 mov	 DWORD PTR [edx+4], eax
  00048	5b		 pop	 ebx

; 1085 : 		}

  00049	c2 04 00	 ret	 4
$L192984:

; 1080 : 		else
; 1081 : 			_Left(_Parent(_Wherenode)) = _Pnode;

  0004c	89 01		 mov	 DWORD PTR [ecx], eax
  0004e	5e		 pop	 esi

; 1082 : 
; 1083 : 		_Right(_Pnode) = _Wherenode;

  0004f	89 50 08	 mov	 DWORD PTR [eax+8], edx

; 1084 : 		_Parent(_Wherenode) = _Pnode;

  00052	89 42 04	 mov	 DWORD PTR [edx+4], eax
  00055	5b		 pop	 ebx

; 1085 : 		}

  00056	c2 04 00	 ret	 4
?_Rrotate@?$_Tree@V?$_Tmap_traits@KPAVCGuildHouseBase@@U?$less@K@std@@V?$allocator@U?$pair@$$CBKPAVCGuildHouseBase@@@std@@@3@$0A@@std@@@std@@IAEXPAU_Node@?$_Tree_nod@V?$_Tmap_traits@KPAVCGuildHouseBase@@U?$less@K@std@@V?$allocator@U?$pair@$$CBKPAVCGuildHouseBase@@@std@@@3@$0A@@std@@@2@@Z ENDP ; std::_Tree<std::_Tmap_traits<unsigned long,CGuildHouseBase *,std::less<unsigned long>,std::allocator<std::pair<unsigned long const ,CGuildHouseBase *> >,0> >::_Rrotate
_TEXT	ENDS
PUBLIC	?_Kfn@?$_Tmap_traits@KPAVCGuildHouseBase@@U?$less@K@std@@V?$allocator@U?$pair@$$CBKPAVCGuildHouseBase@@@std@@@3@$0A@@std@@SAABKABU?$pair@$$CBKPAVCGuildHouseBase@@@2@@Z ; std::_Tmap_traits<unsigned long,CGuildHouseBase *,std::less<unsigned long>,std::allocator<std::pair<unsigned long const ,CGuildHouseBase *> >,0>::_Kfn
; Function compile flags: /Ogty
; File c:\program files\microsoft visual studio .net 2003\vc7\include\map
;	COMDAT ?_Kfn@?$_Tmap_traits@KPAVCGuildHouseBase@@U?$less@K@std@@V?$allocator@U?$pair@$$CBKPAVCGuildHouseBase@@@std@@@3@$0A@@std@@SAABKABU?$pair@$$CBKPAVCGuildHouseBase@@@2@@Z
_TEXT	SEGMENT
__Val$ = 8						; size = 4
?_Kfn@?$_Tmap_traits@KPAVCGuildHouseBase@@U?$less@K@std@@V?$allocator@U?$pair@$$CBKPAVCGuildHouseBase@@@std@@@3@$0A@@std@@SAABKABU?$pair@$$CBKPAVCGuildHouseBase@@@2@@Z PROC NEAR ; std::_Tmap_traits<unsigned long,CGuildHouseBase *,std::less<unsigned long>,std::allocator<std::pair<unsigned long const ,CGuildHouseBase *> >,0>::_Kfn, COMDAT

; 64   : 		return (_Val.first);

  00000	8b 44 24 04	 mov	 eax, DWORD PTR __Val$[esp-4]

; 65   : 		}

  00004	c3		 ret	 0
?_Kfn@?$_Tmap_traits@KPAVCGuildHouseBase@@U?$less@K@std@@V?$allocator@U?$pair@$$CBKPAVCGuildHouseBase@@@std@@@3@$0A@@std@@SAABKABU?$pair@$$CBKPAVCGuildHouseBase@@@2@@Z ENDP ; std::_Tmap_traits<unsigned long,CGuildHouseBase *,std::less<unsigned long>,std::allocator<std::pair<unsigned long const ,CGuildHouseBase *> >,0>::_Kfn
_TEXT	ENDS
PUBLIC	??0?$allocator@U?$pair@$$CBKPAVCGuildHouseBase@@@std@@@std@@QAE@XZ ; std::allocator<std::pair<unsigned long const ,CGuildHouseBase *> >::allocator<std::pair<unsigned long const ,CGuildHouseBase *> >
; Function compile flags: /Ogty
; File c:\program files\microsoft visual studio .net 2003\vc7\include\xmemory
;	COMDAT ??0?$allocator@U?$pair@$$CBKPAVCGuildHouseBase@@@std@@@std@@QAE@XZ
_TEXT	SEGMENT
??0?$allocator@U?$pair@$$CBKPAVCGuildHouseBase@@@std@@@std@@QAE@XZ PROC NEAR ; std::allocator<std::pair<unsigned long const ,CGuildHouseBase *> >::allocator<std::pair<unsigned long const ,CGuildHouseBase *> >, COMDAT
; _this$ = ecx

; 111  : 	allocator()

  00000	8b c1		 mov	 eax, ecx

; 112  : 		{	// construct default allocator (do nothing)
; 113  : 		}

  00002	c3		 ret	 0
??0?$allocator@U?$pair@$$CBKPAVCGuildHouseBase@@@std@@@std@@QAE@XZ ENDP ; std::allocator<std::pair<unsigned long const ,CGuildHouseBase *> >::allocator<std::pair<unsigned long const ,CGuildHouseBase *> >
_TEXT	ENDS
PUBLIC	?deallocate@?$allocator@U_Node@?$_Tree_nod@V?$_Tmap_traits@KPAVCGuildHouseBase@@U?$less@K@std@@V?$allocator@U?$pair@$$CBKPAVCGuildHouseBase@@@std@@@3@$0A@@std@@@std@@@std@@QAEXPAU_Node@?$_Tree_nod@V?$_Tmap_traits@KPAVCGuildHouseBase@@U?$less@K@std@@V?$allocator@U?$pair@$$CBKPAVCGuildHouseBase@@@std@@@3@$0A@@std@@@2@I@Z ; std::allocator<std::_Tree_nod<std::_Tmap_traits<unsigned long,CGuildHouseBase *,std::less<unsigned long>,std::allocator<std::pair<unsigned long const ,CGuildHouseBase *> >,0> >::_Node>::deallocate
EXTRN	??3@YAXPAX@Z:NEAR				; operator delete
; Function compile flags: /Ogty
;	COMDAT ?deallocate@?$allocator@U_Node@?$_Tree_nod@V?$_Tmap_traits@KPAVCGuildHouseBase@@U?$less@K@std@@V?$allocator@U?$pair@$$CBKPAVCGuildHouseBase@@@std@@@3@$0A@@std@@@std@@@std@@QAEXPAU_Node@?$_Tree_nod@V?$_Tmap_traits@KPAVCGuildHouseBase@@U?$less@K@std@@V?$allocator@U?$pair@$$CBKPAVCGuildHouseBase@@@std@@@3@$0A@@std@@@2@I@Z
_TEXT	SEGMENT
__Ptr$ = 8						; size = 4
___formal$ = 12						; size = 4
?deallocate@?$allocator@U_Node@?$_Tree_nod@V?$_Tmap_traits@KPAVCGuildHouseBase@@U?$less@K@std@@V?$allocator@U?$pair@$$CBKPAVCGuildHouseBase@@@std@@@3@$0A@@std@@@std@@@std@@QAEXPAU_Node@?$_Tree_nod@V?$_Tmap_traits@KPAVCGuildHouseBase@@U?$less@K@std@@V?$allocator@U?$pair@$$CBKPAVCGuildHouseBase@@@std@@@3@$0A@@std@@@2@I@Z PROC NEAR ; std::allocator<std::_Tree_nod<std::_Tmap_traits<unsigned long,CGuildHouseBase *,std::less<unsigned long>,std::allocator<std::pair<unsigned long const ,CGuildHouseBase *> >,0> >::_Node>::deallocate, COMDAT
; _this$ = ecx

; 132  : 		operator delete(_Ptr);

  00000	8b 44 24 04	 mov	 eax, DWORD PTR __Ptr$[esp-4]
  00004	50		 push	 eax
  00005	e8 00 00 00 00	 call	 ??3@YAXPAX@Z		; operator delete
  0000a	59		 pop	 ecx

; 133  : 		}

  0000b	c2 08 00	 ret	 8
?deallocate@?$allocator@U_Node@?$_Tree_nod@V?$_Tmap_traits@KPAVCGuildHouseBase@@U?$less@K@std@@V?$allocator@U?$pair@$$CBKPAVCGuildHouseBase@@@std@@@3@$0A@@std@@@std@@@std@@QAEXPAU_Node@?$_Tree_nod@V?$_Tmap_traits@KPAVCGuildHouseBase@@U?$less@K@std@@V?$allocator@U?$pair@$$CBKPAVCGuildHouseBase@@@std@@@3@$0A@@std@@@2@I@Z ENDP ; std::allocator<std::_Tree_nod<std::_Tmap_traits<unsigned long,CGuildHouseBase *,std::less<unsigned long>,std::allocator<std::pair<unsigned long const ,CGuildHouseBase *> >,0> >::_Node>::deallocate
_TEXT	ENDS
PUBLIC	??0?$pair@Viterator@?$_Tree@V?$_Tmap_traits@KPAVCGuildHouseBase@@U?$less@K@std@@V?$allocator@U?$pair@$$CBKPAVCGuildHouseBase@@@std@@@3@$0A@@std@@@std@@_N@std@@QAE@ABViterator@?$_Tree@V?$_Tmap_traits@KPAVCGuildHouseBase@@U?$less@K@std@@V?$allocator@U?$pair@$$CBKPAVCGuildHouseBase@@@std@@@3@$0A@@std@@@1@AB_N@Z ; std::pair<std::_Tree<std::_Tmap_traits<unsigned long,CGuildHouseBase *,std::less<unsigned long>,std::allocator<std::pair<unsigned long const ,CGuildHouseBase *> >,0> >::iterator,bool>::pair<std::_Tree<std::_Tmap_traits<unsigned long,CGuildHouseBase *,std::less<unsigned long>,std::allocator<std::pair<unsigned long const ,CGuildHouseBase *> >,0> >::iterator,bool>
; Function compile flags: /Ogty
; File c:\program files\microsoft visual studio .net 2003\vc7\include\utility
;	COMDAT ??0?$pair@Viterator@?$_Tree@V?$_Tmap_traits@KPAVCGuildHouseBase@@U?$less@K@std@@V?$allocator@U?$pair@$$CBKPAVCGuildHouseBase@@@std@@@3@$0A@@std@@@std@@_N@std@@QAE@ABViterator@?$_Tree@V?$_Tmap_traits@KPAVCGuildHouseBase@@U?$less@K@std@@V?$allocator@U?$pair@$$CBKPAVCGuildHouseBase@@@std@@@3@$0A@@std@@@1@AB_N@Z
_TEXT	SEGMENT
__Val1$ = 8						; size = 4
__Val2$ = 12						; size = 4
??0?$pair@Viterator@?$_Tree@V?$_Tmap_traits@KPAVCGuildHouseBase@@U?$less@K@std@@V?$allocator@U?$pair@$$CBKPAVCGuildHouseBase@@@std@@@3@$0A@@std@@@std@@_N@std@@QAE@ABViterator@?$_Tree@V?$_Tmap_traits@KPAVCGuildHouseBase@@U?$less@K@std@@V?$allocator@U?$pair@$$CBKPAVCGuildHouseBase@@@std@@@3@$0A@@std@@@1@AB_N@Z PROC NEAR ; std::pair<std::_Tree<std::_Tmap_traits<unsigned long,CGuildHouseBase *,std::less<unsigned long>,std::allocator<std::pair<unsigned long const ,CGuildHouseBase *> >,0> >::iterator,bool>::pair<std::_Tree<std::_Tmap_traits<unsigned long,CGuildHouseBase *,std::less<unsigned long>,std::allocator<std::pair<unsigned long const ,CGuildHouseBase *> >,0> >::iterator,bool>, COMDAT
; _this$ = ecx

; 34   : 		{	// construct from specified values

  00000	8b c1		 mov	 eax, ecx
  00002	8b 4c 24 04	 mov	 ecx, DWORD PTR __Val1$[esp-4]
  00006	8b 11		 mov	 edx, DWORD PTR [ecx]
  00008	8b 4c 24 08	 mov	 ecx, DWORD PTR __Val2$[esp-4]
  0000c	89 10		 mov	 DWORD PTR [eax], edx
  0000e	8a 11		 mov	 dl, BYTE PTR [ecx]
  00010	88 50 04	 mov	 BYTE PTR [eax+4], dl

; 35   : 		}

  00013	c2 08 00	 ret	 8
??0?$pair@Viterator@?$_Tree@V?$_Tmap_traits@KPAVCGuildHouseBase@@U?$less@K@std@@V?$allocator@U?$pair@$$CBKPAVCGuildHouseBase@@@std@@@3@$0A@@std@@@std@@_N@std@@QAE@ABViterator@?$_Tree@V?$_Tmap_traits@KPAVCGuildHouseBase@@U?$less@K@std@@V?$allocator@U?$pair@$$CBKPAVCGuildHouseBase@@@std@@@3@$0A@@std@@@1@AB_N@Z ENDP ; std::pair<std::_Tree<std::_Tmap_traits<unsigned long,CGuildHouseBase *,std::less<unsigned long>,std::allocator<std::pair<unsigned long const ,CGuildHouseBase *> >,0> >::iterator,bool>::pair<std::_Tree<std::_Tmap_traits<unsigned long,CGuildHouseBase *,std::less<unsigned long>,std::allocator<std::pair<unsigned long const ,CGuildHouseBase *> >,0> >::iterator,bool>
_TEXT	ENDS
PUBLIC	?_Mynode@const_iterator@?$_Tree@V?$_Tmap_traits@KPAVCGuildHouseBase@@U?$less@K@std@@V?$allocator@U?$pair@$$CBKPAVCGuildHouseBase@@@std@@@3@$0A@@std@@@std@@QBEPAU_Node@?$_Tree_nod@V?$_Tmap_traits@KPAVCGuildHouseBase@@U?$less@K@std@@V?$allocator@U?$pair@$$CBKPAVCGuildHouseBase@@@std@@@3@$0A@@std@@@3@XZ ; std::_Tree<std::_Tmap_traits<unsigned long,CGuildHouseBase *,std::less<unsigned long>,std::allocator<std::pair<unsigned long const ,CGuildHouseBase *> >,0> >::const_iterator::_Mynode
; Function compile flags: /Ogty
; File c:\program files\microsoft visual studio .net 2003\vc7\include\xtree
;	COMDAT ?_Mynode@const_iterator@?$_Tree@V?$_Tmap_traits@KPAVCGuildHouseBase@@U?$less@K@std@@V?$allocator@U?$pair@$$CBKPAVCGuildHouseBase@@@std@@@3@$0A@@std@@@std@@QBEPAU_Node@?$_Tree_nod@V?$_Tmap_traits@KPAVCGuildHouseBase@@U?$less@K@std@@V?$allocator@U?$pair@$$CBKPAVCGuildHouseBase@@@std@@@3@$0A@@std@@@3@XZ
_TEXT	SEGMENT
?_Mynode@const_iterator@?$_Tree@V?$_Tmap_traits@KPAVCGuildHouseBase@@U?$less@K@std@@V?$allocator@U?$pair@$$CBKPAVCGuildHouseBase@@@std@@@3@$0A@@std@@@std@@QBEPAU_Node@?$_Tree_nod@V?$_Tmap_traits@KPAVCGuildHouseBase@@U?$less@K@std@@V?$allocator@U?$pair@$$CBKPAVCGuildHouseBase@@@std@@@3@$0A@@std@@@3@XZ PROC NEAR ; std::_Tree<std::_Tmap_traits<unsigned long,CGuildHouseBase *,std::less<unsigned long>,std::allocator<std::pair<unsigned long const ,CGuildHouseBase *> >,0> >::const_iterator::_Mynode, COMDAT
; _this$ = ecx

; 284  : 			return (_Ptr);

  00000	8b 01		 mov	 eax, DWORD PTR [ecx]

; 285  : 			}

  00002	c3		 ret	 0
?_Mynode@const_iterator@?$_Tree@V?$_Tmap_traits@KPAVCGuildHouseBase@@U?$less@K@std@@V?$allocator@U?$pair@$$CBKPAVCGuildHouseBase@@@std@@@3@$0A@@std@@@std@@QBEPAU_Node@?$_Tree_nod@V?$_Tmap_traits@KPAVCGuildHouseBase@@U?$less@K@std@@V?$allocator@U?$pair@$$CBKPAVCGuildHouseBase@@@std@@@3@$0A@@std@@@3@XZ ENDP ; std::_Tree<std::_Tmap_traits<unsigned long,CGuildHouseBase *,std::less<unsigned long>,std::allocator<std::pair<unsigned long const ,CGuildHouseBase *> >,0> >::const_iterator::_Mynode
_TEXT	ENDS
PUBLIC	??Yiterator@?$vector@UGuildHouse_Furniture_Info@CGuildHouseBase@@V?$allocator@UGuildHouse_Furniture_Info@CGuildHouseBase@@@std@@@std@@QAEAAV012@H@Z ; std::vector<CGuildHouseBase::GuildHouse_Furniture_Info,std::allocator<CGuildHouseBase::GuildHouse_Furniture_Info> >::iterator::operator+=
; Function compile flags: /Ogty
; File c:\program files\microsoft visual studio .net 2003\vc7\include\vector
;	COMDAT ??Yiterator@?$vector@UGuildHouse_Furniture_Info@CGuildHouseBase@@V?$allocator@UGuildHouse_Furniture_Info@CGuildHouseBase@@@std@@@std@@QAEAAV012@H@Z
_TEXT	SEGMENT
__Off$ = 8						; size = 4
??Yiterator@?$vector@UGuildHouse_Furniture_Info@CGuildHouseBase@@V?$allocator@UGuildHouse_Furniture_Info@CGuildHouseBase@@@std@@@std@@QAEAAV012@H@Z PROC NEAR ; std::vector<CGuildHouseBase::GuildHouse_Furniture_Info,std::allocator<CGuildHouseBase::GuildHouse_Furniture_Info> >::iterator::operator+=, COMDAT
; _this$ = ecx

; 255  : 			{	// increment by integer

  00000	8b c1		 mov	 eax, ecx

; 256  : 			this->_Myptr += _Off;

  00002	8b 4c 24 04	 mov	 ecx, DWORD PTR __Off$[esp-4]
  00006	8b 10		 mov	 edx, DWORD PTR [eax]
  00008	8d 0c c9	 lea	 ecx, DWORD PTR [ecx+ecx*8]
  0000b	c1 e1 02	 shl	 ecx, 2
  0000e	03 d1		 add	 edx, ecx
  00010	89 10		 mov	 DWORD PTR [eax], edx

; 257  : 			return (*this);
; 258  : 			}

  00012	c2 04 00	 ret	 4
??Yiterator@?$vector@UGuildHouse_Furniture_Info@CGuildHouseBase@@V?$allocator@UGuildHouse_Furniture_Info@CGuildHouseBase@@@std@@@std@@QAEAAV012@H@Z ENDP ; std::vector<CGuildHouseBase::GuildHouse_Furniture_Info,std::allocator<CGuildHouseBase::GuildHouse_Furniture_Info> >::iterator::operator+=
_TEXT	ENDS
PUBLIC	??0?$allocator@UGuildHouse_Furniture_Info@CGuildHouseBase@@@std@@QAE@ABV01@@Z ; std::allocator<CGuildHouseBase::GuildHouse_Furniture_Info>::allocator<CGuildHouseBase::GuildHouse_Furniture_Info>
; Function compile flags: /Ogty
; File c:\program files\microsoft visual studio .net 2003\vc7\include\xmemory
;	COMDAT ??0?$allocator@UGuildHouse_Furniture_Info@CGuildHouseBase@@@std@@QAE@ABV01@@Z
_TEXT	SEGMENT
___formal$ = 8						; size = 4
??0?$allocator@UGuildHouse_Furniture_Info@CGuildHouseBase@@@std@@QAE@ABV01@@Z PROC NEAR ; std::allocator<CGuildHouseBase::GuildHouse_Furniture_Info>::allocator<CGuildHouseBase::GuildHouse_Furniture_Info>, COMDAT
; _this$ = ecx

; 115  : 	allocator(const allocator<_Ty>&)

  00000	8b c1		 mov	 eax, ecx

; 116  : 		{	// construct by copying (do nothing)
; 117  : 		}

  00002	c2 04 00	 ret	 4
??0?$allocator@UGuildHouse_Furniture_Info@CGuildHouseBase@@@std@@QAE@ABV01@@Z ENDP ; std::allocator<CGuildHouseBase::GuildHouse_Furniture_Info>::allocator<CGuildHouseBase::GuildHouse_Furniture_Info>
_TEXT	ENDS
PUBLIC	?deallocate@?$allocator@UGuildHouse_Furniture_Info@CGuildHouseBase@@@std@@QAEXPAUGuildHouse_Furniture_Info@CGuildHouseBase@@I@Z ; std::allocator<CGuildHouseBase::GuildHouse_Furniture_Info>::deallocate
; Function compile flags: /Ogty
;	COMDAT ?deallocate@?$allocator@UGuildHouse_Furniture_Info@CGuildHouseBase@@@std@@QAEXPAUGuildHouse_Furniture_Info@CGuildHouseBase@@I@Z
_TEXT	SEGMENT
__Ptr$ = 8						; size = 4
___formal$ = 12						; size = 4
?deallocate@?$allocator@UGuildHouse_Furniture_Info@CGuildHouseBase@@@std@@QAEXPAUGuildHouse_Furniture_Info@CGuildHouseBase@@I@Z PROC NEAR ; std::allocator<CGuildHouseBase::GuildHouse_Furniture_Info>::deallocate, COMDAT
; _this$ = ecx

; 132  : 		operator delete(_Ptr);

  00000	8b 44 24 04	 mov	 eax, DWORD PTR __Ptr$[esp-4]
  00004	50		 push	 eax
  00005	e8 00 00 00 00	 call	 ??3@YAXPAX@Z		; operator delete
  0000a	59		 pop	 ecx

; 133  : 		}

  0000b	c2 08 00	 ret	 8
?deallocate@?$allocator@UGuildHouse_Furniture_Info@CGuildHouseBase@@@std@@QAEXPAUGuildHouse_Furniture_Info@CGuildHouseBase@@I@Z ENDP ; std::allocator<CGuildHouseBase::GuildHouse_Furniture_Info>::deallocate
_TEXT	ENDS
PUBLIC	?_Myval@?$_Tree@V?$_Tmap_traits@KPAVCGuildHouseBase@@U?$less@K@std@@V?$allocator@U?$pair@$$CBKPAVCGuildHouseBase@@@std@@@3@$0A@@std@@@std@@KAAAU?$pair@$$CBKPAVCGuildHouseBase@@@2@PAU_Node@?$_Tree_nod@V?$_Tmap_traits@KPAVCGuildHouseBase@@U?$less@K@std@@V?$allocator@U?$pair@$$CBKPAVCGuildHouseBase@@@std@@@3@$0A@@std@@@2@@Z ; std::_Tree<std::_Tmap_traits<unsigned long,CGuildHouseBase *,std::less<unsigned long>,std::allocator<std::pair<unsigned long const ,CGuildHouseBase *> >,0> >::_Myval
; Function compile flags: /Ogty
; File c:\program files\microsoft visual studio .net 2003\vc7\include\xtree
;	COMDAT ?_Myval@?$_Tree@V?$_Tmap_traits@KPAVCGuildHouseBase@@U?$less@K@std@@V?$allocator@U?$pair@$$CBKPAVCGuildHouseBase@@@std@@@3@$0A@@std@@@std@@KAAAU?$pair@$$CBKPAVCGuildHouseBase@@@2@PAU_Node@?$_Tree_nod@V?$_Tmap_traits@KPAVCGuildHouseBase@@U?$less@K@std@@V?$allocator@U?$pair@$$CBKPAVCGuildHouseBase@@@std@@@3@$0A@@std@@@2@@Z
_TEXT	SEGMENT
__Pnode$ = 8						; size = 4
?_Myval@?$_Tree@V?$_Tmap_traits@KPAVCGuildHouseBase@@U?$less@K@std@@V?$allocator@U?$pair@$$CBKPAVCGuildHouseBase@@@std@@@3@$0A@@std@@@std@@KAAAU?$pair@$$CBKPAVCGuildHouseBase@@@2@PAU_Node@?$_Tree_nod@V?$_Tmap_traits@KPAVCGuildHouseBase@@U?$less@K@std@@V?$allocator@U?$pair@$$CBKPAVCGuildHouseBase@@@std@@@3@$0A@@std@@@2@@Z PROC NEAR ; std::_Tree<std::_Tmap_traits<unsigned long,CGuildHouseBase *,std::less<unsigned long>,std::allocator<std::pair<unsigned long const ,CGuildHouseBase *> >,0> >::_Myval, COMDAT

; 162  : 		return ((_Vref)(*_Pnode)._Myval);

  00000	8b 44 24 04	 mov	 eax, DWORD PTR __Pnode$[esp-4]
  00004	83 c0 0c	 add	 eax, 12			; 0000000cH

; 163  : 		}

  00007	c3		 ret	 0
?_Myval@?$_Tree@V?$_Tmap_traits@KPAVCGuildHouseBase@@U?$less@K@std@@V?$allocator@U?$pair@$$CBKPAVCGuildHouseBase@@@std@@@3@$0A@@std@@@std@@KAAAU?$pair@$$CBKPAVCGuildHouseBase@@@2@PAU_Node@?$_Tree_nod@V?$_Tmap_traits@KPAVCGuildHouseBase@@U?$less@K@std@@V?$allocator@U?$pair@$$CBKPAVCGuildHouseBase@@@std@@@3@$0A@@std@@@2@@Z ENDP ; std::_Tree<std::_Tmap_traits<unsigned long,CGuildHouseBase *,std::less<unsigned long>,std::allocator<std::pair<unsigned long const ,CGuildHouseBase *> >,0> >::_Myval
_TEXT	ENDS
PUBLIC	??0?$allocator@U?$pair@$$CBKPAVCGuildHouseBase@@@std@@@std@@QAE@ABV01@@Z ; std::allocator<std::pair<unsigned long const ,CGuildHouseBase *> >::allocator<std::pair<unsigned long const ,CGuildHouseBase *> >
; Function compile flags: /Ogty
; File c:\program files\microsoft visual studio .net 2003\vc7\include\xmemory
;	COMDAT ??0?$allocator@U?$pair@$$CBKPAVCGuildHouseBase@@@std@@@std@@QAE@ABV01@@Z
_TEXT	SEGMENT
___formal$ = 8						; size = 4
??0?$allocator@U?$pair@$$CBKPAVCGuildHouseBase@@@std@@@std@@QAE@ABV01@@Z PROC NEAR ; std::allocator<std::pair<unsigned long const ,CGuildHouseBase *> >::allocator<std::pair<unsigned long const ,CGuildHouseBase *> >, COMDAT
; _this$ = ecx

; 115  : 	allocator(const allocator<_Ty>&)

  00000	8b c1		 mov	 eax, ecx

; 116  : 		{	// construct by copying (do nothing)
; 117  : 		}

  00002	c2 04 00	 ret	 4
??0?$allocator@U?$pair@$$CBKPAVCGuildHouseBase@@@std@@@std@@QAE@ABV01@@Z ENDP ; std::allocator<std::pair<unsigned long const ,CGuildHouseBase *> >::allocator<std::pair<unsigned long const ,CGuildHouseBase *> >
_TEXT	ENDS
PUBLIC	??0const_iterator@?$_Tree@V?$_Tmap_traits@KPAVCGuildHouseBase@@U?$less@K@std@@V?$allocator@U?$pair@$$CBKPAVCGuildHouseBase@@@std@@@3@$0A@@std@@@std@@QAE@PAU_Node@?$_Tree_nod@V?$_Tmap_traits@KPAVCGuildHouseBase@@U?$less@K@std@@V?$allocator@U?$pair@$$CBKPAVCGuildHouseBase@@@std@@@3@$0A@@std@@@2@@Z ; std::_Tree<std::_Tmap_traits<unsigned long,CGuildHouseBase *,std::less<unsigned long>,std::allocator<std::pair<unsigned long const ,CGuildHouseBase *> >,0> >::const_iterator::const_iterator
; Function compile flags: /Ogty
; File c:\program files\microsoft visual studio .net 2003\vc7\include\xtree
;	COMDAT ??0const_iterator@?$_Tree@V?$_Tmap_traits@KPAVCGuildHouseBase@@U?$less@K@std@@V?$allocator@U?$pair@$$CBKPAVCGuildHouseBase@@@std@@@3@$0A@@std@@@std@@QAE@PAU_Node@?$_Tree_nod@V?$_Tmap_traits@KPAVCGuildHouseBase@@U?$less@K@std@@V?$allocator@U?$pair@$$CBKPAVCGuildHouseBase@@@std@@@3@$0A@@std@@@2@@Z
_TEXT	SEGMENT
__Pnode$ = 8						; size = 4
??0const_iterator@?$_Tree@V?$_Tmap_traits@KPAVCGuildHouseBase@@U?$less@K@std@@V?$allocator@U?$pair@$$CBKPAVCGuildHouseBase@@@std@@@3@$0A@@std@@@std@@QAE@PAU_Node@?$_Tree_nod@V?$_Tmap_traits@KPAVCGuildHouseBase@@U?$less@K@std@@V?$allocator@U?$pair@$$CBKPAVCGuildHouseBase@@@std@@@3@$0A@@std@@@2@@Z PROC NEAR ; std::_Tree<std::_Tmap_traits<unsigned long,CGuildHouseBase *,std::less<unsigned long>,std::allocator<std::pair<unsigned long const ,CGuildHouseBase *> >,0> >::const_iterator::const_iterator, COMDAT
; _this$ = ecx

; 200  : 			{	// construct with node pointer _Pnode

  00000	8b c1		 mov	 eax, ecx
  00002	8b 4c 24 04	 mov	 ecx, DWORD PTR __Pnode$[esp-4]
  00006	89 08		 mov	 DWORD PTR [eax], ecx

; 201  : 			}

  00008	c2 04 00	 ret	 4
??0const_iterator@?$_Tree@V?$_Tmap_traits@KPAVCGuildHouseBase@@U?$less@K@std@@V?$allocator@U?$pair@$$CBKPAVCGuildHouseBase@@@std@@@3@$0A@@std@@@std@@QAE@PAU_Node@?$_Tree_nod@V?$_Tmap_traits@KPAVCGuildHouseBase@@U?$less@K@std@@V?$allocator@U?$pair@$$CBKPAVCGuildHouseBase@@@std@@@3@$0A@@std@@@2@@Z ENDP ; std::_Tree<std::_Tmap_traits<unsigned long,CGuildHouseBase *,std::less<unsigned long>,std::allocator<std::pair<unsigned long const ,CGuildHouseBase *> >,0> >::const_iterator::const_iterator
_TEXT	ENDS
PUBLIC	??Dconst_iterator@?$_Tree@V?$_Tmap_traits@KPAVCGuildHouseBase@@U?$less@K@std@@V?$allocator@U?$pair@$$CBKPAVCGuildHouseBase@@@std@@@3@$0A@@std@@@std@@QBEABU?$pair@$$CBKPAVCGuildHouseBase@@@2@XZ ; std::_Tree<std::_Tmap_traits<unsigned long,CGuildHouseBase *,std::less<unsigned long>,std::allocator<std::pair<unsigned long const ,CGuildHouseBase *> >,0> >::const_iterator::operator*
; Function compile flags: /Ogty
;	COMDAT ??Dconst_iterator@?$_Tree@V?$_Tmap_traits@KPAVCGuildHouseBase@@U?$less@K@std@@V?$allocator@U?$pair@$$CBKPAVCGuildHouseBase@@@std@@@3@$0A@@std@@@std@@QBEABU?$pair@$$CBKPAVCGuildHouseBase@@@2@XZ
_TEXT	SEGMENT
??Dconst_iterator@?$_Tree@V?$_Tmap_traits@KPAVCGuildHouseBase@@U?$less@K@std@@V?$allocator@U?$pair@$$CBKPAVCGuildHouseBase@@@std@@@3@$0A@@std@@@std@@QBEABU?$pair@$$CBKPAVCGuildHouseBase@@@2@XZ PROC NEAR ; std::_Tree<std::_Tmap_traits<unsigned long,CGuildHouseBase *,std::less<unsigned long>,std::allocator<std::pair<unsigned long const ,CGuildHouseBase *> >,0> >::const_iterator::operator*, COMDAT
; _this$ = ecx

; 205  : 			return (_Myval(_Ptr));

  00000	8b 01		 mov	 eax, DWORD PTR [ecx]
  00002	83 c0 0c	 add	 eax, 12			; 0000000cH

; 206  : 			}

  00005	c3		 ret	 0
??Dconst_iterator@?$_Tree@V?$_Tmap_traits@KPAVCGuildHouseBase@@U?$less@K@std@@V?$allocator@U?$pair@$$CBKPAVCGuildHouseBase@@@std@@@3@$0A@@std@@@std@@QBEABU?$pair@$$CBKPAVCGuildHouseBase@@@2@XZ ENDP ; std::_Tree<std::_Tmap_traits<unsigned long,CGuildHouseBase *,std::less<unsigned long>,std::allocator<std::pair<unsigned long const ,CGuildHouseBase *> >,0> >::const_iterator::operator*
_TEXT	ENDS
PUBLIC	??0const_iterator@?$vector@UGuildHouse_Furniture_Info@CGuildHouseBase@@V?$allocator@UGuildHouse_Furniture_Info@CGuildHouseBase@@@std@@@std@@QAE@PAUGuildHouse_Furniture_Info@CGuildHouseBase@@@Z ; std::vector<CGuildHouseBase::GuildHouse_Furniture_Info,std::allocator<CGuildHouseBase::GuildHouse_Furniture_Info> >::const_iterator::const_iterator
; Function compile flags: /Ogty
; File c:\program files\microsoft visual studio .net 2003\vc7\include\vector
;	COMDAT ??0const_iterator@?$vector@UGuildHouse_Furniture_Info@CGuildHouseBase@@V?$allocator@UGuildHouse_Furniture_Info@CGuildHouseBase@@@std@@@std@@QAE@PAUGuildHouse_Furniture_Info@CGuildHouseBase@@@Z
_TEXT	SEGMENT
__Ptr$ = 8						; size = 4
??0const_iterator@?$vector@UGuildHouse_Furniture_Info@CGuildHouseBase@@V?$allocator@UGuildHouse_Furniture_Info@CGuildHouseBase@@@std@@@std@@QAE@PAUGuildHouse_Furniture_Info@CGuildHouseBase@@@Z PROC NEAR ; std::vector<CGuildHouseBase::GuildHouse_Furniture_Info,std::allocator<CGuildHouseBase::GuildHouse_Furniture_Info> >::const_iterator::const_iterator, COMDAT
; _this$ = ecx

; 73   : 		const_iterator(_Tptr _Ptr)

  00000	8b c1		 mov	 eax, ecx

; 74   : 			{	// construct with pointer _Ptr
; 75   : 			_Myptr = _Ptr;

  00002	8b 4c 24 04	 mov	 ecx, DWORD PTR __Ptr$[esp-4]
  00006	89 08		 mov	 DWORD PTR [eax], ecx

; 76   : 			}

  00008	c2 04 00	 ret	 4
??0const_iterator@?$vector@UGuildHouse_Furniture_Info@CGuildHouseBase@@V?$allocator@UGuildHouse_Furniture_Info@CGuildHouseBase@@@std@@@std@@QAE@PAUGuildHouse_Furniture_Info@CGuildHouseBase@@@Z ENDP ; std::vector<CGuildHouseBase::GuildHouse_Furniture_Info,std::allocator<CGuildHouseBase::GuildHouse_Furniture_Info> >::const_iterator::const_iterator
_TEXT	ENDS
PUBLIC	??Dconst_iterator@?$vector@UGuildHouse_Furniture_Info@CGuildHouseBase@@V?$allocator@UGuildHouse_Furniture_Info@CGuildHouseBase@@@std@@@std@@QBEABUGuildHouse_Furniture_Info@CGuildHouseBase@@XZ ; std::vector<CGuildHouseBase::GuildHouse_Furniture_Info,std::allocator<CGuildHouseBase::GuildHouse_Furniture_Info> >::const_iterator::operator*
; Function compile flags: /Ogty
;	COMDAT ??Dconst_iterator@?$vector@UGuildHouse_Furniture_Info@CGuildHouseBase@@V?$allocator@UGuildHouse_Furniture_Info@CGuildHouseBase@@@std@@@std@@QBEABUGuildHouse_Furniture_Info@CGuildHouseBase@@XZ
_TEXT	SEGMENT
??Dconst_iterator@?$vector@UGuildHouse_Furniture_Info@CGuildHouseBase@@V?$allocator@UGuildHouse_Furniture_Info@CGuildHouseBase@@@std@@@std@@QBEABUGuildHouse_Furniture_Info@CGuildHouseBase@@XZ PROC NEAR ; std::vector<CGuildHouseBase::GuildHouse_Furniture_Info,std::allocator<CGuildHouseBase::GuildHouse_Furniture_Info> >::const_iterator::operator*, COMDAT
; _this$ = ecx

; 80   : 
; 81   : 
; 82   : 			return (*_Myptr);

  00000	8b 01		 mov	 eax, DWORD PTR [ecx]

; 83   : 			}

  00002	c3		 ret	 0
??Dconst_iterator@?$vector@UGuildHouse_Furniture_Info@CGuildHouseBase@@V?$allocator@UGuildHouse_Furniture_Info@CGuildHouseBase@@@std@@@std@@QBEABUGuildHouse_Furniture_Info@CGuildHouseBase@@XZ ENDP ; std::vector<CGuildHouseBase::GuildHouse_Furniture_Info,std::allocator<CGuildHouseBase::GuildHouse_Furniture_Info> >::const_iterator::operator*
_TEXT	ENDS
PUBLIC	?max_size@?$allocator@UGuildHouse_Furniture_Info@CGuildHouseBase@@@std@@QBEIXZ ; std::allocator<CGuildHouseBase::GuildHouse_Furniture_Info>::max_size
; Function compile flags: /Ogty
; File c:\program files\microsoft visual studio .net 2003\vc7\include\xmemory
;	COMDAT ?max_size@?$allocator@UGuildHouse_Furniture_Info@CGuildHouseBase@@@std@@QBEIXZ
_TEXT	SEGMENT
?max_size@?$allocator@UGuildHouse_Furniture_Info@CGuildHouseBase@@@std@@QBEIXZ PROC NEAR ; std::allocator<CGuildHouseBase::GuildHouse_Furniture_Info>::max_size, COMDAT
; _this$ = ecx

; 157  : 		_SIZT _Count = (_SIZT)(-1) / sizeof (_Ty);
; 158  : 		return (0 < _Count ? _Count : 1);

  00000	b8 c7 71 1c 07	 mov	 eax, 119304647		; 071c71c7H

; 159  : 		}

  00005	c3		 ret	 0
?max_size@?$allocator@UGuildHouse_Furniture_Info@CGuildHouseBase@@@std@@QBEIXZ ENDP ; std::allocator<CGuildHouseBase::GuildHouse_Furniture_Info>::max_size
_TEXT	ENDS
PUBLIC	?_Root@?$_Tree@V?$_Tmap_traits@KPAVCGuildHouseBase@@U?$less@K@std@@V?$allocator@U?$pair@$$CBKPAVCGuildHouseBase@@@std@@@3@$0A@@std@@@std@@IBEAAPAU_Node@?$_Tree_nod@V?$_Tmap_traits@KPAVCGuildHouseBase@@U?$less@K@std@@V?$allocator@U?$pair@$$CBKPAVCGuildHouseBase@@@std@@@3@$0A@@std@@@2@XZ ; std::_Tree<std::_Tmap_traits<unsigned long,CGuildHouseBase *,std::less<unsigned long>,std::allocator<std::pair<unsigned long const ,CGuildHouseBase *> >,0> >::_Root
; Function compile flags: /Ogty
; File c:\program files\microsoft visual studio .net 2003\vc7\include\xtree
;	COMDAT ?_Root@?$_Tree@V?$_Tmap_traits@KPAVCGuildHouseBase@@U?$less@K@std@@V?$allocator@U?$pair@$$CBKPAVCGuildHouseBase@@@std@@@3@$0A@@std@@@std@@IBEAAPAU_Node@?$_Tree_nod@V?$_Tmap_traits@KPAVCGuildHouseBase@@U?$less@K@std@@V?$allocator@U?$pair@$$CBKPAVCGuildHouseBase@@@std@@@3@$0A@@std@@@2@XZ
_TEXT	SEGMENT
?_Root@?$_Tree@V?$_Tmap_traits@KPAVCGuildHouseBase@@U?$less@K@std@@V?$allocator@U?$pair@$$CBKPAVCGuildHouseBase@@@std@@@3@$0A@@std@@@std@@IBEAAPAU_Node@?$_Tree_nod@V?$_Tmap_traits@KPAVCGuildHouseBase@@U?$less@K@std@@V?$allocator@U?$pair@$$CBKPAVCGuildHouseBase@@@std@@@3@$0A@@std@@@2@XZ PROC NEAR ; std::_Tree<std::_Tmap_traits<unsigned long,CGuildHouseBase *,std::less<unsigned long>,std::allocator<std::pair<unsigned long const ,CGuildHouseBase *> >,0> >::_Root, COMDAT
; _this$ = ecx

; 1064 : 		return (_Parent(_Myhead));

  00000	8b 41 04	 mov	 eax, DWORD PTR [ecx+4]
  00003	83 c0 04	 add	 eax, 4

; 1065 : 		}

  00006	c3		 ret	 0
?_Root@?$_Tree@V?$_Tmap_traits@KPAVCGuildHouseBase@@U?$less@K@std@@V?$allocator@U?$pair@$$CBKPAVCGuildHouseBase@@@std@@@3@$0A@@std@@@std@@IBEAAPAU_Node@?$_Tree_nod@V?$_Tmap_traits@KPAVCGuildHouseBase@@U?$less@K@std@@V?$allocator@U?$pair@$$CBKPAVCGuildHouseBase@@@std@@@3@$0A@@std@@@2@XZ ENDP ; std::_Tree<std::_Tmap_traits<unsigned long,CGuildHouseBase *,std::less<unsigned long>,std::allocator<std::pair<unsigned long const ,CGuildHouseBase *> >,0> >::_Root
_TEXT	ENDS
PUBLIC	?max_size@?$allocator@U?$pair@$$CBKPAVCGuildHouseBase@@@std@@@std@@QBEIXZ ; std::allocator<std::pair<unsigned long const ,CGuildHouseBase *> >::max_size
; Function compile flags: /Ogty
; File c:\program files\microsoft visual studio .net 2003\vc7\include\xmemory
;	COMDAT ?max_size@?$allocator@U?$pair@$$CBKPAVCGuildHouseBase@@@std@@@std@@QBEIXZ
_TEXT	SEGMENT
?max_size@?$allocator@U?$pair@$$CBKPAVCGuildHouseBase@@@std@@@std@@QBEIXZ PROC NEAR ; std::allocator<std::pair<unsigned long const ,CGuildHouseBase *> >::max_size, COMDAT
; _this$ = ecx

; 157  : 		_SIZT _Count = (_SIZT)(-1) / sizeof (_Ty);
; 158  : 		return (0 < _Count ? _Count : 1);

  00000	b8 ff ff ff 1f	 mov	 eax, 536870911		; 1fffffffH

; 159  : 		}

  00005	c3		 ret	 0
?max_size@?$allocator@U?$pair@$$CBKPAVCGuildHouseBase@@@std@@@std@@QBEIXZ ENDP ; std::allocator<std::pair<unsigned long const ,CGuildHouseBase *> >::max_size
_TEXT	ENDS
PUBLIC	?_Dec@const_iterator@?$_Tree@V?$_Tmap_traits@KPAVCGuildHouseBase@@U?$less@K@std@@V?$allocator@U?$pair@$$CBKPAVCGuildHouseBase@@@std@@@3@$0A@@std@@@std@@QAEXXZ ; std::_Tree<std::_Tmap_traits<unsigned long,CGuildHouseBase *,std::less<unsigned long>,std::allocator<std::pair<unsigned long const ,CGuildHouseBase *> >,0> >::const_iterator::_Dec
; Function compile flags: /Ogty
; File c:\program files\microsoft visual studio .net 2003\vc7\include\xtree
;	COMDAT ?_Dec@const_iterator@?$_Tree@V?$_Tmap_traits@KPAVCGuildHouseBase@@U?$less@K@std@@V?$allocator@U?$pair@$$CBKPAVCGuildHouseBase@@@std@@@3@$0A@@std@@@std@@QAEXXZ
_TEXT	SEGMENT
?_Dec@const_iterator@?$_Tree@V?$_Tmap_traits@KPAVCGuildHouseBase@@U?$less@K@std@@V?$allocator@U?$pair@$$CBKPAVCGuildHouseBase@@@std@@@3@$0A@@std@@@std@@QAEXXZ PROC NEAR ; std::_Tree<std::_Tmap_traits<unsigned long,CGuildHouseBase *,std::less<unsigned long>,std::allocator<std::pair<unsigned long const ,CGuildHouseBase *> >,0> >::const_iterator::_Dec, COMDAT
; _this$ = ecx

; 251  : 			if (_Isnil(_Ptr))

  00000	8b 01		 mov	 eax, DWORD PTR [ecx]
  00002	8a 50 15	 mov	 dl, BYTE PTR [eax+21]
  00005	84 d2		 test	 dl, dl
  00007	74 06		 je	 SHORT $L193191

; 252  : 				_Ptr = _Right(_Ptr);	// end() ==> rightmost

  00009	8b 40 08	 mov	 eax, DWORD PTR [eax+8]
  0000c	89 01		 mov	 DWORD PTR [ecx], eax

; 263  : 				}
; 264  : 			}

  0000e	c3		 ret	 0
$L193191:

; 253  : 			else if (!_Isnil(_Left(_Ptr)))

  0000f	8b 10		 mov	 edx, DWORD PTR [eax]
  00011	53		 push	 ebx
  00012	8a 5a 15	 mov	 bl, BYTE PTR [edx+21]
  00015	84 db		 test	 bl, bl
  00017	75 1a		 jne	 SHORT $L194173

; 254  : 				_Ptr = _Max(_Left(_Ptr));	// ==> largest of left subtree

  00019	8b 42 08	 mov	 eax, DWORD PTR [edx+8]
  0001c	8a 58 15	 mov	 bl, BYTE PTR [eax+21]
  0001f	84 db		 test	 bl, bl
  00021	75 0c		 jne	 SHORT $L194151
$L194150:
  00023	8b d0		 mov	 edx, eax
  00025	8b 42 08	 mov	 eax, DWORD PTR [edx+8]
  00028	8a 58 15	 mov	 bl, BYTE PTR [eax+21]
  0002b	84 db		 test	 bl, bl
  0002d	74 f4		 je	 SHORT $L194150
$L194151:
  0002f	89 11		 mov	 DWORD PTR [ecx], edx
  00031	5b		 pop	 ebx

; 263  : 				}
; 264  : 			}

  00032	c3		 ret	 0
$L194173:

; 255  : 			else
; 256  : 				{	// climb looking for left subtree
; 257  : 				_Nodeptr _Pnode;
; 258  : 				while (!_Isnil(_Pnode = _Parent(_Ptr))
; 259  : 					&& _Ptr == _Left(_Pnode))

  00033	8b 40 04	 mov	 eax, DWORD PTR [eax+4]
  00036	8a 50 15	 mov	 dl, BYTE PTR [eax+21]
  00039	84 d2		 test	 dl, dl
  0003b	75 1e		 jne	 SHORT $L194176
  0003d	8d 49 00	 npad	 3
$L193197:
  00040	8b 11		 mov	 edx, DWORD PTR [ecx]
  00042	3b 10		 cmp	 edx, DWORD PTR [eax]
  00044	75 0c		 jne	 SHORT $L193198

; 260  : 					_Ptr = _Pnode;	// ==> parent while left subtree

  00046	89 01		 mov	 DWORD PTR [ecx], eax
  00048	8b 40 04	 mov	 eax, DWORD PTR [eax+4]
  0004b	8a 50 15	 mov	 dl, BYTE PTR [eax+21]
  0004e	84 d2		 test	 dl, dl
  00050	74 ee		 je	 SHORT $L193197
$L193198:

; 261  : 				if (!_Isnil(_Pnode))

  00052	8a 50 15	 mov	 dl, BYTE PTR [eax+21]
  00055	84 d2		 test	 dl, dl
  00057	75 02		 jne	 SHORT $L194176

; 262  : 					_Ptr = _Pnode;	// ==> parent if not head

  00059	89 01		 mov	 DWORD PTR [ecx], eax
$L194176:
  0005b	5b		 pop	 ebx

; 263  : 				}
; 264  : 			}

  0005c	c3		 ret	 0
?_Dec@const_iterator@?$_Tree@V?$_Tmap_traits@KPAVCGuildHouseBase@@U?$less@K@std@@V?$allocator@U?$pair@$$CBKPAVCGuildHouseBase@@@std@@@3@$0A@@std@@@std@@QAEXXZ ENDP ; std::_Tree<std::_Tmap_traits<unsigned long,CGuildHouseBase *,std::less<unsigned long>,std::allocator<std::pair<unsigned long const ,CGuildHouseBase *> >,0> >::const_iterator::_Dec
_TEXT	ENDS
PUBLIC	?_Inc@const_iterator@?$_Tree@V?$_Tmap_traits@KPAVCGuildHouseBase@@U?$less@K@std@@V?$allocator@U?$pair@$$CBKPAVCGuildHouseBase@@@std@@@3@$0A@@std@@@std@@QAEXXZ ; std::_Tree<std::_Tmap_traits<unsigned long,CGuildHouseBase *,std::less<unsigned long>,std::allocator<std::pair<unsigned long const ,CGuildHouseBase *> >,0> >::const_iterator::_Inc
; Function compile flags: /Ogty
;	COMDAT ?_Inc@const_iterator@?$_Tree@V?$_Tmap_traits@KPAVCGuildHouseBase@@U?$less@K@std@@V?$allocator@U?$pair@$$CBKPAVCGuildHouseBase@@@std@@@3@$0A@@std@@@std@@QAEXXZ
_TEXT	SEGMENT
?_Inc@const_iterator@?$_Tree@V?$_Tmap_traits@KPAVCGuildHouseBase@@U?$less@K@std@@V?$allocator@U?$pair@$$CBKPAVCGuildHouseBase@@@std@@@3@$0A@@std@@@std@@QAEXXZ PROC NEAR ; std::_Tree<std::_Tmap_traits<unsigned long,CGuildHouseBase *,std::less<unsigned long>,std::allocator<std::pair<unsigned long const ,CGuildHouseBase *> >,0> >::const_iterator::_Inc, COMDAT
; _this$ = ecx

; 268  : 			if (_Isnil(_Ptr))

  00000	8b 01		 mov	 eax, DWORD PTR [ecx]
  00002	8a 50 15	 mov	 dl, BYTE PTR [eax+21]
  00005	84 d2		 test	 dl, dl
  00007	75 4d		 jne	 SHORT $L193205

; 269  : 				;	// end() shouldn't be incremented, don't move
; 270  : 			else if (!_Isnil(_Right(_Ptr)))

  00009	8b 50 08	 mov	 edx, DWORD PTR [eax+8]
  0000c	53		 push	 ebx
  0000d	8a 5a 15	 mov	 bl, BYTE PTR [edx+21]
  00010	84 db		 test	 bl, bl
  00012	75 1b		 jne	 SHORT $L194223

; 271  : 				_Ptr = _Min(_Right(_Ptr));	// ==> smallest of right subtree

  00014	8b 02		 mov	 eax, DWORD PTR [edx]
  00016	8a 58 15	 mov	 bl, BYTE PTR [eax+21]
  00019	84 db		 test	 bl, bl
  0001b	75 0e		 jne	 SHORT $L194204
  0001d	8d 49 00	 npad	 3
$L194203:
  00020	8b d0		 mov	 edx, eax
  00022	8b 02		 mov	 eax, DWORD PTR [edx]
  00024	8a 58 15	 mov	 bl, BYTE PTR [eax+21]
  00027	84 db		 test	 bl, bl
  00029	74 f5		 je	 SHORT $L194203
$L194204:
  0002b	89 11		 mov	 DWORD PTR [ecx], edx
  0002d	5b		 pop	 ebx

; 279  : 				}
; 280  : 			}

  0002e	c3		 ret	 0
$L194223:

; 272  : 			else
; 273  : 				{	// climb looking for right subtree
; 274  : 				_Nodeptr _Pnode;
; 275  : 				while (!_Isnil(_Pnode = _Parent(_Ptr))
; 276  : 					&& _Ptr == _Right(_Pnode))

  0002f	8b 40 04	 mov	 eax, DWORD PTR [eax+4]
  00032	8a 50 15	 mov	 dl, BYTE PTR [eax+21]
  00035	84 d2		 test	 dl, dl
  00037	75 1a		 jne	 SHORT $L193209
  00039	8d a4 24 00 00
	00 00		 npad	 7
$L193208:
  00040	8b 11		 mov	 edx, DWORD PTR [ecx]
  00042	3b 50 08	 cmp	 edx, DWORD PTR [eax+8]
  00045	75 0c		 jne	 SHORT $L193209

; 277  : 					_Ptr = _Pnode;	// ==> parent while right subtree

  00047	89 01		 mov	 DWORD PTR [ecx], eax
  00049	8b 40 04	 mov	 eax, DWORD PTR [eax+4]
  0004c	8a 50 15	 mov	 dl, BYTE PTR [eax+21]
  0004f	84 d2		 test	 dl, dl
  00051	74 ed		 je	 SHORT $L193208
$L193209:

; 278  : 				_Ptr = _Pnode;	// ==> parent (head if end())

  00053	89 01		 mov	 DWORD PTR [ecx], eax
  00055	5b		 pop	 ebx
$L193205:

; 279  : 				}
; 280  : 			}

  00056	c3		 ret	 0
?_Inc@const_iterator@?$_Tree@V?$_Tmap_traits@KPAVCGuildHouseBase@@U?$less@K@std@@V?$allocator@U?$pair@$$CBKPAVCGuildHouseBase@@@std@@@3@$0A@@std@@@std@@QAEXXZ ENDP ; std::_Tree<std::_Tmap_traits<unsigned long,CGuildHouseBase *,std::less<unsigned long>,std::allocator<std::pair<unsigned long const ,CGuildHouseBase *> >,0> >::const_iterator::_Inc
_TEXT	ENDS
PUBLIC	??Gconst_iterator@?$vector@UGuildHouse_Furniture_Info@CGuildHouseBase@@V?$allocator@UGuildHouse_Furniture_Info@CGuildHouseBase@@@std@@@std@@QBEHABV012@@Z ; std::vector<CGuildHouseBase::GuildHouse_Furniture_Info,std::allocator<CGuildHouseBase::GuildHouse_Furniture_Info> >::const_iterator::operator-
; Function compile flags: /Ogty
; File c:\program files\microsoft visual studio .net 2003\vc7\include\vector
;	COMDAT ??Gconst_iterator@?$vector@UGuildHouse_Furniture_Info@CGuildHouseBase@@V?$allocator@UGuildHouse_Furniture_Info@CGuildHouseBase@@@std@@@std@@QBEHABV012@@Z
_TEXT	SEGMENT
__Right$ = 8						; size = 4
??Gconst_iterator@?$vector@UGuildHouse_Furniture_Info@CGuildHouseBase@@V?$allocator@UGuildHouse_Furniture_Info@CGuildHouseBase@@@std@@@std@@QBEHABV012@@Z PROC NEAR ; std::vector<CGuildHouseBase::GuildHouse_Furniture_Info,std::allocator<CGuildHouseBase::GuildHouse_Furniture_Info> >::const_iterator::operator-, COMDAT
; _this$ = ecx

; 141  : 
; 142  : 
; 143  : 			return (_Myptr - _Right._Myptr);

  00000	8b 44 24 04	 mov	 eax, DWORD PTR __Right$[esp-4]
  00004	8b 10		 mov	 edx, DWORD PTR [eax]
  00006	8b 09		 mov	 ecx, DWORD PTR [ecx]
  00008	2b ca		 sub	 ecx, edx
  0000a	b8 39 8e e3 38	 mov	 eax, 954437177		; 38e38e39H
  0000f	f7 e9		 imul	 ecx
  00011	c1 fa 03	 sar	 edx, 3
  00014	8b c2		 mov	 eax, edx
  00016	c1 e8 1f	 shr	 eax, 31			; 0000001fH
  00019	03 c2		 add	 eax, edx

; 144  : 			}

  0001b	c2 04 00	 ret	 4
??Gconst_iterator@?$vector@UGuildHouse_Furniture_Info@CGuildHouseBase@@V?$allocator@UGuildHouse_Furniture_Info@CGuildHouseBase@@@std@@@std@@QBEHABV012@@Z ENDP ; std::vector<CGuildHouseBase::GuildHouse_Furniture_Info,std::allocator<CGuildHouseBase::GuildHouse_Furniture_Info> >::const_iterator::operator-
_TEXT	ENDS
PUBLIC	??0_Node@?$_Tree_nod@V?$_Tmap_traits@KPAVCGuildHouseBase@@U?$less@K@std@@V?$allocator@U?$pair@$$CBKPAVCGuildHouseBase@@@std@@@3@$0A@@std@@@std@@QAE@PAU012@00ABU?$pair@$$CBKPAVCGuildHouseBase@@@2@D@Z ; std::_Tree_nod<std::_Tmap_traits<unsigned long,CGuildHouseBase *,std::less<unsigned long>,std::allocator<std::pair<unsigned long const ,CGuildHouseBase *> >,0> >::_Node::_Node
; Function compile flags: /Ogty
; File c:\program files\microsoft visual studio .net 2003\vc7\include\xtree
;	COMDAT ??0_Node@?$_Tree_nod@V?$_Tmap_traits@KPAVCGuildHouseBase@@U?$less@K@std@@V?$allocator@U?$pair@$$CBKPAVCGuildHouseBase@@@std@@@3@$0A@@std@@@std@@QAE@PAU012@00ABU?$pair@$$CBKPAVCGuildHouseBase@@@2@D@Z
_TEXT	SEGMENT
__Larg$ = 8						; size = 4
__Parg$ = 12						; size = 4
__Rarg$ = 16						; size = 4
__Val$ = 20						; size = 4
__Carg$ = 24						; size = 1
??0_Node@?$_Tree_nod@V?$_Tmap_traits@KPAVCGuildHouseBase@@U?$less@K@std@@V?$allocator@U?$pair@$$CBKPAVCGuildHouseBase@@@std@@@3@$0A@@std@@@std@@QAE@PAU012@00ABU?$pair@$$CBKPAVCGuildHouseBase@@@2@D@Z PROC NEAR ; std::_Tree_nod<std::_Tmap_traits<unsigned long,CGuildHouseBase *,std::less<unsigned long>,std::allocator<std::pair<unsigned long const ,CGuildHouseBase *> >,0> >::_Node::_Node, COMDAT
; _this$ = ecx

; 40   : 			{	// construct a node with value

  00000	8b 54 24 08	 mov	 edx, DWORD PTR __Parg$[esp-4]
  00004	8b c1		 mov	 eax, ecx
  00006	8b 4c 24 04	 mov	 ecx, DWORD PTR __Larg$[esp-4]
  0000a	89 08		 mov	 DWORD PTR [eax], ecx
  0000c	8b 4c 24 0c	 mov	 ecx, DWORD PTR __Rarg$[esp-4]
  00010	89 48 08	 mov	 DWORD PTR [eax+8], ecx
  00013	8b 4c 24 10	 mov	 ecx, DWORD PTR __Val$[esp-4]
  00017	89 50 04	 mov	 DWORD PTR [eax+4], edx
  0001a	8b 11		 mov	 edx, DWORD PTR [ecx]
  0001c	89 50 0c	 mov	 DWORD PTR [eax+12], edx
  0001f	8b 49 04	 mov	 ecx, DWORD PTR [ecx+4]
  00022	8a 54 24 14	 mov	 dl, BYTE PTR __Carg$[esp-4]
  00026	89 48 10	 mov	 DWORD PTR [eax+16], ecx
  00029	88 50 14	 mov	 BYTE PTR [eax+20], dl
  0002c	c6 40 15 00	 mov	 BYTE PTR [eax+21], 0

; 41   : 			}

  00030	c2 14 00	 ret	 20			; 00000014H
??0_Node@?$_Tree_nod@V?$_Tmap_traits@KPAVCGuildHouseBase@@U?$less@K@std@@V?$allocator@U?$pair@$$CBKPAVCGuildHouseBase@@@std@@@3@$0A@@std@@@std@@QAE@PAU012@00ABU?$pair@$$CBKPAVCGuildHouseBase@@@2@D@Z ENDP ; std::_Tree_nod<std::_Tmap_traits<unsigned long,CGuildHouseBase *,std::less<unsigned long>,std::allocator<std::pair<unsigned long const ,CGuildHouseBase *> >,0> >::_Node::_Node
_TEXT	ENDS
PUBLIC	??8const_iterator@?$vector@UGuildHouse_Furniture_Info@CGuildHouseBase@@V?$allocator@UGuildHouse_Furniture_Info@CGuildHouseBase@@@std@@@std@@QBE_NABV012@@Z ; std::vector<CGuildHouseBase::GuildHouse_Furniture_Info,std::allocator<CGuildHouseBase::GuildHouse_Furniture_Info> >::const_iterator::operator==
; Function compile flags: /Ogty
; File c:\program files\microsoft visual studio .net 2003\vc7\include\vector
;	COMDAT ??8const_iterator@?$vector@UGuildHouse_Furniture_Info@CGuildHouseBase@@V?$allocator@UGuildHouse_Furniture_Info@CGuildHouseBase@@@std@@@std@@QBE_NABV012@@Z
_TEXT	SEGMENT
__Right$ = 8						; size = 4
??8const_iterator@?$vector@UGuildHouse_Furniture_Info@CGuildHouseBase@@V?$allocator@UGuildHouse_Furniture_Info@CGuildHouseBase@@@std@@@std@@QBE_NABV012@@Z PROC NEAR ; std::vector<CGuildHouseBase::GuildHouse_Furniture_Info,std::allocator<CGuildHouseBase::GuildHouse_Furniture_Info> >::const_iterator::operator==, COMDAT
; _this$ = ecx

; 153  : 
; 154  : 
; 155  : 			return (_Myptr == _Right._Myptr);

  00000	8b 01		 mov	 eax, DWORD PTR [ecx]
  00002	8b 4c 24 04	 mov	 ecx, DWORD PTR __Right$[esp-4]
  00006	2b 01		 sub	 eax, DWORD PTR [ecx]
  00008	f7 d8		 neg	 eax
  0000a	1b c0		 sbb	 eax, eax
  0000c	40		 inc	 eax

; 156  : 			}

  0000d	c2 04 00	 ret	 4
??8const_iterator@?$vector@UGuildHouse_Furniture_Info@CGuildHouseBase@@V?$allocator@UGuildHouse_Furniture_Info@CGuildHouseBase@@@std@@@std@@QBE_NABV012@@Z ENDP ; std::vector<CGuildHouseBase::GuildHouse_Furniture_Info,std::allocator<CGuildHouseBase::GuildHouse_Furniture_Info> >::const_iterator::operator==
_TEXT	ENDS
PUBLIC	??0?$_Tmap_traits@KPAVCGuildHouseBase@@U?$less@K@std@@V?$allocator@U?$pair@$$CBKPAVCGuildHouseBase@@@std@@@3@$0A@@std@@QAE@U?$less@K@1@@Z ; std::_Tmap_traits<unsigned long,CGuildHouseBase *,std::less<unsigned long>,std::allocator<std::pair<unsigned long const ,CGuildHouseBase *> >,0>::_Tmap_traits<unsigned long,CGuildHouseBase *,std::less<unsigned long>,std::allocator<std::pair<unsigned long const ,CGuildHouseBase *> >,0>
; Function compile flags: /Ogty
; File c:\program files\microsoft visual studio .net 2003\vc7\include\map
;	COMDAT ??0?$_Tmap_traits@KPAVCGuildHouseBase@@U?$less@K@std@@V?$allocator@U?$pair@$$CBKPAVCGuildHouseBase@@@std@@@3@$0A@@std@@QAE@U?$less@K@1@@Z
_TEXT	SEGMENT
__Parg$ = 8						; size = 1
??0?$_Tmap_traits@KPAVCGuildHouseBase@@U?$less@K@std@@V?$allocator@U?$pair@$$CBKPAVCGuildHouseBase@@@std@@@3@$0A@@std@@QAE@U?$less@K@1@@Z PROC NEAR ; std::_Tmap_traits<unsigned long,CGuildHouseBase *,std::less<unsigned long>,std::allocator<std::pair<unsigned long const ,CGuildHouseBase *> >,0>::_Tmap_traits<unsigned long,CGuildHouseBase *,std::less<unsigned long>,std::allocator<std::pair<unsigned long const ,CGuildHouseBase *> >,0>, COMDAT
; _this$ = ecx

; 38   : 		{	// construct with specified comparator

  00000	8b c1		 mov	 eax, ecx

; 39   : 		}

  00002	c2 04 00	 ret	 4
??0?$_Tmap_traits@KPAVCGuildHouseBase@@U?$less@K@std@@V?$allocator@U?$pair@$$CBKPAVCGuildHouseBase@@@std@@@3@$0A@@std@@QAE@U?$less@K@1@@Z ENDP ; std::_Tmap_traits<unsigned long,CGuildHouseBase *,std::less<unsigned long>,std::allocator<std::pair<unsigned long const ,CGuildHouseBase *> >,0>::_Tmap_traits<unsigned long,CGuildHouseBase *,std::less<unsigned long>,std::allocator<std::pair<unsigned long const ,CGuildHouseBase *> >,0>
_TEXT	ENDS
PUBLIC	??$?0KPAVCGuildHouseBase@@@?$pair@$$CBKPAVCGuildHouseBase@@@std@@QAE@ABU?$pair@KPAVCGuildHouseBase@@@1@@Z ; std::pair<unsigned long const ,CGuildHouseBase *>::pair<unsigned long const ,CGuildHouseBase *><unsigned long,CGuildHouseBase *>
; Function compile flags: /Ogty
; File c:\program files\microsoft visual studio .net 2003\vc7\include\utility
;	COMDAT ??$?0KPAVCGuildHouseBase@@@?$pair@$$CBKPAVCGuildHouseBase@@@std@@QAE@ABU?$pair@KPAVCGuildHouseBase@@@1@@Z
_TEXT	SEGMENT
__Right$ = 8						; size = 4
??$?0KPAVCGuildHouseBase@@@?$pair@$$CBKPAVCGuildHouseBase@@@std@@QAE@ABU?$pair@KPAVCGuildHouseBase@@@1@@Z PROC NEAR ; std::pair<unsigned long const ,CGuildHouseBase *>::pair<unsigned long const ,CGuildHouseBase *><unsigned long,CGuildHouseBase *>, COMDAT
; _this$ = ecx

; 41   : 		{	// construct from compatible pair

  00000	8b c1		 mov	 eax, ecx
  00002	8b 4c 24 04	 mov	 ecx, DWORD PTR __Right$[esp-4]
  00006	8b 11		 mov	 edx, DWORD PTR [ecx]
  00008	89 10		 mov	 DWORD PTR [eax], edx
  0000a	8b 49 04	 mov	 ecx, DWORD PTR [ecx+4]
  0000d	89 48 04	 mov	 DWORD PTR [eax+4], ecx

; 42   : 		}

  00010	c2 04 00	 ret	 4
??$?0KPAVCGuildHouseBase@@@?$pair@$$CBKPAVCGuildHouseBase@@@std@@QAE@ABU?$pair@KPAVCGuildHouseBase@@@1@@Z ENDP ; std::pair<unsigned long const ,CGuildHouseBase *>::pair<unsigned long const ,CGuildHouseBase *><unsigned long,CGuildHouseBase *>
_TEXT	ENDS
PUBLIC	??$_Destroy@U_Node@?$_Tree_nod@V?$_Tmap_traits@KPAVCGuildHouseBase@@U?$less@K@std@@V?$allocator@U?$pair@$$CBKPAVCGuildHouseBase@@@std@@@3@$0A@@std@@@std@@@std@@YAXPAU_Node@?$_Tree_nod@V?$_Tmap_traits@KPAVCGuildHouseBase@@U?$less@K@std@@V?$allocator@U?$pair@$$CBKPAVCGuildHouseBase@@@std@@@3@$0A@@std@@@0@@Z ; std::_Destroy<std::_Tree_nod<std::_Tmap_traits<unsigned long,CGuildHouseBase *,std::less<unsigned long>,std::allocator<std::pair<unsigned long const ,CGuildHouseBase *> >,0> >::_Node>
; Function compile flags: /Ogty
; File c:\program files\microsoft visual studio .net 2003\vc7\include\xmemory
;	COMDAT ??$_Destroy@U_Node@?$_Tree_nod@V?$_Tmap_traits@KPAVCGuildHouseBase@@U?$less@K@std@@V?$allocator@U?$pair@$$CBKPAVCGuildHouseBase@@@std@@@3@$0A@@std@@@std@@@std@@YAXPAU_Node@?$_Tree_nod@V?$_Tmap_traits@KPAVCGuildHouseBase@@U?$less@K@std@@V?$allocator@U?$pair@$$CBKPAVCGuildHouseBase@@@std@@@3@$0A@@std@@@0@@Z
_TEXT	SEGMENT
__Ptr$ = 8						; size = 4
??$_Destroy@U_Node@?$_Tree_nod@V?$_Tmap_traits@KPAVCGuildHouseBase@@U?$less@K@std@@V?$allocator@U?$pair@$$CBKPAVCGuildHouseBase@@@std@@@3@$0A@@std@@@std@@@std@@YAXPAU_Node@?$_Tree_nod@V?$_Tmap_traits@KPAVCGuildHouseBase@@U?$less@K@std@@V?$allocator@U?$pair@$$CBKPAVCGuildHouseBase@@@std@@@3@$0A@@std@@@0@@Z PROC NEAR ; std::_Destroy<std::_Tree_nod<std::_Tmap_traits<unsigned long,CGuildHouseBase *,std::less<unsigned long>,std::allocator<std::pair<unsigned long const ,CGuildHouseBase *> >,0> >::_Node>, COMDAT

; 49   : 	_DESTRUCTOR(_Ty, _Ptr);
; 50   : 	}

  00000	c3		 ret	 0
??$_Destroy@U_Node@?$_Tree_nod@V?$_Tmap_traits@KPAVCGuildHouseBase@@U?$less@K@std@@V?$allocator@U?$pair@$$CBKPAVCGuildHouseBase@@@std@@@3@$0A@@std@@@std@@@std@@YAXPAU_Node@?$_Tree_nod@V?$_Tmap_traits@KPAVCGuildHouseBase@@U?$less@K@std@@V?$allocator@U?$pair@$$CBKPAVCGuildHouseBase@@@std@@@3@$0A@@std@@@0@@Z ENDP ; std::_Destroy<std::_Tree_nod<std::_Tmap_traits<unsigned long,CGuildHouseBase *,std::less<unsigned long>,std::allocator<std::pair<unsigned long const ,CGuildHouseBase *> >,0> >::_Node>
_TEXT	ENDS
PUBLIC	??$fill@PAUGuildHouse_Furniture_Info@CGuildHouseBase@@U12@@std@@YAXPAUGuildHouse_Furniture_Info@CGuildHouseBase@@0ABU12@@Z ; std::fill<CGuildHouseBase::GuildHouse_Furniture_Info *,CGuildHouseBase::GuildHouse_Furniture_Info>
; Function compile flags: /Ogty
; File c:\program files\microsoft visual studio .net 2003\vc7\include\xutility
;	COMDAT ??$fill@PAUGuildHouse_Furniture_Info@CGuildHouseBase@@U12@@std@@YAXPAUGuildHouse_Furniture_Info@CGuildHouseBase@@0ABU12@@Z
_TEXT	SEGMENT
__First$ = 8						; size = 4
__Last$ = 12						; size = 4
__Val$ = 16						; size = 4
??$fill@PAUGuildHouse_Furniture_Info@CGuildHouseBase@@U12@@std@@YAXPAUGuildHouse_Furniture_Info@CGuildHouseBase@@0ABU12@@Z PROC NEAR ; std::fill<CGuildHouseBase::GuildHouse_Furniture_Info *,CGuildHouseBase::GuildHouse_Furniture_Info>, COMDAT

; 1135 : 	for (; _First != _Last; ++_First)

  00000	8b 44 24 04	 mov	 eax, DWORD PTR __First$[esp-4]
  00004	8b 54 24 08	 mov	 edx, DWORD PTR __Last$[esp-4]
  00008	3b c2		 cmp	 eax, edx
  0000a	74 1c		 je	 SHORT $L193471
  0000c	53		 push	 ebx
  0000d	8b 5c 24 10	 mov	 ebx, DWORD PTR __Val$[esp]
  00011	56		 push	 esi
  00012	57		 push	 edi
$L193469:

; 1136 : 		*_First = _Val;

  00013	8b f8		 mov	 edi, eax
  00015	83 c0 24	 add	 eax, 36			; 00000024H
  00018	3b c2		 cmp	 eax, edx
  0001a	b9 09 00 00 00	 mov	 ecx, 9
  0001f	8b f3		 mov	 esi, ebx
  00021	f3 a5		 rep movsd
  00023	75 ee		 jne	 SHORT $L193469
  00025	5f		 pop	 edi
  00026	5e		 pop	 esi
  00027	5b		 pop	 ebx
$L193471:

; 1137 : 	}

  00028	c3		 ret	 0
??$fill@PAUGuildHouse_Furniture_Info@CGuildHouseBase@@U12@@std@@YAXPAUGuildHouse_Furniture_Info@CGuildHouseBase@@0ABU12@@Z ENDP ; std::fill<CGuildHouseBase::GuildHouse_Furniture_Info *,CGuildHouseBase::GuildHouse_Furniture_Info>
_TEXT	ENDS
PUBLIC	??$_Allocate@UGuildHouse_Furniture_Info@CGuildHouseBase@@@std@@YAPAUGuildHouse_Furniture_Info@CGuildHouseBase@@IPAU12@@Z ; std::_Allocate<CGuildHouseBase::GuildHouse_Furniture_Info>
EXTRN	??2@YAPAXI@Z:NEAR				; operator new
; Function compile flags: /Ogty
; File c:\program files\microsoft visual studio .net 2003\vc7\include\xmemory
;	COMDAT ??$_Allocate@UGuildHouse_Furniture_Info@CGuildHouseBase@@@std@@YAPAUGuildHouse_Furniture_Info@CGuildHouseBase@@IPAU12@@Z
_TEXT	SEGMENT
__Count$ = 8						; size = 4
___formal$ = 12						; size = 4
??$_Allocate@UGuildHouse_Furniture_Info@CGuildHouseBase@@@std@@YAPAUGuildHouse_Furniture_Info@CGuildHouseBase@@IPAU12@@Z PROC NEAR ; std::_Allocate<CGuildHouseBase::GuildHouse_Furniture_Info>, COMDAT

; 34   : 	return ((_Ty _FARQ *)operator new(_Count * sizeof (_Ty)));

  00000	8b 44 24 04	 mov	 eax, DWORD PTR __Count$[esp-4]
  00004	8d 04 c0	 lea	 eax, DWORD PTR [eax+eax*8]
  00007	c1 e0 02	 shl	 eax, 2
  0000a	50		 push	 eax
  0000b	e8 00 00 00 00	 call	 ??2@YAPAXI@Z		; operator new
  00010	83 c4 04	 add	 esp, 4

; 35   : 	}

  00013	c3		 ret	 0
??$_Allocate@UGuildHouse_Furniture_Info@CGuildHouseBase@@@std@@YAPAUGuildHouse_Furniture_Info@CGuildHouseBase@@IPAU12@@Z ENDP ; std::_Allocate<CGuildHouseBase::GuildHouse_Furniture_Info>
_TEXT	ENDS
PUBLIC	??$_Destroy@PAU_Node@?$_Tree_nod@V?$_Tmap_traits@KPAVCGuildHouseBase@@U?$less@K@std@@V?$allocator@U?$pair@$$CBKPAVCGuildHouseBase@@@std@@@3@$0A@@std@@@std@@@std@@YAXPAPAU_Node@?$_Tree_nod@V?$_Tmap_traits@KPAVCGuildHouseBase@@U?$less@K@std@@V?$allocator@U?$pair@$$CBKPAVCGuildHouseBase@@@std@@@3@$0A@@std@@@0@@Z ; std::_Destroy<std::_Tree_nod<std::_Tmap_traits<unsigned long,CGuildHouseBase *,std::less<unsigned long>,std::allocator<std::pair<unsigned long const ,CGuildHouseBase *> >,0> >::_Node *>
; Function compile flags: /Ogty
;	COMDAT ??$_Destroy@PAU_Node@?$_Tree_nod@V?$_Tmap_traits@KPAVCGuildHouseBase@@U?$less@K@std@@V?$allocator@U?$pair@$$CBKPAVCGuildHouseBase@@@std@@@3@$0A@@std@@@std@@@std@@YAXPAPAU_Node@?$_Tree_nod@V?$_Tmap_traits@KPAVCGuildHouseBase@@U?$less@K@std@@V?$allocator@U?$pair@$$CBKPAVCGuildHouseBase@@@std@@@3@$0A@@std@@@0@@Z
_TEXT	SEGMENT
__Ptr$ = 8						; size = 4
??$_Destroy@PAU_Node@?$_Tree_nod@V?$_Tmap_traits@KPAVCGuildHouseBase@@U?$less@K@std@@V?$allocator@U?$pair@$$CBKPAVCGuildHouseBase@@@std@@@3@$0A@@std@@@std@@@std@@YAXPAPAU_Node@?$_Tree_nod@V?$_Tmap_traits@KPAVCGuildHouseBase@@U?$less@K@std@@V?$allocator@U?$pair@$$CBKPAVCGuildHouseBase@@@std@@@3@$0A@@std@@@0@@Z PROC NEAR ; std::_Destroy<std::_Tree_nod<std::_Tmap_traits<unsigned long,CGuildHouseBase *,std::less<unsigned long>,std::allocator<std::pair<unsigned long const ,CGuildHouseBase *> >,0> >::_Node *>, COMDAT

; 49   : 	_DESTRUCTOR(_Ty, _Ptr);
; 50   : 	}

  00000	c3		 ret	 0
??$_Destroy@PAU_Node@?$_Tree_nod@V?$_Tmap_traits@KPAVCGuildHouseBase@@U?$less@K@std@@V?$allocator@U?$pair@$$CBKPAVCGuildHouseBase@@@std@@@3@$0A@@std@@@std@@@std@@YAXPAPAU_Node@?$_Tree_nod@V?$_Tmap_traits@KPAVCGuildHouseBase@@U?$less@K@std@@V?$allocator@U?$pair@$$CBKPAVCGuildHouseBase@@@std@@@3@$0A@@std@@@0@@Z ENDP ; std::_Destroy<std::_Tree_nod<std::_Tmap_traits<unsigned long,CGuildHouseBase *,std::less<unsigned long>,std::allocator<std::pair<unsigned long const ,CGuildHouseBase *> >,0> >::_Node *>
_TEXT	ENDS
PUBLIC	??$?0U?$pair@$$CBKPAVCGuildHouseBase@@@std@@@?$allocator@PAU_Node@?$_Tree_nod@V?$_Tmap_traits@KPAVCGuildHouseBase@@U?$less@K@std@@V?$allocator@U?$pair@$$CBKPAVCGuildHouseBase@@@std@@@3@$0A@@std@@@std@@@std@@QAE@ABV?$allocator@U?$pair@$$CBKPAVCGuildHouseBase@@@std@@@1@@Z ; std::allocator<std::_Tree_nod<std::_Tmap_traits<unsigned long,CGuildHouseBase *,std::less<unsigned long>,std::allocator<std::pair<unsigned long const ,CGuildHouseBase *> >,0> >::_Node *>::allocator<std::_Tree_nod<std::_Tmap_traits<unsigned long,CGuildHouseBase *,std::less<unsigned long>,std::allocator<std::pair<unsigned long const ,CGuildHouseBase *> >,0> >::_Node *><std::pair<unsigned long const ,CGuildHouseBase *> >
; Function compile flags: /Ogty
;	COMDAT ??$?0U?$pair@$$CBKPAVCGuildHouseBase@@@std@@@?$allocator@PAU_Node@?$_Tree_nod@V?$_Tmap_traits@KPAVCGuildHouseBase@@U?$less@K@std@@V?$allocator@U?$pair@$$CBKPAVCGuildHouseBase@@@std@@@3@$0A@@std@@@std@@@std@@QAE@ABV?$allocator@U?$pair@$$CBKPAVCGuildHouseBase@@@std@@@1@@Z
_TEXT	SEGMENT
___formal$ = 8						; size = 4
??$?0U?$pair@$$CBKPAVCGuildHouseBase@@@std@@@?$allocator@PAU_Node@?$_Tree_nod@V?$_Tmap_traits@KPAVCGuildHouseBase@@U?$less@K@std@@V?$allocator@U?$pair@$$CBKPAVCGuildHouseBase@@@std@@@3@$0A@@std@@@std@@@std@@QAE@ABV?$allocator@U?$pair@$$CBKPAVCGuildHouseBase@@@std@@@1@@Z PROC NEAR ; std::allocator<std::_Tree_nod<std::_Tmap_traits<unsigned long,CGuildHouseBase *,std::less<unsigned long>,std::allocator<std::pair<unsigned long const ,CGuildHouseBase *> >,0> >::_Node *>::allocator<std::_Tree_nod<std::_Tmap_traits<unsigned long,CGuildHouseBase *,std::less<unsigned long>,std::allocator<std::pair<unsigned long const ,CGuildHouseBase *> >,0> >::_Node *><std::pair<unsigned long const ,CGuildHouseBase *> >, COMDAT
; _this$ = ecx

; 120  : 		allocator(const allocator<_Other>&)

  00000	8b c1		 mov	 eax, ecx

; 121  : 		{	// construct from a related allocator (do nothing)
; 122  : 		}

  00002	c2 04 00	 ret	 4
??$?0U?$pair@$$CBKPAVCGuildHouseBase@@@std@@@?$allocator@PAU_Node@?$_Tree_nod@V?$_Tmap_traits@KPAVCGuildHouseBase@@U?$less@K@std@@V?$allocator@U?$pair@$$CBKPAVCGuildHouseBase@@@std@@@3@$0A@@std@@@std@@@std@@QAE@ABV?$allocator@U?$pair@$$CBKPAVCGuildHouseBase@@@std@@@1@@Z ENDP ; std::allocator<std::_Tree_nod<std::_Tmap_traits<unsigned long,CGuildHouseBase *,std::less<unsigned long>,std::allocator<std::pair<unsigned long const ,CGuildHouseBase *> >,0> >::_Node *>::allocator<std::_Tree_nod<std::_Tmap_traits<unsigned long,CGuildHouseBase *,std::less<unsigned long>,std::allocator<std::pair<unsigned long const ,CGuildHouseBase *> >,0> >::_Node *><std::pair<unsigned long const ,CGuildHouseBase *> >
_TEXT	ENDS
PUBLIC	??$_Allocate@U_Node@?$_Tree_nod@V?$_Tmap_traits@KPAVCGuildHouseBase@@U?$less@K@std@@V?$allocator@U?$pair@$$CBKPAVCGuildHouseBase@@@std@@@3@$0A@@std@@@std@@@std@@YAPAU_Node@?$_Tree_nod@V?$_Tmap_traits@KPAVCGuildHouseBase@@U?$less@K@std@@V?$allocator@U?$pair@$$CBKPAVCGuildHouseBase@@@std@@@3@$0A@@std@@@0@IPAU120@@Z ; std::_Allocate<std::_Tree_nod<std::_Tmap_traits<unsigned long,CGuildHouseBase *,std::less<unsigned long>,std::allocator<std::pair<unsigned long const ,CGuildHouseBase *> >,0> >::_Node>
; Function compile flags: /Ogty
;	COMDAT ??$_Allocate@U_Node@?$_Tree_nod@V?$_Tmap_traits@KPAVCGuildHouseBase@@U?$less@K@std@@V?$allocator@U?$pair@$$CBKPAVCGuildHouseBase@@@std@@@3@$0A@@std@@@std@@@std@@YAPAU_Node@?$_Tree_nod@V?$_Tmap_traits@KPAVCGuildHouseBase@@U?$less@K@std@@V?$allocator@U?$pair@$$CBKPAVCGuildHouseBase@@@std@@@3@$0A@@std@@@0@IPAU120@@Z
_TEXT	SEGMENT
__Count$ = 8						; size = 4
___formal$ = 12						; size = 4
??$_Allocate@U_Node@?$_Tree_nod@V?$_Tmap_traits@KPAVCGuildHouseBase@@U?$less@K@std@@V?$allocator@U?$pair@$$CBKPAVCGuildHouseBase@@@std@@@3@$0A@@std@@@std@@@std@@YAPAU_Node@?$_Tree_nod@V?$_Tmap_traits@KPAVCGuildHouseBase@@U?$less@K@std@@V?$allocator@U?$pair@$$CBKPAVCGuildHouseBase@@@std@@@3@$0A@@std@@@0@IPAU120@@Z PROC NEAR ; std::_Allocate<std::_Tree_nod<std::_Tmap_traits<unsigned long,CGuildHouseBase *,std::less<unsigned long>,std::allocator<std::pair<unsigned long const ,CGuildHouseBase *> >,0> >::_Node>, COMDAT

; 34   : 	return ((_Ty _FARQ *)operator new(_Count * sizeof (_Ty)));

  00000	8b 44 24 04	 mov	 eax, DWORD PTR __Count$[esp-4]
  00004	8d 04 40	 lea	 eax, DWORD PTR [eax+eax*2]
  00007	c1 e0 03	 shl	 eax, 3
  0000a	50		 push	 eax
  0000b	e8 00 00 00 00	 call	 ??2@YAPAXI@Z		; operator new
  00010	83 c4 04	 add	 esp, 4

; 35   : 	}

  00013	c3		 ret	 0
??$_Allocate@U_Node@?$_Tree_nod@V?$_Tmap_traits@KPAVCGuildHouseBase@@U?$less@K@std@@V?$allocator@U?$pair@$$CBKPAVCGuildHouseBase@@@std@@@3@$0A@@std@@@std@@@std@@YAPAU_Node@?$_Tree_nod@V?$_Tmap_traits@KPAVCGuildHouseBase@@U?$less@K@std@@V?$allocator@U?$pair@$$CBKPAVCGuildHouseBase@@@std@@@3@$0A@@std@@@0@IPAU120@@Z ENDP ; std::_Allocate<std::_Tree_nod<std::_Tmap_traits<unsigned long,CGuildHouseBase *,std::less<unsigned long>,std::allocator<std::pair<unsigned long const ,CGuildHouseBase *> >,0> >::_Node>
_TEXT	ENDS
PUBLIC	??$?0U?$pair@$$CBKPAVCGuildHouseBase@@@std@@@?$allocator@U_Node@?$_Tree_nod@V?$_Tmap_traits@KPAVCGuildHouseBase@@U?$less@K@std@@V?$allocator@U?$pair@$$CBKPAVCGuildHouseBase@@@std@@@3@$0A@@std@@@std@@@std@@QAE@ABV?$allocator@U?$pair@$$CBKPAVCGuildHouseBase@@@std@@@1@@Z ; std::allocator<std::_Tree_nod<std::_Tmap_traits<unsigned long,CGuildHouseBase *,std::less<unsigned long>,std::allocator<std::pair<unsigned long const ,CGuildHouseBase *> >,0> >::_Node>::allocator<std::_Tree_nod<std::_Tmap_traits<unsigned long,CGuildHouseBase *,std::less<unsigned long>,std::allocator<std::pair<unsigned long const ,CGuildHouseBase *> >,0> >::_Node><std::pair<unsigned long const ,CGuildHouseBase *> >
; Function compile flags: /Ogty
;	COMDAT ??$?0U?$pair@$$CBKPAVCGuildHouseBase@@@std@@@?$allocator@U_Node@?$_Tree_nod@V?$_Tmap_traits@KPAVCGuildHouseBase@@U?$less@K@std@@V?$allocator@U?$pair@$$CBKPAVCGuildHouseBase@@@std@@@3@$0A@@std@@@std@@@std@@QAE@ABV?$allocator@U?$pair@$$CBKPAVCGuildHouseBase@@@std@@@1@@Z
_TEXT	SEGMENT
___formal$ = 8						; size = 4
??$?0U?$pair@$$CBKPAVCGuildHouseBase@@@std@@@?$allocator@U_Node@?$_Tree_nod@V?$_Tmap_traits@KPAVCGuildHouseBase@@U?$less@K@std@@V?$allocator@U?$pair@$$CBKPAVCGuildHouseBase@@@std@@@3@$0A@@std@@@std@@@std@@QAE@ABV?$allocator@U?$pair@$$CBKPAVCGuildHouseBase@@@std@@@1@@Z PROC NEAR ; std::allocator<std::_Tree_nod<std::_Tmap_traits<unsigned long,CGuildHouseBase *,std::less<unsigned long>,std::allocator<std::pair<unsigned long const ,CGuildHouseBase *> >,0> >::_Node>::allocator<std::_Tree_nod<std::_Tmap_traits<unsigned long,CGuildHouseBase *,std::less<unsigned long>,std::allocator<std::pair<unsigned long const ,CGuildHouseBase *> >,0> >::_Node><std::pair<unsigned long const ,CGuildHouseBase *> >, COMDAT
; _this$ = ecx

; 120  : 		allocator(const allocator<_Other>&)

  00000	8b c1		 mov	 eax, ecx

; 121  : 		{	// construct from a related allocator (do nothing)
; 122  : 		}

  00002	c2 04 00	 ret	 4
??$?0U?$pair@$$CBKPAVCGuildHouseBase@@@std@@@?$allocator@U_Node@?$_Tree_nod@V?$_Tmap_traits@KPAVCGuildHouseBase@@U?$less@K@std@@V?$allocator@U?$pair@$$CBKPAVCGuildHouseBase@@@std@@@3@$0A@@std@@@std@@@std@@QAE@ABV?$allocator@U?$pair@$$CBKPAVCGuildHouseBase@@@std@@@1@@Z ENDP ; std::allocator<std::_Tree_nod<std::_Tmap_traits<unsigned long,CGuildHouseBase *,std::less<unsigned long>,std::allocator<std::pair<unsigned long const ,CGuildHouseBase *> >,0> >::_Node>::allocator<std::_Tree_nod<std::_Tmap_traits<unsigned long,CGuildHouseBase *,std::less<unsigned long>,std::allocator<std::pair<unsigned long const ,CGuildHouseBase *> >,0> >::_Node><std::pair<unsigned long const ,CGuildHouseBase *> >
_TEXT	ENDS
PUBLIC	??$_Construct@PAU_Node@?$_Tree_nod@V?$_Tmap_traits@KPAVCGuildHouseBase@@U?$less@K@std@@V?$allocator@U?$pair@$$CBKPAVCGuildHouseBase@@@std@@@3@$0A@@std@@@std@@PAU123@@std@@YAXPAPAU_Node@?$_Tree_nod@V?$_Tmap_traits@KPAVCGuildHouseBase@@U?$less@K@std@@V?$allocator@U?$pair@$$CBKPAVCGuildHouseBase@@@std@@@3@$0A@@std@@@0@ABQAU120@@Z ; std::_Construct<std::_Tree_nod<std::_Tmap_traits<unsigned long,CGuildHouseBase *,std::less<unsigned long>,std::allocator<std::pair<unsigned long const ,CGuildHouseBase *> >,0> >::_Node *,std::_Tree_nod<std::_Tmap_traits<unsigned long,CGuildHouseBase *,std::less<unsigned long>,std::allocator<std::pair<unsigned long const ,CGuildHouseBase *> >,0> >::_Node *>
; Function compile flags: /Ogty
;	COMDAT ??$_Construct@PAU_Node@?$_Tree_nod@V?$_Tmap_traits@KPAVCGuildHouseBase@@U?$less@K@std@@V?$allocator@U?$pair@$$CBKPAVCGuildHouseBase@@@std@@@3@$0A@@std@@@std@@PAU123@@std@@YAXPAPAU_Node@?$_Tree_nod@V?$_Tmap_traits@KPAVCGuildHouseBase@@U?$less@K@std@@V?$allocator@U?$pair@$$CBKPAVCGuildHouseBase@@@std@@@3@$0A@@std@@@0@ABQAU120@@Z
_TEXT	SEGMENT
__Ptr$ = 8						; size = 4
__Val$ = 12						; size = 4
??$_Construct@PAU_Node@?$_Tree_nod@V?$_Tmap_traits@KPAVCGuildHouseBase@@U?$less@K@std@@V?$allocator@U?$pair@$$CBKPAVCGuildHouseBase@@@std@@@3@$0A@@std@@@std@@PAU123@@std@@YAXPAPAU_Node@?$_Tree_nod@V?$_Tmap_traits@KPAVCGuildHouseBase@@U?$less@K@std@@V?$allocator@U?$pair@$$CBKPAVCGuildHouseBase@@@std@@@3@$0A@@std@@@0@ABQAU120@@Z PROC NEAR ; std::_Construct<std::_Tree_nod<std::_Tmap_traits<unsigned long,CGuildHouseBase *,std::less<unsigned long>,std::allocator<std::pair<unsigned long const ,CGuildHouseBase *> >,0> >::_Node *,std::_Tree_nod<std::_Tmap_traits<unsigned long,CGuildHouseBase *,std::less<unsigned long>,std::allocator<std::pair<unsigned long const ,CGuildHouseBase *> >,0> >::_Node *>, COMDAT

; 42   : 	new ((void _FARQ *)_Ptr) _T1(_Val);

  00000	8b 44 24 04	 mov	 eax, DWORD PTR __Ptr$[esp-4]
  00004	85 c0		 test	 eax, eax
  00006	74 08		 je	 SHORT $L194256
  00008	8b 4c 24 08	 mov	 ecx, DWORD PTR __Val$[esp-4]
  0000c	8b 11		 mov	 edx, DWORD PTR [ecx]
  0000e	89 10		 mov	 DWORD PTR [eax], edx
$L194256:

; 43   : 	}

  00010	c3		 ret	 0
??$_Construct@PAU_Node@?$_Tree_nod@V?$_Tmap_traits@KPAVCGuildHouseBase@@U?$less@K@std@@V?$allocator@U?$pair@$$CBKPAVCGuildHouseBase@@@std@@@3@$0A@@std@@@std@@PAU123@@std@@YAXPAPAU_Node@?$_Tree_nod@V?$_Tmap_traits@KPAVCGuildHouseBase@@U?$less@K@std@@V?$allocator@U?$pair@$$CBKPAVCGuildHouseBase@@@std@@@3@$0A@@std@@@0@ABQAU120@@Z ENDP ; std::_Construct<std::_Tree_nod<std::_Tmap_traits<unsigned long,CGuildHouseBase *,std::less<unsigned long>,std::allocator<std::pair<unsigned long const ,CGuildHouseBase *> >,0> >::_Node *,std::_Tree_nod<std::_Tmap_traits<unsigned long,CGuildHouseBase *,std::less<unsigned long>,std::allocator<std::pair<unsigned long const ,CGuildHouseBase *> >,0> >::_Node *>
_TEXT	ENDS
PUBLIC	??0?$pair@KPAVCGuildHouseBase@@@std@@QAE@ABKABQAVCGuildHouseBase@@@Z ; std::pair<unsigned long,CGuildHouseBase *>::pair<unsigned long,CGuildHouseBase *>
; Function compile flags: /Ogty
; File c:\program files\microsoft visual studio .net 2003\vc7\include\utility
;	COMDAT ??0?$pair@KPAVCGuildHouseBase@@@std@@QAE@ABKABQAVCGuildHouseBase@@@Z
_TEXT	SEGMENT
__Val1$ = 8						; size = 4
__Val2$ = 12						; size = 4
??0?$pair@KPAVCGuildHouseBase@@@std@@QAE@ABKABQAVCGuildHouseBase@@@Z PROC NEAR ; std::pair<unsigned long,CGuildHouseBase *>::pair<unsigned long,CGuildHouseBase *>, COMDAT
; _this$ = ecx

; 34   : 		{	// construct from specified values

  00000	8b c1		 mov	 eax, ecx
  00002	8b 4c 24 04	 mov	 ecx, DWORD PTR __Val1$[esp-4]
  00006	8b 11		 mov	 edx, DWORD PTR [ecx]
  00008	8b 4c 24 08	 mov	 ecx, DWORD PTR __Val2$[esp-4]
  0000c	89 10		 mov	 DWORD PTR [eax], edx
  0000e	8b 11		 mov	 edx, DWORD PTR [ecx]
  00010	89 50 04	 mov	 DWORD PTR [eax+4], edx

; 35   : 		}

  00013	c2 08 00	 ret	 8
??0?$pair@KPAVCGuildHouseBase@@@std@@QAE@ABKABQAVCGuildHouseBase@@@Z ENDP ; std::pair<unsigned long,CGuildHouseBase *>::pair<unsigned long,CGuildHouseBase *>
_TEXT	ENDS
PUBLIC	??$_Ptr_cat@PAUGuildHouse_Furniture_Info@CGuildHouseBase@@PAU12@@std@@YA?AU_Nonscalar_ptr_iterator_tag@0@AAPAUGuildHouse_Furniture_Info@CGuildHouseBase@@0@Z ; std::_Ptr_cat<CGuildHouseBase::GuildHouse_Furniture_Info *,CGuildHouseBase::GuildHouse_Furniture_Info *>
; Function compile flags: /Ogty
; File c:\program files\microsoft visual studio .net 2003\vc7\include\xutility
;	COMDAT ??$_Ptr_cat@PAUGuildHouse_Furniture_Info@CGuildHouseBase@@PAU12@@std@@YA?AU_Nonscalar_ptr_iterator_tag@0@AAPAUGuildHouse_Furniture_Info@CGuildHouseBase@@0@Z
_TEXT	SEGMENT
__Cat$ = -1						; size = 1
___formal$ = 8						; size = 4
___formal$ = 12						; size = 4
??$_Ptr_cat@PAUGuildHouse_Furniture_Info@CGuildHouseBase@@PAU12@@std@@YA?AU_Nonscalar_ptr_iterator_tag@0@AAPAUGuildHouse_Furniture_Info@CGuildHouseBase@@0@Z PROC NEAR ; std::_Ptr_cat<CGuildHouseBase::GuildHouse_Furniture_Info *,CGuildHouseBase::GuildHouse_Furniture_Info *>, COMDAT

; 211  : 	{	// return pointer category from arbitrary arguments

  00000	51		 push	 ecx

; 212  : 	_Nonscalar_ptr_iterator_tag _Cat;
; 213  : 	return (_Cat);

  00001	8a 44 24 03	 mov	 al, BYTE PTR __Cat$[esp+4]

; 214  : 	}

  00005	59		 pop	 ecx
  00006	c3		 ret	 0
??$_Ptr_cat@PAUGuildHouse_Furniture_Info@CGuildHouseBase@@PAU12@@std@@YA?AU_Nonscalar_ptr_iterator_tag@0@AAPAUGuildHouse_Furniture_Info@CGuildHouseBase@@0@Z ENDP ; std::_Ptr_cat<CGuildHouseBase::GuildHouse_Furniture_Info *,CGuildHouseBase::GuildHouse_Furniture_Info *>
_TEXT	ENDS
PUBLIC	??$_Copy_opt@PAUGuildHouse_Furniture_Info@CGuildHouseBase@@PAU12@@std@@YAPAUGuildHouse_Furniture_Info@CGuildHouseBase@@PAU12@00U_Nonscalar_ptr_iterator_tag@0@@Z ; std::_Copy_opt<CGuildHouseBase::GuildHouse_Furniture_Info *,CGuildHouseBase::GuildHouse_Furniture_Info *>
; Function compile flags: /Ogty
;	COMDAT ??$_Copy_opt@PAUGuildHouse_Furniture_Info@CGuildHouseBase@@PAU12@@std@@YAPAUGuildHouse_Furniture_Info@CGuildHouseBase@@PAU12@00U_Nonscalar_ptr_iterator_tag@0@@Z
_TEXT	SEGMENT
__First$ = 8						; size = 4
__Last$ = 12						; size = 4
__Dest$ = 16						; size = 4
___formal$ = 20						; size = 1
??$_Copy_opt@PAUGuildHouse_Furniture_Info@CGuildHouseBase@@PAU12@@std@@YAPAUGuildHouse_Furniture_Info@CGuildHouseBase@@PAU12@00U_Nonscalar_ptr_iterator_tag@0@@Z PROC NEAR ; std::_Copy_opt<CGuildHouseBase::GuildHouse_Furniture_Info *,CGuildHouseBase::GuildHouse_Furniture_Info *>, COMDAT

; 1021 : 	for (; _First != _Last; ++_Dest, ++_First)

  00000	8b 54 24 04	 mov	 edx, DWORD PTR __First$[esp-4]
  00004	8b 44 24 0c	 mov	 eax, DWORD PTR __Dest$[esp-4]
  00008	53		 push	 ebx
  00009	8b 5c 24 0c	 mov	 ebx, DWORD PTR __Last$[esp]
  0000d	3b d3		 cmp	 edx, ebx
  0000f	74 19		 je	 SHORT $L193526
  00011	56		 push	 esi
  00012	57		 push	 edi
$L193524:

; 1022 : 		*_Dest = *_First;

  00013	8b f2		 mov	 esi, edx
  00015	8b f8		 mov	 edi, eax
  00017	83 c2 24	 add	 edx, 36			; 00000024H
  0001a	b9 09 00 00 00	 mov	 ecx, 9
  0001f	83 c0 24	 add	 eax, 36			; 00000024H
  00022	3b d3		 cmp	 edx, ebx
  00024	f3 a5		 rep movsd
  00026	75 eb		 jne	 SHORT $L193524
  00028	5f		 pop	 edi
  00029	5e		 pop	 esi
$L193526:
  0002a	5b		 pop	 ebx

; 1023 : 	return (_Dest);
; 1024 : 	}

  0002b	c3		 ret	 0
??$_Copy_opt@PAUGuildHouse_Furniture_Info@CGuildHouseBase@@PAU12@@std@@YAPAUGuildHouse_Furniture_Info@CGuildHouseBase@@PAU12@00U_Nonscalar_ptr_iterator_tag@0@@Z ENDP ; std::_Copy_opt<CGuildHouseBase::GuildHouse_Furniture_Info *,CGuildHouseBase::GuildHouse_Furniture_Info *>
_TEXT	ENDS
PUBLIC	??$_Copy_backward_opt@PAUGuildHouse_Furniture_Info@CGuildHouseBase@@PAU12@@std@@YAPAUGuildHouse_Furniture_Info@CGuildHouseBase@@PAU12@00U_Nonscalar_ptr_iterator_tag@0@@Z ; std::_Copy_backward_opt<CGuildHouseBase::GuildHouse_Furniture_Info *,CGuildHouseBase::GuildHouse_Furniture_Info *>
; Function compile flags: /Ogty
;	COMDAT ??$_Copy_backward_opt@PAUGuildHouse_Furniture_Info@CGuildHouseBase@@PAU12@@std@@YAPAUGuildHouse_Furniture_Info@CGuildHouseBase@@PAU12@00U_Nonscalar_ptr_iterator_tag@0@@Z
_TEXT	SEGMENT
__First$ = 8						; size = 4
__Last$ = 12						; size = 4
__Dest$ = 16						; size = 4
___formal$ = 20						; size = 1
??$_Copy_backward_opt@PAUGuildHouse_Furniture_Info@CGuildHouseBase@@PAU12@@std@@YAPAUGuildHouse_Furniture_Info@CGuildHouseBase@@PAU12@00U_Nonscalar_ptr_iterator_tag@0@@Z PROC NEAR ; std::_Copy_backward_opt<CGuildHouseBase::GuildHouse_Furniture_Info *,CGuildHouseBase::GuildHouse_Furniture_Info *>, COMDAT

; 1049 : 	while (_First != _Last)

  00000	8b 54 24 08	 mov	 edx, DWORD PTR __Last$[esp-4]
  00004	8b 44 24 0c	 mov	 eax, DWORD PTR __Dest$[esp-4]
  00008	53		 push	 ebx
  00009	8b 5c 24 08	 mov	 ebx, DWORD PTR __First$[esp]
  0000d	3b da		 cmp	 ebx, edx
  0000f	74 19		 je	 SHORT $L193583
  00011	56		 push	 esi
  00012	57		 push	 edi
$L193582:

; 1050 : 		*--_Dest = *--_Last;

  00013	83 ea 24	 sub	 edx, 36			; 00000024H
  00016	83 e8 24	 sub	 eax, 36			; 00000024H
  00019	3b d3		 cmp	 edx, ebx
  0001b	b9 09 00 00 00	 mov	 ecx, 9
  00020	8b f2		 mov	 esi, edx
  00022	8b f8		 mov	 edi, eax
  00024	f3 a5		 rep movsd
  00026	75 eb		 jne	 SHORT $L193582
  00028	5f		 pop	 edi
  00029	5e		 pop	 esi
$L193583:
  0002a	5b		 pop	 ebx

; 1051 : 	return (_Dest);
; 1052 : 	}

  0002b	c3		 ret	 0
??$_Copy_backward_opt@PAUGuildHouse_Furniture_Info@CGuildHouseBase@@PAU12@@std@@YAPAUGuildHouse_Furniture_Info@CGuildHouseBase@@PAU12@00U_Nonscalar_ptr_iterator_tag@0@@Z ENDP ; std::_Copy_backward_opt<CGuildHouseBase::GuildHouse_Furniture_Info *,CGuildHouseBase::GuildHouse_Furniture_Info *>
_TEXT	ENDS
PUBLIC	??$_Construct@UGuildHouse_Furniture_Info@CGuildHouseBase@@U12@@std@@YAXPAUGuildHouse_Furniture_Info@CGuildHouseBase@@ABU12@@Z ; std::_Construct<CGuildHouseBase::GuildHouse_Furniture_Info,CGuildHouseBase::GuildHouse_Furniture_Info>
; Function compile flags: /Ogty
; File c:\program files\microsoft visual studio .net 2003\vc7\include\xmemory
;	COMDAT ??$_Construct@UGuildHouse_Furniture_Info@CGuildHouseBase@@U12@@std@@YAXPAUGuildHouse_Furniture_Info@CGuildHouseBase@@ABU12@@Z
_TEXT	SEGMENT
__Ptr$ = 8						; size = 4
__Val$ = 12						; size = 4
??$_Construct@UGuildHouse_Furniture_Info@CGuildHouseBase@@U12@@std@@YAXPAUGuildHouse_Furniture_Info@CGuildHouseBase@@ABU12@@Z PROC NEAR ; std::_Construct<CGuildHouseBase::GuildHouse_Furniture_Info,CGuildHouseBase::GuildHouse_Furniture_Info>, COMDAT

; 41   : 	{	// construct object at _Ptr with value _Val

  00000	57		 push	 edi

; 42   : 	new ((void _FARQ *)_Ptr) _T1(_Val);

  00001	8b 7c 24 08	 mov	 edi, DWORD PTR __Ptr$[esp]
  00005	85 ff		 test	 edi, edi
  00007	74 0d		 je	 SHORT $L194278
  00009	56		 push	 esi
  0000a	8b 74 24 10	 mov	 esi, DWORD PTR __Val$[esp+4]
  0000e	b9 09 00 00 00	 mov	 ecx, 9
  00013	f3 a5		 rep movsd
  00015	5e		 pop	 esi
$L194278:
  00016	5f		 pop	 edi

; 43   : 	}

  00017	c3		 ret	 0
??$_Construct@UGuildHouse_Furniture_Info@CGuildHouseBase@@U12@@std@@YAXPAUGuildHouse_Furniture_Info@CGuildHouseBase@@ABU12@@Z ENDP ; std::_Construct<CGuildHouseBase::GuildHouse_Furniture_Info,CGuildHouseBase::GuildHouse_Furniture_Info>
_TEXT	ENDS
PUBLIC	??$_Destroy@UGuildHouse_Furniture_Info@CGuildHouseBase@@@std@@YAXPAUGuildHouse_Furniture_Info@CGuildHouseBase@@@Z ; std::_Destroy<CGuildHouseBase::GuildHouse_Furniture_Info>
; Function compile flags: /Ogty
;	COMDAT ??$_Destroy@UGuildHouse_Furniture_Info@CGuildHouseBase@@@std@@YAXPAUGuildHouse_Furniture_Info@CGuildHouseBase@@@Z
_TEXT	SEGMENT
__Ptr$ = 8						; size = 4
??$_Destroy@UGuildHouse_Furniture_Info@CGuildHouseBase@@@std@@YAXPAUGuildHouse_Furniture_Info@CGuildHouseBase@@@Z PROC NEAR ; std::_Destroy<CGuildHouseBase::GuildHouse_Furniture_Info>, COMDAT

; 49   : 	_DESTRUCTOR(_Ty, _Ptr);
; 50   : 	}

  00000	c3		 ret	 0
??$_Destroy@UGuildHouse_Furniture_Info@CGuildHouseBase@@@std@@YAXPAUGuildHouse_Furniture_Info@CGuildHouseBase@@@Z ENDP ; std::_Destroy<CGuildHouseBase::GuildHouse_Furniture_Info>
_TEXT	ENDS
PUBLIC	?assign@?$char_traits@D@std@@SAXAADABD@Z	; std::char_traits<char>::assign
; Function compile flags: /Ogty
; File c:\program files\microsoft visual studio .net 2003\vc7\include\iosfwd
;	COMDAT ?assign@?$char_traits@D@std@@SAXAADABD@Z
_TEXT	SEGMENT
__Left$ = 8						; size = 4
__Right$ = 12						; size = 4
?assign@?$char_traits@D@std@@SAXAADABD@Z PROC NEAR	; std::char_traits<char>::assign, COMDAT

; 331  : 		_Left = _Right;

  00000	8b 44 24 08	 mov	 eax, DWORD PTR __Right$[esp-4]
  00004	8a 08		 mov	 cl, BYTE PTR [eax]
  00006	8b 54 24 04	 mov	 edx, DWORD PTR __Left$[esp-4]
  0000a	88 0a		 mov	 BYTE PTR [edx], cl

; 332  : 		}

  0000c	c3		 ret	 0
?assign@?$char_traits@D@std@@SAXAADABD@Z ENDP		; std::char_traits<char>::assign
_TEXT	ENDS
PUBLIC	?length@?$char_traits@D@std@@SAIPBD@Z		; std::char_traits<char>::length
; Function compile flags: /Ogty
;	COMDAT ?length@?$char_traits@D@std@@SAIPBD@Z
_TEXT	SEGMENT
__First$ = 8						; size = 4
?length@?$char_traits@D@std@@SAIPBD@Z PROC NEAR		; std::char_traits<char>::length, COMDAT

; 352  : 		return (::strlen(_First));

  00000	8b 44 24 04	 mov	 eax, DWORD PTR __First$[esp-4]
  00004	8d 50 01	 lea	 edx, DWORD PTR [eax+1]
$L194289:
  00007	8a 08		 mov	 cl, BYTE PTR [eax]
  00009	40		 inc	 eax
  0000a	84 c9		 test	 cl, cl
  0000c	75 f9		 jne	 SHORT $L194289
  0000e	2b c2		 sub	 eax, edx

; 353  : 		}

  00010	c3		 ret	 0
?length@?$char_traits@D@std@@SAIPBD@Z ENDP		; std::char_traits<char>::length
_TEXT	ENDS
PUBLIC	?copy@?$char_traits@D@std@@SAPADPADPBDI@Z	; std::char_traits<char>::copy
; Function compile flags: /Ogty
;	COMDAT ?copy@?$char_traits@D@std@@SAPADPADPBDI@Z
_TEXT	SEGMENT
__First1$ = 8						; size = 4
__First2$ = 12						; size = 4
__Count$ = 16						; size = 4
?copy@?$char_traits@D@std@@SAPADPADPBDI@Z PROC NEAR	; std::char_traits<char>::copy, COMDAT

; 358  : 		return ((_Elem *)::memcpy(_First1, _First2, _Count));

  00000	8b 4c 24 0c	 mov	 ecx, DWORD PTR __Count$[esp-4]
  00004	56		 push	 esi
  00005	8b 74 24 0c	 mov	 esi, DWORD PTR __First2$[esp]
  00009	57		 push	 edi
  0000a	8b 7c 24 0c	 mov	 edi, DWORD PTR __First1$[esp+4]
  0000e	8b c1		 mov	 eax, ecx
  00010	8b d7		 mov	 edx, edi
  00012	c1 e9 02	 shr	 ecx, 2
  00015	f3 a5		 rep movsd
  00017	8b c8		 mov	 ecx, eax
  00019	83 e1 03	 and	 ecx, 3
  0001c	f3 a4		 rep movsb
  0001e	5f		 pop	 edi
  0001f	8b c2		 mov	 eax, edx
  00021	5e		 pop	 esi

; 359  : 		}

  00022	c3		 ret	 0
?copy@?$char_traits@D@std@@SAPADPADPBDI@Z ENDP		; std::char_traits<char>::copy
_TEXT	ENDS
PUBLIC	?move@?$char_traits@D@std@@SAPADPADPBDI@Z	; std::char_traits<char>::move
EXTRN	_memmove:NEAR
; Function compile flags: /Ogty
;	COMDAT ?move@?$char_traits@D@std@@SAPADPADPBDI@Z
_TEXT	SEGMENT
__First1$ = 8						; size = 4
__First2$ = 12						; size = 4
__Count$ = 16						; size = 4
?move@?$char_traits@D@std@@SAPADPADPBDI@Z PROC NEAR	; std::char_traits<char>::move, COMDAT

; 370  : 		return ((_Elem *)::memmove(_First1, _First2, _Count));

  00000	e9 00 00 00 00	 jmp	 _memmove
?move@?$char_traits@D@std@@SAPADPADPBDI@Z ENDP		; std::char_traits<char>::move
_TEXT	ENDS
PUBLIC	?time_null@@YAJXZ				; time_null
EXTRN	_time:NEAR
; Function compile flags: /Ogty
; File c:\documents and settings\test\mes documents\source\virtuos_v17\build\program\_network\cmnhdr.h
;	COMDAT ?time_null@@YAJXZ
_TEXT	SEGMENT
?time_null@@YAJXZ PROC NEAR				; time_null, COMDAT

; 702  : #if defined(__WORLDSERVER) || defined(__CLIENT)
; 703  : 	return	g_tCurrent;
; 704  : #else	//
; 705  : 	return time( NULL );

  00000	6a 00		 push	 0
  00002	e8 00 00 00 00	 call	 _time
  00007	83 c4 04	 add	 esp, 4

; 706  : #endif	//
; 707  : }

  0000a	c3		 ret	 0
?time_null@@YAJXZ ENDP					; time_null
_TEXT	ENDS
PUBLIC	??0D3DXVECTOR3@@QAE@MMM@Z			; D3DXVECTOR3::D3DXVECTOR3
EXTRN	__fltused:NEAR
; Function compile flags: /Ogty
; File c:\documents and settings\test\mes documents\source\virtuos_v17\build\program\dx_sdk\d3dx9math.inl
;	COMDAT ??0D3DXVECTOR3@@QAE@MMM@Z
_TEXT	SEGMENT
_fx$ = 8						; size = 4
_fy$ = 12						; size = 4
_fz$ = 16						; size = 4
??0D3DXVECTOR3@@QAE@MMM@Z PROC NEAR			; D3DXVECTOR3::D3DXVECTOR3, COMDAT
; _this$ = ecx

; 300  :     x = fx;
; 301  :     y = fy;

  00000	8b 54 24 08	 mov	 edx, DWORD PTR _fy$[esp-4]
  00004	8b c1		 mov	 eax, ecx
  00006	8b 4c 24 04	 mov	 ecx, DWORD PTR _fx$[esp-4]
  0000a	89 08		 mov	 DWORD PTR [eax], ecx

; 302  :     z = fz;

  0000c	8b 4c 24 0c	 mov	 ecx, DWORD PTR _fz$[esp-4]
  00010	89 50 04	 mov	 DWORD PTR [eax+4], edx
  00013	89 48 08	 mov	 DWORD PTR [eax+8], ecx

; 303  : }

  00016	c2 0c 00	 ret	 12			; 0000000cH
??0D3DXVECTOR3@@QAE@MMM@Z ENDP				; D3DXVECTOR3::D3DXVECTOR3
_TEXT	ENDS
PUBLIC	?IsStoring@CAr@@QBEHXZ				; CAr::IsStoring
; Function compile flags: /Ogty
; File c:\documents and settings\test\mes documents\source\virtuos_v17\build\program\_network\misc\include\ar.h
;	COMDAT ?IsStoring@CAr@@QBEHXZ
_TEXT	SEGMENT
?IsStoring@CAr@@QBEHXZ PROC NEAR			; CAr::IsStoring, COMDAT
; _this$ = ecx

; 96   : 	{ return (m_nMode & CAr::load) == 0; }

  00000	33 c0		 xor	 eax, eax
  00002	8a 01		 mov	 al, BYTE PTR [ecx]
  00004	f7 d0		 not	 eax
  00006	83 e0 01	 and	 eax, 1
  00009	c3		 ret	 0
?IsStoring@CAr@@QBEHXZ ENDP				; CAr::IsStoring
_TEXT	ENDS
PUBLIC	??6CAr@@QAEAAV0@J@Z				; CAr::operator<<
EXTRN	?CheckBuf@CAr@@QAEXI@Z:NEAR			; CAr::CheckBuf
; Function compile flags: /Ogty
;	COMDAT ??6CAr@@QAEAAV0@J@Z
_TEXT	SEGMENT
_l$ = 8							; size = 4
??6CAr@@QAEAAV0@J@Z PROC NEAR				; CAr::operator<<, COMDAT
; _this$ = ecx

; 113  : 	{ CheckBuf( sizeof(LONG) );

  00000	56		 push	 esi
  00001	6a 04		 push	 4
  00003	8b f1		 mov	 esi, ecx
  00005	e8 00 00 00 00	 call	 ?CheckBuf@CAr@@QAEXI@Z	; CAr::CheckBuf

; 114  : 		*(UNALIGNED LONG*)m_lpBufCur = l; m_lpBufCur += sizeof(LONG); return *this; }

  0000a	8b 46 08	 mov	 eax, DWORD PTR [esi+8]
  0000d	8b 4c 24 08	 mov	 ecx, DWORD PTR _l$[esp]
  00011	89 08		 mov	 DWORD PTR [eax], ecx
  00013	83 46 08 04	 add	 DWORD PTR [esi+8], 4
  00017	8b c6		 mov	 eax, esi
  00019	5e		 pop	 esi
  0001a	c2 04 00	 ret	 4
??6CAr@@QAEAAV0@J@Z ENDP				; CAr::operator<<
_TEXT	ENDS
PUBLIC	??6CAr@@QAEAAV0@K@Z				; CAr::operator<<
; Function compile flags: /Ogty
;	COMDAT ??6CAr@@QAEAAV0@K@Z
_TEXT	SEGMENT
_dw$ = 8						; size = 4
??6CAr@@QAEAAV0@K@Z PROC NEAR				; CAr::operator<<, COMDAT
; _this$ = ecx

; 116  : 	{ CheckBuf( sizeof(DWORD) );

  00000	56		 push	 esi
  00001	6a 04		 push	 4
  00003	8b f1		 mov	 esi, ecx
  00005	e8 00 00 00 00	 call	 ?CheckBuf@CAr@@QAEXI@Z	; CAr::CheckBuf

; 117  : 		*(UNALIGNED DWORD*)m_lpBufCur = dw; m_lpBufCur += sizeof(DWORD); return *this; }

  0000a	8b 46 08	 mov	 eax, DWORD PTR [esi+8]
  0000d	8b 4c 24 08	 mov	 ecx, DWORD PTR _dw$[esp]
  00011	89 08		 mov	 DWORD PTR [eax], ecx
  00013	83 46 08 04	 add	 DWORD PTR [esi+8], 4
  00017	8b c6		 mov	 eax, esi
  00019	5e		 pop	 esi
  0001a	c2 04 00	 ret	 4
??6CAr@@QAEAAV0@K@Z ENDP				; CAr::operator<<
_TEXT	ENDS
PUBLIC	??6CAr@@QAEAAV0@M@Z				; CAr::operator<<
; Function compile flags: /Ogty
;	COMDAT ??6CAr@@QAEAAV0@M@Z
_TEXT	SEGMENT
_f$ = 8							; size = 4
??6CAr@@QAEAAV0@M@Z PROC NEAR				; CAr::operator<<, COMDAT
; _this$ = ecx

; 119  : 	{ CheckBuf( sizeof(float) );

  00000	56		 push	 esi
  00001	6a 04		 push	 4
  00003	8b f1		 mov	 esi, ecx
  00005	e8 00 00 00 00	 call	 ?CheckBuf@CAr@@QAEXI@Z	; CAr::CheckBuf

; 120  : 		*(UNALIGNED FLOAT*)m_lpBufCur = *(FLOAT*)&f; m_lpBufCur += sizeof(float); return *this; }

  0000a	8b 46 08	 mov	 eax, DWORD PTR [esi+8]
  0000d	8b 4c 24 08	 mov	 ecx, DWORD PTR _f$[esp]
  00011	89 08		 mov	 DWORD PTR [eax], ecx
  00013	83 46 08 04	 add	 DWORD PTR [esi+8], 4
  00017	8b c6		 mov	 eax, esi
  00019	5e		 pop	 esi
  0001a	c2 04 00	 ret	 4
??6CAr@@QAEAAV0@M@Z ENDP				; CAr::operator<<
_TEXT	ENDS
PUBLIC	??5CAr@@QAEAAV0@AAK@Z				; CAr::operator>>
; Function compile flags: /Ogty
;	COMDAT ??5CAr@@QAEAAV0@AAK@Z
_TEXT	SEGMENT
_dw$ = 8						; size = 4
??5CAr@@QAEAAV0@AAK@Z PROC NEAR				; CAr::operator>>, COMDAT
; _this$ = ecx

; 146  : 	{	CAR_SAFE_READ( DWORD, dw );	}

  00000	8b c1		 mov	 eax, ecx
  00002	8b 48 08	 mov	 ecx, DWORD PTR [eax+8]
  00005	56		 push	 esi
  00006	8b 70 0c	 mov	 esi, DWORD PTR [eax+12]
  00009	8d 51 04	 lea	 edx, DWORD PTR [ecx+4]
  0000c	3b d6		 cmp	 edx, esi
  0000e	5e		 pop	 esi
  0000f	77 0f		 ja	 SHORT $L162868
  00011	8b 09		 mov	 ecx, DWORD PTR [ecx]
  00013	8b 54 24 04	 mov	 edx, DWORD PTR _dw$[esp-4]
  00017	89 0a		 mov	 DWORD PTR [edx], ecx
  00019	83 40 08 04	 add	 DWORD PTR [eax+8], 4
  0001d	c2 04 00	 ret	 4
$L162868:
  00020	8b 4c 24 04	 mov	 ecx, DWORD PTR _dw$[esp-4]
  00024	c7 01 00 00 00
	00		 mov	 DWORD PTR [ecx], 0
  0002a	8b 50 0c	 mov	 edx, DWORD PTR [eax+12]
  0002d	89 50 08	 mov	 DWORD PTR [eax+8], edx
  00030	c2 04 00	 ret	 4
??5CAr@@QAEAAV0@AAK@Z ENDP				; CAr::operator>>
_TEXT	ENDS
PUBLIC	??5CAr@@QAEAAV0@AAM@Z				; CAr::operator>>
; Function compile flags: /Ogty
;	COMDAT ??5CAr@@QAEAAV0@AAM@Z
_TEXT	SEGMENT
_f$ = 8							; size = 4
??5CAr@@QAEAAV0@AAM@Z PROC NEAR				; CAr::operator>>, COMDAT
; _this$ = ecx

; 148  : 	{	CAR_SAFE_READ( float, f );	}

  00000	8b c1		 mov	 eax, ecx
  00002	8b 48 08	 mov	 ecx, DWORD PTR [eax+8]
  00005	56		 push	 esi
  00006	8b 70 0c	 mov	 esi, DWORD PTR [eax+12]
  00009	8d 51 04	 lea	 edx, DWORD PTR [ecx+4]
  0000c	3b d6		 cmp	 edx, esi
  0000e	5e		 pop	 esi
  0000f	77 0f		 ja	 SHORT $L162878
  00011	8b 09		 mov	 ecx, DWORD PTR [ecx]
  00013	8b 54 24 04	 mov	 edx, DWORD PTR _f$[esp-4]
  00017	89 0a		 mov	 DWORD PTR [edx], ecx
  00019	83 40 08 04	 add	 DWORD PTR [eax+8], 4
  0001d	c2 04 00	 ret	 4
$L162878:
  00020	8b 4c 24 04	 mov	 ecx, DWORD PTR _f$[esp-4]
  00024	c7 01 00 00 00
	00		 mov	 DWORD PTR [ecx], 0
  0002a	8b 50 0c	 mov	 edx, DWORD PTR [eax+12]
  0002d	89 50 08	 mov	 DWORD PTR [eax+8], edx
  00030	c2 04 00	 ret	 4
??5CAr@@QAEAAV0@AAM@Z ENDP				; CAr::operator>>
_TEXT	ENDS
PUBLIC	??5CAr@@QAEAAV0@AAJ@Z				; CAr::operator>>
; Function compile flags: /Ogty
;	COMDAT ??5CAr@@QAEAAV0@AAJ@Z
_TEXT	SEGMENT
_l$ = 8							; size = 4
??5CAr@@QAEAAV0@AAJ@Z PROC NEAR				; CAr::operator>>, COMDAT
; _this$ = ecx

; 152  : 	{	CAR_SAFE_READ( LONG, l );	}

  00000	8b c1		 mov	 eax, ecx
  00002	8b 48 08	 mov	 ecx, DWORD PTR [eax+8]
  00005	56		 push	 esi
  00006	8b 70 0c	 mov	 esi, DWORD PTR [eax+12]
  00009	8d 51 04	 lea	 edx, DWORD PTR [ecx+4]
  0000c	3b d6		 cmp	 edx, esi
  0000e	5e		 pop	 esi
  0000f	77 0f		 ja	 SHORT $L162898
  00011	8b 09		 mov	 ecx, DWORD PTR [ecx]
  00013	8b 54 24 04	 mov	 edx, DWORD PTR _l$[esp-4]
  00017	89 0a		 mov	 DWORD PTR [edx], ecx
  00019	83 40 08 04	 add	 DWORD PTR [eax+8], 4
  0001d	c2 04 00	 ret	 4
$L162898:
  00020	8b 4c 24 04	 mov	 ecx, DWORD PTR _l$[esp-4]
  00024	c7 01 00 00 00
	00		 mov	 DWORD PTR [ecx], 0
  0002a	8b 50 0c	 mov	 edx, DWORD PTR [eax+12]
  0002d	89 50 08	 mov	 DWORD PTR [eax+8], edx
  00030	c2 04 00	 ret	 4
??5CAr@@QAEAAV0@AAJ@Z ENDP				; CAr::operator>>
_TEXT	ENDS
PUBLIC	??6@YAAAVCAr@@AAV0@UD3DXVECTOR3@@@Z		; operator<<
EXTRN	?Write@CAr@@QAEXPBXI@Z:NEAR			; CAr::Write
; Function compile flags: /Ogty
;	COMDAT ??6@YAAAVCAr@@AAV0@UD3DXVECTOR3@@@Z
_TEXT	SEGMENT
_ar$ = 8						; size = 4
_v$ = 12						; size = 12
??6@YAAAVCAr@@AAV0@UD3DXVECTOR3@@@Z PROC NEAR		; operator<<, COMDAT

; 157  : 	{	ar.Write( &v, sizeof(D3DXVECTOR3) );	return ar;	}

  00000	56		 push	 esi
  00001	8b 74 24 08	 mov	 esi, DWORD PTR _ar$[esp]
  00005	6a 0c		 push	 12			; 0000000cH
  00007	8d 44 24 10	 lea	 eax, DWORD PTR _v$[esp+4]
  0000b	50		 push	 eax
  0000c	8b ce		 mov	 ecx, esi
  0000e	e8 00 00 00 00	 call	 ?Write@CAr@@QAEXPBXI@Z	; CAr::Write
  00013	8b c6		 mov	 eax, esi
  00015	5e		 pop	 esi
  00016	c3		 ret	 0
??6@YAAAVCAr@@AAV0@UD3DXVECTOR3@@@Z ENDP		; operator<<
_TEXT	ENDS
PUBLIC	??5@YAAAVCAr@@AAV0@AAUD3DXVECTOR3@@@Z		; operator>>
EXTRN	?Read@CAr@@QAEXPAXI@Z:NEAR			; CAr::Read
; Function compile flags: /Ogty
;	COMDAT ??5@YAAAVCAr@@AAV0@AAUD3DXVECTOR3@@@Z
_TEXT	SEGMENT
_ar$ = 8						; size = 4
_v$ = 12						; size = 4
??5@YAAAVCAr@@AAV0@AAUD3DXVECTOR3@@@Z PROC NEAR		; operator>>, COMDAT

; 160  : 	{	ar.Read( &v, sizeof(D3DXVECTOR3) );		return ar;	}

  00000	8b 44 24 08	 mov	 eax, DWORD PTR _v$[esp-4]
  00004	56		 push	 esi
  00005	8b 74 24 08	 mov	 esi, DWORD PTR _ar$[esp]
  00009	6a 0c		 push	 12			; 0000000cH
  0000b	50		 push	 eax
  0000c	8b ce		 mov	 ecx, esi
  0000e	e8 00 00 00 00	 call	 ?Read@CAr@@QAEXPAXI@Z	; CAr::Read
  00013	8b c6		 mov	 eax, esi
  00015	5e		 pop	 esi
  00016	c3		 ret	 0
??5@YAAAVCAr@@AAV0@AAUD3DXVECTOR3@@@Z ENDP		; operator>>
_TEXT	ENDS
PUBLIC	?size@?$basic_string@DU?$char_traits@D@std@@V?$allocator@D@2@@std@@QBEIXZ ; std::basic_string<char,std::char_traits<char>,std::allocator<char> >::size
; Function compile flags: /Ogty
; File c:\program files\microsoft visual studio .net 2003\vc7\include\xstring
;	COMDAT ?size@?$basic_string@DU?$char_traits@D@std@@V?$allocator@D@2@@std@@QBEIXZ
_TEXT	SEGMENT
?size@?$basic_string@DU?$char_traits@D@std@@V?$allocator@D@2@@std@@QBEIXZ PROC NEAR ; std::basic_string<char,std::char_traits<char>,std::allocator<char> >::size, COMDAT
; _this$ = ecx

; 1109 : 		return (_Mysize);

  00000	8b 41 14	 mov	 eax, DWORD PTR [ecx+20]

; 1110 : 		}

  00003	c3		 ret	 0
?size@?$basic_string@DU?$char_traits@D@std@@V?$allocator@D@2@@std@@QBEIXZ ENDP ; std::basic_string<char,std::char_traits<char>,std::allocator<char> >::size
_TEXT	ENDS
PUBLIC	?_Myptr@?$basic_string@DU?$char_traits@D@std@@V?$allocator@D@2@@std@@QBEPBDXZ ; std::basic_string<char,std::char_traits<char>,std::allocator<char> >::_Myptr
; Function compile flags: /Ogty
;	COMDAT ?_Myptr@?$basic_string@DU?$char_traits@D@std@@V?$allocator@D@2@@std@@QBEPBDXZ
_TEXT	SEGMENT
?_Myptr@?$basic_string@DU?$char_traits@D@std@@V?$allocator@D@2@@std@@QBEPBDXZ PROC NEAR ; std::basic_string<char,std::char_traits<char>,std::allocator<char> >::_Myptr, COMDAT
; _this$ = ecx

; 1537 : 		return (_BUF_SIZE <= _Myres ? _Bx._Ptr : _Bx._Buf);

  00000	83 79 18 10	 cmp	 DWORD PTR [ecx+24], 16	; 00000010H
  00004	72 04		 jb	 SHORT $L194322
  00006	8b 41 04	 mov	 eax, DWORD PTR [ecx+4]

; 1538 : 		}

  00009	c3		 ret	 0
$L194322:

; 1537 : 		return (_BUF_SIZE <= _Myres ? _Bx._Ptr : _Bx._Buf);

  0000a	8d 41 04	 lea	 eax, DWORD PTR [ecx+4]

; 1538 : 		}

  0000d	c3		 ret	 0
?_Myptr@?$basic_string@DU?$char_traits@D@std@@V?$allocator@D@2@@std@@QBEPBDXZ ENDP ; std::basic_string<char,std::char_traits<char>,std::allocator<char> >::_Myptr
_TEXT	ENDS
PUBLIC	??0?$allocator@D@std@@QAE@XZ			; std::allocator<char>::allocator<char>
; Function compile flags: /Ogty
; File c:\program files\microsoft visual studio .net 2003\vc7\include\xmemory
;	COMDAT ??0?$allocator@D@std@@QAE@XZ
_TEXT	SEGMENT
??0?$allocator@D@std@@QAE@XZ PROC NEAR			; std::allocator<char>::allocator<char>, COMDAT
; _this$ = ecx

; 111  : 	allocator()

  00000	8b c1		 mov	 eax, ecx

; 112  : 		{	// construct default allocator (do nothing)
; 113  : 		}

  00002	c3		 ret	 0
??0?$allocator@D@std@@QAE@XZ ENDP			; std::allocator<char>::allocator<char>
_TEXT	ENDS
PUBLIC	??0?$allocator@D@std@@QAE@ABV01@@Z		; std::allocator<char>::allocator<char>
; Function compile flags: /Ogty
;	COMDAT ??0?$allocator@D@std@@QAE@ABV01@@Z
_TEXT	SEGMENT
___formal$ = 8						; size = 4
??0?$allocator@D@std@@QAE@ABV01@@Z PROC NEAR		; std::allocator<char>::allocator<char>, COMDAT
; _this$ = ecx

; 115  : 	allocator(const allocator<_Ty>&)

  00000	8b c1		 mov	 eax, ecx

; 116  : 		{	// construct by copying (do nothing)
; 117  : 		}

  00002	c2 04 00	 ret	 4
??0?$allocator@D@std@@QAE@ABV01@@Z ENDP			; std::allocator<char>::allocator<char>
_TEXT	ENDS
PUBLIC	??R?$less@K@std@@QBE_NABK0@Z			; std::less<unsigned long>::operator()
; Function compile flags: /Ogty
; File c:\program files\microsoft visual studio .net 2003\vc7\include\functional
;	COMDAT ??R?$less@K@std@@QBE_NABK0@Z
_TEXT	SEGMENT
__Left$ = 8						; size = 4
__Right$ = 12						; size = 4
??R?$less@K@std@@QBE_NABK0@Z PROC NEAR			; std::less<unsigned long>::operator(), COMDAT
; _this$ = ecx

; 139  : 		return (_Left < _Right);

  00000	8b 44 24 04	 mov	 eax, DWORD PTR __Left$[esp-4]
  00004	8b 08		 mov	 ecx, DWORD PTR [eax]
  00006	8b 54 24 08	 mov	 edx, DWORD PTR __Right$[esp-4]
  0000a	3b 0a		 cmp	 ecx, DWORD PTR [edx]
  0000c	1b c0		 sbb	 eax, eax
  0000e	f7 d8		 neg	 eax

; 140  : 		}

  00010	c2 08 00	 ret	 8
??R?$less@K@std@@QBE_NABK0@Z ENDP			; std::less<unsigned long>::operator()
_TEXT	ENDS
PUBLIC	?_Myptr@?$basic_string@DU?$char_traits@D@std@@V?$allocator@D@2@@std@@QAEPADXZ ; std::basic_string<char,std::char_traits<char>,std::allocator<char> >::_Myptr
; Function compile flags: /Ogty
; File c:\program files\microsoft visual studio .net 2003\vc7\include\xstring
;	COMDAT ?_Myptr@?$basic_string@DU?$char_traits@D@std@@V?$allocator@D@2@@std@@QAEPADXZ
_TEXT	SEGMENT
?_Myptr@?$basic_string@DU?$char_traits@D@std@@V?$allocator@D@2@@std@@QAEPADXZ PROC NEAR ; std::basic_string<char,std::char_traits<char>,std::allocator<char> >::_Myptr, COMDAT
; _this$ = ecx

; 1532 : 		return (_BUF_SIZE <= _Myres ? _Bx._Ptr : _Bx._Buf);

  00000	83 79 18 10	 cmp	 DWORD PTR [ecx+24], 16	; 00000010H
  00004	72 04		 jb	 SHORT $L194332
  00006	8b 41 04	 mov	 eax, DWORD PTR [ecx+4]

; 1533 : 		}

  00009	c3		 ret	 0
$L194332:

; 1532 : 		return (_BUF_SIZE <= _Myres ? _Bx._Ptr : _Bx._Buf);

  0000a	8d 41 04	 lea	 eax, DWORD PTR [ecx+4]

; 1533 : 		}

  0000d	c3		 ret	 0
?_Myptr@?$basic_string@DU?$char_traits@D@std@@V?$allocator@D@2@@std@@QAEPADXZ ENDP ; std::basic_string<char,std::char_traits<char>,std::allocator<char> >::_Myptr
_TEXT	ENDS
PUBLIC	?deallocate@?$allocator@D@std@@QAEXPADI@Z	; std::allocator<char>::deallocate
; Function compile flags: /Ogty
; File c:\program files\microsoft visual studio .net 2003\vc7\include\xmemory
;	COMDAT ?deallocate@?$allocator@D@std@@QAEXPADI@Z
_TEXT	SEGMENT
__Ptr$ = 8						; size = 4
___formal$ = 12						; size = 4
?deallocate@?$allocator@D@std@@QAEXPADI@Z PROC NEAR	; std::allocator<char>::deallocate, COMDAT
; _this$ = ecx

; 132  : 		operator delete(_Ptr);

  00000	8b 44 24 04	 mov	 eax, DWORD PTR __Ptr$[esp-4]
  00004	50		 push	 eax
  00005	e8 00 00 00 00	 call	 ??3@YAXPAX@Z		; operator delete
  0000a	59		 pop	 ecx

; 133  : 		}

  0000b	c2 08 00	 ret	 8
?deallocate@?$allocator@D@std@@QAEXPADI@Z ENDP		; std::allocator<char>::deallocate
_TEXT	ENDS
PUBLIC	?_Inside@?$basic_string@DU?$char_traits@D@std@@V?$allocator@D@2@@std@@IAE_NPBD@Z ; std::basic_string<char,std::char_traits<char>,std::allocator<char> >::_Inside
; Function compile flags: /Ogty
; File c:\program files\microsoft visual studio .net 2003\vc7\include\xstring
;	COMDAT ?_Inside@?$basic_string@DU?$char_traits@D@std@@V?$allocator@D@2@@std@@IAE_NPBD@Z
_TEXT	SEGMENT
__Ptr$ = 8						; size = 4
?_Inside@?$basic_string@DU?$char_traits@D@std@@V?$allocator@D@2@@std@@IAE_NPBD@Z PROC NEAR ; std::basic_string<char,std::char_traits<char>,std::allocator<char> >::_Inside, COMDAT
; _this$ = ecx

; 1494 : 		{	// test if _Ptr points inside string

  00000	56		 push	 esi

; 1495 : 		if (_Ptr < _Myptr() || _Myptr() + _Mysize <= _Ptr)

  00001	8b 71 18	 mov	 esi, DWORD PTR [ecx+24]
  00004	83 fe 10	 cmp	 esi, 16			; 00000010H
  00007	57		 push	 edi
  00008	8d 41 04	 lea	 eax, DWORD PTR [ecx+4]
  0000b	72 04		 jb	 SHORT $L194343
  0000d	8b 10		 mov	 edx, DWORD PTR [eax]
  0000f	eb 02		 jmp	 SHORT $L194344
$L194343:
  00011	8b d0		 mov	 edx, eax
$L194344:
  00013	8b 7c 24 0c	 mov	 edi, DWORD PTR __Ptr$[esp+4]
  00017	3b fa		 cmp	 edi, edx
  00019	72 17		 jb	 SHORT $L185560
  0001b	83 fe 10	 cmp	 esi, 16			; 00000010H
  0001e	72 02		 jb	 SHORT $L194351
  00020	8b 00		 mov	 eax, DWORD PTR [eax]
$L194351:
  00022	8b 49 14	 mov	 ecx, DWORD PTR [ecx+20]
  00025	03 c8		 add	 ecx, eax
  00027	3b cf		 cmp	 ecx, edi
  00029	76 07		 jbe	 SHORT $L185560
  0002b	5f		 pop	 edi

; 1497 : 		else
; 1498 : 			return (true);

  0002c	b0 01		 mov	 al, 1
  0002e	5e		 pop	 esi

; 1499 : 		}

  0002f	c2 04 00	 ret	 4
$L185560:
  00032	5f		 pop	 edi

; 1496 : 			return (false);	// don't ask

  00033	32 c0		 xor	 al, al
  00035	5e		 pop	 esi

; 1499 : 		}

  00036	c2 04 00	 ret	 4
?_Inside@?$basic_string@DU?$char_traits@D@std@@V?$allocator@D@2@@std@@IAE_NPBD@Z ENDP ; std::basic_string<char,std::char_traits<char>,std::allocator<char> >::_Inside
_TEXT	ENDS
PUBLIC	?max_size@?$allocator@D@std@@QBEIXZ		; std::allocator<char>::max_size
; Function compile flags: /Ogty
; File c:\program files\microsoft visual studio .net 2003\vc7\include\xmemory
;	COMDAT ?max_size@?$allocator@D@std@@QBEIXZ
_TEXT	SEGMENT
?max_size@?$allocator@D@std@@QBEIXZ PROC NEAR		; std::allocator<char>::max_size, COMDAT
; _this$ = ecx

; 157  : 		_SIZT _Count = (_SIZT)(-1) / sizeof (_Ty);
; 158  : 		return (0 < _Count ? _Count : 1);

  00000	83 c8 ff	 or	 eax, -1

; 159  : 		}

  00003	c3		 ret	 0
?max_size@?$allocator@D@std@@QBEIXZ ENDP		; std::allocator<char>::max_size
_TEXT	ENDS
PUBLIC	?GetAt@?$CFixedArray@UItemProp@@@@QAEPAUItemProp@@K@Z ; CFixedArray<ItemProp>::GetAt
; Function compile flags: /Ogty
; File c:\documents and settings\test\mes documents\source\virtuos_v17\build\program\_common\data.h
;	COMDAT ?GetAt@?$CFixedArray@UItemProp@@@@QAEPAUItemProp@@K@Z
_TEXT	SEGMENT
_dwIndex$ = 8						; size = 4
?GetAt@?$CFixedArray@UItemProp@@@@QAEPAUItemProp@@K@Z PROC NEAR ; CFixedArray<ItemProp>::GetAt, COMDAT
; _this$ = ecx

; 270  : 	if( dwIndex >= (DWORD)m_nMaxIndex )

  00000	8b 44 24 04	 mov	 eax, DWORD PTR _dwIndex$[esp-4]
  00004	3b 41 18	 cmp	 eax, DWORD PTR [ecx+24]
  00007	72 05		 jb	 SHORT $L186281

; 271  : 		return NULL;

  00009	33 c0		 xor	 eax, eax

; 273  : }

  0000b	c2 04 00	 ret	 4
$L186281:

; 272  : 	return (T*) m_apOffset[ dwIndex ];

  0000e	8b 49 08	 mov	 ecx, DWORD PTR [ecx+8]
  00011	8b 04 81	 mov	 eax, DWORD PTR [ecx+eax*4]

; 273  : }

  00014	c2 04 00	 ret	 4
?GetAt@?$CFixedArray@UItemProp@@@@QAEPAUItemProp@@K@Z ENDP ; CFixedArray<ItemProp>::GetAt
_TEXT	ENDS
PUBLIC	??$swap@D@std@@YAXAAD0@Z			; std::swap<char>
; Function compile flags: /Ogty
; File c:\program files\microsoft visual studio .net 2003\vc7\include\utility
;	COMDAT ??$swap@D@std@@YAXAAD0@Z
_TEXT	SEGMENT
__Left$ = 8						; size = 4
__Right$ = 12						; size = 4
??$swap@D@std@@YAXAAD0@Z PROC NEAR			; std::swap<char>, COMDAT

; 15   : 	_Ty _Tmp = _Left;

  00000	8b 44 24 04	 mov	 eax, DWORD PTR __Left$[esp-4]
  00004	8a 08		 mov	 cl, BYTE PTR [eax]
  00006	56		 push	 esi

; 16   : 	_Left = _Right, _Right = _Tmp;

  00007	8b 74 24 0c	 mov	 esi, DWORD PTR __Right$[esp]
  0000b	8a 16		 mov	 dl, BYTE PTR [esi]
  0000d	88 10		 mov	 BYTE PTR [eax], dl
  0000f	88 0e		 mov	 BYTE PTR [esi], cl
  00011	5e		 pop	 esi

; 17   : 	}

  00012	c3		 ret	 0
??$swap@D@std@@YAXAAD0@Z ENDP				; std::swap<char>
_TEXT	ENDS
PUBLIC	??$_Allocate@D@std@@YAPADIPAD@Z			; std::_Allocate<char>
; Function compile flags: /Ogty
; File c:\program files\microsoft visual studio .net 2003\vc7\include\xmemory
;	COMDAT ??$_Allocate@D@std@@YAPADIPAD@Z
_TEXT	SEGMENT
__Count$ = 8						; size = 4
___formal$ = 12						; size = 4
??$_Allocate@D@std@@YAPADIPAD@Z PROC NEAR		; std::_Allocate<char>, COMDAT

; 34   : 	return ((_Ty _FARQ *)operator new(_Count * sizeof (_Ty)));

  00000	8b 44 24 04	 mov	 eax, DWORD PTR __Count$[esp-4]
  00004	50		 push	 eax
  00005	e8 00 00 00 00	 call	 ??2@YAPAXI@Z		; operator new
  0000a	83 c4 04	 add	 esp, 4

; 35   : 	}

  0000d	c3		 ret	 0
??$_Allocate@D@std@@YAPADIPAD@Z ENDP			; std::_Allocate<char>
_TEXT	ENDS
PUBLIC	??0GuildHouse_Furniture_Info@CGuildHouseBase@@QAE@KHUD3DXVECTOR3@@MJ@Z ; CGuildHouseBase::GuildHouse_Furniture_Info::GuildHouse_Furniture_Info
; Function compile flags: /Ogty
; File c:\documents and settings\test\mes documents\source\virtuos_v17\build\program\_common\guildhouse.cpp
;	COMDAT ??0GuildHouse_Furniture_Info@CGuildHouseBase@@QAE@KHUD3DXVECTOR3@@MJ@Z
_TEXT	SEGMENT
_dwII$ = 8						; size = 4
_bS$ = 12						; size = 4
_v$ = 16						; size = 12
_fA$ = 28						; size = 4
_tK$ = 32						; size = 4
??0GuildHouse_Furniture_Info@CGuildHouseBase@@QAE@KHUD3DXVECTOR3@@MJ@Z PROC NEAR ; CGuildHouseBase::GuildHouse_Furniture_Info::GuildHouse_Furniture_Info, COMDAT
; _this$ = ecx

; 47   : {

  00000	8b 44 24 04	 mov	 eax, DWORD PTR _dwII$[esp-4]
  00004	56		 push	 esi
  00005	8b f1		 mov	 esi, ecx
  00007	8b 4c 24 0c	 mov	 ecx, DWORD PTR _bS$[esp]
  0000b	89 06		 mov	 DWORD PTR [esi], eax
  0000d	8b 44 24 10	 mov	 eax, DWORD PTR _v$[esp]
  00011	89 4e 04	 mov	 DWORD PTR [esi+4], ecx
  00014	8b 4c 24 14	 mov	 ecx, DWORD PTR _v$[esp+4]
  00018	8d 56 08	 lea	 edx, DWORD PTR [esi+8]
  0001b	89 02		 mov	 DWORD PTR [edx], eax
  0001d	8b 44 24 18	 mov	 eax, DWORD PTR _v$[esp+8]
  00021	89 4a 04	 mov	 DWORD PTR [edx+4], ecx
  00024	8b 4c 24 1c	 mov	 ecx, DWORD PTR _fA$[esp]
  00028	6a 00		 push	 0
  0002a	89 42 08	 mov	 DWORD PTR [edx+8], eax
  0002d	89 4e 14	 mov	 DWORD PTR [esi+20], ecx
  00030	c7 46 18 ff ff
	ff ff		 mov	 DWORD PTR [esi+24], -1
  00037	e8 00 00 00 00	 call	 _time
  0003c	03 44 24 24	 add	 eax, DWORD PTR _tK$[esp+4]
  00040	89 46 1c	 mov	 DWORD PTR [esi+28], eax
  00043	83 c4 04	 add	 esp, 4
  00046	c7 46 20 00 00
	00 00		 mov	 DWORD PTR [esi+32], 0

; 48   : }

  0004d	8b c6		 mov	 eax, esi
  0004f	5e		 pop	 esi
  00050	c2 1c 00	 ret	 28			; 0000001cH
??0GuildHouse_Furniture_Info@CGuildHouseBase@@QAE@KHUD3DXVECTOR3@@MJ@Z ENDP ; CGuildHouseBase::GuildHouse_Furniture_Info::GuildHouse_Furniture_Info
_TEXT	ENDS
PUBLIC	??Hiterator@?$vector@UGuildHouse_Furniture_Info@CGuildHouseBase@@V?$allocator@UGuildHouse_Furniture_Info@CGuildHouseBase@@@std@@@std@@QBE?AV012@H@Z ; std::vector<CGuildHouseBase::GuildHouse_Furniture_Info,std::allocator<CGuildHouseBase::GuildHouse_Furniture_Info> >::iterator::operator+
; Function compile flags: /Ogty
; File c:\program files\microsoft visual studio .net 2003\vc7\include\vector
;	COMDAT ??Hiterator@?$vector@UGuildHouse_Furniture_Info@CGuildHouseBase@@V?$allocator@UGuildHouse_Furniture_Info@CGuildHouseBase@@@std@@@std@@QBE?AV012@H@Z
_TEXT	SEGMENT
___$ReturnUdt$ = 8					; size = 4
__Off$ = 12						; size = 4
??Hiterator@?$vector@UGuildHouse_Furniture_Info@CGuildHouseBase@@V?$allocator@UGuildHouse_Furniture_Info@CGuildHouseBase@@@std@@@std@@QBE?AV012@H@Z PROC NEAR ; std::vector<CGuildHouseBase::GuildHouse_Furniture_Info,std::allocator<CGuildHouseBase::GuildHouse_Furniture_Info> >::iterator::operator+, COMDAT
; _this$ = ecx

; 262  : 			iterator _Tmp = *this;
; 263  : 			return (_Tmp += _Off);

  00000	8b 44 24 08	 mov	 eax, DWORD PTR __Off$[esp-4]
  00004	8b 09		 mov	 ecx, DWORD PTR [ecx]
  00006	8d 04 c0	 lea	 eax, DWORD PTR [eax+eax*8]
  00009	8d 14 81	 lea	 edx, DWORD PTR [ecx+eax*4]
  0000c	8b 44 24 04	 mov	 eax, DWORD PTR ___$ReturnUdt$[esp-4]
  00010	89 10		 mov	 DWORD PTR [eax], edx

; 264  : 			}

  00012	c2 08 00	 ret	 8
??Hiterator@?$vector@UGuildHouse_Furniture_Info@CGuildHouseBase@@V?$allocator@UGuildHouse_Furniture_Info@CGuildHouseBase@@@std@@@std@@QBE?AV012@H@Z ENDP ; std::vector<CGuildHouseBase::GuildHouse_Furniture_Info,std::allocator<CGuildHouseBase::GuildHouse_Furniture_Info> >::iterator::operator+
_TEXT	ENDS
PUBLIC	??0?$_Vector_val@UGuildHouse_Furniture_Info@CGuildHouseBase@@V?$allocator@UGuildHouse_Furniture_Info@CGuildHouseBase@@@std@@@std@@IAE@V?$allocator@UGuildHouse_Furniture_Info@CGuildHouseBase@@@1@@Z ; std::_Vector_val<CGuildHouseBase::GuildHouse_Furniture_Info,std::allocator<CGuildHouseBase::GuildHouse_Furniture_Info> >::_Vector_val<CGuildHouseBase::GuildHouse_Furniture_Info,std::allocator<CGuildHouseBase::GuildHouse_Furniture_Info> >
; Function compile flags: /Ogty
;	COMDAT ??0?$_Vector_val@UGuildHouse_Furniture_Info@CGuildHouseBase@@V?$allocator@UGuildHouse_Furniture_Info@CGuildHouseBase@@@std@@@std@@IAE@V?$allocator@UGuildHouse_Furniture_Info@CGuildHouseBase@@@1@@Z
_TEXT	SEGMENT
__Al$ = 8						; size = 1
??0?$_Vector_val@UGuildHouse_Furniture_Info@CGuildHouseBase@@V?$allocator@UGuildHouse_Furniture_Info@CGuildHouseBase@@@std@@@std@@IAE@V?$allocator@UGuildHouse_Furniture_Info@CGuildHouseBase@@@1@@Z PROC NEAR ; std::_Vector_val<CGuildHouseBase::GuildHouse_Furniture_Info,std::allocator<CGuildHouseBase::GuildHouse_Furniture_Info> >::_Vector_val<CGuildHouseBase::GuildHouse_Furniture_Info,std::allocator<CGuildHouseBase::GuildHouse_Furniture_Info> >, COMDAT
; _this$ = ecx

; 21   : 		{	// construct allocator from _Al

  00000	8b c1		 mov	 eax, ecx

; 22   : 		}

  00002	c2 04 00	 ret	 4
??0?$_Vector_val@UGuildHouse_Furniture_Info@CGuildHouseBase@@V?$allocator@UGuildHouse_Furniture_Info@CGuildHouseBase@@@std@@@std@@IAE@V?$allocator@UGuildHouse_Furniture_Info@CGuildHouseBase@@@1@@Z ENDP ; std::_Vector_val<CGuildHouseBase::GuildHouse_Furniture_Info,std::allocator<CGuildHouseBase::GuildHouse_Furniture_Info> >::_Vector_val<CGuildHouseBase::GuildHouse_Furniture_Info,std::allocator<CGuildHouseBase::GuildHouse_Furniture_Info> >
_TEXT	ENDS
PUBLIC	?_Key@?$_Tree@V?$_Tmap_traits@KPAVCGuildHouseBase@@U?$less@K@std@@V?$allocator@U?$pair@$$CBKPAVCGuildHouseBase@@@std@@@3@$0A@@std@@@std@@KAABKPAU_Node@?$_Tree_nod@V?$_Tmap_traits@KPAVCGuildHouseBase@@U?$less@K@std@@V?$allocator@U?$pair@$$CBKPAVCGuildHouseBase@@@std@@@3@$0A@@std@@@2@@Z ; std::_Tree<std::_Tmap_traits<unsigned long,CGuildHouseBase *,std::less<unsigned long>,std::allocator<std::pair<unsigned long const ,CGuildHouseBase *> >,0> >::_Key
; Function compile flags: /Ogty
; File c:\program files\microsoft visual studio .net 2003\vc7\include\xtree
;	COMDAT ?_Key@?$_Tree@V?$_Tmap_traits@KPAVCGuildHouseBase@@U?$less@K@std@@V?$allocator@U?$pair@$$CBKPAVCGuildHouseBase@@@std@@@3@$0A@@std@@@std@@KAABKPAU_Node@?$_Tree_nod@V?$_Tmap_traits@KPAVCGuildHouseBase@@U?$less@K@std@@V?$allocator@U?$pair@$$CBKPAVCGuildHouseBase@@@std@@@3@$0A@@std@@@2@@Z
_TEXT	SEGMENT
__Pnode$ = 8						; size = 4
?_Key@?$_Tree@V?$_Tmap_traits@KPAVCGuildHouseBase@@U?$less@K@std@@V?$allocator@U?$pair@$$CBKPAVCGuildHouseBase@@@std@@@3@$0A@@std@@@std@@KAABKPAU_Node@?$_Tree_nod@V?$_Tmap_traits@KPAVCGuildHouseBase@@U?$less@K@std@@V?$allocator@U?$pair@$$CBKPAVCGuildHouseBase@@@std@@@3@$0A@@std@@@2@@Z PROC NEAR ; std::_Tree<std::_Tmap_traits<unsigned long,CGuildHouseBase *,std::less<unsigned long>,std::allocator<std::pair<unsigned long const ,CGuildHouseBase *> >,0> >::_Key, COMDAT

; 142  : 		return (_Mybase::_Kfn(_Myval(_Pnode)));

  00000	8b 44 24 04	 mov	 eax, DWORD PTR __Pnode$[esp-4]
  00004	83 c0 0c	 add	 eax, 12			; 0000000cH

; 143  : 		}

  00007	c3		 ret	 0
?_Key@?$_Tree@V?$_Tmap_traits@KPAVCGuildHouseBase@@U?$less@K@std@@V?$allocator@U?$pair@$$CBKPAVCGuildHouseBase@@@std@@@3@$0A@@std@@@std@@KAABKPAU_Node@?$_Tree_nod@V?$_Tmap_traits@KPAVCGuildHouseBase@@U?$less@K@std@@V?$allocator@U?$pair@$$CBKPAVCGuildHouseBase@@@std@@@3@$0A@@std@@@2@@Z ENDP ; std::_Tree<std::_Tmap_traits<unsigned long,CGuildHouseBase *,std::less<unsigned long>,std::allocator<std::pair<unsigned long const ,CGuildHouseBase *> >,0> >::_Key
_TEXT	ENDS
PUBLIC	?_Lrotate@?$_Tree@V?$_Tmap_traits@KPAVCGuildHouseBase@@U?$less@K@std@@V?$allocator@U?$pair@$$CBKPAVCGuildHouseBase@@@std@@@3@$0A@@std@@@std@@IAEXPAU_Node@?$_Tree_nod@V?$_Tmap_traits@KPAVCGuildHouseBase@@U?$less@K@std@@V?$allocator@U?$pair@$$CBKPAVCGuildHouseBase@@@std@@@3@$0A@@std@@@2@@Z ; std::_Tree<std::_Tmap_traits<unsigned long,CGuildHouseBase *,std::less<unsigned long>,std::allocator<std::pair<unsigned long const ,CGuildHouseBase *> >,0> >::_Lrotate
; Function compile flags: /Ogty
;	COMDAT ?_Lrotate@?$_Tree@V?$_Tmap_traits@KPAVCGuildHouseBase@@U?$less@K@std@@V?$allocator@U?$pair@$$CBKPAVCGuildHouseBase@@@std@@@3@$0A@@std@@@std@@IAEXPAU_Node@?$_Tree_nod@V?$_Tmap_traits@KPAVCGuildHouseBase@@U?$less@K@std@@V?$allocator@U?$pair@$$CBKPAVCGuildHouseBase@@@std@@@3@$0A@@std@@@2@@Z
_TEXT	SEGMENT
__Wherenode$ = 8					; size = 4
?_Lrotate@?$_Tree@V?$_Tmap_traits@KPAVCGuildHouseBase@@U?$less@K@std@@V?$allocator@U?$pair@$$CBKPAVCGuildHouseBase@@@std@@@3@$0A@@std@@@std@@IAEXPAU_Node@?$_Tree_nod@V?$_Tmap_traits@KPAVCGuildHouseBase@@U?$less@K@std@@V?$allocator@U?$pair@$$CBKPAVCGuildHouseBase@@@std@@@3@$0A@@std@@@2@@Z PROC NEAR ; std::_Tree<std::_Tmap_traits<unsigned long,CGuildHouseBase *,std::less<unsigned long>,std::allocator<std::pair<unsigned long const ,CGuildHouseBase *> >,0> >::_Lrotate, COMDAT
; _this$ = ecx

; 1015 : 		_Nodeptr _Pnode = _Right(_Wherenode);

  00000	8b 54 24 04	 mov	 edx, DWORD PTR __Wherenode$[esp-4]
  00004	8b 42 08	 mov	 eax, DWORD PTR [edx+8]
  00007	53		 push	 ebx
  00008	56		 push	 esi

; 1016 : 		_Right(_Wherenode) = _Left(_Pnode);

  00009	8b 30		 mov	 esi, DWORD PTR [eax]
  0000b	89 72 08	 mov	 DWORD PTR [edx+8], esi

; 1017 : 
; 1018 : 		if (!_Isnil(_Left(_Pnode)))

  0000e	8b 30		 mov	 esi, DWORD PTR [eax]
  00010	8a 5e 15	 mov	 bl, BYTE PTR [esi+21]
  00013	84 db		 test	 bl, bl
  00015	75 03		 jne	 SHORT $L192961

; 1019 : 			_Parent(_Left(_Pnode)) = _Wherenode;

  00017	89 56 04	 mov	 DWORD PTR [esi+4], edx
$L192961:

; 1020 : 		_Parent(_Pnode) = _Parent(_Wherenode);

  0001a	8b 72 04	 mov	 esi, DWORD PTR [edx+4]
  0001d	89 70 04	 mov	 DWORD PTR [eax+4], esi

; 1021 : 
; 1022 : 		if (_Wherenode == _Root())

  00020	8b 49 04	 mov	 ecx, DWORD PTR [ecx+4]
  00023	3b 51 04	 cmp	 edx, DWORD PTR [ecx+4]
  00026	75 0d		 jne	 SHORT $L192962

; 1023 : 			_Root() = _Pnode;

  00028	89 41 04	 mov	 DWORD PTR [ecx+4], eax
  0002b	5e		 pop	 esi

; 1028 : 
; 1029 : 		_Left(_Pnode) = _Wherenode;

  0002c	89 10		 mov	 DWORD PTR [eax], edx

; 1030 : 		_Parent(_Wherenode) = _Pnode;

  0002e	89 42 04	 mov	 DWORD PTR [edx+4], eax
  00031	5b		 pop	 ebx

; 1031 : 		}

  00032	c2 04 00	 ret	 4
$L192962:

; 1024 : 		else if (_Wherenode == _Left(_Parent(_Wherenode)))

  00035	8b 4a 04	 mov	 ecx, DWORD PTR [edx+4]
  00038	3b 11		 cmp	 edx, DWORD PTR [ecx]
  0003a	75 0c		 jne	 SHORT $L192964

; 1025 : 			_Left(_Parent(_Wherenode)) = _Pnode;

  0003c	89 01		 mov	 DWORD PTR [ecx], eax
  0003e	5e		 pop	 esi

; 1028 : 
; 1029 : 		_Left(_Pnode) = _Wherenode;

  0003f	89 10		 mov	 DWORD PTR [eax], edx

; 1030 : 		_Parent(_Wherenode) = _Pnode;

  00041	89 42 04	 mov	 DWORD PTR [edx+4], eax
  00044	5b		 pop	 ebx

; 1031 : 		}

  00045	c2 04 00	 ret	 4
$L192964:

; 1026 : 		else
; 1027 : 			_Right(_Parent(_Wherenode)) = _Pnode;

  00048	89 41 08	 mov	 DWORD PTR [ecx+8], eax
  0004b	5e		 pop	 esi

; 1028 : 
; 1029 : 		_Left(_Pnode) = _Wherenode;

  0004c	89 10		 mov	 DWORD PTR [eax], edx

; 1030 : 		_Parent(_Wherenode) = _Pnode;

  0004e	89 42 04	 mov	 DWORD PTR [edx+4], eax
  00051	5b		 pop	 ebx

; 1031 : 		}

  00052	c2 04 00	 ret	 4
?_Lrotate@?$_Tree@V?$_Tmap_traits@KPAVCGuildHouseBase@@U?$less@K@std@@V?$allocator@U?$pair@$$CBKPAVCGuildHouseBase@@@std@@@3@$0A@@std@@@std@@IAEXPAU_Node@?$_Tree_nod@V?$_Tmap_traits@KPAVCGuildHouseBase@@U?$less@K@std@@V?$allocator@U?$pair@$$CBKPAVCGuildHouseBase@@@std@@@3@$0A@@std@@@2@@Z ENDP ; std::_Tree<std::_Tmap_traits<unsigned long,CGuildHouseBase *,std::less<unsigned long>,std::allocator<std::pair<unsigned long const ,CGuildHouseBase *> >,0> >::_Lrotate
_TEXT	ENDS
PUBLIC	?destroy@?$allocator@U_Node@?$_Tree_nod@V?$_Tmap_traits@KPAVCGuildHouseBase@@U?$less@K@std@@V?$allocator@U?$pair@$$CBKPAVCGuildHouseBase@@@std@@@3@$0A@@std@@@std@@@std@@QAEXPAU_Node@?$_Tree_nod@V?$_Tmap_traits@KPAVCGuildHouseBase@@U?$less@K@std@@V?$allocator@U?$pair@$$CBKPAVCGuildHouseBase@@@std@@@3@$0A@@std@@@2@@Z ; std::allocator<std::_Tree_nod<std::_Tmap_traits<unsigned long,CGuildHouseBase *,std::less<unsigned long>,std::allocator<std::pair<unsigned long const ,CGuildHouseBase *> >,0> >::_Node>::destroy
; Function compile flags: /Ogty
; File c:\program files\microsoft visual studio .net 2003\vc7\include\xmemory
;	COMDAT ?destroy@?$allocator@U_Node@?$_Tree_nod@V?$_Tmap_traits@KPAVCGuildHouseBase@@U?$less@K@std@@V?$allocator@U?$pair@$$CBKPAVCGuildHouseBase@@@std@@@3@$0A@@std@@@std@@@std@@QAEXPAU_Node@?$_Tree_nod@V?$_Tmap_traits@KPAVCGuildHouseBase@@U?$less@K@std@@V?$allocator@U?$pair@$$CBKPAVCGuildHouseBase@@@std@@@3@$0A@@std@@@2@@Z
_TEXT	SEGMENT
__Ptr$ = 8						; size = 4
?destroy@?$allocator@U_Node@?$_Tree_nod@V?$_Tmap_traits@KPAVCGuildHouseBase@@U?$less@K@std@@V?$allocator@U?$pair@$$CBKPAVCGuildHouseBase@@@std@@@3@$0A@@std@@@std@@@std@@QAEXPAU_Node@?$_Tree_nod@V?$_Tmap_traits@KPAVCGuildHouseBase@@U?$less@K@std@@V?$allocator@U?$pair@$$CBKPAVCGuildHouseBase@@@std@@@3@$0A@@std@@@2@@Z PROC NEAR ; std::allocator<std::_Tree_nod<std::_Tmap_traits<unsigned long,CGuildHouseBase *,std::less<unsigned long>,std::allocator<std::pair<unsigned long const ,CGuildHouseBase *> >,0> >::_Node>::destroy, COMDAT
; _this$ = ecx

; 152  : 		_Destroy(_Ptr);
; 153  : 		}

  00000	c2 04 00	 ret	 4
?destroy@?$allocator@U_Node@?$_Tree_nod@V?$_Tmap_traits@KPAVCGuildHouseBase@@U?$less@K@std@@V?$allocator@U?$pair@$$CBKPAVCGuildHouseBase@@@std@@@3@$0A@@std@@@std@@@std@@QAEXPAU_Node@?$_Tree_nod@V?$_Tmap_traits@KPAVCGuildHouseBase@@U?$less@K@std@@V?$allocator@U?$pair@$$CBKPAVCGuildHouseBase@@@std@@@3@$0A@@std@@@2@@Z ENDP ; std::allocator<std::_Tree_nod<std::_Tmap_traits<unsigned long,CGuildHouseBase *,std::less<unsigned long>,std::allocator<std::pair<unsigned long const ,CGuildHouseBase *> >,0> >::_Node>::destroy
_TEXT	ENDS
PUBLIC	??0iterator@?$_Tree@V?$_Tmap_traits@KPAVCGuildHouseBase@@U?$less@K@std@@V?$allocator@U?$pair@$$CBKPAVCGuildHouseBase@@@std@@@3@$0A@@std@@@std@@QAE@PAU_Node@?$_Tree_nod@V?$_Tmap_traits@KPAVCGuildHouseBase@@U?$less@K@std@@V?$allocator@U?$pair@$$CBKPAVCGuildHouseBase@@@std@@@3@$0A@@std@@@2@@Z ; std::_Tree<std::_Tmap_traits<unsigned long,CGuildHouseBase *,std::less<unsigned long>,std::allocator<std::pair<unsigned long const ,CGuildHouseBase *> >,0> >::iterator::iterator
; Function compile flags: /Ogty
; File c:\program files\microsoft visual studio .net 2003\vc7\include\xtree
;	COMDAT ??0iterator@?$_Tree@V?$_Tmap_traits@KPAVCGuildHouseBase@@U?$less@K@std@@V?$allocator@U?$pair@$$CBKPAVCGuildHouseBase@@@std@@@3@$0A@@std@@@std@@QAE@PAU_Node@?$_Tree_nod@V?$_Tmap_traits@KPAVCGuildHouseBase@@U?$less@K@std@@V?$allocator@U?$pair@$$CBKPAVCGuildHouseBase@@@std@@@3@$0A@@std@@@2@@Z
_TEXT	SEGMENT
__Pnode$ = 8						; size = 4
??0iterator@?$_Tree@V?$_Tmap_traits@KPAVCGuildHouseBase@@U?$less@K@std@@V?$allocator@U?$pair@$$CBKPAVCGuildHouseBase@@@std@@@3@$0A@@std@@@std@@QAE@PAU_Node@?$_Tree_nod@V?$_Tmap_traits@KPAVCGuildHouseBase@@U?$less@K@std@@V?$allocator@U?$pair@$$CBKPAVCGuildHouseBase@@@std@@@3@$0A@@std@@@2@@Z PROC NEAR ; std::_Tree<std::_Tmap_traits<unsigned long,CGuildHouseBase *,std::less<unsigned long>,std::allocator<std::pair<unsigned long const ,CGuildHouseBase *> >,0> >::iterator::iterator, COMDAT
; _this$ = ecx

; 312  : 			{	// construct with node pointer _Pnode

  00000	8b c1		 mov	 eax, ecx
  00002	8b 4c 24 04	 mov	 ecx, DWORD PTR __Pnode$[esp-4]
  00006	89 08		 mov	 DWORD PTR [eax], ecx

; 313  : 			}

  00008	c2 04 00	 ret	 4
??0iterator@?$_Tree@V?$_Tmap_traits@KPAVCGuildHouseBase@@U?$less@K@std@@V?$allocator@U?$pair@$$CBKPAVCGuildHouseBase@@@std@@@3@$0A@@std@@@std@@QAE@PAU_Node@?$_Tree_nod@V?$_Tmap_traits@KPAVCGuildHouseBase@@U?$less@K@std@@V?$allocator@U?$pair@$$CBKPAVCGuildHouseBase@@@std@@@3@$0A@@std@@@2@@Z ENDP ; std::_Tree<std::_Tmap_traits<unsigned long,CGuildHouseBase *,std::less<unsigned long>,std::allocator<std::pair<unsigned long const ,CGuildHouseBase *> >,0> >::iterator::iterator
_TEXT	ENDS
PUBLIC	??Diterator@?$_Tree@V?$_Tmap_traits@KPAVCGuildHouseBase@@U?$less@K@std@@V?$allocator@U?$pair@$$CBKPAVCGuildHouseBase@@@std@@@3@$0A@@std@@@std@@QBEAAU?$pair@$$CBKPAVCGuildHouseBase@@@2@XZ ; std::_Tree<std::_Tmap_traits<unsigned long,CGuildHouseBase *,std::less<unsigned long>,std::allocator<std::pair<unsigned long const ,CGuildHouseBase *> >,0> >::iterator::operator*
; Function compile flags: /Ogty
;	COMDAT ??Diterator@?$_Tree@V?$_Tmap_traits@KPAVCGuildHouseBase@@U?$less@K@std@@V?$allocator@U?$pair@$$CBKPAVCGuildHouseBase@@@std@@@3@$0A@@std@@@std@@QBEAAU?$pair@$$CBKPAVCGuildHouseBase@@@2@XZ
_TEXT	SEGMENT
??Diterator@?$_Tree@V?$_Tmap_traits@KPAVCGuildHouseBase@@U?$less@K@std@@V?$allocator@U?$pair@$$CBKPAVCGuildHouseBase@@@std@@@3@$0A@@std@@@std@@QBEAAU?$pair@$$CBKPAVCGuildHouseBase@@@2@XZ PROC NEAR ; std::_Tree<std::_Tmap_traits<unsigned long,CGuildHouseBase *,std::less<unsigned long>,std::allocator<std::pair<unsigned long const ,CGuildHouseBase *> >,0> >::iterator::operator*, COMDAT
; _this$ = ecx

; 317  : 			return ((reference)**(const_iterator *)this);

  00000	8b 01		 mov	 eax, DWORD PTR [ecx]
  00002	83 c0 0c	 add	 eax, 12			; 0000000cH

; 318  : 			}

  00005	c3		 ret	 0
??Diterator@?$_Tree@V?$_Tmap_traits@KPAVCGuildHouseBase@@U?$less@K@std@@V?$allocator@U?$pair@$$CBKPAVCGuildHouseBase@@@std@@@3@$0A@@std@@@std@@QBEAAU?$pair@$$CBKPAVCGuildHouseBase@@@2@XZ ENDP ; std::_Tree<std::_Tmap_traits<unsigned long,CGuildHouseBase *,std::less<unsigned long>,std::allocator<std::pair<unsigned long const ,CGuildHouseBase *> >,0> >::iterator::operator*
_TEXT	ENDS
PUBLIC	??0iterator@?$vector@UGuildHouse_Furniture_Info@CGuildHouseBase@@V?$allocator@UGuildHouse_Furniture_Info@CGuildHouseBase@@@std@@@std@@QAE@PAUGuildHouse_Furniture_Info@CGuildHouseBase@@@Z ; std::vector<CGuildHouseBase::GuildHouse_Furniture_Info,std::allocator<CGuildHouseBase::GuildHouse_Furniture_Info> >::iterator::iterator
; Function compile flags: /Ogty
; File c:\program files\microsoft visual studio .net 2003\vc7\include\vector
;	COMDAT ??0iterator@?$vector@UGuildHouse_Furniture_Info@CGuildHouseBase@@V?$allocator@UGuildHouse_Furniture_Info@CGuildHouseBase@@@std@@@std@@QAE@PAUGuildHouse_Furniture_Info@CGuildHouseBase@@@Z
_TEXT	SEGMENT
__Ptr$ = 8						; size = 4
??0iterator@?$vector@UGuildHouse_Furniture_Info@CGuildHouseBase@@V?$allocator@UGuildHouse_Furniture_Info@CGuildHouseBase@@@std@@@std@@QAE@PAUGuildHouse_Furniture_Info@CGuildHouseBase@@@Z PROC NEAR ; std::vector<CGuildHouseBase::GuildHouse_Furniture_Info,std::allocator<CGuildHouseBase::GuildHouse_Furniture_Info> >::iterator::iterator, COMDAT
; _this$ = ecx

; 215  : 			{	// construct with pointer _Ptr

  00000	8b c1		 mov	 eax, ecx
  00002	8b 4c 24 04	 mov	 ecx, DWORD PTR __Ptr$[esp-4]
  00006	89 08		 mov	 DWORD PTR [eax], ecx

; 216  : 			}

  00008	c2 04 00	 ret	 4
??0iterator@?$vector@UGuildHouse_Furniture_Info@CGuildHouseBase@@V?$allocator@UGuildHouse_Furniture_Info@CGuildHouseBase@@@std@@@std@@QAE@PAUGuildHouse_Furniture_Info@CGuildHouseBase@@@Z ENDP ; std::vector<CGuildHouseBase::GuildHouse_Furniture_Info,std::allocator<CGuildHouseBase::GuildHouse_Furniture_Info> >::iterator::iterator
_TEXT	ENDS
PUBLIC	??Diterator@?$vector@UGuildHouse_Furniture_Info@CGuildHouseBase@@V?$allocator@UGuildHouse_Furniture_Info@CGuildHouseBase@@@std@@@std@@QBEAAUGuildHouse_Furniture_Info@CGuildHouseBase@@XZ ; std::vector<CGuildHouseBase::GuildHouse_Furniture_Info,std::allocator<CGuildHouseBase::GuildHouse_Furniture_Info> >::iterator::operator*
; Function compile flags: /Ogty
;	COMDAT ??Diterator@?$vector@UGuildHouse_Furniture_Info@CGuildHouseBase@@V?$allocator@UGuildHouse_Furniture_Info@CGuildHouseBase@@@std@@@std@@QBEAAUGuildHouse_Furniture_Info@CGuildHouseBase@@XZ
_TEXT	SEGMENT
??Diterator@?$vector@UGuildHouse_Furniture_Info@CGuildHouseBase@@V?$allocator@UGuildHouse_Furniture_Info@CGuildHouseBase@@@std@@@std@@QBEAAUGuildHouse_Furniture_Info@CGuildHouseBase@@XZ PROC NEAR ; std::vector<CGuildHouseBase::GuildHouse_Furniture_Info,std::allocator<CGuildHouseBase::GuildHouse_Furniture_Info> >::iterator::operator*, COMDAT
; _this$ = ecx

; 220  : 			return ((reference)**(const_iterator *)this);

  00000	8b 01		 mov	 eax, DWORD PTR [ecx]

; 221  : 			}

  00002	c3		 ret	 0
??Diterator@?$vector@UGuildHouse_Furniture_Info@CGuildHouseBase@@V?$allocator@UGuildHouse_Furniture_Info@CGuildHouseBase@@@std@@@std@@QBEAAUGuildHouse_Furniture_Info@CGuildHouseBase@@XZ ENDP ; std::vector<CGuildHouseBase::GuildHouse_Furniture_Info,std::allocator<CGuildHouseBase::GuildHouse_Furniture_Info> >::iterator::operator*
_TEXT	ENDS
PUBLIC	?max_size@?$vector@UGuildHouse_Furniture_Info@CGuildHouseBase@@V?$allocator@UGuildHouse_Furniture_Info@CGuildHouseBase@@@std@@@std@@QBEIXZ ; std::vector<CGuildHouseBase::GuildHouse_Furniture_Info,std::allocator<CGuildHouseBase::GuildHouse_Furniture_Info> >::max_size
; Function compile flags: /Ogty
;	COMDAT ?max_size@?$vector@UGuildHouse_Furniture_Info@CGuildHouseBase@@V?$allocator@UGuildHouse_Furniture_Info@CGuildHouseBase@@@std@@@std@@QBEIXZ
_TEXT	SEGMENT
?max_size@?$vector@UGuildHouse_Furniture_Info@CGuildHouseBase@@V?$allocator@UGuildHouse_Furniture_Info@CGuildHouseBase@@@std@@@std@@QBEIXZ PROC NEAR ; std::vector<CGuildHouseBase::GuildHouse_Furniture_Info,std::allocator<CGuildHouseBase::GuildHouse_Furniture_Info> >::max_size, COMDAT
; _this$ = ecx

; 521  : 		return (this->_Alval.max_size());

  00000	b8 c7 71 1c 07	 mov	 eax, 119304647		; 071c71c7H

; 522  : 		}

  00005	c3		 ret	 0
?max_size@?$vector@UGuildHouse_Furniture_Info@CGuildHouseBase@@V?$allocator@UGuildHouse_Furniture_Info@CGuildHouseBase@@@std@@@std@@QBEIXZ ENDP ; std::vector<CGuildHouseBase::GuildHouse_Furniture_Info,std::allocator<CGuildHouseBase::GuildHouse_Furniture_Info> >::max_size
_TEXT	ENDS
PUBLIC	?allocate@?$allocator@UGuildHouse_Furniture_Info@CGuildHouseBase@@@std@@QAEPAUGuildHouse_Furniture_Info@CGuildHouseBase@@I@Z ; std::allocator<CGuildHouseBase::GuildHouse_Furniture_Info>::allocate
; Function compile flags: /Ogty
; File c:\program files\microsoft visual studio .net 2003\vc7\include\xmemory
;	COMDAT ?allocate@?$allocator@UGuildHouse_Furniture_Info@CGuildHouseBase@@@std@@QAEPAUGuildHouse_Furniture_Info@CGuildHouseBase@@I@Z
_TEXT	SEGMENT
__Count$ = 8						; size = 4
?allocate@?$allocator@UGuildHouse_Furniture_Info@CGuildHouseBase@@@std@@QAEPAUGuildHouse_Furniture_Info@CGuildHouseBase@@I@Z PROC NEAR ; std::allocator<CGuildHouseBase::GuildHouse_Furniture_Info>::allocate, COMDAT
; _this$ = ecx

; 137  : 		return (_Allocate(_Count, (pointer)0));

  00000	8b 44 24 04	 mov	 eax, DWORD PTR __Count$[esp-4]
  00004	8d 04 c0	 lea	 eax, DWORD PTR [eax+eax*8]
  00007	c1 e0 02	 shl	 eax, 2
  0000a	50		 push	 eax
  0000b	e8 00 00 00 00	 call	 ??2@YAPAXI@Z		; operator new
  00010	83 c4 04	 add	 esp, 4

; 138  : 		}

  00013	c2 04 00	 ret	 4
?allocate@?$allocator@UGuildHouse_Furniture_Info@CGuildHouseBase@@@std@@QAEPAUGuildHouse_Furniture_Info@CGuildHouseBase@@I@Z ENDP ; std::allocator<CGuildHouseBase::GuildHouse_Furniture_Info>::allocate
_TEXT	ENDS
PUBLIC	?max_size@?$_Tree@V?$_Tmap_traits@KPAVCGuildHouseBase@@U?$less@K@std@@V?$allocator@U?$pair@$$CBKPAVCGuildHouseBase@@@std@@@3@$0A@@std@@@std@@QBEIXZ ; std::_Tree<std::_Tmap_traits<unsigned long,CGuildHouseBase *,std::less<unsigned long>,std::allocator<std::pair<unsigned long const ,CGuildHouseBase *> >,0> >::max_size
; Function compile flags: /Ogty
; File c:\program files\microsoft visual studio .net 2003\vc7\include\xtree
;	COMDAT ?max_size@?$_Tree@V?$_Tmap_traits@KPAVCGuildHouseBase@@U?$less@K@std@@V?$allocator@U?$pair@$$CBKPAVCGuildHouseBase@@@std@@@3@$0A@@std@@@std@@QBEIXZ
_TEXT	SEGMENT
?max_size@?$_Tree@V?$_Tmap_traits@KPAVCGuildHouseBase@@U?$less@K@std@@V?$allocator@U?$pair@$$CBKPAVCGuildHouseBase@@@std@@@3@$0A@@std@@@std@@QBEIXZ PROC NEAR ; std::_Tree<std::_Tmap_traits<unsigned long,CGuildHouseBase *,std::less<unsigned long>,std::allocator<std::pair<unsigned long const ,CGuildHouseBase *> >,0> >::max_size, COMDAT
; _this$ = ecx

; 453  : 		return (this->_Alval.max_size());

  00000	b8 ff ff ff 1f	 mov	 eax, 536870911		; 1fffffffH

; 454  : 		}

  00005	c3		 ret	 0
?max_size@?$_Tree@V?$_Tmap_traits@KPAVCGuildHouseBase@@U?$less@K@std@@V?$allocator@U?$pair@$$CBKPAVCGuildHouseBase@@@std@@@3@$0A@@std@@@std@@QBEIXZ ENDP ; std::_Tree<std::_Tmap_traits<unsigned long,CGuildHouseBase *,std::less<unsigned long>,std::allocator<std::pair<unsigned long const ,CGuildHouseBase *> >,0> >::max_size
_TEXT	ENDS
PUBLIC	?_Lbound@?$_Tree@V?$_Tmap_traits@KPAVCGuildHouseBase@@U?$less@K@std@@V?$allocator@U?$pair@$$CBKPAVCGuildHouseBase@@@std@@@3@$0A@@std@@@std@@IBEPAU_Node@?$_Tree_nod@V?$_Tmap_traits@KPAVCGuildHouseBase@@U?$less@K@std@@V?$allocator@U?$pair@$$CBKPAVCGuildHouseBase@@@std@@@3@$0A@@std@@@2@ABK@Z ; std::_Tree<std::_Tmap_traits<unsigned long,CGuildHouseBase *,std::less<unsigned long>,std::allocator<std::pair<unsigned long const ,CGuildHouseBase *> >,0> >::_Lbound
; Function compile flags: /Ogty
;	COMDAT ?_Lbound@?$_Tree@V?$_Tmap_traits@KPAVCGuildHouseBase@@U?$less@K@std@@V?$allocator@U?$pair@$$CBKPAVCGuildHouseBase@@@std@@@3@$0A@@std@@@std@@IBEPAU_Node@?$_Tree_nod@V?$_Tmap_traits@KPAVCGuildHouseBase@@U?$less@K@std@@V?$allocator@U?$pair@$$CBKPAVCGuildHouseBase@@@std@@@3@$0A@@std@@@2@ABK@Z
_TEXT	SEGMENT
__Keyval$ = 8						; size = 4
?_Lbound@?$_Tree@V?$_Tmap_traits@KPAVCGuildHouseBase@@U?$less@K@std@@V?$allocator@U?$pair@$$CBKPAVCGuildHouseBase@@@std@@@3@$0A@@std@@@std@@IBEPAU_Node@?$_Tree_nod@V?$_Tmap_traits@KPAVCGuildHouseBase@@U?$less@K@std@@V?$allocator@U?$pair@$$CBKPAVCGuildHouseBase@@@std@@@3@$0A@@std@@@2@ABK@Z PROC NEAR ; std::_Tree<std::_Tmap_traits<unsigned long,CGuildHouseBase *,std::less<unsigned long>,std::allocator<std::pair<unsigned long const ,CGuildHouseBase *> >,0> >::_Lbound, COMDAT
; _this$ = ecx

; 988  : 		_Nodeptr _Pnode = _Root();

  00000	8b 41 04	 mov	 eax, DWORD PTR [ecx+4]
  00003	8b 48 04	 mov	 ecx, DWORD PTR [eax+4]

; 989  : 		_Nodeptr _Wherenode = _Myhead;	// end() if search fails
; 990  : 
; 991  : 		while (!_Isnil(_Pnode))

  00006	8a 51 15	 mov	 dl, BYTE PTR [ecx+21]
  00009	84 d2		 test	 dl, dl
  0000b	75 1d		 jne	 SHORT $L193114
  0000d	8b 54 24 04	 mov	 edx, DWORD PTR __Keyval$[esp-4]
  00011	8b 12		 mov	 edx, DWORD PTR [edx]
  00013	53		 push	 ebx
$L193113:

; 992  : 			if (this->comp(_Key(_Pnode), _Keyval))

  00014	39 51 0c	 cmp	 DWORD PTR [ecx+12], edx
  00017	73 05		 jae	 SHORT $L193115

; 993  : 				_Pnode = _Right(_Pnode);	// descend right subtree

  00019	8b 49 08	 mov	 ecx, DWORD PTR [ecx+8]

; 994  : 			else

  0001c	eb 04		 jmp	 SHORT $L193116
$L193115:

; 995  : 				{	// _Pnode not less than _Keyval, remember it
; 996  : 				_Wherenode = _Pnode;

  0001e	8b c1		 mov	 eax, ecx

; 997  : 				_Pnode = _Left(_Pnode);	// descend left subtree

  00020	8b 09		 mov	 ecx, DWORD PTR [ecx]
$L193116:
  00022	8a 59 15	 mov	 bl, BYTE PTR [ecx+21]
  00025	84 db		 test	 bl, bl
  00027	74 eb		 je	 SHORT $L193113
  00029	5b		 pop	 ebx
$L193114:

; 998  : 				}
; 999  : 
; 1000 : 		return (_Wherenode);	// return best remembered candidate
; 1001 : 		}

  0002a	c2 04 00	 ret	 4
?_Lbound@?$_Tree@V?$_Tmap_traits@KPAVCGuildHouseBase@@U?$less@K@std@@V?$allocator@U?$pair@$$CBKPAVCGuildHouseBase@@@std@@@3@$0A@@std@@@std@@IBEPAU_Node@?$_Tree_nod@V?$_Tmap_traits@KPAVCGuildHouseBase@@U?$less@K@std@@V?$allocator@U?$pair@$$CBKPAVCGuildHouseBase@@@std@@@3@$0A@@std@@@2@ABK@Z ENDP ; std::_Tree<std::_Tmap_traits<unsigned long,CGuildHouseBase *,std::less<unsigned long>,std::allocator<std::pair<unsigned long const ,CGuildHouseBase *> >,0> >::_Lbound
_TEXT	ENDS
PUBLIC	?destroy@?$allocator@PAU_Node@?$_Tree_nod@V?$_Tmap_traits@KPAVCGuildHouseBase@@U?$less@K@std@@V?$allocator@U?$pair@$$CBKPAVCGuildHouseBase@@@std@@@3@$0A@@std@@@std@@@std@@QAEXPAPAU_Node@?$_Tree_nod@V?$_Tmap_traits@KPAVCGuildHouseBase@@U?$less@K@std@@V?$allocator@U?$pair@$$CBKPAVCGuildHouseBase@@@std@@@3@$0A@@std@@@2@@Z ; std::allocator<std::_Tree_nod<std::_Tmap_traits<unsigned long,CGuildHouseBase *,std::less<unsigned long>,std::allocator<std::pair<unsigned long const ,CGuildHouseBase *> >,0> >::_Node *>::destroy
; Function compile flags: /Ogty
; File c:\program files\microsoft visual studio .net 2003\vc7\include\xmemory
;	COMDAT ?destroy@?$allocator@PAU_Node@?$_Tree_nod@V?$_Tmap_traits@KPAVCGuildHouseBase@@U?$less@K@std@@V?$allocator@U?$pair@$$CBKPAVCGuildHouseBase@@@std@@@3@$0A@@std@@@std@@@std@@QAEXPAPAU_Node@?$_Tree_nod@V?$_Tmap_traits@KPAVCGuildHouseBase@@U?$less@K@std@@V?$allocator@U?$pair@$$CBKPAVCGuildHouseBase@@@std@@@3@$0A@@std@@@2@@Z
_TEXT	SEGMENT
__Ptr$ = 8						; size = 4
?destroy@?$allocator@PAU_Node@?$_Tree_nod@V?$_Tmap_traits@KPAVCGuildHouseBase@@U?$less@K@std@@V?$allocator@U?$pair@$$CBKPAVCGuildHouseBase@@@std@@@3@$0A@@std@@@std@@@std@@QAEXPAPAU_Node@?$_Tree_nod@V?$_Tmap_traits@KPAVCGuildHouseBase@@U?$less@K@std@@V?$allocator@U?$pair@$$CBKPAVCGuildHouseBase@@@std@@@3@$0A@@std@@@2@@Z PROC NEAR ; std::allocator<std::_Tree_nod<std::_Tmap_traits<unsigned long,CGuildHouseBase *,std::less<unsigned long>,std::allocator<std::pair<unsigned long const ,CGuildHouseBase *> >,0> >::_Node *>::destroy, COMDAT
; _this$ = ecx

; 152  : 		_Destroy(_Ptr);
; 153  : 		}

  00000	c2 04 00	 ret	 4
?destroy@?$allocator@PAU_Node@?$_Tree_nod@V?$_Tmap_traits@KPAVCGuildHouseBase@@U?$less@K@std@@V?$allocator@U?$pair@$$CBKPAVCGuildHouseBase@@@std@@@3@$0A@@std@@@std@@@std@@QAEXPAPAU_Node@?$_Tree_nod@V?$_Tmap_traits@KPAVCGuildHouseBase@@U?$less@K@std@@V?$allocator@U?$pair@$$CBKPAVCGuildHouseBase@@@std@@@3@$0A@@std@@@2@@Z ENDP ; std::allocator<std::_Tree_nod<std::_Tmap_traits<unsigned long,CGuildHouseBase *,std::less<unsigned long>,std::allocator<std::pair<unsigned long const ,CGuildHouseBase *> >,0> >::_Node *>::destroy
_TEXT	ENDS
PUBLIC	??Econst_iterator@?$_Tree@V?$_Tmap_traits@KPAVCGuildHouseBase@@U?$less@K@std@@V?$allocator@U?$pair@$$CBKPAVCGuildHouseBase@@@std@@@3@$0A@@std@@@std@@QAEAAV012@XZ ; std::_Tree<std::_Tmap_traits<unsigned long,CGuildHouseBase *,std::less<unsigned long>,std::allocator<std::pair<unsigned long const ,CGuildHouseBase *> >,0> >::const_iterator::operator++
; Function compile flags: /Ogty
; File c:\program files\microsoft visual studio .net 2003\vc7\include\xtree
;	COMDAT ??Econst_iterator@?$_Tree@V?$_Tmap_traits@KPAVCGuildHouseBase@@U?$less@K@std@@V?$allocator@U?$pair@$$CBKPAVCGuildHouseBase@@@std@@@3@$0A@@std@@@std@@QAEAAV012@XZ
_TEXT	SEGMENT
??Econst_iterator@?$_Tree@V?$_Tmap_traits@KPAVCGuildHouseBase@@U?$less@K@std@@V?$allocator@U?$pair@$$CBKPAVCGuildHouseBase@@@std@@@3@$0A@@std@@@std@@QAEAAV012@XZ PROC NEAR ; std::_Tree<std::_Tmap_traits<unsigned long,CGuildHouseBase *,std::less<unsigned long>,std::allocator<std::pair<unsigned long const ,CGuildHouseBase *> >,0> >::const_iterator::operator++, COMDAT
; _this$ = ecx

; 214  : 			{	// preincrement

  00000	56		 push	 esi
  00001	8b f1		 mov	 esi, ecx

; 215  : 			_Inc();

  00003	e8 00 00 00 00	 call	 ?_Inc@const_iterator@?$_Tree@V?$_Tmap_traits@KPAVCGuildHouseBase@@U?$less@K@std@@V?$allocator@U?$pair@$$CBKPAVCGuildHouseBase@@@std@@@3@$0A@@std@@@std@@QAEXXZ ; std::_Tree<std::_Tmap_traits<unsigned long,CGuildHouseBase *,std::less<unsigned long>,std::allocator<std::pair<unsigned long const ,CGuildHouseBase *> >,0> >::const_iterator::_Inc

; 216  : 			return (*this);

  00008	8b c6		 mov	 eax, esi
  0000a	5e		 pop	 esi

; 217  : 			}

  0000b	c3		 ret	 0
??Econst_iterator@?$_Tree@V?$_Tmap_traits@KPAVCGuildHouseBase@@U?$less@K@std@@V?$allocator@U?$pair@$$CBKPAVCGuildHouseBase@@@std@@@3@$0A@@std@@@std@@QAEAAV012@XZ ENDP ; std::_Tree<std::_Tmap_traits<unsigned long,CGuildHouseBase *,std::less<unsigned long>,std::allocator<std::pair<unsigned long const ,CGuildHouseBase *> >,0> >::const_iterator::operator++
_TEXT	ENDS
PUBLIC	??Fconst_iterator@?$_Tree@V?$_Tmap_traits@KPAVCGuildHouseBase@@U?$less@K@std@@V?$allocator@U?$pair@$$CBKPAVCGuildHouseBase@@@std@@@3@$0A@@std@@@std@@QAEAAV012@XZ ; std::_Tree<std::_Tmap_traits<unsigned long,CGuildHouseBase *,std::less<unsigned long>,std::allocator<std::pair<unsigned long const ,CGuildHouseBase *> >,0> >::const_iterator::operator--
; Function compile flags: /Ogty
;	COMDAT ??Fconst_iterator@?$_Tree@V?$_Tmap_traits@KPAVCGuildHouseBase@@U?$less@K@std@@V?$allocator@U?$pair@$$CBKPAVCGuildHouseBase@@@std@@@3@$0A@@std@@@std@@QAEAAV012@XZ
_TEXT	SEGMENT
??Fconst_iterator@?$_Tree@V?$_Tmap_traits@KPAVCGuildHouseBase@@U?$less@K@std@@V?$allocator@U?$pair@$$CBKPAVCGuildHouseBase@@@std@@@3@$0A@@std@@@std@@QAEAAV012@XZ PROC NEAR ; std::_Tree<std::_Tmap_traits<unsigned long,CGuildHouseBase *,std::less<unsigned long>,std::allocator<std::pair<unsigned long const ,CGuildHouseBase *> >,0> >::const_iterator::operator--, COMDAT
; _this$ = ecx

; 227  : 			{	// predecrement

  00000	56		 push	 esi
  00001	8b f1		 mov	 esi, ecx

; 228  : 			_Dec();

  00003	e8 00 00 00 00	 call	 ?_Dec@const_iterator@?$_Tree@V?$_Tmap_traits@KPAVCGuildHouseBase@@U?$less@K@std@@V?$allocator@U?$pair@$$CBKPAVCGuildHouseBase@@@std@@@3@$0A@@std@@@std@@QAEXXZ ; std::_Tree<std::_Tmap_traits<unsigned long,CGuildHouseBase *,std::less<unsigned long>,std::allocator<std::pair<unsigned long const ,CGuildHouseBase *> >,0> >::const_iterator::_Dec

; 229  : 			return (*this);

  00008	8b c6		 mov	 eax, esi
  0000a	5e		 pop	 esi

; 230  : 			}

  0000b	c3		 ret	 0
??Fconst_iterator@?$_Tree@V?$_Tmap_traits@KPAVCGuildHouseBase@@U?$less@K@std@@V?$allocator@U?$pair@$$CBKPAVCGuildHouseBase@@@std@@@3@$0A@@std@@@std@@QAEAAV012@XZ ENDP ; std::_Tree<std::_Tmap_traits<unsigned long,CGuildHouseBase *,std::less<unsigned long>,std::allocator<std::pair<unsigned long const ,CGuildHouseBase *> >,0> >::const_iterator::operator--
_TEXT	ENDS
PUBLIC	??Giterator@?$vector@UGuildHouse_Furniture_Info@CGuildHouseBase@@V?$allocator@UGuildHouse_Furniture_Info@CGuildHouseBase@@@std@@@std@@QBEHABVconst_iterator@12@@Z ; std::vector<CGuildHouseBase::GuildHouse_Furniture_Info,std::allocator<CGuildHouseBase::GuildHouse_Furniture_Info> >::iterator::operator-
; Function compile flags: /Ogty
; File c:\program files\microsoft visual studio .net 2003\vc7\include\vector
;	COMDAT ??Giterator@?$vector@UGuildHouse_Furniture_Info@CGuildHouseBase@@V?$allocator@UGuildHouse_Furniture_Info@CGuildHouseBase@@@std@@@std@@QBEHABVconst_iterator@12@@Z
_TEXT	SEGMENT
__Right$ = 8						; size = 4
??Giterator@?$vector@UGuildHouse_Furniture_Info@CGuildHouseBase@@V?$allocator@UGuildHouse_Furniture_Info@CGuildHouseBase@@@std@@@std@@QBEHABVconst_iterator@12@@Z PROC NEAR ; std::vector<CGuildHouseBase::GuildHouse_Furniture_Info,std::allocator<CGuildHouseBase::GuildHouse_Furniture_Info> >::iterator::operator-, COMDAT
; _this$ = ecx

; 279  : 			return ((const_iterator)*this - _Right);

  00000	8b 01		 mov	 eax, DWORD PTR [ecx]
  00002	8b 4c 24 04	 mov	 ecx, DWORD PTR __Right$[esp-4]
  00006	2b 01		 sub	 eax, DWORD PTR [ecx]
  00008	8b c8		 mov	 ecx, eax
  0000a	b8 39 8e e3 38	 mov	 eax, 954437177		; 38e38e39H
  0000f	f7 e9		 imul	 ecx
  00011	c1 fa 03	 sar	 edx, 3
  00014	8b c2		 mov	 eax, edx
  00016	c1 e8 1f	 shr	 eax, 31			; 0000001fH
  00019	03 c2		 add	 eax, edx

; 280  : 			}

  0001b	c2 04 00	 ret	 4
??Giterator@?$vector@UGuildHouse_Furniture_Info@CGuildHouseBase@@V?$allocator@UGuildHouse_Furniture_Info@CGuildHouseBase@@@std@@@std@@QBEHABVconst_iterator@12@@Z ENDP ; std::vector<CGuildHouseBase::GuildHouse_Furniture_Info,std::allocator<CGuildHouseBase::GuildHouse_Furniture_Info> >::iterator::operator-
_TEXT	ENDS
PUBLIC	?allocate@?$allocator@U_Node@?$_Tree_nod@V?$_Tmap_traits@KPAVCGuildHouseBase@@U?$less@K@std@@V?$allocator@U?$pair@$$CBKPAVCGuildHouseBase@@@std@@@3@$0A@@std@@@std@@@std@@QAEPAU_Node@?$_Tree_nod@V?$_Tmap_traits@KPAVCGuildHouseBase@@U?$less@K@std@@V?$allocator@U?$pair@$$CBKPAVCGuildHouseBase@@@std@@@3@$0A@@std@@@2@I@Z ; std::allocator<std::_Tree_nod<std::_Tmap_traits<unsigned long,CGuildHouseBase *,std::less<unsigned long>,std::allocator<std::pair<unsigned long const ,CGuildHouseBase *> >,0> >::_Node>::allocate
; Function compile flags: /Ogty
; File c:\program files\microsoft visual studio .net 2003\vc7\include\xmemory
;	COMDAT ?allocate@?$allocator@U_Node@?$_Tree_nod@V?$_Tmap_traits@KPAVCGuildHouseBase@@U?$less@K@std@@V?$allocator@U?$pair@$$CBKPAVCGuildHouseBase@@@std@@@3@$0A@@std@@@std@@@std@@QAEPAU_Node@?$_Tree_nod@V?$_Tmap_traits@KPAVCGuildHouseBase@@U?$less@K@std@@V?$allocator@U?$pair@$$CBKPAVCGuildHouseBase@@@std@@@3@$0A@@std@@@2@I@Z
_TEXT	SEGMENT
__Count$ = 8						; size = 4
?allocate@?$allocator@U_Node@?$_Tree_nod@V?$_Tmap_traits@KPAVCGuildHouseBase@@U?$less@K@std@@V?$allocator@U?$pair@$$CBKPAVCGuildHouseBase@@@std@@@3@$0A@@std@@@std@@@std@@QAEPAU_Node@?$_Tree_nod@V?$_Tmap_traits@KPAVCGuildHouseBase@@U?$less@K@std@@V?$allocator@U?$pair@$$CBKPAVCGuildHouseBase@@@std@@@3@$0A@@std@@@2@I@Z PROC NEAR ; std::allocator<std::_Tree_nod<std::_Tmap_traits<unsigned long,CGuildHouseBase *,std::less<unsigned long>,std::allocator<std::pair<unsigned long const ,CGuildHouseBase *> >,0> >::_Node>::allocate, COMDAT
; _this$ = ecx

; 137  : 		return (_Allocate(_Count, (pointer)0));

  00000	8b 44 24 04	 mov	 eax, DWORD PTR __Count$[esp-4]
  00004	8d 04 40	 lea	 eax, DWORD PTR [eax+eax*2]
  00007	c1 e0 03	 shl	 eax, 3
  0000a	50		 push	 eax
  0000b	e8 00 00 00 00	 call	 ??2@YAPAXI@Z		; operator new
  00010	83 c4 04	 add	 esp, 4

; 138  : 		}

  00013	c2 04 00	 ret	 4
?allocate@?$allocator@U_Node@?$_Tree_nod@V?$_Tmap_traits@KPAVCGuildHouseBase@@U?$less@K@std@@V?$allocator@U?$pair@$$CBKPAVCGuildHouseBase@@@std@@@3@$0A@@std@@@std@@@std@@QAEPAU_Node@?$_Tree_nod@V?$_Tmap_traits@KPAVCGuildHouseBase@@U?$less@K@std@@V?$allocator@U?$pair@$$CBKPAVCGuildHouseBase@@@std@@@3@$0A@@std@@@2@I@Z ENDP ; std::allocator<std::_Tree_nod<std::_Tmap_traits<unsigned long,CGuildHouseBase *,std::less<unsigned long>,std::allocator<std::pair<unsigned long const ,CGuildHouseBase *> >,0> >::_Node>::allocate
_TEXT	ENDS
PUBLIC	??9const_iterator@?$vector@UGuildHouse_Furniture_Info@CGuildHouseBase@@V?$allocator@UGuildHouse_Furniture_Info@CGuildHouseBase@@@std@@@std@@QBE_NABV012@@Z ; std::vector<CGuildHouseBase::GuildHouse_Furniture_Info,std::allocator<CGuildHouseBase::GuildHouse_Furniture_Info> >::const_iterator::operator!=
; Function compile flags: /Ogty
; File c:\program files\microsoft visual studio .net 2003\vc7\include\vector
;	COMDAT ??9const_iterator@?$vector@UGuildHouse_Furniture_Info@CGuildHouseBase@@V?$allocator@UGuildHouse_Furniture_Info@CGuildHouseBase@@@std@@@std@@QBE_NABV012@@Z
_TEXT	SEGMENT
__Right$ = 8						; size = 4
??9const_iterator@?$vector@UGuildHouse_Furniture_Info@CGuildHouseBase@@V?$allocator@UGuildHouse_Furniture_Info@CGuildHouseBase@@@std@@@std@@QBE_NABV012@@Z PROC NEAR ; std::vector<CGuildHouseBase::GuildHouse_Furniture_Info,std::allocator<CGuildHouseBase::GuildHouse_Furniture_Info> >::const_iterator::operator!=, COMDAT
; _this$ = ecx

; 160  : 			return (!(*this == _Right));

  00000	8b 01		 mov	 eax, DWORD PTR [ecx]
  00002	8b 54 24 04	 mov	 edx, DWORD PTR __Right$[esp-4]
  00006	56		 push	 esi
  00007	8b 32		 mov	 esi, DWORD PTR [edx]
  00009	33 c9		 xor	 ecx, ecx
  0000b	3b c6		 cmp	 eax, esi
  0000d	0f 95 c1	 setne	 cl
  00010	8a c1		 mov	 al, cl
  00012	5e		 pop	 esi

; 161  : 			}

  00013	c2 04 00	 ret	 4
??9const_iterator@?$vector@UGuildHouse_Furniture_Info@CGuildHouseBase@@V?$allocator@UGuildHouse_Furniture_Info@CGuildHouseBase@@@std@@@std@@QBE_NABV012@@Z ENDP ; std::vector<CGuildHouseBase::GuildHouse_Furniture_Info,std::allocator<CGuildHouseBase::GuildHouse_Furniture_Info> >::const_iterator::operator!=
_TEXT	ENDS
PUBLIC	??0?$_Tree_nod@V?$_Tmap_traits@KPAVCGuildHouseBase@@U?$less@K@std@@V?$allocator@U?$pair@$$CBKPAVCGuildHouseBase@@@std@@@3@$0A@@std@@@std@@IAE@ABU?$less@K@1@V?$allocator@U?$pair@$$CBKPAVCGuildHouseBase@@@std@@@1@@Z ; std::_Tree_nod<std::_Tmap_traits<unsigned long,CGuildHouseBase *,std::less<unsigned long>,std::allocator<std::pair<unsigned long const ,CGuildHouseBase *> >,0> >::_Tree_nod<std::_Tmap_traits<unsigned long,CGuildHouseBase *,std::less<unsigned long>,std::allocator<std::pair<unsigned long const ,CGuildHouseBase *> >,0> >
; Function compile flags: /Ogty
; File c:\program files\microsoft visual studio .net 2003\vc7\include\xtree
;	COMDAT ??0?$_Tree_nod@V?$_Tmap_traits@KPAVCGuildHouseBase@@U?$less@K@std@@V?$allocator@U?$pair@$$CBKPAVCGuildHouseBase@@@std@@@3@$0A@@std@@@std@@IAE@ABU?$less@K@1@V?$allocator@U?$pair@$$CBKPAVCGuildHouseBase@@@std@@@1@@Z
_TEXT	SEGMENT
__Parg$ = 8						; size = 4
__Al$ = 12						; size = 1
??0?$_Tree_nod@V?$_Tmap_traits@KPAVCGuildHouseBase@@U?$less@K@std@@V?$allocator@U?$pair@$$CBKPAVCGuildHouseBase@@@std@@@3@$0A@@std@@@std@@IAE@ABU?$less@K@1@V?$allocator@U?$pair@$$CBKPAVCGuildHouseBase@@@std@@@1@@Z PROC NEAR ; std::_Tree_nod<std::_Tmap_traits<unsigned long,CGuildHouseBase *,std::less<unsigned long>,std::allocator<std::pair<unsigned long const ,CGuildHouseBase *> >,0> >::_Tree_nod<std::_Tmap_traits<unsigned long,CGuildHouseBase *,std::less<unsigned long>,std::allocator<std::pair<unsigned long const ,CGuildHouseBase *> >,0> >, COMDAT
; _this$ = ecx

; 54   : 		{	// construct traits from _Parg and allocator from _Al

  00000	8b c1		 mov	 eax, ecx

; 55   : 		}

  00002	c2 08 00	 ret	 8
??0?$_Tree_nod@V?$_Tmap_traits@KPAVCGuildHouseBase@@U?$less@K@std@@V?$allocator@U?$pair@$$CBKPAVCGuildHouseBase@@@std@@@3@$0A@@std@@@std@@IAE@ABU?$less@K@1@V?$allocator@U?$pair@$$CBKPAVCGuildHouseBase@@@std@@@1@@Z ENDP ; std::_Tree_nod<std::_Tmap_traits<unsigned long,CGuildHouseBase *,std::less<unsigned long>,std::allocator<std::pair<unsigned long const ,CGuildHouseBase *> >,0> >::_Tree_nod<std::_Tmap_traits<unsigned long,CGuildHouseBase *,std::less<unsigned long>,std::allocator<std::pair<unsigned long const ,CGuildHouseBase *> >,0> >
_TEXT	ENDS
PUBLIC	?construct@?$allocator@PAU_Node@?$_Tree_nod@V?$_Tmap_traits@KPAVCGuildHouseBase@@U?$less@K@std@@V?$allocator@U?$pair@$$CBKPAVCGuildHouseBase@@@std@@@3@$0A@@std@@@std@@@std@@QAEXPAPAU_Node@?$_Tree_nod@V?$_Tmap_traits@KPAVCGuildHouseBase@@U?$less@K@std@@V?$allocator@U?$pair@$$CBKPAVCGuildHouseBase@@@std@@@3@$0A@@std@@@2@ABQAU342@@Z ; std::allocator<std::_Tree_nod<std::_Tmap_traits<unsigned long,CGuildHouseBase *,std::less<unsigned long>,std::allocator<std::pair<unsigned long const ,CGuildHouseBase *> >,0> >::_Node *>::construct
; Function compile flags: /Ogty
; File c:\program files\microsoft visual studio .net 2003\vc7\include\xmemory
;	COMDAT ?construct@?$allocator@PAU_Node@?$_Tree_nod@V?$_Tmap_traits@KPAVCGuildHouseBase@@U?$less@K@std@@V?$allocator@U?$pair@$$CBKPAVCGuildHouseBase@@@std@@@3@$0A@@std@@@std@@@std@@QAEXPAPAU_Node@?$_Tree_nod@V?$_Tmap_traits@KPAVCGuildHouseBase@@U?$less@K@std@@V?$allocator@U?$pair@$$CBKPAVCGuildHouseBase@@@std@@@3@$0A@@std@@@2@ABQAU342@@Z
_TEXT	SEGMENT
__Ptr$ = 8						; size = 4
__Val$ = 12						; size = 4
?construct@?$allocator@PAU_Node@?$_Tree_nod@V?$_Tmap_traits@KPAVCGuildHouseBase@@U?$less@K@std@@V?$allocator@U?$pair@$$CBKPAVCGuildHouseBase@@@std@@@3@$0A@@std@@@std@@@std@@QAEXPAPAU_Node@?$_Tree_nod@V?$_Tmap_traits@KPAVCGuildHouseBase@@U?$less@K@std@@V?$allocator@U?$pair@$$CBKPAVCGuildHouseBase@@@std@@@3@$0A@@std@@@2@ABQAU342@@Z PROC NEAR ; std::allocator<std::_Tree_nod<std::_Tmap_traits<unsigned long,CGuildHouseBase *,std::less<unsigned long>,std::allocator<std::pair<unsigned long const ,CGuildHouseBase *> >,0> >::_Node *>::construct, COMDAT
; _this$ = ecx

; 147  : 		_Construct(_Ptr, _Val);

  00000	8b 44 24 04	 mov	 eax, DWORD PTR __Ptr$[esp-4]
  00004	85 c0		 test	 eax, eax
  00006	74 08		 je	 SHORT $L194594
  00008	8b 4c 24 08	 mov	 ecx, DWORD PTR __Val$[esp-4]
  0000c	8b 11		 mov	 edx, DWORD PTR [ecx]
  0000e	89 10		 mov	 DWORD PTR [eax], edx
$L194594:

; 148  : 		}

  00010	c2 08 00	 ret	 8
?construct@?$allocator@PAU_Node@?$_Tree_nod@V?$_Tmap_traits@KPAVCGuildHouseBase@@U?$less@K@std@@V?$allocator@U?$pair@$$CBKPAVCGuildHouseBase@@@std@@@3@$0A@@std@@@std@@@std@@QAEXPAPAU_Node@?$_Tree_nod@V?$_Tmap_traits@KPAVCGuildHouseBase@@U?$less@K@std@@V?$allocator@U?$pair@$$CBKPAVCGuildHouseBase@@@std@@@3@$0A@@std@@@2@ABQAU342@@Z ENDP ; std::allocator<std::_Tree_nod<std::_Tmap_traits<unsigned long,CGuildHouseBase *,std::less<unsigned long>,std::allocator<std::pair<unsigned long const ,CGuildHouseBase *> >,0> >::_Node *>::construct
_TEXT	ENDS
PUBLIC	??$make_pair@KPAVCGuildHouseBase@@@std@@YA?AU?$pair@KPAVCGuildHouseBase@@@0@KPAVCGuildHouseBase@@@Z ; std::make_pair<unsigned long,CGuildHouseBase *>
; Function compile flags: /Ogty
; File c:\program files\microsoft visual studio .net 2003\vc7\include\utility
;	COMDAT ??$make_pair@KPAVCGuildHouseBase@@@std@@YA?AU?$pair@KPAVCGuildHouseBase@@@0@KPAVCGuildHouseBase@@@Z
_TEXT	SEGMENT
___$ReturnUdt$ = 8					; size = 4
__Val1$ = 12						; size = 4
__Val2$ = 16						; size = 4
??$make_pair@KPAVCGuildHouseBase@@@std@@YA?AU?$pair@KPAVCGuildHouseBase@@@0@KPAVCGuildHouseBase@@@Z PROC NEAR ; std::make_pair<unsigned long,CGuildHouseBase *>, COMDAT

; 108  : 	return (pair<_Ty1, _Ty2>(_Val1, _Val2));

  00000	8b 44 24 04	 mov	 eax, DWORD PTR ___$ReturnUdt$[esp-4]
  00004	8b 4c 24 08	 mov	 ecx, DWORD PTR __Val1$[esp-4]
  00008	8b 54 24 0c	 mov	 edx, DWORD PTR __Val2$[esp-4]
  0000c	89 08		 mov	 DWORD PTR [eax], ecx
  0000e	89 50 04	 mov	 DWORD PTR [eax+4], edx

; 109  : 	}

  00011	c3		 ret	 0
??$make_pair@KPAVCGuildHouseBase@@@std@@YA?AU?$pair@KPAVCGuildHouseBase@@@0@KPAVCGuildHouseBase@@@Z ENDP ; std::make_pair<unsigned long,CGuildHouseBase *>
_TEXT	ENDS
PUBLIC	??$copy@PAUGuildHouse_Furniture_Info@CGuildHouseBase@@PAU12@@std@@YAPAUGuildHouse_Furniture_Info@CGuildHouseBase@@PAU12@00@Z ; std::copy<CGuildHouseBase::GuildHouse_Furniture_Info *,CGuildHouseBase::GuildHouse_Furniture_Info *>
; Function compile flags: /Ogty
; File c:\program files\microsoft visual studio .net 2003\vc7\include\xutility
;	COMDAT ??$copy@PAUGuildHouse_Furniture_Info@CGuildHouseBase@@PAU12@@std@@YAPAUGuildHouse_Furniture_Info@CGuildHouseBase@@PAU12@00@Z
_TEXT	SEGMENT
__First$ = 8						; size = 4
__Last$ = 12						; size = 4
__Dest$ = 16						; size = 4
??$copy@PAUGuildHouse_Furniture_Info@CGuildHouseBase@@PAU12@@std@@YAPAUGuildHouse_Furniture_Info@CGuildHouseBase@@PAU12@00@Z PROC NEAR ; std::copy<CGuildHouseBase::GuildHouse_Furniture_Info *,CGuildHouseBase::GuildHouse_Furniture_Info *>, COMDAT

; 1040 : 	return (_Copy_opt(_First, _Last, _Dest, _Ptr_cat(_First, _Dest)));

  00000	8b 54 24 04	 mov	 edx, DWORD PTR __First$[esp-4]
  00004	8b 44 24 0c	 mov	 eax, DWORD PTR __Dest$[esp-4]
  00008	53		 push	 ebx
  00009	8b 5c 24 0c	 mov	 ebx, DWORD PTR __Last$[esp]
  0000d	3b d3		 cmp	 edx, ebx
  0000f	74 19		 je	 SHORT $L194616
  00011	56		 push	 esi
  00012	57		 push	 edi
$L194614:
  00013	8b f2		 mov	 esi, edx
  00015	8b f8		 mov	 edi, eax
  00017	83 c2 24	 add	 edx, 36			; 00000024H
  0001a	b9 09 00 00 00	 mov	 ecx, 9
  0001f	83 c0 24	 add	 eax, 36			; 00000024H
  00022	3b d3		 cmp	 edx, ebx
  00024	f3 a5		 rep movsd
  00026	75 eb		 jne	 SHORT $L194614
  00028	5f		 pop	 edi
  00029	5e		 pop	 esi
$L194616:
  0002a	5b		 pop	 ebx

; 1041 : 	}

  0002b	c3		 ret	 0
??$copy@PAUGuildHouse_Furniture_Info@CGuildHouseBase@@PAU12@@std@@YAPAUGuildHouse_Furniture_Info@CGuildHouseBase@@PAU12@00@Z ENDP ; std::copy<CGuildHouseBase::GuildHouse_Furniture_Info *,CGuildHouseBase::GuildHouse_Furniture_Info *>
_TEXT	ENDS
PUBLIC	??$copy_backward@PAUGuildHouse_Furniture_Info@CGuildHouseBase@@PAU12@@std@@YAPAUGuildHouse_Furniture_Info@CGuildHouseBase@@PAU12@00@Z ; std::copy_backward<CGuildHouseBase::GuildHouse_Furniture_Info *,CGuildHouseBase::GuildHouse_Furniture_Info *>
; Function compile flags: /Ogty
;	COMDAT ??$copy_backward@PAUGuildHouse_Furniture_Info@CGuildHouseBase@@PAU12@@std@@YAPAUGuildHouse_Furniture_Info@CGuildHouseBase@@PAU12@00@Z
_TEXT	SEGMENT
__First$ = 8						; size = 4
__Last$ = 12						; size = 4
__Dest$ = 16						; size = 4
??$copy_backward@PAUGuildHouse_Furniture_Info@CGuildHouseBase@@PAU12@@std@@YAPAUGuildHouse_Furniture_Info@CGuildHouseBase@@PAU12@00@Z PROC NEAR ; std::copy_backward<CGuildHouseBase::GuildHouse_Furniture_Info *,CGuildHouseBase::GuildHouse_Furniture_Info *>, COMDAT

; 1068 : 	return (_Copy_backward_opt(_First, _Last, _Dest,
; 1069 : 		_Ptr_cat(_First, _Dest)));

  00000	8b 54 24 08	 mov	 edx, DWORD PTR __Last$[esp-4]
  00004	8b 44 24 0c	 mov	 eax, DWORD PTR __Dest$[esp-4]
  00008	53		 push	 ebx
  00009	8b 5c 24 08	 mov	 ebx, DWORD PTR __First$[esp]
  0000d	3b da		 cmp	 ebx, edx
  0000f	74 19		 je	 SHORT $L194632
  00011	56		 push	 esi
  00012	57		 push	 edi
$L194631:
  00013	83 ea 24	 sub	 edx, 36			; 00000024H
  00016	83 e8 24	 sub	 eax, 36			; 00000024H
  00019	3b d3		 cmp	 edx, ebx
  0001b	b9 09 00 00 00	 mov	 ecx, 9
  00020	8b f2		 mov	 esi, edx
  00022	8b f8		 mov	 edi, eax
  00024	f3 a5		 rep movsd
  00026	75 eb		 jne	 SHORT $L194631
  00028	5f		 pop	 edi
  00029	5e		 pop	 esi
$L194632:
  0002a	5b		 pop	 ebx

; 1070 : 	}

  0002b	c3		 ret	 0
??$copy_backward@PAUGuildHouse_Furniture_Info@CGuildHouseBase@@PAU12@@std@@YAPAUGuildHouse_Furniture_Info@CGuildHouseBase@@PAU12@00@Z ENDP ; std::copy_backward<CGuildHouseBase::GuildHouse_Furniture_Info *,CGuildHouseBase::GuildHouse_Furniture_Info *>
_TEXT	ENDS
PUBLIC	?construct@?$allocator@UGuildHouse_Furniture_Info@CGuildHouseBase@@@std@@QAEXPAUGuildHouse_Furniture_Info@CGuildHouseBase@@ABU34@@Z ; std::allocator<CGuildHouseBase::GuildHouse_Furniture_Info>::construct
; Function compile flags: /Ogty
; File c:\program files\microsoft visual studio .net 2003\vc7\include\xmemory
;	COMDAT ?construct@?$allocator@UGuildHouse_Furniture_Info@CGuildHouseBase@@@std@@QAEXPAUGuildHouse_Furniture_Info@CGuildHouseBase@@ABU34@@Z
_TEXT	SEGMENT
__Ptr$ = 8						; size = 4
__Val$ = 12						; size = 4
?construct@?$allocator@UGuildHouse_Furniture_Info@CGuildHouseBase@@@std@@QAEXPAUGuildHouse_Furniture_Info@CGuildHouseBase@@ABU34@@Z PROC NEAR ; std::allocator<CGuildHouseBase::GuildHouse_Furniture_Info>::construct, COMDAT
; _this$ = ecx

; 146  : 		{	// construct object at _Ptr with value _Val

  00000	57		 push	 edi

; 147  : 		_Construct(_Ptr, _Val);

  00001	8b 7c 24 08	 mov	 edi, DWORD PTR __Ptr$[esp]
  00005	85 ff		 test	 edi, edi
  00007	74 0d		 je	 SHORT $L194652
  00009	56		 push	 esi
  0000a	8b 74 24 10	 mov	 esi, DWORD PTR __Val$[esp+4]
  0000e	b9 09 00 00 00	 mov	 ecx, 9
  00013	f3 a5		 rep movsd
  00015	5e		 pop	 esi
$L194652:
  00016	5f		 pop	 edi

; 148  : 		}

  00017	c2 08 00	 ret	 8
?construct@?$allocator@UGuildHouse_Furniture_Info@CGuildHouseBase@@@std@@QAEXPAUGuildHouse_Furniture_Info@CGuildHouseBase@@ABU34@@Z ENDP ; std::allocator<CGuildHouseBase::GuildHouse_Furniture_Info>::construct
_TEXT	ENDS
PUBLIC	?destroy@?$allocator@UGuildHouse_Furniture_Info@CGuildHouseBase@@@std@@QAEXPAUGuildHouse_Furniture_Info@CGuildHouseBase@@@Z ; std::allocator<CGuildHouseBase::GuildHouse_Furniture_Info>::destroy
; Function compile flags: /Ogty
;	COMDAT ?destroy@?$allocator@UGuildHouse_Furniture_Info@CGuildHouseBase@@@std@@QAEXPAUGuildHouse_Furniture_Info@CGuildHouseBase@@@Z
_TEXT	SEGMENT
__Ptr$ = 8						; size = 4
?destroy@?$allocator@UGuildHouse_Furniture_Info@CGuildHouseBase@@@std@@QAEXPAUGuildHouse_Furniture_Info@CGuildHouseBase@@@Z PROC NEAR ; std::allocator<CGuildHouseBase::GuildHouse_Furniture_Info>::destroy, COMDAT
; _this$ = ecx

; 152  : 		_Destroy(_Ptr);
; 153  : 		}

  00000	c2 04 00	 ret	 4
?destroy@?$allocator@UGuildHouse_Furniture_Info@CGuildHouseBase@@@std@@QAEXPAUGuildHouse_Furniture_Info@CGuildHouseBase@@@Z ENDP ; std::allocator<CGuildHouseBase::GuildHouse_Furniture_Info>::destroy
_TEXT	ENDS
PUBLIC	??$_Uninit_copy@PAUGuildHouse_Furniture_Info@CGuildHouseBase@@PAU12@V?$allocator@UGuildHouse_Furniture_Info@CGuildHouseBase@@@std@@@std@@YAPAUGuildHouse_Furniture_Info@CGuildHouseBase@@PAU12@00AAV?$allocator@UGuildHouse_Furniture_Info@CGuildHouseBase@@@0@U_Nonscalar_ptr_iterator_tag@0@@Z ; std::_Uninit_copy<CGuildHouseBase::GuildHouse_Furniture_Info *,CGuildHouseBase::GuildHouse_Furniture_Info *,std::allocator<CGuildHouseBase::GuildHouse_Furniture_Info> >
EXTRN	__CxxThrowException@8:NEAR
; Function compile flags: /Ogty
; File c:\program files\microsoft visual studio .net 2003\vc7\include\memory
;	COMDAT ??$_Uninit_copy@PAUGuildHouse_Furniture_Info@CGuildHouseBase@@PAU12@V?$allocator@UGuildHouse_Furniture_Info@CGuildHouseBase@@@std@@@std@@YAPAUGuildHouse_Furniture_Info@CGuildHouseBase@@PAU12@00AAV?$allocator@UGuildHouse_Furniture_Info@CGuildHouseBase@@@0@U_Nonscalar_ptr_iterator_tag@0@@Z
_TEXT	SEGMENT
__First$ = 8						; size = 4
__Last$ = 12						; size = 4
__Dest$ = 16						; size = 4
__Al$ = 20						; size = 4
___formal$ = 24						; size = 1
??$_Uninit_copy@PAUGuildHouse_Furniture_Info@CGuildHouseBase@@PAU12@V?$allocator@UGuildHouse_Furniture_Info@CGuildHouseBase@@@std@@@std@@YAPAUGuildHouse_Furniture_Info@CGuildHouseBase@@PAU12@00AAV?$allocator@UGuildHouse_Furniture_Info@CGuildHouseBase@@@0@U_Nonscalar_ptr_iterator_tag@0@@Z PROC NEAR ; std::_Uninit_copy<CGuildHouseBase::GuildHouse_Furniture_Info *,CGuildHouseBase::GuildHouse_Furniture_Info *,std::allocator<CGuildHouseBase::GuildHouse_Furniture_Info> >, COMDAT

; 78   : 	_FwdIt _Next = _Dest;
; 79   : 
; 80   : 	_TRY_BEGIN
; 81   : 	for (; _First != _Last; ++_Dest, ++_First)

  00000	8b 54 24 04	 mov	 edx, DWORD PTR __First$[esp-4]
  00004	8b 44 24 0c	 mov	 eax, DWORD PTR __Dest$[esp-4]
  00008	53		 push	 ebx
  00009	8b 5c 24 0c	 mov	 ebx, DWORD PTR __Last$[esp]
  0000d	3b d3		 cmp	 edx, ebx
  0000f	74 1d		 je	 SHORT $L193604
  00011	56		 push	 esi
  00012	57		 push	 edi
$L193602:

; 82   : 		_Al.construct(_Dest, *_First);

  00013	85 c0		 test	 eax, eax
  00015	74 0b		 je	 SHORT $L193603
  00017	b9 09 00 00 00	 mov	 ecx, 9
  0001c	8b f2		 mov	 esi, edx
  0001e	8b f8		 mov	 edi, eax
  00020	f3 a5		 rep movsd
$L193603:
  00022	83 c2 24	 add	 edx, 36			; 00000024H
  00025	83 c0 24	 add	 eax, 36			; 00000024H
  00028	3b d3		 cmp	 edx, ebx
  0002a	75 e7		 jne	 SHORT $L193602
  0002c	5f		 pop	 edi
  0002d	5e		 pop	 esi
$L193604:
  0002e	5b		 pop	 ebx

; 83   : 	_CATCH_ALL
; 84   : 	for (; _Next != _Dest; ++_Next)
; 85   : 		_Al.destroy(_Next);
; 86   : 	_RERAISE;
; 87   : 	_CATCH_END
; 88   : 	return (_Dest);
; 89   : 	}

  0002f	c3		 ret	 0
??$_Uninit_copy@PAUGuildHouse_Furniture_Info@CGuildHouseBase@@PAU12@V?$allocator@UGuildHouse_Furniture_Info@CGuildHouseBase@@@std@@@std@@YAPAUGuildHouse_Furniture_Info@CGuildHouseBase@@PAU12@00AAV?$allocator@UGuildHouse_Furniture_Info@CGuildHouseBase@@@0@U_Nonscalar_ptr_iterator_tag@0@@Z ENDP ; std::_Uninit_copy<CGuildHouseBase::GuildHouse_Furniture_Info *,CGuildHouseBase::GuildHouse_Furniture_Info *,std::allocator<CGuildHouseBase::GuildHouse_Furniture_Info> >
_TEXT	ENDS
PUBLIC	?GetItemProp@CProject@@QAEPAUItemProp@@H@Z	; CProject::GetItemProp
; Function compile flags: /Ogty
; File c:\documents and settings\test\mes documents\source\virtuos_v17\build\program\databaseserver\project.h
;	COMDAT ?GetItemProp@CProject@@QAEPAUItemProp@@H@Z
_TEXT	SEGMENT
_nIndex$ = 8						; size = 4
?GetItemProp@CProject@@QAEPAUItemProp@@H@Z PROC NEAR	; CProject::GetItemProp, COMDAT
; _this$ = ecx

; 200  : 	ItemProp*	GetItemProp( int nIndex )	{	return m_aPropItem.GetAt( nIndex );	}

  00000	8b 44 24 04	 mov	 eax, DWORD PTR _nIndex$[esp-4]
  00004	3b 41 50	 cmp	 eax, DWORD PTR [ecx+80]
  00007	72 05		 jb	 SHORT $L194702
  00009	33 c0		 xor	 eax, eax
  0000b	c2 04 00	 ret	 4
$L194702:
  0000e	8b 49 40	 mov	 ecx, DWORD PTR [ecx+64]
  00011	8b 04 81	 mov	 eax, DWORD PTR [ecx+eax*4]
  00014	c2 04 00	 ret	 4
?GetItemProp@CProject@@QAEPAUItemProp@@H@Z ENDP		; CProject::GetItemProp
_TEXT	ENDS
PUBLIC	??6CAr@@QAEAAV0@H@Z				; CAr::operator<<
; Function compile flags: /Ogty
; File c:\documents and settings\test\mes documents\source\virtuos_v17\build\program\_network\misc\include\ar.h
;	COMDAT ??6CAr@@QAEAAV0@H@Z
_TEXT	SEGMENT
_i$ = 8							; size = 4
??6CAr@@QAEAAV0@H@Z PROC NEAR				; CAr::operator<<, COMDAT
; _this$ = ecx

; 99   : 	{ return CAr::operator<<((LONG)i); }

  00000	56		 push	 esi
  00001	6a 04		 push	 4
  00003	8b f1		 mov	 esi, ecx
  00005	e8 00 00 00 00	 call	 ?CheckBuf@CAr@@QAEXI@Z	; CAr::CheckBuf
  0000a	8b 46 08	 mov	 eax, DWORD PTR [esi+8]
  0000d	8b 4c 24 08	 mov	 ecx, DWORD PTR _i$[esp]
  00011	89 08		 mov	 DWORD PTR [eax], ecx
  00013	83 46 08 04	 add	 DWORD PTR [esi+8], 4
  00017	8b c6		 mov	 eax, esi
  00019	5e		 pop	 esi
  0001a	c2 04 00	 ret	 4
??6CAr@@QAEAAV0@H@Z ENDP				; CAr::operator<<
_TEXT	ENDS
PUBLIC	??6CAr@@QAEAAV0@I@Z				; CAr::operator<<
; Function compile flags: /Ogty
;	COMDAT ??6CAr@@QAEAAV0@I@Z
_TEXT	SEGMENT
_u$ = 8							; size = 4
??6CAr@@QAEAAV0@I@Z PROC NEAR				; CAr::operator<<, COMDAT
; _this$ = ecx

; 101  : 	{ return CAr::operator<<((LONG)u); }

  00000	56		 push	 esi
  00001	6a 04		 push	 4
  00003	8b f1		 mov	 esi, ecx
  00005	e8 00 00 00 00	 call	 ?CheckBuf@CAr@@QAEXI@Z	; CAr::CheckBuf
  0000a	8b 46 08	 mov	 eax, DWORD PTR [esi+8]
  0000d	8b 4c 24 08	 mov	 ecx, DWORD PTR _u$[esp]
  00011	89 08		 mov	 DWORD PTR [eax], ecx
  00013	83 46 08 04	 add	 DWORD PTR [esi+8], 4
  00017	8b c6		 mov	 eax, esi
  00019	5e		 pop	 esi
  0001a	c2 04 00	 ret	 4
??6CAr@@QAEAAV0@I@Z ENDP				; CAr::operator<<
_TEXT	ENDS
PUBLIC	??5CAr@@QAEAAV0@AAH@Z				; CAr::operator>>
; Function compile flags: /Ogty
;	COMDAT ??5CAr@@QAEAAV0@AAH@Z
_TEXT	SEGMENT
_i$ = 8							; size = 4
??5CAr@@QAEAAV0@AAH@Z PROC NEAR				; CAr::operator>>, COMDAT
; _this$ = ecx

; 126  : 	{ return CAr::operator>>((LONG&)i); }

  00000	8b c1		 mov	 eax, ecx
  00002	8b 48 08	 mov	 ecx, DWORD PTR [eax+8]
  00005	56		 push	 esi
  00006	8b 70 0c	 mov	 esi, DWORD PTR [eax+12]
  00009	8d 51 04	 lea	 edx, DWORD PTR [ecx+4]
  0000c	3b d6		 cmp	 edx, esi
  0000e	5e		 pop	 esi
  0000f	77 0f		 ja	 SHORT $L194719
  00011	8b 09		 mov	 ecx, DWORD PTR [ecx]
  00013	8b 54 24 04	 mov	 edx, DWORD PTR _i$[esp-4]
  00017	89 0a		 mov	 DWORD PTR [edx], ecx
  00019	83 40 08 04	 add	 DWORD PTR [eax+8], 4
  0001d	c2 04 00	 ret	 4
$L194719:
  00020	8b 4c 24 04	 mov	 ecx, DWORD PTR _i$[esp-4]
  00024	c7 01 00 00 00
	00		 mov	 DWORD PTR [ecx], 0
  0002a	8b 50 0c	 mov	 edx, DWORD PTR [eax+12]
  0002d	89 50 08	 mov	 DWORD PTR [eax+8], edx
  00030	c2 04 00	 ret	 4
??5CAr@@QAEAAV0@AAH@Z ENDP				; CAr::operator>>
_TEXT	ENDS
PUBLIC	??0?$_String_val@DV?$allocator@D@std@@@std@@IAE@V?$allocator@D@1@@Z ; std::_String_val<char,std::allocator<char> >::_String_val<char,std::allocator<char> >
; Function compile flags: /Ogty
; File c:\program files\microsoft visual studio .net 2003\vc7\include\xstring
;	COMDAT ??0?$_String_val@DV?$allocator@D@std@@@std@@IAE@V?$allocator@D@1@@Z
_TEXT	SEGMENT
__Al$ = 8						; size = 1
??0?$_String_val@DV?$allocator@D@std@@@std@@IAE@V?$allocator@D@1@@Z PROC NEAR ; std::_String_val<char,std::allocator<char> >::_String_val<char,std::allocator<char> >, COMDAT
; _this$ = ecx

; 34   : 		{	// construct allocator from _Al

  00000	8b c1		 mov	 eax, ecx

; 35   : 		}

  00002	c2 04 00	 ret	 4
??0?$_String_val@DV?$allocator@D@std@@@std@@IAE@V?$allocator@D@1@@Z ENDP ; std::_String_val<char,std::allocator<char> >::_String_val<char,std::allocator<char> >
_TEXT	ENDS
PUBLIC	?_Eos@?$basic_string@DU?$char_traits@D@std@@V?$allocator@D@2@@std@@IAEXI@Z ; std::basic_string<char,std::char_traits<char>,std::allocator<char> >::_Eos
; Function compile flags: /Ogty
;	COMDAT ?_Eos@?$basic_string@DU?$char_traits@D@std@@V?$allocator@D@2@@std@@IAEXI@Z
_TEXT	SEGMENT
__Newsize$ = 8						; size = 4
?_Eos@?$basic_string@DU?$char_traits@D@std@@V?$allocator@D@2@@std@@IAEXI@Z PROC NEAR ; std::basic_string<char,std::char_traits<char>,std::allocator<char> >::_Eos, COMDAT
; _this$ = ecx

; 1475 : 		_Traits::assign(_Myptr()[_Mysize = _Newsize], _Elem());

  00000	83 79 18 10	 cmp	 DWORD PTR [ecx+24], 16	; 00000010H
  00004	8b 44 24 04	 mov	 eax, DWORD PTR __Newsize$[esp-4]
  00008	89 41 14	 mov	 DWORD PTR [ecx+20], eax
  0000b	72 0a		 jb	 SHORT $L194734
  0000d	8b 49 04	 mov	 ecx, DWORD PTR [ecx+4]
  00010	c6 04 01 00	 mov	 BYTE PTR [ecx+eax], 0

; 1476 : 		}

  00014	c2 04 00	 ret	 4

; 1475 : 		_Traits::assign(_Myptr()[_Mysize = _Newsize], _Elem());

$L194734:
  00017	c6 44 01 04 00	 mov	 BYTE PTR [ecx+eax+4], 0

; 1476 : 		}

  0001c	c2 04 00	 ret	 4
?_Eos@?$basic_string@DU?$char_traits@D@std@@V?$allocator@D@2@@std@@IAEXI@Z ENDP ; std::basic_string<char,std::char_traits<char>,std::allocator<char> >::_Eos
_TEXT	ENDS
PUBLIC	?max_size@?$basic_string@DU?$char_traits@D@std@@V?$allocator@D@2@@std@@QBEIXZ ; std::basic_string<char,std::char_traits<char>,std::allocator<char> >::max_size
; Function compile flags: /Ogty
;	COMDAT ?max_size@?$basic_string@DU?$char_traits@D@std@@V?$allocator@D@2@@std@@QBEIXZ
_TEXT	SEGMENT
?max_size@?$basic_string@DU?$char_traits@D@std@@V?$allocator@D@2@@std@@QBEIXZ PROC NEAR ; std::basic_string<char,std::char_traits<char>,std::allocator<char> >::max_size, COMDAT
; _this$ = ecx

; 1114 : 		size_type _Num = _Mybase::_Alval.max_size();
; 1115 : 		return (_Num <= 1 ? 1 : _Num - 1);

  00000	b8 fe ff ff ff	 mov	 eax, -2			; fffffffeH

; 1116 : 		}

  00005	c3		 ret	 0
?max_size@?$basic_string@DU?$char_traits@D@std@@V?$allocator@D@2@@std@@QBEIXZ ENDP ; std::basic_string<char,std::char_traits<char>,std::allocator<char> >::max_size
_TEXT	ENDS
PUBLIC	?allocate@?$allocator@D@std@@QAEPADI@Z		; std::allocator<char>::allocate
; Function compile flags: /Ogty
; File c:\program files\microsoft visual studio .net 2003\vc7\include\xmemory
;	COMDAT ?allocate@?$allocator@D@std@@QAEPADI@Z
_TEXT	SEGMENT
__Count$ = 8						; size = 4
?allocate@?$allocator@D@std@@QAEPADI@Z PROC NEAR	; std::allocator<char>::allocate, COMDAT
; _this$ = ecx

; 137  : 		return (_Allocate(_Count, (pointer)0));

  00000	8b 44 24 04	 mov	 eax, DWORD PTR __Count$[esp-4]
  00004	50		 push	 eax
  00005	e8 00 00 00 00	 call	 ??2@YAPAXI@Z		; operator new
  0000a	83 c4 04	 add	 esp, 4

; 138  : 		}

  0000d	c2 04 00	 ret	 4
?allocate@?$allocator@D@std@@QAEPADI@Z ENDP		; std::allocator<char>::allocate
_TEXT	ENDS
PUBLIC	?Serialize@GuildHouse_Furniture_Info@CGuildHouseBase@@QAEXAAVCAr@@@Z ; CGuildHouseBase::GuildHouse_Furniture_Info::Serialize
; Function compile flags: /Ogty
; File c:\documents and settings\test\mes documents\source\virtuos_v17\build\program\_common\guildhouse.cpp
;	COMDAT ?Serialize@GuildHouse_Furniture_Info@CGuildHouseBase@@QAEXAAVCAr@@@Z
_TEXT	SEGMENT
$T194778 = -12						; size = 12
$T194782 = 8						; size = 4
_ar$ = 8						; size = 4
?Serialize@GuildHouse_Furniture_Info@CGuildHouseBase@@QAEXAAVCAr@@@Z PROC NEAR ; CGuildHouseBase::GuildHouse_Furniture_Info::Serialize, COMDAT
; _this$ = ecx

; 51   : {

  00000	83 ec 0c	 sub	 esp, 12			; 0000000cH
  00003	53		 push	 ebx
  00004	55		 push	 ebp
  00005	56		 push	 esi

; 52   : 	if( ar.IsStoring() )

  00006	8b 74 24 1c	 mov	 esi, DWORD PTR _ar$[esp+20]
  0000a	33 c0		 xor	 eax, eax
  0000c	8a 06		 mov	 al, BYTE PTR [esi]
  0000e	57		 push	 edi
  0000f	8b f9		 mov	 edi, ecx

; 53   : 	{
; 54   : 		ar << dwItemId << bSetup << vPos << fAngle << objId;

  00011	bb 04 00 00 00	 mov	 ebx, 4
  00016	f7 d0		 not	 eax
  00018	a8 01		 test	 al, 1
  0001a	0f 84 cd 00 00
	00		 je	 $L192223
  00020	8b 2f		 mov	 ebp, DWORD PTR [edi]
  00022	53		 push	 ebx
  00023	8b ce		 mov	 ecx, esi
  00025	e8 00 00 00 00	 call	 ?CheckBuf@CAr@@QAEXI@Z	; CAr::CheckBuf
  0002a	8b 4e 08	 mov	 ecx, DWORD PTR [esi+8]
  0002d	89 29		 mov	 DWORD PTR [ecx], ebp
  0002f	01 5e 08	 add	 DWORD PTR [esi+8], ebx
  00032	8b 6f 04	 mov	 ebp, DWORD PTR [edi+4]
  00035	53		 push	 ebx
  00036	8b ce		 mov	 ecx, esi
  00038	e8 00 00 00 00	 call	 ?CheckBuf@CAr@@QAEXI@Z	; CAr::CheckBuf
  0003d	8b 56 08	 mov	 edx, DWORD PTR [esi+8]
  00040	89 2a		 mov	 DWORD PTR [edx], ebp
  00042	01 5e 08	 add	 DWORD PTR [esi+8], ebx
  00045	8d 47 08	 lea	 eax, DWORD PTR [edi+8]
  00048	8b 08		 mov	 ecx, DWORD PTR [eax]
  0004a	8b 50 04	 mov	 edx, DWORD PTR [eax+4]
  0004d	8b 40 08	 mov	 eax, DWORD PTR [eax+8]
  00050	89 4c 24 10	 mov	 DWORD PTR $T194778[esp+28], ecx
  00054	6a 0c		 push	 12			; 0000000cH
  00056	8d 4c 24 14	 lea	 ecx, DWORD PTR $T194778[esp+32]
  0005a	51		 push	 ecx
  0005b	8b ce		 mov	 ecx, esi
  0005d	89 54 24 1c	 mov	 DWORD PTR $T194778[esp+40], edx
  00061	89 44 24 20	 mov	 DWORD PTR $T194778[esp+44], eax
  00065	e8 00 00 00 00	 call	 ?Write@CAr@@QAEXPBXI@Z	; CAr::Write
  0006a	8b 57 14	 mov	 edx, DWORD PTR [edi+20]
  0006d	53		 push	 ebx
  0006e	8b ce		 mov	 ecx, esi
  00070	89 54 24 24	 mov	 DWORD PTR $T194782[esp+28], edx
  00074	e8 00 00 00 00	 call	 ?CheckBuf@CAr@@QAEXI@Z	; CAr::CheckBuf
  00079	8b 46 08	 mov	 eax, DWORD PTR [esi+8]
  0007c	8b 4c 24 20	 mov	 ecx, DWORD PTR $T194782[esp+24]
  00080	89 08		 mov	 DWORD PTR [eax], ecx
  00082	01 5e 08	 add	 DWORD PTR [esi+8], ebx
  00085	8b 6f 18	 mov	 ebp, DWORD PTR [edi+24]
  00088	53		 push	 ebx
  00089	8b ce		 mov	 ecx, esi
  0008b	e8 00 00 00 00	 call	 ?CheckBuf@CAr@@QAEXI@Z	; CAr::CheckBuf
  00090	8b 56 08	 mov	 edx, DWORD PTR [esi+8]
  00093	89 2a		 mov	 DWORD PTR [edx], ebp
  00095	01 5e 08	 add	 DWORD PTR [esi+8], ebx

; 55   : 		if( tKeepTime > 0 )

  00098	8b 47 1c	 mov	 eax, DWORD PTR [edi+28]
  0009b	33 ed		 xor	 ebp, ebp
  0009d	3b c5		 cmp	 eax, ebp
  0009f	7e 2d		 jle	 SHORT $L192224

; 56   : 			ar << tKeepTime - time_null();

  000a1	55		 push	 ebp
  000a2	e8 00 00 00 00	 call	 _time
  000a7	8b 7f 1c	 mov	 edi, DWORD PTR [edi+28]
  000aa	83 c4 04	 add	 esp, 4
  000ad	53		 push	 ebx
  000ae	8b ce		 mov	 ecx, esi
  000b0	2b f8		 sub	 edi, eax
  000b2	e8 00 00 00 00	 call	 ?CheckBuf@CAr@@QAEXI@Z	; CAr::CheckBuf
  000b7	8b 46 08	 mov	 eax, DWORD PTR [esi+8]
  000ba	89 38		 mov	 DWORD PTR [eax], edi
  000bc	8b 46 08	 mov	 eax, DWORD PTR [esi+8]
  000bf	03 c3		 add	 eax, ebx
  000c1	5f		 pop	 edi
  000c2	89 46 08	 mov	 DWORD PTR [esi+8], eax
  000c5	5e		 pop	 esi
  000c6	5d		 pop	 ebp
  000c7	5b		 pop	 ebx

; 66   : 	}
; 67   : }

  000c8	83 c4 0c	 add	 esp, 12			; 0000000cH
  000cb	c2 04 00	 ret	 4
$L192224:

; 57   : 		else
; 58   : 			ar << static_cast<time_t>( 0 );

  000ce	53		 push	 ebx
  000cf	8b ce		 mov	 ecx, esi
  000d1	e8 00 00 00 00	 call	 ?CheckBuf@CAr@@QAEXI@Z	; CAr::CheckBuf
  000d6	8b 4e 08	 mov	 ecx, DWORD PTR [esi+8]
  000d9	89 29		 mov	 DWORD PTR [ecx], ebp
  000db	8b 46 08	 mov	 eax, DWORD PTR [esi+8]
  000de	03 c3		 add	 eax, ebx
  000e0	5f		 pop	 edi
  000e1	89 46 08	 mov	 DWORD PTR [esi+8], eax
  000e4	5e		 pop	 esi
  000e5	5d		 pop	 ebp
  000e6	5b		 pop	 ebx

; 66   : 	}
; 67   : }

  000e7	83 c4 0c	 add	 esp, 12			; 0000000cH
  000ea	c2 04 00	 ret	 4
$L192223:

; 59   : 	}
; 60   : 	else	
; 61   : 	{
; 62   : 		ar >> dwItemId >> bSetup >> vPos >> fAngle >> objId;

  000ed	8b 46 08	 mov	 eax, DWORD PTR [esi+8]
  000f0	8b 4e 0c	 mov	 ecx, DWORD PTR [esi+12]
  000f3	8d 50 04	 lea	 edx, DWORD PTR [eax+4]
  000f6	33 ed		 xor	 ebp, ebp
  000f8	3b d1		 cmp	 edx, ecx
  000fa	77 09		 ja	 SHORT $L194800
  000fc	8b 00		 mov	 eax, DWORD PTR [eax]
  000fe	89 07		 mov	 DWORD PTR [edi], eax
  00100	01 5e 08	 add	 DWORD PTR [esi+8], ebx
  00103	eb 08		 jmp	 SHORT $L194801
$L194800:
  00105	89 2f		 mov	 DWORD PTR [edi], ebp
  00107	8b 4e 0c	 mov	 ecx, DWORD PTR [esi+12]
  0010a	89 4e 08	 mov	 DWORD PTR [esi+8], ecx
$L194801:
  0010d	8b 46 08	 mov	 eax, DWORD PTR [esi+8]
  00110	8b 4e 0c	 mov	 ecx, DWORD PTR [esi+12]
  00113	8d 50 04	 lea	 edx, DWORD PTR [eax+4]
  00116	3b d1		 cmp	 edx, ecx
  00118	77 0a		 ja	 SHORT $L194812
  0011a	8b 00		 mov	 eax, DWORD PTR [eax]
  0011c	89 47 04	 mov	 DWORD PTR [edi+4], eax
  0011f	01 5e 08	 add	 DWORD PTR [esi+8], ebx
  00122	eb 09		 jmp	 SHORT $L194813
$L194812:
  00124	89 6f 04	 mov	 DWORD PTR [edi+4], ebp
  00127	8b 4e 0c	 mov	 ecx, DWORD PTR [esi+12]
  0012a	89 4e 08	 mov	 DWORD PTR [esi+8], ecx
$L194813:
  0012d	6a 0c		 push	 12			; 0000000cH
  0012f	8d 57 08	 lea	 edx, DWORD PTR [edi+8]
  00132	52		 push	 edx
  00133	8b ce		 mov	 ecx, esi
  00135	e8 00 00 00 00	 call	 ?Read@CAr@@QAEXPAXI@Z	; CAr::Read
  0013a	8b 46 08	 mov	 eax, DWORD PTR [esi+8]
  0013d	8b 56 0c	 mov	 edx, DWORD PTR [esi+12]
  00140	8d 48 04	 lea	 ecx, DWORD PTR [eax+4]
  00143	3b ca		 cmp	 ecx, edx
  00145	77 0c		 ja	 SHORT $L194821
  00147	8b 10		 mov	 edx, DWORD PTR [eax]
  00149	89 57 14	 mov	 DWORD PTR [edi+20], edx
  0014c	8b 46 08	 mov	 eax, DWORD PTR [esi+8]
  0014f	03 c3		 add	 eax, ebx
  00151	eb 06		 jmp	 SHORT $L194841
$L194821:
  00153	89 6f 14	 mov	 DWORD PTR [edi+20], ebp
  00156	8b 46 0c	 mov	 eax, DWORD PTR [esi+12]
$L194841:
  00159	8b 56 0c	 mov	 edx, DWORD PTR [esi+12]
  0015c	8d 48 04	 lea	 ecx, DWORD PTR [eax+4]
  0015f	3b ca		 cmp	 ecx, edx
  00161	89 46 08	 mov	 DWORD PTR [esi+8], eax
  00164	77 0c		 ja	 SHORT $L194827
  00166	8b 10		 mov	 edx, DWORD PTR [eax]
  00168	89 57 18	 mov	 DWORD PTR [edi+24], edx
  0016b	8b 46 08	 mov	 eax, DWORD PTR [esi+8]
  0016e	03 c3		 add	 eax, ebx
  00170	eb 06		 jmp	 SHORT $L194842
$L194827:
  00172	89 6f 18	 mov	 DWORD PTR [edi+24], ebp
  00175	8b 46 0c	 mov	 eax, DWORD PTR [esi+12]
$L194842:

; 63   : 		ar >> tKeepTime;

  00178	8b 56 0c	 mov	 edx, DWORD PTR [esi+12]
  0017b	8d 48 04	 lea	 ecx, DWORD PTR [eax+4]
  0017e	3b ca		 cmp	 ecx, edx
  00180	89 46 08	 mov	 DWORD PTR [esi+8], eax
  00183	77 0c		 ja	 SHORT $L194833
  00185	8b 10		 mov	 edx, DWORD PTR [eax]
  00187	89 57 1c	 mov	 DWORD PTR [edi+28], edx
  0018a	8b 46 08	 mov	 eax, DWORD PTR [esi+8]
  0018d	03 c3		 add	 eax, ebx
  0018f	eb 06		 jmp	 SHORT $L194843
$L194833:
  00191	89 6f 1c	 mov	 DWORD PTR [edi+28], ebp
  00194	8b 46 0c	 mov	 eax, DWORD PTR [esi+12]
$L194843:
  00197	89 46 08	 mov	 DWORD PTR [esi+8], eax

; 64   : 		if( tKeepTime > 0 )

  0019a	39 6f 1c	 cmp	 DWORD PTR [edi+28], ebp
  0019d	7e 11		 jle	 SHORT $L192228

; 65   : 			tKeepTime += time_null();

  0019f	55		 push	 ebp
  001a0	e8 00 00 00 00	 call	 _time
  001a5	8b 4f 1c	 mov	 ecx, DWORD PTR [edi+28]
  001a8	83 c4 04	 add	 esp, 4
  001ab	03 c8		 add	 ecx, eax
  001ad	89 4f 1c	 mov	 DWORD PTR [edi+28], ecx
$L192228:
  001b0	5f		 pop	 edi
  001b1	5e		 pop	 esi
  001b2	5d		 pop	 ebp
  001b3	5b		 pop	 ebx

; 66   : 	}
; 67   : }

  001b4	83 c4 0c	 add	 esp, 12			; 0000000cH
  001b7	c2 04 00	 ret	 4
?Serialize@GuildHouse_Furniture_Info@CGuildHouseBase@@QAEXAAVCAr@@@Z ENDP ; CGuildHouseBase::GuildHouse_Furniture_Info::Serialize
_TEXT	ENDS
PUBLIC	?begin@?$vector@UGuildHouse_Furniture_Info@CGuildHouseBase@@V?$allocator@UGuildHouse_Furniture_Info@CGuildHouseBase@@@std@@@std@@QAE?AViterator@12@XZ ; std::vector<CGuildHouseBase::GuildHouse_Furniture_Info,std::allocator<CGuildHouseBase::GuildHouse_Furniture_Info> >::begin
; Function compile flags: /Ogty
; File c:\program files\microsoft visual studio .net 2003\vc7\include\vector
;	COMDAT ?begin@?$vector@UGuildHouse_Furniture_Info@CGuildHouseBase@@V?$allocator@UGuildHouse_Furniture_Info@CGuildHouseBase@@@std@@@std@@QAE?AViterator@12@XZ
_TEXT	SEGMENT
___$ReturnUdt$ = 8					; size = 4
?begin@?$vector@UGuildHouse_Furniture_Info@CGuildHouseBase@@V?$allocator@UGuildHouse_Furniture_Info@CGuildHouseBase@@@std@@@std@@QAE?AViterator@12@XZ PROC NEAR ; std::vector<CGuildHouseBase::GuildHouse_Furniture_Info,std::allocator<CGuildHouseBase::GuildHouse_Furniture_Info> >::begin, COMDAT
; _this$ = ecx

; 463  : 		return (iterator(_Myfirst));

  00000	8b 49 04	 mov	 ecx, DWORD PTR [ecx+4]
  00003	8b 44 24 04	 mov	 eax, DWORD PTR ___$ReturnUdt$[esp-4]
  00007	89 08		 mov	 DWORD PTR [eax], ecx

; 464  : 		}

  00009	c2 04 00	 ret	 4
?begin@?$vector@UGuildHouse_Furniture_Info@CGuildHouseBase@@V?$allocator@UGuildHouse_Furniture_Info@CGuildHouseBase@@@std@@@std@@QAE?AViterator@12@XZ ENDP ; std::vector<CGuildHouseBase::GuildHouse_Furniture_Info,std::allocator<CGuildHouseBase::GuildHouse_Furniture_Info> >::begin
_TEXT	ENDS
PUBLIC	??A?$vector@UGuildHouse_Furniture_Info@CGuildHouseBase@@V?$allocator@UGuildHouse_Furniture_Info@CGuildHouseBase@@@std@@@std@@QAEAAUGuildHouse_Furniture_Info@CGuildHouseBase@@I@Z ; std::vector<CGuildHouseBase::GuildHouse_Furniture_Info,std::allocator<CGuildHouseBase::GuildHouse_Furniture_Info> >::operator[]
; Function compile flags: /Ogty
;	COMDAT ??A?$vector@UGuildHouse_Furniture_Info@CGuildHouseBase@@V?$allocator@UGuildHouse_Furniture_Info@CGuildHouseBase@@@std@@@std@@QAEAAUGuildHouse_Furniture_Info@CGuildHouseBase@@I@Z
_TEXT	SEGMENT
__Pos$ = 8						; size = 4
??A?$vector@UGuildHouse_Furniture_Info@CGuildHouseBase@@V?$allocator@UGuildHouse_Furniture_Info@CGuildHouseBase@@@std@@@std@@QAEAAUGuildHouse_Furniture_Info@CGuildHouseBase@@I@Z PROC NEAR ; std::vector<CGuildHouseBase::GuildHouse_Furniture_Info,std::allocator<CGuildHouseBase::GuildHouse_Furniture_Info> >::operator[], COMDAT
; _this$ = ecx

; 555  : 		return (*(begin() + _Pos));

  00000	8b 44 24 04	 mov	 eax, DWORD PTR __Pos$[esp-4]
  00004	8b 49 04	 mov	 ecx, DWORD PTR [ecx+4]
  00007	8d 04 c0	 lea	 eax, DWORD PTR [eax+eax*8]
  0000a	8d 04 81	 lea	 eax, DWORD PTR [ecx+eax*4]

; 556  : 		}

  0000d	c2 04 00	 ret	 4
??A?$vector@UGuildHouse_Furniture_Info@CGuildHouseBase@@V?$allocator@UGuildHouse_Furniture_Info@CGuildHouseBase@@@std@@@std@@QAEAAUGuildHouse_Furniture_Info@CGuildHouseBase@@I@Z ENDP ; std::vector<CGuildHouseBase::GuildHouse_Furniture_Info,std::allocator<CGuildHouseBase::GuildHouse_Furniture_Info> >::operator[]
_TEXT	ENDS
PUBLIC	?begin@?$_Tree@V?$_Tmap_traits@KPAVCGuildHouseBase@@U?$less@K@std@@V?$allocator@U?$pair@$$CBKPAVCGuildHouseBase@@@std@@@3@$0A@@std@@@std@@QAE?AViterator@12@XZ ; std::_Tree<std::_Tmap_traits<unsigned long,CGuildHouseBase *,std::less<unsigned long>,std::allocator<std::pair<unsigned long const ,CGuildHouseBase *> >,0> >::begin
; Function compile flags: /Ogty
; File c:\program files\microsoft visual studio .net 2003\vc7\include\xtree
;	COMDAT ?begin@?$_Tree@V?$_Tmap_traits@KPAVCGuildHouseBase@@U?$less@K@std@@V?$allocator@U?$pair@$$CBKPAVCGuildHouseBase@@@std@@@3@$0A@@std@@@std@@QAE?AViterator@12@XZ
_TEXT	SEGMENT
___$ReturnUdt$ = 8					; size = 4
?begin@?$_Tree@V?$_Tmap_traits@KPAVCGuildHouseBase@@U?$less@K@std@@V?$allocator@U?$pair@$$CBKPAVCGuildHouseBase@@@std@@@3@$0A@@std@@@std@@QAE?AViterator@12@XZ PROC NEAR ; std::_Tree<std::_Tmap_traits<unsigned long,CGuildHouseBase *,std::less<unsigned long>,std::allocator<std::pair<unsigned long const ,CGuildHouseBase *> >,0> >::begin, COMDAT
; _this$ = ecx

; 408  : 		return (_TREE_ITERATOR(_Lmost()));

  00000	8b 41 04	 mov	 eax, DWORD PTR [ecx+4]
  00003	8b 08		 mov	 ecx, DWORD PTR [eax]
  00005	8b 44 24 04	 mov	 eax, DWORD PTR ___$ReturnUdt$[esp-4]
  00009	89 08		 mov	 DWORD PTR [eax], ecx

; 409  : 		}

  0000b	c2 04 00	 ret	 4
?begin@?$_Tree@V?$_Tmap_traits@KPAVCGuildHouseBase@@U?$less@K@std@@V?$allocator@U?$pair@$$CBKPAVCGuildHouseBase@@@std@@@3@$0A@@std@@@std@@QAE?AViterator@12@XZ ENDP ; std::_Tree<std::_Tmap_traits<unsigned long,CGuildHouseBase *,std::less<unsigned long>,std::allocator<std::pair<unsigned long const ,CGuildHouseBase *> >,0> >::begin
_TEXT	ENDS
PUBLIC	?end@?$_Tree@V?$_Tmap_traits@KPAVCGuildHouseBase@@U?$less@K@std@@V?$allocator@U?$pair@$$CBKPAVCGuildHouseBase@@@std@@@3@$0A@@std@@@std@@QAE?AViterator@12@XZ ; std::_Tree<std::_Tmap_traits<unsigned long,CGuildHouseBase *,std::less<unsigned long>,std::allocator<std::pair<unsigned long const ,CGuildHouseBase *> >,0> >::end
; Function compile flags: /Ogty
;	COMDAT ?end@?$_Tree@V?$_Tmap_traits@KPAVCGuildHouseBase@@U?$less@K@std@@V?$allocator@U?$pair@$$CBKPAVCGuildHouseBase@@@std@@@3@$0A@@std@@@std@@QAE?AViterator@12@XZ
_TEXT	SEGMENT
___$ReturnUdt$ = 8					; size = 4
?end@?$_Tree@V?$_Tmap_traits@KPAVCGuildHouseBase@@U?$less@K@std@@V?$allocator@U?$pair@$$CBKPAVCGuildHouseBase@@@std@@@3@$0A@@std@@@std@@QAE?AViterator@12@XZ PROC NEAR ; std::_Tree<std::_Tmap_traits<unsigned long,CGuildHouseBase *,std::less<unsigned long>,std::allocator<std::pair<unsigned long const ,CGuildHouseBase *> >,0> >::end, COMDAT
; _this$ = ecx

; 418  : 		return (_TREE_ITERATOR(_Myhead));

  00000	8b 49 04	 mov	 ecx, DWORD PTR [ecx+4]
  00003	8b 44 24 04	 mov	 eax, DWORD PTR ___$ReturnUdt$[esp-4]
  00007	89 08		 mov	 DWORD PTR [eax], ecx

; 419  : 		}

  00009	c2 04 00	 ret	 4
?end@?$_Tree@V?$_Tmap_traits@KPAVCGuildHouseBase@@U?$less@K@std@@V?$allocator@U?$pair@$$CBKPAVCGuildHouseBase@@@std@@@3@$0A@@std@@@std@@QAE?AViterator@12@XZ ENDP ; std::_Tree<std::_Tmap_traits<unsigned long,CGuildHouseBase *,std::less<unsigned long>,std::allocator<std::pair<unsigned long const ,CGuildHouseBase *> >,0> >::end
_TEXT	ENDS
PUBLIC	??Citerator@?$_Tree@V?$_Tmap_traits@KPAVCGuildHouseBase@@U?$less@K@std@@V?$allocator@U?$pair@$$CBKPAVCGuildHouseBase@@@std@@@3@$0A@@std@@@std@@QBEPAU?$pair@$$CBKPAVCGuildHouseBase@@@2@XZ ; std::_Tree<std::_Tmap_traits<unsigned long,CGuildHouseBase *,std::less<unsigned long>,std::allocator<std::pair<unsigned long const ,CGuildHouseBase *> >,0> >::iterator::operator->
; Function compile flags: /Ogty
;	COMDAT ??Citerator@?$_Tree@V?$_Tmap_traits@KPAVCGuildHouseBase@@U?$less@K@std@@V?$allocator@U?$pair@$$CBKPAVCGuildHouseBase@@@std@@@3@$0A@@std@@@std@@QBEPAU?$pair@$$CBKPAVCGuildHouseBase@@@2@XZ
_TEXT	SEGMENT
??Citerator@?$_Tree@V?$_Tmap_traits@KPAVCGuildHouseBase@@U?$less@K@std@@V?$allocator@U?$pair@$$CBKPAVCGuildHouseBase@@@std@@@3@$0A@@std@@@std@@QBEPAU?$pair@$$CBKPAVCGuildHouseBase@@@2@XZ PROC NEAR ; std::_Tree<std::_Tmap_traits<unsigned long,CGuildHouseBase *,std::less<unsigned long>,std::allocator<std::pair<unsigned long const ,CGuildHouseBase *> >,0> >::iterator::operator->, COMDAT
; _this$ = ecx

; 322  : 			return (&**this);

  00000	8b 01		 mov	 eax, DWORD PTR [ecx]
  00002	83 c0 0c	 add	 eax, 12			; 0000000cH

; 323  : 			}

  00005	c3		 ret	 0
??Citerator@?$_Tree@V?$_Tmap_traits@KPAVCGuildHouseBase@@U?$less@K@std@@V?$allocator@U?$pair@$$CBKPAVCGuildHouseBase@@@std@@@3@$0A@@std@@@std@@QBEPAU?$pair@$$CBKPAVCGuildHouseBase@@@2@XZ ENDP ; std::_Tree<std::_Tmap_traits<unsigned long,CGuildHouseBase *,std::less<unsigned long>,std::allocator<std::pair<unsigned long const ,CGuildHouseBase *> >,0> >::iterator::operator->
_TEXT	ENDS
PUBLIC	?end@?$vector@UGuildHouse_Furniture_Info@CGuildHouseBase@@V?$allocator@UGuildHouse_Furniture_Info@CGuildHouseBase@@@std@@@std@@QAE?AViterator@12@XZ ; std::vector<CGuildHouseBase::GuildHouse_Furniture_Info,std::allocator<CGuildHouseBase::GuildHouse_Furniture_Info> >::end
; Function compile flags: /Ogty
; File c:\program files\microsoft visual studio .net 2003\vc7\include\vector
;	COMDAT ?end@?$vector@UGuildHouse_Furniture_Info@CGuildHouseBase@@V?$allocator@UGuildHouse_Furniture_Info@CGuildHouseBase@@@std@@@std@@QAE?AViterator@12@XZ
_TEXT	SEGMENT
___$ReturnUdt$ = 8					; size = 4
?end@?$vector@UGuildHouse_Furniture_Info@CGuildHouseBase@@V?$allocator@UGuildHouse_Furniture_Info@CGuildHouseBase@@@std@@@std@@QAE?AViterator@12@XZ PROC NEAR ; std::vector<CGuildHouseBase::GuildHouse_Furniture_Info,std::allocator<CGuildHouseBase::GuildHouse_Furniture_Info> >::end, COMDAT
; _this$ = ecx

; 473  : 		return (iterator(_Mylast));

  00000	8b 49 08	 mov	 ecx, DWORD PTR [ecx+8]
  00003	8b 44 24 04	 mov	 eax, DWORD PTR ___$ReturnUdt$[esp-4]
  00007	89 08		 mov	 DWORD PTR [eax], ecx

; 474  : 		}

  00009	c2 04 00	 ret	 4
?end@?$vector@UGuildHouse_Furniture_Info@CGuildHouseBase@@V?$allocator@UGuildHouse_Furniture_Info@CGuildHouseBase@@@std@@@std@@QAE?AViterator@12@XZ ENDP ; std::vector<CGuildHouseBase::GuildHouse_Furniture_Info,std::allocator<CGuildHouseBase::GuildHouse_Furniture_Info> >::end
_TEXT	ENDS
PUBLIC	?lower_bound@?$_Tree@V?$_Tmap_traits@KPAVCGuildHouseBase@@U?$less@K@std@@V?$allocator@U?$pair@$$CBKPAVCGuildHouseBase@@@std@@@3@$0A@@std@@@std@@QAE?AViterator@12@ABK@Z ; std::_Tree<std::_Tmap_traits<unsigned long,CGuildHouseBase *,std::less<unsigned long>,std::allocator<std::pair<unsigned long const ,CGuildHouseBase *> >,0> >::lower_bound
; Function compile flags: /Ogty
; File c:\program files\microsoft visual studio .net 2003\vc7\include\xtree
;	COMDAT ?lower_bound@?$_Tree@V?$_Tmap_traits@KPAVCGuildHouseBase@@U?$less@K@std@@V?$allocator@U?$pair@$$CBKPAVCGuildHouseBase@@@std@@@3@$0A@@std@@@std@@QAE?AViterator@12@ABK@Z
_TEXT	SEGMENT
___$ReturnUdt$ = 8					; size = 4
__Keyval$ = 12						; size = 4
?lower_bound@?$_Tree@V?$_Tmap_traits@KPAVCGuildHouseBase@@U?$less@K@std@@V?$allocator@U?$pair@$$CBKPAVCGuildHouseBase@@@std@@@3@$0A@@std@@@std@@QAE?AViterator@12@ABK@Z PROC NEAR ; std::_Tree<std::_Tmap_traits<unsigned long,CGuildHouseBase *,std::less<unsigned long>,std::allocator<std::pair<unsigned long const ,CGuildHouseBase *> >,0> >::lower_bound, COMDAT
; _this$ = ecx

; 810  : 		return (_TREE_ITERATOR(_Lbound(_Keyval)));

  00000	8b 49 04	 mov	 ecx, DWORD PTR [ecx+4]
  00003	8b 41 04	 mov	 eax, DWORD PTR [ecx+4]
  00006	8a 50 15	 mov	 dl, BYTE PTR [eax+21]
  00009	84 d2		 test	 dl, dl
  0000b	75 1d		 jne	 SHORT $L195022
  0000d	8b 54 24 08	 mov	 edx, DWORD PTR __Keyval$[esp-4]
  00011	8b 12		 mov	 edx, DWORD PTR [edx]
  00013	53		 push	 ebx
$L195009:
  00014	39 50 0c	 cmp	 DWORD PTR [eax+12], edx
  00017	73 05		 jae	 SHORT $L195011
  00019	8b 40 08	 mov	 eax, DWORD PTR [eax+8]
  0001c	eb 04		 jmp	 SHORT $L195012
$L195011:
  0001e	8b c8		 mov	 ecx, eax
  00020	8b 00		 mov	 eax, DWORD PTR [eax]
$L195012:
  00022	8a 58 15	 mov	 bl, BYTE PTR [eax+21]
  00025	84 db		 test	 bl, bl
  00027	74 eb		 je	 SHORT $L195009
  00029	5b		 pop	 ebx
$L195022:
  0002a	8b 44 24 04	 mov	 eax, DWORD PTR ___$ReturnUdt$[esp-4]
  0002e	89 08		 mov	 DWORD PTR [eax], ecx

; 811  : 		}

  00030	c2 08 00	 ret	 8
?lower_bound@?$_Tree@V?$_Tmap_traits@KPAVCGuildHouseBase@@U?$less@K@std@@V?$allocator@U?$pair@$$CBKPAVCGuildHouseBase@@@std@@@3@$0A@@std@@@std@@QAE?AViterator@12@ABK@Z ENDP ; std::_Tree<std::_Tmap_traits<unsigned long,CGuildHouseBase *,std::less<unsigned long>,std::allocator<std::pair<unsigned long const ,CGuildHouseBase *> >,0> >::lower_bound
_TEXT	ENDS
PUBLIC	?_Erase@?$_Tree@V?$_Tmap_traits@KPAVCGuildHouseBase@@U?$less@K@std@@V?$allocator@U?$pair@$$CBKPAVCGuildHouseBase@@@std@@@3@$0A@@std@@@std@@IAEXPAU_Node@?$_Tree_nod@V?$_Tmap_traits@KPAVCGuildHouseBase@@U?$less@K@std@@V?$allocator@U?$pair@$$CBKPAVCGuildHouseBase@@@std@@@3@$0A@@std@@@2@@Z ; std::_Tree<std::_Tmap_traits<unsigned long,CGuildHouseBase *,std::less<unsigned long>,std::allocator<std::pair<unsigned long const ,CGuildHouseBase *> >,0> >::_Erase
; Function compile flags: /Ogty
;	COMDAT ?_Erase@?$_Tree@V?$_Tmap_traits@KPAVCGuildHouseBase@@U?$less@K@std@@V?$allocator@U?$pair@$$CBKPAVCGuildHouseBase@@@std@@@3@$0A@@std@@@std@@IAEXPAU_Node@?$_Tree_nod@V?$_Tmap_traits@KPAVCGuildHouseBase@@U?$less@K@std@@V?$allocator@U?$pair@$$CBKPAVCGuildHouseBase@@@std@@@3@$0A@@std@@@2@@Z
_TEXT	SEGMENT
__Rootnode$ = 8						; size = 4
?_Erase@?$_Tree@V?$_Tmap_traits@KPAVCGuildHouseBase@@U?$less@K@std@@V?$allocator@U?$pair@$$CBKPAVCGuildHouseBase@@@std@@@3@$0A@@std@@@std@@IAEXPAU_Node@?$_Tree_nod@V?$_Tmap_traits@KPAVCGuildHouseBase@@U?$less@K@std@@V?$allocator@U?$pair@$$CBKPAVCGuildHouseBase@@@std@@@3@$0A@@std@@@2@@Z PROC NEAR ; std::_Tree<std::_Tmap_traits<unsigned long,CGuildHouseBase *,std::less<unsigned long>,std::allocator<std::pair<unsigned long const ,CGuildHouseBase *> >,0> >::_Erase, COMDAT
; _this$ = ecx

; 890  : 		{	// free entire subtree, recursively

  00000	53		 push	 ebx
  00001	56		 push	 esi
  00002	57		 push	 edi

; 891  : 		for (_Nodeptr _Pnode = _Rootnode; !_Isnil(_Pnode); _Rootnode = _Pnode)

  00003	8b 7c 24 10	 mov	 edi, DWORD PTR __Rootnode$[esp+8]
  00007	8a 47 15	 mov	 al, BYTE PTR [edi+21]
  0000a	84 c0		 test	 al, al
  0000c	8b d9		 mov	 ebx, ecx
  0000e	8b f7		 mov	 esi, edi
  00010	75 1f		 jne	 SHORT $L192928
$L192926:

; 892  : 			{	// free subtrees, then node
; 893  : 			_Erase(_Right(_Pnode));

  00012	8b 46 08	 mov	 eax, DWORD PTR [esi+8]
  00015	50		 push	 eax
  00016	8b cb		 mov	 ecx, ebx
  00018	e8 00 00 00 00	 call	 ?_Erase@?$_Tree@V?$_Tmap_traits@KPAVCGuildHouseBase@@U?$less@K@std@@V?$allocator@U?$pair@$$CBKPAVCGuildHouseBase@@@std@@@3@$0A@@std@@@std@@IAEXPAU_Node@?$_Tree_nod@V?$_Tmap_traits@KPAVCGuildHouseBase@@U?$less@K@std@@V?$allocator@U?$pair@$$CBKPAVCGuildHouseBase@@@std@@@3@$0A@@std@@@2@@Z ; std::_Tree<std::_Tmap_traits<unsigned long,CGuildHouseBase *,std::less<unsigned long>,std::allocator<std::pair<unsigned long const ,CGuildHouseBase *> >,0> >::_Erase

; 894  : 			_Pnode = _Left(_Pnode);

  0001d	8b 36		 mov	 esi, DWORD PTR [esi]

; 895  : 			this->_Alnod.destroy(_Rootnode);	// destroy, free erased node
; 896  : 			this->_Alnod.deallocate(_Rootnode, 1);

  0001f	57		 push	 edi
  00020	e8 00 00 00 00	 call	 ??3@YAXPAX@Z		; operator delete
  00025	8a 46 15	 mov	 al, BYTE PTR [esi+21]
  00028	83 c4 04	 add	 esp, 4
  0002b	84 c0		 test	 al, al
  0002d	8b fe		 mov	 edi, esi
  0002f	74 e1		 je	 SHORT $L192926
$L192928:
  00031	5f		 pop	 edi
  00032	5e		 pop	 esi
  00033	5b		 pop	 ebx

; 897  : 			}
; 898  : 		}

  00034	c2 04 00	 ret	 4
?_Erase@?$_Tree@V?$_Tmap_traits@KPAVCGuildHouseBase@@U?$less@K@std@@V?$allocator@U?$pair@$$CBKPAVCGuildHouseBase@@@std@@@3@$0A@@std@@@std@@IAEXPAU_Node@?$_Tree_nod@V?$_Tmap_traits@KPAVCGuildHouseBase@@U?$less@K@std@@V?$allocator@U?$pair@$$CBKPAVCGuildHouseBase@@@std@@@3@$0A@@std@@@2@@Z ENDP ; std::_Tree<std::_Tmap_traits<unsigned long,CGuildHouseBase *,std::less<unsigned long>,std::allocator<std::pair<unsigned long const ,CGuildHouseBase *> >,0> >::_Erase
_TEXT	ENDS
PUBLIC	??Eiterator@?$_Tree@V?$_Tmap_traits@KPAVCGuildHouseBase@@U?$less@K@std@@V?$allocator@U?$pair@$$CBKPAVCGuildHouseBase@@@std@@@3@$0A@@std@@@std@@QAEAAV012@XZ ; std::_Tree<std::_Tmap_traits<unsigned long,CGuildHouseBase *,std::less<unsigned long>,std::allocator<std::pair<unsigned long const ,CGuildHouseBase *> >,0> >::iterator::operator++
; Function compile flags: /Ogty
;	COMDAT ??Eiterator@?$_Tree@V?$_Tmap_traits@KPAVCGuildHouseBase@@U?$less@K@std@@V?$allocator@U?$pair@$$CBKPAVCGuildHouseBase@@@std@@@3@$0A@@std@@@std@@QAEAAV012@XZ
_TEXT	SEGMENT
??Eiterator@?$_Tree@V?$_Tmap_traits@KPAVCGuildHouseBase@@U?$less@K@std@@V?$allocator@U?$pair@$$CBKPAVCGuildHouseBase@@@std@@@3@$0A@@std@@@std@@QAEAAV012@XZ PROC NEAR ; std::_Tree<std::_Tmap_traits<unsigned long,CGuildHouseBase *,std::less<unsigned long>,std::allocator<std::pair<unsigned long const ,CGuildHouseBase *> >,0> >::iterator::operator++, COMDAT
; _this$ = ecx

; 326  : 			{	// preincrement

  00000	56		 push	 esi
  00001	8b f1		 mov	 esi, ecx

; 327  : 			++(*(const_iterator *)this);

  00003	e8 00 00 00 00	 call	 ?_Inc@const_iterator@?$_Tree@V?$_Tmap_traits@KPAVCGuildHouseBase@@U?$less@K@std@@V?$allocator@U?$pair@$$CBKPAVCGuildHouseBase@@@std@@@3@$0A@@std@@@std@@QAEXXZ ; std::_Tree<std::_Tmap_traits<unsigned long,CGuildHouseBase *,std::less<unsigned long>,std::allocator<std::pair<unsigned long const ,CGuildHouseBase *> >,0> >::const_iterator::_Inc

; 328  : 			return (*this);

  00008	8b c6		 mov	 eax, esi
  0000a	5e		 pop	 esi

; 329  : 			}

  0000b	c3		 ret	 0
??Eiterator@?$_Tree@V?$_Tmap_traits@KPAVCGuildHouseBase@@U?$less@K@std@@V?$allocator@U?$pair@$$CBKPAVCGuildHouseBase@@@std@@@3@$0A@@std@@@std@@QAEAAV012@XZ ENDP ; std::_Tree<std::_Tmap_traits<unsigned long,CGuildHouseBase *,std::less<unsigned long>,std::allocator<std::pair<unsigned long const ,CGuildHouseBase *> >,0> >::iterator::operator++
_TEXT	ENDS
PUBLIC	??Fiterator@?$_Tree@V?$_Tmap_traits@KPAVCGuildHouseBase@@U?$less@K@std@@V?$allocator@U?$pair@$$CBKPAVCGuildHouseBase@@@std@@@3@$0A@@std@@@std@@QAEAAV012@XZ ; std::_Tree<std::_Tmap_traits<unsigned long,CGuildHouseBase *,std::less<unsigned long>,std::allocator<std::pair<unsigned long const ,CGuildHouseBase *> >,0> >::iterator::operator--
; Function compile flags: /Ogty
;	COMDAT ??Fiterator@?$_Tree@V?$_Tmap_traits@KPAVCGuildHouseBase@@U?$less@K@std@@V?$allocator@U?$pair@$$CBKPAVCGuildHouseBase@@@std@@@3@$0A@@std@@@std@@QAEAAV012@XZ
_TEXT	SEGMENT
??Fiterator@?$_Tree@V?$_Tmap_traits@KPAVCGuildHouseBase@@U?$less@K@std@@V?$allocator@U?$pair@$$CBKPAVCGuildHouseBase@@@std@@@3@$0A@@std@@@std@@QAEAAV012@XZ PROC NEAR ; std::_Tree<std::_Tmap_traits<unsigned long,CGuildHouseBase *,std::less<unsigned long>,std::allocator<std::pair<unsigned long const ,CGuildHouseBase *> >,0> >::iterator::operator--, COMDAT
; _this$ = ecx

; 339  : 			{	// predecrement

  00000	56		 push	 esi
  00001	8b f1		 mov	 esi, ecx

; 340  : 			--(*(const_iterator *)this);

  00003	e8 00 00 00 00	 call	 ?_Dec@const_iterator@?$_Tree@V?$_Tmap_traits@KPAVCGuildHouseBase@@U?$less@K@std@@V?$allocator@U?$pair@$$CBKPAVCGuildHouseBase@@@std@@@3@$0A@@std@@@std@@QAEXXZ ; std::_Tree<std::_Tmap_traits<unsigned long,CGuildHouseBase *,std::less<unsigned long>,std::allocator<std::pair<unsigned long const ,CGuildHouseBase *> >,0> >::const_iterator::_Dec

; 341  : 			return (*this);

  00008	8b c6		 mov	 eax, esi
  0000a	5e		 pop	 esi

; 342  : 			}

  0000b	c3		 ret	 0
??Fiterator@?$_Tree@V?$_Tmap_traits@KPAVCGuildHouseBase@@U?$less@K@std@@V?$allocator@U?$pair@$$CBKPAVCGuildHouseBase@@@std@@@3@$0A@@std@@@std@@QAEAAV012@XZ ENDP ; std::_Tree<std::_Tmap_traits<unsigned long,CGuildHouseBase *,std::less<unsigned long>,std::allocator<std::pair<unsigned long const ,CGuildHouseBase *> >,0> >::iterator::operator--
_TEXT	ENDS
PUBLIC	?_Buynode@?$_Tree@V?$_Tmap_traits@KPAVCGuildHouseBase@@U?$less@K@std@@V?$allocator@U?$pair@$$CBKPAVCGuildHouseBase@@@std@@@3@$0A@@std@@@std@@IAEPAU_Node@?$_Tree_nod@V?$_Tmap_traits@KPAVCGuildHouseBase@@U?$less@K@std@@V?$allocator@U?$pair@$$CBKPAVCGuildHouseBase@@@std@@@3@$0A@@std@@@2@PAU342@00ABU?$pair@$$CBKPAVCGuildHouseBase@@@2@D@Z ; std::_Tree<std::_Tmap_traits<unsigned long,CGuildHouseBase *,std::less<unsigned long>,std::allocator<std::pair<unsigned long const ,CGuildHouseBase *> >,0> >::_Buynode
; Function compile flags: /Ogty
;	COMDAT ?_Buynode@?$_Tree@V?$_Tmap_traits@KPAVCGuildHouseBase@@U?$less@K@std@@V?$allocator@U?$pair@$$CBKPAVCGuildHouseBase@@@std@@@3@$0A@@std@@@std@@IAEPAU_Node@?$_Tree_nod@V?$_Tmap_traits@KPAVCGuildHouseBase@@U?$less@K@std@@V?$allocator@U?$pair@$$CBKPAVCGuildHouseBase@@@std@@@3@$0A@@std@@@2@PAU342@00ABU?$pair@$$CBKPAVCGuildHouseBase@@@2@D@Z
_TEXT	SEGMENT
__Larg$ = 8						; size = 4
__Parg$ = 12						; size = 4
__Rarg$ = 16						; size = 4
__Val$ = 20						; size = 4
__Carg$ = 24						; size = 1
?_Buynode@?$_Tree@V?$_Tmap_traits@KPAVCGuildHouseBase@@U?$less@K@std@@V?$allocator@U?$pair@$$CBKPAVCGuildHouseBase@@@std@@@3@$0A@@std@@@std@@IAEPAU_Node@?$_Tree_nod@V?$_Tmap_traits@KPAVCGuildHouseBase@@U?$less@K@std@@V?$allocator@U?$pair@$$CBKPAVCGuildHouseBase@@@std@@@3@$0A@@std@@@2@PAU342@00ABU?$pair@$$CBKPAVCGuildHouseBase@@@2@D@Z PROC NEAR ; std::_Tree<std::_Tmap_traits<unsigned long,CGuildHouseBase *,std::less<unsigned long>,std::allocator<std::pair<unsigned long const ,CGuildHouseBase *> >,0> >::_Buynode, COMDAT
; _this$ = ecx

; 1131 : 		_Nodeptr _Wherenode = this->_Alnod.allocate(1);

  00000	6a 18		 push	 24			; 00000018H
  00002	e8 00 00 00 00	 call	 ??2@YAPAXI@Z		; operator new
  00007	83 c4 04	 add	 esp, 4

; 1132 : 		_TRY_BEGIN
; 1133 : 		new (_Wherenode) _Node(_Larg, _Parg, _Rarg, _Val, _Carg);

  0000a	85 c0		 test	 eax, eax
  0000c	74 2e		 je	 SHORT $L195053
  0000e	8b 4c 24 04	 mov	 ecx, DWORD PTR __Larg$[esp-4]
  00012	8b 54 24 08	 mov	 edx, DWORD PTR __Parg$[esp-4]
  00016	89 08		 mov	 DWORD PTR [eax], ecx
  00018	8b 4c 24 0c	 mov	 ecx, DWORD PTR __Rarg$[esp-4]
  0001c	89 48 08	 mov	 DWORD PTR [eax+8], ecx
  0001f	8b 4c 24 10	 mov	 ecx, DWORD PTR __Val$[esp-4]
  00023	89 50 04	 mov	 DWORD PTR [eax+4], edx
  00026	8b 11		 mov	 edx, DWORD PTR [ecx]
  00028	89 50 0c	 mov	 DWORD PTR [eax+12], edx
  0002b	8b 49 04	 mov	 ecx, DWORD PTR [ecx+4]
  0002e	8a 54 24 14	 mov	 dl, BYTE PTR __Carg$[esp-4]
  00032	89 48 10	 mov	 DWORD PTR [eax+16], ecx
  00035	88 50 14	 mov	 BYTE PTR [eax+20], dl
  00038	c6 40 15 00	 mov	 BYTE PTR [eax+21], 0
$L195053:

; 1134 : 		_CATCH_ALL
; 1135 : 		this->_Alnod.deallocate(_Wherenode, 1);
; 1136 : 		_RERAISE;
; 1137 : 		_CATCH_END
; 1138 : 		return (_Wherenode);
; 1139 : 		}

  0003c	c2 14 00	 ret	 20			; 00000014H
?_Buynode@?$_Tree@V?$_Tmap_traits@KPAVCGuildHouseBase@@U?$less@K@std@@V?$allocator@U?$pair@$$CBKPAVCGuildHouseBase@@@std@@@3@$0A@@std@@@std@@IAEPAU_Node@?$_Tree_nod@V?$_Tmap_traits@KPAVCGuildHouseBase@@U?$less@K@std@@V?$allocator@U?$pair@$$CBKPAVCGuildHouseBase@@@std@@@3@$0A@@std@@@2@PAU342@00ABU?$pair@$$CBKPAVCGuildHouseBase@@@2@D@Z ENDP ; std::_Tree<std::_Tmap_traits<unsigned long,CGuildHouseBase *,std::less<unsigned long>,std::allocator<std::pair<unsigned long const ,CGuildHouseBase *> >,0> >::_Buynode
_TEXT	ENDS
PUBLIC	?_Buynode@?$_Tree@V?$_Tmap_traits@KPAVCGuildHouseBase@@U?$less@K@std@@V?$allocator@U?$pair@$$CBKPAVCGuildHouseBase@@@std@@@3@$0A@@std@@@std@@IAEPAU_Node@?$_Tree_nod@V?$_Tmap_traits@KPAVCGuildHouseBase@@U?$less@K@std@@V?$allocator@U?$pair@$$CBKPAVCGuildHouseBase@@@std@@@3@$0A@@std@@@2@XZ ; std::_Tree<std::_Tmap_traits<unsigned long,CGuildHouseBase *,std::less<unsigned long>,std::allocator<std::pair<unsigned long const ,CGuildHouseBase *> >,0> >::_Buynode
; Function compile flags: /Ogty
;	COMDAT ?_Buynode@?$_Tree@V?$_Tmap_traits@KPAVCGuildHouseBase@@U?$less@K@std@@V?$allocator@U?$pair@$$CBKPAVCGuildHouseBase@@@std@@@3@$0A@@std@@@std@@IAEPAU_Node@?$_Tree_nod@V?$_Tmap_traits@KPAVCGuildHouseBase@@U?$less@K@std@@V?$allocator@U?$pair@$$CBKPAVCGuildHouseBase@@@std@@@3@$0A@@std@@@2@XZ
_TEXT	SEGMENT
?_Buynode@?$_Tree@V?$_Tmap_traits@KPAVCGuildHouseBase@@U?$less@K@std@@V?$allocator@U?$pair@$$CBKPAVCGuildHouseBase@@@std@@@3@$0A@@std@@@std@@IAEPAU_Node@?$_Tree_nod@V?$_Tmap_traits@KPAVCGuildHouseBase@@U?$less@K@std@@V?$allocator@U?$pair@$$CBKPAVCGuildHouseBase@@@std@@@3@$0A@@std@@@2@XZ PROC NEAR ; std::_Tree<std::_Tmap_traits<unsigned long,CGuildHouseBase *,std::less<unsigned long>,std::allocator<std::pair<unsigned long const ,CGuildHouseBase *> >,0> >::_Buynode, COMDAT
; _this$ = ecx

; 1106 : 		_Nodeptr _Wherenode = this->_Alnod.allocate(1);

  00000	6a 18		 push	 24			; 00000018H
  00002	e8 00 00 00 00	 call	 ??2@YAPAXI@Z		; operator new
  00007	83 c4 04	 add	 esp, 4

; 1107 : 		int _Linkcnt = 0;
; 1108 : 
; 1109 : 		_TRY_BEGIN
; 1110 : 		this->_Alptr.construct(&_Left(_Wherenode), 0);

  0000a	85 c0		 test	 eax, eax
  0000c	74 06		 je	 SHORT $L195114
  0000e	c7 00 00 00 00
	00		 mov	 DWORD PTR [eax], 0
$L195114:

; 1111 : 		++_Linkcnt;
; 1112 : 		this->_Alptr.construct(&_Parent(_Wherenode), 0);

  00014	8d 48 04	 lea	 ecx, DWORD PTR [eax+4]
  00017	85 c9		 test	 ecx, ecx
  00019	74 06		 je	 SHORT $L195141
  0001b	c7 01 00 00 00
	00		 mov	 DWORD PTR [ecx], 0
$L195141:

; 1113 : 		++_Linkcnt;
; 1114 : 		this->_Alptr.construct(&_Right(_Wherenode), 0);

  00021	8d 48 08	 lea	 ecx, DWORD PTR [eax+8]
  00024	85 c9		 test	 ecx, ecx
  00026	74 06		 je	 SHORT $L195168
  00028	c7 01 00 00 00
	00		 mov	 DWORD PTR [ecx], 0
$L195168:

; 1115 : 		_CATCH_ALL
; 1116 : 		if (1 < _Linkcnt)
; 1117 : 			this->_Alptr.destroy(&_Parent(_Wherenode));
; 1118 : 		if (0 < _Linkcnt)
; 1119 : 			this->_Alptr.destroy(&_Left(_Wherenode));
; 1120 : 		this->_Alnod.deallocate(_Wherenode, 1);
; 1121 : 		_RERAISE;
; 1122 : 		_CATCH_END
; 1123 : 		_Color(_Wherenode) = _Black;

  0002e	c6 40 14 01	 mov	 BYTE PTR [eax+20], 1

; 1124 : 		_Isnil(_Wherenode) = false;

  00032	c6 40 15 00	 mov	 BYTE PTR [eax+21], 0

; 1125 : 		return (_Wherenode);
; 1126 : 		}

  00036	c3		 ret	 0
?_Buynode@?$_Tree@V?$_Tmap_traits@KPAVCGuildHouseBase@@U?$less@K@std@@V?$allocator@U?$pair@$$CBKPAVCGuildHouseBase@@@std@@@3@$0A@@std@@@std@@IAEPAU_Node@?$_Tree_nod@V?$_Tmap_traits@KPAVCGuildHouseBase@@U?$less@K@std@@V?$allocator@U?$pair@$$CBKPAVCGuildHouseBase@@@std@@@3@$0A@@std@@@2@XZ ENDP ; std::_Tree<std::_Tmap_traits<unsigned long,CGuildHouseBase *,std::less<unsigned long>,std::allocator<std::pair<unsigned long const ,CGuildHouseBase *> >,0> >::_Buynode
_TEXT	ENDS
PUBLIC	??0?$_Tree_ptr@V?$_Tmap_traits@KPAVCGuildHouseBase@@U?$less@K@std@@V?$allocator@U?$pair@$$CBKPAVCGuildHouseBase@@@std@@@3@$0A@@std@@@std@@IAE@ABU?$less@K@1@V?$allocator@U?$pair@$$CBKPAVCGuildHouseBase@@@std@@@1@@Z ; std::_Tree_ptr<std::_Tmap_traits<unsigned long,CGuildHouseBase *,std::less<unsigned long>,std::allocator<std::pair<unsigned long const ,CGuildHouseBase *> >,0> >::_Tree_ptr<std::_Tmap_traits<unsigned long,CGuildHouseBase *,std::less<unsigned long>,std::allocator<std::pair<unsigned long const ,CGuildHouseBase *> >,0> >
; Function compile flags: /Ogty
;	COMDAT ??0?$_Tree_ptr@V?$_Tmap_traits@KPAVCGuildHouseBase@@U?$less@K@std@@V?$allocator@U?$pair@$$CBKPAVCGuildHouseBase@@@std@@@3@$0A@@std@@@std@@IAE@ABU?$less@K@1@V?$allocator@U?$pair@$$CBKPAVCGuildHouseBase@@@std@@@1@@Z
_TEXT	SEGMENT
__Parg$ = 8						; size = 4
__Al$ = 12						; size = 1
??0?$_Tree_ptr@V?$_Tmap_traits@KPAVCGuildHouseBase@@U?$less@K@std@@V?$allocator@U?$pair@$$CBKPAVCGuildHouseBase@@@std@@@3@$0A@@std@@@std@@IAE@ABU?$less@K@1@V?$allocator@U?$pair@$$CBKPAVCGuildHouseBase@@@std@@@1@@Z PROC NEAR ; std::_Tree_ptr<std::_Tmap_traits<unsigned long,CGuildHouseBase *,std::less<unsigned long>,std::allocator<std::pair<unsigned long const ,CGuildHouseBase *> >,0> >::_Tree_ptr<std::_Tmap_traits<unsigned long,CGuildHouseBase *,std::less<unsigned long>,std::allocator<std::pair<unsigned long const ,CGuildHouseBase *> >,0> >, COMDAT
; _this$ = ecx

; 76   : 		{	// construct base, and allocator from _Al

  00000	8b c1		 mov	 eax, ecx

; 77   : 		}

  00002	c2 08 00	 ret	 8
??0?$_Tree_ptr@V?$_Tmap_traits@KPAVCGuildHouseBase@@U?$less@K@std@@V?$allocator@U?$pair@$$CBKPAVCGuildHouseBase@@@std@@@3@$0A@@std@@@std@@IAE@ABU?$less@K@1@V?$allocator@U?$pair@$$CBKPAVCGuildHouseBase@@@std@@@1@@Z ENDP ; std::_Tree_ptr<std::_Tmap_traits<unsigned long,CGuildHouseBase *,std::less<unsigned long>,std::allocator<std::pair<unsigned long const ,CGuildHouseBase *> >,0> >::_Tree_ptr<std::_Tmap_traits<unsigned long,CGuildHouseBase *,std::less<unsigned long>,std::allocator<std::pair<unsigned long const ,CGuildHouseBase *> >,0> >
_TEXT	ENDS
PUBLIC	??$_Destroy_range@UGuildHouse_Furniture_Info@CGuildHouseBase@@V?$allocator@UGuildHouse_Furniture_Info@CGuildHouseBase@@@std@@@std@@YAXPAUGuildHouse_Furniture_Info@CGuildHouseBase@@0AAV?$allocator@UGuildHouse_Furniture_Info@CGuildHouseBase@@@0@U_Nonscalar_ptr_iterator_tag@0@@Z ; std::_Destroy_range<CGuildHouseBase::GuildHouse_Furniture_Info,std::allocator<CGuildHouseBase::GuildHouse_Furniture_Info> >
; Function compile flags: /Ogty
; File c:\program files\microsoft visual studio .net 2003\vc7\include\xmemory
;	COMDAT ??$_Destroy_range@UGuildHouse_Furniture_Info@CGuildHouseBase@@V?$allocator@UGuildHouse_Furniture_Info@CGuildHouseBase@@@std@@@std@@YAXPAUGuildHouse_Furniture_Info@CGuildHouseBase@@0AAV?$allocator@UGuildHouse_Furniture_Info@CGuildHouseBase@@@0@U_Nonscalar_ptr_iterator_tag@0@@Z
_TEXT	SEGMENT
__First$ = 8						; size = 4
__Last$ = 12						; size = 4
__Al$ = 16						; size = 4
___formal$ = 20						; size = 1
??$_Destroy_range@UGuildHouse_Furniture_Info@CGuildHouseBase@@V?$allocator@UGuildHouse_Furniture_Info@CGuildHouseBase@@@std@@@std@@YAXPAUGuildHouse_Furniture_Info@CGuildHouseBase@@0AAV?$allocator@UGuildHouse_Furniture_Info@CGuildHouseBase@@@0@U_Nonscalar_ptr_iterator_tag@0@@Z PROC NEAR ; std::_Destroy_range<CGuildHouseBase::GuildHouse_Furniture_Info,std::allocator<CGuildHouseBase::GuildHouse_Furniture_Info> >, COMDAT

; 225  : 	for (; _First != _Last; ++_First)
; 226  : 		_Al.destroy(_First);
; 227  : 	}

  00000	c3		 ret	 0
??$_Destroy_range@UGuildHouse_Furniture_Info@CGuildHouseBase@@V?$allocator@UGuildHouse_Furniture_Info@CGuildHouseBase@@@std@@@std@@YAXPAUGuildHouse_Furniture_Info@CGuildHouseBase@@0AAV?$allocator@UGuildHouse_Furniture_Info@CGuildHouseBase@@@0@U_Nonscalar_ptr_iterator_tag@0@@Z ENDP ; std::_Destroy_range<CGuildHouseBase::GuildHouse_Furniture_Info,std::allocator<CGuildHouseBase::GuildHouse_Furniture_Info> >
_TEXT	ENDS
PUBLIC	??$_Uninit_fill_n@PAUGuildHouse_Furniture_Info@CGuildHouseBase@@IU12@V?$allocator@UGuildHouse_Furniture_Info@CGuildHouseBase@@@std@@@std@@YAXPAUGuildHouse_Furniture_Info@CGuildHouseBase@@IABU12@AAV?$allocator@UGuildHouse_Furniture_Info@CGuildHouseBase@@@0@U_Nonscalar_ptr_iterator_tag@0@@Z ; std::_Uninit_fill_n<CGuildHouseBase::GuildHouse_Furniture_Info *,unsigned int,CGuildHouseBase::GuildHouse_Furniture_Info,std::allocator<CGuildHouseBase::GuildHouse_Furniture_Info> >
; Function compile flags: /Ogty
; File c:\program files\microsoft visual studio .net 2003\vc7\include\memory
;	COMDAT ??$_Uninit_fill_n@PAUGuildHouse_Furniture_Info@CGuildHouseBase@@IU12@V?$allocator@UGuildHouse_Furniture_Info@CGuildHouseBase@@@std@@@std@@YAXPAUGuildHouse_Furniture_Info@CGuildHouseBase@@IABU12@AAV?$allocator@UGuildHouse_Furniture_Info@CGuildHouseBase@@@0@U_Nonscalar_ptr_iterator_tag@0@@Z
_TEXT	SEGMENT
__First$ = 8						; size = 4
__Count$ = 12						; size = 4
__Val$ = 16						; size = 4
__Al$ = 20						; size = 4
___formal$ = 24						; size = 1
??$_Uninit_fill_n@PAUGuildHouse_Furniture_Info@CGuildHouseBase@@IU12@V?$allocator@UGuildHouse_Furniture_Info@CGuildHouseBase@@@std@@@std@@YAXPAUGuildHouse_Furniture_Info@CGuildHouseBase@@IABU12@AAV?$allocator@UGuildHouse_Furniture_Info@CGuildHouseBase@@@0@U_Nonscalar_ptr_iterator_tag@0@@Z PROC NEAR ; std::_Uninit_fill_n<CGuildHouseBase::GuildHouse_Furniture_Info *,unsigned int,CGuildHouseBase::GuildHouse_Furniture_Info,std::allocator<CGuildHouseBase::GuildHouse_Furniture_Info> >, COMDAT

; 208  : 	_FwdIt _Next = _First;
; 209  : 
; 210  : 	_TRY_BEGIN
; 211  : 	for (; 0 < _Count; --_Count, ++_First)

  00000	8b 44 24 08	 mov	 eax, DWORD PTR __Count$[esp-4]
  00004	85 c0		 test	 eax, eax
  00006	76 25		 jbe	 SHORT $L193536
  00008	53		 push	 ebx
  00009	8b 5c 24 10	 mov	 ebx, DWORD PTR __Val$[esp]
  0000d	56		 push	 esi
  0000e	8b d0		 mov	 edx, eax
  00010	8b 44 24 0c	 mov	 eax, DWORD PTR __First$[esp+4]
  00014	57		 push	 edi
$L193534:

; 212  : 		_Al.construct(_First, _Val);

  00015	85 c0		 test	 eax, eax
  00017	74 0b		 je	 SHORT $L193535
  00019	b9 09 00 00 00	 mov	 ecx, 9
  0001e	8b f3		 mov	 esi, ebx
  00020	8b f8		 mov	 edi, eax
  00022	f3 a5		 rep movsd
$L193535:
  00024	83 c0 24	 add	 eax, 36			; 00000024H
  00027	4a		 dec	 edx
  00028	75 eb		 jne	 SHORT $L193534
  0002a	5f		 pop	 edi
  0002b	5e		 pop	 esi
  0002c	5b		 pop	 ebx
$L193536:

; 213  : 	_CATCH_ALL
; 214  : 	for (; _Next != _First; ++_Next)
; 215  : 		_Al.destroy(_Next);
; 216  : 	_RERAISE;
; 217  : 	_CATCH_END
; 218  : 	}

  0002d	c3		 ret	 0
??$_Uninit_fill_n@PAUGuildHouse_Furniture_Info@CGuildHouseBase@@IU12@V?$allocator@UGuildHouse_Furniture_Info@CGuildHouseBase@@@std@@@std@@YAXPAUGuildHouse_Furniture_Info@CGuildHouseBase@@IABU12@AAV?$allocator@UGuildHouse_Furniture_Info@CGuildHouseBase@@@0@U_Nonscalar_ptr_iterator_tag@0@@Z ENDP ; std::_Uninit_fill_n<CGuildHouseBase::GuildHouse_Furniture_Info *,unsigned int,CGuildHouseBase::GuildHouse_Furniture_Info,std::allocator<CGuildHouseBase::GuildHouse_Furniture_Info> >
_TEXT	ENDS
PUBLIC	??$_Uninitialized_copy@PAUGuildHouse_Furniture_Info@CGuildHouseBase@@PAU12@V?$allocator@UGuildHouse_Furniture_Info@CGuildHouseBase@@@std@@@std@@YAPAUGuildHouse_Furniture_Info@CGuildHouseBase@@PAU12@00AAV?$allocator@UGuildHouse_Furniture_Info@CGuildHouseBase@@@0@@Z ; std::_Uninitialized_copy<CGuildHouseBase::GuildHouse_Furniture_Info *,CGuildHouseBase::GuildHouse_Furniture_Info *,std::allocator<CGuildHouseBase::GuildHouse_Furniture_Info> >
; Function compile flags: /Ogty
;	COMDAT ??$_Uninitialized_copy@PAUGuildHouse_Furniture_Info@CGuildHouseBase@@PAU12@V?$allocator@UGuildHouse_Furniture_Info@CGuildHouseBase@@@std@@@std@@YAPAUGuildHouse_Furniture_Info@CGuildHouseBase@@PAU12@00AAV?$allocator@UGuildHouse_Furniture_Info@CGuildHouseBase@@@0@@Z
_TEXT	SEGMENT
__Cat$195257 = -4					; size = 1
__First$ = 8						; size = 4
__Last$ = 12						; size = 4
__Dest$ = 16						; size = 4
__Al$ = 20						; size = 4
??$_Uninitialized_copy@PAUGuildHouse_Furniture_Info@CGuildHouseBase@@PAU12@V?$allocator@UGuildHouse_Furniture_Info@CGuildHouseBase@@@std@@@std@@YAPAUGuildHouse_Furniture_Info@CGuildHouseBase@@PAU12@00AAV?$allocator@UGuildHouse_Furniture_Info@CGuildHouseBase@@@0@@Z PROC NEAR ; std::_Uninitialized_copy<CGuildHouseBase::GuildHouse_Furniture_Info *,CGuildHouseBase::GuildHouse_Furniture_Info *,std::allocator<CGuildHouseBase::GuildHouse_Furniture_Info> >, COMDAT

; 126  : 	{	// copy [_First, _Last) to raw _Dest, using _Al

  00000	51		 push	 ecx

; 127  : 	return (_Uninit_copy(_First, _Last, _Dest, _Al,
; 128  : 		_Ptr_cat(_First, _Dest)));

  00001	8b 04 24	 mov	 eax, DWORD PTR __Cat$195257[esp+4]
  00004	8b 4c 24 14	 mov	 ecx, DWORD PTR __Al$[esp]
  00008	8b 54 24 10	 mov	 edx, DWORD PTR __Dest$[esp]
  0000c	50		 push	 eax
  0000d	8b 44 24 10	 mov	 eax, DWORD PTR __Last$[esp+4]
  00011	51		 push	 ecx
  00012	8b 4c 24 10	 mov	 ecx, DWORD PTR __First$[esp+8]
  00016	52		 push	 edx
  00017	50		 push	 eax
  00018	51		 push	 ecx
  00019	e8 00 00 00 00	 call	 ??$_Uninit_copy@PAUGuildHouse_Furniture_Info@CGuildHouseBase@@PAU12@V?$allocator@UGuildHouse_Furniture_Info@CGuildHouseBase@@@std@@@std@@YAPAUGuildHouse_Furniture_Info@CGuildHouseBase@@PAU12@00AAV?$allocator@UGuildHouse_Furniture_Info@CGuildHouseBase@@@0@U_Nonscalar_ptr_iterator_tag@0@@Z ; std::_Uninit_copy<CGuildHouseBase::GuildHouse_Furniture_Info *,CGuildHouseBase::GuildHouse_Furniture_Info *,std::allocator<CGuildHouseBase::GuildHouse_Furniture_Info> >

; 129  : 	}

  0001e	83 c4 18	 add	 esp, 24			; 00000018H
  00021	c3		 ret	 0
??$_Uninitialized_copy@PAUGuildHouse_Furniture_Info@CGuildHouseBase@@PAU12@V?$allocator@UGuildHouse_Furniture_Info@CGuildHouseBase@@@std@@@std@@YAPAUGuildHouse_Furniture_Info@CGuildHouseBase@@PAU12@00AAV?$allocator@UGuildHouse_Furniture_Info@CGuildHouseBase@@@0@@Z ENDP ; std::_Uninitialized_copy<CGuildHouseBase::GuildHouse_Furniture_Info *,CGuildHouseBase::GuildHouse_Furniture_Info *,std::allocator<CGuildHouseBase::GuildHouse_Furniture_Info> >
_TEXT	ENDS
PUBLIC	?_Tidy@?$basic_string@DU?$char_traits@D@std@@V?$allocator@D@2@@std@@IAEX_NI@Z ; std::basic_string<char,std::char_traits<char>,std::allocator<char> >::_Tidy
; Function compile flags: /Ogty
; File c:\program files\microsoft visual studio .net 2003\vc7\include\xstring
;	COMDAT ?_Tidy@?$basic_string@DU?$char_traits@D@std@@V?$allocator@D@2@@std@@IAEX_NI@Z
_TEXT	SEGMENT
__Built$ = 8						; size = 1
__Newsize$ = 12						; size = 4
?_Tidy@?$basic_string@DU?$char_traits@D@std@@V?$allocator@D@2@@std@@IAEX_NI@Z PROC NEAR ; std::basic_string<char,std::char_traits<char>,std::allocator<char> >::_Tidy, COMDAT
; _this$ = ecx

; 1510 : 		if (!_Built)

  00000	8a 44 24 04	 mov	 al, BYTE PTR __Built$[esp-4]
  00004	84 c0		 test	 al, al
  00006	53		 push	 ebx
  00007	55		 push	 ebp
  00008	8b 6c 24 10	 mov	 ebp, DWORD PTR __Newsize$[esp+4]
  0000c	8b d9		 mov	 ebx, ecx
  0000e	74 2f		 je	 SHORT $L195264

; 1511 : 			;
; 1512 : 		else if (_BUF_SIZE <= _Myres)

  00010	83 7b 18 10	 cmp	 DWORD PTR [ebx+24], 16	; 00000010H
  00014	72 29		 jb	 SHORT $L195264

; 1513 : 			{	// copy any leftovers to small buffer and deallocate
; 1514 : 			_Elem *_Ptr = _Bx._Ptr;
; 1515 : 			if (0 < _Newsize)

  00016	85 ed		 test	 ebp, ebp
  00018	8b 43 04	 mov	 eax, DWORD PTR [ebx+4]
  0001b	57		 push	 edi
  0001c	8d 7b 04	 lea	 edi, DWORD PTR [ebx+4]
  0001f	76 14		 jbe	 SHORT $L195262
  00021	56		 push	 esi

; 1516 : 				_Traits::copy(_Bx._Buf, _Ptr, _Newsize);

  00022	8b cd		 mov	 ecx, ebp
  00024	8b d1		 mov	 edx, ecx
  00026	c1 e9 02	 shr	 ecx, 2
  00029	8b f0		 mov	 esi, eax
  0002b	f3 a5		 rep movsd
  0002d	8b ca		 mov	 ecx, edx
  0002f	83 e1 03	 and	 ecx, 3
  00032	f3 a4		 rep movsb
  00034	5e		 pop	 esi
$L195262:

; 1517 : 			_Mybase::_Alval.deallocate(_Ptr, _Myres + 1);

  00035	50		 push	 eax
  00036	e8 00 00 00 00	 call	 ??3@YAXPAX@Z		; operator delete
  0003b	83 c4 04	 add	 esp, 4
  0003e	5f		 pop	 edi
$L195264:

; 1518 : 			}
; 1519 : 		_Myres = _BUF_SIZE - 1;
; 1520 : 		_Eos(_Newsize);

  0003f	89 6b 14	 mov	 DWORD PTR [ebx+20], ebp
  00042	c7 43 18 0f 00
	00 00		 mov	 DWORD PTR [ebx+24], 15	; 0000000fH
  00049	c6 44 2b 04 00	 mov	 BYTE PTR [ebx+ebp+4], 0
  0004e	5d		 pop	 ebp
  0004f	5b		 pop	 ebx

; 1521 : 		}

  00050	c2 08 00	 ret	 8
?_Tidy@?$basic_string@DU?$char_traits@D@std@@V?$allocator@D@2@@std@@IAEX_NI@Z ENDP ; std::basic_string<char,std::char_traits<char>,std::allocator<char> >::_Tidy
_TEXT	ENDS
PUBLIC	?erase@?$basic_string@DU?$char_traits@D@std@@V?$allocator@D@2@@std@@QAEAAV12@II@Z ; std::basic_string<char,std::char_traits<char>,std::allocator<char> >::erase
EXTRN	?_Xran@_String_base@std@@QBEXXZ:NEAR		; std::_String_base::_Xran
; Function compile flags: /Ogty
;	COMDAT ?erase@?$basic_string@DU?$char_traits@D@std@@V?$allocator@D@2@@std@@QAEAAV12@II@Z
_TEXT	SEGMENT
__Off$ = 8						; size = 4
__Count$ = 12						; size = 4
?erase@?$basic_string@DU?$char_traits@D@std@@V?$allocator@D@2@@std@@QAEAAV12@II@Z PROC NEAR ; std::basic_string<char,std::char_traits<char>,std::allocator<char> >::erase, COMDAT
; _this$ = ecx

; 792  : 		{	// erase elements [_Off, _Off + _Count)

  00000	55		 push	 ebp

; 793  : 		if (_Mysize < _Off)

  00001	8b 6c 24 08	 mov	 ebp, DWORD PTR __Off$[esp]
  00005	56		 push	 esi
  00006	8b f1		 mov	 esi, ecx
  00008	39 6e 14	 cmp	 DWORD PTR [esi+20], ebp
  0000b	57		 push	 edi
  0000c	73 05		 jae	 SHORT $L184993

; 794  : 			_String_base::_Xran();	// _Off off end

  0000e	e8 00 00 00 00	 call	 ?_Xran@_String_base@std@@QBEXXZ ; std::_String_base::_Xran
$L184993:

; 795  : 		if (_Mysize - _Off < _Count)

  00013	8b 46 14	 mov	 eax, DWORD PTR [esi+20]
  00016	8b 7c 24 14	 mov	 edi, DWORD PTR __Count$[esp+8]
  0001a	2b c5		 sub	 eax, ebp
  0001c	3b c7		 cmp	 eax, edi
  0001e	73 02		 jae	 SHORT $L184994

; 796  : 			_Count = _Mysize - _Off;	// trim _Count

  00020	8b f8		 mov	 edi, eax
$L184994:

; 797  : 		if (0 < _Count)

  00022	85 ff		 test	 edi, edi
  00024	76 47		 jbe	 SHORT $L195329

; 798  : 			{	// move elements down
; 799  : 			_Traits::move(_Myptr() + _Off, _Myptr() + _Off + _Count,
; 800  : 				_Mysize - _Off - _Count);

  00026	8b 4e 18	 mov	 ecx, DWORD PTR [esi+24]
  00029	83 f9 10	 cmp	 ecx, 16			; 00000010H
  0002c	53		 push	 ebx
  0002d	8d 5e 04	 lea	 ebx, DWORD PTR [esi+4]
  00030	72 04		 jb	 SHORT $L195295
  00032	8b 13		 mov	 edx, DWORD PTR [ebx]
  00034	eb 02		 jmp	 SHORT $L195296
$L195295:
  00036	8b d3		 mov	 edx, ebx
$L195296:
  00038	83 f9 10	 cmp	 ecx, 16			; 00000010H
  0003b	72 04		 jb	 SHORT $L195302
  0003d	8b 0b		 mov	 ecx, DWORD PTR [ebx]
  0003f	eb 02		 jmp	 SHORT $L195303
$L195302:
  00041	8b cb		 mov	 ecx, ebx
$L195303:
  00043	2b c7		 sub	 eax, edi

; 803  : 			}
; 804  : 		return (*this);

  00045	03 d5		 add	 edx, ebp
  00047	50		 push	 eax
  00048	03 d7		 add	 edx, edi
  0004a	52		 push	 edx
  0004b	03 cd		 add	 ecx, ebp
  0004d	51		 push	 ecx
  0004e	e8 00 00 00 00	 call	 _memmove
  00053	8b 46 14	 mov	 eax, DWORD PTR [esi+20]
  00056	8b 4e 18	 mov	 ecx, DWORD PTR [esi+24]
  00059	2b c7		 sub	 eax, edi
  0005b	83 c4 0c	 add	 esp, 12			; 0000000cH
  0005e	83 f9 10	 cmp	 ecx, 16			; 00000010H
  00061	89 46 14	 mov	 DWORD PTR [esi+20], eax
  00064	72 02		 jb	 SHORT $L195326

; 801  : 			size_type _Newsize = _Mysize - _Count;
; 802  : 			_Eos(_Newsize);

  00066	8b 1b		 mov	 ebx, DWORD PTR [ebx]
$L195326:
  00068	c6 04 03 00	 mov	 BYTE PTR [ebx+eax], 0
  0006c	5b		 pop	 ebx
$L195329:
  0006d	5f		 pop	 edi

; 803  : 			}
; 804  : 		return (*this);

  0006e	8b c6		 mov	 eax, esi
  00070	5e		 pop	 esi
  00071	5d		 pop	 ebp

; 805  : 		}

  00072	c2 08 00	 ret	 8
?erase@?$basic_string@DU?$char_traits@D@std@@V?$allocator@D@2@@std@@QAEAAV12@II@Z ENDP ; std::basic_string<char,std::char_traits<char>,std::allocator<char> >::erase
_TEXT	ENDS
PUBLIC	?_Copy@?$basic_string@DU?$char_traits@D@std@@V?$allocator@D@2@@std@@IAEXII@Z ; std::basic_string<char,std::char_traits<char>,std::allocator<char> >::_Copy
EXTRN	__except_list:DWORD
EXTRN	___CxxFrameHandler:NEAR
;	COMDAT xdata$x
; File c:\program files\microsoft visual studio .net 2003\vc7\include\iosfwd
xdata$x	SEGMENT
$T195533 DD	0ffffffffH
	DD	00H
	DD	0ffffffffH
	DD	00H
	DD	01H
	DD	00H
	DD	01H
	DD	00H
$T195535 DD	00H
	DD	00H
	DD	00H
	DD	FLAT:$L195335
$T195536 DD	00H
	DD	00H
	DD	00H
	DD	FLAT:$L195333
$T195534 DD	02H
	DD	02H
	DD	03H
	DD	01H
	DD	FLAT:$T195535
	DD	00H
	DD	00H
	DD	03H
	DD	01H
	DD	FLAT:$T195536
$T195527 DD	019930520H
	DD	04H
	DD	FLAT:$T195533
	DD	02H
	DD	FLAT:$T195534
	DD	2 DUP(00H)
; Function compile flags: /Ogty
; File c:\program files\microsoft visual studio .net 2003\vc7\include\xstring
xdata$x	ENDS
;	COMDAT ?_Copy@?$basic_string@DU?$char_traits@D@std@@V?$allocator@D@2@@std@@IAEXII@Z
_TEXT	SEGMENT
__Newres$ = -24						; size = 4
_this$ = -20						; size = 4
__$EHRec$ = -16						; size = 16
__Ptr$ = 8						; size = 4
__Newsize$ = 8						; size = 4
__Oldlen$ = 12						; size = 4
?_Copy@?$basic_string@DU?$char_traits@D@std@@V?$allocator@D@2@@std@@IAEXII@Z PROC NEAR ; std::basic_string<char,std::char_traits<char>,std::allocator<char> >::_Copy, COMDAT
; _this$ = ecx

; 1444 : 		{	// copy _Oldlen elements to newly allocated buffer

  00000	55		 push	 ebp
  00001	8b ec		 mov	 ebp, esp
  00003	6a ff		 push	 -1
  00005	68 00 00 00 00	 push	 __ehhandler$?_Copy@?$basic_string@DU?$char_traits@D@std@@V?$allocator@D@2@@std@@IAEXII@Z
  0000a	64 a1 00 00 00
	00		 mov	 eax, DWORD PTR fs:__except_list
  00010	50		 push	 eax
  00011	64 89 25 00 00
	00 00		 mov	 DWORD PTR fs:__except_list, esp
  00018	83 ec 0c	 sub	 esp, 12			; 0000000cH

; 1445 : 		size_type _Newres = _Newsize | _ALLOC_MASK;

  0001b	8b 45 08	 mov	 eax, DWORD PTR __Newsize$[ebp]
  0001e	53		 push	 ebx
  0001f	56		 push	 esi
  00020	8b d8		 mov	 ebx, eax
  00022	83 cb 0f	 or	 ebx, 15			; 0000000fH

; 1446 : 		if (max_size() < _Newres)

  00025	83 fb fe	 cmp	 ebx, -2			; fffffffeH
  00028	57		 push	 edi
  00029	8b f1		 mov	 esi, ecx
  0002b	89 65 f0	 mov	 DWORD PTR __$EHRec$[ebp], esp
  0002e	89 75 ec	 mov	 DWORD PTR _this$[ebp], esi
  00031	76 04		 jbe	 SHORT $L185550

; 1447 : 			_Newres = _Newsize;	// undo roundup if too big

  00033	8b d8		 mov	 ebx, eax

; 1448 : 		else if (_Newres / 3 < _Myres / 2

  00035	eb 22		 jmp	 SHORT $L185552
$L185550:

; 1449 : 			&& _Myres <= max_size() - _Myres / 2)

  00037	8b 7e 18	 mov	 edi, DWORD PTR [esi+24]
  0003a	b8 ab aa aa aa	 mov	 eax, -1431655765	; aaaaaaabH
  0003f	f7 e3		 mul	 ebx
  00041	8b cf		 mov	 ecx, edi
  00043	d1 e9		 shr	 ecx, 1
  00045	d1 ea		 shr	 edx, 1
  00047	3b d1		 cmp	 edx, ecx
  00049	73 0e		 jae	 SHORT $L185552
  0004b	b8 fe ff ff ff	 mov	 eax, -2			; fffffffeH
  00050	2b c1		 sub	 eax, ecx
  00052	3b f8		 cmp	 edi, eax
  00054	77 03		 ja	 SHORT $L185552

; 1450 : 			_Newres = _Myres + _Myres / 2;	// grow exponentially if possible

  00056	8d 1c 39	 lea	 ebx, DWORD PTR [ecx+edi]
$L185552:

; 1451 : 		_Elem *_Ptr;
; 1452 : 
; 1453 : 		_TRY_BEGIN
; 1454 : 			_Ptr = _Mybase::_Alval.allocate(_Newres + 1);

  00059	8d 4b 01	 lea	 ecx, DWORD PTR [ebx+1]
  0005c	51		 push	 ecx
  0005d	c7 45 fc 00 00
	00 00		 mov	 DWORD PTR __$EHRec$[ebp+12], 0
  00064	e8 00 00 00 00	 call	 ??2@YAPAXI@Z		; operator new
  00069	8b d0		 mov	 edx, eax
  0006b	83 c4 04	 add	 esp, 4
  0006e	89 55 08	 mov	 DWORD PTR __Ptr$[ebp], edx
  00071	eb 29		 jmp	 SHORT $L185554
$L195333:

; 1455 : 		_CATCH_ALL
; 1456 : 			_Newres = _Newsize;	// allocation failed, undo roundup and retry

  00073	8b 45 08	 mov	 eax, DWORD PTR __Newsize$[ebp]
  00076	89 45 e8	 mov	 DWORD PTR __Newres$[ebp], eax

; 1457 : 			_TRY_BEGIN
; 1458 : 				_Ptr = _Mybase::_Alval.allocate(_Newres + 1);

  00079	40		 inc	 eax
  0007a	89 65 f0	 mov	 DWORD PTR __$EHRec$[ebp], esp
  0007d	50		 push	 eax
  0007e	c6 45 fc 02	 mov	 BYTE PTR __$EHRec$[ebp+12], 2
  00082	e8 00 00 00 00	 call	 ??2@YAPAXI@Z		; operator new
  00087	89 45 08	 mov	 DWORD PTR __Ptr$[ebp], eax
  0008a	83 c4 04	 add	 esp, 4

; 1462 : 			_CATCH_END
; 1463 : 		_CATCH_END

  0008d	b8 00 00 00 00	 mov	 eax, $L195528
  00092	c3		 ret	 0
$L195528:
  00093	8b 5d e8	 mov	 ebx, DWORD PTR __Newres$[ebp]
  00096	8b 75 ec	 mov	 esi, DWORD PTR _this$[ebp]
  00099	8b 55 08	 mov	 edx, DWORD PTR __Ptr$[ebp]
$L185554:

; 1464 : 
; 1465 : 		if (0 < _Oldlen)

  0009c	8b 4d 0c	 mov	 ecx, DWORD PTR __Oldlen$[ebp]
  0009f	85 c9		 test	 ecx, ecx
  000a1	76 24		 jbe	 SHORT $L195453

; 1466 : 			_Traits::copy(_Ptr, _Myptr(), _Oldlen);	// copy existing elements

  000a3	83 7e 18 10	 cmp	 DWORD PTR [esi+24], 16	; 00000010H
  000a7	72 05		 jb	 SHORT $L195449
  000a9	8b 76 04	 mov	 esi, DWORD PTR [esi+4]
  000ac	eb 03		 jmp	 SHORT $L195450
$L195449:
  000ae	83 c6 04	 add	 esi, 4
$L195450:
  000b1	8b c1		 mov	 eax, ecx
  000b3	c1 e9 02	 shr	 ecx, 2
  000b6	8b fa		 mov	 edi, edx
  000b8	f3 a5		 rep movsd
  000ba	8b c8		 mov	 ecx, eax
  000bc	83 e1 03	 and	 ecx, 3
  000bf	f3 a4		 rep movsb
  000c1	8b 75 ec	 mov	 esi, DWORD PTR _this$[ebp]
  000c4	8b 4d 0c	 mov	 ecx, DWORD PTR __Oldlen$[ebp]
$L195453:

; 1467 : 		_Tidy(true);

  000c7	83 7e 18 10	 cmp	 DWORD PTR [esi+24], 16	; 00000010H
  000cb	72 12		 jb	 SHORT $L195494
  000cd	8b 4e 04	 mov	 ecx, DWORD PTR [esi+4]
  000d0	51		 push	 ecx
  000d1	e8 00 00 00 00	 call	 ??3@YAXPAX@Z		; operator delete
  000d6	8b 55 08	 mov	 edx, DWORD PTR __Ptr$[ebp]
  000d9	8b 4d 0c	 mov	 ecx, DWORD PTR __Oldlen$[ebp]
  000dc	83 c4 04	 add	 esp, 4
$L195494:

; 1468 : 		_Bx._Ptr = _Ptr;
; 1469 : 		_Myres = _Newres;
; 1470 : 		_Eos(_Oldlen);

  000df	83 fb 10	 cmp	 ebx, 16			; 00000010H
  000e2	8d 46 04	 lea	 eax, DWORD PTR [esi+4]
  000e5	c6 00 00	 mov	 BYTE PTR [eax], 0
  000e8	89 10		 mov	 DWORD PTR [eax], edx
  000ea	89 5e 18	 mov	 DWORD PTR [esi+24], ebx
  000ed	89 4e 14	 mov	 DWORD PTR [esi+20], ecx
  000f0	72 02		 jb	 SHORT $L195523
  000f2	8b c2		 mov	 eax, edx
$L195523:

; 1471 : 		}

  000f4	5f		 pop	 edi
  000f5	c6 04 08 00	 mov	 BYTE PTR [eax+ecx], 0
  000f9	8b 4d f4	 mov	 ecx, DWORD PTR __$EHRec$[ebp+4]
  000fc	5e		 pop	 esi
  000fd	64 89 0d 00 00
	00 00		 mov	 DWORD PTR fs:__except_list, ecx
  00104	5b		 pop	 ebx
  00105	8b e5		 mov	 esp, ebp
  00107	5d		 pop	 ebp
  00108	c2 08 00	 ret	 8
$L195335:

; 1459 : 			_CATCH_ALL
; 1460 : 			_Tidy(true);	// failed again, discard storage and reraise

  0010b	8b 75 ec	 mov	 esi, DWORD PTR _this$[ebp]
  0010e	83 7e 18 10	 cmp	 DWORD PTR [esi+24], 16	; 00000010H
  00112	72 0c		 jb	 SHORT $L195433
  00114	8b 56 04	 mov	 edx, DWORD PTR [esi+4]
  00117	52		 push	 edx
  00118	e8 00 00 00 00	 call	 ??3@YAXPAX@Z		; operator delete
  0011d	83 c4 04	 add	 esp, 4
$L195433:

; 1461 : 			_RERAISE;

  00120	6a 00		 push	 0
  00122	c7 46 18 0f 00
	00 00		 mov	 DWORD PTR [esi+24], 15	; 0000000fH
  00129	c7 46 14 00 00
	00 00		 mov	 DWORD PTR [esi+20], 0
  00130	6a 00		 push	 0
  00132	c6 46 04 00	 mov	 BYTE PTR [esi+4], 0
  00136	e8 00 00 00 00	 call	 __CxxThrowException@8
$L195532:
  0013b	cc		 int	 3
_TEXT	ENDS
;	COMDAT text$x
text$x	SEGMENT
__ehhandler$?_Copy@?$basic_string@DU?$char_traits@D@std@@V?$allocator@D@2@@std@@IAEXII@Z:
  00000	b8 00 00 00 00	 mov	 eax, OFFSET FLAT:$T195527
  00005	e9 00 00 00 00	 jmp	 ___CxxFrameHandler
text$x	ENDS
?_Copy@?$basic_string@DU?$char_traits@D@std@@V?$allocator@D@2@@std@@IAEXII@Z ENDP ; std::basic_string<char,std::char_traits<char>,std::allocator<char> >::_Copy
PUBLIC	?GetFurnitureInfo@CGuildHouseBase@@QAE?AUGuildHouse_Furniture_Info@1@H@Z ; CGuildHouseBase::GetFurnitureInfo
; Function compile flags: /Ogty
; File c:\documents and settings\test\mes documents\source\virtuos_v17\build\program\_common\guildhouse.h
;	COMDAT ?GetFurnitureInfo@CGuildHouseBase@@QAE?AUGuildHouse_Furniture_Info@1@H@Z
_TEXT	SEGMENT
$T195543 = -48						; size = 12
$T195542 = -36						; size = 36
___$ReturnUdt$ = 8					; size = 4
_nIndex$ = 12						; size = 4
?GetFurnitureInfo@CGuildHouseBase@@QAE?AUGuildHouse_Furniture_Info@1@H@Z PROC NEAR ; CGuildHouseBase::GetFurnitureInfo, COMDAT
; _this$ = ecx

; 101  : 	GuildHouse_Furniture_Info GetFurnitureInfo( int nIndex ) { return nIndex < (int)( m_vecFntInfo.size() ) ? m_vecFntInfo[nIndex] : GuildHouse_Furniture_Info(); }

  00000	8b 41 10	 mov	 eax, DWORD PTR [ecx+16]
  00003	83 ec 30	 sub	 esp, 48			; 00000030H
  00006	56		 push	 esi
  00007	33 f6		 xor	 esi, esi
  00009	3b c6		 cmp	 eax, esi
  0000b	57		 push	 edi
  0000c	75 04		 jne	 SHORT $L195551
  0000e	33 c0		 xor	 eax, eax
  00010	eb 16		 jmp	 SHORT $L195552
$L195551:
  00012	8b 51 14	 mov	 edx, DWORD PTR [ecx+20]
  00015	2b d0		 sub	 edx, eax
  00017	b8 39 8e e3 38	 mov	 eax, 954437177		; 38e38e39H
  0001c	f7 ea		 imul	 edx
  0001e	c1 fa 03	 sar	 edx, 3
  00021	8b c2		 mov	 eax, edx
  00023	c1 e8 1f	 shr	 eax, 31			; 0000001fH
  00026	03 c2		 add	 eax, edx
$L195552:
  00028	8b 54 24 40	 mov	 edx, DWORD PTR _nIndex$[esp+52]
  0002c	3b d0		 cmp	 edx, eax
  0002e	7d 1e		 jge	 SHORT $L195544
  00030	8b 49 10	 mov	 ecx, DWORD PTR [ecx+16]
  00033	8d 04 d2	 lea	 eax, DWORD PTR [edx+edx*8]
  00036	8d 34 81	 lea	 esi, DWORD PTR [ecx+eax*4]
  00039	8b 44 24 3c	 mov	 eax, DWORD PTR ___$ReturnUdt$[esp+52]
  0003d	b9 09 00 00 00	 mov	 ecx, 9
  00042	8b f8		 mov	 edi, eax
  00044	f3 a5		 rep movsd
  00046	5f		 pop	 edi
  00047	5e		 pop	 esi
  00048	83 c4 30	 add	 esp, 48			; 00000030H
  0004b	c2 08 00	 ret	 8
$L195544:
  0004e	c7 44 24 08 00
	00 00 00	 mov	 DWORD PTR $T195543[esp+56], 0
  00056	8b 54 24 08	 mov	 edx, DWORD PTR $T195543[esp+56]
  0005a	83 c8 ff	 or	 eax, -1
  0005d	89 54 24 1c	 mov	 DWORD PTR $T195542[esp+64], edx
  00061	c7 44 24 0c 00
	00 00 00	 mov	 DWORD PTR $T195543[esp+60], 0
  00069	8b 4c 24 0c	 mov	 ecx, DWORD PTR $T195543[esp+60]
  0006d	c7 44 24 10 00
	00 00 00	 mov	 DWORD PTR $T195543[esp+64], 0
  00075	8b 54 24 10	 mov	 edx, DWORD PTR $T195543[esp+64]
  00079	56		 push	 esi
  0007a	89 44 24 18	 mov	 DWORD PTR $T195542[esp+60], eax
  0007e	89 74 24 1c	 mov	 DWORD PTR $T195542[esp+64], esi
  00082	89 4c 24 24	 mov	 DWORD PTR $T195542[esp+72], ecx
  00086	89 54 24 28	 mov	 DWORD PTR $T195542[esp+76], edx
  0008a	c7 44 24 2c 00
	00 00 00	 mov	 DWORD PTR $T195542[esp+80], 0
  00092	89 44 24 30	 mov	 DWORD PTR $T195542[esp+84], eax
  00096	e8 00 00 00 00	 call	 _time
  0009b	89 44 24 34	 mov	 DWORD PTR $T195542[esp+88], eax
  0009f	8b 44 24 40	 mov	 eax, DWORD PTR ___$ReturnUdt$[esp+56]
  000a3	89 74 24 38	 mov	 DWORD PTR $T195542[esp+92], esi
  000a7	83 c4 04	 add	 esp, 4
  000aa	8d 74 24 14	 lea	 esi, DWORD PTR $T195542[esp+56]
  000ae	b9 09 00 00 00	 mov	 ecx, 9
  000b3	8b f8		 mov	 edi, eax
  000b5	f3 a5		 rep movsd
  000b7	5f		 pop	 edi
  000b8	5e		 pop	 esi
  000b9	83 c4 30	 add	 esp, 48			; 00000030H
  000bc	c2 08 00	 ret	 8
?GetFurnitureInfo@CGuildHouseBase@@QAE?AUGuildHouse_Furniture_Info@1@H@Z ENDP ; CGuildHouseBase::GetFurnitureInfo
_TEXT	ENDS
PUBLIC	?GetFirstExpiredFurnitureIndex@CGuildHouseBase@@QAEHXZ ; CGuildHouseBase::GetFirstExpiredFurnitureIndex
; Function compile flags: /Ogty
; File c:\documents and settings\test\mes documents\source\virtuos_v17\build\program\_common\guildhouse.cpp
;	COMDAT ?GetFirstExpiredFurnitureIndex@CGuildHouseBase@@QAEHXZ
_TEXT	SEGMENT
?GetFirstExpiredFurnitureIndex@CGuildHouseBase@@QAEHXZ PROC NEAR ; CGuildHouseBase::GetFirstExpiredFurnitureIndex, COMDAT
; _this$ = ecx

; 707  : {

  00000	53		 push	 ebx
  00001	55		 push	 ebp
  00002	56		 push	 esi
  00003	57		 push	 edi

; 708  : 	for( int i=0; i<(int)( m_vecFntInfo.size() ); i++ )

  00004	33 ed		 xor	 ebp, ebp
  00006	8b f9		 mov	 edi, ecx
  00008	33 db		 xor	 ebx, ebx
  0000a	8d 9b 00 00 00
	00		 npad	 6
$L192249:
  00010	8b 47 10	 mov	 eax, DWORD PTR [edi+16]
  00013	85 c0		 test	 eax, eax
  00015	74 16		 je	 SHORT $L195630
$L195629:
  00017	8b 4f 14	 mov	 ecx, DWORD PTR [edi+20]
  0001a	2b c8		 sub	 ecx, eax
  0001c	b8 39 8e e3 38	 mov	 eax, 954437177		; 38e38e39H
  00021	f7 e9		 imul	 ecx
  00023	c1 fa 03	 sar	 edx, 3
  00026	8b c2		 mov	 eax, edx
  00028	c1 e8 1f	 shr	 eax, 31			; 0000001fH
  0002b	03 c2		 add	 eax, edx
$L195630:
  0002d	3b e8		 cmp	 ebp, eax
  0002f	7d 2b		 jge	 SHORT $L192251

; 709  : 	{
; 710  : 		if( m_vecFntInfo[i].tKeepTime != 0 && m_vecFntInfo[i].tKeepTime <= time_null() )

  00031	8b 47 10	 mov	 eax, DWORD PTR [edi+16]
  00034	8d 34 18	 lea	 esi, DWORD PTR [eax+ebx]
  00037	8b 46 1c	 mov	 eax, DWORD PTR [esi+28]
  0003a	85 c0		 test	 eax, eax
  0003c	74 11		 je	 SHORT $L192250
  0003e	6a 00		 push	 0
  00040	e8 00 00 00 00	 call	 _time
  00045	8b 4e 1c	 mov	 ecx, DWORD PTR [esi+28]
  00048	83 c4 04	 add	 esp, 4
  0004b	3b c8		 cmp	 ecx, eax
  0004d	7e 06		 jle	 SHORT $L195748
$L192250:

; 708  : 	for( int i=0; i<(int)( m_vecFntInfo.size() ); i++ )

  0004f	45		 inc	 ebp
  00050	83 c3 24	 add	 ebx, 36			; 00000024H
  00053	eb bb		 jmp	 SHORT $L192249
$L195748:
  00055	5f		 pop	 edi
  00056	5e		 pop	 esi

; 711  : 			return i;

  00057	8b c5		 mov	 eax, ebp
  00059	5d		 pop	 ebp
  0005a	5b		 pop	 ebx

; 715  : }

  0005b	c3		 ret	 0
$L192251:
  0005c	5f		 pop	 edi
  0005d	5e		 pop	 esi
  0005e	5d		 pop	 ebp

; 712  : 	}
; 713  : 
; 714  : 	return NULL_ID;

  0005f	83 c8 ff	 or	 eax, -1
  00062	5b		 pop	 ebx

; 715  : }

  00063	c3		 ret	 0
?GetFirstExpiredFurnitureIndex@CGuildHouseBase@@QAEHXZ ENDP ; CGuildHouseBase::GetFirstExpiredFurnitureIndex
_TEXT	ENDS
PUBLIC	?SetupFurnitureCtrl@CGuildHouseBase@@AAEHHAAUGuildHouse_Furniture_Info@1@@Z ; CGuildHouseBase::SetupFurnitureCtrl
EXTRN	?prj@@3VCProject@@A:BYTE			; prj
; Function compile flags: /Ogty
;	COMDAT ?SetupFurnitureCtrl@CGuildHouseBase@@AAEHHAAUGuildHouse_Furniture_Info@1@@Z
_TEXT	SEGMENT
_nIndex$ = 8						; size = 4
_gfi$ = 12						; size = 4
?SetupFurnitureCtrl@CGuildHouseBase@@AAEHHAAUGuildHouse_Furniture_Info@1@@Z PROC NEAR ; CGuildHouseBase::SetupFurnitureCtrl, COMDAT
; _this$ = ecx

; 854  : 	if( (int)( m_vecFntInfo.size() ) <= nIndex || m_vecFntInfo[nIndex].dwItemId != gfi.dwItemId )	return FALSE;

  00000	8b 41 10	 mov	 eax, DWORD PTR [ecx+16]
  00003	85 c0		 test	 eax, eax
  00005	74 16		 je	 SHORT $L195757
$L195756:
  00007	8b 51 14	 mov	 edx, DWORD PTR [ecx+20]
  0000a	2b d0		 sub	 edx, eax
  0000c	b8 39 8e e3 38	 mov	 eax, 954437177		; 38e38e39H
  00011	f7 ea		 imul	 edx
  00013	c1 fa 03	 sar	 edx, 3
  00016	8b c2		 mov	 eax, edx
  00018	c1 e8 1f	 shr	 eax, 31			; 0000001fH
  0001b	03 c2		 add	 eax, edx
$L195757:
  0001d	8b 54 24 04	 mov	 edx, DWORD PTR _nIndex$[esp-4]
  00021	3b c2		 cmp	 eax, edx
  00023	56		 push	 esi
  00024	57		 push	 edi
  00025	7e 38		 jle	 SHORT $L192426
  00027	8b 49 10	 mov	 ecx, DWORD PTR [ecx+16]
  0002a	8b 74 24 10	 mov	 esi, DWORD PTR _gfi$[esp+4]
  0002e	8d 04 d2	 lea	 eax, DWORD PTR [edx+edx*8]
  00031	8d 3c 81	 lea	 edi, DWORD PTR [ecx+eax*4]
  00034	8b 06		 mov	 eax, DWORD PTR [esi]
  00036	39 07		 cmp	 DWORD PTR [edi], eax
  00038	75 25		 jne	 SHORT $L192426

; 855  : 	ItemProp* pItemProp = prj.GetItemProp( gfi.dwItemId );

  0003a	3b 05 50 00 00
	00		 cmp	 eax, DWORD PTR ?prj@@3VCProject@@A+80
  00040	73 1d		 jae	 SHORT $L192426
  00042	8b 15 40 00 00
	00		 mov	 edx, DWORD PTR ?prj@@3VCProject@@A+64

; 856  : 	if( !pItemProp )	return FALSE;

  00048	83 3c 82 00	 cmp	 DWORD PTR [edx+eax*4], 0
  0004c	74 11		 je	 SHORT $L192426

; 857  : 
; 858  : #ifdef __WORLDSERVER
; 859  : 	//      ...
; 860  : 	CWorld* pWorld = g_WorldMng.GetWorld( m_dwWorldId );
; 861  : 	if( pWorld && pWorld->m_linkMap.GetLinkMap( static_cast<int>( m_dwGuildId ) ) )
; 862  : 	{
; 863  : 		CCtrl* pCtrl = NULL;
; 864  : 		if( pItemProp->dwItemKind2 == IK2_GUILDHOUSE_NPC )	//  NPC    .
; 865  : 		{
; 866  : 			pCtrl = static_cast<CCtrl*>( CreateObj( D3DDEVICE, OT_MOVER, pItemProp->dwLinkKind ) );
; 867  : 			CMover* pMover = static_cast<CMover*>( pCtrl );
; 868  : 			if( pMover )
; 869  : 			{
; 870  : 				lstrcpy( pMover->m_szCharacterKey, pItemProp->szTextFileName );
; 871  : 				pMover->InitNPCProperty();
; 872  : 				pMover->InitCharacter( pMover->GetCharacter() );
; 873  : 				pMover->InitMotion( MTI_STAND );
; 874  : 				pMover->UpdateLocalMatrix();
; 875  : 			}
; 876  : 		}
; 877  : 		else if( pItemProp->dwItemKind2 == IK2_GUILDHOUSE_FURNITURE )
; 878  : 			pCtrl = static_cast<CCtrl*>( CreateObj( D3DDEVICE, OT_CTRL, pItemProp->dwLinkKind ) );
; 879  : 
; 880  : 		if( pCtrl )
; 881  : 		{
; 882  : 			pCtrl->SetPos( gfi.vPos );
; 883  : 			pCtrl->SetAngle( gfi.fAngle );
; 884  : 			pCtrl->AddItToGlobalId();
; 885  : 			gfi.objId = pCtrl->GetId();
; 886  : 			pWorld->ADDOBJ( pCtrl, FALSE, static_cast<int>( m_dwGuildId ) );
; 887  : 		}
; 888  : 	}
; 889  : 
; 890  : 	if( !m_vecFntInfo[nIndex].bSetup )	//     
; 891  : 		SetDSTFunriture( pItemProp );	//   
; 892  : #endif // __WORLDSERVER
; 893  : 
; 894  : 	m_vecFntInfo[nIndex] = gfi;

  0004e	b9 09 00 00 00	 mov	 ecx, 9
  00053	f3 a5		 rep movsd
  00055	5f		 pop	 edi

; 895  : 	return TRUE;

  00056	b8 01 00 00 00	 mov	 eax, 1
  0005b	5e		 pop	 esi

; 896  : }

  0005c	c2 08 00	 ret	 8
$L192426:
  0005f	5f		 pop	 edi

; 854  : 	if( (int)( m_vecFntInfo.size() ) <= nIndex || m_vecFntInfo[nIndex].dwItemId != gfi.dwItemId )	return FALSE;

  00060	33 c0		 xor	 eax, eax
  00062	5e		 pop	 esi

; 896  : }

  00063	c2 08 00	 ret	 8
?SetupFurnitureCtrl@CGuildHouseBase@@AAEHHAAUGuildHouse_Furniture_Info@1@@Z ENDP ; CGuildHouseBase::SetupFurnitureCtrl
_TEXT	ENDS
PUBLIC	?RemoveFurnitureCtrl@CGuildHouseBase@@AAEHHAAUGuildHouse_Furniture_Info@1@@Z ; CGuildHouseBase::RemoveFurnitureCtrl
; Function compile flags: /Ogty
;	COMDAT ?RemoveFurnitureCtrl@CGuildHouseBase@@AAEHHAAUGuildHouse_Furniture_Info@1@@Z
_TEXT	SEGMENT
_nIndex$ = 8						; size = 4
_gfi$ = 12						; size = 4
?RemoveFurnitureCtrl@CGuildHouseBase@@AAEHHAAUGuildHouse_Furniture_Info@1@@Z PROC NEAR ; CGuildHouseBase::RemoveFurnitureCtrl, COMDAT
; _this$ = ecx

; 900  : 	if( (int)( m_vecFntInfo.size() ) <= nIndex || m_vecFntInfo[nIndex].dwItemId != gfi.dwItemId )	return FALSE;

  00000	8b 41 10	 mov	 eax, DWORD PTR [ecx+16]
  00003	85 c0		 test	 eax, eax
  00005	74 16		 je	 SHORT $L195891
$L195890:
  00007	8b 51 14	 mov	 edx, DWORD PTR [ecx+20]
  0000a	2b d0		 sub	 edx, eax
  0000c	b8 39 8e e3 38	 mov	 eax, 954437177		; 38e38e39H
  00011	f7 ea		 imul	 edx
  00013	c1 fa 03	 sar	 edx, 3
  00016	8b c2		 mov	 eax, edx
  00018	c1 e8 1f	 shr	 eax, 31			; 0000001fH
  0001b	03 c2		 add	 eax, edx
$L195891:
  0001d	8b 54 24 04	 mov	 edx, DWORD PTR _nIndex$[esp-4]
  00021	3b c2		 cmp	 eax, edx
  00023	56		 push	 esi
  00024	57		 push	 edi
  00025	7e 3d		 jle	 SHORT $L192436
  00027	8b 49 10	 mov	 ecx, DWORD PTR [ecx+16]
  0002a	8b 74 24 10	 mov	 esi, DWORD PTR _gfi$[esp+4]
  0002e	8d 04 d2	 lea	 eax, DWORD PTR [edx+edx*8]
  00031	8b 14 81	 mov	 edx, DWORD PTR [ecx+eax*4]
  00034	8d 3c 81	 lea	 edi, DWORD PTR [ecx+eax*4]
  00037	3b 16		 cmp	 edx, DWORD PTR [esi]
  00039	75 29		 jne	 SHORT $L192436

; 901  : 	ItemProp* pItemProp = prj.GetItemProp( m_vecFntInfo[nIndex].dwItemId );

  0003b	8b 0d 50 00 00
	00		 mov	 ecx, DWORD PTR ?prj@@3VCProject@@A+80
  00041	8b c2		 mov	 eax, edx
  00043	3b c1		 cmp	 eax, ecx
  00045	73 1d		 jae	 SHORT $L192436
  00047	8b 0d 40 00 00
	00		 mov	 ecx, DWORD PTR ?prj@@3VCProject@@A+64

; 902  : 	if( !pItemProp )	return FALSE;

  0004d	83 3c 81 00	 cmp	 DWORD PTR [ecx+eax*4], 0
  00051	74 11		 je	 SHORT $L192436

; 903  : 
; 904  : #ifdef __WORLDSERVER
; 905  : 	CWorld* pWorld = g_WorldMng.GetWorld( m_dwWorldId );
; 906  : 	if( pWorld && pWorld->m_linkMap.GetLinkMap( static_cast<int>( m_dwGuildId ) ) )
; 907  : 	{
; 908  : 		//    
; 909  : 		CCtrl* pCtrl = prj.GetCtrl( m_vecFntInfo[nIndex].objId );
; 910  : 		if( pCtrl )
; 911  : 			pCtrl->Delete();
; 912  : 	}
; 913  : 	
; 914  : 	if( m_vecFntInfo[nIndex].bSetup )	//     
; 915  : 		ResetDSTFunriture( pItemProp );	//   
; 916  : #endif // __WORLDSERVER
; 917  : 	m_vecFntInfo[nIndex] = gfi;

  00053	b9 09 00 00 00	 mov	 ecx, 9
  00058	f3 a5		 rep movsd
  0005a	5f		 pop	 edi

; 918  : 	return TRUE;

  0005b	b8 01 00 00 00	 mov	 eax, 1
  00060	5e		 pop	 esi

; 919  : }

  00061	c2 08 00	 ret	 8
$L192436:
  00064	5f		 pop	 edi

; 900  : 	if( (int)( m_vecFntInfo.size() ) <= nIndex || m_vecFntInfo[nIndex].dwItemId != gfi.dwItemId )	return FALSE;

  00065	33 c0		 xor	 eax, eax
  00067	5e		 pop	 esi

; 919  : }

  00068	c2 08 00	 ret	 8
?RemoveFurnitureCtrl@CGuildHouseBase@@AAEHHAAUGuildHouse_Furniture_Info@1@@Z ENDP ; CGuildHouseBase::RemoveFurnitureCtrl
_TEXT	ENDS
PUBLIC	?ResetFurnitureCtrl@CGuildHouseBase@@AAEHHAAUGuildHouse_Furniture_Info@1@@Z ; CGuildHouseBase::ResetFurnitureCtrl
; Function compile flags: /Ogty
;	COMDAT ?ResetFurnitureCtrl@CGuildHouseBase@@AAEHHAAUGuildHouse_Furniture_Info@1@@Z
_TEXT	SEGMENT
_nIndex$ = 8						; size = 4
_gfi$ = 12						; size = 4
?ResetFurnitureCtrl@CGuildHouseBase@@AAEHHAAUGuildHouse_Furniture_Info@1@@Z PROC NEAR ; CGuildHouseBase::ResetFurnitureCtrl, COMDAT
; _this$ = ecx

; 923  : 	if( (int)( m_vecFntInfo.size() ) <= nIndex || m_vecFntInfo[nIndex].dwItemId != gfi.dwItemId )	return FALSE;

  00000	8b 41 10	 mov	 eax, DWORD PTR [ecx+16]
  00003	85 c0		 test	 eax, eax
  00005	74 16		 je	 SHORT $L196080
$L196079:
  00007	8b 51 14	 mov	 edx, DWORD PTR [ecx+20]
  0000a	2b d0		 sub	 edx, eax
  0000c	b8 39 8e e3 38	 mov	 eax, 954437177		; 38e38e39H
  00011	f7 ea		 imul	 edx
  00013	c1 fa 03	 sar	 edx, 3
  00016	8b c2		 mov	 eax, edx
  00018	c1 e8 1f	 shr	 eax, 31			; 0000001fH
  0001b	03 c2		 add	 eax, edx
$L196080:
  0001d	8b 54 24 04	 mov	 edx, DWORD PTR _nIndex$[esp-4]
  00021	3b c2		 cmp	 eax, edx
  00023	56		 push	 esi
  00024	57		 push	 edi
  00025	7e 42		 jle	 SHORT $L192446
  00027	8b 49 10	 mov	 ecx, DWORD PTR [ecx+16]
  0002a	8b 74 24 10	 mov	 esi, DWORD PTR _gfi$[esp+4]
  0002e	8d 04 d2	 lea	 eax, DWORD PTR [edx+edx*8]
  00031	8d 3c 81	 lea	 edi, DWORD PTR [ecx+eax*4]
  00034	8b 06		 mov	 eax, DWORD PTR [esi]
  00036	39 07		 cmp	 DWORD PTR [edi], eax
  00038	75 2f		 jne	 SHORT $L192446

; 924  : 	ItemProp* pItemProp = prj.GetItemProp( gfi.dwItemId );

  0003a	3b 05 50 00 00
	00		 cmp	 eax, DWORD PTR ?prj@@3VCProject@@A+80
  00040	73 27		 jae	 SHORT $L192446
  00042	8b 15 40 00 00
	00		 mov	 edx, DWORD PTR ?prj@@3VCProject@@A+64
  00048	8b 04 82	 mov	 eax, DWORD PTR [edx+eax*4]

; 925  : 	if( !pItemProp )	return FALSE;

  0004b	85 c0		 test	 eax, eax
  0004d	74 1a		 je	 SHORT $L192446

; 926  : 	if( pItemProp->dwItemKind3 == IK3_TELEPORTER )	return FALSE;

  0004f	81 78 78 8c 00
	00 00		 cmp	 DWORD PTR [eax+120], 140 ; 0000008cH
  00056	74 11		 je	 SHORT $L192446

; 927  : 
; 928  : #ifdef __WORLDSERVER
; 929  : 	CWorld* pWorld = g_WorldMng.GetWorld( m_dwWorldId );
; 930  : 	if( pWorld && pWorld->m_linkMap.GetLinkMap( static_cast<int>( m_dwGuildId ) ) )
; 931  : 	{
; 932  : 		//     .
; 933  : 		CCtrl* pCtrl	= prj.GetCtrl( m_vecFntInfo[nIndex].objId );
; 934  : 		if( pCtrl )
; 935  : 		{
; 936  : 			pCtrl->Delete();	// 
; 937  : 			//   !!!
; 938  : 			pCtrl = (CCtrl*)CreateObj( D3DDEVICE, OT_CTRL, pItemProp->dwLinkKind );
; 939  : 			if( pCtrl )
; 940  : 			{
; 941  : 				pCtrl->SetPos( gfi.vPos );
; 942  : 				pCtrl->SetAngle( gfi.fAngle );
; 943  : 				pCtrl->AddItToGlobalId();
; 944  : 				gfi.objId = pCtrl->GetId();
; 945  : 				pWorld->ADDOBJ( pCtrl, FALSE, static_cast<int>( m_dwGuildId ) );
; 946  : 			}
; 947  : 		}
; 948  : 	}
; 949  : #endif // __WORLDSERVER
; 950  : 	m_vecFntInfo[nIndex] = gfi;

  00058	b9 09 00 00 00	 mov	 ecx, 9
  0005d	f3 a5		 rep movsd
  0005f	5f		 pop	 edi

; 951  : 	return TRUE;	

  00060	b8 01 00 00 00	 mov	 eax, 1
  00065	5e		 pop	 esi

; 952  : }

  00066	c2 08 00	 ret	 8
$L192446:
  00069	5f		 pop	 edi

; 923  : 	if( (int)( m_vecFntInfo.size() ) <= nIndex || m_vecFntInfo[nIndex].dwItemId != gfi.dwItemId )	return FALSE;

  0006a	33 c0		 xor	 eax, eax
  0006c	5e		 pop	 esi

; 952  : }

  0006d	c2 08 00	 ret	 8
?ResetFurnitureCtrl@CGuildHouseBase@@AAEHHAAUGuildHouse_Furniture_Info@1@@Z ENDP ; CGuildHouseBase::ResetFurnitureCtrl
_TEXT	ENDS
PUBLIC	?ExpiredGuildHouse@CGuildHouseBase@@QAEHXZ	; CGuildHouseBase::ExpiredGuildHouse
; Function compile flags: /Ogty
;	COMDAT ?ExpiredGuildHouse@CGuildHouseBase@@QAEHXZ
_TEXT	SEGMENT
?ExpiredGuildHouse@CGuildHouseBase@@QAEHXZ PROC NEAR	; CGuildHouseBase::ExpiredGuildHouse, COMDAT
; _this$ = ecx

; 955  : {

  00000	53		 push	 ebx
  00001	56		 push	 esi
  00002	57		 push	 edi

; 956  : 	for( int i=0; i<(int)( m_vecFntInfo.size() ); i++ )

  00003	33 db		 xor	 ebx, ebx
  00005	8b f1		 mov	 esi, ecx
  00007	33 ff		 xor	 edi, edi
  00009	8d a4 24 00 00
	00 00		 npad	 7
$L192455:
  00010	8b 46 10	 mov	 eax, DWORD PTR [esi+16]
  00013	85 c0		 test	 eax, eax
  00015	74 16		 je	 SHORT $L196214
$L196213:
  00017	8b 4e 14	 mov	 ecx, DWORD PTR [esi+20]
  0001a	2b c8		 sub	 ecx, eax
  0001c	b8 39 8e e3 38	 mov	 eax, 954437177		; 38e38e39H
  00021	f7 e9		 imul	 ecx
  00023	c1 fa 03	 sar	 edx, 3
  00026	8b c2		 mov	 eax, edx
  00028	c1 e8 1f	 shr	 eax, 31			; 0000001fH
  0002b	03 c2		 add	 eax, edx
$L196214:
  0002d	3b d8		 cmp	 ebx, eax
  0002f	7d 34		 jge	 SHORT $L196437

; 957  : 	{
; 958  : 		if( m_vecFntInfo[i].bSetup )

  00031	8b 46 10	 mov	 eax, DWORD PTR [esi+16]
  00034	8b 4c 38 04	 mov	 ecx, DWORD PTR [eax+edi+4]
  00038	03 c7		 add	 eax, edi
  0003a	85 c9		 test	 ecx, ecx
  0003c	74 21		 je	 SHORT $L192456

; 959  : 		{
; 960  : 			RemoveFurnitureCtrl( i, m_vecFntInfo[i] );

  0003e	50		 push	 eax
  0003f	53		 push	 ebx
  00040	8b ce		 mov	 ecx, esi
  00042	e8 00 00 00 00	 call	 ?RemoveFurnitureCtrl@CGuildHouseBase@@AAEHHAAUGuildHouse_Furniture_Info@1@@Z ; CGuildHouseBase::RemoveFurnitureCtrl

; 961  : 			m_vecFntInfo[i].bSetup = FALSE;

  00047	8b 46 10	 mov	 eax, DWORD PTR [esi+16]
  0004a	03 c7		 add	 eax, edi
  0004c	c7 40 04 00 00
	00 00		 mov	 DWORD PTR [eax+4], 0

; 962  : 			m_vecFntInfo[i].objId = NULL_ID;

  00053	8b 46 10	 mov	 eax, DWORD PTR [esi+16]
  00056	03 c7		 add	 eax, edi
  00058	c7 40 18 ff ff
	ff ff		 mov	 DWORD PTR [eax+24], -1
$L192456:
  0005f	43		 inc	 ebx
  00060	83 c7 24	 add	 edi, 36			; 00000024H
  00063	eb ab		 jmp	 SHORT $L192455
$L196437:
  00065	5f		 pop	 edi

; 963  : 		}
; 964  : 	}
; 965  : 	m_tUpkeepTime = 0;

  00066	c7 46 1c 00 00
	00 00		 mov	 DWORD PTR [esi+28], 0
  0006d	5e		 pop	 esi

; 966  : #ifdef __WORLDSERVER
; 967  : 	DestroyGuildHouseRoom();
; 968  : #endif // __WORLDSERVER
; 969  : 	return TRUE;

  0006e	b8 01 00 00 00	 mov	 eax, 1
  00073	5b		 pop	 ebx

; 970  : }

  00074	c3		 ret	 0
?ExpiredGuildHouse@CGuildHouseBase@@QAEHXZ ENDP		; CGuildHouseBase::ExpiredGuildHouse
_TEXT	ENDS
PUBLIC	?clear@?$_Tree@V?$_Tmap_traits@KPAVCGuildHouseBase@@U?$less@K@std@@V?$allocator@U?$pair@$$CBKPAVCGuildHouseBase@@@std@@@3@$0A@@std@@@std@@QAEXXZ ; std::_Tree<std::_Tmap_traits<unsigned long,CGuildHouseBase *,std::less<unsigned long>,std::allocator<std::pair<unsigned long const ,CGuildHouseBase *> >,0> >::clear
; Function compile flags: /Ogty
; File c:\program files\microsoft visual studio .net 2003\vc7\include\xtree
;	COMDAT ?clear@?$_Tree@V?$_Tmap_traits@KPAVCGuildHouseBase@@U?$less@K@std@@V?$allocator@U?$pair@$$CBKPAVCGuildHouseBase@@@std@@@3@$0A@@std@@@std@@QAEXXZ
_TEXT	SEGMENT
?clear@?$_Tree@V?$_Tmap_traits@KPAVCGuildHouseBase@@U?$less@K@std@@V?$allocator@U?$pair@$$CBKPAVCGuildHouseBase@@@std@@@3@$0A@@std@@@std@@QAEXXZ PROC NEAR ; std::_Tree<std::_Tmap_traits<unsigned long,CGuildHouseBase *,std::less<unsigned long>,std::allocator<std::pair<unsigned long const ,CGuildHouseBase *> >,0> >::clear, COMDAT
; _this$ = ecx

; 780  : 		{	// erase all

  00000	56		 push	 esi
  00001	8b f1		 mov	 esi, ecx

; 781  : 		_Erase(_Root());

  00003	8b 46 04	 mov	 eax, DWORD PTR [esi+4]
  00006	8b 48 04	 mov	 ecx, DWORD PTR [eax+4]
  00009	51		 push	 ecx
  0000a	8b ce		 mov	 ecx, esi
  0000c	e8 00 00 00 00	 call	 ?_Erase@?$_Tree@V?$_Tmap_traits@KPAVCGuildHouseBase@@U?$less@K@std@@V?$allocator@U?$pair@$$CBKPAVCGuildHouseBase@@@std@@@3@$0A@@std@@@std@@IAEXPAU_Node@?$_Tree_nod@V?$_Tmap_traits@KPAVCGuildHouseBase@@U?$less@K@std@@V?$allocator@U?$pair@$$CBKPAVCGuildHouseBase@@@std@@@3@$0A@@std@@@2@@Z ; std::_Tree<std::_Tmap_traits<unsigned long,CGuildHouseBase *,std::less<unsigned long>,std::allocator<std::pair<unsigned long const ,CGuildHouseBase *> >,0> >::_Erase

; 782  : 		_Root() = _Myhead, _Mysize = 0;

  00011	8b 46 04	 mov	 eax, DWORD PTR [esi+4]
  00014	89 40 04	 mov	 DWORD PTR [eax+4], eax

; 783  : 		_Lmost() = _Myhead, _Rmost() = _Myhead;

  00017	8b 46 04	 mov	 eax, DWORD PTR [esi+4]
  0001a	c7 46 08 00 00
	00 00		 mov	 DWORD PTR [esi+8], 0
  00021	89 00		 mov	 DWORD PTR [eax], eax
  00023	8b 76 04	 mov	 esi, DWORD PTR [esi+4]
  00026	89 76 08	 mov	 DWORD PTR [esi+8], esi
  00029	5e		 pop	 esi

; 784  : 		}

  0002a	c3		 ret	 0
?clear@?$_Tree@V?$_Tmap_traits@KPAVCGuildHouseBase@@U?$less@K@std@@V?$allocator@U?$pair@$$CBKPAVCGuildHouseBase@@@std@@@3@$0A@@std@@@std@@QAEXXZ ENDP ; std::_Tree<std::_Tmap_traits<unsigned long,CGuildHouseBase *,std::less<unsigned long>,std::allocator<std::pair<unsigned long const ,CGuildHouseBase *> >,0> >::clear
_TEXT	ENDS
PUBLIC	?find@?$_Tree@V?$_Tmap_traits@KPAVCGuildHouseBase@@U?$less@K@std@@V?$allocator@U?$pair@$$CBKPAVCGuildHouseBase@@@std@@@3@$0A@@std@@@std@@QAE?AViterator@12@ABK@Z ; std::_Tree<std::_Tmap_traits<unsigned long,CGuildHouseBase *,std::less<unsigned long>,std::allocator<std::pair<unsigned long const ,CGuildHouseBase *> >,0> >::find
; Function compile flags: /Ogty
;	COMDAT ?find@?$_Tree@V?$_Tmap_traits@KPAVCGuildHouseBase@@U?$less@K@std@@V?$allocator@U?$pair@$$CBKPAVCGuildHouseBase@@@std@@@3@$0A@@std@@@std@@QAE?AViterator@12@ABK@Z
_TEXT	SEGMENT
$T196478 = -4						; size = 4
___$ReturnUdt$ = 8					; size = 4
__Where$ = 12						; size = 4
__Keyval$ = 12						; size = 4
?find@?$_Tree@V?$_Tmap_traits@KPAVCGuildHouseBase@@U?$less@K@std@@V?$allocator@U?$pair@$$CBKPAVCGuildHouseBase@@@std@@@3@$0A@@std@@@std@@QAE?AViterator@12@ABK@Z PROC NEAR ; std::_Tree<std::_Tmap_traits<unsigned long,CGuildHouseBase *,std::less<unsigned long>,std::allocator<std::pair<unsigned long const ,CGuildHouseBase *> >,0> >::find, COMDAT
; _this$ = ecx

; 787  : 		{	// find an element in mutable sequence that matches _Keyval

  00000	51		 push	 ecx

; 788  : 		iterator _Where = lower_bound(_Keyval);

  00001	8b 51 04	 mov	 edx, DWORD PTR [ecx+4]
  00004	8b 42 04	 mov	 eax, DWORD PTR [edx+4]
  00007	53		 push	 ebx
  00008	8a 58 15	 mov	 bl, BYTE PTR [eax+21]
  0000b	84 db		 test	 bl, bl
  0000d	56		 push	 esi
  0000e	57		 push	 edi
  0000f	8b 7c 24 18	 mov	 edi, DWORD PTR __Keyval$[esp+12]
  00013	75 17		 jne	 SHORT $L196555
  00015	8b 37		 mov	 esi, DWORD PTR [edi]
$L196554:
  00017	39 70 0c	 cmp	 DWORD PTR [eax+12], esi
  0001a	73 05		 jae	 SHORT $L196556
  0001c	8b 40 08	 mov	 eax, DWORD PTR [eax+8]
  0001f	eb 04		 jmp	 SHORT $L196557
$L196556:
  00021	8b d0		 mov	 edx, eax
  00023	8b 00		 mov	 eax, DWORD PTR [eax]
$L196557:
  00025	8a 58 15	 mov	 bl, BYTE PTR [eax+21]
  00028	84 db		 test	 bl, bl
  0002a	74 eb		 je	 SHORT $L196554
$L196555:

; 789  : 		return (_Where == end() || this->comp(_Keyval, _Key(_Where._Mynode()))
; 790  : 			? end() : _Where);

  0002c	8b 41 04	 mov	 eax, DWORD PTR [ecx+4]
  0002f	3b d0		 cmp	 edx, eax
  00031	89 54 24 18	 mov	 DWORD PTR __Where$[esp+12], edx
  00035	74 1a		 je	 SHORT $L196477
  00037	8b 0f		 mov	 ecx, DWORD PTR [edi]
  00039	3b 4a 0c	 cmp	 ecx, DWORD PTR [edx+12]
  0003c	72 13		 jb	 SHORT $L196477
  0003e	8d 44 24 18	 lea	 eax, DWORD PTR __Where$[esp+12]
  00042	8b 10		 mov	 edx, DWORD PTR [eax]
  00044	8b 44 24 14	 mov	 eax, DWORD PTR ___$ReturnUdt$[esp+12]
  00048	5f		 pop	 edi
  00049	5e		 pop	 esi
  0004a	89 10		 mov	 DWORD PTR [eax], edx
  0004c	5b		 pop	 ebx

; 791  : 		}

  0004d	59		 pop	 ecx
  0004e	c2 08 00	 ret	 8
$L196477:

; 789  : 		return (_Where == end() || this->comp(_Keyval, _Key(_Where._Mynode()))
; 790  : 			? end() : _Where);

  00051	89 44 24 0c	 mov	 DWORD PTR $T196478[esp+16], eax
  00055	8d 44 24 0c	 lea	 eax, DWORD PTR $T196478[esp+16]
  00059	8b 10		 mov	 edx, DWORD PTR [eax]
  0005b	8b 44 24 14	 mov	 eax, DWORD PTR ___$ReturnUdt$[esp+12]
  0005f	5f		 pop	 edi
  00060	5e		 pop	 esi
  00061	89 10		 mov	 DWORD PTR [eax], edx
  00063	5b		 pop	 ebx

; 791  : 		}

  00064	59		 pop	 ecx
  00065	c2 08 00	 ret	 8
?find@?$_Tree@V?$_Tmap_traits@KPAVCGuildHouseBase@@U?$less@K@std@@V?$allocator@U?$pair@$$CBKPAVCGuildHouseBase@@@std@@@3@$0A@@std@@@std@@QAE?AViterator@12@ABK@Z ENDP ; std::_Tree<std::_Tmap_traits<unsigned long,CGuildHouseBase *,std::less<unsigned long>,std::allocator<std::pair<unsigned long const ,CGuildHouseBase *> >,0> >::find
_TEXT	ENDS
PUBLIC	??Eiterator@?$_Tree@V?$_Tmap_traits@KPAVCGuildHouseBase@@U?$less@K@std@@V?$allocator@U?$pair@$$CBKPAVCGuildHouseBase@@@std@@@3@$0A@@std@@@std@@QAE?AV012@H@Z ; std::_Tree<std::_Tmap_traits<unsigned long,CGuildHouseBase *,std::less<unsigned long>,std::allocator<std::pair<unsigned long const ,CGuildHouseBase *> >,0> >::iterator::operator++
; Function compile flags: /Ogty
;	COMDAT ??Eiterator@?$_Tree@V?$_Tmap_traits@KPAVCGuildHouseBase@@U?$less@K@std@@V?$allocator@U?$pair@$$CBKPAVCGuildHouseBase@@@std@@@3@$0A@@std@@@std@@QAE?AV012@H@Z
_TEXT	SEGMENT
___$ReturnUdt$ = 8					; size = 4
___formal$ = 12						; size = 4
??Eiterator@?$_Tree@V?$_Tmap_traits@KPAVCGuildHouseBase@@U?$less@K@std@@V?$allocator@U?$pair@$$CBKPAVCGuildHouseBase@@@std@@@3@$0A@@std@@@std@@QAE?AV012@H@Z PROC NEAR ; std::_Tree<std::_Tmap_traits<unsigned long,CGuildHouseBase *,std::less<unsigned long>,std::allocator<std::pair<unsigned long const ,CGuildHouseBase *> >,0> >::iterator::operator++, COMDAT
; _this$ = ecx

; 332  : 			{	// postincrement

  00000	56		 push	 esi

; 333  : 			iterator _Tmp = *this;

  00001	8b 31		 mov	 esi, DWORD PTR [ecx]

; 334  : 			++*this;

  00003	e8 00 00 00 00	 call	 ?_Inc@const_iterator@?$_Tree@V?$_Tmap_traits@KPAVCGuildHouseBase@@U?$less@K@std@@V?$allocator@U?$pair@$$CBKPAVCGuildHouseBase@@@std@@@3@$0A@@std@@@std@@QAEXXZ ; std::_Tree<std::_Tmap_traits<unsigned long,CGuildHouseBase *,std::less<unsigned long>,std::allocator<std::pair<unsigned long const ,CGuildHouseBase *> >,0> >::const_iterator::_Inc

; 335  : 			return (_Tmp);

  00008	8b 44 24 08	 mov	 eax, DWORD PTR ___$ReturnUdt$[esp]
  0000c	89 30		 mov	 DWORD PTR [eax], esi
  0000e	5e		 pop	 esi

; 336  : 			}

  0000f	c2 08 00	 ret	 8
??Eiterator@?$_Tree@V?$_Tmap_traits@KPAVCGuildHouseBase@@U?$less@K@std@@V?$allocator@U?$pair@$$CBKPAVCGuildHouseBase@@@std@@@3@$0A@@std@@@std@@QAE?AV012@H@Z ENDP ; std::_Tree<std::_Tmap_traits<unsigned long,CGuildHouseBase *,std::less<unsigned long>,std::allocator<std::pair<unsigned long const ,CGuildHouseBase *> >,0> >::iterator::operator++
_TEXT	ENDS
PUBLIC	?_Init@?$_Tree@V?$_Tmap_traits@KPAVCGuildHouseBase@@U?$less@K@std@@V?$allocator@U?$pair@$$CBKPAVCGuildHouseBase@@@std@@@3@$0A@@std@@@std@@IAEXXZ ; std::_Tree<std::_Tmap_traits<unsigned long,CGuildHouseBase *,std::less<unsigned long>,std::allocator<std::pair<unsigned long const ,CGuildHouseBase *> >,0> >::_Init
; Function compile flags: /Ogty
;	COMDAT ?_Init@?$_Tree@V?$_Tmap_traits@KPAVCGuildHouseBase@@U?$less@K@std@@V?$allocator@U?$pair@$$CBKPAVCGuildHouseBase@@@std@@@3@$0A@@std@@@std@@IAEXXZ
_TEXT	SEGMENT
?_Init@?$_Tree@V?$_Tmap_traits@KPAVCGuildHouseBase@@U?$less@K@std@@V?$allocator@U?$pair@$$CBKPAVCGuildHouseBase@@@std@@@3@$0A@@std@@@std@@IAEXXZ PROC NEAR ; std::_Tree<std::_Tmap_traits<unsigned long,CGuildHouseBase *,std::less<unsigned long>,std::allocator<std::pair<unsigned long const ,CGuildHouseBase *> >,0> >::_Init, COMDAT
; _this$ = ecx

; 901  : 		{	// create head/nil node and make tree empty

  00000	56		 push	 esi
  00001	8b f1		 mov	 esi, ecx

; 902  : 		_Myhead = _Buynode();

  00003	e8 00 00 00 00	 call	 ?_Buynode@?$_Tree@V?$_Tmap_traits@KPAVCGuildHouseBase@@U?$less@K@std@@V?$allocator@U?$pair@$$CBKPAVCGuildHouseBase@@@std@@@3@$0A@@std@@@std@@IAEPAU_Node@?$_Tree_nod@V?$_Tmap_traits@KPAVCGuildHouseBase@@U?$less@K@std@@V?$allocator@U?$pair@$$CBKPAVCGuildHouseBase@@@std@@@3@$0A@@std@@@2@XZ ; std::_Tree<std::_Tmap_traits<unsigned long,CGuildHouseBase *,std::less<unsigned long>,std::allocator<std::pair<unsigned long const ,CGuildHouseBase *> >,0> >::_Buynode
  00008	89 46 04	 mov	 DWORD PTR [esi+4], eax

; 903  : 		_Isnil(_Myhead) = true;

  0000b	c6 40 15 01	 mov	 BYTE PTR [eax+21], 1

; 904  : 		_Root() = _Myhead;

  0000f	8b 46 04	 mov	 eax, DWORD PTR [esi+4]
  00012	89 40 04	 mov	 DWORD PTR [eax+4], eax

; 905  : 		_Lmost() = _Myhead, _Rmost() = _Myhead;

  00015	8b 46 04	 mov	 eax, DWORD PTR [esi+4]
  00018	89 00		 mov	 DWORD PTR [eax], eax
  0001a	8b 46 04	 mov	 eax, DWORD PTR [esi+4]
  0001d	89 40 08	 mov	 DWORD PTR [eax+8], eax

; 906  : 		_Mysize = 0;

  00020	c7 46 08 00 00
	00 00		 mov	 DWORD PTR [esi+8], 0
  00027	5e		 pop	 esi

; 907  : 		}

  00028	c3		 ret	 0
?_Init@?$_Tree@V?$_Tmap_traits@KPAVCGuildHouseBase@@U?$less@K@std@@V?$allocator@U?$pair@$$CBKPAVCGuildHouseBase@@@std@@@3@$0A@@std@@@std@@IAEXXZ ENDP ; std::_Tree<std::_Tmap_traits<unsigned long,CGuildHouseBase *,std::less<unsigned long>,std::allocator<std::pair<unsigned long const ,CGuildHouseBase *> >,0> >::_Init
_TEXT	ENDS
PUBLIC	??0?$_Tree_val@V?$_Tmap_traits@KPAVCGuildHouseBase@@U?$less@K@std@@V?$allocator@U?$pair@$$CBKPAVCGuildHouseBase@@@std@@@3@$0A@@std@@@std@@IAE@ABU?$less@K@1@V?$allocator@U?$pair@$$CBKPAVCGuildHouseBase@@@std@@@1@@Z ; std::_Tree_val<std::_Tmap_traits<unsigned long,CGuildHouseBase *,std::less<unsigned long>,std::allocator<std::pair<unsigned long const ,CGuildHouseBase *> >,0> >::_Tree_val<std::_Tmap_traits<unsigned long,CGuildHouseBase *,std::less<unsigned long>,std::allocator<std::pair<unsigned long const ,CGuildHouseBase *> >,0> >
; Function compile flags: /Ogty
;	COMDAT ??0?$_Tree_val@V?$_Tmap_traits@KPAVCGuildHouseBase@@U?$less@K@std@@V?$allocator@U?$pair@$$CBKPAVCGuildHouseBase@@@std@@@3@$0A@@std@@@std@@IAE@ABU?$less@K@1@V?$allocator@U?$pair@$$CBKPAVCGuildHouseBase@@@std@@@1@@Z
_TEXT	SEGMENT
__Parg$ = 8						; size = 4
__Al$ = 12						; size = 1
??0?$_Tree_val@V?$_Tmap_traits@KPAVCGuildHouseBase@@U?$less@K@std@@V?$allocator@U?$pair@$$CBKPAVCGuildHouseBase@@@std@@@3@$0A@@std@@@std@@IAE@ABU?$less@K@1@V?$allocator@U?$pair@$$CBKPAVCGuildHouseBase@@@std@@@1@@Z PROC NEAR ; std::_Tree_val<std::_Tmap_traits<unsigned long,CGuildHouseBase *,std::less<unsigned long>,std::allocator<std::pair<unsigned long const ,CGuildHouseBase *> >,0> >::_Tree_val<std::_Tmap_traits<unsigned long,CGuildHouseBase *,std::less<unsigned long>,std::allocator<std::pair<unsigned long const ,CGuildHouseBase *> >,0> >, COMDAT
; _this$ = ecx

; 95   : 		{	// construct base, and allocator from _Al

  00000	8b c1		 mov	 eax, ecx

; 96   : 		}

  00002	c2 08 00	 ret	 8
??0?$_Tree_val@V?$_Tmap_traits@KPAVCGuildHouseBase@@U?$less@K@std@@V?$allocator@U?$pair@$$CBKPAVCGuildHouseBase@@@std@@@3@$0A@@std@@@std@@IAE@ABU?$less@K@1@V?$allocator@U?$pair@$$CBKPAVCGuildHouseBase@@@std@@@1@@Z ENDP ; std::_Tree_val<std::_Tmap_traits<unsigned long,CGuildHouseBase *,std::less<unsigned long>,std::allocator<std::pair<unsigned long const ,CGuildHouseBase *> >,0> >::_Tree_val<std::_Tmap_traits<unsigned long,CGuildHouseBase *,std::less<unsigned long>,std::allocator<std::pair<unsigned long const ,CGuildHouseBase *> >,0> >
_TEXT	ENDS
PUBLIC	??$_Destroy_range@UGuildHouse_Furniture_Info@CGuildHouseBase@@V?$allocator@UGuildHouse_Furniture_Info@CGuildHouseBase@@@std@@@std@@YAXPAUGuildHouse_Furniture_Info@CGuildHouseBase@@0AAV?$allocator@UGuildHouse_Furniture_Info@CGuildHouseBase@@@0@@Z ; std::_Destroy_range<CGuildHouseBase::GuildHouse_Furniture_Info,std::allocator<CGuildHouseBase::GuildHouse_Furniture_Info> >
; Function compile flags: /Ogty
; File c:\program files\microsoft visual studio .net 2003\vc7\include\xmemory
;	COMDAT ??$_Destroy_range@UGuildHouse_Furniture_Info@CGuildHouseBase@@V?$allocator@UGuildHouse_Furniture_Info@CGuildHouseBase@@@std@@@std@@YAXPAUGuildHouse_Furniture_Info@CGuildHouseBase@@0AAV?$allocator@UGuildHouse_Furniture_Info@CGuildHouseBase@@@0@@Z
_TEXT	SEGMENT
__First$ = 8						; size = 4
__Last$ = 12						; size = 4
__Al$ = 16						; size = 4
??$_Destroy_range@UGuildHouse_Furniture_Info@CGuildHouseBase@@V?$allocator@UGuildHouse_Furniture_Info@CGuildHouseBase@@@std@@@std@@YAXPAUGuildHouse_Furniture_Info@CGuildHouseBase@@0AAV?$allocator@UGuildHouse_Furniture_Info@CGuildHouseBase@@@0@@Z PROC NEAR ; std::_Destroy_range<CGuildHouseBase::GuildHouse_Furniture_Info,std::allocator<CGuildHouseBase::GuildHouse_Furniture_Info> >, COMDAT

; 217  : 	_Destroy_range(_First, _Last, _Al, _Ptr_cat(_First, _Last));
; 218  : 	}

  00000	c3		 ret	 0
??$_Destroy_range@UGuildHouse_Furniture_Info@CGuildHouseBase@@V?$allocator@UGuildHouse_Furniture_Info@CGuildHouseBase@@@std@@@std@@YAXPAUGuildHouse_Furniture_Info@CGuildHouseBase@@0AAV?$allocator@UGuildHouse_Furniture_Info@CGuildHouseBase@@@0@@Z ENDP ; std::_Destroy_range<CGuildHouseBase::GuildHouse_Furniture_Info,std::allocator<CGuildHouseBase::GuildHouse_Furniture_Info> >
_TEXT	ENDS
PUBLIC	??$_Uninitialized_fill_n@PAUGuildHouse_Furniture_Info@CGuildHouseBase@@IU12@V?$allocator@UGuildHouse_Furniture_Info@CGuildHouseBase@@@std@@@std@@YAXPAUGuildHouse_Furniture_Info@CGuildHouseBase@@IABU12@AAV?$allocator@UGuildHouse_Furniture_Info@CGuildHouseBase@@@0@@Z ; std::_Uninitialized_fill_n<CGuildHouseBase::GuildHouse_Furniture_Info *,unsigned int,CGuildHouseBase::GuildHouse_Furniture_Info,std::allocator<CGuildHouseBase::GuildHouse_Furniture_Info> >
; Function compile flags: /Ogty
; File c:\program files\microsoft visual studio .net 2003\vc7\include\memory
;	COMDAT ??$_Uninitialized_fill_n@PAUGuildHouse_Furniture_Info@CGuildHouseBase@@IU12@V?$allocator@UGuildHouse_Furniture_Info@CGuildHouseBase@@@std@@@std@@YAXPAUGuildHouse_Furniture_Info@CGuildHouseBase@@IABU12@AAV?$allocator@UGuildHouse_Furniture_Info@CGuildHouseBase@@@0@@Z
_TEXT	SEGMENT
__Cat$196736 = -4					; size = 1
__First$ = 8						; size = 4
__Count$ = 12						; size = 4
__Val$ = 16						; size = 4
__Al$ = 20						; size = 4
??$_Uninitialized_fill_n@PAUGuildHouse_Furniture_Info@CGuildHouseBase@@IU12@V?$allocator@UGuildHouse_Furniture_Info@CGuildHouseBase@@@std@@@std@@YAXPAUGuildHouse_Furniture_Info@CGuildHouseBase@@IABU12@AAV?$allocator@UGuildHouse_Furniture_Info@CGuildHouseBase@@@0@@Z PROC NEAR ; std::_Uninitialized_fill_n<CGuildHouseBase::GuildHouse_Furniture_Info *,unsigned int,CGuildHouseBase::GuildHouse_Furniture_Info,std::allocator<CGuildHouseBase::GuildHouse_Furniture_Info> >, COMDAT

; 255  : 	{	// copy _Count *_Val to raw _First, using _Al

  00000	51		 push	 ecx

; 256  : 	_Uninit_fill_n(_First, _Count, _Val, _Al,
; 257  : 		_Ptr_cat(_First, _First));

  00001	8b 04 24	 mov	 eax, DWORD PTR __Cat$196736[esp+4]
  00004	8b 4c 24 14	 mov	 ecx, DWORD PTR __Al$[esp]
  00008	8b 54 24 10	 mov	 edx, DWORD PTR __Val$[esp]
  0000c	50		 push	 eax
  0000d	8b 44 24 10	 mov	 eax, DWORD PTR __Count$[esp+4]
  00011	51		 push	 ecx
  00012	8b 4c 24 10	 mov	 ecx, DWORD PTR __First$[esp+8]
  00016	52		 push	 edx
  00017	50		 push	 eax
  00018	51		 push	 ecx
  00019	e8 00 00 00 00	 call	 ??$_Uninit_fill_n@PAUGuildHouse_Furniture_Info@CGuildHouseBase@@IU12@V?$allocator@UGuildHouse_Furniture_Info@CGuildHouseBase@@@std@@@std@@YAXPAUGuildHouse_Furniture_Info@CGuildHouseBase@@IABU12@AAV?$allocator@UGuildHouse_Furniture_Info@CGuildHouseBase@@@0@U_Nonscalar_ptr_iterator_tag@0@@Z ; std::_Uninit_fill_n<CGuildHouseBase::GuildHouse_Furniture_Info *,unsigned int,CGuildHouseBase::GuildHouse_Furniture_Info,std::allocator<CGuildHouseBase::GuildHouse_Furniture_Info> >

; 258  : 	}

  0001e	83 c4 18	 add	 esp, 24			; 00000018H
  00021	c3		 ret	 0
??$_Uninitialized_fill_n@PAUGuildHouse_Furniture_Info@CGuildHouseBase@@IU12@V?$allocator@UGuildHouse_Furniture_Info@CGuildHouseBase@@@std@@@std@@YAXPAUGuildHouse_Furniture_Info@CGuildHouseBase@@IABU12@AAV?$allocator@UGuildHouse_Furniture_Info@CGuildHouseBase@@@0@@Z ENDP ; std::_Uninitialized_fill_n<CGuildHouseBase::GuildHouse_Furniture_Info *,unsigned int,CGuildHouseBase::GuildHouse_Furniture_Info,std::allocator<CGuildHouseBase::GuildHouse_Furniture_Info> >
_TEXT	ENDS
PUBLIC	??$_Ucopy@PAUGuildHouse_Furniture_Info@CGuildHouseBase@@@?$vector@UGuildHouse_Furniture_Info@CGuildHouseBase@@V?$allocator@UGuildHouse_Furniture_Info@CGuildHouseBase@@@std@@@std@@IAEPAUGuildHouse_Furniture_Info@CGuildHouseBase@@PAU23@00@Z ; std::vector<CGuildHouseBase::GuildHouse_Furniture_Info,std::allocator<CGuildHouseBase::GuildHouse_Furniture_Info> >::_Ucopy<CGuildHouseBase::GuildHouse_Furniture_Info *>
; Function compile flags: /Ogty
; File c:\program files\microsoft visual studio .net 2003\vc7\include\vector
;	COMDAT ??$_Ucopy@PAUGuildHouse_Furniture_Info@CGuildHouseBase@@@?$vector@UGuildHouse_Furniture_Info@CGuildHouseBase@@V?$allocator@UGuildHouse_Furniture_Info@CGuildHouseBase@@@std@@@std@@IAEPAUGuildHouse_Furniture_Info@CGuildHouseBase@@PAU23@00@Z
_TEXT	SEGMENT
__First$ = 8						; size = 4
__Last$ = 12						; size = 4
__Cat$196750 = 16					; size = 1
__Ptr$ = 16						; size = 4
??$_Ucopy@PAUGuildHouse_Furniture_Info@CGuildHouseBase@@@?$vector@UGuildHouse_Furniture_Info@CGuildHouseBase@@V?$allocator@UGuildHouse_Furniture_Info@CGuildHouseBase@@@std@@@std@@IAEPAUGuildHouse_Furniture_Info@CGuildHouseBase@@PAU23@00@Z PROC NEAR ; std::vector<CGuildHouseBase::GuildHouse_Furniture_Info,std::allocator<CGuildHouseBase::GuildHouse_Furniture_Info> >::_Ucopy<CGuildHouseBase::GuildHouse_Furniture_Info *>, COMDAT
; _this$ = ecx

; 802  : 		{	// copy initializing [_First, _Last), using allocator
; 803  : 		return (_Uninitialized_copy(_First, _Last,
; 804  : 			_Ptr, this->_Alval));

  00000	8b 44 24 0c	 mov	 eax, DWORD PTR __Cat$196750[esp-4]
  00004	8b 54 24 08	 mov	 edx, DWORD PTR __Last$[esp-4]
  00008	50		 push	 eax
  00009	8b 44 24 08	 mov	 eax, DWORD PTR __First$[esp]
  0000d	51		 push	 ecx
  0000e	8b 4c 24 14	 mov	 ecx, DWORD PTR __Ptr$[esp+4]
  00012	51		 push	 ecx
  00013	52		 push	 edx
  00014	50		 push	 eax
  00015	e8 00 00 00 00	 call	 ??$_Uninit_copy@PAUGuildHouse_Furniture_Info@CGuildHouseBase@@PAU12@V?$allocator@UGuildHouse_Furniture_Info@CGuildHouseBase@@@std@@@std@@YAPAUGuildHouse_Furniture_Info@CGuildHouseBase@@PAU12@00AAV?$allocator@UGuildHouse_Furniture_Info@CGuildHouseBase@@@0@U_Nonscalar_ptr_iterator_tag@0@@Z ; std::_Uninit_copy<CGuildHouseBase::GuildHouse_Furniture_Info *,CGuildHouseBase::GuildHouse_Furniture_Info *,std::allocator<CGuildHouseBase::GuildHouse_Furniture_Info> >
  0001a	83 c4 14	 add	 esp, 20			; 00000014H

; 805  : 		}

  0001d	c2 0c 00	 ret	 12			; 0000000cH
??$_Ucopy@PAUGuildHouse_Furniture_Info@CGuildHouseBase@@@?$vector@UGuildHouse_Furniture_Info@CGuildHouseBase@@V?$allocator@UGuildHouse_Furniture_Info@CGuildHouseBase@@@std@@@std@@IAEPAUGuildHouse_Furniture_Info@CGuildHouseBase@@PAU23@00@Z ENDP ; std::vector<CGuildHouseBase::GuildHouse_Furniture_Info,std::allocator<CGuildHouseBase::GuildHouse_Furniture_Info> >::_Ucopy<CGuildHouseBase::GuildHouse_Furniture_Info *>
_TEXT	ENDS
PUBLIC	??1?$basic_string@DU?$char_traits@D@std@@V?$allocator@D@2@@std@@QAE@XZ ; std::basic_string<char,std::char_traits<char>,std::allocator<char> >::~basic_string<char,std::char_traits<char>,std::allocator<char> >
; Function compile flags: /Ogty
; File c:\program files\microsoft visual studio .net 2003\vc7\include\xstring
;	COMDAT ??1?$basic_string@DU?$char_traits@D@std@@V?$allocator@D@2@@std@@QAE@XZ
_TEXT	SEGMENT
??1?$basic_string@DU?$char_traits@D@std@@V?$allocator@D@2@@std@@QAE@XZ PROC NEAR ; std::basic_string<char,std::char_traits<char>,std::allocator<char> >::~basic_string<char,std::char_traits<char>,std::allocator<char> >, COMDAT
; _this$ = ecx

; 456  : 		{	// destroy the string

  00000	56		 push	 esi
  00001	8b f1		 mov	 esi, ecx

; 457  : 		_Tidy(true);

  00003	83 7e 18 10	 cmp	 DWORD PTR [esi+24], 16	; 00000010H
  00007	72 0c		 jb	 SHORT $L196795
  00009	8b 46 04	 mov	 eax, DWORD PTR [esi+4]
  0000c	50		 push	 eax
  0000d	e8 00 00 00 00	 call	 ??3@YAXPAX@Z		; operator delete
  00012	83 c4 04	 add	 esp, 4
$L196795:
  00015	33 c0		 xor	 eax, eax
  00017	c7 46 18 0f 00
	00 00		 mov	 DWORD PTR [esi+24], 15	; 0000000fH
  0001e	89 46 14	 mov	 DWORD PTR [esi+20], eax
  00021	88 46 04	 mov	 BYTE PTR [esi+4], al
  00024	5e		 pop	 esi

; 458  : 		}

  00025	c3		 ret	 0
??1?$basic_string@DU?$char_traits@D@std@@V?$allocator@D@2@@std@@QAE@XZ ENDP ; std::basic_string<char,std::char_traits<char>,std::allocator<char> >::~basic_string<char,std::char_traits<char>,std::allocator<char> >
_TEXT	ENDS
PUBLIC	?_Grow@?$basic_string@DU?$char_traits@D@std@@V?$allocator@D@2@@std@@IAE_NI_N@Z ; std::basic_string<char,std::char_traits<char>,std::allocator<char> >::_Grow
EXTRN	?_Xlen@_String_base@std@@QBEXXZ:NEAR		; std::_String_base::_Xlen
; Function compile flags: /Ogty
;	COMDAT ?_Grow@?$basic_string@DU?$char_traits@D@std@@V?$allocator@D@2@@std@@IAE_NI_N@Z
_TEXT	SEGMENT
__Newsize$ = 8						; size = 4
__Trim$ = 12						; size = 1
?_Grow@?$basic_string@DU?$char_traits@D@std@@V?$allocator@D@2@@std@@IAE_NI_N@Z PROC NEAR ; std::basic_string<char,std::char_traits<char>,std::allocator<char> >::_Grow, COMDAT
; _this$ = ecx

; 1480 : 		{	// ensure buffer is big enough, trim to size if _Trim is true

  00000	55		 push	 ebp
  00001	56		 push	 esi

; 1481 : 		if (max_size() < _Newsize)

  00002	8b 74 24 0c	 mov	 esi, DWORD PTR __Newsize$[esp+4]
  00006	83 fe fe	 cmp	 esi, -2			; fffffffeH
  00009	8b e9		 mov	 ebp, ecx
  0000b	76 05		 jbe	 SHORT $L185002

; 1482 : 			_String_base::_Xlen();	// result too long

  0000d	e8 00 00 00 00	 call	 ?_Xlen@_String_base@std@@QBEXXZ ; std::_String_base::_Xlen
$L185002:

; 1483 : 		if (_Myres < _Newsize)

  00012	8b 45 18	 mov	 eax, DWORD PTR [ebp+24]
  00015	3b c6		 cmp	 eax, esi
  00017	73 19		 jae	 SHORT $L185003

; 1484 : 			_Copy(_Newsize, _Mysize);	// reallocate to grow

  00019	8b 45 14	 mov	 eax, DWORD PTR [ebp+20]
  0001c	50		 push	 eax
  0001d	56		 push	 esi
  0001e	8b cd		 mov	 ecx, ebp
  00020	e8 00 00 00 00	 call	 ?_Copy@?$basic_string@DU?$char_traits@D@std@@V?$allocator@D@2@@std@@IAEXII@Z ; std::basic_string<char,std::char_traits<char>,std::allocator<char> >::_Copy

; 1490 : 		return (0 < _Newsize);	// return true only if more work to do

  00025	33 c0		 xor	 eax, eax
  00027	3b c6		 cmp	 eax, esi
  00029	1b c0		 sbb	 eax, eax
  0002b	5e		 pop	 esi
  0002c	f7 d8		 neg	 eax
  0002e	5d		 pop	 ebp

; 1491 : 		}

  0002f	c2 08 00	 ret	 8
$L185003:

; 1485 : 		else if (_Trim && _Newsize < _BUF_SIZE)

  00032	8a 4c 24 10	 mov	 cl, BYTE PTR __Trim$[esp+4]
  00036	84 c9		 test	 cl, cl
  00038	74 5c		 je	 SHORT $L185005
  0003a	83 fe 10	 cmp	 esi, 16			; 00000010H
  0003d	73 57		 jae	 SHORT $L185005
  0003f	53		 push	 ebx

; 1486 : 			_Tidy(true,	// copy and deallocate if trimming to small string
; 1487 : 				_Newsize < _Mysize ? _Newsize : _Mysize);

  00040	8b 5d 14	 mov	 ebx, DWORD PTR [ebp+20]
  00043	3b f3		 cmp	 esi, ebx
  00045	73 02		 jae	 SHORT $L196808
  00047	8b de		 mov	 ebx, esi
$L196808:
  00049	83 f8 10	 cmp	 eax, 16			; 00000010H
  0004c	72 2b		 jb	 SHORT $L196869
  0004e	85 db		 test	 ebx, ebx
  00050	8b 45 04	 mov	 eax, DWORD PTR [ebp+4]
  00053	57		 push	 edi
  00054	8d 7d 04	 lea	 edi, DWORD PTR [ebp+4]
  00057	76 16		 jbe	 SHORT $L196867
  00059	8b cb		 mov	 ecx, ebx
  0005b	8b d1		 mov	 edx, ecx
  0005d	c1 e9 02	 shr	 ecx, 2
  00060	8b f0		 mov	 esi, eax
  00062	f3 a5		 rep movsd
  00064	8b ca		 mov	 ecx, edx
  00066	83 e1 03	 and	 ecx, 3
  00069	f3 a4		 rep movsb
  0006b	8b 74 24 14	 mov	 esi, DWORD PTR __Newsize$[esp+12]
$L196867:
  0006f	50		 push	 eax
  00070	e8 00 00 00 00	 call	 ??3@YAXPAX@Z		; operator delete
  00075	83 c4 04	 add	 esp, 4
  00078	5f		 pop	 edi
$L196869:
  00079	89 5d 14	 mov	 DWORD PTR [ebp+20], ebx

; 1490 : 		return (0 < _Newsize);	// return true only if more work to do

  0007c	33 c0		 xor	 eax, eax
  0007e	c7 45 18 0f 00
	00 00		 mov	 DWORD PTR [ebp+24], 15	; 0000000fH
  00085	c6 44 2b 04 00	 mov	 BYTE PTR [ebx+ebp+4], 0
  0008a	3b c6		 cmp	 eax, esi
  0008c	5b		 pop	 ebx
  0008d	1b c0		 sbb	 eax, eax
  0008f	5e		 pop	 esi
  00090	f7 d8		 neg	 eax
  00092	5d		 pop	 ebp

; 1491 : 		}

  00093	c2 08 00	 ret	 8
$L185005:

; 1488 : 		else if (_Newsize == 0)

  00096	85 f6		 test	 esi, esi
  00098	75 23		 jne	 SHORT $L196899

; 1489 : 			_Eos(0);	// new size is zero, just null terminate

  0009a	83 f8 10	 cmp	 eax, 16			; 00000010H
  0009d	89 75 14	 mov	 DWORD PTR [ebp+20], esi
  000a0	72 14		 jb	 SHORT $L196895
  000a2	8b 6d 04	 mov	 ebp, DWORD PTR [ebp+4]

; 1490 : 		return (0 < _Newsize);	// return true only if more work to do

  000a5	33 c0		 xor	 eax, eax
  000a7	3b c6		 cmp	 eax, esi
  000a9	1b c0		 sbb	 eax, eax
  000ab	5e		 pop	 esi
  000ac	c6 45 00 00	 mov	 BYTE PTR [ebp], 0
  000b0	f7 d8		 neg	 eax
  000b2	5d		 pop	 ebp

; 1491 : 		}

  000b3	c2 08 00	 ret	 8

; 1489 : 			_Eos(0);	// new size is zero, just null terminate

$L196895:
  000b6	83 c5 04	 add	 ebp, 4
  000b9	c6 45 00 00	 mov	 BYTE PTR [ebp], 0
$L196899:

; 1490 : 		return (0 < _Newsize);	// return true only if more work to do

  000bd	33 c0		 xor	 eax, eax
  000bf	3b c6		 cmp	 eax, esi
  000c1	1b c0		 sbb	 eax, eax
  000c3	5e		 pop	 esi
  000c4	f7 d8		 neg	 eax
  000c6	5d		 pop	 ebp

; 1491 : 		}

  000c7	c2 08 00	 ret	 8
?_Grow@?$basic_string@DU?$char_traits@D@std@@V?$allocator@D@2@@std@@IAE_NI_N@Z ENDP ; std::basic_string<char,std::char_traits<char>,std::allocator<char> >::_Grow
_TEXT	ENDS
PUBLIC	?GetGuildHouse@CGuildHouseMng@@QAEPAVCGuildHouseBase@@K@Z ; CGuildHouseMng::GetGuildHouse
; Function compile flags: /Ogty
; File c:\documents and settings\test\mes documents\source\virtuos_v17\build\program\_common\guildhouse.cpp
;	COMDAT ?GetGuildHouse@CGuildHouseMng@@QAEPAVCGuildHouseBase@@K@Z
_TEXT	SEGMENT
_it$ = -4						; size = 4
_dwGuildId$ = 8						; size = 4
?GetGuildHouse@CGuildHouseMng@@QAEPAVCGuildHouseBase@@K@Z PROC NEAR ; CGuildHouseMng::GetGuildHouse, COMDAT
; _this$ = ecx

; 1133 : {

  00000	51		 push	 ecx
  00001	56		 push	 esi
  00002	8b f1		 mov	 esi, ecx

; 1134 : 	MapGuildHouse::iterator it = m_mapGuildHouse.find( dwGuildId );

  00004	8d 44 24 0c	 lea	 eax, DWORD PTR _dwGuildId$[esp+4]
  00008	50		 push	 eax
  00009	8d 4c 24 08	 lea	 ecx, DWORD PTR _it$[esp+12]
  0000d	51		 push	 ecx
  0000e	8d 4e 04	 lea	 ecx, DWORD PTR [esi+4]
  00011	e8 00 00 00 00	 call	 ?find@?$_Tree@V?$_Tmap_traits@KPAVCGuildHouseBase@@U?$less@K@std@@V?$allocator@U?$pair@$$CBKPAVCGuildHouseBase@@@std@@@3@$0A@@std@@@std@@QAE?AViterator@12@ABK@Z ; std::_Tree<std::_Tmap_traits<unsigned long,CGuildHouseBase *,std::less<unsigned long>,std::allocator<std::pair<unsigned long const ,CGuildHouseBase *> >,0> >::find

; 1135 : 	if( it == m_mapGuildHouse.end() )

  00016	8b 4e 08	 mov	 ecx, DWORD PTR [esi+8]
  00019	8b 44 24 04	 mov	 eax, DWORD PTR _it$[esp+8]
  0001d	3b c1		 cmp	 eax, ecx
  0001f	5e		 pop	 esi
  00020	75 06		 jne	 SHORT $L192547

; 1136 : 		return NULL;

  00022	33 c0		 xor	 eax, eax

; 1139 : }

  00024	59		 pop	 ecx
  00025	c2 04 00	 ret	 4
$L192547:

; 1137 : 
; 1138 : 	return it->second;

  00028	8b 40 10	 mov	 eax, DWORD PTR [eax+16]

; 1139 : }

  0002b	59		 pop	 ecx
  0002c	c2 04 00	 ret	 4
?GetGuildHouse@CGuildHouseMng@@QAEPAVCGuildHouseBase@@K@Z ENDP ; CGuildHouseMng::GetGuildHouse
_TEXT	ENDS
PUBLIC	?ProcessExpired@CGuildHouseMng@@QAEXXZ		; CGuildHouseMng::ProcessExpired
EXTRN	__chkstk:NEAR
EXTRN	___security_cookie:DWORD
EXTRN	@__security_check_cookie@4:NEAR
EXTRN	?GetInstance@CGuildHouseDBMng@@SAPAV1@XZ:NEAR	; CGuildHouseDBMng::GetInstance
EXTRN	??0CAr@@QAE@PAXI@Z:NEAR				; CAr::CAr
EXTRN	??1CAr@@QAE@XZ:NEAR				; CAr::~CAr
EXTRN	?GetBuffer@CAr@@QAEPAEPAH@Z:NEAR		; CAr::GetBuffer
;	COMDAT xdata$x
; File c:\documents and settings\test\mes documents\source\virtuos_v17\build\program\databaseserver\guildhousedbctrl.h
xdata$x	SEGMENT
$T197260 DD	0ffffffffH
	DD	FLAT:$L196955
	DD	0ffffffffH
	DD	FLAT:$L196956
$T197251 DD	019930520H
	DD	02H
	DD	FLAT:$T197260
	DD	2 DUP(00H)
	DD	2 DUP(00H)
; Function compile flags: /Ogty
; File c:\documents and settings\test\mes documents\source\virtuos_v17\build\program\_common\guildhouse.cpp
xdata$x	ENDS
;	COMDAT ?ProcessExpired@CGuildHouseMng@@QAEXXZ
_TEXT	SEGMENT
_it$192580 = -32924					; size = 4
$T196954 = -32920					; size = 12
$T197249 = -32908					; size = 4
_nBufSize$192598 = -32904				; size = 4
_nBufSize$192591 = -32900				; size = 4
_gfiTemp$192595 = -32896				; size = 36
$T196953 = -32860					; size = 36
_ar$192589 = -32824					; size = 16404
_ar$192597 = -16420					; size = 16404
__$ArrayPad$ = -16					; size = 4
__$EHRec$ = -12						; size = 12
__$ReturnAddr$ = 4					; size = 4
?ProcessExpired@CGuildHouseMng@@QAEXXZ PROC NEAR	; CGuildHouseMng::ProcessExpired, COMDAT
; _this$ = ecx

; 1468 : {

  00000	6a ff		 push	 -1
  00002	64 a1 00 00 00
	00		 mov	 eax, DWORD PTR fs:__except_list
  00008	68 00 00 00 00	 push	 __ehhandler$?ProcessExpired@CGuildHouseMng@@QAEXXZ
  0000d	50		 push	 eax
  0000e	b8 90 80 00 00	 mov	 eax, 32912		; 00008090H
  00013	64 89 25 00 00
	00 00		 mov	 DWORD PTR fs:__except_list, esp
  0001a	e8 00 00 00 00	 call	 __chkstk
  0001f	a1 00 00 00 00	 mov	 eax, DWORD PTR ___security_cookie
  00024	33 c4		 xor	 eax, esp
  00026	89 84 24 8c 80
	00 00		 mov	 DWORD PTR __$ArrayPad$[esp+32924], eax

; 1469 : 	for( MapGuildHouse::iterator it=m_mapGuildHouse.begin(); it!=m_mapGuildHouse.end(); it++ )

  0002d	8b 41 08	 mov	 eax, DWORD PTR [ecx+8]
  00030	56		 push	 esi
  00031	8b 30		 mov	 esi, DWORD PTR [eax]
  00033	3b f0		 cmp	 esi, eax
  00035	89 4c 24 14	 mov	 DWORD PTR $T197249[esp+32928], ecx
  00039	89 74 24 04	 mov	 DWORD PTR _it$192580[esp+32928], esi
  0003d	0f 84 46 02 00
	00		 je	 $L192586
  00043	53		 push	 ebx
  00044	55		 push	 ebp
  00045	57		 push	 edi
  00046	83 cd ff	 or	 ebp, -1
  00049	8d a4 24 00 00
	00 00		 npad	 7
$L196995:

; 1470 : 	{
; 1471 : 		int nIndex = it->second->GetFirstExpiredFurnitureIndex();	//     .

  00050	8b 4e 10	 mov	 ecx, DWORD PTR [esi+16]
  00053	e8 00 00 00 00	 call	 ?GetFirstExpiredFurnitureIndex@CGuildHouseBase@@QAEHXZ ; CGuildHouseBase::GetFirstExpiredFurnitureIndex
  00058	8b f8		 mov	 edi, eax

; 1472 : 		if( nIndex != NULL_ID )	//       .

  0005a	3b fd		 cmp	 edi, ebp
  0005c	0f 84 c3 00 00
	00		 je	 $L197254

; 1473 : 		{
; 1474 : 			CAr ar;

  00062	6a 00		 push	 0
  00064	6a 00		 push	 0
  00066	8d 4c 24 7c	 lea	 ecx, DWORD PTR _ar$192589[esp+32948]
  0006a	e8 00 00 00 00	 call	 ??0CAr@@QAE@PAXI@Z	; CAr::CAr

; 1475 : 			ar << it->first << GUILDHOUSE_PCKTTYPE_LISTDROP << nIndex;

  0006f	8b 5e 0c	 mov	 ebx, DWORD PTR [esi+12]
  00072	6a 04		 push	 4
  00074	8d 4c 24 78	 lea	 ecx, DWORD PTR _ar$192589[esp+32944]
  00078	c7 84 24 ac 80
	00 00 00 00 00
	00		 mov	 DWORD PTR __$EHRec$[esp+32952], 0
  00083	e8 00 00 00 00	 call	 ?CheckBuf@CAr@@QAEXI@Z	; CAr::CheckBuf
  00088	8b 44 24 7c	 mov	 eax, DWORD PTR _ar$192589[esp+32948]
  0008c	89 18		 mov	 DWORD PTR [eax], ebx
  0008e	8b 44 24 7c	 mov	 eax, DWORD PTR _ar$192589[esp+32948]
  00092	bb 04 00 00 00	 mov	 ebx, 4
  00097	03 c3		 add	 eax, ebx
  00099	53		 push	 ebx
  0009a	8d 4c 24 78	 lea	 ecx, DWORD PTR _ar$192589[esp+32944]
  0009e	89 84 24 80 00
	00 00		 mov	 DWORD PTR _ar$192589[esp+32952], eax
  000a5	e8 00 00 00 00	 call	 ?CheckBuf@CAr@@QAEXI@Z	; CAr::CheckBuf
  000aa	8b 4c 24 7c	 mov	 ecx, DWORD PTR _ar$192589[esp+32948]
  000ae	c7 01 01 00 00
	00		 mov	 DWORD PTR [ecx], 1
  000b4	01 5c 24 7c	 add	 DWORD PTR _ar$192589[esp+32948], ebx
  000b8	53		 push	 ebx
  000b9	8d 4c 24 78	 lea	 ecx, DWORD PTR _ar$192589[esp+32944]
  000bd	e8 00 00 00 00	 call	 ?CheckBuf@CAr@@QAEXI@Z	; CAr::CheckBuf
  000c2	8b 54 24 7c	 mov	 edx, DWORD PTR _ar$192589[esp+32948]
  000c6	89 3a		 mov	 DWORD PTR [edx], edi
  000c8	8b 54 24 7c	 mov	 edx, DWORD PTR _ar$192589[esp+32948]

; 1476 : 			it->second->GetFurnitureInfo( nIndex ).Serialize( ar );

  000cc	8d 44 24 74	 lea	 eax, DWORD PTR _ar$192589[esp+32940]
  000d0	50		 push	 eax
  000d1	03 d3		 add	 edx, ebx
  000d3	57		 push	 edi
  000d4	8d 4c 24 58	 lea	 ecx, DWORD PTR $T196953[esp+32948]
  000d8	89 94 24 84 00
	00 00		 mov	 DWORD PTR _ar$192589[esp+32956], edx
  000df	51		 push	 ecx
  000e0	8b 4e 10	 mov	 ecx, DWORD PTR [esi+16]
  000e3	e8 00 00 00 00	 call	 ?GetFurnitureInfo@CGuildHouseBase@@QAE?AUGuildHouse_Furniture_Info@1@H@Z ; CGuildHouseBase::GetFurnitureInfo
  000e8	8b c8		 mov	 ecx, eax
  000ea	e8 00 00 00 00	 call	 ?Serialize@GuildHouse_Furniture_Info@CGuildHouseBase@@QAEXAAVCAr@@@Z ; CGuildHouseBase::GuildHouse_Furniture_Info::Serialize

; 1477 : 			int nBufSize;
; 1478 : 			LPBYTE lpBuf	= ar.GetBuffer( &nBufSize );

  000ef	8d 54 24 28	 lea	 edx, DWORD PTR _nBufSize$192591[esp+32940]
  000f3	52		 push	 edx
  000f4	8d 4c 24 78	 lea	 ecx, DWORD PTR _ar$192589[esp+32944]
  000f8	e8 00 00 00 00	 call	 ?GetBuffer@CAr@@QAEPAEPAH@Z ; CAr::GetBuffer

; 1479 : 			GuildHouseDBMng->PostRequest( GUILDHOUSE_DEFAULT_PACKET, lpBuf, nBufSize );

  000fd	8b 5c 24 28	 mov	 ebx, DWORD PTR _nBufSize$192591[esp+32940]
  00101	8b f8		 mov	 edi, eax
  00103	e8 00 00 00 00	 call	 ?GetInstance@CGuildHouseDBMng@@SAPAV1@XZ ; CGuildHouseDBMng::GetInstance
  00108	6a 00		 push	 0
  0010a	53		 push	 ebx
  0010b	57		 push	 edi
  0010c	6a 04		 push	 4
  0010e	8b c8		 mov	 ecx, eax
  00110	e8 00 00 00 00	 call	 ?PostRequest@CDbController@@QAEHHPAEHK@Z ; CDbController::PostRequest

; 1480 : 		}

  00115	8d 4c 24 74	 lea	 ecx, DWORD PTR _ar$192589[esp+32940]
  00119	89 ac 24 a8 80
	00 00		 mov	 DWORD PTR __$EHRec$[esp+32948], ebp
  00120	e8 00 00 00 00	 call	 ??1CAr@@QAE@XZ		; CAr::~CAr
$L197254:

; 1481 : 
; 1482 : 		if( it->second->GetUpkeepTime() <= time_null() )	//     

  00125	8b 46 10	 mov	 eax, DWORD PTR [esi+16]
  00128	8b 78 1c	 mov	 edi, DWORD PTR [eax+28]
  0012b	33 db		 xor	 ebx, ebx
  0012d	53		 push	 ebx
  0012e	e8 00 00 00 00	 call	 _time
  00133	83 c4 04	 add	 esp, 4
  00136	3b f8		 cmp	 edi, eax
  00138	0f 8f 2e 01 00
	00		 jg	 $L192585

; 1483 : 		{
; 1484 : 			if( it->second->GetUpkeepTime() > 0 )	//      .

  0013e	8b 4e 10	 mov	 ecx, DWORD PTR [esi+16]
  00141	39 59 1c	 cmp	 DWORD PTR [ecx+28], ebx
  00144	0f 8e 22 01 00
	00		 jle	 $L192585

; 1485 : 			{
; 1486 : #ifdef __GUILD_HOUSE_MIDDLE
; 1487 : 				CAr ar;
; 1488 : 				ar << it->first << it->second->GetType();
; 1489 : 				int nBufSize;
; 1490 : 				LPBYTE lpBuf = ar.GetBuffer( &nBufSize );
; 1491 : 				GuildHouseDBMng->PostRequest( GUILDHOUSE_EXPIRED, lpBuf, nBufSize );
; 1492 : #else // __GUILD_HOUSE_MIDDLE
; 1493 : 				GH_Fntr_Info gfiTemp;

  0014a	8b d3		 mov	 edx, ebx
  0014c	8b c3		 mov	 eax, ebx
  0014e	8b cb		 mov	 ecx, ebx
  00150	53		 push	 ebx
  00151	89 5c 24 18	 mov	 DWORD PTR $T196954[esp+32944], ebx
  00155	89 5c 24 1c	 mov	 DWORD PTR $T196954[esp+32948], ebx
  00159	89 5c 24 20	 mov	 DWORD PTR $T196954[esp+32952], ebx
  0015d	89 6c 24 30	 mov	 DWORD PTR _gfiTemp$192595[esp+32944], ebp
  00161	89 5c 24 34	 mov	 DWORD PTR _gfiTemp$192595[esp+32948], ebx
  00165	89 54 24 38	 mov	 DWORD PTR _gfiTemp$192595[esp+32952], edx
  00169	89 44 24 3c	 mov	 DWORD PTR _gfiTemp$192595[esp+32956], eax
  0016d	89 4c 24 40	 mov	 DWORD PTR _gfiTemp$192595[esp+32960], ecx
  00171	89 5c 24 44	 mov	 DWORD PTR _gfiTemp$192595[esp+32964], ebx
  00175	89 6c 24 48	 mov	 DWORD PTR _gfiTemp$192595[esp+32968], ebp
  00179	e8 00 00 00 00	 call	 _time
  0017e	83 c4 04	 add	 esp, 4

; 1494 : 				CAr ar;

  00181	53		 push	 ebx
  00182	53		 push	 ebx
  00183	8d 8c 24 90 40
	00 00		 lea	 ecx, DWORD PTR _ar$192597[esp+32948]
  0018a	89 44 24 50	 mov	 DWORD PTR _gfiTemp$192595[esp+32976], eax
  0018e	89 5c 24 54	 mov	 DWORD PTR _gfiTemp$192595[esp+32980], ebx
  00192	e8 00 00 00 00	 call	 ??0CAr@@QAE@PAXI@Z	; CAr::CAr

; 1495 : 				ar << it->first << GUILDHOUSE_PCKTTYPE_EXPIRED << NULL_ID;

  00197	8b 76 0c	 mov	 esi, DWORD PTR [esi+12]
  0019a	bf 04 00 00 00	 mov	 edi, 4
  0019f	57		 push	 edi
  001a0	8d 8c 24 8c 40
	00 00		 lea	 ecx, DWORD PTR _ar$192597[esp+32944]
  001a7	c7 84 24 ac 80
	00 00 01 00 00
	00		 mov	 DWORD PTR __$EHRec$[esp+32952], 1
  001b2	e8 00 00 00 00	 call	 ?CheckBuf@CAr@@QAEXI@Z	; CAr::CheckBuf
  001b7	8b 94 24 90 40
	00 00		 mov	 edx, DWORD PTR _ar$192597[esp+32948]
  001be	89 32		 mov	 DWORD PTR [edx], esi
  001c0	8b 84 24 90 40
	00 00		 mov	 eax, DWORD PTR _ar$192597[esp+32948]
  001c7	03 c7		 add	 eax, edi
  001c9	57		 push	 edi
  001ca	8d 8c 24 8c 40
	00 00		 lea	 ecx, DWORD PTR _ar$192597[esp+32944]
  001d1	89 84 24 94 40
	00 00		 mov	 DWORD PTR _ar$192597[esp+32952], eax
  001d8	e8 00 00 00 00	 call	 ?CheckBuf@CAr@@QAEXI@Z	; CAr::CheckBuf
  001dd	8b 84 24 90 40
	00 00		 mov	 eax, DWORD PTR _ar$192597[esp+32948]
  001e4	c7 00 07 00 00
	00		 mov	 DWORD PTR [eax], 7
  001ea	8b 94 24 90 40
	00 00		 mov	 edx, DWORD PTR _ar$192597[esp+32948]
  001f1	03 d7		 add	 edx, edi
  001f3	57		 push	 edi
  001f4	8d 8c 24 8c 40
	00 00		 lea	 ecx, DWORD PTR _ar$192597[esp+32944]
  001fb	89 94 24 94 40
	00 00		 mov	 DWORD PTR _ar$192597[esp+32952], edx
  00202	e8 00 00 00 00	 call	 ?CheckBuf@CAr@@QAEXI@Z	; CAr::CheckBuf
  00207	8b 8c 24 90 40
	00 00		 mov	 ecx, DWORD PTR _ar$192597[esp+32948]
  0020e	89 29		 mov	 DWORD PTR [ecx], ebp
  00210	8b 84 24 90 40
	00 00		 mov	 eax, DWORD PTR _ar$192597[esp+32948]

; 1496 : 				gfiTemp.Serialize( ar );

  00217	8d 94 24 88 40
	00 00		 lea	 edx, DWORD PTR _ar$192597[esp+32940]
  0021e	03 c7		 add	 eax, edi
  00220	52		 push	 edx
  00221	8d 4c 24 30	 lea	 ecx, DWORD PTR _gfiTemp$192595[esp+32944]
  00225	89 84 24 94 40
	00 00		 mov	 DWORD PTR _ar$192597[esp+32952], eax
  0022c	e8 00 00 00 00	 call	 ?Serialize@GuildHouse_Furniture_Info@CGuildHouseBase@@QAEXAAVCAr@@@Z ; CGuildHouseBase::GuildHouse_Furniture_Info::Serialize

; 1497 : 				int nBufSize;
; 1498 : 				LPBYTE lpBuf = ar.GetBuffer( &nBufSize );

  00231	8d 44 24 24	 lea	 eax, DWORD PTR _nBufSize$192598[esp+32940]
  00235	50		 push	 eax
  00236	8d 8c 24 8c 40
	00 00		 lea	 ecx, DWORD PTR _ar$192597[esp+32944]
  0023d	e8 00 00 00 00	 call	 ?GetBuffer@CAr@@QAEPAEPAH@Z ; CAr::GetBuffer

; 1499 : 				GuildHouseDBMng->PostRequest( GUILDHOUSE_DEFAULT_PACKET, lpBuf, nBufSize );

  00242	8b 7c 24 24	 mov	 edi, DWORD PTR _nBufSize$192598[esp+32940]
  00246	8b f0		 mov	 esi, eax
  00248	e8 00 00 00 00	 call	 ?GetInstance@CGuildHouseDBMng@@SAPAV1@XZ ; CGuildHouseDBMng::GetInstance
  0024d	53		 push	 ebx
  0024e	57		 push	 edi
  0024f	56		 push	 esi
  00250	6a 04		 push	 4
  00252	8b c8		 mov	 ecx, eax
  00254	e8 00 00 00 00	 call	 ?PostRequest@CDbController@@QAEHHPAEHK@Z ; CDbController::PostRequest

; 1500 : #endif // __GUILD_HOUSE_MIDDLE
; 1501 : 			}

  00259	8d 8c 24 88 40
	00 00		 lea	 ecx, DWORD PTR _ar$192597[esp+32940]
  00260	89 ac 24 a8 80
	00 00		 mov	 DWORD PTR __$EHRec$[esp+32948], ebp
  00267	e8 00 00 00 00	 call	 ??1CAr@@QAE@XZ		; CAr::~CAr
$L192585:
  0026c	8d 4c 24 10	 lea	 ecx, DWORD PTR _it$192580[esp+32940]
  00270	e8 00 00 00 00	 call	 ?_Inc@const_iterator@?$_Tree@V?$_Tmap_traits@KPAVCGuildHouseBase@@U?$less@K@std@@V?$allocator@U?$pair@$$CBKPAVCGuildHouseBase@@@std@@@3@$0A@@std@@@std@@QAEXXZ ; std::_Tree<std::_Tmap_traits<unsigned long,CGuildHouseBase *,std::less<unsigned long>,std::allocator<std::pair<unsigned long const ,CGuildHouseBase *> >,0> >::const_iterator::_Inc
  00275	8b 4c 24 20	 mov	 ecx, DWORD PTR $T197249[esp+32940]
  00279	8b 74 24 10	 mov	 esi, DWORD PTR _it$192580[esp+32940]
  0027d	3b 71 08	 cmp	 esi, DWORD PTR [ecx+8]
  00280	0f 85 ca fd ff
	ff		 jne	 $L196995
  00286	5f		 pop	 edi
  00287	5d		 pop	 ebp
  00288	5b		 pop	 ebx
$L192586:

; 1502 : 		//	 (  ... ...
; 1503 : 		//	else if( it->second->GetFurnitureListSize() == 0 )	//         .
; 1504 : 		//		GuildHouseDBMng->PostRequest( GUILDHOUSE_REMOVE, NULL, 0, it->first );
; 1505 : 		}
; 1506 : 	}
; 1507 : }

  00289	8b 8c 24 94 80
	00 00		 mov	 ecx, DWORD PTR __$EHRec$[esp+32928]
  00290	64 89 0d 00 00
	00 00		 mov	 DWORD PTR fs:__except_list, ecx
  00297	8b 8c 24 90 80
	00 00		 mov	 ecx, DWORD PTR __$ArrayPad$[esp+32928]
  0029e	5e		 pop	 esi
  0029f	33 cc		 xor	 ecx, esp
  002a1	e8 00 00 00 00	 call	 @__security_check_cookie@4
  002a6	81 c4 9c 80 00
	00		 add	 esp, 32924		; 0000809cH
  002ac	c3		 ret	 0
_TEXT	ENDS
;	COMDAT text$x
text$x	SEGMENT
$L196955:
  00000	8d 8d c8 7f ff
	ff		 lea	 ecx, DWORD PTR _ar$192589[ebp]
  00006	e9 00 00 00 00	 jmp	 ??1CAr@@QAE@XZ		; CAr::~CAr
$L196956:
  0000b	8d 8d dc bf ff
	ff		 lea	 ecx, DWORD PTR _ar$192597[ebp]
  00011	e9 00 00 00 00	 jmp	 ??1CAr@@QAE@XZ		; CAr::~CAr
__ehhandler$?ProcessExpired@CGuildHouseMng@@QAEXXZ:
  00016	b8 00 00 00 00	 mov	 eax, OFFSET FLAT:$T197251
  0001b	e9 00 00 00 00	 jmp	 ___CxxFrameHandler
text$x	ENDS
?ProcessExpired@CGuildHouseMng@@QAEXXZ ENDP		; CGuildHouseMng::ProcessExpired
PUBLIC	?_Destroy@?$vector@UGuildHouse_Furniture_Info@CGuildHouseBase@@V?$allocator@UGuildHouse_Furniture_Info@CGuildHouseBase@@@std@@@std@@IAEXPAUGuildHouse_Furniture_Info@CGuildHouseBase@@0@Z ; std::vector<CGuildHouseBase::GuildHouse_Furniture_Info,std::allocator<CGuildHouseBase::GuildHouse_Furniture_Info> >::_Destroy
; Function compile flags: /Ogty
; File c:\program files\microsoft visual studio .net 2003\vc7\include\vector
;	COMDAT ?_Destroy@?$vector@UGuildHouse_Furniture_Info@CGuildHouseBase@@V?$allocator@UGuildHouse_Furniture_Info@CGuildHouseBase@@@std@@@std@@IAEXPAUGuildHouse_Furniture_Info@CGuildHouseBase@@0@Z
_TEXT	SEGMENT
__First$ = 8						; size = 4
__Last$ = 12						; size = 4
?_Destroy@?$vector@UGuildHouse_Furniture_Info@CGuildHouseBase@@V?$allocator@UGuildHouse_Furniture_Info@CGuildHouseBase@@@std@@@std@@IAEXPAUGuildHouse_Furniture_Info@CGuildHouseBase@@0@Z PROC NEAR ; std::vector<CGuildHouseBase::GuildHouse_Furniture_Info,std::allocator<CGuildHouseBase::GuildHouse_Furniture_Info> >::_Destroy, COMDAT
; _this$ = ecx

; 787  : 		_Destroy_range(_First, _Last, this->_Alval);
; 788  : 		}

  00000	c2 08 00	 ret	 8
?_Destroy@?$vector@UGuildHouse_Furniture_Info@CGuildHouseBase@@V?$allocator@UGuildHouse_Furniture_Info@CGuildHouseBase@@@std@@@std@@IAEXPAUGuildHouse_Furniture_Info@CGuildHouseBase@@0@Z ENDP ; std::vector<CGuildHouseBase::GuildHouse_Furniture_Info,std::allocator<CGuildHouseBase::GuildHouse_Furniture_Info> >::_Destroy
_TEXT	ENDS
PUBLIC	?_Tidy@?$vector@UGuildHouse_Furniture_Info@CGuildHouseBase@@V?$allocator@UGuildHouse_Furniture_Info@CGuildHouseBase@@@std@@@std@@IAEXXZ ; std::vector<CGuildHouseBase::GuildHouse_Furniture_Info,std::allocator<CGuildHouseBase::GuildHouse_Furniture_Info> >::_Tidy
; Function compile flags: /Ogty
;	COMDAT ?_Tidy@?$vector@UGuildHouse_Furniture_Info@CGuildHouseBase@@V?$allocator@UGuildHouse_Furniture_Info@CGuildHouseBase@@@std@@@std@@IAEXXZ
_TEXT	SEGMENT
?_Tidy@?$vector@UGuildHouse_Furniture_Info@CGuildHouseBase@@V?$allocator@UGuildHouse_Furniture_Info@CGuildHouseBase@@@std@@@std@@IAEXXZ PROC NEAR ; std::vector<CGuildHouseBase::GuildHouse_Furniture_Info,std::allocator<CGuildHouseBase::GuildHouse_Furniture_Info> >::_Tidy, COMDAT
; _this$ = ecx

; 791  : 		{	// free all storage

  00000	56		 push	 esi
  00001	8b f1		 mov	 esi, ecx

; 792  : 		if (_Myfirst != 0)

  00003	8b 46 04	 mov	 eax, DWORD PTR [esi+4]
  00006	85 c0		 test	 eax, eax
  00008	74 09		 je	 SHORT $L197268

; 793  : 			{	// something to free, destroy and deallocate it
; 794  : 			_Destroy(_Myfirst, _Mylast);
; 795  : 			this->_Alval.deallocate(_Myfirst, _Myend - _Myfirst);

  0000a	50		 push	 eax
  0000b	e8 00 00 00 00	 call	 ??3@YAXPAX@Z		; operator delete
  00010	83 c4 04	 add	 esp, 4
$L197268:

; 796  : 			}
; 797  : 		_Myfirst = 0, _Mylast = 0, _Myend = 0;

  00013	c7 46 04 00 00
	00 00		 mov	 DWORD PTR [esi+4], 0
  0001a	c7 46 08 00 00
	00 00		 mov	 DWORD PTR [esi+8], 0
  00021	c7 46 0c 00 00
	00 00		 mov	 DWORD PTR [esi+12], 0
  00028	5e		 pop	 esi

; 798  : 		}

  00029	c3		 ret	 0
?_Tidy@?$vector@UGuildHouse_Furniture_Info@CGuildHouseBase@@V?$allocator@UGuildHouse_Furniture_Info@CGuildHouseBase@@@std@@@std@@IAEXXZ ENDP ; std::vector<CGuildHouseBase::GuildHouse_Furniture_Info,std::allocator<CGuildHouseBase::GuildHouse_Furniture_Info> >::_Tidy
_TEXT	ENDS
PUBLIC	?_Ufill@?$vector@UGuildHouse_Furniture_Info@CGuildHouseBase@@V?$allocator@UGuildHouse_Furniture_Info@CGuildHouseBase@@@std@@@std@@IAEPAUGuildHouse_Furniture_Info@CGuildHouseBase@@PAU34@IABU34@@Z ; std::vector<CGuildHouseBase::GuildHouse_Furniture_Info,std::allocator<CGuildHouseBase::GuildHouse_Furniture_Info> >::_Ufill
; Function compile flags: /Ogty
;	COMDAT ?_Ufill@?$vector@UGuildHouse_Furniture_Info@CGuildHouseBase@@V?$allocator@UGuildHouse_Furniture_Info@CGuildHouseBase@@@std@@@std@@IAEPAUGuildHouse_Furniture_Info@CGuildHouseBase@@PAU34@IABU34@@Z
_TEXT	SEGMENT
__Ptr$ = 8						; size = 4
__Count$ = 12						; size = 4
__Cat$197284 = 16					; size = 1
__Val$ = 16						; size = 4
?_Ufill@?$vector@UGuildHouse_Furniture_Info@CGuildHouseBase@@V?$allocator@UGuildHouse_Furniture_Info@CGuildHouseBase@@@std@@@std@@IAEPAUGuildHouse_Furniture_Info@CGuildHouseBase@@PAU34@IABU34@@Z PROC NEAR ; std::vector<CGuildHouseBase::GuildHouse_Furniture_Info,std::allocator<CGuildHouseBase::GuildHouse_Furniture_Info> >::_Ufill, COMDAT
; _this$ = ecx

; 878  : 		_Uninitialized_fill_n(_Ptr, _Count, _Val, this->_Alval);

  00000	8b 44 24 0c	 mov	 eax, DWORD PTR __Cat$197284[esp-4]
  00004	56		 push	 esi
  00005	8b 74 24 0c	 mov	 esi, DWORD PTR __Count$[esp]
  00009	57		 push	 edi
  0000a	8b 7c 24 0c	 mov	 edi, DWORD PTR __Ptr$[esp+4]
  0000e	50		 push	 eax
  0000f	51		 push	 ecx
  00010	8b 4c 24 1c	 mov	 ecx, DWORD PTR __Val$[esp+12]
  00014	51		 push	 ecx
  00015	56		 push	 esi
  00016	57		 push	 edi
  00017	e8 00 00 00 00	 call	 ??$_Uninit_fill_n@PAUGuildHouse_Furniture_Info@CGuildHouseBase@@IU12@V?$allocator@UGuildHouse_Furniture_Info@CGuildHouseBase@@@std@@@std@@YAXPAUGuildHouse_Furniture_Info@CGuildHouseBase@@IABU12@AAV?$allocator@UGuildHouse_Furniture_Info@CGuildHouseBase@@@0@U_Nonscalar_ptr_iterator_tag@0@@Z ; std::_Uninit_fill_n<CGuildHouseBase::GuildHouse_Furniture_Info *,unsigned int,CGuildHouseBase::GuildHouse_Furniture_Info,std::allocator<CGuildHouseBase::GuildHouse_Furniture_Info> >

; 879  : 		return (_Ptr + _Count);

  0001c	8d 14 f6	 lea	 edx, DWORD PTR [esi+esi*8]
  0001f	83 c4 14	 add	 esp, 20			; 00000014H
  00022	8d 04 97	 lea	 eax, DWORD PTR [edi+edx*4]
  00025	5f		 pop	 edi
  00026	5e		 pop	 esi

; 880  : 		}

  00027	c2 0c 00	 ret	 12			; 0000000cH
?_Ufill@?$vector@UGuildHouse_Furniture_Info@CGuildHouseBase@@V?$allocator@UGuildHouse_Furniture_Info@CGuildHouseBase@@@std@@@std@@IAEPAUGuildHouse_Furniture_Info@CGuildHouseBase@@PAU34@IABU34@@Z ENDP ; std::vector<CGuildHouseBase::GuildHouse_Furniture_Info,std::allocator<CGuildHouseBase::GuildHouse_Furniture_Info> >::_Ufill
_TEXT	ENDS
PUBLIC	??0?$_Tree@V?$_Tmap_traits@KPAVCGuildHouseBase@@U?$less@K@std@@V?$allocator@U?$pair@$$CBKPAVCGuildHouseBase@@@std@@@3@$0A@@std@@@std@@QAE@ABU?$less@K@1@ABV?$allocator@U?$pair@$$CBKPAVCGuildHouseBase@@@std@@@1@@Z ; std::_Tree<std::_Tmap_traits<unsigned long,CGuildHouseBase *,std::less<unsigned long>,std::allocator<std::pair<unsigned long const ,CGuildHouseBase *> >,0> >::_Tree<std::_Tmap_traits<unsigned long,CGuildHouseBase *,std::less<unsigned long>,std::allocator<std::pair<unsigned long const ,CGuildHouseBase *> >,0> >
; Function compile flags: /Ogty
; File c:\program files\microsoft visual studio .net 2003\vc7\include\xtree
;	COMDAT ??0?$_Tree@V?$_Tmap_traits@KPAVCGuildHouseBase@@U?$less@K@std@@V?$allocator@U?$pair@$$CBKPAVCGuildHouseBase@@@std@@@3@$0A@@std@@@std@@QAE@ABU?$less@K@1@ABV?$allocator@U?$pair@$$CBKPAVCGuildHouseBase@@@std@@@1@@Z
_TEXT	SEGMENT
__Parg$ = 8						; size = 4
__Al$ = 12						; size = 4
??0?$_Tree@V?$_Tmap_traits@KPAVCGuildHouseBase@@U?$less@K@std@@V?$allocator@U?$pair@$$CBKPAVCGuildHouseBase@@@std@@@3@$0A@@std@@@std@@QAE@ABU?$less@K@1@ABV?$allocator@U?$pair@$$CBKPAVCGuildHouseBase@@@std@@@1@@Z PROC NEAR ; std::_Tree<std::_Tmap_traits<unsigned long,CGuildHouseBase *,std::less<unsigned long>,std::allocator<std::pair<unsigned long const ,CGuildHouseBase *> >,0> >::_Tree<std::_Tmap_traits<unsigned long,CGuildHouseBase *,std::less<unsigned long>,std::allocator<std::pair<unsigned long const ,CGuildHouseBase *> >,0> >, COMDAT
; _this$ = ecx

; 361  : 		{	// construct empty tree

  00000	56		 push	 esi
  00001	8b f1		 mov	 esi, ecx

; 362  : 		_Init();

  00003	e8 00 00 00 00	 call	 ?_Buynode@?$_Tree@V?$_Tmap_traits@KPAVCGuildHouseBase@@U?$less@K@std@@V?$allocator@U?$pair@$$CBKPAVCGuildHouseBase@@@std@@@3@$0A@@std@@@std@@IAEPAU_Node@?$_Tree_nod@V?$_Tmap_traits@KPAVCGuildHouseBase@@U?$less@K@std@@V?$allocator@U?$pair@$$CBKPAVCGuildHouseBase@@@std@@@3@$0A@@std@@@2@XZ ; std::_Tree<std::_Tmap_traits<unsigned long,CGuildHouseBase *,std::less<unsigned long>,std::allocator<std::pair<unsigned long const ,CGuildHouseBase *> >,0> >::_Buynode
  00008	89 46 04	 mov	 DWORD PTR [esi+4], eax
  0000b	c6 40 15 01	 mov	 BYTE PTR [eax+21], 1
  0000f	8b 46 04	 mov	 eax, DWORD PTR [esi+4]
  00012	89 40 04	 mov	 DWORD PTR [eax+4], eax
  00015	8b 46 04	 mov	 eax, DWORD PTR [esi+4]
  00018	89 00		 mov	 DWORD PTR [eax], eax
  0001a	8b 46 04	 mov	 eax, DWORD PTR [esi+4]
  0001d	89 40 08	 mov	 DWORD PTR [eax+8], eax
  00020	c7 46 08 00 00
	00 00		 mov	 DWORD PTR [esi+8], 0

; 363  : 		}

  00027	8b c6		 mov	 eax, esi
  00029	5e		 pop	 esi
  0002a	c2 08 00	 ret	 8
??0?$_Tree@V?$_Tmap_traits@KPAVCGuildHouseBase@@U?$less@K@std@@V?$allocator@U?$pair@$$CBKPAVCGuildHouseBase@@@std@@@3@$0A@@std@@@std@@QAE@ABU?$less@K@1@ABV?$allocator@U?$pair@$$CBKPAVCGuildHouseBase@@@std@@@1@@Z ENDP ; std::_Tree<std::_Tmap_traits<unsigned long,CGuildHouseBase *,std::less<unsigned long>,std::allocator<std::pair<unsigned long const ,CGuildHouseBase *> >,0> >::_Tree<std::_Tmap_traits<unsigned long,CGuildHouseBase *,std::less<unsigned long>,std::allocator<std::pair<unsigned long const ,CGuildHouseBase *> >,0> >
_TEXT	ENDS
PUBLIC	?erase@?$vector@UGuildHouse_Furniture_Info@CGuildHouseBase@@V?$allocator@UGuildHouse_Furniture_Info@CGuildHouseBase@@@std@@@std@@QAE?AViterator@12@V312@0@Z ; std::vector<CGuildHouseBase::GuildHouse_Furniture_Info,std::allocator<CGuildHouseBase::GuildHouse_Furniture_Info> >::erase
; Function compile flags: /Ogty
; File c:\program files\microsoft visual studio .net 2003\vc7\include\vector
;	COMDAT ?erase@?$vector@UGuildHouse_Furniture_Info@CGuildHouseBase@@V?$allocator@UGuildHouse_Furniture_Info@CGuildHouseBase@@@std@@@std@@QAE?AViterator@12@V312@0@Z
_TEXT	SEGMENT
_this$ = -4						; size = 4
___$ReturnUdt$ = 8					; size = 4
__First$ = 12						; size = 4
__Last$ = 16						; size = 4
?erase@?$vector@UGuildHouse_Furniture_Info@CGuildHouseBase@@V?$allocator@UGuildHouse_Furniture_Info@CGuildHouseBase@@@std@@@std@@QAE?AViterator@12@V312@0@Z PROC NEAR ; std::vector<CGuildHouseBase::GuildHouse_Furniture_Info,std::allocator<CGuildHouseBase::GuildHouse_Furniture_Info> >::erase, COMDAT
; _this$ = ecx

; 731  : 		{	// erase [_First, _Last)

  00000	51		 push	 ecx

; 732  : 		if (_First != _Last)

  00001	8b 44 24 10	 mov	 eax, DWORD PTR __Last$[esp]
  00005	55		 push	 ebp
  00006	8b 6c 24 10	 mov	 ebp, DWORD PTR __First$[esp+4]
  0000a	3b e8		 cmp	 ebp, eax
  0000c	89 4c 24 04	 mov	 DWORD PTR _this$[esp+8], ecx
  00010	74 2d		 je	 SHORT $L197446
  00012	53		 push	 ebx

; 733  : 			{	// worth doing, copy down over hole
; 734  : 			pointer _Ptr = copy(_ITER_BASE(_Last), _Mylast,
; 735  : 				_ITER_BASE(_First));

  00013	8b 59 08	 mov	 ebx, DWORD PTR [ecx+8]
  00016	3b c3		 cmp	 eax, ebx
  00018	8b d5		 mov	 edx, ebp
  0001a	74 1f		 je	 SHORT $L197440
  0001c	56		 push	 esi
  0001d	57		 push	 edi
  0001e	8b ff		 npad	 2
$L197438:
  00020	8b f0		 mov	 esi, eax
  00022	8b fa		 mov	 edi, edx
  00024	83 c0 24	 add	 eax, 36			; 00000024H
  00027	b9 09 00 00 00	 mov	 ecx, 9
  0002c	83 c2 24	 add	 edx, 36			; 00000024H
  0002f	3b c3		 cmp	 eax, ebx
  00031	f3 a5		 rep movsd
  00033	75 eb		 jne	 SHORT $L197438
  00035	8b 4c 24 10	 mov	 ecx, DWORD PTR _this$[esp+20]
  00039	5f		 pop	 edi
  0003a	5e		 pop	 esi
$L197440:

; 736  : 			_Destroy(_Ptr, _Mylast);
; 737  : 			_Mylast = _Ptr;

  0003b	89 51 08	 mov	 DWORD PTR [ecx+8], edx
  0003e	5b		 pop	 ebx
$L197446:

; 738  : 			}
; 739  : 		return (_First);

  0003f	8b 44 24 0c	 mov	 eax, DWORD PTR ___$ReturnUdt$[esp+4]
  00043	89 28		 mov	 DWORD PTR [eax], ebp
  00045	5d		 pop	 ebp

; 740  : 		}

  00046	59		 pop	 ecx
  00047	c2 0c 00	 ret	 12			; 0000000cH
?erase@?$vector@UGuildHouse_Furniture_Info@CGuildHouseBase@@V?$allocator@UGuildHouse_Furniture_Info@CGuildHouseBase@@@std@@@std@@QAE?AViterator@12@V312@0@Z ENDP ; std::vector<CGuildHouseBase::GuildHouse_Furniture_Info,std::allocator<CGuildHouseBase::GuildHouse_Furniture_Info> >::erase
_TEXT	ENDS
PUBLIC	??_7logic_error@std@@6B@			; std::logic_error::`vftable'
PUBLIC	??_Glogic_error@std@@UAEPAXI@Z			; std::logic_error::`scalar deleting destructor'
PUBLIC	??1logic_error@std@@UAE@XZ			; std::logic_error::~logic_error
PUBLIC	?what@logic_error@std@@UBEPBDXZ			; std::logic_error::what
EXTRN	??_Elogic_error@std@@UAEPAXI@Z:NEAR		; std::logic_error::`vector deleting destructor'
EXTRN	??1exception@@UAE@XZ:NEAR			; exception::~exception
;	COMDAT ??_7logic_error@std@@6B@
; File c:\program files\microsoft visual studio .net 2003\vc7\include\iosfwd
CONST	SEGMENT
??_7logic_error@std@@6B@ DD FLAT:??_Elogic_error@std@@UAEPAXI@Z ; std::logic_error::`vftable'
	DD	FLAT:?what@logic_error@std@@UBEPBDXZ
; Function compile flags: /Ogty
; File c:\program files\microsoft visual studio .net 2003\vc7\include\stdexcept
CONST	ENDS
;	COMDAT ??1logic_error@std@@UAE@XZ
_TEXT	SEGMENT
??1logic_error@std@@UAE@XZ PROC NEAR			; std::logic_error::~logic_error, COMDAT
; _this$ = ecx

; 23   : 		{}	// destroy the object

  00000	56		 push	 esi
  00001	8b f1		 mov	 esi, ecx
  00003	c7 06 00 00 00
	00		 mov	 DWORD PTR [esi], OFFSET FLAT:??_7logic_error@std@@6B@
  00009	83 7e 24 10	 cmp	 DWORD PTR [esi+36], 16	; 00000010H
  0000d	72 0c		 jb	 SHORT $L197512
  0000f	8b 46 10	 mov	 eax, DWORD PTR [esi+16]
  00012	50		 push	 eax
  00013	e8 00 00 00 00	 call	 ??3@YAXPAX@Z		; operator delete
  00018	83 c4 04	 add	 esp, 4
$L197512:
  0001b	33 c0		 xor	 eax, eax
  0001d	c7 46 24 0f 00
	00 00		 mov	 DWORD PTR [esi+36], 15	; 0000000fH
  00024	89 46 20	 mov	 DWORD PTR [esi+32], eax
  00027	88 46 10	 mov	 BYTE PTR [esi+16], al
  0002a	8b ce		 mov	 ecx, esi
  0002c	5e		 pop	 esi
  0002d	e9 00 00 00 00	 jmp	 ??1exception@@UAE@XZ	; exception::~exception
??1logic_error@std@@UAE@XZ ENDP				; std::logic_error::~logic_error
; Function compile flags: /Ogty
_TEXT	ENDS
;	COMDAT ?what@logic_error@std@@UBEPBDXZ
_TEXT	SEGMENT
?what@logic_error@std@@UBEPBDXZ PROC NEAR		; std::logic_error::what, COMDAT
; _this$ = ecx

; 27   : 		return (_Str.c_str());

  00000	83 79 24 10	 cmp	 DWORD PTR [ecx+36], 16	; 00000010H
  00004	72 04		 jb	 SHORT $L197540
  00006	8b 41 10	 mov	 eax, DWORD PTR [ecx+16]

; 28   : 		}

  00009	c3		 ret	 0

; 27   : 		return (_Str.c_str());

$L197540:
  0000a	8d 41 10	 lea	 eax, DWORD PTR [ecx+16]

; 28   : 		}

  0000d	c3		 ret	 0
?what@logic_error@std@@UBEPBDXZ ENDP			; std::logic_error::what
; Function compile flags: /Ogty
_TEXT	ENDS
;	COMDAT ??_Glogic_error@std@@UAEPAXI@Z
_TEXT	SEGMENT
___flags$ = 8						; size = 4
??_Glogic_error@std@@UAEPAXI@Z PROC NEAR		; std::logic_error::`scalar deleting destructor', COMDAT
; _this$ = ecx
  00000	56		 push	 esi
  00001	8b f1		 mov	 esi, ecx
  00003	e8 00 00 00 00	 call	 ??1logic_error@std@@UAE@XZ ; std::logic_error::~logic_error
  00008	f6 44 24 08 01	 test	 BYTE PTR ___flags$[esp], 1
  0000d	74 09		 je	 SHORT $L197545
  0000f	56		 push	 esi
  00010	e8 00 00 00 00	 call	 ??3@YAXPAX@Z		; operator delete
  00015	83 c4 04	 add	 esp, 4
$L197545:
  00018	8b c6		 mov	 eax, esi
  0001a	5e		 pop	 esi
  0001b	c2 04 00	 ret	 4
??_Glogic_error@std@@UAEPAXI@Z ENDP			; std::logic_error::`scalar deleting destructor'
_TEXT	ENDS
PUBLIC	?assign@?$basic_string@DU?$char_traits@D@std@@V?$allocator@D@2@@std@@QAEAAV12@ABV12@II@Z ; std::basic_string<char,std::char_traits<char>,std::allocator<char> >::assign
; Function compile flags: /Ogty
; File c:\program files\microsoft visual studio .net 2003\vc7\include\xstring
;	COMDAT ?assign@?$basic_string@DU?$char_traits@D@std@@V?$allocator@D@2@@std@@QAEAAV12@ABV12@II@Z
_TEXT	SEGMENT
__Right$ = 8						; size = 4
__Roff$ = 12						; size = 4
__Count$ = 16						; size = 4
?assign@?$basic_string@DU?$char_traits@D@std@@V?$allocator@D@2@@std@@QAEAAV12@ABV12@II@Z PROC NEAR ; std::basic_string<char,std::char_traits<char>,std::allocator<char> >::assign, COMDAT
; _this$ = ecx

; 590  : 		{	// assign _Right [_Roff, _Roff + _Count)

  00000	53		 push	 ebx
  00001	55		 push	 ebp
  00002	56		 push	 esi

; 591  : 		if (_Right.size() < _Roff)

  00003	8b 74 24 14	 mov	 esi, DWORD PTR __Roff$[esp+8]
  00007	57		 push	 edi
  00008	8b 7c 24 14	 mov	 edi, DWORD PTR __Right$[esp+12]
  0000c	39 77 14	 cmp	 DWORD PTR [edi+20], esi
  0000f	8b d9		 mov	 ebx, ecx
  00011	73 05		 jae	 SHORT $L184271

; 592  : 			_String_base::_Xran();	// _Roff off end

  00013	e8 00 00 00 00	 call	 ?_Xran@_String_base@std@@QBEXXZ ; std::_String_base::_Xran
$L184271:

; 593  : 		size_type _Num = _Right.size() - _Roff;

  00018	8b 6f 14	 mov	 ebp, DWORD PTR [edi+20]

; 594  : 		if (_Count < _Num)

  0001b	8b 44 24 1c	 mov	 eax, DWORD PTR __Count$[esp+12]
  0001f	2b ee		 sub	 ebp, esi
  00021	3b c5		 cmp	 eax, ebp
  00023	73 02		 jae	 SHORT $L184273

; 595  : 			_Num = _Count;	// trim _Num to size

  00025	8b e8		 mov	 ebp, eax
$L184273:

; 596  : 
; 597  : 		if (this == &_Right)

  00027	3b df		 cmp	 ebx, edi
  00029	75 1f		 jne	 SHORT $L184274

; 598  : 			erase((size_type)(_Roff + _Num)), erase(0, _Roff);	// substring

  0002b	6a ff		 push	 -1
  0002d	03 ee		 add	 ebp, esi
  0002f	55		 push	 ebp
  00030	8b cb		 mov	 ecx, ebx
  00032	e8 00 00 00 00	 call	 ?erase@?$basic_string@DU?$char_traits@D@std@@V?$allocator@D@2@@std@@QAEAAV12@II@Z ; std::basic_string<char,std::char_traits<char>,std::allocator<char> >::erase
  00037	56		 push	 esi
  00038	6a 00		 push	 0
  0003a	8b cb		 mov	 ecx, ebx
  0003c	e8 00 00 00 00	 call	 ?erase@?$basic_string@DU?$char_traits@D@std@@V?$allocator@D@2@@std@@QAEAAV12@II@Z ; std::basic_string<char,std::char_traits<char>,std::allocator<char> >::erase
  00041	5f		 pop	 edi
  00042	5e		 pop	 esi
  00043	5d		 pop	 ebp

; 603  : 			}
; 604  : 		return (*this);

  00044	8b c3		 mov	 eax, ebx
  00046	5b		 pop	 ebx

; 605  : 		}

  00047	c2 0c 00	 ret	 12			; 0000000cH
$L184274:

; 599  : 		else if (_Grow(_Num))

  0004a	83 fd fe	 cmp	 ebp, -2			; fffffffeH
  0004d	76 07		 jbe	 SHORT $L197662
  0004f	8b cb		 mov	 ecx, ebx
  00051	e8 00 00 00 00	 call	 ?_Xlen@_String_base@std@@QBEXXZ ; std::_String_base::_Xlen
$L197662:
  00056	8b 43 18	 mov	 eax, DWORD PTR [ebx+24]
  00059	3b c5		 cmp	 eax, ebp
  0005b	73 21		 jae	 SHORT $L197663
  0005d	8b 43 14	 mov	 eax, DWORD PTR [ebx+20]
  00060	50		 push	 eax
  00061	55		 push	 ebp
  00062	8b cb		 mov	 ecx, ebx
  00064	e8 00 00 00 00	 call	 ?_Copy@?$basic_string@DU?$char_traits@D@std@@V?$allocator@D@2@@std@@IAEXII@Z ; std::basic_string<char,std::char_traits<char>,std::allocator<char> >::_Copy
  00069	85 ed		 test	 ebp, ebp
$L197741:
  0006b	76 6d		 jbe	 SHORT $L197740

; 600  : 			{	// make room and assign new stuff
; 601  : 			_Traits::copy(_Myptr(), _Right._Myptr() + _Roff, _Num);

  0006d	8b 4f 18	 mov	 ecx, DWORD PTR [edi+24]
  00070	b8 10 00 00 00	 mov	 eax, 16			; 00000010H
  00075	3b c8		 cmp	 ecx, eax
  00077	72 2f		 jb	 SHORT $L197705
  00079	8b 57 04	 mov	 edx, DWORD PTR [edi+4]
  0007c	eb 2d		 jmp	 SHORT $L197706

; 599  : 		else if (_Grow(_Num))

$L197663:
  0007e	85 ed		 test	 ebp, ebp
  00080	75 e9		 jne	 SHORT $L197741
  00082	83 f8 10	 cmp	 eax, 16			; 00000010H
  00085	89 6b 14	 mov	 DWORD PTR [ebx+20], ebp
  00088	72 0f		 jb	 SHORT $L197653
  0008a	8b 43 04	 mov	 eax, DWORD PTR [ebx+4]
  0008d	5f		 pop	 edi
  0008e	5e		 pop	 esi
  0008f	c6 00 00	 mov	 BYTE PTR [eax], 0
  00092	5d		 pop	 ebp

; 603  : 			}
; 604  : 		return (*this);

  00093	8b c3		 mov	 eax, ebx
  00095	5b		 pop	 ebx

; 605  : 		}

  00096	c2 0c 00	 ret	 12			; 0000000cH

; 599  : 		else if (_Grow(_Num))

$L197653:
  00099	5f		 pop	 edi
  0009a	8d 43 04	 lea	 eax, DWORD PTR [ebx+4]
  0009d	5e		 pop	 esi
  0009e	c6 00 00	 mov	 BYTE PTR [eax], 0
  000a1	5d		 pop	 ebp

; 603  : 			}
; 604  : 		return (*this);

  000a2	8b c3		 mov	 eax, ebx
  000a4	5b		 pop	 ebx

; 605  : 		}

  000a5	c2 0c 00	 ret	 12			; 0000000cH

; 600  : 			{	// make room and assign new stuff
; 601  : 			_Traits::copy(_Myptr(), _Right._Myptr() + _Roff, _Num);

$L197705:
  000a8	8d 57 04	 lea	 edx, DWORD PTR [edi+4]
$L197706:
  000ab	39 43 18	 cmp	 DWORD PTR [ebx+24], eax
  000ae	8d 43 04	 lea	 eax, DWORD PTR [ebx+4]
  000b1	72 04		 jb	 SHORT $L197712
  000b3	8b 38		 mov	 edi, DWORD PTR [eax]
  000b5	eb 02		 jmp	 SHORT $L197713
$L197712:
  000b7	8b f8		 mov	 edi, eax
$L197713:
  000b9	03 f2		 add	 esi, edx
  000bb	8b cd		 mov	 ecx, ebp
  000bd	8b d1		 mov	 edx, ecx
  000bf	c1 e9 02	 shr	 ecx, 2
  000c2	f3 a5		 rep movsd
  000c4	8b ca		 mov	 ecx, edx
  000c6	83 e1 03	 and	 ecx, 3
  000c9	f3 a4		 rep movsb

; 602  : 			_Eos(_Num);

  000cb	83 7b 18 10	 cmp	 DWORD PTR [ebx+24], 16	; 00000010H
  000cf	89 6b 14	 mov	 DWORD PTR [ebx+20], ebp
  000d2	72 02		 jb	 SHORT $L197735
  000d4	8b 00		 mov	 eax, DWORD PTR [eax]
$L197735:
  000d6	c6 04 28 00	 mov	 BYTE PTR [eax+ebp], 0
$L197740:
  000da	5f		 pop	 edi
  000db	5e		 pop	 esi
  000dc	5d		 pop	 ebp

; 603  : 			}
; 604  : 		return (*this);

  000dd	8b c3		 mov	 eax, ebx
  000df	5b		 pop	 ebx

; 605  : 		}

  000e0	c2 0c 00	 ret	 12			; 0000000cH
?assign@?$basic_string@DU?$char_traits@D@std@@V?$allocator@D@2@@std@@QAEAAV12@ABV12@II@Z ENDP ; std::basic_string<char,std::char_traits<char>,std::allocator<char> >::assign
_TEXT	ENDS
PUBLIC	?assign@?$basic_string@DU?$char_traits@D@std@@V?$allocator@D@2@@std@@QAEAAV12@PBDI@Z ; std::basic_string<char,std::char_traits<char>,std::allocator<char> >::assign
; Function compile flags: /Ogty
;	COMDAT ?assign@?$basic_string@DU?$char_traits@D@std@@V?$allocator@D@2@@std@@QAEAAV12@PBDI@Z
_TEXT	SEGMENT
__Ptr$ = 8						; size = 4
__Num$ = 12						; size = 4
?assign@?$basic_string@DU?$char_traits@D@std@@V?$allocator@D@2@@std@@QAEAAV12@PBDI@Z PROC NEAR ; std::basic_string<char,std::char_traits<char>,std::allocator<char> >::assign, COMDAT
; _this$ = ecx

; 608  : 		{	// assign [_Ptr, _Ptr + _Num)

  00000	53		 push	 ebx
  00001	8b d9		 mov	 ebx, ecx

; 609  : 		if (_Inside(_Ptr))

  00003	8b 53 18	 mov	 edx, DWORD PTR [ebx+24]
  00006	83 fa 10	 cmp	 edx, 16			; 00000010H
  00009	56		 push	 esi
  0000a	57		 push	 edi
  0000b	72 05		 jb	 SHORT $L197761
  0000d	8b 43 04	 mov	 eax, DWORD PTR [ebx+4]
  00010	eb 03		 jmp	 SHORT $L197762
$L197761:
  00012	8d 43 04	 lea	 eax, DWORD PTR [ebx+4]
$L197762:
  00015	8b 74 24 10	 mov	 esi, DWORD PTR __Ptr$[esp+8]
  00019	3b f0		 cmp	 esi, eax
  0001b	72 34		 jb	 SHORT $L184989
  0001d	83 fa 10	 cmp	 edx, 16			; 00000010H
  00020	8d 43 04	 lea	 eax, DWORD PTR [ebx+4]
  00023	72 04		 jb	 SHORT $L197765
  00025	8b 08		 mov	 ecx, DWORD PTR [eax]
  00027	eb 02		 jmp	 SHORT $L197766
$L197765:
  00029	8b c8		 mov	 ecx, eax
$L197766:
  0002b	8b 7b 14	 mov	 edi, DWORD PTR [ebx+20]
  0002e	03 f9		 add	 edi, ecx
  00030	3b fe		 cmp	 edi, esi
  00032	76 1d		 jbe	 SHORT $L184989

; 610  : 			return (assign(*this, _Ptr - _Myptr(), _Num));	// substring

  00034	83 fa 10	 cmp	 edx, 16			; 00000010H
  00037	72 02		 jb	 SHORT $L197778
  00039	8b 00		 mov	 eax, DWORD PTR [eax]
$L197778:
  0003b	8b 4c 24 14	 mov	 ecx, DWORD PTR __Num$[esp+8]
  0003f	51		 push	 ecx
  00040	2b f0		 sub	 esi, eax
  00042	56		 push	 esi
  00043	53		 push	 ebx
  00044	8b cb		 mov	 ecx, ebx
  00046	e8 00 00 00 00	 call	 ?assign@?$basic_string@DU?$char_traits@D@std@@V?$allocator@D@2@@std@@QAEAAV12@ABV12@II@Z ; std::basic_string<char,std::char_traits<char>,std::allocator<char> >::assign
  0004b	5f		 pop	 edi
  0004c	5e		 pop	 esi
  0004d	5b		 pop	 ebx

; 618  : 		}

  0004e	c2 08 00	 ret	 8
$L184989:
  00051	55		 push	 ebp

; 611  : 
; 612  : 		if (_Grow(_Num))

  00052	8b 6c 24 18	 mov	 ebp, DWORD PTR __Num$[esp+12]
  00056	83 fd fe	 cmp	 ebp, -2			; fffffffeH
  00059	76 07		 jbe	 SHORT $L197919
  0005b	8b cb		 mov	 ecx, ebx
  0005d	e8 00 00 00 00	 call	 ?_Xlen@_String_base@std@@QBEXXZ ; std::_String_base::_Xlen
$L197919:
  00062	8b 43 18	 mov	 eax, DWORD PTR [ebx+24]
  00065	3b c5		 cmp	 eax, ebp
  00067	73 1b		 jae	 SHORT $L197920
  00069	8b 53 14	 mov	 edx, DWORD PTR [ebx+20]
  0006c	52		 push	 edx
  0006d	55		 push	 ebp
  0006e	8b cb		 mov	 ecx, ebx
  00070	e8 00 00 00 00	 call	 ?_Copy@?$basic_string@DU?$char_traits@D@std@@V?$allocator@D@2@@std@@IAEXII@Z ; std::basic_string<char,std::char_traits<char>,std::allocator<char> >::_Copy
  00075	85 ed		 test	 ebp, ebp
$L197958:
  00077	76 68		 jbe	 SHORT $L197955

; 613  : 			{	// make room and assign new stuff
; 614  : 			_Traits::copy(_Myptr(), _Ptr, _Num);

  00079	83 7b 18 10	 cmp	 DWORD PTR [ebx+24], 16	; 00000010H
  0007d	72 2f		 jb	 SHORT $L197929
  0007f	8b 7b 04	 mov	 edi, DWORD PTR [ebx+4]
  00082	eb 2d		 jmp	 SHORT $L197930

; 611  : 
; 612  : 		if (_Grow(_Num))

$L197920:
  00084	85 ed		 test	 ebp, ebp
  00086	75 ef		 jne	 SHORT $L197958
  00088	83 f8 10	 cmp	 eax, 16			; 00000010H
  0008b	89 6b 14	 mov	 DWORD PTR [ebx+20], ebp
  0008e	72 0f		 jb	 SHORT $L197912
  00090	8b 43 04	 mov	 eax, DWORD PTR [ebx+4]
  00093	5d		 pop	 ebp
  00094	5f		 pop	 edi
  00095	c6 00 00	 mov	 BYTE PTR [eax], 0
  00098	5e		 pop	 esi

; 616  : 			}
; 617  : 		return (*this);

  00099	8b c3		 mov	 eax, ebx
  0009b	5b		 pop	 ebx

; 618  : 		}

  0009c	c2 08 00	 ret	 8

; 611  : 
; 612  : 		if (_Grow(_Num))

$L197912:
  0009f	5d		 pop	 ebp
  000a0	8d 43 04	 lea	 eax, DWORD PTR [ebx+4]
  000a3	5f		 pop	 edi
  000a4	c6 00 00	 mov	 BYTE PTR [eax], 0
  000a7	5e		 pop	 esi

; 616  : 			}
; 617  : 		return (*this);

  000a8	8b c3		 mov	 eax, ebx
  000aa	5b		 pop	 ebx

; 618  : 		}

  000ab	c2 08 00	 ret	 8

; 613  : 			{	// make room and assign new stuff
; 614  : 			_Traits::copy(_Myptr(), _Ptr, _Num);

$L197929:
  000ae	8d 7b 04	 lea	 edi, DWORD PTR [ebx+4]
$L197930:
  000b1	8b cd		 mov	 ecx, ebp
  000b3	8b c1		 mov	 eax, ecx
  000b5	c1 e9 02	 shr	 ecx, 2
  000b8	f3 a5		 rep movsd
  000ba	8b c8		 mov	 ecx, eax
  000bc	83 e1 03	 and	 ecx, 3
  000bf	f3 a4		 rep movsb

; 615  : 			_Eos(_Num);

  000c1	83 7b 18 10	 cmp	 DWORD PTR [ebx+24], 16	; 00000010H
  000c5	89 6b 14	 mov	 DWORD PTR [ebx+20], ebp
  000c8	72 10		 jb	 SHORT $L197951
  000ca	8b 43 04	 mov	 eax, DWORD PTR [ebx+4]
  000cd	c6 04 28 00	 mov	 BYTE PTR [eax+ebp], 0
  000d1	5d		 pop	 ebp
  000d2	5f		 pop	 edi
  000d3	5e		 pop	 esi

; 616  : 			}
; 617  : 		return (*this);

  000d4	8b c3		 mov	 eax, ebx
  000d6	5b		 pop	 ebx

; 618  : 		}

  000d7	c2 08 00	 ret	 8

; 615  : 			_Eos(_Num);

$L197951:
  000da	8d 43 04	 lea	 eax, DWORD PTR [ebx+4]
  000dd	c6 04 28 00	 mov	 BYTE PTR [eax+ebp], 0
$L197955:
  000e1	5d		 pop	 ebp
  000e2	5f		 pop	 edi
  000e3	5e		 pop	 esi

; 616  : 			}
; 617  : 		return (*this);

  000e4	8b c3		 mov	 eax, ebx
  000e6	5b		 pop	 ebx

; 618  : 		}

  000e7	c2 08 00	 ret	 8
?assign@?$basic_string@DU?$char_traits@D@std@@V?$allocator@D@2@@std@@QAEAAV12@PBDI@Z ENDP ; std::basic_string<char,std::char_traits<char>,std::allocator<char> >::assign
_TEXT	ENDS
PUBLIC	??1?$vector@UGuildHouse_Furniture_Info@CGuildHouseBase@@V?$allocator@UGuildHouse_Furniture_Info@CGuildHouseBase@@@std@@@std@@QAE@XZ ; std::vector<CGuildHouseBase::GuildHouse_Furniture_Info,std::allocator<CGuildHouseBase::GuildHouse_Furniture_Info> >::~vector<CGuildHouseBase::GuildHouse_Furniture_Info,std::allocator<CGuildHouseBase::GuildHouse_Furniture_Info> >
; Function compile flags: /Ogty
; File c:\program files\microsoft visual studio .net 2003\vc7\include\vector
;	COMDAT ??1?$vector@UGuildHouse_Furniture_Info@CGuildHouseBase@@V?$allocator@UGuildHouse_Furniture_Info@CGuildHouseBase@@@std@@@std@@QAE@XZ
_TEXT	SEGMENT
??1?$vector@UGuildHouse_Furniture_Info@CGuildHouseBase@@V?$allocator@UGuildHouse_Furniture_Info@CGuildHouseBase@@@std@@@std@@QAE@XZ PROC NEAR ; std::vector<CGuildHouseBase::GuildHouse_Furniture_Info,std::allocator<CGuildHouseBase::GuildHouse_Furniture_Info> >::~vector<CGuildHouseBase::GuildHouse_Furniture_Info,std::allocator<CGuildHouseBase::GuildHouse_Furniture_Info> >, COMDAT
; _this$ = ecx

; 387  : 		{	// destroy the object

  00000	56		 push	 esi
  00001	8b f1		 mov	 esi, ecx

; 388  : 		_Tidy();

  00003	8b 46 04	 mov	 eax, DWORD PTR [esi+4]
  00006	85 c0		 test	 eax, eax
  00008	74 09		 je	 SHORT $L197969
  0000a	50		 push	 eax
  0000b	e8 00 00 00 00	 call	 ??3@YAXPAX@Z		; operator delete
  00010	83 c4 04	 add	 esp, 4
$L197969:
  00013	c7 46 04 00 00
	00 00		 mov	 DWORD PTR [esi+4], 0
  0001a	c7 46 08 00 00
	00 00		 mov	 DWORD PTR [esi+8], 0
  00021	c7 46 0c 00 00
	00 00		 mov	 DWORD PTR [esi+12], 0
  00028	5e		 pop	 esi

; 389  : 		}

  00029	c3		 ret	 0
??1?$vector@UGuildHouse_Furniture_Info@CGuildHouseBase@@V?$allocator@UGuildHouse_Furniture_Info@CGuildHouseBase@@@std@@@std@@QAE@XZ ENDP ; std::vector<CGuildHouseBase::GuildHouse_Furniture_Info,std::allocator<CGuildHouseBase::GuildHouse_Furniture_Info> >::~vector<CGuildHouseBase::GuildHouse_Furniture_Info,std::allocator<CGuildHouseBase::GuildHouse_Furniture_Info> >
_TEXT	ENDS
PUBLIC	?erase@?$vector@UGuildHouse_Furniture_Info@CGuildHouseBase@@V?$allocator@UGuildHouse_Furniture_Info@CGuildHouseBase@@@std@@@std@@QAE?AViterator@12@V312@@Z ; std::vector<CGuildHouseBase::GuildHouse_Furniture_Info,std::allocator<CGuildHouseBase::GuildHouse_Furniture_Info> >::erase
; Function compile flags: /Ogty
;	COMDAT ?erase@?$vector@UGuildHouse_Furniture_Info@CGuildHouseBase@@V?$allocator@UGuildHouse_Furniture_Info@CGuildHouseBase@@@std@@@std@@QAE?AViterator@12@V312@@Z
_TEXT	SEGMENT
___$ReturnUdt$ = 8					; size = 4
__Where$ = 12						; size = 4
?erase@?$vector@UGuildHouse_Furniture_Info@CGuildHouseBase@@V?$allocator@UGuildHouse_Furniture_Info@CGuildHouseBase@@@std@@@std@@QAE?AViterator@12@V312@@Z PROC NEAR ; std::vector<CGuildHouseBase::GuildHouse_Furniture_Info,std::allocator<CGuildHouseBase::GuildHouse_Furniture_Info> >::erase, COMDAT
; _this$ = ecx

; 724  : 		copy(_ITER_BASE(_Where) + 1, _Mylast, _ITER_BASE(_Where));

  00000	8b 44 24 08	 mov	 eax, DWORD PTR __Where$[esp-4]
  00004	53		 push	 ebx
  00005	55		 push	 ebp
  00006	8b e9		 mov	 ebp, ecx
  00008	8b 5d 08	 mov	 ebx, DWORD PTR [ebp+8]
  0000b	83 c0 24	 add	 eax, 36			; 00000024H
  0000e	3b c3		 cmp	 eax, ebx
  00010	74 1c		 je	 SHORT $L197997
  00012	56		 push	 esi
  00013	8d 50 dc	 lea	 edx, DWORD PTR [eax-36]
  00016	57		 push	 edi
$L197995:
  00017	8b f0		 mov	 esi, eax
  00019	8b fa		 mov	 edi, edx
  0001b	83 c0 24	 add	 eax, 36			; 00000024H
  0001e	b9 09 00 00 00	 mov	 ecx, 9
  00023	83 c2 24	 add	 edx, 36			; 00000024H
  00026	3b c3		 cmp	 eax, ebx
  00028	f3 a5		 rep movsd
  0002a	75 eb		 jne	 SHORT $L197995
  0002c	5f		 pop	 edi
  0002d	5e		 pop	 esi
$L197997:

; 725  : 		_Destroy(_Mylast - 1, _Mylast);
; 726  : 		--_Mylast;

  0002e	8b 45 08	 mov	 eax, DWORD PTR [ebp+8]

; 727  : 		return (_Where);

  00031	8b 4c 24 10	 mov	 ecx, DWORD PTR __Where$[esp+4]
  00035	83 c0 dc	 add	 eax, -36		; ffffffdcH
  00038	89 45 08	 mov	 DWORD PTR [ebp+8], eax
  0003b	8b 44 24 0c	 mov	 eax, DWORD PTR ___$ReturnUdt$[esp+4]
  0003f	5d		 pop	 ebp
  00040	89 08		 mov	 DWORD PTR [eax], ecx
  00042	5b		 pop	 ebx

; 728  : 		}

  00043	c2 08 00	 ret	 8
?erase@?$vector@UGuildHouse_Furniture_Info@CGuildHouseBase@@V?$allocator@UGuildHouse_Furniture_Info@CGuildHouseBase@@@std@@@std@@QAE?AViterator@12@V312@@Z ENDP ; std::vector<CGuildHouseBase::GuildHouse_Furniture_Info,std::allocator<CGuildHouseBase::GuildHouse_Furniture_Info> >::erase
_TEXT	ENDS
PUBLIC	?clear@?$vector@UGuildHouse_Furniture_Info@CGuildHouseBase@@V?$allocator@UGuildHouse_Furniture_Info@CGuildHouseBase@@@std@@@std@@QAEXXZ ; std::vector<CGuildHouseBase::GuildHouse_Furniture_Info,std::allocator<CGuildHouseBase::GuildHouse_Furniture_Info> >::clear
; Function compile flags: /Ogty
;	COMDAT ?clear@?$vector@UGuildHouse_Furniture_Info@CGuildHouseBase@@V?$allocator@UGuildHouse_Furniture_Info@CGuildHouseBase@@@std@@@std@@QAEXXZ
_TEXT	SEGMENT
?clear@?$vector@UGuildHouse_Furniture_Info@CGuildHouseBase@@V?$allocator@UGuildHouse_Furniture_Info@CGuildHouseBase@@@std@@@std@@QAEXXZ PROC NEAR ; std::vector<CGuildHouseBase::GuildHouse_Furniture_Info,std::allocator<CGuildHouseBase::GuildHouse_Furniture_Info> >::clear, COMDAT
; _this$ = ecx

; 743  : 		{	// erase all

  00000	56		 push	 esi
  00001	8b f1		 mov	 esi, ecx

; 744  : 		_Tidy();

  00003	8b 46 04	 mov	 eax, DWORD PTR [esi+4]
  00006	85 c0		 test	 eax, eax
  00008	74 09		 je	 SHORT $L198016
  0000a	50		 push	 eax
  0000b	e8 00 00 00 00	 call	 ??3@YAXPAX@Z		; operator delete
  00010	83 c4 04	 add	 esp, 4
$L198016:
  00013	c7 46 04 00 00
	00 00		 mov	 DWORD PTR [esi+4], 0
  0001a	c7 46 08 00 00
	00 00		 mov	 DWORD PTR [esi+8], 0
  00021	c7 46 0c 00 00
	00 00		 mov	 DWORD PTR [esi+12], 0
  00028	5e		 pop	 esi

; 745  : 		}

  00029	c3		 ret	 0
?clear@?$vector@UGuildHouse_Furniture_Info@CGuildHouseBase@@V?$allocator@UGuildHouse_Furniture_Info@CGuildHouseBase@@@std@@@std@@QAEXXZ ENDP ; std::vector<CGuildHouseBase::GuildHouse_Furniture_Info,std::allocator<CGuildHouseBase::GuildHouse_Furniture_Info> >::clear
_TEXT	ENDS
PUBLIC	??0?$basic_string@DU?$char_traits@D@std@@V?$allocator@D@2@@std@@QAE@ABV01@@Z ; std::basic_string<char,std::char_traits<char>,std::allocator<char> >::basic_string<char,std::char_traits<char>,std::allocator<char> >
; Function compile flags: /Ogty
; File c:\program files\microsoft visual studio .net 2003\vc7\include\xstring
;	COMDAT ??0?$basic_string@DU?$char_traits@D@std@@V?$allocator@D@2@@std@@QAE@ABV01@@Z
_TEXT	SEGMENT
__Right$ = 8						; size = 4
??0?$basic_string@DU?$char_traits@D@std@@V?$allocator@D@2@@std@@QAE@ABV01@@Z PROC NEAR ; std::basic_string<char,std::char_traits<char>,std::allocator<char> >::basic_string<char,std::char_traits<char>,std::allocator<char> >, COMDAT
; _this$ = ecx

; 323  : 		{	// construct by copying _Right

  00000	56		 push	 esi

; 324  : 		_Tidy();

  00001	33 c0		 xor	 eax, eax
  00003	8b f1		 mov	 esi, ecx

; 325  : 		assign(_Right, 0, npos);

  00005	6a ff		 push	 -1
  00007	89 46 14	 mov	 DWORD PTR [esi+20], eax
  0000a	c7 46 18 0f 00
	00 00		 mov	 DWORD PTR [esi+24], 15	; 0000000fH
  00011	50		 push	 eax
  00012	88 46 04	 mov	 BYTE PTR [esi+4], al
  00015	8b 44 24 10	 mov	 eax, DWORD PTR __Right$[esp+8]
  00019	50		 push	 eax
  0001a	e8 00 00 00 00	 call	 ?assign@?$basic_string@DU?$char_traits@D@std@@V?$allocator@D@2@@std@@QAEAAV12@ABV12@II@Z ; std::basic_string<char,std::char_traits<char>,std::allocator<char> >::assign

; 326  : 		}

  0001f	8b c6		 mov	 eax, esi
  00021	5e		 pop	 esi
  00022	c2 04 00	 ret	 4
??0?$basic_string@DU?$char_traits@D@std@@V?$allocator@D@2@@std@@QAE@ABV01@@Z ENDP ; std::basic_string<char,std::char_traits<char>,std::allocator<char> >::basic_string<char,std::char_traits<char>,std::allocator<char> >
_TEXT	ENDS
PUBLIC	?assign@?$basic_string@DU?$char_traits@D@std@@V?$allocator@D@2@@std@@QAEAAV12@PBD@Z ; std::basic_string<char,std::char_traits<char>,std::allocator<char> >::assign
; Function compile flags: /Ogty
;	COMDAT ?assign@?$basic_string@DU?$char_traits@D@std@@V?$allocator@D@2@@std@@QAEAAV12@PBD@Z
_TEXT	SEGMENT
__Ptr$ = 8						; size = 4
?assign@?$basic_string@DU?$char_traits@D@std@@V?$allocator@D@2@@std@@QAEAAV12@PBD@Z PROC NEAR ; std::basic_string<char,std::char_traits<char>,std::allocator<char> >::assign, COMDAT
; _this$ = ecx

; 621  : 		{	// assign [_Ptr, <null>)

  00000	56		 push	 esi

; 622  : 		return (assign(_Ptr, _Traits::length(_Ptr)));

  00001	8b 74 24 08	 mov	 esi, DWORD PTR __Ptr$[esp]
  00005	8b c6		 mov	 eax, esi
  00007	57		 push	 edi
  00008	8d 78 01	 lea	 edi, DWORD PTR [eax+1]
  0000b	eb 03 8d 49 00	 npad	 5
$L198088:
  00010	8a 10		 mov	 dl, BYTE PTR [eax]
  00012	40		 inc	 eax
  00013	84 d2		 test	 dl, dl
  00015	75 f9		 jne	 SHORT $L198088
  00017	2b c7		 sub	 eax, edi
  00019	50		 push	 eax
  0001a	56		 push	 esi
  0001b	e8 00 00 00 00	 call	 ?assign@?$basic_string@DU?$char_traits@D@std@@V?$allocator@D@2@@std@@QAEAAV12@PBDI@Z ; std::basic_string<char,std::char_traits<char>,std::allocator<char> >::assign
  00020	5f		 pop	 edi
  00021	5e		 pop	 esi

; 623  : 		}

  00022	c2 04 00	 ret	 4
?assign@?$basic_string@DU?$char_traits@D@std@@V?$allocator@D@2@@std@@QAEAAV12@PBD@Z ENDP ; std::basic_string<char,std::char_traits<char>,std::allocator<char> >::assign
_TEXT	ENDS
PUBLIC	?Clear@CGuildHouseBase@@QAEXXZ			; CGuildHouseBase::Clear
; Function compile flags: /Ogty
; File c:\documents and settings\test\mes documents\source\virtuos_v17\build\program\_common\guildhouse.cpp
;	COMDAT ?Clear@CGuildHouseBase@@QAEXXZ
_TEXT	SEGMENT
?Clear@CGuildHouseBase@@QAEXXZ PROC NEAR		; CGuildHouseBase::Clear, COMDAT
; _this$ = ecx

; 99   : {

  00000	56		 push	 esi
  00001	8b f1		 mov	 esi, ecx

; 100  : #ifdef __WORLDSERVER
; 101  : 	DestroyGuildHouseRoom();
; 102  : 	for( int i=0; i<(int)( m_vecFntInfo.size() ); i++ )
; 103  : 	{
; 104  : 		if( m_vecFntInfo[i].bSetup )
; 105  : 			ResetDSTFunriture( prj.GetItemProp( m_vecFntInfo[i].dwItemId ) );
; 106  : 	}
; 107  : #endif // __WORLDSERVER
; 108  : 	m_vecFntInfo.clear();

  00003	8b 46 10	 mov	 eax, DWORD PTR [esi+16]
  00006	85 c0		 test	 eax, eax
  00008	74 09		 je	 SHORT $L198109
  0000a	50		 push	 eax
  0000b	e8 00 00 00 00	 call	 ??3@YAXPAX@Z		; operator delete
  00010	83 c4 04	 add	 esp, 4
$L198109:
  00013	c7 46 10 00 00
	00 00		 mov	 DWORD PTR [esi+16], 0
  0001a	c7 46 14 00 00
	00 00		 mov	 DWORD PTR [esi+20], 0
  00021	c7 46 18 00 00
	00 00		 mov	 DWORD PTR [esi+24], 0
  00028	5e		 pop	 esi

; 109  : }

  00029	c3		 ret	 0
?Clear@CGuildHouseBase@@QAEXXZ ENDP			; CGuildHouseBase::Clear
_TEXT	ENDS
PUBLIC	?ListDropFurniture@CGuildHouseBase@@AAEHH@Z	; CGuildHouseBase::ListDropFurniture
; Function compile flags: /Ogty
;	COMDAT ?ListDropFurniture@CGuildHouseBase@@AAEHH@Z
_TEXT	SEGMENT
$T198115 = 8						; size = 4
_nIndex$ = 8						; size = 4
?ListDropFurniture@CGuildHouseBase@@AAEHH@Z PROC NEAR	; CGuildHouseBase::ListDropFurniture, COMDAT
; _this$ = ecx

; 839  : {

  00000	56		 push	 esi
  00001	8b f1		 mov	 esi, ecx

; 840  : 	if( (int)( m_vecFntInfo.size() ) <= nIndex )

  00003	8b 46 10	 mov	 eax, DWORD PTR [esi+16]
  00006	85 c0		 test	 eax, eax
  00008	8d 4e 0c	 lea	 ecx, DWORD PTR [esi+12]
  0000b	74 16		 je	 SHORT $L198122
$L198121:
  0000d	8b 51 08	 mov	 edx, DWORD PTR [ecx+8]
  00010	2b d0		 sub	 edx, eax
  00012	b8 39 8e e3 38	 mov	 eax, 954437177		; 38e38e39H
  00017	f7 ea		 imul	 edx
  00019	c1 fa 03	 sar	 edx, 3
  0001c	8b c2		 mov	 eax, edx
  0001e	c1 e8 1f	 shr	 eax, 31			; 0000001fH
  00021	03 c2		 add	 eax, edx
$L198122:
  00023	8b 54 24 08	 mov	 edx, DWORD PTR _nIndex$[esp]
  00027	3b c2		 cmp	 eax, edx
  00029	7f 06		 jg	 SHORT $L192299

; 841  : 		return FALSE;

  0002b	33 c0		 xor	 eax, eax
  0002d	5e		 pop	 esi

; 850  : }

  0002e	c2 04 00	 ret	 4
$L192299:

; 842  : #ifdef __WORLDSERVER
; 843  : 	if( m_vecFntInfo[nIndex].bSetup == TRUE )
; 844  : 		RemoveFurnitureCtrl( nIndex, m_vecFntInfo[nIndex] );
; 845  : 
; 846  : 	g_dpDBClient.SendLogGuildFurniture( m_dwGuildId, m_vecFntInfo[nIndex], 'D' );
; 847  : #endif // __WORLDSERVER
; 848  : 	m_vecFntInfo.erase( m_vecFntInfo.begin() + nIndex );

  00031	8d 04 d2	 lea	 eax, DWORD PTR [edx+edx*8]
  00034	8b 56 10	 mov	 edx, DWORD PTR [esi+16]
  00037	8d 04 82	 lea	 eax, DWORD PTR [edx+eax*4]
  0003a	50		 push	 eax
  0003b	8d 44 24 0c	 lea	 eax, DWORD PTR $T198115[esp+4]
  0003f	50		 push	 eax
  00040	e8 00 00 00 00	 call	 ?erase@?$vector@UGuildHouse_Furniture_Info@CGuildHouseBase@@V?$allocator@UGuildHouse_Furniture_Info@CGuildHouseBase@@@std@@@std@@QAE?AViterator@12@V312@@Z ; std::vector<CGuildHouseBase::GuildHouse_Furniture_Info,std::allocator<CGuildHouseBase::GuildHouse_Furniture_Info> >::erase

; 849  : 	return TRUE;

  00045	b8 01 00 00 00	 mov	 eax, 1
  0004a	5e		 pop	 esi

; 850  : }

  0004b	c2 04 00	 ret	 4
?ListDropFurniture@CGuildHouseBase@@AAEHH@Z ENDP	; CGuildHouseBase::ListDropFurniture
_TEXT	ENDS
PUBLIC	??0logic_error@std@@QAE@ABV?$basic_string@DU?$char_traits@D@std@@V?$allocator@D@2@@1@@Z ; std::logic_error::logic_error
EXTRN	??0exception@@QAE@XZ:NEAR			; exception::exception
;	COMDAT xdata$x
; File c:\program files\microsoft visual studio .net 2003\vc7\include\iosfwd
xdata$x	SEGMENT
$T198251 DD	0ffffffffH
	DD	FLAT:$L198151
$T198249 DD	019930520H
	DD	01H
	DD	FLAT:$T198251
	DD	2 DUP(00H)
	DD	2 DUP(00H)
; Function compile flags: /Ogty
; File c:\program files\microsoft visual studio .net 2003\vc7\include\stdexcept
xdata$x	ENDS
;	COMDAT ??0logic_error@std@@QAE@ABV?$basic_string@DU?$char_traits@D@std@@V?$allocator@D@2@@1@@Z
_TEXT	SEGMENT
_this$ = -16						; size = 4
__$EHRec$ = -12						; size = 12
__Message$ = 8						; size = 4
??0logic_error@std@@QAE@ABV?$basic_string@DU?$char_traits@D@std@@V?$allocator@D@2@@1@@Z PROC NEAR ; std::logic_error::logic_error, COMDAT
; _this$ = ecx

; 19   : 		{	// construct from message string

  00000	6a ff		 push	 -1
  00002	68 00 00 00 00	 push	 __ehhandler$??0logic_error@std@@QAE@ABV?$basic_string@DU?$char_traits@D@std@@V?$allocator@D@2@@1@@Z
  00007	64 a1 00 00 00
	00		 mov	 eax, DWORD PTR fs:__except_list
  0000d	50		 push	 eax
  0000e	64 89 25 00 00
	00 00		 mov	 DWORD PTR fs:__except_list, esp
  00015	51		 push	 ecx
  00016	56		 push	 esi
  00017	8b f1		 mov	 esi, ecx
  00019	89 74 24 04	 mov	 DWORD PTR _this$[esp+20], esi
  0001d	e8 00 00 00 00	 call	 ??0exception@@QAE@XZ	; exception::exception
  00022	33 c0		 xor	 eax, eax
  00024	8d 4e 0c	 lea	 ecx, DWORD PTR [esi+12]
  00027	c7 06 00 00 00
	00		 mov	 DWORD PTR [esi], OFFSET FLAT:??_7logic_error@std@@6B@
  0002d	6a ff		 push	 -1
  0002f	89 41 14	 mov	 DWORD PTR [ecx+20], eax
  00032	c7 41 18 0f 00
	00 00		 mov	 DWORD PTR [ecx+24], 15	; 0000000fH
  00039	50		 push	 eax
  0003a	89 44 24 18	 mov	 DWORD PTR __$EHRec$[esp+36], eax
  0003e	88 41 04	 mov	 BYTE PTR [ecx+4], al
  00041	8b 44 24 20	 mov	 eax, DWORD PTR __Message$[esp+24]
  00045	50		 push	 eax
  00046	e8 00 00 00 00	 call	 ?assign@?$basic_string@DU?$char_traits@D@std@@V?$allocator@D@2@@std@@QAEAAV12@ABV12@II@Z ; std::basic_string<char,std::char_traits<char>,std::allocator<char> >::assign

; 20   : 		}

  0004b	8b 4c 24 08	 mov	 ecx, DWORD PTR __$EHRec$[esp+20]
  0004f	8b c6		 mov	 eax, esi
  00051	5e		 pop	 esi
  00052	64 89 0d 00 00
	00 00		 mov	 DWORD PTR fs:__except_list, ecx
  00059	83 c4 10	 add	 esp, 16			; 00000010H
  0005c	c2 04 00	 ret	 4
_TEXT	ENDS
;	COMDAT text$x
text$x	SEGMENT
$L198151:
  00000	8b 4d f0	 mov	 ecx, DWORD PTR _this$[ebp]
  00003	e9 00 00 00 00	 jmp	 ??1exception@@UAE@XZ	; exception::~exception
__ehhandler$??0logic_error@std@@QAE@ABV?$basic_string@DU?$char_traits@D@std@@V?$allocator@D@2@@1@@Z:
  00008	b8 00 00 00 00	 mov	 eax, OFFSET FLAT:$T198249
  0000d	e9 00 00 00 00	 jmp	 ___CxxFrameHandler
text$x	ENDS
??0logic_error@std@@QAE@ABV?$basic_string@DU?$char_traits@D@std@@V?$allocator@D@2@@1@@Z ENDP ; std::logic_error::logic_error
PUBLIC	??0length_error@std@@QAE@ABV?$basic_string@DU?$char_traits@D@std@@V?$allocator@D@2@@1@@Z ; std::length_error::length_error
PUBLIC	??_7length_error@std@@6B@			; std::length_error::`vftable'
PUBLIC	??_Glength_error@std@@UAEPAXI@Z			; std::length_error::`scalar deleting destructor'
EXTRN	??_Elength_error@std@@UAEPAXI@Z:NEAR		; std::length_error::`vector deleting destructor'
;	COMDAT ??_7length_error@std@@6B@
CONST	SEGMENT
??_7length_error@std@@6B@ DD FLAT:??_Elength_error@std@@UAEPAXI@Z ; std::length_error::`vftable'
	DD	FLAT:?what@logic_error@std@@UBEPBDXZ
; Function compile flags: /Ogty
CONST	ENDS
;	COMDAT ??0length_error@std@@QAE@ABV?$basic_string@DU?$char_traits@D@std@@V?$allocator@D@2@@1@@Z
_TEXT	SEGMENT
__Message$ = 8						; size = 4
??0length_error@std@@QAE@ABV?$basic_string@DU?$char_traits@D@std@@V?$allocator@D@2@@1@@Z PROC NEAR ; std::length_error::length_error, COMDAT
; _this$ = ecx

; 95   : 		{	// construct from message string

  00000	8b 44 24 04	 mov	 eax, DWORD PTR __Message$[esp-4]
  00004	56		 push	 esi
  00005	50		 push	 eax
  00006	8b f1		 mov	 esi, ecx
  00008	e8 00 00 00 00	 call	 ??0logic_error@std@@QAE@ABV?$basic_string@DU?$char_traits@D@std@@V?$allocator@D@2@@1@@Z ; std::logic_error::logic_error
  0000d	c7 06 00 00 00
	00		 mov	 DWORD PTR [esi], OFFSET FLAT:??_7length_error@std@@6B@

; 96   : 		}

  00013	8b c6		 mov	 eax, esi
  00015	5e		 pop	 esi
  00016	c2 04 00	 ret	 4
??0length_error@std@@QAE@ABV?$basic_string@DU?$char_traits@D@std@@V?$allocator@D@2@@1@@Z ENDP ; std::length_error::length_error
_TEXT	ENDS
PUBLIC	??1length_error@std@@UAE@XZ			; std::length_error::~length_error
; Function compile flags: /Ogty
;	COMDAT ??_Glength_error@std@@UAEPAXI@Z
_TEXT	SEGMENT
___flags$ = 8						; size = 4
??_Glength_error@std@@UAEPAXI@Z PROC NEAR		; std::length_error::`scalar deleting destructor', COMDAT
; _this$ = ecx
  00000	56		 push	 esi
  00001	8b f1		 mov	 esi, ecx
  00003	e8 00 00 00 00	 call	 ??1length_error@std@@UAE@XZ ; std::length_error::~length_error
  00008	f6 44 24 08 01	 test	 BYTE PTR ___flags$[esp], 1
  0000d	74 09		 je	 SHORT $L198259
  0000f	56		 push	 esi
  00010	e8 00 00 00 00	 call	 ??3@YAXPAX@Z		; operator delete
  00015	83 c4 04	 add	 esp, 4
$L198259:
  00018	8b c6		 mov	 eax, esi
  0001a	5e		 pop	 esi
  0001b	c2 04 00	 ret	 4
??_Glength_error@std@@UAEPAXI@Z ENDP			; std::length_error::`scalar deleting destructor'
; Function compile flags: /Ogty
_TEXT	ENDS
;	COMDAT ??1length_error@std@@UAE@XZ
_TEXT	SEGMENT
??1length_error@std@@UAE@XZ PROC NEAR			; std::length_error::~length_error, COMDAT
; _this$ = ecx

; 99   : 		{}	// destroy the object

  00000	56		 push	 esi
  00001	8b f1		 mov	 esi, ecx
  00003	c7 06 00 00 00
	00		 mov	 DWORD PTR [esi], OFFSET FLAT:??_7logic_error@std@@6B@
  00009	83 7e 24 10	 cmp	 DWORD PTR [esi+36], 16	; 00000010H
  0000d	72 0c		 jb	 SHORT $L198353
  0000f	8b 46 10	 mov	 eax, DWORD PTR [esi+16]
  00012	50		 push	 eax
  00013	e8 00 00 00 00	 call	 ??3@YAXPAX@Z		; operator delete
  00018	83 c4 04	 add	 esp, 4
$L198353:
  0001b	33 c0		 xor	 eax, eax
  0001d	c7 46 24 0f 00
	00 00		 mov	 DWORD PTR [esi+36], 15	; 0000000fH
  00024	89 46 20	 mov	 DWORD PTR [esi+32], eax
  00027	88 46 10	 mov	 BYTE PTR [esi+16], al
  0002a	8b ce		 mov	 ecx, esi
  0002c	5e		 pop	 esi
  0002d	e9 00 00 00 00	 jmp	 ??1exception@@UAE@XZ	; exception::~exception
??1length_error@std@@UAE@XZ ENDP			; std::length_error::~length_error
_TEXT	ENDS
PUBLIC	??0out_of_range@std@@QAE@ABV?$basic_string@DU?$char_traits@D@std@@V?$allocator@D@2@@1@@Z ; std::out_of_range::out_of_range
PUBLIC	??_7out_of_range@std@@6B@			; std::out_of_range::`vftable'
PUBLIC	??_Gout_of_range@std@@UAEPAXI@Z			; std::out_of_range::`scalar deleting destructor'
EXTRN	??_Eout_of_range@std@@UAEPAXI@Z:NEAR		; std::out_of_range::`vector deleting destructor'
;	COMDAT ??_7out_of_range@std@@6B@
CONST	SEGMENT
??_7out_of_range@std@@6B@ DD FLAT:??_Eout_of_range@std@@UAEPAXI@Z ; std::out_of_range::`vftable'
	DD	FLAT:?what@logic_error@std@@UBEPBDXZ
; Function compile flags: /Ogty
CONST	ENDS
;	COMDAT ??0out_of_range@std@@QAE@ABV?$basic_string@DU?$char_traits@D@std@@V?$allocator@D@2@@1@@Z
_TEXT	SEGMENT
__Message$ = 8						; size = 4
??0out_of_range@std@@QAE@ABV?$basic_string@DU?$char_traits@D@std@@V?$allocator@D@2@@1@@Z PROC NEAR ; std::out_of_range::out_of_range, COMDAT
; _this$ = ecx

; 118  : 		{	// construct from message string

  00000	8b 44 24 04	 mov	 eax, DWORD PTR __Message$[esp-4]
  00004	56		 push	 esi
  00005	50		 push	 eax
  00006	8b f1		 mov	 esi, ecx
  00008	e8 00 00 00 00	 call	 ??0logic_error@std@@QAE@ABV?$basic_string@DU?$char_traits@D@std@@V?$allocator@D@2@@1@@Z ; std::logic_error::logic_error
  0000d	c7 06 00 00 00
	00		 mov	 DWORD PTR [esi], OFFSET FLAT:??_7out_of_range@std@@6B@

; 119  : 		}

  00013	8b c6		 mov	 eax, esi
  00015	5e		 pop	 esi
  00016	c2 04 00	 ret	 4
??0out_of_range@std@@QAE@ABV?$basic_string@DU?$char_traits@D@std@@V?$allocator@D@2@@1@@Z ENDP ; std::out_of_range::out_of_range
_TEXT	ENDS
PUBLIC	??1out_of_range@std@@UAE@XZ			; std::out_of_range::~out_of_range
; Function compile flags: /Ogty
;	COMDAT ??_Gout_of_range@std@@UAEPAXI@Z
_TEXT	SEGMENT
___flags$ = 8						; size = 4
??_Gout_of_range@std@@UAEPAXI@Z PROC NEAR		; std::out_of_range::`scalar deleting destructor', COMDAT
; _this$ = ecx
  00000	56		 push	 esi
  00001	8b f1		 mov	 esi, ecx
  00003	e8 00 00 00 00	 call	 ??1out_of_range@std@@UAE@XZ ; std::out_of_range::~out_of_range
  00008	f6 44 24 08 01	 test	 BYTE PTR ___flags$[esp], 1
  0000d	74 09		 je	 SHORT $L198370
  0000f	56		 push	 esi
  00010	e8 00 00 00 00	 call	 ??3@YAXPAX@Z		; operator delete
  00015	83 c4 04	 add	 esp, 4
$L198370:
  00018	8b c6		 mov	 eax, esi
  0001a	5e		 pop	 esi
  0001b	c2 04 00	 ret	 4
??_Gout_of_range@std@@UAEPAXI@Z ENDP			; std::out_of_range::`scalar deleting destructor'
; Function compile flags: /Ogty
_TEXT	ENDS
;	COMDAT ??1out_of_range@std@@UAE@XZ
_TEXT	SEGMENT
??1out_of_range@std@@UAE@XZ PROC NEAR			; std::out_of_range::~out_of_range, COMDAT
; _this$ = ecx

; 122  : 		{}	// destroy the object

  00000	56		 push	 esi
  00001	8b f1		 mov	 esi, ecx
  00003	c7 06 00 00 00
	00		 mov	 DWORD PTR [esi], OFFSET FLAT:??_7logic_error@std@@6B@
  00009	83 7e 24 10	 cmp	 DWORD PTR [esi+36], 16	; 00000010H
  0000d	72 0c		 jb	 SHORT $L198463
  0000f	8b 46 10	 mov	 eax, DWORD PTR [esi+16]
  00012	50		 push	 eax
  00013	e8 00 00 00 00	 call	 ??3@YAXPAX@Z		; operator delete
  00018	83 c4 04	 add	 esp, 4
$L198463:
  0001b	33 c0		 xor	 eax, eax
  0001d	c7 46 24 0f 00
	00 00		 mov	 DWORD PTR [esi+36], 15	; 0000000fH
  00024	89 46 20	 mov	 DWORD PTR [esi+32], eax
  00027	88 46 10	 mov	 BYTE PTR [esi+16], al
  0002a	8b ce		 mov	 ecx, esi
  0002c	5e		 pop	 esi
  0002d	e9 00 00 00 00	 jmp	 ??1exception@@UAE@XZ	; exception::~exception
??1out_of_range@std@@UAE@XZ ENDP			; std::out_of_range::~out_of_range
_TEXT	ENDS
PUBLIC	??0?$basic_string@DU?$char_traits@D@std@@V?$allocator@D@2@@std@@QAE@PBD@Z ; std::basic_string<char,std::char_traits<char>,std::allocator<char> >::basic_string<char,std::char_traits<char>,std::allocator<char> >
; Function compile flags: /Ogty
; File c:\program files\microsoft visual studio .net 2003\vc7\include\xstring
;	COMDAT ??0?$basic_string@DU?$char_traits@D@std@@V?$allocator@D@2@@std@@QAE@PBD@Z
_TEXT	SEGMENT
__Ptr$ = 8						; size = 4
??0?$basic_string@DU?$char_traits@D@std@@V?$allocator@D@2@@std@@QAE@PBD@Z PROC NEAR ; std::basic_string<char,std::char_traits<char>,std::allocator<char> >::basic_string<char,std::char_traits<char>,std::allocator<char> >, COMDAT
; _this$ = ecx

; 361  : 		_Tidy();
; 362  : 		assign(_Ptr);

  00000	8b 54 24 04	 mov	 edx, DWORD PTR __Ptr$[esp-4]
  00004	56		 push	 esi
  00005	8b f1		 mov	 esi, ecx
  00007	8b c2		 mov	 eax, edx
  00009	57		 push	 edi
  0000a	c7 46 18 0f 00
	00 00		 mov	 DWORD PTR [esi+24], 15	; 0000000fH
  00011	c7 46 14 00 00
	00 00		 mov	 DWORD PTR [esi+20], 0
  00018	c6 46 04 00	 mov	 BYTE PTR [esi+4], 0
  0001c	8d 78 01	 lea	 edi, DWORD PTR [eax+1]
  0001f	90		 npad	 1
$L198550:
  00020	8a 08		 mov	 cl, BYTE PTR [eax]
  00022	40		 inc	 eax
  00023	84 c9		 test	 cl, cl
  00025	75 f9		 jne	 SHORT $L198550
  00027	2b c7		 sub	 eax, edi
  00029	50		 push	 eax
  0002a	52		 push	 edx
  0002b	8b ce		 mov	 ecx, esi
  0002d	e8 00 00 00 00	 call	 ?assign@?$basic_string@DU?$char_traits@D@std@@V?$allocator@D@2@@std@@QAEAAV12@PBDI@Z ; std::basic_string<char,std::char_traits<char>,std::allocator<char> >::assign
  00032	5f		 pop	 edi

; 363  : 		}

  00033	8b c6		 mov	 eax, esi
  00035	5e		 pop	 esi
  00036	c2 04 00	 ret	 4
??0?$basic_string@DU?$char_traits@D@std@@V?$allocator@D@2@@std@@QAE@PBD@Z ENDP ; std::basic_string<char,std::char_traits<char>,std::allocator<char> >::basic_string<char,std::char_traits<char>,std::allocator<char> >
_TEXT	ENDS
PUBLIC	??1CGuildHouseBase@@UAE@XZ			; CGuildHouseBase::~CGuildHouseBase
PUBLIC	??_7CGuildHouseBase@@6B@			; CGuildHouseBase::`vftable'
PUBLIC	??_GCGuildHouseBase@@UAEPAXI@Z			; CGuildHouseBase::`scalar deleting destructor'
EXTRN	__purecall:NEAR
EXTRN	??_ECGuildHouseBase@@UAEPAXI@Z:NEAR		; CGuildHouseBase::`vector deleting destructor'
;	COMDAT ??_7CGuildHouseBase@@6B@
; File c:\program files\microsoft visual studio .net 2003\vc7\include\xmemory
CONST	SEGMENT
??_7CGuildHouseBase@@6B@ DD FLAT:??_ECGuildHouseBase@@UAEPAXI@Z ; CGuildHouseBase::`vftable'
	DD	FLAT:__purecall
; Function compile flags: /Ogty
; File c:\documents and settings\test\mes documents\source\virtuos_v17\build\program\_common\guildhouse.cpp
CONST	ENDS
;	COMDAT ??1CGuildHouseBase@@UAE@XZ
_TEXT	SEGMENT
??1CGuildHouseBase@@UAE@XZ PROC NEAR			; CGuildHouseBase::~CGuildHouseBase, COMDAT
; _this$ = ecx

; 94   : {

  00000	56		 push	 esi
  00001	8b f1		 mov	 esi, ecx
  00003	57		 push	 edi
  00004	c7 06 00 00 00
	00		 mov	 DWORD PTR [esi], OFFSET FLAT:??_7CGuildHouseBase@@6B@

; 95   : 	Clear();

  0000a	8b 46 10	 mov	 eax, DWORD PTR [esi+16]
  0000d	33 ff		 xor	 edi, edi
  0000f	3b c7		 cmp	 eax, edi
  00011	74 09		 je	 SHORT $L198582
  00013	50		 push	 eax
  00014	e8 00 00 00 00	 call	 ??3@YAXPAX@Z		; operator delete
  00019	83 c4 04	 add	 esp, 4
$L198582:

; 96   : }

  0001c	8b c7		 mov	 eax, edi
  0001e	3b c7		 cmp	 eax, edi
  00020	89 7e 10	 mov	 DWORD PTR [esi+16], edi
  00023	89 7e 14	 mov	 DWORD PTR [esi+20], edi
  00026	89 7e 18	 mov	 DWORD PTR [esi+24], edi
  00029	74 09		 je	 SHORT $L198601
  0002b	50		 push	 eax
  0002c	e8 00 00 00 00	 call	 ??3@YAXPAX@Z		; operator delete
  00031	83 c4 04	 add	 esp, 4
$L198601:
  00034	89 7e 10	 mov	 DWORD PTR [esi+16], edi
  00037	89 7e 14	 mov	 DWORD PTR [esi+20], edi
  0003a	89 7e 18	 mov	 DWORD PTR [esi+24], edi
  0003d	5f		 pop	 edi
  0003e	5e		 pop	 esi
  0003f	c3		 ret	 0
??1CGuildHouseBase@@UAE@XZ ENDP				; CGuildHouseBase::~CGuildHouseBase
_TEXT	ENDS
PUBLIC	??1CGuildHouseSmall@@UAE@XZ			; CGuildHouseSmall::~CGuildHouseSmall
; Function compile flags: /Ogty
;	COMDAT ??1CGuildHouseSmall@@UAE@XZ
_TEXT	SEGMENT
??1CGuildHouseSmall@@UAE@XZ PROC NEAR			; CGuildHouseSmall::~CGuildHouseSmall, COMDAT
; _this$ = ecx

; 996  : {

  00000	56		 push	 esi
  00001	8b f1		 mov	 esi, ecx
  00003	57		 push	 edi

; 997  : }

  00004	c7 06 00 00 00
	00		 mov	 DWORD PTR [esi], OFFSET FLAT:??_7CGuildHouseBase@@6B@
  0000a	8b 46 10	 mov	 eax, DWORD PTR [esi+16]
  0000d	33 ff		 xor	 edi, edi
  0000f	3b c7		 cmp	 eax, edi
  00011	74 09		 je	 SHORT $L198668
  00013	50		 push	 eax
  00014	e8 00 00 00 00	 call	 ??3@YAXPAX@Z		; operator delete
  00019	83 c4 04	 add	 esp, 4
$L198668:
  0001c	8b c7		 mov	 eax, edi
  0001e	3b c7		 cmp	 eax, edi
  00020	89 7e 10	 mov	 DWORD PTR [esi+16], edi
  00023	89 7e 14	 mov	 DWORD PTR [esi+20], edi
  00026	89 7e 18	 mov	 DWORD PTR [esi+24], edi
  00029	74 09		 je	 SHORT $L198675
  0002b	50		 push	 eax
  0002c	e8 00 00 00 00	 call	 ??3@YAXPAX@Z		; operator delete
  00031	83 c4 04	 add	 esp, 4
$L198675:
  00034	89 7e 10	 mov	 DWORD PTR [esi+16], edi
  00037	89 7e 14	 mov	 DWORD PTR [esi+20], edi
  0003a	89 7e 18	 mov	 DWORD PTR [esi+24], edi
  0003d	5f		 pop	 edi
  0003e	5e		 pop	 esi
  0003f	c3		 ret	 0
??1CGuildHouseSmall@@UAE@XZ ENDP			; CGuildHouseSmall::~CGuildHouseSmall
_TEXT	ENDS
PUBLIC	??1CGuildHouseMiddle@@UAE@XZ			; CGuildHouseMiddle::~CGuildHouseMiddle
; Function compile flags: /Ogty
;	COMDAT ??1CGuildHouseMiddle@@UAE@XZ
_TEXT	SEGMENT
??1CGuildHouseMiddle@@UAE@XZ PROC NEAR			; CGuildHouseMiddle::~CGuildHouseMiddle, COMDAT
; _this$ = ecx

; 1059 : {

  00000	56		 push	 esi
  00001	8b f1		 mov	 esi, ecx
  00003	57		 push	 edi

; 1060 : }

  00004	c7 06 00 00 00
	00		 mov	 DWORD PTR [esi], OFFSET FLAT:??_7CGuildHouseBase@@6B@
  0000a	8b 46 10	 mov	 eax, DWORD PTR [esi+16]
  0000d	33 ff		 xor	 edi, edi
  0000f	3b c7		 cmp	 eax, edi
  00011	74 09		 je	 SHORT $L198735
  00013	50		 push	 eax
  00014	e8 00 00 00 00	 call	 ??3@YAXPAX@Z		; operator delete
  00019	83 c4 04	 add	 esp, 4
$L198735:
  0001c	8b c7		 mov	 eax, edi
  0001e	3b c7		 cmp	 eax, edi
  00020	89 7e 10	 mov	 DWORD PTR [esi+16], edi
  00023	89 7e 14	 mov	 DWORD PTR [esi+20], edi
  00026	89 7e 18	 mov	 DWORD PTR [esi+24], edi
  00029	74 09		 je	 SHORT $L198743
  0002b	50		 push	 eax
  0002c	e8 00 00 00 00	 call	 ??3@YAXPAX@Z		; operator delete
  00031	83 c4 04	 add	 esp, 4
$L198743:
  00034	89 7e 10	 mov	 DWORD PTR [esi+16], edi
  00037	89 7e 14	 mov	 DWORD PTR [esi+20], edi
  0003a	89 7e 18	 mov	 DWORD PTR [esi+24], edi
  0003d	5f		 pop	 edi
  0003e	5e		 pop	 esi
  0003f	c3		 ret	 0
??1CGuildHouseMiddle@@UAE@XZ ENDP			; CGuildHouseMiddle::~CGuildHouseMiddle
_TEXT	ENDS
PUBLIC	??_C@_0BM@PAPJHAGI@invalid?5map?1set?$DMT?$DO?5iterator?$AA@ ; `string'
PUBLIC	?erase@?$_Tree@V?$_Tmap_traits@KPAVCGuildHouseBase@@U?$less@K@std@@V?$allocator@U?$pair@$$CBKPAVCGuildHouseBase@@@std@@@3@$0A@@std@@@std@@QAE?AViterator@12@V312@@Z ; std::_Tree<std::_Tmap_traits<unsigned long,CGuildHouseBase *,std::less<unsigned long>,std::allocator<std::pair<unsigned long const ,CGuildHouseBase *> >,0> >::erase
PUBLIC	__TI3?AVout_of_range@std@@
PUBLIC	__CTA3?AVout_of_range@std@@
PUBLIC	??_R0?AVout_of_range@std@@@8			; std::out_of_range `RTTI Type Descriptor'
PUBLIC	__CT??_R0?AVout_of_range@std@@@8??0out_of_range@std@@QAE@ABV01@@Z40
PUBLIC	??_R0?AVlogic_error@std@@@8			; std::logic_error `RTTI Type Descriptor'
PUBLIC	__CT??_R0?AVlogic_error@std@@@8??0logic_error@std@@QAE@ABV01@@Z40
PUBLIC	??_R0?AVexception@@@8				; exception `RTTI Type Descriptor'
PUBLIC	__CT??_R0?AVexception@@@8??0exception@@QAE@ABV0@@Z12
PUBLIC	??0logic_error@std@@QAE@ABV01@@Z		; std::logic_error::logic_error
PUBLIC	??0out_of_range@std@@QAE@ABV01@@Z		; std::out_of_range::out_of_range
EXTRN	??0exception@@QAE@ABV0@@Z:NEAR			; exception::exception
EXTRN	??_7type_info@@6B@:DWORD			; type_info::`vftable'
;	COMDAT xdata$x
; File c:\program files\microsoft visual studio .net 2003\vc7\include\xmemory
xdata$x	SEGMENT
$T199242 DD	0ffffffffH
	DD	FLAT:$L198756
$T199234 DD	019930520H
	DD	01H
	DD	FLAT:$T199242
	DD	2 DUP(00H)
	DD	2 DUP(00H)
xdata$x	ENDS
;	COMDAT ??_C@_0BM@PAPJHAGI@invalid?5map?1set?$DMT?$DO?5iterator?$AA@
CONST	SEGMENT
??_C@_0BM@PAPJHAGI@invalid?5map?1set?$DMT?$DO?5iterator?$AA@ DB 'invalid '
	DB	'map/set<T> iterator', 00H			; `string'
CONST	ENDS
;	COMDAT __TI3?AVout_of_range@std@@
xdata$x	SEGMENT
__TI3?AVout_of_range@std@@ DD 00H
	DD	FLAT:??1out_of_range@std@@UAE@XZ
	DD	00H
	DD	FLAT:__CTA3?AVout_of_range@std@@
xdata$x	ENDS
;	COMDAT __CTA3?AVout_of_range@std@@
xdata$x	SEGMENT
__CTA3?AVout_of_range@std@@ DD 03H
	DD	FLAT:__CT??_R0?AVout_of_range@std@@@8??0out_of_range@std@@QAE@ABV01@@Z40
	DD	FLAT:__CT??_R0?AVlogic_error@std@@@8??0logic_error@std@@QAE@ABV01@@Z40
	DD	FLAT:__CT??_R0?AVexception@@@8??0exception@@QAE@ABV0@@Z12
xdata$x	ENDS
;	COMDAT __CT??_R0?AVout_of_range@std@@@8??0out_of_range@std@@QAE@ABV01@@Z40
xdata$x	SEGMENT
__CT??_R0?AVout_of_range@std@@@8??0out_of_range@std@@QAE@ABV01@@Z40 DD 00H
	DD	FLAT:??_R0?AVout_of_range@std@@@8
	DD	00H
	DD	0ffffffffH
	ORG $+4
	DD	028H
	DD	FLAT:??0out_of_range@std@@QAE@ABV01@@Z
xdata$x	ENDS
;	COMDAT ??_R0?AVout_of_range@std@@@8
_DATA	SEGMENT
??_R0?AVout_of_range@std@@@8 DD FLAT:??_7type_info@@6B@	; std::out_of_range `RTTI Type Descriptor'
	DD	00H
	DB	'.?AVout_of_range@std@@', 00H
_DATA	ENDS
;	COMDAT __CT??_R0?AVlogic_error@std@@@8??0logic_error@std@@QAE@ABV01@@Z40
xdata$x	SEGMENT
__CT??_R0?AVlogic_error@std@@@8??0logic_error@std@@QAE@ABV01@@Z40 DD 00H
	DD	FLAT:??_R0?AVlogic_error@std@@@8
	DD	00H
	DD	0ffffffffH
	ORG $+4
	DD	028H
	DD	FLAT:??0logic_error@std@@QAE@ABV01@@Z
xdata$x	ENDS
;	COMDAT ??_R0?AVlogic_error@std@@@8
_DATA	SEGMENT
??_R0?AVlogic_error@std@@@8 DD FLAT:??_7type_info@@6B@	; std::logic_error `RTTI Type Descriptor'
	DD	00H
	DB	'.?AVlogic_error@std@@', 00H
_DATA	ENDS
;	COMDAT __CT??_R0?AVexception@@@8??0exception@@QAE@ABV0@@Z12
xdata$x	SEGMENT
__CT??_R0?AVexception@@@8??0exception@@QAE@ABV0@@Z12 DD 00H
	DD	FLAT:??_R0?AVexception@@@8
	DD	00H
	DD	0ffffffffH
	ORG $+4
	DD	0cH
	DD	FLAT:??0exception@@QAE@ABV0@@Z
xdata$x	ENDS
;	COMDAT ??_R0?AVexception@@@8
_DATA	SEGMENT
??_R0?AVexception@@@8 DD FLAT:??_7type_info@@6B@	; exception `RTTI Type Descriptor'
	DD	00H
	DB	'.?AVexception@@', 00H
; Function compile flags: /Ogty
; File c:\program files\microsoft visual studio .net 2003\vc7\include\xtree
_DATA	ENDS
;	COMDAT ?erase@?$_Tree@V?$_Tmap_traits@KPAVCGuildHouseBase@@U?$less@K@std@@V?$allocator@U?$pair@$$CBKPAVCGuildHouseBase@@@std@@@3@$0A@@std@@@std@@QAE?AViterator@12@V312@@Z
_TEXT	SEGMENT
__Erasednode$ = -84					; size = 4
$T198751 = -80						; size = 28
$T198750 = -52						; size = 40
__$EHRec$ = -12						; size = 12
___$ReturnUdt$ = 8					; size = 4
__Where$ = 12						; size = 4
?erase@?$_Tree@V?$_Tmap_traits@KPAVCGuildHouseBase@@U?$less@K@std@@V?$allocator@U?$pair@$$CBKPAVCGuildHouseBase@@@std@@@3@$0A@@std@@@std@@QAE?AViterator@12@V312@@Z PROC NEAR ; std::_Tree<std::_Tmap_traits<unsigned long,CGuildHouseBase *,std::less<unsigned long>,std::allocator<std::pair<unsigned long const ,CGuildHouseBase *> >,0> >::erase, COMDAT
; _this$ = ecx

; 590  : 		{	// erase element at _Where

  00000	64 a1 00 00 00
	00		 mov	 eax, DWORD PTR fs:__except_list
  00006	6a ff		 push	 -1
  00008	68 00 00 00 00	 push	 __ehhandler$?erase@?$_Tree@V?$_Tmap_traits@KPAVCGuildHouseBase@@U?$less@K@std@@V?$allocator@U?$pair@$$CBKPAVCGuildHouseBase@@@std@@@3@$0A@@std@@@std@@QAE?AViterator@12@V312@@Z
  0000d	50		 push	 eax

; 591  : 		if (_Isnil(_Where._Mynode()))

  0000e	8b 44 24 14	 mov	 eax, DWORD PTR __Where$[esp+8]
  00012	64 89 25 00 00
	00 00		 mov	 DWORD PTR fs:__except_list, esp
  00019	83 ec 48	 sub	 esp, 72			; 00000048H
  0001c	55		 push	 ebp
  0001d	8b e9		 mov	 ebp, ecx
  0001f	8a 48 15	 mov	 cl, BYTE PTR [eax+21]
  00022	84 c9		 test	 cl, cl
  00024	56		 push	 esi
  00025	74 4c		 je	 SHORT $L192752

; 592  : 			_THROW(out_of_range, "invalid map/set<T> iterator");

  00027	6a 1b		 push	 27			; 0000001bH
  00029	33 f6		 xor	 esi, esi
  0002b	68 00 00 00 00	 push	 OFFSET FLAT:??_C@_0BM@PAPJHAGI@invalid?5map?1set?$DMT?$DO?5iterator?$AA@
  00030	8d 4c 24 14	 lea	 ecx, DWORD PTR $T198751[esp+100]
  00034	c7 44 24 2c 0f
	00 00 00	 mov	 DWORD PTR $T198751[esp+124], 15 ; 0000000fH
  0003c	89 74 24 28	 mov	 DWORD PTR $T198751[esp+120], esi
  00040	c6 44 24 18 00	 mov	 BYTE PTR $T198751[esp+104], 0
  00045	e8 00 00 00 00	 call	 ?assign@?$basic_string@DU?$char_traits@D@std@@V?$allocator@D@2@@std@@QAEAAV12@PBDI@Z ; std::basic_string<char,std::char_traits<char>,std::allocator<char> >::assign
  0004a	8d 44 24 0c	 lea	 eax, DWORD PTR $T198751[esp+92]
  0004e	50		 push	 eax
  0004f	8d 4c 24 2c	 lea	 ecx, DWORD PTR $T198750[esp+96]
  00053	89 74 24 5c	 mov	 DWORD PTR __$EHRec$[esp+104], esi
  00057	e8 00 00 00 00	 call	 ??0logic_error@std@@QAE@ABV?$basic_string@DU?$char_traits@D@std@@V?$allocator@D@2@@1@@Z ; std::logic_error::logic_error
  0005c	68 00 00 00 00	 push	 OFFSET FLAT:__TI3?AVout_of_range@std@@
  00061	8d 4c 24 2c	 lea	 ecx, DWORD PTR $T198750[esp+96]
  00065	51		 push	 ecx
  00066	c7 44 24 30 00
	00 00 00	 mov	 DWORD PTR $T198750[esp+100], OFFSET FLAT:??_7out_of_range@std@@6B@
  0006e	e8 00 00 00 00	 call	 __CxxThrowException@8
$L192752:
  00073	53		 push	 ebx

; 593  : 		_Nodeptr _Erasednode = _Where._Mynode();	// node to erase

  00074	8b d8		 mov	 ebx, eax
  00076	57		 push	 edi

; 594  : 		++_Where;	// save successor iterator for return

  00077	8d 4c 24 6c	 lea	 ecx, DWORD PTR __Where$[esp+96]
  0007b	89 5c 24 10	 mov	 DWORD PTR __Erasednode$[esp+100], ebx
  0007f	e8 00 00 00 00	 call	 ?_Inc@const_iterator@?$_Tree@V?$_Tmap_traits@KPAVCGuildHouseBase@@U?$less@K@std@@V?$allocator@U?$pair@$$CBKPAVCGuildHouseBase@@@std@@@3@$0A@@std@@@std@@QAEXXZ ; std::_Tree<std::_Tmap_traits<unsigned long,CGuildHouseBase *,std::less<unsigned long>,std::allocator<std::pair<unsigned long const ,CGuildHouseBase *> >,0> >::const_iterator::_Inc

; 595  : 
; 596  : 		_Nodeptr _Fixnode;	// the node to recolor as needed
; 597  : 		_Nodeptr _Fixnodeparent;	// parent of _Fixnode (which may be nil)
; 598  : 		_Nodeptr _Pnode = _Erasednode;
; 599  : 
; 600  : 		if (_Isnil(_Left(_Pnode)))

  00084	8b 03		 mov	 eax, DWORD PTR [ebx]
  00086	8a 48 15	 mov	 cl, BYTE PTR [eax+21]
  00089	84 c9		 test	 cl, cl
  0008b	74 05		 je	 SHORT $L192760

; 601  : 			_Fixnode = _Right(_Pnode);	// must stitch up right subtree

  0008d	8b 7b 08	 mov	 edi, DWORD PTR [ebx+8]

; 602  : 		else if (_Isnil(_Right(_Pnode)))

  00090	eb 19		 jmp	 SHORT $L199237
$L192760:
  00092	8b 53 08	 mov	 edx, DWORD PTR [ebx+8]
  00095	8a 4a 15	 mov	 cl, BYTE PTR [edx+21]
  00098	84 c9		 test	 cl, cl
  0009a	74 04		 je	 SHORT $L192762

; 603  : 			_Fixnode = _Left(_Pnode);	// must stitch up left subtree

  0009c	8b f8		 mov	 edi, eax

; 604  : 		else

  0009e	eb 0b		 jmp	 SHORT $L199237
$L192762:

; 605  : 			{	// two subtrees, must lift successor node to replace erased
; 606  : 			_Pnode = _Where._Mynode();	// _Pnode is successor node
; 607  : 			_Fixnode = _Right(_Pnode);	// _Fixnode is its only subtree

  000a0	8b 4c 24 6c	 mov	 ecx, DWORD PTR __Where$[esp+96]

; 608  : 			}
; 609  : 
; 610  : 		if (_Pnode == _Erasednode)

  000a4	3b cb		 cmp	 ecx, ebx
  000a6	8b 79 08	 mov	 edi, DWORD PTR [ecx+8]
  000a9	75 6e		 jne	 SHORT $L192764
$L199237:

; 611  : 			{	// at most one subtree, relink it
; 612  : 			_Fixnodeparent = _Parent(_Erasednode);
; 613  : 			if (!_Isnil(_Fixnode))

  000ab	8a 47 15	 mov	 al, BYTE PTR [edi+21]
  000ae	84 c0		 test	 al, al
  000b0	8b 73 04	 mov	 esi, DWORD PTR [ebx+4]
  000b3	75 03		 jne	 SHORT $L192765

; 614  : 				_Parent(_Fixnode) = _Fixnodeparent;	// link up

  000b5	89 77 04	 mov	 DWORD PTR [edi+4], esi
$L192765:

; 615  : 
; 616  : 			if (_Root() == _Erasednode)

  000b8	8b 45 04	 mov	 eax, DWORD PTR [ebp+4]
  000bb	39 58 04	 cmp	 DWORD PTR [eax+4], ebx
  000be	75 05		 jne	 SHORT $L192766

; 617  : 				_Root() = _Fixnode;	// link down from root

  000c0	89 78 04	 mov	 DWORD PTR [eax+4], edi

; 618  : 			else if (_Left(_Fixnodeparent) == _Erasednode)

  000c3	eb 0b		 jmp	 SHORT $L192769
$L192766:
  000c5	39 1e		 cmp	 DWORD PTR [esi], ebx
  000c7	75 04		 jne	 SHORT $L192768

; 619  : 				_Left(_Fixnodeparent) = _Fixnode;	// link down to left

  000c9	89 3e		 mov	 DWORD PTR [esi], edi

; 620  : 			else

  000cb	eb 03		 jmp	 SHORT $L192769
$L192768:

; 621  : 				_Right(_Fixnodeparent) = _Fixnode;	// link down to right

  000cd	89 7e 08	 mov	 DWORD PTR [esi+8], edi
$L192769:

; 622  : 
; 623  : 			if (_Lmost() == _Erasednode)

  000d0	8b 5d 04	 mov	 ebx, DWORD PTR [ebp+4]
  000d3	8b 03		 mov	 eax, DWORD PTR [ebx]
  000d5	3b 44 24 10	 cmp	 eax, DWORD PTR __Erasednode$[esp+100]
  000d9	75 16		 jne	 SHORT $L192770

; 624  : 				_Lmost() = _Isnil(_Fixnode)
; 625  : 					? _Fixnodeparent	// smallest is parent of erased node
; 626  : 					: _Min(_Fixnode);	// smallest in relinked subtree

  000db	8a 47 15	 mov	 al, BYTE PTR [edi+21]
  000de	84 c0		 test	 al, al
  000e0	74 04		 je	 SHORT $L198752
  000e2	8b c6		 mov	 eax, esi
  000e4	eb 09		 jmp	 SHORT $L198753
$L198752:
  000e6	57		 push	 edi
  000e7	e8 00 00 00 00	 call	 ?_Min@?$_Tree@V?$_Tmap_traits@KPAVCGuildHouseBase@@U?$less@K@std@@V?$allocator@U?$pair@$$CBKPAVCGuildHouseBase@@@std@@@3@$0A@@std@@@std@@KAPAU_Node@?$_Tree_nod@V?$_Tmap_traits@KPAVCGuildHouseBase@@U?$less@K@std@@V?$allocator@U?$pair@$$CBKPAVCGuildHouseBase@@@std@@@3@$0A@@std@@@2@PAU342@@Z ; std::_Tree<std::_Tmap_traits<unsigned long,CGuildHouseBase *,std::less<unsigned long>,std::allocator<std::pair<unsigned long const ,CGuildHouseBase *> >,0> >::_Min
  000ec	83 c4 04	 add	 esp, 4
$L198753:
  000ef	89 03		 mov	 DWORD PTR [ebx], eax
$L192770:

; 627  : 
; 628  : 			if (_Rmost() == _Erasednode)

  000f1	8b 5d 04	 mov	 ebx, DWORD PTR [ebp+4]
  000f4	8b 4c 24 10	 mov	 ecx, DWORD PTR __Erasednode$[esp+100]
  000f8	39 4b 08	 cmp	 DWORD PTR [ebx+8], ecx
  000fb	75 74		 jne	 SHORT $L199070

; 629  : 				_Rmost() = _Isnil(_Fixnode)
; 630  : 					? _Fixnodeparent	// largest is parent of erased node
; 631  : 					: _Max(_Fixnode);	// largest in relinked subtree

  000fd	8a 47 15	 mov	 al, BYTE PTR [edi+21]
  00100	84 c0		 test	 al, al
  00102	74 07		 je	 SHORT $L198754
  00104	8b c6		 mov	 eax, esi
  00106	89 43 08	 mov	 DWORD PTR [ebx+8], eax

; 632  : 			}
; 633  : 		else

  00109	eb 66		 jmp	 SHORT $L199070
$L198754:

; 629  : 				_Rmost() = _Isnil(_Fixnode)
; 630  : 					? _Fixnodeparent	// largest is parent of erased node
; 631  : 					: _Max(_Fixnode);	// largest in relinked subtree

  0010b	57		 push	 edi
  0010c	e8 00 00 00 00	 call	 ?_Max@?$_Tree@V?$_Tmap_traits@KPAVCGuildHouseBase@@U?$less@K@std@@V?$allocator@U?$pair@$$CBKPAVCGuildHouseBase@@@std@@@3@$0A@@std@@@std@@KAPAU_Node@?$_Tree_nod@V?$_Tmap_traits@KPAVCGuildHouseBase@@U?$less@K@std@@V?$allocator@U?$pair@$$CBKPAVCGuildHouseBase@@@std@@@3@$0A@@std@@@2@PAU342@@Z ; std::_Tree<std::_Tmap_traits<unsigned long,CGuildHouseBase *,std::less<unsigned long>,std::allocator<std::pair<unsigned long const ,CGuildHouseBase *> >,0> >::_Max
  00111	83 c4 04	 add	 esp, 4
  00114	89 43 08	 mov	 DWORD PTR [ebx+8], eax

; 632  : 			}
; 633  : 		else

  00117	eb 58		 jmp	 SHORT $L199070
$L192764:

; 634  : 			{	// erased has two subtrees, _Pnode is successor to erased
; 635  : 			_Parent(_Left(_Erasednode)) = _Pnode;	// link left up

  00119	89 48 04	 mov	 DWORD PTR [eax+4], ecx

; 636  : 			_Left(_Pnode) = _Left(_Erasednode);	// link successor down

  0011c	8b 13		 mov	 edx, DWORD PTR [ebx]
  0011e	89 11		 mov	 DWORD PTR [ecx], edx

; 637  : 
; 638  : 			if (_Pnode == _Right(_Erasednode))

  00120	3b 4b 08	 cmp	 ecx, DWORD PTR [ebx+8]
  00123	75 04		 jne	 SHORT $L192773

; 639  : 				_Fixnodeparent = _Pnode;	// successor is next to erased

  00125	8b f1		 mov	 esi, ecx

; 640  : 			else

  00127	eb 1b		 jmp	 SHORT $L192774
$L192773:

; 641  : 				{	// successor further down, link in place of erased
; 642  : 				_Fixnodeparent = _Parent(_Pnode);	// parent is successor's
; 643  : 				if (!_Isnil(_Fixnode))

  00129	8a 47 15	 mov	 al, BYTE PTR [edi+21]
  0012c	84 c0		 test	 al, al
  0012e	8b 71 04	 mov	 esi, DWORD PTR [ecx+4]
  00131	75 03		 jne	 SHORT $L192775

; 644  : 					_Parent(_Fixnode) = _Fixnodeparent;	// link fix up

  00133	89 77 04	 mov	 DWORD PTR [edi+4], esi
$L192775:

; 645  : 				_Left(_Fixnodeparent) = _Fixnode;	// link fix down

  00136	89 3e		 mov	 DWORD PTR [esi], edi

; 646  : 				_Right(_Pnode) = _Right(_Erasednode);	// link successor down

  00138	8b 43 08	 mov	 eax, DWORD PTR [ebx+8]
  0013b	89 41 08	 mov	 DWORD PTR [ecx+8], eax

; 647  : 				_Parent(_Right(_Erasednode)) = _Pnode;	// link right up

  0013e	8b 53 08	 mov	 edx, DWORD PTR [ebx+8]
  00141	89 4a 04	 mov	 DWORD PTR [edx+4], ecx
$L192774:

; 648  : 				}
; 649  : 
; 650  : 			if (_Root() == _Erasednode)

  00144	8b 45 04	 mov	 eax, DWORD PTR [ebp+4]
  00147	39 58 04	 cmp	 DWORD PTR [eax+4], ebx
  0014a	75 05		 jne	 SHORT $L192776

; 651  : 				_Root() = _Pnode;	// link down from root

  0014c	89 48 04	 mov	 DWORD PTR [eax+4], ecx

; 652  : 			else if (_Left(_Parent(_Erasednode)) == _Erasednode)

  0014f	eb 0e		 jmp	 SHORT $L192779
$L192776:
  00151	8b 43 04	 mov	 eax, DWORD PTR [ebx+4]
  00154	39 18		 cmp	 DWORD PTR [eax], ebx
  00156	75 04		 jne	 SHORT $L192778

; 653  : 				_Left(_Parent(_Erasednode)) = _Pnode;	// link down to left

  00158	89 08		 mov	 DWORD PTR [eax], ecx

; 654  : 			else

  0015a	eb 03		 jmp	 SHORT $L192779
$L192778:

; 655  : 				_Right(_Parent(_Erasednode)) = _Pnode;	// link down to right

  0015c	89 48 08	 mov	 DWORD PTR [eax+8], ecx
$L192779:

; 656  : 
; 657  : 			_Parent(_Pnode) = _Parent(_Erasednode);	// link successor up

  0015f	8b 43 04	 mov	 eax, DWORD PTR [ebx+4]
  00162	89 41 04	 mov	 DWORD PTR [ecx+4], eax

; 658  : 			std::swap(_Color(_Pnode), _Color(_Erasednode));	// recolor it

  00165	8a 53 14	 mov	 dl, BYTE PTR [ebx+20]
  00168	8a 41 14	 mov	 al, BYTE PTR [ecx+20]
  0016b	88 51 14	 mov	 BYTE PTR [ecx+20], dl
  0016e	88 43 14	 mov	 BYTE PTR [ebx+20], al
$L199070:

; 659  : 			}
; 660  : 
; 661  : 		if (_Color(_Erasednode) == _Black)

  00171	8b 44 24 10	 mov	 eax, DWORD PTR __Erasednode$[esp+100]
  00175	8a 48 14	 mov	 cl, BYTE PTR [eax+20]
  00178	b3 01		 mov	 bl, 1
  0017a	3a cb		 cmp	 cl, bl
  0017c	0f 85 ff 00 00
	00		 jne	 $L192780

; 662  : 			{	// erasing black link, must recolor/rebalance tree
; 663  : 			for (; _Fixnode != _Root() && _Color(_Fixnode) == _Black;
; 664  : 				_Fixnodeparent = _Parent(_Fixnode))

  00182	8b 4d 04	 mov	 ecx, DWORD PTR [ebp+4]
  00185	3b 79 04	 cmp	 edi, DWORD PTR [ecx+4]
  00188	0f 84 f0 00 00
	00		 je	 $L192783
  0018e	8b ff		 npad	 2
$L192781:
  00190	38 5f 14	 cmp	 BYTE PTR [edi+20], bl
  00193	0f 85 e5 00 00
	00		 jne	 $L192783

; 665  : 				if (_Fixnode == _Left(_Fixnodeparent))

  00199	8b 06		 mov	 eax, DWORD PTR [esi]
  0019b	3b f8		 cmp	 edi, eax
  0019d	75 67		 jne	 SHORT $L192784

; 666  : 					{	// fixup left subtree
; 667  : 					_Pnode = _Right(_Fixnodeparent);

  0019f	8b 46 08	 mov	 eax, DWORD PTR [esi+8]

; 668  : 					if (_Color(_Pnode) == _Red)

  001a2	8a 48 14	 mov	 cl, BYTE PTR [eax+20]
  001a5	84 c9		 test	 cl, cl
  001a7	75 12		 jne	 SHORT $L192785

; 669  : 						{	// rotate red up from right subtree
; 670  : 						_Color(_Pnode) = _Black;

  001a9	88 58 14	 mov	 BYTE PTR [eax+20], bl

; 671  : 						_Color(_Fixnodeparent) = _Red;
; 672  : 						_Lrotate(_Fixnodeparent);

  001ac	56		 push	 esi
  001ad	8b cd		 mov	 ecx, ebp
  001af	c6 46 14 00	 mov	 BYTE PTR [esi+20], 0
  001b3	e8 00 00 00 00	 call	 ?_Lrotate@?$_Tree@V?$_Tmap_traits@KPAVCGuildHouseBase@@U?$less@K@std@@V?$allocator@U?$pair@$$CBKPAVCGuildHouseBase@@@std@@@3@$0A@@std@@@std@@IAEXPAU_Node@?$_Tree_nod@V?$_Tmap_traits@KPAVCGuildHouseBase@@U?$less@K@std@@V?$allocator@U?$pair@$$CBKPAVCGuildHouseBase@@@std@@@3@$0A@@std@@@2@@Z ; std::_Tree<std::_Tmap_traits<unsigned long,CGuildHouseBase *,std::less<unsigned long>,std::allocator<std::pair<unsigned long const ,CGuildHouseBase *> >,0> >::_Lrotate

; 673  : 						_Pnode = _Right(_Fixnodeparent);

  001b8	8b 46 08	 mov	 eax, DWORD PTR [esi+8]
$L192785:

; 674  : 						}
; 675  : 
; 676  : 					if (_Isnil(_Pnode))

  001bb	8a 48 15	 mov	 cl, BYTE PTR [eax+21]
  001be	84 c9		 test	 cl, cl

; 677  : 						_Fixnode = _Fixnodeparent;	// shouldn't happen
; 678  : 					else if (_Color(_Left(_Pnode)) == _Black

  001c0	75 76		 jne	 SHORT $L199240

; 679  : 						&& _Color(_Right(_Pnode)) == _Black)

  001c2	8b 10		 mov	 edx, DWORD PTR [eax]
  001c4	38 5a 14	 cmp	 BYTE PTR [edx+20], bl
  001c7	75 08		 jne	 SHORT $L192788
  001c9	8b 48 08	 mov	 ecx, DWORD PTR [eax+8]
  001cc	38 59 14	 cmp	 BYTE PTR [ecx+20], bl
  001cf	74 63		 je	 SHORT $L199241
$L192788:

; 680  : 						{	// redden right subtree with black children
; 681  : 						_Color(_Pnode) = _Red;
; 682  : 						_Fixnode = _Fixnodeparent;
; 683  : 						}
; 684  : 					else
; 685  : 						{	// must rearrange right subtree
; 686  : 						if (_Color(_Right(_Pnode)) == _Black)

  001d1	8b 48 08	 mov	 ecx, DWORD PTR [eax+8]
  001d4	38 59 14	 cmp	 BYTE PTR [ecx+20], bl
  001d7	75 14		 jne	 SHORT $L192790

; 687  : 							{	// rotate red up from left sub-subtree
; 688  : 							_Color(_Left(_Pnode)) = _Black;

  001d9	8b 10		 mov	 edx, DWORD PTR [eax]
  001db	88 5a 14	 mov	 BYTE PTR [edx+20], bl

; 689  : 							_Color(_Pnode) = _Red;
; 690  : 							_Rrotate(_Pnode);

  001de	50		 push	 eax
  001df	8b cd		 mov	 ecx, ebp
  001e1	c6 40 14 00	 mov	 BYTE PTR [eax+20], 0
  001e5	e8 00 00 00 00	 call	 ?_Rrotate@?$_Tree@V?$_Tmap_traits@KPAVCGuildHouseBase@@U?$less@K@std@@V?$allocator@U?$pair@$$CBKPAVCGuildHouseBase@@@std@@@3@$0A@@std@@@std@@IAEXPAU_Node@?$_Tree_nod@V?$_Tmap_traits@KPAVCGuildHouseBase@@U?$less@K@std@@V?$allocator@U?$pair@$$CBKPAVCGuildHouseBase@@@std@@@3@$0A@@std@@@2@@Z ; std::_Tree<std::_Tmap_traits<unsigned long,CGuildHouseBase *,std::less<unsigned long>,std::allocator<std::pair<unsigned long const ,CGuildHouseBase *> >,0> >::_Rrotate

; 691  : 							_Pnode = _Right(_Fixnodeparent);

  001ea	8b 46 08	 mov	 eax, DWORD PTR [esi+8]
$L192790:

; 692  : 							}
; 693  : 
; 694  : 						_Color(_Pnode) = _Color(_Fixnodeparent);

  001ed	8a 4e 14	 mov	 cl, BYTE PTR [esi+20]
  001f0	88 48 14	 mov	 BYTE PTR [eax+20], cl

; 695  : 						_Color(_Fixnodeparent) = _Black;

  001f3	88 5e 14	 mov	 BYTE PTR [esi+20], bl

; 696  : 						_Color(_Right(_Pnode)) = _Black;

  001f6	8b 50 08	 mov	 edx, DWORD PTR [eax+8]

; 697  : 						_Lrotate(_Fixnodeparent);

  001f9	56		 push	 esi
  001fa	8b cd		 mov	 ecx, ebp
  001fc	88 5a 14	 mov	 BYTE PTR [edx+20], bl
  001ff	e8 00 00 00 00	 call	 ?_Lrotate@?$_Tree@V?$_Tmap_traits@KPAVCGuildHouseBase@@U?$less@K@std@@V?$allocator@U?$pair@$$CBKPAVCGuildHouseBase@@@std@@@3@$0A@@std@@@std@@IAEXPAU_Node@?$_Tree_nod@V?$_Tmap_traits@KPAVCGuildHouseBase@@U?$less@K@std@@V?$allocator@U?$pair@$$CBKPAVCGuildHouseBase@@@std@@@3@$0A@@std@@@2@@Z ; std::_Tree<std::_Tmap_traits<unsigned long,CGuildHouseBase *,std::less<unsigned long>,std::allocator<std::pair<unsigned long const ,CGuildHouseBase *> >,0> >::_Lrotate

; 698  : 						break;	// tree now recolored/rebalanced

  00204	eb 78		 jmp	 SHORT $L192783
$L192784:

; 699  : 						}
; 700  : 					}
; 701  : 				else
; 702  : 					{	// fixup right subtree
; 703  : 					_Pnode = _Left(_Fixnodeparent);
; 704  : 					if (_Color(_Pnode) == _Red)

  00206	8a 48 14	 mov	 cl, BYTE PTR [eax+20]
  00209	84 c9		 test	 cl, cl
  0020b	75 11		 jne	 SHORT $L192792

; 705  : 						{	// rotate red up from left subtree
; 706  : 						_Color(_Pnode) = _Black;

  0020d	88 58 14	 mov	 BYTE PTR [eax+20], bl

; 707  : 						_Color(_Fixnodeparent) = _Red;
; 708  : 						_Rrotate(_Fixnodeparent);

  00210	56		 push	 esi
  00211	8b cd		 mov	 ecx, ebp
  00213	c6 46 14 00	 mov	 BYTE PTR [esi+20], 0
  00217	e8 00 00 00 00	 call	 ?_Rrotate@?$_Tree@V?$_Tmap_traits@KPAVCGuildHouseBase@@U?$less@K@std@@V?$allocator@U?$pair@$$CBKPAVCGuildHouseBase@@@std@@@3@$0A@@std@@@std@@IAEXPAU_Node@?$_Tree_nod@V?$_Tmap_traits@KPAVCGuildHouseBase@@U?$less@K@std@@V?$allocator@U?$pair@$$CBKPAVCGuildHouseBase@@@std@@@3@$0A@@std@@@2@@Z ; std::_Tree<std::_Tmap_traits<unsigned long,CGuildHouseBase *,std::less<unsigned long>,std::allocator<std::pair<unsigned long const ,CGuildHouseBase *> >,0> >::_Rrotate

; 709  : 						_Pnode = _Left(_Fixnodeparent);

  0021c	8b 06		 mov	 eax, DWORD PTR [esi]
$L192792:

; 710  : 						}
; 711  : 					if (_Isnil(_Pnode))

  0021e	8a 48 15	 mov	 cl, BYTE PTR [eax+21]
  00221	84 c9		 test	 cl, cl

; 712  : 						_Fixnode = _Fixnodeparent;	// shouldn't happen
; 713  : 					else if (_Color(_Right(_Pnode)) == _Black

  00223	75 13		 jne	 SHORT $L199240

; 714  : 						&& _Color(_Left(_Pnode)) == _Black)

  00225	8b 50 08	 mov	 edx, DWORD PTR [eax+8]
  00228	38 5a 14	 cmp	 BYTE PTR [edx+20], bl
  0022b	75 20		 jne	 SHORT $L192795
  0022d	8b 08		 mov	 ecx, DWORD PTR [eax]
  0022f	38 59 14	 cmp	 BYTE PTR [ecx+20], bl
  00232	75 19		 jne	 SHORT $L192795
$L199241:

; 715  : 						{	// redden left subtree with black children
; 716  : 						_Color(_Pnode) = _Red;

  00234	c6 40 14 00	 mov	 BYTE PTR [eax+20], 0
$L199240:

; 662  : 			{	// erasing black link, must recolor/rebalance tree
; 663  : 			for (; _Fixnode != _Root() && _Color(_Fixnode) == _Black;
; 664  : 				_Fixnodeparent = _Parent(_Fixnode))

  00238	8b 55 04	 mov	 edx, DWORD PTR [ebp+4]
  0023b	8b 42 04	 mov	 eax, DWORD PTR [edx+4]

; 717  : 						_Fixnode = _Fixnodeparent;

  0023e	8b fe		 mov	 edi, esi
  00240	3b f8		 cmp	 edi, eax
  00242	8b 76 04	 mov	 esi, DWORD PTR [esi+4]
  00245	0f 85 45 ff ff
	ff		 jne	 $L192781

; 662  : 			{	// erasing black link, must recolor/rebalance tree
; 663  : 			for (; _Fixnode != _Root() && _Color(_Fixnode) == _Black;
; 664  : 				_Fixnodeparent = _Parent(_Fixnode))

  0024b	eb 31		 jmp	 SHORT $L192783
$L192795:

; 718  : 						}
; 719  : 					else
; 720  : 						{	// must rearrange left subtree
; 721  : 						if (_Color(_Left(_Pnode)) == _Black)

  0024d	8b 08		 mov	 ecx, DWORD PTR [eax]
  0024f	38 59 14	 cmp	 BYTE PTR [ecx+20], bl
  00252	75 14		 jne	 SHORT $L192797

; 722  : 							{	// rotate red up from right sub-subtree
; 723  : 							_Color(_Right(_Pnode)) = _Black;

  00254	8b 50 08	 mov	 edx, DWORD PTR [eax+8]
  00257	88 5a 14	 mov	 BYTE PTR [edx+20], bl

; 724  : 							_Color(_Pnode) = _Red;
; 725  : 							_Lrotate(_Pnode);

  0025a	50		 push	 eax
  0025b	8b cd		 mov	 ecx, ebp
  0025d	c6 40 14 00	 mov	 BYTE PTR [eax+20], 0
  00261	e8 00 00 00 00	 call	 ?_Lrotate@?$_Tree@V?$_Tmap_traits@KPAVCGuildHouseBase@@U?$less@K@std@@V?$allocator@U?$pair@$$CBKPAVCGuildHouseBase@@@std@@@3@$0A@@std@@@std@@IAEXPAU_Node@?$_Tree_nod@V?$_Tmap_traits@KPAVCGuildHouseBase@@U?$less@K@std@@V?$allocator@U?$pair@$$CBKPAVCGuildHouseBase@@@std@@@3@$0A@@std@@@2@@Z ; std::_Tree<std::_Tmap_traits<unsigned long,CGuildHouseBase *,std::less<unsigned long>,std::allocator<std::pair<unsigned long const ,CGuildHouseBase *> >,0> >::_Lrotate

; 726  : 							_Pnode = _Left(_Fixnodeparent);

  00266	8b 06		 mov	 eax, DWORD PTR [esi]
$L192797:

; 727  : 							}
; 728  : 
; 729  : 						_Color(_Pnode) = _Color(_Fixnodeparent);

  00268	8a 4e 14	 mov	 cl, BYTE PTR [esi+20]
  0026b	88 48 14	 mov	 BYTE PTR [eax+20], cl

; 730  : 						_Color(_Fixnodeparent) = _Black;

  0026e	88 5e 14	 mov	 BYTE PTR [esi+20], bl

; 731  : 						_Color(_Left(_Pnode)) = _Black;

  00271	8b 10		 mov	 edx, DWORD PTR [eax]

; 732  : 						_Rrotate(_Fixnodeparent);

  00273	56		 push	 esi
  00274	8b cd		 mov	 ecx, ebp
  00276	88 5a 14	 mov	 BYTE PTR [edx+20], bl
  00279	e8 00 00 00 00	 call	 ?_Rrotate@?$_Tree@V?$_Tmap_traits@KPAVCGuildHouseBase@@U?$less@K@std@@V?$allocator@U?$pair@$$CBKPAVCGuildHouseBase@@@std@@@3@$0A@@std@@@std@@IAEXPAU_Node@?$_Tree_nod@V?$_Tmap_traits@KPAVCGuildHouseBase@@U?$less@K@std@@V?$allocator@U?$pair@$$CBKPAVCGuildHouseBase@@@std@@@3@$0A@@std@@@2@@Z ; std::_Tree<std::_Tmap_traits<unsigned long,CGuildHouseBase *,std::less<unsigned long>,std::allocator<std::pair<unsigned long const ,CGuildHouseBase *> >,0> >::_Rrotate
$L192783:

; 733  : 						break;	// tree now recolored/rebalanced
; 734  : 						}
; 735  : 					}
; 736  : 
; 737  : 			_Color(_Fixnode) = _Black;	// ensure stopping node is black

  0027e	88 5f 14	 mov	 BYTE PTR [edi+20], bl
$L192780:

; 738  : 			}
; 739  : 
; 740  : 		this->_Alnod.destroy(_Erasednode);	// destroy, free erased node
; 741  : 		this->_Alnod.deallocate(_Erasednode, 1);

  00281	8b 44 24 10	 mov	 eax, DWORD PTR __Erasednode$[esp+100]
  00285	50		 push	 eax
  00286	e8 00 00 00 00	 call	 ??3@YAXPAX@Z		; operator delete

; 742  : 
; 743  : 		if (0 < _Mysize)

  0028b	8b 45 08	 mov	 eax, DWORD PTR [ebp+8]
  0028e	83 c4 04	 add	 esp, 4
  00291	85 c0		 test	 eax, eax
  00293	5f		 pop	 edi
  00294	5b		 pop	 ebx
  00295	76 04		 jbe	 SHORT $L192798

; 744  : 			--_Mysize;

  00297	48		 dec	 eax
  00298	89 45 08	 mov	 DWORD PTR [ebp+8], eax
$L192798:

; 745  : 
; 746  : 		return (_Where);	// return successor iterator

  0029b	8b 4c 24 64	 mov	 ecx, DWORD PTR __Where$[esp+88]
  0029f	8b 44 24 60	 mov	 eax, DWORD PTR ___$ReturnUdt$[esp+88]
  002a3	89 08		 mov	 DWORD PTR [eax], ecx

; 747  : 		}

  002a5	8b 4c 24 50	 mov	 ecx, DWORD PTR __$EHRec$[esp+92]
  002a9	5e		 pop	 esi
  002aa	5d		 pop	 ebp
  002ab	64 89 0d 00 00
	00 00		 mov	 DWORD PTR fs:__except_list, ecx
  002b2	83 c4 54	 add	 esp, 84			; 00000054H
  002b5	c2 08 00	 ret	 8
$L199239:
_TEXT	ENDS
;	COMDAT text$x
text$x	SEGMENT
$L198756:
  00000	8d 4d b0	 lea	 ecx, DWORD PTR $T198751[ebp]
  00003	e9 00 00 00 00	 jmp	 ??1?$basic_string@DU?$char_traits@D@std@@V?$allocator@D@2@@std@@QAE@XZ ; std::basic_string<char,std::char_traits<char>,std::allocator<char> >::~basic_string<char,std::char_traits<char>,std::allocator<char> >
__ehhandler$?erase@?$_Tree@V?$_Tmap_traits@KPAVCGuildHouseBase@@U?$less@K@std@@V?$allocator@U?$pair@$$CBKPAVCGuildHouseBase@@@std@@@3@$0A@@std@@@std@@QAE?AViterator@12@V312@@Z:
  00008	b8 00 00 00 00	 mov	 eax, OFFSET FLAT:$T199234
  0000d	e9 00 00 00 00	 jmp	 ___CxxFrameHandler
text$x	ENDS
?erase@?$_Tree@V?$_Tmap_traits@KPAVCGuildHouseBase@@U?$less@K@std@@V?$allocator@U?$pair@$$CBKPAVCGuildHouseBase@@@std@@@3@$0A@@std@@@std@@QAE?AViterator@12@V312@@Z ENDP ; std::_Tree<std::_Tmap_traits<unsigned long,CGuildHouseBase *,std::less<unsigned long>,std::allocator<std::pair<unsigned long const ,CGuildHouseBase *> >,0> >::erase
;	COMDAT xdata$x
xdata$x	SEGMENT
$T199347 DD	0ffffffffH
	DD	FLAT:$L199247
$T199345 DD	019930520H
	DD	01H
	DD	FLAT:$T199347
	DD	2 DUP(00H)
	DD	2 DUP(00H)
; Function compile flags: /Ogty
xdata$x	ENDS
;	COMDAT ??0logic_error@std@@QAE@ABV01@@Z
_TEXT	SEGMENT
_this$ = -16						; size = 4
__$EHRec$ = -12						; size = 12
___that$ = 8						; size = 4
??0logic_error@std@@QAE@ABV01@@Z PROC NEAR		; std::logic_error::logic_error, COMDAT
; _this$ = ecx
  00000	6a ff		 push	 -1
  00002	68 00 00 00 00	 push	 __ehhandler$??0logic_error@std@@QAE@ABV01@@Z
  00007	64 a1 00 00 00
	00		 mov	 eax, DWORD PTR fs:__except_list
  0000d	50		 push	 eax
  0000e	64 89 25 00 00
	00 00		 mov	 DWORD PTR fs:__except_list, esp
  00015	51		 push	 ecx
  00016	56		 push	 esi
  00017	57		 push	 edi
  00018	8b 7c 24 1c	 mov	 edi, DWORD PTR ___that$[esp+20]
  0001c	8b f1		 mov	 esi, ecx
  0001e	57		 push	 edi
  0001f	89 74 24 0c	 mov	 DWORD PTR _this$[esp+28], esi
  00023	e8 00 00 00 00	 call	 ??0exception@@QAE@ABV0@@Z ; exception::exception
  00028	33 c0		 xor	 eax, eax
  0002a	6a ff		 push	 -1
  0002c	8d 4e 0c	 lea	 ecx, DWORD PTR [esi+12]
  0002f	c7 06 00 00 00
	00		 mov	 DWORD PTR [esi], OFFSET FLAT:??_7logic_error@std@@6B@
  00035	50		 push	 eax
  00036	83 c7 0c	 add	 edi, 12			; 0000000cH
  00039	c7 41 18 0f 00
	00 00		 mov	 DWORD PTR [ecx+24], 15	; 0000000fH
  00040	89 41 14	 mov	 DWORD PTR [ecx+20], eax
  00043	57		 push	 edi
  00044	89 44 24 20	 mov	 DWORD PTR __$EHRec$[esp+44], eax
  00048	88 41 04	 mov	 BYTE PTR [ecx+4], al
  0004b	e8 00 00 00 00	 call	 ?assign@?$basic_string@DU?$char_traits@D@std@@V?$allocator@D@2@@std@@QAEAAV12@ABV12@II@Z ; std::basic_string<char,std::char_traits<char>,std::allocator<char> >::assign
  00050	8b 4c 24 0c	 mov	 ecx, DWORD PTR __$EHRec$[esp+24]
  00054	5f		 pop	 edi
  00055	8b c6		 mov	 eax, esi
  00057	5e		 pop	 esi
  00058	64 89 0d 00 00
	00 00		 mov	 DWORD PTR fs:__except_list, ecx
  0005f	83 c4 10	 add	 esp, 16			; 00000010H
  00062	c2 04 00	 ret	 4
_TEXT	ENDS
;	COMDAT text$x
text$x	SEGMENT
$L199247:
  00000	8b 4d f0	 mov	 ecx, DWORD PTR _this$[ebp]
  00003	e9 00 00 00 00	 jmp	 ??1exception@@UAE@XZ	; exception::~exception
__ehhandler$??0logic_error@std@@QAE@ABV01@@Z:
  00008	b8 00 00 00 00	 mov	 eax, OFFSET FLAT:$T199345
  0000d	e9 00 00 00 00	 jmp	 ___CxxFrameHandler
text$x	ENDS
??0logic_error@std@@QAE@ABV01@@Z ENDP			; std::logic_error::logic_error
; Function compile flags: /Ogty
;	COMDAT ??0out_of_range@std@@QAE@ABV01@@Z
_TEXT	SEGMENT
___that$ = 8						; size = 4
??0out_of_range@std@@QAE@ABV01@@Z PROC NEAR		; std::out_of_range::out_of_range, COMDAT
; _this$ = ecx
  00000	8b 44 24 04	 mov	 eax, DWORD PTR ___that$[esp-4]
  00004	56		 push	 esi
  00005	50		 push	 eax
  00006	8b f1		 mov	 esi, ecx
  00008	e8 00 00 00 00	 call	 ??0logic_error@std@@QAE@ABV01@@Z
  0000d	c7 06 00 00 00
	00		 mov	 DWORD PTR [esi], OFFSET FLAT:??_7out_of_range@std@@6B@
  00013	8b c6		 mov	 eax, esi
  00015	5e		 pop	 esi
  00016	c2 04 00	 ret	 4
??0out_of_range@std@@QAE@ABV01@@Z ENDP			; std::out_of_range::out_of_range
_TEXT	ENDS
PUBLIC	?_Insert@?$_Tree@V?$_Tmap_traits@KPAVCGuildHouseBase@@U?$less@K@std@@V?$allocator@U?$pair@$$CBKPAVCGuildHouseBase@@@std@@@3@$0A@@std@@@std@@IAE?AViterator@12@_NPAU_Node@?$_Tree_nod@V?$_Tmap_traits@KPAVCGuildHouseBase@@U?$less@K@std@@V?$allocator@U?$pair@$$CBKPAVCGuildHouseBase@@@std@@@3@$0A@@std@@@2@ABU?$pair@$$CBKPAVCGuildHouseBase@@@2@@Z ; std::_Tree<std::_Tmap_traits<unsigned long,CGuildHouseBase *,std::less<unsigned long>,std::allocator<std::pair<unsigned long const ,CGuildHouseBase *> >,0> >::_Insert
PUBLIC	??0length_error@std@@QAE@ABV01@@Z		; std::length_error::length_error
PUBLIC	__TI3?AVlength_error@std@@
PUBLIC	__CTA3?AVlength_error@std@@
PUBLIC	??_R0?AVlength_error@std@@@8			; std::length_error `RTTI Type Descriptor'
PUBLIC	__CT??_R0?AVlength_error@std@@@8??0length_error@std@@QAE@ABV01@@Z40
PUBLIC	??_C@_0BE@JONHPENG@map?1set?$DMT?$DO?5too?5long?$AA@ ; `string'
;	COMDAT xdata$x
xdata$x	SEGMENT
$T199727 DD	0ffffffffH
	DD	FLAT:$L199357
$T199722 DD	019930520H
	DD	01H
	DD	FLAT:$T199727
	DD	2 DUP(00H)
	DD	2 DUP(00H)
xdata$x	ENDS
;	COMDAT ??_C@_0BE@JONHPENG@map?1set?$DMT?$DO?5too?5long?$AA@
CONST	SEGMENT
??_C@_0BE@JONHPENG@map?1set?$DMT?$DO?5too?5long?$AA@ DB 'map/set<T> too l'
	DB	'ong', 00H					; `string'
CONST	ENDS
;	COMDAT __TI3?AVlength_error@std@@
xdata$x	SEGMENT
__TI3?AVlength_error@std@@ DD 00H
	DD	FLAT:??1length_error@std@@UAE@XZ
	DD	00H
	DD	FLAT:__CTA3?AVlength_error@std@@
xdata$x	ENDS
;	COMDAT __CTA3?AVlength_error@std@@
xdata$x	SEGMENT
__CTA3?AVlength_error@std@@ DD 03H
	DD	FLAT:__CT??_R0?AVlength_error@std@@@8??0length_error@std@@QAE@ABV01@@Z40
	DD	FLAT:__CT??_R0?AVlogic_error@std@@@8??0logic_error@std@@QAE@ABV01@@Z40
	DD	FLAT:__CT??_R0?AVexception@@@8??0exception@@QAE@ABV0@@Z12
xdata$x	ENDS
;	COMDAT __CT??_R0?AVlength_error@std@@@8??0length_error@std@@QAE@ABV01@@Z40
xdata$x	SEGMENT
__CT??_R0?AVlength_error@std@@@8??0length_error@std@@QAE@ABV01@@Z40 DD 00H
	DD	FLAT:??_R0?AVlength_error@std@@@8
	DD	00H
	DD	0ffffffffH
	ORG $+4
	DD	028H
	DD	FLAT:??0length_error@std@@QAE@ABV01@@Z
xdata$x	ENDS
;	COMDAT ??_R0?AVlength_error@std@@@8
_DATA	SEGMENT
??_R0?AVlength_error@std@@@8 DD FLAT:??_7type_info@@6B@	; std::length_error `RTTI Type Descriptor'
	DD	00H
	DB	'.?AVlength_error@std@@', 00H
; Function compile flags: /Ogty
_DATA	ENDS
;	COMDAT ?_Insert@?$_Tree@V?$_Tmap_traits@KPAVCGuildHouseBase@@U?$less@K@std@@V?$allocator@U?$pair@$$CBKPAVCGuildHouseBase@@@std@@@3@$0A@@std@@@std@@IAE?AViterator@12@_NPAU_Node@?$_Tree_nod@V?$_Tmap_traits@KPAVCGuildHouseBase@@U?$less@K@std@@V?$allocator@U?$pair@$$CBKPAVCGuildHouseBase@@@std@@@3@$0A@@std@@@2@ABU?$pair@$$CBKPAVCGuildHouseBase@@@2@@Z
_TEXT	SEGMENT
$T199356 = -80						; size = 28
$T199355 = -52						; size = 40
__$EHRec$ = -12						; size = 12
___$ReturnUdt$ = 8					; size = 4
__Addleft$ = 12						; size = 1
__Wherenode$ = 16					; size = 4
__Newnode$ = 20						; size = 4
__Val$ = 20						; size = 4
?_Insert@?$_Tree@V?$_Tmap_traits@KPAVCGuildHouseBase@@U?$less@K@std@@V?$allocator@U?$pair@$$CBKPAVCGuildHouseBase@@@std@@@3@$0A@@std@@@std@@IAE?AViterator@12@_NPAU_Node@?$_Tree_nod@V?$_Tmap_traits@KPAVCGuildHouseBase@@U?$less@K@std@@V?$allocator@U?$pair@$$CBKPAVCGuildHouseBase@@@std@@@3@$0A@@std@@@2@ABU?$pair@$$CBKPAVCGuildHouseBase@@@2@@Z PROC NEAR ; std::_Tree<std::_Tmap_traits<unsigned long,CGuildHouseBase *,std::less<unsigned long>,std::allocator<std::pair<unsigned long const ,CGuildHouseBase *> >,0> >::_Insert, COMDAT
; _this$ = ecx

; 911  : 		{	// add node with value next to _Wherenode, to left if _Addnode

  00000	64 a1 00 00 00
	00		 mov	 eax, DWORD PTR fs:__except_list
  00006	6a ff		 push	 -1
  00008	68 00 00 00 00	 push	 __ehhandler$?_Insert@?$_Tree@V?$_Tmap_traits@KPAVCGuildHouseBase@@U?$less@K@std@@V?$allocator@U?$pair@$$CBKPAVCGuildHouseBase@@@std@@@3@$0A@@std@@@std@@IAE?AViterator@12@_NPAU_Node@?$_Tree_nod@V?$_Tmap_traits@KPAVCGuildHouseBase@@U?$less@K@std@@V?$allocator@U?$pair@$$CBKPAVCGuildHouseBase@@@std@@@3@$0A@@std@@@2@ABU?$pair@$$CBKPAVCGuildHouseBase@@@2@@Z
  0000d	50		 push	 eax
  0000e	64 89 25 00 00
	00 00		 mov	 DWORD PTR fs:__except_list, esp
  00015	83 ec 44	 sub	 esp, 68			; 00000044H
  00018	56		 push	 esi
  00019	57		 push	 edi
  0001a	8b f9		 mov	 edi, ecx

; 912  : 		if (max_size() - 1 <= _Mysize)

  0001c	81 7f 08 fe ff
	ff 1f		 cmp	 DWORD PTR [edi+8], 536870910 ; 1ffffffeH
  00023	72 4c		 jb	 SHORT $L192932

; 913  : 			_THROW(length_error, "map/set<T> too long");

  00025	6a 13		 push	 19			; 00000013H
  00027	33 f6		 xor	 esi, esi
  00029	68 00 00 00 00	 push	 OFFSET FLAT:??_C@_0BE@JONHPENG@map?1set?$DMT?$DO?5too?5long?$AA@
  0002e	8d 4c 24 10	 lea	 ecx, DWORD PTR $T199356[esp+96]
  00032	c7 44 24 28 0f
	00 00 00	 mov	 DWORD PTR $T199356[esp+120], 15 ; 0000000fH
  0003a	89 74 24 24	 mov	 DWORD PTR $T199356[esp+116], esi
  0003e	c6 44 24 14 00	 mov	 BYTE PTR $T199356[esp+100], 0
  00043	e8 00 00 00 00	 call	 ?assign@?$basic_string@DU?$char_traits@D@std@@V?$allocator@D@2@@std@@QAEAAV12@PBDI@Z ; std::basic_string<char,std::char_traits<char>,std::allocator<char> >::assign
  00048	8d 44 24 08	 lea	 eax, DWORD PTR $T199356[esp+88]
  0004c	50		 push	 eax
  0004d	8d 4c 24 28	 lea	 ecx, DWORD PTR $T199355[esp+92]
  00051	89 74 24 58	 mov	 DWORD PTR __$EHRec$[esp+100], esi
  00055	e8 00 00 00 00	 call	 ??0logic_error@std@@QAE@ABV?$basic_string@DU?$char_traits@D@std@@V?$allocator@D@2@@1@@Z ; std::logic_error::logic_error
  0005a	68 00 00 00 00	 push	 OFFSET FLAT:__TI3?AVlength_error@std@@
  0005f	8d 4c 24 28	 lea	 ecx, DWORD PTR $T199355[esp+92]
  00063	51		 push	 ecx
  00064	c7 44 24 2c 00
	00 00 00	 mov	 DWORD PTR $T199355[esp+96], OFFSET FLAT:??_7length_error@std@@6B@
  0006c	e8 00 00 00 00	 call	 __CxxThrowException@8
$L192932:

; 914  : 		_Nodeptr _Newnode = _Buynode(_Myhead, _Wherenode, _Myhead,
; 915  : 			_Val, _Red);

  00071	8b 54 24 68	 mov	 edx, DWORD PTR __Val$[esp+84]
  00075	8b 47 04	 mov	 eax, DWORD PTR [edi+4]
  00078	8b 74 24 64	 mov	 esi, DWORD PTR __Wherenode$[esp+84]
  0007c	53		 push	 ebx
  0007d	6a 00		 push	 0
  0007f	52		 push	 edx
  00080	50		 push	 eax
  00081	56		 push	 esi
  00082	50		 push	 eax
  00083	8b cf		 mov	 ecx, edi
  00085	e8 00 00 00 00	 call	 ?_Buynode@?$_Tree@V?$_Tmap_traits@KPAVCGuildHouseBase@@U?$less@K@std@@V?$allocator@U?$pair@$$CBKPAVCGuildHouseBase@@@std@@@3@$0A@@std@@@std@@IAEPAU_Node@?$_Tree_nod@V?$_Tmap_traits@KPAVCGuildHouseBase@@U?$less@K@std@@V?$allocator@U?$pair@$$CBKPAVCGuildHouseBase@@@std@@@3@$0A@@std@@@2@PAU342@00ABU?$pair@$$CBKPAVCGuildHouseBase@@@2@D@Z ; std::_Tree<std::_Tmap_traits<unsigned long,CGuildHouseBase *,std::less<unsigned long>,std::allocator<std::pair<unsigned long const ,CGuildHouseBase *> >,0> >::_Buynode

; 916  : 
; 917  : 		++_Mysize;

  0008a	8b 5f 08	 mov	 ebx, DWORD PTR [edi+8]
  0008d	8b c8		 mov	 ecx, eax

; 918  : 		if (_Wherenode == _Myhead)

  0008f	8b 47 04	 mov	 eax, DWORD PTR [edi+4]
  00092	43		 inc	 ebx
  00093	3b f0		 cmp	 esi, eax
  00095	89 4c 24 6c	 mov	 DWORD PTR __Newnode$[esp+88], ecx
  00099	89 5f 08	 mov	 DWORD PTR [edi+8], ebx
  0009c	75 10		 jne	 SHORT $L192937

; 919  : 			{	// first node in tree, just set head values
; 920  : 			_Root() = _Newnode;

  0009e	89 48 04	 mov	 DWORD PTR [eax+4], ecx

; 921  : 			_Lmost() = _Newnode, _Rmost() = _Newnode;

  000a1	8b 47 04	 mov	 eax, DWORD PTR [edi+4]
  000a4	89 08		 mov	 DWORD PTR [eax], ecx
  000a6	8b 57 04	 mov	 edx, DWORD PTR [edi+4]
  000a9	89 4a 08	 mov	 DWORD PTR [edx+8], ecx

; 922  : 			}
; 923  : 		else if (_Addleft)

  000ac	eb 23		 jmp	 SHORT $L192942
$L192937:
  000ae	8a 44 24 64	 mov	 al, BYTE PTR __Addleft$[esp+88]
  000b2	84 c0		 test	 al, al
  000b4	74 0d		 je	 SHORT $L192939

; 924  : 			{	// add to left of _Wherenode
; 925  : 			_Left(_Wherenode) = _Newnode;

  000b6	89 0e		 mov	 DWORD PTR [esi], ecx

; 926  : 			if (_Wherenode == _Lmost())

  000b8	8b 47 04	 mov	 eax, DWORD PTR [edi+4]
  000bb	3b 30		 cmp	 esi, DWORD PTR [eax]
  000bd	75 12		 jne	 SHORT $L192942

; 927  : 				_Lmost() = _Newnode;

  000bf	89 08		 mov	 DWORD PTR [eax], ecx

; 928  : 			}
; 929  : 		else

  000c1	eb 0e		 jmp	 SHORT $L192942
$L192939:

; 930  : 			{	// add to right of _Wherenode
; 931  : 			_Right(_Wherenode) = _Newnode;

  000c3	89 4e 08	 mov	 DWORD PTR [esi+8], ecx

; 932  : 			if (_Wherenode == _Rmost())

  000c6	8b 47 04	 mov	 eax, DWORD PTR [edi+4]
  000c9	3b 70 08	 cmp	 esi, DWORD PTR [eax+8]
  000cc	75 03		 jne	 SHORT $L192942

; 933  : 				_Rmost() = _Newnode;

  000ce	89 48 08	 mov	 DWORD PTR [eax+8], ecx
$L192942:

; 934  : 			}
; 935  : 
; 936  : 		for (_Nodeptr _Pnode = _Newnode; _Color(_Parent(_Pnode)) == _Red; )

  000d1	8b 51 04	 mov	 edx, DWORD PTR [ecx+4]
  000d4	80 7a 14 00	 cmp	 BYTE PTR [edx+20], 0
  000d8	8d 41 04	 lea	 eax, DWORD PTR [ecx+4]
  000db	8b f1		 mov	 esi, ecx
  000dd	b3 01		 mov	 bl, 1
  000df	0f 85 a5 00 00
	00		 jne	 $L192946
  000e5	55		 push	 ebp
$L192945:

; 937  : 			if (_Parent(_Pnode) == _Left(_Parent(_Parent(_Pnode))))

  000e6	8b 08		 mov	 ecx, DWORD PTR [eax]
  000e8	8b 69 04	 mov	 ebp, DWORD PTR [ecx+4]
  000eb	8b 55 00	 mov	 edx, DWORD PTR [ebp]
  000ee	3b ca		 cmp	 ecx, edx
  000f0	75 50		 jne	 SHORT $L192947

; 938  : 				{	// fixup red-red in left subtree
; 939  : 				_Wherenode = _Right(_Parent(_Parent(_Pnode)));

  000f2	8b 55 08	 mov	 edx, DWORD PTR [ebp+8]

; 940  : 				if (_Color(_Wherenode) == _Red)

  000f5	80 7a 14 00	 cmp	 BYTE PTR [edx+20], 0
  000f9	75 18		 jne	 SHORT $L192948
$L199726:

; 941  : 					{	// parent has two red children, blacken both
; 942  : 					_Color(_Parent(_Pnode)) = _Black;

  000fb	8b 08		 mov	 ecx, DWORD PTR [eax]
  000fd	88 59 14	 mov	 BYTE PTR [ecx+20], bl

; 943  : 					_Color(_Wherenode) = _Black;

  00100	88 5a 14	 mov	 BYTE PTR [edx+20], bl

; 944  : 					_Color(_Parent(_Parent(_Pnode))) = _Red;

  00103	8b 10		 mov	 edx, DWORD PTR [eax]
  00105	8b 4a 04	 mov	 ecx, DWORD PTR [edx+4]
  00108	c6 41 14 00	 mov	 BYTE PTR [ecx+20], 0

; 945  : 					_Pnode = _Parent(_Parent(_Pnode));

  0010c	8b 10		 mov	 edx, DWORD PTR [eax]
  0010e	8b 72 04	 mov	 esi, DWORD PTR [edx+4]

; 946  : 					}
; 947  : 				else

  00111	eb 61		 jmp	 SHORT $L192953
$L192948:

; 948  : 					{	// parent has red and black children
; 949  : 					if (_Pnode == _Right(_Parent(_Pnode)))

  00113	3b 71 08	 cmp	 esi, DWORD PTR [ecx+8]
  00116	75 0a		 jne	 SHORT $L192950

; 950  : 						{	// rotate right child to left
; 951  : 						_Pnode = _Parent(_Pnode);

  00118	8b f1		 mov	 esi, ecx

; 952  : 						_Lrotate(_Pnode);

  0011a	56		 push	 esi
  0011b	8b cf		 mov	 ecx, edi
  0011d	e8 00 00 00 00	 call	 ?_Lrotate@?$_Tree@V?$_Tmap_traits@KPAVCGuildHouseBase@@U?$less@K@std@@V?$allocator@U?$pair@$$CBKPAVCGuildHouseBase@@@std@@@3@$0A@@std@@@std@@IAEXPAU_Node@?$_Tree_nod@V?$_Tmap_traits@KPAVCGuildHouseBase@@U?$less@K@std@@V?$allocator@U?$pair@$$CBKPAVCGuildHouseBase@@@std@@@3@$0A@@std@@@2@@Z ; std::_Tree<std::_Tmap_traits<unsigned long,CGuildHouseBase *,std::less<unsigned long>,std::allocator<std::pair<unsigned long const ,CGuildHouseBase *> >,0> >::_Lrotate
$L192950:

; 953  : 						}
; 954  : 					_Color(_Parent(_Pnode)) = _Black;	// propagate red up

  00122	8b 46 04	 mov	 eax, DWORD PTR [esi+4]
  00125	88 58 14	 mov	 BYTE PTR [eax+20], bl

; 955  : 					_Color(_Parent(_Parent(_Pnode))) = _Red;

  00128	8b 4e 04	 mov	 ecx, DWORD PTR [esi+4]
  0012b	8b 51 04	 mov	 edx, DWORD PTR [ecx+4]
  0012e	c6 42 14 00	 mov	 BYTE PTR [edx+20], 0

; 956  : 					_Rrotate(_Parent(_Parent(_Pnode)));

  00132	8b 46 04	 mov	 eax, DWORD PTR [esi+4]
  00135	8b 48 04	 mov	 ecx, DWORD PTR [eax+4]
  00138	51		 push	 ecx
  00139	8b cf		 mov	 ecx, edi
  0013b	e8 00 00 00 00	 call	 ?_Rrotate@?$_Tree@V?$_Tmap_traits@KPAVCGuildHouseBase@@U?$less@K@std@@V?$allocator@U?$pair@$$CBKPAVCGuildHouseBase@@@std@@@3@$0A@@std@@@std@@IAEXPAU_Node@?$_Tree_nod@V?$_Tmap_traits@KPAVCGuildHouseBase@@U?$less@K@std@@V?$allocator@U?$pair@$$CBKPAVCGuildHouseBase@@@std@@@3@$0A@@std@@@2@@Z ; std::_Tree<std::_Tmap_traits<unsigned long,CGuildHouseBase *,std::less<unsigned long>,std::allocator<std::pair<unsigned long const ,CGuildHouseBase *> >,0> >::_Rrotate

; 957  : 					}
; 958  : 				}
; 959  : 			else

  00140	eb 32		 jmp	 SHORT $L192953
$L192947:

; 960  : 				{	// fixup red-red in right subtree
; 961  : 				_Wherenode = _Left(_Parent(_Parent(_Pnode)));
; 962  : 				if (_Color(_Wherenode) == _Red)

  00142	80 7a 14 00	 cmp	 BYTE PTR [edx+20], 0

; 963  : 					{	// parent has two red children, blacken both
; 964  : 					_Color(_Parent(_Pnode)) = _Black;
; 965  : 					_Color(_Wherenode) = _Black;
; 966  : 					_Color(_Parent(_Parent(_Pnode))) = _Red;
; 967  : 					_Pnode = _Parent(_Parent(_Pnode));
; 968  : 					}
; 969  : 				else

  00146	74 b3		 je	 SHORT $L199726

; 970  : 					{	// parent has red and black children
; 971  : 					if (_Pnode == _Left(_Parent(_Pnode)))

  00148	3b 31		 cmp	 esi, DWORD PTR [ecx]
  0014a	75 0a		 jne	 SHORT $L192954

; 972  : 						{	// rotate left child to right
; 973  : 						_Pnode = _Parent(_Pnode);

  0014c	8b f1		 mov	 esi, ecx

; 974  : 						_Rrotate(_Pnode);

  0014e	56		 push	 esi
  0014f	8b cf		 mov	 ecx, edi
  00151	e8 00 00 00 00	 call	 ?_Rrotate@?$_Tree@V?$_Tmap_traits@KPAVCGuildHouseBase@@U?$less@K@std@@V?$allocator@U?$pair@$$CBKPAVCGuildHouseBase@@@std@@@3@$0A@@std@@@std@@IAEXPAU_Node@?$_Tree_nod@V?$_Tmap_traits@KPAVCGuildHouseBase@@U?$less@K@std@@V?$allocator@U?$pair@$$CBKPAVCGuildHouseBase@@@std@@@3@$0A@@std@@@2@@Z ; std::_Tree<std::_Tmap_traits<unsigned long,CGuildHouseBase *,std::less<unsigned long>,std::allocator<std::pair<unsigned long const ,CGuildHouseBase *> >,0> >::_Rrotate
$L192954:

; 975  : 						}
; 976  : 					_Color(_Parent(_Pnode)) = _Black;	// propagate red up

  00156	8b 46 04	 mov	 eax, DWORD PTR [esi+4]
  00159	88 58 14	 mov	 BYTE PTR [eax+20], bl

; 977  : 					_Color(_Parent(_Parent(_Pnode))) = _Red;

  0015c	8b 4e 04	 mov	 ecx, DWORD PTR [esi+4]
  0015f	8b 51 04	 mov	 edx, DWORD PTR [ecx+4]
  00162	c6 42 14 00	 mov	 BYTE PTR [edx+20], 0

; 978  : 					_Lrotate(_Parent(_Parent(_Pnode)));

  00166	8b 46 04	 mov	 eax, DWORD PTR [esi+4]
  00169	8b 48 04	 mov	 ecx, DWORD PTR [eax+4]
  0016c	51		 push	 ecx
  0016d	8b cf		 mov	 ecx, edi
  0016f	e8 00 00 00 00	 call	 ?_Lrotate@?$_Tree@V?$_Tmap_traits@KPAVCGuildHouseBase@@U?$less@K@std@@V?$allocator@U?$pair@$$CBKPAVCGuildHouseBase@@@std@@@3@$0A@@std@@@std@@IAEXPAU_Node@?$_Tree_nod@V?$_Tmap_traits@KPAVCGuildHouseBase@@U?$less@K@std@@V?$allocator@U?$pair@$$CBKPAVCGuildHouseBase@@@std@@@3@$0A@@std@@@2@@Z ; std::_Tree<std::_Tmap_traits<unsigned long,CGuildHouseBase *,std::less<unsigned long>,std::allocator<std::pair<unsigned long const ,CGuildHouseBase *> >,0> >::_Lrotate
$L192953:
  00174	8b 56 04	 mov	 edx, DWORD PTR [esi+4]
  00177	8a 4a 14	 mov	 cl, BYTE PTR [edx+20]
  0017a	84 c9		 test	 cl, cl
  0017c	8d 46 04	 lea	 eax, DWORD PTR [esi+4]
  0017f	0f 84 61 ff ff
	ff		 je	 $L192945
  00185	8b 4c 24 70	 mov	 ecx, DWORD PTR __Newnode$[esp+92]
  00189	5d		 pop	 ebp
$L192946:

; 979  : 					}
; 980  : 				}
; 981  : 
; 982  : 		_Color(_Root()) = _Black;	// root is always black

  0018a	8b 47 04	 mov	 eax, DWORD PTR [edi+4]
  0018d	8b 50 04	 mov	 edx, DWORD PTR [eax+4]

; 983  : 		return (_TREE_ITERATOR(_Newnode));

  00190	8b 44 24 60	 mov	 eax, DWORD PTR ___$ReturnUdt$[esp+88]
  00194	88 5a 14	 mov	 BYTE PTR [edx+20], bl
  00197	5b		 pop	 ebx
  00198	89 08		 mov	 DWORD PTR [eax], ecx

; 984  : 		}

  0019a	8b 4c 24 4c	 mov	 ecx, DWORD PTR __$EHRec$[esp+88]
  0019e	5f		 pop	 edi
  0019f	5e		 pop	 esi
  001a0	64 89 0d 00 00
	00 00		 mov	 DWORD PTR fs:__except_list, ecx
  001a7	83 c4 50	 add	 esp, 80			; 00000050H
  001aa	c2 10 00	 ret	 16			; 00000010H
$L199725:
_TEXT	ENDS
;	COMDAT text$x
text$x	SEGMENT
$L199357:
  00000	8d 4d b0	 lea	 ecx, DWORD PTR $T199356[ebp]
  00003	e9 00 00 00 00	 jmp	 ??1?$basic_string@DU?$char_traits@D@std@@V?$allocator@D@2@@std@@QAE@XZ ; std::basic_string<char,std::char_traits<char>,std::allocator<char> >::~basic_string<char,std::char_traits<char>,std::allocator<char> >
__ehhandler$?_Insert@?$_Tree@V?$_Tmap_traits@KPAVCGuildHouseBase@@U?$less@K@std@@V?$allocator@U?$pair@$$CBKPAVCGuildHouseBase@@@std@@@3@$0A@@std@@@std@@IAE?AViterator@12@_NPAU_Node@?$_Tree_nod@V?$_Tmap_traits@KPAVCGuildHouseBase@@U?$less@K@std@@V?$allocator@U?$pair@$$CBKPAVCGuildHouseBase@@@std@@@3@$0A@@std@@@2@ABU?$pair@$$CBKPAVCGuildHouseBase@@@2@@Z:
  00008	b8 00 00 00 00	 mov	 eax, OFFSET FLAT:$T199722
  0000d	e9 00 00 00 00	 jmp	 ___CxxFrameHandler
text$x	ENDS
?_Insert@?$_Tree@V?$_Tmap_traits@KPAVCGuildHouseBase@@U?$less@K@std@@V?$allocator@U?$pair@$$CBKPAVCGuildHouseBase@@@std@@@3@$0A@@std@@@std@@IAE?AViterator@12@_NPAU_Node@?$_Tree_nod@V?$_Tmap_traits@KPAVCGuildHouseBase@@U?$less@K@std@@V?$allocator@U?$pair@$$CBKPAVCGuildHouseBase@@@std@@@3@$0A@@std@@@2@ABU?$pair@$$CBKPAVCGuildHouseBase@@@2@@Z ENDP ; std::_Tree<std::_Tmap_traits<unsigned long,CGuildHouseBase *,std::less<unsigned long>,std::allocator<std::pair<unsigned long const ,CGuildHouseBase *> >,0> >::_Insert
; Function compile flags: /Ogty
;	COMDAT ??0length_error@std@@QAE@ABV01@@Z
_TEXT	SEGMENT
___that$ = 8						; size = 4
??0length_error@std@@QAE@ABV01@@Z PROC NEAR		; std::length_error::length_error, COMDAT
; _this$ = ecx
  00000	8b 44 24 04	 mov	 eax, DWORD PTR ___that$[esp-4]
  00004	56		 push	 esi
  00005	50		 push	 eax
  00006	8b f1		 mov	 esi, ecx
  00008	e8 00 00 00 00	 call	 ??0logic_error@std@@QAE@ABV01@@Z
  0000d	c7 06 00 00 00
	00		 mov	 DWORD PTR [esi], OFFSET FLAT:??_7length_error@std@@6B@
  00013	8b c6		 mov	 eax, esi
  00015	5e		 pop	 esi
  00016	c2 04 00	 ret	 4
??0length_error@std@@QAE@ABV01@@Z ENDP			; std::length_error::length_error
_TEXT	ENDS
PUBLIC	?_Xlen@?$vector@UGuildHouse_Furniture_Info@CGuildHouseBase@@V?$allocator@UGuildHouse_Furniture_Info@CGuildHouseBase@@@std@@@std@@IBEXXZ ; std::vector<CGuildHouseBase::GuildHouse_Furniture_Info,std::allocator<CGuildHouseBase::GuildHouse_Furniture_Info> >::_Xlen
PUBLIC	??_C@_0BD@OLBABOEK@vector?$DMT?$DO?5too?5long?$AA@ ; `string'
;	COMDAT xdata$x
; File c:\program files\microsoft visual studio .net 2003\vc7\include\stdexcept
xdata$x	SEGMENT
$T199852 DD	0ffffffffH
	DD	FLAT:$L199737
$T199849 DD	019930520H
	DD	01H
	DD	FLAT:$T199852
	DD	2 DUP(00H)
	DD	2 DUP(00H)
xdata$x	ENDS
;	COMDAT ??_C@_0BD@OLBABOEK@vector?$DMT?$DO?5too?5long?$AA@
CONST	SEGMENT
??_C@_0BD@OLBABOEK@vector?$DMT?$DO?5too?5long?$AA@ DB 'vector<T> too long'
	DB	00H						; `string'
; Function compile flags: /Ogty
; File c:\program files\microsoft visual studio .net 2003\vc7\include\vector
CONST	ENDS
;	COMDAT ?_Xlen@?$vector@UGuildHouse_Furniture_Info@CGuildHouseBase@@V?$allocator@UGuildHouse_Furniture_Info@CGuildHouseBase@@@std@@@std@@IBEXXZ
_TEXT	SEGMENT
$T199736 = -80						; size = 28
$T199735 = -52						; size = 40
__$EHRec$ = -12						; size = 12
?_Xlen@?$vector@UGuildHouse_Furniture_Info@CGuildHouseBase@@V?$allocator@UGuildHouse_Furniture_Info@CGuildHouseBase@@@std@@@std@@IBEXXZ PROC NEAR ; std::vector<CGuildHouseBase::GuildHouse_Furniture_Info,std::allocator<CGuildHouseBase::GuildHouse_Furniture_Info> >::_Xlen, COMDAT
; _this$ = ecx

; 883  : 		{	// report a length_error

  00000	6a ff		 push	 -1
  00002	68 00 00 00 00	 push	 __ehhandler$?_Xlen@?$vector@UGuildHouse_Furniture_Info@CGuildHouseBase@@V?$allocator@UGuildHouse_Furniture_Info@CGuildHouseBase@@@std@@@std@@IBEXXZ
  00007	64 a1 00 00 00
	00		 mov	 eax, DWORD PTR fs:__except_list
  0000d	50		 push	 eax
  0000e	64 89 25 00 00
	00 00		 mov	 DWORD PTR fs:__except_list, esp
  00015	83 ec 44	 sub	 esp, 68			; 00000044H

; 884  : 		_THROW(length_error, "vector<T> too long");

  00018	6a 12		 push	 18			; 00000012H
  0001a	68 00 00 00 00	 push	 OFFSET FLAT:??_C@_0BD@OLBABOEK@vector?$DMT?$DO?5too?5long?$AA@
  0001f	8d 4c 24 08	 lea	 ecx, DWORD PTR $T199736[esp+88]
  00023	c7 44 24 20 0f
	00 00 00	 mov	 DWORD PTR $T199736[esp+112], 15 ; 0000000fH
  0002b	c7 44 24 1c 00
	00 00 00	 mov	 DWORD PTR $T199736[esp+108], 0
  00033	c6 44 24 0c 00	 mov	 BYTE PTR $T199736[esp+92], 0
  00038	e8 00 00 00 00	 call	 ?assign@?$basic_string@DU?$char_traits@D@std@@V?$allocator@D@2@@std@@QAEAAV12@PBDI@Z ; std::basic_string<char,std::char_traits<char>,std::allocator<char> >::assign
  0003d	8d 04 24	 lea	 eax, DWORD PTR $T199736[esp+80]
  00040	50		 push	 eax
  00041	8d 4c 24 20	 lea	 ecx, DWORD PTR $T199735[esp+84]
  00045	c7 44 24 50 00
	00 00 00	 mov	 DWORD PTR __$EHRec$[esp+92], 0
  0004d	e8 00 00 00 00	 call	 ??0logic_error@std@@QAE@ABV?$basic_string@DU?$char_traits@D@std@@V?$allocator@D@2@@1@@Z ; std::logic_error::logic_error
  00052	68 00 00 00 00	 push	 OFFSET FLAT:__TI3?AVlength_error@std@@
  00057	8d 4c 24 20	 lea	 ecx, DWORD PTR $T199735[esp+84]
  0005b	51		 push	 ecx
  0005c	c7 44 24 24 00
	00 00 00	 mov	 DWORD PTR $T199735[esp+88], OFFSET FLAT:??_7length_error@std@@6B@
  00064	e8 00 00 00 00	 call	 __CxxThrowException@8
$L199851:
  00069	cc		 int	 3
_TEXT	ENDS
;	COMDAT text$x
text$x	SEGMENT
$L199737:
  00000	8d 4d b0	 lea	 ecx, DWORD PTR $T199736[ebp]
  00003	e9 00 00 00 00	 jmp	 ??1?$basic_string@DU?$char_traits@D@std@@V?$allocator@D@2@@std@@QAE@XZ ; std::basic_string<char,std::char_traits<char>,std::allocator<char> >::~basic_string<char,std::char_traits<char>,std::allocator<char> >
__ehhandler$?_Xlen@?$vector@UGuildHouse_Furniture_Info@CGuildHouseBase@@V?$allocator@UGuildHouse_Furniture_Info@CGuildHouseBase@@@std@@@std@@IBEXXZ:
  00008	b8 00 00 00 00	 mov	 eax, OFFSET FLAT:$T199849
  0000d	e9 00 00 00 00	 jmp	 ___CxxFrameHandler
text$x	ENDS
?_Xlen@?$vector@UGuildHouse_Furniture_Info@CGuildHouseBase@@V?$allocator@UGuildHouse_Furniture_Info@CGuildHouseBase@@@std@@@std@@IBEXXZ ENDP ; std::vector<CGuildHouseBase::GuildHouse_Furniture_Info,std::allocator<CGuildHouseBase::GuildHouse_Furniture_Info> >::_Xlen
PUBLIC	?erase@?$_Tree@V?$_Tmap_traits@KPAVCGuildHouseBase@@U?$less@K@std@@V?$allocator@U?$pair@$$CBKPAVCGuildHouseBase@@@std@@@3@$0A@@std@@@std@@QAE?AViterator@12@V312@0@Z ; std::_Tree<std::_Tmap_traits<unsigned long,CGuildHouseBase *,std::less<unsigned long>,std::allocator<std::pair<unsigned long const ,CGuildHouseBase *> >,0> >::erase
; Function compile flags: /Ogty
; File c:\program files\microsoft visual studio .net 2003\vc7\include\xtree
;	COMDAT ?erase@?$_Tree@V?$_Tmap_traits@KPAVCGuildHouseBase@@U?$less@K@std@@V?$allocator@U?$pair@$$CBKPAVCGuildHouseBase@@@std@@@3@$0A@@std@@@std@@QAE?AViterator@12@V312@0@Z
_TEXT	SEGMENT
___$ReturnUdt$ = 8					; size = 4
$T199860 = 12						; size = 4
__First$ = 12						; size = 4
__Last$ = 16						; size = 4
?erase@?$_Tree@V?$_Tmap_traits@KPAVCGuildHouseBase@@U?$less@K@std@@V?$allocator@U?$pair@$$CBKPAVCGuildHouseBase@@@std@@@3@$0A@@std@@@std@@QAE?AViterator@12@V312@0@Z PROC NEAR ; std::_Tree<std::_Tmap_traits<unsigned long,CGuildHouseBase *,std::less<unsigned long>,std::allocator<std::pair<unsigned long const ,CGuildHouseBase *> >,0> >::erase, COMDAT
; _this$ = ecx

; 750  : 		{	// erase [_First, _Last)

  00000	53		 push	 ebx

; 751  : 		if (_First == begin() && _Last == end())

  00001	8b 5c 24 10	 mov	 ebx, DWORD PTR __Last$[esp]
  00005	56		 push	 esi
  00006	8b 74 24 10	 mov	 esi, DWORD PTR __First$[esp+4]
  0000a	57		 push	 edi
  0000b	8b f9		 mov	 edi, ecx
  0000d	8b 47 04	 mov	 eax, DWORD PTR [edi+4]
  00010	3b 30		 cmp	 esi, DWORD PTR [eax]
  00012	75 38		 jne	 SHORT $L200192
  00014	3b d8		 cmp	 ebx, eax
  00016	75 34		 jne	 SHORT $L200192

; 752  : 			{	// erase all
; 753  : 			clear();

  00018	8b 40 04	 mov	 eax, DWORD PTR [eax+4]
  0001b	50		 push	 eax
  0001c	8b cf		 mov	 ecx, edi
  0001e	e8 00 00 00 00	 call	 ?_Erase@?$_Tree@V?$_Tmap_traits@KPAVCGuildHouseBase@@U?$less@K@std@@V?$allocator@U?$pair@$$CBKPAVCGuildHouseBase@@@std@@@3@$0A@@std@@@std@@IAEXPAU_Node@?$_Tree_nod@V?$_Tmap_traits@KPAVCGuildHouseBase@@U?$less@K@std@@V?$allocator@U?$pair@$$CBKPAVCGuildHouseBase@@@std@@@3@$0A@@std@@@2@@Z ; std::_Tree<std::_Tmap_traits<unsigned long,CGuildHouseBase *,std::less<unsigned long>,std::allocator<std::pair<unsigned long const ,CGuildHouseBase *> >,0> >::_Erase
  00023	8b 47 04	 mov	 eax, DWORD PTR [edi+4]
  00026	89 40 04	 mov	 DWORD PTR [eax+4], eax
  00029	8b 47 04	 mov	 eax, DWORD PTR [edi+4]
  0002c	c7 47 08 00 00
	00 00		 mov	 DWORD PTR [edi+8], 0
  00033	89 00		 mov	 DWORD PTR [eax], eax
  00035	8b 47 04	 mov	 eax, DWORD PTR [edi+4]
  00038	89 40 08	 mov	 DWORD PTR [eax+8], eax

; 754  : 			return (begin());

  0003b	8b 4f 04	 mov	 ecx, DWORD PTR [edi+4]
  0003e	8b 11		 mov	 edx, DWORD PTR [ecx]
  00040	8b 44 24 10	 mov	 eax, DWORD PTR ___$ReturnUdt$[esp+8]
  00044	5f		 pop	 edi
  00045	5e		 pop	 esi
  00046	89 10		 mov	 DWORD PTR [eax], edx
  00048	5b		 pop	 ebx

; 761  : 			}
; 762  : 		}

  00049	c2 0c 00	 ret	 12			; 0000000cH
$L200192:

; 755  : 			}
; 756  : 		else
; 757  : 			{	// partial erase, one at a time
; 758  : 			while (_First != _Last)

  0004c	3b f3		 cmp	 esi, ebx
  0004e	74 5b		 je	 SHORT $L193103
$L193102:

; 759  : 				erase(_First++);

  00050	8a 46 15	 mov	 al, BYTE PTR [esi+21]
  00053	84 c0		 test	 al, al
  00055	8b ce		 mov	 ecx, esi
  00057	75 41		 jne	 SHORT $L200186
  00059	8b 46 08	 mov	 eax, DWORD PTR [esi+8]
  0005c	8a 50 15	 mov	 dl, BYTE PTR [eax+21]
  0005f	84 d2		 test	 dl, dl
  00061	75 1a		 jne	 SHORT $L200194
  00063	8b f0		 mov	 esi, eax
  00065	8b 06		 mov	 eax, DWORD PTR [esi]
  00067	8a 50 15	 mov	 dl, BYTE PTR [eax+21]
  0006a	84 d2		 test	 dl, dl
  0006c	75 2c		 jne	 SHORT $L200186
  0006e	8b ff		 npad	 2
$L200174:
  00070	8b f0		 mov	 esi, eax
  00072	8b 06		 mov	 eax, DWORD PTR [esi]
  00074	8a 50 15	 mov	 dl, BYTE PTR [eax+21]
  00077	84 d2		 test	 dl, dl
  00079	74 f5		 je	 SHORT $L200174
  0007b	eb 1d		 jmp	 SHORT $L200186
$L200194:
  0007d	8b 46 04	 mov	 eax, DWORD PTR [esi+4]
  00080	8a 50 15	 mov	 dl, BYTE PTR [eax+21]
  00083	84 d2		 test	 dl, dl
  00085	75 11		 jne	 SHORT $L200189
$L200188:
  00087	3b 70 08	 cmp	 esi, DWORD PTR [eax+8]
  0008a	75 0c		 jne	 SHORT $L200189
  0008c	8b f0		 mov	 esi, eax
  0008e	8b 40 04	 mov	 eax, DWORD PTR [eax+4]
  00091	8a 50 15	 mov	 dl, BYTE PTR [eax+21]
  00094	84 d2		 test	 dl, dl
  00096	74 ef		 je	 SHORT $L200188
$L200189:
  00098	8b f0		 mov	 esi, eax
$L200186:
  0009a	51		 push	 ecx
  0009b	8d 44 24 18	 lea	 eax, DWORD PTR $T199860[esp+12]
  0009f	50		 push	 eax
  000a0	8b cf		 mov	 ecx, edi
  000a2	e8 00 00 00 00	 call	 ?erase@?$_Tree@V?$_Tmap_traits@KPAVCGuildHouseBase@@U?$less@K@std@@V?$allocator@U?$pair@$$CBKPAVCGuildHouseBase@@@std@@@3@$0A@@std@@@std@@QAE?AViterator@12@V312@@Z ; std::_Tree<std::_Tmap_traits<unsigned long,CGuildHouseBase *,std::less<unsigned long>,std::allocator<std::pair<unsigned long const ,CGuildHouseBase *> >,0> >::erase
  000a7	3b f3		 cmp	 esi, ebx
  000a9	75 a5		 jne	 SHORT $L193102
$L193103:

; 760  : 			return (_First);

  000ab	8b 44 24 10	 mov	 eax, DWORD PTR ___$ReturnUdt$[esp+8]
  000af	5f		 pop	 edi
  000b0	89 30		 mov	 DWORD PTR [eax], esi
  000b2	5e		 pop	 esi
  000b3	5b		 pop	 ebx

; 761  : 			}
; 762  : 		}

  000b4	c2 0c 00	 ret	 12			; 0000000cH
?erase@?$_Tree@V?$_Tmap_traits@KPAVCGuildHouseBase@@U?$less@K@std@@V?$allocator@U?$pair@$$CBKPAVCGuildHouseBase@@@std@@@3@$0A@@std@@@std@@QAE?AViterator@12@V312@0@Z ENDP ; std::_Tree<std::_Tmap_traits<unsigned long,CGuildHouseBase *,std::less<unsigned long>,std::allocator<std::pair<unsigned long const ,CGuildHouseBase *> >,0> >::erase
; Function compile flags: /Ogty
_TEXT	ENDS
;	COMDAT ??_GCGuildHouseBase@@UAEPAXI@Z
_TEXT	SEGMENT
___flags$ = 8						; size = 4
??_GCGuildHouseBase@@UAEPAXI@Z PROC NEAR		; CGuildHouseBase::`scalar deleting destructor', COMDAT
; _this$ = ecx
  00000	56		 push	 esi
  00001	8b f1		 mov	 esi, ecx
  00003	e8 00 00 00 00	 call	 ??1CGuildHouseBase@@UAE@XZ ; CGuildHouseBase::~CGuildHouseBase
  00008	f6 44 24 08 01	 test	 BYTE PTR ___flags$[esp], 1
  0000d	74 09		 je	 SHORT $L200200
  0000f	56		 push	 esi
  00010	e8 00 00 00 00	 call	 ??3@YAXPAX@Z		; operator delete
  00015	83 c4 04	 add	 esp, 4
$L200200:
  00018	8b c6		 mov	 eax, esi
  0001a	5e		 pop	 esi
  0001b	c2 04 00	 ret	 4
??_GCGuildHouseBase@@UAEPAXI@Z ENDP			; CGuildHouseBase::`scalar deleting destructor'
_TEXT	ENDS
PUBLIC	?RemoveGuildHouse@CGuildHouseMng@@QAEHK@Z	; CGuildHouseMng::RemoveGuildHouse
; Function compile flags: /Ogty
; File c:\documents and settings\test\mes documents\source\virtuos_v17\build\program\_common\guildhouse.cpp
;	COMDAT ?RemoveGuildHouse@CGuildHouseMng@@QAEHK@Z
_TEXT	SEGMENT
_it$ = -4						; size = 4
$T200208 = 8						; size = 4
_dwGuildId$ = 8						; size = 4
?RemoveGuildHouse@CGuildHouseMng@@QAEHK@Z PROC NEAR	; CGuildHouseMng::RemoveGuildHouse, COMDAT
; _this$ = ecx

; 1122 : {

  00000	51		 push	 ecx
  00001	53		 push	 ebx
  00002	56		 push	 esi
  00003	57		 push	 edi
  00004	8b f9		 mov	 edi, ecx

; 1123 : 	MapGuildHouse::iterator it = m_mapGuildHouse.find( dwGuildId );

  00006	8d 44 24 14	 lea	 eax, DWORD PTR _dwGuildId$[esp+12]
  0000a	50		 push	 eax
  0000b	8d 4c 24 10	 lea	 ecx, DWORD PTR _it$[esp+20]
  0000f	8d 5f 04	 lea	 ebx, DWORD PTR [edi+4]
  00012	51		 push	 ecx
  00013	8b cb		 mov	 ecx, ebx
  00015	e8 00 00 00 00	 call	 ?find@?$_Tree@V?$_Tmap_traits@KPAVCGuildHouseBase@@U?$less@K@std@@V?$allocator@U?$pair@$$CBKPAVCGuildHouseBase@@@std@@@3@$0A@@std@@@std@@QAE?AViterator@12@ABK@Z ; std::_Tree<std::_Tmap_traits<unsigned long,CGuildHouseBase *,std::less<unsigned long>,std::allocator<std::pair<unsigned long const ,CGuildHouseBase *> >,0> >::find

; 1124 : 	if( it == m_mapGuildHouse.end() )

  0001a	8b 74 24 0c	 mov	 esi, DWORD PTR _it$[esp+16]
  0001e	3b 77 08	 cmp	 esi, DWORD PTR [edi+8]
  00021	75 09		 jne	 SHORT $L192534
  00023	5f		 pop	 edi
  00024	5e		 pop	 esi

; 1125 : 		return FALSE;

  00025	33 c0		 xor	 eax, eax
  00027	5b		 pop	 ebx

; 1130 : }

  00028	59		 pop	 ecx
  00029	c2 04 00	 ret	 4
$L192534:

; 1126 : 	
; 1127 : 	SAFE_DELETE( it->second );

  0002c	8b 4e 10	 mov	 ecx, DWORD PTR [esi+16]
  0002f	85 c9		 test	 ecx, ecx
  00031	74 0d		 je	 SHORT $L192535
  00033	8b 11		 mov	 edx, DWORD PTR [ecx]
  00035	6a 01		 push	 1
  00037	ff 12		 call	 DWORD PTR [edx]
  00039	c7 46 10 00 00
	00 00		 mov	 DWORD PTR [esi+16], 0
$L192535:

; 1128 : 	m_mapGuildHouse.erase( it );

  00040	56		 push	 esi
  00041	8d 44 24 18	 lea	 eax, DWORD PTR $T200208[esp+16]
  00045	50		 push	 eax
  00046	8b cb		 mov	 ecx, ebx
  00048	e8 00 00 00 00	 call	 ?erase@?$_Tree@V?$_Tmap_traits@KPAVCGuildHouseBase@@U?$less@K@std@@V?$allocator@U?$pair@$$CBKPAVCGuildHouseBase@@@std@@@3@$0A@@std@@@std@@QAE?AViterator@12@V312@@Z ; std::_Tree<std::_Tmap_traits<unsigned long,CGuildHouseBase *,std::less<unsigned long>,std::allocator<std::pair<unsigned long const ,CGuildHouseBase *> >,0> >::erase
  0004d	5f		 pop	 edi
  0004e	5e		 pop	 esi

; 1129 : 	return TRUE;

  0004f	b8 01 00 00 00	 mov	 eax, 1
  00054	5b		 pop	 ebx

; 1130 : }

  00055	59		 pop	 ecx
  00056	c2 04 00	 ret	 4
?RemoveGuildHouse@CGuildHouseMng@@QAEHK@Z ENDP		; CGuildHouseMng::RemoveGuildHouse
_TEXT	ENDS
PUBLIC	?insert@?$_Tree@V?$_Tmap_traits@KPAVCGuildHouseBase@@U?$less@K@std@@V?$allocator@U?$pair@$$CBKPAVCGuildHouseBase@@@std@@@3@$0A@@std@@@std@@QAE?AU?$pair@Viterator@?$_Tree@V?$_Tmap_traits@KPAVCGuildHouseBase@@U?$less@K@std@@V?$allocator@U?$pair@$$CBKPAVCGuildHouseBase@@@std@@@3@$0A@@std@@@std@@_N@2@ABU?$pair@$$CBKPAVCGuildHouseBase@@@2@@Z ; std::_Tree<std::_Tmap_traits<unsigned long,CGuildHouseBase *,std::less<unsigned long>,std::allocator<std::pair<unsigned long const ,CGuildHouseBase *> >,0> >::insert
; Function compile flags: /Ogty
; File c:\program files\microsoft visual studio .net 2003\vc7\include\xtree
;	COMDAT ?insert@?$_Tree@V?$_Tmap_traits@KPAVCGuildHouseBase@@U?$less@K@std@@V?$allocator@U?$pair@$$CBKPAVCGuildHouseBase@@@std@@@3@$0A@@std@@@std@@QAE?AU?$pair@Viterator@?$_Tree@V?$_Tmap_traits@KPAVCGuildHouseBase@@U?$less@K@std@@V?$allocator@U?$pair@$$CBKPAVCGuildHouseBase@@@std@@@3@$0A@@std@@@std@@_N@2@ABU?$pair@$$CBKPAVCGuildHouseBase@@@2@@Z
_TEXT	SEGMENT
__Addleft$ = -4						; size = 1
___$ReturnUdt$ = 8					; size = 4
$T200310 = 12						; size = 4
$T200308 = 12						; size = 4
__Where$192732 = 12					; size = 4
__Val$ = 12						; size = 4
?insert@?$_Tree@V?$_Tmap_traits@KPAVCGuildHouseBase@@U?$less@K@std@@V?$allocator@U?$pair@$$CBKPAVCGuildHouseBase@@@std@@@3@$0A@@std@@@std@@QAE?AU?$pair@Viterator@?$_Tree@V?$_Tmap_traits@KPAVCGuildHouseBase@@U?$less@K@std@@V?$allocator@U?$pair@$$CBKPAVCGuildHouseBase@@@std@@@3@$0A@@std@@@std@@_N@2@ABU?$pair@$$CBKPAVCGuildHouseBase@@@2@@Z PROC NEAR ; std::_Tree<std::_Tmap_traits<unsigned long,CGuildHouseBase *,std::less<unsigned long>,std::allocator<std::pair<unsigned long const ,CGuildHouseBase *> >,0> >::insert, COMDAT
; _this$ = ecx

; 477  : 		{	// try to insert node with value _Val

  00000	51		 push	 ecx
  00001	55		 push	 ebp

; 478  : 		_Nodeptr _Trynode = _Root();
; 479  : 		_Nodeptr _Wherenode = _Myhead;
; 480  : 		bool _Addleft = true;	// add to left of head if tree empty
; 481  : 		while (!_Isnil(_Trynode))

  00002	8b 6c 24 10	 mov	 ebp, DWORD PTR __Val$[esp+4]
  00006	56		 push	 esi
  00007	57		 push	 edi
  00008	8b f9		 mov	 edi, ecx
  0000a	8b 77 04	 mov	 esi, DWORD PTR [edi+4]
  0000d	8b 46 04	 mov	 eax, DWORD PTR [esi+4]
  00010	8a 50 15	 mov	 dl, BYTE PTR [eax+21]
  00013	84 d2		 test	 dl, dl
  00015	b1 01		 mov	 cl, 1
  00017	88 4c 24 0c	 mov	 BYTE PTR __Addleft$[esp+16], cl
  0001b	75 20		 jne	 SHORT $L192722
  0001d	8b 55 00	 mov	 edx, DWORD PTR [ebp]
$L192721:

; 482  : 			{	// look for leaf to insert before (_Addleft) or after
; 483  : 			_Wherenode = _Trynode;
; 484  : 			_Addleft = this->comp(this->_Kfn(_Val), _Key(_Trynode));

  00020	3b 50 0c	 cmp	 edx, DWORD PTR [eax+12]
  00023	0f 92 c1	 setb	 cl

; 485  : 			_Trynode = _Addleft ? _Left(_Trynode) : _Right(_Trynode);

  00026	84 c9		 test	 cl, cl
  00028	8b f0		 mov	 esi, eax
  0002a	88 4c 24 0c	 mov	 BYTE PTR __Addleft$[esp+16], cl
  0002e	74 04		 je	 SHORT $L200302
  00030	8b 00		 mov	 eax, DWORD PTR [eax]
  00032	eb 03		 jmp	 SHORT $L200303
$L200302:
  00034	8b 40 08	 mov	 eax, DWORD PTR [eax+8]
$L200303:

; 478  : 		_Nodeptr _Trynode = _Root();
; 479  : 		_Nodeptr _Wherenode = _Myhead;
; 480  : 		bool _Addleft = true;	// add to left of head if tree empty
; 481  : 		while (!_Isnil(_Trynode))

  00037	80 78 15 00	 cmp	 BYTE PTR [eax+21], 0
  0003b	74 e3		 je	 SHORT $L192721
$L192722:

; 486  : 			}
; 487  : 
; 488  : 		if (this->_Multi)
; 489  : 			return (_Pairib(_Insert(_Addleft, _Wherenode, _Val), true));
; 490  : 		else
; 491  : 			{	// insert only if unique
; 492  : 			iterator _Where = _TREE_ITERATOR(_Wherenode);
; 493  : 			if (!_Addleft)

  0003d	84 c9		 test	 cl, cl
  0003f	8b d6		 mov	 edx, esi
  00041	89 54 24 18	 mov	 DWORD PTR __Where$192732[esp+12], edx
  00045	74 33		 je	 SHORT $L200402

; 494  : 				;	// need to test if insert after is okay
; 495  : 			else if (_Where == begin())

  00047	8b 47 04	 mov	 eax, DWORD PTR [edi+4]
  0004a	3b 30		 cmp	 esi, DWORD PTR [eax]

; 496  : 				return (_Pairib(_Insert(true, _Wherenode, _Val), true));

  0004c	8d 4c 24 18	 lea	 ecx, DWORD PTR $T200308[esp+12]
  00050	75 1f		 jne	 SHORT $L192737
  00052	55		 push	 ebp
  00053	56		 push	 esi
  00054	6a 01		 push	 1
  00056	51		 push	 ecx
  00057	8b cf		 mov	 ecx, edi
  00059	e8 00 00 00 00	 call	 ?_Insert@?$_Tree@V?$_Tmap_traits@KPAVCGuildHouseBase@@U?$less@K@std@@V?$allocator@U?$pair@$$CBKPAVCGuildHouseBase@@@std@@@3@$0A@@std@@@std@@IAE?AViterator@12@_NPAU_Node@?$_Tree_nod@V?$_Tmap_traits@KPAVCGuildHouseBase@@U?$less@K@std@@V?$allocator@U?$pair@$$CBKPAVCGuildHouseBase@@@std@@@3@$0A@@std@@@2@ABU?$pair@$$CBKPAVCGuildHouseBase@@@2@@Z ; std::_Tree<std::_Tmap_traits<unsigned long,CGuildHouseBase *,std::less<unsigned long>,std::allocator<std::pair<unsigned long const ,CGuildHouseBase *> >,0> >::_Insert
  0005e	8b 10		 mov	 edx, DWORD PTR [eax]
  00060	8b 44 24 14	 mov	 eax, DWORD PTR ___$ReturnUdt$[esp+12]
  00064	5f		 pop	 edi
  00065	5e		 pop	 esi
  00066	c6 40 04 01	 mov	 BYTE PTR [eax+4], 1

; 502  : 			else
; 503  : 				return (_Pairib(_Where, false));

  0006a	89 10		 mov	 DWORD PTR [eax], edx
  0006c	5d		 pop	 ebp

; 504  : 			}
; 505  : 		}

  0006d	59		 pop	 ecx
  0006e	c2 08 00	 ret	 8
$L192737:

; 497  : 			else
; 498  : 				--_Where;	// need to test if insert before is okay

  00071	e8 00 00 00 00	 call	 ?_Dec@const_iterator@?$_Tree@V?$_Tmap_traits@KPAVCGuildHouseBase@@U?$less@K@std@@V?$allocator@U?$pair@$$CBKPAVCGuildHouseBase@@@std@@@3@$0A@@std@@@std@@QAEXXZ ; std::_Tree<std::_Tmap_traits<unsigned long,CGuildHouseBase *,std::less<unsigned long>,std::allocator<std::pair<unsigned long const ,CGuildHouseBase *> >,0> >::const_iterator::_Dec
  00076	8b 54 24 18	 mov	 edx, DWORD PTR __Where$192732[esp+12]
$L200402:

; 499  : 
; 500  : 			if (this->comp(_Key(_Where._Mynode()), this->_Kfn(_Val)))

  0007a	8b 42 0c	 mov	 eax, DWORD PTR [edx+12]
  0007d	3b 45 00	 cmp	 eax, DWORD PTR [ebp]
  00080	73 26		 jae	 SHORT $L192742

; 501  : 				return (_Pairib(_Insert(_Addleft, _Wherenode, _Val), true));

  00082	8b 4c 24 0c	 mov	 ecx, DWORD PTR __Addleft$[esp+16]
  00086	55		 push	 ebp
  00087	56		 push	 esi
  00088	51		 push	 ecx
  00089	8d 54 24 24	 lea	 edx, DWORD PTR $T200310[esp+24]
  0008d	52		 push	 edx
  0008e	8b cf		 mov	 ecx, edi
  00090	e8 00 00 00 00	 call	 ?_Insert@?$_Tree@V?$_Tmap_traits@KPAVCGuildHouseBase@@U?$less@K@std@@V?$allocator@U?$pair@$$CBKPAVCGuildHouseBase@@@std@@@3@$0A@@std@@@std@@IAE?AViterator@12@_NPAU_Node@?$_Tree_nod@V?$_Tmap_traits@KPAVCGuildHouseBase@@U?$less@K@std@@V?$allocator@U?$pair@$$CBKPAVCGuildHouseBase@@@std@@@3@$0A@@std@@@2@ABU?$pair@$$CBKPAVCGuildHouseBase@@@2@@Z ; std::_Tree<std::_Tmap_traits<unsigned long,CGuildHouseBase *,std::less<unsigned long>,std::allocator<std::pair<unsigned long const ,CGuildHouseBase *> >,0> >::_Insert
  00095	8b 08		 mov	 ecx, DWORD PTR [eax]
  00097	8b 44 24 14	 mov	 eax, DWORD PTR ___$ReturnUdt$[esp+12]
  0009b	5f		 pop	 edi
  0009c	5e		 pop	 esi
  0009d	89 08		 mov	 DWORD PTR [eax], ecx
  0009f	c6 40 04 01	 mov	 BYTE PTR [eax+4], 1
  000a3	5d		 pop	 ebp

; 504  : 			}
; 505  : 		}

  000a4	59		 pop	 ecx
  000a5	c2 08 00	 ret	 8
$L192742:

; 502  : 			else
; 503  : 				return (_Pairib(_Where, false));

  000a8	8b 44 24 14	 mov	 eax, DWORD PTR ___$ReturnUdt$[esp+12]
  000ac	5f		 pop	 edi
  000ad	5e		 pop	 esi
  000ae	c6 40 04 00	 mov	 BYTE PTR [eax+4], 0
  000b2	89 10		 mov	 DWORD PTR [eax], edx
  000b4	5d		 pop	 ebp

; 504  : 			}
; 505  : 		}

  000b5	59		 pop	 ecx
  000b6	c2 08 00	 ret	 8
?insert@?$_Tree@V?$_Tmap_traits@KPAVCGuildHouseBase@@U?$less@K@std@@V?$allocator@U?$pair@$$CBKPAVCGuildHouseBase@@@std@@@3@$0A@@std@@@std@@QAE?AU?$pair@Viterator@?$_Tree@V?$_Tmap_traits@KPAVCGuildHouseBase@@U?$less@K@std@@V?$allocator@U?$pair@$$CBKPAVCGuildHouseBase@@@std@@@3@$0A@@std@@@std@@_N@2@ABU?$pair@$$CBKPAVCGuildHouseBase@@@2@@Z ENDP ; std::_Tree<std::_Tmap_traits<unsigned long,CGuildHouseBase *,std::less<unsigned long>,std::allocator<std::pair<unsigned long const ,CGuildHouseBase *> >,0> >::insert
_TEXT	ENDS
PUBLIC	?_Buy@?$vector@UGuildHouse_Furniture_Info@CGuildHouseBase@@V?$allocator@UGuildHouse_Furniture_Info@CGuildHouseBase@@@std@@@std@@IAE_NI@Z ; std::vector<CGuildHouseBase::GuildHouse_Furniture_Info,std::allocator<CGuildHouseBase::GuildHouse_Furniture_Info> >::_Buy
; Function compile flags: /Ogty
; File c:\program files\microsoft visual studio .net 2003\vc7\include\vector
;	COMDAT ?_Buy@?$vector@UGuildHouse_Furniture_Info@CGuildHouseBase@@V?$allocator@UGuildHouse_Furniture_Info@CGuildHouseBase@@@std@@@std@@IAE_NI@Z
_TEXT	SEGMENT
__Capacity$ = 8						; size = 4
?_Buy@?$vector@UGuildHouse_Furniture_Info@CGuildHouseBase@@V?$allocator@UGuildHouse_Furniture_Info@CGuildHouseBase@@@std@@@std@@IAE_NI@Z PROC NEAR ; std::vector<CGuildHouseBase::GuildHouse_Furniture_Info,std::allocator<CGuildHouseBase::GuildHouse_Furniture_Info> >::_Buy, COMDAT
; _this$ = ecx

; 771  : 		_Myfirst = 0, _Mylast = 0, _Myend = 0;
; 772  : 		if (_Capacity == 0)

  00000	8b 44 24 04	 mov	 eax, DWORD PTR __Capacity$[esp-4]
  00004	56		 push	 esi
  00005	8b f1		 mov	 esi, ecx
  00007	33 c9		 xor	 ecx, ecx
  00009	3b c1		 cmp	 eax, ecx
  0000b	89 4e 04	 mov	 DWORD PTR [esi+4], ecx
  0000e	89 4e 08	 mov	 DWORD PTR [esi+8], ecx
  00011	89 4e 0c	 mov	 DWORD PTR [esi+12], ecx
  00014	75 06		 jne	 SHORT $L192855

; 773  : 			return (false);

  00016	32 c0		 xor	 al, al
  00018	5e		 pop	 esi

; 783  : 		}

  00019	c2 04 00	 ret	 4
$L192855:

; 774  : 		else if (max_size() < _Capacity)

  0001c	3d c7 71 1c 07	 cmp	 eax, 119304647		; 071c71c7H
  00021	76 07		 jbe	 SHORT $L192857

; 775  : 			_Xlen();	// result too long

  00023	8b ce		 mov	 ecx, esi
  00025	e8 00 00 00 00	 call	 ?_Xlen@?$vector@UGuildHouse_Furniture_Info@CGuildHouseBase@@V?$allocator@UGuildHouse_Furniture_Info@CGuildHouseBase@@@std@@@std@@IBEXXZ ; std::vector<CGuildHouseBase::GuildHouse_Furniture_Info,std::allocator<CGuildHouseBase::GuildHouse_Furniture_Info> >::_Xlen
$L192857:
  0002a	57		 push	 edi

; 776  : 		else
; 777  : 			{	// nonempty array, allocate storage
; 778  : 			_Myfirst = this->_Alval.allocate(_Capacity);

  0002b	8d 3c c0	 lea	 edi, DWORD PTR [eax+eax*8]
  0002e	c1 e7 02	 shl	 edi, 2
  00031	57		 push	 edi
  00032	e8 00 00 00 00	 call	 ??2@YAPAXI@Z		; operator new

; 779  : 			_Mylast = _Myfirst;
; 780  : 			_Myend = _Myfirst + _Capacity;

  00037	03 f8		 add	 edi, eax
  00039	83 c4 04	 add	 esp, 4
  0003c	89 7e 0c	 mov	 DWORD PTR [esi+12], edi
  0003f	89 46 04	 mov	 DWORD PTR [esi+4], eax
  00042	89 46 08	 mov	 DWORD PTR [esi+8], eax
  00045	5f		 pop	 edi

; 781  : 			}
; 782  : 		return (true);

  00046	b0 01		 mov	 al, 1
  00048	5e		 pop	 esi

; 783  : 		}

  00049	c2 04 00	 ret	 4
$L200462:
?_Buy@?$vector@UGuildHouse_Furniture_Info@CGuildHouseBase@@V?$allocator@UGuildHouse_Furniture_Info@CGuildHouseBase@@@std@@@std@@IAE_NI@Z ENDP ; std::vector<CGuildHouseBase::GuildHouse_Furniture_Info,std::allocator<CGuildHouseBase::GuildHouse_Furniture_Info> >::_Buy
_TEXT	ENDS
PUBLIC	?_Tidy@?$_Tree@V?$_Tmap_traits@KPAVCGuildHouseBase@@U?$less@K@std@@V?$allocator@U?$pair@$$CBKPAVCGuildHouseBase@@@std@@@3@$0A@@std@@@std@@IAEXXZ ; std::_Tree<std::_Tmap_traits<unsigned long,CGuildHouseBase *,std::less<unsigned long>,std::allocator<std::pair<unsigned long const ,CGuildHouseBase *> >,0> >::_Tidy
; Function compile flags: /Ogty
; File c:\program files\microsoft visual studio .net 2003\vc7\include\xtree
;	COMDAT ?_Tidy@?$_Tree@V?$_Tmap_traits@KPAVCGuildHouseBase@@U?$less@K@std@@V?$allocator@U?$pair@$$CBKPAVCGuildHouseBase@@@std@@@3@$0A@@std@@@std@@IAEXXZ
_TEXT	SEGMENT
$T200467 = -4						; size = 4
?_Tidy@?$_Tree@V?$_Tmap_traits@KPAVCGuildHouseBase@@U?$less@K@std@@V?$allocator@U?$pair@$$CBKPAVCGuildHouseBase@@@std@@@3@$0A@@std@@@std@@IAEXXZ PROC NEAR ; std::_Tree<std::_Tmap_traits<unsigned long,CGuildHouseBase *,std::less<unsigned long>,std::allocator<std::pair<unsigned long const ,CGuildHouseBase *> >,0> >::_Tidy, COMDAT
; _this$ = ecx

; 1142 : 		{	// free all storage

  00000	51		 push	 ecx
  00001	56		 push	 esi
  00002	8b f1		 mov	 esi, ecx

; 1143 : 		erase(begin(), end());

  00004	8b 46 04	 mov	 eax, DWORD PTR [esi+4]
  00007	8b 08		 mov	 ecx, DWORD PTR [eax]
  00009	50		 push	 eax
  0000a	51		 push	 ecx
  0000b	8d 44 24 0c	 lea	 eax, DWORD PTR $T200467[esp+16]
  0000f	50		 push	 eax
  00010	8b ce		 mov	 ecx, esi
  00012	e8 00 00 00 00	 call	 ?erase@?$_Tree@V?$_Tmap_traits@KPAVCGuildHouseBase@@U?$less@K@std@@V?$allocator@U?$pair@$$CBKPAVCGuildHouseBase@@@std@@@3@$0A@@std@@@std@@QAE?AViterator@12@V312@0@Z ; std::_Tree<std::_Tmap_traits<unsigned long,CGuildHouseBase *,std::less<unsigned long>,std::allocator<std::pair<unsigned long const ,CGuildHouseBase *> >,0> >::erase

; 1144 : 		this->_Alptr.destroy(&_Left(_Myhead));
; 1145 : 		this->_Alptr.destroy(&_Parent(_Myhead));
; 1146 : 		this->_Alptr.destroy(&_Right(_Myhead));
; 1147 : 		this->_Alnod.deallocate(_Myhead, 1);

  00017	8b 4e 04	 mov	 ecx, DWORD PTR [esi+4]
  0001a	51		 push	 ecx
  0001b	e8 00 00 00 00	 call	 ??3@YAXPAX@Z		; operator delete
  00020	83 c4 04	 add	 esp, 4

; 1148 : 		_Myhead = 0, _Mysize = 0;

  00023	33 c0		 xor	 eax, eax
  00025	89 46 04	 mov	 DWORD PTR [esi+4], eax
  00028	89 46 08	 mov	 DWORD PTR [esi+8], eax
  0002b	5e		 pop	 esi

; 1149 : 		}

  0002c	59		 pop	 ecx
  0002d	c3		 ret	 0
?_Tidy@?$_Tree@V?$_Tmap_traits@KPAVCGuildHouseBase@@U?$less@K@std@@V?$allocator@U?$pair@$$CBKPAVCGuildHouseBase@@@std@@@3@$0A@@std@@@std@@IAEXXZ ENDP ; std::_Tree<std::_Tmap_traits<unsigned long,CGuildHouseBase *,std::less<unsigned long>,std::allocator<std::pair<unsigned long const ,CGuildHouseBase *> >,0> >::_Tidy
_TEXT	ENDS
PUBLIC	?_Insert_n@?$vector@UGuildHouse_Furniture_Info@CGuildHouseBase@@V?$allocator@UGuildHouse_Furniture_Info@CGuildHouseBase@@@std@@@std@@IAEXViterator@12@IABUGuildHouse_Furniture_Info@CGuildHouseBase@@@Z ; std::vector<CGuildHouseBase::GuildHouse_Furniture_Info,std::allocator<CGuildHouseBase::GuildHouse_Furniture_Info> >::_Insert_n
;	COMDAT xdata$x
; File c:\program files\microsoft visual studio .net 2003\vc7\include\xutility
xdata$x	SEGMENT
$T200740 DD	0ffffffffH
	DD	00H
	DD	0ffffffffH
	DD	00H
	DD	0ffffffffH
	DD	00H
	DD	0ffffffffH
	DD	00H
$T200742 DD	00H
	DD	00H
	DD	00H
	DD	FLAT:$L200532
$T200743 DD	00H
	DD	00H
	DD	00H
	DD	FLAT:$L200534
$T200741 DD	00H
	DD	00H
	DD	01H
	DD	01H
	DD	FLAT:$T200742
	DD	02H
	DD	02H
	DD	03H
	DD	01H
	DD	FLAT:$T200743
$T200737 DD	019930520H
	DD	04H
	DD	FLAT:$T200740
	DD	02H
	DD	FLAT:$T200741
	DD	2 DUP(00H)
; Function compile flags: /Ogty
; File c:\program files\microsoft visual studio .net 2003\vc7\include\vector
xdata$x	ENDS
;	COMDAT ?_Insert_n@?$vector@UGuildHouse_Furniture_Info@CGuildHouseBase@@V?$allocator@UGuildHouse_Furniture_Info@CGuildHouseBase@@@std@@@std@@IAEXViterator@12@IABUGuildHouse_Furniture_Info@CGuildHouseBase@@@Z
_TEXT	SEGMENT
__Tmp$ = -52						; size = 36
__$EHRec$ = -16						; size = 16
tv427 = 8						; size = 4
tv414 = 8						; size = 4
__Cat$200709 = 8					; size = 1
__Cat$200733 = 8					; size = 1
__Cat$200648 = 8					; size = 1
__Cat$200671 = 8					; size = 1
__Cat$200624 = 8					; size = 1
__Where$ = 8						; size = 4
tv220 = 12						; size = 4
__Count$ = 12						; size = 4
tv398 = 16						; size = 4
__Newvec$193043 = 16					; size = 4
__Val$ = 16						; size = 4
?_Insert_n@?$vector@UGuildHouse_Furniture_Info@CGuildHouseBase@@V?$allocator@UGuildHouse_Furniture_Info@CGuildHouseBase@@@std@@@std@@IAEXViterator@12@IABUGuildHouse_Furniture_Info@CGuildHouseBase@@@Z PROC NEAR ; std::vector<CGuildHouseBase::GuildHouse_Furniture_Info,std::allocator<CGuildHouseBase::GuildHouse_Furniture_Info> >::_Insert_n, COMDAT
; _this$ = ecx

; 809  : 		{	// insert _Count * _Val at _Where

  00000	55		 push	 ebp
  00001	8b ec		 mov	 ebp, esp
  00003	6a ff		 push	 -1
  00005	68 00 00 00 00	 push	 __ehhandler$?_Insert_n@?$vector@UGuildHouse_Furniture_Info@CGuildHouseBase@@V?$allocator@UGuildHouse_Furniture_Info@CGuildHouseBase@@@std@@@std@@IAEXViterator@12@IABUGuildHouse_Furniture_Info@CGuildHouseBase@@@Z
  0000a	64 a1 00 00 00
	00		 mov	 eax, DWORD PTR fs:__except_list
  00010	50		 push	 eax
  00011	64 89 25 00 00
	00 00		 mov	 DWORD PTR fs:__except_list, esp
  00018	83 ec 28	 sub	 esp, 40			; 00000028H
  0001b	53		 push	 ebx
  0001c	56		 push	 esi

; 810  : 		_Ty _Tmp = _Val;	// in case _Val is in sequence

  0001d	8b 75 10	 mov	 esi, DWORD PTR __Val$[ebp]
  00020	57		 push	 edi
  00021	8b d9		 mov	 ebx, ecx
  00023	b9 09 00 00 00	 mov	 ecx, 9
  00028	8d 7d cc	 lea	 edi, DWORD PTR __Tmp$[ebp]
  0002b	f3 a5		 rep movsd

; 811  : 		size_type _Capacity = capacity();

  0002d	8b 7b 04	 mov	 edi, DWORD PTR [ebx+4]
  00030	85 ff		 test	 edi, edi
  00032	89 65 f0	 mov	 DWORD PTR __$EHRec$[ebp], esp
  00035	75 04		 jne	 SHORT $L200540
  00037	33 c9		 xor	 ecx, ecx
  00039	eb 16		 jmp	 SHORT $L200541
$L200540:
  0003b	8b 4b 0c	 mov	 ecx, DWORD PTR [ebx+12]
  0003e	2b cf		 sub	 ecx, edi
  00040	b8 39 8e e3 38	 mov	 eax, 954437177		; 38e38e39H
  00045	f7 e9		 imul	 ecx
  00047	c1 fa 03	 sar	 edx, 3
  0004a	8b ca		 mov	 ecx, edx
  0004c	c1 e9 1f	 shr	 ecx, 31			; 0000001fH
  0004f	03 ca		 add	 ecx, edx
$L200541:

; 812  : 
; 813  : 		if (_Count == 0)

  00051	8b 75 0c	 mov	 esi, DWORD PTR __Count$[ebp]
  00054	85 f6		 test	 esi, esi
  00056	0f 84 3e 02 00
	00		 je	 $L193063

; 814  : 			;
; 815  : 		else if (max_size() - size() < _Count)

  0005c	85 ff		 test	 edi, edi
  0005e	75 04		 jne	 SHORT $L200563
  00060	33 c0		 xor	 eax, eax
  00062	eb 16		 jmp	 SHORT $L200564
$L200563:
  00064	8b 53 08	 mov	 edx, DWORD PTR [ebx+8]
  00067	2b d7		 sub	 edx, edi
  00069	b8 39 8e e3 38	 mov	 eax, 954437177		; 38e38e39H
  0006e	f7 ea		 imul	 edx
  00070	c1 fa 03	 sar	 edx, 3
  00073	8b c2		 mov	 eax, edx
  00075	c1 e8 1f	 shr	 eax, 31			; 0000001fH
  00078	03 c2		 add	 eax, edx
$L200564:
  0007a	ba c7 71 1c 07	 mov	 edx, 119304647		; 071c71c7H
  0007f	2b d0		 sub	 edx, eax
  00081	3b d6		 cmp	 edx, esi
  00083	73 07		 jae	 SHORT $L193039

; 816  : 			_Xlen();	// result too long

  00085	8b cb		 mov	 ecx, ebx
  00087	e8 00 00 00 00	 call	 ?_Xlen@?$vector@UGuildHouse_Furniture_Info@CGuildHouseBase@@V?$allocator@UGuildHouse_Furniture_Info@CGuildHouseBase@@@std@@@std@@IBEXXZ ; std::vector<CGuildHouseBase::GuildHouse_Furniture_Info,std::allocator<CGuildHouseBase::GuildHouse_Furniture_Info> >::_Xlen
$L193039:

; 817  : 		else if (_Capacity < size() + _Count)

  0008c	85 ff		 test	 edi, edi
  0008e	75 04		 jne	 SHORT $L200570
  00090	33 c0		 xor	 eax, eax
  00092	eb 16		 jmp	 SHORT $L200571
$L200570:
  00094	8b 53 08	 mov	 edx, DWORD PTR [ebx+8]
  00097	2b d7		 sub	 edx, edi
  00099	b8 39 8e e3 38	 mov	 eax, 954437177		; 38e38e39H
  0009e	f7 ea		 imul	 edx
  000a0	c1 fa 03	 sar	 edx, 3
  000a3	8b c2		 mov	 eax, edx
  000a5	c1 e8 1f	 shr	 eax, 31			; 0000001fH
  000a8	03 c2		 add	 eax, edx
$L200571:
  000aa	03 c6		 add	 eax, esi
  000ac	3b c8		 cmp	 ecx, eax
  000ae	0f 83 10 01 00
	00		 jae	 $L193041

; 818  : 			{	// not enough room, reallocate
; 819  : 			_Capacity = max_size() - _Capacity / 2 < _Capacity
; 820  : 				? 0 : _Capacity + _Capacity / 2;	// try to grow by 50%

  000b4	8b c1		 mov	 eax, ecx
  000b6	d1 e8		 shr	 eax, 1
  000b8	ba c7 71 1c 07	 mov	 edx, 119304647		; 071c71c7H
  000bd	2b d0		 sub	 edx, eax
  000bf	3b d1		 cmp	 edx, ecx
  000c1	73 04		 jae	 SHORT $L200529
  000c3	33 c9		 xor	 ecx, ecx
  000c5	eb 02		 jmp	 SHORT $L200530
$L200529:
  000c7	03 c8		 add	 ecx, eax
$L200530:

; 821  : 			if (_Capacity < size() + _Count)

  000c9	85 ff		 test	 edi, edi
  000cb	75 04		 jne	 SHORT $L200593
  000cd	33 c0		 xor	 eax, eax
  000cf	eb 16		 jmp	 SHORT $L200594
$L200593:
  000d1	8b 53 08	 mov	 edx, DWORD PTR [ebx+8]
  000d4	2b d7		 sub	 edx, edi
  000d6	b8 39 8e e3 38	 mov	 eax, 954437177		; 38e38e39H
  000db	f7 ea		 imul	 edx
  000dd	c1 fa 03	 sar	 edx, 3
  000e0	8b c2		 mov	 eax, edx
  000e2	c1 e8 1f	 shr	 eax, 31			; 0000001fH
  000e5	03 c2		 add	 eax, edx
$L200594:
  000e7	03 c6		 add	 eax, esi
  000e9	3b c8		 cmp	 ecx, eax
  000eb	73 0b		 jae	 SHORT $L193042

; 822  : 				_Capacity = size() + _Count;

  000ed	8b cb		 mov	 ecx, ebx
  000ef	e8 00 00 00 00	 call	 ?size@?$vector@UGuildHouse_Furniture_Info@CGuildHouseBase@@V?$allocator@UGuildHouse_Furniture_Info@CGuildHouseBase@@@std@@@std@@QBEIXZ ; std::vector<CGuildHouseBase::GuildHouse_Furniture_Info,std::allocator<CGuildHouseBase::GuildHouse_Furniture_Info> >::size
  000f4	8b c8		 mov	 ecx, eax
  000f6	03 ce		 add	 ecx, esi
$L193042:

; 823  : 			pointer _Newvec = this->_Alval.allocate(_Capacity);

  000f8	8d 3c c9	 lea	 edi, DWORD PTR [ecx+ecx*8]
  000fb	c1 e7 02	 shl	 edi, 2
  000fe	57		 push	 edi
  000ff	e8 00 00 00 00	 call	 ??2@YAPAXI@Z		; operator new

; 824  : 			pointer _Ptr = _Newvec;
; 825  : 
; 826  : 			_TRY_BEGIN
; 827  : 			_Ptr = _Ucopy(_Myfirst, _ITER_BASE(_Where),
; 828  : 				_Newvec);	// copy prefix

  00104	8b 55 08	 mov	 edx, DWORD PTR __Cat$200624[ebp]
  00107	8b 4b 04	 mov	 ecx, DWORD PTR [ebx+4]
  0010a	52		 push	 edx
  0010b	53		 push	 ebx
  0010c	50		 push	 eax
  0010d	89 45 10	 mov	 DWORD PTR __Newvec$193043[ebp], eax
  00110	8b 45 08	 mov	 eax, DWORD PTR __Where$[ebp]
  00113	50		 push	 eax
  00114	51		 push	 ecx
  00115	c7 45 fc 00 00
	00 00		 mov	 DWORD PTR __$EHRec$[ebp+12], 0
  0011c	e8 00 00 00 00	 call	 ??$_Uninit_copy@PAUGuildHouse_Furniture_Info@CGuildHouseBase@@PAU12@V?$allocator@UGuildHouse_Furniture_Info@CGuildHouseBase@@@std@@@std@@YAPAUGuildHouse_Furniture_Info@CGuildHouseBase@@PAU12@00AAV?$allocator@UGuildHouse_Furniture_Info@CGuildHouseBase@@@0@U_Nonscalar_ptr_iterator_tag@0@@Z ; std::_Uninit_copy<CGuildHouseBase::GuildHouse_Furniture_Info *,CGuildHouseBase::GuildHouse_Furniture_Info *,std::allocator<CGuildHouseBase::GuildHouse_Furniture_Info> >

; 829  : 			_Ptr = _Ufill(_Ptr, _Count, _Tmp);	// add new stuff

  00121	8b 4d 08	 mov	 ecx, DWORD PTR __Cat$200648[ebp]
  00124	83 c4 18	 add	 esp, 24			; 00000018H
  00127	51		 push	 ecx
  00128	53		 push	 ebx
  00129	8d 55 cc	 lea	 edx, DWORD PTR __Tmp$[ebp]
  0012c	52		 push	 edx
  0012d	56		 push	 esi
  0012e	50		 push	 eax
  0012f	89 45 0c	 mov	 DWORD PTR tv220[ebp], eax
  00132	e8 00 00 00 00	 call	 ??$_Uninit_fill_n@PAUGuildHouse_Furniture_Info@CGuildHouseBase@@IU12@V?$allocator@UGuildHouse_Furniture_Info@CGuildHouseBase@@@std@@@std@@YAXPAUGuildHouse_Furniture_Info@CGuildHouseBase@@IABU12@AAV?$allocator@UGuildHouse_Furniture_Info@CGuildHouseBase@@@0@U_Nonscalar_ptr_iterator_tag@0@@Z ; std::_Uninit_fill_n<CGuildHouseBase::GuildHouse_Furniture_Info *,unsigned int,CGuildHouseBase::GuildHouse_Furniture_Info,std::allocator<CGuildHouseBase::GuildHouse_Furniture_Info> >

; 830  : 			_Ucopy(_ITER_BASE(_Where), _Mylast, _Ptr);	// copy suffix

  00137	8b 55 08	 mov	 edx, DWORD PTR __Cat$200671[ebp]
  0013a	8b 4d 0c	 mov	 ecx, DWORD PTR tv220[ebp]
  0013d	83 c4 14	 add	 esp, 20			; 00000014H
  00140	52		 push	 edx
  00141	8d 04 f6	 lea	 eax, DWORD PTR [esi+esi*8]
  00144	8d 04 81	 lea	 eax, DWORD PTR [ecx+eax*4]
  00147	8b 4b 08	 mov	 ecx, DWORD PTR [ebx+8]
  0014a	53		 push	 ebx
  0014b	50		 push	 eax
  0014c	8b 45 08	 mov	 eax, DWORD PTR __Where$[ebp]
  0014f	51		 push	 ecx
  00150	50		 push	 eax
  00151	e8 00 00 00 00	 call	 ??$_Uninit_copy@PAUGuildHouse_Furniture_Info@CGuildHouseBase@@PAU12@V?$allocator@UGuildHouse_Furniture_Info@CGuildHouseBase@@@std@@@std@@YAPAUGuildHouse_Furniture_Info@CGuildHouseBase@@PAU12@00AAV?$allocator@UGuildHouse_Furniture_Info@CGuildHouseBase@@@0@U_Nonscalar_ptr_iterator_tag@0@@Z ; std::_Uninit_copy<CGuildHouseBase::GuildHouse_Furniture_Info *,CGuildHouseBase::GuildHouse_Furniture_Info *,std::allocator<CGuildHouseBase::GuildHouse_Furniture_Info> >

; 835  : 			_CATCH_END
; 836  : 
; 837  : 			_Count += size();

  00156	8b 43 04	 mov	 eax, DWORD PTR [ebx+4]
  00159	83 c4 14	 add	 esp, 20			; 00000014H
  0015c	85 c0		 test	 eax, eax
  0015e	74 16		 je	 SHORT $L200682
$L200681:
  00160	8b 4b 08	 mov	 ecx, DWORD PTR [ebx+8]
  00163	2b c8		 sub	 ecx, eax
  00165	b8 39 8e e3 38	 mov	 eax, 954437177		; 38e38e39H
  0016a	f7 e9		 imul	 ecx
  0016c	c1 fa 03	 sar	 edx, 3
  0016f	8b c2		 mov	 eax, edx
  00171	c1 e8 1f	 shr	 eax, 31			; 0000001fH
  00174	03 c2		 add	 eax, edx
$L200682:
  00176	03 f0		 add	 esi, eax

; 838  : 			if (_Myfirst != 0)

  00178	8b 43 04	 mov	 eax, DWORD PTR [ebx+4]
  0017b	85 c0		 test	 eax, eax
  0017d	74 09		 je	 SHORT $L200684

; 839  : 				{	// destroy and deallocate old array
; 840  : 				_Destroy(_Myfirst, _Mylast);
; 841  : 				this->_Alval.deallocate(_Myfirst, _Myend - _Myfirst);

  0017f	50		 push	 eax
  00180	e8 00 00 00 00	 call	 ??3@YAXPAX@Z		; operator delete
  00185	83 c4 04	 add	 esp, 4
$L200684:

; 842  : 				}
; 843  : 			_Myend = _Newvec + _Capacity;

  00188	8b 45 10	 mov	 eax, DWORD PTR __Newvec$193043[ebp]

; 844  : 			_Mylast = _Newvec + _Count;

  0018b	8d 0c f6	 lea	 ecx, DWORD PTR [esi+esi*8]
  0018e	03 f8		 add	 edi, eax
  00190	8d 14 88	 lea	 edx, DWORD PTR [eax+ecx*4]
  00193	89 7b 0c	 mov	 DWORD PTR [ebx+12], edi
  00196	89 53 08	 mov	 DWORD PTR [ebx+8], edx

; 845  : 			_Myfirst = _Newvec;

  00199	89 43 04	 mov	 DWORD PTR [ebx+4], eax

; 873  : 			}
; 874  : 		}

  0019c	8b 4d f4	 mov	 ecx, DWORD PTR __$EHRec$[ebp+4]
  0019f	64 89 0d 00 00
	00 00		 mov	 DWORD PTR fs:__except_list, ecx
  001a6	5f		 pop	 edi
  001a7	5e		 pop	 esi
  001a8	5b		 pop	 ebx
  001a9	8b e5		 mov	 esp, ebp
  001ab	5d		 pop	 ebp
  001ac	c2 0c 00	 ret	 12			; 0000000cH
$L200532:

; 831  : 			_CATCH_ALL
; 832  : 			_Destroy(_Newvec, _Ptr);
; 833  : 			this->_Alval.deallocate(_Newvec, _Capacity);

  001af	8b 45 10	 mov	 eax, DWORD PTR __Newvec$193043[ebp]
  001b2	50		 push	 eax
  001b3	e8 00 00 00 00	 call	 ??3@YAXPAX@Z		; operator delete
  001b8	83 c4 04	 add	 esp, 4
$L200534:

; 834  : 			_RERAISE;

  001bb	6a 00		 push	 0
  001bd	6a 00		 push	 0
  001bf	e8 00 00 00 00	 call	 __CxxThrowException@8
$L193041:

; 846  : 			}
; 847  : 		else if ((size_type)(_Mylast - _ITER_BASE(_Where)) < _Count)

  001c4	8b 4b 08	 mov	 ecx, DWORD PTR [ebx+8]
  001c7	8b 7d 08	 mov	 edi, DWORD PTR __Where$[ebp]
  001ca	8b d1		 mov	 edx, ecx
  001cc	2b d7		 sub	 edx, edi
  001ce	b8 39 8e e3 38	 mov	 eax, 954437177		; 38e38e39H
  001d3	f7 ea		 imul	 edx
  001d5	c1 fa 03	 sar	 edx, 3
  001d8	8b c2		 mov	 eax, edx
  001da	c1 e8 1f	 shr	 eax, 31			; 0000001fH
  001dd	03 c2		 add	 eax, edx
  001df	3b c6		 cmp	 eax, esi
  001e1	89 4d 10	 mov	 DWORD PTR tv398[ebp], ecx
  001e4	73 79		 jae	 SHORT $L193054

; 848  : 			{	// new stuff spills off end
; 849  : 			_Ucopy(_ITER_BASE(_Where), _Mylast,
; 850  : 				_ITER_BASE(_Where) + _Count);	// copy suffix

  001e6	8d 04 f6	 lea	 eax, DWORD PTR [esi+esi*8]
  001e9	c1 e0 02	 shl	 eax, 2
  001ec	89 45 08	 mov	 DWORD PTR tv414[ebp], eax
  001ef	8b 55 08	 mov	 edx, DWORD PTR __Cat$200709[ebp]
  001f2	52		 push	 edx
  001f3	53		 push	 ebx
  001f4	03 c7		 add	 eax, edi
  001f6	50		 push	 eax
  001f7	51		 push	 ecx
  001f8	57		 push	 edi
  001f9	e8 00 00 00 00	 call	 ??$_Uninit_copy@PAUGuildHouse_Furniture_Info@CGuildHouseBase@@PAU12@V?$allocator@UGuildHouse_Furniture_Info@CGuildHouseBase@@@std@@@std@@YAPAUGuildHouse_Furniture_Info@CGuildHouseBase@@PAU12@00AAV?$allocator@UGuildHouse_Furniture_Info@CGuildHouseBase@@@0@U_Nonscalar_ptr_iterator_tag@0@@Z ; std::_Uninit_copy<CGuildHouseBase::GuildHouse_Furniture_Info *,CGuildHouseBase::GuildHouse_Furniture_Info *,std::allocator<CGuildHouseBase::GuildHouse_Furniture_Info> >

; 851  : 
; 852  : 			_TRY_BEGIN
; 853  : 			_Ufill(_Mylast, _Count - (_Mylast - _ITER_BASE(_Where)),
; 854  : 				_Tmp);	// insert new stuff off end

  001fe	8b 4b 08	 mov	 ecx, DWORD PTR [ebx+8]
  00201	83 c4 14	 add	 esp, 20			; 00000014H
  00204	8d 45 cc	 lea	 eax, DWORD PTR __Tmp$[ebp]
  00207	50		 push	 eax
  00208	8b d1		 mov	 edx, ecx
  0020a	2b d7		 sub	 edx, edi
  0020c	b8 39 8e e3 38	 mov	 eax, 954437177		; 38e38e39H
  00211	f7 ea		 imul	 edx
  00213	c1 fa 03	 sar	 edx, 3
  00216	8b c2		 mov	 eax, edx
  00218	c1 e8 1f	 shr	 eax, 31			; 0000001fH
  0021b	03 c2		 add	 eax, edx
  0021d	2b f0		 sub	 esi, eax
  0021f	56		 push	 esi
  00220	51		 push	 ecx
  00221	8b cb		 mov	 ecx, ebx
  00223	c7 45 fc 02 00
	00 00		 mov	 DWORD PTR __$EHRec$[ebp+12], 2
  0022a	e8 00 00 00 00	 call	 ?_Ufill@?$vector@UGuildHouse_Furniture_Info@CGuildHouseBase@@V?$allocator@UGuildHouse_Furniture_Info@CGuildHouseBase@@@std@@@std@@IAEPAUGuildHouse_Furniture_Info@CGuildHouseBase@@PAU34@IABU34@@Z ; std::vector<CGuildHouseBase::GuildHouse_Furniture_Info,std::allocator<CGuildHouseBase::GuildHouse_Furniture_Info> >::_Ufill

; 855  : 			_CATCH_ALL
; 856  : 			_Destroy(_ITER_BASE(_Where) + _Count, _Mylast + _Count);
; 857  : 			_RERAISE;
; 858  : 			_CATCH_END
; 859  : 
; 860  : 			_Mylast += _Count;

  0022f	8b 73 08	 mov	 esi, DWORD PTR [ebx+8]
  00232	8b 45 08	 mov	 eax, DWORD PTR tv414[ebp]
  00235	03 f0		 add	 esi, eax
  00237	89 73 08	 mov	 DWORD PTR [ebx+8], esi

; 861  : 			fill(_ITER_BASE(_Where), _Mylast - _Count,
; 862  : 				_Tmp);	// insert up to old end

  0023a	8d 4d cc	 lea	 ecx, DWORD PTR __Tmp$[ebp]
  0023d	8b de		 mov	 ebx, esi
  0023f	51		 push	 ecx
  00240	2b d8		 sub	 ebx, eax
  00242	53		 push	 ebx
  00243	57		 push	 edi
  00244	e8 00 00 00 00	 call	 ??$fill@PAUGuildHouse_Furniture_Info@CGuildHouseBase@@U12@@std@@YAXPAUGuildHouse_Furniture_Info@CGuildHouseBase@@0ABU12@@Z ; std::fill<CGuildHouseBase::GuildHouse_Furniture_Info *,CGuildHouseBase::GuildHouse_Furniture_Info>
  00249	83 c4 0c	 add	 esp, 12			; 0000000cH

; 873  : 			}
; 874  : 		}

  0024c	8b 4d f4	 mov	 ecx, DWORD PTR __$EHRec$[ebp+4]
  0024f	64 89 0d 00 00
	00 00		 mov	 DWORD PTR fs:__except_list, ecx
  00256	5f		 pop	 edi
  00257	5e		 pop	 esi
  00258	5b		 pop	 ebx
  00259	8b e5		 mov	 esp, ebp
  0025b	5d		 pop	 ebp
  0025c	c2 0c 00	 ret	 12			; 0000000cH
$L193054:

; 863  : 			}
; 864  : 		else
; 865  : 			{	// new stuff can all be assigned
; 866  : 			pointer _Oldend = _Mylast;
; 867  : 			_Mylast = _Ucopy(_Oldend - _Count, _Oldend,
; 868  : 				_Mylast);	// copy suffix

  0025f	8d 34 f6	 lea	 esi, DWORD PTR [esi+esi*8]
  00262	8b c1		 mov	 eax, ecx
  00264	c1 e6 02	 shl	 esi, 2
  00267	2b c6		 sub	 eax, esi
  00269	89 45 08	 mov	 DWORD PTR tv427[ebp], eax
  0026c	8b 55 08	 mov	 edx, DWORD PTR __Cat$200733[ebp]
  0026f	52		 push	 edx
  00270	53		 push	 ebx
  00271	51		 push	 ecx
  00272	51		 push	 ecx
  00273	50		 push	 eax
  00274	e8 00 00 00 00	 call	 ??$_Uninit_copy@PAUGuildHouse_Furniture_Info@CGuildHouseBase@@PAU12@V?$allocator@UGuildHouse_Furniture_Info@CGuildHouseBase@@@std@@@std@@YAPAUGuildHouse_Furniture_Info@CGuildHouseBase@@PAU12@00AAV?$allocator@UGuildHouse_Furniture_Info@CGuildHouseBase@@@0@U_Nonscalar_ptr_iterator_tag@0@@Z ; std::_Uninit_copy<CGuildHouseBase::GuildHouse_Furniture_Info *,CGuildHouseBase::GuildHouse_Furniture_Info *,std::allocator<CGuildHouseBase::GuildHouse_Furniture_Info> >

; 869  : 			copy_backward(_ITER_BASE(_Where), _Oldend - _Count,
; 870  : 				_Oldend);	// copy hole

  00279	8b 4d 08	 mov	 ecx, DWORD PTR tv427[ebp]
  0027c	89 43 08	 mov	 DWORD PTR [ebx+8], eax
  0027f	8b 45 10	 mov	 eax, DWORD PTR tv398[ebp]
  00282	50		 push	 eax
  00283	51		 push	 ecx
  00284	57		 push	 edi
  00285	e8 00 00 00 00	 call	 ??$copy_backward@PAUGuildHouse_Furniture_Info@CGuildHouseBase@@PAU12@@std@@YAPAUGuildHouse_Furniture_Info@CGuildHouseBase@@PAU12@00@Z ; std::copy_backward<CGuildHouseBase::GuildHouse_Furniture_Info *,CGuildHouseBase::GuildHouse_Furniture_Info *>

; 871  : 			fill(_ITER_BASE(_Where), _ITER_BASE(_Where) + _Count,
; 872  : 				_Tmp);	// insert into hole

  0028a	8d 55 cc	 lea	 edx, DWORD PTR __Tmp$[ebp]
  0028d	52		 push	 edx
  0028e	03 f7		 add	 esi, edi
  00290	56		 push	 esi
  00291	57		 push	 edi
  00292	e8 00 00 00 00	 call	 ??$fill@PAUGuildHouse_Furniture_Info@CGuildHouseBase@@U12@@std@@YAXPAUGuildHouse_Furniture_Info@CGuildHouseBase@@0ABU12@@Z ; std::fill<CGuildHouseBase::GuildHouse_Furniture_Info *,CGuildHouseBase::GuildHouse_Furniture_Info>
  00297	83 c4 2c	 add	 esp, 44			; 0000002cH
$L193063:

; 873  : 			}
; 874  : 		}

  0029a	8b 4d f4	 mov	 ecx, DWORD PTR __$EHRec$[ebp+4]
  0029d	5f		 pop	 edi
  0029e	5e		 pop	 esi
  0029f	64 89 0d 00 00
	00 00		 mov	 DWORD PTR fs:__except_list, ecx
  002a6	5b		 pop	 ebx
  002a7	8b e5		 mov	 esp, ebp
  002a9	5d		 pop	 ebp
  002aa	c2 0c 00	 ret	 12			; 0000000cH
$L200739:
_TEXT	ENDS
;	COMDAT text$x
text$x	SEGMENT
__ehhandler$?_Insert_n@?$vector@UGuildHouse_Furniture_Info@CGuildHouseBase@@V?$allocator@UGuildHouse_Furniture_Info@CGuildHouseBase@@@std@@@std@@IAEXViterator@12@IABUGuildHouse_Furniture_Info@CGuildHouseBase@@@Z:
  00000	b8 00 00 00 00	 mov	 eax, OFFSET FLAT:$T200737
  00005	e9 00 00 00 00	 jmp	 ___CxxFrameHandler
text$x	ENDS
?_Insert_n@?$vector@UGuildHouse_Furniture_Info@CGuildHouseBase@@V?$allocator@UGuildHouse_Furniture_Info@CGuildHouseBase@@@std@@@std@@IAEXViterator@12@IABUGuildHouse_Furniture_Info@CGuildHouseBase@@@Z ENDP ; std::vector<CGuildHouseBase::GuildHouse_Furniture_Info,std::allocator<CGuildHouseBase::GuildHouse_Furniture_Info> >::_Insert_n
PUBLIC	?AddGuildHouse@CGuildHouseMng@@QAEHKPAVCGuildHouseBase@@@Z ; CGuildHouseMng::AddGuildHouse
; Function compile flags: /Ogty
; File c:\documents and settings\test\mes documents\source\virtuos_v17\build\program\_common\guildhouse.h
;	COMDAT ?AddGuildHouse@CGuildHouseMng@@QAEHKPAVCGuildHouseBase@@@Z
_TEXT	SEGMENT
$T200747 = -16						; size = 8
$T200749 = -8						; size = 8
_dwGuildId$ = 8						; size = 4
_pGuildHouse$ = 12					; size = 4
?AddGuildHouse@CGuildHouseMng@@QAEHKPAVCGuildHouseBase@@@Z PROC NEAR ; CGuildHouseMng::AddGuildHouse, COMDAT
; _this$ = ecx

; 300  : 	BOOL				AddGuildHouse( DWORD dwGuildId, CGuildHouseBase* pGuildHouse )	{ return m_mapGuildHouse.insert( make_pair( dwGuildId, pGuildHouse ) ).second; }

  00000	83 ec 10	 sub	 esp, 16			; 00000010H
  00003	8b 44 24 14	 mov	 eax, DWORD PTR _dwGuildId$[esp+12]
  00007	8b 54 24 18	 mov	 edx, DWORD PTR _pGuildHouse$[esp+12]
  0000b	89 04 24	 mov	 DWORD PTR $T200747[esp+16], eax
  0000e	8d 04 24	 lea	 eax, DWORD PTR $T200747[esp+16]
  00011	89 54 24 04	 mov	 DWORD PTR $T200747[esp+20], edx
  00015	50		 push	 eax
  00016	8d 54 24 0c	 lea	 edx, DWORD PTR $T200749[esp+20]
  0001a	52		 push	 edx
  0001b	83 c1 04	 add	 ecx, 4
  0001e	e8 00 00 00 00	 call	 ?insert@?$_Tree@V?$_Tmap_traits@KPAVCGuildHouseBase@@U?$less@K@std@@V?$allocator@U?$pair@$$CBKPAVCGuildHouseBase@@@std@@@3@$0A@@std@@@std@@QAE?AU?$pair@Viterator@?$_Tree@V?$_Tmap_traits@KPAVCGuildHouseBase@@U?$less@K@std@@V?$allocator@U?$pair@$$CBKPAVCGuildHouseBase@@@std@@@3@$0A@@std@@@std@@_N@2@ABU?$pair@$$CBKPAVCGuildHouseBase@@@2@@Z ; std::_Tree<std::_Tmap_traits<unsigned long,CGuildHouseBase *,std::less<unsigned long>,std::allocator<std::pair<unsigned long const ,CGuildHouseBase *> >,0> >::insert
  00023	0f b6 40 04	 movzx	 eax, BYTE PTR [eax+4]
  00027	83 c4 10	 add	 esp, 16			; 00000010H
  0002a	c2 08 00	 ret	 8
?AddGuildHouse@CGuildHouseMng@@QAEHKPAVCGuildHouseBase@@@Z ENDP ; CGuildHouseMng::AddGuildHouse
_TEXT	ENDS
PUBLIC	??0?$vector@UGuildHouse_Furniture_Info@CGuildHouseBase@@V?$allocator@UGuildHouse_Furniture_Info@CGuildHouseBase@@@std@@@std@@QAE@XZ ; std::vector<CGuildHouseBase::GuildHouse_Furniture_Info,std::allocator<CGuildHouseBase::GuildHouse_Furniture_Info> >::vector<CGuildHouseBase::GuildHouse_Furniture_Info,std::allocator<CGuildHouseBase::GuildHouse_Furniture_Info> >
; Function compile flags: /Ogty
; File c:\program files\microsoft visual studio .net 2003\vc7\include\vector
;	COMDAT ??0?$vector@UGuildHouse_Furniture_Info@CGuildHouseBase@@V?$allocator@UGuildHouse_Furniture_Info@CGuildHouseBase@@@std@@@std@@QAE@XZ
_TEXT	SEGMENT
??0?$vector@UGuildHouse_Furniture_Info@CGuildHouseBase@@V?$allocator@UGuildHouse_Furniture_Info@CGuildHouseBase@@@std@@@std@@QAE@XZ PROC NEAR ; std::vector<CGuildHouseBase::GuildHouse_Furniture_Info,std::allocator<CGuildHouseBase::GuildHouse_Furniture_Info> >::vector<CGuildHouseBase::GuildHouse_Furniture_Info,std::allocator<CGuildHouseBase::GuildHouse_Furniture_Info> >, COMDAT
; _this$ = ecx

; 299  : 		{	// construct empty vector

  00000	8b c1		 mov	 eax, ecx

; 300  : 		_Buy(0);

  00002	33 c9		 xor	 ecx, ecx
  00004	89 48 04	 mov	 DWORD PTR [eax+4], ecx
  00007	89 48 08	 mov	 DWORD PTR [eax+8], ecx
  0000a	89 48 0c	 mov	 DWORD PTR [eax+12], ecx

; 301  : 		}

  0000d	c3		 ret	 0
??0?$vector@UGuildHouse_Furniture_Info@CGuildHouseBase@@V?$allocator@UGuildHouse_Furniture_Info@CGuildHouseBase@@@std@@@std@@QAE@XZ ENDP ; std::vector<CGuildHouseBase::GuildHouse_Furniture_Info,std::allocator<CGuildHouseBase::GuildHouse_Furniture_Info> >::vector<CGuildHouseBase::GuildHouse_Furniture_Info,std::allocator<CGuildHouseBase::GuildHouse_Furniture_Info> >
_TEXT	ENDS
PUBLIC	??1?$_Tree@V?$_Tmap_traits@KPAVCGuildHouseBase@@U?$less@K@std@@V?$allocator@U?$pair@$$CBKPAVCGuildHouseBase@@@std@@@3@$0A@@std@@@std@@QAE@XZ ; std::_Tree<std::_Tmap_traits<unsigned long,CGuildHouseBase *,std::less<unsigned long>,std::allocator<std::pair<unsigned long const ,CGuildHouseBase *> >,0> >::~_Tree<std::_Tmap_traits<unsigned long,CGuildHouseBase *,std::less<unsigned long>,std::allocator<std::pair<unsigned long const ,CGuildHouseBase *> >,0> >
; Function compile flags: /Ogty
; File c:\program files\microsoft visual studio .net 2003\vc7\include\xtree
;	COMDAT ??1?$_Tree@V?$_Tmap_traits@KPAVCGuildHouseBase@@U?$less@K@std@@V?$allocator@U?$pair@$$CBKPAVCGuildHouseBase@@@std@@@3@$0A@@std@@@std@@QAE@XZ
_TEXT	SEGMENT
$T200890 = -4						; size = 4
??1?$_Tree@V?$_Tmap_traits@KPAVCGuildHouseBase@@U?$less@K@std@@V?$allocator@U?$pair@$$CBKPAVCGuildHouseBase@@@std@@@3@$0A@@std@@@std@@QAE@XZ PROC NEAR ; std::_Tree<std::_Tmap_traits<unsigned long,CGuildHouseBase *,std::less<unsigned long>,std::allocator<std::pair<unsigned long const ,CGuildHouseBase *> >,0> >::~_Tree<std::_Tmap_traits<unsigned long,CGuildHouseBase *,std::less<unsigned long>,std::allocator<std::pair<unsigned long const ,CGuildHouseBase *> >,0> >, COMDAT
; _this$ = ecx

; 391  : 		{	// destroy tree

  00000	51		 push	 ecx
  00001	56		 push	 esi
  00002	8b f1		 mov	 esi, ecx

; 392  : 		_Tidy();

  00004	8b 46 04	 mov	 eax, DWORD PTR [esi+4]
  00007	8b 08		 mov	 ecx, DWORD PTR [eax]
  00009	50		 push	 eax
  0000a	51		 push	 ecx
  0000b	8d 44 24 0c	 lea	 eax, DWORD PTR $T200890[esp+16]
  0000f	50		 push	 eax
  00010	8b ce		 mov	 ecx, esi
  00012	e8 00 00 00 00	 call	 ?erase@?$_Tree@V?$_Tmap_traits@KPAVCGuildHouseBase@@U?$less@K@std@@V?$allocator@U?$pair@$$CBKPAVCGuildHouseBase@@@std@@@3@$0A@@std@@@std@@QAE?AViterator@12@V312@0@Z ; std::_Tree<std::_Tmap_traits<unsigned long,CGuildHouseBase *,std::less<unsigned long>,std::allocator<std::pair<unsigned long const ,CGuildHouseBase *> >,0> >::erase
  00017	8b 4e 04	 mov	 ecx, DWORD PTR [esi+4]
  0001a	51		 push	 ecx
  0001b	e8 00 00 00 00	 call	 ??3@YAXPAX@Z		; operator delete
  00020	83 c4 04	 add	 esp, 4
  00023	33 c0		 xor	 eax, eax
  00025	89 46 04	 mov	 DWORD PTR [esi+4], eax
  00028	89 46 08	 mov	 DWORD PTR [esi+8], eax
  0002b	5e		 pop	 esi

; 393  : 		}

  0002c	59		 pop	 ecx
  0002d	c3		 ret	 0
??1?$_Tree@V?$_Tmap_traits@KPAVCGuildHouseBase@@U?$less@K@std@@V?$allocator@U?$pair@$$CBKPAVCGuildHouseBase@@@std@@@3@$0A@@std@@@std@@QAE@XZ ENDP ; std::_Tree<std::_Tmap_traits<unsigned long,CGuildHouseBase *,std::less<unsigned long>,std::allocator<std::pair<unsigned long const ,CGuildHouseBase *> >,0> >::~_Tree<std::_Tmap_traits<unsigned long,CGuildHouseBase *,std::less<unsigned long>,std::allocator<std::pair<unsigned long const ,CGuildHouseBase *> >,0> >
_TEXT	ENDS
PUBLIC	?resize@?$vector@UGuildHouse_Furniture_Info@CGuildHouseBase@@V?$allocator@UGuildHouse_Furniture_Info@CGuildHouseBase@@@std@@@std@@QAEXIUGuildHouse_Furniture_Info@CGuildHouseBase@@@Z ; std::vector<CGuildHouseBase::GuildHouse_Furniture_Info,std::allocator<CGuildHouseBase::GuildHouse_Furniture_Info> >::resize
; Function compile flags: /Ogty
; File c:\program files\microsoft visual studio .net 2003\vc7\include\vector
;	COMDAT ?resize@?$vector@UGuildHouse_Furniture_Info@CGuildHouseBase@@V?$allocator@UGuildHouse_Furniture_Info@CGuildHouseBase@@@std@@@std@@QAEXIUGuildHouse_Furniture_Info@CGuildHouseBase@@@Z
_TEXT	SEGMENT
$T200922 = 8						; size = 4
__Newsize$ = 8						; size = 4
__Val$ = 12						; size = 36
?resize@?$vector@UGuildHouse_Furniture_Info@CGuildHouseBase@@V?$allocator@UGuildHouse_Furniture_Info@CGuildHouseBase@@@std@@@std@@QAEXIUGuildHouse_Furniture_Info@CGuildHouseBase@@@Z PROC NEAR ; std::vector<CGuildHouseBase::GuildHouse_Furniture_Info,std::allocator<CGuildHouseBase::GuildHouse_Furniture_Info> >::resize, COMDAT
; _this$ = ecx

; 507  : 		{	// determine new length, padding with _Val elements as needed

  00000	56		 push	 esi

; 508  : 		if (size() < _Newsize)

  00001	8b 71 04	 mov	 esi, DWORD PTR [ecx+4]
  00004	85 f6		 test	 esi, esi
  00006	57		 push	 edi
  00007	75 04		 jne	 SHORT $L200928
  00009	33 c0		 xor	 eax, eax
  0000b	eb 16		 jmp	 SHORT $L200929
$L200928:
  0000d	8b 51 08	 mov	 edx, DWORD PTR [ecx+8]
  00010	2b d6		 sub	 edx, esi
  00012	b8 39 8e e3 38	 mov	 eax, 954437177		; 38e38e39H
  00017	f7 ea		 imul	 edx
  00019	c1 fa 03	 sar	 edx, 3
  0001c	8b c2		 mov	 eax, edx
  0001e	c1 e8 1f	 shr	 eax, 31			; 0000001fH
  00021	03 c2		 add	 eax, edx
$L200929:
  00023	8b 7c 24 0c	 mov	 edi, DWORD PTR __Newsize$[esp+4]
  00027	3b c7		 cmp	 eax, edi
  00029	73 34		 jae	 SHORT $L192837

; 509  : 			_Insert_n(end(), _Newsize - size(), _Val);

  0002b	85 f6		 test	 esi, esi
  0002d	75 04		 jne	 SHORT $L200935
  0002f	33 c0		 xor	 eax, eax
  00031	eb 16		 jmp	 SHORT $L200936
$L200935:
  00033	8b 51 08	 mov	 edx, DWORD PTR [ecx+8]
  00036	2b d6		 sub	 edx, esi
  00038	b8 39 8e e3 38	 mov	 eax, 954437177		; 38e38e39H
  0003d	f7 ea		 imul	 edx
  0003f	c1 fa 03	 sar	 edx, 3
  00042	8b c2		 mov	 eax, edx
  00044	c1 e8 1f	 shr	 eax, 31			; 0000001fH
  00047	03 c2		 add	 eax, edx
$L200936:
  00049	8b 51 08	 mov	 edx, DWORD PTR [ecx+8]
  0004c	8d 74 24 10	 lea	 esi, DWORD PTR __Val$[esp+4]
  00050	56		 push	 esi
  00051	2b f8		 sub	 edi, eax
  00053	57		 push	 edi
  00054	52		 push	 edx
  00055	e8 00 00 00 00	 call	 ?_Insert_n@?$vector@UGuildHouse_Furniture_Info@CGuildHouseBase@@V?$allocator@UGuildHouse_Furniture_Info@CGuildHouseBase@@@std@@@std@@IAEXViterator@12@IABUGuildHouse_Furniture_Info@CGuildHouseBase@@@Z ; std::vector<CGuildHouseBase::GuildHouse_Furniture_Info,std::allocator<CGuildHouseBase::GuildHouse_Furniture_Info> >::_Insert_n
  0005a	5f		 pop	 edi
  0005b	5e		 pop	 esi

; 512  : 		}

  0005c	c2 28 00	 ret	 40			; 00000028H
$L192837:

; 510  : 		else if (_Newsize < size())

  0005f	85 f6		 test	 esi, esi
  00061	74 30		 je	 SHORT $L192840
  00063	53		 push	 ebx
  00064	8b 59 08	 mov	 ebx, DWORD PTR [ecx+8]
  00067	8b d3		 mov	 edx, ebx
  00069	2b d6		 sub	 edx, esi
  0006b	b8 39 8e e3 38	 mov	 eax, 954437177		; 38e38e39H
  00070	f7 ea		 imul	 edx
  00072	c1 fa 03	 sar	 edx, 3
  00075	8b c2		 mov	 eax, edx
  00077	c1 e8 1f	 shr	 eax, 31			; 0000001fH
  0007a	03 c2		 add	 eax, edx
  0007c	3b f8		 cmp	 edi, eax
  0007e	73 12		 jae	 SHORT $L201001

; 511  : 			erase(begin() + _Newsize, end());

  00080	8d 04 ff	 lea	 eax, DWORD PTR [edi+edi*8]
  00083	53		 push	 ebx
  00084	8d 04 86	 lea	 eax, DWORD PTR [esi+eax*4]
  00087	50		 push	 eax
  00088	8d 54 24 18	 lea	 edx, DWORD PTR $T200922[esp+16]
  0008c	52		 push	 edx
  0008d	e8 00 00 00 00	 call	 ?erase@?$vector@UGuildHouse_Furniture_Info@CGuildHouseBase@@V?$allocator@UGuildHouse_Furniture_Info@CGuildHouseBase@@@std@@@std@@QAE?AViterator@12@V312@0@Z ; std::vector<CGuildHouseBase::GuildHouse_Furniture_Info,std::allocator<CGuildHouseBase::GuildHouse_Furniture_Info> >::erase
$L201001:
  00092	5b		 pop	 ebx
$L192840:
  00093	5f		 pop	 edi
  00094	5e		 pop	 esi

; 512  : 		}

  00095	c2 28 00	 ret	 40			; 00000028H
?resize@?$vector@UGuildHouse_Furniture_Info@CGuildHouseBase@@V?$allocator@UGuildHouse_Furniture_Info@CGuildHouseBase@@@std@@@std@@QAEXIUGuildHouse_Furniture_Info@CGuildHouseBase@@@Z ENDP ; std::vector<CGuildHouseBase::GuildHouse_Furniture_Info,std::allocator<CGuildHouseBase::GuildHouse_Furniture_Info> >::resize
_TEXT	ENDS
PUBLIC	?insert@?$vector@UGuildHouse_Furniture_Info@CGuildHouseBase@@V?$allocator@UGuildHouse_Furniture_Info@CGuildHouseBase@@@std@@@std@@QAE?AViterator@12@V312@ABUGuildHouse_Furniture_Info@CGuildHouseBase@@@Z ; std::vector<CGuildHouseBase::GuildHouse_Furniture_Info,std::allocator<CGuildHouseBase::GuildHouse_Furniture_Info> >::insert
; Function compile flags: /Ogty
;	COMDAT ?insert@?$vector@UGuildHouse_Furniture_Info@CGuildHouseBase@@V?$allocator@UGuildHouse_Furniture_Info@CGuildHouseBase@@@std@@@std@@QAE?AViterator@12@V312@ABUGuildHouse_Furniture_Info@CGuildHouseBase@@@Z
_TEXT	SEGMENT
___$ReturnUdt$ = 8					; size = 4
tv90 = 12						; size = 4
__Where$ = 12						; size = 4
__Val$ = 16						; size = 4
?insert@?$vector@UGuildHouse_Furniture_Info@CGuildHouseBase@@V?$allocator@UGuildHouse_Furniture_Info@CGuildHouseBase@@@std@@@std@@QAE?AViterator@12@V312@ABUGuildHouse_Furniture_Info@CGuildHouseBase@@@Z PROC NEAR ; std::vector<CGuildHouseBase::GuildHouse_Furniture_Info,std::allocator<CGuildHouseBase::GuildHouse_Furniture_Info> >::insert, COMDAT
; _this$ = ecx

; 620  : 		{	// insert _Val at _Where

  00000	53		 push	 ebx

; 621  : 		size_type _Off = size() == 0 ? 0 : _Where - begin();

  00001	8b 5c 24 0c	 mov	 ebx, DWORD PTR __Where$[esp]
  00005	56		 push	 esi
  00006	57		 push	 edi
  00007	8b f9		 mov	 edi, ecx
  00009	8b 77 04	 mov	 esi, DWORD PTR [edi+4]
  0000c	85 f6		 test	 esi, esi
  0000e	74 1c		 je	 SHORT $L201066
  00010	8b 4f 08	 mov	 ecx, DWORD PTR [edi+8]
  00013	2b ce		 sub	 ecx, esi
  00015	b8 39 8e e3 38	 mov	 eax, 954437177		; 38e38e39H
  0001a	f7 e9		 imul	 ecx
  0001c	c1 fa 03	 sar	 edx, 3
  0001f	8b c2		 mov	 eax, edx
  00021	c1 e8 1f	 shr	 eax, 31			; 0000001fH
  00024	03 c2		 add	 eax, edx
  00026	89 44 24 14	 mov	 DWORD PTR tv90[esp+8], eax
  0002a	75 04		 jne	 SHORT $L201005
$L201066:
  0002c	33 f6		 xor	 esi, esi
  0002e	eb 15		 jmp	 SHORT $L201006
$L201005:
  00030	8b cb		 mov	 ecx, ebx
  00032	2b ce		 sub	 ecx, esi
  00034	b8 39 8e e3 38	 mov	 eax, 954437177		; 38e38e39H
  00039	f7 e9		 imul	 ecx
  0003b	c1 fa 03	 sar	 edx, 3
  0003e	8b f2		 mov	 esi, edx
  00040	c1 ee 1f	 shr	 esi, 31			; 0000001fH
  00043	03 f2		 add	 esi, edx
$L201006:

; 622  : 		_Insert_n(_Where, (size_type)1, _Val);

  00045	8b 4c 24 18	 mov	 ecx, DWORD PTR __Val$[esp+8]
  00049	51		 push	 ecx
  0004a	6a 01		 push	 1
  0004c	53		 push	 ebx
  0004d	8b cf		 mov	 ecx, edi
  0004f	e8 00 00 00 00	 call	 ?_Insert_n@?$vector@UGuildHouse_Furniture_Info@CGuildHouseBase@@V?$allocator@UGuildHouse_Furniture_Info@CGuildHouseBase@@@std@@@std@@IAEXViterator@12@IABUGuildHouse_Furniture_Info@CGuildHouseBase@@@Z ; std::vector<CGuildHouseBase::GuildHouse_Furniture_Info,std::allocator<CGuildHouseBase::GuildHouse_Furniture_Info> >::_Insert_n

; 623  : 		return (begin() + _Off);

  00054	8b 47 04	 mov	 eax, DWORD PTR [edi+4]
  00057	8d 14 f6	 lea	 edx, DWORD PTR [esi+esi*8]
  0005a	5f		 pop	 edi
  0005b	8d 0c 90	 lea	 ecx, DWORD PTR [eax+edx*4]
  0005e	8b 44 24 0c	 mov	 eax, DWORD PTR ___$ReturnUdt$[esp+4]
  00062	5e		 pop	 esi
  00063	89 08		 mov	 DWORD PTR [eax], ecx
  00065	5b		 pop	 ebx

; 624  : 		}

  00066	c2 0c 00	 ret	 12			; 0000000cH
?insert@?$vector@UGuildHouse_Furniture_Info@CGuildHouseBase@@V?$allocator@UGuildHouse_Furniture_Info@CGuildHouseBase@@@std@@@std@@QAE?AViterator@12@V312@ABUGuildHouse_Furniture_Info@CGuildHouseBase@@@Z ENDP ; std::vector<CGuildHouseBase::GuildHouse_Furniture_Info,std::allocator<CGuildHouseBase::GuildHouse_Furniture_Info> >::insert
_TEXT	ENDS
PUBLIC	??0CGuildHouseBase@@QAE@KK@Z			; CGuildHouseBase::CGuildHouseBase
; Function compile flags: /Ogty
; File c:\documents and settings\test\mes documents\source\virtuos_v17\build\program\_common\guildhouse.cpp
;	COMDAT ??0CGuildHouseBase@@QAE@KK@Z
_TEXT	SEGMENT
_dwGuildId$ = 8						; size = 4
_dwWorldId$ = 12					; size = 4
??0CGuildHouseBase@@QAE@KK@Z PROC NEAR			; CGuildHouseBase::CGuildHouseBase, COMDAT
; _this$ = ecx

; 78   : {

  00000	8b 54 24 08	 mov	 edx, DWORD PTR _dwWorldId$[esp-4]
  00004	8b c1		 mov	 eax, ecx
  00006	8b 4c 24 04	 mov	 ecx, DWORD PTR _dwGuildId$[esp-4]
  0000a	89 48 04	 mov	 DWORD PTR [eax+4], ecx
  0000d	33 c9		 xor	 ecx, ecx
  0000f	c7 00 00 00 00
	00		 mov	 DWORD PTR [eax], OFFSET FLAT:??_7CGuildHouseBase@@6B@
  00015	89 50 08	 mov	 DWORD PTR [eax+8], edx
  00018	89 48 10	 mov	 DWORD PTR [eax+16], ecx
  0001b	89 48 14	 mov	 DWORD PTR [eax+20], ecx
  0001e	89 48 18	 mov	 DWORD PTR [eax+24], ecx
  00021	89 48 1c	 mov	 DWORD PTR [eax+28], ecx

; 79   : #ifdef __WORLDSERVER
; 80   : 	m_dwWaitDBAckPlayerId = NULL_ID;
; 81   : #endif // __WORLDSERVER
; 82   : 
; 83   : #ifdef __CLIENT
; 84   : 	m_dwSelectedObjID = NULL_ID;
; 85   : 	m_nExtraExp = 0;
; 86   : 	m_nWndDeployingIndex  = -1;
; 87   : #endif
; 88   : #ifdef __GUILD_HOUSE_MIDDLE
; 89   : 	::memset( m_szGHName, 0, sizeof( m_szGHName ) );
; 90   : #endif // __GUILD_HOUSE_MIDDLE
; 91   : }

  00024	c2 08 00	 ret	 8
??0CGuildHouseBase@@QAE@KK@Z ENDP			; CGuildHouseBase::CGuildHouseBase
_TEXT	ENDS
PUBLIC	??0CGuildHouseSmall@@QAE@K@Z			; CGuildHouseSmall::CGuildHouseSmall
PUBLIC	?GetTeleporterPos@CGuildHouseSmall@@UAE?AUD3DXVECTOR3@@XZ ; CGuildHouseSmall::GetTeleporterPos
PUBLIC	??_7CGuildHouseSmall@@6B@			; CGuildHouseSmall::`vftable'
PUBLIC	??_GCGuildHouseSmall@@UAEPAXI@Z			; CGuildHouseSmall::`scalar deleting destructor'
EXTRN	??_ECGuildHouseSmall@@UAEPAXI@Z:NEAR		; CGuildHouseSmall::`vector deleting destructor'
;	COMDAT ??_7CGuildHouseSmall@@6B@
; File c:\program files\microsoft visual studio .net 2003\vc7\include\xmemory
CONST	SEGMENT
??_7CGuildHouseSmall@@6B@ DD FLAT:??_ECGuildHouseSmall@@UAEPAXI@Z ; CGuildHouseSmall::`vftable'
	DD	FLAT:?GetTeleporterPos@CGuildHouseSmall@@UAE?AUD3DXVECTOR3@@XZ
; Function compile flags: /Ogty
; File c:\documents and settings\test\mes documents\source\virtuos_v17\build\program\_common\guildhouse.cpp
CONST	ENDS
;	COMDAT ??0CGuildHouseSmall@@QAE@K@Z
_TEXT	SEGMENT
_dwGuildId$ = 8						; size = 4
??0CGuildHouseSmall@@QAE@K@Z PROC NEAR			; CGuildHouseSmall::CGuildHouseSmall, COMDAT
; _this$ = ecx

; 992  : {

  00000	8b c1		 mov	 eax, ecx
  00002	8b 4c 24 04	 mov	 ecx, DWORD PTR _dwGuildId$[esp-4]
  00006	89 48 04	 mov	 DWORD PTR [eax+4], ecx
  00009	33 c9		 xor	 ecx, ecx
  0000b	c7 40 08 d4 00
	00 00		 mov	 DWORD PTR [eax+8], 212	; 000000d4H
  00012	89 48 10	 mov	 DWORD PTR [eax+16], ecx
  00015	89 48 14	 mov	 DWORD PTR [eax+20], ecx
  00018	89 48 18	 mov	 DWORD PTR [eax+24], ecx
  0001b	89 48 1c	 mov	 DWORD PTR [eax+28], ecx
  0001e	c7 00 00 00 00
	00		 mov	 DWORD PTR [eax], OFFSET FLAT:??_7CGuildHouseSmall@@6B@

; 993  : }

  00024	c2 04 00	 ret	 4
??0CGuildHouseSmall@@QAE@K@Z ENDP			; CGuildHouseSmall::CGuildHouseSmall
; Function compile flags: /Ogty
; File c:\documents and settings\test\mes documents\source\virtuos_v17\build\program\_common\guildhouse.h
_TEXT	ENDS
;	COMDAT ?GetTeleporterPos@CGuildHouseSmall@@UAE?AUD3DXVECTOR3@@XZ
_TEXT	SEGMENT
___$ReturnUdt$ = 8					; size = 4
?GetTeleporterPos@CGuildHouseSmall@@UAE?AUD3DXVECTOR3@@XZ PROC NEAR ; CGuildHouseSmall::GetTeleporterPos, COMDAT
; _this$ = ecx

; 212  : 	virtual D3DXVECTOR3 GetTeleporterPos()	{ return D3DXVECTOR3( 80.0f, 100.0f, 75.0f ); }

  00000	8b 44 24 04	 mov	 eax, DWORD PTR ___$ReturnUdt$[esp-4]
  00004	c7 00 00 00 a0
	42		 mov	 DWORD PTR [eax], 1117782016 ; 42a00000H
  0000a	c7 40 04 00 00
	c8 42		 mov	 DWORD PTR [eax+4], 1120403456 ; 42c80000H
  00011	c7 40 08 00 00
	96 42		 mov	 DWORD PTR [eax+8], 1117126656 ; 42960000H
  00018	c2 04 00	 ret	 4
?GetTeleporterPos@CGuildHouseSmall@@UAE?AUD3DXVECTOR3@@XZ ENDP ; CGuildHouseSmall::GetTeleporterPos
; Function compile flags: /Ogty
_TEXT	ENDS
;	COMDAT ??_GCGuildHouseSmall@@UAEPAXI@Z
_TEXT	SEGMENT
___flags$ = 8						; size = 4
??_GCGuildHouseSmall@@UAEPAXI@Z PROC NEAR		; CGuildHouseSmall::`scalar deleting destructor', COMDAT
; _this$ = ecx
  00000	56		 push	 esi
  00001	8b f1		 mov	 esi, ecx
  00003	e8 00 00 00 00	 call	 ??1CGuildHouseSmall@@UAE@XZ ; CGuildHouseSmall::~CGuildHouseSmall
  00008	f6 44 24 08 01	 test	 BYTE PTR ___flags$[esp], 1
  0000d	74 09		 je	 SHORT $L201283
  0000f	56		 push	 esi
  00010	e8 00 00 00 00	 call	 ??3@YAXPAX@Z		; operator delete
  00015	83 c4 04	 add	 esp, 4
$L201283:
  00018	8b c6		 mov	 eax, esi
  0001a	5e		 pop	 esi
  0001b	c2 04 00	 ret	 4
??_GCGuildHouseSmall@@UAEPAXI@Z ENDP			; CGuildHouseSmall::`scalar deleting destructor'
_TEXT	ENDS
PUBLIC	??0CGuildHouseMiddle@@QAE@K@Z			; CGuildHouseMiddle::CGuildHouseMiddle
PUBLIC	?GetTeleporterPos@CGuildHouseMiddle@@UAE?AUD3DXVECTOR3@@XZ ; CGuildHouseMiddle::GetTeleporterPos
PUBLIC	??_7CGuildHouseMiddle@@6B@			; CGuildHouseMiddle::`vftable'
PUBLIC	??_GCGuildHouseMiddle@@UAEPAXI@Z		; CGuildHouseMiddle::`scalar deleting destructor'
EXTRN	??_ECGuildHouseMiddle@@UAEPAXI@Z:NEAR		; CGuildHouseMiddle::`vector deleting destructor'
;	COMDAT ??_7CGuildHouseMiddle@@6B@
; File c:\program files\microsoft visual studio .net 2003\vc7\include\xmemory
CONST	SEGMENT
??_7CGuildHouseMiddle@@6B@ DD FLAT:??_ECGuildHouseMiddle@@UAEPAXI@Z ; CGuildHouseMiddle::`vftable'
	DD	FLAT:?GetTeleporterPos@CGuildHouseMiddle@@UAE?AUD3DXVECTOR3@@XZ
; Function compile flags: /Ogty
; File c:\documents and settings\test\mes documents\source\virtuos_v17\build\program\_common\guildhouse.cpp
CONST	ENDS
;	COMDAT ??0CGuildHouseMiddle@@QAE@K@Z
_TEXT	SEGMENT
_dwGuildId$ = 8						; size = 4
??0CGuildHouseMiddle@@QAE@K@Z PROC NEAR			; CGuildHouseMiddle::CGuildHouseMiddle, COMDAT
; _this$ = ecx

; 1055 : {

  00000	8b c1		 mov	 eax, ecx
  00002	8b 4c 24 04	 mov	 ecx, DWORD PTR _dwGuildId$[esp-4]
  00006	89 48 04	 mov	 DWORD PTR [eax+4], ecx
  00009	33 c9		 xor	 ecx, ecx
  0000b	c7 40 08 d5 00
	00 00		 mov	 DWORD PTR [eax+8], 213	; 000000d5H
  00012	89 48 10	 mov	 DWORD PTR [eax+16], ecx
  00015	89 48 14	 mov	 DWORD PTR [eax+20], ecx
  00018	89 48 18	 mov	 DWORD PTR [eax+24], ecx
  0001b	89 48 1c	 mov	 DWORD PTR [eax+28], ecx
  0001e	c7 00 00 00 00
	00		 mov	 DWORD PTR [eax], OFFSET FLAT:??_7CGuildHouseMiddle@@6B@

; 1056 : }

  00024	c2 04 00	 ret	 4
??0CGuildHouseMiddle@@QAE@K@Z ENDP			; CGuildHouseMiddle::CGuildHouseMiddle
; Function compile flags: /Ogty
; File c:\documents and settings\test\mes documents\source\virtuos_v17\build\program\_common\guildhouse.h
_TEXT	ENDS
;	COMDAT ?GetTeleporterPos@CGuildHouseMiddle@@UAE?AUD3DXVECTOR3@@XZ
_TEXT	SEGMENT
___$ReturnUdt$ = 8					; size = 4
?GetTeleporterPos@CGuildHouseMiddle@@UAE?AUD3DXVECTOR3@@XZ PROC NEAR ; CGuildHouseMiddle::GetTeleporterPos, COMDAT
; _this$ = ecx

; 240  : 	virtual D3DXVECTOR3 GetTeleporterPos()	{ return D3DXVECTOR3( 250.0f, 100.0f, 250.0f ); }

  00000	8b 44 24 04	 mov	 eax, DWORD PTR ___$ReturnUdt$[esp-4]
  00004	c7 00 00 00 7a
	43		 mov	 DWORD PTR [eax], 1132068864 ; 437a0000H
  0000a	c7 40 04 00 00
	c8 42		 mov	 DWORD PTR [eax+4], 1120403456 ; 42c80000H
  00011	c7 40 08 00 00
	7a 43		 mov	 DWORD PTR [eax+8], 1132068864 ; 437a0000H
  00018	c2 04 00	 ret	 4
?GetTeleporterPos@CGuildHouseMiddle@@UAE?AUD3DXVECTOR3@@XZ ENDP ; CGuildHouseMiddle::GetTeleporterPos
; Function compile flags: /Ogty
_TEXT	ENDS
;	COMDAT ??_GCGuildHouseMiddle@@UAEPAXI@Z
_TEXT	SEGMENT
___flags$ = 8						; size = 4
??_GCGuildHouseMiddle@@UAEPAXI@Z PROC NEAR		; CGuildHouseMiddle::`scalar deleting destructor', COMDAT
; _this$ = ecx
  00000	56		 push	 esi
  00001	8b f1		 mov	 esi, ecx
  00003	e8 00 00 00 00	 call	 ??1CGuildHouseMiddle@@UAE@XZ ; CGuildHouseMiddle::~CGuildHouseMiddle
  00008	f6 44 24 08 01	 test	 BYTE PTR ___flags$[esp], 1
  0000d	74 09		 je	 SHORT $L201411
  0000f	56		 push	 esi
  00010	e8 00 00 00 00	 call	 ??3@YAXPAX@Z		; operator delete
  00015	83 c4 04	 add	 esp, 4
$L201411:
  00018	8b c6		 mov	 eax, esi
  0001a	5e		 pop	 esi
  0001b	c2 04 00	 ret	 4
??_GCGuildHouseMiddle@@UAEPAXI@Z ENDP			; CGuildHouseMiddle::`scalar deleting destructor'
_TEXT	ENDS
PUBLIC	??1?$map@KPAVCGuildHouseBase@@U?$less@K@std@@V?$allocator@U?$pair@$$CBKPAVCGuildHouseBase@@@std@@@3@@std@@QAE@XZ ; std::map<unsigned long,CGuildHouseBase *,std::less<unsigned long>,std::allocator<std::pair<unsigned long const ,CGuildHouseBase *> > >::~map<unsigned long,CGuildHouseBase *,std::less<unsigned long>,std::allocator<std::pair<unsigned long const ,CGuildHouseBase *> > >
; Function compile flags: /Ogty
;	COMDAT ??1?$map@KPAVCGuildHouseBase@@U?$less@K@std@@V?$allocator@U?$pair@$$CBKPAVCGuildHouseBase@@@std@@@3@@std@@QAE@XZ
_TEXT	SEGMENT
$T201514 = -4						; size = 4
??1?$map@KPAVCGuildHouseBase@@U?$less@K@std@@V?$allocator@U?$pair@$$CBKPAVCGuildHouseBase@@@std@@@3@@std@@QAE@XZ PROC NEAR ; std::map<unsigned long,CGuildHouseBase *,std::less<unsigned long>,std::allocator<std::pair<unsigned long const ,CGuildHouseBase *> > >::~map<unsigned long,CGuildHouseBase *,std::less<unsigned long>,std::allocator<std::pair<unsigned long const ,CGuildHouseBase *> > >, COMDAT
; _this$ = ecx
  00000	51		 push	 ecx
  00001	56		 push	 esi
  00002	8b f1		 mov	 esi, ecx
  00004	8b 46 04	 mov	 eax, DWORD PTR [esi+4]
  00007	8b 08		 mov	 ecx, DWORD PTR [eax]
  00009	50		 push	 eax
  0000a	51		 push	 ecx
  0000b	8d 44 24 0c	 lea	 eax, DWORD PTR $T201514[esp+16]
  0000f	50		 push	 eax
  00010	8b ce		 mov	 ecx, esi
  00012	e8 00 00 00 00	 call	 ?erase@?$_Tree@V?$_Tmap_traits@KPAVCGuildHouseBase@@U?$less@K@std@@V?$allocator@U?$pair@$$CBKPAVCGuildHouseBase@@@std@@@3@$0A@@std@@@std@@QAE?AViterator@12@V312@0@Z ; std::_Tree<std::_Tmap_traits<unsigned long,CGuildHouseBase *,std::less<unsigned long>,std::allocator<std::pair<unsigned long const ,CGuildHouseBase *> >,0> >::erase
  00017	8b 4e 04	 mov	 ecx, DWORD PTR [esi+4]
  0001a	51		 push	 ecx
  0001b	e8 00 00 00 00	 call	 ??3@YAXPAX@Z		; operator delete
  00020	83 c4 04	 add	 esp, 4
  00023	33 c0		 xor	 eax, eax
  00025	89 46 04	 mov	 DWORD PTR [esi+4], eax
  00028	89 46 08	 mov	 DWORD PTR [esi+8], eax
  0002b	5e		 pop	 esi
  0002c	59		 pop	 ecx
  0002d	c3		 ret	 0
??1?$map@KPAVCGuildHouseBase@@U?$less@K@std@@V?$allocator@U?$pair@$$CBKPAVCGuildHouseBase@@@std@@@3@@std@@QAE@XZ ENDP ; std::map<unsigned long,CGuildHouseBase *,std::less<unsigned long>,std::allocator<std::pair<unsigned long const ,CGuildHouseBase *> > >::~map<unsigned long,CGuildHouseBase *,std::less<unsigned long>,std::allocator<std::pair<unsigned long const ,CGuildHouseBase *> > >
_TEXT	ENDS
PUBLIC	??1CGuildHouseMng@@QAE@XZ			; CGuildHouseMng::~CGuildHouseMng
;	COMDAT xdata$x
; File c:\program files\microsoft visual studio .net 2003\vc7\include\xmemory
xdata$x	SEGMENT
$T201903 DD	0ffffffffH
	DD	FLAT:$L201547
$T201897 DD	019930520H
	DD	01H
	DD	FLAT:$T201903
	DD	2 DUP(00H)
	DD	2 DUP(00H)
; Function compile flags: /Ogty
; File c:\documents and settings\test\mes documents\source\virtuos_v17\build\program\_common\guildhouse.cpp
xdata$x	ENDS
;	COMDAT ??1CGuildHouseMng@@QAE@XZ
_TEXT	SEGMENT
_it$192489 = -20					; size = 4
$T201867 = -16						; size = 4
_this$ = -16						; size = 4
__$EHRec$ = -12						; size = 12
??1CGuildHouseMng@@QAE@XZ PROC NEAR			; CGuildHouseMng::~CGuildHouseMng, COMDAT
; _this$ = ecx

; 1092 : {

  00000	6a ff		 push	 -1
  00002	68 00 00 00 00	 push	 __ehhandler$??1CGuildHouseMng@@QAE@XZ
  00007	64 a1 00 00 00
	00		 mov	 eax, DWORD PTR fs:__except_list
  0000d	50		 push	 eax
  0000e	64 89 25 00 00
	00 00		 mov	 DWORD PTR fs:__except_list, esp
  00015	83 ec 08	 sub	 esp, 8
  00018	53		 push	 ebx
  00019	55		 push	 ebp
  0001a	56		 push	 esi
  0001b	8b f1		 mov	 esi, ecx
  0001d	57		 push	 edi
  0001e	89 74 24 14	 mov	 DWORD PTR _this$[esp+36], esi

; 1093 : 	for( MapGuildHouse::iterator it=m_mapGuildHouse.begin(); it!=m_mapGuildHouse.end(); it++ )

  00022	8b 4e 08	 mov	 ecx, DWORD PTR [esi+8]
  00025	8b 01		 mov	 eax, DWORD PTR [ecx]
  00027	33 db		 xor	 ebx, ebx
  00029	3b c1		 cmp	 eax, ecx
  0002b	89 5c 24 20	 mov	 DWORD PTR __$EHRec$[esp+44], ebx
  0002f	89 44 24 10	 mov	 DWORD PTR _it$192489[esp+36], eax
  00033	74 21		 je	 SHORT $L192495
$L201586:

; 1094 : 		delete it->second;

  00035	8b 48 10	 mov	 ecx, DWORD PTR [eax+16]
  00038	3b cb		 cmp	 ecx, ebx
  0003a	74 06		 je	 SHORT $L192494
  0003c	8b 01		 mov	 eax, DWORD PTR [ecx]
  0003e	6a 01		 push	 1
  00040	ff 10		 call	 DWORD PTR [eax]
$L192494:
  00042	8d 4c 24 10	 lea	 ecx, DWORD PTR _it$192489[esp+36]
  00046	e8 00 00 00 00	 call	 ?_Inc@const_iterator@?$_Tree@V?$_Tmap_traits@KPAVCGuildHouseBase@@U?$less@K@std@@V?$allocator@U?$pair@$$CBKPAVCGuildHouseBase@@@std@@@3@$0A@@std@@@std@@QAEXXZ ; std::_Tree<std::_Tmap_traits<unsigned long,CGuildHouseBase *,std::less<unsigned long>,std::allocator<std::pair<unsigned long const ,CGuildHouseBase *> >,0> >::const_iterator::_Inc
  0004b	8b 4e 08	 mov	 ecx, DWORD PTR [esi+8]
  0004e	8b 44 24 10	 mov	 eax, DWORD PTR _it$192489[esp+36]
  00052	3b c1		 cmp	 eax, ecx
  00054	75 df		 jne	 SHORT $L201586
$L192495:

; 1095 : 	m_mapGuildHouse.clear();

  00056	8b 4e 08	 mov	 ecx, DWORD PTR [esi+8]
  00059	8b 69 04	 mov	 ebp, DWORD PTR [ecx+4]
  0005c	8a 45 15	 mov	 al, BYTE PTR [ebp+21]
  0005f	83 c6 04	 add	 esi, 4
  00062	3a c3		 cmp	 al, bl
  00064	8b fd		 mov	 edi, ebp
  00066	75 1f		 jne	 SHORT $L201713
$L201711:
  00068	8b 57 08	 mov	 edx, DWORD PTR [edi+8]
  0006b	52		 push	 edx
  0006c	8b ce		 mov	 ecx, esi
  0006e	e8 00 00 00 00	 call	 ?_Erase@?$_Tree@V?$_Tmap_traits@KPAVCGuildHouseBase@@U?$less@K@std@@V?$allocator@U?$pair@$$CBKPAVCGuildHouseBase@@@std@@@3@$0A@@std@@@std@@IAEXPAU_Node@?$_Tree_nod@V?$_Tmap_traits@KPAVCGuildHouseBase@@U?$less@K@std@@V?$allocator@U?$pair@$$CBKPAVCGuildHouseBase@@@std@@@3@$0A@@std@@@2@@Z ; std::_Tree<std::_Tmap_traits<unsigned long,CGuildHouseBase *,std::less<unsigned long>,std::allocator<std::pair<unsigned long const ,CGuildHouseBase *> >,0> >::_Erase
  00073	8b 3f		 mov	 edi, DWORD PTR [edi]
  00075	55		 push	 ebp
  00076	e8 00 00 00 00	 call	 ??3@YAXPAX@Z		; operator delete
  0007b	8a 47 15	 mov	 al, BYTE PTR [edi+21]
  0007e	83 c4 04	 add	 esp, 4
  00081	3a c3		 cmp	 al, bl
  00083	8b ef		 mov	 ebp, edi
  00085	74 e1		 je	 SHORT $L201711
$L201713:
  00087	8b 46 04	 mov	 eax, DWORD PTR [esi+4]
  0008a	89 40 04	 mov	 DWORD PTR [eax+4], eax
  0008d	8b 46 04	 mov	 eax, DWORD PTR [esi+4]
  00090	89 5e 08	 mov	 DWORD PTR [esi+8], ebx
  00093	89 00		 mov	 DWORD PTR [eax], eax
  00095	8b 46 04	 mov	 eax, DWORD PTR [esi+4]
  00098	89 40 08	 mov	 DWORD PTR [eax+8], eax

; 1096 : #ifdef __GUILD_HOUSE_MIDDLE
; 1097 : 	m_mapTenderData.clear();
; 1098 : 	m_mapGHData.clear();
; 1099 : 	m_mapTenderGuild.clear();
; 1100 : #endif // __GUILD_HOUSE_MIDDLE
; 1101 : }

  0009b	8b 46 04	 mov	 eax, DWORD PTR [esi+4]
  0009e	8b 08		 mov	 ecx, DWORD PTR [eax]
  000a0	50		 push	 eax
  000a1	51		 push	 ecx
  000a2	8d 44 24 1c	 lea	 eax, DWORD PTR $T201867[esp+44]
  000a6	50		 push	 eax
  000a7	8b ce		 mov	 ecx, esi
  000a9	c7 44 24 2c ff
	ff ff ff	 mov	 DWORD PTR __$EHRec$[esp+56], -1
  000b1	e8 00 00 00 00	 call	 ?erase@?$_Tree@V?$_Tmap_traits@KPAVCGuildHouseBase@@U?$less@K@std@@V?$allocator@U?$pair@$$CBKPAVCGuildHouseBase@@@std@@@3@$0A@@std@@@std@@QAE?AViterator@12@V312@0@Z ; std::_Tree<std::_Tmap_traits<unsigned long,CGuildHouseBase *,std::less<unsigned long>,std::allocator<std::pair<unsigned long const ,CGuildHouseBase *> >,0> >::erase
  000b6	8b 4e 04	 mov	 ecx, DWORD PTR [esi+4]
  000b9	51		 push	 ecx
  000ba	e8 00 00 00 00	 call	 ??3@YAXPAX@Z		; operator delete
  000bf	8b 4c 24 1c	 mov	 ecx, DWORD PTR __$EHRec$[esp+40]
  000c3	83 c4 04	 add	 esp, 4
  000c6	5f		 pop	 edi
  000c7	89 5e 04	 mov	 DWORD PTR [esi+4], ebx
  000ca	89 5e 08	 mov	 DWORD PTR [esi+8], ebx
  000cd	5e		 pop	 esi
  000ce	5d		 pop	 ebp
  000cf	5b		 pop	 ebx
  000d0	64 89 0d 00 00
	00 00		 mov	 DWORD PTR fs:__except_list, ecx
  000d7	83 c4 14	 add	 esp, 20			; 00000014H
  000da	c3		 ret	 0
_TEXT	ENDS
;	COMDAT text$x
text$x	SEGMENT
$L201547:
  00000	8b 4d f0	 mov	 ecx, DWORD PTR _this$[ebp]
  00003	83 c1 04	 add	 ecx, 4
  00006	e9 00 00 00 00	 jmp	 ??1?$map@KPAVCGuildHouseBase@@U?$less@K@std@@V?$allocator@U?$pair@$$CBKPAVCGuildHouseBase@@@std@@@3@@std@@QAE@XZ
__ehhandler$??1CGuildHouseMng@@QAE@XZ:
  0000b	b8 00 00 00 00	 mov	 eax, OFFSET FLAT:$T201897
  00010	e9 00 00 00 00	 jmp	 ___CxxFrameHandler
text$x	ENDS
??1CGuildHouseMng@@QAE@XZ ENDP				; CGuildHouseMng::~CGuildHouseMng
PUBLIC	?MakeGuildHouse@CGuildHouseMng@@QAEPAVCGuildHouseBase@@KK@Z ; CGuildHouseMng::MakeGuildHouse
;	COMDAT xdata$x
; File c:\program files\microsoft visual studio .net 2003\vc7\include\xmemory
xdata$x	SEGMENT
$T202221 DD	0ffffffffH
	DD	FLAT:$L201916
	DD	0ffffffffH
	DD	FLAT:$L201917
$T202218 DD	019930520H
	DD	02H
	DD	FLAT:$T202221
	DD	2 DUP(00H)
	DD	2 DUP(00H)
; Function compile flags: /Ogty
; File c:\documents and settings\test\mes documents\source\virtuos_v17\build\program\_common\guildhouse.cpp
xdata$x	ENDS
;	COMDAT ?MakeGuildHouse@CGuildHouseMng@@QAEPAVCGuildHouseBase@@KK@Z
_TEXT	SEGMENT
$T201909 = -20						; size = 4
$T201913 = -16						; size = 4
__$EHRec$ = -12						; size = 12
_dwGuildId$ = 8						; size = 4
_dwWorldId$ = 12					; size = 4
?MakeGuildHouse@CGuildHouseMng@@QAEPAVCGuildHouseBase@@KK@Z PROC NEAR ; CGuildHouseMng::MakeGuildHouse, COMDAT
; _this$ = ecx

; 1110 : {

  00000	64 a1 00 00 00
	00		 mov	 eax, DWORD PTR fs:__except_list
  00006	6a ff		 push	 -1
  00008	68 00 00 00 00	 push	 __ehhandler$?MakeGuildHouse@CGuildHouseMng@@QAEPAVCGuildHouseBase@@KK@Z
  0000d	50		 push	 eax

; 1111 : 	switch( dwWorldId )

  0000e	8b 44 24 14	 mov	 eax, DWORD PTR _dwWorldId$[esp+8]
  00012	64 89 25 00 00
	00 00		 mov	 DWORD PTR fs:__except_list, esp
  00019	83 ec 08	 sub	 esp, 8
  0001c	2d d4 00 00 00	 sub	 eax, 212		; 000000d4H
  00021	74 48		 je	 SHORT $L192517
  00023	48		 dec	 eax

; 1114 : 		case WI_GUILDHOUSE_MIDDLE:	return new CGuildHouseMiddle( dwGuildId );
; 1115 : //		case WI_GUILDHOUSE_LARGE:	return new CGuildHouseLarge( dwGuildId );	// 15  -   .
; 1116 : 	}
; 1117 : 
; 1118 : 	return NULL;

  00024	0f 85 82 00 00
	00		 jne	 $L201910
  0002a	6a 20		 push	 32			; 00000020H
  0002c	e8 00 00 00 00	 call	 ??2@YAPAXI@Z		; operator new
  00031	83 c4 04	 add	 esp, 4
  00034	33 c9		 xor	 ecx, ecx
  00036	3b c1		 cmp	 eax, ecx
  00038	74 72		 je	 SHORT $L201910
  0003a	8b 54 24 18	 mov	 edx, DWORD PTR _dwGuildId$[esp+16]
  0003e	89 50 04	 mov	 DWORD PTR [eax+4], edx
  00041	c7 40 08 d5 00
	00 00		 mov	 DWORD PTR [eax+8], 213	; 000000d5H
  00048	89 48 10	 mov	 DWORD PTR [eax+16], ecx
  0004b	89 48 14	 mov	 DWORD PTR [eax+20], ecx
  0004e	89 48 18	 mov	 DWORD PTR [eax+24], ecx
  00051	c7 00 00 00 00
	00		 mov	 DWORD PTR [eax], OFFSET FLAT:??_7CGuildHouseMiddle@@6B@
  00057	89 48 1c	 mov	 DWORD PTR [eax+28], ecx

; 1119 : }

  0005a	8b 4c 24 08	 mov	 ecx, DWORD PTR __$EHRec$[esp+20]
  0005e	64 89 0d 00 00
	00 00		 mov	 DWORD PTR fs:__except_list, ecx
  00065	83 c4 14	 add	 esp, 20			; 00000014H
  00068	c2 08 00	 ret	 8
$L192517:

; 1112 : 	{
; 1113 : 		case WI_GUILDHOUSE_SMALL:	return new CGuildHouseSmall( dwGuildId );

  0006b	6a 20		 push	 32			; 00000020H
  0006d	e8 00 00 00 00	 call	 ??2@YAPAXI@Z		; operator new
  00072	83 c4 04	 add	 esp, 4
  00075	33 c9		 xor	 ecx, ecx
  00077	3b c1		 cmp	 eax, ecx
  00079	74 31		 je	 SHORT $L201910
  0007b	8b 54 24 18	 mov	 edx, DWORD PTR _dwGuildId$[esp+16]
  0007f	89 50 04	 mov	 DWORD PTR [eax+4], edx
  00082	c7 40 08 d4 00
	00 00		 mov	 DWORD PTR [eax+8], 212	; 000000d4H
  00089	89 48 10	 mov	 DWORD PTR [eax+16], ecx
  0008c	89 48 14	 mov	 DWORD PTR [eax+20], ecx
  0008f	89 48 18	 mov	 DWORD PTR [eax+24], ecx
  00092	c7 00 00 00 00
	00		 mov	 DWORD PTR [eax], OFFSET FLAT:??_7CGuildHouseSmall@@6B@
  00098	89 48 1c	 mov	 DWORD PTR [eax+28], ecx

; 1119 : }

  0009b	8b 4c 24 08	 mov	 ecx, DWORD PTR __$EHRec$[esp+20]
  0009f	64 89 0d 00 00
	00 00		 mov	 DWORD PTR fs:__except_list, ecx
  000a6	83 c4 14	 add	 esp, 20			; 00000014H
  000a9	c2 08 00	 ret	 8
$L201910:
  000ac	8b 4c 24 08	 mov	 ecx, DWORD PTR __$EHRec$[esp+20]
  000b0	33 c0		 xor	 eax, eax
  000b2	64 89 0d 00 00
	00 00		 mov	 DWORD PTR fs:__except_list, ecx
  000b9	83 c4 14	 add	 esp, 20			; 00000014H
  000bc	c2 08 00	 ret	 8
_TEXT	ENDS
;	COMDAT text$x
text$x	SEGMENT
$L201917:
  00000	8b 45 f0	 mov	 eax, DWORD PTR $T201913[ebp]
  00003	50		 push	 eax
  00004	e8 00 00 00 00	 call	 ??3@YAXPAX@Z		; operator delete
  00009	59		 pop	 ecx
  0000a	c3		 ret	 0
$L201916:
  0000b	8b 45 ec	 mov	 eax, DWORD PTR $T201909[ebp]
  0000e	50		 push	 eax
  0000f	e8 00 00 00 00	 call	 ??3@YAXPAX@Z		; operator delete
  00014	59		 pop	 ecx
  00015	c3		 ret	 0
__ehhandler$?MakeGuildHouse@CGuildHouseMng@@QAEPAVCGuildHouseBase@@KK@Z:
  00016	b8 00 00 00 00	 mov	 eax, OFFSET FLAT:$T202218
  0001b	e9 00 00 00 00	 jmp	 ___CxxFrameHandler
text$x	ENDS
?MakeGuildHouse@CGuildHouseMng@@QAEPAVCGuildHouseBase@@KK@Z ENDP ; CGuildHouseMng::MakeGuildHouse
PUBLIC	?resize@?$vector@UGuildHouse_Furniture_Info@CGuildHouseBase@@V?$allocator@UGuildHouse_Furniture_Info@CGuildHouseBase@@@std@@@std@@QAEXI@Z ; std::vector<CGuildHouseBase::GuildHouse_Furniture_Info,std::allocator<CGuildHouseBase::GuildHouse_Furniture_Info> >::resize
; Function compile flags: /Ogty
; File c:\program files\microsoft visual studio .net 2003\vc7\include\vector
;	COMDAT ?resize@?$vector@UGuildHouse_Furniture_Info@CGuildHouseBase@@V?$allocator@UGuildHouse_Furniture_Info@CGuildHouseBase@@@std@@@std@@QAEXI@Z
_TEXT	SEGMENT
$T202227 = -48						; size = 12
$T202226 = -36						; size = 36
__Newsize$ = 8						; size = 4
?resize@?$vector@UGuildHouse_Furniture_Info@CGuildHouseBase@@V?$allocator@UGuildHouse_Furniture_Info@CGuildHouseBase@@@std@@@std@@QAEXI@Z PROC NEAR ; std::vector<CGuildHouseBase::GuildHouse_Furniture_Info,std::allocator<CGuildHouseBase::GuildHouse_Furniture_Info> >::resize, COMDAT
; _this$ = ecx

; 502  : 		{	// determine new length, padding with _Ty() elements as needed

  00000	83 ec 30	 sub	 esp, 48			; 00000030H
  00003	53		 push	 ebx
  00004	8b d9		 mov	 ebx, ecx
  00006	56		 push	 esi

; 503  : 		resize(_Newsize, _Ty());

  00007	c7 44 24 08 00
	00 00 00	 mov	 DWORD PTR $T202227[esp+56], 0
  0000f	8b 4c 24 08	 mov	 ecx, DWORD PTR $T202227[esp+56]
  00013	33 f6		 xor	 esi, esi
  00015	83 c8 ff	 or	 eax, -1
  00018	89 4c 24 1c	 mov	 DWORD PTR $T202226[esp+64], ecx
  0001c	57		 push	 edi
  0001d	c7 44 24 10 00
	00 00 00	 mov	 DWORD PTR $T202227[esp+64], 0
  00025	8b 54 24 10	 mov	 edx, DWORD PTR $T202227[esp+64]
  00029	c7 44 24 14 00
	00 00 00	 mov	 DWORD PTR $T202227[esp+68], 0
  00031	8b 4c 24 14	 mov	 ecx, DWORD PTR $T202227[esp+68]
  00035	56		 push	 esi
  00036	89 44 24 1c	 mov	 DWORD PTR $T202226[esp+64], eax
  0003a	89 74 24 20	 mov	 DWORD PTR $T202226[esp+68], esi
  0003e	89 54 24 28	 mov	 DWORD PTR $T202226[esp+76], edx
  00042	89 4c 24 2c	 mov	 DWORD PTR $T202226[esp+80], ecx
  00046	89 74 24 30	 mov	 DWORD PTR $T202226[esp+84], esi
  0004a	89 44 24 34	 mov	 DWORD PTR $T202226[esp+88], eax
  0004e	e8 00 00 00 00	 call	 _time
  00053	8b 54 24 44	 mov	 edx, DWORD PTR __Newsize$[esp+60]
  00057	83 ec 20	 sub	 esp, 32			; 00000020H
  0005a	89 74 24 5c	 mov	 DWORD PTR $T202226[esp+128], esi
  0005e	8b fc		 mov	 edi, esp
  00060	89 44 24 58	 mov	 DWORD PTR $T202226[esp+124], eax
  00064	b9 09 00 00 00	 mov	 ecx, 9
  00069	8d 74 24 3c	 lea	 esi, DWORD PTR $T202226[esp+96]
  0006d	f3 a5		 rep movsd
  0006f	52		 push	 edx
  00070	8b cb		 mov	 ecx, ebx
  00072	e8 00 00 00 00	 call	 ?resize@?$vector@UGuildHouse_Furniture_Info@CGuildHouseBase@@V?$allocator@UGuildHouse_Furniture_Info@CGuildHouseBase@@@std@@@std@@QAEXIUGuildHouse_Furniture_Info@CGuildHouseBase@@@Z ; std::vector<CGuildHouseBase::GuildHouse_Furniture_Info,std::allocator<CGuildHouseBase::GuildHouse_Furniture_Info> >::resize

; 504  : 		}

  00077	5f		 pop	 edi
  00078	5e		 pop	 esi
  00079	5b		 pop	 ebx
  0007a	83 c4 30	 add	 esp, 48			; 00000030H
  0007d	c2 04 00	 ret	 4
?resize@?$vector@UGuildHouse_Furniture_Info@CGuildHouseBase@@V?$allocator@UGuildHouse_Furniture_Info@CGuildHouseBase@@@std@@@std@@QAEXI@Z ENDP ; std::vector<CGuildHouseBase::GuildHouse_Furniture_Info,std::allocator<CGuildHouseBase::GuildHouse_Furniture_Info> >::resize
_TEXT	ENDS
PUBLIC	?push_back@?$vector@UGuildHouse_Furniture_Info@CGuildHouseBase@@V?$allocator@UGuildHouse_Furniture_Info@CGuildHouseBase@@@std@@@std@@QAEXABUGuildHouse_Furniture_Info@CGuildHouseBase@@@Z ; std::vector<CGuildHouseBase::GuildHouse_Furniture_Info,std::allocator<CGuildHouseBase::GuildHouse_Furniture_Info> >::push_back
; Function compile flags: /Ogty
;	COMDAT ?push_back@?$vector@UGuildHouse_Furniture_Info@CGuildHouseBase@@V?$allocator@UGuildHouse_Furniture_Info@CGuildHouseBase@@@std@@@std@@QAEXABUGuildHouse_Furniture_Info@CGuildHouseBase@@@Z
_TEXT	SEGMENT
__Cat$202278 = 8					; size = 1
$T202243 = 8						; size = 4
__Val$ = 8						; size = 4
?push_back@?$vector@UGuildHouse_Furniture_Info@CGuildHouseBase@@V?$allocator@UGuildHouse_Furniture_Info@CGuildHouseBase@@@std@@@std@@QAEXABUGuildHouse_Furniture_Info@CGuildHouseBase@@@Z PROC NEAR ; std::vector<CGuildHouseBase::GuildHouse_Furniture_Info,std::allocator<CGuildHouseBase::GuildHouse_Furniture_Info> >::push_back, COMDAT
; _this$ = ecx

; 579  : 		{	// insert element at end

  00000	56		 push	 esi
  00001	8b f1		 mov	 esi, ecx
  00003	57		 push	 edi

; 580  : 		if (size() < capacity())

  00004	8b 7e 04	 mov	 edi, DWORD PTR [esi+4]
  00007	85 ff		 test	 edi, edi
  00009	75 04		 jne	 SHORT $L202249
  0000b	33 c9		 xor	 ecx, ecx
  0000d	eb 16		 jmp	 SHORT $L202250
$L202249:
  0000f	8b 4e 08	 mov	 ecx, DWORD PTR [esi+8]
  00012	2b cf		 sub	 ecx, edi
  00014	b8 39 8e e3 38	 mov	 eax, 954437177		; 38e38e39H
  00019	f7 e9		 imul	 ecx
  0001b	c1 fa 03	 sar	 edx, 3
  0001e	8b ca		 mov	 ecx, edx
  00020	c1 e9 1f	 shr	 ecx, 31			; 0000001fH
  00023	03 ca		 add	 ecx, edx
$L202250:
  00025	85 ff		 test	 edi, edi
  00027	74 3e		 je	 SHORT $L192680
  00029	8b 56 0c	 mov	 edx, DWORD PTR [esi+12]
  0002c	2b d7		 sub	 edx, edi
  0002e	b8 39 8e e3 38	 mov	 eax, 954437177		; 38e38e39H
  00033	f7 ea		 imul	 edx
  00035	c1 fa 03	 sar	 edx, 3
  00038	8b c2		 mov	 eax, edx
  0003a	c1 e8 1f	 shr	 eax, 31			; 0000001fH
  0003d	03 c2		 add	 eax, edx
  0003f	3b c8		 cmp	 ecx, eax
  00041	73 24		 jae	 SHORT $L192680

; 581  : 			_Mylast = _Ufill(_Mylast, 1, _Val);

  00043	8b 44 24 0c	 mov	 eax, DWORD PTR __Cat$202278[esp+4]
  00047	8b 4c 24 0c	 mov	 ecx, DWORD PTR __Val$[esp+4]
  0004b	8b 7e 08	 mov	 edi, DWORD PTR [esi+8]
  0004e	50		 push	 eax
  0004f	56		 push	 esi
  00050	51		 push	 ecx
  00051	6a 01		 push	 1
  00053	57		 push	 edi
  00054	e8 00 00 00 00	 call	 ??$_Uninit_fill_n@PAUGuildHouse_Furniture_Info@CGuildHouseBase@@IU12@V?$allocator@UGuildHouse_Furniture_Info@CGuildHouseBase@@@std@@@std@@YAXPAUGuildHouse_Furniture_Info@CGuildHouseBase@@IABU12@AAV?$allocator@UGuildHouse_Furniture_Info@CGuildHouseBase@@@0@U_Nonscalar_ptr_iterator_tag@0@@Z ; std::_Uninit_fill_n<CGuildHouseBase::GuildHouse_Furniture_Info *,unsigned int,CGuildHouseBase::GuildHouse_Furniture_Info,std::allocator<CGuildHouseBase::GuildHouse_Furniture_Info> >
  00059	83 c4 14	 add	 esp, 20			; 00000014H
  0005c	83 c7 24	 add	 edi, 36			; 00000024H
  0005f	89 7e 08	 mov	 DWORD PTR [esi+8], edi
  00062	5f		 pop	 edi
  00063	5e		 pop	 esi

; 584  : 		}

  00064	c2 04 00	 ret	 4
$L192680:

; 582  : 		else
; 583  : 			insert(end(), _Val);

  00067	8b 54 24 0c	 mov	 edx, DWORD PTR __Val$[esp+4]
  0006b	8b 46 08	 mov	 eax, DWORD PTR [esi+8]
  0006e	52		 push	 edx
  0006f	50		 push	 eax
  00070	8d 44 24 14	 lea	 eax, DWORD PTR $T202243[esp+12]
  00074	50		 push	 eax
  00075	8b ce		 mov	 ecx, esi
  00077	e8 00 00 00 00	 call	 ?insert@?$vector@UGuildHouse_Furniture_Info@CGuildHouseBase@@V?$allocator@UGuildHouse_Furniture_Info@CGuildHouseBase@@@std@@@std@@QAE?AViterator@12@V312@ABUGuildHouse_Furniture_Info@CGuildHouseBase@@@Z ; std::vector<CGuildHouseBase::GuildHouse_Furniture_Info,std::allocator<CGuildHouseBase::GuildHouse_Furniture_Info> >::insert
  0007c	5f		 pop	 edi
  0007d	5e		 pop	 esi

; 584  : 		}

  0007e	c2 04 00	 ret	 4
?push_back@?$vector@UGuildHouse_Furniture_Info@CGuildHouseBase@@V?$allocator@UGuildHouse_Furniture_Info@CGuildHouseBase@@@std@@@std@@QAEXABUGuildHouse_Furniture_Info@CGuildHouseBase@@@Z ENDP ; std::vector<CGuildHouseBase::GuildHouse_Furniture_Info,std::allocator<CGuildHouseBase::GuildHouse_Furniture_Info> >::push_back
_TEXT	ENDS
PUBLIC	??0?$map@KPAVCGuildHouseBase@@U?$less@K@std@@V?$allocator@U?$pair@$$CBKPAVCGuildHouseBase@@@std@@@3@@std@@QAE@XZ ; std::map<unsigned long,CGuildHouseBase *,std::less<unsigned long>,std::allocator<std::pair<unsigned long const ,CGuildHouseBase *> > >::map<unsigned long,CGuildHouseBase *,std::less<unsigned long>,std::allocator<std::pair<unsigned long const ,CGuildHouseBase *> > >
; Function compile flags: /Ogty
; File c:\program files\microsoft visual studio .net 2003\vc7\include\map
;	COMDAT ??0?$map@KPAVCGuildHouseBase@@U?$less@K@std@@V?$allocator@U?$pair@$$CBKPAVCGuildHouseBase@@@std@@@3@@std@@QAE@XZ
_TEXT	SEGMENT
??0?$map@KPAVCGuildHouseBase@@U?$less@K@std@@V?$allocator@U?$pair@$$CBKPAVCGuildHouseBase@@@std@@@3@@std@@QAE@XZ PROC NEAR ; std::map<unsigned long,CGuildHouseBase *,std::less<unsigned long>,std::allocator<std::pair<unsigned long const ,CGuildHouseBase *> > >::map<unsigned long,CGuildHouseBase *,std::less<unsigned long>,std::allocator<std::pair<unsigned long const ,CGuildHouseBase *> > >, COMDAT
; _this$ = ecx

; 102  : 		{	// construct empty map from defaults

  00000	56		 push	 esi
  00001	8b f1		 mov	 esi, ecx
  00003	e8 00 00 00 00	 call	 ?_Buynode@?$_Tree@V?$_Tmap_traits@KPAVCGuildHouseBase@@U?$less@K@std@@V?$allocator@U?$pair@$$CBKPAVCGuildHouseBase@@@std@@@3@$0A@@std@@@std@@IAEPAU_Node@?$_Tree_nod@V?$_Tmap_traits@KPAVCGuildHouseBase@@U?$less@K@std@@V?$allocator@U?$pair@$$CBKPAVCGuildHouseBase@@@std@@@3@$0A@@std@@@2@XZ ; std::_Tree<std::_Tmap_traits<unsigned long,CGuildHouseBase *,std::less<unsigned long>,std::allocator<std::pair<unsigned long const ,CGuildHouseBase *> >,0> >::_Buynode
  00008	89 46 04	 mov	 DWORD PTR [esi+4], eax
  0000b	c6 40 15 01	 mov	 BYTE PTR [eax+21], 1
  0000f	8b 46 04	 mov	 eax, DWORD PTR [esi+4]
  00012	89 40 04	 mov	 DWORD PTR [eax+4], eax
  00015	8b 46 04	 mov	 eax, DWORD PTR [esi+4]
  00018	89 00		 mov	 DWORD PTR [eax], eax
  0001a	8b 46 04	 mov	 eax, DWORD PTR [esi+4]
  0001d	89 40 08	 mov	 DWORD PTR [eax+8], eax
  00020	c7 46 08 00 00
	00 00		 mov	 DWORD PTR [esi+8], 0

; 103  : 		}

  00027	8b c6		 mov	 eax, esi
  00029	5e		 pop	 esi
  0002a	c3		 ret	 0
??0?$map@KPAVCGuildHouseBase@@U?$less@K@std@@V?$allocator@U?$pair@$$CBKPAVCGuildHouseBase@@@std@@@3@@std@@QAE@XZ ENDP ; std::map<unsigned long,CGuildHouseBase *,std::less<unsigned long>,std::allocator<std::pair<unsigned long const ,CGuildHouseBase *> > >::map<unsigned long,CGuildHouseBase *,std::less<unsigned long>,std::allocator<std::pair<unsigned long const ,CGuildHouseBase *> > >
_TEXT	ENDS
PUBLIC	?SerializeAllInfo@CGuildHouseBase@@QAEXAAVCAr@@@Z ; CGuildHouseBase::SerializeAllInfo
; Function compile flags: /Ogty
; File c:\documents and settings\test\mes documents\source\virtuos_v17\build\program\_common\guildhouse.cpp
;	COMDAT ?SerializeAllInfo@CGuildHouseBase@@QAEXAAVCAr@@@Z
_TEXT	SEGMENT
_ar$ = 8						; size = 4
?SerializeAllInfo@CGuildHouseBase@@QAEXAAVCAr@@@Z PROC NEAR ; CGuildHouseBase::SerializeAllInfo, COMDAT
; _this$ = ecx

; 719  : {

  00000	53		 push	 ebx
  00001	55		 push	 ebp
  00002	56		 push	 esi

; 720  : 	if( ar.IsStoring() )

  00003	8b 74 24 10	 mov	 esi, DWORD PTR _ar$[esp+8]
  00007	33 c0		 xor	 eax, eax
  00009	8a 06		 mov	 al, BYTE PTR [esi]
  0000b	57		 push	 edi
  0000c	8b f9		 mov	 edi, ecx

; 721  : 	{
; 722  : 		ar << m_dwGuildId << m_dwWorldId;

  0000e	bd 04 00 00 00	 mov	 ebp, 4
  00013	f7 d0		 not	 eax
  00015	a8 01		 test	 al, 1
  00017	0f 84 cf 00 00
	00		 je	 $L192257
  0001d	8b 5f 04	 mov	 ebx, DWORD PTR [edi+4]
  00020	55		 push	 ebp
  00021	8b ce		 mov	 ecx, esi
  00023	e8 00 00 00 00	 call	 ?CheckBuf@CAr@@QAEXI@Z	; CAr::CheckBuf
  00028	8b 4e 08	 mov	 ecx, DWORD PTR [esi+8]
  0002b	89 19		 mov	 DWORD PTR [ecx], ebx
  0002d	01 6e 08	 add	 DWORD PTR [esi+8], ebp
  00030	8b 5f 08	 mov	 ebx, DWORD PTR [edi+8]
  00033	55		 push	 ebp
  00034	8b ce		 mov	 ecx, esi
  00036	e8 00 00 00 00	 call	 ?CheckBuf@CAr@@QAEXI@Z	; CAr::CheckBuf
  0003b	8b 56 08	 mov	 edx, DWORD PTR [esi+8]
  0003e	89 1a		 mov	 DWORD PTR [edx], ebx
  00040	01 6e 08	 add	 DWORD PTR [esi+8], ebp

; 723  : 		if( m_tUpkeepTime > 0 )

  00043	8b 47 1c	 mov	 eax, DWORD PTR [edi+28]
  00046	85 c0		 test	 eax, eax
  00048	7e 1e		 jle	 SHORT $L192258

; 724  : 			ar << m_tUpkeepTime - time_null();

  0004a	6a 00		 push	 0
  0004c	e8 00 00 00 00	 call	 _time
  00051	8b 5f 1c	 mov	 ebx, DWORD PTR [edi+28]
  00054	83 c4 04	 add	 esp, 4
  00057	55		 push	 ebp
  00058	8b ce		 mov	 ecx, esi
  0005a	2b d8		 sub	 ebx, eax
  0005c	e8 00 00 00 00	 call	 ?CheckBuf@CAr@@QAEXI@Z	; CAr::CheckBuf
  00061	8b 46 08	 mov	 eax, DWORD PTR [esi+8]
  00064	89 18		 mov	 DWORD PTR [eax], ebx

; 725  : 		else

  00066	eb 11		 jmp	 SHORT $L202680
$L192258:

; 726  : 			ar << static_cast<time_t>( 0 );

  00068	55		 push	 ebp
  00069	8b ce		 mov	 ecx, esi
  0006b	e8 00 00 00 00	 call	 ?CheckBuf@CAr@@QAEXI@Z	; CAr::CheckBuf
  00070	8b 4e 08	 mov	 ecx, DWORD PTR [esi+8]
  00073	c7 01 00 00 00
	00		 mov	 DWORD PTR [ecx], 0
$L202680:
  00079	01 6e 08	 add	 DWORD PTR [esi+8], ebp

; 727  : #ifdef __GUILD_HOUSE_MIDDLE
; 728  : 		ar << m_objGHId << m_nAreaIndex << m_nGHLevel;
; 729  : 		ar.WriteString( m_szGHName );
; 730  : #endif // __GUILD_HOUSE_MIDDLE
; 731  : 		ar << m_vecFntInfo.size();

  0007c	8b 47 10	 mov	 eax, DWORD PTR [edi+16]
  0007f	85 c0		 test	 eax, eax
  00081	75 04		 jne	 SHORT $L202493
  00083	33 db		 xor	 ebx, ebx
  00085	eb 16		 jmp	 SHORT $L202494
$L202493:
  00087	8b 4f 14	 mov	 ecx, DWORD PTR [edi+20]
  0008a	2b c8		 sub	 ecx, eax
  0008c	b8 39 8e e3 38	 mov	 eax, 954437177		; 38e38e39H
  00091	f7 e9		 imul	 ecx
  00093	c1 fa 03	 sar	 edx, 3
  00096	8b da		 mov	 ebx, edx
  00098	c1 eb 1f	 shr	 ebx, 31			; 0000001fH
  0009b	03 da		 add	 ebx, edx
$L202494:
  0009d	55		 push	 ebp
  0009e	8b ce		 mov	 ecx, esi
  000a0	e8 00 00 00 00	 call	 ?CheckBuf@CAr@@QAEXI@Z	; CAr::CheckBuf
  000a5	8b 56 08	 mov	 edx, DWORD PTR [esi+8]
  000a8	89 1a		 mov	 DWORD PTR [edx], ebx
  000aa	8b 46 08	 mov	 eax, DWORD PTR [esi+8]
  000ad	03 c5		 add	 eax, ebp

; 732  : 		for( int i=0; i<(int)( m_vecFntInfo.size() ); i++ )

  000af	33 ed		 xor	 ebp, ebp
  000b1	89 46 08	 mov	 DWORD PTR [esi+8], eax
  000b4	33 db		 xor	 ebx, ebx
$L192263:
  000b6	8b 47 10	 mov	 eax, DWORD PTR [edi+16]
  000b9	85 c0		 test	 eax, eax
  000bb	74 16		 je	 SHORT $L202511
$L202510:
  000bd	8b 4f 14	 mov	 ecx, DWORD PTR [edi+20]
  000c0	2b c8		 sub	 ecx, eax
  000c2	b8 39 8e e3 38	 mov	 eax, 954437177		; 38e38e39H
  000c7	f7 e9		 imul	 ecx
  000c9	c1 fa 03	 sar	 edx, 3
  000cc	8b c2		 mov	 eax, edx
  000ce	c1 e8 1f	 shr	 eax, 31			; 0000001fH
  000d1	03 c2		 add	 eax, edx
$L202511:
  000d3	3b e8		 cmp	 ebp, eax
  000d5	0f 8d e6 00 00
	00		 jge	 $L192272

; 733  : 			m_vecFntInfo[i].Serialize( ar );

  000db	8b 4f 10	 mov	 ecx, DWORD PTR [edi+16]
  000de	03 cb		 add	 ecx, ebx
  000e0	56		 push	 esi
  000e1	e8 00 00 00 00	 call	 ?Serialize@GuildHouse_Furniture_Info@CGuildHouseBase@@QAEXAAVCAr@@@Z ; CGuildHouseBase::GuildHouse_Furniture_Info::Serialize
  000e6	45		 inc	 ebp
  000e7	83 c3 24	 add	 ebx, 36			; 00000024H
  000ea	eb ca		 jmp	 SHORT $L192263
$L192257:

; 734  : 	}
; 735  : 	else
; 736  : 	{
; 737  : 		ar >> m_dwGuildId >> m_dwWorldId >> m_tUpkeepTime;

  000ec	8b 46 08	 mov	 eax, DWORD PTR [esi+8]
  000ef	8b 56 0c	 mov	 edx, DWORD PTR [esi+12]
  000f2	8d 48 04	 lea	 ecx, DWORD PTR [eax+4]
  000f5	3b ca		 cmp	 ecx, edx
  000f7	77 0e		 ja	 SHORT $L202570
  000f9	8b 10		 mov	 edx, DWORD PTR [eax]
  000fb	89 57 04	 mov	 DWORD PTR [edi+4], edx
  000fe	8b 46 08	 mov	 eax, DWORD PTR [esi+8]
  00101	03 c5		 add	 eax, ebp
  00103	33 db		 xor	 ebx, ebx
  00105	eb 08		 jmp	 SHORT $L202681
$L202570:
  00107	33 db		 xor	 ebx, ebx
  00109	89 5f 04	 mov	 DWORD PTR [edi+4], ebx
  0010c	8b 46 0c	 mov	 eax, DWORD PTR [esi+12]
$L202681:
  0010f	8b 56 0c	 mov	 edx, DWORD PTR [esi+12]
  00112	8d 48 04	 lea	 ecx, DWORD PTR [eax+4]
  00115	3b ca		 cmp	 ecx, edx
  00117	89 46 08	 mov	 DWORD PTR [esi+8], eax
  0011a	77 0c		 ja	 SHORT $L202576
  0011c	8b 10		 mov	 edx, DWORD PTR [eax]
  0011e	89 57 08	 mov	 DWORD PTR [edi+8], edx
  00121	8b 46 08	 mov	 eax, DWORD PTR [esi+8]
  00124	03 c5		 add	 eax, ebp
  00126	eb 06		 jmp	 SHORT $L202682
$L202576:
  00128	89 5f 08	 mov	 DWORD PTR [edi+8], ebx
  0012b	8b 46 0c	 mov	 eax, DWORD PTR [esi+12]
$L202682:
  0012e	8b 56 0c	 mov	 edx, DWORD PTR [esi+12]
  00131	8d 48 04	 lea	 ecx, DWORD PTR [eax+4]
  00134	3b ca		 cmp	 ecx, edx
  00136	89 46 08	 mov	 DWORD PTR [esi+8], eax
  00139	77 0c		 ja	 SHORT $L202582
  0013b	8b 10		 mov	 edx, DWORD PTR [eax]
  0013d	89 57 1c	 mov	 DWORD PTR [edi+28], edx
  00140	8b 46 08	 mov	 eax, DWORD PTR [esi+8]
  00143	03 c5		 add	 eax, ebp
  00145	eb 06		 jmp	 SHORT $L202683
$L202582:
  00147	89 5f 1c	 mov	 DWORD PTR [edi+28], ebx
  0014a	8b 46 0c	 mov	 eax, DWORD PTR [esi+12]
$L202683:
  0014d	89 46 08	 mov	 DWORD PTR [esi+8], eax

; 738  : 		if( m_tUpkeepTime > 0 )

  00150	39 5f 1c	 cmp	 DWORD PTR [edi+28], ebx
  00153	7e 11		 jle	 SHORT $L192267

; 739  : 			m_tUpkeepTime += time_null();

  00155	53		 push	 ebx
  00156	e8 00 00 00 00	 call	 _time
  0015b	8b 4f 1c	 mov	 ecx, DWORD PTR [edi+28]
  0015e	83 c4 04	 add	 esp, 4
  00161	03 c8		 add	 ecx, eax
  00163	89 4f 1c	 mov	 DWORD PTR [edi+28], ecx
$L192267:

; 740  : #ifdef __GUILD_HOUSE_MIDDLE
; 741  : 		ar >> m_objGHId >> m_nAreaIndex >> m_nGHLevel;
; 742  : 		ar.ReadString( m_szGHName, MAX_GH_NAME );
; 743  : #endif // __GUILD_HOUSE_MIDDLE
; 744  : 		int nSize;
; 745  : 		ar >> nSize;

  00166	8b 46 08	 mov	 eax, DWORD PTR [esi+8]
  00169	8b 56 0c	 mov	 edx, DWORD PTR [esi+12]
  0016c	8d 48 04	 lea	 ecx, DWORD PTR [eax+4]
  0016f	3b ca		 cmp	 ecx, edx
  00171	77 07		 ja	 SHORT $L202599
  00173	8b 28		 mov	 ebp, DWORD PTR [eax]
  00175	89 4e 08	 mov	 DWORD PTR [esi+8], ecx
  00178	eb 05		 jmp	 SHORT $L202600
$L202599:
  0017a	33 ed		 xor	 ebp, ebp
  0017c	89 56 08	 mov	 DWORD PTR [esi+8], edx
$L202600:

; 746  : 		m_vecFntInfo.clear(); m_vecFntInfo.resize( nSize );

  0017f	8b 47 10	 mov	 eax, DWORD PTR [edi+16]
  00182	8d 5f 0c	 lea	 ebx, DWORD PTR [edi+12]
  00185	33 c9		 xor	 ecx, ecx
  00187	3b c1		 cmp	 eax, ecx
  00189	74 0b		 je	 SHORT $L202619
  0018b	50		 push	 eax
  0018c	e8 00 00 00 00	 call	 ??3@YAXPAX@Z		; operator delete
  00191	83 c4 04	 add	 esp, 4
  00194	33 c9		 xor	 ecx, ecx
$L202619:
  00196	89 4b 04	 mov	 DWORD PTR [ebx+4], ecx
  00199	89 4b 08	 mov	 DWORD PTR [ebx+8], ecx
  0019c	89 4b 0c	 mov	 DWORD PTR [ebx+12], ecx
  0019f	55		 push	 ebp
  001a0	8b cb		 mov	 ecx, ebx
  001a2	e8 00 00 00 00	 call	 ?resize@?$vector@UGuildHouse_Furniture_Info@CGuildHouseBase@@V?$allocator@UGuildHouse_Furniture_Info@CGuildHouseBase@@@std@@@std@@QAEXI@Z ; std::vector<CGuildHouseBase::GuildHouse_Furniture_Info,std::allocator<CGuildHouseBase::GuildHouse_Furniture_Info> >::resize

; 747  : 		for( int i=0; i<nSize; i++ )

  001a7	85 ed		 test	 ebp, ebp
  001a9	7e 16		 jle	 SHORT $L192272

; 746  : 		m_vecFntInfo.clear(); m_vecFntInfo.resize( nSize );

  001ab	33 db		 xor	 ebx, ebx
  001ad	8d 49 00	 npad	 3
$L192270:

; 748  : 			m_vecFntInfo[i].Serialize( ar );

  001b0	8b 4f 10	 mov	 ecx, DWORD PTR [edi+16]
  001b3	03 cb		 add	 ecx, ebx
  001b5	56		 push	 esi
  001b6	e8 00 00 00 00	 call	 ?Serialize@GuildHouse_Furniture_Info@CGuildHouseBase@@QAEXAAVCAr@@@Z ; CGuildHouseBase::GuildHouse_Furniture_Info::Serialize
  001bb	83 c3 24	 add	 ebx, 36			; 00000024H
  001be	4d		 dec	 ebp
  001bf	75 ef		 jne	 SHORT $L192270
$L192272:
  001c1	5f		 pop	 edi
  001c2	5e		 pop	 esi
  001c3	5d		 pop	 ebp
  001c4	5b		 pop	 ebx

; 749  : 	}
; 750  : }

  001c5	c2 04 00	 ret	 4
?SerializeAllInfo@CGuildHouseBase@@QAEXAAVCAr@@@Z ENDP	; CGuildHouseBase::SerializeAllInfo
_TEXT	ENDS
PUBLIC	?ListUpFurniture@CGuildHouseBase@@AAEHAAUGuildHouse_Furniture_Info@1@@Z ; CGuildHouseBase::ListUpFurniture
; Function compile flags: /Ogty
;	COMDAT ?ListUpFurniture@CGuildHouseBase@@AAEHAAUGuildHouse_Furniture_Info@1@@Z
_TEXT	SEGMENT
_gfi$ = 8						; size = 4
?ListUpFurniture@CGuildHouseBase@@AAEHAAUGuildHouse_Furniture_Info@1@@Z PROC NEAR ; CGuildHouseBase::ListUpFurniture, COMDAT
; _this$ = ecx

; 831  : 	m_vecFntInfo.push_back( gfi );

  00000	8b 44 24 04	 mov	 eax, DWORD PTR _gfi$[esp-4]
  00004	50		 push	 eax
  00005	83 c1 0c	 add	 ecx, 12			; 0000000cH
  00008	e8 00 00 00 00	 call	 ?push_back@?$vector@UGuildHouse_Furniture_Info@CGuildHouseBase@@V?$allocator@UGuildHouse_Furniture_Info@CGuildHouseBase@@@std@@@std@@QAEXABUGuildHouse_Furniture_Info@CGuildHouseBase@@@Z ; std::vector<CGuildHouseBase::GuildHouse_Furniture_Info,std::allocator<CGuildHouseBase::GuildHouse_Furniture_Info> >::push_back

; 832  : #ifdef __WORLDSERVER
; 833  : 	g_dpDBClient.SendLogGuildFurniture( m_dwGuildId, gfi, 'I' );
; 834  : #endif // __WORLDSERVER
; 835  : 	return TRUE;

  0000d	b8 01 00 00 00	 mov	 eax, 1

; 836  : }

  00012	c2 04 00	 ret	 4
?ListUpFurniture@CGuildHouseBase@@AAEHAAUGuildHouse_Furniture_Info@1@@Z ENDP ; CGuildHouseBase::ListUpFurniture
_TEXT	ENDS
PUBLIC	??0CGuildHouseMng@@QAE@XZ			; CGuildHouseMng::CGuildHouseMng
; Function compile flags: /Ogty
;	COMDAT ??0CGuildHouseMng@@QAE@XZ
_TEXT	SEGMENT
??0CGuildHouseMng@@QAE@XZ PROC NEAR			; CGuildHouseMng::CGuildHouseMng, COMDAT
; _this$ = ecx

; 1088 : {

  00000	56		 push	 esi
  00001	57		 push	 edi
  00002	8b f9		 mov	 edi, ecx
  00004	8d 77 04	 lea	 esi, DWORD PTR [edi+4]
  00007	8b ce		 mov	 ecx, esi
  00009	c7 07 00 00 00
	00		 mov	 DWORD PTR [edi], 0
  0000f	e8 00 00 00 00	 call	 ?_Buynode@?$_Tree@V?$_Tmap_traits@KPAVCGuildHouseBase@@U?$less@K@std@@V?$allocator@U?$pair@$$CBKPAVCGuildHouseBase@@@std@@@3@$0A@@std@@@std@@IAEPAU_Node@?$_Tree_nod@V?$_Tmap_traits@KPAVCGuildHouseBase@@U?$less@K@std@@V?$allocator@U?$pair@$$CBKPAVCGuildHouseBase@@@std@@@3@$0A@@std@@@2@XZ ; std::_Tree<std::_Tmap_traits<unsigned long,CGuildHouseBase *,std::less<unsigned long>,std::allocator<std::pair<unsigned long const ,CGuildHouseBase *> >,0> >::_Buynode
  00014	89 46 04	 mov	 DWORD PTR [esi+4], eax
  00017	c6 40 15 01	 mov	 BYTE PTR [eax+21], 1
  0001b	8b 46 04	 mov	 eax, DWORD PTR [esi+4]
  0001e	89 40 04	 mov	 DWORD PTR [eax+4], eax
  00021	8b 46 04	 mov	 eax, DWORD PTR [esi+4]
  00024	89 00		 mov	 DWORD PTR [eax], eax
  00026	8b 46 04	 mov	 eax, DWORD PTR [esi+4]
  00029	89 40 08	 mov	 DWORD PTR [eax+8], eax

; 1089 : }

  0002c	8b c7		 mov	 eax, edi
  0002e	5f		 pop	 edi
  0002f	c7 46 08 00 00
	00 00		 mov	 DWORD PTR [esi+8], 0
  00036	5e		 pop	 esi
  00037	c3		 ret	 0
??0CGuildHouseMng@@QAE@XZ ENDP				; CGuildHouseMng::CGuildHouseMng
_TEXT	ENDS
PUBLIC	?GetInstance@CGuildHouseMng@@SAPAV1@XZ		; CGuildHouseMng::GetInstance
EXTRN	_atexit:NEAR
;	COMDAT ?sGHM@?1??GetInstance@CGuildHouseMng@@SAPAV2@XZ@4V2@A
; File c:\program files\microsoft visual studio .net 2003\vc7\include\xtree
_BSS	SEGMENT
?sGHM@?1??GetInstance@CGuildHouseMng@@SAPAV2@XZ@4V2@A DB 010H DUP (?) ; `CGuildHouseMng::GetInstance'::`2'::sGHM
_BSS	ENDS
;	COMDAT ?$S1@?1??GetInstance@CGuildHouseMng@@SAPAV2@XZ@4IA
_BSS	SEGMENT
?$S1@?1??GetInstance@CGuildHouseMng@@SAPAV2@XZ@4IA DD 01H DUP (?) ; `CGuildHouseMng::GetInstance'::`2'::$S1
_BSS	ENDS
;	COMDAT xdata$x
xdata$x	SEGMENT
$T203175 DD	0ffffffffH
	DD	FLAT:$L202905
$T203172 DD	019930520H
	DD	01H
	DD	FLAT:$T203175
	DD	2 DUP(00H)
	DD	2 DUP(00H)
; Function compile flags: /Ogty
; File c:\documents and settings\test\mes documents\source\virtuos_v17\build\program\_common\guildhouse.cpp
xdata$x	ENDS
;	COMDAT ?GetInstance@CGuildHouseMng@@SAPAV1@XZ
_TEXT	SEGMENT
__$EHRec$ = -12						; size = 12
?GetInstance@CGuildHouseMng@@SAPAV1@XZ PROC NEAR	; CGuildHouseMng::GetInstance, COMDAT

; 1104 : {

  00000	64 a1 00 00 00
	00		 mov	 eax, DWORD PTR fs:__except_list
  00006	6a ff		 push	 -1
  00008	68 00 00 00 00	 push	 __ehhandler$?GetInstance@CGuildHouseMng@@SAPAV1@XZ
  0000d	50		 push	 eax

; 1105 : 	static CGuildHouseMng sGHM;

  0000e	f6 05 00 00 00
	00 01		 test	 BYTE PTR ?$S1@?1??GetInstance@CGuildHouseMng@@SAPAV2@XZ@4IA, 1
  00015	64 89 25 00 00
	00 00		 mov	 DWORD PTR fs:__except_list, esp
  0001c	75 5a		 jne	 SHORT $L203173
  0001e	83 0d 00 00 00
	00 01		 or	 DWORD PTR ?$S1@?1??GetInstance@CGuildHouseMng@@SAPAV2@XZ@4IA, 1
  00025	b9 04 00 00 00	 mov	 ecx, OFFSET FLAT:?sGHM@?1??GetInstance@CGuildHouseMng@@SAPAV2@XZ@4V2@A+4
  0002a	c7 44 24 08 00
	00 00 00	 mov	 DWORD PTR __$EHRec$[esp+20], 0
  00032	c7 05 00 00 00
	00 00 00 00 00	 mov	 DWORD PTR ?sGHM@?1??GetInstance@CGuildHouseMng@@SAPAV2@XZ@4V2@A, 0
  0003c	e8 00 00 00 00	 call	 ?_Buynode@?$_Tree@V?$_Tmap_traits@KPAVCGuildHouseBase@@U?$less@K@std@@V?$allocator@U?$pair@$$CBKPAVCGuildHouseBase@@@std@@@3@$0A@@std@@@std@@IAEPAU_Node@?$_Tree_nod@V?$_Tmap_traits@KPAVCGuildHouseBase@@U?$less@K@std@@V?$allocator@U?$pair@$$CBKPAVCGuildHouseBase@@@std@@@3@$0A@@std@@@2@XZ ; std::_Tree<std::_Tmap_traits<unsigned long,CGuildHouseBase *,std::less<unsigned long>,std::allocator<std::pair<unsigned long const ,CGuildHouseBase *> >,0> >::_Buynode
  00041	a3 08 00 00 00	 mov	 DWORD PTR ?sGHM@?1??GetInstance@CGuildHouseMng@@SAPAV2@XZ@4V2@A+8, eax
  00046	c6 40 15 01	 mov	 BYTE PTR [eax+21], 1
  0004a	a1 08 00 00 00	 mov	 eax, DWORD PTR ?sGHM@?1??GetInstance@CGuildHouseMng@@SAPAV2@XZ@4V2@A+8
  0004f	89 40 04	 mov	 DWORD PTR [eax+4], eax
  00052	a1 08 00 00 00	 mov	 eax, DWORD PTR ?sGHM@?1??GetInstance@CGuildHouseMng@@SAPAV2@XZ@4V2@A+8
  00057	89 00		 mov	 DWORD PTR [eax], eax
  00059	a1 08 00 00 00	 mov	 eax, DWORD PTR ?sGHM@?1??GetInstance@CGuildHouseMng@@SAPAV2@XZ@4V2@A+8
  0005e	89 40 08	 mov	 DWORD PTR [eax+8], eax
  00061	68 00 00 00 00	 push	 OFFSET FLAT:_$E2
  00066	c7 05 0c 00 00
	00 00 00 00 00	 mov	 DWORD PTR ?sGHM@?1??GetInstance@CGuildHouseMng@@SAPAV2@XZ@4V2@A+12, 0
  00070	e8 00 00 00 00	 call	 _atexit
  00075	83 c4 04	 add	 esp, 4
$L203173:

; 1106 : 	return & sGHM;
; 1107 : }

  00078	8b 0c 24	 mov	 ecx, DWORD PTR __$EHRec$[esp+12]
  0007b	b8 00 00 00 00	 mov	 eax, OFFSET FLAT:?sGHM@?1??GetInstance@CGuildHouseMng@@SAPAV2@XZ@4V2@A
  00080	64 89 0d 00 00
	00 00		 mov	 DWORD PTR fs:__except_list, ecx
  00087	83 c4 0c	 add	 esp, 12			; 0000000cH
  0008a	c3		 ret	 0
_TEXT	ENDS
;	COMDAT text$x
text$x	SEGMENT
$L202905:
  00000	a1 00 00 00 00	 mov	 eax, DWORD PTR ?$S1@?1??GetInstance@CGuildHouseMng@@SAPAV2@XZ@4IA
  00005	83 e0 fe	 and	 eax, -2			; fffffffeH
  00008	a3 00 00 00 00	 mov	 DWORD PTR ?$S1@?1??GetInstance@CGuildHouseMng@@SAPAV2@XZ@4IA, eax
  0000d	c3		 ret	 0
__ehhandler$?GetInstance@CGuildHouseMng@@SAPAV1@XZ:
  0000e	b8 00 00 00 00	 mov	 eax, OFFSET FLAT:$T203172
  00013	e9 00 00 00 00	 jmp	 ___CxxFrameHandler
text$x	ENDS
?GetInstance@CGuildHouseMng@@SAPAV1@XZ ENDP		; CGuildHouseMng::GetInstance
PUBLIC	?Serialize@CGuildHouseMng@@QAEXAAVCAr@@@Z	; CGuildHouseMng::Serialize
;	COMDAT xdata$x
; File c:\program files\microsoft visual studio .net 2003\vc7\include\xmemory
xdata$x	SEGMENT
$T203708 DD	0ffffffffH
	DD	FLAT:$L203186
$T203701 DD	019930520H
	DD	01H
	DD	FLAT:$T203708
	DD	2 DUP(00H)
	DD	2 DUP(00H)
; Function compile flags: /Ogty
; File c:\documents and settings\test\mes documents\source\virtuos_v17\build\program\_common\guildhouse.cpp
xdata$x	ENDS
;	COMDAT ?Serialize@CGuildHouseMng@@QAEXAAVCAr@@@Z
_TEXT	SEGMENT
_this$ = -64						; size = 4
$T203450 = -60						; size = 8
$T203452 = -52						; size = 8
_temp$192575 = -44					; size = 32
__$EHRec$ = -12						; size = 12
tv328 = 8						; size = 4
_it$192553 = 8						; size = 4
_ar$ = 8						; size = 4
?Serialize@CGuildHouseMng@@QAEXAAVCAr@@@Z PROC NEAR	; CGuildHouseMng::Serialize, COMDAT
; _this$ = ecx

; 1142 : {

  00000	6a ff		 push	 -1
  00002	68 00 00 00 00	 push	 __ehhandler$?Serialize@CGuildHouseMng@@QAEXAAVCAr@@@Z
  00007	64 a1 00 00 00
	00		 mov	 eax, DWORD PTR fs:__except_list
  0000d	50		 push	 eax
  0000e	64 89 25 00 00
	00 00		 mov	 DWORD PTR fs:__except_list, esp
  00015	83 ec 34	 sub	 esp, 52			; 00000034H
  00018	53		 push	 ebx
  00019	55		 push	 ebp
  0001a	56		 push	 esi

; 1143 : 	if( ar.IsStoring() )

  0001b	8b 74 24 50	 mov	 esi, DWORD PTR _ar$[esp+72]
  0001f	33 c0		 xor	 eax, eax
  00021	8a 06		 mov	 al, BYTE PTR [esi]
  00023	8b e9		 mov	 ebp, ecx
  00025	57		 push	 edi
  00026	89 6c 24 10	 mov	 DWORD PTR _this$[esp+80], ebp
  0002a	f7 d0		 not	 eax
  0002c	a8 01		 test	 al, 1
  0002e	0f 84 94 00 00
	00		 je	 $L192552

; 1144 : 	{
; 1145 : 		ar << m_mapGuildHouse.size();

  00034	8b 7d 0c	 mov	 edi, DWORD PTR [ebp+12]
  00037	6a 04		 push	 4
  00039	8b ce		 mov	 ecx, esi
  0003b	e8 00 00 00 00	 call	 ?CheckBuf@CAr@@QAEXI@Z	; CAr::CheckBuf
  00040	8b 4e 08	 mov	 ecx, DWORD PTR [esi+8]
  00043	89 39		 mov	 DWORD PTR [ecx], edi
  00045	83 46 08 04	 add	 DWORD PTR [esi+8], 4

; 1146 : 		for( MapGuildHouse::iterator it=m_mapGuildHouse.begin(); it!=m_mapGuildHouse.end(); it++ )

  00049	8b 6d 08	 mov	 ebp, DWORD PTR [ebp+8]
  0004c	8b 7d 00	 mov	 edi, DWORD PTR [ebp]
  0004f	3b fd		 cmp	 edi, ebp
  00051	89 7c 24 54	 mov	 DWORD PTR _it$192553[esp+76], edi
  00055	0f 84 99 01 00
	00		 je	 $L192567
  0005b	eb 03 8d 49 00	 npad	 5
$L203240:

; 1147 : 		{
; 1148 : 			ar << it->first << it->second->GetType();

  00060	8b 57 10	 mov	 edx, DWORD PTR [edi+16]
  00063	8b 6a 08	 mov	 ebp, DWORD PTR [edx+8]
  00066	8b 5f 0c	 mov	 ebx, DWORD PTR [edi+12]
  00069	6a 04		 push	 4
  0006b	8b ce		 mov	 ecx, esi
  0006d	e8 00 00 00 00	 call	 ?CheckBuf@CAr@@QAEXI@Z	; CAr::CheckBuf
  00072	8b 46 08	 mov	 eax, DWORD PTR [esi+8]
  00075	89 18		 mov	 DWORD PTR [eax], ebx
  00077	8b 4e 08	 mov	 ecx, DWORD PTR [esi+8]
  0007a	bb 04 00 00 00	 mov	 ebx, 4
  0007f	03 cb		 add	 ecx, ebx
  00081	89 4e 08	 mov	 DWORD PTR [esi+8], ecx
  00084	53		 push	 ebx
  00085	8b ce		 mov	 ecx, esi
  00087	e8 00 00 00 00	 call	 ?CheckBuf@CAr@@QAEXI@Z	; CAr::CheckBuf
  0008c	8b 4e 08	 mov	 ecx, DWORD PTR [esi+8]
  0008f	89 29		 mov	 DWORD PTR [ecx], ebp
  00091	01 5e 08	 add	 DWORD PTR [esi+8], ebx

; 1149 : 			it->second->SerializeAllInfo( ar );

  00094	8b 4f 10	 mov	 ecx, DWORD PTR [edi+16]
  00097	56		 push	 esi
  00098	e8 00 00 00 00	 call	 ?SerializeAllInfo@CGuildHouseBase@@QAEXAAVCAr@@@Z ; CGuildHouseBase::SerializeAllInfo
  0009d	8d 4c 24 54	 lea	 ecx, DWORD PTR _it$192553[esp+76]
  000a1	e8 00 00 00 00	 call	 ?_Inc@const_iterator@?$_Tree@V?$_Tmap_traits@KPAVCGuildHouseBase@@U?$less@K@std@@V?$allocator@U?$pair@$$CBKPAVCGuildHouseBase@@@std@@@3@$0A@@std@@@std@@QAEXXZ ; std::_Tree<std::_Tmap_traits<unsigned long,CGuildHouseBase *,std::less<unsigned long>,std::allocator<std::pair<unsigned long const ,CGuildHouseBase *> >,0> >::const_iterator::_Inc
  000a6	8b 54 24 10	 mov	 edx, DWORD PTR _this$[esp+80]
  000aa	8b 7c 24 54	 mov	 edi, DWORD PTR _it$192553[esp+76]
  000ae	3b 7a 08	 cmp	 edi, DWORD PTR [edx+8]
  000b1	75 ad		 jne	 SHORT $L203240
  000b3	5f		 pop	 edi
  000b4	5e		 pop	 esi
  000b5	5d		 pop	 ebp
  000b6	5b		 pop	 ebx

; 1179 : 		}
; 1180 : #ifdef __GUILD_HOUSE_MIDDLE
; 1181 : 		m_mapTenderGuild.clear();
; 1182 : 		int nTenderSize;
; 1183 : 		DWORD dwTenderGuildId;
; 1184 : 		ar >> nTenderSize;
; 1185 : 		for( int i = 0; i < nTenderSize; ++i )
; 1186 : 		{
; 1187 : 			GUILDHOUSE_TENDER GHT;
; 1188 : 			ar >> dwTenderGuildId;
; 1189 : 			GHT.Serialize( ar );
; 1190 : 			m_mapTenderGuild.insert( MAP_TENDER_GUILD::value_type( dwTenderGuildId, GHT ) );
; 1191 : 		}
; 1192 : #endif // __GUILD_HOUSE_MIDDLE
; 1193 : 	}
; 1194 : }

  000b7	8b 4c 24 34	 mov	 ecx, DWORD PTR __$EHRec$[esp+64]
  000bb	64 89 0d 00 00
	00 00		 mov	 DWORD PTR fs:__except_list, ecx
  000c2	83 c4 40	 add	 esp, 64			; 00000040H
  000c5	c2 04 00	 ret	 4
$L192552:

; 1150 : 		}
; 1151 : #ifdef __GUILD_HOUSE_MIDDLE
; 1152 : 		ar << m_mapTenderGuild.size();
; 1153 : 		for( MAP_TENDER_GUILD::iterator it = m_mapTenderGuild.begin(); it != m_mapTenderGuild.end(); ++it )
; 1154 : 		{
; 1155 : 			ar << it->first;
; 1156 : 			it->second.Serialize( ar );
; 1157 : 		}
; 1158 : #endif // __GUILD_HOUSE_MIDDLE
; 1159 : 	}
; 1160 : 	else
; 1161 : 	{
; 1162 : 		m_mapGuildHouse.clear();

  000c8	8b 45 08	 mov	 eax, DWORD PTR [ebp+8]
  000cb	8b 48 04	 mov	 ecx, DWORD PTR [eax+4]
  000ce	83 c5 04	 add	 ebp, 4
  000d1	51		 push	 ecx
  000d2	8b cd		 mov	 ecx, ebp
  000d4	e8 00 00 00 00	 call	 ?_Erase@?$_Tree@V?$_Tmap_traits@KPAVCGuildHouseBase@@U?$less@K@std@@V?$allocator@U?$pair@$$CBKPAVCGuildHouseBase@@@std@@@3@$0A@@std@@@std@@IAEXPAU_Node@?$_Tree_nod@V?$_Tmap_traits@KPAVCGuildHouseBase@@U?$less@K@std@@V?$allocator@U?$pair@$$CBKPAVCGuildHouseBase@@@std@@@3@$0A@@std@@@2@@Z ; std::_Tree<std::_Tmap_traits<unsigned long,CGuildHouseBase *,std::less<unsigned long>,std::allocator<std::pair<unsigned long const ,CGuildHouseBase *> >,0> >::_Erase
  000d9	8b 45 04	 mov	 eax, DWORD PTR [ebp+4]
  000dc	89 40 04	 mov	 DWORD PTR [eax+4], eax
  000df	8b 45 04	 mov	 eax, DWORD PTR [ebp+4]
  000e2	c7 45 08 00 00
	00 00		 mov	 DWORD PTR [ebp+8], 0
  000e9	89 00		 mov	 DWORD PTR [eax], eax
  000eb	8b 45 04	 mov	 eax, DWORD PTR [ebp+4]
  000ee	89 40 08	 mov	 DWORD PTR [eax+8], eax

; 1163 : 		int nSize;
; 1164 : 		DWORD dwGuildId, dwType;
; 1165 : 		ar >> nSize;

  000f1	8b 46 08	 mov	 eax, DWORD PTR [esi+8]
  000f4	8b 56 0c	 mov	 edx, DWORD PTR [esi+12]
  000f7	8d 48 04	 lea	 ecx, DWORD PTR [eax+4]
  000fa	3b ca		 cmp	 ecx, edx
  000fc	77 07		 ja	 SHORT $L203418
  000fe	8b 00		 mov	 eax, DWORD PTR [eax]
  00100	89 4e 08	 mov	 DWORD PTR [esi+8], ecx
  00103	eb 05		 jmp	 SHORT $L203419
$L203418:
  00105	33 c0		 xor	 eax, eax
  00107	89 56 08	 mov	 DWORD PTR [esi+8], edx
$L203419:

; 1166 : 		for( int i=0; i<nSize; i++ )

  0010a	85 c0		 test	 eax, eax
  0010c	0f 8e e2 00 00
	00		 jle	 $L192567
  00112	89 44 24 54	 mov	 DWORD PTR tv328[esp+76], eax
$L203706:

; 1167 : 		{
; 1168 : 			ar >> dwGuildId >> dwType;

  00116	8b 4e 08	 mov	 ecx, DWORD PTR [esi+8]
  00119	8b 46 0c	 mov	 eax, DWORD PTR [esi+12]
  0011c	8d 51 04	 lea	 edx, DWORD PTR [ecx+4]
  0011f	3b d0		 cmp	 edx, eax
  00121	77 07		 ja	 SHORT $L203423
  00123	8b 19		 mov	 ebx, DWORD PTR [ecx]
  00125	89 56 08	 mov	 DWORD PTR [esi+8], edx
  00128	eb 05		 jmp	 SHORT $L203424
$L203423:
  0012a	33 db		 xor	 ebx, ebx
  0012c	89 46 08	 mov	 DWORD PTR [esi+8], eax
$L203424:
  0012f	8b 4e 08	 mov	 ecx, DWORD PTR [esi+8]
  00132	8d 51 04	 lea	 edx, DWORD PTR [ecx+4]
  00135	3b d0		 cmp	 edx, eax
  00137	77 07		 ja	 SHORT $L203428
  00139	8b 09		 mov	 ecx, DWORD PTR [ecx]
  0013b	89 56 08	 mov	 DWORD PTR [esi+8], edx
  0013e	eb 05		 jmp	 SHORT $L203429
$L203428:
  00140	33 c9		 xor	 ecx, ecx
  00142	89 46 08	 mov	 DWORD PTR [esi+8], eax
$L203429:

; 1169 : 			CGuildHouseBase* pGuildHouse = MakeGuildHouse( dwGuildId, dwType );

  00145	51		 push	 ecx
  00146	8b 4c 24 14	 mov	 ecx, DWORD PTR _this$[esp+84]
  0014a	53		 push	 ebx
  0014b	e8 00 00 00 00	 call	 ?MakeGuildHouse@CGuildHouseMng@@QAEPAVCGuildHouseBase@@KK@Z ; CGuildHouseMng::MakeGuildHouse
  00150	8b f8		 mov	 edi, eax

; 1170 : 			
; 1171 : 			if( pGuildHouse && AddGuildHouse( dwGuildId, pGuildHouse ) )

  00152	33 c0		 xor	 eax, eax
  00154	3b f8		 cmp	 edi, eax
  00156	74 32		 je	 SHORT $L203184
  00158	8d 54 24 14	 lea	 edx, DWORD PTR $T203450[esp+80]
  0015c	52		 push	 edx
  0015d	8d 44 24 20	 lea	 eax, DWORD PTR $T203452[esp+84]
  00161	50		 push	 eax
  00162	8b cd		 mov	 ecx, ebp
  00164	89 5c 24 1c	 mov	 DWORD PTR $T203450[esp+88], ebx
  00168	89 7c 24 20	 mov	 DWORD PTR $T203450[esp+92], edi
  0016c	e8 00 00 00 00	 call	 ?insert@?$_Tree@V?$_Tmap_traits@KPAVCGuildHouseBase@@U?$less@K@std@@V?$allocator@U?$pair@$$CBKPAVCGuildHouseBase@@@std@@@3@$0A@@std@@@std@@QAE?AU?$pair@Viterator@?$_Tree@V?$_Tmap_traits@KPAVCGuildHouseBase@@U?$less@K@std@@V?$allocator@U?$pair@$$CBKPAVCGuildHouseBase@@@std@@@3@$0A@@std@@@std@@_N@2@ABU?$pair@$$CBKPAVCGuildHouseBase@@@2@@Z ; std::_Tree<std::_Tmap_traits<unsigned long,CGuildHouseBase *,std::less<unsigned long>,std::allocator<std::pair<unsigned long const ,CGuildHouseBase *> >,0> >::insert
  00171	8a 48 04	 mov	 cl, BYTE PTR [eax+4]
  00174	84 c9		 test	 cl, cl

; 1172 : 				pGuildHouse->SerializeAllInfo( ar );

  00176	8b cf		 mov	 ecx, edi
  00178	74 08		 je	 SHORT $L192569
  0017a	56		 push	 esi
  0017b	e8 00 00 00 00	 call	 ?SerializeAllInfo@CGuildHouseBase@@QAEXAAVCAr@@@Z ; CGuildHouseBase::SerializeAllInfo

; 1173 : 			else

  00180	eb 68		 jmp	 SHORT $L192566
$L192569:

; 1174 : 			{
; 1175 : 				SAFE_DELETE( pGuildHouse );

  00182	8b 17		 mov	 edx, DWORD PTR [edi]
  00184	6a 01		 push	 1
  00186	ff 12		 call	 DWORD PTR [edx]
  00188	33 c0		 xor	 eax, eax
$L203184:

; 1176 : 				CGuildHouseSmall temp( NULL_ID );

  0018a	83 cf ff	 or	 edi, -1
  0018d	89 7c 24 28	 mov	 DWORD PTR _temp$192575[esp+84], edi
  00191	c7 44 24 2c d4
	00 00 00	 mov	 DWORD PTR _temp$192575[esp+88], 212 ; 000000d4H
  00199	89 44 24 34	 mov	 DWORD PTR _temp$192575[esp+96], eax
  0019d	89 44 24 38	 mov	 DWORD PTR _temp$192575[esp+100], eax
  001a1	89 44 24 3c	 mov	 DWORD PTR _temp$192575[esp+104], eax
  001a5	89 44 24 40	 mov	 DWORD PTR _temp$192575[esp+108], eax
  001a9	c7 44 24 24 00
	00 00 00	 mov	 DWORD PTR _temp$192575[esp+80], OFFSET FLAT:??_7CGuildHouseSmall@@6B@

; 1177 : 				temp.SerializeAllInfo( ar );

  001b1	56		 push	 esi
  001b2	8d 4c 24 28	 lea	 ecx, DWORD PTR _temp$192575[esp+84]
  001b6	89 44 24 50	 mov	 DWORD PTR __$EHRec$[esp+92], eax
  001ba	e8 00 00 00 00	 call	 ?SerializeAllInfo@CGuildHouseBase@@QAEXAAVCAr@@@Z ; CGuildHouseBase::SerializeAllInfo

; 1178 : 			}

  001bf	8b 44 24 34	 mov	 eax, DWORD PTR _temp$192575[esp+96]
  001c3	89 7c 24 4c	 mov	 DWORD PTR __$EHRec$[esp+88], edi
  001c7	33 ff		 xor	 edi, edi
  001c9	3b c7		 cmp	 eax, edi
  001cb	c7 44 24 24 00
	00 00 00	 mov	 DWORD PTR _temp$192575[esp+80], OFFSET FLAT:??_7CGuildHouseBase@@6B@
  001d3	74 09		 je	 SHORT $L203690
  001d5	50		 push	 eax
  001d6	e8 00 00 00 00	 call	 ??3@YAXPAX@Z		; operator delete
  001db	83 c4 04	 add	 esp, 4
$L203690:
  001de	89 7c 24 34	 mov	 DWORD PTR _temp$192575[esp+96], edi
  001e2	89 7c 24 38	 mov	 DWORD PTR _temp$192575[esp+100], edi
  001e6	89 7c 24 3c	 mov	 DWORD PTR _temp$192575[esp+104], edi
$L192566:
  001ea	ff 4c 24 54	 dec	 DWORD PTR tv328[esp+76]
  001ee	0f 85 22 ff ff
	ff		 jne	 $L203706
$L192567:

; 1179 : 		}
; 1180 : #ifdef __GUILD_HOUSE_MIDDLE
; 1181 : 		m_mapTenderGuild.clear();
; 1182 : 		int nTenderSize;
; 1183 : 		DWORD dwTenderGuildId;
; 1184 : 		ar >> nTenderSize;
; 1185 : 		for( int i = 0; i < nTenderSize; ++i )
; 1186 : 		{
; 1187 : 			GUILDHOUSE_TENDER GHT;
; 1188 : 			ar >> dwTenderGuildId;
; 1189 : 			GHT.Serialize( ar );
; 1190 : 			m_mapTenderGuild.insert( MAP_TENDER_GUILD::value_type( dwTenderGuildId, GHT ) );
; 1191 : 		}
; 1192 : #endif // __GUILD_HOUSE_MIDDLE
; 1193 : 	}
; 1194 : }

  001f4	8b 4c 24 44	 mov	 ecx, DWORD PTR __$EHRec$[esp+80]
  001f8	5f		 pop	 edi
  001f9	5e		 pop	 esi
  001fa	5d		 pop	 ebp
  001fb	5b		 pop	 ebx
  001fc	64 89 0d 00 00
	00 00		 mov	 DWORD PTR fs:__except_list, ecx
  00203	83 c4 40	 add	 esp, 64			; 00000040H
  00206	c2 04 00	 ret	 4
_TEXT	ENDS
;	COMDAT text$x
text$x	SEGMENT
$L203186:
  00000	8d 4d d4	 lea	 ecx, DWORD PTR _temp$192575[ebp]
  00003	e9 00 00 00 00	 jmp	 ??1CGuildHouseSmall@@UAE@XZ ; CGuildHouseSmall::~CGuildHouseSmall
__ehhandler$?Serialize@CGuildHouseMng@@QAEXAAVCAr@@@Z:
  00008	b8 00 00 00 00	 mov	 eax, OFFSET FLAT:$T203701
  0000d	e9 00 00 00 00	 jmp	 ___CxxFrameHandler
text$x	ENDS
?Serialize@CGuildHouseMng@@QAEXAAVCAr@@@Z ENDP		; CGuildHouseMng::Serialize
PUBLIC	?OnGuildHousePacket@CGuildHouseBase@@QAEHHAAUGuildHouse_Furniture_Info@1@H@Z ; CGuildHouseBase::OnGuildHousePacket
; Function compile flags: /Ogty
;	COMDAT ?OnGuildHousePacket@CGuildHouseBase@@QAEHHAAUGuildHouse_Furniture_Info@1@H@Z
_TEXT	SEGMENT
_nPacketType$ = 8					; size = 4
_gfi$ = 12						; size = 4
_nIndex$ = 16						; size = 4
?OnGuildHousePacket@CGuildHouseBase@@QAEHHAAUGuildHouse_Furniture_Info@1@H@Z PROC NEAR ; CGuildHouseBase::OnGuildHousePacket, COMDAT
; _this$ = ecx

; 754  : 	switch( nPacketType )

  00000	8b 44 24 04	 mov	 eax, DWORD PTR _nPacketType$[esp-4]
  00004	83 f8 07	 cmp	 eax, 7
  00007	77 79		 ja	 SHORT $L192280
  00009	ff 24 85 00 00
	00 00		 jmp	 DWORD PTR $L203720[eax*4]
$L192283:

; 755  : 	{
; 756  : 		case GUILDHOUSE_PCKTTYPE_LISTUP:
; 757  : 			return ListUpFurniture( gfi );

  00010	8b 44 24 08	 mov	 eax, DWORD PTR _gfi$[esp-4]
  00014	50		 push	 eax
  00015	83 c1 0c	 add	 ecx, 12			; 0000000cH
  00018	e8 00 00 00 00	 call	 ?push_back@?$vector@UGuildHouse_Furniture_Info@CGuildHouseBase@@V?$allocator@UGuildHouse_Furniture_Info@CGuildHouseBase@@@std@@@std@@QAEXABUGuildHouse_Furniture_Info@CGuildHouseBase@@@Z ; std::vector<CGuildHouseBase::GuildHouse_Furniture_Info,std::allocator<CGuildHouseBase::GuildHouse_Furniture_Info> >::push_back
  0001d	b8 01 00 00 00	 mov	 eax, 1

; 827  : }

  00022	c2 0c 00	 ret	 12			; 0000000cH
$L192284:

; 758  : 
; 759  : 		case GUILDHOUSE_PCKTTYPE_LISTDROP:
; 760  : 			return ListDropFurniture( nIndex );

  00025	8b 54 24 0c	 mov	 edx, DWORD PTR _nIndex$[esp-4]
  00029	52		 push	 edx
  0002a	e8 00 00 00 00	 call	 ?ListDropFurniture@CGuildHouseBase@@AAEHH@Z ; CGuildHouseBase::ListDropFurniture

; 827  : }

  0002f	c2 0c 00	 ret	 12			; 0000000cH
$L192285:

; 761  : 
; 762  : 		case GUILDHOUSE_PCKTTYPE_SETUP:
; 763  : #ifdef __CLIENT
; 764  : 			{
; 765  : 				ItemProp* pProp = prj.GetItemProp( gfi.dwItemId );
; 766  : 				if( pProp )
; 767  : 				{
; 768  : 					CString str;
; 769  : 					str.Format( GETTEXT( TID_GAME_GUILDHOUSE_FUR_INSTALL_SUCCESS ), pProp->szName );		// 
; 770  : 					g_WndMng.PutString( str, NULL, prj.GetTextColor( TID_GAME_GUILDHOUSE_FUR_INSTALL_SUCCESS ) );
; 771  : 				}
; 772  : 			}
; 773  : 
; 774  : #endif // __CLIENT
; 775  : #ifdef __WORLDSERVER
; 776  : 			g_dpDBClient.SendLogGuildFurniture( m_dwGuildId, gfi, 'S' );
; 777  : #endif // __WORLDSERVER
; 778  : 			return SetupFurnitureCtrl( nIndex, gfi );

  00032	8b 44 24 08	 mov	 eax, DWORD PTR _gfi$[esp-4]
  00036	8b 54 24 0c	 mov	 edx, DWORD PTR _nIndex$[esp-4]
  0003a	50		 push	 eax
  0003b	52		 push	 edx
  0003c	e8 00 00 00 00	 call	 ?SetupFurnitureCtrl@CGuildHouseBase@@AAEHHAAUGuildHouse_Furniture_Info@1@@Z ; CGuildHouseBase::SetupFurnitureCtrl

; 827  : }

  00041	c2 0c 00	 ret	 12			; 0000000cH
$L192286:

; 779  : 
; 780  : 		case GUILDHOUSE_PCKTTYPE_REMOVE:
; 781  : #ifdef __CLIENT
; 782  : 			{
; 783  : 				ItemProp* pProp = prj.GetItemProp( gfi.dwItemId );
; 784  : 				if( pProp )
; 785  : 				{
; 786  : 					CString str;
; 787  : 					str.Format( GETTEXT( TID_GAME_GUILDHOUSE_FUR_DISMANTLE_SUCCESS ), pProp->szName );	//   
; 788  : 					g_WndMng.PutString( str, NULL, prj.GetTextColor( TID_GAME_GUILDHOUSE_FUR_DISMANTLE_SUCCESS ) );
; 789  : 				}
; 790  : 			}
; 791  : #endif // __CLIENT
; 792  : #ifdef __WORLDSERVER
; 793  : 			g_dpDBClient.SendLogGuildFurniture( m_dwGuildId, gfi, 'R' );
; 794  : #endif // __WORLDSERVER
; 795  : 			return RemoveFurnitureCtrl( nIndex, gfi );

  00044	8b 44 24 08	 mov	 eax, DWORD PTR _gfi$[esp-4]
  00048	8b 54 24 0c	 mov	 edx, DWORD PTR _nIndex$[esp-4]
  0004c	50		 push	 eax
  0004d	52		 push	 edx
  0004e	e8 00 00 00 00	 call	 ?RemoveFurnitureCtrl@CGuildHouseBase@@AAEHHAAUGuildHouse_Furniture_Info@1@@Z ; CGuildHouseBase::RemoveFurnitureCtrl

; 827  : }

  00053	c2 0c 00	 ret	 12			; 0000000cH
$L192287:

; 796  : 
; 797  : 		case GUILDHOUSE_PCKTTYPE_RESET:
; 798  : #ifdef __CLIENT
; 799  : 			{
; 800  : 				ItemProp* pProp = prj.GetItemProp( gfi.dwItemId );
; 801  : 				if( pProp )
; 802  : 				{
; 803  : 					CString str;
; 804  : 					str.Format( GETTEXT( TID_GAME_GUILDHOUSE_FUR_REINSTALL_SUCCESS ), pProp->szName );	//  
; 805  : 					g_WndMng.PutString( str, NULL, prj.GetTextColor( TID_GAME_GUILDHOUSE_FUR_REINSTALL_SUCCESS ) );
; 806  : 				}
; 807  : 			}
; 808  : #endif
; 809  : #ifdef __WORLDSERVER
; 810  : 			g_dpDBClient.SendLogGuildFurniture( m_dwGuildId, gfi, 'C' );
; 811  : #endif // __WORLDSERVER
; 812  : 			return ResetFurnitureCtrl( nIndex, gfi );

  00056	8b 44 24 08	 mov	 eax, DWORD PTR _gfi$[esp-4]
  0005a	8b 54 24 0c	 mov	 edx, DWORD PTR _nIndex$[esp-4]
  0005e	50		 push	 eax
  0005f	52		 push	 edx
  00060	e8 00 00 00 00	 call	 ?ResetFurnitureCtrl@CGuildHouseBase@@AAEHHAAUGuildHouse_Furniture_Info@1@@Z ; CGuildHouseBase::ResetFurnitureCtrl

; 827  : }

  00065	c2 0c 00	 ret	 12			; 0000000cH
$L192288:

; 813  : #ifdef __CLIENT
; 814  : 		case GUILDHOUSE_PCKTTYPE_REFRESH:
; 815  : 			return SetupFurnitureCtrl( nIndex, gfi );
; 816  : #endif // __CLIENT
; 817  : 		
; 818  : 		case GUILDHOUSE_PCKTTYPE_UPKEEP:
; 819  : 			SetUpkeeptime( gfi.tKeepTime );

  00068	8b 44 24 08	 mov	 eax, DWORD PTR _gfi$[esp-4]
  0006c	8b 50 1c	 mov	 edx, DWORD PTR [eax+28]
  0006f	89 51 1c	 mov	 DWORD PTR [ecx+28], edx

; 820  : 			return TRUE;

  00072	b8 01 00 00 00	 mov	 eax, 1

; 827  : }

  00077	c2 0c 00	 ret	 12			; 0000000cH
$L192289:

; 821  : 
; 822  : 		case GUILDHOUSE_PCKTTYPE_EXPIRED:
; 823  : 			return ExpiredGuildHouse();

  0007a	e8 00 00 00 00	 call	 ?ExpiredGuildHouse@CGuildHouseBase@@QAEHXZ ; CGuildHouseBase::ExpiredGuildHouse

; 827  : }

  0007f	c2 0c 00	 ret	 12			; 0000000cH
$L192280:

; 824  : 	}
; 825  : 
; 826  : 	return FALSE;

  00082	33 c0		 xor	 eax, eax

; 827  : }

  00084	c2 0c 00	 ret	 12			; 0000000cH
  00087	90		 npad	 1
$L203720:
  00088	00 00 00 00	 DD	 $L192283
  0008c	00 00 00 00	 DD	 $L192284
  00090	00 00 00 00	 DD	 $L192285
  00094	00 00 00 00	 DD	 $L192286
  00098	00 00 00 00	 DD	 $L192287
  0009c	00 00 00 00	 DD	 $L192280
  000a0	00 00 00 00	 DD	 $L192288
  000a4	00 00 00 00	 DD	 $L192289
?OnGuildHousePacket@CGuildHouseBase@@QAEHHAAUGuildHouse_Furniture_Info@1@H@Z ENDP ; CGuildHouseBase::OnGuildHousePacket
_TEXT	ENDS
PUBLIC	??_C@_0BN@EFGJIHNF@usp_GuildHouse_MaxSEQ?5?8?$CF02d?8?$AA@ ; `string'
PUBLIC	??_C@_03NCPCKDJB@SEQ?$AA@			; `string'
PUBLIC	??_C@_0BL@KLBKELLI@usp_GuildHouse_Load?5?8?$CF02d?8?$AA@ ; `string'
PUBLIC	??_C@_09MHDEIN@m_idGuild?$AA@			; `string'
PUBLIC	??_C@_09DHJEDBNA@dwWorldID?$AA@			; `string'
PUBLIC	??_C@_09CGIPPJPO@tKeepTime?$AA@			; `string'
PUBLIC	??_C@_0EO@OANJGIDM@CGuildHouseMng?3?3DBLoadGuildHouse@ ; `string'
PUBLIC	??_C@_0CI@JAMDLPN@usp_GuildFurniture_Load?5?5?8?$CF02d?8?0@ ; `string'
PUBLIC	??_C@_09LCBEKCCJ@ItemIndex?$AA@			; `string'
PUBLIC	??_C@_06DMCKBLKP@bSetup?$AA@			; `string'
PUBLIC	??_C@_05JPJLCAGA@x_Pos?$AA@			; `string'
PUBLIC	??_C@_05FEMHPDMF@y_Pos?$AA@			; `string'
PUBLIC	??_C@_05NCFDIBGL@z_Pos?$AA@			; `string'
PUBLIC	??_C@_06JHEFCLKH@fAngle?$AA@			; `string'
PUBLIC	?DBLoadGuildHouse@CGuildHouseMng@@QAEHPAVCQuery@@@Z ; CGuildHouseMng::DBLoadGuildHouse
EXTRN	?g_appInfo@@3UAppInfo@@A:QWORD			; g_appInfo
EXTRN	?Execute@CQuery@@QAAHPBDZZ:NEAR			; CQuery::Execute
EXTRN	?Fetch@CQuery@@QAEHXZ:NEAR			; CQuery::Fetch
EXTRN	?GetInt@CQuery@@QAEHPAD@Z:NEAR			; CQuery::GetInt
EXTRN	?GetFloat@CQuery@@QAEMPAD@Z:NEAR		; CQuery::GetFloat
EXTRN	?Error@@YAPBDPBDZZ:NEAR				; Error
;	COMDAT ??_C@_0BN@EFGJIHNF@usp_GuildHouse_MaxSEQ?5?8?$CF02d?8?$AA@
; File c:\documents and settings\test\mes documents\source\virtuos_v17\build\program\_common\guildhouse.h
CONST	SEGMENT
??_C@_0BN@EFGJIHNF@usp_GuildHouse_MaxSEQ?5?8?$CF02d?8?$AA@ DB 'usp_GuildH'
	DB	'ouse_MaxSEQ ''%02d''', 00H			; `string'
CONST	ENDS
;	COMDAT ??_C@_03NCPCKDJB@SEQ?$AA@
CONST	SEGMENT
??_C@_03NCPCKDJB@SEQ?$AA@ DB 'SEQ', 00H			; `string'
CONST	ENDS
;	COMDAT ??_C@_0BL@KLBKELLI@usp_GuildHouse_Load?5?8?$CF02d?8?$AA@
CONST	SEGMENT
??_C@_0BL@KLBKELLI@usp_GuildHouse_Load?5?8?$CF02d?8?$AA@ DB 'usp_GuildHou'
	DB	'se_Load ''%02d''', 00H			; `string'
CONST	ENDS
;	COMDAT ??_C@_09MHDEIN@m_idGuild?$AA@
CONST	SEGMENT
??_C@_09MHDEIN@m_idGuild?$AA@ DB 'm_idGuild', 00H	; `string'
CONST	ENDS
;	COMDAT ??_C@_09DHJEDBNA@dwWorldID?$AA@
CONST	SEGMENT
??_C@_09DHJEDBNA@dwWorldID?$AA@ DB 'dwWorldID', 00H	; `string'
CONST	ENDS
;	COMDAT ??_C@_09CGIPPJPO@tKeepTime?$AA@
CONST	SEGMENT
??_C@_09CGIPPJPO@tKeepTime?$AA@ DB 'tKeepTime', 00H	; `string'
CONST	ENDS
;	COMDAT ??_C@_0EO@OANJGIDM@CGuildHouseMng?3?3DBLoadGuildHouse@
CONST	SEGMENT
??_C@_0EO@OANJGIDM@CGuildHouseMng?3?3DBLoadGuildHouse@ DB 'CGuildHouseMng'
	DB	'::DBLoadGuildHouse() : AddGuildHouse() Failed!!! [GuildId:%06'
	DB	'd]', 00H					; `string'
CONST	ENDS
;	COMDAT ??_C@_0CI@JAMDLPN@usp_GuildFurniture_Load?5?5?8?$CF02d?8?0@
CONST	SEGMENT
??_C@_0CI@JAMDLPN@usp_GuildFurniture_Load?5?5?8?$CF02d?8?0@ DB 'usp_Guild'
	DB	'Furniture_Load  ''%02d'', ''%06d''', 00H	; `string'
CONST	ENDS
;	COMDAT ??_C@_09LCBEKCCJ@ItemIndex?$AA@
CONST	SEGMENT
??_C@_09LCBEKCCJ@ItemIndex?$AA@ DB 'ItemIndex', 00H	; `string'
CONST	ENDS
;	COMDAT ??_C@_06DMCKBLKP@bSetup?$AA@
CONST	SEGMENT
??_C@_06DMCKBLKP@bSetup?$AA@ DB 'bSetup', 00H		; `string'
CONST	ENDS
;	COMDAT ??_C@_05JPJLCAGA@x_Pos?$AA@
CONST	SEGMENT
??_C@_05JPJLCAGA@x_Pos?$AA@ DB 'x_Pos', 00H		; `string'
CONST	ENDS
;	COMDAT ??_C@_05FEMHPDMF@y_Pos?$AA@
CONST	SEGMENT
??_C@_05FEMHPDMF@y_Pos?$AA@ DB 'y_Pos', 00H		; `string'
CONST	ENDS
;	COMDAT ??_C@_05NCFDIBGL@z_Pos?$AA@
CONST	SEGMENT
??_C@_05NCFDIBGL@z_Pos?$AA@ DB 'z_Pos', 00H		; `string'
CONST	ENDS
;	COMDAT ??_C@_06JHEFCLKH@fAngle?$AA@
CONST	SEGMENT
??_C@_06JHEFCLKH@fAngle?$AA@ DB 'fAngle', 00H		; `string'
; Function compile flags: /Ogty
; File c:\documents and settings\test\mes documents\source\virtuos_v17\build\program\_common\guildhouse.cpp
CONST	ENDS
;	COMDAT ?DBLoadGuildHouse@CGuildHouseMng@@QAEHPAVCQuery@@@Z
_TEXT	SEGMENT
_this$ = -60						; size = 4
$T203745 = -56						; size = 8
$T203747 = -48						; size = 8
$T203725 = -48						; size = 12
_gfiData$192637 = -36					; size = 36
_it$192625 = 8						; size = 4
_tKeepTime$192618 = 8					; size = 4
_pQuery$ = 8						; size = 4
?DBLoadGuildHouse@CGuildHouseMng@@QAEHPAVCQuery@@@Z PROC NEAR ; CGuildHouseMng::DBLoadGuildHouse, COMDAT
; _this$ = ecx

; 1510 : {

  00000	83 ec 3c	 sub	 esp, 60			; 0000003cH

; 1511 : 	if( pQuery->Execute( "usp_GuildHouse_MaxSEQ '%02d'", g_appInfo.dwSys ) )

  00003	a1 00 00 00 00	 mov	 eax, DWORD PTR ?g_appInfo@@3UAppInfo@@A
  00008	55		 push	 ebp
  00009	56		 push	 esi
  0000a	8b 74 24 48	 mov	 esi, DWORD PTR _pQuery$[esp+64]
  0000e	50		 push	 eax
  0000f	8b e9		 mov	 ebp, ecx
  00011	68 00 00 00 00	 push	 OFFSET FLAT:??_C@_0BN@EFGJIHNF@usp_GuildHouse_MaxSEQ?5?8?$CF02d?8?$AA@
  00016	56		 push	 esi
  00017	89 6c 24 14	 mov	 DWORD PTR _this$[esp+80], ebp
  0001b	e8 00 00 00 00	 call	 ?Execute@CQuery@@QAAHPBDZZ ; CQuery::Execute
  00020	83 c4 0c	 add	 esp, 12			; 0000000cH
  00023	85 c0		 test	 eax, eax
  00025	0f 84 1c 02 00
	00		 je	 $L192604

; 1512 : 	{
; 1513 : 		if( pQuery->Fetch() )

  0002b	8b ce		 mov	 ecx, esi
  0002d	e8 00 00 00 00	 call	 ?Fetch@CQuery@@QAEHXZ	; CQuery::Fetch
  00032	85 c0		 test	 eax, eax
  00034	74 0f		 je	 SHORT $L192606

; 1514 : 			m_nSeqNum = pQuery->GetInt( "SEQ" );

  00036	68 00 00 00 00	 push	 OFFSET FLAT:??_C@_03NCPCKDJB@SEQ?$AA@
  0003b	8b ce		 mov	 ecx, esi
  0003d	e8 00 00 00 00	 call	 ?GetInt@CQuery@@QAEHPAD@Z ; CQuery::GetInt
  00042	89 45 00	 mov	 DWORD PTR [ebp], eax
$L192606:

; 1518 : 	
; 1519 : 	if( pQuery->Execute( "usp_GuildHouse_Load '%02d'", g_appInfo.dwSys ) )

  00045	8b 0d 00 00 00
	00		 mov	 ecx, DWORD PTR ?g_appInfo@@3UAppInfo@@A
  0004b	51		 push	 ecx
  0004c	68 00 00 00 00	 push	 OFFSET FLAT:??_C@_0BL@KLBKELLI@usp_GuildHouse_Load?5?8?$CF02d?8?$AA@
  00051	56		 push	 esi
  00052	e8 00 00 00 00	 call	 ?Execute@CQuery@@QAAHPBDZZ ; CQuery::Execute
  00057	83 c4 0c	 add	 esp, 12			; 0000000cH
  0005a	85 c0		 test	 eax, eax
  0005c	0f 84 e5 01 00
	00		 je	 $L192604
  00062	53		 push	 ebx
  00063	57		 push	 edi

; 1520 : 	{
; 1521 : 		while( pQuery->Fetch() )

  00064	8b ce		 mov	 ecx, esi
  00066	e8 00 00 00 00	 call	 ?Fetch@CQuery@@QAEHXZ	; CQuery::Fetch
  0006b	85 c0		 test	 eax, eax
  0006d	0f 84 7e 00 00
	00		 je	 $L203915
$L192612:

; 1522 : 		{
; 1523 : 			DWORD dwGuildId = pQuery->GetInt( "m_idGuild" );

  00073	68 00 00 00 00	 push	 OFFSET FLAT:??_C@_09MHDEIN@m_idGuild?$AA@
  00078	8b ce		 mov	 ecx, esi
  0007a	e8 00 00 00 00	 call	 ?GetInt@CQuery@@QAEHPAD@Z ; CQuery::GetInt

; 1524 : 			DWORD dwWorldId = pQuery->GetInt( "dwWorldID" );

  0007f	68 00 00 00 00	 push	 OFFSET FLAT:??_C@_09DHJEDBNA@dwWorldID?$AA@
  00084	8b ce		 mov	 ecx, esi
  00086	8b f8		 mov	 edi, eax
  00088	e8 00 00 00 00	 call	 ?GetInt@CQuery@@QAEHPAD@Z ; CQuery::GetInt

; 1525 : 			time_t tKeepTime = pQuery->GetInt( "tKeepTime" );

  0008d	68 00 00 00 00	 push	 OFFSET FLAT:??_C@_09CGIPPJPO@tKeepTime?$AA@
  00092	8b ce		 mov	 ecx, esi
  00094	8b d8		 mov	 ebx, eax
  00096	e8 00 00 00 00	 call	 ?GetInt@CQuery@@QAEHPAD@Z ; CQuery::GetInt

; 1526 : #ifdef __GUILD_HOUSE_MIDDLE
; 1527 : 			OBJID objGHId = pQuery->GetInt( "dwGuildHouseId" );
; 1528 : 			int nAreaIndex = pQuery->GetInt( "nAreaIndex" );
; 1529 : 			int nGHLevel = pQuery->GetInt( "nGuildHouseLevel" );
; 1530 : 			char szGHName[MAX_GH_NAME] = {0, };
; 1531 : 			::memset( szGHName, 0, sizeof( szGHName ) );
; 1532 : 			pQuery->GetStr( "szGuildHouseName", szGHName );
; 1533 : #endif // __GUILD_HOUSE_MIDDLE
; 1534 : 			
; 1535 : 			CGuildHouseBase* pGuildHouse = MakeGuildHouse( dwGuildId, dwWorldId );

  0009b	53		 push	 ebx
  0009c	57		 push	 edi
  0009d	8b cd		 mov	 ecx, ebp
  0009f	89 44 24 58	 mov	 DWORD PTR _tKeepTime$192618[esp+80], eax
  000a3	e8 00 00 00 00	 call	 ?MakeGuildHouse@CGuildHouseMng@@QAEPAVCGuildHouseBase@@KK@Z ; CGuildHouseMng::MakeGuildHouse
  000a8	8b d8		 mov	 ebx, eax

; 1536 : 			if( pGuildHouse && AddGuildHouse( dwGuildId, pGuildHouse ) )

  000aa	85 db		 test	 ebx, ebx
  000ac	74 2a		 je	 SHORT $L192621
  000ae	8d 54 24 14	 lea	 edx, DWORD PTR $T203745[esp+76]
  000b2	52		 push	 edx
  000b3	8d 44 24 20	 lea	 eax, DWORD PTR $T203747[esp+80]
  000b7	50		 push	 eax
  000b8	8d 4d 04	 lea	 ecx, DWORD PTR [ebp+4]
  000bb	89 7c 24 1c	 mov	 DWORD PTR $T203745[esp+84], edi
  000bf	89 5c 24 20	 mov	 DWORD PTR $T203745[esp+88], ebx
  000c3	e8 00 00 00 00	 call	 ?insert@?$_Tree@V?$_Tmap_traits@KPAVCGuildHouseBase@@U?$less@K@std@@V?$allocator@U?$pair@$$CBKPAVCGuildHouseBase@@@std@@@3@$0A@@std@@@std@@QAE?AU?$pair@Viterator@?$_Tree@V?$_Tmap_traits@KPAVCGuildHouseBase@@U?$less@K@std@@V?$allocator@U?$pair@$$CBKPAVCGuildHouseBase@@@std@@@3@$0A@@std@@@std@@_N@2@ABU?$pair@$$CBKPAVCGuildHouseBase@@@2@@Z ; std::_Tree<std::_Tmap_traits<unsigned long,CGuildHouseBase *,std::less<unsigned long>,std::allocator<std::pair<unsigned long const ,CGuildHouseBase *> >,0> >::insert
  000c8	8a 48 04	 mov	 cl, BYTE PTR [eax+4]
  000cb	84 c9		 test	 cl, cl
  000cd	74 09		 je	 SHORT $L192621

; 1537 : 			{
; 1538 : 				pGuildHouse->SetUpkeeptime( tKeepTime );

  000cf	8b 4c 24 50	 mov	 ecx, DWORD PTR _tKeepTime$192618[esp+72]
  000d3	89 4b 1c	 mov	 DWORD PTR [ebx+28], ecx

; 1539 : #ifdef __GUILD_HOUSE_MIDDLE
; 1540 : 				if( pGuildHouse->GetType() >= WI_GUILDHOUSE_MIDDLE && pGuildHouse->GetType() <= WI_GUILDHOUSE_LARGE )
; 1541 : 				{
; 1542 : 					pGuildHouse->SetGuildHouseData( objGHId, nAreaIndex, nGHLevel, tKeepTime, szGHName );
; 1543 : 				}
; 1544 : #endif // __GUILD_HOUSE_MIDDLE
; 1545 : 			}
; 1546 : 			else

  000d6	eb 0e		 jmp	 SHORT $L192622
$L192621:

; 1547 : 				Error( "CGuildHouseMng::DBLoadGuildHouse() : AddGuildHouse() Failed!!! [GuildId:%06d]", dwGuildId );

  000d8	57		 push	 edi
  000d9	68 00 00 00 00	 push	 OFFSET FLAT:??_C@_0EO@OANJGIDM@CGuildHouseMng?3?3DBLoadGuildHouse@
  000de	e8 00 00 00 00	 call	 ?Error@@YAPBDPBDZZ	; Error
  000e3	83 c4 08	 add	 esp, 8
$L192622:
  000e6	8b ce		 mov	 ecx, esi
  000e8	e8 00 00 00 00	 call	 ?Fetch@CQuery@@QAEHXZ	; CQuery::Fetch
  000ed	85 c0		 test	 eax, eax
  000ef	75 82		 jne	 SHORT $L192612
$L203915:

; 1548 : 		}
; 1549 : 	}
; 1550 : 	else
; 1551 : 		return FALSE;
; 1552 : 
; 1553 : 	for( MapGuildHouse::iterator it=m_mapGuildHouse.begin(); it!=m_mapGuildHouse.end(); it++ )

  000f1	8b 45 08	 mov	 eax, DWORD PTR [ebp+8]
  000f4	8b 38		 mov	 edi, DWORD PTR [eax]
  000f6	3b f8		 cmp	 edi, eax
  000f8	89 7c 24 50	 mov	 DWORD PTR _it$192625[esp+72], edi
  000fc	0f 84 2a 01 00
	00		 je	 $L192631
$L203800:

; 1554 : 	{
; 1555 : 		if( pQuery->Execute( "usp_GuildFurniture_Load  '%02d', '%06d'", g_appInfo.dwSys, it->first ) )

  00102	8b 57 0c	 mov	 edx, DWORD PTR [edi+12]
  00105	a1 00 00 00 00	 mov	 eax, DWORD PTR ?g_appInfo@@3UAppInfo@@A
  0010a	52		 push	 edx
  0010b	50		 push	 eax
  0010c	68 00 00 00 00	 push	 OFFSET FLAT:??_C@_0CI@JAMDLPN@usp_GuildFurniture_Load?5?5?8?$CF02d?8?0@
  00111	56		 push	 esi
  00112	e8 00 00 00 00	 call	 ?Execute@CQuery@@QAAHPBDZZ ; CQuery::Execute
  00117	83 c4 10	 add	 esp, 16			; 00000010H
  0011a	85 c0		 test	 eax, eax
  0011c	0f 84 19 01 00
	00		 je	 $L192632

; 1556 : 		{
; 1557 : 			while( pQuery->Fetch() )

  00122	8b ce		 mov	 ecx, esi
  00124	e8 00 00 00 00	 call	 ?Fetch@CQuery@@QAEHXZ	; CQuery::Fetch
  00129	85 c0		 test	 eax, eax
  0012b	0f 84 e5 00 00
	00		 je	 $L192630

; 1558 : 			{
; 1559 : 				GH_Fntr_Info gfiData;

  00131	c7 44 24 1c 00
	00 00 00	 mov	 DWORD PTR $T203725[esp+76], 0
  00139	8b 6c 24 1c	 mov	 ebp, DWORD PTR $T203725[esp+76]
  0013d	c7 44 24 20 00
	00 00 00	 mov	 DWORD PTR $T203725[esp+80], 0
  00145	8b 5c 24 20	 mov	 ebx, DWORD PTR $T203725[esp+80]
  00149	c7 44 24 24 00
	00 00 00	 mov	 DWORD PTR $T203725[esp+84], 0
$L192635:
  00151	8b 4c 24 24	 mov	 ecx, DWORD PTR $T203725[esp+84]
  00155	6a 00		 push	 0
  00157	89 6c 24 34	 mov	 DWORD PTR _gfiData$192637[esp+88], ebp
  0015b	89 5c 24 38	 mov	 DWORD PTR _gfiData$192637[esp+92], ebx
  0015f	89 4c 24 3c	 mov	 DWORD PTR _gfiData$192637[esp+96], ecx
  00163	c7 44 24 44 ff
	ff ff ff	 mov	 DWORD PTR _gfiData$192637[esp+104], -1
  0016b	e8 00 00 00 00	 call	 _time
  00170	83 c4 04	 add	 esp, 4

; 1560 : 				gfiData.nSeqNum		= pQuery->GetInt( "SEQ" );

  00173	68 00 00 00 00	 push	 OFFSET FLAT:??_C@_03NCPCKDJB@SEQ?$AA@
  00178	8b ce		 mov	 ecx, esi
  0017a	e8 00 00 00 00	 call	 ?GetInt@CQuery@@QAEHPAD@Z ; CQuery::GetInt

; 1561 : 				gfiData.dwItemId	= static_cast<DWORD>( pQuery->GetInt( "ItemIndex" ) );

  0017f	68 00 00 00 00	 push	 OFFSET FLAT:??_C@_09LCBEKCCJ@ItemIndex?$AA@
  00184	8b ce		 mov	 ecx, esi
  00186	89 44 24 4c	 mov	 DWORD PTR _gfiData$192637[esp+112], eax
  0018a	e8 00 00 00 00	 call	 ?GetInt@CQuery@@QAEHPAD@Z ; CQuery::GetInt

; 1562 : 				gfiData.bSetup		= static_cast<BOOL>( pQuery->GetInt( "bSetup" ) );

  0018f	68 00 00 00 00	 push	 OFFSET FLAT:??_C@_06DMCKBLKP@bSetup?$AA@
  00194	8b ce		 mov	 ecx, esi
  00196	89 44 24 2c	 mov	 DWORD PTR _gfiData$192637[esp+80], eax
  0019a	e8 00 00 00 00	 call	 ?GetInt@CQuery@@QAEHPAD@Z ; CQuery::GetInt

; 1563 : 				gfiData.vPos.x		= static_cast<float>( pQuery->GetFloat( "x_Pos" ) );

  0019f	68 00 00 00 00	 push	 OFFSET FLAT:??_C@_05JPJLCAGA@x_Pos?$AA@
  001a4	8b ce		 mov	 ecx, esi
  001a6	89 44 24 30	 mov	 DWORD PTR _gfiData$192637[esp+84], eax
  001aa	e8 00 00 00 00	 call	 ?GetFloat@CQuery@@QAEMPAD@Z ; CQuery::GetFloat
  001af	d9 5c 24 30	 fstp	 DWORD PTR _gfiData$192637[esp+84]

; 1564 : 				gfiData.vPos.y		= static_cast<float>( pQuery->GetFloat( "y_Pos" ) );

  001b3	68 00 00 00 00	 push	 OFFSET FLAT:??_C@_05FEMHPDMF@y_Pos?$AA@
  001b8	8b ce		 mov	 ecx, esi
  001ba	e8 00 00 00 00	 call	 ?GetFloat@CQuery@@QAEMPAD@Z ; CQuery::GetFloat
  001bf	d9 5c 24 34	 fstp	 DWORD PTR _gfiData$192637[esp+88]

; 1565 : 				gfiData.vPos.z		= static_cast<float>( pQuery->GetFloat( "z_Pos" ) );

  001c3	68 00 00 00 00	 push	 OFFSET FLAT:??_C@_05NCFDIBGL@z_Pos?$AA@
  001c8	8b ce		 mov	 ecx, esi
  001ca	e8 00 00 00 00	 call	 ?GetFloat@CQuery@@QAEMPAD@Z ; CQuery::GetFloat
  001cf	d9 5c 24 38	 fstp	 DWORD PTR _gfiData$192637[esp+92]

; 1566 : 				gfiData.fAngle		= static_cast<float>( pQuery->GetFloat( "fAngle" ) );

  001d3	68 00 00 00 00	 push	 OFFSET FLAT:??_C@_06JHEFCLKH@fAngle?$AA@
  001d8	8b ce		 mov	 ecx, esi
  001da	e8 00 00 00 00	 call	 ?GetFloat@CQuery@@QAEMPAD@Z ; CQuery::GetFloat
  001df	d9 5c 24 3c	 fstp	 DWORD PTR _gfiData$192637[esp+96]

; 1567 : 				gfiData.tKeepTime	= pQuery->GetInt( "tKeepTime" );

  001e3	68 00 00 00 00	 push	 OFFSET FLAT:??_C@_09CGIPPJPO@tKeepTime?$AA@
  001e8	8b ce		 mov	 ecx, esi
  001ea	e8 00 00 00 00	 call	 ?GetInt@CQuery@@QAEHPAD@Z ; CQuery::GetInt
  001ef	89 44 24 44	 mov	 DWORD PTR _gfiData$192637[esp+104], eax

; 1568 : 				it->second->OnGuildHousePacket( GUILDHOUSE_PCKTTYPE_LISTUP, gfiData, NULL_ID );

  001f3	8b 47 10	 mov	 eax, DWORD PTR [edi+16]
  001f6	8d 54 24 28	 lea	 edx, DWORD PTR _gfiData$192637[esp+76]
  001fa	52		 push	 edx
  001fb	8d 48 0c	 lea	 ecx, DWORD PTR [eax+12]
  001fe	e8 00 00 00 00	 call	 ?push_back@?$vector@UGuildHouse_Furniture_Info@CGuildHouseBase@@V?$allocator@UGuildHouse_Furniture_Info@CGuildHouseBase@@@std@@@std@@QAEXABUGuildHouse_Furniture_Info@CGuildHouseBase@@@Z ; std::vector<CGuildHouseBase::GuildHouse_Furniture_Info,std::allocator<CGuildHouseBase::GuildHouse_Furniture_Info> >::push_back
  00203	8b ce		 mov	 ecx, esi
  00205	e8 00 00 00 00	 call	 ?Fetch@CQuery@@QAEHXZ	; CQuery::Fetch
  0020a	85 c0		 test	 eax, eax
  0020c	0f 85 3f ff ff
	ff		 jne	 $L192635

; 1556 : 		{
; 1557 : 			while( pQuery->Fetch() )

  00212	8b 6c 24 10	 mov	 ebp, DWORD PTR _this$[esp+76]
$L192630:

; 1548 : 		}
; 1549 : 	}
; 1550 : 	else
; 1551 : 		return FALSE;
; 1552 : 
; 1553 : 	for( MapGuildHouse::iterator it=m_mapGuildHouse.begin(); it!=m_mapGuildHouse.end(); it++ )

  00216	8d 4c 24 50	 lea	 ecx, DWORD PTR _it$192625[esp+72]
  0021a	e8 00 00 00 00	 call	 ?_Inc@const_iterator@?$_Tree@V?$_Tmap_traits@KPAVCGuildHouseBase@@U?$less@K@std@@V?$allocator@U?$pair@$$CBKPAVCGuildHouseBase@@@std@@@3@$0A@@std@@@std@@QAEXXZ ; std::_Tree<std::_Tmap_traits<unsigned long,CGuildHouseBase *,std::less<unsigned long>,std::allocator<std::pair<unsigned long const ,CGuildHouseBase *> >,0> >::const_iterator::_Inc
  0021f	8b 7c 24 50	 mov	 edi, DWORD PTR _it$192625[esp+72]
  00223	3b 7d 08	 cmp	 edi, DWORD PTR [ebp+8]
  00226	0f 85 d6 fe ff
	ff		 jne	 $L203800
$L192631:
  0022c	5f		 pop	 edi
  0022d	5b		 pop	 ebx
  0022e	5e		 pop	 esi

; 1573 : 	}
; 1574 : 
; 1575 : #ifdef __GUILD_HOUSE_MIDDLE
; 1576 : 	TENDER_DATA* pTenderData = GetTenderData( WI_GUILDHOUSE_MIDDLE );
; 1577 : 	if( pTenderData != NULL )
; 1578 : 	{
; 1579 : 		if( pQuery->Execute( "usp_GuildHouse_MaxTender_Load '%02d'", g_appInfo.dwSys ) == TRUE )
; 1580 : 		{
; 1581 : 			if( pQuery->Fetch() == TRUE )
; 1582 : 			{
; 1583 : 				pTenderData->nTenderId = pQuery->GetInt( "nTenderId" );
; 1584 : 				pTenderData->nTenderArea = pQuery->GetInt( "nTenderArea" );
; 1585 : 			}
; 1586 : 		}
; 1587 : 		else
; 1588 : 		{
; 1589 : 			//return FALSE;
; 1590 : 		}
; 1591 : 
; 1592 : 		if( pQuery->Execute( "usp_GuildHouse_Tender_Load %d, '%02d', '%c'", pTenderData->nTenderId, g_appInfo.dwSys, 'T' ) )
; 1593 : 		{
; 1594 : 			while( pQuery->Fetch() )
; 1595 : 			{
; 1596 : 				GUILDHOUSE_TENDER GHT;
; 1597 : 				GHT.dwGHType = WI_GUILDHOUSE_MIDDLE;
; 1598 : 				GHT.dwGuildId = static_cast<DWORD>( pQuery->GetInt( "m_idGuild" ) );
; 1599 : 				GHT.nAreaIndex = static_cast<int>( pQuery->GetInt( "nTenderArea" ) );
; 1600 : 				GHT.objGHId = static_cast<OBJID>( pQuery->GetInt( "dwGuildHouseId" ) );
; 1601 : 				GHT.nTenderPerin = static_cast<int>( pQuery->GetInt( "nTenderPerin" ) );
; 1602 : 				GHT.nTenderPenya = static_cast<int>( pQuery->GetInt( "nTenderPenya" ) );
; 1603 : 				GHT.tTenderTime = static_cast<time_t>( pQuery->GetInt( "tTenderTime" ) );
; 1604 : 				GHT.chState = static_cast<char>( pQuery->GetChar( "chState" ) );
; 1605 : 
; 1606 : 				m_mapTenderGuild.insert( MAP_TENDER_GUILD::value_type( GHT.dwGuildId, GHT ) );
; 1607 : 			}
; 1608 : 		}
; 1609 : 		else
; 1610 : 		{
; 1611 : 			//return FALSE;
; 1612 : 		}
; 1613 : 	}
; 1614 : 	else
; 1615 : 	{
; 1616 : 		Error( "DBLoadGuildHouse - TenderData Not Found" );
; 1617 : 		return FALSE;
; 1618 : 	}
; 1619 : #endif // __GUILD_HOUSE_MIDDLE
; 1620 : 
; 1621 : 	return TRUE;

  0022f	b8 01 00 00 00	 mov	 eax, 1
  00234	5d		 pop	 ebp

; 1622 : }

  00235	83 c4 3c	 add	 esp, 60			; 0000003cH
  00238	c2 04 00	 ret	 4
$L192632:
  0023b	5f		 pop	 edi
  0023c	5b		 pop	 ebx
  0023d	5e		 pop	 esi

; 1569 : 			}
; 1570 : 		}
; 1571 : 		else
; 1572 : 			return FALSE;

  0023e	33 c0		 xor	 eax, eax
  00240	5d		 pop	 ebp

; 1622 : }

  00241	83 c4 3c	 add	 esp, 60			; 0000003cH
  00244	c2 04 00	 ret	 4
$L192604:
  00247	5e		 pop	 esi

; 1515 : 	}
; 1516 : 	else
; 1517 : 		return FALSE;

  00248	33 c0		 xor	 eax, eax
  0024a	5d		 pop	 ebp

; 1622 : }

  0024b	83 c4 3c	 add	 esp, 60			; 0000003cH
  0024e	c2 04 00	 ret	 4
?DBLoadGuildHouse@CGuildHouseMng@@QAEHPAVCQuery@@@Z ENDP ; CGuildHouseMng::DBLoadGuildHouse
; Function compile flags: /Ogty
_TEXT	ENDS
;	COMDAT _$E2
text$yd	SEGMENT
_$E2	PROC NEAR					; COMDAT
  00000	b9 00 00 00 00	 mov	 ecx, OFFSET FLAT:?sGHM@?1??GetInstance@CGuildHouseMng@@SAPAV2@XZ@4V2@A
  00005	e9 00 00 00 00	 jmp	 ??1CGuildHouseMng@@QAE@XZ ; CGuildHouseMng::~CGuildHouseMng
_$E2	ENDP
text$yd	ENDS
END
