; Listing generated by Microsoft (R) Optimizing Compiler Version 13.10.6030 

	TITLE	\Documents and Settings\test\Mes documents\Source\Virtuos_v17\Build\Program\_Common\honor.cpp
	.386P
include listing.inc
if @Version gt 510
.model FLAT
else
_TEXT	SEGMENT PARA USE32 PUBLIC 'CODE'
_TEXT	ENDS
_DATA	SEGMENT DWORD USE32 PUBLIC 'DATA'
_DATA	ENDS
CONST	SEGMENT DWORD USE32 PUBLIC 'CONST'
CONST	ENDS
_BSS	SEGMENT DWORD USE32 PUBLIC 'BSS'
_BSS	ENDS
$$SYMBOLS	SEGMENT BYTE USE32 'DEBSYM'
$$SYMBOLS	ENDS
_TLS	SEGMENT DWORD USE32 PUBLIC 'TLS'
_TLS	ENDS
;	COMDAT ??_C@_0BO@JKGKEJHM@Too?5many?5title?5about?5monster?$CB?$AA@
CONST	SEGMENT DWORD USE32 PUBLIC 'CONST'
CONST	ENDS
;	COMDAT ??_C@_0BL@IDNKGEML@Too?5many?5title?5about?5item?$CB?$AA@
CONST	SEGMENT DWORD USE32 PUBLIC 'CONST'
CONST	ENDS
text$yd	SEGMENT PARA USE32 PUBLIC 'CODE'
text$yd	ENDS
xdata$x	SEGMENT DWORD USE32 PUBLIC 'CONST'
xdata$x	ENDS
;	COMDAT ??0HonorData@@QAE@XZ
_TEXT	SEGMENT PARA USE32 PUBLIC 'CODE'
_TEXT	ENDS
;	COMDAT ??1HonorData@@QAE@XZ
_TEXT	SEGMENT PARA USE32 PUBLIC 'CODE'
_TEXT	ENDS
;	COMDAT ?Init@HonorData@@QAEXXZ
_TEXT	SEGMENT PARA USE32 PUBLIC 'CODE'
_TEXT	ENDS
;	COMDAT ??0CTitleManager@@QAE@XZ
_TEXT	SEGMENT PARA USE32 PUBLIC 'CODE'
_TEXT	ENDS
;	COMDAT ??1?$map@HUHonorData@@U?$less@H@std@@V?$allocator@U?$pair@$$CBHUHonorData@@@std@@@3@@std@@QAE@XZ
_TEXT	SEGMENT PARA USE32 PUBLIC 'CODE'
_TEXT	ENDS
;	COMDAT ??1CTitleManager@@QAE@XZ
_TEXT	SEGMENT PARA USE32 PUBLIC 'CODE'
_TEXT	ENDS
;	COMDAT ?Instance@CTitleManager@@SAPAV1@XZ
_TEXT	SEGMENT PARA USE32 PUBLIC 'CODE'
_TEXT	ENDS
;	COMDAT _$E2
text$yd	SEGMENT PARA USE32 PUBLIC 'CODE'
text$yd	ENDS
;	COMDAT ?LoadTitle@CTitleManager@@QAEHPBD@Z
_TEXT	SEGMENT PARA USE32 PUBLIC 'CODE'
_TEXT	ENDS
;	COMDAT ??1?$pair@$$CBHUHonorData@@@std@@QAE@XZ
_TEXT	SEGMENT PARA USE32 PUBLIC 'CODE'
_TEXT	ENDS
;	COMDAT ?GetTitle@CTitleManager@@QAEPADH@Z
_TEXT	SEGMENT PARA USE32 PUBLIC 'CODE'
_TEXT	ENDS
;	COMDAT ?GetNeedCount@CTitleManager@@QAEHHH@Z
_TEXT	SEGMENT PARA USE32 PUBLIC 'CODE'
_TEXT	ENDS
;	COMDAT ?GetHonorDataByID@CTitleManager@@QAEPAUHonorData@@HH@Z
_TEXT	SEGMENT PARA USE32 PUBLIC 'CODE'
_TEXT	ENDS
;	COMDAT ?GetIdx@CTitleManager@@QAEHHH@Z
_TEXT	SEGMENT PARA USE32 PUBLIC 'CODE'
_TEXT	ENDS
;	COMDAT ?GetIdxType@CTitleManager@@QAEHH@Z
_TEXT	SEGMENT PARA USE32 PUBLIC 'CODE'
_TEXT	ENDS
;	COMDAT ?GetIdxByName@CTitleManager@@QAEHPBD@Z
_TEXT	SEGMENT PARA USE32 PUBLIC 'CODE'
_TEXT	ENDS
;	COMDAT ??0HonorData@@QAE@ABU0@@Z
_TEXT	SEGMENT PARA USE32 PUBLIC 'CODE'
_TEXT	ENDS
;	COMDAT ?GetIdxByGroup@CTitleManager@@QAEHHH@Z
_TEXT	SEGMENT PARA USE32 PUBLIC 'CODE'
_TEXT	ENDS
;	COMDAT ?compare@?$basic_string@DU?$char_traits@D@std@@V?$allocator@D@2@@std@@QBEHABV12@@Z
_TEXT	SEGMENT PARA USE32 PUBLIC 'CODE'
_TEXT	ENDS
;	COMDAT ??0?$map@HUHonorData@@U?$less@H@std@@V?$allocator@U?$pair@$$CBHUHonorData@@@std@@@3@@std@@QAE@XZ
_TEXT	SEGMENT PARA USE32 PUBLIC 'CODE'
_TEXT	ENDS
;	COMDAT ??1?$_Tree@V?$_Tmap_traits@HUHonorData@@U?$less@H@std@@V?$allocator@U?$pair@$$CBHUHonorData@@@std@@@3@$0A@@std@@@std@@QAE@XZ
_TEXT	SEGMENT PARA USE32 PUBLIC 'CODE'
_TEXT	ENDS
;	COMDAT ?begin@?$_Tree@V?$_Tmap_traits@HUHonorData@@U?$less@H@std@@V?$allocator@U?$pair@$$CBHUHonorData@@@std@@@3@$0A@@std@@@std@@QAE?AViterator@12@XZ
_TEXT	SEGMENT PARA USE32 PUBLIC 'CODE'
_TEXT	ENDS
;	COMDAT ?end@?$_Tree@V?$_Tmap_traits@HUHonorData@@U?$less@H@std@@V?$allocator@U?$pair@$$CBHUHonorData@@@std@@@3@$0A@@std@@@std@@QAE?AViterator@12@XZ
_TEXT	SEGMENT PARA USE32 PUBLIC 'CODE'
_TEXT	ENDS
;	COMDAT ?size@?$_Tree@V?$_Tmap_traits@HUHonorData@@U?$less@H@std@@V?$allocator@U?$pair@$$CBHUHonorData@@@std@@@3@$0A@@std@@@std@@QBEIXZ
_TEXT	SEGMENT PARA USE32 PUBLIC 'CODE'
_TEXT	ENDS
;	COMDAT ?insert@?$_Tree@V?$_Tmap_traits@HUHonorData@@U?$less@H@std@@V?$allocator@U?$pair@$$CBHUHonorData@@@std@@@3@$0A@@std@@@std@@QAE?AU?$pair@Viterator@?$_Tree@V?$_Tmap_traits@HUHonorData@@U?$less@H@std@@V?$allocator@U?$pair@$$CBHUHonorData@@@std@@@3@$0A@@std@@@std@@_N@2@ABU?$pair@$$CBHUHonorData@@@2@@Z
_TEXT	SEGMENT PARA USE32 PUBLIC 'CODE'
_TEXT	ENDS
;	COMDAT ?clear@?$_Tree@V?$_Tmap_traits@HUHonorData@@U?$less@H@std@@V?$allocator@U?$pair@$$CBHUHonorData@@@std@@@3@$0A@@std@@@std@@QAEXXZ
_TEXT	SEGMENT PARA USE32 PUBLIC 'CODE'
_TEXT	ENDS
;	COMDAT ?find@?$_Tree@V?$_Tmap_traits@HUHonorData@@U?$less@H@std@@V?$allocator@U?$pair@$$CBHUHonorData@@@std@@@3@$0A@@std@@@std@@QAE?AViterator@12@ABH@Z
_TEXT	SEGMENT PARA USE32 PUBLIC 'CODE'
_TEXT	ENDS
;	COMDAT ??0?$pair@$$CBHUHonorData@@@std@@QAE@ABHABUHonorData@@@Z
_TEXT	SEGMENT PARA USE32 PUBLIC 'CODE'
_TEXT	ENDS
;	COMDAT ??0iterator@?$_Tree@V?$_Tmap_traits@HUHonorData@@U?$less@H@std@@V?$allocator@U?$pair@$$CBHUHonorData@@@std@@@3@$0A@@std@@@std@@QAE@XZ
_TEXT	SEGMENT PARA USE32 PUBLIC 'CODE'
_TEXT	ENDS
;	COMDAT ??Citerator@?$_Tree@V?$_Tmap_traits@HUHonorData@@U?$less@H@std@@V?$allocator@U?$pair@$$CBHUHonorData@@@std@@@3@$0A@@std@@@std@@QBEPAU?$pair@$$CBHUHonorData@@@2@XZ
_TEXT	SEGMENT PARA USE32 PUBLIC 'CODE'
_TEXT	ENDS
;	COMDAT ??Eiterator@?$_Tree@V?$_Tmap_traits@HUHonorData@@U?$less@H@std@@V?$allocator@U?$pair@$$CBHUHonorData@@@std@@@3@$0A@@std@@@std@@QAEAAV012@XZ
_TEXT	SEGMENT PARA USE32 PUBLIC 'CODE'
_TEXT	ENDS
;	COMDAT ??9const_iterator@?$_Tree@V?$_Tmap_traits@HUHonorData@@U?$less@H@std@@V?$allocator@U?$pair@$$CBHUHonorData@@@std@@@3@$0A@@std@@@std@@QBE_NABV012@@Z
_TEXT	SEGMENT PARA USE32 PUBLIC 'CODE'
_TEXT	ENDS
;	COMDAT ?compare@?$basic_string@DU?$char_traits@D@std@@V?$allocator@D@2@@std@@QBEHIIPBDI@Z
_TEXT	SEGMENT PARA USE32 PUBLIC 'CODE'
_TEXT	ENDS
;	COMDAT ??R?$less@H@std@@QBE_NABH0@Z
_TEXT	SEGMENT PARA USE32 PUBLIC 'CODE'
_TEXT	ENDS
;	COMDAT ?_Isnil@?$_Tree@V?$_Tmap_traits@HUHonorData@@U?$less@H@std@@V?$allocator@U?$pair@$$CBHUHonorData@@@std@@@3@$0A@@std@@@std@@KAAADPAU_Node@?$_Tree_nod@V?$_Tmap_traits@HUHonorData@@U?$less@H@std@@V?$allocator@U?$pair@$$CBHUHonorData@@@std@@@3@$0A@@std@@@2@@Z
_TEXT	SEGMENT PARA USE32 PUBLIC 'CODE'
_TEXT	ENDS
;	COMDAT ?_Key@?$_Tree@V?$_Tmap_traits@HUHonorData@@U?$less@H@std@@V?$allocator@U?$pair@$$CBHUHonorData@@@std@@@3@$0A@@std@@@std@@KAABHPAU_Node@?$_Tree_nod@V?$_Tmap_traits@HUHonorData@@U?$less@H@std@@V?$allocator@U?$pair@$$CBHUHonorData@@@std@@@3@$0A@@std@@@2@@Z
_TEXT	SEGMENT PARA USE32 PUBLIC 'CODE'
_TEXT	ENDS
;	COMDAT ?_Left@?$_Tree@V?$_Tmap_traits@HUHonorData@@U?$less@H@std@@V?$allocator@U?$pair@$$CBHUHonorData@@@std@@@3@$0A@@std@@@std@@KAAAPAU_Node@?$_Tree_nod@V?$_Tmap_traits@HUHonorData@@U?$less@H@std@@V?$allocator@U?$pair@$$CBHUHonorData@@@std@@@3@$0A@@std@@@2@PAU342@@Z
_TEXT	SEGMENT PARA USE32 PUBLIC 'CODE'
_TEXT	ENDS
;	COMDAT ?_Right@?$_Tree@V?$_Tmap_traits@HUHonorData@@U?$less@H@std@@V?$allocator@U?$pair@$$CBHUHonorData@@@std@@@3@$0A@@std@@@std@@KAAAPAU_Node@?$_Tree_nod@V?$_Tmap_traits@HUHonorData@@U?$less@H@std@@V?$allocator@U?$pair@$$CBHUHonorData@@@std@@@3@$0A@@std@@@2@PAU342@@Z
_TEXT	SEGMENT PARA USE32 PUBLIC 'CODE'
_TEXT	ENDS
;	COMDAT ??0?$_Tree@V?$_Tmap_traits@HUHonorData@@U?$less@H@std@@V?$allocator@U?$pair@$$CBHUHonorData@@@std@@@3@$0A@@std@@@std@@QAE@ABU?$less@H@1@ABV?$allocator@U?$pair@$$CBHUHonorData@@@std@@@1@@Z
_TEXT	SEGMENT PARA USE32 PUBLIC 'CODE'
_TEXT	ENDS
;	COMDAT ?lower_bound@?$_Tree@V?$_Tmap_traits@HUHonorData@@U?$less@H@std@@V?$allocator@U?$pair@$$CBHUHonorData@@@std@@@3@$0A@@std@@@std@@QAE?AViterator@12@ABH@Z
_TEXT	SEGMENT PARA USE32 PUBLIC 'CODE'
_TEXT	ENDS
;	COMDAT ?_Erase@?$_Tree@V?$_Tmap_traits@HUHonorData@@U?$less@H@std@@V?$allocator@U?$pair@$$CBHUHonorData@@@std@@@3@$0A@@std@@@std@@IAEXPAU_Node@?$_Tree_nod@V?$_Tmap_traits@HUHonorData@@U?$less@H@std@@V?$allocator@U?$pair@$$CBHUHonorData@@@std@@@3@$0A@@std@@@2@@Z
_TEXT	SEGMENT PARA USE32 PUBLIC 'CODE'
_TEXT	ENDS
;	COMDAT ?_Insert@?$_Tree@V?$_Tmap_traits@HUHonorData@@U?$less@H@std@@V?$allocator@U?$pair@$$CBHUHonorData@@@std@@@3@$0A@@std@@@std@@IAE?AViterator@12@_NPAU_Node@?$_Tree_nod@V?$_Tmap_traits@HUHonorData@@U?$less@H@std@@V?$allocator@U?$pair@$$CBHUHonorData@@@std@@@3@$0A@@std@@@2@ABU?$pair@$$CBHUHonorData@@@2@@Z
_TEXT	SEGMENT PARA USE32 PUBLIC 'CODE'
_TEXT	ENDS
;	COMDAT ?_Lmost@?$_Tree@V?$_Tmap_traits@HUHonorData@@U?$less@H@std@@V?$allocator@U?$pair@$$CBHUHonorData@@@std@@@3@$0A@@std@@@std@@IAEAAPAU_Node@?$_Tree_nod@V?$_Tmap_traits@HUHonorData@@U?$less@H@std@@V?$allocator@U?$pair@$$CBHUHonorData@@@std@@@3@$0A@@std@@@2@XZ
_TEXT	SEGMENT PARA USE32 PUBLIC 'CODE'
_TEXT	ENDS
;	COMDAT ?_Rmost@?$_Tree@V?$_Tmap_traits@HUHonorData@@U?$less@H@std@@V?$allocator@U?$pair@$$CBHUHonorData@@@std@@@3@$0A@@std@@@std@@IAEAAPAU_Node@?$_Tree_nod@V?$_Tmap_traits@HUHonorData@@U?$less@H@std@@V?$allocator@U?$pair@$$CBHUHonorData@@@std@@@3@$0A@@std@@@2@XZ
_TEXT	SEGMENT PARA USE32 PUBLIC 'CODE'
_TEXT	ENDS
;	COMDAT ?_Root@?$_Tree@V?$_Tmap_traits@HUHonorData@@U?$less@H@std@@V?$allocator@U?$pair@$$CBHUHonorData@@@std@@@3@$0A@@std@@@std@@IAEAAPAU_Node@?$_Tree_nod@V?$_Tmap_traits@HUHonorData@@U?$less@H@std@@V?$allocator@U?$pair@$$CBHUHonorData@@@std@@@3@$0A@@std@@@2@XZ
_TEXT	SEGMENT PARA USE32 PUBLIC 'CODE'
_TEXT	ENDS
;	COMDAT ?_Tidy@?$_Tree@V?$_Tmap_traits@HUHonorData@@U?$less@H@std@@V?$allocator@U?$pair@$$CBHUHonorData@@@std@@@3@$0A@@std@@@std@@IAEXXZ
_TEXT	SEGMENT PARA USE32 PUBLIC 'CODE'
_TEXT	ENDS
;	COMDAT ?_Kfn@?$_Tmap_traits@HUHonorData@@U?$less@H@std@@V?$allocator@U?$pair@$$CBHUHonorData@@@std@@@3@$0A@@std@@SAABHABU?$pair@$$CBHUHonorData@@@2@@Z
_TEXT	SEGMENT PARA USE32 PUBLIC 'CODE'
_TEXT	ENDS
;	COMDAT ??0?$allocator@U?$pair@$$CBHUHonorData@@@std@@@std@@QAE@XZ
_TEXT	SEGMENT PARA USE32 PUBLIC 'CODE'
_TEXT	ENDS
;	COMDAT ??0?$pair@Viterator@?$_Tree@V?$_Tmap_traits@HUHonorData@@U?$less@H@std@@V?$allocator@U?$pair@$$CBHUHonorData@@@std@@@3@$0A@@std@@@std@@_N@std@@QAE@ABViterator@?$_Tree@V?$_Tmap_traits@HUHonorData@@U?$less@H@std@@V?$allocator@U?$pair@$$CBHUHonorData@@@std@@@3@$0A@@std@@@1@AB_N@Z
_TEXT	SEGMENT PARA USE32 PUBLIC 'CODE'
_TEXT	ENDS
;	COMDAT ??0iterator@?$_Tree@V?$_Tmap_traits@HUHonorData@@U?$less@H@std@@V?$allocator@U?$pair@$$CBHUHonorData@@@std@@@3@$0A@@std@@@std@@QAE@PAU_Node@?$_Tree_nod@V?$_Tmap_traits@HUHonorData@@U?$less@H@std@@V?$allocator@U?$pair@$$CBHUHonorData@@@std@@@3@$0A@@std@@@2@@Z
_TEXT	SEGMENT PARA USE32 PUBLIC 'CODE'
_TEXT	ENDS
;	COMDAT ??Diterator@?$_Tree@V?$_Tmap_traits@HUHonorData@@U?$less@H@std@@V?$allocator@U?$pair@$$CBHUHonorData@@@std@@@3@$0A@@std@@@std@@QBEAAU?$pair@$$CBHUHonorData@@@2@XZ
_TEXT	SEGMENT PARA USE32 PUBLIC 'CODE'
_TEXT	ENDS
;	COMDAT ??Fiterator@?$_Tree@V?$_Tmap_traits@HUHonorData@@U?$less@H@std@@V?$allocator@U?$pair@$$CBHUHonorData@@@std@@@3@$0A@@std@@@std@@QAEAAV012@XZ
_TEXT	SEGMENT PARA USE32 PUBLIC 'CODE'
_TEXT	ENDS
;	COMDAT ??0const_iterator@?$_Tree@V?$_Tmap_traits@HUHonorData@@U?$less@H@std@@V?$allocator@U?$pair@$$CBHUHonorData@@@std@@@3@$0A@@std@@@std@@QAE@XZ
_TEXT	SEGMENT PARA USE32 PUBLIC 'CODE'
_TEXT	ENDS
;	COMDAT ??Econst_iterator@?$_Tree@V?$_Tmap_traits@HUHonorData@@U?$less@H@std@@V?$allocator@U?$pair@$$CBHUHonorData@@@std@@@3@$0A@@std@@@std@@QAEAAV012@XZ
_TEXT	SEGMENT PARA USE32 PUBLIC 'CODE'
_TEXT	ENDS
;	COMDAT ??8const_iterator@?$_Tree@V?$_Tmap_traits@HUHonorData@@U?$less@H@std@@V?$allocator@U?$pair@$$CBHUHonorData@@@std@@@3@$0A@@std@@@std@@QBE_NABV012@@Z
_TEXT	SEGMENT PARA USE32 PUBLIC 'CODE'
_TEXT	ENDS
;	COMDAT ?_Mynode@const_iterator@?$_Tree@V?$_Tmap_traits@HUHonorData@@U?$less@H@std@@V?$allocator@U?$pair@$$CBHUHonorData@@@std@@@3@$0A@@std@@@std@@QBEPAU_Node@?$_Tree_nod@V?$_Tmap_traits@HUHonorData@@U?$less@H@std@@V?$allocator@U?$pair@$$CBHUHonorData@@@std@@@3@$0A@@std@@@3@XZ
_TEXT	SEGMENT PARA USE32 PUBLIC 'CODE'
_TEXT	ENDS
;	COMDAT ?_Color@?$_Tree@V?$_Tmap_traits@HUHonorData@@U?$less@H@std@@V?$allocator@U?$pair@$$CBHUHonorData@@@std@@@3@$0A@@std@@@std@@KAAADPAU_Node@?$_Tree_nod@V?$_Tmap_traits@HUHonorData@@U?$less@H@std@@V?$allocator@U?$pair@$$CBHUHonorData@@@std@@@3@$0A@@std@@@2@@Z
_TEXT	SEGMENT PARA USE32 PUBLIC 'CODE'
_TEXT	ENDS
;	COMDAT ?_Parent@?$_Tree@V?$_Tmap_traits@HUHonorData@@U?$less@H@std@@V?$allocator@U?$pair@$$CBHUHonorData@@@std@@@3@$0A@@std@@@std@@KAAAPAU_Node@?$_Tree_nod@V?$_Tmap_traits@HUHonorData@@U?$less@H@std@@V?$allocator@U?$pair@$$CBHUHonorData@@@std@@@3@$0A@@std@@@2@PAU342@@Z
_TEXT	SEGMENT PARA USE32 PUBLIC 'CODE'
_TEXT	ENDS
;	COMDAT ?_Myval@?$_Tree@V?$_Tmap_traits@HUHonorData@@U?$less@H@std@@V?$allocator@U?$pair@$$CBHUHonorData@@@std@@@3@$0A@@std@@@std@@KAAAU?$pair@$$CBHUHonorData@@@2@PAU_Node@?$_Tree_nod@V?$_Tmap_traits@HUHonorData@@U?$less@H@std@@V?$allocator@U?$pair@$$CBHUHonorData@@@std@@@3@$0A@@std@@@2@@Z
_TEXT	SEGMENT PARA USE32 PUBLIC 'CODE'
_TEXT	ENDS
;	COMDAT ?max_size@?$_Tree@V?$_Tmap_traits@HUHonorData@@U?$less@H@std@@V?$allocator@U?$pair@$$CBHUHonorData@@@std@@@3@$0A@@std@@@std@@QBEIXZ
_TEXT	SEGMENT PARA USE32 PUBLIC 'CODE'
_TEXT	ENDS
;	COMDAT ?erase@?$_Tree@V?$_Tmap_traits@HUHonorData@@U?$less@H@std@@V?$allocator@U?$pair@$$CBHUHonorData@@@std@@@3@$0A@@std@@@std@@QAE?AViterator@12@V312@0@Z
_TEXT	SEGMENT PARA USE32 PUBLIC 'CODE'
_TEXT	ENDS
;	COMDAT ?_Init@?$_Tree@V?$_Tmap_traits@HUHonorData@@U?$less@H@std@@V?$allocator@U?$pair@$$CBHUHonorData@@@std@@@3@$0A@@std@@@std@@IAEXXZ
_TEXT	SEGMENT PARA USE32 PUBLIC 'CODE'
_TEXT	ENDS
;	COMDAT ?_Lbound@?$_Tree@V?$_Tmap_traits@HUHonorData@@U?$less@H@std@@V?$allocator@U?$pair@$$CBHUHonorData@@@std@@@3@$0A@@std@@@std@@IBEPAU_Node@?$_Tree_nod@V?$_Tmap_traits@HUHonorData@@U?$less@H@std@@V?$allocator@U?$pair@$$CBHUHonorData@@@std@@@3@$0A@@std@@@2@ABH@Z
_TEXT	SEGMENT PARA USE32 PUBLIC 'CODE'
_TEXT	ENDS
;	COMDAT ?_Lrotate@?$_Tree@V?$_Tmap_traits@HUHonorData@@U?$less@H@std@@V?$allocator@U?$pair@$$CBHUHonorData@@@std@@@3@$0A@@std@@@std@@IAEXPAU_Node@?$_Tree_nod@V?$_Tmap_traits@HUHonorData@@U?$less@H@std@@V?$allocator@U?$pair@$$CBHUHonorData@@@std@@@3@$0A@@std@@@2@@Z
_TEXT	SEGMENT PARA USE32 PUBLIC 'CODE'
_TEXT	ENDS
;	COMDAT ?_Rrotate@?$_Tree@V?$_Tmap_traits@HUHonorData@@U?$less@H@std@@V?$allocator@U?$pair@$$CBHUHonorData@@@std@@@3@$0A@@std@@@std@@IAEXPAU_Node@?$_Tree_nod@V?$_Tmap_traits@HUHonorData@@U?$less@H@std@@V?$allocator@U?$pair@$$CBHUHonorData@@@std@@@3@$0A@@std@@@2@@Z
_TEXT	SEGMENT PARA USE32 PUBLIC 'CODE'
_TEXT	ENDS
;	COMDAT ?_Buynode@?$_Tree@V?$_Tmap_traits@HUHonorData@@U?$less@H@std@@V?$allocator@U?$pair@$$CBHUHonorData@@@std@@@3@$0A@@std@@@std@@IAEPAU_Node@?$_Tree_nod@V?$_Tmap_traits@HUHonorData@@U?$less@H@std@@V?$allocator@U?$pair@$$CBHUHonorData@@@std@@@3@$0A@@std@@@2@PAU342@00ABU?$pair@$$CBHUHonorData@@@2@D@Z
_TEXT	SEGMENT PARA USE32 PUBLIC 'CODE'
_TEXT	ENDS
;	COMDAT ??0?$_Tree_val@V?$_Tmap_traits@HUHonorData@@U?$less@H@std@@V?$allocator@U?$pair@$$CBHUHonorData@@@std@@@3@$0A@@std@@@std@@IAE@ABU?$less@H@1@V?$allocator@U?$pair@$$CBHUHonorData@@@std@@@1@@Z
_TEXT	SEGMENT PARA USE32 PUBLIC 'CODE'
_TEXT	ENDS
;	COMDAT ??0?$allocator@U?$pair@$$CBHUHonorData@@@std@@@std@@QAE@ABV01@@Z
_TEXT	SEGMENT PARA USE32 PUBLIC 'CODE'
_TEXT	ENDS
;	COMDAT ?deallocate@?$allocator@U_Node@?$_Tree_nod@V?$_Tmap_traits@HUHonorData@@U?$less@H@std@@V?$allocator@U?$pair@$$CBHUHonorData@@@std@@@3@$0A@@std@@@std@@@std@@QAEXPAU_Node@?$_Tree_nod@V?$_Tmap_traits@HUHonorData@@U?$less@H@std@@V?$allocator@U?$pair@$$CBHUHonorData@@@std@@@3@$0A@@std@@@2@I@Z
_TEXT	SEGMENT PARA USE32 PUBLIC 'CODE'
_TEXT	ENDS
;	COMDAT ?destroy@?$allocator@U_Node@?$_Tree_nod@V?$_Tmap_traits@HUHonorData@@U?$less@H@std@@V?$allocator@U?$pair@$$CBHUHonorData@@@std@@@3@$0A@@std@@@std@@@std@@QAEXPAU_Node@?$_Tree_nod@V?$_Tmap_traits@HUHonorData@@U?$less@H@std@@V?$allocator@U?$pair@$$CBHUHonorData@@@std@@@3@$0A@@std@@@2@@Z
_TEXT	SEGMENT PARA USE32 PUBLIC 'CODE'
_TEXT	ENDS
;	COMDAT ?destroy@?$allocator@PAU_Node@?$_Tree_nod@V?$_Tmap_traits@HUHonorData@@U?$less@H@std@@V?$allocator@U?$pair@$$CBHUHonorData@@@std@@@3@$0A@@std@@@std@@@std@@QAEXPAPAU_Node@?$_Tree_nod@V?$_Tmap_traits@HUHonorData@@U?$less@H@std@@V?$allocator@U?$pair@$$CBHUHonorData@@@std@@@3@$0A@@std@@@2@@Z
_TEXT	SEGMENT PARA USE32 PUBLIC 'CODE'
_TEXT	ENDS
;	COMDAT ??0const_iterator@?$_Tree@V?$_Tmap_traits@HUHonorData@@U?$less@H@std@@V?$allocator@U?$pair@$$CBHUHonorData@@@std@@@3@$0A@@std@@@std@@QAE@PAU_Node@?$_Tree_nod@V?$_Tmap_traits@HUHonorData@@U?$less@H@std@@V?$allocator@U?$pair@$$CBHUHonorData@@@std@@@3@$0A@@std@@@2@@Z
_TEXT	SEGMENT PARA USE32 PUBLIC 'CODE'
_TEXT	ENDS
;	COMDAT ??Dconst_iterator@?$_Tree@V?$_Tmap_traits@HUHonorData@@U?$less@H@std@@V?$allocator@U?$pair@$$CBHUHonorData@@@std@@@3@$0A@@std@@@std@@QBEABU?$pair@$$CBHUHonorData@@@2@XZ
_TEXT	SEGMENT PARA USE32 PUBLIC 'CODE'
_TEXT	ENDS
;	COMDAT ??Fconst_iterator@?$_Tree@V?$_Tmap_traits@HUHonorData@@U?$less@H@std@@V?$allocator@U?$pair@$$CBHUHonorData@@@std@@@3@$0A@@std@@@std@@QAEAAV012@XZ
_TEXT	SEGMENT PARA USE32 PUBLIC 'CODE'
_TEXT	ENDS
;	COMDAT ?_Inc@const_iterator@?$_Tree@V?$_Tmap_traits@HUHonorData@@U?$less@H@std@@V?$allocator@U?$pair@$$CBHUHonorData@@@std@@@3@$0A@@std@@@std@@QAEXXZ
_TEXT	SEGMENT PARA USE32 PUBLIC 'CODE'
_TEXT	ENDS
;	COMDAT ?erase@?$_Tree@V?$_Tmap_traits@HUHonorData@@U?$less@H@std@@V?$allocator@U?$pair@$$CBHUHonorData@@@std@@@3@$0A@@std@@@std@@QAE?AViterator@12@V312@@Z
_TEXT	SEGMENT PARA USE32 PUBLIC 'CODE'
_TEXT	ENDS
;	COMDAT ?_Min@?$_Tree@V?$_Tmap_traits@HUHonorData@@U?$less@H@std@@V?$allocator@U?$pair@$$CBHUHonorData@@@std@@@3@$0A@@std@@@std@@KAPAU_Node@?$_Tree_nod@V?$_Tmap_traits@HUHonorData@@U?$less@H@std@@V?$allocator@U?$pair@$$CBHUHonorData@@@std@@@3@$0A@@std@@@2@PAU342@@Z
_TEXT	SEGMENT PARA USE32 PUBLIC 'CODE'
_TEXT	ENDS
;	COMDAT ?_Root@?$_Tree@V?$_Tmap_traits@HUHonorData@@U?$less@H@std@@V?$allocator@U?$pair@$$CBHUHonorData@@@std@@@3@$0A@@std@@@std@@IBEAAPAU_Node@?$_Tree_nod@V?$_Tmap_traits@HUHonorData@@U?$less@H@std@@V?$allocator@U?$pair@$$CBHUHonorData@@@std@@@3@$0A@@std@@@2@XZ
_TEXT	SEGMENT PARA USE32 PUBLIC 'CODE'
_TEXT	ENDS
;	COMDAT ?_Buynode@?$_Tree@V?$_Tmap_traits@HUHonorData@@U?$less@H@std@@V?$allocator@U?$pair@$$CBHUHonorData@@@std@@@3@$0A@@std@@@std@@IAEPAU_Node@?$_Tree_nod@V?$_Tmap_traits@HUHonorData@@U?$less@H@std@@V?$allocator@U?$pair@$$CBHUHonorData@@@std@@@3@$0A@@std@@@2@XZ
_TEXT	SEGMENT PARA USE32 PUBLIC 'CODE'
_TEXT	ENDS
;	COMDAT ??0?$_Tree_ptr@V?$_Tmap_traits@HUHonorData@@U?$less@H@std@@V?$allocator@U?$pair@$$CBHUHonorData@@@std@@@3@$0A@@std@@@std@@IAE@ABU?$less@H@1@V?$allocator@U?$pair@$$CBHUHonorData@@@std@@@1@@Z
_TEXT	SEGMENT PARA USE32 PUBLIC 'CODE'
_TEXT	ENDS
;	COMDAT ?max_size@?$allocator@U?$pair@$$CBHUHonorData@@@std@@@std@@QBEIXZ
_TEXT	SEGMENT PARA USE32 PUBLIC 'CODE'
_TEXT	ENDS
;	COMDAT ?allocate@?$allocator@U_Node@?$_Tree_nod@V?$_Tmap_traits@HUHonorData@@U?$less@H@std@@V?$allocator@U?$pair@$$CBHUHonorData@@@std@@@3@$0A@@std@@@std@@@std@@QAEPAU_Node@?$_Tree_nod@V?$_Tmap_traits@HUHonorData@@U?$less@H@std@@V?$allocator@U?$pair@$$CBHUHonorData@@@std@@@3@$0A@@std@@@2@I@Z
_TEXT	SEGMENT PARA USE32 PUBLIC 'CODE'
_TEXT	ENDS
;	COMDAT ??Eiterator@?$_Tree@V?$_Tmap_traits@HUHonorData@@U?$less@H@std@@V?$allocator@U?$pair@$$CBHUHonorData@@@std@@@3@$0A@@std@@@std@@QAE?AV012@H@Z
_TEXT	SEGMENT PARA USE32 PUBLIC 'CODE'
_TEXT	ENDS
;	COMDAT ?_Dec@const_iterator@?$_Tree@V?$_Tmap_traits@HUHonorData@@U?$less@H@std@@V?$allocator@U?$pair@$$CBHUHonorData@@@std@@@3@$0A@@std@@@std@@QAEXXZ
_TEXT	SEGMENT PARA USE32 PUBLIC 'CODE'
_TEXT	ENDS
;	COMDAT ??0_Node@?$_Tree_nod@V?$_Tmap_traits@HUHonorData@@U?$less@H@std@@V?$allocator@U?$pair@$$CBHUHonorData@@@std@@@3@$0A@@std@@@std@@QAE@PAU012@00ABU?$pair@$$CBHUHonorData@@@2@D@Z
_TEXT	SEGMENT PARA USE32 PUBLIC 'CODE'
_TEXT	ENDS
;	COMDAT ??0?$pair@$$CBHUHonorData@@@std@@QAE@ABU01@@Z
_TEXT	SEGMENT PARA USE32 PUBLIC 'CODE'
_TEXT	ENDS
;	COMDAT ?_Max@?$_Tree@V?$_Tmap_traits@HUHonorData@@U?$less@H@std@@V?$allocator@U?$pair@$$CBHUHonorData@@@std@@@3@$0A@@std@@@std@@KAPAU_Node@?$_Tree_nod@V?$_Tmap_traits@HUHonorData@@U?$less@H@std@@V?$allocator@U?$pair@$$CBHUHonorData@@@std@@@3@$0A@@std@@@2@PAU342@@Z
_TEXT	SEGMENT PARA USE32 PUBLIC 'CODE'
_TEXT	ENDS
;	COMDAT ??0?$_Tree_nod@V?$_Tmap_traits@HUHonorData@@U?$less@H@std@@V?$allocator@U?$pair@$$CBHUHonorData@@@std@@@3@$0A@@std@@@std@@IAE@ABU?$less@H@1@V?$allocator@U?$pair@$$CBHUHonorData@@@std@@@1@@Z
_TEXT	SEGMENT PARA USE32 PUBLIC 'CODE'
_TEXT	ENDS
;	COMDAT ?construct@?$allocator@PAU_Node@?$_Tree_nod@V?$_Tmap_traits@HUHonorData@@U?$less@H@std@@V?$allocator@U?$pair@$$CBHUHonorData@@@std@@@3@$0A@@std@@@std@@@std@@QAEXPAPAU_Node@?$_Tree_nod@V?$_Tmap_traits@HUHonorData@@U?$less@H@std@@V?$allocator@U?$pair@$$CBHUHonorData@@@std@@@3@$0A@@std@@@2@ABQAU342@@Z
_TEXT	SEGMENT PARA USE32 PUBLIC 'CODE'
_TEXT	ENDS
;	COMDAT ??0?$_Tmap_traits@HUHonorData@@U?$less@H@std@@V?$allocator@U?$pair@$$CBHUHonorData@@@std@@@3@$0A@@std@@QAE@U?$less@H@1@@Z
_TEXT	SEGMENT PARA USE32 PUBLIC 'CODE'
_TEXT	ENDS
;	COMDAT ??$_Iter_cat@Viterator@?$_Tree@V?$_Tmap_traits@KU_Friend@@U?$less@K@std@@V?$allocator@U?$pair@$$CBKU_Friend@@@std@@@3@$0A@@std@@@std@@@std@@YA?AUbidirectional_iterator_tag@0@ABViterator@?$_Tree@V?$_Tmap_traits@KU_Friend@@U?$less@K@std@@V?$allocator@U?$pair@$$CBKU_Friend@@@std@@@3@$0A@@std@@@0@@Z
_TEXT	SEGMENT PARA USE32 PUBLIC 'CODE'
_TEXT	ENDS
;	COMDAT ??$_Distance2@Viterator@?$_Tree@V?$_Tmap_traits@KU_Friend@@U?$less@K@std@@V?$allocator@U?$pair@$$CBKU_Friend@@@std@@@3@$0A@@std@@@std@@I@std@@YAXViterator@?$_Tree@V?$_Tmap_traits@KU_Friend@@U?$less@K@std@@V?$allocator@U?$pair@$$CBKU_Friend@@@std@@@3@$0A@@std@@@0@0AAIUbidirectional_iterator_tag@0@@Z
_TEXT	SEGMENT PARA USE32 PUBLIC 'CODE'
_TEXT	ENDS
;	COMDAT ??$_Copy_opt@PAJPAJ@std@@YAPAJPAJ00U_Scalar_ptr_iterator_tag@0@@Z
_TEXT	SEGMENT PARA USE32 PUBLIC 'CODE'
_TEXT	ENDS
;	COMDAT ??$_Uninitialized_copy@PAJPAJV?$allocator@J@std@@@std@@YAPAJPAJ00AAV?$allocator@J@0@@Z
_TEXT	SEGMENT PARA USE32 PUBLIC 'CODE'
_TEXT	ENDS
;	COMDAT ??$_Copy_backward_opt@PAJPAJ@std@@YAPAJPAJ00U_Scalar_ptr_iterator_tag@0@@Z
_TEXT	SEGMENT PARA USE32 PUBLIC 'CODE'
_TEXT	ENDS
;	COMDAT ??$_Ptr_cat@PAUtagDROPITEM@@PAU1@@std@@YA?AU_Nonscalar_ptr_iterator_tag@0@AAPAUtagDROPITEM@@0@Z
_TEXT	SEGMENT PARA USE32 PUBLIC 'CODE'
_TEXT	ENDS
;	COMDAT ??$_Destroy_range@UtagDROPITEM@@V?$allocator@UtagDROPITEM@@@std@@@std@@YAXPAUtagDROPITEM@@0AAV?$allocator@UtagDROPITEM@@@0@U_Nonscalar_ptr_iterator_tag@0@@Z
_TEXT	SEGMENT PARA USE32 PUBLIC 'CODE'
_TEXT	ENDS
;	COMDAT ??$_Destroy_range@KV?$allocator@K@std@@@std@@YAXPAK0AAV?$allocator@K@0@U_Scalar_ptr_iterator_tag@0@@Z
_TEXT	SEGMENT PARA USE32 PUBLIC 'CODE'
_TEXT	ENDS
;	COMDAT ??$_Destroy_range@JV?$allocator@J@std@@@std@@YAXPAJ0AAV?$allocator@J@0@U_Scalar_ptr_iterator_tag@0@@Z
_TEXT	SEGMENT PARA USE32 PUBLIC 'CODE'
_TEXT	ENDS
;	COMDAT ??$_Uninit_fill_n@JIJ@std@@YAXPAJIABJAAV?$allocator@J@0@U_Scalar_ptr_iterator_tag@0@@Z
_TEXT	SEGMENT PARA USE32 PUBLIC 'CODE'
_TEXT	ENDS
;	COMDAT ??$_Destroy@U_Node@?$_Tree_nod@V?$_Tmap_traits@HUHonorData@@U?$less@H@std@@V?$allocator@U?$pair@$$CBHUHonorData@@@std@@@3@$0A@@std@@@std@@@std@@YAXPAU_Node@?$_Tree_nod@V?$_Tmap_traits@HUHonorData@@U?$less@H@std@@V?$allocator@U?$pair@$$CBHUHonorData@@@std@@@3@$0A@@std@@@0@@Z
_TEXT	SEGMENT PARA USE32 PUBLIC 'CODE'
_TEXT	ENDS
;	COMDAT ??$_Destroy@PAU_Node@?$_Tree_nod@V?$_Tmap_traits@HUHonorData@@U?$less@H@std@@V?$allocator@U?$pair@$$CBHUHonorData@@@std@@@3@$0A@@std@@@std@@@std@@YAXPAPAU_Node@?$_Tree_nod@V?$_Tmap_traits@HUHonorData@@U?$less@H@std@@V?$allocator@U?$pair@$$CBHUHonorData@@@std@@@3@$0A@@std@@@0@@Z
_TEXT	SEGMENT PARA USE32 PUBLIC 'CODE'
_TEXT	ENDS
;	COMDAT ??$?0U?$pair@$$CBHUHonorData@@@std@@@?$allocator@PAU_Node@?$_Tree_nod@V?$_Tmap_traits@HUHonorData@@U?$less@H@std@@V?$allocator@U?$pair@$$CBHUHonorData@@@std@@@3@$0A@@std@@@std@@@std@@QAE@ABV?$allocator@U?$pair@$$CBHUHonorData@@@std@@@1@@Z
_TEXT	SEGMENT PARA USE32 PUBLIC 'CODE'
_TEXT	ENDS
;	COMDAT ??$_Allocate@U_Node@?$_Tree_nod@V?$_Tmap_traits@HUHonorData@@U?$less@H@std@@V?$allocator@U?$pair@$$CBHUHonorData@@@std@@@3@$0A@@std@@@std@@@std@@YAPAU_Node@?$_Tree_nod@V?$_Tmap_traits@HUHonorData@@U?$less@H@std@@V?$allocator@U?$pair@$$CBHUHonorData@@@std@@@3@$0A@@std@@@0@IPAU120@@Z
_TEXT	SEGMENT PARA USE32 PUBLIC 'CODE'
_TEXT	ENDS
;	COMDAT ??$?0U?$pair@$$CBHUHonorData@@@std@@@?$allocator@U_Node@?$_Tree_nod@V?$_Tmap_traits@HUHonorData@@U?$less@H@std@@V?$allocator@U?$pair@$$CBHUHonorData@@@std@@@3@$0A@@std@@@std@@@std@@QAE@ABV?$allocator@U?$pair@$$CBHUHonorData@@@std@@@1@@Z
_TEXT	SEGMENT PARA USE32 PUBLIC 'CODE'
_TEXT	ENDS
;	COMDAT ??$_Construct@PAU_Node@?$_Tree_nod@V?$_Tmap_traits@HUHonorData@@U?$less@H@std@@V?$allocator@U?$pair@$$CBHUHonorData@@@std@@@3@$0A@@std@@@std@@PAU123@@std@@YAXPAPAU_Node@?$_Tree_nod@V?$_Tmap_traits@HUHonorData@@U?$less@H@std@@V?$allocator@U?$pair@$$CBHUHonorData@@@std@@@3@$0A@@std@@@0@ABQAU120@@Z
_TEXT	SEGMENT PARA USE32 PUBLIC 'CODE'
_TEXT	ENDS
;	COMDAT ??_G_Node@?$_Tree_nod@V?$_Tmap_traits@HUHonorData@@U?$less@H@std@@V?$allocator@U?$pair@$$CBHUHonorData@@@std@@@3@$0A@@std@@@std@@QAEPAXI@Z
_TEXT	SEGMENT PARA USE32 PUBLIC 'CODE'
_TEXT	ENDS
;	COMDAT ??1_Node@?$_Tree_nod@V?$_Tmap_traits@HUHonorData@@U?$less@H@std@@V?$allocator@U?$pair@$$CBHUHonorData@@@std@@@3@$0A@@std@@@std@@QAE@XZ
_TEXT	SEGMENT PARA USE32 PUBLIC 'CODE'
_TEXT	ENDS
;	COMDAT ?destroy@?$allocator@UtagDROPITEM@@@std@@QAEXPAUtagDROPITEM@@@Z
_TEXT	SEGMENT PARA USE32 PUBLIC 'CODE'
_TEXT	ENDS
;	COMDAT ??$_Uninit_copy@JJ@std@@YAPAJPAJ00AAV?$allocator@J@0@U_Scalar_ptr_iterator_tag@0@@Z
_TEXT	SEGMENT PARA USE32 PUBLIC 'CODE'
_TEXT	ENDS
;	COMDAT ??$fill_n@PAJIJ@std@@YAXPAJIABJ@Z
_TEXT	SEGMENT PARA USE32 PUBLIC 'CODE'
_TEXT	ENDS
;	COMDAT ??$_Destroy@UtagDROPITEM@@@std@@YAXPAUtagDROPITEM@@@Z
_TEXT	SEGMENT PARA USE32 PUBLIC 'CODE'
_TEXT	ENDS
;	COMDAT ?_Ptr_cat@std@@YA?AU_Scalar_ptr_iterator_tag@1@PAJ0@Z
_TEXT	SEGMENT PARA USE32 PUBLIC 'CODE'
_TEXT	ENDS
;	COMDAT ??9const_iterator@?$_Tree@V?$_Tmap_traits@KU_Friend@@U?$less@K@std@@V?$allocator@U?$pair@$$CBKU_Friend@@@std@@@3@$0A@@std@@@std@@QBE_NABV012@@Z
_TEXT	SEGMENT PARA USE32 PUBLIC 'CODE'
_TEXT	ENDS
;	COMDAT ??8const_iterator@?$_Tree@V?$_Tmap_traits@KU_Friend@@U?$less@K@std@@V?$allocator@U?$pair@$$CBKU_Friend@@@std@@@3@$0A@@std@@@std@@QBE_NABV012@@Z
_TEXT	SEGMENT PARA USE32 PUBLIC 'CODE'
_TEXT	ENDS
;	COMDAT ??Eiterator@?$_Tree@V?$_Tmap_traits@KU_Friend@@U?$less@K@std@@V?$allocator@U?$pair@$$CBKU_Friend@@@std@@@3@$0A@@std@@@std@@QAEAAV012@XZ
_TEXT	SEGMENT PARA USE32 PUBLIC 'CODE'
_TEXT	ENDS
;	COMDAT ??Econst_iterator@?$_Tree@V?$_Tmap_traits@KU_Friend@@U?$less@K@std@@V?$allocator@U?$pair@$$CBKU_Friend@@@std@@@3@$0A@@std@@@std@@QAEAAV012@XZ
_TEXT	SEGMENT PARA USE32 PUBLIC 'CODE'
_TEXT	ENDS
;	COMDAT ?_Inc@const_iterator@?$_Tree@V?$_Tmap_traits@KU_Friend@@U?$less@K@std@@V?$allocator@U?$pair@$$CBKU_Friend@@@std@@@3@$0A@@std@@@std@@QAEXXZ
_TEXT	SEGMENT PARA USE32 PUBLIC 'CODE'
_TEXT	ENDS
;	COMDAT ?_Min@?$_Tree@V?$_Tmap_traits@KU_Friend@@U?$less@K@std@@V?$allocator@U?$pair@$$CBKU_Friend@@@std@@@3@$0A@@std@@@std@@KAPAU_Node@?$_Tree_nod@V?$_Tmap_traits@KU_Friend@@U?$less@K@std@@V?$allocator@U?$pair@$$CBKU_Friend@@@std@@@3@$0A@@std@@@2@PAU342@@Z
_TEXT	SEGMENT PARA USE32 PUBLIC 'CODE'
_TEXT	ENDS
;	COMDAT ?_Left@?$_Tree@V?$_Tmap_traits@KU_Friend@@U?$less@K@std@@V?$allocator@U?$pair@$$CBKU_Friend@@@std@@@3@$0A@@std@@@std@@KAAAPAU_Node@?$_Tree_nod@V?$_Tmap_traits@KU_Friend@@U?$less@K@std@@V?$allocator@U?$pair@$$CBKU_Friend@@@std@@@3@$0A@@std@@@2@PAU342@@Z
_TEXT	SEGMENT PARA USE32 PUBLIC 'CODE'
_TEXT	ENDS
;	COMDAT ?_Isnil@?$_Tree@V?$_Tmap_traits@KU_Friend@@U?$less@K@std@@V?$allocator@U?$pair@$$CBKU_Friend@@@std@@@3@$0A@@std@@@std@@KAAADPAU_Node@?$_Tree_nod@V?$_Tmap_traits@KU_Friend@@U?$less@K@std@@V?$allocator@U?$pair@$$CBKU_Friend@@@std@@@3@$0A@@std@@@2@@Z
_TEXT	SEGMENT PARA USE32 PUBLIC 'CODE'
_TEXT	ENDS
;	COMDAT ?_Parent@?$_Tree@V?$_Tmap_traits@KU_Friend@@U?$less@K@std@@V?$allocator@U?$pair@$$CBKU_Friend@@@std@@@3@$0A@@std@@@std@@KAAAPAU_Node@?$_Tree_nod@V?$_Tmap_traits@KU_Friend@@U?$less@K@std@@V?$allocator@U?$pair@$$CBKU_Friend@@@std@@@3@$0A@@std@@@2@PAU342@@Z
_TEXT	SEGMENT PARA USE32 PUBLIC 'CODE'
_TEXT	ENDS
;	COMDAT ?_Right@?$_Tree@V?$_Tmap_traits@KU_Friend@@U?$less@K@std@@V?$allocator@U?$pair@$$CBKU_Friend@@@std@@@3@$0A@@std@@@std@@KAAAPAU_Node@?$_Tree_nod@V?$_Tmap_traits@KU_Friend@@U?$less@K@std@@V?$allocator@U?$pair@$$CBKU_Friend@@@std@@@3@$0A@@std@@@2@PAU342@@Z
_TEXT	SEGMENT PARA USE32 PUBLIC 'CODE'
_TEXT	ENDS
;	COMDAT ?_Psave@?$_Facetptr@V?$ctype@G@std@@@std@@2PBVfacet@locale@2@B
_DATA	SEGMENT DWORD USE32 PUBLIC 'DATA'
_DATA	ENDS
;	COMDAT ?_Psave@?$_Facetptr@V?$ctype@D@std@@@std@@2PBVfacet@locale@2@B
_DATA	SEGMENT DWORD USE32 PUBLIC 'DATA'
_DATA	ENDS
;	COMDAT ??$swap@D@std@@YAXAAD0@Z
_TEXT	SEGMENT PARA USE32 PUBLIC 'CODE'
_TEXT	ENDS
;	COMDAT __TI3?AVout_of_range@std@@
xdata$x	SEGMENT DWORD USE32 PUBLIC 'CONST'
xdata$x	ENDS
;	COMDAT ??1out_of_range@std@@UAE@XZ
_TEXT	SEGMENT PARA USE32 PUBLIC 'CODE'
_TEXT	ENDS
;	COMDAT ??_7out_of_range@std@@6B@
CONST	SEGMENT DWORD USE32 PUBLIC 'CONST'
CONST	ENDS
;	COMDAT ??_Gout_of_range@std@@UAEPAXI@Z
_TEXT	SEGMENT PARA USE32 PUBLIC 'CODE'
_TEXT	ENDS
;	COMDAT ?what@logic_error@std@@UBEPBDXZ
_TEXT	SEGMENT PARA USE32 PUBLIC 'CODE'
_TEXT	ENDS
;	COMDAT ?c_str@?$basic_string@DU?$char_traits@D@std@@V?$allocator@D@2@@std@@QBEPBDXZ
_TEXT	SEGMENT PARA USE32 PUBLIC 'CODE'
_TEXT	ENDS
;	COMDAT ??1logic_error@std@@UAE@XZ
_TEXT	SEGMENT PARA USE32 PUBLIC 'CODE'
_TEXT	ENDS
;	COMDAT ??_7logic_error@std@@6B@
CONST	SEGMENT DWORD USE32 PUBLIC 'CONST'
CONST	ENDS
;	COMDAT ??_Glogic_error@std@@UAEPAXI@Z
_TEXT	SEGMENT PARA USE32 PUBLIC 'CODE'
_TEXT	ENDS
;	COMDAT __CTA3?AVout_of_range@std@@
xdata$x	SEGMENT DWORD USE32 PUBLIC 'CONST'
xdata$x	ENDS
;	COMDAT __CT??_R0?AVout_of_range@std@@@8??0out_of_range@std@@QAE@ABV01@@Z40
xdata$x	SEGMENT DWORD USE32 PUBLIC 'CONST'
xdata$x	ENDS
;	COMDAT ??_R0?AVout_of_range@std@@@8
_DATA	SEGMENT DWORD USE32 PUBLIC 'DATA'
_DATA	ENDS
;	COMDAT ??0out_of_range@std@@QAE@ABV01@@Z
_TEXT	SEGMENT PARA USE32 PUBLIC 'CODE'
_TEXT	ENDS
;	COMDAT ??0logic_error@std@@QAE@ABV01@@Z
_TEXT	SEGMENT PARA USE32 PUBLIC 'CODE'
_TEXT	ENDS
;	COMDAT ??0?$basic_string@DU?$char_traits@D@std@@V?$allocator@D@2@@std@@QAE@ABV01@@Z
_TEXT	SEGMENT PARA USE32 PUBLIC 'CODE'
_TEXT	ENDS
;	COMDAT ??0?$_String_val@DV?$allocator@D@std@@@std@@IAE@V?$allocator@D@1@@Z
_TEXT	SEGMENT PARA USE32 PUBLIC 'CODE'
_TEXT	ENDS
;	COMDAT ??0?$allocator@D@std@@QAE@ABV01@@Z
_TEXT	SEGMENT PARA USE32 PUBLIC 'CODE'
_TEXT	ENDS
;	COMDAT ?_Tidy@?$basic_string@DU?$char_traits@D@std@@V?$allocator@D@2@@std@@IAEX_NI@Z
_TEXT	SEGMENT PARA USE32 PUBLIC 'CODE'
_TEXT	ENDS
;	COMDAT ?copy@?$char_traits@D@std@@SAPADPADPBDI@Z
_TEXT	SEGMENT PARA USE32 PUBLIC 'CODE'
_TEXT	ENDS
;	COMDAT ?deallocate@?$allocator@D@std@@QAEXPADI@Z
_TEXT	SEGMENT PARA USE32 PUBLIC 'CODE'
_TEXT	ENDS
;	COMDAT ?_Eos@?$basic_string@DU?$char_traits@D@std@@V?$allocator@D@2@@std@@IAEXI@Z
_TEXT	SEGMENT PARA USE32 PUBLIC 'CODE'
_TEXT	ENDS
;	COMDAT ?assign@?$char_traits@D@std@@SAXAADABD@Z
_TEXT	SEGMENT PARA USE32 PUBLIC 'CODE'
_TEXT	ENDS
;	COMDAT ?_Myptr@?$basic_string@DU?$char_traits@D@std@@V?$allocator@D@2@@std@@QAEPADXZ
_TEXT	SEGMENT PARA USE32 PUBLIC 'CODE'
_TEXT	ENDS
;	COMDAT ?assign@?$basic_string@DU?$char_traits@D@std@@V?$allocator@D@2@@std@@QAEAAV12@ABV12@II@Z
_TEXT	SEGMENT PARA USE32 PUBLIC 'CODE'
_TEXT	ENDS
;	COMDAT ?erase@?$basic_string@DU?$char_traits@D@std@@V?$allocator@D@2@@std@@QAEAAV12@II@Z
_TEXT	SEGMENT PARA USE32 PUBLIC 'CODE'
_TEXT	ENDS
;	COMDAT ?move@?$char_traits@D@std@@SAPADPADPBDI@Z
_TEXT	SEGMENT PARA USE32 PUBLIC 'CODE'
_TEXT	ENDS
;	COMDAT ?_Grow@?$basic_string@DU?$char_traits@D@std@@V?$allocator@D@2@@std@@IAE_NI_N@Z
_TEXT	SEGMENT PARA USE32 PUBLIC 'CODE'
_TEXT	ENDS
;	COMDAT ?max_size@?$basic_string@DU?$char_traits@D@std@@V?$allocator@D@2@@std@@QBEIXZ
_TEXT	SEGMENT PARA USE32 PUBLIC 'CODE'
_TEXT	ENDS
;	COMDAT ?max_size@?$allocator@D@std@@QBEIXZ
_TEXT	SEGMENT PARA USE32 PUBLIC 'CODE'
_TEXT	ENDS
;	COMDAT ?_Copy@?$basic_string@DU?$char_traits@D@std@@V?$allocator@D@2@@std@@IAEXII@Z
_TEXT	SEGMENT PARA USE32 PUBLIC 'CODE'
_TEXT	ENDS
;	COMDAT ?allocate@?$allocator@D@std@@QAEPADI@Z
_TEXT	SEGMENT PARA USE32 PUBLIC 'CODE'
_TEXT	ENDS
;	COMDAT ??$_Allocate@D@std@@YAPADIPAD@Z
_TEXT	SEGMENT PARA USE32 PUBLIC 'CODE'
_TEXT	ENDS
;	COMDAT ?npos@?$basic_string@DU?$char_traits@D@std@@V?$allocator@D@2@@std@@2IB
CONST	SEGMENT DWORD USE32 PUBLIC 'CONST'
CONST	ENDS
;	COMDAT __CT??_R0?AVlogic_error@std@@@8??0logic_error@std@@QAE@ABV01@@Z40
xdata$x	SEGMENT DWORD USE32 PUBLIC 'CONST'
xdata$x	ENDS
;	COMDAT ??_R0?AVlogic_error@std@@@8
_DATA	SEGMENT DWORD USE32 PUBLIC 'DATA'
_DATA	ENDS
;	COMDAT __CT??_R0?AVexception@@@8??0exception@@QAE@ABV0@@Z12
xdata$x	SEGMENT DWORD USE32 PUBLIC 'CONST'
xdata$x	ENDS
;	COMDAT ??_R0?AVexception@@@8
_DATA	SEGMENT DWORD USE32 PUBLIC 'DATA'
_DATA	ENDS
;	COMDAT ??_C@_0BM@PAPJHAGI@invalid?5map?1set?$DMT?$DO?5iterator?$AA@
CONST	SEGMENT DWORD USE32 PUBLIC 'CONST'
CONST	ENDS
;	COMDAT ??0out_of_range@std@@QAE@ABV?$basic_string@DU?$char_traits@D@std@@V?$allocator@D@2@@1@@Z
_TEXT	SEGMENT PARA USE32 PUBLIC 'CODE'
_TEXT	ENDS
;	COMDAT ??0logic_error@std@@QAE@ABV?$basic_string@DU?$char_traits@D@std@@V?$allocator@D@2@@1@@Z
_TEXT	SEGMENT PARA USE32 PUBLIC 'CODE'
_TEXT	ENDS
;	COMDAT ??3@YAXPAX0@Z
_TEXT	SEGMENT PARA USE32 PUBLIC 'CODE'
_TEXT	ENDS
;	COMDAT ??2@YAPAXIPAX@Z
_TEXT	SEGMENT PARA USE32 PUBLIC 'CODE'
_TEXT	ENDS
;	COMDAT __TI3?AVlength_error@std@@
xdata$x	SEGMENT DWORD USE32 PUBLIC 'CONST'
xdata$x	ENDS
;	COMDAT ??1length_error@std@@UAE@XZ
_TEXT	SEGMENT PARA USE32 PUBLIC 'CODE'
_TEXT	ENDS
;	COMDAT ??_7length_error@std@@6B@
CONST	SEGMENT DWORD USE32 PUBLIC 'CONST'
CONST	ENDS
;	COMDAT ??_Glength_error@std@@UAEPAXI@Z
_TEXT	SEGMENT PARA USE32 PUBLIC 'CODE'
_TEXT	ENDS
;	COMDAT __CTA3?AVlength_error@std@@
xdata$x	SEGMENT DWORD USE32 PUBLIC 'CONST'
xdata$x	ENDS
;	COMDAT __CT??_R0?AVlength_error@std@@@8??0length_error@std@@QAE@ABV01@@Z40
xdata$x	SEGMENT DWORD USE32 PUBLIC 'CONST'
xdata$x	ENDS
;	COMDAT ??_R0?AVlength_error@std@@@8
_DATA	SEGMENT DWORD USE32 PUBLIC 'DATA'
_DATA	ENDS
;	COMDAT ??0length_error@std@@QAE@ABV01@@Z
_TEXT	SEGMENT PARA USE32 PUBLIC 'CODE'
_TEXT	ENDS
;	COMDAT ??1?$basic_string@DU?$char_traits@D@std@@V?$allocator@D@2@@std@@QAE@XZ
_TEXT	SEGMENT PARA USE32 PUBLIC 'CODE'
_TEXT	ENDS
;	COMDAT ??_C@_0BE@JONHPENG@map?1set?$DMT?$DO?5too?5long?$AA@
CONST	SEGMENT DWORD USE32 PUBLIC 'CONST'
CONST	ENDS
;	COMDAT ??0?$basic_string@DU?$char_traits@D@std@@V?$allocator@D@2@@std@@QAE@PBD@Z
_TEXT	SEGMENT PARA USE32 PUBLIC 'CODE'
_TEXT	ENDS
;	COMDAT ??0?$allocator@D@std@@QAE@XZ
_TEXT	SEGMENT PARA USE32 PUBLIC 'CODE'
_TEXT	ENDS
;	COMDAT ?assign@?$basic_string@DU?$char_traits@D@std@@V?$allocator@D@2@@std@@QAEAAV12@PBD@Z
_TEXT	SEGMENT PARA USE32 PUBLIC 'CODE'
_TEXT	ENDS
;	COMDAT ?assign@?$basic_string@DU?$char_traits@D@std@@V?$allocator@D@2@@std@@QAEAAV12@PBDI@Z
_TEXT	SEGMENT PARA USE32 PUBLIC 'CODE'
_TEXT	ENDS
;	COMDAT ?_Inside@?$basic_string@DU?$char_traits@D@std@@V?$allocator@D@2@@std@@IAE_NPBD@Z
_TEXT	SEGMENT PARA USE32 PUBLIC 'CODE'
_TEXT	ENDS
;	COMDAT ?length@?$char_traits@D@std@@SAIPBD@Z
_TEXT	SEGMENT PARA USE32 PUBLIC 'CODE'
_TEXT	ENDS
;	COMDAT ??0length_error@std@@QAE@ABV?$basic_string@DU?$char_traits@D@std@@V?$allocator@D@2@@1@@Z
_TEXT	SEGMENT PARA USE32 PUBLIC 'CODE'
_TEXT	ENDS
;	COMDAT ?compare@?$char_traits@D@std@@SAHPBD0I@Z
_TEXT	SEGMENT PARA USE32 PUBLIC 'CODE'
_TEXT	ENDS
;	COMDAT ?_Myptr@?$basic_string@DU?$char_traits@D@std@@V?$allocator@D@2@@std@@QBEPBDXZ
_TEXT	SEGMENT PARA USE32 PUBLIC 'CODE'
_TEXT	ENDS
;	COMDAT ?size@?$basic_string@DU?$char_traits@D@std@@V?$allocator@D@2@@std@@QBEIXZ
_TEXT	SEGMENT PARA USE32 PUBLIC 'CODE'
_TEXT	ENDS
;	COMDAT ??0?$CStringT@DV?$StrTraitMFC@DV?$ChTraitsCRT@D@ATL@@@@@ATL@@QAE@ABV01@@Z
_TEXT	SEGMENT PARA USE32 PUBLIC 'CODE'
_TEXT	ENDS
;	COMDAT ??0?$CSimpleStringT@D$0A@@ATL@@QAE@ABV01@@Z
_TEXT	SEGMENT PARA USE32 PUBLIC 'CODE'
_TEXT	ENDS
;	COMDAT ?GetData@?$CSimpleStringT@D$0A@@ATL@@ABEPAUCStringData@2@XZ
_TEXT	SEGMENT PARA USE32 PUBLIC 'CODE'
_TEXT	ENDS
;	COMDAT ?CloneData@?$CSimpleStringT@D$0A@@ATL@@CAPAUCStringData@2@PAU32@@Z
_TEXT	SEGMENT PARA USE32 PUBLIC 'CODE'
_TEXT	ENDS
;	COMDAT ?IsLocked@CStringData@ATL@@QBE_NXZ
_TEXT	SEGMENT PARA USE32 PUBLIC 'CODE'
_TEXT	ENDS
;	COMDAT ?AddRef@CStringData@ATL@@QAEXXZ
_TEXT	SEGMENT PARA USE32 PUBLIC 'CODE'
_TEXT	ENDS
;	COMDAT ?ThrowMemoryException@?$CSimpleStringT@D$0A@@ATL@@KAXXZ
_TEXT	SEGMENT PARA USE32 PUBLIC 'CODE'
_TEXT	ENDS
;	COMDAT ?AtlThrow@ATL@@YGXJ@Z
_TEXT	SEGMENT PARA USE32 PUBLIC 'CODE'
_TEXT	ENDS
;	COMDAT ?CopyChars@?$CSimpleStringT@D$0A@@ATL@@SAXPADPBDH@Z
_TEXT	SEGMENT PARA USE32 PUBLIC 'CODE'
_TEXT	ENDS
;	COMDAT ?data@CStringData@ATL@@QAEPAXXZ
_TEXT	SEGMENT PARA USE32 PUBLIC 'CODE'
_TEXT	ENDS
;	COMDAT ?Attach@?$CSimpleStringT@D$0A@@ATL@@AAEXPAUCStringData@2@@Z
_TEXT	SEGMENT PARA USE32 PUBLIC 'CODE'
_TEXT	ENDS
;	COMDAT ??1?$CSimpleStringT@D$0A@@ATL@@QAE@XZ
_TEXT	SEGMENT PARA USE32 PUBLIC 'CODE'
_TEXT	ENDS
;	COMDAT ?Release@CStringData@ATL@@QAEXXZ
_TEXT	SEGMENT PARA USE32 PUBLIC 'CODE'
_TEXT	ENDS
;	COMDAT ??B?$CSimpleStringT@D$0A@@ATL@@QBEPBDXZ
_TEXT	SEGMENT PARA USE32 PUBLIC 'CODE'
_TEXT	ENDS
;	COMDAT ??4?$CStringT@DV?$StrTraitMFC@DV?$ChTraitsCRT@D@ATL@@@@@ATL@@QAEAAV01@ABV01@@Z
_TEXT	SEGMENT PARA USE32 PUBLIC 'CODE'
_TEXT	ENDS
;	COMDAT ??4?$CSimpleStringT@D$0A@@ATL@@QAEAAV01@ABV01@@Z
_TEXT	SEGMENT PARA USE32 PUBLIC 'CODE'
_TEXT	ENDS
;	COMDAT ?SetString@?$CSimpleStringT@D$0A@@ATL@@QAEXPBDH@Z
_TEXT	SEGMENT PARA USE32 PUBLIC 'CODE'
_TEXT	ENDS
;	COMDAT ?GetBuffer@?$CSimpleStringT@D$0A@@ATL@@QAEPADH@Z
_TEXT	SEGMENT PARA USE32 PUBLIC 'CODE'
_TEXT	ENDS
;	COMDAT ?PrepareWrite@?$CSimpleStringT@D$0A@@ATL@@AAEPADH@Z
_TEXT	SEGMENT PARA USE32 PUBLIC 'CODE'
_TEXT	ENDS
;	COMDAT ?PrepareWrite2@?$CSimpleStringT@D$0A@@ATL@@AAEXH@Z
_TEXT	SEGMENT PARA USE32 PUBLIC 'CODE'
_TEXT	ENDS
;	COMDAT ?IsShared@CStringData@ATL@@QBE_NXZ
_TEXT	SEGMENT PARA USE32 PUBLIC 'CODE'
_TEXT	ENDS
;	COMDAT ?Fork@?$CSimpleStringT@D$0A@@ATL@@AAEXH@Z
_TEXT	SEGMENT PARA USE32 PUBLIC 'CODE'
_TEXT	ENDS
;	COMDAT ?Reallocate@?$CSimpleStringT@D$0A@@ATL@@AAEXH@Z
_TEXT	SEGMENT PARA USE32 PUBLIC 'CODE'
_TEXT	ENDS
;	COMDAT ?CopyCharsOverlapped@?$CSimpleStringT@D$0A@@ATL@@SAXPADPBDH@Z
_TEXT	SEGMENT PARA USE32 PUBLIC 'CODE'
_TEXT	ENDS
;	COMDAT ?ReleaseBufferSetLength@?$CSimpleStringT@D$0A@@ATL@@QAEXH@Z
_TEXT	SEGMENT PARA USE32 PUBLIC 'CODE'
_TEXT	ENDS
;	COMDAT ?SetLength@?$CSimpleStringT@D$0A@@ATL@@AAEXH@Z
_TEXT	SEGMENT PARA USE32 PUBLIC 'CODE'
_TEXT	ENDS
;	COMDAT ?GetLength@?$CSimpleStringT@D$0A@@ATL@@QBEHXZ
_TEXT	SEGMENT PARA USE32 PUBLIC 'CODE'
_TEXT	ENDS
;	COMDAT ?GetString@?$CSimpleStringT@D$0A@@ATL@@QBEPBDXZ
_TEXT	SEGMENT PARA USE32 PUBLIC 'CODE'
_TEXT	ENDS
;	COMDAT ?tManager@?1??Instance@CTitleManager@@SAPAV2@XZ@4V2@A
_BSS	SEGMENT DWORD USE32 PUBLIC 'BSS'
_BSS	ENDS
;	COMDAT ?$S1@?1??Instance@CTitleManager@@SAPAV2@XZ@4IA
_BSS	SEGMENT DWORD USE32 PUBLIC 'BSS'
_BSS	ENDS
;	COMDAT ?Empty@?$CSimpleStringT@D$0A@@ATL@@QAEXXZ
_TEXT	SEGMENT PARA USE32 PUBLIC 'CODE'
_TEXT	ENDS
;	COMDAT ??1?$CStringT@DV?$StrTraitMFC@DV?$ChTraitsCRT@D@ATL@@@@@ATL@@QAE@XZ
_TEXT	SEGMENT PARA USE32 PUBLIC 'CODE'
_TEXT	ENDS
;	COMDAT ??0?$CStringT@DV?$StrTraitMFC@DV?$ChTraitsCRT@D@ATL@@@@@ATL@@QAE@XZ
_TEXT	SEGMENT PARA USE32 PUBLIC 'CODE'
_TEXT	ENDS
;	COMDAT ??0?$CSimpleStringT@D$0A@@ATL@@QAE@PAUIAtlStringMgr@1@@Z
_TEXT	SEGMENT PARA USE32 PUBLIC 'CODE'
_TEXT	ENDS
;	COMDAT ?GetDefaultManager@?$StrTraitMFC@DV?$ChTraitsCRT@D@ATL@@@@SAPAUIAtlStringMgr@ATL@@XZ
_TEXT	SEGMENT PARA USE32 PUBLIC 'CODE'
_TEXT	ENDS
sxdata	SEGMENT DWORD USE32 'SXDATA'
sxdata	ENDS
FLAT	GROUP _DATA, CONST, _BSS
	ASSUME	CS: FLAT, DS: FLAT, SS: FLAT
endif

INCLUDELIB LIBCMT
INCLUDELIB OLDNAMES

PUBLIC	??2@YAPAXIPAX@Z					; operator new
; Function compile flags: /Ogty
; File c:\program files\microsoft visual studio .net 2003\vc7\include\new.h
;	COMDAT ??2@YAPAXIPAX@Z
_TEXT	SEGMENT
___formal$ = 8						; size = 4
__P$ = 12						; size = 4
??2@YAPAXIPAX@Z PROC NEAR				; operator new, COMDAT

; 109  :         {return (_P); }

  00000	8b 44 24 08	 mov	 eax, DWORD PTR __P$[esp-4]
  00004	c3		 ret	 0
??2@YAPAXIPAX@Z ENDP					; operator new
_TEXT	ENDS
PUBLIC	??3@YAXPAX0@Z					; operator delete
; Function compile flags: /Ogty
;	COMDAT ??3@YAXPAX0@Z
_TEXT	SEGMENT
___formal$ = 8						; size = 4
___formal$ = 12						; size = 4
??3@YAXPAX0@Z PROC NEAR					; operator delete, COMDAT

; 112  :         {return; }

  00000	c3		 ret	 0
??3@YAXPAX0@Z ENDP					; operator delete
_TEXT	ENDS
PUBLIC	?size@?$_Tree@V?$_Tmap_traits@HUHonorData@@U?$less@H@std@@V?$allocator@U?$pair@$$CBHUHonorData@@@std@@@3@$0A@@std@@@std@@QBEIXZ ; std::_Tree<std::_Tmap_traits<int,HonorData,std::less<int>,std::allocator<std::pair<int const ,HonorData> >,0> >::size
; Function compile flags: /Ogty
; File c:\program files\microsoft visual studio .net 2003\vc7\include\xtree
;	COMDAT ?size@?$_Tree@V?$_Tmap_traits@HUHonorData@@U?$less@H@std@@V?$allocator@U?$pair@$$CBHUHonorData@@@std@@@3@$0A@@std@@@std@@QBEIXZ
_TEXT	SEGMENT
?size@?$_Tree@V?$_Tmap_traits@HUHonorData@@U?$less@H@std@@V?$allocator@U?$pair@$$CBHUHonorData@@@std@@@3@$0A@@std@@@std@@QBEIXZ PROC NEAR ; std::_Tree<std::_Tmap_traits<int,HonorData,std::less<int>,std::allocator<std::pair<int const ,HonorData> >,0> >::size, COMDAT
; _this$ = ecx

; 448  : 		return (_Mysize);

  00000	8b 41 08	 mov	 eax, DWORD PTR [ecx+8]

; 449  : 		}

  00003	c3		 ret	 0
?size@?$_Tree@V?$_Tmap_traits@HUHonorData@@U?$less@H@std@@V?$allocator@U?$pair@$$CBHUHonorData@@@std@@@3@$0A@@std@@@std@@QBEIXZ ENDP ; std::_Tree<std::_Tmap_traits<int,HonorData,std::less<int>,std::allocator<std::pair<int const ,HonorData> >,0> >::size
_TEXT	ENDS
PUBLIC	??R?$less@H@std@@QBE_NABH0@Z			; std::less<int>::operator()
; Function compile flags: /Ogty
; File c:\program files\microsoft visual studio .net 2003\vc7\include\functional
;	COMDAT ??R?$less@H@std@@QBE_NABH0@Z
_TEXT	SEGMENT
__Left$ = 8						; size = 4
__Right$ = 12						; size = 4
??R?$less@H@std@@QBE_NABH0@Z PROC NEAR			; std::less<int>::operator(), COMDAT
; _this$ = ecx

; 139  : 		return (_Left < _Right);

  00000	8b 44 24 04	 mov	 eax, DWORD PTR __Left$[esp-4]
  00004	8b 08		 mov	 ecx, DWORD PTR [eax]
  00006	8b 54 24 08	 mov	 edx, DWORD PTR __Right$[esp-4]
  0000a	56		 push	 esi
  0000b	8b 32		 mov	 esi, DWORD PTR [edx]
  0000d	33 c0		 xor	 eax, eax
  0000f	3b ce		 cmp	 ecx, esi
  00011	0f 9c c0	 setl	 al
  00014	5e		 pop	 esi

; 140  : 		}

  00015	c2 08 00	 ret	 8
??R?$less@H@std@@QBE_NABH0@Z ENDP			; std::less<int>::operator()
_TEXT	ENDS
PUBLIC	?_Isnil@?$_Tree@V?$_Tmap_traits@HUHonorData@@U?$less@H@std@@V?$allocator@U?$pair@$$CBHUHonorData@@@std@@@3@$0A@@std@@@std@@KAAADPAU_Node@?$_Tree_nod@V?$_Tmap_traits@HUHonorData@@U?$less@H@std@@V?$allocator@U?$pair@$$CBHUHonorData@@@std@@@3@$0A@@std@@@2@@Z ; std::_Tree<std::_Tmap_traits<int,HonorData,std::less<int>,std::allocator<std::pair<int const ,HonorData> >,0> >::_Isnil
; Function compile flags: /Ogty
; File c:\program files\microsoft visual studio .net 2003\vc7\include\xtree
;	COMDAT ?_Isnil@?$_Tree@V?$_Tmap_traits@HUHonorData@@U?$less@H@std@@V?$allocator@U?$pair@$$CBHUHonorData@@@std@@@3@$0A@@std@@@std@@KAAADPAU_Node@?$_Tree_nod@V?$_Tmap_traits@HUHonorData@@U?$less@H@std@@V?$allocator@U?$pair@$$CBHUHonorData@@@std@@@3@$0A@@std@@@2@@Z
_TEXT	SEGMENT
__Pnode$ = 8						; size = 4
?_Isnil@?$_Tree@V?$_Tmap_traits@HUHonorData@@U?$less@H@std@@V?$allocator@U?$pair@$$CBHUHonorData@@@std@@@3@$0A@@std@@@std@@KAAADPAU_Node@?$_Tree_nod@V?$_Tmap_traits@HUHonorData@@U?$less@H@std@@V?$allocator@U?$pair@$$CBHUHonorData@@@std@@@3@$0A@@std@@@2@@Z PROC NEAR ; std::_Tree<std::_Tmap_traits<int,HonorData,std::less<int>,std::allocator<std::pair<int const ,HonorData> >,0> >::_Isnil, COMDAT

; 137  : 		return ((_Charref)(*_Pnode)._Isnil);

  00000	8b 44 24 04	 mov	 eax, DWORD PTR __Pnode$[esp-4]
  00004	83 c0 29	 add	 eax, 41			; 00000029H

; 138  : 		}

  00007	c3		 ret	 0
?_Isnil@?$_Tree@V?$_Tmap_traits@HUHonorData@@U?$less@H@std@@V?$allocator@U?$pair@$$CBHUHonorData@@@std@@@3@$0A@@std@@@std@@KAAADPAU_Node@?$_Tree_nod@V?$_Tmap_traits@HUHonorData@@U?$less@H@std@@V?$allocator@U?$pair@$$CBHUHonorData@@@std@@@3@$0A@@std@@@2@@Z ENDP ; std::_Tree<std::_Tmap_traits<int,HonorData,std::less<int>,std::allocator<std::pair<int const ,HonorData> >,0> >::_Isnil
_TEXT	ENDS
PUBLIC	?_Left@?$_Tree@V?$_Tmap_traits@HUHonorData@@U?$less@H@std@@V?$allocator@U?$pair@$$CBHUHonorData@@@std@@@3@$0A@@std@@@std@@KAAAPAU_Node@?$_Tree_nod@V?$_Tmap_traits@HUHonorData@@U?$less@H@std@@V?$allocator@U?$pair@$$CBHUHonorData@@@std@@@3@$0A@@std@@@2@PAU342@@Z ; std::_Tree<std::_Tmap_traits<int,HonorData,std::less<int>,std::allocator<std::pair<int const ,HonorData> >,0> >::_Left
; Function compile flags: /Ogty
;	COMDAT ?_Left@?$_Tree@V?$_Tmap_traits@HUHonorData@@U?$less@H@std@@V?$allocator@U?$pair@$$CBHUHonorData@@@std@@@3@$0A@@std@@@std@@KAAAPAU_Node@?$_Tree_nod@V?$_Tmap_traits@HUHonorData@@U?$less@H@std@@V?$allocator@U?$pair@$$CBHUHonorData@@@std@@@3@$0A@@std@@@2@PAU342@@Z
_TEXT	SEGMENT
__Pnode$ = 8						; size = 4
?_Left@?$_Tree@V?$_Tmap_traits@HUHonorData@@U?$less@H@std@@V?$allocator@U?$pair@$$CBHUHonorData@@@std@@@3@$0A@@std@@@std@@KAAAPAU_Node@?$_Tree_nod@V?$_Tmap_traits@HUHonorData@@U?$less@H@std@@V?$allocator@U?$pair@$$CBHUHonorData@@@std@@@3@$0A@@std@@@2@PAU342@@Z PROC NEAR ; std::_Tree<std::_Tmap_traits<int,HonorData,std::less<int>,std::allocator<std::pair<int const ,HonorData> >,0> >::_Left, COMDAT

; 147  : 		return ((_Nodepref)(*_Pnode)._Left);

  00000	8b 44 24 04	 mov	 eax, DWORD PTR __Pnode$[esp-4]

; 148  : 		}

  00004	c3		 ret	 0
?_Left@?$_Tree@V?$_Tmap_traits@HUHonorData@@U?$less@H@std@@V?$allocator@U?$pair@$$CBHUHonorData@@@std@@@3@$0A@@std@@@std@@KAAAPAU_Node@?$_Tree_nod@V?$_Tmap_traits@HUHonorData@@U?$less@H@std@@V?$allocator@U?$pair@$$CBHUHonorData@@@std@@@3@$0A@@std@@@2@PAU342@@Z ENDP ; std::_Tree<std::_Tmap_traits<int,HonorData,std::less<int>,std::allocator<std::pair<int const ,HonorData> >,0> >::_Left
_TEXT	ENDS
PUBLIC	?_Right@?$_Tree@V?$_Tmap_traits@HUHonorData@@U?$less@H@std@@V?$allocator@U?$pair@$$CBHUHonorData@@@std@@@3@$0A@@std@@@std@@KAAAPAU_Node@?$_Tree_nod@V?$_Tmap_traits@HUHonorData@@U?$less@H@std@@V?$allocator@U?$pair@$$CBHUHonorData@@@std@@@3@$0A@@std@@@2@PAU342@@Z ; std::_Tree<std::_Tmap_traits<int,HonorData,std::less<int>,std::allocator<std::pair<int const ,HonorData> >,0> >::_Right
; Function compile flags: /Ogty
;	COMDAT ?_Right@?$_Tree@V?$_Tmap_traits@HUHonorData@@U?$less@H@std@@V?$allocator@U?$pair@$$CBHUHonorData@@@std@@@3@$0A@@std@@@std@@KAAAPAU_Node@?$_Tree_nod@V?$_Tmap_traits@HUHonorData@@U?$less@H@std@@V?$allocator@U?$pair@$$CBHUHonorData@@@std@@@3@$0A@@std@@@2@PAU342@@Z
_TEXT	SEGMENT
__Pnode$ = 8						; size = 4
?_Right@?$_Tree@V?$_Tmap_traits@HUHonorData@@U?$less@H@std@@V?$allocator@U?$pair@$$CBHUHonorData@@@std@@@3@$0A@@std@@@std@@KAAAPAU_Node@?$_Tree_nod@V?$_Tmap_traits@HUHonorData@@U?$less@H@std@@V?$allocator@U?$pair@$$CBHUHonorData@@@std@@@3@$0A@@std@@@2@PAU342@@Z PROC NEAR ; std::_Tree<std::_Tmap_traits<int,HonorData,std::less<int>,std::allocator<std::pair<int const ,HonorData> >,0> >::_Right, COMDAT

; 157  : 		return ((_Nodepref)(*_Pnode)._Right);

  00000	8b 44 24 04	 mov	 eax, DWORD PTR __Pnode$[esp-4]
  00004	83 c0 08	 add	 eax, 8

; 158  : 		}

  00007	c3		 ret	 0
?_Right@?$_Tree@V?$_Tmap_traits@HUHonorData@@U?$less@H@std@@V?$allocator@U?$pair@$$CBHUHonorData@@@std@@@3@$0A@@std@@@std@@KAAAPAU_Node@?$_Tree_nod@V?$_Tmap_traits@HUHonorData@@U?$less@H@std@@V?$allocator@U?$pair@$$CBHUHonorData@@@std@@@3@$0A@@std@@@2@PAU342@@Z ENDP ; std::_Tree<std::_Tmap_traits<int,HonorData,std::less<int>,std::allocator<std::pair<int const ,HonorData> >,0> >::_Right
_TEXT	ENDS
PUBLIC	?_Lmost@?$_Tree@V?$_Tmap_traits@HUHonorData@@U?$less@H@std@@V?$allocator@U?$pair@$$CBHUHonorData@@@std@@@3@$0A@@std@@@std@@IAEAAPAU_Node@?$_Tree_nod@V?$_Tmap_traits@HUHonorData@@U?$less@H@std@@V?$allocator@U?$pair@$$CBHUHonorData@@@std@@@3@$0A@@std@@@2@XZ ; std::_Tree<std::_Tmap_traits<int,HonorData,std::less<int>,std::allocator<std::pair<int const ,HonorData> >,0> >::_Lmost
; Function compile flags: /Ogty
;	COMDAT ?_Lmost@?$_Tree@V?$_Tmap_traits@HUHonorData@@U?$less@H@std@@V?$allocator@U?$pair@$$CBHUHonorData@@@std@@@3@$0A@@std@@@std@@IAEAAPAU_Node@?$_Tree_nod@V?$_Tmap_traits@HUHonorData@@U?$less@H@std@@V?$allocator@U?$pair@$$CBHUHonorData@@@std@@@3@$0A@@std@@@2@XZ
_TEXT	SEGMENT
?_Lmost@?$_Tree@V?$_Tmap_traits@HUHonorData@@U?$less@H@std@@V?$allocator@U?$pair@$$CBHUHonorData@@@std@@@3@$0A@@std@@@std@@IAEAAPAU_Node@?$_Tree_nod@V?$_Tmap_traits@HUHonorData@@U?$less@H@std@@V?$allocator@U?$pair@$$CBHUHonorData@@@std@@@3@$0A@@std@@@2@XZ PROC NEAR ; std::_Tree<std::_Tmap_traits<int,HonorData,std::less<int>,std::allocator<std::pair<int const ,HonorData> >,0> >::_Lmost, COMDAT
; _this$ = ecx

; 1005 : 		return (_Left(_Myhead));

  00000	8b 41 04	 mov	 eax, DWORD PTR [ecx+4]

; 1006 : 		}

  00003	c3		 ret	 0
?_Lmost@?$_Tree@V?$_Tmap_traits@HUHonorData@@U?$less@H@std@@V?$allocator@U?$pair@$$CBHUHonorData@@@std@@@3@$0A@@std@@@std@@IAEAAPAU_Node@?$_Tree_nod@V?$_Tmap_traits@HUHonorData@@U?$less@H@std@@V?$allocator@U?$pair@$$CBHUHonorData@@@std@@@3@$0A@@std@@@2@XZ ENDP ; std::_Tree<std::_Tmap_traits<int,HonorData,std::less<int>,std::allocator<std::pair<int const ,HonorData> >,0> >::_Lmost
_TEXT	ENDS
PUBLIC	?_Rmost@?$_Tree@V?$_Tmap_traits@HUHonorData@@U?$less@H@std@@V?$allocator@U?$pair@$$CBHUHonorData@@@std@@@3@$0A@@std@@@std@@IAEAAPAU_Node@?$_Tree_nod@V?$_Tmap_traits@HUHonorData@@U?$less@H@std@@V?$allocator@U?$pair@$$CBHUHonorData@@@std@@@3@$0A@@std@@@2@XZ ; std::_Tree<std::_Tmap_traits<int,HonorData,std::less<int>,std::allocator<std::pair<int const ,HonorData> >,0> >::_Rmost
; Function compile flags: /Ogty
;	COMDAT ?_Rmost@?$_Tree@V?$_Tmap_traits@HUHonorData@@U?$less@H@std@@V?$allocator@U?$pair@$$CBHUHonorData@@@std@@@3@$0A@@std@@@std@@IAEAAPAU_Node@?$_Tree_nod@V?$_Tmap_traits@HUHonorData@@U?$less@H@std@@V?$allocator@U?$pair@$$CBHUHonorData@@@std@@@3@$0A@@std@@@2@XZ
_TEXT	SEGMENT
?_Rmost@?$_Tree@V?$_Tmap_traits@HUHonorData@@U?$less@H@std@@V?$allocator@U?$pair@$$CBHUHonorData@@@std@@@3@$0A@@std@@@std@@IAEAAPAU_Node@?$_Tree_nod@V?$_Tmap_traits@HUHonorData@@U?$less@H@std@@V?$allocator@U?$pair@$$CBHUHonorData@@@std@@@3@$0A@@std@@@2@XZ PROC NEAR ; std::_Tree<std::_Tmap_traits<int,HonorData,std::less<int>,std::allocator<std::pair<int const ,HonorData> >,0> >::_Rmost, COMDAT
; _this$ = ecx

; 1049 : 		return (_Right(_Myhead));

  00000	8b 41 04	 mov	 eax, DWORD PTR [ecx+4]
  00003	83 c0 08	 add	 eax, 8

; 1050 : 		}

  00006	c3		 ret	 0
?_Rmost@?$_Tree@V?$_Tmap_traits@HUHonorData@@U?$less@H@std@@V?$allocator@U?$pair@$$CBHUHonorData@@@std@@@3@$0A@@std@@@std@@IAEAAPAU_Node@?$_Tree_nod@V?$_Tmap_traits@HUHonorData@@U?$less@H@std@@V?$allocator@U?$pair@$$CBHUHonorData@@@std@@@3@$0A@@std@@@2@XZ ENDP ; std::_Tree<std::_Tmap_traits<int,HonorData,std::less<int>,std::allocator<std::pair<int const ,HonorData> >,0> >::_Rmost
_TEXT	ENDS
PUBLIC	?_Kfn@?$_Tmap_traits@HUHonorData@@U?$less@H@std@@V?$allocator@U?$pair@$$CBHUHonorData@@@std@@@3@$0A@@std@@SAABHABU?$pair@$$CBHUHonorData@@@2@@Z ; std::_Tmap_traits<int,HonorData,std::less<int>,std::allocator<std::pair<int const ,HonorData> >,0>::_Kfn
; Function compile flags: /Ogty
; File c:\program files\microsoft visual studio .net 2003\vc7\include\map
;	COMDAT ?_Kfn@?$_Tmap_traits@HUHonorData@@U?$less@H@std@@V?$allocator@U?$pair@$$CBHUHonorData@@@std@@@3@$0A@@std@@SAABHABU?$pair@$$CBHUHonorData@@@2@@Z
_TEXT	SEGMENT
__Val$ = 8						; size = 4
?_Kfn@?$_Tmap_traits@HUHonorData@@U?$less@H@std@@V?$allocator@U?$pair@$$CBHUHonorData@@@std@@@3@$0A@@std@@SAABHABU?$pair@$$CBHUHonorData@@@2@@Z PROC NEAR ; std::_Tmap_traits<int,HonorData,std::less<int>,std::allocator<std::pair<int const ,HonorData> >,0>::_Kfn, COMDAT

; 64   : 		return (_Val.first);

  00000	8b 44 24 04	 mov	 eax, DWORD PTR __Val$[esp-4]

; 65   : 		}

  00004	c3		 ret	 0
?_Kfn@?$_Tmap_traits@HUHonorData@@U?$less@H@std@@V?$allocator@U?$pair@$$CBHUHonorData@@@std@@@3@$0A@@std@@SAABHABU?$pair@$$CBHUHonorData@@@2@@Z ENDP ; std::_Tmap_traits<int,HonorData,std::less<int>,std::allocator<std::pair<int const ,HonorData> >,0>::_Kfn
_TEXT	ENDS
PUBLIC	??0?$allocator@U?$pair@$$CBHUHonorData@@@std@@@std@@QAE@XZ ; std::allocator<std::pair<int const ,HonorData> >::allocator<std::pair<int const ,HonorData> >
; Function compile flags: /Ogty
; File c:\program files\microsoft visual studio .net 2003\vc7\include\xmemory
;	COMDAT ??0?$allocator@U?$pair@$$CBHUHonorData@@@std@@@std@@QAE@XZ
_TEXT	SEGMENT
??0?$allocator@U?$pair@$$CBHUHonorData@@@std@@@std@@QAE@XZ PROC NEAR ; std::allocator<std::pair<int const ,HonorData> >::allocator<std::pair<int const ,HonorData> >, COMDAT
; _this$ = ecx

; 111  : 	allocator()

  00000	8b c1		 mov	 eax, ecx

; 112  : 		{	// construct default allocator (do nothing)
; 113  : 		}

  00002	c3		 ret	 0
??0?$allocator@U?$pair@$$CBHUHonorData@@@std@@@std@@QAE@XZ ENDP ; std::allocator<std::pair<int const ,HonorData> >::allocator<std::pair<int const ,HonorData> >
_TEXT	ENDS
PUBLIC	??0?$pair@Viterator@?$_Tree@V?$_Tmap_traits@HUHonorData@@U?$less@H@std@@V?$allocator@U?$pair@$$CBHUHonorData@@@std@@@3@$0A@@std@@@std@@_N@std@@QAE@ABViterator@?$_Tree@V?$_Tmap_traits@HUHonorData@@U?$less@H@std@@V?$allocator@U?$pair@$$CBHUHonorData@@@std@@@3@$0A@@std@@@1@AB_N@Z ; std::pair<std::_Tree<std::_Tmap_traits<int,HonorData,std::less<int>,std::allocator<std::pair<int const ,HonorData> >,0> >::iterator,bool>::pair<std::_Tree<std::_Tmap_traits<int,HonorData,std::less<int>,std::allocator<std::pair<int const ,HonorData> >,0> >::iterator,bool>
; Function compile flags: /Ogty
; File c:\program files\microsoft visual studio .net 2003\vc7\include\utility
;	COMDAT ??0?$pair@Viterator@?$_Tree@V?$_Tmap_traits@HUHonorData@@U?$less@H@std@@V?$allocator@U?$pair@$$CBHUHonorData@@@std@@@3@$0A@@std@@@std@@_N@std@@QAE@ABViterator@?$_Tree@V?$_Tmap_traits@HUHonorData@@U?$less@H@std@@V?$allocator@U?$pair@$$CBHUHonorData@@@std@@@3@$0A@@std@@@1@AB_N@Z
_TEXT	SEGMENT
__Val1$ = 8						; size = 4
__Val2$ = 12						; size = 4
??0?$pair@Viterator@?$_Tree@V?$_Tmap_traits@HUHonorData@@U?$less@H@std@@V?$allocator@U?$pair@$$CBHUHonorData@@@std@@@3@$0A@@std@@@std@@_N@std@@QAE@ABViterator@?$_Tree@V?$_Tmap_traits@HUHonorData@@U?$less@H@std@@V?$allocator@U?$pair@$$CBHUHonorData@@@std@@@3@$0A@@std@@@1@AB_N@Z PROC NEAR ; std::pair<std::_Tree<std::_Tmap_traits<int,HonorData,std::less<int>,std::allocator<std::pair<int const ,HonorData> >,0> >::iterator,bool>::pair<std::_Tree<std::_Tmap_traits<int,HonorData,std::less<int>,std::allocator<std::pair<int const ,HonorData> >,0> >::iterator,bool>, COMDAT
; _this$ = ecx

; 34   : 		{	// construct from specified values

  00000	8b c1		 mov	 eax, ecx
  00002	8b 4c 24 04	 mov	 ecx, DWORD PTR __Val1$[esp-4]
  00006	8b 11		 mov	 edx, DWORD PTR [ecx]
  00008	8b 4c 24 08	 mov	 ecx, DWORD PTR __Val2$[esp-4]
  0000c	89 10		 mov	 DWORD PTR [eax], edx
  0000e	8a 11		 mov	 dl, BYTE PTR [ecx]
  00010	88 50 04	 mov	 BYTE PTR [eax+4], dl

; 35   : 		}

  00013	c2 08 00	 ret	 8
??0?$pair@Viterator@?$_Tree@V?$_Tmap_traits@HUHonorData@@U?$less@H@std@@V?$allocator@U?$pair@$$CBHUHonorData@@@std@@@3@$0A@@std@@@std@@_N@std@@QAE@ABViterator@?$_Tree@V?$_Tmap_traits@HUHonorData@@U?$less@H@std@@V?$allocator@U?$pair@$$CBHUHonorData@@@std@@@3@$0A@@std@@@1@AB_N@Z ENDP ; std::pair<std::_Tree<std::_Tmap_traits<int,HonorData,std::less<int>,std::allocator<std::pair<int const ,HonorData> >,0> >::iterator,bool>::pair<std::_Tree<std::_Tmap_traits<int,HonorData,std::less<int>,std::allocator<std::pair<int const ,HonorData> >,0> >::iterator,bool>
_TEXT	ENDS
PUBLIC	??0const_iterator@?$_Tree@V?$_Tmap_traits@HUHonorData@@U?$less@H@std@@V?$allocator@U?$pair@$$CBHUHonorData@@@std@@@3@$0A@@std@@@std@@QAE@XZ ; std::_Tree<std::_Tmap_traits<int,HonorData,std::less<int>,std::allocator<std::pair<int const ,HonorData> >,0> >::const_iterator::const_iterator
; Function compile flags: /Ogty
; File c:\program files\microsoft visual studio .net 2003\vc7\include\xtree
;	COMDAT ??0const_iterator@?$_Tree@V?$_Tmap_traits@HUHonorData@@U?$less@H@std@@V?$allocator@U?$pair@$$CBHUHonorData@@@std@@@3@$0A@@std@@@std@@QAE@XZ
_TEXT	SEGMENT
??0const_iterator@?$_Tree@V?$_Tmap_traits@HUHonorData@@U?$less@H@std@@V?$allocator@U?$pair@$$CBHUHonorData@@@std@@@3@$0A@@std@@@std@@QAE@XZ PROC NEAR ; std::_Tree<std::_Tmap_traits<int,HonorData,std::less<int>,std::allocator<std::pair<int const ,HonorData> >,0> >::const_iterator::const_iterator, COMDAT
; _this$ = ecx

; 193  : 			{	// construct with null node pointer

  00000	8b c1		 mov	 eax, ecx
  00002	c7 00 00 00 00
	00		 mov	 DWORD PTR [eax], 0

; 194  : 			}

  00008	c3		 ret	 0
??0const_iterator@?$_Tree@V?$_Tmap_traits@HUHonorData@@U?$less@H@std@@V?$allocator@U?$pair@$$CBHUHonorData@@@std@@@3@$0A@@std@@@std@@QAE@XZ ENDP ; std::_Tree<std::_Tmap_traits<int,HonorData,std::less<int>,std::allocator<std::pair<int const ,HonorData> >,0> >::const_iterator::const_iterator
_TEXT	ENDS
PUBLIC	??8const_iterator@?$_Tree@V?$_Tmap_traits@HUHonorData@@U?$less@H@std@@V?$allocator@U?$pair@$$CBHUHonorData@@@std@@@3@$0A@@std@@@std@@QBE_NABV012@@Z ; std::_Tree<std::_Tmap_traits<int,HonorData,std::less<int>,std::allocator<std::pair<int const ,HonorData> >,0> >::const_iterator::operator==
; Function compile flags: /Ogty
;	COMDAT ??8const_iterator@?$_Tree@V?$_Tmap_traits@HUHonorData@@U?$less@H@std@@V?$allocator@U?$pair@$$CBHUHonorData@@@std@@@3@$0A@@std@@@std@@QBE_NABV012@@Z
_TEXT	SEGMENT
__Right$ = 8						; size = 4
??8const_iterator@?$_Tree@V?$_Tmap_traits@HUHonorData@@U?$less@H@std@@V?$allocator@U?$pair@$$CBHUHonorData@@@std@@@3@$0A@@std@@@std@@QBE_NABV012@@Z PROC NEAR ; std::_Tree<std::_Tmap_traits<int,HonorData,std::less<int>,std::allocator<std::pair<int const ,HonorData> >,0> >::const_iterator::operator==, COMDAT
; _this$ = ecx

; 241  : 			return (_Ptr == _Right._Ptr);

  00000	8b 01		 mov	 eax, DWORD PTR [ecx]
  00002	8b 4c 24 04	 mov	 ecx, DWORD PTR __Right$[esp-4]
  00006	2b 01		 sub	 eax, DWORD PTR [ecx]
  00008	f7 d8		 neg	 eax
  0000a	1b c0		 sbb	 eax, eax
  0000c	40		 inc	 eax

; 242  : 			}

  0000d	c2 04 00	 ret	 4
??8const_iterator@?$_Tree@V?$_Tmap_traits@HUHonorData@@U?$less@H@std@@V?$allocator@U?$pair@$$CBHUHonorData@@@std@@@3@$0A@@std@@@std@@QBE_NABV012@@Z ENDP ; std::_Tree<std::_Tmap_traits<int,HonorData,std::less<int>,std::allocator<std::pair<int const ,HonorData> >,0> >::const_iterator::operator==
_TEXT	ENDS
PUBLIC	?_Mynode@const_iterator@?$_Tree@V?$_Tmap_traits@HUHonorData@@U?$less@H@std@@V?$allocator@U?$pair@$$CBHUHonorData@@@std@@@3@$0A@@std@@@std@@QBEPAU_Node@?$_Tree_nod@V?$_Tmap_traits@HUHonorData@@U?$less@H@std@@V?$allocator@U?$pair@$$CBHUHonorData@@@std@@@3@$0A@@std@@@3@XZ ; std::_Tree<std::_Tmap_traits<int,HonorData,std::less<int>,std::allocator<std::pair<int const ,HonorData> >,0> >::const_iterator::_Mynode
; Function compile flags: /Ogty
;	COMDAT ?_Mynode@const_iterator@?$_Tree@V?$_Tmap_traits@HUHonorData@@U?$less@H@std@@V?$allocator@U?$pair@$$CBHUHonorData@@@std@@@3@$0A@@std@@@std@@QBEPAU_Node@?$_Tree_nod@V?$_Tmap_traits@HUHonorData@@U?$less@H@std@@V?$allocator@U?$pair@$$CBHUHonorData@@@std@@@3@$0A@@std@@@3@XZ
_TEXT	SEGMENT
?_Mynode@const_iterator@?$_Tree@V?$_Tmap_traits@HUHonorData@@U?$less@H@std@@V?$allocator@U?$pair@$$CBHUHonorData@@@std@@@3@$0A@@std@@@std@@QBEPAU_Node@?$_Tree_nod@V?$_Tmap_traits@HUHonorData@@U?$less@H@std@@V?$allocator@U?$pair@$$CBHUHonorData@@@std@@@3@$0A@@std@@@3@XZ PROC NEAR ; std::_Tree<std::_Tmap_traits<int,HonorData,std::less<int>,std::allocator<std::pair<int const ,HonorData> >,0> >::const_iterator::_Mynode, COMDAT
; _this$ = ecx

; 284  : 			return (_Ptr);

  00000	8b 01		 mov	 eax, DWORD PTR [ecx]

; 285  : 			}

  00002	c3		 ret	 0
?_Mynode@const_iterator@?$_Tree@V?$_Tmap_traits@HUHonorData@@U?$less@H@std@@V?$allocator@U?$pair@$$CBHUHonorData@@@std@@@3@$0A@@std@@@std@@QBEPAU_Node@?$_Tree_nod@V?$_Tmap_traits@HUHonorData@@U?$less@H@std@@V?$allocator@U?$pair@$$CBHUHonorData@@@std@@@3@$0A@@std@@@3@XZ ENDP ; std::_Tree<std::_Tmap_traits<int,HonorData,std::less<int>,std::allocator<std::pair<int const ,HonorData> >,0> >::const_iterator::_Mynode
_TEXT	ENDS
PUBLIC	?_Color@?$_Tree@V?$_Tmap_traits@HUHonorData@@U?$less@H@std@@V?$allocator@U?$pair@$$CBHUHonorData@@@std@@@3@$0A@@std@@@std@@KAAADPAU_Node@?$_Tree_nod@V?$_Tmap_traits@HUHonorData@@U?$less@H@std@@V?$allocator@U?$pair@$$CBHUHonorData@@@std@@@3@$0A@@std@@@2@@Z ; std::_Tree<std::_Tmap_traits<int,HonorData,std::less<int>,std::allocator<std::pair<int const ,HonorData> >,0> >::_Color
; Function compile flags: /Ogty
;	COMDAT ?_Color@?$_Tree@V?$_Tmap_traits@HUHonorData@@U?$less@H@std@@V?$allocator@U?$pair@$$CBHUHonorData@@@std@@@3@$0A@@std@@@std@@KAAADPAU_Node@?$_Tree_nod@V?$_Tmap_traits@HUHonorData@@U?$less@H@std@@V?$allocator@U?$pair@$$CBHUHonorData@@@std@@@3@$0A@@std@@@2@@Z
_TEXT	SEGMENT
__Pnode$ = 8						; size = 4
?_Color@?$_Tree@V?$_Tmap_traits@HUHonorData@@U?$less@H@std@@V?$allocator@U?$pair@$$CBHUHonorData@@@std@@@3@$0A@@std@@@std@@KAAADPAU_Node@?$_Tree_nod@V?$_Tmap_traits@HUHonorData@@U?$less@H@std@@V?$allocator@U?$pair@$$CBHUHonorData@@@std@@@3@$0A@@std@@@2@@Z PROC NEAR ; std::_Tree<std::_Tmap_traits<int,HonorData,std::less<int>,std::allocator<std::pair<int const ,HonorData> >,0> >::_Color, COMDAT

; 132  : 		return ((_Charref)(*_Pnode)._Color);

  00000	8b 44 24 04	 mov	 eax, DWORD PTR __Pnode$[esp-4]
  00004	83 c0 28	 add	 eax, 40			; 00000028H

; 133  : 		}

  00007	c3		 ret	 0
?_Color@?$_Tree@V?$_Tmap_traits@HUHonorData@@U?$less@H@std@@V?$allocator@U?$pair@$$CBHUHonorData@@@std@@@3@$0A@@std@@@std@@KAAADPAU_Node@?$_Tree_nod@V?$_Tmap_traits@HUHonorData@@U?$less@H@std@@V?$allocator@U?$pair@$$CBHUHonorData@@@std@@@3@$0A@@std@@@2@@Z ENDP ; std::_Tree<std::_Tmap_traits<int,HonorData,std::less<int>,std::allocator<std::pair<int const ,HonorData> >,0> >::_Color
_TEXT	ENDS
PUBLIC	?_Parent@?$_Tree@V?$_Tmap_traits@HUHonorData@@U?$less@H@std@@V?$allocator@U?$pair@$$CBHUHonorData@@@std@@@3@$0A@@std@@@std@@KAAAPAU_Node@?$_Tree_nod@V?$_Tmap_traits@HUHonorData@@U?$less@H@std@@V?$allocator@U?$pair@$$CBHUHonorData@@@std@@@3@$0A@@std@@@2@PAU342@@Z ; std::_Tree<std::_Tmap_traits<int,HonorData,std::less<int>,std::allocator<std::pair<int const ,HonorData> >,0> >::_Parent
; Function compile flags: /Ogty
;	COMDAT ?_Parent@?$_Tree@V?$_Tmap_traits@HUHonorData@@U?$less@H@std@@V?$allocator@U?$pair@$$CBHUHonorData@@@std@@@3@$0A@@std@@@std@@KAAAPAU_Node@?$_Tree_nod@V?$_Tmap_traits@HUHonorData@@U?$less@H@std@@V?$allocator@U?$pair@$$CBHUHonorData@@@std@@@3@$0A@@std@@@2@PAU342@@Z
_TEXT	SEGMENT
__Pnode$ = 8						; size = 4
?_Parent@?$_Tree@V?$_Tmap_traits@HUHonorData@@U?$less@H@std@@V?$allocator@U?$pair@$$CBHUHonorData@@@std@@@3@$0A@@std@@@std@@KAAAPAU_Node@?$_Tree_nod@V?$_Tmap_traits@HUHonorData@@U?$less@H@std@@V?$allocator@U?$pair@$$CBHUHonorData@@@std@@@3@$0A@@std@@@2@PAU342@@Z PROC NEAR ; std::_Tree<std::_Tmap_traits<int,HonorData,std::less<int>,std::allocator<std::pair<int const ,HonorData> >,0> >::_Parent, COMDAT

; 152  : 		return ((_Nodepref)(*_Pnode)._Parent);

  00000	8b 44 24 04	 mov	 eax, DWORD PTR __Pnode$[esp-4]
  00004	83 c0 04	 add	 eax, 4

; 153  : 		}

  00007	c3		 ret	 0
?_Parent@?$_Tree@V?$_Tmap_traits@HUHonorData@@U?$less@H@std@@V?$allocator@U?$pair@$$CBHUHonorData@@@std@@@3@$0A@@std@@@std@@KAAAPAU_Node@?$_Tree_nod@V?$_Tmap_traits@HUHonorData@@U?$less@H@std@@V?$allocator@U?$pair@$$CBHUHonorData@@@std@@@3@$0A@@std@@@2@PAU342@@Z ENDP ; std::_Tree<std::_Tmap_traits<int,HonorData,std::less<int>,std::allocator<std::pair<int const ,HonorData> >,0> >::_Parent
_TEXT	ENDS
PUBLIC	?_Myval@?$_Tree@V?$_Tmap_traits@HUHonorData@@U?$less@H@std@@V?$allocator@U?$pair@$$CBHUHonorData@@@std@@@3@$0A@@std@@@std@@KAAAU?$pair@$$CBHUHonorData@@@2@PAU_Node@?$_Tree_nod@V?$_Tmap_traits@HUHonorData@@U?$less@H@std@@V?$allocator@U?$pair@$$CBHUHonorData@@@std@@@3@$0A@@std@@@2@@Z ; std::_Tree<std::_Tmap_traits<int,HonorData,std::less<int>,std::allocator<std::pair<int const ,HonorData> >,0> >::_Myval
; Function compile flags: /Ogty
;	COMDAT ?_Myval@?$_Tree@V?$_Tmap_traits@HUHonorData@@U?$less@H@std@@V?$allocator@U?$pair@$$CBHUHonorData@@@std@@@3@$0A@@std@@@std@@KAAAU?$pair@$$CBHUHonorData@@@2@PAU_Node@?$_Tree_nod@V?$_Tmap_traits@HUHonorData@@U?$less@H@std@@V?$allocator@U?$pair@$$CBHUHonorData@@@std@@@3@$0A@@std@@@2@@Z
_TEXT	SEGMENT
__Pnode$ = 8						; size = 4
?_Myval@?$_Tree@V?$_Tmap_traits@HUHonorData@@U?$less@H@std@@V?$allocator@U?$pair@$$CBHUHonorData@@@std@@@3@$0A@@std@@@std@@KAAAU?$pair@$$CBHUHonorData@@@2@PAU_Node@?$_Tree_nod@V?$_Tmap_traits@HUHonorData@@U?$less@H@std@@V?$allocator@U?$pair@$$CBHUHonorData@@@std@@@3@$0A@@std@@@2@@Z PROC NEAR ; std::_Tree<std::_Tmap_traits<int,HonorData,std::less<int>,std::allocator<std::pair<int const ,HonorData> >,0> >::_Myval, COMDAT

; 162  : 		return ((_Vref)(*_Pnode)._Myval);

  00000	8b 44 24 04	 mov	 eax, DWORD PTR __Pnode$[esp-4]
  00004	83 c0 0c	 add	 eax, 12			; 0000000cH

; 163  : 		}

  00007	c3		 ret	 0
?_Myval@?$_Tree@V?$_Tmap_traits@HUHonorData@@U?$less@H@std@@V?$allocator@U?$pair@$$CBHUHonorData@@@std@@@3@$0A@@std@@@std@@KAAAU?$pair@$$CBHUHonorData@@@2@PAU_Node@?$_Tree_nod@V?$_Tmap_traits@HUHonorData@@U?$less@H@std@@V?$allocator@U?$pair@$$CBHUHonorData@@@std@@@3@$0A@@std@@@2@@Z ENDP ; std::_Tree<std::_Tmap_traits<int,HonorData,std::less<int>,std::allocator<std::pair<int const ,HonorData> >,0> >::_Myval
_TEXT	ENDS
PUBLIC	??0?$allocator@U?$pair@$$CBHUHonorData@@@std@@@std@@QAE@ABV01@@Z ; std::allocator<std::pair<int const ,HonorData> >::allocator<std::pair<int const ,HonorData> >
; Function compile flags: /Ogty
; File c:\program files\microsoft visual studio .net 2003\vc7\include\xmemory
;	COMDAT ??0?$allocator@U?$pair@$$CBHUHonorData@@@std@@@std@@QAE@ABV01@@Z
_TEXT	SEGMENT
___formal$ = 8						; size = 4
??0?$allocator@U?$pair@$$CBHUHonorData@@@std@@@std@@QAE@ABV01@@Z PROC NEAR ; std::allocator<std::pair<int const ,HonorData> >::allocator<std::pair<int const ,HonorData> >, COMDAT
; _this$ = ecx

; 115  : 	allocator(const allocator<_Ty>&)

  00000	8b c1		 mov	 eax, ecx

; 116  : 		{	// construct by copying (do nothing)
; 117  : 		}

  00002	c2 04 00	 ret	 4
??0?$allocator@U?$pair@$$CBHUHonorData@@@std@@@std@@QAE@ABV01@@Z ENDP ; std::allocator<std::pair<int const ,HonorData> >::allocator<std::pair<int const ,HonorData> >
_TEXT	ENDS
PUBLIC	?deallocate@?$allocator@U_Node@?$_Tree_nod@V?$_Tmap_traits@HUHonorData@@U?$less@H@std@@V?$allocator@U?$pair@$$CBHUHonorData@@@std@@@3@$0A@@std@@@std@@@std@@QAEXPAU_Node@?$_Tree_nod@V?$_Tmap_traits@HUHonorData@@U?$less@H@std@@V?$allocator@U?$pair@$$CBHUHonorData@@@std@@@3@$0A@@std@@@2@I@Z ; std::allocator<std::_Tree_nod<std::_Tmap_traits<int,HonorData,std::less<int>,std::allocator<std::pair<int const ,HonorData> >,0> >::_Node>::deallocate
EXTRN	??3@YAXPAX@Z:NEAR				; operator delete
; Function compile flags: /Ogty
;	COMDAT ?deallocate@?$allocator@U_Node@?$_Tree_nod@V?$_Tmap_traits@HUHonorData@@U?$less@H@std@@V?$allocator@U?$pair@$$CBHUHonorData@@@std@@@3@$0A@@std@@@std@@@std@@QAEXPAU_Node@?$_Tree_nod@V?$_Tmap_traits@HUHonorData@@U?$less@H@std@@V?$allocator@U?$pair@$$CBHUHonorData@@@std@@@3@$0A@@std@@@2@I@Z
_TEXT	SEGMENT
__Ptr$ = 8						; size = 4
___formal$ = 12						; size = 4
?deallocate@?$allocator@U_Node@?$_Tree_nod@V?$_Tmap_traits@HUHonorData@@U?$less@H@std@@V?$allocator@U?$pair@$$CBHUHonorData@@@std@@@3@$0A@@std@@@std@@@std@@QAEXPAU_Node@?$_Tree_nod@V?$_Tmap_traits@HUHonorData@@U?$less@H@std@@V?$allocator@U?$pair@$$CBHUHonorData@@@std@@@3@$0A@@std@@@2@I@Z PROC NEAR ; std::allocator<std::_Tree_nod<std::_Tmap_traits<int,HonorData,std::less<int>,std::allocator<std::pair<int const ,HonorData> >,0> >::_Node>::deallocate, COMDAT
; _this$ = ecx

; 132  : 		operator delete(_Ptr);

  00000	8b 44 24 04	 mov	 eax, DWORD PTR __Ptr$[esp-4]
  00004	50		 push	 eax
  00005	e8 00 00 00 00	 call	 ??3@YAXPAX@Z		; operator delete
  0000a	59		 pop	 ecx

; 133  : 		}

  0000b	c2 08 00	 ret	 8
?deallocate@?$allocator@U_Node@?$_Tree_nod@V?$_Tmap_traits@HUHonorData@@U?$less@H@std@@V?$allocator@U?$pair@$$CBHUHonorData@@@std@@@3@$0A@@std@@@std@@@std@@QAEXPAU_Node@?$_Tree_nod@V?$_Tmap_traits@HUHonorData@@U?$less@H@std@@V?$allocator@U?$pair@$$CBHUHonorData@@@std@@@3@$0A@@std@@@2@I@Z ENDP ; std::allocator<std::_Tree_nod<std::_Tmap_traits<int,HonorData,std::less<int>,std::allocator<std::pair<int const ,HonorData> >,0> >::_Node>::deallocate
_TEXT	ENDS
PUBLIC	?AtlThrow@ATL@@YGXJ@Z				; ATL::AtlThrow
EXTRN	?AfxThrowMemoryException@@YGXXZ:NEAR		; AfxThrowMemoryException
EXTRN	?AfxThrowOleException@@YGXJ@Z:NEAR		; AfxThrowOleException
; Function compile flags: /Ogty
; File c:\program files\microsoft visual studio .net 2003\vc7\atlmfc\include\atlexcept.h
;	COMDAT ?AtlThrow@ATL@@YGXJ@Z
_TEXT	SEGMENT
_hr$ = 8						; size = 4
?AtlThrow@ATL@@YGXJ@Z PROC NEAR				; ATL::AtlThrow, COMDAT

; 62   : 	ATLTRACE(atlTraceException, 0, _T("AtlThrow: hr = 0x%x\n"), hr );
; 63   : #ifdef _AFX
; 64   : 	if( hr == E_OUTOFMEMORY )

  00000	8b 44 24 04	 mov	 eax, DWORD PTR _hr$[esp-4]
  00004	3d 0e 00 07 80	 cmp	 eax, -2147024882	; 8007000eH
  00009	75 05		 jne	 SHORT $L39166

; 65   : 	{
; 66   : 		AfxThrowMemoryException();

  0000b	e8 00 00 00 00	 call	 ?AfxThrowMemoryException@@YGXXZ ; AfxThrowMemoryException
$L39166:

; 67   : 	}
; 68   : 	else
; 69   : 	{
; 70   : 		AfxThrowOleException( hr );

  00010	50		 push	 eax
  00011	e8 00 00 00 00	 call	 ?AfxThrowOleException@@YGXJ@Z ; AfxThrowOleException
$L188479:
  00016	cc		 int	 3
?AtlThrow@ATL@@YGXJ@Z ENDP				; ATL::AtlThrow
_TEXT	ENDS
PUBLIC	??0const_iterator@?$_Tree@V?$_Tmap_traits@HUHonorData@@U?$less@H@std@@V?$allocator@U?$pair@$$CBHUHonorData@@@std@@@3@$0A@@std@@@std@@QAE@PAU_Node@?$_Tree_nod@V?$_Tmap_traits@HUHonorData@@U?$less@H@std@@V?$allocator@U?$pair@$$CBHUHonorData@@@std@@@3@$0A@@std@@@2@@Z ; std::_Tree<std::_Tmap_traits<int,HonorData,std::less<int>,std::allocator<std::pair<int const ,HonorData> >,0> >::const_iterator::const_iterator
; Function compile flags: /Ogty
; File c:\program files\microsoft visual studio .net 2003\vc7\include\xtree
;	COMDAT ??0const_iterator@?$_Tree@V?$_Tmap_traits@HUHonorData@@U?$less@H@std@@V?$allocator@U?$pair@$$CBHUHonorData@@@std@@@3@$0A@@std@@@std@@QAE@PAU_Node@?$_Tree_nod@V?$_Tmap_traits@HUHonorData@@U?$less@H@std@@V?$allocator@U?$pair@$$CBHUHonorData@@@std@@@3@$0A@@std@@@2@@Z
_TEXT	SEGMENT
__Pnode$ = 8						; size = 4
??0const_iterator@?$_Tree@V?$_Tmap_traits@HUHonorData@@U?$less@H@std@@V?$allocator@U?$pair@$$CBHUHonorData@@@std@@@3@$0A@@std@@@std@@QAE@PAU_Node@?$_Tree_nod@V?$_Tmap_traits@HUHonorData@@U?$less@H@std@@V?$allocator@U?$pair@$$CBHUHonorData@@@std@@@3@$0A@@std@@@2@@Z PROC NEAR ; std::_Tree<std::_Tmap_traits<int,HonorData,std::less<int>,std::allocator<std::pair<int const ,HonorData> >,0> >::const_iterator::const_iterator, COMDAT
; _this$ = ecx

; 200  : 			{	// construct with node pointer _Pnode

  00000	8b c1		 mov	 eax, ecx
  00002	8b 4c 24 04	 mov	 ecx, DWORD PTR __Pnode$[esp-4]
  00006	89 08		 mov	 DWORD PTR [eax], ecx

; 201  : 			}

  00008	c2 04 00	 ret	 4
??0const_iterator@?$_Tree@V?$_Tmap_traits@HUHonorData@@U?$less@H@std@@V?$allocator@U?$pair@$$CBHUHonorData@@@std@@@3@$0A@@std@@@std@@QAE@PAU_Node@?$_Tree_nod@V?$_Tmap_traits@HUHonorData@@U?$less@H@std@@V?$allocator@U?$pair@$$CBHUHonorData@@@std@@@3@$0A@@std@@@2@@Z ENDP ; std::_Tree<std::_Tmap_traits<int,HonorData,std::less<int>,std::allocator<std::pair<int const ,HonorData> >,0> >::const_iterator::const_iterator
_TEXT	ENDS
PUBLIC	??Dconst_iterator@?$_Tree@V?$_Tmap_traits@HUHonorData@@U?$less@H@std@@V?$allocator@U?$pair@$$CBHUHonorData@@@std@@@3@$0A@@std@@@std@@QBEABU?$pair@$$CBHUHonorData@@@2@XZ ; std::_Tree<std::_Tmap_traits<int,HonorData,std::less<int>,std::allocator<std::pair<int const ,HonorData> >,0> >::const_iterator::operator*
; Function compile flags: /Ogty
;	COMDAT ??Dconst_iterator@?$_Tree@V?$_Tmap_traits@HUHonorData@@U?$less@H@std@@V?$allocator@U?$pair@$$CBHUHonorData@@@std@@@3@$0A@@std@@@std@@QBEABU?$pair@$$CBHUHonorData@@@2@XZ
_TEXT	SEGMENT
??Dconst_iterator@?$_Tree@V?$_Tmap_traits@HUHonorData@@U?$less@H@std@@V?$allocator@U?$pair@$$CBHUHonorData@@@std@@@3@$0A@@std@@@std@@QBEABU?$pair@$$CBHUHonorData@@@2@XZ PROC NEAR ; std::_Tree<std::_Tmap_traits<int,HonorData,std::less<int>,std::allocator<std::pair<int const ,HonorData> >,0> >::const_iterator::operator*, COMDAT
; _this$ = ecx

; 205  : 			return (_Myval(_Ptr));

  00000	8b 01		 mov	 eax, DWORD PTR [ecx]
  00002	83 c0 0c	 add	 eax, 12			; 0000000cH

; 206  : 			}

  00005	c3		 ret	 0
??Dconst_iterator@?$_Tree@V?$_Tmap_traits@HUHonorData@@U?$less@H@std@@V?$allocator@U?$pair@$$CBHUHonorData@@@std@@@3@$0A@@std@@@std@@QBEABU?$pair@$$CBHUHonorData@@@2@XZ ENDP ; std::_Tree<std::_Tmap_traits<int,HonorData,std::less<int>,std::allocator<std::pair<int const ,HonorData> >,0> >::const_iterator::operator*
_TEXT	ENDS
PUBLIC	?_Min@?$_Tree@V?$_Tmap_traits@HUHonorData@@U?$less@H@std@@V?$allocator@U?$pair@$$CBHUHonorData@@@std@@@3@$0A@@std@@@std@@KAPAU_Node@?$_Tree_nod@V?$_Tmap_traits@HUHonorData@@U?$less@H@std@@V?$allocator@U?$pair@$$CBHUHonorData@@@std@@@3@$0A@@std@@@2@PAU342@@Z ; std::_Tree<std::_Tmap_traits<int,HonorData,std::less<int>,std::allocator<std::pair<int const ,HonorData> >,0> >::_Min
; Function compile flags: /Ogty
;	COMDAT ?_Min@?$_Tree@V?$_Tmap_traits@HUHonorData@@U?$less@H@std@@V?$allocator@U?$pair@$$CBHUHonorData@@@std@@@3@$0A@@std@@@std@@KAPAU_Node@?$_Tree_nod@V?$_Tmap_traits@HUHonorData@@U?$less@H@std@@V?$allocator@U?$pair@$$CBHUHonorData@@@std@@@3@$0A@@std@@@2@PAU342@@Z
_TEXT	SEGMENT
__Pnode$ = 8						; size = 4
?_Min@?$_Tree@V?$_Tmap_traits@HUHonorData@@U?$less@H@std@@V?$allocator@U?$pair@$$CBHUHonorData@@@std@@@3@$0A@@std@@@std@@KAPAU_Node@?$_Tree_nod@V?$_Tmap_traits@HUHonorData@@U?$less@H@std@@V?$allocator@U?$pair@$$CBHUHonorData@@@std@@@3@$0A@@std@@@2@PAU342@@Z PROC NEAR ; std::_Tree<std::_Tmap_traits<int,HonorData,std::less<int>,std::allocator<std::pair<int const ,HonorData> >,0> >::_Min, COMDAT

; 1042 : 		while (!_Isnil(_Left(_Pnode)))

  00000	8b 44 24 04	 mov	 eax, DWORD PTR __Pnode$[esp-4]
  00004	8b 08		 mov	 ecx, DWORD PTR [eax]
  00006	8a 51 29	 mov	 dl, BYTE PTR [ecx+41]
  00009	84 d2		 test	 dl, dl
  0000b	75 0e		 jne	 SHORT $L188016
  0000d	8d 49 00	 npad	 3
$L188015:

; 1043 : 			_Pnode = _Left(_Pnode);

  00010	8b c1		 mov	 eax, ecx
  00012	8b 08		 mov	 ecx, DWORD PTR [eax]
  00014	8a 51 29	 mov	 dl, BYTE PTR [ecx+41]
  00017	84 d2		 test	 dl, dl
  00019	74 f5		 je	 SHORT $L188015
$L188016:

; 1044 : 		return (_Pnode);
; 1045 : 		}

  0001b	c3		 ret	 0
?_Min@?$_Tree@V?$_Tmap_traits@HUHonorData@@U?$less@H@std@@V?$allocator@U?$pair@$$CBHUHonorData@@@std@@@3@$0A@@std@@@std@@KAPAU_Node@?$_Tree_nod@V?$_Tmap_traits@HUHonorData@@U?$less@H@std@@V?$allocator@U?$pair@$$CBHUHonorData@@@std@@@3@$0A@@std@@@2@PAU342@@Z ENDP ; std::_Tree<std::_Tmap_traits<int,HonorData,std::less<int>,std::allocator<std::pair<int const ,HonorData> >,0> >::_Min
_TEXT	ENDS
PUBLIC	?_Root@?$_Tree@V?$_Tmap_traits@HUHonorData@@U?$less@H@std@@V?$allocator@U?$pair@$$CBHUHonorData@@@std@@@3@$0A@@std@@@std@@IBEAAPAU_Node@?$_Tree_nod@V?$_Tmap_traits@HUHonorData@@U?$less@H@std@@V?$allocator@U?$pair@$$CBHUHonorData@@@std@@@3@$0A@@std@@@2@XZ ; std::_Tree<std::_Tmap_traits<int,HonorData,std::less<int>,std::allocator<std::pair<int const ,HonorData> >,0> >::_Root
; Function compile flags: /Ogty
;	COMDAT ?_Root@?$_Tree@V?$_Tmap_traits@HUHonorData@@U?$less@H@std@@V?$allocator@U?$pair@$$CBHUHonorData@@@std@@@3@$0A@@std@@@std@@IBEAAPAU_Node@?$_Tree_nod@V?$_Tmap_traits@HUHonorData@@U?$less@H@std@@V?$allocator@U?$pair@$$CBHUHonorData@@@std@@@3@$0A@@std@@@2@XZ
_TEXT	SEGMENT
?_Root@?$_Tree@V?$_Tmap_traits@HUHonorData@@U?$less@H@std@@V?$allocator@U?$pair@$$CBHUHonorData@@@std@@@3@$0A@@std@@@std@@IBEAAPAU_Node@?$_Tree_nod@V?$_Tmap_traits@HUHonorData@@U?$less@H@std@@V?$allocator@U?$pair@$$CBHUHonorData@@@std@@@3@$0A@@std@@@2@XZ PROC NEAR ; std::_Tree<std::_Tmap_traits<int,HonorData,std::less<int>,std::allocator<std::pair<int const ,HonorData> >,0> >::_Root, COMDAT
; _this$ = ecx

; 1064 : 		return (_Parent(_Myhead));

  00000	8b 41 04	 mov	 eax, DWORD PTR [ecx+4]
  00003	83 c0 04	 add	 eax, 4

; 1065 : 		}

  00006	c3		 ret	 0
?_Root@?$_Tree@V?$_Tmap_traits@HUHonorData@@U?$less@H@std@@V?$allocator@U?$pair@$$CBHUHonorData@@@std@@@3@$0A@@std@@@std@@IBEAAPAU_Node@?$_Tree_nod@V?$_Tmap_traits@HUHonorData@@U?$less@H@std@@V?$allocator@U?$pair@$$CBHUHonorData@@@std@@@3@$0A@@std@@@2@XZ ENDP ; std::_Tree<std::_Tmap_traits<int,HonorData,std::less<int>,std::allocator<std::pair<int const ,HonorData> >,0> >::_Root
_TEXT	ENDS
PUBLIC	?max_size@?$allocator@U?$pair@$$CBHUHonorData@@@std@@@std@@QBEIXZ ; std::allocator<std::pair<int const ,HonorData> >::max_size
; Function compile flags: /Ogty
; File c:\program files\microsoft visual studio .net 2003\vc7\include\xmemory
;	COMDAT ?max_size@?$allocator@U?$pair@$$CBHUHonorData@@@std@@@std@@QBEIXZ
_TEXT	SEGMENT
?max_size@?$allocator@U?$pair@$$CBHUHonorData@@@std@@@std@@QBEIXZ PROC NEAR ; std::allocator<std::pair<int const ,HonorData> >::max_size, COMDAT
; _this$ = ecx

; 157  : 		_SIZT _Count = (_SIZT)(-1) / sizeof (_Ty);
; 158  : 		return (0 < _Count ? _Count : 1);

  00000	b8 49 92 24 09	 mov	 eax, 153391689		; 09249249H

; 159  : 		}

  00005	c3		 ret	 0
?max_size@?$allocator@U?$pair@$$CBHUHonorData@@@std@@@std@@QBEIXZ ENDP ; std::allocator<std::pair<int const ,HonorData> >::max_size
_TEXT	ENDS
PUBLIC	?_Max@?$_Tree@V?$_Tmap_traits@HUHonorData@@U?$less@H@std@@V?$allocator@U?$pair@$$CBHUHonorData@@@std@@@3@$0A@@std@@@std@@KAPAU_Node@?$_Tree_nod@V?$_Tmap_traits@HUHonorData@@U?$less@H@std@@V?$allocator@U?$pair@$$CBHUHonorData@@@std@@@3@$0A@@std@@@2@PAU342@@Z ; std::_Tree<std::_Tmap_traits<int,HonorData,std::less<int>,std::allocator<std::pair<int const ,HonorData> >,0> >::_Max
; Function compile flags: /Ogty
; File c:\program files\microsoft visual studio .net 2003\vc7\include\xtree
;	COMDAT ?_Max@?$_Tree@V?$_Tmap_traits@HUHonorData@@U?$less@H@std@@V?$allocator@U?$pair@$$CBHUHonorData@@@std@@@3@$0A@@std@@@std@@KAPAU_Node@?$_Tree_nod@V?$_Tmap_traits@HUHonorData@@U?$less@H@std@@V?$allocator@U?$pair@$$CBHUHonorData@@@std@@@3@$0A@@std@@@2@PAU342@@Z
_TEXT	SEGMENT
__Pnode$ = 8						; size = 4
?_Max@?$_Tree@V?$_Tmap_traits@HUHonorData@@U?$less@H@std@@V?$allocator@U?$pair@$$CBHUHonorData@@@std@@@3@$0A@@std@@@std@@KAPAU_Node@?$_Tree_nod@V?$_Tmap_traits@HUHonorData@@U?$less@H@std@@V?$allocator@U?$pair@$$CBHUHonorData@@@std@@@3@$0A@@std@@@2@PAU342@@Z PROC NEAR ; std::_Tree<std::_Tmap_traits<int,HonorData,std::less<int>,std::allocator<std::pair<int const ,HonorData> >,0> >::_Max, COMDAT

; 1035 : 		while (!_Isnil(_Right(_Pnode)))

  00000	8b 44 24 04	 mov	 eax, DWORD PTR __Pnode$[esp-4]
  00004	8b 48 08	 mov	 ecx, DWORD PTR [eax+8]
  00007	8a 51 29	 mov	 dl, BYTE PTR [ecx+41]
  0000a	84 d2		 test	 dl, dl
  0000c	75 0e		 jne	 SHORT $L188075
  0000e	8b ff		 npad	 2
$L188074:

; 1036 : 			_Pnode = _Right(_Pnode);

  00010	8b c1		 mov	 eax, ecx
  00012	8b 48 08	 mov	 ecx, DWORD PTR [eax+8]
  00015	8a 51 29	 mov	 dl, BYTE PTR [ecx+41]
  00018	84 d2		 test	 dl, dl
  0001a	74 f4		 je	 SHORT $L188074
$L188075:

; 1037 : 		return (_Pnode);
; 1038 : 		}

  0001c	c3		 ret	 0
?_Max@?$_Tree@V?$_Tmap_traits@HUHonorData@@U?$less@H@std@@V?$allocator@U?$pair@$$CBHUHonorData@@@std@@@3@$0A@@std@@@std@@KAPAU_Node@?$_Tree_nod@V?$_Tmap_traits@HUHonorData@@U?$less@H@std@@V?$allocator@U?$pair@$$CBHUHonorData@@@std@@@3@$0A@@std@@@2@PAU342@@Z ENDP ; std::_Tree<std::_Tmap_traits<int,HonorData,std::less<int>,std::allocator<std::pair<int const ,HonorData> >,0> >::_Max
_TEXT	ENDS
PUBLIC	??0?$_Tmap_traits@HUHonorData@@U?$less@H@std@@V?$allocator@U?$pair@$$CBHUHonorData@@@std@@@3@$0A@@std@@QAE@U?$less@H@1@@Z ; std::_Tmap_traits<int,HonorData,std::less<int>,std::allocator<std::pair<int const ,HonorData> >,0>::_Tmap_traits<int,HonorData,std::less<int>,std::allocator<std::pair<int const ,HonorData> >,0>
; Function compile flags: /Ogty
; File c:\program files\microsoft visual studio .net 2003\vc7\include\map
;	COMDAT ??0?$_Tmap_traits@HUHonorData@@U?$less@H@std@@V?$allocator@U?$pair@$$CBHUHonorData@@@std@@@3@$0A@@std@@QAE@U?$less@H@1@@Z
_TEXT	SEGMENT
__Parg$ = 8						; size = 1
??0?$_Tmap_traits@HUHonorData@@U?$less@H@std@@V?$allocator@U?$pair@$$CBHUHonorData@@@std@@@3@$0A@@std@@QAE@U?$less@H@1@@Z PROC NEAR ; std::_Tmap_traits<int,HonorData,std::less<int>,std::allocator<std::pair<int const ,HonorData> >,0>::_Tmap_traits<int,HonorData,std::less<int>,std::allocator<std::pair<int const ,HonorData> >,0>, COMDAT
; _this$ = ecx

; 38   : 		{	// construct with specified comparator

  00000	8b c1		 mov	 eax, ecx

; 39   : 		}

  00002	c2 04 00	 ret	 4
??0?$_Tmap_traits@HUHonorData@@U?$less@H@std@@V?$allocator@U?$pair@$$CBHUHonorData@@@std@@@3@$0A@@std@@QAE@U?$less@H@1@@Z ENDP ; std::_Tmap_traits<int,HonorData,std::less<int>,std::allocator<std::pair<int const ,HonorData> >,0>::_Tmap_traits<int,HonorData,std::less<int>,std::allocator<std::pair<int const ,HonorData> >,0>
_TEXT	ENDS
PUBLIC	?data@CStringData@ATL@@QAEPAXXZ			; ATL::CStringData::data
; Function compile flags: /Ogty
; File c:\program files\microsoft visual studio .net 2003\vc7\atlmfc\include\atlsimpstr.h
;	COMDAT ?data@CStringData@ATL@@QAEPAXXZ
_TEXT	SEGMENT
?data@CStringData@ATL@@QAEPAXXZ PROC NEAR		; ATL::CStringData::data, COMDAT
; _this$ = ecx

; 66   : 		return (this+1);

  00000	8d 41 10	 lea	 eax, DWORD PTR [ecx+16]

; 67   : 	}

  00003	c3		 ret	 0
?data@CStringData@ATL@@QAEPAXXZ ENDP			; ATL::CStringData::data
_TEXT	ENDS
PUBLIC	?AddRef@CStringData@ATL@@QAEXXZ			; ATL::CStringData::AddRef
; Function compile flags: /Ogty
;	COMDAT ?AddRef@CStringData@ATL@@QAEXXZ
_TEXT	SEGMENT
?AddRef@CStringData@ATL@@QAEXXZ PROC NEAR		; ATL::CStringData::AddRef, COMDAT
; _this$ = ecx

; 71   : 		ATLASSERT(nRefs > 0);
; 72   : 		_InterlockedIncrement(&nRefs);

  00000	83 c1 0c	 add	 ecx, 12			; 0000000cH
  00003	b8 01 00 00 00	 mov	 eax, 1
  00008	f0 0f c1 01	 lock	  xadd	 DWORD PTR [ecx], eax

; 73   : 	}

  0000c	c3		 ret	 0
?AddRef@CStringData@ATL@@QAEXXZ ENDP			; ATL::CStringData::AddRef
_TEXT	ENDS
PUBLIC	?IsLocked@CStringData@ATL@@QBE_NXZ		; ATL::CStringData::IsLocked
; Function compile flags: /Ogty
;	COMDAT ?IsLocked@CStringData@ATL@@QBE_NXZ
_TEXT	SEGMENT
?IsLocked@CStringData@ATL@@QBE_NXZ PROC NEAR		; ATL::CStringData::IsLocked, COMDAT
; _this$ = ecx

; 76   : 		return nRefs < 0;

  00000	8b 51 0c	 mov	 edx, DWORD PTR [ecx+12]
  00003	33 c0		 xor	 eax, eax
  00005	85 d2		 test	 edx, edx
  00007	0f 9c c0	 setl	 al

; 77   : 	}

  0000a	c3		 ret	 0
?IsLocked@CStringData@ATL@@QBE_NXZ ENDP			; ATL::CStringData::IsLocked
_TEXT	ENDS
PUBLIC	?IsShared@CStringData@ATL@@QBE_NXZ		; ATL::CStringData::IsShared
; Function compile flags: /Ogty
;	COMDAT ?IsShared@CStringData@ATL@@QBE_NXZ
_TEXT	SEGMENT
?IsShared@CStringData@ATL@@QBE_NXZ PROC NEAR		; ATL::CStringData::IsShared, COMDAT
; _this$ = ecx

; 80   : 		return( nRefs > 1 ); 

  00000	8b 51 0c	 mov	 edx, DWORD PTR [ecx+12]
  00003	33 c0		 xor	 eax, eax
  00005	83 fa 01	 cmp	 edx, 1
  00008	0f 9f c0	 setg	 al

; 81   : 	}

  0000b	c3		 ret	 0
?IsShared@CStringData@ATL@@QBE_NXZ ENDP			; ATL::CStringData::IsShared
_TEXT	ENDS
PUBLIC	??$_Destroy@PAU_Node@?$_Tree_nod@V?$_Tmap_traits@HUHonorData@@U?$less@H@std@@V?$allocator@U?$pair@$$CBHUHonorData@@@std@@@3@$0A@@std@@@std@@@std@@YAXPAPAU_Node@?$_Tree_nod@V?$_Tmap_traits@HUHonorData@@U?$less@H@std@@V?$allocator@U?$pair@$$CBHUHonorData@@@std@@@3@$0A@@std@@@0@@Z ; std::_Destroy<std::_Tree_nod<std::_Tmap_traits<int,HonorData,std::less<int>,std::allocator<std::pair<int const ,HonorData> >,0> >::_Node *>
; Function compile flags: /Ogty
; File c:\program files\microsoft visual studio .net 2003\vc7\include\xmemory
;	COMDAT ??$_Destroy@PAU_Node@?$_Tree_nod@V?$_Tmap_traits@HUHonorData@@U?$less@H@std@@V?$allocator@U?$pair@$$CBHUHonorData@@@std@@@3@$0A@@std@@@std@@@std@@YAXPAPAU_Node@?$_Tree_nod@V?$_Tmap_traits@HUHonorData@@U?$less@H@std@@V?$allocator@U?$pair@$$CBHUHonorData@@@std@@@3@$0A@@std@@@0@@Z
_TEXT	SEGMENT
__Ptr$ = 8						; size = 4
??$_Destroy@PAU_Node@?$_Tree_nod@V?$_Tmap_traits@HUHonorData@@U?$less@H@std@@V?$allocator@U?$pair@$$CBHUHonorData@@@std@@@3@$0A@@std@@@std@@@std@@YAXPAPAU_Node@?$_Tree_nod@V?$_Tmap_traits@HUHonorData@@U?$less@H@std@@V?$allocator@U?$pair@$$CBHUHonorData@@@std@@@3@$0A@@std@@@0@@Z PROC NEAR ; std::_Destroy<std::_Tree_nod<std::_Tmap_traits<int,HonorData,std::less<int>,std::allocator<std::pair<int const ,HonorData> >,0> >::_Node *>, COMDAT

; 49   : 	_DESTRUCTOR(_Ty, _Ptr);
; 50   : 	}

  00000	c3		 ret	 0
??$_Destroy@PAU_Node@?$_Tree_nod@V?$_Tmap_traits@HUHonorData@@U?$less@H@std@@V?$allocator@U?$pair@$$CBHUHonorData@@@std@@@3@$0A@@std@@@std@@@std@@YAXPAPAU_Node@?$_Tree_nod@V?$_Tmap_traits@HUHonorData@@U?$less@H@std@@V?$allocator@U?$pair@$$CBHUHonorData@@@std@@@3@$0A@@std@@@0@@Z ENDP ; std::_Destroy<std::_Tree_nod<std::_Tmap_traits<int,HonorData,std::less<int>,std::allocator<std::pair<int const ,HonorData> >,0> >::_Node *>
_TEXT	ENDS
PUBLIC	?Release@CStringData@ATL@@QAEXXZ		; ATL::CStringData::Release
; Function compile flags: /Ogty
; File c:\program files\microsoft visual studio .net 2003\vc7\atlmfc\include\atlsimpstr.h
;	COMDAT ?Release@CStringData@ATL@@QAEXXZ
_TEXT	SEGMENT
?Release@CStringData@ATL@@QAEXXZ PROC NEAR		; ATL::CStringData::Release, COMDAT
; _this$ = ecx

; 93   : 		ATLASSERT( nRefs != 0 );
; 94   : 
; 95   : 		if( _InterlockedDecrement( &nRefs ) <= 0 )

  00000	8d 41 0c	 lea	 eax, DWORD PTR [ecx+12]
  00003	83 ca ff	 or	 edx, -1
  00006	f0 0f c1 10	 lock	  xadd	 DWORD PTR [eax], edx
  0000a	4a		 dec	 edx
  0000b	85 d2		 test	 edx, edx
  0000d	7f 0a		 jg	 SHORT $L39883

; 96   : 		{
; 97   : 			pStringMgr->Free( this );

  0000f	8b 01		 mov	 eax, DWORD PTR [ecx]
  00011	8b 10		 mov	 edx, DWORD PTR [eax]
  00013	51		 push	 ecx
  00014	8b c8		 mov	 ecx, eax
  00016	ff 52 04	 call	 DWORD PTR [edx+4]
$L39883:

; 98   : 		}
; 99   : 	}

  00019	c3		 ret	 0
?Release@CStringData@ATL@@QAEXXZ ENDP			; ATL::CStringData::Release
_TEXT	ENDS
PUBLIC	??$?0U?$pair@$$CBHUHonorData@@@std@@@?$allocator@PAU_Node@?$_Tree_nod@V?$_Tmap_traits@HUHonorData@@U?$less@H@std@@V?$allocator@U?$pair@$$CBHUHonorData@@@std@@@3@$0A@@std@@@std@@@std@@QAE@ABV?$allocator@U?$pair@$$CBHUHonorData@@@std@@@1@@Z ; std::allocator<std::_Tree_nod<std::_Tmap_traits<int,HonorData,std::less<int>,std::allocator<std::pair<int const ,HonorData> >,0> >::_Node *>::allocator<std::_Tree_nod<std::_Tmap_traits<int,HonorData,std::less<int>,std::allocator<std::pair<int const ,HonorData> >,0> >::_Node *><std::pair<int const ,HonorData> >
; Function compile flags: /Ogty
; File c:\program files\microsoft visual studio .net 2003\vc7\include\xmemory
;	COMDAT ??$?0U?$pair@$$CBHUHonorData@@@std@@@?$allocator@PAU_Node@?$_Tree_nod@V?$_Tmap_traits@HUHonorData@@U?$less@H@std@@V?$allocator@U?$pair@$$CBHUHonorData@@@std@@@3@$0A@@std@@@std@@@std@@QAE@ABV?$allocator@U?$pair@$$CBHUHonorData@@@std@@@1@@Z
_TEXT	SEGMENT
___formal$ = 8						; size = 4
??$?0U?$pair@$$CBHUHonorData@@@std@@@?$allocator@PAU_Node@?$_Tree_nod@V?$_Tmap_traits@HUHonorData@@U?$less@H@std@@V?$allocator@U?$pair@$$CBHUHonorData@@@std@@@3@$0A@@std@@@std@@@std@@QAE@ABV?$allocator@U?$pair@$$CBHUHonorData@@@std@@@1@@Z PROC NEAR ; std::allocator<std::_Tree_nod<std::_Tmap_traits<int,HonorData,std::less<int>,std::allocator<std::pair<int const ,HonorData> >,0> >::_Node *>::allocator<std::_Tree_nod<std::_Tmap_traits<int,HonorData,std::less<int>,std::allocator<std::pair<int const ,HonorData> >,0> >::_Node *><std::pair<int const ,HonorData> >, COMDAT
; _this$ = ecx

; 120  : 		allocator(const allocator<_Other>&)

  00000	8b c1		 mov	 eax, ecx

; 121  : 		{	// construct from a related allocator (do nothing)
; 122  : 		}

  00002	c2 04 00	 ret	 4
??$?0U?$pair@$$CBHUHonorData@@@std@@@?$allocator@PAU_Node@?$_Tree_nod@V?$_Tmap_traits@HUHonorData@@U?$less@H@std@@V?$allocator@U?$pair@$$CBHUHonorData@@@std@@@3@$0A@@std@@@std@@@std@@QAE@ABV?$allocator@U?$pair@$$CBHUHonorData@@@std@@@1@@Z ENDP ; std::allocator<std::_Tree_nod<std::_Tmap_traits<int,HonorData,std::less<int>,std::allocator<std::pair<int const ,HonorData> >,0> >::_Node *>::allocator<std::_Tree_nod<std::_Tmap_traits<int,HonorData,std::less<int>,std::allocator<std::pair<int const ,HonorData> >,0> >::_Node *><std::pair<int const ,HonorData> >
_TEXT	ENDS
PUBLIC	??$_Allocate@U_Node@?$_Tree_nod@V?$_Tmap_traits@HUHonorData@@U?$less@H@std@@V?$allocator@U?$pair@$$CBHUHonorData@@@std@@@3@$0A@@std@@@std@@@std@@YAPAU_Node@?$_Tree_nod@V?$_Tmap_traits@HUHonorData@@U?$less@H@std@@V?$allocator@U?$pair@$$CBHUHonorData@@@std@@@3@$0A@@std@@@0@IPAU120@@Z ; std::_Allocate<std::_Tree_nod<std::_Tmap_traits<int,HonorData,std::less<int>,std::allocator<std::pair<int const ,HonorData> >,0> >::_Node>
EXTRN	??2@YAPAXI@Z:NEAR				; operator new
; Function compile flags: /Ogty
;	COMDAT ??$_Allocate@U_Node@?$_Tree_nod@V?$_Tmap_traits@HUHonorData@@U?$less@H@std@@V?$allocator@U?$pair@$$CBHUHonorData@@@std@@@3@$0A@@std@@@std@@@std@@YAPAU_Node@?$_Tree_nod@V?$_Tmap_traits@HUHonorData@@U?$less@H@std@@V?$allocator@U?$pair@$$CBHUHonorData@@@std@@@3@$0A@@std@@@0@IPAU120@@Z
_TEXT	SEGMENT
__Count$ = 8						; size = 4
___formal$ = 12						; size = 4
??$_Allocate@U_Node@?$_Tree_nod@V?$_Tmap_traits@HUHonorData@@U?$less@H@std@@V?$allocator@U?$pair@$$CBHUHonorData@@@std@@@3@$0A@@std@@@std@@@std@@YAPAU_Node@?$_Tree_nod@V?$_Tmap_traits@HUHonorData@@U?$less@H@std@@V?$allocator@U?$pair@$$CBHUHonorData@@@std@@@3@$0A@@std@@@0@IPAU120@@Z PROC NEAR ; std::_Allocate<std::_Tree_nod<std::_Tmap_traits<int,HonorData,std::less<int>,std::allocator<std::pair<int const ,HonorData> >,0> >::_Node>, COMDAT

; 34   : 	return ((_Ty _FARQ *)operator new(_Count * sizeof (_Ty)));

  00000	8b 44 24 04	 mov	 eax, DWORD PTR __Count$[esp-4]
  00004	6b c0 2c	 imul	 eax, 44			; 0000002cH
  00007	50		 push	 eax
  00008	e8 00 00 00 00	 call	 ??2@YAPAXI@Z		; operator new
  0000d	83 c4 04	 add	 esp, 4

; 35   : 	}

  00010	c3		 ret	 0
??$_Allocate@U_Node@?$_Tree_nod@V?$_Tmap_traits@HUHonorData@@U?$less@H@std@@V?$allocator@U?$pair@$$CBHUHonorData@@@std@@@3@$0A@@std@@@std@@@std@@YAPAU_Node@?$_Tree_nod@V?$_Tmap_traits@HUHonorData@@U?$less@H@std@@V?$allocator@U?$pair@$$CBHUHonorData@@@std@@@3@$0A@@std@@@0@IPAU120@@Z ENDP ; std::_Allocate<std::_Tree_nod<std::_Tmap_traits<int,HonorData,std::less<int>,std::allocator<std::pair<int const ,HonorData> >,0> >::_Node>
_TEXT	ENDS
PUBLIC	??$?0U?$pair@$$CBHUHonorData@@@std@@@?$allocator@U_Node@?$_Tree_nod@V?$_Tmap_traits@HUHonorData@@U?$less@H@std@@V?$allocator@U?$pair@$$CBHUHonorData@@@std@@@3@$0A@@std@@@std@@@std@@QAE@ABV?$allocator@U?$pair@$$CBHUHonorData@@@std@@@1@@Z ; std::allocator<std::_Tree_nod<std::_Tmap_traits<int,HonorData,std::less<int>,std::allocator<std::pair<int const ,HonorData> >,0> >::_Node>::allocator<std::_Tree_nod<std::_Tmap_traits<int,HonorData,std::less<int>,std::allocator<std::pair<int const ,HonorData> >,0> >::_Node><std::pair<int const ,HonorData> >
; Function compile flags: /Ogty
;	COMDAT ??$?0U?$pair@$$CBHUHonorData@@@std@@@?$allocator@U_Node@?$_Tree_nod@V?$_Tmap_traits@HUHonorData@@U?$less@H@std@@V?$allocator@U?$pair@$$CBHUHonorData@@@std@@@3@$0A@@std@@@std@@@std@@QAE@ABV?$allocator@U?$pair@$$CBHUHonorData@@@std@@@1@@Z
_TEXT	SEGMENT
___formal$ = 8						; size = 4
??$?0U?$pair@$$CBHUHonorData@@@std@@@?$allocator@U_Node@?$_Tree_nod@V?$_Tmap_traits@HUHonorData@@U?$less@H@std@@V?$allocator@U?$pair@$$CBHUHonorData@@@std@@@3@$0A@@std@@@std@@@std@@QAE@ABV?$allocator@U?$pair@$$CBHUHonorData@@@std@@@1@@Z PROC NEAR ; std::allocator<std::_Tree_nod<std::_Tmap_traits<int,HonorData,std::less<int>,std::allocator<std::pair<int const ,HonorData> >,0> >::_Node>::allocator<std::_Tree_nod<std::_Tmap_traits<int,HonorData,std::less<int>,std::allocator<std::pair<int const ,HonorData> >,0> >::_Node><std::pair<int const ,HonorData> >, COMDAT
; _this$ = ecx

; 120  : 		allocator(const allocator<_Other>&)

  00000	8b c1		 mov	 eax, ecx

; 121  : 		{	// construct from a related allocator (do nothing)
; 122  : 		}

  00002	c2 04 00	 ret	 4
??$?0U?$pair@$$CBHUHonorData@@@std@@@?$allocator@U_Node@?$_Tree_nod@V?$_Tmap_traits@HUHonorData@@U?$less@H@std@@V?$allocator@U?$pair@$$CBHUHonorData@@@std@@@3@$0A@@std@@@std@@@std@@QAE@ABV?$allocator@U?$pair@$$CBHUHonorData@@@std@@@1@@Z ENDP ; std::allocator<std::_Tree_nod<std::_Tmap_traits<int,HonorData,std::less<int>,std::allocator<std::pair<int const ,HonorData> >,0> >::_Node>::allocator<std::_Tree_nod<std::_Tmap_traits<int,HonorData,std::less<int>,std::allocator<std::pair<int const ,HonorData> >,0> >::_Node><std::pair<int const ,HonorData> >
_TEXT	ENDS
PUBLIC	??$_Construct@PAU_Node@?$_Tree_nod@V?$_Tmap_traits@HUHonorData@@U?$less@H@std@@V?$allocator@U?$pair@$$CBHUHonorData@@@std@@@3@$0A@@std@@@std@@PAU123@@std@@YAXPAPAU_Node@?$_Tree_nod@V?$_Tmap_traits@HUHonorData@@U?$less@H@std@@V?$allocator@U?$pair@$$CBHUHonorData@@@std@@@3@$0A@@std@@@0@ABQAU120@@Z ; std::_Construct<std::_Tree_nod<std::_Tmap_traits<int,HonorData,std::less<int>,std::allocator<std::pair<int const ,HonorData> >,0> >::_Node *,std::_Tree_nod<std::_Tmap_traits<int,HonorData,std::less<int>,std::allocator<std::pair<int const ,HonorData> >,0> >::_Node *>
; Function compile flags: /Ogty
;	COMDAT ??$_Construct@PAU_Node@?$_Tree_nod@V?$_Tmap_traits@HUHonorData@@U?$less@H@std@@V?$allocator@U?$pair@$$CBHUHonorData@@@std@@@3@$0A@@std@@@std@@PAU123@@std@@YAXPAPAU_Node@?$_Tree_nod@V?$_Tmap_traits@HUHonorData@@U?$less@H@std@@V?$allocator@U?$pair@$$CBHUHonorData@@@std@@@3@$0A@@std@@@0@ABQAU120@@Z
_TEXT	SEGMENT
__Ptr$ = 8						; size = 4
__Val$ = 12						; size = 4
??$_Construct@PAU_Node@?$_Tree_nod@V?$_Tmap_traits@HUHonorData@@U?$less@H@std@@V?$allocator@U?$pair@$$CBHUHonorData@@@std@@@3@$0A@@std@@@std@@PAU123@@std@@YAXPAPAU_Node@?$_Tree_nod@V?$_Tmap_traits@HUHonorData@@U?$less@H@std@@V?$allocator@U?$pair@$$CBHUHonorData@@@std@@@3@$0A@@std@@@0@ABQAU120@@Z PROC NEAR ; std::_Construct<std::_Tree_nod<std::_Tmap_traits<int,HonorData,std::less<int>,std::allocator<std::pair<int const ,HonorData> >,0> >::_Node *,std::_Tree_nod<std::_Tmap_traits<int,HonorData,std::less<int>,std::allocator<std::pair<int const ,HonorData> >,0> >::_Node *>, COMDAT

; 42   : 	new ((void _FARQ *)_Ptr) _T1(_Val);

  00000	8b 44 24 04	 mov	 eax, DWORD PTR __Ptr$[esp-4]
  00004	85 c0		 test	 eax, eax
  00006	74 08		 je	 SHORT $L188547
  00008	8b 4c 24 08	 mov	 ecx, DWORD PTR __Val$[esp-4]
  0000c	8b 11		 mov	 edx, DWORD PTR [ecx]
  0000e	89 10		 mov	 DWORD PTR [eax], edx
$L188547:

; 43   : 	}

  00010	c3		 ret	 0
??$_Construct@PAU_Node@?$_Tree_nod@V?$_Tmap_traits@HUHonorData@@U?$less@H@std@@V?$allocator@U?$pair@$$CBHUHonorData@@@std@@@3@$0A@@std@@@std@@PAU123@@std@@YAXPAPAU_Node@?$_Tree_nod@V?$_Tmap_traits@HUHonorData@@U?$less@H@std@@V?$allocator@U?$pair@$$CBHUHonorData@@@std@@@3@$0A@@std@@@0@ABQAU120@@Z ENDP ; std::_Construct<std::_Tree_nod<std::_Tmap_traits<int,HonorData,std::less<int>,std::allocator<std::pair<int const ,HonorData> >,0> >::_Node *,std::_Tree_nod<std::_Tmap_traits<int,HonorData,std::less<int>,std::allocator<std::pair<int const ,HonorData> >,0> >::_Node *>
_TEXT	ENDS
PUBLIC	?assign@?$char_traits@D@std@@SAXAADABD@Z	; std::char_traits<char>::assign
; Function compile flags: /Ogty
; File c:\program files\microsoft visual studio .net 2003\vc7\include\iosfwd
;	COMDAT ?assign@?$char_traits@D@std@@SAXAADABD@Z
_TEXT	SEGMENT
__Left$ = 8						; size = 4
__Right$ = 12						; size = 4
?assign@?$char_traits@D@std@@SAXAADABD@Z PROC NEAR	; std::char_traits<char>::assign, COMDAT

; 331  : 		_Left = _Right;

  00000	8b 44 24 08	 mov	 eax, DWORD PTR __Right$[esp-4]
  00004	8a 08		 mov	 cl, BYTE PTR [eax]
  00006	8b 54 24 04	 mov	 edx, DWORD PTR __Left$[esp-4]
  0000a	88 0a		 mov	 BYTE PTR [edx], cl

; 332  : 		}

  0000c	c3		 ret	 0
?assign@?$char_traits@D@std@@SAXAADABD@Z ENDP		; std::char_traits<char>::assign
_TEXT	ENDS
PUBLIC	?length@?$char_traits@D@std@@SAIPBD@Z		; std::char_traits<char>::length
; Function compile flags: /Ogty
;	COMDAT ?length@?$char_traits@D@std@@SAIPBD@Z
_TEXT	SEGMENT
__First$ = 8						; size = 4
?length@?$char_traits@D@std@@SAIPBD@Z PROC NEAR		; std::char_traits<char>::length, COMDAT

; 352  : 		return (::strlen(_First));

  00000	8b 44 24 04	 mov	 eax, DWORD PTR __First$[esp-4]
  00004	8d 50 01	 lea	 edx, DWORD PTR [eax+1]
$L188556:
  00007	8a 08		 mov	 cl, BYTE PTR [eax]
  00009	40		 inc	 eax
  0000a	84 c9		 test	 cl, cl
  0000c	75 f9		 jne	 SHORT $L188556
  0000e	2b c2		 sub	 eax, edx

; 353  : 		}

  00010	c3		 ret	 0
?length@?$char_traits@D@std@@SAIPBD@Z ENDP		; std::char_traits<char>::length
_TEXT	ENDS
PUBLIC	?copy@?$char_traits@D@std@@SAPADPADPBDI@Z	; std::char_traits<char>::copy
; Function compile flags: /Ogty
;	COMDAT ?copy@?$char_traits@D@std@@SAPADPADPBDI@Z
_TEXT	SEGMENT
__First1$ = 8						; size = 4
__First2$ = 12						; size = 4
__Count$ = 16						; size = 4
?copy@?$char_traits@D@std@@SAPADPADPBDI@Z PROC NEAR	; std::char_traits<char>::copy, COMDAT

; 358  : 		return ((_Elem *)::memcpy(_First1, _First2, _Count));

  00000	8b 4c 24 0c	 mov	 ecx, DWORD PTR __Count$[esp-4]
  00004	56		 push	 esi
  00005	8b 74 24 0c	 mov	 esi, DWORD PTR __First2$[esp]
  00009	57		 push	 edi
  0000a	8b 7c 24 0c	 mov	 edi, DWORD PTR __First1$[esp+4]
  0000e	8b c1		 mov	 eax, ecx
  00010	8b d7		 mov	 edx, edi
  00012	c1 e9 02	 shr	 ecx, 2
  00015	f3 a5		 rep movsd
  00017	8b c8		 mov	 ecx, eax
  00019	83 e1 03	 and	 ecx, 3
  0001c	f3 a4		 rep movsb
  0001e	5f		 pop	 edi
  0001f	8b c2		 mov	 eax, edx
  00021	5e		 pop	 esi

; 359  : 		}

  00022	c3		 ret	 0
?copy@?$char_traits@D@std@@SAPADPADPBDI@Z ENDP		; std::char_traits<char>::copy
_TEXT	ENDS
PUBLIC	?move@?$char_traits@D@std@@SAPADPADPBDI@Z	; std::char_traits<char>::move
EXTRN	_memmove:NEAR
; Function compile flags: /Ogty
;	COMDAT ?move@?$char_traits@D@std@@SAPADPADPBDI@Z
_TEXT	SEGMENT
__First1$ = 8						; size = 4
__First2$ = 12						; size = 4
__Count$ = 16						; size = 4
?move@?$char_traits@D@std@@SAPADPADPBDI@Z PROC NEAR	; std::char_traits<char>::move, COMDAT

; 370  : 		return ((_Elem *)::memmove(_First1, _First2, _Count));

  00000	e9 00 00 00 00	 jmp	 _memmove
?move@?$char_traits@D@std@@SAPADPADPBDI@Z ENDP		; std::char_traits<char>::move
_TEXT	ENDS
PUBLIC	??B?$CSimpleStringT@D$0A@@ATL@@QBEPBDXZ		; ATL::CSimpleStringT<char,0>::operator char const *
; Function compile flags: /Ogty
; File c:\program files\microsoft visual studio .net 2003\vc7\atlmfc\include\atlsimpstr.h
;	COMDAT ??B?$CSimpleStringT@D$0A@@ATL@@QBEPBDXZ
_TEXT	SEGMENT
??B?$CSimpleStringT@D$0A@@ATL@@QBEPBDXZ PROC NEAR	; ATL::CSimpleStringT<char,0>::operator char const *, COMDAT
; _this$ = ecx

; 379  : 		return( m_pszData );

  00000	8b 01		 mov	 eax, DWORD PTR [ecx]

; 380  : 	}

  00002	c3		 ret	 0
??B?$CSimpleStringT@D$0A@@ATL@@QBEPBDXZ ENDP		; ATL::CSimpleStringT<char,0>::operator char const *
_TEXT	ENDS
PUBLIC	?size@?$basic_string@DU?$char_traits@D@std@@V?$allocator@D@2@@std@@QBEIXZ ; std::basic_string<char,std::char_traits<char>,std::allocator<char> >::size
; Function compile flags: /Ogty
; File c:\program files\microsoft visual studio .net 2003\vc7\include\xstring
;	COMDAT ?size@?$basic_string@DU?$char_traits@D@std@@V?$allocator@D@2@@std@@QBEIXZ
_TEXT	SEGMENT
?size@?$basic_string@DU?$char_traits@D@std@@V?$allocator@D@2@@std@@QBEIXZ PROC NEAR ; std::basic_string<char,std::char_traits<char>,std::allocator<char> >::size, COMDAT
; _this$ = ecx

; 1109 : 		return (_Mysize);

  00000	8b 41 14	 mov	 eax, DWORD PTR [ecx+20]

; 1110 : 		}

  00003	c3		 ret	 0
?size@?$basic_string@DU?$char_traits@D@std@@V?$allocator@D@2@@std@@QBEIXZ ENDP ; std::basic_string<char,std::char_traits<char>,std::allocator<char> >::size
_TEXT	ENDS
PUBLIC	?GetString@?$CSimpleStringT@D$0A@@ATL@@QBEPBDXZ	; ATL::CSimpleStringT<char,0>::GetString
; Function compile flags: /Ogty
; File c:\program files\microsoft visual studio .net 2003\vc7\atlmfc\include\atlsimpstr.h
;	COMDAT ?GetString@?$CSimpleStringT@D$0A@@ATL@@QBEPBDXZ
_TEXT	SEGMENT
?GetString@?$CSimpleStringT@D$0A@@ATL@@QBEPBDXZ PROC NEAR ; ATL::CSimpleStringT<char,0>::GetString, COMDAT
; _this$ = ecx

; 510  : 		return( m_pszData );

  00000	8b 01		 mov	 eax, DWORD PTR [ecx]

; 511  : 	}

  00002	c3		 ret	 0
?GetString@?$CSimpleStringT@D$0A@@ATL@@QBEPBDXZ ENDP	; ATL::CSimpleStringT<char,0>::GetString
_TEXT	ENDS
PUBLIC	?GetData@?$CSimpleStringT@D$0A@@ATL@@ABEPAUCStringData@2@XZ ; ATL::CSimpleStringT<char,0>::GetData
; Function compile flags: /Ogty
;	COMDAT ?GetData@?$CSimpleStringT@D$0A@@ATL@@ABEPAUCStringData@2@XZ
_TEXT	SEGMENT
?GetData@?$CSimpleStringT@D$0A@@ATL@@ABEPAUCStringData@2@XZ PROC NEAR ; ATL::CSimpleStringT<char,0>::GetData, COMDAT
; _this$ = ecx

; 731  : 		return( reinterpret_cast< CStringData* >( m_pszData )-1 );

  00000	8b 01		 mov	 eax, DWORD PTR [ecx]
  00002	83 e8 10	 sub	 eax, 16			; 00000010H

; 732  : 	}

  00005	c3		 ret	 0
?GetData@?$CSimpleStringT@D$0A@@ATL@@ABEPAUCStringData@2@XZ ENDP ; ATL::CSimpleStringT<char,0>::GetData
_TEXT	ENDS
PUBLIC	?SetLength@?$CSimpleStringT@D$0A@@ATL@@AAEXH@Z	; ATL::CSimpleStringT<char,0>::SetLength
; Function compile flags: /Ogty
;	COMDAT ?SetLength@?$CSimpleStringT@D$0A@@ATL@@AAEXH@Z
_TEXT	SEGMENT
_nLength$ = 8						; size = 4
?SetLength@?$CSimpleStringT@D$0A@@ATL@@AAEXH@Z PROC NEAR ; ATL::CSimpleStringT<char,0>::SetLength, COMDAT
; _this$ = ecx

; 790  : 		ATLASSERT( nLength >= 0 );
; 791  : 		ATLASSERT( nLength <= GetData()->nAllocLength );
; 792  : 
; 793  : 		if( nLength < 0 || nLength > GetData()->nAllocLength)

  00000	8b 44 24 04	 mov	 eax, DWORD PTR _nLength$[esp-4]
  00004	85 c0		 test	 eax, eax
  00006	7c 13		 jl	 SHORT $L184241
  00008	8b 11		 mov	 edx, DWORD PTR [ecx]
  0000a	3b 42 f8	 cmp	 eax, DWORD PTR [edx-8]
  0000d	7f 0c		 jg	 SHORT $L184241

; 794  : 			AtlThrow(E_INVALIDARG);
; 795  : 			
; 796  : 		GetData()->nDataLength = nLength;

  0000f	89 42 f4	 mov	 DWORD PTR [edx-12], eax

; 797  : 		m_pszData[nLength] = 0;

  00012	8b 09		 mov	 ecx, DWORD PTR [ecx]
  00014	c6 04 08 00	 mov	 BYTE PTR [eax+ecx], 0

; 798  : 	}

  00018	c2 04 00	 ret	 4
$L184241:
  0001b	68 57 00 07 80	 push	 -2147024809		; 80070057H
  00020	e8 00 00 00 00	 call	 ?AtlThrow@ATL@@YGXJ@Z	; ATL::AtlThrow
$L188578:
  00025	cc		 int	 3
?SetLength@?$CSimpleStringT@D$0A@@ATL@@AAEXH@Z ENDP	; ATL::CSimpleStringT<char,0>::SetLength
_TEXT	ENDS
PUBLIC	?GetDefaultManager@?$StrTraitMFC@DV?$ChTraitsCRT@D@ATL@@@@SAPAUIAtlStringMgr@ATL@@XZ ; StrTraitMFC<char,ATL::ChTraitsCRT<char> >::GetDefaultManager
EXTRN	?AfxGetStringManager@@YGPAUIAtlStringMgr@ATL@@XZ:NEAR ; AfxGetStringManager
; Function compile flags: /Ogty
; File c:\program files\microsoft visual studio .net 2003\vc7\atlmfc\include\afxstr.h
;	COMDAT ?GetDefaultManager@?$StrTraitMFC@DV?$ChTraitsCRT@D@ATL@@@@SAPAUIAtlStringMgr@ATL@@XZ
_TEXT	SEGMENT
?GetDefaultManager@?$StrTraitMFC@DV?$ChTraitsCRT@D@ATL@@@@SAPAUIAtlStringMgr@ATL@@XZ PROC NEAR ; StrTraitMFC<char,ATL::ChTraitsCRT<char> >::GetDefaultManager, COMDAT

; 50   : 		return( AfxGetStringManager() );

  00000	e9 00 00 00 00	 jmp	 ?AfxGetStringManager@@YGPAUIAtlStringMgr@ATL@@XZ ; AfxGetStringManager
?GetDefaultManager@?$StrTraitMFC@DV?$ChTraitsCRT@D@ATL@@@@SAPAUIAtlStringMgr@ATL@@XZ ENDP ; StrTraitMFC<char,ATL::ChTraitsCRT<char> >::GetDefaultManager
_TEXT	ENDS
PUBLIC	?_Myptr@?$basic_string@DU?$char_traits@D@std@@V?$allocator@D@2@@std@@QBEPBDXZ ; std::basic_string<char,std::char_traits<char>,std::allocator<char> >::_Myptr
; Function compile flags: /Ogty
; File c:\program files\microsoft visual studio .net 2003\vc7\include\xstring
;	COMDAT ?_Myptr@?$basic_string@DU?$char_traits@D@std@@V?$allocator@D@2@@std@@QBEPBDXZ
_TEXT	SEGMENT
?_Myptr@?$basic_string@DU?$char_traits@D@std@@V?$allocator@D@2@@std@@QBEPBDXZ PROC NEAR ; std::basic_string<char,std::char_traits<char>,std::allocator<char> >::_Myptr, COMDAT
; _this$ = ecx

; 1537 : 		return (_BUF_SIZE <= _Myres ? _Bx._Ptr : _Bx._Buf);

  00000	83 79 18 10	 cmp	 DWORD PTR [ecx+24], 16	; 00000010H
  00004	72 04		 jb	 SHORT $L188584
  00006	8b 41 04	 mov	 eax, DWORD PTR [ecx+4]

; 1538 : 		}

  00009	c3		 ret	 0
$L188584:

; 1537 : 		return (_BUF_SIZE <= _Myres ? _Bx._Ptr : _Bx._Buf);

  0000a	8d 41 04	 lea	 eax, DWORD PTR [ecx+4]

; 1538 : 		}

  0000d	c3		 ret	 0
?_Myptr@?$basic_string@DU?$char_traits@D@std@@V?$allocator@D@2@@std@@QBEPBDXZ ENDP ; std::basic_string<char,std::char_traits<char>,std::allocator<char> >::_Myptr
_TEXT	ENDS
PUBLIC	??0?$allocator@D@std@@QAE@XZ			; std::allocator<char>::allocator<char>
; Function compile flags: /Ogty
; File c:\program files\microsoft visual studio .net 2003\vc7\include\xmemory
;	COMDAT ??0?$allocator@D@std@@QAE@XZ
_TEXT	SEGMENT
??0?$allocator@D@std@@QAE@XZ PROC NEAR			; std::allocator<char>::allocator<char>, COMDAT
; _this$ = ecx

; 111  : 	allocator()

  00000	8b c1		 mov	 eax, ecx

; 112  : 		{	// construct default allocator (do nothing)
; 113  : 		}

  00002	c3		 ret	 0
??0?$allocator@D@std@@QAE@XZ ENDP			; std::allocator<char>::allocator<char>
_TEXT	ENDS
PUBLIC	??0?$allocator@D@std@@QAE@ABV01@@Z		; std::allocator<char>::allocator<char>
; Function compile flags: /Ogty
;	COMDAT ??0?$allocator@D@std@@QAE@ABV01@@Z
_TEXT	SEGMENT
___formal$ = 8						; size = 4
??0?$allocator@D@std@@QAE@ABV01@@Z PROC NEAR		; std::allocator<char>::allocator<char>, COMDAT
; _this$ = ecx

; 115  : 	allocator(const allocator<_Ty>&)

  00000	8b c1		 mov	 eax, ecx

; 116  : 		{	// construct by copying (do nothing)
; 117  : 		}

  00002	c2 04 00	 ret	 4
??0?$allocator@D@std@@QAE@ABV01@@Z ENDP			; std::allocator<char>::allocator<char>
_TEXT	ENDS
PUBLIC	?Attach@?$CSimpleStringT@D$0A@@ATL@@AAEXPAUCStringData@2@@Z ; ATL::CSimpleStringT<char,0>::Attach
; Function compile flags: /Ogty
; File c:\program files\microsoft visual studio .net 2003\vc7\atlmfc\include\atlsimpstr.h
;	COMDAT ?Attach@?$CSimpleStringT@D$0A@@ATL@@AAEXPAUCStringData@2@@Z
_TEXT	SEGMENT
_pData$ = 8						; size = 4
?Attach@?$CSimpleStringT@D$0A@@ATL@@AAEXPAUCStringData@2@@Z PROC NEAR ; ATL::CSimpleStringT<char,0>::Attach, COMDAT
; _this$ = ecx

; 712  : 		m_pszData = static_cast< PXSTR >( pData->data() );

  00000	8b 44 24 04	 mov	 eax, DWORD PTR _pData$[esp-4]
  00004	83 c0 10	 add	 eax, 16			; 00000010H
  00007	89 01		 mov	 DWORD PTR [ecx], eax

; 713  : 	}

  00009	c2 04 00	 ret	 4
?Attach@?$CSimpleStringT@D$0A@@ATL@@AAEXPAUCStringData@2@@Z ENDP ; ATL::CSimpleStringT<char,0>::Attach
_TEXT	ENDS
PUBLIC	?_Myptr@?$basic_string@DU?$char_traits@D@std@@V?$allocator@D@2@@std@@QAEPADXZ ; std::basic_string<char,std::char_traits<char>,std::allocator<char> >::_Myptr
; Function compile flags: /Ogty
; File c:\program files\microsoft visual studio .net 2003\vc7\include\xstring
;	COMDAT ?_Myptr@?$basic_string@DU?$char_traits@D@std@@V?$allocator@D@2@@std@@QAEPADXZ
_TEXT	SEGMENT
?_Myptr@?$basic_string@DU?$char_traits@D@std@@V?$allocator@D@2@@std@@QAEPADXZ PROC NEAR ; std::basic_string<char,std::char_traits<char>,std::allocator<char> >::_Myptr, COMDAT
; _this$ = ecx

; 1532 : 		return (_BUF_SIZE <= _Myres ? _Bx._Ptr : _Bx._Buf);

  00000	83 79 18 10	 cmp	 DWORD PTR [ecx+24], 16	; 00000010H
  00004	72 04		 jb	 SHORT $L188597
  00006	8b 41 04	 mov	 eax, DWORD PTR [ecx+4]

; 1533 : 		}

  00009	c3		 ret	 0
$L188597:

; 1532 : 		return (_BUF_SIZE <= _Myres ? _Bx._Ptr : _Bx._Buf);

  0000a	8d 41 04	 lea	 eax, DWORD PTR [ecx+4]

; 1533 : 		}

  0000d	c3		 ret	 0
?_Myptr@?$basic_string@DU?$char_traits@D@std@@V?$allocator@D@2@@std@@QAEPADXZ ENDP ; std::basic_string<char,std::char_traits<char>,std::allocator<char> >::_Myptr
_TEXT	ENDS
PUBLIC	?deallocate@?$allocator@D@std@@QAEXPADI@Z	; std::allocator<char>::deallocate
; Function compile flags: /Ogty
; File c:\program files\microsoft visual studio .net 2003\vc7\include\xmemory
;	COMDAT ?deallocate@?$allocator@D@std@@QAEXPADI@Z
_TEXT	SEGMENT
__Ptr$ = 8						; size = 4
___formal$ = 12						; size = 4
?deallocate@?$allocator@D@std@@QAEXPADI@Z PROC NEAR	; std::allocator<char>::deallocate, COMDAT
; _this$ = ecx

; 132  : 		operator delete(_Ptr);

  00000	8b 44 24 04	 mov	 eax, DWORD PTR __Ptr$[esp-4]
  00004	50		 push	 eax
  00005	e8 00 00 00 00	 call	 ??3@YAXPAX@Z		; operator delete
  0000a	59		 pop	 ecx

; 133  : 		}

  0000b	c2 08 00	 ret	 8
?deallocate@?$allocator@D@std@@QAEXPADI@Z ENDP		; std::allocator<char>::deallocate
_TEXT	ENDS
PUBLIC	?CopyChars@?$CSimpleStringT@D$0A@@ATL@@SAXPADPBDH@Z ; ATL::CSimpleStringT<char,0>::CopyChars
; Function compile flags: /Ogty
; File c:\program files\microsoft visual studio .net 2003\vc7\atlmfc\include\atlsimpstr.h
;	COMDAT ?CopyChars@?$CSimpleStringT@D$0A@@ATL@@SAXPADPBDH@Z
_TEXT	SEGMENT
_pchDest$ = 8						; size = 4
_pchSrc$ = 12						; size = 4
_nChars$ = 16						; size = 4
?CopyChars@?$CSimpleStringT@D$0A@@ATL@@SAXPADPBDH@Z PROC NEAR ; ATL::CSimpleStringT<char,0>::CopyChars, COMDAT

; 653  : 		memcpy( pchDest, pchSrc, nChars*sizeof( XCHAR ) );

  00000	8b 4c 24 0c	 mov	 ecx, DWORD PTR _nChars$[esp-4]
  00004	56		 push	 esi
  00005	8b 74 24 0c	 mov	 esi, DWORD PTR _pchSrc$[esp]
  00009	8b c1		 mov	 eax, ecx
  0000b	57		 push	 edi
  0000c	8b 7c 24 0c	 mov	 edi, DWORD PTR _pchDest$[esp+4]
  00010	c1 e9 02	 shr	 ecx, 2
  00013	f3 a5		 rep movsd
  00015	8b c8		 mov	 ecx, eax
  00017	83 e1 03	 and	 ecx, 3
  0001a	f3 a4		 rep movsb
  0001c	5f		 pop	 edi
  0001d	5e		 pop	 esi

; 654  : 	}

  0001e	c3		 ret	 0
?CopyChars@?$CSimpleStringT@D$0A@@ATL@@SAXPADPBDH@Z ENDP ; ATL::CSimpleStringT<char,0>::CopyChars
_TEXT	ENDS
PUBLIC	?CopyCharsOverlapped@?$CSimpleStringT@D$0A@@ATL@@SAXPADPBDH@Z ; ATL::CSimpleStringT<char,0>::CopyCharsOverlapped
; Function compile flags: /Ogty
;	COMDAT ?CopyCharsOverlapped@?$CSimpleStringT@D$0A@@ATL@@SAXPADPBDH@Z
_TEXT	SEGMENT
_pchDest$ = 8						; size = 4
_pchSrc$ = 12						; size = 4
_nChars$ = 16						; size = 4
?CopyCharsOverlapped@?$CSimpleStringT@D$0A@@ATL@@SAXPADPBDH@Z PROC NEAR ; ATL::CSimpleStringT<char,0>::CopyCharsOverlapped, COMDAT

; 657  : 		memmove( pchDest, pchSrc, nChars*sizeof( XCHAR ) );

  00000	e9 00 00 00 00	 jmp	 _memmove
?CopyCharsOverlapped@?$CSimpleStringT@D$0A@@ATL@@SAXPADPBDH@Z ENDP ; ATL::CSimpleStringT<char,0>::CopyCharsOverlapped
_TEXT	ENDS
PUBLIC	?ThrowMemoryException@?$CSimpleStringT@D$0A@@ATL@@KAXXZ ; ATL::CSimpleStringT<char,0>::ThrowMemoryException
; Function compile flags: /Ogty
;	COMDAT ?ThrowMemoryException@?$CSimpleStringT@D$0A@@ATL@@KAXXZ
_TEXT	SEGMENT
?ThrowMemoryException@?$CSimpleStringT@D$0A@@ATL@@KAXXZ PROC NEAR ; ATL::CSimpleStringT<char,0>::ThrowMemoryException, COMDAT

; 705  : 		AtlThrow( E_OUTOFMEMORY );

  00000	68 0e 00 07 80	 push	 -2147024882		; 8007000eH
  00005	e8 00 00 00 00	 call	 ?AtlThrow@ATL@@YGXJ@Z	; ATL::AtlThrow
$L188607:
  0000a	cc		 int	 3
?ThrowMemoryException@?$CSimpleStringT@D$0A@@ATL@@KAXXZ ENDP ; ATL::CSimpleStringT<char,0>::ThrowMemoryException
_TEXT	ENDS
PUBLIC	?Fork@?$CSimpleStringT@D$0A@@ATL@@AAEXH@Z	; ATL::CSimpleStringT<char,0>::Fork
; Function compile flags: /Ogty
;	COMDAT ?Fork@?$CSimpleStringT@D$0A@@ATL@@AAEXH@Z
_TEXT	SEGMENT
_this$ = -4						; size = 4
tv181 = 8						; size = 4
_nLength$ = 8						; size = 4
?Fork@?$CSimpleStringT@D$0A@@ATL@@AAEXH@Z PROC NEAR	; ATL::CSimpleStringT<char,0>::Fork, COMDAT
; _this$ = ecx

; 715  : 	{

  00000	51		 push	 ecx
  00001	53		 push	 ebx

; 716  : 		CStringData* pOldData = GetData();

  00002	8b 19		 mov	 ebx, DWORD PTR [ecx]
  00004	83 eb 10	 sub	 ebx, 16			; 00000010H
  00007	55		 push	 ebp

; 717  : 		int nOldLength = pOldData->nDataLength;

  00008	8b 6b 04	 mov	 ebp, DWORD PTR [ebx+4]
  0000b	89 4c 24 08	 mov	 DWORD PTR _this$[esp+12], ecx

; 718  : 		CStringData* pNewData = pOldData->pStringMgr->Clone()->Allocate( nLength, sizeof( XCHAR ) );

  0000f	8b 0b		 mov	 ecx, DWORD PTR [ebx]
  00011	8b 01		 mov	 eax, DWORD PTR [ecx]
  00013	56		 push	 esi
  00014	ff 50 10	 call	 DWORD PTR [eax+16]
  00017	8b 74 24 14	 mov	 esi, DWORD PTR _nLength$[esp+12]
  0001b	8b 10		 mov	 edx, DWORD PTR [eax]
  0001d	6a 01		 push	 1
  0001f	56		 push	 esi
  00020	8b c8		 mov	 ecx, eax
  00022	ff 12		 call	 DWORD PTR [edx]

; 719  : 		if( pNewData == NULL )

  00024	85 c0		 test	 eax, eax
  00026	75 05		 jne	 SHORT $L185534

; 720  : 		{
; 721  : 			ThrowMemoryException();

  00028	e8 00 00 00 00	 call	 ?ThrowMemoryException@?$CSimpleStringT@D$0A@@ATL@@KAXXZ ; ATL::CSimpleStringT<char,0>::ThrowMemoryException
$L185534:

; 722  : 		}
; 723  : 		int nCharsToCopy = ((nOldLength < nLength) ? nOldLength : nLength)+1;  // Copy '\0'

  0002d	3b ee		 cmp	 ebp, esi
  0002f	7d 02		 jge	 SHORT $L188611
  00031	8b f5		 mov	 esi, ebp
$L188611:
  00033	8d 4e 01	 lea	 ecx, DWORD PTR [esi+1]

; 724  : 		CopyChars( PXSTR( pNewData->data() ), PCXSTR( pOldData->data() ), nCharsToCopy );

  00036	8b d1		 mov	 edx, ecx
  00038	57		 push	 edi
  00039	c1 e9 02	 shr	 ecx, 2
  0003c	8d 78 10	 lea	 edi, DWORD PTR [eax+16]
  0003f	89 7c 24 18	 mov	 DWORD PTR tv181[esp+16], edi
  00043	8d 73 10	 lea	 esi, DWORD PTR [ebx+16]
  00046	f3 a5		 rep movsd
  00048	8b ca		 mov	 ecx, edx
  0004a	83 e1 03	 and	 ecx, 3
  0004d	f3 a4		 rep movsb

; 725  : 		pNewData->nDataLength = nOldLength;

  0004f	89 68 04	 mov	 DWORD PTR [eax+4], ebp

; 726  : 		pOldData->Release();

  00052	8d 43 0c	 lea	 eax, DWORD PTR [ebx+12]
  00055	83 c9 ff	 or	 ecx, -1
  00058	f0 0f c1 08	 lock	  xadd	 DWORD PTR [eax], ecx
  0005c	49		 dec	 ecx
  0005d	85 c9		 test	 ecx, ecx
  0005f	5f		 pop	 edi
  00060	7f 08		 jg	 SHORT $L188627
  00062	8b 0b		 mov	 ecx, DWORD PTR [ebx]
  00064	8b 11		 mov	 edx, DWORD PTR [ecx]
  00066	53		 push	 ebx
  00067	ff 52 04	 call	 DWORD PTR [edx+4]
$L188627:

; 727  : 		Attach( pNewData );

  0006a	8b 44 24 14	 mov	 eax, DWORD PTR tv181[esp+12]
  0006e	8b 4c 24 0c	 mov	 ecx, DWORD PTR _this$[esp+16]
  00072	5e		 pop	 esi
  00073	5d		 pop	 ebp
  00074	89 01		 mov	 DWORD PTR [ecx], eax
  00076	5b		 pop	 ebx

; 728  : 	}

  00077	59		 pop	 ecx
  00078	c2 04 00	 ret	 4
$L188636:
?Fork@?$CSimpleStringT@D$0A@@ATL@@AAEXH@Z ENDP		; ATL::CSimpleStringT<char,0>::Fork
_TEXT	ENDS
PUBLIC	?Reallocate@?$CSimpleStringT@D$0A@@ATL@@AAEXH@Z	; ATL::CSimpleStringT<char,0>::Reallocate
; Function compile flags: /Ogty
;	COMDAT ?Reallocate@?$CSimpleStringT@D$0A@@ATL@@AAEXH@Z
_TEXT	SEGMENT
_nLength$ = 8						; size = 4
?Reallocate@?$CSimpleStringT@D$0A@@ATL@@AAEXH@Z PROC NEAR ; ATL::CSimpleStringT<char,0>::Reallocate, COMDAT
; _this$ = ecx

; 776  : 	{

  00000	56		 push	 esi
  00001	57		 push	 edi

; 777  : 		CStringData* pOldData = GetData();
; 778  : 		ATLASSERT( pOldData->nAllocLength < nLength );
; 779  : 		IAtlStringMgr* pStringMgr = pOldData->pStringMgr;
; 780  : 		CStringData* pNewData = pStringMgr->Reallocate( pOldData, nLength, sizeof( XCHAR ) );

  00002	8b 7c 24 0c	 mov	 edi, DWORD PTR _nLength$[esp+4]
  00006	8b f1		 mov	 esi, ecx
  00008	8b 06		 mov	 eax, DWORD PTR [esi]
  0000a	8b 48 f0	 mov	 ecx, DWORD PTR [eax-16]
  0000d	8b 11		 mov	 edx, DWORD PTR [ecx]
  0000f	83 e8 10	 sub	 eax, 16			; 00000010H
  00012	6a 01		 push	 1
  00014	57		 push	 edi
  00015	50		 push	 eax
  00016	ff 52 08	 call	 DWORD PTR [edx+8]

; 781  : 		if( pNewData == NULL )

  00019	85 c0		 test	 eax, eax
  0001b	75 05		 jne	 SHORT $L185543

; 782  : 		{
; 783  : 			ThrowMemoryException();

  0001d	e8 00 00 00 00	 call	 ?ThrowMemoryException@?$CSimpleStringT@D$0A@@ATL@@KAXXZ ; ATL::CSimpleStringT<char,0>::ThrowMemoryException
$L185543:

; 784  : 		}
; 785  : 		Attach( pNewData );

  00022	83 c0 10	 add	 eax, 16			; 00000010H
  00025	5f		 pop	 edi
  00026	89 06		 mov	 DWORD PTR [esi], eax
  00028	5e		 pop	 esi

; 786  : 	}

  00029	c2 04 00	 ret	 4
$L188650:
?Reallocate@?$CSimpleStringT@D$0A@@ATL@@AAEXH@Z ENDP	; ATL::CSimpleStringT<char,0>::Reallocate
_TEXT	ENDS
PUBLIC	?_Inside@?$basic_string@DU?$char_traits@D@std@@V?$allocator@D@2@@std@@IAE_NPBD@Z ; std::basic_string<char,std::char_traits<char>,std::allocator<char> >::_Inside
; Function compile flags: /Ogty
; File c:\program files\microsoft visual studio .net 2003\vc7\include\xstring
;	COMDAT ?_Inside@?$basic_string@DU?$char_traits@D@std@@V?$allocator@D@2@@std@@IAE_NPBD@Z
_TEXT	SEGMENT
__Ptr$ = 8						; size = 4
?_Inside@?$basic_string@DU?$char_traits@D@std@@V?$allocator@D@2@@std@@IAE_NPBD@Z PROC NEAR ; std::basic_string<char,std::char_traits<char>,std::allocator<char> >::_Inside, COMDAT
; _this$ = ecx

; 1494 : 		{	// test if _Ptr points inside string

  00000	56		 push	 esi

; 1495 : 		if (_Ptr < _Myptr() || _Myptr() + _Mysize <= _Ptr)

  00001	8b 71 18	 mov	 esi, DWORD PTR [ecx+24]
  00004	83 fe 10	 cmp	 esi, 16			; 00000010H
  00007	57		 push	 edi
  00008	8d 41 04	 lea	 eax, DWORD PTR [ecx+4]
  0000b	72 04		 jb	 SHORT $L188657
  0000d	8b 10		 mov	 edx, DWORD PTR [eax]
  0000f	eb 02		 jmp	 SHORT $L188658
$L188657:
  00011	8b d0		 mov	 edx, eax
$L188658:
  00013	8b 7c 24 0c	 mov	 edi, DWORD PTR __Ptr$[esp+4]
  00017	3b fa		 cmp	 edi, edx
  00019	72 17		 jb	 SHORT $L185560
  0001b	83 fe 10	 cmp	 esi, 16			; 00000010H
  0001e	72 02		 jb	 SHORT $L188665
  00020	8b 00		 mov	 eax, DWORD PTR [eax]
$L188665:
  00022	8b 49 14	 mov	 ecx, DWORD PTR [ecx+20]
  00025	03 c8		 add	 ecx, eax
  00027	3b cf		 cmp	 ecx, edi
  00029	76 07		 jbe	 SHORT $L185560
  0002b	5f		 pop	 edi

; 1497 : 		else
; 1498 : 			return (true);

  0002c	b0 01		 mov	 al, 1
  0002e	5e		 pop	 esi

; 1499 : 		}

  0002f	c2 04 00	 ret	 4
$L185560:
  00032	5f		 pop	 edi

; 1496 : 			return (false);	// don't ask

  00033	32 c0		 xor	 al, al
  00035	5e		 pop	 esi

; 1499 : 		}

  00036	c2 04 00	 ret	 4
?_Inside@?$basic_string@DU?$char_traits@D@std@@V?$allocator@D@2@@std@@IAE_NPBD@Z ENDP ; std::basic_string<char,std::char_traits<char>,std::allocator<char> >::_Inside
_TEXT	ENDS
PUBLIC	?max_size@?$allocator@D@std@@QBEIXZ		; std::allocator<char>::max_size
; Function compile flags: /Ogty
; File c:\program files\microsoft visual studio .net 2003\vc7\include\xmemory
;	COMDAT ?max_size@?$allocator@D@std@@QBEIXZ
_TEXT	SEGMENT
?max_size@?$allocator@D@std@@QBEIXZ PROC NEAR		; std::allocator<char>::max_size, COMDAT
; _this$ = ecx

; 157  : 		_SIZT _Count = (_SIZT)(-1) / sizeof (_Ty);
; 158  : 		return (0 < _Count ? _Count : 1);

  00000	83 c8 ff	 or	 eax, -1

; 159  : 		}

  00003	c3		 ret	 0
?max_size@?$allocator@D@std@@QBEIXZ ENDP		; std::allocator<char>::max_size
_TEXT	ENDS
PUBLIC	??$swap@D@std@@YAXAAD0@Z			; std::swap<char>
; Function compile flags: /Ogty
; File c:\program files\microsoft visual studio .net 2003\vc7\include\utility
;	COMDAT ??$swap@D@std@@YAXAAD0@Z
_TEXT	SEGMENT
__Left$ = 8						; size = 4
__Right$ = 12						; size = 4
??$swap@D@std@@YAXAAD0@Z PROC NEAR			; std::swap<char>, COMDAT

; 15   : 	_Ty _Tmp = _Left;

  00000	8b 44 24 04	 mov	 eax, DWORD PTR __Left$[esp-4]
  00004	8a 08		 mov	 cl, BYTE PTR [eax]
  00006	56		 push	 esi

; 16   : 	_Left = _Right, _Right = _Tmp;

  00007	8b 74 24 0c	 mov	 esi, DWORD PTR __Right$[esp]
  0000b	8a 16		 mov	 dl, BYTE PTR [esi]
  0000d	88 10		 mov	 BYTE PTR [eax], dl
  0000f	88 0e		 mov	 BYTE PTR [esi], cl
  00011	5e		 pop	 esi

; 17   : 	}

  00012	c3		 ret	 0
??$swap@D@std@@YAXAAD0@Z ENDP				; std::swap<char>
_TEXT	ENDS
PUBLIC	??$_Allocate@D@std@@YAPADIPAD@Z			; std::_Allocate<char>
; Function compile flags: /Ogty
; File c:\program files\microsoft visual studio .net 2003\vc7\include\xmemory
;	COMDAT ??$_Allocate@D@std@@YAPADIPAD@Z
_TEXT	SEGMENT
__Count$ = 8						; size = 4
___formal$ = 12						; size = 4
??$_Allocate@D@std@@YAPADIPAD@Z PROC NEAR		; std::_Allocate<char>, COMDAT

; 34   : 	return ((_Ty _FARQ *)operator new(_Count * sizeof (_Ty)));

  00000	8b 44 24 04	 mov	 eax, DWORD PTR __Count$[esp-4]
  00004	50		 push	 eax
  00005	e8 00 00 00 00	 call	 ??2@YAPAXI@Z		; operator new
  0000a	83 c4 04	 add	 esp, 4

; 35   : 	}

  0000d	c3		 ret	 0
??$_Allocate@D@std@@YAPADIPAD@Z ENDP			; std::_Allocate<char>
_TEXT	ENDS
PUBLIC	??0iterator@?$_Tree@V?$_Tmap_traits@HUHonorData@@U?$less@H@std@@V?$allocator@U?$pair@$$CBHUHonorData@@@std@@@3@$0A@@std@@@std@@QAE@XZ ; std::_Tree<std::_Tmap_traits<int,HonorData,std::less<int>,std::allocator<std::pair<int const ,HonorData> >,0> >::iterator::iterator
; Function compile flags: /Ogty
; File c:\program files\microsoft visual studio .net 2003\vc7\include\xtree
;	COMDAT ??0iterator@?$_Tree@V?$_Tmap_traits@HUHonorData@@U?$less@H@std@@V?$allocator@U?$pair@$$CBHUHonorData@@@std@@@3@$0A@@std@@@std@@QAE@XZ
_TEXT	SEGMENT
??0iterator@?$_Tree@V?$_Tmap_traits@HUHonorData@@U?$less@H@std@@V?$allocator@U?$pair@$$CBHUHonorData@@@std@@@3@$0A@@std@@@std@@QAE@XZ PROC NEAR ; std::_Tree<std::_Tmap_traits<int,HonorData,std::less<int>,std::allocator<std::pair<int const ,HonorData> >,0> >::iterator::iterator, COMDAT
; _this$ = ecx

; 304  : 		iterator()

  00000	8b c1		 mov	 eax, ecx
  00002	c7 00 00 00 00
	00		 mov	 DWORD PTR [eax], 0

; 305  : 			{	// construct with null node pointer
; 306  : 			}

  00008	c3		 ret	 0
??0iterator@?$_Tree@V?$_Tmap_traits@HUHonorData@@U?$less@H@std@@V?$allocator@U?$pair@$$CBHUHonorData@@@std@@@3@$0A@@std@@@std@@QAE@XZ ENDP ; std::_Tree<std::_Tmap_traits<int,HonorData,std::less<int>,std::allocator<std::pair<int const ,HonorData> >,0> >::iterator::iterator
_TEXT	ENDS
PUBLIC	??9const_iterator@?$_Tree@V?$_Tmap_traits@HUHonorData@@U?$less@H@std@@V?$allocator@U?$pair@$$CBHUHonorData@@@std@@@3@$0A@@std@@@std@@QBE_NABV012@@Z ; std::_Tree<std::_Tmap_traits<int,HonorData,std::less<int>,std::allocator<std::pair<int const ,HonorData> >,0> >::const_iterator::operator!=
; Function compile flags: /Ogty
;	COMDAT ??9const_iterator@?$_Tree@V?$_Tmap_traits@HUHonorData@@U?$less@H@std@@V?$allocator@U?$pair@$$CBHUHonorData@@@std@@@3@$0A@@std@@@std@@QBE_NABV012@@Z
_TEXT	SEGMENT
__Right$ = 8						; size = 4
??9const_iterator@?$_Tree@V?$_Tmap_traits@HUHonorData@@U?$less@H@std@@V?$allocator@U?$pair@$$CBHUHonorData@@@std@@@3@$0A@@std@@@std@@QBE_NABV012@@Z PROC NEAR ; std::_Tree<std::_Tmap_traits<int,HonorData,std::less<int>,std::allocator<std::pair<int const ,HonorData> >,0> >::const_iterator::operator!=, COMDAT
; _this$ = ecx

; 246  : 			return (!(*this == _Right));

  00000	8b 01		 mov	 eax, DWORD PTR [ecx]
  00002	8b 54 24 04	 mov	 edx, DWORD PTR __Right$[esp-4]
  00006	56		 push	 esi
  00007	8b 32		 mov	 esi, DWORD PTR [edx]
  00009	33 c9		 xor	 ecx, ecx
  0000b	3b c6		 cmp	 eax, esi
  0000d	0f 95 c1	 setne	 cl
  00010	8a c1		 mov	 al, cl
  00012	5e		 pop	 esi

; 247  : 			}

  00013	c2 04 00	 ret	 4
??9const_iterator@?$_Tree@V?$_Tmap_traits@HUHonorData@@U?$less@H@std@@V?$allocator@U?$pair@$$CBHUHonorData@@@std@@@3@$0A@@std@@@std@@QBE_NABV012@@Z ENDP ; std::_Tree<std::_Tmap_traits<int,HonorData,std::less<int>,std::allocator<std::pair<int const ,HonorData> >,0> >::const_iterator::operator!=
_TEXT	ENDS
PUBLIC	?_Key@?$_Tree@V?$_Tmap_traits@HUHonorData@@U?$less@H@std@@V?$allocator@U?$pair@$$CBHUHonorData@@@std@@@3@$0A@@std@@@std@@KAABHPAU_Node@?$_Tree_nod@V?$_Tmap_traits@HUHonorData@@U?$less@H@std@@V?$allocator@U?$pair@$$CBHUHonorData@@@std@@@3@$0A@@std@@@2@@Z ; std::_Tree<std::_Tmap_traits<int,HonorData,std::less<int>,std::allocator<std::pair<int const ,HonorData> >,0> >::_Key
; Function compile flags: /Ogty
;	COMDAT ?_Key@?$_Tree@V?$_Tmap_traits@HUHonorData@@U?$less@H@std@@V?$allocator@U?$pair@$$CBHUHonorData@@@std@@@3@$0A@@std@@@std@@KAABHPAU_Node@?$_Tree_nod@V?$_Tmap_traits@HUHonorData@@U?$less@H@std@@V?$allocator@U?$pair@$$CBHUHonorData@@@std@@@3@$0A@@std@@@2@@Z
_TEXT	SEGMENT
__Pnode$ = 8						; size = 4
?_Key@?$_Tree@V?$_Tmap_traits@HUHonorData@@U?$less@H@std@@V?$allocator@U?$pair@$$CBHUHonorData@@@std@@@3@$0A@@std@@@std@@KAABHPAU_Node@?$_Tree_nod@V?$_Tmap_traits@HUHonorData@@U?$less@H@std@@V?$allocator@U?$pair@$$CBHUHonorData@@@std@@@3@$0A@@std@@@2@@Z PROC NEAR ; std::_Tree<std::_Tmap_traits<int,HonorData,std::less<int>,std::allocator<std::pair<int const ,HonorData> >,0> >::_Key, COMDAT

; 142  : 		return (_Mybase::_Kfn(_Myval(_Pnode)));

  00000	8b 44 24 04	 mov	 eax, DWORD PTR __Pnode$[esp-4]
  00004	83 c0 0c	 add	 eax, 12			; 0000000cH

; 143  : 		}

  00007	c3		 ret	 0
?_Key@?$_Tree@V?$_Tmap_traits@HUHonorData@@U?$less@H@std@@V?$allocator@U?$pair@$$CBHUHonorData@@@std@@@3@$0A@@std@@@std@@KAABHPAU_Node@?$_Tree_nod@V?$_Tmap_traits@HUHonorData@@U?$less@H@std@@V?$allocator@U?$pair@$$CBHUHonorData@@@std@@@3@$0A@@std@@@2@@Z ENDP ; std::_Tree<std::_Tmap_traits<int,HonorData,std::less<int>,std::allocator<std::pair<int const ,HonorData> >,0> >::_Key
_TEXT	ENDS
PUBLIC	?_Root@?$_Tree@V?$_Tmap_traits@HUHonorData@@U?$less@H@std@@V?$allocator@U?$pair@$$CBHUHonorData@@@std@@@3@$0A@@std@@@std@@IAEAAPAU_Node@?$_Tree_nod@V?$_Tmap_traits@HUHonorData@@U?$less@H@std@@V?$allocator@U?$pair@$$CBHUHonorData@@@std@@@3@$0A@@std@@@2@XZ ; std::_Tree<std::_Tmap_traits<int,HonorData,std::less<int>,std::allocator<std::pair<int const ,HonorData> >,0> >::_Root
; Function compile flags: /Ogty
;	COMDAT ?_Root@?$_Tree@V?$_Tmap_traits@HUHonorData@@U?$less@H@std@@V?$allocator@U?$pair@$$CBHUHonorData@@@std@@@3@$0A@@std@@@std@@IAEAAPAU_Node@?$_Tree_nod@V?$_Tmap_traits@HUHonorData@@U?$less@H@std@@V?$allocator@U?$pair@$$CBHUHonorData@@@std@@@3@$0A@@std@@@2@XZ
_TEXT	SEGMENT
?_Root@?$_Tree@V?$_Tmap_traits@HUHonorData@@U?$less@H@std@@V?$allocator@U?$pair@$$CBHUHonorData@@@std@@@3@$0A@@std@@@std@@IAEAAPAU_Node@?$_Tree_nod@V?$_Tmap_traits@HUHonorData@@U?$less@H@std@@V?$allocator@U?$pair@$$CBHUHonorData@@@std@@@3@$0A@@std@@@2@XZ PROC NEAR ; std::_Tree<std::_Tmap_traits<int,HonorData,std::less<int>,std::allocator<std::pair<int const ,HonorData> >,0> >::_Root, COMDAT
; _this$ = ecx

; 1059 : 		return (_Parent(_Myhead));

  00000	8b 41 04	 mov	 eax, DWORD PTR [ecx+4]
  00003	83 c0 04	 add	 eax, 4

; 1060 : 		}

  00006	c3		 ret	 0
?_Root@?$_Tree@V?$_Tmap_traits@HUHonorData@@U?$less@H@std@@V?$allocator@U?$pair@$$CBHUHonorData@@@std@@@3@$0A@@std@@@std@@IAEAAPAU_Node@?$_Tree_nod@V?$_Tmap_traits@HUHonorData@@U?$less@H@std@@V?$allocator@U?$pair@$$CBHUHonorData@@@std@@@3@$0A@@std@@@2@XZ ENDP ; std::_Tree<std::_Tmap_traits<int,HonorData,std::less<int>,std::allocator<std::pair<int const ,HonorData> >,0> >::_Root
_TEXT	ENDS
PUBLIC	??0iterator@?$_Tree@V?$_Tmap_traits@HUHonorData@@U?$less@H@std@@V?$allocator@U?$pair@$$CBHUHonorData@@@std@@@3@$0A@@std@@@std@@QAE@PAU_Node@?$_Tree_nod@V?$_Tmap_traits@HUHonorData@@U?$less@H@std@@V?$allocator@U?$pair@$$CBHUHonorData@@@std@@@3@$0A@@std@@@2@@Z ; std::_Tree<std::_Tmap_traits<int,HonorData,std::less<int>,std::allocator<std::pair<int const ,HonorData> >,0> >::iterator::iterator
; Function compile flags: /Ogty
;	COMDAT ??0iterator@?$_Tree@V?$_Tmap_traits@HUHonorData@@U?$less@H@std@@V?$allocator@U?$pair@$$CBHUHonorData@@@std@@@3@$0A@@std@@@std@@QAE@PAU_Node@?$_Tree_nod@V?$_Tmap_traits@HUHonorData@@U?$less@H@std@@V?$allocator@U?$pair@$$CBHUHonorData@@@std@@@3@$0A@@std@@@2@@Z
_TEXT	SEGMENT
__Pnode$ = 8						; size = 4
??0iterator@?$_Tree@V?$_Tmap_traits@HUHonorData@@U?$less@H@std@@V?$allocator@U?$pair@$$CBHUHonorData@@@std@@@3@$0A@@std@@@std@@QAE@PAU_Node@?$_Tree_nod@V?$_Tmap_traits@HUHonorData@@U?$less@H@std@@V?$allocator@U?$pair@$$CBHUHonorData@@@std@@@3@$0A@@std@@@2@@Z PROC NEAR ; std::_Tree<std::_Tmap_traits<int,HonorData,std::less<int>,std::allocator<std::pair<int const ,HonorData> >,0> >::iterator::iterator, COMDAT
; _this$ = ecx

; 312  : 			{	// construct with node pointer _Pnode

  00000	8b c1		 mov	 eax, ecx
  00002	8b 4c 24 04	 mov	 ecx, DWORD PTR __Pnode$[esp-4]
  00006	89 08		 mov	 DWORD PTR [eax], ecx

; 313  : 			}

  00008	c2 04 00	 ret	 4
??0iterator@?$_Tree@V?$_Tmap_traits@HUHonorData@@U?$less@H@std@@V?$allocator@U?$pair@$$CBHUHonorData@@@std@@@3@$0A@@std@@@std@@QAE@PAU_Node@?$_Tree_nod@V?$_Tmap_traits@HUHonorData@@U?$less@H@std@@V?$allocator@U?$pair@$$CBHUHonorData@@@std@@@3@$0A@@std@@@2@@Z ENDP ; std::_Tree<std::_Tmap_traits<int,HonorData,std::less<int>,std::allocator<std::pair<int const ,HonorData> >,0> >::iterator::iterator
_TEXT	ENDS
PUBLIC	??Diterator@?$_Tree@V?$_Tmap_traits@HUHonorData@@U?$less@H@std@@V?$allocator@U?$pair@$$CBHUHonorData@@@std@@@3@$0A@@std@@@std@@QBEAAU?$pair@$$CBHUHonorData@@@2@XZ ; std::_Tree<std::_Tmap_traits<int,HonorData,std::less<int>,std::allocator<std::pair<int const ,HonorData> >,0> >::iterator::operator*
; Function compile flags: /Ogty
;	COMDAT ??Diterator@?$_Tree@V?$_Tmap_traits@HUHonorData@@U?$less@H@std@@V?$allocator@U?$pair@$$CBHUHonorData@@@std@@@3@$0A@@std@@@std@@QBEAAU?$pair@$$CBHUHonorData@@@2@XZ
_TEXT	SEGMENT
??Diterator@?$_Tree@V?$_Tmap_traits@HUHonorData@@U?$less@H@std@@V?$allocator@U?$pair@$$CBHUHonorData@@@std@@@3@$0A@@std@@@std@@QBEAAU?$pair@$$CBHUHonorData@@@2@XZ PROC NEAR ; std::_Tree<std::_Tmap_traits<int,HonorData,std::less<int>,std::allocator<std::pair<int const ,HonorData> >,0> >::iterator::operator*, COMDAT
; _this$ = ecx

; 317  : 			return ((reference)**(const_iterator *)this);

  00000	8b 01		 mov	 eax, DWORD PTR [ecx]
  00002	83 c0 0c	 add	 eax, 12			; 0000000cH

; 318  : 			}

  00005	c3		 ret	 0
??Diterator@?$_Tree@V?$_Tmap_traits@HUHonorData@@U?$less@H@std@@V?$allocator@U?$pair@$$CBHUHonorData@@@std@@@3@$0A@@std@@@std@@QBEAAU?$pair@$$CBHUHonorData@@@2@XZ ENDP ; std::_Tree<std::_Tmap_traits<int,HonorData,std::less<int>,std::allocator<std::pair<int const ,HonorData> >,0> >::iterator::operator*
_TEXT	ENDS
PUBLIC	?max_size@?$_Tree@V?$_Tmap_traits@HUHonorData@@U?$less@H@std@@V?$allocator@U?$pair@$$CBHUHonorData@@@std@@@3@$0A@@std@@@std@@QBEIXZ ; std::_Tree<std::_Tmap_traits<int,HonorData,std::less<int>,std::allocator<std::pair<int const ,HonorData> >,0> >::max_size
; Function compile flags: /Ogty
;	COMDAT ?max_size@?$_Tree@V?$_Tmap_traits@HUHonorData@@U?$less@H@std@@V?$allocator@U?$pair@$$CBHUHonorData@@@std@@@3@$0A@@std@@@std@@QBEIXZ
_TEXT	SEGMENT
?max_size@?$_Tree@V?$_Tmap_traits@HUHonorData@@U?$less@H@std@@V?$allocator@U?$pair@$$CBHUHonorData@@@std@@@3@$0A@@std@@@std@@QBEIXZ PROC NEAR ; std::_Tree<std::_Tmap_traits<int,HonorData,std::less<int>,std::allocator<std::pair<int const ,HonorData> >,0> >::max_size, COMDAT
; _this$ = ecx

; 453  : 		return (this->_Alval.max_size());

  00000	b8 49 92 24 09	 mov	 eax, 153391689		; 09249249H

; 454  : 		}

  00005	c3		 ret	 0
?max_size@?$_Tree@V?$_Tmap_traits@HUHonorData@@U?$less@H@std@@V?$allocator@U?$pair@$$CBHUHonorData@@@std@@@3@$0A@@std@@@std@@QBEIXZ ENDP ; std::_Tree<std::_Tmap_traits<int,HonorData,std::less<int>,std::allocator<std::pair<int const ,HonorData> >,0> >::max_size
_TEXT	ENDS
PUBLIC	?_Lbound@?$_Tree@V?$_Tmap_traits@HUHonorData@@U?$less@H@std@@V?$allocator@U?$pair@$$CBHUHonorData@@@std@@@3@$0A@@std@@@std@@IBEPAU_Node@?$_Tree_nod@V?$_Tmap_traits@HUHonorData@@U?$less@H@std@@V?$allocator@U?$pair@$$CBHUHonorData@@@std@@@3@$0A@@std@@@2@ABH@Z ; std::_Tree<std::_Tmap_traits<int,HonorData,std::less<int>,std::allocator<std::pair<int const ,HonorData> >,0> >::_Lbound
; Function compile flags: /Ogty
;	COMDAT ?_Lbound@?$_Tree@V?$_Tmap_traits@HUHonorData@@U?$less@H@std@@V?$allocator@U?$pair@$$CBHUHonorData@@@std@@@3@$0A@@std@@@std@@IBEPAU_Node@?$_Tree_nod@V?$_Tmap_traits@HUHonorData@@U?$less@H@std@@V?$allocator@U?$pair@$$CBHUHonorData@@@std@@@3@$0A@@std@@@2@ABH@Z
_TEXT	SEGMENT
__Keyval$ = 8						; size = 4
?_Lbound@?$_Tree@V?$_Tmap_traits@HUHonorData@@U?$less@H@std@@V?$allocator@U?$pair@$$CBHUHonorData@@@std@@@3@$0A@@std@@@std@@IBEPAU_Node@?$_Tree_nod@V?$_Tmap_traits@HUHonorData@@U?$less@H@std@@V?$allocator@U?$pair@$$CBHUHonorData@@@std@@@3@$0A@@std@@@2@ABH@Z PROC NEAR ; std::_Tree<std::_Tmap_traits<int,HonorData,std::less<int>,std::allocator<std::pair<int const ,HonorData> >,0> >::_Lbound, COMDAT
; _this$ = ecx

; 988  : 		_Nodeptr _Pnode = _Root();

  00000	8b 41 04	 mov	 eax, DWORD PTR [ecx+4]
  00003	8b 48 04	 mov	 ecx, DWORD PTR [eax+4]

; 989  : 		_Nodeptr _Wherenode = _Myhead;	// end() if search fails
; 990  : 
; 991  : 		while (!_Isnil(_Pnode))

  00006	8a 51 29	 mov	 dl, BYTE PTR [ecx+41]
  00009	84 d2		 test	 dl, dl
  0000b	75 1d		 jne	 SHORT $L187900
  0000d	8b 54 24 04	 mov	 edx, DWORD PTR __Keyval$[esp-4]
  00011	8b 12		 mov	 edx, DWORD PTR [edx]
  00013	53		 push	 ebx
$L187899:

; 992  : 			if (this->comp(_Key(_Pnode), _Keyval))

  00014	39 51 0c	 cmp	 DWORD PTR [ecx+12], edx
  00017	7d 05		 jge	 SHORT $L187901

; 993  : 				_Pnode = _Right(_Pnode);	// descend right subtree

  00019	8b 49 08	 mov	 ecx, DWORD PTR [ecx+8]

; 994  : 			else

  0001c	eb 04		 jmp	 SHORT $L187902
$L187901:

; 995  : 				{	// _Pnode not less than _Keyval, remember it
; 996  : 				_Wherenode = _Pnode;

  0001e	8b c1		 mov	 eax, ecx

; 997  : 				_Pnode = _Left(_Pnode);	// descend left subtree

  00020	8b 09		 mov	 ecx, DWORD PTR [ecx]
$L187902:
  00022	8a 59 29	 mov	 bl, BYTE PTR [ecx+41]
  00025	84 db		 test	 bl, bl
  00027	74 eb		 je	 SHORT $L187899
  00029	5b		 pop	 ebx
$L187900:

; 998  : 				}
; 999  : 
; 1000 : 		return (_Wherenode);	// return best remembered candidate
; 1001 : 		}

  0002a	c2 04 00	 ret	 4
?_Lbound@?$_Tree@V?$_Tmap_traits@HUHonorData@@U?$less@H@std@@V?$allocator@U?$pair@$$CBHUHonorData@@@std@@@3@$0A@@std@@@std@@IBEPAU_Node@?$_Tree_nod@V?$_Tmap_traits@HUHonorData@@U?$less@H@std@@V?$allocator@U?$pair@$$CBHUHonorData@@@std@@@3@$0A@@std@@@2@ABH@Z ENDP ; std::_Tree<std::_Tmap_traits<int,HonorData,std::less<int>,std::allocator<std::pair<int const ,HonorData> >,0> >::_Lbound
_TEXT	ENDS
PUBLIC	?_Lrotate@?$_Tree@V?$_Tmap_traits@HUHonorData@@U?$less@H@std@@V?$allocator@U?$pair@$$CBHUHonorData@@@std@@@3@$0A@@std@@@std@@IAEXPAU_Node@?$_Tree_nod@V?$_Tmap_traits@HUHonorData@@U?$less@H@std@@V?$allocator@U?$pair@$$CBHUHonorData@@@std@@@3@$0A@@std@@@2@@Z ; std::_Tree<std::_Tmap_traits<int,HonorData,std::less<int>,std::allocator<std::pair<int const ,HonorData> >,0> >::_Lrotate
; Function compile flags: /Ogty
;	COMDAT ?_Lrotate@?$_Tree@V?$_Tmap_traits@HUHonorData@@U?$less@H@std@@V?$allocator@U?$pair@$$CBHUHonorData@@@std@@@3@$0A@@std@@@std@@IAEXPAU_Node@?$_Tree_nod@V?$_Tmap_traits@HUHonorData@@U?$less@H@std@@V?$allocator@U?$pair@$$CBHUHonorData@@@std@@@3@$0A@@std@@@2@@Z
_TEXT	SEGMENT
__Wherenode$ = 8					; size = 4
?_Lrotate@?$_Tree@V?$_Tmap_traits@HUHonorData@@U?$less@H@std@@V?$allocator@U?$pair@$$CBHUHonorData@@@std@@@3@$0A@@std@@@std@@IAEXPAU_Node@?$_Tree_nod@V?$_Tmap_traits@HUHonorData@@U?$less@H@std@@V?$allocator@U?$pair@$$CBHUHonorData@@@std@@@3@$0A@@std@@@2@@Z PROC NEAR ; std::_Tree<std::_Tmap_traits<int,HonorData,std::less<int>,std::allocator<std::pair<int const ,HonorData> >,0> >::_Lrotate, COMDAT
; _this$ = ecx

; 1015 : 		_Nodeptr _Pnode = _Right(_Wherenode);

  00000	8b 54 24 04	 mov	 edx, DWORD PTR __Wherenode$[esp-4]
  00004	8b 42 08	 mov	 eax, DWORD PTR [edx+8]
  00007	53		 push	 ebx
  00008	56		 push	 esi

; 1016 : 		_Right(_Wherenode) = _Left(_Pnode);

  00009	8b 30		 mov	 esi, DWORD PTR [eax]
  0000b	89 72 08	 mov	 DWORD PTR [edx+8], esi

; 1017 : 
; 1018 : 		if (!_Isnil(_Left(_Pnode)))

  0000e	8b 30		 mov	 esi, DWORD PTR [eax]
  00010	8a 5e 29	 mov	 bl, BYTE PTR [esi+41]
  00013	84 db		 test	 bl, bl
  00015	75 03		 jne	 SHORT $L187906

; 1019 : 			_Parent(_Left(_Pnode)) = _Wherenode;

  00017	89 56 04	 mov	 DWORD PTR [esi+4], edx
$L187906:

; 1020 : 		_Parent(_Pnode) = _Parent(_Wherenode);

  0001a	8b 72 04	 mov	 esi, DWORD PTR [edx+4]
  0001d	89 70 04	 mov	 DWORD PTR [eax+4], esi

; 1021 : 
; 1022 : 		if (_Wherenode == _Root())

  00020	8b 49 04	 mov	 ecx, DWORD PTR [ecx+4]
  00023	3b 51 04	 cmp	 edx, DWORD PTR [ecx+4]
  00026	75 0d		 jne	 SHORT $L187907

; 1023 : 			_Root() = _Pnode;

  00028	89 41 04	 mov	 DWORD PTR [ecx+4], eax
  0002b	5e		 pop	 esi

; 1028 : 
; 1029 : 		_Left(_Pnode) = _Wherenode;

  0002c	89 10		 mov	 DWORD PTR [eax], edx

; 1030 : 		_Parent(_Wherenode) = _Pnode;

  0002e	89 42 04	 mov	 DWORD PTR [edx+4], eax
  00031	5b		 pop	 ebx

; 1031 : 		}

  00032	c2 04 00	 ret	 4
$L187907:

; 1024 : 		else if (_Wherenode == _Left(_Parent(_Wherenode)))

  00035	8b 4a 04	 mov	 ecx, DWORD PTR [edx+4]
  00038	3b 11		 cmp	 edx, DWORD PTR [ecx]
  0003a	75 0c		 jne	 SHORT $L187909

; 1025 : 			_Left(_Parent(_Wherenode)) = _Pnode;

  0003c	89 01		 mov	 DWORD PTR [ecx], eax
  0003e	5e		 pop	 esi

; 1028 : 
; 1029 : 		_Left(_Pnode) = _Wherenode;

  0003f	89 10		 mov	 DWORD PTR [eax], edx

; 1030 : 		_Parent(_Wherenode) = _Pnode;

  00041	89 42 04	 mov	 DWORD PTR [edx+4], eax
  00044	5b		 pop	 ebx

; 1031 : 		}

  00045	c2 04 00	 ret	 4
$L187909:

; 1026 : 		else
; 1027 : 			_Right(_Parent(_Wherenode)) = _Pnode;

  00048	89 41 08	 mov	 DWORD PTR [ecx+8], eax
  0004b	5e		 pop	 esi

; 1028 : 
; 1029 : 		_Left(_Pnode) = _Wherenode;

  0004c	89 10		 mov	 DWORD PTR [eax], edx

; 1030 : 		_Parent(_Wherenode) = _Pnode;

  0004e	89 42 04	 mov	 DWORD PTR [edx+4], eax
  00051	5b		 pop	 ebx

; 1031 : 		}

  00052	c2 04 00	 ret	 4
?_Lrotate@?$_Tree@V?$_Tmap_traits@HUHonorData@@U?$less@H@std@@V?$allocator@U?$pair@$$CBHUHonorData@@@std@@@3@$0A@@std@@@std@@IAEXPAU_Node@?$_Tree_nod@V?$_Tmap_traits@HUHonorData@@U?$less@H@std@@V?$allocator@U?$pair@$$CBHUHonorData@@@std@@@3@$0A@@std@@@2@@Z ENDP ; std::_Tree<std::_Tmap_traits<int,HonorData,std::less<int>,std::allocator<std::pair<int const ,HonorData> >,0> >::_Lrotate
_TEXT	ENDS
PUBLIC	?_Rrotate@?$_Tree@V?$_Tmap_traits@HUHonorData@@U?$less@H@std@@V?$allocator@U?$pair@$$CBHUHonorData@@@std@@@3@$0A@@std@@@std@@IAEXPAU_Node@?$_Tree_nod@V?$_Tmap_traits@HUHonorData@@U?$less@H@std@@V?$allocator@U?$pair@$$CBHUHonorData@@@std@@@3@$0A@@std@@@2@@Z ; std::_Tree<std::_Tmap_traits<int,HonorData,std::less<int>,std::allocator<std::pair<int const ,HonorData> >,0> >::_Rrotate
; Function compile flags: /Ogty
;	COMDAT ?_Rrotate@?$_Tree@V?$_Tmap_traits@HUHonorData@@U?$less@H@std@@V?$allocator@U?$pair@$$CBHUHonorData@@@std@@@3@$0A@@std@@@std@@IAEXPAU_Node@?$_Tree_nod@V?$_Tmap_traits@HUHonorData@@U?$less@H@std@@V?$allocator@U?$pair@$$CBHUHonorData@@@std@@@3@$0A@@std@@@2@@Z
_TEXT	SEGMENT
__Wherenode$ = 8					; size = 4
?_Rrotate@?$_Tree@V?$_Tmap_traits@HUHonorData@@U?$less@H@std@@V?$allocator@U?$pair@$$CBHUHonorData@@@std@@@3@$0A@@std@@@std@@IAEXPAU_Node@?$_Tree_nod@V?$_Tmap_traits@HUHonorData@@U?$less@H@std@@V?$allocator@U?$pair@$$CBHUHonorData@@@std@@@3@$0A@@std@@@2@@Z PROC NEAR ; std::_Tree<std::_Tmap_traits<int,HonorData,std::less<int>,std::allocator<std::pair<int const ,HonorData> >,0> >::_Rrotate, COMDAT
; _this$ = ecx

; 1069 : 		_Nodeptr _Pnode = _Left(_Wherenode);

  00000	8b 54 24 04	 mov	 edx, DWORD PTR __Wherenode$[esp-4]
  00004	8b 02		 mov	 eax, DWORD PTR [edx]
  00006	53		 push	 ebx
  00007	56		 push	 esi

; 1070 : 		_Left(_Wherenode) = _Right(_Pnode);

  00008	8b 70 08	 mov	 esi, DWORD PTR [eax+8]
  0000b	89 32		 mov	 DWORD PTR [edx], esi

; 1071 : 
; 1072 : 		if (!_Isnil(_Right(_Pnode)))

  0000d	8b 70 08	 mov	 esi, DWORD PTR [eax+8]
  00010	8a 5e 29	 mov	 bl, BYTE PTR [esi+41]
  00013	84 db		 test	 bl, bl
  00015	75 03		 jne	 SHORT $L187914

; 1073 : 			_Parent(_Right(_Pnode)) = _Wherenode;

  00017	89 56 04	 mov	 DWORD PTR [esi+4], edx
$L187914:

; 1074 : 		_Parent(_Pnode) = _Parent(_Wherenode);

  0001a	8b 72 04	 mov	 esi, DWORD PTR [edx+4]
  0001d	89 70 04	 mov	 DWORD PTR [eax+4], esi

; 1075 : 
; 1076 : 		if (_Wherenode == _Root())

  00020	8b 49 04	 mov	 ecx, DWORD PTR [ecx+4]
  00023	3b 51 04	 cmp	 edx, DWORD PTR [ecx+4]
  00026	75 0e		 jne	 SHORT $L187915

; 1077 : 			_Root() = _Pnode;

  00028	89 41 04	 mov	 DWORD PTR [ecx+4], eax
  0002b	5e		 pop	 esi

; 1082 : 
; 1083 : 		_Right(_Pnode) = _Wherenode;

  0002c	89 50 08	 mov	 DWORD PTR [eax+8], edx

; 1084 : 		_Parent(_Wherenode) = _Pnode;

  0002f	89 42 04	 mov	 DWORD PTR [edx+4], eax
  00032	5b		 pop	 ebx

; 1085 : 		}

  00033	c2 04 00	 ret	 4
$L187915:

; 1078 : 		else if (_Wherenode == _Right(_Parent(_Wherenode)))

  00036	8b 4a 04	 mov	 ecx, DWORD PTR [edx+4]
  00039	3b 51 08	 cmp	 edx, DWORD PTR [ecx+8]
  0003c	75 0e		 jne	 SHORT $L187917

; 1079 : 			_Right(_Parent(_Wherenode)) = _Pnode;

  0003e	89 41 08	 mov	 DWORD PTR [ecx+8], eax
  00041	5e		 pop	 esi

; 1082 : 
; 1083 : 		_Right(_Pnode) = _Wherenode;

  00042	89 50 08	 mov	 DWORD PTR [eax+8], edx

; 1084 : 		_Parent(_Wherenode) = _Pnode;

  00045	89 42 04	 mov	 DWORD PTR [edx+4], eax
  00048	5b		 pop	 ebx

; 1085 : 		}

  00049	c2 04 00	 ret	 4
$L187917:

; 1080 : 		else
; 1081 : 			_Left(_Parent(_Wherenode)) = _Pnode;

  0004c	89 01		 mov	 DWORD PTR [ecx], eax
  0004e	5e		 pop	 esi

; 1082 : 
; 1083 : 		_Right(_Pnode) = _Wherenode;

  0004f	89 50 08	 mov	 DWORD PTR [eax+8], edx

; 1084 : 		_Parent(_Wherenode) = _Pnode;

  00052	89 42 04	 mov	 DWORD PTR [edx+4], eax
  00055	5b		 pop	 ebx

; 1085 : 		}

  00056	c2 04 00	 ret	 4
?_Rrotate@?$_Tree@V?$_Tmap_traits@HUHonorData@@U?$less@H@std@@V?$allocator@U?$pair@$$CBHUHonorData@@@std@@@3@$0A@@std@@@std@@IAEXPAU_Node@?$_Tree_nod@V?$_Tmap_traits@HUHonorData@@U?$less@H@std@@V?$allocator@U?$pair@$$CBHUHonorData@@@std@@@3@$0A@@std@@@2@@Z ENDP ; std::_Tree<std::_Tmap_traits<int,HonorData,std::less<int>,std::allocator<std::pair<int const ,HonorData> >,0> >::_Rrotate
_TEXT	ENDS
PUBLIC	?destroy@?$allocator@PAU_Node@?$_Tree_nod@V?$_Tmap_traits@HUHonorData@@U?$less@H@std@@V?$allocator@U?$pair@$$CBHUHonorData@@@std@@@3@$0A@@std@@@std@@@std@@QAEXPAPAU_Node@?$_Tree_nod@V?$_Tmap_traits@HUHonorData@@U?$less@H@std@@V?$allocator@U?$pair@$$CBHUHonorData@@@std@@@3@$0A@@std@@@2@@Z ; std::allocator<std::_Tree_nod<std::_Tmap_traits<int,HonorData,std::less<int>,std::allocator<std::pair<int const ,HonorData> >,0> >::_Node *>::destroy
; Function compile flags: /Ogty
; File c:\program files\microsoft visual studio .net 2003\vc7\include\xmemory
;	COMDAT ?destroy@?$allocator@PAU_Node@?$_Tree_nod@V?$_Tmap_traits@HUHonorData@@U?$less@H@std@@V?$allocator@U?$pair@$$CBHUHonorData@@@std@@@3@$0A@@std@@@std@@@std@@QAEXPAPAU_Node@?$_Tree_nod@V?$_Tmap_traits@HUHonorData@@U?$less@H@std@@V?$allocator@U?$pair@$$CBHUHonorData@@@std@@@3@$0A@@std@@@2@@Z
_TEXT	SEGMENT
__Ptr$ = 8						; size = 4
?destroy@?$allocator@PAU_Node@?$_Tree_nod@V?$_Tmap_traits@HUHonorData@@U?$less@H@std@@V?$allocator@U?$pair@$$CBHUHonorData@@@std@@@3@$0A@@std@@@std@@@std@@QAEXPAPAU_Node@?$_Tree_nod@V?$_Tmap_traits@HUHonorData@@U?$less@H@std@@V?$allocator@U?$pair@$$CBHUHonorData@@@std@@@3@$0A@@std@@@2@@Z PROC NEAR ; std::allocator<std::_Tree_nod<std::_Tmap_traits<int,HonorData,std::less<int>,std::allocator<std::pair<int const ,HonorData> >,0> >::_Node *>::destroy, COMDAT
; _this$ = ecx

; 152  : 		_Destroy(_Ptr);
; 153  : 		}

  00000	c2 04 00	 ret	 4
?destroy@?$allocator@PAU_Node@?$_Tree_nod@V?$_Tmap_traits@HUHonorData@@U?$less@H@std@@V?$allocator@U?$pair@$$CBHUHonorData@@@std@@@3@$0A@@std@@@std@@@std@@QAEXPAPAU_Node@?$_Tree_nod@V?$_Tmap_traits@HUHonorData@@U?$less@H@std@@V?$allocator@U?$pair@$$CBHUHonorData@@@std@@@3@$0A@@std@@@2@@Z ENDP ; std::allocator<std::_Tree_nod<std::_Tmap_traits<int,HonorData,std::less<int>,std::allocator<std::pair<int const ,HonorData> >,0> >::_Node *>::destroy
_TEXT	ENDS
PUBLIC	?_Inc@const_iterator@?$_Tree@V?$_Tmap_traits@HUHonorData@@U?$less@H@std@@V?$allocator@U?$pair@$$CBHUHonorData@@@std@@@3@$0A@@std@@@std@@QAEXXZ ; std::_Tree<std::_Tmap_traits<int,HonorData,std::less<int>,std::allocator<std::pair<int const ,HonorData> >,0> >::const_iterator::_Inc
; Function compile flags: /Ogty
; File c:\program files\microsoft visual studio .net 2003\vc7\include\xtree
;	COMDAT ?_Inc@const_iterator@?$_Tree@V?$_Tmap_traits@HUHonorData@@U?$less@H@std@@V?$allocator@U?$pair@$$CBHUHonorData@@@std@@@3@$0A@@std@@@std@@QAEXXZ
_TEXT	SEGMENT
?_Inc@const_iterator@?$_Tree@V?$_Tmap_traits@HUHonorData@@U?$less@H@std@@V?$allocator@U?$pair@$$CBHUHonorData@@@std@@@3@$0A@@std@@@std@@QAEXXZ PROC NEAR ; std::_Tree<std::_Tmap_traits<int,HonorData,std::less<int>,std::allocator<std::pair<int const ,HonorData> >,0> >::const_iterator::_Inc, COMDAT
; _this$ = ecx

; 268  : 			if (_Isnil(_Ptr))

  00000	8b 01		 mov	 eax, DWORD PTR [ecx]
  00002	8a 50 29	 mov	 dl, BYTE PTR [eax+41]
  00005	84 d2		 test	 dl, dl
  00007	75 4d		 jne	 SHORT $L187958

; 269  : 				;	// end() shouldn't be incremented, don't move
; 270  : 			else if (!_Isnil(_Right(_Ptr)))

  00009	8b 50 08	 mov	 edx, DWORD PTR [eax+8]
  0000c	53		 push	 ebx
  0000d	8a 5a 29	 mov	 bl, BYTE PTR [edx+41]
  00010	84 db		 test	 bl, bl
  00012	75 1b		 jne	 SHORT $L188953

; 271  : 				_Ptr = _Min(_Right(_Ptr));	// ==> smallest of right subtree

  00014	8b 02		 mov	 eax, DWORD PTR [edx]
  00016	8a 58 29	 mov	 bl, BYTE PTR [eax+41]
  00019	84 db		 test	 bl, bl
  0001b	75 0e		 jne	 SHORT $L188941
  0001d	8d 49 00	 npad	 3
$L188940:
  00020	8b d0		 mov	 edx, eax
  00022	8b 02		 mov	 eax, DWORD PTR [edx]
  00024	8a 58 29	 mov	 bl, BYTE PTR [eax+41]
  00027	84 db		 test	 bl, bl
  00029	74 f5		 je	 SHORT $L188940
$L188941:
  0002b	89 11		 mov	 DWORD PTR [ecx], edx
  0002d	5b		 pop	 ebx

; 279  : 				}
; 280  : 			}

  0002e	c3		 ret	 0
$L188953:

; 272  : 			else
; 273  : 				{	// climb looking for right subtree
; 274  : 				_Nodeptr _Pnode;
; 275  : 				while (!_Isnil(_Pnode = _Parent(_Ptr))
; 276  : 					&& _Ptr == _Right(_Pnode))

  0002f	8b 40 04	 mov	 eax, DWORD PTR [eax+4]
  00032	8a 50 29	 mov	 dl, BYTE PTR [eax+41]
  00035	84 d2		 test	 dl, dl
  00037	75 1a		 jne	 SHORT $L187962
  00039	8d a4 24 00 00
	00 00		 npad	 7
$L187961:
  00040	8b 11		 mov	 edx, DWORD PTR [ecx]
  00042	3b 50 08	 cmp	 edx, DWORD PTR [eax+8]
  00045	75 0c		 jne	 SHORT $L187962

; 277  : 					_Ptr = _Pnode;	// ==> parent while right subtree

  00047	89 01		 mov	 DWORD PTR [ecx], eax
  00049	8b 40 04	 mov	 eax, DWORD PTR [eax+4]
  0004c	8a 50 29	 mov	 dl, BYTE PTR [eax+41]
  0004f	84 d2		 test	 dl, dl
  00051	74 ed		 je	 SHORT $L187961
$L187962:

; 278  : 				_Ptr = _Pnode;	// ==> parent (head if end())

  00053	89 01		 mov	 DWORD PTR [ecx], eax
  00055	5b		 pop	 ebx
$L187958:

; 279  : 				}
; 280  : 			}

  00056	c3		 ret	 0
?_Inc@const_iterator@?$_Tree@V?$_Tmap_traits@HUHonorData@@U?$less@H@std@@V?$allocator@U?$pair@$$CBHUHonorData@@@std@@@3@$0A@@std@@@std@@QAEXXZ ENDP ; std::_Tree<std::_Tmap_traits<int,HonorData,std::less<int>,std::allocator<std::pair<int const ,HonorData> >,0> >::const_iterator::_Inc
_TEXT	ENDS
PUBLIC	?allocate@?$allocator@U_Node@?$_Tree_nod@V?$_Tmap_traits@HUHonorData@@U?$less@H@std@@V?$allocator@U?$pair@$$CBHUHonorData@@@std@@@3@$0A@@std@@@std@@@std@@QAEPAU_Node@?$_Tree_nod@V?$_Tmap_traits@HUHonorData@@U?$less@H@std@@V?$allocator@U?$pair@$$CBHUHonorData@@@std@@@3@$0A@@std@@@2@I@Z ; std::allocator<std::_Tree_nod<std::_Tmap_traits<int,HonorData,std::less<int>,std::allocator<std::pair<int const ,HonorData> >,0> >::_Node>::allocate
; Function compile flags: /Ogty
; File c:\program files\microsoft visual studio .net 2003\vc7\include\xmemory
;	COMDAT ?allocate@?$allocator@U_Node@?$_Tree_nod@V?$_Tmap_traits@HUHonorData@@U?$less@H@std@@V?$allocator@U?$pair@$$CBHUHonorData@@@std@@@3@$0A@@std@@@std@@@std@@QAEPAU_Node@?$_Tree_nod@V?$_Tmap_traits@HUHonorData@@U?$less@H@std@@V?$allocator@U?$pair@$$CBHUHonorData@@@std@@@3@$0A@@std@@@2@I@Z
_TEXT	SEGMENT
__Count$ = 8						; size = 4
?allocate@?$allocator@U_Node@?$_Tree_nod@V?$_Tmap_traits@HUHonorData@@U?$less@H@std@@V?$allocator@U?$pair@$$CBHUHonorData@@@std@@@3@$0A@@std@@@std@@@std@@QAEPAU_Node@?$_Tree_nod@V?$_Tmap_traits@HUHonorData@@U?$less@H@std@@V?$allocator@U?$pair@$$CBHUHonorData@@@std@@@3@$0A@@std@@@2@I@Z PROC NEAR ; std::allocator<std::_Tree_nod<std::_Tmap_traits<int,HonorData,std::less<int>,std::allocator<std::pair<int const ,HonorData> >,0> >::_Node>::allocate, COMDAT
; _this$ = ecx

; 137  : 		return (_Allocate(_Count, (pointer)0));

  00000	8b 44 24 04	 mov	 eax, DWORD PTR __Count$[esp-4]
  00004	6b c0 2c	 imul	 eax, 44			; 0000002cH
  00007	50		 push	 eax
  00008	e8 00 00 00 00	 call	 ??2@YAPAXI@Z		; operator new
  0000d	83 c4 04	 add	 esp, 4

; 138  : 		}

  00010	c2 04 00	 ret	 4
?allocate@?$allocator@U_Node@?$_Tree_nod@V?$_Tmap_traits@HUHonorData@@U?$less@H@std@@V?$allocator@U?$pair@$$CBHUHonorData@@@std@@@3@$0A@@std@@@std@@@std@@QAEPAU_Node@?$_Tree_nod@V?$_Tmap_traits@HUHonorData@@U?$less@H@std@@V?$allocator@U?$pair@$$CBHUHonorData@@@std@@@3@$0A@@std@@@2@I@Z ENDP ; std::allocator<std::_Tree_nod<std::_Tmap_traits<int,HonorData,std::less<int>,std::allocator<std::pair<int const ,HonorData> >,0> >::_Node>::allocate
_TEXT	ENDS
PUBLIC	?_Dec@const_iterator@?$_Tree@V?$_Tmap_traits@HUHonorData@@U?$less@H@std@@V?$allocator@U?$pair@$$CBHUHonorData@@@std@@@3@$0A@@std@@@std@@QAEXXZ ; std::_Tree<std::_Tmap_traits<int,HonorData,std::less<int>,std::allocator<std::pair<int const ,HonorData> >,0> >::const_iterator::_Dec
; Function compile flags: /Ogty
; File c:\program files\microsoft visual studio .net 2003\vc7\include\xtree
;	COMDAT ?_Dec@const_iterator@?$_Tree@V?$_Tmap_traits@HUHonorData@@U?$less@H@std@@V?$allocator@U?$pair@$$CBHUHonorData@@@std@@@3@$0A@@std@@@std@@QAEXXZ
_TEXT	SEGMENT
?_Dec@const_iterator@?$_Tree@V?$_Tmap_traits@HUHonorData@@U?$less@H@std@@V?$allocator@U?$pair@$$CBHUHonorData@@@std@@@3@$0A@@std@@@std@@QAEXXZ PROC NEAR ; std::_Tree<std::_Tmap_traits<int,HonorData,std::less<int>,std::allocator<std::pair<int const ,HonorData> >,0> >::const_iterator::_Dec, COMDAT
; _this$ = ecx

; 251  : 			if (_Isnil(_Ptr))

  00000	8b 01		 mov	 eax, DWORD PTR [ecx]
  00002	8a 50 29	 mov	 dl, BYTE PTR [eax+41]
  00005	84 d2		 test	 dl, dl
  00007	74 06		 je	 SHORT $L188054

; 252  : 				_Ptr = _Right(_Ptr);	// end() ==> rightmost

  00009	8b 40 08	 mov	 eax, DWORD PTR [eax+8]
  0000c	89 01		 mov	 DWORD PTR [ecx], eax

; 263  : 				}
; 264  : 			}

  0000e	c3		 ret	 0
$L188054:

; 253  : 			else if (!_Isnil(_Left(_Ptr)))

  0000f	8b 10		 mov	 edx, DWORD PTR [eax]
  00011	53		 push	 ebx
  00012	8a 5a 29	 mov	 bl, BYTE PTR [edx+41]
  00015	84 db		 test	 bl, bl
  00017	75 1a		 jne	 SHORT $L189015

; 254  : 				_Ptr = _Max(_Left(_Ptr));	// ==> largest of left subtree

  00019	8b 42 08	 mov	 eax, DWORD PTR [edx+8]
  0001c	8a 58 29	 mov	 bl, BYTE PTR [eax+41]
  0001f	84 db		 test	 bl, bl
  00021	75 0c		 jne	 SHORT $L189000
$L188999:
  00023	8b d0		 mov	 edx, eax
  00025	8b 42 08	 mov	 eax, DWORD PTR [edx+8]
  00028	8a 58 29	 mov	 bl, BYTE PTR [eax+41]
  0002b	84 db		 test	 bl, bl
  0002d	74 f4		 je	 SHORT $L188999
$L189000:
  0002f	89 11		 mov	 DWORD PTR [ecx], edx
  00031	5b		 pop	 ebx

; 263  : 				}
; 264  : 			}

  00032	c3		 ret	 0
$L189015:

; 255  : 			else
; 256  : 				{	// climb looking for left subtree
; 257  : 				_Nodeptr _Pnode;
; 258  : 				while (!_Isnil(_Pnode = _Parent(_Ptr))
; 259  : 					&& _Ptr == _Left(_Pnode))

  00033	8b 40 04	 mov	 eax, DWORD PTR [eax+4]
  00036	8a 50 29	 mov	 dl, BYTE PTR [eax+41]
  00039	84 d2		 test	 dl, dl
  0003b	75 1e		 jne	 SHORT $L189018
  0003d	8d 49 00	 npad	 3
$L188060:
  00040	8b 11		 mov	 edx, DWORD PTR [ecx]
  00042	3b 10		 cmp	 edx, DWORD PTR [eax]
  00044	75 0c		 jne	 SHORT $L188061

; 260  : 					_Ptr = _Pnode;	// ==> parent while left subtree

  00046	89 01		 mov	 DWORD PTR [ecx], eax
  00048	8b 40 04	 mov	 eax, DWORD PTR [eax+4]
  0004b	8a 50 29	 mov	 dl, BYTE PTR [eax+41]
  0004e	84 d2		 test	 dl, dl
  00050	74 ee		 je	 SHORT $L188060
$L188061:

; 261  : 				if (!_Isnil(_Pnode))

  00052	8a 50 29	 mov	 dl, BYTE PTR [eax+41]
  00055	84 d2		 test	 dl, dl
  00057	75 02		 jne	 SHORT $L189018

; 262  : 					_Ptr = _Pnode;	// ==> parent if not head

  00059	89 01		 mov	 DWORD PTR [ecx], eax
$L189018:
  0005b	5b		 pop	 ebx

; 263  : 				}
; 264  : 			}

  0005c	c3		 ret	 0
?_Dec@const_iterator@?$_Tree@V?$_Tmap_traits@HUHonorData@@U?$less@H@std@@V?$allocator@U?$pair@$$CBHUHonorData@@@std@@@3@$0A@@std@@@std@@QAEXXZ ENDP ; std::_Tree<std::_Tmap_traits<int,HonorData,std::less<int>,std::allocator<std::pair<int const ,HonorData> >,0> >::const_iterator::_Dec
_TEXT	ENDS
PUBLIC	??0?$_Tree_nod@V?$_Tmap_traits@HUHonorData@@U?$less@H@std@@V?$allocator@U?$pair@$$CBHUHonorData@@@std@@@3@$0A@@std@@@std@@IAE@ABU?$less@H@1@V?$allocator@U?$pair@$$CBHUHonorData@@@std@@@1@@Z ; std::_Tree_nod<std::_Tmap_traits<int,HonorData,std::less<int>,std::allocator<std::pair<int const ,HonorData> >,0> >::_Tree_nod<std::_Tmap_traits<int,HonorData,std::less<int>,std::allocator<std::pair<int const ,HonorData> >,0> >
; Function compile flags: /Ogty
;	COMDAT ??0?$_Tree_nod@V?$_Tmap_traits@HUHonorData@@U?$less@H@std@@V?$allocator@U?$pair@$$CBHUHonorData@@@std@@@3@$0A@@std@@@std@@IAE@ABU?$less@H@1@V?$allocator@U?$pair@$$CBHUHonorData@@@std@@@1@@Z
_TEXT	SEGMENT
__Parg$ = 8						; size = 4
__Al$ = 12						; size = 1
??0?$_Tree_nod@V?$_Tmap_traits@HUHonorData@@U?$less@H@std@@V?$allocator@U?$pair@$$CBHUHonorData@@@std@@@3@$0A@@std@@@std@@IAE@ABU?$less@H@1@V?$allocator@U?$pair@$$CBHUHonorData@@@std@@@1@@Z PROC NEAR ; std::_Tree_nod<std::_Tmap_traits<int,HonorData,std::less<int>,std::allocator<std::pair<int const ,HonorData> >,0> >::_Tree_nod<std::_Tmap_traits<int,HonorData,std::less<int>,std::allocator<std::pair<int const ,HonorData> >,0> >, COMDAT
; _this$ = ecx

; 54   : 		{	// construct traits from _Parg and allocator from _Al

  00000	8b c1		 mov	 eax, ecx

; 55   : 		}

  00002	c2 08 00	 ret	 8
??0?$_Tree_nod@V?$_Tmap_traits@HUHonorData@@U?$less@H@std@@V?$allocator@U?$pair@$$CBHUHonorData@@@std@@@3@$0A@@std@@@std@@IAE@ABU?$less@H@1@V?$allocator@U?$pair@$$CBHUHonorData@@@std@@@1@@Z ENDP ; std::_Tree_nod<std::_Tmap_traits<int,HonorData,std::less<int>,std::allocator<std::pair<int const ,HonorData> >,0> >::_Tree_nod<std::_Tmap_traits<int,HonorData,std::less<int>,std::allocator<std::pair<int const ,HonorData> >,0> >
_TEXT	ENDS
PUBLIC	?construct@?$allocator@PAU_Node@?$_Tree_nod@V?$_Tmap_traits@HUHonorData@@U?$less@H@std@@V?$allocator@U?$pair@$$CBHUHonorData@@@std@@@3@$0A@@std@@@std@@@std@@QAEXPAPAU_Node@?$_Tree_nod@V?$_Tmap_traits@HUHonorData@@U?$less@H@std@@V?$allocator@U?$pair@$$CBHUHonorData@@@std@@@3@$0A@@std@@@2@ABQAU342@@Z ; std::allocator<std::_Tree_nod<std::_Tmap_traits<int,HonorData,std::less<int>,std::allocator<std::pair<int const ,HonorData> >,0> >::_Node *>::construct
; Function compile flags: /Ogty
; File c:\program files\microsoft visual studio .net 2003\vc7\include\xmemory
;	COMDAT ?construct@?$allocator@PAU_Node@?$_Tree_nod@V?$_Tmap_traits@HUHonorData@@U?$less@H@std@@V?$allocator@U?$pair@$$CBHUHonorData@@@std@@@3@$0A@@std@@@std@@@std@@QAEXPAPAU_Node@?$_Tree_nod@V?$_Tmap_traits@HUHonorData@@U?$less@H@std@@V?$allocator@U?$pair@$$CBHUHonorData@@@std@@@3@$0A@@std@@@2@ABQAU342@@Z
_TEXT	SEGMENT
__Ptr$ = 8						; size = 4
__Val$ = 12						; size = 4
?construct@?$allocator@PAU_Node@?$_Tree_nod@V?$_Tmap_traits@HUHonorData@@U?$less@H@std@@V?$allocator@U?$pair@$$CBHUHonorData@@@std@@@3@$0A@@std@@@std@@@std@@QAEXPAPAU_Node@?$_Tree_nod@V?$_Tmap_traits@HUHonorData@@U?$less@H@std@@V?$allocator@U?$pair@$$CBHUHonorData@@@std@@@3@$0A@@std@@@2@ABQAU342@@Z PROC NEAR ; std::allocator<std::_Tree_nod<std::_Tmap_traits<int,HonorData,std::less<int>,std::allocator<std::pair<int const ,HonorData> >,0> >::_Node *>::construct, COMDAT
; _this$ = ecx

; 147  : 		_Construct(_Ptr, _Val);

  00000	8b 44 24 04	 mov	 eax, DWORD PTR __Ptr$[esp-4]
  00004	85 c0		 test	 eax, eax
  00006	74 08		 je	 SHORT $L189039
  00008	8b 4c 24 08	 mov	 ecx, DWORD PTR __Val$[esp-4]
  0000c	8b 11		 mov	 edx, DWORD PTR [ecx]
  0000e	89 10		 mov	 DWORD PTR [eax], edx
$L189039:

; 148  : 		}

  00010	c2 08 00	 ret	 8
?construct@?$allocator@PAU_Node@?$_Tree_nod@V?$_Tmap_traits@HUHonorData@@U?$less@H@std@@V?$allocator@U?$pair@$$CBHUHonorData@@@std@@@3@$0A@@std@@@std@@@std@@QAEXPAPAU_Node@?$_Tree_nod@V?$_Tmap_traits@HUHonorData@@U?$less@H@std@@V?$allocator@U?$pair@$$CBHUHonorData@@@std@@@3@$0A@@std@@@2@ABQAU342@@Z ENDP ; std::allocator<std::_Tree_nod<std::_Tmap_traits<int,HonorData,std::less<int>,std::allocator<std::pair<int const ,HonorData> >,0> >::_Node *>::construct
_TEXT	ENDS
PUBLIC	?GetLength@?$CSimpleStringT@D$0A@@ATL@@QBEHXZ	; ATL::CSimpleStringT<char,0>::GetLength
; Function compile flags: /Ogty
; File c:\program files\microsoft visual studio .net 2003\vc7\atlmfc\include\atlsimpstr.h
;	COMDAT ?GetLength@?$CSimpleStringT@D$0A@@ATL@@QBEHXZ
_TEXT	SEGMENT
?GetLength@?$CSimpleStringT@D$0A@@ATL@@QBEHXZ PROC NEAR	; ATL::CSimpleStringT<char,0>::GetLength, COMDAT
; _this$ = ecx

; 501  : 		return( GetData()->nDataLength );

  00000	8b 01		 mov	 eax, DWORD PTR [ecx]
  00002	8b 40 f4	 mov	 eax, DWORD PTR [eax-12]

; 502  : 	}

  00005	c3		 ret	 0
?GetLength@?$CSimpleStringT@D$0A@@ATL@@QBEHXZ ENDP	; ATL::CSimpleStringT<char,0>::GetLength
_TEXT	ENDS
PUBLIC	??0?$CSimpleStringT@D$0A@@ATL@@QAE@PAUIAtlStringMgr@1@@Z ; ATL::CSimpleStringT<char,0>::CSimpleStringT<char,0>
; Function compile flags: /Ogty
;	COMDAT ??0?$CSimpleStringT@D$0A@@ATL@@QAE@PAUIAtlStringMgr@1@@Z
_TEXT	SEGMENT
_pStringMgr$ = 8					; size = 4
??0?$CSimpleStringT@D$0A@@ATL@@QAE@PAUIAtlStringMgr@1@@Z PROC NEAR ; ATL::CSimpleStringT<char,0>::CSimpleStringT<char,0>, COMDAT
; _this$ = ecx

; 210  : 	explicit CSimpleStringT( IAtlStringMgr* pStringMgr ) throw()

  00000	56		 push	 esi
  00001	8b f1		 mov	 esi, ecx

; 211  : 	{
; 212  : 		ATLASSERT( pStringMgr != NULL );
; 213  : 		CStringData* pData = pStringMgr->GetNilString();

  00003	8b 4c 24 08	 mov	 ecx, DWORD PTR _pStringMgr$[esp]
  00007	8b 01		 mov	 eax, DWORD PTR [ecx]
  00009	ff 50 0c	 call	 DWORD PTR [eax+12]

; 214  : 		Attach( pData );

  0000c	83 c0 10	 add	 eax, 16			; 00000010H
  0000f	89 06		 mov	 DWORD PTR [esi], eax

; 215  : 	}

  00011	8b c6		 mov	 eax, esi
  00013	5e		 pop	 esi
  00014	c2 04 00	 ret	 4
??0?$CSimpleStringT@D$0A@@ATL@@QAE@PAUIAtlStringMgr@1@@Z ENDP ; ATL::CSimpleStringT<char,0>::CSimpleStringT<char,0>
_TEXT	ENDS
PUBLIC	??1?$CSimpleStringT@D$0A@@ATL@@QAE@XZ		; ATL::CSimpleStringT<char,0>::~CSimpleStringT<char,0>
; Function compile flags: /Ogty
;	COMDAT ??1?$CSimpleStringT@D$0A@@ATL@@QAE@XZ
_TEXT	SEGMENT
??1?$CSimpleStringT@D$0A@@ATL@@QAE@XZ PROC NEAR		; ATL::CSimpleStringT<char,0>::~CSimpleStringT<char,0>, COMDAT
; _this$ = ecx

; 263  : 		CStringData* pData = GetData();

  00000	8b 01		 mov	 eax, DWORD PTR [ecx]
  00002	83 e8 10	 sub	 eax, 16			; 00000010H

; 264  : 		pData->Release();

  00005	8d 48 0c	 lea	 ecx, DWORD PTR [eax+12]
  00008	83 ca ff	 or	 edx, -1
  0000b	f0 0f c1 11	 lock	  xadd	 DWORD PTR [ecx], edx
  0000f	4a		 dec	 edx
  00010	85 d2		 test	 edx, edx
  00012	7f 08		 jg	 SHORT $L189067
  00014	8b 08		 mov	 ecx, DWORD PTR [eax]
  00016	8b 11		 mov	 edx, DWORD PTR [ecx]
  00018	50		 push	 eax
  00019	ff 52 04	 call	 DWORD PTR [edx+4]
$L189067:

; 265  : 	}

  0001c	c3		 ret	 0
??1?$CSimpleStringT@D$0A@@ATL@@QAE@XZ ENDP		; ATL::CSimpleStringT<char,0>::~CSimpleStringT<char,0>
_TEXT	ENDS
PUBLIC	?ReleaseBufferSetLength@?$CSimpleStringT@D$0A@@ATL@@QAEXH@Z ; ATL::CSimpleStringT<char,0>::ReleaseBufferSetLength
; Function compile flags: /Ogty
;	COMDAT ?ReleaseBufferSetLength@?$CSimpleStringT@D$0A@@ATL@@QAEXH@Z
_TEXT	SEGMENT
_nNewLength$ = 8					; size = 4
?ReleaseBufferSetLength@?$CSimpleStringT@D$0A@@ATL@@QAEXH@Z PROC NEAR ; ATL::CSimpleStringT<char,0>::ReleaseBufferSetLength, COMDAT
; _this$ = ecx

; 547  : 		ATLASSERT( nNewLength >= 0 );
; 548  : 		SetLength( nNewLength );

  00000	8b 44 24 04	 mov	 eax, DWORD PTR _nNewLength$[esp-4]
  00004	85 c0		 test	 eax, eax
  00006	7c 13		 jl	 SHORT $L189084
  00008	8b 11		 mov	 edx, DWORD PTR [ecx]
  0000a	3b 42 f8	 cmp	 eax, DWORD PTR [edx-8]
  0000d	7f 0c		 jg	 SHORT $L189084
  0000f	89 42 f4	 mov	 DWORD PTR [edx-12], eax
  00012	8b 09		 mov	 ecx, DWORD PTR [ecx]
  00014	c6 04 08 00	 mov	 BYTE PTR [eax+ecx], 0

; 549  : 	}

  00018	c2 04 00	 ret	 4
$L189084:
  0001b	68 57 00 07 80	 push	 -2147024809		; 80070057H
  00020	e8 00 00 00 00	 call	 ?AtlThrow@ATL@@YGXJ@Z	; ATL::AtlThrow
$L189086:
  00025	cc		 int	 3
?ReleaseBufferSetLength@?$CSimpleStringT@D$0A@@ATL@@QAEXH@Z ENDP ; ATL::CSimpleStringT<char,0>::ReleaseBufferSetLength
_TEXT	ENDS
PUBLIC	??0?$_String_val@DV?$allocator@D@std@@@std@@IAE@V?$allocator@D@1@@Z ; std::_String_val<char,std::allocator<char> >::_String_val<char,std::allocator<char> >
; Function compile flags: /Ogty
; File c:\program files\microsoft visual studio .net 2003\vc7\include\xstring
;	COMDAT ??0?$_String_val@DV?$allocator@D@std@@@std@@IAE@V?$allocator@D@1@@Z
_TEXT	SEGMENT
__Al$ = 8						; size = 1
??0?$_String_val@DV?$allocator@D@std@@@std@@IAE@V?$allocator@D@1@@Z PROC NEAR ; std::_String_val<char,std::allocator<char> >::_String_val<char,std::allocator<char> >, COMDAT
; _this$ = ecx

; 34   : 		{	// construct allocator from _Al

  00000	8b c1		 mov	 eax, ecx

; 35   : 		}

  00002	c2 04 00	 ret	 4
??0?$_String_val@DV?$allocator@D@std@@@std@@IAE@V?$allocator@D@1@@Z ENDP ; std::_String_val<char,std::allocator<char> >::_String_val<char,std::allocator<char> >
_TEXT	ENDS
PUBLIC	?Empty@?$CSimpleStringT@D$0A@@ATL@@QAEXXZ	; ATL::CSimpleStringT<char,0>::Empty
; Function compile flags: /Ogty
; File c:\program files\microsoft visual studio .net 2003\vc7\atlmfc\include\atlsimpstr.h
;	COMDAT ?Empty@?$CSimpleStringT@D$0A@@ATL@@QAEXXZ
_TEXT	SEGMENT
?Empty@?$CSimpleStringT@D$0A@@ATL@@QAEXXZ PROC NEAR	; ATL::CSimpleStringT<char,0>::Empty, COMDAT
; _this$ = ecx

; 421  : 	{

  00000	56		 push	 esi
  00001	8b f1		 mov	 esi, ecx

; 422  : 		CStringData* pOldData = GetData();

  00003	8b 0e		 mov	 ecx, DWORD PTR [esi]

; 423  : 		IAtlStringMgr* pStringMgr = pOldData->pStringMgr;
; 424  : 		if( pOldData->nDataLength == 0 )

  00005	8b 51 f4	 mov	 edx, DWORD PTR [ecx-12]
  00008	85 d2		 test	 edx, edx
  0000a	8d 41 f0	 lea	 eax, DWORD PTR [ecx-16]
  0000d	57		 push	 edi
  0000e	8b 38		 mov	 edi, DWORD PTR [eax]
  00010	74 4c		 je	 SHORT $L189124
  00012	53		 push	 ebx

; 425  : 		{
; 426  : 			return;
; 427  : 		}
; 428  : 
; 429  : 		if( pOldData->IsLocked() )

  00013	8b 58 0c	 mov	 ebx, DWORD PTR [eax+12]
  00016	8d 50 0c	 lea	 edx, DWORD PTR [eax+12]
  00019	85 db		 test	 ebx, ebx
  0001b	5b		 pop	 ebx
  0001c	7d 20		 jge	 SHORT $L184939

; 430  : 		{
; 431  : 			// Don't reallocate a locked buffer that's shrinking
; 432  : 			SetLength( 0 );

  0001e	8b 41 f8	 mov	 eax, DWORD PTR [ecx-8]
  00021	85 c0		 test	 eax, eax
  00023	7d 0a		 jge	 SHORT $L189113
  00025	68 57 00 07 80	 push	 -2147024809		; 80070057H
  0002a	e8 00 00 00 00	 call	 ?AtlThrow@ATL@@YGXJ@Z	; ATL::AtlThrow
$L189113:
  0002f	c7 41 f4 00 00
	00 00		 mov	 DWORD PTR [ecx-12], 0
  00036	8b 06		 mov	 eax, DWORD PTR [esi]
  00038	5f		 pop	 edi
  00039	c6 00 00	 mov	 BYTE PTR [eax], 0
  0003c	5e		 pop	 esi

; 439  : 		}
; 440  : 	}

  0003d	c3		 ret	 0
$L184939:

; 433  : 		}
; 434  : 		else
; 435  : 		{
; 436  : 			pOldData->Release();

  0003e	83 c9 ff	 or	 ecx, -1
  00041	f0 0f c1 0a	 lock	  xadd	 DWORD PTR [edx], ecx
  00045	49		 dec	 ecx
  00046	85 c9		 test	 ecx, ecx
  00048	7f 08		 jg	 SHORT $L189119
  0004a	8b 08		 mov	 ecx, DWORD PTR [eax]
  0004c	8b 11		 mov	 edx, DWORD PTR [ecx]
  0004e	50		 push	 eax
  0004f	ff 52 04	 call	 DWORD PTR [edx+4]
$L189119:

; 437  : 			CStringData* pNewData = pStringMgr->GetNilString();

  00052	8b 07		 mov	 eax, DWORD PTR [edi]
  00054	8b cf		 mov	 ecx, edi
  00056	ff 50 0c	 call	 DWORD PTR [eax+12]

; 438  : 			Attach( pNewData );

  00059	83 c0 10	 add	 eax, 16			; 00000010H
  0005c	89 06		 mov	 DWORD PTR [esi], eax
$L189124:
  0005e	5f		 pop	 edi
  0005f	5e		 pop	 esi

; 439  : 		}
; 440  : 	}

  00060	c3		 ret	 0
$L189128:
?Empty@?$CSimpleStringT@D$0A@@ATL@@QAEXXZ ENDP		; ATL::CSimpleStringT<char,0>::Empty
_TEXT	ENDS
PUBLIC	?PrepareWrite2@?$CSimpleStringT@D$0A@@ATL@@AAEXH@Z ; ATL::CSimpleStringT<char,0>::PrepareWrite2
; Function compile flags: /Ogty
;	COMDAT ?PrepareWrite2@?$CSimpleStringT@D$0A@@ATL@@AAEXH@Z
_TEXT	SEGMENT
_nLength$ = 8						; size = 4
?PrepareWrite2@?$CSimpleStringT@D$0A@@ATL@@AAEXH@Z PROC NEAR ; ATL::CSimpleStringT<char,0>::PrepareWrite2, COMDAT
; _this$ = ecx

; 747  : 		CStringData* pOldData = GetData();

  00000	8b 01		 mov	 eax, DWORD PTR [ecx]

; 748  : 		if( pOldData->nDataLength > nLength )

  00002	8b 54 24 04	 mov	 edx, DWORD PTR _nLength$[esp-4]
  00006	83 e8 10	 sub	 eax, 16			; 00000010H
  00009	56		 push	 esi
  0000a	8b 70 04	 mov	 esi, DWORD PTR [eax+4]
  0000d	3b f2		 cmp	 esi, edx
  0000f	7e 02		 jle	 SHORT $L184961

; 749  : 		{
; 750  : 			nLength = pOldData->nDataLength;

  00011	8b d6		 mov	 edx, esi
$L184961:

; 751  : 		}
; 752  : 		if( pOldData->IsShared() )

  00013	83 78 0c 01	 cmp	 DWORD PTR [eax+12], 1
  00017	5e		 pop	 esi
  00018	7e 09		 jle	 SHORT $L184962

; 753  : 		{
; 754  : 			Fork( nLength );

  0001a	89 54 24 04	 mov	 DWORD PTR _nLength$[esp-4], edx
  0001e	e9 00 00 00 00	 jmp	 ?Fork@?$CSimpleStringT@D$0A@@ATL@@AAEXH@Z ; ATL::CSimpleStringT<char,0>::Fork
$L184962:

; 755  : 		}
; 756  : 		else if( pOldData->nAllocLength < nLength )

  00023	8b 40 08	 mov	 eax, DWORD PTR [eax+8]
  00026	3b c2		 cmp	 eax, edx
  00028	7d 1f		 jge	 SHORT $L184964

; 757  : 		{
; 758  : 			// Grow exponentially, until we hit 1K.
; 759  : 			int nNewLength = pOldData->nAllocLength;
; 760  : 			if( nNewLength > 1024 )

  0002a	3d 00 04 00 00	 cmp	 eax, 1024		; 00000400H
  0002f	7e 07		 jle	 SHORT $L184966

; 761  : 			{
; 762  : 				nNewLength += 1024;

  00031	05 00 04 00 00	 add	 eax, 1024		; 00000400H

; 763  : 			}
; 764  : 			else

  00036	eb 02		 jmp	 SHORT $L184967
$L184966:

; 765  : 			{
; 766  : 				nNewLength *= 2;

  00038	03 c0		 add	 eax, eax
$L184967:

; 767  : 			}
; 768  : 			if( nNewLength < nLength )

  0003a	3b c2		 cmp	 eax, edx
  0003c	7d 02		 jge	 SHORT $L184968

; 769  : 			{
; 770  : 				nNewLength = nLength;

  0003e	8b c2		 mov	 eax, edx
$L184968:

; 771  : 			}
; 772  : 			Reallocate( nNewLength );

  00040	89 44 24 04	 mov	 DWORD PTR _nLength$[esp-4], eax
  00044	e9 00 00 00 00	 jmp	 ?Reallocate@?$CSimpleStringT@D$0A@@ATL@@AAEXH@Z ; ATL::CSimpleStringT<char,0>::Reallocate
$L184964:

; 773  : 		}
; 774  : 	}

  00049	c2 04 00	 ret	 4
?PrepareWrite2@?$CSimpleStringT@D$0A@@ATL@@AAEXH@Z ENDP	; ATL::CSimpleStringT<char,0>::PrepareWrite2
_TEXT	ENDS
PUBLIC	?CloneData@?$CSimpleStringT@D$0A@@ATL@@CAPAUCStringData@2@PAU32@@Z ; ATL::CSimpleStringT<char,0>::CloneData
; Function compile flags: /Ogty
;	COMDAT ?CloneData@?$CSimpleStringT@D$0A@@ATL@@CAPAUCStringData@2@PAU32@@Z
_TEXT	SEGMENT
_pData$ = 8						; size = 4
?CloneData@?$CSimpleStringT@D$0A@@ATL@@CAPAUCStringData@2@PAU32@@Z PROC NEAR ; ATL::CSimpleStringT<char,0>::CloneData, COMDAT

; 801  : 	{

  00000	56		 push	 esi

; 802  : 		CStringData* pNewData = NULL;
; 803  : 
; 804  : 		IAtlStringMgr* pNewStringMgr = pData->pStringMgr->Clone();

  00001	8b 74 24 08	 mov	 esi, DWORD PTR _pData$[esp]
  00005	8b 0e		 mov	 ecx, DWORD PTR [esi]
  00007	8b 01		 mov	 eax, DWORD PTR [ecx]
  00009	ff 50 10	 call	 DWORD PTR [eax+16]

; 805  : 		if( !pData->IsLocked() && (pNewStringMgr == pData->pStringMgr) )

  0000c	8b 56 0c	 mov	 edx, DWORD PTR [esi+12]
  0000f	85 d2		 test	 edx, edx
  00011	8d 4e 0c	 lea	 ecx, DWORD PTR [esi+12]
  00014	7c 11		 jl	 SHORT $L184972
  00016	3b 06		 cmp	 eax, DWORD PTR [esi]
  00018	75 0d		 jne	 SHORT $L184972

; 806  : 		{
; 807  : 			pNewData = pData;

  0001a	8b c6		 mov	 eax, esi

; 808  : 			pNewData->AddRef();

  0001c	ba 01 00 00 00	 mov	 edx, 1
  00021	f0 0f c1 11	 lock	  xadd	 DWORD PTR [ecx], edx
  00025	5e		 pop	 esi

; 819  : 		}
; 820  : 
; 821  : 		return( pNewData );
; 822  : 	}

  00026	c3		 ret	 0
$L184972:

; 809  : 		}
; 810  : 		else
; 811  : 		{
; 812  : 			pNewData = pNewStringMgr->Allocate( pData->nDataLength, sizeof( XCHAR ) );

  00027	8b 4e 04	 mov	 ecx, DWORD PTR [esi+4]
  0002a	8b 10		 mov	 edx, DWORD PTR [eax]
  0002c	6a 01		 push	 1
  0002e	51		 push	 ecx
  0002f	8b c8		 mov	 ecx, eax
  00031	ff 12		 call	 DWORD PTR [edx]

; 813  : 			if( pNewData == NULL )

  00033	85 c0		 test	 eax, eax
  00035	75 05		 jne	 SHORT $L184975

; 814  : 			{
; 815  : 				ThrowMemoryException();

  00037	e9 00 00 00 00	 jmp	 ?ThrowMemoryException@?$CSimpleStringT@D$0A@@ATL@@KAXXZ ; ATL::CSimpleStringT<char,0>::ThrowMemoryException
$L184975:

; 816  : 			}
; 817  : 			pNewData->nDataLength = pData->nDataLength;

  0003c	8b 56 04	 mov	 edx, DWORD PTR [esi+4]
  0003f	89 50 04	 mov	 DWORD PTR [eax+4], edx

; 818  : 			CopyChars( PXSTR( pNewData->data() ), PCXSTR( pData->data() ), pData->nDataLength+1 );  // Copy '\0'

  00042	8b 4e 04	 mov	 ecx, DWORD PTR [esi+4]
  00045	41		 inc	 ecx
  00046	8b d1		 mov	 edx, ecx
  00048	57		 push	 edi
  00049	c1 e9 02	 shr	 ecx, 2
  0004c	83 c6 10	 add	 esi, 16			; 00000010H
  0004f	8d 78 10	 lea	 edi, DWORD PTR [eax+16]
  00052	f3 a5		 rep movsd
  00054	8b ca		 mov	 ecx, edx
  00056	83 e1 03	 and	 ecx, 3
  00059	f3 a4		 rep movsb
  0005b	5f		 pop	 edi
  0005c	5e		 pop	 esi

; 819  : 		}
; 820  : 
; 821  : 		return( pNewData );
; 822  : 	}

  0005d	c3		 ret	 0
?CloneData@?$CSimpleStringT@D$0A@@ATL@@CAPAUCStringData@2@PAU32@@Z ENDP ; ATL::CSimpleStringT<char,0>::CloneData
_TEXT	ENDS
PUBLIC	?_Eos@?$basic_string@DU?$char_traits@D@std@@V?$allocator@D@2@@std@@IAEXI@Z ; std::basic_string<char,std::char_traits<char>,std::allocator<char> >::_Eos
; Function compile flags: /Ogty
; File c:\program files\microsoft visual studio .net 2003\vc7\include\xstring
;	COMDAT ?_Eos@?$basic_string@DU?$char_traits@D@std@@V?$allocator@D@2@@std@@IAEXI@Z
_TEXT	SEGMENT
__Newsize$ = 8						; size = 4
?_Eos@?$basic_string@DU?$char_traits@D@std@@V?$allocator@D@2@@std@@IAEXI@Z PROC NEAR ; std::basic_string<char,std::char_traits<char>,std::allocator<char> >::_Eos, COMDAT
; _this$ = ecx

; 1475 : 		_Traits::assign(_Myptr()[_Mysize = _Newsize], _Elem());

  00000	83 79 18 10	 cmp	 DWORD PTR [ecx+24], 16	; 00000010H
  00004	8b 44 24 04	 mov	 eax, DWORD PTR __Newsize$[esp-4]
  00008	89 41 14	 mov	 DWORD PTR [ecx+20], eax
  0000b	72 0a		 jb	 SHORT $L189164
  0000d	8b 49 04	 mov	 ecx, DWORD PTR [ecx+4]
  00010	c6 04 01 00	 mov	 BYTE PTR [ecx+eax], 0

; 1476 : 		}

  00014	c2 04 00	 ret	 4

; 1475 : 		_Traits::assign(_Myptr()[_Mysize = _Newsize], _Elem());

$L189164:
  00017	c6 44 01 04 00	 mov	 BYTE PTR [ecx+eax+4], 0

; 1476 : 		}

  0001c	c2 04 00	 ret	 4
?_Eos@?$basic_string@DU?$char_traits@D@std@@V?$allocator@D@2@@std@@IAEXI@Z ENDP ; std::basic_string<char,std::char_traits<char>,std::allocator<char> >::_Eos
_TEXT	ENDS
PUBLIC	?max_size@?$basic_string@DU?$char_traits@D@std@@V?$allocator@D@2@@std@@QBEIXZ ; std::basic_string<char,std::char_traits<char>,std::allocator<char> >::max_size
; Function compile flags: /Ogty
;	COMDAT ?max_size@?$basic_string@DU?$char_traits@D@std@@V?$allocator@D@2@@std@@QBEIXZ
_TEXT	SEGMENT
?max_size@?$basic_string@DU?$char_traits@D@std@@V?$allocator@D@2@@std@@QBEIXZ PROC NEAR ; std::basic_string<char,std::char_traits<char>,std::allocator<char> >::max_size, COMDAT
; _this$ = ecx

; 1114 : 		size_type _Num = _Mybase::_Alval.max_size();
; 1115 : 		return (_Num <= 1 ? 1 : _Num - 1);

  00000	b8 fe ff ff ff	 mov	 eax, -2			; fffffffeH

; 1116 : 		}

  00005	c3		 ret	 0
?max_size@?$basic_string@DU?$char_traits@D@std@@V?$allocator@D@2@@std@@QBEIXZ ENDP ; std::basic_string<char,std::char_traits<char>,std::allocator<char> >::max_size
_TEXT	ENDS
PUBLIC	?allocate@?$allocator@D@std@@QAEPADI@Z		; std::allocator<char>::allocate
; Function compile flags: /Ogty
; File c:\program files\microsoft visual studio .net 2003\vc7\include\xmemory
;	COMDAT ?allocate@?$allocator@D@std@@QAEPADI@Z
_TEXT	SEGMENT
__Count$ = 8						; size = 4
?allocate@?$allocator@D@std@@QAEPADI@Z PROC NEAR	; std::allocator<char>::allocate, COMDAT
; _this$ = ecx

; 137  : 		return (_Allocate(_Count, (pointer)0));

  00000	8b 44 24 04	 mov	 eax, DWORD PTR __Count$[esp-4]
  00004	50		 push	 eax
  00005	e8 00 00 00 00	 call	 ??2@YAPAXI@Z		; operator new
  0000a	83 c4 04	 add	 esp, 4

; 138  : 		}

  0000d	c2 04 00	 ret	 4
?allocate@?$allocator@D@std@@QAEPADI@Z ENDP		; std::allocator<char>::allocate
_TEXT	ENDS
PUBLIC	?Init@HonorData@@QAEXXZ				; HonorData::Init
; Function compile flags: /Ogty
; File c:\documents and settings\test\mes documents\source\virtuos_v17\build\program\_common\honor.h
;	COMDAT ?Init@HonorData@@QAEXXZ
_TEXT	SEGMENT
?Init@HonorData@@QAEXXZ PROC NEAR			; HonorData::Init, COMDAT
; _this$ = ecx

; 22   : 	void Init() {nID = -1;nLGrouping =  nSGrouping = nNeed = nValue = 0; strTitle.Empty(); };

  00000	33 c0		 xor	 eax, eax
  00002	c7 01 ff ff ff
	ff		 mov	 DWORD PTR [ecx], -1
  00008	89 41 10	 mov	 DWORD PTR [ecx+16], eax
  0000b	89 41 0c	 mov	 DWORD PTR [ecx+12], eax
  0000e	89 41 08	 mov	 DWORD PTR [ecx+8], eax
  00011	89 41 04	 mov	 DWORD PTR [ecx+4], eax
  00014	83 c1 14	 add	 ecx, 20			; 00000014H
  00017	e9 00 00 00 00	 jmp	 ?Empty@?$CSimpleStringT@D$0A@@ATL@@QAEXXZ ; ATL::CSimpleStringT<char,0>::Empty
?Init@HonorData@@QAEXXZ ENDP				; HonorData::Init
_TEXT	ENDS
PUBLIC	?begin@?$_Tree@V?$_Tmap_traits@HUHonorData@@U?$less@H@std@@V?$allocator@U?$pair@$$CBHUHonorData@@@std@@@3@$0A@@std@@@std@@QAE?AViterator@12@XZ ; std::_Tree<std::_Tmap_traits<int,HonorData,std::less<int>,std::allocator<std::pair<int const ,HonorData> >,0> >::begin
; Function compile flags: /Ogty
; File c:\program files\microsoft visual studio .net 2003\vc7\include\xtree
;	COMDAT ?begin@?$_Tree@V?$_Tmap_traits@HUHonorData@@U?$less@H@std@@V?$allocator@U?$pair@$$CBHUHonorData@@@std@@@3@$0A@@std@@@std@@QAE?AViterator@12@XZ
_TEXT	SEGMENT
___$ReturnUdt$ = 8					; size = 4
?begin@?$_Tree@V?$_Tmap_traits@HUHonorData@@U?$less@H@std@@V?$allocator@U?$pair@$$CBHUHonorData@@@std@@@3@$0A@@std@@@std@@QAE?AViterator@12@XZ PROC NEAR ; std::_Tree<std::_Tmap_traits<int,HonorData,std::less<int>,std::allocator<std::pair<int const ,HonorData> >,0> >::begin, COMDAT
; _this$ = ecx

; 408  : 		return (_TREE_ITERATOR(_Lmost()));

  00000	8b 41 04	 mov	 eax, DWORD PTR [ecx+4]
  00003	8b 08		 mov	 ecx, DWORD PTR [eax]
  00005	8b 44 24 04	 mov	 eax, DWORD PTR ___$ReturnUdt$[esp-4]
  00009	89 08		 mov	 DWORD PTR [eax], ecx

; 409  : 		}

  0000b	c2 04 00	 ret	 4
?begin@?$_Tree@V?$_Tmap_traits@HUHonorData@@U?$less@H@std@@V?$allocator@U?$pair@$$CBHUHonorData@@@std@@@3@$0A@@std@@@std@@QAE?AViterator@12@XZ ENDP ; std::_Tree<std::_Tmap_traits<int,HonorData,std::less<int>,std::allocator<std::pair<int const ,HonorData> >,0> >::begin
_TEXT	ENDS
PUBLIC	?end@?$_Tree@V?$_Tmap_traits@HUHonorData@@U?$less@H@std@@V?$allocator@U?$pair@$$CBHUHonorData@@@std@@@3@$0A@@std@@@std@@QAE?AViterator@12@XZ ; std::_Tree<std::_Tmap_traits<int,HonorData,std::less<int>,std::allocator<std::pair<int const ,HonorData> >,0> >::end
; Function compile flags: /Ogty
;	COMDAT ?end@?$_Tree@V?$_Tmap_traits@HUHonorData@@U?$less@H@std@@V?$allocator@U?$pair@$$CBHUHonorData@@@std@@@3@$0A@@std@@@std@@QAE?AViterator@12@XZ
_TEXT	SEGMENT
___$ReturnUdt$ = 8					; size = 4
?end@?$_Tree@V?$_Tmap_traits@HUHonorData@@U?$less@H@std@@V?$allocator@U?$pair@$$CBHUHonorData@@@std@@@3@$0A@@std@@@std@@QAE?AViterator@12@XZ PROC NEAR ; std::_Tree<std::_Tmap_traits<int,HonorData,std::less<int>,std::allocator<std::pair<int const ,HonorData> >,0> >::end, COMDAT
; _this$ = ecx

; 418  : 		return (_TREE_ITERATOR(_Myhead));

  00000	8b 49 04	 mov	 ecx, DWORD PTR [ecx+4]
  00003	8b 44 24 04	 mov	 eax, DWORD PTR ___$ReturnUdt$[esp-4]
  00007	89 08		 mov	 DWORD PTR [eax], ecx

; 419  : 		}

  00009	c2 04 00	 ret	 4
?end@?$_Tree@V?$_Tmap_traits@HUHonorData@@U?$less@H@std@@V?$allocator@U?$pair@$$CBHUHonorData@@@std@@@3@$0A@@std@@@std@@QAE?AViterator@12@XZ ENDP ; std::_Tree<std::_Tmap_traits<int,HonorData,std::less<int>,std::allocator<std::pair<int const ,HonorData> >,0> >::end
_TEXT	ENDS
PUBLIC	??Citerator@?$_Tree@V?$_Tmap_traits@HUHonorData@@U?$less@H@std@@V?$allocator@U?$pair@$$CBHUHonorData@@@std@@@3@$0A@@std@@@std@@QBEPAU?$pair@$$CBHUHonorData@@@2@XZ ; std::_Tree<std::_Tmap_traits<int,HonorData,std::less<int>,std::allocator<std::pair<int const ,HonorData> >,0> >::iterator::operator->
; Function compile flags: /Ogty
;	COMDAT ??Citerator@?$_Tree@V?$_Tmap_traits@HUHonorData@@U?$less@H@std@@V?$allocator@U?$pair@$$CBHUHonorData@@@std@@@3@$0A@@std@@@std@@QBEPAU?$pair@$$CBHUHonorData@@@2@XZ
_TEXT	SEGMENT
??Citerator@?$_Tree@V?$_Tmap_traits@HUHonorData@@U?$less@H@std@@V?$allocator@U?$pair@$$CBHUHonorData@@@std@@@3@$0A@@std@@@std@@QBEPAU?$pair@$$CBHUHonorData@@@2@XZ PROC NEAR ; std::_Tree<std::_Tmap_traits<int,HonorData,std::less<int>,std::allocator<std::pair<int const ,HonorData> >,0> >::iterator::operator->, COMDAT
; _this$ = ecx

; 322  : 			return (&**this);

  00000	8b 01		 mov	 eax, DWORD PTR [ecx]
  00002	83 c0 0c	 add	 eax, 12			; 0000000cH

; 323  : 			}

  00005	c3		 ret	 0
??Citerator@?$_Tree@V?$_Tmap_traits@HUHonorData@@U?$less@H@std@@V?$allocator@U?$pair@$$CBHUHonorData@@@std@@@3@$0A@@std@@@std@@QBEPAU?$pair@$$CBHUHonorData@@@2@XZ ENDP ; std::_Tree<std::_Tmap_traits<int,HonorData,std::less<int>,std::allocator<std::pair<int const ,HonorData> >,0> >::iterator::operator->
_TEXT	ENDS
PUBLIC	?lower_bound@?$_Tree@V?$_Tmap_traits@HUHonorData@@U?$less@H@std@@V?$allocator@U?$pair@$$CBHUHonorData@@@std@@@3@$0A@@std@@@std@@QAE?AViterator@12@ABH@Z ; std::_Tree<std::_Tmap_traits<int,HonorData,std::less<int>,std::allocator<std::pair<int const ,HonorData> >,0> >::lower_bound
; Function compile flags: /Ogty
;	COMDAT ?lower_bound@?$_Tree@V?$_Tmap_traits@HUHonorData@@U?$less@H@std@@V?$allocator@U?$pair@$$CBHUHonorData@@@std@@@3@$0A@@std@@@std@@QAE?AViterator@12@ABH@Z
_TEXT	SEGMENT
___$ReturnUdt$ = 8					; size = 4
__Keyval$ = 12						; size = 4
?lower_bound@?$_Tree@V?$_Tmap_traits@HUHonorData@@U?$less@H@std@@V?$allocator@U?$pair@$$CBHUHonorData@@@std@@@3@$0A@@std@@@std@@QAE?AViterator@12@ABH@Z PROC NEAR ; std::_Tree<std::_Tmap_traits<int,HonorData,std::less<int>,std::allocator<std::pair<int const ,HonorData> >,0> >::lower_bound, COMDAT
; _this$ = ecx

; 810  : 		return (_TREE_ITERATOR(_Lbound(_Keyval)));

  00000	8b 49 04	 mov	 ecx, DWORD PTR [ecx+4]
  00003	8b 41 04	 mov	 eax, DWORD PTR [ecx+4]
  00006	8a 50 29	 mov	 dl, BYTE PTR [eax+41]
  00009	84 d2		 test	 dl, dl
  0000b	75 1d		 jne	 SHORT $L189307
  0000d	8b 54 24 08	 mov	 edx, DWORD PTR __Keyval$[esp-4]
  00011	8b 12		 mov	 edx, DWORD PTR [edx]
  00013	53		 push	 ebx
$L189275:
  00014	39 50 0c	 cmp	 DWORD PTR [eax+12], edx
  00017	7d 05		 jge	 SHORT $L189277
  00019	8b 40 08	 mov	 eax, DWORD PTR [eax+8]
  0001c	eb 04		 jmp	 SHORT $L189278
$L189277:
  0001e	8b c8		 mov	 ecx, eax
  00020	8b 00		 mov	 eax, DWORD PTR [eax]
$L189278:
  00022	8a 58 29	 mov	 bl, BYTE PTR [eax+41]
  00025	84 db		 test	 bl, bl
  00027	74 eb		 je	 SHORT $L189275
  00029	5b		 pop	 ebx
$L189307:
  0002a	8b 44 24 04	 mov	 eax, DWORD PTR ___$ReturnUdt$[esp-4]
  0002e	89 08		 mov	 DWORD PTR [eax], ecx

; 811  : 		}

  00030	c2 08 00	 ret	 8
?lower_bound@?$_Tree@V?$_Tmap_traits@HUHonorData@@U?$less@H@std@@V?$allocator@U?$pair@$$CBHUHonorData@@@std@@@3@$0A@@std@@@std@@QAE?AViterator@12@ABH@Z ENDP ; std::_Tree<std::_Tmap_traits<int,HonorData,std::less<int>,std::allocator<std::pair<int const ,HonorData> >,0> >::lower_bound
_TEXT	ENDS
PUBLIC	??Econst_iterator@?$_Tree@V?$_Tmap_traits@HUHonorData@@U?$less@H@std@@V?$allocator@U?$pair@$$CBHUHonorData@@@std@@@3@$0A@@std@@@std@@QAEAAV012@XZ ; std::_Tree<std::_Tmap_traits<int,HonorData,std::less<int>,std::allocator<std::pair<int const ,HonorData> >,0> >::const_iterator::operator++
; Function compile flags: /Ogty
;	COMDAT ??Econst_iterator@?$_Tree@V?$_Tmap_traits@HUHonorData@@U?$less@H@std@@V?$allocator@U?$pair@$$CBHUHonorData@@@std@@@3@$0A@@std@@@std@@QAEAAV012@XZ
_TEXT	SEGMENT
??Econst_iterator@?$_Tree@V?$_Tmap_traits@HUHonorData@@U?$less@H@std@@V?$allocator@U?$pair@$$CBHUHonorData@@@std@@@3@$0A@@std@@@std@@QAEAAV012@XZ PROC NEAR ; std::_Tree<std::_Tmap_traits<int,HonorData,std::less<int>,std::allocator<std::pair<int const ,HonorData> >,0> >::const_iterator::operator++, COMDAT
; _this$ = ecx

; 214  : 			{	// preincrement

  00000	56		 push	 esi
  00001	8b f1		 mov	 esi, ecx

; 215  : 			_Inc();

  00003	e8 00 00 00 00	 call	 ?_Inc@const_iterator@?$_Tree@V?$_Tmap_traits@HUHonorData@@U?$less@H@std@@V?$allocator@U?$pair@$$CBHUHonorData@@@std@@@3@$0A@@std@@@std@@QAEXXZ ; std::_Tree<std::_Tmap_traits<int,HonorData,std::less<int>,std::allocator<std::pair<int const ,HonorData> >,0> >::const_iterator::_Inc

; 216  : 			return (*this);

  00008	8b c6		 mov	 eax, esi
  0000a	5e		 pop	 esi

; 217  : 			}

  0000b	c3		 ret	 0
??Econst_iterator@?$_Tree@V?$_Tmap_traits@HUHonorData@@U?$less@H@std@@V?$allocator@U?$pair@$$CBHUHonorData@@@std@@@3@$0A@@std@@@std@@QAEAAV012@XZ ENDP ; std::_Tree<std::_Tmap_traits<int,HonorData,std::less<int>,std::allocator<std::pair<int const ,HonorData> >,0> >::const_iterator::operator++
_TEXT	ENDS
PUBLIC	??Fconst_iterator@?$_Tree@V?$_Tmap_traits@HUHonorData@@U?$less@H@std@@V?$allocator@U?$pair@$$CBHUHonorData@@@std@@@3@$0A@@std@@@std@@QAEAAV012@XZ ; std::_Tree<std::_Tmap_traits<int,HonorData,std::less<int>,std::allocator<std::pair<int const ,HonorData> >,0> >::const_iterator::operator--
; Function compile flags: /Ogty
;	COMDAT ??Fconst_iterator@?$_Tree@V?$_Tmap_traits@HUHonorData@@U?$less@H@std@@V?$allocator@U?$pair@$$CBHUHonorData@@@std@@@3@$0A@@std@@@std@@QAEAAV012@XZ
_TEXT	SEGMENT
??Fconst_iterator@?$_Tree@V?$_Tmap_traits@HUHonorData@@U?$less@H@std@@V?$allocator@U?$pair@$$CBHUHonorData@@@std@@@3@$0A@@std@@@std@@QAEAAV012@XZ PROC NEAR ; std::_Tree<std::_Tmap_traits<int,HonorData,std::less<int>,std::allocator<std::pair<int const ,HonorData> >,0> >::const_iterator::operator--, COMDAT
; _this$ = ecx

; 227  : 			{	// predecrement

  00000	56		 push	 esi
  00001	8b f1		 mov	 esi, ecx

; 228  : 			_Dec();

  00003	e8 00 00 00 00	 call	 ?_Dec@const_iterator@?$_Tree@V?$_Tmap_traits@HUHonorData@@U?$less@H@std@@V?$allocator@U?$pair@$$CBHUHonorData@@@std@@@3@$0A@@std@@@std@@QAEXXZ ; std::_Tree<std::_Tmap_traits<int,HonorData,std::less<int>,std::allocator<std::pair<int const ,HonorData> >,0> >::const_iterator::_Dec

; 229  : 			return (*this);

  00008	8b c6		 mov	 eax, esi
  0000a	5e		 pop	 esi

; 230  : 			}

  0000b	c3		 ret	 0
??Fconst_iterator@?$_Tree@V?$_Tmap_traits@HUHonorData@@U?$less@H@std@@V?$allocator@U?$pair@$$CBHUHonorData@@@std@@@3@$0A@@std@@@std@@QAEAAV012@XZ ENDP ; std::_Tree<std::_Tmap_traits<int,HonorData,std::less<int>,std::allocator<std::pair<int const ,HonorData> >,0> >::const_iterator::operator--
_TEXT	ENDS
PUBLIC	?_Buynode@?$_Tree@V?$_Tmap_traits@HUHonorData@@U?$less@H@std@@V?$allocator@U?$pair@$$CBHUHonorData@@@std@@@3@$0A@@std@@@std@@IAEPAU_Node@?$_Tree_nod@V?$_Tmap_traits@HUHonorData@@U?$less@H@std@@V?$allocator@U?$pair@$$CBHUHonorData@@@std@@@3@$0A@@std@@@2@XZ ; std::_Tree<std::_Tmap_traits<int,HonorData,std::less<int>,std::allocator<std::pair<int const ,HonorData> >,0> >::_Buynode
EXTRN	__CxxThrowException@8:NEAR
; Function compile flags: /Ogty
;	COMDAT ?_Buynode@?$_Tree@V?$_Tmap_traits@HUHonorData@@U?$less@H@std@@V?$allocator@U?$pair@$$CBHUHonorData@@@std@@@3@$0A@@std@@@std@@IAEPAU_Node@?$_Tree_nod@V?$_Tmap_traits@HUHonorData@@U?$less@H@std@@V?$allocator@U?$pair@$$CBHUHonorData@@@std@@@3@$0A@@std@@@2@XZ
_TEXT	SEGMENT
?_Buynode@?$_Tree@V?$_Tmap_traits@HUHonorData@@U?$less@H@std@@V?$allocator@U?$pair@$$CBHUHonorData@@@std@@@3@$0A@@std@@@std@@IAEPAU_Node@?$_Tree_nod@V?$_Tmap_traits@HUHonorData@@U?$less@H@std@@V?$allocator@U?$pair@$$CBHUHonorData@@@std@@@3@$0A@@std@@@2@XZ PROC NEAR ; std::_Tree<std::_Tmap_traits<int,HonorData,std::less<int>,std::allocator<std::pair<int const ,HonorData> >,0> >::_Buynode, COMDAT
; _this$ = ecx

; 1106 : 		_Nodeptr _Wherenode = this->_Alnod.allocate(1);

  00000	6a 2c		 push	 44			; 0000002cH
  00002	e8 00 00 00 00	 call	 ??2@YAPAXI@Z		; operator new
  00007	83 c4 04	 add	 esp, 4

; 1107 : 		int _Linkcnt = 0;
; 1108 : 
; 1109 : 		_TRY_BEGIN
; 1110 : 		this->_Alptr.construct(&_Left(_Wherenode), 0);

  0000a	85 c0		 test	 eax, eax
  0000c	74 06		 je	 SHORT $L189351
  0000e	c7 00 00 00 00
	00		 mov	 DWORD PTR [eax], 0
$L189351:

; 1111 : 		++_Linkcnt;
; 1112 : 		this->_Alptr.construct(&_Parent(_Wherenode), 0);

  00014	8d 48 04	 lea	 ecx, DWORD PTR [eax+4]
  00017	85 c9		 test	 ecx, ecx
  00019	74 06		 je	 SHORT $L189378
  0001b	c7 01 00 00 00
	00		 mov	 DWORD PTR [ecx], 0
$L189378:

; 1113 : 		++_Linkcnt;
; 1114 : 		this->_Alptr.construct(&_Right(_Wherenode), 0);

  00021	8d 48 08	 lea	 ecx, DWORD PTR [eax+8]
  00024	85 c9		 test	 ecx, ecx
  00026	74 06		 je	 SHORT $L189405
  00028	c7 01 00 00 00
	00		 mov	 DWORD PTR [ecx], 0
$L189405:

; 1115 : 		_CATCH_ALL
; 1116 : 		if (1 < _Linkcnt)
; 1117 : 			this->_Alptr.destroy(&_Parent(_Wherenode));
; 1118 : 		if (0 < _Linkcnt)
; 1119 : 			this->_Alptr.destroy(&_Left(_Wherenode));
; 1120 : 		this->_Alnod.deallocate(_Wherenode, 1);
; 1121 : 		_RERAISE;
; 1122 : 		_CATCH_END
; 1123 : 		_Color(_Wherenode) = _Black;

  0002e	c6 40 28 01	 mov	 BYTE PTR [eax+40], 1

; 1124 : 		_Isnil(_Wherenode) = false;

  00032	c6 40 29 00	 mov	 BYTE PTR [eax+41], 0

; 1125 : 		return (_Wherenode);
; 1126 : 		}

  00036	c3		 ret	 0
?_Buynode@?$_Tree@V?$_Tmap_traits@HUHonorData@@U?$less@H@std@@V?$allocator@U?$pair@$$CBHUHonorData@@@std@@@3@$0A@@std@@@std@@IAEPAU_Node@?$_Tree_nod@V?$_Tmap_traits@HUHonorData@@U?$less@H@std@@V?$allocator@U?$pair@$$CBHUHonorData@@@std@@@3@$0A@@std@@@2@XZ ENDP ; std::_Tree<std::_Tmap_traits<int,HonorData,std::less<int>,std::allocator<std::pair<int const ,HonorData> >,0> >::_Buynode
_TEXT	ENDS
PUBLIC	??0?$_Tree_ptr@V?$_Tmap_traits@HUHonorData@@U?$less@H@std@@V?$allocator@U?$pair@$$CBHUHonorData@@@std@@@3@$0A@@std@@@std@@IAE@ABU?$less@H@1@V?$allocator@U?$pair@$$CBHUHonorData@@@std@@@1@@Z ; std::_Tree_ptr<std::_Tmap_traits<int,HonorData,std::less<int>,std::allocator<std::pair<int const ,HonorData> >,0> >::_Tree_ptr<std::_Tmap_traits<int,HonorData,std::less<int>,std::allocator<std::pair<int const ,HonorData> >,0> >
; Function compile flags: /Ogty
;	COMDAT ??0?$_Tree_ptr@V?$_Tmap_traits@HUHonorData@@U?$less@H@std@@V?$allocator@U?$pair@$$CBHUHonorData@@@std@@@3@$0A@@std@@@std@@IAE@ABU?$less@H@1@V?$allocator@U?$pair@$$CBHUHonorData@@@std@@@1@@Z
_TEXT	SEGMENT
__Parg$ = 8						; size = 4
__Al$ = 12						; size = 1
??0?$_Tree_ptr@V?$_Tmap_traits@HUHonorData@@U?$less@H@std@@V?$allocator@U?$pair@$$CBHUHonorData@@@std@@@3@$0A@@std@@@std@@IAE@ABU?$less@H@1@V?$allocator@U?$pair@$$CBHUHonorData@@@std@@@1@@Z PROC NEAR ; std::_Tree_ptr<std::_Tmap_traits<int,HonorData,std::less<int>,std::allocator<std::pair<int const ,HonorData> >,0> >::_Tree_ptr<std::_Tmap_traits<int,HonorData,std::less<int>,std::allocator<std::pair<int const ,HonorData> >,0> >, COMDAT
; _this$ = ecx

; 76   : 		{	// construct base, and allocator from _Al

  00000	8b c1		 mov	 eax, ecx

; 77   : 		}

  00002	c2 08 00	 ret	 8
??0?$_Tree_ptr@V?$_Tmap_traits@HUHonorData@@U?$less@H@std@@V?$allocator@U?$pair@$$CBHUHonorData@@@std@@@3@$0A@@std@@@std@@IAE@ABU?$less@H@1@V?$allocator@U?$pair@$$CBHUHonorData@@@std@@@1@@Z ENDP ; std::_Tree_ptr<std::_Tmap_traits<int,HonorData,std::less<int>,std::allocator<std::pair<int const ,HonorData> >,0> >::_Tree_ptr<std::_Tmap_traits<int,HonorData,std::less<int>,std::allocator<std::pair<int const ,HonorData> >,0> >
_TEXT	ENDS
PUBLIC	??0?$CStringT@DV?$StrTraitMFC@DV?$ChTraitsCRT@D@ATL@@@@@ATL@@QAE@XZ ; ATL::CStringT<char,StrTraitMFC<char,ATL::ChTraitsCRT<char> > >::CStringT<char,StrTraitMFC<char,ATL::ChTraitsCRT<char> > >
; Function compile flags: /Ogty
; File c:\program files\microsoft visual studio .net 2003\vc7\atlmfc\include\cstringt.h
;	COMDAT ??0?$CStringT@DV?$StrTraitMFC@DV?$ChTraitsCRT@D@ATL@@@@@ATL@@QAE@XZ
_TEXT	SEGMENT
??0?$CStringT@DV?$StrTraitMFC@DV?$ChTraitsCRT@D@ATL@@@@@ATL@@QAE@XZ PROC NEAR ; ATL::CStringT<char,StrTraitMFC<char,ATL::ChTraitsCRT<char> > >::CStringT<char,StrTraitMFC<char,ATL::ChTraitsCRT<char> > >, COMDAT
; _this$ = ecx

; 796  : 	{

  00000	56		 push	 esi
  00001	8b f1		 mov	 esi, ecx
  00003	e8 00 00 00 00	 call	 ?AfxGetStringManager@@YGPAUIAtlStringMgr@ATL@@XZ ; AfxGetStringManager
  00008	8b 10		 mov	 edx, DWORD PTR [eax]
  0000a	8b c8		 mov	 ecx, eax
  0000c	ff 52 0c	 call	 DWORD PTR [edx+12]
  0000f	83 c0 10	 add	 eax, 16			; 00000010H
  00012	89 06		 mov	 DWORD PTR [esi], eax

; 797  : 	}

  00014	8b c6		 mov	 eax, esi
  00016	5e		 pop	 esi
  00017	c3		 ret	 0
??0?$CStringT@DV?$StrTraitMFC@DV?$ChTraitsCRT@D@ATL@@@@@ATL@@QAE@XZ ENDP ; ATL::CStringT<char,StrTraitMFC<char,ATL::ChTraitsCRT<char> > >::CStringT<char,StrTraitMFC<char,ATL::ChTraitsCRT<char> > >
_TEXT	ENDS
PUBLIC	??1?$CStringT@DV?$StrTraitMFC@DV?$ChTraitsCRT@D@ATL@@@@@ATL@@QAE@XZ ; ATL::CStringT<char,StrTraitMFC<char,ATL::ChTraitsCRT<char> > >::~CStringT<char,StrTraitMFC<char,ATL::ChTraitsCRT<char> > >
; Function compile flags: /Ogty
;	COMDAT ??1?$CStringT@DV?$StrTraitMFC@DV?$ChTraitsCRT@D@ATL@@@@@ATL@@QAE@XZ
_TEXT	SEGMENT
??1?$CStringT@DV?$StrTraitMFC@DV?$ChTraitsCRT@D@ATL@@@@@ATL@@QAE@XZ PROC NEAR ; ATL::CStringT<char,StrTraitMFC<char,ATL::ChTraitsCRT<char> > >::~CStringT<char,StrTraitMFC<char,ATL::ChTraitsCRT<char> > >, COMDAT
; _this$ = ecx

; 963  : 	}

  00000	8b 01		 mov	 eax, DWORD PTR [ecx]
  00002	83 e8 10	 sub	 eax, 16			; 00000010H
  00005	8d 48 0c	 lea	 ecx, DWORD PTR [eax+12]
  00008	83 ca ff	 or	 edx, -1
  0000b	f0 0f c1 11	 lock	  xadd	 DWORD PTR [ecx], edx
  0000f	4a		 dec	 edx
  00010	85 d2		 test	 edx, edx
  00012	7f 08		 jg	 SHORT $L189489
  00014	8b 08		 mov	 ecx, DWORD PTR [eax]
  00016	8b 11		 mov	 edx, DWORD PTR [ecx]
  00018	50		 push	 eax
  00019	ff 52 04	 call	 DWORD PTR [edx+4]
$L189489:
  0001c	c3		 ret	 0
??1?$CStringT@DV?$StrTraitMFC@DV?$ChTraitsCRT@D@ATL@@@@@ATL@@QAE@XZ ENDP ; ATL::CStringT<char,StrTraitMFC<char,ATL::ChTraitsCRT<char> > >::~CStringT<char,StrTraitMFC<char,ATL::ChTraitsCRT<char> > >
_TEXT	ENDS
PUBLIC	??0?$CSimpleStringT@D$0A@@ATL@@QAE@ABV01@@Z	; ATL::CSimpleStringT<char,0>::CSimpleStringT<char,0>
; Function compile flags: /Ogty
; File c:\program files\microsoft visual studio .net 2003\vc7\atlmfc\include\atlsimpstr.h
;	COMDAT ??0?$CSimpleStringT@D$0A@@ATL@@QAE@ABV01@@Z
_TEXT	SEGMENT
_strSrc$ = 8						; size = 4
??0?$CSimpleStringT@D$0A@@ATL@@QAE@ABV01@@Z PROC NEAR	; ATL::CSimpleStringT<char,0>::CSimpleStringT<char,0>, COMDAT
; _this$ = ecx

; 218  : 	{
; 219  : 		CStringData* pSrcData = strSrc.GetData();

  00000	8b 44 24 04	 mov	 eax, DWORD PTR _strSrc$[esp-4]
  00004	8b 00		 mov	 eax, DWORD PTR [eax]
  00006	56		 push	 esi
  00007	83 e8 10	 sub	 eax, 16			; 00000010H

; 220  : 		CStringData* pNewData = CloneData( pSrcData );

  0000a	50		 push	 eax
  0000b	8b f1		 mov	 esi, ecx
  0000d	e8 00 00 00 00	 call	 ?CloneData@?$CSimpleStringT@D$0A@@ATL@@CAPAUCStringData@2@PAU32@@Z ; ATL::CSimpleStringT<char,0>::CloneData

; 221  : 		Attach( pNewData );

  00012	83 c0 10	 add	 eax, 16			; 00000010H
  00015	89 06		 mov	 DWORD PTR [esi], eax
  00017	83 c4 04	 add	 esp, 4

; 222  : 	}

  0001a	8b c6		 mov	 eax, esi
  0001c	5e		 pop	 esi
  0001d	c2 04 00	 ret	 4
??0?$CSimpleStringT@D$0A@@ATL@@QAE@ABV01@@Z ENDP	; ATL::CSimpleStringT<char,0>::CSimpleStringT<char,0>
_TEXT	ENDS
PUBLIC	?PrepareWrite@?$CSimpleStringT@D$0A@@ATL@@AAEPADH@Z ; ATL::CSimpleStringT<char,0>::PrepareWrite
; Function compile flags: /Ogty
;	COMDAT ?PrepareWrite@?$CSimpleStringT@D$0A@@ATL@@AAEPADH@Z
_TEXT	SEGMENT
_nLength$ = 8						; size = 4
?PrepareWrite@?$CSimpleStringT@D$0A@@ATL@@AAEPADH@Z PROC NEAR ; ATL::CSimpleStringT<char,0>::PrepareWrite, COMDAT
; _this$ = ecx

; 734  : 	{

  00000	56		 push	 esi
  00001	8b f1		 mov	 esi, ecx

; 735  : 		CStringData* pOldData = GetData();

  00003	8b 06		 mov	 eax, DWORD PTR [esi]

; 736  : 		int nShared = 1-pOldData->nRefs;  // nShared < 0 means true, >= 0 means false

  00005	8b 50 fc	 mov	 edx, DWORD PTR [eax-4]
  00008	83 e8 10	 sub	 eax, 16			; 00000010H
  0000b	b9 01 00 00 00	 mov	 ecx, 1
  00010	2b ca		 sub	 ecx, edx

; 737  : 		int nTooShort = pOldData->nAllocLength-nLength;  // nTooShort < 0 means true, >= 0 means false

  00012	8b 50 08	 mov	 edx, DWORD PTR [eax+8]
  00015	8b 44 24 08	 mov	 eax, DWORD PTR _nLength$[esp]
  00019	2b d0		 sub	 edx, eax

; 738  : 		if( (nShared|nTooShort) < 0 )  // If either sign bit is set (i.e. either is less than zero), we need to copy data

  0001b	0b ca		 or	 ecx, edx
  0001d	7d 08		 jge	 SHORT $L189510

; 739  : 		{
; 740  : 			PrepareWrite2( nLength );

  0001f	50		 push	 eax
  00020	8b ce		 mov	 ecx, esi
  00022	e8 00 00 00 00	 call	 ?PrepareWrite2@?$CSimpleStringT@D$0A@@ATL@@AAEXH@Z ; ATL::CSimpleStringT<char,0>::PrepareWrite2
$L189510:

; 741  : 		}
; 742  : 
; 743  : 		return( m_pszData );

  00027	8b 06		 mov	 eax, DWORD PTR [esi]
  00029	5e		 pop	 esi

; 744  : 	}

  0002a	c2 04 00	 ret	 4
?PrepareWrite@?$CSimpleStringT@D$0A@@ATL@@AAEPADH@Z ENDP ; ATL::CSimpleStringT<char,0>::PrepareWrite
_TEXT	ENDS
PUBLIC	?_Tidy@?$basic_string@DU?$char_traits@D@std@@V?$allocator@D@2@@std@@IAEX_NI@Z ; std::basic_string<char,std::char_traits<char>,std::allocator<char> >::_Tidy
; Function compile flags: /Ogty
; File c:\program files\microsoft visual studio .net 2003\vc7\include\xstring
;	COMDAT ?_Tidy@?$basic_string@DU?$char_traits@D@std@@V?$allocator@D@2@@std@@IAEX_NI@Z
_TEXT	SEGMENT
__Built$ = 8						; size = 1
__Newsize$ = 12						; size = 4
?_Tidy@?$basic_string@DU?$char_traits@D@std@@V?$allocator@D@2@@std@@IAEX_NI@Z PROC NEAR ; std::basic_string<char,std::char_traits<char>,std::allocator<char> >::_Tidy, COMDAT
; _this$ = ecx

; 1510 : 		if (!_Built)

  00000	8a 44 24 04	 mov	 al, BYTE PTR __Built$[esp-4]
  00004	84 c0		 test	 al, al
  00006	53		 push	 ebx
  00007	55		 push	 ebp
  00008	8b 6c 24 10	 mov	 ebp, DWORD PTR __Newsize$[esp+4]
  0000c	8b d9		 mov	 ebx, ecx
  0000e	74 2f		 je	 SHORT $L189518

; 1511 : 			;
; 1512 : 		else if (_BUF_SIZE <= _Myres)

  00010	83 7b 18 10	 cmp	 DWORD PTR [ebx+24], 16	; 00000010H
  00014	72 29		 jb	 SHORT $L189518

; 1513 : 			{	// copy any leftovers to small buffer and deallocate
; 1514 : 			_Elem *_Ptr = _Bx._Ptr;
; 1515 : 			if (0 < _Newsize)

  00016	85 ed		 test	 ebp, ebp
  00018	8b 43 04	 mov	 eax, DWORD PTR [ebx+4]
  0001b	57		 push	 edi
  0001c	8d 7b 04	 lea	 edi, DWORD PTR [ebx+4]
  0001f	76 14		 jbe	 SHORT $L189515
  00021	56		 push	 esi

; 1516 : 				_Traits::copy(_Bx._Buf, _Ptr, _Newsize);

  00022	8b cd		 mov	 ecx, ebp
  00024	8b d1		 mov	 edx, ecx
  00026	c1 e9 02	 shr	 ecx, 2
  00029	8b f0		 mov	 esi, eax
  0002b	f3 a5		 rep movsd
  0002d	8b ca		 mov	 ecx, edx
  0002f	83 e1 03	 and	 ecx, 3
  00032	f3 a4		 rep movsb
  00034	5e		 pop	 esi
$L189515:

; 1517 : 			_Mybase::_Alval.deallocate(_Ptr, _Myres + 1);

  00035	50		 push	 eax
  00036	e8 00 00 00 00	 call	 ??3@YAXPAX@Z		; operator delete
  0003b	83 c4 04	 add	 esp, 4
  0003e	5f		 pop	 edi
$L189518:

; 1518 : 			}
; 1519 : 		_Myres = _BUF_SIZE - 1;
; 1520 : 		_Eos(_Newsize);

  0003f	89 6b 14	 mov	 DWORD PTR [ebx+20], ebp
  00042	c7 43 18 0f 00
	00 00		 mov	 DWORD PTR [ebx+24], 15	; 0000000fH
  00049	c6 44 2b 04 00	 mov	 BYTE PTR [ebx+ebp+4], 0
  0004e	5d		 pop	 ebp
  0004f	5b		 pop	 ebx

; 1521 : 		}

  00050	c2 08 00	 ret	 8
?_Tidy@?$basic_string@DU?$char_traits@D@std@@V?$allocator@D@2@@std@@IAEX_NI@Z ENDP ; std::basic_string<char,std::char_traits<char>,std::allocator<char> >::_Tidy
_TEXT	ENDS
PUBLIC	?erase@?$basic_string@DU?$char_traits@D@std@@V?$allocator@D@2@@std@@QAEAAV12@II@Z ; std::basic_string<char,std::char_traits<char>,std::allocator<char> >::erase
EXTRN	?_Xran@_String_base@std@@QBEXXZ:NEAR		; std::_String_base::_Xran
; Function compile flags: /Ogty
;	COMDAT ?erase@?$basic_string@DU?$char_traits@D@std@@V?$allocator@D@2@@std@@QAEAAV12@II@Z
_TEXT	SEGMENT
__Off$ = 8						; size = 4
__Count$ = 12						; size = 4
?erase@?$basic_string@DU?$char_traits@D@std@@V?$allocator@D@2@@std@@QAEAAV12@II@Z PROC NEAR ; std::basic_string<char,std::char_traits<char>,std::allocator<char> >::erase, COMDAT
; _this$ = ecx

; 792  : 		{	// erase elements [_Off, _Off + _Count)

  00000	55		 push	 ebp

; 793  : 		if (_Mysize < _Off)

  00001	8b 6c 24 08	 mov	 ebp, DWORD PTR __Off$[esp]
  00005	56		 push	 esi
  00006	8b f1		 mov	 esi, ecx
  00008	39 6e 14	 cmp	 DWORD PTR [esi+20], ebp
  0000b	57		 push	 edi
  0000c	73 05		 jae	 SHORT $L184993

; 794  : 			_String_base::_Xran();	// _Off off end

  0000e	e8 00 00 00 00	 call	 ?_Xran@_String_base@std@@QBEXXZ ; std::_String_base::_Xran
$L184993:

; 795  : 		if (_Mysize - _Off < _Count)

  00013	8b 46 14	 mov	 eax, DWORD PTR [esi+20]
  00016	8b 7c 24 14	 mov	 edi, DWORD PTR __Count$[esp+8]
  0001a	2b c5		 sub	 eax, ebp
  0001c	3b c7		 cmp	 eax, edi
  0001e	73 02		 jae	 SHORT $L184994

; 796  : 			_Count = _Mysize - _Off;	// trim _Count

  00020	8b f8		 mov	 edi, eax
$L184994:

; 797  : 		if (0 < _Count)

  00022	85 ff		 test	 edi, edi
  00024	76 47		 jbe	 SHORT $L189582

; 798  : 			{	// move elements down
; 799  : 			_Traits::move(_Myptr() + _Off, _Myptr() + _Off + _Count,
; 800  : 				_Mysize - _Off - _Count);

  00026	8b 4e 18	 mov	 ecx, DWORD PTR [esi+24]
  00029	83 f9 10	 cmp	 ecx, 16			; 00000010H
  0002c	53		 push	 ebx
  0002d	8d 5e 04	 lea	 ebx, DWORD PTR [esi+4]
  00030	72 04		 jb	 SHORT $L189547
  00032	8b 13		 mov	 edx, DWORD PTR [ebx]
  00034	eb 02		 jmp	 SHORT $L189548
$L189547:
  00036	8b d3		 mov	 edx, ebx
$L189548:
  00038	83 f9 10	 cmp	 ecx, 16			; 00000010H
  0003b	72 04		 jb	 SHORT $L189554
  0003d	8b 0b		 mov	 ecx, DWORD PTR [ebx]
  0003f	eb 02		 jmp	 SHORT $L189555
$L189554:
  00041	8b cb		 mov	 ecx, ebx
$L189555:
  00043	2b c7		 sub	 eax, edi

; 803  : 			}
; 804  : 		return (*this);

  00045	03 d5		 add	 edx, ebp
  00047	50		 push	 eax
  00048	03 d7		 add	 edx, edi
  0004a	52		 push	 edx
  0004b	03 cd		 add	 ecx, ebp
  0004d	51		 push	 ecx
  0004e	e8 00 00 00 00	 call	 _memmove
  00053	8b 46 14	 mov	 eax, DWORD PTR [esi+20]
  00056	8b 4e 18	 mov	 ecx, DWORD PTR [esi+24]
  00059	2b c7		 sub	 eax, edi
  0005b	83 c4 0c	 add	 esp, 12			; 0000000cH
  0005e	83 f9 10	 cmp	 ecx, 16			; 00000010H
  00061	89 46 14	 mov	 DWORD PTR [esi+20], eax
  00064	72 02		 jb	 SHORT $L189577

; 801  : 			size_type _Newsize = _Mysize - _Count;
; 802  : 			_Eos(_Newsize);

  00066	8b 1b		 mov	 ebx, DWORD PTR [ebx]
$L189577:
  00068	c6 04 03 00	 mov	 BYTE PTR [ebx+eax], 0
  0006c	5b		 pop	 ebx
$L189582:
  0006d	5f		 pop	 edi

; 803  : 			}
; 804  : 		return (*this);

  0006e	8b c6		 mov	 eax, esi
  00070	5e		 pop	 esi
  00071	5d		 pop	 ebp

; 805  : 		}

  00072	c2 08 00	 ret	 8
?erase@?$basic_string@DU?$char_traits@D@std@@V?$allocator@D@2@@std@@QAEAAV12@II@Z ENDP ; std::basic_string<char,std::char_traits<char>,std::allocator<char> >::erase
_TEXT	ENDS
PUBLIC	?_Copy@?$basic_string@DU?$char_traits@D@std@@V?$allocator@D@2@@std@@IAEXII@Z ; std::basic_string<char,std::char_traits<char>,std::allocator<char> >::_Copy
EXTRN	__except_list:DWORD
EXTRN	___CxxFrameHandler:NEAR
;	COMDAT xdata$x
; File c:\program files\microsoft visual studio .net 2003\vc7\include\iosfwd
xdata$x	SEGMENT
$T189786 DD	0ffffffffH
	DD	00H
	DD	0ffffffffH
	DD	00H
	DD	01H
	DD	00H
	DD	01H
	DD	00H
$T189788 DD	00H
	DD	00H
	DD	00H
	DD	FLAT:$L189588
$T189789 DD	00H
	DD	00H
	DD	00H
	DD	FLAT:$L189586
$T189787 DD	02H
	DD	02H
	DD	03H
	DD	01H
	DD	FLAT:$T189788
	DD	00H
	DD	00H
	DD	03H
	DD	01H
	DD	FLAT:$T189789
$T189780 DD	019930520H
	DD	04H
	DD	FLAT:$T189786
	DD	02H
	DD	FLAT:$T189787
	DD	2 DUP(00H)
; Function compile flags: /Ogty
; File c:\program files\microsoft visual studio .net 2003\vc7\include\xstring
xdata$x	ENDS
;	COMDAT ?_Copy@?$basic_string@DU?$char_traits@D@std@@V?$allocator@D@2@@std@@IAEXII@Z
_TEXT	SEGMENT
__Newres$ = -24						; size = 4
_this$ = -20						; size = 4
__$EHRec$ = -16						; size = 16
__Ptr$ = 8						; size = 4
__Newsize$ = 8						; size = 4
__Oldlen$ = 12						; size = 4
?_Copy@?$basic_string@DU?$char_traits@D@std@@V?$allocator@D@2@@std@@IAEXII@Z PROC NEAR ; std::basic_string<char,std::char_traits<char>,std::allocator<char> >::_Copy, COMDAT
; _this$ = ecx

; 1444 : 		{	// copy _Oldlen elements to newly allocated buffer

  00000	55		 push	 ebp
  00001	8b ec		 mov	 ebp, esp
  00003	6a ff		 push	 -1
  00005	68 00 00 00 00	 push	 __ehhandler$?_Copy@?$basic_string@DU?$char_traits@D@std@@V?$allocator@D@2@@std@@IAEXII@Z
  0000a	64 a1 00 00 00
	00		 mov	 eax, DWORD PTR fs:__except_list
  00010	50		 push	 eax
  00011	64 89 25 00 00
	00 00		 mov	 DWORD PTR fs:__except_list, esp
  00018	83 ec 0c	 sub	 esp, 12			; 0000000cH

; 1445 : 		size_type _Newres = _Newsize | _ALLOC_MASK;

  0001b	8b 45 08	 mov	 eax, DWORD PTR __Newsize$[ebp]
  0001e	53		 push	 ebx
  0001f	56		 push	 esi
  00020	8b d8		 mov	 ebx, eax
  00022	83 cb 0f	 or	 ebx, 15			; 0000000fH

; 1446 : 		if (max_size() < _Newres)

  00025	83 fb fe	 cmp	 ebx, -2			; fffffffeH
  00028	57		 push	 edi
  00029	8b f1		 mov	 esi, ecx
  0002b	89 65 f0	 mov	 DWORD PTR __$EHRec$[ebp], esp
  0002e	89 75 ec	 mov	 DWORD PTR _this$[ebp], esi
  00031	76 04		 jbe	 SHORT $L185550

; 1447 : 			_Newres = _Newsize;	// undo roundup if too big

  00033	8b d8		 mov	 ebx, eax

; 1448 : 		else if (_Newres / 3 < _Myres / 2

  00035	eb 22		 jmp	 SHORT $L185552
$L185550:

; 1449 : 			&& _Myres <= max_size() - _Myres / 2)

  00037	8b 7e 18	 mov	 edi, DWORD PTR [esi+24]
  0003a	b8 ab aa aa aa	 mov	 eax, -1431655765	; aaaaaaabH
  0003f	f7 e3		 mul	 ebx
  00041	8b cf		 mov	 ecx, edi
  00043	d1 e9		 shr	 ecx, 1
  00045	d1 ea		 shr	 edx, 1
  00047	3b d1		 cmp	 edx, ecx
  00049	73 0e		 jae	 SHORT $L185552
  0004b	b8 fe ff ff ff	 mov	 eax, -2			; fffffffeH
  00050	2b c1		 sub	 eax, ecx
  00052	3b f8		 cmp	 edi, eax
  00054	77 03		 ja	 SHORT $L185552

; 1450 : 			_Newres = _Myres + _Myres / 2;	// grow exponentially if possible

  00056	8d 1c 39	 lea	 ebx, DWORD PTR [ecx+edi]
$L185552:

; 1451 : 		_Elem *_Ptr;
; 1452 : 
; 1453 : 		_TRY_BEGIN
; 1454 : 			_Ptr = _Mybase::_Alval.allocate(_Newres + 1);

  00059	8d 4b 01	 lea	 ecx, DWORD PTR [ebx+1]
  0005c	51		 push	 ecx
  0005d	c7 45 fc 00 00
	00 00		 mov	 DWORD PTR __$EHRec$[ebp+12], 0
  00064	e8 00 00 00 00	 call	 ??2@YAPAXI@Z		; operator new
  00069	8b d0		 mov	 edx, eax
  0006b	83 c4 04	 add	 esp, 4
  0006e	89 55 08	 mov	 DWORD PTR __Ptr$[ebp], edx
  00071	eb 29		 jmp	 SHORT $L185554
$L189586:

; 1455 : 		_CATCH_ALL
; 1456 : 			_Newres = _Newsize;	// allocation failed, undo roundup and retry

  00073	8b 45 08	 mov	 eax, DWORD PTR __Newsize$[ebp]
  00076	89 45 e8	 mov	 DWORD PTR __Newres$[ebp], eax

; 1457 : 			_TRY_BEGIN
; 1458 : 				_Ptr = _Mybase::_Alval.allocate(_Newres + 1);

  00079	40		 inc	 eax
  0007a	89 65 f0	 mov	 DWORD PTR __$EHRec$[ebp], esp
  0007d	50		 push	 eax
  0007e	c6 45 fc 02	 mov	 BYTE PTR __$EHRec$[ebp+12], 2
  00082	e8 00 00 00 00	 call	 ??2@YAPAXI@Z		; operator new
  00087	89 45 08	 mov	 DWORD PTR __Ptr$[ebp], eax
  0008a	83 c4 04	 add	 esp, 4

; 1462 : 			_CATCH_END
; 1463 : 		_CATCH_END

  0008d	b8 00 00 00 00	 mov	 eax, $L189781
  00092	c3		 ret	 0
$L189781:
  00093	8b 5d e8	 mov	 ebx, DWORD PTR __Newres$[ebp]
  00096	8b 75 ec	 mov	 esi, DWORD PTR _this$[ebp]
  00099	8b 55 08	 mov	 edx, DWORD PTR __Ptr$[ebp]
$L185554:

; 1464 : 
; 1465 : 		if (0 < _Oldlen)

  0009c	8b 4d 0c	 mov	 ecx, DWORD PTR __Oldlen$[ebp]
  0009f	85 c9		 test	 ecx, ecx
  000a1	76 24		 jbe	 SHORT $L189706

; 1466 : 			_Traits::copy(_Ptr, _Myptr(), _Oldlen);	// copy existing elements

  000a3	83 7e 18 10	 cmp	 DWORD PTR [esi+24], 16	; 00000010H
  000a7	72 05		 jb	 SHORT $L189701
  000a9	8b 76 04	 mov	 esi, DWORD PTR [esi+4]
  000ac	eb 03		 jmp	 SHORT $L189702
$L189701:
  000ae	83 c6 04	 add	 esi, 4
$L189702:
  000b1	8b c1		 mov	 eax, ecx
  000b3	c1 e9 02	 shr	 ecx, 2
  000b6	8b fa		 mov	 edi, edx
  000b8	f3 a5		 rep movsd
  000ba	8b c8		 mov	 ecx, eax
  000bc	83 e1 03	 and	 ecx, 3
  000bf	f3 a4		 rep movsb
  000c1	8b 75 ec	 mov	 esi, DWORD PTR _this$[ebp]
  000c4	8b 4d 0c	 mov	 ecx, DWORD PTR __Oldlen$[ebp]
$L189706:

; 1467 : 		_Tidy(true);

  000c7	83 7e 18 10	 cmp	 DWORD PTR [esi+24], 16	; 00000010H
  000cb	72 12		 jb	 SHORT $L189748
  000cd	8b 4e 04	 mov	 ecx, DWORD PTR [esi+4]
  000d0	51		 push	 ecx
  000d1	e8 00 00 00 00	 call	 ??3@YAXPAX@Z		; operator delete
  000d6	8b 55 08	 mov	 edx, DWORD PTR __Ptr$[ebp]
  000d9	8b 4d 0c	 mov	 ecx, DWORD PTR __Oldlen$[ebp]
  000dc	83 c4 04	 add	 esp, 4
$L189748:

; 1468 : 		_Bx._Ptr = _Ptr;
; 1469 : 		_Myres = _Newres;
; 1470 : 		_Eos(_Oldlen);

  000df	83 fb 10	 cmp	 ebx, 16			; 00000010H
  000e2	8d 46 04	 lea	 eax, DWORD PTR [esi+4]
  000e5	c6 00 00	 mov	 BYTE PTR [eax], 0
  000e8	89 10		 mov	 DWORD PTR [eax], edx
  000ea	89 5e 18	 mov	 DWORD PTR [esi+24], ebx
  000ed	89 4e 14	 mov	 DWORD PTR [esi+20], ecx
  000f0	72 02		 jb	 SHORT $L189774
  000f2	8b c2		 mov	 eax, edx
$L189774:

; 1471 : 		}

  000f4	5f		 pop	 edi
  000f5	c6 04 08 00	 mov	 BYTE PTR [eax+ecx], 0
  000f9	8b 4d f4	 mov	 ecx, DWORD PTR __$EHRec$[ebp+4]
  000fc	5e		 pop	 esi
  000fd	64 89 0d 00 00
	00 00		 mov	 DWORD PTR fs:__except_list, ecx
  00104	5b		 pop	 ebx
  00105	8b e5		 mov	 esp, ebp
  00107	5d		 pop	 ebp
  00108	c2 08 00	 ret	 8
$L189588:

; 1459 : 			_CATCH_ALL
; 1460 : 			_Tidy(true);	// failed again, discard storage and reraise

  0010b	8b 75 ec	 mov	 esi, DWORD PTR _this$[ebp]
  0010e	83 7e 18 10	 cmp	 DWORD PTR [esi+24], 16	; 00000010H
  00112	72 0c		 jb	 SHORT $L189687
  00114	8b 56 04	 mov	 edx, DWORD PTR [esi+4]
  00117	52		 push	 edx
  00118	e8 00 00 00 00	 call	 ??3@YAXPAX@Z		; operator delete
  0011d	83 c4 04	 add	 esp, 4
$L189687:

; 1461 : 			_RERAISE;

  00120	6a 00		 push	 0
  00122	c7 46 18 0f 00
	00 00		 mov	 DWORD PTR [esi+24], 15	; 0000000fH
  00129	c7 46 14 00 00
	00 00		 mov	 DWORD PTR [esi+20], 0
  00130	6a 00		 push	 0
  00132	c6 46 04 00	 mov	 BYTE PTR [esi+4], 0
  00136	e8 00 00 00 00	 call	 __CxxThrowException@8
$L189785:
  0013b	cc		 int	 3
_TEXT	ENDS
;	COMDAT text$x
text$x	SEGMENT
__ehhandler$?_Copy@?$basic_string@DU?$char_traits@D@std@@V?$allocator@D@2@@std@@IAEXII@Z:
  00000	b8 00 00 00 00	 mov	 eax, OFFSET FLAT:$T189780
  00005	e9 00 00 00 00	 jmp	 ___CxxFrameHandler
text$x	ENDS
?_Copy@?$basic_string@DU?$char_traits@D@std@@V?$allocator@D@2@@std@@IAEXII@Z ENDP ; std::basic_string<char,std::char_traits<char>,std::allocator<char> >::_Copy
PUBLIC	??0HonorData@@QAE@XZ				; HonorData::HonorData
; Function compile flags: /Ogty
; File c:\documents and settings\test\mes documents\source\virtuos_v17\build\program\_common\honor.h
;	COMDAT ??0HonorData@@QAE@XZ
_TEXT	SEGMENT
??0HonorData@@QAE@XZ PROC NEAR				; HonorData::HonorData, COMDAT
; _this$ = ecx

; 20   : 	HonorData() {Init();};

  00000	56		 push	 esi
  00001	57		 push	 edi
  00002	8b f1		 mov	 esi, ecx
  00004	e8 00 00 00 00	 call	 ?AfxGetStringManager@@YGPAUIAtlStringMgr@ATL@@XZ ; AfxGetStringManager
  00009	8b 10		 mov	 edx, DWORD PTR [eax]
  0000b	8b c8		 mov	 ecx, eax
  0000d	8d 7e 14	 lea	 edi, DWORD PTR [esi+20]
  00010	ff 52 0c	 call	 DWORD PTR [edx+12]
  00013	83 c0 10	 add	 eax, 16			; 00000010H
  00016	89 07		 mov	 DWORD PTR [edi], eax
  00018	33 c0		 xor	 eax, eax
  0001a	8b cf		 mov	 ecx, edi
  0001c	c7 06 ff ff ff
	ff		 mov	 DWORD PTR [esi], -1
  00022	89 46 10	 mov	 DWORD PTR [esi+16], eax
  00025	89 46 0c	 mov	 DWORD PTR [esi+12], eax
  00028	89 46 08	 mov	 DWORD PTR [esi+8], eax
  0002b	89 46 04	 mov	 DWORD PTR [esi+4], eax
  0002e	e8 00 00 00 00	 call	 ?Empty@?$CSimpleStringT@D$0A@@ATL@@QAEXXZ ; ATL::CSimpleStringT<char,0>::Empty
  00033	5f		 pop	 edi
  00034	8b c6		 mov	 eax, esi
  00036	5e		 pop	 esi
  00037	c3		 ret	 0
??0HonorData@@QAE@XZ ENDP				; HonorData::HonorData
_TEXT	ENDS
PUBLIC	??1HonorData@@QAE@XZ				; HonorData::~HonorData
; Function compile flags: /Ogty
;	COMDAT ??1HonorData@@QAE@XZ
_TEXT	SEGMENT
??1HonorData@@QAE@XZ PROC NEAR				; HonorData::~HonorData, COMDAT
; _this$ = ecx

; 21   : 	~HonorData() {};

  00000	8b 41 14	 mov	 eax, DWORD PTR [ecx+20]
  00003	83 e8 10	 sub	 eax, 16			; 00000010H
  00006	8d 48 0c	 lea	 ecx, DWORD PTR [eax+12]
  00009	83 ca ff	 or	 edx, -1
  0000c	f0 0f c1 11	 lock	  xadd	 DWORD PTR [ecx], edx
  00010	4a		 dec	 edx
  00011	85 d2		 test	 edx, edx
  00013	7f 08		 jg	 SHORT $L189857
  00015	8b 08		 mov	 ecx, DWORD PTR [eax]
  00017	8b 11		 mov	 edx, DWORD PTR [ecx]
  00019	50		 push	 eax
  0001a	ff 52 04	 call	 DWORD PTR [edx+4]
$L189857:
  0001d	c3		 ret	 0
??1HonorData@@QAE@XZ ENDP				; HonorData::~HonorData
_TEXT	ENDS
PUBLIC	??1?$pair@$$CBHUHonorData@@@std@@QAE@XZ		; std::pair<int const ,HonorData>::~pair<int const ,HonorData>
; Function compile flags: /Ogty
;	COMDAT ??1?$pair@$$CBHUHonorData@@@std@@QAE@XZ
_TEXT	SEGMENT
??1?$pair@$$CBHUHonorData@@@std@@QAE@XZ PROC NEAR	; std::pair<int const ,HonorData>::~pair<int const ,HonorData>, COMDAT
; _this$ = ecx
  00000	8b 41 18	 mov	 eax, DWORD PTR [ecx+24]
  00003	83 e8 10	 sub	 eax, 16			; 00000010H
  00006	8d 48 0c	 lea	 ecx, DWORD PTR [eax+12]
  00009	83 ca ff	 or	 edx, -1
  0000c	f0 0f c1 11	 lock	  xadd	 DWORD PTR [ecx], edx
  00010	4a		 dec	 edx
  00011	85 d2		 test	 edx, edx
  00013	7f 08		 jg	 SHORT $L189901
  00015	8b 08		 mov	 ecx, DWORD PTR [eax]
  00017	8b 11		 mov	 edx, DWORD PTR [ecx]
  00019	50		 push	 eax
  0001a	ff 52 04	 call	 DWORD PTR [edx+4]
$L189901:
  0001d	c3		 ret	 0
??1?$pair@$$CBHUHonorData@@@std@@QAE@XZ ENDP		; std::pair<int const ,HonorData>::~pair<int const ,HonorData>
_TEXT	ENDS
PUBLIC	?find@?$_Tree@V?$_Tmap_traits@HUHonorData@@U?$less@H@std@@V?$allocator@U?$pair@$$CBHUHonorData@@@std@@@3@$0A@@std@@@std@@QAE?AViterator@12@ABH@Z ; std::_Tree<std::_Tmap_traits<int,HonorData,std::less<int>,std::allocator<std::pair<int const ,HonorData> >,0> >::find
; Function compile flags: /Ogty
; File c:\program files\microsoft visual studio .net 2003\vc7\include\xtree
;	COMDAT ?find@?$_Tree@V?$_Tmap_traits@HUHonorData@@U?$less@H@std@@V?$allocator@U?$pair@$$CBHUHonorData@@@std@@@3@$0A@@std@@@std@@QAE?AViterator@12@ABH@Z
_TEXT	SEGMENT
$T189911 = -4						; size = 4
___$ReturnUdt$ = 8					; size = 4
__Where$ = 12						; size = 4
__Keyval$ = 12						; size = 4
?find@?$_Tree@V?$_Tmap_traits@HUHonorData@@U?$less@H@std@@V?$allocator@U?$pair@$$CBHUHonorData@@@std@@@3@$0A@@std@@@std@@QAE?AViterator@12@ABH@Z PROC NEAR ; std::_Tree<std::_Tmap_traits<int,HonorData,std::less<int>,std::allocator<std::pair<int const ,HonorData> >,0> >::find, COMDAT
; _this$ = ecx

; 787  : 		{	// find an element in mutable sequence that matches _Keyval

  00000	51		 push	 ecx

; 788  : 		iterator _Where = lower_bound(_Keyval);

  00001	8b 51 04	 mov	 edx, DWORD PTR [ecx+4]
  00004	8b 42 04	 mov	 eax, DWORD PTR [edx+4]
  00007	53		 push	 ebx
  00008	8a 58 29	 mov	 bl, BYTE PTR [eax+41]
  0000b	84 db		 test	 bl, bl
  0000d	56		 push	 esi
  0000e	57		 push	 edi
  0000f	8b 7c 24 18	 mov	 edi, DWORD PTR __Keyval$[esp+12]
  00013	75 17		 jne	 SHORT $L190007
  00015	8b 37		 mov	 esi, DWORD PTR [edi]
$L190006:
  00017	39 70 0c	 cmp	 DWORD PTR [eax+12], esi
  0001a	7d 05		 jge	 SHORT $L190008
  0001c	8b 40 08	 mov	 eax, DWORD PTR [eax+8]
  0001f	eb 04		 jmp	 SHORT $L190009
$L190008:
  00021	8b d0		 mov	 edx, eax
  00023	8b 00		 mov	 eax, DWORD PTR [eax]
$L190009:
  00025	8a 58 29	 mov	 bl, BYTE PTR [eax+41]
  00028	84 db		 test	 bl, bl
  0002a	74 eb		 je	 SHORT $L190006
$L190007:

; 789  : 		return (_Where == end() || this->comp(_Keyval, _Key(_Where._Mynode()))
; 790  : 			? end() : _Where);

  0002c	8b 41 04	 mov	 eax, DWORD PTR [ecx+4]
  0002f	3b d0		 cmp	 edx, eax
  00031	89 54 24 18	 mov	 DWORD PTR __Where$[esp+12], edx
  00035	74 1a		 je	 SHORT $L189910
  00037	8b 0f		 mov	 ecx, DWORD PTR [edi]
  00039	3b 4a 0c	 cmp	 ecx, DWORD PTR [edx+12]
  0003c	7c 13		 jl	 SHORT $L189910
  0003e	8d 44 24 18	 lea	 eax, DWORD PTR __Where$[esp+12]
  00042	8b 10		 mov	 edx, DWORD PTR [eax]
  00044	8b 44 24 14	 mov	 eax, DWORD PTR ___$ReturnUdt$[esp+12]
  00048	5f		 pop	 edi
  00049	5e		 pop	 esi
  0004a	89 10		 mov	 DWORD PTR [eax], edx
  0004c	5b		 pop	 ebx

; 791  : 		}

  0004d	59		 pop	 ecx
  0004e	c2 08 00	 ret	 8
$L189910:

; 789  : 		return (_Where == end() || this->comp(_Keyval, _Key(_Where._Mynode()))
; 790  : 			? end() : _Where);

  00051	89 44 24 0c	 mov	 DWORD PTR $T189911[esp+16], eax
  00055	8d 44 24 0c	 lea	 eax, DWORD PTR $T189911[esp+16]
  00059	8b 10		 mov	 edx, DWORD PTR [eax]
  0005b	8b 44 24 14	 mov	 eax, DWORD PTR ___$ReturnUdt$[esp+12]
  0005f	5f		 pop	 edi
  00060	5e		 pop	 esi
  00061	89 10		 mov	 DWORD PTR [eax], edx
  00063	5b		 pop	 ebx

; 791  : 		}

  00064	59		 pop	 ecx
  00065	c2 08 00	 ret	 8
?find@?$_Tree@V?$_Tmap_traits@HUHonorData@@U?$less@H@std@@V?$allocator@U?$pair@$$CBHUHonorData@@@std@@@3@$0A@@std@@@std@@QAE?AViterator@12@ABH@Z ENDP ; std::_Tree<std::_Tmap_traits<int,HonorData,std::less<int>,std::allocator<std::pair<int const ,HonorData> >,0> >::find
_TEXT	ENDS
PUBLIC	??Eiterator@?$_Tree@V?$_Tmap_traits@HUHonorData@@U?$less@H@std@@V?$allocator@U?$pair@$$CBHUHonorData@@@std@@@3@$0A@@std@@@std@@QAEAAV012@XZ ; std::_Tree<std::_Tmap_traits<int,HonorData,std::less<int>,std::allocator<std::pair<int const ,HonorData> >,0> >::iterator::operator++
; Function compile flags: /Ogty
;	COMDAT ??Eiterator@?$_Tree@V?$_Tmap_traits@HUHonorData@@U?$less@H@std@@V?$allocator@U?$pair@$$CBHUHonorData@@@std@@@3@$0A@@std@@@std@@QAEAAV012@XZ
_TEXT	SEGMENT
??Eiterator@?$_Tree@V?$_Tmap_traits@HUHonorData@@U?$less@H@std@@V?$allocator@U?$pair@$$CBHUHonorData@@@std@@@3@$0A@@std@@@std@@QAEAAV012@XZ PROC NEAR ; std::_Tree<std::_Tmap_traits<int,HonorData,std::less<int>,std::allocator<std::pair<int const ,HonorData> >,0> >::iterator::operator++, COMDAT
; _this$ = ecx

; 326  : 			{	// preincrement

  00000	56		 push	 esi
  00001	8b f1		 mov	 esi, ecx

; 327  : 			++(*(const_iterator *)this);

  00003	e8 00 00 00 00	 call	 ?_Inc@const_iterator@?$_Tree@V?$_Tmap_traits@HUHonorData@@U?$less@H@std@@V?$allocator@U?$pair@$$CBHUHonorData@@@std@@@3@$0A@@std@@@std@@QAEXXZ ; std::_Tree<std::_Tmap_traits<int,HonorData,std::less<int>,std::allocator<std::pair<int const ,HonorData> >,0> >::const_iterator::_Inc

; 328  : 			return (*this);

  00008	8b c6		 mov	 eax, esi
  0000a	5e		 pop	 esi

; 329  : 			}

  0000b	c3		 ret	 0
??Eiterator@?$_Tree@V?$_Tmap_traits@HUHonorData@@U?$less@H@std@@V?$allocator@U?$pair@$$CBHUHonorData@@@std@@@3@$0A@@std@@@std@@QAEAAV012@XZ ENDP ; std::_Tree<std::_Tmap_traits<int,HonorData,std::less<int>,std::allocator<std::pair<int const ,HonorData> >,0> >::iterator::operator++
_TEXT	ENDS
PUBLIC	??Fiterator@?$_Tree@V?$_Tmap_traits@HUHonorData@@U?$less@H@std@@V?$allocator@U?$pair@$$CBHUHonorData@@@std@@@3@$0A@@std@@@std@@QAEAAV012@XZ ; std::_Tree<std::_Tmap_traits<int,HonorData,std::less<int>,std::allocator<std::pair<int const ,HonorData> >,0> >::iterator::operator--
; Function compile flags: /Ogty
;	COMDAT ??Fiterator@?$_Tree@V?$_Tmap_traits@HUHonorData@@U?$less@H@std@@V?$allocator@U?$pair@$$CBHUHonorData@@@std@@@3@$0A@@std@@@std@@QAEAAV012@XZ
_TEXT	SEGMENT
??Fiterator@?$_Tree@V?$_Tmap_traits@HUHonorData@@U?$less@H@std@@V?$allocator@U?$pair@$$CBHUHonorData@@@std@@@3@$0A@@std@@@std@@QAEAAV012@XZ PROC NEAR ; std::_Tree<std::_Tmap_traits<int,HonorData,std::less<int>,std::allocator<std::pair<int const ,HonorData> >,0> >::iterator::operator--, COMDAT
; _this$ = ecx

; 339  : 			{	// predecrement

  00000	56		 push	 esi
  00001	8b f1		 mov	 esi, ecx

; 340  : 			--(*(const_iterator *)this);

  00003	e8 00 00 00 00	 call	 ?_Dec@const_iterator@?$_Tree@V?$_Tmap_traits@HUHonorData@@U?$less@H@std@@V?$allocator@U?$pair@$$CBHUHonorData@@@std@@@3@$0A@@std@@@std@@QAEXXZ ; std::_Tree<std::_Tmap_traits<int,HonorData,std::less<int>,std::allocator<std::pair<int const ,HonorData> >,0> >::const_iterator::_Dec

; 341  : 			return (*this);

  00008	8b c6		 mov	 eax, esi
  0000a	5e		 pop	 esi

; 342  : 			}

  0000b	c3		 ret	 0
??Fiterator@?$_Tree@V?$_Tmap_traits@HUHonorData@@U?$less@H@std@@V?$allocator@U?$pair@$$CBHUHonorData@@@std@@@3@$0A@@std@@@std@@QAEAAV012@XZ ENDP ; std::_Tree<std::_Tmap_traits<int,HonorData,std::less<int>,std::allocator<std::pair<int const ,HonorData> >,0> >::iterator::operator--
_TEXT	ENDS
PUBLIC	?_Init@?$_Tree@V?$_Tmap_traits@HUHonorData@@U?$less@H@std@@V?$allocator@U?$pair@$$CBHUHonorData@@@std@@@3@$0A@@std@@@std@@IAEXXZ ; std::_Tree<std::_Tmap_traits<int,HonorData,std::less<int>,std::allocator<std::pair<int const ,HonorData> >,0> >::_Init
; Function compile flags: /Ogty
;	COMDAT ?_Init@?$_Tree@V?$_Tmap_traits@HUHonorData@@U?$less@H@std@@V?$allocator@U?$pair@$$CBHUHonorData@@@std@@@3@$0A@@std@@@std@@IAEXXZ
_TEXT	SEGMENT
?_Init@?$_Tree@V?$_Tmap_traits@HUHonorData@@U?$less@H@std@@V?$allocator@U?$pair@$$CBHUHonorData@@@std@@@3@$0A@@std@@@std@@IAEXXZ PROC NEAR ; std::_Tree<std::_Tmap_traits<int,HonorData,std::less<int>,std::allocator<std::pair<int const ,HonorData> >,0> >::_Init, COMDAT
; _this$ = ecx

; 901  : 		{	// create head/nil node and make tree empty

  00000	56		 push	 esi
  00001	8b f1		 mov	 esi, ecx

; 902  : 		_Myhead = _Buynode();

  00003	e8 00 00 00 00	 call	 ?_Buynode@?$_Tree@V?$_Tmap_traits@HUHonorData@@U?$less@H@std@@V?$allocator@U?$pair@$$CBHUHonorData@@@std@@@3@$0A@@std@@@std@@IAEPAU_Node@?$_Tree_nod@V?$_Tmap_traits@HUHonorData@@U?$less@H@std@@V?$allocator@U?$pair@$$CBHUHonorData@@@std@@@3@$0A@@std@@@2@XZ ; std::_Tree<std::_Tmap_traits<int,HonorData,std::less<int>,std::allocator<std::pair<int const ,HonorData> >,0> >::_Buynode
  00008	89 46 04	 mov	 DWORD PTR [esi+4], eax

; 903  : 		_Isnil(_Myhead) = true;

  0000b	c6 40 29 01	 mov	 BYTE PTR [eax+41], 1

; 904  : 		_Root() = _Myhead;

  0000f	8b 46 04	 mov	 eax, DWORD PTR [esi+4]
  00012	89 40 04	 mov	 DWORD PTR [eax+4], eax

; 905  : 		_Lmost() = _Myhead, _Rmost() = _Myhead;

  00015	8b 46 04	 mov	 eax, DWORD PTR [esi+4]
  00018	89 00		 mov	 DWORD PTR [eax], eax
  0001a	8b 46 04	 mov	 eax, DWORD PTR [esi+4]
  0001d	89 40 08	 mov	 DWORD PTR [eax+8], eax

; 906  : 		_Mysize = 0;

  00020	c7 46 08 00 00
	00 00		 mov	 DWORD PTR [esi+8], 0
  00027	5e		 pop	 esi

; 907  : 		}

  00028	c3		 ret	 0
?_Init@?$_Tree@V?$_Tmap_traits@HUHonorData@@U?$less@H@std@@V?$allocator@U?$pair@$$CBHUHonorData@@@std@@@3@$0A@@std@@@std@@IAEXXZ ENDP ; std::_Tree<std::_Tmap_traits<int,HonorData,std::less<int>,std::allocator<std::pair<int const ,HonorData> >,0> >::_Init
_TEXT	ENDS
PUBLIC	??0?$_Tree_val@V?$_Tmap_traits@HUHonorData@@U?$less@H@std@@V?$allocator@U?$pair@$$CBHUHonorData@@@std@@@3@$0A@@std@@@std@@IAE@ABU?$less@H@1@V?$allocator@U?$pair@$$CBHUHonorData@@@std@@@1@@Z ; std::_Tree_val<std::_Tmap_traits<int,HonorData,std::less<int>,std::allocator<std::pair<int const ,HonorData> >,0> >::_Tree_val<std::_Tmap_traits<int,HonorData,std::less<int>,std::allocator<std::pair<int const ,HonorData> >,0> >
; Function compile flags: /Ogty
;	COMDAT ??0?$_Tree_val@V?$_Tmap_traits@HUHonorData@@U?$less@H@std@@V?$allocator@U?$pair@$$CBHUHonorData@@@std@@@3@$0A@@std@@@std@@IAE@ABU?$less@H@1@V?$allocator@U?$pair@$$CBHUHonorData@@@std@@@1@@Z
_TEXT	SEGMENT
__Parg$ = 8						; size = 4
__Al$ = 12						; size = 1
??0?$_Tree_val@V?$_Tmap_traits@HUHonorData@@U?$less@H@std@@V?$allocator@U?$pair@$$CBHUHonorData@@@std@@@3@$0A@@std@@@std@@IAE@ABU?$less@H@1@V?$allocator@U?$pair@$$CBHUHonorData@@@std@@@1@@Z PROC NEAR ; std::_Tree_val<std::_Tmap_traits<int,HonorData,std::less<int>,std::allocator<std::pair<int const ,HonorData> >,0> >::_Tree_val<std::_Tmap_traits<int,HonorData,std::less<int>,std::allocator<std::pair<int const ,HonorData> >,0> >, COMDAT
; _this$ = ecx

; 95   : 		{	// construct base, and allocator from _Al

  00000	8b c1		 mov	 eax, ecx

; 96   : 		}

  00002	c2 08 00	 ret	 8
??0?$_Tree_val@V?$_Tmap_traits@HUHonorData@@U?$less@H@std@@V?$allocator@U?$pair@$$CBHUHonorData@@@std@@@3@$0A@@std@@@std@@IAE@ABU?$less@H@1@V?$allocator@U?$pair@$$CBHUHonorData@@@std@@@1@@Z ENDP ; std::_Tree_val<std::_Tmap_traits<int,HonorData,std::less<int>,std::allocator<std::pair<int const ,HonorData> >,0> >::_Tree_val<std::_Tmap_traits<int,HonorData,std::less<int>,std::allocator<std::pair<int const ,HonorData> >,0> >
_TEXT	ENDS
PUBLIC	??Eiterator@?$_Tree@V?$_Tmap_traits@HUHonorData@@U?$less@H@std@@V?$allocator@U?$pair@$$CBHUHonorData@@@std@@@3@$0A@@std@@@std@@QAE?AV012@H@Z ; std::_Tree<std::_Tmap_traits<int,HonorData,std::less<int>,std::allocator<std::pair<int const ,HonorData> >,0> >::iterator::operator++
; Function compile flags: /Ogty
;	COMDAT ??Eiterator@?$_Tree@V?$_Tmap_traits@HUHonorData@@U?$less@H@std@@V?$allocator@U?$pair@$$CBHUHonorData@@@std@@@3@$0A@@std@@@std@@QAE?AV012@H@Z
_TEXT	SEGMENT
___$ReturnUdt$ = 8					; size = 4
___formal$ = 12						; size = 4
??Eiterator@?$_Tree@V?$_Tmap_traits@HUHonorData@@U?$less@H@std@@V?$allocator@U?$pair@$$CBHUHonorData@@@std@@@3@$0A@@std@@@std@@QAE?AV012@H@Z PROC NEAR ; std::_Tree<std::_Tmap_traits<int,HonorData,std::less<int>,std::allocator<std::pair<int const ,HonorData> >,0> >::iterator::operator++, COMDAT
; _this$ = ecx

; 332  : 			{	// postincrement

  00000	56		 push	 esi

; 333  : 			iterator _Tmp = *this;

  00001	8b 31		 mov	 esi, DWORD PTR [ecx]

; 334  : 			++*this;

  00003	e8 00 00 00 00	 call	 ?_Inc@const_iterator@?$_Tree@V?$_Tmap_traits@HUHonorData@@U?$less@H@std@@V?$allocator@U?$pair@$$CBHUHonorData@@@std@@@3@$0A@@std@@@std@@QAEXXZ ; std::_Tree<std::_Tmap_traits<int,HonorData,std::less<int>,std::allocator<std::pair<int const ,HonorData> >,0> >::const_iterator::_Inc

; 335  : 			return (_Tmp);

  00008	8b 44 24 08	 mov	 eax, DWORD PTR ___$ReturnUdt$[esp]
  0000c	89 30		 mov	 DWORD PTR [eax], esi
  0000e	5e		 pop	 esi

; 336  : 			}

  0000f	c2 08 00	 ret	 8
??Eiterator@?$_Tree@V?$_Tmap_traits@HUHonorData@@U?$less@H@std@@V?$allocator@U?$pair@$$CBHUHonorData@@@std@@@3@$0A@@std@@@std@@QAE?AV012@H@Z ENDP ; std::_Tree<std::_Tmap_traits<int,HonorData,std::less<int>,std::allocator<std::pair<int const ,HonorData> >,0> >::iterator::operator++
_TEXT	ENDS
PUBLIC	??1_Node@?$_Tree_nod@V?$_Tmap_traits@HUHonorData@@U?$less@H@std@@V?$allocator@U?$pair@$$CBHUHonorData@@@std@@@3@$0A@@std@@@std@@QAE@XZ ; std::_Tree_nod<std::_Tmap_traits<int,HonorData,std::less<int>,std::allocator<std::pair<int const ,HonorData> >,0> >::_Node::~_Node
; Function compile flags: /Ogty
;	COMDAT ??1_Node@?$_Tree_nod@V?$_Tmap_traits@HUHonorData@@U?$less@H@std@@V?$allocator@U?$pair@$$CBHUHonorData@@@std@@@3@$0A@@std@@@std@@QAE@XZ
_TEXT	SEGMENT
??1_Node@?$_Tree_nod@V?$_Tmap_traits@HUHonorData@@U?$less@H@std@@V?$allocator@U?$pair@$$CBHUHonorData@@@std@@@3@$0A@@std@@@std@@QAE@XZ PROC NEAR ; std::_Tree_nod<std::_Tmap_traits<int,HonorData,std::less<int>,std::allocator<std::pair<int const ,HonorData> >,0> >::_Node::~_Node, COMDAT
; _this$ = ecx
  00000	8b 41 24	 mov	 eax, DWORD PTR [ecx+36]
  00003	83 e8 10	 sub	 eax, 16			; 00000010H
  00006	8d 48 0c	 lea	 ecx, DWORD PTR [eax+12]
  00009	83 ca ff	 or	 edx, -1
  0000c	f0 0f c1 11	 lock	  xadd	 DWORD PTR [ecx], edx
  00010	4a		 dec	 edx
  00011	85 d2		 test	 edx, edx
  00013	7f 08		 jg	 SHORT $L190223
  00015	8b 08		 mov	 ecx, DWORD PTR [eax]
  00017	8b 11		 mov	 edx, DWORD PTR [ecx]
  00019	50		 push	 eax
  0001a	ff 52 04	 call	 DWORD PTR [edx+4]
$L190223:
  0001d	c3		 ret	 0
??1_Node@?$_Tree_nod@V?$_Tmap_traits@HUHonorData@@U?$less@H@std@@V?$allocator@U?$pair@$$CBHUHonorData@@@std@@@3@$0A@@std@@@std@@QAE@XZ ENDP ; std::_Tree_nod<std::_Tmap_traits<int,HonorData,std::less<int>,std::allocator<std::pair<int const ,HonorData> >,0> >::_Node::~_Node
_TEXT	ENDS
PUBLIC	??0?$CStringT@DV?$StrTraitMFC@DV?$ChTraitsCRT@D@ATL@@@@@ATL@@QAE@ABV01@@Z ; ATL::CStringT<char,StrTraitMFC<char,ATL::ChTraitsCRT<char> > >::CStringT<char,StrTraitMFC<char,ATL::ChTraitsCRT<char> > >
; Function compile flags: /Ogty
; File c:\program files\microsoft visual studio .net 2003\vc7\atlmfc\include\cstringt.h
;	COMDAT ??0?$CStringT@DV?$StrTraitMFC@DV?$ChTraitsCRT@D@ATL@@@@@ATL@@QAE@ABV01@@Z
_TEXT	SEGMENT
_strSrc$ = 8						; size = 4
??0?$CStringT@DV?$StrTraitMFC@DV?$ChTraitsCRT@D@ATL@@@@@ATL@@QAE@ABV01@@Z PROC NEAR ; ATL::CStringT<char,StrTraitMFC<char,ATL::ChTraitsCRT<char> > >::CStringT<char,StrTraitMFC<char,ATL::ChTraitsCRT<char> > >, COMDAT
; _this$ = ecx

; 814  : 	{

  00000	8b 44 24 04	 mov	 eax, DWORD PTR _strSrc$[esp-4]
  00004	8b 00		 mov	 eax, DWORD PTR [eax]
  00006	56		 push	 esi
  00007	83 e8 10	 sub	 eax, 16			; 00000010H
  0000a	50		 push	 eax
  0000b	8b f1		 mov	 esi, ecx
  0000d	e8 00 00 00 00	 call	 ?CloneData@?$CSimpleStringT@D$0A@@ATL@@CAPAUCStringData@2@PAU32@@Z ; ATL::CSimpleStringT<char,0>::CloneData
  00012	83 c0 10	 add	 eax, 16			; 00000010H
  00015	89 06		 mov	 DWORD PTR [esi], eax
  00017	83 c4 04	 add	 esp, 4

; 815  : 	}

  0001a	8b c6		 mov	 eax, esi
  0001c	5e		 pop	 esi
  0001d	c2 04 00	 ret	 4
??0?$CStringT@DV?$StrTraitMFC@DV?$ChTraitsCRT@D@ATL@@@@@ATL@@QAE@ABV01@@Z ENDP ; ATL::CStringT<char,StrTraitMFC<char,ATL::ChTraitsCRT<char> > >::CStringT<char,StrTraitMFC<char,ATL::ChTraitsCRT<char> > >
_TEXT	ENDS
PUBLIC	?GetBuffer@?$CSimpleStringT@D$0A@@ATL@@QAEPADH@Z ; ATL::CSimpleStringT<char,0>::GetBuffer
; Function compile flags: /Ogty
; File c:\program files\microsoft visual studio .net 2003\vc7\atlmfc\include\atlsimpstr.h
;	COMDAT ?GetBuffer@?$CSimpleStringT@D$0A@@ATL@@QAEPADH@Z
_TEXT	SEGMENT
_nMinBufferLength$ = 8					; size = 4
?GetBuffer@?$CSimpleStringT@D$0A@@ATL@@QAEPADH@Z PROC NEAR ; ATL::CSimpleStringT<char,0>::GetBuffer, COMDAT
; _this$ = ecx

; 489  : 	{

  00000	56		 push	 esi
  00001	8b f1		 mov	 esi, ecx

; 490  : 		return( PrepareWrite( nMinBufferLength ) );

  00003	8b 06		 mov	 eax, DWORD PTR [esi]
  00005	8b 50 fc	 mov	 edx, DWORD PTR [eax-4]
  00008	83 e8 10	 sub	 eax, 16			; 00000010H
  0000b	b9 01 00 00 00	 mov	 ecx, 1
  00010	2b ca		 sub	 ecx, edx
  00012	8b 50 08	 mov	 edx, DWORD PTR [eax+8]
  00015	8b 44 24 08	 mov	 eax, DWORD PTR _nMinBufferLength$[esp]
  00019	2b d0		 sub	 edx, eax
  0001b	0b ca		 or	 ecx, edx
  0001d	7d 08		 jge	 SHORT $L190268
  0001f	50		 push	 eax
  00020	8b ce		 mov	 ecx, esi
  00022	e8 00 00 00 00	 call	 ?PrepareWrite2@?$CSimpleStringT@D$0A@@ATL@@AAEXH@Z ; ATL::CSimpleStringT<char,0>::PrepareWrite2
$L190268:
  00027	8b 06		 mov	 eax, DWORD PTR [esi]
  00029	5e		 pop	 esi

; 491  : 	}

  0002a	c2 04 00	 ret	 4
?GetBuffer@?$CSimpleStringT@D$0A@@ATL@@QAEPADH@Z ENDP	; ATL::CSimpleStringT<char,0>::GetBuffer
_TEXT	ENDS
PUBLIC	??1?$basic_string@DU?$char_traits@D@std@@V?$allocator@D@2@@std@@QAE@XZ ; std::basic_string<char,std::char_traits<char>,std::allocator<char> >::~basic_string<char,std::char_traits<char>,std::allocator<char> >
; Function compile flags: /Ogty
; File c:\program files\microsoft visual studio .net 2003\vc7\include\xstring
;	COMDAT ??1?$basic_string@DU?$char_traits@D@std@@V?$allocator@D@2@@std@@QAE@XZ
_TEXT	SEGMENT
??1?$basic_string@DU?$char_traits@D@std@@V?$allocator@D@2@@std@@QAE@XZ PROC NEAR ; std::basic_string<char,std::char_traits<char>,std::allocator<char> >::~basic_string<char,std::char_traits<char>,std::allocator<char> >, COMDAT
; _this$ = ecx

; 456  : 		{	// destroy the string

  00000	56		 push	 esi
  00001	8b f1		 mov	 esi, ecx

; 457  : 		_Tidy(true);

  00003	83 7e 18 10	 cmp	 DWORD PTR [esi+24], 16	; 00000010H
  00007	72 0c		 jb	 SHORT $L190310
  00009	8b 46 04	 mov	 eax, DWORD PTR [esi+4]
  0000c	50		 push	 eax
  0000d	e8 00 00 00 00	 call	 ??3@YAXPAX@Z		; operator delete
  00012	83 c4 04	 add	 esp, 4
$L190310:
  00015	33 c0		 xor	 eax, eax
  00017	c7 46 18 0f 00
	00 00		 mov	 DWORD PTR [esi+24], 15	; 0000000fH
  0001e	89 46 14	 mov	 DWORD PTR [esi+20], eax
  00021	88 46 04	 mov	 BYTE PTR [esi+4], al
  00024	5e		 pop	 esi

; 458  : 		}

  00025	c3		 ret	 0
??1?$basic_string@DU?$char_traits@D@std@@V?$allocator@D@2@@std@@QAE@XZ ENDP ; std::basic_string<char,std::char_traits<char>,std::allocator<char> >::~basic_string<char,std::char_traits<char>,std::allocator<char> >
_TEXT	ENDS
PUBLIC	?SetString@?$CSimpleStringT@D$0A@@ATL@@QAEXPBDH@Z ; ATL::CSimpleStringT<char,0>::SetString
; Function compile flags: /Ogty
; File c:\program files\microsoft visual studio .net 2003\vc7\atlmfc\include\atlsimpstr.h
;	COMDAT ?SetString@?$CSimpleStringT@D$0A@@ATL@@QAEXPBDH@Z
_TEXT	SEGMENT
_pszSrc$ = 8						; size = 4
_nLength$ = 12						; size = 4
?SetString@?$CSimpleStringT@D$0A@@ATL@@QAEXPBDH@Z PROC NEAR ; ATL::CSimpleStringT<char,0>::SetString, COMDAT
; _this$ = ecx

; 583  : 	{

  00000	53		 push	 ebx

; 584  : 		if( nLength == 0 )

  00001	8b 5c 24 0c	 mov	 ebx, DWORD PTR _nLength$[esp]
  00005	85 db		 test	 ebx, ebx
  00007	55		 push	 ebp
  00008	8b e9		 mov	 ebp, ecx
  0000a	75 0a		 jne	 SHORT $L184946

; 585  : 		{
; 586  : 			Empty();

  0000c	e8 00 00 00 00	 call	 ?Empty@?$CSimpleStringT@D$0A@@ATL@@QAEXXZ ; ATL::CSimpleStringT<char,0>::Empty
  00011	5d		 pop	 ebp
  00012	5b		 pop	 ebx

; 614  : 		}
; 615  : 	}

  00013	c2 08 00	 ret	 8
$L184946:

; 587  : 		}
; 588  : 		else
; 589  : 		{
; 590  : 			// It is possible that pszSrc points to a location inside of our 
; 591  : 			// buffer.  GetBuffer() might change m_pszData if (1) the buffer 
; 592  : 			// is shared or (2) the buffer is too small to hold the new 
; 593  : 			// string.  We detect this aliasing, and modify pszSrc to point
; 594  : 			// into the newly allocated buffer instead.
; 595  : 			
; 596  : 			if(pszSrc == NULL)

  00016	8b 54 24 0c	 mov	 edx, DWORD PTR _pszSrc$[esp+4]
  0001a	85 d2		 test	 edx, edx
  0001c	75 0a		 jne	 SHORT $L184948

; 612  : 			}
; 613  : 			ReleaseBufferSetLength( nLength );

$L190392:
  0001e	68 57 00 07 80	 push	 -2147024809		; 80070057H
  00023	e8 00 00 00 00	 call	 ?AtlThrow@ATL@@YGXJ@Z	; ATL::AtlThrow
$L184948:

; 597  : 				AtlThrow(E_INVALIDARG);			
; 598  : 				
; 599  : 			UINT nOldLength = GetLength();

  00028	8b 45 00	 mov	 eax, DWORD PTR [ebp]
  0002b	56		 push	 esi

; 600  : 			UINT_PTR nOffset = pszSrc-GetString();

  0002c	8b f2		 mov	 esi, edx
  0002e	2b f0		 sub	 esi, eax

; 601  : 			// If 0 <= nOffset <= nOldLength, then pszSrc points into our 
; 602  : 			// buffer
; 603  : 
; 604  : 			PXSTR pszBuffer = GetBuffer( nLength );

  00030	b9 01 00 00 00	 mov	 ecx, 1
  00035	2b 48 fc	 sub	 ecx, DWORD PTR [eax-4]
  00038	57		 push	 edi
  00039	8b 78 f4	 mov	 edi, DWORD PTR [eax-12]
  0003c	8b 40 f8	 mov	 eax, DWORD PTR [eax-8]
  0003f	2b c3		 sub	 eax, ebx
  00041	0b c8		 or	 ecx, eax
  00043	7d 0c		 jge	 SHORT $L190359
  00045	53		 push	 ebx
  00046	8b cd		 mov	 ecx, ebp
  00048	e8 00 00 00 00	 call	 ?PrepareWrite2@?$CSimpleStringT@D$0A@@ATL@@AAEXH@Z ; ATL::CSimpleStringT<char,0>::PrepareWrite2
  0004d	8b 54 24 14	 mov	 edx, DWORD PTR _pszSrc$[esp+12]
$L190359:

; 605  : 			if( nOffset <= nOldLength )

  00051	3b f7		 cmp	 esi, edi
  00053	8b 45 00	 mov	 eax, DWORD PTR [ebp]
  00056	77 10		 ja	 SHORT $L184953

; 606  : 			{
; 607  : 				CopyCharsOverlapped( pszBuffer, pszBuffer+nOffset, nLength );

  00058	53		 push	 ebx
  00059	8d 0c 30	 lea	 ecx, DWORD PTR [eax+esi]
  0005c	51		 push	 ecx
  0005d	50		 push	 eax
  0005e	e8 00 00 00 00	 call	 _memmove
  00063	83 c4 0c	 add	 esp, 12			; 0000000cH

; 608  : 			}
; 609  : 			else

  00066	eb 14		 jmp	 SHORT $L190364
$L184953:

; 610  : 			{
; 611  : 				CopyChars( pszBuffer, pszSrc, nLength );

  00068	8b cb		 mov	 ecx, ebx
  0006a	8b f2		 mov	 esi, edx
  0006c	8b d1		 mov	 edx, ecx
  0006e	c1 e9 02	 shr	 ecx, 2
  00071	8b f8		 mov	 edi, eax
  00073	f3 a5		 rep movsd
  00075	8b ca		 mov	 ecx, edx
  00077	83 e1 03	 and	 ecx, 3
  0007a	f3 a4		 rep movsb
$L190364:

; 612  : 			}
; 613  : 			ReleaseBufferSetLength( nLength );

  0007c	85 db		 test	 ebx, ebx
  0007e	5f		 pop	 edi
  0007f	5e		 pop	 esi
  00080	7c 9c		 jl	 SHORT $L190392
  00082	8b 45 00	 mov	 eax, DWORD PTR [ebp]
  00085	3b 58 f8	 cmp	 ebx, DWORD PTR [eax-8]
  00088	7f 94		 jg	 SHORT $L190392
  0008a	89 58 f4	 mov	 DWORD PTR [eax-12], ebx
  0008d	8b 45 00	 mov	 eax, DWORD PTR [ebp]
  00090	5d		 pop	 ebp
  00091	c6 04 03 00	 mov	 BYTE PTR [ebx+eax], 0
  00095	5b		 pop	 ebx

; 614  : 		}
; 615  : 	}

  00096	c2 08 00	 ret	 8
$L190394:
?SetString@?$CSimpleStringT@D$0A@@ATL@@QAEXPBDH@Z ENDP	; ATL::CSimpleStringT<char,0>::SetString
_TEXT	ENDS
PUBLIC	?_Grow@?$basic_string@DU?$char_traits@D@std@@V?$allocator@D@2@@std@@IAE_NI_N@Z ; std::basic_string<char,std::char_traits<char>,std::allocator<char> >::_Grow
EXTRN	?_Xlen@_String_base@std@@QBEXXZ:NEAR		; std::_String_base::_Xlen
; Function compile flags: /Ogty
; File c:\program files\microsoft visual studio .net 2003\vc7\include\xstring
;	COMDAT ?_Grow@?$basic_string@DU?$char_traits@D@std@@V?$allocator@D@2@@std@@IAE_NI_N@Z
_TEXT	SEGMENT
__Newsize$ = 8						; size = 4
__Trim$ = 12						; size = 1
?_Grow@?$basic_string@DU?$char_traits@D@std@@V?$allocator@D@2@@std@@IAE_NI_N@Z PROC NEAR ; std::basic_string<char,std::char_traits<char>,std::allocator<char> >::_Grow, COMDAT
; _this$ = ecx

; 1480 : 		{	// ensure buffer is big enough, trim to size if _Trim is true

  00000	55		 push	 ebp
  00001	56		 push	 esi

; 1481 : 		if (max_size() < _Newsize)

  00002	8b 74 24 0c	 mov	 esi, DWORD PTR __Newsize$[esp+4]
  00006	83 fe fe	 cmp	 esi, -2			; fffffffeH
  00009	8b e9		 mov	 ebp, ecx
  0000b	76 05		 jbe	 SHORT $L185002

; 1482 : 			_String_base::_Xlen();	// result too long

  0000d	e8 00 00 00 00	 call	 ?_Xlen@_String_base@std@@QBEXXZ ; std::_String_base::_Xlen
$L185002:

; 1483 : 		if (_Myres < _Newsize)

  00012	8b 45 18	 mov	 eax, DWORD PTR [ebp+24]
  00015	3b c6		 cmp	 eax, esi
  00017	73 19		 jae	 SHORT $L185003

; 1484 : 			_Copy(_Newsize, _Mysize);	// reallocate to grow

  00019	8b 45 14	 mov	 eax, DWORD PTR [ebp+20]
  0001c	50		 push	 eax
  0001d	56		 push	 esi
  0001e	8b cd		 mov	 ecx, ebp
  00020	e8 00 00 00 00	 call	 ?_Copy@?$basic_string@DU?$char_traits@D@std@@V?$allocator@D@2@@std@@IAEXII@Z ; std::basic_string<char,std::char_traits<char>,std::allocator<char> >::_Copy

; 1490 : 		return (0 < _Newsize);	// return true only if more work to do

  00025	33 c0		 xor	 eax, eax
  00027	3b c6		 cmp	 eax, esi
  00029	1b c0		 sbb	 eax, eax
  0002b	5e		 pop	 esi
  0002c	f7 d8		 neg	 eax
  0002e	5d		 pop	 ebp

; 1491 : 		}

  0002f	c2 08 00	 ret	 8
$L185003:

; 1485 : 		else if (_Trim && _Newsize < _BUF_SIZE)

  00032	8a 4c 24 10	 mov	 cl, BYTE PTR __Trim$[esp+4]
  00036	84 c9		 test	 cl, cl
  00038	74 5c		 je	 SHORT $L185005
  0003a	83 fe 10	 cmp	 esi, 16			; 00000010H
  0003d	73 57		 jae	 SHORT $L185005
  0003f	53		 push	 ebx

; 1486 : 			_Tidy(true,	// copy and deallocate if trimming to small string
; 1487 : 				_Newsize < _Mysize ? _Newsize : _Mysize);

  00040	8b 5d 14	 mov	 ebx, DWORD PTR [ebp+20]
  00043	3b f3		 cmp	 esi, ebx
  00045	73 02		 jae	 SHORT $L190398
  00047	8b de		 mov	 ebx, esi
$L190398:
  00049	83 f8 10	 cmp	 eax, 16			; 00000010H
  0004c	72 2b		 jb	 SHORT $L190458
  0004e	85 db		 test	 ebx, ebx
  00050	8b 45 04	 mov	 eax, DWORD PTR [ebp+4]
  00053	57		 push	 edi
  00054	8d 7d 04	 lea	 edi, DWORD PTR [ebp+4]
  00057	76 16		 jbe	 SHORT $L190457
  00059	8b cb		 mov	 ecx, ebx
  0005b	8b d1		 mov	 edx, ecx
  0005d	c1 e9 02	 shr	 ecx, 2
  00060	8b f0		 mov	 esi, eax
  00062	f3 a5		 rep movsd
  00064	8b ca		 mov	 ecx, edx
  00066	83 e1 03	 and	 ecx, 3
  00069	f3 a4		 rep movsb
  0006b	8b 74 24 14	 mov	 esi, DWORD PTR __Newsize$[esp+12]
$L190457:
  0006f	50		 push	 eax
  00070	e8 00 00 00 00	 call	 ??3@YAXPAX@Z		; operator delete
  00075	83 c4 04	 add	 esp, 4
  00078	5f		 pop	 edi
$L190458:
  00079	89 5d 14	 mov	 DWORD PTR [ebp+20], ebx

; 1490 : 		return (0 < _Newsize);	// return true only if more work to do

  0007c	33 c0		 xor	 eax, eax
  0007e	c7 45 18 0f 00
	00 00		 mov	 DWORD PTR [ebp+24], 15	; 0000000fH
  00085	c6 44 2b 04 00	 mov	 BYTE PTR [ebx+ebp+4], 0
  0008a	3b c6		 cmp	 eax, esi
  0008c	5b		 pop	 ebx
  0008d	1b c0		 sbb	 eax, eax
  0008f	5e		 pop	 esi
  00090	f7 d8		 neg	 eax
  00092	5d		 pop	 ebp

; 1491 : 		}

  00093	c2 08 00	 ret	 8
$L185005:

; 1488 : 		else if (_Newsize == 0)

  00096	85 f6		 test	 esi, esi
  00098	75 23		 jne	 SHORT $L190489

; 1489 : 			_Eos(0);	// new size is zero, just null terminate

  0009a	83 f8 10	 cmp	 eax, 16			; 00000010H
  0009d	89 75 14	 mov	 DWORD PTR [ebp+20], esi
  000a0	72 14		 jb	 SHORT $L190485
  000a2	8b 6d 04	 mov	 ebp, DWORD PTR [ebp+4]

; 1490 : 		return (0 < _Newsize);	// return true only if more work to do

  000a5	33 c0		 xor	 eax, eax
  000a7	3b c6		 cmp	 eax, esi
  000a9	1b c0		 sbb	 eax, eax
  000ab	5e		 pop	 esi
  000ac	c6 45 00 00	 mov	 BYTE PTR [ebp], 0
  000b0	f7 d8		 neg	 eax
  000b2	5d		 pop	 ebp

; 1491 : 		}

  000b3	c2 08 00	 ret	 8

; 1489 : 			_Eos(0);	// new size is zero, just null terminate

$L190485:
  000b6	83 c5 04	 add	 ebp, 4
  000b9	c6 45 00 00	 mov	 BYTE PTR [ebp], 0
$L190489:

; 1490 : 		return (0 < _Newsize);	// return true only if more work to do

  000bd	33 c0		 xor	 eax, eax
  000bf	3b c6		 cmp	 eax, esi
  000c1	1b c0		 sbb	 eax, eax
  000c3	5e		 pop	 esi
  000c4	f7 d8		 neg	 eax
  000c6	5d		 pop	 ebp

; 1491 : 		}

  000c7	c2 08 00	 ret	 8
?_Grow@?$basic_string@DU?$char_traits@D@std@@V?$allocator@D@2@@std@@IAE_NI_N@Z ENDP ; std::basic_string<char,std::char_traits<char>,std::allocator<char> >::_Grow
_TEXT	ENDS
PUBLIC	?GetTitle@CTitleManager@@QAEPADH@Z		; CTitleManager::GetTitle
; Function compile flags: /Ogty
; File c:\documents and settings\test\mes documents\source\virtuos_v17\build\program\_common\honor.cpp
;	COMDAT ?GetTitle@CTitleManager@@QAEPADH@Z
_TEXT	SEGMENT
$T190494 = -4						; size = 4
_nId$ = 8						; size = 4
?GetTitle@CTitleManager@@QAEPADH@Z PROC NEAR		; CTitleManager::GetTitle, COMDAT
; _this$ = ecx

; 265  : {

  00000	51		 push	 ecx

; 266  : 	map<int, HonorData>::iterator iter;
; 267  : 	if(nId == -1) return NULL; 

  00001	83 7c 24 08 ff	 cmp	 DWORD PTR _nId$[esp], -1
  00006	56		 push	 esi
  00007	8b f1		 mov	 esi, ecx
  00009	74 21		 je	 SHORT $L187535

; 268  : 	//int nGroup = GetIdxType(nId);
; 269  : 	iter = m_mapAll.find(nId);	//   

  0000b	8d 44 24 0c	 lea	 eax, DWORD PTR _nId$[esp+4]
  0000f	50		 push	 eax
  00010	8d 4c 24 08	 lea	 ecx, DWORD PTR $T190494[esp+12]
  00014	51		 push	 ecx
  00015	8d 4e 24	 lea	 ecx, DWORD PTR [esi+36]
  00018	e8 00 00 00 00	 call	 ?find@?$_Tree@V?$_Tmap_traits@HUHonorData@@U?$less@H@std@@V?$allocator@U?$pair@$$CBHUHonorData@@@std@@@3@$0A@@std@@@std@@QAE?AViterator@12@ABH@Z ; std::_Tree<std::_Tmap_traits<int,HonorData,std::less<int>,std::allocator<std::pair<int const ,HonorData> >,0> >::find
  0001d	8b 00		 mov	 eax, DWORD PTR [eax]

; 270  : 	if(iter != m_mapAll.end()) 

  0001f	3b 46 28	 cmp	 eax, DWORD PTR [esi+40]
  00022	74 08		 je	 SHORT $L187535

; 271  : 	{
; 272  : 		return (LPSTR)(LPCSTR)iter->second.strTitle;

  00024	8b 40 24	 mov	 eax, DWORD PTR [eax+36]
  00027	5e		 pop	 esi

; 311  : 
; 312  : }

  00028	59		 pop	 ecx
  00029	c2 04 00	 ret	 4
$L187535:

; 273  : 	}/*
; 274  : 	switch(nGroup)
; 275  : 	{
; 276  : 		
; 277  : 		case HI_HUNT_MONSTER:
; 278  : 			iter = m_mapMonster.find(nId); //   
; 279  : 			if(iter != m_mapMonster.end()) 
; 280  : 			{
; 281  : 				return (LPSTR)(LPCSTR)iter->second.strTitle;
; 282  : 			}
; 283  : 			else
; 284  : 				return NULL;
; 285  : 			break;
; 286  : 
; 287  : 		case HI_USE_ITEM:
; 288  : 			iter = m_mapItem.find(nId); //   
; 289  : 			if(iter != m_mapItem.end()) 
; 290  : 			{
; 291  : 				return (LPSTR)(LPCSTR)iter->second.strTitle;
; 292  : 			}
; 293  : 			else
; 294  : 				return NULL;
; 295  : 			break;
; 296  : 		
; 297  : 		default:
; 298  : 			for(iter = m_mapEtc.begin(); iter != m_mapEtc.end(); ++iter) //  11 ..   ..
; 299  : 			{
; 300  : 				if(iter != m_mapEtc.end()) 
; 301  : 				{
; 302  : 					return (LPSTR)(LPCSTR)iter->second.strTitle;
; 303  : 				}
; 304  : 				else
; 305  : 					return NULL;
; 306  : 			}
; 307  : 			break;
; 308  : 	};*/
; 309  : 
; 310  : 	return NULL;

  0002c	33 c0		 xor	 eax, eax
  0002e	5e		 pop	 esi

; 311  : 
; 312  : }

  0002f	59		 pop	 ecx
  00030	c2 04 00	 ret	 4
?GetTitle@CTitleManager@@QAEPADH@Z ENDP			; CTitleManager::GetTitle
_TEXT	ENDS
PUBLIC	?GetNeedCount@CTitleManager@@QAEHHH@Z		; CTitleManager::GetNeedCount
; Function compile flags: /Ogty
;	COMDAT ?GetNeedCount@CTitleManager@@QAEHHH@Z
_TEXT	SEGMENT
$T190560 = -12						; size = 4
$T190558 = -8						; size = 4
$T190562 = -4						; size = 4
_nId$ = 8						; size = 4
$T190564 = 12						; size = 4
_nGroup$ = 12						; size = 4
?GetNeedCount@CTitleManager@@QAEHHH@Z PROC NEAR		; CTitleManager::GetNeedCount, COMDAT
; _this$ = ecx

; 316  : 
; 317  : 	map<int, HonorData>::iterator iter;
; 318  : 
; 319  : 	switch(nGroup)

  00000	8b 44 24 08	 mov	 eax, DWORD PTR _nGroup$[esp-4]
  00004	83 ec 0c	 sub	 esp, 12			; 0000000cH
  00007	83 f8 ff	 cmp	 eax, -1
  0000a	56		 push	 esi
  0000b	8b f1		 mov	 esi, ecx
  0000d	74 4e		 je	 SHORT $L187563
  0000f	83 f8 04	 cmp	 eax, 4
  00012	74 33		 je	 SHORT $L187553
  00014	83 f8 05	 cmp	 eax, 5
  00017	74 17		 je	 SHORT $L187558

; 349  : 			break;
; 350  : 
; 351  : 		default:
; 352  : 			iter = m_mapEtc.find(nId);	//   

  00019	8d 44 24 14	 lea	 eax, DWORD PTR _nId$[esp+12]
  0001d	50		 push	 eax
  0001e	8d 4c 24 1c	 lea	 ecx, DWORD PTR $T190564[esp+16]
  00022	51		 push	 ecx
  00023	8d 4e 18	 lea	 ecx, DWORD PTR [esi+24]
  00026	e8 00 00 00 00	 call	 ?find@?$_Tree@V?$_Tmap_traits@HUHonorData@@U?$less@H@std@@V?$allocator@U?$pair@$$CBHUHonorData@@@std@@@3@$0A@@std@@@std@@QAE?AViterator@12@ABH@Z ; std::_Tree<std::_Tmap_traits<int,HonorData,std::less<int>,std::allocator<std::pair<int const ,HonorData> >,0> >::find

; 353  : 			if(iter != m_mapEtc.end()) 

  0002b	8b 4e 1c	 mov	 ecx, DWORD PTR [esi+28]

; 354  : 			{
; 355  : 				return iter->second.nNeed;
; 356  : 			}
; 357  : 			else
; 358  : 				return -1;

  0002e	eb 42		 jmp	 SHORT $L190768
$L187558:

; 329  : 			break;
; 330  : 
; 331  : 		case HI_USE_ITEM:
; 332  : 			iter = m_mapItem.find(nId);	//   

  00030	8d 54 24 14	 lea	 edx, DWORD PTR _nId$[esp+12]
  00034	52		 push	 edx
  00035	8d 44 24 08	 lea	 eax, DWORD PTR $T190560[esp+20]
  00039	50		 push	 eax
  0003a	8d 4e 0c	 lea	 ecx, DWORD PTR [esi+12]
  0003d	e8 00 00 00 00	 call	 ?find@?$_Tree@V?$_Tmap_traits@HUHonorData@@U?$less@H@std@@V?$allocator@U?$pair@$$CBHUHonorData@@@std@@@3@$0A@@std@@@std@@QAE?AViterator@12@ABH@Z ; std::_Tree<std::_Tmap_traits<int,HonorData,std::less<int>,std::allocator<std::pair<int const ,HonorData> >,0> >::find

; 333  : 			if(iter != m_mapItem.end()) 

  00042	8b 4e 10	 mov	 ecx, DWORD PTR [esi+16]

; 334  : 			{
; 335  : 				return iter->second.nNeed;
; 336  : 			}
; 337  : 			else
; 338  : 				return -1;

  00045	eb 2b		 jmp	 SHORT $L190768
$L187553:

; 320  : 	{
; 321  : 		case HI_HUNT_MONSTER:
; 322  : 			iter = m_mapMonster.find(nId); //   

  00047	8d 4c 24 14	 lea	 ecx, DWORD PTR _nId$[esp+12]
  0004b	51		 push	 ecx
  0004c	8d 54 24 0c	 lea	 edx, DWORD PTR $T190558[esp+20]
  00050	52		 push	 edx
  00051	8b ce		 mov	 ecx, esi
  00053	e8 00 00 00 00	 call	 ?find@?$_Tree@V?$_Tmap_traits@HUHonorData@@U?$less@H@std@@V?$allocator@U?$pair@$$CBHUHonorData@@@std@@@3@$0A@@std@@@std@@QAE?AViterator@12@ABH@Z ; std::_Tree<std::_Tmap_traits<int,HonorData,std::less<int>,std::allocator<std::pair<int const ,HonorData> >,0> >::find

; 323  : 			if(iter != m_mapMonster.end()) 

  00058	8b 4e 04	 mov	 ecx, DWORD PTR [esi+4]

; 324  : 			{
; 325  : 				return iter->second.nNeed;
; 326  : 			}
; 327  : 			else
; 328  : 				return -1;

  0005b	eb 15		 jmp	 SHORT $L190768
$L187563:

; 339  : 			break;
; 340  : 
; 341  : 		case -1:		//  
; 342  : 			iter = m_mapAll.find(nId);	//   

  0005d	8d 44 24 14	 lea	 eax, DWORD PTR _nId$[esp+12]
  00061	50		 push	 eax
  00062	8d 4c 24 10	 lea	 ecx, DWORD PTR $T190562[esp+20]
  00066	51		 push	 ecx
  00067	8d 4e 24	 lea	 ecx, DWORD PTR [esi+36]
  0006a	e8 00 00 00 00	 call	 ?find@?$_Tree@V?$_Tmap_traits@HUHonorData@@U?$less@H@std@@V?$allocator@U?$pair@$$CBHUHonorData@@@std@@@3@$0A@@std@@@std@@QAE?AViterator@12@ABH@Z ; std::_Tree<std::_Tmap_traits<int,HonorData,std::less<int>,std::allocator<std::pair<int const ,HonorData> >,0> >::find

; 343  : 			if(iter != m_mapAll.end()) 

  0006f	8b 4e 28	 mov	 ecx, DWORD PTR [esi+40]
$L190768:
  00072	8b 00		 mov	 eax, DWORD PTR [eax]
  00074	3b c1		 cmp	 eax, ecx
  00076	74 0a		 je	 SHORT $L187566

; 344  : 			{
; 345  : 				return iter->second.nNeed;

  00078	8b 40 1c	 mov	 eax, DWORD PTR [eax+28]
  0007b	5e		 pop	 esi

; 359  : 			break;
; 360  : 	};
; 361  : 	return -1;
; 362  : }

  0007c	83 c4 0c	 add	 esp, 12			; 0000000cH
  0007f	c2 08 00	 ret	 8
$L187566:

; 346  : 			}
; 347  : 			else
; 348  : 				return -1;

  00082	83 c8 ff	 or	 eax, -1
  00085	5e		 pop	 esi

; 359  : 			break;
; 360  : 	};
; 361  : 	return -1;
; 362  : }

  00086	83 c4 0c	 add	 esp, 12			; 0000000cH
  00089	c2 08 00	 ret	 8
?GetNeedCount@CTitleManager@@QAEHHH@Z ENDP		; CTitleManager::GetNeedCount
_TEXT	ENDS
PUBLIC	?GetHonorDataByID@CTitleManager@@QAEPAUHonorData@@HH@Z ; CTitleManager::GetHonorDataByID
; Function compile flags: /Ogty
;	COMDAT ?GetHonorDataByID@CTitleManager@@QAEPAUHonorData@@HH@Z
_TEXT	SEGMENT
$T190773 = -8						; size = 4
$T190771 = -4						; size = 4
_nId$ = 8						; size = 4
$T190775 = 12						; size = 4
_nGroup$ = 12						; size = 4
?GetHonorDataByID@CTitleManager@@QAEPAUHonorData@@HH@Z PROC NEAR ; CTitleManager::GetHonorDataByID, COMDAT
; _this$ = ecx

; 366  : 	map<int, HonorData>::iterator iter;
; 367  : 
; 368  : 	switch(nGroup)

  00000	8b 44 24 08	 mov	 eax, DWORD PTR _nGroup$[esp-4]
  00004	83 ec 08	 sub	 esp, 8
  00007	83 e8 04	 sub	 eax, 4
  0000a	56		 push	 esi
  0000b	8b f1		 mov	 esi, ecx
  0000d	74 31		 je	 SHORT $L187588
  0000f	48		 dec	 eax
  00010	74 17		 je	 SHORT $L187593

; 388  : 			break;
; 389  : 
; 390  : 		default:
; 391  : 			iter = m_mapEtc.find(nId);	//   

  00012	8d 44 24 10	 lea	 eax, DWORD PTR _nId$[esp+8]
  00016	50		 push	 eax
  00017	8d 4c 24 18	 lea	 ecx, DWORD PTR $T190775[esp+12]
  0001b	51		 push	 ecx
  0001c	8d 4e 18	 lea	 ecx, DWORD PTR [esi+24]
  0001f	e8 00 00 00 00	 call	 ?find@?$_Tree@V?$_Tmap_traits@HUHonorData@@U?$less@H@std@@V?$allocator@U?$pair@$$CBHUHonorData@@@std@@@3@$0A@@std@@@std@@QAE?AViterator@12@ABH@Z ; std::_Tree<std::_Tmap_traits<int,HonorData,std::less<int>,std::allocator<std::pair<int const ,HonorData> >,0> >::find

; 392  : 			if(iter != m_mapEtc.end()) 

  00024	8b 4e 1c	 mov	 ecx, DWORD PTR [esi+28]

; 393  : 			{
; 394  : 				return &iter->second;
; 395  : 			}
; 396  : 			else
; 397  : 				return NULL;

  00027	eb 2b		 jmp	 SHORT $L190931
$L187593:

; 378  : 			break;
; 379  : 
; 380  : 		case HI_USE_ITEM:
; 381  : 			iter = m_mapItem.find(nId);	//   

  00029	8d 54 24 10	 lea	 edx, DWORD PTR _nId$[esp+8]
  0002d	52		 push	 edx
  0002e	8d 44 24 08	 lea	 eax, DWORD PTR $T190773[esp+16]
  00032	50		 push	 eax
  00033	8d 4e 0c	 lea	 ecx, DWORD PTR [esi+12]
  00036	e8 00 00 00 00	 call	 ?find@?$_Tree@V?$_Tmap_traits@HUHonorData@@U?$less@H@std@@V?$allocator@U?$pair@$$CBHUHonorData@@@std@@@3@$0A@@std@@@std@@QAE?AViterator@12@ABH@Z ; std::_Tree<std::_Tmap_traits<int,HonorData,std::less<int>,std::allocator<std::pair<int const ,HonorData> >,0> >::find

; 382  : 			if(iter != m_mapItem.end()) 

  0003b	8b 4e 10	 mov	 ecx, DWORD PTR [esi+16]

; 383  : 			{
; 384  : 				return &iter->second;
; 385  : 			}
; 386  : 			else
; 387  : 				return NULL;

  0003e	eb 14		 jmp	 SHORT $L190931
$L187588:

; 369  : 	{
; 370  : 		case HI_HUNT_MONSTER:
; 371  : 			iter = m_mapMonster.find(nId); //   

  00040	8d 4c 24 10	 lea	 ecx, DWORD PTR _nId$[esp+8]
  00044	51		 push	 ecx
  00045	8d 54 24 0c	 lea	 edx, DWORD PTR $T190771[esp+16]
  00049	52		 push	 edx
  0004a	8b ce		 mov	 ecx, esi
  0004c	e8 00 00 00 00	 call	 ?find@?$_Tree@V?$_Tmap_traits@HUHonorData@@U?$less@H@std@@V?$allocator@U?$pair@$$CBHUHonorData@@@std@@@3@$0A@@std@@@std@@QAE?AViterator@12@ABH@Z ; std::_Tree<std::_Tmap_traits<int,HonorData,std::less<int>,std::allocator<std::pair<int const ,HonorData> >,0> >::find

; 372  : 			if(iter != m_mapMonster.end()) 

  00051	8b 4e 04	 mov	 ecx, DWORD PTR [esi+4]
$L190931:
  00054	8b 00		 mov	 eax, DWORD PTR [eax]
  00056	3b c1		 cmp	 eax, ecx
  00058	74 0a		 je	 SHORT $L187591

; 373  : 			{
; 374  : 				return &iter->second;

  0005a	83 c0 10	 add	 eax, 16			; 00000010H
  0005d	5e		 pop	 esi

; 398  : 			break;
; 399  : 	};
; 400  : 	return NULL;
; 401  : }

  0005e	83 c4 08	 add	 esp, 8
  00061	c2 08 00	 ret	 8
$L187591:

; 375  : 			}
; 376  : 			else
; 377  : 				return NULL;

  00064	33 c0		 xor	 eax, eax
  00066	5e		 pop	 esi

; 398  : 			break;
; 399  : 	};
; 400  : 	return NULL;
; 401  : }

  00067	83 c4 08	 add	 esp, 8
  0006a	c2 08 00	 ret	 8
?GetHonorDataByID@CTitleManager@@QAEPAUHonorData@@HH@Z ENDP ; CTitleManager::GetHonorDataByID
_TEXT	ENDS
PUBLIC	?GetIdx@CTitleManager@@QAEHHH@Z			; CTitleManager::GetIdx
; Function compile flags: /Ogty
;	COMDAT ?GetIdx@CTitleManager@@QAEHHH@Z
_TEXT	SEGMENT
$T190936 = -8						; size = 4
$T190934 = -4						; size = 4
_nId$ = 8						; size = 4
$T190938 = 12						; size = 4
_nGroup$ = 12						; size = 4
?GetIdx@CTitleManager@@QAEHHH@Z PROC NEAR		; CTitleManager::GetIdx, COMDAT
; _this$ = ecx

; 404  : 
; 405  : 	map<int, HonorData>::iterator iter;
; 406  : 
; 407  : 	switch(nGroup)

  00000	8b 44 24 08	 mov	 eax, DWORD PTR _nGroup$[esp-4]
  00004	83 ec 08	 sub	 esp, 8
  00007	83 e8 04	 sub	 eax, 4
  0000a	56		 push	 esi
  0000b	8b f1		 mov	 esi, ecx
  0000d	74 31		 je	 SHORT $L187618
  0000f	48		 dec	 eax
  00010	74 17		 je	 SHORT $L187623

; 427  : 			break;
; 428  : 
; 429  : 		default:
; 430  : 			iter = m_mapEtc.find(nId);	//   

  00012	8d 44 24 10	 lea	 eax, DWORD PTR _nId$[esp+8]
  00016	50		 push	 eax
  00017	8d 4c 24 18	 lea	 ecx, DWORD PTR $T190938[esp+12]
  0001b	51		 push	 ecx
  0001c	8d 4e 18	 lea	 ecx, DWORD PTR [esi+24]
  0001f	e8 00 00 00 00	 call	 ?find@?$_Tree@V?$_Tmap_traits@HUHonorData@@U?$less@H@std@@V?$allocator@U?$pair@$$CBHUHonorData@@@std@@@3@$0A@@std@@@std@@QAE?AViterator@12@ABH@Z ; std::_Tree<std::_Tmap_traits<int,HonorData,std::less<int>,std::allocator<std::pair<int const ,HonorData> >,0> >::find

; 431  : 			if(iter != m_mapEtc.end()) 

  00024	8b 4e 1c	 mov	 ecx, DWORD PTR [esi+28]

; 432  : 			{
; 433  : 				return iter->second.nID;
; 434  : 			}
; 435  : 			else
; 436  : 				return -1;

  00027	eb 2b		 jmp	 SHORT $L191094
$L187623:

; 417  : 			break;
; 418  : 
; 419  : 		case HI_USE_ITEM:
; 420  : 			iter = m_mapItem.find(nId);	//   

  00029	8d 54 24 10	 lea	 edx, DWORD PTR _nId$[esp+8]
  0002d	52		 push	 edx
  0002e	8d 44 24 08	 lea	 eax, DWORD PTR $T190936[esp+16]
  00032	50		 push	 eax
  00033	8d 4e 0c	 lea	 ecx, DWORD PTR [esi+12]
  00036	e8 00 00 00 00	 call	 ?find@?$_Tree@V?$_Tmap_traits@HUHonorData@@U?$less@H@std@@V?$allocator@U?$pair@$$CBHUHonorData@@@std@@@3@$0A@@std@@@std@@QAE?AViterator@12@ABH@Z ; std::_Tree<std::_Tmap_traits<int,HonorData,std::less<int>,std::allocator<std::pair<int const ,HonorData> >,0> >::find

; 421  : 			if(iter != m_mapItem.end()) 

  0003b	8b 4e 10	 mov	 ecx, DWORD PTR [esi+16]

; 422  : 			{
; 423  : 				return iter->second.nID;
; 424  : 			}
; 425  : 			else
; 426  : 				return -1;

  0003e	eb 14		 jmp	 SHORT $L191094
$L187618:

; 408  : 	{
; 409  : 		case HI_HUNT_MONSTER:
; 410  : 			iter = m_mapMonster.find(nId); //   

  00040	8d 4c 24 10	 lea	 ecx, DWORD PTR _nId$[esp+8]
  00044	51		 push	 ecx
  00045	8d 54 24 0c	 lea	 edx, DWORD PTR $T190934[esp+16]
  00049	52		 push	 edx
  0004a	8b ce		 mov	 ecx, esi
  0004c	e8 00 00 00 00	 call	 ?find@?$_Tree@V?$_Tmap_traits@HUHonorData@@U?$less@H@std@@V?$allocator@U?$pair@$$CBHUHonorData@@@std@@@3@$0A@@std@@@std@@QAE?AViterator@12@ABH@Z ; std::_Tree<std::_Tmap_traits<int,HonorData,std::less<int>,std::allocator<std::pair<int const ,HonorData> >,0> >::find

; 411  : 			if(iter != m_mapMonster.end()) 

  00051	8b 4e 04	 mov	 ecx, DWORD PTR [esi+4]
$L191094:
  00054	8b 00		 mov	 eax, DWORD PTR [eax]
  00056	3b c1		 cmp	 eax, ecx
  00058	74 0a		 je	 SHORT $L187621

; 412  : 			{
; 413  : 				return iter->second.nID;

  0005a	8b 40 10	 mov	 eax, DWORD PTR [eax+16]
  0005d	5e		 pop	 esi

; 437  : 			break;
; 438  : 	};
; 439  : 	return -1;
; 440  : }

  0005e	83 c4 08	 add	 esp, 8
  00061	c2 08 00	 ret	 8
$L187621:

; 414  : 			}
; 415  : 			else
; 416  : 				return -1;

  00064	83 c8 ff	 or	 eax, -1
  00067	5e		 pop	 esi

; 437  : 			break;
; 438  : 	};
; 439  : 	return -1;
; 440  : }

  00068	83 c4 08	 add	 esp, 8
  0006b	c2 08 00	 ret	 8
?GetIdx@CTitleManager@@QAEHHH@Z ENDP			; CTitleManager::GetIdx
_TEXT	ENDS
PUBLIC	?GetIdxType@CTitleManager@@QAEHH@Z		; CTitleManager::GetIdxType
; Function compile flags: /Ogty
;	COMDAT ?GetIdxType@CTitleManager@@QAEHH@Z
_TEXT	SEGMENT
$T191097 = -4						; size = 4
_nId$ = 8						; size = 4
?GetIdxType@CTitleManager@@QAEHH@Z PROC NEAR		; CTitleManager::GetIdxType, COMDAT
; _this$ = ecx

; 444  : {

  00000	51		 push	 ecx
  00001	56		 push	 esi
  00002	8b f1		 mov	 esi, ecx

; 445  : 	map<int, HonorData>::iterator iter;
; 446  : 
; 447  : 	iter = m_mapAll.find(nId); //   

  00004	8d 44 24 0c	 lea	 eax, DWORD PTR _nId$[esp+4]
  00008	50		 push	 eax
  00009	8d 4c 24 08	 lea	 ecx, DWORD PTR $T191097[esp+12]
  0000d	51		 push	 ecx
  0000e	8d 4e 24	 lea	 ecx, DWORD PTR [esi+36]
  00011	e8 00 00 00 00	 call	 ?find@?$_Tree@V?$_Tmap_traits@HUHonorData@@U?$less@H@std@@V?$allocator@U?$pair@$$CBHUHonorData@@@std@@@3@$0A@@std@@@std@@QAE?AViterator@12@ABH@Z ; std::_Tree<std::_Tmap_traits<int,HonorData,std::less<int>,std::allocator<std::pair<int const ,HonorData> >,0> >::find

; 448  : 
; 449  : 	if(iter != m_mapAll.end()) 

  00016	8b 4e 28	 mov	 ecx, DWORD PTR [esi+40]
  00019	8b 00		 mov	 eax, DWORD PTR [eax]
  0001b	3b c1		 cmp	 eax, ecx
  0001d	5e		 pop	 esi
  0001e	74 07		 je	 SHORT $L187645

; 450  : 	{
; 451  : 		return iter->second.nLGrouping;

  00020	8b 40 14	 mov	 eax, DWORD PTR [eax+20]

; 455  : }

  00023	59		 pop	 ecx
  00024	c2 04 00	 ret	 4
$L187645:

; 452  : 	}
; 453  : 	
; 454  : 	return -1;

  00027	83 c8 ff	 or	 eax, -1

; 455  : }

  0002a	59		 pop	 ecx
  0002b	c2 04 00	 ret	 4
?GetIdxType@CTitleManager@@QAEHH@Z ENDP			; CTitleManager::GetIdxType
_TEXT	ENDS
PUBLIC	??0HonorData@@QAE@ABU0@@Z			; HonorData::HonorData
; Function compile flags: /Ogty
;	COMDAT ??0HonorData@@QAE@ABU0@@Z
_TEXT	SEGMENT
___that$ = 8						; size = 4
??0HonorData@@QAE@ABU0@@Z PROC NEAR			; HonorData::HonorData, COMDAT
; _this$ = ecx
  00000	8b 44 24 04	 mov	 eax, DWORD PTR ___that$[esp-4]
  00004	56		 push	 esi
  00005	8b f1		 mov	 esi, ecx
  00007	8b 08		 mov	 ecx, DWORD PTR [eax]
  00009	89 0e		 mov	 DWORD PTR [esi], ecx
  0000b	8b 50 04	 mov	 edx, DWORD PTR [eax+4]
  0000e	89 56 04	 mov	 DWORD PTR [esi+4], edx
  00011	8b 48 08	 mov	 ecx, DWORD PTR [eax+8]
  00014	89 4e 08	 mov	 DWORD PTR [esi+8], ecx
  00017	8b 50 0c	 mov	 edx, DWORD PTR [eax+12]
  0001a	89 56 0c	 mov	 DWORD PTR [esi+12], edx
  0001d	8b 48 10	 mov	 ecx, DWORD PTR [eax+16]
  00020	89 4e 10	 mov	 DWORD PTR [esi+16], ecx
  00023	8b 40 14	 mov	 eax, DWORD PTR [eax+20]
  00026	83 e8 10	 sub	 eax, 16			; 00000010H
  00029	50		 push	 eax
  0002a	e8 00 00 00 00	 call	 ?CloneData@?$CSimpleStringT@D$0A@@ATL@@CAPAUCStringData@2@PAU32@@Z ; ATL::CSimpleStringT<char,0>::CloneData
  0002f	83 c0 10	 add	 eax, 16			; 00000010H
  00032	89 46 14	 mov	 DWORD PTR [esi+20], eax
  00035	83 c4 04	 add	 esp, 4
  00038	8b c6		 mov	 eax, esi
  0003a	5e		 pop	 esi
  0003b	c2 04 00	 ret	 4
??0HonorData@@QAE@ABU0@@Z ENDP				; HonorData::HonorData
_TEXT	ENDS
PUBLIC	?GetIdxByGroup@CTitleManager@@QAEHHH@Z		; CTitleManager::GetIdxByGroup
;	COMDAT xdata$x
; File c:\program files\microsoft visual studio .net 2003\vc7\atlmfc\include\atlsimpstr.h
xdata$x	SEGMENT
$T191527 DD	0ffffffffH
	DD	FLAT:$L191200
$T191521 DD	019930520H
	DD	01H
	DD	FLAT:$T191527
	DD	2 DUP(00H)
	DD	2 DUP(00H)
; Function compile flags: /Ogty
; File c:\documents and settings\test\mes documents\source\virtuos_v17\build\program\_common\honor.cpp
xdata$x	ENDS
;	COMDAT ?GetIdxByGroup@CTitleManager@@QAEHHH@Z
_TEXT	SEGMENT
_iter$ = -44						; size = 4
_this$ = -40						; size = 4
_TempData$187683 = -36					; size = 24
__$EHRec$ = -12						; size = 12
_nLarge$ = 8						; size = 4
_nSmall$ = 12						; size = 4
?GetIdxByGroup@CTitleManager@@QAEHHH@Z PROC NEAR	; CTitleManager::GetIdxByGroup, COMDAT
; _this$ = ecx

; 472  : {

  00000	6a ff		 push	 -1
  00002	68 00 00 00 00	 push	 __ehhandler$?GetIdxByGroup@CTitleManager@@QAEHHH@Z
  00007	64 a1 00 00 00
	00		 mov	 eax, DWORD PTR fs:__except_list
  0000d	50		 push	 eax
  0000e	64 89 25 00 00
	00 00		 mov	 DWORD PTR fs:__except_list, esp
  00015	83 ec 20	 sub	 esp, 32			; 00000020H
  00018	53		 push	 ebx
  00019	55		 push	 ebp
  0001a	56		 push	 esi
  0001b	57		 push	 edi
  0001c	8b f9		 mov	 edi, ecx

; 473  : 	map<int, HonorData>::iterator iter;
; 474  : 
; 475  : 	for( iter = m_mapEtc.begin(); iter != m_mapEtc.end(); ++iter )

  0001e	8b 4f 1c	 mov	 ecx, DWORD PTR [edi+28]
  00021	8b 01		 mov	 eax, DWORD PTR [ecx]
  00023	3b c1		 cmp	 eax, ecx
  00025	89 7c 24 14	 mov	 DWORD PTR _this$[esp+60], edi
  00029	89 44 24 10	 mov	 DWORD PTR _iter$[esp+60], eax
  0002d	0f 84 a9 00 00
	00		 je	 $L187682
$L191242:

; 476  : 	{
; 477  : 		HonorData	TempData = iter->second;

  00033	8b 48 10	 mov	 ecx, DWORD PTR [eax+16]
  00036	8b 70 24	 mov	 esi, DWORD PTR [eax+36]
  00039	8b 58 14	 mov	 ebx, DWORD PTR [eax+20]
  0003c	8b 68 18	 mov	 ebp, DWORD PTR [eax+24]
  0003f	89 4c 24 18	 mov	 DWORD PTR _TempData$187683[esp+60], ecx
  00043	8b 4e f0	 mov	 ecx, DWORD PTR [esi-16]
  00046	8b 11		 mov	 edx, DWORD PTR [ecx]
  00048	83 ee 10	 sub	 esi, 16			; 00000010H
  0004b	ff 52 10	 call	 DWORD PTR [edx+16]
  0004e	8b 4e 0c	 mov	 ecx, DWORD PTR [esi+12]
  00051	85 c9		 test	 ecx, ecx
  00053	8d 56 0c	 lea	 edx, DWORD PTR [esi+12]
  00056	7c 11		 jl	 SHORT $L191415
  00058	3b 06		 cmp	 eax, DWORD PTR [esi]
  0005a	75 0d		 jne	 SHORT $L191415
  0005c	8b c6		 mov	 eax, esi
  0005e	b9 01 00 00 00	 mov	 ecx, 1
  00063	f0 0f c1 0a	 lock	  xadd	 DWORD PTR [edx], ecx
  00067	eb 32		 jmp	 SHORT $L191427
$L191415:
  00069	8b 4e 04	 mov	 ecx, DWORD PTR [esi+4]
  0006c	8b 10		 mov	 edx, DWORD PTR [eax]
  0006e	6a 01		 push	 1
  00070	51		 push	 ecx
  00071	8b c8		 mov	 ecx, eax
  00073	ff 12		 call	 DWORD PTR [edx]
  00075	85 c0		 test	 eax, eax
  00077	74 7b		 je	 SHORT $L191523
  00079	8b 56 04	 mov	 edx, DWORD PTR [esi+4]
  0007c	89 50 04	 mov	 DWORD PTR [eax+4], edx
  0007f	8b 4e 04	 mov	 ecx, DWORD PTR [esi+4]
  00082	41		 inc	 ecx
  00083	8b d1		 mov	 edx, ecx
  00085	c1 e9 02	 shr	 ecx, 2
  00088	83 c6 10	 add	 esi, 16			; 00000010H
  0008b	8d 78 10	 lea	 edi, DWORD PTR [eax+16]
  0008e	f3 a5		 rep movsd
  00090	8b ca		 mov	 ecx, edx
  00092	83 e1 03	 and	 ecx, 3
  00095	f3 a4		 rep movsb
  00097	8b 7c 24 14	 mov	 edi, DWORD PTR _this$[esp+60]
$L191427:

; 478  : 		if( TempData.nLGrouping == nLarge && TempData.nSGrouping == nSmall  )

  0009b	3b 5c 24 40	 cmp	 ebx, DWORD PTR _nLarge$[esp+56]
  0009f	75 06		 jne	 SHORT $L187684
  000a1	3b 6c 24 44	 cmp	 ebp, DWORD PTR _nSmall$[esp+56]
  000a5	74 52		 je	 SHORT $L191524
$L187684:

; 480  : 	}

  000a7	c7 44 24 38 ff
	ff ff ff	 mov	 DWORD PTR __$EHRec$[esp+68], -1
  000af	8d 48 0c	 lea	 ecx, DWORD PTR [eax+12]
  000b2	83 ca ff	 or	 edx, -1
  000b5	f0 0f c1 11	 lock	  xadd	 DWORD PTR [ecx], edx
  000b9	4a		 dec	 edx
  000ba	85 d2		 test	 edx, edx
  000bc	7f 08		 jg	 SHORT $L187681
  000be	8b 08		 mov	 ecx, DWORD PTR [eax]
  000c0	8b 11		 mov	 edx, DWORD PTR [ecx]
  000c2	50		 push	 eax
  000c3	ff 52 04	 call	 DWORD PTR [edx+4]
$L187681:
  000c6	8d 4c 24 10	 lea	 ecx, DWORD PTR _iter$[esp+60]
  000ca	e8 00 00 00 00	 call	 ?_Inc@const_iterator@?$_Tree@V?$_Tmap_traits@HUHonorData@@U?$less@H@std@@V?$allocator@U?$pair@$$CBHUHonorData@@@std@@@3@$0A@@std@@@std@@QAEXXZ ; std::_Tree<std::_Tmap_traits<int,HonorData,std::less<int>,std::allocator<std::pair<int const ,HonorData> >,0> >::const_iterator::_Inc
  000cf	8b 44 24 10	 mov	 eax, DWORD PTR _iter$[esp+60]
  000d3	3b 47 1c	 cmp	 eax, DWORD PTR [edi+28]
  000d6	0f 85 57 ff ff
	ff		 jne	 $L191242
$L187682:
  000dc	5f		 pop	 edi
  000dd	5e		 pop	 esi
  000de	5d		 pop	 ebp

; 481  : 	return -1;

  000df	83 c8 ff	 or	 eax, -1
  000e2	5b		 pop	 ebx

; 482  : }	

  000e3	8b 4c 24 20	 mov	 ecx, DWORD PTR __$EHRec$[esp+44]
  000e7	64 89 0d 00 00
	00 00		 mov	 DWORD PTR fs:__except_list, ecx
  000ee	83 c4 2c	 add	 esp, 44			; 0000002cH
  000f1	c2 08 00	 ret	 8
$L191523:

; 476  : 	{
; 477  : 		HonorData	TempData = iter->second;

  000f4	e8 00 00 00 00	 call	 ?ThrowMemoryException@?$CSimpleStringT@D$0A@@ATL@@KAXXZ ; ATL::CSimpleStringT<char,0>::ThrowMemoryException
$L191524:

; 479  : 			return TempData.nID;

  000f9	c7 44 24 38 ff
	ff ff ff	 mov	 DWORD PTR __$EHRec$[esp+68], -1
  00101	8d 48 0c	 lea	 ecx, DWORD PTR [eax+12]
  00104	83 ca ff	 or	 edx, -1
  00107	f0 0f c1 11	 lock	  xadd	 DWORD PTR [ecx], edx
  0010b	4a		 dec	 edx
  0010c	85 d2		 test	 edx, edx
  0010e	7f 08		 jg	 SHORT $L191477
  00110	8b 08		 mov	 ecx, DWORD PTR [eax]
  00112	8b 11		 mov	 edx, DWORD PTR [ecx]
  00114	50		 push	 eax
  00115	ff 52 04	 call	 DWORD PTR [edx+4]
$L191477:

; 482  : }	

  00118	8b 4c 24 30	 mov	 ecx, DWORD PTR __$EHRec$[esp+60]
  0011c	8b 44 24 18	 mov	 eax, DWORD PTR _TempData$187683[esp+60]
  00120	5f		 pop	 edi
  00121	5e		 pop	 esi
  00122	5d		 pop	 ebp
  00123	5b		 pop	 ebx
  00124	64 89 0d 00 00
	00 00		 mov	 DWORD PTR fs:__except_list, ecx
  0012b	83 c4 2c	 add	 esp, 44			; 0000002cH
  0012e	c2 08 00	 ret	 8
$L191526:
_TEXT	ENDS
;	COMDAT text$x
text$x	SEGMENT
$L191200:
  00000	8d 4d dc	 lea	 ecx, DWORD PTR _TempData$187683[ebp]
  00003	e9 00 00 00 00	 jmp	 ??1HonorData@@QAE@XZ	; HonorData::~HonorData
__ehhandler$?GetIdxByGroup@CTitleManager@@QAEHHH@Z:
  00008	b8 00 00 00 00	 mov	 eax, OFFSET FLAT:$T191521
  0000d	e9 00 00 00 00	 jmp	 ___CxxFrameHandler
text$x	ENDS
?GetIdxByGroup@CTitleManager@@QAEHHH@Z ENDP		; CTitleManager::GetIdxByGroup
PUBLIC	??0?$pair@$$CBHUHonorData@@@std@@QAE@ABHABUHonorData@@@Z ; std::pair<int const ,HonorData>::pair<int const ,HonorData>
; Function compile flags: /Ogty
; File c:\program files\microsoft visual studio .net 2003\vc7\include\utility
;	COMDAT ??0?$pair@$$CBHUHonorData@@@std@@QAE@ABHABUHonorData@@@Z
_TEXT	SEGMENT
__Val1$ = 8						; size = 4
__Val2$ = 12						; size = 4
??0?$pair@$$CBHUHonorData@@@std@@QAE@ABHABUHonorData@@@Z PROC NEAR ; std::pair<int const ,HonorData>::pair<int const ,HonorData>, COMDAT
; _this$ = ecx

; 34   : 		{	// construct from specified values

  00000	8b 44 24 04	 mov	 eax, DWORD PTR __Val1$[esp-4]
  00004	56		 push	 esi
  00005	8b f1		 mov	 esi, ecx
  00007	8b 08		 mov	 ecx, DWORD PTR [eax]
  00009	8b 44 24 0c	 mov	 eax, DWORD PTR __Val2$[esp]
  0000d	89 0e		 mov	 DWORD PTR [esi], ecx
  0000f	8b 10		 mov	 edx, DWORD PTR [eax]
  00011	89 56 04	 mov	 DWORD PTR [esi+4], edx
  00014	8b 48 04	 mov	 ecx, DWORD PTR [eax+4]
  00017	89 4e 08	 mov	 DWORD PTR [esi+8], ecx
  0001a	8b 50 08	 mov	 edx, DWORD PTR [eax+8]
  0001d	89 56 0c	 mov	 DWORD PTR [esi+12], edx
  00020	8b 48 0c	 mov	 ecx, DWORD PTR [eax+12]
  00023	89 4e 10	 mov	 DWORD PTR [esi+16], ecx
  00026	8b 50 10	 mov	 edx, DWORD PTR [eax+16]
  00029	89 56 14	 mov	 DWORD PTR [esi+20], edx
  0002c	8b 40 14	 mov	 eax, DWORD PTR [eax+20]
  0002f	83 e8 10	 sub	 eax, 16			; 00000010H
  00032	50		 push	 eax
  00033	e8 00 00 00 00	 call	 ?CloneData@?$CSimpleStringT@D$0A@@ATL@@CAPAUCStringData@2@PAU32@@Z ; ATL::CSimpleStringT<char,0>::CloneData
  00038	83 c0 10	 add	 eax, 16			; 00000010H
  0003b	89 46 18	 mov	 DWORD PTR [esi+24], eax
  0003e	83 c4 04	 add	 esp, 4

; 35   : 		}

  00041	8b c6		 mov	 eax, esi
  00043	5e		 pop	 esi
  00044	c2 08 00	 ret	 8
??0?$pair@$$CBHUHonorData@@@std@@QAE@ABHABUHonorData@@@Z ENDP ; std::pair<int const ,HonorData>::pair<int const ,HonorData>
_TEXT	ENDS
PUBLIC	??0?$_Tree@V?$_Tmap_traits@HUHonorData@@U?$less@H@std@@V?$allocator@U?$pair@$$CBHUHonorData@@@std@@@3@$0A@@std@@@std@@QAE@ABU?$less@H@1@ABV?$allocator@U?$pair@$$CBHUHonorData@@@std@@@1@@Z ; std::_Tree<std::_Tmap_traits<int,HonorData,std::less<int>,std::allocator<std::pair<int const ,HonorData> >,0> >::_Tree<std::_Tmap_traits<int,HonorData,std::less<int>,std::allocator<std::pair<int const ,HonorData> >,0> >
; Function compile flags: /Ogty
; File c:\program files\microsoft visual studio .net 2003\vc7\include\xtree
;	COMDAT ??0?$_Tree@V?$_Tmap_traits@HUHonorData@@U?$less@H@std@@V?$allocator@U?$pair@$$CBHUHonorData@@@std@@@3@$0A@@std@@@std@@QAE@ABU?$less@H@1@ABV?$allocator@U?$pair@$$CBHUHonorData@@@std@@@1@@Z
_TEXT	SEGMENT
__Parg$ = 8						; size = 4
__Al$ = 12						; size = 4
??0?$_Tree@V?$_Tmap_traits@HUHonorData@@U?$less@H@std@@V?$allocator@U?$pair@$$CBHUHonorData@@@std@@@3@$0A@@std@@@std@@QAE@ABU?$less@H@1@ABV?$allocator@U?$pair@$$CBHUHonorData@@@std@@@1@@Z PROC NEAR ; std::_Tree<std::_Tmap_traits<int,HonorData,std::less<int>,std::allocator<std::pair<int const ,HonorData> >,0> >::_Tree<std::_Tmap_traits<int,HonorData,std::less<int>,std::allocator<std::pair<int const ,HonorData> >,0> >, COMDAT
; _this$ = ecx

; 361  : 		{	// construct empty tree

  00000	56		 push	 esi
  00001	8b f1		 mov	 esi, ecx

; 362  : 		_Init();

  00003	e8 00 00 00 00	 call	 ?_Buynode@?$_Tree@V?$_Tmap_traits@HUHonorData@@U?$less@H@std@@V?$allocator@U?$pair@$$CBHUHonorData@@@std@@@3@$0A@@std@@@std@@IAEPAU_Node@?$_Tree_nod@V?$_Tmap_traits@HUHonorData@@U?$less@H@std@@V?$allocator@U?$pair@$$CBHUHonorData@@@std@@@3@$0A@@std@@@2@XZ ; std::_Tree<std::_Tmap_traits<int,HonorData,std::less<int>,std::allocator<std::pair<int const ,HonorData> >,0> >::_Buynode
  00008	89 46 04	 mov	 DWORD PTR [esi+4], eax
  0000b	c6 40 29 01	 mov	 BYTE PTR [eax+41], 1
  0000f	8b 46 04	 mov	 eax, DWORD PTR [esi+4]
  00012	89 40 04	 mov	 DWORD PTR [eax+4], eax
  00015	8b 46 04	 mov	 eax, DWORD PTR [esi+4]
  00018	89 00		 mov	 DWORD PTR [eax], eax
  0001a	8b 46 04	 mov	 eax, DWORD PTR [esi+4]
  0001d	89 40 08	 mov	 DWORD PTR [eax+8], eax
  00020	c7 46 08 00 00
	00 00		 mov	 DWORD PTR [esi+8], 0

; 363  : 		}

  00027	8b c6		 mov	 eax, esi
  00029	5e		 pop	 esi
  0002a	c2 08 00	 ret	 8
??0?$_Tree@V?$_Tmap_traits@HUHonorData@@U?$less@H@std@@V?$allocator@U?$pair@$$CBHUHonorData@@@std@@@3@$0A@@std@@@std@@QAE@ABU?$less@H@1@ABV?$allocator@U?$pair@$$CBHUHonorData@@@std@@@1@@Z ENDP ; std::_Tree<std::_Tmap_traits<int,HonorData,std::less<int>,std::allocator<std::pair<int const ,HonorData> >,0> >::_Tree<std::_Tmap_traits<int,HonorData,std::less<int>,std::allocator<std::pair<int const ,HonorData> >,0> >
_TEXT	ENDS
PUBLIC	??0?$pair@$$CBHUHonorData@@@std@@QAE@ABU01@@Z	; std::pair<int const ,HonorData>::pair<int const ,HonorData>
; Function compile flags: /Ogty
;	COMDAT ??0?$pair@$$CBHUHonorData@@@std@@QAE@ABU01@@Z
_TEXT	SEGMENT
___that$ = 8						; size = 4
??0?$pair@$$CBHUHonorData@@@std@@QAE@ABU01@@Z PROC NEAR	; std::pair<int const ,HonorData>::pair<int const ,HonorData>, COMDAT
; _this$ = ecx
  00000	8b 44 24 04	 mov	 eax, DWORD PTR ___that$[esp-4]
  00004	56		 push	 esi
  00005	8b f1		 mov	 esi, ecx
  00007	8b 08		 mov	 ecx, DWORD PTR [eax]
  00009	89 0e		 mov	 DWORD PTR [esi], ecx
  0000b	8b 50 04	 mov	 edx, DWORD PTR [eax+4]
  0000e	89 56 04	 mov	 DWORD PTR [esi+4], edx
  00011	8b 48 08	 mov	 ecx, DWORD PTR [eax+8]
  00014	89 4e 08	 mov	 DWORD PTR [esi+8], ecx
  00017	8b 50 0c	 mov	 edx, DWORD PTR [eax+12]
  0001a	89 56 0c	 mov	 DWORD PTR [esi+12], edx
  0001d	8b 48 10	 mov	 ecx, DWORD PTR [eax+16]
  00020	89 4e 10	 mov	 DWORD PTR [esi+16], ecx
  00023	8b 50 14	 mov	 edx, DWORD PTR [eax+20]
  00026	89 56 14	 mov	 DWORD PTR [esi+20], edx
  00029	8b 40 18	 mov	 eax, DWORD PTR [eax+24]
  0002c	83 e8 10	 sub	 eax, 16			; 00000010H
  0002f	50		 push	 eax
  00030	e8 00 00 00 00	 call	 ?CloneData@?$CSimpleStringT@D$0A@@ATL@@CAPAUCStringData@2@PAU32@@Z ; ATL::CSimpleStringT<char,0>::CloneData
  00035	83 c0 10	 add	 eax, 16			; 00000010H
  00038	89 46 18	 mov	 DWORD PTR [esi+24], eax
  0003b	83 c4 04	 add	 esp, 4
  0003e	8b c6		 mov	 eax, esi
  00040	5e		 pop	 esi
  00041	c2 04 00	 ret	 4
??0?$pair@$$CBHUHonorData@@@std@@QAE@ABU01@@Z ENDP	; std::pair<int const ,HonorData>::pair<int const ,HonorData>
_TEXT	ENDS
PUBLIC	??_G_Node@?$_Tree_nod@V?$_Tmap_traits@HUHonorData@@U?$less@H@std@@V?$allocator@U?$pair@$$CBHUHonorData@@@std@@@3@$0A@@std@@@std@@QAEPAXI@Z ; std::_Tree_nod<std::_Tmap_traits<int,HonorData,std::less<int>,std::allocator<std::pair<int const ,HonorData> >,0> >::_Node::`scalar deleting destructor'
; Function compile flags: /Ogty
;	COMDAT ??_G_Node@?$_Tree_nod@V?$_Tmap_traits@HUHonorData@@U?$less@H@std@@V?$allocator@U?$pair@$$CBHUHonorData@@@std@@@3@$0A@@std@@@std@@QAEPAXI@Z
_TEXT	SEGMENT
___flags$ = 8						; size = 4
??_G_Node@?$_Tree_nod@V?$_Tmap_traits@HUHonorData@@U?$less@H@std@@V?$allocator@U?$pair@$$CBHUHonorData@@@std@@@3@$0A@@std@@@std@@QAEPAXI@Z PROC NEAR ; std::_Tree_nod<std::_Tmap_traits<int,HonorData,std::less<int>,std::allocator<std::pair<int const ,HonorData> >,0> >::_Node::`scalar deleting destructor', COMDAT
; _this$ = ecx
  00000	56		 push	 esi
  00001	8b f1		 mov	 esi, ecx
  00003	e8 00 00 00 00	 call	 ??1_Node@?$_Tree_nod@V?$_Tmap_traits@HUHonorData@@U?$less@H@std@@V?$allocator@U?$pair@$$CBHUHonorData@@@std@@@3@$0A@@std@@@std@@QAE@XZ
  00008	f6 44 24 08 01	 test	 BYTE PTR ___flags$[esp], 1
  0000d	74 09		 je	 SHORT $L191766
  0000f	56		 push	 esi
  00010	e8 00 00 00 00	 call	 ??3@YAXPAX@Z		; operator delete
  00015	83 c4 04	 add	 esp, 4
$L191766:
  00018	8b c6		 mov	 eax, esi
  0001a	5e		 pop	 esi
  0001b	c2 04 00	 ret	 4
??_G_Node@?$_Tree_nod@V?$_Tmap_traits@HUHonorData@@U?$less@H@std@@V?$allocator@U?$pair@$$CBHUHonorData@@@std@@@3@$0A@@std@@@std@@QAEPAXI@Z ENDP ; std::_Tree_nod<std::_Tmap_traits<int,HonorData,std::less<int>,std::allocator<std::pair<int const ,HonorData> >,0> >::_Node::`scalar deleting destructor'
_TEXT	ENDS
PUBLIC	??_7logic_error@std@@6B@			; std::logic_error::`vftable'
PUBLIC	??_Glogic_error@std@@UAEPAXI@Z			; std::logic_error::`scalar deleting destructor'
PUBLIC	??1logic_error@std@@UAE@XZ			; std::logic_error::~logic_error
PUBLIC	?what@logic_error@std@@UBEPBDXZ			; std::logic_error::what
EXTRN	??_Elogic_error@std@@UAEPAXI@Z:NEAR		; std::logic_error::`vector deleting destructor'
EXTRN	??1exception@@UAE@XZ:NEAR			; exception::~exception
;	COMDAT ??_7logic_error@std@@6B@
; File c:\program files\microsoft visual studio .net 2003\vc7\include\iosfwd
CONST	SEGMENT
??_7logic_error@std@@6B@ DD FLAT:??_Elogic_error@std@@UAEPAXI@Z ; std::logic_error::`vftable'
	DD	FLAT:?what@logic_error@std@@UBEPBDXZ
; Function compile flags: /Ogty
; File c:\program files\microsoft visual studio .net 2003\vc7\include\stdexcept
CONST	ENDS
;	COMDAT ??1logic_error@std@@UAE@XZ
_TEXT	SEGMENT
??1logic_error@std@@UAE@XZ PROC NEAR			; std::logic_error::~logic_error, COMDAT
; _this$ = ecx

; 23   : 		{}	// destroy the object

  00000	56		 push	 esi
  00001	8b f1		 mov	 esi, ecx
  00003	c7 06 00 00 00
	00		 mov	 DWORD PTR [esi], OFFSET FLAT:??_7logic_error@std@@6B@
  00009	83 7e 24 10	 cmp	 DWORD PTR [esi+36], 16	; 00000010H
  0000d	72 0c		 jb	 SHORT $L191833
  0000f	8b 46 10	 mov	 eax, DWORD PTR [esi+16]
  00012	50		 push	 eax
  00013	e8 00 00 00 00	 call	 ??3@YAXPAX@Z		; operator delete
  00018	83 c4 04	 add	 esp, 4
$L191833:
  0001b	33 c0		 xor	 eax, eax
  0001d	c7 46 24 0f 00
	00 00		 mov	 DWORD PTR [esi+36], 15	; 0000000fH
  00024	89 46 20	 mov	 DWORD PTR [esi+32], eax
  00027	88 46 10	 mov	 BYTE PTR [esi+16], al
  0002a	8b ce		 mov	 ecx, esi
  0002c	5e		 pop	 esi
  0002d	e9 00 00 00 00	 jmp	 ??1exception@@UAE@XZ	; exception::~exception
??1logic_error@std@@UAE@XZ ENDP				; std::logic_error::~logic_error
; Function compile flags: /Ogty
_TEXT	ENDS
;	COMDAT ?what@logic_error@std@@UBEPBDXZ
_TEXT	SEGMENT
?what@logic_error@std@@UBEPBDXZ PROC NEAR		; std::logic_error::what, COMDAT
; _this$ = ecx

; 27   : 		return (_Str.c_str());

  00000	83 79 24 10	 cmp	 DWORD PTR [ecx+36], 16	; 00000010H
  00004	72 04		 jb	 SHORT $L191859
  00006	8b 41 10	 mov	 eax, DWORD PTR [ecx+16]

; 28   : 		}

  00009	c3		 ret	 0

; 27   : 		return (_Str.c_str());

$L191859:
  0000a	8d 41 10	 lea	 eax, DWORD PTR [ecx+16]

; 28   : 		}

  0000d	c3		 ret	 0
?what@logic_error@std@@UBEPBDXZ ENDP			; std::logic_error::what
; Function compile flags: /Ogty
_TEXT	ENDS
;	COMDAT ??_Glogic_error@std@@UAEPAXI@Z
_TEXT	SEGMENT
___flags$ = 8						; size = 4
??_Glogic_error@std@@UAEPAXI@Z PROC NEAR		; std::logic_error::`scalar deleting destructor', COMDAT
; _this$ = ecx
  00000	56		 push	 esi
  00001	8b f1		 mov	 esi, ecx
  00003	e8 00 00 00 00	 call	 ??1logic_error@std@@UAE@XZ ; std::logic_error::~logic_error
  00008	f6 44 24 08 01	 test	 BYTE PTR ___flags$[esp], 1
  0000d	74 09		 je	 SHORT $L191865
  0000f	56		 push	 esi
  00010	e8 00 00 00 00	 call	 ??3@YAXPAX@Z		; operator delete
  00015	83 c4 04	 add	 esp, 4
$L191865:
  00018	8b c6		 mov	 eax, esi
  0001a	5e		 pop	 esi
  0001b	c2 04 00	 ret	 4
??_Glogic_error@std@@UAEPAXI@Z ENDP			; std::logic_error::`scalar deleting destructor'
_TEXT	ENDS
PUBLIC	??4?$CSimpleStringT@D$0A@@ATL@@QAEAAV01@ABV01@@Z ; ATL::CSimpleStringT<char,0>::operator=
; Function compile flags: /Ogty
; File c:\program files\microsoft visual studio .net 2003\vc7\atlmfc\include\atlsimpstr.h
;	COMDAT ??4?$CSimpleStringT@D$0A@@ATL@@QAEAAV01@ABV01@@Z
_TEXT	SEGMENT
_strSrc$ = 8						; size = 4
??4?$CSimpleStringT@D$0A@@ATL@@QAEAAV01@ABV01@@Z PROC NEAR ; ATL::CSimpleStringT<char,0>::operator=, COMDAT
; _this$ = ecx

; 274  : 		CStringData* pSrcData = strSrc.GetData();

  00000	8b 44 24 04	 mov	 eax, DWORD PTR _strSrc$[esp-4]
  00004	56		 push	 esi
  00005	57		 push	 edi
  00006	8b f9		 mov	 edi, ecx
  00008	8b 08		 mov	 ecx, DWORD PTR [eax]

; 275  : 		CStringData* pOldData = GetData();

  0000a	8b 37		 mov	 esi, DWORD PTR [edi]
  0000c	8d 41 f0	 lea	 eax, DWORD PTR [ecx-16]
  0000f	83 ee 10	 sub	 esi, 16			; 00000010H

; 276  : 		if( pSrcData != pOldData)

  00012	3b c6		 cmp	 eax, esi
  00014	74 4d		 je	 SHORT $L191902

; 277  : 		{
; 278  : 			if( pOldData->IsLocked() || pSrcData->pStringMgr != pOldData->pStringMgr )

  00016	8b 56 0c	 mov	 edx, DWORD PTR [esi+12]
  00019	85 d2		 test	 edx, edx
  0001b	53		 push	 ebx
  0001c	8d 5e 0c	 lea	 ebx, DWORD PTR [esi+12]
  0001f	55		 push	 ebp
  00020	7c 33		 jl	 SHORT $L184213
  00022	8b 10		 mov	 edx, DWORD PTR [eax]
  00024	3b 16		 cmp	 edx, DWORD PTR [esi]
  00026	75 2d		 jne	 SHORT $L184213

; 281  : 			}
; 282  : 			else
; 283  : 			{
; 284  : 				CStringData* pNewData = CloneData( pSrcData );

  00028	50		 push	 eax
  00029	e8 00 00 00 00	 call	 ?CloneData@?$CSimpleStringT@D$0A@@ATL@@CAPAUCStringData@2@PAU32@@Z ; ATL::CSimpleStringT<char,0>::CloneData
  0002e	8b e8		 mov	 ebp, eax
  00030	83 c4 04	 add	 esp, 4

; 285  : 				pOldData->Release();

  00033	83 c8 ff	 or	 eax, -1
  00036	f0 0f c1 03	 lock	  xadd	 DWORD PTR [ebx], eax
  0003a	48		 dec	 eax
  0003b	85 c0		 test	 eax, eax
  0003d	7f 08		 jg	 SHORT $L191893
  0003f	8b 0e		 mov	 ecx, DWORD PTR [esi]
  00041	8b 11		 mov	 edx, DWORD PTR [ecx]
  00043	56		 push	 esi
  00044	ff 52 04	 call	 DWORD PTR [edx+4]
$L191893:

; 286  : 				Attach( pNewData );

  00047	83 c5 10	 add	 ebp, 16			; 00000010H
  0004a	89 2f		 mov	 DWORD PTR [edi], ebp
  0004c	5d		 pop	 ebp
  0004d	5b		 pop	 ebx

; 287  : 			}
; 288  : 		}
; 289  : 
; 290  : 		return( *this );

  0004e	8b c7		 mov	 eax, edi
  00050	5f		 pop	 edi
  00051	5e		 pop	 esi

; 291  : 	}

  00052	c2 04 00	 ret	 4
$L184213:

; 279  : 			{
; 280  : 				SetString( strSrc.GetString(), strSrc.GetLength() );

  00055	8b 41 f4	 mov	 eax, DWORD PTR [ecx-12]
  00058	50		 push	 eax
  00059	51		 push	 ecx
  0005a	8b cf		 mov	 ecx, edi
  0005c	e8 00 00 00 00	 call	 ?SetString@?$CSimpleStringT@D$0A@@ATL@@QAEXPBDH@Z ; ATL::CSimpleStringT<char,0>::SetString
  00061	5d		 pop	 ebp
  00062	5b		 pop	 ebx
$L191902:

; 287  : 			}
; 288  : 		}
; 289  : 
; 290  : 		return( *this );

  00063	8b c7		 mov	 eax, edi
  00065	5f		 pop	 edi
  00066	5e		 pop	 esi

; 291  : 	}

  00067	c2 04 00	 ret	 4
??4?$CSimpleStringT@D$0A@@ATL@@QAEAAV01@ABV01@@Z ENDP	; ATL::CSimpleStringT<char,0>::operator=
_TEXT	ENDS
PUBLIC	?assign@?$basic_string@DU?$char_traits@D@std@@V?$allocator@D@2@@std@@QAEAAV12@ABV12@II@Z ; std::basic_string<char,std::char_traits<char>,std::allocator<char> >::assign
; Function compile flags: /Ogty
; File c:\program files\microsoft visual studio .net 2003\vc7\include\xstring
;	COMDAT ?assign@?$basic_string@DU?$char_traits@D@std@@V?$allocator@D@2@@std@@QAEAAV12@ABV12@II@Z
_TEXT	SEGMENT
__Right$ = 8						; size = 4
__Roff$ = 12						; size = 4
__Count$ = 16						; size = 4
?assign@?$basic_string@DU?$char_traits@D@std@@V?$allocator@D@2@@std@@QAEAAV12@ABV12@II@Z PROC NEAR ; std::basic_string<char,std::char_traits<char>,std::allocator<char> >::assign, COMDAT
; _this$ = ecx

; 590  : 		{	// assign _Right [_Roff, _Roff + _Count)

  00000	53		 push	 ebx
  00001	55		 push	 ebp
  00002	56		 push	 esi

; 591  : 		if (_Right.size() < _Roff)

  00003	8b 74 24 14	 mov	 esi, DWORD PTR __Roff$[esp+8]
  00007	57		 push	 edi
  00008	8b 7c 24 14	 mov	 edi, DWORD PTR __Right$[esp+12]
  0000c	39 77 14	 cmp	 DWORD PTR [edi+20], esi
  0000f	8b d9		 mov	 ebx, ecx
  00011	73 05		 jae	 SHORT $L184271

; 592  : 			_String_base::_Xran();	// _Roff off end

  00013	e8 00 00 00 00	 call	 ?_Xran@_String_base@std@@QBEXXZ ; std::_String_base::_Xran
$L184271:

; 593  : 		size_type _Num = _Right.size() - _Roff;

  00018	8b 6f 14	 mov	 ebp, DWORD PTR [edi+20]

; 594  : 		if (_Count < _Num)

  0001b	8b 44 24 1c	 mov	 eax, DWORD PTR __Count$[esp+12]
  0001f	2b ee		 sub	 ebp, esi
  00021	3b c5		 cmp	 eax, ebp
  00023	73 02		 jae	 SHORT $L184273

; 595  : 			_Num = _Count;	// trim _Num to size

  00025	8b e8		 mov	 ebp, eax
$L184273:

; 596  : 
; 597  : 		if (this == &_Right)

  00027	3b df		 cmp	 ebx, edi
  00029	75 1f		 jne	 SHORT $L184274

; 598  : 			erase((size_type)(_Roff + _Num)), erase(0, _Roff);	// substring

  0002b	6a ff		 push	 -1
  0002d	03 ee		 add	 ebp, esi
  0002f	55		 push	 ebp
  00030	8b cb		 mov	 ecx, ebx
  00032	e8 00 00 00 00	 call	 ?erase@?$basic_string@DU?$char_traits@D@std@@V?$allocator@D@2@@std@@QAEAAV12@II@Z ; std::basic_string<char,std::char_traits<char>,std::allocator<char> >::erase
  00037	56		 push	 esi
  00038	6a 00		 push	 0
  0003a	8b cb		 mov	 ecx, ebx
  0003c	e8 00 00 00 00	 call	 ?erase@?$basic_string@DU?$char_traits@D@std@@V?$allocator@D@2@@std@@QAEAAV12@II@Z ; std::basic_string<char,std::char_traits<char>,std::allocator<char> >::erase
  00041	5f		 pop	 edi
  00042	5e		 pop	 esi
  00043	5d		 pop	 ebp

; 603  : 			}
; 604  : 		return (*this);

  00044	8b c3		 mov	 eax, ebx
  00046	5b		 pop	 ebx

; 605  : 		}

  00047	c2 0c 00	 ret	 12			; 0000000cH
$L184274:

; 599  : 		else if (_Grow(_Num))

  0004a	83 fd fe	 cmp	 ebp, -2			; fffffffeH
  0004d	76 07		 jbe	 SHORT $L192055
  0004f	8b cb		 mov	 ecx, ebx
  00051	e8 00 00 00 00	 call	 ?_Xlen@_String_base@std@@QBEXXZ ; std::_String_base::_Xlen
$L192055:
  00056	8b 43 18	 mov	 eax, DWORD PTR [ebx+24]
  00059	3b c5		 cmp	 eax, ebp
  0005b	73 21		 jae	 SHORT $L192056
  0005d	8b 43 14	 mov	 eax, DWORD PTR [ebx+20]
  00060	50		 push	 eax
  00061	55		 push	 ebp
  00062	8b cb		 mov	 ecx, ebx
  00064	e8 00 00 00 00	 call	 ?_Copy@?$basic_string@DU?$char_traits@D@std@@V?$allocator@D@2@@std@@IAEXII@Z ; std::basic_string<char,std::char_traits<char>,std::allocator<char> >::_Copy
  00069	85 ed		 test	 ebp, ebp
$L192101:
  0006b	76 6d		 jbe	 SHORT $L192100

; 600  : 			{	// make room and assign new stuff
; 601  : 			_Traits::copy(_Myptr(), _Right._Myptr() + _Roff, _Num);

  0006d	8b 4f 18	 mov	 ecx, DWORD PTR [edi+24]
  00070	b8 10 00 00 00	 mov	 eax, 16			; 00000010H
  00075	3b c8		 cmp	 ecx, eax
  00077	72 2f		 jb	 SHORT $L192066
  00079	8b 57 04	 mov	 edx, DWORD PTR [edi+4]
  0007c	eb 2d		 jmp	 SHORT $L192067

; 599  : 		else if (_Grow(_Num))

$L192056:
  0007e	85 ed		 test	 ebp, ebp
  00080	75 e9		 jne	 SHORT $L192101
  00082	83 f8 10	 cmp	 eax, 16			; 00000010H
  00085	89 6b 14	 mov	 DWORD PTR [ebx+20], ebp
  00088	72 0f		 jb	 SHORT $L192048
  0008a	8b 43 04	 mov	 eax, DWORD PTR [ebx+4]
  0008d	5f		 pop	 edi
  0008e	5e		 pop	 esi
  0008f	c6 00 00	 mov	 BYTE PTR [eax], 0
  00092	5d		 pop	 ebp

; 603  : 			}
; 604  : 		return (*this);

  00093	8b c3		 mov	 eax, ebx
  00095	5b		 pop	 ebx

; 605  : 		}

  00096	c2 0c 00	 ret	 12			; 0000000cH

; 599  : 		else if (_Grow(_Num))

$L192048:
  00099	5f		 pop	 edi
  0009a	8d 43 04	 lea	 eax, DWORD PTR [ebx+4]
  0009d	5e		 pop	 esi
  0009e	c6 00 00	 mov	 BYTE PTR [eax], 0
  000a1	5d		 pop	 ebp

; 603  : 			}
; 604  : 		return (*this);

  000a2	8b c3		 mov	 eax, ebx
  000a4	5b		 pop	 ebx

; 605  : 		}

  000a5	c2 0c 00	 ret	 12			; 0000000cH

; 600  : 			{	// make room and assign new stuff
; 601  : 			_Traits::copy(_Myptr(), _Right._Myptr() + _Roff, _Num);

$L192066:
  000a8	8d 57 04	 lea	 edx, DWORD PTR [edi+4]
$L192067:
  000ab	39 43 18	 cmp	 DWORD PTR [ebx+24], eax
  000ae	8d 43 04	 lea	 eax, DWORD PTR [ebx+4]
  000b1	72 04		 jb	 SHORT $L192072
  000b3	8b 38		 mov	 edi, DWORD PTR [eax]
  000b5	eb 02		 jmp	 SHORT $L192073
$L192072:
  000b7	8b f8		 mov	 edi, eax
$L192073:
  000b9	03 f2		 add	 esi, edx
  000bb	8b cd		 mov	 ecx, ebp
  000bd	8b d1		 mov	 edx, ecx
  000bf	c1 e9 02	 shr	 ecx, 2
  000c2	f3 a5		 rep movsd
  000c4	8b ca		 mov	 ecx, edx
  000c6	83 e1 03	 and	 ecx, 3
  000c9	f3 a4		 rep movsb

; 602  : 			_Eos(_Num);

  000cb	83 7b 18 10	 cmp	 DWORD PTR [ebx+24], 16	; 00000010H
  000cf	89 6b 14	 mov	 DWORD PTR [ebx+20], ebp
  000d2	72 02		 jb	 SHORT $L192095
  000d4	8b 00		 mov	 eax, DWORD PTR [eax]
$L192095:
  000d6	c6 04 28 00	 mov	 BYTE PTR [eax+ebp], 0
$L192100:
  000da	5f		 pop	 edi
  000db	5e		 pop	 esi
  000dc	5d		 pop	 ebp

; 603  : 			}
; 604  : 		return (*this);

  000dd	8b c3		 mov	 eax, ebx
  000df	5b		 pop	 ebx

; 605  : 		}

  000e0	c2 0c 00	 ret	 12			; 0000000cH
?assign@?$basic_string@DU?$char_traits@D@std@@V?$allocator@D@2@@std@@QAEAAV12@ABV12@II@Z ENDP ; std::basic_string<char,std::char_traits<char>,std::allocator<char> >::assign
_TEXT	ENDS
PUBLIC	?assign@?$basic_string@DU?$char_traits@D@std@@V?$allocator@D@2@@std@@QAEAAV12@PBDI@Z ; std::basic_string<char,std::char_traits<char>,std::allocator<char> >::assign
; Function compile flags: /Ogty
;	COMDAT ?assign@?$basic_string@DU?$char_traits@D@std@@V?$allocator@D@2@@std@@QAEAAV12@PBDI@Z
_TEXT	SEGMENT
__Ptr$ = 8						; size = 4
__Num$ = 12						; size = 4
?assign@?$basic_string@DU?$char_traits@D@std@@V?$allocator@D@2@@std@@QAEAAV12@PBDI@Z PROC NEAR ; std::basic_string<char,std::char_traits<char>,std::allocator<char> >::assign, COMDAT
; _this$ = ecx

; 608  : 		{	// assign [_Ptr, _Ptr + _Num)

  00000	53		 push	 ebx
  00001	8b d9		 mov	 ebx, ecx

; 609  : 		if (_Inside(_Ptr))

  00003	8b 53 18	 mov	 edx, DWORD PTR [ebx+24]
  00006	83 fa 10	 cmp	 edx, 16			; 00000010H
  00009	56		 push	 esi
  0000a	57		 push	 edi
  0000b	72 05		 jb	 SHORT $L192125
  0000d	8b 43 04	 mov	 eax, DWORD PTR [ebx+4]
  00010	eb 03		 jmp	 SHORT $L192126
$L192125:
  00012	8d 43 04	 lea	 eax, DWORD PTR [ebx+4]
$L192126:
  00015	8b 74 24 10	 mov	 esi, DWORD PTR __Ptr$[esp+8]
  00019	3b f0		 cmp	 esi, eax
  0001b	72 34		 jb	 SHORT $L184989
  0001d	83 fa 10	 cmp	 edx, 16			; 00000010H
  00020	8d 43 04	 lea	 eax, DWORD PTR [ebx+4]
  00023	72 04		 jb	 SHORT $L192129
  00025	8b 08		 mov	 ecx, DWORD PTR [eax]
  00027	eb 02		 jmp	 SHORT $L192130
$L192129:
  00029	8b c8		 mov	 ecx, eax
$L192130:
  0002b	8b 7b 14	 mov	 edi, DWORD PTR [ebx+20]
  0002e	03 f9		 add	 edi, ecx
  00030	3b fe		 cmp	 edi, esi
  00032	76 1d		 jbe	 SHORT $L184989

; 610  : 			return (assign(*this, _Ptr - _Myptr(), _Num));	// substring

  00034	83 fa 10	 cmp	 edx, 16			; 00000010H
  00037	72 02		 jb	 SHORT $L192138
  00039	8b 00		 mov	 eax, DWORD PTR [eax]
$L192138:
  0003b	8b 4c 24 14	 mov	 ecx, DWORD PTR __Num$[esp+8]
  0003f	51		 push	 ecx
  00040	2b f0		 sub	 esi, eax
  00042	56		 push	 esi
  00043	53		 push	 ebx
  00044	8b cb		 mov	 ecx, ebx
  00046	e8 00 00 00 00	 call	 ?assign@?$basic_string@DU?$char_traits@D@std@@V?$allocator@D@2@@std@@QAEAAV12@ABV12@II@Z ; std::basic_string<char,std::char_traits<char>,std::allocator<char> >::assign
  0004b	5f		 pop	 edi
  0004c	5e		 pop	 esi
  0004d	5b		 pop	 ebx

; 618  : 		}

  0004e	c2 08 00	 ret	 8
$L184989:
  00051	55		 push	 ebp

; 611  : 
; 612  : 		if (_Grow(_Num))

  00052	8b 6c 24 18	 mov	 ebp, DWORD PTR __Num$[esp+12]
  00056	83 fd fe	 cmp	 ebp, -2			; fffffffeH
  00059	76 07		 jbe	 SHORT $L192250
  0005b	8b cb		 mov	 ecx, ebx
  0005d	e8 00 00 00 00	 call	 ?_Xlen@_String_base@std@@QBEXXZ ; std::_String_base::_Xlen
$L192250:
  00062	8b 43 18	 mov	 eax, DWORD PTR [ebx+24]
  00065	3b c5		 cmp	 eax, ebp
  00067	73 1b		 jae	 SHORT $L192251
  00069	8b 53 14	 mov	 edx, DWORD PTR [ebx+20]
  0006c	52		 push	 edx
  0006d	55		 push	 ebp
  0006e	8b cb		 mov	 ecx, ebx
  00070	e8 00 00 00 00	 call	 ?_Copy@?$basic_string@DU?$char_traits@D@std@@V?$allocator@D@2@@std@@IAEXII@Z ; std::basic_string<char,std::char_traits<char>,std::allocator<char> >::_Copy
  00075	85 ed		 test	 ebp, ebp
$L192318:
  00077	76 68		 jbe	 SHORT $L192316

; 613  : 			{	// make room and assign new stuff
; 614  : 			_Traits::copy(_Myptr(), _Ptr, _Num);

  00079	83 7b 18 10	 cmp	 DWORD PTR [ebx+24], 16	; 00000010H
  0007d	72 2f		 jb	 SHORT $L192290
  0007f	8b 7b 04	 mov	 edi, DWORD PTR [ebx+4]
  00082	eb 2d		 jmp	 SHORT $L192291

; 611  : 
; 612  : 		if (_Grow(_Num))

$L192251:
  00084	85 ed		 test	 ebp, ebp
  00086	75 ef		 jne	 SHORT $L192318
  00088	83 f8 10	 cmp	 eax, 16			; 00000010H
  0008b	89 6b 14	 mov	 DWORD PTR [ebx+20], ebp
  0008e	72 0f		 jb	 SHORT $L192281
  00090	8b 43 04	 mov	 eax, DWORD PTR [ebx+4]
  00093	5d		 pop	 ebp
  00094	5f		 pop	 edi
  00095	c6 00 00	 mov	 BYTE PTR [eax], 0
  00098	5e		 pop	 esi

; 616  : 			}
; 617  : 		return (*this);

  00099	8b c3		 mov	 eax, ebx
  0009b	5b		 pop	 ebx

; 618  : 		}

  0009c	c2 08 00	 ret	 8

; 611  : 
; 612  : 		if (_Grow(_Num))

$L192281:
  0009f	5d		 pop	 ebp
  000a0	8d 43 04	 lea	 eax, DWORD PTR [ebx+4]
  000a3	5f		 pop	 edi
  000a4	c6 00 00	 mov	 BYTE PTR [eax], 0
  000a7	5e		 pop	 esi

; 616  : 			}
; 617  : 		return (*this);

  000a8	8b c3		 mov	 eax, ebx
  000aa	5b		 pop	 ebx

; 618  : 		}

  000ab	c2 08 00	 ret	 8

; 613  : 			{	// make room and assign new stuff
; 614  : 			_Traits::copy(_Myptr(), _Ptr, _Num);

$L192290:
  000ae	8d 7b 04	 lea	 edi, DWORD PTR [ebx+4]
$L192291:
  000b1	8b cd		 mov	 ecx, ebp
  000b3	8b c1		 mov	 eax, ecx
  000b5	c1 e9 02	 shr	 ecx, 2
  000b8	f3 a5		 rep movsd
  000ba	8b c8		 mov	 ecx, eax
  000bc	83 e1 03	 and	 ecx, 3
  000bf	f3 a4		 rep movsb

; 615  : 			_Eos(_Num);

  000c1	83 7b 18 10	 cmp	 DWORD PTR [ebx+24], 16	; 00000010H
  000c5	89 6b 14	 mov	 DWORD PTR [ebx+20], ebp
  000c8	72 10		 jb	 SHORT $L192313
  000ca	8b 43 04	 mov	 eax, DWORD PTR [ebx+4]
  000cd	c6 04 28 00	 mov	 BYTE PTR [eax+ebp], 0
  000d1	5d		 pop	 ebp
  000d2	5f		 pop	 edi
  000d3	5e		 pop	 esi

; 616  : 			}
; 617  : 		return (*this);

  000d4	8b c3		 mov	 eax, ebx
  000d6	5b		 pop	 ebx

; 618  : 		}

  000d7	c2 08 00	 ret	 8

; 615  : 			_Eos(_Num);

$L192313:
  000da	8d 43 04	 lea	 eax, DWORD PTR [ebx+4]
  000dd	c6 04 28 00	 mov	 BYTE PTR [eax+ebp], 0
$L192316:
  000e1	5d		 pop	 ebp
  000e2	5f		 pop	 edi
  000e3	5e		 pop	 esi

; 616  : 			}
; 617  : 		return (*this);

  000e4	8b c3		 mov	 eax, ebx
  000e6	5b		 pop	 ebx

; 618  : 		}

  000e7	c2 08 00	 ret	 8
?assign@?$basic_string@DU?$char_traits@D@std@@V?$allocator@D@2@@std@@QAEAAV12@PBDI@Z ENDP ; std::basic_string<char,std::char_traits<char>,std::allocator<char> >::assign
_TEXT	ENDS
PUBLIC	?GetIdxByName@CTitleManager@@QAEHPBD@Z		; CTitleManager::GetIdxByName
EXTRN	__imp__lstrcmpA@8:NEAR
;	COMDAT xdata$x
; File c:\program files\microsoft visual studio .net 2003\vc7\atlmfc\include\atlsimpstr.h
xdata$x	SEGMENT
$T192654 DD	0ffffffffH
	DD	FLAT:$L192324
$T192648 DD	019930520H
	DD	01H
	DD	FLAT:$T192654
	DD	2 DUP(00H)
	DD	2 DUP(00H)
; Function compile flags: /Ogty
; File c:\documents and settings\test\mes documents\source\virtuos_v17\build\program\_common\honor.cpp
xdata$x	ENDS
;	COMDAT ?GetIdxByName@CTitleManager@@QAEHPBD@Z
_TEXT	SEGMENT
_TempData$187661 = -40					; size = 24
_iter$ = -16						; size = 4
__$EHRec$ = -12						; size = 12
_chName$ = 8						; size = 4
?GetIdxByName@CTitleManager@@QAEHPBD@Z PROC NEAR	; CTitleManager::GetIdxByName, COMDAT
; _this$ = ecx

; 459  : {

  00000	6a ff		 push	 -1
  00002	68 00 00 00 00	 push	 __ehhandler$?GetIdxByName@CTitleManager@@QAEHPBD@Z
  00007	64 a1 00 00 00
	00		 mov	 eax, DWORD PTR fs:__except_list
  0000d	50		 push	 eax
  0000e	64 89 25 00 00
	00 00		 mov	 DWORD PTR fs:__except_list, esp
  00015	83 ec 1c	 sub	 esp, 28			; 0000001cH
  00018	53		 push	 ebx
  00019	55		 push	 ebp
  0001a	8b e9		 mov	 ebp, ecx

; 460  : 	map<int, HonorData>::iterator iter;
; 461  : 
; 462  : 	for(iter = m_mapAll.begin(); iter != m_mapAll.end(); ++iter) //  11 ..   ..

  0001c	8b 4d 28	 mov	 ecx, DWORD PTR [ebp+40]
  0001f	8b 01		 mov	 eax, DWORD PTR [ecx]
  00021	3b c1		 cmp	 eax, ecx
  00023	56		 push	 esi
  00024	57		 push	 edi
  00025	89 44 24 28	 mov	 DWORD PTR _iter$[esp+56], eax
  00029	0f 84 aa 00 00
	00		 je	 $L187660
  0002f	90		 npad	 1
$L192366:

; 463  : 	{
; 464  : 		HonorData	TempData = iter->second;

  00030	8b 70 24	 mov	 esi, DWORD PTR [eax+36]
  00033	8b 4e f0	 mov	 ecx, DWORD PTR [esi-16]
  00036	8b 58 10	 mov	 ebx, DWORD PTR [eax+16]
  00039	8b 01		 mov	 eax, DWORD PTR [ecx]
  0003b	83 ee 10	 sub	 esi, 16			; 00000010H
  0003e	ff 50 10	 call	 DWORD PTR [eax+16]
  00041	8b 56 0c	 mov	 edx, DWORD PTR [esi+12]
  00044	85 d2		 test	 edx, edx
  00046	8d 4e 0c	 lea	 ecx, DWORD PTR [esi+12]
  00049	7c 11		 jl	 SHORT $L192557
  0004b	3b 06		 cmp	 eax, DWORD PTR [esi]
  0004d	75 0d		 jne	 SHORT $L192557
  0004f	8b c6		 mov	 eax, esi
  00051	ba 01 00 00 00	 mov	 edx, 1
  00056	f0 0f c1 11	 lock	  xadd	 DWORD PTR [ecx], edx
  0005a	eb 32		 jmp	 SHORT $L192538
$L192557:
  0005c	8b 4e 04	 mov	 ecx, DWORD PTR [esi+4]
  0005f	8b 10		 mov	 edx, DWORD PTR [eax]
  00061	6a 01		 push	 1
  00063	51		 push	 ecx
  00064	8b c8		 mov	 ecx, eax
  00066	ff 12		 call	 DWORD PTR [edx]
  00068	85 c0		 test	 eax, eax
  0006a	0f 84 81 00 00
	00		 je	 $L192650
  00070	8b 56 04	 mov	 edx, DWORD PTR [esi+4]
  00073	89 50 04	 mov	 DWORD PTR [eax+4], edx
  00076	8b 4e 04	 mov	 ecx, DWORD PTR [esi+4]
  00079	41		 inc	 ecx
  0007a	8b d1		 mov	 edx, ecx
  0007c	c1 e9 02	 shr	 ecx, 2
  0007f	83 c6 10	 add	 esi, 16			; 00000010H
  00082	8d 78 10	 lea	 edi, DWORD PTR [eax+16]
  00085	f3 a5		 rep movsd
  00087	8b ca		 mov	 ecx, edx
  00089	83 e1 03	 and	 ecx, 3
  0008c	f3 a4		 rep movsb
$L192538:
  0008e	8d 70 10	 lea	 esi, DWORD PTR [eax+16]

; 465  : 		if(lstrcmp(TempData.strTitle,chName) == 0 )

  00091	8b 44 24 3c	 mov	 eax, DWORD PTR _chName$[esp+52]
  00095	50		 push	 eax
  00096	56		 push	 esi
  00097	ff 15 00 00 00
	00		 call	 DWORD PTR __imp__lstrcmpA@8

; 467  : 	};

  0009d	83 ca ff	 or	 edx, -1
  000a0	85 c0		 test	 eax, eax
  000a2	8d 46 f0	 lea	 eax, DWORD PTR [esi-16]
  000a5	c7 44 24 34 ff
	ff ff ff	 mov	 DWORD PTR __$EHRec$[esp+64], -1
  000ad	8d 48 0c	 lea	 ecx, DWORD PTR [eax+12]
  000b0	74 44		 je	 SHORT $L192651
  000b2	f0 0f c1 11	 lock	  xadd	 DWORD PTR [ecx], edx
  000b6	4a		 dec	 edx
  000b7	85 d2		 test	 edx, edx
  000b9	7f 08		 jg	 SHORT $L187659
  000bb	8b 08		 mov	 ecx, DWORD PTR [eax]
  000bd	8b 11		 mov	 edx, DWORD PTR [ecx]
  000bf	50		 push	 eax
  000c0	ff 52 04	 call	 DWORD PTR [edx+4]
$L187659:
  000c3	8d 4c 24 28	 lea	 ecx, DWORD PTR _iter$[esp+56]
  000c7	e8 00 00 00 00	 call	 ?_Inc@const_iterator@?$_Tree@V?$_Tmap_traits@HUHonorData@@U?$less@H@std@@V?$allocator@U?$pair@$$CBHUHonorData@@@std@@@3@$0A@@std@@@std@@QAEXXZ ; std::_Tree<std::_Tmap_traits<int,HonorData,std::less<int>,std::allocator<std::pair<int const ,HonorData> >,0> >::const_iterator::_Inc
  000cc	8b 44 24 28	 mov	 eax, DWORD PTR _iter$[esp+56]
  000d0	3b 45 28	 cmp	 eax, DWORD PTR [ebp+40]
  000d3	0f 85 57 ff ff
	ff		 jne	 $L192366
$L187660:
  000d9	5f		 pop	 edi
  000da	5e		 pop	 esi
  000db	5d		 pop	 ebp

; 468  : 	return -1;

  000dc	83 c8 ff	 or	 eax, -1
  000df	5b		 pop	 ebx

; 469  : 	
; 470  : }

  000e0	8b 4c 24 1c	 mov	 ecx, DWORD PTR __$EHRec$[esp+40]
  000e4	64 89 0d 00 00
	00 00		 mov	 DWORD PTR fs:__except_list, ecx
  000eb	83 c4 28	 add	 esp, 40			; 00000028H
  000ee	c2 04 00	 ret	 4
$L192650:

; 463  : 	{
; 464  : 		HonorData	TempData = iter->second;

  000f1	e8 00 00 00 00	 call	 ?ThrowMemoryException@?$CSimpleStringT@D$0A@@ATL@@KAXXZ ; ATL::CSimpleStringT<char,0>::ThrowMemoryException
$L192651:

; 466  :            return TempData.nID;

  000f6	f0 0f c1 11	 lock	  xadd	 DWORD PTR [ecx], edx
  000fa	4a		 dec	 edx
  000fb	85 d2		 test	 edx, edx
  000fd	7f 08		 jg	 SHORT $L192601
  000ff	8b 08		 mov	 ecx, DWORD PTR [eax]
  00101	8b 11		 mov	 edx, DWORD PTR [ecx]
  00103	50		 push	 eax
  00104	ff 52 04	 call	 DWORD PTR [edx+4]
$L192601:

; 469  : 	
; 470  : }

  00107	8b 4c 24 2c	 mov	 ecx, DWORD PTR __$EHRec$[esp+56]
  0010b	5f		 pop	 edi
  0010c	5e		 pop	 esi
  0010d	5d		 pop	 ebp
  0010e	8b c3		 mov	 eax, ebx
  00110	5b		 pop	 ebx
  00111	64 89 0d 00 00
	00 00		 mov	 DWORD PTR fs:__except_list, ecx
  00118	83 c4 28	 add	 esp, 40			; 00000028H
  0011b	c2 04 00	 ret	 4
$L192653:
_TEXT	ENDS
;	COMDAT text$x
text$x	SEGMENT
$L192324:
  00000	8d 4d d8	 lea	 ecx, DWORD PTR _TempData$187661[ebp]
  00003	e9 00 00 00 00	 jmp	 ??1HonorData@@QAE@XZ	; HonorData::~HonorData
__ehhandler$?GetIdxByName@CTitleManager@@QAEHPBD@Z:
  00008	b8 00 00 00 00	 mov	 eax, OFFSET FLAT:$T192648
  0000d	e9 00 00 00 00	 jmp	 ___CxxFrameHandler
text$x	ENDS
?GetIdxByName@CTitleManager@@QAEHPBD@Z ENDP		; CTitleManager::GetIdxByName
PUBLIC	??0_Node@?$_Tree_nod@V?$_Tmap_traits@HUHonorData@@U?$less@H@std@@V?$allocator@U?$pair@$$CBHUHonorData@@@std@@@3@$0A@@std@@@std@@QAE@PAU012@00ABU?$pair@$$CBHUHonorData@@@2@D@Z ; std::_Tree_nod<std::_Tmap_traits<int,HonorData,std::less<int>,std::allocator<std::pair<int const ,HonorData> >,0> >::_Node::_Node
; Function compile flags: /Ogty
; File c:\program files\microsoft visual studio .net 2003\vc7\include\xtree
;	COMDAT ??0_Node@?$_Tree_nod@V?$_Tmap_traits@HUHonorData@@U?$less@H@std@@V?$allocator@U?$pair@$$CBHUHonorData@@@std@@@3@$0A@@std@@@std@@QAE@PAU012@00ABU?$pair@$$CBHUHonorData@@@2@D@Z
_TEXT	SEGMENT
__Larg$ = 8						; size = 4
__Parg$ = 12						; size = 4
__Rarg$ = 16						; size = 4
__Val$ = 20						; size = 4
__Carg$ = 24						; size = 1
??0_Node@?$_Tree_nod@V?$_Tmap_traits@HUHonorData@@U?$less@H@std@@V?$allocator@U?$pair@$$CBHUHonorData@@@std@@@3@$0A@@std@@@std@@QAE@PAU012@00ABU?$pair@$$CBHUHonorData@@@2@D@Z PROC NEAR ; std::_Tree_nod<std::_Tmap_traits<int,HonorData,std::less<int>,std::allocator<std::pair<int const ,HonorData> >,0> >::_Node::_Node, COMDAT
; _this$ = ecx

; 40   : 			{	// construct a node with value

  00000	8b 44 24 04	 mov	 eax, DWORD PTR __Larg$[esp-4]
  00004	8b 54 24 0c	 mov	 edx, DWORD PTR __Rarg$[esp-4]
  00008	56		 push	 esi
  00009	8b f1		 mov	 esi, ecx
  0000b	8b 4c 24 0c	 mov	 ecx, DWORD PTR __Parg$[esp]
  0000f	89 06		 mov	 DWORD PTR [esi], eax
  00011	8b 44 24 14	 mov	 eax, DWORD PTR __Val$[esp]
  00015	89 4e 04	 mov	 DWORD PTR [esi+4], ecx
  00018	89 56 08	 mov	 DWORD PTR [esi+8], edx
  0001b	8b 08		 mov	 ecx, DWORD PTR [eax]
  0001d	89 4e 0c	 mov	 DWORD PTR [esi+12], ecx
  00020	8b 50 04	 mov	 edx, DWORD PTR [eax+4]
  00023	89 56 10	 mov	 DWORD PTR [esi+16], edx
  00026	8b 48 08	 mov	 ecx, DWORD PTR [eax+8]
  00029	89 4e 14	 mov	 DWORD PTR [esi+20], ecx
  0002c	8b 50 0c	 mov	 edx, DWORD PTR [eax+12]
  0002f	89 56 18	 mov	 DWORD PTR [esi+24], edx
  00032	8b 48 10	 mov	 ecx, DWORD PTR [eax+16]
  00035	89 4e 1c	 mov	 DWORD PTR [esi+28], ecx
  00038	8b 50 14	 mov	 edx, DWORD PTR [eax+20]
  0003b	89 56 20	 mov	 DWORD PTR [esi+32], edx
  0003e	8b 40 18	 mov	 eax, DWORD PTR [eax+24]
  00041	83 e8 10	 sub	 eax, 16			; 00000010H
  00044	50		 push	 eax
  00045	e8 00 00 00 00	 call	 ?CloneData@?$CSimpleStringT@D$0A@@ATL@@CAPAUCStringData@2@PAU32@@Z ; ATL::CSimpleStringT<char,0>::CloneData
  0004a	83 c0 10	 add	 eax, 16			; 00000010H
  0004d	89 46 24	 mov	 DWORD PTR [esi+36], eax
  00050	8a 44 24 1c	 mov	 al, BYTE PTR __Carg$[esp+4]
  00054	88 46 28	 mov	 BYTE PTR [esi+40], al
  00057	83 c4 04	 add	 esp, 4
  0005a	c6 46 29 00	 mov	 BYTE PTR [esi+41], 0

; 41   : 			}

  0005e	8b c6		 mov	 eax, esi
  00060	5e		 pop	 esi
  00061	c2 14 00	 ret	 20			; 00000014H
??0_Node@?$_Tree_nod@V?$_Tmap_traits@HUHonorData@@U?$less@H@std@@V?$allocator@U?$pair@$$CBHUHonorData@@@std@@@3@$0A@@std@@@std@@QAE@PAU012@00ABU?$pair@$$CBHUHonorData@@@2@D@Z ENDP ; std::_Tree_nod<std::_Tmap_traits<int,HonorData,std::less<int>,std::allocator<std::pair<int const ,HonorData> >,0> >::_Node::_Node
_TEXT	ENDS
PUBLIC	??$_Destroy@U_Node@?$_Tree_nod@V?$_Tmap_traits@HUHonorData@@U?$less@H@std@@V?$allocator@U?$pair@$$CBHUHonorData@@@std@@@3@$0A@@std@@@std@@@std@@YAXPAU_Node@?$_Tree_nod@V?$_Tmap_traits@HUHonorData@@U?$less@H@std@@V?$allocator@U?$pair@$$CBHUHonorData@@@std@@@3@$0A@@std@@@0@@Z ; std::_Destroy<std::_Tree_nod<std::_Tmap_traits<int,HonorData,std::less<int>,std::allocator<std::pair<int const ,HonorData> >,0> >::_Node>
; Function compile flags: /Ogty
; File c:\program files\microsoft visual studio .net 2003\vc7\include\xmemory
;	COMDAT ??$_Destroy@U_Node@?$_Tree_nod@V?$_Tmap_traits@HUHonorData@@U?$less@H@std@@V?$allocator@U?$pair@$$CBHUHonorData@@@std@@@3@$0A@@std@@@std@@@std@@YAXPAU_Node@?$_Tree_nod@V?$_Tmap_traits@HUHonorData@@U?$less@H@std@@V?$allocator@U?$pair@$$CBHUHonorData@@@std@@@3@$0A@@std@@@0@@Z
_TEXT	SEGMENT
__Ptr$ = 8						; size = 4
??$_Destroy@U_Node@?$_Tree_nod@V?$_Tmap_traits@HUHonorData@@U?$less@H@std@@V?$allocator@U?$pair@$$CBHUHonorData@@@std@@@3@$0A@@std@@@std@@@std@@YAXPAU_Node@?$_Tree_nod@V?$_Tmap_traits@HUHonorData@@U?$less@H@std@@V?$allocator@U?$pair@$$CBHUHonorData@@@std@@@3@$0A@@std@@@0@@Z PROC NEAR ; std::_Destroy<std::_Tree_nod<std::_Tmap_traits<int,HonorData,std::less<int>,std::allocator<std::pair<int const ,HonorData> >,0> >::_Node>, COMDAT

; 49   : 	_DESTRUCTOR(_Ty, _Ptr);

  00000	8b 4c 24 04	 mov	 ecx, DWORD PTR __Ptr$[esp-4]
  00004	e9 00 00 00 00	 jmp	 ??1_Node@?$_Tree_nod@V?$_Tmap_traits@HUHonorData@@U?$less@H@std@@V?$allocator@U?$pair@$$CBHUHonorData@@@std@@@3@$0A@@std@@@std@@QAE@XZ
??$_Destroy@U_Node@?$_Tree_nod@V?$_Tmap_traits@HUHonorData@@U?$less@H@std@@V?$allocator@U?$pair@$$CBHUHonorData@@@std@@@3@$0A@@std@@@std@@@std@@YAXPAU_Node@?$_Tree_nod@V?$_Tmap_traits@HUHonorData@@U?$less@H@std@@V?$allocator@U?$pair@$$CBHUHonorData@@@std@@@3@$0A@@std@@@0@@Z ENDP ; std::_Destroy<std::_Tree_nod<std::_Tmap_traits<int,HonorData,std::less<int>,std::allocator<std::pair<int const ,HonorData> >,0> >::_Node>
_TEXT	ENDS
PUBLIC	??4?$CStringT@DV?$StrTraitMFC@DV?$ChTraitsCRT@D@ATL@@@@@ATL@@QAEAAV01@ABV01@@Z ; ATL::CStringT<char,StrTraitMFC<char,ATL::ChTraitsCRT<char> > >::operator=
; Function compile flags: /Ogty
; File c:\program files\microsoft visual studio .net 2003\vc7\atlmfc\include\cstringt.h
;	COMDAT ??4?$CStringT@DV?$StrTraitMFC@DV?$ChTraitsCRT@D@ATL@@@@@ATL@@QAEAAV01@ABV01@@Z
_TEXT	SEGMENT
_strSrc$ = 8						; size = 4
??4?$CStringT@DV?$StrTraitMFC@DV?$ChTraitsCRT@D@ATL@@@@@ATL@@QAEAAV01@ABV01@@Z PROC NEAR ; ATL::CStringT<char,StrTraitMFC<char,ATL::ChTraitsCRT<char> > >::operator=, COMDAT
; _this$ = ecx

; 968  : 		CThisSimpleString::operator=( strSrc );

  00000	8b 44 24 04	 mov	 eax, DWORD PTR _strSrc$[esp-4]
  00004	56		 push	 esi
  00005	50		 push	 eax
  00006	8b f1		 mov	 esi, ecx
  00008	e8 00 00 00 00	 call	 ??4?$CSimpleStringT@D$0A@@ATL@@QAEAAV01@ABV01@@Z ; ATL::CSimpleStringT<char,0>::operator=

; 969  : 
; 970  : 		return( *this );

  0000d	8b c6		 mov	 eax, esi
  0000f	5e		 pop	 esi

; 971  : 	}

  00010	c2 04 00	 ret	 4
??4?$CStringT@DV?$StrTraitMFC@DV?$ChTraitsCRT@D@ATL@@@@@ATL@@QAEAAV01@ABV01@@Z ENDP ; ATL::CStringT<char,StrTraitMFC<char,ATL::ChTraitsCRT<char> > >::operator=
_TEXT	ENDS
PUBLIC	??0?$basic_string@DU?$char_traits@D@std@@V?$allocator@D@2@@std@@QAE@ABV01@@Z ; std::basic_string<char,std::char_traits<char>,std::allocator<char> >::basic_string<char,std::char_traits<char>,std::allocator<char> >
; Function compile flags: /Ogty
; File c:\program files\microsoft visual studio .net 2003\vc7\include\xstring
;	COMDAT ??0?$basic_string@DU?$char_traits@D@std@@V?$allocator@D@2@@std@@QAE@ABV01@@Z
_TEXT	SEGMENT
__Right$ = 8						; size = 4
??0?$basic_string@DU?$char_traits@D@std@@V?$allocator@D@2@@std@@QAE@ABV01@@Z PROC NEAR ; std::basic_string<char,std::char_traits<char>,std::allocator<char> >::basic_string<char,std::char_traits<char>,std::allocator<char> >, COMDAT
; _this$ = ecx

; 323  : 		{	// construct by copying _Right

  00000	56		 push	 esi

; 324  : 		_Tidy();

  00001	33 c0		 xor	 eax, eax
  00003	8b f1		 mov	 esi, ecx

; 325  : 		assign(_Right, 0, npos);

  00005	6a ff		 push	 -1
  00007	89 46 14	 mov	 DWORD PTR [esi+20], eax
  0000a	c7 46 18 0f 00
	00 00		 mov	 DWORD PTR [esi+24], 15	; 0000000fH
  00011	50		 push	 eax
  00012	88 46 04	 mov	 BYTE PTR [esi+4], al
  00015	8b 44 24 10	 mov	 eax, DWORD PTR __Right$[esp+8]
  00019	50		 push	 eax
  0001a	e8 00 00 00 00	 call	 ?assign@?$basic_string@DU?$char_traits@D@std@@V?$allocator@D@2@@std@@QAEAAV12@ABV12@II@Z ; std::basic_string<char,std::char_traits<char>,std::allocator<char> >::assign

; 326  : 		}

  0001f	8b c6		 mov	 eax, esi
  00021	5e		 pop	 esi
  00022	c2 04 00	 ret	 4
??0?$basic_string@DU?$char_traits@D@std@@V?$allocator@D@2@@std@@QAE@ABV01@@Z ENDP ; std::basic_string<char,std::char_traits<char>,std::allocator<char> >::basic_string<char,std::char_traits<char>,std::allocator<char> >
_TEXT	ENDS
PUBLIC	?assign@?$basic_string@DU?$char_traits@D@std@@V?$allocator@D@2@@std@@QAEAAV12@PBD@Z ; std::basic_string<char,std::char_traits<char>,std::allocator<char> >::assign
; Function compile flags: /Ogty
;	COMDAT ?assign@?$basic_string@DU?$char_traits@D@std@@V?$allocator@D@2@@std@@QAEAAV12@PBD@Z
_TEXT	SEGMENT
__Ptr$ = 8						; size = 4
?assign@?$basic_string@DU?$char_traits@D@std@@V?$allocator@D@2@@std@@QAEAAV12@PBD@Z PROC NEAR ; std::basic_string<char,std::char_traits<char>,std::allocator<char> >::assign, COMDAT
; _this$ = ecx

; 621  : 		{	// assign [_Ptr, <null>)

  00000	56		 push	 esi

; 622  : 		return (assign(_Ptr, _Traits::length(_Ptr)));

  00001	8b 74 24 08	 mov	 esi, DWORD PTR __Ptr$[esp]
  00005	8b c6		 mov	 eax, esi
  00007	57		 push	 edi
  00008	8d 78 01	 lea	 edi, DWORD PTR [eax+1]
  0000b	eb 03 8d 49 00	 npad	 5
$L192813:
  00010	8a 10		 mov	 dl, BYTE PTR [eax]
  00012	40		 inc	 eax
  00013	84 d2		 test	 dl, dl
  00015	75 f9		 jne	 SHORT $L192813
  00017	2b c7		 sub	 eax, edi
  00019	50		 push	 eax
  0001a	56		 push	 esi
  0001b	e8 00 00 00 00	 call	 ?assign@?$basic_string@DU?$char_traits@D@std@@V?$allocator@D@2@@std@@QAEAAV12@PBDI@Z ; std::basic_string<char,std::char_traits<char>,std::allocator<char> >::assign
  00020	5f		 pop	 edi
  00021	5e		 pop	 esi

; 623  : 		}

  00022	c2 04 00	 ret	 4
?assign@?$basic_string@DU?$char_traits@D@std@@V?$allocator@D@2@@std@@QAEAAV12@PBD@Z ENDP ; std::basic_string<char,std::char_traits<char>,std::allocator<char> >::assign
_TEXT	ENDS
PUBLIC	?_Buynode@?$_Tree@V?$_Tmap_traits@HUHonorData@@U?$less@H@std@@V?$allocator@U?$pair@$$CBHUHonorData@@@std@@@3@$0A@@std@@@std@@IAEPAU_Node@?$_Tree_nod@V?$_Tmap_traits@HUHonorData@@U?$less@H@std@@V?$allocator@U?$pair@$$CBHUHonorData@@@std@@@3@$0A@@std@@@2@PAU342@00ABU?$pair@$$CBHUHonorData@@@2@D@Z ; std::_Tree<std::_Tmap_traits<int,HonorData,std::less<int>,std::allocator<std::pair<int const ,HonorData> >,0> >::_Buynode
;	COMDAT xdata$x
; File c:\program files\microsoft visual studio .net 2003\vc7\include\xmemory
xdata$x	SEGMENT
$T192841 DD	0ffffffffH
	DD	00H
	DD	00H
	DD	FLAT:$L192822
	DD	0ffffffffH
	DD	00H
$T192843 DD	00H
	DD	00H
	DD	00H
	DD	FLAT:$L192821
$T192842 DD	00H
	DD	01H
	DD	02H
	DD	01H
	DD	FLAT:$T192843
$T192838 DD	019930520H
	DD	03H
	DD	FLAT:$T192841
	DD	01H
	DD	FLAT:$T192842
	DD	2 DUP(00H)
; Function compile flags: /Ogty
; File c:\program files\microsoft visual studio .net 2003\vc7\include\xtree
xdata$x	ENDS
;	COMDAT ?_Buynode@?$_Tree@V?$_Tmap_traits@HUHonorData@@U?$less@H@std@@V?$allocator@U?$pair@$$CBHUHonorData@@@std@@@3@$0A@@std@@@std@@IAEPAU_Node@?$_Tree_nod@V?$_Tmap_traits@HUHonorData@@U?$less@H@std@@V?$allocator@U?$pair@$$CBHUHonorData@@@std@@@3@$0A@@std@@@2@PAU342@00ABU?$pair@$$CBHUHonorData@@@2@D@Z
_TEXT	SEGMENT
$T192817 = -24						; size = 4
__Wherenode$ = -20					; size = 4
__$EHRec$ = -16						; size = 16
__Larg$ = 8						; size = 4
__Parg$ = 12						; size = 4
__Rarg$ = 16						; size = 4
__Val$ = 20						; size = 4
__Carg$ = 24						; size = 1
?_Buynode@?$_Tree@V?$_Tmap_traits@HUHonorData@@U?$less@H@std@@V?$allocator@U?$pair@$$CBHUHonorData@@@std@@@3@$0A@@std@@@std@@IAEPAU_Node@?$_Tree_nod@V?$_Tmap_traits@HUHonorData@@U?$less@H@std@@V?$allocator@U?$pair@$$CBHUHonorData@@@std@@@3@$0A@@std@@@2@PAU342@00ABU?$pair@$$CBHUHonorData@@@2@D@Z PROC NEAR ; std::_Tree<std::_Tmap_traits<int,HonorData,std::less<int>,std::allocator<std::pair<int const ,HonorData> >,0> >::_Buynode, COMDAT
; _this$ = ecx

; 1130 : 		{	// allocate a node with pointers, value, and color

  00000	55		 push	 ebp
  00001	8b ec		 mov	 ebp, esp
  00003	6a ff		 push	 -1
  00005	68 00 00 00 00	 push	 __ehhandler$?_Buynode@?$_Tree@V?$_Tmap_traits@HUHonorData@@U?$less@H@std@@V?$allocator@U?$pair@$$CBHUHonorData@@@std@@@3@$0A@@std@@@std@@IAEPAU_Node@?$_Tree_nod@V?$_Tmap_traits@HUHonorData@@U?$less@H@std@@V?$allocator@U?$pair@$$CBHUHonorData@@@std@@@3@$0A@@std@@@2@PAU342@00ABU?$pair@$$CBHUHonorData@@@2@D@Z
  0000a	64 a1 00 00 00
	00		 mov	 eax, DWORD PTR fs:__except_list
  00010	50		 push	 eax
  00011	64 89 25 00 00
	00 00		 mov	 DWORD PTR fs:__except_list, esp
  00018	83 ec 0c	 sub	 esp, 12			; 0000000cH
  0001b	53		 push	 ebx
  0001c	56		 push	 esi
  0001d	57		 push	 edi
  0001e	89 65 f0	 mov	 DWORD PTR __$EHRec$[ebp], esp

; 1131 : 		_Nodeptr _Wherenode = this->_Alnod.allocate(1);

  00021	6a 2c		 push	 44			; 0000002cH
  00023	e8 00 00 00 00	 call	 ??2@YAPAXI@Z		; operator new
  00028	8b f0		 mov	 esi, eax
  0002a	83 c4 04	 add	 esp, 4
  0002d	89 75 ec	 mov	 DWORD PTR __Wherenode$[ebp], esi

; 1132 : 		_TRY_BEGIN

  00030	c7 45 fc 00 00
	00 00		 mov	 DWORD PTR __$EHRec$[ebp+12], 0

; 1133 : 		new (_Wherenode) _Node(_Larg, _Parg, _Rarg, _Val, _Carg);

  00037	89 75 e8	 mov	 DWORD PTR $T192817[ebp], esi
  0003a	85 f6		 test	 esi, esi
  0003c	c6 45 fc 01	 mov	 BYTE PTR __$EHRec$[ebp+12], 1
  00040	74 1b		 je	 SHORT $L192818
  00042	8b 45 18	 mov	 eax, DWORD PTR __Carg$[ebp]
  00045	8b 4d 14	 mov	 ecx, DWORD PTR __Val$[ebp]
  00048	8b 55 10	 mov	 edx, DWORD PTR __Rarg$[ebp]
  0004b	50		 push	 eax
  0004c	8b 45 0c	 mov	 eax, DWORD PTR __Parg$[ebp]
  0004f	51		 push	 ecx
  00050	8b 4d 08	 mov	 ecx, DWORD PTR __Larg$[ebp]
  00053	52		 push	 edx
  00054	50		 push	 eax
  00055	51		 push	 ecx
  00056	8b ce		 mov	 ecx, esi
  00058	e8 00 00 00 00	 call	 ??0_Node@?$_Tree_nod@V?$_Tmap_traits@HUHonorData@@U?$less@H@std@@V?$allocator@U?$pair@$$CBHUHonorData@@@std@@@3@$0A@@std@@@std@@QAE@PAU012@00ABU?$pair@$$CBHUHonorData@@@2@D@Z ; std::_Tree_nod<std::_Tmap_traits<int,HonorData,std::less<int>,std::allocator<std::pair<int const ,HonorData> >,0> >::_Node::_Node
$L192818:

; 1137 : 		_CATCH_END
; 1138 : 		return (_Wherenode);
; 1139 : 		}

  0005d	8b 4d f4	 mov	 ecx, DWORD PTR __$EHRec$[ebp+4]
  00060	5f		 pop	 edi
  00061	8b c6		 mov	 eax, esi
  00063	5e		 pop	 esi
  00064	64 89 0d 00 00
	00 00		 mov	 DWORD PTR fs:__except_list, ecx
  0006b	5b		 pop	 ebx
  0006c	8b e5		 mov	 esp, ebp
  0006e	5d		 pop	 ebp
  0006f	c2 14 00	 ret	 20			; 00000014H
$L192821:

; 1134 : 		_CATCH_ALL
; 1135 : 		this->_Alnod.deallocate(_Wherenode, 1);

  00072	8b 55 ec	 mov	 edx, DWORD PTR __Wherenode$[ebp]
  00075	52		 push	 edx
  00076	e8 00 00 00 00	 call	 ??3@YAXPAX@Z		; operator delete
  0007b	83 c4 04	 add	 esp, 4

; 1136 : 		_RERAISE;

  0007e	6a 00		 push	 0
  00080	6a 00		 push	 0
  00082	e8 00 00 00 00	 call	 __CxxThrowException@8
$L192840:
  00087	cc		 int	 3
_TEXT	ENDS
;	COMDAT text$x
text$x	SEGMENT
$L192822:
  00000	8b 45 ec	 mov	 eax, DWORD PTR __Wherenode$[ebp]
  00003	50		 push	 eax
  00004	8b 4d e8	 mov	 ecx, DWORD PTR $T192817[ebp]
  00007	51		 push	 ecx
  00008	e8 00 00 00 00	 call	 ??3@YAXPAX0@Z		; operator delete
  0000d	83 c4 08	 add	 esp, 8
  00010	c3		 ret	 0
__ehhandler$?_Buynode@?$_Tree@V?$_Tmap_traits@HUHonorData@@U?$less@H@std@@V?$allocator@U?$pair@$$CBHUHonorData@@@std@@@3@$0A@@std@@@std@@IAEPAU_Node@?$_Tree_nod@V?$_Tmap_traits@HUHonorData@@U?$less@H@std@@V?$allocator@U?$pair@$$CBHUHonorData@@@std@@@3@$0A@@std@@@2@PAU342@00ABU?$pair@$$CBHUHonorData@@@2@D@Z:
  00011	b8 00 00 00 00	 mov	 eax, OFFSET FLAT:$T192838
  00016	e9 00 00 00 00	 jmp	 ___CxxFrameHandler
text$x	ENDS
?_Buynode@?$_Tree@V?$_Tmap_traits@HUHonorData@@U?$less@H@std@@V?$allocator@U?$pair@$$CBHUHonorData@@@std@@@3@$0A@@std@@@std@@IAEPAU_Node@?$_Tree_nod@V?$_Tmap_traits@HUHonorData@@U?$less@H@std@@V?$allocator@U?$pair@$$CBHUHonorData@@@std@@@3@$0A@@std@@@2@PAU342@00ABU?$pair@$$CBHUHonorData@@@2@D@Z ENDP ; std::_Tree<std::_Tmap_traits<int,HonorData,std::less<int>,std::allocator<std::pair<int const ,HonorData> >,0> >::_Buynode
PUBLIC	?destroy@?$allocator@U_Node@?$_Tree_nod@V?$_Tmap_traits@HUHonorData@@U?$less@H@std@@V?$allocator@U?$pair@$$CBHUHonorData@@@std@@@3@$0A@@std@@@std@@@std@@QAEXPAU_Node@?$_Tree_nod@V?$_Tmap_traits@HUHonorData@@U?$less@H@std@@V?$allocator@U?$pair@$$CBHUHonorData@@@std@@@3@$0A@@std@@@2@@Z ; std::allocator<std::_Tree_nod<std::_Tmap_traits<int,HonorData,std::less<int>,std::allocator<std::pair<int const ,HonorData> >,0> >::_Node>::destroy
; Function compile flags: /Ogty
; File c:\program files\microsoft visual studio .net 2003\vc7\include\xmemory
;	COMDAT ?destroy@?$allocator@U_Node@?$_Tree_nod@V?$_Tmap_traits@HUHonorData@@U?$less@H@std@@V?$allocator@U?$pair@$$CBHUHonorData@@@std@@@3@$0A@@std@@@std@@@std@@QAEXPAU_Node@?$_Tree_nod@V?$_Tmap_traits@HUHonorData@@U?$less@H@std@@V?$allocator@U?$pair@$$CBHUHonorData@@@std@@@3@$0A@@std@@@2@@Z
_TEXT	SEGMENT
__Ptr$ = 8						; size = 4
?destroy@?$allocator@U_Node@?$_Tree_nod@V?$_Tmap_traits@HUHonorData@@U?$less@H@std@@V?$allocator@U?$pair@$$CBHUHonorData@@@std@@@3@$0A@@std@@@std@@@std@@QAEXPAU_Node@?$_Tree_nod@V?$_Tmap_traits@HUHonorData@@U?$less@H@std@@V?$allocator@U?$pair@$$CBHUHonorData@@@std@@@3@$0A@@std@@@2@@Z PROC NEAR ; std::allocator<std::_Tree_nod<std::_Tmap_traits<int,HonorData,std::less<int>,std::allocator<std::pair<int const ,HonorData> >,0> >::_Node>::destroy, COMDAT
; _this$ = ecx

; 152  : 		_Destroy(_Ptr);

  00000	8b 4c 24 04	 mov	 ecx, DWORD PTR __Ptr$[esp-4]
  00004	e8 00 00 00 00	 call	 ??1_Node@?$_Tree_nod@V?$_Tmap_traits@HUHonorData@@U?$less@H@std@@V?$allocator@U?$pair@$$CBHUHonorData@@@std@@@3@$0A@@std@@@std@@QAE@XZ

; 153  : 		}

  00009	c2 04 00	 ret	 4
?destroy@?$allocator@U_Node@?$_Tree_nod@V?$_Tmap_traits@HUHonorData@@U?$less@H@std@@V?$allocator@U?$pair@$$CBHUHonorData@@@std@@@3@$0A@@std@@@std@@@std@@QAEXPAU_Node@?$_Tree_nod@V?$_Tmap_traits@HUHonorData@@U?$less@H@std@@V?$allocator@U?$pair@$$CBHUHonorData@@@std@@@3@$0A@@std@@@2@@Z ENDP ; std::allocator<std::_Tree_nod<std::_Tmap_traits<int,HonorData,std::less<int>,std::allocator<std::pair<int const ,HonorData> >,0> >::_Node>::destroy
_TEXT	ENDS
PUBLIC	??0logic_error@std@@QAE@ABV?$basic_string@DU?$char_traits@D@std@@V?$allocator@D@2@@1@@Z ; std::logic_error::logic_error
EXTRN	??0exception@@QAE@XZ:NEAR			; exception::exception
;	COMDAT xdata$x
; File c:\program files\microsoft visual studio .net 2003\vc7\include\iosfwd
xdata$x	SEGMENT
$T192959 DD	0ffffffffH
	DD	FLAT:$L192859
$T192957 DD	019930520H
	DD	01H
	DD	FLAT:$T192959
	DD	2 DUP(00H)
	DD	2 DUP(00H)
; Function compile flags: /Ogty
; File c:\program files\microsoft visual studio .net 2003\vc7\include\stdexcept
xdata$x	ENDS
;	COMDAT ??0logic_error@std@@QAE@ABV?$basic_string@DU?$char_traits@D@std@@V?$allocator@D@2@@1@@Z
_TEXT	SEGMENT
_this$ = -16						; size = 4
__$EHRec$ = -12						; size = 12
__Message$ = 8						; size = 4
??0logic_error@std@@QAE@ABV?$basic_string@DU?$char_traits@D@std@@V?$allocator@D@2@@1@@Z PROC NEAR ; std::logic_error::logic_error, COMDAT
; _this$ = ecx

; 19   : 		{	// construct from message string

  00000	6a ff		 push	 -1
  00002	68 00 00 00 00	 push	 __ehhandler$??0logic_error@std@@QAE@ABV?$basic_string@DU?$char_traits@D@std@@V?$allocator@D@2@@1@@Z
  00007	64 a1 00 00 00
	00		 mov	 eax, DWORD PTR fs:__except_list
  0000d	50		 push	 eax
  0000e	64 89 25 00 00
	00 00		 mov	 DWORD PTR fs:__except_list, esp
  00015	51		 push	 ecx
  00016	56		 push	 esi
  00017	8b f1		 mov	 esi, ecx
  00019	89 74 24 04	 mov	 DWORD PTR _this$[esp+20], esi
  0001d	e8 00 00 00 00	 call	 ??0exception@@QAE@XZ	; exception::exception
  00022	33 c0		 xor	 eax, eax
  00024	8d 4e 0c	 lea	 ecx, DWORD PTR [esi+12]
  00027	c7 06 00 00 00
	00		 mov	 DWORD PTR [esi], OFFSET FLAT:??_7logic_error@std@@6B@
  0002d	6a ff		 push	 -1
  0002f	89 41 14	 mov	 DWORD PTR [ecx+20], eax
  00032	c7 41 18 0f 00
	00 00		 mov	 DWORD PTR [ecx+24], 15	; 0000000fH
  00039	50		 push	 eax
  0003a	89 44 24 18	 mov	 DWORD PTR __$EHRec$[esp+36], eax
  0003e	88 41 04	 mov	 BYTE PTR [ecx+4], al
  00041	8b 44 24 20	 mov	 eax, DWORD PTR __Message$[esp+24]
  00045	50		 push	 eax
  00046	e8 00 00 00 00	 call	 ?assign@?$basic_string@DU?$char_traits@D@std@@V?$allocator@D@2@@std@@QAEAAV12@ABV12@II@Z ; std::basic_string<char,std::char_traits<char>,std::allocator<char> >::assign

; 20   : 		}

  0004b	8b 4c 24 08	 mov	 ecx, DWORD PTR __$EHRec$[esp+20]
  0004f	8b c6		 mov	 eax, esi
  00051	5e		 pop	 esi
  00052	64 89 0d 00 00
	00 00		 mov	 DWORD PTR fs:__except_list, ecx
  00059	83 c4 10	 add	 esp, 16			; 00000010H
  0005c	c2 04 00	 ret	 4
_TEXT	ENDS
;	COMDAT text$x
text$x	SEGMENT
$L192859:
  00000	8b 4d f0	 mov	 ecx, DWORD PTR _this$[ebp]
  00003	e9 00 00 00 00	 jmp	 ??1exception@@UAE@XZ	; exception::~exception
__ehhandler$??0logic_error@std@@QAE@ABV?$basic_string@DU?$char_traits@D@std@@V?$allocator@D@2@@1@@Z:
  00008	b8 00 00 00 00	 mov	 eax, OFFSET FLAT:$T192957
  0000d	e9 00 00 00 00	 jmp	 ___CxxFrameHandler
text$x	ENDS
??0logic_error@std@@QAE@ABV?$basic_string@DU?$char_traits@D@std@@V?$allocator@D@2@@1@@Z ENDP ; std::logic_error::logic_error
PUBLIC	??0length_error@std@@QAE@ABV?$basic_string@DU?$char_traits@D@std@@V?$allocator@D@2@@1@@Z ; std::length_error::length_error
PUBLIC	??_7length_error@std@@6B@			; std::length_error::`vftable'
PUBLIC	??_Glength_error@std@@UAEPAXI@Z			; std::length_error::`scalar deleting destructor'
EXTRN	??_Elength_error@std@@UAEPAXI@Z:NEAR		; std::length_error::`vector deleting destructor'
;	COMDAT ??_7length_error@std@@6B@
CONST	SEGMENT
??_7length_error@std@@6B@ DD FLAT:??_Elength_error@std@@UAEPAXI@Z ; std::length_error::`vftable'
	DD	FLAT:?what@logic_error@std@@UBEPBDXZ
; Function compile flags: /Ogty
CONST	ENDS
;	COMDAT ??0length_error@std@@QAE@ABV?$basic_string@DU?$char_traits@D@std@@V?$allocator@D@2@@1@@Z
_TEXT	SEGMENT
__Message$ = 8						; size = 4
??0length_error@std@@QAE@ABV?$basic_string@DU?$char_traits@D@std@@V?$allocator@D@2@@1@@Z PROC NEAR ; std::length_error::length_error, COMDAT
; _this$ = ecx

; 95   : 		{	// construct from message string

  00000	8b 44 24 04	 mov	 eax, DWORD PTR __Message$[esp-4]
  00004	56		 push	 esi
  00005	50		 push	 eax
  00006	8b f1		 mov	 esi, ecx
  00008	e8 00 00 00 00	 call	 ??0logic_error@std@@QAE@ABV?$basic_string@DU?$char_traits@D@std@@V?$allocator@D@2@@1@@Z ; std::logic_error::logic_error
  0000d	c7 06 00 00 00
	00		 mov	 DWORD PTR [esi], OFFSET FLAT:??_7length_error@std@@6B@

; 96   : 		}

  00013	8b c6		 mov	 eax, esi
  00015	5e		 pop	 esi
  00016	c2 04 00	 ret	 4
??0length_error@std@@QAE@ABV?$basic_string@DU?$char_traits@D@std@@V?$allocator@D@2@@1@@Z ENDP ; std::length_error::length_error
_TEXT	ENDS
PUBLIC	??1length_error@std@@UAE@XZ			; std::length_error::~length_error
; Function compile flags: /Ogty
;	COMDAT ??_Glength_error@std@@UAEPAXI@Z
_TEXT	SEGMENT
___flags$ = 8						; size = 4
??_Glength_error@std@@UAEPAXI@Z PROC NEAR		; std::length_error::`scalar deleting destructor', COMDAT
; _this$ = ecx
  00000	56		 push	 esi
  00001	8b f1		 mov	 esi, ecx
  00003	e8 00 00 00 00	 call	 ??1length_error@std@@UAE@XZ ; std::length_error::~length_error
  00008	f6 44 24 08 01	 test	 BYTE PTR ___flags$[esp], 1
  0000d	74 09		 je	 SHORT $L192967
  0000f	56		 push	 esi
  00010	e8 00 00 00 00	 call	 ??3@YAXPAX@Z		; operator delete
  00015	83 c4 04	 add	 esp, 4
$L192967:
  00018	8b c6		 mov	 eax, esi
  0001a	5e		 pop	 esi
  0001b	c2 04 00	 ret	 4
??_Glength_error@std@@UAEPAXI@Z ENDP			; std::length_error::`scalar deleting destructor'
; Function compile flags: /Ogty
_TEXT	ENDS
;	COMDAT ??1length_error@std@@UAE@XZ
_TEXT	SEGMENT
??1length_error@std@@UAE@XZ PROC NEAR			; std::length_error::~length_error, COMDAT
; _this$ = ecx

; 99   : 		{}	// destroy the object

  00000	56		 push	 esi
  00001	8b f1		 mov	 esi, ecx
  00003	c7 06 00 00 00
	00		 mov	 DWORD PTR [esi], OFFSET FLAT:??_7logic_error@std@@6B@
  00009	83 7e 24 10	 cmp	 DWORD PTR [esi+36], 16	; 00000010H
  0000d	72 0c		 jb	 SHORT $L193061
  0000f	8b 46 10	 mov	 eax, DWORD PTR [esi+16]
  00012	50		 push	 eax
  00013	e8 00 00 00 00	 call	 ??3@YAXPAX@Z		; operator delete
  00018	83 c4 04	 add	 esp, 4
$L193061:
  0001b	33 c0		 xor	 eax, eax
  0001d	c7 46 24 0f 00
	00 00		 mov	 DWORD PTR [esi+36], 15	; 0000000fH
  00024	89 46 20	 mov	 DWORD PTR [esi+32], eax
  00027	88 46 10	 mov	 BYTE PTR [esi+16], al
  0002a	8b ce		 mov	 ecx, esi
  0002c	5e		 pop	 esi
  0002d	e9 00 00 00 00	 jmp	 ??1exception@@UAE@XZ	; exception::~exception
??1length_error@std@@UAE@XZ ENDP			; std::length_error::~length_error
_TEXT	ENDS
PUBLIC	??0out_of_range@std@@QAE@ABV?$basic_string@DU?$char_traits@D@std@@V?$allocator@D@2@@1@@Z ; std::out_of_range::out_of_range
PUBLIC	??_7out_of_range@std@@6B@			; std::out_of_range::`vftable'
PUBLIC	??_Gout_of_range@std@@UAEPAXI@Z			; std::out_of_range::`scalar deleting destructor'
EXTRN	??_Eout_of_range@std@@UAEPAXI@Z:NEAR		; std::out_of_range::`vector deleting destructor'
;	COMDAT ??_7out_of_range@std@@6B@
CONST	SEGMENT
??_7out_of_range@std@@6B@ DD FLAT:??_Eout_of_range@std@@UAEPAXI@Z ; std::out_of_range::`vftable'
	DD	FLAT:?what@logic_error@std@@UBEPBDXZ
; Function compile flags: /Ogty
CONST	ENDS
;	COMDAT ??0out_of_range@std@@QAE@ABV?$basic_string@DU?$char_traits@D@std@@V?$allocator@D@2@@1@@Z
_TEXT	SEGMENT
__Message$ = 8						; size = 4
??0out_of_range@std@@QAE@ABV?$basic_string@DU?$char_traits@D@std@@V?$allocator@D@2@@1@@Z PROC NEAR ; std::out_of_range::out_of_range, COMDAT
; _this$ = ecx

; 118  : 		{	// construct from message string

  00000	8b 44 24 04	 mov	 eax, DWORD PTR __Message$[esp-4]
  00004	56		 push	 esi
  00005	50		 push	 eax
  00006	8b f1		 mov	 esi, ecx
  00008	e8 00 00 00 00	 call	 ??0logic_error@std@@QAE@ABV?$basic_string@DU?$char_traits@D@std@@V?$allocator@D@2@@1@@Z ; std::logic_error::logic_error
  0000d	c7 06 00 00 00
	00		 mov	 DWORD PTR [esi], OFFSET FLAT:??_7out_of_range@std@@6B@

; 119  : 		}

  00013	8b c6		 mov	 eax, esi
  00015	5e		 pop	 esi
  00016	c2 04 00	 ret	 4
??0out_of_range@std@@QAE@ABV?$basic_string@DU?$char_traits@D@std@@V?$allocator@D@2@@1@@Z ENDP ; std::out_of_range::out_of_range
_TEXT	ENDS
PUBLIC	??1out_of_range@std@@UAE@XZ			; std::out_of_range::~out_of_range
; Function compile flags: /Ogty
;	COMDAT ??_Gout_of_range@std@@UAEPAXI@Z
_TEXT	SEGMENT
___flags$ = 8						; size = 4
??_Gout_of_range@std@@UAEPAXI@Z PROC NEAR		; std::out_of_range::`scalar deleting destructor', COMDAT
; _this$ = ecx
  00000	56		 push	 esi
  00001	8b f1		 mov	 esi, ecx
  00003	e8 00 00 00 00	 call	 ??1out_of_range@std@@UAE@XZ ; std::out_of_range::~out_of_range
  00008	f6 44 24 08 01	 test	 BYTE PTR ___flags$[esp], 1
  0000d	74 09		 je	 SHORT $L193078
  0000f	56		 push	 esi
  00010	e8 00 00 00 00	 call	 ??3@YAXPAX@Z		; operator delete
  00015	83 c4 04	 add	 esp, 4
$L193078:
  00018	8b c6		 mov	 eax, esi
  0001a	5e		 pop	 esi
  0001b	c2 04 00	 ret	 4
??_Gout_of_range@std@@UAEPAXI@Z ENDP			; std::out_of_range::`scalar deleting destructor'
; Function compile flags: /Ogty
_TEXT	ENDS
;	COMDAT ??1out_of_range@std@@UAE@XZ
_TEXT	SEGMENT
??1out_of_range@std@@UAE@XZ PROC NEAR			; std::out_of_range::~out_of_range, COMDAT
; _this$ = ecx

; 122  : 		{}	// destroy the object

  00000	56		 push	 esi
  00001	8b f1		 mov	 esi, ecx
  00003	c7 06 00 00 00
	00		 mov	 DWORD PTR [esi], OFFSET FLAT:??_7logic_error@std@@6B@
  00009	83 7e 24 10	 cmp	 DWORD PTR [esi+36], 16	; 00000010H
  0000d	72 0c		 jb	 SHORT $L193172
  0000f	8b 46 10	 mov	 eax, DWORD PTR [esi+16]
  00012	50		 push	 eax
  00013	e8 00 00 00 00	 call	 ??3@YAXPAX@Z		; operator delete
  00018	83 c4 04	 add	 esp, 4
$L193172:
  0001b	33 c0		 xor	 eax, eax
  0001d	c7 46 24 0f 00
	00 00		 mov	 DWORD PTR [esi+36], 15	; 0000000fH
  00024	89 46 20	 mov	 DWORD PTR [esi+32], eax
  00027	88 46 10	 mov	 BYTE PTR [esi+16], al
  0002a	8b ce		 mov	 ecx, esi
  0002c	5e		 pop	 esi
  0002d	e9 00 00 00 00	 jmp	 ??1exception@@UAE@XZ	; exception::~exception
??1out_of_range@std@@UAE@XZ ENDP			; std::out_of_range::~out_of_range
_TEXT	ENDS
PUBLIC	??0?$basic_string@DU?$char_traits@D@std@@V?$allocator@D@2@@std@@QAE@PBD@Z ; std::basic_string<char,std::char_traits<char>,std::allocator<char> >::basic_string<char,std::char_traits<char>,std::allocator<char> >
; Function compile flags: /Ogty
; File c:\program files\microsoft visual studio .net 2003\vc7\include\xstring
;	COMDAT ??0?$basic_string@DU?$char_traits@D@std@@V?$allocator@D@2@@std@@QAE@PBD@Z
_TEXT	SEGMENT
__Ptr$ = 8						; size = 4
??0?$basic_string@DU?$char_traits@D@std@@V?$allocator@D@2@@std@@QAE@PBD@Z PROC NEAR ; std::basic_string<char,std::char_traits<char>,std::allocator<char> >::basic_string<char,std::char_traits<char>,std::allocator<char> >, COMDAT
; _this$ = ecx

; 361  : 		_Tidy();
; 362  : 		assign(_Ptr);

  00000	8b 54 24 04	 mov	 edx, DWORD PTR __Ptr$[esp-4]
  00004	56		 push	 esi
  00005	8b f1		 mov	 esi, ecx
  00007	8b c2		 mov	 eax, edx
  00009	57		 push	 edi
  0000a	c7 46 18 0f 00
	00 00		 mov	 DWORD PTR [esi+24], 15	; 0000000fH
  00011	c7 46 14 00 00
	00 00		 mov	 DWORD PTR [esi+20], 0
  00018	c6 46 04 00	 mov	 BYTE PTR [esi+4], 0
  0001c	8d 78 01	 lea	 edi, DWORD PTR [eax+1]
  0001f	90		 npad	 1
$L193258:
  00020	8a 08		 mov	 cl, BYTE PTR [eax]
  00022	40		 inc	 eax
  00023	84 c9		 test	 cl, cl
  00025	75 f9		 jne	 SHORT $L193258
  00027	2b c7		 sub	 eax, edi
  00029	50		 push	 eax
  0002a	52		 push	 edx
  0002b	8b ce		 mov	 ecx, esi
  0002d	e8 00 00 00 00	 call	 ?assign@?$basic_string@DU?$char_traits@D@std@@V?$allocator@D@2@@std@@QAEAAV12@PBDI@Z ; std::basic_string<char,std::char_traits<char>,std::allocator<char> >::assign
  00032	5f		 pop	 edi

; 363  : 		}

  00033	8b c6		 mov	 eax, esi
  00035	5e		 pop	 esi
  00036	c2 04 00	 ret	 4
??0?$basic_string@DU?$char_traits@D@std@@V?$allocator@D@2@@std@@QAE@PBD@Z ENDP ; std::basic_string<char,std::char_traits<char>,std::allocator<char> >::basic_string<char,std::char_traits<char>,std::allocator<char> >
_TEXT	ENDS
PUBLIC	?_Erase@?$_Tree@V?$_Tmap_traits@HUHonorData@@U?$less@H@std@@V?$allocator@U?$pair@$$CBHUHonorData@@@std@@@3@$0A@@std@@@std@@IAEXPAU_Node@?$_Tree_nod@V?$_Tmap_traits@HUHonorData@@U?$less@H@std@@V?$allocator@U?$pair@$$CBHUHonorData@@@std@@@3@$0A@@std@@@2@@Z ; std::_Tree<std::_Tmap_traits<int,HonorData,std::less<int>,std::allocator<std::pair<int const ,HonorData> >,0> >::_Erase
; Function compile flags: /Ogty
; File c:\program files\microsoft visual studio .net 2003\vc7\include\xtree
;	COMDAT ?_Erase@?$_Tree@V?$_Tmap_traits@HUHonorData@@U?$less@H@std@@V?$allocator@U?$pair@$$CBHUHonorData@@@std@@@3@$0A@@std@@@std@@IAEXPAU_Node@?$_Tree_nod@V?$_Tmap_traits@HUHonorData@@U?$less@H@std@@V?$allocator@U?$pair@$$CBHUHonorData@@@std@@@3@$0A@@std@@@2@@Z
_TEXT	SEGMENT
__Rootnode$ = 8						; size = 4
?_Erase@?$_Tree@V?$_Tmap_traits@HUHonorData@@U?$less@H@std@@V?$allocator@U?$pair@$$CBHUHonorData@@@std@@@3@$0A@@std@@@std@@IAEXPAU_Node@?$_Tree_nod@V?$_Tmap_traits@HUHonorData@@U?$less@H@std@@V?$allocator@U?$pair@$$CBHUHonorData@@@std@@@3@$0A@@std@@@2@@Z PROC NEAR ; std::_Tree<std::_Tmap_traits<int,HonorData,std::less<int>,std::allocator<std::pair<int const ,HonorData> >,0> >::_Erase, COMDAT
; _this$ = ecx

; 890  : 		{	// free entire subtree, recursively

  00000	53		 push	 ebx
  00001	56		 push	 esi
  00002	57		 push	 edi

; 891  : 		for (_Nodeptr _Pnode = _Rootnode; !_Isnil(_Pnode); _Rootnode = _Pnode)

  00003	8b 7c 24 10	 mov	 edi, DWORD PTR __Rootnode$[esp+8]
  00007	8a 47 29	 mov	 al, BYTE PTR [edi+41]
  0000a	84 c0		 test	 al, al
  0000c	8b d9		 mov	 ebx, ecx
  0000e	8b f7		 mov	 esi, edi
  00010	75 26		 jne	 SHORT $L187810
$L187808:

; 892  : 			{	// free subtrees, then node
; 893  : 			_Erase(_Right(_Pnode));

  00012	8b 46 08	 mov	 eax, DWORD PTR [esi+8]
  00015	50		 push	 eax
  00016	8b cb		 mov	 ecx, ebx
  00018	e8 00 00 00 00	 call	 ?_Erase@?$_Tree@V?$_Tmap_traits@HUHonorData@@U?$less@H@std@@V?$allocator@U?$pair@$$CBHUHonorData@@@std@@@3@$0A@@std@@@std@@IAEXPAU_Node@?$_Tree_nod@V?$_Tmap_traits@HUHonorData@@U?$less@H@std@@V?$allocator@U?$pair@$$CBHUHonorData@@@std@@@3@$0A@@std@@@2@@Z ; std::_Tree<std::_Tmap_traits<int,HonorData,std::less<int>,std::allocator<std::pair<int const ,HonorData> >,0> >::_Erase

; 894  : 			_Pnode = _Left(_Pnode);

  0001d	8b 36		 mov	 esi, DWORD PTR [esi]

; 895  : 			this->_Alnod.destroy(_Rootnode);	// destroy, free erased node

  0001f	8b cf		 mov	 ecx, edi
  00021	e8 00 00 00 00	 call	 ??1_Node@?$_Tree_nod@V?$_Tmap_traits@HUHonorData@@U?$less@H@std@@V?$allocator@U?$pair@$$CBHUHonorData@@@std@@@3@$0A@@std@@@std@@QAE@XZ

; 896  : 			this->_Alnod.deallocate(_Rootnode, 1);

  00026	57		 push	 edi
  00027	e8 00 00 00 00	 call	 ??3@YAXPAX@Z		; operator delete
  0002c	8a 46 29	 mov	 al, BYTE PTR [esi+41]
  0002f	83 c4 04	 add	 esp, 4
  00032	84 c0		 test	 al, al
  00034	8b fe		 mov	 edi, esi
  00036	74 da		 je	 SHORT $L187808
$L187810:
  00038	5f		 pop	 edi
  00039	5e		 pop	 esi
  0003a	5b		 pop	 ebx

; 897  : 			}
; 898  : 		}

  0003b	c2 04 00	 ret	 4
?_Erase@?$_Tree@V?$_Tmap_traits@HUHonorData@@U?$less@H@std@@V?$allocator@U?$pair@$$CBHUHonorData@@@std@@@3@$0A@@std@@@std@@IAEXPAU_Node@?$_Tree_nod@V?$_Tmap_traits@HUHonorData@@U?$less@H@std@@V?$allocator@U?$pair@$$CBHUHonorData@@@std@@@3@$0A@@std@@@2@@Z ENDP ; std::_Tree<std::_Tmap_traits<int,HonorData,std::less<int>,std::allocator<std::pair<int const ,HonorData> >,0> >::_Erase
_TEXT	ENDS
PUBLIC	??_R0?AVlogic_error@std@@@8			; std::logic_error `RTTI Type Descriptor'
PUBLIC	__CT??_R0?AVlogic_error@std@@@8??0logic_error@std@@QAE@ABV01@@Z40
PUBLIC	??_R0?AVexception@@@8				; exception `RTTI Type Descriptor'
PUBLIC	__CT??_R0?AVexception@@@8??0exception@@QAE@ABV0@@Z12
PUBLIC	??0logic_error@std@@QAE@ABV01@@Z		; std::logic_error::logic_error
PUBLIC	??0length_error@std@@QAE@ABV01@@Z		; std::length_error::length_error
PUBLIC	__TI3?AVlength_error@std@@
PUBLIC	__CTA3?AVlength_error@std@@
PUBLIC	??_R0?AVlength_error@std@@@8			; std::length_error `RTTI Type Descriptor'
PUBLIC	__CT??_R0?AVlength_error@std@@@8??0length_error@std@@QAE@ABV01@@Z40
PUBLIC	??_C@_0BE@JONHPENG@map?1set?$DMT?$DO?5too?5long?$AA@ ; `string'
PUBLIC	?_Insert@?$_Tree@V?$_Tmap_traits@HUHonorData@@U?$less@H@std@@V?$allocator@U?$pair@$$CBHUHonorData@@@std@@@3@$0A@@std@@@std@@IAE?AViterator@12@_NPAU_Node@?$_Tree_nod@V?$_Tmap_traits@HUHonorData@@U?$less@H@std@@V?$allocator@U?$pair@$$CBHUHonorData@@@std@@@3@$0A@@std@@@2@ABU?$pair@$$CBHUHonorData@@@2@@Z ; std::_Tree<std::_Tmap_traits<int,HonorData,std::less<int>,std::allocator<std::pair<int const ,HonorData> >,0> >::_Insert
EXTRN	??0exception@@QAE@ABV0@@Z:NEAR			; exception::exception
EXTRN	??_7type_info@@6B@:DWORD			; type_info::`vftable'
;	COMDAT xdata$x
xdata$x	SEGMENT
$T193667 DD	0ffffffffH
	DD	FLAT:$L193297
$T193662 DD	019930520H
	DD	01H
	DD	FLAT:$T193667
	DD	2 DUP(00H)
	DD	2 DUP(00H)
xdata$x	ENDS
;	COMDAT ??_C@_0BE@JONHPENG@map?1set?$DMT?$DO?5too?5long?$AA@
CONST	SEGMENT
??_C@_0BE@JONHPENG@map?1set?$DMT?$DO?5too?5long?$AA@ DB 'map/set<T> too l'
	DB	'ong', 00H					; `string'
CONST	ENDS
;	COMDAT __TI3?AVlength_error@std@@
xdata$x	SEGMENT
__TI3?AVlength_error@std@@ DD 00H
	DD	FLAT:??1length_error@std@@UAE@XZ
	DD	00H
	DD	FLAT:__CTA3?AVlength_error@std@@
xdata$x	ENDS
;	COMDAT __CTA3?AVlength_error@std@@
xdata$x	SEGMENT
__CTA3?AVlength_error@std@@ DD 03H
	DD	FLAT:__CT??_R0?AVlength_error@std@@@8??0length_error@std@@QAE@ABV01@@Z40
	DD	FLAT:__CT??_R0?AVlogic_error@std@@@8??0logic_error@std@@QAE@ABV01@@Z40
	DD	FLAT:__CT??_R0?AVexception@@@8??0exception@@QAE@ABV0@@Z12
xdata$x	ENDS
;	COMDAT __CT??_R0?AVlength_error@std@@@8??0length_error@std@@QAE@ABV01@@Z40
xdata$x	SEGMENT
__CT??_R0?AVlength_error@std@@@8??0length_error@std@@QAE@ABV01@@Z40 DD 00H
	DD	FLAT:??_R0?AVlength_error@std@@@8
	DD	00H
	DD	0ffffffffH
	ORG $+4
	DD	028H
	DD	FLAT:??0length_error@std@@QAE@ABV01@@Z
xdata$x	ENDS
;	COMDAT ??_R0?AVlength_error@std@@@8
_DATA	SEGMENT
??_R0?AVlength_error@std@@@8 DD FLAT:??_7type_info@@6B@	; std::length_error `RTTI Type Descriptor'
	DD	00H
	DB	'.?AVlength_error@std@@', 00H
_DATA	ENDS
;	COMDAT __CT??_R0?AVlogic_error@std@@@8??0logic_error@std@@QAE@ABV01@@Z40
xdata$x	SEGMENT
__CT??_R0?AVlogic_error@std@@@8??0logic_error@std@@QAE@ABV01@@Z40 DD 00H
	DD	FLAT:??_R0?AVlogic_error@std@@@8
	DD	00H
	DD	0ffffffffH
	ORG $+4
	DD	028H
	DD	FLAT:??0logic_error@std@@QAE@ABV01@@Z
xdata$x	ENDS
;	COMDAT ??_R0?AVlogic_error@std@@@8
_DATA	SEGMENT
??_R0?AVlogic_error@std@@@8 DD FLAT:??_7type_info@@6B@	; std::logic_error `RTTI Type Descriptor'
	DD	00H
	DB	'.?AVlogic_error@std@@', 00H
_DATA	ENDS
;	COMDAT __CT??_R0?AVexception@@@8??0exception@@QAE@ABV0@@Z12
xdata$x	SEGMENT
__CT??_R0?AVexception@@@8??0exception@@QAE@ABV0@@Z12 DD 00H
	DD	FLAT:??_R0?AVexception@@@8
	DD	00H
	DD	0ffffffffH
	ORG $+4
	DD	0cH
	DD	FLAT:??0exception@@QAE@ABV0@@Z
xdata$x	ENDS
;	COMDAT ??_R0?AVexception@@@8
_DATA	SEGMENT
??_R0?AVexception@@@8 DD FLAT:??_7type_info@@6B@	; exception `RTTI Type Descriptor'
	DD	00H
	DB	'.?AVexception@@', 00H
; Function compile flags: /Ogty
_DATA	ENDS
;	COMDAT ?_Insert@?$_Tree@V?$_Tmap_traits@HUHonorData@@U?$less@H@std@@V?$allocator@U?$pair@$$CBHUHonorData@@@std@@@3@$0A@@std@@@std@@IAE?AViterator@12@_NPAU_Node@?$_Tree_nod@V?$_Tmap_traits@HUHonorData@@U?$less@H@std@@V?$allocator@U?$pair@$$CBHUHonorData@@@std@@@3@$0A@@std@@@2@ABU?$pair@$$CBHUHonorData@@@2@@Z
_TEXT	SEGMENT
$T193296 = -80						; size = 28
$T193295 = -52						; size = 40
__$EHRec$ = -12						; size = 12
___$ReturnUdt$ = 8					; size = 4
__Addleft$ = 12						; size = 1
__Wherenode$ = 16					; size = 4
__Newnode$ = 20						; size = 4
__Val$ = 20						; size = 4
?_Insert@?$_Tree@V?$_Tmap_traits@HUHonorData@@U?$less@H@std@@V?$allocator@U?$pair@$$CBHUHonorData@@@std@@@3@$0A@@std@@@std@@IAE?AViterator@12@_NPAU_Node@?$_Tree_nod@V?$_Tmap_traits@HUHonorData@@U?$less@H@std@@V?$allocator@U?$pair@$$CBHUHonorData@@@std@@@3@$0A@@std@@@2@ABU?$pair@$$CBHUHonorData@@@2@@Z PROC NEAR ; std::_Tree<std::_Tmap_traits<int,HonorData,std::less<int>,std::allocator<std::pair<int const ,HonorData> >,0> >::_Insert, COMDAT
; _this$ = ecx

; 911  : 		{	// add node with value next to _Wherenode, to left if _Addnode

  00000	64 a1 00 00 00
	00		 mov	 eax, DWORD PTR fs:__except_list
  00006	6a ff		 push	 -1
  00008	68 00 00 00 00	 push	 __ehhandler$?_Insert@?$_Tree@V?$_Tmap_traits@HUHonorData@@U?$less@H@std@@V?$allocator@U?$pair@$$CBHUHonorData@@@std@@@3@$0A@@std@@@std@@IAE?AViterator@12@_NPAU_Node@?$_Tree_nod@V?$_Tmap_traits@HUHonorData@@U?$less@H@std@@V?$allocator@U?$pair@$$CBHUHonorData@@@std@@@3@$0A@@std@@@2@ABU?$pair@$$CBHUHonorData@@@2@@Z
  0000d	50		 push	 eax
  0000e	64 89 25 00 00
	00 00		 mov	 DWORD PTR fs:__except_list, esp
  00015	83 ec 44	 sub	 esp, 68			; 00000044H
  00018	56		 push	 esi
  00019	57		 push	 edi
  0001a	8b f9		 mov	 edi, ecx

; 912  : 		if (max_size() - 1 <= _Mysize)

  0001c	81 7f 08 48 92
	24 09		 cmp	 DWORD PTR [edi+8], 153391688 ; 09249248H
  00023	72 4c		 jb	 SHORT $L187814

; 913  : 			_THROW(length_error, "map/set<T> too long");

  00025	6a 13		 push	 19			; 00000013H
  00027	33 f6		 xor	 esi, esi
  00029	68 00 00 00 00	 push	 OFFSET FLAT:??_C@_0BE@JONHPENG@map?1set?$DMT?$DO?5too?5long?$AA@
  0002e	8d 4c 24 10	 lea	 ecx, DWORD PTR $T193296[esp+96]
  00032	c7 44 24 28 0f
	00 00 00	 mov	 DWORD PTR $T193296[esp+120], 15 ; 0000000fH
  0003a	89 74 24 24	 mov	 DWORD PTR $T193296[esp+116], esi
  0003e	c6 44 24 14 00	 mov	 BYTE PTR $T193296[esp+100], 0
  00043	e8 00 00 00 00	 call	 ?assign@?$basic_string@DU?$char_traits@D@std@@V?$allocator@D@2@@std@@QAEAAV12@PBDI@Z ; std::basic_string<char,std::char_traits<char>,std::allocator<char> >::assign
  00048	8d 44 24 08	 lea	 eax, DWORD PTR $T193296[esp+88]
  0004c	50		 push	 eax
  0004d	8d 4c 24 28	 lea	 ecx, DWORD PTR $T193295[esp+92]
  00051	89 74 24 58	 mov	 DWORD PTR __$EHRec$[esp+100], esi
  00055	e8 00 00 00 00	 call	 ??0logic_error@std@@QAE@ABV?$basic_string@DU?$char_traits@D@std@@V?$allocator@D@2@@1@@Z ; std::logic_error::logic_error
  0005a	68 00 00 00 00	 push	 OFFSET FLAT:__TI3?AVlength_error@std@@
  0005f	8d 4c 24 28	 lea	 ecx, DWORD PTR $T193295[esp+92]
  00063	51		 push	 ecx
  00064	c7 44 24 2c 00
	00 00 00	 mov	 DWORD PTR $T193295[esp+96], OFFSET FLAT:??_7length_error@std@@6B@
  0006c	e8 00 00 00 00	 call	 __CxxThrowException@8
$L187814:

; 914  : 		_Nodeptr _Newnode = _Buynode(_Myhead, _Wherenode, _Myhead,
; 915  : 			_Val, _Red);

  00071	8b 54 24 68	 mov	 edx, DWORD PTR __Val$[esp+84]
  00075	8b 47 04	 mov	 eax, DWORD PTR [edi+4]
  00078	8b 74 24 64	 mov	 esi, DWORD PTR __Wherenode$[esp+84]
  0007c	53		 push	 ebx
  0007d	6a 00		 push	 0
  0007f	52		 push	 edx
  00080	50		 push	 eax
  00081	56		 push	 esi
  00082	50		 push	 eax
  00083	8b cf		 mov	 ecx, edi
  00085	e8 00 00 00 00	 call	 ?_Buynode@?$_Tree@V?$_Tmap_traits@HUHonorData@@U?$less@H@std@@V?$allocator@U?$pair@$$CBHUHonorData@@@std@@@3@$0A@@std@@@std@@IAEPAU_Node@?$_Tree_nod@V?$_Tmap_traits@HUHonorData@@U?$less@H@std@@V?$allocator@U?$pair@$$CBHUHonorData@@@std@@@3@$0A@@std@@@2@PAU342@00ABU?$pair@$$CBHUHonorData@@@2@D@Z ; std::_Tree<std::_Tmap_traits<int,HonorData,std::less<int>,std::allocator<std::pair<int const ,HonorData> >,0> >::_Buynode

; 916  : 
; 917  : 		++_Mysize;

  0008a	8b 5f 08	 mov	 ebx, DWORD PTR [edi+8]
  0008d	8b c8		 mov	 ecx, eax

; 918  : 		if (_Wherenode == _Myhead)

  0008f	8b 47 04	 mov	 eax, DWORD PTR [edi+4]
  00092	43		 inc	 ebx
  00093	3b f0		 cmp	 esi, eax
  00095	89 4c 24 6c	 mov	 DWORD PTR __Newnode$[esp+88], ecx
  00099	89 5f 08	 mov	 DWORD PTR [edi+8], ebx
  0009c	75 10		 jne	 SHORT $L187819

; 919  : 			{	// first node in tree, just set head values
; 920  : 			_Root() = _Newnode;

  0009e	89 48 04	 mov	 DWORD PTR [eax+4], ecx

; 921  : 			_Lmost() = _Newnode, _Rmost() = _Newnode;

  000a1	8b 47 04	 mov	 eax, DWORD PTR [edi+4]
  000a4	89 08		 mov	 DWORD PTR [eax], ecx
  000a6	8b 57 04	 mov	 edx, DWORD PTR [edi+4]
  000a9	89 4a 08	 mov	 DWORD PTR [edx+8], ecx

; 922  : 			}
; 923  : 		else if (_Addleft)

  000ac	eb 23		 jmp	 SHORT $L187824
$L187819:
  000ae	8a 44 24 64	 mov	 al, BYTE PTR __Addleft$[esp+88]
  000b2	84 c0		 test	 al, al
  000b4	74 0d		 je	 SHORT $L187821

; 924  : 			{	// add to left of _Wherenode
; 925  : 			_Left(_Wherenode) = _Newnode;

  000b6	89 0e		 mov	 DWORD PTR [esi], ecx

; 926  : 			if (_Wherenode == _Lmost())

  000b8	8b 47 04	 mov	 eax, DWORD PTR [edi+4]
  000bb	3b 30		 cmp	 esi, DWORD PTR [eax]
  000bd	75 12		 jne	 SHORT $L187824

; 927  : 				_Lmost() = _Newnode;

  000bf	89 08		 mov	 DWORD PTR [eax], ecx

; 928  : 			}
; 929  : 		else

  000c1	eb 0e		 jmp	 SHORT $L187824
$L187821:

; 930  : 			{	// add to right of _Wherenode
; 931  : 			_Right(_Wherenode) = _Newnode;

  000c3	89 4e 08	 mov	 DWORD PTR [esi+8], ecx

; 932  : 			if (_Wherenode == _Rmost())

  000c6	8b 47 04	 mov	 eax, DWORD PTR [edi+4]
  000c9	3b 70 08	 cmp	 esi, DWORD PTR [eax+8]
  000cc	75 03		 jne	 SHORT $L187824

; 933  : 				_Rmost() = _Newnode;

  000ce	89 48 08	 mov	 DWORD PTR [eax+8], ecx
$L187824:

; 934  : 			}
; 935  : 
; 936  : 		for (_Nodeptr _Pnode = _Newnode; _Color(_Parent(_Pnode)) == _Red; )

  000d1	8b 51 04	 mov	 edx, DWORD PTR [ecx+4]
  000d4	80 7a 28 00	 cmp	 BYTE PTR [edx+40], 0
  000d8	8d 41 04	 lea	 eax, DWORD PTR [ecx+4]
  000db	8b f1		 mov	 esi, ecx
  000dd	b3 01		 mov	 bl, 1
  000df	0f 85 a5 00 00
	00		 jne	 $L187828
  000e5	55		 push	 ebp
$L187827:

; 937  : 			if (_Parent(_Pnode) == _Left(_Parent(_Parent(_Pnode))))

  000e6	8b 08		 mov	 ecx, DWORD PTR [eax]
  000e8	8b 69 04	 mov	 ebp, DWORD PTR [ecx+4]
  000eb	8b 55 00	 mov	 edx, DWORD PTR [ebp]
  000ee	3b ca		 cmp	 ecx, edx
  000f0	75 50		 jne	 SHORT $L187829

; 938  : 				{	// fixup red-red in left subtree
; 939  : 				_Wherenode = _Right(_Parent(_Parent(_Pnode)));

  000f2	8b 55 08	 mov	 edx, DWORD PTR [ebp+8]

; 940  : 				if (_Color(_Wherenode) == _Red)

  000f5	80 7a 28 00	 cmp	 BYTE PTR [edx+40], 0
  000f9	75 18		 jne	 SHORT $L187830
$L193666:

; 941  : 					{	// parent has two red children, blacken both
; 942  : 					_Color(_Parent(_Pnode)) = _Black;

  000fb	8b 08		 mov	 ecx, DWORD PTR [eax]
  000fd	88 59 28	 mov	 BYTE PTR [ecx+40], bl

; 943  : 					_Color(_Wherenode) = _Black;

  00100	88 5a 28	 mov	 BYTE PTR [edx+40], bl

; 944  : 					_Color(_Parent(_Parent(_Pnode))) = _Red;

  00103	8b 10		 mov	 edx, DWORD PTR [eax]
  00105	8b 4a 04	 mov	 ecx, DWORD PTR [edx+4]
  00108	c6 41 28 00	 mov	 BYTE PTR [ecx+40], 0

; 945  : 					_Pnode = _Parent(_Parent(_Pnode));

  0010c	8b 10		 mov	 edx, DWORD PTR [eax]
  0010e	8b 72 04	 mov	 esi, DWORD PTR [edx+4]

; 946  : 					}
; 947  : 				else

  00111	eb 61		 jmp	 SHORT $L187835
$L187830:

; 948  : 					{	// parent has red and black children
; 949  : 					if (_Pnode == _Right(_Parent(_Pnode)))

  00113	3b 71 08	 cmp	 esi, DWORD PTR [ecx+8]
  00116	75 0a		 jne	 SHORT $L187832

; 950  : 						{	// rotate right child to left
; 951  : 						_Pnode = _Parent(_Pnode);

  00118	8b f1		 mov	 esi, ecx

; 952  : 						_Lrotate(_Pnode);

  0011a	56		 push	 esi
  0011b	8b cf		 mov	 ecx, edi
  0011d	e8 00 00 00 00	 call	 ?_Lrotate@?$_Tree@V?$_Tmap_traits@HUHonorData@@U?$less@H@std@@V?$allocator@U?$pair@$$CBHUHonorData@@@std@@@3@$0A@@std@@@std@@IAEXPAU_Node@?$_Tree_nod@V?$_Tmap_traits@HUHonorData@@U?$less@H@std@@V?$allocator@U?$pair@$$CBHUHonorData@@@std@@@3@$0A@@std@@@2@@Z ; std::_Tree<std::_Tmap_traits<int,HonorData,std::less<int>,std::allocator<std::pair<int const ,HonorData> >,0> >::_Lrotate
$L187832:

; 953  : 						}
; 954  : 					_Color(_Parent(_Pnode)) = _Black;	// propagate red up

  00122	8b 46 04	 mov	 eax, DWORD PTR [esi+4]
  00125	88 58 28	 mov	 BYTE PTR [eax+40], bl

; 955  : 					_Color(_Parent(_Parent(_Pnode))) = _Red;

  00128	8b 4e 04	 mov	 ecx, DWORD PTR [esi+4]
  0012b	8b 51 04	 mov	 edx, DWORD PTR [ecx+4]
  0012e	c6 42 28 00	 mov	 BYTE PTR [edx+40], 0

; 956  : 					_Rrotate(_Parent(_Parent(_Pnode)));

  00132	8b 46 04	 mov	 eax, DWORD PTR [esi+4]
  00135	8b 48 04	 mov	 ecx, DWORD PTR [eax+4]
  00138	51		 push	 ecx
  00139	8b cf		 mov	 ecx, edi
  0013b	e8 00 00 00 00	 call	 ?_Rrotate@?$_Tree@V?$_Tmap_traits@HUHonorData@@U?$less@H@std@@V?$allocator@U?$pair@$$CBHUHonorData@@@std@@@3@$0A@@std@@@std@@IAEXPAU_Node@?$_Tree_nod@V?$_Tmap_traits@HUHonorData@@U?$less@H@std@@V?$allocator@U?$pair@$$CBHUHonorData@@@std@@@3@$0A@@std@@@2@@Z ; std::_Tree<std::_Tmap_traits<int,HonorData,std::less<int>,std::allocator<std::pair<int const ,HonorData> >,0> >::_Rrotate

; 957  : 					}
; 958  : 				}
; 959  : 			else

  00140	eb 32		 jmp	 SHORT $L187835
$L187829:

; 960  : 				{	// fixup red-red in right subtree
; 961  : 				_Wherenode = _Left(_Parent(_Parent(_Pnode)));
; 962  : 				if (_Color(_Wherenode) == _Red)

  00142	80 7a 28 00	 cmp	 BYTE PTR [edx+40], 0

; 963  : 					{	// parent has two red children, blacken both
; 964  : 					_Color(_Parent(_Pnode)) = _Black;
; 965  : 					_Color(_Wherenode) = _Black;
; 966  : 					_Color(_Parent(_Parent(_Pnode))) = _Red;
; 967  : 					_Pnode = _Parent(_Parent(_Pnode));
; 968  : 					}
; 969  : 				else

  00146	74 b3		 je	 SHORT $L193666

; 970  : 					{	// parent has red and black children
; 971  : 					if (_Pnode == _Left(_Parent(_Pnode)))

  00148	3b 31		 cmp	 esi, DWORD PTR [ecx]
  0014a	75 0a		 jne	 SHORT $L187836

; 972  : 						{	// rotate left child to right
; 973  : 						_Pnode = _Parent(_Pnode);

  0014c	8b f1		 mov	 esi, ecx

; 974  : 						_Rrotate(_Pnode);

  0014e	56		 push	 esi
  0014f	8b cf		 mov	 ecx, edi
  00151	e8 00 00 00 00	 call	 ?_Rrotate@?$_Tree@V?$_Tmap_traits@HUHonorData@@U?$less@H@std@@V?$allocator@U?$pair@$$CBHUHonorData@@@std@@@3@$0A@@std@@@std@@IAEXPAU_Node@?$_Tree_nod@V?$_Tmap_traits@HUHonorData@@U?$less@H@std@@V?$allocator@U?$pair@$$CBHUHonorData@@@std@@@3@$0A@@std@@@2@@Z ; std::_Tree<std::_Tmap_traits<int,HonorData,std::less<int>,std::allocator<std::pair<int const ,HonorData> >,0> >::_Rrotate
$L187836:

; 975  : 						}
; 976  : 					_Color(_Parent(_Pnode)) = _Black;	// propagate red up

  00156	8b 46 04	 mov	 eax, DWORD PTR [esi+4]
  00159	88 58 28	 mov	 BYTE PTR [eax+40], bl

; 977  : 					_Color(_Parent(_Parent(_Pnode))) = _Red;

  0015c	8b 4e 04	 mov	 ecx, DWORD PTR [esi+4]
  0015f	8b 51 04	 mov	 edx, DWORD PTR [ecx+4]
  00162	c6 42 28 00	 mov	 BYTE PTR [edx+40], 0

; 978  : 					_Lrotate(_Parent(_Parent(_Pnode)));

  00166	8b 46 04	 mov	 eax, DWORD PTR [esi+4]
  00169	8b 48 04	 mov	 ecx, DWORD PTR [eax+4]
  0016c	51		 push	 ecx
  0016d	8b cf		 mov	 ecx, edi
  0016f	e8 00 00 00 00	 call	 ?_Lrotate@?$_Tree@V?$_Tmap_traits@HUHonorData@@U?$less@H@std@@V?$allocator@U?$pair@$$CBHUHonorData@@@std@@@3@$0A@@std@@@std@@IAEXPAU_Node@?$_Tree_nod@V?$_Tmap_traits@HUHonorData@@U?$less@H@std@@V?$allocator@U?$pair@$$CBHUHonorData@@@std@@@3@$0A@@std@@@2@@Z ; std::_Tree<std::_Tmap_traits<int,HonorData,std::less<int>,std::allocator<std::pair<int const ,HonorData> >,0> >::_Lrotate
$L187835:
  00174	8b 56 04	 mov	 edx, DWORD PTR [esi+4]
  00177	8a 4a 28	 mov	 cl, BYTE PTR [edx+40]
  0017a	84 c9		 test	 cl, cl
  0017c	8d 46 04	 lea	 eax, DWORD PTR [esi+4]
  0017f	0f 84 61 ff ff
	ff		 je	 $L187827
  00185	8b 4c 24 70	 mov	 ecx, DWORD PTR __Newnode$[esp+92]
  00189	5d		 pop	 ebp
$L187828:

; 979  : 					}
; 980  : 				}
; 981  : 
; 982  : 		_Color(_Root()) = _Black;	// root is always black

  0018a	8b 47 04	 mov	 eax, DWORD PTR [edi+4]
  0018d	8b 50 04	 mov	 edx, DWORD PTR [eax+4]

; 983  : 		return (_TREE_ITERATOR(_Newnode));

  00190	8b 44 24 60	 mov	 eax, DWORD PTR ___$ReturnUdt$[esp+88]
  00194	88 5a 28	 mov	 BYTE PTR [edx+40], bl
  00197	5b		 pop	 ebx
  00198	89 08		 mov	 DWORD PTR [eax], ecx

; 984  : 		}

  0019a	8b 4c 24 4c	 mov	 ecx, DWORD PTR __$EHRec$[esp+88]
  0019e	5f		 pop	 edi
  0019f	5e		 pop	 esi
  001a0	64 89 0d 00 00
	00 00		 mov	 DWORD PTR fs:__except_list, ecx
  001a7	83 c4 50	 add	 esp, 80			; 00000050H
  001aa	c2 10 00	 ret	 16			; 00000010H
$L193665:
_TEXT	ENDS
;	COMDAT text$x
text$x	SEGMENT
$L193297:
  00000	8d 4d b0	 lea	 ecx, DWORD PTR $T193296[ebp]
  00003	e9 00 00 00 00	 jmp	 ??1?$basic_string@DU?$char_traits@D@std@@V?$allocator@D@2@@std@@QAE@XZ ; std::basic_string<char,std::char_traits<char>,std::allocator<char> >::~basic_string<char,std::char_traits<char>,std::allocator<char> >
__ehhandler$?_Insert@?$_Tree@V?$_Tmap_traits@HUHonorData@@U?$less@H@std@@V?$allocator@U?$pair@$$CBHUHonorData@@@std@@@3@$0A@@std@@@std@@IAE?AViterator@12@_NPAU_Node@?$_Tree_nod@V?$_Tmap_traits@HUHonorData@@U?$less@H@std@@V?$allocator@U?$pair@$$CBHUHonorData@@@std@@@3@$0A@@std@@@2@ABU?$pair@$$CBHUHonorData@@@2@@Z:
  00008	b8 00 00 00 00	 mov	 eax, OFFSET FLAT:$T193662
  0000d	e9 00 00 00 00	 jmp	 ___CxxFrameHandler
text$x	ENDS
?_Insert@?$_Tree@V?$_Tmap_traits@HUHonorData@@U?$less@H@std@@V?$allocator@U?$pair@$$CBHUHonorData@@@std@@@3@$0A@@std@@@std@@IAE?AViterator@12@_NPAU_Node@?$_Tree_nod@V?$_Tmap_traits@HUHonorData@@U?$less@H@std@@V?$allocator@U?$pair@$$CBHUHonorData@@@std@@@3@$0A@@std@@@2@ABU?$pair@$$CBHUHonorData@@@2@@Z ENDP ; std::_Tree<std::_Tmap_traits<int,HonorData,std::less<int>,std::allocator<std::pair<int const ,HonorData> >,0> >::_Insert
;	COMDAT xdata$x
xdata$x	SEGMENT
$T193772 DD	0ffffffffH
	DD	FLAT:$L193672
$T193770 DD	019930520H
	DD	01H
	DD	FLAT:$T193772
	DD	2 DUP(00H)
	DD	2 DUP(00H)
; Function compile flags: /Ogty
xdata$x	ENDS
;	COMDAT ??0logic_error@std@@QAE@ABV01@@Z
_TEXT	SEGMENT
_this$ = -16						; size = 4
__$EHRec$ = -12						; size = 12
___that$ = 8						; size = 4
??0logic_error@std@@QAE@ABV01@@Z PROC NEAR		; std::logic_error::logic_error, COMDAT
; _this$ = ecx
  00000	6a ff		 push	 -1
  00002	68 00 00 00 00	 push	 __ehhandler$??0logic_error@std@@QAE@ABV01@@Z
  00007	64 a1 00 00 00
	00		 mov	 eax, DWORD PTR fs:__except_list
  0000d	50		 push	 eax
  0000e	64 89 25 00 00
	00 00		 mov	 DWORD PTR fs:__except_list, esp
  00015	51		 push	 ecx
  00016	56		 push	 esi
  00017	57		 push	 edi
  00018	8b 7c 24 1c	 mov	 edi, DWORD PTR ___that$[esp+20]
  0001c	8b f1		 mov	 esi, ecx
  0001e	57		 push	 edi
  0001f	89 74 24 0c	 mov	 DWORD PTR _this$[esp+28], esi
  00023	e8 00 00 00 00	 call	 ??0exception@@QAE@ABV0@@Z ; exception::exception
  00028	33 c0		 xor	 eax, eax
  0002a	6a ff		 push	 -1
  0002c	8d 4e 0c	 lea	 ecx, DWORD PTR [esi+12]
  0002f	c7 06 00 00 00
	00		 mov	 DWORD PTR [esi], OFFSET FLAT:??_7logic_error@std@@6B@
  00035	50		 push	 eax
  00036	83 c7 0c	 add	 edi, 12			; 0000000cH
  00039	c7 41 18 0f 00
	00 00		 mov	 DWORD PTR [ecx+24], 15	; 0000000fH
  00040	89 41 14	 mov	 DWORD PTR [ecx+20], eax
  00043	57		 push	 edi
  00044	89 44 24 20	 mov	 DWORD PTR __$EHRec$[esp+44], eax
  00048	88 41 04	 mov	 BYTE PTR [ecx+4], al
  0004b	e8 00 00 00 00	 call	 ?assign@?$basic_string@DU?$char_traits@D@std@@V?$allocator@D@2@@std@@QAEAAV12@ABV12@II@Z ; std::basic_string<char,std::char_traits<char>,std::allocator<char> >::assign
  00050	8b 4c 24 0c	 mov	 ecx, DWORD PTR __$EHRec$[esp+24]
  00054	5f		 pop	 edi
  00055	8b c6		 mov	 eax, esi
  00057	5e		 pop	 esi
  00058	64 89 0d 00 00
	00 00		 mov	 DWORD PTR fs:__except_list, ecx
  0005f	83 c4 10	 add	 esp, 16			; 00000010H
  00062	c2 04 00	 ret	 4
_TEXT	ENDS
;	COMDAT text$x
text$x	SEGMENT
$L193672:
  00000	8b 4d f0	 mov	 ecx, DWORD PTR _this$[ebp]
  00003	e9 00 00 00 00	 jmp	 ??1exception@@UAE@XZ	; exception::~exception
__ehhandler$??0logic_error@std@@QAE@ABV01@@Z:
  00008	b8 00 00 00 00	 mov	 eax, OFFSET FLAT:$T193770
  0000d	e9 00 00 00 00	 jmp	 ___CxxFrameHandler
text$x	ENDS
??0logic_error@std@@QAE@ABV01@@Z ENDP			; std::logic_error::logic_error
; Function compile flags: /Ogty
;	COMDAT ??0length_error@std@@QAE@ABV01@@Z
_TEXT	SEGMENT
___that$ = 8						; size = 4
??0length_error@std@@QAE@ABV01@@Z PROC NEAR		; std::length_error::length_error, COMDAT
; _this$ = ecx
  00000	8b 44 24 04	 mov	 eax, DWORD PTR ___that$[esp-4]
  00004	56		 push	 esi
  00005	50		 push	 eax
  00006	8b f1		 mov	 esi, ecx
  00008	e8 00 00 00 00	 call	 ??0logic_error@std@@QAE@ABV01@@Z
  0000d	c7 06 00 00 00
	00		 mov	 DWORD PTR [esi], OFFSET FLAT:??_7length_error@std@@6B@
  00013	8b c6		 mov	 eax, esi
  00015	5e		 pop	 esi
  00016	c2 04 00	 ret	 4
??0length_error@std@@QAE@ABV01@@Z ENDP			; std::length_error::length_error
_TEXT	ENDS
PUBLIC	??_C@_0BM@PAPJHAGI@invalid?5map?1set?$DMT?$DO?5iterator?$AA@ ; `string'
PUBLIC	__TI3?AVout_of_range@std@@
PUBLIC	__CTA3?AVout_of_range@std@@
PUBLIC	??_R0?AVout_of_range@std@@@8			; std::out_of_range `RTTI Type Descriptor'
PUBLIC	__CT??_R0?AVout_of_range@std@@@8??0out_of_range@std@@QAE@ABV01@@Z40
PUBLIC	??0out_of_range@std@@QAE@ABV01@@Z		; std::out_of_range::out_of_range
PUBLIC	?erase@?$_Tree@V?$_Tmap_traits@HUHonorData@@U?$less@H@std@@V?$allocator@U?$pair@$$CBHUHonorData@@@std@@@3@$0A@@std@@@std@@QAE?AViterator@12@V312@@Z ; std::_Tree<std::_Tmap_traits<int,HonorData,std::less<int>,std::allocator<std::pair<int const ,HonorData> >,0> >::erase
;	COMDAT xdata$x
; File c:\program files\microsoft visual studio .net 2003\vc7\include\xmemory
xdata$x	SEGMENT
$T194415 DD	0ffffffffH
	DD	FLAT:$L193786
$T194407 DD	019930520H
	DD	01H
	DD	FLAT:$T194415
	DD	2 DUP(00H)
	DD	2 DUP(00H)
xdata$x	ENDS
;	COMDAT ??_C@_0BM@PAPJHAGI@invalid?5map?1set?$DMT?$DO?5iterator?$AA@
CONST	SEGMENT
??_C@_0BM@PAPJHAGI@invalid?5map?1set?$DMT?$DO?5iterator?$AA@ DB 'invalid '
	DB	'map/set<T> iterator', 00H			; `string'
CONST	ENDS
;	COMDAT __TI3?AVout_of_range@std@@
xdata$x	SEGMENT
__TI3?AVout_of_range@std@@ DD 00H
	DD	FLAT:??1out_of_range@std@@UAE@XZ
	DD	00H
	DD	FLAT:__CTA3?AVout_of_range@std@@
xdata$x	ENDS
;	COMDAT __CTA3?AVout_of_range@std@@
xdata$x	SEGMENT
__CTA3?AVout_of_range@std@@ DD 03H
	DD	FLAT:__CT??_R0?AVout_of_range@std@@@8??0out_of_range@std@@QAE@ABV01@@Z40
	DD	FLAT:__CT??_R0?AVlogic_error@std@@@8??0logic_error@std@@QAE@ABV01@@Z40
	DD	FLAT:__CT??_R0?AVexception@@@8??0exception@@QAE@ABV0@@Z12
xdata$x	ENDS
;	COMDAT __CT??_R0?AVout_of_range@std@@@8??0out_of_range@std@@QAE@ABV01@@Z40
xdata$x	SEGMENT
__CT??_R0?AVout_of_range@std@@@8??0out_of_range@std@@QAE@ABV01@@Z40 DD 00H
	DD	FLAT:??_R0?AVout_of_range@std@@@8
	DD	00H
	DD	0ffffffffH
	ORG $+4
	DD	028H
	DD	FLAT:??0out_of_range@std@@QAE@ABV01@@Z
xdata$x	ENDS
;	COMDAT ??_R0?AVout_of_range@std@@@8
_DATA	SEGMENT
??_R0?AVout_of_range@std@@@8 DD FLAT:??_7type_info@@6B@	; std::out_of_range `RTTI Type Descriptor'
	DD	00H
	DB	'.?AVout_of_range@std@@', 00H
; Function compile flags: /Ogty
; File c:\program files\microsoft visual studio .net 2003\vc7\include\xtree
_DATA	ENDS
;	COMDAT ?erase@?$_Tree@V?$_Tmap_traits@HUHonorData@@U?$less@H@std@@V?$allocator@U?$pair@$$CBHUHonorData@@@std@@@3@$0A@@std@@@std@@QAE?AViterator@12@V312@@Z
_TEXT	SEGMENT
__Erasednode$ = -84					; size = 4
$T193781 = -80						; size = 28
$T193780 = -52						; size = 40
__$EHRec$ = -12						; size = 12
___$ReturnUdt$ = 8					; size = 4
__Where$ = 12						; size = 4
?erase@?$_Tree@V?$_Tmap_traits@HUHonorData@@U?$less@H@std@@V?$allocator@U?$pair@$$CBHUHonorData@@@std@@@3@$0A@@std@@@std@@QAE?AViterator@12@V312@@Z PROC NEAR ; std::_Tree<std::_Tmap_traits<int,HonorData,std::less<int>,std::allocator<std::pair<int const ,HonorData> >,0> >::erase, COMDAT
; _this$ = ecx

; 590  : 		{	// erase element at _Where

  00000	64 a1 00 00 00
	00		 mov	 eax, DWORD PTR fs:__except_list
  00006	6a ff		 push	 -1
  00008	68 00 00 00 00	 push	 __ehhandler$?erase@?$_Tree@V?$_Tmap_traits@HUHonorData@@U?$less@H@std@@V?$allocator@U?$pair@$$CBHUHonorData@@@std@@@3@$0A@@std@@@std@@QAE?AViterator@12@V312@@Z
  0000d	50		 push	 eax

; 591  : 		if (_Isnil(_Where._Mynode()))

  0000e	8b 44 24 14	 mov	 eax, DWORD PTR __Where$[esp+8]
  00012	64 89 25 00 00
	00 00		 mov	 DWORD PTR fs:__except_list, esp
  00019	83 ec 48	 sub	 esp, 72			; 00000048H
  0001c	55		 push	 ebp
  0001d	8b e9		 mov	 ebp, ecx
  0001f	8a 48 29	 mov	 cl, BYTE PTR [eax+41]
  00022	84 c9		 test	 cl, cl
  00024	56		 push	 esi
  00025	74 4c		 je	 SHORT $L187966

; 592  : 			_THROW(out_of_range, "invalid map/set<T> iterator");

  00027	6a 1b		 push	 27			; 0000001bH
  00029	33 f6		 xor	 esi, esi
  0002b	68 00 00 00 00	 push	 OFFSET FLAT:??_C@_0BM@PAPJHAGI@invalid?5map?1set?$DMT?$DO?5iterator?$AA@
  00030	8d 4c 24 14	 lea	 ecx, DWORD PTR $T193781[esp+100]
  00034	c7 44 24 2c 0f
	00 00 00	 mov	 DWORD PTR $T193781[esp+124], 15 ; 0000000fH
  0003c	89 74 24 28	 mov	 DWORD PTR $T193781[esp+120], esi
  00040	c6 44 24 18 00	 mov	 BYTE PTR $T193781[esp+104], 0
  00045	e8 00 00 00 00	 call	 ?assign@?$basic_string@DU?$char_traits@D@std@@V?$allocator@D@2@@std@@QAEAAV12@PBDI@Z ; std::basic_string<char,std::char_traits<char>,std::allocator<char> >::assign
  0004a	8d 44 24 0c	 lea	 eax, DWORD PTR $T193781[esp+92]
  0004e	50		 push	 eax
  0004f	8d 4c 24 2c	 lea	 ecx, DWORD PTR $T193780[esp+96]
  00053	89 74 24 5c	 mov	 DWORD PTR __$EHRec$[esp+104], esi
  00057	e8 00 00 00 00	 call	 ??0logic_error@std@@QAE@ABV?$basic_string@DU?$char_traits@D@std@@V?$allocator@D@2@@1@@Z ; std::logic_error::logic_error
  0005c	68 00 00 00 00	 push	 OFFSET FLAT:__TI3?AVout_of_range@std@@
  00061	8d 4c 24 2c	 lea	 ecx, DWORD PTR $T193780[esp+96]
  00065	51		 push	 ecx
  00066	c7 44 24 30 00
	00 00 00	 mov	 DWORD PTR $T193780[esp+100], OFFSET FLAT:??_7out_of_range@std@@6B@
  0006e	e8 00 00 00 00	 call	 __CxxThrowException@8
$L187966:
  00073	53		 push	 ebx

; 593  : 		_Nodeptr _Erasednode = _Where._Mynode();	// node to erase

  00074	8b d8		 mov	 ebx, eax
  00076	57		 push	 edi

; 594  : 		++_Where;	// save successor iterator for return

  00077	8d 4c 24 6c	 lea	 ecx, DWORD PTR __Where$[esp+96]
  0007b	89 5c 24 10	 mov	 DWORD PTR __Erasednode$[esp+100], ebx
  0007f	e8 00 00 00 00	 call	 ?_Inc@const_iterator@?$_Tree@V?$_Tmap_traits@HUHonorData@@U?$less@H@std@@V?$allocator@U?$pair@$$CBHUHonorData@@@std@@@3@$0A@@std@@@std@@QAEXXZ ; std::_Tree<std::_Tmap_traits<int,HonorData,std::less<int>,std::allocator<std::pair<int const ,HonorData> >,0> >::const_iterator::_Inc

; 595  : 
; 596  : 		_Nodeptr _Fixnode;	// the node to recolor as needed
; 597  : 		_Nodeptr _Fixnodeparent;	// parent of _Fixnode (which may be nil)
; 598  : 		_Nodeptr _Pnode = _Erasednode;
; 599  : 
; 600  : 		if (_Isnil(_Left(_Pnode)))

  00084	8b 03		 mov	 eax, DWORD PTR [ebx]
  00086	8a 48 29	 mov	 cl, BYTE PTR [eax+41]
  00089	84 c9		 test	 cl, cl
  0008b	74 05		 je	 SHORT $L187974

; 601  : 			_Fixnode = _Right(_Pnode);	// must stitch up right subtree

  0008d	8b 7b 08	 mov	 edi, DWORD PTR [ebx+8]

; 602  : 		else if (_Isnil(_Right(_Pnode)))

  00090	eb 19		 jmp	 SHORT $L194410
$L187974:
  00092	8b 53 08	 mov	 edx, DWORD PTR [ebx+8]
  00095	8a 4a 29	 mov	 cl, BYTE PTR [edx+41]
  00098	84 c9		 test	 cl, cl
  0009a	74 04		 je	 SHORT $L187976

; 603  : 			_Fixnode = _Left(_Pnode);	// must stitch up left subtree

  0009c	8b f8		 mov	 edi, eax

; 604  : 		else

  0009e	eb 0b		 jmp	 SHORT $L194410
$L187976:

; 605  : 			{	// two subtrees, must lift successor node to replace erased
; 606  : 			_Pnode = _Where._Mynode();	// _Pnode is successor node
; 607  : 			_Fixnode = _Right(_Pnode);	// _Fixnode is its only subtree

  000a0	8b 4c 24 6c	 mov	 ecx, DWORD PTR __Where$[esp+96]

; 608  : 			}
; 609  : 
; 610  : 		if (_Pnode == _Erasednode)

  000a4	3b cb		 cmp	 ecx, ebx
  000a6	8b 79 08	 mov	 edi, DWORD PTR [ecx+8]
  000a9	75 6e		 jne	 SHORT $L187978
$L194410:

; 611  : 			{	// at most one subtree, relink it
; 612  : 			_Fixnodeparent = _Parent(_Erasednode);
; 613  : 			if (!_Isnil(_Fixnode))

  000ab	8a 47 29	 mov	 al, BYTE PTR [edi+41]
  000ae	84 c0		 test	 al, al
  000b0	8b 73 04	 mov	 esi, DWORD PTR [ebx+4]
  000b3	75 03		 jne	 SHORT $L187979

; 614  : 				_Parent(_Fixnode) = _Fixnodeparent;	// link up

  000b5	89 77 04	 mov	 DWORD PTR [edi+4], esi
$L187979:

; 615  : 
; 616  : 			if (_Root() == _Erasednode)

  000b8	8b 45 04	 mov	 eax, DWORD PTR [ebp+4]
  000bb	39 58 04	 cmp	 DWORD PTR [eax+4], ebx
  000be	75 05		 jne	 SHORT $L187980

; 617  : 				_Root() = _Fixnode;	// link down from root

  000c0	89 78 04	 mov	 DWORD PTR [eax+4], edi

; 618  : 			else if (_Left(_Fixnodeparent) == _Erasednode)

  000c3	eb 0b		 jmp	 SHORT $L187983
$L187980:
  000c5	39 1e		 cmp	 DWORD PTR [esi], ebx
  000c7	75 04		 jne	 SHORT $L187982

; 619  : 				_Left(_Fixnodeparent) = _Fixnode;	// link down to left

  000c9	89 3e		 mov	 DWORD PTR [esi], edi

; 620  : 			else

  000cb	eb 03		 jmp	 SHORT $L187983
$L187982:

; 621  : 				_Right(_Fixnodeparent) = _Fixnode;	// link down to right

  000cd	89 7e 08	 mov	 DWORD PTR [esi+8], edi
$L187983:

; 622  : 
; 623  : 			if (_Lmost() == _Erasednode)

  000d0	8b 5d 04	 mov	 ebx, DWORD PTR [ebp+4]
  000d3	8b 03		 mov	 eax, DWORD PTR [ebx]
  000d5	3b 44 24 10	 cmp	 eax, DWORD PTR __Erasednode$[esp+100]
  000d9	75 16		 jne	 SHORT $L187984

; 624  : 				_Lmost() = _Isnil(_Fixnode)
; 625  : 					? _Fixnodeparent	// smallest is parent of erased node
; 626  : 					: _Min(_Fixnode);	// smallest in relinked subtree

  000db	8a 47 29	 mov	 al, BYTE PTR [edi+41]
  000de	84 c0		 test	 al, al
  000e0	74 04		 je	 SHORT $L193782
  000e2	8b c6		 mov	 eax, esi
  000e4	eb 09		 jmp	 SHORT $L193783
$L193782:
  000e6	57		 push	 edi
  000e7	e8 00 00 00 00	 call	 ?_Min@?$_Tree@V?$_Tmap_traits@HUHonorData@@U?$less@H@std@@V?$allocator@U?$pair@$$CBHUHonorData@@@std@@@3@$0A@@std@@@std@@KAPAU_Node@?$_Tree_nod@V?$_Tmap_traits@HUHonorData@@U?$less@H@std@@V?$allocator@U?$pair@$$CBHUHonorData@@@std@@@3@$0A@@std@@@2@PAU342@@Z ; std::_Tree<std::_Tmap_traits<int,HonorData,std::less<int>,std::allocator<std::pair<int const ,HonorData> >,0> >::_Min
  000ec	83 c4 04	 add	 esp, 4
$L193783:
  000ef	89 03		 mov	 DWORD PTR [ebx], eax
$L187984:

; 627  : 
; 628  : 			if (_Rmost() == _Erasednode)

  000f1	8b 5d 04	 mov	 ebx, DWORD PTR [ebp+4]
  000f4	8b 4c 24 10	 mov	 ecx, DWORD PTR __Erasednode$[esp+100]
  000f8	39 4b 08	 cmp	 DWORD PTR [ebx+8], ecx
  000fb	75 74		 jne	 SHORT $L194100

; 629  : 				_Rmost() = _Isnil(_Fixnode)
; 630  : 					? _Fixnodeparent	// largest is parent of erased node
; 631  : 					: _Max(_Fixnode);	// largest in relinked subtree

  000fd	8a 47 29	 mov	 al, BYTE PTR [edi+41]
  00100	84 c0		 test	 al, al
  00102	74 07		 je	 SHORT $L193784
  00104	8b c6		 mov	 eax, esi
  00106	89 43 08	 mov	 DWORD PTR [ebx+8], eax

; 632  : 			}
; 633  : 		else

  00109	eb 66		 jmp	 SHORT $L194100
$L193784:

; 629  : 				_Rmost() = _Isnil(_Fixnode)
; 630  : 					? _Fixnodeparent	// largest is parent of erased node
; 631  : 					: _Max(_Fixnode);	// largest in relinked subtree

  0010b	57		 push	 edi
  0010c	e8 00 00 00 00	 call	 ?_Max@?$_Tree@V?$_Tmap_traits@HUHonorData@@U?$less@H@std@@V?$allocator@U?$pair@$$CBHUHonorData@@@std@@@3@$0A@@std@@@std@@KAPAU_Node@?$_Tree_nod@V?$_Tmap_traits@HUHonorData@@U?$less@H@std@@V?$allocator@U?$pair@$$CBHUHonorData@@@std@@@3@$0A@@std@@@2@PAU342@@Z ; std::_Tree<std::_Tmap_traits<int,HonorData,std::less<int>,std::allocator<std::pair<int const ,HonorData> >,0> >::_Max
  00111	83 c4 04	 add	 esp, 4
  00114	89 43 08	 mov	 DWORD PTR [ebx+8], eax

; 632  : 			}
; 633  : 		else

  00117	eb 58		 jmp	 SHORT $L194100
$L187978:

; 634  : 			{	// erased has two subtrees, _Pnode is successor to erased
; 635  : 			_Parent(_Left(_Erasednode)) = _Pnode;	// link left up

  00119	89 48 04	 mov	 DWORD PTR [eax+4], ecx

; 636  : 			_Left(_Pnode) = _Left(_Erasednode);	// link successor down

  0011c	8b 13		 mov	 edx, DWORD PTR [ebx]
  0011e	89 11		 mov	 DWORD PTR [ecx], edx

; 637  : 
; 638  : 			if (_Pnode == _Right(_Erasednode))

  00120	3b 4b 08	 cmp	 ecx, DWORD PTR [ebx+8]
  00123	75 04		 jne	 SHORT $L187987

; 639  : 				_Fixnodeparent = _Pnode;	// successor is next to erased

  00125	8b f1		 mov	 esi, ecx

; 640  : 			else

  00127	eb 1b		 jmp	 SHORT $L187988
$L187987:

; 641  : 				{	// successor further down, link in place of erased
; 642  : 				_Fixnodeparent = _Parent(_Pnode);	// parent is successor's
; 643  : 				if (!_Isnil(_Fixnode))

  00129	8a 47 29	 mov	 al, BYTE PTR [edi+41]
  0012c	84 c0		 test	 al, al
  0012e	8b 71 04	 mov	 esi, DWORD PTR [ecx+4]
  00131	75 03		 jne	 SHORT $L187989

; 644  : 					_Parent(_Fixnode) = _Fixnodeparent;	// link fix up

  00133	89 77 04	 mov	 DWORD PTR [edi+4], esi
$L187989:

; 645  : 				_Left(_Fixnodeparent) = _Fixnode;	// link fix down

  00136	89 3e		 mov	 DWORD PTR [esi], edi

; 646  : 				_Right(_Pnode) = _Right(_Erasednode);	// link successor down

  00138	8b 43 08	 mov	 eax, DWORD PTR [ebx+8]
  0013b	89 41 08	 mov	 DWORD PTR [ecx+8], eax

; 647  : 				_Parent(_Right(_Erasednode)) = _Pnode;	// link right up

  0013e	8b 53 08	 mov	 edx, DWORD PTR [ebx+8]
  00141	89 4a 04	 mov	 DWORD PTR [edx+4], ecx
$L187988:

; 648  : 				}
; 649  : 
; 650  : 			if (_Root() == _Erasednode)

  00144	8b 45 04	 mov	 eax, DWORD PTR [ebp+4]
  00147	39 58 04	 cmp	 DWORD PTR [eax+4], ebx
  0014a	75 05		 jne	 SHORT $L187990

; 651  : 				_Root() = _Pnode;	// link down from root

  0014c	89 48 04	 mov	 DWORD PTR [eax+4], ecx

; 652  : 			else if (_Left(_Parent(_Erasednode)) == _Erasednode)

  0014f	eb 0e		 jmp	 SHORT $L187993
$L187990:
  00151	8b 43 04	 mov	 eax, DWORD PTR [ebx+4]
  00154	39 18		 cmp	 DWORD PTR [eax], ebx
  00156	75 04		 jne	 SHORT $L187992

; 653  : 				_Left(_Parent(_Erasednode)) = _Pnode;	// link down to left

  00158	89 08		 mov	 DWORD PTR [eax], ecx

; 654  : 			else

  0015a	eb 03		 jmp	 SHORT $L187993
$L187992:

; 655  : 				_Right(_Parent(_Erasednode)) = _Pnode;	// link down to right

  0015c	89 48 08	 mov	 DWORD PTR [eax+8], ecx
$L187993:

; 656  : 
; 657  : 			_Parent(_Pnode) = _Parent(_Erasednode);	// link successor up

  0015f	8b 43 04	 mov	 eax, DWORD PTR [ebx+4]
  00162	89 41 04	 mov	 DWORD PTR [ecx+4], eax

; 658  : 			std::swap(_Color(_Pnode), _Color(_Erasednode));	// recolor it

  00165	8a 53 28	 mov	 dl, BYTE PTR [ebx+40]
  00168	8a 41 28	 mov	 al, BYTE PTR [ecx+40]
  0016b	88 51 28	 mov	 BYTE PTR [ecx+40], dl
  0016e	88 43 28	 mov	 BYTE PTR [ebx+40], al
$L194100:

; 659  : 			}
; 660  : 
; 661  : 		if (_Color(_Erasednode) == _Black)

  00171	8b 44 24 10	 mov	 eax, DWORD PTR __Erasednode$[esp+100]
  00175	8a 48 28	 mov	 cl, BYTE PTR [eax+40]
  00178	b3 01		 mov	 bl, 1
  0017a	3a cb		 cmp	 cl, bl
  0017c	0f 85 ff 00 00
	00		 jne	 $L187994

; 662  : 			{	// erasing black link, must recolor/rebalance tree
; 663  : 			for (; _Fixnode != _Root() && _Color(_Fixnode) == _Black;
; 664  : 				_Fixnodeparent = _Parent(_Fixnode))

  00182	8b 4d 04	 mov	 ecx, DWORD PTR [ebp+4]
  00185	3b 79 04	 cmp	 edi, DWORD PTR [ecx+4]
  00188	0f 84 f0 00 00
	00		 je	 $L187997
  0018e	8b ff		 npad	 2
$L187995:
  00190	38 5f 28	 cmp	 BYTE PTR [edi+40], bl
  00193	0f 85 e5 00 00
	00		 jne	 $L187997

; 665  : 				if (_Fixnode == _Left(_Fixnodeparent))

  00199	8b 06		 mov	 eax, DWORD PTR [esi]
  0019b	3b f8		 cmp	 edi, eax
  0019d	75 67		 jne	 SHORT $L187998

; 666  : 					{	// fixup left subtree
; 667  : 					_Pnode = _Right(_Fixnodeparent);

  0019f	8b 46 08	 mov	 eax, DWORD PTR [esi+8]

; 668  : 					if (_Color(_Pnode) == _Red)

  001a2	8a 48 28	 mov	 cl, BYTE PTR [eax+40]
  001a5	84 c9		 test	 cl, cl
  001a7	75 12		 jne	 SHORT $L187999

; 669  : 						{	// rotate red up from right subtree
; 670  : 						_Color(_Pnode) = _Black;

  001a9	88 58 28	 mov	 BYTE PTR [eax+40], bl

; 671  : 						_Color(_Fixnodeparent) = _Red;
; 672  : 						_Lrotate(_Fixnodeparent);

  001ac	56		 push	 esi
  001ad	8b cd		 mov	 ecx, ebp
  001af	c6 46 28 00	 mov	 BYTE PTR [esi+40], 0
  001b3	e8 00 00 00 00	 call	 ?_Lrotate@?$_Tree@V?$_Tmap_traits@HUHonorData@@U?$less@H@std@@V?$allocator@U?$pair@$$CBHUHonorData@@@std@@@3@$0A@@std@@@std@@IAEXPAU_Node@?$_Tree_nod@V?$_Tmap_traits@HUHonorData@@U?$less@H@std@@V?$allocator@U?$pair@$$CBHUHonorData@@@std@@@3@$0A@@std@@@2@@Z ; std::_Tree<std::_Tmap_traits<int,HonorData,std::less<int>,std::allocator<std::pair<int const ,HonorData> >,0> >::_Lrotate

; 673  : 						_Pnode = _Right(_Fixnodeparent);

  001b8	8b 46 08	 mov	 eax, DWORD PTR [esi+8]
$L187999:

; 674  : 						}
; 675  : 
; 676  : 					if (_Isnil(_Pnode))

  001bb	8a 48 29	 mov	 cl, BYTE PTR [eax+41]
  001be	84 c9		 test	 cl, cl

; 677  : 						_Fixnode = _Fixnodeparent;	// shouldn't happen
; 678  : 					else if (_Color(_Left(_Pnode)) == _Black

  001c0	75 76		 jne	 SHORT $L194413

; 679  : 						&& _Color(_Right(_Pnode)) == _Black)

  001c2	8b 10		 mov	 edx, DWORD PTR [eax]
  001c4	38 5a 28	 cmp	 BYTE PTR [edx+40], bl
  001c7	75 08		 jne	 SHORT $L188002
  001c9	8b 48 08	 mov	 ecx, DWORD PTR [eax+8]
  001cc	38 59 28	 cmp	 BYTE PTR [ecx+40], bl
  001cf	74 63		 je	 SHORT $L194414
$L188002:

; 680  : 						{	// redden right subtree with black children
; 681  : 						_Color(_Pnode) = _Red;
; 682  : 						_Fixnode = _Fixnodeparent;
; 683  : 						}
; 684  : 					else
; 685  : 						{	// must rearrange right subtree
; 686  : 						if (_Color(_Right(_Pnode)) == _Black)

  001d1	8b 48 08	 mov	 ecx, DWORD PTR [eax+8]
  001d4	38 59 28	 cmp	 BYTE PTR [ecx+40], bl
  001d7	75 14		 jne	 SHORT $L188004

; 687  : 							{	// rotate red up from left sub-subtree
; 688  : 							_Color(_Left(_Pnode)) = _Black;

  001d9	8b 10		 mov	 edx, DWORD PTR [eax]
  001db	88 5a 28	 mov	 BYTE PTR [edx+40], bl

; 689  : 							_Color(_Pnode) = _Red;
; 690  : 							_Rrotate(_Pnode);

  001de	50		 push	 eax
  001df	8b cd		 mov	 ecx, ebp
  001e1	c6 40 28 00	 mov	 BYTE PTR [eax+40], 0
  001e5	e8 00 00 00 00	 call	 ?_Rrotate@?$_Tree@V?$_Tmap_traits@HUHonorData@@U?$less@H@std@@V?$allocator@U?$pair@$$CBHUHonorData@@@std@@@3@$0A@@std@@@std@@IAEXPAU_Node@?$_Tree_nod@V?$_Tmap_traits@HUHonorData@@U?$less@H@std@@V?$allocator@U?$pair@$$CBHUHonorData@@@std@@@3@$0A@@std@@@2@@Z ; std::_Tree<std::_Tmap_traits<int,HonorData,std::less<int>,std::allocator<std::pair<int const ,HonorData> >,0> >::_Rrotate

; 691  : 							_Pnode = _Right(_Fixnodeparent);

  001ea	8b 46 08	 mov	 eax, DWORD PTR [esi+8]
$L188004:

; 692  : 							}
; 693  : 
; 694  : 						_Color(_Pnode) = _Color(_Fixnodeparent);

  001ed	8a 4e 28	 mov	 cl, BYTE PTR [esi+40]
  001f0	88 48 28	 mov	 BYTE PTR [eax+40], cl

; 695  : 						_Color(_Fixnodeparent) = _Black;

  001f3	88 5e 28	 mov	 BYTE PTR [esi+40], bl

; 696  : 						_Color(_Right(_Pnode)) = _Black;

  001f6	8b 50 08	 mov	 edx, DWORD PTR [eax+8]

; 697  : 						_Lrotate(_Fixnodeparent);

  001f9	56		 push	 esi
  001fa	8b cd		 mov	 ecx, ebp
  001fc	88 5a 28	 mov	 BYTE PTR [edx+40], bl
  001ff	e8 00 00 00 00	 call	 ?_Lrotate@?$_Tree@V?$_Tmap_traits@HUHonorData@@U?$less@H@std@@V?$allocator@U?$pair@$$CBHUHonorData@@@std@@@3@$0A@@std@@@std@@IAEXPAU_Node@?$_Tree_nod@V?$_Tmap_traits@HUHonorData@@U?$less@H@std@@V?$allocator@U?$pair@$$CBHUHonorData@@@std@@@3@$0A@@std@@@2@@Z ; std::_Tree<std::_Tmap_traits<int,HonorData,std::less<int>,std::allocator<std::pair<int const ,HonorData> >,0> >::_Lrotate

; 698  : 						break;	// tree now recolored/rebalanced

  00204	eb 78		 jmp	 SHORT $L187997
$L187998:

; 699  : 						}
; 700  : 					}
; 701  : 				else
; 702  : 					{	// fixup right subtree
; 703  : 					_Pnode = _Left(_Fixnodeparent);
; 704  : 					if (_Color(_Pnode) == _Red)

  00206	8a 48 28	 mov	 cl, BYTE PTR [eax+40]
  00209	84 c9		 test	 cl, cl
  0020b	75 11		 jne	 SHORT $L188006

; 705  : 						{	// rotate red up from left subtree
; 706  : 						_Color(_Pnode) = _Black;

  0020d	88 58 28	 mov	 BYTE PTR [eax+40], bl

; 707  : 						_Color(_Fixnodeparent) = _Red;
; 708  : 						_Rrotate(_Fixnodeparent);

  00210	56		 push	 esi
  00211	8b cd		 mov	 ecx, ebp
  00213	c6 46 28 00	 mov	 BYTE PTR [esi+40], 0
  00217	e8 00 00 00 00	 call	 ?_Rrotate@?$_Tree@V?$_Tmap_traits@HUHonorData@@U?$less@H@std@@V?$allocator@U?$pair@$$CBHUHonorData@@@std@@@3@$0A@@std@@@std@@IAEXPAU_Node@?$_Tree_nod@V?$_Tmap_traits@HUHonorData@@U?$less@H@std@@V?$allocator@U?$pair@$$CBHUHonorData@@@std@@@3@$0A@@std@@@2@@Z ; std::_Tree<std::_Tmap_traits<int,HonorData,std::less<int>,std::allocator<std::pair<int const ,HonorData> >,0> >::_Rrotate

; 709  : 						_Pnode = _Left(_Fixnodeparent);

  0021c	8b 06		 mov	 eax, DWORD PTR [esi]
$L188006:

; 710  : 						}
; 711  : 					if (_Isnil(_Pnode))

  0021e	8a 48 29	 mov	 cl, BYTE PTR [eax+41]
  00221	84 c9		 test	 cl, cl

; 712  : 						_Fixnode = _Fixnodeparent;	// shouldn't happen
; 713  : 					else if (_Color(_Right(_Pnode)) == _Black

  00223	75 13		 jne	 SHORT $L194413

; 714  : 						&& _Color(_Left(_Pnode)) == _Black)

  00225	8b 50 08	 mov	 edx, DWORD PTR [eax+8]
  00228	38 5a 28	 cmp	 BYTE PTR [edx+40], bl
  0022b	75 20		 jne	 SHORT $L188009
  0022d	8b 08		 mov	 ecx, DWORD PTR [eax]
  0022f	38 59 28	 cmp	 BYTE PTR [ecx+40], bl
  00232	75 19		 jne	 SHORT $L188009
$L194414:

; 715  : 						{	// redden left subtree with black children
; 716  : 						_Color(_Pnode) = _Red;

  00234	c6 40 28 00	 mov	 BYTE PTR [eax+40], 0
$L194413:

; 662  : 			{	// erasing black link, must recolor/rebalance tree
; 663  : 			for (; _Fixnode != _Root() && _Color(_Fixnode) == _Black;
; 664  : 				_Fixnodeparent = _Parent(_Fixnode))

  00238	8b 55 04	 mov	 edx, DWORD PTR [ebp+4]
  0023b	8b 42 04	 mov	 eax, DWORD PTR [edx+4]

; 717  : 						_Fixnode = _Fixnodeparent;

  0023e	8b fe		 mov	 edi, esi
  00240	3b f8		 cmp	 edi, eax
  00242	8b 76 04	 mov	 esi, DWORD PTR [esi+4]
  00245	0f 85 45 ff ff
	ff		 jne	 $L187995

; 662  : 			{	// erasing black link, must recolor/rebalance tree
; 663  : 			for (; _Fixnode != _Root() && _Color(_Fixnode) == _Black;
; 664  : 				_Fixnodeparent = _Parent(_Fixnode))

  0024b	eb 31		 jmp	 SHORT $L187997
$L188009:

; 718  : 						}
; 719  : 					else
; 720  : 						{	// must rearrange left subtree
; 721  : 						if (_Color(_Left(_Pnode)) == _Black)

  0024d	8b 08		 mov	 ecx, DWORD PTR [eax]
  0024f	38 59 28	 cmp	 BYTE PTR [ecx+40], bl
  00252	75 14		 jne	 SHORT $L188011

; 722  : 							{	// rotate red up from right sub-subtree
; 723  : 							_Color(_Right(_Pnode)) = _Black;

  00254	8b 50 08	 mov	 edx, DWORD PTR [eax+8]
  00257	88 5a 28	 mov	 BYTE PTR [edx+40], bl

; 724  : 							_Color(_Pnode) = _Red;
; 725  : 							_Lrotate(_Pnode);

  0025a	50		 push	 eax
  0025b	8b cd		 mov	 ecx, ebp
  0025d	c6 40 28 00	 mov	 BYTE PTR [eax+40], 0
  00261	e8 00 00 00 00	 call	 ?_Lrotate@?$_Tree@V?$_Tmap_traits@HUHonorData@@U?$less@H@std@@V?$allocator@U?$pair@$$CBHUHonorData@@@std@@@3@$0A@@std@@@std@@IAEXPAU_Node@?$_Tree_nod@V?$_Tmap_traits@HUHonorData@@U?$less@H@std@@V?$allocator@U?$pair@$$CBHUHonorData@@@std@@@3@$0A@@std@@@2@@Z ; std::_Tree<std::_Tmap_traits<int,HonorData,std::less<int>,std::allocator<std::pair<int const ,HonorData> >,0> >::_Lrotate

; 726  : 							_Pnode = _Left(_Fixnodeparent);

  00266	8b 06		 mov	 eax, DWORD PTR [esi]
$L188011:

; 727  : 							}
; 728  : 
; 729  : 						_Color(_Pnode) = _Color(_Fixnodeparent);

  00268	8a 4e 28	 mov	 cl, BYTE PTR [esi+40]
  0026b	88 48 28	 mov	 BYTE PTR [eax+40], cl

; 730  : 						_Color(_Fixnodeparent) = _Black;

  0026e	88 5e 28	 mov	 BYTE PTR [esi+40], bl

; 731  : 						_Color(_Left(_Pnode)) = _Black;

  00271	8b 10		 mov	 edx, DWORD PTR [eax]

; 732  : 						_Rrotate(_Fixnodeparent);

  00273	56		 push	 esi
  00274	8b cd		 mov	 ecx, ebp
  00276	88 5a 28	 mov	 BYTE PTR [edx+40], bl
  00279	e8 00 00 00 00	 call	 ?_Rrotate@?$_Tree@V?$_Tmap_traits@HUHonorData@@U?$less@H@std@@V?$allocator@U?$pair@$$CBHUHonorData@@@std@@@3@$0A@@std@@@std@@IAEXPAU_Node@?$_Tree_nod@V?$_Tmap_traits@HUHonorData@@U?$less@H@std@@V?$allocator@U?$pair@$$CBHUHonorData@@@std@@@3@$0A@@std@@@2@@Z ; std::_Tree<std::_Tmap_traits<int,HonorData,std::less<int>,std::allocator<std::pair<int const ,HonorData> >,0> >::_Rrotate
$L187997:

; 733  : 						break;	// tree now recolored/rebalanced
; 734  : 						}
; 735  : 					}
; 736  : 
; 737  : 			_Color(_Fixnode) = _Black;	// ensure stopping node is black

  0027e	88 5f 28	 mov	 BYTE PTR [edi+40], bl
$L187994:

; 738  : 			}
; 739  : 
; 740  : 		this->_Alnod.destroy(_Erasednode);	// destroy, free erased node

  00281	8b 44 24 10	 mov	 eax, DWORD PTR __Erasednode$[esp+100]
  00285	8b 40 24	 mov	 eax, DWORD PTR [eax+36]
  00288	83 e8 10	 sub	 eax, 16			; 00000010H
  0028b	8d 48 0c	 lea	 ecx, DWORD PTR [eax+12]
  0028e	83 ca ff	 or	 edx, -1
  00291	f0 0f c1 11	 lock	  xadd	 DWORD PTR [ecx], edx
  00295	4a		 dec	 edx
  00296	85 d2		 test	 edx, edx
  00298	5f		 pop	 edi
  00299	5b		 pop	 ebx
  0029a	7f 08		 jg	 SHORT $L194398
  0029c	8b 08		 mov	 ecx, DWORD PTR [eax]
  0029e	8b 11		 mov	 edx, DWORD PTR [ecx]
  002a0	50		 push	 eax
  002a1	ff 52 04	 call	 DWORD PTR [edx+4]
$L194398:

; 741  : 		this->_Alnod.deallocate(_Erasednode, 1);

  002a4	8b 44 24 08	 mov	 eax, DWORD PTR __Erasednode$[esp+92]
  002a8	50		 push	 eax
  002a9	e8 00 00 00 00	 call	 ??3@YAXPAX@Z		; operator delete

; 742  : 
; 743  : 		if (0 < _Mysize)

  002ae	8b 45 08	 mov	 eax, DWORD PTR [ebp+8]
  002b1	83 c4 04	 add	 esp, 4
  002b4	85 c0		 test	 eax, eax
  002b6	76 04		 jbe	 SHORT $L188012

; 744  : 			--_Mysize;

  002b8	48		 dec	 eax
  002b9	89 45 08	 mov	 DWORD PTR [ebp+8], eax
$L188012:

; 745  : 
; 746  : 		return (_Where);	// return successor iterator

  002bc	8b 4c 24 64	 mov	 ecx, DWORD PTR __Where$[esp+88]
  002c0	8b 44 24 60	 mov	 eax, DWORD PTR ___$ReturnUdt$[esp+88]
  002c4	89 08		 mov	 DWORD PTR [eax], ecx

; 747  : 		}

  002c6	8b 4c 24 50	 mov	 ecx, DWORD PTR __$EHRec$[esp+92]
  002ca	5e		 pop	 esi
  002cb	5d		 pop	 ebp
  002cc	64 89 0d 00 00
	00 00		 mov	 DWORD PTR fs:__except_list, ecx
  002d3	83 c4 54	 add	 esp, 84			; 00000054H
  002d6	c2 08 00	 ret	 8
$L194412:
_TEXT	ENDS
;	COMDAT text$x
text$x	SEGMENT
$L193786:
  00000	8d 4d b0	 lea	 ecx, DWORD PTR $T193781[ebp]
  00003	e9 00 00 00 00	 jmp	 ??1?$basic_string@DU?$char_traits@D@std@@V?$allocator@D@2@@std@@QAE@XZ ; std::basic_string<char,std::char_traits<char>,std::allocator<char> >::~basic_string<char,std::char_traits<char>,std::allocator<char> >
__ehhandler$?erase@?$_Tree@V?$_Tmap_traits@HUHonorData@@U?$less@H@std@@V?$allocator@U?$pair@$$CBHUHonorData@@@std@@@3@$0A@@std@@@std@@QAE?AViterator@12@V312@@Z:
  00008	b8 00 00 00 00	 mov	 eax, OFFSET FLAT:$T194407
  0000d	e9 00 00 00 00	 jmp	 ___CxxFrameHandler
text$x	ENDS
?erase@?$_Tree@V?$_Tmap_traits@HUHonorData@@U?$less@H@std@@V?$allocator@U?$pair@$$CBHUHonorData@@@std@@@3@$0A@@std@@@std@@QAE?AViterator@12@V312@@Z ENDP ; std::_Tree<std::_Tmap_traits<int,HonorData,std::less<int>,std::allocator<std::pair<int const ,HonorData> >,0> >::erase
; Function compile flags: /Ogty
;	COMDAT ??0out_of_range@std@@QAE@ABV01@@Z
_TEXT	SEGMENT
___that$ = 8						; size = 4
??0out_of_range@std@@QAE@ABV01@@Z PROC NEAR		; std::out_of_range::out_of_range, COMDAT
; _this$ = ecx
  00000	8b 44 24 04	 mov	 eax, DWORD PTR ___that$[esp-4]
  00004	56		 push	 esi
  00005	50		 push	 eax
  00006	8b f1		 mov	 esi, ecx
  00008	e8 00 00 00 00	 call	 ??0logic_error@std@@QAE@ABV01@@Z
  0000d	c7 06 00 00 00
	00		 mov	 DWORD PTR [esi], OFFSET FLAT:??_7out_of_range@std@@6B@
  00013	8b c6		 mov	 eax, esi
  00015	5e		 pop	 esi
  00016	c2 04 00	 ret	 4
??0out_of_range@std@@QAE@ABV01@@Z ENDP			; std::out_of_range::out_of_range
_TEXT	ENDS
PUBLIC	?insert@?$_Tree@V?$_Tmap_traits@HUHonorData@@U?$less@H@std@@V?$allocator@U?$pair@$$CBHUHonorData@@@std@@@3@$0A@@std@@@std@@QAE?AU?$pair@Viterator@?$_Tree@V?$_Tmap_traits@HUHonorData@@U?$less@H@std@@V?$allocator@U?$pair@$$CBHUHonorData@@@std@@@3@$0A@@std@@@std@@_N@2@ABU?$pair@$$CBHUHonorData@@@2@@Z ; std::_Tree<std::_Tmap_traits<int,HonorData,std::less<int>,std::allocator<std::pair<int const ,HonorData> >,0> >::insert
; Function compile flags: /Ogty
;	COMDAT ?insert@?$_Tree@V?$_Tmap_traits@HUHonorData@@U?$less@H@std@@V?$allocator@U?$pair@$$CBHUHonorData@@@std@@@3@$0A@@std@@@std@@QAE?AU?$pair@Viterator@?$_Tree@V?$_Tmap_traits@HUHonorData@@U?$less@H@std@@V?$allocator@U?$pair@$$CBHUHonorData@@@std@@@3@$0A@@std@@@std@@_N@2@ABU?$pair@$$CBHUHonorData@@@2@@Z
_TEXT	SEGMENT
__Addleft$ = -4						; size = 1
___$ReturnUdt$ = 8					; size = 4
$T194431 = 12						; size = 4
$T194429 = 12						; size = 4
__Where$187723 = 12					; size = 4
__Val$ = 12						; size = 4
?insert@?$_Tree@V?$_Tmap_traits@HUHonorData@@U?$less@H@std@@V?$allocator@U?$pair@$$CBHUHonorData@@@std@@@3@$0A@@std@@@std@@QAE?AU?$pair@Viterator@?$_Tree@V?$_Tmap_traits@HUHonorData@@U?$less@H@std@@V?$allocator@U?$pair@$$CBHUHonorData@@@std@@@3@$0A@@std@@@std@@_N@2@ABU?$pair@$$CBHUHonorData@@@2@@Z PROC NEAR ; std::_Tree<std::_Tmap_traits<int,HonorData,std::less<int>,std::allocator<std::pair<int const ,HonorData> >,0> >::insert, COMDAT
; _this$ = ecx

; 477  : 		{	// try to insert node with value _Val

  00000	51		 push	 ecx
  00001	55		 push	 ebp

; 478  : 		_Nodeptr _Trynode = _Root();
; 479  : 		_Nodeptr _Wherenode = _Myhead;
; 480  : 		bool _Addleft = true;	// add to left of head if tree empty
; 481  : 		while (!_Isnil(_Trynode))

  00002	8b 6c 24 10	 mov	 ebp, DWORD PTR __Val$[esp+4]
  00006	56		 push	 esi
  00007	57		 push	 edi
  00008	8b f9		 mov	 edi, ecx
  0000a	8b 77 04	 mov	 esi, DWORD PTR [edi+4]
  0000d	8b 46 04	 mov	 eax, DWORD PTR [esi+4]
  00010	8a 50 29	 mov	 dl, BYTE PTR [eax+41]
  00013	84 d2		 test	 dl, dl
  00015	b1 01		 mov	 cl, 1
  00017	88 4c 24 0c	 mov	 BYTE PTR __Addleft$[esp+16], cl
  0001b	75 20		 jne	 SHORT $L187712
  0001d	8b 55 00	 mov	 edx, DWORD PTR [ebp]
$L187711:

; 482  : 			{	// look for leaf to insert before (_Addleft) or after
; 483  : 			_Wherenode = _Trynode;
; 484  : 			_Addleft = this->comp(this->_Kfn(_Val), _Key(_Trynode));

  00020	3b 50 0c	 cmp	 edx, DWORD PTR [eax+12]
  00023	0f 9c c1	 setl	 cl

; 485  : 			_Trynode = _Addleft ? _Left(_Trynode) : _Right(_Trynode);

  00026	84 c9		 test	 cl, cl
  00028	8b f0		 mov	 esi, eax
  0002a	88 4c 24 0c	 mov	 BYTE PTR __Addleft$[esp+16], cl
  0002e	74 04		 je	 SHORT $L194423
  00030	8b 00		 mov	 eax, DWORD PTR [eax]
  00032	eb 03		 jmp	 SHORT $L194424
$L194423:
  00034	8b 40 08	 mov	 eax, DWORD PTR [eax+8]
$L194424:

; 478  : 		_Nodeptr _Trynode = _Root();
; 479  : 		_Nodeptr _Wherenode = _Myhead;
; 480  : 		bool _Addleft = true;	// add to left of head if tree empty
; 481  : 		while (!_Isnil(_Trynode))

  00037	80 78 29 00	 cmp	 BYTE PTR [eax+41], 0
  0003b	74 e3		 je	 SHORT $L187711
$L187712:

; 486  : 			}
; 487  : 
; 488  : 		if (this->_Multi)
; 489  : 			return (_Pairib(_Insert(_Addleft, _Wherenode, _Val), true));
; 490  : 		else
; 491  : 			{	// insert only if unique
; 492  : 			iterator _Where = _TREE_ITERATOR(_Wherenode);
; 493  : 			if (!_Addleft)

  0003d	84 c9		 test	 cl, cl
  0003f	8b d6		 mov	 edx, esi
  00041	89 54 24 18	 mov	 DWORD PTR __Where$187723[esp+12], edx
  00045	74 33		 je	 SHORT $L194523

; 494  : 				;	// need to test if insert after is okay
; 495  : 			else if (_Where == begin())

  00047	8b 47 04	 mov	 eax, DWORD PTR [edi+4]
  0004a	3b 30		 cmp	 esi, DWORD PTR [eax]

; 496  : 				return (_Pairib(_Insert(true, _Wherenode, _Val), true));

  0004c	8d 4c 24 18	 lea	 ecx, DWORD PTR $T194429[esp+12]
  00050	75 1f		 jne	 SHORT $L187728
  00052	55		 push	 ebp
  00053	56		 push	 esi
  00054	6a 01		 push	 1
  00056	51		 push	 ecx
  00057	8b cf		 mov	 ecx, edi
  00059	e8 00 00 00 00	 call	 ?_Insert@?$_Tree@V?$_Tmap_traits@HUHonorData@@U?$less@H@std@@V?$allocator@U?$pair@$$CBHUHonorData@@@std@@@3@$0A@@std@@@std@@IAE?AViterator@12@_NPAU_Node@?$_Tree_nod@V?$_Tmap_traits@HUHonorData@@U?$less@H@std@@V?$allocator@U?$pair@$$CBHUHonorData@@@std@@@3@$0A@@std@@@2@ABU?$pair@$$CBHUHonorData@@@2@@Z ; std::_Tree<std::_Tmap_traits<int,HonorData,std::less<int>,std::allocator<std::pair<int const ,HonorData> >,0> >::_Insert
  0005e	8b 10		 mov	 edx, DWORD PTR [eax]
  00060	8b 44 24 14	 mov	 eax, DWORD PTR ___$ReturnUdt$[esp+12]
  00064	5f		 pop	 edi
  00065	5e		 pop	 esi
  00066	c6 40 04 01	 mov	 BYTE PTR [eax+4], 1

; 502  : 			else
; 503  : 				return (_Pairib(_Where, false));

  0006a	89 10		 mov	 DWORD PTR [eax], edx
  0006c	5d		 pop	 ebp

; 504  : 			}
; 505  : 		}

  0006d	59		 pop	 ecx
  0006e	c2 08 00	 ret	 8
$L187728:

; 497  : 			else
; 498  : 				--_Where;	// need to test if insert before is okay

  00071	e8 00 00 00 00	 call	 ?_Dec@const_iterator@?$_Tree@V?$_Tmap_traits@HUHonorData@@U?$less@H@std@@V?$allocator@U?$pair@$$CBHUHonorData@@@std@@@3@$0A@@std@@@std@@QAEXXZ ; std::_Tree<std::_Tmap_traits<int,HonorData,std::less<int>,std::allocator<std::pair<int const ,HonorData> >,0> >::const_iterator::_Dec
  00076	8b 54 24 18	 mov	 edx, DWORD PTR __Where$187723[esp+12]
$L194523:

; 499  : 
; 500  : 			if (this->comp(_Key(_Where._Mynode()), this->_Kfn(_Val)))

  0007a	8b 42 0c	 mov	 eax, DWORD PTR [edx+12]
  0007d	3b 45 00	 cmp	 eax, DWORD PTR [ebp]
  00080	7d 26		 jge	 SHORT $L187733

; 501  : 				return (_Pairib(_Insert(_Addleft, _Wherenode, _Val), true));

  00082	8b 4c 24 0c	 mov	 ecx, DWORD PTR __Addleft$[esp+16]
  00086	55		 push	 ebp
  00087	56		 push	 esi
  00088	51		 push	 ecx
  00089	8d 54 24 24	 lea	 edx, DWORD PTR $T194431[esp+24]
  0008d	52		 push	 edx
  0008e	8b cf		 mov	 ecx, edi
  00090	e8 00 00 00 00	 call	 ?_Insert@?$_Tree@V?$_Tmap_traits@HUHonorData@@U?$less@H@std@@V?$allocator@U?$pair@$$CBHUHonorData@@@std@@@3@$0A@@std@@@std@@IAE?AViterator@12@_NPAU_Node@?$_Tree_nod@V?$_Tmap_traits@HUHonorData@@U?$less@H@std@@V?$allocator@U?$pair@$$CBHUHonorData@@@std@@@3@$0A@@std@@@2@ABU?$pair@$$CBHUHonorData@@@2@@Z ; std::_Tree<std::_Tmap_traits<int,HonorData,std::less<int>,std::allocator<std::pair<int const ,HonorData> >,0> >::_Insert
  00095	8b 08		 mov	 ecx, DWORD PTR [eax]
  00097	8b 44 24 14	 mov	 eax, DWORD PTR ___$ReturnUdt$[esp+12]
  0009b	5f		 pop	 edi
  0009c	5e		 pop	 esi
  0009d	89 08		 mov	 DWORD PTR [eax], ecx
  0009f	c6 40 04 01	 mov	 BYTE PTR [eax+4], 1
  000a3	5d		 pop	 ebp

; 504  : 			}
; 505  : 		}

  000a4	59		 pop	 ecx
  000a5	c2 08 00	 ret	 8
$L187733:

; 502  : 			else
; 503  : 				return (_Pairib(_Where, false));

  000a8	8b 44 24 14	 mov	 eax, DWORD PTR ___$ReturnUdt$[esp+12]
  000ac	5f		 pop	 edi
  000ad	5e		 pop	 esi
  000ae	c6 40 04 00	 mov	 BYTE PTR [eax+4], 0
  000b2	89 10		 mov	 DWORD PTR [eax], edx
  000b4	5d		 pop	 ebp

; 504  : 			}
; 505  : 		}

  000b5	59		 pop	 ecx
  000b6	c2 08 00	 ret	 8
?insert@?$_Tree@V?$_Tmap_traits@HUHonorData@@U?$less@H@std@@V?$allocator@U?$pair@$$CBHUHonorData@@@std@@@3@$0A@@std@@@std@@QAE?AU?$pair@Viterator@?$_Tree@V?$_Tmap_traits@HUHonorData@@U?$less@H@std@@V?$allocator@U?$pair@$$CBHUHonorData@@@std@@@3@$0A@@std@@@std@@_N@2@ABU?$pair@$$CBHUHonorData@@@2@@Z ENDP ; std::_Tree<std::_Tmap_traits<int,HonorData,std::less<int>,std::allocator<std::pair<int const ,HonorData> >,0> >::insert
_TEXT	ENDS
PUBLIC	?clear@?$_Tree@V?$_Tmap_traits@HUHonorData@@U?$less@H@std@@V?$allocator@U?$pair@$$CBHUHonorData@@@std@@@3@$0A@@std@@@std@@QAEXXZ ; std::_Tree<std::_Tmap_traits<int,HonorData,std::less<int>,std::allocator<std::pair<int const ,HonorData> >,0> >::clear
; Function compile flags: /Ogty
;	COMDAT ?clear@?$_Tree@V?$_Tmap_traits@HUHonorData@@U?$less@H@std@@V?$allocator@U?$pair@$$CBHUHonorData@@@std@@@3@$0A@@std@@@std@@QAEXXZ
_TEXT	SEGMENT
?clear@?$_Tree@V?$_Tmap_traits@HUHonorData@@U?$less@H@std@@V?$allocator@U?$pair@$$CBHUHonorData@@@std@@@3@$0A@@std@@@std@@QAEXXZ PROC NEAR ; std::_Tree<std::_Tmap_traits<int,HonorData,std::less<int>,std::allocator<std::pair<int const ,HonorData> >,0> >::clear, COMDAT
; _this$ = ecx

; 780  : 		{	// erase all

  00000	56		 push	 esi
  00001	8b f1		 mov	 esi, ecx

; 781  : 		_Erase(_Root());

  00003	8b 46 04	 mov	 eax, DWORD PTR [esi+4]
  00006	8b 48 04	 mov	 ecx, DWORD PTR [eax+4]
  00009	51		 push	 ecx
  0000a	8b ce		 mov	 ecx, esi
  0000c	e8 00 00 00 00	 call	 ?_Erase@?$_Tree@V?$_Tmap_traits@HUHonorData@@U?$less@H@std@@V?$allocator@U?$pair@$$CBHUHonorData@@@std@@@3@$0A@@std@@@std@@IAEXPAU_Node@?$_Tree_nod@V?$_Tmap_traits@HUHonorData@@U?$less@H@std@@V?$allocator@U?$pair@$$CBHUHonorData@@@std@@@3@$0A@@std@@@2@@Z ; std::_Tree<std::_Tmap_traits<int,HonorData,std::less<int>,std::allocator<std::pair<int const ,HonorData> >,0> >::_Erase

; 782  : 		_Root() = _Myhead, _Mysize = 0;

  00011	8b 46 04	 mov	 eax, DWORD PTR [esi+4]
  00014	89 40 04	 mov	 DWORD PTR [eax+4], eax

; 783  : 		_Lmost() = _Myhead, _Rmost() = _Myhead;

  00017	8b 46 04	 mov	 eax, DWORD PTR [esi+4]
  0001a	c7 46 08 00 00
	00 00		 mov	 DWORD PTR [esi+8], 0
  00021	89 00		 mov	 DWORD PTR [eax], eax
  00023	8b 76 04	 mov	 esi, DWORD PTR [esi+4]
  00026	89 76 08	 mov	 DWORD PTR [esi+8], esi
  00029	5e		 pop	 esi

; 784  : 		}

  0002a	c3		 ret	 0
?clear@?$_Tree@V?$_Tmap_traits@HUHonorData@@U?$less@H@std@@V?$allocator@U?$pair@$$CBHUHonorData@@@std@@@3@$0A@@std@@@std@@QAEXXZ ENDP ; std::_Tree<std::_Tmap_traits<int,HonorData,std::less<int>,std::allocator<std::pair<int const ,HonorData> >,0> >::clear
_TEXT	ENDS
PUBLIC	?erase@?$_Tree@V?$_Tmap_traits@HUHonorData@@U?$less@H@std@@V?$allocator@U?$pair@$$CBHUHonorData@@@std@@@3@$0A@@std@@@std@@QAE?AViterator@12@V312@0@Z ; std::_Tree<std::_Tmap_traits<int,HonorData,std::less<int>,std::allocator<std::pair<int const ,HonorData> >,0> >::erase
; Function compile flags: /Ogty
;	COMDAT ?erase@?$_Tree@V?$_Tmap_traits@HUHonorData@@U?$less@H@std@@V?$allocator@U?$pair@$$CBHUHonorData@@@std@@@3@$0A@@std@@@std@@QAE?AViterator@12@V312@0@Z
_TEXT	SEGMENT
___$ReturnUdt$ = 8					; size = 4
$T194597 = 12						; size = 4
__First$ = 12						; size = 4
__Last$ = 16						; size = 4
?erase@?$_Tree@V?$_Tmap_traits@HUHonorData@@U?$less@H@std@@V?$allocator@U?$pair@$$CBHUHonorData@@@std@@@3@$0A@@std@@@std@@QAE?AViterator@12@V312@0@Z PROC NEAR ; std::_Tree<std::_Tmap_traits<int,HonorData,std::less<int>,std::allocator<std::pair<int const ,HonorData> >,0> >::erase, COMDAT
; _this$ = ecx

; 750  : 		{	// erase [_First, _Last)

  00000	53		 push	 ebx

; 751  : 		if (_First == begin() && _Last == end())

  00001	8b 5c 24 10	 mov	 ebx, DWORD PTR __Last$[esp]
  00005	56		 push	 esi
  00006	8b 74 24 10	 mov	 esi, DWORD PTR __First$[esp+4]
  0000a	57		 push	 edi
  0000b	8b f9		 mov	 edi, ecx
  0000d	8b 47 04	 mov	 eax, DWORD PTR [edi+4]
  00010	3b 30		 cmp	 esi, DWORD PTR [eax]
  00012	75 38		 jne	 SHORT $L194929
  00014	3b d8		 cmp	 ebx, eax
  00016	75 34		 jne	 SHORT $L194929

; 752  : 			{	// erase all
; 753  : 			clear();

  00018	8b 40 04	 mov	 eax, DWORD PTR [eax+4]
  0001b	50		 push	 eax
  0001c	8b cf		 mov	 ecx, edi
  0001e	e8 00 00 00 00	 call	 ?_Erase@?$_Tree@V?$_Tmap_traits@HUHonorData@@U?$less@H@std@@V?$allocator@U?$pair@$$CBHUHonorData@@@std@@@3@$0A@@std@@@std@@IAEXPAU_Node@?$_Tree_nod@V?$_Tmap_traits@HUHonorData@@U?$less@H@std@@V?$allocator@U?$pair@$$CBHUHonorData@@@std@@@3@$0A@@std@@@2@@Z ; std::_Tree<std::_Tmap_traits<int,HonorData,std::less<int>,std::allocator<std::pair<int const ,HonorData> >,0> >::_Erase
  00023	8b 47 04	 mov	 eax, DWORD PTR [edi+4]
  00026	89 40 04	 mov	 DWORD PTR [eax+4], eax
  00029	8b 47 04	 mov	 eax, DWORD PTR [edi+4]
  0002c	c7 47 08 00 00
	00 00		 mov	 DWORD PTR [edi+8], 0
  00033	89 00		 mov	 DWORD PTR [eax], eax
  00035	8b 47 04	 mov	 eax, DWORD PTR [edi+4]
  00038	89 40 08	 mov	 DWORD PTR [eax+8], eax

; 754  : 			return (begin());

  0003b	8b 4f 04	 mov	 ecx, DWORD PTR [edi+4]
  0003e	8b 11		 mov	 edx, DWORD PTR [ecx]
  00040	8b 44 24 10	 mov	 eax, DWORD PTR ___$ReturnUdt$[esp+8]
  00044	5f		 pop	 edi
  00045	5e		 pop	 esi
  00046	89 10		 mov	 DWORD PTR [eax], edx
  00048	5b		 pop	 ebx

; 761  : 			}
; 762  : 		}

  00049	c2 0c 00	 ret	 12			; 0000000cH
$L194929:

; 755  : 			}
; 756  : 		else
; 757  : 			{	// partial erase, one at a time
; 758  : 			while (_First != _Last)

  0004c	3b f3		 cmp	 esi, ebx
  0004e	74 5b		 je	 SHORT $L187889
$L187888:

; 759  : 				erase(_First++);

  00050	8a 46 29	 mov	 al, BYTE PTR [esi+41]
  00053	84 c0		 test	 al, al
  00055	8b ce		 mov	 ecx, esi
  00057	75 41		 jne	 SHORT $L194921
  00059	8b 46 08	 mov	 eax, DWORD PTR [esi+8]
  0005c	8a 50 29	 mov	 dl, BYTE PTR [eax+41]
  0005f	84 d2		 test	 dl, dl
  00061	75 1a		 jne	 SHORT $L194931
  00063	8b f0		 mov	 esi, eax
  00065	8b 06		 mov	 eax, DWORD PTR [esi]
  00067	8a 50 29	 mov	 dl, BYTE PTR [eax+41]
  0006a	84 d2		 test	 dl, dl
  0006c	75 2c		 jne	 SHORT $L194921
  0006e	8b ff		 npad	 2
$L194909:
  00070	8b f0		 mov	 esi, eax
  00072	8b 06		 mov	 eax, DWORD PTR [esi]
  00074	8a 50 29	 mov	 dl, BYTE PTR [eax+41]
  00077	84 d2		 test	 dl, dl
  00079	74 f5		 je	 SHORT $L194909
  0007b	eb 1d		 jmp	 SHORT $L194921
$L194931:
  0007d	8b 46 04	 mov	 eax, DWORD PTR [esi+4]
  00080	8a 50 29	 mov	 dl, BYTE PTR [eax+41]
  00083	84 d2		 test	 dl, dl
  00085	75 11		 jne	 SHORT $L194924
$L194923:
  00087	3b 70 08	 cmp	 esi, DWORD PTR [eax+8]
  0008a	75 0c		 jne	 SHORT $L194924
  0008c	8b f0		 mov	 esi, eax
  0008e	8b 40 04	 mov	 eax, DWORD PTR [eax+4]
  00091	8a 50 29	 mov	 dl, BYTE PTR [eax+41]
  00094	84 d2		 test	 dl, dl
  00096	74 ef		 je	 SHORT $L194923
$L194924:
  00098	8b f0		 mov	 esi, eax
$L194921:
  0009a	51		 push	 ecx
  0009b	8d 44 24 18	 lea	 eax, DWORD PTR $T194597[esp+12]
  0009f	50		 push	 eax
  000a0	8b cf		 mov	 ecx, edi
  000a2	e8 00 00 00 00	 call	 ?erase@?$_Tree@V?$_Tmap_traits@HUHonorData@@U?$less@H@std@@V?$allocator@U?$pair@$$CBHUHonorData@@@std@@@3@$0A@@std@@@std@@QAE?AViterator@12@V312@@Z ; std::_Tree<std::_Tmap_traits<int,HonorData,std::less<int>,std::allocator<std::pair<int const ,HonorData> >,0> >::erase
  000a7	3b f3		 cmp	 esi, ebx
  000a9	75 a5		 jne	 SHORT $L187888
$L187889:

; 760  : 			return (_First);

  000ab	8b 44 24 10	 mov	 eax, DWORD PTR ___$ReturnUdt$[esp+8]
  000af	5f		 pop	 edi
  000b0	89 30		 mov	 DWORD PTR [eax], esi
  000b2	5e		 pop	 esi
  000b3	5b		 pop	 ebx

; 761  : 			}
; 762  : 		}

  000b4	c2 0c 00	 ret	 12			; 0000000cH
?erase@?$_Tree@V?$_Tmap_traits@HUHonorData@@U?$less@H@std@@V?$allocator@U?$pair@$$CBHUHonorData@@@std@@@3@$0A@@std@@@std@@QAE?AViterator@12@V312@0@Z ENDP ; std::_Tree<std::_Tmap_traits<int,HonorData,std::less<int>,std::allocator<std::pair<int const ,HonorData> >,0> >::erase
_TEXT	ENDS
PUBLIC	??_C@_0BO@JKGKEJHM@Too?5many?5title?5about?5monster?$CB?$AA@ ; `string'
PUBLIC	??_C@_0BL@IDNKGEML@Too?5many?5title?5about?5item?$CB?$AA@ ; `string'
PUBLIC	?LoadTitle@CTitleManager@@QAEHPBD@Z		; CTitleManager::LoadTitle
EXTRN	?GetNumber@CScanner@@QAEHH@Z:NEAR		; CScanner::GetNumber
EXTRN	??0CScript@@QAE@H@Z:NEAR			; CScript::CScript
EXTRN	??1CScript@@UAE@XZ:NEAR				; CScript::~CScript
EXTRN	?Load@CScript@@QAEHPBDHH@Z:NEAR			; CScript::Load
EXTRN	?GetToken@CScript@@UAEHH@Z:NEAR			; CScript::GetToken
EXTRN	?Error@@YAPBDPBDZZ:NEAR				; Error
EXTRN	__chkstk:NEAR
EXTRN	___security_cookie:DWORD
EXTRN	@__security_check_cookie@4:NEAR
;	COMDAT xdata$x
; File c:\program files\microsoft visual studio .net 2003\vc7\atlmfc\include\atlsimpstr.h
xdata$x	SEGMENT
$T196179 DD	0ffffffffH
	DD	FLAT:$L194954
	DD	00H
	DD	FLAT:$L194955
	DD	01H
	DD	FLAT:$L194956
	DD	01H
	DD	FLAT:$L194957
	DD	01H
	DD	FLAT:$L194958
	DD	01H
	DD	FLAT:$L194959
	DD	01H
	DD	FLAT:$L194960
	DD	01H
	DD	FLAT:$L194961
$T196161 DD	019930520H
	DD	08H
	DD	FLAT:$T196179
	DD	2 DUP(00H)
	DD	2 DUP(00H)
xdata$x	ENDS
;	COMDAT ??_C@_0BL@IDNKGEML@Too?5many?5title?5about?5item?$CB?$AA@
CONST	SEGMENT
??_C@_0BL@IDNKGEML@Too?5many?5title?5about?5item?$CB?$AA@ DB 'Too many ti'
	DB	'tle about item!', 00H			; `string'
CONST	ENDS
;	COMDAT ??_C@_0BO@JKGKEJHM@Too?5many?5title?5about?5monster?$CB?$AA@
CONST	SEGMENT
??_C@_0BO@JKGKEJHM@Too?5many?5title?5about?5monster?$CB?$AA@ DB 'Too many'
	DB	' title about monster!', 00H			; `string'
; Function compile flags: /Ogty
; File c:\documents and settings\test\mes documents\source\virtuos_v17\build\program\_common\honor.cpp
CONST	ENDS
;	COMDAT ?LoadTitle@CTitleManager@@QAEHPBD@Z
_TEXT	SEGMENT
$T196158 = -7984					; size = 4
_TempData$ = -7980					; size = 24
_pOldData$195145 = -7956				; size = 4
$T194952 = -7956					; size = 8
$T194950 = -7956					; size = 8
$T194947 = -7956					; size = 8
$T194945 = -7956					; size = 8
$T194942 = -7956					; size = 8
$T194940 = -7956					; size = 8
tv852 = -7948						; size = 4
$T194951 = -7944					; size = 28
$T194946 = -7916					; size = 28
$T194939 = -7888					; size = 28
$T194944 = -7860					; size = 28
$T194941 = -7832					; size = 28
$T194949 = -7804					; size = 28
_script$ = -7776					; size = 7760
__$ArrayPad$ = -16					; size = 4
__$EHRec$ = -12						; size = 12
__$ReturnAddr$ = 4					; size = 4
_lpszFileName$ = 8					; size = 4
?LoadTitle@CTitleManager@@QAEHPBD@Z PROC NEAR		; CTitleManager::LoadTitle, COMDAT
; _this$ = ecx

; 35   : {

  00000	6a ff		 push	 -1
  00002	68 00 00 00 00	 push	 __ehhandler$?LoadTitle@CTitleManager@@QAEHPBD@Z
  00007	64 a1 00 00 00
	00		 mov	 eax, DWORD PTR fs:__except_list
  0000d	50		 push	 eax
  0000e	b8 24 1f 00 00	 mov	 eax, 7972		; 00001f24H
  00013	64 89 25 00 00
	00 00		 mov	 DWORD PTR fs:__except_list, esp
  0001a	e8 00 00 00 00	 call	 __chkstk
  0001f	a1 00 00 00 00	 mov	 eax, DWORD PTR ___security_cookie
  00024	33 c4		 xor	 eax, esp
  00026	53		 push	 ebx
  00027	56		 push	 esi
  00028	57		 push	 edi
  00029	8b bc 24 40 1f
	00 00		 mov	 edi, DWORD PTR _lpszFileName$[esp+7992]
  00030	89 84 24 2c 1f
	00 00		 mov	 DWORD PTR __$ArrayPad$[esp+7996], eax
  00037	89 4c 24 0c	 mov	 DWORD PTR $T196158[esp+7996], ecx

; 36   : 	HonorData	TempData;

  0003b	e8 00 00 00 00	 call	 ?AfxGetStringManager@@YGPAUIAtlStringMgr@ATL@@XZ ; AfxGetStringManager
  00040	8b 10		 mov	 edx, DWORD PTR [eax]
  00042	8b c8		 mov	 ecx, eax
  00044	ff 52 0c	 call	 DWORD PTR [edx+12]
  00047	33 f6		 xor	 esi, esi
  00049	83 c0 10	 add	 eax, 16			; 00000010H
  0004c	83 cb ff	 or	 ebx, -1
  0004f	8d 4c 24 24	 lea	 ecx, DWORD PTR _TempData$[esp+8016]
  00053	89 44 24 24	 mov	 DWORD PTR _TempData$[esp+8016], eax
  00057	89 5c 24 10	 mov	 DWORD PTR _TempData$[esp+7996], ebx
  0005b	89 74 24 20	 mov	 DWORD PTR _TempData$[esp+8012], esi
  0005f	89 74 24 1c	 mov	 DWORD PTR _TempData$[esp+8008], esi
  00063	89 74 24 18	 mov	 DWORD PTR _TempData$[esp+8004], esi
  00067	89 74 24 14	 mov	 DWORD PTR _TempData$[esp+8000], esi
  0006b	e8 00 00 00 00	 call	 ?Empty@?$CSimpleStringT@D$0A@@ATL@@QAEXXZ ; ATL::CSimpleStringT<char,0>::Empty

; 37   : 	CScript		script;

  00070	56		 push	 esi
  00071	8d 8c 24 e0 00
	00 00		 lea	 ecx, DWORD PTR _script$[esp+8000]
  00078	89 b4 24 3c 1f
	00 00		 mov	 DWORD PTR __$EHRec$[esp+8008], esi
  0007f	e8 00 00 00 00	 call	 ??0CScript@@QAE@H@Z	; CScript::CScript

; 38   : 
; 39   : 
; 40   : 	if( script.Load( lpszFileName ) == FALSE )

  00084	56		 push	 esi
  00085	6a 01		 push	 1
  00087	57		 push	 edi
  00088	8d 8c 24 e8 00
	00 00		 lea	 ecx, DWORD PTR _script$[esp+8008]
  0008f	c6 84 24 44 1f
	00 00 01	 mov	 BYTE PTR __$EHRec$[esp+8016], 1
  00097	e8 00 00 00 00	 call	 ?Load@CScript@@QAEHPBDHH@Z ; CScript::Load
  0009c	85 c0		 test	 eax, eax
  0009e	75 39		 jne	 SHORT $L187334

; 41   : 		return FALSE;

  000a0	8d 8c 24 dc 00
	00 00		 lea	 ecx, DWORD PTR _script$[esp+7996]
  000a7	88 84 24 38 1f
	00 00		 mov	 BYTE PTR __$EHRec$[esp+8004], al
  000ae	e8 00 00 00 00	 call	 ??1CScript@@UAE@XZ	; CScript::~CScript
  000b3	8b 44 24 24	 mov	 eax, DWORD PTR _TempData$[esp+8016]
  000b7	83 c0 f0	 add	 eax, -16		; fffffff0H
  000ba	89 9c 24 38 1f
	00 00		 mov	 DWORD PTR __$EHRec$[esp+8004], ebx
  000c1	8d 48 0c	 lea	 ecx, DWORD PTR [eax+12]
  000c4	f0 0f c1 19	 lock	  xadd	 DWORD PTR [ecx], ebx
  000c8	4b		 dec	 ebx
  000c9	85 db		 test	 ebx, ebx
  000cb	7f 08		 jg	 SHORT $L195052
  000cd	8b 08		 mov	 ecx, DWORD PTR [eax]
  000cf	8b 11		 mov	 edx, DWORD PTR [ecx]
  000d1	50		 push	 eax
  000d2	ff 52 04	 call	 DWORD PTR [edx+4]
$L195052:
  000d5	33 c0		 xor	 eax, eax
  000d7	eb 7e		 jmp	 SHORT $L187331
$L187334:
  000d9	55		 push	 ebp

; 42   : 
; 43   : 	script.tok = 0;
; 44   : 
; 45   : 	TempData.Init();

  000da	8d 4c 24 28	 lea	 ecx, DWORD PTR _TempData$[esp+8020]
  000de	89 b4 24 0c 09
	00 00		 mov	 DWORD PTR _script$[esp+10092], esi
  000e5	89 5c 24 14	 mov	 DWORD PTR _TempData$[esp+8000], ebx
  000e9	89 74 24 24	 mov	 DWORD PTR _TempData$[esp+8016], esi
  000ed	89 74 24 20	 mov	 DWORD PTR _TempData$[esp+8012], esi
  000f1	89 74 24 1c	 mov	 DWORD PTR _TempData$[esp+8008], esi
  000f5	89 74 24 18	 mov	 DWORD PTR _TempData$[esp+8004], esi
  000f9	e8 00 00 00 00	 call	 ?Empty@?$CSimpleStringT@D$0A@@ATL@@QAEXXZ ; ATL::CSimpleStringT<char,0>::Empty

; 46   : 	TempData.nID		= script.GetNumber(); // ID

  000fe	56		 push	 esi
  000ff	8d 8c 24 e4 00
	00 00		 lea	 ecx, DWORD PTR _script$[esp+8004]
  00106	e8 00 00 00 00	 call	 ?GetNumber@CScanner@@QAEHH@Z ; CScanner::GetNumber
  0010b	8b e8		 mov	 ebp, eax

; 47   : 
; 48   : 	while(script.tok != FINISHED)

  0010d	83 bc 24 0c 09
	00 00 15	 cmp	 DWORD PTR _script$[esp+10092], 21 ; 00000015H
  00115	89 6c 24 14	 mov	 DWORD PTR _TempData$[esp+8000], ebp
  00119	75 66		 jne	 SHORT $L187337
$L196165:

; 92   : 	}
; 93   : 	
; 94   : 	return TRUE;

  0011b	8d 8c 24 e0 00
	00 00		 lea	 ecx, DWORD PTR _script$[esp+8000]
  00122	c6 84 24 3c 1f
	00 00 00	 mov	 BYTE PTR __$EHRec$[esp+8008], 0
  0012a	e8 00 00 00 00	 call	 ??1CScript@@UAE@XZ	; CScript::~CScript
  0012f	8b 44 24 28	 mov	 eax, DWORD PTR _TempData$[esp+8020]
  00133	83 c0 f0	 add	 eax, -16		; fffffff0H
  00136	89 9c 24 3c 1f
	00 00		 mov	 DWORD PTR __$EHRec$[esp+8008], ebx
  0013d	8d 48 0c	 lea	 ecx, DWORD PTR [eax+12]
  00140	f0 0f c1 19	 lock	  xadd	 DWORD PTR [ecx], ebx
  00144	4b		 dec	 ebx
  00145	85 db		 test	 ebx, ebx
  00147	7f 08		 jg	 SHORT $L196154
  00149	8b 08		 mov	 ecx, DWORD PTR [eax]
  0014b	8b 11		 mov	 edx, DWORD PTR [ecx]
  0014d	50		 push	 eax
  0014e	ff 52 04	 call	 DWORD PTR [edx+4]
$L196154:
  00151	b8 01 00 00 00	 mov	 eax, 1
$L196172:
  00156	5d		 pop	 ebp
$L187331:

; 95   : }

  00157	8b 8c 24 30 1f
	00 00		 mov	 ecx, DWORD PTR __$EHRec$[esp+7996]
  0015e	5f		 pop	 edi
  0015f	5e		 pop	 esi
  00160	64 89 0d 00 00
	00 00		 mov	 DWORD PTR fs:__except_list, ecx
  00167	8b 8c 24 24 1f
	00 00		 mov	 ecx, DWORD PTR __$ArrayPad$[esp+7988]
  0016e	5b		 pop	 ebx
  0016f	33 cc		 xor	 ecx, esp
  00171	e8 00 00 00 00	 call	 @__security_check_cookie@4
  00176	81 c4 30 1f 00
	00		 add	 esp, 7984		; 00001f30H
  0017c	c2 04 00	 ret	 4
$L196166:

; 47   : 
; 48   : 	while(script.tok != FINISHED)

  0017f	33 f6		 xor	 esi, esi
$L187337:

; 49   : 	{
; 50   : 		
; 51   : 		TempData.nLGrouping = script.GetNumber();	// 

  00181	56		 push	 esi
  00182	8d 8c 24 e4 00
	00 00		 lea	 ecx, DWORD PTR _script$[esp+8004]
  00189	e8 00 00 00 00	 call	 ?GetNumber@CScanner@@QAEHH@Z ; CScanner::GetNumber

; 52   : 		TempData.nSGrouping = script.GetNumber();	// 

  0018e	56		 push	 esi
  0018f	8d 8c 24 e4 00
	00 00		 lea	 ecx, DWORD PTR _script$[esp+8004]
  00196	89 44 24 1c	 mov	 DWORD PTR _TempData$[esp+8008], eax
  0019a	e8 00 00 00 00	 call	 ?GetNumber@CScanner@@QAEHH@Z ; CScanner::GetNumber
  0019f	8b f8		 mov	 edi, eax

; 53   : 		TempData.nNeed		= script.GetNumber();	//  

  001a1	56		 push	 esi
  001a2	8d 8c 24 e4 00
	00 00		 lea	 ecx, DWORD PTR _script$[esp+8004]
  001a9	89 7c 24 20	 mov	 DWORD PTR _TempData$[esp+8012], edi
  001ad	e8 00 00 00 00	 call	 ?GetNumber@CScanner@@QAEHH@Z ; CScanner::GetNumber
  001b2	8b d8		 mov	 ebx, eax

; 54   : 		script.GetToken();

  001b4	56		 push	 esi
  001b5	8d 8c 24 e4 00
	00 00		 lea	 ecx, DWORD PTR _script$[esp+8004]
  001bc	89 5c 24 24	 mov	 DWORD PTR _TempData$[esp+8016], ebx
  001c0	e8 00 00 00 00	 call	 ?GetToken@CScript@@UAEHH@Z ; CScript::GetToken

; 55   : 		TempData.strTitle	= script.Token;	//  

  001c5	8b 84 24 00 01
	00 00		 mov	 eax, DWORD PTR _script$[esp+8032]
  001cc	8b 74 24 28	 mov	 esi, DWORD PTR _TempData$[esp+8020]
  001d0	8d 56 f0	 lea	 edx, DWORD PTR [esi-16]
  001d3	8d 48 f0	 lea	 ecx, DWORD PTR [eax-16]
  001d6	3b ca		 cmp	 ecx, edx
  001d8	89 54 24 2c	 mov	 DWORD PTR _pOldData$195145[esp+8000], edx
  001dc	74 61		 je	 SHORT $L195142
  001de	83 7a 0c 00	 cmp	 DWORD PTR [edx+12], 0
  001e2	8d 72 0c	 lea	 esi, DWORD PTR [edx+12]
  001e5	89 74 24 34	 mov	 DWORD PTR tv852[esp+8000], esi
  001e9	7c 36		 jl	 SHORT $L195148
  001eb	8b 31		 mov	 esi, DWORD PTR [ecx]
  001ed	3b 32		 cmp	 esi, DWORD PTR [edx]
  001ef	75 30		 jne	 SHORT $L195148
  001f1	51		 push	 ecx
  001f2	e8 00 00 00 00	 call	 ?CloneData@?$CSimpleStringT@D$0A@@ATL@@CAPAUCStringData@2@PAU32@@Z ; ATL::CSimpleStringT<char,0>::CloneData
  001f7	8b 4c 24 38	 mov	 ecx, DWORD PTR tv852[esp+8004]
  001fb	8b f0		 mov	 esi, eax
  001fd	83 c4 04	 add	 esp, 4
  00200	83 c8 ff	 or	 eax, -1
  00203	f0 0f c1 01	 lock	  xadd	 DWORD PTR [ecx], eax
  00207	48		 dec	 eax
  00208	85 c0		 test	 eax, eax
  0020a	7f 0c		 jg	 SHORT $L195138
  0020c	8b 44 24 2c	 mov	 eax, DWORD PTR _pOldData$195145[esp+8000]
  00210	8b 08		 mov	 ecx, DWORD PTR [eax]
  00212	8b 11		 mov	 edx, DWORD PTR [ecx]
  00214	50		 push	 eax
  00215	ff 52 04	 call	 DWORD PTR [edx+4]
$L195138:
  00218	83 c6 10	 add	 esi, 16			; 00000010H
  0021b	89 74 24 28	 mov	 DWORD PTR _TempData$[esp+8020], esi
  0021f	eb 1a		 jmp	 SHORT $L196175
$L195148:
  00221	8b 48 f4	 mov	 ecx, DWORD PTR [eax-12]
  00224	51		 push	 ecx
  00225	50		 push	 eax
  00226	8d 4c 24 30	 lea	 ecx, DWORD PTR _TempData$[esp+8028]
  0022a	e8 00 00 00 00	 call	 ?SetString@?$CSimpleStringT@D$0A@@ATL@@QAEXPBDH@Z ; ATL::CSimpleStringT<char,0>::SetString
  0022f	8b 5c 24 20	 mov	 ebx, DWORD PTR _TempData$[esp+8012]
  00233	8b 7c 24 1c	 mov	 edi, DWORD PTR _TempData$[esp+8008]
  00237	8b 6c 24 14	 mov	 ebp, DWORD PTR _TempData$[esp+8000]
$L196175:
  0023b	8b 74 24 28	 mov	 esi, DWORD PTR _TempData$[esp+8020]
$L195142:

; 56   : 		switch(TempData.nLGrouping)

  0023f	8b 44 24 18	 mov	 eax, DWORD PTR _TempData$[esp+8004]
  00243	8b c8		 mov	 ecx, eax
  00245	83 e9 04	 sub	 ecx, 4
  00248	0f 84 e3 01 00
	00		 je	 $L187343
  0024e	49		 dec	 ecx
  0024f	0f 84 e5 00 00
	00		 je	 $L187485

; 83   : 
; 84   : 			default:
; 85   : 				m_mapEtc.insert(map<int, HonorData>::value_type(TempData.nSGrouping, TempData));

  00255	89 84 24 cc 00
	00 00		 mov	 DWORD PTR $T194949[esp+8008], eax
  0025c	8b 44 24 24	 mov	 eax, DWORD PTR _TempData$[esp+8016]
  00260	83 c6 f0	 add	 esi, -16		; fffffff0H
  00263	56		 push	 esi
  00264	89 bc 24 c8 00
	00 00		 mov	 DWORD PTR $T194949[esp+8004], edi
  0026b	89 ac 24 cc 00
	00 00		 mov	 DWORD PTR $T194949[esp+8008], ebp
  00272	89 bc 24 d4 00
	00 00		 mov	 DWORD PTR $T194949[esp+8016], edi
  00279	89 9c 24 d8 00
	00 00		 mov	 DWORD PTR $T194949[esp+8020], ebx
  00280	89 84 24 dc 00
	00 00		 mov	 DWORD PTR $T194949[esp+8024], eax
  00287	e8 00 00 00 00	 call	 ?CloneData@?$CSimpleStringT@D$0A@@ATL@@CAPAUCStringData@2@PAU32@@Z ; ATL::CSimpleStringT<char,0>::CloneData
  0028c	83 c0 10	 add	 eax, 16			; 00000010H
  0028f	83 c4 04	 add	 esp, 4
  00292	89 84 24 dc 00
	00 00		 mov	 DWORD PTR $T194949[esp+8024], eax
  00299	8d 8c 24 c4 00
	00 00		 lea	 ecx, DWORD PTR $T194949[esp+8000]
  002a0	51		 push	 ecx
  002a1	8b 4c 24 14	 mov	 ecx, DWORD PTR $T196158[esp+8004]
  002a5	8d 54 24 30	 lea	 edx, DWORD PTR $T194950[esp+8004]
  002a9	52		 push	 edx
  002aa	83 c1 18	 add	 ecx, 24			; 00000018H
  002ad	c6 84 24 44 1f
	00 00 06	 mov	 BYTE PTR __$EHRec$[esp+8016], 6
  002b5	e8 00 00 00 00	 call	 ?insert@?$_Tree@V?$_Tmap_traits@HUHonorData@@U?$less@H@std@@V?$allocator@U?$pair@$$CBHUHonorData@@@std@@@3@$0A@@std@@@std@@QAE?AU?$pair@Viterator@?$_Tree@V?$_Tmap_traits@HUHonorData@@U?$less@H@std@@V?$allocator@U?$pair@$$CBHUHonorData@@@std@@@3@$0A@@std@@@std@@_N@2@ABU?$pair@$$CBHUHonorData@@@2@@Z ; std::_Tree<std::_Tmap_traits<int,HonorData,std::less<int>,std::allocator<std::pair<int const ,HonorData> >,0> >::insert
  002ba	8b 84 24 dc 00
	00 00		 mov	 eax, DWORD PTR $T194949[esp+8024]
  002c1	83 c0 f0	 add	 eax, -16		; fffffff0H
  002c4	c6 84 24 3c 1f
	00 00 01	 mov	 BYTE PTR __$EHRec$[esp+8008], 1
  002cc	8d 48 0c	 lea	 ecx, DWORD PTR [eax+12]
  002cf	83 ca ff	 or	 edx, -1
  002d2	f0 0f c1 11	 lock	  xadd	 DWORD PTR [ecx], edx
  002d6	4a		 dec	 edx
  002d7	85 d2		 test	 edx, edx
  002d9	7f 08		 jg	 SHORT $L195887
  002db	8b 08		 mov	 ecx, DWORD PTR [eax]
  002dd	8b 11		 mov	 edx, DWORD PTR [ecx]
  002df	50		 push	 eax
  002e0	ff 52 04	 call	 DWORD PTR [edx+4]
$L195887:

; 86   : 				m_mapAll.insert(map<int, HonorData>::value_type(TempData.nID, TempData));

  002e3	8b 44 24 18	 mov	 eax, DWORD PTR _TempData$[esp+8004]
  002e7	8b 4c 24 24	 mov	 ecx, DWORD PTR _TempData$[esp+8016]
  002eb	56		 push	 esi
  002ec	89 6c 24 3c	 mov	 DWORD PTR $T194951[esp+8004], ebp
  002f0	89 6c 24 40	 mov	 DWORD PTR $T194951[esp+8008], ebp
  002f4	89 44 24 44	 mov	 DWORD PTR $T194951[esp+8012], eax
  002f8	89 7c 24 48	 mov	 DWORD PTR $T194951[esp+8016], edi
  002fc	89 5c 24 4c	 mov	 DWORD PTR $T194951[esp+8020], ebx
  00300	89 4c 24 50	 mov	 DWORD PTR $T194951[esp+8024], ecx
  00304	e8 00 00 00 00	 call	 ?CloneData@?$CSimpleStringT@D$0A@@ATL@@CAPAUCStringData@2@PAU32@@Z ; ATL::CSimpleStringT<char,0>::CloneData
  00309	83 c0 10	 add	 eax, 16			; 00000010H
  0030c	83 c4 04	 add	 esp, 4
  0030f	89 44 24 50	 mov	 DWORD PTR $T194951[esp+8024], eax
  00313	8b 4c 24 10	 mov	 ecx, DWORD PTR $T196158[esp+8000]
  00317	8d 54 24 38	 lea	 edx, DWORD PTR $T194951[esp+8000]
  0031b	52		 push	 edx
  0031c	8d 44 24 30	 lea	 eax, DWORD PTR $T194952[esp+8004]
  00320	50		 push	 eax
  00321	83 c1 24	 add	 ecx, 36			; 00000024H
  00324	c6 84 24 44 1f
	00 00 07	 mov	 BYTE PTR __$EHRec$[esp+8016], 7
  0032c	e8 00 00 00 00	 call	 ?insert@?$_Tree@V?$_Tmap_traits@HUHonorData@@U?$less@H@std@@V?$allocator@U?$pair@$$CBHUHonorData@@@std@@@3@$0A@@std@@@std@@QAE?AU?$pair@Viterator@?$_Tree@V?$_Tmap_traits@HUHonorData@@U?$less@H@std@@V?$allocator@U?$pair@$$CBHUHonorData@@@std@@@3@$0A@@std@@@std@@_N@2@ABU?$pair@$$CBHUHonorData@@@2@@Z ; std::_Tree<std::_Tmap_traits<int,HonorData,std::less<int>,std::allocator<std::pair<int const ,HonorData> >,0> >::insert
  00331	8b 44 24 50	 mov	 eax, DWORD PTR $T194951[esp+8024]

; 87   : 				break;

  00335	e9 f5 01 00 00	 jmp	 $L196177
$L187485:

; 68   : 				}
; 69   : 				break;
; 70   : 
; 71   : 			case HI_USE_ITEM:
; 72   : 				if(m_mapItem.size() < MONSTER_TITLE_MAX)

  0033a	8b 44 24 10	 mov	 eax, DWORD PTR $T196158[esp+8000]
  0033e	83 78 14 46	 cmp	 DWORD PTR [eax+20], 70	; 00000046H
  00342	0f 83 9e 02 00
	00		 jae	 $L187486

; 73   : 				{
; 74   : 					m_mapItem.insert(map<int, HonorData>::value_type(TempData.nSGrouping, TempData));

  00348	8b 4c 24 24	 mov	 ecx, DWORD PTR _TempData$[esp+8016]
  0034c	83 c6 f0	 add	 esi, -16		; fffffff0H
  0034f	56		 push	 esi
  00350	89 bc 24 90 00
	00 00		 mov	 DWORD PTR $T194944[esp+8004], edi
  00357	89 ac 24 94 00
	00 00		 mov	 DWORD PTR $T194944[esp+8008], ebp
  0035e	c7 84 24 98 00
	00 00 05 00 00
	00		 mov	 DWORD PTR $T194944[esp+8012], 5
  00369	89 bc 24 9c 00
	00 00		 mov	 DWORD PTR $T194944[esp+8016], edi
  00370	89 9c 24 a0 00
	00 00		 mov	 DWORD PTR $T194944[esp+8020], ebx
  00377	89 8c 24 a4 00
	00 00		 mov	 DWORD PTR $T194944[esp+8024], ecx
  0037e	e8 00 00 00 00	 call	 ?CloneData@?$CSimpleStringT@D$0A@@ATL@@CAPAUCStringData@2@PAU32@@Z ; ATL::CSimpleStringT<char,0>::CloneData
  00383	83 c0 10	 add	 eax, 16			; 00000010H
  00386	83 c4 04	 add	 esp, 4
  00389	89 84 24 a4 00
	00 00		 mov	 DWORD PTR $T194944[esp+8024], eax
  00390	8b 4c 24 10	 mov	 ecx, DWORD PTR $T196158[esp+8000]
  00394	8d 94 24 8c 00
	00 00		 lea	 edx, DWORD PTR $T194944[esp+8000]
  0039b	52		 push	 edx
  0039c	8d 44 24 30	 lea	 eax, DWORD PTR $T194945[esp+8004]
  003a0	50		 push	 eax
  003a1	83 c1 0c	 add	 ecx, 12			; 0000000cH
  003a4	c6 84 24 44 1f
	00 00 04	 mov	 BYTE PTR __$EHRec$[esp+8016], 4
  003ac	e8 00 00 00 00	 call	 ?insert@?$_Tree@V?$_Tmap_traits@HUHonorData@@U?$less@H@std@@V?$allocator@U?$pair@$$CBHUHonorData@@@std@@@3@$0A@@std@@@std@@QAE?AU?$pair@Viterator@?$_Tree@V?$_Tmap_traits@HUHonorData@@U?$less@H@std@@V?$allocator@U?$pair@$$CBHUHonorData@@@std@@@3@$0A@@std@@@std@@_N@2@ABU?$pair@$$CBHUHonorData@@@2@@Z ; std::_Tree<std::_Tmap_traits<int,HonorData,std::less<int>,std::allocator<std::pair<int const ,HonorData> >,0> >::insert
  003b1	8b 84 24 a4 00
	00 00		 mov	 eax, DWORD PTR $T194944[esp+8024]
  003b8	83 c0 f0	 add	 eax, -16		; fffffff0H
  003bb	c6 84 24 3c 1f
	00 00 01	 mov	 BYTE PTR __$EHRec$[esp+8008], 1
  003c3	8d 48 0c	 lea	 ecx, DWORD PTR [eax+12]
  003c6	83 ca ff	 or	 edx, -1
  003c9	f0 0f c1 11	 lock	  xadd	 DWORD PTR [ecx], edx
  003cd	4a		 dec	 edx
  003ce	85 d2		 test	 edx, edx
  003d0	7f 08		 jg	 SHORT $L195589
  003d2	8b 08		 mov	 ecx, DWORD PTR [eax]
  003d4	8b 11		 mov	 edx, DWORD PTR [ecx]
  003d6	50		 push	 eax
  003d7	ff 52 04	 call	 DWORD PTR [edx+4]
$L195589:

; 75   : 					m_mapAll.insert(map<int, HonorData>::value_type(TempData.nID, TempData));

  003da	8b 44 24 24	 mov	 eax, DWORD PTR _TempData$[esp+8016]
  003de	56		 push	 esi
  003df	89 6c 24 58	 mov	 DWORD PTR $T194946[esp+8004], ebp
  003e3	89 6c 24 5c	 mov	 DWORD PTR $T194946[esp+8008], ebp
  003e7	c7 44 24 60 05
	00 00 00	 mov	 DWORD PTR $T194946[esp+8012], 5
  003ef	89 7c 24 64	 mov	 DWORD PTR $T194946[esp+8016], edi
  003f3	89 5c 24 68	 mov	 DWORD PTR $T194946[esp+8020], ebx
  003f7	89 44 24 6c	 mov	 DWORD PTR $T194946[esp+8024], eax
  003fb	e8 00 00 00 00	 call	 ?CloneData@?$CSimpleStringT@D$0A@@ATL@@CAPAUCStringData@2@PAU32@@Z ; ATL::CSimpleStringT<char,0>::CloneData
  00400	83 c0 10	 add	 eax, 16			; 00000010H
  00403	83 c4 04	 add	 esp, 4
  00406	89 44 24 6c	 mov	 DWORD PTR $T194946[esp+8024], eax
  0040a	8d 4c 24 54	 lea	 ecx, DWORD PTR $T194946[esp+8000]
  0040e	51		 push	 ecx
  0040f	8b 4c 24 14	 mov	 ecx, DWORD PTR $T196158[esp+8004]
  00413	8d 54 24 30	 lea	 edx, DWORD PTR $T194947[esp+8004]
  00417	52		 push	 edx
  00418	83 c1 24	 add	 ecx, 36			; 00000024H
  0041b	c6 84 24 44 1f
	00 00 05	 mov	 BYTE PTR __$EHRec$[esp+8016], 5
  00423	e8 00 00 00 00	 call	 ?insert@?$_Tree@V?$_Tmap_traits@HUHonorData@@U?$less@H@std@@V?$allocator@U?$pair@$$CBHUHonorData@@@std@@@3@$0A@@std@@@std@@QAE?AU?$pair@Viterator@?$_Tree@V?$_Tmap_traits@HUHonorData@@U?$less@H@std@@V?$allocator@U?$pair@$$CBHUHonorData@@@std@@@3@$0A@@std@@@std@@_N@2@ABU?$pair@$$CBHUHonorData@@@2@@Z ; std::_Tree<std::_Tmap_traits<int,HonorData,std::less<int>,std::allocator<std::pair<int const ,HonorData> >,0> >::insert
  00428	8b 44 24 6c	 mov	 eax, DWORD PTR $T194946[esp+8024]

; 81   : 				}
; 82   : 				break;

  0042c	e9 fe 00 00 00	 jmp	 $L196177
$L187343:

; 57   : 		{
; 58   : 			case HI_HUNT_MONSTER:
; 59   : 				if(m_mapMonster.size() < MONSTER_TITLE_MAX)

  00431	8b 44 24 10	 mov	 eax, DWORD PTR $T196158[esp+8000]
  00435	83 78 08 46	 cmp	 DWORD PTR [eax+8], 70	; 00000046H
  00439	0f 83 fe 01 00
	00		 jae	 $L187344

; 60   : 				{
; 61   : 					m_mapMonster.insert(map<int, HonorData>::value_type(TempData.nSGrouping, TempData));

  0043f	8b 4c 24 24	 mov	 ecx, DWORD PTR _TempData$[esp+8016]
  00443	83 c6 f0	 add	 esi, -16		; fffffff0H
  00446	56		 push	 esi
  00447	89 7c 24 74	 mov	 DWORD PTR $T194939[esp+8004], edi
  0044b	89 6c 24 78	 mov	 DWORD PTR $T194939[esp+8008], ebp
  0044f	c7 44 24 7c 04
	00 00 00	 mov	 DWORD PTR $T194939[esp+8012], 4
  00457	89 bc 24 80 00
	00 00		 mov	 DWORD PTR $T194939[esp+8016], edi
  0045e	89 9c 24 84 00
	00 00		 mov	 DWORD PTR $T194939[esp+8020], ebx
  00465	89 8c 24 88 00
	00 00		 mov	 DWORD PTR $T194939[esp+8024], ecx
  0046c	e8 00 00 00 00	 call	 ?CloneData@?$CSimpleStringT@D$0A@@ATL@@CAPAUCStringData@2@PAU32@@Z ; ATL::CSimpleStringT<char,0>::CloneData
  00471	83 c0 10	 add	 eax, 16			; 00000010H
  00474	83 c4 04	 add	 esp, 4
  00477	89 84 24 88 00
	00 00		 mov	 DWORD PTR $T194939[esp+8024], eax
  0047e	8b 4c 24 10	 mov	 ecx, DWORD PTR $T196158[esp+8000]
  00482	8d 54 24 70	 lea	 edx, DWORD PTR $T194939[esp+8000]
  00486	52		 push	 edx
  00487	8d 44 24 30	 lea	 eax, DWORD PTR $T194940[esp+8004]
  0048b	50		 push	 eax
  0048c	c6 84 24 44 1f
	00 00 02	 mov	 BYTE PTR __$EHRec$[esp+8016], 2
  00494	e8 00 00 00 00	 call	 ?insert@?$_Tree@V?$_Tmap_traits@HUHonorData@@U?$less@H@std@@V?$allocator@U?$pair@$$CBHUHonorData@@@std@@@3@$0A@@std@@@std@@QAE?AU?$pair@Viterator@?$_Tree@V?$_Tmap_traits@HUHonorData@@U?$less@H@std@@V?$allocator@U?$pair@$$CBHUHonorData@@@std@@@3@$0A@@std@@@std@@_N@2@ABU?$pair@$$CBHUHonorData@@@2@@Z ; std::_Tree<std::_Tmap_traits<int,HonorData,std::less<int>,std::allocator<std::pair<int const ,HonorData> >,0> >::insert
  00499	8b 84 24 88 00
	00 00		 mov	 eax, DWORD PTR $T194939[esp+8024]
  004a0	83 c0 f0	 add	 eax, -16		; fffffff0H
  004a3	c6 84 24 3c 1f
	00 00 01	 mov	 BYTE PTR __$EHRec$[esp+8008], 1
  004ab	8d 48 0c	 lea	 ecx, DWORD PTR [eax+12]
  004ae	83 ca ff	 or	 edx, -1
  004b1	f0 0f c1 11	 lock	  xadd	 DWORD PTR [ecx], edx
  004b5	4a		 dec	 edx
  004b6	85 d2		 test	 edx, edx
  004b8	7f 08		 jg	 SHORT $L195282
  004ba	8b 08		 mov	 ecx, DWORD PTR [eax]
  004bc	8b 11		 mov	 edx, DWORD PTR [ecx]
  004be	50		 push	 eax
  004bf	ff 52 04	 call	 DWORD PTR [edx+4]
$L195282:

; 62   : 					m_mapAll.insert(map<int, HonorData>::value_type(TempData.nID, TempData));

  004c2	8b 44 24 24	 mov	 eax, DWORD PTR _TempData$[esp+8016]
  004c6	56		 push	 esi
  004c7	89 ac 24 ac 00
	00 00		 mov	 DWORD PTR $T194941[esp+8004], ebp
  004ce	89 ac 24 b0 00
	00 00		 mov	 DWORD PTR $T194941[esp+8008], ebp
  004d5	c7 84 24 b4 00
	00 00 04 00 00
	00		 mov	 DWORD PTR $T194941[esp+8012], 4
  004e0	89 bc 24 b8 00
	00 00		 mov	 DWORD PTR $T194941[esp+8016], edi
  004e7	89 9c 24 bc 00
	00 00		 mov	 DWORD PTR $T194941[esp+8020], ebx
  004ee	89 84 24 c0 00
	00 00		 mov	 DWORD PTR $T194941[esp+8024], eax
  004f5	e8 00 00 00 00	 call	 ?CloneData@?$CSimpleStringT@D$0A@@ATL@@CAPAUCStringData@2@PAU32@@Z ; ATL::CSimpleStringT<char,0>::CloneData
  004fa	83 c0 10	 add	 eax, 16			; 00000010H
  004fd	83 c4 04	 add	 esp, 4
  00500	89 84 24 c0 00
	00 00		 mov	 DWORD PTR $T194941[esp+8024], eax
  00507	8d 8c 24 a8 00
	00 00		 lea	 ecx, DWORD PTR $T194941[esp+8000]
  0050e	51		 push	 ecx
  0050f	8b 4c 24 14	 mov	 ecx, DWORD PTR $T196158[esp+8004]
  00513	8d 54 24 30	 lea	 edx, DWORD PTR $T194942[esp+8004]
  00517	52		 push	 edx
  00518	83 c1 24	 add	 ecx, 36			; 00000024H
  0051b	c6 84 24 44 1f
	00 00 03	 mov	 BYTE PTR __$EHRec$[esp+8016], 3
  00523	e8 00 00 00 00	 call	 ?insert@?$_Tree@V?$_Tmap_traits@HUHonorData@@U?$less@H@std@@V?$allocator@U?$pair@$$CBHUHonorData@@@std@@@3@$0A@@std@@@std@@QAE?AU?$pair@Viterator@?$_Tree@V?$_Tmap_traits@HUHonorData@@U?$less@H@std@@V?$allocator@U?$pair@$$CBHUHonorData@@@std@@@3@$0A@@std@@@std@@_N@2@ABU?$pair@$$CBHUHonorData@@@2@@Z ; std::_Tree<std::_Tmap_traits<int,HonorData,std::less<int>,std::allocator<std::pair<int const ,HonorData> >,0> >::insert
  00528	8b 84 24 c0 00
	00 00		 mov	 eax, DWORD PTR $T194941[esp+8024]
$L196177:
  0052f	83 c0 f0	 add	 eax, -16		; fffffff0H
  00532	c6 84 24 3c 1f
	00 00 01	 mov	 BYTE PTR __$EHRec$[esp+8008], 1
  0053a	8d 48 0c	 lea	 ecx, DWORD PTR [eax+12]
  0053d	83 ca ff	 or	 edx, -1
  00540	f0 0f c1 11	 lock	  xadd	 DWORD PTR [ecx], edx
  00544	4a		 dec	 edx
  00545	85 d2		 test	 edx, edx
  00547	7f 08		 jg	 SHORT $L196167
  00549	8b 08		 mov	 ecx, DWORD PTR [eax]
  0054b	8b 11		 mov	 edx, DWORD PTR [ecx]
  0054d	50		 push	 eax
  0054e	ff 52 04	 call	 DWORD PTR [edx+4]
$L196167:

; 88   : 		};
; 89   : 		m_nCurrentTitleCount++;

  00551	8b 44 24 10	 mov	 eax, DWORD PTR $T196158[esp+8000]
  00555	8b 48 30	 mov	 ecx, DWORD PTR [eax+48]
  00558	41		 inc	 ecx

; 90   : 		TempData.Init();

  00559	33 db		 xor	 ebx, ebx
  0055b	89 48 30	 mov	 DWORD PTR [eax+48], ecx
  0055e	39 5e 04	 cmp	 DWORD PTR [esi+4], ebx
  00561	8b 3e		 mov	 edi, DWORD PTR [esi]
  00563	c7 44 24 14 ff
	ff ff ff	 mov	 DWORD PTR _TempData$[esp+8000], -1
  0056b	89 5c 24 24	 mov	 DWORD PTR _TempData$[esp+8016], ebx
  0056f	89 5c 24 20	 mov	 DWORD PTR _TempData$[esp+8012], ebx
  00573	89 5c 24 1c	 mov	 DWORD PTR _TempData$[esp+8008], ebx
  00577	89 5c 24 18	 mov	 DWORD PTR _TempData$[esp+8004], ebx
  0057b	74 40		 je	 SHORT $L196108
  0057d	8b 4e 0c	 mov	 ecx, DWORD PTR [esi+12]
  00580	3b cb		 cmp	 ecx, ebx
  00582	8d 46 0c	 lea	 eax, DWORD PTR [esi+12]
  00585	7d 14		 jge	 SHORT $L196113
  00587	8b 44 24 28	 mov	 eax, DWORD PTR _TempData$[esp+8020]
  0058b	39 58 f8	 cmp	 DWORD PTR [eax-8], ebx
  0058e	0f 8c 9f 00 00
	00		 jl	 $L196163
  00594	89 58 f4	 mov	 DWORD PTR [eax-12], ebx
  00597	88 18		 mov	 BYTE PTR [eax], bl
  00599	eb 22		 jmp	 SHORT $L196108
$L196113:
  0059b	83 c9 ff	 or	 ecx, -1
  0059e	f0 0f c1 08	 lock	  xadd	 DWORD PTR [eax], ecx
  005a2	49		 dec	 ecx
  005a3	85 c9		 test	 ecx, ecx
  005a5	7f 08		 jg	 SHORT $L196104
  005a7	8b 0e		 mov	 ecx, DWORD PTR [esi]
  005a9	8b 11		 mov	 edx, DWORD PTR [ecx]
  005ab	56		 push	 esi
  005ac	ff 52 04	 call	 DWORD PTR [edx+4]
$L196104:
  005af	8b 07		 mov	 eax, DWORD PTR [edi]
  005b1	8b cf		 mov	 ecx, edi
  005b3	ff 50 0c	 call	 DWORD PTR [eax+12]
  005b6	83 c0 10	 add	 eax, 16			; 00000010H
  005b9	89 44 24 28	 mov	 DWORD PTR _TempData$[esp+8020], eax
$L196108:

; 91   : 		TempData.nID		= script.GetNumber(); // ID

  005bd	53		 push	 ebx
  005be	8d 8c 24 e4 00
	00 00		 lea	 ecx, DWORD PTR _script$[esp+8004]
  005c5	e8 00 00 00 00	 call	 ?GetNumber@CScanner@@QAEHH@Z ; CScanner::GetNumber
  005ca	8b e8		 mov	 ebp, eax
  005cc	83 bc 24 0c 09
	00 00 15	 cmp	 DWORD PTR _script$[esp+10092], 21 ; 00000015H
  005d4	89 6c 24 14	 mov	 DWORD PTR _TempData$[esp+8000], ebp
  005d8	0f 85 a1 fb ff
	ff		 jne	 $L196166

; 90   : 		TempData.Init();

  005de	83 cb ff	 or	 ebx, -1
  005e1	e9 35 fb ff ff	 jmp	 $L196165
$L187486:

; 76   : 				}
; 77   : 				else
; 78   : 				{
; 79   : 					Error("Too many title about item!");

  005e6	68 00 00 00 00	 push	 OFFSET FLAT:??_C@_0BL@IDNKGEML@Too?5many?5title?5about?5item?$CB?$AA@
$L196178:
  005eb	e8 00 00 00 00	 call	 ?Error@@YAPBDPBDZZ	; Error
  005f0	83 c4 04	 add	 esp, 4

; 80   : 					return FALSE;

  005f3	8d 8c 24 e0 00
	00 00		 lea	 ecx, DWORD PTR _script$[esp+8000]
  005fa	c6 84 24 3c 1f
	00 00 00	 mov	 BYTE PTR __$EHRec$[esp+8008], 0
  00602	e8 00 00 00 00	 call	 ??1CScript@@UAE@XZ	; CScript::~CScript
  00607	83 c6 f0	 add	 esi, -16		; fffffff0H
  0060a	c7 84 24 3c 1f
	00 00 ff ff ff
	ff		 mov	 DWORD PTR __$EHRec$[esp+8008], -1
  00615	8d 4e 0c	 lea	 ecx, DWORD PTR [esi+12]
  00618	83 ca ff	 or	 edx, -1
  0061b	f0 0f c1 11	 lock	  xadd	 DWORD PTR [ecx], edx
  0061f	4a		 dec	 edx
  00620	85 d2		 test	 edx, edx
  00622	7f 08		 jg	 SHORT $L195757
  00624	8b 0e		 mov	 ecx, DWORD PTR [esi]
  00626	8b 01		 mov	 eax, DWORD PTR [ecx]
  00628	56		 push	 esi
  00629	ff 50 04	 call	 DWORD PTR [eax+4]
$L195757:
  0062c	33 c0		 xor	 eax, eax
  0062e	e9 23 fb ff ff	 jmp	 $L196172
$L196163:

; 90   : 		TempData.Init();

  00633	68 57 00 07 80	 push	 -2147024809		; 80070057H
  00638	e8 00 00 00 00	 call	 ?AtlThrow@ATL@@YGXJ@Z	; ATL::AtlThrow
$L187344:

; 63   : 				}
; 64   : 				else
; 65   : 				{
; 66   : 					Error("Too many title about monster!");

  0063d	68 00 00 00 00	 push	 OFFSET FLAT:??_C@_0BO@JKGKEJHM@Too?5many?5title?5about?5monster?$CB?$AA@

; 67   : 					return FALSE;

  00642	eb a7		 jmp	 SHORT $L196178
$L196174:
_TEXT	ENDS
;	COMDAT text$x
text$x	SEGMENT
$L194954:
  00000	8d 8d d4 e0 ff
	ff		 lea	 ecx, DWORD PTR _TempData$[ebp]
  00006	e9 00 00 00 00	 jmp	 ??1HonorData@@QAE@XZ	; HonorData::~HonorData
$L194955:
  0000b	8d 8d a0 e1 ff
	ff		 lea	 ecx, DWORD PTR _script$[ebp]
  00011	e9 00 00 00 00	 jmp	 ??1CScript@@UAE@XZ	; CScript::~CScript
$L194960:
  00016	8d 8d 84 e1 ff
	ff		 lea	 ecx, DWORD PTR $T194949[ebp]
  0001c	e9 00 00 00 00	 jmp	 ??1?$pair@$$CBHUHonorData@@@std@@QAE@XZ
$L194961:
  00021	8d 8d f8 e0 ff
	ff		 lea	 ecx, DWORD PTR $T194951[ebp]
  00027	e9 00 00 00 00	 jmp	 ??1?$pair@$$CBHUHonorData@@@std@@QAE@XZ
$L194958:
  0002c	8d 8d 4c e1 ff
	ff		 lea	 ecx, DWORD PTR $T194944[ebp]
  00032	e9 00 00 00 00	 jmp	 ??1?$pair@$$CBHUHonorData@@@std@@QAE@XZ
$L194959:
  00037	8d 8d 14 e1 ff
	ff		 lea	 ecx, DWORD PTR $T194946[ebp]
  0003d	e9 00 00 00 00	 jmp	 ??1?$pair@$$CBHUHonorData@@@std@@QAE@XZ
$L194956:
  00042	8d 8d 30 e1 ff
	ff		 lea	 ecx, DWORD PTR $T194939[ebp]
  00048	e9 00 00 00 00	 jmp	 ??1?$pair@$$CBHUHonorData@@@std@@QAE@XZ
$L194957:
  0004d	8d 8d 68 e1 ff
	ff		 lea	 ecx, DWORD PTR $T194941[ebp]
  00053	e9 00 00 00 00	 jmp	 ??1?$pair@$$CBHUHonorData@@@std@@QAE@XZ
__ehhandler$?LoadTitle@CTitleManager@@QAEHPBD@Z:
  00058	b8 00 00 00 00	 mov	 eax, OFFSET FLAT:$T196161
  0005d	e9 00 00 00 00	 jmp	 ___CxxFrameHandler
text$x	ENDS
?LoadTitle@CTitleManager@@QAEHPBD@Z ENDP		; CTitleManager::LoadTitle
PUBLIC	?_Tidy@?$_Tree@V?$_Tmap_traits@HUHonorData@@U?$less@H@std@@V?$allocator@U?$pair@$$CBHUHonorData@@@std@@@3@$0A@@std@@@std@@IAEXXZ ; std::_Tree<std::_Tmap_traits<int,HonorData,std::less<int>,std::allocator<std::pair<int const ,HonorData> >,0> >::_Tidy
; Function compile flags: /Ogty
; File c:\program files\microsoft visual studio .net 2003\vc7\include\xtree
;	COMDAT ?_Tidy@?$_Tree@V?$_Tmap_traits@HUHonorData@@U?$less@H@std@@V?$allocator@U?$pair@$$CBHUHonorData@@@std@@@3@$0A@@std@@@std@@IAEXXZ
_TEXT	SEGMENT
$T196186 = -4						; size = 4
?_Tidy@?$_Tree@V?$_Tmap_traits@HUHonorData@@U?$less@H@std@@V?$allocator@U?$pair@$$CBHUHonorData@@@std@@@3@$0A@@std@@@std@@IAEXXZ PROC NEAR ; std::_Tree<std::_Tmap_traits<int,HonorData,std::less<int>,std::allocator<std::pair<int const ,HonorData> >,0> >::_Tidy, COMDAT
; _this$ = ecx

; 1142 : 		{	// free all storage

  00000	51		 push	 ecx
  00001	56		 push	 esi
  00002	8b f1		 mov	 esi, ecx

; 1143 : 		erase(begin(), end());

  00004	8b 46 04	 mov	 eax, DWORD PTR [esi+4]
  00007	8b 08		 mov	 ecx, DWORD PTR [eax]
  00009	50		 push	 eax
  0000a	51		 push	 ecx
  0000b	8d 44 24 0c	 lea	 eax, DWORD PTR $T196186[esp+16]
  0000f	50		 push	 eax
  00010	8b ce		 mov	 ecx, esi
  00012	e8 00 00 00 00	 call	 ?erase@?$_Tree@V?$_Tmap_traits@HUHonorData@@U?$less@H@std@@V?$allocator@U?$pair@$$CBHUHonorData@@@std@@@3@$0A@@std@@@std@@QAE?AViterator@12@V312@0@Z ; std::_Tree<std::_Tmap_traits<int,HonorData,std::less<int>,std::allocator<std::pair<int const ,HonorData> >,0> >::erase

; 1144 : 		this->_Alptr.destroy(&_Left(_Myhead));
; 1145 : 		this->_Alptr.destroy(&_Parent(_Myhead));
; 1146 : 		this->_Alptr.destroy(&_Right(_Myhead));
; 1147 : 		this->_Alnod.deallocate(_Myhead, 1);

  00017	8b 4e 04	 mov	 ecx, DWORD PTR [esi+4]
  0001a	51		 push	 ecx
  0001b	e8 00 00 00 00	 call	 ??3@YAXPAX@Z		; operator delete
  00020	83 c4 04	 add	 esp, 4

; 1148 : 		_Myhead = 0, _Mysize = 0;

  00023	33 c0		 xor	 eax, eax
  00025	89 46 04	 mov	 DWORD PTR [esi+4], eax
  00028	89 46 08	 mov	 DWORD PTR [esi+8], eax
  0002b	5e		 pop	 esi

; 1149 : 		}

  0002c	59		 pop	 ecx
  0002d	c3		 ret	 0
?_Tidy@?$_Tree@V?$_Tmap_traits@HUHonorData@@U?$less@H@std@@V?$allocator@U?$pair@$$CBHUHonorData@@@std@@@3@$0A@@std@@@std@@IAEXXZ ENDP ; std::_Tree<std::_Tmap_traits<int,HonorData,std::less<int>,std::allocator<std::pair<int const ,HonorData> >,0> >::_Tidy
_TEXT	ENDS
PUBLIC	??1?$_Tree@V?$_Tmap_traits@HUHonorData@@U?$less@H@std@@V?$allocator@U?$pair@$$CBHUHonorData@@@std@@@3@$0A@@std@@@std@@QAE@XZ ; std::_Tree<std::_Tmap_traits<int,HonorData,std::less<int>,std::allocator<std::pair<int const ,HonorData> >,0> >::~_Tree<std::_Tmap_traits<int,HonorData,std::less<int>,std::allocator<std::pair<int const ,HonorData> >,0> >
; Function compile flags: /Ogty
;	COMDAT ??1?$_Tree@V?$_Tmap_traits@HUHonorData@@U?$less@H@std@@V?$allocator@U?$pair@$$CBHUHonorData@@@std@@@3@$0A@@std@@@std@@QAE@XZ
_TEXT	SEGMENT
$T196315 = -4						; size = 4
??1?$_Tree@V?$_Tmap_traits@HUHonorData@@U?$less@H@std@@V?$allocator@U?$pair@$$CBHUHonorData@@@std@@@3@$0A@@std@@@std@@QAE@XZ PROC NEAR ; std::_Tree<std::_Tmap_traits<int,HonorData,std::less<int>,std::allocator<std::pair<int const ,HonorData> >,0> >::~_Tree<std::_Tmap_traits<int,HonorData,std::less<int>,std::allocator<std::pair<int const ,HonorData> >,0> >, COMDAT
; _this$ = ecx

; 391  : 		{	// destroy tree

  00000	51		 push	 ecx
  00001	56		 push	 esi
  00002	8b f1		 mov	 esi, ecx

; 392  : 		_Tidy();

  00004	8b 46 04	 mov	 eax, DWORD PTR [esi+4]
  00007	8b 08		 mov	 ecx, DWORD PTR [eax]
  00009	50		 push	 eax
  0000a	51		 push	 ecx
  0000b	8d 44 24 0c	 lea	 eax, DWORD PTR $T196315[esp+16]
  0000f	50		 push	 eax
  00010	8b ce		 mov	 ecx, esi
  00012	e8 00 00 00 00	 call	 ?erase@?$_Tree@V?$_Tmap_traits@HUHonorData@@U?$less@H@std@@V?$allocator@U?$pair@$$CBHUHonorData@@@std@@@3@$0A@@std@@@std@@QAE?AViterator@12@V312@0@Z ; std::_Tree<std::_Tmap_traits<int,HonorData,std::less<int>,std::allocator<std::pair<int const ,HonorData> >,0> >::erase
  00017	8b 4e 04	 mov	 ecx, DWORD PTR [esi+4]
  0001a	51		 push	 ecx
  0001b	e8 00 00 00 00	 call	 ??3@YAXPAX@Z		; operator delete
  00020	83 c4 04	 add	 esp, 4
  00023	33 c0		 xor	 eax, eax
  00025	89 46 04	 mov	 DWORD PTR [esi+4], eax
  00028	89 46 08	 mov	 DWORD PTR [esi+8], eax
  0002b	5e		 pop	 esi

; 393  : 		}

  0002c	59		 pop	 ecx
  0002d	c3		 ret	 0
??1?$_Tree@V?$_Tmap_traits@HUHonorData@@U?$less@H@std@@V?$allocator@U?$pair@$$CBHUHonorData@@@std@@@3@$0A@@std@@@std@@QAE@XZ ENDP ; std::_Tree<std::_Tmap_traits<int,HonorData,std::less<int>,std::allocator<std::pair<int const ,HonorData> >,0> >::~_Tree<std::_Tmap_traits<int,HonorData,std::less<int>,std::allocator<std::pair<int const ,HonorData> >,0> >
_TEXT	ENDS
PUBLIC	??1?$map@HUHonorData@@U?$less@H@std@@V?$allocator@U?$pair@$$CBHUHonorData@@@std@@@3@@std@@QAE@XZ ; std::map<int,HonorData,std::less<int>,std::allocator<std::pair<int const ,HonorData> > >::~map<int,HonorData,std::less<int>,std::allocator<std::pair<int const ,HonorData> > >
; Function compile flags: /Ogty
;	COMDAT ??1?$map@HUHonorData@@U?$less@H@std@@V?$allocator@U?$pair@$$CBHUHonorData@@@std@@@3@@std@@QAE@XZ
_TEXT	SEGMENT
$T196442 = -4						; size = 4
??1?$map@HUHonorData@@U?$less@H@std@@V?$allocator@U?$pair@$$CBHUHonorData@@@std@@@3@@std@@QAE@XZ PROC NEAR ; std::map<int,HonorData,std::less<int>,std::allocator<std::pair<int const ,HonorData> > >::~map<int,HonorData,std::less<int>,std::allocator<std::pair<int const ,HonorData> > >, COMDAT
; _this$ = ecx
  00000	51		 push	 ecx
  00001	56		 push	 esi
  00002	8b f1		 mov	 esi, ecx
  00004	8b 46 04	 mov	 eax, DWORD PTR [esi+4]
  00007	8b 08		 mov	 ecx, DWORD PTR [eax]
  00009	50		 push	 eax
  0000a	51		 push	 ecx
  0000b	8d 44 24 0c	 lea	 eax, DWORD PTR $T196442[esp+16]
  0000f	50		 push	 eax
  00010	8b ce		 mov	 ecx, esi
  00012	e8 00 00 00 00	 call	 ?erase@?$_Tree@V?$_Tmap_traits@HUHonorData@@U?$less@H@std@@V?$allocator@U?$pair@$$CBHUHonorData@@@std@@@3@$0A@@std@@@std@@QAE?AViterator@12@V312@0@Z ; std::_Tree<std::_Tmap_traits<int,HonorData,std::less<int>,std::allocator<std::pair<int const ,HonorData> >,0> >::erase
  00017	8b 4e 04	 mov	 ecx, DWORD PTR [esi+4]
  0001a	51		 push	 ecx
  0001b	e8 00 00 00 00	 call	 ??3@YAXPAX@Z		; operator delete
  00020	83 c4 04	 add	 esp, 4
  00023	33 c0		 xor	 eax, eax
  00025	89 46 04	 mov	 DWORD PTR [esi+4], eax
  00028	89 46 08	 mov	 DWORD PTR [esi+8], eax
  0002b	5e		 pop	 esi
  0002c	59		 pop	 ecx
  0002d	c3		 ret	 0
??1?$map@HUHonorData@@U?$less@H@std@@V?$allocator@U?$pair@$$CBHUHonorData@@@std@@@3@@std@@QAE@XZ ENDP ; std::map<int,HonorData,std::less<int>,std::allocator<std::pair<int const ,HonorData> > >::~map<int,HonorData,std::less<int>,std::allocator<std::pair<int const ,HonorData> > >
_TEXT	ENDS
PUBLIC	??1CTitleManager@@QAE@XZ			; CTitleManager::~CTitleManager
;	COMDAT xdata$x
; File c:\program files\microsoft visual studio .net 2003\vc7\include\xmemory
xdata$x	SEGMENT
$T197115 DD	0ffffffffH
	DD	FLAT:$L196469
	DD	00H
	DD	FLAT:$L196470
	DD	01H
	DD	FLAT:$L196471
$T197113 DD	019930520H
	DD	03H
	DD	FLAT:$T197115
	DD	2 DUP(00H)
	DD	2 DUP(00H)
; Function compile flags: /Ogty
; File c:\documents and settings\test\mes documents\source\virtuos_v17\build\program\_common\honor.cpp
xdata$x	ENDS
;	COMDAT ??1CTitleManager@@QAE@XZ
_TEXT	SEGMENT
_this$ = -20						; size = 4
$T197085 = -16						; size = 4
$T196924 = -16						; size = 4
$T196764 = -16						; size = 4
$T196607 = -16						; size = 4
__$EHRec$ = -12						; size = 12
??1CTitleManager@@QAE@XZ PROC NEAR			; CTitleManager::~CTitleManager, COMDAT
; _this$ = ecx

; 24   : {

  00000	6a ff		 push	 -1
  00002	68 00 00 00 00	 push	 __ehhandler$??1CTitleManager@@QAE@XZ
  00007	64 a1 00 00 00
	00		 mov	 eax, DWORD PTR fs:__except_list
  0000d	50		 push	 eax
  0000e	64 89 25 00 00
	00 00		 mov	 DWORD PTR fs:__except_list, esp
  00015	83 ec 08	 sub	 esp, 8
  00018	53		 push	 ebx
  00019	56		 push	 esi
  0001a	8b f1		 mov	 esi, ecx
  0001c	57		 push	 edi
  0001d	89 74 24 0c	 mov	 DWORD PTR _this$[esp+32], esi

; 25   : 
; 26   : }

  00021	8b 46 28	 mov	 eax, DWORD PTR [esi+40]
  00024	8b 08		 mov	 ecx, DWORD PTR [eax]
  00026	8d 7e 24	 lea	 edi, DWORD PTR [esi+36]
  00029	50		 push	 eax
  0002a	51		 push	 ecx
  0002b	8d 44 24 18	 lea	 eax, DWORD PTR $T196607[esp+40]
  0002f	50		 push	 eax
  00030	8b cf		 mov	 ecx, edi
  00032	c7 44 24 28 02
	00 00 00	 mov	 DWORD PTR __$EHRec$[esp+52], 2
  0003a	e8 00 00 00 00	 call	 ?erase@?$_Tree@V?$_Tmap_traits@HUHonorData@@U?$less@H@std@@V?$allocator@U?$pair@$$CBHUHonorData@@@std@@@3@$0A@@std@@@std@@QAE?AViterator@12@V312@0@Z ; std::_Tree<std::_Tmap_traits<int,HonorData,std::less<int>,std::allocator<std::pair<int const ,HonorData> >,0> >::erase
  0003f	8b 47 04	 mov	 eax, DWORD PTR [edi+4]
  00042	50		 push	 eax
  00043	e8 00 00 00 00	 call	 ??3@YAXPAX@Z		; operator delete
  00048	33 db		 xor	 ebx, ebx
  0004a	89 5f 04	 mov	 DWORD PTR [edi+4], ebx
  0004d	89 5f 08	 mov	 DWORD PTR [edi+8], ebx
  00050	8b 46 1c	 mov	 eax, DWORD PTR [esi+28]
  00053	8b 08		 mov	 ecx, DWORD PTR [eax]
  00055	83 c4 04	 add	 esp, 4
  00058	8d 7e 18	 lea	 edi, DWORD PTR [esi+24]
  0005b	50		 push	 eax
  0005c	51		 push	 ecx
  0005d	8d 4c 24 18	 lea	 ecx, DWORD PTR $T196764[esp+40]
  00061	51		 push	 ecx
  00062	8b cf		 mov	 ecx, edi
  00064	c6 44 24 28 01	 mov	 BYTE PTR __$EHRec$[esp+52], 1
  00069	e8 00 00 00 00	 call	 ?erase@?$_Tree@V?$_Tmap_traits@HUHonorData@@U?$less@H@std@@V?$allocator@U?$pair@$$CBHUHonorData@@@std@@@3@$0A@@std@@@std@@QAE?AViterator@12@V312@0@Z ; std::_Tree<std::_Tmap_traits<int,HonorData,std::less<int>,std::allocator<std::pair<int const ,HonorData> >,0> >::erase
  0006e	8b 47 04	 mov	 eax, DWORD PTR [edi+4]
  00071	50		 push	 eax
  00072	e8 00 00 00 00	 call	 ??3@YAXPAX@Z		; operator delete
  00077	89 5f 04	 mov	 DWORD PTR [edi+4], ebx
  0007a	89 5f 08	 mov	 DWORD PTR [edi+8], ebx
  0007d	8b 46 10	 mov	 eax, DWORD PTR [esi+16]
  00080	8b 08		 mov	 ecx, DWORD PTR [eax]
  00082	83 c4 04	 add	 esp, 4
  00085	8d 7e 0c	 lea	 edi, DWORD PTR [esi+12]
  00088	50		 push	 eax
  00089	51		 push	 ecx
  0008a	8d 54 24 18	 lea	 edx, DWORD PTR $T196924[esp+40]
  0008e	52		 push	 edx
  0008f	8b cf		 mov	 ecx, edi
  00091	88 5c 24 28	 mov	 BYTE PTR __$EHRec$[esp+52], bl
  00095	e8 00 00 00 00	 call	 ?erase@?$_Tree@V?$_Tmap_traits@HUHonorData@@U?$less@H@std@@V?$allocator@U?$pair@$$CBHUHonorData@@@std@@@3@$0A@@std@@@std@@QAE?AViterator@12@V312@0@Z ; std::_Tree<std::_Tmap_traits<int,HonorData,std::less<int>,std::allocator<std::pair<int const ,HonorData> >,0> >::erase
  0009a	8b 47 04	 mov	 eax, DWORD PTR [edi+4]
  0009d	50		 push	 eax
  0009e	e8 00 00 00 00	 call	 ??3@YAXPAX@Z		; operator delete
  000a3	83 c4 04	 add	 esp, 4
  000a6	89 5f 04	 mov	 DWORD PTR [edi+4], ebx
  000a9	89 5f 08	 mov	 DWORD PTR [edi+8], ebx
  000ac	8b 46 04	 mov	 eax, DWORD PTR [esi+4]
  000af	8b 08		 mov	 ecx, DWORD PTR [eax]
  000b1	50		 push	 eax
  000b2	51		 push	 ecx
  000b3	8d 44 24 18	 lea	 eax, DWORD PTR $T197085[esp+40]
  000b7	50		 push	 eax
  000b8	8b ce		 mov	 ecx, esi
  000ba	c7 44 24 28 ff
	ff ff ff	 mov	 DWORD PTR __$EHRec$[esp+52], -1
  000c2	e8 00 00 00 00	 call	 ?erase@?$_Tree@V?$_Tmap_traits@HUHonorData@@U?$less@H@std@@V?$allocator@U?$pair@$$CBHUHonorData@@@std@@@3@$0A@@std@@@std@@QAE?AViterator@12@V312@0@Z ; std::_Tree<std::_Tmap_traits<int,HonorData,std::less<int>,std::allocator<std::pair<int const ,HonorData> >,0> >::erase
  000c7	8b 4e 04	 mov	 ecx, DWORD PTR [esi+4]
  000ca	51		 push	 ecx
  000cb	e8 00 00 00 00	 call	 ??3@YAXPAX@Z		; operator delete
  000d0	8b 4c 24 18	 mov	 ecx, DWORD PTR __$EHRec$[esp+36]
  000d4	83 c4 04	 add	 esp, 4
  000d7	89 5e 04	 mov	 DWORD PTR [esi+4], ebx
  000da	89 5e 08	 mov	 DWORD PTR [esi+8], ebx
  000dd	5f		 pop	 edi
  000de	5e		 pop	 esi
  000df	5b		 pop	 ebx
  000e0	64 89 0d 00 00
	00 00		 mov	 DWORD PTR fs:__except_list, ecx
  000e7	83 c4 14	 add	 esp, 20			; 00000014H
  000ea	c3		 ret	 0
_TEXT	ENDS
;	COMDAT text$x
text$x	SEGMENT
$L196469:
  00000	8b 4d ec	 mov	 ecx, DWORD PTR _this$[ebp]
  00003	e9 00 00 00 00	 jmp	 ??1?$map@HUHonorData@@U?$less@H@std@@V?$allocator@U?$pair@$$CBHUHonorData@@@std@@@3@@std@@QAE@XZ
$L196470:
  00008	8b 4d ec	 mov	 ecx, DWORD PTR _this$[ebp]
  0000b	83 c1 0c	 add	 ecx, 12			; 0000000cH
  0000e	e9 00 00 00 00	 jmp	 ??1?$map@HUHonorData@@U?$less@H@std@@V?$allocator@U?$pair@$$CBHUHonorData@@@std@@@3@@std@@QAE@XZ
$L196471:
  00013	8b 4d ec	 mov	 ecx, DWORD PTR _this$[ebp]
  00016	83 c1 18	 add	 ecx, 24			; 00000018H
  00019	e9 00 00 00 00	 jmp	 ??1?$map@HUHonorData@@U?$less@H@std@@V?$allocator@U?$pair@$$CBHUHonorData@@@std@@@3@@std@@QAE@XZ
__ehhandler$??1CTitleManager@@QAE@XZ:
  0001e	b8 00 00 00 00	 mov	 eax, OFFSET FLAT:$T197113
  00023	e9 00 00 00 00	 jmp	 ___CxxFrameHandler
text$x	ENDS
??1CTitleManager@@QAE@XZ ENDP				; CTitleManager::~CTitleManager
PUBLIC	??0?$map@HUHonorData@@U?$less@H@std@@V?$allocator@U?$pair@$$CBHUHonorData@@@std@@@3@@std@@QAE@XZ ; std::map<int,HonorData,std::less<int>,std::allocator<std::pair<int const ,HonorData> > >::map<int,HonorData,std::less<int>,std::allocator<std::pair<int const ,HonorData> > >
; Function compile flags: /Ogty
; File c:\program files\microsoft visual studio .net 2003\vc7\include\map
;	COMDAT ??0?$map@HUHonorData@@U?$less@H@std@@V?$allocator@U?$pair@$$CBHUHonorData@@@std@@@3@@std@@QAE@XZ
_TEXT	SEGMENT
??0?$map@HUHonorData@@U?$less@H@std@@V?$allocator@U?$pair@$$CBHUHonorData@@@std@@@3@@std@@QAE@XZ PROC NEAR ; std::map<int,HonorData,std::less<int>,std::allocator<std::pair<int const ,HonorData> > >::map<int,HonorData,std::less<int>,std::allocator<std::pair<int const ,HonorData> > >, COMDAT
; _this$ = ecx

; 102  : 		{	// construct empty map from defaults

  00000	56		 push	 esi
  00001	8b f1		 mov	 esi, ecx
  00003	e8 00 00 00 00	 call	 ?_Buynode@?$_Tree@V?$_Tmap_traits@HUHonorData@@U?$less@H@std@@V?$allocator@U?$pair@$$CBHUHonorData@@@std@@@3@$0A@@std@@@std@@IAEPAU_Node@?$_Tree_nod@V?$_Tmap_traits@HUHonorData@@U?$less@H@std@@V?$allocator@U?$pair@$$CBHUHonorData@@@std@@@3@$0A@@std@@@2@XZ ; std::_Tree<std::_Tmap_traits<int,HonorData,std::less<int>,std::allocator<std::pair<int const ,HonorData> >,0> >::_Buynode
  00008	89 46 04	 mov	 DWORD PTR [esi+4], eax
  0000b	c6 40 29 01	 mov	 BYTE PTR [eax+41], 1
  0000f	8b 46 04	 mov	 eax, DWORD PTR [esi+4]
  00012	89 40 04	 mov	 DWORD PTR [eax+4], eax
  00015	8b 46 04	 mov	 eax, DWORD PTR [esi+4]
  00018	89 00		 mov	 DWORD PTR [eax], eax
  0001a	8b 46 04	 mov	 eax, DWORD PTR [esi+4]
  0001d	89 40 08	 mov	 DWORD PTR [eax+8], eax
  00020	c7 46 08 00 00
	00 00		 mov	 DWORD PTR [esi+8], 0

; 103  : 		}

  00027	8b c6		 mov	 eax, esi
  00029	5e		 pop	 esi
  0002a	c3		 ret	 0
??0?$map@HUHonorData@@U?$less@H@std@@V?$allocator@U?$pair@$$CBHUHonorData@@@std@@@3@@std@@QAE@XZ ENDP ; std::map<int,HonorData,std::less<int>,std::allocator<std::pair<int const ,HonorData> > >::map<int,HonorData,std::less<int>,std::allocator<std::pair<int const ,HonorData> > >
_TEXT	ENDS
PUBLIC	??0CTitleManager@@QAE@XZ			; CTitleManager::CTitleManager
;	COMDAT xdata$x
; File c:\program files\microsoft visual studio .net 2003\vc7\include\xtree
xdata$x	SEGMENT
$T198360 DD	0ffffffffH
	DD	FLAT:$L197287
	DD	00H
	DD	FLAT:$L197288
	DD	01H
	DD	FLAT:$L197289
	DD	02H
	DD	FLAT:$L197290
$T198358 DD	019930520H
	DD	04H
	DD	FLAT:$T198360
	DD	2 DUP(00H)
	DD	2 DUP(00H)
; Function compile flags: /Ogty
; File c:\documents and settings\test\mes documents\source\virtuos_v17\build\program\_common\honor.cpp
xdata$x	ENDS
;	COMDAT ??0CTitleManager@@QAE@XZ
_TEXT	SEGMENT
_this$ = -16						; size = 4
__$EHRec$ = -12						; size = 12
??0CTitleManager@@QAE@XZ PROC NEAR			; CTitleManager::CTitleManager, COMDAT
; _this$ = ecx

; 11   : {

  00000	6a ff		 push	 -1
  00002	68 00 00 00 00	 push	 __ehhandler$??0CTitleManager@@QAE@XZ
  00007	64 a1 00 00 00
	00		 mov	 eax, DWORD PTR fs:__except_list
  0000d	50		 push	 eax
  0000e	64 89 25 00 00
	00 00		 mov	 DWORD PTR fs:__except_list, esp
  00015	51		 push	 ecx
  00016	53		 push	 ebx
  00017	55		 push	 ebp
  00018	56		 push	 esi
  00019	8b f1		 mov	 esi, ecx
  0001b	57		 push	 edi
  0001c	89 74 24 10	 mov	 DWORD PTR _this$[esp+32], esi
  00020	e8 00 00 00 00	 call	 ?_Buynode@?$_Tree@V?$_Tmap_traits@HUHonorData@@U?$less@H@std@@V?$allocator@U?$pair@$$CBHUHonorData@@@std@@@3@$0A@@std@@@std@@IAEPAU_Node@?$_Tree_nod@V?$_Tmap_traits@HUHonorData@@U?$less@H@std@@V?$allocator@U?$pair@$$CBHUHonorData@@@std@@@3@$0A@@std@@@2@XZ ; std::_Tree<std::_Tmap_traits<int,HonorData,std::less<int>,std::allocator<std::pair<int const ,HonorData> >,0> >::_Buynode
  00025	89 46 04	 mov	 DWORD PTR [esi+4], eax
  00028	c6 40 29 01	 mov	 BYTE PTR [eax+41], 1
  0002c	8b 46 04	 mov	 eax, DWORD PTR [esi+4]
  0002f	89 40 04	 mov	 DWORD PTR [eax+4], eax
  00032	8b 46 04	 mov	 eax, DWORD PTR [esi+4]
  00035	89 00		 mov	 DWORD PTR [eax], eax
  00037	8b 46 04	 mov	 eax, DWORD PTR [esi+4]
  0003a	33 db		 xor	 ebx, ebx
  0003c	89 40 08	 mov	 DWORD PTR [eax+8], eax
  0003f	89 5e 08	 mov	 DWORD PTR [esi+8], ebx
  00042	8d 7e 0c	 lea	 edi, DWORD PTR [esi+12]
  00045	8b cf		 mov	 ecx, edi
  00047	89 5c 24 1c	 mov	 DWORD PTR __$EHRec$[esp+40], ebx
  0004b	e8 00 00 00 00	 call	 ?_Buynode@?$_Tree@V?$_Tmap_traits@HUHonorData@@U?$less@H@std@@V?$allocator@U?$pair@$$CBHUHonorData@@@std@@@3@$0A@@std@@@std@@IAEPAU_Node@?$_Tree_nod@V?$_Tmap_traits@HUHonorData@@U?$less@H@std@@V?$allocator@U?$pair@$$CBHUHonorData@@@std@@@3@$0A@@std@@@2@XZ ; std::_Tree<std::_Tmap_traits<int,HonorData,std::less<int>,std::allocator<std::pair<int const ,HonorData> >,0> >::_Buynode
  00050	89 47 04	 mov	 DWORD PTR [edi+4], eax
  00053	c6 40 29 01	 mov	 BYTE PTR [eax+41], 1
  00057	8b 47 04	 mov	 eax, DWORD PTR [edi+4]
  0005a	89 40 04	 mov	 DWORD PTR [eax+4], eax
  0005d	8b 47 04	 mov	 eax, DWORD PTR [edi+4]
  00060	89 00		 mov	 DWORD PTR [eax], eax
  00062	8b 47 04	 mov	 eax, DWORD PTR [edi+4]
  00065	89 40 08	 mov	 DWORD PTR [eax+8], eax
  00068	89 5f 08	 mov	 DWORD PTR [edi+8], ebx
  0006b	8d 6e 18	 lea	 ebp, DWORD PTR [esi+24]
  0006e	8b cd		 mov	 ecx, ebp
  00070	c6 44 24 1c 01	 mov	 BYTE PTR __$EHRec$[esp+40], 1
  00075	e8 00 00 00 00	 call	 ?_Buynode@?$_Tree@V?$_Tmap_traits@HUHonorData@@U?$less@H@std@@V?$allocator@U?$pair@$$CBHUHonorData@@@std@@@3@$0A@@std@@@std@@IAEPAU_Node@?$_Tree_nod@V?$_Tmap_traits@HUHonorData@@U?$less@H@std@@V?$allocator@U?$pair@$$CBHUHonorData@@@std@@@3@$0A@@std@@@2@XZ ; std::_Tree<std::_Tmap_traits<int,HonorData,std::less<int>,std::allocator<std::pair<int const ,HonorData> >,0> >::_Buynode
  0007a	89 45 04	 mov	 DWORD PTR [ebp+4], eax
  0007d	c6 40 29 01	 mov	 BYTE PTR [eax+41], 1
  00081	8b 45 04	 mov	 eax, DWORD PTR [ebp+4]
  00084	89 40 04	 mov	 DWORD PTR [eax+4], eax
  00087	8b 45 04	 mov	 eax, DWORD PTR [ebp+4]
  0008a	89 00		 mov	 DWORD PTR [eax], eax
  0008c	8b 45 04	 mov	 eax, DWORD PTR [ebp+4]
  0008f	89 40 08	 mov	 DWORD PTR [eax+8], eax
  00092	89 5d 08	 mov	 DWORD PTR [ebp+8], ebx
  00095	8d 5e 24	 lea	 ebx, DWORD PTR [esi+36]
  00098	8b cb		 mov	 ecx, ebx
  0009a	c6 44 24 1c 02	 mov	 BYTE PTR __$EHRec$[esp+40], 2
  0009f	e8 00 00 00 00	 call	 ?_Buynode@?$_Tree@V?$_Tmap_traits@HUHonorData@@U?$less@H@std@@V?$allocator@U?$pair@$$CBHUHonorData@@@std@@@3@$0A@@std@@@std@@IAEPAU_Node@?$_Tree_nod@V?$_Tmap_traits@HUHonorData@@U?$less@H@std@@V?$allocator@U?$pair@$$CBHUHonorData@@@std@@@3@$0A@@std@@@2@XZ ; std::_Tree<std::_Tmap_traits<int,HonorData,std::less<int>,std::allocator<std::pair<int const ,HonorData> >,0> >::_Buynode
  000a4	89 43 04	 mov	 DWORD PTR [ebx+4], eax
  000a7	c6 40 29 01	 mov	 BYTE PTR [eax+41], 1
  000ab	8b 43 04	 mov	 eax, DWORD PTR [ebx+4]
  000ae	89 40 04	 mov	 DWORD PTR [eax+4], eax
  000b1	8b 43 04	 mov	 eax, DWORD PTR [ebx+4]
  000b4	89 00		 mov	 DWORD PTR [eax], eax
  000b6	8b 43 04	 mov	 eax, DWORD PTR [ebx+4]
  000b9	89 40 08	 mov	 DWORD PTR [eax+8], eax
  000bc	c7 43 08 00 00
	00 00		 mov	 DWORD PTR [ebx+8], 0

; 12   : 	m_mapMonster.clear();

  000c3	8b 46 04	 mov	 eax, DWORD PTR [esi+4]
  000c6	8b 48 04	 mov	 ecx, DWORD PTR [eax+4]
  000c9	51		 push	 ecx
  000ca	8b ce		 mov	 ecx, esi
  000cc	c6 44 24 20 03	 mov	 BYTE PTR __$EHRec$[esp+44], 3
  000d1	e8 00 00 00 00	 call	 ?_Erase@?$_Tree@V?$_Tmap_traits@HUHonorData@@U?$less@H@std@@V?$allocator@U?$pair@$$CBHUHonorData@@@std@@@3@$0A@@std@@@std@@IAEXPAU_Node@?$_Tree_nod@V?$_Tmap_traits@HUHonorData@@U?$less@H@std@@V?$allocator@U?$pair@$$CBHUHonorData@@@std@@@3@$0A@@std@@@2@@Z ; std::_Tree<std::_Tmap_traits<int,HonorData,std::less<int>,std::allocator<std::pair<int const ,HonorData> >,0> >::_Erase
  000d6	8b 46 04	 mov	 eax, DWORD PTR [esi+4]
  000d9	89 40 04	 mov	 DWORD PTR [eax+4], eax
  000dc	8b 46 04	 mov	 eax, DWORD PTR [esi+4]
  000df	c7 46 08 00 00
	00 00		 mov	 DWORD PTR [esi+8], 0
  000e6	89 00		 mov	 DWORD PTR [eax], eax
  000e8	8b 46 04	 mov	 eax, DWORD PTR [esi+4]
  000eb	89 40 08	 mov	 DWORD PTR [eax+8], eax

; 13   : 	m_mapItem.clear();

  000ee	8b 57 04	 mov	 edx, DWORD PTR [edi+4]
  000f1	8b 42 04	 mov	 eax, DWORD PTR [edx+4]
  000f4	50		 push	 eax
  000f5	8b cf		 mov	 ecx, edi
  000f7	e8 00 00 00 00	 call	 ?_Erase@?$_Tree@V?$_Tmap_traits@HUHonorData@@U?$less@H@std@@V?$allocator@U?$pair@$$CBHUHonorData@@@std@@@3@$0A@@std@@@std@@IAEXPAU_Node@?$_Tree_nod@V?$_Tmap_traits@HUHonorData@@U?$less@H@std@@V?$allocator@U?$pair@$$CBHUHonorData@@@std@@@3@$0A@@std@@@2@@Z ; std::_Tree<std::_Tmap_traits<int,HonorData,std::less<int>,std::allocator<std::pair<int const ,HonorData> >,0> >::_Erase
  000fc	8b 47 04	 mov	 eax, DWORD PTR [edi+4]
  000ff	89 40 04	 mov	 DWORD PTR [eax+4], eax
  00102	c7 47 08 00 00
	00 00		 mov	 DWORD PTR [edi+8], 0
  00109	8b 47 04	 mov	 eax, DWORD PTR [edi+4]
  0010c	89 00		 mov	 DWORD PTR [eax], eax
  0010e	8b 7f 04	 mov	 edi, DWORD PTR [edi+4]
  00111	89 7f 08	 mov	 DWORD PTR [edi+8], edi

; 14   : 	m_mapEtc.clear();

  00114	8b 4d 04	 mov	 ecx, DWORD PTR [ebp+4]
  00117	8b 51 04	 mov	 edx, DWORD PTR [ecx+4]
  0011a	52		 push	 edx
  0011b	8b cd		 mov	 ecx, ebp
  0011d	e8 00 00 00 00	 call	 ?_Erase@?$_Tree@V?$_Tmap_traits@HUHonorData@@U?$less@H@std@@V?$allocator@U?$pair@$$CBHUHonorData@@@std@@@3@$0A@@std@@@std@@IAEXPAU_Node@?$_Tree_nod@V?$_Tmap_traits@HUHonorData@@U?$less@H@std@@V?$allocator@U?$pair@$$CBHUHonorData@@@std@@@3@$0A@@std@@@2@@Z ; std::_Tree<std::_Tmap_traits<int,HonorData,std::less<int>,std::allocator<std::pair<int const ,HonorData> >,0> >::_Erase
  00122	8b 45 04	 mov	 eax, DWORD PTR [ebp+4]
  00125	89 40 04	 mov	 DWORD PTR [eax+4], eax
  00128	8b 45 04	 mov	 eax, DWORD PTR [ebp+4]
  0012b	33 ff		 xor	 edi, edi
  0012d	89 7d 08	 mov	 DWORD PTR [ebp+8], edi
  00130	89 00		 mov	 DWORD PTR [eax], eax
  00132	8b 6d 04	 mov	 ebp, DWORD PTR [ebp+4]
  00135	89 6d 08	 mov	 DWORD PTR [ebp+8], ebp

; 15   : 	m_mapAll.clear();

  00138	8b 43 04	 mov	 eax, DWORD PTR [ebx+4]
  0013b	8b 48 04	 mov	 ecx, DWORD PTR [eax+4]
  0013e	51		 push	 ecx
  0013f	8b cb		 mov	 ecx, ebx
  00141	e8 00 00 00 00	 call	 ?_Erase@?$_Tree@V?$_Tmap_traits@HUHonorData@@U?$less@H@std@@V?$allocator@U?$pair@$$CBHUHonorData@@@std@@@3@$0A@@std@@@std@@IAEXPAU_Node@?$_Tree_nod@V?$_Tmap_traits@HUHonorData@@U?$less@H@std@@V?$allocator@U?$pair@$$CBHUHonorData@@@std@@@3@$0A@@std@@@2@@Z ; std::_Tree<std::_Tmap_traits<int,HonorData,std::less<int>,std::allocator<std::pair<int const ,HonorData> >,0> >::_Erase
  00146	8b 43 04	 mov	 eax, DWORD PTR [ebx+4]

; 16   : 	m_nCurrentTitleCount = 0;
; 17   : #ifdef __CLIENT
; 18   : 	m_vecEarned.clear();
; 19   : #endif	// __CLIENT
; 20   : }

  00149	8b 4c 24 14	 mov	 ecx, DWORD PTR __$EHRec$[esp+32]
  0014d	89 40 04	 mov	 DWORD PTR [eax+4], eax
  00150	8b 43 04	 mov	 eax, DWORD PTR [ebx+4]
  00153	89 7b 08	 mov	 DWORD PTR [ebx+8], edi
  00156	89 00		 mov	 DWORD PTR [eax], eax
  00158	8b 5b 04	 mov	 ebx, DWORD PTR [ebx+4]
  0015b	89 5b 08	 mov	 DWORD PTR [ebx+8], ebx
  0015e	89 7e 30	 mov	 DWORD PTR [esi+48], edi
  00161	5f		 pop	 edi
  00162	8b c6		 mov	 eax, esi
  00164	5e		 pop	 esi
  00165	5d		 pop	 ebp
  00166	5b		 pop	 ebx
  00167	64 89 0d 00 00
	00 00		 mov	 DWORD PTR fs:__except_list, ecx
  0016e	83 c4 10	 add	 esp, 16			; 00000010H
  00171	c3		 ret	 0
_TEXT	ENDS
;	COMDAT text$x
text$x	SEGMENT
$L197287:
  00000	8b 4d f0	 mov	 ecx, DWORD PTR _this$[ebp]
  00003	e9 00 00 00 00	 jmp	 ??1?$map@HUHonorData@@U?$less@H@std@@V?$allocator@U?$pair@$$CBHUHonorData@@@std@@@3@@std@@QAE@XZ
$L197288:
  00008	8b 4d f0	 mov	 ecx, DWORD PTR _this$[ebp]
  0000b	83 c1 0c	 add	 ecx, 12			; 0000000cH
  0000e	e9 00 00 00 00	 jmp	 ??1?$map@HUHonorData@@U?$less@H@std@@V?$allocator@U?$pair@$$CBHUHonorData@@@std@@@3@@std@@QAE@XZ
$L197289:
  00013	8b 4d f0	 mov	 ecx, DWORD PTR _this$[ebp]
  00016	83 c1 18	 add	 ecx, 24			; 00000018H
  00019	e9 00 00 00 00	 jmp	 ??1?$map@HUHonorData@@U?$less@H@std@@V?$allocator@U?$pair@$$CBHUHonorData@@@std@@@3@@std@@QAE@XZ
$L197290:
  0001e	8b 4d f0	 mov	 ecx, DWORD PTR _this$[ebp]
  00021	83 c1 24	 add	 ecx, 36			; 00000024H
  00024	e9 00 00 00 00	 jmp	 ??1?$map@HUHonorData@@U?$less@H@std@@V?$allocator@U?$pair@$$CBHUHonorData@@@std@@@3@@std@@QAE@XZ
__ehhandler$??0CTitleManager@@QAE@XZ:
  00029	b8 00 00 00 00	 mov	 eax, OFFSET FLAT:$T198358
  0002e	e9 00 00 00 00	 jmp	 ___CxxFrameHandler
text$x	ENDS
??0CTitleManager@@QAE@XZ ENDP				; CTitleManager::CTitleManager
PUBLIC	?Instance@CTitleManager@@SAPAV1@XZ		; CTitleManager::Instance
EXTRN	_atexit:NEAR
;	COMDAT ?tManager@?1??Instance@CTitleManager@@SAPAV2@XZ@4V2@A
_BSS	SEGMENT
?tManager@?1??Instance@CTitleManager@@SAPAV2@XZ@4V2@A DB 034H DUP (?) ; `CTitleManager::Instance'::`2'::tManager
_BSS	ENDS
;	COMDAT ?$S1@?1??Instance@CTitleManager@@SAPAV2@XZ@4IA
_BSS	SEGMENT
?$S1@?1??Instance@CTitleManager@@SAPAV2@XZ@4IA DD 01H DUP (?) ; `CTitleManager::Instance'::`2'::$S1
_BSS	ENDS
;	COMDAT xdata$x
xdata$x	SEGMENT
$T198370 DD	0ffffffffH
	DD	FLAT:$L198365
$T198367 DD	019930520H
	DD	01H
	DD	FLAT:$T198370
	DD	2 DUP(00H)
	DD	2 DUP(00H)
; Function compile flags: /Ogty
xdata$x	ENDS
;	COMDAT ?Instance@CTitleManager@@SAPAV1@XZ
_TEXT	SEGMENT
__$EHRec$ = -12						; size = 12
?Instance@CTitleManager@@SAPAV1@XZ PROC NEAR		; CTitleManager::Instance, COMDAT

; 29   : {

  00000	64 a1 00 00 00
	00		 mov	 eax, DWORD PTR fs:__except_list

; 30   : 	static CTitleManager tManager;

  00006	8a 0d 00 00 00
	00		 mov	 cl, BYTE PTR ?$S1@?1??Instance@CTitleManager@@SAPAV2@XZ@4IA
  0000c	6a ff		 push	 -1
  0000e	68 00 00 00 00	 push	 __ehhandler$?Instance@CTitleManager@@SAPAV1@XZ
  00013	50		 push	 eax
  00014	b8 01 00 00 00	 mov	 eax, 1
  00019	84 c8		 test	 cl, al
  0001b	64 89 25 00 00
	00 00		 mov	 DWORD PTR fs:__except_list, esp
  00022	75 25		 jne	 SHORT $L198368
  00024	09 05 00 00 00
	00		 or	 DWORD PTR ?$S1@?1??Instance@CTitleManager@@SAPAV2@XZ@4IA, eax
  0002a	b9 00 00 00 00	 mov	 ecx, OFFSET FLAT:?tManager@?1??Instance@CTitleManager@@SAPAV2@XZ@4V2@A
  0002f	c7 44 24 08 00
	00 00 00	 mov	 DWORD PTR __$EHRec$[esp+20], 0
  00037	e8 00 00 00 00	 call	 ??0CTitleManager@@QAE@XZ ; CTitleManager::CTitleManager
  0003c	68 00 00 00 00	 push	 OFFSET FLAT:_$E2
  00041	e8 00 00 00 00	 call	 _atexit
  00046	83 c4 04	 add	 esp, 4
$L198368:

; 31   : 	return &tManager;
; 32   : }

  00049	8b 0c 24	 mov	 ecx, DWORD PTR __$EHRec$[esp+12]
  0004c	b8 00 00 00 00	 mov	 eax, OFFSET FLAT:?tManager@?1??Instance@CTitleManager@@SAPAV2@XZ@4V2@A
  00051	64 89 0d 00 00
	00 00		 mov	 DWORD PTR fs:__except_list, ecx
  00058	83 c4 0c	 add	 esp, 12			; 0000000cH
  0005b	c3		 ret	 0
_TEXT	ENDS
;	COMDAT text$x
text$x	SEGMENT
$L198365:
  00000	a1 00 00 00 00	 mov	 eax, DWORD PTR ?$S1@?1??Instance@CTitleManager@@SAPAV2@XZ@4IA
  00005	83 e0 fe	 and	 eax, -2			; fffffffeH
  00008	a3 00 00 00 00	 mov	 DWORD PTR ?$S1@?1??Instance@CTitleManager@@SAPAV2@XZ@4IA, eax
  0000d	c3		 ret	 0
__ehhandler$?Instance@CTitleManager@@SAPAV1@XZ:
  0000e	b8 00 00 00 00	 mov	 eax, OFFSET FLAT:$T198367
  00013	e9 00 00 00 00	 jmp	 ___CxxFrameHandler
text$x	ENDS
?Instance@CTitleManager@@SAPAV1@XZ ENDP			; CTitleManager::Instance
; Function compile flags: /Ogty
;	COMDAT _$E2
text$yd	SEGMENT
_$E2	PROC NEAR					; COMDAT
  00000	b9 00 00 00 00	 mov	 ecx, OFFSET FLAT:?tManager@?1??Instance@CTitleManager@@SAPAV2@XZ@4V2@A
  00005	e9 00 00 00 00	 jmp	 ??1CTitleManager@@QAE@XZ ; CTitleManager::~CTitleManager
_$E2	ENDP
text$yd	ENDS
END
