; Listing generated by Microsoft (R) Optimizing Compiler Version 13.10.6030 

	TITLE	.\HousingDBCtrl.cpp
	.386P
include listing.inc
if @Version gt 510
.model FLAT
else
_TEXT	SEGMENT PARA USE32 PUBLIC 'CODE'
_TEXT	ENDS
_DATA	SEGMENT DWORD USE32 PUBLIC 'DATA'
_DATA	ENDS
CONST	SEGMENT DWORD USE32 PUBLIC 'CONST'
CONST	ENDS
_BSS	SEGMENT DWORD USE32 PUBLIC 'BSS'
_BSS	ENDS
$$SYMBOLS	SEGMENT BYTE USE32 'DEBSYM'
$$SYMBOLS	ENDS
_TLS	SEGMENT DWORD USE32 PUBLIC 'TLS'
_TLS	ENDS
;	COMDAT ??_C@_0BD@IOHNFIBA@SetLOD?5?3?5lv?$DN?$CFd?0?5?$CFs?$AA@
CONST	SEGMENT DWORD USE32 PUBLIC 'CONST'
CONST	ENDS
;	COMDAT ??_C@_0BC@MOGJFHKK@tr1?3?3bad_weak_ptr?$AA@
CONST	SEGMENT DWORD USE32 PUBLIC 'CONST'
CONST	ENDS
;	COMDAT ??_C@_02PCIJFNDE@?$AN?6?$AA@
CONST	SEGMENT DWORD USE32 PUBLIC 'CONST'
CONST	ENDS
;	COMDAT ??_C@_01DNKMNLPK@?$HM?$AA@
CONST	SEGMENT DWORD USE32 PUBLIC 'CONST'
CONST	ENDS
;	COMDAT ??_C@_0CA@NFCFKOJP@usp_Housing_Load?5?8?$CF02d?8?0?5?8?$CF07d?8?$AA@
CONST	SEGMENT DWORD USE32 PUBLIC 'CONST'
CONST	ENDS
;	COMDAT ??_C@_09LCBEKCCJ@ItemIndex?$AA@
CONST	SEGMENT DWORD USE32 PUBLIC 'CONST'
CONST	ENDS
;	COMDAT ??_C@_09CGIPPJPO@tKeepTime?$AA@
CONST	SEGMENT DWORD USE32 PUBLIC 'CONST'
CONST	ENDS
;	COMDAT ??_C@_06DMCKBLKP@bSetup?$AA@
CONST	SEGMENT DWORD USE32 PUBLIC 'CONST'
CONST	ENDS
;	COMDAT ??_C@_05JPJLCAGA@x_Pos?$AA@
CONST	SEGMENT DWORD USE32 PUBLIC 'CONST'
CONST	ENDS
;	COMDAT ??_C@_05FEMHPDMF@y_Pos?$AA@
CONST	SEGMENT DWORD USE32 PUBLIC 'CONST'
CONST	ENDS
;	COMDAT ??_C@_05NCFDIBGL@z_Pos?$AA@
CONST	SEGMENT DWORD USE32 PUBLIC 'CONST'
CONST	ENDS
;	COMDAT ??_C@_06JHEFCLKH@fAngle?$AA@
CONST	SEGMENT DWORD USE32 PUBLIC 'CONST'
CONST	ENDS
;	COMDAT ??_C@_0L@HNPENDNB@f_idPlayer?$AA@
CONST	SEGMENT DWORD USE32 PUBLIC 'CONST'
CONST	ENDS
;	COMDAT ??_C@_0CN@ICOIMLLE@usp_Housing_Insert?5?8?$CF02d?8?0?5?8?$CF07d@
CONST	SEGMENT DWORD USE32 PUBLIC 'CONST'
CONST	ENDS
;	COMDAT ??_C@_0DK@FBACIBIF@usp_Housing_Update?5?8?$CF02d?8?0?5?8?$CF07d@
CONST	SEGMENT DWORD USE32 PUBLIC 'CONST'
CONST	ENDS
;	COMDAT ??_C@_0CD@CDDEIHOG@usp_Housing_Del?5?8?$CF02d?8?0?5?8?$CF07d?8?0?5@
CONST	SEGMENT DWORD USE32 PUBLIC 'CONST'
CONST	ENDS
;	COMDAT ??_C@_0BJ@CDCPMAOK@usp_Housing_Visit_Insert?$AA@
CONST	SEGMENT DWORD USE32 PUBLIC 'CONST'
CONST	ENDS
;	COMDAT ??_C@_0BJ@JNNLAOBI@usp_Housing_Visit_Delete?$AA@
CONST	SEGMENT DWORD USE32 PUBLIC 'CONST'
CONST	ENDS
;	COMDAT ??_C@_0BK@KKLDPFFP@?$CFs?5?8?$CF02d?8?0?5?8?$CF07d?8?0?5?8?$CF07d?8?$AA@
CONST	SEGMENT DWORD USE32 PUBLIC 'CONST'
CONST	ENDS
;	COMDAT ??_C@_0DC@PHOJNPH@CHousingDBMng?5?9?5m_HousingDBCtrl?4@
CONST	SEGMENT DWORD USE32 PUBLIC 'CONST'
CONST	ENDS
text$yd	SEGMENT PARA USE32 PUBLIC 'CODE'
text$yd	ENDS
xdata$x	SEGMENT DWORD USE32 PUBLIC 'CONST'
xdata$x	ENDS
;	COMDAT ?GetQueryObject@CDbController@@QAEPAVCQuery@@XZ
_TEXT	SEGMENT PARA USE32 PUBLIC 'CODE'
_TEXT	ENDS
;	COMDAT ??0HOUSINGINFO@@QAE@XZ
_TEXT	SEGMENT PARA USE32 PUBLIC 'CODE'
_TEXT	ENDS
;	COMDAT ??0HOUSINGINFO@@QAE@K@Z
_TEXT	SEGMENT PARA USE32 PUBLIC 'CODE'
_TEXT	ENDS
;	COMDAT ?Serialize@HOUSINGINFO@@QAEXAAVCAr@@@Z
_TEXT	SEGMENT PARA USE32 PUBLIC 'CODE'
_TEXT	ENDS
;	COMDAT ?what@bad_weak_ptr@boost@@UBEPBDXZ
_TEXT	SEGMENT PARA USE32 PUBLIC 'CODE'
_TEXT	ENDS
;	COMDAT ??1sp_counted_base@detail@boost@@UAE@XZ
_TEXT	SEGMENT PARA USE32 PUBLIC 'CODE'
_TEXT	ENDS
;	COMDAT ?destroy@sp_counted_base@detail@boost@@UAEXXZ
_TEXT	SEGMENT PARA USE32 PUBLIC 'CODE'
_TEXT	ENDS
;	COMDAT ?add_ref_copy@sp_counted_base@detail@boost@@QAEXXZ
_TEXT	SEGMENT PARA USE32 PUBLIC 'CODE'
_TEXT	ENDS
;	COMDAT ?add_ref_lock@sp_counted_base@detail@boost@@QAE_NXZ
_TEXT	SEGMENT PARA USE32 PUBLIC 'CODE'
_TEXT	ENDS
;	COMDAT ?release@sp_counted_base@detail@boost@@QAEXXZ
_TEXT	SEGMENT PARA USE32 PUBLIC 'CODE'
_TEXT	ENDS
;	COMDAT ?weak_add_ref@sp_counted_base@detail@boost@@QAEXXZ
_TEXT	SEGMENT PARA USE32 PUBLIC 'CODE'
_TEXT	ENDS
;	COMDAT ?weak_release@sp_counted_base@detail@boost@@QAEXXZ
_TEXT	SEGMENT PARA USE32 PUBLIC 'CODE'
_TEXT	ENDS
;	COMDAT ?use_count@sp_counted_base@detail@boost@@QBEJXZ
_TEXT	SEGMENT PARA USE32 PUBLIC 'CODE'
_TEXT	ENDS
;	COMDAT ??_Gsp_counted_base@detail@boost@@UAEPAXI@Z
_TEXT	SEGMENT PARA USE32 PUBLIC 'CODE'
_TEXT	ENDS
;	COMDAT ?use_count@shared_count@detail@boost@@QBEJXZ
_TEXT	SEGMENT PARA USE32 PUBLIC 'CODE'
_TEXT	ENDS
;	COMDAT ??0bad_weak_ptr@boost@@QAE@XZ
_TEXT	SEGMENT PARA USE32 PUBLIC 'CODE'
_TEXT	ENDS
;	COMDAT ??1bad_weak_ptr@boost@@UAE@XZ
_TEXT	SEGMENT PARA USE32 PUBLIC 'CODE'
_TEXT	ENDS
;	COMDAT ??_Gbad_weak_ptr@boost@@UAEPAXI@Z
_TEXT	SEGMENT PARA USE32 PUBLIC 'CODE'
_TEXT	ENDS
;	COMDAT ?GetCooltime@CLordSkillComponent@@QAEHXZ
_TEXT	SEGMENT PARA USE32 PUBLIC 'CODE'
_TEXT	ENDS
;	COMDAT ?SetTick@CLordSkillComponent@@QAEXH@Z
_TEXT	SEGMENT PARA USE32 PUBLIC 'CODE'
_TEXT	ENDS
;	COMDAT ??1CLordSkillComponentExecutable@@UAE@XZ
_TEXT	SEGMENT PARA USE32 PUBLIC 'CODE'
_TEXT	ENDS
;	COMDAT ?Use@CLordSkillComponentExecutable@@IAEXXZ
_TEXT	SEGMENT PARA USE32 PUBLIC 'CODE'
_TEXT	ENDS
;	COMDAT ?Execute@CLordSkillComponentExecutable@@UAEXKKPAX@Z
_TEXT	SEGMENT PARA USE32 PUBLIC 'CODE'
_TEXT	ENDS
;	COMDAT ??_GCLordSkillComponentExecutable@@UAEPAXI@Z
_TEXT	SEGMENT PARA USE32 PUBLIC 'CODE'
_TEXT	ENDS
;	COMDAT ?GetDeposit@CCandidate@@QBE_JXZ
_TEXT	SEGMENT PARA USE32 PUBLIC 'CODE'
_TEXT	ENDS
;	COMDAT ?GetVote@CCandidate@@QAEHXZ
_TEXT	SEGMENT PARA USE32 PUBLIC 'CODE'
_TEXT	ENDS
;	COMDAT ?GetCreate@CCandidate@@QAEJXZ
_TEXT	SEGMENT PARA USE32 PUBLIC 'CODE'
_TEXT	ENDS
;	COMDAT ??0CHousingDBCtrl@@QAE@XZ
_TEXT	SEGMENT PARA USE32 PUBLIC 'CODE'
_TEXT	ENDS
;	COMDAT ??_GCHousingDBCtrl@@UAEPAXI@Z
_TEXT	SEGMENT PARA USE32 PUBLIC 'CODE'
_TEXT	ENDS
;	COMDAT ??1CHousingDBCtrl@@UAE@XZ
_TEXT	SEGMENT PARA USE32 PUBLIC 'CODE'
_TEXT	ENDS
;	COMDAT ?Handler@CHousingDBCtrl@@UAEXPAUtagDB_OVERLAPPED_PLUS@@K@Z
_TEXT	SEGMENT PARA USE32 PUBLIC 'CODE'
_TEXT	ENDS
;	COMDAT ?LoadHousingInfo@CHousingDBCtrl@@AAEXKK@Z
_TEXT	SEGMENT PARA USE32 PUBLIC 'CODE'
_TEXT	ENDS
;	COMDAT ?InsertFurnitureList@CHousingDBCtrl@@AAEXKKK@Z
_TEXT	SEGMENT PARA USE32 PUBLIC 'CODE'
_TEXT	ENDS
;	COMDAT ?SetupFurniture@CHousingDBCtrl@@AAEXKUHOUSINGINFO@@K@Z
_TEXT	SEGMENT PARA USE32 PUBLIC 'CODE'
_TEXT	ENDS
;	COMDAT ?DeleteFurnitureList@CHousingDBCtrl@@QAEXKUHOUSINGINFO@@@Z
_TEXT	SEGMENT PARA USE32 PUBLIC 'CODE'
_TEXT	ENDS
;	COMDAT ?SetVisitAllow@CHousingDBCtrl@@AAEXKKHK@Z
_TEXT	SEGMENT PARA USE32 PUBLIC 'CODE'
_TEXT	ENDS
;	COMDAT ?OnTimer@CHousingDBCtrl@@UAEXXZ
_TEXT	SEGMENT PARA USE32 PUBLIC 'CODE'
_TEXT	ENDS
;	COMDAT ??0CHousingDBMng@@QAE@XZ
_TEXT	SEGMENT PARA USE32 PUBLIC 'CODE'
_TEXT	ENDS
;	COMDAT ??1CHousingDBMng@@QAE@XZ
_TEXT	SEGMENT PARA USE32 PUBLIC 'CODE'
_TEXT	ENDS
;	COMDAT ?GetInstance@CHousingDBMng@@SAPAV1@XZ
_TEXT	SEGMENT PARA USE32 PUBLIC 'CODE'
_TEXT	ENDS
;	COMDAT _$E2
text$yd	SEGMENT PARA USE32 PUBLIC 'CODE'
text$yd	ENDS
;	COMDAT ?DeleteFurnitureList@CHousingDBMng@@QAEXKUHOUSINGINFO@@@Z
_TEXT	SEGMENT PARA USE32 PUBLIC 'CODE'
_TEXT	ENDS
;	COMDAT ?Replace@?$CStringT@DV?$StrTraitMFC@DV?$ChTraitsCRT@D@ATL@@@@@ATL@@QAEHPBD0@Z
_TEXT	SEGMENT PARA USE32 PUBLIC 'CODE'
_TEXT	ENDS
;	COMDAT ?compare@?$basic_string@DU?$char_traits@D@std@@V?$allocator@D@2@@std@@QBEHABV12@@Z
_TEXT	SEGMENT PARA USE32 PUBLIC 'CODE'
_TEXT	ENDS
;	COMDAT ??R?$less@PAVsp_counted_base@detail@boost@@@std@@QBE_NABQAVsp_counted_base@detail@boost@@0@Z
_TEXT	SEGMENT PARA USE32 PUBLIC 'CODE'
_TEXT	ENDS
;	COMDAT ?size@?$vector@PAVCLordSkillComponentExecutable@@V?$allocator@PAVCLordSkillComponentExecutable@@@std@@@std@@QBEIXZ
_TEXT	SEGMENT PARA USE32 PUBLIC 'CODE'
_TEXT	ENDS
;	COMDAT ?size@?$vector@V?$shared_ptr@VCCandidate@@@boost@@V?$allocator@V?$shared_ptr@VCCandidate@@@boost@@@std@@@std@@QBEIXZ
_TEXT	SEGMENT PARA USE32 PUBLIC 'CODE'
_TEXT	ENDS
;	COMDAT ??0?$vector@MV?$allocator@M@std@@@std@@QAE@XZ
_TEXT	SEGMENT PARA USE32 PUBLIC 'CODE'
_TEXT	ENDS
;	COMDAT ??1?$vector@MV?$allocator@M@std@@@std@@QAE@XZ
_TEXT	SEGMENT PARA USE32 PUBLIC 'CODE'
_TEXT	ENDS
;	COMDAT ??0?$vector@HV?$allocator@H@std@@@std@@QAE@XZ
_TEXT	SEGMENT PARA USE32 PUBLIC 'CODE'
_TEXT	ENDS
;	COMDAT ??1?$vector@HV?$allocator@H@std@@@std@@QAE@XZ
_TEXT	SEGMENT PARA USE32 PUBLIC 'CODE'
_TEXT	ENDS
;	COMDAT ??C?$shared_ptr@VCCandidate@@@boost@@QBEPAVCCandidate@@XZ
_TEXT	SEGMENT PARA USE32 PUBLIC 'CODE'
_TEXT	ENDS
;	COMDAT ?size@?$vector@PAVCLEComponent@@V?$allocator@PAVCLEComponent@@@std@@@std@@QBEIXZ
_TEXT	SEGMENT PARA USE32 PUBLIC 'CODE'
_TEXT	ENDS
;	COMDAT ?size@?$vector@U?$pair@M_J@std@@V?$allocator@U?$pair@M_J@std@@@2@@std@@QBEIXZ
_TEXT	SEGMENT PARA USE32 PUBLIC 'CODE'
_TEXT	ENDS
;	COMDAT ?size@?$_Tree@V?$_Tmap_traits@KPAU_PlayerData@@U?$less@K@std@@V?$allocator@U?$pair@$$CBKPAU_PlayerData@@@std@@@3@$0A@@std@@@std@@QBEIXZ
_TEXT	SEGMENT PARA USE32 PUBLIC 'CODE'
_TEXT	ENDS
;	COMDAT ?end@?$_Tree@V?$_Tmap_traits@KP8CDPTrans@@AEXAAVCAr@@KKKPAEK@ZU?$less@K@std@@V?$allocator@U?$pair@$$CBKP8CDPTrans@@AEXAAVCAr@@KKKPAEK@Z@std@@@4@$0A@@std@@@std@@QAE?AViterator@12@XZ
_TEXT	SEGMENT PARA USE32 PUBLIC 'CODE'
_TEXT	ENDS
;	COMDAT ?find@?$_Tree@V?$_Tmap_traits@KP8CDPTrans@@AEXAAVCAr@@KKKPAEK@ZU?$less@K@std@@V?$allocator@U?$pair@$$CBKP8CDPTrans@@AEXAAVCAr@@KKKPAEK@Z@std@@@4@$0A@@std@@@std@@QAE?AViterator@12@ABK@Z
_TEXT	SEGMENT PARA USE32 PUBLIC 'CODE'
_TEXT	ENDS
;	COMDAT ??Citerator@?$_Tree@V?$_Tmap_traits@KP8CDPTrans@@AEXAAVCAr@@KKKPAEK@ZU?$less@K@std@@V?$allocator@U?$pair@$$CBKP8CDPTrans@@AEXAAVCAr@@KKKPAEK@Z@std@@@4@$0A@@std@@@std@@QBEPAU?$pair@$$CBKP8CDPTrans@@AEXAAVCAr@@KKKPAEK@Z@2@XZ
_TEXT	SEGMENT PARA USE32 PUBLIC 'CODE'
_TEXT	ENDS
;	COMDAT ??9const_iterator@?$_Tree@V?$_Tmap_traits@KP8CDPTrans@@AEXAAVCAr@@KKKPAEK@ZU?$less@K@std@@V?$allocator@U?$pair@$$CBKP8CDPTrans@@AEXAAVCAr@@KKKPAEK@Z@std@@@4@$0A@@std@@@std@@QBE_NABV012@@Z
_TEXT	SEGMENT PARA USE32 PUBLIC 'CODE'
_TEXT	ENDS
;	COMDAT ?StringFindString@?$ChTraitsCRT@D@ATL@@SAPADPADPBD@Z
_TEXT	SEGMENT PARA USE32 PUBLIC 'CODE'
_TEXT	ENDS
;	COMDAT ?SafeStringLen@?$ChTraitsCRT@D@ATL@@SAHPBD@Z
_TEXT	SEGMENT PARA USE32 PUBLIC 'CODE'
_TEXT	ENDS
;	COMDAT ?compare@?$basic_string@DU?$char_traits@D@std@@V?$allocator@D@2@@std@@QBEHIIPBDI@Z
_TEXT	SEGMENT PARA USE32 PUBLIC 'CODE'
_TEXT	ENDS
;	COMDAT ??0?$allocator@H@std@@QAE@XZ
_TEXT	SEGMENT PARA USE32 PUBLIC 'CODE'
_TEXT	ENDS
;	COMDAT ?_Buy@?$vector@MV?$allocator@M@std@@@std@@IAE_NI@Z
_TEXT	SEGMENT PARA USE32 PUBLIC 'CODE'
_TEXT	ENDS
;	COMDAT ?_Tidy@?$vector@MV?$allocator@M@std@@@std@@IAEXXZ
_TEXT	SEGMENT PARA USE32 PUBLIC 'CODE'
_TEXT	ENDS
;	COMDAT ??0?$_Vector_val@MV?$allocator@M@std@@@std@@IAE@V?$allocator@M@1@@Z
_TEXT	SEGMENT PARA USE32 PUBLIC 'CODE'
_TEXT	ENDS
;	COMDAT ??0?$allocator@M@std@@QAE@XZ
_TEXT	SEGMENT PARA USE32 PUBLIC 'CODE'
_TEXT	ENDS
;	COMDAT ?_Buy@?$vector@HV?$allocator@H@std@@@std@@IAE_NI@Z
_TEXT	SEGMENT PARA USE32 PUBLIC 'CODE'
_TEXT	ENDS
;	COMDAT ?_Tidy@?$vector@HV?$allocator@H@std@@@std@@IAEXXZ
_TEXT	SEGMENT PARA USE32 PUBLIC 'CODE'
_TEXT	ENDS
;	COMDAT ??0?$_Vector_val@HV?$allocator@H@std@@@std@@IAE@V?$allocator@H@1@@Z
_TEXT	SEGMENT PARA USE32 PUBLIC 'CODE'
_TEXT	ENDS
;	COMDAT ?_Key@?$_Tree@V?$_Tmap_traits@KP8CDPTrans@@AEXAAVCAr@@KKKPAEK@ZU?$less@K@std@@V?$allocator@U?$pair@$$CBKP8CDPTrans@@AEXAAVCAr@@KKKPAEK@Z@std@@@4@$0A@@std@@@std@@KAABKPAU_Node@?$_Tree_nod@V?$_Tmap_traits@KP8CDPTrans@@AEXAAVCAr@@KKKPAEK@ZU?$less@K@std@@V?$allocator@U?$pair@$$CBKP8CDPTrans@@AEXAAVCAr@@KKKPAEK@Z@std@@@4@$0A@@std@@@2@@Z
_TEXT	SEGMENT PARA USE32 PUBLIC 'CODE'
_TEXT	ENDS
;	COMDAT ?lower_bound@?$_Tree@V?$_Tmap_traits@KP8CDPTrans@@AEXAAVCAr@@KKKPAEK@ZU?$less@K@std@@V?$allocator@U?$pair@$$CBKP8CDPTrans@@AEXAAVCAr@@KKKPAEK@Z@std@@@4@$0A@@std@@@std@@QAE?AViterator@12@ABK@Z
_TEXT	SEGMENT PARA USE32 PUBLIC 'CODE'
_TEXT	ENDS
;	COMDAT ??0iterator@?$_Tree@V?$_Tmap_traits@KP8CDPTrans@@AEXAAVCAr@@KKKPAEK@ZU?$less@K@std@@V?$allocator@U?$pair@$$CBKP8CDPTrans@@AEXAAVCAr@@KKKPAEK@Z@std@@@4@$0A@@std@@@std@@QAE@PAU_Node@?$_Tree_nod@V?$_Tmap_traits@KP8CDPTrans@@AEXAAVCAr@@KKKPAEK@ZU?$less@K@std@@V?$allocator@U?$pair@$$CBKP8CDPTrans@@AEXAAVCAr@@KKKPAEK@Z@std@@@4@$0A@@std@@@2@@Z
_TEXT	SEGMENT PARA USE32 PUBLIC 'CODE'
_TEXT	ENDS
;	COMDAT ??Diterator@?$_Tree@V?$_Tmap_traits@KP8CDPTrans@@AEXAAVCAr@@KKKPAEK@ZU?$less@K@std@@V?$allocator@U?$pair@$$CBKP8CDPTrans@@AEXAAVCAr@@KKKPAEK@Z@std@@@4@$0A@@std@@@std@@QBEAAU?$pair@$$CBKP8CDPTrans@@AEXAAVCAr@@KKKPAEK@Z@2@XZ
_TEXT	SEGMENT PARA USE32 PUBLIC 'CODE'
_TEXT	ENDS
;	COMDAT ??8const_iterator@?$_Tree@V?$_Tmap_traits@KP8CDPTrans@@AEXAAVCAr@@KKKPAEK@ZU?$less@K@std@@V?$allocator@U?$pair@$$CBKP8CDPTrans@@AEXAAVCAr@@KKKPAEK@Z@std@@@4@$0A@@std@@@std@@QBE_NABV012@@Z
_TEXT	SEGMENT PARA USE32 PUBLIC 'CODE'
_TEXT	ENDS
;	COMDAT ?_Mynode@const_iterator@?$_Tree@V?$_Tmap_traits@KP8CDPTrans@@AEXAAVCAr@@KKKPAEK@ZU?$less@K@std@@V?$allocator@U?$pair@$$CBKP8CDPTrans@@AEXAAVCAr@@KKKPAEK@Z@std@@@4@$0A@@std@@@std@@QBEPAU_Node@?$_Tree_nod@V?$_Tmap_traits@KP8CDPTrans@@AEXAAVCAr@@KKKPAEK@ZU?$less@K@std@@V?$allocator@U?$pair@$$CBKP8CDPTrans@@AEXAAVCAr@@KKKPAEK@Z@std@@@4@$0A@@std@@@3@XZ
_TEXT	SEGMENT PARA USE32 PUBLIC 'CODE'
_TEXT	ENDS
;	COMDAT ??0?$allocator@H@std@@QAE@ABV01@@Z
_TEXT	SEGMENT PARA USE32 PUBLIC 'CODE'
_TEXT	ENDS
;	COMDAT ?deallocate@?$allocator@H@std@@QAEXPAHI@Z
_TEXT	SEGMENT PARA USE32 PUBLIC 'CODE'
_TEXT	ENDS
;	COMDAT ?allocate@?$allocator@H@std@@QAEPAHI@Z
_TEXT	SEGMENT PARA USE32 PUBLIC 'CODE'
_TEXT	ENDS
;	COMDAT ?max_size@?$vector@MV?$allocator@M@std@@@std@@QBEIXZ
_TEXT	SEGMENT PARA USE32 PUBLIC 'CODE'
_TEXT	ENDS
;	COMDAT ?_Destroy@?$vector@MV?$allocator@M@std@@@std@@IAEXPAM0@Z
_TEXT	SEGMENT PARA USE32 PUBLIC 'CODE'
_TEXT	ENDS
;	COMDAT ?_Xlen@?$vector@MV?$allocator@M@std@@@std@@IBEXXZ
_TEXT	SEGMENT PARA USE32 PUBLIC 'CODE'
_TEXT	ENDS
;	COMDAT ??0?$allocator@M@std@@QAE@ABV01@@Z
_TEXT	SEGMENT PARA USE32 PUBLIC 'CODE'
_TEXT	ENDS
;	COMDAT ?deallocate@?$allocator@M@std@@QAEXPAMI@Z
_TEXT	SEGMENT PARA USE32 PUBLIC 'CODE'
_TEXT	ENDS
;	COMDAT ?allocate@?$allocator@M@std@@QAEPAMI@Z
_TEXT	SEGMENT PARA USE32 PUBLIC 'CODE'
_TEXT	ENDS
;	COMDAT ?max_size@?$vector@HV?$allocator@H@std@@@std@@QBEIXZ
_TEXT	SEGMENT PARA USE32 PUBLIC 'CODE'
_TEXT	ENDS
;	COMDAT ?_Destroy@?$vector@HV?$allocator@H@std@@@std@@IAEXPAH0@Z
_TEXT	SEGMENT PARA USE32 PUBLIC 'CODE'
_TEXT	ENDS
;	COMDAT ?_Xlen@?$vector@HV?$allocator@H@std@@@std@@IBEXXZ
_TEXT	SEGMENT PARA USE32 PUBLIC 'CODE'
_TEXT	ENDS
;	COMDAT ?_Myval@?$_Tree@V?$_Tmap_traits@KP8CDPTrans@@AEXAAVCAr@@KKKPAEK@ZU?$less@K@std@@V?$allocator@U?$pair@$$CBKP8CDPTrans@@AEXAAVCAr@@KKKPAEK@Z@std@@@4@$0A@@std@@@std@@KAAAU?$pair@$$CBKP8CDPTrans@@AEXAAVCAr@@KKKPAEK@Z@2@PAU_Node@?$_Tree_nod@V?$_Tmap_traits@KP8CDPTrans@@AEXAAVCAr@@KKKPAEK@ZU?$less@K@std@@V?$allocator@U?$pair@$$CBKP8CDPTrans@@AEXAAVCAr@@KKKPAEK@Z@std@@@4@$0A@@std@@@2@@Z
_TEXT	SEGMENT PARA USE32 PUBLIC 'CODE'
_TEXT	ENDS
;	COMDAT ?_Lbound@?$_Tree@V?$_Tmap_traits@KP8CDPTrans@@AEXAAVCAr@@KKKPAEK@ZU?$less@K@std@@V?$allocator@U?$pair@$$CBKP8CDPTrans@@AEXAAVCAr@@KKKPAEK@Z@std@@@4@$0A@@std@@@std@@IBEPAU_Node@?$_Tree_nod@V?$_Tmap_traits@KP8CDPTrans@@AEXAAVCAr@@KKKPAEK@ZU?$less@K@std@@V?$allocator@U?$pair@$$CBKP8CDPTrans@@AEXAAVCAr@@KKKPAEK@Z@std@@@4@$0A@@std@@@2@ABK@Z
_TEXT	SEGMENT PARA USE32 PUBLIC 'CODE'
_TEXT	ENDS
;	COMDAT ?_Kfn@?$_Tmap_traits@KP8CDPTrans@@AEXAAVCAr@@KKKPAEK@ZU?$less@K@std@@V?$allocator@U?$pair@$$CBKP8CDPTrans@@AEXAAVCAr@@KKKPAEK@Z@std@@@4@$0A@@std@@SAABKABU?$pair@$$CBKP8CDPTrans@@AEXAAVCAr@@KKKPAEK@Z@2@@Z
_TEXT	SEGMENT PARA USE32 PUBLIC 'CODE'
_TEXT	ENDS
;	COMDAT ??0const_iterator@?$_Tree@V?$_Tmap_traits@KP8CDPTrans@@AEXAAVCAr@@KKKPAEK@ZU?$less@K@std@@V?$allocator@U?$pair@$$CBKP8CDPTrans@@AEXAAVCAr@@KKKPAEK@Z@std@@@4@$0A@@std@@@std@@QAE@PAU_Node@?$_Tree_nod@V?$_Tmap_traits@KP8CDPTrans@@AEXAAVCAr@@KKKPAEK@ZU?$less@K@std@@V?$allocator@U?$pair@$$CBKP8CDPTrans@@AEXAAVCAr@@KKKPAEK@Z@std@@@4@$0A@@std@@@2@@Z
_TEXT	SEGMENT PARA USE32 PUBLIC 'CODE'
_TEXT	ENDS
;	COMDAT ??Dconst_iterator@?$_Tree@V?$_Tmap_traits@KP8CDPTrans@@AEXAAVCAr@@KKKPAEK@ZU?$less@K@std@@V?$allocator@U?$pair@$$CBKP8CDPTrans@@AEXAAVCAr@@KKKPAEK@Z@std@@@4@$0A@@std@@@std@@QBEABU?$pair@$$CBKP8CDPTrans@@AEXAAVCAr@@KKKPAEK@Z@2@XZ
_TEXT	SEGMENT PARA USE32 PUBLIC 'CODE'
_TEXT	ENDS
;	COMDAT ?max_size@?$allocator@H@std@@QBEIXZ
_TEXT	SEGMENT PARA USE32 PUBLIC 'CODE'
_TEXT	ENDS
;	COMDAT ?max_size@?$allocator@M@std@@QBEIXZ
_TEXT	SEGMENT PARA USE32 PUBLIC 'CODE'
_TEXT	ENDS
;	COMDAT ?_Isnil@?$_Tree@V?$_Tmap_traits@KP8CDPTrans@@AEXAAVCAr@@KKKPAEK@ZU?$less@K@std@@V?$allocator@U?$pair@$$CBKP8CDPTrans@@AEXAAVCAr@@KKKPAEK@Z@std@@@4@$0A@@std@@@std@@KAAADPAU_Node@?$_Tree_nod@V?$_Tmap_traits@KP8CDPTrans@@AEXAAVCAr@@KKKPAEK@ZU?$less@K@std@@V?$allocator@U?$pair@$$CBKP8CDPTrans@@AEXAAVCAr@@KKKPAEK@Z@std@@@4@$0A@@std@@@2@@Z
_TEXT	SEGMENT PARA USE32 PUBLIC 'CODE'
_TEXT	ENDS
;	COMDAT ?_Left@?$_Tree@V?$_Tmap_traits@KP8CDPTrans@@AEXAAVCAr@@KKKPAEK@ZU?$less@K@std@@V?$allocator@U?$pair@$$CBKP8CDPTrans@@AEXAAVCAr@@KKKPAEK@Z@std@@@4@$0A@@std@@@std@@KAAAPAU_Node@?$_Tree_nod@V?$_Tmap_traits@KP8CDPTrans@@AEXAAVCAr@@KKKPAEK@ZU?$less@K@std@@V?$allocator@U?$pair@$$CBKP8CDPTrans@@AEXAAVCAr@@KKKPAEK@Z@std@@@4@$0A@@std@@@2@PAU342@@Z
_TEXT	SEGMENT PARA USE32 PUBLIC 'CODE'
_TEXT	ENDS
;	COMDAT ?_Right@?$_Tree@V?$_Tmap_traits@KP8CDPTrans@@AEXAAVCAr@@KKKPAEK@ZU?$less@K@std@@V?$allocator@U?$pair@$$CBKP8CDPTrans@@AEXAAVCAr@@KKKPAEK@Z@std@@@4@$0A@@std@@@std@@KAAAPAU_Node@?$_Tree_nod@V?$_Tmap_traits@KP8CDPTrans@@AEXAAVCAr@@KKKPAEK@ZU?$less@K@std@@V?$allocator@U?$pair@$$CBKP8CDPTrans@@AEXAAVCAr@@KKKPAEK@Z@std@@@4@$0A@@std@@@2@PAU342@@Z
_TEXT	SEGMENT PARA USE32 PUBLIC 'CODE'
_TEXT	ENDS
;	COMDAT ?_Root@?$_Tree@V?$_Tmap_traits@KP8CDPTrans@@AEXAAVCAr@@KKKPAEK@ZU?$less@K@std@@V?$allocator@U?$pair@$$CBKP8CDPTrans@@AEXAAVCAr@@KKKPAEK@Z@std@@@4@$0A@@std@@@std@@IBEAAPAU_Node@?$_Tree_nod@V?$_Tmap_traits@KP8CDPTrans@@AEXAAVCAr@@KKKPAEK@ZU?$less@K@std@@V?$allocator@U?$pair@$$CBKP8CDPTrans@@AEXAAVCAr@@KKKPAEK@Z@std@@@4@$0A@@std@@@2@XZ
_TEXT	SEGMENT PARA USE32 PUBLIC 'CODE'
_TEXT	ENDS
;	COMDAT ?_Parent@?$_Tree@V?$_Tmap_traits@KP8CDPTrans@@AEXAAVCAr@@KKKPAEK@ZU?$less@K@std@@V?$allocator@U?$pair@$$CBKP8CDPTrans@@AEXAAVCAr@@KKKPAEK@Z@std@@@4@$0A@@std@@@std@@KAAAPAU_Node@?$_Tree_nod@V?$_Tmap_traits@KP8CDPTrans@@AEXAAVCAr@@KKKPAEK@ZU?$less@K@std@@V?$allocator@U?$pair@$$CBKP8CDPTrans@@AEXAAVCAr@@KKKPAEK@Z@std@@@4@$0A@@std@@@2@PAU342@@Z
_TEXT	SEGMENT PARA USE32 PUBLIC 'CODE'
_TEXT	ENDS
;	COMDAT ??$_Iter_cat@Viterator@?$_Tree@V?$_Tmap_traits@KU_Friend@@U?$less@K@std@@V?$allocator@U?$pair@$$CBKU_Friend@@@std@@@3@$0A@@std@@@std@@@std@@YA?AUbidirectional_iterator_tag@0@ABViterator@?$_Tree@V?$_Tmap_traits@KU_Friend@@U?$less@K@std@@V?$allocator@U?$pair@$$CBKU_Friend@@@std@@@3@$0A@@std@@@0@@Z
_TEXT	SEGMENT PARA USE32 PUBLIC 'CODE'
_TEXT	ENDS
;	COMDAT ??$_Distance2@Viterator@?$_Tree@V?$_Tmap_traits@KU_Friend@@U?$less@K@std@@V?$allocator@U?$pair@$$CBKU_Friend@@@std@@@3@$0A@@std@@@std@@I@std@@YAXViterator@?$_Tree@V?$_Tmap_traits@KU_Friend@@U?$less@K@std@@V?$allocator@U?$pair@$$CBKU_Friend@@@std@@@3@$0A@@std@@@0@0AAIUbidirectional_iterator_tag@0@@Z
_TEXT	SEGMENT PARA USE32 PUBLIC 'CODE'
_TEXT	ENDS
;	COMDAT ??$_Copy_opt@PAJPAJ@std@@YAPAJPAJ00U_Scalar_ptr_iterator_tag@0@@Z
_TEXT	SEGMENT PARA USE32 PUBLIC 'CODE'
_TEXT	ENDS
;	COMDAT ??$_Uninitialized_copy@PAJPAJV?$allocator@J@std@@@std@@YAPAJPAJ00AAV?$allocator@J@0@@Z
_TEXT	SEGMENT PARA USE32 PUBLIC 'CODE'
_TEXT	ENDS
;	COMDAT ??$_Copy_backward_opt@PAJPAJ@std@@YAPAJPAJ00U_Scalar_ptr_iterator_tag@0@@Z
_TEXT	SEGMENT PARA USE32 PUBLIC 'CODE'
_TEXT	ENDS
;	COMDAT ??$_Ptr_cat@PAUtagDROPITEM@@PAU1@@std@@YA?AU_Nonscalar_ptr_iterator_tag@0@AAPAUtagDROPITEM@@0@Z
_TEXT	SEGMENT PARA USE32 PUBLIC 'CODE'
_TEXT	ENDS
;	COMDAT ??$_Destroy_range@UtagDROPITEM@@V?$allocator@UtagDROPITEM@@@std@@@std@@YAXPAUtagDROPITEM@@0AAV?$allocator@UtagDROPITEM@@@0@U_Nonscalar_ptr_iterator_tag@0@@Z
_TEXT	SEGMENT PARA USE32 PUBLIC 'CODE'
_TEXT	ENDS
;	COMDAT ??$_Destroy_range@KV?$allocator@K@std@@@std@@YAXPAK0AAV?$allocator@K@0@U_Scalar_ptr_iterator_tag@0@@Z
_TEXT	SEGMENT PARA USE32 PUBLIC 'CODE'
_TEXT	ENDS
;	COMDAT ??$_Destroy_range@JV?$allocator@J@std@@@std@@YAXPAJ0AAV?$allocator@J@0@U_Scalar_ptr_iterator_tag@0@@Z
_TEXT	SEGMENT PARA USE32 PUBLIC 'CODE'
_TEXT	ENDS
;	COMDAT ??$_Uninit_fill_n@JIJ@std@@YAXPAJIABJAAV?$allocator@J@0@U_Scalar_ptr_iterator_tag@0@@Z
_TEXT	SEGMENT PARA USE32 PUBLIC 'CODE'
_TEXT	ENDS
;	COMDAT ??$throw_exception@Vbad_weak_ptr@boost@@@boost@@YAXABVbad_weak_ptr@0@@Z
_TEXT	SEGMENT PARA USE32 PUBLIC 'CODE'
_TEXT	ENDS
;	COMDAT ??$_Allocate@H@std@@YAPAHIPAH@Z
_TEXT	SEGMENT PARA USE32 PUBLIC 'CODE'
_TEXT	ENDS
;	COMDAT ??$_Destroy_range@MV?$allocator@M@std@@@std@@YAXPAM0AAV?$allocator@M@0@@Z
_TEXT	SEGMENT PARA USE32 PUBLIC 'CODE'
_TEXT	ENDS
;	COMDAT ??$_Allocate@M@std@@YAPAMIPAM@Z
_TEXT	SEGMENT PARA USE32 PUBLIC 'CODE'
_TEXT	ENDS
;	COMDAT ??$_Destroy_range@HV?$allocator@H@std@@@std@@YAXPAH0AAV?$allocator@H@0@@Z
_TEXT	SEGMENT PARA USE32 PUBLIC 'CODE'
_TEXT	ENDS
;	COMDAT ??0bad_weak_ptr@boost@@QAE@ABV01@@Z
_TEXT	SEGMENT PARA USE32 PUBLIC 'CODE'
_TEXT	ENDS
;	COMDAT ?destroy@?$allocator@UtagDROPITEM@@@std@@QAEXPAUtagDROPITEM@@@Z
_TEXT	SEGMENT PARA USE32 PUBLIC 'CODE'
_TEXT	ENDS
;	COMDAT ??$_Uninit_copy@JJ@std@@YAPAJPAJ00AAV?$allocator@J@0@U_Scalar_ptr_iterator_tag@0@@Z
_TEXT	SEGMENT PARA USE32 PUBLIC 'CODE'
_TEXT	ENDS
;	COMDAT ??$fill_n@PAJIJ@std@@YAXPAJIABJ@Z
_TEXT	SEGMENT PARA USE32 PUBLIC 'CODE'
_TEXT	ENDS
;	COMDAT ??$_Destroy_range@MV?$allocator@M@std@@@std@@YAXPAM0AAV?$allocator@M@0@U_Scalar_ptr_iterator_tag@0@@Z
_TEXT	SEGMENT PARA USE32 PUBLIC 'CODE'
_TEXT	ENDS
;	COMDAT ??$_Destroy_range@HV?$allocator@H@std@@@std@@YAXPAH0AAV?$allocator@H@0@U_Scalar_ptr_iterator_tag@0@@Z
_TEXT	SEGMENT PARA USE32 PUBLIC 'CODE'
_TEXT	ENDS
;	COMDAT ??$_Destroy@UtagDROPITEM@@@std@@YAXPAUtagDROPITEM@@@Z
_TEXT	SEGMENT PARA USE32 PUBLIC 'CODE'
_TEXT	ENDS
;	COMDAT ?_Ptr_cat@std@@YA?AU_Scalar_ptr_iterator_tag@1@PAH0@Z
_TEXT	SEGMENT PARA USE32 PUBLIC 'CODE'
_TEXT	ENDS
;	COMDAT ?_Ptr_cat@std@@YA?AU_Scalar_ptr_iterator_tag@1@PAM0@Z
_TEXT	SEGMENT PARA USE32 PUBLIC 'CODE'
_TEXT	ENDS
;	COMDAT __CTA2?AVbad_weak_ptr@boost@@
xdata$x	SEGMENT DWORD USE32 PUBLIC 'CONST'
xdata$x	ENDS
;	COMDAT __CT??_R0?AVexception@@@8??0exception@@QAE@ABV0@@Z12
xdata$x	SEGMENT DWORD USE32 PUBLIC 'CONST'
xdata$x	ENDS
;	COMDAT ??_R0?AVexception@@@8
_DATA	SEGMENT DWORD USE32 PUBLIC 'DATA'
_DATA	ENDS
;	COMDAT __CT??_R0?AVbad_weak_ptr@boost@@@8??0bad_weak_ptr@boost@@QAE@ABV01@@Z12
xdata$x	SEGMENT DWORD USE32 PUBLIC 'CONST'
xdata$x	ENDS
;	COMDAT ??_R0?AVbad_weak_ptr@boost@@@8
_DATA	SEGMENT DWORD USE32 PUBLIC 'DATA'
_DATA	ENDS
;	COMDAT __TI2?AVbad_weak_ptr@boost@@
xdata$x	SEGMENT DWORD USE32 PUBLIC 'CONST'
xdata$x	ENDS
;	COMDAT ?_Ptr_cat@std@@YA?AU_Scalar_ptr_iterator_tag@1@PAJ0@Z
_TEXT	SEGMENT PARA USE32 PUBLIC 'CODE'
_TEXT	ENDS
;	COMDAT ??9const_iterator@?$_Tree@V?$_Tmap_traits@KU_Friend@@U?$less@K@std@@V?$allocator@U?$pair@$$CBKU_Friend@@@std@@@3@$0A@@std@@@std@@QBE_NABV012@@Z
_TEXT	SEGMENT PARA USE32 PUBLIC 'CODE'
_TEXT	ENDS
;	COMDAT ??8const_iterator@?$_Tree@V?$_Tmap_traits@KU_Friend@@U?$less@K@std@@V?$allocator@U?$pair@$$CBKU_Friend@@@std@@@3@$0A@@std@@@std@@QBE_NABV012@@Z
_TEXT	SEGMENT PARA USE32 PUBLIC 'CODE'
_TEXT	ENDS
;	COMDAT ??Eiterator@?$_Tree@V?$_Tmap_traits@KU_Friend@@U?$less@K@std@@V?$allocator@U?$pair@$$CBKU_Friend@@@std@@@3@$0A@@std@@@std@@QAEAAV012@XZ
_TEXT	SEGMENT PARA USE32 PUBLIC 'CODE'
_TEXT	ENDS
;	COMDAT ??Econst_iterator@?$_Tree@V?$_Tmap_traits@KU_Friend@@U?$less@K@std@@V?$allocator@U?$pair@$$CBKU_Friend@@@std@@@3@$0A@@std@@@std@@QAEAAV012@XZ
_TEXT	SEGMENT PARA USE32 PUBLIC 'CODE'
_TEXT	ENDS
;	COMDAT ?_Inc@const_iterator@?$_Tree@V?$_Tmap_traits@KU_Friend@@U?$less@K@std@@V?$allocator@U?$pair@$$CBKU_Friend@@@std@@@3@$0A@@std@@@std@@QAEXXZ
_TEXT	SEGMENT PARA USE32 PUBLIC 'CODE'
_TEXT	ENDS
;	COMDAT ?_Min@?$_Tree@V?$_Tmap_traits@KU_Friend@@U?$less@K@std@@V?$allocator@U?$pair@$$CBKU_Friend@@@std@@@3@$0A@@std@@@std@@KAPAU_Node@?$_Tree_nod@V?$_Tmap_traits@KU_Friend@@U?$less@K@std@@V?$allocator@U?$pair@$$CBKU_Friend@@@std@@@3@$0A@@std@@@2@PAU342@@Z
_TEXT	SEGMENT PARA USE32 PUBLIC 'CODE'
_TEXT	ENDS
;	COMDAT ?_Left@?$_Tree@V?$_Tmap_traits@KU_Friend@@U?$less@K@std@@V?$allocator@U?$pair@$$CBKU_Friend@@@std@@@3@$0A@@std@@@std@@KAAAPAU_Node@?$_Tree_nod@V?$_Tmap_traits@KU_Friend@@U?$less@K@std@@V?$allocator@U?$pair@$$CBKU_Friend@@@std@@@3@$0A@@std@@@2@PAU342@@Z
_TEXT	SEGMENT PARA USE32 PUBLIC 'CODE'
_TEXT	ENDS
;	COMDAT ?_Isnil@?$_Tree@V?$_Tmap_traits@KU_Friend@@U?$less@K@std@@V?$allocator@U?$pair@$$CBKU_Friend@@@std@@@3@$0A@@std@@@std@@KAAADPAU_Node@?$_Tree_nod@V?$_Tmap_traits@KU_Friend@@U?$less@K@std@@V?$allocator@U?$pair@$$CBKU_Friend@@@std@@@3@$0A@@std@@@2@@Z
_TEXT	SEGMENT PARA USE32 PUBLIC 'CODE'
_TEXT	ENDS
;	COMDAT ?_Parent@?$_Tree@V?$_Tmap_traits@KU_Friend@@U?$less@K@std@@V?$allocator@U?$pair@$$CBKU_Friend@@@std@@@3@$0A@@std@@@std@@KAAAPAU_Node@?$_Tree_nod@V?$_Tmap_traits@KU_Friend@@U?$less@K@std@@V?$allocator@U?$pair@$$CBKU_Friend@@@std@@@3@$0A@@std@@@2@PAU342@@Z
_TEXT	SEGMENT PARA USE32 PUBLIC 'CODE'
_TEXT	ENDS
;	COMDAT ?_Right@?$_Tree@V?$_Tmap_traits@KU_Friend@@U?$less@K@std@@V?$allocator@U?$pair@$$CBKU_Friend@@@std@@@3@$0A@@std@@@std@@KAAAPAU_Node@?$_Tree_nod@V?$_Tmap_traits@KU_Friend@@U?$less@K@std@@V?$allocator@U?$pair@$$CBKU_Friend@@@std@@@3@$0A@@std@@@2@PAU342@@Z
_TEXT	SEGMENT PARA USE32 PUBLIC 'CODE'
_TEXT	ENDS
;	COMDAT ?_Psave@?$_Facetptr@V?$ctype@G@std@@@std@@2PBVfacet@locale@2@B
_DATA	SEGMENT DWORD USE32 PUBLIC 'DATA'
_DATA	ENDS
;	COMDAT ?_Psave@?$_Facetptr@V?$ctype@D@std@@@std@@2PBVfacet@locale@2@B
_DATA	SEGMENT DWORD USE32 PUBLIC 'DATA'
_DATA	ENDS
;	COMDAT __TI3?AVlength_error@std@@
xdata$x	SEGMENT DWORD USE32 PUBLIC 'CONST'
xdata$x	ENDS
;	COMDAT ??1length_error@std@@UAE@XZ
_TEXT	SEGMENT PARA USE32 PUBLIC 'CODE'
_TEXT	ENDS
;	COMDAT ??_7length_error@std@@6B@
CONST	SEGMENT DWORD USE32 PUBLIC 'CONST'
CONST	ENDS
;	COMDAT ??_Glength_error@std@@UAEPAXI@Z
_TEXT	SEGMENT PARA USE32 PUBLIC 'CODE'
_TEXT	ENDS
;	COMDAT ?what@logic_error@std@@UBEPBDXZ
_TEXT	SEGMENT PARA USE32 PUBLIC 'CODE'
_TEXT	ENDS
;	COMDAT ?c_str@?$basic_string@DU?$char_traits@D@std@@V?$allocator@D@2@@std@@QBEPBDXZ
_TEXT	SEGMENT PARA USE32 PUBLIC 'CODE'
_TEXT	ENDS
;	COMDAT ??1logic_error@std@@UAE@XZ
_TEXT	SEGMENT PARA USE32 PUBLIC 'CODE'
_TEXT	ENDS
;	COMDAT ??_7logic_error@std@@6B@
CONST	SEGMENT DWORD USE32 PUBLIC 'CONST'
CONST	ENDS
;	COMDAT ??_Glogic_error@std@@UAEPAXI@Z
_TEXT	SEGMENT PARA USE32 PUBLIC 'CODE'
_TEXT	ENDS
;	COMDAT __CTA3?AVlength_error@std@@
xdata$x	SEGMENT DWORD USE32 PUBLIC 'CONST'
xdata$x	ENDS
;	COMDAT __CT??_R0?AVlength_error@std@@@8??0length_error@std@@QAE@ABV01@@Z40
xdata$x	SEGMENT DWORD USE32 PUBLIC 'CONST'
xdata$x	ENDS
;	COMDAT ??_R0?AVlength_error@std@@@8
_DATA	SEGMENT DWORD USE32 PUBLIC 'DATA'
_DATA	ENDS
;	COMDAT ??0length_error@std@@QAE@ABV01@@Z
_TEXT	SEGMENT PARA USE32 PUBLIC 'CODE'
_TEXT	ENDS
;	COMDAT ??0logic_error@std@@QAE@ABV01@@Z
_TEXT	SEGMENT PARA USE32 PUBLIC 'CODE'
_TEXT	ENDS
;	COMDAT ??0?$basic_string@DU?$char_traits@D@std@@V?$allocator@D@2@@std@@QAE@ABV01@@Z
_TEXT	SEGMENT PARA USE32 PUBLIC 'CODE'
_TEXT	ENDS
;	COMDAT ??0?$_String_val@DV?$allocator@D@std@@@std@@IAE@V?$allocator@D@1@@Z
_TEXT	SEGMENT PARA USE32 PUBLIC 'CODE'
_TEXT	ENDS
;	COMDAT ??0?$allocator@D@std@@QAE@ABV01@@Z
_TEXT	SEGMENT PARA USE32 PUBLIC 'CODE'
_TEXT	ENDS
;	COMDAT ?_Tidy@?$basic_string@DU?$char_traits@D@std@@V?$allocator@D@2@@std@@IAEX_NI@Z
_TEXT	SEGMENT PARA USE32 PUBLIC 'CODE'
_TEXT	ENDS
;	COMDAT ?copy@?$char_traits@D@std@@SAPADPADPBDI@Z
_TEXT	SEGMENT PARA USE32 PUBLIC 'CODE'
_TEXT	ENDS
;	COMDAT ?deallocate@?$allocator@D@std@@QAEXPADI@Z
_TEXT	SEGMENT PARA USE32 PUBLIC 'CODE'
_TEXT	ENDS
;	COMDAT ?_Eos@?$basic_string@DU?$char_traits@D@std@@V?$allocator@D@2@@std@@IAEXI@Z
_TEXT	SEGMENT PARA USE32 PUBLIC 'CODE'
_TEXT	ENDS
;	COMDAT ?assign@?$char_traits@D@std@@SAXAADABD@Z
_TEXT	SEGMENT PARA USE32 PUBLIC 'CODE'
_TEXT	ENDS
;	COMDAT ?_Myptr@?$basic_string@DU?$char_traits@D@std@@V?$allocator@D@2@@std@@QAEPADXZ
_TEXT	SEGMENT PARA USE32 PUBLIC 'CODE'
_TEXT	ENDS
;	COMDAT ?assign@?$basic_string@DU?$char_traits@D@std@@V?$allocator@D@2@@std@@QAEAAV12@ABV12@II@Z
_TEXT	SEGMENT PARA USE32 PUBLIC 'CODE'
_TEXT	ENDS
;	COMDAT ?erase@?$basic_string@DU?$char_traits@D@std@@V?$allocator@D@2@@std@@QAEAAV12@II@Z
_TEXT	SEGMENT PARA USE32 PUBLIC 'CODE'
_TEXT	ENDS
;	COMDAT ?move@?$char_traits@D@std@@SAPADPADPBDI@Z
_TEXT	SEGMENT PARA USE32 PUBLIC 'CODE'
_TEXT	ENDS
;	COMDAT ?_Grow@?$basic_string@DU?$char_traits@D@std@@V?$allocator@D@2@@std@@IAE_NI_N@Z
_TEXT	SEGMENT PARA USE32 PUBLIC 'CODE'
_TEXT	ENDS
;	COMDAT ?max_size@?$basic_string@DU?$char_traits@D@std@@V?$allocator@D@2@@std@@QBEIXZ
_TEXT	SEGMENT PARA USE32 PUBLIC 'CODE'
_TEXT	ENDS
;	COMDAT ?max_size@?$allocator@D@std@@QBEIXZ
_TEXT	SEGMENT PARA USE32 PUBLIC 'CODE'
_TEXT	ENDS
;	COMDAT ?_Copy@?$basic_string@DU?$char_traits@D@std@@V?$allocator@D@2@@std@@IAEXII@Z
_TEXT	SEGMENT PARA USE32 PUBLIC 'CODE'
_TEXT	ENDS
;	COMDAT ?allocate@?$allocator@D@std@@QAEPADI@Z
_TEXT	SEGMENT PARA USE32 PUBLIC 'CODE'
_TEXT	ENDS
;	COMDAT ??$_Allocate@D@std@@YAPADIPAD@Z
_TEXT	SEGMENT PARA USE32 PUBLIC 'CODE'
_TEXT	ENDS
;	COMDAT ?npos@?$basic_string@DU?$char_traits@D@std@@V?$allocator@D@2@@std@@2IB
CONST	SEGMENT DWORD USE32 PUBLIC 'CONST'
CONST	ENDS
;	COMDAT __CT??_R0?AVlogic_error@std@@@8??0logic_error@std@@QAE@ABV01@@Z40
xdata$x	SEGMENT DWORD USE32 PUBLIC 'CONST'
xdata$x	ENDS
;	COMDAT ??_R0?AVlogic_error@std@@@8
_DATA	SEGMENT DWORD USE32 PUBLIC 'DATA'
_DATA	ENDS
;	COMDAT ??1?$basic_string@DU?$char_traits@D@std@@V?$allocator@D@2@@std@@QAE@XZ
_TEXT	SEGMENT PARA USE32 PUBLIC 'CODE'
_TEXT	ENDS
;	COMDAT ??_C@_0BD@OLBABOEK@vector?$DMT?$DO?5too?5long?$AA@
CONST	SEGMENT DWORD USE32 PUBLIC 'CONST'
CONST	ENDS
;	COMDAT ??0?$basic_string@DU?$char_traits@D@std@@V?$allocator@D@2@@std@@QAE@PBD@Z
_TEXT	SEGMENT PARA USE32 PUBLIC 'CODE'
_TEXT	ENDS
;	COMDAT ??0?$allocator@D@std@@QAE@XZ
_TEXT	SEGMENT PARA USE32 PUBLIC 'CODE'
_TEXT	ENDS
;	COMDAT ?assign@?$basic_string@DU?$char_traits@D@std@@V?$allocator@D@2@@std@@QAEAAV12@PBD@Z
_TEXT	SEGMENT PARA USE32 PUBLIC 'CODE'
_TEXT	ENDS
;	COMDAT ?assign@?$basic_string@DU?$char_traits@D@std@@V?$allocator@D@2@@std@@QAEAAV12@PBDI@Z
_TEXT	SEGMENT PARA USE32 PUBLIC 'CODE'
_TEXT	ENDS
;	COMDAT ?_Inside@?$basic_string@DU?$char_traits@D@std@@V?$allocator@D@2@@std@@IAE_NPBD@Z
_TEXT	SEGMENT PARA USE32 PUBLIC 'CODE'
_TEXT	ENDS
;	COMDAT ?length@?$char_traits@D@std@@SAIPBD@Z
_TEXT	SEGMENT PARA USE32 PUBLIC 'CODE'
_TEXT	ENDS
;	COMDAT ??0length_error@std@@QAE@ABV?$basic_string@DU?$char_traits@D@std@@V?$allocator@D@2@@1@@Z
_TEXT	SEGMENT PARA USE32 PUBLIC 'CODE'
_TEXT	ENDS
;	COMDAT ??0logic_error@std@@QAE@ABV?$basic_string@DU?$char_traits@D@std@@V?$allocator@D@2@@1@@Z
_TEXT	SEGMENT PARA USE32 PUBLIC 'CODE'
_TEXT	ENDS
;	COMDAT ?compare@?$char_traits@D@std@@SAHPBD0I@Z
_TEXT	SEGMENT PARA USE32 PUBLIC 'CODE'
_TEXT	ENDS
;	COMDAT ??R?$less@K@std@@QBE_NABK0@Z
_TEXT	SEGMENT PARA USE32 PUBLIC 'CODE'
_TEXT	ENDS
;	COMDAT ?_Myptr@?$basic_string@DU?$char_traits@D@std@@V?$allocator@D@2@@std@@QBEPBDXZ
_TEXT	SEGMENT PARA USE32 PUBLIC 'CODE'
_TEXT	ENDS
;	COMDAT ?size@?$basic_string@DU?$char_traits@D@std@@V?$allocator@D@2@@std@@QBEIXZ
_TEXT	SEGMENT PARA USE32 PUBLIC 'CODE'
_TEXT	ENDS
;	COMDAT ?ReleaseBufferSetLength@?$CSimpleStringT@D$0A@@ATL@@QAEXH@Z
_TEXT	SEGMENT PARA USE32 PUBLIC 'CODE'
_TEXT	ENDS
;	COMDAT ?SetLength@?$CSimpleStringT@D$0A@@ATL@@AAEXH@Z
_TEXT	SEGMENT PARA USE32 PUBLIC 'CODE'
_TEXT	ENDS
;	COMDAT ?AtlThrow@ATL@@YGXJ@Z
_TEXT	SEGMENT PARA USE32 PUBLIC 'CODE'
_TEXT	ENDS
;	COMDAT ?GetData@?$CSimpleStringT@D$0A@@ATL@@ABEPAUCStringData@2@XZ
_TEXT	SEGMENT PARA USE32 PUBLIC 'CODE'
_TEXT	ENDS
;	COMDAT ?GetBuffer@?$CSimpleStringT@D$0A@@ATL@@QAEPADH@Z
_TEXT	SEGMENT PARA USE32 PUBLIC 'CODE'
_TEXT	ENDS
;	COMDAT ?PrepareWrite@?$CSimpleStringT@D$0A@@ATL@@AAEPADH@Z
_TEXT	SEGMENT PARA USE32 PUBLIC 'CODE'
_TEXT	ENDS
;	COMDAT ?PrepareWrite2@?$CSimpleStringT@D$0A@@ATL@@AAEXH@Z
_TEXT	SEGMENT PARA USE32 PUBLIC 'CODE'
_TEXT	ENDS
;	COMDAT ?IsShared@CStringData@ATL@@QBE_NXZ
_TEXT	SEGMENT PARA USE32 PUBLIC 'CODE'
_TEXT	ENDS
;	COMDAT ?Fork@?$CSimpleStringT@D$0A@@ATL@@AAEXH@Z
_TEXT	SEGMENT PARA USE32 PUBLIC 'CODE'
_TEXT	ENDS
;	COMDAT ?ThrowMemoryException@?$CSimpleStringT@D$0A@@ATL@@KAXXZ
_TEXT	SEGMENT PARA USE32 PUBLIC 'CODE'
_TEXT	ENDS
;	COMDAT ?CopyChars@?$CSimpleStringT@D$0A@@ATL@@SAXPADPBDH@Z
_TEXT	SEGMENT PARA USE32 PUBLIC 'CODE'
_TEXT	ENDS
;	COMDAT ?data@CStringData@ATL@@QAEPAXXZ
_TEXT	SEGMENT PARA USE32 PUBLIC 'CODE'
_TEXT	ENDS
;	COMDAT ?Release@CStringData@ATL@@QAEXXZ
_TEXT	SEGMENT PARA USE32 PUBLIC 'CODE'
_TEXT	ENDS
;	COMDAT ?Attach@?$CSimpleStringT@D$0A@@ATL@@AAEXPAUCStringData@2@@Z
_TEXT	SEGMENT PARA USE32 PUBLIC 'CODE'
_TEXT	ENDS
;	COMDAT ?Reallocate@?$CSimpleStringT@D$0A@@ATL@@AAEXH@Z
_TEXT	SEGMENT PARA USE32 PUBLIC 'CODE'
_TEXT	ENDS
;	COMDAT ?StringFindString@?$ChTraitsCRT@D@ATL@@SAPBDPBD0@Z
_TEXT	SEGMENT PARA USE32 PUBLIC 'CODE'
_TEXT	ENDS
;	COMDAT ?GetLength@?$CSimpleStringT@D$0A@@ATL@@QBEHXZ
_TEXT	SEGMENT PARA USE32 PUBLIC 'CODE'
_TEXT	ENDS
;	COMDAT ?GetString@?$CSimpleStringT@D$0A@@ATL@@QBEPBDXZ
_TEXT	SEGMENT PARA USE32 PUBLIC 'CODE'
_TEXT	ENDS
;	COMDAT ?sHousingDBMng@?1??GetInstance@CHousingDBMng@@SAPAV2@XZ@4V2@A
_BSS	SEGMENT DWORD USE32 PUBLIC 'BSS'
_BSS	ENDS
;	COMDAT ?$S1@?1??GetInstance@CHousingDBMng@@SAPAV2@XZ@4IA
_BSS	SEGMENT DWORD USE32 PUBLIC 'BSS'
_BSS	ENDS
;	COMDAT ??_7CHousingDBCtrl@@6B@
CONST	SEGMENT DWORD USE32 PUBLIC 'CONST'
CONST	ENDS
;	COMDAT ??4?$CStringT@DV?$StrTraitMFC@DV?$ChTraitsCRT@D@ATL@@@@@ATL@@QAEAAV01@PBD@Z
_TEXT	SEGMENT PARA USE32 PUBLIC 'CODE'
_TEXT	ENDS
;	COMDAT ??4?$CSimpleStringT@D$0A@@ATL@@QAEAAV01@PBD@Z
_TEXT	SEGMENT PARA USE32 PUBLIC 'CODE'
_TEXT	ENDS
;	COMDAT ?SetString@?$CSimpleStringT@D$0A@@ATL@@QAEXPBD@Z
_TEXT	SEGMENT PARA USE32 PUBLIC 'CODE'
_TEXT	ENDS
;	COMDAT ?SetString@?$CSimpleStringT@D$0A@@ATL@@QAEXPBDH@Z
_TEXT	SEGMENT PARA USE32 PUBLIC 'CODE'
_TEXT	ENDS
;	COMDAT ?Empty@?$CSimpleStringT@D$0A@@ATL@@QAEXXZ
_TEXT	SEGMENT PARA USE32 PUBLIC 'CODE'
_TEXT	ENDS
;	COMDAT ?IsLocked@CStringData@ATL@@QBE_NXZ
_TEXT	SEGMENT PARA USE32 PUBLIC 'CODE'
_TEXT	ENDS
;	COMDAT ?CopyCharsOverlapped@?$CSimpleStringT@D$0A@@ATL@@SAXPADPBDH@Z
_TEXT	SEGMENT PARA USE32 PUBLIC 'CODE'
_TEXT	ENDS
;	COMDAT ?StringLength@?$CSimpleStringT@D$0A@@ATL@@SAHPBD@Z
_TEXT	SEGMENT PARA USE32 PUBLIC 'CODE'
_TEXT	ENDS
;	COMDAT ??B?$CSimpleStringT@D$0A@@ATL@@QBEPBDXZ
_TEXT	SEGMENT PARA USE32 PUBLIC 'CODE'
_TEXT	ENDS
;	COMDAT ??_7CLordSkillComponentExecutable@@6B@
CONST	SEGMENT DWORD USE32 PUBLIC 'CONST'
CONST	ENDS
;	COMDAT ??_7bad_weak_ptr@boost@@6B@
CONST	SEGMENT DWORD USE32 PUBLIC 'CONST'
CONST	ENDS
;	COMDAT ??_7sp_counted_base@detail@boost@@6B@
CONST	SEGMENT DWORD USE32 PUBLIC 'CONST'
CONST	ENDS
;	COMDAT ??5CAr@@QAEAAV0@AAH@Z
_TEXT	SEGMENT PARA USE32 PUBLIC 'CODE'
_TEXT	ENDS
;	COMDAT ??5@YAAAVCAr@@AAV0@AAUD3DXVECTOR3@@@Z
_TEXT	SEGMENT PARA USE32 PUBLIC 'CODE'
_TEXT	ENDS
;	COMDAT ??5CAr@@QAEAAV0@AAM@Z
_TEXT	SEGMENT PARA USE32 PUBLIC 'CODE'
_TEXT	ENDS
;	COMDAT ??5CAr@@QAEAAV0@AAK@Z
_TEXT	SEGMENT PARA USE32 PUBLIC 'CODE'
_TEXT	ENDS
;	COMDAT ??5CAr@@QAEAAV0@AAJ@Z
_TEXT	SEGMENT PARA USE32 PUBLIC 'CODE'
_TEXT	ENDS
;	COMDAT ?time_null@@YAJXZ
_TEXT	SEGMENT PARA USE32 PUBLIC 'CODE'
_TEXT	ENDS
;	COMDAT ??6CAr@@QAEAAV0@K@Z
_TEXT	SEGMENT PARA USE32 PUBLIC 'CODE'
_TEXT	ENDS
;	COMDAT ??6CAr@@QAEAAV0@J@Z
_TEXT	SEGMENT PARA USE32 PUBLIC 'CODE'
_TEXT	ENDS
;	COMDAT ??6CAr@@QAEAAV0@H@Z
_TEXT	SEGMENT PARA USE32 PUBLIC 'CODE'
_TEXT	ENDS
;	COMDAT ??6@YAAAVCAr@@AAV0@UD3DXVECTOR3@@@Z
_TEXT	SEGMENT PARA USE32 PUBLIC 'CODE'
_TEXT	ENDS
;	COMDAT ??6CAr@@QAEAAV0@M@Z
_TEXT	SEGMENT PARA USE32 PUBLIC 'CODE'
_TEXT	ENDS
;	COMDAT ?IsStoring@CAr@@QBEHXZ
_TEXT	SEGMENT PARA USE32 PUBLIC 'CODE'
_TEXT	ENDS
;	COMDAT ?GetTime@CTime@ATL@@QBE_JXZ
_TEXT	SEGMENT PARA USE32 PUBLIC 'CODE'
_TEXT	ENDS
;	COMDAT ??0CTimeSpan@ATL@@QAE@JHHH@Z
_TEXT	SEGMENT PARA USE32 PUBLIC 'CODE'
_TEXT	ENDS
;	COMDAT ?GetTickCount@CTime@ATL@@SG?AV12@XZ
_TEXT	SEGMENT PARA USE32 PUBLIC 'CODE'
_TEXT	ENDS
;	COMDAT ??0CTime@ATL@@QAE@_J@Z
_TEXT	SEGMENT PARA USE32 PUBLIC 'CODE'
_TEXT	ENDS
;	COMDAT ??HCTime@ATL@@QBE?AV01@VCTimeSpan@1@@Z
_TEXT	SEGMENT PARA USE32 PUBLIC 'CODE'
_TEXT	ENDS
;	COMDAT ?GetTimeSpan@CTimeSpan@ATL@@QBE_JXZ
_TEXT	SEGMENT PARA USE32 PUBLIC 'CODE'
_TEXT	ENDS
;	COMDAT ?GetItemProp@CProject@@QAEPAUItemProp@@H@Z
_TEXT	SEGMENT PARA USE32 PUBLIC 'CODE'
_TEXT	ENDS
;	COMDAT ?GetAt@?$CFixedArray@UItemProp@@@@QAEPAUItemProp@@K@Z
_TEXT	SEGMENT PARA USE32 PUBLIC 'CODE'
_TEXT	ENDS
;	COMDAT ??0D3DXVECTOR3@@QAE@MMM@Z
_TEXT	SEGMENT PARA USE32 PUBLIC 'CODE'
_TEXT	ENDS
sxdata	SEGMENT DWORD USE32 'SXDATA'
sxdata	ENDS
FLAT	GROUP _DATA, CONST, _BSS
	ASSUME	CS: FLAT, DS: FLAT, SS: FLAT
endif

INCLUDELIB LIBCMT
INCLUDELIB OLDNAMES

PUBLIC	?GetQueryObject@CDbController@@QAEPAVCQuery@@XZ	; CDbController::GetQueryObject
; Function compile flags: /Ogty
; File c:\documents and settings\test\mes documents\source\virtuos_v17\build\program\databaseserver\dbcontroller.h
;	COMDAT ?GetQueryObject@CDbController@@QAEPAVCQuery@@XZ
_TEXT	SEGMENT
?GetQueryObject@CDbController@@QAEPAVCQuery@@XZ PROC NEAR ; CDbController::GetQueryObject, COMDAT
; _this$ = ecx

; 20   : 	CQuery*	GetQueryObject( void )	{	return m_pQuery;	}

  00000	8b 41 0c	 mov	 eax, DWORD PTR [ecx+12]
  00003	c3		 ret	 0
?GetQueryObject@CDbController@@QAEPAVCQuery@@XZ ENDP	; CDbController::GetQueryObject
_TEXT	ENDS
PUBLIC	??0CHousingDBCtrl@@QAE@XZ			; CHousingDBCtrl::CHousingDBCtrl
PUBLIC	?Handler@CHousingDBCtrl@@UAEXPAUtagDB_OVERLAPPED_PLUS@@K@Z ; CHousingDBCtrl::Handler
PUBLIC	?OnTimer@CHousingDBCtrl@@UAEXXZ			; CHousingDBCtrl::OnTimer
PUBLIC	??_7CHousingDBCtrl@@6B@				; CHousingDBCtrl::`vftable'
PUBLIC	??_GCHousingDBCtrl@@UAEPAXI@Z			; CHousingDBCtrl::`scalar deleting destructor'
EXTRN	??_ECHousingDBCtrl@@UAEPAXI@Z:NEAR		; CHousingDBCtrl::`vector deleting destructor'
EXTRN	??0CDbController@@QAE@XZ:NEAR			; CDbController::CDbController
;	COMDAT ??_7CHousingDBCtrl@@6B@
; File c:\documents and settings\test\mes documents\source\virtuos_v17\build\program\databaseserver\housingdbctrl.cpp
CONST	SEGMENT
??_7CHousingDBCtrl@@6B@ DD FLAT:??_ECHousingDBCtrl@@UAEPAXI@Z ; CHousingDBCtrl::`vftable'
	DD	FLAT:?Handler@CHousingDBCtrl@@UAEXPAUtagDB_OVERLAPPED_PLUS@@K@Z
	DD	FLAT:?OnTimer@CHousingDBCtrl@@UAEXXZ
; Function compile flags: /Ogty
CONST	ENDS
;	COMDAT ??0CHousingDBCtrl@@QAE@XZ
_TEXT	SEGMENT
??0CHousingDBCtrl@@QAE@XZ PROC NEAR			; CHousingDBCtrl::CHousingDBCtrl, COMDAT
; _this$ = ecx

; 13   : {

  00000	56		 push	 esi
  00001	8b f1		 mov	 esi, ecx
  00003	e8 00 00 00 00	 call	 ??0CDbController@@QAE@XZ ; CDbController::CDbController
  00008	c7 06 00 00 00
	00		 mov	 DWORD PTR [esi], OFFSET FLAT:??_7CHousingDBCtrl@@6B@

; 14   : }

  0000e	8b c6		 mov	 eax, esi
  00010	5e		 pop	 esi
  00011	c3		 ret	 0
??0CHousingDBCtrl@@QAE@XZ ENDP				; CHousingDBCtrl::CHousingDBCtrl
_TEXT	ENDS
PUBLIC	??1CHousingDBCtrl@@UAE@XZ			; CHousingDBCtrl::~CHousingDBCtrl
EXTRN	??1CDbController@@UAE@XZ:NEAR			; CDbController::~CDbController
; Function compile flags: /Ogty
;	COMDAT ??1CHousingDBCtrl@@UAE@XZ
_TEXT	SEGMENT
??1CHousingDBCtrl@@UAE@XZ PROC NEAR			; CHousingDBCtrl::~CHousingDBCtrl, COMDAT
; _this$ = ecx

; 17   : {

  00000	c7 01 00 00 00
	00		 mov	 DWORD PTR [ecx], OFFSET FLAT:??_7CHousingDBCtrl@@6B@

; 18   : }

  00006	e9 00 00 00 00	 jmp	 ??1CDbController@@UAE@XZ ; CDbController::~CDbController
??1CHousingDBCtrl@@UAE@XZ ENDP				; CHousingDBCtrl::~CHousingDBCtrl
_TEXT	ENDS
PUBLIC	?SetupFurniture@CHousingDBCtrl@@AAEXKUHOUSINGINFO@@K@Z ; CHousingDBCtrl::SetupFurniture
PUBLIC	??_C@_0DK@FBACIBIF@usp_Housing_Update?5?8?$CF02d?8?0?5?8?$CF07d@ ; `string'
EXTRN	__fltused:NEAR
EXTRN	?Execute@CQuery@@QAAHPBDZZ:NEAR			; CQuery::Execute
EXTRN	?g_appInfo@@3UAppInfo@@A:QWORD			; g_appInfo
EXTRN	?GetInstance@CDPTrans@@SAPAV1@XZ:NEAR		; CDPTrans::GetInstance
EXTRN	?GetInstance@CHousingMng@@SAPAV1@XZ:NEAR	; CHousingMng::GetInstance
EXTRN	?SetupFurniture@CHousingMng@@QAEXKUHOUSINGINFO@@@Z:NEAR ; CHousingMng::SetupFurniture
EXTRN	?SendHousingSetupFurniture@CDPTrans@@QAEXKUHOUSINGINFO@@K@Z:NEAR ; CDPTrans::SendHousingSetupFurniture
EXTRN	?SendHousingDBFailed@CDPTrans@@QAEXKKK@Z:NEAR	; CDPTrans::SendHousingDBFailed
;	COMDAT ??_C@_0DK@FBACIBIF@usp_Housing_Update?5?8?$CF02d?8?0?5?8?$CF07d@
; File c:\documents and settings\test\mes documents\source\virtuos_v17\build\program\databaseserver\dbcontroller.h
CONST	SEGMENT
??_C@_0DK@FBACIBIF@usp_Housing_Update?5?8?$CF02d?8?0?5?8?$CF07d@ DB 'usp_'
	DB	'Housing_Update ''%02d'', ''%07d'', %d, %d, %f, %f, %f, %f', 00H ; `string'
; Function compile flags: /Ogty
; File c:\documents and settings\test\mes documents\source\virtuos_v17\build\program\databaseserver\housingdbctrl.cpp
CONST	ENDS
;	COMDAT ?SetupFurniture@CHousingDBCtrl@@AAEXKUHOUSINGINFO@@K@Z
_TEXT	SEGMENT
_dwPlayerId$ = 8					; size = 4
_housingInfo$ = 12					; size = 28
_dpId$ = 40						; size = 4
?SetupFurniture@CHousingDBCtrl@@AAEXKUHOUSINGINFO@@K@Z PROC NEAR ; CHousingDBCtrl::SetupFurniture, COMDAT
; _this$ = ecx

; 139  : 	if( GetQueryObject()->Execute( "usp_Housing_Update '%02d', '%07d', %d, %d, %f, %f, %f, %f", 
; 140  : 		g_appInfo.dwSys, dwPlayerId, housingInfo.dwItemId, housingInfo.bSetup,
; 141  : 		housingInfo.vPos.x, housingInfo.vPos.y, housingInfo.vPos.z, housingInfo.fAngle ) )

  00000	d9 44 24 20	 fld	 DWORD PTR _housingInfo$[esp+20]
  00004	8b 44 24 10	 mov	 eax, DWORD PTR _housingInfo$[esp+4]
  00008	8b 54 24 08	 mov	 edx, DWORD PTR _housingInfo$[esp-4]
  0000c	53		 push	 ebx
  0000d	8b 5c 24 08	 mov	 ebx, DWORD PTR _dwPlayerId$[esp]
  00011	8b 49 0c	 mov	 ecx, DWORD PTR [ecx+12]
  00014	56		 push	 esi
  00015	57		 push	 edi
  00016	83 ec 20	 sub	 esp, 32			; 00000020H
  00019	dd 5c 24 18	 fstp	 QWORD PTR [esp+24]
  0001d	d9 44 24 48	 fld	 DWORD PTR _housingInfo$[esp+60]
  00021	dd 5c 24 10	 fstp	 QWORD PTR [esp+16]
  00025	d9 44 24 44	 fld	 DWORD PTR _housingInfo$[esp+56]
  00029	dd 5c 24 08	 fstp	 QWORD PTR [esp+8]
  0002d	d9 44 24 40	 fld	 DWORD PTR _housingInfo$[esp+52]
  00031	dd 1c 24	 fstp	 QWORD PTR [esp]
  00034	50		 push	 eax
  00035	a1 00 00 00 00	 mov	 eax, DWORD PTR ?g_appInfo@@3UAppInfo@@A
  0003a	52		 push	 edx
  0003b	53		 push	 ebx
  0003c	50		 push	 eax
  0003d	68 00 00 00 00	 push	 OFFSET FLAT:??_C@_0DK@FBACIBIF@usp_Housing_Update?5?8?$CF02d?8?0?5?8?$CF07d@
  00042	51		 push	 ecx
  00043	e8 00 00 00 00	 call	 ?Execute@CQuery@@QAAHPBDZZ ; CQuery::Execute
  00048	83 c4 38	 add	 esp, 56			; 00000038H
  0004b	85 c0		 test	 eax, eax
  0004d	74 45		 je	 SHORT $L197959

; 142  : 	{
; 143  : 		CHousingMng::GetInstance()->SetupFurniture( dwPlayerId, housingInfo );

  0004f	83 ec 1c	 sub	 esp, 28			; 0000001cH
  00052	8b fc		 mov	 edi, esp
  00054	b9 07 00 00 00	 mov	 ecx, 7
  00059	8d 74 24 30	 lea	 esi, DWORD PTR _housingInfo$[esp+36]
  0005d	53		 push	 ebx
  0005e	f3 a5		 rep movsd
  00060	e8 00 00 00 00	 call	 ?GetInstance@CHousingMng@@SAPAV1@XZ ; CHousingMng::GetInstance
  00065	8b c8		 mov	 ecx, eax
  00067	e8 00 00 00 00	 call	 ?SetupFurniture@CHousingMng@@QAEXKUHOUSINGINFO@@@Z ; CHousingMng::SetupFurniture

; 144  : 		CDPTrans::GetInstance()->SendHousingSetupFurniture( dwPlayerId, housingInfo, dpId );

  0006c	8b 4c 24 30	 mov	 ecx, DWORD PTR _dpId$[esp+8]
  00070	51		 push	 ecx
  00071	83 ec 1c	 sub	 esp, 28			; 0000001cH
  00074	8b fc		 mov	 edi, esp
  00076	b9 07 00 00 00	 mov	 ecx, 7
  0007b	8d 74 24 34	 lea	 esi, DWORD PTR _housingInfo$[esp+40]
  0007f	53		 push	 ebx
  00080	f3 a5		 rep movsd
  00082	e8 00 00 00 00	 call	 ?GetInstance@CDPTrans@@SAPAV1@XZ ; CDPTrans::GetInstance
  00087	8b c8		 mov	 ecx, eax
  00089	e8 00 00 00 00	 call	 ?SendHousingSetupFurniture@CDPTrans@@QAEXKUHOUSINGINFO@@K@Z ; CDPTrans::SendHousingSetupFurniture

; 148  : }

  0008e	5f		 pop	 edi
  0008f	5e		 pop	 esi
  00090	5b		 pop	 ebx
  00091	c2 24 00	 ret	 36			; 00000024H
$L197959:

; 145  : 	}
; 146  : 	else
; 147  : 		CDPTrans::GetInstance()->SendHousingDBFailed( dwPlayerId, NULL_ID, dpId );

  00094	8b 54 24 30	 mov	 edx, DWORD PTR _dpId$[esp+8]
  00098	52		 push	 edx
  00099	6a ff		 push	 -1
  0009b	53		 push	 ebx
  0009c	e8 00 00 00 00	 call	 ?GetInstance@CDPTrans@@SAPAV1@XZ ; CDPTrans::GetInstance
  000a1	8b c8		 mov	 ecx, eax
  000a3	e8 00 00 00 00	 call	 ?SendHousingDBFailed@CDPTrans@@QAEXKKK@Z ; CDPTrans::SendHousingDBFailed

; 148  : }

  000a8	5f		 pop	 edi
  000a9	5e		 pop	 esi
  000aa	5b		 pop	 ebx
  000ab	c2 24 00	 ret	 36			; 00000024H
?SetupFurniture@CHousingDBCtrl@@AAEXKUHOUSINGINFO@@K@Z ENDP ; CHousingDBCtrl::SetupFurniture
_TEXT	ENDS
PUBLIC	?DeleteFurnitureList@CHousingDBCtrl@@QAEXKUHOUSINGINFO@@@Z ; CHousingDBCtrl::DeleteFurnitureList
PUBLIC	??_C@_0CD@CDDEIHOG@usp_Housing_Del?5?8?$CF02d?8?0?5?8?$CF07d?8?0?5@ ; `string'
EXTRN	?SetFurnitureList@CHousingMng@@QAEXKAAUHOUSINGINFO@@H@Z:NEAR ; CHousingMng::SetFurnitureList
EXTRN	?SendHousingFurnitureList@CDPTrans@@QAEXKAAUHOUSINGINFO@@HK@Z:NEAR ; CDPTrans::SendHousingFurnitureList
;	COMDAT ??_C@_0CD@CDDEIHOG@usp_Housing_Del?5?8?$CF02d?8?0?5?8?$CF07d?8?0?5@
; File c:\documents and settings\test\mes documents\source\virtuos_v17\build\program\databaseserver\dbcontroller.h
CONST	SEGMENT
??_C@_0CD@CDDEIHOG@usp_Housing_Del?5?8?$CF02d?8?0?5?8?$CF07d?8?0?5@ DB 'u'
	DB	'sp_Housing_Del ''%02d'', ''%07d'', %d', 00H	; `string'
; Function compile flags: /Ogty
; File c:\documents and settings\test\mes documents\source\virtuos_v17\build\program\databaseserver\housingdbctrl.cpp
CONST	ENDS
;	COMDAT ?DeleteFurnitureList@CHousingDBCtrl@@QAEXKUHOUSINGINFO@@@Z
_TEXT	SEGMENT
_dwPlayerId$ = 8					; size = 4
_housingInfo$ = 12					; size = 28
?DeleteFurnitureList@CHousingDBCtrl@@QAEXKUHOUSINGINFO@@@Z PROC NEAR ; CHousingDBCtrl::DeleteFurnitureList, COMDAT
; _this$ = ecx

; 152  : 	if( GetQueryObject()->Execute( "usp_Housing_Del '%02d', '%07d', %d", g_appInfo.dwSys, dwPlayerId, housingInfo.dwItemId ) )

  00000	8b 44 24 08	 mov	 eax, DWORD PTR _housingInfo$[esp-4]
  00004	8b 15 00 00 00
	00		 mov	 edx, DWORD PTR ?g_appInfo@@3UAppInfo@@A
  0000a	8b 49 0c	 mov	 ecx, DWORD PTR [ecx+12]
  0000d	56		 push	 esi
  0000e	8b 74 24 08	 mov	 esi, DWORD PTR _dwPlayerId$[esp]
  00012	50		 push	 eax
  00013	56		 push	 esi
  00014	52		 push	 edx
  00015	68 00 00 00 00	 push	 OFFSET FLAT:??_C@_0CD@CDDEIHOG@usp_Housing_Del?5?8?$CF02d?8?0?5?8?$CF07d?8?0?5@
  0001a	51		 push	 ecx
  0001b	e8 00 00 00 00	 call	 ?Execute@CQuery@@QAAHPBDZZ ; CQuery::Execute
  00020	83 c4 14	 add	 esp, 20			; 00000014H
  00023	85 c0		 test	 eax, eax
  00025	74 2a		 je	 SHORT $L197967

; 153  : 	{
; 154  : 		CHousingMng::GetInstance()->SetFurnitureList( dwPlayerId, housingInfo, FALSE );

  00027	6a 00		 push	 0
  00029	8d 44 24 10	 lea	 eax, DWORD PTR _housingInfo$[esp+4]
  0002d	50		 push	 eax
  0002e	56		 push	 esi
  0002f	e8 00 00 00 00	 call	 ?GetInstance@CHousingMng@@SAPAV1@XZ ; CHousingMng::GetInstance
  00034	8b c8		 mov	 ecx, eax
  00036	e8 00 00 00 00	 call	 ?SetFurnitureList@CHousingMng@@QAEXKAAUHOUSINGINFO@@H@Z ; CHousingMng::SetFurnitureList

; 155  : 		CDPTrans::GetInstance()->SendHousingFurnitureList( dwPlayerId, housingInfo, FALSE, DPID_ALLPLAYERS );

  0003b	6a 00		 push	 0
  0003d	6a 00		 push	 0
  0003f	8d 4c 24 14	 lea	 ecx, DWORD PTR _housingInfo$[esp+8]
  00043	51		 push	 ecx
  00044	56		 push	 esi
  00045	e8 00 00 00 00	 call	 ?GetInstance@CDPTrans@@SAPAV1@XZ ; CDPTrans::GetInstance
  0004a	8b c8		 mov	 ecx, eax
  0004c	e8 00 00 00 00	 call	 ?SendHousingFurnitureList@CDPTrans@@QAEXKAAUHOUSINGINFO@@HK@Z ; CDPTrans::SendHousingFurnitureList
$L197967:
  00051	5e		 pop	 esi

; 156  : 	}
; 157  : }

  00052	c2 20 00	 ret	 32			; 00000020H
?DeleteFurnitureList@CHousingDBCtrl@@QAEXKUHOUSINGINFO@@@Z ENDP ; CHousingDBCtrl::DeleteFurnitureList
_TEXT	ENDS
PUBLIC	?SetVisitAllow@CHousingDBCtrl@@AAEXKKHK@Z	; CHousingDBCtrl::SetVisitAllow
PUBLIC	??_C@_0BJ@CDCPMAOK@usp_Housing_Visit_Insert?$AA@ ; `string'
PUBLIC	??_C@_0BJ@JNNLAOBI@usp_Housing_Visit_Delete?$AA@ ; `string'
PUBLIC	??_C@_0BK@KKLDPFFP@?$CFs?5?8?$CF02d?8?0?5?8?$CF07d?8?0?5?8?$CF07d?8?$AA@ ; `string'
EXTRN	?SetVisitAllow@CHousingMng@@QAEXKKH@Z:NEAR	; CHousingMng::SetVisitAllow
EXTRN	?SendHousingSetVisitAllow@CDPTrans@@QAEXKKHK@Z:NEAR ; CDPTrans::SendHousingSetVisitAllow
;	COMDAT ??_C@_0BJ@CDCPMAOK@usp_Housing_Visit_Insert?$AA@
; File c:\documents and settings\test\mes documents\source\virtuos_v17\build\program\databaseserver\dbcontroller.h
CONST	SEGMENT
??_C@_0BJ@CDCPMAOK@usp_Housing_Visit_Insert?$AA@ DB 'usp_Housing_Visit_In'
	DB	'sert', 00H					; `string'
CONST	ENDS
;	COMDAT ??_C@_0BJ@JNNLAOBI@usp_Housing_Visit_Delete?$AA@
CONST	SEGMENT
??_C@_0BJ@JNNLAOBI@usp_Housing_Visit_Delete?$AA@ DB 'usp_Housing_Visit_De'
	DB	'lete', 00H					; `string'
CONST	ENDS
;	COMDAT ??_C@_0BK@KKLDPFFP@?$CFs?5?8?$CF02d?8?0?5?8?$CF07d?8?0?5?8?$CF07d?8?$AA@
CONST	SEGMENT
??_C@_0BK@KKLDPFFP@?$CFs?5?8?$CF02d?8?0?5?8?$CF07d?8?0?5?8?$CF07d?8?$AA@ DB '%'
	DB	's ''%02d'', ''%07d'', ''%07d''', 00H	; `string'
; Function compile flags: /Ogty
; File c:\documents and settings\test\mes documents\source\virtuos_v17\build\program\databaseserver\housingdbctrl.cpp
CONST	ENDS
;	COMDAT ?SetVisitAllow@CHousingDBCtrl@@AAEXKKHK@Z
_TEXT	SEGMENT
_dwPlayerId$ = 8					; size = 4
_dwTargetId$ = 12					; size = 4
_bAllow$ = 16						; size = 4
_dpId$ = 20						; size = 4
?SetVisitAllow@CHousingDBCtrl@@AAEXKKHK@Z PROC NEAR	; CHousingDBCtrl::SetVisitAllow, COMDAT
; _this$ = ecx

; 160  : {

  00000	53		 push	 ebx

; 161  : 	if( GetQueryObject()->Execute( "%s '%02d', '%07d', '%07d'", 
; 162  : 		bAllow? "usp_Housing_Visit_Insert": "usp_Housing_Visit_Delete",
; 163  : 		g_appInfo.dwSys, dwPlayerId, dwTargetId ) )

  00001	8b 5c 24 10	 mov	 ebx, DWORD PTR _bAllow$[esp]
  00005	85 db		 test	 ebx, ebx
  00007	56		 push	 esi
  00008	57		 push	 edi
  00009	ba 00 00 00 00	 mov	 edx, OFFSET FLAT:??_C@_0BJ@CDCPMAOK@usp_Housing_Visit_Insert?$AA@
  0000e	75 05		 jne	 SHORT $L198725
  00010	ba 00 00 00 00	 mov	 edx, OFFSET FLAT:??_C@_0BJ@JNNLAOBI@usp_Housing_Visit_Delete?$AA@
$L198725:
  00015	8b 7c 24 14	 mov	 edi, DWORD PTR _dwTargetId$[esp+8]
  00019	8b 41 0c	 mov	 eax, DWORD PTR [ecx+12]
  0001c	8b 74 24 10	 mov	 esi, DWORD PTR _dwPlayerId$[esp+8]
  00020	8b 0d 00 00 00
	00		 mov	 ecx, DWORD PTR ?g_appInfo@@3UAppInfo@@A
  00026	57		 push	 edi
  00027	56		 push	 esi
  00028	51		 push	 ecx
  00029	52		 push	 edx
  0002a	68 00 00 00 00	 push	 OFFSET FLAT:??_C@_0BK@KKLDPFFP@?$CFs?5?8?$CF02d?8?0?5?8?$CF07d?8?0?5?8?$CF07d?8?$AA@
  0002f	50		 push	 eax
  00030	e8 00 00 00 00	 call	 ?Execute@CQuery@@QAAHPBDZZ ; CQuery::Execute
  00035	83 c4 18	 add	 esp, 24			; 00000018H
  00038	85 c0		 test	 eax, eax
  0003a	74 29		 je	 SHORT $L197976

; 164  : 	{
; 165  : 		CHousingMng::GetInstance()->SetVisitAllow( dwPlayerId, dwTargetId, bAllow );

  0003c	53		 push	 ebx
  0003d	57		 push	 edi
  0003e	56		 push	 esi
  0003f	e8 00 00 00 00	 call	 ?GetInstance@CHousingMng@@SAPAV1@XZ ; CHousingMng::GetInstance
  00044	8b c8		 mov	 ecx, eax
  00046	e8 00 00 00 00	 call	 ?SetVisitAllow@CHousingMng@@QAEXKKH@Z ; CHousingMng::SetVisitAllow

; 166  : 		CDPTrans::GetInstance()->SendHousingSetVisitAllow( dwPlayerId, dwTargetId, bAllow, dpId );

  0004b	8b 54 24 1c	 mov	 edx, DWORD PTR _dpId$[esp+8]
  0004f	52		 push	 edx
  00050	53		 push	 ebx
  00051	57		 push	 edi
  00052	56		 push	 esi
  00053	e8 00 00 00 00	 call	 ?GetInstance@CDPTrans@@SAPAV1@XZ ; CDPTrans::GetInstance
  00058	8b c8		 mov	 ecx, eax
  0005a	e8 00 00 00 00	 call	 ?SendHousingSetVisitAllow@CDPTrans@@QAEXKKHK@Z ; CDPTrans::SendHousingSetVisitAllow
  0005f	5f		 pop	 edi
  00060	5e		 pop	 esi
  00061	5b		 pop	 ebx

; 170  : }

  00062	c2 10 00	 ret	 16			; 00000010H
$L197976:

; 167  : 	}
; 168  : 	else
; 169  : 		CDPTrans::GetInstance()->SendHousingDBFailed( dwPlayerId, NULL_ID, dpId );

  00065	8b 44 24 1c	 mov	 eax, DWORD PTR _dpId$[esp+8]
  00069	50		 push	 eax
  0006a	6a ff		 push	 -1
  0006c	56		 push	 esi
  0006d	e8 00 00 00 00	 call	 ?GetInstance@CDPTrans@@SAPAV1@XZ ; CDPTrans::GetInstance
  00072	8b c8		 mov	 ecx, eax
  00074	e8 00 00 00 00	 call	 ?SendHousingDBFailed@CDPTrans@@QAEXKKK@Z ; CDPTrans::SendHousingDBFailed
  00079	5f		 pop	 edi
  0007a	5e		 pop	 esi
  0007b	5b		 pop	 ebx

; 170  : }

  0007c	c2 10 00	 ret	 16			; 00000010H
?SetVisitAllow@CHousingDBCtrl@@AAEXKKHK@Z ENDP		; CHousingDBCtrl::SetVisitAllow
_TEXT	ENDS
EXTRN	?ProcessRemoveExpiredFurniture@CHousingMng@@QAEXXZ:NEAR ; CHousingMng::ProcessRemoveExpiredFurniture
; Function compile flags: /Ogty
;	COMDAT ?OnTimer@CHousingDBCtrl@@UAEXXZ
_TEXT	SEGMENT
?OnTimer@CHousingDBCtrl@@UAEXXZ PROC NEAR		; CHousingDBCtrl::OnTimer, COMDAT
; _this$ = ecx

; 174  : 	CHousingMng::GetInstance()->ProcessRemoveExpiredFurniture();

  00000	e8 00 00 00 00	 call	 ?GetInstance@CHousingMng@@SAPAV1@XZ ; CHousingMng::GetInstance
  00005	8b c8		 mov	 ecx, eax
  00007	e9 00 00 00 00	 jmp	 ?ProcessRemoveExpiredFurniture@CHousingMng@@QAEXXZ ; CHousingMng::ProcessRemoveExpiredFurniture
?OnTimer@CHousingDBCtrl@@UAEXXZ ENDP			; CHousingDBCtrl::OnTimer
_TEXT	ENDS
PUBLIC	??0CHousingDBMng@@QAE@XZ			; CHousingDBMng::CHousingDBMng
PUBLIC	??_C@_0DC@PHOJNPH@CHousingDBMng?5?9?5m_HousingDBCtrl?4@ ; `string'
EXTRN	__except_list:DWORD
EXTRN	___CxxFrameHandler:NEAR
EXTRN	?CreateDbHandler@CDbController@@QAEHK@Z:NEAR	; CDbController::CreateDbHandler
EXTRN	?Error@@YAPBDPBDZZ:NEAR				; Error
;	COMDAT xdata$x
xdata$x	SEGMENT
$T198746 DD	0ffffffffH
	DD	FLAT:$L198734
$T198742 DD	019930520H
	DD	01H
	DD	FLAT:$T198746
	DD	2 DUP(00H)
	DD	2 DUP(00H)
xdata$x	ENDS
;	COMDAT ??_C@_0DC@PHOJNPH@CHousingDBMng?5?9?5m_HousingDBCtrl?4@
CONST	SEGMENT
??_C@_0DC@PHOJNPH@CHousingDBMng?5?9?5m_HousingDBCtrl?4@ DB 'CHousingDBMng'
	DB	' - m_HousingDBCtrl.CreateDbHandler()', 00H	; `string'
; Function compile flags: /Ogty
CONST	ENDS
;	COMDAT ??0CHousingDBMng@@QAE@XZ
_TEXT	SEGMENT
_this$ = -16						; size = 4
__$EHRec$ = -12						; size = 12
??0CHousingDBMng@@QAE@XZ PROC NEAR			; CHousingDBMng::CHousingDBMng, COMDAT
; _this$ = ecx

; 181  : {

  00000	6a ff		 push	 -1
  00002	68 00 00 00 00	 push	 __ehhandler$??0CHousingDBMng@@QAE@XZ
  00007	64 a1 00 00 00
	00		 mov	 eax, DWORD PTR fs:__except_list
  0000d	50		 push	 eax
  0000e	64 89 25 00 00
	00 00		 mov	 DWORD PTR fs:__except_list, esp
  00015	51		 push	 ecx
  00016	56		 push	 esi
  00017	8b f1		 mov	 esi, ecx
  00019	89 74 24 04	 mov	 DWORD PTR _this$[esp+20], esi
  0001d	e8 00 00 00 00	 call	 ??0CDbController@@QAE@XZ ; CDbController::CDbController
  00022	c7 06 00 00 00
	00		 mov	 DWORD PTR [esi], OFFSET FLAT:??_7CHousingDBCtrl@@6B@

; 182  : 	if( !m_HousingDBCtrl.CreateDbHandler( MIN(1) ) )

  00028	68 60 ea 00 00	 push	 60000			; 0000ea60H
  0002d	8b ce		 mov	 ecx, esi
  0002f	c7 44 24 14 00
	00 00 00	 mov	 DWORD PTR __$EHRec$[esp+32], 0
  00037	e8 00 00 00 00	 call	 ?CreateDbHandler@CDbController@@QAEHK@Z ; CDbController::CreateDbHandler
  0003c	85 c0		 test	 eax, eax
  0003e	75 0d		 jne	 SHORT $L198743

; 183  : 		Error( "CHousingDBMng - m_HousingDBCtrl.CreateDbHandler()" );

  00040	68 00 00 00 00	 push	 OFFSET FLAT:??_C@_0DC@PHOJNPH@CHousingDBMng?5?9?5m_HousingDBCtrl?4@
  00045	e8 00 00 00 00	 call	 ?Error@@YAPBDPBDZZ	; Error
  0004a	83 c4 04	 add	 esp, 4
$L198743:

; 184  : }

  0004d	8b 4c 24 08	 mov	 ecx, DWORD PTR __$EHRec$[esp+20]
  00051	8b c6		 mov	 eax, esi
  00053	5e		 pop	 esi
  00054	64 89 0d 00 00
	00 00		 mov	 DWORD PTR fs:__except_list, ecx
  0005b	83 c4 10	 add	 esp, 16			; 00000010H
  0005e	c3		 ret	 0
_TEXT	ENDS
;	COMDAT text$x
text$x	SEGMENT
$L198734:
  00000	8b 4d f0	 mov	 ecx, DWORD PTR _this$[ebp]
  00003	e9 00 00 00 00	 jmp	 ??1CHousingDBCtrl@@UAE@XZ ; CHousingDBCtrl::~CHousingDBCtrl
__ehhandler$??0CHousingDBMng@@QAE@XZ:
  00008	b8 00 00 00 00	 mov	 eax, OFFSET FLAT:$T198742
  0000d	e9 00 00 00 00	 jmp	 ___CxxFrameHandler
text$x	ENDS
??0CHousingDBMng@@QAE@XZ ENDP				; CHousingDBMng::CHousingDBMng
PUBLIC	??1CHousingDBMng@@QAE@XZ			; CHousingDBMng::~CHousingDBMng
EXTRN	?CloseDbHandler@CDbController@@QAEXXZ:NEAR	; CDbController::CloseDbHandler
;	COMDAT xdata$x
xdata$x	SEGMENT
$T198760 DD	0ffffffffH
	DD	FLAT:$L198752
$T198758 DD	019930520H
	DD	01H
	DD	FLAT:$T198760
	DD	2 DUP(00H)
	DD	2 DUP(00H)
; Function compile flags: /Ogty
xdata$x	ENDS
;	COMDAT ??1CHousingDBMng@@QAE@XZ
_TEXT	SEGMENT
_this$ = -16						; size = 4
__$EHRec$ = -12						; size = 12
??1CHousingDBMng@@QAE@XZ PROC NEAR			; CHousingDBMng::~CHousingDBMng, COMDAT
; _this$ = ecx

; 187  : {

  00000	6a ff		 push	 -1
  00002	68 00 00 00 00	 push	 __ehhandler$??1CHousingDBMng@@QAE@XZ
  00007	64 a1 00 00 00
	00		 mov	 eax, DWORD PTR fs:__except_list
  0000d	50		 push	 eax
  0000e	64 89 25 00 00
	00 00		 mov	 DWORD PTR fs:__except_list, esp
  00015	51		 push	 ecx
  00016	56		 push	 esi
  00017	8b f1		 mov	 esi, ecx
  00019	89 74 24 04	 mov	 DWORD PTR _this$[esp+20], esi
  0001d	c7 44 24 10 00
	00 00 00	 mov	 DWORD PTR __$EHRec$[esp+28], 0

; 188  : 	m_HousingDBCtrl.CloseDbHandler();

  00025	e8 00 00 00 00	 call	 ?CloseDbHandler@CDbController@@QAEXXZ ; CDbController::CloseDbHandler

; 189  : }

  0002a	8b ce		 mov	 ecx, esi
  0002c	c7 44 24 10 ff
	ff ff ff	 mov	 DWORD PTR __$EHRec$[esp+28], -1
  00034	c7 06 00 00 00
	00		 mov	 DWORD PTR [esi], OFFSET FLAT:??_7CHousingDBCtrl@@6B@
  0003a	e8 00 00 00 00	 call	 ??1CDbController@@UAE@XZ ; CDbController::~CDbController
  0003f	8b 4c 24 08	 mov	 ecx, DWORD PTR __$EHRec$[esp+20]
  00043	5e		 pop	 esi
  00044	64 89 0d 00 00
	00 00		 mov	 DWORD PTR fs:__except_list, ecx
  0004b	83 c4 10	 add	 esp, 16			; 00000010H
  0004e	c3		 ret	 0
_TEXT	ENDS
;	COMDAT text$x
text$x	SEGMENT
$L198752:
  00000	8b 4d f0	 mov	 ecx, DWORD PTR _this$[ebp]
  00003	e9 00 00 00 00	 jmp	 ??1CHousingDBCtrl@@UAE@XZ ; CHousingDBCtrl::~CHousingDBCtrl
__ehhandler$??1CHousingDBMng@@QAE@XZ:
  00008	b8 00 00 00 00	 mov	 eax, OFFSET FLAT:$T198758
  0000d	e9 00 00 00 00	 jmp	 ___CxxFrameHandler
text$x	ENDS
??1CHousingDBMng@@QAE@XZ ENDP				; CHousingDBMng::~CHousingDBMng
PUBLIC	?DeleteFurnitureList@CHousingDBMng@@QAEXKUHOUSINGINFO@@@Z ; CHousingDBMng::DeleteFurnitureList
; Function compile flags: /Ogty
;	COMDAT ?DeleteFurnitureList@CHousingDBMng@@QAEXKUHOUSINGINFO@@@Z
_TEXT	SEGMENT
_dwPlayerId$ = 8					; size = 4
_housingInfo$ = 12					; size = 28
?DeleteFurnitureList@CHousingDBMng@@QAEXKUHOUSINGINFO@@@Z PROC NEAR ; CHousingDBMng::DeleteFurnitureList, COMDAT
; _this$ = ecx

; 198  : {

  00000	56		 push	 esi
  00001	57		 push	 edi
  00002	8b c1		 mov	 eax, ecx

; 199  : 	m_HousingDBCtrl.DeleteFurnitureList( dwPlayerId, housingInfo );

  00004	83 ec 1c	 sub	 esp, 28			; 0000001cH
  00007	8b fc		 mov	 edi, esp
  00009	b9 07 00 00 00	 mov	 ecx, 7
  0000e	8d 74 24 2c	 lea	 esi, DWORD PTR _housingInfo$[esp+32]
  00012	f3 a5		 rep movsd
  00014	8b 4c 24 28	 mov	 ecx, DWORD PTR _dwPlayerId$[esp+32]
  00018	51		 push	 ecx
  00019	8b c8		 mov	 ecx, eax
  0001b	e8 00 00 00 00	 call	 ?DeleteFurnitureList@CHousingDBCtrl@@QAEXKUHOUSINGINFO@@@Z ; CHousingDBCtrl::DeleteFurnitureList

; 200  : }

  00020	5f		 pop	 edi
  00021	5e		 pop	 esi
  00022	c2 20 00	 ret	 32			; 00000020H
?DeleteFurnitureList@CHousingDBMng@@QAEXKUHOUSINGINFO@@@Z ENDP ; CHousingDBMng::DeleteFurnitureList
_TEXT	ENDS
PUBLIC	??0CTimeSpan@ATL@@QAE@JHHH@Z			; ATL::CTimeSpan::CTimeSpan
EXTRN	__allmul:NEAR
; Function compile flags: /Ogty
; File c:\program files\microsoft visual studio .net 2003\vc7\atlmfc\include\atltime.inl
;	COMDAT ??0CTimeSpan@ATL@@QAE@JHHH@Z
_TEXT	SEGMENT
_lDays$ = 8						; size = 4
_nHours$ = 12						; size = 4
_nMins$ = 16						; size = 4
_nSecs$ = 20						; size = 4
??0CTimeSpan@ATL@@QAE@JHHH@Z PROC NEAR			; ATL::CTimeSpan::CTimeSpan, COMDAT
; _this$ = ecx

; 38   :  	m_timeSpan = nSecs + 60* (nMins + 60* (nHours + __int64(24) * lDays));

  00000	8b 44 24 04	 mov	 eax, DWORD PTR _lDays$[esp-4]
  00004	56		 push	 esi
  00005	57		 push	 edi
  00006	6a 00		 push	 0
  00008	99		 cdq
  00009	6a 18		 push	 24			; 00000018H
  0000b	52		 push	 edx
  0000c	50		 push	 eax
  0000d	8b f1		 mov	 esi, ecx
  0000f	e8 00 00 00 00	 call	 __allmul
  00014	8b c8		 mov	 ecx, eax
  00016	8b 44 24 10	 mov	 eax, DWORD PTR _nHours$[esp+4]
  0001a	8b fa		 mov	 edi, edx
  0001c	99		 cdq
  0001d	6a 00		 push	 0
  0001f	03 c8		 add	 ecx, eax
  00021	6a 3c		 push	 60			; 0000003cH
  00023	13 fa		 adc	 edi, edx
  00025	57		 push	 edi
  00026	51		 push	 ecx
  00027	e8 00 00 00 00	 call	 __allmul
  0002c	8b c8		 mov	 ecx, eax
  0002e	8b 44 24 14	 mov	 eax, DWORD PTR _nMins$[esp+4]
  00032	8b fa		 mov	 edi, edx
  00034	99		 cdq
  00035	6a 00		 push	 0
  00037	03 c8		 add	 ecx, eax
  00039	6a 3c		 push	 60			; 0000003cH
  0003b	13 fa		 adc	 edi, edx
  0003d	57		 push	 edi
  0003e	51		 push	 ecx
  0003f	e8 00 00 00 00	 call	 __allmul
  00044	8b c8		 mov	 ecx, eax
  00046	8b 44 24 18	 mov	 eax, DWORD PTR _nSecs$[esp+4]
  0004a	8b fa		 mov	 edi, edx
  0004c	99		 cdq
  0004d	03 c8		 add	 ecx, eax
  0004f	13 fa		 adc	 edi, edx
  00051	89 7e 04	 mov	 DWORD PTR [esi+4], edi
  00054	5f		 pop	 edi
  00055	89 0e		 mov	 DWORD PTR [esi], ecx

; 39   : }

  00057	8b c6		 mov	 eax, esi
  00059	5e		 pop	 esi
  0005a	c2 10 00	 ret	 16			; 00000010H
??0CTimeSpan@ATL@@QAE@JHHH@Z ENDP			; ATL::CTimeSpan::CTimeSpan
_TEXT	ENDS
PUBLIC	?GetTimeSpan@CTimeSpan@ATL@@QBE_JXZ		; ATL::CTimeSpan::GetTimeSpan
; Function compile flags: /Ogty
;	COMDAT ?GetTimeSpan@CTimeSpan@ATL@@QBE_JXZ
_TEXT	SEGMENT
?GetTimeSpan@CTimeSpan@ATL@@QBE_JXZ PROC NEAR		; ATL::CTimeSpan::GetTimeSpan, COMDAT
; _this$ = ecx

; 78   : 	return( m_timeSpan );

  00000	8b 01		 mov	 eax, DWORD PTR [ecx]
  00002	8b 51 04	 mov	 edx, DWORD PTR [ecx+4]

; 79   : }

  00005	c3		 ret	 0
?GetTimeSpan@CTimeSpan@ATL@@QBE_JXZ ENDP		; ATL::CTimeSpan::GetTimeSpan
_TEXT	ENDS
PUBLIC	??0CTime@ATL@@QAE@_J@Z				; ATL::CTime::CTime
; Function compile flags: /Ogty
;	COMDAT ??0CTime@ATL@@QAE@_J@Z
_TEXT	SEGMENT
_time$ = 8						; size = 8
??0CTime@ATL@@QAE@_J@Z PROC NEAR			; ATL::CTime::CTime, COMDAT
; _this$ = ecx

; 167  : {

  00000	8b 54 24 08	 mov	 edx, DWORD PTR _time$[esp]
  00004	8b c1		 mov	 eax, ecx
  00006	8b 4c 24 04	 mov	 ecx, DWORD PTR _time$[esp-4]
  0000a	89 08		 mov	 DWORD PTR [eax], ecx
  0000c	89 50 04	 mov	 DWORD PTR [eax+4], edx

; 168  : }

  0000f	c2 08 00	 ret	 8
??0CTime@ATL@@QAE@_J@Z ENDP				; ATL::CTime::CTime
_TEXT	ENDS
PUBLIC	??HCTime@ATL@@QBE?AV01@VCTimeSpan@1@@Z		; ATL::CTime::operator+
; Function compile flags: /Ogty
;	COMDAT ??HCTime@ATL@@QBE?AV01@VCTimeSpan@1@@Z
_TEXT	SEGMENT
___$ReturnUdt$ = 8					; size = 4
_span$ = 12						; size = 8
??HCTime@ATL@@QBE?AV01@VCTimeSpan@1@@Z PROC NEAR	; ATL::CTime::operator+, COMDAT
; _this$ = ecx

; 286  : 	return( CTime( m_time+span.GetTimeSpan() ) );

  00000	8b 11		 mov	 edx, DWORD PTR [ecx]
  00002	8b 44 24 08	 mov	 eax, DWORD PTR _span$[esp-4]
  00006	8b 49 04	 mov	 ecx, DWORD PTR [ecx+4]
  00009	03 d0		 add	 edx, eax
  0000b	13 4c 24 0c	 adc	 ecx, DWORD PTR _span$[esp]
  0000f	8b 44 24 04	 mov	 eax, DWORD PTR ___$ReturnUdt$[esp-4]
  00013	89 10		 mov	 DWORD PTR [eax], edx
  00015	89 48 04	 mov	 DWORD PTR [eax+4], ecx

; 287  : }

  00018	c2 0c 00	 ret	 12			; 0000000cH
??HCTime@ATL@@QBE?AV01@VCTimeSpan@1@@Z ENDP		; ATL::CTime::operator+
_TEXT	ENDS
PUBLIC	?GetTime@CTime@ATL@@QBE_JXZ			; ATL::CTime::GetTime
; Function compile flags: /Ogty
;	COMDAT ?GetTime@CTime@ATL@@QBE_JXZ
_TEXT	SEGMENT
?GetTime@CTime@ATL@@QBE_JXZ PROC NEAR			; ATL::CTime::GetTime, COMDAT
; _this$ = ecx

; 372  : 	return( m_time );

  00000	8b 01		 mov	 eax, DWORD PTR [ecx]
  00002	8b 51 04	 mov	 edx, DWORD PTR [ecx+4]

; 373  : }

  00005	c3		 ret	 0
?GetTime@CTime@ATL@@QBE_JXZ ENDP			; ATL::CTime::GetTime
_TEXT	ENDS
PUBLIC	?time_null@@YAJXZ				; time_null
EXTRN	_time:NEAR
; Function compile flags: /Ogty
; File c:\documents and settings\test\mes documents\source\virtuos_v17\build\program\_network\cmnhdr.h
;	COMDAT ?time_null@@YAJXZ
_TEXT	SEGMENT
?time_null@@YAJXZ PROC NEAR				; time_null, COMDAT

; 702  : #if defined(__WORLDSERVER) || defined(__CLIENT)
; 703  : 	return	g_tCurrent;
; 704  : #else	//
; 705  : 	return time( NULL );

  00000	6a 00		 push	 0
  00002	e8 00 00 00 00	 call	 _time
  00007	83 c4 04	 add	 esp, 4

; 706  : #endif	//
; 707  : }

  0000a	c3		 ret	 0
?time_null@@YAJXZ ENDP					; time_null
_TEXT	ENDS
PUBLIC	??0D3DXVECTOR3@@QAE@MMM@Z			; D3DXVECTOR3::D3DXVECTOR3
; Function compile flags: /Ogty
; File c:\documents and settings\test\mes documents\source\virtuos_v17\build\program\dx_sdk\d3dx9math.inl
;	COMDAT ??0D3DXVECTOR3@@QAE@MMM@Z
_TEXT	SEGMENT
_fx$ = 8						; size = 4
_fy$ = 12						; size = 4
_fz$ = 16						; size = 4
??0D3DXVECTOR3@@QAE@MMM@Z PROC NEAR			; D3DXVECTOR3::D3DXVECTOR3, COMDAT
; _this$ = ecx

; 300  :     x = fx;
; 301  :     y = fy;

  00000	8b 54 24 08	 mov	 edx, DWORD PTR _fy$[esp-4]
  00004	8b c1		 mov	 eax, ecx
  00006	8b 4c 24 04	 mov	 ecx, DWORD PTR _fx$[esp-4]
  0000a	89 08		 mov	 DWORD PTR [eax], ecx

; 302  :     z = fz;

  0000c	8b 4c 24 0c	 mov	 ecx, DWORD PTR _fz$[esp-4]
  00010	89 50 04	 mov	 DWORD PTR [eax+4], edx
  00013	89 48 08	 mov	 DWORD PTR [eax+8], ecx

; 303  : }

  00016	c2 0c 00	 ret	 12			; 0000000cH
??0D3DXVECTOR3@@QAE@MMM@Z ENDP				; D3DXVECTOR3::D3DXVECTOR3
_TEXT	ENDS
PUBLIC	?IsStoring@CAr@@QBEHXZ				; CAr::IsStoring
; Function compile flags: /Ogty
; File c:\documents and settings\test\mes documents\source\virtuos_v17\build\program\_network\misc\include\ar.h
;	COMDAT ?IsStoring@CAr@@QBEHXZ
_TEXT	SEGMENT
?IsStoring@CAr@@QBEHXZ PROC NEAR			; CAr::IsStoring, COMDAT
; _this$ = ecx

; 96   : 	{ return (m_nMode & CAr::load) == 0; }

  00000	33 c0		 xor	 eax, eax
  00002	8a 01		 mov	 al, BYTE PTR [ecx]
  00004	f7 d0		 not	 eax
  00006	83 e0 01	 and	 eax, 1
  00009	c3		 ret	 0
?IsStoring@CAr@@QBEHXZ ENDP				; CAr::IsStoring
_TEXT	ENDS
PUBLIC	??6CAr@@QAEAAV0@J@Z				; CAr::operator<<
EXTRN	?CheckBuf@CAr@@QAEXI@Z:NEAR			; CAr::CheckBuf
; Function compile flags: /Ogty
;	COMDAT ??6CAr@@QAEAAV0@J@Z
_TEXT	SEGMENT
_l$ = 8							; size = 4
??6CAr@@QAEAAV0@J@Z PROC NEAR				; CAr::operator<<, COMDAT
; _this$ = ecx

; 113  : 	{ CheckBuf( sizeof(LONG) );

  00000	56		 push	 esi
  00001	6a 04		 push	 4
  00003	8b f1		 mov	 esi, ecx
  00005	e8 00 00 00 00	 call	 ?CheckBuf@CAr@@QAEXI@Z	; CAr::CheckBuf

; 114  : 		*(UNALIGNED LONG*)m_lpBufCur = l; m_lpBufCur += sizeof(LONG); return *this; }

  0000a	8b 46 08	 mov	 eax, DWORD PTR [esi+8]
  0000d	8b 4c 24 08	 mov	 ecx, DWORD PTR _l$[esp]
  00011	89 08		 mov	 DWORD PTR [eax], ecx
  00013	83 46 08 04	 add	 DWORD PTR [esi+8], 4
  00017	8b c6		 mov	 eax, esi
  00019	5e		 pop	 esi
  0001a	c2 04 00	 ret	 4
??6CAr@@QAEAAV0@J@Z ENDP				; CAr::operator<<
_TEXT	ENDS
PUBLIC	??6CAr@@QAEAAV0@K@Z				; CAr::operator<<
; Function compile flags: /Ogty
;	COMDAT ??6CAr@@QAEAAV0@K@Z
_TEXT	SEGMENT
_dw$ = 8						; size = 4
??6CAr@@QAEAAV0@K@Z PROC NEAR				; CAr::operator<<, COMDAT
; _this$ = ecx

; 116  : 	{ CheckBuf( sizeof(DWORD) );

  00000	56		 push	 esi
  00001	6a 04		 push	 4
  00003	8b f1		 mov	 esi, ecx
  00005	e8 00 00 00 00	 call	 ?CheckBuf@CAr@@QAEXI@Z	; CAr::CheckBuf

; 117  : 		*(UNALIGNED DWORD*)m_lpBufCur = dw; m_lpBufCur += sizeof(DWORD); return *this; }

  0000a	8b 46 08	 mov	 eax, DWORD PTR [esi+8]
  0000d	8b 4c 24 08	 mov	 ecx, DWORD PTR _dw$[esp]
  00011	89 08		 mov	 DWORD PTR [eax], ecx
  00013	83 46 08 04	 add	 DWORD PTR [esi+8], 4
  00017	8b c6		 mov	 eax, esi
  00019	5e		 pop	 esi
  0001a	c2 04 00	 ret	 4
??6CAr@@QAEAAV0@K@Z ENDP				; CAr::operator<<
_TEXT	ENDS
PUBLIC	??6CAr@@QAEAAV0@M@Z				; CAr::operator<<
; Function compile flags: /Ogty
;	COMDAT ??6CAr@@QAEAAV0@M@Z
_TEXT	SEGMENT
_f$ = 8							; size = 4
??6CAr@@QAEAAV0@M@Z PROC NEAR				; CAr::operator<<, COMDAT
; _this$ = ecx

; 119  : 	{ CheckBuf( sizeof(float) );

  00000	56		 push	 esi
  00001	6a 04		 push	 4
  00003	8b f1		 mov	 esi, ecx
  00005	e8 00 00 00 00	 call	 ?CheckBuf@CAr@@QAEXI@Z	; CAr::CheckBuf

; 120  : 		*(UNALIGNED FLOAT*)m_lpBufCur = *(FLOAT*)&f; m_lpBufCur += sizeof(float); return *this; }

  0000a	8b 46 08	 mov	 eax, DWORD PTR [esi+8]
  0000d	8b 4c 24 08	 mov	 ecx, DWORD PTR _f$[esp]
  00011	89 08		 mov	 DWORD PTR [eax], ecx
  00013	83 46 08 04	 add	 DWORD PTR [esi+8], 4
  00017	8b c6		 mov	 eax, esi
  00019	5e		 pop	 esi
  0001a	c2 04 00	 ret	 4
??6CAr@@QAEAAV0@M@Z ENDP				; CAr::operator<<
_TEXT	ENDS
PUBLIC	??5CAr@@QAEAAV0@AAK@Z				; CAr::operator>>
; Function compile flags: /Ogty
;	COMDAT ??5CAr@@QAEAAV0@AAK@Z
_TEXT	SEGMENT
_dw$ = 8						; size = 4
??5CAr@@QAEAAV0@AAK@Z PROC NEAR				; CAr::operator>>, COMDAT
; _this$ = ecx

; 146  : 	{	CAR_SAFE_READ( DWORD, dw );	}

  00000	8b c1		 mov	 eax, ecx
  00002	8b 48 08	 mov	 ecx, DWORD PTR [eax+8]
  00005	56		 push	 esi
  00006	8b 70 0c	 mov	 esi, DWORD PTR [eax+12]
  00009	8d 51 04	 lea	 edx, DWORD PTR [ecx+4]
  0000c	3b d6		 cmp	 edx, esi
  0000e	5e		 pop	 esi
  0000f	77 0f		 ja	 SHORT $L162868
  00011	8b 09		 mov	 ecx, DWORD PTR [ecx]
  00013	8b 54 24 04	 mov	 edx, DWORD PTR _dw$[esp-4]
  00017	89 0a		 mov	 DWORD PTR [edx], ecx
  00019	83 40 08 04	 add	 DWORD PTR [eax+8], 4
  0001d	c2 04 00	 ret	 4
$L162868:
  00020	8b 4c 24 04	 mov	 ecx, DWORD PTR _dw$[esp-4]
  00024	c7 01 00 00 00
	00		 mov	 DWORD PTR [ecx], 0
  0002a	8b 50 0c	 mov	 edx, DWORD PTR [eax+12]
  0002d	89 50 08	 mov	 DWORD PTR [eax+8], edx
  00030	c2 04 00	 ret	 4
??5CAr@@QAEAAV0@AAK@Z ENDP				; CAr::operator>>
_TEXT	ENDS
PUBLIC	??5CAr@@QAEAAV0@AAM@Z				; CAr::operator>>
; Function compile flags: /Ogty
;	COMDAT ??5CAr@@QAEAAV0@AAM@Z
_TEXT	SEGMENT
_f$ = 8							; size = 4
??5CAr@@QAEAAV0@AAM@Z PROC NEAR				; CAr::operator>>, COMDAT
; _this$ = ecx

; 148  : 	{	CAR_SAFE_READ( float, f );	}

  00000	8b c1		 mov	 eax, ecx
  00002	8b 48 08	 mov	 ecx, DWORD PTR [eax+8]
  00005	56		 push	 esi
  00006	8b 70 0c	 mov	 esi, DWORD PTR [eax+12]
  00009	8d 51 04	 lea	 edx, DWORD PTR [ecx+4]
  0000c	3b d6		 cmp	 edx, esi
  0000e	5e		 pop	 esi
  0000f	77 0f		 ja	 SHORT $L162878
  00011	8b 09		 mov	 ecx, DWORD PTR [ecx]
  00013	8b 54 24 04	 mov	 edx, DWORD PTR _f$[esp-4]
  00017	89 0a		 mov	 DWORD PTR [edx], ecx
  00019	83 40 08 04	 add	 DWORD PTR [eax+8], 4
  0001d	c2 04 00	 ret	 4
$L162878:
  00020	8b 4c 24 04	 mov	 ecx, DWORD PTR _f$[esp-4]
  00024	c7 01 00 00 00
	00		 mov	 DWORD PTR [ecx], 0
  0002a	8b 50 0c	 mov	 edx, DWORD PTR [eax+12]
  0002d	89 50 08	 mov	 DWORD PTR [eax+8], edx
  00030	c2 04 00	 ret	 4
??5CAr@@QAEAAV0@AAM@Z ENDP				; CAr::operator>>
_TEXT	ENDS
PUBLIC	??5CAr@@QAEAAV0@AAJ@Z				; CAr::operator>>
; Function compile flags: /Ogty
;	COMDAT ??5CAr@@QAEAAV0@AAJ@Z
_TEXT	SEGMENT
_l$ = 8							; size = 4
??5CAr@@QAEAAV0@AAJ@Z PROC NEAR				; CAr::operator>>, COMDAT
; _this$ = ecx

; 152  : 	{	CAR_SAFE_READ( LONG, l );	}

  00000	8b c1		 mov	 eax, ecx
  00002	8b 48 08	 mov	 ecx, DWORD PTR [eax+8]
  00005	56		 push	 esi
  00006	8b 70 0c	 mov	 esi, DWORD PTR [eax+12]
  00009	8d 51 04	 lea	 edx, DWORD PTR [ecx+4]
  0000c	3b d6		 cmp	 edx, esi
  0000e	5e		 pop	 esi
  0000f	77 0f		 ja	 SHORT $L162898
  00011	8b 09		 mov	 ecx, DWORD PTR [ecx]
  00013	8b 54 24 04	 mov	 edx, DWORD PTR _l$[esp-4]
  00017	89 0a		 mov	 DWORD PTR [edx], ecx
  00019	83 40 08 04	 add	 DWORD PTR [eax+8], 4
  0001d	c2 04 00	 ret	 4
$L162898:
  00020	8b 4c 24 04	 mov	 ecx, DWORD PTR _l$[esp-4]
  00024	c7 01 00 00 00
	00		 mov	 DWORD PTR [ecx], 0
  0002a	8b 50 0c	 mov	 edx, DWORD PTR [eax+12]
  0002d	89 50 08	 mov	 DWORD PTR [eax+8], edx
  00030	c2 04 00	 ret	 4
??5CAr@@QAEAAV0@AAJ@Z ENDP				; CAr::operator>>
_TEXT	ENDS
PUBLIC	??6@YAAAVCAr@@AAV0@UD3DXVECTOR3@@@Z		; operator<<
EXTRN	?Write@CAr@@QAEXPBXI@Z:NEAR			; CAr::Write
; Function compile flags: /Ogty
;	COMDAT ??6@YAAAVCAr@@AAV0@UD3DXVECTOR3@@@Z
_TEXT	SEGMENT
_ar$ = 8						; size = 4
_v$ = 12						; size = 12
??6@YAAAVCAr@@AAV0@UD3DXVECTOR3@@@Z PROC NEAR		; operator<<, COMDAT

; 157  : 	{	ar.Write( &v, sizeof(D3DXVECTOR3) );	return ar;	}

  00000	56		 push	 esi
  00001	8b 74 24 08	 mov	 esi, DWORD PTR _ar$[esp]
  00005	6a 0c		 push	 12			; 0000000cH
  00007	8d 44 24 10	 lea	 eax, DWORD PTR _v$[esp+4]
  0000b	50		 push	 eax
  0000c	8b ce		 mov	 ecx, esi
  0000e	e8 00 00 00 00	 call	 ?Write@CAr@@QAEXPBXI@Z	; CAr::Write
  00013	8b c6		 mov	 eax, esi
  00015	5e		 pop	 esi
  00016	c3		 ret	 0
??6@YAAAVCAr@@AAV0@UD3DXVECTOR3@@@Z ENDP		; operator<<
_TEXT	ENDS
PUBLIC	??5@YAAAVCAr@@AAV0@AAUD3DXVECTOR3@@@Z		; operator>>
EXTRN	?Read@CAr@@QAEXPAXI@Z:NEAR			; CAr::Read
; Function compile flags: /Ogty
;	COMDAT ??5@YAAAVCAr@@AAV0@AAUD3DXVECTOR3@@@Z
_TEXT	SEGMENT
_ar$ = 8						; size = 4
_v$ = 12						; size = 4
??5@YAAAVCAr@@AAV0@AAUD3DXVECTOR3@@@Z PROC NEAR		; operator>>, COMDAT

; 160  : 	{	ar.Read( &v, sizeof(D3DXVECTOR3) );		return ar;	}

  00000	8b 44 24 08	 mov	 eax, DWORD PTR _v$[esp-4]
  00004	56		 push	 esi
  00005	8b 74 24 08	 mov	 esi, DWORD PTR _ar$[esp]
  00009	6a 0c		 push	 12			; 0000000cH
  0000b	50		 push	 eax
  0000c	8b ce		 mov	 ecx, esi
  0000e	e8 00 00 00 00	 call	 ?Read@CAr@@QAEXPAXI@Z	; CAr::Read
  00013	8b c6		 mov	 eax, esi
  00015	5e		 pop	 esi
  00016	c3		 ret	 0
??5@YAAAVCAr@@AAV0@AAUD3DXVECTOR3@@@Z ENDP		; operator>>
_TEXT	ENDS
PUBLIC	?GetAt@?$CFixedArray@UItemProp@@@@QAEPAUItemProp@@K@Z ; CFixedArray<ItemProp>::GetAt
; Function compile flags: /Ogty
; File c:\documents and settings\test\mes documents\source\virtuos_v17\build\program\_common\data.h
;	COMDAT ?GetAt@?$CFixedArray@UItemProp@@@@QAEPAUItemProp@@K@Z
_TEXT	SEGMENT
_dwIndex$ = 8						; size = 4
?GetAt@?$CFixedArray@UItemProp@@@@QAEPAUItemProp@@K@Z PROC NEAR ; CFixedArray<ItemProp>::GetAt, COMDAT
; _this$ = ecx

; 270  : 	if( dwIndex >= (DWORD)m_nMaxIndex )

  00000	8b 44 24 04	 mov	 eax, DWORD PTR _dwIndex$[esp-4]
  00004	3b 41 18	 cmp	 eax, DWORD PTR [ecx+24]
  00007	72 05		 jb	 SHORT $L186281

; 271  : 		return NULL;

  00009	33 c0		 xor	 eax, eax

; 273  : }

  0000b	c2 04 00	 ret	 4
$L186281:

; 272  : 	return (T*) m_apOffset[ dwIndex ];

  0000e	8b 49 08	 mov	 ecx, DWORD PTR [ecx+8]
  00011	8b 04 81	 mov	 eax, DWORD PTR [ecx+eax*4]

; 273  : }

  00014	c2 04 00	 ret	 4
?GetAt@?$CFixedArray@UItemProp@@@@QAEPAUItemProp@@K@Z ENDP ; CFixedArray<ItemProp>::GetAt
_TEXT	ENDS
PUBLIC	??0HOUSINGINFO@@QAE@XZ				; HOUSINGINFO::HOUSINGINFO
; Function compile flags: /Ogty
; File c:\documents and settings\test\mes documents\source\virtuos_v17\build\program\_common\housing.h
;	COMDAT ??0HOUSINGINFO@@QAE@XZ
_TEXT	SEGMENT
??0HOUSINGINFO@@QAE@XZ PROC NEAR			; HOUSINGINFO::HOUSINGINFO, COMDAT
; _this$ = ecx

; 24   : 	{} // 

  00000	8b c1		 mov	 eax, ecx
  00002	33 c9		 xor	 ecx, ecx
  00004	c7 00 ff ff ff
	ff		 mov	 DWORD PTR [eax], -1
  0000a	89 48 04	 mov	 DWORD PTR [eax+4], ecx
  0000d	89 48 08	 mov	 DWORD PTR [eax+8], ecx
  00010	89 48 0c	 mov	 DWORD PTR [eax+12], ecx
  00013	89 48 10	 mov	 DWORD PTR [eax+16], ecx
  00016	89 48 14	 mov	 DWORD PTR [eax+20], ecx
  00019	89 48 18	 mov	 DWORD PTR [eax+24], ecx
  0001c	c3		 ret	 0
??0HOUSINGINFO@@QAE@XZ ENDP				; HOUSINGINFO::HOUSINGINFO
_TEXT	ENDS
EXTRN	??3@YAXPAX@Z:NEAR				; operator delete
; Function compile flags: /Ogty
;	COMDAT ??_GCHousingDBCtrl@@UAEPAXI@Z
_TEXT	SEGMENT
___flags$ = 8						; size = 4
??_GCHousingDBCtrl@@UAEPAXI@Z PROC NEAR			; CHousingDBCtrl::`scalar deleting destructor', COMDAT
; _this$ = ecx
  00000	56		 push	 esi
  00001	8b f1		 mov	 esi, ecx
  00003	e8 00 00 00 00	 call	 ??1CHousingDBCtrl@@UAE@XZ ; CHousingDBCtrl::~CHousingDBCtrl
  00008	f6 44 24 08 01	 test	 BYTE PTR ___flags$[esp], 1
  0000d	74 09		 je	 SHORT $L198815
  0000f	56		 push	 esi
  00010	e8 00 00 00 00	 call	 ??3@YAXPAX@Z		; operator delete
  00015	83 c4 04	 add	 esp, 4
$L198815:
  00018	8b c6		 mov	 eax, esi
  0001a	5e		 pop	 esi
  0001b	c2 04 00	 ret	 4
??_GCHousingDBCtrl@@UAEPAXI@Z ENDP			; CHousingDBCtrl::`scalar deleting destructor'
_TEXT	ENDS
PUBLIC	?GetInstance@CHousingDBMng@@SAPAV1@XZ		; CHousingDBMng::GetInstance
EXTRN	_atexit:NEAR
;	COMDAT ?sHousingDBMng@?1??GetInstance@CHousingDBMng@@SAPAV2@XZ@4V2@A
; File c:\documents and settings\test\mes documents\source\virtuos_v17\build\program\databaseserver\housingdbctrl.cpp
_BSS	SEGMENT
?sHousingDBMng@?1??GetInstance@CHousingDBMng@@SAPAV2@XZ@4V2@A DB 014H DUP (?) ; `CHousingDBMng::GetInstance'::`2'::sHousingDBMng
_BSS	ENDS
;	COMDAT ?$S1@?1??GetInstance@CHousingDBMng@@SAPAV2@XZ@4IA
_BSS	SEGMENT
?$S1@?1??GetInstance@CHousingDBMng@@SAPAV2@XZ@4IA DD 01H DUP (?) ; `CHousingDBMng::GetInstance'::`2'::$S1
_BSS	ENDS
;	COMDAT xdata$x
xdata$x	SEGMENT
$T198823 DD	0ffffffffH
	DD	FLAT:$L198818
$T198820 DD	019930520H
	DD	01H
	DD	FLAT:$T198823
	DD	2 DUP(00H)
	DD	2 DUP(00H)
; Function compile flags: /Ogty
xdata$x	ENDS
;	COMDAT ?GetInstance@CHousingDBMng@@SAPAV1@XZ
_TEXT	SEGMENT
__$EHRec$ = -12						; size = 12
?GetInstance@CHousingDBMng@@SAPAV1@XZ PROC NEAR		; CHousingDBMng::GetInstance, COMDAT

; 192  : {

  00000	64 a1 00 00 00
	00		 mov	 eax, DWORD PTR fs:__except_list

; 193  : 	static CHousingDBMng sHousingDBMng;

  00006	8a 0d 00 00 00
	00		 mov	 cl, BYTE PTR ?$S1@?1??GetInstance@CHousingDBMng@@SAPAV2@XZ@4IA
  0000c	6a ff		 push	 -1
  0000e	68 00 00 00 00	 push	 __ehhandler$?GetInstance@CHousingDBMng@@SAPAV1@XZ
  00013	50		 push	 eax
  00014	b8 01 00 00 00	 mov	 eax, 1
  00019	84 c8		 test	 cl, al
  0001b	64 89 25 00 00
	00 00		 mov	 DWORD PTR fs:__except_list, esp
  00022	75 25		 jne	 SHORT $L198821
  00024	09 05 00 00 00
	00		 or	 DWORD PTR ?$S1@?1??GetInstance@CHousingDBMng@@SAPAV2@XZ@4IA, eax
  0002a	b9 00 00 00 00	 mov	 ecx, OFFSET FLAT:?sHousingDBMng@?1??GetInstance@CHousingDBMng@@SAPAV2@XZ@4V2@A
  0002f	c7 44 24 08 00
	00 00 00	 mov	 DWORD PTR __$EHRec$[esp+20], 0
  00037	e8 00 00 00 00	 call	 ??0CHousingDBMng@@QAE@XZ ; CHousingDBMng::CHousingDBMng
  0003c	68 00 00 00 00	 push	 OFFSET FLAT:_$E2
  00041	e8 00 00 00 00	 call	 _atexit
  00046	83 c4 04	 add	 esp, 4
$L198821:

; 194  : 	return & sHousingDBMng;
; 195  : }

  00049	8b 0c 24	 mov	 ecx, DWORD PTR __$EHRec$[esp+12]
  0004c	b8 00 00 00 00	 mov	 eax, OFFSET FLAT:?sHousingDBMng@?1??GetInstance@CHousingDBMng@@SAPAV2@XZ@4V2@A
  00051	64 89 0d 00 00
	00 00		 mov	 DWORD PTR fs:__except_list, ecx
  00058	83 c4 0c	 add	 esp, 12			; 0000000cH
  0005b	c3		 ret	 0
_TEXT	ENDS
;	COMDAT text$x
text$x	SEGMENT
$L198818:
  00000	a1 00 00 00 00	 mov	 eax, DWORD PTR ?$S1@?1??GetInstance@CHousingDBMng@@SAPAV2@XZ@4IA
  00005	83 e0 fe	 and	 eax, -2			; fffffffeH
  00008	a3 00 00 00 00	 mov	 DWORD PTR ?$S1@?1??GetInstance@CHousingDBMng@@SAPAV2@XZ@4IA, eax
  0000d	c3		 ret	 0
__ehhandler$?GetInstance@CHousingDBMng@@SAPAV1@XZ:
  0000e	b8 00 00 00 00	 mov	 eax, OFFSET FLAT:$T198820
  00013	e9 00 00 00 00	 jmp	 ___CxxFrameHandler
text$x	ENDS
?GetInstance@CHousingDBMng@@SAPAV1@XZ ENDP		; CHousingDBMng::GetInstance
PUBLIC	?GetTickCount@CTime@ATL@@SG?AV12@XZ		; ATL::CTime::GetTickCount
EXTRN	__time64:NEAR
; Function compile flags: /Ogty
; File c:\program files\microsoft visual studio .net 2003\vc7\atlmfc\include\atltime.inl
;	COMDAT ?GetTickCount@CTime@ATL@@SG?AV12@XZ
_TEXT	SEGMENT
___$ReturnUdt$ = 8					; size = 4
?GetTickCount@CTime@ATL@@SG?AV12@XZ PROC NEAR		; ATL::CTime::GetTickCount, COMDAT

; 139  : 	return( CTime( ::_time64( NULL ) ) );

  00000	6a 00		 push	 0
  00002	e8 00 00 00 00	 call	 __time64
  00007	8b 4c 24 08	 mov	 ecx, DWORD PTR ___$ReturnUdt$[esp]
  0000b	89 01		 mov	 DWORD PTR [ecx], eax
  0000d	83 c4 04	 add	 esp, 4
  00010	89 51 04	 mov	 DWORD PTR [ecx+4], edx
  00013	8b c1		 mov	 eax, ecx

; 140  : }

  00015	c2 04 00	 ret	 4
?GetTickCount@CTime@ATL@@SG?AV12@XZ ENDP		; ATL::CTime::GetTickCount
_TEXT	ENDS
PUBLIC	?GetItemProp@CProject@@QAEPAUItemProp@@H@Z	; CProject::GetItemProp
; Function compile flags: /Ogty
; File c:\documents and settings\test\mes documents\source\virtuos_v17\build\program\databaseserver\project.h
;	COMDAT ?GetItemProp@CProject@@QAEPAUItemProp@@H@Z
_TEXT	SEGMENT
_nIndex$ = 8						; size = 4
?GetItemProp@CProject@@QAEPAUItemProp@@H@Z PROC NEAR	; CProject::GetItemProp, COMDAT
; _this$ = ecx

; 200  : 	ItemProp*	GetItemProp( int nIndex )	{	return m_aPropItem.GetAt( nIndex );	}

  00000	8b 44 24 04	 mov	 eax, DWORD PTR _nIndex$[esp-4]
  00004	3b 41 50	 cmp	 eax, DWORD PTR [ecx+80]
  00007	72 05		 jb	 SHORT $L198837
  00009	33 c0		 xor	 eax, eax
  0000b	c2 04 00	 ret	 4
$L198837:
  0000e	8b 49 40	 mov	 ecx, DWORD PTR [ecx+64]
  00011	8b 04 81	 mov	 eax, DWORD PTR [ecx+eax*4]
  00014	c2 04 00	 ret	 4
?GetItemProp@CProject@@QAEPAUItemProp@@H@Z ENDP		; CProject::GetItemProp
_TEXT	ENDS
PUBLIC	??6CAr@@QAEAAV0@H@Z				; CAr::operator<<
; Function compile flags: /Ogty
; File c:\documents and settings\test\mes documents\source\virtuos_v17\build\program\_network\misc\include\ar.h
;	COMDAT ??6CAr@@QAEAAV0@H@Z
_TEXT	SEGMENT
_i$ = 8							; size = 4
??6CAr@@QAEAAV0@H@Z PROC NEAR				; CAr::operator<<, COMDAT
; _this$ = ecx

; 99   : 	{ return CAr::operator<<((LONG)i); }

  00000	56		 push	 esi
  00001	6a 04		 push	 4
  00003	8b f1		 mov	 esi, ecx
  00005	e8 00 00 00 00	 call	 ?CheckBuf@CAr@@QAEXI@Z	; CAr::CheckBuf
  0000a	8b 46 08	 mov	 eax, DWORD PTR [esi+8]
  0000d	8b 4c 24 08	 mov	 ecx, DWORD PTR _i$[esp]
  00011	89 08		 mov	 DWORD PTR [eax], ecx
  00013	83 46 08 04	 add	 DWORD PTR [esi+8], 4
  00017	8b c6		 mov	 eax, esi
  00019	5e		 pop	 esi
  0001a	c2 04 00	 ret	 4
??6CAr@@QAEAAV0@H@Z ENDP				; CAr::operator<<
_TEXT	ENDS
PUBLIC	??5CAr@@QAEAAV0@AAH@Z				; CAr::operator>>
; Function compile flags: /Ogty
;	COMDAT ??5CAr@@QAEAAV0@AAH@Z
_TEXT	SEGMENT
_i$ = 8							; size = 4
??5CAr@@QAEAAV0@AAH@Z PROC NEAR				; CAr::operator>>, COMDAT
; _this$ = ecx

; 126  : 	{ return CAr::operator>>((LONG&)i); }

  00000	8b c1		 mov	 eax, ecx
  00002	8b 48 08	 mov	 ecx, DWORD PTR [eax+8]
  00005	56		 push	 esi
  00006	8b 70 0c	 mov	 esi, DWORD PTR [eax+12]
  00009	8d 51 04	 lea	 edx, DWORD PTR [ecx+4]
  0000c	3b d6		 cmp	 edx, esi
  0000e	5e		 pop	 esi
  0000f	77 0f		 ja	 SHORT $L198849
  00011	8b 09		 mov	 ecx, DWORD PTR [ecx]
  00013	8b 54 24 04	 mov	 edx, DWORD PTR _i$[esp-4]
  00017	89 0a		 mov	 DWORD PTR [edx], ecx
  00019	83 40 08 04	 add	 DWORD PTR [eax+8], 4
  0001d	c2 04 00	 ret	 4
$L198849:
  00020	8b 4c 24 04	 mov	 ecx, DWORD PTR _i$[esp-4]
  00024	c7 01 00 00 00
	00		 mov	 DWORD PTR [ecx], 0
  0002a	8b 50 0c	 mov	 edx, DWORD PTR [eax+12]
  0002d	89 50 08	 mov	 DWORD PTR [eax+8], edx
  00030	c2 04 00	 ret	 4
??5CAr@@QAEAAV0@AAH@Z ENDP				; CAr::operator>>
_TEXT	ENDS
PUBLIC	??0HOUSINGINFO@@QAE@K@Z				; HOUSINGINFO::HOUSINGINFO
EXTRN	?prj@@3VCProject@@A:BYTE			; prj
; Function compile flags: /Ogty
; File c:\documents and settings\test\mes documents\source\virtuos_v17\build\program\_common\housing.h
;	COMDAT ??0HOUSINGINFO@@QAE@K@Z
_TEXT	SEGMENT
$T198899 = -8						; size = 8
_dwII$ = 8						; size = 4
??0HOUSINGINFO@@QAE@K@Z PROC NEAR			; HOUSINGINFO::HOUSINGINFO, COMDAT
; _this$ = ecx

; 27   : 	{

  00000	8b 44 24 04	 mov	 eax, DWORD PTR _dwII$[esp-4]
  00004	83 ec 08	 sub	 esp, 8
  00007	56		 push	 esi
  00008	8b f1		 mov	 esi, ecx
  0000a	89 06		 mov	 DWORD PTR [esi], eax
  0000c	57		 push	 edi
  0000d	33 ff		 xor	 edi, edi
  0000f	89 7e 04	 mov	 DWORD PTR [esi+4], edi
  00012	89 7e 08	 mov	 DWORD PTR [esi+8], edi
  00015	89 7e 0c	 mov	 DWORD PTR [esi+12], edi
  00018	89 7e 10	 mov	 DWORD PTR [esi+16], edi
  0001b	89 7e 14	 mov	 DWORD PTR [esi+20], edi

; 28   : 		ItemProp* pItemProp = prj.GetItemProp( dwItemId );   

  0001e	8b 06		 mov	 eax, DWORD PTR [esi]
  00020	89 7e 18	 mov	 DWORD PTR [esi+24], edi
  00023	3b 05 50 00 00
	00		 cmp	 eax, DWORD PTR ?prj@@3VCProject@@A+80
  00029	73 34		 jae	 SHORT $L198904
  0002b	8b 0d 40 00 00
	00		 mov	 ecx, DWORD PTR ?prj@@3VCProject@@A+64
  00031	8b 04 81	 mov	 eax, DWORD PTR [ecx+eax*4]

; 29   : 		if( pItemProp )

  00034	3b c7		 cmp	 eax, edi
  00036	74 27		 je	 SHORT $L198904

; 30   : 		{
; 31   : 			CTime time	= CTime::GetCurrentTime() + CTimeSpan( 0, 0, pItemProp->dwAbilityMin, 0 );

  00038	8b 80 e4 00 00
	00		 mov	 eax, DWORD PTR [eax+228]
  0003e	53		 push	 ebx
  0003f	57		 push	 edi
  00040	99		 cdq
  00041	6a 3c		 push	 60			; 0000003cH
  00043	52		 push	 edx
  00044	50		 push	 eax
  00045	e8 00 00 00 00	 call	 __allmul
  0004a	57		 push	 edi
  0004b	8b d8		 mov	 ebx, eax
  0004d	89 54 24 14	 mov	 DWORD PTR $T198899[esp+28], edx
  00051	e8 00 00 00 00	 call	 __time64
  00056	83 c4 04	 add	 esp, 4
  00059	03 c3		 add	 eax, ebx

; 32   : 			tKeepTime	= (time_t)( time.GetTime() );

  0005b	89 46 04	 mov	 DWORD PTR [esi+4], eax
  0005e	5b		 pop	 ebx
$L198904:
  0005f	5f		 pop	 edi

; 33   : 		}
; 34   : 	}

  00060	8b c6		 mov	 eax, esi
  00062	5e		 pop	 esi
  00063	83 c4 08	 add	 esp, 8
  00066	c2 04 00	 ret	 4
??0HOUSINGINFO@@QAE@K@Z ENDP				; HOUSINGINFO::HOUSINGINFO
_TEXT	ENDS
PUBLIC	?Serialize@HOUSINGINFO@@QAEXAAVCAr@@@Z		; HOUSINGINFO::Serialize
; Function compile flags: /Ogty
;	COMDAT ?Serialize@HOUSINGINFO@@QAEXAAVCAr@@@Z
_TEXT	SEGMENT
$T198934 = -12						; size = 12
$T198938 = 8						; size = 4
_ar$ = 8						; size = 4
?Serialize@HOUSINGINFO@@QAEXAAVCAr@@@Z PROC NEAR	; HOUSINGINFO::Serialize, COMDAT
; _this$ = ecx

; 37   : 	{

  00000	83 ec 0c	 sub	 esp, 12			; 0000000cH
  00003	53		 push	 ebx
  00004	55		 push	 ebp
  00005	56		 push	 esi

; 38   : 		if( ar.IsStoring() )

  00006	8b 74 24 1c	 mov	 esi, DWORD PTR _ar$[esp+20]
  0000a	33 c0		 xor	 eax, eax
  0000c	8a 06		 mov	 al, BYTE PTR [esi]
  0000e	57		 push	 edi
  0000f	8b f9		 mov	 edi, ecx
  00011	f7 d0		 not	 eax
  00013	a8 01		 test	 al, 1
  00015	0f 84 9c 00 00
	00		 je	 $L188823

; 39   : 			ar << dwItemId << static_cast<time_t>(tKeepTime - time_null()) << bSetup << vPos << fAngle;

  0001b	6a 00		 push	 0
  0001d	e8 00 00 00 00	 call	 _time
  00022	8b 1f		 mov	 ebx, DWORD PTR [edi]
  00024	83 c4 04	 add	 esp, 4
  00027	6a 04		 push	 4
  00029	8b ce		 mov	 ecx, esi
  0002b	8b e8		 mov	 ebp, eax
  0002d	e8 00 00 00 00	 call	 ?CheckBuf@CAr@@QAEXI@Z	; CAr::CheckBuf
  00032	8b 4e 08	 mov	 ecx, DWORD PTR [esi+8]
  00035	89 19		 mov	 DWORD PTR [ecx], ebx
  00037	83 46 08 04	 add	 DWORD PTR [esi+8], 4
  0003b	8b 5f 04	 mov	 ebx, DWORD PTR [edi+4]
  0003e	2b dd		 sub	 ebx, ebp
  00040	bd 04 00 00 00	 mov	 ebp, 4
  00045	55		 push	 ebp
  00046	8b ce		 mov	 ecx, esi
  00048	e8 00 00 00 00	 call	 ?CheckBuf@CAr@@QAEXI@Z	; CAr::CheckBuf
  0004d	8b 56 08	 mov	 edx, DWORD PTR [esi+8]
  00050	89 1a		 mov	 DWORD PTR [edx], ebx
  00052	01 6e 08	 add	 DWORD PTR [esi+8], ebp
  00055	8b 5f 08	 mov	 ebx, DWORD PTR [edi+8]
  00058	55		 push	 ebp
  00059	8b ce		 mov	 ecx, esi
  0005b	e8 00 00 00 00	 call	 ?CheckBuf@CAr@@QAEXI@Z	; CAr::CheckBuf
  00060	8b 46 08	 mov	 eax, DWORD PTR [esi+8]
  00063	89 18		 mov	 DWORD PTR [eax], ebx
  00065	01 6e 08	 add	 DWORD PTR [esi+8], ebp
  00068	8d 4f 0c	 lea	 ecx, DWORD PTR [edi+12]
  0006b	8b 11		 mov	 edx, DWORD PTR [ecx]
  0006d	8b 41 04	 mov	 eax, DWORD PTR [ecx+4]
  00070	8b 49 08	 mov	 ecx, DWORD PTR [ecx+8]
  00073	89 54 24 10	 mov	 DWORD PTR $T198934[esp+28], edx
  00077	6a 0c		 push	 12			; 0000000cH
  00079	8d 54 24 14	 lea	 edx, DWORD PTR $T198934[esp+32]
  0007d	89 4c 24 1c	 mov	 DWORD PTR $T198934[esp+40], ecx
  00081	52		 push	 edx
  00082	8b ce		 mov	 ecx, esi
  00084	89 44 24 1c	 mov	 DWORD PTR $T198934[esp+40], eax
  00088	e8 00 00 00 00	 call	 ?Write@CAr@@QAEXPBXI@Z	; CAr::Write
  0008d	8b 47 18	 mov	 eax, DWORD PTR [edi+24]
  00090	55		 push	 ebp
  00091	8b ce		 mov	 ecx, esi
  00093	89 44 24 24	 mov	 DWORD PTR $T198938[esp+28], eax
  00097	e8 00 00 00 00	 call	 ?CheckBuf@CAr@@QAEXI@Z	; CAr::CheckBuf
  0009c	8b 4e 08	 mov	 ecx, DWORD PTR [esi+8]
  0009f	8b 54 24 20	 mov	 edx, DWORD PTR $T198938[esp+24]
  000a3	89 11		 mov	 DWORD PTR [ecx], edx
  000a5	8b 46 08	 mov	 eax, DWORD PTR [esi+8]
  000a8	03 c5		 add	 eax, ebp
  000aa	5f		 pop	 edi
  000ab	89 46 08	 mov	 DWORD PTR [esi+8], eax
  000ae	5e		 pop	 esi
  000af	5d		 pop	 ebp
  000b0	5b		 pop	 ebx

; 45   : 		}
; 46   : 	}

  000b1	83 c4 0c	 add	 esp, 12			; 0000000cH
  000b4	c2 04 00	 ret	 4
$L188823:

; 40   : 		else
; 41   : 		{
; 42   : 			ar >> dwItemId >> tKeepTime;

  000b7	8b 46 08	 mov	 eax, DWORD PTR [esi+8]
  000ba	8b 56 0c	 mov	 edx, DWORD PTR [esi+12]
  000bd	8d 48 04	 lea	 ecx, DWORD PTR [eax+4]
  000c0	33 ed		 xor	 ebp, ebp
  000c2	3b ca		 cmp	 ecx, edx
  000c4	bb 04 00 00 00	 mov	 ebx, 4
  000c9	77 0b		 ja	 SHORT $L198941
  000cb	8b 10		 mov	 edx, DWORD PTR [eax]
  000cd	89 17		 mov	 DWORD PTR [edi], edx
  000cf	8b 46 08	 mov	 eax, DWORD PTR [esi+8]
  000d2	03 c3		 add	 eax, ebx
  000d4	eb 05		 jmp	 SHORT $L198976
$L198941:
  000d6	89 2f		 mov	 DWORD PTR [edi], ebp
  000d8	8b 46 0c	 mov	 eax, DWORD PTR [esi+12]
$L198976:
  000db	8b 56 0c	 mov	 edx, DWORD PTR [esi+12]
  000de	8d 48 04	 lea	 ecx, DWORD PTR [eax+4]
  000e1	3b ca		 cmp	 ecx, edx
  000e3	89 46 08	 mov	 DWORD PTR [esi+8], eax
  000e6	77 0c		 ja	 SHORT $L198946
  000e8	8b 10		 mov	 edx, DWORD PTR [eax]
  000ea	89 57 04	 mov	 DWORD PTR [edi+4], edx
  000ed	8b 46 08	 mov	 eax, DWORD PTR [esi+8]
  000f0	03 c3		 add	 eax, ebx
  000f2	eb 06		 jmp	 SHORT $L198977
$L198946:
  000f4	89 6f 04	 mov	 DWORD PTR [edi+4], ebp
  000f7	8b 46 0c	 mov	 eax, DWORD PTR [esi+12]
$L198977:

; 43   : 			tKeepTime += time_null();

  000fa	55		 push	 ebp
  000fb	89 46 08	 mov	 DWORD PTR [esi+8], eax
  000fe	e8 00 00 00 00	 call	 _time
  00103	01 47 04	 add	 DWORD PTR [edi+4], eax

; 44   : 			ar >> bSetup >> vPos >> fAngle;

  00106	8b 46 08	 mov	 eax, DWORD PTR [esi+8]
  00109	8b 56 0c	 mov	 edx, DWORD PTR [esi+12]
  0010c	8d 48 04	 lea	 ecx, DWORD PTR [eax+4]
  0010f	83 c4 04	 add	 esp, 4
  00112	3b ca		 cmp	 ecx, edx
  00114	77 0c		 ja	 SHORT $L198963
  00116	8b 10		 mov	 edx, DWORD PTR [eax]
  00118	89 57 08	 mov	 DWORD PTR [edi+8], edx
  0011b	8b 46 08	 mov	 eax, DWORD PTR [esi+8]
  0011e	03 c3		 add	 eax, ebx
  00120	eb 06		 jmp	 SHORT $L198978
$L198963:
  00122	89 6f 08	 mov	 DWORD PTR [edi+8], ebp
  00125	8b 46 0c	 mov	 eax, DWORD PTR [esi+12]
$L198978:
  00128	6a 0c		 push	 12			; 0000000cH
  0012a	8d 4f 0c	 lea	 ecx, DWORD PTR [edi+12]
  0012d	51		 push	 ecx
  0012e	8b ce		 mov	 ecx, esi
  00130	89 46 08	 mov	 DWORD PTR [esi+8], eax
  00133	e8 00 00 00 00	 call	 ?Read@CAr@@QAEXPAXI@Z	; CAr::Read
  00138	8b 46 08	 mov	 eax, DWORD PTR [esi+8]
  0013b	8b 4e 0c	 mov	 ecx, DWORD PTR [esi+12]
  0013e	8d 50 04	 lea	 edx, DWORD PTR [eax+4]
  00141	3b d1		 cmp	 edx, ecx
  00143	77 17		 ja	 SHORT $L198972
  00145	8b 00		 mov	 eax, DWORD PTR [eax]
  00147	89 47 18	 mov	 DWORD PTR [edi+24], eax
  0014a	8b 46 08	 mov	 eax, DWORD PTR [esi+8]
  0014d	03 c3		 add	 eax, ebx
  0014f	5f		 pop	 edi
  00150	89 46 08	 mov	 DWORD PTR [esi+8], eax
  00153	5e		 pop	 esi
  00154	5d		 pop	 ebp
  00155	5b		 pop	 ebx

; 45   : 		}
; 46   : 	}

  00156	83 c4 0c	 add	 esp, 12			; 0000000cH
  00159	c2 04 00	 ret	 4

; 44   : 			ar >> bSetup >> vPos >> fAngle;

$L198972:
  0015c	89 6f 18	 mov	 DWORD PTR [edi+24], ebp
  0015f	8b 4e 0c	 mov	 ecx, DWORD PTR [esi+12]
  00162	5f		 pop	 edi
  00163	89 4e 08	 mov	 DWORD PTR [esi+8], ecx
  00166	5e		 pop	 esi
  00167	5d		 pop	 ebp
  00168	5b		 pop	 ebx

; 45   : 		}
; 46   : 	}

  00169	83 c4 0c	 add	 esp, 12			; 0000000cH
  0016c	c2 04 00	 ret	 4
?Serialize@HOUSINGINFO@@QAEXAAVCAr@@@Z ENDP		; HOUSINGINFO::Serialize
_TEXT	ENDS
PUBLIC	?LoadHousingInfo@CHousingDBCtrl@@AAEXKK@Z	; CHousingDBCtrl::LoadHousingInfo
PUBLIC	??_C@_0CA@NFCFKOJP@usp_Housing_Load?5?8?$CF02d?8?0?5?8?$CF07d?8?$AA@ ; `string'
PUBLIC	??_C@_09LCBEKCCJ@ItemIndex?$AA@			; `string'
PUBLIC	??_C@_09CGIPPJPO@tKeepTime?$AA@			; `string'
PUBLIC	??_C@_06DMCKBLKP@bSetup?$AA@			; `string'
PUBLIC	??_C@_05JPJLCAGA@x_Pos?$AA@			; `string'
PUBLIC	??_C@_05FEMHPDMF@y_Pos?$AA@			; `string'
PUBLIC	??_C@_05NCFDIBGL@z_Pos?$AA@			; `string'
PUBLIC	??_C@_06JHEFCLKH@fAngle?$AA@			; `string'
PUBLIC	??_C@_0L@HNPENDNB@f_idPlayer?$AA@		; `string'
EXTRN	?Fetch@CQuery@@QAEHXZ:NEAR			; CQuery::Fetch
EXTRN	?GetInt@CQuery@@QAEHPAD@Z:NEAR			; CQuery::GetInt
EXTRN	?GetInt64@CQuery@@QAE_JPAD@Z:NEAR		; CQuery::GetInt64
EXTRN	?GetFloat@CQuery@@QAEMPAD@Z:NEAR		; CQuery::GetFloat
EXTRN	?MoreResults@CQuery@@QAEHXZ:NEAR		; CQuery::MoreResults
EXTRN	?SetFurnitureList@CHousing@@QAEXAAUHOUSINGINFO@@H@Z:NEAR ; CHousing::SetFurnitureList
EXTRN	?SetVisitAllow@CHousing@@QAEXKH@Z:NEAR		; CHousing::SetVisitAllow
EXTRN	?CreateHousing@CHousingMng@@QAEPAVCHousing@@K@Z:NEAR ; CHousingMng::CreateHousing
EXTRN	?GetHousing@CHousingMng@@QAEPAVCHousing@@K@Z:NEAR ; CHousingMng::GetHousing
EXTRN	?SendHousingLoadInfo@CDPTrans@@QAEXKPAVCHousing@@K@Z:NEAR ; CDPTrans::SendHousingLoadInfo
;	COMDAT ??_C@_0CA@NFCFKOJP@usp_Housing_Load?5?8?$CF02d?8?0?5?8?$CF07d?8?$AA@
; File c:\documents and settings\test\mes documents\source\virtuos_v17\build\program\_common\data.h
CONST	SEGMENT
??_C@_0CA@NFCFKOJP@usp_Housing_Load?5?8?$CF02d?8?0?5?8?$CF07d?8?$AA@ DB 'u'
	DB	'sp_Housing_Load ''%02d'', ''%07d''', 00H	; `string'
CONST	ENDS
;	COMDAT ??_C@_09LCBEKCCJ@ItemIndex?$AA@
CONST	SEGMENT
??_C@_09LCBEKCCJ@ItemIndex?$AA@ DB 'ItemIndex', 00H	; `string'
CONST	ENDS
;	COMDAT ??_C@_09CGIPPJPO@tKeepTime?$AA@
CONST	SEGMENT
??_C@_09CGIPPJPO@tKeepTime?$AA@ DB 'tKeepTime', 00H	; `string'
CONST	ENDS
;	COMDAT ??_C@_06DMCKBLKP@bSetup?$AA@
CONST	SEGMENT
??_C@_06DMCKBLKP@bSetup?$AA@ DB 'bSetup', 00H		; `string'
CONST	ENDS
;	COMDAT ??_C@_05JPJLCAGA@x_Pos?$AA@
CONST	SEGMENT
??_C@_05JPJLCAGA@x_Pos?$AA@ DB 'x_Pos', 00H		; `string'
CONST	ENDS
;	COMDAT ??_C@_05FEMHPDMF@y_Pos?$AA@
CONST	SEGMENT
??_C@_05FEMHPDMF@y_Pos?$AA@ DB 'y_Pos', 00H		; `string'
CONST	ENDS
;	COMDAT ??_C@_05NCFDIBGL@z_Pos?$AA@
CONST	SEGMENT
??_C@_05NCFDIBGL@z_Pos?$AA@ DB 'z_Pos', 00H		; `string'
CONST	ENDS
;	COMDAT ??_C@_06JHEFCLKH@fAngle?$AA@
CONST	SEGMENT
??_C@_06JHEFCLKH@fAngle?$AA@ DB 'fAngle', 00H		; `string'
CONST	ENDS
;	COMDAT ??_C@_0L@HNPENDNB@f_idPlayer?$AA@
CONST	SEGMENT
??_C@_0L@HNPENDNB@f_idPlayer?$AA@ DB 'f_idPlayer', 00H	; `string'
; Function compile flags: /Ogty
; File c:\documents and settings\test\mes documents\source\virtuos_v17\build\program\databaseserver\housingdbctrl.cpp
CONST	ENDS
;	COMDAT ?LoadHousingInfo@CHousingDBCtrl@@AAEXKK@Z
_TEXT	SEGMENT
_housingInfo$197924 = -28				; size = 28
_dwPlayerId$ = 8					; size = 4
_dpId$ = 12						; size = 4
?LoadHousingInfo@CHousingDBCtrl@@AAEXKK@Z PROC NEAR	; CHousingDBCtrl::LoadHousingInfo, COMDAT
; _this$ = ecx

; 81   : {

  00000	83 ec 1c	 sub	 esp, 28			; 0000001cH
  00003	53		 push	 ebx

; 82   : 	CHousing* pHousing = CHousingMng::GetInstance()->GetHousing( dwPlayerId );

  00004	8b 5c 24 24	 mov	 ebx, DWORD PTR _dwPlayerId$[esp+28]
  00008	55		 push	 ebp
  00009	56		 push	 esi
  0000a	57		 push	 edi
  0000b	53		 push	 ebx
  0000c	8b f1		 mov	 esi, ecx
  0000e	e8 00 00 00 00	 call	 ?GetInstance@CHousingMng@@SAPAV1@XZ ; CHousingMng::GetInstance
  00013	8b c8		 mov	 ecx, eax
  00015	e8 00 00 00 00	 call	 ?GetHousing@CHousingMng@@QAEPAVCHousing@@K@Z ; CHousingMng::GetHousing
  0001a	8b e8		 mov	 ebp, eax

; 83   : 	if( !pHousing )

  0001c	33 ff		 xor	 edi, edi
  0001e	3b ef		 cmp	 ebp, edi
  00020	0f 85 5d 01 00
	00		 jne	 $L197940

; 84   : 	{
; 85   : 		pHousing = CHousingMng::GetInstance()->CreateHousing( dwPlayerId );

  00026	53		 push	 ebx
  00027	e8 00 00 00 00	 call	 ?GetInstance@CHousingMng@@SAPAV1@XZ ; CHousingMng::GetInstance
  0002c	8b c8		 mov	 ecx, eax
  0002e	e8 00 00 00 00	 call	 ?CreateHousing@CHousingMng@@QAEPAVCHousing@@K@Z ; CHousingMng::CreateHousing
  00033	8b e8		 mov	 ebp, eax

; 86   : 		if( !pHousing )	//    ..

  00035	3b ef		 cmp	 ebp, edi
  00037	0f 84 59 01 00
	00		 je	 $L197914

; 87   : 			return;
; 88   : 
; 89   : 		// DB ...
; 90   : 		CQuery* pQuery = GetQueryObject();
; 91   : 		if( pQuery->Execute( "usp_Housing_Load '%02d', '%07d'", g_appInfo.dwSys, dwPlayerId ) )

  0003d	a1 00 00 00 00	 mov	 eax, DWORD PTR ?g_appInfo@@3UAppInfo@@A
  00042	8b 76 0c	 mov	 esi, DWORD PTR [esi+12]
  00045	53		 push	 ebx
  00046	50		 push	 eax
  00047	68 00 00 00 00	 push	 OFFSET FLAT:??_C@_0CA@NFCFKOJP@usp_Housing_Load?5?8?$CF02d?8?0?5?8?$CF07d?8?$AA@
  0004c	56		 push	 esi
  0004d	e8 00 00 00 00	 call	 ?Execute@CQuery@@QAAHPBDZZ ; CQuery::Execute
  00052	83 c4 10	 add	 esp, 16			; 00000010H
  00055	85 c0		 test	 eax, eax
  00057	0f 84 26 01 00
	00		 je	 $L197940

; 92   : 		{
; 93   : 			while( pQuery->Fetch() )

  0005d	8b ce		 mov	 ecx, esi
  0005f	e8 00 00 00 00	 call	 ?Fetch@CQuery@@QAEHXZ	; CQuery::Fetch
  00064	85 c0		 test	 eax, eax
  00066	0f 84 e0 00 00
	00		 je	 $L197923
  0006c	83 cb ff	 or	 ebx, -1
  0006f	90		 npad	 1
$L197922:

; 94   : 			{
; 95   : 				HOUSINGINFO housingInfo;
; 96   : 				housingInfo.dwItemId = static_cast<DWORD>( pQuery->GetInt( "ItemIndex" ) );

  00070	68 00 00 00 00	 push	 OFFSET FLAT:??_C@_09LCBEKCCJ@ItemIndex?$AA@
  00075	8b ce		 mov	 ecx, esi
  00077	89 5c 24 14	 mov	 DWORD PTR _housingInfo$197924[esp+48], ebx
  0007b	89 7c 24 18	 mov	 DWORD PTR _housingInfo$197924[esp+52], edi
  0007f	89 7c 24 1c	 mov	 DWORD PTR _housingInfo$197924[esp+56], edi
  00083	c7 44 24 20 00
	00 00 00	 mov	 DWORD PTR _housingInfo$197924[esp+60], 0
  0008b	c7 44 24 24 00
	00 00 00	 mov	 DWORD PTR _housingInfo$197924[esp+64], 0
  00093	c7 44 24 28 00
	00 00 00	 mov	 DWORD PTR _housingInfo$197924[esp+68], 0
  0009b	c7 44 24 2c 00
	00 00 00	 mov	 DWORD PTR _housingInfo$197924[esp+72], 0
  000a3	e8 00 00 00 00	 call	 ?GetInt@CQuery@@QAEHPAD@Z ; CQuery::GetInt

; 97   : 				housingInfo.tKeepTime = static_cast<time_t>( pQuery->GetInt64( "tKeepTime" ) );

  000a8	68 00 00 00 00	 push	 OFFSET FLAT:??_C@_09CGIPPJPO@tKeepTime?$AA@
  000ad	8b ce		 mov	 ecx, esi
  000af	89 44 24 14	 mov	 DWORD PTR _housingInfo$197924[esp+48], eax
  000b3	e8 00 00 00 00	 call	 ?GetInt64@CQuery@@QAE_JPAD@Z ; CQuery::GetInt64

; 98   : 				housingInfo.bSetup = static_cast<BOOL>( pQuery->GetInt( "bSetup" ) );

  000b8	68 00 00 00 00	 push	 OFFSET FLAT:??_C@_06DMCKBLKP@bSetup?$AA@
  000bd	8b ce		 mov	 ecx, esi
  000bf	89 44 24 18	 mov	 DWORD PTR _housingInfo$197924[esp+52], eax
  000c3	e8 00 00 00 00	 call	 ?GetInt@CQuery@@QAEHPAD@Z ; CQuery::GetInt

; 99   : 				housingInfo.vPos.x = pQuery->GetFloat( "x_Pos" );

  000c8	68 00 00 00 00	 push	 OFFSET FLAT:??_C@_05JPJLCAGA@x_Pos?$AA@
  000cd	8b ce		 mov	 ecx, esi
  000cf	89 44 24 1c	 mov	 DWORD PTR _housingInfo$197924[esp+56], eax
  000d3	e8 00 00 00 00	 call	 ?GetFloat@CQuery@@QAEMPAD@Z ; CQuery::GetFloat
  000d8	d9 5c 24 1c	 fstp	 DWORD PTR _housingInfo$197924[esp+56]

; 100  : 				housingInfo.vPos.y = pQuery->GetFloat( "y_Pos" );

  000dc	68 00 00 00 00	 push	 OFFSET FLAT:??_C@_05FEMHPDMF@y_Pos?$AA@
  000e1	8b ce		 mov	 ecx, esi
  000e3	e8 00 00 00 00	 call	 ?GetFloat@CQuery@@QAEMPAD@Z ; CQuery::GetFloat
  000e8	d9 5c 24 20	 fstp	 DWORD PTR _housingInfo$197924[esp+60]

; 101  : 				housingInfo.vPos.z = pQuery->GetFloat( "z_Pos" );

  000ec	68 00 00 00 00	 push	 OFFSET FLAT:??_C@_05NCFDIBGL@z_Pos?$AA@
  000f1	8b ce		 mov	 ecx, esi
  000f3	e8 00 00 00 00	 call	 ?GetFloat@CQuery@@QAEMPAD@Z ; CQuery::GetFloat
  000f8	d9 5c 24 24	 fstp	 DWORD PTR _housingInfo$197924[esp+64]

; 102  : 				housingInfo.fAngle = pQuery->GetFloat( "fAngle" );

  000fc	68 00 00 00 00	 push	 OFFSET FLAT:??_C@_06JHEFCLKH@fAngle?$AA@
  00101	8b ce		 mov	 ecx, esi
  00103	e8 00 00 00 00	 call	 ?GetFloat@CQuery@@QAEMPAD@Z ; CQuery::GetFloat
  00108	d9 5c 24 28	 fstp	 DWORD PTR _housingInfo$197924[esp+68]

; 103  : 
; 104  : 				ItemProp* pItemProp = prj.GetItemProp( housingInfo.dwItemId );

  0010c	8b 44 24 10	 mov	 eax, DWORD PTR _housingInfo$197924[esp+44]
  00110	3b 05 50 00 00
	00		 cmp	 eax, DWORD PTR ?prj@@3VCProject@@A+80
  00116	73 21		 jae	 SHORT $L197936
  00118	8b 0d 40 00 00
	00		 mov	 ecx, DWORD PTR ?prj@@3VCProject@@A+64
  0011e	8b 04 81	 mov	 eax, DWORD PTR [ecx+eax*4]

; 105  : 				if( pItemProp && pItemProp->dwItemKind1 == IK1_HOUSING )

  00121	3b c7		 cmp	 eax, edi
  00123	74 14		 je	 SHORT $L197936
  00125	83 78 70 07	 cmp	 DWORD PTR [eax+112], 7
  00129	75 0e		 jne	 SHORT $L197936

; 106  : 					pHousing->SetFurnitureList( housingInfo, TRUE );

  0012b	6a 01		 push	 1
  0012d	8d 54 24 14	 lea	 edx, DWORD PTR _housingInfo$197924[esp+48]
  00131	52		 push	 edx
  00132	8b cd		 mov	 ecx, ebp
  00134	e8 00 00 00 00	 call	 ?SetFurnitureList@CHousing@@QAEXAAUHOUSINGINFO@@H@Z ; CHousing::SetFurnitureList
$L197936:
  00139	8b ce		 mov	 ecx, esi
  0013b	e8 00 00 00 00	 call	 ?Fetch@CQuery@@QAEHXZ	; CQuery::Fetch
  00140	85 c0		 test	 eax, eax
  00142	0f 85 28 ff ff
	ff		 jne	 $L197922

; 92   : 		{
; 93   : 			while( pQuery->Fetch() )

  00148	8b 5c 24 30	 mov	 ebx, DWORD PTR _dwPlayerId$[esp+40]
$L197923:

; 107  : 			}
; 108  : 
; 109  : 			if( pQuery->MoreResults() )

  0014c	8b ce		 mov	 ecx, esi
  0014e	e8 00 00 00 00	 call	 ?MoreResults@CQuery@@QAEHXZ ; CQuery::MoreResults
  00153	85 c0		 test	 eax, eax
  00155	74 2c		 je	 SHORT $L197940

; 110  : 			{
; 111  : 				while( pQuery->Fetch() )

  00157	8b ce		 mov	 ecx, esi
  00159	e8 00 00 00 00	 call	 ?Fetch@CQuery@@QAEHXZ	; CQuery::Fetch
  0015e	85 c0		 test	 eax, eax
  00160	74 21		 je	 SHORT $L197940
$L197939:

; 112  : 					pHousing->SetVisitAllow( pQuery->GetInt( "f_idPlayer" ), TRUE );

  00162	6a 01		 push	 1
  00164	68 00 00 00 00	 push	 OFFSET FLAT:??_C@_0L@HNPENDNB@f_idPlayer?$AA@
  00169	8b ce		 mov	 ecx, esi
  0016b	e8 00 00 00 00	 call	 ?GetInt@CQuery@@QAEHPAD@Z ; CQuery::GetInt
  00170	50		 push	 eax
  00171	8b cd		 mov	 ecx, ebp
  00173	e8 00 00 00 00	 call	 ?SetVisitAllow@CHousing@@QAEXKH@Z ; CHousing::SetVisitAllow
  00178	8b ce		 mov	 ecx, esi
  0017a	e8 00 00 00 00	 call	 ?Fetch@CQuery@@QAEHXZ	; CQuery::Fetch
  0017f	85 c0		 test	 eax, eax
  00181	75 df		 jne	 SHORT $L197939
$L197940:

; 113  : 			}
; 114  : 		}
; 115  : 	}
; 116  : 
; 117  : 	//    ...
; 118  : 	CDPTrans::GetInstance()->SendHousingLoadInfo( dwPlayerId, pHousing, dpId );

  00183	8b 44 24 34	 mov	 eax, DWORD PTR _dpId$[esp+40]
  00187	50		 push	 eax
  00188	55		 push	 ebp
  00189	53		 push	 ebx
  0018a	e8 00 00 00 00	 call	 ?GetInstance@CDPTrans@@SAPAV1@XZ ; CDPTrans::GetInstance
  0018f	8b c8		 mov	 ecx, eax
  00191	e8 00 00 00 00	 call	 ?SendHousingLoadInfo@CDPTrans@@QAEXKPAVCHousing@@K@Z ; CDPTrans::SendHousingLoadInfo
$L197914:
  00196	5f		 pop	 edi
  00197	5e		 pop	 esi
  00198	5d		 pop	 ebp
  00199	5b		 pop	 ebx

; 119  : }

  0019a	83 c4 1c	 add	 esp, 28			; 0000001cH
  0019d	c2 08 00	 ret	 8
?LoadHousingInfo@CHousingDBCtrl@@AAEXKK@Z ENDP		; CHousingDBCtrl::LoadHousingInfo
_TEXT	ENDS
PUBLIC	?InsertFurnitureList@CHousingDBCtrl@@AAEXKKK@Z	; CHousingDBCtrl::InsertFurnitureList
PUBLIC	??_C@_0CN@ICOIMLLE@usp_Housing_Insert?5?8?$CF02d?8?0?5?8?$CF07d@ ; `string'
;	COMDAT ??_C@_0CN@ICOIMLLE@usp_Housing_Insert?5?8?$CF02d?8?0?5?8?$CF07d@
; File c:\documents and settings\test\mes documents\source\virtuos_v17\build\program\databaseserver\dbcontroller.h
CONST	SEGMENT
??_C@_0CN@ICOIMLLE@usp_Housing_Insert?5?8?$CF02d?8?0?5?8?$CF07d@ DB 'usp_'
	DB	'Housing_Insert ''%02d'', ''%07d'', %d, %I64d', 00H ; `string'
; Function compile flags: /Ogty
; File c:\documents and settings\test\mes documents\source\virtuos_v17\build\program\databaseserver\housingdbctrl.cpp
CONST	ENDS
;	COMDAT ?InsertFurnitureList@CHousingDBCtrl@@AAEXKKK@Z
_TEXT	SEGMENT
_housingInfo$ = -28					; size = 28
_dwPlayerId$ = 8					; size = 4
_dwItemId$ = 12						; size = 4
_dpId$ = 16						; size = 4
?InsertFurnitureList@CHousingDBCtrl@@AAEXKKK@Z PROC NEAR ; CHousingDBCtrl::InsertFurnitureList, COMDAT
; _this$ = ecx

; 123  : 	HOUSINGINFO housingInfo( dwItemId );	//   .

  00000	8b 44 24 08	 mov	 eax, DWORD PTR _dwItemId$[esp-4]
  00004	83 ec 1c	 sub	 esp, 28			; 0000001cH
  00007	56		 push	 esi
  00008	8b f1		 mov	 esi, ecx
  0000a	50		 push	 eax
  0000b	8d 4c 24 08	 lea	 ecx, DWORD PTR _housingInfo$[esp+36]
  0000f	e8 00 00 00 00	 call	 ??0HOUSINGINFO@@QAE@K@Z	; HOUSINGINFO::HOUSINGINFO

; 124  : 	// int n = sizeof(time_t);
; 125  : 	// time_t size 4 .
; 126  : 	// VS2003 __int64 ...,   __int64  casting
; 127  : 	if( GetQueryObject()->Execute( "usp_Housing_Insert '%02d', '%07d', %d, %I64d",
; 128  : 		g_appInfo.dwSys, dwPlayerId, housingInfo.dwItemId, static_cast<__int64>(housingInfo.tKeepTime) ) )

  00014	8b 44 24 08	 mov	 eax, DWORD PTR _housingInfo$[esp+36]
  00018	8b 4e 0c	 mov	 ecx, DWORD PTR [esi+12]
  0001b	8b 74 24 24	 mov	 esi, DWORD PTR _dwPlayerId$[esp+28]
  0001f	99		 cdq
  00020	52		 push	 edx
  00021	8b 54 24 08	 mov	 edx, DWORD PTR _housingInfo$[esp+36]
  00025	50		 push	 eax
  00026	a1 00 00 00 00	 mov	 eax, DWORD PTR ?g_appInfo@@3UAppInfo@@A
  0002b	52		 push	 edx
  0002c	56		 push	 esi
  0002d	50		 push	 eax
  0002e	68 00 00 00 00	 push	 OFFSET FLAT:??_C@_0CN@ICOIMLLE@usp_Housing_Insert?5?8?$CF02d?8?0?5?8?$CF07d@
  00033	51		 push	 ecx
  00034	e8 00 00 00 00	 call	 ?Execute@CQuery@@QAAHPBDZZ ; CQuery::Execute
  00039	83 c4 1c	 add	 esp, 28			; 0000001cH
  0003c	85 c0		 test	 eax, eax
  0003e	74 34		 je	 SHORT $L197950

; 129  : 	{
; 130  : 		CHousingMng::GetInstance()->SetFurnitureList( dwPlayerId, housingInfo, TRUE );

  00040	6a 01		 push	 1
  00042	8d 4c 24 08	 lea	 ecx, DWORD PTR _housingInfo$[esp+36]
  00046	51		 push	 ecx
  00047	56		 push	 esi
  00048	e8 00 00 00 00	 call	 ?GetInstance@CHousingMng@@SAPAV1@XZ ; CHousingMng::GetInstance
  0004d	8b c8		 mov	 ecx, eax
  0004f	e8 00 00 00 00	 call	 ?SetFurnitureList@CHousingMng@@QAEXKAAUHOUSINGINFO@@H@Z ; CHousingMng::SetFurnitureList

; 131  : 		CDPTrans::GetInstance()->SendHousingFurnitureList( dwPlayerId, housingInfo, TRUE, dpId );

  00054	8b 54 24 2c	 mov	 edx, DWORD PTR _dpId$[esp+28]
  00058	52		 push	 edx
  00059	6a 01		 push	 1
  0005b	8d 44 24 0c	 lea	 eax, DWORD PTR _housingInfo$[esp+40]
  0005f	50		 push	 eax
  00060	56		 push	 esi
  00061	e8 00 00 00 00	 call	 ?GetInstance@CDPTrans@@SAPAV1@XZ ; CDPTrans::GetInstance
  00066	8b c8		 mov	 ecx, eax
  00068	e8 00 00 00 00	 call	 ?SendHousingFurnitureList@CDPTrans@@QAEXKAAUHOUSINGINFO@@HK@Z ; CDPTrans::SendHousingFurnitureList
  0006d	5e		 pop	 esi

; 135  : }

  0006e	83 c4 1c	 add	 esp, 28			; 0000001cH
  00071	c2 0c 00	 ret	 12			; 0000000cH
$L197950:

; 132  : 	}
; 133  : 	else
; 134  : 		CDPTrans::GetInstance()->SendHousingDBFailed( dwPlayerId, housingInfo.dwItemId, dpId );

  00074	8b 4c 24 2c	 mov	 ecx, DWORD PTR _dpId$[esp+28]
  00078	8b 54 24 04	 mov	 edx, DWORD PTR _housingInfo$[esp+32]
  0007c	51		 push	 ecx
  0007d	52		 push	 edx
  0007e	56		 push	 esi
  0007f	e8 00 00 00 00	 call	 ?GetInstance@CDPTrans@@SAPAV1@XZ ; CDPTrans::GetInstance
  00084	8b c8		 mov	 ecx, eax
  00086	e8 00 00 00 00	 call	 ?SendHousingDBFailed@CDPTrans@@QAEXKKK@Z ; CDPTrans::SendHousingDBFailed
  0008b	5e		 pop	 esi

; 135  : }

  0008c	83 c4 1c	 add	 esp, 28			; 0000001cH
  0008f	c2 0c 00	 ret	 12			; 0000000cH
?InsertFurnitureList@CHousingDBCtrl@@AAEXKKK@Z ENDP	; CHousingDBCtrl::InsertFurnitureList
_TEXT	ENDS
EXTRN	__chkstk:NEAR
EXTRN	___security_cookie:DWORD
EXTRN	@__security_check_cookie@4:NEAR
EXTRN	?ProcessExpiredFurniture@CHousing@@QAEXJH@Z:NEAR ; CHousing::ProcessExpiredFurniture
EXTRN	??0CAr@@QAE@PAXI@Z:NEAR				; CAr::CAr
EXTRN	??1CAr@@QAE@XZ:NEAR				; CAr::~CAr
;	COMDAT xdata$x
; File c:\documents and settings\test\mes documents\source\virtuos_v17\build\program\_network\cmnhdr.h
xdata$x	SEGMENT
$T199043 DD	0ffffffffH
	DD	FLAT:$L199020
$T199036 DD	019930520H
	DD	01H
	DD	FLAT:$T199043
	DD	2 DUP(00H)
	DD	2 DUP(00H)
; Function compile flags: /Ogty
; File c:\documents and settings\test\mes documents\source\virtuos_v17\build\program\databaseserver\housingdbctrl.cpp
xdata$x	ENDS
;	COMDAT ?Handler@CHousingDBCtrl@@UAEXPAUtagDB_OVERLAPPED_PLUS@@K@Z
_TEXT	SEGMENT
_dwTargetId$197904 = -16460				; size = 4
_dwItemId$197898 = -16460				; size = 4
_dwPlayerId$197895 = -16460				; size = 4
_bAllow$197905 = -16456					; size = 4
_dwPlayerId$197900 = -16456				; size = 4
_dwPlayerId$197897 = -16456				; size = 4
_dwPlayerId$197907 = -16452				; size = 4
_dwPlayerId$197903 = -16452				; size = 4
_housingInfo$197901 = -16448				; size = 28
_ar$ = -16420						; size = 16404
__$ArrayPad$ = -16					; size = 4
__$EHRec$ = -12						; size = 12
__$ReturnAddr$ = 4					; size = 4
_pov$ = 8						; size = 4
_dwCompletionKey$ = 12					; size = 4
?Handler@CHousingDBCtrl@@UAEXPAUtagDB_OVERLAPPED_PLUS@@K@Z PROC NEAR ; CHousingDBCtrl::Handler, COMDAT
; _this$ = ecx

; 21   : {

  00000	6a ff		 push	 -1
  00002	68 00 00 00 00	 push	 __ehhandler$?Handler@CHousingDBCtrl@@UAEXPAUtagDB_OVERLAPPED_PLUS@@K@Z
  00007	64 a1 00 00 00
	00		 mov	 eax, DWORD PTR fs:__except_list
  0000d	50		 push	 eax
  0000e	b8 40 40 00 00	 mov	 eax, 16448		; 00004040H
  00013	64 89 25 00 00
	00 00		 mov	 DWORD PTR fs:__except_list, esp
  0001a	e8 00 00 00 00	 call	 __chkstk
  0001f	a1 00 00 00 00	 mov	 eax, DWORD PTR ___security_cookie
  00024	33 c4		 xor	 eax, esp
  00026	53		 push	 ebx
  00027	56		 push	 esi
  00028	8b b4 24 58 40
	00 00		 mov	 esi, DWORD PTR _pov$[esp+16464]
  0002f	89 84 24 44 40
	00 00		 mov	 DWORD PTR __$ArrayPad$[esp+16468], eax

; 22   : 	CAr ar( pov->lpBuf, pov->uBufSize );

  00036	8b 46 1c	 mov	 eax, DWORD PTR [esi+28]
  00039	57		 push	 edi
  0003a	8b d9		 mov	 ebx, ecx
  0003c	8b 4e 18	 mov	 ecx, DWORD PTR [esi+24]
  0003f	50		 push	 eax
  00040	51		 push	 ecx
  00041	8d 4c 24 3c	 lea	 ecx, DWORD PTR _ar$[esp+16480]
  00045	e8 00 00 00 00	 call	 ??0CAr@@QAE@PAXI@Z	; CAr::CAr

; 23   : 
; 24   : 	switch( pov->nQueryMode )

  0004a	8b 76 14	 mov	 esi, DWORD PTR [esi+20]
  0004d	33 ff		 xor	 edi, edi
  0004f	83 fe 04	 cmp	 esi, 4
  00052	89 bc 24 54 40
	00 00		 mov	 DWORD PTR __$EHRec$[esp+16480], edi
  00059	0f 87 56 01 00
	00		 ja	 $L197909
  0005f	ff 24 b5 00 00
	00 00		 jmp	 DWORD PTR $L199042[esi*4]
$L197894:

; 25   : 	{
; 26   : 		case QUERY_HOUSING_LOAD:
; 27   : 			{
; 28   : 				DWORD dwPlayerId;
; 29   : 				ar >> dwPlayerId;

  00066	8d 54 24 0c	 lea	 edx, DWORD PTR _dwPlayerId$197895[esp+16472]
  0006a	52		 push	 edx
  0006b	8d 4c 24 38	 lea	 ecx, DWORD PTR _ar$[esp+16476]
  0006f	e8 00 00 00 00	 call	 ??5CAr@@QAEAAV0@AAK@Z	; CAr::operator>>

; 30   : 				
; 31   : 				LoadHousingInfo( dwPlayerId, dwCompletionKey );

  00074	8b 84 24 60 40
	00 00		 mov	 eax, DWORD PTR _dwCompletionKey$[esp+16468]
  0007b	8b 4c 24 0c	 mov	 ecx, DWORD PTR _dwPlayerId$197895[esp+16472]
  0007f	50		 push	 eax
  00080	51		 push	 ecx
  00081	8b cb		 mov	 ecx, ebx
  00083	e8 00 00 00 00	 call	 ?LoadHousingInfo@CHousingDBCtrl@@AAEXKK@Z ; CHousingDBCtrl::LoadHousingInfo

; 32   : 			}
; 33   : 			break;

  00088	e9 28 01 00 00	 jmp	 $L197909
$L197896:

; 34   : 
; 35   : 		case QUERY_HOUSING_INSERT_LIST:
; 36   : 			{
; 37   : 				DWORD dwPlayerId, dwItemId;
; 38   : 				ar >> dwPlayerId >> dwItemId;

  0008d	8d 54 24 0c	 lea	 edx, DWORD PTR _dwItemId$197898[esp+16472]
  00091	52		 push	 edx
  00092	8d 44 24 14	 lea	 eax, DWORD PTR _dwPlayerId$197897[esp+16476]
  00096	50		 push	 eax
  00097	8d 4c 24 3c	 lea	 ecx, DWORD PTR _ar$[esp+16480]
  0009b	e8 00 00 00 00	 call	 ??5CAr@@QAEAAV0@AAK@Z	; CAr::operator>>
  000a0	8b c8		 mov	 ecx, eax
  000a2	e8 00 00 00 00	 call	 ??5CAr@@QAEAAV0@AAK@Z	; CAr::operator>>

; 39   : 				
; 40   : 				InsertFurnitureList( dwPlayerId, dwItemId, dwCompletionKey );

  000a7	8b 8c 24 60 40
	00 00		 mov	 ecx, DWORD PTR _dwCompletionKey$[esp+16468]
  000ae	8b 54 24 0c	 mov	 edx, DWORD PTR _dwItemId$197898[esp+16472]
  000b2	8b 44 24 10	 mov	 eax, DWORD PTR _dwPlayerId$197897[esp+16472]
  000b6	51		 push	 ecx
  000b7	52		 push	 edx
  000b8	50		 push	 eax
  000b9	8b cb		 mov	 ecx, ebx
  000bb	e8 00 00 00 00	 call	 ?InsertFurnitureList@CHousingDBCtrl@@AAEXKKK@Z ; CHousingDBCtrl::InsertFurnitureList

; 41   : 			}
; 42   : 			break;

  000c0	e9 f0 00 00 00	 jmp	 $L197909
$L197899:

; 43   : 			
; 44   : 		case QUERY_HOUSING_SETUP_FURNITURE:
; 45   : 			{
; 46   : 				DWORD dwPlayerId;
; 47   : 				HOUSINGINFO housingInfo;
; 48   : 
; 49   : 				ar >> dwPlayerId;

  000c5	8d 4c 24 10	 lea	 ecx, DWORD PTR _dwPlayerId$197900[esp+16472]
  000c9	51		 push	 ecx
  000ca	8d 4c 24 38	 lea	 ecx, DWORD PTR _ar$[esp+16476]
  000ce	c7 44 24 1c ff
	ff ff ff	 mov	 DWORD PTR _housingInfo$197901[esp+16476], -1
  000d6	89 7c 24 20	 mov	 DWORD PTR _housingInfo$197901[esp+16480], edi
  000da	89 7c 24 24	 mov	 DWORD PTR _housingInfo$197901[esp+16484], edi
  000de	c7 44 24 28 00
	00 00 00	 mov	 DWORD PTR _housingInfo$197901[esp+16488], 0
  000e6	c7 44 24 2c 00
	00 00 00	 mov	 DWORD PTR _housingInfo$197901[esp+16492], 0
  000ee	c7 44 24 30 00
	00 00 00	 mov	 DWORD PTR _housingInfo$197901[esp+16496], 0
  000f6	c7 44 24 34 00
	00 00 00	 mov	 DWORD PTR _housingInfo$197901[esp+16500], 0
  000fe	e8 00 00 00 00	 call	 ??5CAr@@QAEAAV0@AAK@Z	; CAr::operator>>

; 50   : 				housingInfo.Serialize( ar );

  00103	8d 54 24 34	 lea	 edx, DWORD PTR _ar$[esp+16472]
  00107	52		 push	 edx
  00108	8d 4c 24 1c	 lea	 ecx, DWORD PTR _housingInfo$197901[esp+16476]
  0010c	e8 00 00 00 00	 call	 ?Serialize@HOUSINGINFO@@QAEXAAVCAr@@@Z ; HOUSINGINFO::Serialize

; 51   : 
; 52   : 				SetupFurniture( dwPlayerId, housingInfo, dwCompletionKey );

  00111	8b 84 24 60 40
	00 00		 mov	 eax, DWORD PTR _dwCompletionKey$[esp+16468]
  00118	50		 push	 eax
  00119	83 ec 1c	 sub	 esp, 28			; 0000001cH
  0011c	8b fc		 mov	 edi, esp
  0011e	b9 07 00 00 00	 mov	 ecx, 7
  00123	8d 74 24 38	 lea	 esi, DWORD PTR _housingInfo$197901[esp+16504]
  00127	f3 a5		 rep movsd
  00129	8b 4c 24 30	 mov	 ecx, DWORD PTR _dwPlayerId$197900[esp+16504]
  0012d	51		 push	 ecx
  0012e	8b cb		 mov	 ecx, ebx
  00130	e8 00 00 00 00	 call	 ?SetupFurniture@CHousingDBCtrl@@AAEXKUHOUSINGINFO@@K@Z ; CHousingDBCtrl::SetupFurniture

; 53   : 			}
; 54   : 			break;

  00135	eb 7e		 jmp	 SHORT $L197909
$L197902:

; 55   : 
; 56   : 		case QUERY_HOUSING_SET_VISITALLOW:
; 57   : 			{
; 58   : 				DWORD dwPlayerId, dwTargetId;
; 59   : 				BOOL bAllow;
; 60   : 
; 61   : 				ar >> dwPlayerId >> dwTargetId >> bAllow;

  00137	8d 54 24 10	 lea	 edx, DWORD PTR _bAllow$197905[esp+16472]
  0013b	52		 push	 edx
  0013c	8d 44 24 10	 lea	 eax, DWORD PTR _dwTargetId$197904[esp+16476]
  00140	50		 push	 eax
  00141	8d 4c 24 1c	 lea	 ecx, DWORD PTR _dwPlayerId$197903[esp+16480]
  00145	51		 push	 ecx
  00146	8d 4c 24 40	 lea	 ecx, DWORD PTR _ar$[esp+16484]
  0014a	e8 00 00 00 00	 call	 ??5CAr@@QAEAAV0@AAK@Z	; CAr::operator>>
  0014f	8b c8		 mov	 ecx, eax
  00151	e8 00 00 00 00	 call	 ??5CAr@@QAEAAV0@AAK@Z	; CAr::operator>>
  00156	8b c8		 mov	 ecx, eax
  00158	e8 00 00 00 00	 call	 ??5CAr@@QAEAAV0@AAH@Z	; CAr::operator>>

; 62   : 
; 63   : 				SetVisitAllow( dwPlayerId, dwTargetId, bAllow, dwCompletionKey );

  0015d	8b 94 24 60 40
	00 00		 mov	 edx, DWORD PTR _dwCompletionKey$[esp+16468]
  00164	8b 44 24 10	 mov	 eax, DWORD PTR _bAllow$197905[esp+16472]
  00168	8b 4c 24 0c	 mov	 ecx, DWORD PTR _dwTargetId$197904[esp+16472]
  0016c	52		 push	 edx
  0016d	8b 54 24 18	 mov	 edx, DWORD PTR _dwPlayerId$197903[esp+16476]
  00171	50		 push	 eax
  00172	51		 push	 ecx
  00173	52		 push	 edx
  00174	8b cb		 mov	 ecx, ebx
  00176	e8 00 00 00 00	 call	 ?SetVisitAllow@CHousingDBCtrl@@AAEXKKHK@Z ; CHousingDBCtrl::SetVisitAllow

; 64   : 			}
; 65   : 			break;

  0017b	eb 38		 jmp	 SHORT $L197909
$L197906:

; 66   : 
; 67   : 		case QUERY_HOUSING_GM_REMOVEALL:
; 68   : 			{
; 69   : 				DWORD dwPlayerId;
; 70   : 				ar >> dwPlayerId;

  0017d	8d 44 24 14	 lea	 eax, DWORD PTR _dwPlayerId$197907[esp+16472]
  00181	50		 push	 eax
  00182	8d 4c 24 38	 lea	 ecx, DWORD PTR _ar$[esp+16476]
  00186	e8 00 00 00 00	 call	 ??5CAr@@QAEAAV0@AAK@Z	; CAr::operator>>

; 71   : 				CHousing* pHousing = CHousingMng::GetInstance()->GetHousing( dwPlayerId );

  0018b	8b 4c 24 14	 mov	 ecx, DWORD PTR _dwPlayerId$197907[esp+16472]
  0018f	51		 push	 ecx
  00190	e8 00 00 00 00	 call	 ?GetInstance@CHousingMng@@SAPAV1@XZ ; CHousingMng::GetInstance
  00195	8b c8		 mov	 ecx, eax
  00197	e8 00 00 00 00	 call	 ?GetHousing@CHousingMng@@QAEPAVCHousing@@K@Z ; CHousingMng::GetHousing
  0019c	8b f0		 mov	 esi, eax

; 72   : 				if( pHousing )

  0019e	3b f7		 cmp	 esi, edi
  001a0	74 13		 je	 SHORT $L197909

; 73   : 					pHousing->ProcessExpiredFurniture( time_null(), TRUE );

  001a2	6a 01		 push	 1
  001a4	57		 push	 edi
  001a5	e8 00 00 00 00	 call	 _time
  001aa	83 c4 04	 add	 esp, 4
  001ad	50		 push	 eax
  001ae	8b ce		 mov	 ecx, esi
  001b0	e8 00 00 00 00	 call	 ?ProcessExpiredFurniture@CHousing@@QAEXJH@Z ; CHousing::ProcessExpiredFurniture
$L197909:

; 74   : 			}
; 75   : 			break;
; 76   : 	}
; 77   : 
; 78   : }

  001b5	8d 4c 24 34	 lea	 ecx, DWORD PTR _ar$[esp+16472]
  001b9	c7 84 24 54 40
	00 00 ff ff ff
	ff		 mov	 DWORD PTR __$EHRec$[esp+16480], -1
  001c4	e8 00 00 00 00	 call	 ??1CAr@@QAE@XZ		; CAr::~CAr
  001c9	8b 8c 24 4c 40
	00 00		 mov	 ecx, DWORD PTR __$EHRec$[esp+16472]
  001d0	5f		 pop	 edi
  001d1	64 89 0d 00 00
	00 00		 mov	 DWORD PTR fs:__except_list, ecx
  001d8	8b 8c 24 44 40
	00 00		 mov	 ecx, DWORD PTR __$ArrayPad$[esp+16468]
  001df	5e		 pop	 esi
  001e0	5b		 pop	 ebx
  001e1	33 cc		 xor	 ecx, esp
  001e3	e8 00 00 00 00	 call	 @__security_check_cookie@4
  001e8	81 c4 4c 40 00
	00		 add	 esp, 16460		; 0000404cH
  001ee	c2 08 00	 ret	 8
  001f1	8d 49 00	 npad	 3
$L199042:
  001f4	00 00 00 00	 DD	 $L197894
  001f8	00 00 00 00	 DD	 $L197896
  001fc	00 00 00 00	 DD	 $L197899
  00200	00 00 00 00	 DD	 $L197902
  00204	00 00 00 00	 DD	 $L197906
_TEXT	ENDS
;	COMDAT text$x
text$x	SEGMENT
$L199020:
  00000	8d 8d dc bf ff
	ff		 lea	 ecx, DWORD PTR _ar$[ebp]
  00006	e9 00 00 00 00	 jmp	 ??1CAr@@QAE@XZ		; CAr::~CAr
__ehhandler$?Handler@CHousingDBCtrl@@UAEXPAUtagDB_OVERLAPPED_PLUS@@K@Z:
  0000b	b8 00 00 00 00	 mov	 eax, OFFSET FLAT:$T199036
  00010	e9 00 00 00 00	 jmp	 ___CxxFrameHandler
text$x	ENDS
?Handler@CHousingDBCtrl@@UAEXPAUtagDB_OVERLAPPED_PLUS@@K@Z ENDP ; CHousingDBCtrl::Handler
; Function compile flags: /Ogty
;	COMDAT _$E2
text$yd	SEGMENT
_$E2	PROC NEAR					; COMDAT
  00000	b9 00 00 00 00	 mov	 ecx, OFFSET FLAT:?sHousingDBMng@?1??GetInstance@CHousingDBMng@@SAPAV2@XZ@4V2@A
  00005	e9 00 00 00 00	 jmp	 ??1CHousingDBMng@@QAE@XZ ; CHousingDBMng::~CHousingDBMng
_$E2	ENDP
text$yd	ENDS
END
