; Listing generated by Microsoft (R) Optimizing Compiler Version 13.10.6030 

	TITLE	\Documents and Settings\test\Mes documents\Source\Virtuos_v17\Build\Program\_Common\langman.cpp
	.386P
include listing.inc
if @Version gt 510
.model FLAT
else
_TEXT	SEGMENT PARA USE32 PUBLIC 'CODE'
_TEXT	ENDS
_DATA	SEGMENT DWORD USE32 PUBLIC 'DATA'
_DATA	ENDS
CONST	SEGMENT DWORD USE32 PUBLIC 'CONST'
CONST	ENDS
_BSS	SEGMENT DWORD USE32 PUBLIC 'BSS'
_BSS	ENDS
$$SYMBOLS	SEGMENT BYTE USE32 'DEBSYM'
$$SYMBOLS	ENDS
_TLS	SEGMENT DWORD USE32 PUBLIC 'TLS'
_TLS	ENDS
text$yd	SEGMENT PARA USE32 PUBLIC 'CODE'
text$yd	ENDS
xdata$x	SEGMENT DWORD USE32 PUBLIC 'CONST'
xdata$x	ENDS
;	COMDAT ??0_LANG_DATA@@QAE@XZ
_TEXT	SEGMENT PARA USE32 PUBLIC 'CODE'
_TEXT	ENDS
;	COMDAT ??0CLangMan@@QAE@XZ
_TEXT	SEGMENT PARA USE32 PUBLIC 'CODE'
_TEXT	ENDS
;	COMDAT ??_GCLangMan@@UAEPAXI@Z
_TEXT	SEGMENT PARA USE32 PUBLIC 'CODE'
_TEXT	ENDS
;	COMDAT ??_H@YGXPAXIHP6EPAX0@Z@Z
_TEXT	SEGMENT PARA USE32 PUBLIC 'CODE'
_TEXT	ENDS
;	COMDAT ??1CLangMan@@UAE@XZ
_TEXT	SEGMENT PARA USE32 PUBLIC 'CODE'
_TEXT	ENDS
;	COMDAT ?Load@CLangMan@@QAEHPBD@Z
_TEXT	SEGMENT PARA USE32 PUBLIC 'CODE'
_TEXT	ENDS
;	COMDAT ?GetLangData@CLangMan@@QAEPAU_LANG_DATA@@K@Z
_TEXT	SEGMENT PARA USE32 PUBLIC 'CODE'
_TEXT	ENDS
;	COMDAT ?GetInstance@CLangMan@@SAPAV1@XZ
_TEXT	SEGMENT PARA USE32 PUBLIC 'CODE'
_TEXT	ENDS
;	COMDAT _$E2
text$yd	SEGMENT PARA USE32 PUBLIC 'CODE'
text$yd	ENDS
;	COMDAT ?compare@?$basic_string@DU?$char_traits@D@std@@V?$allocator@D@2@@std@@QBEHABV12@@Z
_TEXT	SEGMENT PARA USE32 PUBLIC 'CODE'
_TEXT	ENDS
;	COMDAT ?compare@?$basic_string@DU?$char_traits@D@std@@V?$allocator@D@2@@std@@QBEHIIPBDI@Z
_TEXT	SEGMENT PARA USE32 PUBLIC 'CODE'
_TEXT	ENDS
;	COMDAT ??$_Iter_cat@Viterator@?$_Tree@V?$_Tmap_traits@KU_Friend@@U?$less@K@std@@V?$allocator@U?$pair@$$CBKU_Friend@@@std@@@3@$0A@@std@@@std@@@std@@YA?AUbidirectional_iterator_tag@0@ABViterator@?$_Tree@V?$_Tmap_traits@KU_Friend@@U?$less@K@std@@V?$allocator@U?$pair@$$CBKU_Friend@@@std@@@3@$0A@@std@@@0@@Z
_TEXT	SEGMENT PARA USE32 PUBLIC 'CODE'
_TEXT	ENDS
;	COMDAT ??$_Distance2@Viterator@?$_Tree@V?$_Tmap_traits@KU_Friend@@U?$less@K@std@@V?$allocator@U?$pair@$$CBKU_Friend@@@std@@@3@$0A@@std@@@std@@I@std@@YAXViterator@?$_Tree@V?$_Tmap_traits@KU_Friend@@U?$less@K@std@@V?$allocator@U?$pair@$$CBKU_Friend@@@std@@@3@$0A@@std@@@0@0AAIUbidirectional_iterator_tag@0@@Z
_TEXT	SEGMENT PARA USE32 PUBLIC 'CODE'
_TEXT	ENDS
;	COMDAT ??$_Copy_opt@PAJPAJ@std@@YAPAJPAJ00U_Scalar_ptr_iterator_tag@0@@Z
_TEXT	SEGMENT PARA USE32 PUBLIC 'CODE'
_TEXT	ENDS
;	COMDAT ??$_Uninitialized_copy@PAJPAJV?$allocator@J@std@@@std@@YAPAJPAJ00AAV?$allocator@J@0@@Z
_TEXT	SEGMENT PARA USE32 PUBLIC 'CODE'
_TEXT	ENDS
;	COMDAT ??$_Copy_backward_opt@PAJPAJ@std@@YAPAJPAJ00U_Scalar_ptr_iterator_tag@0@@Z
_TEXT	SEGMENT PARA USE32 PUBLIC 'CODE'
_TEXT	ENDS
;	COMDAT ??$_Ptr_cat@PAUtagDROPITEM@@PAU1@@std@@YA?AU_Nonscalar_ptr_iterator_tag@0@AAPAUtagDROPITEM@@0@Z
_TEXT	SEGMENT PARA USE32 PUBLIC 'CODE'
_TEXT	ENDS
;	COMDAT ??$_Destroy_range@UtagDROPITEM@@V?$allocator@UtagDROPITEM@@@std@@@std@@YAXPAUtagDROPITEM@@0AAV?$allocator@UtagDROPITEM@@@0@U_Nonscalar_ptr_iterator_tag@0@@Z
_TEXT	SEGMENT PARA USE32 PUBLIC 'CODE'
_TEXT	ENDS
;	COMDAT ??$_Destroy_range@KV?$allocator@K@std@@@std@@YAXPAK0AAV?$allocator@K@0@U_Scalar_ptr_iterator_tag@0@@Z
_TEXT	SEGMENT PARA USE32 PUBLIC 'CODE'
_TEXT	ENDS
;	COMDAT ??$_Destroy_range@JV?$allocator@J@std@@@std@@YAXPAJ0AAV?$allocator@J@0@U_Scalar_ptr_iterator_tag@0@@Z
_TEXT	SEGMENT PARA USE32 PUBLIC 'CODE'
_TEXT	ENDS
;	COMDAT ??$_Uninit_fill_n@JIJ@std@@YAXPAJIABJAAV?$allocator@J@0@U_Scalar_ptr_iterator_tag@0@@Z
_TEXT	SEGMENT PARA USE32 PUBLIC 'CODE'
_TEXT	ENDS
;	COMDAT ?destroy@?$allocator@UtagDROPITEM@@@std@@QAEXPAUtagDROPITEM@@@Z
_TEXT	SEGMENT PARA USE32 PUBLIC 'CODE'
_TEXT	ENDS
;	COMDAT ??$_Uninit_copy@JJ@std@@YAPAJPAJ00AAV?$allocator@J@0@U_Scalar_ptr_iterator_tag@0@@Z
_TEXT	SEGMENT PARA USE32 PUBLIC 'CODE'
_TEXT	ENDS
;	COMDAT ??$fill_n@PAJIJ@std@@YAXPAJIABJ@Z
_TEXT	SEGMENT PARA USE32 PUBLIC 'CODE'
_TEXT	ENDS
;	COMDAT ??$_Destroy@UtagDROPITEM@@@std@@YAXPAUtagDROPITEM@@@Z
_TEXT	SEGMENT PARA USE32 PUBLIC 'CODE'
_TEXT	ENDS
;	COMDAT ?_Ptr_cat@std@@YA?AU_Scalar_ptr_iterator_tag@1@PAJ0@Z
_TEXT	SEGMENT PARA USE32 PUBLIC 'CODE'
_TEXT	ENDS
;	COMDAT ??9const_iterator@?$_Tree@V?$_Tmap_traits@KU_Friend@@U?$less@K@std@@V?$allocator@U?$pair@$$CBKU_Friend@@@std@@@3@$0A@@std@@@std@@QBE_NABV012@@Z
_TEXT	SEGMENT PARA USE32 PUBLIC 'CODE'
_TEXT	ENDS
;	COMDAT ??8const_iterator@?$_Tree@V?$_Tmap_traits@KU_Friend@@U?$less@K@std@@V?$allocator@U?$pair@$$CBKU_Friend@@@std@@@3@$0A@@std@@@std@@QBE_NABV012@@Z
_TEXT	SEGMENT PARA USE32 PUBLIC 'CODE'
_TEXT	ENDS
;	COMDAT ??Eiterator@?$_Tree@V?$_Tmap_traits@KU_Friend@@U?$less@K@std@@V?$allocator@U?$pair@$$CBKU_Friend@@@std@@@3@$0A@@std@@@std@@QAEAAV012@XZ
_TEXT	SEGMENT PARA USE32 PUBLIC 'CODE'
_TEXT	ENDS
;	COMDAT ??Econst_iterator@?$_Tree@V?$_Tmap_traits@KU_Friend@@U?$less@K@std@@V?$allocator@U?$pair@$$CBKU_Friend@@@std@@@3@$0A@@std@@@std@@QAEAAV012@XZ
_TEXT	SEGMENT PARA USE32 PUBLIC 'CODE'
_TEXT	ENDS
;	COMDAT ?_Inc@const_iterator@?$_Tree@V?$_Tmap_traits@KU_Friend@@U?$less@K@std@@V?$allocator@U?$pair@$$CBKU_Friend@@@std@@@3@$0A@@std@@@std@@QAEXXZ
_TEXT	SEGMENT PARA USE32 PUBLIC 'CODE'
_TEXT	ENDS
;	COMDAT ?_Min@?$_Tree@V?$_Tmap_traits@KU_Friend@@U?$less@K@std@@V?$allocator@U?$pair@$$CBKU_Friend@@@std@@@3@$0A@@std@@@std@@KAPAU_Node@?$_Tree_nod@V?$_Tmap_traits@KU_Friend@@U?$less@K@std@@V?$allocator@U?$pair@$$CBKU_Friend@@@std@@@3@$0A@@std@@@2@PAU342@@Z
_TEXT	SEGMENT PARA USE32 PUBLIC 'CODE'
_TEXT	ENDS
;	COMDAT ?_Left@?$_Tree@V?$_Tmap_traits@KU_Friend@@U?$less@K@std@@V?$allocator@U?$pair@$$CBKU_Friend@@@std@@@3@$0A@@std@@@std@@KAAAPAU_Node@?$_Tree_nod@V?$_Tmap_traits@KU_Friend@@U?$less@K@std@@V?$allocator@U?$pair@$$CBKU_Friend@@@std@@@3@$0A@@std@@@2@PAU342@@Z
_TEXT	SEGMENT PARA USE32 PUBLIC 'CODE'
_TEXT	ENDS
;	COMDAT ?_Isnil@?$_Tree@V?$_Tmap_traits@KU_Friend@@U?$less@K@std@@V?$allocator@U?$pair@$$CBKU_Friend@@@std@@@3@$0A@@std@@@std@@KAAADPAU_Node@?$_Tree_nod@V?$_Tmap_traits@KU_Friend@@U?$less@K@std@@V?$allocator@U?$pair@$$CBKU_Friend@@@std@@@3@$0A@@std@@@2@@Z
_TEXT	SEGMENT PARA USE32 PUBLIC 'CODE'
_TEXT	ENDS
;	COMDAT ?_Parent@?$_Tree@V?$_Tmap_traits@KU_Friend@@U?$less@K@std@@V?$allocator@U?$pair@$$CBKU_Friend@@@std@@@3@$0A@@std@@@std@@KAAAPAU_Node@?$_Tree_nod@V?$_Tmap_traits@KU_Friend@@U?$less@K@std@@V?$allocator@U?$pair@$$CBKU_Friend@@@std@@@3@$0A@@std@@@2@PAU342@@Z
_TEXT	SEGMENT PARA USE32 PUBLIC 'CODE'
_TEXT	ENDS
;	COMDAT ?_Right@?$_Tree@V?$_Tmap_traits@KU_Friend@@U?$less@K@std@@V?$allocator@U?$pair@$$CBKU_Friend@@@std@@@3@$0A@@std@@@std@@KAAAPAU_Node@?$_Tree_nod@V?$_Tmap_traits@KU_Friend@@U?$less@K@std@@V?$allocator@U?$pair@$$CBKU_Friend@@@std@@@3@$0A@@std@@@2@PAU342@@Z
_TEXT	SEGMENT PARA USE32 PUBLIC 'CODE'
_TEXT	ENDS
;	COMDAT ?_Psave@?$_Facetptr@V?$ctype@G@std@@@std@@2PBVfacet@locale@2@B
_DATA	SEGMENT DWORD USE32 PUBLIC 'DATA'
_DATA	ENDS
;	COMDAT ?_Psave@?$_Facetptr@V?$ctype@D@std@@@std@@2PBVfacet@locale@2@B
_DATA	SEGMENT DWORD USE32 PUBLIC 'DATA'
_DATA	ENDS
;	COMDAT ?compare@?$char_traits@D@std@@SAHPBD0I@Z
_TEXT	SEGMENT PARA USE32 PUBLIC 'CODE'
_TEXT	ENDS
;	COMDAT ?_Myptr@?$basic_string@DU?$char_traits@D@std@@V?$allocator@D@2@@std@@QBEPBDXZ
_TEXT	SEGMENT PARA USE32 PUBLIC 'CODE'
_TEXT	ENDS
;	COMDAT ?size@?$basic_string@DU?$char_traits@D@std@@V?$allocator@D@2@@std@@QBEIXZ
_TEXT	SEGMENT PARA USE32 PUBLIC 'CODE'
_TEXT	ENDS
;	COMDAT ?sLocal@?1??GetInstance@CLangMan@@SAPAV2@XZ@4V2@A
_BSS	SEGMENT DWORD USE32 PUBLIC 'BSS'
_BSS	ENDS
;	COMDAT ?$S1@?1??GetInstance@CLangMan@@SAPAV2@XZ@4IA
_BSS	SEGMENT DWORD USE32 PUBLIC 'BSS'
_BSS	ENDS
;	COMDAT ??_7CLangMan@@6B@
CONST	SEGMENT DWORD USE32 PUBLIC 'CONST'
CONST	ENDS
sxdata	SEGMENT DWORD USE32 'SXDATA'
sxdata	ENDS
FLAT	GROUP _DATA, CONST, _BSS
	ASSUME	CS: FLAT, DS: FLAT, SS: FLAT
endif

INCLUDELIB LIBCMT
INCLUDELIB OLDNAMES

PUBLIC	??0_LANG_DATA@@QAE@XZ				; _LANG_DATA::_LANG_DATA
; Function compile flags: /Ogty
; File c:\documents and settings\test\mes documents\source\virtuos_v17\build\program\_common\langman.h
;	COMDAT ??0_LANG_DATA@@QAE@XZ
_TEXT	SEGMENT
??0_LANG_DATA@@QAE@XZ PROC NEAR				; _LANG_DATA::_LANG_DATA, COMDAT
; _this$ = ecx

; 47   : 	_LANG_DATA()

  00000	8b d1		 mov	 edx, ecx

; 48   : 		{
; 49   : 			szPath[0]	= '\0';

  00002	32 c0		 xor	 al, al
  00004	57		 push	 edi
  00005	88 02		 mov	 BYTE PTR [edx], al

; 50   : 			szFileName[0]	= '\0';

  00007	88 82 04 01 00
	00		 mov	 BYTE PTR [edx+260], al

; 51   : 			szTitle[0]	= '\0';

  0000d	88 82 08 02 00
	00		 mov	 BYTE PTR [edx+520], al

; 52   : 			memset( &font, 0, sizeof(NEUZFONT) );

  00013	33 c0		 xor	 eax, eax
  00015	b9 71 00 00 00	 mov	 ecx, 113		; 00000071H
  0001a	8d ba 6c 02 00
	00		 lea	 edi, DWORD PTR [edx+620]
  00020	f3 ab		 rep stosd

; 53   : 		}

  00022	8b c2		 mov	 eax, edx
  00024	5f		 pop	 edi
  00025	c3		 ret	 0
??0_LANG_DATA@@QAE@XZ ENDP				; _LANG_DATA::_LANG_DATA
_TEXT	ENDS
PUBLIC	??_H@YGXPAXIHP6EPAX0@Z@Z			; `vector constructor iterator'
; Function compile flags: /Ogty
;	COMDAT ??_H@YGXPAXIHP6EPAX0@Z@Z
_TEXT	SEGMENT
___t$ = 8						; size = 4
___s$ = 12						; size = 4
___n$ = 16						; size = 4
___f$ = 20						; size = 4
??_H@YGXPAXIHP6EPAX0@Z@Z PROC NEAR			; `vector constructor iterator', COMDAT
  00000	8b 44 24 0c	 mov	 eax, DWORD PTR ___n$[esp-4]
  00004	48		 dec	 eax
  00005	78 26		 js	 SHORT $L186820
  00007	53		 push	 ebx
  00008	8b 5c 24 14	 mov	 ebx, DWORD PTR ___f$[esp]
  0000c	55		 push	 ebp
  0000d	8b 6c 24 10	 mov	 ebp, DWORD PTR ___s$[esp+4]
  00011	56		 push	 esi
  00012	8b 74 24 10	 mov	 esi, DWORD PTR ___t$[esp+8]
  00016	57		 push	 edi
  00017	8d 78 01	 lea	 edi, DWORD PTR [eax+1]
  0001a	8d 9b 00 00 00
	00		 npad	 6
$L186819:
  00020	8b ce		 mov	 ecx, esi
  00022	ff d3		 call	 ebx
  00024	03 f5		 add	 esi, ebp
  00026	4f		 dec	 edi
  00027	75 f7		 jne	 SHORT $L186819
  00029	5f		 pop	 edi
  0002a	5e		 pop	 esi
  0002b	5d		 pop	 ebp
  0002c	5b		 pop	 ebx
$L186820:
  0002d	c2 10 00	 ret	 16			; 00000010H
??_H@YGXPAXIHP6EPAX0@Z@Z ENDP				; `vector constructor iterator'
_TEXT	ENDS
PUBLIC	??1CLangMan@@UAE@XZ				; CLangMan::~CLangMan
PUBLIC	??_7CLangMan@@6B@				; CLangMan::`vftable'
PUBLIC	??_GCLangMan@@UAEPAXI@Z				; CLangMan::`scalar deleting destructor'
EXTRN	??_ECLangMan@@UAEPAXI@Z:NEAR			; CLangMan::`vector deleting destructor'
;	COMDAT ??_7CLangMan@@6B@
; File c:\documents and settings\test\mes documents\source\virtuos_v17\build\program\_common\langman.cpp
CONST	SEGMENT
??_7CLangMan@@6B@ DD FLAT:??_ECLangMan@@UAEPAXI@Z	; CLangMan::`vftable'
; Function compile flags: /Ogty
CONST	ENDS
;	COMDAT ??1CLangMan@@UAE@XZ
_TEXT	SEGMENT
??1CLangMan@@UAE@XZ PROC NEAR				; CLangMan::~CLangMan, COMDAT
; _this$ = ecx

; 11   : {

  00000	c7 01 00 00 00
	00		 mov	 DWORD PTR [ecx], OFFSET FLAT:??_7CLangMan@@6B@

; 12   : }

  00006	c3		 ret	 0
??1CLangMan@@UAE@XZ ENDP				; CLangMan::~CLangMan
_TEXT	ENDS
PUBLIC	?Load@CLangMan@@QAEHPBD@Z			; CLangMan::Load
EXTRN	??0CScanner@@QAE@H@Z:NEAR			; CScanner::CScanner
EXTRN	??1CScanner@@UAE@XZ:NEAR			; CScanner::~CScanner
EXTRN	?GetToken@CScanner@@UAEHH@Z:NEAR		; CScanner::GetToken
EXTRN	?Load@CScanner@@QAEHPBDH@Z:NEAR			; CScanner::Load
EXTRN	?GetNumber@CScanner@@QAEHH@Z:NEAR		; CScanner::GetNumber
EXTRN	__imp__lstrcpyA@8:NEAR
EXTRN	__except_list:DWORD
EXTRN	___security_cookie:DWORD
EXTRN	@__security_check_cookie@4:NEAR
EXTRN	___CxxFrameHandler:NEAR
;	COMDAT xdata$x
xdata$x	SEGMENT
$T187037 DD	0ffffffffH
	DD	FLAT:$L187022
$T187028 DD	019930520H
	DD	01H
	DD	FLAT:$T187037
	DD	2 DUP(00H)
	DD	2 DUP(00H)
; Function compile flags: /Ogty
xdata$x	ENDS
;	COMDAT ?Load@CLangMan@@QAEHPBD@Z
_TEXT	SEGMENT
_g$ = -2136						; size = 4
$T187023 = -2132					; size = 4
_s$ = -2128						; size = 2112
__$ArrayPad$ = -16					; size = 4
__$EHRec$ = -12						; size = 12
__$ReturnAddr$ = 4					; size = 4
_lpszFileName$ = 8					; size = 4
?Load@CLangMan@@QAEHPBD@Z PROC NEAR			; CLangMan::Load, COMDAT
; _this$ = ecx

; 15   : {

  00000	6a ff		 push	 -1
  00002	68 00 00 00 00	 push	 __ehhandler$?Load@CLangMan@@QAEHPBD@Z
  00007	64 a1 00 00 00
	00		 mov	 eax, DWORD PTR fs:__except_list
  0000d	50		 push	 eax
  0000e	64 89 25 00 00
	00 00		 mov	 DWORD PTR fs:__except_list, esp
  00015	81 ec 4c 08 00
	00		 sub	 esp, 2124		; 0000084cH
  0001b	a1 00 00 00 00	 mov	 eax, DWORD PTR ___security_cookie
  00020	33 c4		 xor	 eax, esp
  00022	56		 push	 esi
  00023	8b b4 24 60 08
	00 00		 mov	 esi, DWORD PTR _lpszFileName$[esp+2136]
  0002a	89 4c 24 08	 mov	 DWORD PTR $T187023[esp+2140], ecx

; 16   : 	CScanner	s;

  0002e	6a 00		 push	 0
  00030	8d 4c 24 10	 lea	 ecx, DWORD PTR _s$[esp+2144]
  00034	89 84 24 50 08
	00 00		 mov	 DWORD PTR __$ArrayPad$[esp+2144], eax
  0003b	e8 00 00 00 00	 call	 ??0CScanner@@QAE@H@Z	; CScanner::CScanner

; 17   : 	if( !s.Load( lpszFileName, TRUE ) ) 

  00040	6a 01		 push	 1
  00042	56		 push	 esi
  00043	8d 4c 24 14	 lea	 ecx, DWORD PTR _s$[esp+2148]
  00047	c7 84 24 60 08
	00 00 00 00 00
	00		 mov	 DWORD PTR __$EHRec$[esp+2156], 0
  00052	e8 00 00 00 00	 call	 ?Load@CScanner@@QAEHPBDH@Z ; CScanner::Load
  00057	85 c0		 test	 eax, eax

; 18   : 		return FALSE;

  00059	8d 4c 24 0c	 lea	 ecx, DWORD PTR _s$[esp+2140]
  0005d	75 17		 jne	 SHORT $L186830
  0005f	c7 84 24 58 08
	00 00 ff ff ff
	ff		 mov	 DWORD PTR __$EHRec$[esp+2148], -1
  0006a	e8 00 00 00 00	 call	 ??1CScanner@@UAE@XZ	; CScanner::~CScanner
  0006f	33 c0		 xor	 eax, eax
  00071	e9 72 04 00 00	 jmp	 $L186828
$L186830:

; 19   : 	DWORD	dwLang	= s.GetNumber();		// dwLang

  00076	6a 00		 push	 0
  00078	e8 00 00 00 00	 call	 ?GetNumber@CScanner@@QAEHH@Z ; CScanner::GetNumber

; 20   : 	DWORD a, r, g, b;
; 21   : 	while( s.tok != FINISHED )

  0007d	83 bc 24 38 08
	00 00 15	 cmp	 DWORD PTR _s$[esp+4232], 21 ; 00000015H
  00085	0f 84 44 04 00
	00		 je	 $L186839
  0008b	53		 push	 ebx
  0008c	55		 push	 ebp
  0008d	57		 push	 edi
  0008e	8b 3d 00 00 00
	00		 mov	 edi, DWORD PTR __imp__lstrcpyA@8
  00094	eb 0a 8d a4 24
	00 00 00 00 8d
	49 00		 npad	 12
$L186838:

; 22   : 	{
; 23   : 		ASSERT( dwLang < LANG_MAX );
; 24   : 		PLANG_DATA	pData	= &m_aLangData[dwLang];

  000a0	8b 4c 24 14	 mov	 ecx, DWORD PTR $T187023[esp+2152]
  000a4	69 c0 30 04 00
	00		 imul	 eax, 1072		; 00000430H
  000aa	8d 74 08 04	 lea	 esi, DWORD PTR [eax+ecx+4]

; 25   : 		
; 26   : 		s.GetToken();

  000ae	6a 00		 push	 0
  000b0	8d 4c 24 1c	 lea	 ecx, DWORD PTR _s$[esp+2156]
  000b4	e8 00 00 00 00	 call	 ?GetToken@CScanner@@UAEHH@Z ; CScanner::GetToken

; 27   : 		s.GetToken();	// szPath

  000b9	6a 00		 push	 0
  000bb	8d 4c 24 1c	 lea	 ecx, DWORD PTR _s$[esp+2156]
  000bf	e8 00 00 00 00	 call	 ?GetToken@CScanner@@UAEHH@Z ; CScanner::GetToken

; 28   : 		lstrcpy( pData->szPath, s.token );

  000c4	8b 54 24 3c	 mov	 edx, DWORD PTR _s$[esp+2188]
  000c8	52		 push	 edx
  000c9	56		 push	 esi
  000ca	ff d7		 call	 edi

; 29   : 		s.GetToken();

  000cc	6a 00		 push	 0
  000ce	8d 4c 24 1c	 lea	 ecx, DWORD PTR _s$[esp+2156]
  000d2	e8 00 00 00 00	 call	 ?GetToken@CScanner@@UAEHH@Z ; CScanner::GetToken

; 30   : 
; 31   : 		s.GetToken();	//	szFileName

  000d7	6a 00		 push	 0
  000d9	8d 4c 24 1c	 lea	 ecx, DWORD PTR _s$[esp+2156]
  000dd	e8 00 00 00 00	 call	 ?GetToken@CScanner@@UAEHH@Z ; CScanner::GetToken

; 32   : 		lstrcpy( pData->szFileName, s.token );

  000e2	8b 44 24 3c	 mov	 eax, DWORD PTR _s$[esp+2188]
  000e6	50		 push	 eax
  000e7	8d 8e 04 01 00
	00		 lea	 ecx, DWORD PTR [esi+260]
  000ed	51		 push	 ecx
  000ee	ff d7		 call	 edi

; 33   : 
; 34   : 		s.GetToken();	//	szTitle

  000f0	6a 00		 push	 0
  000f2	8d 4c 24 1c	 lea	 ecx, DWORD PTR _s$[esp+2156]
  000f6	e8 00 00 00 00	 call	 ?GetToken@CScanner@@UAEHH@Z ; CScanner::GetToken

; 35   : 		lstrcpy( pData->szTitle, s.token );

  000fb	8b 54 24 3c	 mov	 edx, DWORD PTR _s$[esp+2188]
  000ff	52		 push	 edx
  00100	8d 86 08 02 00
	00		 lea	 eax, DWORD PTR [esi+520]
  00106	50		 push	 eax
  00107	ff d7		 call	 edi

; 36   : 
; 37   : 		s.GetToken();

  00109	6a 00		 push	 0
  0010b	8d 4c 24 1c	 lea	 ecx, DWORD PTR _s$[esp+2156]
  0010f	e8 00 00 00 00	 call	 ?GetToken@CScanner@@UAEHH@Z ; CScanner::GetToken

; 38   : 		s.GetToken();	//	szFontFirst

  00114	6a 00		 push	 0
  00116	8d 4c 24 1c	 lea	 ecx, DWORD PTR _s$[esp+2156]
  0011a	e8 00 00 00 00	 call	 ?GetToken@CScanner@@UAEHH@Z ; CScanner::GetToken

; 39   : 		lstrcpy( pData->font.lfCaption.szFontFirst, s.token );

  0011f	8b 4c 24 3c	 mov	 ecx, DWORD PTR _s$[esp+2188]
  00123	51		 push	 ecx
  00124	8d 96 6c 02 00
	00		 lea	 edx, DWORD PTR [esi+620]
  0012a	52		 push	 edx
  0012b	ff d7		 call	 edi

; 40   : 		s.GetToken();

  0012d	6a 00		 push	 0
  0012f	8d 4c 24 1c	 lea	 ecx, DWORD PTR _s$[esp+2156]
  00133	e8 00 00 00 00	 call	 ?GetToken@CScanner@@UAEHH@Z ; CScanner::GetToken

; 41   : 
; 42   : 		s.GetToken();

  00138	6a 00		 push	 0
  0013a	8d 4c 24 1c	 lea	 ecx, DWORD PTR _s$[esp+2156]
  0013e	e8 00 00 00 00	 call	 ?GetToken@CScanner@@UAEHH@Z ; CScanner::GetToken

; 43   : 		s.GetToken();	//	szFontSecond

  00143	6a 00		 push	 0
  00145	8d 4c 24 1c	 lea	 ecx, DWORD PTR _s$[esp+2156]
  00149	e8 00 00 00 00	 call	 ?GetToken@CScanner@@UAEHH@Z ; CScanner::GetToken

; 44   : 		lstrcpy( pData->font.lfCaption.szFontSecond, s.token );

  0014e	8b 44 24 3c	 mov	 eax, DWORD PTR _s$[esp+2188]
  00152	50		 push	 eax
  00153	8d 8e 8c 02 00
	00		 lea	 ecx, DWORD PTR [esi+652]
  00159	51		 push	 ecx
  0015a	ff d7		 call	 edi

; 45   : 		s.GetToken();

  0015c	6a 00		 push	 0
  0015e	8d 4c 24 1c	 lea	 ecx, DWORD PTR _s$[esp+2156]
  00162	e8 00 00 00 00	 call	 ?GetToken@CScanner@@UAEHH@Z ; CScanner::GetToken

; 46   : 
; 47   : 		pData->font.lfCaption.nDivTitle	= s.GetNumber();	// nDivTitle

  00167	6a 00		 push	 0
  00169	8d 4c 24 1c	 lea	 ecx, DWORD PTR _s$[esp+2156]
  0016d	e8 00 00 00 00	 call	 ?GetNumber@CScanner@@QAEHH@Z ; CScanner::GetNumber

; 48   : 		pData->font.lfCaption.nDivCaption	= s.GetNumber();	// nDivCaption

  00172	6a 00		 push	 0
  00174	8d 4c 24 1c	 lea	 ecx, DWORD PTR _s$[esp+2156]
  00178	88 86 ac 02 00
	00		 mov	 BYTE PTR [esi+684], al
  0017e	e8 00 00 00 00	 call	 ?GetNumber@CScanner@@QAEHH@Z ; CScanner::GetNumber

; 49   : 		pData->font.fdLang.charset	= s.GetNumber();	// charset

  00183	6a 00		 push	 0
  00185	8d 4c 24 1c	 lea	 ecx, DWORD PTR _s$[esp+2156]
  00189	88 86 ad 02 00
	00		 mov	 BYTE PTR [esi+685], al
  0018f	e8 00 00 00 00	 call	 ?GetNumber@CScanner@@QAEHH@Z ; CScanner::GetNumber

; 50   : 		pData->font.fdLang.wCodePage	= s.GetNumber();	// wCodePage

  00194	6a 00		 push	 0
  00196	8d 4c 24 1c	 lea	 ecx, DWORD PTR _s$[esp+2156]
  0019a	89 86 b0 02 00
	00		 mov	 DWORD PTR [esi+688], eax
  001a0	e8 00 00 00 00	 call	 ?GetNumber@CScanner@@QAEHH@Z ; CScanner::GetNumber

; 51   : 
; 52   : 		s.GetToken();

  001a5	6a 00		 push	 0
  001a7	8d 4c 24 1c	 lea	 ecx, DWORD PTR _s$[esp+2156]
  001ab	66 89 86 b4 02
	00 00		 mov	 WORD PTR [esi+692], ax
  001b2	e8 00 00 00 00	 call	 ?GetToken@CScanner@@UAEHH@Z ; CScanner::GetToken

; 53   : 		s.GetToken();

  001b7	6a 00		 push	 0
  001b9	8d 4c 24 1c	 lea	 ecx, DWORD PTR _s$[esp+2156]
  001bd	e8 00 00 00 00	 call	 ?GetToken@CScanner@@UAEHH@Z ; CScanner::GetToken

; 54   : 		lstrcpy( pData->font.fdLang.faceNT, s.token );	// faceNT

  001c2	8b 54 24 3c	 mov	 edx, DWORD PTR _s$[esp+2188]
  001c6	52		 push	 edx
  001c7	8d 86 b6 02 00
	00		 lea	 eax, DWORD PTR [esi+694]
  001cd	50		 push	 eax
  001ce	ff d7		 call	 edi

; 55   : 		s.GetToken();

  001d0	6a 00		 push	 0
  001d2	8d 4c 24 1c	 lea	 ecx, DWORD PTR _s$[esp+2156]
  001d6	e8 00 00 00 00	 call	 ?GetToken@CScanner@@UAEHH@Z ; CScanner::GetToken

; 56   : 
; 57   : 		s.GetToken();

  001db	6a 00		 push	 0
  001dd	8d 4c 24 1c	 lea	 ecx, DWORD PTR _s$[esp+2156]
  001e1	e8 00 00 00 00	 call	 ?GetToken@CScanner@@UAEHH@Z ; CScanner::GetToken

; 58   : 		s.GetToken();

  001e6	6a 00		 push	 0
  001e8	8d 4c 24 1c	 lea	 ecx, DWORD PTR _s$[esp+2156]
  001ec	e8 00 00 00 00	 call	 ?GetToken@CScanner@@UAEHH@Z ; CScanner::GetToken

; 59   : 		lstrcpy( pData->font.fdLang.face9x, s.token );	// face9x

  001f1	8b 4c 24 3c	 mov	 ecx, DWORD PTR _s$[esp+2188]
  001f5	51		 push	 ecx
  001f6	8d 96 d6 02 00
	00		 lea	 edx, DWORD PTR [esi+726]
  001fc	52		 push	 edx
  001fd	ff d7		 call	 edi

; 60   : 		s.GetToken();

  001ff	6a 00		 push	 0
  00201	8d 4c 24 1c	 lea	 ecx, DWORD PTR _s$[esp+2156]
  00205	e8 00 00 00 00	 call	 ?GetToken@CScanner@@UAEHH@Z ; CScanner::GetToken

; 61   : 
; 62   : 		s.GetToken();

  0020a	6a 00		 push	 0
  0020c	8d 4c 24 1c	 lea	 ecx, DWORD PTR _s$[esp+2156]
  00210	e8 00 00 00 00	 call	 ?GetToken@CScanner@@UAEHH@Z ; CScanner::GetToken

; 63   : 		s.GetToken();	// szFont0

  00215	6a 00		 push	 0
  00217	8d 4c 24 1c	 lea	 ecx, DWORD PTR _s$[esp+2156]
  0021b	e8 00 00 00 00	 call	 ?GetToken@CScanner@@UAEHH@Z ; CScanner::GetToken

; 64   : 		lstrcpy( pData->font.afi[0].szFont, s.token );

  00220	8b 44 24 3c	 mov	 eax, DWORD PTR _s$[esp+2188]
  00224	50		 push	 eax
  00225	8d 8e f8 02 00
	00		 lea	 ecx, DWORD PTR [esi+760]
  0022b	51		 push	 ecx
  0022c	ff d7		 call	 edi

; 65   : 		s.GetToken();

  0022e	6a 00		 push	 0
  00230	8d 4c 24 1c	 lea	 ecx, DWORD PTR _s$[esp+2156]
  00234	e8 00 00 00 00	 call	 ?GetToken@CScanner@@UAEHH@Z ; CScanner::GetToken

; 66   : 
; 67   : 		s.GetToken();

  00239	6a 00		 push	 0
  0023b	8d 4c 24 1c	 lea	 ecx, DWORD PTR _s$[esp+2156]
  0023f	e8 00 00 00 00	 call	 ?GetToken@CScanner@@UAEHH@Z ; CScanner::GetToken

; 68   : 		s.GetToken();	// szFont1

  00244	6a 00		 push	 0
  00246	8d 4c 24 1c	 lea	 ecx, DWORD PTR _s$[esp+2156]
  0024a	e8 00 00 00 00	 call	 ?GetToken@CScanner@@UAEHH@Z ; CScanner::GetToken

; 69   : 		lstrcpy( pData->font.afi[1].szFont, s.token );

  0024f	8b 54 24 3c	 mov	 edx, DWORD PTR _s$[esp+2188]
  00253	52		 push	 edx
  00254	8d 86 2c 03 00
	00		 lea	 eax, DWORD PTR [esi+812]
  0025a	50		 push	 eax
  0025b	ff d7		 call	 edi

; 70   : 		s.GetToken();

  0025d	6a 00		 push	 0
  0025f	8d 4c 24 1c	 lea	 ecx, DWORD PTR _s$[esp+2156]
  00263	e8 00 00 00 00	 call	 ?GetToken@CScanner@@UAEHH@Z ; CScanner::GetToken

; 71   : 
; 72   : 		s.GetToken();

  00268	6a 00		 push	 0
  0026a	8d 4c 24 1c	 lea	 ecx, DWORD PTR _s$[esp+2156]
  0026e	e8 00 00 00 00	 call	 ?GetToken@CScanner@@UAEHH@Z ; CScanner::GetToken

; 73   : 		s.GetToken();	// szFont2

  00273	6a 00		 push	 0
  00275	8d 4c 24 1c	 lea	 ecx, DWORD PTR _s$[esp+2156]
  00279	e8 00 00 00 00	 call	 ?GetToken@CScanner@@UAEHH@Z ; CScanner::GetToken

; 74   : 		lstrcpy( pData->font.afi[2].szFont, s.token );

  0027e	8b 4c 24 3c	 mov	 ecx, DWORD PTR _s$[esp+2188]
  00282	51		 push	 ecx
  00283	8d 96 60 03 00
	00		 lea	 edx, DWORD PTR [esi+864]
  00289	52		 push	 edx
  0028a	ff d7		 call	 edi

; 75   : 		s.GetToken();

  0028c	6a 00		 push	 0
  0028e	8d 4c 24 1c	 lea	 ecx, DWORD PTR _s$[esp+2156]
  00292	e8 00 00 00 00	 call	 ?GetToken@CScanner@@UAEHH@Z ; CScanner::GetToken

; 76   : 
; 77   : 		s.GetToken();

  00297	6a 00		 push	 0
  00299	8d 4c 24 1c	 lea	 ecx, DWORD PTR _s$[esp+2156]
  0029d	e8 00 00 00 00	 call	 ?GetToken@CScanner@@UAEHH@Z ; CScanner::GetToken

; 78   : 		s.GetToken();	// szFont3

  002a2	6a 00		 push	 0
  002a4	8d 4c 24 1c	 lea	 ecx, DWORD PTR _s$[esp+2156]
  002a8	e8 00 00 00 00	 call	 ?GetToken@CScanner@@UAEHH@Z ; CScanner::GetToken

; 79   : 		lstrcpy( pData->font.afi[3].szFont, s.token );

  002ad	8b 44 24 3c	 mov	 eax, DWORD PTR _s$[esp+2188]
  002b1	50		 push	 eax
  002b2	8d 8e 94 03 00
	00		 lea	 ecx, DWORD PTR [esi+916]
  002b8	51		 push	 ecx
  002b9	ff d7		 call	 edi

; 80   : 		s.GetToken();

  002bb	6a 00		 push	 0
  002bd	8d 4c 24 1c	 lea	 ecx, DWORD PTR _s$[esp+2156]
  002c1	e8 00 00 00 00	 call	 ?GetToken@CScanner@@UAEHH@Z ; CScanner::GetToken

; 81   : 
; 82   : 		a	= s.GetNumber();	// dwBgColor3_a

  002c6	6a 00		 push	 0
  002c8	8d 4c 24 1c	 lea	 ecx, DWORD PTR _s$[esp+2156]
  002cc	e8 00 00 00 00	 call	 ?GetNumber@CScanner@@QAEHH@Z ; CScanner::GetNumber

; 83   : 		r	= s.GetNumber();	// dwBgColor3_r

  002d1	6a 00		 push	 0
  002d3	8d 4c 24 1c	 lea	 ecx, DWORD PTR _s$[esp+2156]
  002d7	8b e8		 mov	 ebp, eax
  002d9	e8 00 00 00 00	 call	 ?GetNumber@CScanner@@QAEHH@Z ; CScanner::GetNumber

; 84   : 		g	= s.GetNumber();	// dwBgColor3_g

  002de	6a 00		 push	 0
  002e0	8d 4c 24 1c	 lea	 ecx, DWORD PTR _s$[esp+2156]
  002e4	8b d8		 mov	 ebx, eax
  002e6	e8 00 00 00 00	 call	 ?GetNumber@CScanner@@QAEHH@Z ; CScanner::GetNumber

; 85   : 		b	= s.GetNumber();	// dwBgColor3_b

  002eb	6a 00		 push	 0
  002ed	8d 4c 24 1c	 lea	 ecx, DWORD PTR _s$[esp+2156]
  002f1	89 44 24 14	 mov	 DWORD PTR _g$[esp+2156], eax
  002f5	e8 00 00 00 00	 call	 ?GetNumber@CScanner@@QAEHH@Z ; CScanner::GetNumber

; 86   : 		pData->font.afi[3].dwBgColor	= D3DCOLOR_ARGB( a, r, g, b );

  002fa	81 e3 ff 00 00
	00		 and	 ebx, 255		; 000000ffH
  00300	8b d0		 mov	 edx, eax
  00302	8b 44 24 10	 mov	 eax, DWORD PTR _g$[esp+2152]
  00306	c1 e5 08	 shl	 ebp, 8
  00309	0b dd		 or	 ebx, ebp
  0030b	c1 e3 08	 shl	 ebx, 8
  0030e	25 ff 00 00 00	 and	 eax, 255		; 000000ffH
  00313	0b d8		 or	 ebx, eax
  00315	81 e2 ff 00 00
	00		 and	 edx, 255		; 000000ffH
  0031b	c1 e3 08	 shl	 ebx, 8
  0031e	0b d3		 or	 edx, ebx

; 87   : 		pData->font.afi[3].nOutLine	= s.GetNumber();	// nOutLine3

  00320	6a 00		 push	 0
  00322	8d 4c 24 1c	 lea	 ecx, DWORD PTR _s$[esp+2156]
  00326	89 96 bc 03 00
	00		 mov	 DWORD PTR [esi+956], edx
  0032c	e8 00 00 00 00	 call	 ?GetNumber@CScanner@@QAEHH@Z ; CScanner::GetNumber

; 88   : 		pData->font.afi[3].dwFlags	= s.GetNumber();	// dwFlags3

  00331	6a 00		 push	 0
  00333	8d 4c 24 1c	 lea	 ecx, DWORD PTR _s$[esp+2156]
  00337	89 86 c0 03 00
	00		 mov	 DWORD PTR [esi+960], eax
  0033d	e8 00 00 00 00	 call	 ?GetNumber@CScanner@@QAEHH@Z ; CScanner::GetNumber

; 89   : 
; 90   : 		s.GetToken();

  00342	6a 00		 push	 0
  00344	8d 4c 24 1c	 lea	 ecx, DWORD PTR _s$[esp+2156]
  00348	89 86 c4 03 00
	00		 mov	 DWORD PTR [esi+964], eax
  0034e	e8 00 00 00 00	 call	 ?GetToken@CScanner@@UAEHH@Z ; CScanner::GetToken

; 91   : 		s.GetToken();	// szFont4

  00353	6a 00		 push	 0
  00355	8d 4c 24 1c	 lea	 ecx, DWORD PTR _s$[esp+2156]
  00359	e8 00 00 00 00	 call	 ?GetToken@CScanner@@UAEHH@Z ; CScanner::GetToken

; 92   : 		lstrcpy( pData->font.afi[4].szFont, s.token );

  0035e	8b 44 24 3c	 mov	 eax, DWORD PTR _s$[esp+2188]
  00362	50		 push	 eax
  00363	8d 8e c8 03 00
	00		 lea	 ecx, DWORD PTR [esi+968]
  00369	51		 push	 ecx
  0036a	ff d7		 call	 edi

; 93   : 		s.GetToken();

  0036c	6a 00		 push	 0
  0036e	8d 4c 24 1c	 lea	 ecx, DWORD PTR _s$[esp+2156]
  00372	e8 00 00 00 00	 call	 ?GetToken@CScanner@@UAEHH@Z ; CScanner::GetToken

; 94   : 		a	= s.GetNumber();	// dwBgColor4_a

  00377	6a 00		 push	 0
  00379	8d 4c 24 1c	 lea	 ecx, DWORD PTR _s$[esp+2156]
  0037d	e8 00 00 00 00	 call	 ?GetNumber@CScanner@@QAEHH@Z ; CScanner::GetNumber

; 95   : 		r	= s.GetNumber();	// dwBgColor4_r

  00382	6a 00		 push	 0
  00384	8d 4c 24 1c	 lea	 ecx, DWORD PTR _s$[esp+2156]
  00388	8b e8		 mov	 ebp, eax
  0038a	e8 00 00 00 00	 call	 ?GetNumber@CScanner@@QAEHH@Z ; CScanner::GetNumber

; 96   : 		g	= s.GetNumber();	// dwBgColor4_g

  0038f	6a 00		 push	 0
  00391	8d 4c 24 1c	 lea	 ecx, DWORD PTR _s$[esp+2156]
  00395	8b d8		 mov	 ebx, eax
  00397	e8 00 00 00 00	 call	 ?GetNumber@CScanner@@QAEHH@Z ; CScanner::GetNumber

; 97   : 		b	= s.GetNumber();	// dwBgColor4_b

  0039c	6a 00		 push	 0
  0039e	8d 4c 24 1c	 lea	 ecx, DWORD PTR _s$[esp+2156]
  003a2	89 44 24 14	 mov	 DWORD PTR _g$[esp+2156], eax
  003a6	e8 00 00 00 00	 call	 ?GetNumber@CScanner@@QAEHH@Z ; CScanner::GetNumber

; 98   : 		pData->font.afi[4].dwBgColor	= D3DCOLOR_ARGB( a, r, g, b );

  003ab	81 e3 ff 00 00
	00		 and	 ebx, 255		; 000000ffH
  003b1	8b d0		 mov	 edx, eax
  003b3	8b 44 24 10	 mov	 eax, DWORD PTR _g$[esp+2152]
  003b7	c1 e5 08	 shl	 ebp, 8
  003ba	0b dd		 or	 ebx, ebp
  003bc	c1 e3 08	 shl	 ebx, 8
  003bf	25 ff 00 00 00	 and	 eax, 255		; 000000ffH
  003c4	0b d8		 or	 ebx, eax
  003c6	81 e2 ff 00 00
	00		 and	 edx, 255		; 000000ffH
  003cc	c1 e3 08	 shl	 ebx, 8
  003cf	0b d3		 or	 edx, ebx

; 99   : 		pData->font.afi[4].nOutLine	= s.GetNumber();	// nOutLine4

  003d1	6a 00		 push	 0
  003d3	8d 4c 24 1c	 lea	 ecx, DWORD PTR _s$[esp+2156]
  003d7	89 96 f0 03 00
	00		 mov	 DWORD PTR [esi+1008], edx
  003dd	e8 00 00 00 00	 call	 ?GetNumber@CScanner@@QAEHH@Z ; CScanner::GetNumber

; 100  : 		pData->font.afi[4].dwFlags	= s.GetNumber();	// dwFlags4

  003e2	6a 00		 push	 0
  003e4	8d 4c 24 1c	 lea	 ecx, DWORD PTR _s$[esp+2156]
  003e8	89 86 f4 03 00
	00		 mov	 DWORD PTR [esi+1012], eax
  003ee	e8 00 00 00 00	 call	 ?GetNumber@CScanner@@QAEHH@Z ; CScanner::GetNumber

; 101  : 
; 102  : 		s.GetToken();

  003f3	6a 00		 push	 0
  003f5	8d 4c 24 1c	 lea	 ecx, DWORD PTR _s$[esp+2156]
  003f9	89 86 f8 03 00
	00		 mov	 DWORD PTR [esi+1016], eax
  003ff	e8 00 00 00 00	 call	 ?GetToken@CScanner@@UAEHH@Z ; CScanner::GetToken

; 103  : 		s.GetToken();	// szFont5

  00404	6a 00		 push	 0
  00406	8d 4c 24 1c	 lea	 ecx, DWORD PTR _s$[esp+2156]
  0040a	e8 00 00 00 00	 call	 ?GetToken@CScanner@@UAEHH@Z ; CScanner::GetToken

; 104  : 		lstrcpy( pData->font.afi[5].szFont, s.token );

  0040f	8b 44 24 3c	 mov	 eax, DWORD PTR _s$[esp+2188]
  00413	50		 push	 eax
  00414	8d 8e fc 03 00
	00		 lea	 ecx, DWORD PTR [esi+1020]
  0041a	51		 push	 ecx
  0041b	ff d7		 call	 edi

; 105  : 		s.GetToken();

  0041d	6a 00		 push	 0
  0041f	8d 4c 24 1c	 lea	 ecx, DWORD PTR _s$[esp+2156]
  00423	e8 00 00 00 00	 call	 ?GetToken@CScanner@@UAEHH@Z ; CScanner::GetToken

; 106  : 
; 107  : 		a	= s.GetNumber();	// dwBgColor5_a

  00428	6a 00		 push	 0
  0042a	8d 4c 24 1c	 lea	 ecx, DWORD PTR _s$[esp+2156]
  0042e	e8 00 00 00 00	 call	 ?GetNumber@CScanner@@QAEHH@Z ; CScanner::GetNumber

; 108  : 		r	= s.GetNumber();	// dwBgColor5_r

  00433	6a 00		 push	 0
  00435	8d 4c 24 1c	 lea	 ecx, DWORD PTR _s$[esp+2156]
  00439	8b e8		 mov	 ebp, eax
  0043b	e8 00 00 00 00	 call	 ?GetNumber@CScanner@@QAEHH@Z ; CScanner::GetNumber

; 109  : 		g	= s.GetNumber();	// dwBgColor5_g

  00440	6a 00		 push	 0
  00442	8d 4c 24 1c	 lea	 ecx, DWORD PTR _s$[esp+2156]
  00446	8b d8		 mov	 ebx, eax
  00448	e8 00 00 00 00	 call	 ?GetNumber@CScanner@@QAEHH@Z ; CScanner::GetNumber

; 110  : 		b	= s.GetNumber();	// dwBgColor5_b

  0044d	6a 00		 push	 0
  0044f	8d 4c 24 1c	 lea	 ecx, DWORD PTR _s$[esp+2156]
  00453	89 44 24 14	 mov	 DWORD PTR _g$[esp+2156], eax
  00457	e8 00 00 00 00	 call	 ?GetNumber@CScanner@@QAEHH@Z ; CScanner::GetNumber

; 111  : 		pData->font.afi[5].dwBgColor	= D3DCOLOR_ARGB( a, r, g, b );

  0045c	8b 4c 24 10	 mov	 ecx, DWORD PTR _g$[esp+2152]
  00460	81 e3 ff 00 00
	00		 and	 ebx, 255		; 000000ffH
  00466	c1 e5 08	 shl	 ebp, 8
  00469	0b dd		 or	 ebx, ebp
  0046b	c1 e3 08	 shl	 ebx, 8
  0046e	81 e1 ff 00 00
	00		 and	 ecx, 255		; 000000ffH
  00474	0b d9		 or	 ebx, ecx
  00476	25 ff 00 00 00	 and	 eax, 255		; 000000ffH
  0047b	c1 e3 08	 shl	 ebx, 8
  0047e	0b d8		 or	 ebx, eax

; 112  : 		pData->font.afi[5].nOutLine	= s.GetNumber();	// nOutLine5

  00480	6a 00		 push	 0
  00482	8d 4c 24 1c	 lea	 ecx, DWORD PTR _s$[esp+2156]
  00486	89 9e 24 04 00
	00		 mov	 DWORD PTR [esi+1060], ebx
  0048c	e8 00 00 00 00	 call	 ?GetNumber@CScanner@@QAEHH@Z ; CScanner::GetNumber

; 113  : 		pData->font.afi[5].dwFlags	= s.GetNumber();	// dwFlags5

  00491	6a 00		 push	 0
  00493	8d 4c 24 1c	 lea	 ecx, DWORD PTR _s$[esp+2156]
  00497	89 86 28 04 00
	00		 mov	 DWORD PTR [esi+1064], eax
  0049d	e8 00 00 00 00	 call	 ?GetNumber@CScanner@@QAEHH@Z ; CScanner::GetNumber

; 114  : 
; 115  : //#ifdef __NO_SUB_LANG
; 116  : 		s.GetNumber(); // dwFontSize

  004a2	6a 00		 push	 0
  004a4	8d 4c 24 1c	 lea	 ecx, DWORD PTR _s$[esp+2156]
  004a8	89 86 2c 04 00
	00		 mov	 DWORD PTR [esi+1068], eax
  004ae	e8 00 00 00 00	 call	 ?GetNumber@CScanner@@QAEHH@Z ; CScanner::GetNumber

; 117  : //#endif // __NO_SUB_LANG			
; 118  : 
; 119  : 		dwLang	= s.GetNumber();	// dwLang

  004b3	6a 00		 push	 0
  004b5	8d 4c 24 1c	 lea	 ecx, DWORD PTR _s$[esp+2156]
  004b9	e8 00 00 00 00	 call	 ?GetNumber@CScanner@@QAEHH@Z ; CScanner::GetNumber
  004be	83 bc 24 44 08
	00 00 15	 cmp	 DWORD PTR _s$[esp+4244], 21 ; 00000015H
  004c6	0f 85 d4 fb ff
	ff		 jne	 $L186838
  004cc	5f		 pop	 edi
  004cd	5d		 pop	 ebp
  004ce	5b		 pop	 ebx
$L186839:

; 120  : 	}
; 121  : 	return TRUE;

  004cf	8d 4c 24 0c	 lea	 ecx, DWORD PTR _s$[esp+2140]
  004d3	c7 84 24 58 08
	00 00 ff ff ff
	ff		 mov	 DWORD PTR __$EHRec$[esp+2148], -1
  004de	e8 00 00 00 00	 call	 ??1CScanner@@UAE@XZ	; CScanner::~CScanner
  004e3	b8 01 00 00 00	 mov	 eax, 1
$L186828:

; 122  : }

  004e8	8b 8c 24 50 08
	00 00		 mov	 ecx, DWORD PTR __$EHRec$[esp+2140]
  004ef	64 89 0d 00 00
	00 00		 mov	 DWORD PTR fs:__except_list, ecx
  004f6	8b 8c 24 4c 08
	00 00		 mov	 ecx, DWORD PTR __$ArrayPad$[esp+2140]
  004fd	5e		 pop	 esi
  004fe	33 cc		 xor	 ecx, esp
  00500	e8 00 00 00 00	 call	 @__security_check_cookie@4
  00505	81 c4 58 08 00
	00		 add	 esp, 2136		; 00000858H
  0050b	c2 04 00	 ret	 4
_TEXT	ENDS
;	COMDAT text$x
text$x	SEGMENT
$L187022:
  00000	8d 8d b0 f7 ff
	ff		 lea	 ecx, DWORD PTR _s$[ebp]
  00006	e9 00 00 00 00	 jmp	 ??1CScanner@@UAE@XZ	; CScanner::~CScanner
__ehhandler$?Load@CLangMan@@QAEHPBD@Z:
  0000b	b8 00 00 00 00	 mov	 eax, OFFSET FLAT:$T187028
  00010	e9 00 00 00 00	 jmp	 ___CxxFrameHandler
text$x	ENDS
?Load@CLangMan@@QAEHPBD@Z ENDP				; CLangMan::Load
PUBLIC	?GetLangData@CLangMan@@QAEPAU_LANG_DATA@@K@Z	; CLangMan::GetLangData
; Function compile flags: /Ogty
;	COMDAT ?GetLangData@CLangMan@@QAEPAU_LANG_DATA@@K@Z
_TEXT	SEGMENT
_dwLang$ = 8						; size = 4
?GetLangData@CLangMan@@QAEPAU_LANG_DATA@@K@Z PROC NEAR	; CLangMan::GetLangData, COMDAT
; _this$ = ecx

; 126  : 	ASSERT( dwLang < LANG_MAX );
; 127  : 	return &m_aLangData[dwLang];

  00000	8b 44 24 04	 mov	 eax, DWORD PTR _dwLang$[esp-4]
  00004	69 c0 30 04 00
	00		 imul	 eax, 1072		; 00000430H
  0000a	8d 44 08 04	 lea	 eax, DWORD PTR [eax+ecx+4]

; 128  : }

  0000e	c2 04 00	 ret	 4
?GetLangData@CLangMan@@QAEPAU_LANG_DATA@@K@Z ENDP	; CLangMan::GetLangData
_TEXT	ENDS
PUBLIC	??0CLangMan@@QAE@XZ				; CLangMan::CLangMan
; Function compile flags: /Ogty
;	COMDAT ??0CLangMan@@QAE@XZ
_TEXT	SEGMENT
??0CLangMan@@QAE@XZ PROC NEAR				; CLangMan::CLangMan, COMDAT
; _this$ = ecx

; 7    : {

  00000	53		 push	 ebx
  00001	55		 push	 ebp
  00002	56		 push	 esi
  00003	8b e9		 mov	 ebp, ecx
  00005	57		 push	 edi
  00006	c7 45 00 00 00
	00 00		 mov	 DWORD PTR [ebp], OFFSET FLAT:??_7CLangMan@@6B@
  0000d	8d 55 04	 lea	 edx, DWORD PTR [ebp+4]
  00010	be 0f 00 00 00	 mov	 esi, 15			; 0000000fH
  00015	32 db		 xor	 bl, bl
  00017	eb 07 8d a4 24
	00 00 00 00	 npad	 9
$L187050:
  00020	88 1a		 mov	 BYTE PTR [edx], bl
  00022	88 9a 04 01 00
	00		 mov	 BYTE PTR [edx+260], bl
  00028	88 9a 08 02 00
	00		 mov	 BYTE PTR [edx+520], bl
  0002e	8d ba 6c 02 00
	00		 lea	 edi, DWORD PTR [edx+620]
  00034	33 c0		 xor	 eax, eax
  00036	b9 71 00 00 00	 mov	 ecx, 113		; 00000071H
  0003b	81 c2 30 04 00
	00		 add	 edx, 1072		; 00000430H
  00041	4e		 dec	 esi
  00042	f3 ab		 rep stosd
  00044	75 da		 jne	 SHORT $L187050
  00046	5f		 pop	 edi
  00047	5e		 pop	 esi

; 8    : }

  00048	8b c5		 mov	 eax, ebp
  0004a	5d		 pop	 ebp
  0004b	5b		 pop	 ebx
  0004c	c3		 ret	 0
??0CLangMan@@QAE@XZ ENDP				; CLangMan::CLangMan
_TEXT	ENDS
EXTRN	??3@YAXPAX@Z:NEAR				; operator delete
; Function compile flags: /Ogty
;	COMDAT ??_GCLangMan@@UAEPAXI@Z
_TEXT	SEGMENT
___flags$ = 8						; size = 4
??_GCLangMan@@UAEPAXI@Z PROC NEAR			; CLangMan::`scalar deleting destructor', COMDAT
; _this$ = ecx
  00000	f6 44 24 04 01	 test	 BYTE PTR ___flags$[esp-4], 1
  00005	56		 push	 esi
  00006	8b f1		 mov	 esi, ecx
  00008	c7 06 00 00 00
	00		 mov	 DWORD PTR [esi], OFFSET FLAT:??_7CLangMan@@6B@
  0000e	74 09		 je	 SHORT $L187065
  00010	56		 push	 esi
  00011	e8 00 00 00 00	 call	 ??3@YAXPAX@Z		; operator delete
  00016	83 c4 04	 add	 esp, 4
$L187065:
  00019	8b c6		 mov	 eax, esi
  0001b	5e		 pop	 esi
  0001c	c2 04 00	 ret	 4
??_GCLangMan@@UAEPAXI@Z ENDP				; CLangMan::`scalar deleting destructor'
_TEXT	ENDS
PUBLIC	?GetInstance@CLangMan@@SAPAV1@XZ		; CLangMan::GetInstance
EXTRN	_atexit:NEAR
;	COMDAT ?sLocal@?1??GetInstance@CLangMan@@SAPAV2@XZ@4V2@A
_BSS	SEGMENT
?sLocal@?1??GetInstance@CLangMan@@SAPAV2@XZ@4V2@A DB 03ed4H DUP (?) ; `CLangMan::GetInstance'::`2'::sLocal
_BSS	ENDS
;	COMDAT ?$S1@?1??GetInstance@CLangMan@@SAPAV2@XZ@4IA
_BSS	SEGMENT
?$S1@?1??GetInstance@CLangMan@@SAPAV2@XZ@4IA DD 01H DUP (?) ; `CLangMan::GetInstance'::`2'::$S1
; Function compile flags: /Ogty
_BSS	ENDS
;	COMDAT ?GetInstance@CLangMan@@SAPAV1@XZ
_TEXT	SEGMENT
?GetInstance@CLangMan@@SAPAV1@XZ PROC NEAR		; CLangMan::GetInstance, COMDAT

; 132  : 	static	CLangMan	sLocal;

  00000	8a 0d 00 00 00
	00		 mov	 cl, BYTE PTR ?$S1@?1??GetInstance@CLangMan@@SAPAV2@XZ@4IA
  00006	b8 01 00 00 00	 mov	 eax, 1
  0000b	84 c8		 test	 cl, al
  0000d	75 25		 jne	 SHORT $L187069
  0000f	8b 15 00 00 00
	00		 mov	 edx, DWORD PTR ?$S1@?1??GetInstance@CLangMan@@SAPAV2@XZ@4IA
  00015	0b d0		 or	 edx, eax
  00017	b9 00 00 00 00	 mov	 ecx, OFFSET FLAT:?sLocal@?1??GetInstance@CLangMan@@SAPAV2@XZ@4V2@A
  0001c	89 15 00 00 00
	00		 mov	 DWORD PTR ?$S1@?1??GetInstance@CLangMan@@SAPAV2@XZ@4IA, edx
  00022	e8 00 00 00 00	 call	 ??0CLangMan@@QAE@XZ	; CLangMan::CLangMan
  00027	68 00 00 00 00	 push	 OFFSET FLAT:_$E2
  0002c	e8 00 00 00 00	 call	 _atexit
  00031	83 c4 04	 add	 esp, 4
$L187069:

; 133  : 	return &sLocal;

  00034	b8 00 00 00 00	 mov	 eax, OFFSET FLAT:?sLocal@?1??GetInstance@CLangMan@@SAPAV2@XZ@4V2@A

; 134  : }

  00039	c3		 ret	 0
?GetInstance@CLangMan@@SAPAV1@XZ ENDP			; CLangMan::GetInstance
; Function compile flags: /Ogty
_TEXT	ENDS
;	COMDAT _$E2
text$yd	SEGMENT
_$E2	PROC NEAR					; COMDAT
  00000	c7 05 00 00 00
	00 00 00 00 00	 mov	 DWORD PTR ?sLocal@?1??GetInstance@CLangMan@@SAPAV2@XZ@4V2@A, OFFSET FLAT:??_7CLangMan@@6B@
  0000a	c3		 ret	 0
_$E2	ENDP
text$yd	ENDS
END
