; Listing generated by Microsoft (R) Optimizing Compiler Version 13.10.6030 

	TITLE	\Documents and Settings\test\Mes documents\Source\Virtuos_v17\Build\Program\_Network\Objects\Obj.cpp
	.386P
include listing.inc
if @Version gt 510
.model FLAT
else
_TEXT	SEGMENT PARA USE32 PUBLIC 'CODE'
_TEXT	ENDS
_DATA	SEGMENT DWORD USE32 PUBLIC 'DATA'
_DATA	ENDS
CONST	SEGMENT DWORD USE32 PUBLIC 'CONST'
CONST	ENDS
_BSS	SEGMENT DWORD USE32 PUBLIC 'BSS'
_BSS	ENDS
$$SYMBOLS	SEGMENT BYTE USE32 'DEBSYM'
$$SYMBOLS	ENDS
_TLS	SEGMENT DWORD USE32 PUBLIC 'TLS'
_TLS	ENDS
;	COMDAT ??_C@_0CI@FEMGPALB@Not?5UnEquip?5RemoveItemIK3?5?5?3?5?$CFs?0@
CONST	SEGMENT DWORD USE32 PUBLIC 'CONST'
CONST	ENDS
;	COMDAT ??_C@_0CG@DAKLJMI@Not?5ItemProp?5RemoveItemIK3?5?5?3?5?$CFs@
CONST	SEGMENT DWORD USE32 PUBLIC 'CONST'
CONST	ENDS
;	COMDAT ??_C@_0FA@MKEIOHMC@template?5?$DMclass?5T?$DO?5BOOL?5CItemCon@
CONST	SEGMENT DWORD USE32 PUBLIC 'CONST'
CONST	ENDS
text$yc	SEGMENT PARA USE32 PUBLIC 'CODE'
text$yc	ENDS
CRT$XCA	SEGMENT DWORD USE32 PUBLIC 'DATA'
CRT$XCA	ENDS
CRT$XCU	SEGMENT DWORD USE32 PUBLIC 'DATA'
CRT$XCU	ENDS
CRT$XCL	SEGMENT DWORD USE32 PUBLIC 'DATA'
CRT$XCL	ENDS
CRT$XCC	SEGMENT DWORD USE32 PUBLIC 'DATA'
CRT$XCC	ENDS
CRT$XCZ	SEGMENT DWORD USE32 PUBLIC 'DATA'
CRT$XCZ	ENDS
xdata$x	SEGMENT DWORD USE32 PUBLIC 'CONST'
xdata$x	ENDS
;	COMDAT ??1CSerialNumber@@UAE@XZ
_TEXT	SEGMENT PARA USE32 PUBLIC 'CODE'
_TEXT	ENDS
;	COMDAT ??_GCSerialNumber@@UAEPAXI@Z
_TEXT	SEGMENT PARA USE32 PUBLIC 'CODE'
_TEXT	ENDS
;	COMDAT ??0CObj@@QAE@XZ
_TEXT	SEGMENT PARA USE32 PUBLIC 'CODE'
_TEXT	ENDS
;	COMDAT ??0CCtrl@@QAE@XZ
_TEXT	SEGMENT PARA USE32 PUBLIC 'CODE'
_TEXT	ENDS
;	COMDAT ??0CItemBase@@QAE@XZ
_TEXT	SEGMENT PARA USE32 PUBLIC 'CODE'
_TEXT	ENDS
;	COMDAT ??0CItemElem@@QAE@XZ
_TEXT	SEGMENT PARA USE32 PUBLIC 'CODE'
_TEXT	ENDS
;	COMDAT ??_GCItemElem@@UAEPAXI@Z
_TEXT	SEGMENT PARA USE32 PUBLIC 'CODE'
_TEXT	ENDS
;	COMDAT ??1CItemElem@@UAE@XZ
_TEXT	SEGMENT PARA USE32 PUBLIC 'CODE'
_TEXT	ENDS
;	COMDAT ??0CItem@@QAE@XZ
_TEXT	SEGMENT PARA USE32 PUBLIC 'CODE'
_TEXT	ENDS
;	COMDAT ??_GCItem@@UAEPAXI@Z
_TEXT	SEGMENT PARA USE32 PUBLIC 'CODE'
_TEXT	ENDS
;	COMDAT ??1CItem@@UAE@XZ
_TEXT	SEGMENT PARA USE32 PUBLIC 'CODE'
_TEXT	ENDS
;	COMDAT _$E1
text$yc	SEGMENT PARA USE32 PUBLIC 'CODE'
text$yc	ENDS
;	COMDAT ??0CMover@@QAE@XZ
_TEXT	SEGMENT PARA USE32 PUBLIC 'CODE'
_TEXT	ENDS
;	COMDAT ??_GCMover@@UAEPAXI@Z
_TEXT	SEGMENT PARA USE32 PUBLIC 'CODE'
_TEXT	ENDS
;	COMDAT ??1CMover@@UAE@XZ
_TEXT	SEGMENT PARA USE32 PUBLIC 'CODE'
_TEXT	ENDS
;	COMDAT ?InitProp@CMover@@QAEXXZ
_TEXT	SEGMENT PARA USE32 PUBLIC 'CODE'
_TEXT	ENDS
;	COMDAT ?AddItem@CMover@@QAEHKKKHKHHHHKKKKKK_J@Z
_TEXT	SEGMENT PARA USE32 PUBLIC 'CODE'
_TEXT	ENDS
;	COMDAT ?AddItemBank@CMover@@QAEHHKKHK@Z
_TEXT	SEGMENT PARA USE32 PUBLIC 'CODE'
_TEXT	ENDS
;	COMDAT ?IsAbnormalPlayerData@CMover@@QAEHXZ
_TEXT	SEGMENT PARA USE32 PUBLIC 'CODE'
_TEXT	ENDS
;	COMDAT ?NormalizePlayerData@CMover@@QAEHXZ
_TEXT	SEGMENT PARA USE32 PUBLIC 'CODE'
_TEXT	ENDS
;	COMDAT ?RemoveItemIK3@CMover@@QAEHXZ
_TEXT	SEGMENT PARA USE32 PUBLIC 'CODE'
_TEXT	ENDS
;	COMDAT ?IsPierceAble@CItemElem@@QAEHKH@Z
_TEXT	SEGMENT PARA USE32 PUBLIC 'CODE'
_TEXT	ENDS
;	COMDAT ??4CItemElem@@UAEAAV0@AAV0@@Z
_TEXT	SEGMENT PARA USE32 PUBLIC 'CODE'
_TEXT	ENDS
;	COMDAT ??4CItemBase@@UAEAAV0@AAV0@@Z
_TEXT	SEGMENT PARA USE32 PUBLIC 'CODE'
_TEXT	ENDS
;	COMDAT ?IsInvalid@CItemElem@@QAEHXZ
_TEXT	SEGMENT PARA USE32 PUBLIC 'CODE'
_TEXT	ENDS
;	COMDAT ?Copy@CMover@@QAEXPAV1@H@Z
_TEXT	SEGMENT PARA USE32 PUBLIC 'CODE'
_TEXT	ENDS
;	COMDAT ?PeriodTick@CMover@@QAEXXZ
_TEXT	SEGMENT PARA USE32 PUBLIC 'CODE'
_TEXT	ENDS
;	COMDAT ?RemoveQuest@CMover@@QAEHH@Z
_TEXT	SEGMENT PARA USE32 PUBLIC 'CODE'
_TEXT	ENDS
;	COMDAT ?GetPetItem@CMover@@QAEPAVCItemElem@@XZ
_TEXT	SEGMENT PARA USE32 PUBLIC 'CODE'
_TEXT	ENDS
;	COMDAT ?compare@?$basic_string@DU?$char_traits@D@std@@V?$allocator@D@2@@std@@QBEHABV12@@Z
_TEXT	SEGMENT PARA USE32 PUBLIC 'CODE'
_TEXT	ENDS
;	COMDAT ??0?$MemPooler@VCMover@@@@QAE@H@Z
_TEXT	SEGMENT PARA USE32 PUBLIC 'CODE'
_TEXT	ENDS
;	COMDAT ?compare@?$basic_string@DU?$char_traits@D@std@@V?$allocator@D@2@@std@@QBEHIIPBDI@Z
_TEXT	SEGMENT PARA USE32 PUBLIC 'CODE'
_TEXT	ENDS
;	COMDAT ??0?$list@PAXV?$allocator@PAX@std@@@std@@QAE@XZ
_TEXT	SEGMENT PARA USE32 PUBLIC 'CODE'
_TEXT	ENDS
;	COMDAT ??1?$list@PAXV?$allocator@PAX@std@@@std@@QAE@XZ
_TEXT	SEGMENT PARA USE32 PUBLIC 'CODE'
_TEXT	ENDS
;	COMDAT ??0?$allocator@PAX@std@@QAE@XZ
_TEXT	SEGMENT PARA USE32 PUBLIC 'CODE'
_TEXT	ENDS
;	COMDAT ?_Buynode@?$list@PAXV?$allocator@PAX@std@@@std@@IAEPAU_Node@?$_List_nod@PAXV?$allocator@PAX@std@@@2@XZ
_TEXT	SEGMENT PARA USE32 PUBLIC 'CODE'
_TEXT	ENDS
;	COMDAT ?_Tidy@?$list@PAXV?$allocator@PAX@std@@@std@@IAEXXZ
_TEXT	SEGMENT PARA USE32 PUBLIC 'CODE'
_TEXT	ENDS
;	COMDAT ??0?$_List_val@PAXV?$allocator@PAX@std@@@std@@IAE@V?$allocator@PAX@1@@Z
_TEXT	SEGMENT PARA USE32 PUBLIC 'CODE'
_TEXT	ENDS
;	COMDAT ??0?$allocator@PAX@std@@QAE@ABV01@@Z
_TEXT	SEGMENT PARA USE32 PUBLIC 'CODE'
_TEXT	ENDS
;	COMDAT ?clear@?$list@PAXV?$allocator@PAX@std@@@std@@QAEXXZ
_TEXT	SEGMENT PARA USE32 PUBLIC 'CODE'
_TEXT	ENDS
;	COMDAT ??0?$_List_ptr@PAXV?$allocator@PAX@std@@@std@@IAE@V?$allocator@PAX@1@@Z
_TEXT	SEGMENT PARA USE32 PUBLIC 'CODE'
_TEXT	ENDS
;	COMDAT ?construct@?$allocator@PAU_Node@?$_List_nod@PAXV?$allocator@PAX@std@@@std@@@std@@QAEXPAPAU_Node@?$_List_nod@PAXV?$allocator@PAX@std@@@2@ABQAU342@@Z
_TEXT	SEGMENT PARA USE32 PUBLIC 'CODE'
_TEXT	ENDS
;	COMDAT ?destroy@?$allocator@PAU_Node@?$_List_nod@PAXV?$allocator@PAX@std@@@std@@@std@@QAEXPAPAU_Node@?$_List_nod@PAXV?$allocator@PAX@std@@@2@@Z
_TEXT	SEGMENT PARA USE32 PUBLIC 'CODE'
_TEXT	ENDS
;	COMDAT ??0?$_List_nod@PAXV?$allocator@PAX@std@@@std@@IAE@V?$allocator@PAX@1@@Z
_TEXT	SEGMENT PARA USE32 PUBLIC 'CODE'
_TEXT	ENDS
;	COMDAT ?destroy@?$allocator@U_Node@?$_List_nod@PAXV?$allocator@PAX@std@@@std@@@std@@QAEXPAU_Node@?$_List_nod@PAXV?$allocator@PAX@std@@@2@@Z
_TEXT	SEGMENT PARA USE32 PUBLIC 'CODE'
_TEXT	ENDS
;	COMDAT ??0?$CItemContainer@VCItemElem@@@@QAE@XZ
_TEXT	SEGMENT PARA USE32 PUBLIC 'CODE'
_TEXT	ENDS
;	COMDAT ?Add@?$CItemContainer@VCItemElem@@@@QAEHKFHKHHPAEPAF0HHKKKKKK_J@Z
_TEXT	SEGMENT PARA USE32 PUBLIC 'CODE'
_TEXT	ENDS
;	COMDAT ?GetAtId@?$CItemContainer@VCItemElem@@@@QAEPAVCItemElem@@K@Z
_TEXT	SEGMENT PARA USE32 PUBLIC 'CODE'
_TEXT	ENDS
;	COMDAT ?IsEquip@?$CItemContainer@VCItemElem@@@@QAEHK@Z
_TEXT	SEGMENT PARA USE32 PUBLIC 'CODE'
_TEXT	ENDS
;	COMDAT ?RemoveAt@?$CItemContainer@VCItemElem@@@@QAEXK@Z
_TEXT	SEGMENT PARA USE32 PUBLIC 'CODE'
_TEXT	ENDS
;	COMDAT ?UnEquip@?$CItemContainer@VCItemElem@@@@QAEHK@Z
_TEXT	SEGMENT PARA USE32 PUBLIC 'CODE'
_TEXT	ENDS
;	COMDAT ?Copy@?$CItemContainer@VCItemElem@@@@QAEXAAV1@@Z
_TEXT	SEGMENT PARA USE32 PUBLIC 'CODE'
_TEXT	ENDS
;	COMDAT ??$_Iter_cat@Viterator@?$_Tree@V?$_Tmap_traits@KU_Friend@@U?$less@K@std@@V?$allocator@U?$pair@$$CBKU_Friend@@@std@@@3@$0A@@std@@@std@@@std@@YA?AUbidirectional_iterator_tag@0@ABViterator@?$_Tree@V?$_Tmap_traits@KU_Friend@@U?$less@K@std@@V?$allocator@U?$pair@$$CBKU_Friend@@@std@@@3@$0A@@std@@@0@@Z
_TEXT	SEGMENT PARA USE32 PUBLIC 'CODE'
_TEXT	ENDS
;	COMDAT ??$_Distance2@Viterator@?$_Tree@V?$_Tmap_traits@KU_Friend@@U?$less@K@std@@V?$allocator@U?$pair@$$CBKU_Friend@@@std@@@3@$0A@@std@@@std@@I@std@@YAXViterator@?$_Tree@V?$_Tmap_traits@KU_Friend@@U?$less@K@std@@V?$allocator@U?$pair@$$CBKU_Friend@@@std@@@3@$0A@@std@@@0@0AAIUbidirectional_iterator_tag@0@@Z
_TEXT	SEGMENT PARA USE32 PUBLIC 'CODE'
_TEXT	ENDS
;	COMDAT ??$_Copy_opt@PAJPAJ@std@@YAPAJPAJ00U_Scalar_ptr_iterator_tag@0@@Z
_TEXT	SEGMENT PARA USE32 PUBLIC 'CODE'
_TEXT	ENDS
;	COMDAT ??$_Uninitialized_copy@PAJPAJV?$allocator@J@std@@@std@@YAPAJPAJ00AAV?$allocator@J@0@@Z
_TEXT	SEGMENT PARA USE32 PUBLIC 'CODE'
_TEXT	ENDS
;	COMDAT ??$_Copy_backward_opt@PAJPAJ@std@@YAPAJPAJ00U_Scalar_ptr_iterator_tag@0@@Z
_TEXT	SEGMENT PARA USE32 PUBLIC 'CODE'
_TEXT	ENDS
;	COMDAT ??$_Ptr_cat@PAUtagDROPITEM@@PAU1@@std@@YA?AU_Nonscalar_ptr_iterator_tag@0@AAPAUtagDROPITEM@@0@Z
_TEXT	SEGMENT PARA USE32 PUBLIC 'CODE'
_TEXT	ENDS
;	COMDAT ??$_Destroy_range@UtagDROPITEM@@V?$allocator@UtagDROPITEM@@@std@@@std@@YAXPAUtagDROPITEM@@0AAV?$allocator@UtagDROPITEM@@@0@U_Nonscalar_ptr_iterator_tag@0@@Z
_TEXT	SEGMENT PARA USE32 PUBLIC 'CODE'
_TEXT	ENDS
;	COMDAT ??$_Destroy_range@KV?$allocator@K@std@@@std@@YAXPAK0AAV?$allocator@K@0@U_Scalar_ptr_iterator_tag@0@@Z
_TEXT	SEGMENT PARA USE32 PUBLIC 'CODE'
_TEXT	ENDS
;	COMDAT ??$_Destroy_range@JV?$allocator@J@std@@@std@@YAXPAJ0AAV?$allocator@J@0@U_Scalar_ptr_iterator_tag@0@@Z
_TEXT	SEGMENT PARA USE32 PUBLIC 'CODE'
_TEXT	ENDS
;	COMDAT ??$_Uninit_fill_n@JIJ@std@@YAXPAJIABJAAV?$allocator@J@0@U_Scalar_ptr_iterator_tag@0@@Z
_TEXT	SEGMENT PARA USE32 PUBLIC 'CODE'
_TEXT	ENDS
;	COMDAT ??$?0PAX@?$allocator@PAU_Node@?$_List_nod@PAXV?$allocator@PAX@std@@@std@@@std@@QAE@ABV?$allocator@PAX@1@@Z
_TEXT	SEGMENT PARA USE32 PUBLIC 'CODE'
_TEXT	ENDS
;	COMDAT ??$_Construct@PAU_Node@?$_List_nod@PAXV?$allocator@PAX@std@@@std@@PAU123@@std@@YAXPAPAU_Node@?$_List_nod@PAXV?$allocator@PAX@std@@@0@ABQAU120@@Z
_TEXT	SEGMENT PARA USE32 PUBLIC 'CODE'
_TEXT	ENDS
;	COMDAT ??$_Destroy@PAU_Node@?$_List_nod@PAXV?$allocator@PAX@std@@@std@@@std@@YAXPAPAU_Node@?$_List_nod@PAXV?$allocator@PAX@std@@@0@@Z
_TEXT	SEGMENT PARA USE32 PUBLIC 'CODE'
_TEXT	ENDS
;	COMDAT ??$?0PAX@?$allocator@U_Node@?$_List_nod@PAXV?$allocator@PAX@std@@@std@@@std@@QAE@ABV?$allocator@PAX@1@@Z
_TEXT	SEGMENT PARA USE32 PUBLIC 'CODE'
_TEXT	ENDS
;	COMDAT ??$_Destroy@U_Node@?$_List_nod@PAXV?$allocator@PAX@std@@@std@@@std@@YAXPAU_Node@?$_List_nod@PAXV?$allocator@PAX@std@@@0@@Z
_TEXT	SEGMENT PARA USE32 PUBLIC 'CODE'
_TEXT	ENDS
;	COMDAT ?destroy@?$allocator@UtagDROPITEM@@@std@@QAEXPAUtagDROPITEM@@@Z
_TEXT	SEGMENT PARA USE32 PUBLIC 'CODE'
_TEXT	ENDS
;	COMDAT ?IsFull@?$CItemContainer@VCItemElem@@@@QAEHPAUItemProp@@FH@Z
_TEXT	SEGMENT PARA USE32 PUBLIC 'CODE'
_TEXT	ENDS
;	COMDAT ??$_Uninit_copy@JJ@std@@YAPAJPAJ00AAV?$allocator@J@0@U_Scalar_ptr_iterator_tag@0@@Z
_TEXT	SEGMENT PARA USE32 PUBLIC 'CODE'
_TEXT	ENDS
;	COMDAT ??$fill_n@PAJIJ@std@@YAXPAJIABJ@Z
_TEXT	SEGMENT PARA USE32 PUBLIC 'CODE'
_TEXT	ENDS
;	COMDAT ??$_Destroy@UtagDROPITEM@@@std@@YAXPAUtagDROPITEM@@@Z
_TEXT	SEGMENT PARA USE32 PUBLIC 'CODE'
_TEXT	ENDS
;	COMDAT ?Empty@CItemElem@@UAEXXZ
_TEXT	SEGMENT PARA USE32 PUBLIC 'CODE'
_TEXT	ENDS
;	COMDAT ?Empty@CItemBase@@UAEXXZ
_TEXT	SEGMENT PARA USE32 PUBLIC 'CODE'
_TEXT	ENDS
;	COMDAT ??_ECItemElem@@UAEPAXI@Z
_TEXT	SEGMENT PARA USE32 PUBLIC 'CODE'
_TEXT	ENDS
;	COMDAT ??2@YAPAXIPAX@Z
_TEXT	SEGMENT PARA USE32 PUBLIC 'CODE'
_TEXT	ENDS
;	COMDAT ?_Ptr_cat@std@@YA?AU_Scalar_ptr_iterator_tag@1@PAJ0@Z
_TEXT	SEGMENT PARA USE32 PUBLIC 'CODE'
_TEXT	ENDS
;	COMDAT ??9const_iterator@?$_Tree@V?$_Tmap_traits@KU_Friend@@U?$less@K@std@@V?$allocator@U?$pair@$$CBKU_Friend@@@std@@@3@$0A@@std@@@std@@QBE_NABV012@@Z
_TEXT	SEGMENT PARA USE32 PUBLIC 'CODE'
_TEXT	ENDS
;	COMDAT ??8const_iterator@?$_Tree@V?$_Tmap_traits@KU_Friend@@U?$less@K@std@@V?$allocator@U?$pair@$$CBKU_Friend@@@std@@@3@$0A@@std@@@std@@QBE_NABV012@@Z
_TEXT	SEGMENT PARA USE32 PUBLIC 'CODE'
_TEXT	ENDS
;	COMDAT ??Eiterator@?$_Tree@V?$_Tmap_traits@KU_Friend@@U?$less@K@std@@V?$allocator@U?$pair@$$CBKU_Friend@@@std@@@3@$0A@@std@@@std@@QAEAAV012@XZ
_TEXT	SEGMENT PARA USE32 PUBLIC 'CODE'
_TEXT	ENDS
;	COMDAT ??Econst_iterator@?$_Tree@V?$_Tmap_traits@KU_Friend@@U?$less@K@std@@V?$allocator@U?$pair@$$CBKU_Friend@@@std@@@3@$0A@@std@@@std@@QAEAAV012@XZ
_TEXT	SEGMENT PARA USE32 PUBLIC 'CODE'
_TEXT	ENDS
;	COMDAT ?_Inc@const_iterator@?$_Tree@V?$_Tmap_traits@KU_Friend@@U?$less@K@std@@V?$allocator@U?$pair@$$CBKU_Friend@@@std@@@3@$0A@@std@@@std@@QAEXXZ
_TEXT	SEGMENT PARA USE32 PUBLIC 'CODE'
_TEXT	ENDS
;	COMDAT ?_Min@?$_Tree@V?$_Tmap_traits@KU_Friend@@U?$less@K@std@@V?$allocator@U?$pair@$$CBKU_Friend@@@std@@@3@$0A@@std@@@std@@KAPAU_Node@?$_Tree_nod@V?$_Tmap_traits@KU_Friend@@U?$less@K@std@@V?$allocator@U?$pair@$$CBKU_Friend@@@std@@@3@$0A@@std@@@2@PAU342@@Z
_TEXT	SEGMENT PARA USE32 PUBLIC 'CODE'
_TEXT	ENDS
;	COMDAT ?_Left@?$_Tree@V?$_Tmap_traits@KU_Friend@@U?$less@K@std@@V?$allocator@U?$pair@$$CBKU_Friend@@@std@@@3@$0A@@std@@@std@@KAAAPAU_Node@?$_Tree_nod@V?$_Tmap_traits@KU_Friend@@U?$less@K@std@@V?$allocator@U?$pair@$$CBKU_Friend@@@std@@@3@$0A@@std@@@2@PAU342@@Z
_TEXT	SEGMENT PARA USE32 PUBLIC 'CODE'
_TEXT	ENDS
;	COMDAT ?_Isnil@?$_Tree@V?$_Tmap_traits@KU_Friend@@U?$less@K@std@@V?$allocator@U?$pair@$$CBKU_Friend@@@std@@@3@$0A@@std@@@std@@KAAADPAU_Node@?$_Tree_nod@V?$_Tmap_traits@KU_Friend@@U?$less@K@std@@V?$allocator@U?$pair@$$CBKU_Friend@@@std@@@3@$0A@@std@@@2@@Z
_TEXT	SEGMENT PARA USE32 PUBLIC 'CODE'
_TEXT	ENDS
;	COMDAT ?_Parent@?$_Tree@V?$_Tmap_traits@KU_Friend@@U?$less@K@std@@V?$allocator@U?$pair@$$CBKU_Friend@@@std@@@3@$0A@@std@@@std@@KAAAPAU_Node@?$_Tree_nod@V?$_Tmap_traits@KU_Friend@@U?$less@K@std@@V?$allocator@U?$pair@$$CBKU_Friend@@@std@@@3@$0A@@std@@@2@PAU342@@Z
_TEXT	SEGMENT PARA USE32 PUBLIC 'CODE'
_TEXT	ENDS
;	COMDAT ?_Right@?$_Tree@V?$_Tmap_traits@KU_Friend@@U?$less@K@std@@V?$allocator@U?$pair@$$CBKU_Friend@@@std@@@3@$0A@@std@@@std@@KAAAPAU_Node@?$_Tree_nod@V?$_Tmap_traits@KU_Friend@@U?$less@K@std@@V?$allocator@U?$pair@$$CBKU_Friend@@@std@@@3@$0A@@std@@@2@PAU342@@Z
_TEXT	SEGMENT PARA USE32 PUBLIC 'CODE'
_TEXT	ENDS
;	COMDAT ?SetRandomOptItemId@CItemElem@@QAEX_J@Z
_TEXT	SEGMENT PARA USE32 PUBLIC 'CODE'
_TEXT	ENDS
;	COMDAT ?SetPiercingItem@CItemElem@@QAEXHK@Z
_TEXT	SEGMENT PARA USE32 PUBLIC 'CODE'
_TEXT	ENDS
;	COMDAT ?SetPiercingSize@CItemElem@@QAEXH@Z
_TEXT	SEGMENT PARA USE32 PUBLIC 'CODE'
_TEXT	ENDS
;	COMDAT ?SetSerialNumber@CItemBase@@QAEXK@Z
_TEXT	SEGMENT PARA USE32 PUBLIC 'CODE'
_TEXT	ENDS
;	COMDAT ?SetOption@CItemElem@@QAEXH@Z
_TEXT	SEGMENT PARA USE32 PUBLIC 'CODE'
_TEXT	ENDS
;	COMDAT ??_7?$CItemContainer@VCItemElem@@@@6B@
CONST	SEGMENT DWORD USE32 PUBLIC 'CONST'
CONST	ENDS
;	COMDAT ??_G?$CItemContainer@VCItemElem@@@@UAEPAXI@Z
_TEXT	SEGMENT PARA USE32 PUBLIC 'CODE'
_TEXT	ENDS
;	COMDAT ?_Psave@?$_Facetptr@V?$ctype@G@std@@@std@@2PBVfacet@locale@2@B
_DATA	SEGMENT DWORD USE32 PUBLIC 'DATA'
_DATA	ENDS
;	COMDAT ?_Psave@?$_Facetptr@V?$ctype@D@std@@@std@@2PBVfacet@locale@2@B
_DATA	SEGMENT DWORD USE32 PUBLIC 'DATA'
_DATA	ENDS
;	COMDAT ?deallocate@?$allocator@U_Node@?$_List_nod@PAXV?$allocator@PAX@std@@@std@@@std@@QAEXPAU_Node@?$_List_nod@PAXV?$allocator@PAX@std@@@2@I@Z
_TEXT	SEGMENT PARA USE32 PUBLIC 'CODE'
_TEXT	ENDS
;	COMDAT ?_Prevnode@?$list@PAXV?$allocator@PAX@std@@@std@@KAAAPAU_Node@?$_List_nod@PAXV?$allocator@PAX@std@@@2@PAU342@@Z
_TEXT	SEGMENT PARA USE32 PUBLIC 'CODE'
_TEXT	ENDS
;	COMDAT ?_Nextnode@?$list@PAXV?$allocator@PAX@std@@@std@@KAAAPAU_Node@?$_List_nod@PAXV?$allocator@PAX@std@@@2@PAU342@@Z
_TEXT	SEGMENT PARA USE32 PUBLIC 'CODE'
_TEXT	ENDS
;	COMDAT ?allocate@?$allocator@U_Node@?$_List_nod@PAXV?$allocator@PAX@std@@@std@@@std@@QAEPAU_Node@?$_List_nod@PAXV?$allocator@PAX@std@@@2@I@Z
_TEXT	SEGMENT PARA USE32 PUBLIC 'CODE'
_TEXT	ENDS
;	COMDAT ??$_Allocate@U_Node@?$_List_nod@PAXV?$allocator@PAX@std@@@std@@@std@@YAPAU_Node@?$_List_nod@PAXV?$allocator@PAX@std@@@0@IPAU120@@Z
_TEXT	SEGMENT PARA USE32 PUBLIC 'CODE'
_TEXT	ENDS
;	COMDAT ?compare@?$char_traits@D@std@@SAHPBD0I@Z
_TEXT	SEGMENT PARA USE32 PUBLIC 'CODE'
_TEXT	ENDS
;	COMDAT ?Create@?$MemPooler@VCMover@@@@IAEXXZ
_TEXT	SEGMENT PARA USE32 PUBLIC 'CODE'
_TEXT	ENDS
;	COMDAT ??_C@_09PKKCPLIP@bad?5alloc?$AA@
CONST	SEGMENT DWORD USE32 PUBLIC 'CONST'
CONST	ENDS
;	COMDAT ?push_back@?$list@PAXV?$allocator@PAX@std@@@std@@QAEXABQAX@Z
_TEXT	SEGMENT PARA USE32 PUBLIC 'CODE'
_TEXT	ENDS
;	COMDAT ?_Insert@?$list@PAXV?$allocator@PAX@std@@@std@@QAEXViterator@12@ABQAX@Z
_TEXT	SEGMENT PARA USE32 PUBLIC 'CODE'
_TEXT	ENDS
;	COMDAT ?_Mynode@const_iterator@?$list@PAXV?$allocator@PAX@std@@@std@@QBEPAU_Node@?$_List_nod@PAXV?$allocator@PAX@std@@@3@XZ
_TEXT	SEGMENT PARA USE32 PUBLIC 'CODE'
_TEXT	ENDS
;	COMDAT ?_Buynode@?$list@PAXV?$allocator@PAX@std@@@std@@IAEPAU_Node@?$_List_nod@PAXV?$allocator@PAX@std@@@2@PAU342@0ABQAX@Z
_TEXT	SEGMENT PARA USE32 PUBLIC 'CODE'
_TEXT	ENDS
;	COMDAT ??3@YAXPAX0@Z
_TEXT	SEGMENT PARA USE32 PUBLIC 'CODE'
_TEXT	ENDS
;	COMDAT ??0_Node@?$_List_nod@PAXV?$allocator@PAX@std@@@std@@QAE@PAU012@0ABQAX@Z
_TEXT	SEGMENT PARA USE32 PUBLIC 'CODE'
_TEXT	ENDS
;	COMDAT ?_Incsize@?$list@PAXV?$allocator@PAX@std@@@std@@IAEXI@Z
_TEXT	SEGMENT PARA USE32 PUBLIC 'CODE'
_TEXT	ENDS
;	COMDAT ?max_size@?$list@PAXV?$allocator@PAX@std@@@std@@QBEIXZ
_TEXT	SEGMENT PARA USE32 PUBLIC 'CODE'
_TEXT	ENDS
;	COMDAT ?max_size@?$allocator@PAX@std@@QBEIXZ
_TEXT	SEGMENT PARA USE32 PUBLIC 'CODE'
_TEXT	ENDS
;	COMDAT ??0length_error@std@@QAE@ABV?$basic_string@DU?$char_traits@D@std@@V?$allocator@D@2@@1@@Z
_TEXT	SEGMENT PARA USE32 PUBLIC 'CODE'
_TEXT	ENDS
;	COMDAT ??0logic_error@std@@QAE@ABV?$basic_string@DU?$char_traits@D@std@@V?$allocator@D@2@@1@@Z
_TEXT	SEGMENT PARA USE32 PUBLIC 'CODE'
_TEXT	ENDS
;	COMDAT ??_7logic_error@std@@6B@
CONST	SEGMENT DWORD USE32 PUBLIC 'CONST'
CONST	ENDS
;	COMDAT ??_Glogic_error@std@@UAEPAXI@Z
_TEXT	SEGMENT PARA USE32 PUBLIC 'CODE'
_TEXT	ENDS
;	COMDAT ?what@logic_error@std@@UBEPBDXZ
_TEXT	SEGMENT PARA USE32 PUBLIC 'CODE'
_TEXT	ENDS
;	COMDAT ?c_str@?$basic_string@DU?$char_traits@D@std@@V?$allocator@D@2@@std@@QBEPBDXZ
_TEXT	SEGMENT PARA USE32 PUBLIC 'CODE'
_TEXT	ENDS
;	COMDAT ??0?$basic_string@DU?$char_traits@D@std@@V?$allocator@D@2@@std@@QAE@ABV01@@Z
_TEXT	SEGMENT PARA USE32 PUBLIC 'CODE'
_TEXT	ENDS
;	COMDAT ??0?$_String_val@DV?$allocator@D@std@@@std@@IAE@V?$allocator@D@1@@Z
_TEXT	SEGMENT PARA USE32 PUBLIC 'CODE'
_TEXT	ENDS
;	COMDAT ??0?$allocator@D@std@@QAE@ABV01@@Z
_TEXT	SEGMENT PARA USE32 PUBLIC 'CODE'
_TEXT	ENDS
;	COMDAT ?_Tidy@?$basic_string@DU?$char_traits@D@std@@V?$allocator@D@2@@std@@IAEX_NI@Z
_TEXT	SEGMENT PARA USE32 PUBLIC 'CODE'
_TEXT	ENDS
;	COMDAT ?copy@?$char_traits@D@std@@SAPADPADPBDI@Z
_TEXT	SEGMENT PARA USE32 PUBLIC 'CODE'
_TEXT	ENDS
;	COMDAT ?deallocate@?$allocator@D@std@@QAEXPADI@Z
_TEXT	SEGMENT PARA USE32 PUBLIC 'CODE'
_TEXT	ENDS
;	COMDAT ?_Eos@?$basic_string@DU?$char_traits@D@std@@V?$allocator@D@2@@std@@IAEXI@Z
_TEXT	SEGMENT PARA USE32 PUBLIC 'CODE'
_TEXT	ENDS
;	COMDAT ?assign@?$char_traits@D@std@@SAXAADABD@Z
_TEXT	SEGMENT PARA USE32 PUBLIC 'CODE'
_TEXT	ENDS
;	COMDAT ?_Myptr@?$basic_string@DU?$char_traits@D@std@@V?$allocator@D@2@@std@@QAEPADXZ
_TEXT	SEGMENT PARA USE32 PUBLIC 'CODE'
_TEXT	ENDS
;	COMDAT ?assign@?$basic_string@DU?$char_traits@D@std@@V?$allocator@D@2@@std@@QAEAAV12@ABV12@II@Z
_TEXT	SEGMENT PARA USE32 PUBLIC 'CODE'
_TEXT	ENDS
;	COMDAT ?erase@?$basic_string@DU?$char_traits@D@std@@V?$allocator@D@2@@std@@QAEAAV12@II@Z
_TEXT	SEGMENT PARA USE32 PUBLIC 'CODE'
_TEXT	ENDS
;	COMDAT ?move@?$char_traits@D@std@@SAPADPADPBDI@Z
_TEXT	SEGMENT PARA USE32 PUBLIC 'CODE'
_TEXT	ENDS
;	COMDAT ?_Grow@?$basic_string@DU?$char_traits@D@std@@V?$allocator@D@2@@std@@IAE_NI_N@Z
_TEXT	SEGMENT PARA USE32 PUBLIC 'CODE'
_TEXT	ENDS
;	COMDAT ?max_size@?$basic_string@DU?$char_traits@D@std@@V?$allocator@D@2@@std@@QBEIXZ
_TEXT	SEGMENT PARA USE32 PUBLIC 'CODE'
_TEXT	ENDS
;	COMDAT ?max_size@?$allocator@D@std@@QBEIXZ
_TEXT	SEGMENT PARA USE32 PUBLIC 'CODE'
_TEXT	ENDS
;	COMDAT ?_Copy@?$basic_string@DU?$char_traits@D@std@@V?$allocator@D@2@@std@@IAEXII@Z
_TEXT	SEGMENT PARA USE32 PUBLIC 'CODE'
_TEXT	ENDS
;	COMDAT ?allocate@?$allocator@D@std@@QAEPADI@Z
_TEXT	SEGMENT PARA USE32 PUBLIC 'CODE'
_TEXT	ENDS
;	COMDAT ??$_Allocate@D@std@@YAPADIPAD@Z
_TEXT	SEGMENT PARA USE32 PUBLIC 'CODE'
_TEXT	ENDS
;	COMDAT ?npos@?$basic_string@DU?$char_traits@D@std@@V?$allocator@D@2@@std@@2IB
CONST	SEGMENT DWORD USE32 PUBLIC 'CONST'
CONST	ENDS
;	COMDAT ??1logic_error@std@@UAE@XZ
_TEXT	SEGMENT PARA USE32 PUBLIC 'CODE'
_TEXT	ENDS
;	COMDAT ??_7length_error@std@@6B@
CONST	SEGMENT DWORD USE32 PUBLIC 'CONST'
CONST	ENDS
;	COMDAT ??_Glength_error@std@@UAEPAXI@Z
_TEXT	SEGMENT PARA USE32 PUBLIC 'CODE'
_TEXT	ENDS
;	COMDAT ??1length_error@std@@UAE@XZ
_TEXT	SEGMENT PARA USE32 PUBLIC 'CODE'
_TEXT	ENDS
;	COMDAT ??0?$basic_string@DU?$char_traits@D@std@@V?$allocator@D@2@@std@@QAE@PBD@Z
_TEXT	SEGMENT PARA USE32 PUBLIC 'CODE'
_TEXT	ENDS
;	COMDAT ??0?$allocator@D@std@@QAE@XZ
_TEXT	SEGMENT PARA USE32 PUBLIC 'CODE'
_TEXT	ENDS
;	COMDAT ?assign@?$basic_string@DU?$char_traits@D@std@@V?$allocator@D@2@@std@@QAEAAV12@PBD@Z
_TEXT	SEGMENT PARA USE32 PUBLIC 'CODE'
_TEXT	ENDS
;	COMDAT ?assign@?$basic_string@DU?$char_traits@D@std@@V?$allocator@D@2@@std@@QAEAAV12@PBDI@Z
_TEXT	SEGMENT PARA USE32 PUBLIC 'CODE'
_TEXT	ENDS
;	COMDAT ?_Inside@?$basic_string@DU?$char_traits@D@std@@V?$allocator@D@2@@std@@IAE_NPBD@Z
_TEXT	SEGMENT PARA USE32 PUBLIC 'CODE'
_TEXT	ENDS
;	COMDAT ?length@?$char_traits@D@std@@SAIPBD@Z
_TEXT	SEGMENT PARA USE32 PUBLIC 'CODE'
_TEXT	ENDS
;	COMDAT ??_C@_0BB@MOGOBHAF@list?$DMT?$DO?5too?5long?$AA@
CONST	SEGMENT DWORD USE32 PUBLIC 'CONST'
CONST	ENDS
;	COMDAT ??1?$basic_string@DU?$char_traits@D@std@@V?$allocator@D@2@@std@@QAE@XZ
_TEXT	SEGMENT PARA USE32 PUBLIC 'CODE'
_TEXT	ENDS
;	COMDAT __TI3?AVlength_error@std@@
xdata$x	SEGMENT DWORD USE32 PUBLIC 'CONST'
xdata$x	ENDS
;	COMDAT __CTA3?AVlength_error@std@@
xdata$x	SEGMENT DWORD USE32 PUBLIC 'CONST'
xdata$x	ENDS
;	COMDAT __CT??_R0?AVlength_error@std@@@8??0length_error@std@@QAE@ABV01@@Z40
xdata$x	SEGMENT DWORD USE32 PUBLIC 'CONST'
xdata$x	ENDS
;	COMDAT ??_R0?AVlength_error@std@@@8
_DATA	SEGMENT DWORD USE32 PUBLIC 'DATA'
_DATA	ENDS
;	COMDAT ??0length_error@std@@QAE@ABV01@@Z
_TEXT	SEGMENT PARA USE32 PUBLIC 'CODE'
_TEXT	ENDS
;	COMDAT ??0logic_error@std@@QAE@ABV01@@Z
_TEXT	SEGMENT PARA USE32 PUBLIC 'CODE'
_TEXT	ENDS
;	COMDAT __CT??_R0?AVlogic_error@std@@@8??0logic_error@std@@QAE@ABV01@@Z40
xdata$x	SEGMENT DWORD USE32 PUBLIC 'CONST'
xdata$x	ENDS
;	COMDAT ??_R0?AVlogic_error@std@@@8
_DATA	SEGMENT DWORD USE32 PUBLIC 'DATA'
_DATA	ENDS
;	COMDAT __CT??_R0?AVexception@@@8??0exception@@QAE@ABV0@@Z12
xdata$x	SEGMENT DWORD USE32 PUBLIC 'CONST'
xdata$x	ENDS
;	COMDAT ??_R0?AVexception@@@8
_DATA	SEGMENT DWORD USE32 PUBLIC 'DATA'
_DATA	ENDS
;	COMDAT ?end@?$list@PAXV?$allocator@PAX@std@@@std@@QAE?AViterator@12@XZ
_TEXT	SEGMENT PARA USE32 PUBLIC 'CODE'
_TEXT	ENDS
;	COMDAT ??0iterator@?$list@PAXV?$allocator@PAX@std@@@std@@QAE@PAU_Node@?$_List_nod@PAXV?$allocator@PAX@std@@@2@@Z
_TEXT	SEGMENT PARA USE32 PUBLIC 'CODE'
_TEXT	ENDS
;	COMDAT ??0const_iterator@?$list@PAXV?$allocator@PAX@std@@@std@@QAE@PAU_Node@?$_List_nod@PAXV?$allocator@PAX@std@@@2@@Z
_TEXT	SEGMENT PARA USE32 PUBLIC 'CODE'
_TEXT	ENDS
;	COMDAT ?_Myptr@?$basic_string@DU?$char_traits@D@std@@V?$allocator@D@2@@std@@QBEPBDXZ
_TEXT	SEGMENT PARA USE32 PUBLIC 'CODE'
_TEXT	ENDS
;	COMDAT ?size@?$basic_string@DU?$char_traits@D@std@@V?$allocator@D@2@@std@@QBEIXZ
_TEXT	SEGMENT PARA USE32 PUBLIC 'CODE'
_TEXT	ENDS
;	COMDAT ?GetPetId@CMover@@QAEKXZ
_TEXT	SEGMENT PARA USE32 PUBLIC 'CODE'
_TEXT	ENDS
;	COMDAT ?SetPetId@CMover@@QAEXK@Z
_TEXT	SEGMENT PARA USE32 PUBLIC 'CODE'
_TEXT	ENDS
;	COMDAT ?GetStateFlag@CAction@@QAEKXZ
_TEXT	SEGMENT PARA USE32 PUBLIC 'CODE'
_TEXT	ENDS
;	COMDAT ?GetState@CActionMover@@QAEKXZ
_TEXT	SEGMENT PARA USE32 PUBLIC 'CODE'
_TEXT	ENDS
;	COMDAT ?GetGold@CMover@@QAEHXZ
_TEXT	SEGMENT PARA USE32 PUBLIC 'CODE'
_TEXT	ENDS
;	COMDAT ?SetGold@CMover@@QAEXH@Z
_TEXT	SEGMENT PARA USE32 PUBLIC 'CODE'
_TEXT	ENDS
;	COMDAT ?GetSex@CMover@@QAEEXZ
_TEXT	SEGMENT PARA USE32 PUBLIC 'CODE'
_TEXT	ENDS
;	COMDAT ?SetSex@CMover@@QAEXE@Z
_TEXT	SEGMENT PARA USE32 PUBLIC 'CODE'
_TEXT	ENDS
;	COMDAT ?GetLayer@CObj@@QAEHXZ
_TEXT	SEGMENT PARA USE32 PUBLIC 'CODE'
_TEXT	ENDS
;	COMDAT ?SetLayer@CObj@@QAEXH@Z
_TEXT	SEGMENT PARA USE32 PUBLIC 'CODE'
_TEXT	ENDS
;	COMDAT ?GetLevel@CPet@@QAEEXZ
_TEXT	SEGMENT PARA USE32 PUBLIC 'CODE'
_TEXT	ENDS
;	COMDAT ?GetRandomOptItemId@CItemElem@@QAE_JXZ
_TEXT	SEGMENT PARA USE32 PUBLIC 'CODE'
_TEXT	ENDS
;	COMDAT ?GetPiercingSize@CItemElem@@QAEHXZ
_TEXT	SEGMENT PARA USE32 PUBLIC 'CODE'
_TEXT	ENDS
;	COMDAT ?GetPropA@CItemElem@@QAEPAUItemProp@@XZ
_TEXT	SEGMENT PARA USE32 PUBLIC 'CODE'
_TEXT	ENDS
;	COMDAT ?GetItemProp@CProject@@QAEPAUItemProp@@H@Z
_TEXT	SEGMENT PARA USE32 PUBLIC 'CODE'
_TEXT	ENDS
;	COMDAT ?GetAt@?$CFixedArray@UItemProp@@@@QAEPAUItemProp@@K@Z
_TEXT	SEGMENT PARA USE32 PUBLIC 'CODE'
_TEXT	ENDS
;	COMDAT ?IsEmpty@CItemBase@@QAEHXZ
_TEXT	SEGMENT PARA USE32 PUBLIC 'CODE'
_TEXT	ENDS
;	COMDAT ?GetPropA@CMover@@QAEPAUMoverProp@@XZ
_TEXT	SEGMENT PARA USE32 PUBLIC 'CODE'
_TEXT	ENDS
;	COMDAT ?GetMoverProp@CProject@@QAEPAUMoverProp@@H@Z
_TEXT	SEGMENT PARA USE32 PUBLIC 'CODE'
_TEXT	ENDS
;	COMDAT ??_C@_0CL@NHHPIJBJ@CProject?3?3GetMoverProp?5out?5of?5ra@
CONST	SEGMENT DWORD USE32 PUBLIC 'CONST'
CONST	ENDS
;	COMDAT ??3CMover@@SAXPAX@Z
_TEXT	SEGMENT PARA USE32 PUBLIC 'CODE'
_TEXT	ENDS
;	COMDAT ?Free@?$MemPooler@VCMover@@@@QAEHPAVCMover@@@Z
_TEXT	SEGMENT PARA USE32 PUBLIC 'CODE'
_TEXT	ENDS
;	COMDAT ?ClearEquipInfo@CMover@@QAEXXZ
_TEXT	SEGMENT PARA USE32 PUBLIC 'CODE'
_TEXT	ENDS
;	COMDAT ?SetItemContainer@?$CItemContainer@VCItemElem@@@@QAEXKKK@Z
_TEXT	SEGMENT PARA USE32 PUBLIC 'CODE'
_TEXT	ENDS
;	COMDAT ??0CActionMover@@QAE@PAVCMover@@@Z
_TEXT	SEGMENT PARA USE32 PUBLIC 'CODE'
_TEXT	ENDS
;	COMDAT ??0CAction@@QAE@XZ
_TEXT	SEGMENT PARA USE32 PUBLIC 'CODE'
_TEXT	ENDS
;	COMDAT ??_7CAction@@6B@
CONST	SEGMENT DWORD USE32 PUBLIC 'CONST'
CONST	ENDS
;	COMDAT ??_GCAction@@UAEPAXI@Z
_TEXT	SEGMENT PARA USE32 PUBLIC 'CODE'
_TEXT	ENDS
;	COMDAT ??1CAction@@UAE@XZ
_TEXT	SEGMENT PARA USE32 PUBLIC 'CODE'
_TEXT	ENDS
;	COMDAT ??_7CActionMover@@6B@
CONST	SEGMENT DWORD USE32 PUBLIC 'CONST'
CONST	ENDS
;	COMDAT ??_GCActionMover@@UAEPAXI@Z
_TEXT	SEGMENT PARA USE32 PUBLIC 'CODE'
_TEXT	ENDS
;	COMDAT ??1CActionMover@@UAE@XZ
_TEXT	SEGMENT PARA USE32 PUBLIC 'CODE'
_TEXT	ENDS
;	COMDAT ??1CMclCritSec@@UAE@XZ
_TEXT	SEGMENT PARA USE32 PUBLIC 'CODE'
_TEXT	ENDS
;	COMDAT ??_7CMclCritSec@@6B@
CONST	SEGMENT DWORD USE32 PUBLIC 'CONST'
CONST	ENDS
;	COMDAT ??_GCMclCritSec@@UAEPAXI@Z
_TEXT	SEGMENT PARA USE32 PUBLIC 'CODE'
_TEXT	ENDS
;	COMDAT ??0CMclCritSec@@QAE@XZ
_TEXT	SEGMENT PARA USE32 PUBLIC 'CODE'
_TEXT	ENDS
;	COMDAT ??1?$CItemContainer@VCItemElem@@@@UAE@XZ
_TEXT	SEGMENT PARA USE32 PUBLIC 'CODE'
_TEXT	ENDS
;	COMDAT ??_7CMover@@6B@
CONST	SEGMENT DWORD USE32 PUBLIC 'CONST'
CONST	ENDS
;	COMDAT ??_7CItem@@6B@
CONST	SEGMENT DWORD USE32 PUBLIC 'CONST'
CONST	ENDS
;	COMDAT ??1CCtrl@@UAE@XZ
_TEXT	SEGMENT PARA USE32 PUBLIC 'CODE'
_TEXT	ENDS
;	COMDAT ??_7CItemElem@@6B@
CONST	SEGMENT DWORD USE32 PUBLIC 'CONST'
CONST	ENDS
;	COMDAT ??1CItemBase@@UAE@XZ
_TEXT	SEGMENT PARA USE32 PUBLIC 'CODE'
_TEXT	ENDS
;	COMDAT ??_7CItemBase@@6B@
CONST	SEGMENT DWORD USE32 PUBLIC 'CONST'
CONST	ENDS
;	COMDAT ??_GCItemBase@@UAEPAXI@Z
_TEXT	SEGMENT PARA USE32 PUBLIC 'CODE'
_TEXT	ENDS
;	COMDAT ??_7CCtrl@@6B@
CONST	SEGMENT DWORD USE32 PUBLIC 'CONST'
CONST	ENDS
;	COMDAT ??_GCCtrl@@UAEPAXI@Z
_TEXT	SEGMENT PARA USE32 PUBLIC 'CODE'
_TEXT	ENDS
;	COMDAT ??1CObj@@UAE@XZ
_TEXT	SEGMENT PARA USE32 PUBLIC 'CODE'
_TEXT	ENDS
;	COMDAT ??0D3DXVECTOR3@@QAE@MMM@Z
_TEXT	SEGMENT PARA USE32 PUBLIC 'CODE'
_TEXT	ENDS
;	COMDAT ??0D3DXVECTOR3@@QAE@XZ
_TEXT	SEGMENT PARA USE32 PUBLIC 'CODE'
_TEXT	ENDS
;	COMDAT ??_7CObj@@6B@
CONST	SEGMENT DWORD USE32 PUBLIC 'CONST'
CONST	ENDS
;	COMDAT ??_GCObj@@UAEPAXI@Z
_TEXT	SEGMENT PARA USE32 PUBLIC 'CODE'
_TEXT	ENDS
;	COMDAT ??_7CSerialNumber@@6B@
CONST	SEGMENT DWORD USE32 PUBLIC 'CONST'
CONST	ENDS
sxdata	SEGMENT DWORD USE32 'SXDATA'
sxdata	ENDS
FLAT	GROUP _DATA, CONST, _BSS
	ASSUME	CS: FLAT, DS: FLAT, SS: FLAT
endif

INCLUDELIB LIBCMT
INCLUDELIB OLDNAMES

PUBLIC	?m_nMethod@CObj@@2HA				; CObj::m_nMethod
_BSS	SEGMENT
?m_nMethod@CObj@@2HA DD 01H DUP (?)			; CObj::m_nMethod
_BSS	ENDS
PUBLIC	??2@YAPAXIPAX@Z					; operator new
; Function compile flags: /Ogty
; File c:\program files\microsoft visual studio .net 2003\vc7\include\new.h
;	COMDAT ??2@YAPAXIPAX@Z
_TEXT	SEGMENT
___formal$ = 8						; size = 4
__P$ = 12						; size = 4
??2@YAPAXIPAX@Z PROC NEAR				; operator new, COMDAT

; 109  :         {return (_P); }

  00000	8b 44 24 08	 mov	 eax, DWORD PTR __P$[esp-4]
  00004	c3		 ret	 0
??2@YAPAXIPAX@Z ENDP					; operator new
_TEXT	ENDS
PUBLIC	??3@YAXPAX0@Z					; operator delete
; Function compile flags: /Ogty
;	COMDAT ??3@YAXPAX0@Z
_TEXT	SEGMENT
___formal$ = 8						; size = 4
___formal$ = 12						; size = 4
??3@YAXPAX0@Z PROC NEAR					; operator delete, COMDAT

; 112  :         {return; }

  00000	c3		 ret	 0
??3@YAXPAX0@Z ENDP					; operator delete
_TEXT	ENDS
PUBLIC	??0CItemBase@@QAE@XZ				; CItemBase::CItemBase
PUBLIC	?Empty@CItemBase@@UAEXXZ			; CItemBase::Empty
PUBLIC	??4CItemBase@@UAEAAV0@AAV0@@Z			; CItemBase::operator=
PUBLIC	??_7CItemBase@@6B@				; CItemBase::`vftable'
PUBLIC	??_GCItemBase@@UAEPAXI@Z			; CItemBase::`scalar deleting destructor'
EXTRN	?Serialize@CItemBase@@UAEXAAVCAr@@@Z:NEAR	; CItemBase::Serialize
EXTRN	??_ECItemBase@@UAEPAXI@Z:NEAR			; CItemBase::`vector deleting destructor'
;	COMDAT ??_7CItemBase@@6B@
; File c:\documents and settings\test\mes documents\source\virtuos_v17\build\program\_network\objects\obj.cpp
CONST	SEGMENT
??_7CItemBase@@6B@ DD FLAT:??_ECItemBase@@UAEPAXI@Z	; CItemBase::`vftable'
	DD	FLAT:?Empty@CItemBase@@UAEXXZ
	DD	FLAT:??4CItemBase@@UAEAAV0@AAV0@@Z
	DD	FLAT:?Serialize@CItemBase@@UAEXAAVCAr@@@Z
; Function compile flags: /Ogty
CONST	ENDS
;	COMDAT ??0CItemBase@@QAE@XZ
_TEXT	SEGMENT
??0CItemBase@@QAE@XZ PROC NEAR				; CItemBase::CItemBase, COMDAT
; _this$ = ecx

; 34   : {

  00000	8b c1		 mov	 eax, ecx

; 35   : 	memset( m_szItemText, 0, sizeof(m_szItemText) );

  00002	33 c9		 xor	 ecx, ecx
  00004	c7 00 00 00 00
	00		 mov	 DWORD PTR [eax], OFFSET FLAT:??_7CItemBase@@6B@
  0000a	8d 50 0c	 lea	 edx, DWORD PTR [eax+12]
  0000d	89 0a		 mov	 DWORD PTR [edx], ecx
  0000f	89 4a 04	 mov	 DWORD PTR [edx+4], ecx
  00012	89 4a 08	 mov	 DWORD PTR [edx+8], ecx
  00015	89 4a 0c	 mov	 DWORD PTR [edx+12], ecx
  00018	89 4a 10	 mov	 DWORD PTR [edx+16], ecx
  0001b	89 4a 14	 mov	 DWORD PTR [edx+20], ecx
  0001e	89 4a 18	 mov	 DWORD PTR [edx+24], ecx
  00021	89 4a 1c	 mov	 DWORD PTR [edx+28], ecx

; 36   : 	m_dwItemId = 0;

  00024	33 d2		 xor	 edx, edx

; 37   : 	m_dwObjId = NULL_ID;

  00026	83 c9 ff	 or	 ecx, -1
  00029	89 50 08	 mov	 DWORD PTR [eax+8], edx
  0002c	89 48 04	 mov	 DWORD PTR [eax+4], ecx

; 38   : 	m_dwObjIndex	= NULL_ID;

  0002f	89 48 2c	 mov	 DWORD PTR [eax+44], ecx

; 39   : 	m_liSerialNumber	= 0;

  00032	89 50 30	 mov	 DWORD PTR [eax+48], edx

; 40   : }

  00035	c3		 ret	 0
??0CItemBase@@QAE@XZ ENDP				; CItemBase::CItemBase
_TEXT	ENDS
PUBLIC	?NormalizePlayerData@CMover@@QAEHXZ		; CMover::NormalizePlayerData
; Function compile flags: /Ogty
;	COMDAT ?NormalizePlayerData@CMover@@QAEHXZ
_TEXT	SEGMENT
_nNumberofIndex$ = -128					; size = 4
_adwEquipment$ = -124					; size = 124
?NormalizePlayerData@CMover@@QAEHXZ PROC NEAR		; CMover::NormalizePlayerData, COMDAT
; _this$ = ecx

; 428  : {

  00000	81 ec 80 00 00
	00		 sub	 esp, 128		; 00000080H
  00006	53		 push	 ebx
  00007	55		 push	 ebp
  00008	8b d9		 mov	 ebx, ecx

; 429  : 	int nMax	= m_Inventory.m_dwItemMax;

  0000a	8b 93 24 41 00
	00		 mov	 edx, DWORD PTR [ebx+16676]

; 430  : 	int nNumberofIndex	= m_Inventory.m_dwIndexNum;

  00010	8b 83 1c 41 00
	00		 mov	 eax, DWORD PTR [ebx+16668]
  00016	56		 push	 esi

; 431  : 	DWORD dwId;
; 432  : 	for( int i = 0; i < nMax; i++ )

  00017	33 f6		 xor	 esi, esi
  00019	85 d2		 test	 edx, edx
  0001b	57		 push	 edi
  0001c	89 44 24 10	 mov	 DWORD PTR _nNumberofIndex$[esp+144], eax
  00020	0f 8e a6 00 00
	00		 jle	 $L186932
  00026	eb 08 8d a4 24
	00 00 00 00 90	 npad	 10
$L186930:
  00030	8b 8b 18 41 00
	00		 mov	 ecx, DWORD PTR [ebx+16664]

; 433  : 	{
; 434  : 		dwId	= m_Inventory.m_apIndex[i];

  00036	8b 04 b1	 mov	 eax, DWORD PTR [ecx+esi*4]

; 435  : 		if( dwId != NULL_ID )

  00039	83 f8 ff	 cmp	 eax, -1
  0003c	8d 2c b1	 lea	 ebp, DWORD PTR [ecx+esi*4]
  0003f	0f 84 7e 00 00
	00		 je	 $L186931

; 436  : 		{
; 437  : 			if( m_Inventory.m_apItem[dwId].m_dwObjIndex != i )

  00045	8b bb 20 41 00
	00		 mov	 edi, DWORD PTR [ebx+16672]
  0004b	8d 04 80	 lea	 eax, DWORD PTR [eax+eax*4]
  0004e	c1 e0 05	 shl	 eax, 5
  00051	39 74 38 2c	 cmp	 DWORD PTR [eax+edi+44], esi
  00055	74 6c		 je	 SHORT $L186931

; 438  : 			{
; 439  : 				
; 440  : 				DWORD dwIndex	= NULL_ID;
; 441  : 				for( int j = 0; j < nMax; j++ )

  00057	33 c0		 xor	 eax, eax
  00059	83 c7 2c	 add	 edi, 44			; 0000002cH
  0005c	8b cf		 mov	 ecx, edi
  0005e	8b ff		 npad	 2
$L186937:

; 442  : 				{	
; 443  : 					if( m_Inventory.m_apItem[j].m_dwObjIndex == i )

  00060	39 31		 cmp	 DWORD PTR [ecx], esi
  00062	74 1a		 je	 SHORT $L187666
  00064	40		 inc	 eax
  00065	81 c1 a0 00 00
	00		 add	 ecx, 160		; 000000a0H
  0006b	3b c2		 cmp	 eax, edx
  0006d	7c f1		 jl	 SHORT $L186937
$L186941:

; 454  : 				{
; 455  : 					if( i >= nNumberofIndex )

  0006f	3b 74 24 10	 cmp	 esi, DWORD PTR _nNumberofIndex$[esp+144]
  00073	7c 13		 jl	 SHORT $L186943

; 456  : 					{
; 457  : 						m_Inventory.m_apIndex[i]	= NULL_ID;

  00075	c7 45 00 ff ff
	ff ff		 mov	 DWORD PTR [ebp], -1

; 458  : 					}
; 459  : 					else

  0007c	eb 45		 jmp	 SHORT $L186931
$L187666:

; 444  : 					{
; 445  : 						dwIndex	= j;
; 446  : 						break;
; 447  : 					}
; 448  : 				}
; 449  : 				if( dwIndex != NULL_ID )

  0007e	83 f8 ff	 cmp	 eax, -1
  00081	74 ec		 je	 SHORT $L186941

; 450  : 				{
; 451  : 					m_Inventory.m_apIndex[i]	= dwIndex;

  00083	89 45 00	 mov	 DWORD PTR [ebp], eax

; 452  : 				}
; 453  : 				else

  00086	eb 3b		 jmp	 SHORT $L186931
$L186943:

; 460  : 					{
; 461  : 						for( j = 0; j < nMax; j++ )

  00088	33 c0		 xor	 eax, eax
  0008a	8b cf		 mov	 ecx, edi
  0008c	8d 64 24 00	 npad	 4
$L186945:

; 462  : 						{
; 463  : 							if( m_Inventory.m_apItem[j].m_dwObjIndex == NULL_ID )

  00090	83 39 ff	 cmp	 DWORD PTR [ecx], -1
  00093	74 0d		 je	 SHORT $L187667
  00095	40		 inc	 eax
  00096	81 c1 a0 00 00
	00		 add	 ecx, 160		; 000000a0H
  0009c	3b c2		 cmp	 eax, edx
  0009e	7c f0		 jl	 SHORT $L186945

; 467  : 								break;
; 468  : 							}
; 469  : 						}
; 470  : 						if( j == nMax ) {

  000a0	eb 19		 jmp	 SHORT $L186947
$L187667:

; 464  : 							{
; 465  : 								m_Inventory.m_apItem[j].m_dwObjIndex	= i;

  000a2	8b 8b 20 41 00
	00		 mov	 ecx, DWORD PTR [ebx+16672]
  000a8	8d 3c 80	 lea	 edi, DWORD PTR [eax+eax*4]
  000ab	c1 e7 05	 shl	 edi, 5
  000ae	89 74 0f 2c	 mov	 DWORD PTR [edi+ecx+44], esi

; 466  : 								m_Inventory.m_apIndex[i]	= j;

  000b2	8b 8b 18 41 00
	00		 mov	 ecx, DWORD PTR [ebx+16664]
  000b8	89 04 b1	 mov	 DWORD PTR [ecx+esi*4], eax
$L186947:

; 467  : 								break;
; 468  : 							}
; 469  : 						}
; 470  : 						if( j == nMax ) {

  000bb	3b c2		 cmp	 eax, edx
  000bd	0f 84 a1 00 00
	00		 je	 $L187668
$L186931:

; 431  : 	DWORD dwId;
; 432  : 	for( int i = 0; i < nMax; i++ )

  000c3	46		 inc	 esi
  000c4	3b f2		 cmp	 esi, edx
  000c6	0f 8c 64 ff ff
	ff		 jl	 $L186930
$L186932:

; 473  : 						}
; 474  : 					}
; 475  : 				}
; 476  : 				
; 477  : 			}
; 478  : 		}
; 479  : 	}
; 480  : 	
; 481  : 	DWORD dwObjIndex;
; 482  : 	for( i = 0; i < nMax; i++ )

  000cc	33 f6		 xor	 esi, esi
  000ce	85 d2		 test	 edx, edx
  000d0	7e 30		 jle	 SHORT $L186954
  000d2	33 ff		 xor	 edi, edi
$L186952:

; 483  : 	{
; 484  : 		dwObjIndex	= m_Inventory.m_apItem[i].m_dwObjIndex;

  000d4	8b 83 20 41 00
	00		 mov	 eax, DWORD PTR [ebx+16672]
  000da	8d 4c 38 2c	 lea	 ecx, DWORD PTR [eax+edi+44]
  000de	8b 01		 mov	 eax, DWORD PTR [ecx]

; 485  : 		if( dwObjIndex != NULL_ID )

  000e0	83 f8 ff	 cmp	 eax, -1
  000e3	74 12		 je	 SHORT $L186953

; 486  : 		{
; 487  : 			if( m_Inventory.m_apIndex[dwObjIndex] != i )

  000e5	8b ab 18 41 00
	00		 mov	 ebp, DWORD PTR [ebx+16664]
  000eb	39 74 85 00	 cmp	 DWORD PTR [ebp+eax*4], esi
  000ef	74 06		 je	 SHORT $L186953

; 488  : 				m_Inventory.m_apItem[i].m_dwObjIndex	= NULL_ID;

  000f1	c7 01 ff ff ff
	ff		 mov	 DWORD PTR [ecx], -1
$L186953:

; 473  : 						}
; 474  : 					}
; 475  : 				}
; 476  : 				
; 477  : 			}
; 478  : 		}
; 479  : 	}
; 480  : 	
; 481  : 	DWORD dwObjIndex;
; 482  : 	for( i = 0; i < nMax; i++ )

  000f7	46		 inc	 esi
  000f8	81 c7 a0 00 00
	00		 add	 edi, 160		; 000000a0H
  000fe	3b f2		 cmp	 esi, edx
  00100	7c d2		 jl	 SHORT $L186952
$L186954:

; 489  : 		}
; 490  : 	}
; 491  : 	
; 492  : 	DWORD adwEquipment[MAX_HUMAN_PARTS];
; 493  : 	memset( adwEquipment, 0xff, sizeof(DWORD) * MAX_HUMAN_PARTS );

  00102	83 c8 ff	 or	 eax, -1
  00105	b9 1f 00 00 00	 mov	 ecx, 31			; 0000001fH
  0010a	8d 7c 24 14	 lea	 edi, DWORD PTR _adwEquipment$[esp+144]
  0010e	f3 ab		 rep stosd

; 494  : 	for( i = nNumberofIndex; i < nMax; i++ )

  00110	8b 4c 24 10	 mov	 ecx, DWORD PTR _nNumberofIndex$[esp+144]
  00114	3b ca		 cmp	 ecx, edx
  00116	7d 21		 jge	 SHORT $L186961
  00118	8b 83 18 41 00
	00		 mov	 eax, DWORD PTR [ebx+16664]
  0011e	8d 04 88	 lea	 eax, DWORD PTR [eax+ecx*4]
  00121	8d 74 24 14	 lea	 esi, DWORD PTR _adwEquipment$[esp+144]
  00125	2b d1		 sub	 edx, ecx
$L186959:

; 495  : 	{
; 496  : 		dwId	= m_Inventory.m_apIndex[i];

  00127	8b 08		 mov	 ecx, DWORD PTR [eax]

; 497  : 		if( dwId != NULL_ID )

  00129	83 f9 ff	 cmp	 ecx, -1
  0012c	74 02		 je	 SHORT $L186960

; 498  : 			adwEquipment[i - nNumberofIndex]	= dwId;

  0012e	89 0e		 mov	 DWORD PTR [esi], ecx
$L186960:

; 494  : 	for( i = nNumberofIndex; i < nMax; i++ )

  00130	83 c0 04	 add	 eax, 4
  00133	83 c6 04	 add	 esi, 4
  00136	4a		 dec	 edx
  00137	75 ee		 jne	 SHORT $L186959
$L186961:

; 499  : 	}
; 500  : 	for( i = 0; i < MAX_HUMAN_PARTS; i++ )

  00139	33 c0		 xor	 eax, eax
  0013b	8d 8b 24 45 00
	00		 lea	 ecx, DWORD PTR [ebx+17700]
$L186963:

; 501  : 	{
; 502  : 		if( m_aEquipInfo[i].dwId != adwEquipment[i] )

  00141	8b 54 84 14	 mov	 edx, DWORD PTR _adwEquipment$[esp+eax*4+144]
  00145	39 11		 cmp	 DWORD PTR [ecx], edx
  00147	74 02		 je	 SHORT $L186964

; 503  : 			m_aEquipInfo[i].dwId	= adwEquipment[i];

  00149	89 11		 mov	 DWORD PTR [ecx], edx
$L186964:

; 499  : 	}
; 500  : 	for( i = 0; i < MAX_HUMAN_PARTS; i++ )

  0014b	40		 inc	 eax
  0014c	83 c1 0c	 add	 ecx, 12			; 0000000cH
  0014f	83 f8 1f	 cmp	 eax, 31			; 0000001fH
  00152	7c ed		 jl	 SHORT $L186963
  00154	5f		 pop	 edi
  00155	5e		 pop	 esi
  00156	5d		 pop	 ebp

; 504  : 	}
; 505  : 	return TRUE;

  00157	b8 01 00 00 00	 mov	 eax, 1
  0015c	5b		 pop	 ebx

; 506  : }

  0015d	81 c4 80 00 00
	00		 add	 esp, 128		; 00000080H
  00163	c3		 ret	 0
$L187668:
  00164	5f		 pop	 edi
  00165	5e		 pop	 esi
  00166	5d		 pop	 ebp

; 471  : 							ASSERT( 0 );
; 472  : 							return FALSE;

  00167	33 c0		 xor	 eax, eax
  00169	5b		 pop	 ebx

; 506  : }

  0016a	81 c4 80 00 00
	00		 add	 esp, 128		; 00000080H
  00170	c3		 ret	 0
?NormalizePlayerData@CMover@@QAEHXZ ENDP		; CMover::NormalizePlayerData
; Function compile flags: /Ogty
_TEXT	ENDS
;	COMDAT ??4CItemBase@@UAEAAV0@AAV0@@Z
_TEXT	SEGMENT
_ib$ = 8						; size = 4
??4CItemBase@@UAEAAV0@AAV0@@Z PROC NEAR			; CItemBase::operator=, COMDAT
; _this$ = ecx

; 695  : {

  00000	8b c1		 mov	 eax, ecx

; 696  : 	_tcscpy( m_szItemText, ib.m_szItemText );

  00002	8b 4c 24 04	 mov	 ecx, DWORD PTR _ib$[esp-4]
  00006	53		 push	 ebx
  00007	56		 push	 esi
  00008	8d 51 0c	 lea	 edx, DWORD PTR [ecx+12]
  0000b	8d 70 0c	 lea	 esi, DWORD PTR [eax+12]
  0000e	2b f2		 sub	 esi, edx
$L187678:
  00010	8a 1a		 mov	 bl, BYTE PTR [edx]
  00012	88 1c 16	 mov	 BYTE PTR [esi+edx], bl
  00015	42		 inc	 edx
  00016	84 db		 test	 bl, bl
  00018	75 f6		 jne	 SHORT $L187678

; 697  : 	m_dwItemId	= ib.m_dwItemId;

  0001a	8b 51 08	 mov	 edx, DWORD PTR [ecx+8]
  0001d	89 50 08	 mov	 DWORD PTR [eax+8], edx

; 698  : 	m_liSerialNumber	= ib.m_liSerialNumber;

  00020	8b 49 30	 mov	 ecx, DWORD PTR [ecx+48]
  00023	5e		 pop	 esi
  00024	89 48 30	 mov	 DWORD PTR [eax+48], ecx
  00027	5b		 pop	 ebx

; 699  : 	return *this;
; 700  : }

  00028	c2 04 00	 ret	 4
??4CItemBase@@UAEAAV0@AAV0@@Z ENDP			; CItemBase::operator=
_TEXT	ENDS
PUBLIC	?PeriodTick@CMover@@QAEXXZ			; CMover::PeriodTick
EXTRN	__imp__GetTickCount@0:NEAR
; Function compile flags: /Ogty
;	COMDAT ?PeriodTick@CMover@@QAEXXZ
_TEXT	SEGMENT
?PeriodTick@CMover@@QAEXXZ PROC NEAR			; CMover::PeriodTick, COMDAT
; _this$ = ecx

; 894  : {

  00000	56		 push	 esi
  00001	8b f1		 mov	 esi, ecx

; 895  : 	char ch	= m_dwPeriodicTick == 0 ? 'O': 'P';

  00003	8b 96 ac 46 00
	00		 mov	 edx, DWORD PTR [esi+18092]

; 896  : 	BOOL bPut	= ( ch != 'P' );

  00009	33 c0		 xor	 eax, eax
  0000b	85 d2		 test	 edx, edx
  0000d	0f 94 c0	 sete	 al
  00010	57		 push	 edi
  00011	8b f8		 mov	 edi, eax

; 897  : 	DWORD dwTick	= GetTickCount();

  00013	ff 15 00 00 00
	00		 call	 DWORD PTR __imp__GetTickCount@0

; 898  : 	if( !bPut )

  00019	85 ff		 test	 edi, edi
  0001b	75 08		 jne	 SHORT $L187682

; 899  : 	{
; 900  : 		if( m_dwPeriodicTick < dwTick )

  0001d	39 86 ac 46 00
	00		 cmp	 DWORD PTR [esi+18092], eax
  00023	73 0b		 jae	 SHORT $L187064
$L187682:

; 901  : 			bPut	= TRUE;
; 902  : 	}
; 903  : 	if( bPut )
; 904  : 		m_dwPeriodicTick	= dwTick + MIN( 120 );

  00025	05 00 dd 6d 00	 add	 eax, 7200000		; 006ddd00H
  0002a	89 86 ac 46 00
	00		 mov	 DWORD PTR [esi+18092], eax
$L187064:
  00030	5f		 pop	 edi
  00031	5e		 pop	 esi

; 905  : }

  00032	c3		 ret	 0
?PeriodTick@CMover@@QAEXXZ ENDP				; CMover::PeriodTick
_TEXT	ENDS
PUBLIC	?RemoveQuest@CMover@@QAEHH@Z			; CMover::RemoveQuest
; Function compile flags: /Ogty
;	COMDAT ?RemoveQuest@CMover@@QAEHH@Z
_TEXT	SEGMENT
_nQuestId$ = 8						; size = 4
?RemoveQuest@CMover@@QAEHH@Z PROC NEAR			; CMover::RemoveQuest, COMDAT
; _this$ = ecx

; 909  : {

  00000	53		 push	 ebx

; 910  : 	BOOL	bRemove	= FALSE;
; 911  : 	for( int i = 0; i < m_nQuestSize; i++ )

  00001	8b 5c 24 08	 mov	 ebx, DWORD PTR _nQuestId$[esp]
  00005	55		 push	 ebp
  00006	56		 push	 esi
  00007	57		 push	 edi
  00008	0f b6 b9 a8 46
	00 00		 movzx	 edi, BYTE PTR [ecx+18088]
  0000f	33 c0		 xor	 eax, eax
  00011	33 d2		 xor	 edx, edx
  00013	85 ff		 test	 edi, edi
  00015	7e 62		 jle	 SHORT $L187074
  00017	8b b1 a0 46 00
	00		 mov	 esi, DWORD PTR [ecx+18080]
  0001d	83 c6 04	 add	 esi, 4
$L187072:

; 912  : 	{
; 913  : 		if( m_aQuest[ i ].m_wId == nQuestId )

  00020	0f b7 2e	 movzx	 ebp, WORD PTR [esi]
  00023	3b eb		 cmp	 ebp, ebx
  00025	74 11		 je	 SHORT $L187691
  00027	0f b6 a9 a8 46
	00 00		 movzx	 ebp, BYTE PTR [ecx+18088]
  0002e	42		 inc	 edx
  0002f	83 c6 0c	 add	 esi, 12			; 0000000cH
  00032	3b d5		 cmp	 edx, ebp
  00034	7c ea		 jl	 SHORT $L187072

; 935  : 	{
; 936  : 		if( m_aCheckedQuest[ i ] == nQuestId )

  00036	eb 41		 jmp	 SHORT $L187074
$L187691:

; 914  : 		{
; 915  : 			for( ; i < m_nQuestSize - 1; i++ )

  00038	4f		 dec	 edi
  00039	3b d7		 cmp	 edx, edi
  0003b	7d 31		 jge	 SHORT $L187078
  0003d	8d 34 52	 lea	 esi, DWORD PTR [edx+edx*2]
  00040	c1 e6 02	 shl	 esi, 2
$L187076:

; 916  : 				m_aQuest[ i ] = m_aQuest[ i + 1 ];

  00043	8b 81 a0 46 00
	00		 mov	 eax, DWORD PTR [ecx+18080]
  00049	03 c6		 add	 eax, esi
  0004b	8d 78 0c	 lea	 edi, DWORD PTR [eax+12]
  0004e	8b 2f		 mov	 ebp, DWORD PTR [edi]
  00050	89 28		 mov	 DWORD PTR [eax], ebp
  00052	8b 6f 04	 mov	 ebp, DWORD PTR [edi+4]
  00055	89 68 04	 mov	 DWORD PTR [eax+4], ebp
  00058	8b 7f 08	 mov	 edi, DWORD PTR [edi+8]
  0005b	89 78 08	 mov	 DWORD PTR [eax+8], edi
  0005e	0f b6 81 a8 46
	00 00		 movzx	 eax, BYTE PTR [ecx+18088]
  00065	42		 inc	 edx
  00066	83 c6 0c	 add	 esi, 12			; 0000000cH
  00069	48		 dec	 eax
  0006a	3b d0		 cmp	 edx, eax
  0006c	7c d5		 jl	 SHORT $L187076
$L187078:

; 917  : 			m_nQuestSize--;

  0006e	fe 89 a8 46 00
	00		 dec	 BYTE PTR [ecx+18088]

; 918  : 			bRemove	= TRUE;

  00074	b8 01 00 00 00	 mov	 eax, 1
$L187074:

; 919  : 			break;
; 920  : 		}
; 921  : 	}
; 922  : 	for( i = 0; i < m_nCompleteQuestSize; i++ )

  00079	0f b6 b9 a9 46
	00 00		 movzx	 edi, BYTE PTR [ecx+18089]
  00080	33 d2		 xor	 edx, edx
  00082	85 ff		 test	 edi, edi
  00084	7e 53		 jle	 SHORT $L187081
  00086	8b b1 a4 46 00
	00		 mov	 esi, DWORD PTR [ecx+18084]
  0008c	8d 64 24 00	 npad	 4
$L187079:

; 923  : 	{
; 924  : 		if( m_aCompleteQuest[ i ] == nQuestId )

  00090	0f b7 2e	 movzx	 ebp, WORD PTR [esi]
  00093	3b eb		 cmp	 ebp, ebx
  00095	74 11		 je	 SHORT $L187692
  00097	0f b6 a9 a9 46
	00 00		 movzx	 ebp, BYTE PTR [ecx+18089]
  0009e	42		 inc	 edx
  0009f	83 c6 02	 add	 esi, 2
  000a2	3b d5		 cmp	 edx, ebp
  000a4	7c ea		 jl	 SHORT $L187079

; 935  : 	{
; 936  : 		if( m_aCheckedQuest[ i ] == nQuestId )

  000a6	eb 31		 jmp	 SHORT $L187081
$L187692:

; 925  : 		{
; 926  : 			for( ; i < m_nCompleteQuestSize - 1; i++ )

  000a8	4f		 dec	 edi
  000a9	3b d7		 cmp	 edx, edi
  000ab	7d 21		 jge	 SHORT $L187085
  000ad	8d 49 00	 npad	 3
$L187083:
  000b0	8b 81 a4 46 00
	00		 mov	 eax, DWORD PTR [ecx+18084]

; 927  : 				m_aCompleteQuest[ i ] = m_aCompleteQuest[ i + 1 ];

  000b6	66 8b 74 50 02	 mov	 si, WORD PTR [eax+edx*2+2]
  000bb	8d 04 50	 lea	 eax, DWORD PTR [eax+edx*2]
  000be	66 89 30	 mov	 WORD PTR [eax], si
  000c1	0f b6 81 a9 46
	00 00		 movzx	 eax, BYTE PTR [ecx+18089]
  000c8	42		 inc	 edx
  000c9	48		 dec	 eax
  000ca	3b d0		 cmp	 edx, eax
  000cc	7c e2		 jl	 SHORT $L187083
$L187085:

; 928  : 			m_nCompleteQuestSize--;

  000ce	fe 89 a9 46 00
	00		 dec	 BYTE PTR [ecx+18089]

; 929  : 			bRemove	= TRUE;

  000d4	b8 01 00 00 00	 mov	 eax, 1
$L187081:

; 930  : 			break;
; 931  : 		}
; 932  : 	}
; 933  : #if __VER >= 15 // __IMPROVE_QUEST_INTERFACE
; 934  : 	for( i = 0; i < m_nCheckedQuestSize; ++i )

  000d9	0f b6 b9 c0 46
	00 00		 movzx	 edi, BYTE PTR [ecx+18112]
  000e0	33 d2		 xor	 edx, edx
  000e2	85 ff		 test	 edi, edi
  000e4	7e 6c		 jle	 SHORT $L187088
  000e6	8b b1 bc 46 00
	00		 mov	 esi, DWORD PTR [ecx+18108]
  000ec	8d 64 24 00	 npad	 4
$L187086:

; 935  : 	{
; 936  : 		if( m_aCheckedQuest[ i ] == nQuestId )

  000f0	0f b7 2e	 movzx	 ebp, WORD PTR [esi]
  000f3	3b eb		 cmp	 ebp, ebx
  000f5	74 16		 je	 SHORT $L187693
  000f7	0f b6 a9 c0 46
	00 00		 movzx	 ebp, BYTE PTR [ecx+18112]
  000fe	42		 inc	 edx
  000ff	83 c6 02	 add	 esi, 2
  00102	3b d5		 cmp	 edx, ebp
  00104	7c ea		 jl	 SHORT $L187086
  00106	5f		 pop	 edi
  00107	5e		 pop	 esi
  00108	5d		 pop	 ebp
  00109	5b		 pop	 ebx

; 942  : 			break;
; 943  : 		}
; 944  : 	}
; 945  : #endif // __IMPROVE_QUEST_INTERFACE
; 946  : 	return bRemove;
; 947  : }

  0010a	c2 04 00	 ret	 4
$L187693:

; 937  : 		{
; 938  : 			for( ; i < m_nCheckedQuestSize - 1; ++i )

  0010d	4f		 dec	 edi
  0010e	3b d7		 cmp	 edx, edi
  00110	7d 1e		 jge	 SHORT $L187092
$L187090:
  00112	8b 81 bc 46 00
	00		 mov	 eax, DWORD PTR [ecx+18108]

; 939  : 				m_aCheckedQuest[ i ] = m_aCheckedQuest[ i + 1 ];

  00118	66 8b 74 50 02	 mov	 si, WORD PTR [eax+edx*2+2]
  0011d	8d 04 50	 lea	 eax, DWORD PTR [eax+edx*2]
  00120	66 89 30	 mov	 WORD PTR [eax], si
  00123	0f b6 81 c0 46
	00 00		 movzx	 eax, BYTE PTR [ecx+18112]
  0012a	42		 inc	 edx
  0012b	48		 dec	 eax
  0012c	3b d0		 cmp	 edx, eax
  0012e	7c e2		 jl	 SHORT $L187090
$L187092:

; 940  : 			m_aCheckedQuest[ --m_nCheckedQuestSize ] = 0;

  00130	8a 81 c0 46 00
	00		 mov	 al, BYTE PTR [ecx+18112]
  00136	fe c8		 dec	 al
  00138	0f b6 d0	 movzx	 edx, al
  0013b	88 81 c0 46 00
	00		 mov	 BYTE PTR [ecx+18112], al
  00141	8b 81 bc 46 00
	00		 mov	 eax, DWORD PTR [ecx+18108]
  00147	66 c7 04 50 00
	00		 mov	 WORD PTR [eax+edx*2], 0

; 941  : 			bRemove	= TRUE;

  0014d	b8 01 00 00 00	 mov	 eax, 1
$L187088:
  00152	5f		 pop	 edi
  00153	5e		 pop	 esi
  00154	5d		 pop	 ebp
  00155	5b		 pop	 ebx

; 942  : 			break;
; 943  : 		}
; 944  : 	}
; 945  : #endif // __IMPROVE_QUEST_INTERFACE
; 946  : 	return bRemove;
; 947  : }

  00156	c2 04 00	 ret	 4
?RemoveQuest@CMover@@QAEHH@Z ENDP			; CMover::RemoveQuest
_TEXT	ENDS
PUBLIC	??0?$allocator@PAX@std@@QAE@XZ			; std::allocator<void *>::allocator<void *>
; Function compile flags: /Ogty
; File c:\program files\microsoft visual studio .net 2003\vc7\include\xmemory
;	COMDAT ??0?$allocator@PAX@std@@QAE@XZ
_TEXT	SEGMENT
??0?$allocator@PAX@std@@QAE@XZ PROC NEAR		; std::allocator<void *>::allocator<void *>, COMDAT
; _this$ = ecx

; 111  : 	allocator()

  00000	8b c1		 mov	 eax, ecx

; 112  : 		{	// construct default allocator (do nothing)
; 113  : 		}

  00002	c3		 ret	 0
??0?$allocator@PAX@std@@QAE@XZ ENDP			; std::allocator<void *>::allocator<void *>
_TEXT	ENDS
PUBLIC	??0?$allocator@PAX@std@@QAE@ABV01@@Z		; std::allocator<void *>::allocator<void *>
; Function compile flags: /Ogty
;	COMDAT ??0?$allocator@PAX@std@@QAE@ABV01@@Z
_TEXT	SEGMENT
___formal$ = 8						; size = 4
??0?$allocator@PAX@std@@QAE@ABV01@@Z PROC NEAR		; std::allocator<void *>::allocator<void *>, COMDAT
; _this$ = ecx

; 115  : 	allocator(const allocator<_Ty>&)

  00000	8b c1		 mov	 eax, ecx

; 116  : 		{	// construct by copying (do nothing)
; 117  : 		}

  00002	c2 04 00	 ret	 4
??0?$allocator@PAX@std@@QAE@ABV01@@Z ENDP		; std::allocator<void *>::allocator<void *>
_TEXT	ENDS
PUBLIC	??_7?$CItemContainer@VCItemElem@@@@6B@		; CItemContainer<CItemElem>::`vftable'
PUBLIC	??_G?$CItemContainer@VCItemElem@@@@UAEPAXI@Z	; CItemContainer<CItemElem>::`scalar deleting destructor'
PUBLIC	??0?$CItemContainer@VCItemElem@@@@QAE@XZ	; CItemContainer<CItemElem>::CItemContainer<CItemElem>
EXTRN	??_E?$CItemContainer@VCItemElem@@@@UAEPAXI@Z:NEAR ; CItemContainer<CItemElem>::`vector deleting destructor'
;	COMDAT ??_7?$CItemContainer@VCItemElem@@@@6B@
; File c:\documents and settings\test\mes documents\source\virtuos_v17\build\program\_network\objects\obj.h
CONST	SEGMENT
??_7?$CItemContainer@VCItemElem@@@@6B@ DD FLAT:??_E?$CItemContainer@VCItemElem@@@@UAEPAXI@Z ; CItemContainer<CItemElem>::`vftable'
; Function compile flags: /Ogty
CONST	ENDS
;	COMDAT ??0?$CItemContainer@VCItemElem@@@@QAE@XZ
_TEXT	SEGMENT
??0?$CItemContainer@VCItemElem@@@@QAE@XZ PROC NEAR	; CItemContainer<CItemElem>::CItemContainer<CItemElem>, COMDAT
; _this$ = ecx

; 312  : {

  00000	8b c1		 mov	 eax, ecx

; 313  : 	m_apItem = NULL;

  00002	33 c9		 xor	 ecx, ecx
  00004	c7 00 00 00 00
	00		 mov	 DWORD PTR [eax], OFFSET FLAT:??_7?$CItemContainer@VCItemElem@@@@6B@
  0000a	89 48 0c	 mov	 DWORD PTR [eax+12], ecx

; 314  : 	m_apIndex = NULL;

  0000d	89 48 04	 mov	 DWORD PTR [eax+4], ecx

; 315  : }

  00010	c3		 ret	 0
??0?$CItemContainer@VCItemElem@@@@QAE@XZ ENDP		; CItemContainer<CItemElem>::CItemContainer<CItemElem>
_TEXT	ENDS
PUBLIC	?IsEquip@?$CItemContainer@VCItemElem@@@@QAEHK@Z	; CItemContainer<CItemElem>::IsEquip
; Function compile flags: /Ogty
;	COMDAT ?IsEquip@?$CItemContainer@VCItemElem@@@@QAEHK@Z
_TEXT	SEGMENT
_dwObjId$ = 8						; size = 4
?IsEquip@?$CItemContainer@VCItemElem@@@@QAEHK@Z PROC NEAR ; CItemContainer<CItemElem>::IsEquip, COMDAT
; _this$ = ecx

; 708  : 	if( m_apItem[ dwObjId ].m_dwObjIndex >= m_dwIndexNum )

  00000	8b 44 24 04	 mov	 eax, DWORD PTR _dwObjId$[esp-4]
  00004	8b 51 0c	 mov	 edx, DWORD PTR [ecx+12]
  00007	8d 04 80	 lea	 eax, DWORD PTR [eax+eax*4]
  0000a	c1 e0 05	 shl	 eax, 5
  0000d	8b 54 10 2c	 mov	 edx, DWORD PTR [eax+edx+44]
  00011	3b 51 08	 cmp	 edx, DWORD PTR [ecx+8]
  00014	1b c0		 sbb	 eax, eax
  00016	40		 inc	 eax

; 709  : 		return TRUE;
; 710  : 	return FALSE;
; 711  : }

  00017	c2 04 00	 ret	 4
?IsEquip@?$CItemContainer@VCItemElem@@@@QAEHK@Z ENDP	; CItemContainer<CItemElem>::IsEquip
_TEXT	ENDS
PUBLIC	?RemoveAt@?$CItemContainer@VCItemElem@@@@QAEXK@Z ; CItemContainer<CItemElem>::RemoveAt
; Function compile flags: /Ogty
;	COMDAT ?RemoveAt@?$CItemContainer@VCItemElem@@@@QAEXK@Z
_TEXT	SEGMENT
_dwIndex$ = 8						; size = 4
?RemoveAt@?$CItemContainer@VCItemElem@@@@QAEXK@Z PROC NEAR ; CItemContainer<CItemElem>::RemoveAt, COMDAT
; _this$ = ecx

; 713  : {

  00000	56		 push	 esi
  00001	8b f1		 mov	 esi, ecx

; 714  : 	m_apItem[ m_apIndex[ dwIndex ] ].Empty();

  00003	8b 46 04	 mov	 eax, DWORD PTR [esi+4]
  00006	8b 56 0c	 mov	 edx, DWORD PTR [esi+12]
  00009	57		 push	 edi
  0000a	8b 7c 24 0c	 mov	 edi, DWORD PTR _dwIndex$[esp+4]
  0000e	8b 04 b8	 mov	 eax, DWORD PTR [eax+edi*4]
  00011	8d 0c 80	 lea	 ecx, DWORD PTR [eax+eax*4]
  00014	c1 e1 05	 shl	 ecx, 5
  00017	8b 04 11	 mov	 eax, DWORD PTR [ecx+edx]
  0001a	03 ca		 add	 ecx, edx
  0001c	ff 50 04	 call	 DWORD PTR [eax+4]

; 715  : 	if( dwIndex >= m_dwIndexNum )

  0001f	3b 7e 08	 cmp	 edi, DWORD PTR [esi+8]
  00022	72 21		 jb	 SHORT $L187264

; 716  : 	{
; 717  : 		m_apItem[ m_apIndex[ dwIndex ] ].m_dwObjIndex = NULL_ID;

  00024	8b 4e 04	 mov	 ecx, DWORD PTR [esi+4]
  00027	8b 04 b9	 mov	 eax, DWORD PTR [ecx+edi*4]
  0002a	8d 14 80	 lea	 edx, DWORD PTR [eax+eax*4]
  0002d	8b 46 0c	 mov	 eax, DWORD PTR [esi+12]
  00030	c1 e2 05	 shl	 edx, 5
  00033	c7 44 02 2c ff
	ff ff ff	 mov	 DWORD PTR [edx+eax+44], -1

; 718  : 		m_apIndex[ dwIndex ] = NULL_ID;

  0003b	8b 4e 04	 mov	 ecx, DWORD PTR [esi+4]
  0003e	c7 04 b9 ff ff
	ff ff		 mov	 DWORD PTR [ecx+edi*4], -1
$L187264:
  00045	5f		 pop	 edi
  00046	5e		 pop	 esi

; 719  : 	}
; 720  : 	//for( int i = dwIndex; i < m_dwIndexNum - 1; i++ )
; 721  : 	//	m_apIndex[ i ] = m_apIndex[ i + 1 ];
; 722  : 	//m_dwIndexNum--;
; 723  : }

  00047	c2 04 00	 ret	 4
?RemoveAt@?$CItemContainer@VCItemElem@@@@QAEXK@Z ENDP	; CItemContainer<CItemElem>::RemoveAt
_TEXT	ENDS
PUBLIC	??$?0PAX@?$allocator@PAU_Node@?$_List_nod@PAXV?$allocator@PAX@std@@@std@@@std@@QAE@ABV?$allocator@PAX@1@@Z ; std::allocator<std::_List_nod<void *,std::allocator<void *> >::_Node *>::allocator<std::_List_nod<void *,std::allocator<void *> >::_Node *><void *>
; Function compile flags: /Ogty
; File c:\program files\microsoft visual studio .net 2003\vc7\include\xmemory
;	COMDAT ??$?0PAX@?$allocator@PAU_Node@?$_List_nod@PAXV?$allocator@PAX@std@@@std@@@std@@QAE@ABV?$allocator@PAX@1@@Z
_TEXT	SEGMENT
___formal$ = 8						; size = 4
??$?0PAX@?$allocator@PAU_Node@?$_List_nod@PAXV?$allocator@PAX@std@@@std@@@std@@QAE@ABV?$allocator@PAX@1@@Z PROC NEAR ; std::allocator<std::_List_nod<void *,std::allocator<void *> >::_Node *>::allocator<std::_List_nod<void *,std::allocator<void *> >::_Node *><void *>, COMDAT
; _this$ = ecx

; 120  : 		allocator(const allocator<_Other>&)

  00000	8b c1		 mov	 eax, ecx

; 121  : 		{	// construct from a related allocator (do nothing)
; 122  : 		}

  00002	c2 04 00	 ret	 4
??$?0PAX@?$allocator@PAU_Node@?$_List_nod@PAXV?$allocator@PAX@std@@@std@@@std@@QAE@ABV?$allocator@PAX@1@@Z ENDP ; std::allocator<std::_List_nod<void *,std::allocator<void *> >::_Node *>::allocator<std::_List_nod<void *,std::allocator<void *> >::_Node *><void *>
_TEXT	ENDS
PUBLIC	??$_Construct@PAU_Node@?$_List_nod@PAXV?$allocator@PAX@std@@@std@@PAU123@@std@@YAXPAPAU_Node@?$_List_nod@PAXV?$allocator@PAX@std@@@0@ABQAU120@@Z ; std::_Construct<std::_List_nod<void *,std::allocator<void *> >::_Node *,std::_List_nod<void *,std::allocator<void *> >::_Node *>
; Function compile flags: /Ogty
;	COMDAT ??$_Construct@PAU_Node@?$_List_nod@PAXV?$allocator@PAX@std@@@std@@PAU123@@std@@YAXPAPAU_Node@?$_List_nod@PAXV?$allocator@PAX@std@@@0@ABQAU120@@Z
_TEXT	SEGMENT
__Ptr$ = 8						; size = 4
__Val$ = 12						; size = 4
??$_Construct@PAU_Node@?$_List_nod@PAXV?$allocator@PAX@std@@@std@@PAU123@@std@@YAXPAPAU_Node@?$_List_nod@PAXV?$allocator@PAX@std@@@0@ABQAU120@@Z PROC NEAR ; std::_Construct<std::_List_nod<void *,std::allocator<void *> >::_Node *,std::_List_nod<void *,std::allocator<void *> >::_Node *>, COMDAT

; 42   : 	new ((void _FARQ *)_Ptr) _T1(_Val);

  00000	8b 44 24 04	 mov	 eax, DWORD PTR __Ptr$[esp-4]
  00004	85 c0		 test	 eax, eax
  00006	74 08		 je	 SHORT $L187716
  00008	8b 4c 24 08	 mov	 ecx, DWORD PTR __Val$[esp-4]
  0000c	8b 11		 mov	 edx, DWORD PTR [ecx]
  0000e	89 10		 mov	 DWORD PTR [eax], edx
$L187716:

; 43   : 	}

  00010	c3		 ret	 0
??$_Construct@PAU_Node@?$_List_nod@PAXV?$allocator@PAX@std@@@std@@PAU123@@std@@YAXPAPAU_Node@?$_List_nod@PAXV?$allocator@PAX@std@@@0@ABQAU120@@Z ENDP ; std::_Construct<std::_List_nod<void *,std::allocator<void *> >::_Node *,std::_List_nod<void *,std::allocator<void *> >::_Node *>
_TEXT	ENDS
PUBLIC	??$_Destroy@PAU_Node@?$_List_nod@PAXV?$allocator@PAX@std@@@std@@@std@@YAXPAPAU_Node@?$_List_nod@PAXV?$allocator@PAX@std@@@0@@Z ; std::_Destroy<std::_List_nod<void *,std::allocator<void *> >::_Node *>
; Function compile flags: /Ogty
;	COMDAT ??$_Destroy@PAU_Node@?$_List_nod@PAXV?$allocator@PAX@std@@@std@@@std@@YAXPAPAU_Node@?$_List_nod@PAXV?$allocator@PAX@std@@@0@@Z
_TEXT	SEGMENT
__Ptr$ = 8						; size = 4
??$_Destroy@PAU_Node@?$_List_nod@PAXV?$allocator@PAX@std@@@std@@@std@@YAXPAPAU_Node@?$_List_nod@PAXV?$allocator@PAX@std@@@0@@Z PROC NEAR ; std::_Destroy<std::_List_nod<void *,std::allocator<void *> >::_Node *>, COMDAT

; 49   : 	_DESTRUCTOR(_Ty, _Ptr);
; 50   : 	}

  00000	c3		 ret	 0
??$_Destroy@PAU_Node@?$_List_nod@PAXV?$allocator@PAX@std@@@std@@@std@@YAXPAPAU_Node@?$_List_nod@PAXV?$allocator@PAX@std@@@0@@Z ENDP ; std::_Destroy<std::_List_nod<void *,std::allocator<void *> >::_Node *>
_TEXT	ENDS
PUBLIC	??$?0PAX@?$allocator@U_Node@?$_List_nod@PAXV?$allocator@PAX@std@@@std@@@std@@QAE@ABV?$allocator@PAX@1@@Z ; std::allocator<std::_List_nod<void *,std::allocator<void *> >::_Node>::allocator<std::_List_nod<void *,std::allocator<void *> >::_Node><void *>
; Function compile flags: /Ogty
;	COMDAT ??$?0PAX@?$allocator@U_Node@?$_List_nod@PAXV?$allocator@PAX@std@@@std@@@std@@QAE@ABV?$allocator@PAX@1@@Z
_TEXT	SEGMENT
___formal$ = 8						; size = 4
??$?0PAX@?$allocator@U_Node@?$_List_nod@PAXV?$allocator@PAX@std@@@std@@@std@@QAE@ABV?$allocator@PAX@1@@Z PROC NEAR ; std::allocator<std::_List_nod<void *,std::allocator<void *> >::_Node>::allocator<std::_List_nod<void *,std::allocator<void *> >::_Node><void *>, COMDAT
; _this$ = ecx

; 120  : 		allocator(const allocator<_Other>&)

  00000	8b c1		 mov	 eax, ecx

; 121  : 		{	// construct from a related allocator (do nothing)
; 122  : 		}

  00002	c2 04 00	 ret	 4
??$?0PAX@?$allocator@U_Node@?$_List_nod@PAXV?$allocator@PAX@std@@@std@@@std@@QAE@ABV?$allocator@PAX@1@@Z ENDP ; std::allocator<std::_List_nod<void *,std::allocator<void *> >::_Node>::allocator<std::_List_nod<void *,std::allocator<void *> >::_Node><void *>
_TEXT	ENDS
PUBLIC	??$_Destroy@U_Node@?$_List_nod@PAXV?$allocator@PAX@std@@@std@@@std@@YAXPAU_Node@?$_List_nod@PAXV?$allocator@PAX@std@@@0@@Z ; std::_Destroy<std::_List_nod<void *,std::allocator<void *> >::_Node>
; Function compile flags: /Ogty
;	COMDAT ??$_Destroy@U_Node@?$_List_nod@PAXV?$allocator@PAX@std@@@std@@@std@@YAXPAU_Node@?$_List_nod@PAXV?$allocator@PAX@std@@@0@@Z
_TEXT	SEGMENT
__Ptr$ = 8						; size = 4
??$_Destroy@U_Node@?$_List_nod@PAXV?$allocator@PAX@std@@@std@@@std@@YAXPAU_Node@?$_List_nod@PAXV?$allocator@PAX@std@@@0@@Z PROC NEAR ; std::_Destroy<std::_List_nod<void *,std::allocator<void *> >::_Node>, COMDAT

; 49   : 	_DESTRUCTOR(_Ty, _Ptr);
; 50   : 	}

  00000	c3		 ret	 0
??$_Destroy@U_Node@?$_List_nod@PAXV?$allocator@PAX@std@@@std@@@std@@YAXPAU_Node@?$_List_nod@PAXV?$allocator@PAX@std@@@0@@Z ENDP ; std::_Destroy<std::_List_nod<void *,std::allocator<void *> >::_Node>
_TEXT	ENDS
PUBLIC	?assign@?$char_traits@D@std@@SAXAADABD@Z	; std::char_traits<char>::assign
; Function compile flags: /Ogty
; File c:\program files\microsoft visual studio .net 2003\vc7\include\iosfwd
;	COMDAT ?assign@?$char_traits@D@std@@SAXAADABD@Z
_TEXT	SEGMENT
__Left$ = 8						; size = 4
__Right$ = 12						; size = 4
?assign@?$char_traits@D@std@@SAXAADABD@Z PROC NEAR	; std::char_traits<char>::assign, COMDAT

; 331  : 		_Left = _Right;

  00000	8b 44 24 08	 mov	 eax, DWORD PTR __Right$[esp-4]
  00004	8a 08		 mov	 cl, BYTE PTR [eax]
  00006	8b 54 24 04	 mov	 edx, DWORD PTR __Left$[esp-4]
  0000a	88 0a		 mov	 BYTE PTR [edx], cl

; 332  : 		}

  0000c	c3		 ret	 0
?assign@?$char_traits@D@std@@SAXAADABD@Z ENDP		; std::char_traits<char>::assign
_TEXT	ENDS
PUBLIC	?length@?$char_traits@D@std@@SAIPBD@Z		; std::char_traits<char>::length
; Function compile flags: /Ogty
;	COMDAT ?length@?$char_traits@D@std@@SAIPBD@Z
_TEXT	SEGMENT
__First$ = 8						; size = 4
?length@?$char_traits@D@std@@SAIPBD@Z PROC NEAR		; std::char_traits<char>::length, COMDAT

; 352  : 		return (::strlen(_First));

  00000	8b 44 24 04	 mov	 eax, DWORD PTR __First$[esp-4]
  00004	8d 50 01	 lea	 edx, DWORD PTR [eax+1]
$L187731:
  00007	8a 08		 mov	 cl, BYTE PTR [eax]
  00009	40		 inc	 eax
  0000a	84 c9		 test	 cl, cl
  0000c	75 f9		 jne	 SHORT $L187731
  0000e	2b c2		 sub	 eax, edx

; 353  : 		}

  00010	c3		 ret	 0
?length@?$char_traits@D@std@@SAIPBD@Z ENDP		; std::char_traits<char>::length
_TEXT	ENDS
PUBLIC	?copy@?$char_traits@D@std@@SAPADPADPBDI@Z	; std::char_traits<char>::copy
; Function compile flags: /Ogty
;	COMDAT ?copy@?$char_traits@D@std@@SAPADPADPBDI@Z
_TEXT	SEGMENT
__First1$ = 8						; size = 4
__First2$ = 12						; size = 4
__Count$ = 16						; size = 4
?copy@?$char_traits@D@std@@SAPADPADPBDI@Z PROC NEAR	; std::char_traits<char>::copy, COMDAT

; 358  : 		return ((_Elem *)::memcpy(_First1, _First2, _Count));

  00000	8b 4c 24 0c	 mov	 ecx, DWORD PTR __Count$[esp-4]
  00004	56		 push	 esi
  00005	8b 74 24 0c	 mov	 esi, DWORD PTR __First2$[esp]
  00009	57		 push	 edi
  0000a	8b 7c 24 0c	 mov	 edi, DWORD PTR __First1$[esp+4]
  0000e	8b c1		 mov	 eax, ecx
  00010	8b d7		 mov	 edx, edi
  00012	c1 e9 02	 shr	 ecx, 2
  00015	f3 a5		 rep movsd
  00017	8b c8		 mov	 ecx, eax
  00019	83 e1 03	 and	 ecx, 3
  0001c	f3 a4		 rep movsb
  0001e	5f		 pop	 edi
  0001f	8b c2		 mov	 eax, edx
  00021	5e		 pop	 esi

; 359  : 		}

  00022	c3		 ret	 0
?copy@?$char_traits@D@std@@SAPADPADPBDI@Z ENDP		; std::char_traits<char>::copy
_TEXT	ENDS
PUBLIC	?move@?$char_traits@D@std@@SAPADPADPBDI@Z	; std::char_traits<char>::move
EXTRN	_memmove:NEAR
; Function compile flags: /Ogty
;	COMDAT ?move@?$char_traits@D@std@@SAPADPADPBDI@Z
_TEXT	SEGMENT
__First1$ = 8						; size = 4
__First2$ = 12						; size = 4
__Count$ = 16						; size = 4
?move@?$char_traits@D@std@@SAPADPADPBDI@Z PROC NEAR	; std::char_traits<char>::move, COMDAT

; 370  : 		return ((_Elem *)::memmove(_First1, _First2, _Count));

  00000	e9 00 00 00 00	 jmp	 _memmove
?move@?$char_traits@D@std@@SAPADPADPBDI@Z ENDP		; std::char_traits<char>::move
_TEXT	ENDS
PUBLIC	??0CMclCritSec@@QAE@XZ				; CMclCritSec::CMclCritSec
PUBLIC	??_7CMclCritSec@@6B@				; CMclCritSec::`vftable'
PUBLIC	??_GCMclCritSec@@UAEPAXI@Z			; CMclCritSec::`scalar deleting destructor'
EXTRN	??_ECMclCritSec@@UAEPAXI@Z:NEAR			; CMclCritSec::`vector deleting destructor'
EXTRN	__imp__InitializeCriticalSection@4:NEAR
;	COMDAT ??_7CMclCritSec@@6B@
; File c:\documents and settings\test\mes documents\source\virtuos_v17\build\program\_network\mcl\include\cmclcritsec.h
CONST	SEGMENT
??_7CMclCritSec@@6B@ DD FLAT:??_ECMclCritSec@@UAEPAXI@Z	; CMclCritSec::`vftable'
; Function compile flags: /Ogty
CONST	ENDS
;	COMDAT ??0CMclCritSec@@QAE@XZ
_TEXT	SEGMENT
??0CMclCritSec@@QAE@XZ PROC NEAR			; CMclCritSec::CMclCritSec, COMDAT
; _this$ = ecx

; 19   :     CMclCritSec(void)

  00000	56		 push	 esi
  00001	8b f1		 mov	 esi, ecx

; 20   :     {
; 21   : 		::InitializeCriticalSection( &m_CritSec );

  00003	8d 46 04	 lea	 eax, DWORD PTR [esi+4]
  00006	50		 push	 eax
  00007	c7 06 00 00 00
	00		 mov	 DWORD PTR [esi], OFFSET FLAT:??_7CMclCritSec@@6B@
  0000d	ff 15 00 00 00
	00		 call	 DWORD PTR __imp__InitializeCriticalSection@4

; 22   : 	}

  00013	8b c6		 mov	 eax, esi
  00015	5e		 pop	 esi
  00016	c3		 ret	 0
??0CMclCritSec@@QAE@XZ ENDP				; CMclCritSec::CMclCritSec
_TEXT	ENDS
PUBLIC	??1CMclCritSec@@UAE@XZ				; CMclCritSec::~CMclCritSec
EXTRN	__imp__DeleteCriticalSection@4:NEAR
; Function compile flags: /Ogty
;	COMDAT ??1CMclCritSec@@UAE@XZ
_TEXT	SEGMENT
??1CMclCritSec@@UAE@XZ PROC NEAR			; CMclCritSec::~CMclCritSec, COMDAT
; _this$ = ecx

; 26   : 	{

  00000	c7 01 00 00 00
	00		 mov	 DWORD PTR [ecx], OFFSET FLAT:??_7CMclCritSec@@6B@

; 27   : 		::DeleteCriticalSection( &m_CritSec );

  00006	83 c1 04	 add	 ecx, 4
  00009	51		 push	 ecx
  0000a	ff 15 00 00 00
	00		 call	 DWORD PTR __imp__DeleteCriticalSection@4

; 28   : 	}

  00010	c3		 ret	 0
??1CMclCritSec@@UAE@XZ ENDP				; CMclCritSec::~CMclCritSec
_TEXT	ENDS
EXTRN	??3@YAXPAX@Z:NEAR				; operator delete
; Function compile flags: /Ogty
;	COMDAT ??_GCMclCritSec@@UAEPAXI@Z
_TEXT	SEGMENT
___flags$ = 8						; size = 4
??_GCMclCritSec@@UAEPAXI@Z PROC NEAR			; CMclCritSec::`scalar deleting destructor', COMDAT
; _this$ = ecx
  00000	56		 push	 esi
  00001	8b f1		 mov	 esi, ecx
  00003	8d 46 04	 lea	 eax, DWORD PTR [esi+4]
  00006	50		 push	 eax
  00007	c7 06 00 00 00
	00		 mov	 DWORD PTR [esi], OFFSET FLAT:??_7CMclCritSec@@6B@
  0000d	ff 15 00 00 00
	00		 call	 DWORD PTR __imp__DeleteCriticalSection@4
  00013	f6 44 24 08 01	 test	 BYTE PTR ___flags$[esp], 1
  00018	74 09		 je	 SHORT $L187746
  0001a	56		 push	 esi
  0001b	e8 00 00 00 00	 call	 ??3@YAXPAX@Z		; operator delete
  00020	83 c4 04	 add	 esp, 4
$L187746:
  00023	8b c6		 mov	 eax, esi
  00025	5e		 pop	 esi
  00026	c2 04 00	 ret	 4
??_GCMclCritSec@@UAEPAXI@Z ENDP				; CMclCritSec::`scalar deleting destructor'
_TEXT	ENDS
PUBLIC	??0D3DXVECTOR3@@QAE@XZ				; D3DXVECTOR3::D3DXVECTOR3
; Function compile flags: /Ogty
; File c:\documents and settings\test\mes documents\source\virtuos_v17\build\program\dx_sdk\d3dx9math.h
;	COMDAT ??0D3DXVECTOR3@@QAE@XZ
_TEXT	SEGMENT
??0D3DXVECTOR3@@QAE@XZ PROC NEAR			; D3DXVECTOR3::D3DXVECTOR3, COMDAT
; _this$ = ecx

; 165  :     D3DXVECTOR3() {};

  00000	8b c1		 mov	 eax, ecx
  00002	c3		 ret	 0
??0D3DXVECTOR3@@QAE@XZ ENDP				; D3DXVECTOR3::D3DXVECTOR3
_TEXT	ENDS
PUBLIC	??0D3DXVECTOR3@@QAE@MMM@Z			; D3DXVECTOR3::D3DXVECTOR3
EXTRN	__fltused:NEAR
; Function compile flags: /Ogty
; File c:\documents and settings\test\mes documents\source\virtuos_v17\build\program\dx_sdk\d3dx9math.inl
;	COMDAT ??0D3DXVECTOR3@@QAE@MMM@Z
_TEXT	SEGMENT
_fx$ = 8						; size = 4
_fy$ = 12						; size = 4
_fz$ = 16						; size = 4
??0D3DXVECTOR3@@QAE@MMM@Z PROC NEAR			; D3DXVECTOR3::D3DXVECTOR3, COMDAT
; _this$ = ecx

; 300  :     x = fx;
; 301  :     y = fy;

  00000	8b 54 24 08	 mov	 edx, DWORD PTR _fy$[esp-4]
  00004	8b c1		 mov	 eax, ecx
  00006	8b 4c 24 04	 mov	 ecx, DWORD PTR _fx$[esp-4]
  0000a	89 08		 mov	 DWORD PTR [eax], ecx

; 302  :     z = fz;

  0000c	8b 4c 24 0c	 mov	 ecx, DWORD PTR _fz$[esp-4]
  00010	89 50 04	 mov	 DWORD PTR [eax+4], edx
  00013	89 48 08	 mov	 DWORD PTR [eax+8], ecx

; 303  : }

  00016	c2 0c 00	 ret	 12			; 0000000cH
??0D3DXVECTOR3@@QAE@MMM@Z ENDP				; D3DXVECTOR3::D3DXVECTOR3
_TEXT	ENDS
PUBLIC	?GetMoverProp@CProject@@QAEPAUMoverProp@@H@Z	; CProject::GetMoverProp
PUBLIC	??_C@_0CL@NHHPIJBJ@CProject?3?3GetMoverProp?5out?5of?5ra@ ; `string'
EXTRN	?Error@@YAPBDPBDZZ:NEAR				; Error
;	COMDAT ??_C@_0CL@NHHPIJBJ@CProject?3?3GetMoverProp?5out?5of?5ra@
; File c:\documents and settings\test\mes documents\source\virtuos_v17\build\program\databaseserver\project.h
CONST	SEGMENT
??_C@_0CL@NHHPIJBJ@CProject?3?3GetMoverProp?5out?5of?5ra@ DB 'CProject::G'
	DB	'etMoverProp out of range. %d %d', 00H	; `string'
; Function compile flags: /Ogty
CONST	ENDS
;	COMDAT ?GetMoverProp@CProject@@QAEPAUMoverProp@@H@Z
_TEXT	SEGMENT
_nIndex$ = 8						; size = 4
?GetMoverProp@CProject@@QAEPAUMoverProp@@H@Z PROC NEAR	; CProject::GetMoverProp, COMDAT
; _this$ = ecx

; 203  : 		if( nIndex < 0 || nIndex >= m_nMoverPropSize )	

  00000	8b 44 24 04	 mov	 eax, DWORD PTR _nIndex$[esp-4]
  00004	85 c0		 test	 eax, eax
  00006	7c 1b		 jl	 SHORT $L156735
  00008	3b 41 5c	 cmp	 eax, DWORD PTR [ecx+92]
  0000b	7d 16		 jge	 SHORT $L156735

; 208  : 		}
; 209  : 		if( m_pPropMover[nIndex].dwID )

  0000d	8b 49 60	 mov	 ecx, DWORD PTR [ecx+96]
  00010	69 c0 d8 06 00
	00		 imul	 eax, 1752		; 000006d8H
  00016	03 c8		 add	 ecx, eax
  00018	8b 01		 mov	 eax, DWORD PTR [ecx]
  0001a	f7 d8		 neg	 eax
  0001c	1b c0		 sbb	 eax, eax
  0001e	23 c1		 and	 eax, ecx

; 210  : 			return m_pPropMover + nIndex;
; 211  : 		return NULL;
; 212  : 	}

  00020	c2 04 00	 ret	 4
$L156735:

; 204  : 		{
; 205  : 			LPCTSTR szErr = Error( "CProject::GetMoverProp out of range. %d %d", nIndex, m_nMoverPropSize );

  00023	8b 51 5c	 mov	 edx, DWORD PTR [ecx+92]
  00026	52		 push	 edx
  00027	50		 push	 eax
  00028	68 00 00 00 00	 push	 OFFSET FLAT:??_C@_0CL@NHHPIJBJ@CProject?3?3GetMoverProp?5out?5of?5ra@
  0002d	e8 00 00 00 00	 call	 ?Error@@YAPBDPBDZZ	; Error
  00032	83 c4 0c	 add	 esp, 12			; 0000000cH

; 206  : 			TRACE( szErr );
; 207  : 			return NULL;

  00035	33 c0		 xor	 eax, eax

; 210  : 			return m_pPropMover + nIndex;
; 211  : 		return NULL;
; 212  : 	}

  00037	c2 04 00	 ret	 4
?GetMoverProp@CProject@@QAEPAUMoverProp@@H@Z ENDP	; CProject::GetMoverProp
_TEXT	ENDS
PUBLIC	?GetLevel@CPet@@QAEEXZ				; CPet::GetLevel
; Function compile flags: /Ogty
; File c:\documents and settings\test\mes documents\source\virtuos_v17\build\program\_common\pet.h
;	COMDAT ?GetLevel@CPet@@QAEEXZ
_TEXT	SEGMENT
?GetLevel@CPet@@QAEEXZ PROC NEAR			; CPet::GetLevel, COMDAT
; _this$ = ecx

; 134  : 	BYTE	GetLevel( void )	{	return m_nLevel;	}

  00000	8a 41 05	 mov	 al, BYTE PTR [ecx+5]
  00003	c3		 ret	 0
?GetLevel@CPet@@QAEEXZ ENDP				; CPet::GetLevel
_TEXT	ENDS
PUBLIC	??1CObj@@UAE@XZ					; CObj::~CObj
PUBLIC	??_7CObj@@6B@					; CObj::`vftable'
PUBLIC	??_GCObj@@UAEPAXI@Z				; CObj::`scalar deleting destructor'
EXTRN	?Serialize@CObj@@UAEXAAVCAr@@@Z:NEAR		; CObj::Serialize
EXTRN	??_ECObj@@UAEPAXI@Z:NEAR			; CObj::`vector deleting destructor'
;	COMDAT ??_7CObj@@6B@
; File c:\documents and settings\test\mes documents\source\virtuos_v17\build\program\_network\objects\obj.h
CONST	SEGMENT
??_7CObj@@6B@ DD FLAT:??_ECObj@@UAEPAXI@Z		; CObj::`vftable'
	DD	FLAT:?Serialize@CObj@@UAEXAAVCAr@@@Z
; Function compile flags: /Ogty
CONST	ENDS
;	COMDAT ??1CObj@@UAE@XZ
_TEXT	SEGMENT
??1CObj@@UAE@XZ PROC NEAR				; CObj::~CObj, COMDAT
; _this$ = ecx

; 82   : 	virtual	~CObj()		{}

  00000	c7 01 00 00 00
	00		 mov	 DWORD PTR [ecx], OFFSET FLAT:??_7CObj@@6B@
  00006	c3		 ret	 0
??1CObj@@UAE@XZ ENDP					; CObj::~CObj
_TEXT	ENDS
PUBLIC	?SetLayer@CObj@@QAEXH@Z				; CObj::SetLayer
; Function compile flags: /Ogty
;	COMDAT ?SetLayer@CObj@@QAEXH@Z
_TEXT	SEGMENT
_nLayer$ = 8						; size = 4
?SetLayer@CObj@@QAEXH@Z PROC NEAR			; CObj::SetLayer, COMDAT
; _this$ = ecx

; 93   : 	void	SetLayer( int nLayer )	{	m_nLayer	= nLayer;	}

  00000	8b 44 24 04	 mov	 eax, DWORD PTR _nLayer$[esp-4]
  00004	89 41 2c	 mov	 DWORD PTR [ecx+44], eax
  00007	c2 04 00	 ret	 4
?SetLayer@CObj@@QAEXH@Z ENDP				; CObj::SetLayer
_TEXT	ENDS
PUBLIC	?GetLayer@CObj@@QAEHXZ				; CObj::GetLayer
; Function compile flags: /Ogty
;	COMDAT ?GetLayer@CObj@@QAEHXZ
_TEXT	SEGMENT
?GetLayer@CObj@@QAEHXZ PROC NEAR			; CObj::GetLayer, COMDAT
; _this$ = ecx

; 94   : 	int		GetLayer()	{	return m_nLayer;	}

  00000	8b 41 2c	 mov	 eax, DWORD PTR [ecx+44]
  00003	c3		 ret	 0
?GetLayer@CObj@@QAEHXZ ENDP				; CObj::GetLayer
; Function compile flags: /Ogty
_TEXT	ENDS
;	COMDAT ??_GCObj@@UAEPAXI@Z
_TEXT	SEGMENT
___flags$ = 8						; size = 4
??_GCObj@@UAEPAXI@Z PROC NEAR				; CObj::`scalar deleting destructor', COMDAT
; _this$ = ecx
  00000	f6 44 24 04 01	 test	 BYTE PTR ___flags$[esp-4], 1
  00005	56		 push	 esi
  00006	8b f1		 mov	 esi, ecx
  00008	c7 06 00 00 00
	00		 mov	 DWORD PTR [esi], OFFSET FLAT:??_7CObj@@6B@
  0000e	74 09		 je	 SHORT $L187767
  00010	56		 push	 esi
  00011	e8 00 00 00 00	 call	 ??3@YAXPAX@Z		; operator delete
  00016	83 c4 04	 add	 esp, 4
$L187767:
  00019	8b c6		 mov	 eax, esi
  0001b	5e		 pop	 esi
  0001c	c2 04 00	 ret	 4
??_GCObj@@UAEPAXI@Z ENDP				; CObj::`scalar deleting destructor'
_TEXT	ENDS
PUBLIC	??1CCtrl@@UAE@XZ				; CCtrl::~CCtrl
; Function compile flags: /Ogty
;	COMDAT ??1CCtrl@@UAE@XZ
_TEXT	SEGMENT
??1CCtrl@@UAE@XZ PROC NEAR				; CCtrl::~CCtrl, COMDAT
; _this$ = ecx

; 108  : 	virtual	~CCtrl()	{}

  00000	c7 01 00 00 00
	00		 mov	 DWORD PTR [ecx], OFFSET FLAT:??_7CObj@@6B@
  00006	c3		 ret	 0
??1CCtrl@@UAE@XZ ENDP					; CCtrl::~CCtrl
_TEXT	ENDS
PUBLIC	??1CItemBase@@UAE@XZ				; CItemBase::~CItemBase
; Function compile flags: /Ogty
;	COMDAT ??1CItemBase@@UAE@XZ
_TEXT	SEGMENT
??1CItemBase@@UAE@XZ PROC NEAR				; CItemBase::~CItemBase, COMDAT
; _this$ = ecx

; 130  : 	virtual ~CItemBase()	{}

  00000	c7 01 00 00 00
	00		 mov	 DWORD PTR [ecx], OFFSET FLAT:??_7CItemBase@@6B@
  00006	c3		 ret	 0
??1CItemBase@@UAE@XZ ENDP				; CItemBase::~CItemBase
_TEXT	ENDS
PUBLIC	?IsEmpty@CItemBase@@QAEHXZ			; CItemBase::IsEmpty
; Function compile flags: /Ogty
;	COMDAT ?IsEmpty@CItemBase@@QAEHXZ
_TEXT	SEGMENT
?IsEmpty@CItemBase@@QAEHXZ PROC NEAR			; CItemBase::IsEmpty, COMDAT
; _this$ = ecx

; 133  : 	BOOL	IsEmpty()	{	return m_dwItemId ? FALSE : TRUE;	}

  00000	8b 51 08	 mov	 edx, DWORD PTR [ecx+8]
  00003	33 c0		 xor	 eax, eax
  00005	85 d2		 test	 edx, edx
  00007	0f 94 c0	 sete	 al
  0000a	c3		 ret	 0
?IsEmpty@CItemBase@@QAEHXZ ENDP				; CItemBase::IsEmpty
; Function compile flags: /Ogty
_TEXT	ENDS
;	COMDAT ?Empty@CItemBase@@UAEXXZ
_TEXT	SEGMENT
?Empty@CItemBase@@UAEXXZ PROC NEAR			; CItemBase::Empty, COMDAT
; _this$ = ecx

; 136  : 		m_szItemText[0] = '\0';

  00000	33 c0		 xor	 eax, eax
  00002	88 41 0c	 mov	 BYTE PTR [ecx+12], al

; 137  : 		m_dwItemId      = 0;

  00005	89 41 08	 mov	 DWORD PTR [ecx+8], eax

; 138  : 	}

  00008	c3		 ret	 0
?Empty@CItemBase@@UAEXXZ ENDP				; CItemBase::Empty
_TEXT	ENDS
PUBLIC	?SetSerialNumber@CItemBase@@QAEXK@Z		; CItemBase::SetSerialNumber
; Function compile flags: /Ogty
;	COMDAT ?SetSerialNumber@CItemBase@@QAEXK@Z
_TEXT	SEGMENT
_liSerialNumber$ = 8					; size = 4
?SetSerialNumber@CItemBase@@QAEXK@Z PROC NEAR		; CItemBase::SetSerialNumber, COMDAT
; _this$ = ecx

; 143  : 	void	SetSerialNumber( SERIALNUMBER liSerialNumber )	{	m_liSerialNumber	= liSerialNumber;	}

  00000	8b 44 24 04	 mov	 eax, DWORD PTR _liSerialNumber$[esp-4]
  00004	89 41 30	 mov	 DWORD PTR [ecx+48], eax
  00007	c2 04 00	 ret	 4
?SetSerialNumber@CItemBase@@QAEXK@Z ENDP		; CItemBase::SetSerialNumber
; Function compile flags: /Ogty
_TEXT	ENDS
;	COMDAT ??_GCItemBase@@UAEPAXI@Z
_TEXT	SEGMENT
___flags$ = 8						; size = 4
??_GCItemBase@@UAEPAXI@Z PROC NEAR			; CItemBase::`scalar deleting destructor', COMDAT
; _this$ = ecx
  00000	f6 44 24 04 01	 test	 BYTE PTR ___flags$[esp-4], 1
  00005	56		 push	 esi
  00006	8b f1		 mov	 esi, ecx
  00008	c7 06 00 00 00
	00		 mov	 DWORD PTR [esi], OFFSET FLAT:??_7CItemBase@@6B@
  0000e	74 09		 je	 SHORT $L187787
  00010	56		 push	 esi
  00011	e8 00 00 00 00	 call	 ??3@YAXPAX@Z		; operator delete
  00016	83 c4 04	 add	 esp, 4
$L187787:
  00019	8b c6		 mov	 eax, esi
  0001b	5e		 pop	 esi
  0001c	c2 04 00	 ret	 4
??_GCItemBase@@UAEPAXI@Z ENDP				; CItemBase::`scalar deleting destructor'
_TEXT	ENDS
PUBLIC	?SetPiercingSize@CItemElem@@QAEXH@Z		; CItemElem::SetPiercingSize
EXTRN	?SetPiercingSize@CPiercing@@QAEXH@Z:NEAR	; CPiercing::SetPiercingSize
; Function compile flags: /Ogty
;	COMDAT ?SetPiercingSize@CItemElem@@QAEXH@Z
_TEXT	SEGMENT
_nSize$ = 8						; size = 4
?SetPiercingSize@CItemElem@@QAEXH@Z PROC NEAR		; CItemElem::SetPiercingSize, COMDAT
; _this$ = ecx

; 152  : 	void	SetPiercingSize( int nSize )	{	m_piercing.SetPiercingSize( nSize ); }

  00000	83 c1 34	 add	 ecx, 52			; 00000034H
  00003	e9 00 00 00 00	 jmp	 ?SetPiercingSize@CPiercing@@QAEXH@Z ; CPiercing::SetPiercingSize
?SetPiercingSize@CItemElem@@QAEXH@Z ENDP		; CItemElem::SetPiercingSize
_TEXT	ENDS
PUBLIC	?GetPiercingSize@CItemElem@@QAEHXZ		; CItemElem::GetPiercingSize
EXTRN	?GetPiercingSize@CPiercing@@QAEHXZ:NEAR		; CPiercing::GetPiercingSize
; Function compile flags: /Ogty
;	COMDAT ?GetPiercingSize@CItemElem@@QAEHXZ
_TEXT	SEGMENT
?GetPiercingSize@CItemElem@@QAEHXZ PROC NEAR		; CItemElem::GetPiercingSize, COMDAT
; _this$ = ecx

; 153  : 	int		GetPiercingSize()	{	return m_piercing.GetPiercingSize();		}

  00000	83 c1 34	 add	 ecx, 52			; 00000034H
  00003	e9 00 00 00 00	 jmp	 ?GetPiercingSize@CPiercing@@QAEHXZ ; CPiercing::GetPiercingSize
?GetPiercingSize@CItemElem@@QAEHXZ ENDP			; CItemElem::GetPiercingSize
_TEXT	ENDS
PUBLIC	?SetPiercingItem@CItemElem@@QAEXHK@Z		; CItemElem::SetPiercingItem
EXTRN	?SetPiercingItem@CPiercing@@QAEXHK@Z:NEAR	; CPiercing::SetPiercingItem
; Function compile flags: /Ogty
;	COMDAT ?SetPiercingItem@CItemElem@@QAEXHK@Z
_TEXT	SEGMENT
_nth$ = 8						; size = 4
_dwItem$ = 12						; size = 4
?SetPiercingItem@CItemElem@@QAEXHK@Z PROC NEAR		; CItemElem::SetPiercingItem, COMDAT
; _this$ = ecx

; 154  : 	void	SetPiercingItem( int nth, DWORD dwItem)	{	m_piercing.SetPiercingItem( nth, dwItem );	}

  00000	83 c1 34	 add	 ecx, 52			; 00000034H
  00003	e9 00 00 00 00	 jmp	 ?SetPiercingItem@CPiercing@@QAEXHK@Z ; CPiercing::SetPiercingItem
?SetPiercingItem@CItemElem@@QAEXHK@Z ENDP		; CItemElem::SetPiercingItem
_TEXT	ENDS
PUBLIC	?GetRandomOptItemId@CItemElem@@QAE_JXZ		; CItemElem::GetRandomOptItemId
; Function compile flags: /Ogty
;	COMDAT ?GetRandomOptItemId@CItemElem@@QAE_JXZ
_TEXT	SEGMENT
?GetRandomOptItemId@CItemElem@@QAE_JXZ PROC NEAR	; CItemElem::GetRandomOptItemId, COMDAT
; _this$ = ecx

; 196  : 	__int64		GetRandomOptItemId( void )	{	return m_iRandomOptItemId;	}

  00000	8b 81 90 00 00
	00		 mov	 eax, DWORD PTR [ecx+144]
  00006	8b 91 94 00 00
	00		 mov	 edx, DWORD PTR [ecx+148]
  0000c	c3		 ret	 0
?GetRandomOptItemId@CItemElem@@QAE_JXZ ENDP		; CItemElem::GetRandomOptItemId
_TEXT	ENDS
PUBLIC	?SetRandomOptItemId@CItemElem@@QAEX_J@Z		; CItemElem::SetRandomOptItemId
; Function compile flags: /Ogty
;	COMDAT ?SetRandomOptItemId@CItemElem@@QAEX_J@Z
_TEXT	SEGMENT
_iRandomOptItemId$ = 8					; size = 8
?SetRandomOptItemId@CItemElem@@QAEX_J@Z PROC NEAR	; CItemElem::SetRandomOptItemId, COMDAT
; _this$ = ecx

; 197  : 	void	SetRandomOptItemId( __int64 iRandomOptItemId )	{	m_iRandomOptItemId	= iRandomOptItemId;	}

  00000	8b 44 24 04	 mov	 eax, DWORD PTR _iRandomOptItemId$[esp-4]
  00004	8b 54 24 08	 mov	 edx, DWORD PTR _iRandomOptItemId$[esp]
  00008	89 81 90 00 00
	00		 mov	 DWORD PTR [ecx+144], eax
  0000e	89 91 94 00 00
	00		 mov	 DWORD PTR [ecx+148], edx
  00014	c2 08 00	 ret	 8
?SetRandomOptItemId@CItemElem@@QAEX_J@Z ENDP		; CItemElem::SetRandomOptItemId
_TEXT	ENDS
PUBLIC	?SetOption@CItemElem@@QAEXH@Z			; CItemElem::SetOption
; Function compile flags: /Ogty
;	COMDAT ?SetOption@CItemElem@@QAEXH@Z
_TEXT	SEGMENT
_nOption$ = 8						; size = 4
?SetOption@CItemElem@@QAEXH@Z PROC NEAR			; CItemElem::SetOption, COMDAT
; _this$ = ecx

; 219  : 	void	SetOption( int nOption )	{ m_nAbilityOption = nOption; }

  00000	8b 44 24 04	 mov	 eax, DWORD PTR _nOption$[esp-4]
  00004	89 41 68	 mov	 DWORD PTR [ecx+104], eax
  00007	c2 04 00	 ret	 4
?SetOption@CItemElem@@QAEXH@Z ENDP			; CItemElem::SetOption
_TEXT	ENDS
PUBLIC	??0CAction@@QAE@XZ				; CAction::CAction
PUBLIC	??_7CAction@@6B@				; CAction::`vftable'
PUBLIC	??_GCAction@@UAEPAXI@Z				; CAction::`scalar deleting destructor'
EXTRN	??_ECAction@@UAEPAXI@Z:NEAR			; CAction::`vector deleting destructor'
;	COMDAT ??_7CAction@@6B@
CONST	SEGMENT
??_7CAction@@6B@ DD FLAT:??_ECAction@@UAEPAXI@Z		; CAction::`vftable'
; Function compile flags: /Ogty
CONST	ENDS
;	COMDAT ??0CAction@@QAE@XZ
_TEXT	SEGMENT
??0CAction@@QAE@XZ PROC NEAR				; CAction::CAction, COMDAT
; _this$ = ecx

; 882  : 	CAction()

  00000	8b c1		 mov	 eax, ecx

; 883  : 		{
; 884  : 			m_dwState	= 0;

  00002	33 c9		 xor	 ecx, ecx
  00004	c7 00 00 00 00
	00		 mov	 DWORD PTR [eax], OFFSET FLAT:??_7CAction@@6B@
  0000a	89 48 04	 mov	 DWORD PTR [eax+4], ecx

; 885  : 			m_dwStateFlag		= 0;

  0000d	89 48 08	 mov	 DWORD PTR [eax+8], ecx

; 886  : 		}

  00010	c3		 ret	 0
??0CAction@@QAE@XZ ENDP					; CAction::CAction
_TEXT	ENDS
PUBLIC	?GetStateFlag@CAction@@QAEKXZ			; CAction::GetStateFlag
; Function compile flags: /Ogty
;	COMDAT ?GetStateFlag@CAction@@QAEKXZ
_TEXT	SEGMENT
?GetStateFlag@CAction@@QAEKXZ PROC NEAR			; CAction::GetStateFlag, COMDAT
; _this$ = ecx

; 889  : 	DWORD	GetStateFlag() { return m_dwStateFlag; }

  00000	8b 41 08	 mov	 eax, DWORD PTR [ecx+8]
  00003	c3		 ret	 0
?GetStateFlag@CAction@@QAEKXZ ENDP			; CAction::GetStateFlag
_TEXT	ENDS
PUBLIC	??1CAction@@UAE@XZ				; CAction::~CAction
; Function compile flags: /Ogty
;	COMDAT ??1CAction@@UAE@XZ
_TEXT	SEGMENT
??1CAction@@UAE@XZ PROC NEAR				; CAction::~CAction, COMDAT
; _this$ = ecx

; 890  : 	virtual	~CAction()	{}

  00000	c7 01 00 00 00
	00		 mov	 DWORD PTR [ecx], OFFSET FLAT:??_7CAction@@6B@
  00006	c3		 ret	 0
??1CAction@@UAE@XZ ENDP					; CAction::~CAction
; Function compile flags: /Ogty
_TEXT	ENDS
;	COMDAT ??_GCAction@@UAEPAXI@Z
_TEXT	SEGMENT
___flags$ = 8						; size = 4
??_GCAction@@UAEPAXI@Z PROC NEAR			; CAction::`scalar deleting destructor', COMDAT
; _this$ = ecx
  00000	f6 44 24 04 01	 test	 BYTE PTR ___flags$[esp-4], 1
  00005	56		 push	 esi
  00006	8b f1		 mov	 esi, ecx
  00008	c7 06 00 00 00
	00		 mov	 DWORD PTR [esi], OFFSET FLAT:??_7CAction@@6B@
  0000e	74 09		 je	 SHORT $L187812
  00010	56		 push	 esi
  00011	e8 00 00 00 00	 call	 ??3@YAXPAX@Z		; operator delete
  00016	83 c4 04	 add	 esp, 4
$L187812:
  00019	8b c6		 mov	 eax, esi
  0001b	5e		 pop	 esi
  0001c	c2 04 00	 ret	 4
??_GCAction@@UAEPAXI@Z ENDP				; CAction::`scalar deleting destructor'
_TEXT	ENDS
PUBLIC	??0CActionMover@@QAE@PAVCMover@@@Z		; CActionMover::CActionMover
PUBLIC	??_7CActionMover@@6B@				; CActionMover::`vftable'
PUBLIC	??_GCActionMover@@UAEPAXI@Z			; CActionMover::`scalar deleting destructor'
EXTRN	??_ECActionMover@@UAEPAXI@Z:NEAR		; CActionMover::`vector deleting destructor'
;	COMDAT ??_7CActionMover@@6B@
CONST	SEGMENT
??_7CActionMover@@6B@ DD FLAT:??_ECActionMover@@UAEPAXI@Z ; CActionMover::`vftable'
; Function compile flags: /Ogty
CONST	ENDS
;	COMDAT ??0CActionMover@@QAE@PAVCMover@@@Z
_TEXT	SEGMENT
_pMover$ = 8						; size = 4
??0CActionMover@@QAE@PAVCMover@@@Z PROC NEAR		; CActionMover::CActionMover, COMDAT
; _this$ = ecx

; 899  : 	CActionMover( CMover* pMover )	{}

  00000	8b c1		 mov	 eax, ecx
  00002	33 c9		 xor	 ecx, ecx
  00004	89 48 04	 mov	 DWORD PTR [eax+4], ecx
  00007	89 48 08	 mov	 DWORD PTR [eax+8], ecx
  0000a	c7 00 00 00 00
	00		 mov	 DWORD PTR [eax], OFFSET FLAT:??_7CActionMover@@6B@
  00010	c2 04 00	 ret	 4
??0CActionMover@@QAE@PAVCMover@@@Z ENDP			; CActionMover::CActionMover
_TEXT	ENDS
PUBLIC	?GetState@CActionMover@@QAEKXZ			; CActionMover::GetState
; Function compile flags: /Ogty
;	COMDAT ?GetState@CActionMover@@QAEKXZ
_TEXT	SEGMENT
?GetState@CActionMover@@QAEKXZ PROC NEAR		; CActionMover::GetState, COMDAT
; _this$ = ecx

; 901  : 	DWORD	GetState( void )	{	return m_dwState;	}

  00000	8b 41 04	 mov	 eax, DWORD PTR [ecx+4]
  00003	c3		 ret	 0
?GetState@CActionMover@@QAEKXZ ENDP			; CActionMover::GetState
_TEXT	ENDS
PUBLIC	??1CActionMover@@UAE@XZ				; CActionMover::~CActionMover
; Function compile flags: /Ogty
;	COMDAT ??_GCActionMover@@UAEPAXI@Z
_TEXT	SEGMENT
___flags$ = 8						; size = 4
??_GCActionMover@@UAEPAXI@Z PROC NEAR			; CActionMover::`scalar deleting destructor', COMDAT
; _this$ = ecx
  00000	56		 push	 esi
  00001	8b f1		 mov	 esi, ecx
  00003	e8 00 00 00 00	 call	 ??1CActionMover@@UAE@XZ	; CActionMover::~CActionMover
  00008	f6 44 24 08 01	 test	 BYTE PTR ___flags$[esp], 1
  0000d	74 09		 je	 SHORT $L187823
  0000f	56		 push	 esi
  00010	e8 00 00 00 00	 call	 ??3@YAXPAX@Z		; operator delete
  00015	83 c4 04	 add	 esp, 4
$L187823:
  00018	8b c6		 mov	 eax, esi
  0001a	5e		 pop	 esi
  0001b	c2 04 00	 ret	 4
??_GCActionMover@@UAEPAXI@Z ENDP			; CActionMover::`scalar deleting destructor'
; Function compile flags: /Ogty
_TEXT	ENDS
;	COMDAT ??1CActionMover@@UAE@XZ
_TEXT	SEGMENT
??1CActionMover@@UAE@XZ PROC NEAR			; CActionMover::~CActionMover, COMDAT
; _this$ = ecx

; 900  : 	virtual	~CActionMover()	{}

  00000	c7 01 00 00 00
	00		 mov	 DWORD PTR [ecx], OFFSET FLAT:??_7CAction@@6B@
  00006	c3		 ret	 0
??1CActionMover@@UAE@XZ ENDP				; CActionMover::~CActionMover
_TEXT	ENDS
PUBLIC	?GetPetId@CMover@@QAEKXZ			; CMover::GetPetId
; Function compile flags: /Ogty
;	COMDAT ?GetPetId@CMover@@QAEKXZ
_TEXT	SEGMENT
?GetPetId@CMover@@QAEKXZ PROC NEAR			; CMover::GetPetId, COMDAT
; _this$ = ecx

; 1086 : 	DWORD	GetPetId( void )	{	return m_dwPetId;	}

  00000	8b 81 30 42 00
	00		 mov	 eax, DWORD PTR [ecx+16944]
  00006	c3		 ret	 0
?GetPetId@CMover@@QAEKXZ ENDP				; CMover::GetPetId
_TEXT	ENDS
PUBLIC	?SetPetId@CMover@@QAEXK@Z			; CMover::SetPetId
; Function compile flags: /Ogty
;	COMDAT ?SetPetId@CMover@@QAEXK@Z
_TEXT	SEGMENT
_dwPetId$ = 8						; size = 4
?SetPetId@CMover@@QAEXK@Z PROC NEAR			; CMover::SetPetId, COMDAT
; _this$ = ecx

; 1087 : 	void	SetPetId( DWORD dwPetId )		{	m_dwPetId	= dwPetId;	}

  00000	8b 44 24 04	 mov	 eax, DWORD PTR _dwPetId$[esp-4]
  00004	89 81 30 42 00
	00		 mov	 DWORD PTR [ecx+16944], eax
  0000a	c2 04 00	 ret	 4
?SetPetId@CMover@@QAEXK@Z ENDP				; CMover::SetPetId
_TEXT	ENDS
PUBLIC	?ClearEquipInfo@CMover@@QAEXXZ			; CMover::ClearEquipInfo
; Function compile flags: /Ogty
;	COMDAT ?ClearEquipInfo@CMover@@QAEXXZ
_TEXT	SEGMENT
?ClearEquipInfo@CMover@@QAEXXZ PROC NEAR		; CMover::ClearEquipInfo, COMDAT
; _this$ = ecx

; 1124 : 		memset( m_aEquipInfo, 0, sizeof(EQUIP_INFO) * MAX_HUMAN_PARTS );

  00000	8d 91 24 45 00
	00		 lea	 edx, DWORD PTR [ecx+17700]
  00006	57		 push	 edi
  00007	33 c0		 xor	 eax, eax
  00009	b9 5d 00 00 00	 mov	 ecx, 93			; 0000005dH
  0000e	8b fa		 mov	 edi, edx
  00010	f3 ab		 rep stosd
  00012	8b c2		 mov	 eax, edx
  00014	b9 1f 00 00 00	 mov	 ecx, 31			; 0000001fH
  00019	5f		 pop	 edi
  0001a	8d 9b 00 00 00
	00		 npad	 6
$L177572:

; 1125 : 		for( int i = 0; i < MAX_HUMAN_PARTS; i++ )
; 1126 : 			m_aEquipInfo[i].dwId	= NULL_ID;

  00020	c7 00 ff ff ff
	ff		 mov	 DWORD PTR [eax], -1
  00026	83 c0 0c	 add	 eax, 12			; 0000000cH
  00029	49		 dec	 ecx
  0002a	75 f4		 jne	 SHORT $L177572

; 1127 : 	}

  0002c	c3		 ret	 0
?ClearEquipInfo@CMover@@QAEXXZ ENDP			; CMover::ClearEquipInfo
_TEXT	ENDS
PUBLIC	?GetPropA@CMover@@QAEPAUMoverProp@@XZ		; CMover::GetPropA
EXTRN	?prj@@3VCProject@@A:BYTE			; prj
; Function compile flags: /Ogty
;	COMDAT ?GetPropA@CMover@@QAEPAUMoverProp@@XZ
_TEXT	SEGMENT
?GetPropA@CMover@@QAEPAUMoverProp@@XZ PROC NEAR		; CMover::GetPropA, COMDAT
; _this$ = ecx

; 1171 : 	MoverProp*	GetProp( void )		{	return( prj.GetMoverProp( m_dwIndex ) );	}

  00000	8b 41 08	 mov	 eax, DWORD PTR [ecx+8]
  00003	85 c0		 test	 eax, eax
  00005	8b 0d 5c 00 00
	00		 mov	 ecx, DWORD PTR ?prj@@3VCProject@@A+92
  0000b	7c 1b		 jl	 SHORT $L187843
  0000d	3b c1		 cmp	 eax, ecx
  0000f	7d 17		 jge	 SHORT $L187843
  00011	8b 0d 60 00 00
	00		 mov	 ecx, DWORD PTR ?prj@@3VCProject@@A+96
  00017	69 c0 d8 06 00
	00		 imul	 eax, 1752		; 000006d8H
  0001d	03 c8		 add	 ecx, eax
  0001f	8b 01		 mov	 eax, DWORD PTR [ecx]
  00021	f7 d8		 neg	 eax
  00023	1b c0		 sbb	 eax, eax
  00025	23 c1		 and	 eax, ecx
  00027	c3		 ret	 0
$L187843:
  00028	51		 push	 ecx
  00029	50		 push	 eax
  0002a	68 00 00 00 00	 push	 OFFSET FLAT:??_C@_0CL@NHHPIJBJ@CProject?3?3GetMoverProp?5out?5of?5ra@
  0002f	e8 00 00 00 00	 call	 ?Error@@YAPBDPBDZZ	; Error
  00034	83 c4 0c	 add	 esp, 12			; 0000000cH
  00037	33 c0		 xor	 eax, eax
  00039	c3		 ret	 0
?GetPropA@CMover@@QAEPAUMoverProp@@XZ ENDP		; CMover::GetPropA
_TEXT	ENDS
PUBLIC	?GetSex@CMover@@QAEEXZ				; CMover::GetSex
; Function compile flags: /Ogty
;	COMDAT ?GetSex@CMover@@QAEEXZ
_TEXT	SEGMENT
?GetSex@CMover@@QAEEXZ PROC NEAR			; CMover::GetSex, COMDAT
; _this$ = ecx

; 1197 : 	BYTE	GetSex() { return m_bySex; }

  00000	8a 81 b8 00 00
	00		 mov	 al, BYTE PTR [ecx+184]
  00006	c3		 ret	 0
?GetSex@CMover@@QAEEXZ ENDP				; CMover::GetSex
_TEXT	ENDS
PUBLIC	?SetSex@CMover@@QAEXE@Z				; CMover::SetSex
; Function compile flags: /Ogty
;	COMDAT ?SetSex@CMover@@QAEXE@Z
_TEXT	SEGMENT
_bySex$ = 8						; size = 1
?SetSex@CMover@@QAEXE@Z PROC NEAR			; CMover::SetSex, COMDAT
; _this$ = ecx

; 1198 : 	void	SetSex( BYTE bySex ) { m_bySex = bySex; }

  00000	8a 44 24 04	 mov	 al, BYTE PTR _bySex$[esp-4]
  00004	88 81 b8 00 00
	00		 mov	 BYTE PTR [ecx+184], al
  0000a	c2 04 00	 ret	 4
?SetSex@CMover@@QAEXE@Z ENDP				; CMover::SetSex
_TEXT	ENDS
PUBLIC	?GetGold@CMover@@QAEHXZ				; CMover::GetGold
; Function compile flags: /Ogty
;	COMDAT ?GetGold@CMover@@QAEHXZ
_TEXT	SEGMENT
?GetGold@CMover@@QAEHXZ PROC NEAR			; CMover::GetGold, COMDAT
; _this$ = ecx

; 1230 : 	ASSERT( m_dwGold <= INT_MAX );
; 1231 : 	return m_dwGold;

  00000	8b 41 34	 mov	 eax, DWORD PTR [ecx+52]

; 1232 : }

  00003	c3		 ret	 0
?GetGold@CMover@@QAEHXZ ENDP				; CMover::GetGold
_TEXT	ENDS
PUBLIC	?SetGold@CMover@@QAEXH@Z			; CMover::SetGold
; Function compile flags: /Ogty
;	COMDAT ?SetGold@CMover@@QAEXH@Z
_TEXT	SEGMENT
_nGold$ = 8						; size = 4
?SetGold@CMover@@QAEXH@Z PROC NEAR			; CMover::SetGold, COMDAT
; _this$ = ecx

; 1236 : 	ASSERT( nGold >= 0 );
; 1237 : 	m_dwGold = (DWORD)nGold;

  00000	8b 44 24 04	 mov	 eax, DWORD PTR _nGold$[esp-4]
  00004	89 41 34	 mov	 DWORD PTR [ecx+52], eax

; 1238 : }

  00007	c2 04 00	 ret	 4
?SetGold@CMover@@QAEXH@Z ENDP				; CMover::SetGold
_TEXT	ENDS
PUBLIC	?size@?$basic_string@DU?$char_traits@D@std@@V?$allocator@D@2@@std@@QBEIXZ ; std::basic_string<char,std::char_traits<char>,std::allocator<char> >::size
; Function compile flags: /Ogty
; File c:\program files\microsoft visual studio .net 2003\vc7\include\xstring
;	COMDAT ?size@?$basic_string@DU?$char_traits@D@std@@V?$allocator@D@2@@std@@QBEIXZ
_TEXT	SEGMENT
?size@?$basic_string@DU?$char_traits@D@std@@V?$allocator@D@2@@std@@QBEIXZ PROC NEAR ; std::basic_string<char,std::char_traits<char>,std::allocator<char> >::size, COMDAT
; _this$ = ecx

; 1109 : 		return (_Mysize);

  00000	8b 41 14	 mov	 eax, DWORD PTR [ecx+20]

; 1110 : 		}

  00003	c3		 ret	 0
?size@?$basic_string@DU?$char_traits@D@std@@V?$allocator@D@2@@std@@QBEIXZ ENDP ; std::basic_string<char,std::char_traits<char>,std::allocator<char> >::size
_TEXT	ENDS
PUBLIC	?_Myptr@?$basic_string@DU?$char_traits@D@std@@V?$allocator@D@2@@std@@QBEPBDXZ ; std::basic_string<char,std::char_traits<char>,std::allocator<char> >::_Myptr
; Function compile flags: /Ogty
;	COMDAT ?_Myptr@?$basic_string@DU?$char_traits@D@std@@V?$allocator@D@2@@std@@QBEPBDXZ
_TEXT	SEGMENT
?_Myptr@?$basic_string@DU?$char_traits@D@std@@V?$allocator@D@2@@std@@QBEPBDXZ PROC NEAR ; std::basic_string<char,std::char_traits<char>,std::allocator<char> >::_Myptr, COMDAT
; _this$ = ecx

; 1537 : 		return (_BUF_SIZE <= _Myres ? _Bx._Ptr : _Bx._Buf);

  00000	83 79 18 10	 cmp	 DWORD PTR [ecx+24], 16	; 00000010H
  00004	72 04		 jb	 SHORT $L187861
  00006	8b 41 04	 mov	 eax, DWORD PTR [ecx+4]

; 1538 : 		}

  00009	c3		 ret	 0
$L187861:

; 1537 : 		return (_BUF_SIZE <= _Myres ? _Bx._Ptr : _Bx._Buf);

  0000a	8d 41 04	 lea	 eax, DWORD PTR [ecx+4]

; 1538 : 		}

  0000d	c3		 ret	 0
?_Myptr@?$basic_string@DU?$char_traits@D@std@@V?$allocator@D@2@@std@@QBEPBDXZ ENDP ; std::basic_string<char,std::char_traits<char>,std::allocator<char> >::_Myptr
_TEXT	ENDS
PUBLIC	??0?$allocator@D@std@@QAE@XZ			; std::allocator<char>::allocator<char>
; Function compile flags: /Ogty
; File c:\program files\microsoft visual studio .net 2003\vc7\include\xmemory
;	COMDAT ??0?$allocator@D@std@@QAE@XZ
_TEXT	SEGMENT
??0?$allocator@D@std@@QAE@XZ PROC NEAR			; std::allocator<char>::allocator<char>, COMDAT
; _this$ = ecx

; 111  : 	allocator()

  00000	8b c1		 mov	 eax, ecx

; 112  : 		{	// construct default allocator (do nothing)
; 113  : 		}

  00002	c3		 ret	 0
??0?$allocator@D@std@@QAE@XZ ENDP			; std::allocator<char>::allocator<char>
_TEXT	ENDS
PUBLIC	??0?$allocator@D@std@@QAE@ABV01@@Z		; std::allocator<char>::allocator<char>
; Function compile flags: /Ogty
;	COMDAT ??0?$allocator@D@std@@QAE@ABV01@@Z
_TEXT	SEGMENT
___formal$ = 8						; size = 4
??0?$allocator@D@std@@QAE@ABV01@@Z PROC NEAR		; std::allocator<char>::allocator<char>, COMDAT
; _this$ = ecx

; 115  : 	allocator(const allocator<_Ty>&)

  00000	8b c1		 mov	 eax, ecx

; 116  : 		{	// construct by copying (do nothing)
; 117  : 		}

  00002	c2 04 00	 ret	 4
??0?$allocator@D@std@@QAE@ABV01@@Z ENDP			; std::allocator<char>::allocator<char>
_TEXT	ENDS
PUBLIC	?_Myptr@?$basic_string@DU?$char_traits@D@std@@V?$allocator@D@2@@std@@QAEPADXZ ; std::basic_string<char,std::char_traits<char>,std::allocator<char> >::_Myptr
; Function compile flags: /Ogty
; File c:\program files\microsoft visual studio .net 2003\vc7\include\xstring
;	COMDAT ?_Myptr@?$basic_string@DU?$char_traits@D@std@@V?$allocator@D@2@@std@@QAEPADXZ
_TEXT	SEGMENT
?_Myptr@?$basic_string@DU?$char_traits@D@std@@V?$allocator@D@2@@std@@QAEPADXZ PROC NEAR ; std::basic_string<char,std::char_traits<char>,std::allocator<char> >::_Myptr, COMDAT
; _this$ = ecx

; 1532 : 		return (_BUF_SIZE <= _Myres ? _Bx._Ptr : _Bx._Buf);

  00000	83 79 18 10	 cmp	 DWORD PTR [ecx+24], 16	; 00000010H
  00004	72 04		 jb	 SHORT $L187869
  00006	8b 41 04	 mov	 eax, DWORD PTR [ecx+4]

; 1533 : 		}

  00009	c3		 ret	 0
$L187869:

; 1532 : 		return (_BUF_SIZE <= _Myres ? _Bx._Ptr : _Bx._Buf);

  0000a	8d 41 04	 lea	 eax, DWORD PTR [ecx+4]

; 1533 : 		}

  0000d	c3		 ret	 0
?_Myptr@?$basic_string@DU?$char_traits@D@std@@V?$allocator@D@2@@std@@QAEPADXZ ENDP ; std::basic_string<char,std::char_traits<char>,std::allocator<char> >::_Myptr
_TEXT	ENDS
PUBLIC	?deallocate@?$allocator@D@std@@QAEXPADI@Z	; std::allocator<char>::deallocate
; Function compile flags: /Ogty
; File c:\program files\microsoft visual studio .net 2003\vc7\include\xmemory
;	COMDAT ?deallocate@?$allocator@D@std@@QAEXPADI@Z
_TEXT	SEGMENT
__Ptr$ = 8						; size = 4
___formal$ = 12						; size = 4
?deallocate@?$allocator@D@std@@QAEXPADI@Z PROC NEAR	; std::allocator<char>::deallocate, COMDAT
; _this$ = ecx

; 132  : 		operator delete(_Ptr);

  00000	8b 44 24 04	 mov	 eax, DWORD PTR __Ptr$[esp-4]
  00004	50		 push	 eax
  00005	e8 00 00 00 00	 call	 ??3@YAXPAX@Z		; operator delete
  0000a	59		 pop	 ecx

; 133  : 		}

  0000b	c2 08 00	 ret	 8
?deallocate@?$allocator@D@std@@QAEXPADI@Z ENDP		; std::allocator<char>::deallocate
_TEXT	ENDS
PUBLIC	?_Inside@?$basic_string@DU?$char_traits@D@std@@V?$allocator@D@2@@std@@IAE_NPBD@Z ; std::basic_string<char,std::char_traits<char>,std::allocator<char> >::_Inside
; Function compile flags: /Ogty
; File c:\program files\microsoft visual studio .net 2003\vc7\include\xstring
;	COMDAT ?_Inside@?$basic_string@DU?$char_traits@D@std@@V?$allocator@D@2@@std@@IAE_NPBD@Z
_TEXT	SEGMENT
__Ptr$ = 8						; size = 4
?_Inside@?$basic_string@DU?$char_traits@D@std@@V?$allocator@D@2@@std@@IAE_NPBD@Z PROC NEAR ; std::basic_string<char,std::char_traits<char>,std::allocator<char> >::_Inside, COMDAT
; _this$ = ecx

; 1494 : 		{	// test if _Ptr points inside string

  00000	56		 push	 esi

; 1495 : 		if (_Ptr < _Myptr() || _Myptr() + _Mysize <= _Ptr)

  00001	8b 71 18	 mov	 esi, DWORD PTR [ecx+24]
  00004	83 fe 10	 cmp	 esi, 16			; 00000010H
  00007	57		 push	 edi
  00008	8d 41 04	 lea	 eax, DWORD PTR [ecx+4]
  0000b	72 04		 jb	 SHORT $L187879
  0000d	8b 10		 mov	 edx, DWORD PTR [eax]
  0000f	eb 02		 jmp	 SHORT $L187880
$L187879:
  00011	8b d0		 mov	 edx, eax
$L187880:
  00013	8b 7c 24 0c	 mov	 edi, DWORD PTR __Ptr$[esp+4]
  00017	3b fa		 cmp	 edi, edx
  00019	72 17		 jb	 SHORT $L185560
  0001b	83 fe 10	 cmp	 esi, 16			; 00000010H
  0001e	72 02		 jb	 SHORT $L187887
  00020	8b 00		 mov	 eax, DWORD PTR [eax]
$L187887:
  00022	8b 49 14	 mov	 ecx, DWORD PTR [ecx+20]
  00025	03 c8		 add	 ecx, eax
  00027	3b cf		 cmp	 ecx, edi
  00029	76 07		 jbe	 SHORT $L185560
  0002b	5f		 pop	 edi

; 1497 : 		else
; 1498 : 			return (true);

  0002c	b0 01		 mov	 al, 1
  0002e	5e		 pop	 esi

; 1499 : 		}

  0002f	c2 04 00	 ret	 4
$L185560:
  00032	5f		 pop	 edi

; 1496 : 			return (false);	// don't ask

  00033	32 c0		 xor	 al, al
  00035	5e		 pop	 esi

; 1499 : 		}

  00036	c2 04 00	 ret	 4
?_Inside@?$basic_string@DU?$char_traits@D@std@@V?$allocator@D@2@@std@@IAE_NPBD@Z ENDP ; std::basic_string<char,std::char_traits<char>,std::allocator<char> >::_Inside
_TEXT	ENDS
PUBLIC	?max_size@?$allocator@D@std@@QBEIXZ		; std::allocator<char>::max_size
; Function compile flags: /Ogty
; File c:\program files\microsoft visual studio .net 2003\vc7\include\xmemory
;	COMDAT ?max_size@?$allocator@D@std@@QBEIXZ
_TEXT	SEGMENT
?max_size@?$allocator@D@std@@QBEIXZ PROC NEAR		; std::allocator<char>::max_size, COMDAT
; _this$ = ecx

; 157  : 		_SIZT _Count = (_SIZT)(-1) / sizeof (_Ty);
; 158  : 		return (0 < _Count ? _Count : 1);

  00000	83 c8 ff	 or	 eax, -1

; 159  : 		}

  00003	c3		 ret	 0
?max_size@?$allocator@D@std@@QBEIXZ ENDP		; std::allocator<char>::max_size
_TEXT	ENDS
PUBLIC	?_Nextnode@?$list@PAXV?$allocator@PAX@std@@@std@@KAAAPAU_Node@?$_List_nod@PAXV?$allocator@PAX@std@@@2@PAU342@@Z ; std::list<void *,std::allocator<void *> >::_Nextnode
; Function compile flags: /Ogty
; File c:\program files\microsoft visual studio .net 2003\vc7\include\list
;	COMDAT ?_Nextnode@?$list@PAXV?$allocator@PAX@std@@@std@@KAAAPAU_Node@?$_List_nod@PAXV?$allocator@PAX@std@@@2@PAU342@@Z
_TEXT	SEGMENT
__Pnode$ = 8						; size = 4
?_Nextnode@?$list@PAXV?$allocator@PAX@std@@@std@@KAAAPAU_Node@?$_List_nod@PAXV?$allocator@PAX@std@@@2@PAU342@@Z PROC NEAR ; std::list<void *,std::allocator<void *> >::_Nextnode, COMDAT

; 108  : 		return ((_Nodepref)(*_Pnode)._Next);

  00000	8b 44 24 04	 mov	 eax, DWORD PTR __Pnode$[esp-4]

; 109  : 		}

  00004	c3		 ret	 0
?_Nextnode@?$list@PAXV?$allocator@PAX@std@@@std@@KAAAPAU_Node@?$_List_nod@PAXV?$allocator@PAX@std@@@2@PAU342@@Z ENDP ; std::list<void *,std::allocator<void *> >::_Nextnode
_TEXT	ENDS
PUBLIC	?_Prevnode@?$list@PAXV?$allocator@PAX@std@@@std@@KAAAPAU_Node@?$_List_nod@PAXV?$allocator@PAX@std@@@2@PAU342@@Z ; std::list<void *,std::allocator<void *> >::_Prevnode
; Function compile flags: /Ogty
;	COMDAT ?_Prevnode@?$list@PAXV?$allocator@PAX@std@@@std@@KAAAPAU_Node@?$_List_nod@PAXV?$allocator@PAX@std@@@2@PAU342@@Z
_TEXT	SEGMENT
__Pnode$ = 8						; size = 4
?_Prevnode@?$list@PAXV?$allocator@PAX@std@@@std@@KAAAPAU_Node@?$_List_nod@PAXV?$allocator@PAX@std@@@2@PAU342@@Z PROC NEAR ; std::list<void *,std::allocator<void *> >::_Prevnode, COMDAT

; 113  : 		return ((_Nodepref)(*_Pnode)._Prev);

  00000	8b 44 24 04	 mov	 eax, DWORD PTR __Pnode$[esp-4]
  00004	83 c0 04	 add	 eax, 4

; 114  : 		}

  00007	c3		 ret	 0
?_Prevnode@?$list@PAXV?$allocator@PAX@std@@@std@@KAAAPAU_Node@?$_List_nod@PAXV?$allocator@PAX@std@@@2@PAU342@@Z ENDP ; std::list<void *,std::allocator<void *> >::_Prevnode
_TEXT	ENDS
PUBLIC	?_Mynode@const_iterator@?$list@PAXV?$allocator@PAX@std@@@std@@QBEPAU_Node@?$_List_nod@PAXV?$allocator@PAX@std@@@3@XZ ; std::list<void *,std::allocator<void *> >::const_iterator::_Mynode
; Function compile flags: /Ogty
;	COMDAT ?_Mynode@const_iterator@?$list@PAXV?$allocator@PAX@std@@@std@@QBEPAU_Node@?$_List_nod@PAXV?$allocator@PAX@std@@@3@XZ
_TEXT	SEGMENT
?_Mynode@const_iterator@?$list@PAXV?$allocator@PAX@std@@@std@@QBEPAU_Node@?$_List_nod@PAXV?$allocator@PAX@std@@@3@XZ PROC NEAR ; std::list<void *,std::allocator<void *> >::const_iterator::_Mynode, COMDAT
; _this$ = ecx

; 207  : 			return (_Ptr);

  00000	8b 01		 mov	 eax, DWORD PTR [ecx]

; 208  : 			}

  00002	c3		 ret	 0
?_Mynode@const_iterator@?$list@PAXV?$allocator@PAX@std@@@std@@QBEPAU_Node@?$_List_nod@PAXV?$allocator@PAX@std@@@3@XZ ENDP ; std::list<void *,std::allocator<void *> >::const_iterator::_Mynode
_TEXT	ENDS
PUBLIC	?deallocate@?$allocator@U_Node@?$_List_nod@PAXV?$allocator@PAX@std@@@std@@@std@@QAEXPAU_Node@?$_List_nod@PAXV?$allocator@PAX@std@@@2@I@Z ; std::allocator<std::_List_nod<void *,std::allocator<void *> >::_Node>::deallocate
; Function compile flags: /Ogty
; File c:\program files\microsoft visual studio .net 2003\vc7\include\xmemory
;	COMDAT ?deallocate@?$allocator@U_Node@?$_List_nod@PAXV?$allocator@PAX@std@@@std@@@std@@QAEXPAU_Node@?$_List_nod@PAXV?$allocator@PAX@std@@@2@I@Z
_TEXT	SEGMENT
__Ptr$ = 8						; size = 4
___formal$ = 12						; size = 4
?deallocate@?$allocator@U_Node@?$_List_nod@PAXV?$allocator@PAX@std@@@std@@@std@@QAEXPAU_Node@?$_List_nod@PAXV?$allocator@PAX@std@@@2@I@Z PROC NEAR ; std::allocator<std::_List_nod<void *,std::allocator<void *> >::_Node>::deallocate, COMDAT
; _this$ = ecx

; 132  : 		operator delete(_Ptr);

  00000	8b 44 24 04	 mov	 eax, DWORD PTR __Ptr$[esp-4]
  00004	50		 push	 eax
  00005	e8 00 00 00 00	 call	 ??3@YAXPAX@Z		; operator delete
  0000a	59		 pop	 ecx

; 133  : 		}

  0000b	c2 08 00	 ret	 8
?deallocate@?$allocator@U_Node@?$_List_nod@PAXV?$allocator@PAX@std@@@std@@@std@@QAEXPAU_Node@?$_List_nod@PAXV?$allocator@PAX@std@@@2@I@Z ENDP ; std::allocator<std::_List_nod<void *,std::allocator<void *> >::_Node>::deallocate
_TEXT	ENDS
PUBLIC	??0const_iterator@?$list@PAXV?$allocator@PAX@std@@@std@@QAE@PAU_Node@?$_List_nod@PAXV?$allocator@PAX@std@@@2@@Z ; std::list<void *,std::allocator<void *> >::const_iterator::const_iterator
; Function compile flags: /Ogty
; File c:\program files\microsoft visual studio .net 2003\vc7\include\list
;	COMDAT ??0const_iterator@?$list@PAXV?$allocator@PAX@std@@@std@@QAE@PAU_Node@?$_List_nod@PAXV?$allocator@PAX@std@@@2@@Z
_TEXT	SEGMENT
__Pnode$ = 8						; size = 4
??0const_iterator@?$list@PAXV?$allocator@PAX@std@@@std@@QAE@PAU_Node@?$_List_nod@PAXV?$allocator@PAX@std@@@2@@Z PROC NEAR ; std::list<void *,std::allocator<void *> >::const_iterator::const_iterator, COMDAT
; _this$ = ecx

; 156  : 			{	// construct with node pointer _Pnode

  00000	8b c1		 mov	 eax, ecx
  00002	8b 4c 24 04	 mov	 ecx, DWORD PTR __Pnode$[esp-4]
  00006	89 08		 mov	 DWORD PTR [eax], ecx

; 157  : 			}

  00008	c2 04 00	 ret	 4
??0const_iterator@?$list@PAXV?$allocator@PAX@std@@@std@@QAE@PAU_Node@?$_List_nod@PAXV?$allocator@PAX@std@@@2@@Z ENDP ; std::list<void *,std::allocator<void *> >::const_iterator::const_iterator
_TEXT	ENDS
PUBLIC	??0_Node@?$_List_nod@PAXV?$allocator@PAX@std@@@std@@QAE@PAU012@0ABQAX@Z ; std::_List_nod<void *,std::allocator<void *> >::_Node::_Node
; Function compile flags: /Ogty
;	COMDAT ??0_Node@?$_List_nod@PAXV?$allocator@PAX@std@@@std@@QAE@PAU012@0ABQAX@Z
_TEXT	SEGMENT
__Nextarg$ = 8						; size = 4
__Prevarg$ = 12						; size = 4
__Myvalarg$ = 16					; size = 4
??0_Node@?$_List_nod@PAXV?$allocator@PAX@std@@@std@@QAE@PAU012@0ABQAX@Z PROC NEAR ; std::_List_nod<void *,std::allocator<void *> >::_Node::_Node, COMDAT
; _this$ = ecx

; 34   : 			{	// construct a node with value

  00000	8b 54 24 08	 mov	 edx, DWORD PTR __Prevarg$[esp-4]
  00004	8b c1		 mov	 eax, ecx
  00006	8b 4c 24 04	 mov	 ecx, DWORD PTR __Nextarg$[esp-4]
  0000a	89 08		 mov	 DWORD PTR [eax], ecx
  0000c	8b 4c 24 0c	 mov	 ecx, DWORD PTR __Myvalarg$[esp-4]
  00010	89 50 04	 mov	 DWORD PTR [eax+4], edx
  00013	8b 11		 mov	 edx, DWORD PTR [ecx]
  00015	89 50 08	 mov	 DWORD PTR [eax+8], edx

; 35   : 			}

  00018	c2 0c 00	 ret	 12			; 0000000cH
??0_Node@?$_List_nod@PAXV?$allocator@PAX@std@@@std@@QAE@PAU012@0ABQAX@Z ENDP ; std::_List_nod<void *,std::allocator<void *> >::_Node::_Node
_TEXT	ENDS
PUBLIC	?max_size@?$allocator@PAX@std@@QBEIXZ		; std::allocator<void *>::max_size
; Function compile flags: /Ogty
; File c:\program files\microsoft visual studio .net 2003\vc7\include\xmemory
;	COMDAT ?max_size@?$allocator@PAX@std@@QBEIXZ
_TEXT	SEGMENT
?max_size@?$allocator@PAX@std@@QBEIXZ PROC NEAR		; std::allocator<void *>::max_size, COMDAT
; _this$ = ecx

; 157  : 		_SIZT _Count = (_SIZT)(-1) / sizeof (_Ty);
; 158  : 		return (0 < _Count ? _Count : 1);

  00000	b8 ff ff ff 3f	 mov	 eax, 1073741823		; 3fffffffH

; 159  : 		}

  00005	c3		 ret	 0
?max_size@?$allocator@PAX@std@@QBEIXZ ENDP		; std::allocator<void *>::max_size
_TEXT	ENDS
PUBLIC	?GetAt@?$CFixedArray@UItemProp@@@@QAEPAUItemProp@@K@Z ; CFixedArray<ItemProp>::GetAt
; Function compile flags: /Ogty
; File c:\documents and settings\test\mes documents\source\virtuos_v17\build\program\_common\data.h
;	COMDAT ?GetAt@?$CFixedArray@UItemProp@@@@QAEPAUItemProp@@K@Z
_TEXT	SEGMENT
_dwIndex$ = 8						; size = 4
?GetAt@?$CFixedArray@UItemProp@@@@QAEPAUItemProp@@K@Z PROC NEAR ; CFixedArray<ItemProp>::GetAt, COMDAT
; _this$ = ecx

; 270  : 	if( dwIndex >= (DWORD)m_nMaxIndex )

  00000	8b 44 24 04	 mov	 eax, DWORD PTR _dwIndex$[esp-4]
  00004	3b 41 18	 cmp	 eax, DWORD PTR [ecx+24]
  00007	72 05		 jb	 SHORT $L186281

; 271  : 		return NULL;

  00009	33 c0		 xor	 eax, eax

; 273  : }

  0000b	c2 04 00	 ret	 4
$L186281:

; 272  : 	return (T*) m_apOffset[ dwIndex ];

  0000e	8b 49 08	 mov	 ecx, DWORD PTR [ecx+8]
  00011	8b 04 81	 mov	 eax, DWORD PTR [ecx+eax*4]

; 273  : }

  00014	c2 04 00	 ret	 4
?GetAt@?$CFixedArray@UItemProp@@@@QAEPAUItemProp@@K@Z ENDP ; CFixedArray<ItemProp>::GetAt
_TEXT	ENDS
PUBLIC	??1?$CItemContainer@VCItemElem@@@@UAE@XZ	; CItemContainer<CItemElem>::~CItemContainer<CItemElem>
EXTRN	??_V@YAXPAX@Z:NEAR				; operator delete[]
; Function compile flags: /Ogty
; File c:\documents and settings\test\mes documents\source\virtuos_v17\build\program\_network\objects\obj.h
;	COMDAT ??1?$CItemContainer@VCItemElem@@@@UAE@XZ
_TEXT	SEGMENT
??1?$CItemContainer@VCItemElem@@@@UAE@XZ PROC NEAR	; CItemContainer<CItemElem>::~CItemContainer<CItemElem>, COMDAT
; _this$ = ecx

; 328  : {

  00000	56		 push	 esi
  00001	8b f1		 mov	 esi, ecx

; 329  : 	SAFE_DELETE_ARRAY( m_apItem );

  00003	8b 4e 0c	 mov	 ecx, DWORD PTR [esi+12]
  00006	85 c9		 test	 ecx, ecx
  00008	c7 06 00 00 00
	00		 mov	 DWORD PTR [esi], OFFSET FLAT:??_7?$CItemContainer@VCItemElem@@@@6B@
  0000e	74 22		 je	 SHORT $L186305
  00010	8b 51 fc	 mov	 edx, DWORD PTR [ecx-4]
  00013	85 d2		 test	 edx, edx
  00015	8d 41 fc	 lea	 eax, DWORD PTR [ecx-4]
  00018	74 08		 je	 SHORT $L187916
  0001a	8b 01		 mov	 eax, DWORD PTR [ecx]
  0001c	6a 03		 push	 3
  0001e	ff 10		 call	 DWORD PTR [eax]
  00020	eb 09		 jmp	 SHORT $L187917
$L187916:
  00022	50		 push	 eax
  00023	e8 00 00 00 00	 call	 ??_V@YAXPAX@Z		; operator delete[]
  00028	83 c4 04	 add	 esp, 4
$L187917:
  0002b	c7 46 0c 00 00
	00 00		 mov	 DWORD PTR [esi+12], 0
$L186305:

; 330  : 	SAFE_DELETE_ARRAY( m_apIndex );

  00032	8b 46 04	 mov	 eax, DWORD PTR [esi+4]
  00035	85 c0		 test	 eax, eax
  00037	74 10		 je	 SHORT $L186310
  00039	50		 push	 eax
  0003a	e8 00 00 00 00	 call	 ??_V@YAXPAX@Z		; operator delete[]
  0003f	83 c4 04	 add	 esp, 4
  00042	c7 46 04 00 00
	00 00		 mov	 DWORD PTR [esi+4], 0
$L186310:
  00049	5e		 pop	 esi

; 331  : }

  0004a	c3		 ret	 0
??1?$CItemContainer@VCItemElem@@@@UAE@XZ ENDP		; CItemContainer<CItemElem>::~CItemContainer<CItemElem>
_TEXT	ENDS
PUBLIC	??$_Allocate@D@std@@YAPADIPAD@Z			; std::_Allocate<char>
EXTRN	??2@YAPAXI@Z:NEAR				; operator new
; Function compile flags: /Ogty
; File c:\program files\microsoft visual studio .net 2003\vc7\include\xmemory
;	COMDAT ??$_Allocate@D@std@@YAPADIPAD@Z
_TEXT	SEGMENT
__Count$ = 8						; size = 4
___formal$ = 12						; size = 4
??$_Allocate@D@std@@YAPADIPAD@Z PROC NEAR		; std::_Allocate<char>, COMDAT

; 34   : 	return ((_Ty _FARQ *)operator new(_Count * sizeof (_Ty)));

  00000	8b 44 24 04	 mov	 eax, DWORD PTR __Count$[esp-4]
  00004	50		 push	 eax
  00005	e8 00 00 00 00	 call	 ??2@YAPAXI@Z		; operator new
  0000a	83 c4 04	 add	 esp, 4

; 35   : 	}

  0000d	c3		 ret	 0
??$_Allocate@D@std@@YAPADIPAD@Z ENDP			; std::_Allocate<char>
_TEXT	ENDS
PUBLIC	??$_Allocate@U_Node@?$_List_nod@PAXV?$allocator@PAX@std@@@std@@@std@@YAPAU_Node@?$_List_nod@PAXV?$allocator@PAX@std@@@0@IPAU120@@Z ; std::_Allocate<std::_List_nod<void *,std::allocator<void *> >::_Node>
; Function compile flags: /Ogty
;	COMDAT ??$_Allocate@U_Node@?$_List_nod@PAXV?$allocator@PAX@std@@@std@@@std@@YAPAU_Node@?$_List_nod@PAXV?$allocator@PAX@std@@@0@IPAU120@@Z
_TEXT	SEGMENT
__Count$ = 8						; size = 4
___formal$ = 12						; size = 4
??$_Allocate@U_Node@?$_List_nod@PAXV?$allocator@PAX@std@@@std@@@std@@YAPAU_Node@?$_List_nod@PAXV?$allocator@PAX@std@@@0@IPAU120@@Z PROC NEAR ; std::_Allocate<std::_List_nod<void *,std::allocator<void *> >::_Node>, COMDAT

; 34   : 	return ((_Ty _FARQ *)operator new(_Count * sizeof (_Ty)));

  00000	8b 44 24 04	 mov	 eax, DWORD PTR __Count$[esp-4]
  00004	8d 04 40	 lea	 eax, DWORD PTR [eax+eax*2]
  00007	c1 e0 02	 shl	 eax, 2
  0000a	50		 push	 eax
  0000b	e8 00 00 00 00	 call	 ??2@YAPAXI@Z		; operator new
  00010	83 c4 04	 add	 esp, 4

; 35   : 	}

  00013	c3		 ret	 0
??$_Allocate@U_Node@?$_List_nod@PAXV?$allocator@PAX@std@@@std@@@std@@YAPAU_Node@?$_List_nod@PAXV?$allocator@PAX@std@@@0@IPAU120@@Z ENDP ; std::_Allocate<std::_List_nod<void *,std::allocator<void *> >::_Node>
; Function compile flags: /Ogty
_TEXT	ENDS
;	COMDAT ??_G?$CItemContainer@VCItemElem@@@@UAEPAXI@Z
_TEXT	SEGMENT
___flags$ = 8						; size = 4
??_G?$CItemContainer@VCItemElem@@@@UAEPAXI@Z PROC NEAR	; CItemContainer<CItemElem>::`scalar deleting destructor', COMDAT
; _this$ = ecx
  00000	56		 push	 esi
  00001	8b f1		 mov	 esi, ecx
  00003	8b 4e 0c	 mov	 ecx, DWORD PTR [esi+12]
  00006	85 c9		 test	 ecx, ecx
  00008	c7 06 00 00 00
	00		 mov	 DWORD PTR [esi], OFFSET FLAT:??_7?$CItemContainer@VCItemElem@@@@6B@
  0000e	74 22		 je	 SHORT $L187946
  00010	8b 51 fc	 mov	 edx, DWORD PTR [ecx-4]
  00013	85 d2		 test	 edx, edx
  00015	8d 41 fc	 lea	 eax, DWORD PTR [ecx-4]
  00018	74 08		 je	 SHORT $L187940
  0001a	8b 01		 mov	 eax, DWORD PTR [ecx]
  0001c	6a 03		 push	 3
  0001e	ff 10		 call	 DWORD PTR [eax]
  00020	eb 09		 jmp	 SHORT $L187941
$L187940:
  00022	50		 push	 eax
  00023	e8 00 00 00 00	 call	 ??_V@YAXPAX@Z		; operator delete[]
  00028	83 c4 04	 add	 esp, 4
$L187941:
  0002b	c7 46 0c 00 00
	00 00		 mov	 DWORD PTR [esi+12], 0
$L187946:
  00032	8b 46 04	 mov	 eax, DWORD PTR [esi+4]
  00035	85 c0		 test	 eax, eax
  00037	74 10		 je	 SHORT $L187947
  00039	50		 push	 eax
  0003a	e8 00 00 00 00	 call	 ??_V@YAXPAX@Z		; operator delete[]
  0003f	83 c4 04	 add	 esp, 4
  00042	c7 46 04 00 00
	00 00		 mov	 DWORD PTR [esi+4], 0
$L187947:
  00049	f6 44 24 08 01	 test	 BYTE PTR ___flags$[esp], 1
  0004e	74 09		 je	 SHORT $L187948
  00050	56		 push	 esi
  00051	e8 00 00 00 00	 call	 ??3@YAXPAX@Z		; operator delete
  00056	83 c4 04	 add	 esp, 4
$L187948:
  00059	8b c6		 mov	 eax, esi
  0005b	5e		 pop	 esi
  0005c	c2 04 00	 ret	 4
??_G?$CItemContainer@VCItemElem@@@@UAEPAXI@Z ENDP	; CItemContainer<CItemElem>::`scalar deleting destructor'
_TEXT	ENDS
PUBLIC	??0CObj@@QAE@XZ					; CObj::CObj
; Function compile flags: /Ogty
; File c:\documents and settings\test\mes documents\source\virtuos_v17\build\program\_network\objects\obj.cpp
;	COMDAT ??0CObj@@QAE@XZ
_TEXT	SEGMENT
$T187952 = -12						; size = 12
$T187951 = -12						; size = 12
??0CObj@@QAE@XZ PROC NEAR				; CObj::CObj, COMDAT
; _this$ = ecx

; 18   : {

  00000	83 ec 0c	 sub	 esp, 12			; 0000000cH
  00003	8b c1		 mov	 eax, ecx
  00005	33 c9		 xor	 ecx, ecx
  00007	56		 push	 esi

; 19   : 	m_dwType		=	m_dwIndex	= m_dwMotion	= 0;
; 20   : 	m_vPos	= D3DXVECTOR3( 0, 0, 0 );

  00008	8b f1		 mov	 esi, ecx
  0000a	8d 50 1c	 lea	 edx, DWORD PTR [eax+28]
  0000d	89 32		 mov	 DWORD PTR [edx], esi
  0000f	89 72 04	 mov	 DWORD PTR [edx+4], esi
  00012	89 72 08	 mov	 DWORD PTR [edx+8], esi
  00015	89 4c 24 04	 mov	 DWORD PTR $T187951[esp+16], ecx

; 21   : 	m_vScale	= D3DXVECTOR3( 1, 1, 1 );

  00019	c7 44 24 04 00
	00 80 3f	 mov	 DWORD PTR $T187952[esp+16], 1065353216 ; 3f800000H
  00021	8b 74 24 04	 mov	 esi, DWORD PTR $T187952[esp+16]
  00025	8d 50 0c	 lea	 edx, DWORD PTR [eax+12]
  00028	89 32		 mov	 DWORD PTR [edx], esi
  0002a	89 4c 24 08	 mov	 DWORD PTR $T187951[esp+20], ecx
  0002e	c7 44 24 08 00
	00 80 3f	 mov	 DWORD PTR $T187952[esp+20], 1065353216 ; 3f800000H
  00036	8b 74 24 08	 mov	 esi, DWORD PTR $T187952[esp+20]
  0003a	89 72 04	 mov	 DWORD PTR [edx+4], esi
  0003d	89 4c 24 0c	 mov	 DWORD PTR $T187951[esp+24], ecx
  00041	c7 44 24 0c 00
	00 80 3f	 mov	 DWORD PTR $T187952[esp+24], 1065353216 ; 3f800000H
  00049	8b 74 24 0c	 mov	 esi, DWORD PTR $T187952[esp+24]
  0004d	89 72 08	 mov	 DWORD PTR [edx+8], esi
  00050	c7 00 00 00 00
	00		 mov	 DWORD PTR [eax], OFFSET FLAT:??_7CObj@@6B@
  00056	89 48 2c	 mov	 DWORD PTR [eax+44], ecx
  00059	89 48 18	 mov	 DWORD PTR [eax+24], ecx
  0005c	89 48 08	 mov	 DWORD PTR [eax+8], ecx
  0005f	89 48 04	 mov	 DWORD PTR [eax+4], ecx

; 22   : 	m_fAngle	= 0;

  00062	89 48 28	 mov	 DWORD PTR [eax+40], ecx
  00065	5e		 pop	 esi

; 23   : }

  00066	83 c4 0c	 add	 esp, 12			; 0000000cH
  00069	c3		 ret	 0
??0CObj@@QAE@XZ ENDP					; CObj::CObj
_TEXT	ENDS
PUBLIC	??0CCtrl@@QAE@XZ				; CCtrl::CCtrl
PUBLIC	??_7CCtrl@@6B@					; CCtrl::`vftable'
PUBLIC	??_GCCtrl@@UAEPAXI@Z				; CCtrl::`scalar deleting destructor'
EXTRN	?Serialize@CCtrl@@UAEXAAVCAr@@@Z:NEAR		; CCtrl::Serialize
EXTRN	??_ECCtrl@@UAEPAXI@Z:NEAR			; CCtrl::`vector deleting destructor'
;	COMDAT ??_7CCtrl@@6B@
CONST	SEGMENT
??_7CCtrl@@6B@ DD FLAT:??_ECCtrl@@UAEPAXI@Z		; CCtrl::`vftable'
	DD	FLAT:?Serialize@CCtrl@@UAEXAAVCAr@@@Z
; Function compile flags: /Ogty
CONST	ENDS
;	COMDAT ??0CCtrl@@QAE@XZ
_TEXT	SEGMENT
??0CCtrl@@QAE@XZ PROC NEAR				; CCtrl::CCtrl, COMDAT
; _this$ = ecx

; 27   : {

  00000	56		 push	 esi
  00001	8b f1		 mov	 esi, ecx
  00003	e8 00 00 00 00	 call	 ??0CObj@@QAE@XZ		; CObj::CObj
  00008	c7 06 00 00 00
	00		 mov	 DWORD PTR [esi], OFFSET FLAT:??_7CCtrl@@6B@

; 28   : 	m_dwType	= OT_CTRL;

  0000e	c7 46 04 02 00
	00 00		 mov	 DWORD PTR [esi+4], 2

; 29   : 	m_objid		= NULL_ID;

  00015	c7 46 30 ff ff
	ff ff		 mov	 DWORD PTR [esi+48], -1

; 30   : }

  0001c	8b c6		 mov	 eax, esi
  0001e	5e		 pop	 esi
  0001f	c3		 ret	 0
??0CCtrl@@QAE@XZ ENDP					; CCtrl::CCtrl
; Function compile flags: /Ogty
_TEXT	ENDS
;	COMDAT ??_GCCtrl@@UAEPAXI@Z
_TEXT	SEGMENT
___flags$ = 8						; size = 4
??_GCCtrl@@UAEPAXI@Z PROC NEAR				; CCtrl::`scalar deleting destructor', COMDAT
; _this$ = ecx
  00000	56		 push	 esi
  00001	8b f1		 mov	 esi, ecx
  00003	e8 00 00 00 00	 call	 ??1CCtrl@@UAE@XZ	; CCtrl::~CCtrl
  00008	f6 44 24 08 01	 test	 BYTE PTR ___flags$[esp], 1
  0000d	74 09		 je	 SHORT $L187974
  0000f	56		 push	 esi
  00010	e8 00 00 00 00	 call	 ??3@YAXPAX@Z		; operator delete
  00015	83 c4 04	 add	 esp, 4
$L187974:
  00018	8b c6		 mov	 eax, esi
  0001a	5e		 pop	 esi
  0001b	c2 04 00	 ret	 4
??_GCCtrl@@UAEPAXI@Z ENDP				; CCtrl::`scalar deleting destructor'
_TEXT	ENDS
PUBLIC	??0CItemElem@@QAE@XZ				; CItemElem::CItemElem
PUBLIC	?Empty@CItemElem@@UAEXXZ			; CItemElem::Empty
PUBLIC	??4CItemElem@@UAEAAV0@AAV0@@Z			; CItemElem::operator=
PUBLIC	??_7CItemElem@@6B@				; CItemElem::`vftable'
PUBLIC	??_ECItemElem@@UAEPAXI@Z			; CItemElem::`vector deleting destructor'
EXTRN	??0CPiercing@@QAE@XZ:NEAR			; CPiercing::CPiercing
EXTRN	__except_list:DWORD
EXTRN	___CxxFrameHandler:NEAR
EXTRN	?Serialize@CItemElem@@UAEXAAVCAr@@@Z:NEAR	; CItemElem::Serialize
;	COMDAT xdata$x
xdata$x	SEGMENT
$T187988 DD	0ffffffffH
	DD	FLAT:$L187977
$T187985 DD	019930520H
	DD	01H
	DD	FLAT:$T187988
	DD	2 DUP(00H)
	DD	2 DUP(00H)
xdata$x	ENDS
;	COMDAT ??_7CItemElem@@6B@
CONST	SEGMENT
??_7CItemElem@@6B@ DD FLAT:??_ECItemElem@@UAEPAXI@Z	; CItemElem::`vftable'
	DD	FLAT:?Empty@CItemElem@@UAEXXZ
	DD	FLAT:??4CItemBase@@UAEAAV0@AAV0@@Z
	DD	FLAT:?Serialize@CItemElem@@UAEXAAVCAr@@@Z
	DD	FLAT:??4CItemElem@@UAEAAV0@AAV0@@Z
; Function compile flags: /Ogty
CONST	ENDS
;	COMDAT ??0CItemElem@@QAE@XZ
_TEXT	SEGMENT
_this$ = -16						; size = 4
__$EHRec$ = -12						; size = 12
??0CItemElem@@QAE@XZ PROC NEAR				; CItemElem::CItemElem, COMDAT
; _this$ = ecx

; 44   : {

  00000	6a ff		 push	 -1
  00002	68 00 00 00 00	 push	 __ehhandler$??0CItemElem@@QAE@XZ
  00007	64 a1 00 00 00
	00		 mov	 eax, DWORD PTR fs:__except_list
  0000d	50		 push	 eax
  0000e	64 89 25 00 00
	00 00		 mov	 DWORD PTR fs:__except_list, esp
  00015	51		 push	 ecx
  00016	33 c0		 xor	 eax, eax
  00018	53		 push	 ebx
  00019	56		 push	 esi
  0001a	8b f1		 mov	 esi, ecx
  0001c	8d 4e 0c	 lea	 ecx, DWORD PTR [esi+12]
  0001f	89 01		 mov	 DWORD PTR [ecx], eax
  00021	89 41 04	 mov	 DWORD PTR [ecx+4], eax
  00024	89 41 08	 mov	 DWORD PTR [ecx+8], eax
  00027	89 41 0c	 mov	 DWORD PTR [ecx+12], eax
  0002a	89 41 10	 mov	 DWORD PTR [ecx+16], eax
  0002d	89 41 14	 mov	 DWORD PTR [ecx+20], eax
  00030	89 41 18	 mov	 DWORD PTR [ecx+24], eax
  00033	89 41 1c	 mov	 DWORD PTR [ecx+28], eax
  00036	33 db		 xor	 ebx, ebx
  00038	83 c8 ff	 or	 eax, -1
  0003b	89 74 24 08	 mov	 DWORD PTR _this$[esp+24], esi
  0003f	89 5e 08	 mov	 DWORD PTR [esi+8], ebx
  00042	89 46 04	 mov	 DWORD PTR [esi+4], eax
  00045	89 46 2c	 mov	 DWORD PTR [esi+44], eax
  00048	89 5e 30	 mov	 DWORD PTR [esi+48], ebx
  0004b	8d 4e 34	 lea	 ecx, DWORD PTR [esi+52]
  0004e	89 5c 24 14	 mov	 DWORD PTR __$EHRec$[esp+32], ebx
  00052	c7 06 00 00 00
	00		 mov	 DWORD PTR [esi], OFFSET FLAT:??_7CItemElem@@6B@
  00058	e8 00 00 00 00	 call	 ??0CPiercing@@QAE@XZ	; CPiercing::CPiercing

; 45   : 	m_byFlag			= 0;
; 46   : 	m_nItemNum			= 1;
; 47   : 	m_idGuild			= 0;
; 48   : 	m_nAbilityOption	= 0;
; 49   : 	m_nRepairNumber		= 0;
; 50   : 	m_nHitPoint			= 0;
; 51   : 	m_nRepair			= 0;
; 52   : 	
; 53   :     m_bItemResist = SAI79::NO_PROP;
; 54   : 	m_nResistAbilityOption = 0;	
; 55   : 	m_nResistSMItemId = 0;
; 56   : 
; 57   : //	memset( &m_piercingInfo, 0x00, sizeof(m_piercingInfo) );
; 58   : 
; 59   : 	m_bCharged	= FALSE;
; 60   : 	m_dwKeepTime = 0;
; 61   : #if __VER >= 11 // __SYS_IDENTIFY
; 62   : 	m_iRandomOptItemId	= 0;
; 63   : #else	// __SYS_IDENTIFY
; 64   : 	m_nRandomOptItemId	= 0;
; 65   : #endif	// __SYS_IDENTIFY
; 66   : 
; 67   : #if __VER >= 9	// __PET_0410
; 68   : 	m_pPet	= NULL;
; 69   : #endif	// __PET_0410
; 70   : #if __VER >= 15 // __PETVIS
; 71   : 	m_bTranformVisPet = FALSE;
; 72   : #endif // __PETVIS
; 73   : }

  0005d	8b 4c 24 0c	 mov	 ecx, DWORD PTR __$EHRec$[esp+24]
  00061	88 5e 71	 mov	 BYTE PTR [esi+113], bl
  00064	89 5e 78	 mov	 DWORD PTR [esi+120], ebx
  00067	89 5e 68	 mov	 DWORD PTR [esi+104], ebx
  0006a	88 5e 70	 mov	 BYTE PTR [esi+112], bl
  0006d	89 5e 74	 mov	 DWORD PTR [esi+116], ebx
  00070	89 5e 6c	 mov	 DWORD PTR [esi+108], ebx
  00073	88 5e 7c	 mov	 BYTE PTR [esi+124], bl
  00076	89 9e 80 00 00
	00		 mov	 DWORD PTR [esi+128], ebx
  0007c	89 9e 84 00 00
	00		 mov	 DWORD PTR [esi+132], ebx
  00082	89 9e 88 00 00
	00		 mov	 DWORD PTR [esi+136], ebx
  00088	89 9e 8c 00 00
	00		 mov	 DWORD PTR [esi+140], ebx
  0008e	89 9e 90 00 00
	00		 mov	 DWORD PTR [esi+144], ebx
  00094	89 9e 94 00 00
	00		 mov	 DWORD PTR [esi+148], ebx
  0009a	89 9e 98 00 00
	00		 mov	 DWORD PTR [esi+152], ebx
  000a0	89 9e 9c 00 00
	00		 mov	 DWORD PTR [esi+156], ebx
  000a6	66 c7 46 72 01
	00		 mov	 WORD PTR [esi+114], 1
  000ac	8b c6		 mov	 eax, esi
  000ae	5e		 pop	 esi
  000af	5b		 pop	 ebx
  000b0	64 89 0d 00 00
	00 00		 mov	 DWORD PTR fs:__except_list, ecx
  000b7	83 c4 10	 add	 esp, 16			; 00000010H
  000ba	c3		 ret	 0
_TEXT	ENDS
;	COMDAT text$x
text$x	SEGMENT
$L187977:
  00000	8b 4d f0	 mov	 ecx, DWORD PTR _this$[ebp]
  00003	e9 00 00 00 00	 jmp	 ??1CItemBase@@UAE@XZ	; CItemBase::~CItemBase
__ehhandler$??0CItemElem@@QAE@XZ:
  00008	b8 00 00 00 00	 mov	 eax, OFFSET FLAT:$T187985
  0000d	e9 00 00 00 00	 jmp	 ___CxxFrameHandler
text$x	ENDS
??0CItemElem@@QAE@XZ ENDP				; CItemElem::CItemElem
; Function compile flags: /Ogty
; File c:\documents and settings\test\mes documents\source\virtuos_v17\build\program\_network\objects\obj.h
;	COMDAT ?Empty@CItemElem@@UAEXXZ
_TEXT	SEGMENT
?Empty@CItemElem@@UAEXXZ PROC NEAR			; CItemElem::Empty, COMDAT
; _this$ = ecx

; 224  : 	{

  00000	56		 push	 esi
  00001	8b f1		 mov	 esi, ecx

; 225  : 		CItemBase::Empty();
; 226  : #if __VER >= 9
; 227  : 		SAFE_DELETE( m_pPet );

  00003	8b 8e 98 00 00
	00		 mov	 ecx, DWORD PTR [esi+152]
  00009	85 c9		 test	 ecx, ecx
  0000b	c6 46 0c 00	 mov	 BYTE PTR [esi+12], 0
  0000f	c7 46 08 00 00
	00 00		 mov	 DWORD PTR [esi+8], 0
  00016	74 10		 je	 SHORT $L176830
  00018	8b 01		 mov	 eax, DWORD PTR [ecx]
  0001a	6a 01		 push	 1
  0001c	ff 10		 call	 DWORD PTR [eax]
  0001e	c7 86 98 00 00
	00 00 00 00 00	 mov	 DWORD PTR [esi+152], 0
$L176830:
  00028	5e		 pop	 esi

; 228  : #endif	// __PET_0410
; 229  : 	}

  00029	c3		 ret	 0
?Empty@CItemElem@@UAEXXZ ENDP				; CItemElem::Empty
_TEXT	ENDS
PUBLIC	??1CItemElem@@UAE@XZ				; CItemElem::~CItemElem
EXTRN	??1CPiercing@@UAE@XZ:NEAR			; CPiercing::~CPiercing
;	COMDAT xdata$x
xdata$x	SEGMENT
$T188015 DD	0ffffffffH
	DD	FLAT:$L188007
	DD	00H
	DD	FLAT:$L188008
$T188013 DD	019930520H
	DD	02H
	DD	FLAT:$T188015
	DD	2 DUP(00H)
	DD	2 DUP(00H)
; Function compile flags: /Ogty
; File c:\documents and settings\test\mes documents\source\virtuos_v17\build\program\_network\objects\obj.cpp
xdata$x	ENDS
;	COMDAT ??1CItemElem@@UAE@XZ
_TEXT	SEGMENT
_this$ = -16						; size = 4
__$EHRec$ = -12						; size = 12
??1CItemElem@@UAE@XZ PROC NEAR				; CItemElem::~CItemElem, COMDAT
; _this$ = ecx

; 76   : {

  00000	6a ff		 push	 -1
  00002	68 00 00 00 00	 push	 __ehhandler$??1CItemElem@@UAE@XZ
  00007	64 a1 00 00 00
	00		 mov	 eax, DWORD PTR fs:__except_list
  0000d	50		 push	 eax
  0000e	64 89 25 00 00
	00 00		 mov	 DWORD PTR fs:__except_list, esp
  00015	51		 push	 ecx
  00016	56		 push	 esi
  00017	8b f1		 mov	 esi, ecx
  00019	89 74 24 04	 mov	 DWORD PTR _this$[esp+20], esi
  0001d	c7 06 00 00 00
	00		 mov	 DWORD PTR [esi], OFFSET FLAT:??_7CItemElem@@6B@

; 77   : #if __VER >= 9	// __PET_0410
; 78   : 	SAFE_DELETE( m_pPet );

  00023	8b 8e 98 00 00
	00		 mov	 ecx, DWORD PTR [esi+152]
  00029	85 c9		 test	 ecx, ecx
  0002b	c7 44 24 10 01
	00 00 00	 mov	 DWORD PTR __$EHRec$[esp+28], 1
  00033	74 10		 je	 SHORT $L186752
  00035	8b 01		 mov	 eax, DWORD PTR [ecx]
  00037	6a 01		 push	 1
  00039	ff 10		 call	 DWORD PTR [eax]
  0003b	c7 86 98 00 00
	00 00 00 00 00	 mov	 DWORD PTR [esi+152], 0
$L186752:

; 79   : #endif	// __PET_0410
; 80   : }

  00045	8d 4e 34	 lea	 ecx, DWORD PTR [esi+52]
  00048	c6 44 24 10 00	 mov	 BYTE PTR __$EHRec$[esp+28], 0
  0004d	e8 00 00 00 00	 call	 ??1CPiercing@@UAE@XZ	; CPiercing::~CPiercing
  00052	8b 4c 24 08	 mov	 ecx, DWORD PTR __$EHRec$[esp+20]
  00056	c7 06 00 00 00
	00		 mov	 DWORD PTR [esi], OFFSET FLAT:??_7CItemBase@@6B@
  0005c	5e		 pop	 esi
  0005d	64 89 0d 00 00
	00 00		 mov	 DWORD PTR fs:__except_list, ecx
  00064	83 c4 10	 add	 esp, 16			; 00000010H
  00067	c3		 ret	 0
_TEXT	ENDS
;	COMDAT text$x
text$x	SEGMENT
$L188007:
  00000	8b 4d f0	 mov	 ecx, DWORD PTR _this$[ebp]
  00003	e9 00 00 00 00	 jmp	 ??1CItemBase@@UAE@XZ	; CItemBase::~CItemBase
$L188008:
  00008	8b 4d f0	 mov	 ecx, DWORD PTR _this$[ebp]
  0000b	83 c1 34	 add	 ecx, 52			; 00000034H
  0000e	e9 00 00 00 00	 jmp	 ??1CPiercing@@UAE@XZ	; CPiercing::~CPiercing
__ehhandler$??1CItemElem@@UAE@XZ:
  00013	b8 00 00 00 00	 mov	 eax, OFFSET FLAT:$T188013
  00018	e9 00 00 00 00	 jmp	 ___CxxFrameHandler
text$x	ENDS
??1CItemElem@@UAE@XZ ENDP				; CItemElem::~CItemElem
PUBLIC	??0CItem@@QAE@XZ				; CItem::CItem
PUBLIC	??_7CItem@@6B@					; CItem::`vftable'
PUBLIC	??_GCItem@@UAEPAXI@Z				; CItem::`scalar deleting destructor'
EXTRN	?Serialize@CItem@@UAEXAAVCAr@@@Z:NEAR		; CItem::Serialize
EXTRN	??_ECItem@@UAEPAXI@Z:NEAR			; CItem::`vector deleting destructor'
;	COMDAT ??_7CItem@@6B@
CONST	SEGMENT
??_7CItem@@6B@ DD FLAT:??_ECItem@@UAEPAXI@Z		; CItem::`vftable'
	DD	FLAT:?Serialize@CItem@@UAEXAAVCAr@@@Z
; Function compile flags: /Ogty
CONST	ENDS
;	COMDAT ??0CItem@@QAE@XZ
_TEXT	SEGMENT
??0CItem@@QAE@XZ PROC NEAR				; CItem::CItem, COMDAT
; _this$ = ecx

; 84   : {

  00000	56		 push	 esi
  00001	8b f1		 mov	 esi, ecx
  00003	e8 00 00 00 00	 call	 ??0CObj@@QAE@XZ		; CObj::CObj
  00008	c7 46 30 ff ff
	ff ff		 mov	 DWORD PTR [esi+48], -1
  0000f	c7 06 00 00 00
	00		 mov	 DWORD PTR [esi], OFFSET FLAT:??_7CItem@@6B@

; 85   : 	m_dwType = OT_ITEM;

  00015	c7 46 04 04 00
	00 00		 mov	 DWORD PTR [esi+4], 4

; 86   : 	m_pItemBase = NULL;

  0001c	c7 46 34 00 00
	00 00		 mov	 DWORD PTR [esi+52], 0

; 87   : }

  00023	8b c6		 mov	 eax, esi
  00025	5e		 pop	 esi
  00026	c3		 ret	 0
??0CItem@@QAE@XZ ENDP					; CItem::CItem
_TEXT	ENDS
PUBLIC	??1CItem@@UAE@XZ				; CItem::~CItem
;	COMDAT xdata$x
; File c:\documents and settings\test\mes documents\source\virtuos_v17\build\program\_network\objects\obj.h
xdata$x	SEGMENT
$T188043 DD	0ffffffffH
	DD	FLAT:$L188030
$T188040 DD	019930520H
	DD	01H
	DD	FLAT:$T188043
	DD	2 DUP(00H)
	DD	2 DUP(00H)
; Function compile flags: /Ogty
; File c:\documents and settings\test\mes documents\source\virtuos_v17\build\program\_network\objects\obj.cpp
xdata$x	ENDS
;	COMDAT ??1CItem@@UAE@XZ
_TEXT	SEGMENT
_this$ = -16						; size = 4
__$EHRec$ = -12						; size = 12
??1CItem@@UAE@XZ PROC NEAR				; CItem::~CItem, COMDAT
; _this$ = ecx

; 90   : {

  00000	6a ff		 push	 -1
  00002	68 00 00 00 00	 push	 __ehhandler$??1CItem@@UAE@XZ
  00007	64 a1 00 00 00
	00		 mov	 eax, DWORD PTR fs:__except_list
  0000d	50		 push	 eax
  0000e	64 89 25 00 00
	00 00		 mov	 DWORD PTR fs:__except_list, esp
  00015	51		 push	 ecx
  00016	56		 push	 esi
  00017	8b f1		 mov	 esi, ecx
  00019	89 74 24 04	 mov	 DWORD PTR _this$[esp+20], esi
  0001d	c7 06 00 00 00
	00		 mov	 DWORD PTR [esi], OFFSET FLAT:??_7CItem@@6B@

; 91   : 	SAFE_DELETE( m_pItemBase );

  00023	8b 4e 34	 mov	 ecx, DWORD PTR [esi+52]
  00026	85 c9		 test	 ecx, ecx
  00028	c7 44 24 10 00
	00 00 00	 mov	 DWORD PTR __$EHRec$[esp+28], 0
  00030	74 0d		 je	 SHORT $L188041
  00032	8b 01		 mov	 eax, DWORD PTR [ecx]
  00034	6a 01		 push	 1
  00036	ff 10		 call	 DWORD PTR [eax]
  00038	c7 46 34 00 00
	00 00		 mov	 DWORD PTR [esi+52], 0
$L188041:

; 92   : }

  0003f	8b 4c 24 08	 mov	 ecx, DWORD PTR __$EHRec$[esp+20]
  00043	c7 06 00 00 00
	00		 mov	 DWORD PTR [esi], OFFSET FLAT:??_7CObj@@6B@
  00049	5e		 pop	 esi
  0004a	64 89 0d 00 00
	00 00		 mov	 DWORD PTR fs:__except_list, ecx
  00051	83 c4 10	 add	 esp, 16			; 00000010H
  00054	c3		 ret	 0
_TEXT	ENDS
;	COMDAT text$x
text$x	SEGMENT
$L188030:
  00000	8b 4d f0	 mov	 ecx, DWORD PTR _this$[ebp]
  00003	e9 00 00 00 00	 jmp	 ??1CCtrl@@UAE@XZ	; CCtrl::~CCtrl
__ehhandler$??1CItem@@UAE@XZ:
  00008	b8 00 00 00 00	 mov	 eax, OFFSET FLAT:$T188040
  0000d	e9 00 00 00 00	 jmp	 ___CxxFrameHandler
text$x	ENDS
??1CItem@@UAE@XZ ENDP					; CItem::~CItem
PUBLIC	??1CMover@@UAE@XZ				; CMover::~CMover
PUBLIC	??_7CMover@@6B@					; CMover::`vftable'
PUBLIC	??_GCMover@@UAEPAXI@Z				; CMover::`scalar deleting destructor'
EXTRN	??_M@YGXPAXIHP6EX0@Z@Z:NEAR			; `eh vector destructor iterator'
EXTRN	??1CPocketController@@UAE@XZ:NEAR		; CPocketController::~CPocketController
EXTRN	??1CBuffMgr@@UAE@XZ:NEAR			; CBuffMgr::~CBuffMgr
EXTRN	?Serialize@CMover@@UAEXAAVCAr@@@Z:NEAR		; CMover::Serialize
EXTRN	??_ECMover@@UAEPAXI@Z:NEAR			; CMover::`vector deleting destructor'
EXTRN	??1CUserTaskBar@@UAE@XZ:NEAR			; CUserTaskBar::~CUserTaskBar
EXTRN	??1CRTMessenger@@UAE@XZ:NEAR			; CRTMessenger::~CRTMessenger
;	COMDAT xdata$x
; File c:\documents and settings\test\mes documents\source\virtuos_v17\build\program\_network\objects\obj.h
xdata$x	SEGMENT
$T188101 DD	0ffffffffH
	DD	FLAT:$L188055
	DD	00H
	DD	FLAT:$L188056
	DD	01H
	DD	FLAT:$L188057
	DD	02H
	DD	FLAT:$L188058
	DD	03H
	DD	FLAT:$L188059
	DD	04H
	DD	FLAT:$L188060
	DD	05H
	DD	FLAT:$L188061
	DD	06H
	DD	FLAT:$L188062
	DD	07H
	DD	FLAT:$L188063
$T188099 DD	019930520H
	DD	09H
	DD	FLAT:$T188101
	DD	2 DUP(00H)
	DD	2 DUP(00H)
xdata$x	ENDS
;	COMDAT ??_7CMover@@6B@
CONST	SEGMENT
??_7CMover@@6B@ DD FLAT:??_ECMover@@UAEPAXI@Z		; CMover::`vftable'
	DD	FLAT:?Serialize@CMover@@UAEXAAVCAr@@@Z
; Function compile flags: /Ogty
; File c:\documents and settings\test\mes documents\source\virtuos_v17\build\program\_network\objects\obj.cpp
CONST	ENDS
;	COMDAT ??1CMover@@UAE@XZ
_TEXT	SEGMENT
_this$ = -16						; size = 4
__$EHRec$ = -12						; size = 12
??1CMover@@UAE@XZ PROC NEAR				; CMover::~CMover, COMDAT
; _this$ = ecx

; 287  : {

  00000	6a ff		 push	 -1
  00002	68 00 00 00 00	 push	 __ehhandler$??1CMover@@UAE@XZ
  00007	64 a1 00 00 00
	00		 mov	 eax, DWORD PTR fs:__except_list
  0000d	50		 push	 eax
  0000e	64 89 25 00 00
	00 00		 mov	 DWORD PTR fs:__except_list, esp
  00015	51		 push	 ecx
  00016	53		 push	 ebx
  00017	56		 push	 esi
  00018	8b f1		 mov	 esi, ecx
  0001a	89 74 24 08	 mov	 DWORD PTR _this$[esp+24], esi
  0001e	c7 06 00 00 00
	00		 mov	 DWORD PTR [esi], OFFSET FLAT:??_7CMover@@6B@

; 288  : 	SAFE_DELETE( m_pActMover );

  00024	8b 8e 10 41 00
	00		 mov	 ecx, DWORD PTR [esi+16656]
  0002a	33 db		 xor	 ebx, ebx
  0002c	3b cb		 cmp	 ecx, ebx
  0002e	c7 44 24 14 08
	00 00 00	 mov	 DWORD PTR __$EHRec$[esp+32], 8
  00036	74 0c		 je	 SHORT $L186827
  00038	8b 01		 mov	 eax, DWORD PTR [ecx]
  0003a	6a 01		 push	 1
  0003c	ff 10		 call	 DWORD PTR [eax]
  0003e	89 9e 10 41 00
	00		 mov	 DWORD PTR [esi+16656], ebx
$L186827:

; 289  : 
; 290  : 	SAFE_DELETE_ARRAY( m_aQuest ); 

  00044	8b 86 a0 46 00
	00		 mov	 eax, DWORD PTR [esi+18080]
  0004a	3b c3		 cmp	 eax, ebx
  0004c	74 0f		 je	 SHORT $L186831
  0004e	50		 push	 eax
  0004f	e8 00 00 00 00	 call	 ??_V@YAXPAX@Z		; operator delete[]
  00054	83 c4 04	 add	 esp, 4
  00057	89 9e a0 46 00
	00		 mov	 DWORD PTR [esi+18080], ebx
$L186831:

; 291  : 	SAFE_DELETE_ARRAY( m_aCompleteQuest );

  0005d	8b 86 a4 46 00
	00		 mov	 eax, DWORD PTR [esi+18084]
  00063	3b c3		 cmp	 eax, ebx
  00065	74 0f		 je	 SHORT $L186834
  00067	50		 push	 eax
  00068	e8 00 00 00 00	 call	 ??_V@YAXPAX@Z		; operator delete[]
  0006d	83 c4 04	 add	 esp, 4
  00070	89 9e a4 46 00
	00		 mov	 DWORD PTR [esi+18084], ebx
$L186834:

; 292  : #if __VER >= 15 // __IMPROVE_QUEST_INTERFACE
; 293  : 	SAFE_DELETE_ARRAY( m_aCheckedQuest );

  00076	8b 86 bc 46 00
	00		 mov	 eax, DWORD PTR [esi+18108]
  0007c	3b c3		 cmp	 eax, ebx
  0007e	74 0f		 je	 SHORT $L186837
  00080	50		 push	 eax
  00081	e8 00 00 00 00	 call	 ??_V@YAXPAX@Z		; operator delete[]
  00086	83 c4 04	 add	 esp, 4
  00089	89 9e bc 46 00
	00		 mov	 DWORD PTR [esi+18108], ebx
$L186837:

; 294  : #endif // __IMPROVE_QUEST_INTERFACE
; 295  : }

  0008f	8d 8e 10 45 00
	00		 lea	 ecx, DWORD PTR [esi+17680]
  00095	c6 44 24 14 07	 mov	 BYTE PTR __$EHRec$[esp+32], 7
  0009a	e8 00 00 00 00	 call	 ??1CBuffMgr@@UAE@XZ	; CBuffMgr::~CBuffMgr
  0009f	8d 8e fc 41 00
	00		 lea	 ecx, DWORD PTR [esi+16892]
  000a5	51		 push	 ecx
  000a6	c7 86 f8 41 00
	00 00 00 00 00	 mov	 DWORD PTR [esi+16888], OFFSET FLAT:??_7CMclCritSec@@6B@
  000b0	ff 15 00 00 00
	00		 call	 DWORD PTR __imp__DeleteCriticalSection@4
  000b6	68 00 00 00 00	 push	 OFFSET FLAT:??1?$CItemContainer@VCItemElem@@@@UAE@XZ ; CItemContainer<CItemElem>::~CItemContainer<CItemElem>
  000bb	6a 03		 push	 3
  000bd	6a 14		 push	 20			; 00000014H
  000bf	8d 96 94 41 00
	00		 lea	 edx, DWORD PTR [esi+16788]
  000c5	52		 push	 edx
  000c6	c6 44 24 24 05	 mov	 BYTE PTR __$EHRec$[esp+48], 5
  000cb	e8 00 00 00 00	 call	 ??_M@YGXPAXIHP6EX0@Z@Z
  000d0	8d 8e 78 41 00
	00		 lea	 ecx, DWORD PTR [esi+16760]
  000d6	c6 44 24 14 04	 mov	 BYTE PTR __$EHRec$[esp+32], 4
  000db	e8 00 00 00 00	 call	 ??1CPocketController@@UAE@XZ ; CPocketController::~CPocketController
  000e0	68 00 00 00 00	 push	 OFFSET FLAT:??1?$CItemContainer@VCItemElem@@@@UAE@XZ ; CItemContainer<CItemElem>::~CItemContainer<CItemElem>
  000e5	6a 04		 push	 4
  000e7	6a 14		 push	 20			; 00000014H
  000e9	8d 86 28 41 00
	00		 lea	 eax, DWORD PTR [esi+16680]
  000ef	50		 push	 eax
  000f0	c6 44 24 24 03	 mov	 BYTE PTR __$EHRec$[esp+48], 3
  000f5	e8 00 00 00 00	 call	 ??_M@YGXPAXIHP6EX0@Z@Z
  000fa	8b 8e 20 41 00
	00		 mov	 ecx, DWORD PTR [esi+16672]
  00100	3b cb		 cmp	 ecx, ebx
  00102	c6 44 24 14 02	 mov	 BYTE PTR __$EHRec$[esp+32], 2
  00107	c7 86 14 41 00
	00 00 00 00 00	 mov	 DWORD PTR [esi+16660], OFFSET FLAT:??_7?$CItemContainer@VCItemElem@@@@6B@
  00111	74 21		 je	 SHORT $L188087
  00113	8b 51 fc	 mov	 edx, DWORD PTR [ecx-4]
  00116	3b d3		 cmp	 edx, ebx
  00118	8d 41 fc	 lea	 eax, DWORD PTR [ecx-4]
  0011b	74 08		 je	 SHORT $L188081
  0011d	8b 11		 mov	 edx, DWORD PTR [ecx]
  0011f	6a 03		 push	 3
  00121	ff 12		 call	 DWORD PTR [edx]
  00123	eb 09		 jmp	 SHORT $L188082
$L188081:
  00125	50		 push	 eax
  00126	e8 00 00 00 00	 call	 ??_V@YAXPAX@Z		; operator delete[]
  0012b	83 c4 04	 add	 esp, 4
$L188082:
  0012e	89 9e 20 41 00
	00		 mov	 DWORD PTR [esi+16672], ebx
$L188087:
  00134	8b 86 18 41 00
	00		 mov	 eax, DWORD PTR [esi+16664]
  0013a	3b c3		 cmp	 eax, ebx
  0013c	74 0f		 je	 SHORT $L188088
  0013e	50		 push	 eax
  0013f	e8 00 00 00 00	 call	 ??_V@YAXPAX@Z		; operator delete[]
  00144	83 c4 04	 add	 esp, 4
  00147	89 9e 18 41 00
	00		 mov	 DWORD PTR [esi+16664], ebx
$L188088:
  0014d	8d 8e b4 40 00
	00		 lea	 ecx, DWORD PTR [esi+16564]
  00153	c6 44 24 14 01	 mov	 BYTE PTR __$EHRec$[esp+32], 1
  00158	e8 00 00 00 00	 call	 ??1CRTMessenger@@UAE@XZ	; CRTMessenger::~CRTMessenger
  0015d	8d 8e e8 02 00
	00		 lea	 ecx, DWORD PTR [esi+744]
  00163	88 5c 24 14	 mov	 BYTE PTR __$EHRec$[esp+32], bl
  00167	e8 00 00 00 00	 call	 ??1CUserTaskBar@@UAE@XZ	; CUserTaskBar::~CUserTaskBar
  0016c	8b 4c 24 0c	 mov	 ecx, DWORD PTR __$EHRec$[esp+24]
  00170	c7 06 00 00 00
	00		 mov	 DWORD PTR [esi], OFFSET FLAT:??_7CObj@@6B@
  00176	5e		 pop	 esi
  00177	5b		 pop	 ebx
  00178	64 89 0d 00 00
	00 00		 mov	 DWORD PTR fs:__except_list, ecx
  0017f	83 c4 10	 add	 esp, 16			; 00000010H
  00182	c3		 ret	 0
_TEXT	ENDS
;	COMDAT text$x
text$x	SEGMENT
$L188055:
  00000	8b 4d f0	 mov	 ecx, DWORD PTR _this$[ebp]
  00003	e9 00 00 00 00	 jmp	 ??1CCtrl@@UAE@XZ	; CCtrl::~CCtrl
$L188056:
  00008	8b 4d f0	 mov	 ecx, DWORD PTR _this$[ebp]
  0000b	81 c1 e8 02 00
	00		 add	 ecx, 744		; 000002e8H
  00011	e9 00 00 00 00	 jmp	 ??1CUserTaskBar@@UAE@XZ	; CUserTaskBar::~CUserTaskBar
$L188057:
  00016	8b 4d f0	 mov	 ecx, DWORD PTR _this$[ebp]
  00019	81 c1 b4 40 00
	00		 add	 ecx, 16564		; 000040b4H
  0001f	e9 00 00 00 00	 jmp	 ??1CRTMessenger@@UAE@XZ	; CRTMessenger::~CRTMessenger
$L188058:
  00024	8b 4d f0	 mov	 ecx, DWORD PTR _this$[ebp]
  00027	81 c1 14 41 00
	00		 add	 ecx, 16660		; 00004114H
  0002d	e9 00 00 00 00	 jmp	 ??1?$CItemContainer@VCItemElem@@@@UAE@XZ ; CItemContainer<CItemElem>::~CItemContainer<CItemElem>
$L188059:
  00032	68 00 00 00 00	 push	 OFFSET FLAT:??1?$CItemContainer@VCItemElem@@@@UAE@XZ ; CItemContainer<CItemElem>::~CItemContainer<CItemElem>
  00037	6a 04		 push	 4
  00039	6a 14		 push	 20			; 00000014H
  0003b	8b 45 f0	 mov	 eax, DWORD PTR _this$[ebp]
  0003e	05 28 41 00 00	 add	 eax, 16680		; 00004128H
  00043	50		 push	 eax
  00044	e8 00 00 00 00	 call	 ??_M@YGXPAXIHP6EX0@Z@Z
  00049	c3		 ret	 0
$L188060:
  0004a	8b 4d f0	 mov	 ecx, DWORD PTR _this$[ebp]
  0004d	81 c1 78 41 00
	00		 add	 ecx, 16760		; 00004178H
  00053	e9 00 00 00 00	 jmp	 ??1CPocketController@@UAE@XZ ; CPocketController::~CPocketController
$L188061:
  00058	68 00 00 00 00	 push	 OFFSET FLAT:??1?$CItemContainer@VCItemElem@@@@UAE@XZ ; CItemContainer<CItemElem>::~CItemContainer<CItemElem>
  0005d	6a 03		 push	 3
  0005f	6a 14		 push	 20			; 00000014H
  00061	8b 45 f0	 mov	 eax, DWORD PTR _this$[ebp]
  00064	05 94 41 00 00	 add	 eax, 16788		; 00004194H
  00069	50		 push	 eax
  0006a	e8 00 00 00 00	 call	 ??_M@YGXPAXIHP6EX0@Z@Z
  0006f	c3		 ret	 0
$L188062:
  00070	8b 4d f0	 mov	 ecx, DWORD PTR _this$[ebp]
  00073	81 c1 f8 41 00
	00		 add	 ecx, 16888		; 000041f8H
  00079	e9 00 00 00 00	 jmp	 ??1CMclCritSec@@UAE@XZ	; CMclCritSec::~CMclCritSec
$L188063:
  0007e	8b 4d f0	 mov	 ecx, DWORD PTR _this$[ebp]
  00081	81 c1 10 45 00
	00		 add	 ecx, 17680		; 00004510H
  00087	e9 00 00 00 00	 jmp	 ??1CBuffMgr@@UAE@XZ	; CBuffMgr::~CBuffMgr
__ehhandler$??1CMover@@UAE@XZ:
  0008c	b8 00 00 00 00	 mov	 eax, OFFSET FLAT:$T188099
  00091	e9 00 00 00 00	 jmp	 ___CxxFrameHandler
text$x	ENDS
??1CMover@@UAE@XZ ENDP					; CMover::~CMover
PUBLIC	?InitProp@CMover@@QAEXXZ			; CMover::InitProp
; Function compile flags: /Ogty
;	COMDAT ?InitProp@CMover@@QAEXXZ
_TEXT	SEGMENT
?InitProp@CMover@@QAEXXZ PROC NEAR			; CMover::InitProp, COMDAT
; _this$ = ecx

; 298  : {

  00000	53		 push	 ebx
  00001	8b d9		 mov	 ebx, ecx

; 299  : #ifdef __DBSERVER
; 300  : 	MoverProp* pMvrProp	= GetProp();

  00003	8b 43 08	 mov	 eax, DWORD PTR [ebx+8]
  00006	85 c0		 test	 eax, eax
  00008	8b 0d 5c 00 00
	00		 mov	 ecx, DWORD PTR ?prj@@3VCProject@@A+92
  0000e	0f 8c d3 00 00
	00		 jl	 $L188121
  00014	3b c1		 cmp	 eax, ecx
  00016	0f 8d cb 00 00
	00		 jge	 $L188121
  0001c	8b 0d 60 00 00
	00		 mov	 ecx, DWORD PTR ?prj@@3VCProject@@A+96
  00022	69 c0 d8 06 00
	00		 imul	 eax, 1752		; 000006d8H
  00028	55		 push	 ebp
  00029	8d 2c 08	 lea	 ebp, DWORD PTR [eax+ecx]
  0002c	83 7d 00 00	 cmp	 DWORD PTR [ebp], 0
  00030	0f 84 ae 00 00
	00		 je	 $L188130

; 301  : 	if( pMvrProp )

  00036	85 ed		 test	 ebp, ebp
  00038	0f 84 a6 00 00
	00		 je	 $L188130

; 302  : 	{
; 303  : 		if( FALSE == m_bPlayer )

  0003e	8b 83 8c 00 00
	00		 mov	 eax, DWORD PTR [ebx+140]
  00044	85 c0		 test	 eax, eax
  00046	75 14		 jne	 SHORT $L186846

; 304  : 			_tcscpy( m_szName, pMvrProp->szName );

  00048	8d 45 04	 lea	 eax, DWORD PTR [ebp+4]
  0004b	8b d3		 mov	 edx, ebx
  0004d	2b d0		 sub	 edx, eax
  0004f	83 c2 6c	 add	 edx, 108		; 0000006cH
$L188106:
  00052	8a 08		 mov	 cl, BYTE PTR [eax]
  00054	88 0c 02	 mov	 BYTE PTR [edx+eax], cl
  00057	40		 inc	 eax
  00058	84 c9		 test	 cl, cl
  0005a	75 f6		 jne	 SHORT $L188106
$L186846:

; 305  : 
; 306  : 		memset( m_aJobSkill, 0, sizeof(SKILL) * ( MAX_SKILL_JOB ) );

  0005c	8d 93 00 01 00
	00		 lea	 edx, DWORD PTR [ebx+256]
  00062	57		 push	 edi
  00063	33 c0		 xor	 eax, eax
  00065	b9 66 00 00 00	 mov	 ecx, 102		; 00000066H
  0006a	8b fa		 mov	 edi, edx
  0006c	f3 ab		 rep stosd
  0006e	8b c2		 mov	 eax, edx
  00070	b9 33 00 00 00	 mov	 ecx, 51			; 00000033H
$L186850:

; 307  : 
; 308  : 		LPSKILL lpSkill;
; 309  : 		for( int i = 0; i < MAX_SKILL_JOB; i++ )
; 310  : 		{
; 311  : 			m_aJobSkill[ i ].dwSkill = NULL_ID;

  00075	c7 00 ff ff ff
	ff		 mov	 DWORD PTR [eax], -1
  0007b	83 c0 08	 add	 eax, 8
  0007e	49		 dec	 ecx
  0007f	75 f4		 jne	 SHORT $L186850

; 312  : 		}
; 313  : 		
; 314  : 		if( m_nJob != -1 ) 

  00081	8b 83 c4 00 00
	00		 mov	 eax, DWORD PTR [ebx+196]
  00087	83 f8 ff	 cmp	 eax, -1
  0008a	74 2a		 je	 SHORT $L186858

; 315  : 		{
; 316  : 			ItemProp** apSkillProp = prj.m_aJobSkill[ m_nJob ];

  0008c	8d 0c 80	 lea	 ecx, DWORD PTR [eax+eax*4]
  0008f	c1 e1 05	 shl	 ecx, 5
  00092	56		 push	 esi

; 317  : 			int nJobNum = prj.m_aJobSkillNum[ m_nJob ];

  00093	8b 34 85 04 1a
	00 00		 mov	 esi, DWORD PTR ?prj@@3VCProject@@A[eax*4+6660]
  0009a	81 c1 04 01 00
	00		 add	 ecx, OFFSET FLAT:?prj@@3VCProject@@A+260

; 318  : 			for( i = 0; i < nJobNum; i++ )

  000a0	33 c0		 xor	 eax, eax
  000a2	85 f6		 test	 esi, esi
  000a4	7e 0f		 jle	 SHORT $L188131
$L186856:

; 319  : 			{
; 320  : 				ItemProp* pSkillProp = apSkillProp[ i ];

  000a6	8b 3c 81	 mov	 edi, DWORD PTR [ecx+eax*4]

; 321  : 				lpSkill = &m_aJobSkill[ i ];
; 322  : 				lpSkill->dwSkill = pSkillProp->dwID;

  000a9	8b 3f		 mov	 edi, DWORD PTR [edi]
  000ab	89 3a		 mov	 DWORD PTR [edx], edi
  000ad	40		 inc	 eax
  000ae	83 c2 08	 add	 edx, 8
  000b1	3b c6		 cmp	 eax, esi
  000b3	7c f1		 jl	 SHORT $L186856
$L188131:
  000b5	5e		 pop	 esi
$L186858:

; 323  : 			}
; 324  : 		}
; 325  : 		m_nHitPoint		= 77; //GetMaxHitPoint();

  000b6	b8 4d 00 00 00	 mov	 eax, 77			; 0000004dH
  000bb	89 83 94 00 00
	00		 mov	 DWORD PTR [ebx+148], eax

; 326  : 		m_nManaPoint	= 77; //GetMaxManaPoint();

  000c1	89 83 98 00 00
	00		 mov	 DWORD PTR [ebx+152], eax

; 327  : 		m_nFatiguePoint	= 77; //GetMaxFatiguePoint();

  000c7	89 83 9c 00 00
	00		 mov	 DWORD PTR [ebx+156], eax

; 328  : 		memset( m_szBankPass, 0, sizeof( m_szBankPass ) );

  000cd	8d 8b c9 00 00
	00		 lea	 ecx, DWORD PTR [ebx+201]
  000d3	33 c0		 xor	 eax, eax
  000d5	89 01		 mov	 DWORD PTR [ecx], eax
  000d7	88 41 04	 mov	 BYTE PTR [ecx+4], al

; 329  : 		m_dwBelligerence	= pMvrProp->dwBelligerence;

  000da	8b 95 80 00 00
	00		 mov	 edx, DWORD PTR [ebp+128]
  000e0	89 53 5c	 mov	 DWORD PTR [ebx+92], edx
  000e3	5f		 pop	 edi
$L188130:
  000e4	5d		 pop	 ebp
  000e5	5b		 pop	 ebx

; 330  : 	}
; 331  : #endif	// __DBSERVER
; 332  : }

  000e6	c3		 ret	 0

; 299  : #ifdef __DBSERVER
; 300  : 	MoverProp* pMvrProp	= GetProp();

$L188121:
  000e7	51		 push	 ecx
  000e8	50		 push	 eax
  000e9	68 00 00 00 00	 push	 OFFSET FLAT:??_C@_0CL@NHHPIJBJ@CProject?3?3GetMoverProp?5out?5of?5ra@
  000ee	e8 00 00 00 00	 call	 ?Error@@YAPBDPBDZZ	; Error
  000f3	83 c4 0c	 add	 esp, 12			; 0000000cH
  000f6	5b		 pop	 ebx

; 330  : 	}
; 331  : #endif	// __DBSERVER
; 332  : }

  000f7	c3		 ret	 0
?InitProp@CMover@@QAEXXZ ENDP				; CMover::InitProp
_TEXT	ENDS
EXTRN	??4CPiercing@@QAEAAV0@ABV0@@Z:NEAR		; CPiercing::operator=
EXTRN	??0CPet@@QAE@XZ:NEAR				; CPet::CPet
EXTRN	??4CPet@@QAEAAV0@AAV0@@Z:NEAR			; CPet::operator=
;	COMDAT xdata$x
; File c:\documents and settings\test\mes documents\source\virtuos_v17\build\program\_network\objects\obj.h
xdata$x	SEGMENT
$T188156 DD	0ffffffffH
	DD	FLAT:$L188142
$T188153 DD	019930520H
	DD	01H
	DD	FLAT:$T188156
	DD	2 DUP(00H)
	DD	2 DUP(00H)
; Function compile flags: /Ogty
; File c:\documents and settings\test\mes documents\source\virtuos_v17\build\program\_network\objects\obj.cpp
xdata$x	ENDS
;	COMDAT ??4CItemElem@@UAEAAV0@AAV0@@Z
_TEXT	SEGMENT
__$EHRec$ = -12						; size = 12
$T188139 = 8						; size = 4
_ie$ = 8						; size = 4
??4CItemElem@@UAEAAV0@AAV0@@Z PROC NEAR			; CItemElem::operator=, COMDAT
; _this$ = ecx

; 658  : {

  00000	64 a1 00 00 00
	00		 mov	 eax, DWORD PTR fs:__except_list
  00006	6a ff		 push	 -1
  00008	68 00 00 00 00	 push	 __ehhandler$??4CItemElem@@UAEAAV0@AAV0@@Z
  0000d	50		 push	 eax
  0000e	64 89 25 00 00
	00 00		 mov	 DWORD PTR fs:__except_list, esp
  00015	56		 push	 esi
  00016	57		 push	 edi

; 659  : 	CItemBase::operator =( ie );

  00017	8b 7c 24 18	 mov	 edi, DWORD PTR _ie$[esp+16]
  0001b	8d 47 0c	 lea	 eax, DWORD PTR [edi+12]
  0001e	8b f1		 mov	 esi, ecx
  00020	2b c8		 sub	 ecx, eax
  00022	8d 51 0c	 lea	 edx, DWORD PTR [ecx+12]
$L188147:
  00025	8a 08		 mov	 cl, BYTE PTR [eax]
  00027	88 0c 02	 mov	 BYTE PTR [edx+eax], cl
  0002a	40		 inc	 eax
  0002b	84 c9		 test	 cl, cl
  0002d	75 f6		 jne	 SHORT $L188147
  0002f	8b 57 08	 mov	 edx, DWORD PTR [edi+8]
  00032	89 56 08	 mov	 DWORD PTR [esi+8], edx
  00035	8b 47 30	 mov	 eax, DWORD PTR [edi+48]
  00038	89 46 30	 mov	 DWORD PTR [esi+48], eax

; 660  : 	m_nItemNum				= ie.m_nItemNum;

  0003b	66 8b 4f 72	 mov	 cx, WORD PTR [edi+114]
  0003f	66 89 4e 72	 mov	 WORD PTR [esi+114], cx

; 661  : 	m_nRepairNumber			= ie.m_nRepairNumber;

  00043	8a 57 70	 mov	 dl, BYTE PTR [edi+112]
  00046	88 56 70	 mov	 BYTE PTR [esi+112], dl

; 662  : 	m_nHitPoint				= ie.m_nHitPoint;

  00049	8b 47 74	 mov	 eax, DWORD PTR [edi+116]
  0004c	89 46 74	 mov	 DWORD PTR [esi+116], eax

; 663  : 	m_byFlag				= ie.m_byFlag;

  0004f	8a 4f 71	 mov	 cl, BYTE PTR [edi+113]
  00052	88 4e 71	 mov	 BYTE PTR [esi+113], cl

; 664  : 	m_nAbilityOption		= ie.m_nAbilityOption;

  00055	8b 57 68	 mov	 edx, DWORD PTR [edi+104]
  00058	89 56 68	 mov	 DWORD PTR [esi+104], edx

; 665  : 	m_idGuild				= ie.m_idGuild;

  0005b	8b 47 78	 mov	 eax, DWORD PTR [edi+120]
  0005e	89 46 78	 mov	 DWORD PTR [esi+120], eax

; 666  : 	m_bItemResist			= ie.m_bItemResist;

  00061	8a 4f 7c	 mov	 cl, BYTE PTR [edi+124]
  00064	88 4e 7c	 mov	 BYTE PTR [esi+124], cl

; 667  : 	m_nResistAbilityOption	= ie.m_nResistAbilityOption;

  00067	8b 97 80 00 00
	00		 mov	 edx, DWORD PTR [edi+128]
  0006d	89 96 80 00 00
	00		 mov	 DWORD PTR [esi+128], edx

; 668  : 	m_nResistSMItemId		= ie.m_nResistSMItemId;

  00073	8b 87 84 00 00
	00		 mov	 eax, DWORD PTR [edi+132]
  00079	89 86 84 00 00
	00		 mov	 DWORD PTR [esi+132], eax

; 669  : 	m_dwKeepTime			= ie.m_dwKeepTime;

  0007f	8b 8f 8c 00 00
	00		 mov	 ecx, DWORD PTR [edi+140]

; 670  : 	m_piercing	= ie.m_piercing;

  00085	8d 57 34	 lea	 edx, DWORD PTR [edi+52]
  00088	89 8e 8c 00 00
	00		 mov	 DWORD PTR [esi+140], ecx
  0008e	52		 push	 edx
  0008f	8d 4e 34	 lea	 ecx, DWORD PTR [esi+52]
  00092	e8 00 00 00 00	 call	 ??4CPiercing@@QAEAAV0@ABV0@@Z ; CPiercing::operator=

; 671  : 	m_bCharged				= ie.m_bCharged;

  00097	8b 87 88 00 00
	00		 mov	 eax, DWORD PTR [edi+136]
  0009d	89 86 88 00 00
	00		 mov	 DWORD PTR [esi+136], eax

; 672  : #if __VER >= 11 // __SYS_IDENTIFY
; 673  : 	m_iRandomOptItemId		= ie.GetRandomOptItemId();

  000a3	8b 8f 94 00 00
	00		 mov	 ecx, DWORD PTR [edi+148]
  000a9	8b 87 90 00 00
	00		 mov	 eax, DWORD PTR [edi+144]
  000af	89 8e 94 00 00
	00		 mov	 DWORD PTR [esi+148], ecx
  000b5	89 86 90 00 00
	00		 mov	 DWORD PTR [esi+144], eax

; 674  : #else	// __SYS_IDENTIFY
; 675  : 	m_nRandomOptItemId		= ie.GetRandomOptItemId();
; 676  : #endif	// __SYS_IDENTIFY
; 677  : 	m_nRepair				= ie.m_nRepair;

  000bb	8b 4f 6c	 mov	 ecx, DWORD PTR [edi+108]
  000be	89 4e 6c	 mov	 DWORD PTR [esi+108], ecx

; 678  : 
; 679  : #if __VER >= 9	// __PET_0410
; 680  : 	SAFE_DELETE( m_pPet );

  000c1	8b 8e 98 00 00
	00		 mov	 ecx, DWORD PTR [esi+152]
  000c7	85 c9		 test	 ecx, ecx
  000c9	74 10		 je	 SHORT $L187018
  000cb	8b 11		 mov	 edx, DWORD PTR [ecx]
  000cd	6a 01		 push	 1
  000cf	ff 12		 call	 DWORD PTR [edx]
  000d1	c7 86 98 00 00
	00 00 00 00 00	 mov	 DWORD PTR [esi+152], 0
$L187018:

; 681  : 	if( ie.m_pPet )

  000db	8b 87 98 00 00
	00		 mov	 eax, DWORD PTR [edi+152]
  000e1	85 c0		 test	 eax, eax
  000e3	74 41		 je	 SHORT $L187022

; 682  : 	{
; 683  : 		m_pPet	= new CPet;

  000e5	6a 28		 push	 40			; 00000028H
  000e7	e8 00 00 00 00	 call	 ??2@YAPAXI@Z		; operator new
  000ec	83 c4 04	 add	 esp, 4
  000ef	89 44 24 18	 mov	 DWORD PTR $T188139[esp+16], eax
  000f3	85 c0		 test	 eax, eax
  000f5	c7 44 24 10 00
	00 00 00	 mov	 DWORD PTR __$EHRec$[esp+28], 0
  000fd	74 09		 je	 SHORT $L188140
  000ff	8b c8		 mov	 ecx, eax
  00101	e8 00 00 00 00	 call	 ??0CPet@@QAE@XZ		; CPet::CPet
  00106	eb 02		 jmp	 SHORT $L188141
$L188140:
  00108	33 c0		 xor	 eax, eax
$L188141:
  0010a	89 86 98 00 00
	00		 mov	 DWORD PTR [esi+152], eax

; 684  : 		*m_pPet	= *ie.m_pPet;

  00110	8b 8f 98 00 00
	00		 mov	 ecx, DWORD PTR [edi+152]
  00116	51		 push	 ecx
  00117	8b c8		 mov	 ecx, eax
  00119	c7 44 24 14 ff
	ff ff ff	 mov	 DWORD PTR __$EHRec$[esp+32], -1
  00121	e8 00 00 00 00	 call	 ??4CPet@@QAEAAV0@AAV0@@Z ; CPet::operator=
$L187022:

; 685  : 	}
; 686  : #endif	// __PET_0410
; 687  : #if __VER >= 15 // __PETVIS
; 688  : 	m_bTranformVisPet		= ie.m_bTranformVisPet;

  00126	8b 97 9c 00 00
	00		 mov	 edx, DWORD PTR [edi+156]

; 689  : #endif // __PETVIS
; 690  : 
; 691  : 	return *this;
; 692  : }

  0012c	8b 4c 24 08	 mov	 ecx, DWORD PTR __$EHRec$[esp+20]
  00130	89 96 9c 00 00
	00		 mov	 DWORD PTR [esi+156], edx
  00136	5f		 pop	 edi
  00137	8b c6		 mov	 eax, esi
  00139	64 89 0d 00 00
	00 00		 mov	 DWORD PTR fs:__except_list, ecx
  00140	5e		 pop	 esi
  00141	83 c4 0c	 add	 esp, 12			; 0000000cH
  00144	c2 04 00	 ret	 4
_TEXT	ENDS
;	COMDAT text$x
text$x	SEGMENT
$L188142:
  00000	8b 45 04	 mov	 eax, DWORD PTR $T188139[ebp-4]
  00003	50		 push	 eax
  00004	e8 00 00 00 00	 call	 ??3@YAXPAX@Z		; operator delete
  00009	59		 pop	 ecx
  0000a	c3		 ret	 0
__ehhandler$??4CItemElem@@UAEAAV0@AAV0@@Z:
  0000b	b8 00 00 00 00	 mov	 eax, OFFSET FLAT:$T188153
  00010	e9 00 00 00 00	 jmp	 ___CxxFrameHandler
text$x	ENDS
??4CItemElem@@UAEAAV0@AAV0@@Z ENDP			; CItemElem::operator=
PUBLIC	?construct@?$allocator@PAU_Node@?$_List_nod@PAXV?$allocator@PAX@std@@@std@@@std@@QAEXPAPAU_Node@?$_List_nod@PAXV?$allocator@PAX@std@@@2@ABQAU342@@Z ; std::allocator<std::_List_nod<void *,std::allocator<void *> >::_Node *>::construct
; Function compile flags: /Ogty
; File c:\program files\microsoft visual studio .net 2003\vc7\include\xmemory
;	COMDAT ?construct@?$allocator@PAU_Node@?$_List_nod@PAXV?$allocator@PAX@std@@@std@@@std@@QAEXPAPAU_Node@?$_List_nod@PAXV?$allocator@PAX@std@@@2@ABQAU342@@Z
_TEXT	SEGMENT
__Ptr$ = 8						; size = 4
__Val$ = 12						; size = 4
?construct@?$allocator@PAU_Node@?$_List_nod@PAXV?$allocator@PAX@std@@@std@@@std@@QAEXPAPAU_Node@?$_List_nod@PAXV?$allocator@PAX@std@@@2@ABQAU342@@Z PROC NEAR ; std::allocator<std::_List_nod<void *,std::allocator<void *> >::_Node *>::construct, COMDAT
; _this$ = ecx

; 147  : 		_Construct(_Ptr, _Val);

  00000	8b 44 24 04	 mov	 eax, DWORD PTR __Ptr$[esp-4]
  00004	85 c0		 test	 eax, eax
  00006	74 08		 je	 SHORT $L188170
  00008	8b 4c 24 08	 mov	 ecx, DWORD PTR __Val$[esp-4]
  0000c	8b 11		 mov	 edx, DWORD PTR [ecx]
  0000e	89 10		 mov	 DWORD PTR [eax], edx
$L188170:

; 148  : 		}

  00010	c2 08 00	 ret	 8
?construct@?$allocator@PAU_Node@?$_List_nod@PAXV?$allocator@PAX@std@@@std@@@std@@QAEXPAPAU_Node@?$_List_nod@PAXV?$allocator@PAX@std@@@2@ABQAU342@@Z ENDP ; std::allocator<std::_List_nod<void *,std::allocator<void *> >::_Node *>::construct
_TEXT	ENDS
PUBLIC	?destroy@?$allocator@PAU_Node@?$_List_nod@PAXV?$allocator@PAX@std@@@std@@@std@@QAEXPAPAU_Node@?$_List_nod@PAXV?$allocator@PAX@std@@@2@@Z ; std::allocator<std::_List_nod<void *,std::allocator<void *> >::_Node *>::destroy
; Function compile flags: /Ogty
;	COMDAT ?destroy@?$allocator@PAU_Node@?$_List_nod@PAXV?$allocator@PAX@std@@@std@@@std@@QAEXPAPAU_Node@?$_List_nod@PAXV?$allocator@PAX@std@@@2@@Z
_TEXT	SEGMENT
__Ptr$ = 8						; size = 4
?destroy@?$allocator@PAU_Node@?$_List_nod@PAXV?$allocator@PAX@std@@@std@@@std@@QAEXPAPAU_Node@?$_List_nod@PAXV?$allocator@PAX@std@@@2@@Z PROC NEAR ; std::allocator<std::_List_nod<void *,std::allocator<void *> >::_Node *>::destroy, COMDAT
; _this$ = ecx

; 152  : 		_Destroy(_Ptr);
; 153  : 		}

  00000	c2 04 00	 ret	 4
?destroy@?$allocator@PAU_Node@?$_List_nod@PAXV?$allocator@PAX@std@@@std@@@std@@QAEXPAPAU_Node@?$_List_nod@PAXV?$allocator@PAX@std@@@2@@Z ENDP ; std::allocator<std::_List_nod<void *,std::allocator<void *> >::_Node *>::destroy
_TEXT	ENDS
PUBLIC	??0?$_List_nod@PAXV?$allocator@PAX@std@@@std@@IAE@V?$allocator@PAX@1@@Z ; std::_List_nod<void *,std::allocator<void *> >::_List_nod<void *,std::allocator<void *> >
; Function compile flags: /Ogty
; File c:\program files\microsoft visual studio .net 2003\vc7\include\list
;	COMDAT ??0?$_List_nod@PAXV?$allocator@PAX@std@@@std@@IAE@V?$allocator@PAX@1@@Z
_TEXT	SEGMENT
__Al$ = 8						; size = 1
??0?$_List_nod@PAXV?$allocator@PAX@std@@@std@@IAE@V?$allocator@PAX@1@@Z PROC NEAR ; std::_List_nod<void *,std::allocator<void *> >::_List_nod<void *,std::allocator<void *> >, COMDAT
; _this$ = ecx

; 44   : 		{	// construct allocator from _Al

  00000	8b c1		 mov	 eax, ecx

; 45   : 		}

  00002	c2 04 00	 ret	 4
??0?$_List_nod@PAXV?$allocator@PAX@std@@@std@@IAE@V?$allocator@PAX@1@@Z ENDP ; std::_List_nod<void *,std::allocator<void *> >::_List_nod<void *,std::allocator<void *> >
_TEXT	ENDS
PUBLIC	?destroy@?$allocator@U_Node@?$_List_nod@PAXV?$allocator@PAX@std@@@std@@@std@@QAEXPAU_Node@?$_List_nod@PAXV?$allocator@PAX@std@@@2@@Z ; std::allocator<std::_List_nod<void *,std::allocator<void *> >::_Node>::destroy
; Function compile flags: /Ogty
; File c:\program files\microsoft visual studio .net 2003\vc7\include\xmemory
;	COMDAT ?destroy@?$allocator@U_Node@?$_List_nod@PAXV?$allocator@PAX@std@@@std@@@std@@QAEXPAU_Node@?$_List_nod@PAXV?$allocator@PAX@std@@@2@@Z
_TEXT	SEGMENT
__Ptr$ = 8						; size = 4
?destroy@?$allocator@U_Node@?$_List_nod@PAXV?$allocator@PAX@std@@@std@@@std@@QAEXPAU_Node@?$_List_nod@PAXV?$allocator@PAX@std@@@2@@Z PROC NEAR ; std::allocator<std::_List_nod<void *,std::allocator<void *> >::_Node>::destroy, COMDAT
; _this$ = ecx

; 152  : 		_Destroy(_Ptr);
; 153  : 		}

  00000	c2 04 00	 ret	 4
?destroy@?$allocator@U_Node@?$_List_nod@PAXV?$allocator@PAX@std@@@std@@@std@@QAEXPAU_Node@?$_List_nod@PAXV?$allocator@PAX@std@@@2@@Z ENDP ; std::allocator<std::_List_nod<void *,std::allocator<void *> >::_Node>::destroy
_TEXT	ENDS
PUBLIC	?GetAtId@?$CItemContainer@VCItemElem@@@@QAEPAVCItemElem@@K@Z ; CItemContainer<CItemElem>::GetAtId
; Function compile flags: /Ogty
; File c:\documents and settings\test\mes documents\source\virtuos_v17\build\program\_network\objects\obj.h
;	COMDAT ?GetAtId@?$CItemContainer@VCItemElem@@@@QAEPAVCItemElem@@K@Z
_TEXT	SEGMENT
_dwObjId$ = 8						; size = 4
?GetAtId@?$CItemContainer@VCItemElem@@@@QAEPAVCItemElem@@K@Z PROC NEAR ; CItemContainer<CItemElem>::GetAtId, COMDAT
; _this$ = ecx

; 663  : 	if( dwObjId >= m_dwItemMax )	return NULL;

  00000	8b 44 24 04	 mov	 eax, DWORD PTR _dwObjId$[esp-4]
  00004	3b 41 10	 cmp	 eax, DWORD PTR [ecx+16]
  00007	72 05		 jb	 SHORT $L187250
  00009	33 c0		 xor	 eax, eax

; 666  : 		return NULL;
; 667  : 	return pItemElem;
; 668  : }

  0000b	c2 04 00	 ret	 4
$L187250:

; 664  : 	T* pItemElem	= &m_apItem[dwObjId];

  0000e	8d 14 80	 lea	 edx, DWORD PTR [eax+eax*4]
  00011	8b 41 0c	 mov	 eax, DWORD PTR [ecx+12]
  00014	c1 e2 05	 shl	 edx, 5
  00017	03 d0		 add	 edx, eax

; 665  : 	if( pItemElem->IsEmpty() )

  00019	8b 42 08	 mov	 eax, DWORD PTR [edx+8]
  0001c	f7 d8		 neg	 eax
  0001e	1b c0		 sbb	 eax, eax
  00020	23 c2		 and	 eax, edx

; 666  : 		return NULL;
; 667  : 	return pItemElem;
; 668  : }

  00022	c2 04 00	 ret	 4
?GetAtId@?$CItemContainer@VCItemElem@@@@QAEPAVCItemElem@@K@Z ENDP ; CItemContainer<CItemElem>::GetAtId
_TEXT	ENDS
PUBLIC	?UnEquip@?$CItemContainer@VCItemElem@@@@QAEHK@Z	; CItemContainer<CItemElem>::UnEquip
; Function compile flags: /Ogty
;	COMDAT ?UnEquip@?$CItemContainer@VCItemElem@@@@QAEHK@Z
_TEXT	SEGMENT
_dwIndex$ = 8						; size = 4
?UnEquip@?$CItemContainer@VCItemElem@@@@QAEHK@Z PROC NEAR ; CItemContainer<CItemElem>::UnEquip, COMDAT
; _this$ = ecx

; 746  : 	dwIndex		+= m_dwIndexNum;

  00000	8b 44 24 04	 mov	 eax, DWORD PTR _dwIndex$[esp-4]

; 747  : 	if( dwIndex >= m_dwItemMax )

  00004	8b 51 10	 mov	 edx, DWORD PTR [ecx+16]
  00007	53		 push	 ebx
  00008	8b 59 08	 mov	 ebx, DWORD PTR [ecx+8]
  0000b	03 c3		 add	 eax, ebx
  0000d	3b c2		 cmp	 eax, edx
  0000f	89 44 24 08	 mov	 DWORD PTR _dwIndex$[esp], eax
  00013	72 06		 jb	 SHORT $L187270

; 748  : 		return FALSE;

  00015	33 c0		 xor	 eax, eax
  00017	5b		 pop	 ebx

; 770  : }

  00018	c2 04 00	 ret	 4
$L187270:
  0001b	56		 push	 esi
  0001c	57		 push	 edi

; 749  : 
; 750  : 	DWORD dwId	= m_apIndex[dwIndex];

  0001d	8b 79 04	 mov	 edi, DWORD PTR [ecx+4]
  00020	8b 34 87	 mov	 esi, DWORD PTR [edi+eax*4]

; 751  : 
; 752  : 	if( dwId >= m_dwItemMax )
; 753  : 		return FALSE;

  00023	33 c0		 xor	 eax, eax
  00025	3b f2		 cmp	 esi, edx
  00027	73 29		 jae	 SHORT $L188204

; 754  : 
; 755  : 	for( DWORD i = 0; i < m_dwIndexNum; i++ )

  00029	85 db		 test	 ebx, ebx
  0002b	55		 push	 ebp
  0002c	76 21		 jbe	 SHORT $L187276
  0002e	8b ff		 npad	 2
$L187274:

; 756  : 	{
; 757  : 		if( m_apIndex[i] >= m_dwItemMax )

  00030	8b 17		 mov	 edx, DWORD PTR [edi]
  00032	3b 51 10	 cmp	 edx, DWORD PTR [ecx+16]
  00035	73 10		 jae	 SHORT $L187275

; 758  : 			continue;
; 759  : 
; 760  : 		if( m_apItem[m_apIndex[i]].IsEmpty() )

  00037	8b 69 0c	 mov	 ebp, DWORD PTR [ecx+12]
  0003a	8d 14 92	 lea	 edx, DWORD PTR [edx+edx*4]
  0003d	c1 e2 05	 shl	 edx, 5
  00040	83 7c 2a 08 00	 cmp	 DWORD PTR [edx+ebp+8], 0
  00045	74 11		 je	 SHORT $L188201
$L187275:

; 754  : 
; 755  : 	for( DWORD i = 0; i < m_dwIndexNum; i++ )

  00047	40		 inc	 eax
  00048	83 c7 04	 add	 edi, 4
  0004b	3b c3		 cmp	 eax, ebx
  0004d	72 e1		 jb	 SHORT $L187274
$L187276:

; 767  : 		}
; 768  : 	}
; 769  : 	return FALSE;

  0004f	33 c0		 xor	 eax, eax
  00051	5d		 pop	 ebp
$L188204:
  00052	5f		 pop	 edi
  00053	5e		 pop	 esi
  00054	5b		 pop	 ebx

; 770  : }

  00055	c2 04 00	 ret	 4
$L188201:

; 761  : 		{
; 762  : 			m_apItem[m_apIndex[i]].m_dwObjIndex		= NULL_ID;

  00058	8b 51 04	 mov	 edx, DWORD PTR [ecx+4]
  0005b	8b 14 82	 mov	 edx, DWORD PTR [edx+eax*4]
  0005e	8b 79 0c	 mov	 edi, DWORD PTR [ecx+12]
  00061	8d 14 92	 lea	 edx, DWORD PTR [edx+edx*4]
  00064	c1 e2 05	 shl	 edx, 5
  00067	c7 44 3a 2c ff
	ff ff ff	 mov	 DWORD PTR [edx+edi+44], -1

; 763  : 			m_apIndex[dwIndex]	= NULL_ID;

  0006f	8b 51 04	 mov	 edx, DWORD PTR [ecx+4]
  00072	8b 7c 24 14	 mov	 edi, DWORD PTR _dwIndex$[esp+12]
  00076	c7 04 ba ff ff
	ff ff		 mov	 DWORD PTR [edx+edi*4], -1

; 764  : 			m_apItem[dwId].m_dwObjIndex		= i;

  0007d	8b 79 0c	 mov	 edi, DWORD PTR [ecx+12]
  00080	8d 14 b6	 lea	 edx, DWORD PTR [esi+esi*4]
  00083	c1 e2 05	 shl	 edx, 5
  00086	89 44 3a 2c	 mov	 DWORD PTR [edx+edi+44], eax

; 765  : 			m_apIndex[i]	= dwId;

  0008a	8b 49 04	 mov	 ecx, DWORD PTR [ecx+4]
  0008d	5d		 pop	 ebp
  0008e	5f		 pop	 edi
  0008f	89 34 81	 mov	 DWORD PTR [ecx+eax*4], esi
  00092	5e		 pop	 esi

; 766  : 			return TRUE;

  00093	b8 01 00 00 00	 mov	 eax, 1
  00098	5b		 pop	 ebx

; 770  : }

  00099	c2 04 00	 ret	 4
?UnEquip@?$CItemContainer@VCItemElem@@@@QAEHK@Z ENDP	; CItemContainer<CItemElem>::UnEquip
_TEXT	ENDS
PUBLIC	?Copy@?$CItemContainer@VCItemElem@@@@QAEXAAV1@@Z ; CItemContainer<CItemElem>::Copy
; Function compile flags: /Ogty
;	COMDAT ?Copy@?$CItemContainer@VCItemElem@@@@QAEXAAV1@@Z
_TEXT	SEGMENT
_rItemContainer$ = 8					; size = 4
?Copy@?$CItemContainer@VCItemElem@@@@QAEXAAV1@@Z PROC NEAR ; CItemContainer<CItemElem>::Copy, COMDAT
; _this$ = ecx

; 789  : {

  00000	53		 push	 ebx
  00001	8b d9		 mov	 ebx, ecx

; 791  : 	memcpy( (void*)m_apIndex, (void*)rItemContainer.m_apIndex, sizeof(DWORD) * m_dwItemMax );

  00003	8b 4b 10	 mov	 ecx, DWORD PTR [ebx+16]
  00006	c1 e1 02	 shl	 ecx, 2
  00009	55		 push	 ebp
  0000a	8b 6c 24 0c	 mov	 ebp, DWORD PTR _rItemContainer$[esp+4]
  0000e	8b 45 08	 mov	 eax, DWORD PTR [ebp+8]
  00011	56		 push	 esi
  00012	8b d1		 mov	 edx, ecx
  00014	57		 push	 edi
  00015	8b 7b 04	 mov	 edi, DWORD PTR [ebx+4]
  00018	89 43 08	 mov	 DWORD PTR [ebx+8], eax
  0001b	8b 75 04	 mov	 esi, DWORD PTR [ebp+4]
  0001e	c1 e9 02	 shr	 ecx, 2
  00021	f3 a5		 rep movsd
  00023	8b ca		 mov	 ecx, edx
  00025	83 e1 03	 and	 ecx, 3
  00028	f3 a4		 rep movsb

; 792  : 	for( u_long i = 0; i < m_dwItemMax; i++ )

  0002a	8b 43 10	 mov	 eax, DWORD PTR [ebx+16]
  0002d	33 ff		 xor	 edi, edi
  0002f	85 c0		 test	 eax, eax
  00031	76 4f		 jbe	 SHORT $L187290

; 790  : 	m_dwIndexNum	= rItemContainer.m_dwIndexNum;

  00033	33 f6		 xor	 esi, esi
$L188214:

; 793  : 	{
; 794  : 		m_apItem[i].m_dwObjId	= rItemContainer.m_apItem[i].m_dwObjId;

  00035	8b 45 0c	 mov	 eax, DWORD PTR [ebp+12]
  00038	8b 54 06 04	 mov	 edx, DWORD PTR [esi+eax+4]
  0003c	8b 4b 0c	 mov	 ecx, DWORD PTR [ebx+12]
  0003f	89 54 31 04	 mov	 DWORD PTR [ecx+esi+4], edx

; 795  : 		m_apItem[i].m_dwObjIndex	= rItemContainer.m_apItem[i].m_dwObjIndex;

  00043	8b 45 0c	 mov	 eax, DWORD PTR [ebp+12]
  00046	8b 4b 0c	 mov	 ecx, DWORD PTR [ebx+12]
  00049	8b 54 06 2c	 mov	 edx, DWORD PTR [esi+eax+44]
  0004d	89 54 31 2c	 mov	 DWORD PTR [ecx+esi+44], edx

; 796  : 		if( rItemContainer.m_apItem[i].IsEmpty() == FALSE )

  00051	8b 45 0c	 mov	 eax, DWORD PTR [ebp+12]
  00054	8b 4c 06 08	 mov	 ecx, DWORD PTR [esi+eax+8]
  00058	85 c9		 test	 ecx, ecx

; 797  : 			m_apItem[i]		= rItemContainer.m_apItem[i];

  0005a	8b 4b 0c	 mov	 ecx, DWORD PTR [ebx+12]
  0005d	74 0d		 je	 SHORT $L187291
  0005f	8b 14 31	 mov	 edx, DWORD PTR [ecx+esi]
  00062	03 ce		 add	 ecx, esi
  00064	03 c6		 add	 eax, esi
  00066	50		 push	 eax
  00067	ff 52 10	 call	 DWORD PTR [edx+16]

; 798  : 		else

  0006a	eb 08		 jmp	 SHORT $L187289
$L187291:

; 799  : 			m_apItem[i].Empty();

  0006c	8b 14 31	 mov	 edx, DWORD PTR [ecx+esi]
  0006f	03 ce		 add	 ecx, esi
  00071	ff 52 04	 call	 DWORD PTR [edx+4]
$L187289:
  00074	8b 43 10	 mov	 eax, DWORD PTR [ebx+16]
  00077	47		 inc	 edi
  00078	81 c6 a0 00 00
	00		 add	 esi, 160		; 000000a0H
  0007e	3b f8		 cmp	 edi, eax
  00080	72 b3		 jb	 SHORT $L188214
$L187290:
  00082	5f		 pop	 edi
  00083	5e		 pop	 esi
  00084	5d		 pop	 ebp
  00085	5b		 pop	 ebx

; 800  : 	}
; 801  : }

  00086	c2 04 00	 ret	 4
?Copy@?$CItemContainer@VCItemElem@@@@QAEXAAV1@@Z ENDP	; CItemContainer<CItemElem>::Copy
_TEXT	ENDS
PUBLIC	?IsFull@?$CItemContainer@VCItemElem@@@@QAEHPAUItemProp@@FH@Z ; CItemContainer<CItemElem>::IsFull
; Function compile flags: /Ogty
;	COMDAT ?IsFull@?$CItemContainer@VCItemElem@@@@QAEHPAUItemProp@@FH@Z
_TEXT	SEGMENT
_i$187390 = -4						; size = 4
_pItemProp$ = 8						; size = 4
tv278 = 12						; size = 4
_nNum$ = 12						; size = 2
_bCharged$ = 16						; size = 4
?IsFull@?$CItemContainer@VCItemElem@@@@QAEHPAUItemProp@@FH@Z PROC NEAR ; CItemContainer<CItemElem>::IsFull, COMDAT
; _this$ = ecx

; 620  : {

  00000	51		 push	 ecx

; 621  : 	int nId;
; 622  : 	short nNumtmp	= nNum;
; 623  : 
; 624  : 	CItemElem* pElemtmp;
; 625  : 	for( DWORD i = 0; i < m_dwIndexNum; i++ )

  00001	8b 41 08	 mov	 eax, DWORD PTR [ecx+8]
  00004	85 c0		 test	 eax, eax
  00006	53		 push	 ebx
  00007	55		 push	 ebp
  00008	56		 push	 esi
  00009	8b 74 24 18	 mov	 esi, DWORD PTR _nNum$[esp+12]
  0000d	57		 push	 edi
  0000e	c7 44 24 10 00
	00 00 00	 mov	 DWORD PTR _i$187390[esp+20], 0
  00016	0f 86 8b 00 00
	00		 jbe	 $L187393
  0001c	8b 41 04	 mov	 eax, DWORD PTR [ecx+4]
  0001f	8b 7c 24 18	 mov	 edi, DWORD PTR _pItemProp$[esp+16]
  00023	89 44 24 1c	 mov	 DWORD PTR tv278[esp+16], eax
$L188223:

; 626  : 	{
; 627  : 		nId	= m_apIndex[i];

  00027	8b 54 24 1c	 mov	 edx, DWORD PTR tv278[esp+16]
  0002b	8b 02		 mov	 eax, DWORD PTR [edx]

; 628  : 		if( nId < 0 || nId >= (int)( m_dwItemMax ) )

  0002d	85 c0		 test	 eax, eax
  0002f	7c 5b		 jl	 SHORT $L187392
  00031	3b 41 10	 cmp	 eax, DWORD PTR [ecx+16]
  00034	7d 56		 jge	 SHORT $L187392

; 629  : 			continue;
; 630  : 		pElemtmp	= (CItemElem*)&m_apItem[nId];

  00036	8b 69 0c	 mov	 ebp, DWORD PTR [ecx+12]
  00039	8d 04 80	 lea	 eax, DWORD PTR [eax+eax*4]
  0003c	c1 e0 05	 shl	 eax, 5

; 631  : 		if( pElemtmp->IsEmpty() )

  0003f	8b 54 28 08	 mov	 edx, DWORD PTR [eax+ebp+8]
  00043	03 c5		 add	 eax, ebp
  00045	85 d2		 test	 edx, edx
  00047	75 0f		 jne	 SHORT $L187398

; 632  : 		{
; 633  : 			if( nNumtmp > (short)pItemProp->dwPackMax )
; 634  : 				nNumtmp	-= (short)pItemProp->dwPackMax;

  00049	33 c0		 xor	 eax, eax
  0004b	66 8b 47 6c	 mov	 ax, WORD PTR [edi+108]
  0004f	66 3b f0	 cmp	 si, ax
  00052	7e 60		 jle	 SHORT $L187406
  00054	2b f0		 sub	 esi, eax

; 635  : 			else
; 636  : 				return FALSE;
; 637  : 		}
; 638  : 		else if( pElemtmp->m_dwItemId == pItemProp->dwID && pElemtmp->m_bCharged == bCharged && pElemtmp->m_byFlag == 0 )

  00056	eb 34		 jmp	 SHORT $L187392
$L187398:
  00058	3b 17		 cmp	 edx, DWORD PTR [edi]
  0005a	75 30		 jne	 SHORT $L187392
  0005c	8b 90 88 00 00
	00		 mov	 edx, DWORD PTR [eax+136]
  00062	3b 54 24 20	 cmp	 edx, DWORD PTR _bCharged$[esp+16]
  00066	75 24		 jne	 SHORT $L187392
  00068	8a 50 71	 mov	 dl, BYTE PTR [eax+113]
  0006b	84 d2		 test	 dl, dl
  0006d	75 1d		 jne	 SHORT $L187392

; 639  : 		{
; 640  : 			if( pElemtmp->m_nItemNum + nNumtmp > (short)pItemProp->dwPackMax )

  0006f	0f bf 40 72	 movsx	 eax, WORD PTR [eax+114]
  00073	0f bf ee	 movsx	 ebp, si
  00076	0f bf d8	 movsx	 ebx, ax

; 641  : 				nNumtmp	-= ( (short)pItemProp->dwPackMax - pElemtmp->m_nItemNum );

  00079	33 d2		 xor	 edx, edx
  0007b	66 8b 57 6c	 mov	 dx, WORD PTR [edi+108]
  0007f	03 dd		 add	 ebx, ebp
  00081	0f bf ea	 movsx	 ebp, dx
  00084	3b dd		 cmp	 ebx, ebp
  00086	7e 2c		 jle	 SHORT $L187406
  00088	2b c2		 sub	 eax, edx
  0008a	03 f0		 add	 esi, eax
$L187392:
  0008c	8b 44 24 10	 mov	 eax, DWORD PTR _i$187390[esp+20]
  00090	8b 5c 24 1c	 mov	 ebx, DWORD PTR tv278[esp+16]
  00094	8b 51 08	 mov	 edx, DWORD PTR [ecx+8]
  00097	40		 inc	 eax
  00098	83 c3 04	 add	 ebx, 4
  0009b	3b c2		 cmp	 eax, edx
  0009d	89 44 24 10	 mov	 DWORD PTR _i$187390[esp+20], eax
  000a1	89 5c 24 1c	 mov	 DWORD PTR tv278[esp+16], ebx
  000a5	72 80		 jb	 SHORT $L188223
$L187393:
  000a7	5f		 pop	 edi
  000a8	5e		 pop	 esi
  000a9	5d		 pop	 ebp

; 644  : 		}
; 645  : 	}
; 646  : 
; 647  : 	return TRUE;

  000aa	b8 01 00 00 00	 mov	 eax, 1
  000af	5b		 pop	 ebx

; 648  : }

  000b0	59		 pop	 ecx
  000b1	c2 0c 00	 ret	 12			; 0000000cH
$L187406:
  000b4	5f		 pop	 edi
  000b5	5e		 pop	 esi
  000b6	5d		 pop	 ebp

; 642  : 			else
; 643  : 				return FALSE;

  000b7	33 c0		 xor	 eax, eax
  000b9	5b		 pop	 ebx

; 648  : }

  000ba	59		 pop	 ecx
  000bb	c2 0c 00	 ret	 12			; 0000000cH
?IsFull@?$CItemContainer@VCItemElem@@@@QAEHPAUItemProp@@FH@Z ENDP ; CItemContainer<CItemElem>::IsFull
_TEXT	ENDS
PUBLIC	?GetItemProp@CProject@@QAEPAUItemProp@@H@Z	; CProject::GetItemProp
; Function compile flags: /Ogty
; File c:\documents and settings\test\mes documents\source\virtuos_v17\build\program\databaseserver\project.h
;	COMDAT ?GetItemProp@CProject@@QAEPAUItemProp@@H@Z
_TEXT	SEGMENT
_nIndex$ = 8						; size = 4
?GetItemProp@CProject@@QAEPAUItemProp@@H@Z PROC NEAR	; CProject::GetItemProp, COMDAT
; _this$ = ecx

; 200  : 	ItemProp*	GetItemProp( int nIndex )	{	return m_aPropItem.GetAt( nIndex );	}

  00000	8b 44 24 04	 mov	 eax, DWORD PTR _nIndex$[esp-4]
  00004	3b 41 50	 cmp	 eax, DWORD PTR [ecx+80]
  00007	72 05		 jb	 SHORT $L188229
  00009	33 c0		 xor	 eax, eax
  0000b	c2 04 00	 ret	 4
$L188229:
  0000e	8b 49 40	 mov	 ecx, DWORD PTR [ecx+64]
  00011	8b 04 81	 mov	 eax, DWORD PTR [ecx+eax*4]
  00014	c2 04 00	 ret	 4
?GetItemProp@CProject@@QAEPAUItemProp@@H@Z ENDP		; CProject::GetItemProp
_TEXT	ENDS
PUBLIC	?GetPropA@CItemElem@@QAEPAUItemProp@@XZ		; CItemElem::GetPropA
; Function compile flags: /Ogty
; File c:\documents and settings\test\mes documents\source\virtuos_v17\build\program\_network\objects\obj.h
;	COMDAT ?GetPropA@CItemElem@@QAEPAUItemProp@@XZ
_TEXT	SEGMENT
?GetPropA@CItemElem@@QAEPAUItemProp@@XZ PROC NEAR	; CItemElem::GetPropA, COMDAT
; _this$ = ecx

; 166  : 	ItemProp*	GetProp()	{	return prj.GetItemProp( m_dwItemId );	}

  00000	8b 41 08	 mov	 eax, DWORD PTR [ecx+8]
  00003	3b 05 50 00 00
	00		 cmp	 eax, DWORD PTR ?prj@@3VCProject@@A+80
  00009	72 03		 jb	 SHORT $L188245
  0000b	33 c0		 xor	 eax, eax
  0000d	c3		 ret	 0
$L188245:
  0000e	8b 0d 40 00 00
	00		 mov	 ecx, DWORD PTR ?prj@@3VCProject@@A+64
  00014	8b 04 81	 mov	 eax, DWORD PTR [ecx+eax*4]
  00017	c3		 ret	 0
?GetPropA@CItemElem@@QAEPAUItemProp@@XZ ENDP		; CItemElem::GetPropA
_TEXT	ENDS
PUBLIC	??0?$_String_val@DV?$allocator@D@std@@@std@@IAE@V?$allocator@D@1@@Z ; std::_String_val<char,std::allocator<char> >::_String_val<char,std::allocator<char> >
; Function compile flags: /Ogty
; File c:\program files\microsoft visual studio .net 2003\vc7\include\xstring
;	COMDAT ??0?$_String_val@DV?$allocator@D@std@@@std@@IAE@V?$allocator@D@1@@Z
_TEXT	SEGMENT
__Al$ = 8						; size = 1
??0?$_String_val@DV?$allocator@D@std@@@std@@IAE@V?$allocator@D@1@@Z PROC NEAR ; std::_String_val<char,std::allocator<char> >::_String_val<char,std::allocator<char> >, COMDAT
; _this$ = ecx

; 34   : 		{	// construct allocator from _Al

  00000	8b c1		 mov	 eax, ecx

; 35   : 		}

  00002	c2 04 00	 ret	 4
??0?$_String_val@DV?$allocator@D@std@@@std@@IAE@V?$allocator@D@1@@Z ENDP ; std::_String_val<char,std::allocator<char> >::_String_val<char,std::allocator<char> >
_TEXT	ENDS
PUBLIC	?_Eos@?$basic_string@DU?$char_traits@D@std@@V?$allocator@D@2@@std@@IAEXI@Z ; std::basic_string<char,std::char_traits<char>,std::allocator<char> >::_Eos
; Function compile flags: /Ogty
;	COMDAT ?_Eos@?$basic_string@DU?$char_traits@D@std@@V?$allocator@D@2@@std@@IAEXI@Z
_TEXT	SEGMENT
__Newsize$ = 8						; size = 4
?_Eos@?$basic_string@DU?$char_traits@D@std@@V?$allocator@D@2@@std@@IAEXI@Z PROC NEAR ; std::basic_string<char,std::char_traits<char>,std::allocator<char> >::_Eos, COMDAT
; _this$ = ecx

; 1475 : 		_Traits::assign(_Myptr()[_Mysize = _Newsize], _Elem());

  00000	83 79 18 10	 cmp	 DWORD PTR [ecx+24], 16	; 00000010H
  00004	8b 44 24 04	 mov	 eax, DWORD PTR __Newsize$[esp-4]
  00008	89 41 14	 mov	 DWORD PTR [ecx+20], eax
  0000b	72 0a		 jb	 SHORT $L188260
  0000d	8b 49 04	 mov	 ecx, DWORD PTR [ecx+4]
  00010	c6 04 01 00	 mov	 BYTE PTR [ecx+eax], 0

; 1476 : 		}

  00014	c2 04 00	 ret	 4

; 1475 : 		_Traits::assign(_Myptr()[_Mysize = _Newsize], _Elem());

$L188260:
  00017	c6 44 01 04 00	 mov	 BYTE PTR [ecx+eax+4], 0

; 1476 : 		}

  0001c	c2 04 00	 ret	 4
?_Eos@?$basic_string@DU?$char_traits@D@std@@V?$allocator@D@2@@std@@IAEXI@Z ENDP ; std::basic_string<char,std::char_traits<char>,std::allocator<char> >::_Eos
_TEXT	ENDS
PUBLIC	?max_size@?$basic_string@DU?$char_traits@D@std@@V?$allocator@D@2@@std@@QBEIXZ ; std::basic_string<char,std::char_traits<char>,std::allocator<char> >::max_size
; Function compile flags: /Ogty
;	COMDAT ?max_size@?$basic_string@DU?$char_traits@D@std@@V?$allocator@D@2@@std@@QBEIXZ
_TEXT	SEGMENT
?max_size@?$basic_string@DU?$char_traits@D@std@@V?$allocator@D@2@@std@@QBEIXZ PROC NEAR ; std::basic_string<char,std::char_traits<char>,std::allocator<char> >::max_size, COMDAT
; _this$ = ecx

; 1114 : 		size_type _Num = _Mybase::_Alval.max_size();
; 1115 : 		return (_Num <= 1 ? 1 : _Num - 1);

  00000	b8 fe ff ff ff	 mov	 eax, -2			; fffffffeH

; 1116 : 		}

  00005	c3		 ret	 0
?max_size@?$basic_string@DU?$char_traits@D@std@@V?$allocator@D@2@@std@@QBEIXZ ENDP ; std::basic_string<char,std::char_traits<char>,std::allocator<char> >::max_size
_TEXT	ENDS
PUBLIC	?allocate@?$allocator@D@std@@QAEPADI@Z		; std::allocator<char>::allocate
; Function compile flags: /Ogty
; File c:\program files\microsoft visual studio .net 2003\vc7\include\xmemory
;	COMDAT ?allocate@?$allocator@D@std@@QAEPADI@Z
_TEXT	SEGMENT
__Count$ = 8						; size = 4
?allocate@?$allocator@D@std@@QAEPADI@Z PROC NEAR	; std::allocator<char>::allocate, COMDAT
; _this$ = ecx

; 137  : 		return (_Allocate(_Count, (pointer)0));

  00000	8b 44 24 04	 mov	 eax, DWORD PTR __Count$[esp-4]
  00004	50		 push	 eax
  00005	e8 00 00 00 00	 call	 ??2@YAPAXI@Z		; operator new
  0000a	83 c4 04	 add	 esp, 4

; 138  : 		}

  0000d	c2 04 00	 ret	 4
?allocate@?$allocator@D@std@@QAEPADI@Z ENDP		; std::allocator<char>::allocate
_TEXT	ENDS
PUBLIC	??0iterator@?$list@PAXV?$allocator@PAX@std@@@std@@QAE@PAU_Node@?$_List_nod@PAXV?$allocator@PAX@std@@@2@@Z ; std::list<void *,std::allocator<void *> >::iterator::iterator
; Function compile flags: /Ogty
; File c:\program files\microsoft visual studio .net 2003\vc7\include\list
;	COMDAT ??0iterator@?$list@PAXV?$allocator@PAX@std@@@std@@QAE@PAU_Node@?$_List_nod@PAXV?$allocator@PAX@std@@@2@@Z
_TEXT	SEGMENT
__Pnode$ = 8						; size = 4
??0iterator@?$list@PAXV?$allocator@PAX@std@@@std@@QAE@PAU_Node@?$_List_nod@PAXV?$allocator@PAX@std@@@2@@Z PROC NEAR ; std::list<void *,std::allocator<void *> >::iterator::iterator, COMDAT
; _this$ = ecx

; 235  : 			{	// construct with node pointer _Pnode

  00000	8b c1		 mov	 eax, ecx
  00002	8b 4c 24 04	 mov	 ecx, DWORD PTR __Pnode$[esp-4]
  00006	89 08		 mov	 DWORD PTR [eax], ecx

; 236  : 			}

  00008	c2 04 00	 ret	 4
??0iterator@?$list@PAXV?$allocator@PAX@std@@@std@@QAE@PAU_Node@?$_List_nod@PAXV?$allocator@PAX@std@@@2@@Z ENDP ; std::list<void *,std::allocator<void *> >::iterator::iterator
_TEXT	ENDS
PUBLIC	?max_size@?$list@PAXV?$allocator@PAX@std@@@std@@QBEIXZ ; std::list<void *,std::allocator<void *> >::max_size
; Function compile flags: /Ogty
;	COMDAT ?max_size@?$list@PAXV?$allocator@PAX@std@@@std@@QBEIXZ
_TEXT	SEGMENT
?max_size@?$list@PAXV?$allocator@PAX@std@@@std@@QBEIXZ PROC NEAR ; std::list<void *,std::allocator<void *> >::max_size, COMDAT
; _this$ = ecx

; 436  : 		return (this->_Alval.max_size());

  00000	b8 ff ff ff 3f	 mov	 eax, 1073741823		; 3fffffffH

; 437  : 		}

  00005	c3		 ret	 0
?max_size@?$list@PAXV?$allocator@PAX@std@@@std@@QBEIXZ ENDP ; std::list<void *,std::allocator<void *> >::max_size
_TEXT	ENDS
PUBLIC	?allocate@?$allocator@U_Node@?$_List_nod@PAXV?$allocator@PAX@std@@@std@@@std@@QAEPAU_Node@?$_List_nod@PAXV?$allocator@PAX@std@@@2@I@Z ; std::allocator<std::_List_nod<void *,std::allocator<void *> >::_Node>::allocate
; Function compile flags: /Ogty
; File c:\program files\microsoft visual studio .net 2003\vc7\include\xmemory
;	COMDAT ?allocate@?$allocator@U_Node@?$_List_nod@PAXV?$allocator@PAX@std@@@std@@@std@@QAEPAU_Node@?$_List_nod@PAXV?$allocator@PAX@std@@@2@I@Z
_TEXT	SEGMENT
__Count$ = 8						; size = 4
?allocate@?$allocator@U_Node@?$_List_nod@PAXV?$allocator@PAX@std@@@std@@@std@@QAEPAU_Node@?$_List_nod@PAXV?$allocator@PAX@std@@@2@I@Z PROC NEAR ; std::allocator<std::_List_nod<void *,std::allocator<void *> >::_Node>::allocate, COMDAT
; _this$ = ecx

; 137  : 		return (_Allocate(_Count, (pointer)0));

  00000	8b 44 24 04	 mov	 eax, DWORD PTR __Count$[esp-4]
  00004	8d 04 40	 lea	 eax, DWORD PTR [eax+eax*2]
  00007	c1 e0 02	 shl	 eax, 2
  0000a	50		 push	 eax
  0000b	e8 00 00 00 00	 call	 ??2@YAPAXI@Z		; operator new
  00010	83 c4 04	 add	 esp, 4

; 138  : 		}

  00013	c2 04 00	 ret	 4
?allocate@?$allocator@U_Node@?$_List_nod@PAXV?$allocator@PAX@std@@@std@@@std@@QAEPAU_Node@?$_List_nod@PAXV?$allocator@PAX@std@@@2@I@Z ENDP ; std::allocator<std::_List_nod<void *,std::allocator<void *> >::_Node>::allocate
_TEXT	ENDS
PUBLIC	?SetItemContainer@?$CItemContainer@VCItemElem@@@@QAEXKKK@Z ; CItemContainer<CItemElem>::SetItemContainer
EXTRN	??_L@YGXPAXIHP6EX0@Z1@Z:NEAR			; `eh vector constructor iterator'
EXTRN	??_U@YAPAXI@Z:NEAR				; operator new[]
;	COMDAT xdata$x
; File c:\documents and settings\test\mes documents\source\virtuos_v17\build\program\_network\objects\obj.h
xdata$x	SEGMENT
$T188324 DD	0ffffffffH
	DD	FLAT:$L188318
$T188320 DD	019930520H
	DD	01H
	DD	FLAT:$T188324
	DD	2 DUP(00H)
	DD	2 DUP(00H)
; Function compile flags: /Ogty
xdata$x	ENDS
;	COMDAT ?SetItemContainer@?$CItemContainer@VCItemElem@@@@QAEXKKK@Z
_TEXT	SEGMENT
__$EHRec$ = -12						; size = 12
_dwItemType$ = 8					; size = 4
$T188314 = 12						; size = 4
_dwItemMax$ = 12					; size = 4
_dwExtra$ = 16						; size = 4
?SetItemContainer@?$CItemContainer@VCItemElem@@@@QAEXKKK@Z PROC NEAR ; CItemContainer<CItemElem>::SetItemContainer, COMDAT
; _this$ = ecx

; 356  : {

  00000	64 a1 00 00 00
	00		 mov	 eax, DWORD PTR fs:__except_list
  00006	6a ff		 push	 -1
  00008	68 00 00 00 00	 push	 __ehhandler$?SetItemContainer@?$CItemContainer@VCItemElem@@@@QAEXKKK@Z
  0000d	50		 push	 eax

; 357  : 	m_dwIndexNum	= dwItemMax;

  0000e	8b 44 24 14	 mov	 eax, DWORD PTR _dwItemMax$[esp+8]
  00012	64 89 25 00 00
	00 00		 mov	 DWORD PTR fs:__except_list, esp
  00019	53		 push	 ebx
  0001a	56		 push	 esi
  0001b	8b f1		 mov	 esi, ecx

; 358  : 	m_dwItemMax		= dwItemMax;
; 359  : 	if( dwExtra != 0xffffffff )

  0001d	8b 4c 24 20	 mov	 ecx, DWORD PTR _dwExtra$[esp+16]
  00021	83 f9 ff	 cmp	 ecx, -1
  00024	57		 push	 edi
  00025	89 46 08	 mov	 DWORD PTR [esi+8], eax
  00028	89 46 10	 mov	 DWORD PTR [esi+16], eax
  0002b	74 05		 je	 SHORT $L186334

; 360  : 		m_dwItemMax		+= dwExtra;

  0002d	03 c1		 add	 eax, ecx
  0002f	89 46 10	 mov	 DWORD PTR [esi+16], eax
$L186334:

; 361  : 
; 362  : 	SAFE_DELETE_ARRAY( m_apItem );

  00032	8b 4e 0c	 mov	 ecx, DWORD PTR [esi+12]
  00035	85 c9		 test	 ecx, ecx
  00037	74 22		 je	 SHORT $L186335
  00039	8b 51 fc	 mov	 edx, DWORD PTR [ecx-4]
  0003c	85 d2		 test	 edx, edx
  0003e	8d 41 fc	 lea	 eax, DWORD PTR [ecx-4]
  00041	74 08		 je	 SHORT $L188307
  00043	8b 01		 mov	 eax, DWORD PTR [ecx]
  00045	6a 03		 push	 3
  00047	ff 10		 call	 DWORD PTR [eax]
  00049	eb 09		 jmp	 SHORT $L188308
$L188307:
  0004b	50		 push	 eax
  0004c	e8 00 00 00 00	 call	 ??_V@YAXPAX@Z		; operator delete[]
  00051	83 c4 04	 add	 esp, 4
$L188308:
  00054	c7 46 0c 00 00
	00 00		 mov	 DWORD PTR [esi+12], 0
$L186335:

; 363  : 	SAFE_DELETE_ARRAY( m_apIndex );

  0005b	8b 46 04	 mov	 eax, DWORD PTR [esi+4]
  0005e	85 c0		 test	 eax, eax
  00060	74 10		 je	 SHORT $L186340
  00062	50		 push	 eax
  00063	e8 00 00 00 00	 call	 ??_V@YAXPAX@Z		; operator delete[]
  00068	83 c4 04	 add	 esp, 4
  0006b	c7 46 04 00 00
	00 00		 mov	 DWORD PTR [esi+4], 0
$L186340:

; 364  : 
; 365  : 	m_apItem	= new T[ m_dwItemMax ];

  00072	8b 7e 10	 mov	 edi, DWORD PTR [esi+16]
  00075	8d 0c bf	 lea	 ecx, DWORD PTR [edi+edi*4]
  00078	c1 e1 05	 shl	 ecx, 5
  0007b	83 c1 04	 add	 ecx, 4
  0007e	51		 push	 ecx
  0007f	e8 00 00 00 00	 call	 ??_U@YAPAXI@Z		; operator new[]
  00084	83 c4 04	 add	 esp, 4
  00087	89 44 24 20	 mov	 DWORD PTR $T188314[esp+20], eax
  0008b	85 c0		 test	 eax, eax
  0008d	c7 44 24 14 00
	00 00 00	 mov	 DWORD PTR __$EHRec$[esp+32], 0
  00095	74 1d		 je	 SHORT $L188315
  00097	68 00 00 00 00	 push	 OFFSET FLAT:??1CItemElem@@UAE@XZ ; CItemElem::~CItemElem
  0009c	68 00 00 00 00	 push	 OFFSET FLAT:??0CItemElem@@QAE@XZ ; CItemElem::CItemElem
  000a1	57		 push	 edi
  000a2	8d 58 04	 lea	 ebx, DWORD PTR [eax+4]
  000a5	68 a0 00 00 00	 push	 160			; 000000a0H
  000aa	53		 push	 ebx
  000ab	89 38		 mov	 DWORD PTR [eax], edi
  000ad	e8 00 00 00 00	 call	 ??_L@YGXPAXIHP6EX0@Z1@Z
  000b2	eb 02		 jmp	 SHORT $L188316
$L188315:
  000b4	33 db		 xor	 ebx, ebx
$L188316:

; 366  : 	m_apIndex	= new DWORD[ m_dwItemMax ];

  000b6	8b 56 10	 mov	 edx, DWORD PTR [esi+16]
  000b9	c1 e2 02	 shl	 edx, 2
  000bc	52		 push	 edx
  000bd	c7 44 24 18 ff
	ff ff ff	 mov	 DWORD PTR __$EHRec$[esp+36], -1
  000c5	89 5e 0c	 mov	 DWORD PTR [esi+12], ebx
  000c8	e8 00 00 00 00	 call	 ??_U@YAPAXI@Z		; operator new[]

; 367  : 	for( u_long i = 0; i < m_dwItemMax; i++ )

  000cd	8b 4e 10	 mov	 ecx, DWORD PTR [esi+16]
  000d0	89 46 04	 mov	 DWORD PTR [esi+4], eax
  000d3	83 c4 04	 add	 esp, 4
  000d6	33 c0		 xor	 eax, eax
  000d8	85 c9		 test	 ecx, ecx
  000da	76 37		 jbe	 SHORT $L186355

; 364  : 
; 365  : 	m_apItem	= new T[ m_dwItemMax ];

  000dc	33 c9		 xor	 ecx, ecx
  000de	8b ff		 npad	 2
$L186353:

; 368  : 	{
; 369  : 		m_apItem[i].m_dwObjId = i;

  000e0	8b 56 0c	 mov	 edx, DWORD PTR [esi+12]
  000e3	89 44 0a 04	 mov	 DWORD PTR [edx+ecx+4], eax

; 370  : 		if( i < m_dwIndexNum )

  000e7	3b 46 08	 cmp	 eax, DWORD PTR [esi+8]
  000ea	73 0f		 jae	 SHORT $L186356

; 371  : 		{
; 372  : 			m_apItem[i].m_dwObjIndex	= i;

  000ec	8b 56 0c	 mov	 edx, DWORD PTR [esi+12]
  000ef	89 44 0a 2c	 mov	 DWORD PTR [edx+ecx+44], eax

; 373  : 			m_apIndex[i]	= i;

  000f3	8b 56 04	 mov	 edx, DWORD PTR [esi+4]
  000f6	89 04 82	 mov	 DWORD PTR [edx+eax*4], eax

; 374  : 		}
; 375  : 		else 

  000f9	eb 0a		 jmp	 SHORT $L186354
$L186356:

; 376  : 			m_apIndex[i]	= NULL_ID;

  000fb	8b 56 04	 mov	 edx, DWORD PTR [esi+4]
  000fe	c7 04 82 ff ff
	ff ff		 mov	 DWORD PTR [edx+eax*4], -1
$L186354:
  00105	8b 56 10	 mov	 edx, DWORD PTR [esi+16]
  00108	40		 inc	 eax
  00109	81 c1 a0 00 00
	00		 add	 ecx, 160		; 000000a0H
  0010f	3b c2		 cmp	 eax, edx
  00111	72 cd		 jb	 SHORT $L186353
$L186355:

; 377  : 	}
; 378  : }

  00113	8b 4c 24 0c	 mov	 ecx, DWORD PTR __$EHRec$[esp+24]
  00117	5f		 pop	 edi
  00118	5e		 pop	 esi
  00119	64 89 0d 00 00
	00 00		 mov	 DWORD PTR fs:__except_list, ecx
  00120	5b		 pop	 ebx
  00121	83 c4 0c	 add	 esp, 12			; 0000000cH
  00124	c2 0c 00	 ret	 12			; 0000000cH
_TEXT	ENDS
;	COMDAT text$x
text$x	SEGMENT
$L188318:
  00000	8b 45 08	 mov	 eax, DWORD PTR $T188314[ebp-4]
  00003	50		 push	 eax
  00004	e8 00 00 00 00	 call	 ??_V@YAXPAX@Z		; operator delete[]
  00009	59		 pop	 ecx
  0000a	c3		 ret	 0
__ehhandler$?SetItemContainer@?$CItemContainer@VCItemElem@@@@QAEXKKK@Z:
  0000b	b8 00 00 00 00	 mov	 eax, OFFSET FLAT:$T188320
  00010	e9 00 00 00 00	 jmp	 ___CxxFrameHandler
text$x	ENDS
?SetItemContainer@?$CItemContainer@VCItemElem@@@@QAEXKKK@Z ENDP ; CItemContainer<CItemElem>::SetItemContainer
; Function compile flags: /Ogty
;	COMDAT ??_ECItemElem@@UAEPAXI@Z
_TEXT	SEGMENT
___flags$ = 8						; size = 4
??_ECItemElem@@UAEPAXI@Z PROC NEAR			; CItemElem::`vector deleting destructor', COMDAT
; _this$ = ecx
  00000	53		 push	 ebx
  00001	8a 5c 24 08	 mov	 bl, BYTE PTR ___flags$[esp]
  00005	f6 c3 02	 test	 bl, 2
  00008	56		 push	 esi
  00009	8b f1		 mov	 esi, ecx
  0000b	74 2e		 je	 SHORT $L186693
  0000d	8b 46 fc	 mov	 eax, DWORD PTR [esi-4]
  00010	57		 push	 edi
  00011	68 00 00 00 00	 push	 OFFSET FLAT:??1CItemElem@@UAE@XZ ; CItemElem::~CItemElem
  00016	8d 7e fc	 lea	 edi, DWORD PTR [esi-4]
  00019	50		 push	 eax
  0001a	68 a0 00 00 00	 push	 160			; 000000a0H
  0001f	56		 push	 esi
  00020	e8 00 00 00 00	 call	 ??_M@YGXPAXIHP6EX0@Z@Z
  00025	f6 c3 01	 test	 bl, 1
  00028	74 09		 je	 SHORT $L186694
  0002a	57		 push	 edi
  0002b	e8 00 00 00 00	 call	 ??_V@YAXPAX@Z		; operator delete[]
  00030	83 c4 04	 add	 esp, 4
$L186694:
  00033	8b c7		 mov	 eax, edi
  00035	5f		 pop	 edi
  00036	5e		 pop	 esi
  00037	5b		 pop	 ebx
  00038	c2 04 00	 ret	 4
$L186693:
  0003b	8b ce		 mov	 ecx, esi
  0003d	e8 00 00 00 00	 call	 ??1CItemElem@@UAE@XZ	; CItemElem::~CItemElem
  00042	f6 c3 01	 test	 bl, 1
  00045	74 09		 je	 SHORT $L186696
  00047	56		 push	 esi
  00048	e8 00 00 00 00	 call	 ??3@YAXPAX@Z		; operator delete
  0004d	83 c4 04	 add	 esp, 4
$L186696:
  00050	8b c6		 mov	 eax, esi
  00052	5e		 pop	 esi
  00053	5b		 pop	 ebx
  00054	c2 04 00	 ret	 4
??_ECItemElem@@UAEPAXI@Z ENDP				; CItemElem::`vector deleting destructor'
; Function compile flags: /Ogty
_TEXT	ENDS
;	COMDAT ??_GCItem@@UAEPAXI@Z
_TEXT	SEGMENT
___flags$ = 8						; size = 4
??_GCItem@@UAEPAXI@Z PROC NEAR				; CItem::`scalar deleting destructor', COMDAT
; _this$ = ecx
  00000	56		 push	 esi
  00001	8b f1		 mov	 esi, ecx
  00003	e8 00 00 00 00	 call	 ??1CItem@@UAE@XZ	; CItem::~CItem
  00008	f6 44 24 08 01	 test	 BYTE PTR ___flags$[esp], 1
  0000d	74 09		 je	 SHORT $L188331
  0000f	56		 push	 esi
  00010	e8 00 00 00 00	 call	 ??3@YAXPAX@Z		; operator delete
  00015	83 c4 04	 add	 esp, 4
$L188331:
  00018	8b c6		 mov	 eax, esi
  0001a	5e		 pop	 esi
  0001b	c2 04 00	 ret	 4
??_GCItem@@UAEPAXI@Z ENDP				; CItem::`scalar deleting destructor'
_TEXT	ENDS
PUBLIC	??0CMover@@QAE@XZ				; CMover::CMover
EXTRN	??0CPocketController@@QAE@XZ:NEAR		; CPocketController::CPocketController
EXTRN	??0CBuffMgr@@QAE@PAVCMover@@@Z:NEAR		; CBuffMgr::CBuffMgr
EXTRN	??0CUserTaskBar@@QAE@XZ:NEAR			; CUserTaskBar::CUserTaskBar
EXTRN	??0CRTMessenger@@QAE@XZ:NEAR			; CRTMessenger::CRTMessenger
;	COMDAT xdata$x
xdata$x	SEGMENT
$T188398 DD	0ffffffffH
	DD	FLAT:$L188343
	DD	00H
	DD	FLAT:$L188344
	DD	01H
	DD	FLAT:$L188345
	DD	02H
	DD	FLAT:$L188346
	DD	03H
	DD	FLAT:$L188347
	DD	04H
	DD	FLAT:$L188348
	DD	05H
	DD	FLAT:$L188349
	DD	06H
	DD	FLAT:$L188350
	DD	07H
	DD	FLAT:$L188351
$T188392 DD	019930520H
	DD	09H
	DD	FLAT:$T188398
	DD	2 DUP(00H)
	DD	2 DUP(00H)
; Function compile flags: /Ogty
; File c:\documents and settings\test\mes documents\source\virtuos_v17\build\program\_network\objects\obj.cpp
xdata$x	ENDS
;	COMDAT ??0CMover@@QAE@XZ
_TEXT	SEGMENT
tv301 = -32						; size = 4
_this$ = -28						; size = 4
$T188335 = -24						; size = 12
$T188334 = -24						; size = 12
__$EHRec$ = -12						; size = 12
??0CMover@@QAE@XZ PROC NEAR				; CMover::CMover, COMDAT
; _this$ = ecx

; 108  : {

  00000	6a ff		 push	 -1
  00002	68 00 00 00 00	 push	 __ehhandler$??0CMover@@QAE@XZ
  00007	64 a1 00 00 00
	00		 mov	 eax, DWORD PTR fs:__except_list
  0000d	50		 push	 eax
  0000e	64 89 25 00 00
	00 00		 mov	 DWORD PTR fs:__except_list, esp
  00015	83 ec 14	 sub	 esp, 20			; 00000014H
  00018	53		 push	 ebx
  00019	55		 push	 ebp
  0001a	56		 push	 esi
  0001b	8b f1		 mov	 esi, ecx
  0001d	57		 push	 edi
  0001e	89 74 24 14	 mov	 DWORD PTR _this$[esp+48], esi
  00022	e8 00 00 00 00	 call	 ??0CObj@@QAE@XZ		; CObj::CObj
  00027	c7 46 04 02 00
	00 00		 mov	 DWORD PTR [esi+4], 2
  0002e	c7 46 30 ff ff
	ff ff		 mov	 DWORD PTR [esi+48], -1
  00035	33 db		 xor	 ebx, ebx
  00037	8d 8e e8 02 00
	00		 lea	 ecx, DWORD PTR [esi+744]
  0003d	89 5c 24 2c	 mov	 DWORD PTR __$EHRec$[esp+56], ebx
  00041	c7 06 00 00 00
	00		 mov	 DWORD PTR [esi], OFFSET FLAT:??_7CMover@@6B@
  00047	e8 00 00 00 00	 call	 ??0CUserTaskBar@@QAE@XZ	; CUserTaskBar::CUserTaskBar
  0004c	8d 8e b4 40 00
	00		 lea	 ecx, DWORD PTR [esi+16564]
  00052	c6 44 24 2c 01	 mov	 BYTE PTR __$EHRec$[esp+56], 1
  00057	e8 00 00 00 00	 call	 ??0CRTMessenger@@QAE@XZ	; CRTMessenger::CRTMessenger
  0005c	8d ae 14 41 00
	00		 lea	 ebp, DWORD PTR [esi+16660]
  00062	c7 45 00 00 00
	00 00		 mov	 DWORD PTR [ebp], OFFSET FLAT:??_7?$CItemContainer@VCItemElem@@@@6B@
  00069	89 5d 0c	 mov	 DWORD PTR [ebp+12], ebx
  0006c	89 5d 04	 mov	 DWORD PTR [ebp+4], ebx
  0006f	68 00 00 00 00	 push	 OFFSET FLAT:??1?$CItemContainer@VCItemElem@@@@UAE@XZ ; CItemContainer<CItemElem>::~CItemContainer<CItemElem>
  00074	68 00 00 00 00	 push	 OFFSET FLAT:??0?$CItemContainer@VCItemElem@@@@QAE@XZ ; CItemContainer<CItemElem>::CItemContainer<CItemElem>
  00079	6a 04		 push	 4
  0007b	6a 14		 push	 20			; 00000014H
  0007d	8d 86 28 41 00
	00		 lea	 eax, DWORD PTR [esi+16680]
  00083	50		 push	 eax
  00084	c6 44 24 40 03	 mov	 BYTE PTR __$EHRec$[esp+76], 3
  00089	e8 00 00 00 00	 call	 ??_L@YGXPAXIHP6EX0@Z1@Z
  0008e	8d 8e 78 41 00
	00		 lea	 ecx, DWORD PTR [esi+16760]
  00094	c6 44 24 2c 04	 mov	 BYTE PTR __$EHRec$[esp+56], 4
  00099	e8 00 00 00 00	 call	 ??0CPocketController@@QAE@XZ ; CPocketController::CPocketController
  0009e	68 00 00 00 00	 push	 OFFSET FLAT:??1?$CItemContainer@VCItemElem@@@@UAE@XZ ; CItemContainer<CItemElem>::~CItemContainer<CItemElem>
  000a3	68 00 00 00 00	 push	 OFFSET FLAT:??0?$CItemContainer@VCItemElem@@@@QAE@XZ ; CItemContainer<CItemElem>::CItemContainer<CItemElem>
  000a8	6a 03		 push	 3
  000aa	8d 86 94 41 00
	00		 lea	 eax, DWORD PTR [esi+16788]
  000b0	6a 14		 push	 20			; 00000014H
  000b2	50		 push	 eax
  000b3	c6 44 24 40 05	 mov	 BYTE PTR __$EHRec$[esp+76], 5
  000b8	e8 00 00 00 00	 call	 ??_L@YGXPAXIHP6EX0@Z1@Z
  000bd	8d 8e fc 41 00
	00		 lea	 ecx, DWORD PTR [esi+16892]
  000c3	51		 push	 ecx
  000c4	c7 86 f8 41 00
	00 00 00 00 00	 mov	 DWORD PTR [esi+16888], OFFSET FLAT:??_7CMclCritSec@@6B@
  000ce	ff 15 00 00 00
	00		 call	 DWORD PTR __imp__InitializeCriticalSection@4
  000d4	56		 push	 esi
  000d5	8d 8e 10 45 00
	00		 lea	 ecx, DWORD PTR [esi+17680]
  000db	c6 44 24 30 07	 mov	 BYTE PTR __$EHRec$[esp+60], 7
  000e0	e8 00 00 00 00	 call	 ??0CBuffMgr@@QAE@PAVCMover@@@Z ; CBuffMgr::CBuffMgr

; 109  : 	memset( m_aJobSkill, 0, sizeof(SKILL) * MAX_SKILL_JOB );

  000e5	33 c0		 xor	 eax, eax

; 110  : 	m_dwBelligerence	= 0;
; 111  : #ifdef __JEFF_9_20
; 112  : 	m_dwMute	= 0;
; 113  : #else	// __JEFF_9_20
; 114  : 	m_dwFlyTime	= 0;
; 115  : #endif	// __JEFF_9_20
; 116  : 	m_dwReturnWorldID	= 0;
; 117  : 	m_idGuildCloak	= 0;
; 118  : 	memset( m_szName, 0, sizeof(m_szName) );

  000e7	33 d2		 xor	 edx, edx
  000e9	b9 66 00 00 00	 mov	 ecx, 102		; 00000066H
  000ee	8d be 00 01 00
	00		 lea	 edi, DWORD PTR [esi+256]
  000f4	f3 ab		 rep stosd
  000f6	89 5e 5c	 mov	 DWORD PTR [esi+92], ebx
  000f9	89 9e f0 41 00
	00		 mov	 DWORD PTR [esi+16880], ebx
  000ff	89 9e e8 41 00
	00		 mov	 DWORD PTR [esi+16872], ebx
  00105	89 9e d0 00 00
	00		 mov	 DWORD PTR [esi+208], ebx
  0010b	8d 46 6c	 lea	 eax, DWORD PTR [esi+108]
  0010e	89 10		 mov	 DWORD PTR [eax], edx
  00110	89 50 04	 mov	 DWORD PTR [eax+4], edx
  00113	89 50 08	 mov	 DWORD PTR [eax+8], edx
  00116	89 50 0c	 mov	 DWORD PTR [eax+12], edx
  00119	89 50 10	 mov	 DWORD PTR [eax+16], edx
  0011c	89 50 14	 mov	 DWORD PTR [eax+20], edx
  0011f	89 50 18	 mov	 DWORD PTR [eax+24], edx

; 119  : 	m_vMarkingPos	= D3DXVECTOR3( 0, 0, 0 );

  00122	8d 8e d0 02 00
	00		 lea	 ecx, DWORD PTR [esi+720]
  00128	89 50 1c	 mov	 DWORD PTR [eax+28], edx
  0012b	c6 44 24 2c 08	 mov	 BYTE PTR __$EHRec$[esp+56], 8
  00130	89 54 24 18	 mov	 DWORD PTR $T188334[esp+48], edx
  00134	89 54 24 1c	 mov	 DWORD PTR $T188334[esp+52], edx
  00138	89 54 24 20	 mov	 DWORD PTR $T188334[esp+56], edx
  0013c	89 11		 mov	 DWORD PTR [ecx], edx
  0013e	8b c2		 mov	 eax, edx
  00140	89 41 04	 mov	 DWORD PTR [ecx+4], eax
  00143	89 51 08	 mov	 DWORD PTR [ecx+8], edx

; 120  : 	m_vReturnPos	= D3DXVECTOR3( 0, 0, 0 );

  00146	8b ca		 mov	 ecx, edx
  00148	8d 86 dc 41 00
	00		 lea	 eax, DWORD PTR [esi+16860]
  0014e	89 08		 mov	 DWORD PTR [eax], ecx
  00150	89 50 04	 mov	 DWORD PTR [eax+4], edx
  00153	89 48 08	 mov	 DWORD PTR [eax+8], ecx

; 121  : 	m_dwType		= OT_MOVER;

  00156	c7 46 04 05 00
	00 00		 mov	 DWORD PTR [esi+4], 5

; 122  : 	m_bPlayer	= FALSE;

  0015d	89 9e 8c 00 00
	00		 mov	 DWORD PTR [esi+140], ebx

; 123  : 	m_idPlayer	= (u_long)0xffffffff;

  00163	c7 86 90 00 00
	00 ff ff ff ff	 mov	 DWORD PTR [esi+144], -1
  0016d	89 54 24 18	 mov	 DWORD PTR $T188335[esp+48], edx
  00171	89 54 24 1c	 mov	 DWORD PTR $T188335[esp+52], edx
  00175	89 54 24 20	 mov	 DWORD PTR $T188335[esp+56], edx

; 124  : //	memset( m_szName, 0, sizeof(m_szName) );
; 125  : 	memset( m_szCharacterKey, 0, sizeof(m_szCharacterKey ) );

  00179	8d 46 38	 lea	 eax, DWORD PTR [esi+56]
  0017c	89 10		 mov	 DWORD PTR [eax], edx
  0017e	89 50 04	 mov	 DWORD PTR [eax+4], edx
  00181	89 50 08	 mov	 DWORD PTR [eax+8], edx
  00184	89 50 0c	 mov	 DWORD PTR [eax+12], edx
  00187	89 50 10	 mov	 DWORD PTR [eax+16], edx
  0018a	89 50 14	 mov	 DWORD PTR [eax+20], edx
  0018d	89 50 18	 mov	 DWORD PTR [eax+24], edx
  00190	89 50 1c	 mov	 DWORD PTR [eax+28], edx

; 126  : 	m_nHitPoint		= m_nManaPoint	= m_nFatiguePoint	= 0;
; 127  : 	m_pActMover		= new CActionMover( this );

  00193	6a 0c		 push	 12			; 0000000cH
  00195	89 9e 9c 00 00
	00		 mov	 DWORD PTR [esi+156], ebx
  0019b	89 9e 98 00 00
	00		 mov	 DWORD PTR [esi+152], ebx
  001a1	89 9e 94 00 00
	00		 mov	 DWORD PTR [esi+148], ebx
  001a7	e8 00 00 00 00	 call	 ??2@YAPAXI@Z		; operator new
  001ac	83 c4 04	 add	 esp, 4
  001af	3b c3		 cmp	 eax, ebx
  001b1	74 0e		 je	 SHORT $L188338
  001b3	89 58 04	 mov	 DWORD PTR [eax+4], ebx
  001b6	89 58 08	 mov	 DWORD PTR [eax+8], ebx
  001b9	c7 00 00 00 00
	00		 mov	 DWORD PTR [eax], OFFSET FLAT:??_7CActionMover@@6B@
  001bf	eb 02		 jmp	 SHORT $L188339
$L188338:
  001c1	33 c0		 xor	 eax, eax
$L188339:

; 128  : 	m_Inventory.SetItemContainer( ITYPE_ITEM, MAX_INVENTORY, MAX_HUMAN_PARTS );

  001c3	6a 1f		 push	 31			; 0000001fH
  001c5	6a 2a		 push	 42			; 0000002aH
  001c7	53		 push	 ebx
  001c8	8b cd		 mov	 ecx, ebp
  001ca	89 86 10 41 00
	00		 mov	 DWORD PTR [esi+16656], eax
  001d0	e8 00 00 00 00	 call	 ?SetItemContainer@?$CItemContainer@VCItemElem@@@@QAEXKKK@Z ; CItemContainer<CItemElem>::SetItemContainer

; 129  : 
; 130  : 	m_nSlot = 0;

  001d5	88 9e c8 00 00
	00		 mov	 BYTE PTR [esi+200], bl
  001db	8d be 88 41 00
	00		 lea	 edi, DWORD PTR [esi+16776]
  001e1	8d ae 94 41 00
	00		 lea	 ebp, DWORD PTR [esi+16788]
  001e7	c7 44 24 10 03
	00 00 00	 mov	 DWORD PTR tv301[esp+48], 3
  001ef	90		 npad	 1
$L186801:

; 131  : 	for( int i = 0 ; i < 3 ; ++i )
; 132  : 	{
; 133  : 		m_Bank[i].SetItemContainer( ITYPE_ITEM, MAX_BANK ) ;

  001f0	6a ff		 push	 -1
  001f2	6a 2a		 push	 42			; 0000002aH
  001f4	53		 push	 ebx
  001f5	8b cd		 mov	 ecx, ebp
  001f7	e8 00 00 00 00	 call	 ?SetItemContainer@?$CItemContainer@VCItemElem@@@@QAEXKKK@Z ; CItemContainer<CItemElem>::SetItemContainer
  001fc	8b 44 24 10	 mov	 eax, DWORD PTR tv301[esp+48]

; 134  : 		m_dwGoldBank[i] = 0;

  00200	89 5f 48	 mov	 DWORD PTR [edi+72], ebx

; 135  : 		m_idPlayerBank[i] = 0;

  00203	89 1f		 mov	 DWORD PTR [edi], ebx
  00205	83 c7 04	 add	 edi, 4
  00208	83 c5 14	 add	 ebp, 20			; 00000014H
  0020b	48		 dec	 eax
  0020c	89 44 24 10	 mov	 DWORD PTR tv301[esp+48], eax
  00210	75 de		 jne	 SHORT $L186801

; 136  : 	}
; 137  : 	m_nPlusMaxHitPoint = 0;
; 138  : 	m_nAttackResistLeft = (BYTE)0xff;

  00212	b0 ff		 mov	 al, 255			; 000000ffH
  00214	88 86 0c 45 00
	00		 mov	 BYTE PTR [esi+17676], al

; 139  : 	m_nAttackResistRight = (BYTE)0xff;

  0021a	88 86 0d 45 00
	00		 mov	 BYTE PTR [esi+17677], al

; 140  : 	m_nDefenseResist = (BYTE)0xff;

  00220	88 86 0e 45 00
	00		 mov	 BYTE PTR [esi+17678], al

; 141  : 	memset( m_dwSMTime, 0, sizeof( DWORD ) * SM_MAX );

  00226	33 c0		 xor	 eax, eax
  00228	89 9e a0 44 00
	00		 mov	 DWORD PTR [esi+17568], ebx
  0022e	b9 1a 00 00 00	 mov	 ecx, 26			; 0000001aH
  00233	8d be a4 44 00
	00		 lea	 edi, DWORD PTR [esi+17572]
  00239	f3 ab		 rep stosd

; 142  : #ifndef __BUFF_1107
; 143  : 	m_SkillState.Init();
; 144  : 	m_SkillState.SetMover( this );
; 145  : #endif	// __BUFF_1107
; 146  : 	ClearEquipInfo();

  0023b	8d 96 24 45 00
	00		 lea	 edx, DWORD PTR [esi+17700]
  00241	b9 5d 00 00 00	 mov	 ecx, 93			; 0000005dH
  00246	8b fa		 mov	 edi, edx
  00248	f3 ab		 rep stosd
  0024a	8b c2		 mov	 eax, edx
  0024c	b9 1f 00 00 00	 mov	 ecx, 31			; 0000001fH
$L188387:
  00251	c7 00 ff ff ff
	ff		 mov	 DWORD PTR [eax], -1
  00257	83 c0 0c	 add	 eax, 12			; 0000000cH
  0025a	49		 dec	 ecx
  0025b	75 f4		 jne	 SHORT $L188387

; 147  : 	m_dwSkinSet	= 0;//SKINSET_00;
; 148  : 	m_dwHairMesh	= 0;//HAIRMESH_00;
; 149  : 	m_dwHairColor	= 0xffffffff;
; 150  : 	m_dwHeadMesh	= 0;
; 151  : #if __VER >= 12 // __MOD_TUTORIAL
; 152  : 	m_nTutorialState	= 0;
; 153  : #else	// __MOD_TUTORIAL
; 154  : 	m_nFlightLv		= 0;
; 155  : #endif	// __MOD_TUTORIAL
; 156  : 	m_nFxp			= 0;
; 157  : //	m_nTxp			= 0;
; 158  : 	m_bySex		= SEX_FEMALE;
; 159  : 	m_dwRideItemIdx		= 0;
; 160  : 
; 161  :   	m_dwGold	= 0;
; 162  : 
; 163  : 	m_nJob	= -1;
; 164  : 	
; 165  : 	m_nStr	= m_nSta	= m_nDex	= m_nInt	= 15;

  0025d	b8 0f 00 00 00	 mov	 eax, 15			; 0000000fH
  00262	83 cd ff	 or	 ebp, -1

; 166  : 	m_nLevel	= 1;
; 167  : 	m_nExp1	= m_nDeathExp	= 0;
; 168  : 	m_nDeathLevel = 0;
; 169  : 
; 170  : 	m_idMarkingWorld	= NULL_ID;
; 171  : 
; 172  : 	m_dwAuthorization	= AUTH_GENERAL;
; 173  : 	m_dwMode	= 0;
; 174  : 	m_dwStateMode = 0;
; 175  : 	m_dwUseItemId = 0;
; 176  : 	m_nRemainGP	= 0;
; 177  : 
; 178  : 	m_aQuest = new QUEST[ MAX_QUEST ]; 

  00265	68 b0 04 00 00	 push	 1200			; 000004b0H
  0026a	89 9e a0 00 00
	00		 mov	 DWORD PTR [esi+160], ebx
  00270	89 9e a4 00 00
	00		 mov	 DWORD PTR [esi+164], ebx
  00276	89 ae a8 00 00
	00		 mov	 DWORD PTR [esi+168], ebp
  0027c	89 9e ac 00 00
	00		 mov	 DWORD PTR [esi+172], ebx
  00282	89 9e b0 00 00
	00		 mov	 DWORD PTR [esi+176], ebx
  00288	89 9e b4 00 00
	00		 mov	 DWORD PTR [esi+180], ebx
  0028e	c6 86 b8 00 00
	00 01		 mov	 BYTE PTR [esi+184], 1
  00295	89 9e bc 00 00
	00		 mov	 DWORD PTR [esi+188], ebx
  0029b	89 5e 34	 mov	 DWORD PTR [esi+52], ebx
  0029e	89 ae c4 00 00
	00		 mov	 DWORD PTR [esi+196], ebp
  002a4	89 86 e0 00 00
	00		 mov	 DWORD PTR [esi+224], eax
  002aa	89 86 dc 00 00
	00		 mov	 DWORD PTR [esi+220], eax
  002b0	89 86 d8 00 00
	00		 mov	 DWORD PTR [esi+216], eax
  002b6	89 86 d4 00 00
	00		 mov	 DWORD PTR [esi+212], eax
  002bc	c7 86 e4 00 00
	00 01 00 00 00	 mov	 DWORD PTR [esi+228], 1
  002c6	89 9e f8 00 00
	00		 mov	 DWORD PTR [esi+248], ebx
  002cc	89 9e fc 00 00
	00		 mov	 DWORD PTR [esi+252], ebx
  002d2	89 9e f0 00 00
	00		 mov	 DWORD PTR [esi+240], ebx
  002d8	89 9e f4 00 00
	00		 mov	 DWORD PTR [esi+244], ebx
  002de	89 9e e8 00 00
	00		 mov	 DWORD PTR [esi+232], ebx
  002e4	89 ae cc 02 00
	00		 mov	 DWORD PTR [esi+716], ebp
  002ea	c7 86 e0 02 00
	00 46 00 00 00	 mov	 DWORD PTR [esi+736], 70	; 00000046H
  002f4	89 9e e4 02 00
	00		 mov	 DWORD PTR [esi+740], ebx
  002fa	89 9e 98 46 00
	00		 mov	 DWORD PTR [esi+18072], ebx
  00300	89 9e 9c 46 00
	00		 mov	 DWORD PTR [esi+18076], ebx
  00306	89 9e dc 02 00
	00		 mov	 DWORD PTR [esi+732], ebx
  0030c	e8 00 00 00 00	 call	 ??_U@YAPAXI@Z		; operator new[]

; 179  : 	m_aCompleteQuest = new WORD[ MAX_COMPLETE_QUEST ];

  00311	68 58 02 00 00	 push	 600			; 00000258H
  00316	89 86 a0 46 00
	00		 mov	 DWORD PTR [esi+18080], eax
  0031c	e8 00 00 00 00	 call	 ??_U@YAPAXI@Z		; operator new[]

; 180  : 	m_nQuestSize = 0;
; 181  : 	m_nCompleteQuestSize = 0;
; 182  : 	memset( m_aQuest, 0, sizeof(QUEST) * MAX_QUEST );

  00321	8b be a0 46 00
	00		 mov	 edi, DWORD PTR [esi+18080]
  00327	89 86 a4 46 00
	00		 mov	 DWORD PTR [esi+18084], eax
  0032d	33 c0		 xor	 eax, eax
  0032f	88 9e a8 46 00
	00		 mov	 BYTE PTR [esi+18088], bl
  00335	88 9e a9 46 00
	00		 mov	 BYTE PTR [esi+18089], bl
  0033b	b9 2c 01 00 00	 mov	 ecx, 300		; 0000012cH
  00340	f3 ab		 rep stosd

; 183  : 	memset( m_aCompleteQuest, 0, sizeof(WORD) * MAX_COMPLETE_QUEST );

  00342	8b be a4 46 00
	00		 mov	 edi, DWORD PTR [esi+18084]
  00348	b9 96 00 00 00	 mov	 ecx, 150		; 00000096H

; 184  : #if __VER >= 15 // __IMPROVE_QUEST_INTERFACE
; 185  : 	m_aCheckedQuest = new WORD[ MAX_CHECKED_QUEST ];

  0034d	6a 0a		 push	 10			; 0000000aH
  0034f	f3 ab		 rep stosd
  00351	e8 00 00 00 00	 call	 ??_U@YAPAXI@Z		; operator new[]
  00356	89 86 bc 46 00
	00		 mov	 DWORD PTR [esi+18108], eax

; 186  : 	m_nCheckedQuestSize = 0;

  0035c	88 9e c0 46 00
	00		 mov	 BYTE PTR [esi+18112], bl

; 187  : 	memset( m_aCheckedQuest, 0, sizeof(WORD) * MAX_CHECKED_QUEST );

  00362	33 c9		 xor	 ecx, ecx
  00364	89 08		 mov	 DWORD PTR [eax], ecx
  00366	89 48 04	 mov	 DWORD PTR [eax+4], ecx
  00369	66 89 48 08	 mov	 WORD PTR [eax+8], cx
  0036d	83 c4 0c	 add	 esp, 12			; 0000000cH

; 188  : #endif // __IMPROVE_QUEST_INTERFACE
; 189  : 
; 190  : 	m_idparty = 0;
; 191  : 	m_idGuild	= 0;
; 192  : 	m_idWar	= 0;
; 193  : #if __VER >= 8 // __S8_PK
; 194  : 	m_dwPKTime			= 0;			///   
; 195  : 	m_nPKValue			= 0;			/// PK 
; 196  : 	m_dwPKPropensity	= 0;			/// PK 
; 197  : 	m_dwPKExp			= 0;			/// PK   
; 198  : #else // __VER >= 8 // __S8_PK
; 199  : 	m_nNumKill			= 0;
; 200  : 	m_nSlaughter		= 0;
; 201  : #endif // __VER >= 8 // __S8_PK
; 202  : #if __VER >= 8 //__CSC_VER8_5
; 203  : 	m_nAngelExp			= 0;			///  
; 204  : 	m_nAngelLevel		= 0;			///  Level
; 205  : #endif // __CSC_VER8_5
; 206  : 	m_nFame		= 0;
; 207  : 	m_idMurderer	= 0;
; 208  : #ifdef __DBSERVER
; 209  : 	m_dwWorldID		= 1;
; 210  : #endif // __DBSERVER
; 211  : 	memset( m_szBankPass, 0, sizeof( m_szBankPass ) );

  00370	8d 86 c9 00 00
	00		 lea	 eax, DWORD PTR [esi+201]
  00376	89 9e c8 40 00
	00		 mov	 DWORD PTR [esi+16584], ebx
  0037c	89 9e cc 40 00
	00		 mov	 DWORD PTR [esi+16588], ebx
  00382	89 9e d0 40 00
	00		 mov	 DWORD PTR [esi+16592], ebx
  00388	89 9e d4 40 00
	00		 mov	 DWORD PTR [esi+16596], ebx
  0038e	89 9e d8 40 00
	00		 mov	 DWORD PTR [esi+16600], ebx
  00394	89 9e dc 40 00
	00		 mov	 DWORD PTR [esi+16604], ebx
  0039a	89 9e e0 40 00
	00		 mov	 DWORD PTR [esi+16608], ebx
  003a0	89 9e e8 40 00
	00		 mov	 DWORD PTR [esi+16616], ebx
  003a6	89 9e ec 40 00
	00		 mov	 DWORD PTR [esi+16620], ebx
  003ac	89 9e f0 40 00
	00		 mov	 DWORD PTR [esi+16624], ebx
  003b2	89 9e f4 40 00
	00		 mov	 DWORD PTR [esi+16628], ebx
  003b8	89 9e f8 40 00
	00		 mov	 DWORD PTR [esi+16632], ebx
  003be	c7 86 f4 41 00
	00 01 00 00 00	 mov	 DWORD PTR [esi+16884], 1
  003c8	33 d2		 xor	 edx, edx
  003ca	89 10		 mov	 DWORD PTR [eax], edx
  003cc	88 50 04	 mov	 BYTE PTR [eax+4], dl

; 212  : 
; 213  : 	m_nDuel	= 0;

  003cf	89 9e fc 40 00
	00		 mov	 DWORD PTR [esi+16636], ebx

; 214  : 	m_idDuelParty	= 0;

  003d5	89 9e 00 41 00
	00		 mov	 DWORD PTR [esi+16640], ebx

; 215  : 	m_nFuel		= -1;

  003db	89 ae c0 00 00
	00		 mov	 DWORD PTR [esi+192], ebp

; 216  : 	m_bActiveAttack		= FALSE;

  003e1	89 5e 58	 mov	 DWORD PTR [esi+88], ebx

; 217  : 	m_nMovePattern = m_nMoveEvent = m_nMoveEventCnt = 0;

  003e4	89 5e 68	 mov	 DWORD PTR [esi+104], ebx
  003e7	89 5e 64	 mov	 DWORD PTR [esi+100], ebx
  003ea	89 5e 60	 mov	 DWORD PTR [esi+96], ebx

; 218  : 	m_tmAccFuel = 0;

  003ed	89 9e ec 41 00
	00		 mov	 DWORD PTR [esi+16876], ebx

; 219  : 	m_dwPeriodicTick	= 0;

  003f3	89 9e ac 46 00
	00		 mov	 DWORD PTR [esi+18092], ebx

; 220  : 	m_dwTickCheer	= 0;

  003f9	89 9e b0 46 00
	00		 mov	 DWORD PTR [esi+18096], ebx

; 221  : 	m_nCheerPoint	= 0;

  003ff	89 9e b4 46 00
	00		 mov	 DWORD PTR [esi+18100], ebx

; 222  : 	m_nGuildCombatState = 0;

  00405	89 9e 04 41 00
	00		 mov	 DWORD PTR [esi+16644], ebx

; 223  : 	m_nSkillLevel = 0;

  0040b	89 9e 08 41 00
	00		 mov	 DWORD PTR [esi+16648], ebx

; 224  : 	m_nSkillPoint = 0;

  00411	89 9e 0c 41 00
	00		 mov	 DWORD PTR [esi+16652], ebx

; 225  : 
; 226  : #ifdef __DBSERVER
; 227  : #ifdef __EVENT_1101
; 228  : #ifdef __EVENT_1101_2
; 229  : 	m_nEventFlag = 0;

  00417	89 9e 18 42 00
	00		 mov	 DWORD PTR [esi+16920], ebx
  0041d	89 9e 1c 42 00
	00		 mov	 DWORD PTR [esi+16924], ebx

; 230  : #else // __EVENT_1101_2
; 231  : 	m_dwEventFlag	= 0;
; 232  : #endif // __EVENT_1101_2
; 233  : 	m_dwEventTime	= 0;

  00423	89 9e 20 42 00
	00		 mov	 DWORD PTR [esi+16928], ebx

; 234  : 	m_dwEventElapsed	= 0;

  00429	89 9e 24 42 00
	00		 mov	 DWORD PTR [esi+16932], ebx

; 235  : #endif	// __EVENT_1101
; 236  : #ifdef __INVALID_LOGIN_0612
; 237  : 	m_bLogout	= FALSE;

  0042f	89 9e d4 46 00
	00		 mov	 DWORD PTR [esi+18132], ebx

; 238  : 	*m_szAccount	= '\0';

  00435	88 9e d8 46 00
	00		 mov	 BYTE PTR [esi+18136], bl

; 239  : #endif	// __INVALID_LOGIN_0612
; 240  : #endif	// __DBSERVER
; 241  : 
; 242  : #ifdef __SKILL_0205
; 243  : 	memset( m_abUpdateSkill, 0, sizeof(m_abUpdateSkill)  );		//  ?

  0043b	33 c0		 xor	 eax, eax
  0043d	8d be 98 02 00
	00		 lea	 edi, DWORD PTR [esi+664]
  00443	b9 0c 00 00 00	 mov	 ecx, 12			; 0000000cH
  00448	f3 ab		 rep stosd
  0044a	66 ab		 stosw
  0044c	aa		 stosb

; 244  : #endif	// __SKILL_0205
; 245  : 
; 246  : #if __VER >= 9	// __PET_0410
; 247  : 	m_dwPetId	= NULL_ID;

  0044d	89 ae 30 42 00
	00		 mov	 DWORD PTR [esi+16944], ebp

; 248  : #endif	// __PET_0410
; 249  : #if __VER >= 9	//__AI_0509
; 250  : 	m_fSpeedFactor	= 1.0F;
; 251  : #endif	// __AI_0509
; 252  : 	
; 253  : #ifdef __EXP_ANGELEXP_LOG
; 254  : 	m_nExpLog = 0;

  00453	89 9e 38 42 00
	00		 mov	 DWORD PTR [esi+16952], ebx

; 255  : 	m_nAngelExpLog = 0;

  00459	89 9e 3c 42 00
	00		 mov	 DWORD PTR [esi+16956], ebx

; 256  : #endif // __EXP_ANGELEXP_LOG
; 257  : 
; 258  : #ifdef __EVENTLUA_COUPON
; 259  : 	m_nCoupon = 0;

  0045f	89 9e 40 42 00
	00		 mov	 DWORD PTR [esi+16960], ebx

; 260  : #endif // __EVENTLUA_COUPON
; 261  : 
; 262  : #ifdef __JEFF_9_20
; 263  : 	m_dwMute	= 0;

  00465	89 9e f0 41 00
	00		 mov	 DWORD PTR [esi+16880], ebx

; 264  : #endif	// __JEFF_9_20
; 265  : #if __VER >= 13 // __HONORABLE_TITLE			// 
; 266  : 	m_nHonor = -1;					//  

  0046b	89 ae 44 42 00
	00		 mov	 DWORD PTR [esi+16964], ebp
  00471	c7 86 34 42 00
	00 00 00 80 3f	 mov	 DWORD PTR [esi+16948], 1065353216 ; 3f800000H

; 267  : 	memset( m_aHonorTitle, 0, sizeof( int ) * MAX_HONOR_TITLE );// 

  0047b	33 c0		 xor	 eax, eax
  0047d	8d be 48 42 00
	00		 lea	 edi, DWORD PTR [esi+16968]
  00483	b9 96 00 00 00	 mov	 ecx, 150		; 00000096H
  00488	f3 ab		 rep stosd

; 268  : #endif	// __HONORABLE_TITLE			// 
; 269  : #if __VER >= 14 // __PCBANG
; 270  : 	m_dwPCBangClass = 0;
; 271  : #endif // __PCBANG
; 272  : #if __VER >= 15 // __PETVIS
; 273  : 	m_objIdVisPet = NULL_ID;
; 274  : 	m_dwMoverSfxId = NULL_ID;
; 275  : #endif // __PETVIS
; 276  : #if __VER >= 15 // __CAMPUS
; 277  : 	m_idCampus = 0;
; 278  : 	m_nCampusPoint = 0;
; 279  : #endif // __CAMPUS
; 280  : #if __VER >= 15 // __GUILD_HOUSE
; 281  : 	m_nRestPoint = 0;
; 282  : 	m_tLogOut = 0;
; 283  : #endif // __GUILD_HOUSE
; 284  : }

  0048a	8b 4c 24 24	 mov	 ecx, DWORD PTR __$EHRec$[esp+48]
  0048e	5f		 pop	 edi
  0048f	89 9e b8 46 00
	00		 mov	 DWORD PTR [esi+18104], ebx
  00495	89 ae 28 42 00
	00		 mov	 DWORD PTR [esi+16936], ebp
  0049b	89 ae 2c 42 00
	00		 mov	 DWORD PTR [esi+16940], ebp
  004a1	89 9e c4 46 00
	00		 mov	 DWORD PTR [esi+18116], ebx
  004a7	89 9e c8 46 00
	00		 mov	 DWORD PTR [esi+18120], ebx
  004ad	89 9e cc 46 00
	00		 mov	 DWORD PTR [esi+18124], ebx
  004b3	89 9e d0 46 00
	00		 mov	 DWORD PTR [esi+18128], ebx
  004b9	8b c6		 mov	 eax, esi
  004bb	5e		 pop	 esi
  004bc	5d		 pop	 ebp
  004bd	5b		 pop	 ebx
  004be	64 89 0d 00 00
	00 00		 mov	 DWORD PTR fs:__except_list, ecx
  004c5	83 c4 20	 add	 esp, 32			; 00000020H
  004c8	c3		 ret	 0
_TEXT	ENDS
;	COMDAT text$x
text$x	SEGMENT
$L188343:
  00000	8b 4d e4	 mov	 ecx, DWORD PTR _this$[ebp]
  00003	e9 00 00 00 00	 jmp	 ??1CCtrl@@UAE@XZ	; CCtrl::~CCtrl
$L188344:
  00008	8b 4d e4	 mov	 ecx, DWORD PTR _this$[ebp]
  0000b	81 c1 e8 02 00
	00		 add	 ecx, 744		; 000002e8H
  00011	e9 00 00 00 00	 jmp	 ??1CUserTaskBar@@UAE@XZ	; CUserTaskBar::~CUserTaskBar
$L188345:
  00016	8b 4d e4	 mov	 ecx, DWORD PTR _this$[ebp]
  00019	81 c1 b4 40 00
	00		 add	 ecx, 16564		; 000040b4H
  0001f	e9 00 00 00 00	 jmp	 ??1CRTMessenger@@UAE@XZ	; CRTMessenger::~CRTMessenger
$L188346:
  00024	8b 4d e4	 mov	 ecx, DWORD PTR _this$[ebp]
  00027	81 c1 14 41 00
	00		 add	 ecx, 16660		; 00004114H
  0002d	e9 00 00 00 00	 jmp	 ??1?$CItemContainer@VCItemElem@@@@UAE@XZ ; CItemContainer<CItemElem>::~CItemContainer<CItemElem>
$L188347:
  00032	68 00 00 00 00	 push	 OFFSET FLAT:??1?$CItemContainer@VCItemElem@@@@UAE@XZ ; CItemContainer<CItemElem>::~CItemContainer<CItemElem>
  00037	6a 04		 push	 4
  00039	6a 14		 push	 20			; 00000014H
  0003b	8b 45 e4	 mov	 eax, DWORD PTR _this$[ebp]
  0003e	05 28 41 00 00	 add	 eax, 16680		; 00004128H
  00043	50		 push	 eax
  00044	e8 00 00 00 00	 call	 ??_M@YGXPAXIHP6EX0@Z@Z
  00049	c3		 ret	 0
$L188348:
  0004a	8b 4d e4	 mov	 ecx, DWORD PTR _this$[ebp]
  0004d	81 c1 78 41 00
	00		 add	 ecx, 16760		; 00004178H
  00053	e9 00 00 00 00	 jmp	 ??1CPocketController@@UAE@XZ ; CPocketController::~CPocketController
$L188349:
  00058	68 00 00 00 00	 push	 OFFSET FLAT:??1?$CItemContainer@VCItemElem@@@@UAE@XZ ; CItemContainer<CItemElem>::~CItemContainer<CItemElem>
  0005d	6a 03		 push	 3
  0005f	6a 14		 push	 20			; 00000014H
  00061	8b 45 e4	 mov	 eax, DWORD PTR _this$[ebp]
  00064	05 94 41 00 00	 add	 eax, 16788		; 00004194H
  00069	50		 push	 eax
  0006a	e8 00 00 00 00	 call	 ??_M@YGXPAXIHP6EX0@Z@Z
  0006f	c3		 ret	 0
$L188350:
  00070	8b 4d e4	 mov	 ecx, DWORD PTR _this$[ebp]
  00073	81 c1 f8 41 00
	00		 add	 ecx, 16888		; 000041f8H
  00079	e9 00 00 00 00	 jmp	 ??1CMclCritSec@@UAE@XZ	; CMclCritSec::~CMclCritSec
$L188351:
  0007e	8b 4d e4	 mov	 ecx, DWORD PTR _this$[ebp]
  00081	81 c1 10 45 00
	00		 add	 ecx, 17680		; 00004510H
  00087	e9 00 00 00 00	 jmp	 ??1CBuffMgr@@UAE@XZ	; CBuffMgr::~CBuffMgr
__ehhandler$??0CMover@@QAE@XZ:
  0008c	b8 00 00 00 00	 mov	 eax, OFFSET FLAT:$T188392
  00091	e9 00 00 00 00	 jmp	 ___CxxFrameHandler
text$x	ENDS
??0CMover@@QAE@XZ ENDP					; CMover::CMover
PUBLIC	?Free@?$MemPooler@VCMover@@@@QAEHPAVCMover@@@Z	; MemPooler<CMover>::Free
; Function compile flags: /Ogty
;	COMDAT ??_GCMover@@UAEPAXI@Z
_TEXT	SEGMENT
___flags$ = 8						; size = 4
??_GCMover@@UAEPAXI@Z PROC NEAR				; CMover::`scalar deleting destructor', COMDAT
; _this$ = ecx
  00000	56		 push	 esi
  00001	8b f1		 mov	 esi, ecx
  00003	e8 00 00 00 00	 call	 ??1CMover@@UAE@XZ	; CMover::~CMover
  00008	f6 44 24 08 01	 test	 BYTE PTR ___flags$[esp], 1
  0000d	74 0c		 je	 SHORT $L188407
  0000f	8b 0d 00 00 00
	00		 mov	 ecx, DWORD PTR ?m_pPool@CMover@@2PAV?$MemPooler@VCMover@@@@A ; CMover::m_pPool
  00015	56		 push	 esi
  00016	e8 00 00 00 00	 call	 ?Free@?$MemPooler@VCMover@@@@QAEHPAVCMover@@@Z ; MemPooler<CMover>::Free
$L188407:
  0001b	8b c6		 mov	 eax, esi
  0001d	5e		 pop	 esi
  0001e	c2 04 00	 ret	 4
??_GCMover@@UAEPAXI@Z ENDP				; CMover::`scalar deleting destructor'
_TEXT	ENDS
EXTRN	__imp__EnterCriticalSection@4:NEAR
EXTRN	__imp__LeaveCriticalSection@4:NEAR
; Function compile flags: /Ogty
; File c:\documents and settings\test\mes documents\source\virtuos_v17\build\program\_network\misc\include\mempooler.h
;	COMDAT ?Free@?$MemPooler@VCMover@@@@QAEHPAVCMover@@@Z
_TEXT	SEGMENT
_lpMem$ = 8						; size = 4
?Free@?$MemPooler@VCMover@@@@QAEHPAVCMover@@@Z PROC NEAR ; MemPooler<CMover>::Free, COMDAT
; _this$ = ecx

; 80   : 		{

  00000	53		 push	 ebx
  00001	56		 push	 esi
  00002	8b f1		 mov	 esi, ecx
  00004	57		 push	 edi

; 81   : #ifdef __VERIFY_MEMPOOL
; 82   : 			::operator delete(lpMem);
; 83   : 			return TRUE;
; 84   : #endif
; 85   : 
; 86   : 			BlockNode* pNode	= NULL;
; 87   : 
; 88   : 			EnterCriticalSection( &m_cs );

  00005	8d 5e 1c	 lea	 ebx, DWORD PTR [esi+28]
  00008	53		 push	 ebx
  00009	ff 15 00 00 00
	00		 call	 DWORD PTR __imp__EnterCriticalSection@4

; 89   : 
; 90   : 			pNode	= ( reinterpret_cast<BlockNode*>( lpMem ) ) - 1;
; 91   : 			if( m_nAllocCount > 0 )

  0000f	8b 4e 18	 mov	 ecx, DWORD PTR [esi+24]
  00012	85 c9		 test	 ecx, ecx
  00014	8b 7c 24 10	 mov	 edi, DWORD PTR _lpMem$[esp+8]
  00018	8d 47 fc	 lea	 eax, DWORD PTR [edi-4]
  0001b	7e 09		 jle	 SHORT $L184103

; 92   : 			{
; 93   : 				pNode->pNext	= m_pFreeList;

  0001d	8b 0e		 mov	 ecx, DWORD PTR [esi]
  0001f	89 08		 mov	 DWORD PTR [eax], ecx

; 94   : 				m_pFreeList		= pNode;

  00021	89 06		 mov	 DWORD PTR [esi], eax

; 95   : 				m_nAllocCount--;

  00023	ff 4e 18	 dec	 DWORD PTR [esi+24]
$L184103:

; 96   : 			}
; 97   : 
; 98   : 			//	mulcom	BEGIN100422	 
; 99   : 			::memset( lpMem, 0, sizeof(T) );

  00026	33 c0		 xor	 eax, eax
  00028	b9 c2 11 00 00	 mov	 ecx, 4546		; 000011c2H

; 100  : 			//	mulcom	END100422	 
; 101  : 
; 102  : 			LeaveCriticalSection( &m_cs );

  0002d	53		 push	 ebx
  0002e	f3 ab		 rep stosd
  00030	ff 15 00 00 00
	00		 call	 DWORD PTR __imp__LeaveCriticalSection@4
  00036	5f		 pop	 edi
  00037	5e		 pop	 esi

; 103  : 
; 104  : 			return TRUE;

  00038	b8 01 00 00 00	 mov	 eax, 1
  0003d	5b		 pop	 ebx

; 105  : 		}

  0003e	c2 04 00	 ret	 4
?Free@?$MemPooler@VCMover@@@@QAEHPAVCMover@@@Z ENDP	; MemPooler<CMover>::Free
_TEXT	ENDS
PUBLIC	?IsAbnormalPlayerData@CMover@@QAEHXZ		; CMover::IsAbnormalPlayerData
; Function compile flags: /Ogty
; File c:\documents and settings\test\mes documents\source\virtuos_v17\build\program\_network\objects\obj.cpp
;	COMDAT ?IsAbnormalPlayerData@CMover@@QAEHXZ
_TEXT	SEGMENT
_nNumberofIndex$ = -128					; size = 4
_adwEquipment$ = -124					; size = 124
?IsAbnormalPlayerData@CMover@@QAEHXZ PROC NEAR		; CMover::IsAbnormalPlayerData, COMDAT
; _this$ = ecx

; 375  : {

  00000	81 ec 80 00 00
	00		 sub	 esp, 128		; 00000080H
  00006	53		 push	 ebx
  00007	55		 push	 ebp
  00008	8b d9		 mov	 ebx, ecx

; 376  : #ifndef __CORESERVER
; 377  : 	DWORD dwId;
; 378  : 	int nMax	= m_Inventory.m_dwItemMax;

  0000a	8b 93 24 41 00
	00		 mov	 edx, DWORD PTR [ebx+16676]

; 379  : 	int nNumberofIndex	= m_Inventory.m_dwIndexNum;

  00010	8b ab 1c 41 00
	00		 mov	 ebp, DWORD PTR [ebx+16668]
  00016	56		 push	 esi

; 380  : 	
; 381  : 	for( int i = 0; i < nMax; i++ )

  00017	33 c0		 xor	 eax, eax
  00019	85 d2		 test	 edx, edx
  0001b	57		 push	 edi
  0001c	89 6c 24 10	 mov	 DWORD PTR _nNumberofIndex$[esp+144], ebp
  00020	7e 2b		 jle	 SHORT $L188442

; 376  : #ifndef __CORESERVER
; 377  : 	DWORD dwId;
; 378  : 	int nMax	= m_Inventory.m_dwItemMax;

  00022	8b b3 18 41 00
	00		 mov	 esi, DWORD PTR [ebx+16664]
$L186898:

; 382  : 	{
; 383  : 		dwId	= m_Inventory.m_apIndex[i];

  00028	8b 0e		 mov	 ecx, DWORD PTR [esi]

; 384  : 		if( dwId != NULL_ID )

  0002a	83 f9 ff	 cmp	 ecx, -1
  0002d	74 16		 je	 SHORT $L186899

; 385  : 		{
; 386  : 			if( m_Inventory.m_apItem[dwId].m_dwObjIndex != i )

  0002f	8b bb 20 41 00
	00		 mov	 edi, DWORD PTR [ebx+16672]
  00035	8d 0c 89	 lea	 ecx, DWORD PTR [ecx+ecx*4]
  00038	c1 e1 05	 shl	 ecx, 5
  0003b	39 44 0f 2c	 cmp	 DWORD PTR [edi+ecx+44], eax
  0003f	0f 85 b9 00 00
	00		 jne	 $L188434
$L186899:

; 380  : 	
; 381  : 	for( int i = 0; i < nMax; i++ )

  00045	40		 inc	 eax
  00046	83 c6 04	 add	 esi, 4
  00049	3b c2		 cmp	 eax, edx
  0004b	7c db		 jl	 SHORT $L186898
$L188442:

; 387  : 				return TRUE;
; 388  : 		}
; 389  : 	}
; 390  : 	
; 391  : 	DWORD dwObjIndex;
; 392  : 	for( i = 0; i < nMax; i++ )

  0004d	33 f6		 xor	 esi, esi
  0004f	85 d2		 test	 edx, edx
  00051	7e 51		 jle	 SHORT $L186906
  00053	8b 8b 20 41 00
	00		 mov	 ecx, DWORD PTR [ebx+16672]
  00059	8b 3d 40 00 00
	00		 mov	 edi, DWORD PTR ?prj@@3VCProject@@A+64
  0005f	83 c1 08	 add	 ecx, 8
$L186904:

; 393  : 	{
; 394  : 		dwObjIndex	= m_Inventory.m_apItem[i].m_dwObjIndex;

  00062	8b 41 24	 mov	 eax, DWORD PTR [ecx+36]

; 395  : 		if( dwObjIndex != NULL_ID )

  00065	83 f8 ff	 cmp	 eax, -1
  00068	74 10		 je	 SHORT $L186908

; 396  : 		{
; 397  : 			if( m_Inventory.m_apIndex[dwObjIndex] != i )

  0006a	8b ab 18 41 00
	00		 mov	 ebp, DWORD PTR [ebx+16664]
  00070	39 74 85 00	 cmp	 DWORD PTR [ebp+eax*4], esi
  00074	0f 85 84 00 00
	00		 jne	 $L188434
$L186908:

; 398  : 				return TRUE;
; 399  : 		}
; 400  : 		if( FALSE == m_Inventory.m_apItem[i].IsEmpty() )

  0007a	8b 01		 mov	 eax, DWORD PTR [ecx]
  0007c	85 c0		 test	 eax, eax
  0007e	74 15		 je	 SHORT $L186905

; 401  : 		{
; 402  : 			ItemProp* pItemProp
; 403  : 				= prj.GetItemProp( m_Inventory.m_apItem[i].m_dwItemId );

  00080	3b 05 50 00 00
	00		 cmp	 eax, DWORD PTR ?prj@@3VCProject@@A+80
  00086	73 76		 jae	 SHORT $L188434
  00088	8b 04 87	 mov	 eax, DWORD PTR [edi+eax*4]

; 404  : 			if( !pItemProp	/*It have not property*/
; 405  : 				|| pItemProp->dwItemKind3 == IK3_VIRTUAL/*It is monster's virtual weapon*/ )

  0008b	85 c0		 test	 eax, eax
  0008d	74 6f		 je	 SHORT $L188434
  0008f	83 78 78 0a	 cmp	 DWORD PTR [eax+120], 10	; 0000000aH
  00093	74 69		 je	 SHORT $L188434
$L186905:

; 387  : 				return TRUE;
; 388  : 		}
; 389  : 	}
; 390  : 	
; 391  : 	DWORD dwObjIndex;
; 392  : 	for( i = 0; i < nMax; i++ )

  00095	46		 inc	 esi
  00096	81 c1 a0 00 00
	00		 add	 ecx, 160		; 000000a0H
  0009c	3b f2		 cmp	 esi, edx
  0009e	7c c2		 jl	 SHORT $L186904
  000a0	8b 6c 24 10	 mov	 ebp, DWORD PTR _nNumberofIndex$[esp+144]
$L186906:

; 406  : 				return TRUE;
; 407  : 		}
; 408  : 	}
; 409  : 	
; 410  : 	DWORD adwEquipment[MAX_HUMAN_PARTS];
; 411  : 	memset( adwEquipment, 0xff, sizeof(DWORD) * MAX_HUMAN_PARTS );

  000a4	83 c8 ff	 or	 eax, -1

; 412  : 	for( i = nNumberofIndex; i < nMax; i++ )

  000a7	3b ea		 cmp	 ebp, edx
  000a9	b9 1f 00 00 00	 mov	 ecx, 31			; 0000001fH
  000ae	8d 7c 24 14	 lea	 edi, DWORD PTR _adwEquipment$[esp+144]
  000b2	f3 ab		 rep stosd
  000b4	7d 21		 jge	 SHORT $L186917
  000b6	8b 83 18 41 00
	00		 mov	 eax, DWORD PTR [ebx+16664]
  000bc	8d 04 a8	 lea	 eax, DWORD PTR [eax+ebp*4]
  000bf	8d 74 24 14	 lea	 esi, DWORD PTR _adwEquipment$[esp+144]
  000c3	2b d5		 sub	 edx, ebp
$L186915:

; 413  : 	{
; 414  : 		dwId	= m_Inventory.m_apIndex[i];

  000c5	8b 08		 mov	 ecx, DWORD PTR [eax]

; 415  : 		if( dwId != NULL_ID )

  000c7	83 f9 ff	 cmp	 ecx, -1
  000ca	74 02		 je	 SHORT $L186916

; 416  : 			adwEquipment[i - nNumberofIndex]	= dwId;

  000cc	89 0e		 mov	 DWORD PTR [esi], ecx
$L186916:

; 412  : 	for( i = nNumberofIndex; i < nMax; i++ )

  000ce	83 c0 04	 add	 eax, 4
  000d1	83 c6 04	 add	 esi, 4
  000d4	4a		 dec	 edx
  000d5	75 ee		 jne	 SHORT $L186915
$L186917:

; 417  : 	}
; 418  : 	for( i = 0; i < MAX_HUMAN_PARTS; i++ )

  000d7	33 c0		 xor	 eax, eax
  000d9	8d 8b 24 45 00
	00		 lea	 ecx, DWORD PTR [ebx+17700]
  000df	90		 npad	 1
$L186919:

; 419  : 	{
; 420  : 		if( adwEquipment[i] != m_aEquipInfo[i].dwId )

  000e0	8b 54 84 14	 mov	 edx, DWORD PTR _adwEquipment$[esp+eax*4+144]
  000e4	3b 11		 cmp	 edx, DWORD PTR [ecx]
  000e6	75 16		 jne	 SHORT $L188434
  000e8	40		 inc	 eax
  000e9	83 c1 0c	 add	 ecx, 12			; 0000000cH
  000ec	83 f8 1f	 cmp	 eax, 31			; 0000001fH
  000ef	7c ef		 jl	 SHORT $L186919
  000f1	5f		 pop	 edi
  000f2	5e		 pop	 esi
  000f3	5d		 pop	 ebp

; 422  : 	}
; 423  : #endif // __CORESERVER	
; 424  : 	return FALSE;

  000f4	33 c0		 xor	 eax, eax
  000f6	5b		 pop	 ebx

; 425  : }

  000f7	81 c4 80 00 00
	00		 add	 esp, 128		; 00000080H
  000fd	c3		 ret	 0
$L188434:
  000fe	5f		 pop	 edi
  000ff	5e		 pop	 esi
  00100	5d		 pop	 ebp

; 421  : 			return TRUE;

  00101	b8 01 00 00 00	 mov	 eax, 1
  00106	5b		 pop	 ebx

; 425  : }

  00107	81 c4 80 00 00
	00		 add	 esp, 128		; 00000080H
  0010d	c3		 ret	 0
?IsAbnormalPlayerData@CMover@@QAEHXZ ENDP		; CMover::IsAbnormalPlayerData
_TEXT	ENDS
PUBLIC	?RemoveItemIK3@CMover@@QAEHXZ			; CMover::RemoveItemIK3
PUBLIC	??_C@_0CI@FEMGPALB@Not?5UnEquip?5RemoveItemIK3?5?5?3?5?$CFs?0@ ; `string'
PUBLIC	??_C@_0CG@DAKLJMI@Not?5ItemProp?5RemoveItemIK3?5?5?3?5?$CFs@ ; `string'
EXTRN	?WriteLog@@YAXPBDZZ:NEAR			; WriteLog
;	COMDAT ??_C@_0CI@FEMGPALB@Not?5UnEquip?5RemoveItemIK3?5?5?3?5?$CFs?0@
; File c:\documents and settings\test\mes documents\source\virtuos_v17\build\program\_network\objects\obj.h
CONST	SEGMENT
??_C@_0CI@FEMGPALB@Not?5UnEquip?5RemoveItemIK3?5?5?3?5?$CFs?0@ DB 'Not Un'
	DB	'Equip RemoveItemIK3  : %s, %d, %d', 00H	; `string'
CONST	ENDS
;	COMDAT ??_C@_0CG@DAKLJMI@Not?5ItemProp?5RemoveItemIK3?5?5?3?5?$CFs@
CONST	SEGMENT
??_C@_0CG@DAKLJMI@Not?5ItemProp?5RemoveItemIK3?5?5?3?5?$CFs@ DB 'Not Item'
	DB	'Prop RemoveItemIK3  : %s, %d ', 00H		; `string'
; Function compile flags: /Ogty
; File c:\documents and settings\test\mes documents\source\virtuos_v17\build\program\_network\objects\obj.cpp
CONST	ENDS
;	COMDAT ?RemoveItemIK3@CMover@@QAEHXZ
_TEXT	SEGMENT
tv400 = -16						; size = 4
_bResult$ = -12						; size = 4
_i$186974 = -8						; size = 4
_nSize$ = -4						; size = 4
?RemoveItemIK3@CMover@@QAEHXZ PROC NEAR			; CMover::RemoveItemIK3, COMDAT
; _this$ = ecx

; 510  : {

  00000	83 ec 10	 sub	 esp, 16			; 00000010H
  00003	55		 push	 ebp
  00004	8b e9		 mov	 ebp, ecx

; 511  : 	int	nSize	= m_Inventory.m_dwItemMax;

  00006	8b 95 24 41 00
	00		 mov	 edx, DWORD PTR [ebp+16676]

; 512  : 	CItemElem* pItemElem;
; 513  : 	BOOL bRemove;
; 514  : 	BOOL bResult	= FALSE;

  0000c	33 c9		 xor	 ecx, ecx
  0000e	33 c0		 xor	 eax, eax

; 515  : 	for( int i = 0 ; i < nSize; i++ )

  00010	3b d1		 cmp	 edx, ecx
  00012	89 54 24 10	 mov	 DWORD PTR _nSize$[esp+20], edx
  00016	89 44 24 08	 mov	 DWORD PTR _bResult$[esp+20], eax
  0001a	89 4c 24 0c	 mov	 DWORD PTR _i$186974[esp+20], ecx
  0001e	0f 8e 30 01 00
	00		 jle	 $L186977
  00024	53		 push	 ebx
  00025	56		 push	 esi
  00026	57		 push	 edi
  00027	8d 9d 14 41 00
	00		 lea	 ebx, DWORD PTR [ebp+16660]
  0002d	89 4c 24 10	 mov	 DWORD PTR tv400[esp+32], ecx
$L188482:

; 516  : 	{
; 517  : 		bRemove = FALSE;
; 518  : 		pItemElem	= m_Inventory.GetAtId( i );

  00031	3b 4b 10	 cmp	 ecx, DWORD PTR [ebx+16]
  00034	0f 83 f0 00 00
	00		 jae	 $L186976
  0003a	8b 73 0c	 mov	 esi, DWORD PTR [ebx+12]
  0003d	8b 54 24 10	 mov	 edx, DWORD PTR tv400[esp+32]
  00041	8b 44 16 08	 mov	 eax, DWORD PTR [esi+edx+8]
  00045	03 f2		 add	 esi, edx
  00047	85 c0		 test	 eax, eax
  00049	0f 84 db 00 00
	00		 je	 $L186976

; 519  : 		if( pItemElem )
; 520  : 		{
; 521  : 		 	ItemProp* pItemProp		= prj.GetItemProp( pItemElem->m_dwItemId );	

  0004f	3b 05 50 00 00
	00		 cmp	 eax, DWORD PTR ?prj@@3VCProject@@A+80
  00055	0f 83 ba 00 00
	00		 jae	 $L186980
  0005b	8b 0d 40 00 00
	00		 mov	 ecx, DWORD PTR ?prj@@3VCProject@@A+64
  00061	8b 3c 81	 mov	 edi, DWORD PTR [ecx+eax*4]

; 522  : 			if( pItemProp )

  00064	85 ff		 test	 edi, edi
  00066	0f 84 a9 00 00
	00		 je	 $L186980

; 523  : 			{
; 524  : 				if( pItemProp->dwItemKind3 == IK3_CLOAK )

  0006c	8b 47 78	 mov	 eax, DWORD PTR [edi+120]
  0006f	83 f8 18	 cmp	 eax, 24			; 00000018H
  00072	75 19		 jne	 SHORT $L186981

; 525  : 				{
; 526  : 					if( pItemElem->m_idGuild != 0 )

  00074	8b 46 78	 mov	 eax, DWORD PTR [esi+120]
  00077	85 c0		 test	 eax, eax
  00079	0f 84 ab 00 00
	00		 je	 $L186976

; 527  : 					{
; 528  : 						if( m_idGuild != pItemElem->m_idGuild )

  0007f	39 85 cc 40 00
	00		 cmp	 DWORD PTR [ebp+16588], eax
  00085	0f 84 9f 00 00
	00		 je	 $L186976

; 529  : 						{
; 530  : 							bRemove = TRUE;
; 531  : 						}
; 532  : 					}
; 533  : 				}
; 534  : 				else

  0008b	eb 09		 jmp	 SHORT $L188478
$L186981:

; 535  : 				if( pItemProp->dwItemKind3 == IK3_DELETE )

  0008d	83 f8 31	 cmp	 eax, 49			; 00000031H
  00090	0f 85 94 00 00
	00		 jne	 $L186976
$L188478:

; 536  : 				{
; 537  : 					bRemove = TRUE;
; 538  : 				}
; 539  : 
; 540  : 				if( bRemove )
; 541  : 				{
; 542  : 					if( m_Inventory.IsEquip( pItemElem->m_dwObjId ) )		

  00096	8b 46 04	 mov	 eax, DWORD PTR [esi+4]
  00099	8d 14 80	 lea	 edx, DWORD PTR [eax+eax*4]
  0009c	8b 43 0c	 mov	 eax, DWORD PTR [ebx+12]
  0009f	c1 e2 05	 shl	 edx, 5
  000a2	8b 4c 02 2c	 mov	 ecx, DWORD PTR [edx+eax+44]
  000a6	3b 4b 08	 cmp	 ecx, DWORD PTR [ebx+8]

; 543  : 					{
; 544  : 						if( m_Inventory.UnEquip( pItemProp->dwParts ) ) //  

  000a9	8b cb		 mov	 ecx, ebx
  000ab	72 55		 jb	 SHORT $L186987
  000ad	8b 97 a8 00 00
	00		 mov	 edx, DWORD PTR [edi+168]
  000b3	52		 push	 edx
  000b4	e8 00 00 00 00	 call	 ?UnEquip@?$CItemContainer@VCItemElem@@@@QAEHK@Z ; CItemContainer<CItemElem>::UnEquip
  000b9	85 c0		 test	 eax, eax
  000bb	74 2b		 je	 SHORT $L186988

; 545  : 						{
; 546  : 							m_aEquipInfo[pItemProp->dwParts].dwId	= NULL_ID;

  000bd	8b 87 a8 00 00
	00		 mov	 eax, DWORD PTR [edi+168]
  000c3	05 c3 05 00 00	 add	 eax, 1475		; 000005c3H
  000c8	8d 04 40	 lea	 eax, DWORD PTR [eax+eax*2]
  000cb	c7 44 85 00 ff
	ff ff ff	 mov	 DWORD PTR [ebp+eax*4], -1

; 547  : 							m_Inventory.RemoveAt( pItemElem->m_dwObjIndex );

  000d3	8b 4e 2c	 mov	 ecx, DWORD PTR [esi+44]
  000d6	51		 push	 ecx
  000d7	8b cb		 mov	 ecx, ebx
  000d9	e8 00 00 00 00	 call	 ?RemoveAt@?$CItemContainer@VCItemElem@@@@QAEXK@Z ; CItemContainer<CItemElem>::RemoveAt

; 548  : 							bResult	= TRUE;

  000de	c7 44 24 14 01
	00 00 00	 mov	 DWORD PTR _bResult$[esp+32], 1

; 549  : 						}
; 550  : 						else

  000e6	eb 42		 jmp	 SHORT $L186976
$L186988:

; 551  : 						{
; 552  : 							WriteLog( "Not UnEquip RemoveItemIK3  : %s, %d, %d", m_szName, pItemElem->m_dwObjId, pItemProp->dwID );

  000e8	8b 17		 mov	 edx, DWORD PTR [edi]
  000ea	8b 46 04	 mov	 eax, DWORD PTR [esi+4]
  000ed	52		 push	 edx
  000ee	50		 push	 eax
  000ef	8d 4d 6c	 lea	 ecx, DWORD PTR [ebp+108]
  000f2	51		 push	 ecx
  000f3	68 00 00 00 00	 push	 OFFSET FLAT:??_C@_0CI@FEMGPALB@Not?5UnEquip?5RemoveItemIK3?5?5?3?5?$CFs?0@
  000f8	e8 00 00 00 00	 call	 ?WriteLog@@YAXPBDZZ	; WriteLog
  000fd	83 c4 10	 add	 esp, 16			; 00000010H

; 553  : 						}
; 554  : 					}
; 555  : 					else

  00100	eb 28		 jmp	 SHORT $L186976
$L186987:

; 556  : 					{
; 557  : 						m_Inventory.RemoveAt( pItemElem->m_dwObjIndex );

  00102	8b 56 2c	 mov	 edx, DWORD PTR [esi+44]
  00105	52		 push	 edx
  00106	e8 00 00 00 00	 call	 ?RemoveAt@?$CItemContainer@VCItemElem@@@@QAEXK@Z ; CItemContainer<CItemElem>::RemoveAt

; 558  : 						bResult	= TRUE;

  0010b	c7 44 24 14 01
	00 00 00	 mov	 DWORD PTR _bResult$[esp+32], 1

; 559  : 					}
; 560  : 				}
; 561  : 			}
; 562  : 			else

  00113	eb 15		 jmp	 SHORT $L186976
$L186980:

; 563  : 			{
; 564  : 				WriteLog( "Not ItemProp RemoveItemIK3  : %s, %d ", m_szName, pItemElem->m_dwObjId );

  00115	8b 46 04	 mov	 eax, DWORD PTR [esi+4]
  00118	50		 push	 eax
  00119	8d 4d 6c	 lea	 ecx, DWORD PTR [ebp+108]
  0011c	51		 push	 ecx
  0011d	68 00 00 00 00	 push	 OFFSET FLAT:??_C@_0CG@DAKLJMI@Not?5ItemProp?5RemoveItemIK3?5?5?3?5?$CFs@
  00122	e8 00 00 00 00	 call	 ?WriteLog@@YAXPBDZZ	; WriteLog
  00127	83 c4 0c	 add	 esp, 12			; 0000000cH
$L186976:
  0012a	8b 4c 24 18	 mov	 ecx, DWORD PTR _i$186974[esp+32]
  0012e	8b 54 24 10	 mov	 edx, DWORD PTR tv400[esp+32]
  00132	8b 44 24 1c	 mov	 eax, DWORD PTR _nSize$[esp+32]
  00136	41		 inc	 ecx
  00137	81 c2 a0 00 00
	00		 add	 edx, 160		; 000000a0H
  0013d	3b c8		 cmp	 ecx, eax
  0013f	89 4c 24 18	 mov	 DWORD PTR _i$186974[esp+32], ecx
  00143	89 54 24 10	 mov	 DWORD PTR tv400[esp+32], edx
  00147	0f 8c e4 fe ff
	ff		 jl	 $L188482

; 565  : 			}
; 566  : 		}
; 567  : 	}
; 568  : 	return bResult;

  0014d	8b 44 24 14	 mov	 eax, DWORD PTR _bResult$[esp+32]
  00151	5f		 pop	 edi
  00152	5e		 pop	 esi
  00153	5b		 pop	 ebx
$L186977:
  00154	5d		 pop	 ebp

; 569  : }

  00155	83 c4 10	 add	 esp, 16			; 00000010H
  00158	c3		 ret	 0
?RemoveItemIK3@CMover@@QAEHXZ ENDP			; CMover::RemoveItemIK3
_TEXT	ENDS
PUBLIC	?IsPierceAble@CItemElem@@QAEHKH@Z		; CItemElem::IsPierceAble
; Function compile flags: /Ogty
;	COMDAT ?IsPierceAble@CItemElem@@QAEHKH@Z
_TEXT	SEGMENT
_dwTargetItemKind3$ = 8					; size = 4
_bSize$ = 12						; size = 4
?IsPierceAble@CItemElem@@QAEHKH@Z PROC NEAR		; CItemElem::IsPierceAble, COMDAT
; _this$ = ecx

; 619  : {

  00000	56		 push	 esi
  00001	8b f1		 mov	 esi, ecx

; 620  : 	if( !GetProp() )

  00003	8b 46 08	 mov	 eax, DWORD PTR [esi+8]
  00006	3b 05 50 00 00
	00		 cmp	 eax, DWORD PTR ?prj@@3VCProject@@A+80
  0000c	73 0d		 jae	 SHORT $L188593
  0000e	8b 0d 40 00 00
	00		 mov	 ecx, DWORD PTR ?prj@@3VCProject@@A+64
  00014	8b 04 81	 mov	 eax, DWORD PTR [ecx+eax*4]
  00017	85 c0		 test	 eax, eax
  00019	75 06		 jne	 SHORT $L186999
$L188593:

; 621  : 		return FALSE;

  0001b	33 c0		 xor	 eax, eax
  0001d	5e		 pop	 esi

; 653  : }

  0001e	c2 08 00	 ret	 8
$L186999:

; 622  : 
; 623  : 	int nPiercedSize = GetPiercingSize();

  00021	8d 4e 34	 lea	 ecx, DWORD PTR [esi+52]
  00024	e8 00 00 00 00	 call	 ?GetPiercingSize@CPiercing@@QAEHXZ ; CPiercing::GetPiercingSize

; 624  : 	if( bSize ) //    

  00029	8b 4c 24 0c	 mov	 ecx, DWORD PTR _bSize$[esp]
  0002d	85 c9		 test	 ecx, ecx
  0002f	74 01		 je	 SHORT $L187001

; 625  : 		nPiercedSize++;

  00031	40		 inc	 eax
$L187001:

; 626  : 
; 627  : 	if( GetProp()->dwItemKind3 == IK3_SUIT )

  00032	8b 4e 08	 mov	 ecx, DWORD PTR [esi+8]
  00035	8b 35 40 00 00
	00		 mov	 esi, DWORD PTR ?prj@@3VCProject@@A+64
  0003b	57		 push	 edi
  0003c	8b 3d 50 00 00
	00		 mov	 edi, DWORD PTR ?prj@@3VCProject@@A+80
  00042	3b cf		 cmp	 ecx, edi
  00044	72 04		 jb	 SHORT $L188528
  00046	33 d2		 xor	 edx, edx
  00048	eb 03		 jmp	 SHORT $L188527
$L188528:
  0004a	8b 14 8e	 mov	 edx, DWORD PTR [esi+ecx*4]
$L188527:
  0004d	83 7a 78 12	 cmp	 DWORD PTR [edx+120], 18	; 00000012H
  00051	75 1d		 jne	 SHORT $L187002

; 628  : 	{
; 629  : 		if( nPiercedSize <= MAX_PIERCING_SUIT )

  00053	83 f8 04	 cmp	 eax, 4
  00056	7f 68		 jg	 SHORT $L187013

; 630  : 		{
; 631  : 			if( dwTargetItemKind3 == NULL_ID )

  00058	8b 44 24 0c	 mov	 eax, DWORD PTR _dwTargetItemKind3$[esp+4]
  0005c	83 f8 ff	 cmp	 eax, -1

; 632  : 				return TRUE;

  0005f	74 05		 je	 SHORT $L188596

; 633  : 			else if( dwTargetItemKind3 == IK3_SOCKETCARD )

  00061	83 f8 3e	 cmp	 eax, 62			; 0000003eH
  00064	75 5a		 jne	 SHORT $L187013
$L188596:
  00066	5f		 pop	 edi

; 634  : 				return TRUE;

  00067	b8 01 00 00 00	 mov	 eax, 1
  0006c	5e		 pop	 esi

; 653  : }

  0006d	c2 08 00	 ret	 8
$L187002:

; 635  : 		}
; 636  : 	}
; 637  : 
; 638  : 	else if( GetProp()->dwItemKind3 == IK3_SHIELD
; 639  : 		|| GetProp()->dwItemKind2 == IK2_WEAPON_DIRECT
; 640  : 		|| GetProp()->dwItemKind2 == IK2_WEAPON_MAGIC
; 641  : 		)

  00070	3b cf		 cmp	 ecx, edi
  00072	72 04		 jb	 SHORT $L188549
  00074	33 d2		 xor	 edx, edx
  00076	eb 03		 jmp	 SHORT $L188548
$L188549:
  00078	8b 14 8e	 mov	 edx, DWORD PTR [esi+ecx*4]
$L188548:
  0007b	83 7a 78 10	 cmp	 DWORD PTR [edx+120], 16	; 00000010H
  0007f	74 22		 je	 SHORT $L187009
  00081	3b cf		 cmp	 ecx, edi
  00083	72 04		 jb	 SHORT $L188570
  00085	33 d2		 xor	 edx, edx
  00087	eb 03		 jmp	 SHORT $L188569
$L188570:
  00089	8b 14 8e	 mov	 edx, DWORD PTR [esi+ecx*4]
$L188569:
  0008c	83 7a 74 02	 cmp	 DWORD PTR [edx+116], 2
  00090	74 11		 je	 SHORT $L187009
  00092	3b cf		 cmp	 ecx, edi
  00094	72 04		 jb	 SHORT $L188591
  00096	33 c9		 xor	 ecx, ecx
  00098	eb 03		 jmp	 SHORT $L188590
$L188591:
  0009a	8b 0c 8e	 mov	 ecx, DWORD PTR [esi+ecx*4]
$L188590:
  0009d	83 79 74 03	 cmp	 DWORD PTR [ecx+116], 3
  000a1	75 1d		 jne	 SHORT $L187013
$L187009:

; 642  : 	{
; 643  : 		if( nPiercedSize <= MAX_PIERCING_WEAPON )

  000a3	83 f8 0a	 cmp	 eax, 10			; 0000000aH
  000a6	7f 18		 jg	 SHORT $L187013

; 644  : 		{
; 645  : 			if( dwTargetItemKind3 == NULL_ID )

  000a8	8b 44 24 0c	 mov	 eax, DWORD PTR _dwTargetItemKind3$[esp+4]
  000ac	83 f8 ff	 cmp	 eax, -1

; 646  : 				return TRUE;

  000af	74 b5		 je	 SHORT $L188596

; 647  : 			else if( dwTargetItemKind3 == IK3_SOCKETCARD2 )

  000b1	83 f8 3f	 cmp	 eax, 63			; 0000003fH
  000b4	75 0a		 jne	 SHORT $L187013
  000b6	5f		 pop	 edi

; 648  : 				return TRUE;

  000b7	b8 01 00 00 00	 mov	 eax, 1
  000bc	5e		 pop	 esi

; 653  : }

  000bd	c2 08 00	 ret	 8
$L187013:
  000c0	5f		 pop	 edi

; 649  : 		}
; 650  : 	}
; 651  : 
; 652  : 	return FALSE;

  000c1	33 c0		 xor	 eax, eax
  000c3	5e		 pop	 esi

; 653  : }

  000c4	c2 08 00	 ret	 8
?IsPierceAble@CItemElem@@QAEHKH@Z ENDP			; CItemElem::IsPierceAble
_TEXT	ENDS
PUBLIC	?IsInvalid@CItemElem@@QAEHXZ			; CItemElem::IsInvalid
; Function compile flags: /Ogty
;	COMDAT ?IsInvalid@CItemElem@@QAEHXZ
_TEXT	SEGMENT
?IsInvalid@CItemElem@@QAEHXZ PROC NEAR			; CItemElem::IsInvalid, COMDAT
; _this$ = ecx

; 704  : 	ItemProp* pProp	= GetProp();

  00000	8b 41 08	 mov	 eax, DWORD PTR [ecx+8]
  00003	3b 05 50 00 00
	00		 cmp	 eax, DWORD PTR ?prj@@3VCProject@@A+80
  00009	73 2b		 jae	 SHORT $L188625
  0000b	8b 15 40 00 00
	00		 mov	 edx, DWORD PTR ?prj@@3VCProject@@A+64
  00011	8b 14 82	 mov	 edx, DWORD PTR [edx+eax*4]

; 705  : 	if( !pProp )

  00014	85 d2		 test	 edx, edx

; 706  : 		return TRUE;

  00016	74 1e		 je	 SHORT $L188625

; 707  : 	//         .
; 708  : 	if( pProp->dwItemKind3 == IK3_EGG && m_dwItemId != II_PET_EGG )

  00018	83 7a 78 78	 cmp	 DWORD PTR [edx+120], 120 ; 00000078H
  0001c	75 1e		 jne	 SHORT $L187039
  0001e	3d 25 52 00 00	 cmp	 eax, 21029		; 00005225H
  00023	74 17		 je	 SHORT $L187039

; 709  : 	{
; 710  : 		if( m_pPet == NULL )

  00025	8b 81 98 00 00
	00		 mov	 eax, DWORD PTR [ecx+152]
  0002b	85 c0		 test	 eax, eax

; 711  : 			return TRUE;

  0002d	74 07		 je	 SHORT $L188625

; 712  : 		if( m_pPet->GetLevel() == PL_EGG )

  0002f	8a 48 05	 mov	 cl, BYTE PTR [eax+5]
  00032	84 c9		 test	 cl, cl
  00034	75 06		 jne	 SHORT $L187039
$L188625:

; 713  : 			return TRUE;

  00036	b8 01 00 00 00	 mov	 eax, 1

; 717  : }

  0003b	c3		 ret	 0
$L187039:

; 714  : 	}
; 715  : 
; 716  : 	return FALSE;

  0003c	33 c0		 xor	 eax, eax

; 717  : }

  0003e	c3		 ret	 0
?IsInvalid@CItemElem@@QAEHXZ ENDP			; CItemElem::IsInvalid
_TEXT	ENDS
PUBLIC	?Copy@CMover@@QAEXPAV1@H@Z			; CMover::Copy
EXTRN	?Copy@CPocketController@@QAEXAAV1@@Z:NEAR	; CPocketController::Copy
EXTRN	??4CBuffMgr@@QAEAAV0@AAV0@@Z:NEAR		; CBuffMgr::operator=
EXTRN	__imp__lstrcpyA@8:NEAR
; Function compile flags: /Ogty
;	COMDAT ?Copy@CMover@@QAEXPAV1@H@Z
_TEXT	SEGMENT
tv382 = 8						; size = 4
_pMover$ = 8						; size = 4
_bAll$ = 12						; size = 4
?Copy@CMover@@QAEXPAV1@H@Z PROC NEAR			; CMover::Copy, COMDAT
; _this$ = ecx

; 720  : {

  00000	53		 push	 ebx
  00001	8b d9		 mov	 ebx, ecx
  00003	55		 push	 ebp

; 721  : 	m_nSlot	= pMover->m_nSlot;

  00004	8b 6c 24 0c	 mov	 ebp, DWORD PTR _pMover$[esp+4]
  00008	8a 85 c8 00 00
	00		 mov	 al, BYTE PTR [ebp+200]
  0000e	88 83 c8 00 00
	00		 mov	 BYTE PTR [ebx+200], al

; 722  : 	m_dwIndex	= pMover->m_dwIndex;

  00014	8b 4d 08	 mov	 ecx, DWORD PTR [ebp+8]
  00017	89 4b 08	 mov	 DWORD PTR [ebx+8], ecx

; 723  : 	m_idPlayer	= pMover->m_idPlayer;

  0001a	8b 95 90 00 00
	00		 mov	 edx, DWORD PTR [ebp+144]
  00020	89 93 90 00 00
	00		 mov	 DWORD PTR [ebx+144], edx

; 724  : 	m_dwAuthorization	= pMover->m_dwAuthorization;

  00026	8b 85 e0 02 00
	00		 mov	 eax, DWORD PTR [ebp+736]
  0002c	89 83 e0 02 00
	00		 mov	 DWORD PTR [ebx+736], eax

; 725  : 	m_idGuild	= pMover->m_idGuild;

  00032	8b 8d cc 40 00
	00		 mov	 ecx, DWORD PTR [ebp+16588]
  00038	89 8b cc 40 00
	00		 mov	 DWORD PTR [ebx+16588], ecx

; 726  : 	m_idWar		= pMover->m_idWar;

  0003e	8b 95 d0 40 00
	00		 mov	 edx, DWORD PTR [ebp+16592]
  00044	89 93 d0 40 00
	00		 mov	 DWORD PTR [ebx+16592], edx

; 727  : 	m_dwMode	= pMover->m_dwMode;

  0004a	8b 85 e4 02 00
	00		 mov	 eax, DWORD PTR [ebp+740]

; 728  : 	lstrcpy( m_szBankPass, pMover->m_szBankPass );

  00050	8d 8d c9 00 00
	00		 lea	 ecx, DWORD PTR [ebp+201]
  00056	51		 push	 ecx
  00057	8d 93 c9 00 00
	00		 lea	 edx, DWORD PTR [ebx+201]
  0005d	52		 push	 edx
  0005e	89 83 e4 02 00
	00		 mov	 DWORD PTR [ebx+740], eax
  00064	ff 15 00 00 00
	00		 call	 DWORD PTR __imp__lstrcpyA@8

; 729  : 	m_dwPeriodicTick	= pMover->m_dwPeriodicTick;

  0006a	8b 85 ac 46 00
	00		 mov	 eax, DWORD PTR [ebp+18092]

; 730  : #ifdef __RT_1025
; 731  : 	m_RTMessenger	= pMover->m_RTMessenger;

  00070	8b 93 b4 40 00
	00		 mov	 edx, DWORD PTR [ebx+16564]
  00076	89 83 ac 46 00
	00		 mov	 DWORD PTR [ebx+18092], eax
  0007c	8d 8b b4 40 00
	00		 lea	 ecx, DWORD PTR [ebx+16564]
  00082	8d 85 b4 40 00
	00		 lea	 eax, DWORD PTR [ebp+16564]
  00088	50		 push	 eax
  00089	ff 52 04	 call	 DWORD PTR [edx+4]

; 732  : #else	// __RT_1025
; 733  : 	m_Messenger		= pMover->m_Messenger;
; 734  : #endif	// __RT_1025
; 735  : #ifdef __BUFF_1107
; 736  : 	m_buffs	= pMover->m_buffs;

  0008c	8d 8d 10 45 00
	00		 lea	 ecx, DWORD PTR [ebp+17680]
  00092	51		 push	 ecx
  00093	8d 8b 10 45 00
	00		 lea	 ecx, DWORD PTR [ebx+17680]
  00099	e8 00 00 00 00	 call	 ??4CBuffMgr@@QAEAAV0@AAV0@@Z ; CBuffMgr::operator=

; 737  : #endif	// __BUFF_1107
; 738  : #if __VER >= 14 // __PCBANG
; 739  : 	m_dwPCBangClass = pMover->m_dwPCBangClass;

  0009e	8b 95 b8 46 00
	00		 mov	 edx, DWORD PTR [ebp+18104]
  000a4	89 93 b8 46 00
	00		 mov	 DWORD PTR [ebx+18104], edx

; 740  : #endif // __PCBANG
; 741  : #if __VER >= 15 // __CAMPUS
; 742  : 	m_idCampus	= pMover->m_idCampus;

  000aa	8b 85 c4 46 00
	00		 mov	 eax, DWORD PTR [ebp+18116]
  000b0	89 83 c4 46 00
	00		 mov	 DWORD PTR [ebx+18116], eax

; 743  : 	m_nCampusPoint	= pMover->m_nCampusPoint;
; 744  : #endif // __CAMPUS
; 745  : 
; 746  : 	if( bAll )

  000b6	8b 44 24 10	 mov	 eax, DWORD PTR _bAll$[esp+4]
  000ba	85 c0		 test	 eax, eax
  000bc	8b 8d c8 46 00
	00		 mov	 ecx, DWORD PTR [ebp+18120]
  000c2	89 8b c8 46 00
	00		 mov	 DWORD PTR [ebx+18120], ecx
  000c8	0f 84 0a 05 00
	00		 je	 $L187045
  000ce	56		 push	 esi
  000cf	57		 push	 edi

; 747  : 	{
; 748  : 		m_Inventory.Copy( pMover->m_Inventory );

  000d0	8d 95 14 41 00
	00		 lea	 edx, DWORD PTR [ebp+16660]
  000d6	52		 push	 edx
  000d7	8d 8b 14 41 00
	00		 lea	 ecx, DWORD PTR [ebx+16660]
  000dd	e8 00 00 00 00	 call	 ?Copy@?$CItemContainer@VCItemElem@@@@QAEXAAV1@@Z ; CItemContainer<CItemElem>::Copy

; 749  : #if __VER >= 11 // __SYS_POCKET
; 750  : 		m_Pocket.Copy( pMover->m_Pocket );

  000e2	8d 85 78 41 00
	00		 lea	 eax, DWORD PTR [ebp+16760]
  000e8	50		 push	 eax
  000e9	8d 8b 78 41 00
	00		 lea	 ecx, DWORD PTR [ebx+16760]
  000ef	e8 00 00 00 00	 call	 ?Copy@CPocketController@@QAEXAAV1@@Z ; CPocketController::Copy

; 751  : #endif	// __SYS_POCKET
; 752  : 		memcpy( m_aEquipInfo, pMover->m_aEquipInfo, sizeof(EQUIP_INFO) * MAX_HUMAN_PARTS );

  000f4	8d b5 24 45 00
	00		 lea	 esi, DWORD PTR [ebp+17700]
  000fa	8d bb 24 45 00
	00		 lea	 edi, DWORD PTR [ebx+17700]
  00100	b9 5d 00 00 00	 mov	 ecx, 93			; 0000005dH
  00105	f3 a5		 rep movsd

; 753  : 		memcpy( m_UserTaskBar.m_aSlotApplet, pMover->m_UserTaskBar.m_aSlotApplet, sizeof(m_UserTaskBar.m_aSlotApplet) );

  00107	8d b5 ec 02 00
	00		 lea	 esi, DWORD PTR [ebp+748]
  0010d	8d bb ec 02 00
	00		 lea	 edi, DWORD PTR [ebx+748]
  00113	b9 ac 02 00 00	 mov	 ecx, 684		; 000002acH
  00118	f3 a5		 rep movsd

; 754  : 		memcpy( m_UserTaskBar.m_aSlotItem, pMover->m_UserTaskBar.m_aSlotItem, sizeof(m_UserTaskBar.m_aSlotItem) );

  0011a	b9 e0 0b 00 00	 mov	 ecx, 3040		; 00000be0H
  0011f	8d b5 9c 0d 00
	00		 lea	 esi, DWORD PTR [ebp+3484]
  00125	8d bb 9c 0d 00
	00		 lea	 edi, DWORD PTR [ebx+3484]
  0012b	f3 a5		 rep movsd

; 755  : 		memcpy( m_UserTaskBar.m_aSlotQueue, pMover->m_UserTaskBar.m_aSlotQueue, sizeof(m_UserTaskBar.m_aSlotQueue) );
; 756  : 		m_UserTaskBar.m_nActionPoint	= pMover->m_UserTaskBar.m_nActionPoint;
; 757  : 		lstrcpy( m_szName, pMover->m_szName );

  0012d	8d 55 6c	 lea	 edx, DWORD PTR [ebp+108]
  00130	8d b5 1c 3d 00
	00		 lea	 esi, DWORD PTR [ebp+15644]
  00136	8d bb 1c 3d 00
	00		 lea	 edi, DWORD PTR [ebx+15644]
  0013c	b9 e4 00 00 00	 mov	 ecx, 228		; 000000e4H
  00141	f3 a5		 rep movsd
  00143	8b 8d ac 40 00
	00		 mov	 ecx, DWORD PTR [ebp+16556]
  00149	8b 35 00 00 00
	00		 mov	 esi, DWORD PTR __imp__lstrcpyA@8
  0014f	52		 push	 edx
  00150	8d 43 6c	 lea	 eax, DWORD PTR [ebx+108]
  00153	50		 push	 eax
  00154	89 8b ac 40 00
	00		 mov	 DWORD PTR [ebx+16556], ecx
  0015a	ff d6		 call	 esi

; 758  : 		m_vScale	= pMover->m_vScale;

  0015c	8d 4d 0c	 lea	 ecx, DWORD PTR [ebp+12]
  0015f	8b 01		 mov	 eax, DWORD PTR [ecx]
  00161	8d 53 0c	 lea	 edx, DWORD PTR [ebx+12]
  00164	89 02		 mov	 DWORD PTR [edx], eax
  00166	8b 41 04	 mov	 eax, DWORD PTR [ecx+4]
  00169	89 42 04	 mov	 DWORD PTR [edx+4], eax
  0016c	8b 49 08	 mov	 ecx, DWORD PTR [ecx+8]
  0016f	89 4a 08	 mov	 DWORD PTR [edx+8], ecx

; 759  : 		m_dwMotion	= pMover->m_dwMotion;

  00172	8b 55 18	 mov	 edx, DWORD PTR [ebp+24]
  00175	89 53 18	 mov	 DWORD PTR [ebx+24], edx

; 760  : #ifdef __DBSERVER
; 761  : 		m_dwWorldID	= pMover->m_dwWorldID;

  00178	8b 85 f4 41 00
	00		 mov	 eax, DWORD PTR [ebp+16884]
  0017e	89 83 f4 41 00
	00		 mov	 DWORD PTR [ebx+16884], eax

; 762  : #endif	// __DBSERVER
; 763  : #ifdef __LAYER_1015
; 764  : 		SetLayer( pMover->GetLayer() );

  00184	8b 4d 2c	 mov	 ecx, DWORD PTR [ebp+44]
  00187	89 4b 2c	 mov	 DWORD PTR [ebx+44], ecx

; 765  : #endif	// __LAYER_1015
; 766  : 		m_vPos	= pMover->m_vPos;

  0018a	8d 55 1c	 lea	 edx, DWORD PTR [ebp+28]
  0018d	8b 0a		 mov	 ecx, DWORD PTR [edx]
  0018f	8d 43 1c	 lea	 eax, DWORD PTR [ebx+28]
  00192	89 08		 mov	 DWORD PTR [eax], ecx
  00194	8b 4a 04	 mov	 ecx, DWORD PTR [edx+4]
  00197	89 48 04	 mov	 DWORD PTR [eax+4], ecx
  0019a	8b 52 08	 mov	 edx, DWORD PTR [edx+8]
  0019d	89 50 08	 mov	 DWORD PTR [eax+8], edx

; 767  : 		m_fAngle	= pMover->m_fAngle;

  001a0	8b 45 28	 mov	 eax, DWORD PTR [ebp+40]

; 768  : 		lstrcpy( m_szCharacterKey, pMover->m_szCharacterKey );

  001a3	8d 4d 38	 lea	 ecx, DWORD PTR [ebp+56]
  001a6	51		 push	 ecx
  001a7	8d 53 38	 lea	 edx, DWORD PTR [ebx+56]
  001aa	52		 push	 edx
  001ab	89 43 28	 mov	 DWORD PTR [ebx+40], eax
  001ae	ff d6		 call	 esi

; 769  : 		m_nHitPoint	= pMover->m_nHitPoint;

  001b0	8b 85 94 00 00
	00		 mov	 eax, DWORD PTR [ebp+148]
  001b6	89 83 94 00 00
	00		 mov	 DWORD PTR [ebx+148], eax

; 770  : 		m_nManaPoint	= pMover->m_nManaPoint;

  001bc	8b 8d 98 00 00
	00		 mov	 ecx, DWORD PTR [ebp+152]
  001c2	89 8b 98 00 00
	00		 mov	 DWORD PTR [ebx+152], ecx

; 771  : 		m_nFatiguePoint	= pMover->m_nFatiguePoint;

  001c8	8b 95 9c 00 00
	00		 mov	 edx, DWORD PTR [ebp+156]
  001ce	89 93 9c 00 00
	00		 mov	 DWORD PTR [ebx+156], edx

; 772  : 		m_dwSkinSet	= pMover->m_dwSkinSet;

  001d4	8b 85 a0 00 00
	00		 mov	 eax, DWORD PTR [ebp+160]
  001da	89 83 a0 00 00
	00		 mov	 DWORD PTR [ebx+160], eax

; 773  : 		m_dwHairMesh	= pMover->m_dwHairMesh;

  001e0	8b 8d a4 00 00
	00		 mov	 ecx, DWORD PTR [ebp+164]
  001e6	89 8b a4 00 00
	00		 mov	 DWORD PTR [ebx+164], ecx

; 774  : 		m_dwHairColor	= pMover->m_dwHairColor;

  001ec	8b 95 a8 00 00
	00		 mov	 edx, DWORD PTR [ebp+168]
  001f2	89 93 a8 00 00
	00		 mov	 DWORD PTR [ebx+168], edx

; 775  : 		m_dwHeadMesh	= pMover->m_dwHeadMesh;

  001f8	8b 85 ac 00 00
	00		 mov	 eax, DWORD PTR [ebp+172]
  001fe	89 83 ac 00 00
	00		 mov	 DWORD PTR [ebx+172], eax

; 776  : 		SetSex( pMover->GetSex() );

  00204	8a 8d b8 00 00
	00		 mov	 cl, BYTE PTR [ebp+184]
  0020a	88 8b b8 00 00
	00		 mov	 BYTE PTR [ebx+184], cl

; 777  : 		m_dwRideItemIdx	= pMover->m_dwRideItemIdx;

  00210	8b 95 bc 00 00
	00		 mov	 edx, DWORD PTR [ebp+188]
  00216	89 93 bc 00 00
	00		 mov	 DWORD PTR [ebx+188], edx

; 778  : 		SetGold( pMover->GetGold() );

  0021c	8b 45 34	 mov	 eax, DWORD PTR [ebp+52]
  0021f	89 43 34	 mov	 DWORD PTR [ebx+52], eax

; 779  : 		m_nJob	= pMover->m_nJob;

  00222	8b 8d c4 00 00
	00		 mov	 ecx, DWORD PTR [ebp+196]
  00228	89 8b c4 00 00
	00		 mov	 DWORD PTR [ebx+196], ecx

; 780  : 		m_idparty	= pMover->m_idparty;

  0022e	8b 95 c8 40 00
	00		 mov	 edx, DWORD PTR [ebp+16584]
  00234	89 93 c8 40 00
	00		 mov	 DWORD PTR [ebx+16584], edx

; 781  : #if __VER >= 8 // __S8_PK
; 782  : 		m_dwPKTime			= pMover->m_dwPKTime;

  0023a	8b 85 d4 40 00
	00		 mov	 eax, DWORD PTR [ebp+16596]
  00240	89 83 d4 40 00
	00		 mov	 DWORD PTR [ebx+16596], eax

; 783  : 		m_nPKValue			= pMover->m_nPKValue;

  00246	8b 8d d8 40 00
	00		 mov	 ecx, DWORD PTR [ebp+16600]
  0024c	89 8b d8 40 00
	00		 mov	 DWORD PTR [ebx+16600], ecx

; 784  : 		m_dwPKPropensity	= pMover->m_dwPKPropensity;

  00252	8b 95 dc 40 00
	00		 mov	 edx, DWORD PTR [ebp+16604]
  00258	89 93 dc 40 00
	00		 mov	 DWORD PTR [ebx+16604], edx

; 785  : 		m_dwPKExp			= pMover->m_dwPKExp;

  0025e	8b 85 e0 40 00
	00		 mov	 eax, DWORD PTR [ebp+16608]
  00264	89 83 e0 40 00
	00		 mov	 DWORD PTR [ebx+16608], eax

; 786  : #else // __VER >= 8 // __S8_PK
; 787  : 		m_nNumKill	= pMover->m_nNumKill;
; 788  : 		m_nSlaughter	= pMover->m_nSlaughter;
; 789  : #endif // __VER >= 8 // __S8_PK
; 790  : #if __VER >= 8 // __CSC_VER8_5
; 791  : 		m_nAngelExp			= pMover->m_nAngelExp;

  0026a	8b 8d e8 40 00
	00		 mov	 ecx, DWORD PTR [ebp+16616]
  00270	89 8b e8 40 00
	00		 mov	 DWORD PTR [ebx+16616], ecx
  00276	8b 95 ec 40 00
	00		 mov	 edx, DWORD PTR [ebp+16620]
  0027c	89 93 ec 40 00
	00		 mov	 DWORD PTR [ebx+16620], edx

; 792  : 		m_nAngelLevel		= pMover->m_nAngelLevel;

  00282	8b 85 f0 40 00
	00		 mov	 eax, DWORD PTR [ebp+16624]
  00288	89 83 f0 40 00
	00		 mov	 DWORD PTR [ebx+16624], eax

; 793  : #endif // __CSC_VER8_5
; 794  : 		m_idMurderer	= pMover->m_idMurderer;

  0028e	8b 8d f8 40 00
	00		 mov	 ecx, DWORD PTR [ebp+16632]
  00294	89 8b f8 40 00
	00		 mov	 DWORD PTR [ebx+16632], ecx

; 795  : 		m_nFame	= pMover->m_nFame;

  0029a	8b 95 f4 40 00
	00		 mov	 edx, DWORD PTR [ebp+16628]

; 796  : 		m_pActMover->m_dwState	= pMover->m_pActMover->GetState();

  002a0	8b 8b 10 41 00
	00		 mov	 ecx, DWORD PTR [ebx+16656]
  002a6	89 93 f4 40 00
	00		 mov	 DWORD PTR [ebx+16628], edx
  002ac	8b 85 10 41 00
	00		 mov	 eax, DWORD PTR [ebp+16656]
  002b2	8b 50 04	 mov	 edx, DWORD PTR [eax+4]
  002b5	89 51 04	 mov	 DWORD PTR [ecx+4], edx

; 797  : 		m_pActMover->m_dwStateFlag	= pMover->m_pActMover->GetStateFlag();

  002b8	8b 85 10 41 00
	00		 mov	 eax, DWORD PTR [ebp+16656]
  002be	8b 50 08	 mov	 edx, DWORD PTR [eax+8]
  002c1	8b 8b 10 41 00
	00		 mov	 ecx, DWORD PTR [ebx+16656]
  002c7	89 51 08	 mov	 DWORD PTR [ecx+8], edx

; 798  : 		m_nStr	= pMover->m_nStr;

  002ca	8b 85 d4 00 00
	00		 mov	 eax, DWORD PTR [ebp+212]
  002d0	89 83 d4 00 00
	00		 mov	 DWORD PTR [ebx+212], eax

; 799  : 		m_nSta	= pMover->m_nSta;

  002d6	8b 8d d8 00 00
	00		 mov	 ecx, DWORD PTR [ebp+216]
  002dc	89 8b d8 00 00
	00		 mov	 DWORD PTR [ebx+216], ecx

; 800  : 		m_nDex	= pMover->m_nDex;

  002e2	8b 95 dc 00 00
	00		 mov	 edx, DWORD PTR [ebp+220]
  002e8	89 93 dc 00 00
	00		 mov	 DWORD PTR [ebx+220], edx

; 801  : 		m_nInt	= pMover->m_nInt;

  002ee	8b 85 e0 00 00
	00		 mov	 eax, DWORD PTR [ebp+224]
  002f4	89 83 e0 00 00
	00		 mov	 DWORD PTR [ebx+224], eax

; 802  : 		m_nLevel	= pMover->m_nLevel;

  002fa	8b 8d e4 00 00
	00		 mov	 ecx, DWORD PTR [ebp+228]
  00300	89 8b e4 00 00
	00		 mov	 DWORD PTR [ebx+228], ecx

; 803  : 		m_nExp1	= pMover->m_nExp1;

  00306	8b 95 f0 00 00
	00		 mov	 edx, DWORD PTR [ebp+240]
  0030c	89 93 f0 00 00
	00		 mov	 DWORD PTR [ebx+240], edx
  00312	8b 85 f4 00 00
	00		 mov	 eax, DWORD PTR [ebp+244]
  00318	89 83 f4 00 00
	00		 mov	 DWORD PTR [ebx+244], eax

; 804  : 		m_nFuel	= pMover->m_nFuel;

  0031e	8b 8d c0 00 00
	00		 mov	 ecx, DWORD PTR [ebp+192]
  00324	89 8b c0 00 00
	00		 mov	 DWORD PTR [ebx+192], ecx

; 805  : 		m_tmAccFuel	= pMover->m_tmAccFuel;

  0032a	8b 95 ec 41 00
	00		 mov	 edx, DWORD PTR [ebp+16876]
  00330	89 93 ec 41 00
	00		 mov	 DWORD PTR [ebx+16876], edx

; 806  : 		m_nSkillLevel	= pMover->m_nSkillLevel;

  00336	8b 85 08 41 00
	00		 mov	 eax, DWORD PTR [ebp+16648]
  0033c	89 83 08 41 00
	00		 mov	 DWORD PTR [ebx+16648], eax

; 807  : 		m_nSkillPoint	= pMover->m_nSkillPoint;

  00342	8b 8d 0c 41 00
	00		 mov	 ecx, DWORD PTR [ebp+16652]
  00348	89 8b 0c 41 00
	00		 mov	 DWORD PTR [ebx+16652], ecx

; 808  : 		
; 809  : 		m_idMarkingWorld	= pMover->m_idMarkingWorld;

  0034e	8b 95 cc 02 00
	00		 mov	 edx, DWORD PTR [ebp+716]
  00354	89 93 cc 02 00
	00		 mov	 DWORD PTR [ebx+716], edx

; 810  : 		m_vMarkingPos	= pMover->m_vMarkingPos;

  0035a	8d 85 d0 02 00
	00		 lea	 eax, DWORD PTR [ebp+720]
  00360	8b 10		 mov	 edx, DWORD PTR [eax]
  00362	8d 8b d0 02 00
	00		 lea	 ecx, DWORD PTR [ebx+720]
  00368	89 11		 mov	 DWORD PTR [ecx], edx
  0036a	8b 50 04	 mov	 edx, DWORD PTR [eax+4]
  0036d	89 51 04	 mov	 DWORD PTR [ecx+4], edx
  00370	8b 40 08	 mov	 eax, DWORD PTR [eax+8]
  00373	89 41 08	 mov	 DWORD PTR [ecx+8], eax

; 811  : 		m_nRemainGP	= pMover->m_nRemainGP;

  00376	8b 8d dc 02 00
	00		 mov	 ecx, DWORD PTR [ebp+732]
  0037c	89 8b dc 02 00
	00		 mov	 DWORD PTR [ebx+732], ecx

; 812  : #if __VER >= 12 // __MOD_TUTORIAL
; 813  : 		m_nTutorialState	= pMover->m_nTutorialState;

  00382	8b 95 b0 00 00
	00		 mov	 edx, DWORD PTR [ebp+176]
  00388	89 93 b0 00 00
	00		 mov	 DWORD PTR [ebx+176], edx

; 814  : #else	// __MOD_TUTORIAL
; 815  : 		m_nFlightLv	= pMover->m_nFlightLv;
; 816  : #endif	// __MOD_TUTORIAL
; 817  : 		m_nFxp	= pMover->m_nFxp;

  0038e	8b 85 b4 00 00
	00		 mov	 eax, DWORD PTR [ebp+180]
  00394	89 83 b4 00 00
	00		 mov	 DWORD PTR [ebx+180], eax

; 818  : 		m_bPlayer	= TRUE;

  0039a	c7 83 8c 00 00
	00 01 00 00 00	 mov	 DWORD PTR [ebx+140], 1

; 819  : 		m_nDeathExp	= pMover->m_nDeathExp;

  003a4	8b 8d f8 00 00
	00		 mov	 ecx, DWORD PTR [ebp+248]
  003aa	89 8b f8 00 00
	00		 mov	 DWORD PTR [ebx+248], ecx
  003b0	8b 95 fc 00 00
	00		 mov	 edx, DWORD PTR [ebp+252]
  003b6	89 93 fc 00 00
	00		 mov	 DWORD PTR [ebx+252], edx

; 820  : 		m_nDeathLevel = pMover->m_nDeathLevel;

  003bc	8b 85 e8 00 00
	00		 mov	 eax, DWORD PTR [ebp+232]

; 821  : 		memcpy( m_aJobSkill, pMover->m_aJobSkill, sizeof(m_aJobSkill) );

  003c2	8d b5 00 01 00
	00		 lea	 esi, DWORD PTR [ebp+256]
  003c8	8d bb 00 01 00
	00		 lea	 edi, DWORD PTR [ebx+256]
  003ce	b9 66 00 00 00	 mov	 ecx, 102		; 00000066H
  003d3	89 83 e8 00 00
	00		 mov	 DWORD PTR [ebx+232], eax
  003d9	f3 a5		 rep movsd

; 822  : #ifdef __SKILL_0205
; 823  : 		memcpy( m_abUpdateSkill, pMover->m_abUpdateSkill, sizeof(m_abUpdateSkill) );

  003db	8d b5 98 02 00
	00		 lea	 esi, DWORD PTR [ebp+664]
  003e1	8d bb 98 02 00
	00		 lea	 edi, DWORD PTR [ebx+664]
  003e7	b9 0c 00 00 00	 mov	 ecx, 12			; 0000000cH
  003ec	f3 a5		 rep movsd
  003ee	66 a5		 movsw
  003f0	a4		 movsb

; 824  : #endif	// __SKILL_0205
; 825  : 		memcpy( m_aQuest, pMover->m_aQuest, sizeof(QUEST) * MAX_QUEST );

  003f1	8b b5 a0 46 00
	00		 mov	 esi, DWORD PTR [ebp+18080]
  003f7	8b bb a0 46 00
	00		 mov	 edi, DWORD PTR [ebx+18080]
  003fd	b9 2c 01 00 00	 mov	 ecx, 300		; 0000012cH
  00402	f3 a5		 rep movsd

; 826  : 		m_nQuestSize	= pMover->m_nQuestSize;

  00404	8a 8d a8 46 00
	00		 mov	 cl, BYTE PTR [ebp+18088]

; 827  : 		memcpy( m_aCompleteQuest, pMover->m_aCompleteQuest, sizeof(WORD) * MAX_COMPLETE_QUEST );

  0040a	8b bb a4 46 00
	00		 mov	 edi, DWORD PTR [ebx+18084]
  00410	88 8b a8 46 00
	00		 mov	 BYTE PTR [ebx+18088], cl
  00416	8b b5 a4 46 00
	00		 mov	 esi, DWORD PTR [ebp+18084]
  0041c	b9 96 00 00 00	 mov	 ecx, 150		; 00000096H
  00421	f3 a5		 rep movsd

; 828  : 		m_nCompleteQuestSize	= pMover->m_nCompleteQuestSize;

  00423	8a 95 a9 46 00
	00		 mov	 dl, BYTE PTR [ebp+18089]

; 829  : #if __VER >= 15 // __IMPROVE_QUEST_INTERFACE
; 830  : 		memcpy( m_aCheckedQuest, pMover->m_aCheckedQuest, sizeof(WORD) * MAX_CHECKED_QUEST );

  00429	8b 8b bc 46 00
	00		 mov	 ecx, DWORD PTR [ebx+18108]
  0042f	88 93 a9 46 00
	00		 mov	 BYTE PTR [ebx+18089], dl
  00435	8b 85 bc 46 00
	00		 mov	 eax, DWORD PTR [ebp+18108]
  0043b	8b 10		 mov	 edx, DWORD PTR [eax]
  0043d	89 11		 mov	 DWORD PTR [ecx], edx
  0043f	8b 50 04	 mov	 edx, DWORD PTR [eax+4]
  00442	89 51 04	 mov	 DWORD PTR [ecx+4], edx
  00445	66 8b 40 08	 mov	 ax, WORD PTR [eax+8]
  00449	66 89 41 08	 mov	 WORD PTR [ecx+8], ax

; 831  : 		m_nCheckedQuestSize	= pMover->m_nCheckedQuestSize;

  0044d	8a 8d c0 46 00
	00		 mov	 cl, BYTE PTR [ebp+18112]
  00453	88 8b c0 46 00
	00		 mov	 BYTE PTR [ebx+18112], cl

; 832  : #endif // __IMPROVE_QUEST_INTERFACE
; 833  : 		memcpy( m_dwSMTime, pMover->m_dwSMTime, sizeof(m_dwSMTime) );

  00459	8d b5 a4 44 00
	00		 lea	 esi, DWORD PTR [ebp+17572]
  0045f	8d bb a4 44 00
	00		 lea	 edi, DWORD PTR [ebx+17572]
  00465	b9 1a 00 00 00	 mov	 ecx, 26			; 0000001aH
  0046a	f3 a5		 rep movsd

; 834  : 		m_nPlusMaxHitPoint	= pMover->m_nPlusMaxHitPoint;

  0046c	8b 95 a0 44 00
	00		 mov	 edx, DWORD PTR [ebp+17568]
  00472	89 93 a0 44 00
	00		 mov	 DWORD PTR [ebx+17568], edx

; 835  : 		m_nAttackResistLeft	= pMover->m_nAttackResistLeft;

  00478	8a 85 0c 45 00
	00		 mov	 al, BYTE PTR [ebp+17676]
  0047e	88 83 0c 45 00
	00		 mov	 BYTE PTR [ebx+17676], al

; 836  : 		m_nAttackResistRight	= pMover->m_nAttackResistRight;

  00484	8a 8d 0d 45 00
	00		 mov	 cl, BYTE PTR [ebp+17677]
  0048a	88 8b 0d 45 00
	00		 mov	 BYTE PTR [ebx+17677], cl

; 837  : 		m_nDefenseResist	= pMover->m_nDefenseResist;

  00490	8a 95 0e 45 00
	00		 mov	 dl, BYTE PTR [ebp+17678]
  00496	88 93 0e 45 00
	00		 mov	 BYTE PTR [ebx+17678], dl

; 838  : #ifndef __BUFF_1107
; 839  : 		memcpy( m_SkillState.m_aSkillInfluence, pMover->m_SkillState.m_aSkillInfluence, sizeof(m_SkillState.m_aSkillInfluence) );
; 840  : #endif	// __BUFF_1107
; 841  : 		m_dwReturnWorldID	= pMover->m_dwReturnWorldID;

  0049c	8b 85 e8 41 00
	00		 mov	 eax, DWORD PTR [ebp+16872]
  004a2	89 83 e8 41 00
	00		 mov	 DWORD PTR [ebx+16872], eax

; 842  : 		m_vReturnPos	= pMover->m_vReturnPos;

  004a8	8d 8d dc 41 00
	00		 lea	 ecx, DWORD PTR [ebp+16860]
  004ae	8b 01		 mov	 eax, DWORD PTR [ecx]
  004b0	8d 93 dc 41 00
	00		 lea	 edx, DWORD PTR [ebx+16860]
  004b6	89 02		 mov	 DWORD PTR [edx], eax
  004b8	8b 41 04	 mov	 eax, DWORD PTR [ecx+4]
  004bb	89 42 04	 mov	 DWORD PTR [edx+4], eax
  004be	8b 49 08	 mov	 ecx, DWORD PTR [ecx+8]

; 843  : 		
; 844  : 		for( int i = 0; i < 3; i++ )

  004c1	8b fd		 mov	 edi, ebp
  004c3	89 4a 08	 mov	 DWORD PTR [edx+8], ecx
  004c6	8d b3 94 41 00
	00		 lea	 esi, DWORD PTR [ebx+16788]
  004cc	2b fb		 sub	 edi, ebx
  004ce	c7 44 24 14 03
	00 00 00	 mov	 DWORD PTR tv382[esp+12], 3
$L187051:

; 845  : 			m_Bank[i].Copy( pMover->m_Bank[i] );

  004d6	8d 14 37	 lea	 edx, DWORD PTR [edi+esi]
  004d9	52		 push	 edx
  004da	8b ce		 mov	 ecx, esi
  004dc	e8 00 00 00 00	 call	 ?Copy@?$CItemContainer@VCItemElem@@@@QAEXAAV1@@Z ; CItemContainer<CItemElem>::Copy
  004e1	8b 44 24 14	 mov	 eax, DWORD PTR tv382[esp+12]
  004e5	83 c6 14	 add	 esi, 20			; 00000014H
  004e8	48		 dec	 eax
  004e9	89 44 24 14	 mov	 DWORD PTR tv382[esp+12], eax
  004ed	75 e7		 jne	 SHORT $L187051

; 846  : 		memcpy( m_idPlayerBank, pMover->m_idPlayerBank, sizeof(m_idPlayerBank) );

  004ef	8d 85 88 41 00
	00		 lea	 eax, DWORD PTR [ebp+16776]
  004f5	8b 10		 mov	 edx, DWORD PTR [eax]
  004f7	8d 8b 88 41 00
	00		 lea	 ecx, DWORD PTR [ebx+16776]
  004fd	89 11		 mov	 DWORD PTR [ecx], edx
  004ff	8b 50 04	 mov	 edx, DWORD PTR [eax+4]
  00502	89 51 04	 mov	 DWORD PTR [ecx+4], edx
  00505	8b 40 08	 mov	 eax, DWORD PTR [eax+8]
  00508	89 41 08	 mov	 DWORD PTR [ecx+8], eax

; 847  : 		memcpy( m_dwGoldBank, pMover->m_dwGoldBank, sizeof( m_dwGoldBank) );

  0050b	8d 8d d0 41 00
	00		 lea	 ecx, DWORD PTR [ebp+16848]
  00511	8b 01		 mov	 eax, DWORD PTR [ecx]
  00513	8d 93 d0 41 00
	00		 lea	 edx, DWORD PTR [ebx+16848]
  00519	89 02		 mov	 DWORD PTR [edx], eax
  0051b	8b 41 04	 mov	 eax, DWORD PTR [ecx+4]
  0051e	89 42 04	 mov	 DWORD PTR [edx+4], eax
  00521	8b 49 08	 mov	 ecx, DWORD PTR [ecx+8]
  00524	89 4a 08	 mov	 DWORD PTR [edx+8], ecx

; 848  : 
; 849  : #ifdef __DBSERVER
; 850  : #ifdef __EVENT_1101
; 851  : #ifdef __EVENT_1101_2
; 852  : 		m_nEventFlag	= pMover->m_nEventFlag;

  00527	8b 95 18 42 00
	00		 mov	 edx, DWORD PTR [ebp+16920]
  0052d	89 93 18 42 00
	00		 mov	 DWORD PTR [ebx+16920], edx
  00533	8b 85 1c 42 00
	00		 mov	 eax, DWORD PTR [ebp+16924]
  00539	89 83 1c 42 00
	00		 mov	 DWORD PTR [ebx+16924], eax

; 853  : #else // __EVENT_1101_2
; 854  : 		m_dwEventFlag	= pMover->m_dwEventFlag;
; 855  : #endif // __EVENT_1101_2
; 856  : 		m_dwEventTime	= pMover->m_dwEventTime;

  0053f	8b 8d 20 42 00
	00		 mov	 ecx, DWORD PTR [ebp+16928]
  00545	89 8b 20 42 00
	00		 mov	 DWORD PTR [ebx+16928], ecx

; 857  : 		m_dwEventElapsed	= pMover->m_dwEventElapsed;

  0054b	8b 95 24 42 00
	00		 mov	 edx, DWORD PTR [ebp+16932]
  00551	89 93 24 42 00
	00		 mov	 DWORD PTR [ebx+16932], edx

; 858  : #endif	// __EVENT_1101
; 859  : #endif	// __DBSERVER
; 860  : 
; 861  : #if __VER >= 9	// __PET_0410
; 862  : 		SetPetId( pMover->GetPetId() );

  00557	8b 85 30 42 00
	00		 mov	 eax, DWORD PTR [ebp+16944]
  0055d	89 83 30 42 00
	00		 mov	 DWORD PTR [ebx+16944], eax

; 863  : #endif	// __PET_0410
; 864  : #if __VER >= 9	//__AI_0509
; 865  : 		m_fSpeedFactor	= pMover->m_fSpeedFactor;

  00563	8b 8d 34 42 00
	00		 mov	 ecx, DWORD PTR [ebp+16948]
  00569	89 8b 34 42 00
	00		 mov	 DWORD PTR [ebx+16948], ecx

; 866  : #endif	// __AI_0509
; 867  : 
; 868  : #ifdef __EXP_ANGELEXP_LOG
; 869  : 		m_nExpLog = pMover->m_nExpLog;

  0056f	8b 95 38 42 00
	00		 mov	 edx, DWORD PTR [ebp+16952]
  00575	89 93 38 42 00
	00		 mov	 DWORD PTR [ebx+16952], edx

; 870  : 		m_nAngelExpLog = pMover->m_nAngelExpLog;

  0057b	8b 85 3c 42 00
	00		 mov	 eax, DWORD PTR [ebp+16956]
  00581	89 83 3c 42 00
	00		 mov	 DWORD PTR [ebx+16956], eax

; 871  : #endif // __EXP_ANGELEXP_LOG
; 872  : 
; 873  : #ifdef __EVENTLUA_COUPON
; 874  : 		m_nCoupon = pMover->m_nCoupon;

  00587	8b 8d 40 42 00
	00		 mov	 ecx, DWORD PTR [ebp+16960]
  0058d	89 8b 40 42 00
	00		 mov	 DWORD PTR [ebx+16960], ecx

; 875  : #endif // __EVENTLUA_COUPON
; 876  : 
; 877  : #ifdef __JEFF_9_20
; 878  : 		m_dwMute	= pMover->m_dwMute;

  00593	8b 95 f0 41 00
	00		 mov	 edx, DWORD PTR [ebp+16880]
  00599	89 93 f0 41 00
	00		 mov	 DWORD PTR [ebx+16880], edx

; 879  : #endif	// __JEFF_9_20
; 880  : #if __VER >= 13 // __HONORABLE_TITLE			// 
; 881  : 		m_nHonor	= pMover->m_nHonor;

  0059f	8b 85 44 42 00
	00		 mov	 eax, DWORD PTR [ebp+16964]
  005a5	89 83 44 42 00
	00		 mov	 DWORD PTR [ebx+16964], eax

; 882  : 		memcpy( m_aHonorTitle, pMover->m_aHonorTitle, sizeof(int) * MAX_HONOR_TITLE );

  005ab	8d b5 48 42 00
	00		 lea	 esi, DWORD PTR [ebp+16968]
  005b1	8d bb 48 42 00
	00		 lea	 edi, DWORD PTR [ebx+16968]
  005b7	b9 96 00 00 00	 mov	 ecx, 150		; 00000096H
  005bc	f3 a5		 rep movsd

; 883  : #endif	// __HONORABLE_TITLE			// 
; 884  : 
; 885  : #if __VER >= 15 // __GUILD_HOUSE
; 886  : 	m_nRestPoint = pMover->m_nRestPoint;

  005be	8b 8d cc 46 00
	00		 mov	 ecx, DWORD PTR [ebp+18124]
  005c4	89 8b cc 46 00
	00		 mov	 DWORD PTR [ebx+18124], ecx

; 887  : 	m_tLogOut = pMover->m_tLogOut;

  005ca	8b 95 d0 46 00
	00		 mov	 edx, DWORD PTR [ebp+18128]
  005d0	5f		 pop	 edi
  005d1	89 93 d0 46 00
	00		 mov	 DWORD PTR [ebx+18128], edx
  005d7	5e		 pop	 esi
$L187045:
  005d8	5d		 pop	 ebp
  005d9	5b		 pop	 ebx

; 888  : #endif // __GUILD_HOUSE
; 889  : 
; 890  : 	}
; 891  : }

  005da	c2 08 00	 ret	 8
?Copy@CMover@@QAEXPAV1@H@Z ENDP				; CMover::Copy
_TEXT	ENDS
PUBLIC	?GetPetItem@CMover@@QAEPAVCItemElem@@XZ		; CMover::GetPetItem
; Function compile flags: /Ogty
;	COMDAT ?GetPetItem@CMover@@QAEPAVCItemElem@@XZ
_TEXT	SEGMENT
?GetPetItem@CMover@@QAEPAVCItemElem@@XZ PROC NEAR	; CMover::GetPetItem, COMDAT
; _this$ = ecx

; 951  : 	return m_Inventory.GetAtId( m_dwPetId );

  00000	8b 81 30 42 00
	00		 mov	 eax, DWORD PTR [ecx+16944]
  00006	3b 81 24 41 00
	00		 cmp	 eax, DWORD PTR [ecx+16676]
  0000c	72 03		 jb	 SHORT $L188676
  0000e	33 c0		 xor	 eax, eax

; 952  : }

  00010	c3		 ret	 0

; 951  : 	return m_Inventory.GetAtId( m_dwPetId );

$L188676:
  00011	8d 14 80	 lea	 edx, DWORD PTR [eax+eax*4]
  00014	8b 81 20 41 00
	00		 mov	 eax, DWORD PTR [ecx+16672]
  0001a	c1 e2 05	 shl	 edx, 5
  0001d	03 d0		 add	 edx, eax
  0001f	8b 42 08	 mov	 eax, DWORD PTR [edx+8]
  00022	f7 d8		 neg	 eax
  00024	1b c0		 sbb	 eax, eax
  00026	23 c2		 and	 eax, edx

; 952  : }

  00028	c3		 ret	 0
?GetPetItem@CMover@@QAEPAVCItemElem@@XZ ENDP		; CMover::GetPetItem
_TEXT	ENDS
PUBLIC	?_Buynode@?$list@PAXV?$allocator@PAX@std@@@std@@IAEPAU_Node@?$_List_nod@PAXV?$allocator@PAX@std@@@2@XZ ; std::list<void *,std::allocator<void *> >::_Buynode
EXTRN	__CxxThrowException@8:NEAR
; Function compile flags: /Ogty
; File c:\program files\microsoft visual studio .net 2003\vc7\include\list
;	COMDAT ?_Buynode@?$list@PAXV?$allocator@PAX@std@@@std@@IAEPAU_Node@?$_List_nod@PAXV?$allocator@PAX@std@@@2@XZ
_TEXT	SEGMENT
?_Buynode@?$list@PAXV?$allocator@PAX@std@@@std@@IAEPAU_Node@?$_List_nod@PAXV?$allocator@PAX@std@@@2@XZ PROC NEAR ; std::list<void *,std::allocator<void *> >::_Buynode, COMDAT
; _this$ = ecx

; 899  : 		_Nodeptr _Pnode = this->_Alnod.allocate(1);

  00000	6a 0c		 push	 12			; 0000000cH
  00002	e8 00 00 00 00	 call	 ??2@YAPAXI@Z		; operator new
  00007	83 c4 04	 add	 esp, 4

; 900  : 		int _Linkcnt = 0;
; 901  : 
; 902  : 		_TRY_BEGIN
; 903  : 		this->_Alptr.construct(&_Nextnode(_Pnode), _Pnode);

  0000a	85 c0		 test	 eax, eax
  0000c	74 02		 je	 SHORT $L188716
  0000e	89 00		 mov	 DWORD PTR [eax], eax
$L188716:

; 904  : 		++_Linkcnt;
; 905  : 		this->_Alptr.construct(&_Prevnode(_Pnode), _Pnode);

  00010	8d 48 04	 lea	 ecx, DWORD PTR [eax+4]
  00013	85 c9		 test	 ecx, ecx
  00015	74 02		 je	 SHORT $L188744
  00017	89 01		 mov	 DWORD PTR [ecx], eax
$L188744:

; 906  : 		_CATCH_ALL
; 907  : 		if (0 < _Linkcnt)
; 908  : 			this->_Alptr.destroy(&_Nextnode(_Pnode));
; 909  : 		this->_Alnod.deallocate(_Pnode, 1);
; 910  : 		_RERAISE;
; 911  : 		_CATCH_END
; 912  : 		return (_Pnode);
; 913  : 		}

  00019	c3		 ret	 0
?_Buynode@?$list@PAXV?$allocator@PAX@std@@@std@@IAEPAU_Node@?$_List_nod@PAXV?$allocator@PAX@std@@@2@XZ ENDP ; std::list<void *,std::allocator<void *> >::_Buynode
_TEXT	ENDS
PUBLIC	?clear@?$list@PAXV?$allocator@PAX@std@@@std@@QAEXXZ ; std::list<void *,std::allocator<void *> >::clear
; Function compile flags: /Ogty
;	COMDAT ?clear@?$list@PAXV?$allocator@PAX@std@@@std@@QAEXXZ
_TEXT	SEGMENT
?clear@?$list@PAXV?$allocator@PAX@std@@@std@@QAEXXZ PROC NEAR ; std::list<void *,std::allocator<void *> >::clear, COMDAT
; _this$ = ecx

; 610  : 		{	// erase all

  00000	56		 push	 esi
  00001	8b f1		 mov	 esi, ecx

; 611  : 		_Nodeptr _Pnext;
; 612  : 		_Nodeptr _Pnode = _Nextnode(_Myhead);

  00003	8b 4e 04	 mov	 ecx, DWORD PTR [esi+4]
  00006	8b 01		 mov	 eax, DWORD PTR [ecx]

; 613  : 		_Nextnode(_Myhead) = _Myhead;

  00008	89 09		 mov	 DWORD PTR [ecx], ecx

; 614  : 		_Prevnode(_Myhead) = _Myhead;

  0000a	8b 4e 04	 mov	 ecx, DWORD PTR [esi+4]
  0000d	89 49 04	 mov	 DWORD PTR [ecx+4], ecx

; 615  : 		_Mysize = 0;
; 616  : 
; 617  : 		for (; _Pnode != _Myhead; _Pnode = _Pnext)

  00010	3b 46 04	 cmp	 eax, DWORD PTR [esi+4]
  00013	c7 46 08 00 00
	00 00		 mov	 DWORD PTR [esi+8], 0
  0001a	74 19		 je	 SHORT $L187141
  0001c	57		 push	 edi
  0001d	8d 49 00	 npad	 3
$L187139:

; 618  : 			{	// delete an element
; 619  : 			_Pnext = _Nextnode(_Pnode);

  00020	8b 38		 mov	 edi, DWORD PTR [eax]

; 620  : 			this->_Alnod.destroy(_Pnode);
; 621  : 			this->_Alnod.deallocate(_Pnode, 1);

  00022	50		 push	 eax
  00023	e8 00 00 00 00	 call	 ??3@YAXPAX@Z		; operator delete
  00028	8b 4e 04	 mov	 ecx, DWORD PTR [esi+4]
  0002b	83 c4 04	 add	 esp, 4
  0002e	3b f9		 cmp	 edi, ecx
  00030	8b c7		 mov	 eax, edi
  00032	75 ec		 jne	 SHORT $L187139
  00034	5f		 pop	 edi
$L187141:
  00035	5e		 pop	 esi

; 622  : 			}
; 623  : 		}

  00036	c3		 ret	 0
?clear@?$list@PAXV?$allocator@PAX@std@@@std@@QAEXXZ ENDP ; std::list<void *,std::allocator<void *> >::clear
_TEXT	ENDS
PUBLIC	??0?$_List_ptr@PAXV?$allocator@PAX@std@@@std@@IAE@V?$allocator@PAX@1@@Z ; std::_List_ptr<void *,std::allocator<void *> >::_List_ptr<void *,std::allocator<void *> >
; Function compile flags: /Ogty
;	COMDAT ??0?$_List_ptr@PAXV?$allocator@PAX@std@@@std@@IAE@V?$allocator@PAX@1@@Z
_TEXT	SEGMENT
__Al$ = 8						; size = 1
??0?$_List_ptr@PAXV?$allocator@PAX@std@@@std@@IAE@V?$allocator@PAX@1@@Z PROC NEAR ; std::_List_ptr<void *,std::allocator<void *> >::_List_ptr<void *,std::allocator<void *> >, COMDAT
; _this$ = ecx

; 64   : 		{	// construct base, and allocator from _Al

  00000	8b c1		 mov	 eax, ecx

; 65   : 		}

  00002	c2 04 00	 ret	 4
??0?$_List_ptr@PAXV?$allocator@PAX@std@@@std@@IAE@V?$allocator@PAX@1@@Z ENDP ; std::_List_ptr<void *,std::allocator<void *> >::_List_ptr<void *,std::allocator<void *> >
_TEXT	ENDS
PUBLIC	?Add@?$CItemContainer@VCItemElem@@@@QAEHKFHKHHPAEPAF0HHKKKKKK_J@Z ; CItemContainer<CItemElem>::Add
PUBLIC	??_C@_0FA@MKEIOHMC@template?5?$DMclass?5T?$DO?5BOOL?5CItemCon@ ; `string'
;	COMDAT ??_C@_0FA@MKEIOHMC@template?5?$DMclass?5T?$DO?5BOOL?5CItemCon@
; File c:\documents and settings\test\mes documents\source\virtuos_v17\build\program\_network\objects\obj.h
CONST	SEGMENT
??_C@_0FA@MKEIOHMC@template?5?$DMclass?5T?$DO?5BOOL?5CItemCon@ DB 'templa'
	DB	'te <class T> BOOL CItemContainer<T>::Add( DWORD dwItemId... :'
	DB	' nNumtmp > 0', 00H				; `string'
; Function compile flags: /Ogty
CONST	ENDS
;	COMDAT ?Add@?$CItemContainer@VCItemElem@@@@QAEHKFHKHHPAEPAF0HHKKKKKK_J@Z
_TEXT	SEGMENT
$T188809 = -8						; size = 4
_nId$ = -8						; size = 4
_this$ = -4						; size = 4
_dwItemId$ = 8						; size = 4
_nNum$ = 12						; size = 2
_i$187226 = 12						; size = 4
_i$187211 = 12						; size = 4
_nOption$ = 16						; size = 4
_iSerialNumber$ = 20					; size = 4
_nItemResist$ = 24					; size = 4
_nResistAbilityOption$ = 28				; size = 4
_pnId$ = 32						; size = 4
_pnNum$ = 36						; size = 4
_nNumtmp$ = 40						; size = 2
_pnCount$ = 40						; size = 4
_bCharged$ = 44						; size = 4
_nPiercedSize$ = 48					; size = 4
_dwItemId0$ = 52					; size = 4
_dwItemId1$ = 56					; size = 4
_dwItemId2$ = 60					; size = 4
_dwItemId3$ = 64					; size = 4
_dwItemId4$ = 68					; size = 4
_dwKeepTime$ = 72					; size = 4
_iRandomOptItemId$ = 76					; size = 8
?Add@?$CItemContainer@VCItemElem@@@@QAEHKFHKHHPAEPAF0HHKKKKKK_J@Z PROC NEAR ; CItemContainer<CItemElem>::Add, COMDAT
; _this$ = ecx

; 393  : {

  00000	83 ec 08	 sub	 esp, 8

; 394  : #if defined(__DBSERVER)
; 395  : 	if( pnId )

  00003	8b 44 24 24	 mov	 eax, DWORD PTR _pnId$[esp+4]
  00007	85 c0		 test	 eax, eax
  00009	55		 push	 ebp
  0000a	8b 6c 24 30	 mov	 ebp, DWORD PTR _pnCount$[esp+8]
  0000e	56		 push	 esi
  0000f	57		 push	 edi
  00010	8b f9		 mov	 edi, ecx
  00012	89 7c 24 10	 mov	 DWORD PTR _this$[esp+20], edi
  00016	74 04		 je	 SHORT $L187201

; 396  : 		*pnCount	= 0;

  00018	c6 45 00 00	 mov	 BYTE PTR [ebp], 0
$L187201:

; 397  : 	ItemProp* pItemProp		= prj.GetItemProp( dwItemId );

  0001c	8b 44 24 18	 mov	 eax, DWORD PTR _dwItemId$[esp+16]
  00020	3b 05 50 00 00
	00		 cmp	 eax, DWORD PTR ?prj@@3VCProject@@A+80
  00026	72 04		 jb	 SHORT $L188814
  00028	33 f6		 xor	 esi, esi
  0002a	eb 09		 jmp	 SHORT $L188870
$L188814:
  0002c	8b 0d 40 00 00
	00		 mov	 ecx, DWORD PTR ?prj@@3VCProject@@A+64
  00032	8b 34 81	 mov	 esi, DWORD PTR [ecx+eax*4]
$L188870:

; 398  : 	ASSERT( pItemProp );
; 399  : 	BOOL bPackItem = TRUE;
; 400  : 	int nId;
; 401  : 	short nNumtmp	= nNum;
; 402  : 
; 403  : 	if( IsFull( pItemProp, nNum, bCharged ) )

  00035	8b 54 24 3c	 mov	 edx, DWORD PTR _bCharged$[esp+16]
  00039	8b 44 24 1c	 mov	 eax, DWORD PTR _nNum$[esp+16]
  0003d	52		 push	 edx
  0003e	50		 push	 eax
  0003f	56		 push	 esi
  00040	8b cf		 mov	 ecx, edi
  00042	89 74 24 18	 mov	 DWORD PTR $T188809[esp+32], esi
  00046	89 44 24 44	 mov	 DWORD PTR _nNumtmp$[esp+28], eax
  0004a	e8 00 00 00 00	 call	 ?IsFull@?$CItemContainer@VCItemElem@@@@QAEHPAUItemProp@@FH@Z ; CItemContainer<CItemElem>::IsFull
  0004f	85 c0		 test	 eax, eax
  00051	74 0b		 je	 SHORT $L187207
  00053	5f		 pop	 edi
  00054	5e		 pop	 esi

; 404  : 		return FALSE;

  00055	33 c0		 xor	 eax, eax
  00057	5d		 pop	 ebp

; 514  : #endif	// __DBSERVER
; 515  : 	return FALSE;
; 516  : }

  00058	83 c4 08	 add	 esp, 8
  0005b	c2 4c 00	 ret	 76			; 0000004cH
$L187207:

; 405  : 
; 406  : 	if( pItemProp->dwPackMax == 1 )

  0005e	83 7e 6c 01	 cmp	 DWORD PTR [esi+108], 1
  00062	53		 push	 ebx

; 407  : 		bPackItem = FALSE;
; 408  : 
; 409  : 	CItemElem* pElemtmp;
; 410  : 	if( bPackItem )

  00063	74 11		 je	 SHORT $L187214

; 411  : 	{
; 412  : 		for( DWORD i = 0; i < m_dwIndexNum; i++ )	//   

  00065	8b 4f 08	 mov	 ecx, DWORD PTR [edi+8]
  00068	33 c0		 xor	 eax, eax
  0006a	85 c9		 test	 ecx, ecx
  0006c	89 44 24 20	 mov	 DWORD PTR _i$187211[esp+20], eax
  00070	0f 87 91 01 00
	00		 ja	 $L187212
$L187214:

; 437  : 					}
; 438  : 					nNumtmp = 0;
; 439  : 					break;
; 440  : 				}
; 441  : 			}
; 442  : 		}
; 443  : 	}
; 444  : 
; 445  : 	if( nNumtmp > 0 )

  00076	66 83 7c 24 3c
	00		 cmp	 WORD PTR _nNumtmp$[esp+20], 0
  0007c	0f 8e 72 01 00
	00		 jle	 $L188866

; 446  : 	{
; 447  : 		for( DWORD i = 0; i < m_dwIndexNum; i++ )

  00082	8b 47 08	 mov	 eax, DWORD PTR [edi+8]
  00085	33 c9		 xor	 ecx, ecx
  00087	85 c0		 test	 eax, eax
  00089	89 4c 24 20	 mov	 DWORD PTR _i$187226[esp+20], ecx
  0008d	0f 86 4c 01 00
	00		 jbe	 $L187242
$L187227:

; 448  : 		{
; 449  : 			nId	= m_apIndex[i];

  00093	8b 57 04	 mov	 edx, DWORD PTR [edi+4]
  00096	8b 04 8a	 mov	 eax, DWORD PTR [edx+ecx*4]

; 450  : 			pElemtmp	= (CItemElem*)&m_apItem[nId];

  00099	8b 57 0c	 mov	 edx, DWORD PTR [edi+12]
  0009c	8d 34 80	 lea	 esi, DWORD PTR [eax+eax*4]
  0009f	c1 e6 05	 shl	 esi, 5

; 451  : 			if( pElemtmp->IsEmpty() )

  000a2	8b 5c 16 08	 mov	 ebx, DWORD PTR [esi+edx+8]
  000a6	03 f2		 add	 esi, edx
  000a8	33 d2		 xor	 edx, edx
  000aa	3b da		 cmp	 ebx, edx
  000ac	89 44 24 10	 mov	 DWORD PTR _nId$[esp+24], eax
  000b0	0f 85 19 01 00
	00		 jne	 $L187228

; 452  : 			{
; 453  : 				pElemtmp->m_dwItemId	= dwItemId;

  000b6	8b 7c 24 1c	 mov	 edi, DWORD PTR _dwItemId$[esp+20]
  000ba	89 7e 08	 mov	 DWORD PTR [esi+8], edi

; 454  : 				pElemtmp->m_dwObjId		= nId;

  000bd	89 46 04	 mov	 DWORD PTR [esi+4], eax

; 455  : 				pElemtmp->m_dwObjIndex	= i;

  000c0	89 4e 2c	 mov	 DWORD PTR [esi+44], ecx

; 456  : 				ItemProp* pItemProp		= prj.GetItemProp( dwItemId );

  000c3	3b 3d 50 00 00
	00		 cmp	 edi, DWORD PTR ?prj@@3VCProject@@A+80
  000c9	0f 82 1f 02 00
	00		 jb	 $L188832
  000cf	33 db		 xor	 ebx, ebx
$L187233:

; 460  : 					pElemtmp->m_nHitPoint	= 0;

  000d1	89 56 74	 mov	 DWORD PTR [esi+116], edx
$L187234:

; 461  : 
; 462  : 				pElemtmp->m_nRepair		= 0;
; 463  : 				pElemtmp->SetOption( nOption );
; 464  : 				pElemtmp->SetSerialNumber( iSerialNumber );

  000d4	8b 4c 24 28	 mov	 ecx, DWORD PTR _iSerialNumber$[esp+20]
  000d8	8b 44 24 24	 mov	 eax, DWORD PTR _nOption$[esp+20]
  000dc	89 4e 30	 mov	 DWORD PTR [esi+48], ecx

; 465  : 				pElemtmp->m_bItemResist = nItemResist;
; 466  : 				pElemtmp->m_nResistAbilityOption = nResistAbilityOption;

  000df	8b 4c 24 30	 mov	 ecx, DWORD PTR _nResistAbilityOption$[esp+20]
  000e3	89 46 68	 mov	 DWORD PTR [esi+104], eax
  000e6	8a 44 24 2c	 mov	 al, BYTE PTR _nItemResist$[esp+20]
  000ea	89 8e 80 00 00
	00		 mov	 DWORD PTR [esi+128], ecx

; 467  : 				pElemtmp->m_bCharged = bCharged;
; 468  : 				pElemtmp->m_dwKeepTime	= 0;
; 469  : 
; 470  : 				pElemtmp->SetPiercingSize( nPiercedSize );

  000f0	8b 4c 24 44	 mov	 ecx, DWORD PTR _nPiercedSize$[esp+20]
  000f4	88 46 7c	 mov	 BYTE PTR [esi+124], al
  000f7	8b 44 24 40	 mov	 eax, DWORD PTR _bCharged$[esp+20]
  000fb	8d 7e 34	 lea	 edi, DWORD PTR [esi+52]
  000fe	51		 push	 ecx
  000ff	8b cf		 mov	 ecx, edi
  00101	89 56 6c	 mov	 DWORD PTR [esi+108], edx
  00104	89 86 88 00 00
	00		 mov	 DWORD PTR [esi+136], eax
  0010a	89 96 8c 00 00
	00		 mov	 DWORD PTR [esi+140], edx
  00110	e8 00 00 00 00	 call	 ?SetPiercingSize@CPiercing@@QAEXH@Z ; CPiercing::SetPiercingSize

; 471  : 				pElemtmp->SetPiercingItem( 0, dwItemId0 );

  00115	8b 54 24 48	 mov	 edx, DWORD PTR _dwItemId0$[esp+20]
  00119	52		 push	 edx
  0011a	6a 00		 push	 0
  0011c	8b cf		 mov	 ecx, edi
  0011e	e8 00 00 00 00	 call	 ?SetPiercingItem@CPiercing@@QAEXHK@Z ; CPiercing::SetPiercingItem

; 472  : 				pElemtmp->SetPiercingItem( 1, dwItemId1 );

  00123	8b 44 24 4c	 mov	 eax, DWORD PTR _dwItemId1$[esp+20]
  00127	50		 push	 eax
  00128	6a 01		 push	 1
  0012a	8b cf		 mov	 ecx, edi
  0012c	e8 00 00 00 00	 call	 ?SetPiercingItem@CPiercing@@QAEXHK@Z ; CPiercing::SetPiercingItem

; 473  : 				pElemtmp->SetPiercingItem( 2, dwItemId2 );

  00131	8b 4c 24 50	 mov	 ecx, DWORD PTR _dwItemId2$[esp+20]
  00135	51		 push	 ecx
  00136	6a 02		 push	 2
  00138	8b cf		 mov	 ecx, edi
  0013a	e8 00 00 00 00	 call	 ?SetPiercingItem@CPiercing@@QAEXHK@Z ; CPiercing::SetPiercingItem

; 474  : 				pElemtmp->SetPiercingItem( 3, dwItemId3 );

  0013f	8b 54 24 54	 mov	 edx, DWORD PTR _dwItemId3$[esp+20]
  00143	52		 push	 edx
  00144	6a 03		 push	 3
  00146	8b cf		 mov	 ecx, edi
  00148	e8 00 00 00 00	 call	 ?SetPiercingItem@CPiercing@@QAEXHK@Z ; CPiercing::SetPiercingItem

; 475  : #ifdef __SEND_ITEM_ULTIMATE
; 476  : 				pElemtmp->SetPiercingItem( 4, dwItemId4 );

  0014d	8b 44 24 58	 mov	 eax, DWORD PTR _dwItemId4$[esp+20]
  00151	50		 push	 eax
  00152	6a 04		 push	 4
  00154	8b cf		 mov	 ecx, edi
  00156	e8 00 00 00 00	 call	 ?SetPiercingItem@CPiercing@@QAEXHK@Z ; CPiercing::SetPiercingItem

; 477  : #endif // __SEND_ITEM_ULTIMATE
; 478  : 				if( dwKeepTime )

  0015b	8b 44 24 5c	 mov	 eax, DWORD PTR _dwKeepTime$[esp+20]
  0015f	85 c0		 test	 eax, eax
  00161	74 06		 je	 SHORT $L187235

; 479  : 					pElemtmp->m_dwKeepTime	= dwKeepTime;

  00163	89 86 8c 00 00
	00		 mov	 DWORD PTR [esi+140], eax
$L187235:

; 480  : #if __VER >= 11 // __SYS_IDENTIFY
; 481  : 				pElemtmp->SetRandomOptItemId( iRandomOptItemId );

  00169	8b 4c 24 60	 mov	 ecx, DWORD PTR _iRandomOptItemId$[esp+20]
  0016d	8b 54 24 64	 mov	 edx, DWORD PTR _iRandomOptItemId$[esp+24]

; 482  : #else	// __SYS_IDENTIFY
; 483  : 				pElemtmp->SetRandomOptItemId( nRandomOptItemId );
; 484  : #endif	// __SYS_IDENTIFY
; 485  : 				
; 486  : 				if( nNumtmp > (short)pItemProp->dwPackMax )

  00171	66 8b 44 24 3c	 mov	 ax, WORD PTR _nNumtmp$[esp+20]
  00176	89 8e 90 00 00
	00		 mov	 DWORD PTR [esi+144], ecx
  0017c	89 96 94 00 00
	00		 mov	 DWORD PTR [esi+148], edx
  00182	66 3b 43 6c	 cmp	 ax, WORD PTR [ebx+108]
  00186	0f 8e 80 01 00
	00		 jle	 $L187237

; 487  : 				{
; 488  : 					pElemtmp->m_nItemNum	= (short)pItemProp->dwPackMax;

  0018c	66 8b 4b 6c	 mov	 cx, WORD PTR [ebx+108]

; 489  : 					nNumtmp	-= (short)pItemProp->dwPackMax;
; 490  : 
; 491  : 					if( pnId ) {
; 492  : 						pnId[*pnCount]	= nId;
; 493  : 						pnNum[*pnCount]	= pElemtmp->m_nItemNum;
; 494  : 						( *pnCount )++;

  00190	8b 7c 24 14	 mov	 edi, DWORD PTR _this$[esp+24]
  00194	66 89 4e 72	 mov	 WORD PTR [esi+114], cx
  00198	66 2b 43 6c	 sub	 ax, WORD PTR [ebx+108]
  0019c	66 89 44 24 3c	 mov	 WORD PTR _nNumtmp$[esp+20], ax
  001a1	8b 44 24 34	 mov	 eax, DWORD PTR _pnId$[esp+20]
  001a5	85 c0		 test	 eax, eax
  001a7	74 22		 je	 SHORT $L188865
  001a9	0f b6 55 00	 movzx	 edx, BYTE PTR [ebp]
  001ad	8a 44 24 10	 mov	 al, BYTE PTR _nId$[esp+24]
  001b1	8b 4c 24 34	 mov	 ecx, DWORD PTR _pnId$[esp+20]
  001b5	88 04 0a	 mov	 BYTE PTR [edx+ecx], al
  001b8	0f b6 55 00	 movzx	 edx, BYTE PTR [ebp]
  001bc	66 8b 46 72	 mov	 ax, WORD PTR [esi+114]
  001c0	8b 4c 24 38	 mov	 ecx, DWORD PTR _pnNum$[esp+20]
  001c4	66 89 04 51	 mov	 WORD PTR [ecx+edx*2], ax
  001c8	fe 45 00	 inc	 BYTE PTR [ebp]
$L188865:
  001cb	8b 4c 24 20	 mov	 ecx, DWORD PTR _i$187226[esp+20]
$L187228:

; 446  : 	{
; 447  : 		for( DWORD i = 0; i < m_dwIndexNum; i++ )

  001cf	8b 47 08	 mov	 eax, DWORD PTR [edi+8]
  001d2	41		 inc	 ecx
  001d3	3b c8		 cmp	 ecx, eax
  001d5	89 4c 24 20	 mov	 DWORD PTR _i$187226[esp+20], ecx
  001d9	0f 82 b4 fe ff
	ff		 jb	 $L187227
$L187242:

; 505  : 					}
; 506  : 					break;
; 507  : 				}
; 508  : 			}
; 509  : 		}
; 510  : 	}
; 511  : 	if( nNumtmp > 0 )

  001df	66 83 7c 24 3c
	00		 cmp	 WORD PTR _nNumtmp$[esp+20], 0
  001e5	7e 0d		 jle	 SHORT $L188866

; 512  : 		Error( "template <class T> BOOL CItemContainer<T>::Add( DWORD dwItemId... : nNumtmp > 0" );

  001e7	68 00 00 00 00	 push	 OFFSET FLAT:??_C@_0FA@MKEIOHMC@template?5?$DMclass?5T?$DO?5BOOL?5CItemCon@
  001ec	e8 00 00 00 00	 call	 ?Error@@YAPBDPBDZZ	; Error
  001f1	83 c4 04	 add	 esp, 4
$L188866:
  001f4	5b		 pop	 ebx
  001f5	5f		 pop	 edi
  001f6	5e		 pop	 esi

; 513  : 	return TRUE;

  001f7	b8 01 00 00 00	 mov	 eax, 1
  001fc	5d		 pop	 ebp

; 514  : #endif	// __DBSERVER
; 515  : 	return FALSE;
; 516  : }

  001fd	83 c4 08	 add	 esp, 8
  00200	c2 4c 00	 ret	 76			; 0000004cH
$L188869:

; 411  : 	{
; 412  : 		for( DWORD i = 0; i < m_dwIndexNum; i++ )	//   

  00203	8b 74 24 10	 mov	 esi, DWORD PTR $T188809[esp+24]
$L187212:

; 413  : 		{
; 414  : 			nId	= m_apIndex[i];

  00207	8b 4f 04	 mov	 ecx, DWORD PTR [edi+4]
  0020a	8b 1c 81	 mov	 ebx, DWORD PTR [ecx+eax*4]

; 415  : 			pElemtmp	= (CItemElem*)&m_apItem[nId];

  0020d	8b 4f 0c	 mov	 ecx, DWORD PTR [edi+12]
  00210	8d 04 9b	 lea	 eax, DWORD PTR [ebx+ebx*4]
  00213	c1 e0 05	 shl	 eax, 5
  00216	03 c1		 add	 eax, ecx

; 416  : 				
; 417  : 			if( pElemtmp->IsEmpty() == FALSE && pElemtmp->m_dwItemId == dwItemId && pElemtmp->m_nItemNum < (short)pItemProp->dwPackMax
; 418  : 				&& pElemtmp->m_bCharged == bCharged && pElemtmp->m_byFlag == 0 )	//   0   

  00218	8b 48 08	 mov	 ecx, DWORD PTR [eax+8]
  0021b	85 c9		 test	 ecx, ecx
  0021d	74 73		 je	 SHORT $L187213
  0021f	3b 4c 24 1c	 cmp	 ecx, DWORD PTR _dwItemId$[esp+20]
  00223	75 6d		 jne	 SHORT $L187213
  00225	66 8b 48 72	 mov	 cx, WORD PTR [eax+114]
  00229	66 3b 4e 6c	 cmp	 cx, WORD PTR [esi+108]
  0022d	7d 63		 jge	 SHORT $L187213
  0022f	8b 54 24 40	 mov	 edx, DWORD PTR _bCharged$[esp+20]
  00233	39 90 88 00 00
	00		 cmp	 DWORD PTR [eax+136], edx
  00239	75 57		 jne	 SHORT $L187213
  0023b	8a 50 71	 mov	 dl, BYTE PTR [eax+113]
  0023e	84 d2		 test	 dl, dl
  00240	75 50		 jne	 SHORT $L187213

; 419  : 			{
; 420  : 				if( pElemtmp->m_nItemNum + nNumtmp > (short)pItemProp->dwPackMax )

  00242	0f bf 74 24 3c	 movsx	 esi, WORD PTR _nNumtmp$[esp+20]
  00247	0f bf d1	 movsx	 edx, cx
  0024a	03 d6		 add	 edx, esi
  0024c	8b 74 24 10	 mov	 esi, DWORD PTR $T188809[esp+24]
  00250	0f bf 76 6c	 movsx	 esi, WORD PTR [esi+108]
  00254	3b d6		 cmp	 edx, esi
  00256	7e 53		 jle	 SHORT $L187219

; 421  : 				{
; 422  : 					nNumtmp	-= ( (short)pItemProp->dwPackMax - pElemtmp->m_nItemNum );

  00258	8b 54 24 10	 mov	 edx, DWORD PTR $T188809[esp+24]
  0025c	0f bf 52 6c	 movsx	 edx, WORD PTR [edx+108]
  00260	8b 74 24 3c	 mov	 esi, DWORD PTR _nNumtmp$[esp+20]
  00264	2b ca		 sub	 ecx, edx
  00266	03 f1		 add	 esi, ecx

; 423  : 					pElemtmp->m_nItemNum	= (short)pItemProp->dwPackMax;
; 424  : 
; 425  : 					if( pnId ) {

  00268	8b 4c 24 34	 mov	 ecx, DWORD PTR _pnId$[esp+20]
  0026c	85 c9		 test	 ecx, ecx
  0026e	89 74 24 3c	 mov	 DWORD PTR _nNumtmp$[esp+20], esi
  00272	66 89 50 72	 mov	 WORD PTR [eax+114], dx
  00276	74 1a		 je	 SHORT $L187213

; 426  : 						pnId[*pnCount]	= nId;

  00278	0f b6 55 00	 movzx	 edx, BYTE PTR [ebp]
  0027c	88 1c 0a	 mov	 BYTE PTR [edx+ecx], bl

; 427  : 						pnNum[*pnCount]	= pElemtmp->m_nItemNum;

  0027f	66 8b 50 72	 mov	 dx, WORD PTR [eax+114]
  00283	0f b6 4d 00	 movzx	 ecx, BYTE PTR [ebp]
  00287	8b 44 24 38	 mov	 eax, DWORD PTR _pnNum$[esp+20]
  0028b	66 89 14 48	 mov	 WORD PTR [eax+ecx*2], dx

; 428  : 						( *pnCount )++;

  0028f	fe 45 00	 inc	 BYTE PTR [ebp]
$L187213:
  00292	8b 44 24 20	 mov	 eax, DWORD PTR _i$187211[esp+20]
  00296	8b 4f 08	 mov	 ecx, DWORD PTR [edi+8]
  00299	40		 inc	 eax
  0029a	3b c1		 cmp	 eax, ecx
  0029c	89 44 24 20	 mov	 DWORD PTR _i$187211[esp+20], eax
  002a0	0f 82 5d ff ff
	ff		 jb	 $L188869

; 411  : 	{
; 412  : 		for( DWORD i = 0; i < m_dwIndexNum; i++ )	//   

  002a6	e9 cb fd ff ff	 jmp	 $L187214
$L187219:

; 429  : 					}
; 430  : 				}
; 431  : 				else {
; 432  : 					pElemtmp->m_nItemNum	+= nNumtmp;

  002ab	66 8b 4c 24 3c	 mov	 cx, WORD PTR _nNumtmp$[esp+20]
  002b0	66 01 48 72	 add	 WORD PTR [eax+114], cx

; 433  : 					if( pnId ) {

  002b4	8b 4c 24 34	 mov	 ecx, DWORD PTR _pnId$[esp+20]
  002b8	85 c9		 test	 ecx, ecx
  002ba	0f 84 34 ff ff
	ff		 je	 $L188866

; 434  : 						pnId[*pnCount]	= nId;

  002c0	0f b6 55 00	 movzx	 edx, BYTE PTR [ebp]
  002c4	88 1c 0a	 mov	 BYTE PTR [edx+ecx], bl

; 435  : 						pnNum[*pnCount]		= pElemtmp->m_nItemNum;	

  002c7	66 8b 50 72	 mov	 dx, WORD PTR [eax+114]
  002cb	0f b6 4d 00	 movzx	 ecx, BYTE PTR [ebp]
  002cf	8b 44 24 38	 mov	 eax, DWORD PTR _pnNum$[esp+20]
  002d3	66 89 14 48	 mov	 WORD PTR [eax+ecx*2], dx

; 436  : 						( *pnCount )++;

  002d7	8a 45 00	 mov	 al, BYTE PTR [ebp]
  002da	5b		 pop	 ebx
  002db	5f		 pop	 edi
  002dc	fe c0		 inc	 al
  002de	88 45 00	 mov	 BYTE PTR [ebp], al
  002e1	5e		 pop	 esi

; 513  : 	return TRUE;

  002e2	b8 01 00 00 00	 mov	 eax, 1
  002e7	5d		 pop	 ebp

; 514  : #endif	// __DBSERVER
; 515  : 	return FALSE;
; 516  : }

  002e8	83 c4 08	 add	 esp, 8
  002eb	c2 4c 00	 ret	 76			; 0000004cH

; 456  : 				ItemProp* pItemProp		= prj.GetItemProp( dwItemId );

$L188832:
  002ee	a1 40 00 00 00	 mov	 eax, DWORD PTR ?prj@@3VCProject@@A+64
  002f3	8b 1c b8	 mov	 ebx, DWORD PTR [eax+edi*4]

; 457  : 				if( pItemProp )

  002f6	3b da		 cmp	 ebx, edx
  002f8	0f 84 d3 fd ff
	ff		 je	 $L187233

; 458  : 					pElemtmp->m_nHitPoint	= pItemProp->dwEndurance;

  002fe	8b 8b 90 00 00
	00		 mov	 ecx, DWORD PTR [ebx+144]
  00304	89 4e 74	 mov	 DWORD PTR [esi+116], ecx

; 459  : 				else

  00307	e9 c8 fd ff ff	 jmp	 $L187234
$L187237:

; 495  : 					}
; 496  : 				}
; 497  : 				else
; 498  : 				{
; 499  : 					pElemtmp->m_nItemNum	= nNumtmp;

  0030c	66 89 46 72	 mov	 WORD PTR [esi+114], ax

; 500  : 					nNumtmp	= 0;
; 501  : 					if( pnId ) {

  00310	8b 44 24 34	 mov	 eax, DWORD PTR _pnId$[esp+20]
  00314	85 c0		 test	 eax, eax
  00316	0f 84 d8 fe ff
	ff		 je	 $L188866

; 502  : 						pnId[*pnCount]	= nId;

  0031c	0f b6 55 00	 movzx	 edx, BYTE PTR [ebp]
  00320	8a 4c 24 10	 mov	 cl, BYTE PTR _nId$[esp+24]
  00324	88 0c 02	 mov	 BYTE PTR [edx+eax], cl

; 503  : 						pnNum[*pnCount]	= pElemtmp->m_nItemNum;

  00327	0f b6 55 00	 movzx	 edx, BYTE PTR [ebp]
  0032b	66 8b 46 72	 mov	 ax, WORD PTR [esi+114]
  0032f	8b 4c 24 38	 mov	 ecx, DWORD PTR _pnNum$[esp+20]
  00333	66 89 04 51	 mov	 WORD PTR [ecx+edx*2], ax

; 504  : 						( *pnCount )++;

  00337	8a 45 00	 mov	 al, BYTE PTR [ebp]
  0033a	5b		 pop	 ebx
  0033b	5f		 pop	 edi
  0033c	fe c0		 inc	 al
  0033e	88 45 00	 mov	 BYTE PTR [ebp], al
  00341	5e		 pop	 esi

; 513  : 	return TRUE;

  00342	b8 01 00 00 00	 mov	 eax, 1
  00347	5d		 pop	 ebp

; 514  : #endif	// __DBSERVER
; 515  : 	return FALSE;
; 516  : }

  00348	83 c4 08	 add	 esp, 8
  0034b	c2 4c 00	 ret	 76			; 0000004cH
?Add@?$CItemContainer@VCItemElem@@@@QAEHKFHKHHPAEPAF0HHKKKKKK_J@Z ENDP ; CItemContainer<CItemElem>::Add
_TEXT	ENDS
PUBLIC	?_Tidy@?$basic_string@DU?$char_traits@D@std@@V?$allocator@D@2@@std@@IAEX_NI@Z ; std::basic_string<char,std::char_traits<char>,std::allocator<char> >::_Tidy
; Function compile flags: /Ogty
; File c:\program files\microsoft visual studio .net 2003\vc7\include\xstring
;	COMDAT ?_Tidy@?$basic_string@DU?$char_traits@D@std@@V?$allocator@D@2@@std@@IAEX_NI@Z
_TEXT	SEGMENT
__Built$ = 8						; size = 1
__Newsize$ = 12						; size = 4
?_Tidy@?$basic_string@DU?$char_traits@D@std@@V?$allocator@D@2@@std@@IAEX_NI@Z PROC NEAR ; std::basic_string<char,std::char_traits<char>,std::allocator<char> >::_Tidy, COMDAT
; _this$ = ecx

; 1510 : 		if (!_Built)

  00000	8a 44 24 04	 mov	 al, BYTE PTR __Built$[esp-4]
  00004	84 c0		 test	 al, al
  00006	53		 push	 ebx
  00007	55		 push	 ebp
  00008	8b 6c 24 10	 mov	 ebp, DWORD PTR __Newsize$[esp+4]
  0000c	8b d9		 mov	 ebx, ecx
  0000e	74 2f		 je	 SHORT $L188878

; 1511 : 			;
; 1512 : 		else if (_BUF_SIZE <= _Myres)

  00010	83 7b 18 10	 cmp	 DWORD PTR [ebx+24], 16	; 00000010H
  00014	72 29		 jb	 SHORT $L188878

; 1513 : 			{	// copy any leftovers to small buffer and deallocate
; 1514 : 			_Elem *_Ptr = _Bx._Ptr;
; 1515 : 			if (0 < _Newsize)

  00016	85 ed		 test	 ebp, ebp
  00018	8b 43 04	 mov	 eax, DWORD PTR [ebx+4]
  0001b	57		 push	 edi
  0001c	8d 7b 04	 lea	 edi, DWORD PTR [ebx+4]
  0001f	76 14		 jbe	 SHORT $L188875
  00021	56		 push	 esi

; 1516 : 				_Traits::copy(_Bx._Buf, _Ptr, _Newsize);

  00022	8b cd		 mov	 ecx, ebp
  00024	8b d1		 mov	 edx, ecx
  00026	c1 e9 02	 shr	 ecx, 2
  00029	8b f0		 mov	 esi, eax
  0002b	f3 a5		 rep movsd
  0002d	8b ca		 mov	 ecx, edx
  0002f	83 e1 03	 and	 ecx, 3
  00032	f3 a4		 rep movsb
  00034	5e		 pop	 esi
$L188875:

; 1517 : 			_Mybase::_Alval.deallocate(_Ptr, _Myres + 1);

  00035	50		 push	 eax
  00036	e8 00 00 00 00	 call	 ??3@YAXPAX@Z		; operator delete
  0003b	83 c4 04	 add	 esp, 4
  0003e	5f		 pop	 edi
$L188878:

; 1518 : 			}
; 1519 : 		_Myres = _BUF_SIZE - 1;
; 1520 : 		_Eos(_Newsize);

  0003f	89 6b 14	 mov	 DWORD PTR [ebx+20], ebp
  00042	c7 43 18 0f 00
	00 00		 mov	 DWORD PTR [ebx+24], 15	; 0000000fH
  00049	c6 44 2b 04 00	 mov	 BYTE PTR [ebx+ebp+4], 0
  0004e	5d		 pop	 ebp
  0004f	5b		 pop	 ebx

; 1521 : 		}

  00050	c2 08 00	 ret	 8
?_Tidy@?$basic_string@DU?$char_traits@D@std@@V?$allocator@D@2@@std@@IAEX_NI@Z ENDP ; std::basic_string<char,std::char_traits<char>,std::allocator<char> >::_Tidy
_TEXT	ENDS
PUBLIC	?erase@?$basic_string@DU?$char_traits@D@std@@V?$allocator@D@2@@std@@QAEAAV12@II@Z ; std::basic_string<char,std::char_traits<char>,std::allocator<char> >::erase
EXTRN	?_Xran@_String_base@std@@QBEXXZ:NEAR		; std::_String_base::_Xran
; Function compile flags: /Ogty
;	COMDAT ?erase@?$basic_string@DU?$char_traits@D@std@@V?$allocator@D@2@@std@@QAEAAV12@II@Z
_TEXT	SEGMENT
__Off$ = 8						; size = 4
__Count$ = 12						; size = 4
?erase@?$basic_string@DU?$char_traits@D@std@@V?$allocator@D@2@@std@@QAEAAV12@II@Z PROC NEAR ; std::basic_string<char,std::char_traits<char>,std::allocator<char> >::erase, COMDAT
; _this$ = ecx

; 792  : 		{	// erase elements [_Off, _Off + _Count)

  00000	55		 push	 ebp

; 793  : 		if (_Mysize < _Off)

  00001	8b 6c 24 08	 mov	 ebp, DWORD PTR __Off$[esp]
  00005	56		 push	 esi
  00006	8b f1		 mov	 esi, ecx
  00008	39 6e 14	 cmp	 DWORD PTR [esi+20], ebp
  0000b	57		 push	 edi
  0000c	73 05		 jae	 SHORT $L184993

; 794  : 			_String_base::_Xran();	// _Off off end

  0000e	e8 00 00 00 00	 call	 ?_Xran@_String_base@std@@QBEXXZ ; std::_String_base::_Xran
$L184993:

; 795  : 		if (_Mysize - _Off < _Count)

  00013	8b 46 14	 mov	 eax, DWORD PTR [esi+20]
  00016	8b 7c 24 14	 mov	 edi, DWORD PTR __Count$[esp+8]
  0001a	2b c5		 sub	 eax, ebp
  0001c	3b c7		 cmp	 eax, edi
  0001e	73 02		 jae	 SHORT $L184994

; 796  : 			_Count = _Mysize - _Off;	// trim _Count

  00020	8b f8		 mov	 edi, eax
$L184994:

; 797  : 		if (0 < _Count)

  00022	85 ff		 test	 edi, edi
  00024	76 47		 jbe	 SHORT $L188942

; 798  : 			{	// move elements down
; 799  : 			_Traits::move(_Myptr() + _Off, _Myptr() + _Off + _Count,
; 800  : 				_Mysize - _Off - _Count);

  00026	8b 4e 18	 mov	 ecx, DWORD PTR [esi+24]
  00029	83 f9 10	 cmp	 ecx, 16			; 00000010H
  0002c	53		 push	 ebx
  0002d	8d 5e 04	 lea	 ebx, DWORD PTR [esi+4]
  00030	72 04		 jb	 SHORT $L188907
  00032	8b 13		 mov	 edx, DWORD PTR [ebx]
  00034	eb 02		 jmp	 SHORT $L188908
$L188907:
  00036	8b d3		 mov	 edx, ebx
$L188908:
  00038	83 f9 10	 cmp	 ecx, 16			; 00000010H
  0003b	72 04		 jb	 SHORT $L188914
  0003d	8b 0b		 mov	 ecx, DWORD PTR [ebx]
  0003f	eb 02		 jmp	 SHORT $L188915
$L188914:
  00041	8b cb		 mov	 ecx, ebx
$L188915:
  00043	2b c7		 sub	 eax, edi

; 803  : 			}
; 804  : 		return (*this);

  00045	03 d5		 add	 edx, ebp
  00047	50		 push	 eax
  00048	03 d7		 add	 edx, edi
  0004a	52		 push	 edx
  0004b	03 cd		 add	 ecx, ebp
  0004d	51		 push	 ecx
  0004e	e8 00 00 00 00	 call	 _memmove
  00053	8b 46 14	 mov	 eax, DWORD PTR [esi+20]
  00056	8b 4e 18	 mov	 ecx, DWORD PTR [esi+24]
  00059	2b c7		 sub	 eax, edi
  0005b	83 c4 0c	 add	 esp, 12			; 0000000cH
  0005e	83 f9 10	 cmp	 ecx, 16			; 00000010H
  00061	89 46 14	 mov	 DWORD PTR [esi+20], eax
  00064	72 02		 jb	 SHORT $L188937

; 801  : 			size_type _Newsize = _Mysize - _Count;
; 802  : 			_Eos(_Newsize);

  00066	8b 1b		 mov	 ebx, DWORD PTR [ebx]
$L188937:
  00068	c6 04 03 00	 mov	 BYTE PTR [ebx+eax], 0
  0006c	5b		 pop	 ebx
$L188942:
  0006d	5f		 pop	 edi

; 803  : 			}
; 804  : 		return (*this);

  0006e	8b c6		 mov	 eax, esi
  00070	5e		 pop	 esi
  00071	5d		 pop	 ebp

; 805  : 		}

  00072	c2 08 00	 ret	 8
?erase@?$basic_string@DU?$char_traits@D@std@@V?$allocator@D@2@@std@@QAEAAV12@II@Z ENDP ; std::basic_string<char,std::char_traits<char>,std::allocator<char> >::erase
_TEXT	ENDS
PUBLIC	?_Copy@?$basic_string@DU?$char_traits@D@std@@V?$allocator@D@2@@std@@IAEXII@Z ; std::basic_string<char,std::char_traits<char>,std::allocator<char> >::_Copy
;	COMDAT xdata$x
; File c:\program files\microsoft visual studio .net 2003\vc7\include\iosfwd
xdata$x	SEGMENT
$T189145 DD	0ffffffffH
	DD	00H
	DD	0ffffffffH
	DD	00H
	DD	01H
	DD	00H
	DD	01H
	DD	00H
$T189147 DD	00H
	DD	00H
	DD	00H
	DD	FLAT:$L188948
$T189148 DD	00H
	DD	00H
	DD	00H
	DD	FLAT:$L188946
$T189146 DD	02H
	DD	02H
	DD	03H
	DD	01H
	DD	FLAT:$T189147
	DD	00H
	DD	00H
	DD	03H
	DD	01H
	DD	FLAT:$T189148
$T189140 DD	019930520H
	DD	04H
	DD	FLAT:$T189145
	DD	02H
	DD	FLAT:$T189146
	DD	2 DUP(00H)
; Function compile flags: /Ogty
; File c:\program files\microsoft visual studio .net 2003\vc7\include\xstring
xdata$x	ENDS
;	COMDAT ?_Copy@?$basic_string@DU?$char_traits@D@std@@V?$allocator@D@2@@std@@IAEXII@Z
_TEXT	SEGMENT
__Newres$ = -24						; size = 4
_this$ = -20						; size = 4
__$EHRec$ = -16						; size = 16
__Ptr$ = 8						; size = 4
__Newsize$ = 8						; size = 4
__Oldlen$ = 12						; size = 4
?_Copy@?$basic_string@DU?$char_traits@D@std@@V?$allocator@D@2@@std@@IAEXII@Z PROC NEAR ; std::basic_string<char,std::char_traits<char>,std::allocator<char> >::_Copy, COMDAT
; _this$ = ecx

; 1444 : 		{	// copy _Oldlen elements to newly allocated buffer

  00000	55		 push	 ebp
  00001	8b ec		 mov	 ebp, esp
  00003	6a ff		 push	 -1
  00005	68 00 00 00 00	 push	 __ehhandler$?_Copy@?$basic_string@DU?$char_traits@D@std@@V?$allocator@D@2@@std@@IAEXII@Z
  0000a	64 a1 00 00 00
	00		 mov	 eax, DWORD PTR fs:__except_list
  00010	50		 push	 eax
  00011	64 89 25 00 00
	00 00		 mov	 DWORD PTR fs:__except_list, esp
  00018	83 ec 0c	 sub	 esp, 12			; 0000000cH

; 1445 : 		size_type _Newres = _Newsize | _ALLOC_MASK;

  0001b	8b 45 08	 mov	 eax, DWORD PTR __Newsize$[ebp]
  0001e	53		 push	 ebx
  0001f	56		 push	 esi
  00020	8b d8		 mov	 ebx, eax
  00022	83 cb 0f	 or	 ebx, 15			; 0000000fH

; 1446 : 		if (max_size() < _Newres)

  00025	83 fb fe	 cmp	 ebx, -2			; fffffffeH
  00028	57		 push	 edi
  00029	8b f1		 mov	 esi, ecx
  0002b	89 65 f0	 mov	 DWORD PTR __$EHRec$[ebp], esp
  0002e	89 75 ec	 mov	 DWORD PTR _this$[ebp], esi
  00031	76 04		 jbe	 SHORT $L185550

; 1447 : 			_Newres = _Newsize;	// undo roundup if too big

  00033	8b d8		 mov	 ebx, eax

; 1448 : 		else if (_Newres / 3 < _Myres / 2

  00035	eb 22		 jmp	 SHORT $L185552
$L185550:

; 1449 : 			&& _Myres <= max_size() - _Myres / 2)

  00037	8b 7e 18	 mov	 edi, DWORD PTR [esi+24]
  0003a	b8 ab aa aa aa	 mov	 eax, -1431655765	; aaaaaaabH
  0003f	f7 e3		 mul	 ebx
  00041	8b cf		 mov	 ecx, edi
  00043	d1 e9		 shr	 ecx, 1
  00045	d1 ea		 shr	 edx, 1
  00047	3b d1		 cmp	 edx, ecx
  00049	73 0e		 jae	 SHORT $L185552
  0004b	b8 fe ff ff ff	 mov	 eax, -2			; fffffffeH
  00050	2b c1		 sub	 eax, ecx
  00052	3b f8		 cmp	 edi, eax
  00054	77 03		 ja	 SHORT $L185552

; 1450 : 			_Newres = _Myres + _Myres / 2;	// grow exponentially if possible

  00056	8d 1c 39	 lea	 ebx, DWORD PTR [ecx+edi]
$L185552:

; 1451 : 		_Elem *_Ptr;
; 1452 : 
; 1453 : 		_TRY_BEGIN
; 1454 : 			_Ptr = _Mybase::_Alval.allocate(_Newres + 1);

  00059	8d 4b 01	 lea	 ecx, DWORD PTR [ebx+1]
  0005c	51		 push	 ecx
  0005d	c7 45 fc 00 00
	00 00		 mov	 DWORD PTR __$EHRec$[ebp+12], 0
  00064	e8 00 00 00 00	 call	 ??2@YAPAXI@Z		; operator new
  00069	8b d0		 mov	 edx, eax
  0006b	83 c4 04	 add	 esp, 4
  0006e	89 55 08	 mov	 DWORD PTR __Ptr$[ebp], edx
  00071	eb 29		 jmp	 SHORT $L185554
$L188946:

; 1455 : 		_CATCH_ALL
; 1456 : 			_Newres = _Newsize;	// allocation failed, undo roundup and retry

  00073	8b 45 08	 mov	 eax, DWORD PTR __Newsize$[ebp]
  00076	89 45 e8	 mov	 DWORD PTR __Newres$[ebp], eax

; 1457 : 			_TRY_BEGIN
; 1458 : 				_Ptr = _Mybase::_Alval.allocate(_Newres + 1);

  00079	40		 inc	 eax
  0007a	89 65 f0	 mov	 DWORD PTR __$EHRec$[ebp], esp
  0007d	50		 push	 eax
  0007e	c6 45 fc 02	 mov	 BYTE PTR __$EHRec$[ebp+12], 2
  00082	e8 00 00 00 00	 call	 ??2@YAPAXI@Z		; operator new
  00087	89 45 08	 mov	 DWORD PTR __Ptr$[ebp], eax
  0008a	83 c4 04	 add	 esp, 4

; 1462 : 			_CATCH_END
; 1463 : 		_CATCH_END

  0008d	b8 00 00 00 00	 mov	 eax, $L189141
  00092	c3		 ret	 0
$L189141:
  00093	8b 5d e8	 mov	 ebx, DWORD PTR __Newres$[ebp]
  00096	8b 75 ec	 mov	 esi, DWORD PTR _this$[ebp]
  00099	8b 55 08	 mov	 edx, DWORD PTR __Ptr$[ebp]
$L185554:

; 1464 : 
; 1465 : 		if (0 < _Oldlen)

  0009c	8b 4d 0c	 mov	 ecx, DWORD PTR __Oldlen$[ebp]
  0009f	85 c9		 test	 ecx, ecx
  000a1	76 24		 jbe	 SHORT $L189066

; 1466 : 			_Traits::copy(_Ptr, _Myptr(), _Oldlen);	// copy existing elements

  000a3	83 7e 18 10	 cmp	 DWORD PTR [esi+24], 16	; 00000010H
  000a7	72 05		 jb	 SHORT $L189061
  000a9	8b 76 04	 mov	 esi, DWORD PTR [esi+4]
  000ac	eb 03		 jmp	 SHORT $L189062
$L189061:
  000ae	83 c6 04	 add	 esi, 4
$L189062:
  000b1	8b c1		 mov	 eax, ecx
  000b3	c1 e9 02	 shr	 ecx, 2
  000b6	8b fa		 mov	 edi, edx
  000b8	f3 a5		 rep movsd
  000ba	8b c8		 mov	 ecx, eax
  000bc	83 e1 03	 and	 ecx, 3
  000bf	f3 a4		 rep movsb
  000c1	8b 75 ec	 mov	 esi, DWORD PTR _this$[ebp]
  000c4	8b 4d 0c	 mov	 ecx, DWORD PTR __Oldlen$[ebp]
$L189066:

; 1467 : 		_Tidy(true);

  000c7	83 7e 18 10	 cmp	 DWORD PTR [esi+24], 16	; 00000010H
  000cb	72 12		 jb	 SHORT $L189108
  000cd	8b 4e 04	 mov	 ecx, DWORD PTR [esi+4]
  000d0	51		 push	 ecx
  000d1	e8 00 00 00 00	 call	 ??3@YAXPAX@Z		; operator delete
  000d6	8b 55 08	 mov	 edx, DWORD PTR __Ptr$[ebp]
  000d9	8b 4d 0c	 mov	 ecx, DWORD PTR __Oldlen$[ebp]
  000dc	83 c4 04	 add	 esp, 4
$L189108:

; 1468 : 		_Bx._Ptr = _Ptr;
; 1469 : 		_Myres = _Newres;
; 1470 : 		_Eos(_Oldlen);

  000df	83 fb 10	 cmp	 ebx, 16			; 00000010H
  000e2	8d 46 04	 lea	 eax, DWORD PTR [esi+4]
  000e5	c6 00 00	 mov	 BYTE PTR [eax], 0
  000e8	89 10		 mov	 DWORD PTR [eax], edx
  000ea	89 5e 18	 mov	 DWORD PTR [esi+24], ebx
  000ed	89 4e 14	 mov	 DWORD PTR [esi+20], ecx
  000f0	72 02		 jb	 SHORT $L189136
  000f2	8b c2		 mov	 eax, edx
$L189136:

; 1471 : 		}

  000f4	5f		 pop	 edi
  000f5	c6 04 08 00	 mov	 BYTE PTR [eax+ecx], 0
  000f9	8b 4d f4	 mov	 ecx, DWORD PTR __$EHRec$[ebp+4]
  000fc	5e		 pop	 esi
  000fd	64 89 0d 00 00
	00 00		 mov	 DWORD PTR fs:__except_list, ecx
  00104	5b		 pop	 ebx
  00105	8b e5		 mov	 esp, ebp
  00107	5d		 pop	 ebp
  00108	c2 08 00	 ret	 8
$L188948:

; 1459 : 			_CATCH_ALL
; 1460 : 			_Tidy(true);	// failed again, discard storage and reraise

  0010b	8b 75 ec	 mov	 esi, DWORD PTR _this$[ebp]
  0010e	83 7e 18 10	 cmp	 DWORD PTR [esi+24], 16	; 00000010H
  00112	72 0c		 jb	 SHORT $L189047
  00114	8b 56 04	 mov	 edx, DWORD PTR [esi+4]
  00117	52		 push	 edx
  00118	e8 00 00 00 00	 call	 ??3@YAXPAX@Z		; operator delete
  0011d	83 c4 04	 add	 esp, 4
$L189047:

; 1461 : 			_RERAISE;

  00120	6a 00		 push	 0
  00122	c7 46 18 0f 00
	00 00		 mov	 DWORD PTR [esi+24], 15	; 0000000fH
  00129	c7 46 14 00 00
	00 00		 mov	 DWORD PTR [esi+20], 0
  00130	6a 00		 push	 0
  00132	c6 46 04 00	 mov	 BYTE PTR [esi+4], 0
  00136	e8 00 00 00 00	 call	 __CxxThrowException@8
$L189144:
  0013b	cc		 int	 3
_TEXT	ENDS
;	COMDAT text$x
text$x	SEGMENT
__ehhandler$?_Copy@?$basic_string@DU?$char_traits@D@std@@V?$allocator@D@2@@std@@IAEXII@Z:
  00000	b8 00 00 00 00	 mov	 eax, OFFSET FLAT:$T189140
  00005	e9 00 00 00 00	 jmp	 ___CxxFrameHandler
text$x	ENDS
?_Copy@?$basic_string@DU?$char_traits@D@std@@V?$allocator@D@2@@std@@IAEXII@Z ENDP ; std::basic_string<char,std::char_traits<char>,std::allocator<char> >::_Copy
PUBLIC	?end@?$list@PAXV?$allocator@PAX@std@@@std@@QAE?AViterator@12@XZ ; std::list<void *,std::allocator<void *> >::end
; Function compile flags: /Ogty
; File c:\program files\microsoft visual studio .net 2003\vc7\include\list
;	COMDAT ?end@?$list@PAXV?$allocator@PAX@std@@@std@@QAE?AViterator@12@XZ
_TEXT	SEGMENT
___$ReturnUdt$ = 8					; size = 4
?end@?$list@PAXV?$allocator@PAX@std@@@std@@QAE?AViterator@12@XZ PROC NEAR ; std::list<void *,std::allocator<void *> >::end, COMDAT
; _this$ = ecx

; 387  : 		return (iterator(_Myhead));

  00000	8b 49 04	 mov	 ecx, DWORD PTR [ecx+4]
  00003	8b 44 24 04	 mov	 eax, DWORD PTR ___$ReturnUdt$[esp-4]
  00007	89 08		 mov	 DWORD PTR [eax], ecx

; 388  : 		}

  00009	c2 04 00	 ret	 4
?end@?$list@PAXV?$allocator@PAX@std@@@std@@QAE?AViterator@12@XZ ENDP ; std::list<void *,std::allocator<void *> >::end
_TEXT	ENDS
PUBLIC	?_Buynode@?$list@PAXV?$allocator@PAX@std@@@std@@IAEPAU_Node@?$_List_nod@PAXV?$allocator@PAX@std@@@2@PAU342@0ABQAX@Z ; std::list<void *,std::allocator<void *> >::_Buynode
; Function compile flags: /Ogty
;	COMDAT ?_Buynode@?$list@PAXV?$allocator@PAX@std@@@std@@IAEPAU_Node@?$_List_nod@PAXV?$allocator@PAX@std@@@2@PAU342@0ABQAX@Z
_TEXT	SEGMENT
__Next$ = 8						; size = 4
__Prev$ = 12						; size = 4
__Val$ = 16						; size = 4
?_Buynode@?$list@PAXV?$allocator@PAX@std@@@std@@IAEPAU_Node@?$_List_nod@PAXV?$allocator@PAX@std@@@2@PAU342@0ABQAX@Z PROC NEAR ; std::list<void *,std::allocator<void *> >::_Buynode, COMDAT
; _this$ = ecx

; 918  : 		_Nodeptr _Pnode = this->_Alnod.allocate(1);

  00000	6a 0c		 push	 12			; 0000000cH
  00002	e8 00 00 00 00	 call	 ??2@YAPAXI@Z		; operator new
  00007	83 c4 04	 add	 esp, 4

; 919  : 		_TRY_BEGIN
; 920  : 		new ((void *)_Pnode) _Node(_Next, _Prev, _Val);

  0000a	85 c0		 test	 eax, eax
  0000c	74 16		 je	 SHORT $L189165
  0000e	8b 4c 24 04	 mov	 ecx, DWORD PTR __Next$[esp-4]
  00012	8b 54 24 08	 mov	 edx, DWORD PTR __Prev$[esp-4]
  00016	89 08		 mov	 DWORD PTR [eax], ecx
  00018	8b 4c 24 0c	 mov	 ecx, DWORD PTR __Val$[esp-4]
  0001c	89 50 04	 mov	 DWORD PTR [eax+4], edx
  0001f	8b 11		 mov	 edx, DWORD PTR [ecx]
  00021	89 50 08	 mov	 DWORD PTR [eax+8], edx
$L189165:

; 921  : 		_CATCH_ALL
; 922  : 		this->_Alnod.deallocate(_Pnode, 1);
; 923  : 		_RERAISE;
; 924  : 		_CATCH_END
; 925  : 		return (_Pnode);
; 926  : 		}

  00024	c2 0c 00	 ret	 12			; 0000000cH
?_Buynode@?$list@PAXV?$allocator@PAX@std@@@std@@IAEPAU_Node@?$_List_nod@PAXV?$allocator@PAX@std@@@2@PAU342@0ABQAX@Z ENDP ; std::list<void *,std::allocator<void *> >::_Buynode
_TEXT	ENDS
PUBLIC	?AddItem@CMover@@QAEHKKKHKHHHHKKKKKK_J@Z	; CMover::AddItem
EXTRN	?Get@CSerialNumber@@QAEKXZ:NEAR			; CSerialNumber::Get
EXTRN	?GetInstance@CSerialNumber@@SAPAV1@XZ:NEAR	; CSerialNumber::GetInstance
; Function compile flags: /Ogty
; File c:\documents and settings\test\mes documents\source\virtuos_v17\build\program\_network\objects\obj.cpp
;	COMDAT ?AddItem@CMover@@QAEHKKKHKHHHHKKKKKK_J@Z
_TEXT	SEGMENT
_dwItemType$ = 8					; size = 4
_dwId$ = 12						; size = 4
_dwNum$ = 16						; size = 4
_nOption$ = 20						; size = 4
_iSerialNumber$ = 24					; size = 4
_nItemResist$ = 28					; size = 4
_nResistAbilityOption$ = 32				; size = 4
_nCharged$ = 36						; size = 4
_nPiercedSize$ = 40					; size = 4
_adwItemId0$ = 44					; size = 4
_adwItemId1$ = 48					; size = 4
_adwItemId2$ = 52					; size = 4
_adwItemId3$ = 56					; size = 4
_adwItemId4$ = 60					; size = 4
_m_dwKeepTime$ = 64					; size = 4
_iRandomOptItemId$ = 68					; size = 8
?AddItem@CMover@@QAEHKKKHKHHHHKKKKKK_J@Z PROC NEAR	; CMover::AddItem, COMDAT
; _this$ = ecx

; 348  : 	if( iSerialNumber == 0 )

  00000	8b 44 24 14	 mov	 eax, DWORD PTR _iSerialNumber$[esp-4]
  00004	85 c0		 test	 eax, eax
  00006	56		 push	 esi
  00007	8b f1		 mov	 esi, ecx
  00009	75 0c		 jne	 SHORT $L186879

; 349  : 		iSerialNumber	= CSerialNumber::GetInstance()->Get();

  0000b	e8 00 00 00 00	 call	 ?GetInstance@CSerialNumber@@SAPAV1@XZ ; CSerialNumber::GetInstance
  00010	8b c8		 mov	 ecx, eax
  00012	e8 00 00 00 00	 call	 ?Get@CSerialNumber@@QAEKXZ ; CSerialNumber::Get
$L186879:

; 350  : 	
; 351  : #if __VER >= 11 // __SYS_IDENTIFY
; 352  : #ifdef __SEND_ITEM_ULTIMATE
; 353  : 	return m_Inventory.Add( dwId, (short)( dwNum ), nOption, iSerialNumber, nItemResist, nResistAbilityOption, NULL, NULL, NULL, nCharged, nPiercedSize, adwItemId0, adwItemId1, adwItemId2, adwItemId3, adwItemId4, m_dwKeepTime, iRandomOptItemId );

  00017	8b 4c 24 48	 mov	 ecx, DWORD PTR _iRandomOptItemId$[esp+4]
  0001b	8b 54 24 44	 mov	 edx, DWORD PTR _iRandomOptItemId$[esp]
  0001f	51		 push	 ecx
  00020	8b 4c 24 44	 mov	 ecx, DWORD PTR _m_dwKeepTime$[esp+4]
  00024	52		 push	 edx
  00025	8b 54 24 44	 mov	 edx, DWORD PTR _adwItemId4$[esp+8]
  00029	51		 push	 ecx
  0002a	8b 4c 24 44	 mov	 ecx, DWORD PTR _adwItemId3$[esp+12]
  0002e	52		 push	 edx
  0002f	8b 54 24 44	 mov	 edx, DWORD PTR _adwItemId2$[esp+16]
  00033	51		 push	 ecx
  00034	8b 4c 24 44	 mov	 ecx, DWORD PTR _adwItemId1$[esp+20]
  00038	52		 push	 edx
  00039	8b 54 24 44	 mov	 edx, DWORD PTR _adwItemId0$[esp+24]
  0003d	51		 push	 ecx
  0003e	8b 4c 24 44	 mov	 ecx, DWORD PTR _nPiercedSize$[esp+28]
  00042	52		 push	 edx
  00043	8b 54 24 44	 mov	 edx, DWORD PTR _nCharged$[esp+32]
  00047	51		 push	 ecx
  00048	8b 4c 24 44	 mov	 ecx, DWORD PTR _nResistAbilityOption$[esp+36]
  0004c	52		 push	 edx
  0004d	8b 54 24 44	 mov	 edx, DWORD PTR _nItemResist$[esp+40]
  00051	6a 00		 push	 0
  00053	6a 00		 push	 0
  00055	6a 00		 push	 0
  00057	51		 push	 ecx
  00058	8b 4c 24 48	 mov	 ecx, DWORD PTR _dwNum$[esp+56]
  0005c	52		 push	 edx
  0005d	8b 54 24 48	 mov	 edx, DWORD PTR _dwId$[esp+60]
  00061	50		 push	 eax
  00062	8b 44 24 54	 mov	 eax, DWORD PTR _nOption$[esp+64]
  00066	50		 push	 eax
  00067	51		 push	 ecx
  00068	52		 push	 edx
  00069	8d 8e 14 41 00
	00		 lea	 ecx, DWORD PTR [esi+16660]
  0006f	e8 00 00 00 00	 call	 ?Add@?$CItemContainer@VCItemElem@@@@QAEHKFHKHHPAEPAF0HHKKKKKK_J@Z ; CItemContainer<CItemElem>::Add
  00074	5e		 pop	 esi

; 354  : #else // __SEND_ITEM_ULTIMATE
; 355  : 	return m_Inventory.Add( dwId, (short)( dwNum ), nOption, iSerialNumber, nItemResist, nResistAbilityOption, NULL, NULL, NULL, nCharged, nPiercedSize, adwItemId0, adwItemId1, adwItemId2, adwItemId3, m_dwKeepTime, iRandomOptItemId );
; 356  : #endif // __SEND_ITEM_ULTIMATE
; 357  : #else	// __SYS_IDENTIFY
; 358  : #ifdef __SEND_ITEM_ULTIMATE
; 359  : 	return m_Inventory.Add( dwId, (short)( dwNum ), nOption, iSerialNumber, nItemResist, nResistAbilityOption, NULL, NULL, NULL, nCharged, nPiercedSize, adwItemId0, adwItemId1, adwItemId2, adwItemId3, adwItemId4, m_dwKeepTime, nRandomOptItemId );
; 360  : #else // __SEND_ITEM_ULTIMATE
; 361  : 	return m_Inventory.Add( dwId, (short)( dwNum ), nOption, iSerialNumber, nItemResist, nResistAbilityOption, NULL, NULL, NULL, nCharged, nPiercedSize, adwItemId0, adwItemId1, adwItemId2, adwItemId3, m_dwKeepTime, nRandomOptItemId );
; 362  : #endif // __SEND_ITEM_ULTIMATE
; 363  : #endif	// __SYS_IDENTIFY
; 364  : }

  00075	c2 44 00	 ret	 68			; 00000044H
?AddItem@CMover@@QAEHKKKHKHHHHKKKKKK_J@Z ENDP		; CMover::AddItem
_TEXT	ENDS
PUBLIC	?AddItemBank@CMover@@QAEHHKKHK@Z		; CMover::AddItemBank
; Function compile flags: /Ogty
;	COMDAT ?AddItemBank@CMover@@QAEHHKKHK@Z
_TEXT	SEGMENT
_nSlot$ = 8						; size = 4
_dwId$ = 12						; size = 4
_dwNum$ = 16						; size = 4
_nOption$ = 20						; size = 4
_iSerialNumber$ = 24					; size = 4
?AddItemBank@CMover@@QAEHHKKHK@Z PROC NEAR		; CMover::AddItemBank, COMDAT
; _this$ = ecx

; 368  : 	if( iSerialNumber == 0 )

  00000	8b 44 24 14	 mov	 eax, DWORD PTR _iSerialNumber$[esp-4]
  00004	85 c0		 test	 eax, eax
  00006	56		 push	 esi
  00007	8b f1		 mov	 esi, ecx
  00009	75 0c		 jne	 SHORT $L186889

; 369  : 		iSerialNumber	= CSerialNumber::GetInstance()->Get();

  0000b	e8 00 00 00 00	 call	 ?GetInstance@CSerialNumber@@SAPAV1@XZ ; CSerialNumber::GetInstance
  00010	8b c8		 mov	 ecx, eax
  00012	e8 00 00 00 00	 call	 ?Get@CSerialNumber@@QAEKXZ ; CSerialNumber::Get
$L186889:

; 370  : 	
; 371  : 	return	( m_Bank[nSlot].Add( dwId, (short)( dwNum ), nOption, iSerialNumber ) );

  00017	6a 00		 push	 0
  00019	6a 00		 push	 0
  0001b	6a 00		 push	 0
  0001d	6a 00		 push	 0
  0001f	6a 00		 push	 0
  00021	6a 00		 push	 0
  00023	6a 00		 push	 0
  00025	8b 4c 24 2c	 mov	 ecx, DWORD PTR _dwNum$[esp+28]
  00029	6a 00		 push	 0
  0002b	8b 54 24 2c	 mov	 edx, DWORD PTR _dwId$[esp+32]
  0002f	6a 00		 push	 0
  00031	6a 00		 push	 0
  00033	6a 00		 push	 0
  00035	6a 00		 push	 0
  00037	6a 00		 push	 0
  00039	6a 00		 push	 0
  0003b	6a 00		 push	 0
  0003d	50		 push	 eax
  0003e	8b 44 24 54	 mov	 eax, DWORD PTR _nOption$[esp+64]
  00042	50		 push	 eax
  00043	8b 44 24 4c	 mov	 eax, DWORD PTR _nSlot$[esp+68]
  00047	51		 push	 ecx
  00048	8d 04 80	 lea	 eax, DWORD PTR [eax+eax*4]
  0004b	52		 push	 edx
  0004c	8d 8c 86 94 41
	00 00		 lea	 ecx, DWORD PTR [esi+eax*4+16788]
  00053	e8 00 00 00 00	 call	 ?Add@?$CItemContainer@VCItemElem@@@@QAEHKFHKHHPAEPAF0HHKKKKKK_J@Z ; CItemContainer<CItemElem>::Add
  00058	5e		 pop	 esi

; 372  : }

  00059	c2 14 00	 ret	 20			; 00000014H
?AddItemBank@CMover@@QAEHHKKHK@Z ENDP			; CMover::AddItemBank
_TEXT	ENDS
PUBLIC	?_Tidy@?$list@PAXV?$allocator@PAX@std@@@std@@IAEXXZ ; std::list<void *,std::allocator<void *> >::_Tidy
; Function compile flags: /Ogty
; File c:\program files\microsoft visual studio .net 2003\vc7\include\list
;	COMDAT ?_Tidy@?$list@PAXV?$allocator@PAX@std@@@std@@IAEXXZ
_TEXT	SEGMENT
?_Tidy@?$list@PAXV?$allocator@PAX@std@@@std@@IAEXXZ PROC NEAR ; std::list<void *,std::allocator<void *> >::_Tidy, COMDAT
; _this$ = ecx

; 929  : 		{	// free all storage

  00000	56		 push	 esi
  00001	8b f1		 mov	 esi, ecx

; 930  : 		clear();

  00003	e8 00 00 00 00	 call	 ?clear@?$list@PAXV?$allocator@PAX@std@@@std@@QAEXXZ ; std::list<void *,std::allocator<void *> >::clear

; 931  : 		this->_Alptr.destroy(&_Nextnode(_Myhead));
; 932  : 		this->_Alptr.destroy(&_Prevnode(_Myhead));
; 933  : 		this->_Alnod.deallocate(_Myhead, 1);

  00008	8b 46 04	 mov	 eax, DWORD PTR [esi+4]
  0000b	50		 push	 eax
  0000c	e8 00 00 00 00	 call	 ??3@YAXPAX@Z		; operator delete
  00011	83 c4 04	 add	 esp, 4

; 934  : 		_Myhead = 0;

  00014	c7 46 04 00 00
	00 00		 mov	 DWORD PTR [esi+4], 0
  0001b	5e		 pop	 esi

; 935  : 		}

  0001c	c3		 ret	 0
?_Tidy@?$list@PAXV?$allocator@PAX@std@@@std@@IAEXXZ ENDP ; std::list<void *,std::allocator<void *> >::_Tidy
_TEXT	ENDS
PUBLIC	??0?$_List_val@PAXV?$allocator@PAX@std@@@std@@IAE@V?$allocator@PAX@1@@Z ; std::_List_val<void *,std::allocator<void *> >::_List_val<void *,std::allocator<void *> >
; Function compile flags: /Ogty
;	COMDAT ??0?$_List_val@PAXV?$allocator@PAX@std@@@std@@IAE@V?$allocator@PAX@1@@Z
_TEXT	SEGMENT
__Al$ = 8						; size = 1
??0?$_List_val@PAXV?$allocator@PAX@std@@@std@@IAE@V?$allocator@PAX@1@@Z PROC NEAR ; std::_List_val<void *,std::allocator<void *> >::_List_val<void *,std::allocator<void *> >, COMDAT
; _this$ = ecx

; 82   : 		{	// construct base, and allocator from _Al

  00000	8b c1		 mov	 eax, ecx

; 83   : 		}

  00002	c2 04 00	 ret	 4
??0?$_List_val@PAXV?$allocator@PAX@std@@@std@@IAE@V?$allocator@PAX@1@@Z ENDP ; std::_List_val<void *,std::allocator<void *> >::_List_val<void *,std::allocator<void *> >
_TEXT	ENDS
PUBLIC	??1?$basic_string@DU?$char_traits@D@std@@V?$allocator@D@2@@std@@QAE@XZ ; std::basic_string<char,std::char_traits<char>,std::allocator<char> >::~basic_string<char,std::char_traits<char>,std::allocator<char> >
; Function compile flags: /Ogty
; File c:\program files\microsoft visual studio .net 2003\vc7\include\xstring
;	COMDAT ??1?$basic_string@DU?$char_traits@D@std@@V?$allocator@D@2@@std@@QAE@XZ
_TEXT	SEGMENT
??1?$basic_string@DU?$char_traits@D@std@@V?$allocator@D@2@@std@@QAE@XZ PROC NEAR ; std::basic_string<char,std::char_traits<char>,std::allocator<char> >::~basic_string<char,std::char_traits<char>,std::allocator<char> >, COMDAT
; _this$ = ecx

; 456  : 		{	// destroy the string

  00000	56		 push	 esi
  00001	8b f1		 mov	 esi, ecx

; 457  : 		_Tidy(true);

  00003	83 7e 18 10	 cmp	 DWORD PTR [esi+24], 16	; 00000010H
  00007	72 0c		 jb	 SHORT $L189288
  00009	8b 46 04	 mov	 eax, DWORD PTR [esi+4]
  0000c	50		 push	 eax
  0000d	e8 00 00 00 00	 call	 ??3@YAXPAX@Z		; operator delete
  00012	83 c4 04	 add	 esp, 4
$L189288:
  00015	33 c0		 xor	 eax, eax
  00017	c7 46 18 0f 00
	00 00		 mov	 DWORD PTR [esi+24], 15	; 0000000fH
  0001e	89 46 14	 mov	 DWORD PTR [esi+20], eax
  00021	88 46 04	 mov	 BYTE PTR [esi+4], al
  00024	5e		 pop	 esi

; 458  : 		}

  00025	c3		 ret	 0
??1?$basic_string@DU?$char_traits@D@std@@V?$allocator@D@2@@std@@QAE@XZ ENDP ; std::basic_string<char,std::char_traits<char>,std::allocator<char> >::~basic_string<char,std::char_traits<char>,std::allocator<char> >
_TEXT	ENDS
PUBLIC	?_Grow@?$basic_string@DU?$char_traits@D@std@@V?$allocator@D@2@@std@@IAE_NI_N@Z ; std::basic_string<char,std::char_traits<char>,std::allocator<char> >::_Grow
EXTRN	?_Xlen@_String_base@std@@QBEXXZ:NEAR		; std::_String_base::_Xlen
; Function compile flags: /Ogty
;	COMDAT ?_Grow@?$basic_string@DU?$char_traits@D@std@@V?$allocator@D@2@@std@@IAE_NI_N@Z
_TEXT	SEGMENT
__Newsize$ = 8						; size = 4
__Trim$ = 12						; size = 1
?_Grow@?$basic_string@DU?$char_traits@D@std@@V?$allocator@D@2@@std@@IAE_NI_N@Z PROC NEAR ; std::basic_string<char,std::char_traits<char>,std::allocator<char> >::_Grow, COMDAT
; _this$ = ecx

; 1480 : 		{	// ensure buffer is big enough, trim to size if _Trim is true

  00000	55		 push	 ebp
  00001	56		 push	 esi

; 1481 : 		if (max_size() < _Newsize)

  00002	8b 74 24 0c	 mov	 esi, DWORD PTR __Newsize$[esp+4]
  00006	83 fe fe	 cmp	 esi, -2			; fffffffeH
  00009	8b e9		 mov	 ebp, ecx
  0000b	76 05		 jbe	 SHORT $L185002

; 1482 : 			_String_base::_Xlen();	// result too long

  0000d	e8 00 00 00 00	 call	 ?_Xlen@_String_base@std@@QBEXXZ ; std::_String_base::_Xlen
$L185002:

; 1483 : 		if (_Myres < _Newsize)

  00012	8b 45 18	 mov	 eax, DWORD PTR [ebp+24]
  00015	3b c6		 cmp	 eax, esi
  00017	73 19		 jae	 SHORT $L185003

; 1484 : 			_Copy(_Newsize, _Mysize);	// reallocate to grow

  00019	8b 45 14	 mov	 eax, DWORD PTR [ebp+20]
  0001c	50		 push	 eax
  0001d	56		 push	 esi
  0001e	8b cd		 mov	 ecx, ebp
  00020	e8 00 00 00 00	 call	 ?_Copy@?$basic_string@DU?$char_traits@D@std@@V?$allocator@D@2@@std@@IAEXII@Z ; std::basic_string<char,std::char_traits<char>,std::allocator<char> >::_Copy

; 1490 : 		return (0 < _Newsize);	// return true only if more work to do

  00025	33 c0		 xor	 eax, eax
  00027	3b c6		 cmp	 eax, esi
  00029	1b c0		 sbb	 eax, eax
  0002b	5e		 pop	 esi
  0002c	f7 d8		 neg	 eax
  0002e	5d		 pop	 ebp

; 1491 : 		}

  0002f	c2 08 00	 ret	 8
$L185003:

; 1485 : 		else if (_Trim && _Newsize < _BUF_SIZE)

  00032	8a 4c 24 10	 mov	 cl, BYTE PTR __Trim$[esp+4]
  00036	84 c9		 test	 cl, cl
  00038	74 5c		 je	 SHORT $L185005
  0003a	83 fe 10	 cmp	 esi, 16			; 00000010H
  0003d	73 57		 jae	 SHORT $L185005
  0003f	53		 push	 ebx

; 1486 : 			_Tidy(true,	// copy and deallocate if trimming to small string
; 1487 : 				_Newsize < _Mysize ? _Newsize : _Mysize);

  00040	8b 5d 14	 mov	 ebx, DWORD PTR [ebp+20]
  00043	3b f3		 cmp	 esi, ebx
  00045	73 02		 jae	 SHORT $L189302
  00047	8b de		 mov	 ebx, esi
$L189302:
  00049	83 f8 10	 cmp	 eax, 16			; 00000010H
  0004c	72 2b		 jb	 SHORT $L189362
  0004e	85 db		 test	 ebx, ebx
  00050	8b 45 04	 mov	 eax, DWORD PTR [ebp+4]
  00053	57		 push	 edi
  00054	8d 7d 04	 lea	 edi, DWORD PTR [ebp+4]
  00057	76 16		 jbe	 SHORT $L189361
  00059	8b cb		 mov	 ecx, ebx
  0005b	8b d1		 mov	 edx, ecx
  0005d	c1 e9 02	 shr	 ecx, 2
  00060	8b f0		 mov	 esi, eax
  00062	f3 a5		 rep movsd
  00064	8b ca		 mov	 ecx, edx
  00066	83 e1 03	 and	 ecx, 3
  00069	f3 a4		 rep movsb
  0006b	8b 74 24 14	 mov	 esi, DWORD PTR __Newsize$[esp+12]
$L189361:
  0006f	50		 push	 eax
  00070	e8 00 00 00 00	 call	 ??3@YAXPAX@Z		; operator delete
  00075	83 c4 04	 add	 esp, 4
  00078	5f		 pop	 edi
$L189362:
  00079	89 5d 14	 mov	 DWORD PTR [ebp+20], ebx

; 1490 : 		return (0 < _Newsize);	// return true only if more work to do

  0007c	33 c0		 xor	 eax, eax
  0007e	c7 45 18 0f 00
	00 00		 mov	 DWORD PTR [ebp+24], 15	; 0000000fH
  00085	c6 44 2b 04 00	 mov	 BYTE PTR [ebx+ebp+4], 0
  0008a	3b c6		 cmp	 eax, esi
  0008c	5b		 pop	 ebx
  0008d	1b c0		 sbb	 eax, eax
  0008f	5e		 pop	 esi
  00090	f7 d8		 neg	 eax
  00092	5d		 pop	 ebp

; 1491 : 		}

  00093	c2 08 00	 ret	 8
$L185005:

; 1488 : 		else if (_Newsize == 0)

  00096	85 f6		 test	 esi, esi
  00098	75 23		 jne	 SHORT $L189394

; 1489 : 			_Eos(0);	// new size is zero, just null terminate

  0009a	83 f8 10	 cmp	 eax, 16			; 00000010H
  0009d	89 75 14	 mov	 DWORD PTR [ebp+20], esi
  000a0	72 14		 jb	 SHORT $L189391
  000a2	8b 6d 04	 mov	 ebp, DWORD PTR [ebp+4]

; 1490 : 		return (0 < _Newsize);	// return true only if more work to do

  000a5	33 c0		 xor	 eax, eax
  000a7	3b c6		 cmp	 eax, esi
  000a9	1b c0		 sbb	 eax, eax
  000ab	5e		 pop	 esi
  000ac	c6 45 00 00	 mov	 BYTE PTR [ebp], 0
  000b0	f7 d8		 neg	 eax
  000b2	5d		 pop	 ebp

; 1491 : 		}

  000b3	c2 08 00	 ret	 8

; 1489 : 			_Eos(0);	// new size is zero, just null terminate

$L189391:
  000b6	83 c5 04	 add	 ebp, 4
  000b9	c6 45 00 00	 mov	 BYTE PTR [ebp], 0
$L189394:

; 1490 : 		return (0 < _Newsize);	// return true only if more work to do

  000bd	33 c0		 xor	 eax, eax
  000bf	3b c6		 cmp	 eax, esi
  000c1	1b c0		 sbb	 eax, eax
  000c3	5e		 pop	 esi
  000c4	f7 d8		 neg	 eax
  000c6	5d		 pop	 ebp

; 1491 : 		}

  000c7	c2 08 00	 ret	 8
?_Grow@?$basic_string@DU?$char_traits@D@std@@V?$allocator@D@2@@std@@IAE_NI_N@Z ENDP ; std::basic_string<char,std::char_traits<char>,std::allocator<char> >::_Grow
_TEXT	ENDS
PUBLIC	??0?$list@PAXV?$allocator@PAX@std@@@std@@QAE@XZ	; std::list<void *,std::allocator<void *> >::list<void *,std::allocator<void *> >
; Function compile flags: /Ogty
; File c:\program files\microsoft visual studio .net 2003\vc7\include\list
;	COMDAT ??0?$list@PAXV?$allocator@PAX@std@@@std@@QAE@XZ
_TEXT	SEGMENT
??0?$list@PAXV?$allocator@PAX@std@@@std@@QAE@XZ PROC NEAR ; std::list<void *,std::allocator<void *> >::list<void *,std::allocator<void *> >, COMDAT
; _this$ = ecx

; 280  : 		{	// construct empty list

  00000	56		 push	 esi
  00001	8b f1		 mov	 esi, ecx
  00003	e8 00 00 00 00	 call	 ?_Buynode@?$list@PAXV?$allocator@PAX@std@@@std@@IAEPAU_Node@?$_List_nod@PAXV?$allocator@PAX@std@@@2@XZ ; std::list<void *,std::allocator<void *> >::_Buynode
  00008	89 46 04	 mov	 DWORD PTR [esi+4], eax
  0000b	c7 46 08 00 00
	00 00		 mov	 DWORD PTR [esi+8], 0

; 281  : 		}

  00012	8b c6		 mov	 eax, esi
  00014	5e		 pop	 esi
  00015	c3		 ret	 0
??0?$list@PAXV?$allocator@PAX@std@@@std@@QAE@XZ ENDP	; std::list<void *,std::allocator<void *> >::list<void *,std::allocator<void *> >
_TEXT	ENDS
PUBLIC	??1?$list@PAXV?$allocator@PAX@std@@@std@@QAE@XZ	; std::list<void *,std::allocator<void *> >::~list<void *,std::allocator<void *> >
; Function compile flags: /Ogty
;	COMDAT ??1?$list@PAXV?$allocator@PAX@std@@@std@@QAE@XZ
_TEXT	SEGMENT
??1?$list@PAXV?$allocator@PAX@std@@@std@@QAE@XZ PROC NEAR ; std::list<void *,std::allocator<void *> >::~list<void *,std::allocator<void *> >, COMDAT
; _this$ = ecx

; 364  : 		{	// destroy the object

  00000	56		 push	 esi
  00001	8b f1		 mov	 esi, ecx

; 365  : 		_Tidy();

  00003	e8 00 00 00 00	 call	 ?clear@?$list@PAXV?$allocator@PAX@std@@@std@@QAEXXZ ; std::list<void *,std::allocator<void *> >::clear
  00008	8b 46 04	 mov	 eax, DWORD PTR [esi+4]
  0000b	50		 push	 eax
  0000c	e8 00 00 00 00	 call	 ??3@YAXPAX@Z		; operator delete
  00011	83 c4 04	 add	 esp, 4
  00014	c7 46 04 00 00
	00 00		 mov	 DWORD PTR [esi+4], 0
  0001b	5e		 pop	 esi

; 366  : 		}

  0001c	c3		 ret	 0
??1?$list@PAXV?$allocator@PAX@std@@@std@@QAE@XZ ENDP	; std::list<void *,std::allocator<void *> >::~list<void *,std::allocator<void *> >
_TEXT	ENDS
PUBLIC	??_7logic_error@std@@6B@			; std::logic_error::`vftable'
PUBLIC	??_Glogic_error@std@@UAEPAXI@Z			; std::logic_error::`scalar deleting destructor'
PUBLIC	??1logic_error@std@@UAE@XZ			; std::logic_error::~logic_error
PUBLIC	?what@logic_error@std@@UBEPBDXZ			; std::logic_error::what
EXTRN	??_Elogic_error@std@@UAEPAXI@Z:NEAR		; std::logic_error::`vector deleting destructor'
EXTRN	??1exception@@UAE@XZ:NEAR			; exception::~exception
;	COMDAT ??_7logic_error@std@@6B@
; File c:\program files\microsoft visual studio .net 2003\vc7\include\iosfwd
CONST	SEGMENT
??_7logic_error@std@@6B@ DD FLAT:??_Elogic_error@std@@UAEPAXI@Z ; std::logic_error::`vftable'
	DD	FLAT:?what@logic_error@std@@UBEPBDXZ
; Function compile flags: /Ogty
; File c:\program files\microsoft visual studio .net 2003\vc7\include\stdexcept
CONST	ENDS
;	COMDAT ??1logic_error@std@@UAE@XZ
_TEXT	SEGMENT
??1logic_error@std@@UAE@XZ PROC NEAR			; std::logic_error::~logic_error, COMDAT
; _this$ = ecx

; 23   : 		{}	// destroy the object

  00000	56		 push	 esi
  00001	8b f1		 mov	 esi, ecx
  00003	c7 06 00 00 00
	00		 mov	 DWORD PTR [esi], OFFSET FLAT:??_7logic_error@std@@6B@
  00009	83 7e 24 10	 cmp	 DWORD PTR [esi+36], 16	; 00000010H
  0000d	72 0c		 jb	 SHORT $L189543
  0000f	8b 46 10	 mov	 eax, DWORD PTR [esi+16]
  00012	50		 push	 eax
  00013	e8 00 00 00 00	 call	 ??3@YAXPAX@Z		; operator delete
  00018	83 c4 04	 add	 esp, 4
$L189543:
  0001b	33 c0		 xor	 eax, eax
  0001d	c7 46 24 0f 00
	00 00		 mov	 DWORD PTR [esi+36], 15	; 0000000fH
  00024	89 46 20	 mov	 DWORD PTR [esi+32], eax
  00027	88 46 10	 mov	 BYTE PTR [esi+16], al
  0002a	8b ce		 mov	 ecx, esi
  0002c	5e		 pop	 esi
  0002d	e9 00 00 00 00	 jmp	 ??1exception@@UAE@XZ	; exception::~exception
??1logic_error@std@@UAE@XZ ENDP				; std::logic_error::~logic_error
; Function compile flags: /Ogty
_TEXT	ENDS
;	COMDAT ?what@logic_error@std@@UBEPBDXZ
_TEXT	SEGMENT
?what@logic_error@std@@UBEPBDXZ PROC NEAR		; std::logic_error::what, COMDAT
; _this$ = ecx

; 27   : 		return (_Str.c_str());

  00000	83 79 24 10	 cmp	 DWORD PTR [ecx+36], 16	; 00000010H
  00004	72 04		 jb	 SHORT $L189575
  00006	8b 41 10	 mov	 eax, DWORD PTR [ecx+16]

; 28   : 		}

  00009	c3		 ret	 0

; 27   : 		return (_Str.c_str());

$L189575:
  0000a	8d 41 10	 lea	 eax, DWORD PTR [ecx+16]

; 28   : 		}

  0000d	c3		 ret	 0
?what@logic_error@std@@UBEPBDXZ ENDP			; std::logic_error::what
; Function compile flags: /Ogty
_TEXT	ENDS
;	COMDAT ??_Glogic_error@std@@UAEPAXI@Z
_TEXT	SEGMENT
___flags$ = 8						; size = 4
??_Glogic_error@std@@UAEPAXI@Z PROC NEAR		; std::logic_error::`scalar deleting destructor', COMDAT
; _this$ = ecx
  00000	56		 push	 esi
  00001	8b f1		 mov	 esi, ecx
  00003	e8 00 00 00 00	 call	 ??1logic_error@std@@UAE@XZ ; std::logic_error::~logic_error
  00008	f6 44 24 08 01	 test	 BYTE PTR ___flags$[esp], 1
  0000d	74 09		 je	 SHORT $L189581
  0000f	56		 push	 esi
  00010	e8 00 00 00 00	 call	 ??3@YAXPAX@Z		; operator delete
  00015	83 c4 04	 add	 esp, 4
$L189581:
  00018	8b c6		 mov	 eax, esi
  0001a	5e		 pop	 esi
  0001b	c2 04 00	 ret	 4
??_Glogic_error@std@@UAEPAXI@Z ENDP			; std::logic_error::`scalar deleting destructor'
_TEXT	ENDS
PUBLIC	?assign@?$basic_string@DU?$char_traits@D@std@@V?$allocator@D@2@@std@@QAEAAV12@ABV12@II@Z ; std::basic_string<char,std::char_traits<char>,std::allocator<char> >::assign
; Function compile flags: /Ogty
; File c:\program files\microsoft visual studio .net 2003\vc7\include\xstring
;	COMDAT ?assign@?$basic_string@DU?$char_traits@D@std@@V?$allocator@D@2@@std@@QAEAAV12@ABV12@II@Z
_TEXT	SEGMENT
__Right$ = 8						; size = 4
__Roff$ = 12						; size = 4
__Count$ = 16						; size = 4
?assign@?$basic_string@DU?$char_traits@D@std@@V?$allocator@D@2@@std@@QAEAAV12@ABV12@II@Z PROC NEAR ; std::basic_string<char,std::char_traits<char>,std::allocator<char> >::assign, COMDAT
; _this$ = ecx

; 590  : 		{	// assign _Right [_Roff, _Roff + _Count)

  00000	53		 push	 ebx
  00001	55		 push	 ebp
  00002	56		 push	 esi

; 591  : 		if (_Right.size() < _Roff)

  00003	8b 74 24 14	 mov	 esi, DWORD PTR __Roff$[esp+8]
  00007	57		 push	 edi
  00008	8b 7c 24 14	 mov	 edi, DWORD PTR __Right$[esp+12]
  0000c	39 77 14	 cmp	 DWORD PTR [edi+20], esi
  0000f	8b d9		 mov	 ebx, ecx
  00011	73 05		 jae	 SHORT $L184271

; 592  : 			_String_base::_Xran();	// _Roff off end

  00013	e8 00 00 00 00	 call	 ?_Xran@_String_base@std@@QBEXXZ ; std::_String_base::_Xran
$L184271:

; 593  : 		size_type _Num = _Right.size() - _Roff;

  00018	8b 6f 14	 mov	 ebp, DWORD PTR [edi+20]

; 594  : 		if (_Count < _Num)

  0001b	8b 44 24 1c	 mov	 eax, DWORD PTR __Count$[esp+12]
  0001f	2b ee		 sub	 ebp, esi
  00021	3b c5		 cmp	 eax, ebp
  00023	73 02		 jae	 SHORT $L184273

; 595  : 			_Num = _Count;	// trim _Num to size

  00025	8b e8		 mov	 ebp, eax
$L184273:

; 596  : 
; 597  : 		if (this == &_Right)

  00027	3b df		 cmp	 ebx, edi
  00029	75 1f		 jne	 SHORT $L184274

; 598  : 			erase((size_type)(_Roff + _Num)), erase(0, _Roff);	// substring

  0002b	6a ff		 push	 -1
  0002d	03 ee		 add	 ebp, esi
  0002f	55		 push	 ebp
  00030	8b cb		 mov	 ecx, ebx
  00032	e8 00 00 00 00	 call	 ?erase@?$basic_string@DU?$char_traits@D@std@@V?$allocator@D@2@@std@@QAEAAV12@II@Z ; std::basic_string<char,std::char_traits<char>,std::allocator<char> >::erase
  00037	56		 push	 esi
  00038	6a 00		 push	 0
  0003a	8b cb		 mov	 ecx, ebx
  0003c	e8 00 00 00 00	 call	 ?erase@?$basic_string@DU?$char_traits@D@std@@V?$allocator@D@2@@std@@QAEAAV12@II@Z ; std::basic_string<char,std::char_traits<char>,std::allocator<char> >::erase
  00041	5f		 pop	 edi
  00042	5e		 pop	 esi
  00043	5d		 pop	 ebp

; 603  : 			}
; 604  : 		return (*this);

  00044	8b c3		 mov	 eax, ebx
  00046	5b		 pop	 ebx

; 605  : 		}

  00047	c2 0c 00	 ret	 12			; 0000000cH
$L184274:

; 599  : 		else if (_Grow(_Num))

  0004a	83 fd fe	 cmp	 ebp, -2			; fffffffeH
  0004d	76 07		 jbe	 SHORT $L189731
  0004f	8b cb		 mov	 ecx, ebx
  00051	e8 00 00 00 00	 call	 ?_Xlen@_String_base@std@@QBEXXZ ; std::_String_base::_Xlen
$L189731:
  00056	8b 43 18	 mov	 eax, DWORD PTR [ebx+24]
  00059	3b c5		 cmp	 eax, ebp
  0005b	73 21		 jae	 SHORT $L189732
  0005d	8b 43 14	 mov	 eax, DWORD PTR [ebx+20]
  00060	50		 push	 eax
  00061	55		 push	 ebp
  00062	8b cb		 mov	 ecx, ebx
  00064	e8 00 00 00 00	 call	 ?_Copy@?$basic_string@DU?$char_traits@D@std@@V?$allocator@D@2@@std@@IAEXII@Z ; std::basic_string<char,std::char_traits<char>,std::allocator<char> >::_Copy
  00069	85 ed		 test	 ebp, ebp
$L189777:
  0006b	76 6d		 jbe	 SHORT $L189776

; 600  : 			{	// make room and assign new stuff
; 601  : 			_Traits::copy(_Myptr(), _Right._Myptr() + _Roff, _Num);

  0006d	8b 4f 18	 mov	 ecx, DWORD PTR [edi+24]
  00070	b8 10 00 00 00	 mov	 eax, 16			; 00000010H
  00075	3b c8		 cmp	 ecx, eax
  00077	72 2f		 jb	 SHORT $L189742
  00079	8b 57 04	 mov	 edx, DWORD PTR [edi+4]
  0007c	eb 2d		 jmp	 SHORT $L189743

; 599  : 		else if (_Grow(_Num))

$L189732:
  0007e	85 ed		 test	 ebp, ebp
  00080	75 e9		 jne	 SHORT $L189777
  00082	83 f8 10	 cmp	 eax, 16			; 00000010H
  00085	89 6b 14	 mov	 DWORD PTR [ebx+20], ebp
  00088	72 0f		 jb	 SHORT $L189724
  0008a	8b 43 04	 mov	 eax, DWORD PTR [ebx+4]
  0008d	5f		 pop	 edi
  0008e	5e		 pop	 esi
  0008f	c6 00 00	 mov	 BYTE PTR [eax], 0
  00092	5d		 pop	 ebp

; 603  : 			}
; 604  : 		return (*this);

  00093	8b c3		 mov	 eax, ebx
  00095	5b		 pop	 ebx

; 605  : 		}

  00096	c2 0c 00	 ret	 12			; 0000000cH

; 599  : 		else if (_Grow(_Num))

$L189724:
  00099	5f		 pop	 edi
  0009a	8d 43 04	 lea	 eax, DWORD PTR [ebx+4]
  0009d	5e		 pop	 esi
  0009e	c6 00 00	 mov	 BYTE PTR [eax], 0
  000a1	5d		 pop	 ebp

; 603  : 			}
; 604  : 		return (*this);

  000a2	8b c3		 mov	 eax, ebx
  000a4	5b		 pop	 ebx

; 605  : 		}

  000a5	c2 0c 00	 ret	 12			; 0000000cH

; 600  : 			{	// make room and assign new stuff
; 601  : 			_Traits::copy(_Myptr(), _Right._Myptr() + _Roff, _Num);

$L189742:
  000a8	8d 57 04	 lea	 edx, DWORD PTR [edi+4]
$L189743:
  000ab	39 43 18	 cmp	 DWORD PTR [ebx+24], eax
  000ae	8d 43 04	 lea	 eax, DWORD PTR [ebx+4]
  000b1	72 04		 jb	 SHORT $L189748
  000b3	8b 38		 mov	 edi, DWORD PTR [eax]
  000b5	eb 02		 jmp	 SHORT $L189749
$L189748:
  000b7	8b f8		 mov	 edi, eax
$L189749:
  000b9	03 f2		 add	 esi, edx
  000bb	8b cd		 mov	 ecx, ebp
  000bd	8b d1		 mov	 edx, ecx
  000bf	c1 e9 02	 shr	 ecx, 2
  000c2	f3 a5		 rep movsd
  000c4	8b ca		 mov	 ecx, edx
  000c6	83 e1 03	 and	 ecx, 3
  000c9	f3 a4		 rep movsb

; 602  : 			_Eos(_Num);

  000cb	83 7b 18 10	 cmp	 DWORD PTR [ebx+24], 16	; 00000010H
  000cf	89 6b 14	 mov	 DWORD PTR [ebx+20], ebp
  000d2	72 02		 jb	 SHORT $L189771
  000d4	8b 00		 mov	 eax, DWORD PTR [eax]
$L189771:
  000d6	c6 04 28 00	 mov	 BYTE PTR [eax+ebp], 0
$L189776:
  000da	5f		 pop	 edi
  000db	5e		 pop	 esi
  000dc	5d		 pop	 ebp

; 603  : 			}
; 604  : 		return (*this);

  000dd	8b c3		 mov	 eax, ebx
  000df	5b		 pop	 ebx

; 605  : 		}

  000e0	c2 0c 00	 ret	 12			; 0000000cH
?assign@?$basic_string@DU?$char_traits@D@std@@V?$allocator@D@2@@std@@QAEAAV12@ABV12@II@Z ENDP ; std::basic_string<char,std::char_traits<char>,std::allocator<char> >::assign
_TEXT	ENDS
PUBLIC	?assign@?$basic_string@DU?$char_traits@D@std@@V?$allocator@D@2@@std@@QAEAAV12@PBDI@Z ; std::basic_string<char,std::char_traits<char>,std::allocator<char> >::assign
; Function compile flags: /Ogty
;	COMDAT ?assign@?$basic_string@DU?$char_traits@D@std@@V?$allocator@D@2@@std@@QAEAAV12@PBDI@Z
_TEXT	SEGMENT
__Ptr$ = 8						; size = 4
__Num$ = 12						; size = 4
?assign@?$basic_string@DU?$char_traits@D@std@@V?$allocator@D@2@@std@@QAEAAV12@PBDI@Z PROC NEAR ; std::basic_string<char,std::char_traits<char>,std::allocator<char> >::assign, COMDAT
; _this$ = ecx

; 608  : 		{	// assign [_Ptr, _Ptr + _Num)

  00000	53		 push	 ebx
  00001	8b d9		 mov	 ebx, ecx

; 609  : 		if (_Inside(_Ptr))

  00003	8b 53 18	 mov	 edx, DWORD PTR [ebx+24]
  00006	83 fa 10	 cmp	 edx, 16			; 00000010H
  00009	56		 push	 esi
  0000a	57		 push	 edi
  0000b	72 05		 jb	 SHORT $L189801
  0000d	8b 43 04	 mov	 eax, DWORD PTR [ebx+4]
  00010	eb 03		 jmp	 SHORT $L189802
$L189801:
  00012	8d 43 04	 lea	 eax, DWORD PTR [ebx+4]
$L189802:
  00015	8b 74 24 10	 mov	 esi, DWORD PTR __Ptr$[esp+8]
  00019	3b f0		 cmp	 esi, eax
  0001b	72 34		 jb	 SHORT $L184989
  0001d	83 fa 10	 cmp	 edx, 16			; 00000010H
  00020	8d 43 04	 lea	 eax, DWORD PTR [ebx+4]
  00023	72 04		 jb	 SHORT $L189805
  00025	8b 08		 mov	 ecx, DWORD PTR [eax]
  00027	eb 02		 jmp	 SHORT $L189806
$L189805:
  00029	8b c8		 mov	 ecx, eax
$L189806:
  0002b	8b 7b 14	 mov	 edi, DWORD PTR [ebx+20]
  0002e	03 f9		 add	 edi, ecx
  00030	3b fe		 cmp	 edi, esi
  00032	76 1d		 jbe	 SHORT $L184989

; 610  : 			return (assign(*this, _Ptr - _Myptr(), _Num));	// substring

  00034	83 fa 10	 cmp	 edx, 16			; 00000010H
  00037	72 02		 jb	 SHORT $L189814
  00039	8b 00		 mov	 eax, DWORD PTR [eax]
$L189814:
  0003b	8b 4c 24 14	 mov	 ecx, DWORD PTR __Num$[esp+8]
  0003f	51		 push	 ecx
  00040	2b f0		 sub	 esi, eax
  00042	56		 push	 esi
  00043	53		 push	 ebx
  00044	8b cb		 mov	 ecx, ebx
  00046	e8 00 00 00 00	 call	 ?assign@?$basic_string@DU?$char_traits@D@std@@V?$allocator@D@2@@std@@QAEAAV12@ABV12@II@Z ; std::basic_string<char,std::char_traits<char>,std::allocator<char> >::assign
  0004b	5f		 pop	 edi
  0004c	5e		 pop	 esi
  0004d	5b		 pop	 ebx

; 618  : 		}

  0004e	c2 08 00	 ret	 8
$L184989:
  00051	55		 push	 ebp

; 611  : 
; 612  : 		if (_Grow(_Num))

  00052	8b 6c 24 18	 mov	 ebp, DWORD PTR __Num$[esp+12]
  00056	83 fd fe	 cmp	 ebp, -2			; fffffffeH
  00059	76 07		 jbe	 SHORT $L189955
  0005b	8b cb		 mov	 ecx, ebx
  0005d	e8 00 00 00 00	 call	 ?_Xlen@_String_base@std@@QBEXXZ ; std::_String_base::_Xlen
$L189955:
  00062	8b 43 18	 mov	 eax, DWORD PTR [ebx+24]
  00065	3b c5		 cmp	 eax, ebp
  00067	73 1b		 jae	 SHORT $L189956
  00069	8b 53 14	 mov	 edx, DWORD PTR [ebx+20]
  0006c	52		 push	 edx
  0006d	55		 push	 ebp
  0006e	8b cb		 mov	 ecx, ebx
  00070	e8 00 00 00 00	 call	 ?_Copy@?$basic_string@DU?$char_traits@D@std@@V?$allocator@D@2@@std@@IAEXII@Z ; std::basic_string<char,std::char_traits<char>,std::allocator<char> >::_Copy
  00075	85 ed		 test	 ebp, ebp
$L189994:
  00077	76 68		 jbe	 SHORT $L189991

; 613  : 			{	// make room and assign new stuff
; 614  : 			_Traits::copy(_Myptr(), _Ptr, _Num);

  00079	83 7b 18 10	 cmp	 DWORD PTR [ebx+24], 16	; 00000010H
  0007d	72 2f		 jb	 SHORT $L189965
  0007f	8b 7b 04	 mov	 edi, DWORD PTR [ebx+4]
  00082	eb 2d		 jmp	 SHORT $L189966

; 611  : 
; 612  : 		if (_Grow(_Num))

$L189956:
  00084	85 ed		 test	 ebp, ebp
  00086	75 ef		 jne	 SHORT $L189994
  00088	83 f8 10	 cmp	 eax, 16			; 00000010H
  0008b	89 6b 14	 mov	 DWORD PTR [ebx+20], ebp
  0008e	72 0f		 jb	 SHORT $L189948
  00090	8b 43 04	 mov	 eax, DWORD PTR [ebx+4]
  00093	5d		 pop	 ebp
  00094	5f		 pop	 edi
  00095	c6 00 00	 mov	 BYTE PTR [eax], 0
  00098	5e		 pop	 esi

; 616  : 			}
; 617  : 		return (*this);

  00099	8b c3		 mov	 eax, ebx
  0009b	5b		 pop	 ebx

; 618  : 		}

  0009c	c2 08 00	 ret	 8

; 611  : 
; 612  : 		if (_Grow(_Num))

$L189948:
  0009f	5d		 pop	 ebp
  000a0	8d 43 04	 lea	 eax, DWORD PTR [ebx+4]
  000a3	5f		 pop	 edi
  000a4	c6 00 00	 mov	 BYTE PTR [eax], 0
  000a7	5e		 pop	 esi

; 616  : 			}
; 617  : 		return (*this);

  000a8	8b c3		 mov	 eax, ebx
  000aa	5b		 pop	 ebx

; 618  : 		}

  000ab	c2 08 00	 ret	 8

; 613  : 			{	// make room and assign new stuff
; 614  : 			_Traits::copy(_Myptr(), _Ptr, _Num);

$L189965:
  000ae	8d 7b 04	 lea	 edi, DWORD PTR [ebx+4]
$L189966:
  000b1	8b cd		 mov	 ecx, ebp
  000b3	8b c1		 mov	 eax, ecx
  000b5	c1 e9 02	 shr	 ecx, 2
  000b8	f3 a5		 rep movsd
  000ba	8b c8		 mov	 ecx, eax
  000bc	83 e1 03	 and	 ecx, 3
  000bf	f3 a4		 rep movsb

; 615  : 			_Eos(_Num);

  000c1	83 7b 18 10	 cmp	 DWORD PTR [ebx+24], 16	; 00000010H
  000c5	89 6b 14	 mov	 DWORD PTR [ebx+20], ebp
  000c8	72 10		 jb	 SHORT $L189987
  000ca	8b 43 04	 mov	 eax, DWORD PTR [ebx+4]
  000cd	c6 04 28 00	 mov	 BYTE PTR [eax+ebp], 0
  000d1	5d		 pop	 ebp
  000d2	5f		 pop	 edi
  000d3	5e		 pop	 esi

; 616  : 			}
; 617  : 		return (*this);

  000d4	8b c3		 mov	 eax, ebx
  000d6	5b		 pop	 ebx

; 618  : 		}

  000d7	c2 08 00	 ret	 8

; 615  : 			_Eos(_Num);

$L189987:
  000da	8d 43 04	 lea	 eax, DWORD PTR [ebx+4]
  000dd	c6 04 28 00	 mov	 BYTE PTR [eax+ebp], 0
$L189991:
  000e1	5d		 pop	 ebp
  000e2	5f		 pop	 edi
  000e3	5e		 pop	 esi

; 616  : 			}
; 617  : 		return (*this);

  000e4	8b c3		 mov	 eax, ebx
  000e6	5b		 pop	 ebx

; 618  : 		}

  000e7	c2 08 00	 ret	 8
?assign@?$basic_string@DU?$char_traits@D@std@@V?$allocator@D@2@@std@@QAEAAV12@PBDI@Z ENDP ; std::basic_string<char,std::char_traits<char>,std::allocator<char> >::assign
_TEXT	ENDS
PUBLIC	??0?$basic_string@DU?$char_traits@D@std@@V?$allocator@D@2@@std@@QAE@ABV01@@Z ; std::basic_string<char,std::char_traits<char>,std::allocator<char> >::basic_string<char,std::char_traits<char>,std::allocator<char> >
; Function compile flags: /Ogty
;	COMDAT ??0?$basic_string@DU?$char_traits@D@std@@V?$allocator@D@2@@std@@QAE@ABV01@@Z
_TEXT	SEGMENT
__Right$ = 8						; size = 4
??0?$basic_string@DU?$char_traits@D@std@@V?$allocator@D@2@@std@@QAE@ABV01@@Z PROC NEAR ; std::basic_string<char,std::char_traits<char>,std::allocator<char> >::basic_string<char,std::char_traits<char>,std::allocator<char> >, COMDAT
; _this$ = ecx

; 323  : 		{	// construct by copying _Right

  00000	56		 push	 esi

; 324  : 		_Tidy();

  00001	33 c0		 xor	 eax, eax
  00003	8b f1		 mov	 esi, ecx

; 325  : 		assign(_Right, 0, npos);

  00005	6a ff		 push	 -1
  00007	89 46 14	 mov	 DWORD PTR [esi+20], eax
  0000a	c7 46 18 0f 00
	00 00		 mov	 DWORD PTR [esi+24], 15	; 0000000fH
  00011	50		 push	 eax
  00012	88 46 04	 mov	 BYTE PTR [esi+4], al
  00015	8b 44 24 10	 mov	 eax, DWORD PTR __Right$[esp+8]
  00019	50		 push	 eax
  0001a	e8 00 00 00 00	 call	 ?assign@?$basic_string@DU?$char_traits@D@std@@V?$allocator@D@2@@std@@QAEAAV12@ABV12@II@Z ; std::basic_string<char,std::char_traits<char>,std::allocator<char> >::assign

; 326  : 		}

  0001f	8b c6		 mov	 eax, esi
  00021	5e		 pop	 esi
  00022	c2 04 00	 ret	 4
??0?$basic_string@DU?$char_traits@D@std@@V?$allocator@D@2@@std@@QAE@ABV01@@Z ENDP ; std::basic_string<char,std::char_traits<char>,std::allocator<char> >::basic_string<char,std::char_traits<char>,std::allocator<char> >
_TEXT	ENDS
PUBLIC	?assign@?$basic_string@DU?$char_traits@D@std@@V?$allocator@D@2@@std@@QAEAAV12@PBD@Z ; std::basic_string<char,std::char_traits<char>,std::allocator<char> >::assign
; Function compile flags: /Ogty
;	COMDAT ?assign@?$basic_string@DU?$char_traits@D@std@@V?$allocator@D@2@@std@@QAEAAV12@PBD@Z
_TEXT	SEGMENT
__Ptr$ = 8						; size = 4
?assign@?$basic_string@DU?$char_traits@D@std@@V?$allocator@D@2@@std@@QAEAAV12@PBD@Z PROC NEAR ; std::basic_string<char,std::char_traits<char>,std::allocator<char> >::assign, COMDAT
; _this$ = ecx

; 621  : 		{	// assign [_Ptr, <null>)

  00000	56		 push	 esi

; 622  : 		return (assign(_Ptr, _Traits::length(_Ptr)));

  00001	8b 74 24 08	 mov	 esi, DWORD PTR __Ptr$[esp]
  00005	8b c6		 mov	 eax, esi
  00007	57		 push	 edi
  00008	8d 78 01	 lea	 edi, DWORD PTR [eax+1]
  0000b	eb 03 8d 49 00	 npad	 5
$L190066:
  00010	8a 10		 mov	 dl, BYTE PTR [eax]
  00012	40		 inc	 eax
  00013	84 d2		 test	 dl, dl
  00015	75 f9		 jne	 SHORT $L190066
  00017	2b c7		 sub	 eax, edi
  00019	50		 push	 eax
  0001a	56		 push	 esi
  0001b	e8 00 00 00 00	 call	 ?assign@?$basic_string@DU?$char_traits@D@std@@V?$allocator@D@2@@std@@QAEAAV12@PBDI@Z ; std::basic_string<char,std::char_traits<char>,std::allocator<char> >::assign
  00020	5f		 pop	 edi
  00021	5e		 pop	 esi

; 623  : 		}

  00022	c2 04 00	 ret	 4
?assign@?$basic_string@DU?$char_traits@D@std@@V?$allocator@D@2@@std@@QAEAAV12@PBD@Z ENDP ; std::basic_string<char,std::char_traits<char>,std::allocator<char> >::assign
_TEXT	ENDS
PUBLIC	??0logic_error@std@@QAE@ABV?$basic_string@DU?$char_traits@D@std@@V?$allocator@D@2@@1@@Z ; std::logic_error::logic_error
EXTRN	??0exception@@QAE@XZ:NEAR			; exception::exception
;	COMDAT xdata$x
; File c:\program files\microsoft visual studio .net 2003\vc7\include\iosfwd
xdata$x	SEGMENT
$T190169 DD	0ffffffffH
	DD	FLAT:$L190069
$T190167 DD	019930520H
	DD	01H
	DD	FLAT:$T190169
	DD	2 DUP(00H)
	DD	2 DUP(00H)
; Function compile flags: /Ogty
; File c:\program files\microsoft visual studio .net 2003\vc7\include\stdexcept
xdata$x	ENDS
;	COMDAT ??0logic_error@std@@QAE@ABV?$basic_string@DU?$char_traits@D@std@@V?$allocator@D@2@@1@@Z
_TEXT	SEGMENT
_this$ = -16						; size = 4
__$EHRec$ = -12						; size = 12
__Message$ = 8						; size = 4
??0logic_error@std@@QAE@ABV?$basic_string@DU?$char_traits@D@std@@V?$allocator@D@2@@1@@Z PROC NEAR ; std::logic_error::logic_error, COMDAT
; _this$ = ecx

; 19   : 		{	// construct from message string

  00000	6a ff		 push	 -1
  00002	68 00 00 00 00	 push	 __ehhandler$??0logic_error@std@@QAE@ABV?$basic_string@DU?$char_traits@D@std@@V?$allocator@D@2@@1@@Z
  00007	64 a1 00 00 00
	00		 mov	 eax, DWORD PTR fs:__except_list
  0000d	50		 push	 eax
  0000e	64 89 25 00 00
	00 00		 mov	 DWORD PTR fs:__except_list, esp
  00015	51		 push	 ecx
  00016	56		 push	 esi
  00017	8b f1		 mov	 esi, ecx
  00019	89 74 24 04	 mov	 DWORD PTR _this$[esp+20], esi
  0001d	e8 00 00 00 00	 call	 ??0exception@@QAE@XZ	; exception::exception
  00022	33 c0		 xor	 eax, eax
  00024	8d 4e 0c	 lea	 ecx, DWORD PTR [esi+12]
  00027	c7 06 00 00 00
	00		 mov	 DWORD PTR [esi], OFFSET FLAT:??_7logic_error@std@@6B@
  0002d	6a ff		 push	 -1
  0002f	89 41 14	 mov	 DWORD PTR [ecx+20], eax
  00032	c7 41 18 0f 00
	00 00		 mov	 DWORD PTR [ecx+24], 15	; 0000000fH
  00039	50		 push	 eax
  0003a	89 44 24 18	 mov	 DWORD PTR __$EHRec$[esp+36], eax
  0003e	88 41 04	 mov	 BYTE PTR [ecx+4], al
  00041	8b 44 24 20	 mov	 eax, DWORD PTR __Message$[esp+24]
  00045	50		 push	 eax
  00046	e8 00 00 00 00	 call	 ?assign@?$basic_string@DU?$char_traits@D@std@@V?$allocator@D@2@@std@@QAEAAV12@ABV12@II@Z ; std::basic_string<char,std::char_traits<char>,std::allocator<char> >::assign

; 20   : 		}

  0004b	8b 4c 24 08	 mov	 ecx, DWORD PTR __$EHRec$[esp+20]
  0004f	8b c6		 mov	 eax, esi
  00051	5e		 pop	 esi
  00052	64 89 0d 00 00
	00 00		 mov	 DWORD PTR fs:__except_list, ecx
  00059	83 c4 10	 add	 esp, 16			; 00000010H
  0005c	c2 04 00	 ret	 4
_TEXT	ENDS
;	COMDAT text$x
text$x	SEGMENT
$L190069:
  00000	8b 4d f0	 mov	 ecx, DWORD PTR _this$[ebp]
  00003	e9 00 00 00 00	 jmp	 ??1exception@@UAE@XZ	; exception::~exception
__ehhandler$??0logic_error@std@@QAE@ABV?$basic_string@DU?$char_traits@D@std@@V?$allocator@D@2@@1@@Z:
  00008	b8 00 00 00 00	 mov	 eax, OFFSET FLAT:$T190167
  0000d	e9 00 00 00 00	 jmp	 ___CxxFrameHandler
text$x	ENDS
??0logic_error@std@@QAE@ABV?$basic_string@DU?$char_traits@D@std@@V?$allocator@D@2@@1@@Z ENDP ; std::logic_error::logic_error
PUBLIC	??0length_error@std@@QAE@ABV?$basic_string@DU?$char_traits@D@std@@V?$allocator@D@2@@1@@Z ; std::length_error::length_error
PUBLIC	??_7length_error@std@@6B@			; std::length_error::`vftable'
PUBLIC	??_Glength_error@std@@UAEPAXI@Z			; std::length_error::`scalar deleting destructor'
EXTRN	??_Elength_error@std@@UAEPAXI@Z:NEAR		; std::length_error::`vector deleting destructor'
;	COMDAT ??_7length_error@std@@6B@
CONST	SEGMENT
??_7length_error@std@@6B@ DD FLAT:??_Elength_error@std@@UAEPAXI@Z ; std::length_error::`vftable'
	DD	FLAT:?what@logic_error@std@@UBEPBDXZ
; Function compile flags: /Ogty
CONST	ENDS
;	COMDAT ??0length_error@std@@QAE@ABV?$basic_string@DU?$char_traits@D@std@@V?$allocator@D@2@@1@@Z
_TEXT	SEGMENT
__Message$ = 8						; size = 4
??0length_error@std@@QAE@ABV?$basic_string@DU?$char_traits@D@std@@V?$allocator@D@2@@1@@Z PROC NEAR ; std::length_error::length_error, COMDAT
; _this$ = ecx

; 95   : 		{	// construct from message string

  00000	8b 44 24 04	 mov	 eax, DWORD PTR __Message$[esp-4]
  00004	56		 push	 esi
  00005	50		 push	 eax
  00006	8b f1		 mov	 esi, ecx
  00008	e8 00 00 00 00	 call	 ??0logic_error@std@@QAE@ABV?$basic_string@DU?$char_traits@D@std@@V?$allocator@D@2@@1@@Z ; std::logic_error::logic_error
  0000d	c7 06 00 00 00
	00		 mov	 DWORD PTR [esi], OFFSET FLAT:??_7length_error@std@@6B@

; 96   : 		}

  00013	8b c6		 mov	 eax, esi
  00015	5e		 pop	 esi
  00016	c2 04 00	 ret	 4
??0length_error@std@@QAE@ABV?$basic_string@DU?$char_traits@D@std@@V?$allocator@D@2@@1@@Z ENDP ; std::length_error::length_error
_TEXT	ENDS
PUBLIC	??1length_error@std@@UAE@XZ			; std::length_error::~length_error
; Function compile flags: /Ogty
;	COMDAT ??_Glength_error@std@@UAEPAXI@Z
_TEXT	SEGMENT
___flags$ = 8						; size = 4
??_Glength_error@std@@UAEPAXI@Z PROC NEAR		; std::length_error::`scalar deleting destructor', COMDAT
; _this$ = ecx
  00000	56		 push	 esi
  00001	8b f1		 mov	 esi, ecx
  00003	e8 00 00 00 00	 call	 ??1length_error@std@@UAE@XZ ; std::length_error::~length_error
  00008	f6 44 24 08 01	 test	 BYTE PTR ___flags$[esp], 1
  0000d	74 09		 je	 SHORT $L190177
  0000f	56		 push	 esi
  00010	e8 00 00 00 00	 call	 ??3@YAXPAX@Z		; operator delete
  00015	83 c4 04	 add	 esp, 4
$L190177:
  00018	8b c6		 mov	 eax, esi
  0001a	5e		 pop	 esi
  0001b	c2 04 00	 ret	 4
??_Glength_error@std@@UAEPAXI@Z ENDP			; std::length_error::`scalar deleting destructor'
; Function compile flags: /Ogty
_TEXT	ENDS
;	COMDAT ??1length_error@std@@UAE@XZ
_TEXT	SEGMENT
??1length_error@std@@UAE@XZ PROC NEAR			; std::length_error::~length_error, COMDAT
; _this$ = ecx

; 99   : 		{}	// destroy the object

  00000	56		 push	 esi
  00001	8b f1		 mov	 esi, ecx
  00003	c7 06 00 00 00
	00		 mov	 DWORD PTR [esi], OFFSET FLAT:??_7logic_error@std@@6B@
  00009	83 7e 24 10	 cmp	 DWORD PTR [esi+36], 16	; 00000010H
  0000d	72 0c		 jb	 SHORT $L190270
  0000f	8b 46 10	 mov	 eax, DWORD PTR [esi+16]
  00012	50		 push	 eax
  00013	e8 00 00 00 00	 call	 ??3@YAXPAX@Z		; operator delete
  00018	83 c4 04	 add	 esp, 4
$L190270:
  0001b	33 c0		 xor	 eax, eax
  0001d	c7 46 24 0f 00
	00 00		 mov	 DWORD PTR [esi+36], 15	; 0000000fH
  00024	89 46 20	 mov	 DWORD PTR [esi+32], eax
  00027	88 46 10	 mov	 BYTE PTR [esi+16], al
  0002a	8b ce		 mov	 ecx, esi
  0002c	5e		 pop	 esi
  0002d	e9 00 00 00 00	 jmp	 ??1exception@@UAE@XZ	; exception::~exception
??1length_error@std@@UAE@XZ ENDP			; std::length_error::~length_error
_TEXT	ENDS
PUBLIC	??0?$basic_string@DU?$char_traits@D@std@@V?$allocator@D@2@@std@@QAE@PBD@Z ; std::basic_string<char,std::char_traits<char>,std::allocator<char> >::basic_string<char,std::char_traits<char>,std::allocator<char> >
; Function compile flags: /Ogty
; File c:\program files\microsoft visual studio .net 2003\vc7\include\xstring
;	COMDAT ??0?$basic_string@DU?$char_traits@D@std@@V?$allocator@D@2@@std@@QAE@PBD@Z
_TEXT	SEGMENT
__Ptr$ = 8						; size = 4
??0?$basic_string@DU?$char_traits@D@std@@V?$allocator@D@2@@std@@QAE@PBD@Z PROC NEAR ; std::basic_string<char,std::char_traits<char>,std::allocator<char> >::basic_string<char,std::char_traits<char>,std::allocator<char> >, COMDAT
; _this$ = ecx

; 361  : 		_Tidy();
; 362  : 		assign(_Ptr);

  00000	8b 54 24 04	 mov	 edx, DWORD PTR __Ptr$[esp-4]
  00004	56		 push	 esi
  00005	8b f1		 mov	 esi, ecx
  00007	8b c2		 mov	 eax, edx
  00009	57		 push	 edi
  0000a	c7 46 18 0f 00
	00 00		 mov	 DWORD PTR [esi+24], 15	; 0000000fH
  00011	c7 46 14 00 00
	00 00		 mov	 DWORD PTR [esi+20], 0
  00018	c6 46 04 00	 mov	 BYTE PTR [esi+4], 0
  0001c	8d 78 01	 lea	 edi, DWORD PTR [eax+1]
  0001f	90		 npad	 1
$L190357:
  00020	8a 08		 mov	 cl, BYTE PTR [eax]
  00022	40		 inc	 eax
  00023	84 c9		 test	 cl, cl
  00025	75 f9		 jne	 SHORT $L190357
  00027	2b c7		 sub	 eax, edi
  00029	50		 push	 eax
  0002a	52		 push	 edx
  0002b	8b ce		 mov	 ecx, esi
  0002d	e8 00 00 00 00	 call	 ?assign@?$basic_string@DU?$char_traits@D@std@@V?$allocator@D@2@@std@@QAEAAV12@PBDI@Z ; std::basic_string<char,std::char_traits<char>,std::allocator<char> >::assign
  00032	5f		 pop	 edi

; 363  : 		}

  00033	8b c6		 mov	 eax, esi
  00035	5e		 pop	 esi
  00036	c2 04 00	 ret	 4
??0?$basic_string@DU?$char_traits@D@std@@V?$allocator@D@2@@std@@QAE@PBD@Z ENDP ; std::basic_string<char,std::char_traits<char>,std::allocator<char> >::basic_string<char,std::char_traits<char>,std::allocator<char> >
_TEXT	ENDS
PUBLIC	??_R0?AVlogic_error@std@@@8			; std::logic_error `RTTI Type Descriptor'
PUBLIC	__CT??_R0?AVlogic_error@std@@@8??0logic_error@std@@QAE@ABV01@@Z40
PUBLIC	??_R0?AVexception@@@8				; exception `RTTI Type Descriptor'
PUBLIC	__CT??_R0?AVexception@@@8??0exception@@QAE@ABV0@@Z12
PUBLIC	??0logic_error@std@@QAE@ABV01@@Z		; std::logic_error::logic_error
PUBLIC	??0length_error@std@@QAE@ABV01@@Z		; std::length_error::length_error
PUBLIC	__TI3?AVlength_error@std@@
PUBLIC	__CTA3?AVlength_error@std@@
PUBLIC	??_R0?AVlength_error@std@@@8			; std::length_error `RTTI Type Descriptor'
PUBLIC	__CT??_R0?AVlength_error@std@@@8??0length_error@std@@QAE@ABV01@@Z40
PUBLIC	??_C@_0BB@MOGOBHAF@list?$DMT?$DO?5too?5long?$AA@ ; `string'
PUBLIC	?_Incsize@?$list@PAXV?$allocator@PAX@std@@@std@@IAEXI@Z ; std::list<void *,std::allocator<void *> >::_Incsize
EXTRN	??0exception@@QAE@ABV0@@Z:NEAR			; exception::exception
EXTRN	??_7type_info@@6B@:DWORD			; type_info::`vftable'
;	COMDAT xdata$x
; File c:\program files\microsoft visual studio .net 2003\vc7\include\stdexcept
xdata$x	SEGMENT
$T190493 DD	0ffffffffH
	DD	FLAT:$L190362
$T190490 DD	019930520H
	DD	01H
	DD	FLAT:$T190493
	DD	2 DUP(00H)
	DD	2 DUP(00H)
xdata$x	ENDS
;	COMDAT ??_C@_0BB@MOGOBHAF@list?$DMT?$DO?5too?5long?$AA@
CONST	SEGMENT
??_C@_0BB@MOGOBHAF@list?$DMT?$DO?5too?5long?$AA@ DB 'list<T> too long', 00H ; `string'
CONST	ENDS
;	COMDAT __TI3?AVlength_error@std@@
xdata$x	SEGMENT
__TI3?AVlength_error@std@@ DD 00H
	DD	FLAT:??1length_error@std@@UAE@XZ
	DD	00H
	DD	FLAT:__CTA3?AVlength_error@std@@
xdata$x	ENDS
;	COMDAT __CTA3?AVlength_error@std@@
xdata$x	SEGMENT
__CTA3?AVlength_error@std@@ DD 03H
	DD	FLAT:__CT??_R0?AVlength_error@std@@@8??0length_error@std@@QAE@ABV01@@Z40
	DD	FLAT:__CT??_R0?AVlogic_error@std@@@8??0logic_error@std@@QAE@ABV01@@Z40
	DD	FLAT:__CT??_R0?AVexception@@@8??0exception@@QAE@ABV0@@Z12
xdata$x	ENDS
;	COMDAT __CT??_R0?AVlength_error@std@@@8??0length_error@std@@QAE@ABV01@@Z40
xdata$x	SEGMENT
__CT??_R0?AVlength_error@std@@@8??0length_error@std@@QAE@ABV01@@Z40 DD 00H
	DD	FLAT:??_R0?AVlength_error@std@@@8
	DD	00H
	DD	0ffffffffH
	ORG $+4
	DD	028H
	DD	FLAT:??0length_error@std@@QAE@ABV01@@Z
xdata$x	ENDS
;	COMDAT ??_R0?AVlength_error@std@@@8
_DATA	SEGMENT
??_R0?AVlength_error@std@@@8 DD FLAT:??_7type_info@@6B@	; std::length_error `RTTI Type Descriptor'
	DD	00H
	DB	'.?AVlength_error@std@@', 00H
_DATA	ENDS
;	COMDAT __CT??_R0?AVlogic_error@std@@@8??0logic_error@std@@QAE@ABV01@@Z40
xdata$x	SEGMENT
__CT??_R0?AVlogic_error@std@@@8??0logic_error@std@@QAE@ABV01@@Z40 DD 00H
	DD	FLAT:??_R0?AVlogic_error@std@@@8
	DD	00H
	DD	0ffffffffH
	ORG $+4
	DD	028H
	DD	FLAT:??0logic_error@std@@QAE@ABV01@@Z
xdata$x	ENDS
;	COMDAT ??_R0?AVlogic_error@std@@@8
_DATA	SEGMENT
??_R0?AVlogic_error@std@@@8 DD FLAT:??_7type_info@@6B@	; std::logic_error `RTTI Type Descriptor'
	DD	00H
	DB	'.?AVlogic_error@std@@', 00H
_DATA	ENDS
;	COMDAT __CT??_R0?AVexception@@@8??0exception@@QAE@ABV0@@Z12
xdata$x	SEGMENT
__CT??_R0?AVexception@@@8??0exception@@QAE@ABV0@@Z12 DD 00H
	DD	FLAT:??_R0?AVexception@@@8
	DD	00H
	DD	0ffffffffH
	ORG $+4
	DD	0cH
	DD	FLAT:??0exception@@QAE@ABV0@@Z
xdata$x	ENDS
;	COMDAT ??_R0?AVexception@@@8
_DATA	SEGMENT
??_R0?AVexception@@@8 DD FLAT:??_7type_info@@6B@	; exception `RTTI Type Descriptor'
	DD	00H
	DB	'.?AVexception@@', 00H
; Function compile flags: /Ogty
; File c:\program files\microsoft visual studio .net 2003\vc7\include\list
_DATA	ENDS
;	COMDAT ?_Incsize@?$list@PAXV?$allocator@PAX@std@@@std@@IAEXI@Z
_TEXT	SEGMENT
$T190361 = -80						; size = 28
$T190360 = -52						; size = 40
__$EHRec$ = -12						; size = 12
__Count$ = 8						; size = 4
?_Incsize@?$list@PAXV?$allocator@PAX@std@@@std@@IAEXI@Z PROC NEAR ; std::list<void *,std::allocator<void *> >::_Incsize, COMDAT
; _this$ = ecx

; 956  : 		{	// alter element count, with checking

  00000	64 a1 00 00 00
	00		 mov	 eax, DWORD PTR fs:__except_list

; 957  : 		if (max_size() - _Mysize < _Count)

  00006	8b 54 24 04	 mov	 edx, DWORD PTR __Count$[esp-4]
  0000a	6a ff		 push	 -1
  0000c	68 00 00 00 00	 push	 __ehhandler$?_Incsize@?$list@PAXV?$allocator@PAX@std@@@std@@IAEXI@Z
  00011	50		 push	 eax
  00012	64 89 25 00 00
	00 00		 mov	 DWORD PTR fs:__except_list, esp
  00019	8b 41 08	 mov	 eax, DWORD PTR [ecx+8]
  0001c	83 ec 44	 sub	 esp, 68			; 00000044H
  0001f	56		 push	 esi
  00020	be ff ff ff 3f	 mov	 esi, 1073741823		; 3fffffffH
  00025	2b f0		 sub	 esi, eax
  00027	3b f2		 cmp	 esi, edx
  00029	5e		 pop	 esi
  0002a	73 51		 jae	 SHORT $L185954

; 958  : 			_THROW(length_error, "list<T> too long");

  0002c	6a 10		 push	 16			; 00000010H
  0002e	68 00 00 00 00	 push	 OFFSET FLAT:??_C@_0BB@MOGOBHAF@list?$DMT?$DO?5too?5long?$AA@
  00033	8d 4c 24 08	 lea	 ecx, DWORD PTR $T190361[esp+88]
  00037	c7 44 24 20 0f
	00 00 00	 mov	 DWORD PTR $T190361[esp+112], 15 ; 0000000fH
  0003f	c7 44 24 1c 00
	00 00 00	 mov	 DWORD PTR $T190361[esp+108], 0
  00047	c6 44 24 0c 00	 mov	 BYTE PTR $T190361[esp+92], 0
  0004c	e8 00 00 00 00	 call	 ?assign@?$basic_string@DU?$char_traits@D@std@@V?$allocator@D@2@@std@@QAEAAV12@PBDI@Z ; std::basic_string<char,std::char_traits<char>,std::allocator<char> >::assign
  00051	8d 04 24	 lea	 eax, DWORD PTR $T190361[esp+80]
  00054	50		 push	 eax
  00055	8d 4c 24 20	 lea	 ecx, DWORD PTR $T190360[esp+84]
  00059	c7 44 24 50 00
	00 00 00	 mov	 DWORD PTR __$EHRec$[esp+92], 0
  00061	e8 00 00 00 00	 call	 ??0logic_error@std@@QAE@ABV?$basic_string@DU?$char_traits@D@std@@V?$allocator@D@2@@1@@Z ; std::logic_error::logic_error
  00066	68 00 00 00 00	 push	 OFFSET FLAT:__TI3?AVlength_error@std@@
  0006b	8d 4c 24 20	 lea	 ecx, DWORD PTR $T190360[esp+84]
  0006f	51		 push	 ecx
  00070	c7 44 24 24 00
	00 00 00	 mov	 DWORD PTR $T190360[esp+88], OFFSET FLAT:??_7length_error@std@@6B@
  00078	e8 00 00 00 00	 call	 __CxxThrowException@8
$L185954:

; 959  : 		_Mysize += _Count;

  0007d	03 c2		 add	 eax, edx
  0007f	89 41 08	 mov	 DWORD PTR [ecx+8], eax

; 960  : 		}

  00082	8b 4c 24 44	 mov	 ecx, DWORD PTR __$EHRec$[esp+80]
  00086	64 89 0d 00 00
	00 00		 mov	 DWORD PTR fs:__except_list, ecx
  0008d	83 c4 50	 add	 esp, 80			; 00000050H
  00090	c2 04 00	 ret	 4
$L190492:
_TEXT	ENDS
;	COMDAT text$x
text$x	SEGMENT
$L190362:
  00000	8d 4d b0	 lea	 ecx, DWORD PTR $T190361[ebp]
  00003	e9 00 00 00 00	 jmp	 ??1?$basic_string@DU?$char_traits@D@std@@V?$allocator@D@2@@std@@QAE@XZ ; std::basic_string<char,std::char_traits<char>,std::allocator<char> >::~basic_string<char,std::char_traits<char>,std::allocator<char> >
__ehhandler$?_Incsize@?$list@PAXV?$allocator@PAX@std@@@std@@IAEXI@Z:
  00008	b8 00 00 00 00	 mov	 eax, OFFSET FLAT:$T190490
  0000d	e9 00 00 00 00	 jmp	 ___CxxFrameHandler
text$x	ENDS
?_Incsize@?$list@PAXV?$allocator@PAX@std@@@std@@IAEXI@Z ENDP ; std::list<void *,std::allocator<void *> >::_Incsize
;	COMDAT xdata$x
xdata$x	SEGMENT
$T190598 DD	0ffffffffH
	DD	FLAT:$L190498
$T190596 DD	019930520H
	DD	01H
	DD	FLAT:$T190598
	DD	2 DUP(00H)
	DD	2 DUP(00H)
; Function compile flags: /Ogty
xdata$x	ENDS
;	COMDAT ??0logic_error@std@@QAE@ABV01@@Z
_TEXT	SEGMENT
_this$ = -16						; size = 4
__$EHRec$ = -12						; size = 12
___that$ = 8						; size = 4
??0logic_error@std@@QAE@ABV01@@Z PROC NEAR		; std::logic_error::logic_error, COMDAT
; _this$ = ecx
  00000	6a ff		 push	 -1
  00002	68 00 00 00 00	 push	 __ehhandler$??0logic_error@std@@QAE@ABV01@@Z
  00007	64 a1 00 00 00
	00		 mov	 eax, DWORD PTR fs:__except_list
  0000d	50		 push	 eax
  0000e	64 89 25 00 00
	00 00		 mov	 DWORD PTR fs:__except_list, esp
  00015	51		 push	 ecx
  00016	56		 push	 esi
  00017	57		 push	 edi
  00018	8b 7c 24 1c	 mov	 edi, DWORD PTR ___that$[esp+20]
  0001c	8b f1		 mov	 esi, ecx
  0001e	57		 push	 edi
  0001f	89 74 24 0c	 mov	 DWORD PTR _this$[esp+28], esi
  00023	e8 00 00 00 00	 call	 ??0exception@@QAE@ABV0@@Z ; exception::exception
  00028	33 c0		 xor	 eax, eax
  0002a	6a ff		 push	 -1
  0002c	8d 4e 0c	 lea	 ecx, DWORD PTR [esi+12]
  0002f	c7 06 00 00 00
	00		 mov	 DWORD PTR [esi], OFFSET FLAT:??_7logic_error@std@@6B@
  00035	50		 push	 eax
  00036	83 c7 0c	 add	 edi, 12			; 0000000cH
  00039	c7 41 18 0f 00
	00 00		 mov	 DWORD PTR [ecx+24], 15	; 0000000fH
  00040	89 41 14	 mov	 DWORD PTR [ecx+20], eax
  00043	57		 push	 edi
  00044	89 44 24 20	 mov	 DWORD PTR __$EHRec$[esp+44], eax
  00048	88 41 04	 mov	 BYTE PTR [ecx+4], al
  0004b	e8 00 00 00 00	 call	 ?assign@?$basic_string@DU?$char_traits@D@std@@V?$allocator@D@2@@std@@QAEAAV12@ABV12@II@Z ; std::basic_string<char,std::char_traits<char>,std::allocator<char> >::assign
  00050	8b 4c 24 0c	 mov	 ecx, DWORD PTR __$EHRec$[esp+24]
  00054	5f		 pop	 edi
  00055	8b c6		 mov	 eax, esi
  00057	5e		 pop	 esi
  00058	64 89 0d 00 00
	00 00		 mov	 DWORD PTR fs:__except_list, ecx
  0005f	83 c4 10	 add	 esp, 16			; 00000010H
  00062	c2 04 00	 ret	 4
_TEXT	ENDS
;	COMDAT text$x
text$x	SEGMENT
$L190498:
  00000	8b 4d f0	 mov	 ecx, DWORD PTR _this$[ebp]
  00003	e9 00 00 00 00	 jmp	 ??1exception@@UAE@XZ	; exception::~exception
__ehhandler$??0logic_error@std@@QAE@ABV01@@Z:
  00008	b8 00 00 00 00	 mov	 eax, OFFSET FLAT:$T190596
  0000d	e9 00 00 00 00	 jmp	 ___CxxFrameHandler
text$x	ENDS
??0logic_error@std@@QAE@ABV01@@Z ENDP			; std::logic_error::logic_error
; Function compile flags: /Ogty
;	COMDAT ??0length_error@std@@QAE@ABV01@@Z
_TEXT	SEGMENT
___that$ = 8						; size = 4
??0length_error@std@@QAE@ABV01@@Z PROC NEAR		; std::length_error::length_error, COMDAT
; _this$ = ecx
  00000	8b 44 24 04	 mov	 eax, DWORD PTR ___that$[esp-4]
  00004	56		 push	 esi
  00005	50		 push	 eax
  00006	8b f1		 mov	 esi, ecx
  00008	e8 00 00 00 00	 call	 ??0logic_error@std@@QAE@ABV01@@Z
  0000d	c7 06 00 00 00
	00		 mov	 DWORD PTR [esi], OFFSET FLAT:??_7length_error@std@@6B@
  00013	8b c6		 mov	 eax, esi
  00015	5e		 pop	 esi
  00016	c2 04 00	 ret	 4
??0length_error@std@@QAE@ABV01@@Z ENDP			; std::length_error::length_error
_TEXT	ENDS
PUBLIC	?_Insert@?$list@PAXV?$allocator@PAX@std@@@std@@QAEXViterator@12@ABQAX@Z ; std::list<void *,std::allocator<void *> >::_Insert
; Function compile flags: /Ogty
;	COMDAT ?_Insert@?$list@PAXV?$allocator@PAX@std@@@std@@QAEXViterator@12@ABQAX@Z
_TEXT	SEGMENT
__Where$ = 8						; size = 4
__Val$ = 12						; size = 4
?_Insert@?$list@PAXV?$allocator@PAX@std@@@std@@QAEXViterator@12@ABQAX@Z PROC NEAR ; std::list<void *,std::allocator<void *> >::_Insert, COMDAT
; _this$ = ecx

; 522  : 		_Nodeptr _Pnode = _Where._Mynode();
; 523  : 		_Nodeptr _Newnode = _Buynode(_Pnode, _Prevnode(_Pnode), _Val);

  00000	8b 44 24 08	 mov	 eax, DWORD PTR __Val$[esp-4]
  00004	53		 push	 ebx
  00005	8b 5c 24 08	 mov	 ebx, DWORD PTR __Where$[esp]
  00009	56		 push	 esi
  0000a	57		 push	 edi
  0000b	8b f9		 mov	 edi, ecx
  0000d	8b 4b 04	 mov	 ecx, DWORD PTR [ebx+4]
  00010	50		 push	 eax
  00011	51		 push	 ecx
  00012	53		 push	 ebx
  00013	8b cf		 mov	 ecx, edi
  00015	e8 00 00 00 00	 call	 ?_Buynode@?$list@PAXV?$allocator@PAX@std@@@std@@IAEPAU_Node@?$_List_nod@PAXV?$allocator@PAX@std@@@2@PAU342@0ABQAX@Z ; std::list<void *,std::allocator<void *> >::_Buynode

; 524  : 		_Incsize(1);

  0001a	6a 01		 push	 1
  0001c	8b cf		 mov	 ecx, edi
  0001e	8b f0		 mov	 esi, eax
  00020	e8 00 00 00 00	 call	 ?_Incsize@?$list@PAXV?$allocator@PAX@std@@@std@@IAEXI@Z ; std::list<void *,std::allocator<void *> >::_Incsize

; 525  : 		_Prevnode(_Pnode) = _Newnode;

  00025	89 73 04	 mov	 DWORD PTR [ebx+4], esi

; 526  : 		_Nextnode(_Prevnode(_Newnode)) = _Newnode;

  00028	8b 56 04	 mov	 edx, DWORD PTR [esi+4]
  0002b	5f		 pop	 edi
  0002c	89 32		 mov	 DWORD PTR [edx], esi
  0002e	5e		 pop	 esi
  0002f	5b		 pop	 ebx

; 527  : 		}

  00030	c2 08 00	 ret	 8
?_Insert@?$list@PAXV?$allocator@PAX@std@@@std@@QAEXViterator@12@ABQAX@Z ENDP ; std::list<void *,std::allocator<void *> >::_Insert
_TEXT	ENDS
PUBLIC	?push_back@?$list@PAXV?$allocator@PAX@std@@@std@@QAEXABQAX@Z ; std::list<void *,std::allocator<void *> >::push_back
; Function compile flags: /Ogty
;	COMDAT ?push_back@?$list@PAXV?$allocator@PAX@std@@@std@@QAEXABQAX@Z
_TEXT	SEGMENT
__Val$ = 8						; size = 4
?push_back@?$list@PAXV?$allocator@PAX@std@@@std@@QAEXABQAX@Z PROC NEAR ; std::list<void *,std::allocator<void *> >::push_back, COMDAT
; _this$ = ecx

; 481  : 		_Insert(end(), _Val);

  00000	8b 44 24 04	 mov	 eax, DWORD PTR __Val$[esp-4]
  00004	53		 push	 ebx
  00005	56		 push	 esi
  00006	57		 push	 edi
  00007	8b f1		 mov	 esi, ecx
  00009	8b 7e 04	 mov	 edi, DWORD PTR [esi+4]
  0000c	8b 4f 04	 mov	 ecx, DWORD PTR [edi+4]
  0000f	50		 push	 eax
  00010	51		 push	 ecx
  00011	57		 push	 edi
  00012	8b ce		 mov	 ecx, esi
  00014	e8 00 00 00 00	 call	 ?_Buynode@?$list@PAXV?$allocator@PAX@std@@@std@@IAEPAU_Node@?$_List_nod@PAXV?$allocator@PAX@std@@@2@PAU342@0ABQAX@Z ; std::list<void *,std::allocator<void *> >::_Buynode
  00019	6a 01		 push	 1
  0001b	8b ce		 mov	 ecx, esi
  0001d	8b d8		 mov	 ebx, eax
  0001f	e8 00 00 00 00	 call	 ?_Incsize@?$list@PAXV?$allocator@PAX@std@@@std@@IAEXI@Z ; std::list<void *,std::allocator<void *> >::_Incsize
  00024	89 5f 04	 mov	 DWORD PTR [edi+4], ebx
  00027	8b 53 04	 mov	 edx, DWORD PTR [ebx+4]
  0002a	5f		 pop	 edi
  0002b	5e		 pop	 esi
  0002c	89 1a		 mov	 DWORD PTR [edx], ebx
  0002e	5b		 pop	 ebx

; 482  : 		}

  0002f	c2 04 00	 ret	 4
?push_back@?$list@PAXV?$allocator@PAX@std@@@std@@QAEXABQAX@Z ENDP ; std::list<void *,std::allocator<void *> >::push_back
_TEXT	ENDS
PUBLIC	??_C@_09PKKCPLIP@bad?5alloc?$AA@		; `string'
PUBLIC	?Create@?$MemPooler@VCMover@@@@IAEXXZ		; MemPooler<CMover>::Create
EXTRN	__imp__VirtualAlloc@16:NEAR
;	COMDAT ??_C@_09PKKCPLIP@bad?5alloc?$AA@
CONST	SEGMENT
??_C@_09PKKCPLIP@bad?5alloc?$AA@ DB 'bad alloc', 00H	; `string'
; Function compile flags: /Ogty
; File c:\documents and settings\test\mes documents\source\virtuos_v17\build\program\_network\misc\include\mempooler.h
CONST	ENDS
;	COMDAT ?Create@?$MemPooler@VCMover@@@@IAEXXZ
_TEXT	SEGMENT
_pMemBlock$ = -4					; size = 4
?Create@?$MemPooler@VCMover@@@@IAEXXZ PROC NEAR		; MemPooler<CMover>::Create, COMDAT
; _this$ = ecx

; 120  : 		{

  00000	51		 push	 ecx
  00001	56		 push	 esi
  00002	8b f1		 mov	 esi, ecx

; 121  : #ifdef __VERIFY_MEMPOOL
; 122  : 			return;
; 123  : #endif
; 124  : #ifdef __VM_0819
; 125  : 			Log( "Create" );
; 126  : #endif	// __VM_0819
; 127  : 			const int AllocationSize	= m_nListBlockSize * m_nNumOfBlock;

  00004	8b 46 10	 mov	 eax, DWORD PTR [esi+16]
  00007	0f af 46 14	 imul	 eax, DWORD PTR [esi+20]
  0000b	57		 push	 edi

; 128  : 			void* pMemBlock		= VirtualAlloc( NULL, AllocationSize, MEM_RESERVE | MEM_COMMIT, PAGE_READWRITE );

  0000c	6a 04		 push	 4
  0000e	68 00 30 00 00	 push	 12288			; 00003000H
  00013	50		 push	 eax
  00014	6a 00		 push	 0
  00016	ff 15 00 00 00
	00		 call	 DWORD PTR __imp__VirtualAlloc@16

; 129  : 			ASSERT( pMemBlock );
; 130  : 			if( !pMemBlock )

  0001c	85 c0		 test	 eax, eax
  0001e	89 44 24 08	 mov	 DWORD PTR _pMemBlock$[esp+12], eax
  00022	75 0d		 jne	 SHORT $L184871

; 131  : 				Error( "bad alloc" );

  00024	68 00 00 00 00	 push	 OFFSET FLAT:??_C@_09PKKCPLIP@bad?5alloc?$AA@
  00029	e8 00 00 00 00	 call	 ?Error@@YAPBDPBDZZ	; Error
  0002e	83 c4 04	 add	 esp, 4
$L184871:
  00031	53		 push	 ebx

; 132  : 			m_ListOfMemBlockPtr.push_back( pMemBlock );

  00032	8b 5e 08	 mov	 ebx, DWORD PTR [esi+8]
  00035	8b 4b 04	 mov	 ecx, DWORD PTR [ebx+4]
  00038	55		 push	 ebp
  00039	8d 7e 04	 lea	 edi, DWORD PTR [esi+4]
  0003c	8d 44 24 10	 lea	 eax, DWORD PTR _pMemBlock$[esp+20]
  00040	50		 push	 eax
  00041	51		 push	 ecx
  00042	53		 push	 ebx
  00043	8b cf		 mov	 ecx, edi
  00045	e8 00 00 00 00	 call	 ?_Buynode@?$list@PAXV?$allocator@PAX@std@@@std@@IAEPAU_Node@?$_List_nod@PAXV?$allocator@PAX@std@@@2@PAU342@0ABQAX@Z ; std::list<void *,std::allocator<void *> >::_Buynode
  0004a	6a 01		 push	 1
  0004c	8b cf		 mov	 ecx, edi
  0004e	8b e8		 mov	 ebp, eax
  00050	e8 00 00 00 00	 call	 ?_Incsize@?$list@PAXV?$allocator@PAX@std@@@std@@IAEXI@Z ; std::list<void *,std::allocator<void *> >::_Incsize

; 133  : 			BlockNode* pNode	= reinterpret_cast<BlockNode*>(pMemBlock);
; 134  : 			pNode	= reinterpret_cast<BlockNode*>( ( reinterpret_cast<DWORD>( pNode ) ) + ( m_nNumOfBlock - 1 ) * ( m_nListBlockSize ) );	// set pNode to last

  00055	8b 7c 24 10	 mov	 edi, DWORD PTR _pMemBlock$[esp+20]
  00059	89 6b 04	 mov	 DWORD PTR [ebx+4], ebp
  0005c	8b 55 04	 mov	 edx, DWORD PTR [ebp+4]
  0005f	89 2a		 mov	 DWORD PTR [edx], ebp
  00061	8b 46 10	 mov	 eax, DWORD PTR [esi+16]
  00064	8d 48 ff	 lea	 ecx, DWORD PTR [eax-1]
  00067	8b 46 14	 mov	 eax, DWORD PTR [esi+20]
  0006a	0f af c1	 imul	 eax, ecx
  0006d	03 c7		 add	 eax, edi

; 135  : 			for( int i = m_nNumOfBlock - 1; i >= 0; i-- )

  0006f	85 c9		 test	 ecx, ecx
  00071	5d		 pop	 ebp
  00072	5b		 pop	 ebx
  00073	7c 0f		 jl	 SHORT $L184879

; 132  : 			m_ListOfMemBlockPtr.push_back( pMemBlock );

  00075	41		 inc	 ecx
$L184877:

; 136  : 			{
; 137  : 				pNode->pNext	= m_pFreeList;

  00076	8b 16		 mov	 edx, DWORD PTR [esi]
  00078	89 10		 mov	 DWORD PTR [eax], edx

; 138  : 				m_pFreeList	= pNode;
; 139  : 				pNode	= reinterpret_cast<BlockNode*>( ( reinterpret_cast<DWORD>( pNode ) ) - m_nListBlockSize );	// set pNode to previous

  0007a	8b 7e 14	 mov	 edi, DWORD PTR [esi+20]
  0007d	89 06		 mov	 DWORD PTR [esi], eax
  0007f	2b c7		 sub	 eax, edi
  00081	49		 dec	 ecx
  00082	75 f2		 jne	 SHORT $L184877
$L184879:
  00084	5f		 pop	 edi
  00085	5e		 pop	 esi

; 140  : 			}
; 141  : 		}

  00086	59		 pop	 ecx
  00087	c3		 ret	 0
?Create@?$MemPooler@VCMover@@@@IAEXXZ ENDP		; MemPooler<CMover>::Create
_TEXT	ENDS
PUBLIC	??0?$MemPooler@VCMover@@@@QAE@H@Z		; MemPooler<CMover>::MemPooler<CMover>
EXTRN	__imp__InitializeCriticalSectionAndSpinCount@8:NEAR
;	COMDAT xdata$x
; File c:\program files\microsoft visual studio .net 2003\vc7\include\xmemory
xdata$x	SEGMENT
$T190845 DD	0ffffffffH
	DD	FLAT:$L190753
$T190843 DD	019930520H
	DD	01H
	DD	FLAT:$T190845
	DD	2 DUP(00H)
	DD	2 DUP(00H)
; Function compile flags: /Ogty
; File c:\documents and settings\test\mes documents\source\virtuos_v17\build\program\_network\misc\include\mempooler.h
xdata$x	ENDS
;	COMDAT ??0?$MemPooler@VCMover@@@@QAE@H@Z
_TEXT	SEGMENT
_this$ = -16						; size = 4
__$EHRec$ = -12						; size = 12
_nNumOfBlock$ = 8					; size = 4
??0?$MemPooler@VCMover@@@@QAE@H@Z PROC NEAR		; MemPooler<CMover>::MemPooler<CMover>, COMDAT
; _this$ = ecx

; 39   : 		{

  00000	6a ff		 push	 -1
  00002	68 00 00 00 00	 push	 __ehhandler$??0?$MemPooler@VCMover@@@@QAE@H@Z
  00007	64 a1 00 00 00
	00		 mov	 eax, DWORD PTR fs:__except_list
  0000d	50		 push	 eax
  0000e	64 89 25 00 00
	00 00		 mov	 DWORD PTR fs:__except_list, esp
  00015	51		 push	 ecx
  00016	56		 push	 esi
  00017	8b f1		 mov	 esi, ecx
  00019	57		 push	 edi
  0001a	8d 7e 04	 lea	 edi, DWORD PTR [esi+4]
  0001d	8b cf		 mov	 ecx, edi
  0001f	89 74 24 08	 mov	 DWORD PTR _this$[esp+24], esi
  00023	c7 06 00 00 00
	00		 mov	 DWORD PTR [esi], 0
  00029	e8 00 00 00 00	 call	 ?_Buynode@?$list@PAXV?$allocator@PAX@std@@@std@@IAEPAU_Node@?$_List_nod@PAXV?$allocator@PAX@std@@@2@XZ ; std::list<void *,std::allocator<void *> >::_Buynode
  0002e	89 47 04	 mov	 DWORD PTR [edi+4], eax
  00031	c7 47 08 00 00
	00 00		 mov	 DWORD PTR [edi+8], 0
  00038	8b 44 24 1c	 mov	 eax, DWORD PTR _nNumOfBlock$[esp+20]

; 40   : #ifdef __VERIFY_MEMPOOL
; 41   : 			return;
; 42   : #endif
; 43   : #ifdef __VM_0819
; 44   : 			strcpy( m_szClass, szClass );
; 45   : #endif	// __VM_0819
; 46   : 			assert( nNumOfBlock > 0 );
; 47   : 			m_nListBlockSize	= sizeof(BlockNode) + sizeof(T);
; 48   : 			InitializeCriticalSectionAndSpinCount( &m_cs, 2000 );

  0003c	68 d0 07 00 00	 push	 2000			; 000007d0H
  00041	8d 4e 1c	 lea	 ecx, DWORD PTR [esi+28]
  00044	51		 push	 ecx
  00045	c7 44 24 1c 00
	00 00 00	 mov	 DWORD PTR __$EHRec$[esp+40], 0
  0004d	89 46 10	 mov	 DWORD PTR [esi+16], eax
  00050	c7 46 18 00 00
	00 00		 mov	 DWORD PTR [esi+24], 0
  00057	c7 46 14 0c 47
	00 00		 mov	 DWORD PTR [esi+20], 18188 ; 0000470cH
  0005e	ff 15 00 00 00
	00		 call	 DWORD PTR __imp__InitializeCriticalSectionAndSpinCount@8

; 49   : 			Create();

  00064	8b ce		 mov	 ecx, esi
  00066	e8 00 00 00 00	 call	 ?Create@?$MemPooler@VCMover@@@@IAEXXZ ; MemPooler<CMover>::Create

; 50   : 		}

  0006b	8b 4c 24 0c	 mov	 ecx, DWORD PTR __$EHRec$[esp+24]
  0006f	5f		 pop	 edi
  00070	8b c6		 mov	 eax, esi
  00072	5e		 pop	 esi
  00073	64 89 0d 00 00
	00 00		 mov	 DWORD PTR fs:__except_list, ecx
  0007a	83 c4 10	 add	 esp, 16			; 00000010H
  0007d	c2 04 00	 ret	 4
_TEXT	ENDS
;	COMDAT text$x
text$x	SEGMENT
$L190753:
  00000	8b 4d f0	 mov	 ecx, DWORD PTR _this$[ebp]
  00003	83 c1 04	 add	 ecx, 4
  00006	e9 00 00 00 00	 jmp	 ??1?$list@PAXV?$allocator@PAX@std@@@std@@QAE@XZ ; std::list<void *,std::allocator<void *> >::~list<void *,std::allocator<void *> >
__ehhandler$??0?$MemPooler@VCMover@@@@QAE@H@Z:
  0000b	b8 00 00 00 00	 mov	 eax, OFFSET FLAT:$T190843
  00010	e9 00 00 00 00	 jmp	 ___CxxFrameHandler
text$x	ENDS
??0?$MemPooler@VCMover@@@@QAE@H@Z ENDP			; MemPooler<CMover>::MemPooler<CMover>
CRT$XCU	SEGMENT
_$S2	DD	FLAT:_$E1
CRT$XCU	ENDS
;	COMDAT xdata$x
; File c:\documents and settings\test\mes documents\source\virtuos_v17\build\program\_network\objects\obj.cpp
xdata$x	SEGMENT
$T190859 DD	0ffffffffH
	DD	FLAT:$L190854
$T190856 DD	019930520H
	DD	01H
	DD	FLAT:$T190859
	DD	2 DUP(00H)
	DD	2 DUP(00H)
; Function compile flags: /Ogty
xdata$x	ENDS
;	COMDAT _$E1
text$yc	SEGMENT
$T190851 = -16						; size = 4
__$EHRec$ = -12						; size = 12
_$E1	PROC NEAR					; COMDAT

; 99   : CMoverPool*	CMover::m_pPool	= new CMoverPool( 1024 );

  00000	6a ff		 push	 -1
  00002	68 00 00 00 00	 push	 __ehhandler$_$E1
  00007	64 a1 00 00 00
	00		 mov	 eax, DWORD PTR fs:__except_list
  0000d	50		 push	 eax
  0000e	64 89 25 00 00
	00 00		 mov	 DWORD PTR fs:__except_list, esp
  00015	51		 push	 ecx
  00016	68 98 00 00 00	 push	 152			; 00000098H
  0001b	e8 00 00 00 00	 call	 ??2@YAPAXI@Z		; operator new
  00020	83 c4 04	 add	 esp, 4
  00023	89 04 24	 mov	 DWORD PTR $T190851[esp+16], eax
  00026	85 c0		 test	 eax, eax
  00028	c7 44 24 0c 00
	00 00 00	 mov	 DWORD PTR __$EHRec$[esp+24], 0
  00030	74 20		 je	 SHORT $L190852
  00032	68 00 04 00 00	 push	 1024			; 00000400H
  00037	8b c8		 mov	 ecx, eax
  00039	e8 00 00 00 00	 call	 ??0?$MemPooler@VCMover@@@@QAE@H@Z ; MemPooler<CMover>::MemPooler<CMover>
  0003e	a3 00 00 00 00	 mov	 DWORD PTR ?m_pPool@CMover@@2PAV?$MemPooler@VCMover@@@@A, eax ; CMover::m_pPool
  00043	8b 4c 24 04	 mov	 ecx, DWORD PTR __$EHRec$[esp+16]
  00047	64 89 0d 00 00
	00 00		 mov	 DWORD PTR fs:__except_list, ecx
  0004e	83 c4 10	 add	 esp, 16			; 00000010H
  00051	c3		 ret	 0
$L190852:
  00052	8b 4c 24 04	 mov	 ecx, DWORD PTR __$EHRec$[esp+16]
  00056	33 c0		 xor	 eax, eax
  00058	a3 00 00 00 00	 mov	 DWORD PTR ?m_pPool@CMover@@2PAV?$MemPooler@VCMover@@@@A, eax ; CMover::m_pPool
  0005d	64 89 0d 00 00
	00 00		 mov	 DWORD PTR fs:__except_list, ecx
  00064	83 c4 10	 add	 esp, 16			; 00000010H
  00067	c3		 ret	 0
text$yc	ENDS
;	COMDAT text$x
text$x	SEGMENT
$L190854:
  00000	8b 45 f0	 mov	 eax, DWORD PTR $T190851[ebp]
  00003	50		 push	 eax
  00004	e8 00 00 00 00	 call	 ??3@YAXPAX@Z		; operator delete
  00009	59		 pop	 ecx
  0000a	c3		 ret	 0
__ehhandler$_$E1:
  0000b	b8 00 00 00 00	 mov	 eax, OFFSET FLAT:$T190856
  00010	e9 00 00 00 00	 jmp	 ___CxxFrameHandler
text$x	ENDS
_$E1	ENDP
PUBLIC	?m_pPool@CMover@@2PAV?$MemPooler@VCMover@@@@A	; CMover::m_pPool
_BSS	SEGMENT
?m_pPool@CMover@@2PAV?$MemPooler@VCMover@@@@A DD 01H DUP (?) ; CMover::m_pPool
_BSS	ENDS
END
