; Listing generated by Microsoft (R) Optimizing Compiler Version 13.10.6030 

	TITLE	\Documents and Settings\test\Mes documents\Source\Virtuos_v17\Build\Program\_Common\pet.cpp
	.386P
include listing.inc
if @Version gt 510
.model FLAT
else
_TEXT	SEGMENT PARA USE32 PUBLIC 'CODE'
_TEXT	ENDS
_DATA	SEGMENT DWORD USE32 PUBLIC 'DATA'
_DATA	ENDS
CONST	SEGMENT DWORD USE32 PUBLIC 'CONST'
CONST	ENDS
_BSS	SEGMENT DWORD USE32 PUBLIC 'BSS'
_BSS	ENDS
$$SYMBOLS	SEGMENT BYTE USE32 'DEBSYM'
$$SYMBOLS	ENDS
_TLS	SEGMENT DWORD USE32 PUBLIC 'TLS'
_TLS	ENDS
;	COMDAT ??_C@_0P@DOCAHOFJ@AvailDestParam?$AA@
CONST	SEGMENT DWORD USE32 PUBLIC 'CONST'
CONST	ENDS
;	COMDAT ??_C@_0N@ELNJGIBK@LevelupAvail?$AA@
CONST	SEGMENT DWORD USE32 PUBLIC 'CONST'
CONST	ENDS
;	COMDAT ??_C@_0L@NIFCIDOF@FeedEnergy?$AA@
CONST	SEGMENT DWORD USE32 PUBLIC 'CONST'
CONST	ENDS
;	COMDAT ??_C@_0N@FDFFOKED@IncrementExp?$AA@
CONST	SEGMENT DWORD USE32 PUBLIC 'CONST'
CONST	ENDS
;	COMDAT ??_C@_09EENALPJP@MaxEnergy?$AA@
CONST	SEGMENT DWORD USE32 PUBLIC 'CONST'
CONST	ENDS
;	COMDAT ??_C@_0BD@NJHGCLHH@AddLifeProbability?$AA@
CONST	SEGMENT DWORD USE32 PUBLIC 'CONST'
CONST	ENDS
;	COMDAT ??_C@_07FMCMMKEN@Penalty?$AA@
CONST	SEGMENT DWORD USE32 PUBLIC 'CONST'
CONST	ENDS
text$yd	SEGMENT PARA USE32 PUBLIC 'CODE'
text$yd	ENDS
xdata$x	SEGMENT DWORD USE32 PUBLIC 'CONST'
xdata$x	ENDS
;	COMDAT ??0CPetProperty@@QAE@XZ
_TEXT	SEGMENT PARA USE32 PUBLIC 'CODE'
_TEXT	ENDS
;	COMDAT ??_GCPetProperty@@UAEPAXI@Z
_TEXT	SEGMENT PARA USE32 PUBLIC 'CODE'
_TEXT	ENDS
;	COMDAT ??_H@YGXPAXIHP6EPAX0@Z@Z
_TEXT	SEGMENT PARA USE32 PUBLIC 'CODE'
_TEXT	ENDS
;	COMDAT ??1CPetProperty@@UAE@XZ
_TEXT	SEGMENT PARA USE32 PUBLIC 'CODE'
_TEXT	ENDS
;	COMDAT ?GetPenalty@CPetProperty@@QAEPAU_PETPENALTY@@E@Z
_TEXT	SEGMENT PARA USE32 PUBLIC 'CODE'
_TEXT	ENDS
;	COMDAT ?GetAvailParam@CPetProperty@@QAEPAU_PETAVAILPARAM@@E@Z
_TEXT	SEGMENT PARA USE32 PUBLIC 'CODE'
_TEXT	ENDS
;	COMDAT ?GetLevelupAvailLevel@CPetProperty@@QAEEE@Z
_TEXT	SEGMENT PARA USE32 PUBLIC 'CODE'
_TEXT	ENDS
;	COMDAT ?GetFeedEnergy@CPetProperty@@QAEGKH@Z
_TEXT	SEGMENT PARA USE32 PUBLIC 'CODE'
_TEXT	ENDS
;	COMDAT ?Hatch@CPetProperty@@QAEEXZ
_TEXT	SEGMENT PARA USE32 PUBLIC 'CODE'
_TEXT	ENDS
;	COMDAT ?GetIncrementExp@CPetProperty@@QAEKE@Z
_TEXT	SEGMENT PARA USE32 PUBLIC 'CODE'
_TEXT	ENDS
;	COMDAT ?GetMaxEnergy@CPetProperty@@QAEGE@Z
_TEXT	SEGMENT PARA USE32 PUBLIC 'CODE'
_TEXT	ENDS
;	COMDAT ?GetAddLife@CPetProperty@@QAEGXZ
_TEXT	SEGMENT PARA USE32 PUBLIC 'CODE'
_TEXT	ENDS
;	COMDAT ?GetInstance@CPetProperty@@SAPAV1@XZ
_TEXT	SEGMENT PARA USE32 PUBLIC 'CODE'
_TEXT	ENDS
;	COMDAT _$E2
text$yd	SEGMENT PARA USE32 PUBLIC 'CODE'
text$yd	ENDS
;	COMDAT ?LoadScript@CPetProperty@@QAEHPBD@Z
_TEXT	SEGMENT PARA USE32 PUBLIC 'CODE'
_TEXT	ENDS
;	COMDAT ??0CPet@@QAE@XZ
_TEXT	SEGMENT PARA USE32 PUBLIC 'CODE'
_TEXT	ENDS
;	COMDAT ??_GCPet@@UAEPAXI@Z
_TEXT	SEGMENT PARA USE32 PUBLIC 'CODE'
_TEXT	ENDS
;	COMDAT ??1CPet@@UAE@XZ
_TEXT	SEGMENT PARA USE32 PUBLIC 'CODE'
_TEXT	ENDS
;	COMDAT ?Serialize@CPet@@QAEXAAVCAr@@@Z
_TEXT	SEGMENT PARA USE32 PUBLIC 'CODE'
_TEXT	ENDS
;	COMDAT ?SetEnergy@CPet@@QAEXG@Z
_TEXT	SEGMENT PARA USE32 PUBLIC 'CODE'
_TEXT	ENDS
;	COMDAT ?SetExp@CPet@@QAEXK@Z
_TEXT	SEGMENT PARA USE32 PUBLIC 'CODE'
_TEXT	ENDS
;	COMDAT ?GetLife@CPet@@QAEGXZ
_TEXT	SEGMENT PARA USE32 PUBLIC 'CODE'
_TEXT	ENDS
;	COMDAT ?SetAvailLevel@CPet@@QAEXEE@Z
_TEXT	SEGMENT PARA USE32 PUBLIC 'CODE'
_TEXT	ENDS
;	COMDAT ?GetAvailLevel@CPet@@QAEEE@Z
_TEXT	SEGMENT PARA USE32 PUBLIC 'CODE'
_TEXT	ENDS
;	COMDAT ?GetAvailDestParam@CPet@@QAEXAAKAAH@Z
_TEXT	SEGMENT PARA USE32 PUBLIC 'CODE'
_TEXT	ENDS
;	COMDAT ?GetIndex@CPet@@QAEKXZ
_TEXT	SEGMENT PARA USE32 PUBLIC 'CODE'
_TEXT	ENDS
;	COMDAT ?InitEgg@CPet@@QAEXXZ
_TEXT	SEGMENT PARA USE32 PUBLIC 'CODE'
_TEXT	ENDS
;	COMDAT ??4CPet@@QAEAAV0@AAV0@@Z
_TEXT	SEGMENT PARA USE32 PUBLIC 'CODE'
_TEXT	ENDS
;	COMDAT ??0CTransformStuff@@QAE@XZ
_TEXT	SEGMENT PARA USE32 PUBLIC 'CODE'
_TEXT	ENDS
;	COMDAT ??_GCTransformStuff@@UAEPAXI@Z
_TEXT	SEGMENT PARA USE32 PUBLIC 'CODE'
_TEXT	ENDS
;	COMDAT ??0CTransformStuff@@QAE@H@Z
_TEXT	SEGMENT PARA USE32 PUBLIC 'CODE'
_TEXT	ENDS
;	COMDAT ??1CTransformStuff@@UAE@XZ
_TEXT	SEGMENT PARA USE32 PUBLIC 'CODE'
_TEXT	ENDS
;	COMDAT ?AddComponent@CTransformStuff@@QAEXHF@Z
_TEXT	SEGMENT PARA USE32 PUBLIC 'CODE'
_TEXT	ENDS
;	COMDAT ?Serialize@CTransformStuff@@UAEXAAVCAr@@@Z
_TEXT	SEGMENT PARA USE32 PUBLIC 'CODE'
_TEXT	ENDS
;	COMDAT ?SetName@CPet@@QAEXPBD@Z
_TEXT	SEGMENT PARA USE32 PUBLIC 'CODE'
_TEXT	ENDS
;	COMDAT ??8ATL@@YA_NABV?$CStringT@DV?$StrTraitMFC@DV?$ChTraitsCRT@D@ATL@@@@@0@PBD@Z
_TEXT	SEGMENT PARA USE32 PUBLIC 'CODE'
_TEXT	ENDS
;	COMDAT ?compare@?$basic_string@DU?$char_traits@D@std@@V?$allocator@D@2@@std@@QBEHABV12@@Z
_TEXT	SEGMENT PARA USE32 PUBLIC 'CODE'
_TEXT	ENDS
;	COMDAT ??0?$vector@U_FEEDENERGY@@V?$allocator@U_FEEDENERGY@@@std@@@std@@QAE@XZ
_TEXT	SEGMENT PARA USE32 PUBLIC 'CODE'
_TEXT	ENDS
;	COMDAT ??1?$vector@U_FEEDENERGY@@V?$allocator@U_FEEDENERGY@@@std@@@std@@QAE@XZ
_TEXT	SEGMENT PARA USE32 PUBLIC 'CODE'
_TEXT	ENDS
;	COMDAT ?begin@?$vector@U_FEEDENERGY@@V?$allocator@U_FEEDENERGY@@@std@@@std@@QAE?AViterator@12@XZ
_TEXT	SEGMENT PARA USE32 PUBLIC 'CODE'
_TEXT	ENDS
;	COMDAT ?end@?$vector@U_FEEDENERGY@@V?$allocator@U_FEEDENERGY@@@std@@@std@@QAE?AViterator@12@XZ
_TEXT	SEGMENT PARA USE32 PUBLIC 'CODE'
_TEXT	ENDS
;	COMDAT ?push_back@?$vector@U_FEEDENERGY@@V?$allocator@U_FEEDENERGY@@@std@@@std@@QAEXABU_FEEDENERGY@@@Z
_TEXT	SEGMENT PARA USE32 PUBLIC 'CODE'
_TEXT	ENDS
;	COMDAT ?clear@?$vector@U_FEEDENERGY@@V?$allocator@U_FEEDENERGY@@@std@@@std@@QAEXXZ
_TEXT	SEGMENT PARA USE32 PUBLIC 'CODE'
_TEXT	ENDS
;	COMDAT ??0?$vector@GV?$allocator@G@std@@@std@@QAE@XZ
_TEXT	SEGMENT PARA USE32 PUBLIC 'CODE'
_TEXT	ENDS
;	COMDAT ??1?$vector@GV?$allocator@G@std@@@std@@QAE@XZ
_TEXT	SEGMENT PARA USE32 PUBLIC 'CODE'
_TEXT	ENDS
;	COMDAT ?size@?$vector@GV?$allocator@G@std@@@std@@QBEIXZ
_TEXT	SEGMENT PARA USE32 PUBLIC 'CODE'
_TEXT	ENDS
;	COMDAT ??A?$vector@GV?$allocator@G@std@@@std@@QAEAAGI@Z
_TEXT	SEGMENT PARA USE32 PUBLIC 'CODE'
_TEXT	ENDS
;	COMDAT ?push_back@?$vector@GV?$allocator@G@std@@@std@@QAEXABG@Z
_TEXT	SEGMENT PARA USE32 PUBLIC 'CODE'
_TEXT	ENDS
;	COMDAT ?clear@?$vector@GV?$allocator@G@std@@@std@@QAEXXZ
_TEXT	SEGMENT PARA USE32 PUBLIC 'CODE'
_TEXT	ENDS
;	COMDAT ??0?$vector@U_TransformStuffComponent@@V?$allocator@U_TransformStuffComponent@@@std@@@std@@QAE@XZ
_TEXT	SEGMENT PARA USE32 PUBLIC 'CODE'
_TEXT	ENDS
;	COMDAT ??1?$vector@U_TransformStuffComponent@@V?$allocator@U_TransformStuffComponent@@@std@@@std@@QAE@XZ
_TEXT	SEGMENT PARA USE32 PUBLIC 'CODE'
_TEXT	ENDS
;	COMDAT ?end@?$vector@U_TransformStuffComponent@@V?$allocator@U_TransformStuffComponent@@@std@@@std@@QAE?AViterator@12@XZ
_TEXT	SEGMENT PARA USE32 PUBLIC 'CODE'
_TEXT	ENDS
;	COMDAT ?push_back@?$vector@U_TransformStuffComponent@@V?$allocator@U_TransformStuffComponent@@@std@@@std@@QAEXABU_TransformStuffComponent@@@Z
_TEXT	SEGMENT PARA USE32 PUBLIC 'CODE'
_TEXT	ENDS
;	COMDAT ??Eiterator@?$vector@U_TransformStuffComponent@@V?$allocator@U_TransformStuffComponent@@@std@@@std@@QAEAAV012@XZ
_TEXT	SEGMENT PARA USE32 PUBLIC 'CODE'
_TEXT	ENDS
;	COMDAT ??9const_iterator@?$vector@U_TransformStuffComponent@@V?$allocator@U_TransformStuffComponent@@@std@@@std@@QBE_NABV012@@Z
_TEXT	SEGMENT PARA USE32 PUBLIC 'CODE'
_TEXT	ENDS
;	COMDAT ??Citerator@?$vector@U_FEEDENERGY@@V?$allocator@U_FEEDENERGY@@@std@@@std@@QBEPAU_FEEDENERGY@@XZ
_TEXT	SEGMENT PARA USE32 PUBLIC 'CODE'
_TEXT	ENDS
;	COMDAT ??Eiterator@?$vector@U_FEEDENERGY@@V?$allocator@U_FEEDENERGY@@@std@@@std@@QAEAAV012@XZ
_TEXT	SEGMENT PARA USE32 PUBLIC 'CODE'
_TEXT	ENDS
;	COMDAT ??9const_iterator@?$vector@U_FEEDENERGY@@V?$allocator@U_FEEDENERGY@@@std@@@std@@QBE_NABV012@@Z
_TEXT	SEGMENT PARA USE32 PUBLIC 'CODE'
_TEXT	ENDS
;	COMDAT ?Compare@?$CStringT@DV?$StrTraitMFC@DV?$ChTraitsCRT@D@ATL@@@@@ATL@@QBEHPBD@Z
_TEXT	SEGMENT PARA USE32 PUBLIC 'CODE'
_TEXT	ENDS
;	COMDAT ?compare@?$basic_string@DU?$char_traits@D@std@@V?$allocator@D@2@@std@@QBEHIIPBDI@Z
_TEXT	SEGMENT PARA USE32 PUBLIC 'CODE'
_TEXT	ENDS
;	COMDAT ??0?$allocator@G@std@@QAE@XZ
_TEXT	SEGMENT PARA USE32 PUBLIC 'CODE'
_TEXT	ENDS
;	COMDAT ?capacity@?$vector@U_FEEDENERGY@@V?$allocator@U_FEEDENERGY@@@std@@@std@@QBEIXZ
_TEXT	SEGMENT PARA USE32 PUBLIC 'CODE'
_TEXT	ENDS
;	COMDAT ?size@?$vector@U_FEEDENERGY@@V?$allocator@U_FEEDENERGY@@@std@@@std@@QBEIXZ
_TEXT	SEGMENT PARA USE32 PUBLIC 'CODE'
_TEXT	ENDS
;	COMDAT ?insert@?$vector@U_FEEDENERGY@@V?$allocator@U_FEEDENERGY@@@std@@@std@@QAE?AViterator@12@V312@ABU_FEEDENERGY@@@Z
_TEXT	SEGMENT PARA USE32 PUBLIC 'CODE'
_TEXT	ENDS
;	COMDAT ?_Buy@?$vector@U_FEEDENERGY@@V?$allocator@U_FEEDENERGY@@@std@@@std@@IAE_NI@Z
_TEXT	SEGMENT PARA USE32 PUBLIC 'CODE'
_TEXT	ENDS
;	COMDAT ?_Tidy@?$vector@U_FEEDENERGY@@V?$allocator@U_FEEDENERGY@@@std@@@std@@IAEXXZ
_TEXT	SEGMENT PARA USE32 PUBLIC 'CODE'
_TEXT	ENDS
;	COMDAT ?_Ufill@?$vector@U_FEEDENERGY@@V?$allocator@U_FEEDENERGY@@@std@@@std@@IAEPAU_FEEDENERGY@@PAU3@IABU3@@Z
_TEXT	SEGMENT PARA USE32 PUBLIC 'CODE'
_TEXT	ENDS
;	COMDAT ??0?$_Vector_val@U_FEEDENERGY@@V?$allocator@U_FEEDENERGY@@@std@@@std@@IAE@V?$allocator@U_FEEDENERGY@@@1@@Z
_TEXT	SEGMENT PARA USE32 PUBLIC 'CODE'
_TEXT	ENDS
;	COMDAT ??0?$allocator@U_FEEDENERGY@@@std@@QAE@XZ
_TEXT	SEGMENT PARA USE32 PUBLIC 'CODE'
_TEXT	ENDS
;	COMDAT ?capacity@?$vector@GV?$allocator@G@std@@@std@@QBEIXZ
_TEXT	SEGMENT PARA USE32 PUBLIC 'CODE'
_TEXT	ENDS
;	COMDAT ?begin@?$vector@GV?$allocator@G@std@@@std@@QAE?AViterator@12@XZ
_TEXT	SEGMENT PARA USE32 PUBLIC 'CODE'
_TEXT	ENDS
;	COMDAT ?end@?$vector@GV?$allocator@G@std@@@std@@QAE?AViterator@12@XZ
_TEXT	SEGMENT PARA USE32 PUBLIC 'CODE'
_TEXT	ENDS
;	COMDAT ?insert@?$vector@GV?$allocator@G@std@@@std@@QAE?AViterator@12@V312@ABG@Z
_TEXT	SEGMENT PARA USE32 PUBLIC 'CODE'
_TEXT	ENDS
;	COMDAT ?_Buy@?$vector@GV?$allocator@G@std@@@std@@IAE_NI@Z
_TEXT	SEGMENT PARA USE32 PUBLIC 'CODE'
_TEXT	ENDS
;	COMDAT ?_Tidy@?$vector@GV?$allocator@G@std@@@std@@IAEXXZ
_TEXT	SEGMENT PARA USE32 PUBLIC 'CODE'
_TEXT	ENDS
;	COMDAT ?_Ufill@?$vector@GV?$allocator@G@std@@@std@@IAEPAGPAGIABG@Z
_TEXT	SEGMENT PARA USE32 PUBLIC 'CODE'
_TEXT	ENDS
;	COMDAT ??0?$_Vector_val@GV?$allocator@G@std@@@std@@IAE@V?$allocator@G@1@@Z
_TEXT	SEGMENT PARA USE32 PUBLIC 'CODE'
_TEXT	ENDS
;	COMDAT ?capacity@?$vector@U_TransformStuffComponent@@V?$allocator@U_TransformStuffComponent@@@std@@@std@@QBEIXZ
_TEXT	SEGMENT PARA USE32 PUBLIC 'CODE'
_TEXT	ENDS
;	COMDAT ?insert@?$vector@U_TransformStuffComponent@@V?$allocator@U_TransformStuffComponent@@@std@@@std@@QAE?AViterator@12@V312@ABU_TransformStuffComponent@@@Z
_TEXT	SEGMENT PARA USE32 PUBLIC 'CODE'
_TEXT	ENDS
;	COMDAT ?_Buy@?$vector@U_TransformStuffComponent@@V?$allocator@U_TransformStuffComponent@@@std@@@std@@IAE_NI@Z
_TEXT	SEGMENT PARA USE32 PUBLIC 'CODE'
_TEXT	ENDS
;	COMDAT ?_Tidy@?$vector@U_TransformStuffComponent@@V?$allocator@U_TransformStuffComponent@@@std@@@std@@IAEXXZ
_TEXT	SEGMENT PARA USE32 PUBLIC 'CODE'
_TEXT	ENDS
;	COMDAT ?_Ufill@?$vector@U_TransformStuffComponent@@V?$allocator@U_TransformStuffComponent@@@std@@@std@@IAEPAU_TransformStuffComponent@@PAU3@IABU3@@Z
_TEXT	SEGMENT PARA USE32 PUBLIC 'CODE'
_TEXT	ENDS
;	COMDAT ??0?$_Vector_val@U_TransformStuffComponent@@V?$allocator@U_TransformStuffComponent@@@std@@@std@@IAE@V?$allocator@U_TransformStuffComponent@@@1@@Z
_TEXT	SEGMENT PARA USE32 PUBLIC 'CODE'
_TEXT	ENDS
;	COMDAT ??0?$allocator@U_TransformStuffComponent@@@std@@QAE@XZ
_TEXT	SEGMENT PARA USE32 PUBLIC 'CODE'
_TEXT	ENDS
;	COMDAT ??8const_iterator@?$vector@U_TransformStuffComponent@@V?$allocator@U_TransformStuffComponent@@@std@@@std@@QBE_NABV012@@Z
_TEXT	SEGMENT PARA USE32 PUBLIC 'CODE'
_TEXT	ENDS
;	COMDAT ??0iterator@?$vector@U_FEEDENERGY@@V?$allocator@U_FEEDENERGY@@@std@@@std@@QAE@PAU_FEEDENERGY@@@Z
_TEXT	SEGMENT PARA USE32 PUBLIC 'CODE'
_TEXT	ENDS
;	COMDAT ??Diterator@?$vector@U_FEEDENERGY@@V?$allocator@U_FEEDENERGY@@@std@@@std@@QBEAAU_FEEDENERGY@@XZ
_TEXT	SEGMENT PARA USE32 PUBLIC 'CODE'
_TEXT	ENDS
;	COMDAT ??8const_iterator@?$vector@U_FEEDENERGY@@V?$allocator@U_FEEDENERGY@@@std@@@std@@QBE_NABV012@@Z
_TEXT	SEGMENT PARA USE32 PUBLIC 'CODE'
_TEXT	ENDS
;	COMDAT ??Diterator@?$vector@GV?$allocator@G@std@@@std@@QBEAAGXZ
_TEXT	SEGMENT PARA USE32 PUBLIC 'CODE'
_TEXT	ENDS
;	COMDAT ??Hiterator@?$vector@GV?$allocator@G@std@@@std@@QBE?AV012@H@Z
_TEXT	SEGMENT PARA USE32 PUBLIC 'CODE'
_TEXT	ENDS
;	COMDAT ?StringCompare@?$ChTraitsCRT@D@ATL@@SAHPBD0@Z
_TEXT	SEGMENT PARA USE32 PUBLIC 'CODE'
_TEXT	ENDS
;	COMDAT ??0?$allocator@G@std@@QAE@ABV01@@Z
_TEXT	SEGMENT PARA USE32 PUBLIC 'CODE'
_TEXT	ENDS
;	COMDAT ?deallocate@?$allocator@G@std@@QAEXPAGI@Z
_TEXT	SEGMENT PARA USE32 PUBLIC 'CODE'
_TEXT	ENDS
;	COMDAT ?allocate@?$allocator@G@std@@QAEPAGI@Z
_TEXT	SEGMENT PARA USE32 PUBLIC 'CODE'
_TEXT	ENDS
;	COMDAT ?max_size@?$vector@U_FEEDENERGY@@V?$allocator@U_FEEDENERGY@@@std@@@std@@QBEIXZ
_TEXT	SEGMENT PARA USE32 PUBLIC 'CODE'
_TEXT	ENDS
;	COMDAT ?_Destroy@?$vector@U_FEEDENERGY@@V?$allocator@U_FEEDENERGY@@@std@@@std@@IAEXPAU_FEEDENERGY@@0@Z
_TEXT	SEGMENT PARA USE32 PUBLIC 'CODE'
_TEXT	ENDS
;	COMDAT ?_Insert_n@?$vector@U_FEEDENERGY@@V?$allocator@U_FEEDENERGY@@@std@@@std@@IAEXViterator@12@IABU_FEEDENERGY@@@Z
_TEXT	SEGMENT PARA USE32 PUBLIC 'CODE'
_TEXT	ENDS
;	COMDAT ?_Xlen@?$vector@U_FEEDENERGY@@V?$allocator@U_FEEDENERGY@@@std@@@std@@IBEXXZ
_TEXT	SEGMENT PARA USE32 PUBLIC 'CODE'
_TEXT	ENDS
;	COMDAT ??0?$allocator@U_FEEDENERGY@@@std@@QAE@ABV01@@Z
_TEXT	SEGMENT PARA USE32 PUBLIC 'CODE'
_TEXT	ENDS
;	COMDAT ?deallocate@?$allocator@U_FEEDENERGY@@@std@@QAEXPAU_FEEDENERGY@@I@Z
_TEXT	SEGMENT PARA USE32 PUBLIC 'CODE'
_TEXT	ENDS
;	COMDAT ?allocate@?$allocator@U_FEEDENERGY@@@std@@QAEPAU_FEEDENERGY@@I@Z
_TEXT	SEGMENT PARA USE32 PUBLIC 'CODE'
_TEXT	ENDS
;	COMDAT ?max_size@?$vector@GV?$allocator@G@std@@@std@@QBEIXZ
_TEXT	SEGMENT PARA USE32 PUBLIC 'CODE'
_TEXT	ENDS
;	COMDAT ?_Destroy@?$vector@GV?$allocator@G@std@@@std@@IAEXPAG0@Z
_TEXT	SEGMENT PARA USE32 PUBLIC 'CODE'
_TEXT	ENDS
;	COMDAT ?_Insert_n@?$vector@GV?$allocator@G@std@@@std@@IAEXViterator@12@IABG@Z
_TEXT	SEGMENT PARA USE32 PUBLIC 'CODE'
_TEXT	ENDS
;	COMDAT ?_Xlen@?$vector@GV?$allocator@G@std@@@std@@IBEXXZ
_TEXT	SEGMENT PARA USE32 PUBLIC 'CODE'
_TEXT	ENDS
;	COMDAT ?max_size@?$vector@U_TransformStuffComponent@@V?$allocator@U_TransformStuffComponent@@@std@@@std@@QBEIXZ
_TEXT	SEGMENT PARA USE32 PUBLIC 'CODE'
_TEXT	ENDS
;	COMDAT ?_Destroy@?$vector@U_TransformStuffComponent@@V?$allocator@U_TransformStuffComponent@@@std@@@std@@IAEXPAU_TransformStuffComponent@@0@Z
_TEXT	SEGMENT PARA USE32 PUBLIC 'CODE'
_TEXT	ENDS
;	COMDAT ?_Insert_n@?$vector@U_TransformStuffComponent@@V?$allocator@U_TransformStuffComponent@@@std@@@std@@IAEXViterator@12@IABU_TransformStuffComponent@@@Z
_TEXT	SEGMENT PARA USE32 PUBLIC 'CODE'
_TEXT	ENDS
;	COMDAT ?_Xlen@?$vector@U_TransformStuffComponent@@V?$allocator@U_TransformStuffComponent@@@std@@@std@@IBEXXZ
_TEXT	SEGMENT PARA USE32 PUBLIC 'CODE'
_TEXT	ENDS
;	COMDAT ??0?$allocator@U_TransformStuffComponent@@@std@@QAE@ABV01@@Z
_TEXT	SEGMENT PARA USE32 PUBLIC 'CODE'
_TEXT	ENDS
;	COMDAT ?deallocate@?$allocator@U_TransformStuffComponent@@@std@@QAEXPAU_TransformStuffComponent@@I@Z
_TEXT	SEGMENT PARA USE32 PUBLIC 'CODE'
_TEXT	ENDS
;	COMDAT ?allocate@?$allocator@U_TransformStuffComponent@@@std@@QAEPAU_TransformStuffComponent@@I@Z
_TEXT	SEGMENT PARA USE32 PUBLIC 'CODE'
_TEXT	ENDS
;	COMDAT ??Giterator@?$vector@U_TransformStuffComponent@@V?$allocator@U_TransformStuffComponent@@@std@@@std@@QBEHABVconst_iterator@12@@Z
_TEXT	SEGMENT PARA USE32 PUBLIC 'CODE'
_TEXT	ENDS
;	COMDAT ??Hiterator@?$vector@U_FEEDENERGY@@V?$allocator@U_FEEDENERGY@@@std@@@std@@QBE?AV012@H@Z
_TEXT	SEGMENT PARA USE32 PUBLIC 'CODE'
_TEXT	ENDS
;	COMDAT ??Giterator@?$vector@U_FEEDENERGY@@V?$allocator@U_FEEDENERGY@@@std@@@std@@QBEHABVconst_iterator@12@@Z
_TEXT	SEGMENT PARA USE32 PUBLIC 'CODE'
_TEXT	ENDS
;	COMDAT ??0const_iterator@?$vector@U_FEEDENERGY@@V?$allocator@U_FEEDENERGY@@@std@@@std@@QAE@PAU_FEEDENERGY@@@Z
_TEXT	SEGMENT PARA USE32 PUBLIC 'CODE'
_TEXT	ENDS
;	COMDAT ??Dconst_iterator@?$vector@U_FEEDENERGY@@V?$allocator@U_FEEDENERGY@@@std@@@std@@QBEABU_FEEDENERGY@@XZ
_TEXT	SEGMENT PARA USE32 PUBLIC 'CODE'
_TEXT	ENDS
;	COMDAT ??0iterator@?$vector@GV?$allocator@G@std@@@std@@QAE@PAG@Z
_TEXT	SEGMENT PARA USE32 PUBLIC 'CODE'
_TEXT	ENDS
;	COMDAT ??Yiterator@?$vector@GV?$allocator@G@std@@@std@@QAEAAV012@H@Z
_TEXT	SEGMENT PARA USE32 PUBLIC 'CODE'
_TEXT	ENDS
;	COMDAT ??Giterator@?$vector@GV?$allocator@G@std@@@std@@QBEHABVconst_iterator@12@@Z
_TEXT	SEGMENT PARA USE32 PUBLIC 'CODE'
_TEXT	ENDS
;	COMDAT ??Dconst_iterator@?$vector@GV?$allocator@G@std@@@std@@QBEABGXZ
_TEXT	SEGMENT PARA USE32 PUBLIC 'CODE'
_TEXT	ENDS
;	COMDAT ?max_size@?$allocator@G@std@@QBEIXZ
_TEXT	SEGMENT PARA USE32 PUBLIC 'CODE'
_TEXT	ENDS
;	COMDAT ?max_size@?$allocator@U_FEEDENERGY@@@std@@QBEIXZ
_TEXT	SEGMENT PARA USE32 PUBLIC 'CODE'
_TEXT	ENDS
;	COMDAT ?max_size@?$allocator@U_TransformStuffComponent@@@std@@QBEIXZ
_TEXT	SEGMENT PARA USE32 PUBLIC 'CODE'
_TEXT	ENDS
;	COMDAT ??Gconst_iterator@?$vector@U_TransformStuffComponent@@V?$allocator@U_TransformStuffComponent@@@std@@@std@@QBEHABV012@@Z
_TEXT	SEGMENT PARA USE32 PUBLIC 'CODE'
_TEXT	ENDS
;	COMDAT ??Yiterator@?$vector@U_FEEDENERGY@@V?$allocator@U_FEEDENERGY@@@std@@@std@@QAEAAV012@H@Z
_TEXT	SEGMENT PARA USE32 PUBLIC 'CODE'
_TEXT	ENDS
;	COMDAT ??Gconst_iterator@?$vector@U_FEEDENERGY@@V?$allocator@U_FEEDENERGY@@@std@@@std@@QBEHABV012@@Z
_TEXT	SEGMENT PARA USE32 PUBLIC 'CODE'
_TEXT	ENDS
;	COMDAT ??0const_iterator@?$vector@GV?$allocator@G@std@@@std@@QAE@PAG@Z
_TEXT	SEGMENT PARA USE32 PUBLIC 'CODE'
_TEXT	ENDS
;	COMDAT ??Gconst_iterator@?$vector@GV?$allocator@G@std@@@std@@QBEHABV012@@Z
_TEXT	SEGMENT PARA USE32 PUBLIC 'CODE'
_TEXT	ENDS
;	COMDAT ??$_Iter_cat@Viterator@?$_Tree@V?$_Tmap_traits@KU_Friend@@U?$less@K@std@@V?$allocator@U?$pair@$$CBKU_Friend@@@std@@@3@$0A@@std@@@std@@@std@@YA?AUbidirectional_iterator_tag@0@ABViterator@?$_Tree@V?$_Tmap_traits@KU_Friend@@U?$less@K@std@@V?$allocator@U?$pair@$$CBKU_Friend@@@std@@@3@$0A@@std@@@0@@Z
_TEXT	SEGMENT PARA USE32 PUBLIC 'CODE'
_TEXT	ENDS
;	COMDAT ??$_Distance2@Viterator@?$_Tree@V?$_Tmap_traits@KU_Friend@@U?$less@K@std@@V?$allocator@U?$pair@$$CBKU_Friend@@@std@@@3@$0A@@std@@@std@@I@std@@YAXViterator@?$_Tree@V?$_Tmap_traits@KU_Friend@@U?$less@K@std@@V?$allocator@U?$pair@$$CBKU_Friend@@@std@@@3@$0A@@std@@@0@0AAIUbidirectional_iterator_tag@0@@Z
_TEXT	SEGMENT PARA USE32 PUBLIC 'CODE'
_TEXT	ENDS
;	COMDAT ??$_Copy_opt@PAJPAJ@std@@YAPAJPAJ00U_Scalar_ptr_iterator_tag@0@@Z
_TEXT	SEGMENT PARA USE32 PUBLIC 'CODE'
_TEXT	ENDS
;	COMDAT ??$_Uninitialized_copy@PAJPAJV?$allocator@J@std@@@std@@YAPAJPAJ00AAV?$allocator@J@0@@Z
_TEXT	SEGMENT PARA USE32 PUBLIC 'CODE'
_TEXT	ENDS
;	COMDAT ??$_Copy_backward_opt@PAJPAJ@std@@YAPAJPAJ00U_Scalar_ptr_iterator_tag@0@@Z
_TEXT	SEGMENT PARA USE32 PUBLIC 'CODE'
_TEXT	ENDS
;	COMDAT ??$_Ptr_cat@PAUtagDROPITEM@@PAU1@@std@@YA?AU_Nonscalar_ptr_iterator_tag@0@AAPAUtagDROPITEM@@0@Z
_TEXT	SEGMENT PARA USE32 PUBLIC 'CODE'
_TEXT	ENDS
;	COMDAT ??$_Destroy_range@UtagDROPITEM@@V?$allocator@UtagDROPITEM@@@std@@@std@@YAXPAUtagDROPITEM@@0AAV?$allocator@UtagDROPITEM@@@0@U_Nonscalar_ptr_iterator_tag@0@@Z
_TEXT	SEGMENT PARA USE32 PUBLIC 'CODE'
_TEXT	ENDS
;	COMDAT ??$_Destroy_range@KV?$allocator@K@std@@@std@@YAXPAK0AAV?$allocator@K@0@U_Scalar_ptr_iterator_tag@0@@Z
_TEXT	SEGMENT PARA USE32 PUBLIC 'CODE'
_TEXT	ENDS
;	COMDAT ??$_Destroy_range@JV?$allocator@J@std@@@std@@YAXPAJ0AAV?$allocator@J@0@U_Scalar_ptr_iterator_tag@0@@Z
_TEXT	SEGMENT PARA USE32 PUBLIC 'CODE'
_TEXT	ENDS
;	COMDAT ??$_Uninit_fill_n@JIJ@std@@YAXPAJIABJAAV?$allocator@J@0@U_Scalar_ptr_iterator_tag@0@@Z
_TEXT	SEGMENT PARA USE32 PUBLIC 'CODE'
_TEXT	ENDS
;	COMDAT ??$_Uninitialized_fill_n@PAU_FEEDENERGY@@IU1@V?$allocator@U_FEEDENERGY@@@std@@@std@@YAXPAU_FEEDENERGY@@IABU1@AAV?$allocator@U_FEEDENERGY@@@0@@Z
_TEXT	SEGMENT PARA USE32 PUBLIC 'CODE'
_TEXT	ENDS
;	COMDAT ??$_Uninitialized_fill_n@PAGIGV?$allocator@G@std@@@std@@YAXPAGIABGAAV?$allocator@G@0@@Z
_TEXT	SEGMENT PARA USE32 PUBLIC 'CODE'
_TEXT	ENDS
;	COMDAT ??$_Uninitialized_fill_n@PAU_TransformStuffComponent@@IU1@V?$allocator@U_TransformStuffComponent@@@std@@@std@@YAXPAU_TransformStuffComponent@@IABU1@AAV?$allocator@U_TransformStuffComponent@@@0@@Z
_TEXT	SEGMENT PARA USE32 PUBLIC 'CODE'
_TEXT	ENDS
;	COMDAT ??$_Allocate@G@std@@YAPAGIPAG@Z
_TEXT	SEGMENT PARA USE32 PUBLIC 'CODE'
_TEXT	ENDS
;	COMDAT ??$_Destroy_range@U_FEEDENERGY@@V?$allocator@U_FEEDENERGY@@@std@@@std@@YAXPAU_FEEDENERGY@@0AAV?$allocator@U_FEEDENERGY@@@0@@Z
_TEXT	SEGMENT PARA USE32 PUBLIC 'CODE'
_TEXT	ENDS
;	COMDAT ??$_Ucopy@PAU_FEEDENERGY@@@?$vector@U_FEEDENERGY@@V?$allocator@U_FEEDENERGY@@@std@@@std@@IAEPAU_FEEDENERGY@@PAU2@00@Z
_TEXT	SEGMENT PARA USE32 PUBLIC 'CODE'
_TEXT	ENDS
;	COMDAT ??$fill@PAU_FEEDENERGY@@U1@@std@@YAXPAU_FEEDENERGY@@0ABU1@@Z
_TEXT	SEGMENT PARA USE32 PUBLIC 'CODE'
_TEXT	ENDS
;	COMDAT ??$copy_backward@PAU_FEEDENERGY@@PAU1@@std@@YAPAU_FEEDENERGY@@PAU1@00@Z
_TEXT	SEGMENT PARA USE32 PUBLIC 'CODE'
_TEXT	ENDS
;	COMDAT ??$_Allocate@U_FEEDENERGY@@@std@@YAPAU_FEEDENERGY@@IPAU1@@Z
_TEXT	SEGMENT PARA USE32 PUBLIC 'CODE'
_TEXT	ENDS
;	COMDAT ??$_Destroy_range@GV?$allocator@G@std@@@std@@YAXPAG0AAV?$allocator@G@0@@Z
_TEXT	SEGMENT PARA USE32 PUBLIC 'CODE'
_TEXT	ENDS
;	COMDAT ??$_Ucopy@PAG@?$vector@GV?$allocator@G@std@@@std@@IAEPAGPAG00@Z
_TEXT	SEGMENT PARA USE32 PUBLIC 'CODE'
_TEXT	ENDS
;	COMDAT ??$fill@PAGG@std@@YAXPAG0ABG@Z
_TEXT	SEGMENT PARA USE32 PUBLIC 'CODE'
_TEXT	ENDS
;	COMDAT ??$copy_backward@PAGPAG@std@@YAPAGPAG00@Z
_TEXT	SEGMENT PARA USE32 PUBLIC 'CODE'
_TEXT	ENDS
;	COMDAT ??$_Destroy_range@U_TransformStuffComponent@@V?$allocator@U_TransformStuffComponent@@@std@@@std@@YAXPAU_TransformStuffComponent@@0AAV?$allocator@U_TransformStuffComponent@@@0@@Z
_TEXT	SEGMENT PARA USE32 PUBLIC 'CODE'
_TEXT	ENDS
;	COMDAT ??$_Ucopy@PAU_TransformStuffComponent@@@?$vector@U_TransformStuffComponent@@V?$allocator@U_TransformStuffComponent@@@std@@@std@@IAEPAU_TransformStuffComponent@@PAU2@00@Z
_TEXT	SEGMENT PARA USE32 PUBLIC 'CODE'
_TEXT	ENDS
;	COMDAT ??$fill@PAU_TransformStuffComponent@@U1@@std@@YAXPAU_TransformStuffComponent@@0ABU1@@Z
_TEXT	SEGMENT PARA USE32 PUBLIC 'CODE'
_TEXT	ENDS
;	COMDAT ??$copy_backward@PAU_TransformStuffComponent@@PAU1@@std@@YAPAU_TransformStuffComponent@@PAU1@00@Z
_TEXT	SEGMENT PARA USE32 PUBLIC 'CODE'
_TEXT	ENDS
;	COMDAT ??$_Allocate@U_TransformStuffComponent@@@std@@YAPAU_TransformStuffComponent@@IPAU1@@Z
_TEXT	SEGMENT PARA USE32 PUBLIC 'CODE'
_TEXT	ENDS
;	COMDAT ?destroy@?$allocator@UtagDROPITEM@@@std@@QAEXPAUtagDROPITEM@@@Z
_TEXT	SEGMENT PARA USE32 PUBLIC 'CODE'
_TEXT	ENDS
;	COMDAT ??$_Uninit_copy@JJ@std@@YAPAJPAJ00AAV?$allocator@J@0@U_Scalar_ptr_iterator_tag@0@@Z
_TEXT	SEGMENT PARA USE32 PUBLIC 'CODE'
_TEXT	ENDS
;	COMDAT ??$fill_n@PAJIJ@std@@YAXPAJIABJ@Z
_TEXT	SEGMENT PARA USE32 PUBLIC 'CODE'
_TEXT	ENDS
;	COMDAT ??$_Ptr_cat@PAU_FEEDENERGY@@PAU1@@std@@YA?AU_Nonscalar_ptr_iterator_tag@0@AAPAU_FEEDENERGY@@0@Z
_TEXT	SEGMENT PARA USE32 PUBLIC 'CODE'
_TEXT	ENDS
;	COMDAT ??$_Uninit_fill_n@PAU_FEEDENERGY@@IU1@V?$allocator@U_FEEDENERGY@@@std@@@std@@YAXPAU_FEEDENERGY@@IABU1@AAV?$allocator@U_FEEDENERGY@@@0@U_Nonscalar_ptr_iterator_tag@0@@Z
_TEXT	SEGMENT PARA USE32 PUBLIC 'CODE'
_TEXT	ENDS
;	COMDAT ??$_Uninit_fill_n@GIG@std@@YAXPAGIABGAAV?$allocator@G@0@U_Scalar_ptr_iterator_tag@0@@Z
_TEXT	SEGMENT PARA USE32 PUBLIC 'CODE'
_TEXT	ENDS
;	COMDAT ??$_Ptr_cat@PAU_TransformStuffComponent@@PAU1@@std@@YA?AU_Nonscalar_ptr_iterator_tag@0@AAPAU_TransformStuffComponent@@0@Z
_TEXT	SEGMENT PARA USE32 PUBLIC 'CODE'
_TEXT	ENDS
;	COMDAT ??$_Uninit_fill_n@PAU_TransformStuffComponent@@IU1@V?$allocator@U_TransformStuffComponent@@@std@@@std@@YAXPAU_TransformStuffComponent@@IABU1@AAV?$allocator@U_TransformStuffComponent@@@0@U_Nonscalar_ptr_iterator_tag@0@@Z
_TEXT	SEGMENT PARA USE32 PUBLIC 'CODE'
_TEXT	ENDS
;	COMDAT ??$_Destroy_range@U_FEEDENERGY@@V?$allocator@U_FEEDENERGY@@@std@@@std@@YAXPAU_FEEDENERGY@@0AAV?$allocator@U_FEEDENERGY@@@0@U_Nonscalar_ptr_iterator_tag@0@@Z
_TEXT	SEGMENT PARA USE32 PUBLIC 'CODE'
_TEXT	ENDS
;	COMDAT ??$_Uninitialized_copy@PAU_FEEDENERGY@@PAU1@V?$allocator@U_FEEDENERGY@@@std@@@std@@YAPAU_FEEDENERGY@@PAU1@00AAV?$allocator@U_FEEDENERGY@@@0@@Z
_TEXT	SEGMENT PARA USE32 PUBLIC 'CODE'
_TEXT	ENDS
;	COMDAT ??$_Copy_backward_opt@PAU_FEEDENERGY@@PAU1@@std@@YAPAU_FEEDENERGY@@PAU1@00U_Nonscalar_ptr_iterator_tag@0@@Z
_TEXT	SEGMENT PARA USE32 PUBLIC 'CODE'
_TEXT	ENDS
;	COMDAT ??$_Destroy_range@GV?$allocator@G@std@@@std@@YAXPAG0AAV?$allocator@G@0@U_Scalar_ptr_iterator_tag@0@@Z
_TEXT	SEGMENT PARA USE32 PUBLIC 'CODE'
_TEXT	ENDS
;	COMDAT ??$_Uninitialized_copy@PAGPAGV?$allocator@G@std@@@std@@YAPAGPAG00AAV?$allocator@G@0@@Z
_TEXT	SEGMENT PARA USE32 PUBLIC 'CODE'
_TEXT	ENDS
;	COMDAT ??$_Copy_backward_opt@PAGPAG@std@@YAPAGPAG00U_Scalar_ptr_iterator_tag@0@@Z
_TEXT	SEGMENT PARA USE32 PUBLIC 'CODE'
_TEXT	ENDS
;	COMDAT ??$_Destroy_range@U_TransformStuffComponent@@V?$allocator@U_TransformStuffComponent@@@std@@@std@@YAXPAU_TransformStuffComponent@@0AAV?$allocator@U_TransformStuffComponent@@@0@U_Nonscalar_ptr_iterator_tag@0@@Z
_TEXT	SEGMENT PARA USE32 PUBLIC 'CODE'
_TEXT	ENDS
;	COMDAT ??$_Uninitialized_copy@PAU_TransformStuffComponent@@PAU1@V?$allocator@U_TransformStuffComponent@@@std@@@std@@YAPAU_TransformStuffComponent@@PAU1@00AAV?$allocator@U_TransformStuffComponent@@@0@@Z
_TEXT	SEGMENT PARA USE32 PUBLIC 'CODE'
_TEXT	ENDS
;	COMDAT ??$_Copy_backward_opt@PAU_TransformStuffComponent@@PAU1@@std@@YAPAU_TransformStuffComponent@@PAU1@00U_Nonscalar_ptr_iterator_tag@0@@Z
_TEXT	SEGMENT PARA USE32 PUBLIC 'CODE'
_TEXT	ENDS
;	COMDAT ??$_Destroy@UtagDROPITEM@@@std@@YAXPAUtagDROPITEM@@@Z
_TEXT	SEGMENT PARA USE32 PUBLIC 'CODE'
_TEXT	ENDS
;	COMDAT ?construct@?$allocator@U_FEEDENERGY@@@std@@QAEXPAU_FEEDENERGY@@ABU3@@Z
_TEXT	SEGMENT PARA USE32 PUBLIC 'CODE'
_TEXT	ENDS
;	COMDAT ?destroy@?$allocator@U_FEEDENERGY@@@std@@QAEXPAU_FEEDENERGY@@@Z
_TEXT	SEGMENT PARA USE32 PUBLIC 'CODE'
_TEXT	ENDS
;	COMDAT ?construct@?$allocator@U_TransformStuffComponent@@@std@@QAEXPAU_TransformStuffComponent@@ABU3@@Z
_TEXT	SEGMENT PARA USE32 PUBLIC 'CODE'
_TEXT	ENDS
;	COMDAT ?destroy@?$allocator@U_TransformStuffComponent@@@std@@QAEXPAU_TransformStuffComponent@@@Z
_TEXT	SEGMENT PARA USE32 PUBLIC 'CODE'
_TEXT	ENDS
;	COMDAT ??$fill_n@PAGIG@std@@YAXPAGIABG@Z
_TEXT	SEGMENT PARA USE32 PUBLIC 'CODE'
_TEXT	ENDS
;	COMDAT ??$_Uninit_copy@PAU_FEEDENERGY@@PAU1@V?$allocator@U_FEEDENERGY@@@std@@@std@@YAPAU_FEEDENERGY@@PAU1@00AAV?$allocator@U_FEEDENERGY@@@0@U_Nonscalar_ptr_iterator_tag@0@@Z
_TEXT	SEGMENT PARA USE32 PUBLIC 'CODE'
_TEXT	ENDS
;	COMDAT ??$_Uninit_copy@GG@std@@YAPAGPAG00AAV?$allocator@G@0@U_Scalar_ptr_iterator_tag@0@@Z
_TEXT	SEGMENT PARA USE32 PUBLIC 'CODE'
_TEXT	ENDS
;	COMDAT ??$_Uninit_copy@PAU_TransformStuffComponent@@PAU1@V?$allocator@U_TransformStuffComponent@@@std@@@std@@YAPAU_TransformStuffComponent@@PAU1@00AAV?$allocator@U_TransformStuffComponent@@@0@U_Nonscalar_ptr_iterator_tag@0@@Z
_TEXT	SEGMENT PARA USE32 PUBLIC 'CODE'
_TEXT	ENDS
;	COMDAT ??$_Construct@U_FEEDENERGY@@U1@@std@@YAXPAU_FEEDENERGY@@ABU1@@Z
_TEXT	SEGMENT PARA USE32 PUBLIC 'CODE'
_TEXT	ENDS
;	COMDAT ??$_Destroy@U_FEEDENERGY@@@std@@YAXPAU_FEEDENERGY@@@Z
_TEXT	SEGMENT PARA USE32 PUBLIC 'CODE'
_TEXT	ENDS
;	COMDAT ??$_Construct@U_TransformStuffComponent@@U1@@std@@YAXPAU_TransformStuffComponent@@ABU1@@Z
_TEXT	SEGMENT PARA USE32 PUBLIC 'CODE'
_TEXT	ENDS
;	COMDAT ??$_Destroy@U_TransformStuffComponent@@@std@@YAXPAU_TransformStuffComponent@@@Z
_TEXT	SEGMENT PARA USE32 PUBLIC 'CODE'
_TEXT	ENDS
;	COMDAT ??2@YAPAXIPAX@Z
_TEXT	SEGMENT PARA USE32 PUBLIC 'CODE'
_TEXT	ENDS
;	COMDAT ?_Ptr_cat@std@@YA?AU_Scalar_ptr_iterator_tag@1@PAG0@Z
_TEXT	SEGMENT PARA USE32 PUBLIC 'CODE'
_TEXT	ENDS
;	COMDAT ?_Ptr_cat@std@@YA?AU_Scalar_ptr_iterator_tag@1@PAJ0@Z
_TEXT	SEGMENT PARA USE32 PUBLIC 'CODE'
_TEXT	ENDS
;	COMDAT ??9const_iterator@?$_Tree@V?$_Tmap_traits@KU_Friend@@U?$less@K@std@@V?$allocator@U?$pair@$$CBKU_Friend@@@std@@@3@$0A@@std@@@std@@QBE_NABV012@@Z
_TEXT	SEGMENT PARA USE32 PUBLIC 'CODE'
_TEXT	ENDS
;	COMDAT ??8const_iterator@?$_Tree@V?$_Tmap_traits@KU_Friend@@U?$less@K@std@@V?$allocator@U?$pair@$$CBKU_Friend@@@std@@@3@$0A@@std@@@std@@QBE_NABV012@@Z
_TEXT	SEGMENT PARA USE32 PUBLIC 'CODE'
_TEXT	ENDS
;	COMDAT ??Eiterator@?$_Tree@V?$_Tmap_traits@KU_Friend@@U?$less@K@std@@V?$allocator@U?$pair@$$CBKU_Friend@@@std@@@3@$0A@@std@@@std@@QAEAAV012@XZ
_TEXT	SEGMENT PARA USE32 PUBLIC 'CODE'
_TEXT	ENDS
;	COMDAT ??Econst_iterator@?$_Tree@V?$_Tmap_traits@KU_Friend@@U?$less@K@std@@V?$allocator@U?$pair@$$CBKU_Friend@@@std@@@3@$0A@@std@@@std@@QAEAAV012@XZ
_TEXT	SEGMENT PARA USE32 PUBLIC 'CODE'
_TEXT	ENDS
;	COMDAT ?_Inc@const_iterator@?$_Tree@V?$_Tmap_traits@KU_Friend@@U?$less@K@std@@V?$allocator@U?$pair@$$CBKU_Friend@@@std@@@3@$0A@@std@@@std@@QAEXXZ
_TEXT	SEGMENT PARA USE32 PUBLIC 'CODE'
_TEXT	ENDS
;	COMDAT ?_Min@?$_Tree@V?$_Tmap_traits@KU_Friend@@U?$less@K@std@@V?$allocator@U?$pair@$$CBKU_Friend@@@std@@@3@$0A@@std@@@std@@KAPAU_Node@?$_Tree_nod@V?$_Tmap_traits@KU_Friend@@U?$less@K@std@@V?$allocator@U?$pair@$$CBKU_Friend@@@std@@@3@$0A@@std@@@2@PAU342@@Z
_TEXT	SEGMENT PARA USE32 PUBLIC 'CODE'
_TEXT	ENDS
;	COMDAT ?_Left@?$_Tree@V?$_Tmap_traits@KU_Friend@@U?$less@K@std@@V?$allocator@U?$pair@$$CBKU_Friend@@@std@@@3@$0A@@std@@@std@@KAAAPAU_Node@?$_Tree_nod@V?$_Tmap_traits@KU_Friend@@U?$less@K@std@@V?$allocator@U?$pair@$$CBKU_Friend@@@std@@@3@$0A@@std@@@2@PAU342@@Z
_TEXT	SEGMENT PARA USE32 PUBLIC 'CODE'
_TEXT	ENDS
;	COMDAT ?_Isnil@?$_Tree@V?$_Tmap_traits@KU_Friend@@U?$less@K@std@@V?$allocator@U?$pair@$$CBKU_Friend@@@std@@@3@$0A@@std@@@std@@KAAADPAU_Node@?$_Tree_nod@V?$_Tmap_traits@KU_Friend@@U?$less@K@std@@V?$allocator@U?$pair@$$CBKU_Friend@@@std@@@3@$0A@@std@@@2@@Z
_TEXT	SEGMENT PARA USE32 PUBLIC 'CODE'
_TEXT	ENDS
;	COMDAT ?_Parent@?$_Tree@V?$_Tmap_traits@KU_Friend@@U?$less@K@std@@V?$allocator@U?$pair@$$CBKU_Friend@@@std@@@3@$0A@@std@@@std@@KAAAPAU_Node@?$_Tree_nod@V?$_Tmap_traits@KU_Friend@@U?$less@K@std@@V?$allocator@U?$pair@$$CBKU_Friend@@@std@@@3@$0A@@std@@@2@PAU342@@Z
_TEXT	SEGMENT PARA USE32 PUBLIC 'CODE'
_TEXT	ENDS
;	COMDAT ?_Right@?$_Tree@V?$_Tmap_traits@KU_Friend@@U?$less@K@std@@V?$allocator@U?$pair@$$CBKU_Friend@@@std@@@3@$0A@@std@@@std@@KAAAPAU_Node@?$_Tree_nod@V?$_Tmap_traits@KU_Friend@@U?$less@K@std@@V?$allocator@U?$pair@$$CBKU_Friend@@@std@@@3@$0A@@std@@@2@PAU342@@Z
_TEXT	SEGMENT PARA USE32 PUBLIC 'CODE'
_TEXT	ENDS
;	COMDAT ?_Psave@?$_Facetptr@V?$ctype@G@std@@@std@@2PBVfacet@locale@2@B
_DATA	SEGMENT DWORD USE32 PUBLIC 'DATA'
_DATA	ENDS
;	COMDAT ?_Psave@?$_Facetptr@V?$ctype@D@std@@@std@@2PBVfacet@locale@2@B
_DATA	SEGMENT DWORD USE32 PUBLIC 'DATA'
_DATA	ENDS
;	COMDAT __TI3?AVlength_error@std@@
xdata$x	SEGMENT DWORD USE32 PUBLIC 'CONST'
xdata$x	ENDS
;	COMDAT ??1length_error@std@@UAE@XZ
_TEXT	SEGMENT PARA USE32 PUBLIC 'CODE'
_TEXT	ENDS
;	COMDAT ??_7length_error@std@@6B@
CONST	SEGMENT DWORD USE32 PUBLIC 'CONST'
CONST	ENDS
;	COMDAT ??_Glength_error@std@@UAEPAXI@Z
_TEXT	SEGMENT PARA USE32 PUBLIC 'CODE'
_TEXT	ENDS
;	COMDAT ?what@logic_error@std@@UBEPBDXZ
_TEXT	SEGMENT PARA USE32 PUBLIC 'CODE'
_TEXT	ENDS
;	COMDAT ?c_str@?$basic_string@DU?$char_traits@D@std@@V?$allocator@D@2@@std@@QBEPBDXZ
_TEXT	SEGMENT PARA USE32 PUBLIC 'CODE'
_TEXT	ENDS
;	COMDAT ??1logic_error@std@@UAE@XZ
_TEXT	SEGMENT PARA USE32 PUBLIC 'CODE'
_TEXT	ENDS
;	COMDAT ??_7logic_error@std@@6B@
CONST	SEGMENT DWORD USE32 PUBLIC 'CONST'
CONST	ENDS
;	COMDAT ??_Glogic_error@std@@UAEPAXI@Z
_TEXT	SEGMENT PARA USE32 PUBLIC 'CODE'
_TEXT	ENDS
;	COMDAT __CTA3?AVlength_error@std@@
xdata$x	SEGMENT DWORD USE32 PUBLIC 'CONST'
xdata$x	ENDS
;	COMDAT __CT??_R0?AVlength_error@std@@@8??0length_error@std@@QAE@ABV01@@Z40
xdata$x	SEGMENT DWORD USE32 PUBLIC 'CONST'
xdata$x	ENDS
;	COMDAT ??_R0?AVlength_error@std@@@8
_DATA	SEGMENT DWORD USE32 PUBLIC 'DATA'
_DATA	ENDS
;	COMDAT ??0length_error@std@@QAE@ABV01@@Z
_TEXT	SEGMENT PARA USE32 PUBLIC 'CODE'
_TEXT	ENDS
;	COMDAT ??0logic_error@std@@QAE@ABV01@@Z
_TEXT	SEGMENT PARA USE32 PUBLIC 'CODE'
_TEXT	ENDS
;	COMDAT ??0?$basic_string@DU?$char_traits@D@std@@V?$allocator@D@2@@std@@QAE@ABV01@@Z
_TEXT	SEGMENT PARA USE32 PUBLIC 'CODE'
_TEXT	ENDS
;	COMDAT ??0?$_String_val@DV?$allocator@D@std@@@std@@IAE@V?$allocator@D@1@@Z
_TEXT	SEGMENT PARA USE32 PUBLIC 'CODE'
_TEXT	ENDS
;	COMDAT ??0?$allocator@D@std@@QAE@ABV01@@Z
_TEXT	SEGMENT PARA USE32 PUBLIC 'CODE'
_TEXT	ENDS
;	COMDAT ?_Tidy@?$basic_string@DU?$char_traits@D@std@@V?$allocator@D@2@@std@@IAEX_NI@Z
_TEXT	SEGMENT PARA USE32 PUBLIC 'CODE'
_TEXT	ENDS
;	COMDAT ?copy@?$char_traits@D@std@@SAPADPADPBDI@Z
_TEXT	SEGMENT PARA USE32 PUBLIC 'CODE'
_TEXT	ENDS
;	COMDAT ?deallocate@?$allocator@D@std@@QAEXPADI@Z
_TEXT	SEGMENT PARA USE32 PUBLIC 'CODE'
_TEXT	ENDS
;	COMDAT ?_Eos@?$basic_string@DU?$char_traits@D@std@@V?$allocator@D@2@@std@@IAEXI@Z
_TEXT	SEGMENT PARA USE32 PUBLIC 'CODE'
_TEXT	ENDS
;	COMDAT ?assign@?$char_traits@D@std@@SAXAADABD@Z
_TEXT	SEGMENT PARA USE32 PUBLIC 'CODE'
_TEXT	ENDS
;	COMDAT ?_Myptr@?$basic_string@DU?$char_traits@D@std@@V?$allocator@D@2@@std@@QAEPADXZ
_TEXT	SEGMENT PARA USE32 PUBLIC 'CODE'
_TEXT	ENDS
;	COMDAT ?assign@?$basic_string@DU?$char_traits@D@std@@V?$allocator@D@2@@std@@QAEAAV12@ABV12@II@Z
_TEXT	SEGMENT PARA USE32 PUBLIC 'CODE'
_TEXT	ENDS
;	COMDAT ?erase@?$basic_string@DU?$char_traits@D@std@@V?$allocator@D@2@@std@@QAEAAV12@II@Z
_TEXT	SEGMENT PARA USE32 PUBLIC 'CODE'
_TEXT	ENDS
;	COMDAT ?move@?$char_traits@D@std@@SAPADPADPBDI@Z
_TEXT	SEGMENT PARA USE32 PUBLIC 'CODE'
_TEXT	ENDS
;	COMDAT ?_Grow@?$basic_string@DU?$char_traits@D@std@@V?$allocator@D@2@@std@@IAE_NI_N@Z
_TEXT	SEGMENT PARA USE32 PUBLIC 'CODE'
_TEXT	ENDS
;	COMDAT ?max_size@?$basic_string@DU?$char_traits@D@std@@V?$allocator@D@2@@std@@QBEIXZ
_TEXT	SEGMENT PARA USE32 PUBLIC 'CODE'
_TEXT	ENDS
;	COMDAT ?max_size@?$allocator@D@std@@QBEIXZ
_TEXT	SEGMENT PARA USE32 PUBLIC 'CODE'
_TEXT	ENDS
;	COMDAT ?_Copy@?$basic_string@DU?$char_traits@D@std@@V?$allocator@D@2@@std@@IAEXII@Z
_TEXT	SEGMENT PARA USE32 PUBLIC 'CODE'
_TEXT	ENDS
;	COMDAT ?allocate@?$allocator@D@std@@QAEPADI@Z
_TEXT	SEGMENT PARA USE32 PUBLIC 'CODE'
_TEXT	ENDS
;	COMDAT ??$_Allocate@D@std@@YAPADIPAD@Z
_TEXT	SEGMENT PARA USE32 PUBLIC 'CODE'
_TEXT	ENDS
;	COMDAT ?npos@?$basic_string@DU?$char_traits@D@std@@V?$allocator@D@2@@std@@2IB
CONST	SEGMENT DWORD USE32 PUBLIC 'CONST'
CONST	ENDS
;	COMDAT __CT??_R0?AVlogic_error@std@@@8??0logic_error@std@@QAE@ABV01@@Z40
xdata$x	SEGMENT DWORD USE32 PUBLIC 'CONST'
xdata$x	ENDS
;	COMDAT ??_R0?AVlogic_error@std@@@8
_DATA	SEGMENT DWORD USE32 PUBLIC 'DATA'
_DATA	ENDS
;	COMDAT __CT??_R0?AVexception@@@8??0exception@@QAE@ABV0@@Z12
xdata$x	SEGMENT DWORD USE32 PUBLIC 'CONST'
xdata$x	ENDS
;	COMDAT ??_R0?AVexception@@@8
_DATA	SEGMENT DWORD USE32 PUBLIC 'DATA'
_DATA	ENDS
;	COMDAT ??1?$basic_string@DU?$char_traits@D@std@@V?$allocator@D@2@@std@@QAE@XZ
_TEXT	SEGMENT PARA USE32 PUBLIC 'CODE'
_TEXT	ENDS
;	COMDAT ??_C@_0BD@OLBABOEK@vector?$DMT?$DO?5too?5long?$AA@
CONST	SEGMENT DWORD USE32 PUBLIC 'CONST'
CONST	ENDS
;	COMDAT ??0?$basic_string@DU?$char_traits@D@std@@V?$allocator@D@2@@std@@QAE@PBD@Z
_TEXT	SEGMENT PARA USE32 PUBLIC 'CODE'
_TEXT	ENDS
;	COMDAT ??0?$allocator@D@std@@QAE@XZ
_TEXT	SEGMENT PARA USE32 PUBLIC 'CODE'
_TEXT	ENDS
;	COMDAT ?assign@?$basic_string@DU?$char_traits@D@std@@V?$allocator@D@2@@std@@QAEAAV12@PBD@Z
_TEXT	SEGMENT PARA USE32 PUBLIC 'CODE'
_TEXT	ENDS
;	COMDAT ?assign@?$basic_string@DU?$char_traits@D@std@@V?$allocator@D@2@@std@@QAEAAV12@PBDI@Z
_TEXT	SEGMENT PARA USE32 PUBLIC 'CODE'
_TEXT	ENDS
;	COMDAT ?_Inside@?$basic_string@DU?$char_traits@D@std@@V?$allocator@D@2@@std@@IAE_NPBD@Z
_TEXT	SEGMENT PARA USE32 PUBLIC 'CODE'
_TEXT	ENDS
;	COMDAT ?length@?$char_traits@D@std@@SAIPBD@Z
_TEXT	SEGMENT PARA USE32 PUBLIC 'CODE'
_TEXT	ENDS
;	COMDAT ??0length_error@std@@QAE@ABV?$basic_string@DU?$char_traits@D@std@@V?$allocator@D@2@@1@@Z
_TEXT	SEGMENT PARA USE32 PUBLIC 'CODE'
_TEXT	ENDS
;	COMDAT ??0logic_error@std@@QAE@ABV?$basic_string@DU?$char_traits@D@std@@V?$allocator@D@2@@1@@Z
_TEXT	SEGMENT PARA USE32 PUBLIC 'CODE'
_TEXT	ENDS
;	COMDAT ??Hiterator@?$vector@U_TransformStuffComponent@@V?$allocator@U_TransformStuffComponent@@@std@@@std@@QBE?AV012@H@Z
_TEXT	SEGMENT PARA USE32 PUBLIC 'CODE'
_TEXT	ENDS
;	COMDAT ??Yiterator@?$vector@U_TransformStuffComponent@@V?$allocator@U_TransformStuffComponent@@@std@@@std@@QAEAAV012@H@Z
_TEXT	SEGMENT PARA USE32 PUBLIC 'CODE'
_TEXT	ENDS
;	COMDAT ?compare@?$char_traits@D@std@@SAHPBD0I@Z
_TEXT	SEGMENT PARA USE32 PUBLIC 'CODE'
_TEXT	ENDS
;	COMDAT ?GetString@?$CSimpleStringT@D$0A@@ATL@@QBEPBDXZ
_TEXT	SEGMENT PARA USE32 PUBLIC 'CODE'
_TEXT	ENDS
;	COMDAT ??0iterator@?$vector@U_TransformStuffComponent@@V?$allocator@U_TransformStuffComponent@@@std@@@std@@QAE@PAU_TransformStuffComponent@@@Z
_TEXT	SEGMENT PARA USE32 PUBLIC 'CODE'
_TEXT	ENDS
;	COMDAT ??0const_iterator@?$vector@U_TransformStuffComponent@@V?$allocator@U_TransformStuffComponent@@@std@@@std@@QAE@PAU_TransformStuffComponent@@@Z
_TEXT	SEGMENT PARA USE32 PUBLIC 'CODE'
_TEXT	ENDS
;	COMDAT ?_Myptr@?$basic_string@DU?$char_traits@D@std@@V?$allocator@D@2@@std@@QBEPBDXZ
_TEXT	SEGMENT PARA USE32 PUBLIC 'CODE'
_TEXT	ENDS
;	COMDAT ?size@?$basic_string@DU?$char_traits@D@std@@V?$allocator@D@2@@std@@QBEIXZ
_TEXT	SEGMENT PARA USE32 PUBLIC 'CODE'
_TEXT	ENDS
;	COMDAT ??0_TransformStuffComponent@@QAE@XZ
_TEXT	SEGMENT PARA USE32 PUBLIC 'CODE'
_TEXT	ENDS
;	COMDAT ??5CAr@@QAEAAV0@AAI@Z
_TEXT	SEGMENT PARA USE32 PUBLIC 'CODE'
_TEXT	ENDS
;	COMDAT ??5CAr@@QAEAAV0@AAJ@Z
_TEXT	SEGMENT PARA USE32 PUBLIC 'CODE'
_TEXT	ENDS
;	COMDAT ??5CAr@@QAEAAV0@AAH@Z
_TEXT	SEGMENT PARA USE32 PUBLIC 'CODE'
_TEXT	ENDS
;	COMDAT ??Diterator@?$vector@U_TransformStuffComponent@@V?$allocator@U_TransformStuffComponent@@@std@@@std@@QBEAAU_TransformStuffComponent@@XZ
_TEXT	SEGMENT PARA USE32 PUBLIC 'CODE'
_TEXT	ENDS
;	COMDAT ??Dconst_iterator@?$vector@U_TransformStuffComponent@@V?$allocator@U_TransformStuffComponent@@@std@@@std@@QBEABU_TransformStuffComponent@@XZ
_TEXT	SEGMENT PARA USE32 PUBLIC 'CODE'
_TEXT	ENDS
;	COMDAT ?begin@?$vector@U_TransformStuffComponent@@V?$allocator@U_TransformStuffComponent@@@std@@@std@@QAE?AViterator@12@XZ
_TEXT	SEGMENT PARA USE32 PUBLIC 'CODE'
_TEXT	ENDS
;	COMDAT ?size@?$vector@U_TransformStuffComponent@@V?$allocator@U_TransformStuffComponent@@@std@@@std@@QBEIXZ
_TEXT	SEGMENT PARA USE32 PUBLIC 'CODE'
_TEXT	ENDS
;	COMDAT ??6CAr@@QAEAAV0@I@Z
_TEXT	SEGMENT PARA USE32 PUBLIC 'CODE'
_TEXT	ENDS
;	COMDAT ??6CAr@@QAEAAV0@J@Z
_TEXT	SEGMENT PARA USE32 PUBLIC 'CODE'
_TEXT	ENDS
;	COMDAT ??6CAr@@QAEAAV0@H@Z
_TEXT	SEGMENT PARA USE32 PUBLIC 'CODE'
_TEXT	ENDS
;	COMDAT ??0_TransformStuffComponent@@QAE@HF@Z
_TEXT	SEGMENT PARA USE32 PUBLIC 'CODE'
_TEXT	ENDS
;	COMDAT ??_7CTransformStuff@@6B@
CONST	SEGMENT DWORD USE32 PUBLIC 'CONST'
CONST	ENDS
;	COMDAT ?GetName@CPet@@QAEPBDXZ
_TEXT	SEGMENT PARA USE32 PUBLIC 'CODE'
_TEXT	ENDS
;	COMDAT ?GetEnergy@CPet@@QAEGXZ
_TEXT	SEGMENT PARA USE32 PUBLIC 'CODE'
_TEXT	ENDS
;	COMDAT ?GetExp@CPet@@QAEKXZ
_TEXT	SEGMENT PARA USE32 PUBLIC 'CODE'
_TEXT	ENDS
;	COMDAT ?GetLevel@CPet@@QAEEXZ
_TEXT	SEGMENT PARA USE32 PUBLIC 'CODE'
_TEXT	ENDS
;	COMDAT ?GetKind@CPet@@QAEEXZ
_TEXT	SEGMENT PARA USE32 PUBLIC 'CODE'
_TEXT	ENDS
;	COMDAT ?GetMaxEnergy@CPet@@QAEGXZ
_TEXT	SEGMENT PARA USE32 PUBLIC 'CODE'
_TEXT	ENDS
;	COMDAT ?SetLife@CPet@@QAEXG@Z
_TEXT	SEGMENT PARA USE32 PUBLIC 'CODE'
_TEXT	ENDS
;	COMDAT ?GetMaxExp@CPet@@QAEHXZ
_TEXT	SEGMENT PARA USE32 PUBLIC 'CODE'
_TEXT	ENDS
;	COMDAT ??5CAr@@QAEAAV0@AAG@Z
_TEXT	SEGMENT PARA USE32 PUBLIC 'CODE'
_TEXT	ENDS
;	COMDAT ??5CAr@@QAEAAV0@AAK@Z
_TEXT	SEGMENT PARA USE32 PUBLIC 'CODE'
_TEXT	ENDS
;	COMDAT ??5CAr@@QAEAAV0@AAE@Z
_TEXT	SEGMENT PARA USE32 PUBLIC 'CODE'
_TEXT	ENDS
;	COMDAT ??6CAr@@QAEAAV0@G@Z
_TEXT	SEGMENT PARA USE32 PUBLIC 'CODE'
_TEXT	ENDS
;	COMDAT ??6CAr@@QAEAAV0@K@Z
_TEXT	SEGMENT PARA USE32 PUBLIC 'CODE'
_TEXT	ENDS
;	COMDAT ??6CAr@@QAEAAV0@E@Z
_TEXT	SEGMENT PARA USE32 PUBLIC 'CODE'
_TEXT	ENDS
;	COMDAT ?IsStoring@CAr@@QBEHXZ
_TEXT	SEGMENT PARA USE32 PUBLIC 'CODE'
_TEXT	ENDS
;	COMDAT ??_7CPet@@6B@
CONST	SEGMENT DWORD USE32 PUBLIC 'CONST'
CONST	ENDS
;	COMDAT ?sPetProperty@?1??GetInstance@CPetProperty@@SAPAV2@XZ@4V2@A
_BSS	SEGMENT DWORD USE32 PUBLIC 'BSS'
_BSS	ENDS
;	COMDAT ?$S1@?1??GetInstance@CPetProperty@@SAPAV2@XZ@4IA
_BSS	SEGMENT DWORD USE32 PUBLIC 'BSS'
_BSS	ENDS
;	COMDAT ??0_PETPENALTY@@QAE@XZ
_TEXT	SEGMENT PARA USE32 PUBLIC 'CODE'
_TEXT	ENDS
;	COMDAT ??_7CPetProperty@@6B@
CONST	SEGMENT DWORD USE32 PUBLIC 'CONST'
CONST	ENDS
sxdata	SEGMENT DWORD USE32 'SXDATA'
sxdata	ENDS
FLAT	GROUP _DATA, CONST, _BSS
	ASSUME	CS: FLAT, DS: FLAT, SS: FLAT
endif

INCLUDELIB LIBCMT
INCLUDELIB OLDNAMES

PUBLIC	??_H@YGXPAXIHP6EPAX0@Z@Z			; `vector constructor iterator'
; Function compile flags: /Ogty
;	COMDAT ??_H@YGXPAXIHP6EPAX0@Z@Z
_TEXT	SEGMENT
___t$ = 8						; size = 4
___s$ = 12						; size = 4
___n$ = 16						; size = 4
___f$ = 20						; size = 4
??_H@YGXPAXIHP6EPAX0@Z@Z PROC NEAR			; `vector constructor iterator', COMDAT
  00000	8b 44 24 0c	 mov	 eax, DWORD PTR ___n$[esp-4]
  00004	48		 dec	 eax
  00005	78 26		 js	 SHORT $L189434
  00007	53		 push	 ebx
  00008	8b 5c 24 14	 mov	 ebx, DWORD PTR ___f$[esp]
  0000c	55		 push	 ebp
  0000d	8b 6c 24 10	 mov	 ebp, DWORD PTR ___s$[esp+4]
  00011	56		 push	 esi
  00012	8b 74 24 10	 mov	 esi, DWORD PTR ___t$[esp+8]
  00016	57		 push	 edi
  00017	8d 78 01	 lea	 edi, DWORD PTR [eax+1]
  0001a	8d 9b 00 00 00
	00		 npad	 6
$L189433:
  00020	8b ce		 mov	 ecx, esi
  00022	ff d3		 call	 ebx
  00024	03 f5		 add	 esi, ebp
  00026	4f		 dec	 edi
  00027	75 f7		 jne	 SHORT $L189433
  00029	5f		 pop	 edi
  0002a	5e		 pop	 esi
  0002b	5d		 pop	 ebp
  0002c	5b		 pop	 ebx
$L189434:
  0002d	c2 10 00	 ret	 16			; 00000010H
??_H@YGXPAXIHP6EPAX0@Z@Z ENDP				; `vector constructor iterator'
_TEXT	ENDS
PUBLIC	??2@YAPAXIPAX@Z					; operator new
; Function compile flags: /Ogty
; File c:\program files\microsoft visual studio .net 2003\vc7\include\new.h
;	COMDAT ??2@YAPAXIPAX@Z
_TEXT	SEGMENT
___formal$ = 8						; size = 4
__P$ = 12						; size = 4
??2@YAPAXIPAX@Z PROC NEAR				; operator new, COMDAT

; 109  :         {return (_P); }

  00000	8b 44 24 08	 mov	 eax, DWORD PTR __P$[esp-4]
  00004	c3		 ret	 0
??2@YAPAXIPAX@Z ENDP					; operator new
_TEXT	ENDS
PUBLIC	?GetPenalty@CPetProperty@@QAEPAU_PETPENALTY@@E@Z ; CPetProperty::GetPenalty
; Function compile flags: /Ogty
; File c:\documents and settings\test\mes documents\source\virtuos_v17\build\program\_common\pet.cpp
;	COMDAT ?GetPenalty@CPetProperty@@QAEPAU_PETPENALTY@@E@Z
_TEXT	SEGMENT
_nLevel$ = 8						; size = 1
?GetPenalty@CPetProperty@@QAEPAU_PETPENALTY@@E@Z PROC NEAR ; CPetProperty::GetPenalty, COMDAT
; _this$ = ecx

; 39   : 	if( nLevel >= PL_MAX )

  00000	8a 44 24 04	 mov	 al, BYTE PTR _nLevel$[esp-4]
  00004	3c 06		 cmp	 al, 6
  00006	72 05		 jb	 SHORT $L189444

; 40   : 		return NULL;

  00008	33 c0		 xor	 eax, eax

; 42   : }

  0000a	c2 04 00	 ret	 4
$L189444:

; 41   : 	return &m_aPenalty[nLevel];

  0000d	0f b6 c0	 movzx	 eax, al
  00010	8d 84 c1 dc 02
	00 00		 lea	 eax, DWORD PTR [ecx+eax*8+732]

; 42   : }

  00017	c2 04 00	 ret	 4
?GetPenalty@CPetProperty@@QAEPAU_PETPENALTY@@E@Z ENDP	; CPetProperty::GetPenalty
_TEXT	ENDS
PUBLIC	?GetAvailParam@CPetProperty@@QAEPAU_PETAVAILPARAM@@E@Z ; CPetProperty::GetAvailParam
; Function compile flags: /Ogty
;	COMDAT ?GetAvailParam@CPetProperty@@QAEPAU_PETAVAILPARAM@@E@Z
_TEXT	SEGMENT
_nKind$ = 8						; size = 1
?GetAvailParam@CPetProperty@@QAEPAU_PETAVAILPARAM@@E@Z PROC NEAR ; CPetProperty::GetAvailParam, COMDAT
; _this$ = ecx

; 46   : 	if( nKind >= PK_TIGER && nKind < PK_MAX )

  00000	8a 44 24 04	 mov	 al, BYTE PTR _nKind$[esp-4]
  00004	3c 07		 cmp	 al, 7
  00006	73 0d		 jae	 SHORT $L189449

; 47   : 		return &m_aPetAvailParam[nKind];

  00008	0f b6 c0	 movzx	 eax, al
  0000b	6b c0 3c	 imul	 eax, 60			; 0000003cH
  0000e	8d 44 08 04	 lea	 eax, DWORD PTR [eax+ecx+4]

; 49   : }

  00012	c2 04 00	 ret	 4
$L189449:

; 48   : 	return NULL;

  00015	33 c0		 xor	 eax, eax

; 49   : }

  00017	c2 04 00	 ret	 4
?GetAvailParam@CPetProperty@@QAEPAU_PETAVAILPARAM@@E@Z ENDP ; CPetProperty::GetAvailParam
_TEXT	ENDS
PUBLIC	?GetLevelupAvailLevel@CPetProperty@@QAEEE@Z	; CPetProperty::GetLevelupAvailLevel
EXTRN	?xRandom@@YAKKK@Z:NEAR				; xRandom
; Function compile flags: /Ogty
;	COMDAT ?GetLevelupAvailLevel@CPetProperty@@QAEEE@Z
_TEXT	SEGMENT
_wLevel$ = 8						; size = 1
?GetLevelupAvailLevel@CPetProperty@@QAEEE@Z PROC NEAR	; CPetProperty::GetLevelupAvailLevel, COMDAT
; _this$ = ecx

; 52   : {

  00000	53		 push	 ebx
  00001	56		 push	 esi
  00002	57		 push	 edi

; 53   : 	DWORD dwTotal	= 0;
; 54   : 	DWORD dwRandom	= xRandom( 1, 10001 );	// 1 ~ 10000

  00003	68 11 27 00 00	 push	 10001			; 00002711H
  00008	6a 01		 push	 1
  0000a	8b f9		 mov	 edi, ecx
  0000c	33 f6		 xor	 esi, esi
  0000e	e8 00 00 00 00	 call	 ?xRandom@@YAKKK@Z	; xRandom

; 55   : 	for( int i = 0; i <= m_anLevelupAvailLevelMax[wLevel]; i++ )

  00013	0f b6 4c 24 18	 movzx	 ecx, BYTE PTR _wLevel$[esp+16]

; 60   : 	}
; 61   : 	return 0;

  00018	0f b6 9c 39 a8
	01 00 00	 movzx	 ebx, BYTE PTR [ecx+edi+424]
  00020	83 c4 08	 add	 esp, 8
  00023	33 d2		 xor	 edx, edx
  00025	85 db		 test	 ebx, ebx
  00027	7c 15		 jl	 SHORT $L189459
  00029	8d 4c c9 6c	 lea	 ecx, DWORD PTR [ecx+ecx*8+108]
  0002d	8d 0c 8f	 lea	 ecx, DWORD PTR [edi+ecx*4]
$L189457:
  00030	03 31		 add	 esi, DWORD PTR [ecx]
  00032	3b f0		 cmp	 esi, eax
  00034	73 10		 jae	 SHORT $L191545
  00036	42		 inc	 edx
  00037	83 c1 04	 add	 ecx, 4
  0003a	3b d3		 cmp	 edx, ebx
  0003c	7e f2		 jle	 SHORT $L189457
$L189459:
  0003e	5f		 pop	 edi
  0003f	5e		 pop	 esi
  00040	32 c0		 xor	 al, al
  00042	5b		 pop	 ebx

; 62   : }

  00043	c2 04 00	 ret	 4
$L191545:
  00046	5f		 pop	 edi
  00047	5e		 pop	 esi

; 56   : 	{
; 57   : 		dwTotal		+= m_adwLevelupAvailLevelProbability[wLevel][i];
; 58   : 		if(  dwTotal >= dwRandom )
; 59   : 			return i + 1;

  00048	8d 42 01	 lea	 eax, DWORD PTR [edx+1]
  0004b	5b		 pop	 ebx

; 62   : }

  0004c	c2 04 00	 ret	 4
?GetLevelupAvailLevel@CPetProperty@@QAEEE@Z ENDP	; CPetProperty::GetLevelupAvailLevel
_TEXT	ENDS
PUBLIC	?Hatch@CPetProperty@@QAEEXZ			; CPetProperty::Hatch
; Function compile flags: /Ogty
;	COMDAT ?Hatch@CPetProperty@@QAEEXZ
_TEXT	SEGMENT
?Hatch@CPetProperty@@QAEEXZ PROC NEAR			; CPetProperty::Hatch, COMDAT
; _this$ = ecx

; 79   : {

  00000	56		 push	 esi
  00001	57		 push	 edi

; 80   : 	DWORD dwTotal	= 0;
; 81   : 	DWORD dwRandom	= xRandom( 1, 10001 );	// 1 - 10000

  00002	68 11 27 00 00	 push	 10001			; 00002711H
  00007	6a 01		 push	 1
  00009	8b f9		 mov	 edi, ecx
  0000b	33 f6		 xor	 esi, esi
  0000d	e8 00 00 00 00	 call	 ?xRandom@@YAKKK@Z	; xRandom
  00012	83 c4 08	 add	 esp, 8
  00015	8b d0		 mov	 edx, eax

; 82   : 	for( int i = 0; i < PK_MAX; i++ )

  00017	33 c0		 xor	 eax, eax
  00019	8d 4f 3c	 lea	 ecx, DWORD PTR [edi+60]
  0001c	8d 64 24 00	 npad	 4
$L189602:

; 83   : 	{
; 84   : 		dwTotal	+= m_aPetAvailParam[i].m_dwProbability;

  00020	03 31		 add	 esi, DWORD PTR [ecx]

; 85   : 		if( dwTotal >= dwRandom )

  00022	3b f2		 cmp	 esi, edx
  00024	73 0b		 jae	 SHORT $L189598
  00026	40		 inc	 eax
  00027	83 c1 3c	 add	 ecx, 60			; 0000003cH
  0002a	83 f8 07	 cmp	 eax, 7
  0002d	7c f1		 jl	 SHORT $L189602

; 86   : 			return i;
; 87   : 	}
; 88   : 	return 0;	// error

  0002f	32 c0		 xor	 al, al
$L189598:
  00031	5f		 pop	 edi
  00032	5e		 pop	 esi

; 89   : }

  00033	c3		 ret	 0
?Hatch@CPetProperty@@QAEEXZ ENDP			; CPetProperty::Hatch
_TEXT	ENDS
PUBLIC	?GetIncrementExp@CPetProperty@@QAEKE@Z		; CPetProperty::GetIncrementExp
; Function compile flags: /Ogty
;	COMDAT ?GetIncrementExp@CPetProperty@@QAEKE@Z
_TEXT	SEGMENT
_nLevel$ = 8						; size = 1
?GetIncrementExp@CPetProperty@@QAEKE@Z PROC NEAR	; CPetProperty::GetIncrementExp, COMDAT
; _this$ = ecx

; 93   : 	if( nLevel >= PL_D && nLevel <= PL_A )

  00000	8a 44 24 04	 mov	 al, BYTE PTR _nLevel$[esp-4]
  00004	3c 01		 cmp	 al, 1
  00006	72 11		 jb	 SHORT $L189610
  00008	3c 04		 cmp	 al, 4
  0000a	77 0d		 ja	 SHORT $L189610

; 94   : 		return m_adwIncrementExp[nLevel-1];

  0000c	0f b6 c0	 movzx	 eax, al
  0000f	8b 84 81 a4 02
	00 00		 mov	 eax, DWORD PTR [ecx+eax*4+676]

; 96   : }

  00016	c2 04 00	 ret	 4
$L189610:

; 95   : 	return 0;

  00019	33 c0		 xor	 eax, eax

; 96   : }

  0001b	c2 04 00	 ret	 4
?GetIncrementExp@CPetProperty@@QAEKE@Z ENDP		; CPetProperty::GetIncrementExp
_TEXT	ENDS
PUBLIC	?GetMaxEnergy@CPetProperty@@QAEGE@Z		; CPetProperty::GetMaxEnergy
; Function compile flags: /Ogty
;	COMDAT ?GetMaxEnergy@CPetProperty@@QAEGE@Z
_TEXT	SEGMENT
_nLevel$ = 8						; size = 1
?GetMaxEnergy@CPetProperty@@QAEGE@Z PROC NEAR		; CPetProperty::GetMaxEnergy, COMDAT
; _this$ = ecx

; 100  : 	if( nLevel >= PL_D && nLevel <= PL_S )

  00000	8a 44 24 04	 mov	 al, BYTE PTR _nLevel$[esp-4]
  00004	3c 01		 cmp	 al, 1
  00006	72 12		 jb	 SHORT $L189615
  00008	3c 05		 cmp	 al, 5
  0000a	77 0e		 ja	 SHORT $L189615

; 101  : 		return m_awMaxEnergy[nLevel-1];

  0000c	0f b6 c0	 movzx	 eax, al
  0000f	66 8b 84 41 be
	02 00 00	 mov	 ax, WORD PTR [ecx+eax*2+702]

; 103  : }

  00017	c2 04 00	 ret	 4
$L189615:

; 102  : 	return 1;	// 0 나누기 방지

  0001a	66 b8 01 00	 mov	 ax, 1

; 103  : }

  0001e	c2 04 00	 ret	 4
?GetMaxEnergy@CPetProperty@@QAEGE@Z ENDP		; CPetProperty::GetMaxEnergy
_TEXT	ENDS
PUBLIC	??0CPet@@QAE@XZ					; CPet::CPet
PUBLIC	??_7CPet@@6B@					; CPet::`vftable'
PUBLIC	??_GCPet@@UAEPAXI@Z				; CPet::`scalar deleting destructor'
EXTRN	??_ECPet@@UAEPAXI@Z:NEAR			; CPet::`vector deleting destructor'
;	COMDAT ??_7CPet@@6B@
CONST	SEGMENT
??_7CPet@@6B@ DD FLAT:??_ECPet@@UAEPAXI@Z		; CPet::`vftable'
; Function compile flags: /Ogty
CONST	ENDS
;	COMDAT ??0CPet@@QAE@XZ
_TEXT	SEGMENT
??0CPet@@QAE@XZ PROC NEAR				; CPet::CPet, COMDAT
; _this$ = ecx

; 295  : {

  00000	8b c1		 mov	 eax, ecx

; 296  : 	m_nKind	= 0;

  00002	33 c9		 xor	 ecx, ecx
  00004	56		 push	 esi

; 297  : 	m_nLevel	= PL_EGG;
; 298  : 	m_dwExp	= 0;
; 299  : 	m_wEnergy	= 0;
; 300  : 	m_wLife	= 0;
; 301  : 	memset( (void*)m_anAvailLevel, 0, sizeof(BYTE) * PL_MAX );

  00005	8d 70 10	 lea	 esi, DWORD PTR [eax+16]
  00008	c7 00 00 00 00
	00		 mov	 DWORD PTR [eax], OFFSET FLAT:??_7CPet@@6B@
  0000e	88 48 04	 mov	 BYTE PTR [eax+4], cl
  00011	88 48 05	 mov	 BYTE PTR [eax+5], cl
  00014	89 48 08	 mov	 DWORD PTR [eax+8], ecx
  00017	66 89 48 0c	 mov	 WORD PTR [eax+12], cx
  0001b	66 89 48 0e	 mov	 WORD PTR [eax+14], cx
  0001f	33 d2		 xor	 edx, edx
  00021	89 16		 mov	 DWORD PTR [esi], edx
  00023	66 89 56 04	 mov	 WORD PTR [esi+4], dx

; 302  : #ifdef __PET_1024
; 303  : 	m_szName[0]	= '\0';

  00027	88 48 16	 mov	 BYTE PTR [eax+22], cl
  0002a	5e		 pop	 esi

; 304  : #endif	// __PET_1024
; 305  : }

  0002b	c3		 ret	 0
??0CPet@@QAE@XZ ENDP					; CPet::CPet
_TEXT	ENDS
PUBLIC	??1CPet@@UAE@XZ					; CPet::~CPet
; Function compile flags: /Ogty
;	COMDAT ??1CPet@@UAE@XZ
_TEXT	SEGMENT
??1CPet@@UAE@XZ PROC NEAR				; CPet::~CPet, COMDAT
; _this$ = ecx

; 308  : {

  00000	c7 01 00 00 00
	00		 mov	 DWORD PTR [ecx], OFFSET FLAT:??_7CPet@@6B@

; 309  : }

  00006	c3		 ret	 0
??1CPet@@UAE@XZ ENDP					; CPet::~CPet
_TEXT	ENDS
PUBLIC	?SetEnergy@CPet@@QAEXG@Z			; CPet::SetEnergy
; Function compile flags: /Ogty
;	COMDAT ?SetEnergy@CPet@@QAEXG@Z
_TEXT	SEGMENT
_wEnergy$ = 8						; size = 2
?SetEnergy@CPet@@QAEXG@Z PROC NEAR			; CPet::SetEnergy, COMDAT
; _this$ = ecx

; 343  : #ifdef __DBSERVER
; 344  : 	m_wEnergy	= wEnergy;		// trans서버에서는 pet.inc를 읽지 않는다.

  00000	66 8b 44 24 04	 mov	 ax, WORD PTR _wEnergy$[esp-4]
  00005	66 89 41 0c	 mov	 WORD PTR [ecx+12], ax

; 345  : #else	// __DBSERVER
; 346  : 	WORD wMaxEnergy		= GetMaxEnergy();
; 347  : 	m_wEnergy	= wEnergy > wMaxEnergy? wMaxEnergy: wEnergy;
; 348  : #endif	// __DBSERVER
; 349  : }

  00009	c2 04 00	 ret	 4
?SetEnergy@CPet@@QAEXG@Z ENDP				; CPet::SetEnergy
_TEXT	ENDS
PUBLIC	?GetLife@CPet@@QAEGXZ				; CPet::GetLife
; Function compile flags: /Ogty
;	COMDAT ?GetLife@CPet@@QAEGXZ
_TEXT	SEGMENT
?GetLife@CPet@@QAEGXZ PROC NEAR				; CPet::GetLife, COMDAT
; _this$ = ecx

; 358  : 	return ( m_nLevel == PL_EGG )? 0: m_wLife;

  00000	8a 41 05	 mov	 al, BYTE PTR [ecx+5]
  00003	84 c0		 test	 al, al
  00005	75 03		 jne	 SHORT $L191565
  00007	33 c0		 xor	 eax, eax

; 359  : }

  00009	c3		 ret	 0
$L191565:

; 358  : 	return ( m_nLevel == PL_EGG )? 0: m_wLife;

  0000a	0f b7 41 0e	 movzx	 eax, WORD PTR [ecx+14]

; 359  : }

  0000e	c3		 ret	 0
?GetLife@CPet@@QAEGXZ ENDP				; CPet::GetLife
_TEXT	ENDS
PUBLIC	?SetAvailLevel@CPet@@QAEXEE@Z			; CPet::SetAvailLevel
; Function compile flags: /Ogty
;	COMDAT ?SetAvailLevel@CPet@@QAEXEE@Z
_TEXT	SEGMENT
_nLevel$ = 8						; size = 1
_nAvailLevel$ = 12					; size = 1
?SetAvailLevel@CPet@@QAEXEE@Z PROC NEAR			; CPet::SetAvailLevel, COMDAT
; _this$ = ecx

; 363  : 	if( nLevel >= PL_D && nLevel <= PL_S )

  00000	8a 44 24 04	 mov	 al, BYTE PTR _nLevel$[esp-4]
  00004	3c 01		 cmp	 al, 1
  00006	72 0f		 jb	 SHORT $L189764
  00008	3c 05		 cmp	 al, 5
  0000a	77 0b		 ja	 SHORT $L189764

; 364  : 		m_anAvailLevel[nLevel-1]	= nAvailLevel;

  0000c	8a 54 24 08	 mov	 dl, BYTE PTR _nAvailLevel$[esp-4]
  00010	0f b6 c0	 movzx	 eax, al
  00013	88 54 08 0f	 mov	 BYTE PTR [eax+ecx+15], dl
$L189764:

; 365  : }

  00017	c2 08 00	 ret	 8
?SetAvailLevel@CPet@@QAEXEE@Z ENDP			; CPet::SetAvailLevel
_TEXT	ENDS
PUBLIC	?GetAvailLevel@CPet@@QAEEE@Z			; CPet::GetAvailLevel
; Function compile flags: /Ogty
;	COMDAT ?GetAvailLevel@CPet@@QAEEE@Z
_TEXT	SEGMENT
_nLevel$ = 8						; size = 1
?GetAvailLevel@CPet@@QAEEE@Z PROC NEAR			; CPet::GetAvailLevel, COMDAT
; _this$ = ecx

; 369  : 	if( nLevel >= PL_D && nLevel <= PL_S )

  00000	8a 44 24 04	 mov	 al, BYTE PTR _nLevel$[esp-4]
  00004	3c 01		 cmp	 al, 1
  00006	72 0e		 jb	 SHORT $L189769
  00008	3c 05		 cmp	 al, 5
  0000a	77 0a		 ja	 SHORT $L189769

; 370  : 		return m_anAvailLevel[nLevel-1];

  0000c	0f b6 c0	 movzx	 eax, al
  0000f	8a 44 08 0f	 mov	 al, BYTE PTR [eax+ecx+15]

; 372  : }

  00013	c2 04 00	 ret	 4
$L189769:

; 371  : 	return 0;

  00016	32 c0		 xor	 al, al

; 372  : }

  00018	c2 04 00	 ret	 4
?GetAvailLevel@CPet@@QAEEE@Z ENDP			; CPet::GetAvailLevel
_TEXT	ENDS
PUBLIC	?SetName@CPet@@QAEXPBD@Z			; CPet::SetName
EXTRN	_strncpy:NEAR
; Function compile flags: /Ogty
;	COMDAT ?SetName@CPet@@QAEXPBD@Z
_TEXT	SEGMENT
_szName$ = 8						; size = 4
?SetName@CPet@@QAEXPBD@Z PROC NEAR			; CPet::SetName, COMDAT
; _this$ = ecx

; 1011 : 	strncpy( m_szName, szName, MAX_PET_NAME - 1 );

  00000	8b 44 24 04	 mov	 eax, DWORD PTR _szName$[esp-4]
  00004	56		 push	 esi
  00005	8b f1		 mov	 esi, ecx
  00007	6a 10		 push	 16			; 00000010H
  00009	50		 push	 eax
  0000a	8d 4e 16	 lea	 ecx, DWORD PTR [esi+22]
  0000d	51		 push	 ecx
  0000e	e8 00 00 00 00	 call	 _strncpy
  00013	83 c4 0c	 add	 esp, 12			; 0000000cH

; 1012 : 	m_szName[MAX_PET_NAME-1]	= '\0';

  00016	c6 46 26 00	 mov	 BYTE PTR [esi+38], 0
  0001a	5e		 pop	 esi

; 1013 : }

  0001b	c2 04 00	 ret	 4
?SetName@CPet@@QAEXPBD@Z ENDP				; CPet::SetName
_TEXT	ENDS
PUBLIC	?size@?$vector@GV?$allocator@G@std@@@std@@QBEIXZ ; std::vector<unsigned short,std::allocator<unsigned short> >::size
; Function compile flags: /Ogty
; File c:\program files\microsoft visual studio .net 2003\vc7\include\vector
;	COMDAT ?size@?$vector@GV?$allocator@G@std@@@std@@QBEIXZ
_TEXT	SEGMENT
?size@?$vector@GV?$allocator@G@std@@@std@@QBEIXZ PROC NEAR ; std::vector<unsigned short,std::allocator<unsigned short> >::size, COMDAT
; _this$ = ecx

; 516  : 		return (_Myfirst == 0 ? 0 : _Mylast - _Myfirst);

  00000	8b 51 04	 mov	 edx, DWORD PTR [ecx+4]
  00003	85 d2		 test	 edx, edx
  00005	75 03		 jne	 SHORT $L191575
  00007	33 c0		 xor	 eax, eax

; 517  : 		}

  00009	c3		 ret	 0
$L191575:

; 516  : 		return (_Myfirst == 0 ? 0 : _Mylast - _Myfirst);

  0000a	8b 41 08	 mov	 eax, DWORD PTR [ecx+8]
  0000d	2b c2		 sub	 eax, edx
  0000f	d1 f8		 sar	 eax, 1

; 517  : 		}

  00011	c3		 ret	 0
?size@?$vector@GV?$allocator@G@std@@@std@@QBEIXZ ENDP	; std::vector<unsigned short,std::allocator<unsigned short> >::size
_TEXT	ENDS
PUBLIC	??Eiterator@?$vector@U_TransformStuffComponent@@V?$allocator@U_TransformStuffComponent@@@std@@@std@@QAEAAV012@XZ ; std::vector<_TransformStuffComponent,std::allocator<_TransformStuffComponent> >::iterator::operator++
; Function compile flags: /Ogty
;	COMDAT ??Eiterator@?$vector@U_TransformStuffComponent@@V?$allocator@U_TransformStuffComponent@@@std@@@std@@QAEAAV012@XZ
_TEXT	SEGMENT
??Eiterator@?$vector@U_TransformStuffComponent@@V?$allocator@U_TransformStuffComponent@@@std@@@std@@QAEAAV012@XZ PROC NEAR ; std::vector<_TransformStuffComponent,std::allocator<_TransformStuffComponent> >::iterator::operator++, COMDAT
; _this$ = ecx

; 229  : 			{	// preincrement

  00000	8b c1		 mov	 eax, ecx

; 230  : 			++this->_Myptr;

  00002	83 00 08	 add	 DWORD PTR [eax], 8

; 231  : 			return (*this);
; 232  : 			}

  00005	c3		 ret	 0
??Eiterator@?$vector@U_TransformStuffComponent@@V?$allocator@U_TransformStuffComponent@@@std@@@std@@QAEAAV012@XZ ENDP ; std::vector<_TransformStuffComponent,std::allocator<_TransformStuffComponent> >::iterator::operator++
_TEXT	ENDS
PUBLIC	??Eiterator@?$vector@U_FEEDENERGY@@V?$allocator@U_FEEDENERGY@@@std@@@std@@QAEAAV012@XZ ; std::vector<_FEEDENERGY,std::allocator<_FEEDENERGY> >::iterator::operator++
; Function compile flags: /Ogty
;	COMDAT ??Eiterator@?$vector@U_FEEDENERGY@@V?$allocator@U_FEEDENERGY@@@std@@@std@@QAEAAV012@XZ
_TEXT	SEGMENT
??Eiterator@?$vector@U_FEEDENERGY@@V?$allocator@U_FEEDENERGY@@@std@@@std@@QAEAAV012@XZ PROC NEAR ; std::vector<_FEEDENERGY,std::allocator<_FEEDENERGY> >::iterator::operator++, COMDAT
; _this$ = ecx

; 229  : 			{	// preincrement

  00000	8b c1		 mov	 eax, ecx

; 230  : 			++this->_Myptr;

  00002	83 00 0c	 add	 DWORD PTR [eax], 12	; 0000000cH

; 231  : 			return (*this);
; 232  : 			}

  00005	c3		 ret	 0
??Eiterator@?$vector@U_FEEDENERGY@@V?$allocator@U_FEEDENERGY@@@std@@@std@@QAEAAV012@XZ ENDP ; std::vector<_FEEDENERGY,std::allocator<_FEEDENERGY> >::iterator::operator++
_TEXT	ENDS
PUBLIC	??0?$allocator@G@std@@QAE@XZ			; std::allocator<unsigned short>::allocator<unsigned short>
; Function compile flags: /Ogty
; File c:\program files\microsoft visual studio .net 2003\vc7\include\xmemory
;	COMDAT ??0?$allocator@G@std@@QAE@XZ
_TEXT	SEGMENT
??0?$allocator@G@std@@QAE@XZ PROC NEAR			; std::allocator<unsigned short>::allocator<unsigned short>, COMDAT
; _this$ = ecx

; 111  : 	allocator()

  00000	8b c1		 mov	 eax, ecx

; 112  : 		{	// construct default allocator (do nothing)
; 113  : 		}

  00002	c3		 ret	 0
??0?$allocator@G@std@@QAE@XZ ENDP			; std::allocator<unsigned short>::allocator<unsigned short>
_TEXT	ENDS
PUBLIC	?capacity@?$vector@U_FEEDENERGY@@V?$allocator@U_FEEDENERGY@@@std@@@std@@QBEIXZ ; std::vector<_FEEDENERGY,std::allocator<_FEEDENERGY> >::capacity
; Function compile flags: /Ogty
; File c:\program files\microsoft visual studio .net 2003\vc7\include\vector
;	COMDAT ?capacity@?$vector@U_FEEDENERGY@@V?$allocator@U_FEEDENERGY@@@std@@@std@@QBEIXZ
_TEXT	SEGMENT
?capacity@?$vector@U_FEEDENERGY@@V?$allocator@U_FEEDENERGY@@@std@@@std@@QBEIXZ PROC NEAR ; std::vector<_FEEDENERGY,std::allocator<_FEEDENERGY> >::capacity, COMDAT
; _this$ = ecx

; 458  : 		return (_Myfirst == 0 ? 0 : _Myend - _Myfirst);

  00000	8b 41 04	 mov	 eax, DWORD PTR [ecx+4]
  00003	85 c0		 test	 eax, eax
  00005	75 01		 jne	 SHORT $L191585

; 459  : 		}

  00007	c3		 ret	 0
$L191585:

; 458  : 		return (_Myfirst == 0 ? 0 : _Myend - _Myfirst);

  00008	8b 49 0c	 mov	 ecx, DWORD PTR [ecx+12]
  0000b	2b c8		 sub	 ecx, eax
  0000d	b8 ab aa aa 2a	 mov	 eax, 715827883		; 2aaaaaabH
  00012	f7 e9		 imul	 ecx
  00014	d1 fa		 sar	 edx, 1
  00016	8b c2		 mov	 eax, edx
  00018	c1 e8 1f	 shr	 eax, 31			; 0000001fH
  0001b	03 c2		 add	 eax, edx

; 459  : 		}

  0001d	c3		 ret	 0
?capacity@?$vector@U_FEEDENERGY@@V?$allocator@U_FEEDENERGY@@@std@@@std@@QBEIXZ ENDP ; std::vector<_FEEDENERGY,std::allocator<_FEEDENERGY> >::capacity
_TEXT	ENDS
PUBLIC	?size@?$vector@U_FEEDENERGY@@V?$allocator@U_FEEDENERGY@@@std@@@std@@QBEIXZ ; std::vector<_FEEDENERGY,std::allocator<_FEEDENERGY> >::size
; Function compile flags: /Ogty
;	COMDAT ?size@?$vector@U_FEEDENERGY@@V?$allocator@U_FEEDENERGY@@@std@@@std@@QBEIXZ
_TEXT	SEGMENT
?size@?$vector@U_FEEDENERGY@@V?$allocator@U_FEEDENERGY@@@std@@@std@@QBEIXZ PROC NEAR ; std::vector<_FEEDENERGY,std::allocator<_FEEDENERGY> >::size, COMDAT
; _this$ = ecx

; 516  : 		return (_Myfirst == 0 ? 0 : _Mylast - _Myfirst);

  00000	8b 41 04	 mov	 eax, DWORD PTR [ecx+4]
  00003	85 c0		 test	 eax, eax
  00005	75 01		 jne	 SHORT $L191589

; 517  : 		}

  00007	c3		 ret	 0
$L191589:

; 516  : 		return (_Myfirst == 0 ? 0 : _Mylast - _Myfirst);

  00008	8b 49 08	 mov	 ecx, DWORD PTR [ecx+8]
  0000b	2b c8		 sub	 ecx, eax
  0000d	b8 ab aa aa 2a	 mov	 eax, 715827883		; 2aaaaaabH
  00012	f7 e9		 imul	 ecx
  00014	d1 fa		 sar	 edx, 1
  00016	8b c2		 mov	 eax, edx
  00018	c1 e8 1f	 shr	 eax, 31			; 0000001fH
  0001b	03 c2		 add	 eax, edx

; 517  : 		}

  0001d	c3		 ret	 0
?size@?$vector@U_FEEDENERGY@@V?$allocator@U_FEEDENERGY@@@std@@@std@@QBEIXZ ENDP ; std::vector<_FEEDENERGY,std::allocator<_FEEDENERGY> >::size
_TEXT	ENDS
PUBLIC	??0?$allocator@U_FEEDENERGY@@@std@@QAE@XZ	; std::allocator<_FEEDENERGY>::allocator<_FEEDENERGY>
; Function compile flags: /Ogty
; File c:\program files\microsoft visual studio .net 2003\vc7\include\xmemory
;	COMDAT ??0?$allocator@U_FEEDENERGY@@@std@@QAE@XZ
_TEXT	SEGMENT
??0?$allocator@U_FEEDENERGY@@@std@@QAE@XZ PROC NEAR	; std::allocator<_FEEDENERGY>::allocator<_FEEDENERGY>, COMDAT
; _this$ = ecx

; 111  : 	allocator()

  00000	8b c1		 mov	 eax, ecx

; 112  : 		{	// construct default allocator (do nothing)
; 113  : 		}

  00002	c3		 ret	 0
??0?$allocator@U_FEEDENERGY@@@std@@QAE@XZ ENDP		; std::allocator<_FEEDENERGY>::allocator<_FEEDENERGY>
_TEXT	ENDS
PUBLIC	?capacity@?$vector@GV?$allocator@G@std@@@std@@QBEIXZ ; std::vector<unsigned short,std::allocator<unsigned short> >::capacity
; Function compile flags: /Ogty
; File c:\program files\microsoft visual studio .net 2003\vc7\include\vector
;	COMDAT ?capacity@?$vector@GV?$allocator@G@std@@@std@@QBEIXZ
_TEXT	SEGMENT
?capacity@?$vector@GV?$allocator@G@std@@@std@@QBEIXZ PROC NEAR ; std::vector<unsigned short,std::allocator<unsigned short> >::capacity, COMDAT
; _this$ = ecx

; 458  : 		return (_Myfirst == 0 ? 0 : _Myend - _Myfirst);

  00000	8b 51 04	 mov	 edx, DWORD PTR [ecx+4]
  00003	85 d2		 test	 edx, edx
  00005	75 03		 jne	 SHORT $L191595
  00007	33 c0		 xor	 eax, eax

; 459  : 		}

  00009	c3		 ret	 0
$L191595:

; 458  : 		return (_Myfirst == 0 ? 0 : _Myend - _Myfirst);

  0000a	8b 41 0c	 mov	 eax, DWORD PTR [ecx+12]
  0000d	2b c2		 sub	 eax, edx
  0000f	d1 f8		 sar	 eax, 1

; 459  : 		}

  00011	c3		 ret	 0
?capacity@?$vector@GV?$allocator@G@std@@@std@@QBEIXZ ENDP ; std::vector<unsigned short,std::allocator<unsigned short> >::capacity
_TEXT	ENDS
PUBLIC	?capacity@?$vector@U_TransformStuffComponent@@V?$allocator@U_TransformStuffComponent@@@std@@@std@@QBEIXZ ; std::vector<_TransformStuffComponent,std::allocator<_TransformStuffComponent> >::capacity
; Function compile flags: /Ogty
;	COMDAT ?capacity@?$vector@U_TransformStuffComponent@@V?$allocator@U_TransformStuffComponent@@@std@@@std@@QBEIXZ
_TEXT	SEGMENT
?capacity@?$vector@U_TransformStuffComponent@@V?$allocator@U_TransformStuffComponent@@@std@@@std@@QBEIXZ PROC NEAR ; std::vector<_TransformStuffComponent,std::allocator<_TransformStuffComponent> >::capacity, COMDAT
; _this$ = ecx

; 458  : 		return (_Myfirst == 0 ? 0 : _Myend - _Myfirst);

  00000	8b 51 04	 mov	 edx, DWORD PTR [ecx+4]
  00003	85 d2		 test	 edx, edx
  00005	75 03		 jne	 SHORT $L191599
  00007	33 c0		 xor	 eax, eax

; 459  : 		}

  00009	c3		 ret	 0
$L191599:

; 458  : 		return (_Myfirst == 0 ? 0 : _Myend - _Myfirst);

  0000a	8b 41 0c	 mov	 eax, DWORD PTR [ecx+12]
  0000d	2b c2		 sub	 eax, edx
  0000f	c1 f8 03	 sar	 eax, 3

; 459  : 		}

  00012	c3		 ret	 0
?capacity@?$vector@U_TransformStuffComponent@@V?$allocator@U_TransformStuffComponent@@@std@@@std@@QBEIXZ ENDP ; std::vector<_TransformStuffComponent,std::allocator<_TransformStuffComponent> >::capacity
_TEXT	ENDS
PUBLIC	??0?$allocator@U_TransformStuffComponent@@@std@@QAE@XZ ; std::allocator<_TransformStuffComponent>::allocator<_TransformStuffComponent>
; Function compile flags: /Ogty
; File c:\program files\microsoft visual studio .net 2003\vc7\include\xmemory
;	COMDAT ??0?$allocator@U_TransformStuffComponent@@@std@@QAE@XZ
_TEXT	SEGMENT
??0?$allocator@U_TransformStuffComponent@@@std@@QAE@XZ PROC NEAR ; std::allocator<_TransformStuffComponent>::allocator<_TransformStuffComponent>, COMDAT
; _this$ = ecx

; 111  : 	allocator()

  00000	8b c1		 mov	 eax, ecx

; 112  : 		{	// construct default allocator (do nothing)
; 113  : 		}

  00002	c3		 ret	 0
??0?$allocator@U_TransformStuffComponent@@@std@@QAE@XZ ENDP ; std::allocator<_TransformStuffComponent>::allocator<_TransformStuffComponent>
_TEXT	ENDS
PUBLIC	??8const_iterator@?$vector@U_TransformStuffComponent@@V?$allocator@U_TransformStuffComponent@@@std@@@std@@QBE_NABV012@@Z ; std::vector<_TransformStuffComponent,std::allocator<_TransformStuffComponent> >::const_iterator::operator==
; Function compile flags: /Ogty
; File c:\program files\microsoft visual studio .net 2003\vc7\include\vector
;	COMDAT ??8const_iterator@?$vector@U_TransformStuffComponent@@V?$allocator@U_TransformStuffComponent@@@std@@@std@@QBE_NABV012@@Z
_TEXT	SEGMENT
__Right$ = 8						; size = 4
??8const_iterator@?$vector@U_TransformStuffComponent@@V?$allocator@U_TransformStuffComponent@@@std@@@std@@QBE_NABV012@@Z PROC NEAR ; std::vector<_TransformStuffComponent,std::allocator<_TransformStuffComponent> >::const_iterator::operator==, COMDAT
; _this$ = ecx

; 153  : 
; 154  : 
; 155  : 			return (_Myptr == _Right._Myptr);

  00000	8b 01		 mov	 eax, DWORD PTR [ecx]
  00002	8b 4c 24 04	 mov	 ecx, DWORD PTR __Right$[esp-4]
  00006	2b 01		 sub	 eax, DWORD PTR [ecx]
  00008	f7 d8		 neg	 eax
  0000a	1b c0		 sbb	 eax, eax
  0000c	40		 inc	 eax

; 156  : 			}

  0000d	c2 04 00	 ret	 4
??8const_iterator@?$vector@U_TransformStuffComponent@@V?$allocator@U_TransformStuffComponent@@@std@@@std@@QBE_NABV012@@Z ENDP ; std::vector<_TransformStuffComponent,std::allocator<_TransformStuffComponent> >::const_iterator::operator==
_TEXT	ENDS
PUBLIC	??8const_iterator@?$vector@U_FEEDENERGY@@V?$allocator@U_FEEDENERGY@@@std@@@std@@QBE_NABV012@@Z ; std::vector<_FEEDENERGY,std::allocator<_FEEDENERGY> >::const_iterator::operator==
; Function compile flags: /Ogty
;	COMDAT ??8const_iterator@?$vector@U_FEEDENERGY@@V?$allocator@U_FEEDENERGY@@@std@@@std@@QBE_NABV012@@Z
_TEXT	SEGMENT
__Right$ = 8						; size = 4
??8const_iterator@?$vector@U_FEEDENERGY@@V?$allocator@U_FEEDENERGY@@@std@@@std@@QBE_NABV012@@Z PROC NEAR ; std::vector<_FEEDENERGY,std::allocator<_FEEDENERGY> >::const_iterator::operator==, COMDAT
; _this$ = ecx

; 153  : 
; 154  : 
; 155  : 			return (_Myptr == _Right._Myptr);

  00000	8b 01		 mov	 eax, DWORD PTR [ecx]
  00002	8b 4c 24 04	 mov	 ecx, DWORD PTR __Right$[esp-4]
  00006	2b 01		 sub	 eax, DWORD PTR [ecx]
  00008	f7 d8		 neg	 eax
  0000a	1b c0		 sbb	 eax, eax
  0000c	40		 inc	 eax

; 156  : 			}

  0000d	c2 04 00	 ret	 4
??8const_iterator@?$vector@U_FEEDENERGY@@V?$allocator@U_FEEDENERGY@@@std@@@std@@QBE_NABV012@@Z ENDP ; std::vector<_FEEDENERGY,std::allocator<_FEEDENERGY> >::const_iterator::operator==
_TEXT	ENDS
PUBLIC	?StringCompare@?$ChTraitsCRT@D@ATL@@SAHPBD0@Z	; ATL::ChTraitsCRT<char>::StringCompare
EXTRN	__mbscmp:NEAR
; Function compile flags: /Ogty
; File c:\program files\microsoft visual studio .net 2003\vc7\atlmfc\include\cstringt.h
;	COMDAT ?StringCompare@?$ChTraitsCRT@D@ATL@@SAHPBD0@Z
_TEXT	SEGMENT
_pszA$ = 8						; size = 4
_pszB$ = 12						; size = 4
?StringCompare@?$ChTraitsCRT@D@ATL@@SAHPBD0@Z PROC NEAR	; ATL::ChTraitsCRT<char>::StringCompare, COMDAT

; 336  : 		return _mbscmp( reinterpret_cast< const unsigned char* >( pszA ), reinterpret_cast< const unsigned char* >( pszB ) );

  00000	e9 00 00 00 00	 jmp	 __mbscmp
?StringCompare@?$ChTraitsCRT@D@ATL@@SAHPBD0@Z ENDP	; ATL::ChTraitsCRT<char>::StringCompare
_TEXT	ENDS
PUBLIC	??0?$allocator@G@std@@QAE@ABV01@@Z		; std::allocator<unsigned short>::allocator<unsigned short>
; Function compile flags: /Ogty
; File c:\program files\microsoft visual studio .net 2003\vc7\include\xmemory
;	COMDAT ??0?$allocator@G@std@@QAE@ABV01@@Z
_TEXT	SEGMENT
___formal$ = 8						; size = 4
??0?$allocator@G@std@@QAE@ABV01@@Z PROC NEAR		; std::allocator<unsigned short>::allocator<unsigned short>, COMDAT
; _this$ = ecx

; 115  : 	allocator(const allocator<_Ty>&)

  00000	8b c1		 mov	 eax, ecx

; 116  : 		{	// construct by copying (do nothing)
; 117  : 		}

  00002	c2 04 00	 ret	 4
??0?$allocator@G@std@@QAE@ABV01@@Z ENDP			; std::allocator<unsigned short>::allocator<unsigned short>
_TEXT	ENDS
PUBLIC	?deallocate@?$allocator@G@std@@QAEXPAGI@Z	; std::allocator<unsigned short>::deallocate
EXTRN	??3@YAXPAX@Z:NEAR				; operator delete
; Function compile flags: /Ogty
;	COMDAT ?deallocate@?$allocator@G@std@@QAEXPAGI@Z
_TEXT	SEGMENT
__Ptr$ = 8						; size = 4
___formal$ = 12						; size = 4
?deallocate@?$allocator@G@std@@QAEXPAGI@Z PROC NEAR	; std::allocator<unsigned short>::deallocate, COMDAT
; _this$ = ecx

; 132  : 		operator delete(_Ptr);

  00000	8b 44 24 04	 mov	 eax, DWORD PTR __Ptr$[esp-4]
  00004	50		 push	 eax
  00005	e8 00 00 00 00	 call	 ??3@YAXPAX@Z		; operator delete
  0000a	59		 pop	 ecx

; 133  : 		}

  0000b	c2 08 00	 ret	 8
?deallocate@?$allocator@G@std@@QAEXPAGI@Z ENDP		; std::allocator<unsigned short>::deallocate
_TEXT	ENDS
PUBLIC	??0?$allocator@U_FEEDENERGY@@@std@@QAE@ABV01@@Z	; std::allocator<_FEEDENERGY>::allocator<_FEEDENERGY>
; Function compile flags: /Ogty
;	COMDAT ??0?$allocator@U_FEEDENERGY@@@std@@QAE@ABV01@@Z
_TEXT	SEGMENT
___formal$ = 8						; size = 4
??0?$allocator@U_FEEDENERGY@@@std@@QAE@ABV01@@Z PROC NEAR ; std::allocator<_FEEDENERGY>::allocator<_FEEDENERGY>, COMDAT
; _this$ = ecx

; 115  : 	allocator(const allocator<_Ty>&)

  00000	8b c1		 mov	 eax, ecx

; 116  : 		{	// construct by copying (do nothing)
; 117  : 		}

  00002	c2 04 00	 ret	 4
??0?$allocator@U_FEEDENERGY@@@std@@QAE@ABV01@@Z ENDP	; std::allocator<_FEEDENERGY>::allocator<_FEEDENERGY>
_TEXT	ENDS
PUBLIC	?deallocate@?$allocator@U_FEEDENERGY@@@std@@QAEXPAU_FEEDENERGY@@I@Z ; std::allocator<_FEEDENERGY>::deallocate
; Function compile flags: /Ogty
;	COMDAT ?deallocate@?$allocator@U_FEEDENERGY@@@std@@QAEXPAU_FEEDENERGY@@I@Z
_TEXT	SEGMENT
__Ptr$ = 8						; size = 4
___formal$ = 12						; size = 4
?deallocate@?$allocator@U_FEEDENERGY@@@std@@QAEXPAU_FEEDENERGY@@I@Z PROC NEAR ; std::allocator<_FEEDENERGY>::deallocate, COMDAT
; _this$ = ecx

; 132  : 		operator delete(_Ptr);

  00000	8b 44 24 04	 mov	 eax, DWORD PTR __Ptr$[esp-4]
  00004	50		 push	 eax
  00005	e8 00 00 00 00	 call	 ??3@YAXPAX@Z		; operator delete
  0000a	59		 pop	 ecx

; 133  : 		}

  0000b	c2 08 00	 ret	 8
?deallocate@?$allocator@U_FEEDENERGY@@@std@@QAEXPAU_FEEDENERGY@@I@Z ENDP ; std::allocator<_FEEDENERGY>::deallocate
_TEXT	ENDS
PUBLIC	??0?$allocator@U_TransformStuffComponent@@@std@@QAE@ABV01@@Z ; std::allocator<_TransformStuffComponent>::allocator<_TransformStuffComponent>
; Function compile flags: /Ogty
;	COMDAT ??0?$allocator@U_TransformStuffComponent@@@std@@QAE@ABV01@@Z
_TEXT	SEGMENT
___formal$ = 8						; size = 4
??0?$allocator@U_TransformStuffComponent@@@std@@QAE@ABV01@@Z PROC NEAR ; std::allocator<_TransformStuffComponent>::allocator<_TransformStuffComponent>, COMDAT
; _this$ = ecx

; 115  : 	allocator(const allocator<_Ty>&)

  00000	8b c1		 mov	 eax, ecx

; 116  : 		{	// construct by copying (do nothing)
; 117  : 		}

  00002	c2 04 00	 ret	 4
??0?$allocator@U_TransformStuffComponent@@@std@@QAE@ABV01@@Z ENDP ; std::allocator<_TransformStuffComponent>::allocator<_TransformStuffComponent>
_TEXT	ENDS
PUBLIC	?deallocate@?$allocator@U_TransformStuffComponent@@@std@@QAEXPAU_TransformStuffComponent@@I@Z ; std::allocator<_TransformStuffComponent>::deallocate
; Function compile flags: /Ogty
;	COMDAT ?deallocate@?$allocator@U_TransformStuffComponent@@@std@@QAEXPAU_TransformStuffComponent@@I@Z
_TEXT	SEGMENT
__Ptr$ = 8						; size = 4
___formal$ = 12						; size = 4
?deallocate@?$allocator@U_TransformStuffComponent@@@std@@QAEXPAU_TransformStuffComponent@@I@Z PROC NEAR ; std::allocator<_TransformStuffComponent>::deallocate, COMDAT
; _this$ = ecx

; 132  : 		operator delete(_Ptr);

  00000	8b 44 24 04	 mov	 eax, DWORD PTR __Ptr$[esp-4]
  00004	50		 push	 eax
  00005	e8 00 00 00 00	 call	 ??3@YAXPAX@Z		; operator delete
  0000a	59		 pop	 ecx

; 133  : 		}

  0000b	c2 08 00	 ret	 8
?deallocate@?$allocator@U_TransformStuffComponent@@@std@@QAEXPAU_TransformStuffComponent@@I@Z ENDP ; std::allocator<_TransformStuffComponent>::deallocate
_TEXT	ENDS
PUBLIC	??0const_iterator@?$vector@U_FEEDENERGY@@V?$allocator@U_FEEDENERGY@@@std@@@std@@QAE@PAU_FEEDENERGY@@@Z ; std::vector<_FEEDENERGY,std::allocator<_FEEDENERGY> >::const_iterator::const_iterator
; Function compile flags: /Ogty
; File c:\program files\microsoft visual studio .net 2003\vc7\include\vector
;	COMDAT ??0const_iterator@?$vector@U_FEEDENERGY@@V?$allocator@U_FEEDENERGY@@@std@@@std@@QAE@PAU_FEEDENERGY@@@Z
_TEXT	SEGMENT
__Ptr$ = 8						; size = 4
??0const_iterator@?$vector@U_FEEDENERGY@@V?$allocator@U_FEEDENERGY@@@std@@@std@@QAE@PAU_FEEDENERGY@@@Z PROC NEAR ; std::vector<_FEEDENERGY,std::allocator<_FEEDENERGY> >::const_iterator::const_iterator, COMDAT
; _this$ = ecx

; 73   : 		const_iterator(_Tptr _Ptr)

  00000	8b c1		 mov	 eax, ecx

; 74   : 			{	// construct with pointer _Ptr
; 75   : 			_Myptr = _Ptr;

  00002	8b 4c 24 04	 mov	 ecx, DWORD PTR __Ptr$[esp-4]
  00006	89 08		 mov	 DWORD PTR [eax], ecx

; 76   : 			}

  00008	c2 04 00	 ret	 4
??0const_iterator@?$vector@U_FEEDENERGY@@V?$allocator@U_FEEDENERGY@@@std@@@std@@QAE@PAU_FEEDENERGY@@@Z ENDP ; std::vector<_FEEDENERGY,std::allocator<_FEEDENERGY> >::const_iterator::const_iterator
_TEXT	ENDS
PUBLIC	??Dconst_iterator@?$vector@U_FEEDENERGY@@V?$allocator@U_FEEDENERGY@@@std@@@std@@QBEABU_FEEDENERGY@@XZ ; std::vector<_FEEDENERGY,std::allocator<_FEEDENERGY> >::const_iterator::operator*
; Function compile flags: /Ogty
;	COMDAT ??Dconst_iterator@?$vector@U_FEEDENERGY@@V?$allocator@U_FEEDENERGY@@@std@@@std@@QBEABU_FEEDENERGY@@XZ
_TEXT	SEGMENT
??Dconst_iterator@?$vector@U_FEEDENERGY@@V?$allocator@U_FEEDENERGY@@@std@@@std@@QBEABU_FEEDENERGY@@XZ PROC NEAR ; std::vector<_FEEDENERGY,std::allocator<_FEEDENERGY> >::const_iterator::operator*, COMDAT
; _this$ = ecx

; 80   : 
; 81   : 
; 82   : 			return (*_Myptr);

  00000	8b 01		 mov	 eax, DWORD PTR [ecx]

; 83   : 			}

  00002	c3		 ret	 0
??Dconst_iterator@?$vector@U_FEEDENERGY@@V?$allocator@U_FEEDENERGY@@@std@@@std@@QBEABU_FEEDENERGY@@XZ ENDP ; std::vector<_FEEDENERGY,std::allocator<_FEEDENERGY> >::const_iterator::operator*
_TEXT	ENDS
PUBLIC	??Yiterator@?$vector@GV?$allocator@G@std@@@std@@QAEAAV012@H@Z ; std::vector<unsigned short,std::allocator<unsigned short> >::iterator::operator+=
; Function compile flags: /Ogty
;	COMDAT ??Yiterator@?$vector@GV?$allocator@G@std@@@std@@QAEAAV012@H@Z
_TEXT	SEGMENT
__Off$ = 8						; size = 4
??Yiterator@?$vector@GV?$allocator@G@std@@@std@@QAEAAV012@H@Z PROC NEAR ; std::vector<unsigned short,std::allocator<unsigned short> >::iterator::operator+=, COMDAT
; _this$ = ecx

; 255  : 			{	// increment by integer

  00000	8b c1		 mov	 eax, ecx

; 256  : 			this->_Myptr += _Off;

  00002	8b 4c 24 04	 mov	 ecx, DWORD PTR __Off$[esp-4]
  00006	8d 14 09	 lea	 edx, DWORD PTR [ecx+ecx]
  00009	01 10		 add	 DWORD PTR [eax], edx

; 257  : 			return (*this);
; 258  : 			}

  0000b	c2 04 00	 ret	 4
??Yiterator@?$vector@GV?$allocator@G@std@@@std@@QAEAAV012@H@Z ENDP ; std::vector<unsigned short,std::allocator<unsigned short> >::iterator::operator+=
_TEXT	ENDS
PUBLIC	??Dconst_iterator@?$vector@GV?$allocator@G@std@@@std@@QBEABGXZ ; std::vector<unsigned short,std::allocator<unsigned short> >::const_iterator::operator*
; Function compile flags: /Ogty
;	COMDAT ??Dconst_iterator@?$vector@GV?$allocator@G@std@@@std@@QBEABGXZ
_TEXT	SEGMENT
??Dconst_iterator@?$vector@GV?$allocator@G@std@@@std@@QBEABGXZ PROC NEAR ; std::vector<unsigned short,std::allocator<unsigned short> >::const_iterator::operator*, COMDAT
; _this$ = ecx

; 80   : 
; 81   : 
; 82   : 			return (*_Myptr);

  00000	8b 01		 mov	 eax, DWORD PTR [ecx]

; 83   : 			}

  00002	c3		 ret	 0
??Dconst_iterator@?$vector@GV?$allocator@G@std@@@std@@QBEABGXZ ENDP ; std::vector<unsigned short,std::allocator<unsigned short> >::const_iterator::operator*
_TEXT	ENDS
PUBLIC	?max_size@?$allocator@G@std@@QBEIXZ		; std::allocator<unsigned short>::max_size
; Function compile flags: /Ogty
; File c:\program files\microsoft visual studio .net 2003\vc7\include\xmemory
;	COMDAT ?max_size@?$allocator@G@std@@QBEIXZ
_TEXT	SEGMENT
?max_size@?$allocator@G@std@@QBEIXZ PROC NEAR		; std::allocator<unsigned short>::max_size, COMDAT
; _this$ = ecx

; 157  : 		_SIZT _Count = (_SIZT)(-1) / sizeof (_Ty);
; 158  : 		return (0 < _Count ? _Count : 1);

  00000	b8 ff ff ff 7f	 mov	 eax, 2147483647		; 7fffffffH

; 159  : 		}

  00005	c3		 ret	 0
?max_size@?$allocator@G@std@@QBEIXZ ENDP		; std::allocator<unsigned short>::max_size
_TEXT	ENDS
PUBLIC	?max_size@?$allocator@U_FEEDENERGY@@@std@@QBEIXZ ; std::allocator<_FEEDENERGY>::max_size
; Function compile flags: /Ogty
;	COMDAT ?max_size@?$allocator@U_FEEDENERGY@@@std@@QBEIXZ
_TEXT	SEGMENT
?max_size@?$allocator@U_FEEDENERGY@@@std@@QBEIXZ PROC NEAR ; std::allocator<_FEEDENERGY>::max_size, COMDAT
; _this$ = ecx

; 157  : 		_SIZT _Count = (_SIZT)(-1) / sizeof (_Ty);
; 158  : 		return (0 < _Count ? _Count : 1);

  00000	b8 55 55 55 15	 mov	 eax, 357913941		; 15555555H

; 159  : 		}

  00005	c3		 ret	 0
?max_size@?$allocator@U_FEEDENERGY@@@std@@QBEIXZ ENDP	; std::allocator<_FEEDENERGY>::max_size
_TEXT	ENDS
PUBLIC	?max_size@?$allocator@U_TransformStuffComponent@@@std@@QBEIXZ ; std::allocator<_TransformStuffComponent>::max_size
; Function compile flags: /Ogty
;	COMDAT ?max_size@?$allocator@U_TransformStuffComponent@@@std@@QBEIXZ
_TEXT	SEGMENT
?max_size@?$allocator@U_TransformStuffComponent@@@std@@QBEIXZ PROC NEAR ; std::allocator<_TransformStuffComponent>::max_size, COMDAT
; _this$ = ecx

; 157  : 		_SIZT _Count = (_SIZT)(-1) / sizeof (_Ty);
; 158  : 		return (0 < _Count ? _Count : 1);

  00000	b8 ff ff ff 1f	 mov	 eax, 536870911		; 1fffffffH

; 159  : 		}

  00005	c3		 ret	 0
?max_size@?$allocator@U_TransformStuffComponent@@@std@@QBEIXZ ENDP ; std::allocator<_TransformStuffComponent>::max_size
_TEXT	ENDS
PUBLIC	??Gconst_iterator@?$vector@U_TransformStuffComponent@@V?$allocator@U_TransformStuffComponent@@@std@@@std@@QBEHABV012@@Z ; std::vector<_TransformStuffComponent,std::allocator<_TransformStuffComponent> >::const_iterator::operator-
; Function compile flags: /Ogty
; File c:\program files\microsoft visual studio .net 2003\vc7\include\vector
;	COMDAT ??Gconst_iterator@?$vector@U_TransformStuffComponent@@V?$allocator@U_TransformStuffComponent@@@std@@@std@@QBEHABV012@@Z
_TEXT	SEGMENT
__Right$ = 8						; size = 4
??Gconst_iterator@?$vector@U_TransformStuffComponent@@V?$allocator@U_TransformStuffComponent@@@std@@@std@@QBEHABV012@@Z PROC NEAR ; std::vector<_TransformStuffComponent,std::allocator<_TransformStuffComponent> >::const_iterator::operator-, COMDAT
; _this$ = ecx

; 141  : 
; 142  : 
; 143  : 			return (_Myptr - _Right._Myptr);

  00000	8b 01		 mov	 eax, DWORD PTR [ecx]
  00002	8b 4c 24 04	 mov	 ecx, DWORD PTR __Right$[esp-4]
  00006	2b 01		 sub	 eax, DWORD PTR [ecx]
  00008	c1 f8 03	 sar	 eax, 3

; 144  : 			}

  0000b	c2 04 00	 ret	 4
??Gconst_iterator@?$vector@U_TransformStuffComponent@@V?$allocator@U_TransformStuffComponent@@@std@@@std@@QBEHABV012@@Z ENDP ; std::vector<_TransformStuffComponent,std::allocator<_TransformStuffComponent> >::const_iterator::operator-
_TEXT	ENDS
PUBLIC	??Yiterator@?$vector@U_FEEDENERGY@@V?$allocator@U_FEEDENERGY@@@std@@@std@@QAEAAV012@H@Z ; std::vector<_FEEDENERGY,std::allocator<_FEEDENERGY> >::iterator::operator+=
; Function compile flags: /Ogty
;	COMDAT ??Yiterator@?$vector@U_FEEDENERGY@@V?$allocator@U_FEEDENERGY@@@std@@@std@@QAEAAV012@H@Z
_TEXT	SEGMENT
__Off$ = 8						; size = 4
??Yiterator@?$vector@U_FEEDENERGY@@V?$allocator@U_FEEDENERGY@@@std@@@std@@QAEAAV012@H@Z PROC NEAR ; std::vector<_FEEDENERGY,std::allocator<_FEEDENERGY> >::iterator::operator+=, COMDAT
; _this$ = ecx

; 255  : 			{	// increment by integer

  00000	8b c1		 mov	 eax, ecx

; 256  : 			this->_Myptr += _Off;

  00002	8b 4c 24 04	 mov	 ecx, DWORD PTR __Off$[esp-4]
  00006	8b 10		 mov	 edx, DWORD PTR [eax]
  00008	8d 0c 49	 lea	 ecx, DWORD PTR [ecx+ecx*2]
  0000b	c1 e1 02	 shl	 ecx, 2
  0000e	03 d1		 add	 edx, ecx
  00010	89 10		 mov	 DWORD PTR [eax], edx

; 257  : 			return (*this);
; 258  : 			}

  00012	c2 04 00	 ret	 4
??Yiterator@?$vector@U_FEEDENERGY@@V?$allocator@U_FEEDENERGY@@@std@@@std@@QAEAAV012@H@Z ENDP ; std::vector<_FEEDENERGY,std::allocator<_FEEDENERGY> >::iterator::operator+=
_TEXT	ENDS
PUBLIC	??Gconst_iterator@?$vector@U_FEEDENERGY@@V?$allocator@U_FEEDENERGY@@@std@@@std@@QBEHABV012@@Z ; std::vector<_FEEDENERGY,std::allocator<_FEEDENERGY> >::const_iterator::operator-
; Function compile flags: /Ogty
;	COMDAT ??Gconst_iterator@?$vector@U_FEEDENERGY@@V?$allocator@U_FEEDENERGY@@@std@@@std@@QBEHABV012@@Z
_TEXT	SEGMENT
__Right$ = 8						; size = 4
??Gconst_iterator@?$vector@U_FEEDENERGY@@V?$allocator@U_FEEDENERGY@@@std@@@std@@QBEHABV012@@Z PROC NEAR ; std::vector<_FEEDENERGY,std::allocator<_FEEDENERGY> >::const_iterator::operator-, COMDAT
; _this$ = ecx

; 141  : 
; 142  : 
; 143  : 			return (_Myptr - _Right._Myptr);

  00000	8b 44 24 04	 mov	 eax, DWORD PTR __Right$[esp-4]
  00004	8b 10		 mov	 edx, DWORD PTR [eax]
  00006	8b 09		 mov	 ecx, DWORD PTR [ecx]
  00008	2b ca		 sub	 ecx, edx
  0000a	b8 ab aa aa 2a	 mov	 eax, 715827883		; 2aaaaaabH
  0000f	f7 e9		 imul	 ecx
  00011	d1 fa		 sar	 edx, 1
  00013	8b c2		 mov	 eax, edx
  00015	c1 e8 1f	 shr	 eax, 31			; 0000001fH
  00018	03 c2		 add	 eax, edx

; 144  : 			}

  0001a	c2 04 00	 ret	 4
??Gconst_iterator@?$vector@U_FEEDENERGY@@V?$allocator@U_FEEDENERGY@@@std@@@std@@QBEHABV012@@Z ENDP ; std::vector<_FEEDENERGY,std::allocator<_FEEDENERGY> >::const_iterator::operator-
_TEXT	ENDS
PUBLIC	??0const_iterator@?$vector@GV?$allocator@G@std@@@std@@QAE@PAG@Z ; std::vector<unsigned short,std::allocator<unsigned short> >::const_iterator::const_iterator
; Function compile flags: /Ogty
;	COMDAT ??0const_iterator@?$vector@GV?$allocator@G@std@@@std@@QAE@PAG@Z
_TEXT	SEGMENT
__Ptr$ = 8						; size = 4
??0const_iterator@?$vector@GV?$allocator@G@std@@@std@@QAE@PAG@Z PROC NEAR ; std::vector<unsigned short,std::allocator<unsigned short> >::const_iterator::const_iterator, COMDAT
; _this$ = ecx

; 73   : 		const_iterator(_Tptr _Ptr)

  00000	8b c1		 mov	 eax, ecx

; 74   : 			{	// construct with pointer _Ptr
; 75   : 			_Myptr = _Ptr;

  00002	8b 4c 24 04	 mov	 ecx, DWORD PTR __Ptr$[esp-4]
  00006	89 08		 mov	 DWORD PTR [eax], ecx

; 76   : 			}

  00008	c2 04 00	 ret	 4
??0const_iterator@?$vector@GV?$allocator@G@std@@@std@@QAE@PAG@Z ENDP ; std::vector<unsigned short,std::allocator<unsigned short> >::const_iterator::const_iterator
_TEXT	ENDS
PUBLIC	??Gconst_iterator@?$vector@GV?$allocator@G@std@@@std@@QBEHABV012@@Z ; std::vector<unsigned short,std::allocator<unsigned short> >::const_iterator::operator-
; Function compile flags: /Ogty
;	COMDAT ??Gconst_iterator@?$vector@GV?$allocator@G@std@@@std@@QBEHABV012@@Z
_TEXT	SEGMENT
__Right$ = 8						; size = 4
??Gconst_iterator@?$vector@GV?$allocator@G@std@@@std@@QBEHABV012@@Z PROC NEAR ; std::vector<unsigned short,std::allocator<unsigned short> >::const_iterator::operator-, COMDAT
; _this$ = ecx

; 141  : 
; 142  : 
; 143  : 			return (_Myptr - _Right._Myptr);

  00000	8b 01		 mov	 eax, DWORD PTR [ecx]
  00002	8b 4c 24 04	 mov	 ecx, DWORD PTR __Right$[esp-4]
  00006	2b 01		 sub	 eax, DWORD PTR [ecx]
  00008	d1 f8		 sar	 eax, 1

; 144  : 			}

  0000a	c2 04 00	 ret	 4
??Gconst_iterator@?$vector@GV?$allocator@G@std@@@std@@QBEHABV012@@Z ENDP ; std::vector<unsigned short,std::allocator<unsigned short> >::const_iterator::operator-
_TEXT	ENDS
PUBLIC	??$_Allocate@G@std@@YAPAGIPAG@Z			; std::_Allocate<unsigned short>
EXTRN	??2@YAPAXI@Z:NEAR				; operator new
; Function compile flags: /Ogty
; File c:\program files\microsoft visual studio .net 2003\vc7\include\xmemory
;	COMDAT ??$_Allocate@G@std@@YAPAGIPAG@Z
_TEXT	SEGMENT
__Count$ = 8						; size = 4
___formal$ = 12						; size = 4
??$_Allocate@G@std@@YAPAGIPAG@Z PROC NEAR		; std::_Allocate<unsigned short>, COMDAT

; 34   : 	return ((_Ty _FARQ *)operator new(_Count * sizeof (_Ty)));

  00000	8b 44 24 04	 mov	 eax, DWORD PTR __Count$[esp-4]
  00004	8d 0c 00	 lea	 ecx, DWORD PTR [eax+eax]
  00007	51		 push	 ecx
  00008	e8 00 00 00 00	 call	 ??2@YAPAXI@Z		; operator new
  0000d	83 c4 04	 add	 esp, 4

; 35   : 	}

  00010	c3		 ret	 0
??$_Allocate@G@std@@YAPAGIPAG@Z ENDP			; std::_Allocate<unsigned short>
_TEXT	ENDS
PUBLIC	??$fill@PAU_FEEDENERGY@@U1@@std@@YAXPAU_FEEDENERGY@@0ABU1@@Z ; std::fill<_FEEDENERGY *,_FEEDENERGY>
; Function compile flags: /Ogty
; File c:\program files\microsoft visual studio .net 2003\vc7\include\xutility
;	COMDAT ??$fill@PAU_FEEDENERGY@@U1@@std@@YAXPAU_FEEDENERGY@@0ABU1@@Z
_TEXT	SEGMENT
__First$ = 8						; size = 4
__Last$ = 12						; size = 4
__Val$ = 16						; size = 4
??$fill@PAU_FEEDENERGY@@U1@@std@@YAXPAU_FEEDENERGY@@0ABU1@@Z PROC NEAR ; std::fill<_FEEDENERGY *,_FEEDENERGY>, COMDAT

; 1135 : 	for (; _First != _Last; ++_First)

  00000	8b 44 24 04	 mov	 eax, DWORD PTR __First$[esp-4]
  00004	8b 4c 24 08	 mov	 ecx, DWORD PTR __Last$[esp-4]
  00008	3b c1		 cmp	 eax, ecx
  0000a	74 25		 je	 SHORT $L190852
  0000c	8b 54 24 0c	 mov	 edx, DWORD PTR __Val$[esp-4]
  00010	53		 push	 ebx
  00011	56		 push	 esi
  00012	57		 push	 edi
$L190850:

; 1136 : 		*_First = _Val;

  00013	8b f2		 mov	 esi, edx
  00015	8b 1e		 mov	 ebx, DWORD PTR [esi]
  00017	8b f8		 mov	 edi, eax
  00019	89 1f		 mov	 DWORD PTR [edi], ebx
  0001b	8b 5e 04	 mov	 ebx, DWORD PTR [esi+4]
  0001e	89 5f 04	 mov	 DWORD PTR [edi+4], ebx
  00021	8b 76 08	 mov	 esi, DWORD PTR [esi+8]
  00024	83 c0 0c	 add	 eax, 12			; 0000000cH
  00027	3b c1		 cmp	 eax, ecx
  00029	89 77 08	 mov	 DWORD PTR [edi+8], esi
  0002c	75 e5		 jne	 SHORT $L190850
  0002e	5f		 pop	 edi
  0002f	5e		 pop	 esi
  00030	5b		 pop	 ebx
$L190852:

; 1137 : 	}

  00031	c3		 ret	 0
??$fill@PAU_FEEDENERGY@@U1@@std@@YAXPAU_FEEDENERGY@@0ABU1@@Z ENDP ; std::fill<_FEEDENERGY *,_FEEDENERGY>
_TEXT	ENDS
PUBLIC	??$_Allocate@U_FEEDENERGY@@@std@@YAPAU_FEEDENERGY@@IPAU1@@Z ; std::_Allocate<_FEEDENERGY>
; Function compile flags: /Ogty
; File c:\program files\microsoft visual studio .net 2003\vc7\include\xmemory
;	COMDAT ??$_Allocate@U_FEEDENERGY@@@std@@YAPAU_FEEDENERGY@@IPAU1@@Z
_TEXT	SEGMENT
__Count$ = 8						; size = 4
___formal$ = 12						; size = 4
??$_Allocate@U_FEEDENERGY@@@std@@YAPAU_FEEDENERGY@@IPAU1@@Z PROC NEAR ; std::_Allocate<_FEEDENERGY>, COMDAT

; 34   : 	return ((_Ty _FARQ *)operator new(_Count * sizeof (_Ty)));

  00000	8b 44 24 04	 mov	 eax, DWORD PTR __Count$[esp-4]
  00004	8d 04 40	 lea	 eax, DWORD PTR [eax+eax*2]
  00007	c1 e0 02	 shl	 eax, 2
  0000a	50		 push	 eax
  0000b	e8 00 00 00 00	 call	 ??2@YAPAXI@Z		; operator new
  00010	83 c4 04	 add	 esp, 4

; 35   : 	}

  00013	c3		 ret	 0
??$_Allocate@U_FEEDENERGY@@@std@@YAPAU_FEEDENERGY@@IPAU1@@Z ENDP ; std::_Allocate<_FEEDENERGY>
_TEXT	ENDS
PUBLIC	??$fill@PAGG@std@@YAXPAG0ABG@Z			; std::fill<unsigned short *,unsigned short>
; Function compile flags: /Ogty
; File c:\program files\microsoft visual studio .net 2003\vc7\include\xutility
;	COMDAT ??$fill@PAGG@std@@YAXPAG0ABG@Z
_TEXT	SEGMENT
__First$ = 8						; size = 4
__Last$ = 12						; size = 4
__Val$ = 16						; size = 4
??$fill@PAGG@std@@YAXPAG0ABG@Z PROC NEAR		; std::fill<unsigned short *,unsigned short>, COMDAT

; 1135 : 	for (; _First != _Last; ++_First)

  00000	8b 44 24 04	 mov	 eax, DWORD PTR __First$[esp-4]
  00004	8b 4c 24 08	 mov	 ecx, DWORD PTR __Last$[esp-4]
  00008	3b c1		 cmp	 eax, ecx
  0000a	74 13		 je	 SHORT $L190906
  0000c	8b 54 24 0c	 mov	 edx, DWORD PTR __Val$[esp-4]
  00010	56		 push	 esi
$L190904:

; 1136 : 		*_First = _Val;

  00011	66 8b 32	 mov	 si, WORD PTR [edx]
  00014	66 89 30	 mov	 WORD PTR [eax], si
  00017	83 c0 02	 add	 eax, 2
  0001a	3b c1		 cmp	 eax, ecx
  0001c	75 f3		 jne	 SHORT $L190904
  0001e	5e		 pop	 esi
$L190906:

; 1137 : 	}

  0001f	c3		 ret	 0
??$fill@PAGG@std@@YAXPAG0ABG@Z ENDP			; std::fill<unsigned short *,unsigned short>
_TEXT	ENDS
PUBLIC	??$fill@PAU_TransformStuffComponent@@U1@@std@@YAXPAU_TransformStuffComponent@@0ABU1@@Z ; std::fill<_TransformStuffComponent *,_TransformStuffComponent>
; Function compile flags: /Ogty
;	COMDAT ??$fill@PAU_TransformStuffComponent@@U1@@std@@YAXPAU_TransformStuffComponent@@0ABU1@@Z
_TEXT	SEGMENT
__First$ = 8						; size = 4
__Last$ = 12						; size = 4
__Val$ = 16						; size = 4
??$fill@PAU_TransformStuffComponent@@U1@@std@@YAXPAU_TransformStuffComponent@@0ABU1@@Z PROC NEAR ; std::fill<_TransformStuffComponent *,_TransformStuffComponent>, COMDAT

; 1135 : 	for (; _First != _Last; ++_First)

  00000	8b 44 24 04	 mov	 eax, DWORD PTR __First$[esp-4]
  00004	8b 54 24 08	 mov	 edx, DWORD PTR __Last$[esp-4]
  00008	3b c2		 cmp	 eax, edx
  0000a	74 17		 je	 SHORT $L190957
  0000c	8b 4c 24 0c	 mov	 ecx, DWORD PTR __Val$[esp-4]
  00010	56		 push	 esi
$L190955:

; 1136 : 		*_First = _Val;

  00011	8b 31		 mov	 esi, DWORD PTR [ecx]
  00013	89 30		 mov	 DWORD PTR [eax], esi
  00015	8b 71 04	 mov	 esi, DWORD PTR [ecx+4]
  00018	89 70 04	 mov	 DWORD PTR [eax+4], esi
  0001b	83 c0 08	 add	 eax, 8
  0001e	3b c2		 cmp	 eax, edx
  00020	75 ef		 jne	 SHORT $L190955
  00022	5e		 pop	 esi
$L190957:

; 1137 : 	}

  00023	c3		 ret	 0
??$fill@PAU_TransformStuffComponent@@U1@@std@@YAXPAU_TransformStuffComponent@@0ABU1@@Z ENDP ; std::fill<_TransformStuffComponent *,_TransformStuffComponent>
_TEXT	ENDS
PUBLIC	??$_Allocate@U_TransformStuffComponent@@@std@@YAPAU_TransformStuffComponent@@IPAU1@@Z ; std::_Allocate<_TransformStuffComponent>
; Function compile flags: /Ogty
; File c:\program files\microsoft visual studio .net 2003\vc7\include\xmemory
;	COMDAT ??$_Allocate@U_TransformStuffComponent@@@std@@YAPAU_TransformStuffComponent@@IPAU1@@Z
_TEXT	SEGMENT
__Count$ = 8						; size = 4
___formal$ = 12						; size = 4
??$_Allocate@U_TransformStuffComponent@@@std@@YAPAU_TransformStuffComponent@@IPAU1@@Z PROC NEAR ; std::_Allocate<_TransformStuffComponent>, COMDAT

; 34   : 	return ((_Ty _FARQ *)operator new(_Count * sizeof (_Ty)));

  00000	8b 44 24 04	 mov	 eax, DWORD PTR __Count$[esp-4]
  00004	8d 0c c5 00 00
	00 00		 lea	 ecx, DWORD PTR [eax*8]
  0000b	51		 push	 ecx
  0000c	e8 00 00 00 00	 call	 ??2@YAPAXI@Z		; operator new
  00011	83 c4 04	 add	 esp, 4

; 35   : 	}

  00014	c3		 ret	 0
??$_Allocate@U_TransformStuffComponent@@@std@@YAPAU_TransformStuffComponent@@IPAU1@@Z ENDP ; std::_Allocate<_TransformStuffComponent>
_TEXT	ENDS
PUBLIC	??$_Ptr_cat@PAU_FEEDENERGY@@PAU1@@std@@YA?AU_Nonscalar_ptr_iterator_tag@0@AAPAU_FEEDENERGY@@0@Z ; std::_Ptr_cat<_FEEDENERGY *,_FEEDENERGY *>
; Function compile flags: /Ogty
; File c:\program files\microsoft visual studio .net 2003\vc7\include\xutility
;	COMDAT ??$_Ptr_cat@PAU_FEEDENERGY@@PAU1@@std@@YA?AU_Nonscalar_ptr_iterator_tag@0@AAPAU_FEEDENERGY@@0@Z
_TEXT	SEGMENT
__Cat$ = -1						; size = 1
___formal$ = 8						; size = 4
___formal$ = 12						; size = 4
??$_Ptr_cat@PAU_FEEDENERGY@@PAU1@@std@@YA?AU_Nonscalar_ptr_iterator_tag@0@AAPAU_FEEDENERGY@@0@Z PROC NEAR ; std::_Ptr_cat<_FEEDENERGY *,_FEEDENERGY *>, COMDAT

; 211  : 	{	// return pointer category from arbitrary arguments

  00000	51		 push	 ecx

; 212  : 	_Nonscalar_ptr_iterator_tag _Cat;
; 213  : 	return (_Cat);

  00001	8a 44 24 03	 mov	 al, BYTE PTR __Cat$[esp+4]

; 214  : 	}

  00005	59		 pop	 ecx
  00006	c3		 ret	 0
??$_Ptr_cat@PAU_FEEDENERGY@@PAU1@@std@@YA?AU_Nonscalar_ptr_iterator_tag@0@AAPAU_FEEDENERGY@@0@Z ENDP ; std::_Ptr_cat<_FEEDENERGY *,_FEEDENERGY *>
_TEXT	ENDS
PUBLIC	??$_Ptr_cat@PAU_TransformStuffComponent@@PAU1@@std@@YA?AU_Nonscalar_ptr_iterator_tag@0@AAPAU_TransformStuffComponent@@0@Z ; std::_Ptr_cat<_TransformStuffComponent *,_TransformStuffComponent *>
; Function compile flags: /Ogty
;	COMDAT ??$_Ptr_cat@PAU_TransformStuffComponent@@PAU1@@std@@YA?AU_Nonscalar_ptr_iterator_tag@0@AAPAU_TransformStuffComponent@@0@Z
_TEXT	SEGMENT
__Cat$ = -1						; size = 1
___formal$ = 8						; size = 4
___formal$ = 12						; size = 4
??$_Ptr_cat@PAU_TransformStuffComponent@@PAU1@@std@@YA?AU_Nonscalar_ptr_iterator_tag@0@AAPAU_TransformStuffComponent@@0@Z PROC NEAR ; std::_Ptr_cat<_TransformStuffComponent *,_TransformStuffComponent *>, COMDAT

; 211  : 	{	// return pointer category from arbitrary arguments

  00000	51		 push	 ecx

; 212  : 	_Nonscalar_ptr_iterator_tag _Cat;
; 213  : 	return (_Cat);

  00001	8a 44 24 03	 mov	 al, BYTE PTR __Cat$[esp+4]

; 214  : 	}

  00005	59		 pop	 ecx
  00006	c3		 ret	 0
??$_Ptr_cat@PAU_TransformStuffComponent@@PAU1@@std@@YA?AU_Nonscalar_ptr_iterator_tag@0@AAPAU_TransformStuffComponent@@0@Z ENDP ; std::_Ptr_cat<_TransformStuffComponent *,_TransformStuffComponent *>
_TEXT	ENDS
PUBLIC	??$_Copy_backward_opt@PAU_FEEDENERGY@@PAU1@@std@@YAPAU_FEEDENERGY@@PAU1@00U_Nonscalar_ptr_iterator_tag@0@@Z ; std::_Copy_backward_opt<_FEEDENERGY *,_FEEDENERGY *>
; Function compile flags: /Ogty
;	COMDAT ??$_Copy_backward_opt@PAU_FEEDENERGY@@PAU1@@std@@YAPAU_FEEDENERGY@@PAU1@00U_Nonscalar_ptr_iterator_tag@0@@Z
_TEXT	SEGMENT
__First$ = 8						; size = 4
__Last$ = 12						; size = 4
__Dest$ = 16						; size = 4
___formal$ = 20						; size = 1
??$_Copy_backward_opt@PAU_FEEDENERGY@@PAU1@@std@@YAPAU_FEEDENERGY@@PAU1@00U_Nonscalar_ptr_iterator_tag@0@@Z PROC NEAR ; std::_Copy_backward_opt<_FEEDENERGY *,_FEEDENERGY *>, COMDAT

; 1049 : 	while (_First != _Last)

  00000	8b 54 24 04	 mov	 edx, DWORD PTR __First$[esp-4]
  00004	8b 4c 24 08	 mov	 ecx, DWORD PTR __Last$[esp-4]
  00008	3b d1		 cmp	 edx, ecx
  0000a	8b 44 24 0c	 mov	 eax, DWORD PTR __Dest$[esp-4]
  0000e	74 24		 je	 SHORT $L191071
  00010	53		 push	 ebx
  00011	56		 push	 esi
  00012	57		 push	 edi
$L191070:

; 1050 : 		*--_Dest = *--_Last;

  00013	83 e9 0c	 sub	 ecx, 12			; 0000000cH
  00016	83 e8 0c	 sub	 eax, 12			; 0000000cH
  00019	3b ca		 cmp	 ecx, edx
  0001b	8b f1		 mov	 esi, ecx
  0001d	8b 1e		 mov	 ebx, DWORD PTR [esi]
  0001f	8b f8		 mov	 edi, eax
  00021	89 1f		 mov	 DWORD PTR [edi], ebx
  00023	8b 5e 04	 mov	 ebx, DWORD PTR [esi+4]
  00026	89 5f 04	 mov	 DWORD PTR [edi+4], ebx
  00029	8b 76 08	 mov	 esi, DWORD PTR [esi+8]
  0002c	89 77 08	 mov	 DWORD PTR [edi+8], esi
  0002f	75 e2		 jne	 SHORT $L191070
  00031	5f		 pop	 edi
  00032	5e		 pop	 esi
  00033	5b		 pop	 ebx
$L191071:

; 1051 : 	return (_Dest);
; 1052 : 	}

  00034	c3		 ret	 0
??$_Copy_backward_opt@PAU_FEEDENERGY@@PAU1@@std@@YAPAU_FEEDENERGY@@PAU1@00U_Nonscalar_ptr_iterator_tag@0@@Z ENDP ; std::_Copy_backward_opt<_FEEDENERGY *,_FEEDENERGY *>
_TEXT	ENDS
PUBLIC	??$_Destroy_range@GV?$allocator@G@std@@@std@@YAXPAG0AAV?$allocator@G@0@U_Scalar_ptr_iterator_tag@0@@Z ; std::_Destroy_range<unsigned short,std::allocator<unsigned short> >
; Function compile flags: /Ogty
; File c:\program files\microsoft visual studio .net 2003\vc7\include\xmemory
;	COMDAT ??$_Destroy_range@GV?$allocator@G@std@@@std@@YAXPAG0AAV?$allocator@G@0@U_Scalar_ptr_iterator_tag@0@@Z
_TEXT	SEGMENT
__First$ = 8						; size = 4
__Last$ = 12						; size = 4
__Al$ = 16						; size = 4
___formal$ = 20						; size = 1
??$_Destroy_range@GV?$allocator@G@std@@@std@@YAXPAG0AAV?$allocator@G@0@U_Scalar_ptr_iterator_tag@0@@Z PROC NEAR ; std::_Destroy_range<unsigned short,std::allocator<unsigned short> >, COMDAT

; 234  : 	}

  00000	c3		 ret	 0
??$_Destroy_range@GV?$allocator@G@std@@@std@@YAXPAG0AAV?$allocator@G@0@U_Scalar_ptr_iterator_tag@0@@Z ENDP ; std::_Destroy_range<unsigned short,std::allocator<unsigned short> >
_TEXT	ENDS
PUBLIC	??$_Copy_backward_opt@PAGPAG@std@@YAPAGPAG00U_Scalar_ptr_iterator_tag@0@@Z ; std::_Copy_backward_opt<unsigned short *,unsigned short *>
EXTRN	_memmove:NEAR
; Function compile flags: /Ogty
; File c:\program files\microsoft visual studio .net 2003\vc7\include\xutility
;	COMDAT ??$_Copy_backward_opt@PAGPAG@std@@YAPAGPAG00U_Scalar_ptr_iterator_tag@0@@Z
_TEXT	SEGMENT
__First$ = 8						; size = 4
__Last$ = 12						; size = 4
__Dest$ = 16						; size = 4
___formal$ = 20						; size = 1
??$_Copy_backward_opt@PAGPAG@std@@YAPAGPAG00U_Scalar_ptr_iterator_tag@0@@Z PROC NEAR ; std::_Copy_backward_opt<unsigned short *,unsigned short *>, COMDAT

; 1059 : 	ptrdiff_t _Off = _Last - _First;	// NB: non-overlapping move

  00000	8b 4c 24 04	 mov	 ecx, DWORD PTR __First$[esp-4]
  00004	8b 44 24 08	 mov	 eax, DWORD PTR __Last$[esp-4]
  00008	2b c1		 sub	 eax, ecx
  0000a	d1 f8		 sar	 eax, 1

; 1060 : 	return ((_OutIt)memmove(&*_Dest - _Off, &*_First,
; 1061 : 		_Off * sizeof (*_First)));

  0000c	03 c0		 add	 eax, eax
  0000e	50		 push	 eax
  0000f	51		 push	 ecx
  00010	8b 4c 24 14	 mov	 ecx, DWORD PTR __Dest$[esp+4]
  00014	2b c8		 sub	 ecx, eax
  00016	51		 push	 ecx
  00017	e8 00 00 00 00	 call	 _memmove
  0001c	83 c4 0c	 add	 esp, 12			; 0000000cH

; 1062 : 	}

  0001f	c3		 ret	 0
??$_Copy_backward_opt@PAGPAG@std@@YAPAGPAG00U_Scalar_ptr_iterator_tag@0@@Z ENDP ; std::_Copy_backward_opt<unsigned short *,unsigned short *>
_TEXT	ENDS
PUBLIC	??$_Copy_backward_opt@PAU_TransformStuffComponent@@PAU1@@std@@YAPAU_TransformStuffComponent@@PAU1@00U_Nonscalar_ptr_iterator_tag@0@@Z ; std::_Copy_backward_opt<_TransformStuffComponent *,_TransformStuffComponent *>
; Function compile flags: /Ogty
;	COMDAT ??$_Copy_backward_opt@PAU_TransformStuffComponent@@PAU1@@std@@YAPAU_TransformStuffComponent@@PAU1@00U_Nonscalar_ptr_iterator_tag@0@@Z
_TEXT	SEGMENT
__First$ = 8						; size = 4
__Last$ = 12						; size = 4
__Dest$ = 16						; size = 4
___formal$ = 20						; size = 1
??$_Copy_backward_opt@PAU_TransformStuffComponent@@PAU1@@std@@YAPAU_TransformStuffComponent@@PAU1@00U_Nonscalar_ptr_iterator_tag@0@@Z PROC NEAR ; std::_Copy_backward_opt<_TransformStuffComponent *,_TransformStuffComponent *>, COMDAT

; 1049 : 	while (_First != _Last)

  00000	8b 54 24 04	 mov	 edx, DWORD PTR __First$[esp-4]
  00004	8b 4c 24 08	 mov	 ecx, DWORD PTR __Last$[esp-4]
  00008	3b d1		 cmp	 edx, ecx
  0000a	8b 44 24 0c	 mov	 eax, DWORD PTR __Dest$[esp-4]
  0000e	74 17		 je	 SHORT $L191163
  00010	56		 push	 esi
$L191162:

; 1050 : 		*--_Dest = *--_Last;

  00011	8b 71 f8	 mov	 esi, DWORD PTR [ecx-8]
  00014	83 e9 08	 sub	 ecx, 8
  00017	83 e8 08	 sub	 eax, 8
  0001a	3b ca		 cmp	 ecx, edx
  0001c	89 30		 mov	 DWORD PTR [eax], esi
  0001e	8b 71 04	 mov	 esi, DWORD PTR [ecx+4]
  00021	89 70 04	 mov	 DWORD PTR [eax+4], esi
  00024	75 eb		 jne	 SHORT $L191162
  00026	5e		 pop	 esi
$L191163:

; 1051 : 	return (_Dest);
; 1052 : 	}

  00027	c3		 ret	 0
??$_Copy_backward_opt@PAU_TransformStuffComponent@@PAU1@@std@@YAPAU_TransformStuffComponent@@PAU1@00U_Nonscalar_ptr_iterator_tag@0@@Z ENDP ; std::_Copy_backward_opt<_TransformStuffComponent *,_TransformStuffComponent *>
_TEXT	ENDS
PUBLIC	??$fill_n@PAGIG@std@@YAXPAGIABG@Z		; std::fill_n<unsigned short *,unsigned int,unsigned short>
; Function compile flags: /Ogty
;	COMDAT ??$fill_n@PAGIG@std@@YAXPAGIABG@Z
_TEXT	SEGMENT
__First$ = 8						; size = 4
__Count$ = 12						; size = 4
__Val$ = 16						; size = 4
??$fill_n@PAGIG@std@@YAXPAGIABG@Z PROC NEAR		; std::fill_n<unsigned short *,unsigned int,unsigned short>, COMDAT

; 1160 : 	for (; 0 < _Count; --_Count, ++_First)

  00000	8b 4c 24 08	 mov	 ecx, DWORD PTR __Count$[esp-4]
  00004	85 c9		 test	 ecx, ecx
  00006	76 16		 jbe	 SHORT $L191196
  00008	8b 54 24 0c	 mov	 edx, DWORD PTR __Val$[esp-4]
  0000c	8b 44 24 04	 mov	 eax, DWORD PTR __First$[esp-4]
  00010	56		 push	 esi
$L191194:

; 1161 : 		*_First = _Val;

  00011	66 8b 32	 mov	 si, WORD PTR [edx]
  00014	66 89 30	 mov	 WORD PTR [eax], si
  00017	83 c0 02	 add	 eax, 2
  0001a	49		 dec	 ecx
  0001b	75 f4		 jne	 SHORT $L191194
  0001d	5e		 pop	 esi
$L191196:

; 1162 : 	}

  0001e	c3		 ret	 0
??$fill_n@PAGIG@std@@YAXPAGIABG@Z ENDP			; std::fill_n<unsigned short *,unsigned int,unsigned short>
_TEXT	ENDS
PUBLIC	??$_Uninit_copy@GG@std@@YAPAGPAG00AAV?$allocator@G@0@U_Scalar_ptr_iterator_tag@0@@Z ; std::_Uninit_copy<unsigned short,unsigned short>
; Function compile flags: /Ogty
; File c:\program files\microsoft visual studio .net 2003\vc7\include\memory
;	COMDAT ??$_Uninit_copy@GG@std@@YAPAGPAG00AAV?$allocator@G@0@U_Scalar_ptr_iterator_tag@0@@Z
_TEXT	SEGMENT
__First$ = 8						; size = 4
__Last$ = 12						; size = 4
__Dest$ = 16						; size = 4
___formal$ = 20						; size = 4
___formal$ = 24						; size = 1
??$_Uninit_copy@GG@std@@YAPAGPAG00AAV?$allocator@G@0@U_Scalar_ptr_iterator_tag@0@@Z PROC NEAR ; std::_Uninit_copy<unsigned short,unsigned short>, COMDAT

; 106  : 	size_t _Count = (size_t)(_Last - _First);

  00000	8b 4c 24 04	 mov	 ecx, DWORD PTR __First$[esp-4]
  00004	8b 44 24 08	 mov	 eax, DWORD PTR __Last$[esp-4]
  00008	2b c1		 sub	 eax, ecx
  0000a	56		 push	 esi
  0000b	d1 f8		 sar	 eax, 1

; 107  : 	return ((_Ty2 *)memmove(&*_Dest, &*_First,
; 108  : 		_Count * sizeof (*_First)) + _Count);	// NB: non-overlapping move

  0000d	8d 34 00	 lea	 esi, DWORD PTR [eax+eax]
  00010	8b 44 24 10	 mov	 eax, DWORD PTR __Dest$[esp]
  00014	56		 push	 esi
  00015	51		 push	 ecx
  00016	50		 push	 eax
  00017	e8 00 00 00 00	 call	 _memmove
  0001c	83 c4 0c	 add	 esp, 12			; 0000000cH
  0001f	03 c6		 add	 eax, esi
  00021	5e		 pop	 esi

; 109  : 	}

  00022	c3		 ret	 0
??$_Uninit_copy@GG@std@@YAPAGPAG00AAV?$allocator@G@0@U_Scalar_ptr_iterator_tag@0@@Z ENDP ; std::_Uninit_copy<unsigned short,unsigned short>
_TEXT	ENDS
PUBLIC	??$_Construct@U_FEEDENERGY@@U1@@std@@YAXPAU_FEEDENERGY@@ABU1@@Z ; std::_Construct<_FEEDENERGY,_FEEDENERGY>
; Function compile flags: /Ogty
; File c:\program files\microsoft visual studio .net 2003\vc7\include\xmemory
;	COMDAT ??$_Construct@U_FEEDENERGY@@U1@@std@@YAXPAU_FEEDENERGY@@ABU1@@Z
_TEXT	SEGMENT
__Ptr$ = 8						; size = 4
__Val$ = 12						; size = 4
??$_Construct@U_FEEDENERGY@@U1@@std@@YAXPAU_FEEDENERGY@@ABU1@@Z PROC NEAR ; std::_Construct<_FEEDENERGY,_FEEDENERGY>, COMDAT

; 42   : 	new ((void _FARQ *)_Ptr) _T1(_Val);

  00000	8b 44 24 04	 mov	 eax, DWORD PTR __Ptr$[esp-4]
  00004	85 c0		 test	 eax, eax
  00006	74 14		 je	 SHORT $L191697
  00008	8b 4c 24 08	 mov	 ecx, DWORD PTR __Val$[esp-4]
  0000c	8b 11		 mov	 edx, DWORD PTR [ecx]
  0000e	89 10		 mov	 DWORD PTR [eax], edx
  00010	8b 51 04	 mov	 edx, DWORD PTR [ecx+4]
  00013	89 50 04	 mov	 DWORD PTR [eax+4], edx
  00016	8b 49 08	 mov	 ecx, DWORD PTR [ecx+8]
  00019	89 48 08	 mov	 DWORD PTR [eax+8], ecx
$L191697:

; 43   : 	}

  0001c	c3		 ret	 0
??$_Construct@U_FEEDENERGY@@U1@@std@@YAXPAU_FEEDENERGY@@ABU1@@Z ENDP ; std::_Construct<_FEEDENERGY,_FEEDENERGY>
_TEXT	ENDS
PUBLIC	??$_Destroy@U_FEEDENERGY@@@std@@YAXPAU_FEEDENERGY@@@Z ; std::_Destroy<_FEEDENERGY>
; Function compile flags: /Ogty
;	COMDAT ??$_Destroy@U_FEEDENERGY@@@std@@YAXPAU_FEEDENERGY@@@Z
_TEXT	SEGMENT
__Ptr$ = 8						; size = 4
??$_Destroy@U_FEEDENERGY@@@std@@YAXPAU_FEEDENERGY@@@Z PROC NEAR ; std::_Destroy<_FEEDENERGY>, COMDAT

; 49   : 	_DESTRUCTOR(_Ty, _Ptr);
; 50   : 	}

  00000	c3		 ret	 0
??$_Destroy@U_FEEDENERGY@@@std@@YAXPAU_FEEDENERGY@@@Z ENDP ; std::_Destroy<_FEEDENERGY>
_TEXT	ENDS
PUBLIC	??$_Construct@U_TransformStuffComponent@@U1@@std@@YAXPAU_TransformStuffComponent@@ABU1@@Z ; std::_Construct<_TransformStuffComponent,_TransformStuffComponent>
; Function compile flags: /Ogty
;	COMDAT ??$_Construct@U_TransformStuffComponent@@U1@@std@@YAXPAU_TransformStuffComponent@@ABU1@@Z
_TEXT	SEGMENT
__Ptr$ = 8						; size = 4
__Val$ = 12						; size = 4
??$_Construct@U_TransformStuffComponent@@U1@@std@@YAXPAU_TransformStuffComponent@@ABU1@@Z PROC NEAR ; std::_Construct<_TransformStuffComponent,_TransformStuffComponent>, COMDAT

; 42   : 	new ((void _FARQ *)_Ptr) _T1(_Val);

  00000	8b 44 24 04	 mov	 eax, DWORD PTR __Ptr$[esp-4]
  00004	85 c0		 test	 eax, eax
  00006	74 0e		 je	 SHORT $L191707
  00008	8b 4c 24 08	 mov	 ecx, DWORD PTR __Val$[esp-4]
  0000c	8b 11		 mov	 edx, DWORD PTR [ecx]
  0000e	89 10		 mov	 DWORD PTR [eax], edx
  00010	8b 49 04	 mov	 ecx, DWORD PTR [ecx+4]
  00013	89 48 04	 mov	 DWORD PTR [eax+4], ecx
$L191707:

; 43   : 	}

  00016	c3		 ret	 0
??$_Construct@U_TransformStuffComponent@@U1@@std@@YAXPAU_TransformStuffComponent@@ABU1@@Z ENDP ; std::_Construct<_TransformStuffComponent,_TransformStuffComponent>
_TEXT	ENDS
PUBLIC	??$_Destroy@U_TransformStuffComponent@@@std@@YAXPAU_TransformStuffComponent@@@Z ; std::_Destroy<_TransformStuffComponent>
; Function compile flags: /Ogty
;	COMDAT ??$_Destroy@U_TransformStuffComponent@@@std@@YAXPAU_TransformStuffComponent@@@Z
_TEXT	SEGMENT
__Ptr$ = 8						; size = 4
??$_Destroy@U_TransformStuffComponent@@@std@@YAXPAU_TransformStuffComponent@@@Z PROC NEAR ; std::_Destroy<_TransformStuffComponent>, COMDAT

; 49   : 	_DESTRUCTOR(_Ty, _Ptr);
; 50   : 	}

  00000	c3		 ret	 0
??$_Destroy@U_TransformStuffComponent@@@std@@YAXPAU_TransformStuffComponent@@@Z ENDP ; std::_Destroy<_TransformStuffComponent>
_TEXT	ENDS
PUBLIC	?assign@?$char_traits@D@std@@SAXAADABD@Z	; std::char_traits<char>::assign
; Function compile flags: /Ogty
; File c:\program files\microsoft visual studio .net 2003\vc7\include\iosfwd
;	COMDAT ?assign@?$char_traits@D@std@@SAXAADABD@Z
_TEXT	SEGMENT
__Left$ = 8						; size = 4
__Right$ = 12						; size = 4
?assign@?$char_traits@D@std@@SAXAADABD@Z PROC NEAR	; std::char_traits<char>::assign, COMDAT

; 331  : 		_Left = _Right;

  00000	8b 44 24 08	 mov	 eax, DWORD PTR __Right$[esp-4]
  00004	8a 08		 mov	 cl, BYTE PTR [eax]
  00006	8b 54 24 04	 mov	 edx, DWORD PTR __Left$[esp-4]
  0000a	88 0a		 mov	 BYTE PTR [edx], cl

; 332  : 		}

  0000c	c3		 ret	 0
?assign@?$char_traits@D@std@@SAXAADABD@Z ENDP		; std::char_traits<char>::assign
_TEXT	ENDS
PUBLIC	?length@?$char_traits@D@std@@SAIPBD@Z		; std::char_traits<char>::length
; Function compile flags: /Ogty
;	COMDAT ?length@?$char_traits@D@std@@SAIPBD@Z
_TEXT	SEGMENT
__First$ = 8						; size = 4
?length@?$char_traits@D@std@@SAIPBD@Z PROC NEAR		; std::char_traits<char>::length, COMDAT

; 352  : 		return (::strlen(_First));

  00000	8b 44 24 04	 mov	 eax, DWORD PTR __First$[esp-4]
  00004	8d 50 01	 lea	 edx, DWORD PTR [eax+1]
$L191718:
  00007	8a 08		 mov	 cl, BYTE PTR [eax]
  00009	40		 inc	 eax
  0000a	84 c9		 test	 cl, cl
  0000c	75 f9		 jne	 SHORT $L191718
  0000e	2b c2		 sub	 eax, edx

; 353  : 		}

  00010	c3		 ret	 0
?length@?$char_traits@D@std@@SAIPBD@Z ENDP		; std::char_traits<char>::length
_TEXT	ENDS
PUBLIC	?copy@?$char_traits@D@std@@SAPADPADPBDI@Z	; std::char_traits<char>::copy
; Function compile flags: /Ogty
;	COMDAT ?copy@?$char_traits@D@std@@SAPADPADPBDI@Z
_TEXT	SEGMENT
__First1$ = 8						; size = 4
__First2$ = 12						; size = 4
__Count$ = 16						; size = 4
?copy@?$char_traits@D@std@@SAPADPADPBDI@Z PROC NEAR	; std::char_traits<char>::copy, COMDAT

; 358  : 		return ((_Elem *)::memcpy(_First1, _First2, _Count));

  00000	8b 4c 24 0c	 mov	 ecx, DWORD PTR __Count$[esp-4]
  00004	56		 push	 esi
  00005	8b 74 24 0c	 mov	 esi, DWORD PTR __First2$[esp]
  00009	57		 push	 edi
  0000a	8b 7c 24 0c	 mov	 edi, DWORD PTR __First1$[esp+4]
  0000e	8b c1		 mov	 eax, ecx
  00010	8b d7		 mov	 edx, edi
  00012	c1 e9 02	 shr	 ecx, 2
  00015	f3 a5		 rep movsd
  00017	8b c8		 mov	 ecx, eax
  00019	83 e1 03	 and	 ecx, 3
  0001c	f3 a4		 rep movsb
  0001e	5f		 pop	 edi
  0001f	8b c2		 mov	 eax, edx
  00021	5e		 pop	 esi

; 359  : 		}

  00022	c3		 ret	 0
?copy@?$char_traits@D@std@@SAPADPADPBDI@Z ENDP		; std::char_traits<char>::copy
_TEXT	ENDS
PUBLIC	?move@?$char_traits@D@std@@SAPADPADPBDI@Z	; std::char_traits<char>::move
; Function compile flags: /Ogty
;	COMDAT ?move@?$char_traits@D@std@@SAPADPADPBDI@Z
_TEXT	SEGMENT
__First1$ = 8						; size = 4
__First2$ = 12						; size = 4
__Count$ = 16						; size = 4
?move@?$char_traits@D@std@@SAPADPADPBDI@Z PROC NEAR	; std::char_traits<char>::move, COMDAT

; 370  : 		return ((_Elem *)::memmove(_First1, _First2, _Count));

  00000	e9 00 00 00 00	 jmp	 _memmove
?move@?$char_traits@D@std@@SAPADPADPBDI@Z ENDP		; std::char_traits<char>::move
_TEXT	ENDS
PUBLIC	?_Ptr_cat@std@@YA?AU_Scalar_ptr_iterator_tag@1@PAG0@Z ; std::_Ptr_cat
; Function compile flags: /Ogty
; File c:\program files\microsoft visual studio .net 2003\vc7\include\xutility
;	COMDAT ?_Ptr_cat@std@@YA?AU_Scalar_ptr_iterator_tag@1@PAG0@Z
_TEXT	SEGMENT
__Cat$ = -1						; size = 1
___formal$ = 8						; size = 4
___formal$ = 12						; size = 4
?_Ptr_cat@std@@YA?AU_Scalar_ptr_iterator_tag@1@PAG0@Z PROC NEAR ; std::_Ptr_cat, COMDAT

; 322  : 	{	// return pointer category from pointer to unsigned short arguments

  00000	51		 push	 ecx

; 323  : 	_Scalar_ptr_iterator_tag _Cat;
; 324  : 	return (_Cat);

  00001	8a 44 24 03	 mov	 al, BYTE PTR __Cat$[esp+4]

; 325  : 	}

  00005	59		 pop	 ecx
  00006	c3		 ret	 0
?_Ptr_cat@std@@YA?AU_Scalar_ptr_iterator_tag@1@PAG0@Z ENDP ; std::_Ptr_cat
_TEXT	ENDS
PUBLIC	?IsStoring@CAr@@QBEHXZ				; CAr::IsStoring
; Function compile flags: /Ogty
; File c:\documents and settings\test\mes documents\source\virtuos_v17\build\program\_network\misc\include\ar.h
;	COMDAT ?IsStoring@CAr@@QBEHXZ
_TEXT	SEGMENT
?IsStoring@CAr@@QBEHXZ PROC NEAR			; CAr::IsStoring, COMDAT
; _this$ = ecx

; 96   : 	{ return (m_nMode & CAr::load) == 0; }

  00000	33 c0		 xor	 eax, eax
  00002	8a 01		 mov	 al, BYTE PTR [ecx]
  00004	f7 d0		 not	 eax
  00006	83 e0 01	 and	 eax, 1
  00009	c3		 ret	 0
?IsStoring@CAr@@QBEHXZ ENDP				; CAr::IsStoring
_TEXT	ENDS
PUBLIC	??6CAr@@QAEAAV0@E@Z				; CAr::operator<<
EXTRN	?CheckBuf@CAr@@QAEXI@Z:NEAR			; CAr::CheckBuf
; Function compile flags: /Ogty
;	COMDAT ??6CAr@@QAEAAV0@E@Z
_TEXT	SEGMENT
_by$ = 8						; size = 1
??6CAr@@QAEAAV0@E@Z PROC NEAR				; CAr::operator<<, COMDAT
; _this$ = ecx

; 107  : 	{ CheckBuf( sizeof(BYTE) );

  00000	56		 push	 esi
  00001	6a 01		 push	 1
  00003	8b f1		 mov	 esi, ecx
  00005	e8 00 00 00 00	 call	 ?CheckBuf@CAr@@QAEXI@Z	; CAr::CheckBuf

; 108  : 		*(UNALIGNED BYTE*)m_lpBufCur = by; m_lpBufCur += sizeof(BYTE); return *this; }

  0000a	8b 46 08	 mov	 eax, DWORD PTR [esi+8]
  0000d	8a 4c 24 08	 mov	 cl, BYTE PTR _by$[esp]
  00011	88 08		 mov	 BYTE PTR [eax], cl
  00013	ff 46 08	 inc	 DWORD PTR [esi+8]
  00016	8b c6		 mov	 eax, esi
  00018	5e		 pop	 esi
  00019	c2 04 00	 ret	 4
??6CAr@@QAEAAV0@E@Z ENDP				; CAr::operator<<
_TEXT	ENDS
PUBLIC	??6CAr@@QAEAAV0@G@Z				; CAr::operator<<
; Function compile flags: /Ogty
;	COMDAT ??6CAr@@QAEAAV0@G@Z
_TEXT	SEGMENT
_w$ = 8							; size = 2
??6CAr@@QAEAAV0@G@Z PROC NEAR				; CAr::operator<<, COMDAT
; _this$ = ecx

; 110  : 	{ CheckBuf( sizeof( WORD ) );

  00000	56		 push	 esi
  00001	6a 02		 push	 2
  00003	8b f1		 mov	 esi, ecx
  00005	e8 00 00 00 00	 call	 ?CheckBuf@CAr@@QAEXI@Z	; CAr::CheckBuf

; 111  : 		*(UNALIGNED WORD*)m_lpBufCur = w; m_lpBufCur += sizeof(WORD); return *this; }

  0000a	8b 46 08	 mov	 eax, DWORD PTR [esi+8]
  0000d	66 8b 4c 24 08	 mov	 cx, WORD PTR _w$[esp]
  00012	66 89 08	 mov	 WORD PTR [eax], cx
  00015	83 46 08 02	 add	 DWORD PTR [esi+8], 2
  00019	8b c6		 mov	 eax, esi
  0001b	5e		 pop	 esi
  0001c	c2 04 00	 ret	 4
??6CAr@@QAEAAV0@G@Z ENDP				; CAr::operator<<
_TEXT	ENDS
PUBLIC	??6CAr@@QAEAAV0@J@Z				; CAr::operator<<
; Function compile flags: /Ogty
;	COMDAT ??6CAr@@QAEAAV0@J@Z
_TEXT	SEGMENT
_l$ = 8							; size = 4
??6CAr@@QAEAAV0@J@Z PROC NEAR				; CAr::operator<<, COMDAT
; _this$ = ecx

; 113  : 	{ CheckBuf( sizeof(LONG) );

  00000	56		 push	 esi
  00001	6a 04		 push	 4
  00003	8b f1		 mov	 esi, ecx
  00005	e8 00 00 00 00	 call	 ?CheckBuf@CAr@@QAEXI@Z	; CAr::CheckBuf

; 114  : 		*(UNALIGNED LONG*)m_lpBufCur = l; m_lpBufCur += sizeof(LONG); return *this; }

  0000a	8b 46 08	 mov	 eax, DWORD PTR [esi+8]
  0000d	8b 4c 24 08	 mov	 ecx, DWORD PTR _l$[esp]
  00011	89 08		 mov	 DWORD PTR [eax], ecx
  00013	83 46 08 04	 add	 DWORD PTR [esi+8], 4
  00017	8b c6		 mov	 eax, esi
  00019	5e		 pop	 esi
  0001a	c2 04 00	 ret	 4
??6CAr@@QAEAAV0@J@Z ENDP				; CAr::operator<<
_TEXT	ENDS
PUBLIC	??6CAr@@QAEAAV0@K@Z				; CAr::operator<<
; Function compile flags: /Ogty
;	COMDAT ??6CAr@@QAEAAV0@K@Z
_TEXT	SEGMENT
_dw$ = 8						; size = 4
??6CAr@@QAEAAV0@K@Z PROC NEAR				; CAr::operator<<, COMDAT
; _this$ = ecx

; 116  : 	{ CheckBuf( sizeof(DWORD) );

  00000	56		 push	 esi
  00001	6a 04		 push	 4
  00003	8b f1		 mov	 esi, ecx
  00005	e8 00 00 00 00	 call	 ?CheckBuf@CAr@@QAEXI@Z	; CAr::CheckBuf

; 117  : 		*(UNALIGNED DWORD*)m_lpBufCur = dw; m_lpBufCur += sizeof(DWORD); return *this; }

  0000a	8b 46 08	 mov	 eax, DWORD PTR [esi+8]
  0000d	8b 4c 24 08	 mov	 ecx, DWORD PTR _dw$[esp]
  00011	89 08		 mov	 DWORD PTR [eax], ecx
  00013	83 46 08 04	 add	 DWORD PTR [esi+8], 4
  00017	8b c6		 mov	 eax, esi
  00019	5e		 pop	 esi
  0001a	c2 04 00	 ret	 4
??6CAr@@QAEAAV0@K@Z ENDP				; CAr::operator<<
_TEXT	ENDS
PUBLIC	??5CAr@@QAEAAV0@AAE@Z				; CAr::operator>>
; Function compile flags: /Ogty
;	COMDAT ??5CAr@@QAEAAV0@AAE@Z
_TEXT	SEGMENT
_by$ = 8						; size = 4
??5CAr@@QAEAAV0@AAE@Z PROC NEAR				; CAr::operator>>, COMDAT
; _this$ = ecx

; 142  : 	{	CAR_SAFE_READ( BYTE, by );	}

  00000	8b c1		 mov	 eax, ecx
  00002	8b 48 08	 mov	 ecx, DWORD PTR [eax+8]
  00005	56		 push	 esi
  00006	8b 70 0c	 mov	 esi, DWORD PTR [eax+12]
  00009	8d 51 01	 lea	 edx, DWORD PTR [ecx+1]
  0000c	3b d6		 cmp	 edx, esi
  0000e	5e		 pop	 esi
  0000f	77 0e		 ja	 SHORT $L162848
  00011	8a 09		 mov	 cl, BYTE PTR [ecx]
  00013	8b 54 24 04	 mov	 edx, DWORD PTR _by$[esp-4]
  00017	88 0a		 mov	 BYTE PTR [edx], cl
  00019	ff 40 08	 inc	 DWORD PTR [eax+8]
  0001c	c2 04 00	 ret	 4
$L162848:
  0001f	8b 4c 24 04	 mov	 ecx, DWORD PTR _by$[esp-4]
  00023	c6 01 00	 mov	 BYTE PTR [ecx], 0
  00026	8b 50 0c	 mov	 edx, DWORD PTR [eax+12]
  00029	89 50 08	 mov	 DWORD PTR [eax+8], edx
  0002c	c2 04 00	 ret	 4
??5CAr@@QAEAAV0@AAE@Z ENDP				; CAr::operator>>
_TEXT	ENDS
PUBLIC	??5CAr@@QAEAAV0@AAG@Z				; CAr::operator>>
; Function compile flags: /Ogty
;	COMDAT ??5CAr@@QAEAAV0@AAG@Z
_TEXT	SEGMENT
_w$ = 8							; size = 4
??5CAr@@QAEAAV0@AAG@Z PROC NEAR				; CAr::operator>>, COMDAT
; _this$ = ecx

; 144  : 	{	CAR_SAFE_READ( WORD, w );	}

  00000	8b c1		 mov	 eax, ecx
  00002	8b 48 08	 mov	 ecx, DWORD PTR [eax+8]
  00005	56		 push	 esi
  00006	8b 70 0c	 mov	 esi, DWORD PTR [eax+12]
  00009	8d 51 02	 lea	 edx, DWORD PTR [ecx+2]
  0000c	3b d6		 cmp	 edx, esi
  0000e	5e		 pop	 esi
  0000f	77 11		 ja	 SHORT $L162858
  00011	66 8b 09	 mov	 cx, WORD PTR [ecx]
  00014	8b 54 24 04	 mov	 edx, DWORD PTR _w$[esp-4]
  00018	66 89 0a	 mov	 WORD PTR [edx], cx
  0001b	83 40 08 02	 add	 DWORD PTR [eax+8], 2
  0001f	c2 04 00	 ret	 4
$L162858:
  00022	8b 4c 24 04	 mov	 ecx, DWORD PTR _w$[esp-4]
  00026	66 c7 01 00 00	 mov	 WORD PTR [ecx], 0
  0002b	8b 50 0c	 mov	 edx, DWORD PTR [eax+12]
  0002e	89 50 08	 mov	 DWORD PTR [eax+8], edx
  00031	c2 04 00	 ret	 4
??5CAr@@QAEAAV0@AAG@Z ENDP				; CAr::operator>>
_TEXT	ENDS
PUBLIC	??5CAr@@QAEAAV0@AAK@Z				; CAr::operator>>
; Function compile flags: /Ogty
;	COMDAT ??5CAr@@QAEAAV0@AAK@Z
_TEXT	SEGMENT
_dw$ = 8						; size = 4
??5CAr@@QAEAAV0@AAK@Z PROC NEAR				; CAr::operator>>, COMDAT
; _this$ = ecx

; 146  : 	{	CAR_SAFE_READ( DWORD, dw );	}

  00000	8b c1		 mov	 eax, ecx
  00002	8b 48 08	 mov	 ecx, DWORD PTR [eax+8]
  00005	56		 push	 esi
  00006	8b 70 0c	 mov	 esi, DWORD PTR [eax+12]
  00009	8d 51 04	 lea	 edx, DWORD PTR [ecx+4]
  0000c	3b d6		 cmp	 edx, esi
  0000e	5e		 pop	 esi
  0000f	77 0f		 ja	 SHORT $L162868
  00011	8b 09		 mov	 ecx, DWORD PTR [ecx]
  00013	8b 54 24 04	 mov	 edx, DWORD PTR _dw$[esp-4]
  00017	89 0a		 mov	 DWORD PTR [edx], ecx
  00019	83 40 08 04	 add	 DWORD PTR [eax+8], 4
  0001d	c2 04 00	 ret	 4
$L162868:
  00020	8b 4c 24 04	 mov	 ecx, DWORD PTR _dw$[esp-4]
  00024	c7 01 00 00 00
	00		 mov	 DWORD PTR [ecx], 0
  0002a	8b 50 0c	 mov	 edx, DWORD PTR [eax+12]
  0002d	89 50 08	 mov	 DWORD PTR [eax+8], edx
  00030	c2 04 00	 ret	 4
??5CAr@@QAEAAV0@AAK@Z ENDP				; CAr::operator>>
_TEXT	ENDS
PUBLIC	??5CAr@@QAEAAV0@AAJ@Z				; CAr::operator>>
; Function compile flags: /Ogty
;	COMDAT ??5CAr@@QAEAAV0@AAJ@Z
_TEXT	SEGMENT
_l$ = 8							; size = 4
??5CAr@@QAEAAV0@AAJ@Z PROC NEAR				; CAr::operator>>, COMDAT
; _this$ = ecx

; 152  : 	{	CAR_SAFE_READ( LONG, l );	}

  00000	8b c1		 mov	 eax, ecx
  00002	8b 48 08	 mov	 ecx, DWORD PTR [eax+8]
  00005	56		 push	 esi
  00006	8b 70 0c	 mov	 esi, DWORD PTR [eax+12]
  00009	8d 51 04	 lea	 edx, DWORD PTR [ecx+4]
  0000c	3b d6		 cmp	 edx, esi
  0000e	5e		 pop	 esi
  0000f	77 0f		 ja	 SHORT $L162898
  00011	8b 09		 mov	 ecx, DWORD PTR [ecx]
  00013	8b 54 24 04	 mov	 edx, DWORD PTR _l$[esp-4]
  00017	89 0a		 mov	 DWORD PTR [edx], ecx
  00019	83 40 08 04	 add	 DWORD PTR [eax+8], 4
  0001d	c2 04 00	 ret	 4
$L162898:
  00020	8b 4c 24 04	 mov	 ecx, DWORD PTR _l$[esp-4]
  00024	c7 01 00 00 00
	00		 mov	 DWORD PTR [ecx], 0
  0002a	8b 50 0c	 mov	 edx, DWORD PTR [eax+12]
  0002d	89 50 08	 mov	 DWORD PTR [eax+8], edx
  00030	c2 04 00	 ret	 4
??5CAr@@QAEAAV0@AAJ@Z ENDP				; CAr::operator>>
_TEXT	ENDS
PUBLIC	??0_PETPENALTY@@QAE@XZ				; _PETPENALTY::_PETPENALTY
EXTRN	__fltused:NEAR
; Function compile flags: /Ogty
; File c:\documents and settings\test\mes documents\source\virtuos_v17\build\program\_common\pet.h
;	COMDAT ??0_PETPENALTY@@QAE@XZ
_TEXT	SEGMENT
??0_PETPENALTY@@QAE@XZ PROC NEAR			; _PETPENALTY::_PETPENALTY, COMDAT
; _this$ = ecx

; 39   : 	_PETPENALTY()

  00000	8b c1		 mov	 eax, ecx

; 40   : 	{
; 41   : 		fExp	= 0.0f;

  00002	c7 00 00 00 00
	00		 mov	 DWORD PTR [eax], 0

; 42   : 		wEnergy	= 0;

  00008	66 c7 40 04 00
	00		 mov	 WORD PTR [eax+4], 0

; 43   : 	}

  0000e	c3		 ret	 0
??0_PETPENALTY@@QAE@XZ ENDP				; _PETPENALTY::_PETPENALTY
_TEXT	ENDS
PUBLIC	?GetKind@CPet@@QAEEXZ				; CPet::GetKind
; Function compile flags: /Ogty
;	COMDAT ?GetKind@CPet@@QAEEXZ
_TEXT	SEGMENT
?GetKind@CPet@@QAEEXZ PROC NEAR				; CPet::GetKind, COMDAT
; _this$ = ecx

; 132  : 	BYTE	GetKind( void )	{	return m_nKind;	}

  00000	8a 41 04	 mov	 al, BYTE PTR [ecx+4]
  00003	c3		 ret	 0
?GetKind@CPet@@QAEEXZ ENDP				; CPet::GetKind
_TEXT	ENDS
PUBLIC	?GetLevel@CPet@@QAEEXZ				; CPet::GetLevel
; Function compile flags: /Ogty
;	COMDAT ?GetLevel@CPet@@QAEEXZ
_TEXT	SEGMENT
?GetLevel@CPet@@QAEEXZ PROC NEAR			; CPet::GetLevel, COMDAT
; _this$ = ecx

; 134  : 	BYTE	GetLevel( void )	{	return m_nLevel;	}

  00000	8a 41 05	 mov	 al, BYTE PTR [ecx+5]
  00003	c3		 ret	 0
?GetLevel@CPet@@QAEEXZ ENDP				; CPet::GetLevel
_TEXT	ENDS
PUBLIC	?GetExp@CPet@@QAEKXZ				; CPet::GetExp
; Function compile flags: /Ogty
;	COMDAT ?GetExp@CPet@@QAEKXZ
_TEXT	SEGMENT
?GetExp@CPet@@QAEKXZ PROC NEAR				; CPet::GetExp, COMDAT
; _this$ = ecx

; 137  : 	DWORD	GetExp( void )	{	return m_dwExp;		}

  00000	8b 41 08	 mov	 eax, DWORD PTR [ecx+8]
  00003	c3		 ret	 0
?GetExp@CPet@@QAEKXZ ENDP				; CPet::GetExp
_TEXT	ENDS
PUBLIC	?SetLife@CPet@@QAEXG@Z				; CPet::SetLife
; Function compile flags: /Ogty
;	COMDAT ?SetLife@CPet@@QAEXG@Z
_TEXT	SEGMENT
_wLife$ = 8						; size = 2
?SetLife@CPet@@QAEXG@Z PROC NEAR			; CPet::SetLife, COMDAT
; _this$ = ecx

; 140  : 	void	SetLife( WORD wLife )	{	m_wLife	= wLife;	}

  00000	66 8b 44 24 04	 mov	 ax, WORD PTR _wLife$[esp-4]
  00005	66 89 41 0e	 mov	 WORD PTR [ecx+14], ax
  00009	c2 04 00	 ret	 4
?SetLife@CPet@@QAEXG@Z ENDP				; CPet::SetLife
_TEXT	ENDS
PUBLIC	?GetEnergy@CPet@@QAEGXZ				; CPet::GetEnergy
; Function compile flags: /Ogty
;	COMDAT ?GetEnergy@CPet@@QAEGXZ
_TEXT	SEGMENT
?GetEnergy@CPet@@QAEGXZ PROC NEAR			; CPet::GetEnergy, COMDAT
; _this$ = ecx

; 141  : 	WORD	GetEnergy( void )	{	return m_wEnergy;	}

  00000	66 8b 41 0c	 mov	 ax, WORD PTR [ecx+12]
  00004	c3		 ret	 0
?GetEnergy@CPet@@QAEGXZ ENDP				; CPet::GetEnergy
_TEXT	ENDS
PUBLIC	?GetMaxExp@CPet@@QAEHXZ				; CPet::GetMaxExp
; Function compile flags: /Ogty
;	COMDAT ?GetMaxExp@CPet@@QAEHXZ
_TEXT	SEGMENT
?GetMaxExp@CPet@@QAEHXZ PROC NEAR			; CPet::GetMaxExp, COMDAT
; _this$ = ecx

; 146  : 	int		GetMaxExp( void )	{	return ( m_nLevel == PL_EGG? MAX_PET_EGG_EXP: MAX_PET_EXP );	}

  00000	8a 41 05	 mov	 al, BYTE PTR [ecx+5]
  00003	f6 d8		 neg	 al
  00005	1b c0		 sbb	 eax, eax
  00007	25 50 c3 00 00	 and	 eax, 50000		; 0000c350H
  0000c	05 50 c3 00 00	 add	 eax, 50000		; 0000c350H
  00011	c3		 ret	 0
?GetMaxExp@CPet@@QAEHXZ ENDP				; CPet::GetMaxExp
_TEXT	ENDS
PUBLIC	?GetName@CPet@@QAEPBDXZ				; CPet::GetName
; Function compile flags: /Ogty
;	COMDAT ?GetName@CPet@@QAEPBDXZ
_TEXT	SEGMENT
?GetName@CPet@@QAEPBDXZ PROC NEAR			; CPet::GetName, COMDAT
; _this$ = ecx

; 149  : 	const char*	GetName()	{	return m_szName;	}

  00000	8d 41 16	 lea	 eax, DWORD PTR [ecx+22]
  00003	c3		 ret	 0
?GetName@CPet@@QAEPBDXZ ENDP				; CPet::GetName
_TEXT	ENDS
PUBLIC	??0_TransformStuffComponent@@QAE@XZ		; _TransformStuffComponent::_TransformStuffComponent
; Function compile flags: /Ogty
;	COMDAT ??0_TransformStuffComponent@@QAE@XZ
_TEXT	SEGMENT
??0_TransformStuffComponent@@QAE@XZ PROC NEAR		; _TransformStuffComponent::_TransformStuffComponent, COMDAT
; _this$ = ecx

; 210  : 	_TransformStuffComponent()

  00000	8b c1		 mov	 eax, ecx

; 211  : 	{
; 212  : 		nItem	= 0;

  00002	c7 00 00 00 00
	00		 mov	 DWORD PTR [eax], 0

; 213  : 		nNum	= 0;

  00008	66 c7 40 04 00
	00		 mov	 WORD PTR [eax+4], 0

; 214  : 	}

  0000e	c3		 ret	 0
??0_TransformStuffComponent@@QAE@XZ ENDP		; _TransformStuffComponent::_TransformStuffComponent
_TEXT	ENDS
PUBLIC	??0_TransformStuffComponent@@QAE@HF@Z		; _TransformStuffComponent::_TransformStuffComponent
; Function compile flags: /Ogty
;	COMDAT ??0_TransformStuffComponent@@QAE@HF@Z
_TEXT	SEGMENT
_nItem$ = 8						; size = 4
_nNum$ = 12						; size = 2
??0_TransformStuffComponent@@QAE@HF@Z PROC NEAR		; _TransformStuffComponent::_TransformStuffComponent, COMDAT
; _this$ = ecx

; 216  : 	{
; 217  : 		this->nItem	= nItem;
; 218  : 		this->nNum	= nNum;

  00000	66 8b 54 24 08	 mov	 dx, WORD PTR _nNum$[esp-4]
  00005	8b c1		 mov	 eax, ecx
  00007	8b 4c 24 04	 mov	 ecx, DWORD PTR _nItem$[esp-4]
  0000b	89 08		 mov	 DWORD PTR [eax], ecx
  0000d	66 89 50 04	 mov	 WORD PTR [eax+4], dx

; 219  : 	}

  00011	c2 08 00	 ret	 8
??0_TransformStuffComponent@@QAE@HF@Z ENDP		; _TransformStuffComponent::_TransformStuffComponent
_TEXT	ENDS
PUBLIC	?size@?$basic_string@DU?$char_traits@D@std@@V?$allocator@D@2@@std@@QBEIXZ ; std::basic_string<char,std::char_traits<char>,std::allocator<char> >::size
; Function compile flags: /Ogty
; File c:\program files\microsoft visual studio .net 2003\vc7\include\xstring
;	COMDAT ?size@?$basic_string@DU?$char_traits@D@std@@V?$allocator@D@2@@std@@QBEIXZ
_TEXT	SEGMENT
?size@?$basic_string@DU?$char_traits@D@std@@V?$allocator@D@2@@std@@QBEIXZ PROC NEAR ; std::basic_string<char,std::char_traits<char>,std::allocator<char> >::size, COMDAT
; _this$ = ecx

; 1109 : 		return (_Mysize);

  00000	8b 41 14	 mov	 eax, DWORD PTR [ecx+20]

; 1110 : 		}

  00003	c3		 ret	 0
?size@?$basic_string@DU?$char_traits@D@std@@V?$allocator@D@2@@std@@QBEIXZ ENDP ; std::basic_string<char,std::char_traits<char>,std::allocator<char> >::size
_TEXT	ENDS
PUBLIC	?size@?$vector@U_TransformStuffComponent@@V?$allocator@U_TransformStuffComponent@@@std@@@std@@QBEIXZ ; std::vector<_TransformStuffComponent,std::allocator<_TransformStuffComponent> >::size
; Function compile flags: /Ogty
; File c:\program files\microsoft visual studio .net 2003\vc7\include\vector
;	COMDAT ?size@?$vector@U_TransformStuffComponent@@V?$allocator@U_TransformStuffComponent@@@std@@@std@@QBEIXZ
_TEXT	SEGMENT
?size@?$vector@U_TransformStuffComponent@@V?$allocator@U_TransformStuffComponent@@@std@@@std@@QBEIXZ PROC NEAR ; std::vector<_TransformStuffComponent,std::allocator<_TransformStuffComponent> >::size, COMDAT
; _this$ = ecx

; 516  : 		return (_Myfirst == 0 ? 0 : _Mylast - _Myfirst);

  00000	8b 51 04	 mov	 edx, DWORD PTR [ecx+4]
  00003	85 d2		 test	 edx, edx
  00005	75 03		 jne	 SHORT $L191769
  00007	33 c0		 xor	 eax, eax

; 517  : 		}

  00009	c3		 ret	 0
$L191769:

; 516  : 		return (_Myfirst == 0 ? 0 : _Mylast - _Myfirst);

  0000a	8b 41 08	 mov	 eax, DWORD PTR [ecx+8]
  0000d	2b c2		 sub	 eax, edx
  0000f	c1 f8 03	 sar	 eax, 3

; 517  : 		}

  00012	c3		 ret	 0
?size@?$vector@U_TransformStuffComponent@@V?$allocator@U_TransformStuffComponent@@@std@@@std@@QBEIXZ ENDP ; std::vector<_TransformStuffComponent,std::allocator<_TransformStuffComponent> >::size
_TEXT	ENDS
PUBLIC	?GetString@?$CSimpleStringT@D$0A@@ATL@@QBEPBDXZ	; ATL::CSimpleStringT<char,0>::GetString
; Function compile flags: /Ogty
; File c:\program files\microsoft visual studio .net 2003\vc7\atlmfc\include\atlsimpstr.h
;	COMDAT ?GetString@?$CSimpleStringT@D$0A@@ATL@@QBEPBDXZ
_TEXT	SEGMENT
?GetString@?$CSimpleStringT@D$0A@@ATL@@QBEPBDXZ PROC NEAR ; ATL::CSimpleStringT<char,0>::GetString, COMDAT
; _this$ = ecx

; 510  : 		return( m_pszData );

  00000	8b 01		 mov	 eax, DWORD PTR [ecx]

; 511  : 	}

  00002	c3		 ret	 0
?GetString@?$CSimpleStringT@D$0A@@ATL@@QBEPBDXZ ENDP	; ATL::CSimpleStringT<char,0>::GetString
_TEXT	ENDS
PUBLIC	?_Myptr@?$basic_string@DU?$char_traits@D@std@@V?$allocator@D@2@@std@@QBEPBDXZ ; std::basic_string<char,std::char_traits<char>,std::allocator<char> >::_Myptr
; Function compile flags: /Ogty
; File c:\program files\microsoft visual studio .net 2003\vc7\include\xstring
;	COMDAT ?_Myptr@?$basic_string@DU?$char_traits@D@std@@V?$allocator@D@2@@std@@QBEPBDXZ
_TEXT	SEGMENT
?_Myptr@?$basic_string@DU?$char_traits@D@std@@V?$allocator@D@2@@std@@QBEPBDXZ PROC NEAR ; std::basic_string<char,std::char_traits<char>,std::allocator<char> >::_Myptr, COMDAT
; _this$ = ecx

; 1537 : 		return (_BUF_SIZE <= _Myres ? _Bx._Ptr : _Bx._Buf);

  00000	83 79 18 10	 cmp	 DWORD PTR [ecx+24], 16	; 00000010H
  00004	72 04		 jb	 SHORT $L191775
  00006	8b 41 04	 mov	 eax, DWORD PTR [ecx+4]

; 1538 : 		}

  00009	c3		 ret	 0
$L191775:

; 1537 : 		return (_BUF_SIZE <= _Myres ? _Bx._Ptr : _Bx._Buf);

  0000a	8d 41 04	 lea	 eax, DWORD PTR [ecx+4]

; 1538 : 		}

  0000d	c3		 ret	 0
?_Myptr@?$basic_string@DU?$char_traits@D@std@@V?$allocator@D@2@@std@@QBEPBDXZ ENDP ; std::basic_string<char,std::char_traits<char>,std::allocator<char> >::_Myptr
_TEXT	ENDS
PUBLIC	??0?$allocator@D@std@@QAE@XZ			; std::allocator<char>::allocator<char>
; Function compile flags: /Ogty
; File c:\program files\microsoft visual studio .net 2003\vc7\include\xmemory
;	COMDAT ??0?$allocator@D@std@@QAE@XZ
_TEXT	SEGMENT
??0?$allocator@D@std@@QAE@XZ PROC NEAR			; std::allocator<char>::allocator<char>, COMDAT
; _this$ = ecx

; 111  : 	allocator()

  00000	8b c1		 mov	 eax, ecx

; 112  : 		{	// construct default allocator (do nothing)
; 113  : 		}

  00002	c3		 ret	 0
??0?$allocator@D@std@@QAE@XZ ENDP			; std::allocator<char>::allocator<char>
_TEXT	ENDS
PUBLIC	??0?$allocator@D@std@@QAE@ABV01@@Z		; std::allocator<char>::allocator<char>
; Function compile flags: /Ogty
;	COMDAT ??0?$allocator@D@std@@QAE@ABV01@@Z
_TEXT	SEGMENT
___formal$ = 8						; size = 4
??0?$allocator@D@std@@QAE@ABV01@@Z PROC NEAR		; std::allocator<char>::allocator<char>, COMDAT
; _this$ = ecx

; 115  : 	allocator(const allocator<_Ty>&)

  00000	8b c1		 mov	 eax, ecx

; 116  : 		{	// construct by copying (do nothing)
; 117  : 		}

  00002	c2 04 00	 ret	 4
??0?$allocator@D@std@@QAE@ABV01@@Z ENDP			; std::allocator<char>::allocator<char>
_TEXT	ENDS
PUBLIC	?_Myptr@?$basic_string@DU?$char_traits@D@std@@V?$allocator@D@2@@std@@QAEPADXZ ; std::basic_string<char,std::char_traits<char>,std::allocator<char> >::_Myptr
; Function compile flags: /Ogty
; File c:\program files\microsoft visual studio .net 2003\vc7\include\xstring
;	COMDAT ?_Myptr@?$basic_string@DU?$char_traits@D@std@@V?$allocator@D@2@@std@@QAEPADXZ
_TEXT	SEGMENT
?_Myptr@?$basic_string@DU?$char_traits@D@std@@V?$allocator@D@2@@std@@QAEPADXZ PROC NEAR ; std::basic_string<char,std::char_traits<char>,std::allocator<char> >::_Myptr, COMDAT
; _this$ = ecx

; 1532 : 		return (_BUF_SIZE <= _Myres ? _Bx._Ptr : _Bx._Buf);

  00000	83 79 18 10	 cmp	 DWORD PTR [ecx+24], 16	; 00000010H
  00004	72 04		 jb	 SHORT $L191783
  00006	8b 41 04	 mov	 eax, DWORD PTR [ecx+4]

; 1533 : 		}

  00009	c3		 ret	 0
$L191783:

; 1532 : 		return (_BUF_SIZE <= _Myres ? _Bx._Ptr : _Bx._Buf);

  0000a	8d 41 04	 lea	 eax, DWORD PTR [ecx+4]

; 1533 : 		}

  0000d	c3		 ret	 0
?_Myptr@?$basic_string@DU?$char_traits@D@std@@V?$allocator@D@2@@std@@QAEPADXZ ENDP ; std::basic_string<char,std::char_traits<char>,std::allocator<char> >::_Myptr
_TEXT	ENDS
PUBLIC	?deallocate@?$allocator@D@std@@QAEXPADI@Z	; std::allocator<char>::deallocate
; Function compile flags: /Ogty
; File c:\program files\microsoft visual studio .net 2003\vc7\include\xmemory
;	COMDAT ?deallocate@?$allocator@D@std@@QAEXPADI@Z
_TEXT	SEGMENT
__Ptr$ = 8						; size = 4
___formal$ = 12						; size = 4
?deallocate@?$allocator@D@std@@QAEXPADI@Z PROC NEAR	; std::allocator<char>::deallocate, COMDAT
; _this$ = ecx

; 132  : 		operator delete(_Ptr);

  00000	8b 44 24 04	 mov	 eax, DWORD PTR __Ptr$[esp-4]
  00004	50		 push	 eax
  00005	e8 00 00 00 00	 call	 ??3@YAXPAX@Z		; operator delete
  0000a	59		 pop	 ecx

; 133  : 		}

  0000b	c2 08 00	 ret	 8
?deallocate@?$allocator@D@std@@QAEXPADI@Z ENDP		; std::allocator<char>::deallocate
_TEXT	ENDS
PUBLIC	??Yiterator@?$vector@U_TransformStuffComponent@@V?$allocator@U_TransformStuffComponent@@@std@@@std@@QAEAAV012@H@Z ; std::vector<_TransformStuffComponent,std::allocator<_TransformStuffComponent> >::iterator::operator+=
; Function compile flags: /Ogty
; File c:\program files\microsoft visual studio .net 2003\vc7\include\vector
;	COMDAT ??Yiterator@?$vector@U_TransformStuffComponent@@V?$allocator@U_TransformStuffComponent@@@std@@@std@@QAEAAV012@H@Z
_TEXT	SEGMENT
__Off$ = 8						; size = 4
??Yiterator@?$vector@U_TransformStuffComponent@@V?$allocator@U_TransformStuffComponent@@@std@@@std@@QAEAAV012@H@Z PROC NEAR ; std::vector<_TransformStuffComponent,std::allocator<_TransformStuffComponent> >::iterator::operator+=, COMDAT
; _this$ = ecx

; 255  : 			{	// increment by integer

  00000	8b c1		 mov	 eax, ecx

; 256  : 			this->_Myptr += _Off;

  00002	8b 4c 24 04	 mov	 ecx, DWORD PTR __Off$[esp-4]
  00006	8d 14 cd 00 00
	00 00		 lea	 edx, DWORD PTR [ecx*8]
  0000d	01 10		 add	 DWORD PTR [eax], edx

; 257  : 			return (*this);
; 258  : 			}

  0000f	c2 04 00	 ret	 4
??Yiterator@?$vector@U_TransformStuffComponent@@V?$allocator@U_TransformStuffComponent@@@std@@@std@@QAEAAV012@H@Z ENDP ; std::vector<_TransformStuffComponent,std::allocator<_TransformStuffComponent> >::iterator::operator+=
_TEXT	ENDS
PUBLIC	??Dconst_iterator@?$vector@U_TransformStuffComponent@@V?$allocator@U_TransformStuffComponent@@@std@@@std@@QBEABU_TransformStuffComponent@@XZ ; std::vector<_TransformStuffComponent,std::allocator<_TransformStuffComponent> >::const_iterator::operator*
; Function compile flags: /Ogty
;	COMDAT ??Dconst_iterator@?$vector@U_TransformStuffComponent@@V?$allocator@U_TransformStuffComponent@@@std@@@std@@QBEABU_TransformStuffComponent@@XZ
_TEXT	SEGMENT
??Dconst_iterator@?$vector@U_TransformStuffComponent@@V?$allocator@U_TransformStuffComponent@@@std@@@std@@QBEABU_TransformStuffComponent@@XZ PROC NEAR ; std::vector<_TransformStuffComponent,std::allocator<_TransformStuffComponent> >::const_iterator::operator*, COMDAT
; _this$ = ecx

; 80   : 
; 81   : 
; 82   : 			return (*_Myptr);

  00000	8b 01		 mov	 eax, DWORD PTR [ecx]

; 83   : 			}

  00002	c3		 ret	 0
??Dconst_iterator@?$vector@U_TransformStuffComponent@@V?$allocator@U_TransformStuffComponent@@@std@@@std@@QBEABU_TransformStuffComponent@@XZ ENDP ; std::vector<_TransformStuffComponent,std::allocator<_TransformStuffComponent> >::const_iterator::operator*
_TEXT	ENDS
PUBLIC	?_Inside@?$basic_string@DU?$char_traits@D@std@@V?$allocator@D@2@@std@@IAE_NPBD@Z ; std::basic_string<char,std::char_traits<char>,std::allocator<char> >::_Inside
; Function compile flags: /Ogty
; File c:\program files\microsoft visual studio .net 2003\vc7\include\xstring
;	COMDAT ?_Inside@?$basic_string@DU?$char_traits@D@std@@V?$allocator@D@2@@std@@IAE_NPBD@Z
_TEXT	SEGMENT
__Ptr$ = 8						; size = 4
?_Inside@?$basic_string@DU?$char_traits@D@std@@V?$allocator@D@2@@std@@IAE_NPBD@Z PROC NEAR ; std::basic_string<char,std::char_traits<char>,std::allocator<char> >::_Inside, COMDAT
; _this$ = ecx

; 1494 : 		{	// test if _Ptr points inside string

  00000	56		 push	 esi

; 1495 : 		if (_Ptr < _Myptr() || _Myptr() + _Mysize <= _Ptr)

  00001	8b 71 18	 mov	 esi, DWORD PTR [ecx+24]
  00004	83 fe 10	 cmp	 esi, 16			; 00000010H
  00007	57		 push	 edi
  00008	8d 41 04	 lea	 eax, DWORD PTR [ecx+4]
  0000b	72 04		 jb	 SHORT $L191797
  0000d	8b 10		 mov	 edx, DWORD PTR [eax]
  0000f	eb 02		 jmp	 SHORT $L191798
$L191797:
  00011	8b d0		 mov	 edx, eax
$L191798:
  00013	8b 7c 24 0c	 mov	 edi, DWORD PTR __Ptr$[esp+4]
  00017	3b fa		 cmp	 edi, edx
  00019	72 17		 jb	 SHORT $L185560
  0001b	83 fe 10	 cmp	 esi, 16			; 00000010H
  0001e	72 02		 jb	 SHORT $L191805
  00020	8b 00		 mov	 eax, DWORD PTR [eax]
$L191805:
  00022	8b 49 14	 mov	 ecx, DWORD PTR [ecx+20]
  00025	03 c8		 add	 ecx, eax
  00027	3b cf		 cmp	 ecx, edi
  00029	76 07		 jbe	 SHORT $L185560
  0002b	5f		 pop	 edi

; 1497 : 		else
; 1498 : 			return (true);

  0002c	b0 01		 mov	 al, 1
  0002e	5e		 pop	 esi

; 1499 : 		}

  0002f	c2 04 00	 ret	 4
$L185560:
  00032	5f		 pop	 edi

; 1496 : 			return (false);	// don't ask

  00033	32 c0		 xor	 al, al
  00035	5e		 pop	 esi

; 1499 : 		}

  00036	c2 04 00	 ret	 4
?_Inside@?$basic_string@DU?$char_traits@D@std@@V?$allocator@D@2@@std@@IAE_NPBD@Z ENDP ; std::basic_string<char,std::char_traits<char>,std::allocator<char> >::_Inside
_TEXT	ENDS
PUBLIC	??0const_iterator@?$vector@U_TransformStuffComponent@@V?$allocator@U_TransformStuffComponent@@@std@@@std@@QAE@PAU_TransformStuffComponent@@@Z ; std::vector<_TransformStuffComponent,std::allocator<_TransformStuffComponent> >::const_iterator::const_iterator
; Function compile flags: /Ogty
; File c:\program files\microsoft visual studio .net 2003\vc7\include\vector
;	COMDAT ??0const_iterator@?$vector@U_TransformStuffComponent@@V?$allocator@U_TransformStuffComponent@@@std@@@std@@QAE@PAU_TransformStuffComponent@@@Z
_TEXT	SEGMENT
__Ptr$ = 8						; size = 4
??0const_iterator@?$vector@U_TransformStuffComponent@@V?$allocator@U_TransformStuffComponent@@@std@@@std@@QAE@PAU_TransformStuffComponent@@@Z PROC NEAR ; std::vector<_TransformStuffComponent,std::allocator<_TransformStuffComponent> >::const_iterator::const_iterator, COMDAT
; _this$ = ecx

; 73   : 		const_iterator(_Tptr _Ptr)

  00000	8b c1		 mov	 eax, ecx

; 74   : 			{	// construct with pointer _Ptr
; 75   : 			_Myptr = _Ptr;

  00002	8b 4c 24 04	 mov	 ecx, DWORD PTR __Ptr$[esp-4]
  00006	89 08		 mov	 DWORD PTR [eax], ecx

; 76   : 			}

  00008	c2 04 00	 ret	 4
??0const_iterator@?$vector@U_TransformStuffComponent@@V?$allocator@U_TransformStuffComponent@@@std@@@std@@QAE@PAU_TransformStuffComponent@@@Z ENDP ; std::vector<_TransformStuffComponent,std::allocator<_TransformStuffComponent> >::const_iterator::const_iterator
_TEXT	ENDS
PUBLIC	?max_size@?$allocator@D@std@@QBEIXZ		; std::allocator<char>::max_size
; Function compile flags: /Ogty
; File c:\program files\microsoft visual studio .net 2003\vc7\include\xmemory
;	COMDAT ?max_size@?$allocator@D@std@@QBEIXZ
_TEXT	SEGMENT
?max_size@?$allocator@D@std@@QBEIXZ PROC NEAR		; std::allocator<char>::max_size, COMDAT
; _this$ = ecx

; 157  : 		_SIZT _Count = (_SIZT)(-1) / sizeof (_Ty);
; 158  : 		return (0 < _Count ? _Count : 1);

  00000	83 c8 ff	 or	 eax, -1

; 159  : 		}

  00003	c3		 ret	 0
?max_size@?$allocator@D@std@@QBEIXZ ENDP		; std::allocator<char>::max_size
_TEXT	ENDS
PUBLIC	??$_Allocate@D@std@@YAPADIPAD@Z			; std::_Allocate<char>
; Function compile flags: /Ogty
;	COMDAT ??$_Allocate@D@std@@YAPADIPAD@Z
_TEXT	SEGMENT
__Count$ = 8						; size = 4
___formal$ = 12						; size = 4
??$_Allocate@D@std@@YAPADIPAD@Z PROC NEAR		; std::_Allocate<char>, COMDAT

; 34   : 	return ((_Ty _FARQ *)operator new(_Count * sizeof (_Ty)));

  00000	8b 44 24 04	 mov	 eax, DWORD PTR __Count$[esp-4]
  00004	50		 push	 eax
  00005	e8 00 00 00 00	 call	 ??2@YAPAXI@Z		; operator new
  0000a	83 c4 04	 add	 esp, 4

; 35   : 	}

  0000d	c3		 ret	 0
??$_Allocate@D@std@@YAPADIPAD@Z ENDP			; std::_Allocate<char>
; Function compile flags: /Ogty
_TEXT	ENDS
;	COMDAT ??_GCPet@@UAEPAXI@Z
_TEXT	SEGMENT
___flags$ = 8						; size = 4
??_GCPet@@UAEPAXI@Z PROC NEAR				; CPet::`scalar deleting destructor', COMDAT
; _this$ = ecx
  00000	f6 44 24 04 01	 test	 BYTE PTR ___flags$[esp-4], 1
  00005	56		 push	 esi
  00006	8b f1		 mov	 esi, ecx
  00008	c7 06 00 00 00
	00		 mov	 DWORD PTR [esi], OFFSET FLAT:??_7CPet@@6B@
  0000e	74 09		 je	 SHORT $L191820
  00010	56		 push	 esi
  00011	e8 00 00 00 00	 call	 ??3@YAXPAX@Z		; operator delete
  00016	83 c4 04	 add	 esp, 4
$L191820:
  00019	8b c6		 mov	 eax, esi
  0001b	5e		 pop	 esi
  0001c	c2 04 00	 ret	 4
??_GCPet@@UAEPAXI@Z ENDP				; CPet::`scalar deleting destructor'
_TEXT	ENDS
PUBLIC	?Serialize@CPet@@QAEXAAVCAr@@@Z			; CPet::Serialize
EXTRN	?Read@CAr@@QAEXPAXI@Z:NEAR			; CAr::Read
EXTRN	?Write@CAr@@QAEXPBXI@Z:NEAR			; CAr::Write
EXTRN	?WriteString@CAr@@QAEXPBD@Z:NEAR		; CAr::WriteString
EXTRN	?ReadString@CAr@@QAEPADPADH@Z:NEAR		; CAr::ReadString
; Function compile flags: /Ogty
; File c:\documents and settings\test\mes documents\source\virtuos_v17\build\program\_common\pet.cpp
;	COMDAT ?Serialize@CPet@@QAEXAAVCAr@@@Z
_TEXT	SEGMENT
_ar$ = 8						; size = 4
?Serialize@CPet@@QAEXAAVCAr@@@Z PROC NEAR		; CPet::Serialize, COMDAT
; _this$ = ecx

; 312  : {

  00000	53		 push	 ebx
  00001	56		 push	 esi

; 313  : 	if( ar.IsStoring() )

  00002	8b 74 24 0c	 mov	 esi, DWORD PTR _ar$[esp+4]
  00006	33 c0		 xor	 eax, eax
  00008	8a 06		 mov	 al, BYTE PTR [esi]
  0000a	57		 push	 edi
  0000b	8b f9		 mov	 edi, ecx
  0000d	f7 d0		 not	 eax
  0000f	a8 01		 test	 al, 1
  00011	0f 84 8e 00 00
	00		 je	 $L189738

; 314  : 	{
; 315  : 		ar << m_nKind;

  00017	8a 5f 04	 mov	 bl, BYTE PTR [edi+4]
  0001a	6a 01		 push	 1
  0001c	8b ce		 mov	 ecx, esi
  0001e	e8 00 00 00 00	 call	 ?CheckBuf@CAr@@QAEXI@Z	; CAr::CheckBuf
  00023	8b 4e 08	 mov	 ecx, DWORD PTR [esi+8]
  00026	88 19		 mov	 BYTE PTR [ecx], bl
  00028	ff 46 08	 inc	 DWORD PTR [esi+8]

; 316  : 		ar << (BYTE)m_nLevel;

  0002b	8a 5f 05	 mov	 bl, BYTE PTR [edi+5]
  0002e	6a 01		 push	 1
  00030	8b ce		 mov	 ecx, esi
  00032	e8 00 00 00 00	 call	 ?CheckBuf@CAr@@QAEXI@Z	; CAr::CheckBuf
  00037	8b 56 08	 mov	 edx, DWORD PTR [esi+8]
  0003a	88 1a		 mov	 BYTE PTR [edx], bl
  0003c	ff 46 08	 inc	 DWORD PTR [esi+8]

; 317  : 		ar << m_dwExp;

  0003f	8b 5f 08	 mov	 ebx, DWORD PTR [edi+8]
  00042	6a 04		 push	 4
  00044	8b ce		 mov	 ecx, esi
  00046	e8 00 00 00 00	 call	 ?CheckBuf@CAr@@QAEXI@Z	; CAr::CheckBuf
  0004b	8b 46 08	 mov	 eax, DWORD PTR [esi+8]
  0004e	89 18		 mov	 DWORD PTR [eax], ebx
  00050	83 46 08 04	 add	 DWORD PTR [esi+8], 4

; 318  : 		ar << m_wEnergy;

  00054	66 8b 5f 0c	 mov	 bx, WORD PTR [edi+12]
  00058	6a 02		 push	 2
  0005a	8b ce		 mov	 ecx, esi
  0005c	e8 00 00 00 00	 call	 ?CheckBuf@CAr@@QAEXI@Z	; CAr::CheckBuf
  00061	8b 4e 08	 mov	 ecx, DWORD PTR [esi+8]
  00064	66 89 19	 mov	 WORD PTR [ecx], bx
  00067	83 46 08 02	 add	 DWORD PTR [esi+8], 2

; 319  : 		ar << m_wLife;

  0006b	66 8b 5f 0e	 mov	 bx, WORD PTR [edi+14]
  0006f	6a 02		 push	 2
  00071	8b ce		 mov	 ecx, esi
  00073	e8 00 00 00 00	 call	 ?CheckBuf@CAr@@QAEXI@Z	; CAr::CheckBuf
  00078	8b 56 08	 mov	 edx, DWORD PTR [esi+8]
  0007b	66 89 1a	 mov	 WORD PTR [edx], bx
  0007e	8b 5e 08	 mov	 ebx, DWORD PTR [esi+8]

; 320  : 		ar.Write( (const void*)m_anAvailLevel, sizeof(BYTE) * PL_MAX );

  00081	6a 06		 push	 6
  00083	8d 47 10	 lea	 eax, DWORD PTR [edi+16]
  00086	83 c3 02	 add	 ebx, 2
  00089	50		 push	 eax
  0008a	8b ce		 mov	 ecx, esi
  0008c	89 5e 08	 mov	 DWORD PTR [esi+8], ebx
  0008f	e8 00 00 00 00	 call	 ?Write@CAr@@QAEXPBXI@Z	; CAr::Write

; 321  : #ifdef __PET_1024
; 322  : 		ar.WriteString( m_szName );

  00094	83 c7 16	 add	 edi, 22			; 00000016H
  00097	57		 push	 edi
  00098	8b ce		 mov	 ecx, esi
  0009a	e8 00 00 00 00	 call	 ?WriteString@CAr@@QAEXPBD@Z ; CAr::WriteString
  0009f	5f		 pop	 edi
  000a0	5e		 pop	 esi
  000a1	5b		 pop	 ebx

; 337  : #endif	// __PET_1024
; 338  : 	}
; 339  : }

  000a2	c2 04 00	 ret	 4
$L189738:

; 323  : #endif	// __PET_1024
; 324  : 	}
; 325  : 	else
; 326  : 	{
; 327  : 		m_nKind	= PK_TIGER;

  000a5	33 c9		 xor	 ecx, ecx
  000a7	88 4f 04	 mov	 BYTE PTR [edi+4], cl

; 328  : 		m_nLevel	= PL_EGG;

  000aa	88 4f 05	 mov	 BYTE PTR [edi+5], cl

; 329  : 		ar >> m_nKind;

  000ad	8b 46 08	 mov	 eax, DWORD PTR [esi+8]
  000b0	8b 5e 0c	 mov	 ebx, DWORD PTR [esi+12]
  000b3	8d 50 01	 lea	 edx, DWORD PTR [eax+1]
  000b6	3b d3		 cmp	 edx, ebx
  000b8	77 0a		 ja	 SHORT $L191848
  000ba	8a 00		 mov	 al, BYTE PTR [eax]
  000bc	88 47 04	 mov	 BYTE PTR [edi+4], al
  000bf	ff 46 08	 inc	 DWORD PTR [esi+8]
  000c2	eb 09		 jmp	 SHORT $L191849
$L191848:
  000c4	88 4f 04	 mov	 BYTE PTR [edi+4], cl
  000c7	8b 56 0c	 mov	 edx, DWORD PTR [esi+12]
  000ca	89 56 08	 mov	 DWORD PTR [esi+8], edx
$L191849:

; 330  : 		ar >> (BYTE &)m_nLevel;

  000cd	8b 46 08	 mov	 eax, DWORD PTR [esi+8]
  000d0	8b 5e 0c	 mov	 ebx, DWORD PTR [esi+12]
  000d3	8d 50 01	 lea	 edx, DWORD PTR [eax+1]
  000d6	3b d3		 cmp	 edx, ebx
  000d8	77 0a		 ja	 SHORT $L191854
  000da	8a 00		 mov	 al, BYTE PTR [eax]
  000dc	88 47 05	 mov	 BYTE PTR [edi+5], al
  000df	ff 46 08	 inc	 DWORD PTR [esi+8]
  000e2	eb 09		 jmp	 SHORT $L191855
$L191854:
  000e4	88 4f 05	 mov	 BYTE PTR [edi+5], cl
  000e7	8b 56 0c	 mov	 edx, DWORD PTR [esi+12]
  000ea	89 56 08	 mov	 DWORD PTR [esi+8], edx
$L191855:

; 331  : 		ar >> m_dwExp;

  000ed	8b 46 08	 mov	 eax, DWORD PTR [esi+8]
  000f0	8b 5e 0c	 mov	 ebx, DWORD PTR [esi+12]
  000f3	8d 50 04	 lea	 edx, DWORD PTR [eax+4]
  000f6	3b d3		 cmp	 edx, ebx
  000f8	77 0b		 ja	 SHORT $L191860
  000fa	8b 00		 mov	 eax, DWORD PTR [eax]
  000fc	89 47 08	 mov	 DWORD PTR [edi+8], eax
  000ff	83 46 08 04	 add	 DWORD PTR [esi+8], 4
  00103	eb 09		 jmp	 SHORT $L191861
$L191860:
  00105	89 4f 08	 mov	 DWORD PTR [edi+8], ecx
  00108	8b 56 0c	 mov	 edx, DWORD PTR [esi+12]
  0010b	89 56 08	 mov	 DWORD PTR [esi+8], edx
$L191861:

; 332  : 		ar >> m_wEnergy;

  0010e	8b 46 08	 mov	 eax, DWORD PTR [esi+8]
  00111	8b 5e 0c	 mov	 ebx, DWORD PTR [esi+12]
  00114	8d 50 02	 lea	 edx, DWORD PTR [eax+2]
  00117	3b d3		 cmp	 edx, ebx
  00119	77 0d		 ja	 SHORT $L191866
  0011b	66 8b 00	 mov	 ax, WORD PTR [eax]
  0011e	66 89 47 0c	 mov	 WORD PTR [edi+12], ax
  00122	83 46 08 02	 add	 DWORD PTR [esi+8], 2
  00126	eb 0a		 jmp	 SHORT $L191867
$L191866:
  00128	66 89 4f 0c	 mov	 WORD PTR [edi+12], cx
  0012c	8b 56 0c	 mov	 edx, DWORD PTR [esi+12]
  0012f	89 56 08	 mov	 DWORD PTR [esi+8], edx
$L191867:

; 333  : 		ar >> m_wLife;

  00132	8b 46 08	 mov	 eax, DWORD PTR [esi+8]
  00135	8b 5e 0c	 mov	 ebx, DWORD PTR [esi+12]
  00138	8d 50 02	 lea	 edx, DWORD PTR [eax+2]
  0013b	3b d3		 cmp	 edx, ebx
  0013d	77 0d		 ja	 SHORT $L191872
  0013f	66 8b 00	 mov	 ax, WORD PTR [eax]
  00142	66 89 47 0e	 mov	 WORD PTR [edi+14], ax
  00146	83 46 08 02	 add	 DWORD PTR [esi+8], 2
  0014a	eb 0a		 jmp	 SHORT $L191873
$L191872:
  0014c	66 89 4f 0e	 mov	 WORD PTR [edi+14], cx
  00150	8b 4e 0c	 mov	 ecx, DWORD PTR [esi+12]
  00153	89 4e 08	 mov	 DWORD PTR [esi+8], ecx
$L191873:

; 334  : 		ar.Read( (void *)m_anAvailLevel, sizeof(BYTE) * PL_MAX );

  00156	6a 06		 push	 6
  00158	8d 57 10	 lea	 edx, DWORD PTR [edi+16]
  0015b	52		 push	 edx
  0015c	8b ce		 mov	 ecx, esi
  0015e	e8 00 00 00 00	 call	 ?Read@CAr@@QAEXPAXI@Z	; CAr::Read

; 335  : #ifdef __PET_1024
; 336  : 		ar.ReadString( m_szName, MAX_PET_NAME );

  00163	6a 11		 push	 17			; 00000011H
  00165	83 c7 16	 add	 edi, 22			; 00000016H
  00168	57		 push	 edi
  00169	8b ce		 mov	 ecx, esi
  0016b	e8 00 00 00 00	 call	 ?ReadString@CAr@@QAEPADPADH@Z ; CAr::ReadString
  00170	5f		 pop	 edi
  00171	5e		 pop	 esi
  00172	5b		 pop	 ebx

; 337  : #endif	// __PET_1024
; 338  : 	}
; 339  : }

  00173	c2 04 00	 ret	 4
?Serialize@CPet@@QAEXAAVCAr@@@Z ENDP			; CPet::Serialize
_TEXT	ENDS
PUBLIC	?SetExp@CPet@@QAEXK@Z				; CPet::SetExp
; Function compile flags: /Ogty
;	COMDAT ?SetExp@CPet@@QAEXK@Z
_TEXT	SEGMENT
_dwExp$ = 8						; size = 4
?SetExp@CPet@@QAEXK@Z PROC NEAR				; CPet::SetExp, COMDAT
; _this$ = ecx

; 353  : 	m_dwExp		= dwExp > (DWORD)( GetMaxExp() ) ? GetMaxExp(): dwExp;

  00000	8a 41 05	 mov	 al, BYTE PTR [ecx+5]
  00003	8b 54 24 04	 mov	 edx, DWORD PTR _dwExp$[esp-4]
  00007	f6 d8		 neg	 al
  00009	1b c0		 sbb	 eax, eax
  0000b	25 50 c3 00 00	 and	 eax, 50000		; 0000c350H
  00010	05 50 c3 00 00	 add	 eax, 50000		; 0000c350H
  00015	3b d0		 cmp	 edx, eax
  00017	76 06		 jbe	 SHORT $L191878
  00019	89 41 08	 mov	 DWORD PTR [ecx+8], eax

; 354  : }

  0001c	c2 04 00	 ret	 4
$L191878:

; 353  : 	m_dwExp		= dwExp > (DWORD)( GetMaxExp() ) ? GetMaxExp(): dwExp;

  0001f	89 51 08	 mov	 DWORD PTR [ecx+8], edx

; 354  : }

  00022	c2 04 00	 ret	 4
?SetExp@CPet@@QAEXK@Z ENDP				; CPet::SetExp
_TEXT	ENDS
PUBLIC	??4CPet@@QAEAAV0@AAV0@@Z			; CPet::operator=
; Function compile flags: /Ogty
;	COMDAT ??4CPet@@QAEAAV0@AAV0@@Z
_TEXT	SEGMENT
_pet$ = 8						; size = 4
??4CPet@@QAEAAV0@AAV0@@Z PROC NEAR			; CPet::operator=, COMDAT
; _this$ = ecx

; 411  : 	m_nKind		= pet.GetKind();

  00000	8b 54 24 04	 mov	 edx, DWORD PTR _pet$[esp-4]
  00004	8b c1		 mov	 eax, ecx
  00006	8a 4a 04	 mov	 cl, BYTE PTR [edx+4]
  00009	88 48 04	 mov	 BYTE PTR [eax+4], cl

; 412  : 	m_nLevel	= pet.GetLevel();

  0000c	8a 4a 05	 mov	 cl, BYTE PTR [edx+5]
  0000f	88 48 05	 mov	 BYTE PTR [eax+5], cl

; 413  : 	m_dwExp		= pet.GetExp();

  00012	8b 4a 08	 mov	 ecx, DWORD PTR [edx+8]
  00015	89 48 08	 mov	 DWORD PTR [eax+8], ecx

; 414  : 	m_wEnergy	= pet.GetEnergy();

  00018	66 8b 4a 0c	 mov	 cx, WORD PTR [edx+12]
  0001c	66 89 48 0c	 mov	 WORD PTR [eax+12], cx

; 415  : 	m_wLife		= pet.GetLife();

  00020	8a 4a 05	 mov	 cl, BYTE PTR [edx+5]
  00023	84 c9		 test	 cl, cl
  00025	75 04		 jne	 SHORT $L191910
  00027	33 c9		 xor	 ecx, ecx
  00029	eb 04		 jmp	 SHORT $L191911
$L191910:
  0002b	0f b7 4a 0e	 movzx	 ecx, WORD PTR [edx+14]
$L191911:
  0002f	56		 push	 esi
  00030	66 89 48 0e	 mov	 WORD PTR [eax+14], cx

; 416  : 	memcpy( m_anAvailLevel, pet.m_anAvailLevel, sizeof(BYTE) * PL_MAX );

  00034	8d 4a 10	 lea	 ecx, DWORD PTR [edx+16]
  00037	57		 push	 edi
  00038	8b 39		 mov	 edi, DWORD PTR [ecx]
  0003a	8d 70 10	 lea	 esi, DWORD PTR [eax+16]
  0003d	89 3e		 mov	 DWORD PTR [esi], edi
  0003f	66 8b 49 04	 mov	 cx, WORD PTR [ecx+4]
  00043	66 89 4e 04	 mov	 WORD PTR [esi+4], cx

; 417  : #ifdef __PET_1024
; 418  : 	strcpy( m_szName, pet.GetName() );

  00047	83 c2 16	 add	 edx, 22			; 00000016H
  0004a	8d 70 16	 lea	 esi, DWORD PTR [eax+22]
  0004d	2b f2		 sub	 esi, edx
  0004f	90		 npad	 1
$L191888:
  00050	8a 0a		 mov	 cl, BYTE PTR [edx]
  00052	88 0c 16	 mov	 BYTE PTR [esi+edx], cl
  00055	42		 inc	 edx
  00056	84 c9		 test	 cl, cl
  00058	75 f6		 jne	 SHORT $L191888
  0005a	5f		 pop	 edi
  0005b	5e		 pop	 esi

; 419  : #endif	// __PET_1024
; 420  : 	return *this;
; 421  : }

  0005c	c2 04 00	 ret	 4
??4CPet@@QAEAAV0@AAV0@@Z ENDP				; CPet::operator=
_TEXT	ENDS
PUBLIC	??9const_iterator@?$vector@U_TransformStuffComponent@@V?$allocator@U_TransformStuffComponent@@@std@@@std@@QBE_NABV012@@Z ; std::vector<_TransformStuffComponent,std::allocator<_TransformStuffComponent> >::const_iterator::operator!=
; Function compile flags: /Ogty
; File c:\program files\microsoft visual studio .net 2003\vc7\include\vector
;	COMDAT ??9const_iterator@?$vector@U_TransformStuffComponent@@V?$allocator@U_TransformStuffComponent@@@std@@@std@@QBE_NABV012@@Z
_TEXT	SEGMENT
__Right$ = 8						; size = 4
??9const_iterator@?$vector@U_TransformStuffComponent@@V?$allocator@U_TransformStuffComponent@@@std@@@std@@QBE_NABV012@@Z PROC NEAR ; std::vector<_TransformStuffComponent,std::allocator<_TransformStuffComponent> >::const_iterator::operator!=, COMDAT
; _this$ = ecx

; 160  : 			return (!(*this == _Right));

  00000	8b 01		 mov	 eax, DWORD PTR [ecx]
  00002	8b 54 24 04	 mov	 edx, DWORD PTR __Right$[esp-4]
  00006	56		 push	 esi
  00007	8b 32		 mov	 esi, DWORD PTR [edx]
  00009	33 c9		 xor	 ecx, ecx
  0000b	3b c6		 cmp	 eax, esi
  0000d	0f 95 c1	 setne	 cl
  00010	8a c1		 mov	 al, cl
  00012	5e		 pop	 esi

; 161  : 			}

  00013	c2 04 00	 ret	 4
??9const_iterator@?$vector@U_TransformStuffComponent@@V?$allocator@U_TransformStuffComponent@@@std@@@std@@QBE_NABV012@@Z ENDP ; std::vector<_TransformStuffComponent,std::allocator<_TransformStuffComponent> >::const_iterator::operator!=
_TEXT	ENDS
PUBLIC	??9const_iterator@?$vector@U_FEEDENERGY@@V?$allocator@U_FEEDENERGY@@@std@@@std@@QBE_NABV012@@Z ; std::vector<_FEEDENERGY,std::allocator<_FEEDENERGY> >::const_iterator::operator!=
; Function compile flags: /Ogty
;	COMDAT ??9const_iterator@?$vector@U_FEEDENERGY@@V?$allocator@U_FEEDENERGY@@@std@@@std@@QBE_NABV012@@Z
_TEXT	SEGMENT
__Right$ = 8						; size = 4
??9const_iterator@?$vector@U_FEEDENERGY@@V?$allocator@U_FEEDENERGY@@@std@@@std@@QBE_NABV012@@Z PROC NEAR ; std::vector<_FEEDENERGY,std::allocator<_FEEDENERGY> >::const_iterator::operator!=, COMDAT
; _this$ = ecx

; 160  : 			return (!(*this == _Right));

  00000	8b 01		 mov	 eax, DWORD PTR [ecx]
  00002	8b 54 24 04	 mov	 edx, DWORD PTR __Right$[esp-4]
  00006	56		 push	 esi
  00007	8b 32		 mov	 esi, DWORD PTR [edx]
  00009	33 c9		 xor	 ecx, ecx
  0000b	3b c6		 cmp	 eax, esi
  0000d	0f 95 c1	 setne	 cl
  00010	8a c1		 mov	 al, cl
  00012	5e		 pop	 esi

; 161  : 			}

  00013	c2 04 00	 ret	 4
??9const_iterator@?$vector@U_FEEDENERGY@@V?$allocator@U_FEEDENERGY@@@std@@@std@@QBE_NABV012@@Z ENDP ; std::vector<_FEEDENERGY,std::allocator<_FEEDENERGY> >::const_iterator::operator!=
_TEXT	ENDS
PUBLIC	?Compare@?$CStringT@DV?$StrTraitMFC@DV?$ChTraitsCRT@D@ATL@@@@@ATL@@QBEHPBD@Z ; ATL::CStringT<char,StrTraitMFC<char,ATL::ChTraitsCRT<char> > >::Compare
; Function compile flags: /Ogty
; File c:\program files\microsoft visual studio .net 2003\vc7\atlmfc\include\cstringt.h
;	COMDAT ?Compare@?$CStringT@DV?$StrTraitMFC@DV?$ChTraitsCRT@D@ATL@@@@@ATL@@QBEHPBD@Z
_TEXT	SEGMENT
_psz$ = 8						; size = 4
?Compare@?$CStringT@DV?$StrTraitMFC@DV?$ChTraitsCRT@D@ATL@@@@@ATL@@QBEHPBD@Z PROC NEAR ; ATL::CStringT<char,StrTraitMFC<char,ATL::ChTraitsCRT<char> > >::Compare, COMDAT
; _this$ = ecx

; 1088 : 		ATLASSERT( AtlIsValidString( psz ) );
; 1089 : 		return( StringTraits::StringCompare( GetString(), psz ) );

  00000	8b 44 24 04	 mov	 eax, DWORD PTR _psz$[esp-4]
  00004	8b 09		 mov	 ecx, DWORD PTR [ecx]
  00006	50		 push	 eax
  00007	51		 push	 ecx
  00008	e8 00 00 00 00	 call	 __mbscmp
  0000d	83 c4 08	 add	 esp, 8

; 1090 : 	}

  00010	c2 04 00	 ret	 4
?Compare@?$CStringT@DV?$StrTraitMFC@DV?$ChTraitsCRT@D@ATL@@@@@ATL@@QBEHPBD@Z ENDP ; ATL::CStringT<char,StrTraitMFC<char,ATL::ChTraitsCRT<char> > >::Compare
_TEXT	ENDS
PUBLIC	??0?$_Vector_val@U_FEEDENERGY@@V?$allocator@U_FEEDENERGY@@@std@@@std@@IAE@V?$allocator@U_FEEDENERGY@@@1@@Z ; std::_Vector_val<_FEEDENERGY,std::allocator<_FEEDENERGY> >::_Vector_val<_FEEDENERGY,std::allocator<_FEEDENERGY> >
; Function compile flags: /Ogty
; File c:\program files\microsoft visual studio .net 2003\vc7\include\vector
;	COMDAT ??0?$_Vector_val@U_FEEDENERGY@@V?$allocator@U_FEEDENERGY@@@std@@@std@@IAE@V?$allocator@U_FEEDENERGY@@@1@@Z
_TEXT	SEGMENT
__Al$ = 8						; size = 1
??0?$_Vector_val@U_FEEDENERGY@@V?$allocator@U_FEEDENERGY@@@std@@@std@@IAE@V?$allocator@U_FEEDENERGY@@@1@@Z PROC NEAR ; std::_Vector_val<_FEEDENERGY,std::allocator<_FEEDENERGY> >::_Vector_val<_FEEDENERGY,std::allocator<_FEEDENERGY> >, COMDAT
; _this$ = ecx

; 21   : 		{	// construct allocator from _Al

  00000	8b c1		 mov	 eax, ecx

; 22   : 		}

  00002	c2 04 00	 ret	 4
??0?$_Vector_val@U_FEEDENERGY@@V?$allocator@U_FEEDENERGY@@@std@@@std@@IAE@V?$allocator@U_FEEDENERGY@@@1@@Z ENDP ; std::_Vector_val<_FEEDENERGY,std::allocator<_FEEDENERGY> >::_Vector_val<_FEEDENERGY,std::allocator<_FEEDENERGY> >
_TEXT	ENDS
PUBLIC	??0?$_Vector_val@GV?$allocator@G@std@@@std@@IAE@V?$allocator@G@1@@Z ; std::_Vector_val<unsigned short,std::allocator<unsigned short> >::_Vector_val<unsigned short,std::allocator<unsigned short> >
; Function compile flags: /Ogty
;	COMDAT ??0?$_Vector_val@GV?$allocator@G@std@@@std@@IAE@V?$allocator@G@1@@Z
_TEXT	SEGMENT
__Al$ = 8						; size = 1
??0?$_Vector_val@GV?$allocator@G@std@@@std@@IAE@V?$allocator@G@1@@Z PROC NEAR ; std::_Vector_val<unsigned short,std::allocator<unsigned short> >::_Vector_val<unsigned short,std::allocator<unsigned short> >, COMDAT
; _this$ = ecx

; 21   : 		{	// construct allocator from _Al

  00000	8b c1		 mov	 eax, ecx

; 22   : 		}

  00002	c2 04 00	 ret	 4
??0?$_Vector_val@GV?$allocator@G@std@@@std@@IAE@V?$allocator@G@1@@Z ENDP ; std::_Vector_val<unsigned short,std::allocator<unsigned short> >::_Vector_val<unsigned short,std::allocator<unsigned short> >
_TEXT	ENDS
PUBLIC	??0?$_Vector_val@U_TransformStuffComponent@@V?$allocator@U_TransformStuffComponent@@@std@@@std@@IAE@V?$allocator@U_TransformStuffComponent@@@1@@Z ; std::_Vector_val<_TransformStuffComponent,std::allocator<_TransformStuffComponent> >::_Vector_val<_TransformStuffComponent,std::allocator<_TransformStuffComponent> >
; Function compile flags: /Ogty
;	COMDAT ??0?$_Vector_val@U_TransformStuffComponent@@V?$allocator@U_TransformStuffComponent@@@std@@@std@@IAE@V?$allocator@U_TransformStuffComponent@@@1@@Z
_TEXT	SEGMENT
__Al$ = 8						; size = 1
??0?$_Vector_val@U_TransformStuffComponent@@V?$allocator@U_TransformStuffComponent@@@std@@@std@@IAE@V?$allocator@U_TransformStuffComponent@@@1@@Z PROC NEAR ; std::_Vector_val<_TransformStuffComponent,std::allocator<_TransformStuffComponent> >::_Vector_val<_TransformStuffComponent,std::allocator<_TransformStuffComponent> >, COMDAT
; _this$ = ecx

; 21   : 		{	// construct allocator from _Al

  00000	8b c1		 mov	 eax, ecx

; 22   : 		}

  00002	c2 04 00	 ret	 4
??0?$_Vector_val@U_TransformStuffComponent@@V?$allocator@U_TransformStuffComponent@@@std@@@std@@IAE@V?$allocator@U_TransformStuffComponent@@@1@@Z ENDP ; std::_Vector_val<_TransformStuffComponent,std::allocator<_TransformStuffComponent> >::_Vector_val<_TransformStuffComponent,std::allocator<_TransformStuffComponent> >
_TEXT	ENDS
PUBLIC	??0iterator@?$vector@U_FEEDENERGY@@V?$allocator@U_FEEDENERGY@@@std@@@std@@QAE@PAU_FEEDENERGY@@@Z ; std::vector<_FEEDENERGY,std::allocator<_FEEDENERGY> >::iterator::iterator
; Function compile flags: /Ogty
;	COMDAT ??0iterator@?$vector@U_FEEDENERGY@@V?$allocator@U_FEEDENERGY@@@std@@@std@@QAE@PAU_FEEDENERGY@@@Z
_TEXT	SEGMENT
__Ptr$ = 8						; size = 4
??0iterator@?$vector@U_FEEDENERGY@@V?$allocator@U_FEEDENERGY@@@std@@@std@@QAE@PAU_FEEDENERGY@@@Z PROC NEAR ; std::vector<_FEEDENERGY,std::allocator<_FEEDENERGY> >::iterator::iterator, COMDAT
; _this$ = ecx

; 215  : 			{	// construct with pointer _Ptr

  00000	8b c1		 mov	 eax, ecx
  00002	8b 4c 24 04	 mov	 ecx, DWORD PTR __Ptr$[esp-4]
  00006	89 08		 mov	 DWORD PTR [eax], ecx

; 216  : 			}

  00008	c2 04 00	 ret	 4
??0iterator@?$vector@U_FEEDENERGY@@V?$allocator@U_FEEDENERGY@@@std@@@std@@QAE@PAU_FEEDENERGY@@@Z ENDP ; std::vector<_FEEDENERGY,std::allocator<_FEEDENERGY> >::iterator::iterator
_TEXT	ENDS
PUBLIC	??Diterator@?$vector@U_FEEDENERGY@@V?$allocator@U_FEEDENERGY@@@std@@@std@@QBEAAU_FEEDENERGY@@XZ ; std::vector<_FEEDENERGY,std::allocator<_FEEDENERGY> >::iterator::operator*
; Function compile flags: /Ogty
;	COMDAT ??Diterator@?$vector@U_FEEDENERGY@@V?$allocator@U_FEEDENERGY@@@std@@@std@@QBEAAU_FEEDENERGY@@XZ
_TEXT	SEGMENT
??Diterator@?$vector@U_FEEDENERGY@@V?$allocator@U_FEEDENERGY@@@std@@@std@@QBEAAU_FEEDENERGY@@XZ PROC NEAR ; std::vector<_FEEDENERGY,std::allocator<_FEEDENERGY> >::iterator::operator*, COMDAT
; _this$ = ecx

; 220  : 			return ((reference)**(const_iterator *)this);

  00000	8b 01		 mov	 eax, DWORD PTR [ecx]

; 221  : 			}

  00002	c3		 ret	 0
??Diterator@?$vector@U_FEEDENERGY@@V?$allocator@U_FEEDENERGY@@@std@@@std@@QBEAAU_FEEDENERGY@@XZ ENDP ; std::vector<_FEEDENERGY,std::allocator<_FEEDENERGY> >::iterator::operator*
_TEXT	ENDS
PUBLIC	??Diterator@?$vector@GV?$allocator@G@std@@@std@@QBEAAGXZ ; std::vector<unsigned short,std::allocator<unsigned short> >::iterator::operator*
; Function compile flags: /Ogty
;	COMDAT ??Diterator@?$vector@GV?$allocator@G@std@@@std@@QBEAAGXZ
_TEXT	SEGMENT
??Diterator@?$vector@GV?$allocator@G@std@@@std@@QBEAAGXZ PROC NEAR ; std::vector<unsigned short,std::allocator<unsigned short> >::iterator::operator*, COMDAT
; _this$ = ecx

; 220  : 			return ((reference)**(const_iterator *)this);

  00000	8b 01		 mov	 eax, DWORD PTR [ecx]

; 221  : 			}

  00002	c3		 ret	 0
??Diterator@?$vector@GV?$allocator@G@std@@@std@@QBEAAGXZ ENDP ; std::vector<unsigned short,std::allocator<unsigned short> >::iterator::operator*
_TEXT	ENDS
PUBLIC	??Hiterator@?$vector@GV?$allocator@G@std@@@std@@QBE?AV012@H@Z ; std::vector<unsigned short,std::allocator<unsigned short> >::iterator::operator+
; Function compile flags: /Ogty
;	COMDAT ??Hiterator@?$vector@GV?$allocator@G@std@@@std@@QBE?AV012@H@Z
_TEXT	SEGMENT
___$ReturnUdt$ = 8					; size = 4
__Off$ = 12						; size = 4
??Hiterator@?$vector@GV?$allocator@G@std@@@std@@QBE?AV012@H@Z PROC NEAR ; std::vector<unsigned short,std::allocator<unsigned short> >::iterator::operator+, COMDAT
; _this$ = ecx

; 262  : 			iterator _Tmp = *this;
; 263  : 			return (_Tmp += _Off);

  00000	8b 01		 mov	 eax, DWORD PTR [ecx]
  00002	8b 4c 24 08	 mov	 ecx, DWORD PTR __Off$[esp-4]
  00006	8d 14 48	 lea	 edx, DWORD PTR [eax+ecx*2]
  00009	8b 44 24 04	 mov	 eax, DWORD PTR ___$ReturnUdt$[esp-4]
  0000d	89 10		 mov	 DWORD PTR [eax], edx

; 264  : 			}

  0000f	c2 08 00	 ret	 8
??Hiterator@?$vector@GV?$allocator@G@std@@@std@@QBE?AV012@H@Z ENDP ; std::vector<unsigned short,std::allocator<unsigned short> >::iterator::operator+
_TEXT	ENDS
PUBLIC	?allocate@?$allocator@G@std@@QAEPAGI@Z		; std::allocator<unsigned short>::allocate
; Function compile flags: /Ogty
; File c:\program files\microsoft visual studio .net 2003\vc7\include\xmemory
;	COMDAT ?allocate@?$allocator@G@std@@QAEPAGI@Z
_TEXT	SEGMENT
__Count$ = 8						; size = 4
?allocate@?$allocator@G@std@@QAEPAGI@Z PROC NEAR	; std::allocator<unsigned short>::allocate, COMDAT
; _this$ = ecx

; 137  : 		return (_Allocate(_Count, (pointer)0));

  00000	8b 44 24 04	 mov	 eax, DWORD PTR __Count$[esp-4]
  00004	8d 0c 00	 lea	 ecx, DWORD PTR [eax+eax]
  00007	51		 push	 ecx
  00008	e8 00 00 00 00	 call	 ??2@YAPAXI@Z		; operator new
  0000d	83 c4 04	 add	 esp, 4

; 138  : 		}

  00010	c2 04 00	 ret	 4
?allocate@?$allocator@G@std@@QAEPAGI@Z ENDP		; std::allocator<unsigned short>::allocate
_TEXT	ENDS
PUBLIC	?max_size@?$vector@U_FEEDENERGY@@V?$allocator@U_FEEDENERGY@@@std@@@std@@QBEIXZ ; std::vector<_FEEDENERGY,std::allocator<_FEEDENERGY> >::max_size
; Function compile flags: /Ogty
; File c:\program files\microsoft visual studio .net 2003\vc7\include\vector
;	COMDAT ?max_size@?$vector@U_FEEDENERGY@@V?$allocator@U_FEEDENERGY@@@std@@@std@@QBEIXZ
_TEXT	SEGMENT
?max_size@?$vector@U_FEEDENERGY@@V?$allocator@U_FEEDENERGY@@@std@@@std@@QBEIXZ PROC NEAR ; std::vector<_FEEDENERGY,std::allocator<_FEEDENERGY> >::max_size, COMDAT
; _this$ = ecx

; 521  : 		return (this->_Alval.max_size());

  00000	b8 55 55 55 15	 mov	 eax, 357913941		; 15555555H

; 522  : 		}

  00005	c3		 ret	 0
?max_size@?$vector@U_FEEDENERGY@@V?$allocator@U_FEEDENERGY@@@std@@@std@@QBEIXZ ENDP ; std::vector<_FEEDENERGY,std::allocator<_FEEDENERGY> >::max_size
_TEXT	ENDS
PUBLIC	?allocate@?$allocator@U_FEEDENERGY@@@std@@QAEPAU_FEEDENERGY@@I@Z ; std::allocator<_FEEDENERGY>::allocate
; Function compile flags: /Ogty
; File c:\program files\microsoft visual studio .net 2003\vc7\include\xmemory
;	COMDAT ?allocate@?$allocator@U_FEEDENERGY@@@std@@QAEPAU_FEEDENERGY@@I@Z
_TEXT	SEGMENT
__Count$ = 8						; size = 4
?allocate@?$allocator@U_FEEDENERGY@@@std@@QAEPAU_FEEDENERGY@@I@Z PROC NEAR ; std::allocator<_FEEDENERGY>::allocate, COMDAT
; _this$ = ecx

; 137  : 		return (_Allocate(_Count, (pointer)0));

  00000	8b 44 24 04	 mov	 eax, DWORD PTR __Count$[esp-4]
  00004	8d 04 40	 lea	 eax, DWORD PTR [eax+eax*2]
  00007	c1 e0 02	 shl	 eax, 2
  0000a	50		 push	 eax
  0000b	e8 00 00 00 00	 call	 ??2@YAPAXI@Z		; operator new
  00010	83 c4 04	 add	 esp, 4

; 138  : 		}

  00013	c2 04 00	 ret	 4
?allocate@?$allocator@U_FEEDENERGY@@@std@@QAEPAU_FEEDENERGY@@I@Z ENDP ; std::allocator<_FEEDENERGY>::allocate
_TEXT	ENDS
PUBLIC	?max_size@?$vector@GV?$allocator@G@std@@@std@@QBEIXZ ; std::vector<unsigned short,std::allocator<unsigned short> >::max_size
; Function compile flags: /Ogty
; File c:\program files\microsoft visual studio .net 2003\vc7\include\vector
;	COMDAT ?max_size@?$vector@GV?$allocator@G@std@@@std@@QBEIXZ
_TEXT	SEGMENT
?max_size@?$vector@GV?$allocator@G@std@@@std@@QBEIXZ PROC NEAR ; std::vector<unsigned short,std::allocator<unsigned short> >::max_size, COMDAT
; _this$ = ecx

; 521  : 		return (this->_Alval.max_size());

  00000	b8 ff ff ff 7f	 mov	 eax, 2147483647		; 7fffffffH

; 522  : 		}

  00005	c3		 ret	 0
?max_size@?$vector@GV?$allocator@G@std@@@std@@QBEIXZ ENDP ; std::vector<unsigned short,std::allocator<unsigned short> >::max_size
_TEXT	ENDS
PUBLIC	?max_size@?$vector@U_TransformStuffComponent@@V?$allocator@U_TransformStuffComponent@@@std@@@std@@QBEIXZ ; std::vector<_TransformStuffComponent,std::allocator<_TransformStuffComponent> >::max_size
; Function compile flags: /Ogty
;	COMDAT ?max_size@?$vector@U_TransformStuffComponent@@V?$allocator@U_TransformStuffComponent@@@std@@@std@@QBEIXZ
_TEXT	SEGMENT
?max_size@?$vector@U_TransformStuffComponent@@V?$allocator@U_TransformStuffComponent@@@std@@@std@@QBEIXZ PROC NEAR ; std::vector<_TransformStuffComponent,std::allocator<_TransformStuffComponent> >::max_size, COMDAT
; _this$ = ecx

; 521  : 		return (this->_Alval.max_size());

  00000	b8 ff ff ff 1f	 mov	 eax, 536870911		; 1fffffffH

; 522  : 		}

  00005	c3		 ret	 0
?max_size@?$vector@U_TransformStuffComponent@@V?$allocator@U_TransformStuffComponent@@@std@@@std@@QBEIXZ ENDP ; std::vector<_TransformStuffComponent,std::allocator<_TransformStuffComponent> >::max_size
_TEXT	ENDS
PUBLIC	?allocate@?$allocator@U_TransformStuffComponent@@@std@@QAEPAU_TransformStuffComponent@@I@Z ; std::allocator<_TransformStuffComponent>::allocate
; Function compile flags: /Ogty
; File c:\program files\microsoft visual studio .net 2003\vc7\include\xmemory
;	COMDAT ?allocate@?$allocator@U_TransformStuffComponent@@@std@@QAEPAU_TransformStuffComponent@@I@Z
_TEXT	SEGMENT
__Count$ = 8						; size = 4
?allocate@?$allocator@U_TransformStuffComponent@@@std@@QAEPAU_TransformStuffComponent@@I@Z PROC NEAR ; std::allocator<_TransformStuffComponent>::allocate, COMDAT
; _this$ = ecx

; 137  : 		return (_Allocate(_Count, (pointer)0));

  00000	8b 44 24 04	 mov	 eax, DWORD PTR __Count$[esp-4]
  00004	8d 0c c5 00 00
	00 00		 lea	 ecx, DWORD PTR [eax*8]
  0000b	51		 push	 ecx
  0000c	e8 00 00 00 00	 call	 ??2@YAPAXI@Z		; operator new
  00011	83 c4 04	 add	 esp, 4

; 138  : 		}

  00014	c2 04 00	 ret	 4
?allocate@?$allocator@U_TransformStuffComponent@@@std@@QAEPAU_TransformStuffComponent@@I@Z ENDP ; std::allocator<_TransformStuffComponent>::allocate
_TEXT	ENDS
PUBLIC	??Giterator@?$vector@U_TransformStuffComponent@@V?$allocator@U_TransformStuffComponent@@@std@@@std@@QBEHABVconst_iterator@12@@Z ; std::vector<_TransformStuffComponent,std::allocator<_TransformStuffComponent> >::iterator::operator-
; Function compile flags: /Ogty
; File c:\program files\microsoft visual studio .net 2003\vc7\include\vector
;	COMDAT ??Giterator@?$vector@U_TransformStuffComponent@@V?$allocator@U_TransformStuffComponent@@@std@@@std@@QBEHABVconst_iterator@12@@Z
_TEXT	SEGMENT
__Right$ = 8						; size = 4
??Giterator@?$vector@U_TransformStuffComponent@@V?$allocator@U_TransformStuffComponent@@@std@@@std@@QBEHABVconst_iterator@12@@Z PROC NEAR ; std::vector<_TransformStuffComponent,std::allocator<_TransformStuffComponent> >::iterator::operator-, COMDAT
; _this$ = ecx

; 279  : 			return ((const_iterator)*this - _Right);

  00000	8b 01		 mov	 eax, DWORD PTR [ecx]
  00002	8b 4c 24 04	 mov	 ecx, DWORD PTR __Right$[esp-4]
  00006	2b 01		 sub	 eax, DWORD PTR [ecx]
  00008	c1 f8 03	 sar	 eax, 3

; 280  : 			}

  0000b	c2 04 00	 ret	 4
??Giterator@?$vector@U_TransformStuffComponent@@V?$allocator@U_TransformStuffComponent@@@std@@@std@@QBEHABVconst_iterator@12@@Z ENDP ; std::vector<_TransformStuffComponent,std::allocator<_TransformStuffComponent> >::iterator::operator-
_TEXT	ENDS
PUBLIC	??Hiterator@?$vector@U_FEEDENERGY@@V?$allocator@U_FEEDENERGY@@@std@@@std@@QBE?AV012@H@Z ; std::vector<_FEEDENERGY,std::allocator<_FEEDENERGY> >::iterator::operator+
; Function compile flags: /Ogty
;	COMDAT ??Hiterator@?$vector@U_FEEDENERGY@@V?$allocator@U_FEEDENERGY@@@std@@@std@@QBE?AV012@H@Z
_TEXT	SEGMENT
___$ReturnUdt$ = 8					; size = 4
__Off$ = 12						; size = 4
??Hiterator@?$vector@U_FEEDENERGY@@V?$allocator@U_FEEDENERGY@@@std@@@std@@QBE?AV012@H@Z PROC NEAR ; std::vector<_FEEDENERGY,std::allocator<_FEEDENERGY> >::iterator::operator+, COMDAT
; _this$ = ecx

; 262  : 			iterator _Tmp = *this;
; 263  : 			return (_Tmp += _Off);

  00000	8b 44 24 08	 mov	 eax, DWORD PTR __Off$[esp-4]
  00004	8b 09		 mov	 ecx, DWORD PTR [ecx]
  00006	8d 04 40	 lea	 eax, DWORD PTR [eax+eax*2]
  00009	8d 14 81	 lea	 edx, DWORD PTR [ecx+eax*4]
  0000c	8b 44 24 04	 mov	 eax, DWORD PTR ___$ReturnUdt$[esp-4]
  00010	89 10		 mov	 DWORD PTR [eax], edx

; 264  : 			}

  00012	c2 08 00	 ret	 8
??Hiterator@?$vector@U_FEEDENERGY@@V?$allocator@U_FEEDENERGY@@@std@@@std@@QBE?AV012@H@Z ENDP ; std::vector<_FEEDENERGY,std::allocator<_FEEDENERGY> >::iterator::operator+
_TEXT	ENDS
PUBLIC	??Giterator@?$vector@U_FEEDENERGY@@V?$allocator@U_FEEDENERGY@@@std@@@std@@QBEHABVconst_iterator@12@@Z ; std::vector<_FEEDENERGY,std::allocator<_FEEDENERGY> >::iterator::operator-
; Function compile flags: /Ogty
;	COMDAT ??Giterator@?$vector@U_FEEDENERGY@@V?$allocator@U_FEEDENERGY@@@std@@@std@@QBEHABVconst_iterator@12@@Z
_TEXT	SEGMENT
__Right$ = 8						; size = 4
??Giterator@?$vector@U_FEEDENERGY@@V?$allocator@U_FEEDENERGY@@@std@@@std@@QBEHABVconst_iterator@12@@Z PROC NEAR ; std::vector<_FEEDENERGY,std::allocator<_FEEDENERGY> >::iterator::operator-, COMDAT
; _this$ = ecx

; 279  : 			return ((const_iterator)*this - _Right);

  00000	8b 01		 mov	 eax, DWORD PTR [ecx]
  00002	8b 4c 24 04	 mov	 ecx, DWORD PTR __Right$[esp-4]
  00006	2b 01		 sub	 eax, DWORD PTR [ecx]
  00008	8b c8		 mov	 ecx, eax
  0000a	b8 ab aa aa 2a	 mov	 eax, 715827883		; 2aaaaaabH
  0000f	f7 e9		 imul	 ecx
  00011	d1 fa		 sar	 edx, 1
  00013	8b c2		 mov	 eax, edx
  00015	c1 e8 1f	 shr	 eax, 31			; 0000001fH
  00018	03 c2		 add	 eax, edx

; 280  : 			}

  0001a	c2 04 00	 ret	 4
??Giterator@?$vector@U_FEEDENERGY@@V?$allocator@U_FEEDENERGY@@@std@@@std@@QBEHABVconst_iterator@12@@Z ENDP ; std::vector<_FEEDENERGY,std::allocator<_FEEDENERGY> >::iterator::operator-
_TEXT	ENDS
PUBLIC	??0iterator@?$vector@GV?$allocator@G@std@@@std@@QAE@PAG@Z ; std::vector<unsigned short,std::allocator<unsigned short> >::iterator::iterator
; Function compile flags: /Ogty
;	COMDAT ??0iterator@?$vector@GV?$allocator@G@std@@@std@@QAE@PAG@Z
_TEXT	SEGMENT
__Ptr$ = 8						; size = 4
??0iterator@?$vector@GV?$allocator@G@std@@@std@@QAE@PAG@Z PROC NEAR ; std::vector<unsigned short,std::allocator<unsigned short> >::iterator::iterator, COMDAT
; _this$ = ecx

; 215  : 			{	// construct with pointer _Ptr

  00000	8b c1		 mov	 eax, ecx
  00002	8b 4c 24 04	 mov	 ecx, DWORD PTR __Ptr$[esp-4]
  00006	89 08		 mov	 DWORD PTR [eax], ecx

; 216  : 			}

  00008	c2 04 00	 ret	 4
??0iterator@?$vector@GV?$allocator@G@std@@@std@@QAE@PAG@Z ENDP ; std::vector<unsigned short,std::allocator<unsigned short> >::iterator::iterator
_TEXT	ENDS
PUBLIC	??Giterator@?$vector@GV?$allocator@G@std@@@std@@QBEHABVconst_iterator@12@@Z ; std::vector<unsigned short,std::allocator<unsigned short> >::iterator::operator-
; Function compile flags: /Ogty
;	COMDAT ??Giterator@?$vector@GV?$allocator@G@std@@@std@@QBEHABVconst_iterator@12@@Z
_TEXT	SEGMENT
__Right$ = 8						; size = 4
??Giterator@?$vector@GV?$allocator@G@std@@@std@@QBEHABVconst_iterator@12@@Z PROC NEAR ; std::vector<unsigned short,std::allocator<unsigned short> >::iterator::operator-, COMDAT
; _this$ = ecx

; 279  : 			return ((const_iterator)*this - _Right);

  00000	8b 01		 mov	 eax, DWORD PTR [ecx]
  00002	8b 4c 24 04	 mov	 ecx, DWORD PTR __Right$[esp-4]
  00006	2b 01		 sub	 eax, DWORD PTR [ecx]
  00008	d1 f8		 sar	 eax, 1

; 280  : 			}

  0000a	c2 04 00	 ret	 4
??Giterator@?$vector@GV?$allocator@G@std@@@std@@QBEHABVconst_iterator@12@@Z ENDP ; std::vector<unsigned short,std::allocator<unsigned short> >::iterator::operator-
_TEXT	ENDS
PUBLIC	??$copy_backward@PAU_FEEDENERGY@@PAU1@@std@@YAPAU_FEEDENERGY@@PAU1@00@Z ; std::copy_backward<_FEEDENERGY *,_FEEDENERGY *>
; Function compile flags: /Ogty
; File c:\program files\microsoft visual studio .net 2003\vc7\include\xutility
;	COMDAT ??$copy_backward@PAU_FEEDENERGY@@PAU1@@std@@YAPAU_FEEDENERGY@@PAU1@00@Z
_TEXT	SEGMENT
__Cat$192050 = -4					; size = 1
__First$ = 8						; size = 4
__Last$ = 12						; size = 4
__Dest$ = 16						; size = 4
??$copy_backward@PAU_FEEDENERGY@@PAU1@@std@@YAPAU_FEEDENERGY@@PAU1@00@Z PROC NEAR ; std::copy_backward<_FEEDENERGY *,_FEEDENERGY *>, COMDAT

; 1067 : 	{	// copy [_First, _Last) backwards to [..., _Dest)

  00000	51		 push	 ecx

; 1068 : 	return (_Copy_backward_opt(_First, _Last, _Dest,
; 1069 : 		_Ptr_cat(_First, _Dest)));

  00001	8b 04 24	 mov	 eax, DWORD PTR __Cat$192050[esp+4]
  00004	8b 4c 24 10	 mov	 ecx, DWORD PTR __Dest$[esp]
  00008	8b 54 24 0c	 mov	 edx, DWORD PTR __Last$[esp]
  0000c	50		 push	 eax
  0000d	8b 44 24 0c	 mov	 eax, DWORD PTR __First$[esp+4]
  00011	51		 push	 ecx
  00012	52		 push	 edx
  00013	50		 push	 eax
  00014	e8 00 00 00 00	 call	 ??$_Copy_backward_opt@PAU_FEEDENERGY@@PAU1@@std@@YAPAU_FEEDENERGY@@PAU1@00U_Nonscalar_ptr_iterator_tag@0@@Z ; std::_Copy_backward_opt<_FEEDENERGY *,_FEEDENERGY *>

; 1070 : 	}

  00019	83 c4 14	 add	 esp, 20			; 00000014H
  0001c	c3		 ret	 0
??$copy_backward@PAU_FEEDENERGY@@PAU1@@std@@YAPAU_FEEDENERGY@@PAU1@00@Z ENDP ; std::copy_backward<_FEEDENERGY *,_FEEDENERGY *>
_TEXT	ENDS
PUBLIC	??$_Destroy_range@GV?$allocator@G@std@@@std@@YAXPAG0AAV?$allocator@G@0@@Z ; std::_Destroy_range<unsigned short,std::allocator<unsigned short> >
; Function compile flags: /Ogty
; File c:\program files\microsoft visual studio .net 2003\vc7\include\xmemory
;	COMDAT ??$_Destroy_range@GV?$allocator@G@std@@@std@@YAXPAG0AAV?$allocator@G@0@@Z
_TEXT	SEGMENT
__First$ = 8						; size = 4
__Last$ = 12						; size = 4
__Al$ = 16						; size = 4
??$_Destroy_range@GV?$allocator@G@std@@@std@@YAXPAG0AAV?$allocator@G@0@@Z PROC NEAR ; std::_Destroy_range<unsigned short,std::allocator<unsigned short> >, COMDAT

; 217  : 	_Destroy_range(_First, _Last, _Al, _Ptr_cat(_First, _Last));
; 218  : 	}

  00000	c3		 ret	 0
??$_Destroy_range@GV?$allocator@G@std@@@std@@YAXPAG0AAV?$allocator@G@0@@Z ENDP ; std::_Destroy_range<unsigned short,std::allocator<unsigned short> >
_TEXT	ENDS
PUBLIC	??$copy_backward@PAGPAG@std@@YAPAGPAG00@Z	; std::copy_backward<unsigned short *,unsigned short *>
; Function compile flags: /Ogty
; File c:\program files\microsoft visual studio .net 2003\vc7\include\xutility
;	COMDAT ??$copy_backward@PAGPAG@std@@YAPAGPAG00@Z
_TEXT	SEGMENT
__First$ = 8						; size = 4
__Last$ = 12						; size = 4
__Dest$ = 16						; size = 4
??$copy_backward@PAGPAG@std@@YAPAGPAG00@Z PROC NEAR	; std::copy_backward<unsigned short *,unsigned short *>, COMDAT

; 1068 : 	return (_Copy_backward_opt(_First, _Last, _Dest,
; 1069 : 		_Ptr_cat(_First, _Dest)));

  00000	8b 4c 24 04	 mov	 ecx, DWORD PTR __First$[esp-4]
  00004	8b 44 24 08	 mov	 eax, DWORD PTR __Last$[esp-4]
  00008	2b c1		 sub	 eax, ecx
  0000a	d1 f8		 sar	 eax, 1
  0000c	03 c0		 add	 eax, eax
  0000e	50		 push	 eax
  0000f	51		 push	 ecx
  00010	8b 4c 24 14	 mov	 ecx, DWORD PTR __Dest$[esp+4]
  00014	2b c8		 sub	 ecx, eax
  00016	51		 push	 ecx
  00017	e8 00 00 00 00	 call	 _memmove
  0001c	83 c4 0c	 add	 esp, 12			; 0000000cH

; 1070 : 	}

  0001f	c3		 ret	 0
??$copy_backward@PAGPAG@std@@YAPAGPAG00@Z ENDP		; std::copy_backward<unsigned short *,unsigned short *>
_TEXT	ENDS
PUBLIC	??$copy_backward@PAU_TransformStuffComponent@@PAU1@@std@@YAPAU_TransformStuffComponent@@PAU1@00@Z ; std::copy_backward<_TransformStuffComponent *,_TransformStuffComponent *>
; Function compile flags: /Ogty
;	COMDAT ??$copy_backward@PAU_TransformStuffComponent@@PAU1@@std@@YAPAU_TransformStuffComponent@@PAU1@00@Z
_TEXT	SEGMENT
__First$ = 8						; size = 4
__Last$ = 12						; size = 4
__Dest$ = 16						; size = 4
??$copy_backward@PAU_TransformStuffComponent@@PAU1@@std@@YAPAU_TransformStuffComponent@@PAU1@00@Z PROC NEAR ; std::copy_backward<_TransformStuffComponent *,_TransformStuffComponent *>, COMDAT

; 1068 : 	return (_Copy_backward_opt(_First, _Last, _Dest,
; 1069 : 		_Ptr_cat(_First, _Dest)));

  00000	8b 4c 24 08	 mov	 ecx, DWORD PTR __Last$[esp-4]
  00004	8b 54 24 04	 mov	 edx, DWORD PTR __First$[esp-4]
  00008	3b d1		 cmp	 edx, ecx
  0000a	8b 44 24 0c	 mov	 eax, DWORD PTR __Dest$[esp-4]
  0000e	74 17		 je	 SHORT $L192084
  00010	56		 push	 esi
$L192083:
  00011	8b 71 f8	 mov	 esi, DWORD PTR [ecx-8]
  00014	83 e9 08	 sub	 ecx, 8
  00017	83 e8 08	 sub	 eax, 8
  0001a	3b ca		 cmp	 ecx, edx
  0001c	89 30		 mov	 DWORD PTR [eax], esi
  0001e	8b 71 04	 mov	 esi, DWORD PTR [ecx+4]
  00021	89 70 04	 mov	 DWORD PTR [eax+4], esi
  00024	75 eb		 jne	 SHORT $L192083
  00026	5e		 pop	 esi
$L192084:

; 1070 : 	}

  00027	c3		 ret	 0
??$copy_backward@PAU_TransformStuffComponent@@PAU1@@std@@YAPAU_TransformStuffComponent@@PAU1@00@Z ENDP ; std::copy_backward<_TransformStuffComponent *,_TransformStuffComponent *>
_TEXT	ENDS
PUBLIC	??$_Uninit_fill_n@GIG@std@@YAXPAGIABGAAV?$allocator@G@0@U_Scalar_ptr_iterator_tag@0@@Z ; std::_Uninit_fill_n<unsigned short,unsigned int,unsigned short>
; Function compile flags: /Ogty
; File c:\program files\microsoft visual studio .net 2003\vc7\include\memory
;	COMDAT ??$_Uninit_fill_n@GIG@std@@YAXPAGIABGAAV?$allocator@G@0@U_Scalar_ptr_iterator_tag@0@@Z
_TEXT	SEGMENT
__First$ = 8						; size = 4
__Count$ = 12						; size = 4
__Val$ = 16						; size = 4
___formal$ = 20						; size = 4
___formal$ = 24						; size = 1
??$_Uninit_fill_n@GIG@std@@YAXPAGIABGAAV?$allocator@G@0@U_Scalar_ptr_iterator_tag@0@@Z PROC NEAR ; std::_Uninit_fill_n<unsigned short,unsigned int,unsigned short>, COMDAT

; 237  : 	fill_n(_First, _Count, _Val);

  00000	8b 4c 24 08	 mov	 ecx, DWORD PTR __Count$[esp-4]
  00004	85 c9		 test	 ecx, ecx
  00006	8b 44 24 04	 mov	 eax, DWORD PTR __First$[esp-4]
  0000a	76 12		 jbe	 SHORT $L192098
  0000c	8b 54 24 0c	 mov	 edx, DWORD PTR __Val$[esp-4]
  00010	56		 push	 esi
$L192096:
  00011	66 8b 32	 mov	 si, WORD PTR [edx]
  00014	66 89 30	 mov	 WORD PTR [eax], si
  00017	83 c0 02	 add	 eax, 2
  0001a	49		 dec	 ecx
  0001b	75 f4		 jne	 SHORT $L192096
  0001d	5e		 pop	 esi
$L192098:

; 238  : 	}

  0001e	c3		 ret	 0
??$_Uninit_fill_n@GIG@std@@YAXPAGIABGAAV?$allocator@G@0@U_Scalar_ptr_iterator_tag@0@@Z ENDP ; std::_Uninit_fill_n<unsigned short,unsigned int,unsigned short>
_TEXT	ENDS
PUBLIC	??$_Uninitialized_copy@PAGPAGV?$allocator@G@std@@@std@@YAPAGPAG00AAV?$allocator@G@0@@Z ; std::_Uninitialized_copy<unsigned short *,unsigned short *,std::allocator<unsigned short> >
; Function compile flags: /Ogty
;	COMDAT ??$_Uninitialized_copy@PAGPAGV?$allocator@G@std@@@std@@YAPAGPAG00AAV?$allocator@G@0@@Z
_TEXT	SEGMENT
__First$ = 8						; size = 4
__Last$ = 12						; size = 4
__Dest$ = 16						; size = 4
__Al$ = 20						; size = 4
??$_Uninitialized_copy@PAGPAGV?$allocator@G@std@@@std@@YAPAGPAG00AAV?$allocator@G@0@@Z PROC NEAR ; std::_Uninitialized_copy<unsigned short *,unsigned short *,std::allocator<unsigned short> >, COMDAT

; 127  : 	return (_Uninit_copy(_First, _Last, _Dest, _Al,
; 128  : 		_Ptr_cat(_First, _Dest)));

  00000	8b 4c 24 04	 mov	 ecx, DWORD PTR __First$[esp-4]
  00004	8b 44 24 08	 mov	 eax, DWORD PTR __Last$[esp-4]
  00008	2b c1		 sub	 eax, ecx
  0000a	56		 push	 esi
  0000b	d1 f8		 sar	 eax, 1
  0000d	8d 34 00	 lea	 esi, DWORD PTR [eax+eax]
  00010	8b 44 24 10	 mov	 eax, DWORD PTR __Dest$[esp]
  00014	56		 push	 esi
  00015	51		 push	 ecx
  00016	50		 push	 eax
  00017	e8 00 00 00 00	 call	 _memmove
  0001c	83 c4 0c	 add	 esp, 12			; 0000000cH
  0001f	03 c6		 add	 eax, esi
  00021	5e		 pop	 esi

; 129  : 	}

  00022	c3		 ret	 0
??$_Uninitialized_copy@PAGPAGV?$allocator@G@std@@@std@@YAPAGPAG00AAV?$allocator@G@0@@Z ENDP ; std::_Uninitialized_copy<unsigned short *,unsigned short *,std::allocator<unsigned short> >
_TEXT	ENDS
PUBLIC	?construct@?$allocator@U_FEEDENERGY@@@std@@QAEXPAU_FEEDENERGY@@ABU3@@Z ; std::allocator<_FEEDENERGY>::construct
; Function compile flags: /Ogty
; File c:\program files\microsoft visual studio .net 2003\vc7\include\xmemory
;	COMDAT ?construct@?$allocator@U_FEEDENERGY@@@std@@QAEXPAU_FEEDENERGY@@ABU3@@Z
_TEXT	SEGMENT
__Ptr$ = 8						; size = 4
__Val$ = 12						; size = 4
?construct@?$allocator@U_FEEDENERGY@@@std@@QAEXPAU_FEEDENERGY@@ABU3@@Z PROC NEAR ; std::allocator<_FEEDENERGY>::construct, COMDAT
; _this$ = ecx

; 147  : 		_Construct(_Ptr, _Val);

  00000	8b 44 24 04	 mov	 eax, DWORD PTR __Ptr$[esp-4]
  00004	85 c0		 test	 eax, eax
  00006	74 14		 je	 SHORT $L192125
  00008	8b 4c 24 08	 mov	 ecx, DWORD PTR __Val$[esp-4]
  0000c	8b 11		 mov	 edx, DWORD PTR [ecx]
  0000e	89 10		 mov	 DWORD PTR [eax], edx
  00010	8b 51 04	 mov	 edx, DWORD PTR [ecx+4]
  00013	89 50 04	 mov	 DWORD PTR [eax+4], edx
  00016	8b 49 08	 mov	 ecx, DWORD PTR [ecx+8]
  00019	89 48 08	 mov	 DWORD PTR [eax+8], ecx
$L192125:

; 148  : 		}

  0001c	c2 08 00	 ret	 8
?construct@?$allocator@U_FEEDENERGY@@@std@@QAEXPAU_FEEDENERGY@@ABU3@@Z ENDP ; std::allocator<_FEEDENERGY>::construct
_TEXT	ENDS
PUBLIC	?destroy@?$allocator@U_FEEDENERGY@@@std@@QAEXPAU_FEEDENERGY@@@Z ; std::allocator<_FEEDENERGY>::destroy
; Function compile flags: /Ogty
;	COMDAT ?destroy@?$allocator@U_FEEDENERGY@@@std@@QAEXPAU_FEEDENERGY@@@Z
_TEXT	SEGMENT
__Ptr$ = 8						; size = 4
?destroy@?$allocator@U_FEEDENERGY@@@std@@QAEXPAU_FEEDENERGY@@@Z PROC NEAR ; std::allocator<_FEEDENERGY>::destroy, COMDAT
; _this$ = ecx

; 152  : 		_Destroy(_Ptr);
; 153  : 		}

  00000	c2 04 00	 ret	 4
?destroy@?$allocator@U_FEEDENERGY@@@std@@QAEXPAU_FEEDENERGY@@@Z ENDP ; std::allocator<_FEEDENERGY>::destroy
_TEXT	ENDS
PUBLIC	?construct@?$allocator@U_TransformStuffComponent@@@std@@QAEXPAU_TransformStuffComponent@@ABU3@@Z ; std::allocator<_TransformStuffComponent>::construct
; Function compile flags: /Ogty
;	COMDAT ?construct@?$allocator@U_TransformStuffComponent@@@std@@QAEXPAU_TransformStuffComponent@@ABU3@@Z
_TEXT	SEGMENT
__Ptr$ = 8						; size = 4
__Val$ = 12						; size = 4
?construct@?$allocator@U_TransformStuffComponent@@@std@@QAEXPAU_TransformStuffComponent@@ABU3@@Z PROC NEAR ; std::allocator<_TransformStuffComponent>::construct, COMDAT
; _this$ = ecx

; 147  : 		_Construct(_Ptr, _Val);

  00000	8b 44 24 04	 mov	 eax, DWORD PTR __Ptr$[esp-4]
  00004	85 c0		 test	 eax, eax
  00006	74 0e		 je	 SHORT $L192146
  00008	8b 4c 24 08	 mov	 ecx, DWORD PTR __Val$[esp-4]
  0000c	8b 11		 mov	 edx, DWORD PTR [ecx]
  0000e	89 10		 mov	 DWORD PTR [eax], edx
  00010	8b 49 04	 mov	 ecx, DWORD PTR [ecx+4]
  00013	89 48 04	 mov	 DWORD PTR [eax+4], ecx
$L192146:

; 148  : 		}

  00016	c2 08 00	 ret	 8
?construct@?$allocator@U_TransformStuffComponent@@@std@@QAEXPAU_TransformStuffComponent@@ABU3@@Z ENDP ; std::allocator<_TransformStuffComponent>::construct
_TEXT	ENDS
PUBLIC	?destroy@?$allocator@U_TransformStuffComponent@@@std@@QAEXPAU_TransformStuffComponent@@@Z ; std::allocator<_TransformStuffComponent>::destroy
; Function compile flags: /Ogty
;	COMDAT ?destroy@?$allocator@U_TransformStuffComponent@@@std@@QAEXPAU_TransformStuffComponent@@@Z
_TEXT	SEGMENT
__Ptr$ = 8						; size = 4
?destroy@?$allocator@U_TransformStuffComponent@@@std@@QAEXPAU_TransformStuffComponent@@@Z PROC NEAR ; std::allocator<_TransformStuffComponent>::destroy, COMDAT
; _this$ = ecx

; 152  : 		_Destroy(_Ptr);
; 153  : 		}

  00000	c2 04 00	 ret	 4
?destroy@?$allocator@U_TransformStuffComponent@@@std@@QAEXPAU_TransformStuffComponent@@@Z ENDP ; std::allocator<_TransformStuffComponent>::destroy
_TEXT	ENDS
PUBLIC	??$_Uninit_copy@PAU_FEEDENERGY@@PAU1@V?$allocator@U_FEEDENERGY@@@std@@@std@@YAPAU_FEEDENERGY@@PAU1@00AAV?$allocator@U_FEEDENERGY@@@0@U_Nonscalar_ptr_iterator_tag@0@@Z ; std::_Uninit_copy<_FEEDENERGY *,_FEEDENERGY *,std::allocator<_FEEDENERGY> >
EXTRN	__CxxThrowException@8:NEAR
; Function compile flags: /Ogty
; File c:\program files\microsoft visual studio .net 2003\vc7\include\memory
;	COMDAT ??$_Uninit_copy@PAU_FEEDENERGY@@PAU1@V?$allocator@U_FEEDENERGY@@@std@@@std@@YAPAU_FEEDENERGY@@PAU1@00AAV?$allocator@U_FEEDENERGY@@@0@U_Nonscalar_ptr_iterator_tag@0@@Z
_TEXT	SEGMENT
__First$ = 8						; size = 4
__Last$ = 12						; size = 4
__Dest$ = 16						; size = 4
__Al$ = 20						; size = 4
___formal$ = 24						; size = 1
??$_Uninit_copy@PAU_FEEDENERGY@@PAU1@V?$allocator@U_FEEDENERGY@@@std@@@std@@YAPAU_FEEDENERGY@@PAU1@00AAV?$allocator@U_FEEDENERGY@@@0@U_Nonscalar_ptr_iterator_tag@0@@Z PROC NEAR ; std::_Uninit_copy<_FEEDENERGY *,_FEEDENERGY *,std::allocator<_FEEDENERGY> >, COMDAT

; 78   : 	_FwdIt _Next = _Dest;
; 79   : 
; 80   : 	_TRY_BEGIN
; 81   : 	for (; _First != _Last; ++_Dest, ++_First)

  00000	8b 4c 24 04	 mov	 ecx, DWORD PTR __First$[esp-4]
  00004	8b 54 24 08	 mov	 edx, DWORD PTR __Last$[esp-4]
  00008	3b ca		 cmp	 ecx, edx
  0000a	8b 44 24 0c	 mov	 eax, DWORD PTR __Dest$[esp-4]
  0000e	74 28		 je	 SHORT $L191202
  00010	53		 push	 ebx
  00011	56		 push	 esi
  00012	57		 push	 edi
$L191200:

; 82   : 		_Al.construct(_Dest, *_First);

  00013	85 c0		 test	 eax, eax
  00015	74 14		 je	 SHORT $L191201
  00017	8b f1		 mov	 esi, ecx
  00019	8b 1e		 mov	 ebx, DWORD PTR [esi]
  0001b	8b f8		 mov	 edi, eax
  0001d	89 1f		 mov	 DWORD PTR [edi], ebx
  0001f	8b 5e 04	 mov	 ebx, DWORD PTR [esi+4]
  00022	89 5f 04	 mov	 DWORD PTR [edi+4], ebx
  00025	8b 76 08	 mov	 esi, DWORD PTR [esi+8]
  00028	89 77 08	 mov	 DWORD PTR [edi+8], esi
$L191201:
  0002b	83 c1 0c	 add	 ecx, 12			; 0000000cH
  0002e	83 c0 0c	 add	 eax, 12			; 0000000cH
  00031	3b ca		 cmp	 ecx, edx
  00033	75 de		 jne	 SHORT $L191200
  00035	5f		 pop	 edi
  00036	5e		 pop	 esi
  00037	5b		 pop	 ebx
$L191202:

; 83   : 	_CATCH_ALL
; 84   : 	for (; _Next != _Dest; ++_Next)
; 85   : 		_Al.destroy(_Next);
; 86   : 	_RERAISE;
; 87   : 	_CATCH_END
; 88   : 	return (_Dest);
; 89   : 	}

  00038	c3		 ret	 0
??$_Uninit_copy@PAU_FEEDENERGY@@PAU1@V?$allocator@U_FEEDENERGY@@@std@@@std@@YAPAU_FEEDENERGY@@PAU1@00AAV?$allocator@U_FEEDENERGY@@@0@U_Nonscalar_ptr_iterator_tag@0@@Z ENDP ; std::_Uninit_copy<_FEEDENERGY *,_FEEDENERGY *,std::allocator<_FEEDENERGY> >
_TEXT	ENDS
PUBLIC	??$_Uninit_copy@PAU_TransformStuffComponent@@PAU1@V?$allocator@U_TransformStuffComponent@@@std@@@std@@YAPAU_TransformStuffComponent@@PAU1@00AAV?$allocator@U_TransformStuffComponent@@@0@U_Nonscalar_ptr_iterator_tag@0@@Z ; std::_Uninit_copy<_TransformStuffComponent *,_TransformStuffComponent *,std::allocator<_TransformStuffComponent> >
; Function compile flags: /Ogty
;	COMDAT ??$_Uninit_copy@PAU_TransformStuffComponent@@PAU1@V?$allocator@U_TransformStuffComponent@@@std@@@std@@YAPAU_TransformStuffComponent@@PAU1@00AAV?$allocator@U_TransformStuffComponent@@@0@U_Nonscalar_ptr_iterator_tag@0@@Z
_TEXT	SEGMENT
__First$ = 8						; size = 4
__Last$ = 12						; size = 4
__Dest$ = 16						; size = 4
__Al$ = 20						; size = 4
___formal$ = 24						; size = 1
??$_Uninit_copy@PAU_TransformStuffComponent@@PAU1@V?$allocator@U_TransformStuffComponent@@@std@@@std@@YAPAU_TransformStuffComponent@@PAU1@00AAV?$allocator@U_TransformStuffComponent@@@0@U_Nonscalar_ptr_iterator_tag@0@@Z PROC NEAR ; std::_Uninit_copy<_TransformStuffComponent *,_TransformStuffComponent *,std::allocator<_TransformStuffComponent> >, COMDAT

; 78   : 	_FwdIt _Next = _Dest;
; 79   : 
; 80   : 	_TRY_BEGIN
; 81   : 	for (; _First != _Last; ++_Dest, ++_First)

  00000	8b 4c 24 04	 mov	 ecx, DWORD PTR __First$[esp-4]
  00004	8b 54 24 08	 mov	 edx, DWORD PTR __Last$[esp-4]
  00008	3b ca		 cmp	 ecx, edx
  0000a	8b 44 24 0c	 mov	 eax, DWORD PTR __Dest$[esp-4]
  0000e	74 1a		 je	 SHORT $L191215
  00010	56		 push	 esi
$L191213:

; 82   : 		_Al.construct(_Dest, *_First);

  00011	85 c0		 test	 eax, eax
  00013	74 0a		 je	 SHORT $L191214
  00015	8b 31		 mov	 esi, DWORD PTR [ecx]
  00017	89 30		 mov	 DWORD PTR [eax], esi
  00019	8b 71 04	 mov	 esi, DWORD PTR [ecx+4]
  0001c	89 70 04	 mov	 DWORD PTR [eax+4], esi
$L191214:
  0001f	83 c1 08	 add	 ecx, 8
  00022	83 c0 08	 add	 eax, 8
  00025	3b ca		 cmp	 ecx, edx
  00027	75 e8		 jne	 SHORT $L191213
  00029	5e		 pop	 esi
$L191215:

; 83   : 	_CATCH_ALL
; 84   : 	for (; _Next != _Dest; ++_Next)
; 85   : 		_Al.destroy(_Next);
; 86   : 	_RERAISE;
; 87   : 	_CATCH_END
; 88   : 	return (_Dest);
; 89   : 	}

  0002a	c3		 ret	 0
??$_Uninit_copy@PAU_TransformStuffComponent@@PAU1@V?$allocator@U_TransformStuffComponent@@@std@@@std@@YAPAU_TransformStuffComponent@@PAU1@00AAV?$allocator@U_TransformStuffComponent@@@0@U_Nonscalar_ptr_iterator_tag@0@@Z ENDP ; std::_Uninit_copy<_TransformStuffComponent *,_TransformStuffComponent *,std::allocator<_TransformStuffComponent> >
_TEXT	ENDS
PUBLIC	??6CAr@@QAEAAV0@H@Z				; CAr::operator<<
; Function compile flags: /Ogty
; File c:\documents and settings\test\mes documents\source\virtuos_v17\build\program\_network\misc\include\ar.h
;	COMDAT ??6CAr@@QAEAAV0@H@Z
_TEXT	SEGMENT
_i$ = 8							; size = 4
??6CAr@@QAEAAV0@H@Z PROC NEAR				; CAr::operator<<, COMDAT
; _this$ = ecx

; 99   : 	{ return CAr::operator<<((LONG)i); }

  00000	56		 push	 esi
  00001	6a 04		 push	 4
  00003	8b f1		 mov	 esi, ecx
  00005	e8 00 00 00 00	 call	 ?CheckBuf@CAr@@QAEXI@Z	; CAr::CheckBuf
  0000a	8b 46 08	 mov	 eax, DWORD PTR [esi+8]
  0000d	8b 4c 24 08	 mov	 ecx, DWORD PTR _i$[esp]
  00011	89 08		 mov	 DWORD PTR [eax], ecx
  00013	83 46 08 04	 add	 DWORD PTR [esi+8], 4
  00017	8b c6		 mov	 eax, esi
  00019	5e		 pop	 esi
  0001a	c2 04 00	 ret	 4
??6CAr@@QAEAAV0@H@Z ENDP				; CAr::operator<<
_TEXT	ENDS
PUBLIC	??6CAr@@QAEAAV0@I@Z				; CAr::operator<<
; Function compile flags: /Ogty
;	COMDAT ??6CAr@@QAEAAV0@I@Z
_TEXT	SEGMENT
_u$ = 8							; size = 4
??6CAr@@QAEAAV0@I@Z PROC NEAR				; CAr::operator<<, COMDAT
; _this$ = ecx

; 101  : 	{ return CAr::operator<<((LONG)u); }

  00000	56		 push	 esi
  00001	6a 04		 push	 4
  00003	8b f1		 mov	 esi, ecx
  00005	e8 00 00 00 00	 call	 ?CheckBuf@CAr@@QAEXI@Z	; CAr::CheckBuf
  0000a	8b 46 08	 mov	 eax, DWORD PTR [esi+8]
  0000d	8b 4c 24 08	 mov	 ecx, DWORD PTR _u$[esp]
  00011	89 08		 mov	 DWORD PTR [eax], ecx
  00013	83 46 08 04	 add	 DWORD PTR [esi+8], 4
  00017	8b c6		 mov	 eax, esi
  00019	5e		 pop	 esi
  0001a	c2 04 00	 ret	 4
??6CAr@@QAEAAV0@I@Z ENDP				; CAr::operator<<
_TEXT	ENDS
PUBLIC	??5CAr@@QAEAAV0@AAH@Z				; CAr::operator>>
; Function compile flags: /Ogty
;	COMDAT ??5CAr@@QAEAAV0@AAH@Z
_TEXT	SEGMENT
_i$ = 8							; size = 4
??5CAr@@QAEAAV0@AAH@Z PROC NEAR				; CAr::operator>>, COMDAT
; _this$ = ecx

; 126  : 	{ return CAr::operator>>((LONG&)i); }

  00000	8b c1		 mov	 eax, ecx
  00002	8b 48 08	 mov	 ecx, DWORD PTR [eax+8]
  00005	56		 push	 esi
  00006	8b 70 0c	 mov	 esi, DWORD PTR [eax+12]
  00009	8d 51 04	 lea	 edx, DWORD PTR [ecx+4]
  0000c	3b d6		 cmp	 edx, esi
  0000e	5e		 pop	 esi
  0000f	77 0f		 ja	 SHORT $L192239
  00011	8b 09		 mov	 ecx, DWORD PTR [ecx]
  00013	8b 54 24 04	 mov	 edx, DWORD PTR _i$[esp-4]
  00017	89 0a		 mov	 DWORD PTR [edx], ecx
  00019	83 40 08 04	 add	 DWORD PTR [eax+8], 4
  0001d	c2 04 00	 ret	 4
$L192239:
  00020	8b 4c 24 04	 mov	 ecx, DWORD PTR _i$[esp-4]
  00024	c7 01 00 00 00
	00		 mov	 DWORD PTR [ecx], 0
  0002a	8b 50 0c	 mov	 edx, DWORD PTR [eax+12]
  0002d	89 50 08	 mov	 DWORD PTR [eax+8], edx
  00030	c2 04 00	 ret	 4
??5CAr@@QAEAAV0@AAH@Z ENDP				; CAr::operator>>
_TEXT	ENDS
PUBLIC	??5CAr@@QAEAAV0@AAI@Z				; CAr::operator>>
; Function compile flags: /Ogty
;	COMDAT ??5CAr@@QAEAAV0@AAI@Z
_TEXT	SEGMENT
_u$ = 8							; size = 4
??5CAr@@QAEAAV0@AAI@Z PROC NEAR				; CAr::operator>>, COMDAT
; _this$ = ecx

; 128  : 	{ return CAr::operator>>((LONG&)u); }

  00000	8b c1		 mov	 eax, ecx
  00002	8b 48 08	 mov	 ecx, DWORD PTR [eax+8]
  00005	56		 push	 esi
  00006	8b 70 0c	 mov	 esi, DWORD PTR [eax+12]
  00009	8d 51 04	 lea	 edx, DWORD PTR [ecx+4]
  0000c	3b d6		 cmp	 edx, esi
  0000e	5e		 pop	 esi
  0000f	77 0f		 ja	 SHORT $L192246
  00011	8b 09		 mov	 ecx, DWORD PTR [ecx]
  00013	8b 54 24 04	 mov	 edx, DWORD PTR _u$[esp-4]
  00017	89 0a		 mov	 DWORD PTR [edx], ecx
  00019	83 40 08 04	 add	 DWORD PTR [eax+8], 4
  0001d	c2 04 00	 ret	 4
$L192246:
  00020	8b 4c 24 04	 mov	 ecx, DWORD PTR _u$[esp-4]
  00024	c7 01 00 00 00
	00		 mov	 DWORD PTR [ecx], 0
  0002a	8b 50 0c	 mov	 edx, DWORD PTR [eax+12]
  0002d	89 50 08	 mov	 DWORD PTR [eax+8], edx
  00030	c2 04 00	 ret	 4
??5CAr@@QAEAAV0@AAI@Z ENDP				; CAr::operator>>
_TEXT	ENDS
PUBLIC	??0?$_String_val@DV?$allocator@D@std@@@std@@IAE@V?$allocator@D@1@@Z ; std::_String_val<char,std::allocator<char> >::_String_val<char,std::allocator<char> >
; Function compile flags: /Ogty
; File c:\program files\microsoft visual studio .net 2003\vc7\include\xstring
;	COMDAT ??0?$_String_val@DV?$allocator@D@std@@@std@@IAE@V?$allocator@D@1@@Z
_TEXT	SEGMENT
__Al$ = 8						; size = 1
??0?$_String_val@DV?$allocator@D@std@@@std@@IAE@V?$allocator@D@1@@Z PROC NEAR ; std::_String_val<char,std::allocator<char> >::_String_val<char,std::allocator<char> >, COMDAT
; _this$ = ecx

; 34   : 		{	// construct allocator from _Al

  00000	8b c1		 mov	 eax, ecx

; 35   : 		}

  00002	c2 04 00	 ret	 4
??0?$_String_val@DV?$allocator@D@std@@@std@@IAE@V?$allocator@D@1@@Z ENDP ; std::_String_val<char,std::allocator<char> >::_String_val<char,std::allocator<char> >
_TEXT	ENDS
PUBLIC	??Diterator@?$vector@U_TransformStuffComponent@@V?$allocator@U_TransformStuffComponent@@@std@@@std@@QBEAAU_TransformStuffComponent@@XZ ; std::vector<_TransformStuffComponent,std::allocator<_TransformStuffComponent> >::iterator::operator*
; Function compile flags: /Ogty
; File c:\program files\microsoft visual studio .net 2003\vc7\include\vector
;	COMDAT ??Diterator@?$vector@U_TransformStuffComponent@@V?$allocator@U_TransformStuffComponent@@@std@@@std@@QBEAAU_TransformStuffComponent@@XZ
_TEXT	SEGMENT
??Diterator@?$vector@U_TransformStuffComponent@@V?$allocator@U_TransformStuffComponent@@@std@@@std@@QBEAAU_TransformStuffComponent@@XZ PROC NEAR ; std::vector<_TransformStuffComponent,std::allocator<_TransformStuffComponent> >::iterator::operator*, COMDAT
; _this$ = ecx

; 220  : 			return ((reference)**(const_iterator *)this);

  00000	8b 01		 mov	 eax, DWORD PTR [ecx]

; 221  : 			}

  00002	c3		 ret	 0
??Diterator@?$vector@U_TransformStuffComponent@@V?$allocator@U_TransformStuffComponent@@@std@@@std@@QBEAAU_TransformStuffComponent@@XZ ENDP ; std::vector<_TransformStuffComponent,std::allocator<_TransformStuffComponent> >::iterator::operator*
_TEXT	ENDS
PUBLIC	??Hiterator@?$vector@U_TransformStuffComponent@@V?$allocator@U_TransformStuffComponent@@@std@@@std@@QBE?AV012@H@Z ; std::vector<_TransformStuffComponent,std::allocator<_TransformStuffComponent> >::iterator::operator+
; Function compile flags: /Ogty
;	COMDAT ??Hiterator@?$vector@U_TransformStuffComponent@@V?$allocator@U_TransformStuffComponent@@@std@@@std@@QBE?AV012@H@Z
_TEXT	SEGMENT
___$ReturnUdt$ = 8					; size = 4
__Off$ = 12						; size = 4
??Hiterator@?$vector@U_TransformStuffComponent@@V?$allocator@U_TransformStuffComponent@@@std@@@std@@QBE?AV012@H@Z PROC NEAR ; std::vector<_TransformStuffComponent,std::allocator<_TransformStuffComponent> >::iterator::operator+, COMDAT
; _this$ = ecx

; 262  : 			iterator _Tmp = *this;
; 263  : 			return (_Tmp += _Off);

  00000	8b 01		 mov	 eax, DWORD PTR [ecx]
  00002	8b 4c 24 08	 mov	 ecx, DWORD PTR __Off$[esp-4]
  00006	8d 14 c8	 lea	 edx, DWORD PTR [eax+ecx*8]
  00009	8b 44 24 04	 mov	 eax, DWORD PTR ___$ReturnUdt$[esp-4]
  0000d	89 10		 mov	 DWORD PTR [eax], edx

; 264  : 			}

  0000f	c2 08 00	 ret	 8
??Hiterator@?$vector@U_TransformStuffComponent@@V?$allocator@U_TransformStuffComponent@@@std@@@std@@QBE?AV012@H@Z ENDP ; std::vector<_TransformStuffComponent,std::allocator<_TransformStuffComponent> >::iterator::operator+
_TEXT	ENDS
PUBLIC	?_Eos@?$basic_string@DU?$char_traits@D@std@@V?$allocator@D@2@@std@@IAEXI@Z ; std::basic_string<char,std::char_traits<char>,std::allocator<char> >::_Eos
; Function compile flags: /Ogty
; File c:\program files\microsoft visual studio .net 2003\vc7\include\xstring
;	COMDAT ?_Eos@?$basic_string@DU?$char_traits@D@std@@V?$allocator@D@2@@std@@IAEXI@Z
_TEXT	SEGMENT
__Newsize$ = 8						; size = 4
?_Eos@?$basic_string@DU?$char_traits@D@std@@V?$allocator@D@2@@std@@IAEXI@Z PROC NEAR ; std::basic_string<char,std::char_traits<char>,std::allocator<char> >::_Eos, COMDAT
; _this$ = ecx

; 1475 : 		_Traits::assign(_Myptr()[_Mysize = _Newsize], _Elem());

  00000	83 79 18 10	 cmp	 DWORD PTR [ecx+24], 16	; 00000010H
  00004	8b 44 24 04	 mov	 eax, DWORD PTR __Newsize$[esp-4]
  00008	89 41 14	 mov	 DWORD PTR [ecx+20], eax
  0000b	72 0a		 jb	 SHORT $L192273
  0000d	8b 49 04	 mov	 ecx, DWORD PTR [ecx+4]
  00010	c6 04 01 00	 mov	 BYTE PTR [ecx+eax], 0

; 1476 : 		}

  00014	c2 04 00	 ret	 4

; 1475 : 		_Traits::assign(_Myptr()[_Mysize = _Newsize], _Elem());

$L192273:
  00017	c6 44 01 04 00	 mov	 BYTE PTR [ecx+eax+4], 0

; 1476 : 		}

  0001c	c2 04 00	 ret	 4
?_Eos@?$basic_string@DU?$char_traits@D@std@@V?$allocator@D@2@@std@@IAEXI@Z ENDP ; std::basic_string<char,std::char_traits<char>,std::allocator<char> >::_Eos
_TEXT	ENDS
PUBLIC	??0iterator@?$vector@U_TransformStuffComponent@@V?$allocator@U_TransformStuffComponent@@@std@@@std@@QAE@PAU_TransformStuffComponent@@@Z ; std::vector<_TransformStuffComponent,std::allocator<_TransformStuffComponent> >::iterator::iterator
; Function compile flags: /Ogty
; File c:\program files\microsoft visual studio .net 2003\vc7\include\vector
;	COMDAT ??0iterator@?$vector@U_TransformStuffComponent@@V?$allocator@U_TransformStuffComponent@@@std@@@std@@QAE@PAU_TransformStuffComponent@@@Z
_TEXT	SEGMENT
__Ptr$ = 8						; size = 4
??0iterator@?$vector@U_TransformStuffComponent@@V?$allocator@U_TransformStuffComponent@@@std@@@std@@QAE@PAU_TransformStuffComponent@@@Z PROC NEAR ; std::vector<_TransformStuffComponent,std::allocator<_TransformStuffComponent> >::iterator::iterator, COMDAT
; _this$ = ecx

; 215  : 			{	// construct with pointer _Ptr

  00000	8b c1		 mov	 eax, ecx
  00002	8b 4c 24 04	 mov	 ecx, DWORD PTR __Ptr$[esp-4]
  00006	89 08		 mov	 DWORD PTR [eax], ecx

; 216  : 			}

  00008	c2 04 00	 ret	 4
??0iterator@?$vector@U_TransformStuffComponent@@V?$allocator@U_TransformStuffComponent@@@std@@@std@@QAE@PAU_TransformStuffComponent@@@Z ENDP ; std::vector<_TransformStuffComponent,std::allocator<_TransformStuffComponent> >::iterator::iterator
_TEXT	ENDS
PUBLIC	?max_size@?$basic_string@DU?$char_traits@D@std@@V?$allocator@D@2@@std@@QBEIXZ ; std::basic_string<char,std::char_traits<char>,std::allocator<char> >::max_size
; Function compile flags: /Ogty
; File c:\program files\microsoft visual studio .net 2003\vc7\include\xstring
;	COMDAT ?max_size@?$basic_string@DU?$char_traits@D@std@@V?$allocator@D@2@@std@@QBEIXZ
_TEXT	SEGMENT
?max_size@?$basic_string@DU?$char_traits@D@std@@V?$allocator@D@2@@std@@QBEIXZ PROC NEAR ; std::basic_string<char,std::char_traits<char>,std::allocator<char> >::max_size, COMDAT
; _this$ = ecx

; 1114 : 		size_type _Num = _Mybase::_Alval.max_size();
; 1115 : 		return (_Num <= 1 ? 1 : _Num - 1);

  00000	b8 fe ff ff ff	 mov	 eax, -2			; fffffffeH

; 1116 : 		}

  00005	c3		 ret	 0
?max_size@?$basic_string@DU?$char_traits@D@std@@V?$allocator@D@2@@std@@QBEIXZ ENDP ; std::basic_string<char,std::char_traits<char>,std::allocator<char> >::max_size
_TEXT	ENDS
PUBLIC	?allocate@?$allocator@D@std@@QAEPADI@Z		; std::allocator<char>::allocate
; Function compile flags: /Ogty
; File c:\program files\microsoft visual studio .net 2003\vc7\include\xmemory
;	COMDAT ?allocate@?$allocator@D@std@@QAEPADI@Z
_TEXT	SEGMENT
__Count$ = 8						; size = 4
?allocate@?$allocator@D@std@@QAEPADI@Z PROC NEAR	; std::allocator<char>::allocate, COMDAT
; _this$ = ecx

; 137  : 		return (_Allocate(_Count, (pointer)0));

  00000	8b 44 24 04	 mov	 eax, DWORD PTR __Count$[esp-4]
  00004	50		 push	 eax
  00005	e8 00 00 00 00	 call	 ??2@YAPAXI@Z		; operator new
  0000a	83 c4 04	 add	 esp, 4

; 138  : 		}

  0000d	c2 04 00	 ret	 4
?allocate@?$allocator@D@std@@QAEPADI@Z ENDP		; std::allocator<char>::allocate
_TEXT	ENDS
PUBLIC	??8ATL@@YA_NABV?$CStringT@DV?$StrTraitMFC@DV?$ChTraitsCRT@D@ATL@@@@@0@PBD@Z ; ATL::operator==
; Function compile flags: /Ogty
; File c:\program files\microsoft visual studio .net 2003\vc7\atlmfc\include\cstringt.h
;	COMDAT ??8ATL@@YA_NABV?$CStringT@DV?$StrTraitMFC@DV?$ChTraitsCRT@D@ATL@@@@@0@PBD@Z
_TEXT	SEGMENT
_str1$ = 8						; size = 4
_psz2$ = 12						; size = 4
??8ATL@@YA_NABV?$CStringT@DV?$StrTraitMFC@DV?$ChTraitsCRT@D@ATL@@@@@0@PBD@Z PROC NEAR ; ATL::operator==, COMDAT

; 2088 : 		return( str1.Compare( psz2 ) == 0 );

  00000	8b 4c 24 08	 mov	 ecx, DWORD PTR _psz2$[esp-4]
  00004	8b 44 24 04	 mov	 eax, DWORD PTR _str1$[esp-4]
  00008	8b 00		 mov	 eax, DWORD PTR [eax]
  0000a	51		 push	 ecx
  0000b	50		 push	 eax
  0000c	e8 00 00 00 00	 call	 __mbscmp
  00011	83 c4 08	 add	 esp, 8
  00014	f7 d8		 neg	 eax
  00016	1b c0		 sbb	 eax, eax
  00018	40		 inc	 eax

; 2089 : 	}

  00019	c3		 ret	 0
??8ATL@@YA_NABV?$CStringT@DV?$StrTraitMFC@DV?$ChTraitsCRT@D@ATL@@@@@0@PBD@Z ENDP ; ATL::operator==
_TEXT	ENDS
PUBLIC	?begin@?$vector@U_FEEDENERGY@@V?$allocator@U_FEEDENERGY@@@std@@@std@@QAE?AViterator@12@XZ ; std::vector<_FEEDENERGY,std::allocator<_FEEDENERGY> >::begin
; Function compile flags: /Ogty
; File c:\program files\microsoft visual studio .net 2003\vc7\include\vector
;	COMDAT ?begin@?$vector@U_FEEDENERGY@@V?$allocator@U_FEEDENERGY@@@std@@@std@@QAE?AViterator@12@XZ
_TEXT	SEGMENT
___$ReturnUdt$ = 8					; size = 4
?begin@?$vector@U_FEEDENERGY@@V?$allocator@U_FEEDENERGY@@@std@@@std@@QAE?AViterator@12@XZ PROC NEAR ; std::vector<_FEEDENERGY,std::allocator<_FEEDENERGY> >::begin, COMDAT
; _this$ = ecx

; 463  : 		return (iterator(_Myfirst));

  00000	8b 49 04	 mov	 ecx, DWORD PTR [ecx+4]
  00003	8b 44 24 04	 mov	 eax, DWORD PTR ___$ReturnUdt$[esp-4]
  00007	89 08		 mov	 DWORD PTR [eax], ecx

; 464  : 		}

  00009	c2 04 00	 ret	 4
?begin@?$vector@U_FEEDENERGY@@V?$allocator@U_FEEDENERGY@@@std@@@std@@QAE?AViterator@12@XZ ENDP ; std::vector<_FEEDENERGY,std::allocator<_FEEDENERGY> >::begin
_TEXT	ENDS
PUBLIC	?end@?$vector@U_FEEDENERGY@@V?$allocator@U_FEEDENERGY@@@std@@@std@@QAE?AViterator@12@XZ ; std::vector<_FEEDENERGY,std::allocator<_FEEDENERGY> >::end
; Function compile flags: /Ogty
;	COMDAT ?end@?$vector@U_FEEDENERGY@@V?$allocator@U_FEEDENERGY@@@std@@@std@@QAE?AViterator@12@XZ
_TEXT	SEGMENT
___$ReturnUdt$ = 8					; size = 4
?end@?$vector@U_FEEDENERGY@@V?$allocator@U_FEEDENERGY@@@std@@@std@@QAE?AViterator@12@XZ PROC NEAR ; std::vector<_FEEDENERGY,std::allocator<_FEEDENERGY> >::end, COMDAT
; _this$ = ecx

; 473  : 		return (iterator(_Mylast));

  00000	8b 49 08	 mov	 ecx, DWORD PTR [ecx+8]
  00003	8b 44 24 04	 mov	 eax, DWORD PTR ___$ReturnUdt$[esp-4]
  00007	89 08		 mov	 DWORD PTR [eax], ecx

; 474  : 		}

  00009	c2 04 00	 ret	 4
?end@?$vector@U_FEEDENERGY@@V?$allocator@U_FEEDENERGY@@@std@@@std@@QAE?AViterator@12@XZ ENDP ; std::vector<_FEEDENERGY,std::allocator<_FEEDENERGY> >::end
_TEXT	ENDS
PUBLIC	?end@?$vector@U_TransformStuffComponent@@V?$allocator@U_TransformStuffComponent@@@std@@@std@@QAE?AViterator@12@XZ ; std::vector<_TransformStuffComponent,std::allocator<_TransformStuffComponent> >::end
; Function compile flags: /Ogty
;	COMDAT ?end@?$vector@U_TransformStuffComponent@@V?$allocator@U_TransformStuffComponent@@@std@@@std@@QAE?AViterator@12@XZ
_TEXT	SEGMENT
___$ReturnUdt$ = 8					; size = 4
?end@?$vector@U_TransformStuffComponent@@V?$allocator@U_TransformStuffComponent@@@std@@@std@@QAE?AViterator@12@XZ PROC NEAR ; std::vector<_TransformStuffComponent,std::allocator<_TransformStuffComponent> >::end, COMDAT
; _this$ = ecx

; 473  : 		return (iterator(_Mylast));

  00000	8b 49 08	 mov	 ecx, DWORD PTR [ecx+8]
  00003	8b 44 24 04	 mov	 eax, DWORD PTR ___$ReturnUdt$[esp-4]
  00007	89 08		 mov	 DWORD PTR [eax], ecx

; 474  : 		}

  00009	c2 04 00	 ret	 4
?end@?$vector@U_TransformStuffComponent@@V?$allocator@U_TransformStuffComponent@@@std@@@std@@QAE?AViterator@12@XZ ENDP ; std::vector<_TransformStuffComponent,std::allocator<_TransformStuffComponent> >::end
_TEXT	ENDS
PUBLIC	??Citerator@?$vector@U_FEEDENERGY@@V?$allocator@U_FEEDENERGY@@@std@@@std@@QBEPAU_FEEDENERGY@@XZ ; std::vector<_FEEDENERGY,std::allocator<_FEEDENERGY> >::iterator::operator->
; Function compile flags: /Ogty
;	COMDAT ??Citerator@?$vector@U_FEEDENERGY@@V?$allocator@U_FEEDENERGY@@@std@@@std@@QBEPAU_FEEDENERGY@@XZ
_TEXT	SEGMENT
??Citerator@?$vector@U_FEEDENERGY@@V?$allocator@U_FEEDENERGY@@@std@@@std@@QBEPAU_FEEDENERGY@@XZ PROC NEAR ; std::vector<_FEEDENERGY,std::allocator<_FEEDENERGY> >::iterator::operator->, COMDAT
; _this$ = ecx

; 225  : 			return (&**this);

  00000	8b 01		 mov	 eax, DWORD PTR [ecx]

; 226  : 			}

  00002	c3		 ret	 0
??Citerator@?$vector@U_FEEDENERGY@@V?$allocator@U_FEEDENERGY@@@std@@@std@@QBEPAU_FEEDENERGY@@XZ ENDP ; std::vector<_FEEDENERGY,std::allocator<_FEEDENERGY> >::iterator::operator->
_TEXT	ENDS
PUBLIC	?begin@?$vector@GV?$allocator@G@std@@@std@@QAE?AViterator@12@XZ ; std::vector<unsigned short,std::allocator<unsigned short> >::begin
; Function compile flags: /Ogty
;	COMDAT ?begin@?$vector@GV?$allocator@G@std@@@std@@QAE?AViterator@12@XZ
_TEXT	SEGMENT
___$ReturnUdt$ = 8					; size = 4
?begin@?$vector@GV?$allocator@G@std@@@std@@QAE?AViterator@12@XZ PROC NEAR ; std::vector<unsigned short,std::allocator<unsigned short> >::begin, COMDAT
; _this$ = ecx

; 463  : 		return (iterator(_Myfirst));

  00000	8b 49 04	 mov	 ecx, DWORD PTR [ecx+4]
  00003	8b 44 24 04	 mov	 eax, DWORD PTR ___$ReturnUdt$[esp-4]
  00007	89 08		 mov	 DWORD PTR [eax], ecx

; 464  : 		}

  00009	c2 04 00	 ret	 4
?begin@?$vector@GV?$allocator@G@std@@@std@@QAE?AViterator@12@XZ ENDP ; std::vector<unsigned short,std::allocator<unsigned short> >::begin
_TEXT	ENDS
PUBLIC	?end@?$vector@GV?$allocator@G@std@@@std@@QAE?AViterator@12@XZ ; std::vector<unsigned short,std::allocator<unsigned short> >::end
; Function compile flags: /Ogty
;	COMDAT ?end@?$vector@GV?$allocator@G@std@@@std@@QAE?AViterator@12@XZ
_TEXT	SEGMENT
___$ReturnUdt$ = 8					; size = 4
?end@?$vector@GV?$allocator@G@std@@@std@@QAE?AViterator@12@XZ PROC NEAR ; std::vector<unsigned short,std::allocator<unsigned short> >::end, COMDAT
; _this$ = ecx

; 473  : 		return (iterator(_Mylast));

  00000	8b 49 08	 mov	 ecx, DWORD PTR [ecx+8]
  00003	8b 44 24 04	 mov	 eax, DWORD PTR ___$ReturnUdt$[esp-4]
  00007	89 08		 mov	 DWORD PTR [eax], ecx

; 474  : 		}

  00009	c2 04 00	 ret	 4
?end@?$vector@GV?$allocator@G@std@@@std@@QAE?AViterator@12@XZ ENDP ; std::vector<unsigned short,std::allocator<unsigned short> >::end
_TEXT	ENDS
PUBLIC	?_Destroy@?$vector@GV?$allocator@G@std@@@std@@IAEXPAG0@Z ; std::vector<unsigned short,std::allocator<unsigned short> >::_Destroy
; Function compile flags: /Ogty
;	COMDAT ?_Destroy@?$vector@GV?$allocator@G@std@@@std@@IAEXPAG0@Z
_TEXT	SEGMENT
__First$ = 8						; size = 4
__Last$ = 12						; size = 4
?_Destroy@?$vector@GV?$allocator@G@std@@@std@@IAEXPAG0@Z PROC NEAR ; std::vector<unsigned short,std::allocator<unsigned short> >::_Destroy, COMDAT
; _this$ = ecx

; 787  : 		_Destroy_range(_First, _Last, this->_Alval);
; 788  : 		}

  00000	c2 08 00	 ret	 8
?_Destroy@?$vector@GV?$allocator@G@std@@@std@@IAEXPAG0@Z ENDP ; std::vector<unsigned short,std::allocator<unsigned short> >::_Destroy
_TEXT	ENDS
PUBLIC	??$_Uninitialized_fill_n@PAGIGV?$allocator@G@std@@@std@@YAXPAGIABGAAV?$allocator@G@0@@Z ; std::_Uninitialized_fill_n<unsigned short *,unsigned int,unsigned short,std::allocator<unsigned short> >
; Function compile flags: /Ogty
; File c:\program files\microsoft visual studio .net 2003\vc7\include\memory
;	COMDAT ??$_Uninitialized_fill_n@PAGIGV?$allocator@G@std@@@std@@YAXPAGIABGAAV?$allocator@G@0@@Z
_TEXT	SEGMENT
__First$ = 8						; size = 4
__Count$ = 12						; size = 4
__Val$ = 16						; size = 4
__Al$ = 20						; size = 4
??$_Uninitialized_fill_n@PAGIGV?$allocator@G@std@@@std@@YAXPAGIABGAAV?$allocator@G@0@@Z PROC NEAR ; std::_Uninitialized_fill_n<unsigned short *,unsigned int,unsigned short,std::allocator<unsigned short> >, COMDAT

; 256  : 	_Uninit_fill_n(_First, _Count, _Val, _Al,
; 257  : 		_Ptr_cat(_First, _First));

  00000	8b 4c 24 08	 mov	 ecx, DWORD PTR __Count$[esp-4]
  00004	85 c9		 test	 ecx, ecx
  00006	8b 44 24 04	 mov	 eax, DWORD PTR __First$[esp-4]
  0000a	76 12		 jbe	 SHORT $L192405
  0000c	8b 54 24 0c	 mov	 edx, DWORD PTR __Val$[esp-4]
  00010	56		 push	 esi
$L192403:
  00011	66 8b 32	 mov	 si, WORD PTR [edx]
  00014	66 89 30	 mov	 WORD PTR [eax], si
  00017	83 c0 02	 add	 eax, 2
  0001a	49		 dec	 ecx
  0001b	75 f4		 jne	 SHORT $L192403
  0001d	5e		 pop	 esi
$L192405:

; 258  : 	}

  0001e	c3		 ret	 0
??$_Uninitialized_fill_n@PAGIGV?$allocator@G@std@@@std@@YAXPAGIABGAAV?$allocator@G@0@@Z ENDP ; std::_Uninitialized_fill_n<unsigned short *,unsigned int,unsigned short,std::allocator<unsigned short> >
_TEXT	ENDS
PUBLIC	??$_Ucopy@PAG@?$vector@GV?$allocator@G@std@@@std@@IAEPAGPAG00@Z ; std::vector<unsigned short,std::allocator<unsigned short> >::_Ucopy<unsigned short *>
; Function compile flags: /Ogty
; File c:\program files\microsoft visual studio .net 2003\vc7\include\vector
;	COMDAT ??$_Ucopy@PAG@?$vector@GV?$allocator@G@std@@@std@@IAEPAGPAG00@Z
_TEXT	SEGMENT
__First$ = 8						; size = 4
__Last$ = 12						; size = 4
__Ptr$ = 16						; size = 4
??$_Ucopy@PAG@?$vector@GV?$allocator@G@std@@@std@@IAEPAGPAG00@Z PROC NEAR ; std::vector<unsigned short,std::allocator<unsigned short> >::_Ucopy<unsigned short *>, COMDAT
; _this$ = ecx

; 802  : 		{	// copy initializing [_First, _Last), using allocator
; 803  : 		return (_Uninitialized_copy(_First, _Last,
; 804  : 			_Ptr, this->_Alval));

  00000	8b 4c 24 04	 mov	 ecx, DWORD PTR __First$[esp-4]
  00004	8b 44 24 08	 mov	 eax, DWORD PTR __Last$[esp-4]
  00008	2b c1		 sub	 eax, ecx
  0000a	56		 push	 esi
  0000b	d1 f8		 sar	 eax, 1
  0000d	8d 34 00	 lea	 esi, DWORD PTR [eax+eax]
  00010	8b 44 24 10	 mov	 eax, DWORD PTR __Ptr$[esp]
  00014	56		 push	 esi
  00015	51		 push	 ecx
  00016	50		 push	 eax
  00017	e8 00 00 00 00	 call	 _memmove
  0001c	83 c4 0c	 add	 esp, 12			; 0000000cH
  0001f	03 c6		 add	 eax, esi
  00021	5e		 pop	 esi

; 805  : 		}

  00022	c2 0c 00	 ret	 12			; 0000000cH
??$_Ucopy@PAG@?$vector@GV?$allocator@G@std@@@std@@IAEPAGPAG00@Z ENDP ; std::vector<unsigned short,std::allocator<unsigned short> >::_Ucopy<unsigned short *>
_TEXT	ENDS
PUBLIC	??$_Uninit_fill_n@PAU_FEEDENERGY@@IU1@V?$allocator@U_FEEDENERGY@@@std@@@std@@YAXPAU_FEEDENERGY@@IABU1@AAV?$allocator@U_FEEDENERGY@@@0@U_Nonscalar_ptr_iterator_tag@0@@Z ; std::_Uninit_fill_n<_FEEDENERGY *,unsigned int,_FEEDENERGY,std::allocator<_FEEDENERGY> >
; Function compile flags: /Ogty
; File c:\program files\microsoft visual studio .net 2003\vc7\include\memory
;	COMDAT ??$_Uninit_fill_n@PAU_FEEDENERGY@@IU1@V?$allocator@U_FEEDENERGY@@@std@@@std@@YAXPAU_FEEDENERGY@@IABU1@AAV?$allocator@U_FEEDENERGY@@@0@U_Nonscalar_ptr_iterator_tag@0@@Z
_TEXT	SEGMENT
__First$ = 8						; size = 4
__Count$ = 12						; size = 4
__Val$ = 16						; size = 4
__Al$ = 20						; size = 4
___formal$ = 24						; size = 1
??$_Uninit_fill_n@PAU_FEEDENERGY@@IU1@V?$allocator@U_FEEDENERGY@@@std@@@std@@YAXPAU_FEEDENERGY@@IABU1@AAV?$allocator@U_FEEDENERGY@@@0@U_Nonscalar_ptr_iterator_tag@0@@Z PROC NEAR ; std::_Uninit_fill_n<_FEEDENERGY *,unsigned int,_FEEDENERGY,std::allocator<_FEEDENERGY> >, COMDAT

; 208  : 	_FwdIt _Next = _First;
; 209  : 
; 210  : 	_TRY_BEGIN
; 211  : 	for (; 0 < _Count; --_Count, ++_First)

  00000	8b 44 24 08	 mov	 eax, DWORD PTR __Count$[esp-4]
  00004	85 c0		 test	 eax, eax
  00006	76 2e		 jbe	 SHORT $L191000
  00008	8b 54 24 0c	 mov	 edx, DWORD PTR __Val$[esp-4]
  0000c	53		 push	 ebx
  0000d	56		 push	 esi
  0000e	8b c8		 mov	 ecx, eax
  00010	8b 44 24 0c	 mov	 eax, DWORD PTR __First$[esp+4]
  00014	57		 push	 edi
$L190998:

; 212  : 		_Al.construct(_First, _Val);

  00015	85 c0		 test	 eax, eax
  00017	74 14		 je	 SHORT $L190999
  00019	8b f2		 mov	 esi, edx
  0001b	8b 1e		 mov	 ebx, DWORD PTR [esi]
  0001d	8b f8		 mov	 edi, eax
  0001f	89 1f		 mov	 DWORD PTR [edi], ebx
  00021	8b 5e 04	 mov	 ebx, DWORD PTR [esi+4]
  00024	89 5f 04	 mov	 DWORD PTR [edi+4], ebx
  00027	8b 76 08	 mov	 esi, DWORD PTR [esi+8]
  0002a	89 77 08	 mov	 DWORD PTR [edi+8], esi
$L190999:
  0002d	83 c0 0c	 add	 eax, 12			; 0000000cH
  00030	49		 dec	 ecx
  00031	75 e2		 jne	 SHORT $L190998
  00033	5f		 pop	 edi
  00034	5e		 pop	 esi
  00035	5b		 pop	 ebx
$L191000:

; 213  : 	_CATCH_ALL
; 214  : 	for (; _Next != _First; ++_Next)
; 215  : 		_Al.destroy(_Next);
; 216  : 	_RERAISE;
; 217  : 	_CATCH_END
; 218  : 	}

  00036	c3		 ret	 0
??$_Uninit_fill_n@PAU_FEEDENERGY@@IU1@V?$allocator@U_FEEDENERGY@@@std@@@std@@YAXPAU_FEEDENERGY@@IABU1@AAV?$allocator@U_FEEDENERGY@@@0@U_Nonscalar_ptr_iterator_tag@0@@Z ENDP ; std::_Uninit_fill_n<_FEEDENERGY *,unsigned int,_FEEDENERGY,std::allocator<_FEEDENERGY> >
_TEXT	ENDS
PUBLIC	??$_Uninit_fill_n@PAU_TransformStuffComponent@@IU1@V?$allocator@U_TransformStuffComponent@@@std@@@std@@YAXPAU_TransformStuffComponent@@IABU1@AAV?$allocator@U_TransformStuffComponent@@@0@U_Nonscalar_ptr_iterator_tag@0@@Z ; std::_Uninit_fill_n<_TransformStuffComponent *,unsigned int,_TransformStuffComponent,std::allocator<_TransformStuffComponent> >
; Function compile flags: /Ogty
;	COMDAT ??$_Uninit_fill_n@PAU_TransformStuffComponent@@IU1@V?$allocator@U_TransformStuffComponent@@@std@@@std@@YAXPAU_TransformStuffComponent@@IABU1@AAV?$allocator@U_TransformStuffComponent@@@0@U_Nonscalar_ptr_iterator_tag@0@@Z
_TEXT	SEGMENT
__First$ = 8						; size = 4
__Count$ = 12						; size = 4
__Val$ = 16						; size = 4
__Al$ = 20						; size = 4
___formal$ = 24						; size = 1
??$_Uninit_fill_n@PAU_TransformStuffComponent@@IU1@V?$allocator@U_TransformStuffComponent@@@std@@@std@@YAXPAU_TransformStuffComponent@@IABU1@AAV?$allocator@U_TransformStuffComponent@@@0@U_Nonscalar_ptr_iterator_tag@0@@Z PROC NEAR ; std::_Uninit_fill_n<_TransformStuffComponent *,unsigned int,_TransformStuffComponent,std::allocator<_TransformStuffComponent> >, COMDAT

; 208  : 	_FwdIt _Next = _First;
; 209  : 
; 210  : 	_TRY_BEGIN
; 211  : 	for (; 0 < _Count; --_Count, ++_First)

  00000	8b 44 24 08	 mov	 eax, DWORD PTR __Count$[esp-4]
  00004	85 c0		 test	 eax, eax
  00006	76 20		 jbe	 SHORT $L191020
  00008	8b 4c 24 0c	 mov	 ecx, DWORD PTR __Val$[esp-4]
  0000c	8b d0		 mov	 edx, eax
  0000e	8b 44 24 04	 mov	 eax, DWORD PTR __First$[esp-4]
  00012	56		 push	 esi
$L191018:

; 212  : 		_Al.construct(_First, _Val);

  00013	85 c0		 test	 eax, eax
  00015	74 0a		 je	 SHORT $L191019
  00017	8b 31		 mov	 esi, DWORD PTR [ecx]
  00019	89 30		 mov	 DWORD PTR [eax], esi
  0001b	8b 71 04	 mov	 esi, DWORD PTR [ecx+4]
  0001e	89 70 04	 mov	 DWORD PTR [eax+4], esi
$L191019:
  00021	83 c0 08	 add	 eax, 8
  00024	4a		 dec	 edx
  00025	75 ec		 jne	 SHORT $L191018
  00027	5e		 pop	 esi
$L191020:

; 213  : 	_CATCH_ALL
; 214  : 	for (; _Next != _First; ++_Next)
; 215  : 		_Al.destroy(_Next);
; 216  : 	_RERAISE;
; 217  : 	_CATCH_END
; 218  : 	}

  00028	c3		 ret	 0
??$_Uninit_fill_n@PAU_TransformStuffComponent@@IU1@V?$allocator@U_TransformStuffComponent@@@std@@@std@@YAXPAU_TransformStuffComponent@@IABU1@AAV?$allocator@U_TransformStuffComponent@@@0@U_Nonscalar_ptr_iterator_tag@0@@Z ENDP ; std::_Uninit_fill_n<_TransformStuffComponent *,unsigned int,_TransformStuffComponent,std::allocator<_TransformStuffComponent> >
_TEXT	ENDS
PUBLIC	??$_Destroy_range@U_FEEDENERGY@@V?$allocator@U_FEEDENERGY@@@std@@@std@@YAXPAU_FEEDENERGY@@0AAV?$allocator@U_FEEDENERGY@@@0@U_Nonscalar_ptr_iterator_tag@0@@Z ; std::_Destroy_range<_FEEDENERGY,std::allocator<_FEEDENERGY> >
; Function compile flags: /Ogty
; File c:\program files\microsoft visual studio .net 2003\vc7\include\xmemory
;	COMDAT ??$_Destroy_range@U_FEEDENERGY@@V?$allocator@U_FEEDENERGY@@@std@@@std@@YAXPAU_FEEDENERGY@@0AAV?$allocator@U_FEEDENERGY@@@0@U_Nonscalar_ptr_iterator_tag@0@@Z
_TEXT	SEGMENT
__First$ = 8						; size = 4
__Last$ = 12						; size = 4
__Al$ = 16						; size = 4
___formal$ = 20						; size = 1
??$_Destroy_range@U_FEEDENERGY@@V?$allocator@U_FEEDENERGY@@@std@@@std@@YAXPAU_FEEDENERGY@@0AAV?$allocator@U_FEEDENERGY@@@0@U_Nonscalar_ptr_iterator_tag@0@@Z PROC NEAR ; std::_Destroy_range<_FEEDENERGY,std::allocator<_FEEDENERGY> >, COMDAT

; 225  : 	for (; _First != _Last; ++_First)
; 226  : 		_Al.destroy(_First);
; 227  : 	}

  00000	c3		 ret	 0
??$_Destroy_range@U_FEEDENERGY@@V?$allocator@U_FEEDENERGY@@@std@@@std@@YAXPAU_FEEDENERGY@@0AAV?$allocator@U_FEEDENERGY@@@0@U_Nonscalar_ptr_iterator_tag@0@@Z ENDP ; std::_Destroy_range<_FEEDENERGY,std::allocator<_FEEDENERGY> >
_TEXT	ENDS
PUBLIC	??$_Uninitialized_copy@PAU_FEEDENERGY@@PAU1@V?$allocator@U_FEEDENERGY@@@std@@@std@@YAPAU_FEEDENERGY@@PAU1@00AAV?$allocator@U_FEEDENERGY@@@0@@Z ; std::_Uninitialized_copy<_FEEDENERGY *,_FEEDENERGY *,std::allocator<_FEEDENERGY> >
; Function compile flags: /Ogty
; File c:\program files\microsoft visual studio .net 2003\vc7\include\memory
;	COMDAT ??$_Uninitialized_copy@PAU_FEEDENERGY@@PAU1@V?$allocator@U_FEEDENERGY@@@std@@@std@@YAPAU_FEEDENERGY@@PAU1@00AAV?$allocator@U_FEEDENERGY@@@0@@Z
_TEXT	SEGMENT
__Cat$192503 = -4					; size = 1
__First$ = 8						; size = 4
__Last$ = 12						; size = 4
__Dest$ = 16						; size = 4
__Al$ = 20						; size = 4
??$_Uninitialized_copy@PAU_FEEDENERGY@@PAU1@V?$allocator@U_FEEDENERGY@@@std@@@std@@YAPAU_FEEDENERGY@@PAU1@00AAV?$allocator@U_FEEDENERGY@@@0@@Z PROC NEAR ; std::_Uninitialized_copy<_FEEDENERGY *,_FEEDENERGY *,std::allocator<_FEEDENERGY> >, COMDAT

; 126  : 	{	// copy [_First, _Last) to raw _Dest, using _Al

  00000	51		 push	 ecx

; 127  : 	return (_Uninit_copy(_First, _Last, _Dest, _Al,
; 128  : 		_Ptr_cat(_First, _Dest)));

  00001	8b 04 24	 mov	 eax, DWORD PTR __Cat$192503[esp+4]
  00004	8b 4c 24 14	 mov	 ecx, DWORD PTR __Al$[esp]
  00008	8b 54 24 10	 mov	 edx, DWORD PTR __Dest$[esp]
  0000c	50		 push	 eax
  0000d	8b 44 24 10	 mov	 eax, DWORD PTR __Last$[esp+4]
  00011	51		 push	 ecx
  00012	8b 4c 24 10	 mov	 ecx, DWORD PTR __First$[esp+8]
  00016	52		 push	 edx
  00017	50		 push	 eax
  00018	51		 push	 ecx
  00019	e8 00 00 00 00	 call	 ??$_Uninit_copy@PAU_FEEDENERGY@@PAU1@V?$allocator@U_FEEDENERGY@@@std@@@std@@YAPAU_FEEDENERGY@@PAU1@00AAV?$allocator@U_FEEDENERGY@@@0@U_Nonscalar_ptr_iterator_tag@0@@Z ; std::_Uninit_copy<_FEEDENERGY *,_FEEDENERGY *,std::allocator<_FEEDENERGY> >

; 129  : 	}

  0001e	83 c4 18	 add	 esp, 24			; 00000018H
  00021	c3		 ret	 0
??$_Uninitialized_copy@PAU_FEEDENERGY@@PAU1@V?$allocator@U_FEEDENERGY@@@std@@@std@@YAPAU_FEEDENERGY@@PAU1@00AAV?$allocator@U_FEEDENERGY@@@0@@Z ENDP ; std::_Uninitialized_copy<_FEEDENERGY *,_FEEDENERGY *,std::allocator<_FEEDENERGY> >
_TEXT	ENDS
PUBLIC	??$_Destroy_range@U_TransformStuffComponent@@V?$allocator@U_TransformStuffComponent@@@std@@@std@@YAXPAU_TransformStuffComponent@@0AAV?$allocator@U_TransformStuffComponent@@@0@U_Nonscalar_ptr_iterator_tag@0@@Z ; std::_Destroy_range<_TransformStuffComponent,std::allocator<_TransformStuffComponent> >
; Function compile flags: /Ogty
; File c:\program files\microsoft visual studio .net 2003\vc7\include\xmemory
;	COMDAT ??$_Destroy_range@U_TransformStuffComponent@@V?$allocator@U_TransformStuffComponent@@@std@@@std@@YAXPAU_TransformStuffComponent@@0AAV?$allocator@U_TransformStuffComponent@@@0@U_Nonscalar_ptr_iterator_tag@0@@Z
_TEXT	SEGMENT
__First$ = 8						; size = 4
__Last$ = 12						; size = 4
__Al$ = 16						; size = 4
___formal$ = 20						; size = 1
??$_Destroy_range@U_TransformStuffComponent@@V?$allocator@U_TransformStuffComponent@@@std@@@std@@YAXPAU_TransformStuffComponent@@0AAV?$allocator@U_TransformStuffComponent@@@0@U_Nonscalar_ptr_iterator_tag@0@@Z PROC NEAR ; std::_Destroy_range<_TransformStuffComponent,std::allocator<_TransformStuffComponent> >, COMDAT

; 225  : 	for (; _First != _Last; ++_First)
; 226  : 		_Al.destroy(_First);
; 227  : 	}

  00000	c3		 ret	 0
??$_Destroy_range@U_TransformStuffComponent@@V?$allocator@U_TransformStuffComponent@@@std@@@std@@YAXPAU_TransformStuffComponent@@0AAV?$allocator@U_TransformStuffComponent@@@0@U_Nonscalar_ptr_iterator_tag@0@@Z ENDP ; std::_Destroy_range<_TransformStuffComponent,std::allocator<_TransformStuffComponent> >
_TEXT	ENDS
PUBLIC	??$_Uninitialized_copy@PAU_TransformStuffComponent@@PAU1@V?$allocator@U_TransformStuffComponent@@@std@@@std@@YAPAU_TransformStuffComponent@@PAU1@00AAV?$allocator@U_TransformStuffComponent@@@0@@Z ; std::_Uninitialized_copy<_TransformStuffComponent *,_TransformStuffComponent *,std::allocator<_TransformStuffComponent> >
; Function compile flags: /Ogty
; File c:\program files\microsoft visual studio .net 2003\vc7\include\memory
;	COMDAT ??$_Uninitialized_copy@PAU_TransformStuffComponent@@PAU1@V?$allocator@U_TransformStuffComponent@@@std@@@std@@YAPAU_TransformStuffComponent@@PAU1@00AAV?$allocator@U_TransformStuffComponent@@@0@@Z
_TEXT	SEGMENT
__Cat$192515 = -4					; size = 1
__First$ = 8						; size = 4
__Last$ = 12						; size = 4
__Dest$ = 16						; size = 4
__Al$ = 20						; size = 4
??$_Uninitialized_copy@PAU_TransformStuffComponent@@PAU1@V?$allocator@U_TransformStuffComponent@@@std@@@std@@YAPAU_TransformStuffComponent@@PAU1@00AAV?$allocator@U_TransformStuffComponent@@@0@@Z PROC NEAR ; std::_Uninitialized_copy<_TransformStuffComponent *,_TransformStuffComponent *,std::allocator<_TransformStuffComponent> >, COMDAT

; 126  : 	{	// copy [_First, _Last) to raw _Dest, using _Al

  00000	51		 push	 ecx

; 127  : 	return (_Uninit_copy(_First, _Last, _Dest, _Al,
; 128  : 		_Ptr_cat(_First, _Dest)));

  00001	8b 04 24	 mov	 eax, DWORD PTR __Cat$192515[esp+4]
  00004	8b 4c 24 14	 mov	 ecx, DWORD PTR __Al$[esp]
  00008	8b 54 24 10	 mov	 edx, DWORD PTR __Dest$[esp]
  0000c	50		 push	 eax
  0000d	8b 44 24 10	 mov	 eax, DWORD PTR __Last$[esp+4]
  00011	51		 push	 ecx
  00012	8b 4c 24 10	 mov	 ecx, DWORD PTR __First$[esp+8]
  00016	52		 push	 edx
  00017	50		 push	 eax
  00018	51		 push	 ecx
  00019	e8 00 00 00 00	 call	 ??$_Uninit_copy@PAU_TransformStuffComponent@@PAU1@V?$allocator@U_TransformStuffComponent@@@std@@@std@@YAPAU_TransformStuffComponent@@PAU1@00AAV?$allocator@U_TransformStuffComponent@@@0@U_Nonscalar_ptr_iterator_tag@0@@Z ; std::_Uninit_copy<_TransformStuffComponent *,_TransformStuffComponent *,std::allocator<_TransformStuffComponent> >

; 129  : 	}

  0001e	83 c4 18	 add	 esp, 24			; 00000018H
  00021	c3		 ret	 0
??$_Uninitialized_copy@PAU_TransformStuffComponent@@PAU1@V?$allocator@U_TransformStuffComponent@@@std@@@std@@YAPAU_TransformStuffComponent@@PAU1@00AAV?$allocator@U_TransformStuffComponent@@@0@@Z ENDP ; std::_Uninitialized_copy<_TransformStuffComponent *,_TransformStuffComponent *,std::allocator<_TransformStuffComponent> >
_TEXT	ENDS
PUBLIC	?_Tidy@?$basic_string@DU?$char_traits@D@std@@V?$allocator@D@2@@std@@IAEX_NI@Z ; std::basic_string<char,std::char_traits<char>,std::allocator<char> >::_Tidy
; Function compile flags: /Ogty
; File c:\program files\microsoft visual studio .net 2003\vc7\include\xstring
;	COMDAT ?_Tidy@?$basic_string@DU?$char_traits@D@std@@V?$allocator@D@2@@std@@IAEX_NI@Z
_TEXT	SEGMENT
__Built$ = 8						; size = 1
__Newsize$ = 12						; size = 4
?_Tidy@?$basic_string@DU?$char_traits@D@std@@V?$allocator@D@2@@std@@IAEX_NI@Z PROC NEAR ; std::basic_string<char,std::char_traits<char>,std::allocator<char> >::_Tidy, COMDAT
; _this$ = ecx

; 1510 : 		if (!_Built)

  00000	8a 44 24 04	 mov	 al, BYTE PTR __Built$[esp-4]
  00004	84 c0		 test	 al, al
  00006	53		 push	 ebx
  00007	55		 push	 ebp
  00008	8b 6c 24 10	 mov	 ebp, DWORD PTR __Newsize$[esp+4]
  0000c	8b d9		 mov	 ebx, ecx
  0000e	74 2f		 je	 SHORT $L192523

; 1511 : 			;
; 1512 : 		else if (_BUF_SIZE <= _Myres)

  00010	83 7b 18 10	 cmp	 DWORD PTR [ebx+24], 16	; 00000010H
  00014	72 29		 jb	 SHORT $L192523

; 1513 : 			{	// copy any leftovers to small buffer and deallocate
; 1514 : 			_Elem *_Ptr = _Bx._Ptr;
; 1515 : 			if (0 < _Newsize)

  00016	85 ed		 test	 ebp, ebp
  00018	8b 43 04	 mov	 eax, DWORD PTR [ebx+4]
  0001b	57		 push	 edi
  0001c	8d 7b 04	 lea	 edi, DWORD PTR [ebx+4]
  0001f	76 14		 jbe	 SHORT $L192520
  00021	56		 push	 esi

; 1516 : 				_Traits::copy(_Bx._Buf, _Ptr, _Newsize);

  00022	8b cd		 mov	 ecx, ebp
  00024	8b d1		 mov	 edx, ecx
  00026	c1 e9 02	 shr	 ecx, 2
  00029	8b f0		 mov	 esi, eax
  0002b	f3 a5		 rep movsd
  0002d	8b ca		 mov	 ecx, edx
  0002f	83 e1 03	 and	 ecx, 3
  00032	f3 a4		 rep movsb
  00034	5e		 pop	 esi
$L192520:

; 1517 : 			_Mybase::_Alval.deallocate(_Ptr, _Myres + 1);

  00035	50		 push	 eax
  00036	e8 00 00 00 00	 call	 ??3@YAXPAX@Z		; operator delete
  0003b	83 c4 04	 add	 esp, 4
  0003e	5f		 pop	 edi
$L192523:

; 1518 : 			}
; 1519 : 		_Myres = _BUF_SIZE - 1;
; 1520 : 		_Eos(_Newsize);

  0003f	89 6b 14	 mov	 DWORD PTR [ebx+20], ebp
  00042	c7 43 18 0f 00
	00 00		 mov	 DWORD PTR [ebx+24], 15	; 0000000fH
  00049	c6 44 2b 04 00	 mov	 BYTE PTR [ebx+ebp+4], 0
  0004e	5d		 pop	 ebp
  0004f	5b		 pop	 ebx

; 1521 : 		}

  00050	c2 08 00	 ret	 8
?_Tidy@?$basic_string@DU?$char_traits@D@std@@V?$allocator@D@2@@std@@IAEX_NI@Z ENDP ; std::basic_string<char,std::char_traits<char>,std::allocator<char> >::_Tidy
_TEXT	ENDS
PUBLIC	?begin@?$vector@U_TransformStuffComponent@@V?$allocator@U_TransformStuffComponent@@@std@@@std@@QAE?AViterator@12@XZ ; std::vector<_TransformStuffComponent,std::allocator<_TransformStuffComponent> >::begin
; Function compile flags: /Ogty
; File c:\program files\microsoft visual studio .net 2003\vc7\include\vector
;	COMDAT ?begin@?$vector@U_TransformStuffComponent@@V?$allocator@U_TransformStuffComponent@@@std@@@std@@QAE?AViterator@12@XZ
_TEXT	SEGMENT
___$ReturnUdt$ = 8					; size = 4
?begin@?$vector@U_TransformStuffComponent@@V?$allocator@U_TransformStuffComponent@@@std@@@std@@QAE?AViterator@12@XZ PROC NEAR ; std::vector<_TransformStuffComponent,std::allocator<_TransformStuffComponent> >::begin, COMDAT
; _this$ = ecx

; 463  : 		return (iterator(_Myfirst));

  00000	8b 49 04	 mov	 ecx, DWORD PTR [ecx+4]
  00003	8b 44 24 04	 mov	 eax, DWORD PTR ___$ReturnUdt$[esp-4]
  00007	89 08		 mov	 DWORD PTR [eax], ecx

; 464  : 		}

  00009	c2 04 00	 ret	 4
?begin@?$vector@U_TransformStuffComponent@@V?$allocator@U_TransformStuffComponent@@@std@@@std@@QAE?AViterator@12@XZ ENDP ; std::vector<_TransformStuffComponent,std::allocator<_TransformStuffComponent> >::begin
_TEXT	ENDS
PUBLIC	?erase@?$basic_string@DU?$char_traits@D@std@@V?$allocator@D@2@@std@@QAEAAV12@II@Z ; std::basic_string<char,std::char_traits<char>,std::allocator<char> >::erase
EXTRN	?_Xran@_String_base@std@@QBEXXZ:NEAR		; std::_String_base::_Xran
; Function compile flags: /Ogty
; File c:\program files\microsoft visual studio .net 2003\vc7\include\xstring
;	COMDAT ?erase@?$basic_string@DU?$char_traits@D@std@@V?$allocator@D@2@@std@@QAEAAV12@II@Z
_TEXT	SEGMENT
__Off$ = 8						; size = 4
__Count$ = 12						; size = 4
?erase@?$basic_string@DU?$char_traits@D@std@@V?$allocator@D@2@@std@@QAEAAV12@II@Z PROC NEAR ; std::basic_string<char,std::char_traits<char>,std::allocator<char> >::erase, COMDAT
; _this$ = ecx

; 792  : 		{	// erase elements [_Off, _Off + _Count)

  00000	55		 push	 ebp

; 793  : 		if (_Mysize < _Off)

  00001	8b 6c 24 08	 mov	 ebp, DWORD PTR __Off$[esp]
  00005	56		 push	 esi
  00006	8b f1		 mov	 esi, ecx
  00008	39 6e 14	 cmp	 DWORD PTR [esi+20], ebp
  0000b	57		 push	 edi
  0000c	73 05		 jae	 SHORT $L184993

; 794  : 			_String_base::_Xran();	// _Off off end

  0000e	e8 00 00 00 00	 call	 ?_Xran@_String_base@std@@QBEXXZ ; std::_String_base::_Xran
$L184993:

; 795  : 		if (_Mysize - _Off < _Count)

  00013	8b 46 14	 mov	 eax, DWORD PTR [esi+20]
  00016	8b 7c 24 14	 mov	 edi, DWORD PTR __Count$[esp+8]
  0001a	2b c5		 sub	 eax, ebp
  0001c	3b c7		 cmp	 eax, edi
  0001e	73 02		 jae	 SHORT $L184994

; 796  : 			_Count = _Mysize - _Off;	// trim _Count

  00020	8b f8		 mov	 edi, eax
$L184994:

; 797  : 		if (0 < _Count)

  00022	85 ff		 test	 edi, edi
  00024	76 47		 jbe	 SHORT $L192598

; 798  : 			{	// move elements down
; 799  : 			_Traits::move(_Myptr() + _Off, _Myptr() + _Off + _Count,
; 800  : 				_Mysize - _Off - _Count);

  00026	8b 4e 18	 mov	 ecx, DWORD PTR [esi+24]
  00029	83 f9 10	 cmp	 ecx, 16			; 00000010H
  0002c	53		 push	 ebx
  0002d	8d 5e 04	 lea	 ebx, DWORD PTR [esi+4]
  00030	72 04		 jb	 SHORT $L192563
  00032	8b 13		 mov	 edx, DWORD PTR [ebx]
  00034	eb 02		 jmp	 SHORT $L192564
$L192563:
  00036	8b d3		 mov	 edx, ebx
$L192564:
  00038	83 f9 10	 cmp	 ecx, 16			; 00000010H
  0003b	72 04		 jb	 SHORT $L192570
  0003d	8b 0b		 mov	 ecx, DWORD PTR [ebx]
  0003f	eb 02		 jmp	 SHORT $L192571
$L192570:
  00041	8b cb		 mov	 ecx, ebx
$L192571:
  00043	2b c7		 sub	 eax, edi

; 803  : 			}
; 804  : 		return (*this);

  00045	03 d5		 add	 edx, ebp
  00047	50		 push	 eax
  00048	03 d7		 add	 edx, edi
  0004a	52		 push	 edx
  0004b	03 cd		 add	 ecx, ebp
  0004d	51		 push	 ecx
  0004e	e8 00 00 00 00	 call	 _memmove
  00053	8b 46 14	 mov	 eax, DWORD PTR [esi+20]
  00056	8b 4e 18	 mov	 ecx, DWORD PTR [esi+24]
  00059	2b c7		 sub	 eax, edi
  0005b	83 c4 0c	 add	 esp, 12			; 0000000cH
  0005e	83 f9 10	 cmp	 ecx, 16			; 00000010H
  00061	89 46 14	 mov	 DWORD PTR [esi+20], eax
  00064	72 02		 jb	 SHORT $L192593

; 801  : 			size_type _Newsize = _Mysize - _Count;
; 802  : 			_Eos(_Newsize);

  00066	8b 1b		 mov	 ebx, DWORD PTR [ebx]
$L192593:
  00068	c6 04 03 00	 mov	 BYTE PTR [ebx+eax], 0
  0006c	5b		 pop	 ebx
$L192598:
  0006d	5f		 pop	 edi

; 803  : 			}
; 804  : 		return (*this);

  0006e	8b c6		 mov	 eax, esi
  00070	5e		 pop	 esi
  00071	5d		 pop	 ebp

; 805  : 		}

  00072	c2 08 00	 ret	 8
?erase@?$basic_string@DU?$char_traits@D@std@@V?$allocator@D@2@@std@@QAEAAV12@II@Z ENDP ; std::basic_string<char,std::char_traits<char>,std::allocator<char> >::erase
_TEXT	ENDS
PUBLIC	?_Copy@?$basic_string@DU?$char_traits@D@std@@V?$allocator@D@2@@std@@IAEXII@Z ; std::basic_string<char,std::char_traits<char>,std::allocator<char> >::_Copy
EXTRN	__except_list:DWORD
EXTRN	___CxxFrameHandler:NEAR
;	COMDAT xdata$x
; File c:\program files\microsoft visual studio .net 2003\vc7\include\iosfwd
xdata$x	SEGMENT
$T192802 DD	0ffffffffH
	DD	00H
	DD	0ffffffffH
	DD	00H
	DD	01H
	DD	00H
	DD	01H
	DD	00H
$T192804 DD	00H
	DD	00H
	DD	00H
	DD	FLAT:$L192604
$T192805 DD	00H
	DD	00H
	DD	00H
	DD	FLAT:$L192602
$T192803 DD	02H
	DD	02H
	DD	03H
	DD	01H
	DD	FLAT:$T192804
	DD	00H
	DD	00H
	DD	03H
	DD	01H
	DD	FLAT:$T192805
$T192796 DD	019930520H
	DD	04H
	DD	FLAT:$T192802
	DD	02H
	DD	FLAT:$T192803
	DD	2 DUP(00H)
; Function compile flags: /Ogty
; File c:\program files\microsoft visual studio .net 2003\vc7\include\xstring
xdata$x	ENDS
;	COMDAT ?_Copy@?$basic_string@DU?$char_traits@D@std@@V?$allocator@D@2@@std@@IAEXII@Z
_TEXT	SEGMENT
__Newres$ = -24						; size = 4
_this$ = -20						; size = 4
__$EHRec$ = -16						; size = 16
__Ptr$ = 8						; size = 4
__Newsize$ = 8						; size = 4
__Oldlen$ = 12						; size = 4
?_Copy@?$basic_string@DU?$char_traits@D@std@@V?$allocator@D@2@@std@@IAEXII@Z PROC NEAR ; std::basic_string<char,std::char_traits<char>,std::allocator<char> >::_Copy, COMDAT
; _this$ = ecx

; 1444 : 		{	// copy _Oldlen elements to newly allocated buffer

  00000	55		 push	 ebp
  00001	8b ec		 mov	 ebp, esp
  00003	6a ff		 push	 -1
  00005	68 00 00 00 00	 push	 __ehhandler$?_Copy@?$basic_string@DU?$char_traits@D@std@@V?$allocator@D@2@@std@@IAEXII@Z
  0000a	64 a1 00 00 00
	00		 mov	 eax, DWORD PTR fs:__except_list
  00010	50		 push	 eax
  00011	64 89 25 00 00
	00 00		 mov	 DWORD PTR fs:__except_list, esp
  00018	83 ec 0c	 sub	 esp, 12			; 0000000cH

; 1445 : 		size_type _Newres = _Newsize | _ALLOC_MASK;

  0001b	8b 45 08	 mov	 eax, DWORD PTR __Newsize$[ebp]
  0001e	53		 push	 ebx
  0001f	56		 push	 esi
  00020	8b d8		 mov	 ebx, eax
  00022	83 cb 0f	 or	 ebx, 15			; 0000000fH

; 1446 : 		if (max_size() < _Newres)

  00025	83 fb fe	 cmp	 ebx, -2			; fffffffeH
  00028	57		 push	 edi
  00029	8b f1		 mov	 esi, ecx
  0002b	89 65 f0	 mov	 DWORD PTR __$EHRec$[ebp], esp
  0002e	89 75 ec	 mov	 DWORD PTR _this$[ebp], esi
  00031	76 04		 jbe	 SHORT $L185550

; 1447 : 			_Newres = _Newsize;	// undo roundup if too big

  00033	8b d8		 mov	 ebx, eax

; 1448 : 		else if (_Newres / 3 < _Myres / 2

  00035	eb 22		 jmp	 SHORT $L185552
$L185550:

; 1449 : 			&& _Myres <= max_size() - _Myres / 2)

  00037	8b 7e 18	 mov	 edi, DWORD PTR [esi+24]
  0003a	b8 ab aa aa aa	 mov	 eax, -1431655765	; aaaaaaabH
  0003f	f7 e3		 mul	 ebx
  00041	8b cf		 mov	 ecx, edi
  00043	d1 e9		 shr	 ecx, 1
  00045	d1 ea		 shr	 edx, 1
  00047	3b d1		 cmp	 edx, ecx
  00049	73 0e		 jae	 SHORT $L185552
  0004b	b8 fe ff ff ff	 mov	 eax, -2			; fffffffeH
  00050	2b c1		 sub	 eax, ecx
  00052	3b f8		 cmp	 edi, eax
  00054	77 03		 ja	 SHORT $L185552

; 1450 : 			_Newres = _Myres + _Myres / 2;	// grow exponentially if possible

  00056	8d 1c 39	 lea	 ebx, DWORD PTR [ecx+edi]
$L185552:

; 1451 : 		_Elem *_Ptr;
; 1452 : 
; 1453 : 		_TRY_BEGIN
; 1454 : 			_Ptr = _Mybase::_Alval.allocate(_Newres + 1);

  00059	8d 4b 01	 lea	 ecx, DWORD PTR [ebx+1]
  0005c	51		 push	 ecx
  0005d	c7 45 fc 00 00
	00 00		 mov	 DWORD PTR __$EHRec$[ebp+12], 0
  00064	e8 00 00 00 00	 call	 ??2@YAPAXI@Z		; operator new
  00069	8b d0		 mov	 edx, eax
  0006b	83 c4 04	 add	 esp, 4
  0006e	89 55 08	 mov	 DWORD PTR __Ptr$[ebp], edx
  00071	eb 29		 jmp	 SHORT $L185554
$L192602:

; 1455 : 		_CATCH_ALL
; 1456 : 			_Newres = _Newsize;	// allocation failed, undo roundup and retry

  00073	8b 45 08	 mov	 eax, DWORD PTR __Newsize$[ebp]
  00076	89 45 e8	 mov	 DWORD PTR __Newres$[ebp], eax

; 1457 : 			_TRY_BEGIN
; 1458 : 				_Ptr = _Mybase::_Alval.allocate(_Newres + 1);

  00079	40		 inc	 eax
  0007a	89 65 f0	 mov	 DWORD PTR __$EHRec$[ebp], esp
  0007d	50		 push	 eax
  0007e	c6 45 fc 02	 mov	 BYTE PTR __$EHRec$[ebp+12], 2
  00082	e8 00 00 00 00	 call	 ??2@YAPAXI@Z		; operator new
  00087	89 45 08	 mov	 DWORD PTR __Ptr$[ebp], eax
  0008a	83 c4 04	 add	 esp, 4

; 1462 : 			_CATCH_END
; 1463 : 		_CATCH_END

  0008d	b8 00 00 00 00	 mov	 eax, $L192797
  00092	c3		 ret	 0
$L192797:
  00093	8b 5d e8	 mov	 ebx, DWORD PTR __Newres$[ebp]
  00096	8b 75 ec	 mov	 esi, DWORD PTR _this$[ebp]
  00099	8b 55 08	 mov	 edx, DWORD PTR __Ptr$[ebp]
$L185554:

; 1464 : 
; 1465 : 		if (0 < _Oldlen)

  0009c	8b 4d 0c	 mov	 ecx, DWORD PTR __Oldlen$[ebp]
  0009f	85 c9		 test	 ecx, ecx
  000a1	76 24		 jbe	 SHORT $L192722

; 1466 : 			_Traits::copy(_Ptr, _Myptr(), _Oldlen);	// copy existing elements

  000a3	83 7e 18 10	 cmp	 DWORD PTR [esi+24], 16	; 00000010H
  000a7	72 05		 jb	 SHORT $L192717
  000a9	8b 76 04	 mov	 esi, DWORD PTR [esi+4]
  000ac	eb 03		 jmp	 SHORT $L192718
$L192717:
  000ae	83 c6 04	 add	 esi, 4
$L192718:
  000b1	8b c1		 mov	 eax, ecx
  000b3	c1 e9 02	 shr	 ecx, 2
  000b6	8b fa		 mov	 edi, edx
  000b8	f3 a5		 rep movsd
  000ba	8b c8		 mov	 ecx, eax
  000bc	83 e1 03	 and	 ecx, 3
  000bf	f3 a4		 rep movsb
  000c1	8b 75 ec	 mov	 esi, DWORD PTR _this$[ebp]
  000c4	8b 4d 0c	 mov	 ecx, DWORD PTR __Oldlen$[ebp]
$L192722:

; 1467 : 		_Tidy(true);

  000c7	83 7e 18 10	 cmp	 DWORD PTR [esi+24], 16	; 00000010H
  000cb	72 12		 jb	 SHORT $L192764
  000cd	8b 4e 04	 mov	 ecx, DWORD PTR [esi+4]
  000d0	51		 push	 ecx
  000d1	e8 00 00 00 00	 call	 ??3@YAXPAX@Z		; operator delete
  000d6	8b 55 08	 mov	 edx, DWORD PTR __Ptr$[ebp]
  000d9	8b 4d 0c	 mov	 ecx, DWORD PTR __Oldlen$[ebp]
  000dc	83 c4 04	 add	 esp, 4
$L192764:

; 1468 : 		_Bx._Ptr = _Ptr;
; 1469 : 		_Myres = _Newres;
; 1470 : 		_Eos(_Oldlen);

  000df	83 fb 10	 cmp	 ebx, 16			; 00000010H
  000e2	8d 46 04	 lea	 eax, DWORD PTR [esi+4]
  000e5	c6 00 00	 mov	 BYTE PTR [eax], 0
  000e8	89 10		 mov	 DWORD PTR [eax], edx
  000ea	89 5e 18	 mov	 DWORD PTR [esi+24], ebx
  000ed	89 4e 14	 mov	 DWORD PTR [esi+20], ecx
  000f0	72 02		 jb	 SHORT $L192790
  000f2	8b c2		 mov	 eax, edx
$L192790:

; 1471 : 		}

  000f4	5f		 pop	 edi
  000f5	c6 04 08 00	 mov	 BYTE PTR [eax+ecx], 0
  000f9	8b 4d f4	 mov	 ecx, DWORD PTR __$EHRec$[ebp+4]
  000fc	5e		 pop	 esi
  000fd	64 89 0d 00 00
	00 00		 mov	 DWORD PTR fs:__except_list, ecx
  00104	5b		 pop	 ebx
  00105	8b e5		 mov	 esp, ebp
  00107	5d		 pop	 ebp
  00108	c2 08 00	 ret	 8
$L192604:

; 1459 : 			_CATCH_ALL
; 1460 : 			_Tidy(true);	// failed again, discard storage and reraise

  0010b	8b 75 ec	 mov	 esi, DWORD PTR _this$[ebp]
  0010e	83 7e 18 10	 cmp	 DWORD PTR [esi+24], 16	; 00000010H
  00112	72 0c		 jb	 SHORT $L192703
  00114	8b 56 04	 mov	 edx, DWORD PTR [esi+4]
  00117	52		 push	 edx
  00118	e8 00 00 00 00	 call	 ??3@YAXPAX@Z		; operator delete
  0011d	83 c4 04	 add	 esp, 4
$L192703:

; 1461 : 			_RERAISE;

  00120	6a 00		 push	 0
  00122	c7 46 18 0f 00
	00 00		 mov	 DWORD PTR [esi+24], 15	; 0000000fH
  00129	c7 46 14 00 00
	00 00		 mov	 DWORD PTR [esi+20], 0
  00130	6a 00		 push	 0
  00132	c6 46 04 00	 mov	 BYTE PTR [esi+4], 0
  00136	e8 00 00 00 00	 call	 __CxxThrowException@8
$L192801:
  0013b	cc		 int	 3
_TEXT	ENDS
;	COMDAT text$x
text$x	SEGMENT
__ehhandler$?_Copy@?$basic_string@DU?$char_traits@D@std@@V?$allocator@D@2@@std@@IAEXII@Z:
  00000	b8 00 00 00 00	 mov	 eax, OFFSET FLAT:$T192796
  00005	e9 00 00 00 00	 jmp	 ___CxxFrameHandler
text$x	ENDS
?_Copy@?$basic_string@DU?$char_traits@D@std@@V?$allocator@D@2@@std@@IAEXII@Z ENDP ; std::basic_string<char,std::char_traits<char>,std::allocator<char> >::_Copy
PUBLIC	?GetFeedEnergy@CPetProperty@@QAEGKH@Z		; CPetProperty::GetFeedEnergy
; Function compile flags: /Ogty
; File c:\documents and settings\test\mes documents\source\virtuos_v17\build\program\_common\pet.cpp
;	COMDAT ?GetFeedEnergy@CPetProperty@@QAEGKH@Z
_TEXT	SEGMENT
_dwCost$ = 8						; size = 4
_nIndex$ = 12						; size = 4
?GetFeedEnergy@CPetProperty@@QAEGKH@Z PROC NEAR		; CPetProperty::GetFeedEnergy, COMDAT
; _this$ = ecx

; 66   : 	if( nIndex < 0 || nIndex > 1 )

  00000	8b 44 24 08	 mov	 eax, DWORD PTR _nIndex$[esp-4]
  00004	85 c0		 test	 eax, eax
  00006	7c 49		 jl	 SHORT $L189467
  00008	83 f8 01	 cmp	 eax, 1
  0000b	7f 44		 jg	 SHORT $L189467

; 68   : 
; 69   : 	vector<FEEDENERGY>* pArr	= &m_aFeedEnergy[nIndex];

  0000d	c1 e0 04	 shl	 eax, 4
  00010	8d 8c 08 88 02
	00 00		 lea	 ecx, DWORD PTR [eax+ecx+648]

; 70   : 	for( vector<FEEDENERGY>::iterator i = pArr->begin(); i != pArr->end(); ++i )

  00017	8b 41 04	 mov	 eax, DWORD PTR [ecx+4]
  0001a	8b 49 08	 mov	 ecx, DWORD PTR [ecx+8]
  0001d	3b c1		 cmp	 eax, ecx
  0001f	74 14		 je	 SHORT $L189592
  00021	8b 54 24 04	 mov	 edx, DWORD PTR _dwCost$[esp-4]
$L192829:

; 71   : 	{
; 72   : 		if( dwCost >= i->dwCostMin && dwCost <= i->dwCostMax )

  00025	3b 10		 cmp	 edx, DWORD PTR [eax]
  00027	72 05		 jb	 SHORT $L189591
  00029	3b 50 04	 cmp	 edx, DWORD PTR [eax+4]
  0002c	76 0d		 jbe	 SHORT $L192915
$L189591:

; 70   : 	for( vector<FEEDENERGY>::iterator i = pArr->begin(); i != pArr->end(); ++i )

  0002e	83 c0 0c	 add	 eax, 12			; 0000000cH
  00031	3b c1		 cmp	 eax, ecx
  00033	75 f0		 jne	 SHORT $L192829
$L189592:

; 74   : 	}
; 75   : 	return 0;

  00035	66 33 c0	 xor	 ax, ax

; 76   : }

  00038	c2 08 00	 ret	 8
$L192915:

; 73   : 			return (WORD)xRandom( i->wEnergyMin, i->wEnergyMax + 1 );	// wEnergyMin ~ wEnergyMax

  0003b	0f b7 48 0a	 movzx	 ecx, WORD PTR [eax+10]
  0003f	0f b7 50 08	 movzx	 edx, WORD PTR [eax+8]
  00043	41		 inc	 ecx
  00044	51		 push	 ecx
  00045	52		 push	 edx
  00046	e8 00 00 00 00	 call	 ?xRandom@@YAKKK@Z	; xRandom
  0004b	83 c4 08	 add	 esp, 8

; 76   : }

  0004e	c2 08 00	 ret	 8
$L189467:

; 67   : 		return 0;

  00051	66 33 c0	 xor	 ax, ax

; 76   : }

  00054	c2 08 00	 ret	 8
?GetFeedEnergy@CPetProperty@@QAEGKH@Z ENDP		; CPetProperty::GetFeedEnergy
_TEXT	ENDS
PUBLIC	??A?$vector@GV?$allocator@G@std@@@std@@QAEAAGI@Z ; std::vector<unsigned short,std::allocator<unsigned short> >::operator[]
; Function compile flags: /Ogty
; File c:\program files\microsoft visual studio .net 2003\vc7\include\vector
;	COMDAT ??A?$vector@GV?$allocator@G@std@@@std@@QAEAAGI@Z
_TEXT	SEGMENT
__Pos$ = 8						; size = 4
??A?$vector@GV?$allocator@G@std@@@std@@QAEAAGI@Z PROC NEAR ; std::vector<unsigned short,std::allocator<unsigned short> >::operator[], COMDAT
; _this$ = ecx

; 555  : 		return (*(begin() + _Pos));

  00000	8b 41 04	 mov	 eax, DWORD PTR [ecx+4]
  00003	8b 4c 24 04	 mov	 ecx, DWORD PTR __Pos$[esp-4]
  00007	8d 04 48	 lea	 eax, DWORD PTR [eax+ecx*2]

; 556  : 		}

  0000a	c2 04 00	 ret	 4
??A?$vector@GV?$allocator@G@std@@@std@@QAEAAGI@Z ENDP	; std::vector<unsigned short,std::allocator<unsigned short> >::operator[]
_TEXT	ENDS
PUBLIC	?_Tidy@?$vector@GV?$allocator@G@std@@@std@@IAEXXZ ; std::vector<unsigned short,std::allocator<unsigned short> >::_Tidy
; Function compile flags: /Ogty
;	COMDAT ?_Tidy@?$vector@GV?$allocator@G@std@@@std@@IAEXXZ
_TEXT	SEGMENT
?_Tidy@?$vector@GV?$allocator@G@std@@@std@@IAEXXZ PROC NEAR ; std::vector<unsigned short,std::allocator<unsigned short> >::_Tidy, COMDAT
; _this$ = ecx

; 791  : 		{	// free all storage

  00000	56		 push	 esi
  00001	8b f1		 mov	 esi, ecx

; 792  : 		if (_Myfirst != 0)

  00003	8b 46 04	 mov	 eax, DWORD PTR [esi+4]
  00006	85 c0		 test	 eax, eax
  00008	74 09		 je	 SHORT $L192960

; 793  : 			{	// something to free, destroy and deallocate it
; 794  : 			_Destroy(_Myfirst, _Mylast);
; 795  : 			this->_Alval.deallocate(_Myfirst, _Myend - _Myfirst);

  0000a	50		 push	 eax
  0000b	e8 00 00 00 00	 call	 ??3@YAXPAX@Z		; operator delete
  00010	83 c4 04	 add	 esp, 4
$L192960:

; 796  : 			}
; 797  : 		_Myfirst = 0, _Mylast = 0, _Myend = 0;

  00013	c7 46 04 00 00
	00 00		 mov	 DWORD PTR [esi+4], 0
  0001a	c7 46 08 00 00
	00 00		 mov	 DWORD PTR [esi+8], 0
  00021	c7 46 0c 00 00
	00 00		 mov	 DWORD PTR [esi+12], 0
  00028	5e		 pop	 esi

; 798  : 		}

  00029	c3		 ret	 0
?_Tidy@?$vector@GV?$allocator@G@std@@@std@@IAEXXZ ENDP	; std::vector<unsigned short,std::allocator<unsigned short> >::_Tidy
_TEXT	ENDS
PUBLIC	?_Ufill@?$vector@GV?$allocator@G@std@@@std@@IAEPAGPAGIABG@Z ; std::vector<unsigned short,std::allocator<unsigned short> >::_Ufill
; Function compile flags: /Ogty
;	COMDAT ?_Ufill@?$vector@GV?$allocator@G@std@@@std@@IAEPAGPAGIABG@Z
_TEXT	SEGMENT
__Ptr$ = 8						; size = 4
__Count$ = 12						; size = 4
__Val$ = 16						; size = 4
?_Ufill@?$vector@GV?$allocator@G@std@@@std@@IAEPAGPAGIABG@Z PROC NEAR ; std::vector<unsigned short,std::allocator<unsigned short> >::_Ufill, COMDAT
; _this$ = ecx

; 877  : 		{	// copy initializing _Count * _Val, using allocator

  00000	56		 push	 esi

; 878  : 		_Uninitialized_fill_n(_Ptr, _Count, _Val, this->_Alval);

  00001	8b 74 24 0c	 mov	 esi, DWORD PTR __Count$[esp]
  00005	85 f6		 test	 esi, esi
  00007	57		 push	 edi
  00008	8b 7c 24 0c	 mov	 edi, DWORD PTR __Ptr$[esp+4]
  0000c	8b c7		 mov	 eax, edi
  0000e	76 14		 jbe	 SHORT $L193002
  00010	8b 54 24 14	 mov	 edx, DWORD PTR __Val$[esp+4]
  00014	8b ce		 mov	 ecx, esi
  00016	53		 push	 ebx
$L192996:
  00017	66 8b 1a	 mov	 bx, WORD PTR [edx]
  0001a	66 89 18	 mov	 WORD PTR [eax], bx
  0001d	83 c0 02	 add	 eax, 2
  00020	49		 dec	 ecx
  00021	75 f4		 jne	 SHORT $L192996
  00023	5b		 pop	 ebx
$L193002:

; 879  : 		return (_Ptr + _Count);

  00024	8d 04 77	 lea	 eax, DWORD PTR [edi+esi*2]
  00027	5f		 pop	 edi
  00028	5e		 pop	 esi

; 880  : 		}

  00029	c2 0c 00	 ret	 12			; 0000000cH
?_Ufill@?$vector@GV?$allocator@G@std@@@std@@IAEPAGPAGIABG@Z ENDP ; std::vector<unsigned short,std::allocator<unsigned short> >::_Ufill
_TEXT	ENDS
PUBLIC	??$_Uninitialized_fill_n@PAU_FEEDENERGY@@IU1@V?$allocator@U_FEEDENERGY@@@std@@@std@@YAXPAU_FEEDENERGY@@IABU1@AAV?$allocator@U_FEEDENERGY@@@0@@Z ; std::_Uninitialized_fill_n<_FEEDENERGY *,unsigned int,_FEEDENERGY,std::allocator<_FEEDENERGY> >
; Function compile flags: /Ogty
; File c:\program files\microsoft visual studio .net 2003\vc7\include\memory
;	COMDAT ??$_Uninitialized_fill_n@PAU_FEEDENERGY@@IU1@V?$allocator@U_FEEDENERGY@@@std@@@std@@YAXPAU_FEEDENERGY@@IABU1@AAV?$allocator@U_FEEDENERGY@@@0@@Z
_TEXT	SEGMENT
__Cat$193009 = -4					; size = 1
__First$ = 8						; size = 4
__Count$ = 12						; size = 4
__Val$ = 16						; size = 4
__Al$ = 20						; size = 4
??$_Uninitialized_fill_n@PAU_FEEDENERGY@@IU1@V?$allocator@U_FEEDENERGY@@@std@@@std@@YAXPAU_FEEDENERGY@@IABU1@AAV?$allocator@U_FEEDENERGY@@@0@@Z PROC NEAR ; std::_Uninitialized_fill_n<_FEEDENERGY *,unsigned int,_FEEDENERGY,std::allocator<_FEEDENERGY> >, COMDAT

; 255  : 	{	// copy _Count *_Val to raw _First, using _Al

  00000	51		 push	 ecx

; 256  : 	_Uninit_fill_n(_First, _Count, _Val, _Al,
; 257  : 		_Ptr_cat(_First, _First));

  00001	8b 04 24	 mov	 eax, DWORD PTR __Cat$193009[esp+4]
  00004	8b 4c 24 14	 mov	 ecx, DWORD PTR __Al$[esp]
  00008	8b 54 24 10	 mov	 edx, DWORD PTR __Val$[esp]
  0000c	50		 push	 eax
  0000d	8b 44 24 10	 mov	 eax, DWORD PTR __Count$[esp+4]
  00011	51		 push	 ecx
  00012	8b 4c 24 10	 mov	 ecx, DWORD PTR __First$[esp+8]
  00016	52		 push	 edx
  00017	50		 push	 eax
  00018	51		 push	 ecx
  00019	e8 00 00 00 00	 call	 ??$_Uninit_fill_n@PAU_FEEDENERGY@@IU1@V?$allocator@U_FEEDENERGY@@@std@@@std@@YAXPAU_FEEDENERGY@@IABU1@AAV?$allocator@U_FEEDENERGY@@@0@U_Nonscalar_ptr_iterator_tag@0@@Z ; std::_Uninit_fill_n<_FEEDENERGY *,unsigned int,_FEEDENERGY,std::allocator<_FEEDENERGY> >

; 258  : 	}

  0001e	83 c4 18	 add	 esp, 24			; 00000018H
  00021	c3		 ret	 0
??$_Uninitialized_fill_n@PAU_FEEDENERGY@@IU1@V?$allocator@U_FEEDENERGY@@@std@@@std@@YAXPAU_FEEDENERGY@@IABU1@AAV?$allocator@U_FEEDENERGY@@@0@@Z ENDP ; std::_Uninitialized_fill_n<_FEEDENERGY *,unsigned int,_FEEDENERGY,std::allocator<_FEEDENERGY> >
_TEXT	ENDS
PUBLIC	??$_Uninitialized_fill_n@PAU_TransformStuffComponent@@IU1@V?$allocator@U_TransformStuffComponent@@@std@@@std@@YAXPAU_TransformStuffComponent@@IABU1@AAV?$allocator@U_TransformStuffComponent@@@0@@Z ; std::_Uninitialized_fill_n<_TransformStuffComponent *,unsigned int,_TransformStuffComponent,std::allocator<_TransformStuffComponent> >
; Function compile flags: /Ogty
;	COMDAT ??$_Uninitialized_fill_n@PAU_TransformStuffComponent@@IU1@V?$allocator@U_TransformStuffComponent@@@std@@@std@@YAXPAU_TransformStuffComponent@@IABU1@AAV?$allocator@U_TransformStuffComponent@@@0@@Z
_TEXT	SEGMENT
__Cat$193016 = -4					; size = 1
__First$ = 8						; size = 4
__Count$ = 12						; size = 4
__Val$ = 16						; size = 4
__Al$ = 20						; size = 4
??$_Uninitialized_fill_n@PAU_TransformStuffComponent@@IU1@V?$allocator@U_TransformStuffComponent@@@std@@@std@@YAXPAU_TransformStuffComponent@@IABU1@AAV?$allocator@U_TransformStuffComponent@@@0@@Z PROC NEAR ; std::_Uninitialized_fill_n<_TransformStuffComponent *,unsigned int,_TransformStuffComponent,std::allocator<_TransformStuffComponent> >, COMDAT

; 255  : 	{	// copy _Count *_Val to raw _First, using _Al

  00000	51		 push	 ecx

; 256  : 	_Uninit_fill_n(_First, _Count, _Val, _Al,
; 257  : 		_Ptr_cat(_First, _First));

  00001	8b 04 24	 mov	 eax, DWORD PTR __Cat$193016[esp+4]
  00004	8b 4c 24 14	 mov	 ecx, DWORD PTR __Al$[esp]
  00008	8b 54 24 10	 mov	 edx, DWORD PTR __Val$[esp]
  0000c	50		 push	 eax
  0000d	8b 44 24 10	 mov	 eax, DWORD PTR __Count$[esp+4]
  00011	51		 push	 ecx
  00012	8b 4c 24 10	 mov	 ecx, DWORD PTR __First$[esp+8]
  00016	52		 push	 edx
  00017	50		 push	 eax
  00018	51		 push	 ecx
  00019	e8 00 00 00 00	 call	 ??$_Uninit_fill_n@PAU_TransformStuffComponent@@IU1@V?$allocator@U_TransformStuffComponent@@@std@@@std@@YAXPAU_TransformStuffComponent@@IABU1@AAV?$allocator@U_TransformStuffComponent@@@0@U_Nonscalar_ptr_iterator_tag@0@@Z ; std::_Uninit_fill_n<_TransformStuffComponent *,unsigned int,_TransformStuffComponent,std::allocator<_TransformStuffComponent> >

; 258  : 	}

  0001e	83 c4 18	 add	 esp, 24			; 00000018H
  00021	c3		 ret	 0
??$_Uninitialized_fill_n@PAU_TransformStuffComponent@@IU1@V?$allocator@U_TransformStuffComponent@@@std@@@std@@YAXPAU_TransformStuffComponent@@IABU1@AAV?$allocator@U_TransformStuffComponent@@@0@@Z ENDP ; std::_Uninitialized_fill_n<_TransformStuffComponent *,unsigned int,_TransformStuffComponent,std::allocator<_TransformStuffComponent> >
_TEXT	ENDS
PUBLIC	??$_Destroy_range@U_FEEDENERGY@@V?$allocator@U_FEEDENERGY@@@std@@@std@@YAXPAU_FEEDENERGY@@0AAV?$allocator@U_FEEDENERGY@@@0@@Z ; std::_Destroy_range<_FEEDENERGY,std::allocator<_FEEDENERGY> >
; Function compile flags: /Ogty
; File c:\program files\microsoft visual studio .net 2003\vc7\include\xmemory
;	COMDAT ??$_Destroy_range@U_FEEDENERGY@@V?$allocator@U_FEEDENERGY@@@std@@@std@@YAXPAU_FEEDENERGY@@0AAV?$allocator@U_FEEDENERGY@@@0@@Z
_TEXT	SEGMENT
__First$ = 8						; size = 4
__Last$ = 12						; size = 4
__Al$ = 16						; size = 4
??$_Destroy_range@U_FEEDENERGY@@V?$allocator@U_FEEDENERGY@@@std@@@std@@YAXPAU_FEEDENERGY@@0AAV?$allocator@U_FEEDENERGY@@@0@@Z PROC NEAR ; std::_Destroy_range<_FEEDENERGY,std::allocator<_FEEDENERGY> >, COMDAT

; 217  : 	_Destroy_range(_First, _Last, _Al, _Ptr_cat(_First, _Last));
; 218  : 	}

  00000	c3		 ret	 0
??$_Destroy_range@U_FEEDENERGY@@V?$allocator@U_FEEDENERGY@@@std@@@std@@YAXPAU_FEEDENERGY@@0AAV?$allocator@U_FEEDENERGY@@@0@@Z ENDP ; std::_Destroy_range<_FEEDENERGY,std::allocator<_FEEDENERGY> >
_TEXT	ENDS
PUBLIC	??$_Ucopy@PAU_FEEDENERGY@@@?$vector@U_FEEDENERGY@@V?$allocator@U_FEEDENERGY@@@std@@@std@@IAEPAU_FEEDENERGY@@PAU2@00@Z ; std::vector<_FEEDENERGY,std::allocator<_FEEDENERGY> >::_Ucopy<_FEEDENERGY *>
; Function compile flags: /Ogty
; File c:\program files\microsoft visual studio .net 2003\vc7\include\vector
;	COMDAT ??$_Ucopy@PAU_FEEDENERGY@@@?$vector@U_FEEDENERGY@@V?$allocator@U_FEEDENERGY@@@std@@@std@@IAEPAU_FEEDENERGY@@PAU2@00@Z
_TEXT	SEGMENT
__First$ = 8						; size = 4
__Last$ = 12						; size = 4
__Cat$193036 = 16					; size = 1
__Ptr$ = 16						; size = 4
??$_Ucopy@PAU_FEEDENERGY@@@?$vector@U_FEEDENERGY@@V?$allocator@U_FEEDENERGY@@@std@@@std@@IAEPAU_FEEDENERGY@@PAU2@00@Z PROC NEAR ; std::vector<_FEEDENERGY,std::allocator<_FEEDENERGY> >::_Ucopy<_FEEDENERGY *>, COMDAT
; _this$ = ecx

; 802  : 		{	// copy initializing [_First, _Last), using allocator
; 803  : 		return (_Uninitialized_copy(_First, _Last,
; 804  : 			_Ptr, this->_Alval));

  00000	8b 44 24 0c	 mov	 eax, DWORD PTR __Cat$193036[esp-4]
  00004	8b 54 24 08	 mov	 edx, DWORD PTR __Last$[esp-4]
  00008	50		 push	 eax
  00009	8b 44 24 08	 mov	 eax, DWORD PTR __First$[esp]
  0000d	51		 push	 ecx
  0000e	8b 4c 24 14	 mov	 ecx, DWORD PTR __Ptr$[esp+4]
  00012	51		 push	 ecx
  00013	52		 push	 edx
  00014	50		 push	 eax
  00015	e8 00 00 00 00	 call	 ??$_Uninit_copy@PAU_FEEDENERGY@@PAU1@V?$allocator@U_FEEDENERGY@@@std@@@std@@YAPAU_FEEDENERGY@@PAU1@00AAV?$allocator@U_FEEDENERGY@@@0@U_Nonscalar_ptr_iterator_tag@0@@Z ; std::_Uninit_copy<_FEEDENERGY *,_FEEDENERGY *,std::allocator<_FEEDENERGY> >
  0001a	83 c4 14	 add	 esp, 20			; 00000014H

; 805  : 		}

  0001d	c2 0c 00	 ret	 12			; 0000000cH
??$_Ucopy@PAU_FEEDENERGY@@@?$vector@U_FEEDENERGY@@V?$allocator@U_FEEDENERGY@@@std@@@std@@IAEPAU_FEEDENERGY@@PAU2@00@Z ENDP ; std::vector<_FEEDENERGY,std::allocator<_FEEDENERGY> >::_Ucopy<_FEEDENERGY *>
_TEXT	ENDS
PUBLIC	??$_Destroy_range@U_TransformStuffComponent@@V?$allocator@U_TransformStuffComponent@@@std@@@std@@YAXPAU_TransformStuffComponent@@0AAV?$allocator@U_TransformStuffComponent@@@0@@Z ; std::_Destroy_range<_TransformStuffComponent,std::allocator<_TransformStuffComponent> >
; Function compile flags: /Ogty
; File c:\program files\microsoft visual studio .net 2003\vc7\include\xmemory
;	COMDAT ??$_Destroy_range@U_TransformStuffComponent@@V?$allocator@U_TransformStuffComponent@@@std@@@std@@YAXPAU_TransformStuffComponent@@0AAV?$allocator@U_TransformStuffComponent@@@0@@Z
_TEXT	SEGMENT
__First$ = 8						; size = 4
__Last$ = 12						; size = 4
__Al$ = 16						; size = 4
??$_Destroy_range@U_TransformStuffComponent@@V?$allocator@U_TransformStuffComponent@@@std@@@std@@YAXPAU_TransformStuffComponent@@0AAV?$allocator@U_TransformStuffComponent@@@0@@Z PROC NEAR ; std::_Destroy_range<_TransformStuffComponent,std::allocator<_TransformStuffComponent> >, COMDAT

; 217  : 	_Destroy_range(_First, _Last, _Al, _Ptr_cat(_First, _Last));
; 218  : 	}

  00000	c3		 ret	 0
??$_Destroy_range@U_TransformStuffComponent@@V?$allocator@U_TransformStuffComponent@@@std@@@std@@YAXPAU_TransformStuffComponent@@0AAV?$allocator@U_TransformStuffComponent@@@0@@Z ENDP ; std::_Destroy_range<_TransformStuffComponent,std::allocator<_TransformStuffComponent> >
_TEXT	ENDS
PUBLIC	??$_Ucopy@PAU_TransformStuffComponent@@@?$vector@U_TransformStuffComponent@@V?$allocator@U_TransformStuffComponent@@@std@@@std@@IAEPAU_TransformStuffComponent@@PAU2@00@Z ; std::vector<_TransformStuffComponent,std::allocator<_TransformStuffComponent> >::_Ucopy<_TransformStuffComponent *>
; Function compile flags: /Ogty
; File c:\program files\microsoft visual studio .net 2003\vc7\include\vector
;	COMDAT ??$_Ucopy@PAU_TransformStuffComponent@@@?$vector@U_TransformStuffComponent@@V?$allocator@U_TransformStuffComponent@@@std@@@std@@IAEPAU_TransformStuffComponent@@PAU2@00@Z
_TEXT	SEGMENT
__First$ = 8						; size = 4
__Last$ = 12						; size = 4
__Cat$193059 = 16					; size = 1
__Ptr$ = 16						; size = 4
??$_Ucopy@PAU_TransformStuffComponent@@@?$vector@U_TransformStuffComponent@@V?$allocator@U_TransformStuffComponent@@@std@@@std@@IAEPAU_TransformStuffComponent@@PAU2@00@Z PROC NEAR ; std::vector<_TransformStuffComponent,std::allocator<_TransformStuffComponent> >::_Ucopy<_TransformStuffComponent *>, COMDAT
; _this$ = ecx

; 802  : 		{	// copy initializing [_First, _Last), using allocator
; 803  : 		return (_Uninitialized_copy(_First, _Last,
; 804  : 			_Ptr, this->_Alval));

  00000	8b 44 24 0c	 mov	 eax, DWORD PTR __Cat$193059[esp-4]
  00004	8b 54 24 08	 mov	 edx, DWORD PTR __Last$[esp-4]
  00008	50		 push	 eax
  00009	8b 44 24 08	 mov	 eax, DWORD PTR __First$[esp]
  0000d	51		 push	 ecx
  0000e	8b 4c 24 14	 mov	 ecx, DWORD PTR __Ptr$[esp+4]
  00012	51		 push	 ecx
  00013	52		 push	 edx
  00014	50		 push	 eax
  00015	e8 00 00 00 00	 call	 ??$_Uninit_copy@PAU_TransformStuffComponent@@PAU1@V?$allocator@U_TransformStuffComponent@@@std@@@std@@YAPAU_TransformStuffComponent@@PAU1@00AAV?$allocator@U_TransformStuffComponent@@@0@U_Nonscalar_ptr_iterator_tag@0@@Z ; std::_Uninit_copy<_TransformStuffComponent *,_TransformStuffComponent *,std::allocator<_TransformStuffComponent> >
  0001a	83 c4 14	 add	 esp, 20			; 00000014H

; 805  : 		}

  0001d	c2 0c 00	 ret	 12			; 0000000cH
??$_Ucopy@PAU_TransformStuffComponent@@@?$vector@U_TransformStuffComponent@@V?$allocator@U_TransformStuffComponent@@@std@@@std@@IAEPAU_TransformStuffComponent@@PAU2@00@Z ENDP ; std::vector<_TransformStuffComponent,std::allocator<_TransformStuffComponent> >::_Ucopy<_TransformStuffComponent *>
_TEXT	ENDS
PUBLIC	??1?$basic_string@DU?$char_traits@D@std@@V?$allocator@D@2@@std@@QAE@XZ ; std::basic_string<char,std::char_traits<char>,std::allocator<char> >::~basic_string<char,std::char_traits<char>,std::allocator<char> >
; Function compile flags: /Ogty
; File c:\program files\microsoft visual studio .net 2003\vc7\include\xstring
;	COMDAT ??1?$basic_string@DU?$char_traits@D@std@@V?$allocator@D@2@@std@@QAE@XZ
_TEXT	SEGMENT
??1?$basic_string@DU?$char_traits@D@std@@V?$allocator@D@2@@std@@QAE@XZ PROC NEAR ; std::basic_string<char,std::char_traits<char>,std::allocator<char> >::~basic_string<char,std::char_traits<char>,std::allocator<char> >, COMDAT
; _this$ = ecx

; 456  : 		{	// destroy the string

  00000	56		 push	 esi
  00001	8b f1		 mov	 esi, ecx

; 457  : 		_Tidy(true);

  00003	83 7e 18 10	 cmp	 DWORD PTR [esi+24], 16	; 00000010H
  00007	72 0c		 jb	 SHORT $L193105
  00009	8b 46 04	 mov	 eax, DWORD PTR [esi+4]
  0000c	50		 push	 eax
  0000d	e8 00 00 00 00	 call	 ??3@YAXPAX@Z		; operator delete
  00012	83 c4 04	 add	 esp, 4
$L193105:
  00015	33 c0		 xor	 eax, eax
  00017	c7 46 18 0f 00
	00 00		 mov	 DWORD PTR [esi+24], 15	; 0000000fH
  0001e	89 46 14	 mov	 DWORD PTR [esi+20], eax
  00021	88 46 04	 mov	 BYTE PTR [esi+4], al
  00024	5e		 pop	 esi

; 458  : 		}

  00025	c3		 ret	 0
??1?$basic_string@DU?$char_traits@D@std@@V?$allocator@D@2@@std@@QAE@XZ ENDP ; std::basic_string<char,std::char_traits<char>,std::allocator<char> >::~basic_string<char,std::char_traits<char>,std::allocator<char> >
_TEXT	ENDS
PUBLIC	?_Grow@?$basic_string@DU?$char_traits@D@std@@V?$allocator@D@2@@std@@IAE_NI_N@Z ; std::basic_string<char,std::char_traits<char>,std::allocator<char> >::_Grow
EXTRN	?_Xlen@_String_base@std@@QBEXXZ:NEAR		; std::_String_base::_Xlen
; Function compile flags: /Ogty
;	COMDAT ?_Grow@?$basic_string@DU?$char_traits@D@std@@V?$allocator@D@2@@std@@IAE_NI_N@Z
_TEXT	SEGMENT
__Newsize$ = 8						; size = 4
__Trim$ = 12						; size = 1
?_Grow@?$basic_string@DU?$char_traits@D@std@@V?$allocator@D@2@@std@@IAE_NI_N@Z PROC NEAR ; std::basic_string<char,std::char_traits<char>,std::allocator<char> >::_Grow, COMDAT
; _this$ = ecx

; 1480 : 		{	// ensure buffer is big enough, trim to size if _Trim is true

  00000	55		 push	 ebp
  00001	56		 push	 esi

; 1481 : 		if (max_size() < _Newsize)

  00002	8b 74 24 0c	 mov	 esi, DWORD PTR __Newsize$[esp+4]
  00006	83 fe fe	 cmp	 esi, -2			; fffffffeH
  00009	8b e9		 mov	 ebp, ecx
  0000b	76 05		 jbe	 SHORT $L185002

; 1482 : 			_String_base::_Xlen();	// result too long

  0000d	e8 00 00 00 00	 call	 ?_Xlen@_String_base@std@@QBEXXZ ; std::_String_base::_Xlen
$L185002:

; 1483 : 		if (_Myres < _Newsize)

  00012	8b 45 18	 mov	 eax, DWORD PTR [ebp+24]
  00015	3b c6		 cmp	 eax, esi
  00017	73 19		 jae	 SHORT $L185003

; 1484 : 			_Copy(_Newsize, _Mysize);	// reallocate to grow

  00019	8b 45 14	 mov	 eax, DWORD PTR [ebp+20]
  0001c	50		 push	 eax
  0001d	56		 push	 esi
  0001e	8b cd		 mov	 ecx, ebp
  00020	e8 00 00 00 00	 call	 ?_Copy@?$basic_string@DU?$char_traits@D@std@@V?$allocator@D@2@@std@@IAEXII@Z ; std::basic_string<char,std::char_traits<char>,std::allocator<char> >::_Copy

; 1490 : 		return (0 < _Newsize);	// return true only if more work to do

  00025	33 c0		 xor	 eax, eax
  00027	3b c6		 cmp	 eax, esi
  00029	1b c0		 sbb	 eax, eax
  0002b	5e		 pop	 esi
  0002c	f7 d8		 neg	 eax
  0002e	5d		 pop	 ebp

; 1491 : 		}

  0002f	c2 08 00	 ret	 8
$L185003:

; 1485 : 		else if (_Trim && _Newsize < _BUF_SIZE)

  00032	8a 4c 24 10	 mov	 cl, BYTE PTR __Trim$[esp+4]
  00036	84 c9		 test	 cl, cl
  00038	74 5c		 je	 SHORT $L185005
  0003a	83 fe 10	 cmp	 esi, 16			; 00000010H
  0003d	73 57		 jae	 SHORT $L185005
  0003f	53		 push	 ebx

; 1486 : 			_Tidy(true,	// copy and deallocate if trimming to small string
; 1487 : 				_Newsize < _Mysize ? _Newsize : _Mysize);

  00040	8b 5d 14	 mov	 ebx, DWORD PTR [ebp+20]
  00043	3b f3		 cmp	 esi, ebx
  00045	73 02		 jae	 SHORT $L193118
  00047	8b de		 mov	 ebx, esi
$L193118:
  00049	83 f8 10	 cmp	 eax, 16			; 00000010H
  0004c	72 2b		 jb	 SHORT $L193179
  0004e	85 db		 test	 ebx, ebx
  00050	8b 45 04	 mov	 eax, DWORD PTR [ebp+4]
  00053	57		 push	 edi
  00054	8d 7d 04	 lea	 edi, DWORD PTR [ebp+4]
  00057	76 16		 jbe	 SHORT $L193177
  00059	8b cb		 mov	 ecx, ebx
  0005b	8b d1		 mov	 edx, ecx
  0005d	c1 e9 02	 shr	 ecx, 2
  00060	8b f0		 mov	 esi, eax
  00062	f3 a5		 rep movsd
  00064	8b ca		 mov	 ecx, edx
  00066	83 e1 03	 and	 ecx, 3
  00069	f3 a4		 rep movsb
  0006b	8b 74 24 14	 mov	 esi, DWORD PTR __Newsize$[esp+12]
$L193177:
  0006f	50		 push	 eax
  00070	e8 00 00 00 00	 call	 ??3@YAXPAX@Z		; operator delete
  00075	83 c4 04	 add	 esp, 4
  00078	5f		 pop	 edi
$L193179:
  00079	89 5d 14	 mov	 DWORD PTR [ebp+20], ebx

; 1490 : 		return (0 < _Newsize);	// return true only if more work to do

  0007c	33 c0		 xor	 eax, eax
  0007e	c7 45 18 0f 00
	00 00		 mov	 DWORD PTR [ebp+24], 15	; 0000000fH
  00085	c6 44 2b 04 00	 mov	 BYTE PTR [ebx+ebp+4], 0
  0008a	3b c6		 cmp	 eax, esi
  0008c	5b		 pop	 ebx
  0008d	1b c0		 sbb	 eax, eax
  0008f	5e		 pop	 esi
  00090	f7 d8		 neg	 eax
  00092	5d		 pop	 ebp

; 1491 : 		}

  00093	c2 08 00	 ret	 8
$L185005:

; 1488 : 		else if (_Newsize == 0)

  00096	85 f6		 test	 esi, esi
  00098	75 23		 jne	 SHORT $L193210

; 1489 : 			_Eos(0);	// new size is zero, just null terminate

  0009a	83 f8 10	 cmp	 eax, 16			; 00000010H
  0009d	89 75 14	 mov	 DWORD PTR [ebp+20], esi
  000a0	72 14		 jb	 SHORT $L193206
  000a2	8b 6d 04	 mov	 ebp, DWORD PTR [ebp+4]

; 1490 : 		return (0 < _Newsize);	// return true only if more work to do

  000a5	33 c0		 xor	 eax, eax
  000a7	3b c6		 cmp	 eax, esi
  000a9	1b c0		 sbb	 eax, eax
  000ab	5e		 pop	 esi
  000ac	c6 45 00 00	 mov	 BYTE PTR [ebp], 0
  000b0	f7 d8		 neg	 eax
  000b2	5d		 pop	 ebp

; 1491 : 		}

  000b3	c2 08 00	 ret	 8

; 1489 : 			_Eos(0);	// new size is zero, just null terminate

$L193206:
  000b6	83 c5 04	 add	 ebp, 4
  000b9	c6 45 00 00	 mov	 BYTE PTR [ebp], 0
$L193210:

; 1490 : 		return (0 < _Newsize);	// return true only if more work to do

  000bd	33 c0		 xor	 eax, eax
  000bf	3b c6		 cmp	 eax, esi
  000c1	1b c0		 sbb	 eax, eax
  000c3	5e		 pop	 esi
  000c4	f7 d8		 neg	 eax
  000c6	5d		 pop	 ebp

; 1491 : 		}

  000c7	c2 08 00	 ret	 8
?_Grow@?$basic_string@DU?$char_traits@D@std@@V?$allocator@D@2@@std@@IAE_NI_N@Z ENDP ; std::basic_string<char,std::char_traits<char>,std::allocator<char> >::_Grow
_TEXT	ENDS
PUBLIC	?GetAddLife@CPetProperty@@QAEGXZ		; CPetProperty::GetAddLife
; Function compile flags: /Ogty
; File c:\documents and settings\test\mes documents\source\virtuos_v17\build\program\_common\pet.cpp
;	COMDAT ?GetAddLife@CPetProperty@@QAEGXZ
_TEXT	SEGMENT
?GetAddLife@CPetProperty@@QAEGXZ PROC NEAR		; CPetProperty::GetAddLife, COMDAT
; _this$ = ecx

; 106  : {

  00000	53		 push	 ebx
  00001	56		 push	 esi
  00002	57		 push	 edi

; 107  : 	DWORD dwTotal	= 0;
; 108  : 	DWORD dwRandom	= xRandom( 1, 101 );	// 1 ~ 100

  00003	6a 65		 push	 101			; 00000065H
  00005	6a 01		 push	 1
  00007	8b f1		 mov	 esi, ecx
  00009	33 ff		 xor	 edi, edi
  0000b	e8 00 00 00 00	 call	 ?xRandom@@YAKKK@Z	; xRandom
  00010	8b 9e d0 02 00
	00		 mov	 ebx, DWORD PTR [esi+720]
  00016	83 c4 08	 add	 esp, 8

; 109  : 	for( DWORD i = 0; i < m_awAddLifeProbability.size(); i++ )

  00019	33 d2		 xor	 edx, edx
  0001b	eb 03 8d 49 00	 npad	 5
$L189623:
  00020	85 db		 test	 ebx, ebx
  00022	74 2a		 je	 SHORT $L189625
  00024	8b 8e d4 02 00
	00		 mov	 ecx, DWORD PTR [esi+724]
  0002a	2b cb		 sub	 ecx, ebx
  0002c	d1 f9		 sar	 ecx, 1
  0002e	3b d1		 cmp	 edx, ecx
  00030	73 1c		 jae	 SHORT $L189625
  00032	8b 8e d0 02 00
	00		 mov	 ecx, DWORD PTR [esi+720]
  00038	8d 0c 51	 lea	 ecx, DWORD PTR [ecx+edx*2]

; 110  : 	{
; 111  : 		dwTotal	+= m_awAddLifeProbability[i];

  0003b	0f b7 09	 movzx	 ecx, WORD PTR [ecx]
  0003e	03 f9		 add	 edi, ecx

; 112  : 		if( dwTotal >= dwRandom )

  00040	3b f8		 cmp	 edi, eax
  00042	73 03		 jae	 SHORT $L193278

; 109  : 	for( DWORD i = 0; i < m_awAddLifeProbability.size(); i++ )

  00044	42		 inc	 edx
  00045	eb d9		 jmp	 SHORT $L189623
$L193278:
  00047	5f		 pop	 edi
  00048	5e		 pop	 esi

; 113  : 			return	( (WORD)( i + 1 ) );

  00049	8d 42 01	 lea	 eax, DWORD PTR [edx+1]
  0004c	5b		 pop	 ebx

; 116  : }

  0004d	c3		 ret	 0
$L189625:
  0004e	5f		 pop	 edi
  0004f	5e		 pop	 esi

; 114  : 	}
; 115  : 	return 1;

  00050	66 b8 01 00	 mov	 ax, 1
  00054	5b		 pop	 ebx

; 116  : }

  00055	c3		 ret	 0
?GetAddLife@CPetProperty@@QAEGXZ ENDP			; CPetProperty::GetAddLife
_TEXT	ENDS
PUBLIC	??1?$vector@GV?$allocator@G@std@@@std@@QAE@XZ	; std::vector<unsigned short,std::allocator<unsigned short> >::~vector<unsigned short,std::allocator<unsigned short> >
; Function compile flags: /Ogty
; File c:\program files\microsoft visual studio .net 2003\vc7\include\vector
;	COMDAT ??1?$vector@GV?$allocator@G@std@@@std@@QAE@XZ
_TEXT	SEGMENT
??1?$vector@GV?$allocator@G@std@@@std@@QAE@XZ PROC NEAR	; std::vector<unsigned short,std::allocator<unsigned short> >::~vector<unsigned short,std::allocator<unsigned short> >, COMDAT
; _this$ = ecx

; 387  : 		{	// destroy the object

  00000	56		 push	 esi
  00001	8b f1		 mov	 esi, ecx

; 388  : 		_Tidy();

  00003	8b 46 04	 mov	 eax, DWORD PTR [esi+4]
  00006	85 c0		 test	 eax, eax
  00008	74 09		 je	 SHORT $L193291
  0000a	50		 push	 eax
  0000b	e8 00 00 00 00	 call	 ??3@YAXPAX@Z		; operator delete
  00010	83 c4 04	 add	 esp, 4
$L193291:
  00013	c7 46 04 00 00
	00 00		 mov	 DWORD PTR [esi+4], 0
  0001a	c7 46 08 00 00
	00 00		 mov	 DWORD PTR [esi+8], 0
  00021	c7 46 0c 00 00
	00 00		 mov	 DWORD PTR [esi+12], 0
  00028	5e		 pop	 esi

; 389  : 		}

  00029	c3		 ret	 0
??1?$vector@GV?$allocator@G@std@@@std@@QAE@XZ ENDP	; std::vector<unsigned short,std::allocator<unsigned short> >::~vector<unsigned short,std::allocator<unsigned short> >
_TEXT	ENDS
PUBLIC	?clear@?$vector@GV?$allocator@G@std@@@std@@QAEXXZ ; std::vector<unsigned short,std::allocator<unsigned short> >::clear
; Function compile flags: /Ogty
;	COMDAT ?clear@?$vector@GV?$allocator@G@std@@@std@@QAEXXZ
_TEXT	SEGMENT
?clear@?$vector@GV?$allocator@G@std@@@std@@QAEXXZ PROC NEAR ; std::vector<unsigned short,std::allocator<unsigned short> >::clear, COMDAT
; _this$ = ecx

; 743  : 		{	// erase all

  00000	56		 push	 esi
  00001	8b f1		 mov	 esi, ecx

; 744  : 		_Tidy();

  00003	8b 46 04	 mov	 eax, DWORD PTR [esi+4]
  00006	85 c0		 test	 eax, eax
  00008	74 09		 je	 SHORT $L193304
  0000a	50		 push	 eax
  0000b	e8 00 00 00 00	 call	 ??3@YAXPAX@Z		; operator delete
  00010	83 c4 04	 add	 esp, 4
$L193304:
  00013	c7 46 04 00 00
	00 00		 mov	 DWORD PTR [esi+4], 0
  0001a	c7 46 08 00 00
	00 00		 mov	 DWORD PTR [esi+8], 0
  00021	c7 46 0c 00 00
	00 00		 mov	 DWORD PTR [esi+12], 0
  00028	5e		 pop	 esi

; 745  : 		}

  00029	c3		 ret	 0
?clear@?$vector@GV?$allocator@G@std@@@std@@QAEXXZ ENDP	; std::vector<unsigned short,std::allocator<unsigned short> >::clear
_TEXT	ENDS
PUBLIC	?_Ufill@?$vector@U_FEEDENERGY@@V?$allocator@U_FEEDENERGY@@@std@@@std@@IAEPAU_FEEDENERGY@@PAU3@IABU3@@Z ; std::vector<_FEEDENERGY,std::allocator<_FEEDENERGY> >::_Ufill
; Function compile flags: /Ogty
;	COMDAT ?_Ufill@?$vector@U_FEEDENERGY@@V?$allocator@U_FEEDENERGY@@@std@@@std@@IAEPAU_FEEDENERGY@@PAU3@IABU3@@Z
_TEXT	SEGMENT
__Ptr$ = 8						; size = 4
__Count$ = 12						; size = 4
__Cat$193318 = 16					; size = 1
__Val$ = 16						; size = 4
?_Ufill@?$vector@U_FEEDENERGY@@V?$allocator@U_FEEDENERGY@@@std@@@std@@IAEPAU_FEEDENERGY@@PAU3@IABU3@@Z PROC NEAR ; std::vector<_FEEDENERGY,std::allocator<_FEEDENERGY> >::_Ufill, COMDAT
; _this$ = ecx

; 878  : 		_Uninitialized_fill_n(_Ptr, _Count, _Val, this->_Alval);

  00000	8b 44 24 0c	 mov	 eax, DWORD PTR __Cat$193318[esp-4]
  00004	56		 push	 esi
  00005	8b 74 24 0c	 mov	 esi, DWORD PTR __Count$[esp]
  00009	57		 push	 edi
  0000a	8b 7c 24 0c	 mov	 edi, DWORD PTR __Ptr$[esp+4]
  0000e	50		 push	 eax
  0000f	51		 push	 ecx
  00010	8b 4c 24 1c	 mov	 ecx, DWORD PTR __Val$[esp+12]
  00014	51		 push	 ecx
  00015	56		 push	 esi
  00016	57		 push	 edi
  00017	e8 00 00 00 00	 call	 ??$_Uninit_fill_n@PAU_FEEDENERGY@@IU1@V?$allocator@U_FEEDENERGY@@@std@@@std@@YAXPAU_FEEDENERGY@@IABU1@AAV?$allocator@U_FEEDENERGY@@@0@U_Nonscalar_ptr_iterator_tag@0@@Z ; std::_Uninit_fill_n<_FEEDENERGY *,unsigned int,_FEEDENERGY,std::allocator<_FEEDENERGY> >

; 879  : 		return (_Ptr + _Count);

  0001c	8d 14 76	 lea	 edx, DWORD PTR [esi+esi*2]
  0001f	83 c4 14	 add	 esp, 20			; 00000014H
  00022	8d 04 97	 lea	 eax, DWORD PTR [edi+edx*4]
  00025	5f		 pop	 edi
  00026	5e		 pop	 esi

; 880  : 		}

  00027	c2 0c 00	 ret	 12			; 0000000cH
?_Ufill@?$vector@U_FEEDENERGY@@V?$allocator@U_FEEDENERGY@@@std@@@std@@IAEPAU_FEEDENERGY@@PAU3@IABU3@@Z ENDP ; std::vector<_FEEDENERGY,std::allocator<_FEEDENERGY> >::_Ufill
_TEXT	ENDS
PUBLIC	?_Ufill@?$vector@U_TransformStuffComponent@@V?$allocator@U_TransformStuffComponent@@@std@@@std@@IAEPAU_TransformStuffComponent@@PAU3@IABU3@@Z ; std::vector<_TransformStuffComponent,std::allocator<_TransformStuffComponent> >::_Ufill
; Function compile flags: /Ogty
;	COMDAT ?_Ufill@?$vector@U_TransformStuffComponent@@V?$allocator@U_TransformStuffComponent@@@std@@@std@@IAEPAU_TransformStuffComponent@@PAU3@IABU3@@Z
_TEXT	SEGMENT
__Ptr$ = 8						; size = 4
__Count$ = 12						; size = 4
__Cat$193333 = 16					; size = 1
__Val$ = 16						; size = 4
?_Ufill@?$vector@U_TransformStuffComponent@@V?$allocator@U_TransformStuffComponent@@@std@@@std@@IAEPAU_TransformStuffComponent@@PAU3@IABU3@@Z PROC NEAR ; std::vector<_TransformStuffComponent,std::allocator<_TransformStuffComponent> >::_Ufill, COMDAT
; _this$ = ecx

; 878  : 		_Uninitialized_fill_n(_Ptr, _Count, _Val, this->_Alval);

  00000	8b 44 24 0c	 mov	 eax, DWORD PTR __Cat$193333[esp-4]
  00004	56		 push	 esi
  00005	8b 74 24 0c	 mov	 esi, DWORD PTR __Count$[esp]
  00009	57		 push	 edi
  0000a	8b 7c 24 0c	 mov	 edi, DWORD PTR __Ptr$[esp+4]
  0000e	50		 push	 eax
  0000f	51		 push	 ecx
  00010	8b 4c 24 1c	 mov	 ecx, DWORD PTR __Val$[esp+12]
  00014	51		 push	 ecx
  00015	56		 push	 esi
  00016	57		 push	 edi
  00017	e8 00 00 00 00	 call	 ??$_Uninit_fill_n@PAU_TransformStuffComponent@@IU1@V?$allocator@U_TransformStuffComponent@@@std@@@std@@YAXPAU_TransformStuffComponent@@IABU1@AAV?$allocator@U_TransformStuffComponent@@@0@U_Nonscalar_ptr_iterator_tag@0@@Z ; std::_Uninit_fill_n<_TransformStuffComponent *,unsigned int,_TransformStuffComponent,std::allocator<_TransformStuffComponent> >
  0001c	83 c4 14	 add	 esp, 20			; 00000014H

; 879  : 		return (_Ptr + _Count);

  0001f	8d 04 f7	 lea	 eax, DWORD PTR [edi+esi*8]
  00022	5f		 pop	 edi
  00023	5e		 pop	 esi

; 880  : 		}

  00024	c2 0c 00	 ret	 12			; 0000000cH
?_Ufill@?$vector@U_TransformStuffComponent@@V?$allocator@U_TransformStuffComponent@@@std@@@std@@IAEPAU_TransformStuffComponent@@PAU3@IABU3@@Z ENDP ; std::vector<_TransformStuffComponent,std::allocator<_TransformStuffComponent> >::_Ufill
_TEXT	ENDS
PUBLIC	?_Destroy@?$vector@U_FEEDENERGY@@V?$allocator@U_FEEDENERGY@@@std@@@std@@IAEXPAU_FEEDENERGY@@0@Z ; std::vector<_FEEDENERGY,std::allocator<_FEEDENERGY> >::_Destroy
; Function compile flags: /Ogty
;	COMDAT ?_Destroy@?$vector@U_FEEDENERGY@@V?$allocator@U_FEEDENERGY@@@std@@@std@@IAEXPAU_FEEDENERGY@@0@Z
_TEXT	SEGMENT
__First$ = 8						; size = 4
__Last$ = 12						; size = 4
?_Destroy@?$vector@U_FEEDENERGY@@V?$allocator@U_FEEDENERGY@@@std@@@std@@IAEXPAU_FEEDENERGY@@0@Z PROC NEAR ; std::vector<_FEEDENERGY,std::allocator<_FEEDENERGY> >::_Destroy, COMDAT
; _this$ = ecx

; 787  : 		_Destroy_range(_First, _Last, this->_Alval);
; 788  : 		}

  00000	c2 08 00	 ret	 8
?_Destroy@?$vector@U_FEEDENERGY@@V?$allocator@U_FEEDENERGY@@@std@@@std@@IAEXPAU_FEEDENERGY@@0@Z ENDP ; std::vector<_FEEDENERGY,std::allocator<_FEEDENERGY> >::_Destroy
_TEXT	ENDS
PUBLIC	?_Destroy@?$vector@U_TransformStuffComponent@@V?$allocator@U_TransformStuffComponent@@@std@@@std@@IAEXPAU_TransformStuffComponent@@0@Z ; std::vector<_TransformStuffComponent,std::allocator<_TransformStuffComponent> >::_Destroy
; Function compile flags: /Ogty
;	COMDAT ?_Destroy@?$vector@U_TransformStuffComponent@@V?$allocator@U_TransformStuffComponent@@@std@@@std@@IAEXPAU_TransformStuffComponent@@0@Z
_TEXT	SEGMENT
__First$ = 8						; size = 4
__Last$ = 12						; size = 4
?_Destroy@?$vector@U_TransformStuffComponent@@V?$allocator@U_TransformStuffComponent@@@std@@@std@@IAEXPAU_TransformStuffComponent@@0@Z PROC NEAR ; std::vector<_TransformStuffComponent,std::allocator<_TransformStuffComponent> >::_Destroy, COMDAT
; _this$ = ecx

; 787  : 		_Destroy_range(_First, _Last, this->_Alval);
; 788  : 		}

  00000	c2 08 00	 ret	 8
?_Destroy@?$vector@U_TransformStuffComponent@@V?$allocator@U_TransformStuffComponent@@@std@@@std@@IAEXPAU_TransformStuffComponent@@0@Z ENDP ; std::vector<_TransformStuffComponent,std::allocator<_TransformStuffComponent> >::_Destroy
_TEXT	ENDS
PUBLIC	??_7logic_error@std@@6B@			; std::logic_error::`vftable'
PUBLIC	??_Glogic_error@std@@UAEPAXI@Z			; std::logic_error::`scalar deleting destructor'
PUBLIC	??1logic_error@std@@UAE@XZ			; std::logic_error::~logic_error
PUBLIC	?what@logic_error@std@@UBEPBDXZ			; std::logic_error::what
EXTRN	??_Elogic_error@std@@UAEPAXI@Z:NEAR		; std::logic_error::`vector deleting destructor'
EXTRN	??1exception@@UAE@XZ:NEAR			; exception::~exception
;	COMDAT ??_7logic_error@std@@6B@
; File c:\program files\microsoft visual studio .net 2003\vc7\include\iosfwd
CONST	SEGMENT
??_7logic_error@std@@6B@ DD FLAT:??_Elogic_error@std@@UAEPAXI@Z ; std::logic_error::`vftable'
	DD	FLAT:?what@logic_error@std@@UBEPBDXZ
; Function compile flags: /Ogty
; File c:\program files\microsoft visual studio .net 2003\vc7\include\stdexcept
CONST	ENDS
;	COMDAT ??1logic_error@std@@UAE@XZ
_TEXT	SEGMENT
??1logic_error@std@@UAE@XZ PROC NEAR			; std::logic_error::~logic_error, COMDAT
; _this$ = ecx

; 23   : 		{}	// destroy the object

  00000	56		 push	 esi
  00001	8b f1		 mov	 esi, ecx
  00003	c7 06 00 00 00
	00		 mov	 DWORD PTR [esi], OFFSET FLAT:??_7logic_error@std@@6B@
  00009	83 7e 24 10	 cmp	 DWORD PTR [esi+36], 16	; 00000010H
  0000d	72 0c		 jb	 SHORT $L193405
  0000f	8b 46 10	 mov	 eax, DWORD PTR [esi+16]
  00012	50		 push	 eax
  00013	e8 00 00 00 00	 call	 ??3@YAXPAX@Z		; operator delete
  00018	83 c4 04	 add	 esp, 4
$L193405:
  0001b	33 c0		 xor	 eax, eax
  0001d	c7 46 24 0f 00
	00 00		 mov	 DWORD PTR [esi+36], 15	; 0000000fH
  00024	89 46 20	 mov	 DWORD PTR [esi+32], eax
  00027	88 46 10	 mov	 BYTE PTR [esi+16], al
  0002a	8b ce		 mov	 ecx, esi
  0002c	5e		 pop	 esi
  0002d	e9 00 00 00 00	 jmp	 ??1exception@@UAE@XZ	; exception::~exception
??1logic_error@std@@UAE@XZ ENDP				; std::logic_error::~logic_error
; Function compile flags: /Ogty
_TEXT	ENDS
;	COMDAT ?what@logic_error@std@@UBEPBDXZ
_TEXT	SEGMENT
?what@logic_error@std@@UBEPBDXZ PROC NEAR		; std::logic_error::what, COMDAT
; _this$ = ecx

; 27   : 		return (_Str.c_str());

  00000	83 79 24 10	 cmp	 DWORD PTR [ecx+36], 16	; 00000010H
  00004	72 04		 jb	 SHORT $L193432
  00006	8b 41 10	 mov	 eax, DWORD PTR [ecx+16]

; 28   : 		}

  00009	c3		 ret	 0

; 27   : 		return (_Str.c_str());

$L193432:
  0000a	8d 41 10	 lea	 eax, DWORD PTR [ecx+16]

; 28   : 		}

  0000d	c3		 ret	 0
?what@logic_error@std@@UBEPBDXZ ENDP			; std::logic_error::what
; Function compile flags: /Ogty
_TEXT	ENDS
;	COMDAT ??_Glogic_error@std@@UAEPAXI@Z
_TEXT	SEGMENT
___flags$ = 8						; size = 4
??_Glogic_error@std@@UAEPAXI@Z PROC NEAR		; std::logic_error::`scalar deleting destructor', COMDAT
; _this$ = ecx
  00000	56		 push	 esi
  00001	8b f1		 mov	 esi, ecx
  00003	e8 00 00 00 00	 call	 ??1logic_error@std@@UAE@XZ ; std::logic_error::~logic_error
  00008	f6 44 24 08 01	 test	 BYTE PTR ___flags$[esp], 1
  0000d	74 09		 je	 SHORT $L193438
  0000f	56		 push	 esi
  00010	e8 00 00 00 00	 call	 ??3@YAXPAX@Z		; operator delete
  00015	83 c4 04	 add	 esp, 4
$L193438:
  00018	8b c6		 mov	 eax, esi
  0001a	5e		 pop	 esi
  0001b	c2 04 00	 ret	 4
??_Glogic_error@std@@UAEPAXI@Z ENDP			; std::logic_error::`scalar deleting destructor'
_TEXT	ENDS
PUBLIC	?assign@?$basic_string@DU?$char_traits@D@std@@V?$allocator@D@2@@std@@QAEAAV12@ABV12@II@Z ; std::basic_string<char,std::char_traits<char>,std::allocator<char> >::assign
; Function compile flags: /Ogty
; File c:\program files\microsoft visual studio .net 2003\vc7\include\xstring
;	COMDAT ?assign@?$basic_string@DU?$char_traits@D@std@@V?$allocator@D@2@@std@@QAEAAV12@ABV12@II@Z
_TEXT	SEGMENT
__Right$ = 8						; size = 4
__Roff$ = 12						; size = 4
__Count$ = 16						; size = 4
?assign@?$basic_string@DU?$char_traits@D@std@@V?$allocator@D@2@@std@@QAEAAV12@ABV12@II@Z PROC NEAR ; std::basic_string<char,std::char_traits<char>,std::allocator<char> >::assign, COMDAT
; _this$ = ecx

; 590  : 		{	// assign _Right [_Roff, _Roff + _Count)

  00000	53		 push	 ebx
  00001	55		 push	 ebp
  00002	56		 push	 esi

; 591  : 		if (_Right.size() < _Roff)

  00003	8b 74 24 14	 mov	 esi, DWORD PTR __Roff$[esp+8]
  00007	57		 push	 edi
  00008	8b 7c 24 14	 mov	 edi, DWORD PTR __Right$[esp+12]
  0000c	39 77 14	 cmp	 DWORD PTR [edi+20], esi
  0000f	8b d9		 mov	 ebx, ecx
  00011	73 05		 jae	 SHORT $L184271

; 592  : 			_String_base::_Xran();	// _Roff off end

  00013	e8 00 00 00 00	 call	 ?_Xran@_String_base@std@@QBEXXZ ; std::_String_base::_Xran
$L184271:

; 593  : 		size_type _Num = _Right.size() - _Roff;

  00018	8b 6f 14	 mov	 ebp, DWORD PTR [edi+20]

; 594  : 		if (_Count < _Num)

  0001b	8b 44 24 1c	 mov	 eax, DWORD PTR __Count$[esp+12]
  0001f	2b ee		 sub	 ebp, esi
  00021	3b c5		 cmp	 eax, ebp
  00023	73 02		 jae	 SHORT $L184273

; 595  : 			_Num = _Count;	// trim _Num to size

  00025	8b e8		 mov	 ebp, eax
$L184273:

; 596  : 
; 597  : 		if (this == &_Right)

  00027	3b df		 cmp	 ebx, edi
  00029	75 1f		 jne	 SHORT $L184274

; 598  : 			erase((size_type)(_Roff + _Num)), erase(0, _Roff);	// substring

  0002b	6a ff		 push	 -1
  0002d	03 ee		 add	 ebp, esi
  0002f	55		 push	 ebp
  00030	8b cb		 mov	 ecx, ebx
  00032	e8 00 00 00 00	 call	 ?erase@?$basic_string@DU?$char_traits@D@std@@V?$allocator@D@2@@std@@QAEAAV12@II@Z ; std::basic_string<char,std::char_traits<char>,std::allocator<char> >::erase
  00037	56		 push	 esi
  00038	6a 00		 push	 0
  0003a	8b cb		 mov	 ecx, ebx
  0003c	e8 00 00 00 00	 call	 ?erase@?$basic_string@DU?$char_traits@D@std@@V?$allocator@D@2@@std@@QAEAAV12@II@Z ; std::basic_string<char,std::char_traits<char>,std::allocator<char> >::erase
  00041	5f		 pop	 edi
  00042	5e		 pop	 esi
  00043	5d		 pop	 ebp

; 603  : 			}
; 604  : 		return (*this);

  00044	8b c3		 mov	 eax, ebx
  00046	5b		 pop	 ebx

; 605  : 		}

  00047	c2 0c 00	 ret	 12			; 0000000cH
$L184274:

; 599  : 		else if (_Grow(_Num))

  0004a	83 fd fe	 cmp	 ebp, -2			; fffffffeH
  0004d	76 07		 jbe	 SHORT $L193554
  0004f	8b cb		 mov	 ecx, ebx
  00051	e8 00 00 00 00	 call	 ?_Xlen@_String_base@std@@QBEXXZ ; std::_String_base::_Xlen
$L193554:
  00056	8b 43 18	 mov	 eax, DWORD PTR [ebx+24]
  00059	3b c5		 cmp	 eax, ebp
  0005b	73 21		 jae	 SHORT $L193555
  0005d	8b 43 14	 mov	 eax, DWORD PTR [ebx+20]
  00060	50		 push	 eax
  00061	55		 push	 ebp
  00062	8b cb		 mov	 ecx, ebx
  00064	e8 00 00 00 00	 call	 ?_Copy@?$basic_string@DU?$char_traits@D@std@@V?$allocator@D@2@@std@@IAEXII@Z ; std::basic_string<char,std::char_traits<char>,std::allocator<char> >::_Copy
  00069	85 ed		 test	 ebp, ebp
$L193634:
  0006b	76 6d		 jbe	 SHORT $L193633

; 600  : 			{	// make room and assign new stuff
; 601  : 			_Traits::copy(_Myptr(), _Right._Myptr() + _Roff, _Num);

  0006d	8b 4f 18	 mov	 ecx, DWORD PTR [edi+24]
  00070	b8 10 00 00 00	 mov	 eax, 16			; 00000010H
  00075	3b c8		 cmp	 ecx, eax
  00077	72 2f		 jb	 SHORT $L193598
  00079	8b 57 04	 mov	 edx, DWORD PTR [edi+4]
  0007c	eb 2d		 jmp	 SHORT $L193599

; 599  : 		else if (_Grow(_Num))

$L193555:
  0007e	85 ed		 test	 ebp, ebp
  00080	75 e9		 jne	 SHORT $L193634
  00082	83 f8 10	 cmp	 eax, 16			; 00000010H
  00085	89 6b 14	 mov	 DWORD PTR [ebx+20], ebp
  00088	72 0f		 jb	 SHORT $L193549
  0008a	8b 43 04	 mov	 eax, DWORD PTR [ebx+4]
  0008d	5f		 pop	 edi
  0008e	5e		 pop	 esi
  0008f	c6 00 00	 mov	 BYTE PTR [eax], 0
  00092	5d		 pop	 ebp

; 603  : 			}
; 604  : 		return (*this);

  00093	8b c3		 mov	 eax, ebx
  00095	5b		 pop	 ebx

; 605  : 		}

  00096	c2 0c 00	 ret	 12			; 0000000cH

; 599  : 		else if (_Grow(_Num))

$L193549:
  00099	5f		 pop	 edi
  0009a	8d 43 04	 lea	 eax, DWORD PTR [ebx+4]
  0009d	5e		 pop	 esi
  0009e	c6 00 00	 mov	 BYTE PTR [eax], 0
  000a1	5d		 pop	 ebp

; 603  : 			}
; 604  : 		return (*this);

  000a2	8b c3		 mov	 eax, ebx
  000a4	5b		 pop	 ebx

; 605  : 		}

  000a5	c2 0c 00	 ret	 12			; 0000000cH

; 600  : 			{	// make room and assign new stuff
; 601  : 			_Traits::copy(_Myptr(), _Right._Myptr() + _Roff, _Num);

$L193598:
  000a8	8d 57 04	 lea	 edx, DWORD PTR [edi+4]
$L193599:
  000ab	39 43 18	 cmp	 DWORD PTR [ebx+24], eax
  000ae	8d 43 04	 lea	 eax, DWORD PTR [ebx+4]
  000b1	72 04		 jb	 SHORT $L193605
  000b3	8b 38		 mov	 edi, DWORD PTR [eax]
  000b5	eb 02		 jmp	 SHORT $L193606
$L193605:
  000b7	8b f8		 mov	 edi, eax
$L193606:
  000b9	03 f2		 add	 esi, edx
  000bb	8b cd		 mov	 ecx, ebp
  000bd	8b d1		 mov	 edx, ecx
  000bf	c1 e9 02	 shr	 ecx, 2
  000c2	f3 a5		 rep movsd
  000c4	8b ca		 mov	 ecx, edx
  000c6	83 e1 03	 and	 ecx, 3
  000c9	f3 a4		 rep movsb

; 602  : 			_Eos(_Num);

  000cb	83 7b 18 10	 cmp	 DWORD PTR [ebx+24], 16	; 00000010H
  000cf	89 6b 14	 mov	 DWORD PTR [ebx+20], ebp
  000d2	72 02		 jb	 SHORT $L193628
  000d4	8b 00		 mov	 eax, DWORD PTR [eax]
$L193628:
  000d6	c6 04 28 00	 mov	 BYTE PTR [eax+ebp], 0
$L193633:
  000da	5f		 pop	 edi
  000db	5e		 pop	 esi
  000dc	5d		 pop	 ebp

; 603  : 			}
; 604  : 		return (*this);

  000dd	8b c3		 mov	 eax, ebx
  000df	5b		 pop	 ebx

; 605  : 		}

  000e0	c2 0c 00	 ret	 12			; 0000000cH
?assign@?$basic_string@DU?$char_traits@D@std@@V?$allocator@D@2@@std@@QAEAAV12@ABV12@II@Z ENDP ; std::basic_string<char,std::char_traits<char>,std::allocator<char> >::assign
_TEXT	ENDS
PUBLIC	?assign@?$basic_string@DU?$char_traits@D@std@@V?$allocator@D@2@@std@@QAEAAV12@PBDI@Z ; std::basic_string<char,std::char_traits<char>,std::allocator<char> >::assign
; Function compile flags: /Ogty
;	COMDAT ?assign@?$basic_string@DU?$char_traits@D@std@@V?$allocator@D@2@@std@@QAEAAV12@PBDI@Z
_TEXT	SEGMENT
__Ptr$ = 8						; size = 4
__Num$ = 12						; size = 4
?assign@?$basic_string@DU?$char_traits@D@std@@V?$allocator@D@2@@std@@QAEAAV12@PBDI@Z PROC NEAR ; std::basic_string<char,std::char_traits<char>,std::allocator<char> >::assign, COMDAT
; _this$ = ecx

; 608  : 		{	// assign [_Ptr, _Ptr + _Num)

  00000	53		 push	 ebx
  00001	8b d9		 mov	 ebx, ecx

; 609  : 		if (_Inside(_Ptr))

  00003	8b 53 18	 mov	 edx, DWORD PTR [ebx+24]
  00006	83 fa 10	 cmp	 edx, 16			; 00000010H
  00009	56		 push	 esi
  0000a	57		 push	 edi
  0000b	72 05		 jb	 SHORT $L193654
  0000d	8b 43 04	 mov	 eax, DWORD PTR [ebx+4]
  00010	eb 03		 jmp	 SHORT $L193655
$L193654:
  00012	8d 43 04	 lea	 eax, DWORD PTR [ebx+4]
$L193655:
  00015	8b 74 24 10	 mov	 esi, DWORD PTR __Ptr$[esp+8]
  00019	3b f0		 cmp	 esi, eax
  0001b	72 34		 jb	 SHORT $L184989
  0001d	83 fa 10	 cmp	 edx, 16			; 00000010H
  00020	8d 43 04	 lea	 eax, DWORD PTR [ebx+4]
  00023	72 04		 jb	 SHORT $L193658
  00025	8b 08		 mov	 ecx, DWORD PTR [eax]
  00027	eb 02		 jmp	 SHORT $L193659
$L193658:
  00029	8b c8		 mov	 ecx, eax
$L193659:
  0002b	8b 7b 14	 mov	 edi, DWORD PTR [ebx+20]
  0002e	03 f9		 add	 edi, ecx
  00030	3b fe		 cmp	 edi, esi
  00032	76 1d		 jbe	 SHORT $L184989

; 610  : 			return (assign(*this, _Ptr - _Myptr(), _Num));	// substring

  00034	83 fa 10	 cmp	 edx, 16			; 00000010H
  00037	72 02		 jb	 SHORT $L193671
  00039	8b 00		 mov	 eax, DWORD PTR [eax]
$L193671:
  0003b	8b 4c 24 14	 mov	 ecx, DWORD PTR __Num$[esp+8]
  0003f	51		 push	 ecx
  00040	2b f0		 sub	 esi, eax
  00042	56		 push	 esi
  00043	53		 push	 ebx
  00044	8b cb		 mov	 ecx, ebx
  00046	e8 00 00 00 00	 call	 ?assign@?$basic_string@DU?$char_traits@D@std@@V?$allocator@D@2@@std@@QAEAAV12@ABV12@II@Z ; std::basic_string<char,std::char_traits<char>,std::allocator<char> >::assign
  0004b	5f		 pop	 edi
  0004c	5e		 pop	 esi
  0004d	5b		 pop	 ebx

; 618  : 		}

  0004e	c2 08 00	 ret	 8
$L184989:
  00051	55		 push	 ebp

; 611  : 
; 612  : 		if (_Grow(_Num))

  00052	8b 6c 24 18	 mov	 ebp, DWORD PTR __Num$[esp+12]
  00056	83 fd fe	 cmp	 ebp, -2			; fffffffeH
  00059	76 07		 jbe	 SHORT $L193812
  0005b	8b cb		 mov	 ecx, ebx
  0005d	e8 00 00 00 00	 call	 ?_Xlen@_String_base@std@@QBEXXZ ; std::_String_base::_Xlen
$L193812:
  00062	8b 43 18	 mov	 eax, DWORD PTR [ebx+24]
  00065	3b c5		 cmp	 eax, ebp
  00067	73 1b		 jae	 SHORT $L193813
  00069	8b 53 14	 mov	 edx, DWORD PTR [ebx+20]
  0006c	52		 push	 edx
  0006d	55		 push	 ebp
  0006e	8b cb		 mov	 ecx, ebx
  00070	e8 00 00 00 00	 call	 ?_Copy@?$basic_string@DU?$char_traits@D@std@@V?$allocator@D@2@@std@@IAEXII@Z ; std::basic_string<char,std::char_traits<char>,std::allocator<char> >::_Copy
  00075	85 ed		 test	 ebp, ebp
$L193851:
  00077	76 68		 jbe	 SHORT $L193848

; 613  : 			{	// make room and assign new stuff
; 614  : 			_Traits::copy(_Myptr(), _Ptr, _Num);

  00079	83 7b 18 10	 cmp	 DWORD PTR [ebx+24], 16	; 00000010H
  0007d	72 2f		 jb	 SHORT $L193822
  0007f	8b 7b 04	 mov	 edi, DWORD PTR [ebx+4]
  00082	eb 2d		 jmp	 SHORT $L193823

; 611  : 
; 612  : 		if (_Grow(_Num))

$L193813:
  00084	85 ed		 test	 ebp, ebp
  00086	75 ef		 jne	 SHORT $L193851
  00088	83 f8 10	 cmp	 eax, 16			; 00000010H
  0008b	89 6b 14	 mov	 DWORD PTR [ebx+20], ebp
  0008e	72 0f		 jb	 SHORT $L193805
  00090	8b 43 04	 mov	 eax, DWORD PTR [ebx+4]
  00093	5d		 pop	 ebp
  00094	5f		 pop	 edi
  00095	c6 00 00	 mov	 BYTE PTR [eax], 0
  00098	5e		 pop	 esi

; 616  : 			}
; 617  : 		return (*this);

  00099	8b c3		 mov	 eax, ebx
  0009b	5b		 pop	 ebx

; 618  : 		}

  0009c	c2 08 00	 ret	 8

; 611  : 
; 612  : 		if (_Grow(_Num))

$L193805:
  0009f	5d		 pop	 ebp
  000a0	8d 43 04	 lea	 eax, DWORD PTR [ebx+4]
  000a3	5f		 pop	 edi
  000a4	c6 00 00	 mov	 BYTE PTR [eax], 0
  000a7	5e		 pop	 esi

; 616  : 			}
; 617  : 		return (*this);

  000a8	8b c3		 mov	 eax, ebx
  000aa	5b		 pop	 ebx

; 618  : 		}

  000ab	c2 08 00	 ret	 8

; 613  : 			{	// make room and assign new stuff
; 614  : 			_Traits::copy(_Myptr(), _Ptr, _Num);

$L193822:
  000ae	8d 7b 04	 lea	 edi, DWORD PTR [ebx+4]
$L193823:
  000b1	8b cd		 mov	 ecx, ebp
  000b3	8b c1		 mov	 eax, ecx
  000b5	c1 e9 02	 shr	 ecx, 2
  000b8	f3 a5		 rep movsd
  000ba	8b c8		 mov	 ecx, eax
  000bc	83 e1 03	 and	 ecx, 3
  000bf	f3 a4		 rep movsb

; 615  : 			_Eos(_Num);

  000c1	83 7b 18 10	 cmp	 DWORD PTR [ebx+24], 16	; 00000010H
  000c5	89 6b 14	 mov	 DWORD PTR [ebx+20], ebp
  000c8	72 10		 jb	 SHORT $L193844
  000ca	8b 43 04	 mov	 eax, DWORD PTR [ebx+4]
  000cd	c6 04 28 00	 mov	 BYTE PTR [eax+ebp], 0
  000d1	5d		 pop	 ebp
  000d2	5f		 pop	 edi
  000d3	5e		 pop	 esi

; 616  : 			}
; 617  : 		return (*this);

  000d4	8b c3		 mov	 eax, ebx
  000d6	5b		 pop	 ebx

; 618  : 		}

  000d7	c2 08 00	 ret	 8

; 615  : 			_Eos(_Num);

$L193844:
  000da	8d 43 04	 lea	 eax, DWORD PTR [ebx+4]
  000dd	c6 04 28 00	 mov	 BYTE PTR [eax+ebp], 0
$L193848:
  000e1	5d		 pop	 ebp
  000e2	5f		 pop	 edi
  000e3	5e		 pop	 esi

; 616  : 			}
; 617  : 		return (*this);

  000e4	8b c3		 mov	 eax, ebx
  000e6	5b		 pop	 ebx

; 618  : 		}

  000e7	c2 08 00	 ret	 8
?assign@?$basic_string@DU?$char_traits@D@std@@V?$allocator@D@2@@std@@QAEAAV12@PBDI@Z ENDP ; std::basic_string<char,std::char_traits<char>,std::allocator<char> >::assign
_TEXT	ENDS
PUBLIC	?_Tidy@?$vector@U_FEEDENERGY@@V?$allocator@U_FEEDENERGY@@@std@@@std@@IAEXXZ ; std::vector<_FEEDENERGY,std::allocator<_FEEDENERGY> >::_Tidy
; Function compile flags: /Ogty
; File c:\program files\microsoft visual studio .net 2003\vc7\include\vector
;	COMDAT ?_Tidy@?$vector@U_FEEDENERGY@@V?$allocator@U_FEEDENERGY@@@std@@@std@@IAEXXZ
_TEXT	SEGMENT
?_Tidy@?$vector@U_FEEDENERGY@@V?$allocator@U_FEEDENERGY@@@std@@@std@@IAEXXZ PROC NEAR ; std::vector<_FEEDENERGY,std::allocator<_FEEDENERGY> >::_Tidy, COMDAT
; _this$ = ecx

; 791  : 		{	// free all storage

  00000	56		 push	 esi
  00001	8b f1		 mov	 esi, ecx

; 792  : 		if (_Myfirst != 0)

  00003	8b 46 04	 mov	 eax, DWORD PTR [esi+4]
  00006	85 c0		 test	 eax, eax
  00008	74 09		 je	 SHORT $L193856

; 793  : 			{	// something to free, destroy and deallocate it
; 794  : 			_Destroy(_Myfirst, _Mylast);
; 795  : 			this->_Alval.deallocate(_Myfirst, _Myend - _Myfirst);

  0000a	50		 push	 eax
  0000b	e8 00 00 00 00	 call	 ??3@YAXPAX@Z		; operator delete
  00010	83 c4 04	 add	 esp, 4
$L193856:

; 796  : 			}
; 797  : 		_Myfirst = 0, _Mylast = 0, _Myend = 0;

  00013	c7 46 04 00 00
	00 00		 mov	 DWORD PTR [esi+4], 0
  0001a	c7 46 08 00 00
	00 00		 mov	 DWORD PTR [esi+8], 0
  00021	c7 46 0c 00 00
	00 00		 mov	 DWORD PTR [esi+12], 0
  00028	5e		 pop	 esi

; 798  : 		}

  00029	c3		 ret	 0
?_Tidy@?$vector@U_FEEDENERGY@@V?$allocator@U_FEEDENERGY@@@std@@@std@@IAEXXZ ENDP ; std::vector<_FEEDENERGY,std::allocator<_FEEDENERGY> >::_Tidy
_TEXT	ENDS
PUBLIC	?_Tidy@?$vector@U_TransformStuffComponent@@V?$allocator@U_TransformStuffComponent@@@std@@@std@@IAEXXZ ; std::vector<_TransformStuffComponent,std::allocator<_TransformStuffComponent> >::_Tidy
; Function compile flags: /Ogty
;	COMDAT ?_Tidy@?$vector@U_TransformStuffComponent@@V?$allocator@U_TransformStuffComponent@@@std@@@std@@IAEXXZ
_TEXT	SEGMENT
?_Tidy@?$vector@U_TransformStuffComponent@@V?$allocator@U_TransformStuffComponent@@@std@@@std@@IAEXXZ PROC NEAR ; std::vector<_TransformStuffComponent,std::allocator<_TransformStuffComponent> >::_Tidy, COMDAT
; _this$ = ecx

; 791  : 		{	// free all storage

  00000	56		 push	 esi
  00001	8b f1		 mov	 esi, ecx

; 792  : 		if (_Myfirst != 0)

  00003	8b 46 04	 mov	 eax, DWORD PTR [esi+4]
  00006	85 c0		 test	 eax, eax
  00008	74 09		 je	 SHORT $L193863

; 793  : 			{	// something to free, destroy and deallocate it
; 794  : 			_Destroy(_Myfirst, _Mylast);
; 795  : 			this->_Alval.deallocate(_Myfirst, _Myend - _Myfirst);

  0000a	50		 push	 eax
  0000b	e8 00 00 00 00	 call	 ??3@YAXPAX@Z		; operator delete
  00010	83 c4 04	 add	 esp, 4
$L193863:

; 796  : 			}
; 797  : 		_Myfirst = 0, _Mylast = 0, _Myend = 0;

  00013	c7 46 04 00 00
	00 00		 mov	 DWORD PTR [esi+4], 0
  0001a	c7 46 08 00 00
	00 00		 mov	 DWORD PTR [esi+8], 0
  00021	c7 46 0c 00 00
	00 00		 mov	 DWORD PTR [esi+12], 0
  00028	5e		 pop	 esi

; 798  : 		}

  00029	c3		 ret	 0
?_Tidy@?$vector@U_TransformStuffComponent@@V?$allocator@U_TransformStuffComponent@@@std@@@std@@IAEXXZ ENDP ; std::vector<_TransformStuffComponent,std::allocator<_TransformStuffComponent> >::_Tidy
_TEXT	ENDS
PUBLIC	??0?$basic_string@DU?$char_traits@D@std@@V?$allocator@D@2@@std@@QAE@ABV01@@Z ; std::basic_string<char,std::char_traits<char>,std::allocator<char> >::basic_string<char,std::char_traits<char>,std::allocator<char> >
; Function compile flags: /Ogty
; File c:\program files\microsoft visual studio .net 2003\vc7\include\xstring
;	COMDAT ??0?$basic_string@DU?$char_traits@D@std@@V?$allocator@D@2@@std@@QAE@ABV01@@Z
_TEXT	SEGMENT
__Right$ = 8						; size = 4
??0?$basic_string@DU?$char_traits@D@std@@V?$allocator@D@2@@std@@QAE@ABV01@@Z PROC NEAR ; std::basic_string<char,std::char_traits<char>,std::allocator<char> >::basic_string<char,std::char_traits<char>,std::allocator<char> >, COMDAT
; _this$ = ecx

; 323  : 		{	// construct by copying _Right

  00000	56		 push	 esi

; 324  : 		_Tidy();

  00001	33 c0		 xor	 eax, eax
  00003	8b f1		 mov	 esi, ecx

; 325  : 		assign(_Right, 0, npos);

  00005	6a ff		 push	 -1
  00007	89 46 14	 mov	 DWORD PTR [esi+20], eax
  0000a	c7 46 18 0f 00
	00 00		 mov	 DWORD PTR [esi+24], 15	; 0000000fH
  00011	50		 push	 eax
  00012	88 46 04	 mov	 BYTE PTR [esi+4], al
  00015	8b 44 24 10	 mov	 eax, DWORD PTR __Right$[esp+8]
  00019	50		 push	 eax
  0001a	e8 00 00 00 00	 call	 ?assign@?$basic_string@DU?$char_traits@D@std@@V?$allocator@D@2@@std@@QAEAAV12@ABV12@II@Z ; std::basic_string<char,std::char_traits<char>,std::allocator<char> >::assign

; 326  : 		}

  0001f	8b c6		 mov	 eax, esi
  00021	5e		 pop	 esi
  00022	c2 04 00	 ret	 4
??0?$basic_string@DU?$char_traits@D@std@@V?$allocator@D@2@@std@@QAE@ABV01@@Z ENDP ; std::basic_string<char,std::char_traits<char>,std::allocator<char> >::basic_string<char,std::char_traits<char>,std::allocator<char> >
_TEXT	ENDS
PUBLIC	?assign@?$basic_string@DU?$char_traits@D@std@@V?$allocator@D@2@@std@@QAEAAV12@PBD@Z ; std::basic_string<char,std::char_traits<char>,std::allocator<char> >::assign
; Function compile flags: /Ogty
;	COMDAT ?assign@?$basic_string@DU?$char_traits@D@std@@V?$allocator@D@2@@std@@QAEAAV12@PBD@Z
_TEXT	SEGMENT
__Ptr$ = 8						; size = 4
?assign@?$basic_string@DU?$char_traits@D@std@@V?$allocator@D@2@@std@@QAEAAV12@PBD@Z PROC NEAR ; std::basic_string<char,std::char_traits<char>,std::allocator<char> >::assign, COMDAT
; _this$ = ecx

; 621  : 		{	// assign [_Ptr, <null>)

  00000	56		 push	 esi

; 622  : 		return (assign(_Ptr, _Traits::length(_Ptr)));

  00001	8b 74 24 08	 mov	 esi, DWORD PTR __Ptr$[esp]
  00005	8b c6		 mov	 eax, esi
  00007	57		 push	 edi
  00008	8d 78 01	 lea	 edi, DWORD PTR [eax+1]
  0000b	eb 03 8d 49 00	 npad	 5
$L193937:
  00010	8a 10		 mov	 dl, BYTE PTR [eax]
  00012	40		 inc	 eax
  00013	84 d2		 test	 dl, dl
  00015	75 f9		 jne	 SHORT $L193937
  00017	2b c7		 sub	 eax, edi
  00019	50		 push	 eax
  0001a	56		 push	 esi
  0001b	e8 00 00 00 00	 call	 ?assign@?$basic_string@DU?$char_traits@D@std@@V?$allocator@D@2@@std@@QAEAAV12@PBDI@Z ; std::basic_string<char,std::char_traits<char>,std::allocator<char> >::assign
  00020	5f		 pop	 edi
  00021	5e		 pop	 esi

; 623  : 		}

  00022	c2 04 00	 ret	 4
?assign@?$basic_string@DU?$char_traits@D@std@@V?$allocator@D@2@@std@@QAEAAV12@PBD@Z ENDP ; std::basic_string<char,std::char_traits<char>,std::allocator<char> >::assign
_TEXT	ENDS
PUBLIC	??1?$vector@U_FEEDENERGY@@V?$allocator@U_FEEDENERGY@@@std@@@std@@QAE@XZ ; std::vector<_FEEDENERGY,std::allocator<_FEEDENERGY> >::~vector<_FEEDENERGY,std::allocator<_FEEDENERGY> >
; Function compile flags: /Ogty
; File c:\program files\microsoft visual studio .net 2003\vc7\include\vector
;	COMDAT ??1?$vector@U_FEEDENERGY@@V?$allocator@U_FEEDENERGY@@@std@@@std@@QAE@XZ
_TEXT	SEGMENT
??1?$vector@U_FEEDENERGY@@V?$allocator@U_FEEDENERGY@@@std@@@std@@QAE@XZ PROC NEAR ; std::vector<_FEEDENERGY,std::allocator<_FEEDENERGY> >::~vector<_FEEDENERGY,std::allocator<_FEEDENERGY> >, COMDAT
; _this$ = ecx

; 387  : 		{	// destroy the object

  00000	56		 push	 esi
  00001	8b f1		 mov	 esi, ecx

; 388  : 		_Tidy();

  00003	8b 46 04	 mov	 eax, DWORD PTR [esi+4]
  00006	85 c0		 test	 eax, eax
  00008	74 09		 je	 SHORT $L193948
  0000a	50		 push	 eax
  0000b	e8 00 00 00 00	 call	 ??3@YAXPAX@Z		; operator delete
  00010	83 c4 04	 add	 esp, 4
$L193948:
  00013	c7 46 04 00 00
	00 00		 mov	 DWORD PTR [esi+4], 0
  0001a	c7 46 08 00 00
	00 00		 mov	 DWORD PTR [esi+8], 0
  00021	c7 46 0c 00 00
	00 00		 mov	 DWORD PTR [esi+12], 0
  00028	5e		 pop	 esi

; 389  : 		}

  00029	c3		 ret	 0
??1?$vector@U_FEEDENERGY@@V?$allocator@U_FEEDENERGY@@@std@@@std@@QAE@XZ ENDP ; std::vector<_FEEDENERGY,std::allocator<_FEEDENERGY> >::~vector<_FEEDENERGY,std::allocator<_FEEDENERGY> >
_TEXT	ENDS
PUBLIC	?clear@?$vector@U_FEEDENERGY@@V?$allocator@U_FEEDENERGY@@@std@@@std@@QAEXXZ ; std::vector<_FEEDENERGY,std::allocator<_FEEDENERGY> >::clear
; Function compile flags: /Ogty
;	COMDAT ?clear@?$vector@U_FEEDENERGY@@V?$allocator@U_FEEDENERGY@@@std@@@std@@QAEXXZ
_TEXT	SEGMENT
?clear@?$vector@U_FEEDENERGY@@V?$allocator@U_FEEDENERGY@@@std@@@std@@QAEXXZ PROC NEAR ; std::vector<_FEEDENERGY,std::allocator<_FEEDENERGY> >::clear, COMDAT
; _this$ = ecx

; 743  : 		{	// erase all

  00000	56		 push	 esi
  00001	8b f1		 mov	 esi, ecx

; 744  : 		_Tidy();

  00003	8b 46 04	 mov	 eax, DWORD PTR [esi+4]
  00006	85 c0		 test	 eax, eax
  00008	74 09		 je	 SHORT $L193961
  0000a	50		 push	 eax
  0000b	e8 00 00 00 00	 call	 ??3@YAXPAX@Z		; operator delete
  00010	83 c4 04	 add	 esp, 4
$L193961:
  00013	c7 46 04 00 00
	00 00		 mov	 DWORD PTR [esi+4], 0
  0001a	c7 46 08 00 00
	00 00		 mov	 DWORD PTR [esi+8], 0
  00021	c7 46 0c 00 00
	00 00		 mov	 DWORD PTR [esi+12], 0
  00028	5e		 pop	 esi

; 745  : 		}

  00029	c3		 ret	 0
?clear@?$vector@U_FEEDENERGY@@V?$allocator@U_FEEDENERGY@@@std@@@std@@QAEXXZ ENDP ; std::vector<_FEEDENERGY,std::allocator<_FEEDENERGY> >::clear
_TEXT	ENDS
PUBLIC	??1?$vector@U_TransformStuffComponent@@V?$allocator@U_TransformStuffComponent@@@std@@@std@@QAE@XZ ; std::vector<_TransformStuffComponent,std::allocator<_TransformStuffComponent> >::~vector<_TransformStuffComponent,std::allocator<_TransformStuffComponent> >
; Function compile flags: /Ogty
;	COMDAT ??1?$vector@U_TransformStuffComponent@@V?$allocator@U_TransformStuffComponent@@@std@@@std@@QAE@XZ
_TEXT	SEGMENT
??1?$vector@U_TransformStuffComponent@@V?$allocator@U_TransformStuffComponent@@@std@@@std@@QAE@XZ PROC NEAR ; std::vector<_TransformStuffComponent,std::allocator<_TransformStuffComponent> >::~vector<_TransformStuffComponent,std::allocator<_TransformStuffComponent> >, COMDAT
; _this$ = ecx

; 387  : 		{	// destroy the object

  00000	56		 push	 esi
  00001	8b f1		 mov	 esi, ecx

; 388  : 		_Tidy();

  00003	8b 46 04	 mov	 eax, DWORD PTR [esi+4]
  00006	85 c0		 test	 eax, eax
  00008	74 09		 je	 SHORT $L193974
  0000a	50		 push	 eax
  0000b	e8 00 00 00 00	 call	 ??3@YAXPAX@Z		; operator delete
  00010	83 c4 04	 add	 esp, 4
$L193974:
  00013	c7 46 04 00 00
	00 00		 mov	 DWORD PTR [esi+4], 0
  0001a	c7 46 08 00 00
	00 00		 mov	 DWORD PTR [esi+8], 0
  00021	c7 46 0c 00 00
	00 00		 mov	 DWORD PTR [esi+12], 0
  00028	5e		 pop	 esi

; 389  : 		}

  00029	c3		 ret	 0
??1?$vector@U_TransformStuffComponent@@V?$allocator@U_TransformStuffComponent@@@std@@@std@@QAE@XZ ENDP ; std::vector<_TransformStuffComponent,std::allocator<_TransformStuffComponent> >::~vector<_TransformStuffComponent,std::allocator<_TransformStuffComponent> >
_TEXT	ENDS
PUBLIC	??0logic_error@std@@QAE@ABV?$basic_string@DU?$char_traits@D@std@@V?$allocator@D@2@@1@@Z ; std::logic_error::logic_error
EXTRN	??0exception@@QAE@XZ:NEAR			; exception::exception
;	COMDAT xdata$x
; File c:\program files\microsoft visual studio .net 2003\vc7\include\iosfwd
xdata$x	SEGMENT
$T194079 DD	0ffffffffH
	DD	FLAT:$L193979
$T194077 DD	019930520H
	DD	01H
	DD	FLAT:$T194079
	DD	2 DUP(00H)
	DD	2 DUP(00H)
; Function compile flags: /Ogty
; File c:\program files\microsoft visual studio .net 2003\vc7\include\stdexcept
xdata$x	ENDS
;	COMDAT ??0logic_error@std@@QAE@ABV?$basic_string@DU?$char_traits@D@std@@V?$allocator@D@2@@1@@Z
_TEXT	SEGMENT
_this$ = -16						; size = 4
__$EHRec$ = -12						; size = 12
__Message$ = 8						; size = 4
??0logic_error@std@@QAE@ABV?$basic_string@DU?$char_traits@D@std@@V?$allocator@D@2@@1@@Z PROC NEAR ; std::logic_error::logic_error, COMDAT
; _this$ = ecx

; 19   : 		{	// construct from message string

  00000	6a ff		 push	 -1
  00002	68 00 00 00 00	 push	 __ehhandler$??0logic_error@std@@QAE@ABV?$basic_string@DU?$char_traits@D@std@@V?$allocator@D@2@@1@@Z
  00007	64 a1 00 00 00
	00		 mov	 eax, DWORD PTR fs:__except_list
  0000d	50		 push	 eax
  0000e	64 89 25 00 00
	00 00		 mov	 DWORD PTR fs:__except_list, esp
  00015	51		 push	 ecx
  00016	56		 push	 esi
  00017	8b f1		 mov	 esi, ecx
  00019	89 74 24 04	 mov	 DWORD PTR _this$[esp+20], esi
  0001d	e8 00 00 00 00	 call	 ??0exception@@QAE@XZ	; exception::exception
  00022	33 c0		 xor	 eax, eax
  00024	8d 4e 0c	 lea	 ecx, DWORD PTR [esi+12]
  00027	c7 06 00 00 00
	00		 mov	 DWORD PTR [esi], OFFSET FLAT:??_7logic_error@std@@6B@
  0002d	6a ff		 push	 -1
  0002f	89 41 14	 mov	 DWORD PTR [ecx+20], eax
  00032	c7 41 18 0f 00
	00 00		 mov	 DWORD PTR [ecx+24], 15	; 0000000fH
  00039	50		 push	 eax
  0003a	89 44 24 18	 mov	 DWORD PTR __$EHRec$[esp+36], eax
  0003e	88 41 04	 mov	 BYTE PTR [ecx+4], al
  00041	8b 44 24 20	 mov	 eax, DWORD PTR __Message$[esp+24]
  00045	50		 push	 eax
  00046	e8 00 00 00 00	 call	 ?assign@?$basic_string@DU?$char_traits@D@std@@V?$allocator@D@2@@std@@QAEAAV12@ABV12@II@Z ; std::basic_string<char,std::char_traits<char>,std::allocator<char> >::assign

; 20   : 		}

  0004b	8b 4c 24 08	 mov	 ecx, DWORD PTR __$EHRec$[esp+20]
  0004f	8b c6		 mov	 eax, esi
  00051	5e		 pop	 esi
  00052	64 89 0d 00 00
	00 00		 mov	 DWORD PTR fs:__except_list, ecx
  00059	83 c4 10	 add	 esp, 16			; 00000010H
  0005c	c2 04 00	 ret	 4
_TEXT	ENDS
;	COMDAT text$x
text$x	SEGMENT
$L193979:
  00000	8b 4d f0	 mov	 ecx, DWORD PTR _this$[ebp]
  00003	e9 00 00 00 00	 jmp	 ??1exception@@UAE@XZ	; exception::~exception
__ehhandler$??0logic_error@std@@QAE@ABV?$basic_string@DU?$char_traits@D@std@@V?$allocator@D@2@@1@@Z:
  00008	b8 00 00 00 00	 mov	 eax, OFFSET FLAT:$T194077
  0000d	e9 00 00 00 00	 jmp	 ___CxxFrameHandler
text$x	ENDS
??0logic_error@std@@QAE@ABV?$basic_string@DU?$char_traits@D@std@@V?$allocator@D@2@@1@@Z ENDP ; std::logic_error::logic_error
PUBLIC	??0length_error@std@@QAE@ABV?$basic_string@DU?$char_traits@D@std@@V?$allocator@D@2@@1@@Z ; std::length_error::length_error
PUBLIC	??_7length_error@std@@6B@			; std::length_error::`vftable'
PUBLIC	??_Glength_error@std@@UAEPAXI@Z			; std::length_error::`scalar deleting destructor'
EXTRN	??_Elength_error@std@@UAEPAXI@Z:NEAR		; std::length_error::`vector deleting destructor'
;	COMDAT ??_7length_error@std@@6B@
CONST	SEGMENT
??_7length_error@std@@6B@ DD FLAT:??_Elength_error@std@@UAEPAXI@Z ; std::length_error::`vftable'
	DD	FLAT:?what@logic_error@std@@UBEPBDXZ
; Function compile flags: /Ogty
CONST	ENDS
;	COMDAT ??0length_error@std@@QAE@ABV?$basic_string@DU?$char_traits@D@std@@V?$allocator@D@2@@1@@Z
_TEXT	SEGMENT
__Message$ = 8						; size = 4
??0length_error@std@@QAE@ABV?$basic_string@DU?$char_traits@D@std@@V?$allocator@D@2@@1@@Z PROC NEAR ; std::length_error::length_error, COMDAT
; _this$ = ecx

; 95   : 		{	// construct from message string

  00000	8b 44 24 04	 mov	 eax, DWORD PTR __Message$[esp-4]
  00004	56		 push	 esi
  00005	50		 push	 eax
  00006	8b f1		 mov	 esi, ecx
  00008	e8 00 00 00 00	 call	 ??0logic_error@std@@QAE@ABV?$basic_string@DU?$char_traits@D@std@@V?$allocator@D@2@@1@@Z ; std::logic_error::logic_error
  0000d	c7 06 00 00 00
	00		 mov	 DWORD PTR [esi], OFFSET FLAT:??_7length_error@std@@6B@

; 96   : 		}

  00013	8b c6		 mov	 eax, esi
  00015	5e		 pop	 esi
  00016	c2 04 00	 ret	 4
??0length_error@std@@QAE@ABV?$basic_string@DU?$char_traits@D@std@@V?$allocator@D@2@@1@@Z ENDP ; std::length_error::length_error
_TEXT	ENDS
PUBLIC	??1length_error@std@@UAE@XZ			; std::length_error::~length_error
; Function compile flags: /Ogty
;	COMDAT ??_Glength_error@std@@UAEPAXI@Z
_TEXT	SEGMENT
___flags$ = 8						; size = 4
??_Glength_error@std@@UAEPAXI@Z PROC NEAR		; std::length_error::`scalar deleting destructor', COMDAT
; _this$ = ecx
  00000	56		 push	 esi
  00001	8b f1		 mov	 esi, ecx
  00003	e8 00 00 00 00	 call	 ??1length_error@std@@UAE@XZ ; std::length_error::~length_error
  00008	f6 44 24 08 01	 test	 BYTE PTR ___flags$[esp], 1
  0000d	74 09		 je	 SHORT $L194087
  0000f	56		 push	 esi
  00010	e8 00 00 00 00	 call	 ??3@YAXPAX@Z		; operator delete
  00015	83 c4 04	 add	 esp, 4
$L194087:
  00018	8b c6		 mov	 eax, esi
  0001a	5e		 pop	 esi
  0001b	c2 04 00	 ret	 4
??_Glength_error@std@@UAEPAXI@Z ENDP			; std::length_error::`scalar deleting destructor'
; Function compile flags: /Ogty
_TEXT	ENDS
;	COMDAT ??1length_error@std@@UAE@XZ
_TEXT	SEGMENT
??1length_error@std@@UAE@XZ PROC NEAR			; std::length_error::~length_error, COMDAT
; _this$ = ecx

; 99   : 		{}	// destroy the object

  00000	56		 push	 esi
  00001	8b f1		 mov	 esi, ecx
  00003	c7 06 00 00 00
	00		 mov	 DWORD PTR [esi], OFFSET FLAT:??_7logic_error@std@@6B@
  00009	83 7e 24 10	 cmp	 DWORD PTR [esi+36], 16	; 00000010H
  0000d	72 0c		 jb	 SHORT $L194181
  0000f	8b 46 10	 mov	 eax, DWORD PTR [esi+16]
  00012	50		 push	 eax
  00013	e8 00 00 00 00	 call	 ??3@YAXPAX@Z		; operator delete
  00018	83 c4 04	 add	 esp, 4
$L194181:
  0001b	33 c0		 xor	 eax, eax
  0001d	c7 46 24 0f 00
	00 00		 mov	 DWORD PTR [esi+36], 15	; 0000000fH
  00024	89 46 20	 mov	 DWORD PTR [esi+32], eax
  00027	88 46 10	 mov	 BYTE PTR [esi+16], al
  0002a	8b ce		 mov	 ecx, esi
  0002c	5e		 pop	 esi
  0002d	e9 00 00 00 00	 jmp	 ??1exception@@UAE@XZ	; exception::~exception
??1length_error@std@@UAE@XZ ENDP			; std::length_error::~length_error
_TEXT	ENDS
PUBLIC	??0?$basic_string@DU?$char_traits@D@std@@V?$allocator@D@2@@std@@QAE@PBD@Z ; std::basic_string<char,std::char_traits<char>,std::allocator<char> >::basic_string<char,std::char_traits<char>,std::allocator<char> >
; Function compile flags: /Ogty
; File c:\program files\microsoft visual studio .net 2003\vc7\include\xstring
;	COMDAT ??0?$basic_string@DU?$char_traits@D@std@@V?$allocator@D@2@@std@@QAE@PBD@Z
_TEXT	SEGMENT
__Ptr$ = 8						; size = 4
??0?$basic_string@DU?$char_traits@D@std@@V?$allocator@D@2@@std@@QAE@PBD@Z PROC NEAR ; std::basic_string<char,std::char_traits<char>,std::allocator<char> >::basic_string<char,std::char_traits<char>,std::allocator<char> >, COMDAT
; _this$ = ecx

; 361  : 		_Tidy();
; 362  : 		assign(_Ptr);

  00000	8b 54 24 04	 mov	 edx, DWORD PTR __Ptr$[esp-4]
  00004	56		 push	 esi
  00005	8b f1		 mov	 esi, ecx
  00007	8b c2		 mov	 eax, edx
  00009	57		 push	 edi
  0000a	c7 46 18 0f 00
	00 00		 mov	 DWORD PTR [esi+24], 15	; 0000000fH
  00011	c7 46 14 00 00
	00 00		 mov	 DWORD PTR [esi+20], 0
  00018	c6 46 04 00	 mov	 BYTE PTR [esi+4], 0
  0001c	8d 78 01	 lea	 edi, DWORD PTR [eax+1]
  0001f	90		 npad	 1
$L194267:
  00020	8a 08		 mov	 cl, BYTE PTR [eax]
  00022	40		 inc	 eax
  00023	84 c9		 test	 cl, cl
  00025	75 f9		 jne	 SHORT $L194267
  00027	2b c7		 sub	 eax, edi
  00029	50		 push	 eax
  0002a	52		 push	 edx
  0002b	8b ce		 mov	 ecx, esi
  0002d	e8 00 00 00 00	 call	 ?assign@?$basic_string@DU?$char_traits@D@std@@V?$allocator@D@2@@std@@QAEAAV12@PBDI@Z ; std::basic_string<char,std::char_traits<char>,std::allocator<char> >::assign
  00032	5f		 pop	 edi

; 363  : 		}

  00033	8b c6		 mov	 eax, esi
  00035	5e		 pop	 esi
  00036	c2 04 00	 ret	 4
??0?$basic_string@DU?$char_traits@D@std@@V?$allocator@D@2@@std@@QAE@PBD@Z ENDP ; std::basic_string<char,std::char_traits<char>,std::allocator<char> >::basic_string<char,std::char_traits<char>,std::allocator<char> >
_TEXT	ENDS
PUBLIC	??1CPetProperty@@UAE@XZ				; CPetProperty::~CPetProperty
PUBLIC	??_7CPetProperty@@6B@				; CPetProperty::`vftable'
PUBLIC	??_GCPetProperty@@UAEPAXI@Z			; CPetProperty::`scalar deleting destructor'
EXTRN	??_M@YGXPAXIHP6EX0@Z@Z:NEAR			; `eh vector destructor iterator'
EXTRN	??_ECPetProperty@@UAEPAXI@Z:NEAR		; CPetProperty::`vector deleting destructor'
;	COMDAT ??_7CPetProperty@@6B@
; File c:\program files\microsoft visual studio .net 2003\vc7\include\xmemory
CONST	SEGMENT
??_7CPetProperty@@6B@ DD FLAT:??_ECPetProperty@@UAEPAXI@Z ; CPetProperty::`vftable'
; Function compile flags: /Ogty
; File c:\documents and settings\test\mes documents\source\virtuos_v17\build\program\_common\pet.cpp
CONST	ENDS
;	COMDAT ??1CPetProperty@@UAE@XZ
_TEXT	SEGMENT
??1CPetProperty@@UAE@XZ PROC NEAR			; CPetProperty::~CPetProperty, COMDAT
; _this$ = ecx

; 31   : {

  00000	53		 push	 ebx
  00001	56		 push	 esi
  00002	8b f1		 mov	 esi, ecx
  00004	57		 push	 edi

; 32   : 	m_aFeedEnergy[0].clear();

  00005	8d be 88 02 00
	00		 lea	 edi, DWORD PTR [esi+648]
  0000b	c7 06 00 00 00
	00		 mov	 DWORD PTR [esi], OFFSET FLAT:??_7CPetProperty@@6B@
  00011	8b 47 04	 mov	 eax, DWORD PTR [edi+4]
  00014	33 db		 xor	 ebx, ebx
  00016	3b c3		 cmp	 eax, ebx
  00018	74 09		 je	 SHORT $L194290
  0001a	50		 push	 eax
  0001b	e8 00 00 00 00	 call	 ??3@YAXPAX@Z		; operator delete
  00020	83 c4 04	 add	 esp, 4
$L194290:
  00023	89 5f 04	 mov	 DWORD PTR [edi+4], ebx
  00026	89 5f 08	 mov	 DWORD PTR [edi+8], ebx
  00029	89 5f 0c	 mov	 DWORD PTR [edi+12], ebx

; 33   : 	m_aFeedEnergy[1].clear();

  0002c	8b 86 9c 02 00
	00		 mov	 eax, DWORD PTR [esi+668]
  00032	3b c3		 cmp	 eax, ebx
  00034	74 09		 je	 SHORT $L194310
  00036	50		 push	 eax
  00037	e8 00 00 00 00	 call	 ??3@YAXPAX@Z		; operator delete
  0003c	83 c4 04	 add	 esp, 4
$L194310:
  0003f	89 9e 9c 02 00
	00		 mov	 DWORD PTR [esi+668], ebx
  00045	89 9e a0 02 00
	00		 mov	 DWORD PTR [esi+672], ebx
  0004b	89 9e a4 02 00
	00		 mov	 DWORD PTR [esi+676], ebx

; 34   : 	m_awAddLifeProbability.clear();

  00051	8b 86 d0 02 00
	00		 mov	 eax, DWORD PTR [esi+720]
  00057	3b c3		 cmp	 eax, ebx
  00059	74 09		 je	 SHORT $L194329
  0005b	50		 push	 eax
  0005c	e8 00 00 00 00	 call	 ??3@YAXPAX@Z		; operator delete
  00061	83 c4 04	 add	 esp, 4
$L194329:

; 35   : }

  00064	8b c3		 mov	 eax, ebx
  00066	3b c3		 cmp	 eax, ebx
  00068	89 9e d0 02 00
	00		 mov	 DWORD PTR [esi+720], ebx
  0006e	89 9e d4 02 00
	00		 mov	 DWORD PTR [esi+724], ebx
  00074	89 9e d8 02 00
	00		 mov	 DWORD PTR [esi+728], ebx
  0007a	74 09		 je	 SHORT $L194349
  0007c	50		 push	 eax
  0007d	e8 00 00 00 00	 call	 ??3@YAXPAX@Z		; operator delete
  00082	83 c4 04	 add	 esp, 4
$L194349:
  00085	68 00 00 00 00	 push	 OFFSET FLAT:??1?$vector@U_FEEDENERGY@@V?$allocator@U_FEEDENERGY@@@std@@@std@@QAE@XZ ; std::vector<_FEEDENERGY,std::allocator<_FEEDENERGY> >::~vector<_FEEDENERGY,std::allocator<_FEEDENERGY> >
  0008a	6a 02		 push	 2
  0008c	6a 10		 push	 16			; 00000010H
  0008e	57		 push	 edi
  0008f	89 9e d0 02 00
	00		 mov	 DWORD PTR [esi+720], ebx
  00095	89 9e d4 02 00
	00		 mov	 DWORD PTR [esi+724], ebx
  0009b	89 9e d8 02 00
	00		 mov	 DWORD PTR [esi+728], ebx
  000a1	e8 00 00 00 00	 call	 ??_M@YGXPAXIHP6EX0@Z@Z
  000a6	5f		 pop	 edi
  000a7	5e		 pop	 esi
  000a8	5b		 pop	 ebx
  000a9	c3		 ret	 0
??1CPetProperty@@UAE@XZ ENDP				; CPetProperty::~CPetProperty
_TEXT	ENDS
PUBLIC	??_7CTransformStuff@@6B@			; CTransformStuff::`vftable'
PUBLIC	??_GCTransformStuff@@UAEPAXI@Z			; CTransformStuff::`scalar deleting destructor'
PUBLIC	??1CTransformStuff@@UAE@XZ			; CTransformStuff::~CTransformStuff
PUBLIC	?Serialize@CTransformStuff@@UAEXAAVCAr@@@Z	; CTransformStuff::Serialize
EXTRN	??_ECTransformStuff@@UAEPAXI@Z:NEAR		; CTransformStuff::`vector deleting destructor'
;	COMDAT ??_7CTransformStuff@@6B@
; File c:\program files\microsoft visual studio .net 2003\vc7\include\xmemory
CONST	SEGMENT
??_7CTransformStuff@@6B@ DD FLAT:??_ECTransformStuff@@UAEPAXI@Z ; CTransformStuff::`vftable'
	DD	FLAT:?Serialize@CTransformStuff@@UAEXAAVCAr@@@Z
; Function compile flags: /Ogty
; File c:\documents and settings\test\mes documents\source\virtuos_v17\build\program\_common\pet.cpp
CONST	ENDS
;	COMDAT ??1CTransformStuff@@UAE@XZ
_TEXT	SEGMENT
??1CTransformStuff@@UAE@XZ PROC NEAR			; CTransformStuff::~CTransformStuff, COMDAT
; _this$ = ecx

; 683  : {

  00000	56		 push	 esi
  00001	8b f1		 mov	 esi, ecx
  00003	c7 06 00 00 00
	00		 mov	 DWORD PTR [esi], OFFSET FLAT:??_7CTransformStuff@@6B@

; 684  : }

  00009	8b 46 0c	 mov	 eax, DWORD PTR [esi+12]
  0000c	85 c0		 test	 eax, eax
  0000e	74 09		 je	 SHORT $L194373
  00010	50		 push	 eax
  00011	e8 00 00 00 00	 call	 ??3@YAXPAX@Z		; operator delete
  00016	83 c4 04	 add	 esp, 4
$L194373:
  00019	c7 46 0c 00 00
	00 00		 mov	 DWORD PTR [esi+12], 0
  00020	c7 46 10 00 00
	00 00		 mov	 DWORD PTR [esi+16], 0
  00027	c7 46 14 00 00
	00 00		 mov	 DWORD PTR [esi+20], 0
  0002e	5e		 pop	 esi
  0002f	c3		 ret	 0
??1CTransformStuff@@UAE@XZ ENDP				; CTransformStuff::~CTransformStuff
_TEXT	ENDS
PUBLIC	??_R0?AVlogic_error@std@@@8			; std::logic_error `RTTI Type Descriptor'
PUBLIC	__CT??_R0?AVlogic_error@std@@@8??0logic_error@std@@QAE@ABV01@@Z40
PUBLIC	??_R0?AVexception@@@8				; exception `RTTI Type Descriptor'
PUBLIC	__CT??_R0?AVexception@@@8??0exception@@QAE@ABV0@@Z12
PUBLIC	??0logic_error@std@@QAE@ABV01@@Z		; std::logic_error::logic_error
PUBLIC	??0length_error@std@@QAE@ABV01@@Z		; std::length_error::length_error
PUBLIC	__TI3?AVlength_error@std@@
PUBLIC	__CTA3?AVlength_error@std@@
PUBLIC	??_R0?AVlength_error@std@@@8			; std::length_error `RTTI Type Descriptor'
PUBLIC	__CT??_R0?AVlength_error@std@@@8??0length_error@std@@QAE@ABV01@@Z40
PUBLIC	?_Xlen@?$vector@U_FEEDENERGY@@V?$allocator@U_FEEDENERGY@@@std@@@std@@IBEXXZ ; std::vector<_FEEDENERGY,std::allocator<_FEEDENERGY> >::_Xlen
PUBLIC	??_C@_0BD@OLBABOEK@vector?$DMT?$DO?5too?5long?$AA@ ; `string'
EXTRN	??0exception@@QAE@ABV0@@Z:NEAR			; exception::exception
EXTRN	??_7type_info@@6B@:DWORD			; type_info::`vftable'
;	COMDAT xdata$x
; File c:\program files\microsoft visual studio .net 2003\vc7\include\stdexcept
xdata$x	SEGMENT
$T194494 DD	0ffffffffH
	DD	FLAT:$L194379
$T194491 DD	019930520H
	DD	01H
	DD	FLAT:$T194494
	DD	2 DUP(00H)
	DD	2 DUP(00H)
xdata$x	ENDS
;	COMDAT ??_C@_0BD@OLBABOEK@vector?$DMT?$DO?5too?5long?$AA@
CONST	SEGMENT
??_C@_0BD@OLBABOEK@vector?$DMT?$DO?5too?5long?$AA@ DB 'vector<T> too long'
	DB	00H						; `string'
CONST	ENDS
;	COMDAT __TI3?AVlength_error@std@@
xdata$x	SEGMENT
__TI3?AVlength_error@std@@ DD 00H
	DD	FLAT:??1length_error@std@@UAE@XZ
	DD	00H
	DD	FLAT:__CTA3?AVlength_error@std@@
xdata$x	ENDS
;	COMDAT __CTA3?AVlength_error@std@@
xdata$x	SEGMENT
__CTA3?AVlength_error@std@@ DD 03H
	DD	FLAT:__CT??_R0?AVlength_error@std@@@8??0length_error@std@@QAE@ABV01@@Z40
	DD	FLAT:__CT??_R0?AVlogic_error@std@@@8??0logic_error@std@@QAE@ABV01@@Z40
	DD	FLAT:__CT??_R0?AVexception@@@8??0exception@@QAE@ABV0@@Z12
xdata$x	ENDS
;	COMDAT __CT??_R0?AVlength_error@std@@@8??0length_error@std@@QAE@ABV01@@Z40
xdata$x	SEGMENT
__CT??_R0?AVlength_error@std@@@8??0length_error@std@@QAE@ABV01@@Z40 DD 00H
	DD	FLAT:??_R0?AVlength_error@std@@@8
	DD	00H
	DD	0ffffffffH
	ORG $+4
	DD	028H
	DD	FLAT:??0length_error@std@@QAE@ABV01@@Z
xdata$x	ENDS
;	COMDAT ??_R0?AVlength_error@std@@@8
_DATA	SEGMENT
??_R0?AVlength_error@std@@@8 DD FLAT:??_7type_info@@6B@	; std::length_error `RTTI Type Descriptor'
	DD	00H
	DB	'.?AVlength_error@std@@', 00H
_DATA	ENDS
;	COMDAT __CT??_R0?AVlogic_error@std@@@8??0logic_error@std@@QAE@ABV01@@Z40
xdata$x	SEGMENT
__CT??_R0?AVlogic_error@std@@@8??0logic_error@std@@QAE@ABV01@@Z40 DD 00H
	DD	FLAT:??_R0?AVlogic_error@std@@@8
	DD	00H
	DD	0ffffffffH
	ORG $+4
	DD	028H
	DD	FLAT:??0logic_error@std@@QAE@ABV01@@Z
xdata$x	ENDS
;	COMDAT ??_R0?AVlogic_error@std@@@8
_DATA	SEGMENT
??_R0?AVlogic_error@std@@@8 DD FLAT:??_7type_info@@6B@	; std::logic_error `RTTI Type Descriptor'
	DD	00H
	DB	'.?AVlogic_error@std@@', 00H
_DATA	ENDS
;	COMDAT __CT??_R0?AVexception@@@8??0exception@@QAE@ABV0@@Z12
xdata$x	SEGMENT
__CT??_R0?AVexception@@@8??0exception@@QAE@ABV0@@Z12 DD 00H
	DD	FLAT:??_R0?AVexception@@@8
	DD	00H
	DD	0ffffffffH
	ORG $+4
	DD	0cH
	DD	FLAT:??0exception@@QAE@ABV0@@Z
xdata$x	ENDS
;	COMDAT ??_R0?AVexception@@@8
_DATA	SEGMENT
??_R0?AVexception@@@8 DD FLAT:??_7type_info@@6B@	; exception `RTTI Type Descriptor'
	DD	00H
	DB	'.?AVexception@@', 00H
; Function compile flags: /Ogty
; File c:\program files\microsoft visual studio .net 2003\vc7\include\vector
_DATA	ENDS
;	COMDAT ?_Xlen@?$vector@U_FEEDENERGY@@V?$allocator@U_FEEDENERGY@@@std@@@std@@IBEXXZ
_TEXT	SEGMENT
$T194378 = -80						; size = 28
$T194377 = -52						; size = 40
__$EHRec$ = -12						; size = 12
?_Xlen@?$vector@U_FEEDENERGY@@V?$allocator@U_FEEDENERGY@@@std@@@std@@IBEXXZ PROC NEAR ; std::vector<_FEEDENERGY,std::allocator<_FEEDENERGY> >::_Xlen, COMDAT
; _this$ = ecx

; 883  : 		{	// report a length_error

  00000	6a ff		 push	 -1
  00002	68 00 00 00 00	 push	 __ehhandler$?_Xlen@?$vector@U_FEEDENERGY@@V?$allocator@U_FEEDENERGY@@@std@@@std@@IBEXXZ
  00007	64 a1 00 00 00
	00		 mov	 eax, DWORD PTR fs:__except_list
  0000d	50		 push	 eax
  0000e	64 89 25 00 00
	00 00		 mov	 DWORD PTR fs:__except_list, esp
  00015	83 ec 44	 sub	 esp, 68			; 00000044H

; 884  : 		_THROW(length_error, "vector<T> too long");

  00018	6a 12		 push	 18			; 00000012H
  0001a	68 00 00 00 00	 push	 OFFSET FLAT:??_C@_0BD@OLBABOEK@vector?$DMT?$DO?5too?5long?$AA@
  0001f	8d 4c 24 08	 lea	 ecx, DWORD PTR $T194378[esp+88]
  00023	c7 44 24 20 0f
	00 00 00	 mov	 DWORD PTR $T194378[esp+112], 15 ; 0000000fH
  0002b	c7 44 24 1c 00
	00 00 00	 mov	 DWORD PTR $T194378[esp+108], 0
  00033	c6 44 24 0c 00	 mov	 BYTE PTR $T194378[esp+92], 0
  00038	e8 00 00 00 00	 call	 ?assign@?$basic_string@DU?$char_traits@D@std@@V?$allocator@D@2@@std@@QAEAAV12@PBDI@Z ; std::basic_string<char,std::char_traits<char>,std::allocator<char> >::assign
  0003d	8d 04 24	 lea	 eax, DWORD PTR $T194378[esp+80]
  00040	50		 push	 eax
  00041	8d 4c 24 20	 lea	 ecx, DWORD PTR $T194377[esp+84]
  00045	c7 44 24 50 00
	00 00 00	 mov	 DWORD PTR __$EHRec$[esp+92], 0
  0004d	e8 00 00 00 00	 call	 ??0logic_error@std@@QAE@ABV?$basic_string@DU?$char_traits@D@std@@V?$allocator@D@2@@1@@Z ; std::logic_error::logic_error
  00052	68 00 00 00 00	 push	 OFFSET FLAT:__TI3?AVlength_error@std@@
  00057	8d 4c 24 20	 lea	 ecx, DWORD PTR $T194377[esp+84]
  0005b	51		 push	 ecx
  0005c	c7 44 24 24 00
	00 00 00	 mov	 DWORD PTR $T194377[esp+88], OFFSET FLAT:??_7length_error@std@@6B@
  00064	e8 00 00 00 00	 call	 __CxxThrowException@8
$L194493:
  00069	cc		 int	 3
_TEXT	ENDS
;	COMDAT text$x
text$x	SEGMENT
$L194379:
  00000	8d 4d b0	 lea	 ecx, DWORD PTR $T194378[ebp]
  00003	e9 00 00 00 00	 jmp	 ??1?$basic_string@DU?$char_traits@D@std@@V?$allocator@D@2@@std@@QAE@XZ ; std::basic_string<char,std::char_traits<char>,std::allocator<char> >::~basic_string<char,std::char_traits<char>,std::allocator<char> >
__ehhandler$?_Xlen@?$vector@U_FEEDENERGY@@V?$allocator@U_FEEDENERGY@@@std@@@std@@IBEXXZ:
  00008	b8 00 00 00 00	 mov	 eax, OFFSET FLAT:$T194491
  0000d	e9 00 00 00 00	 jmp	 ___CxxFrameHandler
text$x	ENDS
?_Xlen@?$vector@U_FEEDENERGY@@V?$allocator@U_FEEDENERGY@@@std@@@std@@IBEXXZ ENDP ; std::vector<_FEEDENERGY,std::allocator<_FEEDENERGY> >::_Xlen
;	COMDAT xdata$x
xdata$x	SEGMENT
$T194599 DD	0ffffffffH
	DD	FLAT:$L194499
$T194597 DD	019930520H
	DD	01H
	DD	FLAT:$T194599
	DD	2 DUP(00H)
	DD	2 DUP(00H)
; Function compile flags: /Ogty
xdata$x	ENDS
;	COMDAT ??0logic_error@std@@QAE@ABV01@@Z
_TEXT	SEGMENT
_this$ = -16						; size = 4
__$EHRec$ = -12						; size = 12
___that$ = 8						; size = 4
??0logic_error@std@@QAE@ABV01@@Z PROC NEAR		; std::logic_error::logic_error, COMDAT
; _this$ = ecx
  00000	6a ff		 push	 -1
  00002	68 00 00 00 00	 push	 __ehhandler$??0logic_error@std@@QAE@ABV01@@Z
  00007	64 a1 00 00 00
	00		 mov	 eax, DWORD PTR fs:__except_list
  0000d	50		 push	 eax
  0000e	64 89 25 00 00
	00 00		 mov	 DWORD PTR fs:__except_list, esp
  00015	51		 push	 ecx
  00016	56		 push	 esi
  00017	57		 push	 edi
  00018	8b 7c 24 1c	 mov	 edi, DWORD PTR ___that$[esp+20]
  0001c	8b f1		 mov	 esi, ecx
  0001e	57		 push	 edi
  0001f	89 74 24 0c	 mov	 DWORD PTR _this$[esp+28], esi
  00023	e8 00 00 00 00	 call	 ??0exception@@QAE@ABV0@@Z ; exception::exception
  00028	33 c0		 xor	 eax, eax
  0002a	6a ff		 push	 -1
  0002c	8d 4e 0c	 lea	 ecx, DWORD PTR [esi+12]
  0002f	c7 06 00 00 00
	00		 mov	 DWORD PTR [esi], OFFSET FLAT:??_7logic_error@std@@6B@
  00035	50		 push	 eax
  00036	83 c7 0c	 add	 edi, 12			; 0000000cH
  00039	c7 41 18 0f 00
	00 00		 mov	 DWORD PTR [ecx+24], 15	; 0000000fH
  00040	89 41 14	 mov	 DWORD PTR [ecx+20], eax
  00043	57		 push	 edi
  00044	89 44 24 20	 mov	 DWORD PTR __$EHRec$[esp+44], eax
  00048	88 41 04	 mov	 BYTE PTR [ecx+4], al
  0004b	e8 00 00 00 00	 call	 ?assign@?$basic_string@DU?$char_traits@D@std@@V?$allocator@D@2@@std@@QAEAAV12@ABV12@II@Z ; std::basic_string<char,std::char_traits<char>,std::allocator<char> >::assign
  00050	8b 4c 24 0c	 mov	 ecx, DWORD PTR __$EHRec$[esp+24]
  00054	5f		 pop	 edi
  00055	8b c6		 mov	 eax, esi
  00057	5e		 pop	 esi
  00058	64 89 0d 00 00
	00 00		 mov	 DWORD PTR fs:__except_list, ecx
  0005f	83 c4 10	 add	 esp, 16			; 00000010H
  00062	c2 04 00	 ret	 4
_TEXT	ENDS
;	COMDAT text$x
text$x	SEGMENT
$L194499:
  00000	8b 4d f0	 mov	 ecx, DWORD PTR _this$[ebp]
  00003	e9 00 00 00 00	 jmp	 ??1exception@@UAE@XZ	; exception::~exception
__ehhandler$??0logic_error@std@@QAE@ABV01@@Z:
  00008	b8 00 00 00 00	 mov	 eax, OFFSET FLAT:$T194597
  0000d	e9 00 00 00 00	 jmp	 ___CxxFrameHandler
text$x	ENDS
??0logic_error@std@@QAE@ABV01@@Z ENDP			; std::logic_error::logic_error
; Function compile flags: /Ogty
;	COMDAT ??0length_error@std@@QAE@ABV01@@Z
_TEXT	SEGMENT
___that$ = 8						; size = 4
??0length_error@std@@QAE@ABV01@@Z PROC NEAR		; std::length_error::length_error, COMDAT
; _this$ = ecx
  00000	8b 44 24 04	 mov	 eax, DWORD PTR ___that$[esp-4]
  00004	56		 push	 esi
  00005	50		 push	 eax
  00006	8b f1		 mov	 esi, ecx
  00008	e8 00 00 00 00	 call	 ??0logic_error@std@@QAE@ABV01@@Z
  0000d	c7 06 00 00 00
	00		 mov	 DWORD PTR [esi], OFFSET FLAT:??_7length_error@std@@6B@
  00013	8b c6		 mov	 eax, esi
  00015	5e		 pop	 esi
  00016	c2 04 00	 ret	 4
??0length_error@std@@QAE@ABV01@@Z ENDP			; std::length_error::length_error
_TEXT	ENDS
PUBLIC	?_Xlen@?$vector@GV?$allocator@G@std@@@std@@IBEXXZ ; std::vector<unsigned short,std::allocator<unsigned short> >::_Xlen
;	COMDAT xdata$x
; File c:\program files\microsoft visual studio .net 2003\vc7\include\stdexcept
xdata$x	SEGMENT
$T194724 DD	0ffffffffH
	DD	FLAT:$L194609
$T194721 DD	019930520H
	DD	01H
	DD	FLAT:$T194724
	DD	2 DUP(00H)
	DD	2 DUP(00H)
; Function compile flags: /Ogty
; File c:\program files\microsoft visual studio .net 2003\vc7\include\vector
xdata$x	ENDS
;	COMDAT ?_Xlen@?$vector@GV?$allocator@G@std@@@std@@IBEXXZ
_TEXT	SEGMENT
$T194608 = -80						; size = 28
$T194607 = -52						; size = 40
__$EHRec$ = -12						; size = 12
?_Xlen@?$vector@GV?$allocator@G@std@@@std@@IBEXXZ PROC NEAR ; std::vector<unsigned short,std::allocator<unsigned short> >::_Xlen, COMDAT
; _this$ = ecx

; 883  : 		{	// report a length_error

  00000	6a ff		 push	 -1
  00002	68 00 00 00 00	 push	 __ehhandler$?_Xlen@?$vector@GV?$allocator@G@std@@@std@@IBEXXZ
  00007	64 a1 00 00 00
	00		 mov	 eax, DWORD PTR fs:__except_list
  0000d	50		 push	 eax
  0000e	64 89 25 00 00
	00 00		 mov	 DWORD PTR fs:__except_list, esp
  00015	83 ec 44	 sub	 esp, 68			; 00000044H

; 884  : 		_THROW(length_error, "vector<T> too long");

  00018	6a 12		 push	 18			; 00000012H
  0001a	68 00 00 00 00	 push	 OFFSET FLAT:??_C@_0BD@OLBABOEK@vector?$DMT?$DO?5too?5long?$AA@
  0001f	8d 4c 24 08	 lea	 ecx, DWORD PTR $T194608[esp+88]
  00023	c7 44 24 20 0f
	00 00 00	 mov	 DWORD PTR $T194608[esp+112], 15 ; 0000000fH
  0002b	c7 44 24 1c 00
	00 00 00	 mov	 DWORD PTR $T194608[esp+108], 0
  00033	c6 44 24 0c 00	 mov	 BYTE PTR $T194608[esp+92], 0
  00038	e8 00 00 00 00	 call	 ?assign@?$basic_string@DU?$char_traits@D@std@@V?$allocator@D@2@@std@@QAEAAV12@PBDI@Z ; std::basic_string<char,std::char_traits<char>,std::allocator<char> >::assign
  0003d	8d 04 24	 lea	 eax, DWORD PTR $T194608[esp+80]
  00040	50		 push	 eax
  00041	8d 4c 24 20	 lea	 ecx, DWORD PTR $T194607[esp+84]
  00045	c7 44 24 50 00
	00 00 00	 mov	 DWORD PTR __$EHRec$[esp+92], 0
  0004d	e8 00 00 00 00	 call	 ??0logic_error@std@@QAE@ABV?$basic_string@DU?$char_traits@D@std@@V?$allocator@D@2@@1@@Z ; std::logic_error::logic_error
  00052	68 00 00 00 00	 push	 OFFSET FLAT:__TI3?AVlength_error@std@@
  00057	8d 4c 24 20	 lea	 ecx, DWORD PTR $T194607[esp+84]
  0005b	51		 push	 ecx
  0005c	c7 44 24 24 00
	00 00 00	 mov	 DWORD PTR $T194607[esp+88], OFFSET FLAT:??_7length_error@std@@6B@
  00064	e8 00 00 00 00	 call	 __CxxThrowException@8
$L194723:
  00069	cc		 int	 3
_TEXT	ENDS
;	COMDAT text$x
text$x	SEGMENT
$L194609:
  00000	8d 4d b0	 lea	 ecx, DWORD PTR $T194608[ebp]
  00003	e9 00 00 00 00	 jmp	 ??1?$basic_string@DU?$char_traits@D@std@@V?$allocator@D@2@@std@@QAE@XZ ; std::basic_string<char,std::char_traits<char>,std::allocator<char> >::~basic_string<char,std::char_traits<char>,std::allocator<char> >
__ehhandler$?_Xlen@?$vector@GV?$allocator@G@std@@@std@@IBEXXZ:
  00008	b8 00 00 00 00	 mov	 eax, OFFSET FLAT:$T194721
  0000d	e9 00 00 00 00	 jmp	 ___CxxFrameHandler
text$x	ENDS
?_Xlen@?$vector@GV?$allocator@G@std@@@std@@IBEXXZ ENDP	; std::vector<unsigned short,std::allocator<unsigned short> >::_Xlen
PUBLIC	?_Xlen@?$vector@U_TransformStuffComponent@@V?$allocator@U_TransformStuffComponent@@@std@@@std@@IBEXXZ ; std::vector<_TransformStuffComponent,std::allocator<_TransformStuffComponent> >::_Xlen
;	COMDAT xdata$x
; File c:\program files\microsoft visual studio .net 2003\vc7\include\stdexcept
xdata$x	SEGMENT
$T194846 DD	0ffffffffH
	DD	FLAT:$L194731
$T194843 DD	019930520H
	DD	01H
	DD	FLAT:$T194846
	DD	2 DUP(00H)
	DD	2 DUP(00H)
; Function compile flags: /Ogty
; File c:\program files\microsoft visual studio .net 2003\vc7\include\vector
xdata$x	ENDS
;	COMDAT ?_Xlen@?$vector@U_TransformStuffComponent@@V?$allocator@U_TransformStuffComponent@@@std@@@std@@IBEXXZ
_TEXT	SEGMENT
$T194730 = -80						; size = 28
$T194729 = -52						; size = 40
__$EHRec$ = -12						; size = 12
?_Xlen@?$vector@U_TransformStuffComponent@@V?$allocator@U_TransformStuffComponent@@@std@@@std@@IBEXXZ PROC NEAR ; std::vector<_TransformStuffComponent,std::allocator<_TransformStuffComponent> >::_Xlen, COMDAT
; _this$ = ecx

; 883  : 		{	// report a length_error

  00000	6a ff		 push	 -1
  00002	68 00 00 00 00	 push	 __ehhandler$?_Xlen@?$vector@U_TransformStuffComponent@@V?$allocator@U_TransformStuffComponent@@@std@@@std@@IBEXXZ
  00007	64 a1 00 00 00
	00		 mov	 eax, DWORD PTR fs:__except_list
  0000d	50		 push	 eax
  0000e	64 89 25 00 00
	00 00		 mov	 DWORD PTR fs:__except_list, esp
  00015	83 ec 44	 sub	 esp, 68			; 00000044H

; 884  : 		_THROW(length_error, "vector<T> too long");

  00018	6a 12		 push	 18			; 00000012H
  0001a	68 00 00 00 00	 push	 OFFSET FLAT:??_C@_0BD@OLBABOEK@vector?$DMT?$DO?5too?5long?$AA@
  0001f	8d 4c 24 08	 lea	 ecx, DWORD PTR $T194730[esp+88]
  00023	c7 44 24 20 0f
	00 00 00	 mov	 DWORD PTR $T194730[esp+112], 15 ; 0000000fH
  0002b	c7 44 24 1c 00
	00 00 00	 mov	 DWORD PTR $T194730[esp+108], 0
  00033	c6 44 24 0c 00	 mov	 BYTE PTR $T194730[esp+92], 0
  00038	e8 00 00 00 00	 call	 ?assign@?$basic_string@DU?$char_traits@D@std@@V?$allocator@D@2@@std@@QAEAAV12@PBDI@Z ; std::basic_string<char,std::char_traits<char>,std::allocator<char> >::assign
  0003d	8d 04 24	 lea	 eax, DWORD PTR $T194730[esp+80]
  00040	50		 push	 eax
  00041	8d 4c 24 20	 lea	 ecx, DWORD PTR $T194729[esp+84]
  00045	c7 44 24 50 00
	00 00 00	 mov	 DWORD PTR __$EHRec$[esp+92], 0
  0004d	e8 00 00 00 00	 call	 ??0logic_error@std@@QAE@ABV?$basic_string@DU?$char_traits@D@std@@V?$allocator@D@2@@1@@Z ; std::logic_error::logic_error
  00052	68 00 00 00 00	 push	 OFFSET FLAT:__TI3?AVlength_error@std@@
  00057	8d 4c 24 20	 lea	 ecx, DWORD PTR $T194729[esp+84]
  0005b	51		 push	 ecx
  0005c	c7 44 24 24 00
	00 00 00	 mov	 DWORD PTR $T194729[esp+88], OFFSET FLAT:??_7length_error@std@@6B@
  00064	e8 00 00 00 00	 call	 __CxxThrowException@8
$L194845:
  00069	cc		 int	 3
_TEXT	ENDS
;	COMDAT text$x
text$x	SEGMENT
$L194731:
  00000	8d 4d b0	 lea	 ecx, DWORD PTR $T194730[ebp]
  00003	e9 00 00 00 00	 jmp	 ??1?$basic_string@DU?$char_traits@D@std@@V?$allocator@D@2@@std@@QAE@XZ ; std::basic_string<char,std::char_traits<char>,std::allocator<char> >::~basic_string<char,std::char_traits<char>,std::allocator<char> >
__ehhandler$?_Xlen@?$vector@U_TransformStuffComponent@@V?$allocator@U_TransformStuffComponent@@@std@@@std@@IBEXXZ:
  00008	b8 00 00 00 00	 mov	 eax, OFFSET FLAT:$T194843
  0000d	e9 00 00 00 00	 jmp	 ___CxxFrameHandler
text$x	ENDS
?_Xlen@?$vector@U_TransformStuffComponent@@V?$allocator@U_TransformStuffComponent@@@std@@@std@@IBEXXZ ENDP ; std::vector<_TransformStuffComponent,std::allocator<_TransformStuffComponent> >::_Xlen
; Function compile flags: /Ogty
;	COMDAT ??_GCPetProperty@@UAEPAXI@Z
_TEXT	SEGMENT
___flags$ = 8						; size = 4
??_GCPetProperty@@UAEPAXI@Z PROC NEAR			; CPetProperty::`scalar deleting destructor', COMDAT
; _this$ = ecx
  00000	56		 push	 esi
  00001	8b f1		 mov	 esi, ecx
  00003	e8 00 00 00 00	 call	 ??1CPetProperty@@UAE@XZ	; CPetProperty::~CPetProperty
  00008	f6 44 24 08 01	 test	 BYTE PTR ___flags$[esp], 1
  0000d	74 09		 je	 SHORT $L194851
  0000f	56		 push	 esi
  00010	e8 00 00 00 00	 call	 ??3@YAXPAX@Z		; operator delete
  00015	83 c4 04	 add	 esp, 4
$L194851:
  00018	8b c6		 mov	 eax, esi
  0001a	5e		 pop	 esi
  0001b	c2 04 00	 ret	 4
??_GCPetProperty@@UAEPAXI@Z ENDP			; CPetProperty::`scalar deleting destructor'
; Function compile flags: /Ogty
_TEXT	ENDS
;	COMDAT ??_GCTransformStuff@@UAEPAXI@Z
_TEXT	SEGMENT
___flags$ = 8						; size = 4
??_GCTransformStuff@@UAEPAXI@Z PROC NEAR		; CTransformStuff::`scalar deleting destructor', COMDAT
; _this$ = ecx
  00000	56		 push	 esi
  00001	8b f1		 mov	 esi, ecx
  00003	e8 00 00 00 00	 call	 ??1CTransformStuff@@UAE@XZ ; CTransformStuff::~CTransformStuff
  00008	f6 44 24 08 01	 test	 BYTE PTR ___flags$[esp], 1
  0000d	74 09		 je	 SHORT $L194854
  0000f	56		 push	 esi
  00010	e8 00 00 00 00	 call	 ??3@YAXPAX@Z		; operator delete
  00015	83 c4 04	 add	 esp, 4
$L194854:
  00018	8b c6		 mov	 eax, esi
  0001a	5e		 pop	 esi
  0001b	c2 04 00	 ret	 4
??_GCTransformStuff@@UAEPAXI@Z ENDP			; CTransformStuff::`scalar deleting destructor'
_TEXT	ENDS
PUBLIC	?_Buy@?$vector@U_FEEDENERGY@@V?$allocator@U_FEEDENERGY@@@std@@@std@@IAE_NI@Z ; std::vector<_FEEDENERGY,std::allocator<_FEEDENERGY> >::_Buy
; Function compile flags: /Ogty
;	COMDAT ?_Buy@?$vector@U_FEEDENERGY@@V?$allocator@U_FEEDENERGY@@@std@@@std@@IAE_NI@Z
_TEXT	SEGMENT
__Capacity$ = 8						; size = 4
?_Buy@?$vector@U_FEEDENERGY@@V?$allocator@U_FEEDENERGY@@@std@@@std@@IAE_NI@Z PROC NEAR ; std::vector<_FEEDENERGY,std::allocator<_FEEDENERGY> >::_Buy, COMDAT
; _this$ = ecx

; 771  : 		_Myfirst = 0, _Mylast = 0, _Myend = 0;
; 772  : 		if (_Capacity == 0)

  00000	8b 44 24 04	 mov	 eax, DWORD PTR __Capacity$[esp-4]
  00004	56		 push	 esi
  00005	8b f1		 mov	 esi, ecx
  00007	33 c9		 xor	 ecx, ecx
  00009	3b c1		 cmp	 eax, ecx
  0000b	89 4e 04	 mov	 DWORD PTR [esi+4], ecx
  0000e	89 4e 08	 mov	 DWORD PTR [esi+8], ecx
  00011	89 4e 0c	 mov	 DWORD PTR [esi+12], ecx
  00014	75 06		 jne	 SHORT $L190069

; 773  : 			return (false);

  00016	32 c0		 xor	 al, al
  00018	5e		 pop	 esi

; 783  : 		}

  00019	c2 04 00	 ret	 4
$L190069:

; 774  : 		else if (max_size() < _Capacity)

  0001c	3d 55 55 55 15	 cmp	 eax, 357913941		; 15555555H
  00021	76 07		 jbe	 SHORT $L190071

; 775  : 			_Xlen();	// result too long

  00023	8b ce		 mov	 ecx, esi
  00025	e8 00 00 00 00	 call	 ?_Xlen@?$vector@U_FEEDENERGY@@V?$allocator@U_FEEDENERGY@@@std@@@std@@IBEXXZ ; std::vector<_FEEDENERGY,std::allocator<_FEEDENERGY> >::_Xlen
$L190071:
  0002a	57		 push	 edi

; 776  : 		else
; 777  : 			{	// nonempty array, allocate storage
; 778  : 			_Myfirst = this->_Alval.allocate(_Capacity);

  0002b	8d 3c 40	 lea	 edi, DWORD PTR [eax+eax*2]
  0002e	c1 e7 02	 shl	 edi, 2
  00031	57		 push	 edi
  00032	e8 00 00 00 00	 call	 ??2@YAPAXI@Z		; operator new

; 779  : 			_Mylast = _Myfirst;
; 780  : 			_Myend = _Myfirst + _Capacity;

  00037	03 f8		 add	 edi, eax
  00039	83 c4 04	 add	 esp, 4
  0003c	89 7e 0c	 mov	 DWORD PTR [esi+12], edi
  0003f	89 46 04	 mov	 DWORD PTR [esi+4], eax
  00042	89 46 08	 mov	 DWORD PTR [esi+8], eax
  00045	5f		 pop	 edi

; 781  : 			}
; 782  : 		return (true);

  00046	b0 01		 mov	 al, 1
  00048	5e		 pop	 esi

; 783  : 		}

  00049	c2 04 00	 ret	 4
$L194881:
?_Buy@?$vector@U_FEEDENERGY@@V?$allocator@U_FEEDENERGY@@@std@@@std@@IAE_NI@Z ENDP ; std::vector<_FEEDENERGY,std::allocator<_FEEDENERGY> >::_Buy
_TEXT	ENDS
PUBLIC	?_Buy@?$vector@GV?$allocator@G@std@@@std@@IAE_NI@Z ; std::vector<unsigned short,std::allocator<unsigned short> >::_Buy
; Function compile flags: /Ogty
;	COMDAT ?_Buy@?$vector@GV?$allocator@G@std@@@std@@IAE_NI@Z
_TEXT	SEGMENT
__Capacity$ = 8						; size = 4
?_Buy@?$vector@GV?$allocator@G@std@@@std@@IAE_NI@Z PROC NEAR ; std::vector<unsigned short,std::allocator<unsigned short> >::_Buy, COMDAT
; _this$ = ecx

; 771  : 		_Myfirst = 0, _Mylast = 0, _Myend = 0;
; 772  : 		if (_Capacity == 0)

  00000	8b 44 24 04	 mov	 eax, DWORD PTR __Capacity$[esp-4]
  00004	56		 push	 esi
  00005	8b f1		 mov	 esi, ecx
  00007	33 c9		 xor	 ecx, ecx
  00009	3b c1		 cmp	 eax, ecx
  0000b	89 4e 04	 mov	 DWORD PTR [esi+4], ecx
  0000e	89 4e 08	 mov	 DWORD PTR [esi+8], ecx
  00011	89 4e 0c	 mov	 DWORD PTR [esi+12], ecx
  00014	75 06		 jne	 SHORT $L190112

; 773  : 			return (false);

  00016	32 c0		 xor	 al, al
  00018	5e		 pop	 esi

; 783  : 		}

  00019	c2 04 00	 ret	 4
$L190112:

; 774  : 		else if (max_size() < _Capacity)

  0001c	3d ff ff ff 7f	 cmp	 eax, 2147483647		; 7fffffffH
  00021	76 07		 jbe	 SHORT $L190114

; 775  : 			_Xlen();	// result too long

  00023	8b ce		 mov	 ecx, esi
  00025	e8 00 00 00 00	 call	 ?_Xlen@?$vector@GV?$allocator@G@std@@@std@@IBEXXZ ; std::vector<unsigned short,std::allocator<unsigned short> >::_Xlen
$L190114:
  0002a	57		 push	 edi

; 776  : 		else
; 777  : 			{	// nonempty array, allocate storage
; 778  : 			_Myfirst = this->_Alval.allocate(_Capacity);

  0002b	8d 3c 00	 lea	 edi, DWORD PTR [eax+eax]
  0002e	57		 push	 edi
  0002f	e8 00 00 00 00	 call	 ??2@YAPAXI@Z		; operator new

; 779  : 			_Mylast = _Myfirst;
; 780  : 			_Myend = _Myfirst + _Capacity;

  00034	03 f8		 add	 edi, eax
  00036	83 c4 04	 add	 esp, 4
  00039	89 7e 0c	 mov	 DWORD PTR [esi+12], edi
  0003c	89 46 04	 mov	 DWORD PTR [esi+4], eax
  0003f	89 46 08	 mov	 DWORD PTR [esi+8], eax
  00042	5f		 pop	 edi

; 781  : 			}
; 782  : 		return (true);

  00043	b0 01		 mov	 al, 1
  00045	5e		 pop	 esi

; 783  : 		}

  00046	c2 04 00	 ret	 4
$L194908:
?_Buy@?$vector@GV?$allocator@G@std@@@std@@IAE_NI@Z ENDP	; std::vector<unsigned short,std::allocator<unsigned short> >::_Buy
_TEXT	ENDS
PUBLIC	?_Buy@?$vector@U_TransformStuffComponent@@V?$allocator@U_TransformStuffComponent@@@std@@@std@@IAE_NI@Z ; std::vector<_TransformStuffComponent,std::allocator<_TransformStuffComponent> >::_Buy
; Function compile flags: /Ogty
;	COMDAT ?_Buy@?$vector@U_TransformStuffComponent@@V?$allocator@U_TransformStuffComponent@@@std@@@std@@IAE_NI@Z
_TEXT	SEGMENT
__Capacity$ = 8						; size = 4
?_Buy@?$vector@U_TransformStuffComponent@@V?$allocator@U_TransformStuffComponent@@@std@@@std@@IAE_NI@Z PROC NEAR ; std::vector<_TransformStuffComponent,std::allocator<_TransformStuffComponent> >::_Buy, COMDAT
; _this$ = ecx

; 771  : 		_Myfirst = 0, _Mylast = 0, _Myend = 0;
; 772  : 		if (_Capacity == 0)

  00000	8b 44 24 04	 mov	 eax, DWORD PTR __Capacity$[esp-4]
  00004	56		 push	 esi
  00005	8b f1		 mov	 esi, ecx
  00007	33 c9		 xor	 ecx, ecx
  00009	3b c1		 cmp	 eax, ecx
  0000b	89 4e 04	 mov	 DWORD PTR [esi+4], ecx
  0000e	89 4e 08	 mov	 DWORD PTR [esi+8], ecx
  00011	89 4e 0c	 mov	 DWORD PTR [esi+12], ecx
  00014	75 06		 jne	 SHORT $L190145

; 773  : 			return (false);

  00016	32 c0		 xor	 al, al
  00018	5e		 pop	 esi

; 783  : 		}

  00019	c2 04 00	 ret	 4
$L190145:

; 774  : 		else if (max_size() < _Capacity)

  0001c	3d ff ff ff 1f	 cmp	 eax, 536870911		; 1fffffffH
  00021	76 07		 jbe	 SHORT $L190147

; 775  : 			_Xlen();	// result too long

  00023	8b ce		 mov	 ecx, esi
  00025	e8 00 00 00 00	 call	 ?_Xlen@?$vector@U_TransformStuffComponent@@V?$allocator@U_TransformStuffComponent@@@std@@@std@@IBEXXZ ; std::vector<_TransformStuffComponent,std::allocator<_TransformStuffComponent> >::_Xlen
$L190147:
  0002a	57		 push	 edi

; 776  : 		else
; 777  : 			{	// nonempty array, allocate storage
; 778  : 			_Myfirst = this->_Alval.allocate(_Capacity);

  0002b	8d 3c c5 00 00
	00 00		 lea	 edi, DWORD PTR [eax*8]
  00032	57		 push	 edi
  00033	e8 00 00 00 00	 call	 ??2@YAPAXI@Z		; operator new

; 779  : 			_Mylast = _Myfirst;
; 780  : 			_Myend = _Myfirst + _Capacity;

  00038	03 f8		 add	 edi, eax
  0003a	83 c4 04	 add	 esp, 4
  0003d	89 7e 0c	 mov	 DWORD PTR [esi+12], edi
  00040	89 46 04	 mov	 DWORD PTR [esi+4], eax
  00043	89 46 08	 mov	 DWORD PTR [esi+8], eax
  00046	5f		 pop	 edi

; 781  : 			}
; 782  : 		return (true);

  00047	b0 01		 mov	 al, 1
  00049	5e		 pop	 esi

; 783  : 		}

  0004a	c2 04 00	 ret	 4
$L194935:
?_Buy@?$vector@U_TransformStuffComponent@@V?$allocator@U_TransformStuffComponent@@@std@@@std@@IAE_NI@Z ENDP ; std::vector<_TransformStuffComponent,std::allocator<_TransformStuffComponent> >::_Buy
_TEXT	ENDS
PUBLIC	?_Insert_n@?$vector@U_FEEDENERGY@@V?$allocator@U_FEEDENERGY@@@std@@@std@@IAEXViterator@12@IABU_FEEDENERGY@@@Z ; std::vector<_FEEDENERGY,std::allocator<_FEEDENERGY> >::_Insert_n
;	COMDAT xdata$x
; File c:\program files\microsoft visual studio .net 2003\vc7\include\xutility
xdata$x	SEGMENT
$T195163 DD	0ffffffffH
	DD	00H
	DD	0ffffffffH
	DD	00H
	DD	0ffffffffH
	DD	00H
	DD	0ffffffffH
	DD	00H
$T195165 DD	00H
	DD	00H
	DD	00H
	DD	FLAT:$L194941
$T195166 DD	00H
	DD	00H
	DD	00H
	DD	FLAT:$L194943
$T195164 DD	00H
	DD	00H
	DD	01H
	DD	01H
	DD	FLAT:$T195165
	DD	02H
	DD	02H
	DD	03H
	DD	01H
	DD	FLAT:$T195166
$T195160 DD	019930520H
	DD	04H
	DD	FLAT:$T195163
	DD	02H
	DD	FLAT:$T195164
	DD	2 DUP(00H)
; Function compile flags: /Ogty
; File c:\program files\microsoft visual studio .net 2003\vc7\include\vector
xdata$x	ENDS
;	COMDAT ?_Insert_n@?$vector@U_FEEDENERGY@@V?$allocator@U_FEEDENERGY@@@std@@@std@@IAEXViterator@12@IABU_FEEDENERGY@@@Z
_TEXT	SEGMENT
__Tmp$ = -28						; size = 12
__$EHRec$ = -16						; size = 16
tv427 = 8						; size = 4
tv414 = 8						; size = 4
__Cat$195155 = 8					; size = 1
__Cat$195142 = 8					; size = 1
__Cat$195117 = 8					; size = 1
__Cat$195079 = 8					; size = 1
__Cat$195056 = 8					; size = 1
__Cat$195033 = 8					; size = 1
__Where$ = 8						; size = 4
tv220 = 12						; size = 4
__Count$ = 12						; size = 4
tv398 = 16						; size = 4
__Newvec$190222 = 16					; size = 4
__Val$ = 16						; size = 4
?_Insert_n@?$vector@U_FEEDENERGY@@V?$allocator@U_FEEDENERGY@@@std@@@std@@IAEXViterator@12@IABU_FEEDENERGY@@@Z PROC NEAR ; std::vector<_FEEDENERGY,std::allocator<_FEEDENERGY> >::_Insert_n, COMDAT
; _this$ = ecx

; 809  : 		{	// insert _Count * _Val at _Where

  00000	55		 push	 ebp
  00001	8b ec		 mov	 ebp, esp
  00003	6a ff		 push	 -1
  00005	68 00 00 00 00	 push	 __ehhandler$?_Insert_n@?$vector@U_FEEDENERGY@@V?$allocator@U_FEEDENERGY@@@std@@@std@@IAEXViterator@12@IABU_FEEDENERGY@@@Z
  0000a	64 a1 00 00 00
	00		 mov	 eax, DWORD PTR fs:__except_list
  00010	50		 push	 eax
  00011	64 89 25 00 00
	00 00		 mov	 DWORD PTR fs:__except_list, esp
  00018	83 ec 10	 sub	 esp, 16			; 00000010H

; 810  : 		_Ty _Tmp = _Val;	// in case _Val is in sequence

  0001b	8b 45 10	 mov	 eax, DWORD PTR __Val$[ebp]
  0001e	53		 push	 ebx
  0001f	56		 push	 esi
  00020	8b f1		 mov	 esi, ecx
  00022	8b 08		 mov	 ecx, DWORD PTR [eax]
  00024	8b 50 04	 mov	 edx, DWORD PTR [eax+4]

; 811  : 		size_type _Capacity = capacity();

  00027	8b 5e 04	 mov	 ebx, DWORD PTR [esi+4]
  0002a	85 db		 test	 ebx, ebx
  0002c	8b 40 08	 mov	 eax, DWORD PTR [eax+8]
  0002f	57		 push	 edi
  00030	89 65 f0	 mov	 DWORD PTR __$EHRec$[ebp], esp
  00033	89 4d e4	 mov	 DWORD PTR __Tmp$[ebp], ecx
  00036	89 55 e8	 mov	 DWORD PTR __Tmp$[ebp+4], edx
  00039	89 45 ec	 mov	 DWORD PTR __Tmp$[ebp+8], eax
  0003c	75 04		 jne	 SHORT $L194948
  0003e	33 c9		 xor	 ecx, ecx
  00040	eb 15		 jmp	 SHORT $L194949
$L194948:
  00042	8b 4e 0c	 mov	 ecx, DWORD PTR [esi+12]
  00045	2b cb		 sub	 ecx, ebx
  00047	b8 ab aa aa 2a	 mov	 eax, 715827883		; 2aaaaaabH
  0004c	f7 e9		 imul	 ecx
  0004e	d1 fa		 sar	 edx, 1
  00050	8b ca		 mov	 ecx, edx
  00052	c1 e9 1f	 shr	 ecx, 31			; 0000001fH
  00055	03 ca		 add	 ecx, edx
$L194949:

; 812  : 
; 813  : 		if (_Count == 0)

  00057	8b 7d 0c	 mov	 edi, DWORD PTR __Count$[ebp]
  0005a	85 ff		 test	 edi, edi
  0005c	0f 84 3c 02 00
	00		 je	 $L190242

; 814  : 			;
; 815  : 		else if (max_size() - size() < _Count)

  00062	85 db		 test	 ebx, ebx
  00064	75 04		 jne	 SHORT $L194971
  00066	33 c0		 xor	 eax, eax
  00068	eb 15		 jmp	 SHORT $L194972
$L194971:
  0006a	8b 56 08	 mov	 edx, DWORD PTR [esi+8]
  0006d	2b d3		 sub	 edx, ebx
  0006f	b8 ab aa aa 2a	 mov	 eax, 715827883		; 2aaaaaabH
  00074	f7 ea		 imul	 edx
  00076	d1 fa		 sar	 edx, 1
  00078	8b c2		 mov	 eax, edx
  0007a	c1 e8 1f	 shr	 eax, 31			; 0000001fH
  0007d	03 c2		 add	 eax, edx
$L194972:
  0007f	ba 55 55 55 15	 mov	 edx, 357913941		; 15555555H
  00084	2b d0		 sub	 edx, eax
  00086	3b d7		 cmp	 edx, edi
  00088	73 07		 jae	 SHORT $L190218

; 816  : 			_Xlen();	// result too long

  0008a	8b ce		 mov	 ecx, esi
  0008c	e8 00 00 00 00	 call	 ?_Xlen@?$vector@U_FEEDENERGY@@V?$allocator@U_FEEDENERGY@@@std@@@std@@IBEXXZ ; std::vector<_FEEDENERGY,std::allocator<_FEEDENERGY> >::_Xlen
$L190218:

; 817  : 		else if (_Capacity < size() + _Count)

  00091	85 db		 test	 ebx, ebx
  00093	75 04		 jne	 SHORT $L194978
  00095	33 c0		 xor	 eax, eax
  00097	eb 15		 jmp	 SHORT $L194979
$L194978:
  00099	8b 56 08	 mov	 edx, DWORD PTR [esi+8]
  0009c	2b d3		 sub	 edx, ebx
  0009e	b8 ab aa aa 2a	 mov	 eax, 715827883		; 2aaaaaabH
  000a3	f7 ea		 imul	 edx
  000a5	d1 fa		 sar	 edx, 1
  000a7	8b c2		 mov	 eax, edx
  000a9	c1 e8 1f	 shr	 eax, 31			; 0000001fH
  000ac	03 c2		 add	 eax, edx
$L194979:
  000ae	03 c7		 add	 eax, edi
  000b0	3b c8		 cmp	 ecx, eax
  000b2	0f 83 0e 01 00
	00		 jae	 $L190220

; 818  : 			{	// not enough room, reallocate
; 819  : 			_Capacity = max_size() - _Capacity / 2 < _Capacity
; 820  : 				? 0 : _Capacity + _Capacity / 2;	// try to grow by 50%

  000b8	8b c1		 mov	 eax, ecx
  000ba	d1 e8		 shr	 eax, 1
  000bc	ba 55 55 55 15	 mov	 edx, 357913941		; 15555555H
  000c1	2b d0		 sub	 edx, eax
  000c3	3b d1		 cmp	 edx, ecx
  000c5	73 04		 jae	 SHORT $L194938
  000c7	33 c9		 xor	 ecx, ecx
  000c9	eb 02		 jmp	 SHORT $L194939
$L194938:
  000cb	03 c8		 add	 ecx, eax
$L194939:

; 821  : 			if (_Capacity < size() + _Count)

  000cd	85 db		 test	 ebx, ebx
  000cf	75 04		 jne	 SHORT $L195001
  000d1	33 c0		 xor	 eax, eax
  000d3	eb 15		 jmp	 SHORT $L195002
$L195001:
  000d5	8b 56 08	 mov	 edx, DWORD PTR [esi+8]
  000d8	2b d3		 sub	 edx, ebx
  000da	b8 ab aa aa 2a	 mov	 eax, 715827883		; 2aaaaaabH
  000df	f7 ea		 imul	 edx
  000e1	d1 fa		 sar	 edx, 1
  000e3	8b c2		 mov	 eax, edx
  000e5	c1 e8 1f	 shr	 eax, 31			; 0000001fH
  000e8	03 c2		 add	 eax, edx
$L195002:
  000ea	03 c7		 add	 eax, edi
  000ec	3b c8		 cmp	 ecx, eax
  000ee	73 0b		 jae	 SHORT $L190221

; 822  : 				_Capacity = size() + _Count;

  000f0	8b ce		 mov	 ecx, esi
  000f2	e8 00 00 00 00	 call	 ?size@?$vector@U_FEEDENERGY@@V?$allocator@U_FEEDENERGY@@@std@@@std@@QBEIXZ ; std::vector<_FEEDENERGY,std::allocator<_FEEDENERGY> >::size
  000f7	8b c8		 mov	 ecx, eax
  000f9	03 cf		 add	 ecx, edi
$L190221:

; 823  : 			pointer _Newvec = this->_Alval.allocate(_Capacity);

  000fb	8d 1c 49	 lea	 ebx, DWORD PTR [ecx+ecx*2]
  000fe	c1 e3 02	 shl	 ebx, 2
  00101	53		 push	 ebx
  00102	e8 00 00 00 00	 call	 ??2@YAPAXI@Z		; operator new

; 824  : 			pointer _Ptr = _Newvec;
; 825  : 
; 826  : 			_TRY_BEGIN
; 827  : 			_Ptr = _Ucopy(_Myfirst, _ITER_BASE(_Where),
; 828  : 				_Newvec);	// copy prefix

  00107	8b 55 08	 mov	 edx, DWORD PTR __Cat$195033[ebp]
  0010a	8b 4e 04	 mov	 ecx, DWORD PTR [esi+4]
  0010d	52		 push	 edx
  0010e	56		 push	 esi
  0010f	50		 push	 eax
  00110	89 45 10	 mov	 DWORD PTR __Newvec$190222[ebp], eax
  00113	8b 45 08	 mov	 eax, DWORD PTR __Where$[ebp]
  00116	50		 push	 eax
  00117	51		 push	 ecx
  00118	c7 45 fc 00 00
	00 00		 mov	 DWORD PTR __$EHRec$[ebp+12], 0
  0011f	e8 00 00 00 00	 call	 ??$_Uninit_copy@PAU_FEEDENERGY@@PAU1@V?$allocator@U_FEEDENERGY@@@std@@@std@@YAPAU_FEEDENERGY@@PAU1@00AAV?$allocator@U_FEEDENERGY@@@0@U_Nonscalar_ptr_iterator_tag@0@@Z ; std::_Uninit_copy<_FEEDENERGY *,_FEEDENERGY *,std::allocator<_FEEDENERGY> >

; 829  : 			_Ptr = _Ufill(_Ptr, _Count, _Tmp);	// add new stuff

  00124	8b 4d 08	 mov	 ecx, DWORD PTR __Cat$195056[ebp]
  00127	83 c4 18	 add	 esp, 24			; 00000018H
  0012a	51		 push	 ecx
  0012b	56		 push	 esi
  0012c	8d 55 e4	 lea	 edx, DWORD PTR __Tmp$[ebp]
  0012f	52		 push	 edx
  00130	57		 push	 edi
  00131	50		 push	 eax
  00132	89 45 0c	 mov	 DWORD PTR tv220[ebp], eax
  00135	e8 00 00 00 00	 call	 ??$_Uninit_fill_n@PAU_FEEDENERGY@@IU1@V?$allocator@U_FEEDENERGY@@@std@@@std@@YAXPAU_FEEDENERGY@@IABU1@AAV?$allocator@U_FEEDENERGY@@@0@U_Nonscalar_ptr_iterator_tag@0@@Z ; std::_Uninit_fill_n<_FEEDENERGY *,unsigned int,_FEEDENERGY,std::allocator<_FEEDENERGY> >

; 830  : 			_Ucopy(_ITER_BASE(_Where), _Mylast, _Ptr);	// copy suffix

  0013a	8b 55 08	 mov	 edx, DWORD PTR __Cat$195079[ebp]
  0013d	8b 4d 0c	 mov	 ecx, DWORD PTR tv220[ebp]
  00140	83 c4 14	 add	 esp, 20			; 00000014H
  00143	52		 push	 edx
  00144	8d 04 7f	 lea	 eax, DWORD PTR [edi+edi*2]
  00147	8d 04 81	 lea	 eax, DWORD PTR [ecx+eax*4]
  0014a	8b 4e 08	 mov	 ecx, DWORD PTR [esi+8]
  0014d	56		 push	 esi
  0014e	50		 push	 eax
  0014f	8b 45 08	 mov	 eax, DWORD PTR __Where$[ebp]
  00152	51		 push	 ecx
  00153	50		 push	 eax
  00154	e8 00 00 00 00	 call	 ??$_Uninit_copy@PAU_FEEDENERGY@@PAU1@V?$allocator@U_FEEDENERGY@@@std@@@std@@YAPAU_FEEDENERGY@@PAU1@00AAV?$allocator@U_FEEDENERGY@@@0@U_Nonscalar_ptr_iterator_tag@0@@Z ; std::_Uninit_copy<_FEEDENERGY *,_FEEDENERGY *,std::allocator<_FEEDENERGY> >

; 835  : 			_CATCH_END
; 836  : 
; 837  : 			_Count += size();

  00159	8b 46 04	 mov	 eax, DWORD PTR [esi+4]
  0015c	83 c4 14	 add	 esp, 20			; 00000014H
  0015f	85 c0		 test	 eax, eax
  00161	74 15		 je	 SHORT $L195090
$L195089:
  00163	8b 4e 08	 mov	 ecx, DWORD PTR [esi+8]
  00166	2b c8		 sub	 ecx, eax
  00168	b8 ab aa aa 2a	 mov	 eax, 715827883		; 2aaaaaabH
  0016d	f7 e9		 imul	 ecx
  0016f	d1 fa		 sar	 edx, 1
  00171	8b c2		 mov	 eax, edx
  00173	c1 e8 1f	 shr	 eax, 31			; 0000001fH
  00176	03 c2		 add	 eax, edx
$L195090:
  00178	03 f8		 add	 edi, eax

; 838  : 			if (_Myfirst != 0)

  0017a	8b 46 04	 mov	 eax, DWORD PTR [esi+4]
  0017d	85 c0		 test	 eax, eax
  0017f	74 09		 je	 SHORT $L195094

; 839  : 				{	// destroy and deallocate old array
; 840  : 				_Destroy(_Myfirst, _Mylast);
; 841  : 				this->_Alval.deallocate(_Myfirst, _Myend - _Myfirst);

  00181	50		 push	 eax
  00182	e8 00 00 00 00	 call	 ??3@YAXPAX@Z		; operator delete
  00187	83 c4 04	 add	 esp, 4
$L195094:

; 842  : 				}
; 843  : 			_Myend = _Newvec + _Capacity;

  0018a	8b 45 10	 mov	 eax, DWORD PTR __Newvec$190222[ebp]

; 844  : 			_Mylast = _Newvec + _Count;

  0018d	8d 0c 7f	 lea	 ecx, DWORD PTR [edi+edi*2]
  00190	03 d8		 add	 ebx, eax
  00192	8d 14 88	 lea	 edx, DWORD PTR [eax+ecx*4]
  00195	89 5e 0c	 mov	 DWORD PTR [esi+12], ebx
  00198	89 56 08	 mov	 DWORD PTR [esi+8], edx

; 845  : 			_Myfirst = _Newvec;

  0019b	89 46 04	 mov	 DWORD PTR [esi+4], eax

; 873  : 			}
; 874  : 		}

  0019e	8b 4d f4	 mov	 ecx, DWORD PTR __$EHRec$[ebp+4]
  001a1	64 89 0d 00 00
	00 00		 mov	 DWORD PTR fs:__except_list, ecx
  001a8	5f		 pop	 edi
  001a9	5e		 pop	 esi
  001aa	5b		 pop	 ebx
  001ab	8b e5		 mov	 esp, ebp
  001ad	5d		 pop	 ebp
  001ae	c2 0c 00	 ret	 12			; 0000000cH
$L194941:

; 831  : 			_CATCH_ALL
; 832  : 			_Destroy(_Newvec, _Ptr);
; 833  : 			this->_Alval.deallocate(_Newvec, _Capacity);

  001b1	8b 45 10	 mov	 eax, DWORD PTR __Newvec$190222[ebp]
  001b4	50		 push	 eax
  001b5	e8 00 00 00 00	 call	 ??3@YAXPAX@Z		; operator delete
  001ba	83 c4 04	 add	 esp, 4
$L194943:

; 834  : 			_RERAISE;

  001bd	6a 00		 push	 0
  001bf	6a 00		 push	 0
  001c1	e8 00 00 00 00	 call	 __CxxThrowException@8
$L190220:

; 846  : 			}
; 847  : 		else if ((size_type)(_Mylast - _ITER_BASE(_Where)) < _Count)

  001c6	8b 4e 08	 mov	 ecx, DWORD PTR [esi+8]
  001c9	8b 5d 08	 mov	 ebx, DWORD PTR __Where$[ebp]
  001cc	8b d1		 mov	 edx, ecx
  001ce	2b d3		 sub	 edx, ebx
  001d0	b8 ab aa aa 2a	 mov	 eax, 715827883		; 2aaaaaabH
  001d5	f7 ea		 imul	 edx
  001d7	d1 fa		 sar	 edx, 1
  001d9	8b c2		 mov	 eax, edx
  001db	c1 e8 1f	 shr	 eax, 31			; 0000001fH
  001de	03 c2		 add	 eax, edx
  001e0	3b c7		 cmp	 eax, edi
  001e2	89 4d 10	 mov	 DWORD PTR tv398[ebp], ecx
  001e5	73 78		 jae	 SHORT $L190233

; 848  : 			{	// new stuff spills off end
; 849  : 			_Ucopy(_ITER_BASE(_Where), _Mylast,
; 850  : 				_ITER_BASE(_Where) + _Count);	// copy suffix

  001e7	8d 04 7f	 lea	 eax, DWORD PTR [edi+edi*2]
  001ea	c1 e0 02	 shl	 eax, 2
  001ed	89 45 08	 mov	 DWORD PTR tv414[ebp], eax
  001f0	8b 55 08	 mov	 edx, DWORD PTR __Cat$195117[ebp]
  001f3	52		 push	 edx
  001f4	56		 push	 esi
  001f5	03 c3		 add	 eax, ebx
  001f7	50		 push	 eax
  001f8	51		 push	 ecx
  001f9	53		 push	 ebx
  001fa	e8 00 00 00 00	 call	 ??$_Uninit_copy@PAU_FEEDENERGY@@PAU1@V?$allocator@U_FEEDENERGY@@@std@@@std@@YAPAU_FEEDENERGY@@PAU1@00AAV?$allocator@U_FEEDENERGY@@@0@U_Nonscalar_ptr_iterator_tag@0@@Z ; std::_Uninit_copy<_FEEDENERGY *,_FEEDENERGY *,std::allocator<_FEEDENERGY> >

; 851  : 
; 852  : 			_TRY_BEGIN
; 853  : 			_Ufill(_Mylast, _Count - (_Mylast - _ITER_BASE(_Where)),
; 854  : 				_Tmp);	// insert new stuff off end

  001ff	8b 4e 08	 mov	 ecx, DWORD PTR [esi+8]
  00202	83 c4 14	 add	 esp, 20			; 00000014H
  00205	8d 45 e4	 lea	 eax, DWORD PTR __Tmp$[ebp]
  00208	50		 push	 eax
  00209	8b d1		 mov	 edx, ecx
  0020b	2b d3		 sub	 edx, ebx
  0020d	b8 ab aa aa 2a	 mov	 eax, 715827883		; 2aaaaaabH
  00212	f7 ea		 imul	 edx
  00214	d1 fa		 sar	 edx, 1
  00216	8b c2		 mov	 eax, edx
  00218	c1 e8 1f	 shr	 eax, 31			; 0000001fH
  0021b	03 c2		 add	 eax, edx
  0021d	2b f8		 sub	 edi, eax
  0021f	57		 push	 edi
  00220	51		 push	 ecx
  00221	8b ce		 mov	 ecx, esi
  00223	c7 45 fc 02 00
	00 00		 mov	 DWORD PTR __$EHRec$[ebp+12], 2
  0022a	e8 00 00 00 00	 call	 ?_Ufill@?$vector@U_FEEDENERGY@@V?$allocator@U_FEEDENERGY@@@std@@@std@@IAEPAU_FEEDENERGY@@PAU3@IABU3@@Z ; std::vector<_FEEDENERGY,std::allocator<_FEEDENERGY> >::_Ufill

; 855  : 			_CATCH_ALL
; 856  : 			_Destroy(_ITER_BASE(_Where) + _Count, _Mylast + _Count);
; 857  : 			_RERAISE;
; 858  : 			_CATCH_END
; 859  : 
; 860  : 			_Mylast += _Count;

  0022f	8b 7e 08	 mov	 edi, DWORD PTR [esi+8]
  00232	8b 45 08	 mov	 eax, DWORD PTR tv414[ebp]
  00235	03 f8		 add	 edi, eax
  00237	89 7e 08	 mov	 DWORD PTR [esi+8], edi

; 861  : 			fill(_ITER_BASE(_Where), _Mylast - _Count,
; 862  : 				_Tmp);	// insert up to old end

  0023a	8d 4d e4	 lea	 ecx, DWORD PTR __Tmp$[ebp]
  0023d	8b f7		 mov	 esi, edi
  0023f	51		 push	 ecx
  00240	2b f0		 sub	 esi, eax
  00242	56		 push	 esi
  00243	53		 push	 ebx
  00244	e8 00 00 00 00	 call	 ??$fill@PAU_FEEDENERGY@@U1@@std@@YAXPAU_FEEDENERGY@@0ABU1@@Z ; std::fill<_FEEDENERGY *,_FEEDENERGY>
  00249	83 c4 0c	 add	 esp, 12			; 0000000cH

; 873  : 			}
; 874  : 		}

  0024c	8b 4d f4	 mov	 ecx, DWORD PTR __$EHRec$[ebp+4]
  0024f	64 89 0d 00 00
	00 00		 mov	 DWORD PTR fs:__except_list, ecx
  00256	5f		 pop	 edi
  00257	5e		 pop	 esi
  00258	5b		 pop	 ebx
  00259	8b e5		 mov	 esp, ebp
  0025b	5d		 pop	 ebp
  0025c	c2 0c 00	 ret	 12			; 0000000cH
$L190233:

; 863  : 			}
; 864  : 		else
; 865  : 			{	// new stuff can all be assigned
; 866  : 			pointer _Oldend = _Mylast;
; 867  : 			_Mylast = _Ucopy(_Oldend - _Count, _Oldend,
; 868  : 				_Mylast);	// copy suffix

  0025f	8d 3c 7f	 lea	 edi, DWORD PTR [edi+edi*2]
  00262	8b c1		 mov	 eax, ecx
  00264	c1 e7 02	 shl	 edi, 2
  00267	2b c7		 sub	 eax, edi
  00269	89 45 08	 mov	 DWORD PTR tv427[ebp], eax
  0026c	8b 55 08	 mov	 edx, DWORD PTR __Cat$195142[ebp]
  0026f	52		 push	 edx
  00270	56		 push	 esi
  00271	51		 push	 ecx
  00272	51		 push	 ecx
  00273	50		 push	 eax
  00274	e8 00 00 00 00	 call	 ??$_Uninit_copy@PAU_FEEDENERGY@@PAU1@V?$allocator@U_FEEDENERGY@@@std@@@std@@YAPAU_FEEDENERGY@@PAU1@00AAV?$allocator@U_FEEDENERGY@@@0@U_Nonscalar_ptr_iterator_tag@0@@Z ; std::_Uninit_copy<_FEEDENERGY *,_FEEDENERGY *,std::allocator<_FEEDENERGY> >

; 869  : 			copy_backward(_ITER_BASE(_Where), _Oldend - _Count,
; 870  : 				_Oldend);	// copy hole

  00279	8b 4d 10	 mov	 ecx, DWORD PTR tv398[ebp]
  0027c	8b 55 08	 mov	 edx, DWORD PTR tv427[ebp]
  0027f	89 46 08	 mov	 DWORD PTR [esi+8], eax
  00282	8b 45 08	 mov	 eax, DWORD PTR __Cat$195155[ebp]
  00285	50		 push	 eax
  00286	51		 push	 ecx
  00287	52		 push	 edx
  00288	53		 push	 ebx
  00289	e8 00 00 00 00	 call	 ??$_Copy_backward_opt@PAU_FEEDENERGY@@PAU1@@std@@YAPAU_FEEDENERGY@@PAU1@00U_Nonscalar_ptr_iterator_tag@0@@Z ; std::_Copy_backward_opt<_FEEDENERGY *,_FEEDENERGY *>

; 871  : 			fill(_ITER_BASE(_Where), _ITER_BASE(_Where) + _Count,
; 872  : 				_Tmp);	// insert into hole

  0028e	8d 45 e4	 lea	 eax, DWORD PTR __Tmp$[ebp]
  00291	50		 push	 eax
  00292	03 fb		 add	 edi, ebx
  00294	57		 push	 edi
  00295	53		 push	 ebx
  00296	e8 00 00 00 00	 call	 ??$fill@PAU_FEEDENERGY@@U1@@std@@YAXPAU_FEEDENERGY@@0ABU1@@Z ; std::fill<_FEEDENERGY *,_FEEDENERGY>
  0029b	83 c4 30	 add	 esp, 48			; 00000030H
$L190242:

; 873  : 			}
; 874  : 		}

  0029e	8b 4d f4	 mov	 ecx, DWORD PTR __$EHRec$[ebp+4]
  002a1	5f		 pop	 edi
  002a2	5e		 pop	 esi
  002a3	64 89 0d 00 00
	00 00		 mov	 DWORD PTR fs:__except_list, ecx
  002aa	5b		 pop	 ebx
  002ab	8b e5		 mov	 esp, ebp
  002ad	5d		 pop	 ebp
  002ae	c2 0c 00	 ret	 12			; 0000000cH
$L195162:
_TEXT	ENDS
;	COMDAT text$x
text$x	SEGMENT
__ehhandler$?_Insert_n@?$vector@U_FEEDENERGY@@V?$allocator@U_FEEDENERGY@@@std@@@std@@IAEXViterator@12@IABU_FEEDENERGY@@@Z:
  00000	b8 00 00 00 00	 mov	 eax, OFFSET FLAT:$T195160
  00005	e9 00 00 00 00	 jmp	 ___CxxFrameHandler
text$x	ENDS
?_Insert_n@?$vector@U_FEEDENERGY@@V?$allocator@U_FEEDENERGY@@@std@@@std@@IAEXViterator@12@IABU_FEEDENERGY@@@Z ENDP ; std::vector<_FEEDENERGY,std::allocator<_FEEDENERGY> >::_Insert_n
PUBLIC	?_Insert_n@?$vector@GV?$allocator@G@std@@@std@@IAEXViterator@12@IABG@Z ; std::vector<unsigned short,std::allocator<unsigned short> >::_Insert_n
; Function compile flags: /Ogty
;	COMDAT ?_Insert_n@?$vector@GV?$allocator@G@std@@@std@@IAEXViterator@12@IABG@Z
_TEXT	SEGMENT
__Newvec$190289 = -4					; size = 4
tv393 = 8						; size = 4
__Where$ = 8						; size = 4
tv382 = 12						; size = 4
__Count$ = 12						; size = 4
__Tmp$ = 16						; size = 2
__Val$ = 16						; size = 4
?_Insert_n@?$vector@GV?$allocator@G@std@@@std@@IAEXViterator@12@IABG@Z PROC NEAR ; std::vector<unsigned short,std::allocator<unsigned short> >::_Insert_n, COMDAT
; _this$ = ecx

; 809  : 		{	// insert _Count * _Val at _Where

  00000	51		 push	 ecx

; 810  : 		_Ty _Tmp = _Val;	// in case _Val is in sequence

  00001	8b 44 24 10	 mov	 eax, DWORD PTR __Val$[esp]
  00005	56		 push	 esi
  00006	8b f1		 mov	 esi, ecx

; 811  : 		size_type _Capacity = capacity();

  00008	8b 56 04	 mov	 edx, DWORD PTR [esi+4]
  0000b	33 c9		 xor	 ecx, ecx
  0000d	85 d2		 test	 edx, edx
  0000f	66 8b 08	 mov	 cx, WORD PTR [eax]
  00012	57		 push	 edi
  00013	89 4c 24 18	 mov	 DWORD PTR __Tmp$[esp+8], ecx
  00017	75 04		 jne	 SHORT $L195180
  00019	33 c0		 xor	 eax, eax
  0001b	eb 07		 jmp	 SHORT $L195181
$L195180:
  0001d	8b 46 0c	 mov	 eax, DWORD PTR [esi+12]
  00020	2b c2		 sub	 eax, edx
  00022	d1 f8		 sar	 eax, 1
$L195181:

; 812  : 
; 813  : 		if (_Count == 0)

  00024	8b 7c 24 14	 mov	 edi, DWORD PTR __Count$[esp+8]
  00028	85 ff		 test	 edi, edi
  0002a	0f 84 99 01 00
	00		 je	 $L190309

; 814  : 			;
; 815  : 		else if (max_size() - size() < _Count)

  00030	85 d2		 test	 edx, edx
  00032	75 04		 jne	 SHORT $L195204
  00034	33 c9		 xor	 ecx, ecx
  00036	eb 07		 jmp	 SHORT $L195205
$L195204:
  00038	8b 4e 08	 mov	 ecx, DWORD PTR [esi+8]
  0003b	2b ca		 sub	 ecx, edx
  0003d	d1 f9		 sar	 ecx, 1
$L195205:
  0003f	53		 push	 ebx
  00040	bb ff ff ff 7f	 mov	 ebx, 2147483647		; 7fffffffH
  00045	2b d9		 sub	 ebx, ecx
  00047	3b df		 cmp	 ebx, edi
  00049	73 07		 jae	 SHORT $L190285

; 816  : 			_Xlen();	// result too long

  0004b	8b ce		 mov	 ecx, esi
  0004d	e8 00 00 00 00	 call	 ?_Xlen@?$vector@GV?$allocator@G@std@@@std@@IBEXXZ ; std::vector<unsigned short,std::allocator<unsigned short> >::_Xlen
$L190285:

; 817  : 		else if (_Capacity < size() + _Count)

  00052	85 d2		 test	 edx, edx
  00054	75 04		 jne	 SHORT $L195211
  00056	33 c9		 xor	 ecx, ecx
  00058	eb 07		 jmp	 SHORT $L195212
$L195211:
  0005a	8b 4e 08	 mov	 ecx, DWORD PTR [esi+8]
  0005d	2b ca		 sub	 ecx, edx
  0005f	d1 f9		 sar	 ecx, 1
$L195212:
  00061	03 cf		 add	 ecx, edi
  00063	3b c1		 cmp	 eax, ecx
  00065	55		 push	 ebp
  00066	0f 83 cb 00 00
	00		 jae	 $L190287

; 818  : 			{	// not enough room, reallocate
; 819  : 			_Capacity = max_size() - _Capacity / 2 < _Capacity
; 820  : 				? 0 : _Capacity + _Capacity / 2;	// try to grow by 50%

  0006c	8b c8		 mov	 ecx, eax
  0006e	d1 e9		 shr	 ecx, 1
  00070	bb ff ff ff 7f	 mov	 ebx, 2147483647		; 7fffffffH
  00075	2b d9		 sub	 ebx, ecx
  00077	3b d8		 cmp	 ebx, eax
  00079	73 04		 jae	 SHORT $L195170
  0007b	33 c0		 xor	 eax, eax
  0007d	eb 02		 jmp	 SHORT $L195171
$L195170:
  0007f	03 c1		 add	 eax, ecx
$L195171:

; 821  : 			if (_Capacity < size() + _Count)

  00081	85 d2		 test	 edx, edx
  00083	75 04		 jne	 SHORT $L195234
  00085	33 c9		 xor	 ecx, ecx
  00087	eb 07		 jmp	 SHORT $L195235
$L195234:
  00089	8b 4e 08	 mov	 ecx, DWORD PTR [esi+8]
  0008c	2b ca		 sub	 ecx, edx
  0008e	d1 f9		 sar	 ecx, 1
$L195235:
  00090	03 cf		 add	 ecx, edi
  00092	3b c1		 cmp	 eax, ecx
  00094	73 11		 jae	 SHORT $L190288

; 822  : 				_Capacity = size() + _Count;

  00096	85 d2		 test	 edx, edx
  00098	75 04		 jne	 SHORT $L195241
  0009a	33 c0		 xor	 eax, eax
  0009c	eb 07		 jmp	 SHORT $L195242
$L195241:
  0009e	8b 46 08	 mov	 eax, DWORD PTR [esi+8]
  000a1	2b c2		 sub	 eax, edx
  000a3	d1 f8		 sar	 eax, 1
$L195242:
  000a5	03 c7		 add	 eax, edi
$L190288:

; 823  : 			pointer _Newvec = this->_Alval.allocate(_Capacity);

  000a7	03 c0		 add	 eax, eax
  000a9	50		 push	 eax
  000aa	89 44 24 20	 mov	 DWORD PTR tv382[esp+20], eax
  000ae	e8 00 00 00 00	 call	 ??2@YAPAXI@Z		; operator new

; 824  : 			pointer _Ptr = _Newvec;
; 825  : 
; 826  : 			_TRY_BEGIN
; 827  : 			_Ptr = _Ucopy(_Myfirst, _ITER_BASE(_Where),
; 828  : 				_Newvec);	// copy prefix

  000b3	8b 4e 04	 mov	 ecx, DWORD PTR [esi+4]
  000b6	8b 5c 24 1c	 mov	 ebx, DWORD PTR __Where$[esp+20]
  000ba	8b d0		 mov	 edx, eax
  000bc	8b c3		 mov	 eax, ebx
  000be	2b c1		 sub	 eax, ecx
  000c0	d1 f8		 sar	 eax, 1
  000c2	8d 2c 00	 lea	 ebp, DWORD PTR [eax+eax]
  000c5	55		 push	 ebp
  000c6	51		 push	 ecx
  000c7	52		 push	 edx
  000c8	89 54 24 20	 mov	 DWORD PTR __Newvec$190289[esp+36], edx
  000cc	e8 00 00 00 00	 call	 _memmove
  000d1	83 c4 10	 add	 esp, 16			; 00000010H

; 829  : 			_Ptr = _Ufill(_Ptr, _Count, _Tmp);	// add new stuff

  000d4	8d 54 24 20	 lea	 edx, DWORD PTR __Tmp$[esp+16]
  000d8	52		 push	 edx
  000d9	03 c5		 add	 eax, ebp
  000db	57		 push	 edi
  000dc	50		 push	 eax
  000dd	8b ce		 mov	 ecx, esi
  000df	e8 00 00 00 00	 call	 ?_Ufill@?$vector@GV?$allocator@G@std@@@std@@IAEPAGPAGIABG@Z ; std::vector<unsigned short,std::allocator<unsigned short> >::_Ufill

; 830  : 			_Ucopy(_ITER_BASE(_Where), _Mylast, _Ptr);	// copy suffix

  000e4	8b 4e 08	 mov	 ecx, DWORD PTR [esi+8]
  000e7	2b cb		 sub	 ecx, ebx
  000e9	d1 f9		 sar	 ecx, 1
  000eb	d1 e1		 shl	 ecx, 1
  000ed	51		 push	 ecx
  000ee	53		 push	 ebx
  000ef	50		 push	 eax
  000f0	e8 00 00 00 00	 call	 _memmove

; 831  : 			_CATCH_ALL
; 832  : 			_Destroy(_Newvec, _Ptr);
; 833  : 			this->_Alval.deallocate(_Newvec, _Capacity);
; 834  : 			_RERAISE;
; 835  : 			_CATCH_END
; 836  : 
; 837  : 			_Count += size();

  000f5	8b 46 04	 mov	 eax, DWORD PTR [esi+4]
  000f8	83 c4 0c	 add	 esp, 12			; 0000000cH
  000fb	85 c0		 test	 eax, eax
  000fd	75 04		 jne	 SHORT $L195323
  000ff	33 c9		 xor	 ecx, ecx
  00101	eb 07		 jmp	 SHORT $L195324
$L195323:
  00103	8b 4e 08	 mov	 ecx, DWORD PTR [esi+8]
  00106	2b c8		 sub	 ecx, eax
  00108	d1 f9		 sar	 ecx, 1
$L195324:
  0010a	03 f9		 add	 edi, ecx

; 838  : 			if (_Myfirst != 0)

  0010c	85 c0		 test	 eax, eax
  0010e	74 09		 je	 SHORT $L195326

; 839  : 				{	// destroy and deallocate old array
; 840  : 				_Destroy(_Myfirst, _Mylast);
; 841  : 				this->_Alval.deallocate(_Myfirst, _Myend - _Myfirst);

  00110	50		 push	 eax
  00111	e8 00 00 00 00	 call	 ??3@YAXPAX@Z		; operator delete
  00116	83 c4 04	 add	 esp, 4
$L195326:

; 842  : 				}
; 843  : 			_Myend = _Newvec + _Capacity;

  00119	8b 44 24 10	 mov	 eax, DWORD PTR __Newvec$190289[esp+20]
  0011d	8b 54 24 1c	 mov	 edx, DWORD PTR tv382[esp+16]
  00121	5d		 pop	 ebp
  00122	5b		 pop	 ebx

; 844  : 			_Mylast = _Newvec + _Count;

  00123	8d 0c 78	 lea	 ecx, DWORD PTR [eax+edi*2]
  00126	03 d0		 add	 edx, eax
  00128	5f		 pop	 edi
  00129	89 56 0c	 mov	 DWORD PTR [esi+12], edx
  0012c	89 4e 08	 mov	 DWORD PTR [esi+8], ecx

; 845  : 			_Myfirst = _Newvec;

  0012f	89 46 04	 mov	 DWORD PTR [esi+4], eax
  00132	5e		 pop	 esi

; 873  : 			}
; 874  : 		}

  00133	59		 pop	 ecx
  00134	c2 0c 00	 ret	 12			; 0000000cH
$L190287:

; 846  : 			}
; 847  : 		else if ((size_type)(_Mylast - _ITER_BASE(_Where)) < _Count)

  00137	8b 6e 08	 mov	 ebp, DWORD PTR [esi+8]
  0013a	8b 5c 24 18	 mov	 ebx, DWORD PTR __Where$[esp+16]
  0013e	8b d5		 mov	 edx, ebp
  00140	2b d3		 sub	 edx, ebx
  00142	d1 fa		 sar	 edx, 1
  00144	3b d7		 cmp	 edx, edi

; 848  : 			{	// new stuff spills off end
; 849  : 			_Ucopy(_ITER_BASE(_Where), _Mylast,
; 850  : 				_ITER_BASE(_Where) + _Count);	// copy suffix

  00146	8d 04 3f	 lea	 eax, DWORD PTR [edi+edi]
  00149	8b ce		 mov	 ecx, esi
  0014b	89 44 24 18	 mov	 DWORD PTR tv393[esp+16], eax
  0014f	73 4a		 jae	 SHORT $L190300
  00151	03 c3		 add	 eax, ebx
  00153	50		 push	 eax
  00154	55		 push	 ebp
  00155	53		 push	 ebx
  00156	e8 00 00 00 00	 call	 ??$_Ucopy@PAG@?$vector@GV?$allocator@G@std@@@std@@IAEPAGPAG00@Z ; std::vector<unsigned short,std::allocator<unsigned short> >::_Ucopy<unsigned short *>

; 851  : 
; 852  : 			_TRY_BEGIN
; 853  : 			_Ufill(_Mylast, _Count - (_Mylast - _ITER_BASE(_Where)),
; 854  : 				_Tmp);	// insert new stuff off end

  0015b	8b 46 08	 mov	 eax, DWORD PTR [esi+8]
  0015e	8b d0		 mov	 edx, eax
  00160	2b d3		 sub	 edx, ebx
  00162	8d 4c 24 20	 lea	 ecx, DWORD PTR __Tmp$[esp+16]
  00166	51		 push	 ecx
  00167	d1 fa		 sar	 edx, 1
  00169	2b fa		 sub	 edi, edx
  0016b	57		 push	 edi
  0016c	50		 push	 eax
  0016d	8b ce		 mov	 ecx, esi
  0016f	e8 00 00 00 00	 call	 ?_Ufill@?$vector@GV?$allocator@G@std@@@std@@IAEPAGPAGIABG@Z ; std::vector<unsigned short,std::allocator<unsigned short> >::_Ufill

; 855  : 			_CATCH_ALL
; 856  : 			_Destroy(_ITER_BASE(_Where) + _Count, _Mylast + _Count);
; 857  : 			_RERAISE;
; 858  : 			_CATCH_END
; 859  : 
; 860  : 			_Mylast += _Count;

  00174	8b 4e 08	 mov	 ecx, DWORD PTR [esi+8]
  00177	8b 44 24 18	 mov	 eax, DWORD PTR tv393[esp+16]
  0017b	03 c8		 add	 ecx, eax
  0017d	89 4e 08	 mov	 DWORD PTR [esi+8], ecx
  00180	8b f1		 mov	 esi, ecx

; 861  : 			fill(_ITER_BASE(_Where), _Mylast - _Count,
; 862  : 				_Tmp);	// insert up to old end

  00182	8d 4c 24 20	 lea	 ecx, DWORD PTR __Tmp$[esp+16]
  00186	51		 push	 ecx
  00187	2b f0		 sub	 esi, eax
  00189	56		 push	 esi
  0018a	53		 push	 ebx
  0018b	e8 00 00 00 00	 call	 ??$fill@PAGG@std@@YAXPAG0ABG@Z ; std::fill<unsigned short *,unsigned short>
  00190	83 c4 0c	 add	 esp, 12			; 0000000cH
  00193	5d		 pop	 ebp
  00194	5b		 pop	 ebx
  00195	5f		 pop	 edi
  00196	5e		 pop	 esi

; 873  : 			}
; 874  : 		}

  00197	59		 pop	 ecx
  00198	c2 0c 00	 ret	 12			; 0000000cH
$L190300:

; 863  : 			}
; 864  : 		else
; 865  : 			{	// new stuff can all be assigned
; 866  : 			pointer _Oldend = _Mylast;
; 867  : 			_Mylast = _Ucopy(_Oldend - _Count, _Oldend,
; 868  : 				_Mylast);	// copy suffix

  0019b	55		 push	 ebp
  0019c	8b fd		 mov	 edi, ebp
  0019e	2b f8		 sub	 edi, eax
  001a0	55		 push	 ebp
  001a1	57		 push	 edi
  001a2	e8 00 00 00 00	 call	 ??$_Ucopy@PAG@?$vector@GV?$allocator@G@std@@@std@@IAEPAGPAG00@Z ; std::vector<unsigned short,std::allocator<unsigned short> >::_Ucopy<unsigned short *>

; 869  : 			copy_backward(_ITER_BASE(_Where), _Oldend - _Count,
; 870  : 				_Oldend);	// copy hole

  001a7	55		 push	 ebp
  001a8	57		 push	 edi
  001a9	53		 push	 ebx
  001aa	89 46 08	 mov	 DWORD PTR [esi+8], eax
  001ad	e8 00 00 00 00	 call	 ??$copy_backward@PAGPAG@std@@YAPAGPAG00@Z ; std::copy_backward<unsigned short *,unsigned short *>

; 871  : 			fill(_ITER_BASE(_Where), _ITER_BASE(_Where) + _Count,
; 872  : 				_Tmp);	// insert into hole

  001b2	8b 44 24 24	 mov	 eax, DWORD PTR tv393[esp+28]
  001b6	8d 54 24 2c	 lea	 edx, DWORD PTR __Tmp$[esp+28]
  001ba	52		 push	 edx
  001bb	03 c3		 add	 eax, ebx
  001bd	50		 push	 eax
  001be	53		 push	 ebx
  001bf	e8 00 00 00 00	 call	 ??$fill@PAGG@std@@YAXPAG0ABG@Z ; std::fill<unsigned short *,unsigned short>
  001c4	83 c4 18	 add	 esp, 24			; 00000018H
  001c7	5d		 pop	 ebp
  001c8	5b		 pop	 ebx
$L190309:
  001c9	5f		 pop	 edi
  001ca	5e		 pop	 esi

; 873  : 			}
; 874  : 		}

  001cb	59		 pop	 ecx
  001cc	c2 0c 00	 ret	 12			; 0000000cH
$L195334:
?_Insert_n@?$vector@GV?$allocator@G@std@@@std@@IAEXViterator@12@IABG@Z ENDP ; std::vector<unsigned short,std::allocator<unsigned short> >::_Insert_n
_TEXT	ENDS
PUBLIC	?_Insert_n@?$vector@U_TransformStuffComponent@@V?$allocator@U_TransformStuffComponent@@@std@@@std@@IAEXViterator@12@IABU_TransformStuffComponent@@@Z ; std::vector<_TransformStuffComponent,std::allocator<_TransformStuffComponent> >::_Insert_n
;	COMDAT xdata$x
; File c:\program files\microsoft visual studio .net 2003\vc7\include\xutility
xdata$x	SEGMENT
$T195555 DD	0ffffffffH
	DD	00H
	DD	0ffffffffH
	DD	00H
	DD	0ffffffffH
	DD	00H
	DD	0ffffffffH
	DD	00H
$T195557 DD	00H
	DD	00H
	DD	00H
	DD	FLAT:$L195340
$T195558 DD	00H
	DD	00H
	DD	00H
	DD	FLAT:$L195342
$T195556 DD	00H
	DD	00H
	DD	01H
	DD	01H
	DD	FLAT:$T195557
	DD	02H
	DD	02H
	DD	03H
	DD	01H
	DD	FLAT:$T195558
$T195552 DD	019930520H
	DD	04H
	DD	FLAT:$T195555
	DD	02H
	DD	FLAT:$T195556
	DD	2 DUP(00H)
; Function compile flags: /Ogty
; File c:\program files\microsoft visual studio .net 2003\vc7\include\vector
xdata$x	ENDS
;	COMDAT ?_Insert_n@?$vector@U_TransformStuffComponent@@V?$allocator@U_TransformStuffComponent@@@std@@@std@@IAEXViterator@12@IABU_TransformStuffComponent@@@Z
_TEXT	SEGMENT
__Tmp$ = -28						; size = 8
__Newvec$190344 = -20					; size = 4
__$EHRec$ = -16						; size = 16
tv446 = 8						; size = 4
__Cat$195524 = 8					; size = 1
__Cat$195462 = 8					; size = 1
__Cat$195485 = 8					; size = 1
__Cat$195439 = 8					; size = 1
__Where$ = 8						; size = 4
tv445 = 12						; size = 4
__Count$ = 12						; size = 4
tv430 = 16						; size = 4
tv220 = 16						; size = 4
__Val$ = 16						; size = 4
?_Insert_n@?$vector@U_TransformStuffComponent@@V?$allocator@U_TransformStuffComponent@@@std@@@std@@IAEXViterator@12@IABU_TransformStuffComponent@@@Z PROC NEAR ; std::vector<_TransformStuffComponent,std::allocator<_TransformStuffComponent> >::_Insert_n, COMDAT
; _this$ = ecx

; 809  : 		{	// insert _Count * _Val at _Where

  00000	55		 push	 ebp
  00001	8b ec		 mov	 ebp, esp
  00003	6a ff		 push	 -1
  00005	68 00 00 00 00	 push	 __ehhandler$?_Insert_n@?$vector@U_TransformStuffComponent@@V?$allocator@U_TransformStuffComponent@@@std@@@std@@IAEXViterator@12@IABU_TransformStuffComponent@@@Z
  0000a	64 a1 00 00 00
	00		 mov	 eax, DWORD PTR fs:__except_list
  00010	50		 push	 eax
  00011	64 89 25 00 00
	00 00		 mov	 DWORD PTR fs:__except_list, esp
  00018	83 ec 10	 sub	 esp, 16			; 00000010H

; 810  : 		_Ty _Tmp = _Val;	// in case _Val is in sequence

  0001b	8b 45 10	 mov	 eax, DWORD PTR __Val$[ebp]
  0001e	8b 50 04	 mov	 edx, DWORD PTR [eax+4]
  00021	53		 push	 ebx
  00022	56		 push	 esi
  00023	8b f1		 mov	 esi, ecx
  00025	8b 08		 mov	 ecx, DWORD PTR [eax]
  00027	89 4d e4	 mov	 DWORD PTR __Tmp$[ebp], ecx

; 811  : 		size_type _Capacity = capacity();

  0002a	8b 4e 04	 mov	 ecx, DWORD PTR [esi+4]
  0002d	85 c9		 test	 ecx, ecx
  0002f	57		 push	 edi
  00030	89 65 f0	 mov	 DWORD PTR __$EHRec$[ebp], esp
  00033	89 55 e8	 mov	 DWORD PTR __Tmp$[ebp+4], edx
  00036	75 04		 jne	 SHORT $L195348
  00038	33 c0		 xor	 eax, eax
  0003a	eb 08		 jmp	 SHORT $L195349
$L195348:
  0003c	8b 46 0c	 mov	 eax, DWORD PTR [esi+12]
  0003f	2b c1		 sub	 eax, ecx
  00041	c1 f8 03	 sar	 eax, 3
$L195349:

; 812  : 
; 813  : 		if (_Count == 0)

  00044	8b 5d 0c	 mov	 ebx, DWORD PTR __Count$[ebp]
  00047	85 db		 test	 ebx, ebx
  00049	0f 84 e1 01 00
	00		 je	 $L190364

; 814  : 			;
; 815  : 		else if (max_size() - size() < _Count)

  0004f	85 c9		 test	 ecx, ecx
  00051	75 04		 jne	 SHORT $L195371
  00053	33 d2		 xor	 edx, edx
  00055	eb 08		 jmp	 SHORT $L195372
$L195371:
  00057	8b 56 08	 mov	 edx, DWORD PTR [esi+8]
  0005a	2b d1		 sub	 edx, ecx
  0005c	c1 fa 03	 sar	 edx, 3
$L195372:
  0005f	bf ff ff ff 1f	 mov	 edi, 536870911		; 1fffffffH
  00064	2b fa		 sub	 edi, edx
  00066	3b fb		 cmp	 edi, ebx
  00068	73 07		 jae	 SHORT $L190340

; 816  : 			_Xlen();	// result too long

  0006a	8b ce		 mov	 ecx, esi
  0006c	e8 00 00 00 00	 call	 ?_Xlen@?$vector@U_TransformStuffComponent@@V?$allocator@U_TransformStuffComponent@@@std@@@std@@IBEXXZ ; std::vector<_TransformStuffComponent,std::allocator<_TransformStuffComponent> >::_Xlen
$L190340:

; 817  : 		else if (_Capacity < size() + _Count)

  00071	85 c9		 test	 ecx, ecx
  00073	75 04		 jne	 SHORT $L195378
  00075	33 d2		 xor	 edx, edx
  00077	eb 08		 jmp	 SHORT $L195379
$L195378:
  00079	8b 56 08	 mov	 edx, DWORD PTR [esi+8]
  0007c	2b d1		 sub	 edx, ecx
  0007e	c1 fa 03	 sar	 edx, 3
$L195379:
  00081	03 d3		 add	 edx, ebx
  00083	3b c2		 cmp	 eax, edx
  00085	0f 83 f8 00 00
	00		 jae	 $L190342

; 818  : 			{	// not enough room, reallocate
; 819  : 			_Capacity = max_size() - _Capacity / 2 < _Capacity
; 820  : 				? 0 : _Capacity + _Capacity / 2;	// try to grow by 50%

  0008b	8b d0		 mov	 edx, eax
  0008d	d1 ea		 shr	 edx, 1
  0008f	bf ff ff ff 1f	 mov	 edi, 536870911		; 1fffffffH
  00094	2b fa		 sub	 edi, edx
  00096	3b f8		 cmp	 edi, eax
  00098	73 04		 jae	 SHORT $L195337
  0009a	33 c0		 xor	 eax, eax
  0009c	eb 02		 jmp	 SHORT $L195338
$L195337:
  0009e	03 c2		 add	 eax, edx
$L195338:

; 821  : 			if (_Capacity < size() + _Count)

  000a0	85 c9		 test	 ecx, ecx
  000a2	75 04		 jne	 SHORT $L195401
  000a4	33 d2		 xor	 edx, edx
  000a6	eb 08		 jmp	 SHORT $L195402
$L195401:
  000a8	8b 56 08	 mov	 edx, DWORD PTR [esi+8]
  000ab	2b d1		 sub	 edx, ecx
  000ad	c1 fa 03	 sar	 edx, 3
$L195402:
  000b0	03 d3		 add	 edx, ebx
  000b2	3b c2		 cmp	 eax, edx
  000b4	73 12		 jae	 SHORT $L190343

; 822  : 				_Capacity = size() + _Count;

  000b6	85 c9		 test	 ecx, ecx
  000b8	75 04		 jne	 SHORT $L195408
  000ba	33 c0		 xor	 eax, eax
  000bc	eb 08		 jmp	 SHORT $L195409
$L195408:
  000be	8b 46 08	 mov	 eax, DWORD PTR [esi+8]
  000c1	2b c1		 sub	 eax, ecx
  000c3	c1 f8 03	 sar	 eax, 3
$L195409:
  000c6	03 c3		 add	 eax, ebx
$L190343:

; 823  : 			pointer _Newvec = this->_Alval.allocate(_Capacity);

  000c8	c1 e0 03	 shl	 eax, 3
  000cb	50		 push	 eax
  000cc	89 45 0c	 mov	 DWORD PTR tv445[ebp], eax
  000cf	e8 00 00 00 00	 call	 ??2@YAPAXI@Z		; operator new

; 824  : 			pointer _Ptr = _Newvec;
; 825  : 
; 826  : 			_TRY_BEGIN
; 827  : 			_Ptr = _Ucopy(_Myfirst, _ITER_BASE(_Where),
; 828  : 				_Newvec);	// copy prefix

  000d4	8b 4d 08	 mov	 ecx, DWORD PTR __Cat$195439[ebp]
  000d7	8b 55 08	 mov	 edx, DWORD PTR __Where$[ebp]
  000da	51		 push	 ecx
  000db	8b f8		 mov	 edi, eax
  000dd	8b 46 04	 mov	 eax, DWORD PTR [esi+4]
  000e0	56		 push	 esi
  000e1	57		 push	 edi
  000e2	52		 push	 edx
  000e3	50		 push	 eax
  000e4	89 7d ec	 mov	 DWORD PTR __Newvec$190344[ebp], edi
  000e7	c7 45 fc 00 00
	00 00		 mov	 DWORD PTR __$EHRec$[ebp+12], 0
  000ee	e8 00 00 00 00	 call	 ??$_Uninit_copy@PAU_TransformStuffComponent@@PAU1@V?$allocator@U_TransformStuffComponent@@@std@@@std@@YAPAU_TransformStuffComponent@@PAU1@00AAV?$allocator@U_TransformStuffComponent@@@0@U_Nonscalar_ptr_iterator_tag@0@@Z ; std::_Uninit_copy<_TransformStuffComponent *,_TransformStuffComponent *,std::allocator<_TransformStuffComponent> >

; 829  : 			_Ptr = _Ufill(_Ptr, _Count, _Tmp);	// add new stuff

  000f3	8b 4d 08	 mov	 ecx, DWORD PTR __Cat$195462[ebp]
  000f6	83 c4 18	 add	 esp, 24			; 00000018H
  000f9	51		 push	 ecx
  000fa	56		 push	 esi
  000fb	8d 55 e4	 lea	 edx, DWORD PTR __Tmp$[ebp]
  000fe	52		 push	 edx
  000ff	53		 push	 ebx
  00100	50		 push	 eax
  00101	89 45 10	 mov	 DWORD PTR tv220[ebp], eax
  00104	e8 00 00 00 00	 call	 ??$_Uninit_fill_n@PAU_TransformStuffComponent@@IU1@V?$allocator@U_TransformStuffComponent@@@std@@@std@@YAXPAU_TransformStuffComponent@@IABU1@AAV?$allocator@U_TransformStuffComponent@@@0@U_Nonscalar_ptr_iterator_tag@0@@Z ; std::_Uninit_fill_n<_TransformStuffComponent *,unsigned int,_TransformStuffComponent,std::allocator<_TransformStuffComponent> >

; 830  : 			_Ucopy(_ITER_BASE(_Where), _Mylast, _Ptr);	// copy suffix

  00109	8b 55 08	 mov	 edx, DWORD PTR __Cat$195485[ebp]
  0010c	8b 45 10	 mov	 eax, DWORD PTR tv220[ebp]
  0010f	8b 4e 08	 mov	 ecx, DWORD PTR [esi+8]
  00112	83 c4 14	 add	 esp, 20			; 00000014H
  00115	52		 push	 edx
  00116	8d 04 d8	 lea	 eax, DWORD PTR [eax+ebx*8]
  00119	56		 push	 esi
  0011a	50		 push	 eax
  0011b	8b 45 08	 mov	 eax, DWORD PTR __Where$[ebp]
  0011e	51		 push	 ecx
  0011f	50		 push	 eax
  00120	e8 00 00 00 00	 call	 ??$_Uninit_copy@PAU_TransformStuffComponent@@PAU1@V?$allocator@U_TransformStuffComponent@@@std@@@std@@YAPAU_TransformStuffComponent@@PAU1@00AAV?$allocator@U_TransformStuffComponent@@@0@U_Nonscalar_ptr_iterator_tag@0@@Z ; std::_Uninit_copy<_TransformStuffComponent *,_TransformStuffComponent *,std::allocator<_TransformStuffComponent> >

; 835  : 			_CATCH_END
; 836  : 
; 837  : 			_Count += size();

  00125	8b 4e 04	 mov	 ecx, DWORD PTR [esi+4]
  00128	83 c4 14	 add	 esp, 20			; 00000014H
  0012b	85 c9		 test	 ecx, ecx
  0012d	75 04		 jne	 SHORT $L195496
  0012f	33 c0		 xor	 eax, eax
  00131	eb 08		 jmp	 SHORT $L195497
$L195496:
  00133	8b 46 08	 mov	 eax, DWORD PTR [esi+8]
  00136	2b c1		 sub	 eax, ecx
  00138	c1 f8 03	 sar	 eax, 3
$L195497:
  0013b	03 d8		 add	 ebx, eax

; 838  : 			if (_Myfirst != 0)

  0013d	85 c9		 test	 ecx, ecx
  0013f	74 09		 je	 SHORT $L195500

; 839  : 				{	// destroy and deallocate old array
; 840  : 				_Destroy(_Myfirst, _Mylast);
; 841  : 				this->_Alval.deallocate(_Myfirst, _Myend - _Myfirst);

  00141	51		 push	 ecx
  00142	e8 00 00 00 00	 call	 ??3@YAXPAX@Z		; operator delete
  00147	83 c4 04	 add	 esp, 4
$L195500:

; 842  : 				}
; 843  : 			_Myend = _Newvec + _Capacity;

  0014a	8b 4d 0c	 mov	 ecx, DWORD PTR tv445[ebp]
  0014d	03 cf		 add	 ecx, edi

; 844  : 			_Mylast = _Newvec + _Count;

  0014f	8d 14 df	 lea	 edx, DWORD PTR [edi+ebx*8]
  00152	89 4e 0c	 mov	 DWORD PTR [esi+12], ecx
  00155	89 56 08	 mov	 DWORD PTR [esi+8], edx

; 845  : 			_Myfirst = _Newvec;

  00158	89 7e 04	 mov	 DWORD PTR [esi+4], edi

; 873  : 			}
; 874  : 		}

  0015b	8b 4d f4	 mov	 ecx, DWORD PTR __$EHRec$[ebp+4]
  0015e	64 89 0d 00 00
	00 00		 mov	 DWORD PTR fs:__except_list, ecx
  00165	5f		 pop	 edi
  00166	5e		 pop	 esi
  00167	5b		 pop	 ebx
  00168	8b e5		 mov	 esp, ebp
  0016a	5d		 pop	 ebp
  0016b	c2 0c 00	 ret	 12			; 0000000cH
$L195340:

; 831  : 			_CATCH_ALL
; 832  : 			_Destroy(_Newvec, _Ptr);
; 833  : 			this->_Alval.deallocate(_Newvec, _Capacity);

  0016e	8b 45 ec	 mov	 eax, DWORD PTR __Newvec$190344[ebp]
  00171	50		 push	 eax
  00172	e8 00 00 00 00	 call	 ??3@YAXPAX@Z		; operator delete
  00177	83 c4 04	 add	 esp, 4
$L195342:

; 834  : 			_RERAISE;

  0017a	6a 00		 push	 0
  0017c	6a 00		 push	 0
  0017e	e8 00 00 00 00	 call	 __CxxThrowException@8
$L190342:

; 846  : 			}
; 847  : 		else if ((size_type)(_Mylast - _ITER_BASE(_Where)) < _Count)

  00183	8b 46 08	 mov	 eax, DWORD PTR [esi+8]
  00186	8b 7d 08	 mov	 edi, DWORD PTR __Where$[ebp]
  00189	8b c8		 mov	 ecx, eax
  0018b	2b cf		 sub	 ecx, edi
  0018d	c1 f9 03	 sar	 ecx, 3
  00190	3b cb		 cmp	 ecx, ebx

; 848  : 			{	// new stuff spills off end
; 849  : 			_Ucopy(_ITER_BASE(_Where), _Mylast,
; 850  : 				_ITER_BASE(_Where) + _Count);	// copy suffix

  00192	8d 0c dd 00 00
	00 00		 lea	 ecx, DWORD PTR [ebx*8]
  00199	89 4d 08	 mov	 DWORD PTR tv446[ebp], ecx
  0019c	8b 55 08	 mov	 edx, DWORD PTR __Cat$195524[ebp]
  0019f	52		 push	 edx
  001a0	89 45 10	 mov	 DWORD PTR tv430[ebp], eax
  001a3	56		 push	 esi
  001a4	73 5d		 jae	 SHORT $L190355
  001a6	03 cf		 add	 ecx, edi
  001a8	51		 push	 ecx
  001a9	50		 push	 eax
  001aa	57		 push	 edi
  001ab	e8 00 00 00 00	 call	 ??$_Uninit_copy@PAU_TransformStuffComponent@@PAU1@V?$allocator@U_TransformStuffComponent@@@std@@@std@@YAPAU_TransformStuffComponent@@PAU1@00AAV?$allocator@U_TransformStuffComponent@@@0@U_Nonscalar_ptr_iterator_tag@0@@Z ; std::_Uninit_copy<_TransformStuffComponent *,_TransformStuffComponent *,std::allocator<_TransformStuffComponent> >

; 851  : 
; 852  : 			_TRY_BEGIN
; 853  : 			_Ufill(_Mylast, _Count - (_Mylast - _ITER_BASE(_Where)),
; 854  : 				_Tmp);	// insert new stuff off end

  001b0	8b 46 08	 mov	 eax, DWORD PTR [esi+8]
  001b3	8b d0		 mov	 edx, eax
  001b5	83 c4 14	 add	 esp, 20			; 00000014H
  001b8	2b d7		 sub	 edx, edi
  001ba	8d 4d e4	 lea	 ecx, DWORD PTR __Tmp$[ebp]
  001bd	51		 push	 ecx
  001be	c1 fa 03	 sar	 edx, 3
  001c1	2b da		 sub	 ebx, edx
  001c3	53		 push	 ebx
  001c4	50		 push	 eax
  001c5	8b ce		 mov	 ecx, esi
  001c7	c7 45 fc 02 00
	00 00		 mov	 DWORD PTR __$EHRec$[ebp+12], 2
  001ce	e8 00 00 00 00	 call	 ?_Ufill@?$vector@U_TransformStuffComponent@@V?$allocator@U_TransformStuffComponent@@@std@@@std@@IAEPAU_TransformStuffComponent@@PAU3@IABU3@@Z ; std::vector<_TransformStuffComponent,std::allocator<_TransformStuffComponent> >::_Ufill

; 855  : 			_CATCH_ALL
; 856  : 			_Destroy(_ITER_BASE(_Where) + _Count, _Mylast + _Count);
; 857  : 			_RERAISE;
; 858  : 			_CATCH_END
; 859  : 
; 860  : 			_Mylast += _Count;

  001d3	8b 5e 08	 mov	 ebx, DWORD PTR [esi+8]
  001d6	8b 45 08	 mov	 eax, DWORD PTR tv446[ebp]
  001d9	03 d8		 add	 ebx, eax
  001db	89 5e 08	 mov	 DWORD PTR [esi+8], ebx

; 861  : 			fill(_ITER_BASE(_Where), _Mylast - _Count,
; 862  : 				_Tmp);	// insert up to old end

  001de	8d 4d e4	 lea	 ecx, DWORD PTR __Tmp$[ebp]
  001e1	8b f3		 mov	 esi, ebx
  001e3	51		 push	 ecx
  001e4	2b f0		 sub	 esi, eax
  001e6	56		 push	 esi
  001e7	57		 push	 edi
  001e8	e8 00 00 00 00	 call	 ??$fill@PAU_TransformStuffComponent@@U1@@std@@YAXPAU_TransformStuffComponent@@0ABU1@@Z ; std::fill<_TransformStuffComponent *,_TransformStuffComponent>
  001ed	83 c4 0c	 add	 esp, 12			; 0000000cH

; 873  : 			}
; 874  : 		}

  001f0	8b 4d f4	 mov	 ecx, DWORD PTR __$EHRec$[ebp+4]
  001f3	64 89 0d 00 00
	00 00		 mov	 DWORD PTR fs:__except_list, ecx
  001fa	5f		 pop	 edi
  001fb	5e		 pop	 esi
  001fc	5b		 pop	 ebx
  001fd	8b e5		 mov	 esp, ebp
  001ff	5d		 pop	 ebp
  00200	c2 0c 00	 ret	 12			; 0000000cH
$L190355:

; 863  : 			}
; 864  : 		else
; 865  : 			{	// new stuff can all be assigned
; 866  : 			pointer _Oldend = _Mylast;
; 867  : 			_Mylast = _Ucopy(_Oldend - _Count, _Oldend,
; 868  : 				_Mylast);	// copy suffix

  00203	50		 push	 eax
  00204	8b d8		 mov	 ebx, eax
  00206	2b d9		 sub	 ebx, ecx
  00208	50		 push	 eax
  00209	53		 push	 ebx
  0020a	e8 00 00 00 00	 call	 ??$_Uninit_copy@PAU_TransformStuffComponent@@PAU1@V?$allocator@U_TransformStuffComponent@@@std@@@std@@YAPAU_TransformStuffComponent@@PAU1@00AAV?$allocator@U_TransformStuffComponent@@@0@U_Nonscalar_ptr_iterator_tag@0@@Z ; std::_Uninit_copy<_TransformStuffComponent *,_TransformStuffComponent *,std::allocator<_TransformStuffComponent> >
  0020f	89 46 08	 mov	 DWORD PTR [esi+8], eax

; 869  : 			copy_backward(_ITER_BASE(_Where), _Oldend - _Count,
; 870  : 				_Oldend);	// copy hole

  00212	8b 45 10	 mov	 eax, DWORD PTR tv430[ebp]
  00215	50		 push	 eax
  00216	53		 push	 ebx
  00217	57		 push	 edi
  00218	e8 00 00 00 00	 call	 ??$copy_backward@PAU_TransformStuffComponent@@PAU1@@std@@YAPAU_TransformStuffComponent@@PAU1@00@Z ; std::copy_backward<_TransformStuffComponent *,_TransformStuffComponent *>

; 871  : 			fill(_ITER_BASE(_Where), _ITER_BASE(_Where) + _Count,
; 872  : 				_Tmp);	// insert into hole

  0021d	8b 55 08	 mov	 edx, DWORD PTR tv446[ebp]
  00220	8d 4d e4	 lea	 ecx, DWORD PTR __Tmp$[ebp]
  00223	51		 push	 ecx
  00224	03 d7		 add	 edx, edi
  00226	52		 push	 edx
  00227	57		 push	 edi
  00228	e8 00 00 00 00	 call	 ??$fill@PAU_TransformStuffComponent@@U1@@std@@YAXPAU_TransformStuffComponent@@0ABU1@@Z ; std::fill<_TransformStuffComponent *,_TransformStuffComponent>
  0022d	83 c4 2c	 add	 esp, 44			; 0000002cH
$L190364:

; 873  : 			}
; 874  : 		}

  00230	8b 4d f4	 mov	 ecx, DWORD PTR __$EHRec$[ebp+4]
  00233	5f		 pop	 edi
  00234	5e		 pop	 esi
  00235	64 89 0d 00 00
	00 00		 mov	 DWORD PTR fs:__except_list, ecx
  0023c	5b		 pop	 ebx
  0023d	8b e5		 mov	 esp, ebp
  0023f	5d		 pop	 ebp
  00240	c2 0c 00	 ret	 12			; 0000000cH
$L195554:
_TEXT	ENDS
;	COMDAT text$x
text$x	SEGMENT
__ehhandler$?_Insert_n@?$vector@U_TransformStuffComponent@@V?$allocator@U_TransformStuffComponent@@@std@@@std@@IAEXViterator@12@IABU_TransformStuffComponent@@@Z:
  00000	b8 00 00 00 00	 mov	 eax, OFFSET FLAT:$T195552
  00005	e9 00 00 00 00	 jmp	 ___CxxFrameHandler
text$x	ENDS
?_Insert_n@?$vector@U_TransformStuffComponent@@V?$allocator@U_TransformStuffComponent@@@std@@@std@@IAEXViterator@12@IABU_TransformStuffComponent@@@Z ENDP ; std::vector<_TransformStuffComponent,std::allocator<_TransformStuffComponent> >::_Insert_n
PUBLIC	??0?$vector@U_FEEDENERGY@@V?$allocator@U_FEEDENERGY@@@std@@@std@@QAE@XZ ; std::vector<_FEEDENERGY,std::allocator<_FEEDENERGY> >::vector<_FEEDENERGY,std::allocator<_FEEDENERGY> >
; Function compile flags: /Ogty
;	COMDAT ??0?$vector@U_FEEDENERGY@@V?$allocator@U_FEEDENERGY@@@std@@@std@@QAE@XZ
_TEXT	SEGMENT
??0?$vector@U_FEEDENERGY@@V?$allocator@U_FEEDENERGY@@@std@@@std@@QAE@XZ PROC NEAR ; std::vector<_FEEDENERGY,std::allocator<_FEEDENERGY> >::vector<_FEEDENERGY,std::allocator<_FEEDENERGY> >, COMDAT
; _this$ = ecx

; 299  : 		{	// construct empty vector

  00000	8b c1		 mov	 eax, ecx

; 300  : 		_Buy(0);

  00002	33 c9		 xor	 ecx, ecx
  00004	89 48 04	 mov	 DWORD PTR [eax+4], ecx
  00007	89 48 08	 mov	 DWORD PTR [eax+8], ecx
  0000a	89 48 0c	 mov	 DWORD PTR [eax+12], ecx

; 301  : 		}

  0000d	c3		 ret	 0
??0?$vector@U_FEEDENERGY@@V?$allocator@U_FEEDENERGY@@@std@@@std@@QAE@XZ ENDP ; std::vector<_FEEDENERGY,std::allocator<_FEEDENERGY> >::vector<_FEEDENERGY,std::allocator<_FEEDENERGY> >
_TEXT	ENDS
PUBLIC	??0?$vector@GV?$allocator@G@std@@@std@@QAE@XZ	; std::vector<unsigned short,std::allocator<unsigned short> >::vector<unsigned short,std::allocator<unsigned short> >
; Function compile flags: /Ogty
;	COMDAT ??0?$vector@GV?$allocator@G@std@@@std@@QAE@XZ
_TEXT	SEGMENT
??0?$vector@GV?$allocator@G@std@@@std@@QAE@XZ PROC NEAR	; std::vector<unsigned short,std::allocator<unsigned short> >::vector<unsigned short,std::allocator<unsigned short> >, COMDAT
; _this$ = ecx

; 299  : 		{	// construct empty vector

  00000	8b c1		 mov	 eax, ecx

; 300  : 		_Buy(0);

  00002	33 c9		 xor	 ecx, ecx
  00004	89 48 04	 mov	 DWORD PTR [eax+4], ecx
  00007	89 48 08	 mov	 DWORD PTR [eax+8], ecx
  0000a	89 48 0c	 mov	 DWORD PTR [eax+12], ecx

; 301  : 		}

  0000d	c3		 ret	 0
??0?$vector@GV?$allocator@G@std@@@std@@QAE@XZ ENDP	; std::vector<unsigned short,std::allocator<unsigned short> >::vector<unsigned short,std::allocator<unsigned short> >
_TEXT	ENDS
PUBLIC	??0?$vector@U_TransformStuffComponent@@V?$allocator@U_TransformStuffComponent@@@std@@@std@@QAE@XZ ; std::vector<_TransformStuffComponent,std::allocator<_TransformStuffComponent> >::vector<_TransformStuffComponent,std::allocator<_TransformStuffComponent> >
; Function compile flags: /Ogty
;	COMDAT ??0?$vector@U_TransformStuffComponent@@V?$allocator@U_TransformStuffComponent@@@std@@@std@@QAE@XZ
_TEXT	SEGMENT
??0?$vector@U_TransformStuffComponent@@V?$allocator@U_TransformStuffComponent@@@std@@@std@@QAE@XZ PROC NEAR ; std::vector<_TransformStuffComponent,std::allocator<_TransformStuffComponent> >::vector<_TransformStuffComponent,std::allocator<_TransformStuffComponent> >, COMDAT
; _this$ = ecx

; 299  : 		{	// construct empty vector

  00000	8b c1		 mov	 eax, ecx

; 300  : 		_Buy(0);

  00002	33 c9		 xor	 ecx, ecx
  00004	89 48 04	 mov	 DWORD PTR [eax+4], ecx
  00007	89 48 08	 mov	 DWORD PTR [eax+8], ecx
  0000a	89 48 0c	 mov	 DWORD PTR [eax+12], ecx

; 301  : 		}

  0000d	c3		 ret	 0
??0?$vector@U_TransformStuffComponent@@V?$allocator@U_TransformStuffComponent@@@std@@@std@@QAE@XZ ENDP ; std::vector<_TransformStuffComponent,std::allocator<_TransformStuffComponent> >::vector<_TransformStuffComponent,std::allocator<_TransformStuffComponent> >
_TEXT	ENDS
PUBLIC	?insert@?$vector@U_FEEDENERGY@@V?$allocator@U_FEEDENERGY@@@std@@@std@@QAE?AViterator@12@V312@ABU_FEEDENERGY@@@Z ; std::vector<_FEEDENERGY,std::allocator<_FEEDENERGY> >::insert
; Function compile flags: /Ogty
;	COMDAT ?insert@?$vector@U_FEEDENERGY@@V?$allocator@U_FEEDENERGY@@@std@@@std@@QAE?AViterator@12@V312@ABU_FEEDENERGY@@@Z
_TEXT	SEGMENT
___$ReturnUdt$ = 8					; size = 4
tv90 = 12						; size = 4
__Where$ = 12						; size = 4
__Val$ = 16						; size = 4
?insert@?$vector@U_FEEDENERGY@@V?$allocator@U_FEEDENERGY@@@std@@@std@@QAE?AViterator@12@V312@ABU_FEEDENERGY@@@Z PROC NEAR ; std::vector<_FEEDENERGY,std::allocator<_FEEDENERGY> >::insert, COMDAT
; _this$ = ecx

; 620  : 		{	// insert _Val at _Where

  00000	53		 push	 ebx

; 621  : 		size_type _Off = size() == 0 ? 0 : _Where - begin();

  00001	8b 5c 24 0c	 mov	 ebx, DWORD PTR __Where$[esp]
  00005	56		 push	 esi
  00006	57		 push	 edi
  00007	8b f9		 mov	 edi, ecx
  00009	8b 77 04	 mov	 esi, DWORD PTR [edi+4]
  0000c	85 f6		 test	 esi, esi
  0000e	74 1b		 je	 SHORT $L195801
  00010	8b 4f 08	 mov	 ecx, DWORD PTR [edi+8]
  00013	2b ce		 sub	 ecx, esi
  00015	b8 ab aa aa 2a	 mov	 eax, 715827883		; 2aaaaaabH
  0001a	f7 e9		 imul	 ecx
  0001c	d1 fa		 sar	 edx, 1
  0001e	8b c2		 mov	 eax, edx
  00020	c1 e8 1f	 shr	 eax, 31			; 0000001fH
  00023	03 c2		 add	 eax, edx
  00025	89 44 24 14	 mov	 DWORD PTR tv90[esp+8], eax
  00029	75 04		 jne	 SHORT $L195740
$L195801:
  0002b	33 f6		 xor	 esi, esi
  0002d	eb 14		 jmp	 SHORT $L195741
$L195740:
  0002f	8b cb		 mov	 ecx, ebx
  00031	2b ce		 sub	 ecx, esi
  00033	b8 ab aa aa 2a	 mov	 eax, 715827883		; 2aaaaaabH
  00038	f7 e9		 imul	 ecx
  0003a	d1 fa		 sar	 edx, 1
  0003c	8b f2		 mov	 esi, edx
  0003e	c1 ee 1f	 shr	 esi, 31			; 0000001fH
  00041	03 f2		 add	 esi, edx
$L195741:

; 622  : 		_Insert_n(_Where, (size_type)1, _Val);

  00043	8b 4c 24 18	 mov	 ecx, DWORD PTR __Val$[esp+8]
  00047	51		 push	 ecx
  00048	6a 01		 push	 1
  0004a	53		 push	 ebx
  0004b	8b cf		 mov	 ecx, edi
  0004d	e8 00 00 00 00	 call	 ?_Insert_n@?$vector@U_FEEDENERGY@@V?$allocator@U_FEEDENERGY@@@std@@@std@@IAEXViterator@12@IABU_FEEDENERGY@@@Z ; std::vector<_FEEDENERGY,std::allocator<_FEEDENERGY> >::_Insert_n

; 623  : 		return (begin() + _Off);

  00052	8b 47 04	 mov	 eax, DWORD PTR [edi+4]
  00055	8d 14 76	 lea	 edx, DWORD PTR [esi+esi*2]
  00058	5f		 pop	 edi
  00059	8d 0c 90	 lea	 ecx, DWORD PTR [eax+edx*4]
  0005c	8b 44 24 0c	 mov	 eax, DWORD PTR ___$ReturnUdt$[esp+4]
  00060	5e		 pop	 esi
  00061	89 08		 mov	 DWORD PTR [eax], ecx
  00063	5b		 pop	 ebx

; 624  : 		}

  00064	c2 0c 00	 ret	 12			; 0000000cH
?insert@?$vector@U_FEEDENERGY@@V?$allocator@U_FEEDENERGY@@@std@@@std@@QAE?AViterator@12@V312@ABU_FEEDENERGY@@@Z ENDP ; std::vector<_FEEDENERGY,std::allocator<_FEEDENERGY> >::insert
_TEXT	ENDS
PUBLIC	?insert@?$vector@GV?$allocator@G@std@@@std@@QAE?AViterator@12@V312@ABG@Z ; std::vector<unsigned short,std::allocator<unsigned short> >::insert
; Function compile flags: /Ogty
;	COMDAT ?insert@?$vector@GV?$allocator@G@std@@@std@@QAE?AViterator@12@V312@ABG@Z
_TEXT	SEGMENT
___$ReturnUdt$ = 8					; size = 4
__Where$ = 12						; size = 4
__Val$ = 16						; size = 4
?insert@?$vector@GV?$allocator@G@std@@@std@@QAE?AViterator@12@V312@ABG@Z PROC NEAR ; std::vector<unsigned short,std::allocator<unsigned short> >::insert, COMDAT
; _this$ = ecx

; 621  : 		size_type _Off = size() == 0 ? 0 : _Where - begin();

  00000	8b 54 24 08	 mov	 edx, DWORD PTR __Where$[esp-4]
  00004	56		 push	 esi
  00005	57		 push	 edi
  00006	8b f9		 mov	 edi, ecx
  00008	8b 4f 04	 mov	 ecx, DWORD PTR [edi+4]
  0000b	85 c9		 test	 ecx, ecx
  0000d	74 0b		 je	 SHORT $L195866
  0000f	8b 47 08	 mov	 eax, DWORD PTR [edi+8]
  00012	2b c1		 sub	 eax, ecx
  00014	d1 f8		 sar	 eax, 1
  00016	85 c0		 test	 eax, eax
  00018	75 04		 jne	 SHORT $L195805
$L195866:
  0001a	33 f6		 xor	 esi, esi
  0001c	eb 06		 jmp	 SHORT $L195806
$L195805:
  0001e	8b f2		 mov	 esi, edx
  00020	2b f1		 sub	 esi, ecx
  00022	d1 fe		 sar	 esi, 1
$L195806:

; 622  : 		_Insert_n(_Where, (size_type)1, _Val);

  00024	8b 44 24 14	 mov	 eax, DWORD PTR __Val$[esp+4]
  00028	50		 push	 eax
  00029	6a 01		 push	 1
  0002b	52		 push	 edx
  0002c	8b cf		 mov	 ecx, edi
  0002e	e8 00 00 00 00	 call	 ?_Insert_n@?$vector@GV?$allocator@G@std@@@std@@IAEXViterator@12@IABG@Z ; std::vector<unsigned short,std::allocator<unsigned short> >::_Insert_n

; 623  : 		return (begin() + _Off);

  00033	8b 4f 04	 mov	 ecx, DWORD PTR [edi+4]
  00036	8b 44 24 0c	 mov	 eax, DWORD PTR ___$ReturnUdt$[esp+4]
  0003a	8d 14 71	 lea	 edx, DWORD PTR [ecx+esi*2]
  0003d	5f		 pop	 edi
  0003e	89 10		 mov	 DWORD PTR [eax], edx
  00040	5e		 pop	 esi

; 624  : 		}

  00041	c2 0c 00	 ret	 12			; 0000000cH
?insert@?$vector@GV?$allocator@G@std@@@std@@QAE?AViterator@12@V312@ABG@Z ENDP ; std::vector<unsigned short,std::allocator<unsigned short> >::insert
_TEXT	ENDS
PUBLIC	?insert@?$vector@U_TransformStuffComponent@@V?$allocator@U_TransformStuffComponent@@@std@@@std@@QAE?AViterator@12@V312@ABU_TransformStuffComponent@@@Z ; std::vector<_TransformStuffComponent,std::allocator<_TransformStuffComponent> >::insert
; Function compile flags: /Ogty
;	COMDAT ?insert@?$vector@U_TransformStuffComponent@@V?$allocator@U_TransformStuffComponent@@@std@@@std@@QAE?AViterator@12@V312@ABU_TransformStuffComponent@@@Z
_TEXT	SEGMENT
___$ReturnUdt$ = 8					; size = 4
__Where$ = 12						; size = 4
__Val$ = 16						; size = 4
?insert@?$vector@U_TransformStuffComponent@@V?$allocator@U_TransformStuffComponent@@@std@@@std@@QAE?AViterator@12@V312@ABU_TransformStuffComponent@@@Z PROC NEAR ; std::vector<_TransformStuffComponent,std::allocator<_TransformStuffComponent> >::insert, COMDAT
; _this$ = ecx

; 621  : 		size_type _Off = size() == 0 ? 0 : _Where - begin();

  00000	8b 54 24 08	 mov	 edx, DWORD PTR __Where$[esp-4]
  00004	56		 push	 esi
  00005	57		 push	 edi
  00006	8b f9		 mov	 edi, ecx
  00008	8b 4f 04	 mov	 ecx, DWORD PTR [edi+4]
  0000b	85 c9		 test	 ecx, ecx
  0000d	74 0c		 je	 SHORT $L195931
  0000f	8b 47 08	 mov	 eax, DWORD PTR [edi+8]
  00012	2b c1		 sub	 eax, ecx
  00014	c1 f8 03	 sar	 eax, 3
  00017	85 c0		 test	 eax, eax
  00019	75 04		 jne	 SHORT $L195870
$L195931:
  0001b	33 f6		 xor	 esi, esi
  0001d	eb 07		 jmp	 SHORT $L195871
$L195870:
  0001f	8b f2		 mov	 esi, edx
  00021	2b f1		 sub	 esi, ecx
  00023	c1 fe 03	 sar	 esi, 3
$L195871:

; 622  : 		_Insert_n(_Where, (size_type)1, _Val);

  00026	8b 44 24 14	 mov	 eax, DWORD PTR __Val$[esp+4]
  0002a	50		 push	 eax
  0002b	6a 01		 push	 1
  0002d	52		 push	 edx
  0002e	8b cf		 mov	 ecx, edi
  00030	e8 00 00 00 00	 call	 ?_Insert_n@?$vector@U_TransformStuffComponent@@V?$allocator@U_TransformStuffComponent@@@std@@@std@@IAEXViterator@12@IABU_TransformStuffComponent@@@Z ; std::vector<_TransformStuffComponent,std::allocator<_TransformStuffComponent> >::_Insert_n

; 623  : 		return (begin() + _Off);

  00035	8b 4f 04	 mov	 ecx, DWORD PTR [edi+4]
  00038	8b 44 24 0c	 mov	 eax, DWORD PTR ___$ReturnUdt$[esp+4]
  0003c	8d 14 f1	 lea	 edx, DWORD PTR [ecx+esi*8]
  0003f	5f		 pop	 edi
  00040	89 10		 mov	 DWORD PTR [eax], edx
  00042	5e		 pop	 esi

; 624  : 		}

  00043	c2 0c 00	 ret	 12			; 0000000cH
?insert@?$vector@U_TransformStuffComponent@@V?$allocator@U_TransformStuffComponent@@@std@@@std@@QAE?AViterator@12@V312@ABU_TransformStuffComponent@@@Z ENDP ; std::vector<_TransformStuffComponent,std::allocator<_TransformStuffComponent> >::insert
_TEXT	ENDS
PUBLIC	??0CPetProperty@@QAE@XZ				; CPetProperty::CPetProperty
EXTRN	??_L@YGXPAXIHP6EX0@Z1@Z:NEAR			; `eh vector constructor iterator'
;	COMDAT xdata$x
; File c:\documents and settings\test\mes documents\source\virtuos_v17\build\program\_common\pet.h
xdata$x	SEGMENT
$T196045 DD	0ffffffffH
	DD	FLAT:$L195934
$T196036 DD	019930520H
	DD	01H
	DD	FLAT:$T196045
	DD	2 DUP(00H)
	DD	2 DUP(00H)
; Function compile flags: /Ogty
; File c:\documents and settings\test\mes documents\source\virtuos_v17\build\program\_common\pet.cpp
xdata$x	ENDS
;	COMDAT ??0CPetProperty@@QAE@XZ
_TEXT	SEGMENT
_this$ = -16						; size = 4
__$EHRec$ = -12						; size = 12
??0CPetProperty@@QAE@XZ PROC NEAR			; CPetProperty::CPetProperty, COMDAT
; _this$ = ecx

; 21   : {

  00000	6a ff		 push	 -1
  00002	68 00 00 00 00	 push	 __ehhandler$??0CPetProperty@@QAE@XZ
  00007	64 a1 00 00 00
	00		 mov	 eax, DWORD PTR fs:__except_list
  0000d	50		 push	 eax
  0000e	64 89 25 00 00
	00 00		 mov	 DWORD PTR fs:__except_list, esp
  00015	51		 push	 ecx
  00016	56		 push	 esi
  00017	57		 push	 edi
  00018	68 00 00 00 00	 push	 OFFSET FLAT:??1?$vector@U_FEEDENERGY@@V?$allocator@U_FEEDENERGY@@@std@@@std@@QAE@XZ ; std::vector<_FEEDENERGY,std::allocator<_FEEDENERGY> >::~vector<_FEEDENERGY,std::allocator<_FEEDENERGY> >
  0001d	68 00 00 00 00	 push	 OFFSET FLAT:??0?$vector@U_FEEDENERGY@@V?$allocator@U_FEEDENERGY@@@std@@@std@@QAE@XZ ; std::vector<_FEEDENERGY,std::allocator<_FEEDENERGY> >::vector<_FEEDENERGY,std::allocator<_FEEDENERGY> >
  00022	8b f1		 mov	 esi, ecx
  00024	6a 02		 push	 2
  00026	6a 10		 push	 16			; 00000010H
  00028	8d 86 88 02 00
	00		 lea	 eax, DWORD PTR [esi+648]
  0002e	50		 push	 eax
  0002f	c7 06 00 00 00
	00		 mov	 DWORD PTR [esi], OFFSET FLAT:??_7CPetProperty@@6B@
  00035	e8 00 00 00 00	 call	 ??_L@YGXPAXIHP6EX0@Z1@Z
  0003a	33 c9		 xor	 ecx, ecx
  0003c	89 8e d0 02 00
	00		 mov	 DWORD PTR [esi+720], ecx
  00042	89 8e d4 02 00
	00		 mov	 DWORD PTR [esi+724], ecx
  00048	89 8e d8 02 00
	00		 mov	 DWORD PTR [esi+728], ecx
  0004e	8d 96 dc 02 00
	00		 lea	 edx, DWORD PTR [esi+732]
  00054	8b c2		 mov	 eax, edx
  00056	89 08		 mov	 DWORD PTR [eax], ecx
  00058	66 89 48 04	 mov	 WORD PTR [eax+4], cx
  0005c	89 48 08	 mov	 DWORD PTR [eax+8], ecx
  0005f	66 89 48 0c	 mov	 WORD PTR [eax+12], cx
  00063	83 c0 08	 add	 eax, 8
  00066	89 48 08	 mov	 DWORD PTR [eax+8], ecx
  00069	66 89 48 0c	 mov	 WORD PTR [eax+12], cx
  0006d	83 c0 08	 add	 eax, 8
  00070	89 48 08	 mov	 DWORD PTR [eax+8], ecx
  00073	66 89 48 0c	 mov	 WORD PTR [eax+12], cx
  00077	83 c0 08	 add	 eax, 8
  0007a	89 48 08	 mov	 DWORD PTR [eax+8], ecx
  0007d	66 89 48 0c	 mov	 WORD PTR [eax+12], cx
  00081	83 c0 08	 add	 eax, 8
  00084	89 48 08	 mov	 DWORD PTR [eax+8], ecx
  00087	66 89 48 0c	 mov	 WORD PTR [eax+12], cx
  0008b	83 c0 08	 add	 eax, 8

; 22   : 	memset( (void*)m_aPetAvailParam, 0, sizeof(PETAVAILPARAM) * PK_MAX );

  0008e	33 c0		 xor	 eax, eax
  00090	8d 7e 04	 lea	 edi, DWORD PTR [esi+4]
  00093	b9 69 00 00 00	 mov	 ecx, 105		; 00000069H
  00098	f3 ab		 rep stosd

; 23   : 	memset( (void*)m_anLevelupAvailLevelMax, 0, sizeof(BYTE) * PL_MAX );

  0009a	33 c9		 xor	 ecx, ecx
  0009c	8d 86 a8 01 00
	00		 lea	 eax, DWORD PTR [esi+424]
  000a2	89 08		 mov	 DWORD PTR [eax], ecx
  000a4	66 89 48 04	 mov	 WORD PTR [eax+4], cx

; 24   : 	memset( (void*)m_adwLevelupAvailLevelProbability, 0, sizeof(DWORD) * PL_MAX * MAX_PET_AVAIL_LEVEL );

  000a8	33 c0		 xor	 eax, eax
  000aa	8d be b0 01 00
	00		 lea	 edi, DWORD PTR [esi+432]
  000b0	b9 36 00 00 00	 mov	 ecx, 54			; 00000036H
  000b5	f3 ab		 rep stosd

; 25   : 	memset( (void*)m_adwIncrementExp, 0, sizeof(DWORD) * PL_MAX );

  000b7	33 c9		 xor	 ecx, ecx
  000b9	8d 86 a8 02 00
	00		 lea	 eax, DWORD PTR [esi+680]
  000bf	89 08		 mov	 DWORD PTR [eax], ecx
  000c1	89 48 04	 mov	 DWORD PTR [eax+4], ecx
  000c4	89 48 08	 mov	 DWORD PTR [eax+8], ecx
  000c7	89 48 0c	 mov	 DWORD PTR [eax+12], ecx
  000ca	89 48 10	 mov	 DWORD PTR [eax+16], ecx
  000cd	89 48 14	 mov	 DWORD PTR [eax+20], ecx

; 26   : 	memset( (void*)m_awMaxEnergy, 0, sizeof(WORD) * PL_MAX );

  000d0	8d 86 c0 02 00
	00		 lea	 eax, DWORD PTR [esi+704]
  000d6	89 08		 mov	 DWORD PTR [eax], ecx
  000d8	89 48 04	 mov	 DWORD PTR [eax+4], ecx
  000db	89 48 08	 mov	 DWORD PTR [eax+8], ecx

; 27   : 	memset( (void*)m_aPenalty, 0, sizeof(PETPENALTY) * PL_MAX );

  000de	33 c0		 xor	 eax, eax
  000e0	b9 0c 00 00 00	 mov	 ecx, 12			; 0000000cH
  000e5	8b fa		 mov	 edi, edx
  000e7	f3 ab		 rep stosd

; 28   : }

  000e9	8b 4c 24 0c	 mov	 ecx, DWORD PTR __$EHRec$[esp+24]
  000ed	5f		 pop	 edi
  000ee	8b c6		 mov	 eax, esi
  000f0	5e		 pop	 esi
  000f1	64 89 0d 00 00
	00 00		 mov	 DWORD PTR fs:__except_list, ecx
  000f8	83 c4 10	 add	 esp, 16			; 00000010H
  000fb	c3		 ret	 0
_TEXT	ENDS
;	COMDAT text$x
text$x	SEGMENT
$L195934:
  00000	68 00 00 00 00	 push	 OFFSET FLAT:??1?$vector@U_FEEDENERGY@@V?$allocator@U_FEEDENERGY@@@std@@@std@@QAE@XZ ; std::vector<_FEEDENERGY,std::allocator<_FEEDENERGY> >::~vector<_FEEDENERGY,std::allocator<_FEEDENERGY> >
  00005	6a 02		 push	 2
  00007	6a 10		 push	 16			; 00000010H
  00009	8b 45 f0	 mov	 eax, DWORD PTR _this$[ebp]
  0000c	05 88 02 00 00	 add	 eax, 648		; 00000288H
  00011	50		 push	 eax
  00012	e8 00 00 00 00	 call	 ??_M@YGXPAXIHP6EX0@Z@Z
  00017	c3		 ret	 0
__ehhandler$??0CPetProperty@@QAE@XZ:
  00018	b8 00 00 00 00	 mov	 eax, OFFSET FLAT:$T196036
  0001d	e9 00 00 00 00	 jmp	 ___CxxFrameHandler
text$x	ENDS
??0CPetProperty@@QAE@XZ ENDP				; CPetProperty::CPetProperty
PUBLIC	?GetInstance@CPetProperty@@SAPAV1@XZ		; CPetProperty::GetInstance
EXTRN	_atexit:NEAR
;	COMDAT ?sPetProperty@?1??GetInstance@CPetProperty@@SAPAV2@XZ@4V2@A
_BSS	SEGMENT
?sPetProperty@?1??GetInstance@CPetProperty@@SAPAV2@XZ@4V2@A DB 030cH DUP (?) ; `CPetProperty::GetInstance'::`2'::sPetProperty
_BSS	ENDS
;	COMDAT ?$S1@?1??GetInstance@CPetProperty@@SAPAV2@XZ@4IA
_BSS	SEGMENT
?$S1@?1??GetInstance@CPetProperty@@SAPAV2@XZ@4IA DD 01H DUP (?) ; `CPetProperty::GetInstance'::`2'::$S1
_BSS	ENDS
;	COMDAT xdata$x
xdata$x	SEGMENT
$T196055 DD	0ffffffffH
	DD	FLAT:$L196050
$T196052 DD	019930520H
	DD	01H
	DD	FLAT:$T196055
	DD	2 DUP(00H)
	DD	2 DUP(00H)
; Function compile flags: /Ogty
xdata$x	ENDS
;	COMDAT ?GetInstance@CPetProperty@@SAPAV1@XZ
_TEXT	SEGMENT
__$EHRec$ = -12						; size = 12
?GetInstance@CPetProperty@@SAPAV1@XZ PROC NEAR		; CPetProperty::GetInstance, COMDAT

; 119  : {

  00000	64 a1 00 00 00
	00		 mov	 eax, DWORD PTR fs:__except_list

; 120  : 	static	CPetProperty	sPetProperty;

  00006	8a 0d 00 00 00
	00		 mov	 cl, BYTE PTR ?$S1@?1??GetInstance@CPetProperty@@SAPAV2@XZ@4IA
  0000c	6a ff		 push	 -1
  0000e	68 00 00 00 00	 push	 __ehhandler$?GetInstance@CPetProperty@@SAPAV1@XZ
  00013	50		 push	 eax
  00014	b8 01 00 00 00	 mov	 eax, 1
  00019	84 c8		 test	 cl, al
  0001b	64 89 25 00 00
	00 00		 mov	 DWORD PTR fs:__except_list, esp
  00022	75 25		 jne	 SHORT $L196053
  00024	09 05 00 00 00
	00		 or	 DWORD PTR ?$S1@?1??GetInstance@CPetProperty@@SAPAV2@XZ@4IA, eax
  0002a	b9 00 00 00 00	 mov	 ecx, OFFSET FLAT:?sPetProperty@?1??GetInstance@CPetProperty@@SAPAV2@XZ@4V2@A
  0002f	c7 44 24 08 00
	00 00 00	 mov	 DWORD PTR __$EHRec$[esp+20], 0
  00037	e8 00 00 00 00	 call	 ??0CPetProperty@@QAE@XZ	; CPetProperty::CPetProperty
  0003c	68 00 00 00 00	 push	 OFFSET FLAT:_$E2
  00041	e8 00 00 00 00	 call	 _atexit
  00046	83 c4 04	 add	 esp, 4
$L196053:

; 121  : 	return &sPetProperty;
; 122  : }

  00049	8b 0c 24	 mov	 ecx, DWORD PTR __$EHRec$[esp+12]
  0004c	b8 00 00 00 00	 mov	 eax, OFFSET FLAT:?sPetProperty@?1??GetInstance@CPetProperty@@SAPAV2@XZ@4V2@A
  00051	64 89 0d 00 00
	00 00		 mov	 DWORD PTR fs:__except_list, ecx
  00058	83 c4 0c	 add	 esp, 12			; 0000000cH
  0005b	c3		 ret	 0
_TEXT	ENDS
;	COMDAT text$x
text$x	SEGMENT
$L196050:
  00000	a1 00 00 00 00	 mov	 eax, DWORD PTR ?$S1@?1??GetInstance@CPetProperty@@SAPAV2@XZ@4IA
  00005	83 e0 fe	 and	 eax, -2			; fffffffeH
  00008	a3 00 00 00 00	 mov	 DWORD PTR ?$S1@?1??GetInstance@CPetProperty@@SAPAV2@XZ@4IA, eax
  0000d	c3		 ret	 0
__ehhandler$?GetInstance@CPetProperty@@SAPAV1@XZ:
  0000e	b8 00 00 00 00	 mov	 eax, OFFSET FLAT:$T196052
  00013	e9 00 00 00 00	 jmp	 ___CxxFrameHandler
text$x	ENDS
?GetInstance@CPetProperty@@SAPAV1@XZ ENDP		; CPetProperty::GetInstance
PUBLIC	?GetAvailDestParam@CPet@@QAEXAAKAAH@Z		; CPet::GetAvailDestParam
; Function compile flags: /Ogty
;	COMDAT ?GetAvailDestParam@CPet@@QAEXAAKAAH@Z
_TEXT	SEGMENT
_dwDestParam$ = 8					; size = 4
_nParam$ = 12						; size = 4
?GetAvailDestParam@CPet@@QAEXAAKAAH@Z PROC NEAR		; CPet::GetAvailDestParam, COMDAT
; _this$ = ecx

; 379  : {

  00000	53		 push	 ebx
  00001	55		 push	 ebp

; 380  : 	dwDestParam	= nParam	= 0;

  00002	8b 6c 24 0c	 mov	 ebp, DWORD PTR _dwDestParam$[esp+4]
  00006	56		 push	 esi
  00007	57		 push	 edi
  00008	8b 7c 24 18	 mov	 edi, DWORD PTR _nParam$[esp+12]
  0000c	c7 07 00 00 00
	00		 mov	 DWORD PTR [edi], 0
  00012	8b f1		 mov	 esi, ecx
  00014	c7 45 00 00 00
	00 00		 mov	 DWORD PTR [ebp], 0

; 381  : 	PPETAVAILPARAM pAvailParam	= CPetProperty::GetInstance()->GetAvailParam( m_nKind );

  0001b	8a 5e 04	 mov	 bl, BYTE PTR [esi+4]
  0001e	e8 00 00 00 00	 call	 ?GetInstance@CPetProperty@@SAPAV1@XZ ; CPetProperty::GetInstance
  00023	80 fb 07	 cmp	 bl, 7
  00026	73 3b		 jae	 SHORT $L189780
  00028	0f b6 cb	 movzx	 ecx, bl
  0002b	6b c9 3c	 imul	 ecx, 60			; 0000003cH
  0002e	8d 4c 01 04	 lea	 ecx, DWORD PTR [ecx+eax+4]

; 382  : 	if( pAvailParam )

  00032	85 c9		 test	 ecx, ecx
  00034	74 2d		 je	 SHORT $L189780

; 383  : 	{
; 384  : 		dwDestParam	= pAvailParam->dwDstParam;

  00036	8b 11		 mov	 edx, DWORD PTR [ecx]
  00038	89 55 00	 mov	 DWORD PTR [ebp], edx

; 385  : 		for( int i = PL_D; i <= m_nLevel; i++ )

  0003b	8a 56 05	 mov	 dl, BYTE PTR [esi+5]
  0003e	b8 01 00 00 00	 mov	 eax, 1
  00043	3a d0		 cmp	 dl, al
  00045	72 1c		 jb	 SHORT $L189780
  00047	eb 07 8d a4 24
	00 00 00 00	 npad	 9
$L189778:

; 386  : 			nParam += pAvailParam->m_anParam[m_anAvailLevel[i-1] - 1];

  00050	0f b6 54 06 0f	 movzx	 edx, BYTE PTR [esi+eax+15]
  00055	8b 14 91	 mov	 edx, DWORD PTR [ecx+edx*4]
  00058	01 17		 add	 DWORD PTR [edi], edx
  0005a	0f b6 56 05	 movzx	 edx, BYTE PTR [esi+5]
  0005e	40		 inc	 eax
  0005f	3b c2		 cmp	 eax, edx
  00061	7e ed		 jle	 SHORT $L189778
$L189780:
  00063	5f		 pop	 edi
  00064	5e		 pop	 esi
  00065	5d		 pop	 ebp
  00066	5b		 pop	 ebx

; 387  : 	}
; 388  : }

  00067	c2 08 00	 ret	 8
?GetAvailDestParam@CPet@@QAEXAAKAAH@Z ENDP		; CPet::GetAvailDestParam
_TEXT	ENDS
PUBLIC	?GetIndex@CPet@@QAEKXZ				; CPet::GetIndex
; Function compile flags: /Ogty
;	COMDAT ?GetIndex@CPet@@QAEKXZ
_TEXT	SEGMENT
?GetIndex@CPet@@QAEKXZ PROC NEAR			; CPet::GetIndex, COMDAT
; _this$ = ecx

; 391  : {

  00000	53		 push	 ebx
  00001	56		 push	 esi
  00002	8b f1		 mov	 esi, ecx

; 392  : 	PPETAVAILPARAM pPetAvailParam	= CPetProperty::GetInstance()->GetAvailParam( m_nKind );

  00004	8a 5e 04	 mov	 bl, BYTE PTR [esi+4]
  00007	e8 00 00 00 00	 call	 ?GetInstance@CPetProperty@@SAPAV1@XZ ; CPetProperty::GetInstance
  0000c	80 fb 07	 cmp	 bl, 7
  0000f	73 0c		 jae	 SHORT $L196072
  00011	0f b6 cb	 movzx	 ecx, bl
  00014	6b c9 3c	 imul	 ecx, 60			; 0000003cH
  00017	8d 4c 01 04	 lea	 ecx, DWORD PTR [ecx+eax+4]
  0001b	eb 02		 jmp	 SHORT $L196071
$L196072:
  0001d	33 c9		 xor	 ecx, ecx
$L196071:

; 393  : 	if( m_nLevel == PL_EGG )

  0001f	8a 46 05	 mov	 al, BYTE PTR [esi+5]
  00022	84 c0		 test	 al, al
  00024	5e		 pop	 esi
  00025	5b		 pop	 ebx
  00026	75 06		 jne	 SHORT $L196076

; 394  : 		return MI_PET_EGG;

  00028	b8 db 02 00 00	 mov	 eax, 731		; 000002dbH

; 401  : }

  0002d	c3		 ret	 0
$L196076:

; 395  : 	else if( m_nLevel > PL_EGG && m_nLevel < PL_B )

  0002e	76 08		 jbe	 SHORT $L189788
  00030	3c 03		 cmp	 al, 3
  00032	73 04		 jae	 SHORT $L189788

; 396  : 		return pPetAvailParam->m_adwIndex[0];

  00034	8b 41 2c	 mov	 eax, DWORD PTR [ecx+44]

; 401  : }

  00037	c3		 ret	 0
$L189788:

; 397  : 	else if( m_nLevel < PL_S )

  00038	3c 05		 cmp	 al, 5
  0003a	73 04		 jae	 SHORT $L189790

; 398  : 		return pPetAvailParam->m_adwIndex[1];

  0003c	8b 41 30	 mov	 eax, DWORD PTR [ecx+48]

; 401  : }

  0003f	c3		 ret	 0
$L189790:

; 399  : 	else
; 400  : 		return pPetAvailParam->m_adwIndex[2];

  00040	8b 41 34	 mov	 eax, DWORD PTR [ecx+52]

; 401  : }

  00043	c3		 ret	 0
?GetIndex@CPet@@QAEKXZ ENDP				; CPet::GetIndex
_TEXT	ENDS
PUBLIC	??0CTransformStuff@@QAE@XZ			; CTransformStuff::CTransformStuff
; Function compile flags: /Ogty
;	COMDAT ??0CTransformStuff@@QAE@XZ
_TEXT	SEGMENT
??0CTransformStuff@@QAE@XZ PROC NEAR			; CTransformStuff::CTransformStuff, COMDAT
; _this$ = ecx

; 673  : {

  00000	8b c1		 mov	 eax, ecx
  00002	33 c9		 xor	 ecx, ecx
  00004	c7 00 00 00 00
	00		 mov	 DWORD PTR [eax], OFFSET FLAT:??_7CTransformStuff@@6B@
  0000a	89 48 04	 mov	 DWORD PTR [eax+4], ecx
  0000d	89 48 0c	 mov	 DWORD PTR [eax+12], ecx
  00010	89 48 10	 mov	 DWORD PTR [eax+16], ecx
  00013	89 48 14	 mov	 DWORD PTR [eax+20], ecx

; 674  : }

  00016	c3		 ret	 0
??0CTransformStuff@@QAE@XZ ENDP				; CTransformStuff::CTransformStuff
_TEXT	ENDS
PUBLIC	??0CTransformStuff@@QAE@H@Z			; CTransformStuff::CTransformStuff
; Function compile flags: /Ogty
;	COMDAT ??0CTransformStuff@@QAE@H@Z
_TEXT	SEGMENT
_nTransform$ = 8					; size = 4
??0CTransformStuff@@QAE@H@Z PROC NEAR			; CTransformStuff::CTransformStuff, COMDAT
; _this$ = ecx

; 679  : {

  00000	8b c1		 mov	 eax, ecx
  00002	8b 4c 24 04	 mov	 ecx, DWORD PTR _nTransform$[esp-4]
  00006	89 48 04	 mov	 DWORD PTR [eax+4], ecx
  00009	33 c9		 xor	 ecx, ecx
  0000b	c7 00 00 00 00
	00		 mov	 DWORD PTR [eax], OFFSET FLAT:??_7CTransformStuff@@6B@
  00011	89 48 0c	 mov	 DWORD PTR [eax+12], ecx
  00014	89 48 10	 mov	 DWORD PTR [eax+16], ecx
  00017	89 48 14	 mov	 DWORD PTR [eax+20], ecx

; 680  : }

  0001a	c2 04 00	 ret	 4
??0CTransformStuff@@QAE@H@Z ENDP			; CTransformStuff::CTransformStuff
_TEXT	ENDS
PUBLIC	?push_back@?$vector@U_FEEDENERGY@@V?$allocator@U_FEEDENERGY@@@std@@@std@@QAEXABU_FEEDENERGY@@@Z ; std::vector<_FEEDENERGY,std::allocator<_FEEDENERGY> >::push_back
; Function compile flags: /Ogty
; File c:\program files\microsoft visual studio .net 2003\vc7\include\vector
;	COMDAT ?push_back@?$vector@U_FEEDENERGY@@V?$allocator@U_FEEDENERGY@@@std@@@std@@QAEXABU_FEEDENERGY@@@Z
_TEXT	SEGMENT
__Cat$196293 = 8					; size = 1
$T196258 = 8						; size = 4
__Val$ = 8						; size = 4
?push_back@?$vector@U_FEEDENERGY@@V?$allocator@U_FEEDENERGY@@@std@@@std@@QAEXABU_FEEDENERGY@@@Z PROC NEAR ; std::vector<_FEEDENERGY,std::allocator<_FEEDENERGY> >::push_back, COMDAT
; _this$ = ecx

; 579  : 		{	// insert element at end

  00000	56		 push	 esi
  00001	8b f1		 mov	 esi, ecx
  00003	57		 push	 edi

; 580  : 		if (size() < capacity())

  00004	8b 7e 04	 mov	 edi, DWORD PTR [esi+4]
  00007	85 ff		 test	 edi, edi
  00009	75 04		 jne	 SHORT $L196264
  0000b	33 c9		 xor	 ecx, ecx
  0000d	eb 15		 jmp	 SHORT $L196265
$L196264:
  0000f	8b 4e 08	 mov	 ecx, DWORD PTR [esi+8]
  00012	2b cf		 sub	 ecx, edi
  00014	b8 ab aa aa 2a	 mov	 eax, 715827883		; 2aaaaaabH
  00019	f7 e9		 imul	 ecx
  0001b	d1 fa		 sar	 edx, 1
  0001d	8b ca		 mov	 ecx, edx
  0001f	c1 e9 1f	 shr	 ecx, 31			; 0000001fH
  00022	03 ca		 add	 ecx, edx
$L196265:
  00024	85 ff		 test	 edi, edi
  00026	74 3d		 je	 SHORT $L189868
  00028	8b 56 0c	 mov	 edx, DWORD PTR [esi+12]
  0002b	2b d7		 sub	 edx, edi
  0002d	b8 ab aa aa 2a	 mov	 eax, 715827883		; 2aaaaaabH
  00032	f7 ea		 imul	 edx
  00034	d1 fa		 sar	 edx, 1
  00036	8b c2		 mov	 eax, edx
  00038	c1 e8 1f	 shr	 eax, 31			; 0000001fH
  0003b	03 c2		 add	 eax, edx
  0003d	3b c8		 cmp	 ecx, eax
  0003f	73 24		 jae	 SHORT $L189868

; 581  : 			_Mylast = _Ufill(_Mylast, 1, _Val);

  00041	8b 44 24 0c	 mov	 eax, DWORD PTR __Cat$196293[esp+4]
  00045	8b 4c 24 0c	 mov	 ecx, DWORD PTR __Val$[esp+4]
  00049	8b 7e 08	 mov	 edi, DWORD PTR [esi+8]
  0004c	50		 push	 eax
  0004d	56		 push	 esi
  0004e	51		 push	 ecx
  0004f	6a 01		 push	 1
  00051	57		 push	 edi
  00052	e8 00 00 00 00	 call	 ??$_Uninit_fill_n@PAU_FEEDENERGY@@IU1@V?$allocator@U_FEEDENERGY@@@std@@@std@@YAXPAU_FEEDENERGY@@IABU1@AAV?$allocator@U_FEEDENERGY@@@0@U_Nonscalar_ptr_iterator_tag@0@@Z ; std::_Uninit_fill_n<_FEEDENERGY *,unsigned int,_FEEDENERGY,std::allocator<_FEEDENERGY> >
  00057	83 c4 14	 add	 esp, 20			; 00000014H
  0005a	83 c7 0c	 add	 edi, 12			; 0000000cH
  0005d	89 7e 08	 mov	 DWORD PTR [esi+8], edi
  00060	5f		 pop	 edi
  00061	5e		 pop	 esi

; 584  : 		}

  00062	c2 04 00	 ret	 4
$L189868:

; 582  : 		else
; 583  : 			insert(end(), _Val);

  00065	8b 54 24 0c	 mov	 edx, DWORD PTR __Val$[esp+4]
  00069	8b 46 08	 mov	 eax, DWORD PTR [esi+8]
  0006c	52		 push	 edx
  0006d	50		 push	 eax
  0006e	8d 44 24 14	 lea	 eax, DWORD PTR $T196258[esp+12]
  00072	50		 push	 eax
  00073	8b ce		 mov	 ecx, esi
  00075	e8 00 00 00 00	 call	 ?insert@?$vector@U_FEEDENERGY@@V?$allocator@U_FEEDENERGY@@@std@@@std@@QAE?AViterator@12@V312@ABU_FEEDENERGY@@@Z ; std::vector<_FEEDENERGY,std::allocator<_FEEDENERGY> >::insert
  0007a	5f		 pop	 edi
  0007b	5e		 pop	 esi

; 584  : 		}

  0007c	c2 04 00	 ret	 4
?push_back@?$vector@U_FEEDENERGY@@V?$allocator@U_FEEDENERGY@@@std@@@std@@QAEXABU_FEEDENERGY@@@Z ENDP ; std::vector<_FEEDENERGY,std::allocator<_FEEDENERGY> >::push_back
_TEXT	ENDS
PUBLIC	?push_back@?$vector@GV?$allocator@G@std@@@std@@QAEXABG@Z ; std::vector<unsigned short,std::allocator<unsigned short> >::push_back
; Function compile flags: /Ogty
;	COMDAT ?push_back@?$vector@GV?$allocator@G@std@@@std@@QAEXABG@Z
_TEXT	SEGMENT
__Val$ = 8						; size = 4
?push_back@?$vector@GV?$allocator@G@std@@@std@@QAEXABG@Z PROC NEAR ; std::vector<unsigned short,std::allocator<unsigned short> >::push_back, COMDAT
; _this$ = ecx

; 579  : 		{	// insert element at end

  00000	56		 push	 esi

; 580  : 		if (size() < capacity())

  00001	8b 71 04	 mov	 esi, DWORD PTR [ecx+4]
  00004	85 f6		 test	 esi, esi
  00006	75 04		 jne	 SHORT $L196321
  00008	33 d2		 xor	 edx, edx
  0000a	eb 07		 jmp	 SHORT $L196322
$L196321:
  0000c	8b 51 08	 mov	 edx, DWORD PTR [ecx+8]
  0000f	2b d6		 sub	 edx, esi
  00011	d1 fa		 sar	 edx, 1
$L196322:
  00013	85 f6		 test	 esi, esi
  00015	74 22		 je	 SHORT $L190008
  00017	8b 41 0c	 mov	 eax, DWORD PTR [ecx+12]
  0001a	2b c6		 sub	 eax, esi
  0001c	d1 f8		 sar	 eax, 1
  0001e	3b d0		 cmp	 edx, eax
  00020	73 17		 jae	 SHORT $L190008

; 581  : 			_Mylast = _Ufill(_Mylast, 1, _Val);

  00022	8b 41 08	 mov	 eax, DWORD PTR [ecx+8]
  00025	8b 54 24 08	 mov	 edx, DWORD PTR __Val$[esp]
  00029	66 8b 12	 mov	 dx, WORD PTR [edx]
  0002c	66 89 10	 mov	 WORD PTR [eax], dx
  0002f	83 c0 02	 add	 eax, 2
  00032	89 41 08	 mov	 DWORD PTR [ecx+8], eax
  00035	5e		 pop	 esi

; 584  : 		}

  00036	c2 04 00	 ret	 4
$L190008:

; 582  : 		else
; 583  : 			insert(end(), _Val);

  00039	8b 54 24 08	 mov	 edx, DWORD PTR __Val$[esp]
  0003d	8b 41 08	 mov	 eax, DWORD PTR [ecx+8]
  00040	52		 push	 edx
  00041	6a 01		 push	 1
  00043	50		 push	 eax
  00044	e8 00 00 00 00	 call	 ?_Insert_n@?$vector@GV?$allocator@G@std@@@std@@IAEXViterator@12@IABG@Z ; std::vector<unsigned short,std::allocator<unsigned short> >::_Insert_n
  00049	5e		 pop	 esi

; 584  : 		}

  0004a	c2 04 00	 ret	 4
?push_back@?$vector@GV?$allocator@G@std@@@std@@QAEXABG@Z ENDP ; std::vector<unsigned short,std::allocator<unsigned short> >::push_back
_TEXT	ENDS
PUBLIC	?push_back@?$vector@U_TransformStuffComponent@@V?$allocator@U_TransformStuffComponent@@@std@@@std@@QAEXABU_TransformStuffComponent@@@Z ; std::vector<_TransformStuffComponent,std::allocator<_TransformStuffComponent> >::push_back
; Function compile flags: /Ogty
;	COMDAT ?push_back@?$vector@U_TransformStuffComponent@@V?$allocator@U_TransformStuffComponent@@@std@@@std@@QAEXABU_TransformStuffComponent@@@Z
_TEXT	SEGMENT
__Cat$196535 = 8					; size = 1
__Val$ = 8						; size = 4
?push_back@?$vector@U_TransformStuffComponent@@V?$allocator@U_TransformStuffComponent@@@std@@@std@@QAEXABU_TransformStuffComponent@@@Z PROC NEAR ; std::vector<_TransformStuffComponent,std::allocator<_TransformStuffComponent> >::push_back, COMDAT
; _this$ = ecx

; 579  : 		{	// insert element at end

  00000	56		 push	 esi
  00001	8b f1		 mov	 esi, ecx

; 580  : 		if (size() < capacity())

  00003	8b 56 04	 mov	 edx, DWORD PTR [esi+4]
  00006	85 d2		 test	 edx, edx
  00008	75 04		 jne	 SHORT $L196506
  0000a	33 c9		 xor	 ecx, ecx
  0000c	eb 08		 jmp	 SHORT $L196507
$L196506:
  0000e	8b 4e 08	 mov	 ecx, DWORD PTR [esi+8]
  00011	2b ca		 sub	 ecx, edx
  00013	c1 f9 03	 sar	 ecx, 3
$L196507:
  00016	85 d2		 test	 edx, edx
  00018	74 31		 je	 SHORT $L190030
  0001a	8b 46 0c	 mov	 eax, DWORD PTR [esi+12]
  0001d	2b c2		 sub	 eax, edx
  0001f	c1 f8 03	 sar	 eax, 3
  00022	3b c8		 cmp	 ecx, eax
  00024	73 25		 jae	 SHORT $L190030

; 581  : 			_Mylast = _Ufill(_Mylast, 1, _Val);

  00026	8b 44 24 08	 mov	 eax, DWORD PTR __Cat$196535[esp]
  0002a	8b 4c 24 08	 mov	 ecx, DWORD PTR __Val$[esp]
  0002e	57		 push	 edi
  0002f	8b 7e 08	 mov	 edi, DWORD PTR [esi+8]
  00032	50		 push	 eax
  00033	56		 push	 esi
  00034	51		 push	 ecx
  00035	6a 01		 push	 1
  00037	57		 push	 edi
  00038	e8 00 00 00 00	 call	 ??$_Uninit_fill_n@PAU_TransformStuffComponent@@IU1@V?$allocator@U_TransformStuffComponent@@@std@@@std@@YAXPAU_TransformStuffComponent@@IABU1@AAV?$allocator@U_TransformStuffComponent@@@0@U_Nonscalar_ptr_iterator_tag@0@@Z ; std::_Uninit_fill_n<_TransformStuffComponent *,unsigned int,_TransformStuffComponent,std::allocator<_TransformStuffComponent> >
  0003d	83 c4 14	 add	 esp, 20			; 00000014H
  00040	83 c7 08	 add	 edi, 8
  00043	89 7e 08	 mov	 DWORD PTR [esi+8], edi
  00046	5f		 pop	 edi
  00047	5e		 pop	 esi

; 584  : 		}

  00048	c2 04 00	 ret	 4
$L190030:

; 582  : 		else
; 583  : 			insert(end(), _Val);

  0004b	8b 54 24 08	 mov	 edx, DWORD PTR __Val$[esp]
  0004f	8b 46 08	 mov	 eax, DWORD PTR [esi+8]
  00052	52		 push	 edx
  00053	6a 01		 push	 1
  00055	50		 push	 eax
  00056	8b ce		 mov	 ecx, esi
  00058	e8 00 00 00 00	 call	 ?_Insert_n@?$vector@U_TransformStuffComponent@@V?$allocator@U_TransformStuffComponent@@@std@@@std@@IAEXViterator@12@IABU_TransformStuffComponent@@@Z ; std::vector<_TransformStuffComponent,std::allocator<_TransformStuffComponent> >::_Insert_n
  0005d	5e		 pop	 esi

; 584  : 		}

  0005e	c2 04 00	 ret	 4
?push_back@?$vector@U_TransformStuffComponent@@V?$allocator@U_TransformStuffComponent@@@std@@@std@@QAEXABU_TransformStuffComponent@@@Z ENDP ; std::vector<_TransformStuffComponent,std::allocator<_TransformStuffComponent> >::push_back
_TEXT	ENDS
PUBLIC	?GetMaxEnergy@CPet@@QAEGXZ			; CPet::GetMaxEnergy
; Function compile flags: /Ogty
; File c:\documents and settings\test\mes documents\source\virtuos_v17\build\program\_common\pet.h
;	COMDAT ?GetMaxEnergy@CPet@@QAEGXZ
_TEXT	SEGMENT
?GetMaxEnergy@CPet@@QAEGXZ PROC NEAR			; CPet::GetMaxEnergy, COMDAT
; _this$ = ecx

; 143  : 	WORD	GetMaxEnergy( void )	{	return CPetProperty::GetInstance()->GetMaxEnergy( m_nLevel );	}

  00000	53		 push	 ebx
  00001	8a 59 05	 mov	 bl, BYTE PTR [ecx+5]
  00004	e8 00 00 00 00	 call	 ?GetInstance@CPetProperty@@SAPAV1@XZ ; CPetProperty::GetInstance
  00009	80 fb 01	 cmp	 bl, 1
  0000c	72 12		 jb	 SHORT $L196656
  0000e	80 fb 05	 cmp	 bl, 5
  00011	77 0d		 ja	 SHORT $L196656
  00013	0f b6 cb	 movzx	 ecx, bl
  00016	66 8b 84 48 be
	02 00 00	 mov	 ax, WORD PTR [eax+ecx*2+702]
  0001e	5b		 pop	 ebx
  0001f	c3		 ret	 0
$L196656:
  00020	b8 01 00 00 00	 mov	 eax, 1
  00025	5b		 pop	 ebx
  00026	c3		 ret	 0
?GetMaxEnergy@CPet@@QAEGXZ ENDP				; CPet::GetMaxEnergy
_TEXT	ENDS
PUBLIC	??_C@_0P@DOCAHOFJ@AvailDestParam?$AA@		; `string'
PUBLIC	??_C@_0N@ELNJGIBK@LevelupAvail?$AA@		; `string'
PUBLIC	??_C@_0L@NIFCIDOF@FeedEnergy?$AA@		; `string'
PUBLIC	?LoadScript@CPetProperty@@QAEHPBD@Z		; CPetProperty::LoadScript
PUBLIC	??_C@_0N@FDFFOKED@IncrementExp?$AA@		; `string'
PUBLIC	??_C@_09EENALPJP@MaxEnergy?$AA@			; `string'
PUBLIC	??_C@_0BD@NJHGCLHH@AddLifeProbability?$AA@	; `string'
PUBLIC	??_C@_07FMCMMKEN@Penalty?$AA@			; `string'
EXTRN	?GetNumber@CScanner@@QAEHH@Z:NEAR		; CScanner::GetNumber
EXTRN	?GetFloat@CScanner@@QAEMH@Z:NEAR		; CScanner::GetFloat
EXTRN	__chkstk:NEAR
EXTRN	___security_cookie:DWORD
EXTRN	@__security_check_cookie@4:NEAR
EXTRN	??0CScript@@QAE@H@Z:NEAR			; CScript::CScript
EXTRN	??1CScript@@UAE@XZ:NEAR				; CScript::~CScript
EXTRN	?Load@CScript@@QAEHPBDHH@Z:NEAR			; CScript::Load
EXTRN	?GetToken@CScript@@UAEHH@Z:NEAR			; CScript::GetToken
;	COMDAT xdata$x
; File c:\program files\microsoft visual studio .net 2003\vc7\atlmfc\include\cstringt.h
xdata$x	SEGMENT
$T196858 DD	0ffffffffH
	DD	FLAT:$L196665
$T196830 DD	019930520H
	DD	01H
	DD	FLAT:$T196858
	DD	2 DUP(00H)
	DD	2 DUP(00H)
xdata$x	ENDS
;	COMDAT ??_C@_0P@DOCAHOFJ@AvailDestParam?$AA@
CONST	SEGMENT
??_C@_0P@DOCAHOFJ@AvailDestParam?$AA@ DB 'AvailDestParam', 00H ; `string'
CONST	ENDS
;	COMDAT ??_C@_0N@ELNJGIBK@LevelupAvail?$AA@
CONST	SEGMENT
??_C@_0N@ELNJGIBK@LevelupAvail?$AA@ DB 'LevelupAvail', 00H ; `string'
CONST	ENDS
;	COMDAT ??_C@_0L@NIFCIDOF@FeedEnergy?$AA@
CONST	SEGMENT
??_C@_0L@NIFCIDOF@FeedEnergy?$AA@ DB 'FeedEnergy', 00H	; `string'
CONST	ENDS
;	COMDAT ??_C@_0N@FDFFOKED@IncrementExp?$AA@
CONST	SEGMENT
??_C@_0N@FDFFOKED@IncrementExp?$AA@ DB 'IncrementExp', 00H ; `string'
CONST	ENDS
;	COMDAT ??_C@_09EENALPJP@MaxEnergy?$AA@
CONST	SEGMENT
??_C@_09EENALPJP@MaxEnergy?$AA@ DB 'MaxEnergy', 00H	; `string'
CONST	ENDS
;	COMDAT ??_C@_0BD@NJHGCLHH@AddLifeProbability?$AA@
CONST	SEGMENT
??_C@_0BD@NJHGCLHH@AddLifeProbability?$AA@ DB 'AddLifeProbability', 00H ; `string'
CONST	ENDS
;	COMDAT ??_C@_07FMCMMKEN@Penalty?$AA@
CONST	SEGMENT
??_C@_07FMCMMKEN@Penalty?$AA@ DB 'Penalty', 00H		; `string'
; Function compile flags: /Ogty
; File c:\documents and settings\test\mes documents\source\virtuos_v17\build\program\_common\pet.cpp
CONST	ENDS
;	COMDAT ?LoadScript@CPetProperty@@QAEHPBD@Z
_TEXT	SEGMENT
_wProbability$189708 = -7796				; size = 2
$T196827 = -7792					; size = 4
_fe$189682 = -7788					; size = 12
_s$ = -7776						; size = 7760
__$ArrayPad$ = -16					; size = 4
__$EHRec$ = -12						; size = 12
__$ReturnAddr$ = 4					; size = 4
_szFile$ = 8						; size = 4
?LoadScript@CPetProperty@@QAEHPBD@Z PROC NEAR		; CPetProperty::LoadScript, COMDAT
; _this$ = ecx

; 125  : {

  00000	6a ff		 push	 -1
  00002	68 00 00 00 00	 push	 __ehhandler$?LoadScript@CPetProperty@@QAEHPBD@Z
  00007	64 a1 00 00 00
	00		 mov	 eax, DWORD PTR fs:__except_list
  0000d	50		 push	 eax
  0000e	b8 68 1e 00 00	 mov	 eax, 7784		; 00001e68H
  00013	64 89 25 00 00
	00 00		 mov	 DWORD PTR fs:__except_list, esp
  0001a	e8 00 00 00 00	 call	 __chkstk
  0001f	a1 00 00 00 00	 mov	 eax, DWORD PTR ___security_cookie
  00024	33 c4		 xor	 eax, esp
  00026	56		 push	 esi
  00027	8b b4 24 7c 1e
	00 00		 mov	 esi, DWORD PTR _szFile$[esp+7796]
  0002e	57		 push	 edi
  0002f	8b f9		 mov	 edi, ecx

; 126  : 	CScript s;

  00031	6a 00		 push	 0
  00033	8d 4c 24 20	 lea	 ecx, DWORD PTR _s$[esp+7808]
  00037	89 84 24 70 1e
	00 00		 mov	 DWORD PTR __$ArrayPad$[esp+7808], eax

; 167  : 				}
; 168  : 				nLevel++;

  0003e	89 7c 24 10	 mov	 DWORD PTR $T196827[esp+7808], edi
  00042	e8 00 00 00 00	 call	 ??0CScript@@QAE@H@Z	; CScript::CScript
  00047	6a 00		 push	 0
  00049	6a 01		 push	 1
  0004b	56		 push	 esi
  0004c	8d 4c 24 28	 lea	 ecx, DWORD PTR _s$[esp+7816]
  00050	c7 84 24 84 1e
	00 00 00 00 00
	00		 mov	 DWORD PTR __$EHRec$[esp+7824], 0
  0005b	e8 00 00 00 00	 call	 ?Load@CScript@@QAEHPBDHH@Z ; CScript::Load
  00060	85 c0		 test	 eax, eax
  00062	8d 4c 24 1c	 lea	 ecx, DWORD PTR _s$[esp+7804]
  00066	75 17		 jne	 SHORT $L189644
  00068	c7 84 24 78 1e
	00 00 ff ff ff
	ff		 mov	 DWORD PTR __$EHRec$[esp+7812], -1
  00073	e8 00 00 00 00	 call	 ??1CScript@@UAE@XZ	; CScript::~CScript
  00078	33 c0		 xor	 eax, eax
  0007a	e9 e0 03 00 00	 jmp	 $L189642
$L189644:

; 127  : 	if( s.Load( szFile ) == FALSE )
; 128  : 		return FALSE;
; 129  : 
; 130  : 	s.GetToken();	// subject or FINISHED

  0007f	6a 00		 push	 0
  00081	e8 00 00 00 00	 call	 ?GetToken@CScript@@UAEHH@Z ; CScript::GetToken

; 131  : 	while( s.tok != FINISHED )

  00086	83 bc 24 48 08
	00 00 15	 cmp	 DWORD PTR _s$[esp+9896], 21 ; 00000015H
  0008e	0f 84 b2 03 00
	00		 je	 $L189648
  00094	53		 push	 ebx
  00095	55		 push	 ebp
$L189647:

; 132  : 	{
; 133  : 		if( s.Token == _T( "AvailDestParam" ) )

  00096	8b 44 24 44	 mov	 eax, DWORD PTR _s$[esp+7844]
  0009a	68 00 00 00 00	 push	 OFFSET FLAT:??_C@_0P@DOCAHOFJ@AvailDestParam?$AA@
  0009f	50		 push	 eax
  000a0	e8 00 00 00 00	 call	 __mbscmp
  000a5	83 c4 08	 add	 esp, 8
  000a8	85 c0		 test	 eax, eax
  000aa	0f 85 a9 00 00
	00		 jne	 $L189649

; 137  : 			s.GetToken();	// {

  000b0	50		 push	 eax
  000b1	8d 4c 24 28	 lea	 ecx, DWORD PTR _s$[esp+7816]
  000b5	e8 00 00 00 00	 call	 ?GetToken@CScript@@UAEHH@Z ; CScript::GetToken

; 138  : 			DWORD dwDstParam	= s.GetNumber();

  000ba	6a 00		 push	 0
  000bc	8d 4c 24 28	 lea	 ecx, DWORD PTR _s$[esp+7816]
  000c0	e8 00 00 00 00	 call	 ?GetNumber@CScanner@@QAEHH@Z ; CScanner::GetNumber

; 139  : 			while( *s.token != '}' )

  000c5	8b 4c 24 48	 mov	 ecx, DWORD PTR _s$[esp+7848]
  000c9	80 39 7d	 cmp	 BYTE PTR [ecx], 125	; 0000007dH
  000cc	0f 84 59 03 00
	00		 je	 $L189719

; 134  : 		{
; 135  : 			// 	DST_STR
; 136  : 			int	nKind	= 0;

  000d2	8d 77 08	 lea	 esi, DWORD PTR [edi+8]
$L189654:

; 140  : 			{
; 141  : 				ASSERT( nKind < PK_MAX );
; 142  : 				m_aPetAvailParam[nKind].dwDstParam	= dwDstParam;

  000d5	89 46 fc	 mov	 DWORD PTR [esi-4], eax
  000d8	8b fe		 mov	 edi, esi
  000da	bb 09 00 00 00	 mov	 ebx, 9
  000df	90		 npad	 1
$L189658:

; 143  : 				for( int i = 0; i < MAX_PET_AVAIL_LEVEL; i++ )
; 144  : 					m_aPetAvailParam[nKind].m_anParam[i]	= s.GetNumber();

  000e0	6a 00		 push	 0
  000e2	8d 4c 24 28	 lea	 ecx, DWORD PTR _s$[esp+7816]
  000e6	e8 00 00 00 00	 call	 ?GetNumber@CScanner@@QAEHH@Z ; CScanner::GetNumber
  000eb	89 07		 mov	 DWORD PTR [edi], eax
  000ed	83 c7 04	 add	 edi, 4
  000f0	4b		 dec	 ebx
  000f1	75 ed		 jne	 SHORT $L189658

; 145  : 				m_aPetAvailParam[nKind].m_dwItemId	= s.GetNumber();

  000f3	6a 00		 push	 0
  000f5	8d 4c 24 28	 lea	 ecx, DWORD PTR _s$[esp+7816]
  000f9	e8 00 00 00 00	 call	 ?GetNumber@CScanner@@QAEHH@Z ; CScanner::GetNumber

; 146  : 				m_aPetAvailParam[nKind].m_adwIndex[0]	= s.GetNumber();

  000fe	6a 00		 push	 0
  00100	8d 4c 24 28	 lea	 ecx, DWORD PTR _s$[esp+7816]
  00104	89 46 24	 mov	 DWORD PTR [esi+36], eax
  00107	e8 00 00 00 00	 call	 ?GetNumber@CScanner@@QAEHH@Z ; CScanner::GetNumber

; 147  : 				m_aPetAvailParam[nKind].m_adwIndex[1]	= s.GetNumber();

  0010c	6a 00		 push	 0
  0010e	8d 4c 24 28	 lea	 ecx, DWORD PTR _s$[esp+7816]
  00112	89 46 28	 mov	 DWORD PTR [esi+40], eax
  00115	e8 00 00 00 00	 call	 ?GetNumber@CScanner@@QAEHH@Z ; CScanner::GetNumber

; 148  : 				m_aPetAvailParam[nKind].m_adwIndex[2]	= s.GetNumber();

  0011a	6a 00		 push	 0
  0011c	8d 4c 24 28	 lea	 ecx, DWORD PTR _s$[esp+7816]
  00120	89 46 2c	 mov	 DWORD PTR [esi+44], eax
  00123	e8 00 00 00 00	 call	 ?GetNumber@CScanner@@QAEHH@Z ; CScanner::GetNumber

; 149  : 				m_aPetAvailParam[nKind++].m_dwProbability	= s.GetNumber();

  00128	6a 00		 push	 0
  0012a	8d 4c 24 28	 lea	 ecx, DWORD PTR _s$[esp+7816]
  0012e	89 46 30	 mov	 DWORD PTR [esi+48], eax
  00131	e8 00 00 00 00	 call	 ?GetNumber@CScanner@@QAEHH@Z ; CScanner::GetNumber
  00136	89 46 34	 mov	 DWORD PTR [esi+52], eax

; 150  : 				dwDstParam	= s.GetNumber();

  00139	6a 00		 push	 0
  0013b	8d 4c 24 28	 lea	 ecx, DWORD PTR _s$[esp+7816]
  0013f	83 c6 3c	 add	 esi, 60			; 0000003cH
  00142	e8 00 00 00 00	 call	 ?GetNumber@CScanner@@QAEHH@Z ; CScanner::GetNumber
  00147	8b 54 24 48	 mov	 edx, DWORD PTR _s$[esp+7848]
  0014b	80 3a 7d	 cmp	 BYTE PTR [edx], 125	; 0000007dH
  0014e	75 85		 jne	 SHORT $L189654

; 151  : 			}
; 152  : 		}
; 153  : 		else if( s.Token == _T( "LevelupAvail" ) )

  00150	8b 7c 24 14	 mov	 edi, DWORD PTR $T196827[esp+7812]
  00154	e9 d2 02 00 00	 jmp	 $L189719
$L189649:
  00159	8b 44 24 44	 mov	 eax, DWORD PTR _s$[esp+7844]
  0015d	68 00 00 00 00	 push	 OFFSET FLAT:??_C@_0N@ELNJGIBK@LevelupAvail?$AA@
  00162	50		 push	 eax
  00163	e8 00 00 00 00	 call	 __mbscmp
  00168	83 c4 08	 add	 esp, 8
  0016b	85 c0		 test	 eax, eax
  0016d	75 7f		 jne	 SHORT $L189662

; 154  : 		{
; 155  : 			// 	10000	0	0	0	0	0	0	0	0
; 156  : 			int	nLevel	= (int)PL_D;
; 157  : 			s.GetToken();	// {{

  0016f	50		 push	 eax
  00170	8d 4c 24 28	 lea	 ecx, DWORD PTR _s$[esp+7816]
  00174	e8 00 00 00 00	 call	 ?GetToken@CScript@@UAEHH@Z ; CScript::GetToken

; 158  : 			DWORD	dwProbability	= s.GetNumber();

  00179	6a 00		 push	 0
  0017b	8d 4c 24 28	 lea	 ecx, DWORD PTR _s$[esp+7816]
  0017f	e8 00 00 00 00	 call	 ?GetNumber@CScanner@@QAEHH@Z ; CScanner::GetNumber

; 159  : 			while( *s.token != '}' )

  00184	8b 4c 24 48	 mov	 ecx, DWORD PTR _s$[esp+7848]
  00188	80 39 7d	 cmp	 BYTE PTR [ecx], 125	; 0000007dH
  0018b	0f 84 9a 02 00
	00		 je	 $L189719
  00191	8d af a9 01 00
	00		 lea	 ebp, DWORD PTR [edi+425]
  00197	81 c7 d8 01 00
	00		 add	 edi, 472		; 000001d8H
  0019d	8d 49 00	 npad	 3
$L189668:

; 160  : 			{
; 161  : 				m_adwLevelupAvailLevelProbability[nLevel][0]	= dwProbability;

  001a0	89 47 fc	 mov	 DWORD PTR [edi-4], eax

; 162  : 				for( int i = 1; i < MAX_PET_AVAIL_LEVEL; i++ )

  001a3	bb 01 00 00 00	 mov	 ebx, 1
  001a8	8b f7		 mov	 esi, edi
  001aa	8d 9b 00 00 00
	00		 npad	 6
$L189671:

; 163  : 				{
; 164  : 					m_adwLevelupAvailLevelProbability[nLevel][i]	= s.GetNumber();

  001b0	6a 00		 push	 0
  001b2	8d 4c 24 28	 lea	 ecx, DWORD PTR _s$[esp+7816]
  001b6	e8 00 00 00 00	 call	 ?GetNumber@CScanner@@QAEHH@Z ; CScanner::GetNumber

; 165  : 					if( m_adwLevelupAvailLevelProbability[nLevel][i] > 0 )

  001bb	85 c0		 test	 eax, eax
  001bd	89 06		 mov	 DWORD PTR [esi], eax
  001bf	76 03		 jbe	 SHORT $L189672

; 166  : 						m_anLevelupAvailLevelMax[nLevel]	= i;

  001c1	88 5d 00	 mov	 BYTE PTR [ebp], bl
$L189672:

; 162  : 				for( int i = 1; i < MAX_PET_AVAIL_LEVEL; i++ )

  001c4	43		 inc	 ebx
  001c5	83 c6 04	 add	 esi, 4
  001c8	83 fb 09	 cmp	 ebx, 9
  001cb	7c e3		 jl	 SHORT $L189671

; 167  : 				}
; 168  : 				nLevel++;

  001cd	83 c7 24	 add	 edi, 36			; 00000024H

; 169  : 				dwProbability	= s.GetNumber();

  001d0	6a 00		 push	 0
  001d2	8d 4c 24 28	 lea	 ecx, DWORD PTR _s$[esp+7816]
  001d6	45		 inc	 ebp
  001d7	e8 00 00 00 00	 call	 ?GetNumber@CScanner@@QAEHH@Z ; CScanner::GetNumber
  001dc	8b 54 24 48	 mov	 edx, DWORD PTR _s$[esp+7848]
  001e0	80 3a 7d	 cmp	 BYTE PTR [edx], 125	; 0000007dH
  001e3	75 bb		 jne	 SHORT $L189668

; 170  : 			}
; 171  : 		}
; 172  : 		else if( s.Token == _T( "FeedEnergy" ) )

  001e5	8b 7c 24 14	 mov	 edi, DWORD PTR $T196827[esp+7812]
  001e9	e9 3d 02 00 00	 jmp	 $L189719
$L189662:
  001ee	8b 44 24 44	 mov	 eax, DWORD PTR _s$[esp+7844]
  001f2	68 00 00 00 00	 push	 OFFSET FLAT:??_C@_0L@NIFCIDOF@FeedEnergy?$AA@
  001f7	50		 push	 eax
  001f8	e8 00 00 00 00	 call	 __mbscmp
  001fd	83 c4 08	 add	 esp, 8
  00200	85 c0		 test	 eax, eax
  00202	0f 85 93 00 00
	00		 jne	 $L189676

; 173  : 		{
; 174  : 			int nIndex	= s.GetNumber();

  00208	50		 push	 eax
  00209	8d 4c 24 28	 lea	 ecx, DWORD PTR _s$[esp+7816]
  0020d	e8 00 00 00 00	 call	 ?GetNumber@CScanner@@QAEHH@Z ; CScanner::GetNumber

; 175  : 			ASSERT( nIndex >= 0 && nIndex <= 1 );
; 176  : 
; 177  : 			vector<FEEDENERGY>* pArr	= &m_aFeedEnergy[nIndex];

  00212	c1 e0 04	 shl	 eax, 4

; 178  : 			// 	1	575	7	14
; 179  : 			FEEDENERGY	fe;
; 180  : 			s.GetToken();	// {

  00215	6a 00		 push	 0
  00217	8d 4c 24 28	 lea	 ecx, DWORD PTR _s$[esp+7816]
  0021b	8d b4 38 88 02
	00 00		 lea	 esi, DWORD PTR [eax+edi+648]
  00222	e8 00 00 00 00	 call	 ?GetToken@CScript@@UAEHH@Z ; CScript::GetToken

; 181  : 			fe.dwCostMin	= s.GetNumber();

  00227	6a 00		 push	 0
  00229	8d 4c 24 28	 lea	 ecx, DWORD PTR _s$[esp+7816]
  0022d	e8 00 00 00 00	 call	 ?GetNumber@CScanner@@QAEHH@Z ; CScanner::GetNumber

; 182  : 			while( *s.token != '}' )

  00232	8b 4c 24 48	 mov	 ecx, DWORD PTR _s$[esp+7848]
  00236	89 44 24 18	 mov	 DWORD PTR _fe$189682[esp+7812], eax
  0023a	80 39 7d	 cmp	 BYTE PTR [ecx], 125	; 0000007dH
  0023d	0f 84 e8 01 00
	00		 je	 $L189719
$L189684:

; 183  : 			{
; 184  : 				fe.dwCostMax	= s.GetNumber();

  00243	6a 00		 push	 0
  00245	8d 4c 24 28	 lea	 ecx, DWORD PTR _s$[esp+7816]
  00249	e8 00 00 00 00	 call	 ?GetNumber@CScanner@@QAEHH@Z ; CScanner::GetNumber

; 185  : 				fe.wEnergyMin	= s.GetNumber();

  0024e	6a 00		 push	 0
  00250	8d 4c 24 28	 lea	 ecx, DWORD PTR _s$[esp+7816]
  00254	89 44 24 20	 mov	 DWORD PTR _fe$189682[esp+7820], eax
  00258	e8 00 00 00 00	 call	 ?GetNumber@CScanner@@QAEHH@Z ; CScanner::GetNumber

; 186  : 				fe.wEnergyMax	= s.GetNumber();

  0025d	6a 00		 push	 0
  0025f	8d 4c 24 28	 lea	 ecx, DWORD PTR _s$[esp+7816]
  00263	66 89 44 24 24	 mov	 WORD PTR _fe$189682[esp+7824], ax
  00268	e8 00 00 00 00	 call	 ?GetNumber@CScanner@@QAEHH@Z ; CScanner::GetNumber

; 187  : 				pArr->push_back( fe );	// add

  0026d	8d 54 24 18	 lea	 edx, DWORD PTR _fe$189682[esp+7812]
  00271	52		 push	 edx
  00272	8b ce		 mov	 ecx, esi
  00274	66 89 44 24 26	 mov	 WORD PTR _fe$189682[esp+7826], ax
  00279	e8 00 00 00 00	 call	 ?push_back@?$vector@U_FEEDENERGY@@V?$allocator@U_FEEDENERGY@@@std@@@std@@QAEXABU_FEEDENERGY@@@Z ; std::vector<_FEEDENERGY,std::allocator<_FEEDENERGY> >::push_back

; 188  : 				fe.dwCostMin	= s.GetNumber();

  0027e	6a 00		 push	 0
  00280	8d 4c 24 28	 lea	 ecx, DWORD PTR _s$[esp+7816]
  00284	e8 00 00 00 00	 call	 ?GetNumber@CScanner@@QAEHH@Z ; CScanner::GetNumber
  00289	89 44 24 18	 mov	 DWORD PTR _fe$189682[esp+7812], eax
  0028d	8b 44 24 48	 mov	 eax, DWORD PTR _s$[esp+7848]
  00291	80 38 7d	 cmp	 BYTE PTR [eax], 125	; 0000007dH
  00294	75 ad		 jne	 SHORT $L189684

; 189  : 			}
; 190  : 		}
; 191  : 		else if( s.Token == _T( "IncrementExp" ) )

  00296	e9 90 01 00 00	 jmp	 $L189719
$L189676:
  0029b	8b 4c 24 44	 mov	 ecx, DWORD PTR _s$[esp+7844]
  0029f	68 00 00 00 00	 push	 OFFSET FLAT:??_C@_0N@FDFFOKED@IncrementExp?$AA@
  002a4	51		 push	 ecx
  002a5	e8 00 00 00 00	 call	 __mbscmp
  002aa	83 c4 08	 add	 esp, 8
  002ad	85 c0		 test	 eax, eax
  002af	75 4d		 jne	 SHORT $L189687

; 195  : 			s.GetToken();	// {

  002b1	50		 push	 eax
  002b2	8d 4c 24 28	 lea	 ecx, DWORD PTR _s$[esp+7816]
  002b6	e8 00 00 00 00	 call	 ?GetToken@CScript@@UAEHH@Z ; CScript::GetToken

; 196  : 			DWORD	dwIncrementExp	= s.GetNumber();

  002bb	6a 00		 push	 0
  002bd	8d 4c 24 28	 lea	 ecx, DWORD PTR _s$[esp+7816]
  002c1	e8 00 00 00 00	 call	 ?GetNumber@CScanner@@QAEHH@Z ; CScanner::GetNumber

; 197  : 			while( *s.token != '}' )

  002c6	8b 54 24 48	 mov	 edx, DWORD PTR _s$[esp+7848]
  002ca	80 3a 7d	 cmp	 BYTE PTR [edx], 125	; 0000007dH
  002cd	0f 84 58 01 00
	00		 je	 $L189719

; 192  : 		{
; 193  : 			//	100	// 0.1%	// 100000분의 1 기준
; 194  : 			int	nLevel	= 0;

  002d3	8d b7 a8 02 00
	00		 lea	 esi, DWORD PTR [edi+680]
  002d9	8d a4 24 00 00
	00 00		 npad	 7
$L189692:

; 198  : 			{
; 199  : 				ASSERT( nLevel < PL_S );
; 200  : 				m_adwIncrementExp[nLevel++]	= dwIncrementExp;

  002e0	89 06		 mov	 DWORD PTR [esi], eax

; 201  : 				dwIncrementExp	= s.GetNumber();

  002e2	6a 00		 push	 0
  002e4	8d 4c 24 28	 lea	 ecx, DWORD PTR _s$[esp+7816]
  002e8	83 c6 04	 add	 esi, 4
  002eb	e8 00 00 00 00	 call	 ?GetNumber@CScanner@@QAEHH@Z ; CScanner::GetNumber
  002f0	8b 4c 24 48	 mov	 ecx, DWORD PTR _s$[esp+7848]
  002f4	80 39 7d	 cmp	 BYTE PTR [ecx], 125	; 0000007dH
  002f7	75 e7		 jne	 SHORT $L189692

; 202  : 			}
; 203  : 		}
; 204  : 		else if( s.Token == _T( "MaxEnergy" ) )

  002f9	e9 2d 01 00 00	 jmp	 $L189719
$L189687:
  002fe	8b 54 24 44	 mov	 edx, DWORD PTR _s$[esp+7844]
  00302	68 00 00 00 00	 push	 OFFSET FLAT:??_C@_09EENALPJP@MaxEnergy?$AA@
  00307	52		 push	 edx
  00308	e8 00 00 00 00	 call	 __mbscmp
  0030d	83 c4 08	 add	 esp, 8
  00310	85 c0		 test	 eax, eax
  00312	75 4b		 jne	 SHORT $L189696

; 208  : 			s.GetToken();	// {

  00314	50		 push	 eax
  00315	8d 4c 24 28	 lea	 ecx, DWORD PTR _s$[esp+7816]
  00319	e8 00 00 00 00	 call	 ?GetToken@CScript@@UAEHH@Z ; CScript::GetToken

; 209  : 			DWORD	dwMaxEnergy	= s.GetNumber();

  0031e	6a 00		 push	 0
  00320	8d 4c 24 28	 lea	 ecx, DWORD PTR _s$[esp+7816]
  00324	e8 00 00 00 00	 call	 ?GetNumber@CScanner@@QAEHH@Z ; CScanner::GetNumber

; 210  : 			while( *s.token != '}' )

  00329	8b 4c 24 48	 mov	 ecx, DWORD PTR _s$[esp+7848]
  0032d	80 39 7d	 cmp	 BYTE PTR [ecx], 125	; 0000007dH
  00330	0f 84 f5 00 00
	00		 je	 $L189719

; 205  : 		{
; 206  : 			//	250	// D	// 최대 기력
; 207  : 			int	nLevel	= 0;

  00336	8d b7 c0 02 00
	00		 lea	 esi, DWORD PTR [edi+704]
  0033c	8d 64 24 00	 npad	 4
$L189701:

; 211  : 			{
; 212  : 				ASSERT( nLevel <= PL_S );
; 213  : 				m_awMaxEnergy[nLevel++]	= (WORD)( dwMaxEnergy );

  00340	66 89 06	 mov	 WORD PTR [esi], ax

; 214  : 				dwMaxEnergy		= s.GetNumber();

  00343	6a 00		 push	 0
  00345	8d 4c 24 28	 lea	 ecx, DWORD PTR _s$[esp+7816]
  00349	83 c6 02	 add	 esi, 2
  0034c	e8 00 00 00 00	 call	 ?GetNumber@CScanner@@QAEHH@Z ; CScanner::GetNumber
  00351	8b 54 24 48	 mov	 edx, DWORD PTR _s$[esp+7848]
  00355	80 3a 7d	 cmp	 BYTE PTR [edx], 125	; 0000007dH
  00358	75 e6		 jne	 SHORT $L189701

; 215  : 			}
; 216  : 		}
; 217  : 		else if( s.Token == _T( "AddLifeProbability" ) )

  0035a	e9 cc 00 00 00	 jmp	 $L189719
$L189696:
  0035f	8b 44 24 44	 mov	 eax, DWORD PTR _s$[esp+7844]
  00363	68 00 00 00 00	 push	 OFFSET FLAT:??_C@_0BD@NJHGCLHH@AddLifeProbability?$AA@
  00368	50		 push	 eax
  00369	e8 00 00 00 00	 call	 __mbscmp
  0036e	83 c4 08	 add	 esp, 8
  00371	85 c0		 test	 eax, eax
  00373	75 52		 jne	 SHORT $L189706

; 218  : 		{
; 219  : 			// 수명 회복액 확률	// 추가 될 경우 합이 100이 되도록 확장
; 220  : 			// 	50	// +1
; 221  : 			s.GetToken();	// {

  00375	50		 push	 eax
  00376	8d 4c 24 28	 lea	 ecx, DWORD PTR _s$[esp+7816]
  0037a	e8 00 00 00 00	 call	 ?GetToken@CScript@@UAEHH@Z ; CScript::GetToken

; 222  : 			WORD wProbability	= s.GetNumber();

  0037f	6a 00		 push	 0
  00381	8d 4c 24 28	 lea	 ecx, DWORD PTR _s$[esp+7816]
  00385	e8 00 00 00 00	 call	 ?GetNumber@CScanner@@QAEHH@Z ; CScanner::GetNumber

; 223  : 			while( *s.token != '}' )

  0038a	8b 4c 24 48	 mov	 ecx, DWORD PTR _s$[esp+7848]
  0038e	89 44 24 10	 mov	 DWORD PTR _wProbability$189708[esp+7812], eax
  00392	80 39 7d	 cmp	 BYTE PTR [ecx], 125	; 0000007dH
  00395	0f 84 90 00 00
	00		 je	 $L189719
  0039b	8d b7 cc 02 00
	00		 lea	 esi, DWORD PTR [edi+716]
$L189710:

; 224  : 			{
; 225  : 				m_awAddLifeProbability.push_back( wProbability );

  003a1	8d 54 24 10	 lea	 edx, DWORD PTR _wProbability$189708[esp+7812]
  003a5	52		 push	 edx
  003a6	8b ce		 mov	 ecx, esi
  003a8	e8 00 00 00 00	 call	 ?push_back@?$vector@GV?$allocator@G@std@@@std@@QAEXABG@Z ; std::vector<unsigned short,std::allocator<unsigned short> >::push_back

; 226  : 				wProbability	= s.GetNumber();

  003ad	6a 00		 push	 0
  003af	8d 4c 24 28	 lea	 ecx, DWORD PTR _s$[esp+7816]
  003b3	e8 00 00 00 00	 call	 ?GetNumber@CScanner@@QAEHH@Z ; CScanner::GetNumber
  003b8	89 44 24 10	 mov	 DWORD PTR _wProbability$189708[esp+7812], eax
  003bc	8b 44 24 48	 mov	 eax, DWORD PTR _s$[esp+7848]
  003c0	80 38 7d	 cmp	 BYTE PTR [eax], 125	; 0000007dH
  003c3	75 dc		 jne	 SHORT $L189710

; 227  : 			}
; 228  : 		}
; 229  : 		else if( s.Token == _T( "Penalty" ) )

  003c5	eb 64		 jmp	 SHORT $L189719
$L189706:
  003c7	8b 4c 24 44	 mov	 ecx, DWORD PTR _s$[esp+7844]
  003cb	68 00 00 00 00	 push	 OFFSET FLAT:??_C@_07FMCMMKEN@Penalty?$AA@
  003d0	51		 push	 ecx
  003d1	e8 00 00 00 00	 call	 __mbscmp
  003d6	83 c4 08	 add	 esp, 8
  003d9	85 c0		 test	 eax, eax
  003db	75 4e		 jne	 SHORT $L189719

; 230  : 		{
; 231  : 			// Pet 소환 후 해제 시 D~A레벨에선 경험치를 잃게 되며,
; 232  : 			// 최소 0%에서는 더 이상 감소하지 않는다. 
; 233  : 			// S레벨에선 HP가 감소하며, 최소 5P 이하로는 더 이상 감소하지 않는다. 
; 234  : 			s.GetToken();	// {

  003dd	50		 push	 eax
  003de	8d 4c 24 28	 lea	 ecx, DWORD PTR _s$[esp+7816]
  003e2	e8 00 00 00 00	 call	 ?GetToken@CScript@@UAEHH@Z ; CScript::GetToken

; 235  : 			FLOAT fExp	= s.GetFloat();

  003e7	6a 00		 push	 0
  003e9	8d 4c 24 28	 lea	 ecx, DWORD PTR _s$[esp+7816]
  003ed	e8 00 00 00 00	 call	 ?GetFloat@CScanner@@QAEMH@Z ; CScanner::GetFloat

; 236  : 			int nLevel	= PL_D;
; 237  : 			while( *s.token != '}' )

  003f2	8b 54 24 48	 mov	 edx, DWORD PTR _s$[esp+7848]
  003f6	80 3a 7d	 cmp	 BYTE PTR [edx], 125	; 0000007dH
  003f9	74 2e		 je	 SHORT $L196851

; 230  : 		{
; 231  : 			// Pet 소환 후 해제 시 D~A레벨에선 경험치를 잃게 되며,
; 232  : 			// 최소 0%에서는 더 이상 감소하지 않는다. 
; 233  : 			// S레벨에선 HP가 감소하며, 최소 5P 이하로는 더 이상 감소하지 않는다. 
; 234  : 			s.GetToken();	// {

  003fb	8d b7 e8 02 00
	00		 lea	 esi, DWORD PTR [edi+744]
$L189718:

; 238  : 			{
; 239  : 				m_aPenalty[nLevel].fExp		= fExp;
; 240  : 				m_aPenalty[nLevel].wEnergy	= (WORD)s.GetNumber();

  00401	6a 00		 push	 0
  00403	d9 5e fc	 fstp	 DWORD PTR [esi-4]
  00406	8d 4c 24 28	 lea	 ecx, DWORD PTR _s$[esp+7816]
  0040a	e8 00 00 00 00	 call	 ?GetNumber@CScanner@@QAEHH@Z ; CScanner::GetNumber
  0040f	66 89 06	 mov	 WORD PTR [esi], ax

; 241  : 				nLevel++;
; 242  : 				fExp	= s.GetFloat();

  00412	6a 00		 push	 0
  00414	8d 4c 24 28	 lea	 ecx, DWORD PTR _s$[esp+7816]
  00418	83 c6 08	 add	 esi, 8
  0041b	e8 00 00 00 00	 call	 ?GetFloat@CScanner@@QAEMH@Z ; CScanner::GetFloat
  00420	8b 44 24 48	 mov	 eax, DWORD PTR _s$[esp+7848]
  00424	80 38 7d	 cmp	 BYTE PTR [eax], 125	; 0000007dH
  00427	75 d8		 jne	 SHORT $L189718
$L196851:

; 235  : 			FLOAT fExp	= s.GetFloat();

  00429	dd d8		 fstp	 ST(0)
$L189719:

; 243  : 			}
; 244  : 		}
; 245  : 		s.GetToken();

  0042b	6a 00		 push	 0
  0042d	8d 4c 24 28	 lea	 ecx, DWORD PTR _s$[esp+7816]
  00431	e8 00 00 00 00	 call	 ?GetToken@CScript@@UAEHH@Z ; CScript::GetToken
  00436	83 bc 24 50 08
	00 00 15	 cmp	 DWORD PTR _s$[esp+9904], 21 ; 00000015H
  0043e	0f 85 52 fc ff
	ff		 jne	 $L189647
  00444	5d		 pop	 ebp
  00445	5b		 pop	 ebx
$L189648:

; 246  : 	}
; 247  : 
; 248  : /*
; 249  : #ifdef _DEBUG
; 250  : 	TRACE( "GetAvailParam\n" );
; 251  : 	for( int i = 0; i < PK_MAX; i++ )
; 252  : 	{
; 253  : 		PPETAVAILPARAM pPetAvailParam	= GetAvailParam( i );
; 254  : 		TRACE( "dwDstParam=%d, nBase=%d, nParam=%d\n", pPetAvailParam->dwDstParam, pPetAvailParam->nBase, pPetAvailParam->nParam );
; 255  : 	}
; 256  : 	TRACE( "GetLevelupAvailLevel\n" );
; 257  : 	// 0은 모두 0이어야 한다.
; 258  : 	for( i = PL_EGG; i < PL_MAX; i++ )
; 259  : 	{
; 260  : 		for( int j = 0; j < 100; j++ )
; 261  : 		{
; 262  : 			BYTE nAvailLevel	= GetLevelupAvailLevel( i );
; 263  : 			TRACE( "PetLevel=%d, AvailLevel=%d\n", i, nAvailLevel );
; 264  : 		}
; 265  : 	}
; 266  : 
; 267  : 	TRACE( "\nGetFeedEnergy\n" );
; 268  : 	for( i = 1; i <= 100; i++ )
; 269  : 	{
; 270  : 		DWORD dwCost	= i * 120;
; 271  : 		WORD wEnergy	= GetFeedEnergy( dwCost );
; 272  : 		TRACE( "dwCost=%d, wEnergy=%d\n", dwCost, wEnergy );
; 273  : 	}
; 274  : 	TRACE( "\nGetIncrementExp\n" );
; 275  : 	for( i = PL_D; i < PL_MAX; i++ )
; 276  : 		TRACE( "nLevel=%d, IncrementExp=%d\n", i, GetIncrementExp( (PETLEVEL)i ) );
; 277  : 
; 278  : 	TRACE( "\nGetMaxEnergy\n" );
; 279  : 	for( i = PL_D; i < PL_MAX; i++ )
; 280  : 		TRACE( "nLevel=%d, MaxEnergy=%d\n", i, GetMaxEnergy( (PETLEVEL)i ) );
; 281  : 
; 282  : 	TRACE( "\nGetAddLife\n" );
; 283  : 	for( i = 0; i < 100; i++ )
; 284  : 	{
; 285  : 		TRACE( "AddLife=%d\n", GetAddLife() );
; 286  : 	}
; 287  : #endif	// _DEBUG
; 288  : */
; 289  : 	return TRUE;

  00446	8d 4c 24 1c	 lea	 ecx, DWORD PTR _s$[esp+7804]
  0044a	c7 84 24 78 1e
	00 00 ff ff ff
	ff		 mov	 DWORD PTR __$EHRec$[esp+7812], -1
  00455	e8 00 00 00 00	 call	 ??1CScript@@UAE@XZ	; CScript::~CScript
  0045a	b8 01 00 00 00	 mov	 eax, 1
$L189642:

; 290  : }

  0045f	8b 8c 24 70 1e
	00 00		 mov	 ecx, DWORD PTR __$EHRec$[esp+7804]
  00466	5f		 pop	 edi
  00467	64 89 0d 00 00
	00 00		 mov	 DWORD PTR fs:__except_list, ecx
  0046e	8b 8c 24 68 1e
	00 00		 mov	 ecx, DWORD PTR __$ArrayPad$[esp+7800]
  00475	5e		 pop	 esi
  00476	33 cc		 xor	 ecx, esp
  00478	e8 00 00 00 00	 call	 @__security_check_cookie@4
  0047d	81 c4 74 1e 00
	00		 add	 esp, 7796		; 00001e74H
  00483	c2 04 00	 ret	 4
_TEXT	ENDS
;	COMDAT text$x
text$x	SEGMENT
$L196665:
  00000	8d 8d a0 e1 ff
	ff		 lea	 ecx, DWORD PTR _s$[ebp]
  00006	e9 00 00 00 00	 jmp	 ??1CScript@@UAE@XZ	; CScript::~CScript
__ehhandler$?LoadScript@CPetProperty@@QAEHPBD@Z:
  0000b	b8 00 00 00 00	 mov	 eax, OFFSET FLAT:$T196830
  00010	e9 00 00 00 00	 jmp	 ___CxxFrameHandler
text$x	ENDS
?LoadScript@CPetProperty@@QAEHPBD@Z ENDP		; CPetProperty::LoadScript
PUBLIC	?InitEgg@CPet@@QAEXXZ				; CPet::InitEgg
; Function compile flags: /Ogty
;	COMDAT ?InitEgg@CPet@@QAEXXZ
_TEXT	SEGMENT
?InitEgg@CPet@@QAEXXZ PROC NEAR				; CPet::InitEgg, COMDAT
; _this$ = ecx

; 404  : {

  00000	53		 push	 ebx
  00001	56		 push	 esi
  00002	8b f1		 mov	 esi, ecx

; 405  : 	SetLife( nDefaultLife );
; 406  : 	SetEnergy( GetMaxEnergy() );

  00004	8a 5e 05	 mov	 bl, BYTE PTR [esi+5]
  00007	66 c7 46 0e 01
	00		 mov	 WORD PTR [esi+14], 1
  0000d	e8 00 00 00 00	 call	 ?GetInstance@CPetProperty@@SAPAV1@XZ ; CPetProperty::GetInstance
  00012	80 fb 01	 cmp	 bl, 1
  00015	72 17		 jb	 SHORT $L196876
  00017	80 fb 05	 cmp	 bl, 5
  0001a	77 12		 ja	 SHORT $L196876
  0001c	0f b6 cb	 movzx	 ecx, bl
  0001f	66 8b 84 48 be
	02 00 00	 mov	 ax, WORD PTR [eax+ecx*2+702]
  00027	66 89 46 0c	 mov	 WORD PTR [esi+12], ax
  0002b	5e		 pop	 esi
  0002c	5b		 pop	 ebx

; 407  : }

  0002d	c3		 ret	 0

; 405  : 	SetLife( nDefaultLife );
; 406  : 	SetEnergy( GetMaxEnergy() );

$L196876:
  0002e	b8 01 00 00 00	 mov	 eax, 1
  00033	66 89 46 0c	 mov	 WORD PTR [esi+12], ax
  00037	5e		 pop	 esi
  00038	5b		 pop	 ebx

; 407  : }

  00039	c3		 ret	 0
?InitEgg@CPet@@QAEXXZ ENDP				; CPet::InitEgg
_TEXT	ENDS
PUBLIC	?AddComponent@CTransformStuff@@QAEXHF@Z		; CTransformStuff::AddComponent
; Function compile flags: /Ogty
;	COMDAT ?AddComponent@CTransformStuff@@QAEXHF@Z
_TEXT	SEGMENT
_component$ = -8					; size = 8
_nItem$ = 8						; size = 4
_nNum$ = 12						; size = 2
?AddComponent@CTransformStuff@@QAEXHF@Z PROC NEAR	; CTransformStuff::AddComponent, COMDAT
; _this$ = ecx

; 687  : {

  00000	83 ec 08	 sub	 esp, 8

; 688  : 	TransformStuffComponent component( nItem, nNum );

  00003	8b 44 24 0c	 mov	 eax, DWORD PTR _nItem$[esp+4]
  00007	66 8b 54 24 10	 mov	 dx, WORD PTR _nNum$[esp+4]
  0000c	89 04 24	 mov	 DWORD PTR _component$[esp+8], eax

; 689  : 	m_vComponents.push_back( component );

  0000f	8d 04 24	 lea	 eax, DWORD PTR _component$[esp+8]
  00012	50		 push	 eax
  00013	83 c1 08	 add	 ecx, 8
  00016	66 89 54 24 08	 mov	 WORD PTR _component$[esp+16], dx
  0001b	e8 00 00 00 00	 call	 ?push_back@?$vector@U_TransformStuffComponent@@V?$allocator@U_TransformStuffComponent@@@std@@@std@@QAEXABU_TransformStuffComponent@@@Z ; std::vector<_TransformStuffComponent,std::allocator<_TransformStuffComponent> >::push_back

; 690  : }

  00020	83 c4 08	 add	 esp, 8
  00023	c2 08 00	 ret	 8
?AddComponent@CTransformStuff@@QAEXHF@Z ENDP		; CTransformStuff::AddComponent
; Function compile flags: /Ogty
_TEXT	ENDS
;	COMDAT ?Serialize@CTransformStuff@@UAEXAAVCAr@@@Z
_TEXT	SEGMENT
tv293 = -20						; size = 4
__Cat$197240 = -20					; size = 1
_component$189839 = -16					; size = 8
_component$197219 = -8					; size = 8
_ar$ = 8						; size = 4
?Serialize@CTransformStuff@@UAEXAAVCAr@@@Z PROC NEAR	; CTransformStuff::Serialize, COMDAT
; _this$ = ecx

; 693  : {

  00000	55		 push	 ebp
  00001	8b ec		 mov	 ebp, esp
  00003	83 e4 f8	 and	 esp, -8			; fffffff8H
  00006	83 ec 14	 sub	 esp, 20			; 00000014H
  00009	53		 push	 ebx
  0000a	56		 push	 esi

; 694  : 	if( ar.IsStoring() )

  0000b	8b 75 08	 mov	 esi, DWORD PTR _ar$[ebp]
  0000e	33 c0		 xor	 eax, eax
  00010	8a 06		 mov	 al, BYTE PTR [esi]
  00012	57		 push	 edi
  00013	8b f9		 mov	 edi, ecx
  00015	f7 d0		 not	 eax
  00017	a8 01		 test	 al, 1
  00019	74 63		 je	 SHORT $L189825

; 695  : 	{
; 696  : 		ar << m_nTransform;

  0001b	8b 5f 04	 mov	 ebx, DWORD PTR [edi+4]
  0001e	6a 04		 push	 4
  00020	8b ce		 mov	 ecx, esi
  00022	e8 00 00 00 00	 call	 ?CheckBuf@CAr@@QAEXI@Z	; CAr::CheckBuf
  00027	8b 4e 08	 mov	 ecx, DWORD PTR [esi+8]
  0002a	89 19		 mov	 DWORD PTR [ecx], ebx
  0002c	83 46 08 04	 add	 DWORD PTR [esi+8], 4

; 697  : 		ar << m_vComponents.size();

  00030	8b 47 0c	 mov	 eax, DWORD PTR [edi+12]
  00033	85 c0		 test	 eax, eax
  00035	75 04		 jne	 SHORT $L196907
  00037	33 db		 xor	 ebx, ebx
  00039	eb 08		 jmp	 SHORT $L196908
$L196907:
  0003b	8b 5f 10	 mov	 ebx, DWORD PTR [edi+16]
  0003e	2b d8		 sub	 ebx, eax
  00040	c1 fb 03	 sar	 ebx, 3
$L196908:
  00043	6a 04		 push	 4
  00045	8b ce		 mov	 ecx, esi
  00047	e8 00 00 00 00	 call	 ?CheckBuf@CAr@@QAEXI@Z	; CAr::CheckBuf
  0004c	8b 56 08	 mov	 edx, DWORD PTR [esi+8]
  0004f	89 1a		 mov	 DWORD PTR [edx], ebx
  00051	83 46 08 04	 add	 DWORD PTR [esi+8], 4

; 698  : 		for( VTSC::iterator i = m_vComponents.begin(); i != m_vComponents.end(); ++i )

  00055	8b 5f 0c	 mov	 ebx, DWORD PTR [edi+12]
  00058	3b 5f 10	 cmp	 ebx, DWORD PTR [edi+16]
  0005b	0f 84 fa 00 00
	00		 je	 $L189838
$L196938:

; 699  : 			ar.Write( &( *i ), sizeof(TransformStuffComponent) );

  00061	6a 08		 push	 8
  00063	53		 push	 ebx
  00064	8b ce		 mov	 ecx, esi
  00066	e8 00 00 00 00	 call	 ?Write@CAr@@QAEXPBXI@Z	; CAr::Write
  0006b	8b 47 10	 mov	 eax, DWORD PTR [edi+16]
  0006e	83 c3 08	 add	 ebx, 8
  00071	3b d8		 cmp	 ebx, eax
  00073	75 ec		 jne	 SHORT $L196938

; 715  : 		}
; 716  : 	}
; 717  : }

  00075	5f		 pop	 edi
  00076	5e		 pop	 esi
  00077	5b		 pop	 ebx
  00078	8b e5		 mov	 esp, ebp
  0007a	5d		 pop	 ebp
  0007b	c2 04 00	 ret	 4
$L189825:

; 700  : 	}
; 701  : 	else
; 702  : 	{
; 703  : 		ar >> m_nTransform;

  0007e	8b 46 08	 mov	 eax, DWORD PTR [esi+8]
  00081	8b 56 0c	 mov	 edx, DWORD PTR [esi+12]
  00084	8d 48 04	 lea	 ecx, DWORD PTR [eax+4]
  00087	3b ca		 cmp	 ecx, edx
  00089	77 0f		 ja	 SHORT $L196980
  0008b	8b 10		 mov	 edx, DWORD PTR [eax]
  0008d	89 57 04	 mov	 DWORD PTR [edi+4], edx
  00090	8b 46 08	 mov	 eax, DWORD PTR [esi+8]
  00093	83 c0 04	 add	 eax, 4
  00096	33 db		 xor	 ebx, ebx
  00098	eb 08		 jmp	 SHORT $L197290
$L196980:
  0009a	33 db		 xor	 ebx, ebx
  0009c	89 5f 04	 mov	 DWORD PTR [edi+4], ebx
  0009f	8b 46 0c	 mov	 eax, DWORD PTR [esi+12]
$L197290:

; 704  : 		size_t nSize;
; 705  : 		ar >> nSize;

  000a2	8b 56 0c	 mov	 edx, DWORD PTR [esi+12]
  000a5	8d 48 04	 lea	 ecx, DWORD PTR [eax+4]
  000a8	3b ca		 cmp	 ecx, edx
  000aa	89 46 08	 mov	 DWORD PTR [esi+8], eax
  000ad	77 07		 ja	 SHORT $L196993
  000af	8b 00		 mov	 eax, DWORD PTR [eax]
  000b1	89 4e 08	 mov	 DWORD PTR [esi+8], ecx
  000b4	eb 05		 jmp	 SHORT $L196994
$L196993:
  000b6	33 c0		 xor	 eax, eax
  000b8	89 56 08	 mov	 DWORD PTR [esi+8], edx
$L196994:

; 706  : #ifdef __WORLDSERVER
; 707  : 		if( nSize != CTransformItemProperty::Instance()->GetStuffSize( m_nTransform ) )
; 708  : 			return;
; 709  : #endif	// __WORLDSERVER
; 710  : 		for( size_t i = 0; i < nSize; i++ )

  000bb	3b c3		 cmp	 eax, ebx
  000bd	0f 86 98 00 00
	00		 jbe	 $L189838
  000c3	83 c7 08	 add	 edi, 8
  000c6	89 44 24 0c	 mov	 DWORD PTR tv293[esp+32], eax
  000ca	8d 9b 00 00 00
	00		 npad	 6
$L189836:

; 711  : 		{
; 712  : 			TransformStuffComponent component;
; 713  : 			ar.Read( &component, sizeof(TransformStuffComponent ) );

  000d0	6a 08		 push	 8
  000d2	8d 4c 24 14	 lea	 ecx, DWORD PTR _component$189839[esp+36]
  000d6	51		 push	 ecx
  000d7	8b ce		 mov	 ecx, esi
  000d9	89 5c 24 18	 mov	 DWORD PTR _component$189839[esp+40], ebx
  000dd	66 89 5c 24 1c	 mov	 WORD PTR _component$189839[esp+44], bx
  000e2	e8 00 00 00 00	 call	 ?Read@CAr@@QAEXPAXI@Z	; CAr::Read

; 714  : 			AddComponent( component.nItem, component.nNum );

  000e7	8b 4f 04	 mov	 ecx, DWORD PTR [edi+4]
  000ea	3b cb		 cmp	 ecx, ebx
  000ec	8b 54 24 10	 mov	 edx, DWORD PTR _component$189839[esp+32]
  000f0	66 8b 44 24 14	 mov	 ax, WORD PTR _component$189839[esp+36]
  000f5	89 54 24 18	 mov	 DWORD PTR _component$197219[esp+32], edx
  000f9	66 89 44 24 1c	 mov	 WORD PTR _component$197219[esp+36], ax
  000fe	75 04		 jne	 SHORT $L197227
  00100	33 d2		 xor	 edx, edx
  00102	eb 08		 jmp	 SHORT $L197228
$L197227:
  00104	8b 57 08	 mov	 edx, DWORD PTR [edi+8]
  00107	2b d1		 sub	 edx, ecx
  00109	c1 fa 03	 sar	 edx, 3
$L197228:
  0010c	3b cb		 cmp	 ecx, ebx
  0010e	74 2f		 je	 SHORT $L197282
  00110	8b 47 0c	 mov	 eax, DWORD PTR [edi+12]
  00113	2b c1		 sub	 eax, ecx
  00115	c1 f8 03	 sar	 eax, 3
  00118	3b d0		 cmp	 edx, eax
  0011a	73 23		 jae	 SHORT $L197282
  0011c	8b 4c 24 0c	 mov	 ecx, DWORD PTR __Cat$197240[esp+32]
  00120	8b 5f 08	 mov	 ebx, DWORD PTR [edi+8]
  00123	51		 push	 ecx
  00124	57		 push	 edi
  00125	8d 54 24 20	 lea	 edx, DWORD PTR _component$197219[esp+40]
  00129	52		 push	 edx
  0012a	6a 01		 push	 1
  0012c	53		 push	 ebx
  0012d	e8 00 00 00 00	 call	 ??$_Uninit_fill_n@PAU_TransformStuffComponent@@IU1@V?$allocator@U_TransformStuffComponent@@@std@@@std@@YAXPAU_TransformStuffComponent@@IABU1@AAV?$allocator@U_TransformStuffComponent@@@0@U_Nonscalar_ptr_iterator_tag@0@@Z ; std::_Uninit_fill_n<_TransformStuffComponent *,unsigned int,_TransformStuffComponent,std::allocator<_TransformStuffComponent> >
  00132	83 c3 08	 add	 ebx, 8
  00135	83 c4 14	 add	 esp, 20			; 00000014H
  00138	89 5f 08	 mov	 DWORD PTR [edi+8], ebx
  0013b	33 db		 xor	 ebx, ebx
  0013d	eb 12		 jmp	 SHORT $L189837
$L197282:
  0013f	8b 47 08	 mov	 eax, DWORD PTR [edi+8]
  00142	8d 4c 24 18	 lea	 ecx, DWORD PTR _component$197219[esp+32]
  00146	51		 push	 ecx
  00147	6a 01		 push	 1
  00149	50		 push	 eax
  0014a	8b cf		 mov	 ecx, edi
  0014c	e8 00 00 00 00	 call	 ?_Insert_n@?$vector@U_TransformStuffComponent@@V?$allocator@U_TransformStuffComponent@@@std@@@std@@IAEXViterator@12@IABU_TransformStuffComponent@@@Z ; std::vector<_TransformStuffComponent,std::allocator<_TransformStuffComponent> >::_Insert_n
$L189837:
  00151	ff 4c 24 0c	 dec	 DWORD PTR tv293[esp+32]
  00155	0f 85 75 ff ff
	ff		 jne	 $L189836
$L189838:

; 715  : 		}
; 716  : 	}
; 717  : }

  0015b	5f		 pop	 edi
  0015c	5e		 pop	 esi
  0015d	5b		 pop	 ebx
  0015e	8b e5		 mov	 esp, ebp
  00160	5d		 pop	 ebp
  00161	c2 04 00	 ret	 4
?Serialize@CTransformStuff@@UAEXAAVCAr@@@Z ENDP		; CTransformStuff::Serialize
; Function compile flags: /Ogty
_TEXT	ENDS
;	COMDAT _$E2
text$yd	SEGMENT
_$E2	PROC NEAR					; COMDAT
  00000	b9 00 00 00 00	 mov	 ecx, OFFSET FLAT:?sPetProperty@?1??GetInstance@CPetProperty@@SAPAV2@XZ@4V2@A
  00005	e9 00 00 00 00	 jmp	 ??1CPetProperty@@UAE@XZ	; CPetProperty::~CPetProperty
_$E2	ENDP
text$yd	ENDS
END
