; Listing generated by Microsoft (R) Optimizing Compiler Version 13.10.6030 

	TITLE	\Documents and Settings\test\Mes documents\Source\Virtuos_v17\Build\Program\_Common\post.cpp
	.386P
include listing.inc
if @Version gt 510
.model FLAT
else
_TEXT	SEGMENT PARA USE32 PUBLIC 'CODE'
_TEXT	ENDS
_DATA	SEGMENT DWORD USE32 PUBLIC 'DATA'
_DATA	ENDS
CONST	SEGMENT DWORD USE32 PUBLIC 'CONST'
CONST	ENDS
_BSS	SEGMENT DWORD USE32 PUBLIC 'BSS'
_BSS	ENDS
$$SYMBOLS	SEGMENT BYTE USE32 'DEBSYM'
$$SYMBOLS	ENDS
_TLS	SEGMENT DWORD USE32 PUBLIC 'TLS'
_TLS	ENDS
;	COMDAT ??_C@_0BC@MOGJFHKK@tr1?3?3bad_weak_ptr?$AA@
CONST	SEGMENT DWORD USE32 PUBLIC 'CONST'
CONST	ENDS
;	COMDAT ??_C@_0BD@IOHNFIBA@SetLOD?5?3?5lv?$DN?$CFd?0?5?$CFs?$AA@
CONST	SEGMENT DWORD USE32 PUBLIC 'CONST'
CONST	ENDS
;	COMDAT ??_C@_02PCIJFNDE@?$AN?6?$AA@
CONST	SEGMENT DWORD USE32 PUBLIC 'CONST'
CONST	ENDS
;	COMDAT ??_C@_01DNKMNLPK@?$HM?$AA@
CONST	SEGMENT DWORD USE32 PUBLIC 'CONST'
CONST	ENDS
;	COMDAT ??_C@_0CL@NMAPAMNI@AddMail?5Failed?5?9?5nMail?5?3?5?$CFd?0?5idS@
CONST	SEGMENT DWORD USE32 PUBLIC 'CONST'
CONST	ENDS
;	COMDAT ??_C@_0CE@ONJNFFPI@AddMailBox?5Failed?5?9?5idReceiver?5?3@
CONST	SEGMENT DWORD USE32 PUBLIC 'CONST'
CONST	ENDS
text$yd	SEGMENT PARA USE32 PUBLIC 'CODE'
text$yd	ENDS
xdata$x	SEGMENT DWORD USE32 PUBLIC 'CONST'
xdata$x	ENDS
;	COMDAT ?SetMailBox@CMail@@QAEXPAVCMailBox@@@Z
_TEXT	SEGMENT PARA USE32 PUBLIC 'CODE'
_TEXT	ENDS
;	COMDAT ?SetPost@CMailBox@@QAEXPAVCPost@@@Z
_TEXT	SEGMENT PARA USE32 PUBLIC 'CODE'
_TEXT	ENDS
;	COMDAT ?what@bad_weak_ptr@boost@@UBEPBDXZ
_TEXT	SEGMENT PARA USE32 PUBLIC 'CODE'
_TEXT	ENDS
;	COMDAT ??1sp_counted_base@detail@boost@@UAE@XZ
_TEXT	SEGMENT PARA USE32 PUBLIC 'CODE'
_TEXT	ENDS
;	COMDAT ?destroy@sp_counted_base@detail@boost@@UAEXXZ
_TEXT	SEGMENT PARA USE32 PUBLIC 'CODE'
_TEXT	ENDS
;	COMDAT ?add_ref_copy@sp_counted_base@detail@boost@@QAEXXZ
_TEXT	SEGMENT PARA USE32 PUBLIC 'CODE'
_TEXT	ENDS
;	COMDAT ?add_ref_lock@sp_counted_base@detail@boost@@QAE_NXZ
_TEXT	SEGMENT PARA USE32 PUBLIC 'CODE'
_TEXT	ENDS
;	COMDAT ?release@sp_counted_base@detail@boost@@QAEXXZ
_TEXT	SEGMENT PARA USE32 PUBLIC 'CODE'
_TEXT	ENDS
;	COMDAT ?weak_add_ref@sp_counted_base@detail@boost@@QAEXXZ
_TEXT	SEGMENT PARA USE32 PUBLIC 'CODE'
_TEXT	ENDS
;	COMDAT ?weak_release@sp_counted_base@detail@boost@@QAEXXZ
_TEXT	SEGMENT PARA USE32 PUBLIC 'CODE'
_TEXT	ENDS
;	COMDAT ?use_count@sp_counted_base@detail@boost@@QBEJXZ
_TEXT	SEGMENT PARA USE32 PUBLIC 'CODE'
_TEXT	ENDS
;	COMDAT ??_Gsp_counted_base@detail@boost@@UAEPAXI@Z
_TEXT	SEGMENT PARA USE32 PUBLIC 'CODE'
_TEXT	ENDS
;	COMDAT ?use_count@shared_count@detail@boost@@QBEJXZ
_TEXT	SEGMENT PARA USE32 PUBLIC 'CODE'
_TEXT	ENDS
;	COMDAT ??0bad_weak_ptr@boost@@QAE@XZ
_TEXT	SEGMENT PARA USE32 PUBLIC 'CODE'
_TEXT	ENDS
;	COMDAT ??1bad_weak_ptr@boost@@UAE@XZ
_TEXT	SEGMENT PARA USE32 PUBLIC 'CODE'
_TEXT	ENDS
;	COMDAT ??_Gbad_weak_ptr@boost@@UAEPAXI@Z
_TEXT	SEGMENT PARA USE32 PUBLIC 'CODE'
_TEXT	ENDS
;	COMDAT ?GetCooltime@CLordSkillComponent@@QAEHXZ
_TEXT	SEGMENT PARA USE32 PUBLIC 'CODE'
_TEXT	ENDS
;	COMDAT ?SetTick@CLordSkillComponent@@QAEXH@Z
_TEXT	SEGMENT PARA USE32 PUBLIC 'CODE'
_TEXT	ENDS
;	COMDAT ??1CLordSkillComponentExecutable@@UAE@XZ
_TEXT	SEGMENT PARA USE32 PUBLIC 'CODE'
_TEXT	ENDS
;	COMDAT ?Use@CLordSkillComponentExecutable@@IAEXXZ
_TEXT	SEGMENT PARA USE32 PUBLIC 'CODE'
_TEXT	ENDS
;	COMDAT ?Execute@CLordSkillComponentExecutable@@UAEXKKPAX@Z
_TEXT	SEGMENT PARA USE32 PUBLIC 'CODE'
_TEXT	ENDS
;	COMDAT ??_GCLordSkillComponentExecutable@@UAEPAXI@Z
_TEXT	SEGMENT PARA USE32 PUBLIC 'CODE'
_TEXT	ENDS
;	COMDAT ?GetDeposit@CCandidate@@QBE_JXZ
_TEXT	SEGMENT PARA USE32 PUBLIC 'CODE'
_TEXT	ENDS
;	COMDAT ?GetVote@CCandidate@@QAEHXZ
_TEXT	SEGMENT PARA USE32 PUBLIC 'CODE'
_TEXT	ENDS
;	COMDAT ?GetCreate@CCandidate@@QAEJXZ
_TEXT	SEGMENT PARA USE32 PUBLIC 'CODE'
_TEXT	ENDS
;	COMDAT ??0CMail@@QAE@XZ
_TEXT	SEGMENT PARA USE32 PUBLIC 'CODE'
_TEXT	ENDS
;	COMDAT ??_GCMail@@UAEPAXI@Z
_TEXT	SEGMENT PARA USE32 PUBLIC 'CODE'
_TEXT	ENDS
;	COMDAT ??0CMail@@QAE@KPAVCItemElem@@HPAD1@Z
_TEXT	SEGMENT PARA USE32 PUBLIC 'CODE'
_TEXT	ENDS
;	COMDAT ??1CMail@@UAE@XZ
_TEXT	SEGMENT PARA USE32 PUBLIC 'CODE'
_TEXT	ENDS
;	COMDAT ?Clear@CMail@@QAEXXZ
_TEXT	SEGMENT PARA USE32 PUBLIC 'CODE'
_TEXT	ENDS
;	COMDAT ?GetCost@CMail@@QAEKXZ
_TEXT	SEGMENT PARA USE32 PUBLIC 'CODE'
_TEXT	ENDS
;	COMDAT ?GetMailInfo@CMail@@QAEXPAHPAK@Z
_TEXT	SEGMENT PARA USE32 PUBLIC 'CODE'
_TEXT	ENDS
;	COMDAT ?Serialize@CMail@@QAEXAAVCAr@@H@Z
_TEXT	SEGMENT PARA USE32 PUBLIC 'CODE'
_TEXT	ENDS
;	COMDAT ??0CMailBox@@QAE@XZ
_TEXT	SEGMENT PARA USE32 PUBLIC 'CODE'
_TEXT	ENDS
;	COMDAT ??_GCMailBox@@UAEPAXI@Z
_TEXT	SEGMENT PARA USE32 PUBLIC 'CODE'
_TEXT	ENDS
;	COMDAT ??0CMailBox@@QAE@K@Z
_TEXT	SEGMENT PARA USE32 PUBLIC 'CODE'
_TEXT	ENDS
;	COMDAT ??1CMailBox@@UAE@XZ
_TEXT	SEGMENT PARA USE32 PUBLIC 'CODE'
_TEXT	ENDS
;	COMDAT ?GetInstance@CMailBox@@SAPAV1@XZ
_TEXT	SEGMENT PARA USE32 PUBLIC 'CODE'
_TEXT	ENDS
;	COMDAT _$E2
text$yd	SEGMENT PARA USE32 PUBLIC 'CODE'
text$yd	ENDS
;	COMDAT ?Clear@CMailBox@@QAEXXZ
_TEXT	SEGMENT PARA USE32 PUBLIC 'CODE'
_TEXT	ENDS
;	COMDAT ?AddMail@CMailBox@@QAEKPAVCMail@@@Z
_TEXT	SEGMENT PARA USE32 PUBLIC 'CODE'
_TEXT	ENDS
;	COMDAT ?Write@CMailBox@@QAEXAAVCAr@@@Z
_TEXT	SEGMENT PARA USE32 PUBLIC 'CODE'
_TEXT	ENDS
;	COMDAT ?Serialize@CMailBox@@QAEXAAVCAr@@H@Z
_TEXT	SEGMENT PARA USE32 PUBLIC 'CODE'
_TEXT	ENDS
;	COMDAT ?Find@CMailBox@@AAE?AViterator@?$vector@PAVCMail@@V?$allocator@PAVCMail@@@std@@@std@@K@Z
_TEXT	SEGMENT PARA USE32 PUBLIC 'CODE'
_TEXT	ENDS
;	COMDAT ?GetMail@CMailBox@@QAEPAVCMail@@K@Z
_TEXT	SEGMENT PARA USE32 PUBLIC 'CODE'
_TEXT	ENDS
;	COMDAT ?RemoveMail@CMailBox@@QAEHK@Z
_TEXT	SEGMENT PARA USE32 PUBLIC 'CODE'
_TEXT	ENDS
;	COMDAT ?RemoveMailItem@CMailBox@@QAEHK@Z
_TEXT	SEGMENT PARA USE32 PUBLIC 'CODE'
_TEXT	ENDS
;	COMDAT ?RemoveMailGold@CMailBox@@QAEHK@Z
_TEXT	SEGMENT PARA USE32 PUBLIC 'CODE'
_TEXT	ENDS
;	COMDAT ?ReadMail@CMailBox@@QAEHK@Z
_TEXT	SEGMENT PARA USE32 PUBLIC 'CODE'
_TEXT	ENDS
;	COMDAT ?IsStampedMailExists@CMailBox@@QAEHXZ
_TEXT	SEGMENT PARA USE32 PUBLIC 'CODE'
_TEXT	ENDS
;	COMDAT ??0CPost@@QAE@XZ
_TEXT	SEGMENT PARA USE32 PUBLIC 'CODE'
_TEXT	ENDS
;	COMDAT ??_GCPost@@UAEPAXI@Z
_TEXT	SEGMENT PARA USE32 PUBLIC 'CODE'
_TEXT	ENDS
;	COMDAT ??1?$map@KPAVCMail@@U?$less@K@std@@V?$allocator@U?$pair@$$CBKPAVCMail@@@std@@@3@@std@@QAE@XZ
_TEXT	SEGMENT PARA USE32 PUBLIC 'CODE'
_TEXT	ENDS
;	COMDAT ??1?$map@KPAVCMailBox@@U?$less@K@std@@V?$allocator@U?$pair@$$CBKPAVCMailBox@@@std@@@3@@std@@QAE@XZ
_TEXT	SEGMENT PARA USE32 PUBLIC 'CODE'
_TEXT	ENDS
;	COMDAT ??1CPost@@UAE@XZ
_TEXT	SEGMENT PARA USE32 PUBLIC 'CODE'
_TEXT	ENDS
;	COMDAT ?Clear@CPost@@QAEXXZ
_TEXT	SEGMENT PARA USE32 PUBLIC 'CODE'
_TEXT	ENDS
;	COMDAT ?AddMail@CPost@@QAEKKPAVCMail@@@Z
_TEXT	SEGMENT PARA USE32 PUBLIC 'CODE'
_TEXT	ENDS
;	COMDAT ?GetMailBox@CPost@@QAEPAVCMailBox@@K@Z
_TEXT	SEGMENT PARA USE32 PUBLIC 'CODE'
_TEXT	ENDS
;	COMDAT ?AddMailBox@CPost@@QAEHPAVCMailBox@@@Z
_TEXT	SEGMENT PARA USE32 PUBLIC 'CODE'
_TEXT	ENDS
;	COMDAT ?Serialize@CPost@@QAEXAAVCAr@@H@Z
_TEXT	SEGMENT PARA USE32 PUBLIC 'CODE'
_TEXT	ENDS
;	COMDAT ?GetInstance@CPost@@SAPAV1@XZ
_TEXT	SEGMENT PARA USE32 PUBLIC 'CODE'
_TEXT	ENDS
;	COMDAT _$E4
text$yd	SEGMENT PARA USE32 PUBLIC 'CODE'
text$yd	ENDS
;	COMDAT ?Process@CPost@@QAEXXZ
_TEXT	SEGMENT PARA USE32 PUBLIC 'CODE'
_TEXT	ENDS
;	COMDAT ?Replace@?$CStringT@DV?$StrTraitMFC@DV?$ChTraitsCRT@D@ATL@@@@@ATL@@QAEHPBD0@Z
_TEXT	SEGMENT PARA USE32 PUBLIC 'CODE'
_TEXT	ENDS
;	COMDAT ?compare@?$basic_string@DU?$char_traits@D@std@@V?$allocator@D@2@@std@@QBEHABV12@@Z
_TEXT	SEGMENT PARA USE32 PUBLIC 'CODE'
_TEXT	ENDS
;	COMDAT ??0?$vector@PAVCMail@@V?$allocator@PAVCMail@@@std@@@std@@QAE@XZ
_TEXT	SEGMENT PARA USE32 PUBLIC 'CODE'
_TEXT	ENDS
;	COMDAT ??1?$vector@PAVCMail@@V?$allocator@PAVCMail@@@std@@@std@@QAE@XZ
_TEXT	SEGMENT PARA USE32 PUBLIC 'CODE'
_TEXT	ENDS
;	COMDAT ?begin@?$vector@PAVCMail@@V?$allocator@PAVCMail@@@std@@@std@@QAE?AViterator@12@XZ
_TEXT	SEGMENT PARA USE32 PUBLIC 'CODE'
_TEXT	ENDS
;	COMDAT ?end@?$vector@PAVCMail@@V?$allocator@PAVCMail@@@std@@@std@@QAE?AViterator@12@XZ
_TEXT	SEGMENT PARA USE32 PUBLIC 'CODE'
_TEXT	ENDS
;	COMDAT ?size@?$vector@PAVCMail@@V?$allocator@PAVCMail@@@std@@@std@@QBEIXZ
_TEXT	SEGMENT PARA USE32 PUBLIC 'CODE'
_TEXT	ENDS
;	COMDAT ?push_back@?$vector@PAVCMail@@V?$allocator@PAVCMail@@@std@@@std@@QAEXABQAVCMail@@@Z
_TEXT	SEGMENT PARA USE32 PUBLIC 'CODE'
_TEXT	ENDS
;	COMDAT ?erase@?$vector@PAVCMail@@V?$allocator@PAVCMail@@@std@@@std@@QAE?AViterator@12@V312@@Z
_TEXT	SEGMENT PARA USE32 PUBLIC 'CODE'
_TEXT	ENDS
;	COMDAT ?clear@?$vector@PAVCMail@@V?$allocator@PAVCMail@@@std@@@std@@QAEXXZ
_TEXT	SEGMENT PARA USE32 PUBLIC 'CODE'
_TEXT	ENDS
;	COMDAT ??0?$map@KPAVCMail@@U?$less@K@std@@V?$allocator@U?$pair@$$CBKPAVCMail@@@std@@@3@@std@@QAE@XZ
_TEXT	SEGMENT PARA USE32 PUBLIC 'CODE'
_TEXT	ENDS
;	COMDAT ??1?$_Tree@V?$_Tmap_traits@KPAVCMail@@U?$less@K@std@@V?$allocator@U?$pair@$$CBKPAVCMail@@@std@@@3@$0A@@std@@@std@@QAE@XZ
_TEXT	SEGMENT PARA USE32 PUBLIC 'CODE'
_TEXT	ENDS
;	COMDAT ?begin@?$_Tree@V?$_Tmap_traits@KPAVCMail@@U?$less@K@std@@V?$allocator@U?$pair@$$CBKPAVCMail@@@std@@@3@$0A@@std@@@std@@QAE?AViterator@12@XZ
_TEXT	SEGMENT PARA USE32 PUBLIC 'CODE'
_TEXT	ENDS
;	COMDAT ?end@?$_Tree@V?$_Tmap_traits@KPAVCMail@@U?$less@K@std@@V?$allocator@U?$pair@$$CBKPAVCMail@@@std@@@3@$0A@@std@@@std@@QAE?AViterator@12@XZ
_TEXT	SEGMENT PARA USE32 PUBLIC 'CODE'
_TEXT	ENDS
;	COMDAT ?insert@?$_Tree@V?$_Tmap_traits@KPAVCMail@@U?$less@K@std@@V?$allocator@U?$pair@$$CBKPAVCMail@@@std@@@3@$0A@@std@@@std@@QAE?AU?$pair@Viterator@?$_Tree@V?$_Tmap_traits@KPAVCMail@@U?$less@K@std@@V?$allocator@U?$pair@$$CBKPAVCMail@@@std@@@3@$0A@@std@@@std@@_N@2@ABU?$pair@$$CBKPAVCMail@@@2@@Z
_TEXT	SEGMENT PARA USE32 PUBLIC 'CODE'
_TEXT	ENDS
;	COMDAT ?erase@?$_Tree@V?$_Tmap_traits@KPAVCMail@@U?$less@K@std@@V?$allocator@U?$pair@$$CBKPAVCMail@@@std@@@3@$0A@@std@@@std@@QAEIABK@Z
_TEXT	SEGMENT PARA USE32 PUBLIC 'CODE'
_TEXT	ENDS
;	COMDAT ?clear@?$_Tree@V?$_Tmap_traits@KPAVCMail@@U?$less@K@std@@V?$allocator@U?$pair@$$CBKPAVCMail@@@std@@@3@$0A@@std@@@std@@QAEXXZ
_TEXT	SEGMENT PARA USE32 PUBLIC 'CODE'
_TEXT	ENDS
;	COMDAT ??0?$map@KPAVCMailBox@@U?$less@K@std@@V?$allocator@U?$pair@$$CBKPAVCMailBox@@@std@@@3@@std@@QAE@XZ
_TEXT	SEGMENT PARA USE32 PUBLIC 'CODE'
_TEXT	ENDS
;	COMDAT ??1?$_Tree@V?$_Tmap_traits@KPAVCMailBox@@U?$less@K@std@@V?$allocator@U?$pair@$$CBKPAVCMailBox@@@std@@@3@$0A@@std@@@std@@QAE@XZ
_TEXT	SEGMENT PARA USE32 PUBLIC 'CODE'
_TEXT	ENDS
;	COMDAT ?begin@?$_Tree@V?$_Tmap_traits@KPAVCMailBox@@U?$less@K@std@@V?$allocator@U?$pair@$$CBKPAVCMailBox@@@std@@@3@$0A@@std@@@std@@QAE?AViterator@12@XZ
_TEXT	SEGMENT PARA USE32 PUBLIC 'CODE'
_TEXT	ENDS
;	COMDAT ?end@?$_Tree@V?$_Tmap_traits@KPAVCMailBox@@U?$less@K@std@@V?$allocator@U?$pair@$$CBKPAVCMailBox@@@std@@@3@$0A@@std@@@std@@QAE?AViterator@12@XZ
_TEXT	SEGMENT PARA USE32 PUBLIC 'CODE'
_TEXT	ENDS
;	COMDAT ?size@?$_Tree@V?$_Tmap_traits@KPAVCMailBox@@U?$less@K@std@@V?$allocator@U?$pair@$$CBKPAVCMailBox@@@std@@@3@$0A@@std@@@std@@QBEIXZ
_TEXT	SEGMENT PARA USE32 PUBLIC 'CODE'
_TEXT	ENDS
;	COMDAT ?insert@?$_Tree@V?$_Tmap_traits@KPAVCMailBox@@U?$less@K@std@@V?$allocator@U?$pair@$$CBKPAVCMailBox@@@std@@@3@$0A@@std@@@std@@QAE?AU?$pair@Viterator@?$_Tree@V?$_Tmap_traits@KPAVCMailBox@@U?$less@K@std@@V?$allocator@U?$pair@$$CBKPAVCMailBox@@@std@@@3@$0A@@std@@@std@@_N@2@ABU?$pair@$$CBKPAVCMailBox@@@2@@Z
_TEXT	SEGMENT PARA USE32 PUBLIC 'CODE'
_TEXT	ENDS
;	COMDAT ?clear@?$_Tree@V?$_Tmap_traits@KPAVCMailBox@@U?$less@K@std@@V?$allocator@U?$pair@$$CBKPAVCMailBox@@@std@@@3@$0A@@std@@@std@@QAEXXZ
_TEXT	SEGMENT PARA USE32 PUBLIC 'CODE'
_TEXT	ENDS
;	COMDAT ?find@?$_Tree@V?$_Tmap_traits@KPAVCMailBox@@U?$less@K@std@@V?$allocator@U?$pair@$$CBKPAVCMailBox@@@std@@@3@$0A@@std@@@std@@QAE?AViterator@12@ABK@Z
_TEXT	SEGMENT PARA USE32 PUBLIC 'CODE'
_TEXT	ENDS
;	COMDAT ??R?$less@PAVsp_counted_base@detail@boost@@@std@@QBE_NABQAVsp_counted_base@detail@boost@@0@Z
_TEXT	SEGMENT PARA USE32 PUBLIC 'CODE'
_TEXT	ENDS
;	COMDAT ?size@?$vector@PAVCLordSkillComponentExecutable@@V?$allocator@PAVCLordSkillComponentExecutable@@@std@@@std@@QBEIXZ
_TEXT	SEGMENT PARA USE32 PUBLIC 'CODE'
_TEXT	ENDS
;	COMDAT ?size@?$vector@V?$shared_ptr@VCCandidate@@@boost@@V?$allocator@V?$shared_ptr@VCCandidate@@@boost@@@std@@@std@@QBEIXZ
_TEXT	SEGMENT PARA USE32 PUBLIC 'CODE'
_TEXT	ENDS
;	COMDAT ??0?$vector@MV?$allocator@M@std@@@std@@QAE@XZ
_TEXT	SEGMENT PARA USE32 PUBLIC 'CODE'
_TEXT	ENDS
;	COMDAT ??1?$vector@MV?$allocator@M@std@@@std@@QAE@XZ
_TEXT	SEGMENT PARA USE32 PUBLIC 'CODE'
_TEXT	ENDS
;	COMDAT ??0?$vector@HV?$allocator@H@std@@@std@@QAE@XZ
_TEXT	SEGMENT PARA USE32 PUBLIC 'CODE'
_TEXT	ENDS
;	COMDAT ??1?$vector@HV?$allocator@H@std@@@std@@QAE@XZ
_TEXT	SEGMENT PARA USE32 PUBLIC 'CODE'
_TEXT	ENDS
;	COMDAT ??C?$shared_ptr@VCCandidate@@@boost@@QBEPAVCCandidate@@XZ
_TEXT	SEGMENT PARA USE32 PUBLIC 'CODE'
_TEXT	ENDS
;	COMDAT ?size@?$vector@PAVCLEComponent@@V?$allocator@PAVCLEComponent@@@std@@@std@@QBEIXZ
_TEXT	SEGMENT PARA USE32 PUBLIC 'CODE'
_TEXT	ENDS
;	COMDAT ?size@?$vector@U?$pair@M_J@std@@V?$allocator@U?$pair@M_J@std@@@2@@std@@QBEIXZ
_TEXT	SEGMENT PARA USE32 PUBLIC 'CODE'
_TEXT	ENDS
;	COMDAT ?size@?$_Tree@V?$_Tmap_traits@KPAU_PlayerData@@U?$less@K@std@@V?$allocator@U?$pair@$$CBKPAU_PlayerData@@@std@@@3@$0A@@std@@@std@@QBEIXZ
_TEXT	SEGMENT PARA USE32 PUBLIC 'CODE'
_TEXT	ENDS
;	COMDAT ?end@?$_Tree@V?$_Tmap_traits@KP8CDPTrans@@AEXAAVCAr@@KKKPAEK@ZU?$less@K@std@@V?$allocator@U?$pair@$$CBKP8CDPTrans@@AEXAAVCAr@@KKKPAEK@Z@std@@@4@$0A@@std@@@std@@QAE?AViterator@12@XZ
_TEXT	SEGMENT PARA USE32 PUBLIC 'CODE'
_TEXT	ENDS
;	COMDAT ?find@?$_Tree@V?$_Tmap_traits@KP8CDPTrans@@AEXAAVCAr@@KKKPAEK@ZU?$less@K@std@@V?$allocator@U?$pair@$$CBKP8CDPTrans@@AEXAAVCAr@@KKKPAEK@Z@std@@@4@$0A@@std@@@std@@QAE?AViterator@12@ABK@Z
_TEXT	SEGMENT PARA USE32 PUBLIC 'CODE'
_TEXT	ENDS
;	COMDAT ??Citerator@?$_Tree@V?$_Tmap_traits@KP8CDPTrans@@AEXAAVCAr@@KKKPAEK@ZU?$less@K@std@@V?$allocator@U?$pair@$$CBKP8CDPTrans@@AEXAAVCAr@@KKKPAEK@Z@std@@@4@$0A@@std@@@std@@QBEPAU?$pair@$$CBKP8CDPTrans@@AEXAAVCAr@@KKKPAEK@Z@2@XZ
_TEXT	SEGMENT PARA USE32 PUBLIC 'CODE'
_TEXT	ENDS
;	COMDAT ??9const_iterator@?$_Tree@V?$_Tmap_traits@KP8CDPTrans@@AEXAAVCAr@@KKKPAEK@ZU?$less@K@std@@V?$allocator@U?$pair@$$CBKP8CDPTrans@@AEXAAVCAr@@KKKPAEK@Z@std@@@4@$0A@@std@@@std@@QBE_NABV012@@Z
_TEXT	SEGMENT PARA USE32 PUBLIC 'CODE'
_TEXT	ENDS
;	COMDAT ??Diterator@?$vector@PAVCMail@@V?$allocator@PAVCMail@@@std@@@std@@QBEAAPAVCMail@@XZ
_TEXT	SEGMENT PARA USE32 PUBLIC 'CODE'
_TEXT	ENDS
;	COMDAT ??Eiterator@?$vector@PAVCMail@@V?$allocator@PAVCMail@@@std@@@std@@QAEAAV012@XZ
_TEXT	SEGMENT PARA USE32 PUBLIC 'CODE'
_TEXT	ENDS
;	COMDAT ??9const_iterator@?$vector@PAVCMail@@V?$allocator@PAVCMail@@@std@@@std@@QBE_NABV012@@Z
_TEXT	SEGMENT PARA USE32 PUBLIC 'CODE'
_TEXT	ENDS
;	COMDAT ??Citerator@?$_Tree@V?$_Tmap_traits@KPAVCMail@@U?$less@K@std@@V?$allocator@U?$pair@$$CBKPAVCMail@@@std@@@3@$0A@@std@@@std@@QBEPAU?$pair@$$CBKPAVCMail@@@2@XZ
_TEXT	SEGMENT PARA USE32 PUBLIC 'CODE'
_TEXT	ENDS
;	COMDAT ??Eiterator@?$_Tree@V?$_Tmap_traits@KPAVCMail@@U?$less@K@std@@V?$allocator@U?$pair@$$CBKPAVCMail@@@std@@@3@$0A@@std@@@std@@QAEAAV012@XZ
_TEXT	SEGMENT PARA USE32 PUBLIC 'CODE'
_TEXT	ENDS
;	COMDAT ??9const_iterator@?$_Tree@V?$_Tmap_traits@KPAVCMail@@U?$less@K@std@@V?$allocator@U?$pair@$$CBKPAVCMail@@@std@@@3@$0A@@std@@@std@@QBE_NABV012@@Z
_TEXT	SEGMENT PARA USE32 PUBLIC 'CODE'
_TEXT	ENDS
;	COMDAT ??0?$pair@$$CBKPAVCMail@@@std@@QAE@ABKABQAVCMail@@@Z
_TEXT	SEGMENT PARA USE32 PUBLIC 'CODE'
_TEXT	ENDS
;	COMDAT ??Citerator@?$_Tree@V?$_Tmap_traits@KPAVCMailBox@@U?$less@K@std@@V?$allocator@U?$pair@$$CBKPAVCMailBox@@@std@@@3@$0A@@std@@@std@@QBEPAU?$pair@$$CBKPAVCMailBox@@@2@XZ
_TEXT	SEGMENT PARA USE32 PUBLIC 'CODE'
_TEXT	ENDS
;	COMDAT ??Eiterator@?$_Tree@V?$_Tmap_traits@KPAVCMailBox@@U?$less@K@std@@V?$allocator@U?$pair@$$CBKPAVCMailBox@@@std@@@3@$0A@@std@@@std@@QAEAAV012@XZ
_TEXT	SEGMENT PARA USE32 PUBLIC 'CODE'
_TEXT	ENDS
;	COMDAT ??9const_iterator@?$_Tree@V?$_Tmap_traits@KPAVCMailBox@@U?$less@K@std@@V?$allocator@U?$pair@$$CBKPAVCMailBox@@@std@@@3@$0A@@std@@@std@@QBE_NABV012@@Z
_TEXT	SEGMENT PARA USE32 PUBLIC 'CODE'
_TEXT	ENDS
;	COMDAT ??0?$pair@$$CBKPAVCMailBox@@@std@@QAE@ABKABQAVCMailBox@@@Z
_TEXT	SEGMENT PARA USE32 PUBLIC 'CODE'
_TEXT	ENDS
;	COMDAT ??0?$list@PAVCMail@@V?$allocator@PAVCMail@@@std@@@std@@QAE@XZ
_TEXT	SEGMENT PARA USE32 PUBLIC 'CODE'
_TEXT	ENDS
;	COMDAT ??1?$list@PAVCMail@@V?$allocator@PAVCMail@@@std@@@std@@QAE@XZ
_TEXT	SEGMENT PARA USE32 PUBLIC 'CODE'
_TEXT	ENDS
;	COMDAT ?push_back@?$list@PAVCMail@@V?$allocator@PAVCMail@@@std@@@std@@QAEXABQAVCMail@@@Z
_TEXT	SEGMENT PARA USE32 PUBLIC 'CODE'
_TEXT	ENDS
;	COMDAT ?clear@?$list@PAVCMail@@V?$allocator@PAVCMail@@@std@@@std@@QAEXXZ
_TEXT	SEGMENT PARA USE32 PUBLIC 'CODE'
_TEXT	ENDS
;	COMDAT ?StringFindString@?$ChTraitsCRT@D@ATL@@SAPADPADPBD@Z
_TEXT	SEGMENT PARA USE32 PUBLIC 'CODE'
_TEXT	ENDS
;	COMDAT ?SafeStringLen@?$ChTraitsCRT@D@ATL@@SAHPBD@Z
_TEXT	SEGMENT PARA USE32 PUBLIC 'CODE'
_TEXT	ENDS
;	COMDAT ?compare@?$basic_string@DU?$char_traits@D@std@@V?$allocator@D@2@@std@@QBEHIIPBDI@Z
_TEXT	SEGMENT PARA USE32 PUBLIC 'CODE'
_TEXT	ENDS
;	COMDAT ??0?$allocator@H@std@@QAE@XZ
_TEXT	SEGMENT PARA USE32 PUBLIC 'CODE'
_TEXT	ENDS
;	COMDAT ?capacity@?$vector@PAVCMail@@V?$allocator@PAVCMail@@@std@@@std@@QBEIXZ
_TEXT	SEGMENT PARA USE32 PUBLIC 'CODE'
_TEXT	ENDS
;	COMDAT ?insert@?$vector@PAVCMail@@V?$allocator@PAVCMail@@@std@@@std@@QAE?AViterator@12@V312@ABQAVCMail@@@Z
_TEXT	SEGMENT PARA USE32 PUBLIC 'CODE'
_TEXT	ENDS
;	COMDAT ?_Buy@?$vector@PAVCMail@@V?$allocator@PAVCMail@@@std@@@std@@IAE_NI@Z
_TEXT	SEGMENT PARA USE32 PUBLIC 'CODE'
_TEXT	ENDS
;	COMDAT ?_Destroy@?$vector@PAVCMail@@V?$allocator@PAVCMail@@@std@@@std@@IAEXPAPAVCMail@@0@Z
_TEXT	SEGMENT PARA USE32 PUBLIC 'CODE'
_TEXT	ENDS
;	COMDAT ?_Tidy@?$vector@PAVCMail@@V?$allocator@PAVCMail@@@std@@@std@@IAEXXZ
_TEXT	SEGMENT PARA USE32 PUBLIC 'CODE'
_TEXT	ENDS
;	COMDAT ?_Ufill@?$vector@PAVCMail@@V?$allocator@PAVCMail@@@std@@@std@@IAEPAPAVCMail@@PAPAV3@IABQAV3@@Z
_TEXT	SEGMENT PARA USE32 PUBLIC 'CODE'
_TEXT	ENDS
;	COMDAT ??0?$_Vector_val@PAVCMail@@V?$allocator@PAVCMail@@@std@@@std@@IAE@V?$allocator@PAVCMail@@@1@@Z
_TEXT	SEGMENT PARA USE32 PUBLIC 'CODE'
_TEXT	ENDS
;	COMDAT ??0?$allocator@PAVCMail@@@std@@QAE@XZ
_TEXT	SEGMENT PARA USE32 PUBLIC 'CODE'
_TEXT	ENDS
;	COMDAT ?_Isnil@?$_Tree@V?$_Tmap_traits@KPAVCMail@@U?$less@K@std@@V?$allocator@U?$pair@$$CBKPAVCMail@@@std@@@3@$0A@@std@@@std@@KAAADPAU_Node@?$_Tree_nod@V?$_Tmap_traits@KPAVCMail@@U?$less@K@std@@V?$allocator@U?$pair@$$CBKPAVCMail@@@std@@@3@$0A@@std@@@2@@Z
_TEXT	SEGMENT PARA USE32 PUBLIC 'CODE'
_TEXT	ENDS
;	COMDAT ?_Key@?$_Tree@V?$_Tmap_traits@KPAVCMail@@U?$less@K@std@@V?$allocator@U?$pair@$$CBKPAVCMail@@@std@@@3@$0A@@std@@@std@@KAABKPAU_Node@?$_Tree_nod@V?$_Tmap_traits@KPAVCMail@@U?$less@K@std@@V?$allocator@U?$pair@$$CBKPAVCMail@@@std@@@3@$0A@@std@@@2@@Z
_TEXT	SEGMENT PARA USE32 PUBLIC 'CODE'
_TEXT	ENDS
;	COMDAT ?_Left@?$_Tree@V?$_Tmap_traits@KPAVCMail@@U?$less@K@std@@V?$allocator@U?$pair@$$CBKPAVCMail@@@std@@@3@$0A@@std@@@std@@KAAAPAU_Node@?$_Tree_nod@V?$_Tmap_traits@KPAVCMail@@U?$less@K@std@@V?$allocator@U?$pair@$$CBKPAVCMail@@@std@@@3@$0A@@std@@@2@PAU342@@Z
_TEXT	SEGMENT PARA USE32 PUBLIC 'CODE'
_TEXT	ENDS
;	COMDAT ?_Right@?$_Tree@V?$_Tmap_traits@KPAVCMail@@U?$less@K@std@@V?$allocator@U?$pair@$$CBKPAVCMail@@@std@@@3@$0A@@std@@@std@@KAAAPAU_Node@?$_Tree_nod@V?$_Tmap_traits@KPAVCMail@@U?$less@K@std@@V?$allocator@U?$pair@$$CBKPAVCMail@@@std@@@3@$0A@@std@@@2@PAU342@@Z
_TEXT	SEGMENT PARA USE32 PUBLIC 'CODE'
_TEXT	ENDS
;	COMDAT ??0?$_Tree@V?$_Tmap_traits@KPAVCMail@@U?$less@K@std@@V?$allocator@U?$pair@$$CBKPAVCMail@@@std@@@3@$0A@@std@@@std@@QAE@ABU?$less@K@1@ABV?$allocator@U?$pair@$$CBKPAVCMail@@@std@@@1@@Z
_TEXT	SEGMENT PARA USE32 PUBLIC 'CODE'
_TEXT	ENDS
;	COMDAT ?erase@?$_Tree@V?$_Tmap_traits@KPAVCMail@@U?$less@K@std@@V?$allocator@U?$pair@$$CBKPAVCMail@@@std@@@3@$0A@@std@@@std@@QAE?AViterator@12@V312@0@Z
_TEXT	SEGMENT PARA USE32 PUBLIC 'CODE'
_TEXT	ENDS
;	COMDAT ?equal_range@?$_Tree@V?$_Tmap_traits@KPAVCMail@@U?$less@K@std@@V?$allocator@U?$pair@$$CBKPAVCMail@@@std@@@3@$0A@@std@@@std@@QAE?AU?$pair@Viterator@?$_Tree@V?$_Tmap_traits@KPAVCMail@@U?$less@K@std@@V?$allocator@U?$pair@$$CBKPAVCMail@@@std@@@3@$0A@@std@@@std@@V123@@2@ABK@Z
_TEXT	SEGMENT PARA USE32 PUBLIC 'CODE'
_TEXT	ENDS
;	COMDAT ?_Erase@?$_Tree@V?$_Tmap_traits@KPAVCMail@@U?$less@K@std@@V?$allocator@U?$pair@$$CBKPAVCMail@@@std@@@3@$0A@@std@@@std@@IAEXPAU_Node@?$_Tree_nod@V?$_Tmap_traits@KPAVCMail@@U?$less@K@std@@V?$allocator@U?$pair@$$CBKPAVCMail@@@std@@@3@$0A@@std@@@2@@Z
_TEXT	SEGMENT PARA USE32 PUBLIC 'CODE'
_TEXT	ENDS
;	COMDAT ?_Insert@?$_Tree@V?$_Tmap_traits@KPAVCMail@@U?$less@K@std@@V?$allocator@U?$pair@$$CBKPAVCMail@@@std@@@3@$0A@@std@@@std@@IAE?AViterator@12@_NPAU_Node@?$_Tree_nod@V?$_Tmap_traits@KPAVCMail@@U?$less@K@std@@V?$allocator@U?$pair@$$CBKPAVCMail@@@std@@@3@$0A@@std@@@2@ABU?$pair@$$CBKPAVCMail@@@2@@Z
_TEXT	SEGMENT PARA USE32 PUBLIC 'CODE'
_TEXT	ENDS
;	COMDAT ?_Lmost@?$_Tree@V?$_Tmap_traits@KPAVCMail@@U?$less@K@std@@V?$allocator@U?$pair@$$CBKPAVCMail@@@std@@@3@$0A@@std@@@std@@IAEAAPAU_Node@?$_Tree_nod@V?$_Tmap_traits@KPAVCMail@@U?$less@K@std@@V?$allocator@U?$pair@$$CBKPAVCMail@@@std@@@3@$0A@@std@@@2@XZ
_TEXT	SEGMENT PARA USE32 PUBLIC 'CODE'
_TEXT	ENDS
;	COMDAT ?_Rmost@?$_Tree@V?$_Tmap_traits@KPAVCMail@@U?$less@K@std@@V?$allocator@U?$pair@$$CBKPAVCMail@@@std@@@3@$0A@@std@@@std@@IAEAAPAU_Node@?$_Tree_nod@V?$_Tmap_traits@KPAVCMail@@U?$less@K@std@@V?$allocator@U?$pair@$$CBKPAVCMail@@@std@@@3@$0A@@std@@@2@XZ
_TEXT	SEGMENT PARA USE32 PUBLIC 'CODE'
_TEXT	ENDS
;	COMDAT ?_Root@?$_Tree@V?$_Tmap_traits@KPAVCMail@@U?$less@K@std@@V?$allocator@U?$pair@$$CBKPAVCMail@@@std@@@3@$0A@@std@@@std@@IAEAAPAU_Node@?$_Tree_nod@V?$_Tmap_traits@KPAVCMail@@U?$less@K@std@@V?$allocator@U?$pair@$$CBKPAVCMail@@@std@@@3@$0A@@std@@@2@XZ
_TEXT	SEGMENT PARA USE32 PUBLIC 'CODE'
_TEXT	ENDS
;	COMDAT ?_Tidy@?$_Tree@V?$_Tmap_traits@KPAVCMail@@U?$less@K@std@@V?$allocator@U?$pair@$$CBKPAVCMail@@@std@@@3@$0A@@std@@@std@@IAEXXZ
_TEXT	SEGMENT PARA USE32 PUBLIC 'CODE'
_TEXT	ENDS
;	COMDAT ?_Kfn@?$_Tmap_traits@KPAVCMail@@U?$less@K@std@@V?$allocator@U?$pair@$$CBKPAVCMail@@@std@@@3@$0A@@std@@SAABKABU?$pair@$$CBKPAVCMail@@@2@@Z
_TEXT	SEGMENT PARA USE32 PUBLIC 'CODE'
_TEXT	ENDS
;	COMDAT ??0?$allocator@U?$pair@$$CBKPAVCMail@@@std@@@std@@QAE@XZ
_TEXT	SEGMENT PARA USE32 PUBLIC 'CODE'
_TEXT	ENDS
;	COMDAT ?_Isnil@?$_Tree@V?$_Tmap_traits@KPAVCMailBox@@U?$less@K@std@@V?$allocator@U?$pair@$$CBKPAVCMailBox@@@std@@@3@$0A@@std@@@std@@KAAADPAU_Node@?$_Tree_nod@V?$_Tmap_traits@KPAVCMailBox@@U?$less@K@std@@V?$allocator@U?$pair@$$CBKPAVCMailBox@@@std@@@3@$0A@@std@@@2@@Z
_TEXT	SEGMENT PARA USE32 PUBLIC 'CODE'
_TEXT	ENDS
;	COMDAT ?_Key@?$_Tree@V?$_Tmap_traits@KPAVCMailBox@@U?$less@K@std@@V?$allocator@U?$pair@$$CBKPAVCMailBox@@@std@@@3@$0A@@std@@@std@@KAABKPAU_Node@?$_Tree_nod@V?$_Tmap_traits@KPAVCMailBox@@U?$less@K@std@@V?$allocator@U?$pair@$$CBKPAVCMailBox@@@std@@@3@$0A@@std@@@2@@Z
_TEXT	SEGMENT PARA USE32 PUBLIC 'CODE'
_TEXT	ENDS
;	COMDAT ?_Left@?$_Tree@V?$_Tmap_traits@KPAVCMailBox@@U?$less@K@std@@V?$allocator@U?$pair@$$CBKPAVCMailBox@@@std@@@3@$0A@@std@@@std@@KAAAPAU_Node@?$_Tree_nod@V?$_Tmap_traits@KPAVCMailBox@@U?$less@K@std@@V?$allocator@U?$pair@$$CBKPAVCMailBox@@@std@@@3@$0A@@std@@@2@PAU342@@Z
_TEXT	SEGMENT PARA USE32 PUBLIC 'CODE'
_TEXT	ENDS
;	COMDAT ?_Right@?$_Tree@V?$_Tmap_traits@KPAVCMailBox@@U?$less@K@std@@V?$allocator@U?$pair@$$CBKPAVCMailBox@@@std@@@3@$0A@@std@@@std@@KAAAPAU_Node@?$_Tree_nod@V?$_Tmap_traits@KPAVCMailBox@@U?$less@K@std@@V?$allocator@U?$pair@$$CBKPAVCMailBox@@@std@@@3@$0A@@std@@@2@PAU342@@Z
_TEXT	SEGMENT PARA USE32 PUBLIC 'CODE'
_TEXT	ENDS
;	COMDAT ??0?$_Tree@V?$_Tmap_traits@KPAVCMailBox@@U?$less@K@std@@V?$allocator@U?$pair@$$CBKPAVCMailBox@@@std@@@3@$0A@@std@@@std@@QAE@ABU?$less@K@1@ABV?$allocator@U?$pair@$$CBKPAVCMailBox@@@std@@@1@@Z
_TEXT	SEGMENT PARA USE32 PUBLIC 'CODE'
_TEXT	ENDS
;	COMDAT ?lower_bound@?$_Tree@V?$_Tmap_traits@KPAVCMailBox@@U?$less@K@std@@V?$allocator@U?$pair@$$CBKPAVCMailBox@@@std@@@3@$0A@@std@@@std@@QAE?AViterator@12@ABK@Z
_TEXT	SEGMENT PARA USE32 PUBLIC 'CODE'
_TEXT	ENDS
;	COMDAT ?_Erase@?$_Tree@V?$_Tmap_traits@KPAVCMailBox@@U?$less@K@std@@V?$allocator@U?$pair@$$CBKPAVCMailBox@@@std@@@3@$0A@@std@@@std@@IAEXPAU_Node@?$_Tree_nod@V?$_Tmap_traits@KPAVCMailBox@@U?$less@K@std@@V?$allocator@U?$pair@$$CBKPAVCMailBox@@@std@@@3@$0A@@std@@@2@@Z
_TEXT	SEGMENT PARA USE32 PUBLIC 'CODE'
_TEXT	ENDS
;	COMDAT ?_Insert@?$_Tree@V?$_Tmap_traits@KPAVCMailBox@@U?$less@K@std@@V?$allocator@U?$pair@$$CBKPAVCMailBox@@@std@@@3@$0A@@std@@@std@@IAE?AViterator@12@_NPAU_Node@?$_Tree_nod@V?$_Tmap_traits@KPAVCMailBox@@U?$less@K@std@@V?$allocator@U?$pair@$$CBKPAVCMailBox@@@std@@@3@$0A@@std@@@2@ABU?$pair@$$CBKPAVCMailBox@@@2@@Z
_TEXT	SEGMENT PARA USE32 PUBLIC 'CODE'
_TEXT	ENDS
;	COMDAT ?_Lmost@?$_Tree@V?$_Tmap_traits@KPAVCMailBox@@U?$less@K@std@@V?$allocator@U?$pair@$$CBKPAVCMailBox@@@std@@@3@$0A@@std@@@std@@IAEAAPAU_Node@?$_Tree_nod@V?$_Tmap_traits@KPAVCMailBox@@U?$less@K@std@@V?$allocator@U?$pair@$$CBKPAVCMailBox@@@std@@@3@$0A@@std@@@2@XZ
_TEXT	SEGMENT PARA USE32 PUBLIC 'CODE'
_TEXT	ENDS
;	COMDAT ?_Rmost@?$_Tree@V?$_Tmap_traits@KPAVCMailBox@@U?$less@K@std@@V?$allocator@U?$pair@$$CBKPAVCMailBox@@@std@@@3@$0A@@std@@@std@@IAEAAPAU_Node@?$_Tree_nod@V?$_Tmap_traits@KPAVCMailBox@@U?$less@K@std@@V?$allocator@U?$pair@$$CBKPAVCMailBox@@@std@@@3@$0A@@std@@@2@XZ
_TEXT	SEGMENT PARA USE32 PUBLIC 'CODE'
_TEXT	ENDS
;	COMDAT ?_Root@?$_Tree@V?$_Tmap_traits@KPAVCMailBox@@U?$less@K@std@@V?$allocator@U?$pair@$$CBKPAVCMailBox@@@std@@@3@$0A@@std@@@std@@IAEAAPAU_Node@?$_Tree_nod@V?$_Tmap_traits@KPAVCMailBox@@U?$less@K@std@@V?$allocator@U?$pair@$$CBKPAVCMailBox@@@std@@@3@$0A@@std@@@2@XZ
_TEXT	SEGMENT PARA USE32 PUBLIC 'CODE'
_TEXT	ENDS
;	COMDAT ?_Tidy@?$_Tree@V?$_Tmap_traits@KPAVCMailBox@@U?$less@K@std@@V?$allocator@U?$pair@$$CBKPAVCMailBox@@@std@@@3@$0A@@std@@@std@@IAEXXZ
_TEXT	SEGMENT PARA USE32 PUBLIC 'CODE'
_TEXT	ENDS
;	COMDAT ?_Kfn@?$_Tmap_traits@KPAVCMailBox@@U?$less@K@std@@V?$allocator@U?$pair@$$CBKPAVCMailBox@@@std@@@3@$0A@@std@@SAABKABU?$pair@$$CBKPAVCMailBox@@@2@@Z
_TEXT	SEGMENT PARA USE32 PUBLIC 'CODE'
_TEXT	ENDS
;	COMDAT ??0?$allocator@U?$pair@$$CBKPAVCMailBox@@@std@@@std@@QAE@XZ
_TEXT	SEGMENT PARA USE32 PUBLIC 'CODE'
_TEXT	ENDS
;	COMDAT ?_Buy@?$vector@MV?$allocator@M@std@@@std@@IAE_NI@Z
_TEXT	SEGMENT PARA USE32 PUBLIC 'CODE'
_TEXT	ENDS
;	COMDAT ?_Tidy@?$vector@MV?$allocator@M@std@@@std@@IAEXXZ
_TEXT	SEGMENT PARA USE32 PUBLIC 'CODE'
_TEXT	ENDS
;	COMDAT ??0?$_Vector_val@MV?$allocator@M@std@@@std@@IAE@V?$allocator@M@1@@Z
_TEXT	SEGMENT PARA USE32 PUBLIC 'CODE'
_TEXT	ENDS
;	COMDAT ??0?$allocator@M@std@@QAE@XZ
_TEXT	SEGMENT PARA USE32 PUBLIC 'CODE'
_TEXT	ENDS
;	COMDAT ?_Buy@?$vector@HV?$allocator@H@std@@@std@@IAE_NI@Z
_TEXT	SEGMENT PARA USE32 PUBLIC 'CODE'
_TEXT	ENDS
;	COMDAT ?_Tidy@?$vector@HV?$allocator@H@std@@@std@@IAEXXZ
_TEXT	SEGMENT PARA USE32 PUBLIC 'CODE'
_TEXT	ENDS
;	COMDAT ??0?$_Vector_val@HV?$allocator@H@std@@@std@@IAE@V?$allocator@H@1@@Z
_TEXT	SEGMENT PARA USE32 PUBLIC 'CODE'
_TEXT	ENDS
;	COMDAT ?_Key@?$_Tree@V?$_Tmap_traits@KP8CDPTrans@@AEXAAVCAr@@KKKPAEK@ZU?$less@K@std@@V?$allocator@U?$pair@$$CBKP8CDPTrans@@AEXAAVCAr@@KKKPAEK@Z@std@@@4@$0A@@std@@@std@@KAABKPAU_Node@?$_Tree_nod@V?$_Tmap_traits@KP8CDPTrans@@AEXAAVCAr@@KKKPAEK@ZU?$less@K@std@@V?$allocator@U?$pair@$$CBKP8CDPTrans@@AEXAAVCAr@@KKKPAEK@Z@std@@@4@$0A@@std@@@2@@Z
_TEXT	SEGMENT PARA USE32 PUBLIC 'CODE'
_TEXT	ENDS
;	COMDAT ?lower_bound@?$_Tree@V?$_Tmap_traits@KP8CDPTrans@@AEXAAVCAr@@KKKPAEK@ZU?$less@K@std@@V?$allocator@U?$pair@$$CBKP8CDPTrans@@AEXAAVCAr@@KKKPAEK@Z@std@@@4@$0A@@std@@@std@@QAE?AViterator@12@ABK@Z
_TEXT	SEGMENT PARA USE32 PUBLIC 'CODE'
_TEXT	ENDS
;	COMDAT ??0iterator@?$_Tree@V?$_Tmap_traits@KP8CDPTrans@@AEXAAVCAr@@KKKPAEK@ZU?$less@K@std@@V?$allocator@U?$pair@$$CBKP8CDPTrans@@AEXAAVCAr@@KKKPAEK@Z@std@@@4@$0A@@std@@@std@@QAE@PAU_Node@?$_Tree_nod@V?$_Tmap_traits@KP8CDPTrans@@AEXAAVCAr@@KKKPAEK@ZU?$less@K@std@@V?$allocator@U?$pair@$$CBKP8CDPTrans@@AEXAAVCAr@@KKKPAEK@Z@std@@@4@$0A@@std@@@2@@Z
_TEXT	SEGMENT PARA USE32 PUBLIC 'CODE'
_TEXT	ENDS
;	COMDAT ??Diterator@?$_Tree@V?$_Tmap_traits@KP8CDPTrans@@AEXAAVCAr@@KKKPAEK@ZU?$less@K@std@@V?$allocator@U?$pair@$$CBKP8CDPTrans@@AEXAAVCAr@@KKKPAEK@Z@std@@@4@$0A@@std@@@std@@QBEAAU?$pair@$$CBKP8CDPTrans@@AEXAAVCAr@@KKKPAEK@Z@2@XZ
_TEXT	SEGMENT PARA USE32 PUBLIC 'CODE'
_TEXT	ENDS
;	COMDAT ??8const_iterator@?$_Tree@V?$_Tmap_traits@KP8CDPTrans@@AEXAAVCAr@@KKKPAEK@ZU?$less@K@std@@V?$allocator@U?$pair@$$CBKP8CDPTrans@@AEXAAVCAr@@KKKPAEK@Z@std@@@4@$0A@@std@@@std@@QBE_NABV012@@Z
_TEXT	SEGMENT PARA USE32 PUBLIC 'CODE'
_TEXT	ENDS
;	COMDAT ?_Mynode@const_iterator@?$_Tree@V?$_Tmap_traits@KP8CDPTrans@@AEXAAVCAr@@KKKPAEK@ZU?$less@K@std@@V?$allocator@U?$pair@$$CBKP8CDPTrans@@AEXAAVCAr@@KKKPAEK@Z@std@@@4@$0A@@std@@@std@@QBEPAU_Node@?$_Tree_nod@V?$_Tmap_traits@KP8CDPTrans@@AEXAAVCAr@@KKKPAEK@ZU?$less@K@std@@V?$allocator@U?$pair@$$CBKP8CDPTrans@@AEXAAVCAr@@KKKPAEK@Z@std@@@4@$0A@@std@@@3@XZ
_TEXT	SEGMENT PARA USE32 PUBLIC 'CODE'
_TEXT	ENDS
;	COMDAT ??0iterator@?$vector@PAVCMail@@V?$allocator@PAVCMail@@@std@@@std@@QAE@PAPAVCMail@@@Z
_TEXT	SEGMENT PARA USE32 PUBLIC 'CODE'
_TEXT	ENDS
;	COMDAT ??Dconst_iterator@?$vector@PAVCMail@@V?$allocator@PAVCMail@@@std@@@std@@QBEABQAVCMail@@XZ
_TEXT	SEGMENT PARA USE32 PUBLIC 'CODE'
_TEXT	ENDS
;	COMDAT ??8const_iterator@?$vector@PAVCMail@@V?$allocator@PAVCMail@@@std@@@std@@QBE_NABV012@@Z
_TEXT	SEGMENT PARA USE32 PUBLIC 'CODE'
_TEXT	ENDS
;	COMDAT ??0iterator@?$_Tree@V?$_Tmap_traits@KPAVCMail@@U?$less@K@std@@V?$allocator@U?$pair@$$CBKPAVCMail@@@std@@@3@$0A@@std@@@std@@QAE@PAU_Node@?$_Tree_nod@V?$_Tmap_traits@KPAVCMail@@U?$less@K@std@@V?$allocator@U?$pair@$$CBKPAVCMail@@@std@@@3@$0A@@std@@@2@@Z
_TEXT	SEGMENT PARA USE32 PUBLIC 'CODE'
_TEXT	ENDS
;	COMDAT ??Diterator@?$_Tree@V?$_Tmap_traits@KPAVCMail@@U?$less@K@std@@V?$allocator@U?$pair@$$CBKPAVCMail@@@std@@@3@$0A@@std@@@std@@QBEAAU?$pair@$$CBKPAVCMail@@@2@XZ
_TEXT	SEGMENT PARA USE32 PUBLIC 'CODE'
_TEXT	ENDS
;	COMDAT ??Fiterator@?$_Tree@V?$_Tmap_traits@KPAVCMail@@U?$less@K@std@@V?$allocator@U?$pair@$$CBKPAVCMail@@@std@@@3@$0A@@std@@@std@@QAEAAV012@XZ
_TEXT	SEGMENT PARA USE32 PUBLIC 'CODE'
_TEXT	ENDS
;	COMDAT ??Econst_iterator@?$_Tree@V?$_Tmap_traits@KPAVCMail@@U?$less@K@std@@V?$allocator@U?$pair@$$CBKPAVCMail@@@std@@@3@$0A@@std@@@std@@QAEAAV012@XZ
_TEXT	SEGMENT PARA USE32 PUBLIC 'CODE'
_TEXT	ENDS
;	COMDAT ??8const_iterator@?$_Tree@V?$_Tmap_traits@KPAVCMail@@U?$less@K@std@@V?$allocator@U?$pair@$$CBKPAVCMail@@@std@@@3@$0A@@std@@@std@@QBE_NABV012@@Z
_TEXT	SEGMENT PARA USE32 PUBLIC 'CODE'
_TEXT	ENDS
;	COMDAT ?_Mynode@const_iterator@?$_Tree@V?$_Tmap_traits@KPAVCMail@@U?$less@K@std@@V?$allocator@U?$pair@$$CBKPAVCMail@@@std@@@3@$0A@@std@@@std@@QBEPAU_Node@?$_Tree_nod@V?$_Tmap_traits@KPAVCMail@@U?$less@K@std@@V?$allocator@U?$pair@$$CBKPAVCMail@@@std@@@3@$0A@@std@@@3@XZ
_TEXT	SEGMENT PARA USE32 PUBLIC 'CODE'
_TEXT	ENDS
;	COMDAT ??0?$pair@Viterator@?$_Tree@V?$_Tmap_traits@KPAVCMail@@U?$less@K@std@@V?$allocator@U?$pair@$$CBKPAVCMail@@@std@@@3@$0A@@std@@@std@@_N@std@@QAE@ABViterator@?$_Tree@V?$_Tmap_traits@KPAVCMail@@U?$less@K@std@@V?$allocator@U?$pair@$$CBKPAVCMail@@@std@@@3@$0A@@std@@@1@AB_N@Z
_TEXT	SEGMENT PARA USE32 PUBLIC 'CODE'
_TEXT	ENDS
;	COMDAT ??0iterator@?$_Tree@V?$_Tmap_traits@KPAVCMailBox@@U?$less@K@std@@V?$allocator@U?$pair@$$CBKPAVCMailBox@@@std@@@3@$0A@@std@@@std@@QAE@PAU_Node@?$_Tree_nod@V?$_Tmap_traits@KPAVCMailBox@@U?$less@K@std@@V?$allocator@U?$pair@$$CBKPAVCMailBox@@@std@@@3@$0A@@std@@@2@@Z
_TEXT	SEGMENT PARA USE32 PUBLIC 'CODE'
_TEXT	ENDS
;	COMDAT ??Diterator@?$_Tree@V?$_Tmap_traits@KPAVCMailBox@@U?$less@K@std@@V?$allocator@U?$pair@$$CBKPAVCMailBox@@@std@@@3@$0A@@std@@@std@@QBEAAU?$pair@$$CBKPAVCMailBox@@@2@XZ
_TEXT	SEGMENT PARA USE32 PUBLIC 'CODE'
_TEXT	ENDS
;	COMDAT ??Fiterator@?$_Tree@V?$_Tmap_traits@KPAVCMailBox@@U?$less@K@std@@V?$allocator@U?$pair@$$CBKPAVCMailBox@@@std@@@3@$0A@@std@@@std@@QAEAAV012@XZ
_TEXT	SEGMENT PARA USE32 PUBLIC 'CODE'
_TEXT	ENDS
;	COMDAT ??Econst_iterator@?$_Tree@V?$_Tmap_traits@KPAVCMailBox@@U?$less@K@std@@V?$allocator@U?$pair@$$CBKPAVCMailBox@@@std@@@3@$0A@@std@@@std@@QAEAAV012@XZ
_TEXT	SEGMENT PARA USE32 PUBLIC 'CODE'
_TEXT	ENDS
;	COMDAT ??8const_iterator@?$_Tree@V?$_Tmap_traits@KPAVCMailBox@@U?$less@K@std@@V?$allocator@U?$pair@$$CBKPAVCMailBox@@@std@@@3@$0A@@std@@@std@@QBE_NABV012@@Z
_TEXT	SEGMENT PARA USE32 PUBLIC 'CODE'
_TEXT	ENDS
;	COMDAT ?_Mynode@const_iterator@?$_Tree@V?$_Tmap_traits@KPAVCMailBox@@U?$less@K@std@@V?$allocator@U?$pair@$$CBKPAVCMailBox@@@std@@@3@$0A@@std@@@std@@QBEPAU_Node@?$_Tree_nod@V?$_Tmap_traits@KPAVCMailBox@@U?$less@K@std@@V?$allocator@U?$pair@$$CBKPAVCMailBox@@@std@@@3@$0A@@std@@@3@XZ
_TEXT	SEGMENT PARA USE32 PUBLIC 'CODE'
_TEXT	ENDS
;	COMDAT ??0?$pair@Viterator@?$_Tree@V?$_Tmap_traits@KPAVCMailBox@@U?$less@K@std@@V?$allocator@U?$pair@$$CBKPAVCMailBox@@@std@@@3@$0A@@std@@@std@@_N@std@@QAE@ABViterator@?$_Tree@V?$_Tmap_traits@KPAVCMailBox@@U?$less@K@std@@V?$allocator@U?$pair@$$CBKPAVCMailBox@@@std@@@3@$0A@@std@@@1@AB_N@Z
_TEXT	SEGMENT PARA USE32 PUBLIC 'CODE'
_TEXT	ENDS
;	COMDAT ?_Nextnode@?$list@PAVCMail@@V?$allocator@PAVCMail@@@std@@@std@@KAAAPAU_Node@?$_List_nod@PAVCMail@@V?$allocator@PAVCMail@@@std@@@2@PAU342@@Z
_TEXT	SEGMENT PARA USE32 PUBLIC 'CODE'
_TEXT	ENDS
;	COMDAT ?_Prevnode@?$list@PAVCMail@@V?$allocator@PAVCMail@@@std@@@std@@KAAAPAU_Node@?$_List_nod@PAVCMail@@V?$allocator@PAVCMail@@@std@@@2@PAU342@@Z
_TEXT	SEGMENT PARA USE32 PUBLIC 'CODE'
_TEXT	ENDS
;	COMDAT ?end@?$list@PAVCMail@@V?$allocator@PAVCMail@@@std@@@std@@QAE?AViterator@12@XZ
_TEXT	SEGMENT PARA USE32 PUBLIC 'CODE'
_TEXT	ENDS
;	COMDAT ?_Insert@?$list@PAVCMail@@V?$allocator@PAVCMail@@@std@@@std@@QAEXViterator@12@ABQAVCMail@@@Z
_TEXT	SEGMENT PARA USE32 PUBLIC 'CODE'
_TEXT	ENDS
;	COMDAT ?_Buynode@?$list@PAVCMail@@V?$allocator@PAVCMail@@@std@@@std@@IAEPAU_Node@?$_List_nod@PAVCMail@@V?$allocator@PAVCMail@@@std@@@2@XZ
_TEXT	SEGMENT PARA USE32 PUBLIC 'CODE'
_TEXT	ENDS
;	COMDAT ?_Tidy@?$list@PAVCMail@@V?$allocator@PAVCMail@@@std@@@std@@IAEXXZ
_TEXT	SEGMENT PARA USE32 PUBLIC 'CODE'
_TEXT	ENDS
;	COMDAT ??0?$_List_val@PAVCMail@@V?$allocator@PAVCMail@@@std@@@std@@IAE@V?$allocator@PAVCMail@@@1@@Z
_TEXT	SEGMENT PARA USE32 PUBLIC 'CODE'
_TEXT	ENDS
;	COMDAT ?deallocate@?$allocator@U_Node@?$_List_nod@PAVCMail@@V?$allocator@PAVCMail@@@std@@@std@@@std@@QAEXPAU_Node@?$_List_nod@PAVCMail@@V?$allocator@PAVCMail@@@std@@@2@I@Z
_TEXT	SEGMENT PARA USE32 PUBLIC 'CODE'
_TEXT	ENDS
;	COMDAT ?destroy@?$allocator@U_Node@?$_List_nod@PAVCMail@@V?$allocator@PAVCMail@@@std@@@std@@@std@@QAEXPAU_Node@?$_List_nod@PAVCMail@@V?$allocator@PAVCMail@@@std@@@2@@Z
_TEXT	SEGMENT PARA USE32 PUBLIC 'CODE'
_TEXT	ENDS
;	COMDAT ??0?$allocator@H@std@@QAE@ABV01@@Z
_TEXT	SEGMENT PARA USE32 PUBLIC 'CODE'
_TEXT	ENDS
;	COMDAT ?deallocate@?$allocator@H@std@@QAEXPAHI@Z
_TEXT	SEGMENT PARA USE32 PUBLIC 'CODE'
_TEXT	ENDS
;	COMDAT ?allocate@?$allocator@H@std@@QAEPAHI@Z
_TEXT	SEGMENT PARA USE32 PUBLIC 'CODE'
_TEXT	ENDS
;	COMDAT ?max_size@?$vector@PAVCMail@@V?$allocator@PAVCMail@@@std@@@std@@QBEIXZ
_TEXT	SEGMENT PARA USE32 PUBLIC 'CODE'
_TEXT	ENDS
;	COMDAT ?_Insert_n@?$vector@PAVCMail@@V?$allocator@PAVCMail@@@std@@@std@@IAEXViterator@12@IABQAVCMail@@@Z
_TEXT	SEGMENT PARA USE32 PUBLIC 'CODE'
_TEXT	ENDS
;	COMDAT ?_Xlen@?$vector@PAVCMail@@V?$allocator@PAVCMail@@@std@@@std@@IBEXXZ
_TEXT	SEGMENT PARA USE32 PUBLIC 'CODE'
_TEXT	ENDS
;	COMDAT ??0?$allocator@PAVCMail@@@std@@QAE@ABV01@@Z
_TEXT	SEGMENT PARA USE32 PUBLIC 'CODE'
_TEXT	ENDS
;	COMDAT ?deallocate@?$allocator@PAVCMail@@@std@@QAEXPAPAVCMail@@I@Z
_TEXT	SEGMENT PARA USE32 PUBLIC 'CODE'
_TEXT	ENDS
;	COMDAT ?allocate@?$allocator@PAVCMail@@@std@@QAEPAPAVCMail@@I@Z
_TEXT	SEGMENT PARA USE32 PUBLIC 'CODE'
_TEXT	ENDS
;	COMDAT ?_Color@?$_Tree@V?$_Tmap_traits@KPAVCMail@@U?$less@K@std@@V?$allocator@U?$pair@$$CBKPAVCMail@@@std@@@3@$0A@@std@@@std@@KAAADPAU_Node@?$_Tree_nod@V?$_Tmap_traits@KPAVCMail@@U?$less@K@std@@V?$allocator@U?$pair@$$CBKPAVCMail@@@std@@@3@$0A@@std@@@2@@Z
_TEXT	SEGMENT PARA USE32 PUBLIC 'CODE'
_TEXT	ENDS
;	COMDAT ?_Parent@?$_Tree@V?$_Tmap_traits@KPAVCMail@@U?$less@K@std@@V?$allocator@U?$pair@$$CBKPAVCMail@@@std@@@3@$0A@@std@@@std@@KAAAPAU_Node@?$_Tree_nod@V?$_Tmap_traits@KPAVCMail@@U?$less@K@std@@V?$allocator@U?$pair@$$CBKPAVCMail@@@std@@@3@$0A@@std@@@2@PAU342@@Z
_TEXT	SEGMENT PARA USE32 PUBLIC 'CODE'
_TEXT	ENDS
;	COMDAT ?_Myval@?$_Tree@V?$_Tmap_traits@KPAVCMail@@U?$less@K@std@@V?$allocator@U?$pair@$$CBKPAVCMail@@@std@@@3@$0A@@std@@@std@@KAAAU?$pair@$$CBKPAVCMail@@@2@PAU_Node@?$_Tree_nod@V?$_Tmap_traits@KPAVCMail@@U?$less@K@std@@V?$allocator@U?$pair@$$CBKPAVCMail@@@std@@@3@$0A@@std@@@2@@Z
_TEXT	SEGMENT PARA USE32 PUBLIC 'CODE'
_TEXT	ENDS
;	COMDAT ?max_size@?$_Tree@V?$_Tmap_traits@KPAVCMail@@U?$less@K@std@@V?$allocator@U?$pair@$$CBKPAVCMail@@@std@@@3@$0A@@std@@@std@@QBEIXZ
_TEXT	SEGMENT PARA USE32 PUBLIC 'CODE'
_TEXT	ENDS
;	COMDAT ?erase@?$_Tree@V?$_Tmap_traits@KPAVCMail@@U?$less@K@std@@V?$allocator@U?$pair@$$CBKPAVCMail@@@std@@@3@$0A@@std@@@std@@QAE?AViterator@12@V312@@Z
_TEXT	SEGMENT PARA USE32 PUBLIC 'CODE'
_TEXT	ENDS
;	COMDAT ?lower_bound@?$_Tree@V?$_Tmap_traits@KPAVCMail@@U?$less@K@std@@V?$allocator@U?$pair@$$CBKPAVCMail@@@std@@@3@$0A@@std@@@std@@QAE?AViterator@12@ABK@Z
_TEXT	SEGMENT PARA USE32 PUBLIC 'CODE'
_TEXT	ENDS
;	COMDAT ?upper_bound@?$_Tree@V?$_Tmap_traits@KPAVCMail@@U?$less@K@std@@V?$allocator@U?$pair@$$CBKPAVCMail@@@std@@@3@$0A@@std@@@std@@QAE?AViterator@12@ABK@Z
_TEXT	SEGMENT PARA USE32 PUBLIC 'CODE'
_TEXT	ENDS
;	COMDAT ?_Init@?$_Tree@V?$_Tmap_traits@KPAVCMail@@U?$less@K@std@@V?$allocator@U?$pair@$$CBKPAVCMail@@@std@@@3@$0A@@std@@@std@@IAEXXZ
_TEXT	SEGMENT PARA USE32 PUBLIC 'CODE'
_TEXT	ENDS
;	COMDAT ?_Lrotate@?$_Tree@V?$_Tmap_traits@KPAVCMail@@U?$less@K@std@@V?$allocator@U?$pair@$$CBKPAVCMail@@@std@@@3@$0A@@std@@@std@@IAEXPAU_Node@?$_Tree_nod@V?$_Tmap_traits@KPAVCMail@@U?$less@K@std@@V?$allocator@U?$pair@$$CBKPAVCMail@@@std@@@3@$0A@@std@@@2@@Z
_TEXT	SEGMENT PARA USE32 PUBLIC 'CODE'
_TEXT	ENDS
;	COMDAT ?_Rrotate@?$_Tree@V?$_Tmap_traits@KPAVCMail@@U?$less@K@std@@V?$allocator@U?$pair@$$CBKPAVCMail@@@std@@@3@$0A@@std@@@std@@IAEXPAU_Node@?$_Tree_nod@V?$_Tmap_traits@KPAVCMail@@U?$less@K@std@@V?$allocator@U?$pair@$$CBKPAVCMail@@@std@@@3@$0A@@std@@@2@@Z
_TEXT	SEGMENT PARA USE32 PUBLIC 'CODE'
_TEXT	ENDS
;	COMDAT ?_Buynode@?$_Tree@V?$_Tmap_traits@KPAVCMail@@U?$less@K@std@@V?$allocator@U?$pair@$$CBKPAVCMail@@@std@@@3@$0A@@std@@@std@@IAEPAU_Node@?$_Tree_nod@V?$_Tmap_traits@KPAVCMail@@U?$less@K@std@@V?$allocator@U?$pair@$$CBKPAVCMail@@@std@@@3@$0A@@std@@@2@PAU342@00ABU?$pair@$$CBKPAVCMail@@@2@D@Z
_TEXT	SEGMENT PARA USE32 PUBLIC 'CODE'
_TEXT	ENDS
;	COMDAT ??0?$_Tree_val@V?$_Tmap_traits@KPAVCMail@@U?$less@K@std@@V?$allocator@U?$pair@$$CBKPAVCMail@@@std@@@3@$0A@@std@@@std@@IAE@ABU?$less@K@1@V?$allocator@U?$pair@$$CBKPAVCMail@@@std@@@1@@Z
_TEXT	SEGMENT PARA USE32 PUBLIC 'CODE'
_TEXT	ENDS
;	COMDAT ??0?$allocator@U?$pair@$$CBKPAVCMail@@@std@@@std@@QAE@ABV01@@Z
_TEXT	SEGMENT PARA USE32 PUBLIC 'CODE'
_TEXT	ENDS
;	COMDAT ?deallocate@?$allocator@U_Node@?$_Tree_nod@V?$_Tmap_traits@KPAVCMail@@U?$less@K@std@@V?$allocator@U?$pair@$$CBKPAVCMail@@@std@@@3@$0A@@std@@@std@@@std@@QAEXPAU_Node@?$_Tree_nod@V?$_Tmap_traits@KPAVCMail@@U?$less@K@std@@V?$allocator@U?$pair@$$CBKPAVCMail@@@std@@@3@$0A@@std@@@2@I@Z
_TEXT	SEGMENT PARA USE32 PUBLIC 'CODE'
_TEXT	ENDS
;	COMDAT ?destroy@?$allocator@U_Node@?$_Tree_nod@V?$_Tmap_traits@KPAVCMail@@U?$less@K@std@@V?$allocator@U?$pair@$$CBKPAVCMail@@@std@@@3@$0A@@std@@@std@@@std@@QAEXPAU_Node@?$_Tree_nod@V?$_Tmap_traits@KPAVCMail@@U?$less@K@std@@V?$allocator@U?$pair@$$CBKPAVCMail@@@std@@@3@$0A@@std@@@2@@Z
_TEXT	SEGMENT PARA USE32 PUBLIC 'CODE'
_TEXT	ENDS
;	COMDAT ?destroy@?$allocator@PAU_Node@?$_Tree_nod@V?$_Tmap_traits@KPAVCMail@@U?$less@K@std@@V?$allocator@U?$pair@$$CBKPAVCMail@@@std@@@3@$0A@@std@@@std@@@std@@QAEXPAPAU_Node@?$_Tree_nod@V?$_Tmap_traits@KPAVCMail@@U?$less@K@std@@V?$allocator@U?$pair@$$CBKPAVCMail@@@std@@@3@$0A@@std@@@2@@Z
_TEXT	SEGMENT PARA USE32 PUBLIC 'CODE'
_TEXT	ENDS
;	COMDAT ?_Color@?$_Tree@V?$_Tmap_traits@KPAVCMailBox@@U?$less@K@std@@V?$allocator@U?$pair@$$CBKPAVCMailBox@@@std@@@3@$0A@@std@@@std@@KAAADPAU_Node@?$_Tree_nod@V?$_Tmap_traits@KPAVCMailBox@@U?$less@K@std@@V?$allocator@U?$pair@$$CBKPAVCMailBox@@@std@@@3@$0A@@std@@@2@@Z
_TEXT	SEGMENT PARA USE32 PUBLIC 'CODE'
_TEXT	ENDS
;	COMDAT ?_Parent@?$_Tree@V?$_Tmap_traits@KPAVCMailBox@@U?$less@K@std@@V?$allocator@U?$pair@$$CBKPAVCMailBox@@@std@@@3@$0A@@std@@@std@@KAAAPAU_Node@?$_Tree_nod@V?$_Tmap_traits@KPAVCMailBox@@U?$less@K@std@@V?$allocator@U?$pair@$$CBKPAVCMailBox@@@std@@@3@$0A@@std@@@2@PAU342@@Z
_TEXT	SEGMENT PARA USE32 PUBLIC 'CODE'
_TEXT	ENDS
;	COMDAT ?_Myval@?$_Tree@V?$_Tmap_traits@KPAVCMailBox@@U?$less@K@std@@V?$allocator@U?$pair@$$CBKPAVCMailBox@@@std@@@3@$0A@@std@@@std@@KAAAU?$pair@$$CBKPAVCMailBox@@@2@PAU_Node@?$_Tree_nod@V?$_Tmap_traits@KPAVCMailBox@@U?$less@K@std@@V?$allocator@U?$pair@$$CBKPAVCMailBox@@@std@@@3@$0A@@std@@@2@@Z
_TEXT	SEGMENT PARA USE32 PUBLIC 'CODE'
_TEXT	ENDS
;	COMDAT ?max_size@?$_Tree@V?$_Tmap_traits@KPAVCMailBox@@U?$less@K@std@@V?$allocator@U?$pair@$$CBKPAVCMailBox@@@std@@@3@$0A@@std@@@std@@QBEIXZ
_TEXT	SEGMENT PARA USE32 PUBLIC 'CODE'
_TEXT	ENDS
;	COMDAT ?erase@?$_Tree@V?$_Tmap_traits@KPAVCMailBox@@U?$less@K@std@@V?$allocator@U?$pair@$$CBKPAVCMailBox@@@std@@@3@$0A@@std@@@std@@QAE?AViterator@12@V312@0@Z
_TEXT	SEGMENT PARA USE32 PUBLIC 'CODE'
_TEXT	ENDS
;	COMDAT ?_Init@?$_Tree@V?$_Tmap_traits@KPAVCMailBox@@U?$less@K@std@@V?$allocator@U?$pair@$$CBKPAVCMailBox@@@std@@@3@$0A@@std@@@std@@IAEXXZ
_TEXT	SEGMENT PARA USE32 PUBLIC 'CODE'
_TEXT	ENDS
;	COMDAT ?_Lbound@?$_Tree@V?$_Tmap_traits@KPAVCMailBox@@U?$less@K@std@@V?$allocator@U?$pair@$$CBKPAVCMailBox@@@std@@@3@$0A@@std@@@std@@IBEPAU_Node@?$_Tree_nod@V?$_Tmap_traits@KPAVCMailBox@@U?$less@K@std@@V?$allocator@U?$pair@$$CBKPAVCMailBox@@@std@@@3@$0A@@std@@@2@ABK@Z
_TEXT	SEGMENT PARA USE32 PUBLIC 'CODE'
_TEXT	ENDS
;	COMDAT ?_Lrotate@?$_Tree@V?$_Tmap_traits@KPAVCMailBox@@U?$less@K@std@@V?$allocator@U?$pair@$$CBKPAVCMailBox@@@std@@@3@$0A@@std@@@std@@IAEXPAU_Node@?$_Tree_nod@V?$_Tmap_traits@KPAVCMailBox@@U?$less@K@std@@V?$allocator@U?$pair@$$CBKPAVCMailBox@@@std@@@3@$0A@@std@@@2@@Z
_TEXT	SEGMENT PARA USE32 PUBLIC 'CODE'
_TEXT	ENDS
;	COMDAT ?_Rrotate@?$_Tree@V?$_Tmap_traits@KPAVCMailBox@@U?$less@K@std@@V?$allocator@U?$pair@$$CBKPAVCMailBox@@@std@@@3@$0A@@std@@@std@@IAEXPAU_Node@?$_Tree_nod@V?$_Tmap_traits@KPAVCMailBox@@U?$less@K@std@@V?$allocator@U?$pair@$$CBKPAVCMailBox@@@std@@@3@$0A@@std@@@2@@Z
_TEXT	SEGMENT PARA USE32 PUBLIC 'CODE'
_TEXT	ENDS
;	COMDAT ?_Buynode@?$_Tree@V?$_Tmap_traits@KPAVCMailBox@@U?$less@K@std@@V?$allocator@U?$pair@$$CBKPAVCMailBox@@@std@@@3@$0A@@std@@@std@@IAEPAU_Node@?$_Tree_nod@V?$_Tmap_traits@KPAVCMailBox@@U?$less@K@std@@V?$allocator@U?$pair@$$CBKPAVCMailBox@@@std@@@3@$0A@@std@@@2@PAU342@00ABU?$pair@$$CBKPAVCMailBox@@@2@D@Z
_TEXT	SEGMENT PARA USE32 PUBLIC 'CODE'
_TEXT	ENDS
;	COMDAT ??0?$_Tree_val@V?$_Tmap_traits@KPAVCMailBox@@U?$less@K@std@@V?$allocator@U?$pair@$$CBKPAVCMailBox@@@std@@@3@$0A@@std@@@std@@IAE@ABU?$less@K@1@V?$allocator@U?$pair@$$CBKPAVCMailBox@@@std@@@1@@Z
_TEXT	SEGMENT PARA USE32 PUBLIC 'CODE'
_TEXT	ENDS
;	COMDAT ??0?$allocator@U?$pair@$$CBKPAVCMailBox@@@std@@@std@@QAE@ABV01@@Z
_TEXT	SEGMENT PARA USE32 PUBLIC 'CODE'
_TEXT	ENDS
;	COMDAT ?deallocate@?$allocator@U_Node@?$_Tree_nod@V?$_Tmap_traits@KPAVCMailBox@@U?$less@K@std@@V?$allocator@U?$pair@$$CBKPAVCMailBox@@@std@@@3@$0A@@std@@@std@@@std@@QAEXPAU_Node@?$_Tree_nod@V?$_Tmap_traits@KPAVCMailBox@@U?$less@K@std@@V?$allocator@U?$pair@$$CBKPAVCMailBox@@@std@@@3@$0A@@std@@@2@I@Z
_TEXT	SEGMENT PARA USE32 PUBLIC 'CODE'
_TEXT	ENDS
;	COMDAT ?destroy@?$allocator@U_Node@?$_Tree_nod@V?$_Tmap_traits@KPAVCMailBox@@U?$less@K@std@@V?$allocator@U?$pair@$$CBKPAVCMailBox@@@std@@@3@$0A@@std@@@std@@@std@@QAEXPAU_Node@?$_Tree_nod@V?$_Tmap_traits@KPAVCMailBox@@U?$less@K@std@@V?$allocator@U?$pair@$$CBKPAVCMailBox@@@std@@@3@$0A@@std@@@2@@Z
_TEXT	SEGMENT PARA USE32 PUBLIC 'CODE'
_TEXT	ENDS
;	COMDAT ?destroy@?$allocator@PAU_Node@?$_Tree_nod@V?$_Tmap_traits@KPAVCMailBox@@U?$less@K@std@@V?$allocator@U?$pair@$$CBKPAVCMailBox@@@std@@@3@$0A@@std@@@std@@@std@@QAEXPAPAU_Node@?$_Tree_nod@V?$_Tmap_traits@KPAVCMailBox@@U?$less@K@std@@V?$allocator@U?$pair@$$CBKPAVCMailBox@@@std@@@3@$0A@@std@@@2@@Z
_TEXT	SEGMENT PARA USE32 PUBLIC 'CODE'
_TEXT	ENDS
;	COMDAT ?max_size@?$vector@MV?$allocator@M@std@@@std@@QBEIXZ
_TEXT	SEGMENT PARA USE32 PUBLIC 'CODE'
_TEXT	ENDS
;	COMDAT ?_Destroy@?$vector@MV?$allocator@M@std@@@std@@IAEXPAM0@Z
_TEXT	SEGMENT PARA USE32 PUBLIC 'CODE'
_TEXT	ENDS
;	COMDAT ?_Xlen@?$vector@MV?$allocator@M@std@@@std@@IBEXXZ
_TEXT	SEGMENT PARA USE32 PUBLIC 'CODE'
_TEXT	ENDS
;	COMDAT ??0?$allocator@M@std@@QAE@ABV01@@Z
_TEXT	SEGMENT PARA USE32 PUBLIC 'CODE'
_TEXT	ENDS
;	COMDAT ?deallocate@?$allocator@M@std@@QAEXPAMI@Z
_TEXT	SEGMENT PARA USE32 PUBLIC 'CODE'
_TEXT	ENDS
;	COMDAT ?allocate@?$allocator@M@std@@QAEPAMI@Z
_TEXT	SEGMENT PARA USE32 PUBLIC 'CODE'
_TEXT	ENDS
;	COMDAT ?max_size@?$vector@HV?$allocator@H@std@@@std@@QBEIXZ
_TEXT	SEGMENT PARA USE32 PUBLIC 'CODE'
_TEXT	ENDS
;	COMDAT ?_Destroy@?$vector@HV?$allocator@H@std@@@std@@IAEXPAH0@Z
_TEXT	SEGMENT PARA USE32 PUBLIC 'CODE'
_TEXT	ENDS
;	COMDAT ?_Xlen@?$vector@HV?$allocator@H@std@@@std@@IBEXXZ
_TEXT	SEGMENT PARA USE32 PUBLIC 'CODE'
_TEXT	ENDS
;	COMDAT ?_Myval@?$_Tree@V?$_Tmap_traits@KP8CDPTrans@@AEXAAVCAr@@KKKPAEK@ZU?$less@K@std@@V?$allocator@U?$pair@$$CBKP8CDPTrans@@AEXAAVCAr@@KKKPAEK@Z@std@@@4@$0A@@std@@@std@@KAAAU?$pair@$$CBKP8CDPTrans@@AEXAAVCAr@@KKKPAEK@Z@2@PAU_Node@?$_Tree_nod@V?$_Tmap_traits@KP8CDPTrans@@AEXAAVCAr@@KKKPAEK@ZU?$less@K@std@@V?$allocator@U?$pair@$$CBKP8CDPTrans@@AEXAAVCAr@@KKKPAEK@Z@std@@@4@$0A@@std@@@2@@Z
_TEXT	SEGMENT PARA USE32 PUBLIC 'CODE'
_TEXT	ENDS
;	COMDAT ?_Lbound@?$_Tree@V?$_Tmap_traits@KP8CDPTrans@@AEXAAVCAr@@KKKPAEK@ZU?$less@K@std@@V?$allocator@U?$pair@$$CBKP8CDPTrans@@AEXAAVCAr@@KKKPAEK@Z@std@@@4@$0A@@std@@@std@@IBEPAU_Node@?$_Tree_nod@V?$_Tmap_traits@KP8CDPTrans@@AEXAAVCAr@@KKKPAEK@ZU?$less@K@std@@V?$allocator@U?$pair@$$CBKP8CDPTrans@@AEXAAVCAr@@KKKPAEK@Z@std@@@4@$0A@@std@@@2@ABK@Z
_TEXT	SEGMENT PARA USE32 PUBLIC 'CODE'
_TEXT	ENDS
;	COMDAT ?_Kfn@?$_Tmap_traits@KP8CDPTrans@@AEXAAVCAr@@KKKPAEK@ZU?$less@K@std@@V?$allocator@U?$pair@$$CBKP8CDPTrans@@AEXAAVCAr@@KKKPAEK@Z@std@@@4@$0A@@std@@SAABKABU?$pair@$$CBKP8CDPTrans@@AEXAAVCAr@@KKKPAEK@Z@2@@Z
_TEXT	SEGMENT PARA USE32 PUBLIC 'CODE'
_TEXT	ENDS
;	COMDAT ??0const_iterator@?$_Tree@V?$_Tmap_traits@KP8CDPTrans@@AEXAAVCAr@@KKKPAEK@ZU?$less@K@std@@V?$allocator@U?$pair@$$CBKP8CDPTrans@@AEXAAVCAr@@KKKPAEK@Z@std@@@4@$0A@@std@@@std@@QAE@PAU_Node@?$_Tree_nod@V?$_Tmap_traits@KP8CDPTrans@@AEXAAVCAr@@KKKPAEK@ZU?$less@K@std@@V?$allocator@U?$pair@$$CBKP8CDPTrans@@AEXAAVCAr@@KKKPAEK@Z@std@@@4@$0A@@std@@@2@@Z
_TEXT	SEGMENT PARA USE32 PUBLIC 'CODE'
_TEXT	ENDS
;	COMDAT ??Dconst_iterator@?$_Tree@V?$_Tmap_traits@KP8CDPTrans@@AEXAAVCAr@@KKKPAEK@ZU?$less@K@std@@V?$allocator@U?$pair@$$CBKP8CDPTrans@@AEXAAVCAr@@KKKPAEK@Z@std@@@4@$0A@@std@@@std@@QBEABU?$pair@$$CBKP8CDPTrans@@AEXAAVCAr@@KKKPAEK@Z@2@XZ
_TEXT	SEGMENT PARA USE32 PUBLIC 'CODE'
_TEXT	ENDS
;	COMDAT ??Hiterator@?$vector@PAVCMail@@V?$allocator@PAVCMail@@@std@@@std@@QBE?AV012@H@Z
_TEXT	SEGMENT PARA USE32 PUBLIC 'CODE'
_TEXT	ENDS
;	COMDAT ??Giterator@?$vector@PAVCMail@@V?$allocator@PAVCMail@@@std@@@std@@QBEHABVconst_iterator@12@@Z
_TEXT	SEGMENT PARA USE32 PUBLIC 'CODE'
_TEXT	ENDS
;	COMDAT ??0const_iterator@?$vector@PAVCMail@@V?$allocator@PAVCMail@@@std@@@std@@QAE@PAPAVCMail@@@Z
_TEXT	SEGMENT PARA USE32 PUBLIC 'CODE'
_TEXT	ENDS
;	COMDAT ??Eiterator@?$_Tree@V?$_Tmap_traits@KPAVCMail@@U?$less@K@std@@V?$allocator@U?$pair@$$CBKPAVCMail@@@std@@@3@$0A@@std@@@std@@QAE?AV012@H@Z
_TEXT	SEGMENT PARA USE32 PUBLIC 'CODE'
_TEXT	ENDS
;	COMDAT ??0const_iterator@?$_Tree@V?$_Tmap_traits@KPAVCMail@@U?$less@K@std@@V?$allocator@U?$pair@$$CBKPAVCMail@@@std@@@3@$0A@@std@@@std@@QAE@PAU_Node@?$_Tree_nod@V?$_Tmap_traits@KPAVCMail@@U?$less@K@std@@V?$allocator@U?$pair@$$CBKPAVCMail@@@std@@@3@$0A@@std@@@2@@Z
_TEXT	SEGMENT PARA USE32 PUBLIC 'CODE'
_TEXT	ENDS
;	COMDAT ??Dconst_iterator@?$_Tree@V?$_Tmap_traits@KPAVCMail@@U?$less@K@std@@V?$allocator@U?$pair@$$CBKPAVCMail@@@std@@@3@$0A@@std@@@std@@QBEABU?$pair@$$CBKPAVCMail@@@2@XZ
_TEXT	SEGMENT PARA USE32 PUBLIC 'CODE'
_TEXT	ENDS
;	COMDAT ??Fconst_iterator@?$_Tree@V?$_Tmap_traits@KPAVCMail@@U?$less@K@std@@V?$allocator@U?$pair@$$CBKPAVCMail@@@std@@@3@$0A@@std@@@std@@QAEAAV012@XZ
_TEXT	SEGMENT PARA USE32 PUBLIC 'CODE'
_TEXT	ENDS
;	COMDAT ?_Inc@const_iterator@?$_Tree@V?$_Tmap_traits@KPAVCMail@@U?$less@K@std@@V?$allocator@U?$pair@$$CBKPAVCMail@@@std@@@3@$0A@@std@@@std@@QAEXXZ
_TEXT	SEGMENT PARA USE32 PUBLIC 'CODE'
_TEXT	ENDS
;	COMDAT ??0const_iterator@?$_Tree@V?$_Tmap_traits@KPAVCMailBox@@U?$less@K@std@@V?$allocator@U?$pair@$$CBKPAVCMailBox@@@std@@@3@$0A@@std@@@std@@QAE@PAU_Node@?$_Tree_nod@V?$_Tmap_traits@KPAVCMailBox@@U?$less@K@std@@V?$allocator@U?$pair@$$CBKPAVCMailBox@@@std@@@3@$0A@@std@@@2@@Z
_TEXT	SEGMENT PARA USE32 PUBLIC 'CODE'
_TEXT	ENDS
;	COMDAT ??Dconst_iterator@?$_Tree@V?$_Tmap_traits@KPAVCMailBox@@U?$less@K@std@@V?$allocator@U?$pair@$$CBKPAVCMailBox@@@std@@@3@$0A@@std@@@std@@QBEABU?$pair@$$CBKPAVCMailBox@@@2@XZ
_TEXT	SEGMENT PARA USE32 PUBLIC 'CODE'
_TEXT	ENDS
;	COMDAT ??Fconst_iterator@?$_Tree@V?$_Tmap_traits@KPAVCMailBox@@U?$less@K@std@@V?$allocator@U?$pair@$$CBKPAVCMailBox@@@std@@@3@$0A@@std@@@std@@QAEAAV012@XZ
_TEXT	SEGMENT PARA USE32 PUBLIC 'CODE'
_TEXT	ENDS
;	COMDAT ?_Inc@const_iterator@?$_Tree@V?$_Tmap_traits@KPAVCMailBox@@U?$less@K@std@@V?$allocator@U?$pair@$$CBKPAVCMailBox@@@std@@@3@$0A@@std@@@std@@QAEXXZ
_TEXT	SEGMENT PARA USE32 PUBLIC 'CODE'
_TEXT	ENDS
;	COMDAT ?_Buynode@?$list@PAVCMail@@V?$allocator@PAVCMail@@@std@@@std@@IAEPAU_Node@?$_List_nod@PAVCMail@@V?$allocator@PAVCMail@@@std@@@2@PAU342@0ABQAVCMail@@@Z
_TEXT	SEGMENT PARA USE32 PUBLIC 'CODE'
_TEXT	ENDS
;	COMDAT ?_Incsize@?$list@PAVCMail@@V?$allocator@PAVCMail@@@std@@@std@@IAEXI@Z
_TEXT	SEGMENT PARA USE32 PUBLIC 'CODE'
_TEXT	ENDS
;	COMDAT ??0?$_List_ptr@PAVCMail@@V?$allocator@PAVCMail@@@std@@@std@@IAE@V?$allocator@PAVCMail@@@1@@Z
_TEXT	SEGMENT PARA USE32 PUBLIC 'CODE'
_TEXT	ENDS
;	COMDAT ?allocate@?$allocator@U_Node@?$_List_nod@PAVCMail@@V?$allocator@PAVCMail@@@std@@@std@@@std@@QAEPAU_Node@?$_List_nod@PAVCMail@@V?$allocator@PAVCMail@@@std@@@2@I@Z
_TEXT	SEGMENT PARA USE32 PUBLIC 'CODE'
_TEXT	ENDS
;	COMDAT ?construct@?$allocator@PAU_Node@?$_List_nod@PAVCMail@@V?$allocator@PAVCMail@@@std@@@std@@@std@@QAEXPAPAU_Node@?$_List_nod@PAVCMail@@V?$allocator@PAVCMail@@@std@@@2@ABQAU342@@Z
_TEXT	SEGMENT PARA USE32 PUBLIC 'CODE'
_TEXT	ENDS
;	COMDAT ?destroy@?$allocator@PAU_Node@?$_List_nod@PAVCMail@@V?$allocator@PAVCMail@@@std@@@std@@@std@@QAEXPAPAU_Node@?$_List_nod@PAVCMail@@V?$allocator@PAVCMail@@@std@@@2@@Z
_TEXT	SEGMENT PARA USE32 PUBLIC 'CODE'
_TEXT	ENDS
;	COMDAT ??0?$pair@Viterator@?$_Tree@V?$_Tmap_traits@KPAVCMail@@U?$less@K@std@@V?$allocator@U?$pair@$$CBKPAVCMail@@@std@@@3@$0A@@std@@@std@@V123@@std@@QAE@ABViterator@?$_Tree@V?$_Tmap_traits@KPAVCMail@@U?$less@K@std@@V?$allocator@U?$pair@$$CBKPAVCMail@@@std@@@3@$0A@@std@@@1@0@Z
_TEXT	SEGMENT PARA USE32 PUBLIC 'CODE'
_TEXT	ENDS
;	COMDAT ??0iterator@?$list@PAVCMail@@V?$allocator@PAVCMail@@@std@@@std@@QAE@PAU_Node@?$_List_nod@PAVCMail@@V?$allocator@PAVCMail@@@std@@@2@@Z
_TEXT	SEGMENT PARA USE32 PUBLIC 'CODE'
_TEXT	ENDS
;	COMDAT ?_Mynode@const_iterator@?$list@PAVCMail@@V?$allocator@PAVCMail@@@std@@@std@@QBEPAU_Node@?$_List_nod@PAVCMail@@V?$allocator@PAVCMail@@@std@@@3@XZ
_TEXT	SEGMENT PARA USE32 PUBLIC 'CODE'
_TEXT	ENDS
;	COMDAT ?max_size@?$allocator@H@std@@QBEIXZ
_TEXT	SEGMENT PARA USE32 PUBLIC 'CODE'
_TEXT	ENDS
;	COMDAT ?max_size@?$allocator@PAVCMail@@@std@@QBEIXZ
_TEXT	SEGMENT PARA USE32 PUBLIC 'CODE'
_TEXT	ENDS
;	COMDAT ?_Lbound@?$_Tree@V?$_Tmap_traits@KPAVCMail@@U?$less@K@std@@V?$allocator@U?$pair@$$CBKPAVCMail@@@std@@@3@$0A@@std@@@std@@IBEPAU_Node@?$_Tree_nod@V?$_Tmap_traits@KPAVCMail@@U?$less@K@std@@V?$allocator@U?$pair@$$CBKPAVCMail@@@std@@@3@$0A@@std@@@2@ABK@Z
_TEXT	SEGMENT PARA USE32 PUBLIC 'CODE'
_TEXT	ENDS
;	COMDAT ?_Max@?$_Tree@V?$_Tmap_traits@KPAVCMail@@U?$less@K@std@@V?$allocator@U?$pair@$$CBKPAVCMail@@@std@@@3@$0A@@std@@@std@@KAPAU_Node@?$_Tree_nod@V?$_Tmap_traits@KPAVCMail@@U?$less@K@std@@V?$allocator@U?$pair@$$CBKPAVCMail@@@std@@@3@$0A@@std@@@2@PAU342@@Z
_TEXT	SEGMENT PARA USE32 PUBLIC 'CODE'
_TEXT	ENDS
;	COMDAT ?_Min@?$_Tree@V?$_Tmap_traits@KPAVCMail@@U?$less@K@std@@V?$allocator@U?$pair@$$CBKPAVCMail@@@std@@@3@$0A@@std@@@std@@KAPAU_Node@?$_Tree_nod@V?$_Tmap_traits@KPAVCMail@@U?$less@K@std@@V?$allocator@U?$pair@$$CBKPAVCMail@@@std@@@3@$0A@@std@@@2@PAU342@@Z
_TEXT	SEGMENT PARA USE32 PUBLIC 'CODE'
_TEXT	ENDS
;	COMDAT ?_Ubound@?$_Tree@V?$_Tmap_traits@KPAVCMail@@U?$less@K@std@@V?$allocator@U?$pair@$$CBKPAVCMail@@@std@@@3@$0A@@std@@@std@@IBEPAU_Node@?$_Tree_nod@V?$_Tmap_traits@KPAVCMail@@U?$less@K@std@@V?$allocator@U?$pair@$$CBKPAVCMail@@@std@@@3@$0A@@std@@@2@ABK@Z
_TEXT	SEGMENT PARA USE32 PUBLIC 'CODE'
_TEXT	ENDS
;	COMDAT ?_Buynode@?$_Tree@V?$_Tmap_traits@KPAVCMail@@U?$less@K@std@@V?$allocator@U?$pair@$$CBKPAVCMail@@@std@@@3@$0A@@std@@@std@@IAEPAU_Node@?$_Tree_nod@V?$_Tmap_traits@KPAVCMail@@U?$less@K@std@@V?$allocator@U?$pair@$$CBKPAVCMail@@@std@@@3@$0A@@std@@@2@XZ
_TEXT	SEGMENT PARA USE32 PUBLIC 'CODE'
_TEXT	ENDS
;	COMDAT ??0?$_Tree_ptr@V?$_Tmap_traits@KPAVCMail@@U?$less@K@std@@V?$allocator@U?$pair@$$CBKPAVCMail@@@std@@@3@$0A@@std@@@std@@IAE@ABU?$less@K@1@V?$allocator@U?$pair@$$CBKPAVCMail@@@std@@@1@@Z
_TEXT	SEGMENT PARA USE32 PUBLIC 'CODE'
_TEXT	ENDS
;	COMDAT ?max_size@?$allocator@U?$pair@$$CBKPAVCMail@@@std@@@std@@QBEIXZ
_TEXT	SEGMENT PARA USE32 PUBLIC 'CODE'
_TEXT	ENDS
;	COMDAT ?allocate@?$allocator@U_Node@?$_Tree_nod@V?$_Tmap_traits@KPAVCMail@@U?$less@K@std@@V?$allocator@U?$pair@$$CBKPAVCMail@@@std@@@3@$0A@@std@@@std@@@std@@QAEPAU_Node@?$_Tree_nod@V?$_Tmap_traits@KPAVCMail@@U?$less@K@std@@V?$allocator@U?$pair@$$CBKPAVCMail@@@std@@@3@$0A@@std@@@2@I@Z
_TEXT	SEGMENT PARA USE32 PUBLIC 'CODE'
_TEXT	ENDS
;	COMDAT ?erase@?$_Tree@V?$_Tmap_traits@KPAVCMailBox@@U?$less@K@std@@V?$allocator@U?$pair@$$CBKPAVCMailBox@@@std@@@3@$0A@@std@@@std@@QAE?AViterator@12@V312@@Z
_TEXT	SEGMENT PARA USE32 PUBLIC 'CODE'
_TEXT	ENDS
;	COMDAT ?_Min@?$_Tree@V?$_Tmap_traits@KPAVCMailBox@@U?$less@K@std@@V?$allocator@U?$pair@$$CBKPAVCMailBox@@@std@@@3@$0A@@std@@@std@@KAPAU_Node@?$_Tree_nod@V?$_Tmap_traits@KPAVCMailBox@@U?$less@K@std@@V?$allocator@U?$pair@$$CBKPAVCMailBox@@@std@@@3@$0A@@std@@@2@PAU342@@Z
_TEXT	SEGMENT PARA USE32 PUBLIC 'CODE'
_TEXT	ENDS
;	COMDAT ?_Root@?$_Tree@V?$_Tmap_traits@KPAVCMailBox@@U?$less@K@std@@V?$allocator@U?$pair@$$CBKPAVCMailBox@@@std@@@3@$0A@@std@@@std@@IBEAAPAU_Node@?$_Tree_nod@V?$_Tmap_traits@KPAVCMailBox@@U?$less@K@std@@V?$allocator@U?$pair@$$CBKPAVCMailBox@@@std@@@3@$0A@@std@@@2@XZ
_TEXT	SEGMENT PARA USE32 PUBLIC 'CODE'
_TEXT	ENDS
;	COMDAT ?_Buynode@?$_Tree@V?$_Tmap_traits@KPAVCMailBox@@U?$less@K@std@@V?$allocator@U?$pair@$$CBKPAVCMailBox@@@std@@@3@$0A@@std@@@std@@IAEPAU_Node@?$_Tree_nod@V?$_Tmap_traits@KPAVCMailBox@@U?$less@K@std@@V?$allocator@U?$pair@$$CBKPAVCMailBox@@@std@@@3@$0A@@std@@@2@XZ
_TEXT	SEGMENT PARA USE32 PUBLIC 'CODE'
_TEXT	ENDS
;	COMDAT ??0?$_Tree_ptr@V?$_Tmap_traits@KPAVCMailBox@@U?$less@K@std@@V?$allocator@U?$pair@$$CBKPAVCMailBox@@@std@@@3@$0A@@std@@@std@@IAE@ABU?$less@K@1@V?$allocator@U?$pair@$$CBKPAVCMailBox@@@std@@@1@@Z
_TEXT	SEGMENT PARA USE32 PUBLIC 'CODE'
_TEXT	ENDS
;	COMDAT ?max_size@?$allocator@U?$pair@$$CBKPAVCMailBox@@@std@@@std@@QBEIXZ
_TEXT	SEGMENT PARA USE32 PUBLIC 'CODE'
_TEXT	ENDS
;	COMDAT ?allocate@?$allocator@U_Node@?$_Tree_nod@V?$_Tmap_traits@KPAVCMailBox@@U?$less@K@std@@V?$allocator@U?$pair@$$CBKPAVCMailBox@@@std@@@3@$0A@@std@@@std@@@std@@QAEPAU_Node@?$_Tree_nod@V?$_Tmap_traits@KPAVCMailBox@@U?$less@K@std@@V?$allocator@U?$pair@$$CBKPAVCMailBox@@@std@@@3@$0A@@std@@@2@I@Z
_TEXT	SEGMENT PARA USE32 PUBLIC 'CODE'
_TEXT	ENDS
;	COMDAT ?max_size@?$allocator@M@std@@QBEIXZ
_TEXT	SEGMENT PARA USE32 PUBLIC 'CODE'
_TEXT	ENDS
;	COMDAT ?_Isnil@?$_Tree@V?$_Tmap_traits@KP8CDPTrans@@AEXAAVCAr@@KKKPAEK@ZU?$less@K@std@@V?$allocator@U?$pair@$$CBKP8CDPTrans@@AEXAAVCAr@@KKKPAEK@Z@std@@@4@$0A@@std@@@std@@KAAADPAU_Node@?$_Tree_nod@V?$_Tmap_traits@KP8CDPTrans@@AEXAAVCAr@@KKKPAEK@ZU?$less@K@std@@V?$allocator@U?$pair@$$CBKP8CDPTrans@@AEXAAVCAr@@KKKPAEK@Z@std@@@4@$0A@@std@@@2@@Z
_TEXT	SEGMENT PARA USE32 PUBLIC 'CODE'
_TEXT	ENDS
;	COMDAT ?_Left@?$_Tree@V?$_Tmap_traits@KP8CDPTrans@@AEXAAVCAr@@KKKPAEK@ZU?$less@K@std@@V?$allocator@U?$pair@$$CBKP8CDPTrans@@AEXAAVCAr@@KKKPAEK@Z@std@@@4@$0A@@std@@@std@@KAAAPAU_Node@?$_Tree_nod@V?$_Tmap_traits@KP8CDPTrans@@AEXAAVCAr@@KKKPAEK@ZU?$less@K@std@@V?$allocator@U?$pair@$$CBKP8CDPTrans@@AEXAAVCAr@@KKKPAEK@Z@std@@@4@$0A@@std@@@2@PAU342@@Z
_TEXT	SEGMENT PARA USE32 PUBLIC 'CODE'
_TEXT	ENDS
;	COMDAT ?_Right@?$_Tree@V?$_Tmap_traits@KP8CDPTrans@@AEXAAVCAr@@KKKPAEK@ZU?$less@K@std@@V?$allocator@U?$pair@$$CBKP8CDPTrans@@AEXAAVCAr@@KKKPAEK@Z@std@@@4@$0A@@std@@@std@@KAAAPAU_Node@?$_Tree_nod@V?$_Tmap_traits@KP8CDPTrans@@AEXAAVCAr@@KKKPAEK@ZU?$less@K@std@@V?$allocator@U?$pair@$$CBKP8CDPTrans@@AEXAAVCAr@@KKKPAEK@Z@std@@@4@$0A@@std@@@2@PAU342@@Z
_TEXT	SEGMENT PARA USE32 PUBLIC 'CODE'
_TEXT	ENDS
;	COMDAT ?_Root@?$_Tree@V?$_Tmap_traits@KP8CDPTrans@@AEXAAVCAr@@KKKPAEK@ZU?$less@K@std@@V?$allocator@U?$pair@$$CBKP8CDPTrans@@AEXAAVCAr@@KKKPAEK@Z@std@@@4@$0A@@std@@@std@@IBEAAPAU_Node@?$_Tree_nod@V?$_Tmap_traits@KP8CDPTrans@@AEXAAVCAr@@KKKPAEK@ZU?$less@K@std@@V?$allocator@U?$pair@$$CBKP8CDPTrans@@AEXAAVCAr@@KKKPAEK@Z@std@@@4@$0A@@std@@@2@XZ
_TEXT	SEGMENT PARA USE32 PUBLIC 'CODE'
_TEXT	ENDS
;	COMDAT ??Yiterator@?$vector@PAVCMail@@V?$allocator@PAVCMail@@@std@@@std@@QAEAAV012@H@Z
_TEXT	SEGMENT PARA USE32 PUBLIC 'CODE'
_TEXT	ENDS
;	COMDAT ??Gconst_iterator@?$vector@PAVCMail@@V?$allocator@PAVCMail@@@std@@@std@@QBEHABV012@@Z
_TEXT	SEGMENT PARA USE32 PUBLIC 'CODE'
_TEXT	ENDS
;	COMDAT ?_Dec@const_iterator@?$_Tree@V?$_Tmap_traits@KPAVCMail@@U?$less@K@std@@V?$allocator@U?$pair@$$CBKPAVCMail@@@std@@@3@$0A@@std@@@std@@QAEXXZ
_TEXT	SEGMENT PARA USE32 PUBLIC 'CODE'
_TEXT	ENDS
;	COMDAT ??Eiterator@?$_Tree@V?$_Tmap_traits@KPAVCMailBox@@U?$less@K@std@@V?$allocator@U?$pair@$$CBKPAVCMailBox@@@std@@@3@$0A@@std@@@std@@QAE?AV012@H@Z
_TEXT	SEGMENT PARA USE32 PUBLIC 'CODE'
_TEXT	ENDS
;	COMDAT ?_Dec@const_iterator@?$_Tree@V?$_Tmap_traits@KPAVCMailBox@@U?$less@K@std@@V?$allocator@U?$pair@$$CBKPAVCMailBox@@@std@@@3@$0A@@std@@@std@@QAEXXZ
_TEXT	SEGMENT PARA USE32 PUBLIC 'CODE'
_TEXT	ENDS
;	COMDAT ?max_size@?$list@PAVCMail@@V?$allocator@PAVCMail@@@std@@@std@@QBEIXZ
_TEXT	SEGMENT PARA USE32 PUBLIC 'CODE'
_TEXT	ENDS
;	COMDAT ??0?$_List_nod@PAVCMail@@V?$allocator@PAVCMail@@@std@@@std@@IAE@V?$allocator@PAVCMail@@@1@@Z
_TEXT	SEGMENT PARA USE32 PUBLIC 'CODE'
_TEXT	ENDS
;	COMDAT ??0const_iterator@?$list@PAVCMail@@V?$allocator@PAVCMail@@@std@@@std@@QAE@PAU_Node@?$_List_nod@PAVCMail@@V?$allocator@PAVCMail@@@std@@@2@@Z
_TEXT	SEGMENT PARA USE32 PUBLIC 'CODE'
_TEXT	ENDS
;	COMDAT ??0_Node@?$_Tree_nod@V?$_Tmap_traits@KPAVCMail@@U?$less@K@std@@V?$allocator@U?$pair@$$CBKPAVCMail@@@std@@@3@$0A@@std@@@std@@QAE@PAU012@00ABU?$pair@$$CBKPAVCMail@@@2@D@Z
_TEXT	SEGMENT PARA USE32 PUBLIC 'CODE'
_TEXT	ENDS
;	COMDAT ??0_Node@?$_Tree_nod@V?$_Tmap_traits@KPAVCMailBox@@U?$less@K@std@@V?$allocator@U?$pair@$$CBKPAVCMailBox@@@std@@@3@$0A@@std@@@std@@QAE@PAU012@00ABU?$pair@$$CBKPAVCMailBox@@@2@D@Z
_TEXT	SEGMENT PARA USE32 PUBLIC 'CODE'
_TEXT	ENDS
;	COMDAT ??0_Node@?$_List_nod@PAVCMail@@V?$allocator@PAVCMail@@@std@@@std@@QAE@PAU012@0ABQAVCMail@@@Z
_TEXT	SEGMENT PARA USE32 PUBLIC 'CODE'
_TEXT	ENDS
;	COMDAT ?_Root@?$_Tree@V?$_Tmap_traits@KPAVCMail@@U?$less@K@std@@V?$allocator@U?$pair@$$CBKPAVCMail@@@std@@@3@$0A@@std@@@std@@IBEAAPAU_Node@?$_Tree_nod@V?$_Tmap_traits@KPAVCMail@@U?$less@K@std@@V?$allocator@U?$pair@$$CBKPAVCMail@@@std@@@3@$0A@@std@@@2@XZ
_TEXT	SEGMENT PARA USE32 PUBLIC 'CODE'
_TEXT	ENDS
;	COMDAT ??0?$_Tree_nod@V?$_Tmap_traits@KPAVCMail@@U?$less@K@std@@V?$allocator@U?$pair@$$CBKPAVCMail@@@std@@@3@$0A@@std@@@std@@IAE@ABU?$less@K@1@V?$allocator@U?$pair@$$CBKPAVCMail@@@std@@@1@@Z
_TEXT	SEGMENT PARA USE32 PUBLIC 'CODE'
_TEXT	ENDS
;	COMDAT ?construct@?$allocator@PAU_Node@?$_Tree_nod@V?$_Tmap_traits@KPAVCMail@@U?$less@K@std@@V?$allocator@U?$pair@$$CBKPAVCMail@@@std@@@3@$0A@@std@@@std@@@std@@QAEXPAPAU_Node@?$_Tree_nod@V?$_Tmap_traits@KPAVCMail@@U?$less@K@std@@V?$allocator@U?$pair@$$CBKPAVCMail@@@std@@@3@$0A@@std@@@2@ABQAU342@@Z
_TEXT	SEGMENT PARA USE32 PUBLIC 'CODE'
_TEXT	ENDS
;	COMDAT ?_Max@?$_Tree@V?$_Tmap_traits@KPAVCMailBox@@U?$less@K@std@@V?$allocator@U?$pair@$$CBKPAVCMailBox@@@std@@@3@$0A@@std@@@std@@KAPAU_Node@?$_Tree_nod@V?$_Tmap_traits@KPAVCMailBox@@U?$less@K@std@@V?$allocator@U?$pair@$$CBKPAVCMailBox@@@std@@@3@$0A@@std@@@2@PAU342@@Z
_TEXT	SEGMENT PARA USE32 PUBLIC 'CODE'
_TEXT	ENDS
;	COMDAT ??0?$_Tree_nod@V?$_Tmap_traits@KPAVCMailBox@@U?$less@K@std@@V?$allocator@U?$pair@$$CBKPAVCMailBox@@@std@@@3@$0A@@std@@@std@@IAE@ABU?$less@K@1@V?$allocator@U?$pair@$$CBKPAVCMailBox@@@std@@@1@@Z
_TEXT	SEGMENT PARA USE32 PUBLIC 'CODE'
_TEXT	ENDS
;	COMDAT ?construct@?$allocator@PAU_Node@?$_Tree_nod@V?$_Tmap_traits@KPAVCMailBox@@U?$less@K@std@@V?$allocator@U?$pair@$$CBKPAVCMailBox@@@std@@@3@$0A@@std@@@std@@@std@@QAEXPAPAU_Node@?$_Tree_nod@V?$_Tmap_traits@KPAVCMailBox@@U?$less@K@std@@V?$allocator@U?$pair@$$CBKPAVCMailBox@@@std@@@3@$0A@@std@@@2@ABQAU342@@Z
_TEXT	SEGMENT PARA USE32 PUBLIC 'CODE'
_TEXT	ENDS
;	COMDAT ?_Parent@?$_Tree@V?$_Tmap_traits@KP8CDPTrans@@AEXAAVCAr@@KKKPAEK@ZU?$less@K@std@@V?$allocator@U?$pair@$$CBKP8CDPTrans@@AEXAAVCAr@@KKKPAEK@Z@std@@@4@$0A@@std@@@std@@KAAAPAU_Node@?$_Tree_nod@V?$_Tmap_traits@KP8CDPTrans@@AEXAAVCAr@@KKKPAEK@ZU?$less@K@std@@V?$allocator@U?$pair@$$CBKP8CDPTrans@@AEXAAVCAr@@KKKPAEK@Z@std@@@4@$0A@@std@@@2@PAU342@@Z
_TEXT	SEGMENT PARA USE32 PUBLIC 'CODE'
_TEXT	ENDS
;	COMDAT ??0?$_Tmap_traits@KPAVCMail@@U?$less@K@std@@V?$allocator@U?$pair@$$CBKPAVCMail@@@std@@@3@$0A@@std@@QAE@U?$less@K@1@@Z
_TEXT	SEGMENT PARA USE32 PUBLIC 'CODE'
_TEXT	ENDS
;	COMDAT ??0?$_Tmap_traits@KPAVCMailBox@@U?$less@K@std@@V?$allocator@U?$pair@$$CBKPAVCMailBox@@@std@@@3@$0A@@std@@QAE@U?$less@K@1@@Z
_TEXT	SEGMENT PARA USE32 PUBLIC 'CODE'
_TEXT	ENDS
;	COMDAT ??$_Iter_cat@Viterator@?$_Tree@V?$_Tmap_traits@KU_Friend@@U?$less@K@std@@V?$allocator@U?$pair@$$CBKU_Friend@@@std@@@3@$0A@@std@@@std@@@std@@YA?AUbidirectional_iterator_tag@0@ABViterator@?$_Tree@V?$_Tmap_traits@KU_Friend@@U?$less@K@std@@V?$allocator@U?$pair@$$CBKU_Friend@@@std@@@3@$0A@@std@@@0@@Z
_TEXT	SEGMENT PARA USE32 PUBLIC 'CODE'
_TEXT	ENDS
;	COMDAT ??$_Distance2@Viterator@?$_Tree@V?$_Tmap_traits@KU_Friend@@U?$less@K@std@@V?$allocator@U?$pair@$$CBKU_Friend@@@std@@@3@$0A@@std@@@std@@I@std@@YAXViterator@?$_Tree@V?$_Tmap_traits@KU_Friend@@U?$less@K@std@@V?$allocator@U?$pair@$$CBKU_Friend@@@std@@@3@$0A@@std@@@0@0AAIUbidirectional_iterator_tag@0@@Z
_TEXT	SEGMENT PARA USE32 PUBLIC 'CODE'
_TEXT	ENDS
;	COMDAT ??$_Copy_opt@PAJPAJ@std@@YAPAJPAJ00U_Scalar_ptr_iterator_tag@0@@Z
_TEXT	SEGMENT PARA USE32 PUBLIC 'CODE'
_TEXT	ENDS
;	COMDAT ??$_Uninitialized_copy@PAJPAJV?$allocator@J@std@@@std@@YAPAJPAJ00AAV?$allocator@J@0@@Z
_TEXT	SEGMENT PARA USE32 PUBLIC 'CODE'
_TEXT	ENDS
;	COMDAT ??$_Copy_backward_opt@PAJPAJ@std@@YAPAJPAJ00U_Scalar_ptr_iterator_tag@0@@Z
_TEXT	SEGMENT PARA USE32 PUBLIC 'CODE'
_TEXT	ENDS
;	COMDAT ??$_Ptr_cat@PAUtagDROPITEM@@PAU1@@std@@YA?AU_Nonscalar_ptr_iterator_tag@0@AAPAUtagDROPITEM@@0@Z
_TEXT	SEGMENT PARA USE32 PUBLIC 'CODE'
_TEXT	ENDS
;	COMDAT ??$_Destroy_range@UtagDROPITEM@@V?$allocator@UtagDROPITEM@@@std@@@std@@YAXPAUtagDROPITEM@@0AAV?$allocator@UtagDROPITEM@@@0@U_Nonscalar_ptr_iterator_tag@0@@Z
_TEXT	SEGMENT PARA USE32 PUBLIC 'CODE'
_TEXT	ENDS
;	COMDAT ??$_Destroy_range@KV?$allocator@K@std@@@std@@YAXPAK0AAV?$allocator@K@0@U_Scalar_ptr_iterator_tag@0@@Z
_TEXT	SEGMENT PARA USE32 PUBLIC 'CODE'
_TEXT	ENDS
;	COMDAT ??$_Destroy_range@JV?$allocator@J@std@@@std@@YAXPAJ0AAV?$allocator@J@0@U_Scalar_ptr_iterator_tag@0@@Z
_TEXT	SEGMENT PARA USE32 PUBLIC 'CODE'
_TEXT	ENDS
;	COMDAT ??$_Uninit_fill_n@JIJ@std@@YAXPAJIABJAAV?$allocator@J@0@U_Scalar_ptr_iterator_tag@0@@Z
_TEXT	SEGMENT PARA USE32 PUBLIC 'CODE'
_TEXT	ENDS
;	COMDAT ??$throw_exception@Vbad_weak_ptr@boost@@@boost@@YAXABVbad_weak_ptr@0@@Z
_TEXT	SEGMENT PARA USE32 PUBLIC 'CODE'
_TEXT	ENDS
;	COMDAT ??$copy@PAPAVCMail@@PAPAV1@@std@@YAPAPAVCMail@@PAPAV1@00@Z
_TEXT	SEGMENT PARA USE32 PUBLIC 'CODE'
_TEXT	ENDS
;	COMDAT ??$_Distance@Viterator@?$_Tree@V?$_Tmap_traits@KPAVCMail@@U?$less@K@std@@V?$allocator@U?$pair@$$CBKPAVCMail@@@std@@@3@$0A@@std@@@std@@I@std@@YAXViterator@?$_Tree@V?$_Tmap_traits@KPAVCMail@@U?$less@K@std@@V?$allocator@U?$pair@$$CBKPAVCMail@@@std@@@3@$0A@@std@@@0@0AAI@Z
_TEXT	SEGMENT PARA USE32 PUBLIC 'CODE'
_TEXT	ENDS
;	COMDAT ??$_Destroy_range@PAVCMail@@V?$allocator@PAVCMail@@@std@@@std@@YAXPAPAVCMail@@0AAV?$allocator@PAVCMail@@@0@@Z
_TEXT	SEGMENT PARA USE32 PUBLIC 'CODE'
_TEXT	ENDS
;	COMDAT ??$_Uninitialized_fill_n@PAPAVCMail@@IPAV1@V?$allocator@PAVCMail@@@std@@@std@@YAXPAPAVCMail@@IABQAV1@AAV?$allocator@PAVCMail@@@0@@Z
_TEXT	SEGMENT PARA USE32 PUBLIC 'CODE'
_TEXT	ENDS
;	COMDAT ??$_Destroy@U_Node@?$_List_nod@PAVCMail@@V?$allocator@PAVCMail@@@std@@@std@@@std@@YAXPAU_Node@?$_List_nod@PAVCMail@@V?$allocator@PAVCMail@@@std@@@0@@Z
_TEXT	SEGMENT PARA USE32 PUBLIC 'CODE'
_TEXT	ENDS
;	COMDAT ??$_Allocate@H@std@@YAPAHIPAH@Z
_TEXT	SEGMENT PARA USE32 PUBLIC 'CODE'
_TEXT	ENDS
;	COMDAT ??$_Ucopy@PAPAVCMail@@@?$vector@PAVCMail@@V?$allocator@PAVCMail@@@std@@@std@@IAEPAPAVCMail@@PAPAV2@00@Z
_TEXT	SEGMENT PARA USE32 PUBLIC 'CODE'
_TEXT	ENDS
;	COMDAT ??$fill@PAPAVCMail@@PAV1@@std@@YAXPAPAVCMail@@0ABQAV1@@Z
_TEXT	SEGMENT PARA USE32 PUBLIC 'CODE'
_TEXT	ENDS
;	COMDAT ??$copy_backward@PAPAVCMail@@PAPAV1@@std@@YAPAPAVCMail@@PAPAV1@00@Z
_TEXT	SEGMENT PARA USE32 PUBLIC 'CODE'
_TEXT	ENDS
;	COMDAT ??$_Allocate@PAVCMail@@@std@@YAPAPAVCMail@@IPAPAV1@@Z
_TEXT	SEGMENT PARA USE32 PUBLIC 'CODE'
_TEXT	ENDS
;	COMDAT ??$_Destroy@U_Node@?$_Tree_nod@V?$_Tmap_traits@KPAVCMail@@U?$less@K@std@@V?$allocator@U?$pair@$$CBKPAVCMail@@@std@@@3@$0A@@std@@@std@@@std@@YAXPAU_Node@?$_Tree_nod@V?$_Tmap_traits@KPAVCMail@@U?$less@K@std@@V?$allocator@U?$pair@$$CBKPAVCMail@@@std@@@3@$0A@@std@@@0@@Z
_TEXT	SEGMENT PARA USE32 PUBLIC 'CODE'
_TEXT	ENDS
;	COMDAT ??$_Destroy@PAU_Node@?$_Tree_nod@V?$_Tmap_traits@KPAVCMail@@U?$less@K@std@@V?$allocator@U?$pair@$$CBKPAVCMail@@@std@@@3@$0A@@std@@@std@@@std@@YAXPAPAU_Node@?$_Tree_nod@V?$_Tmap_traits@KPAVCMail@@U?$less@K@std@@V?$allocator@U?$pair@$$CBKPAVCMail@@@std@@@3@$0A@@std@@@0@@Z
_TEXT	SEGMENT PARA USE32 PUBLIC 'CODE'
_TEXT	ENDS
;	COMDAT ??$_Destroy@U_Node@?$_Tree_nod@V?$_Tmap_traits@KPAVCMailBox@@U?$less@K@std@@V?$allocator@U?$pair@$$CBKPAVCMailBox@@@std@@@3@$0A@@std@@@std@@@std@@YAXPAU_Node@?$_Tree_nod@V?$_Tmap_traits@KPAVCMailBox@@U?$less@K@std@@V?$allocator@U?$pair@$$CBKPAVCMailBox@@@std@@@3@$0A@@std@@@0@@Z
_TEXT	SEGMENT PARA USE32 PUBLIC 'CODE'
_TEXT	ENDS
;	COMDAT ??$_Destroy@PAU_Node@?$_Tree_nod@V?$_Tmap_traits@KPAVCMailBox@@U?$less@K@std@@V?$allocator@U?$pair@$$CBKPAVCMailBox@@@std@@@3@$0A@@std@@@std@@@std@@YAXPAPAU_Node@?$_Tree_nod@V?$_Tmap_traits@KPAVCMailBox@@U?$less@K@std@@V?$allocator@U?$pair@$$CBKPAVCMailBox@@@std@@@3@$0A@@std@@@0@@Z
_TEXT	SEGMENT PARA USE32 PUBLIC 'CODE'
_TEXT	ENDS
;	COMDAT ??$_Destroy_range@MV?$allocator@M@std@@@std@@YAXPAM0AAV?$allocator@M@0@@Z
_TEXT	SEGMENT PARA USE32 PUBLIC 'CODE'
_TEXT	ENDS
;	COMDAT ??$_Allocate@M@std@@YAPAMIPAM@Z
_TEXT	SEGMENT PARA USE32 PUBLIC 'CODE'
_TEXT	ENDS
;	COMDAT ??$_Destroy_range@HV?$allocator@H@std@@@std@@YAXPAH0AAV?$allocator@H@0@@Z
_TEXT	SEGMENT PARA USE32 PUBLIC 'CODE'
_TEXT	ENDS
;	COMDAT ??$?0PAVCMail@@@?$allocator@PAU_Node@?$_List_nod@PAVCMail@@V?$allocator@PAVCMail@@@std@@@std@@@std@@QAE@ABV?$allocator@PAVCMail@@@1@@Z
_TEXT	SEGMENT PARA USE32 PUBLIC 'CODE'
_TEXT	ENDS
;	COMDAT ??$_Allocate@U_Node@?$_List_nod@PAVCMail@@V?$allocator@PAVCMail@@@std@@@std@@@std@@YAPAU_Node@?$_List_nod@PAVCMail@@V?$allocator@PAVCMail@@@std@@@0@IPAU120@@Z
_TEXT	SEGMENT PARA USE32 PUBLIC 'CODE'
_TEXT	ENDS
;	COMDAT ??$_Construct@PAU_Node@?$_List_nod@PAVCMail@@V?$allocator@PAVCMail@@@std@@@std@@PAU123@@std@@YAXPAPAU_Node@?$_List_nod@PAVCMail@@V?$allocator@PAVCMail@@@std@@@0@ABQAU120@@Z
_TEXT	SEGMENT PARA USE32 PUBLIC 'CODE'
_TEXT	ENDS
;	COMDAT ??$_Destroy@PAU_Node@?$_List_nod@PAVCMail@@V?$allocator@PAVCMail@@@std@@@std@@@std@@YAXPAPAU_Node@?$_List_nod@PAVCMail@@V?$allocator@PAVCMail@@@std@@@0@@Z
_TEXT	SEGMENT PARA USE32 PUBLIC 'CODE'
_TEXT	ENDS
;	COMDAT ??$?0U?$pair@$$CBKPAVCMail@@@std@@@?$allocator@PAU_Node@?$_Tree_nod@V?$_Tmap_traits@KPAVCMail@@U?$less@K@std@@V?$allocator@U?$pair@$$CBKPAVCMail@@@std@@@3@$0A@@std@@@std@@@std@@QAE@ABV?$allocator@U?$pair@$$CBKPAVCMail@@@std@@@1@@Z
_TEXT	SEGMENT PARA USE32 PUBLIC 'CODE'
_TEXT	ENDS
;	COMDAT ??$_Allocate@U_Node@?$_Tree_nod@V?$_Tmap_traits@KPAVCMail@@U?$less@K@std@@V?$allocator@U?$pair@$$CBKPAVCMail@@@std@@@3@$0A@@std@@@std@@@std@@YAPAU_Node@?$_Tree_nod@V?$_Tmap_traits@KPAVCMail@@U?$less@K@std@@V?$allocator@U?$pair@$$CBKPAVCMail@@@std@@@3@$0A@@std@@@0@IPAU120@@Z
_TEXT	SEGMENT PARA USE32 PUBLIC 'CODE'
_TEXT	ENDS
;	COMDAT ??$?0U?$pair@$$CBKPAVCMailBox@@@std@@@?$allocator@PAU_Node@?$_Tree_nod@V?$_Tmap_traits@KPAVCMailBox@@U?$less@K@std@@V?$allocator@U?$pair@$$CBKPAVCMailBox@@@std@@@3@$0A@@std@@@std@@@std@@QAE@ABV?$allocator@U?$pair@$$CBKPAVCMailBox@@@std@@@1@@Z
_TEXT	SEGMENT PARA USE32 PUBLIC 'CODE'
_TEXT	ENDS
;	COMDAT ??$_Allocate@U_Node@?$_Tree_nod@V?$_Tmap_traits@KPAVCMailBox@@U?$less@K@std@@V?$allocator@U?$pair@$$CBKPAVCMailBox@@@std@@@3@$0A@@std@@@std@@@std@@YAPAU_Node@?$_Tree_nod@V?$_Tmap_traits@KPAVCMailBox@@U?$less@K@std@@V?$allocator@U?$pair@$$CBKPAVCMailBox@@@std@@@3@$0A@@std@@@0@IPAU120@@Z
_TEXT	SEGMENT PARA USE32 PUBLIC 'CODE'
_TEXT	ENDS
;	COMDAT ??$?0PAVCMail@@@?$allocator@U_Node@?$_List_nod@PAVCMail@@V?$allocator@PAVCMail@@@std@@@std@@@std@@QAE@ABV?$allocator@PAVCMail@@@1@@Z
_TEXT	SEGMENT PARA USE32 PUBLIC 'CODE'
_TEXT	ENDS
;	COMDAT ??$?0U?$pair@$$CBKPAVCMail@@@std@@@?$allocator@U_Node@?$_Tree_nod@V?$_Tmap_traits@KPAVCMail@@U?$less@K@std@@V?$allocator@U?$pair@$$CBKPAVCMail@@@std@@@3@$0A@@std@@@std@@@std@@QAE@ABV?$allocator@U?$pair@$$CBKPAVCMail@@@std@@@1@@Z
_TEXT	SEGMENT PARA USE32 PUBLIC 'CODE'
_TEXT	ENDS
;	COMDAT ??$_Construct@PAU_Node@?$_Tree_nod@V?$_Tmap_traits@KPAVCMail@@U?$less@K@std@@V?$allocator@U?$pair@$$CBKPAVCMail@@@std@@@3@$0A@@std@@@std@@PAU123@@std@@YAXPAPAU_Node@?$_Tree_nod@V?$_Tmap_traits@KPAVCMail@@U?$less@K@std@@V?$allocator@U?$pair@$$CBKPAVCMail@@@std@@@3@$0A@@std@@@0@ABQAU120@@Z
_TEXT	SEGMENT PARA USE32 PUBLIC 'CODE'
_TEXT	ENDS
;	COMDAT ??$?0U?$pair@$$CBKPAVCMailBox@@@std@@@?$allocator@U_Node@?$_Tree_nod@V?$_Tmap_traits@KPAVCMailBox@@U?$less@K@std@@V?$allocator@U?$pair@$$CBKPAVCMailBox@@@std@@@3@$0A@@std@@@std@@@std@@QAE@ABV?$allocator@U?$pair@$$CBKPAVCMailBox@@@std@@@1@@Z
_TEXT	SEGMENT PARA USE32 PUBLIC 'CODE'
_TEXT	ENDS
;	COMDAT ??$_Construct@PAU_Node@?$_Tree_nod@V?$_Tmap_traits@KPAVCMailBox@@U?$less@K@std@@V?$allocator@U?$pair@$$CBKPAVCMailBox@@@std@@@3@$0A@@std@@@std@@PAU123@@std@@YAXPAPAU_Node@?$_Tree_nod@V?$_Tmap_traits@KPAVCMailBox@@U?$less@K@std@@V?$allocator@U?$pair@$$CBKPAVCMailBox@@@std@@@3@$0A@@std@@@0@ABQAU120@@Z
_TEXT	SEGMENT PARA USE32 PUBLIC 'CODE'
_TEXT	ENDS
;	COMDAT ??0bad_weak_ptr@boost@@QAE@ABV01@@Z
_TEXT	SEGMENT PARA USE32 PUBLIC 'CODE'
_TEXT	ENDS
;	COMDAT ?destroy@?$allocator@UtagDROPITEM@@@std@@QAEXPAUtagDROPITEM@@@Z
_TEXT	SEGMENT PARA USE32 PUBLIC 'CODE'
_TEXT	ENDS
;	COMDAT ??$_Uninit_copy@JJ@std@@YAPAJPAJ00AAV?$allocator@J@0@U_Scalar_ptr_iterator_tag@0@@Z
_TEXT	SEGMENT PARA USE32 PUBLIC 'CODE'
_TEXT	ENDS
;	COMDAT ??$fill_n@PAJIJ@std@@YAXPAJIABJ@Z
_TEXT	SEGMENT PARA USE32 PUBLIC 'CODE'
_TEXT	ENDS
;	COMDAT ??$_Ptr_cat@VCMail@@@std@@YA?AU_Scalar_ptr_iterator_tag@0@PAPAVCMail@@0@Z
_TEXT	SEGMENT PARA USE32 PUBLIC 'CODE'
_TEXT	ENDS
;	COMDAT ??$_Copy_opt@PAPAVCMail@@PAPAV1@@std@@YAPAPAVCMail@@PAPAV1@00U_Scalar_ptr_iterator_tag@0@@Z
_TEXT	SEGMENT PARA USE32 PUBLIC 'CODE'
_TEXT	ENDS
;	COMDAT ??$_Iter_cat@Viterator@?$_Tree@V?$_Tmap_traits@KPAVCMail@@U?$less@K@std@@V?$allocator@U?$pair@$$CBKPAVCMail@@@std@@@3@$0A@@std@@@std@@@std@@YA?AUbidirectional_iterator_tag@0@ABViterator@?$_Tree@V?$_Tmap_traits@KPAVCMail@@U?$less@K@std@@V?$allocator@U?$pair@$$CBKPAVCMail@@@std@@@3@$0A@@std@@@0@@Z
_TEXT	SEGMENT PARA USE32 PUBLIC 'CODE'
_TEXT	ENDS
;	COMDAT ??$_Distance2@Viterator@?$_Tree@V?$_Tmap_traits@KPAVCMail@@U?$less@K@std@@V?$allocator@U?$pair@$$CBKPAVCMail@@@std@@@3@$0A@@std@@@std@@I@std@@YAXViterator@?$_Tree@V?$_Tmap_traits@KPAVCMail@@U?$less@K@std@@V?$allocator@U?$pair@$$CBKPAVCMail@@@std@@@3@$0A@@std@@@0@0AAIUbidirectional_iterator_tag@0@@Z
_TEXT	SEGMENT PARA USE32 PUBLIC 'CODE'
_TEXT	ENDS
;	COMDAT ??$_Destroy_range@PAVCMail@@V?$allocator@PAVCMail@@@std@@@std@@YAXPAPAVCMail@@0AAV?$allocator@PAVCMail@@@0@U_Scalar_ptr_iterator_tag@0@@Z
_TEXT	SEGMENT PARA USE32 PUBLIC 'CODE'
_TEXT	ENDS
;	COMDAT ??$_Uninit_fill_n@PAVCMail@@IPAV1@@std@@YAXPAPAVCMail@@IABQAV1@AAV?$allocator@PAVCMail@@@0@U_Scalar_ptr_iterator_tag@0@@Z
_TEXT	SEGMENT PARA USE32 PUBLIC 'CODE'
_TEXT	ENDS
;	COMDAT ??$_Uninitialized_copy@PAPAVCMail@@PAPAV1@V?$allocator@PAVCMail@@@std@@@std@@YAPAPAVCMail@@PAPAV1@00AAV?$allocator@PAVCMail@@@0@@Z
_TEXT	SEGMENT PARA USE32 PUBLIC 'CODE'
_TEXT	ENDS
;	COMDAT ??$_Copy_backward_opt@PAPAVCMail@@PAPAV1@@std@@YAPAPAVCMail@@PAPAV1@00U_Scalar_ptr_iterator_tag@0@@Z
_TEXT	SEGMENT PARA USE32 PUBLIC 'CODE'
_TEXT	ENDS
;	COMDAT ??$_Destroy_range@MV?$allocator@M@std@@@std@@YAXPAM0AAV?$allocator@M@0@U_Scalar_ptr_iterator_tag@0@@Z
_TEXT	SEGMENT PARA USE32 PUBLIC 'CODE'
_TEXT	ENDS
;	COMDAT ??$_Destroy_range@HV?$allocator@H@std@@@std@@YAXPAH0AAV?$allocator@H@0@U_Scalar_ptr_iterator_tag@0@@Z
_TEXT	SEGMENT PARA USE32 PUBLIC 'CODE'
_TEXT	ENDS
;	COMDAT ??$_Destroy@UtagDROPITEM@@@std@@YAXPAUtagDROPITEM@@@Z
_TEXT	SEGMENT PARA USE32 PUBLIC 'CODE'
_TEXT	ENDS
;	COMDAT ??$fill_n@PAPAVCMail@@IPAV1@@std@@YAXPAPAVCMail@@IABQAV1@@Z
_TEXT	SEGMENT PARA USE32 PUBLIC 'CODE'
_TEXT	ENDS
;	COMDAT ??$_Uninit_copy@PAVCMail@@PAV1@@std@@YAPAPAVCMail@@PAPAV1@00AAV?$allocator@PAVCMail@@@0@U_Scalar_ptr_iterator_tag@0@@Z
_TEXT	SEGMENT PARA USE32 PUBLIC 'CODE'
_TEXT	ENDS
;	COMDAT ?_Ptr_cat@std@@YA?AU_Scalar_ptr_iterator_tag@1@PAH0@Z
_TEXT	SEGMENT PARA USE32 PUBLIC 'CODE'
_TEXT	ENDS
;	COMDAT ?_Ptr_cat@std@@YA?AU_Scalar_ptr_iterator_tag@1@PAM0@Z
_TEXT	SEGMENT PARA USE32 PUBLIC 'CODE'
_TEXT	ENDS
;	COMDAT __CTA2?AVbad_weak_ptr@boost@@
xdata$x	SEGMENT DWORD USE32 PUBLIC 'CONST'
xdata$x	ENDS
;	COMDAT __CT??_R0?AVexception@@@8??0exception@@QAE@ABV0@@Z12
xdata$x	SEGMENT DWORD USE32 PUBLIC 'CONST'
xdata$x	ENDS
;	COMDAT ??_R0?AVexception@@@8
_DATA	SEGMENT DWORD USE32 PUBLIC 'DATA'
_DATA	ENDS
;	COMDAT __CT??_R0?AVbad_weak_ptr@boost@@@8??0bad_weak_ptr@boost@@QAE@ABV01@@Z12
xdata$x	SEGMENT DWORD USE32 PUBLIC 'CONST'
xdata$x	ENDS
;	COMDAT ??_R0?AVbad_weak_ptr@boost@@@8
_DATA	SEGMENT DWORD USE32 PUBLIC 'DATA'
_DATA	ENDS
;	COMDAT __TI2?AVbad_weak_ptr@boost@@
xdata$x	SEGMENT DWORD USE32 PUBLIC 'CONST'
xdata$x	ENDS
;	COMDAT ?_Ptr_cat@std@@YA?AU_Scalar_ptr_iterator_tag@1@PAJ0@Z
_TEXT	SEGMENT PARA USE32 PUBLIC 'CODE'
_TEXT	ENDS
;	COMDAT ??9const_iterator@?$_Tree@V?$_Tmap_traits@KU_Friend@@U?$less@K@std@@V?$allocator@U?$pair@$$CBKU_Friend@@@std@@@3@$0A@@std@@@std@@QBE_NABV012@@Z
_TEXT	SEGMENT PARA USE32 PUBLIC 'CODE'
_TEXT	ENDS
;	COMDAT ??8const_iterator@?$_Tree@V?$_Tmap_traits@KU_Friend@@U?$less@K@std@@V?$allocator@U?$pair@$$CBKU_Friend@@@std@@@3@$0A@@std@@@std@@QBE_NABV012@@Z
_TEXT	SEGMENT PARA USE32 PUBLIC 'CODE'
_TEXT	ENDS
;	COMDAT ??Eiterator@?$_Tree@V?$_Tmap_traits@KU_Friend@@U?$less@K@std@@V?$allocator@U?$pair@$$CBKU_Friend@@@std@@@3@$0A@@std@@@std@@QAEAAV012@XZ
_TEXT	SEGMENT PARA USE32 PUBLIC 'CODE'
_TEXT	ENDS
;	COMDAT ??Econst_iterator@?$_Tree@V?$_Tmap_traits@KU_Friend@@U?$less@K@std@@V?$allocator@U?$pair@$$CBKU_Friend@@@std@@@3@$0A@@std@@@std@@QAEAAV012@XZ
_TEXT	SEGMENT PARA USE32 PUBLIC 'CODE'
_TEXT	ENDS
;	COMDAT ?_Inc@const_iterator@?$_Tree@V?$_Tmap_traits@KU_Friend@@U?$less@K@std@@V?$allocator@U?$pair@$$CBKU_Friend@@@std@@@3@$0A@@std@@@std@@QAEXXZ
_TEXT	SEGMENT PARA USE32 PUBLIC 'CODE'
_TEXT	ENDS
;	COMDAT ?_Min@?$_Tree@V?$_Tmap_traits@KU_Friend@@U?$less@K@std@@V?$allocator@U?$pair@$$CBKU_Friend@@@std@@@3@$0A@@std@@@std@@KAPAU_Node@?$_Tree_nod@V?$_Tmap_traits@KU_Friend@@U?$less@K@std@@V?$allocator@U?$pair@$$CBKU_Friend@@@std@@@3@$0A@@std@@@2@PAU342@@Z
_TEXT	SEGMENT PARA USE32 PUBLIC 'CODE'
_TEXT	ENDS
;	COMDAT ?_Left@?$_Tree@V?$_Tmap_traits@KU_Friend@@U?$less@K@std@@V?$allocator@U?$pair@$$CBKU_Friend@@@std@@@3@$0A@@std@@@std@@KAAAPAU_Node@?$_Tree_nod@V?$_Tmap_traits@KU_Friend@@U?$less@K@std@@V?$allocator@U?$pair@$$CBKU_Friend@@@std@@@3@$0A@@std@@@2@PAU342@@Z
_TEXT	SEGMENT PARA USE32 PUBLIC 'CODE'
_TEXT	ENDS
;	COMDAT ?_Isnil@?$_Tree@V?$_Tmap_traits@KU_Friend@@U?$less@K@std@@V?$allocator@U?$pair@$$CBKU_Friend@@@std@@@3@$0A@@std@@@std@@KAAADPAU_Node@?$_Tree_nod@V?$_Tmap_traits@KU_Friend@@U?$less@K@std@@V?$allocator@U?$pair@$$CBKU_Friend@@@std@@@3@$0A@@std@@@2@@Z
_TEXT	SEGMENT PARA USE32 PUBLIC 'CODE'
_TEXT	ENDS
;	COMDAT ?_Parent@?$_Tree@V?$_Tmap_traits@KU_Friend@@U?$less@K@std@@V?$allocator@U?$pair@$$CBKU_Friend@@@std@@@3@$0A@@std@@@std@@KAAAPAU_Node@?$_Tree_nod@V?$_Tmap_traits@KU_Friend@@U?$less@K@std@@V?$allocator@U?$pair@$$CBKU_Friend@@@std@@@3@$0A@@std@@@2@PAU342@@Z
_TEXT	SEGMENT PARA USE32 PUBLIC 'CODE'
_TEXT	ENDS
;	COMDAT ?_Right@?$_Tree@V?$_Tmap_traits@KU_Friend@@U?$less@K@std@@V?$allocator@U?$pair@$$CBKU_Friend@@@std@@@3@$0A@@std@@@std@@KAAAPAU_Node@?$_Tree_nod@V?$_Tmap_traits@KU_Friend@@U?$less@K@std@@V?$allocator@U?$pair@$$CBKU_Friend@@@std@@@3@$0A@@std@@@2@PAU342@@Z
_TEXT	SEGMENT PARA USE32 PUBLIC 'CODE'
_TEXT	ENDS
;	COMDAT ?_Psave@?$_Facetptr@V?$ctype@G@std@@@std@@2PBVfacet@locale@2@B
_DATA	SEGMENT DWORD USE32 PUBLIC 'DATA'
_DATA	ENDS
;	COMDAT ?_Psave@?$_Facetptr@V?$ctype@D@std@@@std@@2PBVfacet@locale@2@B
_DATA	SEGMENT DWORD USE32 PUBLIC 'DATA'
_DATA	ENDS
;	COMDAT ??_C@_0BB@MOGOBHAF@list?$DMT?$DO?5too?5long?$AA@
CONST	SEGMENT DWORD USE32 PUBLIC 'CONST'
CONST	ENDS
;	COMDAT ??3@YAXPAX0@Z
_TEXT	SEGMENT PARA USE32 PUBLIC 'CODE'
_TEXT	ENDS
;	COMDAT ??2@YAPAXIPAX@Z
_TEXT	SEGMENT PARA USE32 PUBLIC 'CODE'
_TEXT	ENDS
;	COMDAT ??$swap@D@std@@YAXAAD0@Z
_TEXT	SEGMENT PARA USE32 PUBLIC 'CODE'
_TEXT	ENDS
;	COMDAT __TI3?AVout_of_range@std@@
xdata$x	SEGMENT DWORD USE32 PUBLIC 'CONST'
xdata$x	ENDS
;	COMDAT ??1out_of_range@std@@UAE@XZ
_TEXT	SEGMENT PARA USE32 PUBLIC 'CODE'
_TEXT	ENDS
;	COMDAT ??_7out_of_range@std@@6B@
CONST	SEGMENT DWORD USE32 PUBLIC 'CONST'
CONST	ENDS
;	COMDAT ??_Gout_of_range@std@@UAEPAXI@Z
_TEXT	SEGMENT PARA USE32 PUBLIC 'CODE'
_TEXT	ENDS
;	COMDAT ?what@logic_error@std@@UBEPBDXZ
_TEXT	SEGMENT PARA USE32 PUBLIC 'CODE'
_TEXT	ENDS
;	COMDAT ?c_str@?$basic_string@DU?$char_traits@D@std@@V?$allocator@D@2@@std@@QBEPBDXZ
_TEXT	SEGMENT PARA USE32 PUBLIC 'CODE'
_TEXT	ENDS
;	COMDAT ??1logic_error@std@@UAE@XZ
_TEXT	SEGMENT PARA USE32 PUBLIC 'CODE'
_TEXT	ENDS
;	COMDAT ??_7logic_error@std@@6B@
CONST	SEGMENT DWORD USE32 PUBLIC 'CONST'
CONST	ENDS
;	COMDAT ??_Glogic_error@std@@UAEPAXI@Z
_TEXT	SEGMENT PARA USE32 PUBLIC 'CODE'
_TEXT	ENDS
;	COMDAT __CTA3?AVout_of_range@std@@
xdata$x	SEGMENT DWORD USE32 PUBLIC 'CONST'
xdata$x	ENDS
;	COMDAT __CT??_R0?AVout_of_range@std@@@8??0out_of_range@std@@QAE@ABV01@@Z40
xdata$x	SEGMENT DWORD USE32 PUBLIC 'CONST'
xdata$x	ENDS
;	COMDAT ??_R0?AVout_of_range@std@@@8
_DATA	SEGMENT DWORD USE32 PUBLIC 'DATA'
_DATA	ENDS
;	COMDAT ??0out_of_range@std@@QAE@ABV01@@Z
_TEXT	SEGMENT PARA USE32 PUBLIC 'CODE'
_TEXT	ENDS
;	COMDAT ??0logic_error@std@@QAE@ABV01@@Z
_TEXT	SEGMENT PARA USE32 PUBLIC 'CODE'
_TEXT	ENDS
;	COMDAT ??0?$basic_string@DU?$char_traits@D@std@@V?$allocator@D@2@@std@@QAE@ABV01@@Z
_TEXT	SEGMENT PARA USE32 PUBLIC 'CODE'
_TEXT	ENDS
;	COMDAT ??0?$_String_val@DV?$allocator@D@std@@@std@@IAE@V?$allocator@D@1@@Z
_TEXT	SEGMENT PARA USE32 PUBLIC 'CODE'
_TEXT	ENDS
;	COMDAT ??0?$allocator@D@std@@QAE@ABV01@@Z
_TEXT	SEGMENT PARA USE32 PUBLIC 'CODE'
_TEXT	ENDS
;	COMDAT ?_Tidy@?$basic_string@DU?$char_traits@D@std@@V?$allocator@D@2@@std@@IAEX_NI@Z
_TEXT	SEGMENT PARA USE32 PUBLIC 'CODE'
_TEXT	ENDS
;	COMDAT ?copy@?$char_traits@D@std@@SAPADPADPBDI@Z
_TEXT	SEGMENT PARA USE32 PUBLIC 'CODE'
_TEXT	ENDS
;	COMDAT ?deallocate@?$allocator@D@std@@QAEXPADI@Z
_TEXT	SEGMENT PARA USE32 PUBLIC 'CODE'
_TEXT	ENDS
;	COMDAT ?_Eos@?$basic_string@DU?$char_traits@D@std@@V?$allocator@D@2@@std@@IAEXI@Z
_TEXT	SEGMENT PARA USE32 PUBLIC 'CODE'
_TEXT	ENDS
;	COMDAT ?assign@?$char_traits@D@std@@SAXAADABD@Z
_TEXT	SEGMENT PARA USE32 PUBLIC 'CODE'
_TEXT	ENDS
;	COMDAT ?_Myptr@?$basic_string@DU?$char_traits@D@std@@V?$allocator@D@2@@std@@QAEPADXZ
_TEXT	SEGMENT PARA USE32 PUBLIC 'CODE'
_TEXT	ENDS
;	COMDAT ?assign@?$basic_string@DU?$char_traits@D@std@@V?$allocator@D@2@@std@@QAEAAV12@ABV12@II@Z
_TEXT	SEGMENT PARA USE32 PUBLIC 'CODE'
_TEXT	ENDS
;	COMDAT ?erase@?$basic_string@DU?$char_traits@D@std@@V?$allocator@D@2@@std@@QAEAAV12@II@Z
_TEXT	SEGMENT PARA USE32 PUBLIC 'CODE'
_TEXT	ENDS
;	COMDAT ?move@?$char_traits@D@std@@SAPADPADPBDI@Z
_TEXT	SEGMENT PARA USE32 PUBLIC 'CODE'
_TEXT	ENDS
;	COMDAT ?_Grow@?$basic_string@DU?$char_traits@D@std@@V?$allocator@D@2@@std@@IAE_NI_N@Z
_TEXT	SEGMENT PARA USE32 PUBLIC 'CODE'
_TEXT	ENDS
;	COMDAT ?max_size@?$basic_string@DU?$char_traits@D@std@@V?$allocator@D@2@@std@@QBEIXZ
_TEXT	SEGMENT PARA USE32 PUBLIC 'CODE'
_TEXT	ENDS
;	COMDAT ?max_size@?$allocator@D@std@@QBEIXZ
_TEXT	SEGMENT PARA USE32 PUBLIC 'CODE'
_TEXT	ENDS
;	COMDAT ?_Copy@?$basic_string@DU?$char_traits@D@std@@V?$allocator@D@2@@std@@IAEXII@Z
_TEXT	SEGMENT PARA USE32 PUBLIC 'CODE'
_TEXT	ENDS
;	COMDAT ?allocate@?$allocator@D@std@@QAEPADI@Z
_TEXT	SEGMENT PARA USE32 PUBLIC 'CODE'
_TEXT	ENDS
;	COMDAT ??$_Allocate@D@std@@YAPADIPAD@Z
_TEXT	SEGMENT PARA USE32 PUBLIC 'CODE'
_TEXT	ENDS
;	COMDAT ?npos@?$basic_string@DU?$char_traits@D@std@@V?$allocator@D@2@@std@@2IB
CONST	SEGMENT DWORD USE32 PUBLIC 'CONST'
CONST	ENDS
;	COMDAT __CT??_R0?AVlogic_error@std@@@8??0logic_error@std@@QAE@ABV01@@Z40
xdata$x	SEGMENT DWORD USE32 PUBLIC 'CONST'
xdata$x	ENDS
;	COMDAT ??_R0?AVlogic_error@std@@@8
_DATA	SEGMENT DWORD USE32 PUBLIC 'DATA'
_DATA	ENDS
;	COMDAT ??_C@_0BM@PAPJHAGI@invalid?5map?1set?$DMT?$DO?5iterator?$AA@
CONST	SEGMENT DWORD USE32 PUBLIC 'CONST'
CONST	ENDS
;	COMDAT ??0out_of_range@std@@QAE@ABV?$basic_string@DU?$char_traits@D@std@@V?$allocator@D@2@@1@@Z
_TEXT	SEGMENT PARA USE32 PUBLIC 'CODE'
_TEXT	ENDS
;	COMDAT ??0logic_error@std@@QAE@ABV?$basic_string@DU?$char_traits@D@std@@V?$allocator@D@2@@1@@Z
_TEXT	SEGMENT PARA USE32 PUBLIC 'CODE'
_TEXT	ENDS
;	COMDAT ??_C@_0BD@OLBABOEK@vector?$DMT?$DO?5too?5long?$AA@
CONST	SEGMENT DWORD USE32 PUBLIC 'CONST'
CONST	ENDS
;	COMDAT __TI3?AVlength_error@std@@
xdata$x	SEGMENT DWORD USE32 PUBLIC 'CONST'
xdata$x	ENDS
;	COMDAT ??1length_error@std@@UAE@XZ
_TEXT	SEGMENT PARA USE32 PUBLIC 'CODE'
_TEXT	ENDS
;	COMDAT ??_7length_error@std@@6B@
CONST	SEGMENT DWORD USE32 PUBLIC 'CONST'
CONST	ENDS
;	COMDAT ??_Glength_error@std@@UAEPAXI@Z
_TEXT	SEGMENT PARA USE32 PUBLIC 'CODE'
_TEXT	ENDS
;	COMDAT __CTA3?AVlength_error@std@@
xdata$x	SEGMENT DWORD USE32 PUBLIC 'CONST'
xdata$x	ENDS
;	COMDAT __CT??_R0?AVlength_error@std@@@8??0length_error@std@@QAE@ABV01@@Z40
xdata$x	SEGMENT DWORD USE32 PUBLIC 'CONST'
xdata$x	ENDS
;	COMDAT ??_R0?AVlength_error@std@@@8
_DATA	SEGMENT DWORD USE32 PUBLIC 'DATA'
_DATA	ENDS
;	COMDAT ??0length_error@std@@QAE@ABV01@@Z
_TEXT	SEGMENT PARA USE32 PUBLIC 'CODE'
_TEXT	ENDS
;	COMDAT ??1?$basic_string@DU?$char_traits@D@std@@V?$allocator@D@2@@std@@QAE@XZ
_TEXT	SEGMENT PARA USE32 PUBLIC 'CODE'
_TEXT	ENDS
;	COMDAT ??_C@_0BE@JONHPENG@map?1set?$DMT?$DO?5too?5long?$AA@
CONST	SEGMENT DWORD USE32 PUBLIC 'CONST'
CONST	ENDS
;	COMDAT ??0?$basic_string@DU?$char_traits@D@std@@V?$allocator@D@2@@std@@QAE@PBD@Z
_TEXT	SEGMENT PARA USE32 PUBLIC 'CODE'
_TEXT	ENDS
;	COMDAT ??0?$allocator@D@std@@QAE@XZ
_TEXT	SEGMENT PARA USE32 PUBLIC 'CODE'
_TEXT	ENDS
;	COMDAT ?assign@?$basic_string@DU?$char_traits@D@std@@V?$allocator@D@2@@std@@QAEAAV12@PBD@Z
_TEXT	SEGMENT PARA USE32 PUBLIC 'CODE'
_TEXT	ENDS
;	COMDAT ?assign@?$basic_string@DU?$char_traits@D@std@@V?$allocator@D@2@@std@@QAEAAV12@PBDI@Z
_TEXT	SEGMENT PARA USE32 PUBLIC 'CODE'
_TEXT	ENDS
;	COMDAT ?_Inside@?$basic_string@DU?$char_traits@D@std@@V?$allocator@D@2@@std@@IAE_NPBD@Z
_TEXT	SEGMENT PARA USE32 PUBLIC 'CODE'
_TEXT	ENDS
;	COMDAT ?length@?$char_traits@D@std@@SAIPBD@Z
_TEXT	SEGMENT PARA USE32 PUBLIC 'CODE'
_TEXT	ENDS
;	COMDAT ??0length_error@std@@QAE@ABV?$basic_string@DU?$char_traits@D@std@@V?$allocator@D@2@@1@@Z
_TEXT	SEGMENT PARA USE32 PUBLIC 'CODE'
_TEXT	ENDS
;	COMDAT ?compare@?$char_traits@D@std@@SAHPBD0I@Z
_TEXT	SEGMENT PARA USE32 PUBLIC 'CODE'
_TEXT	ENDS
;	COMDAT ??R?$less@K@std@@QBE_NABK0@Z
_TEXT	SEGMENT PARA USE32 PUBLIC 'CODE'
_TEXT	ENDS
;	COMDAT ?_Myptr@?$basic_string@DU?$char_traits@D@std@@V?$allocator@D@2@@std@@QBEPBDXZ
_TEXT	SEGMENT PARA USE32 PUBLIC 'CODE'
_TEXT	ENDS
;	COMDAT ?size@?$basic_string@DU?$char_traits@D@std@@V?$allocator@D@2@@std@@QBEIXZ
_TEXT	SEGMENT PARA USE32 PUBLIC 'CODE'
_TEXT	ENDS
;	COMDAT ?ReleaseBufferSetLength@?$CSimpleStringT@D$0A@@ATL@@QAEXH@Z
_TEXT	SEGMENT PARA USE32 PUBLIC 'CODE'
_TEXT	ENDS
;	COMDAT ?SetLength@?$CSimpleStringT@D$0A@@ATL@@AAEXH@Z
_TEXT	SEGMENT PARA USE32 PUBLIC 'CODE'
_TEXT	ENDS
;	COMDAT ?AtlThrow@ATL@@YGXJ@Z
_TEXT	SEGMENT PARA USE32 PUBLIC 'CODE'
_TEXT	ENDS
;	COMDAT ?GetData@?$CSimpleStringT@D$0A@@ATL@@ABEPAUCStringData@2@XZ
_TEXT	SEGMENT PARA USE32 PUBLIC 'CODE'
_TEXT	ENDS
;	COMDAT ?GetBuffer@?$CSimpleStringT@D$0A@@ATL@@QAEPADH@Z
_TEXT	SEGMENT PARA USE32 PUBLIC 'CODE'
_TEXT	ENDS
;	COMDAT ?PrepareWrite@?$CSimpleStringT@D$0A@@ATL@@AAEPADH@Z
_TEXT	SEGMENT PARA USE32 PUBLIC 'CODE'
_TEXT	ENDS
;	COMDAT ?PrepareWrite2@?$CSimpleStringT@D$0A@@ATL@@AAEXH@Z
_TEXT	SEGMENT PARA USE32 PUBLIC 'CODE'
_TEXT	ENDS
;	COMDAT ?IsShared@CStringData@ATL@@QBE_NXZ
_TEXT	SEGMENT PARA USE32 PUBLIC 'CODE'
_TEXT	ENDS
;	COMDAT ?Fork@?$CSimpleStringT@D$0A@@ATL@@AAEXH@Z
_TEXT	SEGMENT PARA USE32 PUBLIC 'CODE'
_TEXT	ENDS
;	COMDAT ?ThrowMemoryException@?$CSimpleStringT@D$0A@@ATL@@KAXXZ
_TEXT	SEGMENT PARA USE32 PUBLIC 'CODE'
_TEXT	ENDS
;	COMDAT ?CopyChars@?$CSimpleStringT@D$0A@@ATL@@SAXPADPBDH@Z
_TEXT	SEGMENT PARA USE32 PUBLIC 'CODE'
_TEXT	ENDS
;	COMDAT ?data@CStringData@ATL@@QAEPAXXZ
_TEXT	SEGMENT PARA USE32 PUBLIC 'CODE'
_TEXT	ENDS
;	COMDAT ?Release@CStringData@ATL@@QAEXXZ
_TEXT	SEGMENT PARA USE32 PUBLIC 'CODE'
_TEXT	ENDS
;	COMDAT ?Attach@?$CSimpleStringT@D$0A@@ATL@@AAEXPAUCStringData@2@@Z
_TEXT	SEGMENT PARA USE32 PUBLIC 'CODE'
_TEXT	ENDS
;	COMDAT ?Reallocate@?$CSimpleStringT@D$0A@@ATL@@AAEXH@Z
_TEXT	SEGMENT PARA USE32 PUBLIC 'CODE'
_TEXT	ENDS
;	COMDAT ?StringFindString@?$ChTraitsCRT@D@ATL@@SAPBDPBD0@Z
_TEXT	SEGMENT PARA USE32 PUBLIC 'CODE'
_TEXT	ENDS
;	COMDAT ?GetLength@?$CSimpleStringT@D$0A@@ATL@@QBEHXZ
_TEXT	SEGMENT PARA USE32 PUBLIC 'CODE'
_TEXT	ENDS
;	COMDAT ?GetString@?$CSimpleStringT@D$0A@@ATL@@QBEPBDXZ
_TEXT	SEGMENT PARA USE32 PUBLIC 'CODE'
_TEXT	ENDS
;	COMDAT ??GCTime@ATL@@QBE?AV01@VCTimeSpan@1@@Z
_TEXT	SEGMENT PARA USE32 PUBLIC 'CODE'
_TEXT	ENDS
;	COMDAT ?GetTimeSpan@CTimeSpan@ATL@@QBE_JXZ
_TEXT	SEGMENT PARA USE32 PUBLIC 'CODE'
_TEXT	ENDS
;	COMDAT ??1CMclAutoLock@@QAE@XZ
_TEXT	SEGMENT PARA USE32 PUBLIC 'CODE'
_TEXT	ENDS
;	COMDAT ?Leave@CMclCritSec@@QAEXXZ
_TEXT	SEGMENT PARA USE32 PUBLIC 'CODE'
_TEXT	ENDS
;	COMDAT ??0CMclAutoLock@@QAE@AAVCMclCritSec@@@Z
_TEXT	SEGMENT PARA USE32 PUBLIC 'CODE'
_TEXT	ENDS
;	COMDAT ?Enter@CMclCritSec@@QAEXXZ
_TEXT	SEGMENT PARA USE32 PUBLIC 'CODE'
_TEXT	ENDS
;	COMDAT ?sPost@?1??GetInstance@CPost@@SAPAV2@XZ@4V2@A
_BSS	SEGMENT DWORD USE32 PUBLIC 'BSS'
_BSS	ENDS
;	COMDAT ?$S3@?1??GetInstance@CPost@@SAPAV2@XZ@4IA
_BSS	SEGMENT DWORD USE32 PUBLIC 'BSS'
_BSS	ENDS
;	COMDAT ??6CAr@@QAEAAV0@I@Z
_TEXT	SEGMENT PARA USE32 PUBLIC 'CODE'
_TEXT	ENDS
;	COMDAT ??1CMclCritSec@@UAE@XZ
_TEXT	SEGMENT PARA USE32 PUBLIC 'CODE'
_TEXT	ENDS
;	COMDAT ??_7CMclCritSec@@6B@
CONST	SEGMENT DWORD USE32 PUBLIC 'CONST'
CONST	ENDS
;	COMDAT ??_GCMclCritSec@@UAEPAXI@Z
_TEXT	SEGMENT PARA USE32 PUBLIC 'CODE'
_TEXT	ENDS
;	COMDAT ??0CMclCritSec@@QAE@XZ
_TEXT	SEGMENT PARA USE32 PUBLIC 'CODE'
_TEXT	ENDS
;	COMDAT ??_7CPost@@6B@
CONST	SEGMENT DWORD USE32 PUBLIC 'CONST'
CONST	ENDS
;	COMDAT ?sMailBox@?1??GetInstance@CMailBox@@SAPAV2@XZ@4V2@A
_BSS	SEGMENT DWORD USE32 PUBLIC 'BSS'
_BSS	ENDS
;	COMDAT ?$S1@?1??GetInstance@CMailBox@@SAPAV2@XZ@4IA
_BSS	SEGMENT DWORD USE32 PUBLIC 'BSS'
_BSS	ENDS
;	COMDAT ??_7CMailBox@@6B@
CONST	SEGMENT DWORD USE32 PUBLIC 'CONST'
CONST	ENDS
;	COMDAT ??5CAr@@QAEAAV0@AAE@Z
_TEXT	SEGMENT PARA USE32 PUBLIC 'CODE'
_TEXT	ENDS
;	COMDAT ??6CAr@@QAEAAV0@E@Z
_TEXT	SEGMENT PARA USE32 PUBLIC 'CODE'
_TEXT	ENDS
;	COMDAT ?GetTotalHours@COleDateTimeSpan@ATL@@QBENXZ
_TEXT	SEGMENT PARA USE32 PUBLIC 'CODE'
_TEXT	ENDS
;	COMDAT ?OLE_DATETIME_HALFSECOND@COleDateTimeSpan@ATL@@0NB
CONST	SEGMENT DWORD USE32 PUBLIC 'CONST'
CONST	ENDS
;	COMDAT ?GetTotalDays@COleDateTimeSpan@ATL@@QBENXZ
_TEXT	SEGMENT PARA USE32 PUBLIC 'CODE'
_TEXT	ENDS
;	COMDAT ??GCOleDateTimeSpan@ATL@@QBE?AV01@ABV01@@Z
_TEXT	SEGMENT PARA USE32 PUBLIC 'CODE'
_TEXT	ENDS
;	COMDAT ??0COleDateTimeSpan@ATL@@QAE@XZ
_TEXT	SEGMENT PARA USE32 PUBLIC 'CODE'
_TEXT	ENDS
;	COMDAT ?GetStatus@COleDateTimeSpan@ATL@@QBE?AW4DateTimeSpanStatus@12@XZ
_TEXT	SEGMENT PARA USE32 PUBLIC 'CODE'
_TEXT	ENDS
;	COMDAT ?SetStatus@COleDateTimeSpan@ATL@@QAEXW4DateTimeSpanStatus@12@@Z
_TEXT	SEGMENT PARA USE32 PUBLIC 'CODE'
_TEXT	ENDS
;	COMDAT ?CheckRange@COleDateTimeSpan@ATL@@QAEXXZ
_TEXT	SEGMENT PARA USE32 PUBLIC 'CODE'
_TEXT	ENDS
;	COMDAT ?GetDay@COleDateTime@ATL@@QBEHXZ
_TEXT	SEGMENT PARA USE32 PUBLIC 'CODE'
_TEXT	ENDS
;	COMDAT ?GetAsSystemTime@COleDateTime@ATL@@QBE_NAAU_SYSTEMTIME@@@Z
_TEXT	SEGMENT PARA USE32 PUBLIC 'CODE'
_TEXT	ENDS
;	COMDAT ?GetStatus@COleDateTime@ATL@@QBE?AW4DateTimeStatus@12@XZ
_TEXT	SEGMENT PARA USE32 PUBLIC 'CODE'
_TEXT	ENDS
;	COMDAT ?GetHour@COleDateTime@ATL@@QBEHXZ
_TEXT	SEGMENT PARA USE32 PUBLIC 'CODE'
_TEXT	ENDS
;	COMDAT ?GetMinute@COleDateTime@ATL@@QBEHXZ
_TEXT	SEGMENT PARA USE32 PUBLIC 'CODE'
_TEXT	ENDS
;	COMDAT ?GetSecond@COleDateTime@ATL@@QBEHXZ
_TEXT	SEGMENT PARA USE32 PUBLIC 'CODE'
_TEXT	ENDS
;	COMDAT ??0COleDateTimeSpan@ATL@@QAE@JHHH@Z
_TEXT	SEGMENT PARA USE32 PUBLIC 'CODE'
_TEXT	ENDS
;	COMDAT ?SetDateTimeSpan@COleDateTimeSpan@ATL@@QAEXJHHH@Z
_TEXT	SEGMENT PARA USE32 PUBLIC 'CODE'
_TEXT	ENDS
;	COMDAT ?GetYear@CTime@ATL@@QBEHXZ
_TEXT	SEGMENT PARA USE32 PUBLIC 'CODE'
_TEXT	ENDS
;	COMDAT ?GetLocalTm@CTime@ATL@@QBEPAUtm@@PAU3@@Z
_TEXT	SEGMENT PARA USE32 PUBLIC 'CODE'
_TEXT	ENDS
;	COMDAT ?GetMonth@CTime@ATL@@QBEHXZ
_TEXT	SEGMENT PARA USE32 PUBLIC 'CODE'
_TEXT	ENDS
;	COMDAT ?GetDay@CTime@ATL@@QBEHXZ
_TEXT	SEGMENT PARA USE32 PUBLIC 'CODE'
_TEXT	ENDS
;	COMDAT ?GetHour@CTime@ATL@@QBEHXZ
_TEXT	SEGMENT PARA USE32 PUBLIC 'CODE'
_TEXT	ENDS
;	COMDAT ?GetMinute@CTime@ATL@@QBEHXZ
_TEXT	SEGMENT PARA USE32 PUBLIC 'CODE'
_TEXT	ENDS
;	COMDAT ?GetSecond@CTime@ATL@@QBEHXZ
_TEXT	SEGMENT PARA USE32 PUBLIC 'CODE'
_TEXT	ENDS
;	COMDAT ?SetDateTime@COleDateTime@ATL@@QAEHHHHHHH@Z
_TEXT	SEGMENT PARA USE32 PUBLIC 'CODE'
_TEXT	ENDS
;	COMDAT ??0CTime@ATL@@QAE@_J@Z
_TEXT	SEGMENT PARA USE32 PUBLIC 'CODE'
_TEXT	ENDS
;	COMDAT ??0COleDateTime@ATL@@QAE@XZ
_TEXT	SEGMENT PARA USE32 PUBLIC 'CODE'
_TEXT	ENDS
;	COMDAT ??_7CMail@@6B@
CONST	SEGMENT DWORD USE32 PUBLIC 'CONST'
CONST	ENDS
;	COMDAT ??4?$CStringT@DV?$StrTraitMFC@DV?$ChTraitsCRT@D@ATL@@@@@ATL@@QAEAAV01@PBD@Z
_TEXT	SEGMENT PARA USE32 PUBLIC 'CODE'
_TEXT	ENDS
;	COMDAT ??4?$CSimpleStringT@D$0A@@ATL@@QAEAAV01@PBD@Z
_TEXT	SEGMENT PARA USE32 PUBLIC 'CODE'
_TEXT	ENDS
;	COMDAT ?SetString@?$CSimpleStringT@D$0A@@ATL@@QAEXPBD@Z
_TEXT	SEGMENT PARA USE32 PUBLIC 'CODE'
_TEXT	ENDS
;	COMDAT ?SetString@?$CSimpleStringT@D$0A@@ATL@@QAEXPBDH@Z
_TEXT	SEGMENT PARA USE32 PUBLIC 'CODE'
_TEXT	ENDS
;	COMDAT ?Empty@?$CSimpleStringT@D$0A@@ATL@@QAEXXZ
_TEXT	SEGMENT PARA USE32 PUBLIC 'CODE'
_TEXT	ENDS
;	COMDAT ?IsLocked@CStringData@ATL@@QBE_NXZ
_TEXT	SEGMENT PARA USE32 PUBLIC 'CODE'
_TEXT	ENDS
;	COMDAT ?CopyCharsOverlapped@?$CSimpleStringT@D$0A@@ATL@@SAXPADPBDH@Z
_TEXT	SEGMENT PARA USE32 PUBLIC 'CODE'
_TEXT	ENDS
;	COMDAT ?StringLength@?$CSimpleStringT@D$0A@@ATL@@SAHPBD@Z
_TEXT	SEGMENT PARA USE32 PUBLIC 'CODE'
_TEXT	ENDS
;	COMDAT ??B?$CSimpleStringT@D$0A@@ATL@@QBEPBDXZ
_TEXT	SEGMENT PARA USE32 PUBLIC 'CODE'
_TEXT	ENDS
;	COMDAT ??5@YAAAVCAr@@AAV0@AAUD3DXVECTOR3@@@Z
_TEXT	SEGMENT PARA USE32 PUBLIC 'CODE'
_TEXT	ENDS
;	COMDAT ??5CAr@@QAEAAV0@AAM@Z
_TEXT	SEGMENT PARA USE32 PUBLIC 'CODE'
_TEXT	ENDS
;	COMDAT ??5CAr@@QAEAAV0@AAK@Z
_TEXT	SEGMENT PARA USE32 PUBLIC 'CODE'
_TEXT	ENDS
;	COMDAT ??5CAr@@QAEAAV0@AAJ@Z
_TEXT	SEGMENT PARA USE32 PUBLIC 'CODE'
_TEXT	ENDS
;	COMDAT ?time_null@@YAJXZ
_TEXT	SEGMENT PARA USE32 PUBLIC 'CODE'
_TEXT	ENDS
;	COMDAT ??6CAr@@QAEAAV0@K@Z
_TEXT	SEGMENT PARA USE32 PUBLIC 'CODE'
_TEXT	ENDS
;	COMDAT ??6CAr@@QAEAAV0@J@Z
_TEXT	SEGMENT PARA USE32 PUBLIC 'CODE'
_TEXT	ENDS
;	COMDAT ??6@YAAAVCAr@@AAV0@UD3DXVECTOR3@@@Z
_TEXT	SEGMENT PARA USE32 PUBLIC 'CODE'
_TEXT	ENDS
;	COMDAT ??6CAr@@QAEAAV0@M@Z
_TEXT	SEGMENT PARA USE32 PUBLIC 'CODE'
_TEXT	ENDS
;	COMDAT ?IsStoring@CAr@@QBEHXZ
_TEXT	SEGMENT PARA USE32 PUBLIC 'CODE'
_TEXT	ENDS
;	COMDAT ?GetTime@CTime@ATL@@QBE_JXZ
_TEXT	SEGMENT PARA USE32 PUBLIC 'CODE'
_TEXT	ENDS
;	COMDAT ??0CTimeSpan@ATL@@QAE@JHHH@Z
_TEXT	SEGMENT PARA USE32 PUBLIC 'CODE'
_TEXT	ENDS
;	COMDAT ?GetTickCount@CTime@ATL@@SG?AV12@XZ
_TEXT	SEGMENT PARA USE32 PUBLIC 'CODE'
_TEXT	ENDS
;	COMDAT ??HCTime@ATL@@QBE?AV01@VCTimeSpan@1@@Z
_TEXT	SEGMENT PARA USE32 PUBLIC 'CODE'
_TEXT	ENDS
;	COMDAT ?GetItemProp@CProject@@QAEPAUItemProp@@H@Z
_TEXT	SEGMENT PARA USE32 PUBLIC 'CODE'
_TEXT	ENDS
;	COMDAT ?GetAt@?$CFixedArray@UItemProp@@@@QAEPAUItemProp@@K@Z
_TEXT	SEGMENT PARA USE32 PUBLIC 'CODE'
_TEXT	ENDS
;	COMDAT ??0D3DXVECTOR3@@QAE@MMM@Z
_TEXT	SEGMENT PARA USE32 PUBLIC 'CODE'
_TEXT	ENDS
;	COMDAT ??5CAr@@QAEAAV0@AAH@Z
_TEXT	SEGMENT PARA USE32 PUBLIC 'CODE'
_TEXT	ENDS
;	COMDAT ??6CAr@@QAEAAV0@H@Z
_TEXT	SEGMENT PARA USE32 PUBLIC 'CODE'
_TEXT	ENDS
;	COMDAT ??_7CLordSkillComponentExecutable@@6B@
CONST	SEGMENT DWORD USE32 PUBLIC 'CONST'
CONST	ENDS
;	COMDAT ??_7bad_weak_ptr@boost@@6B@
CONST	SEGMENT DWORD USE32 PUBLIC 'CONST'
CONST	ENDS
;	COMDAT ??_7sp_counted_base@detail@boost@@6B@
CONST	SEGMENT DWORD USE32 PUBLIC 'CONST'
CONST	ENDS
sxdata	SEGMENT DWORD USE32 'SXDATA'
sxdata	ENDS
FLAT	GROUP _DATA, CONST, _BSS
	ASSUME	CS: FLAT, DS: FLAT, SS: FLAT
endif

INCLUDELIB LIBCMT
INCLUDELIB OLDNAMES

PUBLIC	?OLE_DATETIME_HALFSECOND@COleDateTimeSpan@ATL@@0NB ; ATL::COleDateTimeSpan::OLE_DATETIME_HALFSECOND
PUBLIC	?s_nMail@CMail@@2KA				; CMail::s_nMail
_BSS	SEGMENT
?s_nMail@CMail@@2KA DD 01H DUP (?)			; CMail::s_nMail
_BSS	ENDS
;	COMDAT ?OLE_DATETIME_HALFSECOND@COleDateTimeSpan@ATL@@0NB
CONST	SEGMENT
?OLE_DATETIME_HALFSECOND@COleDateTimeSpan@ATL@@0NB DQ 03ed845c8a0ce5129r ; 5.78704e-006 ; ATL::COleDateTimeSpan::OLE_DATETIME_HALFSECOND
CONST	ENDS
PUBLIC	?SetMailBox@CMail@@QAEXPAVCMailBox@@@Z		; CMail::SetMailBox
; Function compile flags: /Ogty
; File c:\documents and settings\test\mes documents\source\virtuos_v17\build\program\_common\post.h
;	COMDAT ?SetMailBox@CMail@@QAEXPAVCMailBox@@@Z
_TEXT	SEGMENT
_pMailBox$ = 8						; size = 4
?SetMailBox@CMail@@QAEXPAVCMailBox@@@Z PROC NEAR	; CMail::SetMailBox, COMDAT
; _this$ = ecx

; 40   : 	void	SetMailBox( CMailBox* pMailBox )	{	m_pMailBox	= pMailBox;	}

  00000	8b 44 24 04	 mov	 eax, DWORD PTR _pMailBox$[esp-4]
  00004	89 81 3c 01 00
	00		 mov	 DWORD PTR [ecx+316], eax
  0000a	c2 04 00	 ret	 4
?SetMailBox@CMail@@QAEXPAVCMailBox@@@Z ENDP		; CMail::SetMailBox
_TEXT	ENDS
PUBLIC	?SetPost@CMailBox@@QAEXPAVCPost@@@Z		; CMailBox::SetPost
; Function compile flags: /Ogty
;	COMDAT ?SetPost@CMailBox@@QAEXPAVCPost@@@Z
_TEXT	SEGMENT
_pPost$ = 8						; size = 4
?SetPost@CMailBox@@QAEXPAVCPost@@@Z PROC NEAR		; CMailBox::SetPost, COMDAT
; _this$ = ecx

; 104  : 	void	SetPost( CPost* pPost )	{	m_pPost	= pPost;	}

  00000	8b 44 24 04	 mov	 eax, DWORD PTR _pPost$[esp-4]
  00004	89 41 14	 mov	 DWORD PTR [ecx+20], eax
  00007	c2 04 00	 ret	 4
?SetPost@CMailBox@@QAEXPAVCPost@@@Z ENDP		; CMailBox::SetPost
_TEXT	ENDS
PUBLIC	??2@YAPAXIPAX@Z					; operator new
; Function compile flags: /Ogty
; File c:\program files\microsoft visual studio .net 2003\vc7\include\new.h
;	COMDAT ??2@YAPAXIPAX@Z
_TEXT	SEGMENT
___formal$ = 8						; size = 4
__P$ = 12						; size = 4
??2@YAPAXIPAX@Z PROC NEAR				; operator new, COMDAT

; 109  :         {return (_P); }

  00000	8b 44 24 08	 mov	 eax, DWORD PTR __P$[esp-4]
  00004	c3		 ret	 0
??2@YAPAXIPAX@Z ENDP					; operator new
_TEXT	ENDS
PUBLIC	??3@YAXPAX0@Z					; operator delete
; Function compile flags: /Ogty
;	COMDAT ??3@YAXPAX0@Z
_TEXT	SEGMENT
___formal$ = 8						; size = 4
___formal$ = 12						; size = 4
??3@YAXPAX0@Z PROC NEAR					; operator delete, COMDAT

; 112  :         {return; }

  00000	c3		 ret	 0
??3@YAXPAX0@Z ENDP					; operator delete
_TEXT	ENDS
PUBLIC	??0CMail@@QAE@XZ				; CMail::CMail
PUBLIC	??_7CMail@@6B@					; CMail::`vftable'
PUBLIC	??_GCMail@@UAEPAXI@Z				; CMail::`scalar deleting destructor'
EXTRN	??_ECMail@@UAEPAXI@Z:NEAR			; CMail::`vector deleting destructor'
;	COMDAT ??_7CMail@@6B@
; File c:\documents and settings\test\mes documents\source\virtuos_v17\build\program\_common\post.cpp
CONST	SEGMENT
??_7CMail@@6B@ DD FLAT:??_ECMail@@UAEPAXI@Z		; CMail::`vftable'
; Function compile flags: /Ogty
CONST	ENDS
;	COMDAT ??0CMail@@QAE@XZ
_TEXT	SEGMENT
??0CMail@@QAE@XZ PROC NEAR				; CMail::CMail, COMDAT
; _this$ = ecx

; 17   : {

  00000	8b c1		 mov	 eax, ecx

; 18   : 	m_nMail	= 0;

  00002	33 c9		 xor	 ecx, ecx
  00004	c7 00 00 00 00
	00		 mov	 DWORD PTR [eax], OFFSET FLAT:??_7CMail@@6B@
  0000a	89 48 04	 mov	 DWORD PTR [eax+4], ecx

; 19   : 	m_idSender	= 0;

  0000d	89 48 08	 mov	 DWORD PTR [eax+8], ecx

; 20   : 	m_pItemElem	= NULL;

  00010	89 48 0c	 mov	 DWORD PTR [eax+12], ecx

; 21   : 	m_tmCreate	= 0;

  00013	89 48 14	 mov	 DWORD PTR [eax+20], ecx

; 22   : 	m_byRead	= FALSE;

  00016	88 48 18	 mov	 BYTE PTR [eax+24], cl

; 23   : 	*m_szTitle	= '\0';

  00019	88 48 19	 mov	 BYTE PTR [eax+25], cl

; 24   : 	*m_szText	= '\0';

  0001c	88 48 39	 mov	 BYTE PTR [eax+57], cl

; 25   : #ifdef __DBSERVER
; 26   : 	m_pMailBox	= NULL;

  0001f	89 88 3c 01 00
	00		 mov	 DWORD PTR [eax+316], ecx

; 27   : #endif	// __DBSERVER
; 28   : 	m_nGold		= 0;

  00025	89 48 10	 mov	 DWORD PTR [eax+16], ecx

; 29   : }

  00028	c3		 ret	 0
??0CMail@@QAE@XZ ENDP					; CMail::CMail
_TEXT	ENDS
PUBLIC	?Clear@CMail@@QAEXXZ				; CMail::Clear
; Function compile flags: /Ogty
;	COMDAT ?Clear@CMail@@QAEXXZ
_TEXT	SEGMENT
?Clear@CMail@@QAEXXZ PROC NEAR				; CMail::Clear, COMDAT
; _this$ = ecx

; 52   : {

  00000	56		 push	 esi
  00001	8b f1		 mov	 esi, ecx

; 53   : 	SAFE_DELETE( m_pItemElem );

  00003	8b 4e 0c	 mov	 ecx, DWORD PTR [esi+12]
  00006	85 c9		 test	 ecx, ecx
  00008	74 0d		 je	 SHORT $L198870
  0000a	8b 01		 mov	 eax, DWORD PTR [ecx]
  0000c	6a 01		 push	 1
  0000e	ff 10		 call	 DWORD PTR [eax]
  00010	c7 46 0c 00 00
	00 00		 mov	 DWORD PTR [esi+12], 0
$L198870:
  00017	5e		 pop	 esi

; 54   : }

  00018	c3		 ret	 0
?Clear@CMail@@QAEXXZ ENDP				; CMail::Clear
_TEXT	ENDS
PUBLIC	?GetCost@CMail@@QAEKXZ				; CMail::GetCost
; Function compile flags: /Ogty
;	COMDAT ?GetCost@CMail@@QAEKXZ
_TEXT	SEGMENT
?GetCost@CMail@@QAEKXZ PROC NEAR			; CMail::GetCost, COMDAT
; _this$ = ecx

; 58   : 	return 0;

  00000	33 c0		 xor	 eax, eax

; 59   : }

  00002	c3		 ret	 0
?GetCost@CMail@@QAEKXZ ENDP				; CMail::GetCost
_TEXT	ENDS
PUBLIC	?size@?$vector@PAVCMail@@V?$allocator@PAVCMail@@@std@@@std@@QBEIXZ ; std::vector<CMail *,std::allocator<CMail *> >::size
; Function compile flags: /Ogty
; File c:\program files\microsoft visual studio .net 2003\vc7\include\vector
;	COMDAT ?size@?$vector@PAVCMail@@V?$allocator@PAVCMail@@@std@@@std@@QBEIXZ
_TEXT	SEGMENT
?size@?$vector@PAVCMail@@V?$allocator@PAVCMail@@@std@@@std@@QBEIXZ PROC NEAR ; std::vector<CMail *,std::allocator<CMail *> >::size, COMDAT
; _this$ = ecx

; 516  : 		return (_Myfirst == 0 ? 0 : _Mylast - _Myfirst);

  00000	8b 51 04	 mov	 edx, DWORD PTR [ecx+4]
  00003	85 d2		 test	 edx, edx
  00005	75 03		 jne	 SHORT $L202500
  00007	33 c0		 xor	 eax, eax

; 517  : 		}

  00009	c3		 ret	 0
$L202500:

; 516  : 		return (_Myfirst == 0 ? 0 : _Mylast - _Myfirst);

  0000a	8b 41 08	 mov	 eax, DWORD PTR [ecx+8]
  0000d	2b c2		 sub	 eax, edx
  0000f	c1 f8 02	 sar	 eax, 2

; 517  : 		}

  00012	c3		 ret	 0
?size@?$vector@PAVCMail@@V?$allocator@PAVCMail@@@std@@@std@@QBEIXZ ENDP ; std::vector<CMail *,std::allocator<CMail *> >::size
_TEXT	ENDS
PUBLIC	?size@?$_Tree@V?$_Tmap_traits@KPAVCMailBox@@U?$less@K@std@@V?$allocator@U?$pair@$$CBKPAVCMailBox@@@std@@@3@$0A@@std@@@std@@QBEIXZ ; std::_Tree<std::_Tmap_traits<unsigned long,CMailBox *,std::less<unsigned long>,std::allocator<std::pair<unsigned long const ,CMailBox *> >,0> >::size
; Function compile flags: /Ogty
; File c:\program files\microsoft visual studio .net 2003\vc7\include\xtree
;	COMDAT ?size@?$_Tree@V?$_Tmap_traits@KPAVCMailBox@@U?$less@K@std@@V?$allocator@U?$pair@$$CBKPAVCMailBox@@@std@@@3@$0A@@std@@@std@@QBEIXZ
_TEXT	SEGMENT
?size@?$_Tree@V?$_Tmap_traits@KPAVCMailBox@@U?$less@K@std@@V?$allocator@U?$pair@$$CBKPAVCMailBox@@@std@@@3@$0A@@std@@@std@@QBEIXZ PROC NEAR ; std::_Tree<std::_Tmap_traits<unsigned long,CMailBox *,std::less<unsigned long>,std::allocator<std::pair<unsigned long const ,CMailBox *> >,0> >::size, COMDAT
; _this$ = ecx

; 448  : 		return (_Mysize);

  00000	8b 41 08	 mov	 eax, DWORD PTR [ecx+8]

; 449  : 		}

  00003	c3		 ret	 0
?size@?$_Tree@V?$_Tmap_traits@KPAVCMailBox@@U?$less@K@std@@V?$allocator@U?$pair@$$CBKPAVCMailBox@@@std@@@3@$0A@@std@@@std@@QBEIXZ ENDP ; std::_Tree<std::_Tmap_traits<unsigned long,CMailBox *,std::less<unsigned long>,std::allocator<std::pair<unsigned long const ,CMailBox *> >,0> >::size
_TEXT	ENDS
PUBLIC	??0CTimeSpan@ATL@@QAE@JHHH@Z			; ATL::CTimeSpan::CTimeSpan
EXTRN	__allmul:NEAR
; Function compile flags: /Ogty
; File c:\program files\microsoft visual studio .net 2003\vc7\atlmfc\include\atltime.inl
;	COMDAT ??0CTimeSpan@ATL@@QAE@JHHH@Z
_TEXT	SEGMENT
_lDays$ = 8						; size = 4
_nHours$ = 12						; size = 4
_nMins$ = 16						; size = 4
_nSecs$ = 20						; size = 4
??0CTimeSpan@ATL@@QAE@JHHH@Z PROC NEAR			; ATL::CTimeSpan::CTimeSpan, COMDAT
; _this$ = ecx

; 38   :  	m_timeSpan = nSecs + 60* (nMins + 60* (nHours + __int64(24) * lDays));

  00000	8b 44 24 04	 mov	 eax, DWORD PTR _lDays$[esp-4]
  00004	56		 push	 esi
  00005	57		 push	 edi
  00006	6a 00		 push	 0
  00008	99		 cdq
  00009	6a 18		 push	 24			; 00000018H
  0000b	52		 push	 edx
  0000c	50		 push	 eax
  0000d	8b f1		 mov	 esi, ecx
  0000f	e8 00 00 00 00	 call	 __allmul
  00014	8b c8		 mov	 ecx, eax
  00016	8b 44 24 10	 mov	 eax, DWORD PTR _nHours$[esp+4]
  0001a	8b fa		 mov	 edi, edx
  0001c	99		 cdq
  0001d	6a 00		 push	 0
  0001f	03 c8		 add	 ecx, eax
  00021	6a 3c		 push	 60			; 0000003cH
  00023	13 fa		 adc	 edi, edx
  00025	57		 push	 edi
  00026	51		 push	 ecx
  00027	e8 00 00 00 00	 call	 __allmul
  0002c	8b c8		 mov	 ecx, eax
  0002e	8b 44 24 14	 mov	 eax, DWORD PTR _nMins$[esp+4]
  00032	8b fa		 mov	 edi, edx
  00034	99		 cdq
  00035	6a 00		 push	 0
  00037	03 c8		 add	 ecx, eax
  00039	6a 3c		 push	 60			; 0000003cH
  0003b	13 fa		 adc	 edi, edx
  0003d	57		 push	 edi
  0003e	51		 push	 ecx
  0003f	e8 00 00 00 00	 call	 __allmul
  00044	8b c8		 mov	 ecx, eax
  00046	8b 44 24 18	 mov	 eax, DWORD PTR _nSecs$[esp+4]
  0004a	8b fa		 mov	 edi, edx
  0004c	99		 cdq
  0004d	03 c8		 add	 ecx, eax
  0004f	13 fa		 adc	 edi, edx
  00051	89 7e 04	 mov	 DWORD PTR [esi+4], edi
  00054	5f		 pop	 edi
  00055	89 0e		 mov	 DWORD PTR [esi], ecx

; 39   : }

  00057	8b c6		 mov	 eax, esi
  00059	5e		 pop	 esi
  0005a	c2 10 00	 ret	 16			; 00000010H
??0CTimeSpan@ATL@@QAE@JHHH@Z ENDP			; ATL::CTimeSpan::CTimeSpan
_TEXT	ENDS
PUBLIC	??Eiterator@?$vector@PAVCMail@@V?$allocator@PAVCMail@@@std@@@std@@QAEAAV012@XZ ; std::vector<CMail *,std::allocator<CMail *> >::iterator::operator++
; Function compile flags: /Ogty
; File c:\program files\microsoft visual studio .net 2003\vc7\include\vector
;	COMDAT ??Eiterator@?$vector@PAVCMail@@V?$allocator@PAVCMail@@@std@@@std@@QAEAAV012@XZ
_TEXT	SEGMENT
??Eiterator@?$vector@PAVCMail@@V?$allocator@PAVCMail@@@std@@@std@@QAEAAV012@XZ PROC NEAR ; std::vector<CMail *,std::allocator<CMail *> >::iterator::operator++, COMDAT
; _this$ = ecx

; 229  : 			{	// preincrement

  00000	8b c1		 mov	 eax, ecx

; 230  : 			++this->_Myptr;

  00002	83 00 04	 add	 DWORD PTR [eax], 4

; 231  : 			return (*this);
; 232  : 			}

  00005	c3		 ret	 0
??Eiterator@?$vector@PAVCMail@@V?$allocator@PAVCMail@@@std@@@std@@QAEAAV012@XZ ENDP ; std::vector<CMail *,std::allocator<CMail *> >::iterator::operator++
_TEXT	ENDS
PUBLIC	?GetTimeSpan@CTimeSpan@ATL@@QBE_JXZ		; ATL::CTimeSpan::GetTimeSpan
; Function compile flags: /Ogty
; File c:\program files\microsoft visual studio .net 2003\vc7\atlmfc\include\atltime.inl
;	COMDAT ?GetTimeSpan@CTimeSpan@ATL@@QBE_JXZ
_TEXT	SEGMENT
?GetTimeSpan@CTimeSpan@ATL@@QBE_JXZ PROC NEAR		; ATL::CTimeSpan::GetTimeSpan, COMDAT
; _this$ = ecx

; 78   : 	return( m_timeSpan );

  00000	8b 01		 mov	 eax, DWORD PTR [ecx]
  00002	8b 51 04	 mov	 edx, DWORD PTR [ecx+4]

; 79   : }

  00005	c3		 ret	 0
?GetTimeSpan@CTimeSpan@ATL@@QBE_JXZ ENDP		; ATL::CTimeSpan::GetTimeSpan
_TEXT	ENDS
PUBLIC	??0?$pair@$$CBKPAVCMail@@@std@@QAE@ABKABQAVCMail@@@Z ; std::pair<unsigned long const ,CMail *>::pair<unsigned long const ,CMail *>
; Function compile flags: /Ogty
; File c:\program files\microsoft visual studio .net 2003\vc7\include\utility
;	COMDAT ??0?$pair@$$CBKPAVCMail@@@std@@QAE@ABKABQAVCMail@@@Z
_TEXT	SEGMENT
__Val1$ = 8						; size = 4
__Val2$ = 12						; size = 4
??0?$pair@$$CBKPAVCMail@@@std@@QAE@ABKABQAVCMail@@@Z PROC NEAR ; std::pair<unsigned long const ,CMail *>::pair<unsigned long const ,CMail *>, COMDAT
; _this$ = ecx

; 34   : 		{	// construct from specified values

  00000	8b c1		 mov	 eax, ecx
  00002	8b 4c 24 04	 mov	 ecx, DWORD PTR __Val1$[esp-4]
  00006	8b 11		 mov	 edx, DWORD PTR [ecx]
  00008	8b 4c 24 08	 mov	 ecx, DWORD PTR __Val2$[esp-4]
  0000c	89 10		 mov	 DWORD PTR [eax], edx
  0000e	8b 11		 mov	 edx, DWORD PTR [ecx]
  00010	89 50 04	 mov	 DWORD PTR [eax+4], edx

; 35   : 		}

  00013	c2 08 00	 ret	 8
??0?$pair@$$CBKPAVCMail@@@std@@QAE@ABKABQAVCMail@@@Z ENDP ; std::pair<unsigned long const ,CMail *>::pair<unsigned long const ,CMail *>
_TEXT	ENDS
PUBLIC	??0?$pair@$$CBKPAVCMailBox@@@std@@QAE@ABKABQAVCMailBox@@@Z ; std::pair<unsigned long const ,CMailBox *>::pair<unsigned long const ,CMailBox *>
; Function compile flags: /Ogty
;	COMDAT ??0?$pair@$$CBKPAVCMailBox@@@std@@QAE@ABKABQAVCMailBox@@@Z
_TEXT	SEGMENT
__Val1$ = 8						; size = 4
__Val2$ = 12						; size = 4
??0?$pair@$$CBKPAVCMailBox@@@std@@QAE@ABKABQAVCMailBox@@@Z PROC NEAR ; std::pair<unsigned long const ,CMailBox *>::pair<unsigned long const ,CMailBox *>, COMDAT
; _this$ = ecx

; 34   : 		{	// construct from specified values

  00000	8b c1		 mov	 eax, ecx
  00002	8b 4c 24 04	 mov	 ecx, DWORD PTR __Val1$[esp-4]
  00006	8b 11		 mov	 edx, DWORD PTR [ecx]
  00008	8b 4c 24 08	 mov	 ecx, DWORD PTR __Val2$[esp-4]
  0000c	89 10		 mov	 DWORD PTR [eax], edx
  0000e	8b 11		 mov	 edx, DWORD PTR [ecx]
  00010	89 50 04	 mov	 DWORD PTR [eax+4], edx

; 35   : 		}

  00013	c2 08 00	 ret	 8
??0?$pair@$$CBKPAVCMailBox@@@std@@QAE@ABKABQAVCMailBox@@@Z ENDP ; std::pair<unsigned long const ,CMailBox *>::pair<unsigned long const ,CMailBox *>
_TEXT	ENDS
PUBLIC	??0CTime@ATL@@QAE@_J@Z				; ATL::CTime::CTime
; Function compile flags: /Ogty
; File c:\program files\microsoft visual studio .net 2003\vc7\atlmfc\include\atltime.inl
;	COMDAT ??0CTime@ATL@@QAE@_J@Z
_TEXT	SEGMENT
_time$ = 8						; size = 8
??0CTime@ATL@@QAE@_J@Z PROC NEAR			; ATL::CTime::CTime, COMDAT
; _this$ = ecx

; 167  : {

  00000	8b 54 24 08	 mov	 edx, DWORD PTR _time$[esp]
  00004	8b c1		 mov	 eax, ecx
  00006	8b 4c 24 04	 mov	 ecx, DWORD PTR _time$[esp-4]
  0000a	89 08		 mov	 DWORD PTR [eax], ecx
  0000c	89 50 04	 mov	 DWORD PTR [eax+4], edx

; 168  : }

  0000f	c2 08 00	 ret	 8
??0CTime@ATL@@QAE@_J@Z ENDP				; ATL::CTime::CTime
_TEXT	ENDS
PUBLIC	?capacity@?$vector@PAVCMail@@V?$allocator@PAVCMail@@@std@@@std@@QBEIXZ ; std::vector<CMail *,std::allocator<CMail *> >::capacity
; Function compile flags: /Ogty
; File c:\program files\microsoft visual studio .net 2003\vc7\include\vector
;	COMDAT ?capacity@?$vector@PAVCMail@@V?$allocator@PAVCMail@@@std@@@std@@QBEIXZ
_TEXT	SEGMENT
?capacity@?$vector@PAVCMail@@V?$allocator@PAVCMail@@@std@@@std@@QBEIXZ PROC NEAR ; std::vector<CMail *,std::allocator<CMail *> >::capacity, COMDAT
; _this$ = ecx

; 458  : 		return (_Myfirst == 0 ? 0 : _Myend - _Myfirst);

  00000	8b 51 04	 mov	 edx, DWORD PTR [ecx+4]
  00003	85 d2		 test	 edx, edx
  00005	75 03		 jne	 SHORT $L202519
  00007	33 c0		 xor	 eax, eax

; 459  : 		}

  00009	c3		 ret	 0
$L202519:

; 458  : 		return (_Myfirst == 0 ? 0 : _Myend - _Myfirst);

  0000a	8b 41 0c	 mov	 eax, DWORD PTR [ecx+12]
  0000d	2b c2		 sub	 eax, edx
  0000f	c1 f8 02	 sar	 eax, 2

; 459  : 		}

  00012	c3		 ret	 0
?capacity@?$vector@PAVCMail@@V?$allocator@PAVCMail@@@std@@@std@@QBEIXZ ENDP ; std::vector<CMail *,std::allocator<CMail *> >::capacity
_TEXT	ENDS
PUBLIC	??GCTime@ATL@@QBE?AV01@VCTimeSpan@1@@Z		; ATL::CTime::operator-
; Function compile flags: /Ogty
; File c:\program files\microsoft visual studio .net 2003\vc7\atlmfc\include\atltime.inl
;	COMDAT ??GCTime@ATL@@QBE?AV01@VCTimeSpan@1@@Z
_TEXT	SEGMENT
___$ReturnUdt$ = 8					; size = 4
_span$ = 12						; size = 8
??GCTime@ATL@@QBE?AV01@VCTimeSpan@1@@Z PROC NEAR	; ATL::CTime::operator-, COMDAT
; _this$ = ecx

; 281  : 	return( CTime( m_time-span.GetTimeSpan() ) );

  00000	8b 11		 mov	 edx, DWORD PTR [ecx]
  00002	8b 44 24 08	 mov	 eax, DWORD PTR _span$[esp-4]
  00006	8b 49 04	 mov	 ecx, DWORD PTR [ecx+4]
  00009	2b d0		 sub	 edx, eax
  0000b	1b 4c 24 0c	 sbb	 ecx, DWORD PTR _span$[esp]
  0000f	8b 44 24 04	 mov	 eax, DWORD PTR ___$ReturnUdt$[esp-4]
  00013	89 10		 mov	 DWORD PTR [eax], edx
  00015	89 48 04	 mov	 DWORD PTR [eax+4], ecx

; 282  : }

  00018	c2 0c 00	 ret	 12			; 0000000cH
??GCTime@ATL@@QBE?AV01@VCTimeSpan@1@@Z ENDP		; ATL::CTime::operator-
_TEXT	ENDS
PUBLIC	??0?$allocator@PAVCMail@@@std@@QAE@XZ		; std::allocator<CMail *>::allocator<CMail *>
; Function compile flags: /Ogty
; File c:\program files\microsoft visual studio .net 2003\vc7\include\xmemory
;	COMDAT ??0?$allocator@PAVCMail@@@std@@QAE@XZ
_TEXT	SEGMENT
??0?$allocator@PAVCMail@@@std@@QAE@XZ PROC NEAR		; std::allocator<CMail *>::allocator<CMail *>, COMDAT
; _this$ = ecx

; 111  : 	allocator()

  00000	8b c1		 mov	 eax, ecx

; 112  : 		{	// construct default allocator (do nothing)
; 113  : 		}

  00002	c3		 ret	 0
??0?$allocator@PAVCMail@@@std@@QAE@XZ ENDP		; std::allocator<CMail *>::allocator<CMail *>
_TEXT	ENDS
PUBLIC	?_Isnil@?$_Tree@V?$_Tmap_traits@KPAVCMail@@U?$less@K@std@@V?$allocator@U?$pair@$$CBKPAVCMail@@@std@@@3@$0A@@std@@@std@@KAAADPAU_Node@?$_Tree_nod@V?$_Tmap_traits@KPAVCMail@@U?$less@K@std@@V?$allocator@U?$pair@$$CBKPAVCMail@@@std@@@3@$0A@@std@@@2@@Z ; std::_Tree<std::_Tmap_traits<unsigned long,CMail *,std::less<unsigned long>,std::allocator<std::pair<unsigned long const ,CMail *> >,0> >::_Isnil
; Function compile flags: /Ogty
; File c:\program files\microsoft visual studio .net 2003\vc7\include\xtree
;	COMDAT ?_Isnil@?$_Tree@V?$_Tmap_traits@KPAVCMail@@U?$less@K@std@@V?$allocator@U?$pair@$$CBKPAVCMail@@@std@@@3@$0A@@std@@@std@@KAAADPAU_Node@?$_Tree_nod@V?$_Tmap_traits@KPAVCMail@@U?$less@K@std@@V?$allocator@U?$pair@$$CBKPAVCMail@@@std@@@3@$0A@@std@@@2@@Z
_TEXT	SEGMENT
__Pnode$ = 8						; size = 4
?_Isnil@?$_Tree@V?$_Tmap_traits@KPAVCMail@@U?$less@K@std@@V?$allocator@U?$pair@$$CBKPAVCMail@@@std@@@3@$0A@@std@@@std@@KAAADPAU_Node@?$_Tree_nod@V?$_Tmap_traits@KPAVCMail@@U?$less@K@std@@V?$allocator@U?$pair@$$CBKPAVCMail@@@std@@@3@$0A@@std@@@2@@Z PROC NEAR ; std::_Tree<std::_Tmap_traits<unsigned long,CMail *,std::less<unsigned long>,std::allocator<std::pair<unsigned long const ,CMail *> >,0> >::_Isnil, COMDAT

; 137  : 		return ((_Charref)(*_Pnode)._Isnil);

  00000	8b 44 24 04	 mov	 eax, DWORD PTR __Pnode$[esp-4]
  00004	83 c0 15	 add	 eax, 21			; 00000015H

; 138  : 		}

  00007	c3		 ret	 0
?_Isnil@?$_Tree@V?$_Tmap_traits@KPAVCMail@@U?$less@K@std@@V?$allocator@U?$pair@$$CBKPAVCMail@@@std@@@3@$0A@@std@@@std@@KAAADPAU_Node@?$_Tree_nod@V?$_Tmap_traits@KPAVCMail@@U?$less@K@std@@V?$allocator@U?$pair@$$CBKPAVCMail@@@std@@@3@$0A@@std@@@2@@Z ENDP ; std::_Tree<std::_Tmap_traits<unsigned long,CMail *,std::less<unsigned long>,std::allocator<std::pair<unsigned long const ,CMail *> >,0> >::_Isnil
_TEXT	ENDS
PUBLIC	?_Left@?$_Tree@V?$_Tmap_traits@KPAVCMail@@U?$less@K@std@@V?$allocator@U?$pair@$$CBKPAVCMail@@@std@@@3@$0A@@std@@@std@@KAAAPAU_Node@?$_Tree_nod@V?$_Tmap_traits@KPAVCMail@@U?$less@K@std@@V?$allocator@U?$pair@$$CBKPAVCMail@@@std@@@3@$0A@@std@@@2@PAU342@@Z ; std::_Tree<std::_Tmap_traits<unsigned long,CMail *,std::less<unsigned long>,std::allocator<std::pair<unsigned long const ,CMail *> >,0> >::_Left
; Function compile flags: /Ogty
;	COMDAT ?_Left@?$_Tree@V?$_Tmap_traits@KPAVCMail@@U?$less@K@std@@V?$allocator@U?$pair@$$CBKPAVCMail@@@std@@@3@$0A@@std@@@std@@KAAAPAU_Node@?$_Tree_nod@V?$_Tmap_traits@KPAVCMail@@U?$less@K@std@@V?$allocator@U?$pair@$$CBKPAVCMail@@@std@@@3@$0A@@std@@@2@PAU342@@Z
_TEXT	SEGMENT
__Pnode$ = 8						; size = 4
?_Left@?$_Tree@V?$_Tmap_traits@KPAVCMail@@U?$less@K@std@@V?$allocator@U?$pair@$$CBKPAVCMail@@@std@@@3@$0A@@std@@@std@@KAAAPAU_Node@?$_Tree_nod@V?$_Tmap_traits@KPAVCMail@@U?$less@K@std@@V?$allocator@U?$pair@$$CBKPAVCMail@@@std@@@3@$0A@@std@@@2@PAU342@@Z PROC NEAR ; std::_Tree<std::_Tmap_traits<unsigned long,CMail *,std::less<unsigned long>,std::allocator<std::pair<unsigned long const ,CMail *> >,0> >::_Left, COMDAT

; 147  : 		return ((_Nodepref)(*_Pnode)._Left);

  00000	8b 44 24 04	 mov	 eax, DWORD PTR __Pnode$[esp-4]

; 148  : 		}

  00004	c3		 ret	 0
?_Left@?$_Tree@V?$_Tmap_traits@KPAVCMail@@U?$less@K@std@@V?$allocator@U?$pair@$$CBKPAVCMail@@@std@@@3@$0A@@std@@@std@@KAAAPAU_Node@?$_Tree_nod@V?$_Tmap_traits@KPAVCMail@@U?$less@K@std@@V?$allocator@U?$pair@$$CBKPAVCMail@@@std@@@3@$0A@@std@@@2@PAU342@@Z ENDP ; std::_Tree<std::_Tmap_traits<unsigned long,CMail *,std::less<unsigned long>,std::allocator<std::pair<unsigned long const ,CMail *> >,0> >::_Left
_TEXT	ENDS
PUBLIC	?_Right@?$_Tree@V?$_Tmap_traits@KPAVCMail@@U?$less@K@std@@V?$allocator@U?$pair@$$CBKPAVCMail@@@std@@@3@$0A@@std@@@std@@KAAAPAU_Node@?$_Tree_nod@V?$_Tmap_traits@KPAVCMail@@U?$less@K@std@@V?$allocator@U?$pair@$$CBKPAVCMail@@@std@@@3@$0A@@std@@@2@PAU342@@Z ; std::_Tree<std::_Tmap_traits<unsigned long,CMail *,std::less<unsigned long>,std::allocator<std::pair<unsigned long const ,CMail *> >,0> >::_Right
; Function compile flags: /Ogty
;	COMDAT ?_Right@?$_Tree@V?$_Tmap_traits@KPAVCMail@@U?$less@K@std@@V?$allocator@U?$pair@$$CBKPAVCMail@@@std@@@3@$0A@@std@@@std@@KAAAPAU_Node@?$_Tree_nod@V?$_Tmap_traits@KPAVCMail@@U?$less@K@std@@V?$allocator@U?$pair@$$CBKPAVCMail@@@std@@@3@$0A@@std@@@2@PAU342@@Z
_TEXT	SEGMENT
__Pnode$ = 8						; size = 4
?_Right@?$_Tree@V?$_Tmap_traits@KPAVCMail@@U?$less@K@std@@V?$allocator@U?$pair@$$CBKPAVCMail@@@std@@@3@$0A@@std@@@std@@KAAAPAU_Node@?$_Tree_nod@V?$_Tmap_traits@KPAVCMail@@U?$less@K@std@@V?$allocator@U?$pair@$$CBKPAVCMail@@@std@@@3@$0A@@std@@@2@PAU342@@Z PROC NEAR ; std::_Tree<std::_Tmap_traits<unsigned long,CMail *,std::less<unsigned long>,std::allocator<std::pair<unsigned long const ,CMail *> >,0> >::_Right, COMDAT

; 157  : 		return ((_Nodepref)(*_Pnode)._Right);

  00000	8b 44 24 04	 mov	 eax, DWORD PTR __Pnode$[esp-4]
  00004	83 c0 08	 add	 eax, 8

; 158  : 		}

  00007	c3		 ret	 0
?_Right@?$_Tree@V?$_Tmap_traits@KPAVCMail@@U?$less@K@std@@V?$allocator@U?$pair@$$CBKPAVCMail@@@std@@@3@$0A@@std@@@std@@KAAAPAU_Node@?$_Tree_nod@V?$_Tmap_traits@KPAVCMail@@U?$less@K@std@@V?$allocator@U?$pair@$$CBKPAVCMail@@@std@@@3@$0A@@std@@@2@PAU342@@Z ENDP ; std::_Tree<std::_Tmap_traits<unsigned long,CMail *,std::less<unsigned long>,std::allocator<std::pair<unsigned long const ,CMail *> >,0> >::_Right
_TEXT	ENDS
PUBLIC	?GetLocalTm@CTime@ATL@@QBEPAUtm@@PAU3@@Z	; ATL::CTime::GetLocalTm
EXTRN	__localtime64:NEAR
; Function compile flags: /Ogty
; File c:\program files\microsoft visual studio .net 2003\vc7\atlmfc\include\atltime.inl
;	COMDAT ?GetLocalTm@CTime@ATL@@QBEPAUtm@@PAU3@@Z
_TEXT	SEGMENT
_ptm$ = 8						; size = 4
?GetLocalTm@CTime@ATL@@QBEPAUtm@@PAU3@@Z PROC NEAR	; ATL::CTime::GetLocalTm, COMDAT
; _this$ = ecx

; 338  : {

  00000	53		 push	 ebx

; 339  : 	if (ptm != NULL)

  00001	8b 5c 24 08	 mov	 ebx, DWORD PTR _ptm$[esp]

; 340  : 	{
; 341  : 		struct tm* ptmTemp = _localtime64(&m_time);

  00005	51		 push	 ecx
  00006	e8 00 00 00 00	 call	 __localtime64
  0000b	83 c4 04	 add	 esp, 4
  0000e	85 db		 test	 ebx, ebx
  00010	74 19		 je	 SHORT $L42719

; 342  : 		if (ptmTemp == NULL)

  00012	85 c0		 test	 eax, eax
  00014	75 04		 jne	 SHORT $L42718
  00016	5b		 pop	 ebx

; 347  : 	}
; 348  : 	else
; 349  : 		return _localtime64(&m_time);
; 350  : }

  00017	c2 04 00	 ret	 4
$L42718:
  0001a	56		 push	 esi
  0001b	57		 push	 edi

; 343  : 			return NULL;    // indicates the m_time was not initialized!
; 344  : 
; 345  : 		*ptm = *ptmTemp;

  0001c	8b f0		 mov	 esi, eax
  0001e	b9 09 00 00 00	 mov	 ecx, 9
  00023	8b fb		 mov	 edi, ebx
  00025	f3 a5		 rep movsd
  00027	5f		 pop	 edi

; 346  : 		return ptm;

  00028	8b c3		 mov	 eax, ebx
  0002a	5e		 pop	 esi
$L42719:
  0002b	5b		 pop	 ebx

; 347  : 	}
; 348  : 	else
; 349  : 		return _localtime64(&m_time);
; 350  : }

  0002c	c2 04 00	 ret	 4
?GetLocalTm@CTime@ATL@@QBEPAUtm@@PAU3@@Z ENDP		; ATL::CTime::GetLocalTm
_TEXT	ENDS
PUBLIC	?GetTime@CTime@ATL@@QBE_JXZ			; ATL::CTime::GetTime
; Function compile flags: /Ogty
;	COMDAT ?GetTime@CTime@ATL@@QBE_JXZ
_TEXT	SEGMENT
?GetTime@CTime@ATL@@QBE_JXZ PROC NEAR			; ATL::CTime::GetTime, COMDAT
; _this$ = ecx

; 372  : 	return( m_time );

  00000	8b 01		 mov	 eax, DWORD PTR [ecx]
  00002	8b 51 04	 mov	 edx, DWORD PTR [ecx+4]

; 373  : }

  00005	c3		 ret	 0
?GetTime@CTime@ATL@@QBE_JXZ ENDP			; ATL::CTime::GetTime
_TEXT	ENDS
PUBLIC	?GetYear@CTime@ATL@@QBEHXZ			; ATL::CTime::GetYear
; Function compile flags: /Ogty
;	COMDAT ?GetYear@CTime@ATL@@QBEHXZ
_TEXT	SEGMENT
?GetYear@CTime@ATL@@QBEHXZ PROC NEAR			; ATL::CTime::GetYear, COMDAT
; _this$ = ecx

; 377  : 	struct tm * ptm;
; 378  : 	ptm = GetLocalTm();

  00000	51		 push	 ecx
  00001	e8 00 00 00 00	 call	 __localtime64
  00006	83 c4 04	 add	 esp, 4

; 379  : 	return ptm ? (ptm->tm_year) + 1900 : 0 ; 

  00009	85 c0		 test	 eax, eax
  0000b	74 09		 je	 SHORT $L202544
  0000d	8b 40 14	 mov	 eax, DWORD PTR [eax+20]
  00010	05 6c 07 00 00	 add	 eax, 1900		; 0000076cH

; 380  : }

  00015	c3		 ret	 0
$L202544:

; 379  : 	return ptm ? (ptm->tm_year) + 1900 : 0 ; 

  00016	33 c0		 xor	 eax, eax

; 380  : }

  00018	c3		 ret	 0
?GetYear@CTime@ATL@@QBEHXZ ENDP				; ATL::CTime::GetYear
_TEXT	ENDS
PUBLIC	?GetMonth@CTime@ATL@@QBEHXZ			; ATL::CTime::GetMonth
; Function compile flags: /Ogty
;	COMDAT ?GetMonth@CTime@ATL@@QBEHXZ
_TEXT	SEGMENT
?GetMonth@CTime@ATL@@QBEHXZ PROC NEAR			; ATL::CTime::GetMonth, COMDAT
; _this$ = ecx

; 384  : 	struct tm * ptm;
; 385  : 	ptm = GetLocalTm();

  00000	51		 push	 ecx
  00001	e8 00 00 00 00	 call	 __localtime64
  00006	83 c4 04	 add	 esp, 4

; 386  : 	return ptm ? ptm->tm_mon + 1 : 0;

  00009	85 c0		 test	 eax, eax
  0000b	74 05		 je	 SHORT $L202556
  0000d	8b 40 10	 mov	 eax, DWORD PTR [eax+16]
  00010	40		 inc	 eax

; 387  : }

  00011	c3		 ret	 0
$L202556:

; 386  : 	return ptm ? ptm->tm_mon + 1 : 0;

  00012	33 c0		 xor	 eax, eax

; 387  : }

  00014	c3		 ret	 0
?GetMonth@CTime@ATL@@QBEHXZ ENDP			; ATL::CTime::GetMonth
_TEXT	ENDS
PUBLIC	?GetDay@CTime@ATL@@QBEHXZ			; ATL::CTime::GetDay
; Function compile flags: /Ogty
;	COMDAT ?GetDay@CTime@ATL@@QBEHXZ
_TEXT	SEGMENT
?GetDay@CTime@ATL@@QBEHXZ PROC NEAR			; ATL::CTime::GetDay, COMDAT
; _this$ = ecx

; 391  : 	struct tm * ptm;
; 392  : 	ptm = GetLocalTm();

  00000	51		 push	 ecx
  00001	e8 00 00 00 00	 call	 __localtime64
  00006	83 c4 04	 add	 esp, 4

; 393  : 	return ptm ? ptm->tm_mday : 0 ; 

  00009	85 c0		 test	 eax, eax
  0000b	74 04		 je	 SHORT $L202568
  0000d	8b 40 0c	 mov	 eax, DWORD PTR [eax+12]

; 394  : }

  00010	c3		 ret	 0
$L202568:

; 393  : 	return ptm ? ptm->tm_mday : 0 ; 

  00011	33 c0		 xor	 eax, eax

; 394  : }

  00013	c3		 ret	 0
?GetDay@CTime@ATL@@QBEHXZ ENDP				; ATL::CTime::GetDay
_TEXT	ENDS
PUBLIC	?GetHour@CTime@ATL@@QBEHXZ			; ATL::CTime::GetHour
; Function compile flags: /Ogty
;	COMDAT ?GetHour@CTime@ATL@@QBEHXZ
_TEXT	SEGMENT
?GetHour@CTime@ATL@@QBEHXZ PROC NEAR			; ATL::CTime::GetHour, COMDAT
; _this$ = ecx

; 398  : 	struct tm * ptm;
; 399  : 	ptm = GetLocalTm();

  00000	51		 push	 ecx
  00001	e8 00 00 00 00	 call	 __localtime64
  00006	83 c4 04	 add	 esp, 4

; 400  : 	return ptm ? ptm->tm_hour : -1 ; 

  00009	85 c0		 test	 eax, eax
  0000b	74 04		 je	 SHORT $L202580
  0000d	8b 40 08	 mov	 eax, DWORD PTR [eax+8]

; 401  : }

  00010	c3		 ret	 0
$L202580:

; 400  : 	return ptm ? ptm->tm_hour : -1 ; 

  00011	83 c8 ff	 or	 eax, -1

; 401  : }

  00014	c3		 ret	 0
?GetHour@CTime@ATL@@QBEHXZ ENDP				; ATL::CTime::GetHour
_TEXT	ENDS
PUBLIC	?GetMinute@CTime@ATL@@QBEHXZ			; ATL::CTime::GetMinute
; Function compile flags: /Ogty
;	COMDAT ?GetMinute@CTime@ATL@@QBEHXZ
_TEXT	SEGMENT
?GetMinute@CTime@ATL@@QBEHXZ PROC NEAR			; ATL::CTime::GetMinute, COMDAT
; _this$ = ecx

; 405  : 	struct tm * ptm;
; 406  : 	ptm = GetLocalTm();

  00000	51		 push	 ecx
  00001	e8 00 00 00 00	 call	 __localtime64
  00006	83 c4 04	 add	 esp, 4

; 407  : 	return ptm ? ptm->tm_min : -1 ; 

  00009	85 c0		 test	 eax, eax
  0000b	74 04		 je	 SHORT $L202592
  0000d	8b 40 04	 mov	 eax, DWORD PTR [eax+4]

; 408  : }

  00010	c3		 ret	 0
$L202592:

; 407  : 	return ptm ? ptm->tm_min : -1 ; 

  00011	83 c8 ff	 or	 eax, -1

; 408  : }

  00014	c3		 ret	 0
?GetMinute@CTime@ATL@@QBEHXZ ENDP			; ATL::CTime::GetMinute
_TEXT	ENDS
PUBLIC	?GetSecond@CTime@ATL@@QBEHXZ			; ATL::CTime::GetSecond
; Function compile flags: /Ogty
;	COMDAT ?GetSecond@CTime@ATL@@QBEHXZ
_TEXT	SEGMENT
?GetSecond@CTime@ATL@@QBEHXZ PROC NEAR			; ATL::CTime::GetSecond, COMDAT
; _this$ = ecx

; 412  : 	struct tm * ptm;
; 413  : 	ptm = GetLocalTm();

  00000	51		 push	 ecx
  00001	e8 00 00 00 00	 call	 __localtime64
  00006	83 c4 04	 add	 esp, 4

; 414  : 	return ptm ? ptm->tm_sec : -1 ;

  00009	85 c0		 test	 eax, eax
  0000b	74 03		 je	 SHORT $L202604
  0000d	8b 00		 mov	 eax, DWORD PTR [eax]

; 415  : }

  0000f	c3		 ret	 0
$L202604:

; 414  : 	return ptm ? ptm->tm_sec : -1 ;

  00010	83 c8 ff	 or	 eax, -1

; 415  : }

  00013	c3		 ret	 0
?GetSecond@CTime@ATL@@QBEHXZ ENDP			; ATL::CTime::GetSecond
_TEXT	ENDS
PUBLIC	?_Lmost@?$_Tree@V?$_Tmap_traits@KPAVCMail@@U?$less@K@std@@V?$allocator@U?$pair@$$CBKPAVCMail@@@std@@@3@$0A@@std@@@std@@IAEAAPAU_Node@?$_Tree_nod@V?$_Tmap_traits@KPAVCMail@@U?$less@K@std@@V?$allocator@U?$pair@$$CBKPAVCMail@@@std@@@3@$0A@@std@@@2@XZ ; std::_Tree<std::_Tmap_traits<unsigned long,CMail *,std::less<unsigned long>,std::allocator<std::pair<unsigned long const ,CMail *> >,0> >::_Lmost
; Function compile flags: /Ogty
; File c:\program files\microsoft visual studio .net 2003\vc7\include\xtree
;	COMDAT ?_Lmost@?$_Tree@V?$_Tmap_traits@KPAVCMail@@U?$less@K@std@@V?$allocator@U?$pair@$$CBKPAVCMail@@@std@@@3@$0A@@std@@@std@@IAEAAPAU_Node@?$_Tree_nod@V?$_Tmap_traits@KPAVCMail@@U?$less@K@std@@V?$allocator@U?$pair@$$CBKPAVCMail@@@std@@@3@$0A@@std@@@2@XZ
_TEXT	SEGMENT
?_Lmost@?$_Tree@V?$_Tmap_traits@KPAVCMail@@U?$less@K@std@@V?$allocator@U?$pair@$$CBKPAVCMail@@@std@@@3@$0A@@std@@@std@@IAEAAPAU_Node@?$_Tree_nod@V?$_Tmap_traits@KPAVCMail@@U?$less@K@std@@V?$allocator@U?$pair@$$CBKPAVCMail@@@std@@@3@$0A@@std@@@2@XZ PROC NEAR ; std::_Tree<std::_Tmap_traits<unsigned long,CMail *,std::less<unsigned long>,std::allocator<std::pair<unsigned long const ,CMail *> >,0> >::_Lmost, COMDAT
; _this$ = ecx

; 1005 : 		return (_Left(_Myhead));

  00000	8b 41 04	 mov	 eax, DWORD PTR [ecx+4]

; 1006 : 		}

  00003	c3		 ret	 0
?_Lmost@?$_Tree@V?$_Tmap_traits@KPAVCMail@@U?$less@K@std@@V?$allocator@U?$pair@$$CBKPAVCMail@@@std@@@3@$0A@@std@@@std@@IAEAAPAU_Node@?$_Tree_nod@V?$_Tmap_traits@KPAVCMail@@U?$less@K@std@@V?$allocator@U?$pair@$$CBKPAVCMail@@@std@@@3@$0A@@std@@@2@XZ ENDP ; std::_Tree<std::_Tmap_traits<unsigned long,CMail *,std::less<unsigned long>,std::allocator<std::pair<unsigned long const ,CMail *> >,0> >::_Lmost
_TEXT	ENDS
PUBLIC	?_Rmost@?$_Tree@V?$_Tmap_traits@KPAVCMail@@U?$less@K@std@@V?$allocator@U?$pair@$$CBKPAVCMail@@@std@@@3@$0A@@std@@@std@@IAEAAPAU_Node@?$_Tree_nod@V?$_Tmap_traits@KPAVCMail@@U?$less@K@std@@V?$allocator@U?$pair@$$CBKPAVCMail@@@std@@@3@$0A@@std@@@2@XZ ; std::_Tree<std::_Tmap_traits<unsigned long,CMail *,std::less<unsigned long>,std::allocator<std::pair<unsigned long const ,CMail *> >,0> >::_Rmost
; Function compile flags: /Ogty
;	COMDAT ?_Rmost@?$_Tree@V?$_Tmap_traits@KPAVCMail@@U?$less@K@std@@V?$allocator@U?$pair@$$CBKPAVCMail@@@std@@@3@$0A@@std@@@std@@IAEAAPAU_Node@?$_Tree_nod@V?$_Tmap_traits@KPAVCMail@@U?$less@K@std@@V?$allocator@U?$pair@$$CBKPAVCMail@@@std@@@3@$0A@@std@@@2@XZ
_TEXT	SEGMENT
?_Rmost@?$_Tree@V?$_Tmap_traits@KPAVCMail@@U?$less@K@std@@V?$allocator@U?$pair@$$CBKPAVCMail@@@std@@@3@$0A@@std@@@std@@IAEAAPAU_Node@?$_Tree_nod@V?$_Tmap_traits@KPAVCMail@@U?$less@K@std@@V?$allocator@U?$pair@$$CBKPAVCMail@@@std@@@3@$0A@@std@@@2@XZ PROC NEAR ; std::_Tree<std::_Tmap_traits<unsigned long,CMail *,std::less<unsigned long>,std::allocator<std::pair<unsigned long const ,CMail *> >,0> >::_Rmost, COMDAT
; _this$ = ecx

; 1049 : 		return (_Right(_Myhead));

  00000	8b 41 04	 mov	 eax, DWORD PTR [ecx+4]
  00003	83 c0 08	 add	 eax, 8

; 1050 : 		}

  00006	c3		 ret	 0
?_Rmost@?$_Tree@V?$_Tmap_traits@KPAVCMail@@U?$less@K@std@@V?$allocator@U?$pair@$$CBKPAVCMail@@@std@@@3@$0A@@std@@@std@@IAEAAPAU_Node@?$_Tree_nod@V?$_Tmap_traits@KPAVCMail@@U?$less@K@std@@V?$allocator@U?$pair@$$CBKPAVCMail@@@std@@@3@$0A@@std@@@2@XZ ENDP ; std::_Tree<std::_Tmap_traits<unsigned long,CMail *,std::less<unsigned long>,std::allocator<std::pair<unsigned long const ,CMail *> >,0> >::_Rmost
_TEXT	ENDS
PUBLIC	?_Kfn@?$_Tmap_traits@KPAVCMail@@U?$less@K@std@@V?$allocator@U?$pair@$$CBKPAVCMail@@@std@@@3@$0A@@std@@SAABKABU?$pair@$$CBKPAVCMail@@@2@@Z ; std::_Tmap_traits<unsigned long,CMail *,std::less<unsigned long>,std::allocator<std::pair<unsigned long const ,CMail *> >,0>::_Kfn
; Function compile flags: /Ogty
; File c:\program files\microsoft visual studio .net 2003\vc7\include\map
;	COMDAT ?_Kfn@?$_Tmap_traits@KPAVCMail@@U?$less@K@std@@V?$allocator@U?$pair@$$CBKPAVCMail@@@std@@@3@$0A@@std@@SAABKABU?$pair@$$CBKPAVCMail@@@2@@Z
_TEXT	SEGMENT
__Val$ = 8						; size = 4
?_Kfn@?$_Tmap_traits@KPAVCMail@@U?$less@K@std@@V?$allocator@U?$pair@$$CBKPAVCMail@@@std@@@3@$0A@@std@@SAABKABU?$pair@$$CBKPAVCMail@@@2@@Z PROC NEAR ; std::_Tmap_traits<unsigned long,CMail *,std::less<unsigned long>,std::allocator<std::pair<unsigned long const ,CMail *> >,0>::_Kfn, COMDAT

; 64   : 		return (_Val.first);

  00000	8b 44 24 04	 mov	 eax, DWORD PTR __Val$[esp-4]

; 65   : 		}

  00004	c3		 ret	 0
?_Kfn@?$_Tmap_traits@KPAVCMail@@U?$less@K@std@@V?$allocator@U?$pair@$$CBKPAVCMail@@@std@@@3@$0A@@std@@SAABKABU?$pair@$$CBKPAVCMail@@@2@@Z ENDP ; std::_Tmap_traits<unsigned long,CMail *,std::less<unsigned long>,std::allocator<std::pair<unsigned long const ,CMail *> >,0>::_Kfn
_TEXT	ENDS
PUBLIC	??0?$allocator@U?$pair@$$CBKPAVCMail@@@std@@@std@@QAE@XZ ; std::allocator<std::pair<unsigned long const ,CMail *> >::allocator<std::pair<unsigned long const ,CMail *> >
; Function compile flags: /Ogty
; File c:\program files\microsoft visual studio .net 2003\vc7\include\xmemory
;	COMDAT ??0?$allocator@U?$pair@$$CBKPAVCMail@@@std@@@std@@QAE@XZ
_TEXT	SEGMENT
??0?$allocator@U?$pair@$$CBKPAVCMail@@@std@@@std@@QAE@XZ PROC NEAR ; std::allocator<std::pair<unsigned long const ,CMail *> >::allocator<std::pair<unsigned long const ,CMail *> >, COMDAT
; _this$ = ecx

; 111  : 	allocator()

  00000	8b c1		 mov	 eax, ecx

; 112  : 		{	// construct default allocator (do nothing)
; 113  : 		}

  00002	c3		 ret	 0
??0?$allocator@U?$pair@$$CBKPAVCMail@@@std@@@std@@QAE@XZ ENDP ; std::allocator<std::pair<unsigned long const ,CMail *> >::allocator<std::pair<unsigned long const ,CMail *> >
_TEXT	ENDS
PUBLIC	?_Isnil@?$_Tree@V?$_Tmap_traits@KPAVCMailBox@@U?$less@K@std@@V?$allocator@U?$pair@$$CBKPAVCMailBox@@@std@@@3@$0A@@std@@@std@@KAAADPAU_Node@?$_Tree_nod@V?$_Tmap_traits@KPAVCMailBox@@U?$less@K@std@@V?$allocator@U?$pair@$$CBKPAVCMailBox@@@std@@@3@$0A@@std@@@2@@Z ; std::_Tree<std::_Tmap_traits<unsigned long,CMailBox *,std::less<unsigned long>,std::allocator<std::pair<unsigned long const ,CMailBox *> >,0> >::_Isnil
; Function compile flags: /Ogty
; File c:\program files\microsoft visual studio .net 2003\vc7\include\xtree
;	COMDAT ?_Isnil@?$_Tree@V?$_Tmap_traits@KPAVCMailBox@@U?$less@K@std@@V?$allocator@U?$pair@$$CBKPAVCMailBox@@@std@@@3@$0A@@std@@@std@@KAAADPAU_Node@?$_Tree_nod@V?$_Tmap_traits@KPAVCMailBox@@U?$less@K@std@@V?$allocator@U?$pair@$$CBKPAVCMailBox@@@std@@@3@$0A@@std@@@2@@Z
_TEXT	SEGMENT
__Pnode$ = 8						; size = 4
?_Isnil@?$_Tree@V?$_Tmap_traits@KPAVCMailBox@@U?$less@K@std@@V?$allocator@U?$pair@$$CBKPAVCMailBox@@@std@@@3@$0A@@std@@@std@@KAAADPAU_Node@?$_Tree_nod@V?$_Tmap_traits@KPAVCMailBox@@U?$less@K@std@@V?$allocator@U?$pair@$$CBKPAVCMailBox@@@std@@@3@$0A@@std@@@2@@Z PROC NEAR ; std::_Tree<std::_Tmap_traits<unsigned long,CMailBox *,std::less<unsigned long>,std::allocator<std::pair<unsigned long const ,CMailBox *> >,0> >::_Isnil, COMDAT

; 137  : 		return ((_Charref)(*_Pnode)._Isnil);

  00000	8b 44 24 04	 mov	 eax, DWORD PTR __Pnode$[esp-4]
  00004	83 c0 15	 add	 eax, 21			; 00000015H

; 138  : 		}

  00007	c3		 ret	 0
?_Isnil@?$_Tree@V?$_Tmap_traits@KPAVCMailBox@@U?$less@K@std@@V?$allocator@U?$pair@$$CBKPAVCMailBox@@@std@@@3@$0A@@std@@@std@@KAAADPAU_Node@?$_Tree_nod@V?$_Tmap_traits@KPAVCMailBox@@U?$less@K@std@@V?$allocator@U?$pair@$$CBKPAVCMailBox@@@std@@@3@$0A@@std@@@2@@Z ENDP ; std::_Tree<std::_Tmap_traits<unsigned long,CMailBox *,std::less<unsigned long>,std::allocator<std::pair<unsigned long const ,CMailBox *> >,0> >::_Isnil
_TEXT	ENDS
PUBLIC	?_Left@?$_Tree@V?$_Tmap_traits@KPAVCMailBox@@U?$less@K@std@@V?$allocator@U?$pair@$$CBKPAVCMailBox@@@std@@@3@$0A@@std@@@std@@KAAAPAU_Node@?$_Tree_nod@V?$_Tmap_traits@KPAVCMailBox@@U?$less@K@std@@V?$allocator@U?$pair@$$CBKPAVCMailBox@@@std@@@3@$0A@@std@@@2@PAU342@@Z ; std::_Tree<std::_Tmap_traits<unsigned long,CMailBox *,std::less<unsigned long>,std::allocator<std::pair<unsigned long const ,CMailBox *> >,0> >::_Left
; Function compile flags: /Ogty
;	COMDAT ?_Left@?$_Tree@V?$_Tmap_traits@KPAVCMailBox@@U?$less@K@std@@V?$allocator@U?$pair@$$CBKPAVCMailBox@@@std@@@3@$0A@@std@@@std@@KAAAPAU_Node@?$_Tree_nod@V?$_Tmap_traits@KPAVCMailBox@@U?$less@K@std@@V?$allocator@U?$pair@$$CBKPAVCMailBox@@@std@@@3@$0A@@std@@@2@PAU342@@Z
_TEXT	SEGMENT
__Pnode$ = 8						; size = 4
?_Left@?$_Tree@V?$_Tmap_traits@KPAVCMailBox@@U?$less@K@std@@V?$allocator@U?$pair@$$CBKPAVCMailBox@@@std@@@3@$0A@@std@@@std@@KAAAPAU_Node@?$_Tree_nod@V?$_Tmap_traits@KPAVCMailBox@@U?$less@K@std@@V?$allocator@U?$pair@$$CBKPAVCMailBox@@@std@@@3@$0A@@std@@@2@PAU342@@Z PROC NEAR ; std::_Tree<std::_Tmap_traits<unsigned long,CMailBox *,std::less<unsigned long>,std::allocator<std::pair<unsigned long const ,CMailBox *> >,0> >::_Left, COMDAT

; 147  : 		return ((_Nodepref)(*_Pnode)._Left);

  00000	8b 44 24 04	 mov	 eax, DWORD PTR __Pnode$[esp-4]

; 148  : 		}

  00004	c3		 ret	 0
?_Left@?$_Tree@V?$_Tmap_traits@KPAVCMailBox@@U?$less@K@std@@V?$allocator@U?$pair@$$CBKPAVCMailBox@@@std@@@3@$0A@@std@@@std@@KAAAPAU_Node@?$_Tree_nod@V?$_Tmap_traits@KPAVCMailBox@@U?$less@K@std@@V?$allocator@U?$pair@$$CBKPAVCMailBox@@@std@@@3@$0A@@std@@@2@PAU342@@Z ENDP ; std::_Tree<std::_Tmap_traits<unsigned long,CMailBox *,std::less<unsigned long>,std::allocator<std::pair<unsigned long const ,CMailBox *> >,0> >::_Left
_TEXT	ENDS
PUBLIC	?_Right@?$_Tree@V?$_Tmap_traits@KPAVCMailBox@@U?$less@K@std@@V?$allocator@U?$pair@$$CBKPAVCMailBox@@@std@@@3@$0A@@std@@@std@@KAAAPAU_Node@?$_Tree_nod@V?$_Tmap_traits@KPAVCMailBox@@U?$less@K@std@@V?$allocator@U?$pair@$$CBKPAVCMailBox@@@std@@@3@$0A@@std@@@2@PAU342@@Z ; std::_Tree<std::_Tmap_traits<unsigned long,CMailBox *,std::less<unsigned long>,std::allocator<std::pair<unsigned long const ,CMailBox *> >,0> >::_Right
; Function compile flags: /Ogty
;	COMDAT ?_Right@?$_Tree@V?$_Tmap_traits@KPAVCMailBox@@U?$less@K@std@@V?$allocator@U?$pair@$$CBKPAVCMailBox@@@std@@@3@$0A@@std@@@std@@KAAAPAU_Node@?$_Tree_nod@V?$_Tmap_traits@KPAVCMailBox@@U?$less@K@std@@V?$allocator@U?$pair@$$CBKPAVCMailBox@@@std@@@3@$0A@@std@@@2@PAU342@@Z
_TEXT	SEGMENT
__Pnode$ = 8						; size = 4
?_Right@?$_Tree@V?$_Tmap_traits@KPAVCMailBox@@U?$less@K@std@@V?$allocator@U?$pair@$$CBKPAVCMailBox@@@std@@@3@$0A@@std@@@std@@KAAAPAU_Node@?$_Tree_nod@V?$_Tmap_traits@KPAVCMailBox@@U?$less@K@std@@V?$allocator@U?$pair@$$CBKPAVCMailBox@@@std@@@3@$0A@@std@@@2@PAU342@@Z PROC NEAR ; std::_Tree<std::_Tmap_traits<unsigned long,CMailBox *,std::less<unsigned long>,std::allocator<std::pair<unsigned long const ,CMailBox *> >,0> >::_Right, COMDAT

; 157  : 		return ((_Nodepref)(*_Pnode)._Right);

  00000	8b 44 24 04	 mov	 eax, DWORD PTR __Pnode$[esp-4]
  00004	83 c0 08	 add	 eax, 8

; 158  : 		}

  00007	c3		 ret	 0
?_Right@?$_Tree@V?$_Tmap_traits@KPAVCMailBox@@U?$less@K@std@@V?$allocator@U?$pair@$$CBKPAVCMailBox@@@std@@@3@$0A@@std@@@std@@KAAAPAU_Node@?$_Tree_nod@V?$_Tmap_traits@KPAVCMailBox@@U?$less@K@std@@V?$allocator@U?$pair@$$CBKPAVCMailBox@@@std@@@3@$0A@@std@@@2@PAU342@@Z ENDP ; std::_Tree<std::_Tmap_traits<unsigned long,CMailBox *,std::less<unsigned long>,std::allocator<std::pair<unsigned long const ,CMailBox *> >,0> >::_Right
_TEXT	ENDS
PUBLIC	?_Lmost@?$_Tree@V?$_Tmap_traits@KPAVCMailBox@@U?$less@K@std@@V?$allocator@U?$pair@$$CBKPAVCMailBox@@@std@@@3@$0A@@std@@@std@@IAEAAPAU_Node@?$_Tree_nod@V?$_Tmap_traits@KPAVCMailBox@@U?$less@K@std@@V?$allocator@U?$pair@$$CBKPAVCMailBox@@@std@@@3@$0A@@std@@@2@XZ ; std::_Tree<std::_Tmap_traits<unsigned long,CMailBox *,std::less<unsigned long>,std::allocator<std::pair<unsigned long const ,CMailBox *> >,0> >::_Lmost
; Function compile flags: /Ogty
;	COMDAT ?_Lmost@?$_Tree@V?$_Tmap_traits@KPAVCMailBox@@U?$less@K@std@@V?$allocator@U?$pair@$$CBKPAVCMailBox@@@std@@@3@$0A@@std@@@std@@IAEAAPAU_Node@?$_Tree_nod@V?$_Tmap_traits@KPAVCMailBox@@U?$less@K@std@@V?$allocator@U?$pair@$$CBKPAVCMailBox@@@std@@@3@$0A@@std@@@2@XZ
_TEXT	SEGMENT
?_Lmost@?$_Tree@V?$_Tmap_traits@KPAVCMailBox@@U?$less@K@std@@V?$allocator@U?$pair@$$CBKPAVCMailBox@@@std@@@3@$0A@@std@@@std@@IAEAAPAU_Node@?$_Tree_nod@V?$_Tmap_traits@KPAVCMailBox@@U?$less@K@std@@V?$allocator@U?$pair@$$CBKPAVCMailBox@@@std@@@3@$0A@@std@@@2@XZ PROC NEAR ; std::_Tree<std::_Tmap_traits<unsigned long,CMailBox *,std::less<unsigned long>,std::allocator<std::pair<unsigned long const ,CMailBox *> >,0> >::_Lmost, COMDAT
; _this$ = ecx

; 1005 : 		return (_Left(_Myhead));

  00000	8b 41 04	 mov	 eax, DWORD PTR [ecx+4]

; 1006 : 		}

  00003	c3		 ret	 0
?_Lmost@?$_Tree@V?$_Tmap_traits@KPAVCMailBox@@U?$less@K@std@@V?$allocator@U?$pair@$$CBKPAVCMailBox@@@std@@@3@$0A@@std@@@std@@IAEAAPAU_Node@?$_Tree_nod@V?$_Tmap_traits@KPAVCMailBox@@U?$less@K@std@@V?$allocator@U?$pair@$$CBKPAVCMailBox@@@std@@@3@$0A@@std@@@2@XZ ENDP ; std::_Tree<std::_Tmap_traits<unsigned long,CMailBox *,std::less<unsigned long>,std::allocator<std::pair<unsigned long const ,CMailBox *> >,0> >::_Lmost
_TEXT	ENDS
PUBLIC	?_Rmost@?$_Tree@V?$_Tmap_traits@KPAVCMailBox@@U?$less@K@std@@V?$allocator@U?$pair@$$CBKPAVCMailBox@@@std@@@3@$0A@@std@@@std@@IAEAAPAU_Node@?$_Tree_nod@V?$_Tmap_traits@KPAVCMailBox@@U?$less@K@std@@V?$allocator@U?$pair@$$CBKPAVCMailBox@@@std@@@3@$0A@@std@@@2@XZ ; std::_Tree<std::_Tmap_traits<unsigned long,CMailBox *,std::less<unsigned long>,std::allocator<std::pair<unsigned long const ,CMailBox *> >,0> >::_Rmost
; Function compile flags: /Ogty
;	COMDAT ?_Rmost@?$_Tree@V?$_Tmap_traits@KPAVCMailBox@@U?$less@K@std@@V?$allocator@U?$pair@$$CBKPAVCMailBox@@@std@@@3@$0A@@std@@@std@@IAEAAPAU_Node@?$_Tree_nod@V?$_Tmap_traits@KPAVCMailBox@@U?$less@K@std@@V?$allocator@U?$pair@$$CBKPAVCMailBox@@@std@@@3@$0A@@std@@@2@XZ
_TEXT	SEGMENT
?_Rmost@?$_Tree@V?$_Tmap_traits@KPAVCMailBox@@U?$less@K@std@@V?$allocator@U?$pair@$$CBKPAVCMailBox@@@std@@@3@$0A@@std@@@std@@IAEAAPAU_Node@?$_Tree_nod@V?$_Tmap_traits@KPAVCMailBox@@U?$less@K@std@@V?$allocator@U?$pair@$$CBKPAVCMailBox@@@std@@@3@$0A@@std@@@2@XZ PROC NEAR ; std::_Tree<std::_Tmap_traits<unsigned long,CMailBox *,std::less<unsigned long>,std::allocator<std::pair<unsigned long const ,CMailBox *> >,0> >::_Rmost, COMDAT
; _this$ = ecx

; 1049 : 		return (_Right(_Myhead));

  00000	8b 41 04	 mov	 eax, DWORD PTR [ecx+4]
  00003	83 c0 08	 add	 eax, 8

; 1050 : 		}

  00006	c3		 ret	 0
?_Rmost@?$_Tree@V?$_Tmap_traits@KPAVCMailBox@@U?$less@K@std@@V?$allocator@U?$pair@$$CBKPAVCMailBox@@@std@@@3@$0A@@std@@@std@@IAEAAPAU_Node@?$_Tree_nod@V?$_Tmap_traits@KPAVCMailBox@@U?$less@K@std@@V?$allocator@U?$pair@$$CBKPAVCMailBox@@@std@@@3@$0A@@std@@@2@XZ ENDP ; std::_Tree<std::_Tmap_traits<unsigned long,CMailBox *,std::less<unsigned long>,std::allocator<std::pair<unsigned long const ,CMailBox *> >,0> >::_Rmost
_TEXT	ENDS
PUBLIC	?_Kfn@?$_Tmap_traits@KPAVCMailBox@@U?$less@K@std@@V?$allocator@U?$pair@$$CBKPAVCMailBox@@@std@@@3@$0A@@std@@SAABKABU?$pair@$$CBKPAVCMailBox@@@2@@Z ; std::_Tmap_traits<unsigned long,CMailBox *,std::less<unsigned long>,std::allocator<std::pair<unsigned long const ,CMailBox *> >,0>::_Kfn
; Function compile flags: /Ogty
; File c:\program files\microsoft visual studio .net 2003\vc7\include\map
;	COMDAT ?_Kfn@?$_Tmap_traits@KPAVCMailBox@@U?$less@K@std@@V?$allocator@U?$pair@$$CBKPAVCMailBox@@@std@@@3@$0A@@std@@SAABKABU?$pair@$$CBKPAVCMailBox@@@2@@Z
_TEXT	SEGMENT
__Val$ = 8						; size = 4
?_Kfn@?$_Tmap_traits@KPAVCMailBox@@U?$less@K@std@@V?$allocator@U?$pair@$$CBKPAVCMailBox@@@std@@@3@$0A@@std@@SAABKABU?$pair@$$CBKPAVCMailBox@@@2@@Z PROC NEAR ; std::_Tmap_traits<unsigned long,CMailBox *,std::less<unsigned long>,std::allocator<std::pair<unsigned long const ,CMailBox *> >,0>::_Kfn, COMDAT

; 64   : 		return (_Val.first);

  00000	8b 44 24 04	 mov	 eax, DWORD PTR __Val$[esp-4]

; 65   : 		}

  00004	c3		 ret	 0
?_Kfn@?$_Tmap_traits@KPAVCMailBox@@U?$less@K@std@@V?$allocator@U?$pair@$$CBKPAVCMailBox@@@std@@@3@$0A@@std@@SAABKABU?$pair@$$CBKPAVCMailBox@@@2@@Z ENDP ; std::_Tmap_traits<unsigned long,CMailBox *,std::less<unsigned long>,std::allocator<std::pair<unsigned long const ,CMailBox *> >,0>::_Kfn
_TEXT	ENDS
PUBLIC	??0?$allocator@U?$pair@$$CBKPAVCMailBox@@@std@@@std@@QAE@XZ ; std::allocator<std::pair<unsigned long const ,CMailBox *> >::allocator<std::pair<unsigned long const ,CMailBox *> >
; Function compile flags: /Ogty
; File c:\program files\microsoft visual studio .net 2003\vc7\include\xmemory
;	COMDAT ??0?$allocator@U?$pair@$$CBKPAVCMailBox@@@std@@@std@@QAE@XZ
_TEXT	SEGMENT
??0?$allocator@U?$pair@$$CBKPAVCMailBox@@@std@@@std@@QAE@XZ PROC NEAR ; std::allocator<std::pair<unsigned long const ,CMailBox *> >::allocator<std::pair<unsigned long const ,CMailBox *> >, COMDAT
; _this$ = ecx

; 111  : 	allocator()

  00000	8b c1		 mov	 eax, ecx

; 112  : 		{	// construct default allocator (do nothing)
; 113  : 		}

  00002	c3		 ret	 0
??0?$allocator@U?$pair@$$CBKPAVCMailBox@@@std@@@std@@QAE@XZ ENDP ; std::allocator<std::pair<unsigned long const ,CMailBox *> >::allocator<std::pair<unsigned long const ,CMailBox *> >
_TEXT	ENDS
PUBLIC	??Dconst_iterator@?$vector@PAVCMail@@V?$allocator@PAVCMail@@@std@@@std@@QBEABQAVCMail@@XZ ; std::vector<CMail *,std::allocator<CMail *> >::const_iterator::operator*
; Function compile flags: /Ogty
; File c:\program files\microsoft visual studio .net 2003\vc7\include\vector
;	COMDAT ??Dconst_iterator@?$vector@PAVCMail@@V?$allocator@PAVCMail@@@std@@@std@@QBEABQAVCMail@@XZ
_TEXT	SEGMENT
??Dconst_iterator@?$vector@PAVCMail@@V?$allocator@PAVCMail@@@std@@@std@@QBEABQAVCMail@@XZ PROC NEAR ; std::vector<CMail *,std::allocator<CMail *> >::const_iterator::operator*, COMDAT
; _this$ = ecx

; 80   : 
; 81   : 
; 82   : 			return (*_Myptr);

  00000	8b 01		 mov	 eax, DWORD PTR [ecx]

; 83   : 			}

  00002	c3		 ret	 0
??Dconst_iterator@?$vector@PAVCMail@@V?$allocator@PAVCMail@@@std@@@std@@QBEABQAVCMail@@XZ ENDP ; std::vector<CMail *,std::allocator<CMail *> >::const_iterator::operator*
_TEXT	ENDS
PUBLIC	??8const_iterator@?$vector@PAVCMail@@V?$allocator@PAVCMail@@@std@@@std@@QBE_NABV012@@Z ; std::vector<CMail *,std::allocator<CMail *> >::const_iterator::operator==
; Function compile flags: /Ogty
;	COMDAT ??8const_iterator@?$vector@PAVCMail@@V?$allocator@PAVCMail@@@std@@@std@@QBE_NABV012@@Z
_TEXT	SEGMENT
__Right$ = 8						; size = 4
??8const_iterator@?$vector@PAVCMail@@V?$allocator@PAVCMail@@@std@@@std@@QBE_NABV012@@Z PROC NEAR ; std::vector<CMail *,std::allocator<CMail *> >::const_iterator::operator==, COMDAT
; _this$ = ecx

; 153  : 
; 154  : 
; 155  : 			return (_Myptr == _Right._Myptr);

  00000	8b 01		 mov	 eax, DWORD PTR [ecx]
  00002	8b 4c 24 04	 mov	 ecx, DWORD PTR __Right$[esp-4]
  00006	2b 01		 sub	 eax, DWORD PTR [ecx]
  00008	f7 d8		 neg	 eax
  0000a	1b c0		 sbb	 eax, eax
  0000c	40		 inc	 eax

; 156  : 			}

  0000d	c2 04 00	 ret	 4
??8const_iterator@?$vector@PAVCMail@@V?$allocator@PAVCMail@@@std@@@std@@QBE_NABV012@@Z ENDP ; std::vector<CMail *,std::allocator<CMail *> >::const_iterator::operator==
_TEXT	ENDS
PUBLIC	??8const_iterator@?$_Tree@V?$_Tmap_traits@KPAVCMail@@U?$less@K@std@@V?$allocator@U?$pair@$$CBKPAVCMail@@@std@@@3@$0A@@std@@@std@@QBE_NABV012@@Z ; std::_Tree<std::_Tmap_traits<unsigned long,CMail *,std::less<unsigned long>,std::allocator<std::pair<unsigned long const ,CMail *> >,0> >::const_iterator::operator==
; Function compile flags: /Ogty
; File c:\program files\microsoft visual studio .net 2003\vc7\include\xtree
;	COMDAT ??8const_iterator@?$_Tree@V?$_Tmap_traits@KPAVCMail@@U?$less@K@std@@V?$allocator@U?$pair@$$CBKPAVCMail@@@std@@@3@$0A@@std@@@std@@QBE_NABV012@@Z
_TEXT	SEGMENT
__Right$ = 8						; size = 4
??8const_iterator@?$_Tree@V?$_Tmap_traits@KPAVCMail@@U?$less@K@std@@V?$allocator@U?$pair@$$CBKPAVCMail@@@std@@@3@$0A@@std@@@std@@QBE_NABV012@@Z PROC NEAR ; std::_Tree<std::_Tmap_traits<unsigned long,CMail *,std::less<unsigned long>,std::allocator<std::pair<unsigned long const ,CMail *> >,0> >::const_iterator::operator==, COMDAT
; _this$ = ecx

; 241  : 			return (_Ptr == _Right._Ptr);

  00000	8b 01		 mov	 eax, DWORD PTR [ecx]
  00002	8b 4c 24 04	 mov	 ecx, DWORD PTR __Right$[esp-4]
  00006	2b 01		 sub	 eax, DWORD PTR [ecx]
  00008	f7 d8		 neg	 eax
  0000a	1b c0		 sbb	 eax, eax
  0000c	40		 inc	 eax

; 242  : 			}

  0000d	c2 04 00	 ret	 4
??8const_iterator@?$_Tree@V?$_Tmap_traits@KPAVCMail@@U?$less@K@std@@V?$allocator@U?$pair@$$CBKPAVCMail@@@std@@@3@$0A@@std@@@std@@QBE_NABV012@@Z ENDP ; std::_Tree<std::_Tmap_traits<unsigned long,CMail *,std::less<unsigned long>,std::allocator<std::pair<unsigned long const ,CMail *> >,0> >::const_iterator::operator==
_TEXT	ENDS
PUBLIC	?_Mynode@const_iterator@?$_Tree@V?$_Tmap_traits@KPAVCMail@@U?$less@K@std@@V?$allocator@U?$pair@$$CBKPAVCMail@@@std@@@3@$0A@@std@@@std@@QBEPAU_Node@?$_Tree_nod@V?$_Tmap_traits@KPAVCMail@@U?$less@K@std@@V?$allocator@U?$pair@$$CBKPAVCMail@@@std@@@3@$0A@@std@@@3@XZ ; std::_Tree<std::_Tmap_traits<unsigned long,CMail *,std::less<unsigned long>,std::allocator<std::pair<unsigned long const ,CMail *> >,0> >::const_iterator::_Mynode
; Function compile flags: /Ogty
;	COMDAT ?_Mynode@const_iterator@?$_Tree@V?$_Tmap_traits@KPAVCMail@@U?$less@K@std@@V?$allocator@U?$pair@$$CBKPAVCMail@@@std@@@3@$0A@@std@@@std@@QBEPAU_Node@?$_Tree_nod@V?$_Tmap_traits@KPAVCMail@@U?$less@K@std@@V?$allocator@U?$pair@$$CBKPAVCMail@@@std@@@3@$0A@@std@@@3@XZ
_TEXT	SEGMENT
?_Mynode@const_iterator@?$_Tree@V?$_Tmap_traits@KPAVCMail@@U?$less@K@std@@V?$allocator@U?$pair@$$CBKPAVCMail@@@std@@@3@$0A@@std@@@std@@QBEPAU_Node@?$_Tree_nod@V?$_Tmap_traits@KPAVCMail@@U?$less@K@std@@V?$allocator@U?$pair@$$CBKPAVCMail@@@std@@@3@$0A@@std@@@3@XZ PROC NEAR ; std::_Tree<std::_Tmap_traits<unsigned long,CMail *,std::less<unsigned long>,std::allocator<std::pair<unsigned long const ,CMail *> >,0> >::const_iterator::_Mynode, COMDAT
; _this$ = ecx

; 284  : 			return (_Ptr);

  00000	8b 01		 mov	 eax, DWORD PTR [ecx]

; 285  : 			}

  00002	c3		 ret	 0
?_Mynode@const_iterator@?$_Tree@V?$_Tmap_traits@KPAVCMail@@U?$less@K@std@@V?$allocator@U?$pair@$$CBKPAVCMail@@@std@@@3@$0A@@std@@@std@@QBEPAU_Node@?$_Tree_nod@V?$_Tmap_traits@KPAVCMail@@U?$less@K@std@@V?$allocator@U?$pair@$$CBKPAVCMail@@@std@@@3@$0A@@std@@@3@XZ ENDP ; std::_Tree<std::_Tmap_traits<unsigned long,CMail *,std::less<unsigned long>,std::allocator<std::pair<unsigned long const ,CMail *> >,0> >::const_iterator::_Mynode
_TEXT	ENDS
PUBLIC	??0?$pair@Viterator@?$_Tree@V?$_Tmap_traits@KPAVCMail@@U?$less@K@std@@V?$allocator@U?$pair@$$CBKPAVCMail@@@std@@@3@$0A@@std@@@std@@_N@std@@QAE@ABViterator@?$_Tree@V?$_Tmap_traits@KPAVCMail@@U?$less@K@std@@V?$allocator@U?$pair@$$CBKPAVCMail@@@std@@@3@$0A@@std@@@1@AB_N@Z ; std::pair<std::_Tree<std::_Tmap_traits<unsigned long,CMail *,std::less<unsigned long>,std::allocator<std::pair<unsigned long const ,CMail *> >,0> >::iterator,bool>::pair<std::_Tree<std::_Tmap_traits<unsigned long,CMail *,std::less<unsigned long>,std::allocator<std::pair<unsigned long const ,CMail *> >,0> >::iterator,bool>
; Function compile flags: /Ogty
; File c:\program files\microsoft visual studio .net 2003\vc7\include\utility
;	COMDAT ??0?$pair@Viterator@?$_Tree@V?$_Tmap_traits@KPAVCMail@@U?$less@K@std@@V?$allocator@U?$pair@$$CBKPAVCMail@@@std@@@3@$0A@@std@@@std@@_N@std@@QAE@ABViterator@?$_Tree@V?$_Tmap_traits@KPAVCMail@@U?$less@K@std@@V?$allocator@U?$pair@$$CBKPAVCMail@@@std@@@3@$0A@@std@@@1@AB_N@Z
_TEXT	SEGMENT
__Val1$ = 8						; size = 4
__Val2$ = 12						; size = 4
??0?$pair@Viterator@?$_Tree@V?$_Tmap_traits@KPAVCMail@@U?$less@K@std@@V?$allocator@U?$pair@$$CBKPAVCMail@@@std@@@3@$0A@@std@@@std@@_N@std@@QAE@ABViterator@?$_Tree@V?$_Tmap_traits@KPAVCMail@@U?$less@K@std@@V?$allocator@U?$pair@$$CBKPAVCMail@@@std@@@3@$0A@@std@@@1@AB_N@Z PROC NEAR ; std::pair<std::_Tree<std::_Tmap_traits<unsigned long,CMail *,std::less<unsigned long>,std::allocator<std::pair<unsigned long const ,CMail *> >,0> >::iterator,bool>::pair<std::_Tree<std::_Tmap_traits<unsigned long,CMail *,std::less<unsigned long>,std::allocator<std::pair<unsigned long const ,CMail *> >,0> >::iterator,bool>, COMDAT
; _this$ = ecx

; 34   : 		{	// construct from specified values

  00000	8b c1		 mov	 eax, ecx
  00002	8b 4c 24 04	 mov	 ecx, DWORD PTR __Val1$[esp-4]
  00006	8b 11		 mov	 edx, DWORD PTR [ecx]
  00008	8b 4c 24 08	 mov	 ecx, DWORD PTR __Val2$[esp-4]
  0000c	89 10		 mov	 DWORD PTR [eax], edx
  0000e	8a 11		 mov	 dl, BYTE PTR [ecx]
  00010	88 50 04	 mov	 BYTE PTR [eax+4], dl

; 35   : 		}

  00013	c2 08 00	 ret	 8
??0?$pair@Viterator@?$_Tree@V?$_Tmap_traits@KPAVCMail@@U?$less@K@std@@V?$allocator@U?$pair@$$CBKPAVCMail@@@std@@@3@$0A@@std@@@std@@_N@std@@QAE@ABViterator@?$_Tree@V?$_Tmap_traits@KPAVCMail@@U?$less@K@std@@V?$allocator@U?$pair@$$CBKPAVCMail@@@std@@@3@$0A@@std@@@1@AB_N@Z ENDP ; std::pair<std::_Tree<std::_Tmap_traits<unsigned long,CMail *,std::less<unsigned long>,std::allocator<std::pair<unsigned long const ,CMail *> >,0> >::iterator,bool>::pair<std::_Tree<std::_Tmap_traits<unsigned long,CMail *,std::less<unsigned long>,std::allocator<std::pair<unsigned long const ,CMail *> >,0> >::iterator,bool>
_TEXT	ENDS
PUBLIC	??8const_iterator@?$_Tree@V?$_Tmap_traits@KPAVCMailBox@@U?$less@K@std@@V?$allocator@U?$pair@$$CBKPAVCMailBox@@@std@@@3@$0A@@std@@@std@@QBE_NABV012@@Z ; std::_Tree<std::_Tmap_traits<unsigned long,CMailBox *,std::less<unsigned long>,std::allocator<std::pair<unsigned long const ,CMailBox *> >,0> >::const_iterator::operator==
; Function compile flags: /Ogty
; File c:\program files\microsoft visual studio .net 2003\vc7\include\xtree
;	COMDAT ??8const_iterator@?$_Tree@V?$_Tmap_traits@KPAVCMailBox@@U?$less@K@std@@V?$allocator@U?$pair@$$CBKPAVCMailBox@@@std@@@3@$0A@@std@@@std@@QBE_NABV012@@Z
_TEXT	SEGMENT
__Right$ = 8						; size = 4
??8const_iterator@?$_Tree@V?$_Tmap_traits@KPAVCMailBox@@U?$less@K@std@@V?$allocator@U?$pair@$$CBKPAVCMailBox@@@std@@@3@$0A@@std@@@std@@QBE_NABV012@@Z PROC NEAR ; std::_Tree<std::_Tmap_traits<unsigned long,CMailBox *,std::less<unsigned long>,std::allocator<std::pair<unsigned long const ,CMailBox *> >,0> >::const_iterator::operator==, COMDAT
; _this$ = ecx

; 241  : 			return (_Ptr == _Right._Ptr);

  00000	8b 01		 mov	 eax, DWORD PTR [ecx]
  00002	8b 4c 24 04	 mov	 ecx, DWORD PTR __Right$[esp-4]
  00006	2b 01		 sub	 eax, DWORD PTR [ecx]
  00008	f7 d8		 neg	 eax
  0000a	1b c0		 sbb	 eax, eax
  0000c	40		 inc	 eax

; 242  : 			}

  0000d	c2 04 00	 ret	 4
??8const_iterator@?$_Tree@V?$_Tmap_traits@KPAVCMailBox@@U?$less@K@std@@V?$allocator@U?$pair@$$CBKPAVCMailBox@@@std@@@3@$0A@@std@@@std@@QBE_NABV012@@Z ENDP ; std::_Tree<std::_Tmap_traits<unsigned long,CMailBox *,std::less<unsigned long>,std::allocator<std::pair<unsigned long const ,CMailBox *> >,0> >::const_iterator::operator==
_TEXT	ENDS
PUBLIC	?_Mynode@const_iterator@?$_Tree@V?$_Tmap_traits@KPAVCMailBox@@U?$less@K@std@@V?$allocator@U?$pair@$$CBKPAVCMailBox@@@std@@@3@$0A@@std@@@std@@QBEPAU_Node@?$_Tree_nod@V?$_Tmap_traits@KPAVCMailBox@@U?$less@K@std@@V?$allocator@U?$pair@$$CBKPAVCMailBox@@@std@@@3@$0A@@std@@@3@XZ ; std::_Tree<std::_Tmap_traits<unsigned long,CMailBox *,std::less<unsigned long>,std::allocator<std::pair<unsigned long const ,CMailBox *> >,0> >::const_iterator::_Mynode
; Function compile flags: /Ogty
;	COMDAT ?_Mynode@const_iterator@?$_Tree@V?$_Tmap_traits@KPAVCMailBox@@U?$less@K@std@@V?$allocator@U?$pair@$$CBKPAVCMailBox@@@std@@@3@$0A@@std@@@std@@QBEPAU_Node@?$_Tree_nod@V?$_Tmap_traits@KPAVCMailBox@@U?$less@K@std@@V?$allocator@U?$pair@$$CBKPAVCMailBox@@@std@@@3@$0A@@std@@@3@XZ
_TEXT	SEGMENT
?_Mynode@const_iterator@?$_Tree@V?$_Tmap_traits@KPAVCMailBox@@U?$less@K@std@@V?$allocator@U?$pair@$$CBKPAVCMailBox@@@std@@@3@$0A@@std@@@std@@QBEPAU_Node@?$_Tree_nod@V?$_Tmap_traits@KPAVCMailBox@@U?$less@K@std@@V?$allocator@U?$pair@$$CBKPAVCMailBox@@@std@@@3@$0A@@std@@@3@XZ PROC NEAR ; std::_Tree<std::_Tmap_traits<unsigned long,CMailBox *,std::less<unsigned long>,std::allocator<std::pair<unsigned long const ,CMailBox *> >,0> >::const_iterator::_Mynode, COMDAT
; _this$ = ecx

; 284  : 			return (_Ptr);

  00000	8b 01		 mov	 eax, DWORD PTR [ecx]

; 285  : 			}

  00002	c3		 ret	 0
?_Mynode@const_iterator@?$_Tree@V?$_Tmap_traits@KPAVCMailBox@@U?$less@K@std@@V?$allocator@U?$pair@$$CBKPAVCMailBox@@@std@@@3@$0A@@std@@@std@@QBEPAU_Node@?$_Tree_nod@V?$_Tmap_traits@KPAVCMailBox@@U?$less@K@std@@V?$allocator@U?$pair@$$CBKPAVCMailBox@@@std@@@3@$0A@@std@@@3@XZ ENDP ; std::_Tree<std::_Tmap_traits<unsigned long,CMailBox *,std::less<unsigned long>,std::allocator<std::pair<unsigned long const ,CMailBox *> >,0> >::const_iterator::_Mynode
_TEXT	ENDS
PUBLIC	??0?$pair@Viterator@?$_Tree@V?$_Tmap_traits@KPAVCMailBox@@U?$less@K@std@@V?$allocator@U?$pair@$$CBKPAVCMailBox@@@std@@@3@$0A@@std@@@std@@_N@std@@QAE@ABViterator@?$_Tree@V?$_Tmap_traits@KPAVCMailBox@@U?$less@K@std@@V?$allocator@U?$pair@$$CBKPAVCMailBox@@@std@@@3@$0A@@std@@@1@AB_N@Z ; std::pair<std::_Tree<std::_Tmap_traits<unsigned long,CMailBox *,std::less<unsigned long>,std::allocator<std::pair<unsigned long const ,CMailBox *> >,0> >::iterator,bool>::pair<std::_Tree<std::_Tmap_traits<unsigned long,CMailBox *,std::less<unsigned long>,std::allocator<std::pair<unsigned long const ,CMailBox *> >,0> >::iterator,bool>
; Function compile flags: /Ogty
; File c:\program files\microsoft visual studio .net 2003\vc7\include\utility
;	COMDAT ??0?$pair@Viterator@?$_Tree@V?$_Tmap_traits@KPAVCMailBox@@U?$less@K@std@@V?$allocator@U?$pair@$$CBKPAVCMailBox@@@std@@@3@$0A@@std@@@std@@_N@std@@QAE@ABViterator@?$_Tree@V?$_Tmap_traits@KPAVCMailBox@@U?$less@K@std@@V?$allocator@U?$pair@$$CBKPAVCMailBox@@@std@@@3@$0A@@std@@@1@AB_N@Z
_TEXT	SEGMENT
__Val1$ = 8						; size = 4
__Val2$ = 12						; size = 4
??0?$pair@Viterator@?$_Tree@V?$_Tmap_traits@KPAVCMailBox@@U?$less@K@std@@V?$allocator@U?$pair@$$CBKPAVCMailBox@@@std@@@3@$0A@@std@@@std@@_N@std@@QAE@ABViterator@?$_Tree@V?$_Tmap_traits@KPAVCMailBox@@U?$less@K@std@@V?$allocator@U?$pair@$$CBKPAVCMailBox@@@std@@@3@$0A@@std@@@1@AB_N@Z PROC NEAR ; std::pair<std::_Tree<std::_Tmap_traits<unsigned long,CMailBox *,std::less<unsigned long>,std::allocator<std::pair<unsigned long const ,CMailBox *> >,0> >::iterator,bool>::pair<std::_Tree<std::_Tmap_traits<unsigned long,CMailBox *,std::less<unsigned long>,std::allocator<std::pair<unsigned long const ,CMailBox *> >,0> >::iterator,bool>, COMDAT
; _this$ = ecx

; 34   : 		{	// construct from specified values

  00000	8b c1		 mov	 eax, ecx
  00002	8b 4c 24 04	 mov	 ecx, DWORD PTR __Val1$[esp-4]
  00006	8b 11		 mov	 edx, DWORD PTR [ecx]
  00008	8b 4c 24 08	 mov	 ecx, DWORD PTR __Val2$[esp-4]
  0000c	89 10		 mov	 DWORD PTR [eax], edx
  0000e	8a 11		 mov	 dl, BYTE PTR [ecx]
  00010	88 50 04	 mov	 BYTE PTR [eax+4], dl

; 35   : 		}

  00013	c2 08 00	 ret	 8
??0?$pair@Viterator@?$_Tree@V?$_Tmap_traits@KPAVCMailBox@@U?$less@K@std@@V?$allocator@U?$pair@$$CBKPAVCMailBox@@@std@@@3@$0A@@std@@@std@@_N@std@@QAE@ABViterator@?$_Tree@V?$_Tmap_traits@KPAVCMailBox@@U?$less@K@std@@V?$allocator@U?$pair@$$CBKPAVCMailBox@@@std@@@3@$0A@@std@@@1@AB_N@Z ENDP ; std::pair<std::_Tree<std::_Tmap_traits<unsigned long,CMailBox *,std::less<unsigned long>,std::allocator<std::pair<unsigned long const ,CMailBox *> >,0> >::iterator,bool>::pair<std::_Tree<std::_Tmap_traits<unsigned long,CMailBox *,std::less<unsigned long>,std::allocator<std::pair<unsigned long const ,CMailBox *> >,0> >::iterator,bool>
_TEXT	ENDS
PUBLIC	?_Nextnode@?$list@PAVCMail@@V?$allocator@PAVCMail@@@std@@@std@@KAAAPAU_Node@?$_List_nod@PAVCMail@@V?$allocator@PAVCMail@@@std@@@2@PAU342@@Z ; std::list<CMail *,std::allocator<CMail *> >::_Nextnode
; Function compile flags: /Ogty
; File c:\program files\microsoft visual studio .net 2003\vc7\include\list
;	COMDAT ?_Nextnode@?$list@PAVCMail@@V?$allocator@PAVCMail@@@std@@@std@@KAAAPAU_Node@?$_List_nod@PAVCMail@@V?$allocator@PAVCMail@@@std@@@2@PAU342@@Z
_TEXT	SEGMENT
__Pnode$ = 8						; size = 4
?_Nextnode@?$list@PAVCMail@@V?$allocator@PAVCMail@@@std@@@std@@KAAAPAU_Node@?$_List_nod@PAVCMail@@V?$allocator@PAVCMail@@@std@@@2@PAU342@@Z PROC NEAR ; std::list<CMail *,std::allocator<CMail *> >::_Nextnode, COMDAT

; 108  : 		return ((_Nodepref)(*_Pnode)._Next);

  00000	8b 44 24 04	 mov	 eax, DWORD PTR __Pnode$[esp-4]

; 109  : 		}

  00004	c3		 ret	 0
?_Nextnode@?$list@PAVCMail@@V?$allocator@PAVCMail@@@std@@@std@@KAAAPAU_Node@?$_List_nod@PAVCMail@@V?$allocator@PAVCMail@@@std@@@2@PAU342@@Z ENDP ; std::list<CMail *,std::allocator<CMail *> >::_Nextnode
_TEXT	ENDS
PUBLIC	?_Prevnode@?$list@PAVCMail@@V?$allocator@PAVCMail@@@std@@@std@@KAAAPAU_Node@?$_List_nod@PAVCMail@@V?$allocator@PAVCMail@@@std@@@2@PAU342@@Z ; std::list<CMail *,std::allocator<CMail *> >::_Prevnode
; Function compile flags: /Ogty
;	COMDAT ?_Prevnode@?$list@PAVCMail@@V?$allocator@PAVCMail@@@std@@@std@@KAAAPAU_Node@?$_List_nod@PAVCMail@@V?$allocator@PAVCMail@@@std@@@2@PAU342@@Z
_TEXT	SEGMENT
__Pnode$ = 8						; size = 4
?_Prevnode@?$list@PAVCMail@@V?$allocator@PAVCMail@@@std@@@std@@KAAAPAU_Node@?$_List_nod@PAVCMail@@V?$allocator@PAVCMail@@@std@@@2@PAU342@@Z PROC NEAR ; std::list<CMail *,std::allocator<CMail *> >::_Prevnode, COMDAT

; 113  : 		return ((_Nodepref)(*_Pnode)._Prev);

  00000	8b 44 24 04	 mov	 eax, DWORD PTR __Pnode$[esp-4]
  00004	83 c0 04	 add	 eax, 4

; 114  : 		}

  00007	c3		 ret	 0
?_Prevnode@?$list@PAVCMail@@V?$allocator@PAVCMail@@@std@@@std@@KAAAPAU_Node@?$_List_nod@PAVCMail@@V?$allocator@PAVCMail@@@std@@@2@PAU342@@Z ENDP ; std::list<CMail *,std::allocator<CMail *> >::_Prevnode
_TEXT	ENDS
PUBLIC	?deallocate@?$allocator@U_Node@?$_List_nod@PAVCMail@@V?$allocator@PAVCMail@@@std@@@std@@@std@@QAEXPAU_Node@?$_List_nod@PAVCMail@@V?$allocator@PAVCMail@@@std@@@2@I@Z ; std::allocator<std::_List_nod<CMail *,std::allocator<CMail *> >::_Node>::deallocate
EXTRN	??3@YAXPAX@Z:NEAR				; operator delete
; Function compile flags: /Ogty
; File c:\program files\microsoft visual studio .net 2003\vc7\include\xmemory
;	COMDAT ?deallocate@?$allocator@U_Node@?$_List_nod@PAVCMail@@V?$allocator@PAVCMail@@@std@@@std@@@std@@QAEXPAU_Node@?$_List_nod@PAVCMail@@V?$allocator@PAVCMail@@@std@@@2@I@Z
_TEXT	SEGMENT
__Ptr$ = 8						; size = 4
___formal$ = 12						; size = 4
?deallocate@?$allocator@U_Node@?$_List_nod@PAVCMail@@V?$allocator@PAVCMail@@@std@@@std@@@std@@QAEXPAU_Node@?$_List_nod@PAVCMail@@V?$allocator@PAVCMail@@@std@@@2@I@Z PROC NEAR ; std::allocator<std::_List_nod<CMail *,std::allocator<CMail *> >::_Node>::deallocate, COMDAT
; _this$ = ecx

; 132  : 		operator delete(_Ptr);

  00000	8b 44 24 04	 mov	 eax, DWORD PTR __Ptr$[esp-4]
  00004	50		 push	 eax
  00005	e8 00 00 00 00	 call	 ??3@YAXPAX@Z		; operator delete
  0000a	59		 pop	 ecx

; 133  : 		}

  0000b	c2 08 00	 ret	 8
?deallocate@?$allocator@U_Node@?$_List_nod@PAVCMail@@V?$allocator@PAVCMail@@@std@@@std@@@std@@QAEXPAU_Node@?$_List_nod@PAVCMail@@V?$allocator@PAVCMail@@@std@@@2@I@Z ENDP ; std::allocator<std::_List_nod<CMail *,std::allocator<CMail *> >::_Node>::deallocate
_TEXT	ENDS
PUBLIC	??0?$allocator@PAVCMail@@@std@@QAE@ABV01@@Z	; std::allocator<CMail *>::allocator<CMail *>
; Function compile flags: /Ogty
;	COMDAT ??0?$allocator@PAVCMail@@@std@@QAE@ABV01@@Z
_TEXT	SEGMENT
___formal$ = 8						; size = 4
??0?$allocator@PAVCMail@@@std@@QAE@ABV01@@Z PROC NEAR	; std::allocator<CMail *>::allocator<CMail *>, COMDAT
; _this$ = ecx

; 115  : 	allocator(const allocator<_Ty>&)

  00000	8b c1		 mov	 eax, ecx

; 116  : 		{	// construct by copying (do nothing)
; 117  : 		}

  00002	c2 04 00	 ret	 4
??0?$allocator@PAVCMail@@@std@@QAE@ABV01@@Z ENDP	; std::allocator<CMail *>::allocator<CMail *>
_TEXT	ENDS
PUBLIC	?deallocate@?$allocator@PAVCMail@@@std@@QAEXPAPAVCMail@@I@Z ; std::allocator<CMail *>::deallocate
; Function compile flags: /Ogty
;	COMDAT ?deallocate@?$allocator@PAVCMail@@@std@@QAEXPAPAVCMail@@I@Z
_TEXT	SEGMENT
__Ptr$ = 8						; size = 4
___formal$ = 12						; size = 4
?deallocate@?$allocator@PAVCMail@@@std@@QAEXPAPAVCMail@@I@Z PROC NEAR ; std::allocator<CMail *>::deallocate, COMDAT
; _this$ = ecx

; 132  : 		operator delete(_Ptr);

  00000	8b 44 24 04	 mov	 eax, DWORD PTR __Ptr$[esp-4]
  00004	50		 push	 eax
  00005	e8 00 00 00 00	 call	 ??3@YAXPAX@Z		; operator delete
  0000a	59		 pop	 ecx

; 133  : 		}

  0000b	c2 08 00	 ret	 8
?deallocate@?$allocator@PAVCMail@@@std@@QAEXPAPAVCMail@@I@Z ENDP ; std::allocator<CMail *>::deallocate
_TEXT	ENDS
PUBLIC	?_Color@?$_Tree@V?$_Tmap_traits@KPAVCMail@@U?$less@K@std@@V?$allocator@U?$pair@$$CBKPAVCMail@@@std@@@3@$0A@@std@@@std@@KAAADPAU_Node@?$_Tree_nod@V?$_Tmap_traits@KPAVCMail@@U?$less@K@std@@V?$allocator@U?$pair@$$CBKPAVCMail@@@std@@@3@$0A@@std@@@2@@Z ; std::_Tree<std::_Tmap_traits<unsigned long,CMail *,std::less<unsigned long>,std::allocator<std::pair<unsigned long const ,CMail *> >,0> >::_Color
; Function compile flags: /Ogty
; File c:\program files\microsoft visual studio .net 2003\vc7\include\xtree
;	COMDAT ?_Color@?$_Tree@V?$_Tmap_traits@KPAVCMail@@U?$less@K@std@@V?$allocator@U?$pair@$$CBKPAVCMail@@@std@@@3@$0A@@std@@@std@@KAAADPAU_Node@?$_Tree_nod@V?$_Tmap_traits@KPAVCMail@@U?$less@K@std@@V?$allocator@U?$pair@$$CBKPAVCMail@@@std@@@3@$0A@@std@@@2@@Z
_TEXT	SEGMENT
__Pnode$ = 8						; size = 4
?_Color@?$_Tree@V?$_Tmap_traits@KPAVCMail@@U?$less@K@std@@V?$allocator@U?$pair@$$CBKPAVCMail@@@std@@@3@$0A@@std@@@std@@KAAADPAU_Node@?$_Tree_nod@V?$_Tmap_traits@KPAVCMail@@U?$less@K@std@@V?$allocator@U?$pair@$$CBKPAVCMail@@@std@@@3@$0A@@std@@@2@@Z PROC NEAR ; std::_Tree<std::_Tmap_traits<unsigned long,CMail *,std::less<unsigned long>,std::allocator<std::pair<unsigned long const ,CMail *> >,0> >::_Color, COMDAT

; 132  : 		return ((_Charref)(*_Pnode)._Color);

  00000	8b 44 24 04	 mov	 eax, DWORD PTR __Pnode$[esp-4]
  00004	83 c0 14	 add	 eax, 20			; 00000014H

; 133  : 		}

  00007	c3		 ret	 0
?_Color@?$_Tree@V?$_Tmap_traits@KPAVCMail@@U?$less@K@std@@V?$allocator@U?$pair@$$CBKPAVCMail@@@std@@@3@$0A@@std@@@std@@KAAADPAU_Node@?$_Tree_nod@V?$_Tmap_traits@KPAVCMail@@U?$less@K@std@@V?$allocator@U?$pair@$$CBKPAVCMail@@@std@@@3@$0A@@std@@@2@@Z ENDP ; std::_Tree<std::_Tmap_traits<unsigned long,CMail *,std::less<unsigned long>,std::allocator<std::pair<unsigned long const ,CMail *> >,0> >::_Color
_TEXT	ENDS
PUBLIC	?_Parent@?$_Tree@V?$_Tmap_traits@KPAVCMail@@U?$less@K@std@@V?$allocator@U?$pair@$$CBKPAVCMail@@@std@@@3@$0A@@std@@@std@@KAAAPAU_Node@?$_Tree_nod@V?$_Tmap_traits@KPAVCMail@@U?$less@K@std@@V?$allocator@U?$pair@$$CBKPAVCMail@@@std@@@3@$0A@@std@@@2@PAU342@@Z ; std::_Tree<std::_Tmap_traits<unsigned long,CMail *,std::less<unsigned long>,std::allocator<std::pair<unsigned long const ,CMail *> >,0> >::_Parent
; Function compile flags: /Ogty
;	COMDAT ?_Parent@?$_Tree@V?$_Tmap_traits@KPAVCMail@@U?$less@K@std@@V?$allocator@U?$pair@$$CBKPAVCMail@@@std@@@3@$0A@@std@@@std@@KAAAPAU_Node@?$_Tree_nod@V?$_Tmap_traits@KPAVCMail@@U?$less@K@std@@V?$allocator@U?$pair@$$CBKPAVCMail@@@std@@@3@$0A@@std@@@2@PAU342@@Z
_TEXT	SEGMENT
__Pnode$ = 8						; size = 4
?_Parent@?$_Tree@V?$_Tmap_traits@KPAVCMail@@U?$less@K@std@@V?$allocator@U?$pair@$$CBKPAVCMail@@@std@@@3@$0A@@std@@@std@@KAAAPAU_Node@?$_Tree_nod@V?$_Tmap_traits@KPAVCMail@@U?$less@K@std@@V?$allocator@U?$pair@$$CBKPAVCMail@@@std@@@3@$0A@@std@@@2@PAU342@@Z PROC NEAR ; std::_Tree<std::_Tmap_traits<unsigned long,CMail *,std::less<unsigned long>,std::allocator<std::pair<unsigned long const ,CMail *> >,0> >::_Parent, COMDAT

; 152  : 		return ((_Nodepref)(*_Pnode)._Parent);

  00000	8b 44 24 04	 mov	 eax, DWORD PTR __Pnode$[esp-4]
  00004	83 c0 04	 add	 eax, 4

; 153  : 		}

  00007	c3		 ret	 0
?_Parent@?$_Tree@V?$_Tmap_traits@KPAVCMail@@U?$less@K@std@@V?$allocator@U?$pair@$$CBKPAVCMail@@@std@@@3@$0A@@std@@@std@@KAAAPAU_Node@?$_Tree_nod@V?$_Tmap_traits@KPAVCMail@@U?$less@K@std@@V?$allocator@U?$pair@$$CBKPAVCMail@@@std@@@3@$0A@@std@@@2@PAU342@@Z ENDP ; std::_Tree<std::_Tmap_traits<unsigned long,CMail *,std::less<unsigned long>,std::allocator<std::pair<unsigned long const ,CMail *> >,0> >::_Parent
_TEXT	ENDS
PUBLIC	?_Myval@?$_Tree@V?$_Tmap_traits@KPAVCMail@@U?$less@K@std@@V?$allocator@U?$pair@$$CBKPAVCMail@@@std@@@3@$0A@@std@@@std@@KAAAU?$pair@$$CBKPAVCMail@@@2@PAU_Node@?$_Tree_nod@V?$_Tmap_traits@KPAVCMail@@U?$less@K@std@@V?$allocator@U?$pair@$$CBKPAVCMail@@@std@@@3@$0A@@std@@@2@@Z ; std::_Tree<std::_Tmap_traits<unsigned long,CMail *,std::less<unsigned long>,std::allocator<std::pair<unsigned long const ,CMail *> >,0> >::_Myval
; Function compile flags: /Ogty
;	COMDAT ?_Myval@?$_Tree@V?$_Tmap_traits@KPAVCMail@@U?$less@K@std@@V?$allocator@U?$pair@$$CBKPAVCMail@@@std@@@3@$0A@@std@@@std@@KAAAU?$pair@$$CBKPAVCMail@@@2@PAU_Node@?$_Tree_nod@V?$_Tmap_traits@KPAVCMail@@U?$less@K@std@@V?$allocator@U?$pair@$$CBKPAVCMail@@@std@@@3@$0A@@std@@@2@@Z
_TEXT	SEGMENT
__Pnode$ = 8						; size = 4
?_Myval@?$_Tree@V?$_Tmap_traits@KPAVCMail@@U?$less@K@std@@V?$allocator@U?$pair@$$CBKPAVCMail@@@std@@@3@$0A@@std@@@std@@KAAAU?$pair@$$CBKPAVCMail@@@2@PAU_Node@?$_Tree_nod@V?$_Tmap_traits@KPAVCMail@@U?$less@K@std@@V?$allocator@U?$pair@$$CBKPAVCMail@@@std@@@3@$0A@@std@@@2@@Z PROC NEAR ; std::_Tree<std::_Tmap_traits<unsigned long,CMail *,std::less<unsigned long>,std::allocator<std::pair<unsigned long const ,CMail *> >,0> >::_Myval, COMDAT

; 162  : 		return ((_Vref)(*_Pnode)._Myval);

  00000	8b 44 24 04	 mov	 eax, DWORD PTR __Pnode$[esp-4]
  00004	83 c0 0c	 add	 eax, 12			; 0000000cH

; 163  : 		}

  00007	c3		 ret	 0
?_Myval@?$_Tree@V?$_Tmap_traits@KPAVCMail@@U?$less@K@std@@V?$allocator@U?$pair@$$CBKPAVCMail@@@std@@@3@$0A@@std@@@std@@KAAAU?$pair@$$CBKPAVCMail@@@2@PAU_Node@?$_Tree_nod@V?$_Tmap_traits@KPAVCMail@@U?$less@K@std@@V?$allocator@U?$pair@$$CBKPAVCMail@@@std@@@3@$0A@@std@@@2@@Z ENDP ; std::_Tree<std::_Tmap_traits<unsigned long,CMail *,std::less<unsigned long>,std::allocator<std::pair<unsigned long const ,CMail *> >,0> >::_Myval
_TEXT	ENDS
PUBLIC	??0?$allocator@U?$pair@$$CBKPAVCMail@@@std@@@std@@QAE@ABV01@@Z ; std::allocator<std::pair<unsigned long const ,CMail *> >::allocator<std::pair<unsigned long const ,CMail *> >
; Function compile flags: /Ogty
; File c:\program files\microsoft visual studio .net 2003\vc7\include\xmemory
;	COMDAT ??0?$allocator@U?$pair@$$CBKPAVCMail@@@std@@@std@@QAE@ABV01@@Z
_TEXT	SEGMENT
___formal$ = 8						; size = 4
??0?$allocator@U?$pair@$$CBKPAVCMail@@@std@@@std@@QAE@ABV01@@Z PROC NEAR ; std::allocator<std::pair<unsigned long const ,CMail *> >::allocator<std::pair<unsigned long const ,CMail *> >, COMDAT
; _this$ = ecx

; 115  : 	allocator(const allocator<_Ty>&)

  00000	8b c1		 mov	 eax, ecx

; 116  : 		{	// construct by copying (do nothing)
; 117  : 		}

  00002	c2 04 00	 ret	 4
??0?$allocator@U?$pair@$$CBKPAVCMail@@@std@@@std@@QAE@ABV01@@Z ENDP ; std::allocator<std::pair<unsigned long const ,CMail *> >::allocator<std::pair<unsigned long const ,CMail *> >
_TEXT	ENDS
PUBLIC	?deallocate@?$allocator@U_Node@?$_Tree_nod@V?$_Tmap_traits@KPAVCMail@@U?$less@K@std@@V?$allocator@U?$pair@$$CBKPAVCMail@@@std@@@3@$0A@@std@@@std@@@std@@QAEXPAU_Node@?$_Tree_nod@V?$_Tmap_traits@KPAVCMail@@U?$less@K@std@@V?$allocator@U?$pair@$$CBKPAVCMail@@@std@@@3@$0A@@std@@@2@I@Z ; std::allocator<std::_Tree_nod<std::_Tmap_traits<unsigned long,CMail *,std::less<unsigned long>,std::allocator<std::pair<unsigned long const ,CMail *> >,0> >::_Node>::deallocate
; Function compile flags: /Ogty
;	COMDAT ?deallocate@?$allocator@U_Node@?$_Tree_nod@V?$_Tmap_traits@KPAVCMail@@U?$less@K@std@@V?$allocator@U?$pair@$$CBKPAVCMail@@@std@@@3@$0A@@std@@@std@@@std@@QAEXPAU_Node@?$_Tree_nod@V?$_Tmap_traits@KPAVCMail@@U?$less@K@std@@V?$allocator@U?$pair@$$CBKPAVCMail@@@std@@@3@$0A@@std@@@2@I@Z
_TEXT	SEGMENT
__Ptr$ = 8						; size = 4
___formal$ = 12						; size = 4
?deallocate@?$allocator@U_Node@?$_Tree_nod@V?$_Tmap_traits@KPAVCMail@@U?$less@K@std@@V?$allocator@U?$pair@$$CBKPAVCMail@@@std@@@3@$0A@@std@@@std@@@std@@QAEXPAU_Node@?$_Tree_nod@V?$_Tmap_traits@KPAVCMail@@U?$less@K@std@@V?$allocator@U?$pair@$$CBKPAVCMail@@@std@@@3@$0A@@std@@@2@I@Z PROC NEAR ; std::allocator<std::_Tree_nod<std::_Tmap_traits<unsigned long,CMail *,std::less<unsigned long>,std::allocator<std::pair<unsigned long const ,CMail *> >,0> >::_Node>::deallocate, COMDAT
; _this$ = ecx

; 132  : 		operator delete(_Ptr);

  00000	8b 44 24 04	 mov	 eax, DWORD PTR __Ptr$[esp-4]
  00004	50		 push	 eax
  00005	e8 00 00 00 00	 call	 ??3@YAXPAX@Z		; operator delete
  0000a	59		 pop	 ecx

; 133  : 		}

  0000b	c2 08 00	 ret	 8
?deallocate@?$allocator@U_Node@?$_Tree_nod@V?$_Tmap_traits@KPAVCMail@@U?$less@K@std@@V?$allocator@U?$pair@$$CBKPAVCMail@@@std@@@3@$0A@@std@@@std@@@std@@QAEXPAU_Node@?$_Tree_nod@V?$_Tmap_traits@KPAVCMail@@U?$less@K@std@@V?$allocator@U?$pair@$$CBKPAVCMail@@@std@@@3@$0A@@std@@@2@I@Z ENDP ; std::allocator<std::_Tree_nod<std::_Tmap_traits<unsigned long,CMail *,std::less<unsigned long>,std::allocator<std::pair<unsigned long const ,CMail *> >,0> >::_Node>::deallocate
_TEXT	ENDS
PUBLIC	?_Color@?$_Tree@V?$_Tmap_traits@KPAVCMailBox@@U?$less@K@std@@V?$allocator@U?$pair@$$CBKPAVCMailBox@@@std@@@3@$0A@@std@@@std@@KAAADPAU_Node@?$_Tree_nod@V?$_Tmap_traits@KPAVCMailBox@@U?$less@K@std@@V?$allocator@U?$pair@$$CBKPAVCMailBox@@@std@@@3@$0A@@std@@@2@@Z ; std::_Tree<std::_Tmap_traits<unsigned long,CMailBox *,std::less<unsigned long>,std::allocator<std::pair<unsigned long const ,CMailBox *> >,0> >::_Color
; Function compile flags: /Ogty
; File c:\program files\microsoft visual studio .net 2003\vc7\include\xtree
;	COMDAT ?_Color@?$_Tree@V?$_Tmap_traits@KPAVCMailBox@@U?$less@K@std@@V?$allocator@U?$pair@$$CBKPAVCMailBox@@@std@@@3@$0A@@std@@@std@@KAAADPAU_Node@?$_Tree_nod@V?$_Tmap_traits@KPAVCMailBox@@U?$less@K@std@@V?$allocator@U?$pair@$$CBKPAVCMailBox@@@std@@@3@$0A@@std@@@2@@Z
_TEXT	SEGMENT
__Pnode$ = 8						; size = 4
?_Color@?$_Tree@V?$_Tmap_traits@KPAVCMailBox@@U?$less@K@std@@V?$allocator@U?$pair@$$CBKPAVCMailBox@@@std@@@3@$0A@@std@@@std@@KAAADPAU_Node@?$_Tree_nod@V?$_Tmap_traits@KPAVCMailBox@@U?$less@K@std@@V?$allocator@U?$pair@$$CBKPAVCMailBox@@@std@@@3@$0A@@std@@@2@@Z PROC NEAR ; std::_Tree<std::_Tmap_traits<unsigned long,CMailBox *,std::less<unsigned long>,std::allocator<std::pair<unsigned long const ,CMailBox *> >,0> >::_Color, COMDAT

; 132  : 		return ((_Charref)(*_Pnode)._Color);

  00000	8b 44 24 04	 mov	 eax, DWORD PTR __Pnode$[esp-4]
  00004	83 c0 14	 add	 eax, 20			; 00000014H

; 133  : 		}

  00007	c3		 ret	 0
?_Color@?$_Tree@V?$_Tmap_traits@KPAVCMailBox@@U?$less@K@std@@V?$allocator@U?$pair@$$CBKPAVCMailBox@@@std@@@3@$0A@@std@@@std@@KAAADPAU_Node@?$_Tree_nod@V?$_Tmap_traits@KPAVCMailBox@@U?$less@K@std@@V?$allocator@U?$pair@$$CBKPAVCMailBox@@@std@@@3@$0A@@std@@@2@@Z ENDP ; std::_Tree<std::_Tmap_traits<unsigned long,CMailBox *,std::less<unsigned long>,std::allocator<std::pair<unsigned long const ,CMailBox *> >,0> >::_Color
_TEXT	ENDS
PUBLIC	?_Parent@?$_Tree@V?$_Tmap_traits@KPAVCMailBox@@U?$less@K@std@@V?$allocator@U?$pair@$$CBKPAVCMailBox@@@std@@@3@$0A@@std@@@std@@KAAAPAU_Node@?$_Tree_nod@V?$_Tmap_traits@KPAVCMailBox@@U?$less@K@std@@V?$allocator@U?$pair@$$CBKPAVCMailBox@@@std@@@3@$0A@@std@@@2@PAU342@@Z ; std::_Tree<std::_Tmap_traits<unsigned long,CMailBox *,std::less<unsigned long>,std::allocator<std::pair<unsigned long const ,CMailBox *> >,0> >::_Parent
; Function compile flags: /Ogty
;	COMDAT ?_Parent@?$_Tree@V?$_Tmap_traits@KPAVCMailBox@@U?$less@K@std@@V?$allocator@U?$pair@$$CBKPAVCMailBox@@@std@@@3@$0A@@std@@@std@@KAAAPAU_Node@?$_Tree_nod@V?$_Tmap_traits@KPAVCMailBox@@U?$less@K@std@@V?$allocator@U?$pair@$$CBKPAVCMailBox@@@std@@@3@$0A@@std@@@2@PAU342@@Z
_TEXT	SEGMENT
__Pnode$ = 8						; size = 4
?_Parent@?$_Tree@V?$_Tmap_traits@KPAVCMailBox@@U?$less@K@std@@V?$allocator@U?$pair@$$CBKPAVCMailBox@@@std@@@3@$0A@@std@@@std@@KAAAPAU_Node@?$_Tree_nod@V?$_Tmap_traits@KPAVCMailBox@@U?$less@K@std@@V?$allocator@U?$pair@$$CBKPAVCMailBox@@@std@@@3@$0A@@std@@@2@PAU342@@Z PROC NEAR ; std::_Tree<std::_Tmap_traits<unsigned long,CMailBox *,std::less<unsigned long>,std::allocator<std::pair<unsigned long const ,CMailBox *> >,0> >::_Parent, COMDAT

; 152  : 		return ((_Nodepref)(*_Pnode)._Parent);

  00000	8b 44 24 04	 mov	 eax, DWORD PTR __Pnode$[esp-4]
  00004	83 c0 04	 add	 eax, 4

; 153  : 		}

  00007	c3		 ret	 0
?_Parent@?$_Tree@V?$_Tmap_traits@KPAVCMailBox@@U?$less@K@std@@V?$allocator@U?$pair@$$CBKPAVCMailBox@@@std@@@3@$0A@@std@@@std@@KAAAPAU_Node@?$_Tree_nod@V?$_Tmap_traits@KPAVCMailBox@@U?$less@K@std@@V?$allocator@U?$pair@$$CBKPAVCMailBox@@@std@@@3@$0A@@std@@@2@PAU342@@Z ENDP ; std::_Tree<std::_Tmap_traits<unsigned long,CMailBox *,std::less<unsigned long>,std::allocator<std::pair<unsigned long const ,CMailBox *> >,0> >::_Parent
_TEXT	ENDS
PUBLIC	?_Myval@?$_Tree@V?$_Tmap_traits@KPAVCMailBox@@U?$less@K@std@@V?$allocator@U?$pair@$$CBKPAVCMailBox@@@std@@@3@$0A@@std@@@std@@KAAAU?$pair@$$CBKPAVCMailBox@@@2@PAU_Node@?$_Tree_nod@V?$_Tmap_traits@KPAVCMailBox@@U?$less@K@std@@V?$allocator@U?$pair@$$CBKPAVCMailBox@@@std@@@3@$0A@@std@@@2@@Z ; std::_Tree<std::_Tmap_traits<unsigned long,CMailBox *,std::less<unsigned long>,std::allocator<std::pair<unsigned long const ,CMailBox *> >,0> >::_Myval
; Function compile flags: /Ogty
;	COMDAT ?_Myval@?$_Tree@V?$_Tmap_traits@KPAVCMailBox@@U?$less@K@std@@V?$allocator@U?$pair@$$CBKPAVCMailBox@@@std@@@3@$0A@@std@@@std@@KAAAU?$pair@$$CBKPAVCMailBox@@@2@PAU_Node@?$_Tree_nod@V?$_Tmap_traits@KPAVCMailBox@@U?$less@K@std@@V?$allocator@U?$pair@$$CBKPAVCMailBox@@@std@@@3@$0A@@std@@@2@@Z
_TEXT	SEGMENT
__Pnode$ = 8						; size = 4
?_Myval@?$_Tree@V?$_Tmap_traits@KPAVCMailBox@@U?$less@K@std@@V?$allocator@U?$pair@$$CBKPAVCMailBox@@@std@@@3@$0A@@std@@@std@@KAAAU?$pair@$$CBKPAVCMailBox@@@2@PAU_Node@?$_Tree_nod@V?$_Tmap_traits@KPAVCMailBox@@U?$less@K@std@@V?$allocator@U?$pair@$$CBKPAVCMailBox@@@std@@@3@$0A@@std@@@2@@Z PROC NEAR ; std::_Tree<std::_Tmap_traits<unsigned long,CMailBox *,std::less<unsigned long>,std::allocator<std::pair<unsigned long const ,CMailBox *> >,0> >::_Myval, COMDAT

; 162  : 		return ((_Vref)(*_Pnode)._Myval);

  00000	8b 44 24 04	 mov	 eax, DWORD PTR __Pnode$[esp-4]
  00004	83 c0 0c	 add	 eax, 12			; 0000000cH

; 163  : 		}

  00007	c3		 ret	 0
?_Myval@?$_Tree@V?$_Tmap_traits@KPAVCMailBox@@U?$less@K@std@@V?$allocator@U?$pair@$$CBKPAVCMailBox@@@std@@@3@$0A@@std@@@std@@KAAAU?$pair@$$CBKPAVCMailBox@@@2@PAU_Node@?$_Tree_nod@V?$_Tmap_traits@KPAVCMailBox@@U?$less@K@std@@V?$allocator@U?$pair@$$CBKPAVCMailBox@@@std@@@3@$0A@@std@@@2@@Z ENDP ; std::_Tree<std::_Tmap_traits<unsigned long,CMailBox *,std::less<unsigned long>,std::allocator<std::pair<unsigned long const ,CMailBox *> >,0> >::_Myval
_TEXT	ENDS
PUBLIC	??0?$allocator@U?$pair@$$CBKPAVCMailBox@@@std@@@std@@QAE@ABV01@@Z ; std::allocator<std::pair<unsigned long const ,CMailBox *> >::allocator<std::pair<unsigned long const ,CMailBox *> >
; Function compile flags: /Ogty
; File c:\program files\microsoft visual studio .net 2003\vc7\include\xmemory
;	COMDAT ??0?$allocator@U?$pair@$$CBKPAVCMailBox@@@std@@@std@@QAE@ABV01@@Z
_TEXT	SEGMENT
___formal$ = 8						; size = 4
??0?$allocator@U?$pair@$$CBKPAVCMailBox@@@std@@@std@@QAE@ABV01@@Z PROC NEAR ; std::allocator<std::pair<unsigned long const ,CMailBox *> >::allocator<std::pair<unsigned long const ,CMailBox *> >, COMDAT
; _this$ = ecx

; 115  : 	allocator(const allocator<_Ty>&)

  00000	8b c1		 mov	 eax, ecx

; 116  : 		{	// construct by copying (do nothing)
; 117  : 		}

  00002	c2 04 00	 ret	 4
??0?$allocator@U?$pair@$$CBKPAVCMailBox@@@std@@@std@@QAE@ABV01@@Z ENDP ; std::allocator<std::pair<unsigned long const ,CMailBox *> >::allocator<std::pair<unsigned long const ,CMailBox *> >
_TEXT	ENDS
PUBLIC	?deallocate@?$allocator@U_Node@?$_Tree_nod@V?$_Tmap_traits@KPAVCMailBox@@U?$less@K@std@@V?$allocator@U?$pair@$$CBKPAVCMailBox@@@std@@@3@$0A@@std@@@std@@@std@@QAEXPAU_Node@?$_Tree_nod@V?$_Tmap_traits@KPAVCMailBox@@U?$less@K@std@@V?$allocator@U?$pair@$$CBKPAVCMailBox@@@std@@@3@$0A@@std@@@2@I@Z ; std::allocator<std::_Tree_nod<std::_Tmap_traits<unsigned long,CMailBox *,std::less<unsigned long>,std::allocator<std::pair<unsigned long const ,CMailBox *> >,0> >::_Node>::deallocate
; Function compile flags: /Ogty
;	COMDAT ?deallocate@?$allocator@U_Node@?$_Tree_nod@V?$_Tmap_traits@KPAVCMailBox@@U?$less@K@std@@V?$allocator@U?$pair@$$CBKPAVCMailBox@@@std@@@3@$0A@@std@@@std@@@std@@QAEXPAU_Node@?$_Tree_nod@V?$_Tmap_traits@KPAVCMailBox@@U?$less@K@std@@V?$allocator@U?$pair@$$CBKPAVCMailBox@@@std@@@3@$0A@@std@@@2@I@Z
_TEXT	SEGMENT
__Ptr$ = 8						; size = 4
___formal$ = 12						; size = 4
?deallocate@?$allocator@U_Node@?$_Tree_nod@V?$_Tmap_traits@KPAVCMailBox@@U?$less@K@std@@V?$allocator@U?$pair@$$CBKPAVCMailBox@@@std@@@3@$0A@@std@@@std@@@std@@QAEXPAU_Node@?$_Tree_nod@V?$_Tmap_traits@KPAVCMailBox@@U?$less@K@std@@V?$allocator@U?$pair@$$CBKPAVCMailBox@@@std@@@3@$0A@@std@@@2@I@Z PROC NEAR ; std::allocator<std::_Tree_nod<std::_Tmap_traits<unsigned long,CMailBox *,std::less<unsigned long>,std::allocator<std::pair<unsigned long const ,CMailBox *> >,0> >::_Node>::deallocate, COMDAT
; _this$ = ecx

; 132  : 		operator delete(_Ptr);

  00000	8b 44 24 04	 mov	 eax, DWORD PTR __Ptr$[esp-4]
  00004	50		 push	 eax
  00005	e8 00 00 00 00	 call	 ??3@YAXPAX@Z		; operator delete
  0000a	59		 pop	 ecx

; 133  : 		}

  0000b	c2 08 00	 ret	 8
?deallocate@?$allocator@U_Node@?$_Tree_nod@V?$_Tmap_traits@KPAVCMailBox@@U?$less@K@std@@V?$allocator@U?$pair@$$CBKPAVCMailBox@@@std@@@3@$0A@@std@@@std@@@std@@QAEXPAU_Node@?$_Tree_nod@V?$_Tmap_traits@KPAVCMailBox@@U?$less@K@std@@V?$allocator@U?$pair@$$CBKPAVCMailBox@@@std@@@3@$0A@@std@@@2@I@Z ENDP ; std::allocator<std::_Tree_nod<std::_Tmap_traits<unsigned long,CMailBox *,std::less<unsigned long>,std::allocator<std::pair<unsigned long const ,CMailBox *> >,0> >::_Node>::deallocate
_TEXT	ENDS
PUBLIC	??0const_iterator@?$vector@PAVCMail@@V?$allocator@PAVCMail@@@std@@@std@@QAE@PAPAVCMail@@@Z ; std::vector<CMail *,std::allocator<CMail *> >::const_iterator::const_iterator
; Function compile flags: /Ogty
; File c:\program files\microsoft visual studio .net 2003\vc7\include\vector
;	COMDAT ??0const_iterator@?$vector@PAVCMail@@V?$allocator@PAVCMail@@@std@@@std@@QAE@PAPAVCMail@@@Z
_TEXT	SEGMENT
__Ptr$ = 8						; size = 4
??0const_iterator@?$vector@PAVCMail@@V?$allocator@PAVCMail@@@std@@@std@@QAE@PAPAVCMail@@@Z PROC NEAR ; std::vector<CMail *,std::allocator<CMail *> >::const_iterator::const_iterator, COMDAT
; _this$ = ecx

; 73   : 		const_iterator(_Tptr _Ptr)

  00000	8b c1		 mov	 eax, ecx

; 74   : 			{	// construct with pointer _Ptr
; 75   : 			_Myptr = _Ptr;

  00002	8b 4c 24 04	 mov	 ecx, DWORD PTR __Ptr$[esp-4]
  00006	89 08		 mov	 DWORD PTR [eax], ecx

; 76   : 			}

  00008	c2 04 00	 ret	 4
??0const_iterator@?$vector@PAVCMail@@V?$allocator@PAVCMail@@@std@@@std@@QAE@PAPAVCMail@@@Z ENDP ; std::vector<CMail *,std::allocator<CMail *> >::const_iterator::const_iterator
_TEXT	ENDS
PUBLIC	??0const_iterator@?$_Tree@V?$_Tmap_traits@KPAVCMail@@U?$less@K@std@@V?$allocator@U?$pair@$$CBKPAVCMail@@@std@@@3@$0A@@std@@@std@@QAE@PAU_Node@?$_Tree_nod@V?$_Tmap_traits@KPAVCMail@@U?$less@K@std@@V?$allocator@U?$pair@$$CBKPAVCMail@@@std@@@3@$0A@@std@@@2@@Z ; std::_Tree<std::_Tmap_traits<unsigned long,CMail *,std::less<unsigned long>,std::allocator<std::pair<unsigned long const ,CMail *> >,0> >::const_iterator::const_iterator
; Function compile flags: /Ogty
; File c:\program files\microsoft visual studio .net 2003\vc7\include\xtree
;	COMDAT ??0const_iterator@?$_Tree@V?$_Tmap_traits@KPAVCMail@@U?$less@K@std@@V?$allocator@U?$pair@$$CBKPAVCMail@@@std@@@3@$0A@@std@@@std@@QAE@PAU_Node@?$_Tree_nod@V?$_Tmap_traits@KPAVCMail@@U?$less@K@std@@V?$allocator@U?$pair@$$CBKPAVCMail@@@std@@@3@$0A@@std@@@2@@Z
_TEXT	SEGMENT
__Pnode$ = 8						; size = 4
??0const_iterator@?$_Tree@V?$_Tmap_traits@KPAVCMail@@U?$less@K@std@@V?$allocator@U?$pair@$$CBKPAVCMail@@@std@@@3@$0A@@std@@@std@@QAE@PAU_Node@?$_Tree_nod@V?$_Tmap_traits@KPAVCMail@@U?$less@K@std@@V?$allocator@U?$pair@$$CBKPAVCMail@@@std@@@3@$0A@@std@@@2@@Z PROC NEAR ; std::_Tree<std::_Tmap_traits<unsigned long,CMail *,std::less<unsigned long>,std::allocator<std::pair<unsigned long const ,CMail *> >,0> >::const_iterator::const_iterator, COMDAT
; _this$ = ecx

; 200  : 			{	// construct with node pointer _Pnode

  00000	8b c1		 mov	 eax, ecx
  00002	8b 4c 24 04	 mov	 ecx, DWORD PTR __Pnode$[esp-4]
  00006	89 08		 mov	 DWORD PTR [eax], ecx

; 201  : 			}

  00008	c2 04 00	 ret	 4
??0const_iterator@?$_Tree@V?$_Tmap_traits@KPAVCMail@@U?$less@K@std@@V?$allocator@U?$pair@$$CBKPAVCMail@@@std@@@3@$0A@@std@@@std@@QAE@PAU_Node@?$_Tree_nod@V?$_Tmap_traits@KPAVCMail@@U?$less@K@std@@V?$allocator@U?$pair@$$CBKPAVCMail@@@std@@@3@$0A@@std@@@2@@Z ENDP ; std::_Tree<std::_Tmap_traits<unsigned long,CMail *,std::less<unsigned long>,std::allocator<std::pair<unsigned long const ,CMail *> >,0> >::const_iterator::const_iterator
_TEXT	ENDS
PUBLIC	??Dconst_iterator@?$_Tree@V?$_Tmap_traits@KPAVCMail@@U?$less@K@std@@V?$allocator@U?$pair@$$CBKPAVCMail@@@std@@@3@$0A@@std@@@std@@QBEABU?$pair@$$CBKPAVCMail@@@2@XZ ; std::_Tree<std::_Tmap_traits<unsigned long,CMail *,std::less<unsigned long>,std::allocator<std::pair<unsigned long const ,CMail *> >,0> >::const_iterator::operator*
; Function compile flags: /Ogty
;	COMDAT ??Dconst_iterator@?$_Tree@V?$_Tmap_traits@KPAVCMail@@U?$less@K@std@@V?$allocator@U?$pair@$$CBKPAVCMail@@@std@@@3@$0A@@std@@@std@@QBEABU?$pair@$$CBKPAVCMail@@@2@XZ
_TEXT	SEGMENT
??Dconst_iterator@?$_Tree@V?$_Tmap_traits@KPAVCMail@@U?$less@K@std@@V?$allocator@U?$pair@$$CBKPAVCMail@@@std@@@3@$0A@@std@@@std@@QBEABU?$pair@$$CBKPAVCMail@@@2@XZ PROC NEAR ; std::_Tree<std::_Tmap_traits<unsigned long,CMail *,std::less<unsigned long>,std::allocator<std::pair<unsigned long const ,CMail *> >,0> >::const_iterator::operator*, COMDAT
; _this$ = ecx

; 205  : 			return (_Myval(_Ptr));

  00000	8b 01		 mov	 eax, DWORD PTR [ecx]
  00002	83 c0 0c	 add	 eax, 12			; 0000000cH

; 206  : 			}

  00005	c3		 ret	 0
??Dconst_iterator@?$_Tree@V?$_Tmap_traits@KPAVCMail@@U?$less@K@std@@V?$allocator@U?$pair@$$CBKPAVCMail@@@std@@@3@$0A@@std@@@std@@QBEABU?$pair@$$CBKPAVCMail@@@2@XZ ENDP ; std::_Tree<std::_Tmap_traits<unsigned long,CMail *,std::less<unsigned long>,std::allocator<std::pair<unsigned long const ,CMail *> >,0> >::const_iterator::operator*
_TEXT	ENDS
PUBLIC	??0const_iterator@?$_Tree@V?$_Tmap_traits@KPAVCMailBox@@U?$less@K@std@@V?$allocator@U?$pair@$$CBKPAVCMailBox@@@std@@@3@$0A@@std@@@std@@QAE@PAU_Node@?$_Tree_nod@V?$_Tmap_traits@KPAVCMailBox@@U?$less@K@std@@V?$allocator@U?$pair@$$CBKPAVCMailBox@@@std@@@3@$0A@@std@@@2@@Z ; std::_Tree<std::_Tmap_traits<unsigned long,CMailBox *,std::less<unsigned long>,std::allocator<std::pair<unsigned long const ,CMailBox *> >,0> >::const_iterator::const_iterator
; Function compile flags: /Ogty
;	COMDAT ??0const_iterator@?$_Tree@V?$_Tmap_traits@KPAVCMailBox@@U?$less@K@std@@V?$allocator@U?$pair@$$CBKPAVCMailBox@@@std@@@3@$0A@@std@@@std@@QAE@PAU_Node@?$_Tree_nod@V?$_Tmap_traits@KPAVCMailBox@@U?$less@K@std@@V?$allocator@U?$pair@$$CBKPAVCMailBox@@@std@@@3@$0A@@std@@@2@@Z
_TEXT	SEGMENT
__Pnode$ = 8						; size = 4
??0const_iterator@?$_Tree@V?$_Tmap_traits@KPAVCMailBox@@U?$less@K@std@@V?$allocator@U?$pair@$$CBKPAVCMailBox@@@std@@@3@$0A@@std@@@std@@QAE@PAU_Node@?$_Tree_nod@V?$_Tmap_traits@KPAVCMailBox@@U?$less@K@std@@V?$allocator@U?$pair@$$CBKPAVCMailBox@@@std@@@3@$0A@@std@@@2@@Z PROC NEAR ; std::_Tree<std::_Tmap_traits<unsigned long,CMailBox *,std::less<unsigned long>,std::allocator<std::pair<unsigned long const ,CMailBox *> >,0> >::const_iterator::const_iterator, COMDAT
; _this$ = ecx

; 200  : 			{	// construct with node pointer _Pnode

  00000	8b c1		 mov	 eax, ecx
  00002	8b 4c 24 04	 mov	 ecx, DWORD PTR __Pnode$[esp-4]
  00006	89 08		 mov	 DWORD PTR [eax], ecx

; 201  : 			}

  00008	c2 04 00	 ret	 4
??0const_iterator@?$_Tree@V?$_Tmap_traits@KPAVCMailBox@@U?$less@K@std@@V?$allocator@U?$pair@$$CBKPAVCMailBox@@@std@@@3@$0A@@std@@@std@@QAE@PAU_Node@?$_Tree_nod@V?$_Tmap_traits@KPAVCMailBox@@U?$less@K@std@@V?$allocator@U?$pair@$$CBKPAVCMailBox@@@std@@@3@$0A@@std@@@2@@Z ENDP ; std::_Tree<std::_Tmap_traits<unsigned long,CMailBox *,std::less<unsigned long>,std::allocator<std::pair<unsigned long const ,CMailBox *> >,0> >::const_iterator::const_iterator
_TEXT	ENDS
PUBLIC	??Dconst_iterator@?$_Tree@V?$_Tmap_traits@KPAVCMailBox@@U?$less@K@std@@V?$allocator@U?$pair@$$CBKPAVCMailBox@@@std@@@3@$0A@@std@@@std@@QBEABU?$pair@$$CBKPAVCMailBox@@@2@XZ ; std::_Tree<std::_Tmap_traits<unsigned long,CMailBox *,std::less<unsigned long>,std::allocator<std::pair<unsigned long const ,CMailBox *> >,0> >::const_iterator::operator*
; Function compile flags: /Ogty
;	COMDAT ??Dconst_iterator@?$_Tree@V?$_Tmap_traits@KPAVCMailBox@@U?$less@K@std@@V?$allocator@U?$pair@$$CBKPAVCMailBox@@@std@@@3@$0A@@std@@@std@@QBEABU?$pair@$$CBKPAVCMailBox@@@2@XZ
_TEXT	SEGMENT
??Dconst_iterator@?$_Tree@V?$_Tmap_traits@KPAVCMailBox@@U?$less@K@std@@V?$allocator@U?$pair@$$CBKPAVCMailBox@@@std@@@3@$0A@@std@@@std@@QBEABU?$pair@$$CBKPAVCMailBox@@@2@XZ PROC NEAR ; std::_Tree<std::_Tmap_traits<unsigned long,CMailBox *,std::less<unsigned long>,std::allocator<std::pair<unsigned long const ,CMailBox *> >,0> >::const_iterator::operator*, COMDAT
; _this$ = ecx

; 205  : 			return (_Myval(_Ptr));

  00000	8b 01		 mov	 eax, DWORD PTR [ecx]
  00002	83 c0 0c	 add	 eax, 12			; 0000000cH

; 206  : 			}

  00005	c3		 ret	 0
??Dconst_iterator@?$_Tree@V?$_Tmap_traits@KPAVCMailBox@@U?$less@K@std@@V?$allocator@U?$pair@$$CBKPAVCMailBox@@@std@@@3@$0A@@std@@@std@@QBEABU?$pair@$$CBKPAVCMailBox@@@2@XZ ENDP ; std::_Tree<std::_Tmap_traits<unsigned long,CMailBox *,std::less<unsigned long>,std::allocator<std::pair<unsigned long const ,CMailBox *> >,0> >::const_iterator::operator*
_TEXT	ENDS
PUBLIC	??0?$pair@Viterator@?$_Tree@V?$_Tmap_traits@KPAVCMail@@U?$less@K@std@@V?$allocator@U?$pair@$$CBKPAVCMail@@@std@@@3@$0A@@std@@@std@@V123@@std@@QAE@ABViterator@?$_Tree@V?$_Tmap_traits@KPAVCMail@@U?$less@K@std@@V?$allocator@U?$pair@$$CBKPAVCMail@@@std@@@3@$0A@@std@@@1@0@Z ; std::pair<std::_Tree<std::_Tmap_traits<unsigned long,CMail *,std::less<unsigned long>,std::allocator<std::pair<unsigned long const ,CMail *> >,0> >::iterator,std::_Tree<std::_Tmap_traits<unsigned long,CMail *,std::less<unsigned long>,std::allocator<std::pair<unsigned long const ,CMail *> >,0> >::iterator>::pair<std::_Tree<std::_Tmap_traits<unsigned long,CMail *,std::less<unsigned long>,std::allocator<std::pair<unsigned long const ,CMail *> >,0> >::iterator,std::_Tree<std::_Tmap_traits<unsigned long,CMail *,std::less<unsigned long>,std::allocator<std::pair<unsigned long const ,CMail *> >,0> >::iterator>
; Function compile flags: /Ogty
; File c:\program files\microsoft visual studio .net 2003\vc7\include\utility
;	COMDAT ??0?$pair@Viterator@?$_Tree@V?$_Tmap_traits@KPAVCMail@@U?$less@K@std@@V?$allocator@U?$pair@$$CBKPAVCMail@@@std@@@3@$0A@@std@@@std@@V123@@std@@QAE@ABViterator@?$_Tree@V?$_Tmap_traits@KPAVCMail@@U?$less@K@std@@V?$allocator@U?$pair@$$CBKPAVCMail@@@std@@@3@$0A@@std@@@1@0@Z
_TEXT	SEGMENT
__Val1$ = 8						; size = 4
__Val2$ = 12						; size = 4
??0?$pair@Viterator@?$_Tree@V?$_Tmap_traits@KPAVCMail@@U?$less@K@std@@V?$allocator@U?$pair@$$CBKPAVCMail@@@std@@@3@$0A@@std@@@std@@V123@@std@@QAE@ABViterator@?$_Tree@V?$_Tmap_traits@KPAVCMail@@U?$less@K@std@@V?$allocator@U?$pair@$$CBKPAVCMail@@@std@@@3@$0A@@std@@@1@0@Z PROC NEAR ; std::pair<std::_Tree<std::_Tmap_traits<unsigned long,CMail *,std::less<unsigned long>,std::allocator<std::pair<unsigned long const ,CMail *> >,0> >::iterator,std::_Tree<std::_Tmap_traits<unsigned long,CMail *,std::less<unsigned long>,std::allocator<std::pair<unsigned long const ,CMail *> >,0> >::iterator>::pair<std::_Tree<std::_Tmap_traits<unsigned long,CMail *,std::less<unsigned long>,std::allocator<std::pair<unsigned long const ,CMail *> >,0> >::iterator,std::_Tree<std::_Tmap_traits<unsigned long,CMail *,std::less<unsigned long>,std::allocator<std::pair<unsigned long const ,CMail *> >,0> >::iterator>, COMDAT
; _this$ = ecx

; 34   : 		{	// construct from specified values

  00000	8b c1		 mov	 eax, ecx
  00002	8b 4c 24 04	 mov	 ecx, DWORD PTR __Val1$[esp-4]
  00006	8b 11		 mov	 edx, DWORD PTR [ecx]
  00008	8b 4c 24 08	 mov	 ecx, DWORD PTR __Val2$[esp-4]
  0000c	89 10		 mov	 DWORD PTR [eax], edx
  0000e	8b 11		 mov	 edx, DWORD PTR [ecx]
  00010	89 50 04	 mov	 DWORD PTR [eax+4], edx

; 35   : 		}

  00013	c2 08 00	 ret	 8
??0?$pair@Viterator@?$_Tree@V?$_Tmap_traits@KPAVCMail@@U?$less@K@std@@V?$allocator@U?$pair@$$CBKPAVCMail@@@std@@@3@$0A@@std@@@std@@V123@@std@@QAE@ABViterator@?$_Tree@V?$_Tmap_traits@KPAVCMail@@U?$less@K@std@@V?$allocator@U?$pair@$$CBKPAVCMail@@@std@@@3@$0A@@std@@@1@0@Z ENDP ; std::pair<std::_Tree<std::_Tmap_traits<unsigned long,CMail *,std::less<unsigned long>,std::allocator<std::pair<unsigned long const ,CMail *> >,0> >::iterator,std::_Tree<std::_Tmap_traits<unsigned long,CMail *,std::less<unsigned long>,std::allocator<std::pair<unsigned long const ,CMail *> >,0> >::iterator>::pair<std::_Tree<std::_Tmap_traits<unsigned long,CMail *,std::less<unsigned long>,std::allocator<std::pair<unsigned long const ,CMail *> >,0> >::iterator,std::_Tree<std::_Tmap_traits<unsigned long,CMail *,std::less<unsigned long>,std::allocator<std::pair<unsigned long const ,CMail *> >,0> >::iterator>
_TEXT	ENDS
PUBLIC	?_Mynode@const_iterator@?$list@PAVCMail@@V?$allocator@PAVCMail@@@std@@@std@@QBEPAU_Node@?$_List_nod@PAVCMail@@V?$allocator@PAVCMail@@@std@@@3@XZ ; std::list<CMail *,std::allocator<CMail *> >::const_iterator::_Mynode
; Function compile flags: /Ogty
; File c:\program files\microsoft visual studio .net 2003\vc7\include\list
;	COMDAT ?_Mynode@const_iterator@?$list@PAVCMail@@V?$allocator@PAVCMail@@@std@@@std@@QBEPAU_Node@?$_List_nod@PAVCMail@@V?$allocator@PAVCMail@@@std@@@3@XZ
_TEXT	SEGMENT
?_Mynode@const_iterator@?$list@PAVCMail@@V?$allocator@PAVCMail@@@std@@@std@@QBEPAU_Node@?$_List_nod@PAVCMail@@V?$allocator@PAVCMail@@@std@@@3@XZ PROC NEAR ; std::list<CMail *,std::allocator<CMail *> >::const_iterator::_Mynode, COMDAT
; _this$ = ecx

; 207  : 			return (_Ptr);

  00000	8b 01		 mov	 eax, DWORD PTR [ecx]

; 208  : 			}

  00002	c3		 ret	 0
?_Mynode@const_iterator@?$list@PAVCMail@@V?$allocator@PAVCMail@@@std@@@std@@QBEPAU_Node@?$_List_nod@PAVCMail@@V?$allocator@PAVCMail@@@std@@@3@XZ ENDP ; std::list<CMail *,std::allocator<CMail *> >::const_iterator::_Mynode
_TEXT	ENDS
PUBLIC	?max_size@?$allocator@PAVCMail@@@std@@QBEIXZ	; std::allocator<CMail *>::max_size
; Function compile flags: /Ogty
; File c:\program files\microsoft visual studio .net 2003\vc7\include\xmemory
;	COMDAT ?max_size@?$allocator@PAVCMail@@@std@@QBEIXZ
_TEXT	SEGMENT
?max_size@?$allocator@PAVCMail@@@std@@QBEIXZ PROC NEAR	; std::allocator<CMail *>::max_size, COMDAT
; _this$ = ecx

; 157  : 		_SIZT _Count = (_SIZT)(-1) / sizeof (_Ty);
; 158  : 		return (0 < _Count ? _Count : 1);

  00000	b8 ff ff ff 3f	 mov	 eax, 1073741823		; 3fffffffH

; 159  : 		}

  00005	c3		 ret	 0
?max_size@?$allocator@PAVCMail@@@std@@QBEIXZ ENDP	; std::allocator<CMail *>::max_size
_TEXT	ENDS
PUBLIC	?_Max@?$_Tree@V?$_Tmap_traits@KPAVCMail@@U?$less@K@std@@V?$allocator@U?$pair@$$CBKPAVCMail@@@std@@@3@$0A@@std@@@std@@KAPAU_Node@?$_Tree_nod@V?$_Tmap_traits@KPAVCMail@@U?$less@K@std@@V?$allocator@U?$pair@$$CBKPAVCMail@@@std@@@3@$0A@@std@@@2@PAU342@@Z ; std::_Tree<std::_Tmap_traits<unsigned long,CMail *,std::less<unsigned long>,std::allocator<std::pair<unsigned long const ,CMail *> >,0> >::_Max
; Function compile flags: /Ogty
; File c:\program files\microsoft visual studio .net 2003\vc7\include\xtree
;	COMDAT ?_Max@?$_Tree@V?$_Tmap_traits@KPAVCMail@@U?$less@K@std@@V?$allocator@U?$pair@$$CBKPAVCMail@@@std@@@3@$0A@@std@@@std@@KAPAU_Node@?$_Tree_nod@V?$_Tmap_traits@KPAVCMail@@U?$less@K@std@@V?$allocator@U?$pair@$$CBKPAVCMail@@@std@@@3@$0A@@std@@@2@PAU342@@Z
_TEXT	SEGMENT
__Pnode$ = 8						; size = 4
?_Max@?$_Tree@V?$_Tmap_traits@KPAVCMail@@U?$less@K@std@@V?$allocator@U?$pair@$$CBKPAVCMail@@@std@@@3@$0A@@std@@@std@@KAPAU_Node@?$_Tree_nod@V?$_Tmap_traits@KPAVCMail@@U?$less@K@std@@V?$allocator@U?$pair@$$CBKPAVCMail@@@std@@@3@$0A@@std@@@2@PAU342@@Z PROC NEAR ; std::_Tree<std::_Tmap_traits<unsigned long,CMail *,std::less<unsigned long>,std::allocator<std::pair<unsigned long const ,CMail *> >,0> >::_Max, COMDAT

; 1035 : 		while (!_Isnil(_Right(_Pnode)))

  00000	8b 44 24 04	 mov	 eax, DWORD PTR __Pnode$[esp-4]
  00004	8b 48 08	 mov	 ecx, DWORD PTR [eax+8]
  00007	8a 51 15	 mov	 dl, BYTE PTR [ecx+21]
  0000a	84 d2		 test	 dl, dl
  0000c	75 0e		 jne	 SHORT $L201166
  0000e	8b ff		 npad	 2
$L201165:

; 1036 : 			_Pnode = _Right(_Pnode);

  00010	8b c1		 mov	 eax, ecx
  00012	8b 48 08	 mov	 ecx, DWORD PTR [eax+8]
  00015	8a 51 15	 mov	 dl, BYTE PTR [ecx+21]
  00018	84 d2		 test	 dl, dl
  0001a	74 f4		 je	 SHORT $L201165
$L201166:

; 1037 : 		return (_Pnode);
; 1038 : 		}

  0001c	c3		 ret	 0
?_Max@?$_Tree@V?$_Tmap_traits@KPAVCMail@@U?$less@K@std@@V?$allocator@U?$pair@$$CBKPAVCMail@@@std@@@3@$0A@@std@@@std@@KAPAU_Node@?$_Tree_nod@V?$_Tmap_traits@KPAVCMail@@U?$less@K@std@@V?$allocator@U?$pair@$$CBKPAVCMail@@@std@@@3@$0A@@std@@@2@PAU342@@Z ENDP ; std::_Tree<std::_Tmap_traits<unsigned long,CMail *,std::less<unsigned long>,std::allocator<std::pair<unsigned long const ,CMail *> >,0> >::_Max
_TEXT	ENDS
PUBLIC	?_Min@?$_Tree@V?$_Tmap_traits@KPAVCMail@@U?$less@K@std@@V?$allocator@U?$pair@$$CBKPAVCMail@@@std@@@3@$0A@@std@@@std@@KAPAU_Node@?$_Tree_nod@V?$_Tmap_traits@KPAVCMail@@U?$less@K@std@@V?$allocator@U?$pair@$$CBKPAVCMail@@@std@@@3@$0A@@std@@@2@PAU342@@Z ; std::_Tree<std::_Tmap_traits<unsigned long,CMail *,std::less<unsigned long>,std::allocator<std::pair<unsigned long const ,CMail *> >,0> >::_Min
; Function compile flags: /Ogty
;	COMDAT ?_Min@?$_Tree@V?$_Tmap_traits@KPAVCMail@@U?$less@K@std@@V?$allocator@U?$pair@$$CBKPAVCMail@@@std@@@3@$0A@@std@@@std@@KAPAU_Node@?$_Tree_nod@V?$_Tmap_traits@KPAVCMail@@U?$less@K@std@@V?$allocator@U?$pair@$$CBKPAVCMail@@@std@@@3@$0A@@std@@@2@PAU342@@Z
_TEXT	SEGMENT
__Pnode$ = 8						; size = 4
?_Min@?$_Tree@V?$_Tmap_traits@KPAVCMail@@U?$less@K@std@@V?$allocator@U?$pair@$$CBKPAVCMail@@@std@@@3@$0A@@std@@@std@@KAPAU_Node@?$_Tree_nod@V?$_Tmap_traits@KPAVCMail@@U?$less@K@std@@V?$allocator@U?$pair@$$CBKPAVCMail@@@std@@@3@$0A@@std@@@2@PAU342@@Z PROC NEAR ; std::_Tree<std::_Tmap_traits<unsigned long,CMail *,std::less<unsigned long>,std::allocator<std::pair<unsigned long const ,CMail *> >,0> >::_Min, COMDAT

; 1042 : 		while (!_Isnil(_Left(_Pnode)))

  00000	8b 44 24 04	 mov	 eax, DWORD PTR __Pnode$[esp-4]
  00004	8b 08		 mov	 ecx, DWORD PTR [eax]
  00006	8a 51 15	 mov	 dl, BYTE PTR [ecx+21]
  00009	84 d2		 test	 dl, dl
  0000b	75 0e		 jne	 SHORT $L201170
  0000d	8d 49 00	 npad	 3
$L201169:

; 1043 : 			_Pnode = _Left(_Pnode);

  00010	8b c1		 mov	 eax, ecx
  00012	8b 08		 mov	 ecx, DWORD PTR [eax]
  00014	8a 51 15	 mov	 dl, BYTE PTR [ecx+21]
  00017	84 d2		 test	 dl, dl
  00019	74 f5		 je	 SHORT $L201169
$L201170:

; 1044 : 		return (_Pnode);
; 1045 : 		}

  0001b	c3		 ret	 0
?_Min@?$_Tree@V?$_Tmap_traits@KPAVCMail@@U?$less@K@std@@V?$allocator@U?$pair@$$CBKPAVCMail@@@std@@@3@$0A@@std@@@std@@KAPAU_Node@?$_Tree_nod@V?$_Tmap_traits@KPAVCMail@@U?$less@K@std@@V?$allocator@U?$pair@$$CBKPAVCMail@@@std@@@3@$0A@@std@@@2@PAU342@@Z ENDP ; std::_Tree<std::_Tmap_traits<unsigned long,CMail *,std::less<unsigned long>,std::allocator<std::pair<unsigned long const ,CMail *> >,0> >::_Min
_TEXT	ENDS
PUBLIC	?max_size@?$allocator@U?$pair@$$CBKPAVCMail@@@std@@@std@@QBEIXZ ; std::allocator<std::pair<unsigned long const ,CMail *> >::max_size
; Function compile flags: /Ogty
; File c:\program files\microsoft visual studio .net 2003\vc7\include\xmemory
;	COMDAT ?max_size@?$allocator@U?$pair@$$CBKPAVCMail@@@std@@@std@@QBEIXZ
_TEXT	SEGMENT
?max_size@?$allocator@U?$pair@$$CBKPAVCMail@@@std@@@std@@QBEIXZ PROC NEAR ; std::allocator<std::pair<unsigned long const ,CMail *> >::max_size, COMDAT
; _this$ = ecx

; 157  : 		_SIZT _Count = (_SIZT)(-1) / sizeof (_Ty);
; 158  : 		return (0 < _Count ? _Count : 1);

  00000	b8 ff ff ff 1f	 mov	 eax, 536870911		; 1fffffffH

; 159  : 		}

  00005	c3		 ret	 0
?max_size@?$allocator@U?$pair@$$CBKPAVCMail@@@std@@@std@@QBEIXZ ENDP ; std::allocator<std::pair<unsigned long const ,CMail *> >::max_size
_TEXT	ENDS
PUBLIC	?_Min@?$_Tree@V?$_Tmap_traits@KPAVCMailBox@@U?$less@K@std@@V?$allocator@U?$pair@$$CBKPAVCMailBox@@@std@@@3@$0A@@std@@@std@@KAPAU_Node@?$_Tree_nod@V?$_Tmap_traits@KPAVCMailBox@@U?$less@K@std@@V?$allocator@U?$pair@$$CBKPAVCMailBox@@@std@@@3@$0A@@std@@@2@PAU342@@Z ; std::_Tree<std::_Tmap_traits<unsigned long,CMailBox *,std::less<unsigned long>,std::allocator<std::pair<unsigned long const ,CMailBox *> >,0> >::_Min
; Function compile flags: /Ogty
; File c:\program files\microsoft visual studio .net 2003\vc7\include\xtree
;	COMDAT ?_Min@?$_Tree@V?$_Tmap_traits@KPAVCMailBox@@U?$less@K@std@@V?$allocator@U?$pair@$$CBKPAVCMailBox@@@std@@@3@$0A@@std@@@std@@KAPAU_Node@?$_Tree_nod@V?$_Tmap_traits@KPAVCMailBox@@U?$less@K@std@@V?$allocator@U?$pair@$$CBKPAVCMailBox@@@std@@@3@$0A@@std@@@2@PAU342@@Z
_TEXT	SEGMENT
__Pnode$ = 8						; size = 4
?_Min@?$_Tree@V?$_Tmap_traits@KPAVCMailBox@@U?$less@K@std@@V?$allocator@U?$pair@$$CBKPAVCMailBox@@@std@@@3@$0A@@std@@@std@@KAPAU_Node@?$_Tree_nod@V?$_Tmap_traits@KPAVCMailBox@@U?$less@K@std@@V?$allocator@U?$pair@$$CBKPAVCMailBox@@@std@@@3@$0A@@std@@@2@PAU342@@Z PROC NEAR ; std::_Tree<std::_Tmap_traits<unsigned long,CMailBox *,std::less<unsigned long>,std::allocator<std::pair<unsigned long const ,CMailBox *> >,0> >::_Min, COMDAT

; 1042 : 		while (!_Isnil(_Left(_Pnode)))

  00000	8b 44 24 04	 mov	 eax, DWORD PTR __Pnode$[esp-4]
  00004	8b 08		 mov	 ecx, DWORD PTR [eax]
  00006	8a 51 15	 mov	 dl, BYTE PTR [ecx+21]
  00009	84 d2		 test	 dl, dl
  0000b	75 0e		 jne	 SHORT $L201262
  0000d	8d 49 00	 npad	 3
$L201261:

; 1043 : 			_Pnode = _Left(_Pnode);

  00010	8b c1		 mov	 eax, ecx
  00012	8b 08		 mov	 ecx, DWORD PTR [eax]
  00014	8a 51 15	 mov	 dl, BYTE PTR [ecx+21]
  00017	84 d2		 test	 dl, dl
  00019	74 f5		 je	 SHORT $L201261
$L201262:

; 1044 : 		return (_Pnode);
; 1045 : 		}

  0001b	c3		 ret	 0
?_Min@?$_Tree@V?$_Tmap_traits@KPAVCMailBox@@U?$less@K@std@@V?$allocator@U?$pair@$$CBKPAVCMailBox@@@std@@@3@$0A@@std@@@std@@KAPAU_Node@?$_Tree_nod@V?$_Tmap_traits@KPAVCMailBox@@U?$less@K@std@@V?$allocator@U?$pair@$$CBKPAVCMailBox@@@std@@@3@$0A@@std@@@2@PAU342@@Z ENDP ; std::_Tree<std::_Tmap_traits<unsigned long,CMailBox *,std::less<unsigned long>,std::allocator<std::pair<unsigned long const ,CMailBox *> >,0> >::_Min
_TEXT	ENDS
PUBLIC	?_Root@?$_Tree@V?$_Tmap_traits@KPAVCMailBox@@U?$less@K@std@@V?$allocator@U?$pair@$$CBKPAVCMailBox@@@std@@@3@$0A@@std@@@std@@IBEAAPAU_Node@?$_Tree_nod@V?$_Tmap_traits@KPAVCMailBox@@U?$less@K@std@@V?$allocator@U?$pair@$$CBKPAVCMailBox@@@std@@@3@$0A@@std@@@2@XZ ; std::_Tree<std::_Tmap_traits<unsigned long,CMailBox *,std::less<unsigned long>,std::allocator<std::pair<unsigned long const ,CMailBox *> >,0> >::_Root
; Function compile flags: /Ogty
;	COMDAT ?_Root@?$_Tree@V?$_Tmap_traits@KPAVCMailBox@@U?$less@K@std@@V?$allocator@U?$pair@$$CBKPAVCMailBox@@@std@@@3@$0A@@std@@@std@@IBEAAPAU_Node@?$_Tree_nod@V?$_Tmap_traits@KPAVCMailBox@@U?$less@K@std@@V?$allocator@U?$pair@$$CBKPAVCMailBox@@@std@@@3@$0A@@std@@@2@XZ
_TEXT	SEGMENT
?_Root@?$_Tree@V?$_Tmap_traits@KPAVCMailBox@@U?$less@K@std@@V?$allocator@U?$pair@$$CBKPAVCMailBox@@@std@@@3@$0A@@std@@@std@@IBEAAPAU_Node@?$_Tree_nod@V?$_Tmap_traits@KPAVCMailBox@@U?$less@K@std@@V?$allocator@U?$pair@$$CBKPAVCMailBox@@@std@@@3@$0A@@std@@@2@XZ PROC NEAR ; std::_Tree<std::_Tmap_traits<unsigned long,CMailBox *,std::less<unsigned long>,std::allocator<std::pair<unsigned long const ,CMailBox *> >,0> >::_Root, COMDAT
; _this$ = ecx

; 1064 : 		return (_Parent(_Myhead));

  00000	8b 41 04	 mov	 eax, DWORD PTR [ecx+4]
  00003	83 c0 04	 add	 eax, 4

; 1065 : 		}

  00006	c3		 ret	 0
?_Root@?$_Tree@V?$_Tmap_traits@KPAVCMailBox@@U?$less@K@std@@V?$allocator@U?$pair@$$CBKPAVCMailBox@@@std@@@3@$0A@@std@@@std@@IBEAAPAU_Node@?$_Tree_nod@V?$_Tmap_traits@KPAVCMailBox@@U?$less@K@std@@V?$allocator@U?$pair@$$CBKPAVCMailBox@@@std@@@3@$0A@@std@@@2@XZ ENDP ; std::_Tree<std::_Tmap_traits<unsigned long,CMailBox *,std::less<unsigned long>,std::allocator<std::pair<unsigned long const ,CMailBox *> >,0> >::_Root
_TEXT	ENDS
PUBLIC	?max_size@?$allocator@U?$pair@$$CBKPAVCMailBox@@@std@@@std@@QBEIXZ ; std::allocator<std::pair<unsigned long const ,CMailBox *> >::max_size
; Function compile flags: /Ogty
; File c:\program files\microsoft visual studio .net 2003\vc7\include\xmemory
;	COMDAT ?max_size@?$allocator@U?$pair@$$CBKPAVCMailBox@@@std@@@std@@QBEIXZ
_TEXT	SEGMENT
?max_size@?$allocator@U?$pair@$$CBKPAVCMailBox@@@std@@@std@@QBEIXZ PROC NEAR ; std::allocator<std::pair<unsigned long const ,CMailBox *> >::max_size, COMDAT
; _this$ = ecx

; 157  : 		_SIZT _Count = (_SIZT)(-1) / sizeof (_Ty);
; 158  : 		return (0 < _Count ? _Count : 1);

  00000	b8 ff ff ff 1f	 mov	 eax, 536870911		; 1fffffffH

; 159  : 		}

  00005	c3		 ret	 0
?max_size@?$allocator@U?$pair@$$CBKPAVCMailBox@@@std@@@std@@QBEIXZ ENDP ; std::allocator<std::pair<unsigned long const ,CMailBox *> >::max_size
_TEXT	ENDS
PUBLIC	??Yiterator@?$vector@PAVCMail@@V?$allocator@PAVCMail@@@std@@@std@@QAEAAV012@H@Z ; std::vector<CMail *,std::allocator<CMail *> >::iterator::operator+=
; Function compile flags: /Ogty
; File c:\program files\microsoft visual studio .net 2003\vc7\include\vector
;	COMDAT ??Yiterator@?$vector@PAVCMail@@V?$allocator@PAVCMail@@@std@@@std@@QAEAAV012@H@Z
_TEXT	SEGMENT
__Off$ = 8						; size = 4
??Yiterator@?$vector@PAVCMail@@V?$allocator@PAVCMail@@@std@@@std@@QAEAAV012@H@Z PROC NEAR ; std::vector<CMail *,std::allocator<CMail *> >::iterator::operator+=, COMDAT
; _this$ = ecx

; 255  : 			{	// increment by integer

  00000	8b c1		 mov	 eax, ecx

; 256  : 			this->_Myptr += _Off;

  00002	8b 4c 24 04	 mov	 ecx, DWORD PTR __Off$[esp-4]
  00006	8d 14 8d 00 00
	00 00		 lea	 edx, DWORD PTR [ecx*4]
  0000d	01 10		 add	 DWORD PTR [eax], edx

; 257  : 			return (*this);
; 258  : 			}

  0000f	c2 04 00	 ret	 4
??Yiterator@?$vector@PAVCMail@@V?$allocator@PAVCMail@@@std@@@std@@QAEAAV012@H@Z ENDP ; std::vector<CMail *,std::allocator<CMail *> >::iterator::operator+=
_TEXT	ENDS
PUBLIC	??Gconst_iterator@?$vector@PAVCMail@@V?$allocator@PAVCMail@@@std@@@std@@QBEHABV012@@Z ; std::vector<CMail *,std::allocator<CMail *> >::const_iterator::operator-
; Function compile flags: /Ogty
;	COMDAT ??Gconst_iterator@?$vector@PAVCMail@@V?$allocator@PAVCMail@@@std@@@std@@QBEHABV012@@Z
_TEXT	SEGMENT
__Right$ = 8						; size = 4
??Gconst_iterator@?$vector@PAVCMail@@V?$allocator@PAVCMail@@@std@@@std@@QBEHABV012@@Z PROC NEAR ; std::vector<CMail *,std::allocator<CMail *> >::const_iterator::operator-, COMDAT
; _this$ = ecx

; 141  : 
; 142  : 
; 143  : 			return (_Myptr - _Right._Myptr);

  00000	8b 01		 mov	 eax, DWORD PTR [ecx]
  00002	8b 4c 24 04	 mov	 ecx, DWORD PTR __Right$[esp-4]
  00006	2b 01		 sub	 eax, DWORD PTR [ecx]
  00008	c1 f8 02	 sar	 eax, 2

; 144  : 			}

  0000b	c2 04 00	 ret	 4
??Gconst_iterator@?$vector@PAVCMail@@V?$allocator@PAVCMail@@@std@@@std@@QBEHABV012@@Z ENDP ; std::vector<CMail *,std::allocator<CMail *> >::const_iterator::operator-
_TEXT	ENDS
PUBLIC	?_Dec@const_iterator@?$_Tree@V?$_Tmap_traits@KPAVCMail@@U?$less@K@std@@V?$allocator@U?$pair@$$CBKPAVCMail@@@std@@@3@$0A@@std@@@std@@QAEXXZ ; std::_Tree<std::_Tmap_traits<unsigned long,CMail *,std::less<unsigned long>,std::allocator<std::pair<unsigned long const ,CMail *> >,0> >::const_iterator::_Dec
; Function compile flags: /Ogty
; File c:\program files\microsoft visual studio .net 2003\vc7\include\xtree
;	COMDAT ?_Dec@const_iterator@?$_Tree@V?$_Tmap_traits@KPAVCMail@@U?$less@K@std@@V?$allocator@U?$pair@$$CBKPAVCMail@@@std@@@3@$0A@@std@@@std@@QAEXXZ
_TEXT	SEGMENT
?_Dec@const_iterator@?$_Tree@V?$_Tmap_traits@KPAVCMail@@U?$less@K@std@@V?$allocator@U?$pair@$$CBKPAVCMail@@@std@@@3@$0A@@std@@@std@@QAEXXZ PROC NEAR ; std::_Tree<std::_Tmap_traits<unsigned long,CMail *,std::less<unsigned long>,std::allocator<std::pair<unsigned long const ,CMail *> >,0> >::const_iterator::_Dec, COMDAT
; _this$ = ecx

; 251  : 			if (_Isnil(_Ptr))

  00000	8b 01		 mov	 eax, DWORD PTR [ecx]
  00002	8a 50 15	 mov	 dl, BYTE PTR [eax+21]
  00005	84 d2		 test	 dl, dl
  00007	74 06		 je	 SHORT $L201313

; 252  : 				_Ptr = _Right(_Ptr);	// end() ==> rightmost

  00009	8b 40 08	 mov	 eax, DWORD PTR [eax+8]
  0000c	89 01		 mov	 DWORD PTR [ecx], eax

; 263  : 				}
; 264  : 			}

  0000e	c3		 ret	 0
$L201313:

; 253  : 			else if (!_Isnil(_Left(_Ptr)))

  0000f	8b 10		 mov	 edx, DWORD PTR [eax]
  00011	53		 push	 ebx
  00012	8a 5a 15	 mov	 bl, BYTE PTR [edx+21]
  00015	84 db		 test	 bl, bl
  00017	75 1a		 jne	 SHORT $L202832

; 254  : 				_Ptr = _Max(_Left(_Ptr));	// ==> largest of left subtree

  00019	8b 42 08	 mov	 eax, DWORD PTR [edx+8]
  0001c	8a 58 15	 mov	 bl, BYTE PTR [eax+21]
  0001f	84 db		 test	 bl, bl
  00021	75 0c		 jne	 SHORT $L202817
$L202816:
  00023	8b d0		 mov	 edx, eax
  00025	8b 42 08	 mov	 eax, DWORD PTR [edx+8]
  00028	8a 58 15	 mov	 bl, BYTE PTR [eax+21]
  0002b	84 db		 test	 bl, bl
  0002d	74 f4		 je	 SHORT $L202816
$L202817:
  0002f	89 11		 mov	 DWORD PTR [ecx], edx
  00031	5b		 pop	 ebx

; 263  : 				}
; 264  : 			}

  00032	c3		 ret	 0
$L202832:

; 255  : 			else
; 256  : 				{	// climb looking for left subtree
; 257  : 				_Nodeptr _Pnode;
; 258  : 				while (!_Isnil(_Pnode = _Parent(_Ptr))
; 259  : 					&& _Ptr == _Left(_Pnode))

  00033	8b 40 04	 mov	 eax, DWORD PTR [eax+4]
  00036	8a 50 15	 mov	 dl, BYTE PTR [eax+21]
  00039	84 d2		 test	 dl, dl
  0003b	75 1e		 jne	 SHORT $L202835
  0003d	8d 49 00	 npad	 3
$L201319:
  00040	8b 11		 mov	 edx, DWORD PTR [ecx]
  00042	3b 10		 cmp	 edx, DWORD PTR [eax]
  00044	75 0c		 jne	 SHORT $L201320

; 260  : 					_Ptr = _Pnode;	// ==> parent while left subtree

  00046	89 01		 mov	 DWORD PTR [ecx], eax
  00048	8b 40 04	 mov	 eax, DWORD PTR [eax+4]
  0004b	8a 50 15	 mov	 dl, BYTE PTR [eax+21]
  0004e	84 d2		 test	 dl, dl
  00050	74 ee		 je	 SHORT $L201319
$L201320:

; 261  : 				if (!_Isnil(_Pnode))

  00052	8a 50 15	 mov	 dl, BYTE PTR [eax+21]
  00055	84 d2		 test	 dl, dl
  00057	75 02		 jne	 SHORT $L202835

; 262  : 					_Ptr = _Pnode;	// ==> parent if not head

  00059	89 01		 mov	 DWORD PTR [ecx], eax
$L202835:
  0005b	5b		 pop	 ebx

; 263  : 				}
; 264  : 			}

  0005c	c3		 ret	 0
?_Dec@const_iterator@?$_Tree@V?$_Tmap_traits@KPAVCMail@@U?$less@K@std@@V?$allocator@U?$pair@$$CBKPAVCMail@@@std@@@3@$0A@@std@@@std@@QAEXXZ ENDP ; std::_Tree<std::_Tmap_traits<unsigned long,CMail *,std::less<unsigned long>,std::allocator<std::pair<unsigned long const ,CMail *> >,0> >::const_iterator::_Dec
_TEXT	ENDS
PUBLIC	?max_size@?$list@PAVCMail@@V?$allocator@PAVCMail@@@std@@@std@@QBEIXZ ; std::list<CMail *,std::allocator<CMail *> >::max_size
; Function compile flags: /Ogty
; File c:\program files\microsoft visual studio .net 2003\vc7\include\list
;	COMDAT ?max_size@?$list@PAVCMail@@V?$allocator@PAVCMail@@@std@@@std@@QBEIXZ
_TEXT	SEGMENT
?max_size@?$list@PAVCMail@@V?$allocator@PAVCMail@@@std@@@std@@QBEIXZ PROC NEAR ; std::list<CMail *,std::allocator<CMail *> >::max_size, COMDAT
; _this$ = ecx

; 436  : 		return (this->_Alval.max_size());

  00000	b8 ff ff ff 3f	 mov	 eax, 1073741823		; 3fffffffH

; 437  : 		}

  00005	c3		 ret	 0
?max_size@?$list@PAVCMail@@V?$allocator@PAVCMail@@@std@@@std@@QBEIXZ ENDP ; std::list<CMail *,std::allocator<CMail *> >::max_size
_TEXT	ENDS
PUBLIC	??0const_iterator@?$list@PAVCMail@@V?$allocator@PAVCMail@@@std@@@std@@QAE@PAU_Node@?$_List_nod@PAVCMail@@V?$allocator@PAVCMail@@@std@@@2@@Z ; std::list<CMail *,std::allocator<CMail *> >::const_iterator::const_iterator
; Function compile flags: /Ogty
;	COMDAT ??0const_iterator@?$list@PAVCMail@@V?$allocator@PAVCMail@@@std@@@std@@QAE@PAU_Node@?$_List_nod@PAVCMail@@V?$allocator@PAVCMail@@@std@@@2@@Z
_TEXT	SEGMENT
__Pnode$ = 8						; size = 4
??0const_iterator@?$list@PAVCMail@@V?$allocator@PAVCMail@@@std@@@std@@QAE@PAU_Node@?$_List_nod@PAVCMail@@V?$allocator@PAVCMail@@@std@@@2@@Z PROC NEAR ; std::list<CMail *,std::allocator<CMail *> >::const_iterator::const_iterator, COMDAT
; _this$ = ecx

; 156  : 			{	// construct with node pointer _Pnode

  00000	8b c1		 mov	 eax, ecx
  00002	8b 4c 24 04	 mov	 ecx, DWORD PTR __Pnode$[esp-4]
  00006	89 08		 mov	 DWORD PTR [eax], ecx

; 157  : 			}

  00008	c2 04 00	 ret	 4
??0const_iterator@?$list@PAVCMail@@V?$allocator@PAVCMail@@@std@@@std@@QAE@PAU_Node@?$_List_nod@PAVCMail@@V?$allocator@PAVCMail@@@std@@@2@@Z ENDP ; std::list<CMail *,std::allocator<CMail *> >::const_iterator::const_iterator
_TEXT	ENDS
PUBLIC	??0_Node@?$_Tree_nod@V?$_Tmap_traits@KPAVCMail@@U?$less@K@std@@V?$allocator@U?$pair@$$CBKPAVCMail@@@std@@@3@$0A@@std@@@std@@QAE@PAU012@00ABU?$pair@$$CBKPAVCMail@@@2@D@Z ; std::_Tree_nod<std::_Tmap_traits<unsigned long,CMail *,std::less<unsigned long>,std::allocator<std::pair<unsigned long const ,CMail *> >,0> >::_Node::_Node
; Function compile flags: /Ogty
; File c:\program files\microsoft visual studio .net 2003\vc7\include\xtree
;	COMDAT ??0_Node@?$_Tree_nod@V?$_Tmap_traits@KPAVCMail@@U?$less@K@std@@V?$allocator@U?$pair@$$CBKPAVCMail@@@std@@@3@$0A@@std@@@std@@QAE@PAU012@00ABU?$pair@$$CBKPAVCMail@@@2@D@Z
_TEXT	SEGMENT
__Larg$ = 8						; size = 4
__Parg$ = 12						; size = 4
__Rarg$ = 16						; size = 4
__Val$ = 20						; size = 4
__Carg$ = 24						; size = 1
??0_Node@?$_Tree_nod@V?$_Tmap_traits@KPAVCMail@@U?$less@K@std@@V?$allocator@U?$pair@$$CBKPAVCMail@@@std@@@3@$0A@@std@@@std@@QAE@PAU012@00ABU?$pair@$$CBKPAVCMail@@@2@D@Z PROC NEAR ; std::_Tree_nod<std::_Tmap_traits<unsigned long,CMail *,std::less<unsigned long>,std::allocator<std::pair<unsigned long const ,CMail *> >,0> >::_Node::_Node, COMDAT
; _this$ = ecx

; 40   : 			{	// construct a node with value

  00000	8b 54 24 08	 mov	 edx, DWORD PTR __Parg$[esp-4]
  00004	8b c1		 mov	 eax, ecx
  00006	8b 4c 24 04	 mov	 ecx, DWORD PTR __Larg$[esp-4]
  0000a	89 08		 mov	 DWORD PTR [eax], ecx
  0000c	8b 4c 24 0c	 mov	 ecx, DWORD PTR __Rarg$[esp-4]
  00010	89 48 08	 mov	 DWORD PTR [eax+8], ecx
  00013	8b 4c 24 10	 mov	 ecx, DWORD PTR __Val$[esp-4]
  00017	89 50 04	 mov	 DWORD PTR [eax+4], edx
  0001a	8b 11		 mov	 edx, DWORD PTR [ecx]
  0001c	89 50 0c	 mov	 DWORD PTR [eax+12], edx
  0001f	8b 49 04	 mov	 ecx, DWORD PTR [ecx+4]
  00022	8a 54 24 14	 mov	 dl, BYTE PTR __Carg$[esp-4]
  00026	89 48 10	 mov	 DWORD PTR [eax+16], ecx
  00029	88 50 14	 mov	 BYTE PTR [eax+20], dl
  0002c	c6 40 15 00	 mov	 BYTE PTR [eax+21], 0

; 41   : 			}

  00030	c2 14 00	 ret	 20			; 00000014H
??0_Node@?$_Tree_nod@V?$_Tmap_traits@KPAVCMail@@U?$less@K@std@@V?$allocator@U?$pair@$$CBKPAVCMail@@@std@@@3@$0A@@std@@@std@@QAE@PAU012@00ABU?$pair@$$CBKPAVCMail@@@2@D@Z ENDP ; std::_Tree_nod<std::_Tmap_traits<unsigned long,CMail *,std::less<unsigned long>,std::allocator<std::pair<unsigned long const ,CMail *> >,0> >::_Node::_Node
_TEXT	ENDS
PUBLIC	??0_Node@?$_Tree_nod@V?$_Tmap_traits@KPAVCMailBox@@U?$less@K@std@@V?$allocator@U?$pair@$$CBKPAVCMailBox@@@std@@@3@$0A@@std@@@std@@QAE@PAU012@00ABU?$pair@$$CBKPAVCMailBox@@@2@D@Z ; std::_Tree_nod<std::_Tmap_traits<unsigned long,CMailBox *,std::less<unsigned long>,std::allocator<std::pair<unsigned long const ,CMailBox *> >,0> >::_Node::_Node
; Function compile flags: /Ogty
;	COMDAT ??0_Node@?$_Tree_nod@V?$_Tmap_traits@KPAVCMailBox@@U?$less@K@std@@V?$allocator@U?$pair@$$CBKPAVCMailBox@@@std@@@3@$0A@@std@@@std@@QAE@PAU012@00ABU?$pair@$$CBKPAVCMailBox@@@2@D@Z
_TEXT	SEGMENT
__Larg$ = 8						; size = 4
__Parg$ = 12						; size = 4
__Rarg$ = 16						; size = 4
__Val$ = 20						; size = 4
__Carg$ = 24						; size = 1
??0_Node@?$_Tree_nod@V?$_Tmap_traits@KPAVCMailBox@@U?$less@K@std@@V?$allocator@U?$pair@$$CBKPAVCMailBox@@@std@@@3@$0A@@std@@@std@@QAE@PAU012@00ABU?$pair@$$CBKPAVCMailBox@@@2@D@Z PROC NEAR ; std::_Tree_nod<std::_Tmap_traits<unsigned long,CMailBox *,std::less<unsigned long>,std::allocator<std::pair<unsigned long const ,CMailBox *> >,0> >::_Node::_Node, COMDAT
; _this$ = ecx

; 40   : 			{	// construct a node with value

  00000	8b 54 24 08	 mov	 edx, DWORD PTR __Parg$[esp-4]
  00004	8b c1		 mov	 eax, ecx
  00006	8b 4c 24 04	 mov	 ecx, DWORD PTR __Larg$[esp-4]
  0000a	89 08		 mov	 DWORD PTR [eax], ecx
  0000c	8b 4c 24 0c	 mov	 ecx, DWORD PTR __Rarg$[esp-4]
  00010	89 48 08	 mov	 DWORD PTR [eax+8], ecx
  00013	8b 4c 24 10	 mov	 ecx, DWORD PTR __Val$[esp-4]
  00017	89 50 04	 mov	 DWORD PTR [eax+4], edx
  0001a	8b 11		 mov	 edx, DWORD PTR [ecx]
  0001c	89 50 0c	 mov	 DWORD PTR [eax+12], edx
  0001f	8b 49 04	 mov	 ecx, DWORD PTR [ecx+4]
  00022	8a 54 24 14	 mov	 dl, BYTE PTR __Carg$[esp-4]
  00026	89 48 10	 mov	 DWORD PTR [eax+16], ecx
  00029	88 50 14	 mov	 BYTE PTR [eax+20], dl
  0002c	c6 40 15 00	 mov	 BYTE PTR [eax+21], 0

; 41   : 			}

  00030	c2 14 00	 ret	 20			; 00000014H
??0_Node@?$_Tree_nod@V?$_Tmap_traits@KPAVCMailBox@@U?$less@K@std@@V?$allocator@U?$pair@$$CBKPAVCMailBox@@@std@@@3@$0A@@std@@@std@@QAE@PAU012@00ABU?$pair@$$CBKPAVCMailBox@@@2@D@Z ENDP ; std::_Tree_nod<std::_Tmap_traits<unsigned long,CMailBox *,std::less<unsigned long>,std::allocator<std::pair<unsigned long const ,CMailBox *> >,0> >::_Node::_Node
_TEXT	ENDS
PUBLIC	??0_Node@?$_List_nod@PAVCMail@@V?$allocator@PAVCMail@@@std@@@std@@QAE@PAU012@0ABQAVCMail@@@Z ; std::_List_nod<CMail *,std::allocator<CMail *> >::_Node::_Node
; Function compile flags: /Ogty
; File c:\program files\microsoft visual studio .net 2003\vc7\include\list
;	COMDAT ??0_Node@?$_List_nod@PAVCMail@@V?$allocator@PAVCMail@@@std@@@std@@QAE@PAU012@0ABQAVCMail@@@Z
_TEXT	SEGMENT
__Nextarg$ = 8						; size = 4
__Prevarg$ = 12						; size = 4
__Myvalarg$ = 16					; size = 4
??0_Node@?$_List_nod@PAVCMail@@V?$allocator@PAVCMail@@@std@@@std@@QAE@PAU012@0ABQAVCMail@@@Z PROC NEAR ; std::_List_nod<CMail *,std::allocator<CMail *> >::_Node::_Node, COMDAT
; _this$ = ecx

; 34   : 			{	// construct a node with value

  00000	8b 54 24 08	 mov	 edx, DWORD PTR __Prevarg$[esp-4]
  00004	8b c1		 mov	 eax, ecx
  00006	8b 4c 24 04	 mov	 ecx, DWORD PTR __Nextarg$[esp-4]
  0000a	89 08		 mov	 DWORD PTR [eax], ecx
  0000c	8b 4c 24 0c	 mov	 ecx, DWORD PTR __Myvalarg$[esp-4]
  00010	89 50 04	 mov	 DWORD PTR [eax+4], edx
  00013	8b 11		 mov	 edx, DWORD PTR [ecx]
  00015	89 50 08	 mov	 DWORD PTR [eax+8], edx

; 35   : 			}

  00018	c2 0c 00	 ret	 12			; 0000000cH
??0_Node@?$_List_nod@PAVCMail@@V?$allocator@PAVCMail@@@std@@@std@@QAE@PAU012@0ABQAVCMail@@@Z ENDP ; std::_List_nod<CMail *,std::allocator<CMail *> >::_Node::_Node
_TEXT	ENDS
PUBLIC	?_Root@?$_Tree@V?$_Tmap_traits@KPAVCMail@@U?$less@K@std@@V?$allocator@U?$pair@$$CBKPAVCMail@@@std@@@3@$0A@@std@@@std@@IBEAAPAU_Node@?$_Tree_nod@V?$_Tmap_traits@KPAVCMail@@U?$less@K@std@@V?$allocator@U?$pair@$$CBKPAVCMail@@@std@@@3@$0A@@std@@@2@XZ ; std::_Tree<std::_Tmap_traits<unsigned long,CMail *,std::less<unsigned long>,std::allocator<std::pair<unsigned long const ,CMail *> >,0> >::_Root
; Function compile flags: /Ogty
; File c:\program files\microsoft visual studio .net 2003\vc7\include\xtree
;	COMDAT ?_Root@?$_Tree@V?$_Tmap_traits@KPAVCMail@@U?$less@K@std@@V?$allocator@U?$pair@$$CBKPAVCMail@@@std@@@3@$0A@@std@@@std@@IBEAAPAU_Node@?$_Tree_nod@V?$_Tmap_traits@KPAVCMail@@U?$less@K@std@@V?$allocator@U?$pair@$$CBKPAVCMail@@@std@@@3@$0A@@std@@@2@XZ
_TEXT	SEGMENT
?_Root@?$_Tree@V?$_Tmap_traits@KPAVCMail@@U?$less@K@std@@V?$allocator@U?$pair@$$CBKPAVCMail@@@std@@@3@$0A@@std@@@std@@IBEAAPAU_Node@?$_Tree_nod@V?$_Tmap_traits@KPAVCMail@@U?$less@K@std@@V?$allocator@U?$pair@$$CBKPAVCMail@@@std@@@3@$0A@@std@@@2@XZ PROC NEAR ; std::_Tree<std::_Tmap_traits<unsigned long,CMail *,std::less<unsigned long>,std::allocator<std::pair<unsigned long const ,CMail *> >,0> >::_Root, COMDAT
; _this$ = ecx

; 1064 : 		return (_Parent(_Myhead));

  00000	8b 41 04	 mov	 eax, DWORD PTR [ecx+4]
  00003	83 c0 04	 add	 eax, 4

; 1065 : 		}

  00006	c3		 ret	 0
?_Root@?$_Tree@V?$_Tmap_traits@KPAVCMail@@U?$less@K@std@@V?$allocator@U?$pair@$$CBKPAVCMail@@@std@@@3@$0A@@std@@@std@@IBEAAPAU_Node@?$_Tree_nod@V?$_Tmap_traits@KPAVCMail@@U?$less@K@std@@V?$allocator@U?$pair@$$CBKPAVCMail@@@std@@@3@$0A@@std@@@2@XZ ENDP ; std::_Tree<std::_Tmap_traits<unsigned long,CMail *,std::less<unsigned long>,std::allocator<std::pair<unsigned long const ,CMail *> >,0> >::_Root
_TEXT	ENDS
PUBLIC	?_Max@?$_Tree@V?$_Tmap_traits@KPAVCMailBox@@U?$less@K@std@@V?$allocator@U?$pair@$$CBKPAVCMailBox@@@std@@@3@$0A@@std@@@std@@KAPAU_Node@?$_Tree_nod@V?$_Tmap_traits@KPAVCMailBox@@U?$less@K@std@@V?$allocator@U?$pair@$$CBKPAVCMailBox@@@std@@@3@$0A@@std@@@2@PAU342@@Z ; std::_Tree<std::_Tmap_traits<unsigned long,CMailBox *,std::less<unsigned long>,std::allocator<std::pair<unsigned long const ,CMailBox *> >,0> >::_Max
; Function compile flags: /Ogty
;	COMDAT ?_Max@?$_Tree@V?$_Tmap_traits@KPAVCMailBox@@U?$less@K@std@@V?$allocator@U?$pair@$$CBKPAVCMailBox@@@std@@@3@$0A@@std@@@std@@KAPAU_Node@?$_Tree_nod@V?$_Tmap_traits@KPAVCMailBox@@U?$less@K@std@@V?$allocator@U?$pair@$$CBKPAVCMailBox@@@std@@@3@$0A@@std@@@2@PAU342@@Z
_TEXT	SEGMENT
__Pnode$ = 8						; size = 4
?_Max@?$_Tree@V?$_Tmap_traits@KPAVCMailBox@@U?$less@K@std@@V?$allocator@U?$pair@$$CBKPAVCMailBox@@@std@@@3@$0A@@std@@@std@@KAPAU_Node@?$_Tree_nod@V?$_Tmap_traits@KPAVCMailBox@@U?$less@K@std@@V?$allocator@U?$pair@$$CBKPAVCMailBox@@@std@@@3@$0A@@std@@@2@PAU342@@Z PROC NEAR ; std::_Tree<std::_Tmap_traits<unsigned long,CMailBox *,std::less<unsigned long>,std::allocator<std::pair<unsigned long const ,CMailBox *> >,0> >::_Max, COMDAT

; 1035 : 		while (!_Isnil(_Right(_Pnode)))

  00000	8b 44 24 04	 mov	 eax, DWORD PTR __Pnode$[esp-4]
  00004	8b 48 08	 mov	 ecx, DWORD PTR [eax+8]
  00007	8a 51 15	 mov	 dl, BYTE PTR [ecx+21]
  0000a	84 d2		 test	 dl, dl
  0000c	75 0e		 jne	 SHORT $L201378
  0000e	8b ff		 npad	 2
$L201377:

; 1036 : 			_Pnode = _Right(_Pnode);

  00010	8b c1		 mov	 eax, ecx
  00012	8b 48 08	 mov	 ecx, DWORD PTR [eax+8]
  00015	8a 51 15	 mov	 dl, BYTE PTR [ecx+21]
  00018	84 d2		 test	 dl, dl
  0001a	74 f4		 je	 SHORT $L201377
$L201378:

; 1037 : 		return (_Pnode);
; 1038 : 		}

  0001c	c3		 ret	 0
?_Max@?$_Tree@V?$_Tmap_traits@KPAVCMailBox@@U?$less@K@std@@V?$allocator@U?$pair@$$CBKPAVCMailBox@@@std@@@3@$0A@@std@@@std@@KAPAU_Node@?$_Tree_nod@V?$_Tmap_traits@KPAVCMailBox@@U?$less@K@std@@V?$allocator@U?$pair@$$CBKPAVCMailBox@@@std@@@3@$0A@@std@@@2@PAU342@@Z ENDP ; std::_Tree<std::_Tmap_traits<unsigned long,CMailBox *,std::less<unsigned long>,std::allocator<std::pair<unsigned long const ,CMailBox *> >,0> >::_Max
_TEXT	ENDS
PUBLIC	??0?$_Tmap_traits@KPAVCMail@@U?$less@K@std@@V?$allocator@U?$pair@$$CBKPAVCMail@@@std@@@3@$0A@@std@@QAE@U?$less@K@1@@Z ; std::_Tmap_traits<unsigned long,CMail *,std::less<unsigned long>,std::allocator<std::pair<unsigned long const ,CMail *> >,0>::_Tmap_traits<unsigned long,CMail *,std::less<unsigned long>,std::allocator<std::pair<unsigned long const ,CMail *> >,0>
; Function compile flags: /Ogty
; File c:\program files\microsoft visual studio .net 2003\vc7\include\map
;	COMDAT ??0?$_Tmap_traits@KPAVCMail@@U?$less@K@std@@V?$allocator@U?$pair@$$CBKPAVCMail@@@std@@@3@$0A@@std@@QAE@U?$less@K@1@@Z
_TEXT	SEGMENT
__Parg$ = 8						; size = 1
??0?$_Tmap_traits@KPAVCMail@@U?$less@K@std@@V?$allocator@U?$pair@$$CBKPAVCMail@@@std@@@3@$0A@@std@@QAE@U?$less@K@1@@Z PROC NEAR ; std::_Tmap_traits<unsigned long,CMail *,std::less<unsigned long>,std::allocator<std::pair<unsigned long const ,CMail *> >,0>::_Tmap_traits<unsigned long,CMail *,std::less<unsigned long>,std::allocator<std::pair<unsigned long const ,CMail *> >,0>, COMDAT
; _this$ = ecx

; 38   : 		{	// construct with specified comparator

  00000	8b c1		 mov	 eax, ecx

; 39   : 		}

  00002	c2 04 00	 ret	 4
??0?$_Tmap_traits@KPAVCMail@@U?$less@K@std@@V?$allocator@U?$pair@$$CBKPAVCMail@@@std@@@3@$0A@@std@@QAE@U?$less@K@1@@Z ENDP ; std::_Tmap_traits<unsigned long,CMail *,std::less<unsigned long>,std::allocator<std::pair<unsigned long const ,CMail *> >,0>::_Tmap_traits<unsigned long,CMail *,std::less<unsigned long>,std::allocator<std::pair<unsigned long const ,CMail *> >,0>
_TEXT	ENDS
PUBLIC	??0?$_Tmap_traits@KPAVCMailBox@@U?$less@K@std@@V?$allocator@U?$pair@$$CBKPAVCMailBox@@@std@@@3@$0A@@std@@QAE@U?$less@K@1@@Z ; std::_Tmap_traits<unsigned long,CMailBox *,std::less<unsigned long>,std::allocator<std::pair<unsigned long const ,CMailBox *> >,0>::_Tmap_traits<unsigned long,CMailBox *,std::less<unsigned long>,std::allocator<std::pair<unsigned long const ,CMailBox *> >,0>
; Function compile flags: /Ogty
;	COMDAT ??0?$_Tmap_traits@KPAVCMailBox@@U?$less@K@std@@V?$allocator@U?$pair@$$CBKPAVCMailBox@@@std@@@3@$0A@@std@@QAE@U?$less@K@1@@Z
_TEXT	SEGMENT
__Parg$ = 8						; size = 1
??0?$_Tmap_traits@KPAVCMailBox@@U?$less@K@std@@V?$allocator@U?$pair@$$CBKPAVCMailBox@@@std@@@3@$0A@@std@@QAE@U?$less@K@1@@Z PROC NEAR ; std::_Tmap_traits<unsigned long,CMailBox *,std::less<unsigned long>,std::allocator<std::pair<unsigned long const ,CMailBox *> >,0>::_Tmap_traits<unsigned long,CMailBox *,std::less<unsigned long>,std::allocator<std::pair<unsigned long const ,CMailBox *> >,0>, COMDAT
; _this$ = ecx

; 38   : 		{	// construct with specified comparator

  00000	8b c1		 mov	 eax, ecx

; 39   : 		}

  00002	c2 04 00	 ret	 4
??0?$_Tmap_traits@KPAVCMailBox@@U?$less@K@std@@V?$allocator@U?$pair@$$CBKPAVCMailBox@@@std@@@3@$0A@@std@@QAE@U?$less@K@1@@Z ENDP ; std::_Tmap_traits<unsigned long,CMailBox *,std::less<unsigned long>,std::allocator<std::pair<unsigned long const ,CMailBox *> >,0>::_Tmap_traits<unsigned long,CMailBox *,std::less<unsigned long>,std::allocator<std::pair<unsigned long const ,CMailBox *> >,0>
_TEXT	ENDS
PUBLIC	??$_Destroy@U_Node@?$_List_nod@PAVCMail@@V?$allocator@PAVCMail@@@std@@@std@@@std@@YAXPAU_Node@?$_List_nod@PAVCMail@@V?$allocator@PAVCMail@@@std@@@0@@Z ; std::_Destroy<std::_List_nod<CMail *,std::allocator<CMail *> >::_Node>
; Function compile flags: /Ogty
; File c:\program files\microsoft visual studio .net 2003\vc7\include\xmemory
;	COMDAT ??$_Destroy@U_Node@?$_List_nod@PAVCMail@@V?$allocator@PAVCMail@@@std@@@std@@@std@@YAXPAU_Node@?$_List_nod@PAVCMail@@V?$allocator@PAVCMail@@@std@@@0@@Z
_TEXT	SEGMENT
__Ptr$ = 8						; size = 4
??$_Destroy@U_Node@?$_List_nod@PAVCMail@@V?$allocator@PAVCMail@@@std@@@std@@@std@@YAXPAU_Node@?$_List_nod@PAVCMail@@V?$allocator@PAVCMail@@@std@@@0@@Z PROC NEAR ; std::_Destroy<std::_List_nod<CMail *,std::allocator<CMail *> >::_Node>, COMDAT

; 49   : 	_DESTRUCTOR(_Ty, _Ptr);
; 50   : 	}

  00000	c3		 ret	 0
??$_Destroy@U_Node@?$_List_nod@PAVCMail@@V?$allocator@PAVCMail@@@std@@@std@@@std@@YAXPAU_Node@?$_List_nod@PAVCMail@@V?$allocator@PAVCMail@@@std@@@0@@Z ENDP ; std::_Destroy<std::_List_nod<CMail *,std::allocator<CMail *> >::_Node>
_TEXT	ENDS
PUBLIC	??$fill@PAPAVCMail@@PAV1@@std@@YAXPAPAVCMail@@0ABQAV1@@Z ; std::fill<CMail * *,CMail *>
; Function compile flags: /Ogty
; File c:\program files\microsoft visual studio .net 2003\vc7\include\xutility
;	COMDAT ??$fill@PAPAVCMail@@PAV1@@std@@YAXPAPAVCMail@@0ABQAV1@@Z
_TEXT	SEGMENT
__First$ = 8						; size = 4
__Last$ = 12						; size = 4
__Val$ = 16						; size = 4
??$fill@PAPAVCMail@@PAV1@@std@@YAXPAPAVCMail@@0ABQAV1@@Z PROC NEAR ; std::fill<CMail * *,CMail *>, COMDAT

; 1135 : 	for (; _First != _Last; ++_First)

  00000	8b 44 24 04	 mov	 eax, DWORD PTR __First$[esp-4]
  00004	8b 4c 24 08	 mov	 ecx, DWORD PTR __Last$[esp-4]
  00008	3b c1		 cmp	 eax, ecx
  0000a	74 11		 je	 SHORT $L201704
  0000c	8b 54 24 0c	 mov	 edx, DWORD PTR __Val$[esp-4]
  00010	56		 push	 esi
$L201702:

; 1136 : 		*_First = _Val;

  00011	8b 32		 mov	 esi, DWORD PTR [edx]
  00013	89 30		 mov	 DWORD PTR [eax], esi
  00015	83 c0 04	 add	 eax, 4
  00018	3b c1		 cmp	 eax, ecx
  0001a	75 f5		 jne	 SHORT $L201702
  0001c	5e		 pop	 esi
$L201704:

; 1137 : 	}

  0001d	c3		 ret	 0
??$fill@PAPAVCMail@@PAV1@@std@@YAXPAPAVCMail@@0ABQAV1@@Z ENDP ; std::fill<CMail * *,CMail *>
_TEXT	ENDS
PUBLIC	??$_Allocate@PAVCMail@@@std@@YAPAPAVCMail@@IPAPAV1@@Z ; std::_Allocate<CMail *>
EXTRN	??2@YAPAXI@Z:NEAR				; operator new
; Function compile flags: /Ogty
; File c:\program files\microsoft visual studio .net 2003\vc7\include\xmemory
;	COMDAT ??$_Allocate@PAVCMail@@@std@@YAPAPAVCMail@@IPAPAV1@@Z
_TEXT	SEGMENT
__Count$ = 8						; size = 4
___formal$ = 12						; size = 4
??$_Allocate@PAVCMail@@@std@@YAPAPAVCMail@@IPAPAV1@@Z PROC NEAR ; std::_Allocate<CMail *>, COMDAT

; 34   : 	return ((_Ty _FARQ *)operator new(_Count * sizeof (_Ty)));

  00000	8b 44 24 04	 mov	 eax, DWORD PTR __Count$[esp-4]
  00004	8d 0c 85 00 00
	00 00		 lea	 ecx, DWORD PTR [eax*4]
  0000b	51		 push	 ecx
  0000c	e8 00 00 00 00	 call	 ??2@YAPAXI@Z		; operator new
  00011	83 c4 04	 add	 esp, 4

; 35   : 	}

  00014	c3		 ret	 0
??$_Allocate@PAVCMail@@@std@@YAPAPAVCMail@@IPAPAV1@@Z ENDP ; std::_Allocate<CMail *>
_TEXT	ENDS
PUBLIC	??$_Destroy@U_Node@?$_Tree_nod@V?$_Tmap_traits@KPAVCMail@@U?$less@K@std@@V?$allocator@U?$pair@$$CBKPAVCMail@@@std@@@3@$0A@@std@@@std@@@std@@YAXPAU_Node@?$_Tree_nod@V?$_Tmap_traits@KPAVCMail@@U?$less@K@std@@V?$allocator@U?$pair@$$CBKPAVCMail@@@std@@@3@$0A@@std@@@0@@Z ; std::_Destroy<std::_Tree_nod<std::_Tmap_traits<unsigned long,CMail *,std::less<unsigned long>,std::allocator<std::pair<unsigned long const ,CMail *> >,0> >::_Node>
; Function compile flags: /Ogty
;	COMDAT ??$_Destroy@U_Node@?$_Tree_nod@V?$_Tmap_traits@KPAVCMail@@U?$less@K@std@@V?$allocator@U?$pair@$$CBKPAVCMail@@@std@@@3@$0A@@std@@@std@@@std@@YAXPAU_Node@?$_Tree_nod@V?$_Tmap_traits@KPAVCMail@@U?$less@K@std@@V?$allocator@U?$pair@$$CBKPAVCMail@@@std@@@3@$0A@@std@@@0@@Z
_TEXT	SEGMENT
__Ptr$ = 8						; size = 4
??$_Destroy@U_Node@?$_Tree_nod@V?$_Tmap_traits@KPAVCMail@@U?$less@K@std@@V?$allocator@U?$pair@$$CBKPAVCMail@@@std@@@3@$0A@@std@@@std@@@std@@YAXPAU_Node@?$_Tree_nod@V?$_Tmap_traits@KPAVCMail@@U?$less@K@std@@V?$allocator@U?$pair@$$CBKPAVCMail@@@std@@@3@$0A@@std@@@0@@Z PROC NEAR ; std::_Destroy<std::_Tree_nod<std::_Tmap_traits<unsigned long,CMail *,std::less<unsigned long>,std::allocator<std::pair<unsigned long const ,CMail *> >,0> >::_Node>, COMDAT

; 49   : 	_DESTRUCTOR(_Ty, _Ptr);
; 50   : 	}

  00000	c3		 ret	 0
??$_Destroy@U_Node@?$_Tree_nod@V?$_Tmap_traits@KPAVCMail@@U?$less@K@std@@V?$allocator@U?$pair@$$CBKPAVCMail@@@std@@@3@$0A@@std@@@std@@@std@@YAXPAU_Node@?$_Tree_nod@V?$_Tmap_traits@KPAVCMail@@U?$less@K@std@@V?$allocator@U?$pair@$$CBKPAVCMail@@@std@@@3@$0A@@std@@@0@@Z ENDP ; std::_Destroy<std::_Tree_nod<std::_Tmap_traits<unsigned long,CMail *,std::less<unsigned long>,std::allocator<std::pair<unsigned long const ,CMail *> >,0> >::_Node>
_TEXT	ENDS
PUBLIC	??$_Destroy@PAU_Node@?$_Tree_nod@V?$_Tmap_traits@KPAVCMail@@U?$less@K@std@@V?$allocator@U?$pair@$$CBKPAVCMail@@@std@@@3@$0A@@std@@@std@@@std@@YAXPAPAU_Node@?$_Tree_nod@V?$_Tmap_traits@KPAVCMail@@U?$less@K@std@@V?$allocator@U?$pair@$$CBKPAVCMail@@@std@@@3@$0A@@std@@@0@@Z ; std::_Destroy<std::_Tree_nod<std::_Tmap_traits<unsigned long,CMail *,std::less<unsigned long>,std::allocator<std::pair<unsigned long const ,CMail *> >,0> >::_Node *>
; Function compile flags: /Ogty
;	COMDAT ??$_Destroy@PAU_Node@?$_Tree_nod@V?$_Tmap_traits@KPAVCMail@@U?$less@K@std@@V?$allocator@U?$pair@$$CBKPAVCMail@@@std@@@3@$0A@@std@@@std@@@std@@YAXPAPAU_Node@?$_Tree_nod@V?$_Tmap_traits@KPAVCMail@@U?$less@K@std@@V?$allocator@U?$pair@$$CBKPAVCMail@@@std@@@3@$0A@@std@@@0@@Z
_TEXT	SEGMENT
__Ptr$ = 8						; size = 4
??$_Destroy@PAU_Node@?$_Tree_nod@V?$_Tmap_traits@KPAVCMail@@U?$less@K@std@@V?$allocator@U?$pair@$$CBKPAVCMail@@@std@@@3@$0A@@std@@@std@@@std@@YAXPAPAU_Node@?$_Tree_nod@V?$_Tmap_traits@KPAVCMail@@U?$less@K@std@@V?$allocator@U?$pair@$$CBKPAVCMail@@@std@@@3@$0A@@std@@@0@@Z PROC NEAR ; std::_Destroy<std::_Tree_nod<std::_Tmap_traits<unsigned long,CMail *,std::less<unsigned long>,std::allocator<std::pair<unsigned long const ,CMail *> >,0> >::_Node *>, COMDAT

; 49   : 	_DESTRUCTOR(_Ty, _Ptr);
; 50   : 	}

  00000	c3		 ret	 0
??$_Destroy@PAU_Node@?$_Tree_nod@V?$_Tmap_traits@KPAVCMail@@U?$less@K@std@@V?$allocator@U?$pair@$$CBKPAVCMail@@@std@@@3@$0A@@std@@@std@@@std@@YAXPAPAU_Node@?$_Tree_nod@V?$_Tmap_traits@KPAVCMail@@U?$less@K@std@@V?$allocator@U?$pair@$$CBKPAVCMail@@@std@@@3@$0A@@std@@@0@@Z ENDP ; std::_Destroy<std::_Tree_nod<std::_Tmap_traits<unsigned long,CMail *,std::less<unsigned long>,std::allocator<std::pair<unsigned long const ,CMail *> >,0> >::_Node *>
_TEXT	ENDS
PUBLIC	??$_Destroy@U_Node@?$_Tree_nod@V?$_Tmap_traits@KPAVCMailBox@@U?$less@K@std@@V?$allocator@U?$pair@$$CBKPAVCMailBox@@@std@@@3@$0A@@std@@@std@@@std@@YAXPAU_Node@?$_Tree_nod@V?$_Tmap_traits@KPAVCMailBox@@U?$less@K@std@@V?$allocator@U?$pair@$$CBKPAVCMailBox@@@std@@@3@$0A@@std@@@0@@Z ; std::_Destroy<std::_Tree_nod<std::_Tmap_traits<unsigned long,CMailBox *,std::less<unsigned long>,std::allocator<std::pair<unsigned long const ,CMailBox *> >,0> >::_Node>
; Function compile flags: /Ogty
;	COMDAT ??$_Destroy@U_Node@?$_Tree_nod@V?$_Tmap_traits@KPAVCMailBox@@U?$less@K@std@@V?$allocator@U?$pair@$$CBKPAVCMailBox@@@std@@@3@$0A@@std@@@std@@@std@@YAXPAU_Node@?$_Tree_nod@V?$_Tmap_traits@KPAVCMailBox@@U?$less@K@std@@V?$allocator@U?$pair@$$CBKPAVCMailBox@@@std@@@3@$0A@@std@@@0@@Z
_TEXT	SEGMENT
__Ptr$ = 8						; size = 4
??$_Destroy@U_Node@?$_Tree_nod@V?$_Tmap_traits@KPAVCMailBox@@U?$less@K@std@@V?$allocator@U?$pair@$$CBKPAVCMailBox@@@std@@@3@$0A@@std@@@std@@@std@@YAXPAU_Node@?$_Tree_nod@V?$_Tmap_traits@KPAVCMailBox@@U?$less@K@std@@V?$allocator@U?$pair@$$CBKPAVCMailBox@@@std@@@3@$0A@@std@@@0@@Z PROC NEAR ; std::_Destroy<std::_Tree_nod<std::_Tmap_traits<unsigned long,CMailBox *,std::less<unsigned long>,std::allocator<std::pair<unsigned long const ,CMailBox *> >,0> >::_Node>, COMDAT

; 49   : 	_DESTRUCTOR(_Ty, _Ptr);
; 50   : 	}

  00000	c3		 ret	 0
??$_Destroy@U_Node@?$_Tree_nod@V?$_Tmap_traits@KPAVCMailBox@@U?$less@K@std@@V?$allocator@U?$pair@$$CBKPAVCMailBox@@@std@@@3@$0A@@std@@@std@@@std@@YAXPAU_Node@?$_Tree_nod@V?$_Tmap_traits@KPAVCMailBox@@U?$less@K@std@@V?$allocator@U?$pair@$$CBKPAVCMailBox@@@std@@@3@$0A@@std@@@0@@Z ENDP ; std::_Destroy<std::_Tree_nod<std::_Tmap_traits<unsigned long,CMailBox *,std::less<unsigned long>,std::allocator<std::pair<unsigned long const ,CMailBox *> >,0> >::_Node>
_TEXT	ENDS
PUBLIC	??$_Destroy@PAU_Node@?$_Tree_nod@V?$_Tmap_traits@KPAVCMailBox@@U?$less@K@std@@V?$allocator@U?$pair@$$CBKPAVCMailBox@@@std@@@3@$0A@@std@@@std@@@std@@YAXPAPAU_Node@?$_Tree_nod@V?$_Tmap_traits@KPAVCMailBox@@U?$less@K@std@@V?$allocator@U?$pair@$$CBKPAVCMailBox@@@std@@@3@$0A@@std@@@0@@Z ; std::_Destroy<std::_Tree_nod<std::_Tmap_traits<unsigned long,CMailBox *,std::less<unsigned long>,std::allocator<std::pair<unsigned long const ,CMailBox *> >,0> >::_Node *>
; Function compile flags: /Ogty
;	COMDAT ??$_Destroy@PAU_Node@?$_Tree_nod@V?$_Tmap_traits@KPAVCMailBox@@U?$less@K@std@@V?$allocator@U?$pair@$$CBKPAVCMailBox@@@std@@@3@$0A@@std@@@std@@@std@@YAXPAPAU_Node@?$_Tree_nod@V?$_Tmap_traits@KPAVCMailBox@@U?$less@K@std@@V?$allocator@U?$pair@$$CBKPAVCMailBox@@@std@@@3@$0A@@std@@@0@@Z
_TEXT	SEGMENT
__Ptr$ = 8						; size = 4
??$_Destroy@PAU_Node@?$_Tree_nod@V?$_Tmap_traits@KPAVCMailBox@@U?$less@K@std@@V?$allocator@U?$pair@$$CBKPAVCMailBox@@@std@@@3@$0A@@std@@@std@@@std@@YAXPAPAU_Node@?$_Tree_nod@V?$_Tmap_traits@KPAVCMailBox@@U?$less@K@std@@V?$allocator@U?$pair@$$CBKPAVCMailBox@@@std@@@3@$0A@@std@@@0@@Z PROC NEAR ; std::_Destroy<std::_Tree_nod<std::_Tmap_traits<unsigned long,CMailBox *,std::less<unsigned long>,std::allocator<std::pair<unsigned long const ,CMailBox *> >,0> >::_Node *>, COMDAT

; 49   : 	_DESTRUCTOR(_Ty, _Ptr);
; 50   : 	}

  00000	c3		 ret	 0
??$_Destroy@PAU_Node@?$_Tree_nod@V?$_Tmap_traits@KPAVCMailBox@@U?$less@K@std@@V?$allocator@U?$pair@$$CBKPAVCMailBox@@@std@@@3@$0A@@std@@@std@@@std@@YAXPAPAU_Node@?$_Tree_nod@V?$_Tmap_traits@KPAVCMailBox@@U?$less@K@std@@V?$allocator@U?$pair@$$CBKPAVCMailBox@@@std@@@3@$0A@@std@@@0@@Z ENDP ; std::_Destroy<std::_Tree_nod<std::_Tmap_traits<unsigned long,CMailBox *,std::less<unsigned long>,std::allocator<std::pair<unsigned long const ,CMailBox *> >,0> >::_Node *>
_TEXT	ENDS
PUBLIC	??$?0PAVCMail@@@?$allocator@PAU_Node@?$_List_nod@PAVCMail@@V?$allocator@PAVCMail@@@std@@@std@@@std@@QAE@ABV?$allocator@PAVCMail@@@1@@Z ; std::allocator<std::_List_nod<CMail *,std::allocator<CMail *> >::_Node *>::allocator<std::_List_nod<CMail *,std::allocator<CMail *> >::_Node *><CMail *>
; Function compile flags: /Ogty
;	COMDAT ??$?0PAVCMail@@@?$allocator@PAU_Node@?$_List_nod@PAVCMail@@V?$allocator@PAVCMail@@@std@@@std@@@std@@QAE@ABV?$allocator@PAVCMail@@@1@@Z
_TEXT	SEGMENT
___formal$ = 8						; size = 4
??$?0PAVCMail@@@?$allocator@PAU_Node@?$_List_nod@PAVCMail@@V?$allocator@PAVCMail@@@std@@@std@@@std@@QAE@ABV?$allocator@PAVCMail@@@1@@Z PROC NEAR ; std::allocator<std::_List_nod<CMail *,std::allocator<CMail *> >::_Node *>::allocator<std::_List_nod<CMail *,std::allocator<CMail *> >::_Node *><CMail *>, COMDAT
; _this$ = ecx

; 120  : 		allocator(const allocator<_Other>&)

  00000	8b c1		 mov	 eax, ecx

; 121  : 		{	// construct from a related allocator (do nothing)
; 122  : 		}

  00002	c2 04 00	 ret	 4
??$?0PAVCMail@@@?$allocator@PAU_Node@?$_List_nod@PAVCMail@@V?$allocator@PAVCMail@@@std@@@std@@@std@@QAE@ABV?$allocator@PAVCMail@@@1@@Z ENDP ; std::allocator<std::_List_nod<CMail *,std::allocator<CMail *> >::_Node *>::allocator<std::_List_nod<CMail *,std::allocator<CMail *> >::_Node *><CMail *>
_TEXT	ENDS
PUBLIC	??$_Allocate@U_Node@?$_List_nod@PAVCMail@@V?$allocator@PAVCMail@@@std@@@std@@@std@@YAPAU_Node@?$_List_nod@PAVCMail@@V?$allocator@PAVCMail@@@std@@@0@IPAU120@@Z ; std::_Allocate<std::_List_nod<CMail *,std::allocator<CMail *> >::_Node>
; Function compile flags: /Ogty
;	COMDAT ??$_Allocate@U_Node@?$_List_nod@PAVCMail@@V?$allocator@PAVCMail@@@std@@@std@@@std@@YAPAU_Node@?$_List_nod@PAVCMail@@V?$allocator@PAVCMail@@@std@@@0@IPAU120@@Z
_TEXT	SEGMENT
__Count$ = 8						; size = 4
___formal$ = 12						; size = 4
??$_Allocate@U_Node@?$_List_nod@PAVCMail@@V?$allocator@PAVCMail@@@std@@@std@@@std@@YAPAU_Node@?$_List_nod@PAVCMail@@V?$allocator@PAVCMail@@@std@@@0@IPAU120@@Z PROC NEAR ; std::_Allocate<std::_List_nod<CMail *,std::allocator<CMail *> >::_Node>, COMDAT

; 34   : 	return ((_Ty _FARQ *)operator new(_Count * sizeof (_Ty)));

  00000	8b 44 24 04	 mov	 eax, DWORD PTR __Count$[esp-4]
  00004	8d 04 40	 lea	 eax, DWORD PTR [eax+eax*2]
  00007	c1 e0 02	 shl	 eax, 2
  0000a	50		 push	 eax
  0000b	e8 00 00 00 00	 call	 ??2@YAPAXI@Z		; operator new
  00010	83 c4 04	 add	 esp, 4

; 35   : 	}

  00013	c3		 ret	 0
??$_Allocate@U_Node@?$_List_nod@PAVCMail@@V?$allocator@PAVCMail@@@std@@@std@@@std@@YAPAU_Node@?$_List_nod@PAVCMail@@V?$allocator@PAVCMail@@@std@@@0@IPAU120@@Z ENDP ; std::_Allocate<std::_List_nod<CMail *,std::allocator<CMail *> >::_Node>
_TEXT	ENDS
PUBLIC	??$_Construct@PAU_Node@?$_List_nod@PAVCMail@@V?$allocator@PAVCMail@@@std@@@std@@PAU123@@std@@YAXPAPAU_Node@?$_List_nod@PAVCMail@@V?$allocator@PAVCMail@@@std@@@0@ABQAU120@@Z ; std::_Construct<std::_List_nod<CMail *,std::allocator<CMail *> >::_Node *,std::_List_nod<CMail *,std::allocator<CMail *> >::_Node *>
; Function compile flags: /Ogty
;	COMDAT ??$_Construct@PAU_Node@?$_List_nod@PAVCMail@@V?$allocator@PAVCMail@@@std@@@std@@PAU123@@std@@YAXPAPAU_Node@?$_List_nod@PAVCMail@@V?$allocator@PAVCMail@@@std@@@0@ABQAU120@@Z
_TEXT	SEGMENT
__Ptr$ = 8						; size = 4
__Val$ = 12						; size = 4
??$_Construct@PAU_Node@?$_List_nod@PAVCMail@@V?$allocator@PAVCMail@@@std@@@std@@PAU123@@std@@YAXPAPAU_Node@?$_List_nod@PAVCMail@@V?$allocator@PAVCMail@@@std@@@0@ABQAU120@@Z PROC NEAR ; std::_Construct<std::_List_nod<CMail *,std::allocator<CMail *> >::_Node *,std::_List_nod<CMail *,std::allocator<CMail *> >::_Node *>, COMDAT

; 42   : 	new ((void _FARQ *)_Ptr) _T1(_Val);

  00000	8b 44 24 04	 mov	 eax, DWORD PTR __Ptr$[esp-4]
  00004	85 c0		 test	 eax, eax
  00006	74 08		 je	 SHORT $L202901
  00008	8b 4c 24 08	 mov	 ecx, DWORD PTR __Val$[esp-4]
  0000c	8b 11		 mov	 edx, DWORD PTR [ecx]
  0000e	89 10		 mov	 DWORD PTR [eax], edx
$L202901:

; 43   : 	}

  00010	c3		 ret	 0
??$_Construct@PAU_Node@?$_List_nod@PAVCMail@@V?$allocator@PAVCMail@@@std@@@std@@PAU123@@std@@YAXPAPAU_Node@?$_List_nod@PAVCMail@@V?$allocator@PAVCMail@@@std@@@0@ABQAU120@@Z ENDP ; std::_Construct<std::_List_nod<CMail *,std::allocator<CMail *> >::_Node *,std::_List_nod<CMail *,std::allocator<CMail *> >::_Node *>
_TEXT	ENDS
PUBLIC	??$_Destroy@PAU_Node@?$_List_nod@PAVCMail@@V?$allocator@PAVCMail@@@std@@@std@@@std@@YAXPAPAU_Node@?$_List_nod@PAVCMail@@V?$allocator@PAVCMail@@@std@@@0@@Z ; std::_Destroy<std::_List_nod<CMail *,std::allocator<CMail *> >::_Node *>
; Function compile flags: /Ogty
;	COMDAT ??$_Destroy@PAU_Node@?$_List_nod@PAVCMail@@V?$allocator@PAVCMail@@@std@@@std@@@std@@YAXPAPAU_Node@?$_List_nod@PAVCMail@@V?$allocator@PAVCMail@@@std@@@0@@Z
_TEXT	SEGMENT
__Ptr$ = 8						; size = 4
??$_Destroy@PAU_Node@?$_List_nod@PAVCMail@@V?$allocator@PAVCMail@@@std@@@std@@@std@@YAXPAPAU_Node@?$_List_nod@PAVCMail@@V?$allocator@PAVCMail@@@std@@@0@@Z PROC NEAR ; std::_Destroy<std::_List_nod<CMail *,std::allocator<CMail *> >::_Node *>, COMDAT

; 49   : 	_DESTRUCTOR(_Ty, _Ptr);
; 50   : 	}

  00000	c3		 ret	 0
??$_Destroy@PAU_Node@?$_List_nod@PAVCMail@@V?$allocator@PAVCMail@@@std@@@std@@@std@@YAXPAPAU_Node@?$_List_nod@PAVCMail@@V?$allocator@PAVCMail@@@std@@@0@@Z ENDP ; std::_Destroy<std::_List_nod<CMail *,std::allocator<CMail *> >::_Node *>
_TEXT	ENDS
PUBLIC	??$?0U?$pair@$$CBKPAVCMail@@@std@@@?$allocator@PAU_Node@?$_Tree_nod@V?$_Tmap_traits@KPAVCMail@@U?$less@K@std@@V?$allocator@U?$pair@$$CBKPAVCMail@@@std@@@3@$0A@@std@@@std@@@std@@QAE@ABV?$allocator@U?$pair@$$CBKPAVCMail@@@std@@@1@@Z ; std::allocator<std::_Tree_nod<std::_Tmap_traits<unsigned long,CMail *,std::less<unsigned long>,std::allocator<std::pair<unsigned long const ,CMail *> >,0> >::_Node *>::allocator<std::_Tree_nod<std::_Tmap_traits<unsigned long,CMail *,std::less<unsigned long>,std::allocator<std::pair<unsigned long const ,CMail *> >,0> >::_Node *><std::pair<unsigned long const ,CMail *> >
; Function compile flags: /Ogty
;	COMDAT ??$?0U?$pair@$$CBKPAVCMail@@@std@@@?$allocator@PAU_Node@?$_Tree_nod@V?$_Tmap_traits@KPAVCMail@@U?$less@K@std@@V?$allocator@U?$pair@$$CBKPAVCMail@@@std@@@3@$0A@@std@@@std@@@std@@QAE@ABV?$allocator@U?$pair@$$CBKPAVCMail@@@std@@@1@@Z
_TEXT	SEGMENT
___formal$ = 8						; size = 4
??$?0U?$pair@$$CBKPAVCMail@@@std@@@?$allocator@PAU_Node@?$_Tree_nod@V?$_Tmap_traits@KPAVCMail@@U?$less@K@std@@V?$allocator@U?$pair@$$CBKPAVCMail@@@std@@@3@$0A@@std@@@std@@@std@@QAE@ABV?$allocator@U?$pair@$$CBKPAVCMail@@@std@@@1@@Z PROC NEAR ; std::allocator<std::_Tree_nod<std::_Tmap_traits<unsigned long,CMail *,std::less<unsigned long>,std::allocator<std::pair<unsigned long const ,CMail *> >,0> >::_Node *>::allocator<std::_Tree_nod<std::_Tmap_traits<unsigned long,CMail *,std::less<unsigned long>,std::allocator<std::pair<unsigned long const ,CMail *> >,0> >::_Node *><std::pair<unsigned long const ,CMail *> >, COMDAT
; _this$ = ecx

; 120  : 		allocator(const allocator<_Other>&)

  00000	8b c1		 mov	 eax, ecx

; 121  : 		{	// construct from a related allocator (do nothing)
; 122  : 		}

  00002	c2 04 00	 ret	 4
??$?0U?$pair@$$CBKPAVCMail@@@std@@@?$allocator@PAU_Node@?$_Tree_nod@V?$_Tmap_traits@KPAVCMail@@U?$less@K@std@@V?$allocator@U?$pair@$$CBKPAVCMail@@@std@@@3@$0A@@std@@@std@@@std@@QAE@ABV?$allocator@U?$pair@$$CBKPAVCMail@@@std@@@1@@Z ENDP ; std::allocator<std::_Tree_nod<std::_Tmap_traits<unsigned long,CMail *,std::less<unsigned long>,std::allocator<std::pair<unsigned long const ,CMail *> >,0> >::_Node *>::allocator<std::_Tree_nod<std::_Tmap_traits<unsigned long,CMail *,std::less<unsigned long>,std::allocator<std::pair<unsigned long const ,CMail *> >,0> >::_Node *><std::pair<unsigned long const ,CMail *> >
_TEXT	ENDS
PUBLIC	??$_Allocate@U_Node@?$_Tree_nod@V?$_Tmap_traits@KPAVCMail@@U?$less@K@std@@V?$allocator@U?$pair@$$CBKPAVCMail@@@std@@@3@$0A@@std@@@std@@@std@@YAPAU_Node@?$_Tree_nod@V?$_Tmap_traits@KPAVCMail@@U?$less@K@std@@V?$allocator@U?$pair@$$CBKPAVCMail@@@std@@@3@$0A@@std@@@0@IPAU120@@Z ; std::_Allocate<std::_Tree_nod<std::_Tmap_traits<unsigned long,CMail *,std::less<unsigned long>,std::allocator<std::pair<unsigned long const ,CMail *> >,0> >::_Node>
; Function compile flags: /Ogty
;	COMDAT ??$_Allocate@U_Node@?$_Tree_nod@V?$_Tmap_traits@KPAVCMail@@U?$less@K@std@@V?$allocator@U?$pair@$$CBKPAVCMail@@@std@@@3@$0A@@std@@@std@@@std@@YAPAU_Node@?$_Tree_nod@V?$_Tmap_traits@KPAVCMail@@U?$less@K@std@@V?$allocator@U?$pair@$$CBKPAVCMail@@@std@@@3@$0A@@std@@@0@IPAU120@@Z
_TEXT	SEGMENT
__Count$ = 8						; size = 4
___formal$ = 12						; size = 4
??$_Allocate@U_Node@?$_Tree_nod@V?$_Tmap_traits@KPAVCMail@@U?$less@K@std@@V?$allocator@U?$pair@$$CBKPAVCMail@@@std@@@3@$0A@@std@@@std@@@std@@YAPAU_Node@?$_Tree_nod@V?$_Tmap_traits@KPAVCMail@@U?$less@K@std@@V?$allocator@U?$pair@$$CBKPAVCMail@@@std@@@3@$0A@@std@@@0@IPAU120@@Z PROC NEAR ; std::_Allocate<std::_Tree_nod<std::_Tmap_traits<unsigned long,CMail *,std::less<unsigned long>,std::allocator<std::pair<unsigned long const ,CMail *> >,0> >::_Node>, COMDAT

; 34   : 	return ((_Ty _FARQ *)operator new(_Count * sizeof (_Ty)));

  00000	8b 44 24 04	 mov	 eax, DWORD PTR __Count$[esp-4]
  00004	8d 04 40	 lea	 eax, DWORD PTR [eax+eax*2]
  00007	c1 e0 03	 shl	 eax, 3
  0000a	50		 push	 eax
  0000b	e8 00 00 00 00	 call	 ??2@YAPAXI@Z		; operator new
  00010	83 c4 04	 add	 esp, 4

; 35   : 	}

  00013	c3		 ret	 0
??$_Allocate@U_Node@?$_Tree_nod@V?$_Tmap_traits@KPAVCMail@@U?$less@K@std@@V?$allocator@U?$pair@$$CBKPAVCMail@@@std@@@3@$0A@@std@@@std@@@std@@YAPAU_Node@?$_Tree_nod@V?$_Tmap_traits@KPAVCMail@@U?$less@K@std@@V?$allocator@U?$pair@$$CBKPAVCMail@@@std@@@3@$0A@@std@@@0@IPAU120@@Z ENDP ; std::_Allocate<std::_Tree_nod<std::_Tmap_traits<unsigned long,CMail *,std::less<unsigned long>,std::allocator<std::pair<unsigned long const ,CMail *> >,0> >::_Node>
_TEXT	ENDS
PUBLIC	??$?0U?$pair@$$CBKPAVCMailBox@@@std@@@?$allocator@PAU_Node@?$_Tree_nod@V?$_Tmap_traits@KPAVCMailBox@@U?$less@K@std@@V?$allocator@U?$pair@$$CBKPAVCMailBox@@@std@@@3@$0A@@std@@@std@@@std@@QAE@ABV?$allocator@U?$pair@$$CBKPAVCMailBox@@@std@@@1@@Z ; std::allocator<std::_Tree_nod<std::_Tmap_traits<unsigned long,CMailBox *,std::less<unsigned long>,std::allocator<std::pair<unsigned long const ,CMailBox *> >,0> >::_Node *>::allocator<std::_Tree_nod<std::_Tmap_traits<unsigned long,CMailBox *,std::less<unsigned long>,std::allocator<std::pair<unsigned long const ,CMailBox *> >,0> >::_Node *><std::pair<unsigned long const ,CMailBox *> >
; Function compile flags: /Ogty
;	COMDAT ??$?0U?$pair@$$CBKPAVCMailBox@@@std@@@?$allocator@PAU_Node@?$_Tree_nod@V?$_Tmap_traits@KPAVCMailBox@@U?$less@K@std@@V?$allocator@U?$pair@$$CBKPAVCMailBox@@@std@@@3@$0A@@std@@@std@@@std@@QAE@ABV?$allocator@U?$pair@$$CBKPAVCMailBox@@@std@@@1@@Z
_TEXT	SEGMENT
___formal$ = 8						; size = 4
??$?0U?$pair@$$CBKPAVCMailBox@@@std@@@?$allocator@PAU_Node@?$_Tree_nod@V?$_Tmap_traits@KPAVCMailBox@@U?$less@K@std@@V?$allocator@U?$pair@$$CBKPAVCMailBox@@@std@@@3@$0A@@std@@@std@@@std@@QAE@ABV?$allocator@U?$pair@$$CBKPAVCMailBox@@@std@@@1@@Z PROC NEAR ; std::allocator<std::_Tree_nod<std::_Tmap_traits<unsigned long,CMailBox *,std::less<unsigned long>,std::allocator<std::pair<unsigned long const ,CMailBox *> >,0> >::_Node *>::allocator<std::_Tree_nod<std::_Tmap_traits<unsigned long,CMailBox *,std::less<unsigned long>,std::allocator<std::pair<unsigned long const ,CMailBox *> >,0> >::_Node *><std::pair<unsigned long const ,CMailBox *> >, COMDAT
; _this$ = ecx

; 120  : 		allocator(const allocator<_Other>&)

  00000	8b c1		 mov	 eax, ecx

; 121  : 		{	// construct from a related allocator (do nothing)
; 122  : 		}

  00002	c2 04 00	 ret	 4
??$?0U?$pair@$$CBKPAVCMailBox@@@std@@@?$allocator@PAU_Node@?$_Tree_nod@V?$_Tmap_traits@KPAVCMailBox@@U?$less@K@std@@V?$allocator@U?$pair@$$CBKPAVCMailBox@@@std@@@3@$0A@@std@@@std@@@std@@QAE@ABV?$allocator@U?$pair@$$CBKPAVCMailBox@@@std@@@1@@Z ENDP ; std::allocator<std::_Tree_nod<std::_Tmap_traits<unsigned long,CMailBox *,std::less<unsigned long>,std::allocator<std::pair<unsigned long const ,CMailBox *> >,0> >::_Node *>::allocator<std::_Tree_nod<std::_Tmap_traits<unsigned long,CMailBox *,std::less<unsigned long>,std::allocator<std::pair<unsigned long const ,CMailBox *> >,0> >::_Node *><std::pair<unsigned long const ,CMailBox *> >
_TEXT	ENDS
PUBLIC	??$_Allocate@U_Node@?$_Tree_nod@V?$_Tmap_traits@KPAVCMailBox@@U?$less@K@std@@V?$allocator@U?$pair@$$CBKPAVCMailBox@@@std@@@3@$0A@@std@@@std@@@std@@YAPAU_Node@?$_Tree_nod@V?$_Tmap_traits@KPAVCMailBox@@U?$less@K@std@@V?$allocator@U?$pair@$$CBKPAVCMailBox@@@std@@@3@$0A@@std@@@0@IPAU120@@Z ; std::_Allocate<std::_Tree_nod<std::_Tmap_traits<unsigned long,CMailBox *,std::less<unsigned long>,std::allocator<std::pair<unsigned long const ,CMailBox *> >,0> >::_Node>
; Function compile flags: /Ogty
;	COMDAT ??$_Allocate@U_Node@?$_Tree_nod@V?$_Tmap_traits@KPAVCMailBox@@U?$less@K@std@@V?$allocator@U?$pair@$$CBKPAVCMailBox@@@std@@@3@$0A@@std@@@std@@@std@@YAPAU_Node@?$_Tree_nod@V?$_Tmap_traits@KPAVCMailBox@@U?$less@K@std@@V?$allocator@U?$pair@$$CBKPAVCMailBox@@@std@@@3@$0A@@std@@@0@IPAU120@@Z
_TEXT	SEGMENT
__Count$ = 8						; size = 4
___formal$ = 12						; size = 4
??$_Allocate@U_Node@?$_Tree_nod@V?$_Tmap_traits@KPAVCMailBox@@U?$less@K@std@@V?$allocator@U?$pair@$$CBKPAVCMailBox@@@std@@@3@$0A@@std@@@std@@@std@@YAPAU_Node@?$_Tree_nod@V?$_Tmap_traits@KPAVCMailBox@@U?$less@K@std@@V?$allocator@U?$pair@$$CBKPAVCMailBox@@@std@@@3@$0A@@std@@@0@IPAU120@@Z PROC NEAR ; std::_Allocate<std::_Tree_nod<std::_Tmap_traits<unsigned long,CMailBox *,std::less<unsigned long>,std::allocator<std::pair<unsigned long const ,CMailBox *> >,0> >::_Node>, COMDAT

; 34   : 	return ((_Ty _FARQ *)operator new(_Count * sizeof (_Ty)));

  00000	8b 44 24 04	 mov	 eax, DWORD PTR __Count$[esp-4]
  00004	8d 04 40	 lea	 eax, DWORD PTR [eax+eax*2]
  00007	c1 e0 03	 shl	 eax, 3
  0000a	50		 push	 eax
  0000b	e8 00 00 00 00	 call	 ??2@YAPAXI@Z		; operator new
  00010	83 c4 04	 add	 esp, 4

; 35   : 	}

  00013	c3		 ret	 0
??$_Allocate@U_Node@?$_Tree_nod@V?$_Tmap_traits@KPAVCMailBox@@U?$less@K@std@@V?$allocator@U?$pair@$$CBKPAVCMailBox@@@std@@@3@$0A@@std@@@std@@@std@@YAPAU_Node@?$_Tree_nod@V?$_Tmap_traits@KPAVCMailBox@@U?$less@K@std@@V?$allocator@U?$pair@$$CBKPAVCMailBox@@@std@@@3@$0A@@std@@@0@IPAU120@@Z ENDP ; std::_Allocate<std::_Tree_nod<std::_Tmap_traits<unsigned long,CMailBox *,std::less<unsigned long>,std::allocator<std::pair<unsigned long const ,CMailBox *> >,0> >::_Node>
_TEXT	ENDS
PUBLIC	??$?0PAVCMail@@@?$allocator@U_Node@?$_List_nod@PAVCMail@@V?$allocator@PAVCMail@@@std@@@std@@@std@@QAE@ABV?$allocator@PAVCMail@@@1@@Z ; std::allocator<std::_List_nod<CMail *,std::allocator<CMail *> >::_Node>::allocator<std::_List_nod<CMail *,std::allocator<CMail *> >::_Node><CMail *>
; Function compile flags: /Ogty
;	COMDAT ??$?0PAVCMail@@@?$allocator@U_Node@?$_List_nod@PAVCMail@@V?$allocator@PAVCMail@@@std@@@std@@@std@@QAE@ABV?$allocator@PAVCMail@@@1@@Z
_TEXT	SEGMENT
___formal$ = 8						; size = 4
??$?0PAVCMail@@@?$allocator@U_Node@?$_List_nod@PAVCMail@@V?$allocator@PAVCMail@@@std@@@std@@@std@@QAE@ABV?$allocator@PAVCMail@@@1@@Z PROC NEAR ; std::allocator<std::_List_nod<CMail *,std::allocator<CMail *> >::_Node>::allocator<std::_List_nod<CMail *,std::allocator<CMail *> >::_Node><CMail *>, COMDAT
; _this$ = ecx

; 120  : 		allocator(const allocator<_Other>&)

  00000	8b c1		 mov	 eax, ecx

; 121  : 		{	// construct from a related allocator (do nothing)
; 122  : 		}

  00002	c2 04 00	 ret	 4
??$?0PAVCMail@@@?$allocator@U_Node@?$_List_nod@PAVCMail@@V?$allocator@PAVCMail@@@std@@@std@@@std@@QAE@ABV?$allocator@PAVCMail@@@1@@Z ENDP ; std::allocator<std::_List_nod<CMail *,std::allocator<CMail *> >::_Node>::allocator<std::_List_nod<CMail *,std::allocator<CMail *> >::_Node><CMail *>
_TEXT	ENDS
PUBLIC	??$?0U?$pair@$$CBKPAVCMail@@@std@@@?$allocator@U_Node@?$_Tree_nod@V?$_Tmap_traits@KPAVCMail@@U?$less@K@std@@V?$allocator@U?$pair@$$CBKPAVCMail@@@std@@@3@$0A@@std@@@std@@@std@@QAE@ABV?$allocator@U?$pair@$$CBKPAVCMail@@@std@@@1@@Z ; std::allocator<std::_Tree_nod<std::_Tmap_traits<unsigned long,CMail *,std::less<unsigned long>,std::allocator<std::pair<unsigned long const ,CMail *> >,0> >::_Node>::allocator<std::_Tree_nod<std::_Tmap_traits<unsigned long,CMail *,std::less<unsigned long>,std::allocator<std::pair<unsigned long const ,CMail *> >,0> >::_Node><std::pair<unsigned long const ,CMail *> >
; Function compile flags: /Ogty
;	COMDAT ??$?0U?$pair@$$CBKPAVCMail@@@std@@@?$allocator@U_Node@?$_Tree_nod@V?$_Tmap_traits@KPAVCMail@@U?$less@K@std@@V?$allocator@U?$pair@$$CBKPAVCMail@@@std@@@3@$0A@@std@@@std@@@std@@QAE@ABV?$allocator@U?$pair@$$CBKPAVCMail@@@std@@@1@@Z
_TEXT	SEGMENT
___formal$ = 8						; size = 4
??$?0U?$pair@$$CBKPAVCMail@@@std@@@?$allocator@U_Node@?$_Tree_nod@V?$_Tmap_traits@KPAVCMail@@U?$less@K@std@@V?$allocator@U?$pair@$$CBKPAVCMail@@@std@@@3@$0A@@std@@@std@@@std@@QAE@ABV?$allocator@U?$pair@$$CBKPAVCMail@@@std@@@1@@Z PROC NEAR ; std::allocator<std::_Tree_nod<std::_Tmap_traits<unsigned long,CMail *,std::less<unsigned long>,std::allocator<std::pair<unsigned long const ,CMail *> >,0> >::_Node>::allocator<std::_Tree_nod<std::_Tmap_traits<unsigned long,CMail *,std::less<unsigned long>,std::allocator<std::pair<unsigned long const ,CMail *> >,0> >::_Node><std::pair<unsigned long const ,CMail *> >, COMDAT
; _this$ = ecx

; 120  : 		allocator(const allocator<_Other>&)

  00000	8b c1		 mov	 eax, ecx

; 121  : 		{	// construct from a related allocator (do nothing)
; 122  : 		}

  00002	c2 04 00	 ret	 4
??$?0U?$pair@$$CBKPAVCMail@@@std@@@?$allocator@U_Node@?$_Tree_nod@V?$_Tmap_traits@KPAVCMail@@U?$less@K@std@@V?$allocator@U?$pair@$$CBKPAVCMail@@@std@@@3@$0A@@std@@@std@@@std@@QAE@ABV?$allocator@U?$pair@$$CBKPAVCMail@@@std@@@1@@Z ENDP ; std::allocator<std::_Tree_nod<std::_Tmap_traits<unsigned long,CMail *,std::less<unsigned long>,std::allocator<std::pair<unsigned long const ,CMail *> >,0> >::_Node>::allocator<std::_Tree_nod<std::_Tmap_traits<unsigned long,CMail *,std::less<unsigned long>,std::allocator<std::pair<unsigned long const ,CMail *> >,0> >::_Node><std::pair<unsigned long const ,CMail *> >
_TEXT	ENDS
PUBLIC	??$_Construct@PAU_Node@?$_Tree_nod@V?$_Tmap_traits@KPAVCMail@@U?$less@K@std@@V?$allocator@U?$pair@$$CBKPAVCMail@@@std@@@3@$0A@@std@@@std@@PAU123@@std@@YAXPAPAU_Node@?$_Tree_nod@V?$_Tmap_traits@KPAVCMail@@U?$less@K@std@@V?$allocator@U?$pair@$$CBKPAVCMail@@@std@@@3@$0A@@std@@@0@ABQAU120@@Z ; std::_Construct<std::_Tree_nod<std::_Tmap_traits<unsigned long,CMail *,std::less<unsigned long>,std::allocator<std::pair<unsigned long const ,CMail *> >,0> >::_Node *,std::_Tree_nod<std::_Tmap_traits<unsigned long,CMail *,std::less<unsigned long>,std::allocator<std::pair<unsigned long const ,CMail *> >,0> >::_Node *>
; Function compile flags: /Ogty
;	COMDAT ??$_Construct@PAU_Node@?$_Tree_nod@V?$_Tmap_traits@KPAVCMail@@U?$less@K@std@@V?$allocator@U?$pair@$$CBKPAVCMail@@@std@@@3@$0A@@std@@@std@@PAU123@@std@@YAXPAPAU_Node@?$_Tree_nod@V?$_Tmap_traits@KPAVCMail@@U?$less@K@std@@V?$allocator@U?$pair@$$CBKPAVCMail@@@std@@@3@$0A@@std@@@0@ABQAU120@@Z
_TEXT	SEGMENT
__Ptr$ = 8						; size = 4
__Val$ = 12						; size = 4
??$_Construct@PAU_Node@?$_Tree_nod@V?$_Tmap_traits@KPAVCMail@@U?$less@K@std@@V?$allocator@U?$pair@$$CBKPAVCMail@@@std@@@3@$0A@@std@@@std@@PAU123@@std@@YAXPAPAU_Node@?$_Tree_nod@V?$_Tmap_traits@KPAVCMail@@U?$less@K@std@@V?$allocator@U?$pair@$$CBKPAVCMail@@@std@@@3@$0A@@std@@@0@ABQAU120@@Z PROC NEAR ; std::_Construct<std::_Tree_nod<std::_Tmap_traits<unsigned long,CMail *,std::less<unsigned long>,std::allocator<std::pair<unsigned long const ,CMail *> >,0> >::_Node *,std::_Tree_nod<std::_Tmap_traits<unsigned long,CMail *,std::less<unsigned long>,std::allocator<std::pair<unsigned long const ,CMail *> >,0> >::_Node *>, COMDAT

; 42   : 	new ((void _FARQ *)_Ptr) _T1(_Val);

  00000	8b 44 24 04	 mov	 eax, DWORD PTR __Ptr$[esp-4]
  00004	85 c0		 test	 eax, eax
  00006	74 08		 je	 SHORT $L202923
  00008	8b 4c 24 08	 mov	 ecx, DWORD PTR __Val$[esp-4]
  0000c	8b 11		 mov	 edx, DWORD PTR [ecx]
  0000e	89 10		 mov	 DWORD PTR [eax], edx
$L202923:

; 43   : 	}

  00010	c3		 ret	 0
??$_Construct@PAU_Node@?$_Tree_nod@V?$_Tmap_traits@KPAVCMail@@U?$less@K@std@@V?$allocator@U?$pair@$$CBKPAVCMail@@@std@@@3@$0A@@std@@@std@@PAU123@@std@@YAXPAPAU_Node@?$_Tree_nod@V?$_Tmap_traits@KPAVCMail@@U?$less@K@std@@V?$allocator@U?$pair@$$CBKPAVCMail@@@std@@@3@$0A@@std@@@0@ABQAU120@@Z ENDP ; std::_Construct<std::_Tree_nod<std::_Tmap_traits<unsigned long,CMail *,std::less<unsigned long>,std::allocator<std::pair<unsigned long const ,CMail *> >,0> >::_Node *,std::_Tree_nod<std::_Tmap_traits<unsigned long,CMail *,std::less<unsigned long>,std::allocator<std::pair<unsigned long const ,CMail *> >,0> >::_Node *>
_TEXT	ENDS
PUBLIC	??$?0U?$pair@$$CBKPAVCMailBox@@@std@@@?$allocator@U_Node@?$_Tree_nod@V?$_Tmap_traits@KPAVCMailBox@@U?$less@K@std@@V?$allocator@U?$pair@$$CBKPAVCMailBox@@@std@@@3@$0A@@std@@@std@@@std@@QAE@ABV?$allocator@U?$pair@$$CBKPAVCMailBox@@@std@@@1@@Z ; std::allocator<std::_Tree_nod<std::_Tmap_traits<unsigned long,CMailBox *,std::less<unsigned long>,std::allocator<std::pair<unsigned long const ,CMailBox *> >,0> >::_Node>::allocator<std::_Tree_nod<std::_Tmap_traits<unsigned long,CMailBox *,std::less<unsigned long>,std::allocator<std::pair<unsigned long const ,CMailBox *> >,0> >::_Node><std::pair<unsigned long const ,CMailBox *> >
; Function compile flags: /Ogty
;	COMDAT ??$?0U?$pair@$$CBKPAVCMailBox@@@std@@@?$allocator@U_Node@?$_Tree_nod@V?$_Tmap_traits@KPAVCMailBox@@U?$less@K@std@@V?$allocator@U?$pair@$$CBKPAVCMailBox@@@std@@@3@$0A@@std@@@std@@@std@@QAE@ABV?$allocator@U?$pair@$$CBKPAVCMailBox@@@std@@@1@@Z
_TEXT	SEGMENT
___formal$ = 8						; size = 4
??$?0U?$pair@$$CBKPAVCMailBox@@@std@@@?$allocator@U_Node@?$_Tree_nod@V?$_Tmap_traits@KPAVCMailBox@@U?$less@K@std@@V?$allocator@U?$pair@$$CBKPAVCMailBox@@@std@@@3@$0A@@std@@@std@@@std@@QAE@ABV?$allocator@U?$pair@$$CBKPAVCMailBox@@@std@@@1@@Z PROC NEAR ; std::allocator<std::_Tree_nod<std::_Tmap_traits<unsigned long,CMailBox *,std::less<unsigned long>,std::allocator<std::pair<unsigned long const ,CMailBox *> >,0> >::_Node>::allocator<std::_Tree_nod<std::_Tmap_traits<unsigned long,CMailBox *,std::less<unsigned long>,std::allocator<std::pair<unsigned long const ,CMailBox *> >,0> >::_Node><std::pair<unsigned long const ,CMailBox *> >, COMDAT
; _this$ = ecx

; 120  : 		allocator(const allocator<_Other>&)

  00000	8b c1		 mov	 eax, ecx

; 121  : 		{	// construct from a related allocator (do nothing)
; 122  : 		}

  00002	c2 04 00	 ret	 4
??$?0U?$pair@$$CBKPAVCMailBox@@@std@@@?$allocator@U_Node@?$_Tree_nod@V?$_Tmap_traits@KPAVCMailBox@@U?$less@K@std@@V?$allocator@U?$pair@$$CBKPAVCMailBox@@@std@@@3@$0A@@std@@@std@@@std@@QAE@ABV?$allocator@U?$pair@$$CBKPAVCMailBox@@@std@@@1@@Z ENDP ; std::allocator<std::_Tree_nod<std::_Tmap_traits<unsigned long,CMailBox *,std::less<unsigned long>,std::allocator<std::pair<unsigned long const ,CMailBox *> >,0> >::_Node>::allocator<std::_Tree_nod<std::_Tmap_traits<unsigned long,CMailBox *,std::less<unsigned long>,std::allocator<std::pair<unsigned long const ,CMailBox *> >,0> >::_Node><std::pair<unsigned long const ,CMailBox *> >
_TEXT	ENDS
PUBLIC	??$_Construct@PAU_Node@?$_Tree_nod@V?$_Tmap_traits@KPAVCMailBox@@U?$less@K@std@@V?$allocator@U?$pair@$$CBKPAVCMailBox@@@std@@@3@$0A@@std@@@std@@PAU123@@std@@YAXPAPAU_Node@?$_Tree_nod@V?$_Tmap_traits@KPAVCMailBox@@U?$less@K@std@@V?$allocator@U?$pair@$$CBKPAVCMailBox@@@std@@@3@$0A@@std@@@0@ABQAU120@@Z ; std::_Construct<std::_Tree_nod<std::_Tmap_traits<unsigned long,CMailBox *,std::less<unsigned long>,std::allocator<std::pair<unsigned long const ,CMailBox *> >,0> >::_Node *,std::_Tree_nod<std::_Tmap_traits<unsigned long,CMailBox *,std::less<unsigned long>,std::allocator<std::pair<unsigned long const ,CMailBox *> >,0> >::_Node *>
; Function compile flags: /Ogty
;	COMDAT ??$_Construct@PAU_Node@?$_Tree_nod@V?$_Tmap_traits@KPAVCMailBox@@U?$less@K@std@@V?$allocator@U?$pair@$$CBKPAVCMailBox@@@std@@@3@$0A@@std@@@std@@PAU123@@std@@YAXPAPAU_Node@?$_Tree_nod@V?$_Tmap_traits@KPAVCMailBox@@U?$less@K@std@@V?$allocator@U?$pair@$$CBKPAVCMailBox@@@std@@@3@$0A@@std@@@0@ABQAU120@@Z
_TEXT	SEGMENT
__Ptr$ = 8						; size = 4
__Val$ = 12						; size = 4
??$_Construct@PAU_Node@?$_Tree_nod@V?$_Tmap_traits@KPAVCMailBox@@U?$less@K@std@@V?$allocator@U?$pair@$$CBKPAVCMailBox@@@std@@@3@$0A@@std@@@std@@PAU123@@std@@YAXPAPAU_Node@?$_Tree_nod@V?$_Tmap_traits@KPAVCMailBox@@U?$less@K@std@@V?$allocator@U?$pair@$$CBKPAVCMailBox@@@std@@@3@$0A@@std@@@0@ABQAU120@@Z PROC NEAR ; std::_Construct<std::_Tree_nod<std::_Tmap_traits<unsigned long,CMailBox *,std::less<unsigned long>,std::allocator<std::pair<unsigned long const ,CMailBox *> >,0> >::_Node *,std::_Tree_nod<std::_Tmap_traits<unsigned long,CMailBox *,std::less<unsigned long>,std::allocator<std::pair<unsigned long const ,CMailBox *> >,0> >::_Node *>, COMDAT

; 42   : 	new ((void _FARQ *)_Ptr) _T1(_Val);

  00000	8b 44 24 04	 mov	 eax, DWORD PTR __Ptr$[esp-4]
  00004	85 c0		 test	 eax, eax
  00006	74 08		 je	 SHORT $L202933
  00008	8b 4c 24 08	 mov	 ecx, DWORD PTR __Val$[esp-4]
  0000c	8b 11		 mov	 edx, DWORD PTR [ecx]
  0000e	89 10		 mov	 DWORD PTR [eax], edx
$L202933:

; 43   : 	}

  00010	c3		 ret	 0
??$_Construct@PAU_Node@?$_Tree_nod@V?$_Tmap_traits@KPAVCMailBox@@U?$less@K@std@@V?$allocator@U?$pair@$$CBKPAVCMailBox@@@std@@@3@$0A@@std@@@std@@PAU123@@std@@YAXPAPAU_Node@?$_Tree_nod@V?$_Tmap_traits@KPAVCMailBox@@U?$less@K@std@@V?$allocator@U?$pair@$$CBKPAVCMailBox@@@std@@@3@$0A@@std@@@0@ABQAU120@@Z ENDP ; std::_Construct<std::_Tree_nod<std::_Tmap_traits<unsigned long,CMailBox *,std::less<unsigned long>,std::allocator<std::pair<unsigned long const ,CMailBox *> >,0> >::_Node *,std::_Tree_nod<std::_Tmap_traits<unsigned long,CMailBox *,std::less<unsigned long>,std::allocator<std::pair<unsigned long const ,CMailBox *> >,0> >::_Node *>
_TEXT	ENDS
PUBLIC	??$_Ptr_cat@VCMail@@@std@@YA?AU_Scalar_ptr_iterator_tag@0@PAPAVCMail@@0@Z ; std::_Ptr_cat<CMail>
; Function compile flags: /Ogty
; File c:\program files\microsoft visual studio .net 2003\vc7\include\xutility
;	COMDAT ??$_Ptr_cat@VCMail@@@std@@YA?AU_Scalar_ptr_iterator_tag@0@PAPAVCMail@@0@Z
_TEXT	SEGMENT
__Cat$ = -1						; size = 1
___formal$ = 8						; size = 4
___formal$ = 12						; size = 4
??$_Ptr_cat@VCMail@@@std@@YA?AU_Scalar_ptr_iterator_tag@0@PAPAVCMail@@0@Z PROC NEAR ; std::_Ptr_cat<CMail>, COMDAT

; 218  : 	{	// return pointer category from pointer to pointer arguments

  00000	51		 push	 ecx

; 219  : 	_Scalar_ptr_iterator_tag _Cat;
; 220  : 	return (_Cat);

  00001	8a 44 24 03	 mov	 al, BYTE PTR __Cat$[esp+4]

; 221  : 	}

  00005	59		 pop	 ecx
  00006	c3		 ret	 0
??$_Ptr_cat@VCMail@@@std@@YA?AU_Scalar_ptr_iterator_tag@0@PAPAVCMail@@0@Z ENDP ; std::_Ptr_cat<CMail>
_TEXT	ENDS
PUBLIC	??$_Copy_opt@PAPAVCMail@@PAPAV1@@std@@YAPAPAVCMail@@PAPAV1@00U_Scalar_ptr_iterator_tag@0@@Z ; std::_Copy_opt<CMail * *,CMail * *>
EXTRN	_memmove:NEAR
; Function compile flags: /Ogty
;	COMDAT ??$_Copy_opt@PAPAVCMail@@PAPAV1@@std@@YAPAPAVCMail@@PAPAV1@00U_Scalar_ptr_iterator_tag@0@@Z
_TEXT	SEGMENT
__First$ = 8						; size = 4
__Last$ = 12						; size = 4
__Dest$ = 16						; size = 4
___formal$ = 20						; size = 1
??$_Copy_opt@PAPAVCMail@@PAPAV1@@std@@YAPAPAVCMail@@PAPAV1@00U_Scalar_ptr_iterator_tag@0@@Z PROC NEAR ; std::_Copy_opt<CMail * *,CMail * *>, COMDAT

; 1031 : 	ptrdiff_t _Off = _Last - _First;	// NB: non-overlapping move

  00000	8b 4c 24 04	 mov	 ecx, DWORD PTR __First$[esp-4]
  00004	8b 44 24 08	 mov	 eax, DWORD PTR __Last$[esp-4]
  00008	2b c1		 sub	 eax, ecx
  0000a	56		 push	 esi
  0000b	c1 f8 02	 sar	 eax, 2

; 1032 : 	return ((_OutIt)::memmove(&*_Dest, &*_First,
; 1033 : 		_Off * sizeof (*_First)) + _Off);

  0000e	8d 34 85 00 00
	00 00		 lea	 esi, DWORD PTR [eax*4]
  00015	8b 44 24 10	 mov	 eax, DWORD PTR __Dest$[esp]
  00019	56		 push	 esi
  0001a	51		 push	 ecx
  0001b	50		 push	 eax
  0001c	e8 00 00 00 00	 call	 _memmove
  00021	83 c4 0c	 add	 esp, 12			; 0000000cH
  00024	03 c6		 add	 eax, esi
  00026	5e		 pop	 esi

; 1034 : 	}

  00027	c3		 ret	 0
??$_Copy_opt@PAPAVCMail@@PAPAV1@@std@@YAPAPAVCMail@@PAPAV1@00U_Scalar_ptr_iterator_tag@0@@Z ENDP ; std::_Copy_opt<CMail * *,CMail * *>
_TEXT	ENDS
PUBLIC	??$_Iter_cat@Viterator@?$_Tree@V?$_Tmap_traits@KPAVCMail@@U?$less@K@std@@V?$allocator@U?$pair@$$CBKPAVCMail@@@std@@@3@$0A@@std@@@std@@@std@@YA?AUbidirectional_iterator_tag@0@ABViterator@?$_Tree@V?$_Tmap_traits@KPAVCMail@@U?$less@K@std@@V?$allocator@U?$pair@$$CBKPAVCMail@@@std@@@3@$0A@@std@@@0@@Z ; std::_Iter_cat<std::_Tree<std::_Tmap_traits<unsigned long,CMail *,std::less<unsigned long>,std::allocator<std::pair<unsigned long const ,CMail *> >,0> >::iterator>
; Function compile flags: /Ogty
;	COMDAT ??$_Iter_cat@Viterator@?$_Tree@V?$_Tmap_traits@KPAVCMail@@U?$less@K@std@@V?$allocator@U?$pair@$$CBKPAVCMail@@@std@@@3@$0A@@std@@@std@@@std@@YA?AUbidirectional_iterator_tag@0@ABViterator@?$_Tree@V?$_Tmap_traits@KPAVCMail@@U?$less@K@std@@V?$allocator@U?$pair@$$CBKPAVCMail@@@std@@@3@$0A@@std@@@0@@Z
_TEXT	SEGMENT
___$ReturnUdt$ = 8					; size = 4
___formal$ = 12						; size = 4
??$_Iter_cat@Viterator@?$_Tree@V?$_Tmap_traits@KPAVCMail@@U?$less@K@std@@V?$allocator@U?$pair@$$CBKPAVCMail@@@std@@@3@$0A@@std@@@std@@@std@@YA?AUbidirectional_iterator_tag@0@ABViterator@?$_Tree@V?$_Tmap_traits@KPAVCMail@@U?$less@K@std@@V?$allocator@U?$pair@$$CBKPAVCMail@@@std@@@3@$0A@@std@@@0@@Z PROC NEAR ; std::_Iter_cat<std::_Tree<std::_Tmap_traits<unsigned long,CMail *,std::less<unsigned long>,std::allocator<std::pair<unsigned long const ,CMail *> >,0> >::iterator>, COMDAT

; 202  : 	typename iterator_traits<_Iter>::iterator_category _Cat;
; 203  : 	return (_Cat);

  00000	8b 44 24 04	 mov	 eax, DWORD PTR ___$ReturnUdt$[esp-4]

; 204  : 	}

  00004	c3		 ret	 0
??$_Iter_cat@Viterator@?$_Tree@V?$_Tmap_traits@KPAVCMail@@U?$less@K@std@@V?$allocator@U?$pair@$$CBKPAVCMail@@@std@@@3@$0A@@std@@@std@@@std@@YA?AUbidirectional_iterator_tag@0@ABViterator@?$_Tree@V?$_Tmap_traits@KPAVCMail@@U?$less@K@std@@V?$allocator@U?$pair@$$CBKPAVCMail@@@std@@@3@$0A@@std@@@0@@Z ENDP ; std::_Iter_cat<std::_Tree<std::_Tmap_traits<unsigned long,CMail *,std::less<unsigned long>,std::allocator<std::pair<unsigned long const ,CMail *> >,0> >::iterator>
_TEXT	ENDS
PUBLIC	??$_Destroy_range@PAVCMail@@V?$allocator@PAVCMail@@@std@@@std@@YAXPAPAVCMail@@0AAV?$allocator@PAVCMail@@@0@U_Scalar_ptr_iterator_tag@0@@Z ; std::_Destroy_range<CMail *,std::allocator<CMail *> >
; Function compile flags: /Ogty
; File c:\program files\microsoft visual studio .net 2003\vc7\include\xmemory
;	COMDAT ??$_Destroy_range@PAVCMail@@V?$allocator@PAVCMail@@@std@@@std@@YAXPAPAVCMail@@0AAV?$allocator@PAVCMail@@@0@U_Scalar_ptr_iterator_tag@0@@Z
_TEXT	SEGMENT
__First$ = 8						; size = 4
__Last$ = 12						; size = 4
__Al$ = 16						; size = 4
___formal$ = 20						; size = 1
??$_Destroy_range@PAVCMail@@V?$allocator@PAVCMail@@@std@@@std@@YAXPAPAVCMail@@0AAV?$allocator@PAVCMail@@@0@U_Scalar_ptr_iterator_tag@0@@Z PROC NEAR ; std::_Destroy_range<CMail *,std::allocator<CMail *> >, COMDAT

; 234  : 	}

  00000	c3		 ret	 0
??$_Destroy_range@PAVCMail@@V?$allocator@PAVCMail@@@std@@@std@@YAXPAPAVCMail@@0AAV?$allocator@PAVCMail@@@0@U_Scalar_ptr_iterator_tag@0@@Z ENDP ; std::_Destroy_range<CMail *,std::allocator<CMail *> >
_TEXT	ENDS
PUBLIC	??$_Copy_backward_opt@PAPAVCMail@@PAPAV1@@std@@YAPAPAVCMail@@PAPAV1@00U_Scalar_ptr_iterator_tag@0@@Z ; std::_Copy_backward_opt<CMail * *,CMail * *>
; Function compile flags: /Ogty
; File c:\program files\microsoft visual studio .net 2003\vc7\include\xutility
;	COMDAT ??$_Copy_backward_opt@PAPAVCMail@@PAPAV1@@std@@YAPAPAVCMail@@PAPAV1@00U_Scalar_ptr_iterator_tag@0@@Z
_TEXT	SEGMENT
__First$ = 8						; size = 4
__Last$ = 12						; size = 4
__Dest$ = 16						; size = 4
___formal$ = 20						; size = 1
??$_Copy_backward_opt@PAPAVCMail@@PAPAV1@@std@@YAPAPAVCMail@@PAPAV1@00U_Scalar_ptr_iterator_tag@0@@Z PROC NEAR ; std::_Copy_backward_opt<CMail * *,CMail * *>, COMDAT

; 1059 : 	ptrdiff_t _Off = _Last - _First;	// NB: non-overlapping move

  00000	8b 4c 24 04	 mov	 ecx, DWORD PTR __First$[esp-4]
  00004	8b 44 24 08	 mov	 eax, DWORD PTR __Last$[esp-4]
  00008	2b c1		 sub	 eax, ecx
  0000a	c1 f8 02	 sar	 eax, 2

; 1060 : 	return ((_OutIt)memmove(&*_Dest - _Off, &*_First,
; 1061 : 		_Off * sizeof (*_First)));

  0000d	c1 e0 02	 shl	 eax, 2
  00010	50		 push	 eax
  00011	51		 push	 ecx
  00012	8b 4c 24 14	 mov	 ecx, DWORD PTR __Dest$[esp+4]
  00016	2b c8		 sub	 ecx, eax
  00018	51		 push	 ecx
  00019	e8 00 00 00 00	 call	 _memmove
  0001e	83 c4 0c	 add	 esp, 12			; 0000000cH

; 1062 : 	}

  00021	c3		 ret	 0
??$_Copy_backward_opt@PAPAVCMail@@PAPAV1@@std@@YAPAPAVCMail@@PAPAV1@00U_Scalar_ptr_iterator_tag@0@@Z ENDP ; std::_Copy_backward_opt<CMail * *,CMail * *>
_TEXT	ENDS
PUBLIC	??$fill_n@PAPAVCMail@@IPAV1@@std@@YAXPAPAVCMail@@IABQAV1@@Z ; std::fill_n<CMail * *,unsigned int,CMail *>
; Function compile flags: /Ogty
;	COMDAT ??$fill_n@PAPAVCMail@@IPAV1@@std@@YAXPAPAVCMail@@IABQAV1@@Z
_TEXT	SEGMENT
__First$ = 8						; size = 4
__Count$ = 12						; size = 4
__Val$ = 16						; size = 4
??$fill_n@PAPAVCMail@@IPAV1@@std@@YAXPAPAVCMail@@IABQAV1@@Z PROC NEAR ; std::fill_n<CMail * *,unsigned int,CMail *>, COMDAT

; 1160 : 	for (; 0 < _Count; --_Count, ++_First)

  00000	8b 4c 24 08	 mov	 ecx, DWORD PTR __Count$[esp-4]
  00004	85 c9		 test	 ecx, ecx
  00006	76 14		 jbe	 SHORT $L201903
  00008	8b 54 24 0c	 mov	 edx, DWORD PTR __Val$[esp-4]
  0000c	8b 44 24 04	 mov	 eax, DWORD PTR __First$[esp-4]
  00010	56		 push	 esi
$L201901:

; 1161 : 		*_First = _Val;

  00011	8b 32		 mov	 esi, DWORD PTR [edx]
  00013	89 30		 mov	 DWORD PTR [eax], esi
  00015	83 c0 04	 add	 eax, 4
  00018	49		 dec	 ecx
  00019	75 f6		 jne	 SHORT $L201901
  0001b	5e		 pop	 esi
$L201903:

; 1162 : 	}

  0001c	c3		 ret	 0
??$fill_n@PAPAVCMail@@IPAV1@@std@@YAXPAPAVCMail@@IABQAV1@@Z ENDP ; std::fill_n<CMail * *,unsigned int,CMail *>
_TEXT	ENDS
PUBLIC	??$_Uninit_copy@PAVCMail@@PAV1@@std@@YAPAPAVCMail@@PAPAV1@00AAV?$allocator@PAVCMail@@@0@U_Scalar_ptr_iterator_tag@0@@Z ; std::_Uninit_copy<CMail *,CMail *>
; Function compile flags: /Ogty
; File c:\program files\microsoft visual studio .net 2003\vc7\include\memory
;	COMDAT ??$_Uninit_copy@PAVCMail@@PAV1@@std@@YAPAPAVCMail@@PAPAV1@00AAV?$allocator@PAVCMail@@@0@U_Scalar_ptr_iterator_tag@0@@Z
_TEXT	SEGMENT
__First$ = 8						; size = 4
__Last$ = 12						; size = 4
__Dest$ = 16						; size = 4
___formal$ = 20						; size = 4
___formal$ = 24						; size = 1
??$_Uninit_copy@PAVCMail@@PAV1@@std@@YAPAPAVCMail@@PAPAV1@00AAV?$allocator@PAVCMail@@@0@U_Scalar_ptr_iterator_tag@0@@Z PROC NEAR ; std::_Uninit_copy<CMail *,CMail *>, COMDAT

; 106  : 	size_t _Count = (size_t)(_Last - _First);

  00000	8b 4c 24 04	 mov	 ecx, DWORD PTR __First$[esp-4]
  00004	8b 44 24 08	 mov	 eax, DWORD PTR __Last$[esp-4]
  00008	2b c1		 sub	 eax, ecx
  0000a	56		 push	 esi
  0000b	c1 f8 02	 sar	 eax, 2

; 107  : 	return ((_Ty2 *)memmove(&*_Dest, &*_First,
; 108  : 		_Count * sizeof (*_First)) + _Count);	// NB: non-overlapping move

  0000e	8d 34 85 00 00
	00 00		 lea	 esi, DWORD PTR [eax*4]
  00015	8b 44 24 10	 mov	 eax, DWORD PTR __Dest$[esp]
  00019	56		 push	 esi
  0001a	51		 push	 ecx
  0001b	50		 push	 eax
  0001c	e8 00 00 00 00	 call	 _memmove
  00021	83 c4 0c	 add	 esp, 12			; 0000000cH
  00024	03 c6		 add	 eax, esi
  00026	5e		 pop	 esi

; 109  : 	}

  00027	c3		 ret	 0
??$_Uninit_copy@PAVCMail@@PAV1@@std@@YAPAPAVCMail@@PAPAV1@00AAV?$allocator@PAVCMail@@@0@U_Scalar_ptr_iterator_tag@0@@Z ENDP ; std::_Uninit_copy<CMail *,CMail *>
_TEXT	ENDS
PUBLIC	??0COleDateTimeSpan@ATL@@QAE@XZ			; ATL::COleDateTimeSpan::COleDateTimeSpan
PUBLIC	__real@0000000000000000
EXTRN	__fltused:NEAR
;	COMDAT __real@0000000000000000
; File c:\program files\microsoft visual studio .net 2003\vc7\atlmfc\include\atlcomtime.inl
CONST	SEGMENT
__real@0000000000000000 DQ 00000000000000000r	; 0
; Function compile flags: /Ogty
CONST	ENDS
;	COMDAT ??0COleDateTimeSpan@ATL@@QAE@XZ
_TEXT	SEGMENT
??0COleDateTimeSpan@ATL@@QAE@XZ PROC NEAR		; ATL::COleDateTimeSpan::COleDateTimeSpan, COMDAT
; _this$ = ecx

; 30   : {

  00000	dd 05 00 00 00
	00		 fld	 QWORD PTR __real@0000000000000000
  00006	8b c1		 mov	 eax, ecx
  00008	dd 18		 fstp	 QWORD PTR [eax]
  0000a	c7 40 08 00 00
	00 00		 mov	 DWORD PTR [eax+8], 0

; 31   : }

  00011	c3		 ret	 0
??0COleDateTimeSpan@ATL@@QAE@XZ ENDP			; ATL::COleDateTimeSpan::COleDateTimeSpan
_TEXT	ENDS
PUBLIC	?SetStatus@COleDateTimeSpan@ATL@@QAEXW4DateTimeSpanStatus@12@@Z ; ATL::COleDateTimeSpan::SetStatus
; Function compile flags: /Ogty
;	COMDAT ?SetStatus@COleDateTimeSpan@ATL@@QAEXW4DateTimeSpanStatus@12@@Z
_TEXT	SEGMENT
_status$ = 8						; size = 4
?SetStatus@COleDateTimeSpan@ATL@@QAEXW4DateTimeSpanStatus@12@@Z PROC NEAR ; ATL::COleDateTimeSpan::SetStatus, COMDAT
; _this$ = ecx

; 45   : 	m_status = status;

  00000	8b 44 24 04	 mov	 eax, DWORD PTR _status$[esp-4]
  00004	89 41 08	 mov	 DWORD PTR [ecx+8], eax

; 46   : }

  00007	c2 04 00	 ret	 4
?SetStatus@COleDateTimeSpan@ATL@@QAEXW4DateTimeSpanStatus@12@@Z ENDP ; ATL::COleDateTimeSpan::SetStatus
_TEXT	ENDS
PUBLIC	?GetStatus@COleDateTimeSpan@ATL@@QBE?AW4DateTimeSpanStatus@12@XZ ; ATL::COleDateTimeSpan::GetStatus
; Function compile flags: /Ogty
;	COMDAT ?GetStatus@COleDateTimeSpan@ATL@@QBE?AW4DateTimeSpanStatus@12@XZ
_TEXT	SEGMENT
?GetStatus@COleDateTimeSpan@ATL@@QBE?AW4DateTimeSpanStatus@12@XZ PROC NEAR ; ATL::COleDateTimeSpan::GetStatus, COMDAT
; _this$ = ecx

; 50   : 	return m_status;

  00000	8b 41 08	 mov	 eax, DWORD PTR [ecx+8]

; 51   : }

  00003	c3		 ret	 0
?GetStatus@COleDateTimeSpan@ATL@@QBE?AW4DateTimeSpanStatus@12@XZ ENDP ; ATL::COleDateTimeSpan::GetStatus
_TEXT	ENDS
PUBLIC	?GetTotalDays@COleDateTimeSpan@ATL@@QBENXZ	; ATL::COleDateTimeSpan::GetTotalDays
PUBLIC	__real@bed845c8a0ce5129
EXTRN	__ftol2:NEAR
;	COMDAT __real@bed845c8a0ce5129
CONST	SEGMENT
__real@bed845c8a0ce5129 DQ 0bed845c8a0ce5129r	; -5.78704e-006
; Function compile flags: /Ogty
CONST	ENDS
;	COMDAT ?GetTotalDays@COleDateTimeSpan@ATL@@QBENXZ
_TEXT	SEGMENT
tv68 = -4						; size = 4
?GetTotalDays@COleDateTimeSpan@ATL@@QBENXZ PROC NEAR	; ATL::COleDateTimeSpan::GetTotalDays, COMDAT
; _this$ = ecx

; 58   : {

  00000	51		 push	 ecx

; 59   : 	ATLASSERT(GetStatus() == valid);
; 60   : 
; 61   : 	return LONG(m_span + (m_span < 0 ?
; 62   : 		-OLE_DATETIME_HALFSECOND : OLE_DATETIME_HALFSECOND));

  00001	dd 01		 fld	 QWORD PTR [ecx]
  00003	dc 1d 00 00 00
	00		 fcomp	 QWORD PTR __real@0000000000000000
  00009	df e0		 fnstsw	 ax
  0000b	f6 c4 05	 test	 ah, 5
  0000e	7a 15		 jp	 SHORT $L202965
  00010	dd 05 00 00 00
	00		 fld	 QWORD PTR __real@bed845c8a0ce5129
  00016	dc 01		 fadd	 QWORD PTR [ecx]
  00018	e8 00 00 00 00	 call	 __ftol2
  0001d	89 04 24	 mov	 DWORD PTR tv68[esp+4], eax
  00020	db 04 24	 fild	 DWORD PTR tv68[esp+4]

; 63   : }

  00023	59		 pop	 ecx
  00024	c3		 ret	 0
$L202965:

; 59   : 	ATLASSERT(GetStatus() == valid);
; 60   : 
; 61   : 	return LONG(m_span + (m_span < 0 ?
; 62   : 		-OLE_DATETIME_HALFSECOND : OLE_DATETIME_HALFSECOND));

  00025	dd 05 00 00 00
	00		 fld	 QWORD PTR ?OLE_DATETIME_HALFSECOND@COleDateTimeSpan@ATL@@0NB ; ATL::COleDateTimeSpan::OLE_DATETIME_HALFSECOND
  0002b	dc 01		 fadd	 QWORD PTR [ecx]
  0002d	e8 00 00 00 00	 call	 __ftol2
  00032	89 04 24	 mov	 DWORD PTR tv68[esp+4], eax
  00035	db 04 24	 fild	 DWORD PTR tv68[esp+4]

; 63   : }

  00038	59		 pop	 ecx
  00039	c3		 ret	 0
?GetTotalDays@COleDateTimeSpan@ATL@@QBENXZ ENDP		; ATL::COleDateTimeSpan::GetTotalDays
_TEXT	ENDS
PUBLIC	?GetTotalHours@COleDateTimeSpan@ATL@@QBENXZ	; ATL::COleDateTimeSpan::GetTotalHours
PUBLIC	__real@4038000000000000
;	COMDAT __real@4038000000000000
CONST	SEGMENT
__real@4038000000000000 DQ 04038000000000000r	; 24
; Function compile flags: /Ogty
CONST	ENDS
;	COMDAT ?GetTotalHours@COleDateTimeSpan@ATL@@QBENXZ
_TEXT	SEGMENT
tv128 = -4						; size = 4
?GetTotalHours@COleDateTimeSpan@ATL@@QBENXZ PROC NEAR	; ATL::COleDateTimeSpan::GetTotalHours, COMDAT
; _this$ = ecx

; 66   : {

  00000	51		 push	 ecx

; 67   : 	ATLASSERT(GetStatus() == valid);
; 68   : 
; 69   : 	return LONG((m_span + (m_span < 0 ? 
; 70   : 		-OLE_DATETIME_HALFSECOND : OLE_DATETIME_HALFSECOND)) * 24);

  00001	dd 01		 fld	 QWORD PTR [ecx]
  00003	dc 1d 00 00 00
	00		 fcomp	 QWORD PTR __real@0000000000000000
  00009	df e0		 fnstsw	 ax
  0000b	f6 c4 05	 test	 ah, 5
  0000e	7a 08		 jp	 SHORT $L202972
  00010	dd 05 00 00 00
	00		 fld	 QWORD PTR __real@bed845c8a0ce5129
  00016	eb 06		 jmp	 SHORT $L202973
$L202972:
  00018	dd 05 00 00 00
	00		 fld	 QWORD PTR ?OLE_DATETIME_HALFSECOND@COleDateTimeSpan@ATL@@0NB ; ATL::COleDateTimeSpan::OLE_DATETIME_HALFSECOND
$L202973:
  0001e	dc 01		 fadd	 QWORD PTR [ecx]
  00020	dc 0d 00 00 00
	00		 fmul	 QWORD PTR __real@4038000000000000
  00026	e8 00 00 00 00	 call	 __ftol2
  0002b	89 04 24	 mov	 DWORD PTR tv128[esp+4], eax
  0002e	db 04 24	 fild	 DWORD PTR tv128[esp+4]

; 71   : }

  00031	59		 pop	 ecx
  00032	c3		 ret	 0
?GetTotalHours@COleDateTimeSpan@ATL@@QBENXZ ENDP	; ATL::COleDateTimeSpan::GetTotalHours
_TEXT	ENDS
PUBLIC	__real@c14b964c80000000
PUBLIC	__real@414b964c80000000
PUBLIC	?CheckRange@COleDateTimeSpan@ATL@@QAEXXZ	; ATL::COleDateTimeSpan::CheckRange
;	COMDAT __real@c14b964c80000000
CONST	SEGMENT
__real@c14b964c80000000 DQ 0c14b964c80000000r	; -3.6159e+006
CONST	ENDS
;	COMDAT __real@414b964c80000000
CONST	SEGMENT
__real@414b964c80000000 DQ 0414b964c80000000r	; 3.6159e+006
; Function compile flags: /Ogty
CONST	ENDS
;	COMDAT ?CheckRange@COleDateTimeSpan@ATL@@QAEXXZ
_TEXT	SEGMENT
?CheckRange@COleDateTimeSpan@ATL@@QAEXXZ PROC NEAR	; ATL::COleDateTimeSpan::CheckRange, COMDAT
; _this$ = ecx

; 255  : 	if(m_span < -maxDaysInSpan || m_span > maxDaysInSpan)

  00000	dd 01		 fld	 QWORD PTR [ecx]
  00002	dc 1d 00 00 00
	00		 fcomp	 QWORD PTR __real@c14b964c80000000
  00008	df e0		 fnstsw	 ax
  0000a	f6 c4 05	 test	 ah, 5
  0000d	7b 0f		 jnp	 SHORT $L108646
  0000f	dd 01		 fld	 QWORD PTR [ecx]
  00011	dc 1d 00 00 00
	00		 fcomp	 QWORD PTR __real@414b964c80000000
  00017	df e0		 fnstsw	 ax
  00019	f6 c4 41	 test	 ah, 65			; 00000041H
  0001c	75 07		 jne	 SHORT $L108645
$L108646:

; 256  : 		m_status = invalid;

  0001e	c7 41 08 01 00
	00 00		 mov	 DWORD PTR [ecx+8], 1
$L108645:

; 257  : }

  00025	c3		 ret	 0
?CheckRange@COleDateTimeSpan@ATL@@QAEXXZ ENDP		; ATL::COleDateTimeSpan::CheckRange
_TEXT	ENDS
PUBLIC	??0COleDateTime@ATL@@QAE@XZ			; ATL::COleDateTime::COleDateTime
; Function compile flags: /Ogty
;	COMDAT ??0COleDateTime@ATL@@QAE@XZ
_TEXT	SEGMENT
??0COleDateTime@ATL@@QAE@XZ PROC NEAR			; ATL::COleDateTime::COleDateTime, COMDAT
; _this$ = ecx

; 270  : {

  00000	dd 05 00 00 00
	00		 fld	 QWORD PTR __real@0000000000000000
  00006	8b c1		 mov	 eax, ecx
  00008	dd 18		 fstp	 QWORD PTR [eax]
  0000a	c7 40 08 00 00
	00 00		 mov	 DWORD PTR [eax+8], 0

; 271  : }

  00011	c3		 ret	 0
??0COleDateTime@ATL@@QAE@XZ ENDP			; ATL::COleDateTime::COleDateTime
_TEXT	ENDS
PUBLIC	?GetStatus@COleDateTime@ATL@@QBE?AW4DateTimeStatus@12@XZ ; ATL::COleDateTime::GetStatus
; Function compile flags: /Ogty
;	COMDAT ?GetStatus@COleDateTime@ATL@@QBE?AW4DateTimeStatus@12@XZ
_TEXT	SEGMENT
?GetStatus@COleDateTime@ATL@@QBE?AW4DateTimeStatus@12@XZ PROC NEAR ; ATL::COleDateTime::GetStatus, COMDAT
; _this$ = ecx

; 331  : 	return m_status;

  00000	8b 41 08	 mov	 eax, DWORD PTR [ecx+8]

; 332  : }

  00003	c3		 ret	 0
?GetStatus@COleDateTime@ATL@@QBE?AW4DateTimeStatus@12@XZ ENDP ; ATL::COleDateTime::GetStatus
_TEXT	ENDS
PUBLIC	?GetAsSystemTime@COleDateTime@ATL@@QBE_NAAU_SYSTEMTIME@@@Z ; ATL::COleDateTime::GetAsSystemTime
EXTRN	__imp__VariantTimeToSystemTime@12:NEAR
; Function compile flags: /Ogty
;	COMDAT ?GetAsSystemTime@COleDateTime@ATL@@QBE_NAAU_SYSTEMTIME@@@Z
_TEXT	SEGMENT
_sysTime$ = 8						; size = 4
?GetAsSystemTime@COleDateTime@ATL@@QBE_NAAU_SYSTEMTIME@@@Z PROC NEAR ; ATL::COleDateTime::GetAsSystemTime, COMDAT
; _this$ = ecx

; 336  : 	return GetStatus() == valid && ::VariantTimeToSystemTime(m_dt, &sysTime);

  00000	8b 41 08	 mov	 eax, DWORD PTR [ecx+8]
  00003	85 c0		 test	 eax, eax
  00005	75 1f		 jne	 SHORT $L202988
  00007	8b 44 24 04	 mov	 eax, DWORD PTR _sysTime$[esp-4]
  0000b	dd 01		 fld	 QWORD PTR [ecx]
  0000d	50		 push	 eax
  0000e	83 ec 08	 sub	 esp, 8
  00011	dd 1c 24	 fstp	 QWORD PTR [esp]
  00014	ff 15 00 00 00
	00		 call	 DWORD PTR __imp__VariantTimeToSystemTime@12
  0001a	85 c0		 test	 eax, eax
  0001c	74 08		 je	 SHORT $L202988
  0001e	b8 01 00 00 00	 mov	 eax, 1

; 337  : }

  00023	c2 04 00	 ret	 4
$L202988:

; 336  : 	return GetStatus() == valid && ::VariantTimeToSystemTime(m_dt, &sysTime);

  00026	33 c0		 xor	 eax, eax

; 337  : }

  00028	c2 04 00	 ret	 4
?GetAsSystemTime@COleDateTime@ATL@@QBE_NAAU_SYSTEMTIME@@@Z ENDP ; ATL::COleDateTime::GetAsSystemTime
_TEXT	ENDS
PUBLIC	?GetDay@COleDateTime@ATL@@QBEHXZ		; ATL::COleDateTime::GetDay
; Function compile flags: /Ogty
;	COMDAT ?GetDay@COleDateTime@ATL@@QBEHXZ
_TEXT	SEGMENT
_st$ = -16						; size = 16
?GetDay@COleDateTime@ATL@@QBEHXZ PROC NEAR		; ATL::COleDateTime::GetDay, COMDAT
; _this$ = ecx

; 358  : 	SYSTEMTIME st;
; 359  : 	return GetAsSystemTime(st) ? st.wDay : error;

  00000	8b 41 08	 mov	 eax, DWORD PTR [ecx+8]
  00003	83 ec 10	 sub	 esp, 16			; 00000010H
  00006	85 c0		 test	 eax, eax
  00008	75 1f		 jne	 SHORT $L202996
  0000a	dd 01		 fld	 QWORD PTR [ecx]
  0000c	8d 04 24	 lea	 eax, DWORD PTR _st$[esp+16]
  0000f	50		 push	 eax
  00010	83 ec 08	 sub	 esp, 8
  00013	dd 1c 24	 fstp	 QWORD PTR [esp]
  00016	ff 15 00 00 00
	00		 call	 DWORD PTR __imp__VariantTimeToSystemTime@12
  0001c	85 c0		 test	 eax, eax
  0001e	74 09		 je	 SHORT $L202996
  00020	0f b7 44 24 06	 movzx	 eax, WORD PTR _st$[esp+22]

; 360  : }

  00025	83 c4 10	 add	 esp, 16			; 00000010H
  00028	c3		 ret	 0
$L202996:

; 358  : 	SYSTEMTIME st;
; 359  : 	return GetAsSystemTime(st) ? st.wDay : error;

  00029	83 c8 ff	 or	 eax, -1

; 360  : }

  0002c	83 c4 10	 add	 esp, 16			; 00000010H
  0002f	c3		 ret	 0
?GetDay@COleDateTime@ATL@@QBEHXZ ENDP			; ATL::COleDateTime::GetDay
_TEXT	ENDS
PUBLIC	?GetHour@COleDateTime@ATL@@QBEHXZ		; ATL::COleDateTime::GetHour
; Function compile flags: /Ogty
;	COMDAT ?GetHour@COleDateTime@ATL@@QBEHXZ
_TEXT	SEGMENT
_st$ = -16						; size = 16
?GetHour@COleDateTime@ATL@@QBEHXZ PROC NEAR		; ATL::COleDateTime::GetHour, COMDAT
; _this$ = ecx

; 364  : 	SYSTEMTIME st;
; 365  : 	return GetAsSystemTime(st) ? st.wHour : error;

  00000	8b 41 08	 mov	 eax, DWORD PTR [ecx+8]
  00003	83 ec 10	 sub	 esp, 16			; 00000010H
  00006	85 c0		 test	 eax, eax
  00008	75 1f		 jne	 SHORT $L203014
  0000a	dd 01		 fld	 QWORD PTR [ecx]
  0000c	8d 04 24	 lea	 eax, DWORD PTR _st$[esp+16]
  0000f	50		 push	 eax
  00010	83 ec 08	 sub	 esp, 8
  00013	dd 1c 24	 fstp	 QWORD PTR [esp]
  00016	ff 15 00 00 00
	00		 call	 DWORD PTR __imp__VariantTimeToSystemTime@12
  0001c	85 c0		 test	 eax, eax
  0001e	74 09		 je	 SHORT $L203014
  00020	0f b7 44 24 08	 movzx	 eax, WORD PTR _st$[esp+24]

; 366  : }

  00025	83 c4 10	 add	 esp, 16			; 00000010H
  00028	c3		 ret	 0
$L203014:

; 364  : 	SYSTEMTIME st;
; 365  : 	return GetAsSystemTime(st) ? st.wHour : error;

  00029	83 c8 ff	 or	 eax, -1

; 366  : }

  0002c	83 c4 10	 add	 esp, 16			; 00000010H
  0002f	c3		 ret	 0
?GetHour@COleDateTime@ATL@@QBEHXZ ENDP			; ATL::COleDateTime::GetHour
_TEXT	ENDS
PUBLIC	?GetMinute@COleDateTime@ATL@@QBEHXZ		; ATL::COleDateTime::GetMinute
; Function compile flags: /Ogty
;	COMDAT ?GetMinute@COleDateTime@ATL@@QBEHXZ
_TEXT	SEGMENT
_st$ = -16						; size = 16
?GetMinute@COleDateTime@ATL@@QBEHXZ PROC NEAR		; ATL::COleDateTime::GetMinute, COMDAT
; _this$ = ecx

; 370  : 	SYSTEMTIME st;
; 371  : 	return GetAsSystemTime(st) ? st.wMinute : error;

  00000	8b 41 08	 mov	 eax, DWORD PTR [ecx+8]
  00003	83 ec 10	 sub	 esp, 16			; 00000010H
  00006	85 c0		 test	 eax, eax
  00008	75 1f		 jne	 SHORT $L203032
  0000a	dd 01		 fld	 QWORD PTR [ecx]
  0000c	8d 04 24	 lea	 eax, DWORD PTR _st$[esp+16]
  0000f	50		 push	 eax
  00010	83 ec 08	 sub	 esp, 8
  00013	dd 1c 24	 fstp	 QWORD PTR [esp]
  00016	ff 15 00 00 00
	00		 call	 DWORD PTR __imp__VariantTimeToSystemTime@12
  0001c	85 c0		 test	 eax, eax
  0001e	74 09		 je	 SHORT $L203032
  00020	0f b7 44 24 0a	 movzx	 eax, WORD PTR _st$[esp+26]

; 372  : }

  00025	83 c4 10	 add	 esp, 16			; 00000010H
  00028	c3		 ret	 0
$L203032:

; 370  : 	SYSTEMTIME st;
; 371  : 	return GetAsSystemTime(st) ? st.wMinute : error;

  00029	83 c8 ff	 or	 eax, -1

; 372  : }

  0002c	83 c4 10	 add	 esp, 16			; 00000010H
  0002f	c3		 ret	 0
?GetMinute@COleDateTime@ATL@@QBEHXZ ENDP		; ATL::COleDateTime::GetMinute
_TEXT	ENDS
PUBLIC	?GetSecond@COleDateTime@ATL@@QBEHXZ		; ATL::COleDateTime::GetSecond
; Function compile flags: /Ogty
;	COMDAT ?GetSecond@COleDateTime@ATL@@QBEHXZ
_TEXT	SEGMENT
_st$ = -16						; size = 16
?GetSecond@COleDateTime@ATL@@QBEHXZ PROC NEAR		; ATL::COleDateTime::GetSecond, COMDAT
; _this$ = ecx

; 376  : 	SYSTEMTIME st;
; 377  : 	return GetAsSystemTime(st) ? st.wSecond : error;

  00000	8b 41 08	 mov	 eax, DWORD PTR [ecx+8]
  00003	83 ec 10	 sub	 esp, 16			; 00000010H
  00006	85 c0		 test	 eax, eax
  00008	75 1f		 jne	 SHORT $L203050
  0000a	dd 01		 fld	 QWORD PTR [ecx]
  0000c	8d 04 24	 lea	 eax, DWORD PTR _st$[esp+16]
  0000f	50		 push	 eax
  00010	83 ec 08	 sub	 esp, 8
  00013	dd 1c 24	 fstp	 QWORD PTR [esp]
  00016	ff 15 00 00 00
	00		 call	 DWORD PTR __imp__VariantTimeToSystemTime@12
  0001c	85 c0		 test	 eax, eax
  0001e	74 09		 je	 SHORT $L203050
  00020	0f b7 44 24 0c	 movzx	 eax, WORD PTR _st$[esp+28]

; 378  : }

  00025	83 c4 10	 add	 esp, 16			; 00000010H
  00028	c3		 ret	 0
$L203050:

; 376  : 	SYSTEMTIME st;
; 377  : 	return GetAsSystemTime(st) ? st.wSecond : error;

  00029	83 c8 ff	 or	 eax, -1

; 378  : }

  0002c	83 c4 10	 add	 esp, 16			; 00000010H
  0002f	c3		 ret	 0
?GetSecond@COleDateTime@ATL@@QBEHXZ ENDP		; ATL::COleDateTime::GetSecond
_TEXT	ENDS
PUBLIC	?SetDateTime@COleDateTime@ATL@@QAEHHHHHHH@Z	; ATL::COleDateTime::SetDateTime
EXTRN	__imp__SystemTimeToVariantTime@8:NEAR
; Function compile flags: /Ogty
;	COMDAT ?SetDateTime@COleDateTime@ATL@@QAEHHHHHHH@Z
_TEXT	SEGMENT
_st$ = -32						; size = 16
_sysTime$ = -16						; size = 16
_nYear$ = 8						; size = 4
_nMonth$ = 12						; size = 4
_nDay$ = 16						; size = 4
_nHour$ = 20						; size = 4
_nMin$ = 24						; size = 4
_nSec$ = 28						; size = 4
?SetDateTime@COleDateTime@ATL@@QAEHHHHHHH@Z PROC NEAR	; ATL::COleDateTime::SetDateTime, COMDAT
; _this$ = ecx

; 581  : {

  00000	83 ec 20	 sub	 esp, 32			; 00000020H

; 582  : 	SYSTEMTIME st;
; 583  : 	SYSTEMTIME sysTime;
; 584  : 	::ZeroMemory(&st, sizeof(SYSTEMTIME));
; 585  : 	::ZeroMemory(&sysTime, sizeof(SYSTEMTIME));
; 586  : 
; 587  : 	st.wYear = WORD(nYear);

  00003	66 8b 54 24 24	 mov	 dx, WORD PTR _nYear$[esp+28]
  00008	56		 push	 esi
  00009	8b f1		 mov	 esi, ecx
  0000b	33 c0		 xor	 eax, eax
  0000d	33 c9		 xor	 ecx, ecx
  0000f	89 44 24 04	 mov	 DWORD PTR _st$[esp+36], eax
  00013	89 4c 24 14	 mov	 DWORD PTR _sysTime$[esp+36], ecx
  00017	89 44 24 08	 mov	 DWORD PTR _st$[esp+40], eax
  0001b	89 44 24 0c	 mov	 DWORD PTR _st$[esp+44], eax
  0001f	89 4c 24 18	 mov	 DWORD PTR _sysTime$[esp+40], ecx
  00023	89 4c 24 1c	 mov	 DWORD PTR _sysTime$[esp+44], ecx
  00027	89 44 24 10	 mov	 DWORD PTR _st$[esp+48], eax

; 588  : 	st.wMonth = WORD(nMonth);

  0002b	66 8b 44 24 2c	 mov	 ax, WORD PTR _nMonth$[esp+32]
  00030	66 89 54 24 04	 mov	 WORD PTR _st$[esp+36], dx

; 589  : 	st.wDay = WORD(nDay);
; 590  : 	st.wHour = WORD(nHour);

  00035	66 8b 54 24 34	 mov	 dx, WORD PTR _nHour$[esp+32]
  0003a	89 4c 24 20	 mov	 DWORD PTR _sysTime$[esp+48], ecx
  0003e	66 8b 4c 24 30	 mov	 cx, WORD PTR _nDay$[esp+32]
  00043	66 89 54 24 0c	 mov	 WORD PTR _st$[esp+44], dx
  00048	66 89 44 24 06	 mov	 WORD PTR _st$[esp+38], ax

; 591  : 	st.wMinute = WORD(nMin);

  0004d	66 8b 44 24 38	 mov	 ax, WORD PTR _nMin$[esp+32]
  00052	66 89 4c 24 0a	 mov	 WORD PTR _st$[esp+42], cx

; 592  : 	st.wSecond = WORD(nSec);

  00057	66 8b 4c 24 3c	 mov	 cx, WORD PTR _nSec$[esp+32]

; 593  : 
; 594  : 	if (!::SystemTimeToVariantTime(&st, &m_dt))

  0005c	56		 push	 esi
  0005d	8d 54 24 08	 lea	 edx, DWORD PTR _st$[esp+40]
  00061	52		 push	 edx
  00062	66 89 44 24 16	 mov	 WORD PTR _st$[esp+54], ax
  00067	66 89 4c 24 18	 mov	 WORD PTR _st$[esp+56], cx
  0006c	ff 15 00 00 00
	00		 call	 DWORD PTR __imp__SystemTimeToVariantTime@8
  00072	85 c0		 test	 eax, eax

; 595  : 		return m_status = invalid;

  00074	74 67		 je	 SHORT $L203068

; 596  : 
; 597  : 	// Since SystemTimeToVariantTime tries to fix invalid dates, we cannot rely on it to tell us
; 598  : 	// whether the original SYSTEMTIME was incorrect. We check that using an additional call
; 599  : 	// to VariantTimeToSystemTime and then compare all SYSTEMTIME fields except for wDayOfWeek and
; 600  : 	// wMilliseconds.
; 601  : 	::VariantTimeToSystemTime(m_dt, &sysTime);

  00076	dd 06		 fld	 QWORD PTR [esi]
  00078	8d 44 24 14	 lea	 eax, DWORD PTR _sysTime$[esp+36]
  0007c	50		 push	 eax
  0007d	83 ec 08	 sub	 esp, 8
  00080	dd 1c 24	 fstp	 QWORD PTR [esp]
  00083	ff 15 00 00 00
	00		 call	 DWORD PTR __imp__VariantTimeToSystemTime@12

; 602  : 	return( m_status = (st.wYear == sysTime.wYear &&
; 603  : 				st.wMonth == sysTime.wMonth &&
; 604  : 				st.wDay == sysTime.wDay &&
; 605  : 				st.wHour == sysTime.wHour &&
; 606  : 				st.wMinute == sysTime.wMinute && 
; 607  : 				st.wSecond == sysTime.wSecond) ? valid : invalid );

  00089	66 8b 4c 24 04	 mov	 cx, WORD PTR _st$[esp+36]
  0008e	66 3b 4c 24 14	 cmp	 cx, WORD PTR _sysTime$[esp+36]
  00093	75 48		 jne	 SHORT $L203068
  00095	66 8b 54 24 06	 mov	 dx, WORD PTR _st$[esp+38]
  0009a	66 3b 54 24 16	 cmp	 dx, WORD PTR _sysTime$[esp+38]
  0009f	75 3c		 jne	 SHORT $L203068
  000a1	66 8b 44 24 0a	 mov	 ax, WORD PTR _st$[esp+42]
  000a6	66 3b 44 24 1a	 cmp	 ax, WORD PTR _sysTime$[esp+42]
  000ab	75 30		 jne	 SHORT $L203068
  000ad	66 8b 4c 24 0c	 mov	 cx, WORD PTR _st$[esp+44]
  000b2	66 3b 4c 24 1c	 cmp	 cx, WORD PTR _sysTime$[esp+44]
  000b7	75 24		 jne	 SHORT $L203068
  000b9	66 8b 54 24 0e	 mov	 dx, WORD PTR _st$[esp+46]
  000be	66 3b 54 24 1e	 cmp	 dx, WORD PTR _sysTime$[esp+46]
  000c3	75 18		 jne	 SHORT $L203068
  000c5	66 8b 44 24 10	 mov	 ax, WORD PTR _st$[esp+48]
  000ca	66 3b 44 24 20	 cmp	 ax, WORD PTR _sysTime$[esp+48]
  000cf	75 0c		 jne	 SHORT $L203068
  000d1	33 c0		 xor	 eax, eax
  000d3	89 46 08	 mov	 DWORD PTR [esi+8], eax
  000d6	5e		 pop	 esi

; 608  : }

  000d7	83 c4 20	 add	 esp, 32			; 00000020H
  000da	c2 18 00	 ret	 24			; 00000018H
$L203068:

; 602  : 	return( m_status = (st.wYear == sysTime.wYear &&
; 603  : 				st.wMonth == sysTime.wMonth &&
; 604  : 				st.wDay == sysTime.wDay &&
; 605  : 				st.wHour == sysTime.wHour &&
; 606  : 				st.wMinute == sysTime.wMinute && 
; 607  : 				st.wSecond == sysTime.wSecond) ? valid : invalid );

  000dd	b8 01 00 00 00	 mov	 eax, 1
  000e2	89 46 08	 mov	 DWORD PTR [esi+8], eax
  000e5	5e		 pop	 esi

; 608  : }

  000e6	83 c4 20	 add	 esp, 32			; 00000020H
  000e9	c2 18 00	 ret	 24			; 00000018H
?SetDateTime@COleDateTime@ATL@@QAEHHHHHHH@Z ENDP	; ATL::COleDateTime::SetDateTime
_TEXT	ENDS
PUBLIC	?assign@?$char_traits@D@std@@SAXAADABD@Z	; std::char_traits<char>::assign
; Function compile flags: /Ogty
; File c:\program files\microsoft visual studio .net 2003\vc7\include\iosfwd
;	COMDAT ?assign@?$char_traits@D@std@@SAXAADABD@Z
_TEXT	SEGMENT
__Left$ = 8						; size = 4
__Right$ = 12						; size = 4
?assign@?$char_traits@D@std@@SAXAADABD@Z PROC NEAR	; std::char_traits<char>::assign, COMDAT

; 331  : 		_Left = _Right;

  00000	8b 44 24 08	 mov	 eax, DWORD PTR __Right$[esp-4]
  00004	8a 08		 mov	 cl, BYTE PTR [eax]
  00006	8b 54 24 04	 mov	 edx, DWORD PTR __Left$[esp-4]
  0000a	88 0a		 mov	 BYTE PTR [edx], cl

; 332  : 		}

  0000c	c3		 ret	 0
?assign@?$char_traits@D@std@@SAXAADABD@Z ENDP		; std::char_traits<char>::assign
_TEXT	ENDS
PUBLIC	?length@?$char_traits@D@std@@SAIPBD@Z		; std::char_traits<char>::length
; Function compile flags: /Ogty
;	COMDAT ?length@?$char_traits@D@std@@SAIPBD@Z
_TEXT	SEGMENT
__First$ = 8						; size = 4
?length@?$char_traits@D@std@@SAIPBD@Z PROC NEAR		; std::char_traits<char>::length, COMDAT

; 352  : 		return (::strlen(_First));

  00000	8b 44 24 04	 mov	 eax, DWORD PTR __First$[esp-4]
  00004	8d 50 01	 lea	 edx, DWORD PTR [eax+1]
$L203074:
  00007	8a 08		 mov	 cl, BYTE PTR [eax]
  00009	40		 inc	 eax
  0000a	84 c9		 test	 cl, cl
  0000c	75 f9		 jne	 SHORT $L203074
  0000e	2b c2		 sub	 eax, edx

; 353  : 		}

  00010	c3		 ret	 0
?length@?$char_traits@D@std@@SAIPBD@Z ENDP		; std::char_traits<char>::length
_TEXT	ENDS
PUBLIC	?copy@?$char_traits@D@std@@SAPADPADPBDI@Z	; std::char_traits<char>::copy
; Function compile flags: /Ogty
;	COMDAT ?copy@?$char_traits@D@std@@SAPADPADPBDI@Z
_TEXT	SEGMENT
__First1$ = 8						; size = 4
__First2$ = 12						; size = 4
__Count$ = 16						; size = 4
?copy@?$char_traits@D@std@@SAPADPADPBDI@Z PROC NEAR	; std::char_traits<char>::copy, COMDAT

; 358  : 		return ((_Elem *)::memcpy(_First1, _First2, _Count));

  00000	8b 4c 24 0c	 mov	 ecx, DWORD PTR __Count$[esp-4]
  00004	56		 push	 esi
  00005	8b 74 24 0c	 mov	 esi, DWORD PTR __First2$[esp]
  00009	57		 push	 edi
  0000a	8b 7c 24 0c	 mov	 edi, DWORD PTR __First1$[esp+4]
  0000e	8b c1		 mov	 eax, ecx
  00010	8b d7		 mov	 edx, edi
  00012	c1 e9 02	 shr	 ecx, 2
  00015	f3 a5		 rep movsd
  00017	8b c8		 mov	 ecx, eax
  00019	83 e1 03	 and	 ecx, 3
  0001c	f3 a4		 rep movsb
  0001e	5f		 pop	 edi
  0001f	8b c2		 mov	 eax, edx
  00021	5e		 pop	 esi

; 359  : 		}

  00022	c3		 ret	 0
?copy@?$char_traits@D@std@@SAPADPADPBDI@Z ENDP		; std::char_traits<char>::copy
_TEXT	ENDS
PUBLIC	?move@?$char_traits@D@std@@SAPADPADPBDI@Z	; std::char_traits<char>::move
; Function compile flags: /Ogty
;	COMDAT ?move@?$char_traits@D@std@@SAPADPADPBDI@Z
_TEXT	SEGMENT
__First1$ = 8						; size = 4
__First2$ = 12						; size = 4
__Count$ = 16						; size = 4
?move@?$char_traits@D@std@@SAPADPADPBDI@Z PROC NEAR	; std::char_traits<char>::move, COMDAT

; 370  : 		return ((_Elem *)::memmove(_First1, _First2, _Count));

  00000	e9 00 00 00 00	 jmp	 _memmove
?move@?$char_traits@D@std@@SAPADPADPBDI@Z ENDP		; std::char_traits<char>::move
_TEXT	ENDS
PUBLIC	??0CMclCritSec@@QAE@XZ				; CMclCritSec::CMclCritSec
PUBLIC	??_7CMclCritSec@@6B@				; CMclCritSec::`vftable'
PUBLIC	??_GCMclCritSec@@UAEPAXI@Z			; CMclCritSec::`scalar deleting destructor'
EXTRN	??_ECMclCritSec@@UAEPAXI@Z:NEAR			; CMclCritSec::`vector deleting destructor'
EXTRN	__imp__InitializeCriticalSection@4:NEAR
;	COMDAT ??_7CMclCritSec@@6B@
; File c:\documents and settings\test\mes documents\source\virtuos_v17\build\program\_network\mcl\include\cmclcritsec.h
CONST	SEGMENT
??_7CMclCritSec@@6B@ DD FLAT:??_ECMclCritSec@@UAEPAXI@Z	; CMclCritSec::`vftable'
; Function compile flags: /Ogty
CONST	ENDS
;	COMDAT ??0CMclCritSec@@QAE@XZ
_TEXT	SEGMENT
??0CMclCritSec@@QAE@XZ PROC NEAR			; CMclCritSec::CMclCritSec, COMDAT
; _this$ = ecx

; 19   :     CMclCritSec(void)

  00000	56		 push	 esi
  00001	8b f1		 mov	 esi, ecx

; 20   :     {
; 21   : 		::InitializeCriticalSection( &m_CritSec );

  00003	8d 46 04	 lea	 eax, DWORD PTR [esi+4]
  00006	50		 push	 eax
  00007	c7 06 00 00 00
	00		 mov	 DWORD PTR [esi], OFFSET FLAT:??_7CMclCritSec@@6B@
  0000d	ff 15 00 00 00
	00		 call	 DWORD PTR __imp__InitializeCriticalSection@4

; 22   : 	}

  00013	8b c6		 mov	 eax, esi
  00015	5e		 pop	 esi
  00016	c3		 ret	 0
??0CMclCritSec@@QAE@XZ ENDP				; CMclCritSec::CMclCritSec
_TEXT	ENDS
PUBLIC	??1CMclCritSec@@UAE@XZ				; CMclCritSec::~CMclCritSec
EXTRN	__imp__DeleteCriticalSection@4:NEAR
; Function compile flags: /Ogty
;	COMDAT ??1CMclCritSec@@UAE@XZ
_TEXT	SEGMENT
??1CMclCritSec@@UAE@XZ PROC NEAR			; CMclCritSec::~CMclCritSec, COMDAT
; _this$ = ecx

; 26   : 	{

  00000	c7 01 00 00 00
	00		 mov	 DWORD PTR [ecx], OFFSET FLAT:??_7CMclCritSec@@6B@

; 27   : 		::DeleteCriticalSection( &m_CritSec );

  00006	83 c1 04	 add	 ecx, 4
  00009	51		 push	 ecx
  0000a	ff 15 00 00 00
	00		 call	 DWORD PTR __imp__DeleteCriticalSection@4

; 28   : 	}

  00010	c3		 ret	 0
??1CMclCritSec@@UAE@XZ ENDP				; CMclCritSec::~CMclCritSec
_TEXT	ENDS
PUBLIC	?Enter@CMclCritSec@@QAEXXZ			; CMclCritSec::Enter
EXTRN	__imp__EnterCriticalSection@4:NEAR
; Function compile flags: /Ogty
;	COMDAT ?Enter@CMclCritSec@@QAEXXZ
_TEXT	SEGMENT
?Enter@CMclCritSec@@QAEXXZ PROC NEAR			; CMclCritSec::Enter, COMDAT
; _this$ = ecx

; 33   : 		::EnterCriticalSection( &m_CritSec );

  00000	83 c1 04	 add	 ecx, 4
  00003	51		 push	 ecx
  00004	ff 15 00 00 00
	00		 call	 DWORD PTR __imp__EnterCriticalSection@4

; 34   : 	}

  0000a	c3		 ret	 0
?Enter@CMclCritSec@@QAEXXZ ENDP				; CMclCritSec::Enter
_TEXT	ENDS
PUBLIC	?Leave@CMclCritSec@@QAEXXZ			; CMclCritSec::Leave
EXTRN	__imp__LeaveCriticalSection@4:NEAR
; Function compile flags: /Ogty
;	COMDAT ?Leave@CMclCritSec@@QAEXXZ
_TEXT	SEGMENT
?Leave@CMclCritSec@@QAEXXZ PROC NEAR			; CMclCritSec::Leave, COMDAT
; _this$ = ecx

; 39   : 		::LeaveCriticalSection( &m_CritSec );

  00000	83 c1 04	 add	 ecx, 4
  00003	51		 push	 ecx
  00004	ff 15 00 00 00
	00		 call	 DWORD PTR __imp__LeaveCriticalSection@4

; 40   : 	}

  0000a	c3		 ret	 0
?Leave@CMclCritSec@@QAEXXZ ENDP				; CMclCritSec::Leave
; Function compile flags: /Ogty
_TEXT	ENDS
;	COMDAT ??_GCMclCritSec@@UAEPAXI@Z
_TEXT	SEGMENT
___flags$ = 8						; size = 4
??_GCMclCritSec@@UAEPAXI@Z PROC NEAR			; CMclCritSec::`scalar deleting destructor', COMDAT
; _this$ = ecx
  00000	56		 push	 esi
  00001	8b f1		 mov	 esi, ecx
  00003	8d 46 04	 lea	 eax, DWORD PTR [esi+4]
  00006	50		 push	 eax
  00007	c7 06 00 00 00
	00		 mov	 DWORD PTR [esi], OFFSET FLAT:??_7CMclCritSec@@6B@
  0000d	ff 15 00 00 00
	00		 call	 DWORD PTR __imp__DeleteCriticalSection@4
  00013	f6 44 24 08 01	 test	 BYTE PTR ___flags$[esp], 1
  00018	74 09		 je	 SHORT $L203093
  0001a	56		 push	 esi
  0001b	e8 00 00 00 00	 call	 ??3@YAXPAX@Z		; operator delete
  00020	83 c4 04	 add	 esp, 4
$L203093:
  00023	8b c6		 mov	 eax, esi
  00025	5e		 pop	 esi
  00026	c2 04 00	 ret	 4
??_GCMclCritSec@@UAEPAXI@Z ENDP				; CMclCritSec::`scalar deleting destructor'
_TEXT	ENDS
PUBLIC	??0CMclAutoLock@@QAE@AAVCMclCritSec@@@Z		; CMclAutoLock::CMclAutoLock
; Function compile flags: /Ogty
; File c:\documents and settings\test\mes documents\source\virtuos_v17\build\program\_network\mcl\include\cmclautolock.h
;	COMDAT ??0CMclAutoLock@@QAE@AAVCMclCritSec@@@Z
_TEXT	SEGMENT
_rCMclCritSec$ = 8					; size = 4
??0CMclAutoLock@@QAE@AAVCMclCritSec@@@Z PROC NEAR	; CMclAutoLock::CMclAutoLock, COMDAT
; _this$ = ecx

; 20   : 	{
; 21   : 		m_pcCritSec = &rCMclCritSec;

  00000	8b 44 24 04	 mov	 eax, DWORD PTR _rCMclCritSec$[esp-4]
  00004	56		 push	 esi
  00005	8b f1		 mov	 esi, ecx
  00007	89 06		 mov	 DWORD PTR [esi], eax

; 22   : 		m_pcCritSec->Enter();

  00009	83 c0 04	 add	 eax, 4
  0000c	50		 push	 eax
  0000d	ff 15 00 00 00
	00		 call	 DWORD PTR __imp__EnterCriticalSection@4

; 23   : 	}

  00013	8b c6		 mov	 eax, esi
  00015	5e		 pop	 esi
  00016	c2 04 00	 ret	 4
??0CMclAutoLock@@QAE@AAVCMclCritSec@@@Z ENDP		; CMclAutoLock::CMclAutoLock
_TEXT	ENDS
PUBLIC	??1CMclAutoLock@@QAE@XZ				; CMclAutoLock::~CMclAutoLock
; Function compile flags: /Ogty
;	COMDAT ??1CMclAutoLock@@QAE@XZ
_TEXT	SEGMENT
??1CMclAutoLock@@QAE@XZ PROC NEAR			; CMclAutoLock::~CMclAutoLock, COMDAT
; _this$ = ecx

; 28   : 		m_pcCritSec->Leave();

  00000	8b 01		 mov	 eax, DWORD PTR [ecx]
  00002	83 c0 04	 add	 eax, 4
  00005	50		 push	 eax
  00006	ff 15 00 00 00
	00		 call	 DWORD PTR __imp__LeaveCriticalSection@4

; 29   : 	}

  0000c	c3		 ret	 0
??1CMclAutoLock@@QAE@XZ ENDP				; CMclAutoLock::~CMclAutoLock
_TEXT	ENDS
PUBLIC	?time_null@@YAJXZ				; time_null
EXTRN	_time:NEAR
; Function compile flags: /Ogty
; File c:\documents and settings\test\mes documents\source\virtuos_v17\build\program\_network\cmnhdr.h
;	COMDAT ?time_null@@YAJXZ
_TEXT	SEGMENT
?time_null@@YAJXZ PROC NEAR				; time_null, COMDAT

; 702  : #if defined(__WORLDSERVER) || defined(__CLIENT)
; 703  : 	return	g_tCurrent;
; 704  : #else	//
; 705  : 	return time( NULL );

  00000	6a 00		 push	 0
  00002	e8 00 00 00 00	 call	 _time
  00007	83 c4 04	 add	 esp, 4

; 706  : #endif	//
; 707  : }

  0000a	c3		 ret	 0
?time_null@@YAJXZ ENDP					; time_null
_TEXT	ENDS
PUBLIC	?IsStoring@CAr@@QBEHXZ				; CAr::IsStoring
; Function compile flags: /Ogty
; File c:\documents and settings\test\mes documents\source\virtuos_v17\build\program\_network\misc\include\ar.h
;	COMDAT ?IsStoring@CAr@@QBEHXZ
_TEXT	SEGMENT
?IsStoring@CAr@@QBEHXZ PROC NEAR			; CAr::IsStoring, COMDAT
; _this$ = ecx

; 96   : 	{ return (m_nMode & CAr::load) == 0; }

  00000	33 c0		 xor	 eax, eax
  00002	8a 01		 mov	 al, BYTE PTR [ecx]
  00004	f7 d0		 not	 eax
  00006	83 e0 01	 and	 eax, 1
  00009	c3		 ret	 0
?IsStoring@CAr@@QBEHXZ ENDP				; CAr::IsStoring
_TEXT	ENDS
PUBLIC	??6CAr@@QAEAAV0@E@Z				; CAr::operator<<
EXTRN	?CheckBuf@CAr@@QAEXI@Z:NEAR			; CAr::CheckBuf
; Function compile flags: /Ogty
;	COMDAT ??6CAr@@QAEAAV0@E@Z
_TEXT	SEGMENT
_by$ = 8						; size = 1
??6CAr@@QAEAAV0@E@Z PROC NEAR				; CAr::operator<<, COMDAT
; _this$ = ecx

; 107  : 	{ CheckBuf( sizeof(BYTE) );

  00000	56		 push	 esi
  00001	6a 01		 push	 1
  00003	8b f1		 mov	 esi, ecx
  00005	e8 00 00 00 00	 call	 ?CheckBuf@CAr@@QAEXI@Z	; CAr::CheckBuf

; 108  : 		*(UNALIGNED BYTE*)m_lpBufCur = by; m_lpBufCur += sizeof(BYTE); return *this; }

  0000a	8b 46 08	 mov	 eax, DWORD PTR [esi+8]
  0000d	8a 4c 24 08	 mov	 cl, BYTE PTR _by$[esp]
  00011	88 08		 mov	 BYTE PTR [eax], cl
  00013	ff 46 08	 inc	 DWORD PTR [esi+8]
  00016	8b c6		 mov	 eax, esi
  00018	5e		 pop	 esi
  00019	c2 04 00	 ret	 4
??6CAr@@QAEAAV0@E@Z ENDP				; CAr::operator<<
_TEXT	ENDS
PUBLIC	??6CAr@@QAEAAV0@J@Z				; CAr::operator<<
; Function compile flags: /Ogty
;	COMDAT ??6CAr@@QAEAAV0@J@Z
_TEXT	SEGMENT
_l$ = 8							; size = 4
??6CAr@@QAEAAV0@J@Z PROC NEAR				; CAr::operator<<, COMDAT
; _this$ = ecx

; 113  : 	{ CheckBuf( sizeof(LONG) );

  00000	56		 push	 esi
  00001	6a 04		 push	 4
  00003	8b f1		 mov	 esi, ecx
  00005	e8 00 00 00 00	 call	 ?CheckBuf@CAr@@QAEXI@Z	; CAr::CheckBuf

; 114  : 		*(UNALIGNED LONG*)m_lpBufCur = l; m_lpBufCur += sizeof(LONG); return *this; }

  0000a	8b 46 08	 mov	 eax, DWORD PTR [esi+8]
  0000d	8b 4c 24 08	 mov	 ecx, DWORD PTR _l$[esp]
  00011	89 08		 mov	 DWORD PTR [eax], ecx
  00013	83 46 08 04	 add	 DWORD PTR [esi+8], 4
  00017	8b c6		 mov	 eax, esi
  00019	5e		 pop	 esi
  0001a	c2 04 00	 ret	 4
??6CAr@@QAEAAV0@J@Z ENDP				; CAr::operator<<
_TEXT	ENDS
PUBLIC	??6CAr@@QAEAAV0@K@Z				; CAr::operator<<
; Function compile flags: /Ogty
;	COMDAT ??6CAr@@QAEAAV0@K@Z
_TEXT	SEGMENT
_dw$ = 8						; size = 4
??6CAr@@QAEAAV0@K@Z PROC NEAR				; CAr::operator<<, COMDAT
; _this$ = ecx

; 116  : 	{ CheckBuf( sizeof(DWORD) );

  00000	56		 push	 esi
  00001	6a 04		 push	 4
  00003	8b f1		 mov	 esi, ecx
  00005	e8 00 00 00 00	 call	 ?CheckBuf@CAr@@QAEXI@Z	; CAr::CheckBuf

; 117  : 		*(UNALIGNED DWORD*)m_lpBufCur = dw; m_lpBufCur += sizeof(DWORD); return *this; }

  0000a	8b 46 08	 mov	 eax, DWORD PTR [esi+8]
  0000d	8b 4c 24 08	 mov	 ecx, DWORD PTR _dw$[esp]
  00011	89 08		 mov	 DWORD PTR [eax], ecx
  00013	83 46 08 04	 add	 DWORD PTR [esi+8], 4
  00017	8b c6		 mov	 eax, esi
  00019	5e		 pop	 esi
  0001a	c2 04 00	 ret	 4
??6CAr@@QAEAAV0@K@Z ENDP				; CAr::operator<<
_TEXT	ENDS
PUBLIC	??5CAr@@QAEAAV0@AAE@Z				; CAr::operator>>
; Function compile flags: /Ogty
;	COMDAT ??5CAr@@QAEAAV0@AAE@Z
_TEXT	SEGMENT
_by$ = 8						; size = 4
??5CAr@@QAEAAV0@AAE@Z PROC NEAR				; CAr::operator>>, COMDAT
; _this$ = ecx

; 142  : 	{	CAR_SAFE_READ( BYTE, by );	}

  00000	8b c1		 mov	 eax, ecx
  00002	8b 48 08	 mov	 ecx, DWORD PTR [eax+8]
  00005	56		 push	 esi
  00006	8b 70 0c	 mov	 esi, DWORD PTR [eax+12]
  00009	8d 51 01	 lea	 edx, DWORD PTR [ecx+1]
  0000c	3b d6		 cmp	 edx, esi
  0000e	5e		 pop	 esi
  0000f	77 0e		 ja	 SHORT $L162848
  00011	8a 09		 mov	 cl, BYTE PTR [ecx]
  00013	8b 54 24 04	 mov	 edx, DWORD PTR _by$[esp-4]
  00017	88 0a		 mov	 BYTE PTR [edx], cl
  00019	ff 40 08	 inc	 DWORD PTR [eax+8]
  0001c	c2 04 00	 ret	 4
$L162848:
  0001f	8b 4c 24 04	 mov	 ecx, DWORD PTR _by$[esp-4]
  00023	c6 01 00	 mov	 BYTE PTR [ecx], 0
  00026	8b 50 0c	 mov	 edx, DWORD PTR [eax+12]
  00029	89 50 08	 mov	 DWORD PTR [eax+8], edx
  0002c	c2 04 00	 ret	 4
??5CAr@@QAEAAV0@AAE@Z ENDP				; CAr::operator>>
_TEXT	ENDS
PUBLIC	??5CAr@@QAEAAV0@AAK@Z				; CAr::operator>>
; Function compile flags: /Ogty
;	COMDAT ??5CAr@@QAEAAV0@AAK@Z
_TEXT	SEGMENT
_dw$ = 8						; size = 4
??5CAr@@QAEAAV0@AAK@Z PROC NEAR				; CAr::operator>>, COMDAT
; _this$ = ecx

; 146  : 	{	CAR_SAFE_READ( DWORD, dw );	}

  00000	8b c1		 mov	 eax, ecx
  00002	8b 48 08	 mov	 ecx, DWORD PTR [eax+8]
  00005	56		 push	 esi
  00006	8b 70 0c	 mov	 esi, DWORD PTR [eax+12]
  00009	8d 51 04	 lea	 edx, DWORD PTR [ecx+4]
  0000c	3b d6		 cmp	 edx, esi
  0000e	5e		 pop	 esi
  0000f	77 0f		 ja	 SHORT $L162868
  00011	8b 09		 mov	 ecx, DWORD PTR [ecx]
  00013	8b 54 24 04	 mov	 edx, DWORD PTR _dw$[esp-4]
  00017	89 0a		 mov	 DWORD PTR [edx], ecx
  00019	83 40 08 04	 add	 DWORD PTR [eax+8], 4
  0001d	c2 04 00	 ret	 4
$L162868:
  00020	8b 4c 24 04	 mov	 ecx, DWORD PTR _dw$[esp-4]
  00024	c7 01 00 00 00
	00		 mov	 DWORD PTR [ecx], 0
  0002a	8b 50 0c	 mov	 edx, DWORD PTR [eax+12]
  0002d	89 50 08	 mov	 DWORD PTR [eax+8], edx
  00030	c2 04 00	 ret	 4
??5CAr@@QAEAAV0@AAK@Z ENDP				; CAr::operator>>
_TEXT	ENDS
PUBLIC	??5CAr@@QAEAAV0@AAJ@Z				; CAr::operator>>
; Function compile flags: /Ogty
;	COMDAT ??5CAr@@QAEAAV0@AAJ@Z
_TEXT	SEGMENT
_l$ = 8							; size = 4
??5CAr@@QAEAAV0@AAJ@Z PROC NEAR				; CAr::operator>>, COMDAT
; _this$ = ecx

; 152  : 	{	CAR_SAFE_READ( LONG, l );	}

  00000	8b c1		 mov	 eax, ecx
  00002	8b 48 08	 mov	 ecx, DWORD PTR [eax+8]
  00005	56		 push	 esi
  00006	8b 70 0c	 mov	 esi, DWORD PTR [eax+12]
  00009	8d 51 04	 lea	 edx, DWORD PTR [ecx+4]
  0000c	3b d6		 cmp	 edx, esi
  0000e	5e		 pop	 esi
  0000f	77 0f		 ja	 SHORT $L162898
  00011	8b 09		 mov	 ecx, DWORD PTR [ecx]
  00013	8b 54 24 04	 mov	 edx, DWORD PTR _l$[esp-4]
  00017	89 0a		 mov	 DWORD PTR [edx], ecx
  00019	83 40 08 04	 add	 DWORD PTR [eax+8], 4
  0001d	c2 04 00	 ret	 4
$L162898:
  00020	8b 4c 24 04	 mov	 ecx, DWORD PTR _l$[esp-4]
  00024	c7 01 00 00 00
	00		 mov	 DWORD PTR [ecx], 0
  0002a	8b 50 0c	 mov	 edx, DWORD PTR [eax+12]
  0002d	89 50 08	 mov	 DWORD PTR [eax+8], edx
  00030	c2 04 00	 ret	 4
??5CAr@@QAEAAV0@AAJ@Z ENDP				; CAr::operator>>
_TEXT	ENDS
PUBLIC	?size@?$basic_string@DU?$char_traits@D@std@@V?$allocator@D@2@@std@@QBEIXZ ; std::basic_string<char,std::char_traits<char>,std::allocator<char> >::size
; Function compile flags: /Ogty
; File c:\program files\microsoft visual studio .net 2003\vc7\include\xstring
;	COMDAT ?size@?$basic_string@DU?$char_traits@D@std@@V?$allocator@D@2@@std@@QBEIXZ
_TEXT	SEGMENT
?size@?$basic_string@DU?$char_traits@D@std@@V?$allocator@D@2@@std@@QBEIXZ PROC NEAR ; std::basic_string<char,std::char_traits<char>,std::allocator<char> >::size, COMDAT
; _this$ = ecx

; 1109 : 		return (_Mysize);

  00000	8b 41 14	 mov	 eax, DWORD PTR [ecx+20]

; 1110 : 		}

  00003	c3		 ret	 0
?size@?$basic_string@DU?$char_traits@D@std@@V?$allocator@D@2@@std@@QBEIXZ ENDP ; std::basic_string<char,std::char_traits<char>,std::allocator<char> >::size
_TEXT	ENDS
PUBLIC	?_Myptr@?$basic_string@DU?$char_traits@D@std@@V?$allocator@D@2@@std@@QBEPBDXZ ; std::basic_string<char,std::char_traits<char>,std::allocator<char> >::_Myptr
; Function compile flags: /Ogty
;	COMDAT ?_Myptr@?$basic_string@DU?$char_traits@D@std@@V?$allocator@D@2@@std@@QBEPBDXZ
_TEXT	SEGMENT
?_Myptr@?$basic_string@DU?$char_traits@D@std@@V?$allocator@D@2@@std@@QBEPBDXZ PROC NEAR ; std::basic_string<char,std::char_traits<char>,std::allocator<char> >::_Myptr, COMDAT
; _this$ = ecx

; 1537 : 		return (_BUF_SIZE <= _Myres ? _Bx._Ptr : _Bx._Buf);

  00000	83 79 18 10	 cmp	 DWORD PTR [ecx+24], 16	; 00000010H
  00004	72 04		 jb	 SHORT $L203126
  00006	8b 41 04	 mov	 eax, DWORD PTR [ecx+4]

; 1538 : 		}

  00009	c3		 ret	 0
$L203126:

; 1537 : 		return (_BUF_SIZE <= _Myres ? _Bx._Ptr : _Bx._Buf);

  0000a	8d 41 04	 lea	 eax, DWORD PTR [ecx+4]

; 1538 : 		}

  0000d	c3		 ret	 0
?_Myptr@?$basic_string@DU?$char_traits@D@std@@V?$allocator@D@2@@std@@QBEPBDXZ ENDP ; std::basic_string<char,std::char_traits<char>,std::allocator<char> >::_Myptr
_TEXT	ENDS
PUBLIC	??0?$allocator@D@std@@QAE@XZ			; std::allocator<char>::allocator<char>
; Function compile flags: /Ogty
; File c:\program files\microsoft visual studio .net 2003\vc7\include\xmemory
;	COMDAT ??0?$allocator@D@std@@QAE@XZ
_TEXT	SEGMENT
??0?$allocator@D@std@@QAE@XZ PROC NEAR			; std::allocator<char>::allocator<char>, COMDAT
; _this$ = ecx

; 111  : 	allocator()

  00000	8b c1		 mov	 eax, ecx

; 112  : 		{	// construct default allocator (do nothing)
; 113  : 		}

  00002	c3		 ret	 0
??0?$allocator@D@std@@QAE@XZ ENDP			; std::allocator<char>::allocator<char>
_TEXT	ENDS
PUBLIC	??0?$allocator@D@std@@QAE@ABV01@@Z		; std::allocator<char>::allocator<char>
; Function compile flags: /Ogty
;	COMDAT ??0?$allocator@D@std@@QAE@ABV01@@Z
_TEXT	SEGMENT
___formal$ = 8						; size = 4
??0?$allocator@D@std@@QAE@ABV01@@Z PROC NEAR		; std::allocator<char>::allocator<char>, COMDAT
; _this$ = ecx

; 115  : 	allocator(const allocator<_Ty>&)

  00000	8b c1		 mov	 eax, ecx

; 116  : 		{	// construct by copying (do nothing)
; 117  : 		}

  00002	c2 04 00	 ret	 4
??0?$allocator@D@std@@QAE@ABV01@@Z ENDP			; std::allocator<char>::allocator<char>
_TEXT	ENDS
PUBLIC	??R?$less@K@std@@QBE_NABK0@Z			; std::less<unsigned long>::operator()
; Function compile flags: /Ogty
; File c:\program files\microsoft visual studio .net 2003\vc7\include\functional
;	COMDAT ??R?$less@K@std@@QBE_NABK0@Z
_TEXT	SEGMENT
__Left$ = 8						; size = 4
__Right$ = 12						; size = 4
??R?$less@K@std@@QBE_NABK0@Z PROC NEAR			; std::less<unsigned long>::operator(), COMDAT
; _this$ = ecx

; 139  : 		return (_Left < _Right);

  00000	8b 44 24 04	 mov	 eax, DWORD PTR __Left$[esp-4]
  00004	8b 08		 mov	 ecx, DWORD PTR [eax]
  00006	8b 54 24 08	 mov	 edx, DWORD PTR __Right$[esp-4]
  0000a	3b 0a		 cmp	 ecx, DWORD PTR [edx]
  0000c	1b c0		 sbb	 eax, eax
  0000e	f7 d8		 neg	 eax

; 140  : 		}

  00010	c2 08 00	 ret	 8
??R?$less@K@std@@QBE_NABK0@Z ENDP			; std::less<unsigned long>::operator()
_TEXT	ENDS
PUBLIC	?_Myptr@?$basic_string@DU?$char_traits@D@std@@V?$allocator@D@2@@std@@QAEPADXZ ; std::basic_string<char,std::char_traits<char>,std::allocator<char> >::_Myptr
; Function compile flags: /Ogty
; File c:\program files\microsoft visual studio .net 2003\vc7\include\xstring
;	COMDAT ?_Myptr@?$basic_string@DU?$char_traits@D@std@@V?$allocator@D@2@@std@@QAEPADXZ
_TEXT	SEGMENT
?_Myptr@?$basic_string@DU?$char_traits@D@std@@V?$allocator@D@2@@std@@QAEPADXZ PROC NEAR ; std::basic_string<char,std::char_traits<char>,std::allocator<char> >::_Myptr, COMDAT
; _this$ = ecx

; 1532 : 		return (_BUF_SIZE <= _Myres ? _Bx._Ptr : _Bx._Buf);

  00000	83 79 18 10	 cmp	 DWORD PTR [ecx+24], 16	; 00000010H
  00004	72 04		 jb	 SHORT $L203136
  00006	8b 41 04	 mov	 eax, DWORD PTR [ecx+4]

; 1533 : 		}

  00009	c3		 ret	 0
$L203136:

; 1532 : 		return (_BUF_SIZE <= _Myres ? _Bx._Ptr : _Bx._Buf);

  0000a	8d 41 04	 lea	 eax, DWORD PTR [ecx+4]

; 1533 : 		}

  0000d	c3		 ret	 0
?_Myptr@?$basic_string@DU?$char_traits@D@std@@V?$allocator@D@2@@std@@QAEPADXZ ENDP ; std::basic_string<char,std::char_traits<char>,std::allocator<char> >::_Myptr
_TEXT	ENDS
PUBLIC	?deallocate@?$allocator@D@std@@QAEXPADI@Z	; std::allocator<char>::deallocate
; Function compile flags: /Ogty
; File c:\program files\microsoft visual studio .net 2003\vc7\include\xmemory
;	COMDAT ?deallocate@?$allocator@D@std@@QAEXPADI@Z
_TEXT	SEGMENT
__Ptr$ = 8						; size = 4
___formal$ = 12						; size = 4
?deallocate@?$allocator@D@std@@QAEXPADI@Z PROC NEAR	; std::allocator<char>::deallocate, COMDAT
; _this$ = ecx

; 132  : 		operator delete(_Ptr);

  00000	8b 44 24 04	 mov	 eax, DWORD PTR __Ptr$[esp-4]
  00004	50		 push	 eax
  00005	e8 00 00 00 00	 call	 ??3@YAXPAX@Z		; operator delete
  0000a	59		 pop	 ecx

; 133  : 		}

  0000b	c2 08 00	 ret	 8
?deallocate@?$allocator@D@std@@QAEXPADI@Z ENDP		; std::allocator<char>::deallocate
_TEXT	ENDS
PUBLIC	?_Inside@?$basic_string@DU?$char_traits@D@std@@V?$allocator@D@2@@std@@IAE_NPBD@Z ; std::basic_string<char,std::char_traits<char>,std::allocator<char> >::_Inside
; Function compile flags: /Ogty
; File c:\program files\microsoft visual studio .net 2003\vc7\include\xstring
;	COMDAT ?_Inside@?$basic_string@DU?$char_traits@D@std@@V?$allocator@D@2@@std@@IAE_NPBD@Z
_TEXT	SEGMENT
__Ptr$ = 8						; size = 4
?_Inside@?$basic_string@DU?$char_traits@D@std@@V?$allocator@D@2@@std@@IAE_NPBD@Z PROC NEAR ; std::basic_string<char,std::char_traits<char>,std::allocator<char> >::_Inside, COMDAT
; _this$ = ecx

; 1494 : 		{	// test if _Ptr points inside string

  00000	56		 push	 esi

; 1495 : 		if (_Ptr < _Myptr() || _Myptr() + _Mysize <= _Ptr)

  00001	8b 71 18	 mov	 esi, DWORD PTR [ecx+24]
  00004	83 fe 10	 cmp	 esi, 16			; 00000010H
  00007	57		 push	 edi
  00008	8d 41 04	 lea	 eax, DWORD PTR [ecx+4]
  0000b	72 04		 jb	 SHORT $L203146
  0000d	8b 10		 mov	 edx, DWORD PTR [eax]
  0000f	eb 02		 jmp	 SHORT $L203147
$L203146:
  00011	8b d0		 mov	 edx, eax
$L203147:
  00013	8b 7c 24 0c	 mov	 edi, DWORD PTR __Ptr$[esp+4]
  00017	3b fa		 cmp	 edi, edx
  00019	72 17		 jb	 SHORT $L185560
  0001b	83 fe 10	 cmp	 esi, 16			; 00000010H
  0001e	72 02		 jb	 SHORT $L203154
  00020	8b 00		 mov	 eax, DWORD PTR [eax]
$L203154:
  00022	8b 49 14	 mov	 ecx, DWORD PTR [ecx+20]
  00025	03 c8		 add	 ecx, eax
  00027	3b cf		 cmp	 ecx, edi
  00029	76 07		 jbe	 SHORT $L185560
  0002b	5f		 pop	 edi

; 1497 : 		else
; 1498 : 			return (true);

  0002c	b0 01		 mov	 al, 1
  0002e	5e		 pop	 esi

; 1499 : 		}

  0002f	c2 04 00	 ret	 4
$L185560:
  00032	5f		 pop	 edi

; 1496 : 			return (false);	// don't ask

  00033	32 c0		 xor	 al, al
  00035	5e		 pop	 esi

; 1499 : 		}

  00036	c2 04 00	 ret	 4
?_Inside@?$basic_string@DU?$char_traits@D@std@@V?$allocator@D@2@@std@@IAE_NPBD@Z ENDP ; std::basic_string<char,std::char_traits<char>,std::allocator<char> >::_Inside
_TEXT	ENDS
PUBLIC	?max_size@?$allocator@D@std@@QBEIXZ		; std::allocator<char>::max_size
; Function compile flags: /Ogty
; File c:\program files\microsoft visual studio .net 2003\vc7\include\xmemory
;	COMDAT ?max_size@?$allocator@D@std@@QBEIXZ
_TEXT	SEGMENT
?max_size@?$allocator@D@std@@QBEIXZ PROC NEAR		; std::allocator<char>::max_size, COMDAT
; _this$ = ecx

; 157  : 		_SIZT _Count = (_SIZT)(-1) / sizeof (_Ty);
; 158  : 		return (0 < _Count ? _Count : 1);

  00000	83 c8 ff	 or	 eax, -1

; 159  : 		}

  00003	c3		 ret	 0
?max_size@?$allocator@D@std@@QBEIXZ ENDP		; std::allocator<char>::max_size
_TEXT	ENDS
PUBLIC	??$swap@D@std@@YAXAAD0@Z			; std::swap<char>
; Function compile flags: /Ogty
; File c:\program files\microsoft visual studio .net 2003\vc7\include\utility
;	COMDAT ??$swap@D@std@@YAXAAD0@Z
_TEXT	SEGMENT
__Left$ = 8						; size = 4
__Right$ = 12						; size = 4
??$swap@D@std@@YAXAAD0@Z PROC NEAR			; std::swap<char>, COMDAT

; 15   : 	_Ty _Tmp = _Left;

  00000	8b 44 24 04	 mov	 eax, DWORD PTR __Left$[esp-4]
  00004	8a 08		 mov	 cl, BYTE PTR [eax]
  00006	56		 push	 esi

; 16   : 	_Left = _Right, _Right = _Tmp;

  00007	8b 74 24 0c	 mov	 esi, DWORD PTR __Right$[esp]
  0000b	8a 16		 mov	 dl, BYTE PTR [esi]
  0000d	88 10		 mov	 BYTE PTR [eax], dl
  0000f	88 0e		 mov	 BYTE PTR [esi], cl
  00011	5e		 pop	 esi

; 17   : 	}

  00012	c3		 ret	 0
??$swap@D@std@@YAXAAD0@Z ENDP				; std::swap<char>
_TEXT	ENDS
PUBLIC	??$_Allocate@D@std@@YAPADIPAD@Z			; std::_Allocate<char>
; Function compile flags: /Ogty
; File c:\program files\microsoft visual studio .net 2003\vc7\include\xmemory
;	COMDAT ??$_Allocate@D@std@@YAPADIPAD@Z
_TEXT	SEGMENT
__Count$ = 8						; size = 4
___formal$ = 12						; size = 4
??$_Allocate@D@std@@YAPADIPAD@Z PROC NEAR		; std::_Allocate<char>, COMDAT

; 34   : 	return ((_Ty _FARQ *)operator new(_Count * sizeof (_Ty)));

  00000	8b 44 24 04	 mov	 eax, DWORD PTR __Count$[esp-4]
  00004	50		 push	 eax
  00005	e8 00 00 00 00	 call	 ??2@YAPAXI@Z		; operator new
  0000a	83 c4 04	 add	 esp, 4

; 35   : 	}

  0000d	c3		 ret	 0
??$_Allocate@D@std@@YAPADIPAD@Z ENDP			; std::_Allocate<char>
_TEXT	ENDS
PUBLIC	??0CMail@@QAE@KPAVCItemElem@@HPAD1@Z		; CMail::CMail
EXTRN	__imp__lstrcpyA@8:NEAR
; Function compile flags: /Ogty
; File c:\documents and settings\test\mes documents\source\virtuos_v17\build\program\_common\post.cpp
;	COMDAT ??0CMail@@QAE@KPAVCItemElem@@HPAD1@Z
_TEXT	SEGMENT
_idSender$ = 8						; size = 4
_pItemElem$ = 12					; size = 4
_nGold$ = 16						; size = 4
_szTitle$ = 20						; size = 4
_szText$ = 24						; size = 4
??0CMail@@QAE@KPAVCItemElem@@HPAD1@Z PROC NEAR		; CMail::CMail, COMDAT
; _this$ = ecx

; 33   : 	m_nMail	= 0;
; 34   : 	m_idSender	= idSender;

  00000	8b 44 24 04	 mov	 eax, DWORD PTR _idSender$[esp-4]
  00004	53		 push	 ebx
  00005	56		 push	 esi
  00006	8b f1		 mov	 esi, ecx

; 35   : 	m_pItemElem	= pItemElem;

  00008	8b 4c 24 10	 mov	 ecx, DWORD PTR _pItemElem$[esp+4]
  0000c	33 db		 xor	 ebx, ebx
  0000e	57		 push	 edi

; 36   : 	m_tmCreate	= time_null();

  0000f	53		 push	 ebx
  00010	c7 06 00 00 00
	00		 mov	 DWORD PTR [esi], OFFSET FLAT:??_7CMail@@6B@
  00016	89 5e 04	 mov	 DWORD PTR [esi+4], ebx
  00019	89 46 08	 mov	 DWORD PTR [esi+8], eax
  0001c	89 4e 0c	 mov	 DWORD PTR [esi+12], ecx
  0001f	e8 00 00 00 00	 call	 _time

; 37   : 	m_byRead	= FALSE;
; 38   : 	lstrcpy( m_szTitle, szTitle );

  00024	8b 54 24 20	 mov	 edx, DWORD PTR _szTitle$[esp+12]
  00028	8b 3d 00 00 00
	00		 mov	 edi, DWORD PTR __imp__lstrcpyA@8
  0002e	83 c4 04	 add	 esp, 4
  00031	89 46 14	 mov	 DWORD PTR [esi+20], eax
  00034	52		 push	 edx
  00035	8d 46 19	 lea	 eax, DWORD PTR [esi+25]
  00038	50		 push	 eax
  00039	88 5e 18	 mov	 BYTE PTR [esi+24], bl
  0003c	ff d7		 call	 edi

; 39   : 	lstrcpy( m_szText, szText );

  0003e	8b 4c 24 20	 mov	 ecx, DWORD PTR _szText$[esp+8]
  00042	51		 push	 ecx
  00043	8d 56 39	 lea	 edx, DWORD PTR [esi+57]
  00046	52		 push	 edx
  00047	ff d7		 call	 edi
  00049	5f		 pop	 edi

; 40   : #ifdef __DBSERVER
; 41   : 	m_pMailBox	= NULL;

  0004a	89 9e 3c 01 00
	00		 mov	 DWORD PTR [esi+316], ebx

; 42   : #endif	// __DBSERVER
; 43   : 	m_nGold		= 0;

  00050	89 5e 10	 mov	 DWORD PTR [esi+16], ebx

; 44   : }

  00053	8b c6		 mov	 eax, esi
  00055	5e		 pop	 esi
  00056	5b		 pop	 ebx
  00057	c2 14 00	 ret	 20			; 00000014H
??0CMail@@QAE@KPAVCItemElem@@HPAD1@Z ENDP		; CMail::CMail
_TEXT	ENDS
PUBLIC	??1CMail@@UAE@XZ				; CMail::~CMail
; Function compile flags: /Ogty
;	COMDAT ??1CMail@@UAE@XZ
_TEXT	SEGMENT
??1CMail@@UAE@XZ PROC NEAR				; CMail::~CMail, COMDAT
; _this$ = ecx

; 47   : {

  00000	56		 push	 esi
  00001	8b f1		 mov	 esi, ecx

; 48   : 	Clear();

  00003	8b 4e 0c	 mov	 ecx, DWORD PTR [esi+12]
  00006	85 c9		 test	 ecx, ecx
  00008	c7 06 00 00 00
	00		 mov	 DWORD PTR [esi], OFFSET FLAT:??_7CMail@@6B@
  0000e	74 0d		 je	 SHORT $L203177
  00010	8b 01		 mov	 eax, DWORD PTR [ecx]
  00012	6a 01		 push	 1
  00014	ff 10		 call	 DWORD PTR [eax]
  00016	c7 46 0c 00 00
	00 00		 mov	 DWORD PTR [esi+12], 0
$L203177:
  0001d	5e		 pop	 esi

; 49   : }

  0001e	c3		 ret	 0
??1CMail@@UAE@XZ ENDP					; CMail::~CMail
_TEXT	ENDS
PUBLIC	?Serialize@CMail@@QAEXAAVCAr@@H@Z		; CMail::Serialize
EXTRN	__except_list:DWORD
EXTRN	___CxxFrameHandler:NEAR
EXTRN	??0CItemElem@@QAE@XZ:NEAR			; CItemElem::CItemElem
EXTRN	?WriteString@CAr@@QAEXPBD@Z:NEAR		; CAr::WriteString
EXTRN	?ReadString@CAr@@QAEPADPADH@Z:NEAR		; CAr::ReadString
;	COMDAT xdata$x
; File c:\documents and settings\test\mes documents\source\virtuos_v17\build\program\_network\misc\include\ar.h
xdata$x	SEGMENT
$T203311 DD	0ffffffffH
	DD	FLAT:$L203189
$T203304 DD	019930520H
	DD	01H
	DD	FLAT:$T203311
	DD	2 DUP(00H)
	DD	2 DUP(00H)
; Function compile flags: /Ogty
; File c:\documents and settings\test\mes documents\source\virtuos_v17\build\program\_common\post.cpp
xdata$x	ENDS
;	COMDAT ?Serialize@CMail@@QAEXAAVCAr@@H@Z
_TEXT	SEGMENT
__$EHRec$ = -12						; size = 12
$T203186 = 8						; size = 4
_ar$ = 8						; size = 4
_bData$ = 12						; size = 4
?Serialize@CMail@@QAEXAAVCAr@@H@Z PROC NEAR		; CMail::Serialize, COMDAT
; _this$ = ecx

; 90   : {

  00000	64 a1 00 00 00
	00		 mov	 eax, DWORD PTR fs:__except_list
  00006	6a ff		 push	 -1
  00008	68 00 00 00 00	 push	 __ehhandler$?Serialize@CMail@@QAEXAAVCAr@@H@Z
  0000d	50		 push	 eax

; 91   : 	if( bData )

  0000e	8b 44 24 14	 mov	 eax, DWORD PTR _bData$[esp+8]
  00012	64 89 25 00 00
	00 00		 mov	 DWORD PTR fs:__except_list, esp
  00019	53		 push	 ebx
  0001a	55		 push	 ebp
  0001b	56		 push	 esi

; 92   : 	{
; 93   : 		if( ar.IsStoring() )

  0001c	8b 74 24 1c	 mov	 esi, DWORD PTR _ar$[esp+20]
  00020	33 ed		 xor	 ebp, ebp
  00022	3b c5		 cmp	 eax, ebp
  00024	57		 push	 edi
  00025	8b f9		 mov	 edi, ecx
  00027	0f 84 12 02 00
	00		 je	 $L198901
  0002d	33 c0		 xor	 eax, eax
  0002f	8a 06		 mov	 al, BYTE PTR [esi]

; 94   : 		{
; 95   : 			ar << m_nMail << m_idSender;

  00031	bb 04 00 00 00	 mov	 ebx, 4
  00036	f7 d0		 not	 eax
  00038	a8 01		 test	 al, 1
  0003a	0f 84 d4 00 00
	00		 je	 $L198902
  00040	8b 6f 04	 mov	 ebp, DWORD PTR [edi+4]
  00043	53		 push	 ebx
  00044	8b ce		 mov	 ecx, esi
  00046	e8 00 00 00 00	 call	 ?CheckBuf@CAr@@QAEXI@Z	; CAr::CheckBuf
  0004b	8b 4e 08	 mov	 ecx, DWORD PTR [esi+8]
  0004e	89 29		 mov	 DWORD PTR [ecx], ebp
  00050	01 5e 08	 add	 DWORD PTR [esi+8], ebx
  00053	8b 6f 08	 mov	 ebp, DWORD PTR [edi+8]
  00056	53		 push	 ebx
  00057	8b ce		 mov	 ecx, esi
  00059	e8 00 00 00 00	 call	 ?CheckBuf@CAr@@QAEXI@Z	; CAr::CheckBuf
  0005e	8b 56 08	 mov	 edx, DWORD PTR [esi+8]
  00061	89 2a		 mov	 DWORD PTR [edx], ebp
  00063	01 5e 08	 add	 DWORD PTR [esi+8], ebx

; 96   : 			if( m_pItemElem )

  00066	8b 47 0c	 mov	 eax, DWORD PTR [edi+12]
  00069	85 c0		 test	 eax, eax

; 97   : 			{
; 98   : 				ar << (BYTE)1;

  0006b	8b ce		 mov	 ecx, esi
  0006d	6a 01		 push	 1
  0006f	74 19		 je	 SHORT $L198903
  00071	e8 00 00 00 00	 call	 ?CheckBuf@CAr@@QAEXI@Z	; CAr::CheckBuf
  00076	8b 46 08	 mov	 eax, DWORD PTR [esi+8]
  00079	c6 00 01	 mov	 BYTE PTR [eax], 1
  0007c	ff 46 08	 inc	 DWORD PTR [esi+8]

; 99   : 				m_pItemElem->Serialize( ar );

  0007f	8b 4f 0c	 mov	 ecx, DWORD PTR [edi+12]
  00082	8b 11		 mov	 edx, DWORD PTR [ecx]
  00084	56		 push	 esi
  00085	ff 52 0c	 call	 DWORD PTR [edx+12]

; 100  : 			}
; 101  : 			else

  00088	eb 0e		 jmp	 SHORT $L203206
$L198903:

; 102  : 			{
; 103  : 				ar << (BYTE)0;

  0008a	e8 00 00 00 00	 call	 ?CheckBuf@CAr@@QAEXI@Z	; CAr::CheckBuf
  0008f	8b 46 08	 mov	 eax, DWORD PTR [esi+8]
  00092	c6 00 00	 mov	 BYTE PTR [eax], 0
  00095	ff 46 08	 inc	 DWORD PTR [esi+8]
$L203206:

; 104  : 			}
; 105  : 			ar << m_nGold;

  00098	8b 6f 10	 mov	 ebp, DWORD PTR [edi+16]
  0009b	53		 push	 ebx
  0009c	8b ce		 mov	 ecx, esi
  0009e	e8 00 00 00 00	 call	 ?CheckBuf@CAr@@QAEXI@Z	; CAr::CheckBuf
  000a3	8b 4e 08	 mov	 ecx, DWORD PTR [esi+8]
  000a6	89 29		 mov	 DWORD PTR [ecx], ebp
  000a8	8b 4e 08	 mov	 ecx, DWORD PTR [esi+8]
  000ab	03 cb		 add	 ecx, ebx

; 106  : 	//		ar << m_tmCreate;
; 107  : 			ar << time_null() - m_tmCreate;

  000ad	6a 00		 push	 0
  000af	89 4e 08	 mov	 DWORD PTR [esi+8], ecx
  000b2	e8 00 00 00 00	 call	 _time
  000b7	8b 57 14	 mov	 edx, DWORD PTR [edi+20]
  000ba	83 c4 04	 add	 esp, 4
  000bd	2b c2		 sub	 eax, edx
  000bf	53		 push	 ebx
  000c0	8b ce		 mov	 ecx, esi
  000c2	8b e8		 mov	 ebp, eax
  000c4	e8 00 00 00 00	 call	 ?CheckBuf@CAr@@QAEXI@Z	; CAr::CheckBuf
  000c9	8b 56 08	 mov	 edx, DWORD PTR [esi+8]
  000cc	89 2a		 mov	 DWORD PTR [edx], ebp
  000ce	01 5e 08	 add	 DWORD PTR [esi+8], ebx

; 108  : 
; 109  : 			ar << m_byRead;

  000d1	8a 5f 18	 mov	 bl, BYTE PTR [edi+24]
  000d4	6a 01		 push	 1
  000d6	8b ce		 mov	 ecx, esi
  000d8	e8 00 00 00 00	 call	 ?CheckBuf@CAr@@QAEXI@Z	; CAr::CheckBuf
  000dd	8b 46 08	 mov	 eax, DWORD PTR [esi+8]
  000e0	88 18		 mov	 BYTE PTR [eax], bl
  000e2	8b 5e 08	 mov	 ebx, DWORD PTR [esi+8]

; 110  : 			ar.WriteString( m_szTitle );

  000e5	8d 4f 19	 lea	 ecx, DWORD PTR [edi+25]
  000e8	51		 push	 ecx
  000e9	43		 inc	 ebx
  000ea	8b ce		 mov	 ecx, esi
  000ec	89 5e 08	 mov	 DWORD PTR [esi+8], ebx
  000ef	e8 00 00 00 00	 call	 ?WriteString@CAr@@QAEXPBD@Z ; CAr::WriteString

; 111  : 			ar.WriteString( m_szText );

  000f4	83 c7 39	 add	 edi, 57			; 00000039H
  000f7	57		 push	 edi
  000f8	8b ce		 mov	 ecx, esi
  000fa	e8 00 00 00 00	 call	 ?WriteString@CAr@@QAEXPBD@Z ; CAr::WriteString

; 153  : 		}
; 154  : 	}
; 155  : }

  000ff	8b 4c 24 10	 mov	 ecx, DWORD PTR __$EHRec$[esp+28]
  00103	64 89 0d 00 00
	00 00		 mov	 DWORD PTR fs:__except_list, ecx
  0010a	5f		 pop	 edi
  0010b	5e		 pop	 esi
  0010c	5d		 pop	 ebp
  0010d	5b		 pop	 ebx
  0010e	83 c4 0c	 add	 esp, 12			; 0000000cH
  00111	c2 08 00	 ret	 8
$L198902:

; 112  : 		}
; 113  : 		else
; 114  : 		{
; 115  : 			ar >> m_nMail >> m_idSender;

  00114	8b 46 08	 mov	 eax, DWORD PTR [esi+8]
  00117	8b 4e 0c	 mov	 ecx, DWORD PTR [esi+12]
  0011a	8d 50 04	 lea	 edx, DWORD PTR [eax+4]
  0011d	3b d1		 cmp	 edx, ecx
  0011f	77 0a		 ja	 SHORT $L203225
  00121	8b 00		 mov	 eax, DWORD PTR [eax]
  00123	89 47 04	 mov	 DWORD PTR [edi+4], eax
  00126	01 5e 08	 add	 DWORD PTR [esi+8], ebx
  00129	eb 09		 jmp	 SHORT $L203226
$L203225:
  0012b	89 6f 04	 mov	 DWORD PTR [edi+4], ebp
  0012e	8b 4e 0c	 mov	 ecx, DWORD PTR [esi+12]
  00131	89 4e 08	 mov	 DWORD PTR [esi+8], ecx
$L203226:
  00134	8b 46 08	 mov	 eax, DWORD PTR [esi+8]
  00137	8b 4e 0c	 mov	 ecx, DWORD PTR [esi+12]
  0013a	8d 50 04	 lea	 edx, DWORD PTR [eax+4]
  0013d	3b d1		 cmp	 edx, ecx
  0013f	77 0a		 ja	 SHORT $L203231
  00141	8b 00		 mov	 eax, DWORD PTR [eax]
  00143	89 47 08	 mov	 DWORD PTR [edi+8], eax
  00146	01 5e 08	 add	 DWORD PTR [esi+8], ebx
  00149	eb 09		 jmp	 SHORT $L203232
$L203231:
  0014b	89 6f 08	 mov	 DWORD PTR [edi+8], ebp
  0014e	8b 4e 0c	 mov	 ecx, DWORD PTR [esi+12]
  00151	89 4e 08	 mov	 DWORD PTR [esi+8], ecx
$L203232:

; 116  : 
; 117  : 			//  
; 118  : //			//	BEGINTEST
; 119  : // 			Error( _T( "m_nMail:%d, m_idSender:%d" ), m_nMail, m_idSender );
; 120  : 
; 121  : 			BYTE byItemElem;
; 122  : 			ar >> byItemElem;

  00154	8b 46 08	 mov	 eax, DWORD PTR [esi+8]
  00157	8b 56 0c	 mov	 edx, DWORD PTR [esi+12]
  0015a	8d 48 01	 lea	 ecx, DWORD PTR [eax+1]
  0015d	3b ca		 cmp	 ecx, edx
  0015f	77 2b		 ja	 SHORT $L203237
  00161	8a 00		 mov	 al, BYTE PTR [eax]

; 123  : 			if( byItemElem )

  00163	84 c0		 test	 al, al
  00165	89 4e 08	 mov	 DWORD PTR [esi+8], ecx
  00168	74 3c		 je	 SHORT $L198909

; 124  : 			{
; 125  : 				m_pItemElem	= new CItemElem;

  0016a	68 a0 00 00 00	 push	 160			; 000000a0H
  0016f	e8 00 00 00 00	 call	 ??2@YAPAXI@Z		; operator new
  00174	83 c4 04	 add	 esp, 4
  00177	89 44 24 20	 mov	 DWORD PTR $T203186[esp+24], eax
  0017b	3b c5		 cmp	 eax, ebp
  0017d	89 6c 24 18	 mov	 DWORD PTR __$EHRec$[esp+36], ebp
  00181	74 0e		 je	 SHORT $L203187
  00183	8b c8		 mov	 ecx, eax
  00185	e8 00 00 00 00	 call	 ??0CItemElem@@QAE@XZ	; CItemElem::CItemElem
  0018a	eb 07		 jmp	 SHORT $L203188

; 116  : 
; 117  : 			//  
; 118  : //			//	BEGINTEST
; 119  : // 			Error( _T( "m_nMail:%d, m_idSender:%d" ), m_nMail, m_idSender );
; 120  : 
; 121  : 			BYTE byItemElem;
; 122  : 			ar >> byItemElem;

$L203237:
  0018c	89 56 08	 mov	 DWORD PTR [esi+8], edx

; 123  : 			if( byItemElem )

  0018f	eb 15		 jmp	 SHORT $L198909
$L203187:

; 124  : 			{
; 125  : 				m_pItemElem	= new CItemElem;

  00191	33 c0		 xor	 eax, eax
$L203188:
  00193	89 47 0c	 mov	 DWORD PTR [edi+12], eax

; 126  : 				m_pItemElem->Serialize( ar );

  00196	8b 10		 mov	 edx, DWORD PTR [eax]
  00198	56		 push	 esi
  00199	8b c8		 mov	 ecx, eax
  0019b	c7 44 24 1c ff
	ff ff ff	 mov	 DWORD PTR __$EHRec$[esp+40], -1
  001a3	ff 52 0c	 call	 DWORD PTR [edx+12]
$L198909:

; 127  : 			}
; 128  : 			ar >> m_nGold;

  001a6	8b 46 08	 mov	 eax, DWORD PTR [esi+8]
  001a9	8b 56 0c	 mov	 edx, DWORD PTR [esi+12]
  001ac	8d 48 04	 lea	 ecx, DWORD PTR [eax+4]
  001af	3b ca		 cmp	 ecx, edx
  001b1	77 0c		 ja	 SHORT $L203242
  001b3	8b 10		 mov	 edx, DWORD PTR [eax]
  001b5	89 57 10	 mov	 DWORD PTR [edi+16], edx
  001b8	8b 46 08	 mov	 eax, DWORD PTR [esi+8]
  001bb	03 c3		 add	 eax, ebx
  001bd	eb 06		 jmp	 SHORT $L203307
$L203242:
  001bf	89 6f 10	 mov	 DWORD PTR [edi+16], ebp
  001c2	8b 46 0c	 mov	 eax, DWORD PTR [esi+12]
$L203307:

; 129  : 			time_t tm;
; 130  : 			ar >> tm;

  001c5	8b 56 0c	 mov	 edx, DWORD PTR [esi+12]
  001c8	8d 48 04	 lea	 ecx, DWORD PTR [eax+4]
  001cb	3b ca		 cmp	 ecx, edx
  001cd	89 46 08	 mov	 DWORD PTR [esi+8], eax
  001d0	77 07		 ja	 SHORT $L203248
  001d2	8b 28		 mov	 ebp, DWORD PTR [eax]
  001d4	89 4e 08	 mov	 DWORD PTR [esi+8], ecx
  001d7	eb 03		 jmp	 SHORT $L203249
$L203248:
  001d9	89 56 08	 mov	 DWORD PTR [esi+8], edx
$L203249:

; 131  : 			m_tmCreate	= time_null() - tm; 

  001dc	6a 00		 push	 0
  001de	e8 00 00 00 00	 call	 _time
  001e3	2b c5		 sub	 eax, ebp
  001e5	89 47 14	 mov	 DWORD PTR [edi+20], eax

; 132  : 	//		ar >> m_tmCreate;
; 133  : 			ar >> m_byRead;

  001e8	8b 46 08	 mov	 eax, DWORD PTR [esi+8]
  001eb	8b 56 0c	 mov	 edx, DWORD PTR [esi+12]
  001ee	8d 48 01	 lea	 ecx, DWORD PTR [eax+1]
  001f1	83 c4 04	 add	 esp, 4
  001f4	3b ca		 cmp	 ecx, edx
  001f6	77 0b		 ja	 SHORT $L203257
  001f8	8a 10		 mov	 dl, BYTE PTR [eax]
  001fa	88 57 18	 mov	 BYTE PTR [edi+24], dl
  001fd	8b 46 08	 mov	 eax, DWORD PTR [esi+8]
  00200	40		 inc	 eax
  00201	eb 07		 jmp	 SHORT $L203308
$L203257:
  00203	c6 47 18 00	 mov	 BYTE PTR [edi+24], 0
  00207	8b 46 0c	 mov	 eax, DWORD PTR [esi+12]
$L203308:

; 134  : 			ar.ReadString( m_szTitle, MAX_MAILTITLE );

  0020a	6a 20		 push	 32			; 00000020H
  0020c	8d 4f 19	 lea	 ecx, DWORD PTR [edi+25]
  0020f	51		 push	 ecx
  00210	8b ce		 mov	 ecx, esi
  00212	89 46 08	 mov	 DWORD PTR [esi+8], eax
  00215	e8 00 00 00 00	 call	 ?ReadString@CAr@@QAEPADPADH@Z ; CAr::ReadString

; 135  : 			ar.ReadString( m_szText, MAX_MAILTEXT );

  0021a	68 00 01 00 00	 push	 256			; 00000100H
  0021f	83 c7 39	 add	 edi, 57			; 00000039H
  00222	57		 push	 edi
  00223	8b ce		 mov	 ecx, esi
  00225	e8 00 00 00 00	 call	 ?ReadString@CAr@@QAEPADPADH@Z ; CAr::ReadString

; 153  : 		}
; 154  : 	}
; 155  : }

  0022a	8b 4c 24 10	 mov	 ecx, DWORD PTR __$EHRec$[esp+28]
  0022e	64 89 0d 00 00
	00 00		 mov	 DWORD PTR fs:__except_list, ecx
  00235	5f		 pop	 edi
  00236	5e		 pop	 esi
  00237	5d		 pop	 ebp
  00238	5b		 pop	 ebx
  00239	83 c4 0c	 add	 esp, 12			; 0000000cH
  0023c	c2 08 00	 ret	 8
$L198901:

; 136  : 		}
; 137  : 	}
; 138  : 	else	// no data
; 139  : 	{
; 140  : 		if( ar.IsStoring() )

  0023f	33 d2		 xor	 edx, edx
  00241	8a 16		 mov	 dl, BYTE PTR [esi]
  00243	f7 d2		 not	 edx
  00245	f6 c2 01	 test	 dl, 1
  00248	74 55		 je	 SHORT $L198916

; 141  : 		{
; 142  : 			ar << m_nMail;

  0024a	8b 6f 04	 mov	 ebp, DWORD PTR [edi+4]
  0024d	bb 04 00 00 00	 mov	 ebx, 4
  00252	53		 push	 ebx
  00253	8b ce		 mov	 ecx, esi
  00255	e8 00 00 00 00	 call	 ?CheckBuf@CAr@@QAEXI@Z	; CAr::CheckBuf
  0025a	8b 46 08	 mov	 eax, DWORD PTR [esi+8]
  0025d	89 28		 mov	 DWORD PTR [eax], ebp
  0025f	8b 46 08	 mov	 eax, DWORD PTR [esi+8]
  00262	03 c3		 add	 eax, ebx

; 143  : 			ar << time_null() - m_tmCreate;

  00264	6a 00		 push	 0
  00266	89 46 08	 mov	 DWORD PTR [esi+8], eax
  00269	e8 00 00 00 00	 call	 _time
  0026e	8b 4f 14	 mov	 ecx, DWORD PTR [edi+20]
  00271	83 c4 04	 add	 esp, 4
  00274	2b c1		 sub	 eax, ecx
  00276	53		 push	 ebx
  00277	8b ce		 mov	 ecx, esi
  00279	8b e8		 mov	 ebp, eax
  0027b	e8 00 00 00 00	 call	 ?CheckBuf@CAr@@QAEXI@Z	; CAr::CheckBuf
  00280	8b 4e 08	 mov	 ecx, DWORD PTR [esi+8]
  00283	89 29		 mov	 DWORD PTR [ecx], ebp
  00285	01 5e 08	 add	 DWORD PTR [esi+8], ebx

; 144  : 			ar << m_byRead;

  00288	8a 5f 18	 mov	 bl, BYTE PTR [edi+24]
  0028b	6a 01		 push	 1
  0028d	8b ce		 mov	 ecx, esi
  0028f	e8 00 00 00 00	 call	 ?CheckBuf@CAr@@QAEXI@Z	; CAr::CheckBuf
  00294	8b 56 08	 mov	 edx, DWORD PTR [esi+8]
  00297	88 1a		 mov	 BYTE PTR [edx], bl
  00299	8b 46 08	 mov	 eax, DWORD PTR [esi+8]
  0029c	40		 inc	 eax

; 145  : 		}
; 146  : 		else	// load

  0029d	eb 65		 jmp	 SHORT $L203309
$L198916:

; 147  : 		{
; 148  : 			ar >> m_nMail;

  0029f	8b 46 08	 mov	 eax, DWORD PTR [esi+8]
  002a2	8b 56 0c	 mov	 edx, DWORD PTR [esi+12]
  002a5	8d 48 04	 lea	 ecx, DWORD PTR [eax+4]
  002a8	3b ca		 cmp	 ecx, edx
  002aa	77 0d		 ja	 SHORT $L203282
  002ac	8b 10		 mov	 edx, DWORD PTR [eax]
  002ae	89 57 04	 mov	 DWORD PTR [edi+4], edx
  002b1	8b 46 08	 mov	 eax, DWORD PTR [esi+8]
  002b4	83 c0 04	 add	 eax, 4
  002b7	eb 06		 jmp	 SHORT $L203310
$L203282:
  002b9	89 6f 04	 mov	 DWORD PTR [edi+4], ebp
  002bc	8b 46 0c	 mov	 eax, DWORD PTR [esi+12]
$L203310:

; 149  : 			time_t tm;
; 150  : 			ar >> tm;

  002bf	8b 56 0c	 mov	 edx, DWORD PTR [esi+12]
  002c2	8d 48 04	 lea	 ecx, DWORD PTR [eax+4]
  002c5	3b ca		 cmp	 ecx, edx
  002c7	89 46 08	 mov	 DWORD PTR [esi+8], eax
  002ca	77 07		 ja	 SHORT $L203288
  002cc	8b 28		 mov	 ebp, DWORD PTR [eax]
  002ce	89 4e 08	 mov	 DWORD PTR [esi+8], ecx
  002d1	eb 03		 jmp	 SHORT $L203289
$L203288:
  002d3	89 56 08	 mov	 DWORD PTR [esi+8], edx
$L203289:

; 151  : 			m_tmCreate	= time_null() - tm; 

  002d6	6a 00		 push	 0
  002d8	e8 00 00 00 00	 call	 _time
  002dd	2b c5		 sub	 eax, ebp
  002df	89 47 14	 mov	 DWORD PTR [edi+20], eax

; 152  : 			ar >> m_byRead;

  002e2	8b 46 08	 mov	 eax, DWORD PTR [esi+8]
  002e5	8b 56 0c	 mov	 edx, DWORD PTR [esi+12]
  002e8	8d 48 01	 lea	 ecx, DWORD PTR [eax+1]
  002eb	83 c4 04	 add	 esp, 4
  002ee	3b ca		 cmp	 ecx, edx
  002f0	77 0b		 ja	 SHORT $L203297
  002f2	8a 10		 mov	 dl, BYTE PTR [eax]
  002f4	88 57 18	 mov	 BYTE PTR [edi+24], dl
  002f7	8b 46 08	 mov	 eax, DWORD PTR [esi+8]
  002fa	40		 inc	 eax
  002fb	eb 07		 jmp	 SHORT $L203309
$L203297:
  002fd	c6 47 18 00	 mov	 BYTE PTR [edi+24], 0
  00301	8b 46 0c	 mov	 eax, DWORD PTR [esi+12]
$L203309:

; 153  : 		}
; 154  : 	}
; 155  : }

  00304	8b 4c 24 10	 mov	 ecx, DWORD PTR __$EHRec$[esp+28]
  00308	5f		 pop	 edi
  00309	89 46 08	 mov	 DWORD PTR [esi+8], eax
  0030c	5e		 pop	 esi
  0030d	5d		 pop	 ebp
  0030e	64 89 0d 00 00
	00 00		 mov	 DWORD PTR fs:__except_list, ecx
  00315	5b		 pop	 ebx
  00316	83 c4 0c	 add	 esp, 12			; 0000000cH
  00319	c2 08 00	 ret	 8
_TEXT	ENDS
;	COMDAT text$x
text$x	SEGMENT
$L203189:
  00000	8b 45 04	 mov	 eax, DWORD PTR $T203186[ebp-4]
  00003	50		 push	 eax
  00004	e8 00 00 00 00	 call	 ??3@YAXPAX@Z		; operator delete
  00009	59		 pop	 ecx
  0000a	c3		 ret	 0
__ehhandler$?Serialize@CMail@@QAEXAAVCAr@@H@Z:
  0000b	b8 00 00 00 00	 mov	 eax, OFFSET FLAT:$T203304
  00010	e9 00 00 00 00	 jmp	 ___CxxFrameHandler
text$x	ENDS
?Serialize@CMail@@QAEXAAVCAr@@H@Z ENDP			; CMail::Serialize
PUBLIC	??Diterator@?$vector@PAVCMail@@V?$allocator@PAVCMail@@@std@@@std@@QBEAAPAVCMail@@XZ ; std::vector<CMail *,std::allocator<CMail *> >::iterator::operator*
; Function compile flags: /Ogty
; File c:\program files\microsoft visual studio .net 2003\vc7\include\vector
;	COMDAT ??Diterator@?$vector@PAVCMail@@V?$allocator@PAVCMail@@@std@@@std@@QBEAAPAVCMail@@XZ
_TEXT	SEGMENT
??Diterator@?$vector@PAVCMail@@V?$allocator@PAVCMail@@@std@@@std@@QBEAAPAVCMail@@XZ PROC NEAR ; std::vector<CMail *,std::allocator<CMail *> >::iterator::operator*, COMDAT
; _this$ = ecx

; 220  : 			return ((reference)**(const_iterator *)this);

  00000	8b 01		 mov	 eax, DWORD PTR [ecx]

; 221  : 			}

  00002	c3		 ret	 0
??Diterator@?$vector@PAVCMail@@V?$allocator@PAVCMail@@@std@@@std@@QBEAAPAVCMail@@XZ ENDP ; std::vector<CMail *,std::allocator<CMail *> >::iterator::operator*
_TEXT	ENDS
PUBLIC	??9const_iterator@?$vector@PAVCMail@@V?$allocator@PAVCMail@@@std@@@std@@QBE_NABV012@@Z ; std::vector<CMail *,std::allocator<CMail *> >::const_iterator::operator!=
; Function compile flags: /Ogty
;	COMDAT ??9const_iterator@?$vector@PAVCMail@@V?$allocator@PAVCMail@@@std@@@std@@QBE_NABV012@@Z
_TEXT	SEGMENT
__Right$ = 8						; size = 4
??9const_iterator@?$vector@PAVCMail@@V?$allocator@PAVCMail@@@std@@@std@@QBE_NABV012@@Z PROC NEAR ; std::vector<CMail *,std::allocator<CMail *> >::const_iterator::operator!=, COMDAT
; _this$ = ecx

; 160  : 			return (!(*this == _Right));

  00000	8b 01		 mov	 eax, DWORD PTR [ecx]
  00002	8b 54 24 04	 mov	 edx, DWORD PTR __Right$[esp-4]
  00006	56		 push	 esi
  00007	8b 32		 mov	 esi, DWORD PTR [edx]
  00009	33 c9		 xor	 ecx, ecx
  0000b	3b c6		 cmp	 eax, esi
  0000d	0f 95 c1	 setne	 cl
  00010	8a c1		 mov	 al, cl
  00012	5e		 pop	 esi

; 161  : 			}

  00013	c2 04 00	 ret	 4
??9const_iterator@?$vector@PAVCMail@@V?$allocator@PAVCMail@@@std@@@std@@QBE_NABV012@@Z ENDP ; std::vector<CMail *,std::allocator<CMail *> >::const_iterator::operator!=
_TEXT	ENDS
PUBLIC	??9const_iterator@?$_Tree@V?$_Tmap_traits@KPAVCMail@@U?$less@K@std@@V?$allocator@U?$pair@$$CBKPAVCMail@@@std@@@3@$0A@@std@@@std@@QBE_NABV012@@Z ; std::_Tree<std::_Tmap_traits<unsigned long,CMail *,std::less<unsigned long>,std::allocator<std::pair<unsigned long const ,CMail *> >,0> >::const_iterator::operator!=
; Function compile flags: /Ogty
; File c:\program files\microsoft visual studio .net 2003\vc7\include\xtree
;	COMDAT ??9const_iterator@?$_Tree@V?$_Tmap_traits@KPAVCMail@@U?$less@K@std@@V?$allocator@U?$pair@$$CBKPAVCMail@@@std@@@3@$0A@@std@@@std@@QBE_NABV012@@Z
_TEXT	SEGMENT
__Right$ = 8						; size = 4
??9const_iterator@?$_Tree@V?$_Tmap_traits@KPAVCMail@@U?$less@K@std@@V?$allocator@U?$pair@$$CBKPAVCMail@@@std@@@3@$0A@@std@@@std@@QBE_NABV012@@Z PROC NEAR ; std::_Tree<std::_Tmap_traits<unsigned long,CMail *,std::less<unsigned long>,std::allocator<std::pair<unsigned long const ,CMail *> >,0> >::const_iterator::operator!=, COMDAT
; _this$ = ecx

; 246  : 			return (!(*this == _Right));

  00000	8b 01		 mov	 eax, DWORD PTR [ecx]
  00002	8b 54 24 04	 mov	 edx, DWORD PTR __Right$[esp-4]
  00006	56		 push	 esi
  00007	8b 32		 mov	 esi, DWORD PTR [edx]
  00009	33 c9		 xor	 ecx, ecx
  0000b	3b c6		 cmp	 eax, esi
  0000d	0f 95 c1	 setne	 cl
  00010	8a c1		 mov	 al, cl
  00012	5e		 pop	 esi

; 247  : 			}

  00013	c2 04 00	 ret	 4
??9const_iterator@?$_Tree@V?$_Tmap_traits@KPAVCMail@@U?$less@K@std@@V?$allocator@U?$pair@$$CBKPAVCMail@@@std@@@3@$0A@@std@@@std@@QBE_NABV012@@Z ENDP ; std::_Tree<std::_Tmap_traits<unsigned long,CMail *,std::less<unsigned long>,std::allocator<std::pair<unsigned long const ,CMail *> >,0> >::const_iterator::operator!=
_TEXT	ENDS
PUBLIC	??9const_iterator@?$_Tree@V?$_Tmap_traits@KPAVCMailBox@@U?$less@K@std@@V?$allocator@U?$pair@$$CBKPAVCMailBox@@@std@@@3@$0A@@std@@@std@@QBE_NABV012@@Z ; std::_Tree<std::_Tmap_traits<unsigned long,CMailBox *,std::less<unsigned long>,std::allocator<std::pair<unsigned long const ,CMailBox *> >,0> >::const_iterator::operator!=
; Function compile flags: /Ogty
;	COMDAT ??9const_iterator@?$_Tree@V?$_Tmap_traits@KPAVCMailBox@@U?$less@K@std@@V?$allocator@U?$pair@$$CBKPAVCMailBox@@@std@@@3@$0A@@std@@@std@@QBE_NABV012@@Z
_TEXT	SEGMENT
__Right$ = 8						; size = 4
??9const_iterator@?$_Tree@V?$_Tmap_traits@KPAVCMailBox@@U?$less@K@std@@V?$allocator@U?$pair@$$CBKPAVCMailBox@@@std@@@3@$0A@@std@@@std@@QBE_NABV012@@Z PROC NEAR ; std::_Tree<std::_Tmap_traits<unsigned long,CMailBox *,std::less<unsigned long>,std::allocator<std::pair<unsigned long const ,CMailBox *> >,0> >::const_iterator::operator!=, COMDAT
; _this$ = ecx

; 246  : 			return (!(*this == _Right));

  00000	8b 01		 mov	 eax, DWORD PTR [ecx]
  00002	8b 54 24 04	 mov	 edx, DWORD PTR __Right$[esp-4]
  00006	56		 push	 esi
  00007	8b 32		 mov	 esi, DWORD PTR [edx]
  00009	33 c9		 xor	 ecx, ecx
  0000b	3b c6		 cmp	 eax, esi
  0000d	0f 95 c1	 setne	 cl
  00010	8a c1		 mov	 al, cl
  00012	5e		 pop	 esi

; 247  : 			}

  00013	c2 04 00	 ret	 4
??9const_iterator@?$_Tree@V?$_Tmap_traits@KPAVCMailBox@@U?$less@K@std@@V?$allocator@U?$pair@$$CBKPAVCMailBox@@@std@@@3@$0A@@std@@@std@@QBE_NABV012@@Z ENDP ; std::_Tree<std::_Tmap_traits<unsigned long,CMailBox *,std::less<unsigned long>,std::allocator<std::pair<unsigned long const ,CMailBox *> >,0> >::const_iterator::operator!=
_TEXT	ENDS
PUBLIC	?GetTickCount@CTime@ATL@@SG?AV12@XZ		; ATL::CTime::GetTickCount
EXTRN	__time64:NEAR
; Function compile flags: /Ogty
; File c:\program files\microsoft visual studio .net 2003\vc7\atlmfc\include\atltime.inl
;	COMDAT ?GetTickCount@CTime@ATL@@SG?AV12@XZ
_TEXT	SEGMENT
___$ReturnUdt$ = 8					; size = 4
?GetTickCount@CTime@ATL@@SG?AV12@XZ PROC NEAR		; ATL::CTime::GetTickCount, COMDAT

; 139  : 	return( CTime( ::_time64( NULL ) ) );

  00000	6a 00		 push	 0
  00002	e8 00 00 00 00	 call	 __time64
  00007	8b 4c 24 08	 mov	 ecx, DWORD PTR ___$ReturnUdt$[esp]
  0000b	89 01		 mov	 DWORD PTR [ecx], eax
  0000d	83 c4 04	 add	 esp, 4
  00010	89 51 04	 mov	 DWORD PTR [ecx+4], edx
  00013	8b c1		 mov	 eax, ecx

; 140  : }

  00015	c2 04 00	 ret	 4
?GetTickCount@CTime@ATL@@SG?AV12@XZ ENDP		; ATL::CTime::GetTickCount
_TEXT	ENDS
PUBLIC	??0?$_Vector_val@PAVCMail@@V?$allocator@PAVCMail@@@std@@@std@@IAE@V?$allocator@PAVCMail@@@1@@Z ; std::_Vector_val<CMail *,std::allocator<CMail *> >::_Vector_val<CMail *,std::allocator<CMail *> >
; Function compile flags: /Ogty
; File c:\program files\microsoft visual studio .net 2003\vc7\include\vector
;	COMDAT ??0?$_Vector_val@PAVCMail@@V?$allocator@PAVCMail@@@std@@@std@@IAE@V?$allocator@PAVCMail@@@1@@Z
_TEXT	SEGMENT
__Al$ = 8						; size = 1
??0?$_Vector_val@PAVCMail@@V?$allocator@PAVCMail@@@std@@@std@@IAE@V?$allocator@PAVCMail@@@1@@Z PROC NEAR ; std::_Vector_val<CMail *,std::allocator<CMail *> >::_Vector_val<CMail *,std::allocator<CMail *> >, COMDAT
; _this$ = ecx

; 21   : 		{	// construct allocator from _Al

  00000	8b c1		 mov	 eax, ecx

; 22   : 		}

  00002	c2 04 00	 ret	 4
??0?$_Vector_val@PAVCMail@@V?$allocator@PAVCMail@@@std@@@std@@IAE@V?$allocator@PAVCMail@@@1@@Z ENDP ; std::_Vector_val<CMail *,std::allocator<CMail *> >::_Vector_val<CMail *,std::allocator<CMail *> >
_TEXT	ENDS
PUBLIC	?_Key@?$_Tree@V?$_Tmap_traits@KPAVCMail@@U?$less@K@std@@V?$allocator@U?$pair@$$CBKPAVCMail@@@std@@@3@$0A@@std@@@std@@KAABKPAU_Node@?$_Tree_nod@V?$_Tmap_traits@KPAVCMail@@U?$less@K@std@@V?$allocator@U?$pair@$$CBKPAVCMail@@@std@@@3@$0A@@std@@@2@@Z ; std::_Tree<std::_Tmap_traits<unsigned long,CMail *,std::less<unsigned long>,std::allocator<std::pair<unsigned long const ,CMail *> >,0> >::_Key
; Function compile flags: /Ogty
; File c:\program files\microsoft visual studio .net 2003\vc7\include\xtree
;	COMDAT ?_Key@?$_Tree@V?$_Tmap_traits@KPAVCMail@@U?$less@K@std@@V?$allocator@U?$pair@$$CBKPAVCMail@@@std@@@3@$0A@@std@@@std@@KAABKPAU_Node@?$_Tree_nod@V?$_Tmap_traits@KPAVCMail@@U?$less@K@std@@V?$allocator@U?$pair@$$CBKPAVCMail@@@std@@@3@$0A@@std@@@2@@Z
_TEXT	SEGMENT
__Pnode$ = 8						; size = 4
?_Key@?$_Tree@V?$_Tmap_traits@KPAVCMail@@U?$less@K@std@@V?$allocator@U?$pair@$$CBKPAVCMail@@@std@@@3@$0A@@std@@@std@@KAABKPAU_Node@?$_Tree_nod@V?$_Tmap_traits@KPAVCMail@@U?$less@K@std@@V?$allocator@U?$pair@$$CBKPAVCMail@@@std@@@3@$0A@@std@@@2@@Z PROC NEAR ; std::_Tree<std::_Tmap_traits<unsigned long,CMail *,std::less<unsigned long>,std::allocator<std::pair<unsigned long const ,CMail *> >,0> >::_Key, COMDAT

; 142  : 		return (_Mybase::_Kfn(_Myval(_Pnode)));

  00000	8b 44 24 04	 mov	 eax, DWORD PTR __Pnode$[esp-4]
  00004	83 c0 0c	 add	 eax, 12			; 0000000cH

; 143  : 		}

  00007	c3		 ret	 0
?_Key@?$_Tree@V?$_Tmap_traits@KPAVCMail@@U?$less@K@std@@V?$allocator@U?$pair@$$CBKPAVCMail@@@std@@@3@$0A@@std@@@std@@KAABKPAU_Node@?$_Tree_nod@V?$_Tmap_traits@KPAVCMail@@U?$less@K@std@@V?$allocator@U?$pair@$$CBKPAVCMail@@@std@@@3@$0A@@std@@@2@@Z ENDP ; std::_Tree<std::_Tmap_traits<unsigned long,CMail *,std::less<unsigned long>,std::allocator<std::pair<unsigned long const ,CMail *> >,0> >::_Key
_TEXT	ENDS
PUBLIC	?_Root@?$_Tree@V?$_Tmap_traits@KPAVCMail@@U?$less@K@std@@V?$allocator@U?$pair@$$CBKPAVCMail@@@std@@@3@$0A@@std@@@std@@IAEAAPAU_Node@?$_Tree_nod@V?$_Tmap_traits@KPAVCMail@@U?$less@K@std@@V?$allocator@U?$pair@$$CBKPAVCMail@@@std@@@3@$0A@@std@@@2@XZ ; std::_Tree<std::_Tmap_traits<unsigned long,CMail *,std::less<unsigned long>,std::allocator<std::pair<unsigned long const ,CMail *> >,0> >::_Root
; Function compile flags: /Ogty
;	COMDAT ?_Root@?$_Tree@V?$_Tmap_traits@KPAVCMail@@U?$less@K@std@@V?$allocator@U?$pair@$$CBKPAVCMail@@@std@@@3@$0A@@std@@@std@@IAEAAPAU_Node@?$_Tree_nod@V?$_Tmap_traits@KPAVCMail@@U?$less@K@std@@V?$allocator@U?$pair@$$CBKPAVCMail@@@std@@@3@$0A@@std@@@2@XZ
_TEXT	SEGMENT
?_Root@?$_Tree@V?$_Tmap_traits@KPAVCMail@@U?$less@K@std@@V?$allocator@U?$pair@$$CBKPAVCMail@@@std@@@3@$0A@@std@@@std@@IAEAAPAU_Node@?$_Tree_nod@V?$_Tmap_traits@KPAVCMail@@U?$less@K@std@@V?$allocator@U?$pair@$$CBKPAVCMail@@@std@@@3@$0A@@std@@@2@XZ PROC NEAR ; std::_Tree<std::_Tmap_traits<unsigned long,CMail *,std::less<unsigned long>,std::allocator<std::pair<unsigned long const ,CMail *> >,0> >::_Root, COMDAT
; _this$ = ecx

; 1059 : 		return (_Parent(_Myhead));

  00000	8b 41 04	 mov	 eax, DWORD PTR [ecx+4]
  00003	83 c0 04	 add	 eax, 4

; 1060 : 		}

  00006	c3		 ret	 0
?_Root@?$_Tree@V?$_Tmap_traits@KPAVCMail@@U?$less@K@std@@V?$allocator@U?$pair@$$CBKPAVCMail@@@std@@@3@$0A@@std@@@std@@IAEAAPAU_Node@?$_Tree_nod@V?$_Tmap_traits@KPAVCMail@@U?$less@K@std@@V?$allocator@U?$pair@$$CBKPAVCMail@@@std@@@3@$0A@@std@@@2@XZ ENDP ; std::_Tree<std::_Tmap_traits<unsigned long,CMail *,std::less<unsigned long>,std::allocator<std::pair<unsigned long const ,CMail *> >,0> >::_Root
_TEXT	ENDS
PUBLIC	?_Key@?$_Tree@V?$_Tmap_traits@KPAVCMailBox@@U?$less@K@std@@V?$allocator@U?$pair@$$CBKPAVCMailBox@@@std@@@3@$0A@@std@@@std@@KAABKPAU_Node@?$_Tree_nod@V?$_Tmap_traits@KPAVCMailBox@@U?$less@K@std@@V?$allocator@U?$pair@$$CBKPAVCMailBox@@@std@@@3@$0A@@std@@@2@@Z ; std::_Tree<std::_Tmap_traits<unsigned long,CMailBox *,std::less<unsigned long>,std::allocator<std::pair<unsigned long const ,CMailBox *> >,0> >::_Key
; Function compile flags: /Ogty
;	COMDAT ?_Key@?$_Tree@V?$_Tmap_traits@KPAVCMailBox@@U?$less@K@std@@V?$allocator@U?$pair@$$CBKPAVCMailBox@@@std@@@3@$0A@@std@@@std@@KAABKPAU_Node@?$_Tree_nod@V?$_Tmap_traits@KPAVCMailBox@@U?$less@K@std@@V?$allocator@U?$pair@$$CBKPAVCMailBox@@@std@@@3@$0A@@std@@@2@@Z
_TEXT	SEGMENT
__Pnode$ = 8						; size = 4
?_Key@?$_Tree@V?$_Tmap_traits@KPAVCMailBox@@U?$less@K@std@@V?$allocator@U?$pair@$$CBKPAVCMailBox@@@std@@@3@$0A@@std@@@std@@KAABKPAU_Node@?$_Tree_nod@V?$_Tmap_traits@KPAVCMailBox@@U?$less@K@std@@V?$allocator@U?$pair@$$CBKPAVCMailBox@@@std@@@3@$0A@@std@@@2@@Z PROC NEAR ; std::_Tree<std::_Tmap_traits<unsigned long,CMailBox *,std::less<unsigned long>,std::allocator<std::pair<unsigned long const ,CMailBox *> >,0> >::_Key, COMDAT

; 142  : 		return (_Mybase::_Kfn(_Myval(_Pnode)));

  00000	8b 44 24 04	 mov	 eax, DWORD PTR __Pnode$[esp-4]
  00004	83 c0 0c	 add	 eax, 12			; 0000000cH

; 143  : 		}

  00007	c3		 ret	 0
?_Key@?$_Tree@V?$_Tmap_traits@KPAVCMailBox@@U?$less@K@std@@V?$allocator@U?$pair@$$CBKPAVCMailBox@@@std@@@3@$0A@@std@@@std@@KAABKPAU_Node@?$_Tree_nod@V?$_Tmap_traits@KPAVCMailBox@@U?$less@K@std@@V?$allocator@U?$pair@$$CBKPAVCMailBox@@@std@@@3@$0A@@std@@@2@@Z ENDP ; std::_Tree<std::_Tmap_traits<unsigned long,CMailBox *,std::less<unsigned long>,std::allocator<std::pair<unsigned long const ,CMailBox *> >,0> >::_Key
_TEXT	ENDS
PUBLIC	?_Root@?$_Tree@V?$_Tmap_traits@KPAVCMailBox@@U?$less@K@std@@V?$allocator@U?$pair@$$CBKPAVCMailBox@@@std@@@3@$0A@@std@@@std@@IAEAAPAU_Node@?$_Tree_nod@V?$_Tmap_traits@KPAVCMailBox@@U?$less@K@std@@V?$allocator@U?$pair@$$CBKPAVCMailBox@@@std@@@3@$0A@@std@@@2@XZ ; std::_Tree<std::_Tmap_traits<unsigned long,CMailBox *,std::less<unsigned long>,std::allocator<std::pair<unsigned long const ,CMailBox *> >,0> >::_Root
; Function compile flags: /Ogty
;	COMDAT ?_Root@?$_Tree@V?$_Tmap_traits@KPAVCMailBox@@U?$less@K@std@@V?$allocator@U?$pair@$$CBKPAVCMailBox@@@std@@@3@$0A@@std@@@std@@IAEAAPAU_Node@?$_Tree_nod@V?$_Tmap_traits@KPAVCMailBox@@U?$less@K@std@@V?$allocator@U?$pair@$$CBKPAVCMailBox@@@std@@@3@$0A@@std@@@2@XZ
_TEXT	SEGMENT
?_Root@?$_Tree@V?$_Tmap_traits@KPAVCMailBox@@U?$less@K@std@@V?$allocator@U?$pair@$$CBKPAVCMailBox@@@std@@@3@$0A@@std@@@std@@IAEAAPAU_Node@?$_Tree_nod@V?$_Tmap_traits@KPAVCMailBox@@U?$less@K@std@@V?$allocator@U?$pair@$$CBKPAVCMailBox@@@std@@@3@$0A@@std@@@2@XZ PROC NEAR ; std::_Tree<std::_Tmap_traits<unsigned long,CMailBox *,std::less<unsigned long>,std::allocator<std::pair<unsigned long const ,CMailBox *> >,0> >::_Root, COMDAT
; _this$ = ecx

; 1059 : 		return (_Parent(_Myhead));

  00000	8b 41 04	 mov	 eax, DWORD PTR [ecx+4]
  00003	83 c0 04	 add	 eax, 4

; 1060 : 		}

  00006	c3		 ret	 0
?_Root@?$_Tree@V?$_Tmap_traits@KPAVCMailBox@@U?$less@K@std@@V?$allocator@U?$pair@$$CBKPAVCMailBox@@@std@@@3@$0A@@std@@@std@@IAEAAPAU_Node@?$_Tree_nod@V?$_Tmap_traits@KPAVCMailBox@@U?$less@K@std@@V?$allocator@U?$pair@$$CBKPAVCMailBox@@@std@@@3@$0A@@std@@@2@XZ ENDP ; std::_Tree<std::_Tmap_traits<unsigned long,CMailBox *,std::less<unsigned long>,std::allocator<std::pair<unsigned long const ,CMailBox *> >,0> >::_Root
_TEXT	ENDS
PUBLIC	??0iterator@?$vector@PAVCMail@@V?$allocator@PAVCMail@@@std@@@std@@QAE@PAPAVCMail@@@Z ; std::vector<CMail *,std::allocator<CMail *> >::iterator::iterator
; Function compile flags: /Ogty
; File c:\program files\microsoft visual studio .net 2003\vc7\include\vector
;	COMDAT ??0iterator@?$vector@PAVCMail@@V?$allocator@PAVCMail@@@std@@@std@@QAE@PAPAVCMail@@@Z
_TEXT	SEGMENT
__Ptr$ = 8						; size = 4
??0iterator@?$vector@PAVCMail@@V?$allocator@PAVCMail@@@std@@@std@@QAE@PAPAVCMail@@@Z PROC NEAR ; std::vector<CMail *,std::allocator<CMail *> >::iterator::iterator, COMDAT
; _this$ = ecx

; 215  : 			{	// construct with pointer _Ptr

  00000	8b c1		 mov	 eax, ecx
  00002	8b 4c 24 04	 mov	 ecx, DWORD PTR __Ptr$[esp-4]
  00006	89 08		 mov	 DWORD PTR [eax], ecx

; 216  : 			}

  00008	c2 04 00	 ret	 4
??0iterator@?$vector@PAVCMail@@V?$allocator@PAVCMail@@@std@@@std@@QAE@PAPAVCMail@@@Z ENDP ; std::vector<CMail *,std::allocator<CMail *> >::iterator::iterator
_TEXT	ENDS
PUBLIC	??0iterator@?$_Tree@V?$_Tmap_traits@KPAVCMail@@U?$less@K@std@@V?$allocator@U?$pair@$$CBKPAVCMail@@@std@@@3@$0A@@std@@@std@@QAE@PAU_Node@?$_Tree_nod@V?$_Tmap_traits@KPAVCMail@@U?$less@K@std@@V?$allocator@U?$pair@$$CBKPAVCMail@@@std@@@3@$0A@@std@@@2@@Z ; std::_Tree<std::_Tmap_traits<unsigned long,CMail *,std::less<unsigned long>,std::allocator<std::pair<unsigned long const ,CMail *> >,0> >::iterator::iterator
; Function compile flags: /Ogty
; File c:\program files\microsoft visual studio .net 2003\vc7\include\xtree
;	COMDAT ??0iterator@?$_Tree@V?$_Tmap_traits@KPAVCMail@@U?$less@K@std@@V?$allocator@U?$pair@$$CBKPAVCMail@@@std@@@3@$0A@@std@@@std@@QAE@PAU_Node@?$_Tree_nod@V?$_Tmap_traits@KPAVCMail@@U?$less@K@std@@V?$allocator@U?$pair@$$CBKPAVCMail@@@std@@@3@$0A@@std@@@2@@Z
_TEXT	SEGMENT
__Pnode$ = 8						; size = 4
??0iterator@?$_Tree@V?$_Tmap_traits@KPAVCMail@@U?$less@K@std@@V?$allocator@U?$pair@$$CBKPAVCMail@@@std@@@3@$0A@@std@@@std@@QAE@PAU_Node@?$_Tree_nod@V?$_Tmap_traits@KPAVCMail@@U?$less@K@std@@V?$allocator@U?$pair@$$CBKPAVCMail@@@std@@@3@$0A@@std@@@2@@Z PROC NEAR ; std::_Tree<std::_Tmap_traits<unsigned long,CMail *,std::less<unsigned long>,std::allocator<std::pair<unsigned long const ,CMail *> >,0> >::iterator::iterator, COMDAT
; _this$ = ecx

; 312  : 			{	// construct with node pointer _Pnode

  00000	8b c1		 mov	 eax, ecx
  00002	8b 4c 24 04	 mov	 ecx, DWORD PTR __Pnode$[esp-4]
  00006	89 08		 mov	 DWORD PTR [eax], ecx

; 313  : 			}

  00008	c2 04 00	 ret	 4
??0iterator@?$_Tree@V?$_Tmap_traits@KPAVCMail@@U?$less@K@std@@V?$allocator@U?$pair@$$CBKPAVCMail@@@std@@@3@$0A@@std@@@std@@QAE@PAU_Node@?$_Tree_nod@V?$_Tmap_traits@KPAVCMail@@U?$less@K@std@@V?$allocator@U?$pair@$$CBKPAVCMail@@@std@@@3@$0A@@std@@@2@@Z ENDP ; std::_Tree<std::_Tmap_traits<unsigned long,CMail *,std::less<unsigned long>,std::allocator<std::pair<unsigned long const ,CMail *> >,0> >::iterator::iterator
_TEXT	ENDS
PUBLIC	??Diterator@?$_Tree@V?$_Tmap_traits@KPAVCMail@@U?$less@K@std@@V?$allocator@U?$pair@$$CBKPAVCMail@@@std@@@3@$0A@@std@@@std@@QBEAAU?$pair@$$CBKPAVCMail@@@2@XZ ; std::_Tree<std::_Tmap_traits<unsigned long,CMail *,std::less<unsigned long>,std::allocator<std::pair<unsigned long const ,CMail *> >,0> >::iterator::operator*
; Function compile flags: /Ogty
;	COMDAT ??Diterator@?$_Tree@V?$_Tmap_traits@KPAVCMail@@U?$less@K@std@@V?$allocator@U?$pair@$$CBKPAVCMail@@@std@@@3@$0A@@std@@@std@@QBEAAU?$pair@$$CBKPAVCMail@@@2@XZ
_TEXT	SEGMENT
??Diterator@?$_Tree@V?$_Tmap_traits@KPAVCMail@@U?$less@K@std@@V?$allocator@U?$pair@$$CBKPAVCMail@@@std@@@3@$0A@@std@@@std@@QBEAAU?$pair@$$CBKPAVCMail@@@2@XZ PROC NEAR ; std::_Tree<std::_Tmap_traits<unsigned long,CMail *,std::less<unsigned long>,std::allocator<std::pair<unsigned long const ,CMail *> >,0> >::iterator::operator*, COMDAT
; _this$ = ecx

; 317  : 			return ((reference)**(const_iterator *)this);

  00000	8b 01		 mov	 eax, DWORD PTR [ecx]
  00002	83 c0 0c	 add	 eax, 12			; 0000000cH

; 318  : 			}

  00005	c3		 ret	 0
??Diterator@?$_Tree@V?$_Tmap_traits@KPAVCMail@@U?$less@K@std@@V?$allocator@U?$pair@$$CBKPAVCMail@@@std@@@3@$0A@@std@@@std@@QBEAAU?$pair@$$CBKPAVCMail@@@2@XZ ENDP ; std::_Tree<std::_Tmap_traits<unsigned long,CMail *,std::less<unsigned long>,std::allocator<std::pair<unsigned long const ,CMail *> >,0> >::iterator::operator*
_TEXT	ENDS
PUBLIC	??0iterator@?$_Tree@V?$_Tmap_traits@KPAVCMailBox@@U?$less@K@std@@V?$allocator@U?$pair@$$CBKPAVCMailBox@@@std@@@3@$0A@@std@@@std@@QAE@PAU_Node@?$_Tree_nod@V?$_Tmap_traits@KPAVCMailBox@@U?$less@K@std@@V?$allocator@U?$pair@$$CBKPAVCMailBox@@@std@@@3@$0A@@std@@@2@@Z ; std::_Tree<std::_Tmap_traits<unsigned long,CMailBox *,std::less<unsigned long>,std::allocator<std::pair<unsigned long const ,CMailBox *> >,0> >::iterator::iterator
; Function compile flags: /Ogty
;	COMDAT ??0iterator@?$_Tree@V?$_Tmap_traits@KPAVCMailBox@@U?$less@K@std@@V?$allocator@U?$pair@$$CBKPAVCMailBox@@@std@@@3@$0A@@std@@@std@@QAE@PAU_Node@?$_Tree_nod@V?$_Tmap_traits@KPAVCMailBox@@U?$less@K@std@@V?$allocator@U?$pair@$$CBKPAVCMailBox@@@std@@@3@$0A@@std@@@2@@Z
_TEXT	SEGMENT
__Pnode$ = 8						; size = 4
??0iterator@?$_Tree@V?$_Tmap_traits@KPAVCMailBox@@U?$less@K@std@@V?$allocator@U?$pair@$$CBKPAVCMailBox@@@std@@@3@$0A@@std@@@std@@QAE@PAU_Node@?$_Tree_nod@V?$_Tmap_traits@KPAVCMailBox@@U?$less@K@std@@V?$allocator@U?$pair@$$CBKPAVCMailBox@@@std@@@3@$0A@@std@@@2@@Z PROC NEAR ; std::_Tree<std::_Tmap_traits<unsigned long,CMailBox *,std::less<unsigned long>,std::allocator<std::pair<unsigned long const ,CMailBox *> >,0> >::iterator::iterator, COMDAT
; _this$ = ecx

; 312  : 			{	// construct with node pointer _Pnode

  00000	8b c1		 mov	 eax, ecx
  00002	8b 4c 24 04	 mov	 ecx, DWORD PTR __Pnode$[esp-4]
  00006	89 08		 mov	 DWORD PTR [eax], ecx

; 313  : 			}

  00008	c2 04 00	 ret	 4
??0iterator@?$_Tree@V?$_Tmap_traits@KPAVCMailBox@@U?$less@K@std@@V?$allocator@U?$pair@$$CBKPAVCMailBox@@@std@@@3@$0A@@std@@@std@@QAE@PAU_Node@?$_Tree_nod@V?$_Tmap_traits@KPAVCMailBox@@U?$less@K@std@@V?$allocator@U?$pair@$$CBKPAVCMailBox@@@std@@@3@$0A@@std@@@2@@Z ENDP ; std::_Tree<std::_Tmap_traits<unsigned long,CMailBox *,std::less<unsigned long>,std::allocator<std::pair<unsigned long const ,CMailBox *> >,0> >::iterator::iterator
_TEXT	ENDS
PUBLIC	??Diterator@?$_Tree@V?$_Tmap_traits@KPAVCMailBox@@U?$less@K@std@@V?$allocator@U?$pair@$$CBKPAVCMailBox@@@std@@@3@$0A@@std@@@std@@QBEAAU?$pair@$$CBKPAVCMailBox@@@2@XZ ; std::_Tree<std::_Tmap_traits<unsigned long,CMailBox *,std::less<unsigned long>,std::allocator<std::pair<unsigned long const ,CMailBox *> >,0> >::iterator::operator*
; Function compile flags: /Ogty
;	COMDAT ??Diterator@?$_Tree@V?$_Tmap_traits@KPAVCMailBox@@U?$less@K@std@@V?$allocator@U?$pair@$$CBKPAVCMailBox@@@std@@@3@$0A@@std@@@std@@QBEAAU?$pair@$$CBKPAVCMailBox@@@2@XZ
_TEXT	SEGMENT
??Diterator@?$_Tree@V?$_Tmap_traits@KPAVCMailBox@@U?$less@K@std@@V?$allocator@U?$pair@$$CBKPAVCMailBox@@@std@@@3@$0A@@std@@@std@@QBEAAU?$pair@$$CBKPAVCMailBox@@@2@XZ PROC NEAR ; std::_Tree<std::_Tmap_traits<unsigned long,CMailBox *,std::less<unsigned long>,std::allocator<std::pair<unsigned long const ,CMailBox *> >,0> >::iterator::operator*, COMDAT
; _this$ = ecx

; 317  : 			return ((reference)**(const_iterator *)this);

  00000	8b 01		 mov	 eax, DWORD PTR [ecx]
  00002	83 c0 0c	 add	 eax, 12			; 0000000cH

; 318  : 			}

  00005	c3		 ret	 0
??Diterator@?$_Tree@V?$_Tmap_traits@KPAVCMailBox@@U?$less@K@std@@V?$allocator@U?$pair@$$CBKPAVCMailBox@@@std@@@3@$0A@@std@@@std@@QBEAAU?$pair@$$CBKPAVCMailBox@@@2@XZ ENDP ; std::_Tree<std::_Tmap_traits<unsigned long,CMailBox *,std::less<unsigned long>,std::allocator<std::pair<unsigned long const ,CMailBox *> >,0> >::iterator::operator*
_TEXT	ENDS
PUBLIC	?destroy@?$allocator@U_Node@?$_List_nod@PAVCMail@@V?$allocator@PAVCMail@@@std@@@std@@@std@@QAEXPAU_Node@?$_List_nod@PAVCMail@@V?$allocator@PAVCMail@@@std@@@2@@Z ; std::allocator<std::_List_nod<CMail *,std::allocator<CMail *> >::_Node>::destroy
; Function compile flags: /Ogty
; File c:\program files\microsoft visual studio .net 2003\vc7\include\xmemory
;	COMDAT ?destroy@?$allocator@U_Node@?$_List_nod@PAVCMail@@V?$allocator@PAVCMail@@@std@@@std@@@std@@QAEXPAU_Node@?$_List_nod@PAVCMail@@V?$allocator@PAVCMail@@@std@@@2@@Z
_TEXT	SEGMENT
__Ptr$ = 8						; size = 4
?destroy@?$allocator@U_Node@?$_List_nod@PAVCMail@@V?$allocator@PAVCMail@@@std@@@std@@@std@@QAEXPAU_Node@?$_List_nod@PAVCMail@@V?$allocator@PAVCMail@@@std@@@2@@Z PROC NEAR ; std::allocator<std::_List_nod<CMail *,std::allocator<CMail *> >::_Node>::destroy, COMDAT
; _this$ = ecx

; 152  : 		_Destroy(_Ptr);
; 153  : 		}

  00000	c2 04 00	 ret	 4
?destroy@?$allocator@U_Node@?$_List_nod@PAVCMail@@V?$allocator@PAVCMail@@@std@@@std@@@std@@QAEXPAU_Node@?$_List_nod@PAVCMail@@V?$allocator@PAVCMail@@@std@@@2@@Z ENDP ; std::allocator<std::_List_nod<CMail *,std::allocator<CMail *> >::_Node>::destroy
_TEXT	ENDS
PUBLIC	?max_size@?$vector@PAVCMail@@V?$allocator@PAVCMail@@@std@@@std@@QBEIXZ ; std::vector<CMail *,std::allocator<CMail *> >::max_size
; Function compile flags: /Ogty
; File c:\program files\microsoft visual studio .net 2003\vc7\include\vector
;	COMDAT ?max_size@?$vector@PAVCMail@@V?$allocator@PAVCMail@@@std@@@std@@QBEIXZ
_TEXT	SEGMENT
?max_size@?$vector@PAVCMail@@V?$allocator@PAVCMail@@@std@@@std@@QBEIXZ PROC NEAR ; std::vector<CMail *,std::allocator<CMail *> >::max_size, COMDAT
; _this$ = ecx

; 521  : 		return (this->_Alval.max_size());

  00000	b8 ff ff ff 3f	 mov	 eax, 1073741823		; 3fffffffH

; 522  : 		}

  00005	c3		 ret	 0
?max_size@?$vector@PAVCMail@@V?$allocator@PAVCMail@@@std@@@std@@QBEIXZ ENDP ; std::vector<CMail *,std::allocator<CMail *> >::max_size
_TEXT	ENDS
PUBLIC	?allocate@?$allocator@PAVCMail@@@std@@QAEPAPAVCMail@@I@Z ; std::allocator<CMail *>::allocate
; Function compile flags: /Ogty
; File c:\program files\microsoft visual studio .net 2003\vc7\include\xmemory
;	COMDAT ?allocate@?$allocator@PAVCMail@@@std@@QAEPAPAVCMail@@I@Z
_TEXT	SEGMENT
__Count$ = 8						; size = 4
?allocate@?$allocator@PAVCMail@@@std@@QAEPAPAVCMail@@I@Z PROC NEAR ; std::allocator<CMail *>::allocate, COMDAT
; _this$ = ecx

; 137  : 		return (_Allocate(_Count, (pointer)0));

  00000	8b 44 24 04	 mov	 eax, DWORD PTR __Count$[esp-4]
  00004	8d 0c 85 00 00
	00 00		 lea	 ecx, DWORD PTR [eax*4]
  0000b	51		 push	 ecx
  0000c	e8 00 00 00 00	 call	 ??2@YAPAXI@Z		; operator new
  00011	83 c4 04	 add	 esp, 4

; 138  : 		}

  00014	c2 04 00	 ret	 4
?allocate@?$allocator@PAVCMail@@@std@@QAEPAPAVCMail@@I@Z ENDP ; std::allocator<CMail *>::allocate
_TEXT	ENDS
PUBLIC	?max_size@?$_Tree@V?$_Tmap_traits@KPAVCMail@@U?$less@K@std@@V?$allocator@U?$pair@$$CBKPAVCMail@@@std@@@3@$0A@@std@@@std@@QBEIXZ ; std::_Tree<std::_Tmap_traits<unsigned long,CMail *,std::less<unsigned long>,std::allocator<std::pair<unsigned long const ,CMail *> >,0> >::max_size
; Function compile flags: /Ogty
; File c:\program files\microsoft visual studio .net 2003\vc7\include\xtree
;	COMDAT ?max_size@?$_Tree@V?$_Tmap_traits@KPAVCMail@@U?$less@K@std@@V?$allocator@U?$pair@$$CBKPAVCMail@@@std@@@3@$0A@@std@@@std@@QBEIXZ
_TEXT	SEGMENT
?max_size@?$_Tree@V?$_Tmap_traits@KPAVCMail@@U?$less@K@std@@V?$allocator@U?$pair@$$CBKPAVCMail@@@std@@@3@$0A@@std@@@std@@QBEIXZ PROC NEAR ; std::_Tree<std::_Tmap_traits<unsigned long,CMail *,std::less<unsigned long>,std::allocator<std::pair<unsigned long const ,CMail *> >,0> >::max_size, COMDAT
; _this$ = ecx

; 453  : 		return (this->_Alval.max_size());

  00000	b8 ff ff ff 1f	 mov	 eax, 536870911		; 1fffffffH

; 454  : 		}

  00005	c3		 ret	 0
?max_size@?$_Tree@V?$_Tmap_traits@KPAVCMail@@U?$less@K@std@@V?$allocator@U?$pair@$$CBKPAVCMail@@@std@@@3@$0A@@std@@@std@@QBEIXZ ENDP ; std::_Tree<std::_Tmap_traits<unsigned long,CMail *,std::less<unsigned long>,std::allocator<std::pair<unsigned long const ,CMail *> >,0> >::max_size
_TEXT	ENDS
PUBLIC	?_Lrotate@?$_Tree@V?$_Tmap_traits@KPAVCMail@@U?$less@K@std@@V?$allocator@U?$pair@$$CBKPAVCMail@@@std@@@3@$0A@@std@@@std@@IAEXPAU_Node@?$_Tree_nod@V?$_Tmap_traits@KPAVCMail@@U?$less@K@std@@V?$allocator@U?$pair@$$CBKPAVCMail@@@std@@@3@$0A@@std@@@2@@Z ; std::_Tree<std::_Tmap_traits<unsigned long,CMail *,std::less<unsigned long>,std::allocator<std::pair<unsigned long const ,CMail *> >,0> >::_Lrotate
; Function compile flags: /Ogty
;	COMDAT ?_Lrotate@?$_Tree@V?$_Tmap_traits@KPAVCMail@@U?$less@K@std@@V?$allocator@U?$pair@$$CBKPAVCMail@@@std@@@3@$0A@@std@@@std@@IAEXPAU_Node@?$_Tree_nod@V?$_Tmap_traits@KPAVCMail@@U?$less@K@std@@V?$allocator@U?$pair@$$CBKPAVCMail@@@std@@@3@$0A@@std@@@2@@Z
_TEXT	SEGMENT
__Wherenode$ = 8					; size = 4
?_Lrotate@?$_Tree@V?$_Tmap_traits@KPAVCMail@@U?$less@K@std@@V?$allocator@U?$pair@$$CBKPAVCMail@@@std@@@3@$0A@@std@@@std@@IAEXPAU_Node@?$_Tree_nod@V?$_Tmap_traits@KPAVCMail@@U?$less@K@std@@V?$allocator@U?$pair@$$CBKPAVCMail@@@std@@@3@$0A@@std@@@2@@Z PROC NEAR ; std::_Tree<std::_Tmap_traits<unsigned long,CMail *,std::less<unsigned long>,std::allocator<std::pair<unsigned long const ,CMail *> >,0> >::_Lrotate, COMDAT
; _this$ = ecx

; 1015 : 		_Nodeptr _Pnode = _Right(_Wherenode);

  00000	8b 54 24 04	 mov	 edx, DWORD PTR __Wherenode$[esp-4]
  00004	8b 42 08	 mov	 eax, DWORD PTR [edx+8]
  00007	53		 push	 ebx
  00008	56		 push	 esi

; 1016 : 		_Right(_Wherenode) = _Left(_Pnode);

  00009	8b 30		 mov	 esi, DWORD PTR [eax]
  0000b	89 72 08	 mov	 DWORD PTR [edx+8], esi

; 1017 : 
; 1018 : 		if (!_Isnil(_Left(_Pnode)))

  0000e	8b 30		 mov	 esi, DWORD PTR [eax]
  00010	8a 5e 15	 mov	 bl, BYTE PTR [esi+21]
  00013	84 db		 test	 bl, bl
  00015	75 03		 jne	 SHORT $L200856

; 1019 : 			_Parent(_Left(_Pnode)) = _Wherenode;

  00017	89 56 04	 mov	 DWORD PTR [esi+4], edx
$L200856:

; 1020 : 		_Parent(_Pnode) = _Parent(_Wherenode);

  0001a	8b 72 04	 mov	 esi, DWORD PTR [edx+4]
  0001d	89 70 04	 mov	 DWORD PTR [eax+4], esi

; 1021 : 
; 1022 : 		if (_Wherenode == _Root())

  00020	8b 49 04	 mov	 ecx, DWORD PTR [ecx+4]
  00023	3b 51 04	 cmp	 edx, DWORD PTR [ecx+4]
  00026	75 0d		 jne	 SHORT $L200857

; 1023 : 			_Root() = _Pnode;

  00028	89 41 04	 mov	 DWORD PTR [ecx+4], eax
  0002b	5e		 pop	 esi

; 1028 : 
; 1029 : 		_Left(_Pnode) = _Wherenode;

  0002c	89 10		 mov	 DWORD PTR [eax], edx

; 1030 : 		_Parent(_Wherenode) = _Pnode;

  0002e	89 42 04	 mov	 DWORD PTR [edx+4], eax
  00031	5b		 pop	 ebx

; 1031 : 		}

  00032	c2 04 00	 ret	 4
$L200857:

; 1024 : 		else if (_Wherenode == _Left(_Parent(_Wherenode)))

  00035	8b 4a 04	 mov	 ecx, DWORD PTR [edx+4]
  00038	3b 11		 cmp	 edx, DWORD PTR [ecx]
  0003a	75 0c		 jne	 SHORT $L200859

; 1025 : 			_Left(_Parent(_Wherenode)) = _Pnode;

  0003c	89 01		 mov	 DWORD PTR [ecx], eax
  0003e	5e		 pop	 esi

; 1028 : 
; 1029 : 		_Left(_Pnode) = _Wherenode;

  0003f	89 10		 mov	 DWORD PTR [eax], edx

; 1030 : 		_Parent(_Wherenode) = _Pnode;

  00041	89 42 04	 mov	 DWORD PTR [edx+4], eax
  00044	5b		 pop	 ebx

; 1031 : 		}

  00045	c2 04 00	 ret	 4
$L200859:

; 1026 : 		else
; 1027 : 			_Right(_Parent(_Wherenode)) = _Pnode;

  00048	89 41 08	 mov	 DWORD PTR [ecx+8], eax
  0004b	5e		 pop	 esi

; 1028 : 
; 1029 : 		_Left(_Pnode) = _Wherenode;

  0004c	89 10		 mov	 DWORD PTR [eax], edx

; 1030 : 		_Parent(_Wherenode) = _Pnode;

  0004e	89 42 04	 mov	 DWORD PTR [edx+4], eax
  00051	5b		 pop	 ebx

; 1031 : 		}

  00052	c2 04 00	 ret	 4
?_Lrotate@?$_Tree@V?$_Tmap_traits@KPAVCMail@@U?$less@K@std@@V?$allocator@U?$pair@$$CBKPAVCMail@@@std@@@3@$0A@@std@@@std@@IAEXPAU_Node@?$_Tree_nod@V?$_Tmap_traits@KPAVCMail@@U?$less@K@std@@V?$allocator@U?$pair@$$CBKPAVCMail@@@std@@@3@$0A@@std@@@2@@Z ENDP ; std::_Tree<std::_Tmap_traits<unsigned long,CMail *,std::less<unsigned long>,std::allocator<std::pair<unsigned long const ,CMail *> >,0> >::_Lrotate
_TEXT	ENDS
PUBLIC	?_Rrotate@?$_Tree@V?$_Tmap_traits@KPAVCMail@@U?$less@K@std@@V?$allocator@U?$pair@$$CBKPAVCMail@@@std@@@3@$0A@@std@@@std@@IAEXPAU_Node@?$_Tree_nod@V?$_Tmap_traits@KPAVCMail@@U?$less@K@std@@V?$allocator@U?$pair@$$CBKPAVCMail@@@std@@@3@$0A@@std@@@2@@Z ; std::_Tree<std::_Tmap_traits<unsigned long,CMail *,std::less<unsigned long>,std::allocator<std::pair<unsigned long const ,CMail *> >,0> >::_Rrotate
; Function compile flags: /Ogty
;	COMDAT ?_Rrotate@?$_Tree@V?$_Tmap_traits@KPAVCMail@@U?$less@K@std@@V?$allocator@U?$pair@$$CBKPAVCMail@@@std@@@3@$0A@@std@@@std@@IAEXPAU_Node@?$_Tree_nod@V?$_Tmap_traits@KPAVCMail@@U?$less@K@std@@V?$allocator@U?$pair@$$CBKPAVCMail@@@std@@@3@$0A@@std@@@2@@Z
_TEXT	SEGMENT
__Wherenode$ = 8					; size = 4
?_Rrotate@?$_Tree@V?$_Tmap_traits@KPAVCMail@@U?$less@K@std@@V?$allocator@U?$pair@$$CBKPAVCMail@@@std@@@3@$0A@@std@@@std@@IAEXPAU_Node@?$_Tree_nod@V?$_Tmap_traits@KPAVCMail@@U?$less@K@std@@V?$allocator@U?$pair@$$CBKPAVCMail@@@std@@@3@$0A@@std@@@2@@Z PROC NEAR ; std::_Tree<std::_Tmap_traits<unsigned long,CMail *,std::less<unsigned long>,std::allocator<std::pair<unsigned long const ,CMail *> >,0> >::_Rrotate, COMDAT
; _this$ = ecx

; 1069 : 		_Nodeptr _Pnode = _Left(_Wherenode);

  00000	8b 54 24 04	 mov	 edx, DWORD PTR __Wherenode$[esp-4]
  00004	8b 02		 mov	 eax, DWORD PTR [edx]
  00006	53		 push	 ebx
  00007	56		 push	 esi

; 1070 : 		_Left(_Wherenode) = _Right(_Pnode);

  00008	8b 70 08	 mov	 esi, DWORD PTR [eax+8]
  0000b	89 32		 mov	 DWORD PTR [edx], esi

; 1071 : 
; 1072 : 		if (!_Isnil(_Right(_Pnode)))

  0000d	8b 70 08	 mov	 esi, DWORD PTR [eax+8]
  00010	8a 5e 15	 mov	 bl, BYTE PTR [esi+21]
  00013	84 db		 test	 bl, bl
  00015	75 03		 jne	 SHORT $L200864

; 1073 : 			_Parent(_Right(_Pnode)) = _Wherenode;

  00017	89 56 04	 mov	 DWORD PTR [esi+4], edx
$L200864:

; 1074 : 		_Parent(_Pnode) = _Parent(_Wherenode);

  0001a	8b 72 04	 mov	 esi, DWORD PTR [edx+4]
  0001d	89 70 04	 mov	 DWORD PTR [eax+4], esi

; 1075 : 
; 1076 : 		if (_Wherenode == _Root())

  00020	8b 49 04	 mov	 ecx, DWORD PTR [ecx+4]
  00023	3b 51 04	 cmp	 edx, DWORD PTR [ecx+4]
  00026	75 0e		 jne	 SHORT $L200865

; 1077 : 			_Root() = _Pnode;

  00028	89 41 04	 mov	 DWORD PTR [ecx+4], eax
  0002b	5e		 pop	 esi

; 1082 : 
; 1083 : 		_Right(_Pnode) = _Wherenode;

  0002c	89 50 08	 mov	 DWORD PTR [eax+8], edx

; 1084 : 		_Parent(_Wherenode) = _Pnode;

  0002f	89 42 04	 mov	 DWORD PTR [edx+4], eax
  00032	5b		 pop	 ebx

; 1085 : 		}

  00033	c2 04 00	 ret	 4
$L200865:

; 1078 : 		else if (_Wherenode == _Right(_Parent(_Wherenode)))

  00036	8b 4a 04	 mov	 ecx, DWORD PTR [edx+4]
  00039	3b 51 08	 cmp	 edx, DWORD PTR [ecx+8]
  0003c	75 0e		 jne	 SHORT $L200867

; 1079 : 			_Right(_Parent(_Wherenode)) = _Pnode;

  0003e	89 41 08	 mov	 DWORD PTR [ecx+8], eax
  00041	5e		 pop	 esi

; 1082 : 
; 1083 : 		_Right(_Pnode) = _Wherenode;

  00042	89 50 08	 mov	 DWORD PTR [eax+8], edx

; 1084 : 		_Parent(_Wherenode) = _Pnode;

  00045	89 42 04	 mov	 DWORD PTR [edx+4], eax
  00048	5b		 pop	 ebx

; 1085 : 		}

  00049	c2 04 00	 ret	 4
$L200867:

; 1080 : 		else
; 1081 : 			_Left(_Parent(_Wherenode)) = _Pnode;

  0004c	89 01		 mov	 DWORD PTR [ecx], eax
  0004e	5e		 pop	 esi

; 1082 : 
; 1083 : 		_Right(_Pnode) = _Wherenode;

  0004f	89 50 08	 mov	 DWORD PTR [eax+8], edx

; 1084 : 		_Parent(_Wherenode) = _Pnode;

  00052	89 42 04	 mov	 DWORD PTR [edx+4], eax
  00055	5b		 pop	 ebx

; 1085 : 		}

  00056	c2 04 00	 ret	 4
?_Rrotate@?$_Tree@V?$_Tmap_traits@KPAVCMail@@U?$less@K@std@@V?$allocator@U?$pair@$$CBKPAVCMail@@@std@@@3@$0A@@std@@@std@@IAEXPAU_Node@?$_Tree_nod@V?$_Tmap_traits@KPAVCMail@@U?$less@K@std@@V?$allocator@U?$pair@$$CBKPAVCMail@@@std@@@3@$0A@@std@@@2@@Z ENDP ; std::_Tree<std::_Tmap_traits<unsigned long,CMail *,std::less<unsigned long>,std::allocator<std::pair<unsigned long const ,CMail *> >,0> >::_Rrotate
_TEXT	ENDS
PUBLIC	?destroy@?$allocator@U_Node@?$_Tree_nod@V?$_Tmap_traits@KPAVCMail@@U?$less@K@std@@V?$allocator@U?$pair@$$CBKPAVCMail@@@std@@@3@$0A@@std@@@std@@@std@@QAEXPAU_Node@?$_Tree_nod@V?$_Tmap_traits@KPAVCMail@@U?$less@K@std@@V?$allocator@U?$pair@$$CBKPAVCMail@@@std@@@3@$0A@@std@@@2@@Z ; std::allocator<std::_Tree_nod<std::_Tmap_traits<unsigned long,CMail *,std::less<unsigned long>,std::allocator<std::pair<unsigned long const ,CMail *> >,0> >::_Node>::destroy
; Function compile flags: /Ogty
; File c:\program files\microsoft visual studio .net 2003\vc7\include\xmemory
;	COMDAT ?destroy@?$allocator@U_Node@?$_Tree_nod@V?$_Tmap_traits@KPAVCMail@@U?$less@K@std@@V?$allocator@U?$pair@$$CBKPAVCMail@@@std@@@3@$0A@@std@@@std@@@std@@QAEXPAU_Node@?$_Tree_nod@V?$_Tmap_traits@KPAVCMail@@U?$less@K@std@@V?$allocator@U?$pair@$$CBKPAVCMail@@@std@@@3@$0A@@std@@@2@@Z
_TEXT	SEGMENT
__Ptr$ = 8						; size = 4
?destroy@?$allocator@U_Node@?$_Tree_nod@V?$_Tmap_traits@KPAVCMail@@U?$less@K@std@@V?$allocator@U?$pair@$$CBKPAVCMail@@@std@@@3@$0A@@std@@@std@@@std@@QAEXPAU_Node@?$_Tree_nod@V?$_Tmap_traits@KPAVCMail@@U?$less@K@std@@V?$allocator@U?$pair@$$CBKPAVCMail@@@std@@@3@$0A@@std@@@2@@Z PROC NEAR ; std::allocator<std::_Tree_nod<std::_Tmap_traits<unsigned long,CMail *,std::less<unsigned long>,std::allocator<std::pair<unsigned long const ,CMail *> >,0> >::_Node>::destroy, COMDAT
; _this$ = ecx

; 152  : 		_Destroy(_Ptr);
; 153  : 		}

  00000	c2 04 00	 ret	 4
?destroy@?$allocator@U_Node@?$_Tree_nod@V?$_Tmap_traits@KPAVCMail@@U?$less@K@std@@V?$allocator@U?$pair@$$CBKPAVCMail@@@std@@@3@$0A@@std@@@std@@@std@@QAEXPAU_Node@?$_Tree_nod@V?$_Tmap_traits@KPAVCMail@@U?$less@K@std@@V?$allocator@U?$pair@$$CBKPAVCMail@@@std@@@3@$0A@@std@@@2@@Z ENDP ; std::allocator<std::_Tree_nod<std::_Tmap_traits<unsigned long,CMail *,std::less<unsigned long>,std::allocator<std::pair<unsigned long const ,CMail *> >,0> >::_Node>::destroy
_TEXT	ENDS
PUBLIC	?destroy@?$allocator@PAU_Node@?$_Tree_nod@V?$_Tmap_traits@KPAVCMail@@U?$less@K@std@@V?$allocator@U?$pair@$$CBKPAVCMail@@@std@@@3@$0A@@std@@@std@@@std@@QAEXPAPAU_Node@?$_Tree_nod@V?$_Tmap_traits@KPAVCMail@@U?$less@K@std@@V?$allocator@U?$pair@$$CBKPAVCMail@@@std@@@3@$0A@@std@@@2@@Z ; std::allocator<std::_Tree_nod<std::_Tmap_traits<unsigned long,CMail *,std::less<unsigned long>,std::allocator<std::pair<unsigned long const ,CMail *> >,0> >::_Node *>::destroy
; Function compile flags: /Ogty
;	COMDAT ?destroy@?$allocator@PAU_Node@?$_Tree_nod@V?$_Tmap_traits@KPAVCMail@@U?$less@K@std@@V?$allocator@U?$pair@$$CBKPAVCMail@@@std@@@3@$0A@@std@@@std@@@std@@QAEXPAPAU_Node@?$_Tree_nod@V?$_Tmap_traits@KPAVCMail@@U?$less@K@std@@V?$allocator@U?$pair@$$CBKPAVCMail@@@std@@@3@$0A@@std@@@2@@Z
_TEXT	SEGMENT
__Ptr$ = 8						; size = 4
?destroy@?$allocator@PAU_Node@?$_Tree_nod@V?$_Tmap_traits@KPAVCMail@@U?$less@K@std@@V?$allocator@U?$pair@$$CBKPAVCMail@@@std@@@3@$0A@@std@@@std@@@std@@QAEXPAPAU_Node@?$_Tree_nod@V?$_Tmap_traits@KPAVCMail@@U?$less@K@std@@V?$allocator@U?$pair@$$CBKPAVCMail@@@std@@@3@$0A@@std@@@2@@Z PROC NEAR ; std::allocator<std::_Tree_nod<std::_Tmap_traits<unsigned long,CMail *,std::less<unsigned long>,std::allocator<std::pair<unsigned long const ,CMail *> >,0> >::_Node *>::destroy, COMDAT
; _this$ = ecx

; 152  : 		_Destroy(_Ptr);
; 153  : 		}

  00000	c2 04 00	 ret	 4
?destroy@?$allocator@PAU_Node@?$_Tree_nod@V?$_Tmap_traits@KPAVCMail@@U?$less@K@std@@V?$allocator@U?$pair@$$CBKPAVCMail@@@std@@@3@$0A@@std@@@std@@@std@@QAEXPAPAU_Node@?$_Tree_nod@V?$_Tmap_traits@KPAVCMail@@U?$less@K@std@@V?$allocator@U?$pair@$$CBKPAVCMail@@@std@@@3@$0A@@std@@@2@@Z ENDP ; std::allocator<std::_Tree_nod<std::_Tmap_traits<unsigned long,CMail *,std::less<unsigned long>,std::allocator<std::pair<unsigned long const ,CMail *> >,0> >::_Node *>::destroy
_TEXT	ENDS
PUBLIC	?max_size@?$_Tree@V?$_Tmap_traits@KPAVCMailBox@@U?$less@K@std@@V?$allocator@U?$pair@$$CBKPAVCMailBox@@@std@@@3@$0A@@std@@@std@@QBEIXZ ; std::_Tree<std::_Tmap_traits<unsigned long,CMailBox *,std::less<unsigned long>,std::allocator<std::pair<unsigned long const ,CMailBox *> >,0> >::max_size
; Function compile flags: /Ogty
; File c:\program files\microsoft visual studio .net 2003\vc7\include\xtree
;	COMDAT ?max_size@?$_Tree@V?$_Tmap_traits@KPAVCMailBox@@U?$less@K@std@@V?$allocator@U?$pair@$$CBKPAVCMailBox@@@std@@@3@$0A@@std@@@std@@QBEIXZ
_TEXT	SEGMENT
?max_size@?$_Tree@V?$_Tmap_traits@KPAVCMailBox@@U?$less@K@std@@V?$allocator@U?$pair@$$CBKPAVCMailBox@@@std@@@3@$0A@@std@@@std@@QBEIXZ PROC NEAR ; std::_Tree<std::_Tmap_traits<unsigned long,CMailBox *,std::less<unsigned long>,std::allocator<std::pair<unsigned long const ,CMailBox *> >,0> >::max_size, COMDAT
; _this$ = ecx

; 453  : 		return (this->_Alval.max_size());

  00000	b8 ff ff ff 1f	 mov	 eax, 536870911		; 1fffffffH

; 454  : 		}

  00005	c3		 ret	 0
?max_size@?$_Tree@V?$_Tmap_traits@KPAVCMailBox@@U?$less@K@std@@V?$allocator@U?$pair@$$CBKPAVCMailBox@@@std@@@3@$0A@@std@@@std@@QBEIXZ ENDP ; std::_Tree<std::_Tmap_traits<unsigned long,CMailBox *,std::less<unsigned long>,std::allocator<std::pair<unsigned long const ,CMailBox *> >,0> >::max_size
_TEXT	ENDS
PUBLIC	?_Lbound@?$_Tree@V?$_Tmap_traits@KPAVCMailBox@@U?$less@K@std@@V?$allocator@U?$pair@$$CBKPAVCMailBox@@@std@@@3@$0A@@std@@@std@@IBEPAU_Node@?$_Tree_nod@V?$_Tmap_traits@KPAVCMailBox@@U?$less@K@std@@V?$allocator@U?$pair@$$CBKPAVCMailBox@@@std@@@3@$0A@@std@@@2@ABK@Z ; std::_Tree<std::_Tmap_traits<unsigned long,CMailBox *,std::less<unsigned long>,std::allocator<std::pair<unsigned long const ,CMailBox *> >,0> >::_Lbound
; Function compile flags: /Ogty
;	COMDAT ?_Lbound@?$_Tree@V?$_Tmap_traits@KPAVCMailBox@@U?$less@K@std@@V?$allocator@U?$pair@$$CBKPAVCMailBox@@@std@@@3@$0A@@std@@@std@@IBEPAU_Node@?$_Tree_nod@V?$_Tmap_traits@KPAVCMailBox@@U?$less@K@std@@V?$allocator@U?$pair@$$CBKPAVCMailBox@@@std@@@3@$0A@@std@@@2@ABK@Z
_TEXT	SEGMENT
__Keyval$ = 8						; size = 4
?_Lbound@?$_Tree@V?$_Tmap_traits@KPAVCMailBox@@U?$less@K@std@@V?$allocator@U?$pair@$$CBKPAVCMailBox@@@std@@@3@$0A@@std@@@std@@IBEPAU_Node@?$_Tree_nod@V?$_Tmap_traits@KPAVCMailBox@@U?$less@K@std@@V?$allocator@U?$pair@$$CBKPAVCMailBox@@@std@@@3@$0A@@std@@@2@ABK@Z PROC NEAR ; std::_Tree<std::_Tmap_traits<unsigned long,CMailBox *,std::less<unsigned long>,std::allocator<std::pair<unsigned long const ,CMailBox *> >,0> >::_Lbound, COMDAT
; _this$ = ecx

; 988  : 		_Nodeptr _Pnode = _Root();

  00000	8b 41 04	 mov	 eax, DWORD PTR [ecx+4]
  00003	8b 48 04	 mov	 ecx, DWORD PTR [eax+4]

; 989  : 		_Nodeptr _Wherenode = _Myhead;	// end() if search fails
; 990  : 
; 991  : 		while (!_Isnil(_Pnode))

  00006	8a 51 15	 mov	 dl, BYTE PTR [ecx+21]
  00009	84 d2		 test	 dl, dl
  0000b	75 1d		 jne	 SHORT $L200926
  0000d	8b 54 24 04	 mov	 edx, DWORD PTR __Keyval$[esp-4]
  00011	8b 12		 mov	 edx, DWORD PTR [edx]
  00013	53		 push	 ebx
$L200925:

; 992  : 			if (this->comp(_Key(_Pnode), _Keyval))

  00014	39 51 0c	 cmp	 DWORD PTR [ecx+12], edx
  00017	73 05		 jae	 SHORT $L200927

; 993  : 				_Pnode = _Right(_Pnode);	// descend right subtree

  00019	8b 49 08	 mov	 ecx, DWORD PTR [ecx+8]

; 994  : 			else

  0001c	eb 04		 jmp	 SHORT $L200928
$L200927:

; 995  : 				{	// _Pnode not less than _Keyval, remember it
; 996  : 				_Wherenode = _Pnode;

  0001e	8b c1		 mov	 eax, ecx

; 997  : 				_Pnode = _Left(_Pnode);	// descend left subtree

  00020	8b 09		 mov	 ecx, DWORD PTR [ecx]
$L200928:
  00022	8a 59 15	 mov	 bl, BYTE PTR [ecx+21]
  00025	84 db		 test	 bl, bl
  00027	74 eb		 je	 SHORT $L200925
  00029	5b		 pop	 ebx
$L200926:

; 998  : 				}
; 999  : 
; 1000 : 		return (_Wherenode);	// return best remembered candidate
; 1001 : 		}

  0002a	c2 04 00	 ret	 4
?_Lbound@?$_Tree@V?$_Tmap_traits@KPAVCMailBox@@U?$less@K@std@@V?$allocator@U?$pair@$$CBKPAVCMailBox@@@std@@@3@$0A@@std@@@std@@IBEPAU_Node@?$_Tree_nod@V?$_Tmap_traits@KPAVCMailBox@@U?$less@K@std@@V?$allocator@U?$pair@$$CBKPAVCMailBox@@@std@@@3@$0A@@std@@@2@ABK@Z ENDP ; std::_Tree<std::_Tmap_traits<unsigned long,CMailBox *,std::less<unsigned long>,std::allocator<std::pair<unsigned long const ,CMailBox *> >,0> >::_Lbound
_TEXT	ENDS
PUBLIC	?_Lrotate@?$_Tree@V?$_Tmap_traits@KPAVCMailBox@@U?$less@K@std@@V?$allocator@U?$pair@$$CBKPAVCMailBox@@@std@@@3@$0A@@std@@@std@@IAEXPAU_Node@?$_Tree_nod@V?$_Tmap_traits@KPAVCMailBox@@U?$less@K@std@@V?$allocator@U?$pair@$$CBKPAVCMailBox@@@std@@@3@$0A@@std@@@2@@Z ; std::_Tree<std::_Tmap_traits<unsigned long,CMailBox *,std::less<unsigned long>,std::allocator<std::pair<unsigned long const ,CMailBox *> >,0> >::_Lrotate
; Function compile flags: /Ogty
;	COMDAT ?_Lrotate@?$_Tree@V?$_Tmap_traits@KPAVCMailBox@@U?$less@K@std@@V?$allocator@U?$pair@$$CBKPAVCMailBox@@@std@@@3@$0A@@std@@@std@@IAEXPAU_Node@?$_Tree_nod@V?$_Tmap_traits@KPAVCMailBox@@U?$less@K@std@@V?$allocator@U?$pair@$$CBKPAVCMailBox@@@std@@@3@$0A@@std@@@2@@Z
_TEXT	SEGMENT
__Wherenode$ = 8					; size = 4
?_Lrotate@?$_Tree@V?$_Tmap_traits@KPAVCMailBox@@U?$less@K@std@@V?$allocator@U?$pair@$$CBKPAVCMailBox@@@std@@@3@$0A@@std@@@std@@IAEXPAU_Node@?$_Tree_nod@V?$_Tmap_traits@KPAVCMailBox@@U?$less@K@std@@V?$allocator@U?$pair@$$CBKPAVCMailBox@@@std@@@3@$0A@@std@@@2@@Z PROC NEAR ; std::_Tree<std::_Tmap_traits<unsigned long,CMailBox *,std::less<unsigned long>,std::allocator<std::pair<unsigned long const ,CMailBox *> >,0> >::_Lrotate, COMDAT
; _this$ = ecx

; 1015 : 		_Nodeptr _Pnode = _Right(_Wherenode);

  00000	8b 54 24 04	 mov	 edx, DWORD PTR __Wherenode$[esp-4]
  00004	8b 42 08	 mov	 eax, DWORD PTR [edx+8]
  00007	53		 push	 ebx
  00008	56		 push	 esi

; 1016 : 		_Right(_Wherenode) = _Left(_Pnode);

  00009	8b 30		 mov	 esi, DWORD PTR [eax]
  0000b	89 72 08	 mov	 DWORD PTR [edx+8], esi

; 1017 : 
; 1018 : 		if (!_Isnil(_Left(_Pnode)))

  0000e	8b 30		 mov	 esi, DWORD PTR [eax]
  00010	8a 5e 15	 mov	 bl, BYTE PTR [esi+21]
  00013	84 db		 test	 bl, bl
  00015	75 03		 jne	 SHORT $L200932

; 1019 : 			_Parent(_Left(_Pnode)) = _Wherenode;

  00017	89 56 04	 mov	 DWORD PTR [esi+4], edx
$L200932:

; 1020 : 		_Parent(_Pnode) = _Parent(_Wherenode);

  0001a	8b 72 04	 mov	 esi, DWORD PTR [edx+4]
  0001d	89 70 04	 mov	 DWORD PTR [eax+4], esi

; 1021 : 
; 1022 : 		if (_Wherenode == _Root())

  00020	8b 49 04	 mov	 ecx, DWORD PTR [ecx+4]
  00023	3b 51 04	 cmp	 edx, DWORD PTR [ecx+4]
  00026	75 0d		 jne	 SHORT $L200933

; 1023 : 			_Root() = _Pnode;

  00028	89 41 04	 mov	 DWORD PTR [ecx+4], eax
  0002b	5e		 pop	 esi

; 1028 : 
; 1029 : 		_Left(_Pnode) = _Wherenode;

  0002c	89 10		 mov	 DWORD PTR [eax], edx

; 1030 : 		_Parent(_Wherenode) = _Pnode;

  0002e	89 42 04	 mov	 DWORD PTR [edx+4], eax
  00031	5b		 pop	 ebx

; 1031 : 		}

  00032	c2 04 00	 ret	 4
$L200933:

; 1024 : 		else if (_Wherenode == _Left(_Parent(_Wherenode)))

  00035	8b 4a 04	 mov	 ecx, DWORD PTR [edx+4]
  00038	3b 11		 cmp	 edx, DWORD PTR [ecx]
  0003a	75 0c		 jne	 SHORT $L200935

; 1025 : 			_Left(_Parent(_Wherenode)) = _Pnode;

  0003c	89 01		 mov	 DWORD PTR [ecx], eax
  0003e	5e		 pop	 esi

; 1028 : 
; 1029 : 		_Left(_Pnode) = _Wherenode;

  0003f	89 10		 mov	 DWORD PTR [eax], edx

; 1030 : 		_Parent(_Wherenode) = _Pnode;

  00041	89 42 04	 mov	 DWORD PTR [edx+4], eax
  00044	5b		 pop	 ebx

; 1031 : 		}

  00045	c2 04 00	 ret	 4
$L200935:

; 1026 : 		else
; 1027 : 			_Right(_Parent(_Wherenode)) = _Pnode;

  00048	89 41 08	 mov	 DWORD PTR [ecx+8], eax
  0004b	5e		 pop	 esi

; 1028 : 
; 1029 : 		_Left(_Pnode) = _Wherenode;

  0004c	89 10		 mov	 DWORD PTR [eax], edx

; 1030 : 		_Parent(_Wherenode) = _Pnode;

  0004e	89 42 04	 mov	 DWORD PTR [edx+4], eax
  00051	5b		 pop	 ebx

; 1031 : 		}

  00052	c2 04 00	 ret	 4
?_Lrotate@?$_Tree@V?$_Tmap_traits@KPAVCMailBox@@U?$less@K@std@@V?$allocator@U?$pair@$$CBKPAVCMailBox@@@std@@@3@$0A@@std@@@std@@IAEXPAU_Node@?$_Tree_nod@V?$_Tmap_traits@KPAVCMailBox@@U?$less@K@std@@V?$allocator@U?$pair@$$CBKPAVCMailBox@@@std@@@3@$0A@@std@@@2@@Z ENDP ; std::_Tree<std::_Tmap_traits<unsigned long,CMailBox *,std::less<unsigned long>,std::allocator<std::pair<unsigned long const ,CMailBox *> >,0> >::_Lrotate
_TEXT	ENDS
PUBLIC	?_Rrotate@?$_Tree@V?$_Tmap_traits@KPAVCMailBox@@U?$less@K@std@@V?$allocator@U?$pair@$$CBKPAVCMailBox@@@std@@@3@$0A@@std@@@std@@IAEXPAU_Node@?$_Tree_nod@V?$_Tmap_traits@KPAVCMailBox@@U?$less@K@std@@V?$allocator@U?$pair@$$CBKPAVCMailBox@@@std@@@3@$0A@@std@@@2@@Z ; std::_Tree<std::_Tmap_traits<unsigned long,CMailBox *,std::less<unsigned long>,std::allocator<std::pair<unsigned long const ,CMailBox *> >,0> >::_Rrotate
; Function compile flags: /Ogty
;	COMDAT ?_Rrotate@?$_Tree@V?$_Tmap_traits@KPAVCMailBox@@U?$less@K@std@@V?$allocator@U?$pair@$$CBKPAVCMailBox@@@std@@@3@$0A@@std@@@std@@IAEXPAU_Node@?$_Tree_nod@V?$_Tmap_traits@KPAVCMailBox@@U?$less@K@std@@V?$allocator@U?$pair@$$CBKPAVCMailBox@@@std@@@3@$0A@@std@@@2@@Z
_TEXT	SEGMENT
__Wherenode$ = 8					; size = 4
?_Rrotate@?$_Tree@V?$_Tmap_traits@KPAVCMailBox@@U?$less@K@std@@V?$allocator@U?$pair@$$CBKPAVCMailBox@@@std@@@3@$0A@@std@@@std@@IAEXPAU_Node@?$_Tree_nod@V?$_Tmap_traits@KPAVCMailBox@@U?$less@K@std@@V?$allocator@U?$pair@$$CBKPAVCMailBox@@@std@@@3@$0A@@std@@@2@@Z PROC NEAR ; std::_Tree<std::_Tmap_traits<unsigned long,CMailBox *,std::less<unsigned long>,std::allocator<std::pair<unsigned long const ,CMailBox *> >,0> >::_Rrotate, COMDAT
; _this$ = ecx

; 1069 : 		_Nodeptr _Pnode = _Left(_Wherenode);

  00000	8b 54 24 04	 mov	 edx, DWORD PTR __Wherenode$[esp-4]
  00004	8b 02		 mov	 eax, DWORD PTR [edx]
  00006	53		 push	 ebx
  00007	56		 push	 esi

; 1070 : 		_Left(_Wherenode) = _Right(_Pnode);

  00008	8b 70 08	 mov	 esi, DWORD PTR [eax+8]
  0000b	89 32		 mov	 DWORD PTR [edx], esi

; 1071 : 
; 1072 : 		if (!_Isnil(_Right(_Pnode)))

  0000d	8b 70 08	 mov	 esi, DWORD PTR [eax+8]
  00010	8a 5e 15	 mov	 bl, BYTE PTR [esi+21]
  00013	84 db		 test	 bl, bl
  00015	75 03		 jne	 SHORT $L200940

; 1073 : 			_Parent(_Right(_Pnode)) = _Wherenode;

  00017	89 56 04	 mov	 DWORD PTR [esi+4], edx
$L200940:

; 1074 : 		_Parent(_Pnode) = _Parent(_Wherenode);

  0001a	8b 72 04	 mov	 esi, DWORD PTR [edx+4]
  0001d	89 70 04	 mov	 DWORD PTR [eax+4], esi

; 1075 : 
; 1076 : 		if (_Wherenode == _Root())

  00020	8b 49 04	 mov	 ecx, DWORD PTR [ecx+4]
  00023	3b 51 04	 cmp	 edx, DWORD PTR [ecx+4]
  00026	75 0e		 jne	 SHORT $L200941

; 1077 : 			_Root() = _Pnode;

  00028	89 41 04	 mov	 DWORD PTR [ecx+4], eax
  0002b	5e		 pop	 esi

; 1082 : 
; 1083 : 		_Right(_Pnode) = _Wherenode;

  0002c	89 50 08	 mov	 DWORD PTR [eax+8], edx

; 1084 : 		_Parent(_Wherenode) = _Pnode;

  0002f	89 42 04	 mov	 DWORD PTR [edx+4], eax
  00032	5b		 pop	 ebx

; 1085 : 		}

  00033	c2 04 00	 ret	 4
$L200941:

; 1078 : 		else if (_Wherenode == _Right(_Parent(_Wherenode)))

  00036	8b 4a 04	 mov	 ecx, DWORD PTR [edx+4]
  00039	3b 51 08	 cmp	 edx, DWORD PTR [ecx+8]
  0003c	75 0e		 jne	 SHORT $L200943

; 1079 : 			_Right(_Parent(_Wherenode)) = _Pnode;

  0003e	89 41 08	 mov	 DWORD PTR [ecx+8], eax
  00041	5e		 pop	 esi

; 1082 : 
; 1083 : 		_Right(_Pnode) = _Wherenode;

  00042	89 50 08	 mov	 DWORD PTR [eax+8], edx

; 1084 : 		_Parent(_Wherenode) = _Pnode;

  00045	89 42 04	 mov	 DWORD PTR [edx+4], eax
  00048	5b		 pop	 ebx

; 1085 : 		}

  00049	c2 04 00	 ret	 4
$L200943:

; 1080 : 		else
; 1081 : 			_Left(_Parent(_Wherenode)) = _Pnode;

  0004c	89 01		 mov	 DWORD PTR [ecx], eax
  0004e	5e		 pop	 esi

; 1082 : 
; 1083 : 		_Right(_Pnode) = _Wherenode;

  0004f	89 50 08	 mov	 DWORD PTR [eax+8], edx

; 1084 : 		_Parent(_Wherenode) = _Pnode;

  00052	89 42 04	 mov	 DWORD PTR [edx+4], eax
  00055	5b		 pop	 ebx

; 1085 : 		}

  00056	c2 04 00	 ret	 4
?_Rrotate@?$_Tree@V?$_Tmap_traits@KPAVCMailBox@@U?$less@K@std@@V?$allocator@U?$pair@$$CBKPAVCMailBox@@@std@@@3@$0A@@std@@@std@@IAEXPAU_Node@?$_Tree_nod@V?$_Tmap_traits@KPAVCMailBox@@U?$less@K@std@@V?$allocator@U?$pair@$$CBKPAVCMailBox@@@std@@@3@$0A@@std@@@2@@Z ENDP ; std::_Tree<std::_Tmap_traits<unsigned long,CMailBox *,std::less<unsigned long>,std::allocator<std::pair<unsigned long const ,CMailBox *> >,0> >::_Rrotate
_TEXT	ENDS
PUBLIC	?destroy@?$allocator@U_Node@?$_Tree_nod@V?$_Tmap_traits@KPAVCMailBox@@U?$less@K@std@@V?$allocator@U?$pair@$$CBKPAVCMailBox@@@std@@@3@$0A@@std@@@std@@@std@@QAEXPAU_Node@?$_Tree_nod@V?$_Tmap_traits@KPAVCMailBox@@U?$less@K@std@@V?$allocator@U?$pair@$$CBKPAVCMailBox@@@std@@@3@$0A@@std@@@2@@Z ; std::allocator<std::_Tree_nod<std::_Tmap_traits<unsigned long,CMailBox *,std::less<unsigned long>,std::allocator<std::pair<unsigned long const ,CMailBox *> >,0> >::_Node>::destroy
; Function compile flags: /Ogty
; File c:\program files\microsoft visual studio .net 2003\vc7\include\xmemory
;	COMDAT ?destroy@?$allocator@U_Node@?$_Tree_nod@V?$_Tmap_traits@KPAVCMailBox@@U?$less@K@std@@V?$allocator@U?$pair@$$CBKPAVCMailBox@@@std@@@3@$0A@@std@@@std@@@std@@QAEXPAU_Node@?$_Tree_nod@V?$_Tmap_traits@KPAVCMailBox@@U?$less@K@std@@V?$allocator@U?$pair@$$CBKPAVCMailBox@@@std@@@3@$0A@@std@@@2@@Z
_TEXT	SEGMENT
__Ptr$ = 8						; size = 4
?destroy@?$allocator@U_Node@?$_Tree_nod@V?$_Tmap_traits@KPAVCMailBox@@U?$less@K@std@@V?$allocator@U?$pair@$$CBKPAVCMailBox@@@std@@@3@$0A@@std@@@std@@@std@@QAEXPAU_Node@?$_Tree_nod@V?$_Tmap_traits@KPAVCMailBox@@U?$less@K@std@@V?$allocator@U?$pair@$$CBKPAVCMailBox@@@std@@@3@$0A@@std@@@2@@Z PROC NEAR ; std::allocator<std::_Tree_nod<std::_Tmap_traits<unsigned long,CMailBox *,std::less<unsigned long>,std::allocator<std::pair<unsigned long const ,CMailBox *> >,0> >::_Node>::destroy, COMDAT
; _this$ = ecx

; 152  : 		_Destroy(_Ptr);
; 153  : 		}

  00000	c2 04 00	 ret	 4
?destroy@?$allocator@U_Node@?$_Tree_nod@V?$_Tmap_traits@KPAVCMailBox@@U?$less@K@std@@V?$allocator@U?$pair@$$CBKPAVCMailBox@@@std@@@3@$0A@@std@@@std@@@std@@QAEXPAU_Node@?$_Tree_nod@V?$_Tmap_traits@KPAVCMailBox@@U?$less@K@std@@V?$allocator@U?$pair@$$CBKPAVCMailBox@@@std@@@3@$0A@@std@@@2@@Z ENDP ; std::allocator<std::_Tree_nod<std::_Tmap_traits<unsigned long,CMailBox *,std::less<unsigned long>,std::allocator<std::pair<unsigned long const ,CMailBox *> >,0> >::_Node>::destroy
_TEXT	ENDS
PUBLIC	?destroy@?$allocator@PAU_Node@?$_Tree_nod@V?$_Tmap_traits@KPAVCMailBox@@U?$less@K@std@@V?$allocator@U?$pair@$$CBKPAVCMailBox@@@std@@@3@$0A@@std@@@std@@@std@@QAEXPAPAU_Node@?$_Tree_nod@V?$_Tmap_traits@KPAVCMailBox@@U?$less@K@std@@V?$allocator@U?$pair@$$CBKPAVCMailBox@@@std@@@3@$0A@@std@@@2@@Z ; std::allocator<std::_Tree_nod<std::_Tmap_traits<unsigned long,CMailBox *,std::less<unsigned long>,std::allocator<std::pair<unsigned long const ,CMailBox *> >,0> >::_Node *>::destroy
; Function compile flags: /Ogty
;	COMDAT ?destroy@?$allocator@PAU_Node@?$_Tree_nod@V?$_Tmap_traits@KPAVCMailBox@@U?$less@K@std@@V?$allocator@U?$pair@$$CBKPAVCMailBox@@@std@@@3@$0A@@std@@@std@@@std@@QAEXPAPAU_Node@?$_Tree_nod@V?$_Tmap_traits@KPAVCMailBox@@U?$less@K@std@@V?$allocator@U?$pair@$$CBKPAVCMailBox@@@std@@@3@$0A@@std@@@2@@Z
_TEXT	SEGMENT
__Ptr$ = 8						; size = 4
?destroy@?$allocator@PAU_Node@?$_Tree_nod@V?$_Tmap_traits@KPAVCMailBox@@U?$less@K@std@@V?$allocator@U?$pair@$$CBKPAVCMailBox@@@std@@@3@$0A@@std@@@std@@@std@@QAEXPAPAU_Node@?$_Tree_nod@V?$_Tmap_traits@KPAVCMailBox@@U?$less@K@std@@V?$allocator@U?$pair@$$CBKPAVCMailBox@@@std@@@3@$0A@@std@@@2@@Z PROC NEAR ; std::allocator<std::_Tree_nod<std::_Tmap_traits<unsigned long,CMailBox *,std::less<unsigned long>,std::allocator<std::pair<unsigned long const ,CMailBox *> >,0> >::_Node *>::destroy, COMDAT
; _this$ = ecx

; 152  : 		_Destroy(_Ptr);
; 153  : 		}

  00000	c2 04 00	 ret	 4
?destroy@?$allocator@PAU_Node@?$_Tree_nod@V?$_Tmap_traits@KPAVCMailBox@@U?$less@K@std@@V?$allocator@U?$pair@$$CBKPAVCMailBox@@@std@@@3@$0A@@std@@@std@@@std@@QAEXPAPAU_Node@?$_Tree_nod@V?$_Tmap_traits@KPAVCMailBox@@U?$less@K@std@@V?$allocator@U?$pair@$$CBKPAVCMailBox@@@std@@@3@$0A@@std@@@2@@Z ENDP ; std::allocator<std::_Tree_nod<std::_Tmap_traits<unsigned long,CMailBox *,std::less<unsigned long>,std::allocator<std::pair<unsigned long const ,CMailBox *> >,0> >::_Node *>::destroy
_TEXT	ENDS
PUBLIC	??Hiterator@?$vector@PAVCMail@@V?$allocator@PAVCMail@@@std@@@std@@QBE?AV012@H@Z ; std::vector<CMail *,std::allocator<CMail *> >::iterator::operator+
; Function compile flags: /Ogty
; File c:\program files\microsoft visual studio .net 2003\vc7\include\vector
;	COMDAT ??Hiterator@?$vector@PAVCMail@@V?$allocator@PAVCMail@@@std@@@std@@QBE?AV012@H@Z
_TEXT	SEGMENT
___$ReturnUdt$ = 8					; size = 4
__Off$ = 12						; size = 4
??Hiterator@?$vector@PAVCMail@@V?$allocator@PAVCMail@@@std@@@std@@QBE?AV012@H@Z PROC NEAR ; std::vector<CMail *,std::allocator<CMail *> >::iterator::operator+, COMDAT
; _this$ = ecx

; 262  : 			iterator _Tmp = *this;
; 263  : 			return (_Tmp += _Off);

  00000	8b 01		 mov	 eax, DWORD PTR [ecx]
  00002	8b 4c 24 08	 mov	 ecx, DWORD PTR __Off$[esp-4]
  00006	8d 14 88	 lea	 edx, DWORD PTR [eax+ecx*4]
  00009	8b 44 24 04	 mov	 eax, DWORD PTR ___$ReturnUdt$[esp-4]
  0000d	89 10		 mov	 DWORD PTR [eax], edx

; 264  : 			}

  0000f	c2 08 00	 ret	 8
??Hiterator@?$vector@PAVCMail@@V?$allocator@PAVCMail@@@std@@@std@@QBE?AV012@H@Z ENDP ; std::vector<CMail *,std::allocator<CMail *> >::iterator::operator+
_TEXT	ENDS
PUBLIC	??Giterator@?$vector@PAVCMail@@V?$allocator@PAVCMail@@@std@@@std@@QBEHABVconst_iterator@12@@Z ; std::vector<CMail *,std::allocator<CMail *> >::iterator::operator-
; Function compile flags: /Ogty
;	COMDAT ??Giterator@?$vector@PAVCMail@@V?$allocator@PAVCMail@@@std@@@std@@QBEHABVconst_iterator@12@@Z
_TEXT	SEGMENT
__Right$ = 8						; size = 4
??Giterator@?$vector@PAVCMail@@V?$allocator@PAVCMail@@@std@@@std@@QBEHABVconst_iterator@12@@Z PROC NEAR ; std::vector<CMail *,std::allocator<CMail *> >::iterator::operator-, COMDAT
; _this$ = ecx

; 279  : 			return ((const_iterator)*this - _Right);

  00000	8b 01		 mov	 eax, DWORD PTR [ecx]
  00002	8b 4c 24 04	 mov	 ecx, DWORD PTR __Right$[esp-4]
  00006	2b 01		 sub	 eax, DWORD PTR [ecx]
  00008	c1 f8 02	 sar	 eax, 2

; 280  : 			}

  0000b	c2 04 00	 ret	 4
??Giterator@?$vector@PAVCMail@@V?$allocator@PAVCMail@@@std@@@std@@QBEHABVconst_iterator@12@@Z ENDP ; std::vector<CMail *,std::allocator<CMail *> >::iterator::operator-
_TEXT	ENDS
PUBLIC	??Fconst_iterator@?$_Tree@V?$_Tmap_traits@KPAVCMail@@U?$less@K@std@@V?$allocator@U?$pair@$$CBKPAVCMail@@@std@@@3@$0A@@std@@@std@@QAEAAV012@XZ ; std::_Tree<std::_Tmap_traits<unsigned long,CMail *,std::less<unsigned long>,std::allocator<std::pair<unsigned long const ,CMail *> >,0> >::const_iterator::operator--
; Function compile flags: /Ogty
; File c:\program files\microsoft visual studio .net 2003\vc7\include\xtree
;	COMDAT ??Fconst_iterator@?$_Tree@V?$_Tmap_traits@KPAVCMail@@U?$less@K@std@@V?$allocator@U?$pair@$$CBKPAVCMail@@@std@@@3@$0A@@std@@@std@@QAEAAV012@XZ
_TEXT	SEGMENT
??Fconst_iterator@?$_Tree@V?$_Tmap_traits@KPAVCMail@@U?$less@K@std@@V?$allocator@U?$pair@$$CBKPAVCMail@@@std@@@3@$0A@@std@@@std@@QAEAAV012@XZ PROC NEAR ; std::_Tree<std::_Tmap_traits<unsigned long,CMail *,std::less<unsigned long>,std::allocator<std::pair<unsigned long const ,CMail *> >,0> >::const_iterator::operator--, COMDAT
; _this$ = ecx

; 227  : 			{	// predecrement

  00000	56		 push	 esi
  00001	8b f1		 mov	 esi, ecx

; 228  : 			_Dec();

  00003	e8 00 00 00 00	 call	 ?_Dec@const_iterator@?$_Tree@V?$_Tmap_traits@KPAVCMail@@U?$less@K@std@@V?$allocator@U?$pair@$$CBKPAVCMail@@@std@@@3@$0A@@std@@@std@@QAEXXZ ; std::_Tree<std::_Tmap_traits<unsigned long,CMail *,std::less<unsigned long>,std::allocator<std::pair<unsigned long const ,CMail *> >,0> >::const_iterator::_Dec

; 229  : 			return (*this);

  00008	8b c6		 mov	 eax, esi
  0000a	5e		 pop	 esi

; 230  : 			}

  0000b	c3		 ret	 0
??Fconst_iterator@?$_Tree@V?$_Tmap_traits@KPAVCMail@@U?$less@K@std@@V?$allocator@U?$pair@$$CBKPAVCMail@@@std@@@3@$0A@@std@@@std@@QAEAAV012@XZ ENDP ; std::_Tree<std::_Tmap_traits<unsigned long,CMail *,std::less<unsigned long>,std::allocator<std::pair<unsigned long const ,CMail *> >,0> >::const_iterator::operator--
_TEXT	ENDS
PUBLIC	?_Inc@const_iterator@?$_Tree@V?$_Tmap_traits@KPAVCMail@@U?$less@K@std@@V?$allocator@U?$pair@$$CBKPAVCMail@@@std@@@3@$0A@@std@@@std@@QAEXXZ ; std::_Tree<std::_Tmap_traits<unsigned long,CMail *,std::less<unsigned long>,std::allocator<std::pair<unsigned long const ,CMail *> >,0> >::const_iterator::_Inc
; Function compile flags: /Ogty
;	COMDAT ?_Inc@const_iterator@?$_Tree@V?$_Tmap_traits@KPAVCMail@@U?$less@K@std@@V?$allocator@U?$pair@$$CBKPAVCMail@@@std@@@3@$0A@@std@@@std@@QAEXXZ
_TEXT	SEGMENT
?_Inc@const_iterator@?$_Tree@V?$_Tmap_traits@KPAVCMail@@U?$less@K@std@@V?$allocator@U?$pair@$$CBKPAVCMail@@@std@@@3@$0A@@std@@@std@@QAEXXZ PROC NEAR ; std::_Tree<std::_Tmap_traits<unsigned long,CMail *,std::less<unsigned long>,std::allocator<std::pair<unsigned long const ,CMail *> >,0> >::const_iterator::_Inc, COMDAT
; _this$ = ecx

; 268  : 			if (_Isnil(_Ptr))

  00000	8b 01		 mov	 eax, DWORD PTR [ecx]
  00002	8a 50 15	 mov	 dl, BYTE PTR [eax+21]
  00005	84 d2		 test	 dl, dl
  00007	75 4d		 jne	 SHORT $L201073

; 269  : 				;	// end() shouldn't be incremented, don't move
; 270  : 			else if (!_Isnil(_Right(_Ptr)))

  00009	8b 50 08	 mov	 edx, DWORD PTR [eax+8]
  0000c	53		 push	 ebx
  0000d	8a 5a 15	 mov	 bl, BYTE PTR [edx+21]
  00010	84 db		 test	 bl, bl
  00012	75 1b		 jne	 SHORT $L203849

; 271  : 				_Ptr = _Min(_Right(_Ptr));	// ==> smallest of right subtree

  00014	8b 02		 mov	 eax, DWORD PTR [edx]
  00016	8a 58 15	 mov	 bl, BYTE PTR [eax+21]
  00019	84 db		 test	 bl, bl
  0001b	75 0e		 jne	 SHORT $L203837
  0001d	8d 49 00	 npad	 3
$L203836:
  00020	8b d0		 mov	 edx, eax
  00022	8b 02		 mov	 eax, DWORD PTR [edx]
  00024	8a 58 15	 mov	 bl, BYTE PTR [eax+21]
  00027	84 db		 test	 bl, bl
  00029	74 f5		 je	 SHORT $L203836
$L203837:
  0002b	89 11		 mov	 DWORD PTR [ecx], edx
  0002d	5b		 pop	 ebx

; 279  : 				}
; 280  : 			}

  0002e	c3		 ret	 0
$L203849:

; 272  : 			else
; 273  : 				{	// climb looking for right subtree
; 274  : 				_Nodeptr _Pnode;
; 275  : 				while (!_Isnil(_Pnode = _Parent(_Ptr))
; 276  : 					&& _Ptr == _Right(_Pnode))

  0002f	8b 40 04	 mov	 eax, DWORD PTR [eax+4]
  00032	8a 50 15	 mov	 dl, BYTE PTR [eax+21]
  00035	84 d2		 test	 dl, dl
  00037	75 1a		 jne	 SHORT $L201077
  00039	8d a4 24 00 00
	00 00		 npad	 7
$L201076:
  00040	8b 11		 mov	 edx, DWORD PTR [ecx]
  00042	3b 50 08	 cmp	 edx, DWORD PTR [eax+8]
  00045	75 0c		 jne	 SHORT $L201077

; 277  : 					_Ptr = _Pnode;	// ==> parent while right subtree

  00047	89 01		 mov	 DWORD PTR [ecx], eax
  00049	8b 40 04	 mov	 eax, DWORD PTR [eax+4]
  0004c	8a 50 15	 mov	 dl, BYTE PTR [eax+21]
  0004f	84 d2		 test	 dl, dl
  00051	74 ed		 je	 SHORT $L201076
$L201077:

; 278  : 				_Ptr = _Pnode;	// ==> parent (head if end())

  00053	89 01		 mov	 DWORD PTR [ecx], eax
  00055	5b		 pop	 ebx
$L201073:

; 279  : 				}
; 280  : 			}

  00056	c3		 ret	 0
?_Inc@const_iterator@?$_Tree@V?$_Tmap_traits@KPAVCMail@@U?$less@K@std@@V?$allocator@U?$pair@$$CBKPAVCMail@@@std@@@3@$0A@@std@@@std@@QAEXXZ ENDP ; std::_Tree<std::_Tmap_traits<unsigned long,CMail *,std::less<unsigned long>,std::allocator<std::pair<unsigned long const ,CMail *> >,0> >::const_iterator::_Inc
_TEXT	ENDS
PUBLIC	?_Inc@const_iterator@?$_Tree@V?$_Tmap_traits@KPAVCMailBox@@U?$less@K@std@@V?$allocator@U?$pair@$$CBKPAVCMailBox@@@std@@@3@$0A@@std@@@std@@QAEXXZ ; std::_Tree<std::_Tmap_traits<unsigned long,CMailBox *,std::less<unsigned long>,std::allocator<std::pair<unsigned long const ,CMailBox *> >,0> >::const_iterator::_Inc
; Function compile flags: /Ogty
;	COMDAT ?_Inc@const_iterator@?$_Tree@V?$_Tmap_traits@KPAVCMailBox@@U?$less@K@std@@V?$allocator@U?$pair@$$CBKPAVCMailBox@@@std@@@3@$0A@@std@@@std@@QAEXXZ
_TEXT	SEGMENT
?_Inc@const_iterator@?$_Tree@V?$_Tmap_traits@KPAVCMailBox@@U?$less@K@std@@V?$allocator@U?$pair@$$CBKPAVCMailBox@@@std@@@3@$0A@@std@@@std@@QAEXXZ PROC NEAR ; std::_Tree<std::_Tmap_traits<unsigned long,CMailBox *,std::less<unsigned long>,std::allocator<std::pair<unsigned long const ,CMailBox *> >,0> >::const_iterator::_Inc, COMDAT
; _this$ = ecx

; 268  : 			if (_Isnil(_Ptr))

  00000	8b 01		 mov	 eax, DWORD PTR [ecx]
  00002	8a 50 15	 mov	 dl, BYTE PTR [eax+21]
  00005	84 d2		 test	 dl, dl
  00007	75 4d		 jne	 SHORT $L201089

; 269  : 				;	// end() shouldn't be incremented, don't move
; 270  : 			else if (!_Isnil(_Right(_Ptr)))

  00009	8b 50 08	 mov	 edx, DWORD PTR [eax+8]
  0000c	53		 push	 ebx
  0000d	8a 5a 15	 mov	 bl, BYTE PTR [edx+21]
  00010	84 db		 test	 bl, bl
  00012	75 1b		 jne	 SHORT $L203898

; 271  : 				_Ptr = _Min(_Right(_Ptr));	// ==> smallest of right subtree

  00014	8b 02		 mov	 eax, DWORD PTR [edx]
  00016	8a 58 15	 mov	 bl, BYTE PTR [eax+21]
  00019	84 db		 test	 bl, bl
  0001b	75 0e		 jne	 SHORT $L203886
  0001d	8d 49 00	 npad	 3
$L203885:
  00020	8b d0		 mov	 edx, eax
  00022	8b 02		 mov	 eax, DWORD PTR [edx]
  00024	8a 58 15	 mov	 bl, BYTE PTR [eax+21]
  00027	84 db		 test	 bl, bl
  00029	74 f5		 je	 SHORT $L203885
$L203886:
  0002b	89 11		 mov	 DWORD PTR [ecx], edx
  0002d	5b		 pop	 ebx

; 279  : 				}
; 280  : 			}

  0002e	c3		 ret	 0
$L203898:

; 272  : 			else
; 273  : 				{	// climb looking for right subtree
; 274  : 				_Nodeptr _Pnode;
; 275  : 				while (!_Isnil(_Pnode = _Parent(_Ptr))
; 276  : 					&& _Ptr == _Right(_Pnode))

  0002f	8b 40 04	 mov	 eax, DWORD PTR [eax+4]
  00032	8a 50 15	 mov	 dl, BYTE PTR [eax+21]
  00035	84 d2		 test	 dl, dl
  00037	75 1a		 jne	 SHORT $L201093
  00039	8d a4 24 00 00
	00 00		 npad	 7
$L201092:
  00040	8b 11		 mov	 edx, DWORD PTR [ecx]
  00042	3b 50 08	 cmp	 edx, DWORD PTR [eax+8]
  00045	75 0c		 jne	 SHORT $L201093

; 277  : 					_Ptr = _Pnode;	// ==> parent while right subtree

  00047	89 01		 mov	 DWORD PTR [ecx], eax
  00049	8b 40 04	 mov	 eax, DWORD PTR [eax+4]
  0004c	8a 50 15	 mov	 dl, BYTE PTR [eax+21]
  0004f	84 d2		 test	 dl, dl
  00051	74 ed		 je	 SHORT $L201092
$L201093:

; 278  : 				_Ptr = _Pnode;	// ==> parent (head if end())

  00053	89 01		 mov	 DWORD PTR [ecx], eax
  00055	5b		 pop	 ebx
$L201089:

; 279  : 				}
; 280  : 			}

  00056	c3		 ret	 0
?_Inc@const_iterator@?$_Tree@V?$_Tmap_traits@KPAVCMailBox@@U?$less@K@std@@V?$allocator@U?$pair@$$CBKPAVCMailBox@@@std@@@3@$0A@@std@@@std@@QAEXXZ ENDP ; std::_Tree<std::_Tmap_traits<unsigned long,CMailBox *,std::less<unsigned long>,std::allocator<std::pair<unsigned long const ,CMailBox *> >,0> >::const_iterator::_Inc
_TEXT	ENDS
PUBLIC	?allocate@?$allocator@U_Node@?$_List_nod@PAVCMail@@V?$allocator@PAVCMail@@@std@@@std@@@std@@QAEPAU_Node@?$_List_nod@PAVCMail@@V?$allocator@PAVCMail@@@std@@@2@I@Z ; std::allocator<std::_List_nod<CMail *,std::allocator<CMail *> >::_Node>::allocate
; Function compile flags: /Ogty
; File c:\program files\microsoft visual studio .net 2003\vc7\include\xmemory
;	COMDAT ?allocate@?$allocator@U_Node@?$_List_nod@PAVCMail@@V?$allocator@PAVCMail@@@std@@@std@@@std@@QAEPAU_Node@?$_List_nod@PAVCMail@@V?$allocator@PAVCMail@@@std@@@2@I@Z
_TEXT	SEGMENT
__Count$ = 8						; size = 4
?allocate@?$allocator@U_Node@?$_List_nod@PAVCMail@@V?$allocator@PAVCMail@@@std@@@std@@@std@@QAEPAU_Node@?$_List_nod@PAVCMail@@V?$allocator@PAVCMail@@@std@@@2@I@Z PROC NEAR ; std::allocator<std::_List_nod<CMail *,std::allocator<CMail *> >::_Node>::allocate, COMDAT
; _this$ = ecx

; 137  : 		return (_Allocate(_Count, (pointer)0));

  00000	8b 44 24 04	 mov	 eax, DWORD PTR __Count$[esp-4]
  00004	8d 04 40	 lea	 eax, DWORD PTR [eax+eax*2]
  00007	c1 e0 02	 shl	 eax, 2
  0000a	50		 push	 eax
  0000b	e8 00 00 00 00	 call	 ??2@YAPAXI@Z		; operator new
  00010	83 c4 04	 add	 esp, 4

; 138  : 		}

  00013	c2 04 00	 ret	 4
?allocate@?$allocator@U_Node@?$_List_nod@PAVCMail@@V?$allocator@PAVCMail@@@std@@@std@@@std@@QAEPAU_Node@?$_List_nod@PAVCMail@@V?$allocator@PAVCMail@@@std@@@2@I@Z ENDP ; std::allocator<std::_List_nod<CMail *,std::allocator<CMail *> >::_Node>::allocate
_TEXT	ENDS
PUBLIC	?construct@?$allocator@PAU_Node@?$_List_nod@PAVCMail@@V?$allocator@PAVCMail@@@std@@@std@@@std@@QAEXPAPAU_Node@?$_List_nod@PAVCMail@@V?$allocator@PAVCMail@@@std@@@2@ABQAU342@@Z ; std::allocator<std::_List_nod<CMail *,std::allocator<CMail *> >::_Node *>::construct
; Function compile flags: /Ogty
;	COMDAT ?construct@?$allocator@PAU_Node@?$_List_nod@PAVCMail@@V?$allocator@PAVCMail@@@std@@@std@@@std@@QAEXPAPAU_Node@?$_List_nod@PAVCMail@@V?$allocator@PAVCMail@@@std@@@2@ABQAU342@@Z
_TEXT	SEGMENT
__Ptr$ = 8						; size = 4
__Val$ = 12						; size = 4
?construct@?$allocator@PAU_Node@?$_List_nod@PAVCMail@@V?$allocator@PAVCMail@@@std@@@std@@@std@@QAEXPAPAU_Node@?$_List_nod@PAVCMail@@V?$allocator@PAVCMail@@@std@@@2@ABQAU342@@Z PROC NEAR ; std::allocator<std::_List_nod<CMail *,std::allocator<CMail *> >::_Node *>::construct, COMDAT
; _this$ = ecx

; 147  : 		_Construct(_Ptr, _Val);

  00000	8b 44 24 04	 mov	 eax, DWORD PTR __Ptr$[esp-4]
  00004	85 c0		 test	 eax, eax
  00006	74 08		 je	 SHORT $L203919
  00008	8b 4c 24 08	 mov	 ecx, DWORD PTR __Val$[esp-4]
  0000c	8b 11		 mov	 edx, DWORD PTR [ecx]
  0000e	89 10		 mov	 DWORD PTR [eax], edx
$L203919:

; 148  : 		}

  00010	c2 08 00	 ret	 8
?construct@?$allocator@PAU_Node@?$_List_nod@PAVCMail@@V?$allocator@PAVCMail@@@std@@@std@@@std@@QAEXPAPAU_Node@?$_List_nod@PAVCMail@@V?$allocator@PAVCMail@@@std@@@2@ABQAU342@@Z ENDP ; std::allocator<std::_List_nod<CMail *,std::allocator<CMail *> >::_Node *>::construct
_TEXT	ENDS
PUBLIC	?destroy@?$allocator@PAU_Node@?$_List_nod@PAVCMail@@V?$allocator@PAVCMail@@@std@@@std@@@std@@QAEXPAPAU_Node@?$_List_nod@PAVCMail@@V?$allocator@PAVCMail@@@std@@@2@@Z ; std::allocator<std::_List_nod<CMail *,std::allocator<CMail *> >::_Node *>::destroy
; Function compile flags: /Ogty
;	COMDAT ?destroy@?$allocator@PAU_Node@?$_List_nod@PAVCMail@@V?$allocator@PAVCMail@@@std@@@std@@@std@@QAEXPAPAU_Node@?$_List_nod@PAVCMail@@V?$allocator@PAVCMail@@@std@@@2@@Z
_TEXT	SEGMENT
__Ptr$ = 8						; size = 4
?destroy@?$allocator@PAU_Node@?$_List_nod@PAVCMail@@V?$allocator@PAVCMail@@@std@@@std@@@std@@QAEXPAPAU_Node@?$_List_nod@PAVCMail@@V?$allocator@PAVCMail@@@std@@@2@@Z PROC NEAR ; std::allocator<std::_List_nod<CMail *,std::allocator<CMail *> >::_Node *>::destroy, COMDAT
; _this$ = ecx

; 152  : 		_Destroy(_Ptr);
; 153  : 		}

  00000	c2 04 00	 ret	 4
?destroy@?$allocator@PAU_Node@?$_List_nod@PAVCMail@@V?$allocator@PAVCMail@@@std@@@std@@@std@@QAEXPAPAU_Node@?$_List_nod@PAVCMail@@V?$allocator@PAVCMail@@@std@@@2@@Z ENDP ; std::allocator<std::_List_nod<CMail *,std::allocator<CMail *> >::_Node *>::destroy
_TEXT	ENDS
PUBLIC	??0iterator@?$list@PAVCMail@@V?$allocator@PAVCMail@@@std@@@std@@QAE@PAU_Node@?$_List_nod@PAVCMail@@V?$allocator@PAVCMail@@@std@@@2@@Z ; std::list<CMail *,std::allocator<CMail *> >::iterator::iterator
; Function compile flags: /Ogty
; File c:\program files\microsoft visual studio .net 2003\vc7\include\list
;	COMDAT ??0iterator@?$list@PAVCMail@@V?$allocator@PAVCMail@@@std@@@std@@QAE@PAU_Node@?$_List_nod@PAVCMail@@V?$allocator@PAVCMail@@@std@@@2@@Z
_TEXT	SEGMENT
__Pnode$ = 8						; size = 4
??0iterator@?$list@PAVCMail@@V?$allocator@PAVCMail@@@std@@@std@@QAE@PAU_Node@?$_List_nod@PAVCMail@@V?$allocator@PAVCMail@@@std@@@2@@Z PROC NEAR ; std::list<CMail *,std::allocator<CMail *> >::iterator::iterator, COMDAT
; _this$ = ecx

; 235  : 			{	// construct with node pointer _Pnode

  00000	8b c1		 mov	 eax, ecx
  00002	8b 4c 24 04	 mov	 ecx, DWORD PTR __Pnode$[esp-4]
  00006	89 08		 mov	 DWORD PTR [eax], ecx

; 236  : 			}

  00008	c2 04 00	 ret	 4
??0iterator@?$list@PAVCMail@@V?$allocator@PAVCMail@@@std@@@std@@QAE@PAU_Node@?$_List_nod@PAVCMail@@V?$allocator@PAVCMail@@@std@@@2@@Z ENDP ; std::list<CMail *,std::allocator<CMail *> >::iterator::iterator
_TEXT	ENDS
PUBLIC	?_Lbound@?$_Tree@V?$_Tmap_traits@KPAVCMail@@U?$less@K@std@@V?$allocator@U?$pair@$$CBKPAVCMail@@@std@@@3@$0A@@std@@@std@@IBEPAU_Node@?$_Tree_nod@V?$_Tmap_traits@KPAVCMail@@U?$less@K@std@@V?$allocator@U?$pair@$$CBKPAVCMail@@@std@@@3@$0A@@std@@@2@ABK@Z ; std::_Tree<std::_Tmap_traits<unsigned long,CMail *,std::less<unsigned long>,std::allocator<std::pair<unsigned long const ,CMail *> >,0> >::_Lbound
; Function compile flags: /Ogty
; File c:\program files\microsoft visual studio .net 2003\vc7\include\xtree
;	COMDAT ?_Lbound@?$_Tree@V?$_Tmap_traits@KPAVCMail@@U?$less@K@std@@V?$allocator@U?$pair@$$CBKPAVCMail@@@std@@@3@$0A@@std@@@std@@IBEPAU_Node@?$_Tree_nod@V?$_Tmap_traits@KPAVCMail@@U?$less@K@std@@V?$allocator@U?$pair@$$CBKPAVCMail@@@std@@@3@$0A@@std@@@2@ABK@Z
_TEXT	SEGMENT
__Keyval$ = 8						; size = 4
?_Lbound@?$_Tree@V?$_Tmap_traits@KPAVCMail@@U?$less@K@std@@V?$allocator@U?$pair@$$CBKPAVCMail@@@std@@@3@$0A@@std@@@std@@IBEPAU_Node@?$_Tree_nod@V?$_Tmap_traits@KPAVCMail@@U?$less@K@std@@V?$allocator@U?$pair@$$CBKPAVCMail@@@std@@@3@$0A@@std@@@2@ABK@Z PROC NEAR ; std::_Tree<std::_Tmap_traits<unsigned long,CMail *,std::less<unsigned long>,std::allocator<std::pair<unsigned long const ,CMail *> >,0> >::_Lbound, COMDAT
; _this$ = ecx

; 988  : 		_Nodeptr _Pnode = _Root();

  00000	8b 41 04	 mov	 eax, DWORD PTR [ecx+4]
  00003	8b 48 04	 mov	 ecx, DWORD PTR [eax+4]

; 989  : 		_Nodeptr _Wherenode = _Myhead;	// end() if search fails
; 990  : 
; 991  : 		while (!_Isnil(_Pnode))

  00006	8a 51 15	 mov	 dl, BYTE PTR [ecx+21]
  00009	84 d2		 test	 dl, dl
  0000b	75 1d		 jne	 SHORT $L201160
  0000d	8b 54 24 04	 mov	 edx, DWORD PTR __Keyval$[esp-4]
  00011	8b 12		 mov	 edx, DWORD PTR [edx]
  00013	53		 push	 ebx
$L201159:

; 992  : 			if (this->comp(_Key(_Pnode), _Keyval))

  00014	39 51 0c	 cmp	 DWORD PTR [ecx+12], edx
  00017	73 05		 jae	 SHORT $L201161

; 993  : 				_Pnode = _Right(_Pnode);	// descend right subtree

  00019	8b 49 08	 mov	 ecx, DWORD PTR [ecx+8]

; 994  : 			else

  0001c	eb 04		 jmp	 SHORT $L201162
$L201161:

; 995  : 				{	// _Pnode not less than _Keyval, remember it
; 996  : 				_Wherenode = _Pnode;

  0001e	8b c1		 mov	 eax, ecx

; 997  : 				_Pnode = _Left(_Pnode);	// descend left subtree

  00020	8b 09		 mov	 ecx, DWORD PTR [ecx]
$L201162:
  00022	8a 59 15	 mov	 bl, BYTE PTR [ecx+21]
  00025	84 db		 test	 bl, bl
  00027	74 eb		 je	 SHORT $L201159
  00029	5b		 pop	 ebx
$L201160:

; 998  : 				}
; 999  : 
; 1000 : 		return (_Wherenode);	// return best remembered candidate
; 1001 : 		}

  0002a	c2 04 00	 ret	 4
?_Lbound@?$_Tree@V?$_Tmap_traits@KPAVCMail@@U?$less@K@std@@V?$allocator@U?$pair@$$CBKPAVCMail@@@std@@@3@$0A@@std@@@std@@IBEPAU_Node@?$_Tree_nod@V?$_Tmap_traits@KPAVCMail@@U?$less@K@std@@V?$allocator@U?$pair@$$CBKPAVCMail@@@std@@@3@$0A@@std@@@2@ABK@Z ENDP ; std::_Tree<std::_Tmap_traits<unsigned long,CMail *,std::less<unsigned long>,std::allocator<std::pair<unsigned long const ,CMail *> >,0> >::_Lbound
_TEXT	ENDS
PUBLIC	?_Ubound@?$_Tree@V?$_Tmap_traits@KPAVCMail@@U?$less@K@std@@V?$allocator@U?$pair@$$CBKPAVCMail@@@std@@@3@$0A@@std@@@std@@IBEPAU_Node@?$_Tree_nod@V?$_Tmap_traits@KPAVCMail@@U?$less@K@std@@V?$allocator@U?$pair@$$CBKPAVCMail@@@std@@@3@$0A@@std@@@2@ABK@Z ; std::_Tree<std::_Tmap_traits<unsigned long,CMail *,std::less<unsigned long>,std::allocator<std::pair<unsigned long const ,CMail *> >,0> >::_Ubound
; Function compile flags: /Ogty
;	COMDAT ?_Ubound@?$_Tree@V?$_Tmap_traits@KPAVCMail@@U?$less@K@std@@V?$allocator@U?$pair@$$CBKPAVCMail@@@std@@@3@$0A@@std@@@std@@IBEPAU_Node@?$_Tree_nod@V?$_Tmap_traits@KPAVCMail@@U?$less@K@std@@V?$allocator@U?$pair@$$CBKPAVCMail@@@std@@@3@$0A@@std@@@2@ABK@Z
_TEXT	SEGMENT
__Keyval$ = 8						; size = 4
?_Ubound@?$_Tree@V?$_Tmap_traits@KPAVCMail@@U?$less@K@std@@V?$allocator@U?$pair@$$CBKPAVCMail@@@std@@@3@$0A@@std@@@std@@IBEPAU_Node@?$_Tree_nod@V?$_Tmap_traits@KPAVCMail@@U?$less@K@std@@V?$allocator@U?$pair@$$CBKPAVCMail@@@std@@@3@$0A@@std@@@2@ABK@Z PROC NEAR ; std::_Tree<std::_Tmap_traits<unsigned long,CMail *,std::less<unsigned long>,std::allocator<std::pair<unsigned long const ,CMail *> >,0> >::_Ubound, COMDAT
; _this$ = ecx

; 1089 : 		_Nodeptr _Pnode = _Root();

  00000	8b 41 04	 mov	 eax, DWORD PTR [ecx+4]
  00003	8b 48 04	 mov	 ecx, DWORD PTR [eax+4]

; 1090 : 		_Nodeptr _Wherenode = _Myhead;	// end() if search fails
; 1091 : 
; 1092 : 		while (!_Isnil(_Pnode))

  00006	8a 51 15	 mov	 dl, BYTE PTR [ecx+21]
  00009	84 d2		 test	 dl, dl
  0000b	75 1d		 jne	 SHORT $L201177
  0000d	8b 54 24 04	 mov	 edx, DWORD PTR __Keyval$[esp-4]
  00011	8b 12		 mov	 edx, DWORD PTR [edx]
  00013	53		 push	 ebx
$L201176:

; 1093 : 			if (this->comp(_Keyval, _Key(_Pnode)))

  00014	3b 51 0c	 cmp	 edx, DWORD PTR [ecx+12]
  00017	73 06		 jae	 SHORT $L201178

; 1094 : 				{	// _Pnode greater than _Keyval, remember it
; 1095 : 				_Wherenode = _Pnode;

  00019	8b c1		 mov	 eax, ecx

; 1096 : 				_Pnode = _Left(_Pnode);	// descend left subtree

  0001b	8b 09		 mov	 ecx, DWORD PTR [ecx]

; 1097 : 				}
; 1098 : 			else

  0001d	eb 03		 jmp	 SHORT $L201179
$L201178:

; 1099 : 				_Pnode = _Right(_Pnode);	// descend right subtree

  0001f	8b 49 08	 mov	 ecx, DWORD PTR [ecx+8]
$L201179:

; 1090 : 		_Nodeptr _Wherenode = _Myhead;	// end() if search fails
; 1091 : 
; 1092 : 		while (!_Isnil(_Pnode))

  00022	8a 59 15	 mov	 bl, BYTE PTR [ecx+21]
  00025	84 db		 test	 bl, bl
  00027	74 eb		 je	 SHORT $L201176
  00029	5b		 pop	 ebx
$L201177:

; 1100 : 
; 1101 : 		return (_Wherenode);	// return best remembered candidate
; 1102 : 		}

  0002a	c2 04 00	 ret	 4
?_Ubound@?$_Tree@V?$_Tmap_traits@KPAVCMail@@U?$less@K@std@@V?$allocator@U?$pair@$$CBKPAVCMail@@@std@@@3@$0A@@std@@@std@@IBEPAU_Node@?$_Tree_nod@V?$_Tmap_traits@KPAVCMail@@U?$less@K@std@@V?$allocator@U?$pair@$$CBKPAVCMail@@@std@@@3@$0A@@std@@@2@ABK@Z ENDP ; std::_Tree<std::_Tmap_traits<unsigned long,CMail *,std::less<unsigned long>,std::allocator<std::pair<unsigned long const ,CMail *> >,0> >::_Ubound
_TEXT	ENDS
PUBLIC	?allocate@?$allocator@U_Node@?$_Tree_nod@V?$_Tmap_traits@KPAVCMail@@U?$less@K@std@@V?$allocator@U?$pair@$$CBKPAVCMail@@@std@@@3@$0A@@std@@@std@@@std@@QAEPAU_Node@?$_Tree_nod@V?$_Tmap_traits@KPAVCMail@@U?$less@K@std@@V?$allocator@U?$pair@$$CBKPAVCMail@@@std@@@3@$0A@@std@@@2@I@Z ; std::allocator<std::_Tree_nod<std::_Tmap_traits<unsigned long,CMail *,std::less<unsigned long>,std::allocator<std::pair<unsigned long const ,CMail *> >,0> >::_Node>::allocate
; Function compile flags: /Ogty
; File c:\program files\microsoft visual studio .net 2003\vc7\include\xmemory
;	COMDAT ?allocate@?$allocator@U_Node@?$_Tree_nod@V?$_Tmap_traits@KPAVCMail@@U?$less@K@std@@V?$allocator@U?$pair@$$CBKPAVCMail@@@std@@@3@$0A@@std@@@std@@@std@@QAEPAU_Node@?$_Tree_nod@V?$_Tmap_traits@KPAVCMail@@U?$less@K@std@@V?$allocator@U?$pair@$$CBKPAVCMail@@@std@@@3@$0A@@std@@@2@I@Z
_TEXT	SEGMENT
__Count$ = 8						; size = 4
?allocate@?$allocator@U_Node@?$_Tree_nod@V?$_Tmap_traits@KPAVCMail@@U?$less@K@std@@V?$allocator@U?$pair@$$CBKPAVCMail@@@std@@@3@$0A@@std@@@std@@@std@@QAEPAU_Node@?$_Tree_nod@V?$_Tmap_traits@KPAVCMail@@U?$less@K@std@@V?$allocator@U?$pair@$$CBKPAVCMail@@@std@@@3@$0A@@std@@@2@I@Z PROC NEAR ; std::allocator<std::_Tree_nod<std::_Tmap_traits<unsigned long,CMail *,std::less<unsigned long>,std::allocator<std::pair<unsigned long const ,CMail *> >,0> >::_Node>::allocate, COMDAT
; _this$ = ecx

; 137  : 		return (_Allocate(_Count, (pointer)0));

  00000	8b 44 24 04	 mov	 eax, DWORD PTR __Count$[esp-4]
  00004	8d 04 40	 lea	 eax, DWORD PTR [eax+eax*2]
  00007	c1 e0 03	 shl	 eax, 3
  0000a	50		 push	 eax
  0000b	e8 00 00 00 00	 call	 ??2@YAPAXI@Z		; operator new
  00010	83 c4 04	 add	 esp, 4

; 138  : 		}

  00013	c2 04 00	 ret	 4
?allocate@?$allocator@U_Node@?$_Tree_nod@V?$_Tmap_traits@KPAVCMail@@U?$less@K@std@@V?$allocator@U?$pair@$$CBKPAVCMail@@@std@@@3@$0A@@std@@@std@@@std@@QAEPAU_Node@?$_Tree_nod@V?$_Tmap_traits@KPAVCMail@@U?$less@K@std@@V?$allocator@U?$pair@$$CBKPAVCMail@@@std@@@3@$0A@@std@@@2@I@Z ENDP ; std::allocator<std::_Tree_nod<std::_Tmap_traits<unsigned long,CMail *,std::less<unsigned long>,std::allocator<std::pair<unsigned long const ,CMail *> >,0> >::_Node>::allocate
_TEXT	ENDS
PUBLIC	?allocate@?$allocator@U_Node@?$_Tree_nod@V?$_Tmap_traits@KPAVCMailBox@@U?$less@K@std@@V?$allocator@U?$pair@$$CBKPAVCMailBox@@@std@@@3@$0A@@std@@@std@@@std@@QAEPAU_Node@?$_Tree_nod@V?$_Tmap_traits@KPAVCMailBox@@U?$less@K@std@@V?$allocator@U?$pair@$$CBKPAVCMailBox@@@std@@@3@$0A@@std@@@2@I@Z ; std::allocator<std::_Tree_nod<std::_Tmap_traits<unsigned long,CMailBox *,std::less<unsigned long>,std::allocator<std::pair<unsigned long const ,CMailBox *> >,0> >::_Node>::allocate
; Function compile flags: /Ogty
;	COMDAT ?allocate@?$allocator@U_Node@?$_Tree_nod@V?$_Tmap_traits@KPAVCMailBox@@U?$less@K@std@@V?$allocator@U?$pair@$$CBKPAVCMailBox@@@std@@@3@$0A@@std@@@std@@@std@@QAEPAU_Node@?$_Tree_nod@V?$_Tmap_traits@KPAVCMailBox@@U?$less@K@std@@V?$allocator@U?$pair@$$CBKPAVCMailBox@@@std@@@3@$0A@@std@@@2@I@Z
_TEXT	SEGMENT
__Count$ = 8						; size = 4
?allocate@?$allocator@U_Node@?$_Tree_nod@V?$_Tmap_traits@KPAVCMailBox@@U?$less@K@std@@V?$allocator@U?$pair@$$CBKPAVCMailBox@@@std@@@3@$0A@@std@@@std@@@std@@QAEPAU_Node@?$_Tree_nod@V?$_Tmap_traits@KPAVCMailBox@@U?$less@K@std@@V?$allocator@U?$pair@$$CBKPAVCMailBox@@@std@@@3@$0A@@std@@@2@I@Z PROC NEAR ; std::allocator<std::_Tree_nod<std::_Tmap_traits<unsigned long,CMailBox *,std::less<unsigned long>,std::allocator<std::pair<unsigned long const ,CMailBox *> >,0> >::_Node>::allocate, COMDAT
; _this$ = ecx

; 137  : 		return (_Allocate(_Count, (pointer)0));

  00000	8b 44 24 04	 mov	 eax, DWORD PTR __Count$[esp-4]
  00004	8d 04 40	 lea	 eax, DWORD PTR [eax+eax*2]
  00007	c1 e0 03	 shl	 eax, 3
  0000a	50		 push	 eax
  0000b	e8 00 00 00 00	 call	 ??2@YAPAXI@Z		; operator new
  00010	83 c4 04	 add	 esp, 4

; 138  : 		}

  00013	c2 04 00	 ret	 4
?allocate@?$allocator@U_Node@?$_Tree_nod@V?$_Tmap_traits@KPAVCMailBox@@U?$less@K@std@@V?$allocator@U?$pair@$$CBKPAVCMailBox@@@std@@@3@$0A@@std@@@std@@@std@@QAEPAU_Node@?$_Tree_nod@V?$_Tmap_traits@KPAVCMailBox@@U?$less@K@std@@V?$allocator@U?$pair@$$CBKPAVCMailBox@@@std@@@3@$0A@@std@@@2@I@Z ENDP ; std::allocator<std::_Tree_nod<std::_Tmap_traits<unsigned long,CMailBox *,std::less<unsigned long>,std::allocator<std::pair<unsigned long const ,CMailBox *> >,0> >::_Node>::allocate
_TEXT	ENDS
PUBLIC	?_Dec@const_iterator@?$_Tree@V?$_Tmap_traits@KPAVCMailBox@@U?$less@K@std@@V?$allocator@U?$pair@$$CBKPAVCMailBox@@@std@@@3@$0A@@std@@@std@@QAEXXZ ; std::_Tree<std::_Tmap_traits<unsigned long,CMailBox *,std::less<unsigned long>,std::allocator<std::pair<unsigned long const ,CMailBox *> >,0> >::const_iterator::_Dec
; Function compile flags: /Ogty
; File c:\program files\microsoft visual studio .net 2003\vc7\include\xtree
;	COMDAT ?_Dec@const_iterator@?$_Tree@V?$_Tmap_traits@KPAVCMailBox@@U?$less@K@std@@V?$allocator@U?$pair@$$CBKPAVCMailBox@@@std@@@3@$0A@@std@@@std@@QAEXXZ
_TEXT	SEGMENT
?_Dec@const_iterator@?$_Tree@V?$_Tmap_traits@KPAVCMailBox@@U?$less@K@std@@V?$allocator@U?$pair@$$CBKPAVCMailBox@@@std@@@3@$0A@@std@@@std@@QAEXXZ PROC NEAR ; std::_Tree<std::_Tmap_traits<unsigned long,CMailBox *,std::less<unsigned long>,std::allocator<std::pair<unsigned long const ,CMailBox *> >,0> >::const_iterator::_Dec, COMDAT
; _this$ = ecx

; 251  : 			if (_Isnil(_Ptr))

  00000	8b 01		 mov	 eax, DWORD PTR [ecx]
  00002	8a 50 15	 mov	 dl, BYTE PTR [eax+21]
  00005	84 d2		 test	 dl, dl
  00007	74 06		 je	 SHORT $L201328

; 252  : 				_Ptr = _Right(_Ptr);	// end() ==> rightmost

  00009	8b 40 08	 mov	 eax, DWORD PTR [eax+8]
  0000c	89 01		 mov	 DWORD PTR [ecx], eax

; 263  : 				}
; 264  : 			}

  0000e	c3		 ret	 0
$L201328:

; 253  : 			else if (!_Isnil(_Left(_Ptr)))

  0000f	8b 10		 mov	 edx, DWORD PTR [eax]
  00011	53		 push	 ebx
  00012	8a 5a 15	 mov	 bl, BYTE PTR [edx+21]
  00015	84 db		 test	 bl, bl
  00017	75 1a		 jne	 SHORT $L204070

; 254  : 				_Ptr = _Max(_Left(_Ptr));	// ==> largest of left subtree

  00019	8b 42 08	 mov	 eax, DWORD PTR [edx+8]
  0001c	8a 58 15	 mov	 bl, BYTE PTR [eax+21]
  0001f	84 db		 test	 bl, bl
  00021	75 0c		 jne	 SHORT $L204055
$L204054:
  00023	8b d0		 mov	 edx, eax
  00025	8b 42 08	 mov	 eax, DWORD PTR [edx+8]
  00028	8a 58 15	 mov	 bl, BYTE PTR [eax+21]
  0002b	84 db		 test	 bl, bl
  0002d	74 f4		 je	 SHORT $L204054
$L204055:
  0002f	89 11		 mov	 DWORD PTR [ecx], edx
  00031	5b		 pop	 ebx

; 263  : 				}
; 264  : 			}

  00032	c3		 ret	 0
$L204070:

; 255  : 			else
; 256  : 				{	// climb looking for left subtree
; 257  : 				_Nodeptr _Pnode;
; 258  : 				while (!_Isnil(_Pnode = _Parent(_Ptr))
; 259  : 					&& _Ptr == _Left(_Pnode))

  00033	8b 40 04	 mov	 eax, DWORD PTR [eax+4]
  00036	8a 50 15	 mov	 dl, BYTE PTR [eax+21]
  00039	84 d2		 test	 dl, dl
  0003b	75 1e		 jne	 SHORT $L204073
  0003d	8d 49 00	 npad	 3
$L201334:
  00040	8b 11		 mov	 edx, DWORD PTR [ecx]
  00042	3b 10		 cmp	 edx, DWORD PTR [eax]
  00044	75 0c		 jne	 SHORT $L201335

; 260  : 					_Ptr = _Pnode;	// ==> parent while left subtree

  00046	89 01		 mov	 DWORD PTR [ecx], eax
  00048	8b 40 04	 mov	 eax, DWORD PTR [eax+4]
  0004b	8a 50 15	 mov	 dl, BYTE PTR [eax+21]
  0004e	84 d2		 test	 dl, dl
  00050	74 ee		 je	 SHORT $L201334
$L201335:

; 261  : 				if (!_Isnil(_Pnode))

  00052	8a 50 15	 mov	 dl, BYTE PTR [eax+21]
  00055	84 d2		 test	 dl, dl
  00057	75 02		 jne	 SHORT $L204073

; 262  : 					_Ptr = _Pnode;	// ==> parent if not head

  00059	89 01		 mov	 DWORD PTR [ecx], eax
$L204073:
  0005b	5b		 pop	 ebx

; 263  : 				}
; 264  : 			}

  0005c	c3		 ret	 0
?_Dec@const_iterator@?$_Tree@V?$_Tmap_traits@KPAVCMailBox@@U?$less@K@std@@V?$allocator@U?$pair@$$CBKPAVCMailBox@@@std@@@3@$0A@@std@@@std@@QAEXXZ ENDP ; std::_Tree<std::_Tmap_traits<unsigned long,CMailBox *,std::less<unsigned long>,std::allocator<std::pair<unsigned long const ,CMailBox *> >,0> >::const_iterator::_Dec
_TEXT	ENDS
PUBLIC	??0?$_List_nod@PAVCMail@@V?$allocator@PAVCMail@@@std@@@std@@IAE@V?$allocator@PAVCMail@@@1@@Z ; std::_List_nod<CMail *,std::allocator<CMail *> >::_List_nod<CMail *,std::allocator<CMail *> >
; Function compile flags: /Ogty
; File c:\program files\microsoft visual studio .net 2003\vc7\include\list
;	COMDAT ??0?$_List_nod@PAVCMail@@V?$allocator@PAVCMail@@@std@@@std@@IAE@V?$allocator@PAVCMail@@@1@@Z
_TEXT	SEGMENT
__Al$ = 8						; size = 1
??0?$_List_nod@PAVCMail@@V?$allocator@PAVCMail@@@std@@@std@@IAE@V?$allocator@PAVCMail@@@1@@Z PROC NEAR ; std::_List_nod<CMail *,std::allocator<CMail *> >::_List_nod<CMail *,std::allocator<CMail *> >, COMDAT
; _this$ = ecx

; 44   : 		{	// construct allocator from _Al

  00000	8b c1		 mov	 eax, ecx

; 45   : 		}

  00002	c2 04 00	 ret	 4
??0?$_List_nod@PAVCMail@@V?$allocator@PAVCMail@@@std@@@std@@IAE@V?$allocator@PAVCMail@@@1@@Z ENDP ; std::_List_nod<CMail *,std::allocator<CMail *> >::_List_nod<CMail *,std::allocator<CMail *> >
_TEXT	ENDS
PUBLIC	??0?$_Tree_nod@V?$_Tmap_traits@KPAVCMail@@U?$less@K@std@@V?$allocator@U?$pair@$$CBKPAVCMail@@@std@@@3@$0A@@std@@@std@@IAE@ABU?$less@K@1@V?$allocator@U?$pair@$$CBKPAVCMail@@@std@@@1@@Z ; std::_Tree_nod<std::_Tmap_traits<unsigned long,CMail *,std::less<unsigned long>,std::allocator<std::pair<unsigned long const ,CMail *> >,0> >::_Tree_nod<std::_Tmap_traits<unsigned long,CMail *,std::less<unsigned long>,std::allocator<std::pair<unsigned long const ,CMail *> >,0> >
; Function compile flags: /Ogty
; File c:\program files\microsoft visual studio .net 2003\vc7\include\xtree
;	COMDAT ??0?$_Tree_nod@V?$_Tmap_traits@KPAVCMail@@U?$less@K@std@@V?$allocator@U?$pair@$$CBKPAVCMail@@@std@@@3@$0A@@std@@@std@@IAE@ABU?$less@K@1@V?$allocator@U?$pair@$$CBKPAVCMail@@@std@@@1@@Z
_TEXT	SEGMENT
__Parg$ = 8						; size = 4
__Al$ = 12						; size = 1
??0?$_Tree_nod@V?$_Tmap_traits@KPAVCMail@@U?$less@K@std@@V?$allocator@U?$pair@$$CBKPAVCMail@@@std@@@3@$0A@@std@@@std@@IAE@ABU?$less@K@1@V?$allocator@U?$pair@$$CBKPAVCMail@@@std@@@1@@Z PROC NEAR ; std::_Tree_nod<std::_Tmap_traits<unsigned long,CMail *,std::less<unsigned long>,std::allocator<std::pair<unsigned long const ,CMail *> >,0> >::_Tree_nod<std::_Tmap_traits<unsigned long,CMail *,std::less<unsigned long>,std::allocator<std::pair<unsigned long const ,CMail *> >,0> >, COMDAT
; _this$ = ecx

; 54   : 		{	// construct traits from _Parg and allocator from _Al

  00000	8b c1		 mov	 eax, ecx

; 55   : 		}

  00002	c2 08 00	 ret	 8
??0?$_Tree_nod@V?$_Tmap_traits@KPAVCMail@@U?$less@K@std@@V?$allocator@U?$pair@$$CBKPAVCMail@@@std@@@3@$0A@@std@@@std@@IAE@ABU?$less@K@1@V?$allocator@U?$pair@$$CBKPAVCMail@@@std@@@1@@Z ENDP ; std::_Tree_nod<std::_Tmap_traits<unsigned long,CMail *,std::less<unsigned long>,std::allocator<std::pair<unsigned long const ,CMail *> >,0> >::_Tree_nod<std::_Tmap_traits<unsigned long,CMail *,std::less<unsigned long>,std::allocator<std::pair<unsigned long const ,CMail *> >,0> >
_TEXT	ENDS
PUBLIC	?construct@?$allocator@PAU_Node@?$_Tree_nod@V?$_Tmap_traits@KPAVCMail@@U?$less@K@std@@V?$allocator@U?$pair@$$CBKPAVCMail@@@std@@@3@$0A@@std@@@std@@@std@@QAEXPAPAU_Node@?$_Tree_nod@V?$_Tmap_traits@KPAVCMail@@U?$less@K@std@@V?$allocator@U?$pair@$$CBKPAVCMail@@@std@@@3@$0A@@std@@@2@ABQAU342@@Z ; std::allocator<std::_Tree_nod<std::_Tmap_traits<unsigned long,CMail *,std::less<unsigned long>,std::allocator<std::pair<unsigned long const ,CMail *> >,0> >::_Node *>::construct
; Function compile flags: /Ogty
; File c:\program files\microsoft visual studio .net 2003\vc7\include\xmemory
;	COMDAT ?construct@?$allocator@PAU_Node@?$_Tree_nod@V?$_Tmap_traits@KPAVCMail@@U?$less@K@std@@V?$allocator@U?$pair@$$CBKPAVCMail@@@std@@@3@$0A@@std@@@std@@@std@@QAEXPAPAU_Node@?$_Tree_nod@V?$_Tmap_traits@KPAVCMail@@U?$less@K@std@@V?$allocator@U?$pair@$$CBKPAVCMail@@@std@@@3@$0A@@std@@@2@ABQAU342@@Z
_TEXT	SEGMENT
__Ptr$ = 8						; size = 4
__Val$ = 12						; size = 4
?construct@?$allocator@PAU_Node@?$_Tree_nod@V?$_Tmap_traits@KPAVCMail@@U?$less@K@std@@V?$allocator@U?$pair@$$CBKPAVCMail@@@std@@@3@$0A@@std@@@std@@@std@@QAEXPAPAU_Node@?$_Tree_nod@V?$_Tmap_traits@KPAVCMail@@U?$less@K@std@@V?$allocator@U?$pair@$$CBKPAVCMail@@@std@@@3@$0A@@std@@@2@ABQAU342@@Z PROC NEAR ; std::allocator<std::_Tree_nod<std::_Tmap_traits<unsigned long,CMail *,std::less<unsigned long>,std::allocator<std::pair<unsigned long const ,CMail *> >,0> >::_Node *>::construct, COMDAT
; _this$ = ecx

; 147  : 		_Construct(_Ptr, _Val);

  00000	8b 44 24 04	 mov	 eax, DWORD PTR __Ptr$[esp-4]
  00004	85 c0		 test	 eax, eax
  00006	74 08		 je	 SHORT $L204100
  00008	8b 4c 24 08	 mov	 ecx, DWORD PTR __Val$[esp-4]
  0000c	8b 11		 mov	 edx, DWORD PTR [ecx]
  0000e	89 10		 mov	 DWORD PTR [eax], edx
$L204100:

; 148  : 		}

  00010	c2 08 00	 ret	 8
?construct@?$allocator@PAU_Node@?$_Tree_nod@V?$_Tmap_traits@KPAVCMail@@U?$less@K@std@@V?$allocator@U?$pair@$$CBKPAVCMail@@@std@@@3@$0A@@std@@@std@@@std@@QAEXPAPAU_Node@?$_Tree_nod@V?$_Tmap_traits@KPAVCMail@@U?$less@K@std@@V?$allocator@U?$pair@$$CBKPAVCMail@@@std@@@3@$0A@@std@@@2@ABQAU342@@Z ENDP ; std::allocator<std::_Tree_nod<std::_Tmap_traits<unsigned long,CMail *,std::less<unsigned long>,std::allocator<std::pair<unsigned long const ,CMail *> >,0> >::_Node *>::construct
_TEXT	ENDS
PUBLIC	??0?$_Tree_nod@V?$_Tmap_traits@KPAVCMailBox@@U?$less@K@std@@V?$allocator@U?$pair@$$CBKPAVCMailBox@@@std@@@3@$0A@@std@@@std@@IAE@ABU?$less@K@1@V?$allocator@U?$pair@$$CBKPAVCMailBox@@@std@@@1@@Z ; std::_Tree_nod<std::_Tmap_traits<unsigned long,CMailBox *,std::less<unsigned long>,std::allocator<std::pair<unsigned long const ,CMailBox *> >,0> >::_Tree_nod<std::_Tmap_traits<unsigned long,CMailBox *,std::less<unsigned long>,std::allocator<std::pair<unsigned long const ,CMailBox *> >,0> >
; Function compile flags: /Ogty
; File c:\program files\microsoft visual studio .net 2003\vc7\include\xtree
;	COMDAT ??0?$_Tree_nod@V?$_Tmap_traits@KPAVCMailBox@@U?$less@K@std@@V?$allocator@U?$pair@$$CBKPAVCMailBox@@@std@@@3@$0A@@std@@@std@@IAE@ABU?$less@K@1@V?$allocator@U?$pair@$$CBKPAVCMailBox@@@std@@@1@@Z
_TEXT	SEGMENT
__Parg$ = 8						; size = 4
__Al$ = 12						; size = 1
??0?$_Tree_nod@V?$_Tmap_traits@KPAVCMailBox@@U?$less@K@std@@V?$allocator@U?$pair@$$CBKPAVCMailBox@@@std@@@3@$0A@@std@@@std@@IAE@ABU?$less@K@1@V?$allocator@U?$pair@$$CBKPAVCMailBox@@@std@@@1@@Z PROC NEAR ; std::_Tree_nod<std::_Tmap_traits<unsigned long,CMailBox *,std::less<unsigned long>,std::allocator<std::pair<unsigned long const ,CMailBox *> >,0> >::_Tree_nod<std::_Tmap_traits<unsigned long,CMailBox *,std::less<unsigned long>,std::allocator<std::pair<unsigned long const ,CMailBox *> >,0> >, COMDAT
; _this$ = ecx

; 54   : 		{	// construct traits from _Parg and allocator from _Al

  00000	8b c1		 mov	 eax, ecx

; 55   : 		}

  00002	c2 08 00	 ret	 8
??0?$_Tree_nod@V?$_Tmap_traits@KPAVCMailBox@@U?$less@K@std@@V?$allocator@U?$pair@$$CBKPAVCMailBox@@@std@@@3@$0A@@std@@@std@@IAE@ABU?$less@K@1@V?$allocator@U?$pair@$$CBKPAVCMailBox@@@std@@@1@@Z ENDP ; std::_Tree_nod<std::_Tmap_traits<unsigned long,CMailBox *,std::less<unsigned long>,std::allocator<std::pair<unsigned long const ,CMailBox *> >,0> >::_Tree_nod<std::_Tmap_traits<unsigned long,CMailBox *,std::less<unsigned long>,std::allocator<std::pair<unsigned long const ,CMailBox *> >,0> >
_TEXT	ENDS
PUBLIC	?construct@?$allocator@PAU_Node@?$_Tree_nod@V?$_Tmap_traits@KPAVCMailBox@@U?$less@K@std@@V?$allocator@U?$pair@$$CBKPAVCMailBox@@@std@@@3@$0A@@std@@@std@@@std@@QAEXPAPAU_Node@?$_Tree_nod@V?$_Tmap_traits@KPAVCMailBox@@U?$less@K@std@@V?$allocator@U?$pair@$$CBKPAVCMailBox@@@std@@@3@$0A@@std@@@2@ABQAU342@@Z ; std::allocator<std::_Tree_nod<std::_Tmap_traits<unsigned long,CMailBox *,std::less<unsigned long>,std::allocator<std::pair<unsigned long const ,CMailBox *> >,0> >::_Node *>::construct
; Function compile flags: /Ogty
; File c:\program files\microsoft visual studio .net 2003\vc7\include\xmemory
;	COMDAT ?construct@?$allocator@PAU_Node@?$_Tree_nod@V?$_Tmap_traits@KPAVCMailBox@@U?$less@K@std@@V?$allocator@U?$pair@$$CBKPAVCMailBox@@@std@@@3@$0A@@std@@@std@@@std@@QAEXPAPAU_Node@?$_Tree_nod@V?$_Tmap_traits@KPAVCMailBox@@U?$less@K@std@@V?$allocator@U?$pair@$$CBKPAVCMailBox@@@std@@@3@$0A@@std@@@2@ABQAU342@@Z
_TEXT	SEGMENT
__Ptr$ = 8						; size = 4
__Val$ = 12						; size = 4
?construct@?$allocator@PAU_Node@?$_Tree_nod@V?$_Tmap_traits@KPAVCMailBox@@U?$less@K@std@@V?$allocator@U?$pair@$$CBKPAVCMailBox@@@std@@@3@$0A@@std@@@std@@@std@@QAEXPAPAU_Node@?$_Tree_nod@V?$_Tmap_traits@KPAVCMailBox@@U?$less@K@std@@V?$allocator@U?$pair@$$CBKPAVCMailBox@@@std@@@3@$0A@@std@@@2@ABQAU342@@Z PROC NEAR ; std::allocator<std::_Tree_nod<std::_Tmap_traits<unsigned long,CMailBox *,std::less<unsigned long>,std::allocator<std::pair<unsigned long const ,CMailBox *> >,0> >::_Node *>::construct, COMDAT
; _this$ = ecx

; 147  : 		_Construct(_Ptr, _Val);

  00000	8b 44 24 04	 mov	 eax, DWORD PTR __Ptr$[esp-4]
  00004	85 c0		 test	 eax, eax
  00006	74 08		 je	 SHORT $L204124
  00008	8b 4c 24 08	 mov	 ecx, DWORD PTR __Val$[esp-4]
  0000c	8b 11		 mov	 edx, DWORD PTR [ecx]
  0000e	89 10		 mov	 DWORD PTR [eax], edx
$L204124:

; 148  : 		}

  00010	c2 08 00	 ret	 8
?construct@?$allocator@PAU_Node@?$_Tree_nod@V?$_Tmap_traits@KPAVCMailBox@@U?$less@K@std@@V?$allocator@U?$pair@$$CBKPAVCMailBox@@@std@@@3@$0A@@std@@@std@@@std@@QAEXPAPAU_Node@?$_Tree_nod@V?$_Tmap_traits@KPAVCMailBox@@U?$less@K@std@@V?$allocator@U?$pair@$$CBKPAVCMailBox@@@std@@@3@$0A@@std@@@2@ABQAU342@@Z ENDP ; std::allocator<std::_Tree_nod<std::_Tmap_traits<unsigned long,CMailBox *,std::less<unsigned long>,std::allocator<std::pair<unsigned long const ,CMailBox *> >,0> >::_Node *>::construct
_TEXT	ENDS
PUBLIC	??$copy@PAPAVCMail@@PAPAV1@@std@@YAPAPAVCMail@@PAPAV1@00@Z ; std::copy<CMail * *,CMail * *>
; Function compile flags: /Ogty
; File c:\program files\microsoft visual studio .net 2003\vc7\include\xutility
;	COMDAT ??$copy@PAPAVCMail@@PAPAV1@@std@@YAPAPAVCMail@@PAPAV1@00@Z
_TEXT	SEGMENT
__First$ = 8						; size = 4
__Last$ = 12						; size = 4
__Dest$ = 16						; size = 4
??$copy@PAPAVCMail@@PAPAV1@@std@@YAPAPAVCMail@@PAPAV1@00@Z PROC NEAR ; std::copy<CMail * *,CMail * *>, COMDAT

; 1040 : 	return (_Copy_opt(_First, _Last, _Dest, _Ptr_cat(_First, _Dest)));

  00000	8b 4c 24 04	 mov	 ecx, DWORD PTR __First$[esp-4]
  00004	8b 44 24 08	 mov	 eax, DWORD PTR __Last$[esp-4]
  00008	2b c1		 sub	 eax, ecx
  0000a	56		 push	 esi
  0000b	c1 f8 02	 sar	 eax, 2
  0000e	8d 34 85 00 00
	00 00		 lea	 esi, DWORD PTR [eax*4]
  00015	8b 44 24 10	 mov	 eax, DWORD PTR __Dest$[esp]
  00019	56		 push	 esi
  0001a	51		 push	 ecx
  0001b	50		 push	 eax
  0001c	e8 00 00 00 00	 call	 _memmove
  00021	83 c4 0c	 add	 esp, 12			; 0000000cH
  00024	03 c6		 add	 eax, esi
  00026	5e		 pop	 esi

; 1041 : 	}

  00027	c3		 ret	 0
??$copy@PAPAVCMail@@PAPAV1@@std@@YAPAPAVCMail@@PAPAV1@00@Z ENDP ; std::copy<CMail * *,CMail * *>
_TEXT	ENDS
PUBLIC	??$_Destroy_range@PAVCMail@@V?$allocator@PAVCMail@@@std@@@std@@YAXPAPAVCMail@@0AAV?$allocator@PAVCMail@@@0@@Z ; std::_Destroy_range<CMail *,std::allocator<CMail *> >
; Function compile flags: /Ogty
; File c:\program files\microsoft visual studio .net 2003\vc7\include\xmemory
;	COMDAT ??$_Destroy_range@PAVCMail@@V?$allocator@PAVCMail@@@std@@@std@@YAXPAPAVCMail@@0AAV?$allocator@PAVCMail@@@0@@Z
_TEXT	SEGMENT
__First$ = 8						; size = 4
__Last$ = 12						; size = 4
__Al$ = 16						; size = 4
??$_Destroy_range@PAVCMail@@V?$allocator@PAVCMail@@@std@@@std@@YAXPAPAVCMail@@0AAV?$allocator@PAVCMail@@@0@@Z PROC NEAR ; std::_Destroy_range<CMail *,std::allocator<CMail *> >, COMDAT

; 217  : 	_Destroy_range(_First, _Last, _Al, _Ptr_cat(_First, _Last));
; 218  : 	}

  00000	c3		 ret	 0
??$_Destroy_range@PAVCMail@@V?$allocator@PAVCMail@@@std@@@std@@YAXPAPAVCMail@@0AAV?$allocator@PAVCMail@@@0@@Z ENDP ; std::_Destroy_range<CMail *,std::allocator<CMail *> >
_TEXT	ENDS
PUBLIC	??$copy_backward@PAPAVCMail@@PAPAV1@@std@@YAPAPAVCMail@@PAPAV1@00@Z ; std::copy_backward<CMail * *,CMail * *>
; Function compile flags: /Ogty
; File c:\program files\microsoft visual studio .net 2003\vc7\include\xutility
;	COMDAT ??$copy_backward@PAPAVCMail@@PAPAV1@@std@@YAPAPAVCMail@@PAPAV1@00@Z
_TEXT	SEGMENT
__First$ = 8						; size = 4
__Last$ = 12						; size = 4
__Dest$ = 16						; size = 4
??$copy_backward@PAPAVCMail@@PAPAV1@@std@@YAPAPAVCMail@@PAPAV1@00@Z PROC NEAR ; std::copy_backward<CMail * *,CMail * *>, COMDAT

; 1068 : 	return (_Copy_backward_opt(_First, _Last, _Dest,
; 1069 : 		_Ptr_cat(_First, _Dest)));

  00000	8b 4c 24 04	 mov	 ecx, DWORD PTR __First$[esp-4]
  00004	8b 44 24 08	 mov	 eax, DWORD PTR __Last$[esp-4]
  00008	2b c1		 sub	 eax, ecx
  0000a	c1 f8 02	 sar	 eax, 2
  0000d	c1 e0 02	 shl	 eax, 2
  00010	50		 push	 eax
  00011	51		 push	 ecx
  00012	8b 4c 24 14	 mov	 ecx, DWORD PTR __Dest$[esp+4]
  00016	2b c8		 sub	 ecx, eax
  00018	51		 push	 ecx
  00019	e8 00 00 00 00	 call	 _memmove
  0001e	83 c4 0c	 add	 esp, 12			; 0000000cH

; 1070 : 	}

  00021	c3		 ret	 0
??$copy_backward@PAPAVCMail@@PAPAV1@@std@@YAPAPAVCMail@@PAPAV1@00@Z ENDP ; std::copy_backward<CMail * *,CMail * *>
_TEXT	ENDS
PUBLIC	??$_Uninit_fill_n@PAVCMail@@IPAV1@@std@@YAXPAPAVCMail@@IABQAV1@AAV?$allocator@PAVCMail@@@0@U_Scalar_ptr_iterator_tag@0@@Z ; std::_Uninit_fill_n<CMail *,unsigned int,CMail *>
; Function compile flags: /Ogty
; File c:\program files\microsoft visual studio .net 2003\vc7\include\memory
;	COMDAT ??$_Uninit_fill_n@PAVCMail@@IPAV1@@std@@YAXPAPAVCMail@@IABQAV1@AAV?$allocator@PAVCMail@@@0@U_Scalar_ptr_iterator_tag@0@@Z
_TEXT	SEGMENT
__First$ = 8						; size = 4
__Count$ = 12						; size = 4
__Val$ = 16						; size = 4
___formal$ = 20						; size = 4
___formal$ = 24						; size = 1
??$_Uninit_fill_n@PAVCMail@@IPAV1@@std@@YAXPAPAVCMail@@IABQAV1@AAV?$allocator@PAVCMail@@@0@U_Scalar_ptr_iterator_tag@0@@Z PROC NEAR ; std::_Uninit_fill_n<CMail *,unsigned int,CMail *>, COMDAT

; 237  : 	fill_n(_First, _Count, _Val);

  00000	8b 4c 24 08	 mov	 ecx, DWORD PTR __Count$[esp-4]
  00004	85 c9		 test	 ecx, ecx
  00006	8b 44 24 04	 mov	 eax, DWORD PTR __First$[esp-4]
  0000a	76 10		 jbe	 SHORT $L204166
  0000c	8b 54 24 0c	 mov	 edx, DWORD PTR __Val$[esp-4]
  00010	56		 push	 esi
$L204164:
  00011	8b 32		 mov	 esi, DWORD PTR [edx]
  00013	89 30		 mov	 DWORD PTR [eax], esi
  00015	83 c0 04	 add	 eax, 4
  00018	49		 dec	 ecx
  00019	75 f6		 jne	 SHORT $L204164
  0001b	5e		 pop	 esi
$L204166:

; 238  : 	}

  0001c	c3		 ret	 0
??$_Uninit_fill_n@PAVCMail@@IPAV1@@std@@YAXPAPAVCMail@@IABQAV1@AAV?$allocator@PAVCMail@@@0@U_Scalar_ptr_iterator_tag@0@@Z ENDP ; std::_Uninit_fill_n<CMail *,unsigned int,CMail *>
_TEXT	ENDS
PUBLIC	??$_Uninitialized_copy@PAPAVCMail@@PAPAV1@V?$allocator@PAVCMail@@@std@@@std@@YAPAPAVCMail@@PAPAV1@00AAV?$allocator@PAVCMail@@@0@@Z ; std::_Uninitialized_copy<CMail * *,CMail * *,std::allocator<CMail *> >
; Function compile flags: /Ogty
;	COMDAT ??$_Uninitialized_copy@PAPAVCMail@@PAPAV1@V?$allocator@PAVCMail@@@std@@@std@@YAPAPAVCMail@@PAPAV1@00AAV?$allocator@PAVCMail@@@0@@Z
_TEXT	SEGMENT
__First$ = 8						; size = 4
__Last$ = 12						; size = 4
__Dest$ = 16						; size = 4
__Al$ = 20						; size = 4
??$_Uninitialized_copy@PAPAVCMail@@PAPAV1@V?$allocator@PAVCMail@@@std@@@std@@YAPAPAVCMail@@PAPAV1@00AAV?$allocator@PAVCMail@@@0@@Z PROC NEAR ; std::_Uninitialized_copy<CMail * *,CMail * *,std::allocator<CMail *> >, COMDAT

; 127  : 	return (_Uninit_copy(_First, _Last, _Dest, _Al,
; 128  : 		_Ptr_cat(_First, _Dest)));

  00000	8b 4c 24 04	 mov	 ecx, DWORD PTR __First$[esp-4]
  00004	8b 44 24 08	 mov	 eax, DWORD PTR __Last$[esp-4]
  00008	2b c1		 sub	 eax, ecx
  0000a	56		 push	 esi
  0000b	c1 f8 02	 sar	 eax, 2
  0000e	8d 34 85 00 00
	00 00		 lea	 esi, DWORD PTR [eax*4]
  00015	8b 44 24 10	 mov	 eax, DWORD PTR __Dest$[esp]
  00019	56		 push	 esi
  0001a	51		 push	 ecx
  0001b	50		 push	 eax
  0001c	e8 00 00 00 00	 call	 _memmove
  00021	83 c4 0c	 add	 esp, 12			; 0000000cH
  00024	03 c6		 add	 eax, esi
  00026	5e		 pop	 esi

; 129  : 	}

  00027	c3		 ret	 0
??$_Uninitialized_copy@PAPAVCMail@@PAPAV1@V?$allocator@PAVCMail@@@std@@@std@@YAPAPAVCMail@@PAPAV1@00AAV?$allocator@PAVCMail@@@0@@Z ENDP ; std::_Uninitialized_copy<CMail * *,CMail * *,std::allocator<CMail *> >
_TEXT	ENDS
PUBLIC	??GCOleDateTimeSpan@ATL@@QBE?AV01@ABV01@@Z	; ATL::COleDateTimeSpan::operator-
; Function compile flags: /Ogty
; File c:\program files\microsoft visual studio .net 2003\vc7\atlmfc\include\atlcomtime.inl
;	COMDAT ??GCOleDateTimeSpan@ATL@@QBE?AV01@ABV01@@Z
_TEXT	SEGMENT
_dateSpanTemp$ = -12					; size = 12
___$ReturnUdt$ = 8					; size = 4
_dateSpan$ = 12						; size = 4
??GCOleDateTimeSpan@ATL@@QBE?AV01@ABV01@@Z PROC NEAR	; ATL::COleDateTimeSpan::operator-, COMDAT
; _this$ = ecx

; 192  : {

  00000	83 ec 0c	 sub	 esp, 12			; 0000000cH

; 193  : 	COleDateTimeSpan dateSpanTemp;
; 194  : 
; 195  : 	// If either operand Null, result Null
; 196  : 	if (GetStatus() == null || dateSpan.GetStatus() == null)

  00003	8b 51 08	 mov	 edx, DWORD PTR [ecx+8]
  00006	dd 05 00 00 00
	00		 fld	 QWORD PTR __real@0000000000000000
  0000c	83 fa 02	 cmp	 edx, 2
  0000f	dd 1c 24	 fstp	 QWORD PTR _dateSpanTemp$[esp+12]
  00012	56		 push	 esi
  00013	c7 44 24 0c 00
	00 00 00	 mov	 DWORD PTR _dateSpanTemp$[esp+24], 0
  0001b	74 4f		 je	 SHORT $L108608
  0001d	8b 74 24 18	 mov	 esi, DWORD PTR _dateSpan$[esp+12]
  00021	8b 46 08	 mov	 eax, DWORD PTR [esi+8]
  00024	83 f8 02	 cmp	 eax, 2
  00027	74 43		 je	 SHORT $L108608

; 200  : 	}
; 201  : 
; 202  : 	// If either operand Invalid, result Invalid
; 203  : 	if (GetStatus() == invalid || dateSpan.GetStatus() == invalid)

  00029	83 fa 01	 cmp	 edx, 1
  0002c	74 37		 je	 SHORT $L108610
  0002e	83 f8 01	 cmp	 eax, 1
  00031	74 32		 je	 SHORT $L108610

; 207  : 	}
; 208  : 
; 209  : 	// Subtract spans and validate within legal range
; 210  : 	dateSpanTemp.m_span = m_span - dateSpan.m_span;

  00033	dd 01		 fld	 QWORD PTR [ecx]

; 211  : 	dateSpanTemp.CheckRange();

  00035	8d 4c 24 04	 lea	 ecx, DWORD PTR _dateSpanTemp$[esp+16]
  00039	dc 26		 fsub	 QWORD PTR [esi]
  0003b	dd 5c 24 04	 fstp	 QWORD PTR _dateSpanTemp$[esp+16]
  0003f	e8 00 00 00 00	 call	 ?CheckRange@COleDateTimeSpan@ATL@@QAEXXZ ; ATL::COleDateTimeSpan::CheckRange

; 212  : 
; 213  : 	return dateSpanTemp;

  00044	8b 44 24 14	 mov	 eax, DWORD PTR ___$ReturnUdt$[esp+12]
  00048	8b 54 24 04	 mov	 edx, DWORD PTR _dateSpanTemp$[esp+16]
  0004c	8b c8		 mov	 ecx, eax
  0004e	89 11		 mov	 DWORD PTR [ecx], edx
  00050	8b 54 24 08	 mov	 edx, DWORD PTR _dateSpanTemp$[esp+20]
  00054	89 51 04	 mov	 DWORD PTR [ecx+4], edx
  00057	8b 54 24 0c	 mov	 edx, DWORD PTR _dateSpanTemp$[esp+24]
  0005b	89 51 08	 mov	 DWORD PTR [ecx+8], edx
  0005e	5e		 pop	 esi

; 214  : }

  0005f	83 c4 0c	 add	 esp, 12			; 0000000cH
  00062	c2 08 00	 ret	 8
$L108610:

; 204  : 	{
; 205  : 		dateSpanTemp.SetStatus(invalid);

  00065	b9 01 00 00 00	 mov	 ecx, 1

; 206  : 		return dateSpanTemp;

  0006a	eb 05		 jmp	 SHORT $L204210
$L108608:

; 197  : 	{
; 198  : 		dateSpanTemp.SetStatus(null);

  0006c	b9 02 00 00 00	 mov	 ecx, 2
$L204210:

; 199  : 		return dateSpanTemp;

  00071	8b 44 24 14	 mov	 eax, DWORD PTR ___$ReturnUdt$[esp+12]
  00075	8b 74 24 04	 mov	 esi, DWORD PTR _dateSpanTemp$[esp+16]
  00079	8b d0		 mov	 edx, eax
  0007b	89 32		 mov	 DWORD PTR [edx], esi
  0007d	8b 74 24 08	 mov	 esi, DWORD PTR _dateSpanTemp$[esp+20]
  00081	89 72 04	 mov	 DWORD PTR [edx+4], esi
  00084	89 4a 08	 mov	 DWORD PTR [edx+8], ecx
  00087	5e		 pop	 esi

; 214  : }

  00088	83 c4 0c	 add	 esp, 12			; 0000000cH
  0008b	c2 08 00	 ret	 8
??GCOleDateTimeSpan@ATL@@QBE?AV01@ABV01@@Z ENDP		; ATL::COleDateTimeSpan::operator-
_TEXT	ENDS
PUBLIC	?SetDateTimeSpan@COleDateTimeSpan@ATL@@QAEXJHHH@Z ; ATL::COleDateTimeSpan::SetDateTimeSpan
PUBLIC	__real@3ee845c8a0ce5129
PUBLIC	__real@3f46c16c16c16c17
PUBLIC	__real@3fa5555555555555
;	COMDAT __real@3ee845c8a0ce5129
CONST	SEGMENT
__real@3ee845c8a0ce5129 DQ 03ee845c8a0ce5129r	; 1.15741e-005
CONST	ENDS
;	COMDAT __real@3f46c16c16c16c17
CONST	SEGMENT
__real@3f46c16c16c16c17 DQ 03f46c16c16c16c17r	; 0.000694444
CONST	ENDS
;	COMDAT __real@3fa5555555555555
CONST	SEGMENT
__real@3fa5555555555555 DQ 03fa5555555555555r	; 0.0416667
; Function compile flags: /Ogty
CONST	ENDS
;	COMDAT ?SetDateTimeSpan@COleDateTimeSpan@ATL@@QAEXJHHH@Z
_TEXT	SEGMENT
_lDays$ = 8						; size = 4
_nHours$ = 12						; size = 4
_nMins$ = 16						; size = 4
_nSecs$ = 20						; size = 4
?SetDateTimeSpan@COleDateTimeSpan@ATL@@QAEXJHHH@Z PROC NEAR ; ATL::COleDateTimeSpan::SetDateTimeSpan, COMDAT
; _this$ = ecx

; 246  : 	// Set date span by breaking into fractional days (all input ranges valid)
; 247  : 	m_span = lDays + ((double)nHours)/24 + ((double)nMins)/(24*60) +
; 248  : 		((double)nSecs)/(24*60*60);

  00000	db 44 24 10	 fild	 DWORD PTR _nSecs$[esp-4]

; 249  : 	m_status = valid;

  00004	c7 41 08 00 00
	00 00		 mov	 DWORD PTR [ecx+8], 0
  0000b	dc 0d 00 00 00
	00		 fmul	 QWORD PTR __real@3ee845c8a0ce5129
  00011	db 44 24 0c	 fild	 DWORD PTR _nMins$[esp-4]
  00015	dc 0d 00 00 00
	00		 fmul	 QWORD PTR __real@3f46c16c16c16c17
  0001b	de c1		 faddp	 ST(1), ST(0)
  0001d	db 44 24 08	 fild	 DWORD PTR _nHours$[esp-4]
  00021	dc 0d 00 00 00
	00		 fmul	 QWORD PTR __real@3fa5555555555555
  00027	de c1		 faddp	 ST(1), ST(0)
  00029	da 44 24 04	 fiadd	 DWORD PTR _lDays$[esp-4]

; 250  : 	CheckRange();

  0002d	dc 15 00 00 00
	00		 fcom	 QWORD PTR __real@c14b964c80000000
  00033	dd 11		 fst	 QWORD PTR [ecx]
  00035	df e0		 fnstsw	 ax
  00037	f6 c4 05	 test	 ah, 5
  0003a	7b 17		 jnp	 SHORT $L204224
  0003c	dc 1d 00 00 00
	00		 fcomp	 QWORD PTR __real@414b964c80000000
  00042	df e0		 fnstsw	 ax
  00044	f6 c4 41	 test	 ah, 65			; 00000041H
  00047	75 13		 jne	 SHORT $L204215
  00049	c7 41 08 01 00
	00 00		 mov	 DWORD PTR [ecx+8], 1

; 251  : }

  00050	c2 10 00	 ret	 16			; 00000010H
$L204224:

; 250  : 	CheckRange();

  00053	dd d8		 fstp	 ST(0)
  00055	c7 41 08 01 00
	00 00		 mov	 DWORD PTR [ecx+8], 1
$L204215:

; 251  : }

  0005c	c2 10 00	 ret	 16			; 00000010H
?SetDateTimeSpan@COleDateTimeSpan@ATL@@QAEXJHHH@Z ENDP	; ATL::COleDateTimeSpan::SetDateTimeSpan
_TEXT	ENDS
PUBLIC	??6CAr@@QAEAAV0@H@Z				; CAr::operator<<
; Function compile flags: /Ogty
; File c:\documents and settings\test\mes documents\source\virtuos_v17\build\program\_network\misc\include\ar.h
;	COMDAT ??6CAr@@QAEAAV0@H@Z
_TEXT	SEGMENT
_i$ = 8							; size = 4
??6CAr@@QAEAAV0@H@Z PROC NEAR				; CAr::operator<<, COMDAT
; _this$ = ecx

; 99   : 	{ return CAr::operator<<((LONG)i); }

  00000	56		 push	 esi
  00001	6a 04		 push	 4
  00003	8b f1		 mov	 esi, ecx
  00005	e8 00 00 00 00	 call	 ?CheckBuf@CAr@@QAEXI@Z	; CAr::CheckBuf
  0000a	8b 46 08	 mov	 eax, DWORD PTR [esi+8]
  0000d	8b 4c 24 08	 mov	 ecx, DWORD PTR _i$[esp]
  00011	89 08		 mov	 DWORD PTR [eax], ecx
  00013	83 46 08 04	 add	 DWORD PTR [esi+8], 4
  00017	8b c6		 mov	 eax, esi
  00019	5e		 pop	 esi
  0001a	c2 04 00	 ret	 4
??6CAr@@QAEAAV0@H@Z ENDP				; CAr::operator<<
_TEXT	ENDS
PUBLIC	??6CAr@@QAEAAV0@I@Z				; CAr::operator<<
; Function compile flags: /Ogty
;	COMDAT ??6CAr@@QAEAAV0@I@Z
_TEXT	SEGMENT
_u$ = 8							; size = 4
??6CAr@@QAEAAV0@I@Z PROC NEAR				; CAr::operator<<, COMDAT
; _this$ = ecx

; 101  : 	{ return CAr::operator<<((LONG)u); }

  00000	56		 push	 esi
  00001	6a 04		 push	 4
  00003	8b f1		 mov	 esi, ecx
  00005	e8 00 00 00 00	 call	 ?CheckBuf@CAr@@QAEXI@Z	; CAr::CheckBuf
  0000a	8b 46 08	 mov	 eax, DWORD PTR [esi+8]
  0000d	8b 4c 24 08	 mov	 ecx, DWORD PTR _u$[esp]
  00011	89 08		 mov	 DWORD PTR [eax], ecx
  00013	83 46 08 04	 add	 DWORD PTR [esi+8], 4
  00017	8b c6		 mov	 eax, esi
  00019	5e		 pop	 esi
  0001a	c2 04 00	 ret	 4
??6CAr@@QAEAAV0@I@Z ENDP				; CAr::operator<<
_TEXT	ENDS
PUBLIC	??5CAr@@QAEAAV0@AAH@Z				; CAr::operator>>
; Function compile flags: /Ogty
;	COMDAT ??5CAr@@QAEAAV0@AAH@Z
_TEXT	SEGMENT
_i$ = 8							; size = 4
??5CAr@@QAEAAV0@AAH@Z PROC NEAR				; CAr::operator>>, COMDAT
; _this$ = ecx

; 126  : 	{ return CAr::operator>>((LONG&)i); }

  00000	8b c1		 mov	 eax, ecx
  00002	8b 48 08	 mov	 ecx, DWORD PTR [eax+8]
  00005	56		 push	 esi
  00006	8b 70 0c	 mov	 esi, DWORD PTR [eax+12]
  00009	8d 51 04	 lea	 edx, DWORD PTR [ecx+4]
  0000c	3b d6		 cmp	 edx, esi
  0000e	5e		 pop	 esi
  0000f	77 0f		 ja	 SHORT $L204239
  00011	8b 09		 mov	 ecx, DWORD PTR [ecx]
  00013	8b 54 24 04	 mov	 edx, DWORD PTR _i$[esp-4]
  00017	89 0a		 mov	 DWORD PTR [edx], ecx
  00019	83 40 08 04	 add	 DWORD PTR [eax+8], 4
  0001d	c2 04 00	 ret	 4
$L204239:
  00020	8b 4c 24 04	 mov	 ecx, DWORD PTR _i$[esp-4]
  00024	c7 01 00 00 00
	00		 mov	 DWORD PTR [ecx], 0
  0002a	8b 50 0c	 mov	 edx, DWORD PTR [eax+12]
  0002d	89 50 08	 mov	 DWORD PTR [eax+8], edx
  00030	c2 04 00	 ret	 4
??5CAr@@QAEAAV0@AAH@Z ENDP				; CAr::operator>>
_TEXT	ENDS
PUBLIC	??0?$_String_val@DV?$allocator@D@std@@@std@@IAE@V?$allocator@D@1@@Z ; std::_String_val<char,std::allocator<char> >::_String_val<char,std::allocator<char> >
; Function compile flags: /Ogty
; File c:\program files\microsoft visual studio .net 2003\vc7\include\xstring
;	COMDAT ??0?$_String_val@DV?$allocator@D@std@@@std@@IAE@V?$allocator@D@1@@Z
_TEXT	SEGMENT
__Al$ = 8						; size = 1
??0?$_String_val@DV?$allocator@D@std@@@std@@IAE@V?$allocator@D@1@@Z PROC NEAR ; std::_String_val<char,std::allocator<char> >::_String_val<char,std::allocator<char> >, COMDAT
; _this$ = ecx

; 34   : 		{	// construct allocator from _Al

  00000	8b c1		 mov	 eax, ecx

; 35   : 		}

  00002	c2 04 00	 ret	 4
??0?$_String_val@DV?$allocator@D@std@@@std@@IAE@V?$allocator@D@1@@Z ENDP ; std::_String_val<char,std::allocator<char> >::_String_val<char,std::allocator<char> >
_TEXT	ENDS
PUBLIC	?_Eos@?$basic_string@DU?$char_traits@D@std@@V?$allocator@D@2@@std@@IAEXI@Z ; std::basic_string<char,std::char_traits<char>,std::allocator<char> >::_Eos
; Function compile flags: /Ogty
;	COMDAT ?_Eos@?$basic_string@DU?$char_traits@D@std@@V?$allocator@D@2@@std@@IAEXI@Z
_TEXT	SEGMENT
__Newsize$ = 8						; size = 4
?_Eos@?$basic_string@DU?$char_traits@D@std@@V?$allocator@D@2@@std@@IAEXI@Z PROC NEAR ; std::basic_string<char,std::char_traits<char>,std::allocator<char> >::_Eos, COMDAT
; _this$ = ecx

; 1475 : 		_Traits::assign(_Myptr()[_Mysize = _Newsize], _Elem());

  00000	83 79 18 10	 cmp	 DWORD PTR [ecx+24], 16	; 00000010H
  00004	8b 44 24 04	 mov	 eax, DWORD PTR __Newsize$[esp-4]
  00008	89 41 14	 mov	 DWORD PTR [ecx+20], eax
  0000b	72 0a		 jb	 SHORT $L204254
  0000d	8b 49 04	 mov	 ecx, DWORD PTR [ecx+4]
  00010	c6 04 01 00	 mov	 BYTE PTR [ecx+eax], 0

; 1476 : 		}

  00014	c2 04 00	 ret	 4

; 1475 : 		_Traits::assign(_Myptr()[_Mysize = _Newsize], _Elem());

$L204254:
  00017	c6 44 01 04 00	 mov	 BYTE PTR [ecx+eax+4], 0

; 1476 : 		}

  0001c	c2 04 00	 ret	 4
?_Eos@?$basic_string@DU?$char_traits@D@std@@V?$allocator@D@2@@std@@IAEXI@Z ENDP ; std::basic_string<char,std::char_traits<char>,std::allocator<char> >::_Eos
_TEXT	ENDS
PUBLIC	?max_size@?$basic_string@DU?$char_traits@D@std@@V?$allocator@D@2@@std@@QBEIXZ ; std::basic_string<char,std::char_traits<char>,std::allocator<char> >::max_size
; Function compile flags: /Ogty
;	COMDAT ?max_size@?$basic_string@DU?$char_traits@D@std@@V?$allocator@D@2@@std@@QBEIXZ
_TEXT	SEGMENT
?max_size@?$basic_string@DU?$char_traits@D@std@@V?$allocator@D@2@@std@@QBEIXZ PROC NEAR ; std::basic_string<char,std::char_traits<char>,std::allocator<char> >::max_size, COMDAT
; _this$ = ecx

; 1114 : 		size_type _Num = _Mybase::_Alval.max_size();
; 1115 : 		return (_Num <= 1 ? 1 : _Num - 1);

  00000	b8 fe ff ff ff	 mov	 eax, -2			; fffffffeH

; 1116 : 		}

  00005	c3		 ret	 0
?max_size@?$basic_string@DU?$char_traits@D@std@@V?$allocator@D@2@@std@@QBEIXZ ENDP ; std::basic_string<char,std::char_traits<char>,std::allocator<char> >::max_size
_TEXT	ENDS
PUBLIC	?allocate@?$allocator@D@std@@QAEPADI@Z		; std::allocator<char>::allocate
; Function compile flags: /Ogty
; File c:\program files\microsoft visual studio .net 2003\vc7\include\xmemory
;	COMDAT ?allocate@?$allocator@D@std@@QAEPADI@Z
_TEXT	SEGMENT
__Count$ = 8						; size = 4
?allocate@?$allocator@D@std@@QAEPADI@Z PROC NEAR	; std::allocator<char>::allocate, COMDAT
; _this$ = ecx

; 137  : 		return (_Allocate(_Count, (pointer)0));

  00000	8b 44 24 04	 mov	 eax, DWORD PTR __Count$[esp-4]
  00004	50		 push	 eax
  00005	e8 00 00 00 00	 call	 ??2@YAPAXI@Z		; operator new
  0000a	83 c4 04	 add	 esp, 4

; 138  : 		}

  0000d	c2 04 00	 ret	 4
?allocate@?$allocator@D@std@@QAEPADI@Z ENDP		; std::allocator<char>::allocate
; Function compile flags: /Ogty
_TEXT	ENDS
;	COMDAT ??_GCMail@@UAEPAXI@Z
_TEXT	SEGMENT
___flags$ = 8						; size = 4
??_GCMail@@UAEPAXI@Z PROC NEAR				; CMail::`scalar deleting destructor', COMDAT
; _this$ = ecx
  00000	56		 push	 esi
  00001	8b f1		 mov	 esi, ecx
  00003	8b 4e 0c	 mov	 ecx, DWORD PTR [esi+12]
  00006	85 c9		 test	 ecx, ecx
  00008	c7 06 00 00 00
	00		 mov	 DWORD PTR [esi], OFFSET FLAT:??_7CMail@@6B@
  0000e	74 0d		 je	 SHORT $L204295
  00010	8b 01		 mov	 eax, DWORD PTR [ecx]
  00012	6a 01		 push	 1
  00014	ff 10		 call	 DWORD PTR [eax]
  00016	c7 46 0c 00 00
	00 00		 mov	 DWORD PTR [esi+12], 0
$L204295:
  0001d	f6 44 24 08 01	 test	 BYTE PTR ___flags$[esp], 1
  00022	74 09		 je	 SHORT $L204301
  00024	56		 push	 esi
  00025	e8 00 00 00 00	 call	 ??3@YAXPAX@Z		; operator delete
  0002a	83 c4 04	 add	 esp, 4
$L204301:
  0002d	8b c6		 mov	 eax, esi
  0002f	5e		 pop	 esi
  00030	c2 04 00	 ret	 4
??_GCMail@@UAEPAXI@Z ENDP				; CMail::`scalar deleting destructor'
_TEXT	ENDS
PUBLIC	?begin@?$vector@PAVCMail@@V?$allocator@PAVCMail@@@std@@@std@@QAE?AViterator@12@XZ ; std::vector<CMail *,std::allocator<CMail *> >::begin
; Function compile flags: /Ogty
; File c:\program files\microsoft visual studio .net 2003\vc7\include\vector
;	COMDAT ?begin@?$vector@PAVCMail@@V?$allocator@PAVCMail@@@std@@@std@@QAE?AViterator@12@XZ
_TEXT	SEGMENT
___$ReturnUdt$ = 8					; size = 4
?begin@?$vector@PAVCMail@@V?$allocator@PAVCMail@@@std@@@std@@QAE?AViterator@12@XZ PROC NEAR ; std::vector<CMail *,std::allocator<CMail *> >::begin, COMDAT
; _this$ = ecx

; 463  : 		return (iterator(_Myfirst));

  00000	8b 49 04	 mov	 ecx, DWORD PTR [ecx+4]
  00003	8b 44 24 04	 mov	 eax, DWORD PTR ___$ReturnUdt$[esp-4]
  00007	89 08		 mov	 DWORD PTR [eax], ecx

; 464  : 		}

  00009	c2 04 00	 ret	 4
?begin@?$vector@PAVCMail@@V?$allocator@PAVCMail@@@std@@@std@@QAE?AViterator@12@XZ ENDP ; std::vector<CMail *,std::allocator<CMail *> >::begin
_TEXT	ENDS
PUBLIC	?end@?$vector@PAVCMail@@V?$allocator@PAVCMail@@@std@@@std@@QAE?AViterator@12@XZ ; std::vector<CMail *,std::allocator<CMail *> >::end
; Function compile flags: /Ogty
;	COMDAT ?end@?$vector@PAVCMail@@V?$allocator@PAVCMail@@@std@@@std@@QAE?AViterator@12@XZ
_TEXT	SEGMENT
___$ReturnUdt$ = 8					; size = 4
?end@?$vector@PAVCMail@@V?$allocator@PAVCMail@@@std@@@std@@QAE?AViterator@12@XZ PROC NEAR ; std::vector<CMail *,std::allocator<CMail *> >::end, COMDAT
; _this$ = ecx

; 473  : 		return (iterator(_Mylast));

  00000	8b 49 08	 mov	 ecx, DWORD PTR [ecx+8]
  00003	8b 44 24 04	 mov	 eax, DWORD PTR ___$ReturnUdt$[esp-4]
  00007	89 08		 mov	 DWORD PTR [eax], ecx

; 474  : 		}

  00009	c2 04 00	 ret	 4
?end@?$vector@PAVCMail@@V?$allocator@PAVCMail@@@std@@@std@@QAE?AViterator@12@XZ ENDP ; std::vector<CMail *,std::allocator<CMail *> >::end
_TEXT	ENDS
PUBLIC	?begin@?$_Tree@V?$_Tmap_traits@KPAVCMail@@U?$less@K@std@@V?$allocator@U?$pair@$$CBKPAVCMail@@@std@@@3@$0A@@std@@@std@@QAE?AViterator@12@XZ ; std::_Tree<std::_Tmap_traits<unsigned long,CMail *,std::less<unsigned long>,std::allocator<std::pair<unsigned long const ,CMail *> >,0> >::begin
; Function compile flags: /Ogty
; File c:\program files\microsoft visual studio .net 2003\vc7\include\xtree
;	COMDAT ?begin@?$_Tree@V?$_Tmap_traits@KPAVCMail@@U?$less@K@std@@V?$allocator@U?$pair@$$CBKPAVCMail@@@std@@@3@$0A@@std@@@std@@QAE?AViterator@12@XZ
_TEXT	SEGMENT
___$ReturnUdt$ = 8					; size = 4
?begin@?$_Tree@V?$_Tmap_traits@KPAVCMail@@U?$less@K@std@@V?$allocator@U?$pair@$$CBKPAVCMail@@@std@@@3@$0A@@std@@@std@@QAE?AViterator@12@XZ PROC NEAR ; std::_Tree<std::_Tmap_traits<unsigned long,CMail *,std::less<unsigned long>,std::allocator<std::pair<unsigned long const ,CMail *> >,0> >::begin, COMDAT
; _this$ = ecx

; 408  : 		return (_TREE_ITERATOR(_Lmost()));

  00000	8b 41 04	 mov	 eax, DWORD PTR [ecx+4]
  00003	8b 08		 mov	 ecx, DWORD PTR [eax]
  00005	8b 44 24 04	 mov	 eax, DWORD PTR ___$ReturnUdt$[esp-4]
  00009	89 08		 mov	 DWORD PTR [eax], ecx

; 409  : 		}

  0000b	c2 04 00	 ret	 4
?begin@?$_Tree@V?$_Tmap_traits@KPAVCMail@@U?$less@K@std@@V?$allocator@U?$pair@$$CBKPAVCMail@@@std@@@3@$0A@@std@@@std@@QAE?AViterator@12@XZ ENDP ; std::_Tree<std::_Tmap_traits<unsigned long,CMail *,std::less<unsigned long>,std::allocator<std::pair<unsigned long const ,CMail *> >,0> >::begin
_TEXT	ENDS
PUBLIC	?end@?$_Tree@V?$_Tmap_traits@KPAVCMail@@U?$less@K@std@@V?$allocator@U?$pair@$$CBKPAVCMail@@@std@@@3@$0A@@std@@@std@@QAE?AViterator@12@XZ ; std::_Tree<std::_Tmap_traits<unsigned long,CMail *,std::less<unsigned long>,std::allocator<std::pair<unsigned long const ,CMail *> >,0> >::end
; Function compile flags: /Ogty
;	COMDAT ?end@?$_Tree@V?$_Tmap_traits@KPAVCMail@@U?$less@K@std@@V?$allocator@U?$pair@$$CBKPAVCMail@@@std@@@3@$0A@@std@@@std@@QAE?AViterator@12@XZ
_TEXT	SEGMENT
___$ReturnUdt$ = 8					; size = 4
?end@?$_Tree@V?$_Tmap_traits@KPAVCMail@@U?$less@K@std@@V?$allocator@U?$pair@$$CBKPAVCMail@@@std@@@3@$0A@@std@@@std@@QAE?AViterator@12@XZ PROC NEAR ; std::_Tree<std::_Tmap_traits<unsigned long,CMail *,std::less<unsigned long>,std::allocator<std::pair<unsigned long const ,CMail *> >,0> >::end, COMDAT
; _this$ = ecx

; 418  : 		return (_TREE_ITERATOR(_Myhead));

  00000	8b 49 04	 mov	 ecx, DWORD PTR [ecx+4]
  00003	8b 44 24 04	 mov	 eax, DWORD PTR ___$ReturnUdt$[esp-4]
  00007	89 08		 mov	 DWORD PTR [eax], ecx

; 419  : 		}

  00009	c2 04 00	 ret	 4
?end@?$_Tree@V?$_Tmap_traits@KPAVCMail@@U?$less@K@std@@V?$allocator@U?$pair@$$CBKPAVCMail@@@std@@@3@$0A@@std@@@std@@QAE?AViterator@12@XZ ENDP ; std::_Tree<std::_Tmap_traits<unsigned long,CMail *,std::less<unsigned long>,std::allocator<std::pair<unsigned long const ,CMail *> >,0> >::end
_TEXT	ENDS
PUBLIC	?begin@?$_Tree@V?$_Tmap_traits@KPAVCMailBox@@U?$less@K@std@@V?$allocator@U?$pair@$$CBKPAVCMailBox@@@std@@@3@$0A@@std@@@std@@QAE?AViterator@12@XZ ; std::_Tree<std::_Tmap_traits<unsigned long,CMailBox *,std::less<unsigned long>,std::allocator<std::pair<unsigned long const ,CMailBox *> >,0> >::begin
; Function compile flags: /Ogty
;	COMDAT ?begin@?$_Tree@V?$_Tmap_traits@KPAVCMailBox@@U?$less@K@std@@V?$allocator@U?$pair@$$CBKPAVCMailBox@@@std@@@3@$0A@@std@@@std@@QAE?AViterator@12@XZ
_TEXT	SEGMENT
___$ReturnUdt$ = 8					; size = 4
?begin@?$_Tree@V?$_Tmap_traits@KPAVCMailBox@@U?$less@K@std@@V?$allocator@U?$pair@$$CBKPAVCMailBox@@@std@@@3@$0A@@std@@@std@@QAE?AViterator@12@XZ PROC NEAR ; std::_Tree<std::_Tmap_traits<unsigned long,CMailBox *,std::less<unsigned long>,std::allocator<std::pair<unsigned long const ,CMailBox *> >,0> >::begin, COMDAT
; _this$ = ecx

; 408  : 		return (_TREE_ITERATOR(_Lmost()));

  00000	8b 41 04	 mov	 eax, DWORD PTR [ecx+4]
  00003	8b 08		 mov	 ecx, DWORD PTR [eax]
  00005	8b 44 24 04	 mov	 eax, DWORD PTR ___$ReturnUdt$[esp-4]
  00009	89 08		 mov	 DWORD PTR [eax], ecx

; 409  : 		}

  0000b	c2 04 00	 ret	 4
?begin@?$_Tree@V?$_Tmap_traits@KPAVCMailBox@@U?$less@K@std@@V?$allocator@U?$pair@$$CBKPAVCMailBox@@@std@@@3@$0A@@std@@@std@@QAE?AViterator@12@XZ ENDP ; std::_Tree<std::_Tmap_traits<unsigned long,CMailBox *,std::less<unsigned long>,std::allocator<std::pair<unsigned long const ,CMailBox *> >,0> >::begin
_TEXT	ENDS
PUBLIC	?end@?$_Tree@V?$_Tmap_traits@KPAVCMailBox@@U?$less@K@std@@V?$allocator@U?$pair@$$CBKPAVCMailBox@@@std@@@3@$0A@@std@@@std@@QAE?AViterator@12@XZ ; std::_Tree<std::_Tmap_traits<unsigned long,CMailBox *,std::less<unsigned long>,std::allocator<std::pair<unsigned long const ,CMailBox *> >,0> >::end
; Function compile flags: /Ogty
;	COMDAT ?end@?$_Tree@V?$_Tmap_traits@KPAVCMailBox@@U?$less@K@std@@V?$allocator@U?$pair@$$CBKPAVCMailBox@@@std@@@3@$0A@@std@@@std@@QAE?AViterator@12@XZ
_TEXT	SEGMENT
___$ReturnUdt$ = 8					; size = 4
?end@?$_Tree@V?$_Tmap_traits@KPAVCMailBox@@U?$less@K@std@@V?$allocator@U?$pair@$$CBKPAVCMailBox@@@std@@@3@$0A@@std@@@std@@QAE?AViterator@12@XZ PROC NEAR ; std::_Tree<std::_Tmap_traits<unsigned long,CMailBox *,std::less<unsigned long>,std::allocator<std::pair<unsigned long const ,CMailBox *> >,0> >::end, COMDAT
; _this$ = ecx

; 418  : 		return (_TREE_ITERATOR(_Myhead));

  00000	8b 49 04	 mov	 ecx, DWORD PTR [ecx+4]
  00003	8b 44 24 04	 mov	 eax, DWORD PTR ___$ReturnUdt$[esp-4]
  00007	89 08		 mov	 DWORD PTR [eax], ecx

; 419  : 		}

  00009	c2 04 00	 ret	 4
?end@?$_Tree@V?$_Tmap_traits@KPAVCMailBox@@U?$less@K@std@@V?$allocator@U?$pair@$$CBKPAVCMailBox@@@std@@@3@$0A@@std@@@std@@QAE?AViterator@12@XZ ENDP ; std::_Tree<std::_Tmap_traits<unsigned long,CMailBox *,std::less<unsigned long>,std::allocator<std::pair<unsigned long const ,CMailBox *> >,0> >::end
_TEXT	ENDS
PUBLIC	??Citerator@?$_Tree@V?$_Tmap_traits@KPAVCMail@@U?$less@K@std@@V?$allocator@U?$pair@$$CBKPAVCMail@@@std@@@3@$0A@@std@@@std@@QBEPAU?$pair@$$CBKPAVCMail@@@2@XZ ; std::_Tree<std::_Tmap_traits<unsigned long,CMail *,std::less<unsigned long>,std::allocator<std::pair<unsigned long const ,CMail *> >,0> >::iterator::operator->
; Function compile flags: /Ogty
;	COMDAT ??Citerator@?$_Tree@V?$_Tmap_traits@KPAVCMail@@U?$less@K@std@@V?$allocator@U?$pair@$$CBKPAVCMail@@@std@@@3@$0A@@std@@@std@@QBEPAU?$pair@$$CBKPAVCMail@@@2@XZ
_TEXT	SEGMENT
??Citerator@?$_Tree@V?$_Tmap_traits@KPAVCMail@@U?$less@K@std@@V?$allocator@U?$pair@$$CBKPAVCMail@@@std@@@3@$0A@@std@@@std@@QBEPAU?$pair@$$CBKPAVCMail@@@2@XZ PROC NEAR ; std::_Tree<std::_Tmap_traits<unsigned long,CMail *,std::less<unsigned long>,std::allocator<std::pair<unsigned long const ,CMail *> >,0> >::iterator::operator->, COMDAT
; _this$ = ecx

; 322  : 			return (&**this);

  00000	8b 01		 mov	 eax, DWORD PTR [ecx]
  00002	83 c0 0c	 add	 eax, 12			; 0000000cH

; 323  : 			}

  00005	c3		 ret	 0
??Citerator@?$_Tree@V?$_Tmap_traits@KPAVCMail@@U?$less@K@std@@V?$allocator@U?$pair@$$CBKPAVCMail@@@std@@@3@$0A@@std@@@std@@QBEPAU?$pair@$$CBKPAVCMail@@@2@XZ ENDP ; std::_Tree<std::_Tmap_traits<unsigned long,CMail *,std::less<unsigned long>,std::allocator<std::pair<unsigned long const ,CMail *> >,0> >::iterator::operator->
_TEXT	ENDS
PUBLIC	??Citerator@?$_Tree@V?$_Tmap_traits@KPAVCMailBox@@U?$less@K@std@@V?$allocator@U?$pair@$$CBKPAVCMailBox@@@std@@@3@$0A@@std@@@std@@QBEPAU?$pair@$$CBKPAVCMailBox@@@2@XZ ; std::_Tree<std::_Tmap_traits<unsigned long,CMailBox *,std::less<unsigned long>,std::allocator<std::pair<unsigned long const ,CMailBox *> >,0> >::iterator::operator->
; Function compile flags: /Ogty
;	COMDAT ??Citerator@?$_Tree@V?$_Tmap_traits@KPAVCMailBox@@U?$less@K@std@@V?$allocator@U?$pair@$$CBKPAVCMailBox@@@std@@@3@$0A@@std@@@std@@QBEPAU?$pair@$$CBKPAVCMailBox@@@2@XZ
_TEXT	SEGMENT
??Citerator@?$_Tree@V?$_Tmap_traits@KPAVCMailBox@@U?$less@K@std@@V?$allocator@U?$pair@$$CBKPAVCMailBox@@@std@@@3@$0A@@std@@@std@@QBEPAU?$pair@$$CBKPAVCMailBox@@@2@XZ PROC NEAR ; std::_Tree<std::_Tmap_traits<unsigned long,CMailBox *,std::less<unsigned long>,std::allocator<std::pair<unsigned long const ,CMailBox *> >,0> >::iterator::operator->, COMDAT
; _this$ = ecx

; 322  : 			return (&**this);

  00000	8b 01		 mov	 eax, DWORD PTR [ecx]
  00002	83 c0 0c	 add	 eax, 12			; 0000000cH

; 323  : 			}

  00005	c3		 ret	 0
??Citerator@?$_Tree@V?$_Tmap_traits@KPAVCMailBox@@U?$less@K@std@@V?$allocator@U?$pair@$$CBKPAVCMailBox@@@std@@@3@$0A@@std@@@std@@QBEPAU?$pair@$$CBKPAVCMailBox@@@2@XZ ENDP ; std::_Tree<std::_Tmap_traits<unsigned long,CMailBox *,std::less<unsigned long>,std::allocator<std::pair<unsigned long const ,CMailBox *> >,0> >::iterator::operator->
_TEXT	ENDS
PUBLIC	?clear@?$list@PAVCMail@@V?$allocator@PAVCMail@@@std@@@std@@QAEXXZ ; std::list<CMail *,std::allocator<CMail *> >::clear
; Function compile flags: /Ogty
; File c:\program files\microsoft visual studio .net 2003\vc7\include\list
;	COMDAT ?clear@?$list@PAVCMail@@V?$allocator@PAVCMail@@@std@@@std@@QAEXXZ
_TEXT	SEGMENT
?clear@?$list@PAVCMail@@V?$allocator@PAVCMail@@@std@@@std@@QAEXXZ PROC NEAR ; std::list<CMail *,std::allocator<CMail *> >::clear, COMDAT
; _this$ = ecx

; 610  : 		{	// erase all

  00000	56		 push	 esi
  00001	8b f1		 mov	 esi, ecx

; 611  : 		_Nodeptr _Pnext;
; 612  : 		_Nodeptr _Pnode = _Nextnode(_Myhead);

  00003	8b 4e 04	 mov	 ecx, DWORD PTR [esi+4]
  00006	8b 01		 mov	 eax, DWORD PTR [ecx]

; 613  : 		_Nextnode(_Myhead) = _Myhead;

  00008	89 09		 mov	 DWORD PTR [ecx], ecx

; 614  : 		_Prevnode(_Myhead) = _Myhead;

  0000a	8b 4e 04	 mov	 ecx, DWORD PTR [esi+4]
  0000d	89 49 04	 mov	 DWORD PTR [ecx+4], ecx

; 615  : 		_Mysize = 0;
; 616  : 
; 617  : 		for (; _Pnode != _Myhead; _Pnode = _Pnext)

  00010	3b 46 04	 cmp	 eax, DWORD PTR [esi+4]
  00013	c7 46 08 00 00
	00 00		 mov	 DWORD PTR [esi+8], 0
  0001a	74 19		 je	 SHORT $L200363
  0001c	57		 push	 edi
  0001d	8d 49 00	 npad	 3
$L200361:

; 618  : 			{	// delete an element
; 619  : 			_Pnext = _Nextnode(_Pnode);

  00020	8b 38		 mov	 edi, DWORD PTR [eax]

; 620  : 			this->_Alnod.destroy(_Pnode);
; 621  : 			this->_Alnod.deallocate(_Pnode, 1);

  00022	50		 push	 eax
  00023	e8 00 00 00 00	 call	 ??3@YAXPAX@Z		; operator delete
  00028	8b 4e 04	 mov	 ecx, DWORD PTR [esi+4]
  0002b	83 c4 04	 add	 esp, 4
  0002e	3b f9		 cmp	 edi, ecx
  00030	8b c7		 mov	 eax, edi
  00032	75 ec		 jne	 SHORT $L200361
  00034	5f		 pop	 edi
$L200363:
  00035	5e		 pop	 esi

; 622  : 			}
; 623  : 		}

  00036	c3		 ret	 0
?clear@?$list@PAVCMail@@V?$allocator@PAVCMail@@@std@@@std@@QAEXXZ ENDP ; std::list<CMail *,std::allocator<CMail *> >::clear
_TEXT	ENDS
PUBLIC	?_Destroy@?$vector@PAVCMail@@V?$allocator@PAVCMail@@@std@@@std@@IAEXPAPAVCMail@@0@Z ; std::vector<CMail *,std::allocator<CMail *> >::_Destroy
; Function compile flags: /Ogty
; File c:\program files\microsoft visual studio .net 2003\vc7\include\vector
;	COMDAT ?_Destroy@?$vector@PAVCMail@@V?$allocator@PAVCMail@@@std@@@std@@IAEXPAPAVCMail@@0@Z
_TEXT	SEGMENT
__First$ = 8						; size = 4
__Last$ = 12						; size = 4
?_Destroy@?$vector@PAVCMail@@V?$allocator@PAVCMail@@@std@@@std@@IAEXPAPAVCMail@@0@Z PROC NEAR ; std::vector<CMail *,std::allocator<CMail *> >::_Destroy, COMDAT
; _this$ = ecx

; 787  : 		_Destroy_range(_First, _Last, this->_Alval);
; 788  : 		}

  00000	c2 08 00	 ret	 8
?_Destroy@?$vector@PAVCMail@@V?$allocator@PAVCMail@@@std@@@std@@IAEXPAPAVCMail@@0@Z ENDP ; std::vector<CMail *,std::allocator<CMail *> >::_Destroy
_TEXT	ENDS
PUBLIC	?_Tidy@?$vector@PAVCMail@@V?$allocator@PAVCMail@@@std@@@std@@IAEXXZ ; std::vector<CMail *,std::allocator<CMail *> >::_Tidy
; Function compile flags: /Ogty
;	COMDAT ?_Tidy@?$vector@PAVCMail@@V?$allocator@PAVCMail@@@std@@@std@@IAEXXZ
_TEXT	SEGMENT
?_Tidy@?$vector@PAVCMail@@V?$allocator@PAVCMail@@@std@@@std@@IAEXXZ PROC NEAR ; std::vector<CMail *,std::allocator<CMail *> >::_Tidy, COMDAT
; _this$ = ecx

; 791  : 		{	// free all storage

  00000	56		 push	 esi
  00001	8b f1		 mov	 esi, ecx

; 792  : 		if (_Myfirst != 0)

  00003	8b 46 04	 mov	 eax, DWORD PTR [esi+4]
  00006	85 c0		 test	 eax, eax
  00008	74 09		 je	 SHORT $L204446

; 793  : 			{	// something to free, destroy and deallocate it
; 794  : 			_Destroy(_Myfirst, _Mylast);
; 795  : 			this->_Alval.deallocate(_Myfirst, _Myend - _Myfirst);

  0000a	50		 push	 eax
  0000b	e8 00 00 00 00	 call	 ??3@YAXPAX@Z		; operator delete
  00010	83 c4 04	 add	 esp, 4
$L204446:

; 796  : 			}
; 797  : 		_Myfirst = 0, _Mylast = 0, _Myend = 0;

  00013	c7 46 04 00 00
	00 00		 mov	 DWORD PTR [esi+4], 0
  0001a	c7 46 08 00 00
	00 00		 mov	 DWORD PTR [esi+8], 0
  00021	c7 46 0c 00 00
	00 00		 mov	 DWORD PTR [esi+12], 0
  00028	5e		 pop	 esi

; 798  : 		}

  00029	c3		 ret	 0
?_Tidy@?$vector@PAVCMail@@V?$allocator@PAVCMail@@@std@@@std@@IAEXXZ ENDP ; std::vector<CMail *,std::allocator<CMail *> >::_Tidy
_TEXT	ENDS
PUBLIC	?_Erase@?$_Tree@V?$_Tmap_traits@KPAVCMail@@U?$less@K@std@@V?$allocator@U?$pair@$$CBKPAVCMail@@@std@@@3@$0A@@std@@@std@@IAEXPAU_Node@?$_Tree_nod@V?$_Tmap_traits@KPAVCMail@@U?$less@K@std@@V?$allocator@U?$pair@$$CBKPAVCMail@@@std@@@3@$0A@@std@@@2@@Z ; std::_Tree<std::_Tmap_traits<unsigned long,CMail *,std::less<unsigned long>,std::allocator<std::pair<unsigned long const ,CMail *> >,0> >::_Erase
; Function compile flags: /Ogty
; File c:\program files\microsoft visual studio .net 2003\vc7\include\xtree
;	COMDAT ?_Erase@?$_Tree@V?$_Tmap_traits@KPAVCMail@@U?$less@K@std@@V?$allocator@U?$pair@$$CBKPAVCMail@@@std@@@3@$0A@@std@@@std@@IAEXPAU_Node@?$_Tree_nod@V?$_Tmap_traits@KPAVCMail@@U?$less@K@std@@V?$allocator@U?$pair@$$CBKPAVCMail@@@std@@@3@$0A@@std@@@2@@Z
_TEXT	SEGMENT
__Rootnode$ = 8						; size = 4
?_Erase@?$_Tree@V?$_Tmap_traits@KPAVCMail@@U?$less@K@std@@V?$allocator@U?$pair@$$CBKPAVCMail@@@std@@@3@$0A@@std@@@std@@IAEXPAU_Node@?$_Tree_nod@V?$_Tmap_traits@KPAVCMail@@U?$less@K@std@@V?$allocator@U?$pair@$$CBKPAVCMail@@@std@@@3@$0A@@std@@@2@@Z PROC NEAR ; std::_Tree<std::_Tmap_traits<unsigned long,CMail *,std::less<unsigned long>,std::allocator<std::pair<unsigned long const ,CMail *> >,0> >::_Erase, COMDAT
; _this$ = ecx

; 890  : 		{	// free entire subtree, recursively

  00000	53		 push	 ebx
  00001	56		 push	 esi
  00002	57		 push	 edi

; 891  : 		for (_Nodeptr _Pnode = _Rootnode; !_Isnil(_Pnode); _Rootnode = _Pnode)

  00003	8b 7c 24 10	 mov	 edi, DWORD PTR __Rootnode$[esp+8]
  00007	8a 47 15	 mov	 al, BYTE PTR [edi+21]
  0000a	84 c0		 test	 al, al
  0000c	8b d9		 mov	 ebx, ecx
  0000e	8b f7		 mov	 esi, edi
  00010	75 1f		 jne	 SHORT $L200472
$L200470:

; 892  : 			{	// free subtrees, then node
; 893  : 			_Erase(_Right(_Pnode));

  00012	8b 46 08	 mov	 eax, DWORD PTR [esi+8]
  00015	50		 push	 eax
  00016	8b cb		 mov	 ecx, ebx
  00018	e8 00 00 00 00	 call	 ?_Erase@?$_Tree@V?$_Tmap_traits@KPAVCMail@@U?$less@K@std@@V?$allocator@U?$pair@$$CBKPAVCMail@@@std@@@3@$0A@@std@@@std@@IAEXPAU_Node@?$_Tree_nod@V?$_Tmap_traits@KPAVCMail@@U?$less@K@std@@V?$allocator@U?$pair@$$CBKPAVCMail@@@std@@@3@$0A@@std@@@2@@Z ; std::_Tree<std::_Tmap_traits<unsigned long,CMail *,std::less<unsigned long>,std::allocator<std::pair<unsigned long const ,CMail *> >,0> >::_Erase

; 894  : 			_Pnode = _Left(_Pnode);

  0001d	8b 36		 mov	 esi, DWORD PTR [esi]

; 895  : 			this->_Alnod.destroy(_Rootnode);	// destroy, free erased node
; 896  : 			this->_Alnod.deallocate(_Rootnode, 1);

  0001f	57		 push	 edi
  00020	e8 00 00 00 00	 call	 ??3@YAXPAX@Z		; operator delete
  00025	8a 46 15	 mov	 al, BYTE PTR [esi+21]
  00028	83 c4 04	 add	 esp, 4
  0002b	84 c0		 test	 al, al
  0002d	8b fe		 mov	 edi, esi
  0002f	74 e1		 je	 SHORT $L200470
$L200472:
  00031	5f		 pop	 edi
  00032	5e		 pop	 esi
  00033	5b		 pop	 ebx

; 897  : 			}
; 898  : 		}

  00034	c2 04 00	 ret	 4
?_Erase@?$_Tree@V?$_Tmap_traits@KPAVCMail@@U?$less@K@std@@V?$allocator@U?$pair@$$CBKPAVCMail@@@std@@@3@$0A@@std@@@std@@IAEXPAU_Node@?$_Tree_nod@V?$_Tmap_traits@KPAVCMail@@U?$less@K@std@@V?$allocator@U?$pair@$$CBKPAVCMail@@@std@@@3@$0A@@std@@@2@@Z ENDP ; std::_Tree<std::_Tmap_traits<unsigned long,CMail *,std::less<unsigned long>,std::allocator<std::pair<unsigned long const ,CMail *> >,0> >::_Erase
_TEXT	ENDS
PUBLIC	?lower_bound@?$_Tree@V?$_Tmap_traits@KPAVCMailBox@@U?$less@K@std@@V?$allocator@U?$pair@$$CBKPAVCMailBox@@@std@@@3@$0A@@std@@@std@@QAE?AViterator@12@ABK@Z ; std::_Tree<std::_Tmap_traits<unsigned long,CMailBox *,std::less<unsigned long>,std::allocator<std::pair<unsigned long const ,CMailBox *> >,0> >::lower_bound
; Function compile flags: /Ogty
;	COMDAT ?lower_bound@?$_Tree@V?$_Tmap_traits@KPAVCMailBox@@U?$less@K@std@@V?$allocator@U?$pair@$$CBKPAVCMailBox@@@std@@@3@$0A@@std@@@std@@QAE?AViterator@12@ABK@Z
_TEXT	SEGMENT
___$ReturnUdt$ = 8					; size = 4
__Keyval$ = 12						; size = 4
?lower_bound@?$_Tree@V?$_Tmap_traits@KPAVCMailBox@@U?$less@K@std@@V?$allocator@U?$pair@$$CBKPAVCMailBox@@@std@@@3@$0A@@std@@@std@@QAE?AViterator@12@ABK@Z PROC NEAR ; std::_Tree<std::_Tmap_traits<unsigned long,CMailBox *,std::less<unsigned long>,std::allocator<std::pair<unsigned long const ,CMailBox *> >,0> >::lower_bound, COMDAT
; _this$ = ecx

; 810  : 		return (_TREE_ITERATOR(_Lbound(_Keyval)));

  00000	8b 49 04	 mov	 ecx, DWORD PTR [ecx+4]
  00003	8b 41 04	 mov	 eax, DWORD PTR [ecx+4]
  00006	8a 50 15	 mov	 dl, BYTE PTR [eax+21]
  00009	84 d2		 test	 dl, dl
  0000b	75 1d		 jne	 SHORT $L204537
  0000d	8b 54 24 08	 mov	 edx, DWORD PTR __Keyval$[esp-4]
  00011	8b 12		 mov	 edx, DWORD PTR [edx]
  00013	53		 push	 ebx
$L204505:
  00014	39 50 0c	 cmp	 DWORD PTR [eax+12], edx
  00017	73 05		 jae	 SHORT $L204507
  00019	8b 40 08	 mov	 eax, DWORD PTR [eax+8]
  0001c	eb 04		 jmp	 SHORT $L204508
$L204507:
  0001e	8b c8		 mov	 ecx, eax
  00020	8b 00		 mov	 eax, DWORD PTR [eax]
$L204508:
  00022	8a 58 15	 mov	 bl, BYTE PTR [eax+21]
  00025	84 db		 test	 bl, bl
  00027	74 eb		 je	 SHORT $L204505
  00029	5b		 pop	 ebx
$L204537:
  0002a	8b 44 24 04	 mov	 eax, DWORD PTR ___$ReturnUdt$[esp-4]
  0002e	89 08		 mov	 DWORD PTR [eax], ecx

; 811  : 		}

  00030	c2 08 00	 ret	 8
?lower_bound@?$_Tree@V?$_Tmap_traits@KPAVCMailBox@@U?$less@K@std@@V?$allocator@U?$pair@$$CBKPAVCMailBox@@@std@@@3@$0A@@std@@@std@@QAE?AViterator@12@ABK@Z ENDP ; std::_Tree<std::_Tmap_traits<unsigned long,CMailBox *,std::less<unsigned long>,std::allocator<std::pair<unsigned long const ,CMailBox *> >,0> >::lower_bound
_TEXT	ENDS
PUBLIC	?_Erase@?$_Tree@V?$_Tmap_traits@KPAVCMailBox@@U?$less@K@std@@V?$allocator@U?$pair@$$CBKPAVCMailBox@@@std@@@3@$0A@@std@@@std@@IAEXPAU_Node@?$_Tree_nod@V?$_Tmap_traits@KPAVCMailBox@@U?$less@K@std@@V?$allocator@U?$pair@$$CBKPAVCMailBox@@@std@@@3@$0A@@std@@@2@@Z ; std::_Tree<std::_Tmap_traits<unsigned long,CMailBox *,std::less<unsigned long>,std::allocator<std::pair<unsigned long const ,CMailBox *> >,0> >::_Erase
; Function compile flags: /Ogty
;	COMDAT ?_Erase@?$_Tree@V?$_Tmap_traits@KPAVCMailBox@@U?$less@K@std@@V?$allocator@U?$pair@$$CBKPAVCMailBox@@@std@@@3@$0A@@std@@@std@@IAEXPAU_Node@?$_Tree_nod@V?$_Tmap_traits@KPAVCMailBox@@U?$less@K@std@@V?$allocator@U?$pair@$$CBKPAVCMailBox@@@std@@@3@$0A@@std@@@2@@Z
_TEXT	SEGMENT
__Rootnode$ = 8						; size = 4
?_Erase@?$_Tree@V?$_Tmap_traits@KPAVCMailBox@@U?$less@K@std@@V?$allocator@U?$pair@$$CBKPAVCMailBox@@@std@@@3@$0A@@std@@@std@@IAEXPAU_Node@?$_Tree_nod@V?$_Tmap_traits@KPAVCMailBox@@U?$less@K@std@@V?$allocator@U?$pair@$$CBKPAVCMailBox@@@std@@@3@$0A@@std@@@2@@Z PROC NEAR ; std::_Tree<std::_Tmap_traits<unsigned long,CMailBox *,std::less<unsigned long>,std::allocator<std::pair<unsigned long const ,CMailBox *> >,0> >::_Erase, COMDAT
; _this$ = ecx

; 890  : 		{	// free entire subtree, recursively

  00000	53		 push	 ebx
  00001	56		 push	 esi
  00002	57		 push	 edi

; 891  : 		for (_Nodeptr _Pnode = _Rootnode; !_Isnil(_Pnode); _Rootnode = _Pnode)

  00003	8b 7c 24 10	 mov	 edi, DWORD PTR __Rootnode$[esp+8]
  00007	8a 47 15	 mov	 al, BYTE PTR [edi+21]
  0000a	84 c0		 test	 al, al
  0000c	8b d9		 mov	 ebx, ecx
  0000e	8b f7		 mov	 esi, edi
  00010	75 1f		 jne	 SHORT $L200551
$L200549:

; 892  : 			{	// free subtrees, then node
; 893  : 			_Erase(_Right(_Pnode));

  00012	8b 46 08	 mov	 eax, DWORD PTR [esi+8]
  00015	50		 push	 eax
  00016	8b cb		 mov	 ecx, ebx
  00018	e8 00 00 00 00	 call	 ?_Erase@?$_Tree@V?$_Tmap_traits@KPAVCMailBox@@U?$less@K@std@@V?$allocator@U?$pair@$$CBKPAVCMailBox@@@std@@@3@$0A@@std@@@std@@IAEXPAU_Node@?$_Tree_nod@V?$_Tmap_traits@KPAVCMailBox@@U?$less@K@std@@V?$allocator@U?$pair@$$CBKPAVCMailBox@@@std@@@3@$0A@@std@@@2@@Z ; std::_Tree<std::_Tmap_traits<unsigned long,CMailBox *,std::less<unsigned long>,std::allocator<std::pair<unsigned long const ,CMailBox *> >,0> >::_Erase

; 894  : 			_Pnode = _Left(_Pnode);

  0001d	8b 36		 mov	 esi, DWORD PTR [esi]

; 895  : 			this->_Alnod.destroy(_Rootnode);	// destroy, free erased node
; 896  : 			this->_Alnod.deallocate(_Rootnode, 1);

  0001f	57		 push	 edi
  00020	e8 00 00 00 00	 call	 ??3@YAXPAX@Z		; operator delete
  00025	8a 46 15	 mov	 al, BYTE PTR [esi+21]
  00028	83 c4 04	 add	 esp, 4
  0002b	84 c0		 test	 al, al
  0002d	8b fe		 mov	 edi, esi
  0002f	74 e1		 je	 SHORT $L200549
$L200551:
  00031	5f		 pop	 edi
  00032	5e		 pop	 esi
  00033	5b		 pop	 ebx

; 897  : 			}
; 898  : 		}

  00034	c2 04 00	 ret	 4
?_Erase@?$_Tree@V?$_Tmap_traits@KPAVCMailBox@@U?$less@K@std@@V?$allocator@U?$pair@$$CBKPAVCMailBox@@@std@@@3@$0A@@std@@@std@@IAEXPAU_Node@?$_Tree_nod@V?$_Tmap_traits@KPAVCMailBox@@U?$less@K@std@@V?$allocator@U?$pair@$$CBKPAVCMailBox@@@std@@@3@$0A@@std@@@2@@Z ENDP ; std::_Tree<std::_Tmap_traits<unsigned long,CMailBox *,std::less<unsigned long>,std::allocator<std::pair<unsigned long const ,CMailBox *> >,0> >::_Erase
_TEXT	ENDS
PUBLIC	??Fiterator@?$_Tree@V?$_Tmap_traits@KPAVCMail@@U?$less@K@std@@V?$allocator@U?$pair@$$CBKPAVCMail@@@std@@@3@$0A@@std@@@std@@QAEAAV012@XZ ; std::_Tree<std::_Tmap_traits<unsigned long,CMail *,std::less<unsigned long>,std::allocator<std::pair<unsigned long const ,CMail *> >,0> >::iterator::operator--
; Function compile flags: /Ogty
;	COMDAT ??Fiterator@?$_Tree@V?$_Tmap_traits@KPAVCMail@@U?$less@K@std@@V?$allocator@U?$pair@$$CBKPAVCMail@@@std@@@3@$0A@@std@@@std@@QAEAAV012@XZ
_TEXT	SEGMENT
??Fiterator@?$_Tree@V?$_Tmap_traits@KPAVCMail@@U?$less@K@std@@V?$allocator@U?$pair@$$CBKPAVCMail@@@std@@@3@$0A@@std@@@std@@QAEAAV012@XZ PROC NEAR ; std::_Tree<std::_Tmap_traits<unsigned long,CMail *,std::less<unsigned long>,std::allocator<std::pair<unsigned long const ,CMail *> >,0> >::iterator::operator--, COMDAT
; _this$ = ecx

; 339  : 			{	// predecrement

  00000	56		 push	 esi
  00001	8b f1		 mov	 esi, ecx

; 340  : 			--(*(const_iterator *)this);

  00003	e8 00 00 00 00	 call	 ?_Dec@const_iterator@?$_Tree@V?$_Tmap_traits@KPAVCMail@@U?$less@K@std@@V?$allocator@U?$pair@$$CBKPAVCMail@@@std@@@3@$0A@@std@@@std@@QAEXXZ ; std::_Tree<std::_Tmap_traits<unsigned long,CMail *,std::less<unsigned long>,std::allocator<std::pair<unsigned long const ,CMail *> >,0> >::const_iterator::_Dec

; 341  : 			return (*this);

  00008	8b c6		 mov	 eax, esi
  0000a	5e		 pop	 esi

; 342  : 			}

  0000b	c3		 ret	 0
??Fiterator@?$_Tree@V?$_Tmap_traits@KPAVCMail@@U?$less@K@std@@V?$allocator@U?$pair@$$CBKPAVCMail@@@std@@@3@$0A@@std@@@std@@QAEAAV012@XZ ENDP ; std::_Tree<std::_Tmap_traits<unsigned long,CMail *,std::less<unsigned long>,std::allocator<std::pair<unsigned long const ,CMail *> >,0> >::iterator::operator--
_TEXT	ENDS
PUBLIC	??Econst_iterator@?$_Tree@V?$_Tmap_traits@KPAVCMail@@U?$less@K@std@@V?$allocator@U?$pair@$$CBKPAVCMail@@@std@@@3@$0A@@std@@@std@@QAEAAV012@XZ ; std::_Tree<std::_Tmap_traits<unsigned long,CMail *,std::less<unsigned long>,std::allocator<std::pair<unsigned long const ,CMail *> >,0> >::const_iterator::operator++
; Function compile flags: /Ogty
;	COMDAT ??Econst_iterator@?$_Tree@V?$_Tmap_traits@KPAVCMail@@U?$less@K@std@@V?$allocator@U?$pair@$$CBKPAVCMail@@@std@@@3@$0A@@std@@@std@@QAEAAV012@XZ
_TEXT	SEGMENT
??Econst_iterator@?$_Tree@V?$_Tmap_traits@KPAVCMail@@U?$less@K@std@@V?$allocator@U?$pair@$$CBKPAVCMail@@@std@@@3@$0A@@std@@@std@@QAEAAV012@XZ PROC NEAR ; std::_Tree<std::_Tmap_traits<unsigned long,CMail *,std::less<unsigned long>,std::allocator<std::pair<unsigned long const ,CMail *> >,0> >::const_iterator::operator++, COMDAT
; _this$ = ecx

; 214  : 			{	// preincrement

  00000	56		 push	 esi
  00001	8b f1		 mov	 esi, ecx

; 215  : 			_Inc();

  00003	e8 00 00 00 00	 call	 ?_Inc@const_iterator@?$_Tree@V?$_Tmap_traits@KPAVCMail@@U?$less@K@std@@V?$allocator@U?$pair@$$CBKPAVCMail@@@std@@@3@$0A@@std@@@std@@QAEXXZ ; std::_Tree<std::_Tmap_traits<unsigned long,CMail *,std::less<unsigned long>,std::allocator<std::pair<unsigned long const ,CMail *> >,0> >::const_iterator::_Inc

; 216  : 			return (*this);

  00008	8b c6		 mov	 eax, esi
  0000a	5e		 pop	 esi

; 217  : 			}

  0000b	c3		 ret	 0
??Econst_iterator@?$_Tree@V?$_Tmap_traits@KPAVCMail@@U?$less@K@std@@V?$allocator@U?$pair@$$CBKPAVCMail@@@std@@@3@$0A@@std@@@std@@QAEAAV012@XZ ENDP ; std::_Tree<std::_Tmap_traits<unsigned long,CMail *,std::less<unsigned long>,std::allocator<std::pair<unsigned long const ,CMail *> >,0> >::const_iterator::operator++
_TEXT	ENDS
PUBLIC	??Econst_iterator@?$_Tree@V?$_Tmap_traits@KPAVCMailBox@@U?$less@K@std@@V?$allocator@U?$pair@$$CBKPAVCMailBox@@@std@@@3@$0A@@std@@@std@@QAEAAV012@XZ ; std::_Tree<std::_Tmap_traits<unsigned long,CMailBox *,std::less<unsigned long>,std::allocator<std::pair<unsigned long const ,CMailBox *> >,0> >::const_iterator::operator++
; Function compile flags: /Ogty
;	COMDAT ??Econst_iterator@?$_Tree@V?$_Tmap_traits@KPAVCMailBox@@U?$less@K@std@@V?$allocator@U?$pair@$$CBKPAVCMailBox@@@std@@@3@$0A@@std@@@std@@QAEAAV012@XZ
_TEXT	SEGMENT
??Econst_iterator@?$_Tree@V?$_Tmap_traits@KPAVCMailBox@@U?$less@K@std@@V?$allocator@U?$pair@$$CBKPAVCMailBox@@@std@@@3@$0A@@std@@@std@@QAEAAV012@XZ PROC NEAR ; std::_Tree<std::_Tmap_traits<unsigned long,CMailBox *,std::less<unsigned long>,std::allocator<std::pair<unsigned long const ,CMailBox *> >,0> >::const_iterator::operator++, COMDAT
; _this$ = ecx

; 214  : 			{	// preincrement

  00000	56		 push	 esi
  00001	8b f1		 mov	 esi, ecx

; 215  : 			_Inc();

  00003	e8 00 00 00 00	 call	 ?_Inc@const_iterator@?$_Tree@V?$_Tmap_traits@KPAVCMailBox@@U?$less@K@std@@V?$allocator@U?$pair@$$CBKPAVCMailBox@@@std@@@3@$0A@@std@@@std@@QAEXXZ ; std::_Tree<std::_Tmap_traits<unsigned long,CMailBox *,std::less<unsigned long>,std::allocator<std::pair<unsigned long const ,CMailBox *> >,0> >::const_iterator::_Inc

; 216  : 			return (*this);

  00008	8b c6		 mov	 eax, esi
  0000a	5e		 pop	 esi

; 217  : 			}

  0000b	c3		 ret	 0
??Econst_iterator@?$_Tree@V?$_Tmap_traits@KPAVCMailBox@@U?$less@K@std@@V?$allocator@U?$pair@$$CBKPAVCMailBox@@@std@@@3@$0A@@std@@@std@@QAEAAV012@XZ ENDP ; std::_Tree<std::_Tmap_traits<unsigned long,CMailBox *,std::less<unsigned long>,std::allocator<std::pair<unsigned long const ,CMailBox *> >,0> >::const_iterator::operator++
_TEXT	ENDS
PUBLIC	?end@?$list@PAVCMail@@V?$allocator@PAVCMail@@@std@@@std@@QAE?AViterator@12@XZ ; std::list<CMail *,std::allocator<CMail *> >::end
; Function compile flags: /Ogty
; File c:\program files\microsoft visual studio .net 2003\vc7\include\list
;	COMDAT ?end@?$list@PAVCMail@@V?$allocator@PAVCMail@@@std@@@std@@QAE?AViterator@12@XZ
_TEXT	SEGMENT
___$ReturnUdt$ = 8					; size = 4
?end@?$list@PAVCMail@@V?$allocator@PAVCMail@@@std@@@std@@QAE?AViterator@12@XZ PROC NEAR ; std::list<CMail *,std::allocator<CMail *> >::end, COMDAT
; _this$ = ecx

; 387  : 		return (iterator(_Myhead));

  00000	8b 49 04	 mov	 ecx, DWORD PTR [ecx+4]
  00003	8b 44 24 04	 mov	 eax, DWORD PTR ___$ReturnUdt$[esp-4]
  00007	89 08		 mov	 DWORD PTR [eax], ecx

; 388  : 		}

  00009	c2 04 00	 ret	 4
?end@?$list@PAVCMail@@V?$allocator@PAVCMail@@@std@@@std@@QAE?AViterator@12@XZ ENDP ; std::list<CMail *,std::allocator<CMail *> >::end
_TEXT	ENDS
PUBLIC	?_Buynode@?$list@PAVCMail@@V?$allocator@PAVCMail@@@std@@@std@@IAEPAU_Node@?$_List_nod@PAVCMail@@V?$allocator@PAVCMail@@@std@@@2@XZ ; std::list<CMail *,std::allocator<CMail *> >::_Buynode
EXTRN	__CxxThrowException@8:NEAR
; Function compile flags: /Ogty
;	COMDAT ?_Buynode@?$list@PAVCMail@@V?$allocator@PAVCMail@@@std@@@std@@IAEPAU_Node@?$_List_nod@PAVCMail@@V?$allocator@PAVCMail@@@std@@@2@XZ
_TEXT	SEGMENT
?_Buynode@?$list@PAVCMail@@V?$allocator@PAVCMail@@@std@@@std@@IAEPAU_Node@?$_List_nod@PAVCMail@@V?$allocator@PAVCMail@@@std@@@2@XZ PROC NEAR ; std::list<CMail *,std::allocator<CMail *> >::_Buynode, COMDAT
; _this$ = ecx

; 899  : 		_Nodeptr _Pnode = this->_Alnod.allocate(1);

  00000	6a 0c		 push	 12			; 0000000cH
  00002	e8 00 00 00 00	 call	 ??2@YAPAXI@Z		; operator new
  00007	83 c4 04	 add	 esp, 4

; 900  : 		int _Linkcnt = 0;
; 901  : 
; 902  : 		_TRY_BEGIN
; 903  : 		this->_Alptr.construct(&_Nextnode(_Pnode), _Pnode);

  0000a	85 c0		 test	 eax, eax
  0000c	74 02		 je	 SHORT $L204610
  0000e	89 00		 mov	 DWORD PTR [eax], eax
$L204610:

; 904  : 		++_Linkcnt;
; 905  : 		this->_Alptr.construct(&_Prevnode(_Pnode), _Pnode);

  00010	8d 48 04	 lea	 ecx, DWORD PTR [eax+4]
  00013	85 c9		 test	 ecx, ecx
  00015	74 02		 je	 SHORT $L204638
  00017	89 01		 mov	 DWORD PTR [ecx], eax
$L204638:

; 906  : 		_CATCH_ALL
; 907  : 		if (0 < _Linkcnt)
; 908  : 			this->_Alptr.destroy(&_Nextnode(_Pnode));
; 909  : 		this->_Alnod.deallocate(_Pnode, 1);
; 910  : 		_RERAISE;
; 911  : 		_CATCH_END
; 912  : 		return (_Pnode);
; 913  : 		}

  00019	c3		 ret	 0
?_Buynode@?$list@PAVCMail@@V?$allocator@PAVCMail@@@std@@@std@@IAEPAU_Node@?$_List_nod@PAVCMail@@V?$allocator@PAVCMail@@@std@@@2@XZ ENDP ; std::list<CMail *,std::allocator<CMail *> >::_Buynode
_TEXT	ENDS
PUBLIC	?_Tidy@?$list@PAVCMail@@V?$allocator@PAVCMail@@@std@@@std@@IAEXXZ ; std::list<CMail *,std::allocator<CMail *> >::_Tidy
; Function compile flags: /Ogty
;	COMDAT ?_Tidy@?$list@PAVCMail@@V?$allocator@PAVCMail@@@std@@@std@@IAEXXZ
_TEXT	SEGMENT
?_Tidy@?$list@PAVCMail@@V?$allocator@PAVCMail@@@std@@@std@@IAEXXZ PROC NEAR ; std::list<CMail *,std::allocator<CMail *> >::_Tidy, COMDAT
; _this$ = ecx

; 929  : 		{	// free all storage

  00000	56		 push	 esi
  00001	8b f1		 mov	 esi, ecx

; 930  : 		clear();

  00003	e8 00 00 00 00	 call	 ?clear@?$list@PAVCMail@@V?$allocator@PAVCMail@@@std@@@std@@QAEXXZ ; std::list<CMail *,std::allocator<CMail *> >::clear

; 931  : 		this->_Alptr.destroy(&_Nextnode(_Myhead));
; 932  : 		this->_Alptr.destroy(&_Prevnode(_Myhead));
; 933  : 		this->_Alnod.deallocate(_Myhead, 1);

  00008	8b 46 04	 mov	 eax, DWORD PTR [esi+4]
  0000b	50		 push	 eax
  0000c	e8 00 00 00 00	 call	 ??3@YAXPAX@Z		; operator delete
  00011	83 c4 04	 add	 esp, 4

; 934  : 		_Myhead = 0;

  00014	c7 46 04 00 00
	00 00		 mov	 DWORD PTR [esi+4], 0
  0001b	5e		 pop	 esi

; 935  : 		}

  0001c	c3		 ret	 0
?_Tidy@?$list@PAVCMail@@V?$allocator@PAVCMail@@@std@@@std@@IAEXXZ ENDP ; std::list<CMail *,std::allocator<CMail *> >::_Tidy
_TEXT	ENDS
PUBLIC	?lower_bound@?$_Tree@V?$_Tmap_traits@KPAVCMail@@U?$less@K@std@@V?$allocator@U?$pair@$$CBKPAVCMail@@@std@@@3@$0A@@std@@@std@@QAE?AViterator@12@ABK@Z ; std::_Tree<std::_Tmap_traits<unsigned long,CMail *,std::less<unsigned long>,std::allocator<std::pair<unsigned long const ,CMail *> >,0> >::lower_bound
; Function compile flags: /Ogty
; File c:\program files\microsoft visual studio .net 2003\vc7\include\xtree
;	COMDAT ?lower_bound@?$_Tree@V?$_Tmap_traits@KPAVCMail@@U?$less@K@std@@V?$allocator@U?$pair@$$CBKPAVCMail@@@std@@@3@$0A@@std@@@std@@QAE?AViterator@12@ABK@Z
_TEXT	SEGMENT
___$ReturnUdt$ = 8					; size = 4
__Keyval$ = 12						; size = 4
?lower_bound@?$_Tree@V?$_Tmap_traits@KPAVCMail@@U?$less@K@std@@V?$allocator@U?$pair@$$CBKPAVCMail@@@std@@@3@$0A@@std@@@std@@QAE?AViterator@12@ABK@Z PROC NEAR ; std::_Tree<std::_Tmap_traits<unsigned long,CMail *,std::less<unsigned long>,std::allocator<std::pair<unsigned long const ,CMail *> >,0> >::lower_bound, COMDAT
; _this$ = ecx

; 810  : 		return (_TREE_ITERATOR(_Lbound(_Keyval)));

  00000	8b 49 04	 mov	 ecx, DWORD PTR [ecx+4]
  00003	8b 41 04	 mov	 eax, DWORD PTR [ecx+4]
  00006	8a 50 15	 mov	 dl, BYTE PTR [eax+21]
  00009	84 d2		 test	 dl, dl
  0000b	75 1d		 jne	 SHORT $L204737
  0000d	8b 54 24 08	 mov	 edx, DWORD PTR __Keyval$[esp-4]
  00011	8b 12		 mov	 edx, DWORD PTR [edx]
  00013	53		 push	 ebx
$L204705:
  00014	39 50 0c	 cmp	 DWORD PTR [eax+12], edx
  00017	73 05		 jae	 SHORT $L204707
  00019	8b 40 08	 mov	 eax, DWORD PTR [eax+8]
  0001c	eb 04		 jmp	 SHORT $L204708
$L204707:
  0001e	8b c8		 mov	 ecx, eax
  00020	8b 00		 mov	 eax, DWORD PTR [eax]
$L204708:
  00022	8a 58 15	 mov	 bl, BYTE PTR [eax+21]
  00025	84 db		 test	 bl, bl
  00027	74 eb		 je	 SHORT $L204705
  00029	5b		 pop	 ebx
$L204737:
  0002a	8b 44 24 04	 mov	 eax, DWORD PTR ___$ReturnUdt$[esp-4]
  0002e	89 08		 mov	 DWORD PTR [eax], ecx

; 811  : 		}

  00030	c2 08 00	 ret	 8
?lower_bound@?$_Tree@V?$_Tmap_traits@KPAVCMail@@U?$less@K@std@@V?$allocator@U?$pair@$$CBKPAVCMail@@@std@@@3@$0A@@std@@@std@@QAE?AViterator@12@ABK@Z ENDP ; std::_Tree<std::_Tmap_traits<unsigned long,CMail *,std::less<unsigned long>,std::allocator<std::pair<unsigned long const ,CMail *> >,0> >::lower_bound
_TEXT	ENDS
PUBLIC	?upper_bound@?$_Tree@V?$_Tmap_traits@KPAVCMail@@U?$less@K@std@@V?$allocator@U?$pair@$$CBKPAVCMail@@@std@@@3@$0A@@std@@@std@@QAE?AViterator@12@ABK@Z ; std::_Tree<std::_Tmap_traits<unsigned long,CMail *,std::less<unsigned long>,std::allocator<std::pair<unsigned long const ,CMail *> >,0> >::upper_bound
; Function compile flags: /Ogty
;	COMDAT ?upper_bound@?$_Tree@V?$_Tmap_traits@KPAVCMail@@U?$less@K@std@@V?$allocator@U?$pair@$$CBKPAVCMail@@@std@@@3@$0A@@std@@@std@@QAE?AViterator@12@ABK@Z
_TEXT	SEGMENT
___$ReturnUdt$ = 8					; size = 4
__Keyval$ = 12						; size = 4
?upper_bound@?$_Tree@V?$_Tmap_traits@KPAVCMail@@U?$less@K@std@@V?$allocator@U?$pair@$$CBKPAVCMail@@@std@@@3@$0A@@std@@@std@@QAE?AViterator@12@ABK@Z PROC NEAR ; std::_Tree<std::_Tmap_traits<unsigned long,CMail *,std::less<unsigned long>,std::allocator<std::pair<unsigned long const ,CMail *> >,0> >::upper_bound, COMDAT
; _this$ = ecx

; 820  : 		return (_TREE_ITERATOR(_Ubound(_Keyval)));

  00000	8b 49 04	 mov	 ecx, DWORD PTR [ecx+4]
  00003	8b 41 04	 mov	 eax, DWORD PTR [ecx+4]
  00006	8a 50 15	 mov	 dl, BYTE PTR [eax+21]
  00009	84 d2		 test	 dl, dl
  0000b	75 1d		 jne	 SHORT $L204809
  0000d	8b 54 24 08	 mov	 edx, DWORD PTR __Keyval$[esp-4]
  00011	8b 12		 mov	 edx, DWORD PTR [edx]
  00013	53		 push	 ebx
$L204777:
  00014	3b 50 0c	 cmp	 edx, DWORD PTR [eax+12]
  00017	73 06		 jae	 SHORT $L204779
  00019	8b c8		 mov	 ecx, eax
  0001b	8b 00		 mov	 eax, DWORD PTR [eax]
  0001d	eb 03		 jmp	 SHORT $L204780
$L204779:
  0001f	8b 40 08	 mov	 eax, DWORD PTR [eax+8]
$L204780:
  00022	8a 58 15	 mov	 bl, BYTE PTR [eax+21]
  00025	84 db		 test	 bl, bl
  00027	74 eb		 je	 SHORT $L204777
  00029	5b		 pop	 ebx
$L204809:
  0002a	8b 44 24 04	 mov	 eax, DWORD PTR ___$ReturnUdt$[esp-4]
  0002e	89 08		 mov	 DWORD PTR [eax], ecx

; 821  : 		}

  00030	c2 08 00	 ret	 8
?upper_bound@?$_Tree@V?$_Tmap_traits@KPAVCMail@@U?$less@K@std@@V?$allocator@U?$pair@$$CBKPAVCMail@@@std@@@3@$0A@@std@@@std@@QAE?AViterator@12@ABK@Z ENDP ; std::_Tree<std::_Tmap_traits<unsigned long,CMail *,std::less<unsigned long>,std::allocator<std::pair<unsigned long const ,CMail *> >,0> >::upper_bound
_TEXT	ENDS
PUBLIC	?_Buynode@?$_Tree@V?$_Tmap_traits@KPAVCMail@@U?$less@K@std@@V?$allocator@U?$pair@$$CBKPAVCMail@@@std@@@3@$0A@@std@@@std@@IAEPAU_Node@?$_Tree_nod@V?$_Tmap_traits@KPAVCMail@@U?$less@K@std@@V?$allocator@U?$pair@$$CBKPAVCMail@@@std@@@3@$0A@@std@@@2@PAU342@00ABU?$pair@$$CBKPAVCMail@@@2@D@Z ; std::_Tree<std::_Tmap_traits<unsigned long,CMail *,std::less<unsigned long>,std::allocator<std::pair<unsigned long const ,CMail *> >,0> >::_Buynode
; Function compile flags: /Ogty
;	COMDAT ?_Buynode@?$_Tree@V?$_Tmap_traits@KPAVCMail@@U?$less@K@std@@V?$allocator@U?$pair@$$CBKPAVCMail@@@std@@@3@$0A@@std@@@std@@IAEPAU_Node@?$_Tree_nod@V?$_Tmap_traits@KPAVCMail@@U?$less@K@std@@V?$allocator@U?$pair@$$CBKPAVCMail@@@std@@@3@$0A@@std@@@2@PAU342@00ABU?$pair@$$CBKPAVCMail@@@2@D@Z
_TEXT	SEGMENT
__Larg$ = 8						; size = 4
__Parg$ = 12						; size = 4
__Rarg$ = 16						; size = 4
__Val$ = 20						; size = 4
__Carg$ = 24						; size = 1
?_Buynode@?$_Tree@V?$_Tmap_traits@KPAVCMail@@U?$less@K@std@@V?$allocator@U?$pair@$$CBKPAVCMail@@@std@@@3@$0A@@std@@@std@@IAEPAU_Node@?$_Tree_nod@V?$_Tmap_traits@KPAVCMail@@U?$less@K@std@@V?$allocator@U?$pair@$$CBKPAVCMail@@@std@@@3@$0A@@std@@@2@PAU342@00ABU?$pair@$$CBKPAVCMail@@@2@D@Z PROC NEAR ; std::_Tree<std::_Tmap_traits<unsigned long,CMail *,std::less<unsigned long>,std::allocator<std::pair<unsigned long const ,CMail *> >,0> >::_Buynode, COMDAT
; _this$ = ecx

; 1131 : 		_Nodeptr _Wherenode = this->_Alnod.allocate(1);

  00000	6a 18		 push	 24			; 00000018H
  00002	e8 00 00 00 00	 call	 ??2@YAPAXI@Z		; operator new
  00007	83 c4 04	 add	 esp, 4

; 1132 : 		_TRY_BEGIN
; 1133 : 		new (_Wherenode) _Node(_Larg, _Parg, _Rarg, _Val, _Carg);

  0000a	85 c0		 test	 eax, eax
  0000c	74 2e		 je	 SHORT $L204814
  0000e	8b 4c 24 04	 mov	 ecx, DWORD PTR __Larg$[esp-4]
  00012	8b 54 24 08	 mov	 edx, DWORD PTR __Parg$[esp-4]
  00016	89 08		 mov	 DWORD PTR [eax], ecx
  00018	8b 4c 24 0c	 mov	 ecx, DWORD PTR __Rarg$[esp-4]
  0001c	89 48 08	 mov	 DWORD PTR [eax+8], ecx
  0001f	8b 4c 24 10	 mov	 ecx, DWORD PTR __Val$[esp-4]
  00023	89 50 04	 mov	 DWORD PTR [eax+4], edx
  00026	8b 11		 mov	 edx, DWORD PTR [ecx]
  00028	89 50 0c	 mov	 DWORD PTR [eax+12], edx
  0002b	8b 49 04	 mov	 ecx, DWORD PTR [ecx+4]
  0002e	8a 54 24 14	 mov	 dl, BYTE PTR __Carg$[esp-4]
  00032	89 48 10	 mov	 DWORD PTR [eax+16], ecx
  00035	88 50 14	 mov	 BYTE PTR [eax+20], dl
  00038	c6 40 15 00	 mov	 BYTE PTR [eax+21], 0
$L204814:

; 1134 : 		_CATCH_ALL
; 1135 : 		this->_Alnod.deallocate(_Wherenode, 1);
; 1136 : 		_RERAISE;
; 1137 : 		_CATCH_END
; 1138 : 		return (_Wherenode);
; 1139 : 		}

  0003c	c2 14 00	 ret	 20			; 00000014H
?_Buynode@?$_Tree@V?$_Tmap_traits@KPAVCMail@@U?$less@K@std@@V?$allocator@U?$pair@$$CBKPAVCMail@@@std@@@3@$0A@@std@@@std@@IAEPAU_Node@?$_Tree_nod@V?$_Tmap_traits@KPAVCMail@@U?$less@K@std@@V?$allocator@U?$pair@$$CBKPAVCMail@@@std@@@3@$0A@@std@@@2@PAU342@00ABU?$pair@$$CBKPAVCMail@@@2@D@Z ENDP ; std::_Tree<std::_Tmap_traits<unsigned long,CMail *,std::less<unsigned long>,std::allocator<std::pair<unsigned long const ,CMail *> >,0> >::_Buynode
_TEXT	ENDS
PUBLIC	?_Buynode@?$_Tree@V?$_Tmap_traits@KPAVCMailBox@@U?$less@K@std@@V?$allocator@U?$pair@$$CBKPAVCMailBox@@@std@@@3@$0A@@std@@@std@@IAEPAU_Node@?$_Tree_nod@V?$_Tmap_traits@KPAVCMailBox@@U?$less@K@std@@V?$allocator@U?$pair@$$CBKPAVCMailBox@@@std@@@3@$0A@@std@@@2@PAU342@00ABU?$pair@$$CBKPAVCMailBox@@@2@D@Z ; std::_Tree<std::_Tmap_traits<unsigned long,CMailBox *,std::less<unsigned long>,std::allocator<std::pair<unsigned long const ,CMailBox *> >,0> >::_Buynode
; Function compile flags: /Ogty
;	COMDAT ?_Buynode@?$_Tree@V?$_Tmap_traits@KPAVCMailBox@@U?$less@K@std@@V?$allocator@U?$pair@$$CBKPAVCMailBox@@@std@@@3@$0A@@std@@@std@@IAEPAU_Node@?$_Tree_nod@V?$_Tmap_traits@KPAVCMailBox@@U?$less@K@std@@V?$allocator@U?$pair@$$CBKPAVCMailBox@@@std@@@3@$0A@@std@@@2@PAU342@00ABU?$pair@$$CBKPAVCMailBox@@@2@D@Z
_TEXT	SEGMENT
__Larg$ = 8						; size = 4
__Parg$ = 12						; size = 4
__Rarg$ = 16						; size = 4
__Val$ = 20						; size = 4
__Carg$ = 24						; size = 1
?_Buynode@?$_Tree@V?$_Tmap_traits@KPAVCMailBox@@U?$less@K@std@@V?$allocator@U?$pair@$$CBKPAVCMailBox@@@std@@@3@$0A@@std@@@std@@IAEPAU_Node@?$_Tree_nod@V?$_Tmap_traits@KPAVCMailBox@@U?$less@K@std@@V?$allocator@U?$pair@$$CBKPAVCMailBox@@@std@@@3@$0A@@std@@@2@PAU342@00ABU?$pair@$$CBKPAVCMailBox@@@2@D@Z PROC NEAR ; std::_Tree<std::_Tmap_traits<unsigned long,CMailBox *,std::less<unsigned long>,std::allocator<std::pair<unsigned long const ,CMailBox *> >,0> >::_Buynode, COMDAT
; _this$ = ecx

; 1131 : 		_Nodeptr _Wherenode = this->_Alnod.allocate(1);

  00000	6a 18		 push	 24			; 00000018H
  00002	e8 00 00 00 00	 call	 ??2@YAPAXI@Z		; operator new
  00007	83 c4 04	 add	 esp, 4

; 1132 : 		_TRY_BEGIN
; 1133 : 		new (_Wherenode) _Node(_Larg, _Parg, _Rarg, _Val, _Carg);

  0000a	85 c0		 test	 eax, eax
  0000c	74 2e		 je	 SHORT $L204843
  0000e	8b 4c 24 04	 mov	 ecx, DWORD PTR __Larg$[esp-4]
  00012	8b 54 24 08	 mov	 edx, DWORD PTR __Parg$[esp-4]
  00016	89 08		 mov	 DWORD PTR [eax], ecx
  00018	8b 4c 24 0c	 mov	 ecx, DWORD PTR __Rarg$[esp-4]
  0001c	89 48 08	 mov	 DWORD PTR [eax+8], ecx
  0001f	8b 4c 24 10	 mov	 ecx, DWORD PTR __Val$[esp-4]
  00023	89 50 04	 mov	 DWORD PTR [eax+4], edx
  00026	8b 11		 mov	 edx, DWORD PTR [ecx]
  00028	89 50 0c	 mov	 DWORD PTR [eax+12], edx
  0002b	8b 49 04	 mov	 ecx, DWORD PTR [ecx+4]
  0002e	8a 54 24 14	 mov	 dl, BYTE PTR __Carg$[esp-4]
  00032	89 48 10	 mov	 DWORD PTR [eax+16], ecx
  00035	88 50 14	 mov	 BYTE PTR [eax+20], dl
  00038	c6 40 15 00	 mov	 BYTE PTR [eax+21], 0
$L204843:

; 1134 : 		_CATCH_ALL
; 1135 : 		this->_Alnod.deallocate(_Wherenode, 1);
; 1136 : 		_RERAISE;
; 1137 : 		_CATCH_END
; 1138 : 		return (_Wherenode);
; 1139 : 		}

  0003c	c2 14 00	 ret	 20			; 00000014H
?_Buynode@?$_Tree@V?$_Tmap_traits@KPAVCMailBox@@U?$less@K@std@@V?$allocator@U?$pair@$$CBKPAVCMailBox@@@std@@@3@$0A@@std@@@std@@IAEPAU_Node@?$_Tree_nod@V?$_Tmap_traits@KPAVCMailBox@@U?$less@K@std@@V?$allocator@U?$pair@$$CBKPAVCMailBox@@@std@@@3@$0A@@std@@@2@PAU342@00ABU?$pair@$$CBKPAVCMailBox@@@2@D@Z ENDP ; std::_Tree<std::_Tmap_traits<unsigned long,CMailBox *,std::less<unsigned long>,std::allocator<std::pair<unsigned long const ,CMailBox *> >,0> >::_Buynode
_TEXT	ENDS
PUBLIC	??Fconst_iterator@?$_Tree@V?$_Tmap_traits@KPAVCMailBox@@U?$less@K@std@@V?$allocator@U?$pair@$$CBKPAVCMailBox@@@std@@@3@$0A@@std@@@std@@QAEAAV012@XZ ; std::_Tree<std::_Tmap_traits<unsigned long,CMailBox *,std::less<unsigned long>,std::allocator<std::pair<unsigned long const ,CMailBox *> >,0> >::const_iterator::operator--
; Function compile flags: /Ogty
;	COMDAT ??Fconst_iterator@?$_Tree@V?$_Tmap_traits@KPAVCMailBox@@U?$less@K@std@@V?$allocator@U?$pair@$$CBKPAVCMailBox@@@std@@@3@$0A@@std@@@std@@QAEAAV012@XZ
_TEXT	SEGMENT
??Fconst_iterator@?$_Tree@V?$_Tmap_traits@KPAVCMailBox@@U?$less@K@std@@V?$allocator@U?$pair@$$CBKPAVCMailBox@@@std@@@3@$0A@@std@@@std@@QAEAAV012@XZ PROC NEAR ; std::_Tree<std::_Tmap_traits<unsigned long,CMailBox *,std::less<unsigned long>,std::allocator<std::pair<unsigned long const ,CMailBox *> >,0> >::const_iterator::operator--, COMDAT
; _this$ = ecx

; 227  : 			{	// predecrement

  00000	56		 push	 esi
  00001	8b f1		 mov	 esi, ecx

; 228  : 			_Dec();

  00003	e8 00 00 00 00	 call	 ?_Dec@const_iterator@?$_Tree@V?$_Tmap_traits@KPAVCMailBox@@U?$less@K@std@@V?$allocator@U?$pair@$$CBKPAVCMailBox@@@std@@@3@$0A@@std@@@std@@QAEXXZ ; std::_Tree<std::_Tmap_traits<unsigned long,CMailBox *,std::less<unsigned long>,std::allocator<std::pair<unsigned long const ,CMailBox *> >,0> >::const_iterator::_Dec

; 229  : 			return (*this);

  00008	8b c6		 mov	 eax, esi
  0000a	5e		 pop	 esi

; 230  : 			}

  0000b	c3		 ret	 0
??Fconst_iterator@?$_Tree@V?$_Tmap_traits@KPAVCMailBox@@U?$less@K@std@@V?$allocator@U?$pair@$$CBKPAVCMailBox@@@std@@@3@$0A@@std@@@std@@QAEAAV012@XZ ENDP ; std::_Tree<std::_Tmap_traits<unsigned long,CMailBox *,std::less<unsigned long>,std::allocator<std::pair<unsigned long const ,CMailBox *> >,0> >::const_iterator::operator--
_TEXT	ENDS
PUBLIC	?_Buynode@?$list@PAVCMail@@V?$allocator@PAVCMail@@@std@@@std@@IAEPAU_Node@?$_List_nod@PAVCMail@@V?$allocator@PAVCMail@@@std@@@2@PAU342@0ABQAVCMail@@@Z ; std::list<CMail *,std::allocator<CMail *> >::_Buynode
; Function compile flags: /Ogty
; File c:\program files\microsoft visual studio .net 2003\vc7\include\list
;	COMDAT ?_Buynode@?$list@PAVCMail@@V?$allocator@PAVCMail@@@std@@@std@@IAEPAU_Node@?$_List_nod@PAVCMail@@V?$allocator@PAVCMail@@@std@@@2@PAU342@0ABQAVCMail@@@Z
_TEXT	SEGMENT
__Next$ = 8						; size = 4
__Prev$ = 12						; size = 4
__Val$ = 16						; size = 4
?_Buynode@?$list@PAVCMail@@V?$allocator@PAVCMail@@@std@@@std@@IAEPAU_Node@?$_List_nod@PAVCMail@@V?$allocator@PAVCMail@@@std@@@2@PAU342@0ABQAVCMail@@@Z PROC NEAR ; std::list<CMail *,std::allocator<CMail *> >::_Buynode, COMDAT
; _this$ = ecx

; 918  : 		_Nodeptr _Pnode = this->_Alnod.allocate(1);

  00000	6a 0c		 push	 12			; 0000000cH
  00002	e8 00 00 00 00	 call	 ??2@YAPAXI@Z		; operator new
  00007	83 c4 04	 add	 esp, 4

; 919  : 		_TRY_BEGIN
; 920  : 		new ((void *)_Pnode) _Node(_Next, _Prev, _Val);

  0000a	85 c0		 test	 eax, eax
  0000c	74 16		 je	 SHORT $L204874
  0000e	8b 4c 24 04	 mov	 ecx, DWORD PTR __Next$[esp-4]
  00012	8b 54 24 08	 mov	 edx, DWORD PTR __Prev$[esp-4]
  00016	89 08		 mov	 DWORD PTR [eax], ecx
  00018	8b 4c 24 0c	 mov	 ecx, DWORD PTR __Val$[esp-4]
  0001c	89 50 04	 mov	 DWORD PTR [eax+4], edx
  0001f	8b 11		 mov	 edx, DWORD PTR [ecx]
  00021	89 50 08	 mov	 DWORD PTR [eax+8], edx
$L204874:

; 921  : 		_CATCH_ALL
; 922  : 		this->_Alnod.deallocate(_Pnode, 1);
; 923  : 		_RERAISE;
; 924  : 		_CATCH_END
; 925  : 		return (_Pnode);
; 926  : 		}

  00024	c2 0c 00	 ret	 12			; 0000000cH
?_Buynode@?$list@PAVCMail@@V?$allocator@PAVCMail@@@std@@@std@@IAEPAU_Node@?$_List_nod@PAVCMail@@V?$allocator@PAVCMail@@@std@@@2@PAU342@0ABQAVCMail@@@Z ENDP ; std::list<CMail *,std::allocator<CMail *> >::_Buynode
_TEXT	ENDS
PUBLIC	??0?$_List_ptr@PAVCMail@@V?$allocator@PAVCMail@@@std@@@std@@IAE@V?$allocator@PAVCMail@@@1@@Z ; std::_List_ptr<CMail *,std::allocator<CMail *> >::_List_ptr<CMail *,std::allocator<CMail *> >
; Function compile flags: /Ogty
;	COMDAT ??0?$_List_ptr@PAVCMail@@V?$allocator@PAVCMail@@@std@@@std@@IAE@V?$allocator@PAVCMail@@@1@@Z
_TEXT	SEGMENT
__Al$ = 8						; size = 1
??0?$_List_ptr@PAVCMail@@V?$allocator@PAVCMail@@@std@@@std@@IAE@V?$allocator@PAVCMail@@@1@@Z PROC NEAR ; std::_List_ptr<CMail *,std::allocator<CMail *> >::_List_ptr<CMail *,std::allocator<CMail *> >, COMDAT
; _this$ = ecx

; 64   : 		{	// construct base, and allocator from _Al

  00000	8b c1		 mov	 eax, ecx

; 65   : 		}

  00002	c2 04 00	 ret	 4
??0?$_List_ptr@PAVCMail@@V?$allocator@PAVCMail@@@std@@@std@@IAE@V?$allocator@PAVCMail@@@1@@Z ENDP ; std::_List_ptr<CMail *,std::allocator<CMail *> >::_List_ptr<CMail *,std::allocator<CMail *> >
_TEXT	ENDS
PUBLIC	?_Buynode@?$_Tree@V?$_Tmap_traits@KPAVCMail@@U?$less@K@std@@V?$allocator@U?$pair@$$CBKPAVCMail@@@std@@@3@$0A@@std@@@std@@IAEPAU_Node@?$_Tree_nod@V?$_Tmap_traits@KPAVCMail@@U?$less@K@std@@V?$allocator@U?$pair@$$CBKPAVCMail@@@std@@@3@$0A@@std@@@2@XZ ; std::_Tree<std::_Tmap_traits<unsigned long,CMail *,std::less<unsigned long>,std::allocator<std::pair<unsigned long const ,CMail *> >,0> >::_Buynode
; Function compile flags: /Ogty
; File c:\program files\microsoft visual studio .net 2003\vc7\include\xtree
;	COMDAT ?_Buynode@?$_Tree@V?$_Tmap_traits@KPAVCMail@@U?$less@K@std@@V?$allocator@U?$pair@$$CBKPAVCMail@@@std@@@3@$0A@@std@@@std@@IAEPAU_Node@?$_Tree_nod@V?$_Tmap_traits@KPAVCMail@@U?$less@K@std@@V?$allocator@U?$pair@$$CBKPAVCMail@@@std@@@3@$0A@@std@@@2@XZ
_TEXT	SEGMENT
?_Buynode@?$_Tree@V?$_Tmap_traits@KPAVCMail@@U?$less@K@std@@V?$allocator@U?$pair@$$CBKPAVCMail@@@std@@@3@$0A@@std@@@std@@IAEPAU_Node@?$_Tree_nod@V?$_Tmap_traits@KPAVCMail@@U?$less@K@std@@V?$allocator@U?$pair@$$CBKPAVCMail@@@std@@@3@$0A@@std@@@2@XZ PROC NEAR ; std::_Tree<std::_Tmap_traits<unsigned long,CMail *,std::less<unsigned long>,std::allocator<std::pair<unsigned long const ,CMail *> >,0> >::_Buynode, COMDAT
; _this$ = ecx

; 1106 : 		_Nodeptr _Wherenode = this->_Alnod.allocate(1);

  00000	6a 18		 push	 24			; 00000018H
  00002	e8 00 00 00 00	 call	 ??2@YAPAXI@Z		; operator new
  00007	83 c4 04	 add	 esp, 4

; 1107 : 		int _Linkcnt = 0;
; 1108 : 
; 1109 : 		_TRY_BEGIN
; 1110 : 		this->_Alptr.construct(&_Left(_Wherenode), 0);

  0000a	85 c0		 test	 eax, eax
  0000c	74 06		 je	 SHORT $L204955
  0000e	c7 00 00 00 00
	00		 mov	 DWORD PTR [eax], 0
$L204955:

; 1111 : 		++_Linkcnt;
; 1112 : 		this->_Alptr.construct(&_Parent(_Wherenode), 0);

  00014	8d 48 04	 lea	 ecx, DWORD PTR [eax+4]
  00017	85 c9		 test	 ecx, ecx
  00019	74 06		 je	 SHORT $L204982
  0001b	c7 01 00 00 00
	00		 mov	 DWORD PTR [ecx], 0
$L204982:

; 1113 : 		++_Linkcnt;
; 1114 : 		this->_Alptr.construct(&_Right(_Wherenode), 0);

  00021	8d 48 08	 lea	 ecx, DWORD PTR [eax+8]
  00024	85 c9		 test	 ecx, ecx
  00026	74 06		 je	 SHORT $L205009
  00028	c7 01 00 00 00
	00		 mov	 DWORD PTR [ecx], 0
$L205009:

; 1115 : 		_CATCH_ALL
; 1116 : 		if (1 < _Linkcnt)
; 1117 : 			this->_Alptr.destroy(&_Parent(_Wherenode));
; 1118 : 		if (0 < _Linkcnt)
; 1119 : 			this->_Alptr.destroy(&_Left(_Wherenode));
; 1120 : 		this->_Alnod.deallocate(_Wherenode, 1);
; 1121 : 		_RERAISE;
; 1122 : 		_CATCH_END
; 1123 : 		_Color(_Wherenode) = _Black;

  0002e	c6 40 14 01	 mov	 BYTE PTR [eax+20], 1

; 1124 : 		_Isnil(_Wherenode) = false;

  00032	c6 40 15 00	 mov	 BYTE PTR [eax+21], 0

; 1125 : 		return (_Wherenode);
; 1126 : 		}

  00036	c3		 ret	 0
?_Buynode@?$_Tree@V?$_Tmap_traits@KPAVCMail@@U?$less@K@std@@V?$allocator@U?$pair@$$CBKPAVCMail@@@std@@@3@$0A@@std@@@std@@IAEPAU_Node@?$_Tree_nod@V?$_Tmap_traits@KPAVCMail@@U?$less@K@std@@V?$allocator@U?$pair@$$CBKPAVCMail@@@std@@@3@$0A@@std@@@2@XZ ENDP ; std::_Tree<std::_Tmap_traits<unsigned long,CMail *,std::less<unsigned long>,std::allocator<std::pair<unsigned long const ,CMail *> >,0> >::_Buynode
_TEXT	ENDS
PUBLIC	??0?$_Tree_ptr@V?$_Tmap_traits@KPAVCMail@@U?$less@K@std@@V?$allocator@U?$pair@$$CBKPAVCMail@@@std@@@3@$0A@@std@@@std@@IAE@ABU?$less@K@1@V?$allocator@U?$pair@$$CBKPAVCMail@@@std@@@1@@Z ; std::_Tree_ptr<std::_Tmap_traits<unsigned long,CMail *,std::less<unsigned long>,std::allocator<std::pair<unsigned long const ,CMail *> >,0> >::_Tree_ptr<std::_Tmap_traits<unsigned long,CMail *,std::less<unsigned long>,std::allocator<std::pair<unsigned long const ,CMail *> >,0> >
; Function compile flags: /Ogty
;	COMDAT ??0?$_Tree_ptr@V?$_Tmap_traits@KPAVCMail@@U?$less@K@std@@V?$allocator@U?$pair@$$CBKPAVCMail@@@std@@@3@$0A@@std@@@std@@IAE@ABU?$less@K@1@V?$allocator@U?$pair@$$CBKPAVCMail@@@std@@@1@@Z
_TEXT	SEGMENT
__Parg$ = 8						; size = 4
__Al$ = 12						; size = 1
??0?$_Tree_ptr@V?$_Tmap_traits@KPAVCMail@@U?$less@K@std@@V?$allocator@U?$pair@$$CBKPAVCMail@@@std@@@3@$0A@@std@@@std@@IAE@ABU?$less@K@1@V?$allocator@U?$pair@$$CBKPAVCMail@@@std@@@1@@Z PROC NEAR ; std::_Tree_ptr<std::_Tmap_traits<unsigned long,CMail *,std::less<unsigned long>,std::allocator<std::pair<unsigned long const ,CMail *> >,0> >::_Tree_ptr<std::_Tmap_traits<unsigned long,CMail *,std::less<unsigned long>,std::allocator<std::pair<unsigned long const ,CMail *> >,0> >, COMDAT
; _this$ = ecx

; 76   : 		{	// construct base, and allocator from _Al

  00000	8b c1		 mov	 eax, ecx

; 77   : 		}

  00002	c2 08 00	 ret	 8
??0?$_Tree_ptr@V?$_Tmap_traits@KPAVCMail@@U?$less@K@std@@V?$allocator@U?$pair@$$CBKPAVCMail@@@std@@@3@$0A@@std@@@std@@IAE@ABU?$less@K@1@V?$allocator@U?$pair@$$CBKPAVCMail@@@std@@@1@@Z ENDP ; std::_Tree_ptr<std::_Tmap_traits<unsigned long,CMail *,std::less<unsigned long>,std::allocator<std::pair<unsigned long const ,CMail *> >,0> >::_Tree_ptr<std::_Tmap_traits<unsigned long,CMail *,std::less<unsigned long>,std::allocator<std::pair<unsigned long const ,CMail *> >,0> >
_TEXT	ENDS
PUBLIC	?_Buynode@?$_Tree@V?$_Tmap_traits@KPAVCMailBox@@U?$less@K@std@@V?$allocator@U?$pair@$$CBKPAVCMailBox@@@std@@@3@$0A@@std@@@std@@IAEPAU_Node@?$_Tree_nod@V?$_Tmap_traits@KPAVCMailBox@@U?$less@K@std@@V?$allocator@U?$pair@$$CBKPAVCMailBox@@@std@@@3@$0A@@std@@@2@XZ ; std::_Tree<std::_Tmap_traits<unsigned long,CMailBox *,std::less<unsigned long>,std::allocator<std::pair<unsigned long const ,CMailBox *> >,0> >::_Buynode
; Function compile flags: /Ogty
;	COMDAT ?_Buynode@?$_Tree@V?$_Tmap_traits@KPAVCMailBox@@U?$less@K@std@@V?$allocator@U?$pair@$$CBKPAVCMailBox@@@std@@@3@$0A@@std@@@std@@IAEPAU_Node@?$_Tree_nod@V?$_Tmap_traits@KPAVCMailBox@@U?$less@K@std@@V?$allocator@U?$pair@$$CBKPAVCMailBox@@@std@@@3@$0A@@std@@@2@XZ
_TEXT	SEGMENT
?_Buynode@?$_Tree@V?$_Tmap_traits@KPAVCMailBox@@U?$less@K@std@@V?$allocator@U?$pair@$$CBKPAVCMailBox@@@std@@@3@$0A@@std@@@std@@IAEPAU_Node@?$_Tree_nod@V?$_Tmap_traits@KPAVCMailBox@@U?$less@K@std@@V?$allocator@U?$pair@$$CBKPAVCMailBox@@@std@@@3@$0A@@std@@@2@XZ PROC NEAR ; std::_Tree<std::_Tmap_traits<unsigned long,CMailBox *,std::less<unsigned long>,std::allocator<std::pair<unsigned long const ,CMailBox *> >,0> >::_Buynode, COMDAT
; _this$ = ecx

; 1106 : 		_Nodeptr _Wherenode = this->_Alnod.allocate(1);

  00000	6a 18		 push	 24			; 00000018H
  00002	e8 00 00 00 00	 call	 ??2@YAPAXI@Z		; operator new
  00007	83 c4 04	 add	 esp, 4

; 1107 : 		int _Linkcnt = 0;
; 1108 : 
; 1109 : 		_TRY_BEGIN
; 1110 : 		this->_Alptr.construct(&_Left(_Wherenode), 0);

  0000a	85 c0		 test	 eax, eax
  0000c	74 06		 je	 SHORT $L205092
  0000e	c7 00 00 00 00
	00		 mov	 DWORD PTR [eax], 0
$L205092:

; 1111 : 		++_Linkcnt;
; 1112 : 		this->_Alptr.construct(&_Parent(_Wherenode), 0);

  00014	8d 48 04	 lea	 ecx, DWORD PTR [eax+4]
  00017	85 c9		 test	 ecx, ecx
  00019	74 06		 je	 SHORT $L205119
  0001b	c7 01 00 00 00
	00		 mov	 DWORD PTR [ecx], 0
$L205119:

; 1113 : 		++_Linkcnt;
; 1114 : 		this->_Alptr.construct(&_Right(_Wherenode), 0);

  00021	8d 48 08	 lea	 ecx, DWORD PTR [eax+8]
  00024	85 c9		 test	 ecx, ecx
  00026	74 06		 je	 SHORT $L205146
  00028	c7 01 00 00 00
	00		 mov	 DWORD PTR [ecx], 0
$L205146:

; 1115 : 		_CATCH_ALL
; 1116 : 		if (1 < _Linkcnt)
; 1117 : 			this->_Alptr.destroy(&_Parent(_Wherenode));
; 1118 : 		if (0 < _Linkcnt)
; 1119 : 			this->_Alptr.destroy(&_Left(_Wherenode));
; 1120 : 		this->_Alnod.deallocate(_Wherenode, 1);
; 1121 : 		_RERAISE;
; 1122 : 		_CATCH_END
; 1123 : 		_Color(_Wherenode) = _Black;

  0002e	c6 40 14 01	 mov	 BYTE PTR [eax+20], 1

; 1124 : 		_Isnil(_Wherenode) = false;

  00032	c6 40 15 00	 mov	 BYTE PTR [eax+21], 0

; 1125 : 		return (_Wherenode);
; 1126 : 		}

  00036	c3		 ret	 0
?_Buynode@?$_Tree@V?$_Tmap_traits@KPAVCMailBox@@U?$less@K@std@@V?$allocator@U?$pair@$$CBKPAVCMailBox@@@std@@@3@$0A@@std@@@std@@IAEPAU_Node@?$_Tree_nod@V?$_Tmap_traits@KPAVCMailBox@@U?$less@K@std@@V?$allocator@U?$pair@$$CBKPAVCMailBox@@@std@@@3@$0A@@std@@@2@XZ ENDP ; std::_Tree<std::_Tmap_traits<unsigned long,CMailBox *,std::less<unsigned long>,std::allocator<std::pair<unsigned long const ,CMailBox *> >,0> >::_Buynode
_TEXT	ENDS
PUBLIC	??0?$_Tree_ptr@V?$_Tmap_traits@KPAVCMailBox@@U?$less@K@std@@V?$allocator@U?$pair@$$CBKPAVCMailBox@@@std@@@3@$0A@@std@@@std@@IAE@ABU?$less@K@1@V?$allocator@U?$pair@$$CBKPAVCMailBox@@@std@@@1@@Z ; std::_Tree_ptr<std::_Tmap_traits<unsigned long,CMailBox *,std::less<unsigned long>,std::allocator<std::pair<unsigned long const ,CMailBox *> >,0> >::_Tree_ptr<std::_Tmap_traits<unsigned long,CMailBox *,std::less<unsigned long>,std::allocator<std::pair<unsigned long const ,CMailBox *> >,0> >
; Function compile flags: /Ogty
;	COMDAT ??0?$_Tree_ptr@V?$_Tmap_traits@KPAVCMailBox@@U?$less@K@std@@V?$allocator@U?$pair@$$CBKPAVCMailBox@@@std@@@3@$0A@@std@@@std@@IAE@ABU?$less@K@1@V?$allocator@U?$pair@$$CBKPAVCMailBox@@@std@@@1@@Z
_TEXT	SEGMENT
__Parg$ = 8						; size = 4
__Al$ = 12						; size = 1
??0?$_Tree_ptr@V?$_Tmap_traits@KPAVCMailBox@@U?$less@K@std@@V?$allocator@U?$pair@$$CBKPAVCMailBox@@@std@@@3@$0A@@std@@@std@@IAE@ABU?$less@K@1@V?$allocator@U?$pair@$$CBKPAVCMailBox@@@std@@@1@@Z PROC NEAR ; std::_Tree_ptr<std::_Tmap_traits<unsigned long,CMailBox *,std::less<unsigned long>,std::allocator<std::pair<unsigned long const ,CMailBox *> >,0> >::_Tree_ptr<std::_Tmap_traits<unsigned long,CMailBox *,std::less<unsigned long>,std::allocator<std::pair<unsigned long const ,CMailBox *> >,0> >, COMDAT
; _this$ = ecx

; 76   : 		{	// construct base, and allocator from _Al

  00000	8b c1		 mov	 eax, ecx

; 77   : 		}

  00002	c2 08 00	 ret	 8
??0?$_Tree_ptr@V?$_Tmap_traits@KPAVCMailBox@@U?$less@K@std@@V?$allocator@U?$pair@$$CBKPAVCMailBox@@@std@@@3@$0A@@std@@@std@@IAE@ABU?$less@K@1@V?$allocator@U?$pair@$$CBKPAVCMailBox@@@std@@@1@@Z ENDP ; std::_Tree_ptr<std::_Tmap_traits<unsigned long,CMailBox *,std::less<unsigned long>,std::allocator<std::pair<unsigned long const ,CMailBox *> >,0> >::_Tree_ptr<std::_Tmap_traits<unsigned long,CMailBox *,std::less<unsigned long>,std::allocator<std::pair<unsigned long const ,CMailBox *> >,0> >
_TEXT	ENDS
PUBLIC	??$_Uninitialized_fill_n@PAPAVCMail@@IPAV1@V?$allocator@PAVCMail@@@std@@@std@@YAXPAPAVCMail@@IABQAV1@AAV?$allocator@PAVCMail@@@0@@Z ; std::_Uninitialized_fill_n<CMail * *,unsigned int,CMail *,std::allocator<CMail *> >
; Function compile flags: /Ogty
; File c:\program files\microsoft visual studio .net 2003\vc7\include\memory
;	COMDAT ??$_Uninitialized_fill_n@PAPAVCMail@@IPAV1@V?$allocator@PAVCMail@@@std@@@std@@YAXPAPAVCMail@@IABQAV1@AAV?$allocator@PAVCMail@@@0@@Z
_TEXT	SEGMENT
__First$ = 8						; size = 4
__Count$ = 12						; size = 4
__Val$ = 16						; size = 4
__Al$ = 20						; size = 4
??$_Uninitialized_fill_n@PAPAVCMail@@IPAV1@V?$allocator@PAVCMail@@@std@@@std@@YAXPAPAVCMail@@IABQAV1@AAV?$allocator@PAVCMail@@@0@@Z PROC NEAR ; std::_Uninitialized_fill_n<CMail * *,unsigned int,CMail *,std::allocator<CMail *> >, COMDAT

; 256  : 	_Uninit_fill_n(_First, _Count, _Val, _Al,
; 257  : 		_Ptr_cat(_First, _First));

  00000	8b 4c 24 08	 mov	 ecx, DWORD PTR __Count$[esp-4]
  00004	85 c9		 test	 ecx, ecx
  00006	8b 44 24 04	 mov	 eax, DWORD PTR __First$[esp-4]
  0000a	76 10		 jbe	 SHORT $L205213
  0000c	8b 54 24 0c	 mov	 edx, DWORD PTR __Val$[esp-4]
  00010	56		 push	 esi
$L205211:
  00011	8b 32		 mov	 esi, DWORD PTR [edx]
  00013	89 30		 mov	 DWORD PTR [eax], esi
  00015	83 c0 04	 add	 eax, 4
  00018	49		 dec	 ecx
  00019	75 f6		 jne	 SHORT $L205211
  0001b	5e		 pop	 esi
$L205213:

; 258  : 	}

  0001c	c3		 ret	 0
??$_Uninitialized_fill_n@PAPAVCMail@@IPAV1@V?$allocator@PAVCMail@@@std@@@std@@YAXPAPAVCMail@@IABQAV1@AAV?$allocator@PAVCMail@@@0@@Z ENDP ; std::_Uninitialized_fill_n<CMail * *,unsigned int,CMail *,std::allocator<CMail *> >
_TEXT	ENDS
PUBLIC	??$_Ucopy@PAPAVCMail@@@?$vector@PAVCMail@@V?$allocator@PAVCMail@@@std@@@std@@IAEPAPAVCMail@@PAPAV2@00@Z ; std::vector<CMail *,std::allocator<CMail *> >::_Ucopy<CMail * *>
; Function compile flags: /Ogty
; File c:\program files\microsoft visual studio .net 2003\vc7\include\vector
;	COMDAT ??$_Ucopy@PAPAVCMail@@@?$vector@PAVCMail@@V?$allocator@PAVCMail@@@std@@@std@@IAEPAPAVCMail@@PAPAV2@00@Z
_TEXT	SEGMENT
__First$ = 8						; size = 4
__Last$ = 12						; size = 4
__Ptr$ = 16						; size = 4
??$_Ucopy@PAPAVCMail@@@?$vector@PAVCMail@@V?$allocator@PAVCMail@@@std@@@std@@IAEPAPAVCMail@@PAPAV2@00@Z PROC NEAR ; std::vector<CMail *,std::allocator<CMail *> >::_Ucopy<CMail * *>, COMDAT
; _this$ = ecx

; 802  : 		{	// copy initializing [_First, _Last), using allocator
; 803  : 		return (_Uninitialized_copy(_First, _Last,
; 804  : 			_Ptr, this->_Alval));

  00000	8b 4c 24 04	 mov	 ecx, DWORD PTR __First$[esp-4]
  00004	8b 44 24 08	 mov	 eax, DWORD PTR __Last$[esp-4]
  00008	2b c1		 sub	 eax, ecx
  0000a	56		 push	 esi
  0000b	c1 f8 02	 sar	 eax, 2
  0000e	8d 34 85 00 00
	00 00		 lea	 esi, DWORD PTR [eax*4]
  00015	8b 44 24 10	 mov	 eax, DWORD PTR __Ptr$[esp]
  00019	56		 push	 esi
  0001a	51		 push	 ecx
  0001b	50		 push	 eax
  0001c	e8 00 00 00 00	 call	 _memmove
  00021	83 c4 0c	 add	 esp, 12			; 0000000cH
  00024	03 c6		 add	 eax, esi
  00026	5e		 pop	 esi

; 805  : 		}

  00027	c2 0c 00	 ret	 12			; 0000000cH
??$_Ucopy@PAPAVCMail@@@?$vector@PAVCMail@@V?$allocator@PAVCMail@@@std@@@std@@IAEPAPAVCMail@@PAPAV2@00@Z ENDP ; std::vector<CMail *,std::allocator<CMail *> >::_Ucopy<CMail * *>
_TEXT	ENDS
PUBLIC	??0COleDateTimeSpan@ATL@@QAE@JHHH@Z		; ATL::COleDateTimeSpan::COleDateTimeSpan
; Function compile flags: /Ogty
; File c:\program files\microsoft visual studio .net 2003\vc7\atlmfc\include\atlcomtime.inl
;	COMDAT ??0COleDateTimeSpan@ATL@@QAE@JHHH@Z
_TEXT	SEGMENT
_lDays$ = 8						; size = 4
_nHours$ = 12						; size = 4
_nMins$ = 16						; size = 4
_nSecs$ = 20						; size = 4
??0COleDateTimeSpan@ATL@@QAE@JHHH@Z PROC NEAR		; ATL::COleDateTimeSpan::COleDateTimeSpan, COMDAT
; _this$ = ecx

; 40   : 	SetDateTimeSpan(lDays, nHours, nMins, nSecs);

  00000	8b 44 24 10	 mov	 eax, DWORD PTR _nSecs$[esp-4]
  00004	8b 54 24 08	 mov	 edx, DWORD PTR _nHours$[esp-4]
  00008	56		 push	 esi
  00009	50		 push	 eax
  0000a	8b 44 24 0c	 mov	 eax, DWORD PTR _lDays$[esp+4]
  0000e	8b f1		 mov	 esi, ecx
  00010	8b 4c 24 14	 mov	 ecx, DWORD PTR _nMins$[esp+4]
  00014	51		 push	 ecx
  00015	52		 push	 edx
  00016	50		 push	 eax
  00017	8b ce		 mov	 ecx, esi
  00019	e8 00 00 00 00	 call	 ?SetDateTimeSpan@COleDateTimeSpan@ATL@@QAEXJHHH@Z ; ATL::COleDateTimeSpan::SetDateTimeSpan

; 41   : }

  0001e	8b c6		 mov	 eax, esi
  00020	5e		 pop	 esi
  00021	c2 10 00	 ret	 16			; 00000010H
??0COleDateTimeSpan@ATL@@QAE@JHHH@Z ENDP		; ATL::COleDateTimeSpan::COleDateTimeSpan
_TEXT	ENDS
PUBLIC	?_Tidy@?$basic_string@DU?$char_traits@D@std@@V?$allocator@D@2@@std@@IAEX_NI@Z ; std::basic_string<char,std::char_traits<char>,std::allocator<char> >::_Tidy
; Function compile flags: /Ogty
; File c:\program files\microsoft visual studio .net 2003\vc7\include\xstring
;	COMDAT ?_Tidy@?$basic_string@DU?$char_traits@D@std@@V?$allocator@D@2@@std@@IAEX_NI@Z
_TEXT	SEGMENT
__Built$ = 8						; size = 1
__Newsize$ = 12						; size = 4
?_Tidy@?$basic_string@DU?$char_traits@D@std@@V?$allocator@D@2@@std@@IAEX_NI@Z PROC NEAR ; std::basic_string<char,std::char_traits<char>,std::allocator<char> >::_Tidy, COMDAT
; _this$ = ecx

; 1510 : 		if (!_Built)

  00000	8a 44 24 04	 mov	 al, BYTE PTR __Built$[esp-4]
  00004	84 c0		 test	 al, al
  00006	53		 push	 ebx
  00007	55		 push	 ebp
  00008	8b 6c 24 10	 mov	 ebp, DWORD PTR __Newsize$[esp+4]
  0000c	8b d9		 mov	 ebx, ecx
  0000e	74 2f		 je	 SHORT $L205247

; 1511 : 			;
; 1512 : 		else if (_BUF_SIZE <= _Myres)

  00010	83 7b 18 10	 cmp	 DWORD PTR [ebx+24], 16	; 00000010H
  00014	72 29		 jb	 SHORT $L205247

; 1513 : 			{	// copy any leftovers to small buffer and deallocate
; 1514 : 			_Elem *_Ptr = _Bx._Ptr;
; 1515 : 			if (0 < _Newsize)

  00016	85 ed		 test	 ebp, ebp
  00018	8b 43 04	 mov	 eax, DWORD PTR [ebx+4]
  0001b	57		 push	 edi
  0001c	8d 7b 04	 lea	 edi, DWORD PTR [ebx+4]
  0001f	76 14		 jbe	 SHORT $L205244
  00021	56		 push	 esi

; 1516 : 				_Traits::copy(_Bx._Buf, _Ptr, _Newsize);

  00022	8b cd		 mov	 ecx, ebp
  00024	8b d1		 mov	 edx, ecx
  00026	c1 e9 02	 shr	 ecx, 2
  00029	8b f0		 mov	 esi, eax
  0002b	f3 a5		 rep movsd
  0002d	8b ca		 mov	 ecx, edx
  0002f	83 e1 03	 and	 ecx, 3
  00032	f3 a4		 rep movsb
  00034	5e		 pop	 esi
$L205244:

; 1517 : 			_Mybase::_Alval.deallocate(_Ptr, _Myres + 1);

  00035	50		 push	 eax
  00036	e8 00 00 00 00	 call	 ??3@YAXPAX@Z		; operator delete
  0003b	83 c4 04	 add	 esp, 4
  0003e	5f		 pop	 edi
$L205247:

; 1518 : 			}
; 1519 : 		_Myres = _BUF_SIZE - 1;
; 1520 : 		_Eos(_Newsize);

  0003f	89 6b 14	 mov	 DWORD PTR [ebx+20], ebp
  00042	c7 43 18 0f 00
	00 00		 mov	 DWORD PTR [ebx+24], 15	; 0000000fH
  00049	c6 44 2b 04 00	 mov	 BYTE PTR [ebx+ebp+4], 0
  0004e	5d		 pop	 ebp
  0004f	5b		 pop	 ebx

; 1521 : 		}

  00050	c2 08 00	 ret	 8
?_Tidy@?$basic_string@DU?$char_traits@D@std@@V?$allocator@D@2@@std@@IAEX_NI@Z ENDP ; std::basic_string<char,std::char_traits<char>,std::allocator<char> >::_Tidy
_TEXT	ENDS
PUBLIC	?erase@?$basic_string@DU?$char_traits@D@std@@V?$allocator@D@2@@std@@QAEAAV12@II@Z ; std::basic_string<char,std::char_traits<char>,std::allocator<char> >::erase
EXTRN	?_Xran@_String_base@std@@QBEXXZ:NEAR		; std::_String_base::_Xran
; Function compile flags: /Ogty
;	COMDAT ?erase@?$basic_string@DU?$char_traits@D@std@@V?$allocator@D@2@@std@@QAEAAV12@II@Z
_TEXT	SEGMENT
__Off$ = 8						; size = 4
__Count$ = 12						; size = 4
?erase@?$basic_string@DU?$char_traits@D@std@@V?$allocator@D@2@@std@@QAEAAV12@II@Z PROC NEAR ; std::basic_string<char,std::char_traits<char>,std::allocator<char> >::erase, COMDAT
; _this$ = ecx

; 792  : 		{	// erase elements [_Off, _Off + _Count)

  00000	55		 push	 ebp

; 793  : 		if (_Mysize < _Off)

  00001	8b 6c 24 08	 mov	 ebp, DWORD PTR __Off$[esp]
  00005	56		 push	 esi
  00006	8b f1		 mov	 esi, ecx
  00008	39 6e 14	 cmp	 DWORD PTR [esi+20], ebp
  0000b	57		 push	 edi
  0000c	73 05		 jae	 SHORT $L184993

; 794  : 			_String_base::_Xran();	// _Off off end

  0000e	e8 00 00 00 00	 call	 ?_Xran@_String_base@std@@QBEXXZ ; std::_String_base::_Xran
$L184993:

; 795  : 		if (_Mysize - _Off < _Count)

  00013	8b 46 14	 mov	 eax, DWORD PTR [esi+20]
  00016	8b 7c 24 14	 mov	 edi, DWORD PTR __Count$[esp+8]
  0001a	2b c5		 sub	 eax, ebp
  0001c	3b c7		 cmp	 eax, edi
  0001e	73 02		 jae	 SHORT $L184994

; 796  : 			_Count = _Mysize - _Off;	// trim _Count

  00020	8b f8		 mov	 edi, eax
$L184994:

; 797  : 		if (0 < _Count)

  00022	85 ff		 test	 edi, edi
  00024	76 47		 jbe	 SHORT $L205311

; 798  : 			{	// move elements down
; 799  : 			_Traits::move(_Myptr() + _Off, _Myptr() + _Off + _Count,
; 800  : 				_Mysize - _Off - _Count);

  00026	8b 4e 18	 mov	 ecx, DWORD PTR [esi+24]
  00029	83 f9 10	 cmp	 ecx, 16			; 00000010H
  0002c	53		 push	 ebx
  0002d	8d 5e 04	 lea	 ebx, DWORD PTR [esi+4]
  00030	72 04		 jb	 SHORT $L205276
  00032	8b 13		 mov	 edx, DWORD PTR [ebx]
  00034	eb 02		 jmp	 SHORT $L205277
$L205276:
  00036	8b d3		 mov	 edx, ebx
$L205277:
  00038	83 f9 10	 cmp	 ecx, 16			; 00000010H
  0003b	72 04		 jb	 SHORT $L205283
  0003d	8b 0b		 mov	 ecx, DWORD PTR [ebx]
  0003f	eb 02		 jmp	 SHORT $L205284
$L205283:
  00041	8b cb		 mov	 ecx, ebx
$L205284:
  00043	2b c7		 sub	 eax, edi

; 803  : 			}
; 804  : 		return (*this);

  00045	03 d5		 add	 edx, ebp
  00047	50		 push	 eax
  00048	03 d7		 add	 edx, edi
  0004a	52		 push	 edx
  0004b	03 cd		 add	 ecx, ebp
  0004d	51		 push	 ecx
  0004e	e8 00 00 00 00	 call	 _memmove
  00053	8b 46 14	 mov	 eax, DWORD PTR [esi+20]
  00056	8b 4e 18	 mov	 ecx, DWORD PTR [esi+24]
  00059	2b c7		 sub	 eax, edi
  0005b	83 c4 0c	 add	 esp, 12			; 0000000cH
  0005e	83 f9 10	 cmp	 ecx, 16			; 00000010H
  00061	89 46 14	 mov	 DWORD PTR [esi+20], eax
  00064	72 02		 jb	 SHORT $L205306

; 801  : 			size_type _Newsize = _Mysize - _Count;
; 802  : 			_Eos(_Newsize);

  00066	8b 1b		 mov	 ebx, DWORD PTR [ebx]
$L205306:
  00068	c6 04 03 00	 mov	 BYTE PTR [ebx+eax], 0
  0006c	5b		 pop	 ebx
$L205311:
  0006d	5f		 pop	 edi

; 803  : 			}
; 804  : 		return (*this);

  0006e	8b c6		 mov	 eax, esi
  00070	5e		 pop	 esi
  00071	5d		 pop	 ebp

; 805  : 		}

  00072	c2 08 00	 ret	 8
?erase@?$basic_string@DU?$char_traits@D@std@@V?$allocator@D@2@@std@@QAEAAV12@II@Z ENDP ; std::basic_string<char,std::char_traits<char>,std::allocator<char> >::erase
_TEXT	ENDS
PUBLIC	?_Copy@?$basic_string@DU?$char_traits@D@std@@V?$allocator@D@2@@std@@IAEXII@Z ; std::basic_string<char,std::char_traits<char>,std::allocator<char> >::_Copy
;	COMDAT xdata$x
; File c:\program files\microsoft visual studio .net 2003\vc7\include\iosfwd
xdata$x	SEGMENT
$T205514 DD	0ffffffffH
	DD	00H
	DD	0ffffffffH
	DD	00H
	DD	01H
	DD	00H
	DD	01H
	DD	00H
$T205516 DD	00H
	DD	00H
	DD	00H
	DD	FLAT:$L205317
$T205517 DD	00H
	DD	00H
	DD	00H
	DD	FLAT:$L205315
$T205515 DD	02H
	DD	02H
	DD	03H
	DD	01H
	DD	FLAT:$T205516
	DD	00H
	DD	00H
	DD	03H
	DD	01H
	DD	FLAT:$T205517
$T205509 DD	019930520H
	DD	04H
	DD	FLAT:$T205514
	DD	02H
	DD	FLAT:$T205515
	DD	2 DUP(00H)
; Function compile flags: /Ogty
; File c:\program files\microsoft visual studio .net 2003\vc7\include\xstring
xdata$x	ENDS
;	COMDAT ?_Copy@?$basic_string@DU?$char_traits@D@std@@V?$allocator@D@2@@std@@IAEXII@Z
_TEXT	SEGMENT
__Newres$ = -24						; size = 4
_this$ = -20						; size = 4
__$EHRec$ = -16						; size = 16
__Ptr$ = 8						; size = 4
__Newsize$ = 8						; size = 4
__Oldlen$ = 12						; size = 4
?_Copy@?$basic_string@DU?$char_traits@D@std@@V?$allocator@D@2@@std@@IAEXII@Z PROC NEAR ; std::basic_string<char,std::char_traits<char>,std::allocator<char> >::_Copy, COMDAT
; _this$ = ecx

; 1444 : 		{	// copy _Oldlen elements to newly allocated buffer

  00000	55		 push	 ebp
  00001	8b ec		 mov	 ebp, esp
  00003	6a ff		 push	 -1
  00005	68 00 00 00 00	 push	 __ehhandler$?_Copy@?$basic_string@DU?$char_traits@D@std@@V?$allocator@D@2@@std@@IAEXII@Z
  0000a	64 a1 00 00 00
	00		 mov	 eax, DWORD PTR fs:__except_list
  00010	50		 push	 eax
  00011	64 89 25 00 00
	00 00		 mov	 DWORD PTR fs:__except_list, esp
  00018	83 ec 0c	 sub	 esp, 12			; 0000000cH

; 1445 : 		size_type _Newres = _Newsize | _ALLOC_MASK;

  0001b	8b 45 08	 mov	 eax, DWORD PTR __Newsize$[ebp]
  0001e	53		 push	 ebx
  0001f	56		 push	 esi
  00020	8b d8		 mov	 ebx, eax
  00022	83 cb 0f	 or	 ebx, 15			; 0000000fH

; 1446 : 		if (max_size() < _Newres)

  00025	83 fb fe	 cmp	 ebx, -2			; fffffffeH
  00028	57		 push	 edi
  00029	8b f1		 mov	 esi, ecx
  0002b	89 65 f0	 mov	 DWORD PTR __$EHRec$[ebp], esp
  0002e	89 75 ec	 mov	 DWORD PTR _this$[ebp], esi
  00031	76 04		 jbe	 SHORT $L185550

; 1447 : 			_Newres = _Newsize;	// undo roundup if too big

  00033	8b d8		 mov	 ebx, eax

; 1448 : 		else if (_Newres / 3 < _Myres / 2

  00035	eb 22		 jmp	 SHORT $L185552
$L185550:

; 1449 : 			&& _Myres <= max_size() - _Myres / 2)

  00037	8b 7e 18	 mov	 edi, DWORD PTR [esi+24]
  0003a	b8 ab aa aa aa	 mov	 eax, -1431655765	; aaaaaaabH
  0003f	f7 e3		 mul	 ebx
  00041	8b cf		 mov	 ecx, edi
  00043	d1 e9		 shr	 ecx, 1
  00045	d1 ea		 shr	 edx, 1
  00047	3b d1		 cmp	 edx, ecx
  00049	73 0e		 jae	 SHORT $L185552
  0004b	b8 fe ff ff ff	 mov	 eax, -2			; fffffffeH
  00050	2b c1		 sub	 eax, ecx
  00052	3b f8		 cmp	 edi, eax
  00054	77 03		 ja	 SHORT $L185552

; 1450 : 			_Newres = _Myres + _Myres / 2;	// grow exponentially if possible

  00056	8d 1c 39	 lea	 ebx, DWORD PTR [ecx+edi]
$L185552:

; 1451 : 		_Elem *_Ptr;
; 1452 : 
; 1453 : 		_TRY_BEGIN
; 1454 : 			_Ptr = _Mybase::_Alval.allocate(_Newres + 1);

  00059	8d 4b 01	 lea	 ecx, DWORD PTR [ebx+1]
  0005c	51		 push	 ecx
  0005d	c7 45 fc 00 00
	00 00		 mov	 DWORD PTR __$EHRec$[ebp+12], 0
  00064	e8 00 00 00 00	 call	 ??2@YAPAXI@Z		; operator new
  00069	8b d0		 mov	 edx, eax
  0006b	83 c4 04	 add	 esp, 4
  0006e	89 55 08	 mov	 DWORD PTR __Ptr$[ebp], edx
  00071	eb 29		 jmp	 SHORT $L185554
$L205315:

; 1455 : 		_CATCH_ALL
; 1456 : 			_Newres = _Newsize;	// allocation failed, undo roundup and retry

  00073	8b 45 08	 mov	 eax, DWORD PTR __Newsize$[ebp]
  00076	89 45 e8	 mov	 DWORD PTR __Newres$[ebp], eax

; 1457 : 			_TRY_BEGIN
; 1458 : 				_Ptr = _Mybase::_Alval.allocate(_Newres + 1);

  00079	40		 inc	 eax
  0007a	89 65 f0	 mov	 DWORD PTR __$EHRec$[ebp], esp
  0007d	50		 push	 eax
  0007e	c6 45 fc 02	 mov	 BYTE PTR __$EHRec$[ebp+12], 2
  00082	e8 00 00 00 00	 call	 ??2@YAPAXI@Z		; operator new
  00087	89 45 08	 mov	 DWORD PTR __Ptr$[ebp], eax
  0008a	83 c4 04	 add	 esp, 4

; 1462 : 			_CATCH_END
; 1463 : 		_CATCH_END

  0008d	b8 00 00 00 00	 mov	 eax, $L205510
  00092	c3		 ret	 0
$L205510:
  00093	8b 5d e8	 mov	 ebx, DWORD PTR __Newres$[ebp]
  00096	8b 75 ec	 mov	 esi, DWORD PTR _this$[ebp]
  00099	8b 55 08	 mov	 edx, DWORD PTR __Ptr$[ebp]
$L185554:

; 1464 : 
; 1465 : 		if (0 < _Oldlen)

  0009c	8b 4d 0c	 mov	 ecx, DWORD PTR __Oldlen$[ebp]
  0009f	85 c9		 test	 ecx, ecx
  000a1	76 24		 jbe	 SHORT $L205435

; 1466 : 			_Traits::copy(_Ptr, _Myptr(), _Oldlen);	// copy existing elements

  000a3	83 7e 18 10	 cmp	 DWORD PTR [esi+24], 16	; 00000010H
  000a7	72 05		 jb	 SHORT $L205430
  000a9	8b 76 04	 mov	 esi, DWORD PTR [esi+4]
  000ac	eb 03		 jmp	 SHORT $L205431
$L205430:
  000ae	83 c6 04	 add	 esi, 4
$L205431:
  000b1	8b c1		 mov	 eax, ecx
  000b3	c1 e9 02	 shr	 ecx, 2
  000b6	8b fa		 mov	 edi, edx
  000b8	f3 a5		 rep movsd
  000ba	8b c8		 mov	 ecx, eax
  000bc	83 e1 03	 and	 ecx, 3
  000bf	f3 a4		 rep movsb
  000c1	8b 75 ec	 mov	 esi, DWORD PTR _this$[ebp]
  000c4	8b 4d 0c	 mov	 ecx, DWORD PTR __Oldlen$[ebp]
$L205435:

; 1467 : 		_Tidy(true);

  000c7	83 7e 18 10	 cmp	 DWORD PTR [esi+24], 16	; 00000010H
  000cb	72 12		 jb	 SHORT $L205477
  000cd	8b 4e 04	 mov	 ecx, DWORD PTR [esi+4]
  000d0	51		 push	 ecx
  000d1	e8 00 00 00 00	 call	 ??3@YAXPAX@Z		; operator delete
  000d6	8b 55 08	 mov	 edx, DWORD PTR __Ptr$[ebp]
  000d9	8b 4d 0c	 mov	 ecx, DWORD PTR __Oldlen$[ebp]
  000dc	83 c4 04	 add	 esp, 4
$L205477:

; 1468 : 		_Bx._Ptr = _Ptr;
; 1469 : 		_Myres = _Newres;
; 1470 : 		_Eos(_Oldlen);

  000df	83 fb 10	 cmp	 ebx, 16			; 00000010H
  000e2	8d 46 04	 lea	 eax, DWORD PTR [esi+4]
  000e5	c6 00 00	 mov	 BYTE PTR [eax], 0
  000e8	89 10		 mov	 DWORD PTR [eax], edx
  000ea	89 5e 18	 mov	 DWORD PTR [esi+24], ebx
  000ed	89 4e 14	 mov	 DWORD PTR [esi+20], ecx
  000f0	72 02		 jb	 SHORT $L205505
  000f2	8b c2		 mov	 eax, edx
$L205505:

; 1471 : 		}

  000f4	5f		 pop	 edi
  000f5	c6 04 08 00	 mov	 BYTE PTR [eax+ecx], 0
  000f9	8b 4d f4	 mov	 ecx, DWORD PTR __$EHRec$[ebp+4]
  000fc	5e		 pop	 esi
  000fd	64 89 0d 00 00
	00 00		 mov	 DWORD PTR fs:__except_list, ecx
  00104	5b		 pop	 ebx
  00105	8b e5		 mov	 esp, ebp
  00107	5d		 pop	 ebp
  00108	c2 08 00	 ret	 8
$L205317:

; 1459 : 			_CATCH_ALL
; 1460 : 			_Tidy(true);	// failed again, discard storage and reraise

  0010b	8b 75 ec	 mov	 esi, DWORD PTR _this$[ebp]
  0010e	83 7e 18 10	 cmp	 DWORD PTR [esi+24], 16	; 00000010H
  00112	72 0c		 jb	 SHORT $L205416
  00114	8b 56 04	 mov	 edx, DWORD PTR [esi+4]
  00117	52		 push	 edx
  00118	e8 00 00 00 00	 call	 ??3@YAXPAX@Z		; operator delete
  0011d	83 c4 04	 add	 esp, 4
$L205416:

; 1461 : 			_RERAISE;

  00120	6a 00		 push	 0
  00122	c7 46 18 0f 00
	00 00		 mov	 DWORD PTR [esi+24], 15	; 0000000fH
  00129	c7 46 14 00 00
	00 00		 mov	 DWORD PTR [esi+20], 0
  00130	6a 00		 push	 0
  00132	c6 46 04 00	 mov	 BYTE PTR [esi+4], 0
  00136	e8 00 00 00 00	 call	 __CxxThrowException@8
$L205513:
  0013b	cc		 int	 3
_TEXT	ENDS
;	COMDAT text$x
text$x	SEGMENT
__ehhandler$?_Copy@?$basic_string@DU?$char_traits@D@std@@V?$allocator@D@2@@std@@IAEXII@Z:
  00000	b8 00 00 00 00	 mov	 eax, OFFSET FLAT:$T205509
  00005	e9 00 00 00 00	 jmp	 ___CxxFrameHandler
text$x	ENDS
?_Copy@?$basic_string@DU?$char_traits@D@std@@V?$allocator@D@2@@std@@IAEXII@Z ENDP ; std::basic_string<char,std::char_traits<char>,std::allocator<char> >::_Copy
PUBLIC	__real@4010000000000000
PUBLIC	__real@4052000000000000
PUBLIC	?GetMailInfo@CMail@@QAEXPAHPAK@Z		; CMail::GetMailInfo
;	COMDAT __real@4010000000000000
; File c:\program files\microsoft visual studio .net 2003\vc7\atlmfc\include\atlcomtime.inl
CONST	SEGMENT
__real@4010000000000000 DQ 04010000000000000r	; 4
CONST	ENDS
;	COMDAT __real@4052000000000000
CONST	SEGMENT
__real@4052000000000000 DQ 04052000000000000r	; 72
; Function compile flags: /Ogty
; File c:\documents and settings\test\mes documents\source\virtuos_v17\build\program\_common\post.cpp
CONST	ENDS
;	COMDAT ?GetMailInfo@CMail@@QAEXPAHPAK@Z
_TEXT	SEGMENT
tv280 = -128						; size = 4
tv184 = -128						; size = 4
tv735 = -124						; size = 4
tv723 = -124						; size = 4
tv271 = -124						; size = 4
tv193 = -124						; size = 4
_cBase$ = -120						; size = 8
_cCurrent$ = -112					; size = 8
_temp2$ = -104						; size = 12
_BaseTime$ = -104					; size = 12
_ts$ = -92						; size = 12
_CurrentTime$ = -92					; size = 12
_st$205821 = -80					; size = 16
_temp$ = -80						; size = 12
_st$205999 = -64					; size = 16
_st$205857 = -64					; size = 16
_st$205972 = -48					; size = 16
_st$205884 = -48					; size = 16
_st$205945 = -32					; size = 16
_st$205911 = -32					; size = 16
_st$206017 = -16					; size = 16
_nKeepingDay$ = 8					; size = 4
_dwKeepingTime$ = 12					; size = 4
?GetMailInfo@CMail@@QAEXPAHPAK@Z PROC NEAR		; CMail::GetMailInfo, COMDAT
; _this$ = ecx

; 62   : {

  00000	55		 push	 ebp
  00001	8b ec		 mov	 ebp, esp
  00003	83 e4 f8	 and	 esp, -8			; fffffff8H
  00006	81 ec 84 00 00
	00		 sub	 esp, 132		; 00000084H

; 63   : 	COleDateTime BaseTime;
; 64   : 	COleDateTime CurrentTime;
; 65   : 	
; 66   : 	CTime cBase    = m_tmCreate;

  0000c	8b 41 14	 mov	 eax, DWORD PTR [ecx+20]
  0000f	dd 05 00 00 00
	00		 fld	 QWORD PTR __real@0000000000000000
  00015	53		 push	 ebx
  00016	dd 5c 24 20	 fstp	 QWORD PTR _BaseTime$[esp+136]
  0001a	dd 05 00 00 00
	00		 fld	 QWORD PTR __real@0000000000000000
  00020	56		 push	 esi
  00021	33 f6		 xor	 esi, esi
  00023	dd 5c 24 30	 fstp	 QWORD PTR _CurrentTime$[esp+140]
  00027	99		 cdq
  00028	57		 push	 edi

; 67   : 	CTime cCurrent = CTime::GetCurrentTime();

  00029	56		 push	 esi
  0002a	89 74 24 34	 mov	 DWORD PTR _BaseTime$[esp+156], esi
  0002e	89 74 24 40	 mov	 DWORD PTR _CurrentTime$[esp+156], esi
  00032	89 44 24 1c	 mov	 DWORD PTR _cBase$[esp+148], eax
  00036	89 54 24 20	 mov	 DWORD PTR _cBase$[esp+152], edx
  0003a	e8 00 00 00 00	 call	 __time64
  0003f	89 44 24 24	 mov	 DWORD PTR _cCurrent$[esp+148], eax

; 68   : 	
; 69   : 	BaseTime.SetDateTime( cBase.GetYear(), cBase.GetMonth(), cBase.GetDay(), cBase.GetHour(), cBase.GetMinute(), cBase.GetSecond() );		

  00043	8d 44 24 1c	 lea	 eax, DWORD PTR _cBase$[esp+148]
  00047	50		 push	 eax
  00048	89 54 24 2c	 mov	 DWORD PTR _cCurrent$[esp+156], edx
  0004c	e8 00 00 00 00	 call	 __localtime64
  00051	83 c4 08	 add	 esp, 8
  00054	3b c6		 cmp	 eax, esi
  00056	74 08		 je	 SHORT $L205552
  00058	8b 08		 mov	 ecx, DWORD PTR [eax]
  0005a	89 4c 24 10	 mov	 DWORD PTR tv184[esp+144], ecx
  0005e	eb 08		 jmp	 SHORT $L205553
$L205552:
  00060	c7 44 24 10 ff
	ff ff ff	 mov	 DWORD PTR tv184[esp+144], -1
$L205553:
  00068	8d 54 24 18	 lea	 edx, DWORD PTR _cBase$[esp+144]
  0006c	52		 push	 edx
  0006d	e8 00 00 00 00	 call	 __localtime64
  00072	83 c4 04	 add	 esp, 4
  00075	3b c6		 cmp	 eax, esi
  00077	74 09		 je	 SHORT $L205574
  00079	8b 40 04	 mov	 eax, DWORD PTR [eax+4]
  0007c	89 44 24 14	 mov	 DWORD PTR tv193[esp+144], eax
  00080	eb 08		 jmp	 SHORT $L205575
$L205574:
  00082	c7 44 24 14 ff
	ff ff ff	 mov	 DWORD PTR tv193[esp+144], -1
$L205575:
  0008a	8d 4c 24 18	 lea	 ecx, DWORD PTR _cBase$[esp+144]
  0008e	51		 push	 ecx
  0008f	e8 00 00 00 00	 call	 __localtime64
  00094	83 c4 04	 add	 esp, 4
  00097	3b c6		 cmp	 eax, esi
  00099	74 05		 je	 SHORT $L205598
  0009b	8b 58 08	 mov	 ebx, DWORD PTR [eax+8]
  0009e	eb 03		 jmp	 SHORT $L205599
$L205598:
  000a0	83 cb ff	 or	 ebx, -1
$L205599:
  000a3	8d 54 24 18	 lea	 edx, DWORD PTR _cBase$[esp+144]
  000a7	52		 push	 edx
  000a8	e8 00 00 00 00	 call	 __localtime64
  000ad	83 c4 04	 add	 esp, 4
  000b0	3b c6		 cmp	 eax, esi
  000b2	74 05		 je	 SHORT $L205620
  000b4	8b 78 0c	 mov	 edi, DWORD PTR [eax+12]
  000b7	eb 02		 jmp	 SHORT $L205621
$L205620:
  000b9	33 ff		 xor	 edi, edi
$L205621:
  000bb	8d 44 24 18	 lea	 eax, DWORD PTR _cBase$[esp+144]
  000bf	50		 push	 eax
  000c0	e8 00 00 00 00	 call	 __localtime64
  000c5	83 c4 04	 add	 esp, 4
  000c8	3b c6		 cmp	 eax, esi
  000ca	74 04		 je	 SHORT $L205643
  000cc	8b 70 10	 mov	 esi, DWORD PTR [eax+16]
  000cf	46		 inc	 esi
$L205643:
  000d0	8d 4c 24 18	 lea	 ecx, DWORD PTR _cBase$[esp+144]
  000d4	51		 push	 ecx
  000d5	e8 00 00 00 00	 call	 __localtime64
  000da	83 c4 04	 add	 esp, 4
  000dd	85 c0		 test	 eax, eax
  000df	74 0a		 je	 SHORT $L205664
  000e1	8b 40 14	 mov	 eax, DWORD PTR [eax+20]
  000e4	05 6c 07 00 00	 add	 eax, 1900		; 0000076cH
  000e9	eb 02		 jmp	 SHORT $L205665
$L205664:
  000eb	33 c0		 xor	 eax, eax
$L205665:
  000ed	8b 54 24 10	 mov	 edx, DWORD PTR tv184[esp+144]
  000f1	8b 4c 24 14	 mov	 ecx, DWORD PTR tv193[esp+144]
  000f5	52		 push	 edx
  000f6	51		 push	 ecx
  000f7	53		 push	 ebx
  000f8	57		 push	 edi
  000f9	56		 push	 esi
  000fa	50		 push	 eax
  000fb	8d 4c 24 40	 lea	 ecx, DWORD PTR _BaseTime$[esp+168]
  000ff	e8 00 00 00 00	 call	 ?SetDateTime@COleDateTime@ATL@@QAEHHHHHHH@Z ; ATL::COleDateTime::SetDateTime

; 70   : 	CurrentTime.SetDateTime( cCurrent.GetYear(), cCurrent.GetMonth(), cCurrent.GetDay(), cCurrent.GetHour(), cCurrent.GetMinute(), cCurrent.GetSecond() );

  00104	8d 54 24 20	 lea	 edx, DWORD PTR _cCurrent$[esp+144]
  00108	52		 push	 edx
  00109	e8 00 00 00 00	 call	 __localtime64
  0010e	83 c4 04	 add	 esp, 4
  00111	85 c0		 test	 eax, eax
  00113	74 08		 je	 SHORT $L205686
  00115	8b 00		 mov	 eax, DWORD PTR [eax]
  00117	89 44 24 14	 mov	 DWORD PTR tv271[esp+144], eax
  0011b	eb 08		 jmp	 SHORT $L205687
$L205686:
  0011d	c7 44 24 14 ff
	ff ff ff	 mov	 DWORD PTR tv271[esp+144], -1
$L205687:
  00125	8d 4c 24 20	 lea	 ecx, DWORD PTR _cCurrent$[esp+144]
  00129	51		 push	 ecx
  0012a	e8 00 00 00 00	 call	 __localtime64
  0012f	83 c4 04	 add	 esp, 4
  00132	85 c0		 test	 eax, eax
  00134	74 09		 je	 SHORT $L205708
  00136	8b 50 04	 mov	 edx, DWORD PTR [eax+4]
  00139	89 54 24 10	 mov	 DWORD PTR tv280[esp+144], edx
  0013d	eb 08		 jmp	 SHORT $L205709
$L205708:
  0013f	c7 44 24 10 ff
	ff ff ff	 mov	 DWORD PTR tv280[esp+144], -1
$L205709:
  00147	8d 44 24 20	 lea	 eax, DWORD PTR _cCurrent$[esp+144]
  0014b	50		 push	 eax
  0014c	e8 00 00 00 00	 call	 __localtime64
  00151	83 c4 04	 add	 esp, 4
  00154	85 c0		 test	 eax, eax
  00156	74 05		 je	 SHORT $L205730
  00158	8b 58 08	 mov	 ebx, DWORD PTR [eax+8]
  0015b	eb 03		 jmp	 SHORT $L205731
$L205730:
  0015d	83 cb ff	 or	 ebx, -1
$L205731:
  00160	8d 4c 24 20	 lea	 ecx, DWORD PTR _cCurrent$[esp+144]
  00164	51		 push	 ecx
  00165	e8 00 00 00 00	 call	 __localtime64
  0016a	83 c4 04	 add	 esp, 4
  0016d	85 c0		 test	 eax, eax
  0016f	74 05		 je	 SHORT $L205752
  00171	8b 78 0c	 mov	 edi, DWORD PTR [eax+12]
  00174	eb 02		 jmp	 SHORT $L205753
$L205752:
  00176	33 ff		 xor	 edi, edi
$L205753:
  00178	8d 54 24 20	 lea	 edx, DWORD PTR _cCurrent$[esp+144]
  0017c	52		 push	 edx
  0017d	e8 00 00 00 00	 call	 __localtime64
  00182	83 c4 04	 add	 esp, 4
  00185	85 c0		 test	 eax, eax
  00187	74 06		 je	 SHORT $L205774
  00189	8b 70 10	 mov	 esi, DWORD PTR [eax+16]
  0018c	46		 inc	 esi
  0018d	eb 02		 jmp	 SHORT $L205775
$L205774:
  0018f	33 f6		 xor	 esi, esi
$L205775:
  00191	8d 44 24 20	 lea	 eax, DWORD PTR _cCurrent$[esp+144]
  00195	50		 push	 eax
  00196	e8 00 00 00 00	 call	 __localtime64
  0019b	83 c4 04	 add	 esp, 4
  0019e	85 c0		 test	 eax, eax
  001a0	74 0a		 je	 SHORT $L205796
  001a2	8b 40 14	 mov	 eax, DWORD PTR [eax+20]
  001a5	05 6c 07 00 00	 add	 eax, 1900		; 0000076cH
  001aa	eb 02		 jmp	 SHORT $L205797
$L205796:
  001ac	33 c0		 xor	 eax, eax
$L205797:
  001ae	8b 4c 24 14	 mov	 ecx, DWORD PTR tv271[esp+144]
  001b2	8b 54 24 10	 mov	 edx, DWORD PTR tv280[esp+144]
  001b6	51		 push	 ecx
  001b7	52		 push	 edx
  001b8	53		 push	 ebx
  001b9	57		 push	 edi
  001ba	56		 push	 esi
  001bb	50		 push	 eax
  001bc	8d 4c 24 4c	 lea	 ecx, DWORD PTR _CurrentTime$[esp+168]
  001c0	e8 00 00 00 00	 call	 ?SetDateTime@COleDateTime@ATL@@QAEHHHHHHH@Z ; ATL::COleDateTime::SetDateTime

; 71   : 	
; 72   : 	COleDateTimeSpan temp( BaseTime.GetDay(), BaseTime.GetHour(), BaseTime.GetMinute(), BaseTime.GetSecond() );

  001c5	8b 44 24 30	 mov	 eax, DWORD PTR _BaseTime$[esp+152]
  001c9	85 c0		 test	 eax, eax
  001cb	8b 35 00 00 00
	00		 mov	 esi, DWORD PTR __imp__VariantTimeToSystemTime@12
  001d1	75 1c		 jne	 SHORT $L205823
  001d3	dd 44 24 28	 fld	 QWORD PTR _BaseTime$[esp+144]
  001d7	8d 44 24 40	 lea	 eax, DWORD PTR _st$205821[esp+144]
  001db	50		 push	 eax
  001dc	83 ec 08	 sub	 esp, 8
  001df	dd 1c 24	 fstp	 QWORD PTR [esp]
  001e2	ff d6		 call	 esi
  001e4	85 c0		 test	 eax, eax
  001e6	74 07		 je	 SHORT $L205823
  001e8	0f b7 5c 24 4c	 movzx	 ebx, WORD PTR _st$205821[esp+156]
  001ed	eb 03		 jmp	 SHORT $L205824
$L205823:
  001ef	83 cb ff	 or	 ebx, -1
$L205824:
  001f2	8b 44 24 30	 mov	 eax, DWORD PTR _BaseTime$[esp+152]
  001f6	85 c0		 test	 eax, eax
  001f8	75 1c		 jne	 SHORT $L205848
  001fa	dd 44 24 28	 fld	 QWORD PTR _BaseTime$[esp+144]
  001fe	8d 4c 24 50	 lea	 ecx, DWORD PTR _st$205857[esp+144]
  00202	51		 push	 ecx
  00203	83 ec 08	 sub	 esp, 8
  00206	dd 1c 24	 fstp	 QWORD PTR [esp]
  00209	ff d6		 call	 esi
  0020b	85 c0		 test	 eax, eax
  0020d	74 07		 je	 SHORT $L205848
  0020f	0f b7 7c 24 5a	 movzx	 edi, WORD PTR _st$205857[esp+154]
  00214	eb 03		 jmp	 SHORT $L205849
$L205848:
  00216	83 cf ff	 or	 edi, -1
$L205849:
  00219	8b 44 24 30	 mov	 eax, DWORD PTR _BaseTime$[esp+152]
  0021d	85 c0		 test	 eax, eax
  0021f	75 1c		 jne	 SHORT $L205875
  00221	dd 44 24 28	 fld	 QWORD PTR _BaseTime$[esp+144]
  00225	8d 54 24 60	 lea	 edx, DWORD PTR _st$205884[esp+144]
  00229	52		 push	 edx
  0022a	83 ec 08	 sub	 esp, 8
  0022d	dd 1c 24	 fstp	 QWORD PTR [esp]
  00230	ff d6		 call	 esi
  00232	85 c0		 test	 eax, eax
  00234	74 07		 je	 SHORT $L205875
  00236	0f b7 74 24 68	 movzx	 esi, WORD PTR _st$205884[esp+152]
  0023b	eb 03		 jmp	 SHORT $L205876
$L205875:
  0023d	83 ce ff	 or	 esi, -1
$L205876:
  00240	8b 44 24 30	 mov	 eax, DWORD PTR _BaseTime$[esp+152]
  00244	85 c0		 test	 eax, eax
  00246	75 20		 jne	 SHORT $L205902
  00248	dd 44 24 28	 fld	 QWORD PTR _BaseTime$[esp+144]
  0024c	8d 44 24 70	 lea	 eax, DWORD PTR _st$205911[esp+144]
  00250	50		 push	 eax
  00251	83 ec 08	 sub	 esp, 8
  00254	dd 1c 24	 fstp	 QWORD PTR [esp]
  00257	ff 15 00 00 00
	00		 call	 DWORD PTR __imp__VariantTimeToSystemTime@12
  0025d	85 c0		 test	 eax, eax
  0025f	74 07		 je	 SHORT $L205902
  00261	0f b7 44 24 76	 movzx	 eax, WORD PTR _st$205911[esp+150]
  00266	eb 03		 jmp	 SHORT $L205903
$L205902:
  00268	83 c8 ff	 or	 eax, -1
$L205903:
  0026b	53		 push	 ebx
  0026c	57		 push	 edi
  0026d	56		 push	 esi
  0026e	50		 push	 eax
  0026f	8d 4c 24 50	 lea	 ecx, DWORD PTR _temp$[esp+160]
  00273	e8 00 00 00 00	 call	 ?SetDateTimeSpan@COleDateTimeSpan@ATL@@QAEXJHHH@Z ; ATL::COleDateTimeSpan::SetDateTimeSpan

; 73   : 	COleDateTimeSpan temp2( CurrentTime.GetDay(), CurrentTime.GetHour(), CurrentTime.GetMinute(), CurrentTime.GetSecond() );

  00278	8b 44 24 3c	 mov	 eax, DWORD PTR _CurrentTime$[esp+152]
  0027c	85 c0		 test	 eax, eax
  0027e	8b 35 00 00 00
	00		 mov	 esi, DWORD PTR __imp__VariantTimeToSystemTime@12
  00284	75 1c		 jne	 SHORT $L205936
  00286	dd 44 24 34	 fld	 QWORD PTR _CurrentTime$[esp+144]
  0028a	8d 4c 24 70	 lea	 ecx, DWORD PTR _st$205945[esp+144]
  0028e	51		 push	 ecx
  0028f	83 ec 08	 sub	 esp, 8
  00292	dd 1c 24	 fstp	 QWORD PTR [esp]
  00295	ff d6		 call	 esi
  00297	85 c0		 test	 eax, eax
  00299	74 07		 je	 SHORT $L205936
  0029b	0f b7 5c 24 7c	 movzx	 ebx, WORD PTR _st$205945[esp+156]
  002a0	eb 03		 jmp	 SHORT $L205937
$L205936:
  002a2	83 cb ff	 or	 ebx, -1
$L205937:
  002a5	8b 44 24 3c	 mov	 eax, DWORD PTR _CurrentTime$[esp+152]
  002a9	85 c0		 test	 eax, eax
  002ab	75 1c		 jne	 SHORT $L205963
  002ad	dd 44 24 34	 fld	 QWORD PTR _CurrentTime$[esp+144]
  002b1	8d 54 24 60	 lea	 edx, DWORD PTR _st$205972[esp+144]
  002b5	52		 push	 edx
  002b6	83 ec 08	 sub	 esp, 8
  002b9	dd 1c 24	 fstp	 QWORD PTR [esp]
  002bc	ff d6		 call	 esi
  002be	85 c0		 test	 eax, eax
  002c0	74 07		 je	 SHORT $L205963
  002c2	0f b7 7c 24 6a	 movzx	 edi, WORD PTR _st$205972[esp+154]
  002c7	eb 03		 jmp	 SHORT $L205964
$L205963:
  002c9	83 cf ff	 or	 edi, -1
$L205964:
  002cc	8b 44 24 3c	 mov	 eax, DWORD PTR _CurrentTime$[esp+152]
  002d0	85 c0		 test	 eax, eax
  002d2	75 1c		 jne	 SHORT $L205990
  002d4	dd 44 24 34	 fld	 QWORD PTR _CurrentTime$[esp+144]
  002d8	8d 44 24 50	 lea	 eax, DWORD PTR _st$205999[esp+144]
  002dc	50		 push	 eax
  002dd	83 ec 08	 sub	 esp, 8
  002e0	dd 1c 24	 fstp	 QWORD PTR [esp]
  002e3	ff d6		 call	 esi
  002e5	85 c0		 test	 eax, eax
  002e7	74 07		 je	 SHORT $L205990
  002e9	0f b7 74 24 58	 movzx	 esi, WORD PTR _st$205999[esp+152]
  002ee	eb 03		 jmp	 SHORT $L205991
$L205990:
  002f0	83 ce ff	 or	 esi, -1
$L205991:
  002f3	8b 44 24 3c	 mov	 eax, DWORD PTR _CurrentTime$[esp+152]
  002f7	85 c0		 test	 eax, eax
  002f9	75 26		 jne	 SHORT $L206019
  002fb	dd 44 24 34	 fld	 QWORD PTR _CurrentTime$[esp+144]
  002ff	8d 8c 24 80 00
	00 00		 lea	 ecx, DWORD PTR _st$206017[esp+144]
  00306	51		 push	 ecx
  00307	83 ec 08	 sub	 esp, 8
  0030a	dd 1c 24	 fstp	 QWORD PTR [esp]
  0030d	ff 15 00 00 00
	00		 call	 DWORD PTR __imp__VariantTimeToSystemTime@12
  00313	85 c0		 test	 eax, eax
  00315	74 0a		 je	 SHORT $L206019
  00317	0f b7 84 24 86
	00 00 00	 movzx	 eax, WORD PTR _st$206017[esp+150]
  0031f	eb 03		 jmp	 SHORT $L206020
$L206019:
  00321	83 c8 ff	 or	 eax, -1
$L206020:
  00324	53		 push	 ebx
  00325	57		 push	 edi
  00326	56		 push	 esi
  00327	50		 push	 eax
  00328	8d 4c 24 38	 lea	 ecx, DWORD PTR _temp2$[esp+160]
  0032c	e8 00 00 00 00	 call	 ?SetDateTimeSpan@COleDateTimeSpan@ATL@@QAEXJHHH@Z ; ATL::COleDateTimeSpan::SetDateTimeSpan

; 74   : 
; 75   : 	COleDateTimeSpan ts = temp2 - temp;

  00331	8d 54 24 40	 lea	 edx, DWORD PTR _temp$[esp+144]
  00335	52		 push	 edx
  00336	8d 44 24 38	 lea	 eax, DWORD PTR _ts$[esp+148]
  0033a	50		 push	 eax
  0033b	8d 4c 24 30	 lea	 ecx, DWORD PTR _temp2$[esp+152]
  0033f	e8 00 00 00 00	 call	 ??GCOleDateTimeSpan@ATL@@QBE?AV01@ABV01@@Z ; ATL::COleDateTimeSpan::operator-

; 76   : 
; 77   : 	int nGap = -1;
; 78   : 
; 79   : 	nGap = (int)( (MAX_KEEP_MAX_DAY+1) - ts.GetTotalDays() );

  00344	dd 44 24 34	 fld	 QWORD PTR _ts$[esp+144]
  00348	dc 1d 00 00 00
	00		 fcomp	 QWORD PTR __real@0000000000000000
  0034e	df e0		 fnstsw	 ax
  00350	f6 c4 05	 test	 ah, 5
  00353	7a 08		 jp	 SHORT $L206038
  00355	dd 05 00 00 00
	00		 fld	 QWORD PTR __real@bed845c8a0ce5129
  0035b	eb 06		 jmp	 SHORT $L206039
$L206038:
  0035d	dd 05 00 00 00
	00		 fld	 QWORD PTR ?OLE_DATETIME_HALFSECOND@COleDateTimeSpan@ATL@@0NB ; ATL::COleDateTimeSpan::OLE_DATETIME_HALFSECOND
$L206039:
  00363	dd 44 24 34	 fld	 QWORD PTR _ts$[esp+144]
  00367	d8 c1		 fadd	 ST(0), ST(1)
  00369	e8 00 00 00 00	 call	 __ftol2
  0036e	dd d8		 fstp	 ST(0)
  00370	89 44 24 14	 mov	 DWORD PTR tv735[esp+144], eax
  00374	db 44 24 14	 fild	 DWORD PTR tv735[esp+144]
  00378	dc 2d 00 00 00
	00		 fsubr	 QWORD PTR __real@4010000000000000
  0037e	e8 00 00 00 00	 call	 __ftol2

; 80   : 
; 81   : 	if( dwKeepingTime )

  00383	8b 7d 0c	 mov	 edi, DWORD PTR _dwKeepingTime$[ebp]
  00386	85 ff		 test	 edi, edi
  00388	8b f0		 mov	 esi, eax
  0038a	74 51		 je	 SHORT $L206060

; 82   : 	{
; 83   : 		*dwKeepingTime = (DWORD)( (MAX_KEEP_MAX_DAY*24) - ts.GetTotalHours() );

  0038c	dd 44 24 34	 fld	 QWORD PTR _ts$[esp+144]
  00390	dc 1d 00 00 00
	00		 fcomp	 QWORD PTR __real@0000000000000000
  00396	df e0		 fnstsw	 ax
  00398	f6 c4 05	 test	 ah, 5
  0039b	7a 08		 jp	 SHORT $L206045
  0039d	dd 05 00 00 00
	00		 fld	 QWORD PTR __real@bed845c8a0ce5129
  003a3	eb 06		 jmp	 SHORT $L206046
$L206045:
  003a5	dd 05 00 00 00
	00		 fld	 QWORD PTR ?OLE_DATETIME_HALFSECOND@COleDateTimeSpan@ATL@@0NB ; ATL::COleDateTimeSpan::OLE_DATETIME_HALFSECOND
$L206046:
  003ab	dc 44 24 34	 fadd	 QWORD PTR _ts$[esp+144]
  003af	dc 0d 00 00 00
	00		 fmul	 QWORD PTR __real@4038000000000000
  003b5	e8 00 00 00 00	 call	 __ftol2
  003ba	89 44 24 14	 mov	 DWORD PTR tv723[esp+144], eax
  003be	db 44 24 14	 fild	 DWORD PTR tv723[esp+144]
  003c2	dc 2d 00 00 00
	00		 fsubr	 QWORD PTR __real@4052000000000000
  003c8	e8 00 00 00 00	 call	 __ftol2

; 84   : 	}
; 85   : 
; 86   : 	*nKeepingDay = nGap;

  003cd	8b 4d 08	 mov	 ecx, DWORD PTR _nKeepingDay$[ebp]
  003d0	89 07		 mov	 DWORD PTR [edi], eax
  003d2	89 31		 mov	 DWORD PTR [ecx], esi

; 87   : }

  003d4	5f		 pop	 edi
  003d5	5e		 pop	 esi
  003d6	5b		 pop	 ebx
  003d7	8b e5		 mov	 esp, ebp
  003d9	5d		 pop	 ebp
  003da	c2 08 00	 ret	 8
$L206060:

; 84   : 	}
; 85   : 
; 86   : 	*nKeepingDay = nGap;

  003dd	8b 55 08	 mov	 edx, DWORD PTR _nKeepingDay$[ebp]

; 87   : }

  003e0	5f		 pop	 edi
  003e1	89 32		 mov	 DWORD PTR [edx], esi
  003e3	5e		 pop	 esi
  003e4	5b		 pop	 ebx
  003e5	8b e5		 mov	 esp, ebp
  003e7	5d		 pop	 ebp
  003e8	c2 08 00	 ret	 8
?GetMailInfo@CMail@@QAEXPAHPAK@Z ENDP			; CMail::GetMailInfo
_TEXT	ENDS
PUBLIC	?Write@CMailBox@@QAEXAAVCAr@@@Z			; CMailBox::Write
; Function compile flags: /Ogty
;	COMDAT ?Write@CMailBox@@QAEXAAVCAr@@@Z
_TEXT	SEGMENT
$T206142 = 8						; size = 4
_ar$ = 8						; size = 4
?Write@CMailBox@@QAEXAAVCAr@@@Z PROC NEAR		; CMailBox::Write, COMDAT
; _this$ = ecx

; 245  : {

  00000	55		 push	 ebp
  00001	8b e9		 mov	 ebp, ecx

; 246  : 	ar << (int)size();

  00003	8b 45 08	 mov	 eax, DWORD PTR [ebp+8]
  00006	85 c0		 test	 eax, eax
  00008	56		 push	 esi
  00009	57		 push	 edi
  0000a	75 04		 jne	 SHORT $L206075
  0000c	33 ff		 xor	 edi, edi
  0000e	eb 08		 jmp	 SHORT $L206076
$L206075:
  00010	8b 7d 0c	 mov	 edi, DWORD PTR [ebp+12]
  00013	2b f8		 sub	 edi, eax
  00015	c1 ff 02	 sar	 edi, 2
$L206076:
  00018	8b 74 24 10	 mov	 esi, DWORD PTR _ar$[esp+8]
  0001c	6a 04		 push	 4
  0001e	8b ce		 mov	 ecx, esi
  00020	e8 00 00 00 00	 call	 ?CheckBuf@CAr@@QAEXI@Z	; CAr::CheckBuf
  00025	8b 46 08	 mov	 eax, DWORD PTR [esi+8]
  00028	89 38		 mov	 DWORD PTR [eax], edi
  0002a	83 46 08 04	 add	 DWORD PTR [esi+8], 4

; 247  : 
; 248  : // 	//	BEGINTEST
; 249  : // 	Error( "CMailBox::Write [%d]", (int)size() );
; 250  : 
; 251  : 	for( MailVectorItr i = begin(); i != end(); ++i )

  0002e	8b 7d 08	 mov	 edi, DWORD PTR [ebp+8]
  00031	3b 7d 0c	 cmp	 edi, DWORD PTR [ebp+12]
  00034	74 3a		 je	 SHORT $L199222
  00036	53		 push	 ebx
$L206106:

; 252  : 	{
; 253  : 		CMail* pMail	= *i;

  00037	8b 1f		 mov	 ebx, DWORD PTR [edi]

; 254  : 		ar << pMail->m_nMail;

  00039	8b 4b 04	 mov	 ecx, DWORD PTR [ebx+4]
  0003c	89 4c 24 14	 mov	 DWORD PTR $T206142[esp+12], ecx
  00040	6a 04		 push	 4
  00042	8b ce		 mov	 ecx, esi
  00044	e8 00 00 00 00	 call	 ?CheckBuf@CAr@@QAEXI@Z	; CAr::CheckBuf
  00049	8b 56 08	 mov	 edx, DWORD PTR [esi+8]
  0004c	8b 44 24 14	 mov	 eax, DWORD PTR $T206142[esp+12]
  00050	89 02		 mov	 DWORD PTR [edx], eax
  00052	8b 4e 08	 mov	 ecx, DWORD PTR [esi+8]
  00055	83 c1 04	 add	 ecx, 4

; 255  : 		pMail->Serialize( ar, TRUE );

  00058	6a 01		 push	 1
  0005a	89 4e 08	 mov	 DWORD PTR [esi+8], ecx
  0005d	56		 push	 esi
  0005e	8b cb		 mov	 ecx, ebx
  00060	e8 00 00 00 00	 call	 ?Serialize@CMail@@QAEXAAVCAr@@H@Z ; CMail::Serialize
  00065	8b 45 0c	 mov	 eax, DWORD PTR [ebp+12]
  00068	83 c7 04	 add	 edi, 4
  0006b	3b f8		 cmp	 edi, eax
  0006d	75 c8		 jne	 SHORT $L206106
  0006f	5b		 pop	 ebx
$L199222:
  00070	5f		 pop	 edi
  00071	5e		 pop	 esi
  00072	5d		 pop	 ebp

; 256  : 	}
; 257  : }

  00073	c2 04 00	 ret	 4
?Write@CMailBox@@QAEXAAVCAr@@@Z ENDP			; CMailBox::Write
_TEXT	ENDS
PUBLIC	?Find@CMailBox@@AAE?AViterator@?$vector@PAVCMail@@V?$allocator@PAVCMail@@@std@@@std@@K@Z ; CMailBox::Find
; Function compile flags: /Ogty
;	COMDAT ?Find@CMailBox@@AAE?AViterator@?$vector@PAVCMail@@V?$allocator@PAVCMail@@@std@@@std@@K@Z
_TEXT	SEGMENT
___$ReturnUdt$ = 8					; size = 4
_nMail$ = 12						; size = 4
?Find@CMailBox@@AAE?AViterator@?$vector@PAVCMail@@V?$allocator@PAVCMail@@@std@@@std@@K@Z PROC NEAR ; CMailBox::Find, COMDAT
; _this$ = ecx

; 386  : 	MailVectorItr i = begin();

  00000	8b 51 08	 mov	 edx, DWORD PTR [ecx+8]

; 387  : 	for( ; i != end(); ++i )
; 388  : 	{
; 389  : 		CMail* pMail	= *i;
; 390  : 		if( pMail->m_nMail == nMail )
; 391  : 			break;
; 392  : 	}
; 393  : 	return i;

  00003	8b 49 0c	 mov	 ecx, DWORD PTR [ecx+12]
  00006	3b d1		 cmp	 edx, ecx
  00008	74 1e		 je	 SHORT $L206204
  0000a	8b 44 24 08	 mov	 eax, DWORD PTR _nMail$[esp-4]
  0000e	56		 push	 esi
  0000f	90		 npad	 1
$L206166:
  00010	8b 32		 mov	 esi, DWORD PTR [edx]
  00012	39 46 04	 cmp	 DWORD PTR [esi+4], eax
  00015	74 07		 je	 SHORT $L206203
  00017	83 c2 04	 add	 edx, 4
  0001a	3b d1		 cmp	 edx, ecx
  0001c	75 f2		 jne	 SHORT $L206166
$L206203:
  0001e	8b 44 24 08	 mov	 eax, DWORD PTR ___$ReturnUdt$[esp]
  00022	89 10		 mov	 DWORD PTR [eax], edx
  00024	5e		 pop	 esi

; 394  : }

  00025	c2 08 00	 ret	 8
$L206204:

; 387  : 	for( ; i != end(); ++i )
; 388  : 	{
; 389  : 		CMail* pMail	= *i;
; 390  : 		if( pMail->m_nMail == nMail )
; 391  : 			break;
; 392  : 	}
; 393  : 	return i;

  00028	8b 44 24 04	 mov	 eax, DWORD PTR ___$ReturnUdt$[esp-4]
  0002c	89 10		 mov	 DWORD PTR [eax], edx

; 394  : }

  0002e	c2 08 00	 ret	 8
?Find@CMailBox@@AAE?AViterator@?$vector@PAVCMail@@V?$allocator@PAVCMail@@@std@@@std@@K@Z ENDP ; CMailBox::Find
_TEXT	ENDS
PUBLIC	?GetMail@CMailBox@@QAEPAVCMail@@K@Z		; CMailBox::GetMail
; Function compile flags: /Ogty
;	COMDAT ?GetMail@CMailBox@@QAEPAVCMail@@K@Z
_TEXT	SEGMENT
_nMail$ = 8						; size = 4
?GetMail@CMailBox@@QAEPAVCMail@@K@Z PROC NEAR		; CMailBox::GetMail, COMDAT
; _this$ = ecx

; 398  : 	MailVectorItr i = Find( nMail );

  00000	8b 41 08	 mov	 eax, DWORD PTR [ecx+8]
  00003	8b 49 0c	 mov	 ecx, DWORD PTR [ecx+12]
  00006	3b c1		 cmp	 eax, ecx
  00008	74 1e		 je	 SHORT $L199269
  0000a	8b 54 24 04	 mov	 edx, DWORD PTR _nMail$[esp-4]
  0000e	56		 push	 esi
  0000f	90		 npad	 1
$L206272:
  00010	8b 30		 mov	 esi, DWORD PTR [eax]
  00012	39 56 04	 cmp	 DWORD PTR [esi+4], edx
  00015	74 07		 je	 SHORT $L206330
  00017	83 c0 04	 add	 eax, 4
  0001a	3b c1		 cmp	 eax, ecx
  0001c	75 f2		 jne	 SHORT $L206272
$L206330:

; 399  : 	if( i != end() )

  0001e	3b c1		 cmp	 eax, ecx
  00020	5e		 pop	 esi
  00021	74 05		 je	 SHORT $L199269

; 400  : 		return *i;

  00023	8b 00		 mov	 eax, DWORD PTR [eax]

; 406  : }

  00025	c2 04 00	 ret	 4
$L199269:

; 401  : 
; 402  : #ifdef __CLIENT
; 403  : 	Error( _T( "CMailBox::GetMail failed!!!!" ) );
; 404  : #endif
; 405  : 	return NULL;

  00028	33 c0		 xor	 eax, eax

; 406  : }

  0002a	c2 04 00	 ret	 4
?GetMail@CMailBox@@QAEPAVCMail@@K@Z ENDP		; CMailBox::GetMail
_TEXT	ENDS
PUBLIC	?RemoveMailItem@CMailBox@@QAEHK@Z		; CMailBox::RemoveMailItem
; Function compile flags: /Ogty
;	COMDAT ?RemoveMailItem@CMailBox@@QAEHK@Z
_TEXT	SEGMENT
_nMail$ = 8						; size = 4
?RemoveMailItem@CMailBox@@QAEHK@Z PROC NEAR		; CMailBox::RemoveMailItem, COMDAT
; _this$ = ecx

; 434  : 	CMail* pMail	= GetMail( nMail );

  00000	8b 41 08	 mov	 eax, DWORD PTR [ecx+8]
  00003	8b 49 0c	 mov	 ecx, DWORD PTR [ecx+12]
  00006	3b c1		 cmp	 eax, ecx
  00008	56		 push	 esi
  00009	74 3a		 je	 SHORT $L199289
  0000b	8b 54 24 08	 mov	 edx, DWORD PTR _nMail$[esp]
  0000f	90		 npad	 1
$L206468:
  00010	8b 30		 mov	 esi, DWORD PTR [eax]
  00012	39 56 04	 cmp	 DWORD PTR [esi+4], edx
  00015	74 07		 je	 SHORT $L206511
  00017	83 c0 04	 add	 eax, 4
  0001a	3b c1		 cmp	 eax, ecx
  0001c	75 f2		 jne	 SHORT $L206468
$L206511:
  0001e	3b c1		 cmp	 eax, ecx
  00020	74 23		 je	 SHORT $L199289
  00022	8b 30		 mov	 esi, DWORD PTR [eax]

; 435  : 	if( pMail && pMail->m_pItemElem )

  00024	85 f6		 test	 esi, esi
  00026	74 1d		 je	 SHORT $L199289
  00028	8b 4e 0c	 mov	 ecx, DWORD PTR [esi+12]
  0002b	85 c9		 test	 ecx, ecx
  0002d	74 16		 je	 SHORT $L199289

; 436  : 	{
; 437  : 		SAFE_DELETE( pMail->m_pItemElem );

  0002f	8b 01		 mov	 eax, DWORD PTR [ecx]
  00031	6a 01		 push	 1
  00033	ff 10		 call	 DWORD PTR [eax]
  00035	c7 46 0c 00 00
	00 00		 mov	 DWORD PTR [esi+12], 0

; 438  : 
; 439  : #ifdef __CLIENT
; 440  : 		Error( _T( "CMailBox::RemoveMailItem nMail:%d" ), nMail );
; 441  : #endif
; 442  : 		return TRUE;

  0003c	b8 01 00 00 00	 mov	 eax, 1
  00041	5e		 pop	 esi

; 449  : }

  00042	c2 04 00	 ret	 4
$L199289:

; 443  : 	}
; 444  : 
; 445  : #ifdef __CLIENT
; 446  : 		Error( _T( "CMailBox::RemoveMailItem Failed nMail:%d" ), nMail );
; 447  : #endif
; 448  : 	return FALSE;

  00045	33 c0		 xor	 eax, eax
  00047	5e		 pop	 esi

; 449  : }

  00048	c2 04 00	 ret	 4
?RemoveMailItem@CMailBox@@QAEHK@Z ENDP			; CMailBox::RemoveMailItem
_TEXT	ENDS
PUBLIC	?RemoveMailGold@CMailBox@@QAEHK@Z		; CMailBox::RemoveMailGold
; Function compile flags: /Ogty
;	COMDAT ?RemoveMailGold@CMailBox@@QAEHK@Z
_TEXT	SEGMENT
_nMail$ = 8						; size = 4
?RemoveMailGold@CMailBox@@QAEHK@Z PROC NEAR		; CMailBox::RemoveMailGold, COMDAT
; _this$ = ecx

; 453  : 	CMail* pMail	= GetMail( nMail );

  00000	8b 41 08	 mov	 eax, DWORD PTR [ecx+8]
  00003	8b 49 0c	 mov	 ecx, DWORD PTR [ecx+12]
  00006	3b c1		 cmp	 eax, ecx
  00008	74 35		 je	 SHORT $L199299
  0000a	8b 54 24 04	 mov	 edx, DWORD PTR _nMail$[esp-4]
  0000e	56		 push	 esi
  0000f	90		 npad	 1
$L206653:
  00010	8b 30		 mov	 esi, DWORD PTR [eax]
  00012	39 56 04	 cmp	 DWORD PTR [esi+4], edx
  00015	74 07		 je	 SHORT $L206687
  00017	83 c0 04	 add	 eax, 4
  0001a	3b c1		 cmp	 eax, ecx
  0001c	75 f2		 jne	 SHORT $L206653
$L206687:
  0001e	3b c1		 cmp	 eax, ecx
  00020	5e		 pop	 esi
  00021	74 1c		 je	 SHORT $L199299
  00023	8b 00		 mov	 eax, DWORD PTR [eax]

; 454  : 	if( pMail && pMail->m_nGold > 0 )

  00025	85 c0		 test	 eax, eax
  00027	74 16		 je	 SHORT $L199299
  00029	8b 48 10	 mov	 ecx, DWORD PTR [eax+16]
  0002c	85 c9		 test	 ecx, ecx
  0002e	76 0f		 jbe	 SHORT $L199299

; 455  : 	{
; 456  : 		pMail->m_nGold	= 0;

  00030	c7 40 10 00 00
	00 00		 mov	 DWORD PTR [eax+16], 0

; 457  : #ifdef __CLIENT
; 458  : 		Error( _T( "CMailBox::RemoveMailGold nMail:%d" ), nMail );
; 459  : #endif
; 460  : 		return TRUE;

  00037	b8 01 00 00 00	 mov	 eax, 1

; 466  : }

  0003c	c2 04 00	 ret	 4
$L199299:

; 461  : 	}
; 462  : #ifdef __CLIENT
; 463  : 		Error( _T( "CMailBox::RemoveMailGold Failed nMail:%d" ), nMail );
; 464  : #endif
; 465  : 	return FALSE;

  0003f	33 c0		 xor	 eax, eax

; 466  : }

  00041	c2 04 00	 ret	 4
?RemoveMailGold@CMailBox@@QAEHK@Z ENDP			; CMailBox::RemoveMailGold
_TEXT	ENDS
PUBLIC	?ReadMail@CMailBox@@QAEHK@Z			; CMailBox::ReadMail
; Function compile flags: /Ogty
;	COMDAT ?ReadMail@CMailBox@@QAEHK@Z
_TEXT	SEGMENT
_nMail$ = 8						; size = 4
?ReadMail@CMailBox@@QAEHK@Z PROC NEAR			; CMailBox::ReadMail, COMDAT
; _this$ = ecx

; 470  : 	CMail* pMail	= GetMail( nMail );

  00000	8b 41 08	 mov	 eax, DWORD PTR [ecx+8]
  00003	8b 49 0c	 mov	 ecx, DWORD PTR [ecx+12]
  00006	3b c1		 cmp	 eax, ecx
  00008	74 2b		 je	 SHORT $L199305
  0000a	8b 54 24 04	 mov	 edx, DWORD PTR _nMail$[esp-4]
  0000e	56		 push	 esi
  0000f	90		 npad	 1
$L206830:
  00010	8b 30		 mov	 esi, DWORD PTR [eax]
  00012	39 56 04	 cmp	 DWORD PTR [esi+4], edx
  00015	74 07		 je	 SHORT $L206864
  00017	83 c0 04	 add	 eax, 4
  0001a	3b c1		 cmp	 eax, ecx
  0001c	75 f2		 jne	 SHORT $L206830
$L206864:
  0001e	3b c1		 cmp	 eax, ecx
  00020	5e		 pop	 esi
  00021	74 12		 je	 SHORT $L199305
  00023	8b 00		 mov	 eax, DWORD PTR [eax]

; 471  : 	if( pMail )

  00025	85 c0		 test	 eax, eax
  00027	74 0c		 je	 SHORT $L199305

; 472  : 	{
; 473  : 		pMail->m_byRead	= TRUE;

  00029	c6 40 18 01	 mov	 BYTE PTR [eax+24], 1

; 474  : 
; 475  : #ifdef __CLIENT
; 476  : 		Error( _T( "CMailBox::ReadMail nMail:%d" ), nMail );
; 477  : #endif
; 478  : 		return TRUE;

  0002d	b8 01 00 00 00	 mov	 eax, 1

; 485  : }

  00032	c2 04 00	 ret	 4
$L199305:

; 479  : 	}
; 480  : 
; 481  : #ifdef __CLIENT
; 482  : 		Error( _T( "CMailBox::ReadMail Failed nMail:%d" ), nMail );
; 483  : #endif
; 484  : 	return FALSE;

  00035	33 c0		 xor	 eax, eax

; 485  : }

  00037	c2 04 00	 ret	 4
?ReadMail@CMailBox@@QAEHK@Z ENDP			; CMailBox::ReadMail
_TEXT	ENDS
PUBLIC	?IsStampedMailExists@CMailBox@@QAEHXZ		; CMailBox::IsStampedMailExists
; Function compile flags: /Ogty
;	COMDAT ?IsStampedMailExists@CMailBox@@QAEHXZ
_TEXT	SEGMENT
?IsStampedMailExists@CMailBox@@QAEHXZ PROC NEAR		; CMailBox::IsStampedMailExists, COMDAT
; _this$ = ecx

; 489  : 	MailVectorItr i = begin();

  00000	8b 41 08	 mov	 eax, DWORD PTR [ecx+8]

; 499  : 		}
; 500  : 	}
; 501  : 
; 502  : #ifdef __CLIENT
; 503  : 		Error( _T( "CMailBox::IsStampedMailExists Failed" ) );
; 504  : #endif
; 505  : 	return FALSE;

  00003	8b 49 0c	 mov	 ecx, DWORD PTR [ecx+12]
  00006	3b c1		 cmp	 eax, ecx
  00008	53		 push	 ebx
  00009	74 15		 je	 SHORT $L199315
  0000b	eb 03 8d 49 00	 npad	 5

; 490  : 	for( ; i != end(); ++i )

$L206888:

; 491  : 	{
; 492  : 		CMail* pMail	= *i;
; 493  : 		if( pMail->m_byRead == FALSE )

  00010	8b 10		 mov	 edx, DWORD PTR [eax]
  00012	8a 5a 18	 mov	 bl, BYTE PTR [edx+24]
  00015	84 db		 test	 bl, bl
  00017	74 0b		 je	 SHORT $L206922
  00019	83 c0 04	 add	 eax, 4
  0001c	3b c1		 cmp	 eax, ecx
  0001e	75 f0		 jne	 SHORT $L206888
$L199315:

; 499  : 		}
; 500  : 	}
; 501  : 
; 502  : #ifdef __CLIENT
; 503  : 		Error( _T( "CMailBox::IsStampedMailExists Failed" ) );
; 504  : #endif
; 505  : 	return FALSE;

  00020	33 c0		 xor	 eax, eax
  00022	5b		 pop	 ebx

; 506  : }

  00023	c3		 ret	 0
$L206922:

; 494  : 		{
; 495  : #ifdef __CLIENT
; 496  : 		Error( _T( "CMailBox::IsStampedMailExists" ) );
; 497  : #endif
; 498  : 			return TRUE;

  00024	b8 01 00 00 00	 mov	 eax, 1
  00029	5b		 pop	 ebx

; 506  : }

  0002a	c3		 ret	 0
?IsStampedMailExists@CMailBox@@QAEHXZ ENDP		; CMailBox::IsStampedMailExists
_TEXT	ENDS
PUBLIC	??1?$vector@PAVCMail@@V?$allocator@PAVCMail@@@std@@@std@@QAE@XZ ; std::vector<CMail *,std::allocator<CMail *> >::~vector<CMail *,std::allocator<CMail *> >
; Function compile flags: /Ogty
; File c:\program files\microsoft visual studio .net 2003\vc7\include\vector
;	COMDAT ??1?$vector@PAVCMail@@V?$allocator@PAVCMail@@@std@@@std@@QAE@XZ
_TEXT	SEGMENT
??1?$vector@PAVCMail@@V?$allocator@PAVCMail@@@std@@@std@@QAE@XZ PROC NEAR ; std::vector<CMail *,std::allocator<CMail *> >::~vector<CMail *,std::allocator<CMail *> >, COMDAT
; _this$ = ecx

; 387  : 		{	// destroy the object

  00000	56		 push	 esi
  00001	8b f1		 mov	 esi, ecx

; 388  : 		_Tidy();

  00003	8b 46 04	 mov	 eax, DWORD PTR [esi+4]
  00006	85 c0		 test	 eax, eax
  00008	74 09		 je	 SHORT $L206934
  0000a	50		 push	 eax
  0000b	e8 00 00 00 00	 call	 ??3@YAXPAX@Z		; operator delete
  00010	83 c4 04	 add	 esp, 4
$L206934:
  00013	c7 46 04 00 00
	00 00		 mov	 DWORD PTR [esi+4], 0
  0001a	c7 46 08 00 00
	00 00		 mov	 DWORD PTR [esi+8], 0
  00021	c7 46 0c 00 00
	00 00		 mov	 DWORD PTR [esi+12], 0
  00028	5e		 pop	 esi

; 389  : 		}

  00029	c3		 ret	 0
??1?$vector@PAVCMail@@V?$allocator@PAVCMail@@@std@@@std@@QAE@XZ ENDP ; std::vector<CMail *,std::allocator<CMail *> >::~vector<CMail *,std::allocator<CMail *> >
_TEXT	ENDS
PUBLIC	?erase@?$vector@PAVCMail@@V?$allocator@PAVCMail@@@std@@@std@@QAE?AViterator@12@V312@@Z ; std::vector<CMail *,std::allocator<CMail *> >::erase
; Function compile flags: /Ogty
;	COMDAT ?erase@?$vector@PAVCMail@@V?$allocator@PAVCMail@@@std@@@std@@QAE?AViterator@12@V312@@Z
_TEXT	SEGMENT
___$ReturnUdt$ = 8					; size = 4
__Where$ = 12						; size = 4
?erase@?$vector@PAVCMail@@V?$allocator@PAVCMail@@@std@@@std@@QAE?AViterator@12@V312@@Z PROC NEAR ; std::vector<CMail *,std::allocator<CMail *> >::erase, COMDAT
; _this$ = ecx

; 723  : 		{	// erase element at where

  00000	56		 push	 esi
  00001	57		 push	 edi

; 724  : 		copy(_ITER_BASE(_Where) + 1, _Mylast, _ITER_BASE(_Where));

  00002	8b 7c 24 10	 mov	 edi, DWORD PTR __Where$[esp+4]
  00006	8b f1		 mov	 esi, ecx
  00008	8b 4e 08	 mov	 ecx, DWORD PTR [esi+8]
  0000b	8d 47 04	 lea	 eax, DWORD PTR [edi+4]
  0000e	2b c8		 sub	 ecx, eax
  00010	c1 f9 02	 sar	 ecx, 2
  00013	c1 e1 02	 shl	 ecx, 2
  00016	51		 push	 ecx
  00017	50		 push	 eax
  00018	57		 push	 edi
  00019	e8 00 00 00 00	 call	 _memmove

; 725  : 		_Destroy(_Mylast - 1, _Mylast);
; 726  : 		--_Mylast;

  0001e	83 46 08 fc	 add	 DWORD PTR [esi+8], -4	; fffffffcH

; 727  : 		return (_Where);

  00022	8b 44 24 18	 mov	 eax, DWORD PTR ___$ReturnUdt$[esp+16]
  00026	83 c4 0c	 add	 esp, 12			; 0000000cH
  00029	89 38		 mov	 DWORD PTR [eax], edi
  0002b	5f		 pop	 edi
  0002c	5e		 pop	 esi

; 728  : 		}

  0002d	c2 08 00	 ret	 8
?erase@?$vector@PAVCMail@@V?$allocator@PAVCMail@@@std@@@std@@QAE?AViterator@12@V312@@Z ENDP ; std::vector<CMail *,std::allocator<CMail *> >::erase
_TEXT	ENDS
PUBLIC	?clear@?$vector@PAVCMail@@V?$allocator@PAVCMail@@@std@@@std@@QAEXXZ ; std::vector<CMail *,std::allocator<CMail *> >::clear
; Function compile flags: /Ogty
;	COMDAT ?clear@?$vector@PAVCMail@@V?$allocator@PAVCMail@@@std@@@std@@QAEXXZ
_TEXT	SEGMENT
?clear@?$vector@PAVCMail@@V?$allocator@PAVCMail@@@std@@@std@@QAEXXZ PROC NEAR ; std::vector<CMail *,std::allocator<CMail *> >::clear, COMDAT
; _this$ = ecx

; 743  : 		{	// erase all

  00000	56		 push	 esi
  00001	8b f1		 mov	 esi, ecx

; 744  : 		_Tidy();

  00003	8b 46 04	 mov	 eax, DWORD PTR [esi+4]
  00006	85 c0		 test	 eax, eax
  00008	74 09		 je	 SHORT $L206970
  0000a	50		 push	 eax
  0000b	e8 00 00 00 00	 call	 ??3@YAXPAX@Z		; operator delete
  00010	83 c4 04	 add	 esp, 4
$L206970:
  00013	c7 46 04 00 00
	00 00		 mov	 DWORD PTR [esi+4], 0
  0001a	c7 46 08 00 00
	00 00		 mov	 DWORD PTR [esi+8], 0
  00021	c7 46 0c 00 00
	00 00		 mov	 DWORD PTR [esi+12], 0
  00028	5e		 pop	 esi

; 745  : 		}

  00029	c3		 ret	 0
?clear@?$vector@PAVCMail@@V?$allocator@PAVCMail@@@std@@@std@@QAEXXZ ENDP ; std::vector<CMail *,std::allocator<CMail *> >::clear
_TEXT	ENDS
PUBLIC	?clear@?$_Tree@V?$_Tmap_traits@KPAVCMail@@U?$less@K@std@@V?$allocator@U?$pair@$$CBKPAVCMail@@@std@@@3@$0A@@std@@@std@@QAEXXZ ; std::_Tree<std::_Tmap_traits<unsigned long,CMail *,std::less<unsigned long>,std::allocator<std::pair<unsigned long const ,CMail *> >,0> >::clear
; Function compile flags: /Ogty
; File c:\program files\microsoft visual studio .net 2003\vc7\include\xtree
;	COMDAT ?clear@?$_Tree@V?$_Tmap_traits@KPAVCMail@@U?$less@K@std@@V?$allocator@U?$pair@$$CBKPAVCMail@@@std@@@3@$0A@@std@@@std@@QAEXXZ
_TEXT	SEGMENT
?clear@?$_Tree@V?$_Tmap_traits@KPAVCMail@@U?$less@K@std@@V?$allocator@U?$pair@$$CBKPAVCMail@@@std@@@3@$0A@@std@@@std@@QAEXXZ PROC NEAR ; std::_Tree<std::_Tmap_traits<unsigned long,CMail *,std::less<unsigned long>,std::allocator<std::pair<unsigned long const ,CMail *> >,0> >::clear, COMDAT
; _this$ = ecx

; 780  : 		{	// erase all

  00000	56		 push	 esi
  00001	8b f1		 mov	 esi, ecx

; 781  : 		_Erase(_Root());

  00003	8b 46 04	 mov	 eax, DWORD PTR [esi+4]
  00006	8b 48 04	 mov	 ecx, DWORD PTR [eax+4]
  00009	51		 push	 ecx
  0000a	8b ce		 mov	 ecx, esi
  0000c	e8 00 00 00 00	 call	 ?_Erase@?$_Tree@V?$_Tmap_traits@KPAVCMail@@U?$less@K@std@@V?$allocator@U?$pair@$$CBKPAVCMail@@@std@@@3@$0A@@std@@@std@@IAEXPAU_Node@?$_Tree_nod@V?$_Tmap_traits@KPAVCMail@@U?$less@K@std@@V?$allocator@U?$pair@$$CBKPAVCMail@@@std@@@3@$0A@@std@@@2@@Z ; std::_Tree<std::_Tmap_traits<unsigned long,CMail *,std::less<unsigned long>,std::allocator<std::pair<unsigned long const ,CMail *> >,0> >::_Erase

; 782  : 		_Root() = _Myhead, _Mysize = 0;

  00011	8b 46 04	 mov	 eax, DWORD PTR [esi+4]
  00014	89 40 04	 mov	 DWORD PTR [eax+4], eax

; 783  : 		_Lmost() = _Myhead, _Rmost() = _Myhead;

  00017	8b 46 04	 mov	 eax, DWORD PTR [esi+4]
  0001a	c7 46 08 00 00
	00 00		 mov	 DWORD PTR [esi+8], 0
  00021	89 00		 mov	 DWORD PTR [eax], eax
  00023	8b 76 04	 mov	 esi, DWORD PTR [esi+4]
  00026	89 76 08	 mov	 DWORD PTR [esi+8], esi
  00029	5e		 pop	 esi

; 784  : 		}

  0002a	c3		 ret	 0
?clear@?$_Tree@V?$_Tmap_traits@KPAVCMail@@U?$less@K@std@@V?$allocator@U?$pair@$$CBKPAVCMail@@@std@@@3@$0A@@std@@@std@@QAEXXZ ENDP ; std::_Tree<std::_Tmap_traits<unsigned long,CMail *,std::less<unsigned long>,std::allocator<std::pair<unsigned long const ,CMail *> >,0> >::clear
_TEXT	ENDS
PUBLIC	?clear@?$_Tree@V?$_Tmap_traits@KPAVCMailBox@@U?$less@K@std@@V?$allocator@U?$pair@$$CBKPAVCMailBox@@@std@@@3@$0A@@std@@@std@@QAEXXZ ; std::_Tree<std::_Tmap_traits<unsigned long,CMailBox *,std::less<unsigned long>,std::allocator<std::pair<unsigned long const ,CMailBox *> >,0> >::clear
; Function compile flags: /Ogty
;	COMDAT ?clear@?$_Tree@V?$_Tmap_traits@KPAVCMailBox@@U?$less@K@std@@V?$allocator@U?$pair@$$CBKPAVCMailBox@@@std@@@3@$0A@@std@@@std@@QAEXXZ
_TEXT	SEGMENT
?clear@?$_Tree@V?$_Tmap_traits@KPAVCMailBox@@U?$less@K@std@@V?$allocator@U?$pair@$$CBKPAVCMailBox@@@std@@@3@$0A@@std@@@std@@QAEXXZ PROC NEAR ; std::_Tree<std::_Tmap_traits<unsigned long,CMailBox *,std::less<unsigned long>,std::allocator<std::pair<unsigned long const ,CMailBox *> >,0> >::clear, COMDAT
; _this$ = ecx

; 780  : 		{	// erase all

  00000	56		 push	 esi
  00001	8b f1		 mov	 esi, ecx

; 781  : 		_Erase(_Root());

  00003	8b 46 04	 mov	 eax, DWORD PTR [esi+4]
  00006	8b 48 04	 mov	 ecx, DWORD PTR [eax+4]
  00009	51		 push	 ecx
  0000a	8b ce		 mov	 ecx, esi
  0000c	e8 00 00 00 00	 call	 ?_Erase@?$_Tree@V?$_Tmap_traits@KPAVCMailBox@@U?$less@K@std@@V?$allocator@U?$pair@$$CBKPAVCMailBox@@@std@@@3@$0A@@std@@@std@@IAEXPAU_Node@?$_Tree_nod@V?$_Tmap_traits@KPAVCMailBox@@U?$less@K@std@@V?$allocator@U?$pair@$$CBKPAVCMailBox@@@std@@@3@$0A@@std@@@2@@Z ; std::_Tree<std::_Tmap_traits<unsigned long,CMailBox *,std::less<unsigned long>,std::allocator<std::pair<unsigned long const ,CMailBox *> >,0> >::_Erase

; 782  : 		_Root() = _Myhead, _Mysize = 0;

  00011	8b 46 04	 mov	 eax, DWORD PTR [esi+4]
  00014	89 40 04	 mov	 DWORD PTR [eax+4], eax

; 783  : 		_Lmost() = _Myhead, _Rmost() = _Myhead;

  00017	8b 46 04	 mov	 eax, DWORD PTR [esi+4]
  0001a	c7 46 08 00 00
	00 00		 mov	 DWORD PTR [esi+8], 0
  00021	89 00		 mov	 DWORD PTR [eax], eax
  00023	8b 76 04	 mov	 esi, DWORD PTR [esi+4]
  00026	89 76 08	 mov	 DWORD PTR [esi+8], esi
  00029	5e		 pop	 esi

; 784  : 		}

  0002a	c3		 ret	 0
?clear@?$_Tree@V?$_Tmap_traits@KPAVCMailBox@@U?$less@K@std@@V?$allocator@U?$pair@$$CBKPAVCMailBox@@@std@@@3@$0A@@std@@@std@@QAEXXZ ENDP ; std::_Tree<std::_Tmap_traits<unsigned long,CMailBox *,std::less<unsigned long>,std::allocator<std::pair<unsigned long const ,CMailBox *> >,0> >::clear
_TEXT	ENDS
PUBLIC	?find@?$_Tree@V?$_Tmap_traits@KPAVCMailBox@@U?$less@K@std@@V?$allocator@U?$pair@$$CBKPAVCMailBox@@@std@@@3@$0A@@std@@@std@@QAE?AViterator@12@ABK@Z ; std::_Tree<std::_Tmap_traits<unsigned long,CMailBox *,std::less<unsigned long>,std::allocator<std::pair<unsigned long const ,CMailBox *> >,0> >::find
; Function compile flags: /Ogty
;	COMDAT ?find@?$_Tree@V?$_Tmap_traits@KPAVCMailBox@@U?$less@K@std@@V?$allocator@U?$pair@$$CBKPAVCMailBox@@@std@@@3@$0A@@std@@@std@@QAE?AViterator@12@ABK@Z
_TEXT	SEGMENT
$T207049 = -4						; size = 4
___$ReturnUdt$ = 8					; size = 4
__Where$ = 12						; size = 4
__Keyval$ = 12						; size = 4
?find@?$_Tree@V?$_Tmap_traits@KPAVCMailBox@@U?$less@K@std@@V?$allocator@U?$pair@$$CBKPAVCMailBox@@@std@@@3@$0A@@std@@@std@@QAE?AViterator@12@ABK@Z PROC NEAR ; std::_Tree<std::_Tmap_traits<unsigned long,CMailBox *,std::less<unsigned long>,std::allocator<std::pair<unsigned long const ,CMailBox *> >,0> >::find, COMDAT
; _this$ = ecx

; 787  : 		{	// find an element in mutable sequence that matches _Keyval

  00000	51		 push	 ecx

; 788  : 		iterator _Where = lower_bound(_Keyval);

  00001	8b 51 04	 mov	 edx, DWORD PTR [ecx+4]
  00004	8b 42 04	 mov	 eax, DWORD PTR [edx+4]
  00007	53		 push	 ebx
  00008	8a 58 15	 mov	 bl, BYTE PTR [eax+21]
  0000b	84 db		 test	 bl, bl
  0000d	56		 push	 esi
  0000e	57		 push	 edi
  0000f	8b 7c 24 18	 mov	 edi, DWORD PTR __Keyval$[esp+12]
  00013	75 17		 jne	 SHORT $L207132
  00015	8b 37		 mov	 esi, DWORD PTR [edi]
$L207131:
  00017	39 70 0c	 cmp	 DWORD PTR [eax+12], esi
  0001a	73 05		 jae	 SHORT $L207134
  0001c	8b 40 08	 mov	 eax, DWORD PTR [eax+8]
  0001f	eb 04		 jmp	 SHORT $L207136
$L207134:
  00021	8b d0		 mov	 edx, eax
  00023	8b 00		 mov	 eax, DWORD PTR [eax]
$L207136:
  00025	8a 58 15	 mov	 bl, BYTE PTR [eax+21]
  00028	84 db		 test	 bl, bl
  0002a	74 eb		 je	 SHORT $L207131
$L207132:

; 789  : 		return (_Where == end() || this->comp(_Keyval, _Key(_Where._Mynode()))
; 790  : 			? end() : _Where);

  0002c	8b 41 04	 mov	 eax, DWORD PTR [ecx+4]
  0002f	3b d0		 cmp	 edx, eax
  00031	89 54 24 18	 mov	 DWORD PTR __Where$[esp+12], edx
  00035	74 1a		 je	 SHORT $L207048
  00037	8b 0f		 mov	 ecx, DWORD PTR [edi]
  00039	3b 4a 0c	 cmp	 ecx, DWORD PTR [edx+12]
  0003c	72 13		 jb	 SHORT $L207048
  0003e	8d 44 24 18	 lea	 eax, DWORD PTR __Where$[esp+12]
  00042	8b 10		 mov	 edx, DWORD PTR [eax]
  00044	8b 44 24 14	 mov	 eax, DWORD PTR ___$ReturnUdt$[esp+12]
  00048	5f		 pop	 edi
  00049	5e		 pop	 esi
  0004a	89 10		 mov	 DWORD PTR [eax], edx
  0004c	5b		 pop	 ebx

; 791  : 		}

  0004d	59		 pop	 ecx
  0004e	c2 08 00	 ret	 8
$L207048:

; 789  : 		return (_Where == end() || this->comp(_Keyval, _Key(_Where._Mynode()))
; 790  : 			? end() : _Where);

  00051	89 44 24 0c	 mov	 DWORD PTR $T207049[esp+16], eax
  00055	8d 44 24 0c	 lea	 eax, DWORD PTR $T207049[esp+16]
  00059	8b 10		 mov	 edx, DWORD PTR [eax]
  0005b	8b 44 24 14	 mov	 eax, DWORD PTR ___$ReturnUdt$[esp+12]
  0005f	5f		 pop	 edi
  00060	5e		 pop	 esi
  00061	89 10		 mov	 DWORD PTR [eax], edx
  00063	5b		 pop	 ebx

; 791  : 		}

  00064	59		 pop	 ecx
  00065	c2 08 00	 ret	 8
?find@?$_Tree@V?$_Tmap_traits@KPAVCMailBox@@U?$less@K@std@@V?$allocator@U?$pair@$$CBKPAVCMailBox@@@std@@@3@$0A@@std@@@std@@QAE?AViterator@12@ABK@Z ENDP ; std::_Tree<std::_Tmap_traits<unsigned long,CMailBox *,std::less<unsigned long>,std::allocator<std::pair<unsigned long const ,CMailBox *> >,0> >::find
_TEXT	ENDS
PUBLIC	??Eiterator@?$_Tree@V?$_Tmap_traits@KPAVCMail@@U?$less@K@std@@V?$allocator@U?$pair@$$CBKPAVCMail@@@std@@@3@$0A@@std@@@std@@QAEAAV012@XZ ; std::_Tree<std::_Tmap_traits<unsigned long,CMail *,std::less<unsigned long>,std::allocator<std::pair<unsigned long const ,CMail *> >,0> >::iterator::operator++
; Function compile flags: /Ogty
;	COMDAT ??Eiterator@?$_Tree@V?$_Tmap_traits@KPAVCMail@@U?$less@K@std@@V?$allocator@U?$pair@$$CBKPAVCMail@@@std@@@3@$0A@@std@@@std@@QAEAAV012@XZ
_TEXT	SEGMENT
??Eiterator@?$_Tree@V?$_Tmap_traits@KPAVCMail@@U?$less@K@std@@V?$allocator@U?$pair@$$CBKPAVCMail@@@std@@@3@$0A@@std@@@std@@QAEAAV012@XZ PROC NEAR ; std::_Tree<std::_Tmap_traits<unsigned long,CMail *,std::less<unsigned long>,std::allocator<std::pair<unsigned long const ,CMail *> >,0> >::iterator::operator++, COMDAT
; _this$ = ecx

; 326  : 			{	// preincrement

  00000	56		 push	 esi
  00001	8b f1		 mov	 esi, ecx

; 327  : 			++(*(const_iterator *)this);

  00003	e8 00 00 00 00	 call	 ?_Inc@const_iterator@?$_Tree@V?$_Tmap_traits@KPAVCMail@@U?$less@K@std@@V?$allocator@U?$pair@$$CBKPAVCMail@@@std@@@3@$0A@@std@@@std@@QAEXXZ ; std::_Tree<std::_Tmap_traits<unsigned long,CMail *,std::less<unsigned long>,std::allocator<std::pair<unsigned long const ,CMail *> >,0> >::const_iterator::_Inc

; 328  : 			return (*this);

  00008	8b c6		 mov	 eax, esi
  0000a	5e		 pop	 esi

; 329  : 			}

  0000b	c3		 ret	 0
??Eiterator@?$_Tree@V?$_Tmap_traits@KPAVCMail@@U?$less@K@std@@V?$allocator@U?$pair@$$CBKPAVCMail@@@std@@@3@$0A@@std@@@std@@QAEAAV012@XZ ENDP ; std::_Tree<std::_Tmap_traits<unsigned long,CMail *,std::less<unsigned long>,std::allocator<std::pair<unsigned long const ,CMail *> >,0> >::iterator::operator++
_TEXT	ENDS
PUBLIC	??Eiterator@?$_Tree@V?$_Tmap_traits@KPAVCMailBox@@U?$less@K@std@@V?$allocator@U?$pair@$$CBKPAVCMailBox@@@std@@@3@$0A@@std@@@std@@QAEAAV012@XZ ; std::_Tree<std::_Tmap_traits<unsigned long,CMailBox *,std::less<unsigned long>,std::allocator<std::pair<unsigned long const ,CMailBox *> >,0> >::iterator::operator++
; Function compile flags: /Ogty
;	COMDAT ??Eiterator@?$_Tree@V?$_Tmap_traits@KPAVCMailBox@@U?$less@K@std@@V?$allocator@U?$pair@$$CBKPAVCMailBox@@@std@@@3@$0A@@std@@@std@@QAEAAV012@XZ
_TEXT	SEGMENT
??Eiterator@?$_Tree@V?$_Tmap_traits@KPAVCMailBox@@U?$less@K@std@@V?$allocator@U?$pair@$$CBKPAVCMailBox@@@std@@@3@$0A@@std@@@std@@QAEAAV012@XZ PROC NEAR ; std::_Tree<std::_Tmap_traits<unsigned long,CMailBox *,std::less<unsigned long>,std::allocator<std::pair<unsigned long const ,CMailBox *> >,0> >::iterator::operator++, COMDAT
; _this$ = ecx

; 326  : 			{	// preincrement

  00000	56		 push	 esi
  00001	8b f1		 mov	 esi, ecx

; 327  : 			++(*(const_iterator *)this);

  00003	e8 00 00 00 00	 call	 ?_Inc@const_iterator@?$_Tree@V?$_Tmap_traits@KPAVCMailBox@@U?$less@K@std@@V?$allocator@U?$pair@$$CBKPAVCMailBox@@@std@@@3@$0A@@std@@@std@@QAEXXZ ; std::_Tree<std::_Tmap_traits<unsigned long,CMailBox *,std::less<unsigned long>,std::allocator<std::pair<unsigned long const ,CMailBox *> >,0> >::const_iterator::_Inc

; 328  : 			return (*this);

  00008	8b c6		 mov	 eax, esi
  0000a	5e		 pop	 esi

; 329  : 			}

  0000b	c3		 ret	 0
??Eiterator@?$_Tree@V?$_Tmap_traits@KPAVCMailBox@@U?$less@K@std@@V?$allocator@U?$pair@$$CBKPAVCMailBox@@@std@@@3@$0A@@std@@@std@@QAEAAV012@XZ ENDP ; std::_Tree<std::_Tmap_traits<unsigned long,CMailBox *,std::less<unsigned long>,std::allocator<std::pair<unsigned long const ,CMailBox *> >,0> >::iterator::operator++
_TEXT	ENDS
PUBLIC	??1?$list@PAVCMail@@V?$allocator@PAVCMail@@@std@@@std@@QAE@XZ ; std::list<CMail *,std::allocator<CMail *> >::~list<CMail *,std::allocator<CMail *> >
; Function compile flags: /Ogty
; File c:\program files\microsoft visual studio .net 2003\vc7\include\list
;	COMDAT ??1?$list@PAVCMail@@V?$allocator@PAVCMail@@@std@@@std@@QAE@XZ
_TEXT	SEGMENT
??1?$list@PAVCMail@@V?$allocator@PAVCMail@@@std@@@std@@QAE@XZ PROC NEAR ; std::list<CMail *,std::allocator<CMail *> >::~list<CMail *,std::allocator<CMail *> >, COMDAT
; _this$ = ecx

; 364  : 		{	// destroy the object

  00000	56		 push	 esi
  00001	8b f1		 mov	 esi, ecx

; 365  : 		_Tidy();

  00003	e8 00 00 00 00	 call	 ?clear@?$list@PAVCMail@@V?$allocator@PAVCMail@@@std@@@std@@QAEXXZ ; std::list<CMail *,std::allocator<CMail *> >::clear
  00008	8b 46 04	 mov	 eax, DWORD PTR [esi+4]
  0000b	50		 push	 eax
  0000c	e8 00 00 00 00	 call	 ??3@YAXPAX@Z		; operator delete
  00011	83 c4 04	 add	 esp, 4
  00014	c7 46 04 00 00
	00 00		 mov	 DWORD PTR [esi+4], 0
  0001b	5e		 pop	 esi

; 366  : 		}

  0001c	c3		 ret	 0
??1?$list@PAVCMail@@V?$allocator@PAVCMail@@@std@@@std@@QAE@XZ ENDP ; std::list<CMail *,std::allocator<CMail *> >::~list<CMail *,std::allocator<CMail *> >
_TEXT	ENDS
PUBLIC	?_Ufill@?$vector@PAVCMail@@V?$allocator@PAVCMail@@@std@@@std@@IAEPAPAVCMail@@PAPAV3@IABQAV3@@Z ; std::vector<CMail *,std::allocator<CMail *> >::_Ufill
; Function compile flags: /Ogty
; File c:\program files\microsoft visual studio .net 2003\vc7\include\vector
;	COMDAT ?_Ufill@?$vector@PAVCMail@@V?$allocator@PAVCMail@@@std@@@std@@IAEPAPAVCMail@@PAPAV3@IABQAV3@@Z
_TEXT	SEGMENT
__Ptr$ = 8						; size = 4
__Count$ = 12						; size = 4
__Val$ = 16						; size = 4
?_Ufill@?$vector@PAVCMail@@V?$allocator@PAVCMail@@@std@@@std@@IAEPAPAVCMail@@PAPAV3@IABQAV3@@Z PROC NEAR ; std::vector<CMail *,std::allocator<CMail *> >::_Ufill, COMDAT
; _this$ = ecx

; 877  : 		{	// copy initializing _Count * _Val, using allocator

  00000	56		 push	 esi

; 878  : 		_Uninitialized_fill_n(_Ptr, _Count, _Val, this->_Alval);

  00001	8b 74 24 0c	 mov	 esi, DWORD PTR __Count$[esp]
  00005	85 f6		 test	 esi, esi
  00007	57		 push	 edi
  00008	8b 7c 24 0c	 mov	 edi, DWORD PTR __Ptr$[esp+4]
  0000c	8b c7		 mov	 eax, edi
  0000e	76 12		 jbe	 SHORT $L207278
  00010	8b 54 24 14	 mov	 edx, DWORD PTR __Val$[esp+4]
  00014	8b ce		 mov	 ecx, esi
  00016	53		 push	 ebx
$L207271:
  00017	8b 1a		 mov	 ebx, DWORD PTR [edx]
  00019	89 18		 mov	 DWORD PTR [eax], ebx
  0001b	83 c0 04	 add	 eax, 4
  0001e	49		 dec	 ecx
  0001f	75 f6		 jne	 SHORT $L207271
  00021	5b		 pop	 ebx
$L207278:

; 879  : 		return (_Ptr + _Count);

  00022	8d 04 b7	 lea	 eax, DWORD PTR [edi+esi*4]
  00025	5f		 pop	 edi
  00026	5e		 pop	 esi

; 880  : 		}

  00027	c2 0c 00	 ret	 12			; 0000000cH
?_Ufill@?$vector@PAVCMail@@V?$allocator@PAVCMail@@@std@@@std@@IAEPAPAVCMail@@PAPAV3@IABQAV3@@Z ENDP ; std::vector<CMail *,std::allocator<CMail *> >::_Ufill
_TEXT	ENDS
PUBLIC	?equal_range@?$_Tree@V?$_Tmap_traits@KPAVCMail@@U?$less@K@std@@V?$allocator@U?$pair@$$CBKPAVCMail@@@std@@@3@$0A@@std@@@std@@QAE?AU?$pair@Viterator@?$_Tree@V?$_Tmap_traits@KPAVCMail@@U?$less@K@std@@V?$allocator@U?$pair@$$CBKPAVCMail@@@std@@@3@$0A@@std@@@std@@V123@@2@ABK@Z ; std::_Tree<std::_Tmap_traits<unsigned long,CMail *,std::less<unsigned long>,std::allocator<std::pair<unsigned long const ,CMail *> >,0> >::equal_range
; Function compile flags: /Ogty
; File c:\program files\microsoft visual studio .net 2003\vc7\include\xtree
;	COMDAT ?equal_range@?$_Tree@V?$_Tmap_traits@KPAVCMail@@U?$less@K@std@@V?$allocator@U?$pair@$$CBKPAVCMail@@@std@@@3@$0A@@std@@@std@@QAE?AU?$pair@Viterator@?$_Tree@V?$_Tmap_traits@KPAVCMail@@U?$less@K@std@@V?$allocator@U?$pair@$$CBKPAVCMail@@@std@@@3@$0A@@std@@@std@@V123@@2@ABK@Z
_TEXT	SEGMENT
___$ReturnUdt$ = 8					; size = 4
__Keyval$ = 12						; size = 4
?equal_range@?$_Tree@V?$_Tmap_traits@KPAVCMail@@U?$less@K@std@@V?$allocator@U?$pair@$$CBKPAVCMail@@@std@@@3@$0A@@std@@@std@@QAE?AU?$pair@Viterator@?$_Tree@V?$_Tmap_traits@KPAVCMail@@U?$less@K@std@@V?$allocator@U?$pair@$$CBKPAVCMail@@@std@@@3@$0A@@std@@@std@@V123@@2@ABK@Z PROC NEAR ; std::_Tree<std::_Tmap_traits<unsigned long,CMail *,std::less<unsigned long>,std::allocator<std::pair<unsigned long const ,CMail *> >,0> >::equal_range, COMDAT
; _this$ = ecx

; 830  : 		return (_Pairii(lower_bound(_Keyval), upper_bound(_Keyval)));

  00000	8b 51 04	 mov	 edx, DWORD PTR [ecx+4]
  00003	8b 42 04	 mov	 eax, DWORD PTR [edx+4]
  00006	53		 push	 ebx
  00007	8a 58 15	 mov	 bl, BYTE PTR [eax+21]
  0000a	84 db		 test	 bl, bl
  0000c	56		 push	 esi
  0000d	57		 push	 edi
  0000e	8b 7c 24 14	 mov	 edi, DWORD PTR __Keyval$[esp+8]
  00012	75 17		 jne	 SHORT $L207377
  00014	8b 37		 mov	 esi, DWORD PTR [edi]
$L207376:
  00016	3b 70 0c	 cmp	 esi, DWORD PTR [eax+12]
  00019	73 06		 jae	 SHORT $L207378
  0001b	8b d0		 mov	 edx, eax
  0001d	8b 00		 mov	 eax, DWORD PTR [eax]
  0001f	eb 03		 jmp	 SHORT $L207379
$L207378:
  00021	8b 40 08	 mov	 eax, DWORD PTR [eax+8]
$L207379:
  00024	8a 58 15	 mov	 bl, BYTE PTR [eax+21]
  00027	84 db		 test	 bl, bl
  00029	74 eb		 je	 SHORT $L207376
$L207377:
  0002b	8b 49 04	 mov	 ecx, DWORD PTR [ecx+4]
  0002e	8b 41 04	 mov	 eax, DWORD PTR [ecx+4]
  00031	8a 58 15	 mov	 bl, BYTE PTR [eax+21]
  00034	84 db		 test	 bl, bl
  00036	75 1d		 jne	 SHORT $L207459
  00038	8b 37		 mov	 esi, DWORD PTR [edi]
  0003a	8d 9b 00 00 00
	00		 npad	 6
$L207458:
  00040	39 70 0c	 cmp	 DWORD PTR [eax+12], esi
  00043	73 05		 jae	 SHORT $L207460
  00045	8b 40 08	 mov	 eax, DWORD PTR [eax+8]
  00048	eb 04		 jmp	 SHORT $L207461
$L207460:
  0004a	8b c8		 mov	 ecx, eax
  0004c	8b 00		 mov	 eax, DWORD PTR [eax]
$L207461:
  0004e	8a 58 15	 mov	 bl, BYTE PTR [eax+21]
  00051	84 db		 test	 bl, bl
  00053	74 eb		 je	 SHORT $L207458
$L207459:
  00055	8b 44 24 10	 mov	 eax, DWORD PTR ___$ReturnUdt$[esp+8]
  00059	5f		 pop	 edi
  0005a	5e		 pop	 esi
  0005b	89 08		 mov	 DWORD PTR [eax], ecx
  0005d	89 50 04	 mov	 DWORD PTR [eax+4], edx
  00060	5b		 pop	 ebx

; 831  : 		}

  00061	c2 08 00	 ret	 8
?equal_range@?$_Tree@V?$_Tmap_traits@KPAVCMail@@U?$less@K@std@@V?$allocator@U?$pair@$$CBKPAVCMail@@@std@@@3@$0A@@std@@@std@@QAE?AU?$pair@Viterator@?$_Tree@V?$_Tmap_traits@KPAVCMail@@U?$less@K@std@@V?$allocator@U?$pair@$$CBKPAVCMail@@@std@@@3@$0A@@std@@@std@@V123@@2@ABK@Z ENDP ; std::_Tree<std::_Tmap_traits<unsigned long,CMail *,std::less<unsigned long>,std::allocator<std::pair<unsigned long const ,CMail *> >,0> >::equal_range
_TEXT	ENDS
PUBLIC	??Fiterator@?$_Tree@V?$_Tmap_traits@KPAVCMailBox@@U?$less@K@std@@V?$allocator@U?$pair@$$CBKPAVCMailBox@@@std@@@3@$0A@@std@@@std@@QAEAAV012@XZ ; std::_Tree<std::_Tmap_traits<unsigned long,CMailBox *,std::less<unsigned long>,std::allocator<std::pair<unsigned long const ,CMailBox *> >,0> >::iterator::operator--
; Function compile flags: /Ogty
;	COMDAT ??Fiterator@?$_Tree@V?$_Tmap_traits@KPAVCMailBox@@U?$less@K@std@@V?$allocator@U?$pair@$$CBKPAVCMailBox@@@std@@@3@$0A@@std@@@std@@QAEAAV012@XZ
_TEXT	SEGMENT
??Fiterator@?$_Tree@V?$_Tmap_traits@KPAVCMailBox@@U?$less@K@std@@V?$allocator@U?$pair@$$CBKPAVCMailBox@@@std@@@3@$0A@@std@@@std@@QAEAAV012@XZ PROC NEAR ; std::_Tree<std::_Tmap_traits<unsigned long,CMailBox *,std::less<unsigned long>,std::allocator<std::pair<unsigned long const ,CMailBox *> >,0> >::iterator::operator--, COMDAT
; _this$ = ecx

; 339  : 			{	// predecrement

  00000	56		 push	 esi
  00001	8b f1		 mov	 esi, ecx

; 340  : 			--(*(const_iterator *)this);

  00003	e8 00 00 00 00	 call	 ?_Dec@const_iterator@?$_Tree@V?$_Tmap_traits@KPAVCMailBox@@U?$less@K@std@@V?$allocator@U?$pair@$$CBKPAVCMailBox@@@std@@@3@$0A@@std@@@std@@QAEXXZ ; std::_Tree<std::_Tmap_traits<unsigned long,CMailBox *,std::less<unsigned long>,std::allocator<std::pair<unsigned long const ,CMailBox *> >,0> >::const_iterator::_Dec

; 341  : 			return (*this);

  00008	8b c6		 mov	 eax, esi
  0000a	5e		 pop	 esi

; 342  : 			}

  0000b	c3		 ret	 0
??Fiterator@?$_Tree@V?$_Tmap_traits@KPAVCMailBox@@U?$less@K@std@@V?$allocator@U?$pair@$$CBKPAVCMailBox@@@std@@@3@$0A@@std@@@std@@QAEAAV012@XZ ENDP ; std::_Tree<std::_Tmap_traits<unsigned long,CMailBox *,std::less<unsigned long>,std::allocator<std::pair<unsigned long const ,CMailBox *> >,0> >::iterator::operator--
_TEXT	ENDS
PUBLIC	??0?$_List_val@PAVCMail@@V?$allocator@PAVCMail@@@std@@@std@@IAE@V?$allocator@PAVCMail@@@1@@Z ; std::_List_val<CMail *,std::allocator<CMail *> >::_List_val<CMail *,std::allocator<CMail *> >
; Function compile flags: /Ogty
; File c:\program files\microsoft visual studio .net 2003\vc7\include\list
;	COMDAT ??0?$_List_val@PAVCMail@@V?$allocator@PAVCMail@@@std@@@std@@IAE@V?$allocator@PAVCMail@@@1@@Z
_TEXT	SEGMENT
__Al$ = 8						; size = 1
??0?$_List_val@PAVCMail@@V?$allocator@PAVCMail@@@std@@@std@@IAE@V?$allocator@PAVCMail@@@1@@Z PROC NEAR ; std::_List_val<CMail *,std::allocator<CMail *> >::_List_val<CMail *,std::allocator<CMail *> >, COMDAT
; _this$ = ecx

; 82   : 		{	// construct base, and allocator from _Al

  00000	8b c1		 mov	 eax, ecx

; 83   : 		}

  00002	c2 04 00	 ret	 4
??0?$_List_val@PAVCMail@@V?$allocator@PAVCMail@@@std@@@std@@IAE@V?$allocator@PAVCMail@@@1@@Z ENDP ; std::_List_val<CMail *,std::allocator<CMail *> >::_List_val<CMail *,std::allocator<CMail *> >
_TEXT	ENDS
PUBLIC	?_Init@?$_Tree@V?$_Tmap_traits@KPAVCMail@@U?$less@K@std@@V?$allocator@U?$pair@$$CBKPAVCMail@@@std@@@3@$0A@@std@@@std@@IAEXXZ ; std::_Tree<std::_Tmap_traits<unsigned long,CMail *,std::less<unsigned long>,std::allocator<std::pair<unsigned long const ,CMail *> >,0> >::_Init
; Function compile flags: /Ogty
; File c:\program files\microsoft visual studio .net 2003\vc7\include\xtree
;	COMDAT ?_Init@?$_Tree@V?$_Tmap_traits@KPAVCMail@@U?$less@K@std@@V?$allocator@U?$pair@$$CBKPAVCMail@@@std@@@3@$0A@@std@@@std@@IAEXXZ
_TEXT	SEGMENT
?_Init@?$_Tree@V?$_Tmap_traits@KPAVCMail@@U?$less@K@std@@V?$allocator@U?$pair@$$CBKPAVCMail@@@std@@@3@$0A@@std@@@std@@IAEXXZ PROC NEAR ; std::_Tree<std::_Tmap_traits<unsigned long,CMail *,std::less<unsigned long>,std::allocator<std::pair<unsigned long const ,CMail *> >,0> >::_Init, COMDAT
; _this$ = ecx

; 901  : 		{	// create head/nil node and make tree empty

  00000	56		 push	 esi
  00001	8b f1		 mov	 esi, ecx

; 902  : 		_Myhead = _Buynode();

  00003	e8 00 00 00 00	 call	 ?_Buynode@?$_Tree@V?$_Tmap_traits@KPAVCMail@@U?$less@K@std@@V?$allocator@U?$pair@$$CBKPAVCMail@@@std@@@3@$0A@@std@@@std@@IAEPAU_Node@?$_Tree_nod@V?$_Tmap_traits@KPAVCMail@@U?$less@K@std@@V?$allocator@U?$pair@$$CBKPAVCMail@@@std@@@3@$0A@@std@@@2@XZ ; std::_Tree<std::_Tmap_traits<unsigned long,CMail *,std::less<unsigned long>,std::allocator<std::pair<unsigned long const ,CMail *> >,0> >::_Buynode
  00008	89 46 04	 mov	 DWORD PTR [esi+4], eax

; 903  : 		_Isnil(_Myhead) = true;

  0000b	c6 40 15 01	 mov	 BYTE PTR [eax+21], 1

; 904  : 		_Root() = _Myhead;

  0000f	8b 46 04	 mov	 eax, DWORD PTR [esi+4]
  00012	89 40 04	 mov	 DWORD PTR [eax+4], eax

; 905  : 		_Lmost() = _Myhead, _Rmost() = _Myhead;

  00015	8b 46 04	 mov	 eax, DWORD PTR [esi+4]
  00018	89 00		 mov	 DWORD PTR [eax], eax
  0001a	8b 46 04	 mov	 eax, DWORD PTR [esi+4]
  0001d	89 40 08	 mov	 DWORD PTR [eax+8], eax

; 906  : 		_Mysize = 0;

  00020	c7 46 08 00 00
	00 00		 mov	 DWORD PTR [esi+8], 0
  00027	5e		 pop	 esi

; 907  : 		}

  00028	c3		 ret	 0
?_Init@?$_Tree@V?$_Tmap_traits@KPAVCMail@@U?$less@K@std@@V?$allocator@U?$pair@$$CBKPAVCMail@@@std@@@3@$0A@@std@@@std@@IAEXXZ ENDP ; std::_Tree<std::_Tmap_traits<unsigned long,CMail *,std::less<unsigned long>,std::allocator<std::pair<unsigned long const ,CMail *> >,0> >::_Init
_TEXT	ENDS
PUBLIC	??0?$_Tree_val@V?$_Tmap_traits@KPAVCMail@@U?$less@K@std@@V?$allocator@U?$pair@$$CBKPAVCMail@@@std@@@3@$0A@@std@@@std@@IAE@ABU?$less@K@1@V?$allocator@U?$pair@$$CBKPAVCMail@@@std@@@1@@Z ; std::_Tree_val<std::_Tmap_traits<unsigned long,CMail *,std::less<unsigned long>,std::allocator<std::pair<unsigned long const ,CMail *> >,0> >::_Tree_val<std::_Tmap_traits<unsigned long,CMail *,std::less<unsigned long>,std::allocator<std::pair<unsigned long const ,CMail *> >,0> >
; Function compile flags: /Ogty
;	COMDAT ??0?$_Tree_val@V?$_Tmap_traits@KPAVCMail@@U?$less@K@std@@V?$allocator@U?$pair@$$CBKPAVCMail@@@std@@@3@$0A@@std@@@std@@IAE@ABU?$less@K@1@V?$allocator@U?$pair@$$CBKPAVCMail@@@std@@@1@@Z
_TEXT	SEGMENT
__Parg$ = 8						; size = 4
__Al$ = 12						; size = 1
??0?$_Tree_val@V?$_Tmap_traits@KPAVCMail@@U?$less@K@std@@V?$allocator@U?$pair@$$CBKPAVCMail@@@std@@@3@$0A@@std@@@std@@IAE@ABU?$less@K@1@V?$allocator@U?$pair@$$CBKPAVCMail@@@std@@@1@@Z PROC NEAR ; std::_Tree_val<std::_Tmap_traits<unsigned long,CMail *,std::less<unsigned long>,std::allocator<std::pair<unsigned long const ,CMail *> >,0> >::_Tree_val<std::_Tmap_traits<unsigned long,CMail *,std::less<unsigned long>,std::allocator<std::pair<unsigned long const ,CMail *> >,0> >, COMDAT
; _this$ = ecx

; 95   : 		{	// construct base, and allocator from _Al

  00000	8b c1		 mov	 eax, ecx

; 96   : 		}

  00002	c2 08 00	 ret	 8
??0?$_Tree_val@V?$_Tmap_traits@KPAVCMail@@U?$less@K@std@@V?$allocator@U?$pair@$$CBKPAVCMail@@@std@@@3@$0A@@std@@@std@@IAE@ABU?$less@K@1@V?$allocator@U?$pair@$$CBKPAVCMail@@@std@@@1@@Z ENDP ; std::_Tree_val<std::_Tmap_traits<unsigned long,CMail *,std::less<unsigned long>,std::allocator<std::pair<unsigned long const ,CMail *> >,0> >::_Tree_val<std::_Tmap_traits<unsigned long,CMail *,std::less<unsigned long>,std::allocator<std::pair<unsigned long const ,CMail *> >,0> >
_TEXT	ENDS
PUBLIC	?_Init@?$_Tree@V?$_Tmap_traits@KPAVCMailBox@@U?$less@K@std@@V?$allocator@U?$pair@$$CBKPAVCMailBox@@@std@@@3@$0A@@std@@@std@@IAEXXZ ; std::_Tree<std::_Tmap_traits<unsigned long,CMailBox *,std::less<unsigned long>,std::allocator<std::pair<unsigned long const ,CMailBox *> >,0> >::_Init
; Function compile flags: /Ogty
;	COMDAT ?_Init@?$_Tree@V?$_Tmap_traits@KPAVCMailBox@@U?$less@K@std@@V?$allocator@U?$pair@$$CBKPAVCMailBox@@@std@@@3@$0A@@std@@@std@@IAEXXZ
_TEXT	SEGMENT
?_Init@?$_Tree@V?$_Tmap_traits@KPAVCMailBox@@U?$less@K@std@@V?$allocator@U?$pair@$$CBKPAVCMailBox@@@std@@@3@$0A@@std@@@std@@IAEXXZ PROC NEAR ; std::_Tree<std::_Tmap_traits<unsigned long,CMailBox *,std::less<unsigned long>,std::allocator<std::pair<unsigned long const ,CMailBox *> >,0> >::_Init, COMDAT
; _this$ = ecx

; 901  : 		{	// create head/nil node and make tree empty

  00000	56		 push	 esi
  00001	8b f1		 mov	 esi, ecx

; 902  : 		_Myhead = _Buynode();

  00003	e8 00 00 00 00	 call	 ?_Buynode@?$_Tree@V?$_Tmap_traits@KPAVCMailBox@@U?$less@K@std@@V?$allocator@U?$pair@$$CBKPAVCMailBox@@@std@@@3@$0A@@std@@@std@@IAEPAU_Node@?$_Tree_nod@V?$_Tmap_traits@KPAVCMailBox@@U?$less@K@std@@V?$allocator@U?$pair@$$CBKPAVCMailBox@@@std@@@3@$0A@@std@@@2@XZ ; std::_Tree<std::_Tmap_traits<unsigned long,CMailBox *,std::less<unsigned long>,std::allocator<std::pair<unsigned long const ,CMailBox *> >,0> >::_Buynode
  00008	89 46 04	 mov	 DWORD PTR [esi+4], eax

; 903  : 		_Isnil(_Myhead) = true;

  0000b	c6 40 15 01	 mov	 BYTE PTR [eax+21], 1

; 904  : 		_Root() = _Myhead;

  0000f	8b 46 04	 mov	 eax, DWORD PTR [esi+4]
  00012	89 40 04	 mov	 DWORD PTR [eax+4], eax

; 905  : 		_Lmost() = _Myhead, _Rmost() = _Myhead;

  00015	8b 46 04	 mov	 eax, DWORD PTR [esi+4]
  00018	89 00		 mov	 DWORD PTR [eax], eax
  0001a	8b 46 04	 mov	 eax, DWORD PTR [esi+4]
  0001d	89 40 08	 mov	 DWORD PTR [eax+8], eax

; 906  : 		_Mysize = 0;

  00020	c7 46 08 00 00
	00 00		 mov	 DWORD PTR [esi+8], 0
  00027	5e		 pop	 esi

; 907  : 		}

  00028	c3		 ret	 0
?_Init@?$_Tree@V?$_Tmap_traits@KPAVCMailBox@@U?$less@K@std@@V?$allocator@U?$pair@$$CBKPAVCMailBox@@@std@@@3@$0A@@std@@@std@@IAEXXZ ENDP ; std::_Tree<std::_Tmap_traits<unsigned long,CMailBox *,std::less<unsigned long>,std::allocator<std::pair<unsigned long const ,CMailBox *> >,0> >::_Init
_TEXT	ENDS
PUBLIC	??0?$_Tree_val@V?$_Tmap_traits@KPAVCMailBox@@U?$less@K@std@@V?$allocator@U?$pair@$$CBKPAVCMailBox@@@std@@@3@$0A@@std@@@std@@IAE@ABU?$less@K@1@V?$allocator@U?$pair@$$CBKPAVCMailBox@@@std@@@1@@Z ; std::_Tree_val<std::_Tmap_traits<unsigned long,CMailBox *,std::less<unsigned long>,std::allocator<std::pair<unsigned long const ,CMailBox *> >,0> >::_Tree_val<std::_Tmap_traits<unsigned long,CMailBox *,std::less<unsigned long>,std::allocator<std::pair<unsigned long const ,CMailBox *> >,0> >
; Function compile flags: /Ogty
;	COMDAT ??0?$_Tree_val@V?$_Tmap_traits@KPAVCMailBox@@U?$less@K@std@@V?$allocator@U?$pair@$$CBKPAVCMailBox@@@std@@@3@$0A@@std@@@std@@IAE@ABU?$less@K@1@V?$allocator@U?$pair@$$CBKPAVCMailBox@@@std@@@1@@Z
_TEXT	SEGMENT
__Parg$ = 8						; size = 4
__Al$ = 12						; size = 1
??0?$_Tree_val@V?$_Tmap_traits@KPAVCMailBox@@U?$less@K@std@@V?$allocator@U?$pair@$$CBKPAVCMailBox@@@std@@@3@$0A@@std@@@std@@IAE@ABU?$less@K@1@V?$allocator@U?$pair@$$CBKPAVCMailBox@@@std@@@1@@Z PROC NEAR ; std::_Tree_val<std::_Tmap_traits<unsigned long,CMailBox *,std::less<unsigned long>,std::allocator<std::pair<unsigned long const ,CMailBox *> >,0> >::_Tree_val<std::_Tmap_traits<unsigned long,CMailBox *,std::less<unsigned long>,std::allocator<std::pair<unsigned long const ,CMailBox *> >,0> >, COMDAT
; _this$ = ecx

; 95   : 		{	// construct base, and allocator from _Al

  00000	8b c1		 mov	 eax, ecx

; 96   : 		}

  00002	c2 08 00	 ret	 8
??0?$_Tree_val@V?$_Tmap_traits@KPAVCMailBox@@U?$less@K@std@@V?$allocator@U?$pair@$$CBKPAVCMailBox@@@std@@@3@$0A@@std@@@std@@IAE@ABU?$less@K@1@V?$allocator@U?$pair@$$CBKPAVCMailBox@@@std@@@1@@Z ENDP ; std::_Tree_val<std::_Tmap_traits<unsigned long,CMailBox *,std::less<unsigned long>,std::allocator<std::pair<unsigned long const ,CMailBox *> >,0> >::_Tree_val<std::_Tmap_traits<unsigned long,CMailBox *,std::less<unsigned long>,std::allocator<std::pair<unsigned long const ,CMailBox *> >,0> >
_TEXT	ENDS
PUBLIC	??Eiterator@?$_Tree@V?$_Tmap_traits@KPAVCMail@@U?$less@K@std@@V?$allocator@U?$pair@$$CBKPAVCMail@@@std@@@3@$0A@@std@@@std@@QAE?AV012@H@Z ; std::_Tree<std::_Tmap_traits<unsigned long,CMail *,std::less<unsigned long>,std::allocator<std::pair<unsigned long const ,CMail *> >,0> >::iterator::operator++
; Function compile flags: /Ogty
;	COMDAT ??Eiterator@?$_Tree@V?$_Tmap_traits@KPAVCMail@@U?$less@K@std@@V?$allocator@U?$pair@$$CBKPAVCMail@@@std@@@3@$0A@@std@@@std@@QAE?AV012@H@Z
_TEXT	SEGMENT
___$ReturnUdt$ = 8					; size = 4
___formal$ = 12						; size = 4
??Eiterator@?$_Tree@V?$_Tmap_traits@KPAVCMail@@U?$less@K@std@@V?$allocator@U?$pair@$$CBKPAVCMail@@@std@@@3@$0A@@std@@@std@@QAE?AV012@H@Z PROC NEAR ; std::_Tree<std::_Tmap_traits<unsigned long,CMail *,std::less<unsigned long>,std::allocator<std::pair<unsigned long const ,CMail *> >,0> >::iterator::operator++, COMDAT
; _this$ = ecx

; 332  : 			{	// postincrement

  00000	56		 push	 esi

; 333  : 			iterator _Tmp = *this;

  00001	8b 31		 mov	 esi, DWORD PTR [ecx]

; 334  : 			++*this;

  00003	e8 00 00 00 00	 call	 ?_Inc@const_iterator@?$_Tree@V?$_Tmap_traits@KPAVCMail@@U?$less@K@std@@V?$allocator@U?$pair@$$CBKPAVCMail@@@std@@@3@$0A@@std@@@std@@QAEXXZ ; std::_Tree<std::_Tmap_traits<unsigned long,CMail *,std::less<unsigned long>,std::allocator<std::pair<unsigned long const ,CMail *> >,0> >::const_iterator::_Inc

; 335  : 			return (_Tmp);

  00008	8b 44 24 08	 mov	 eax, DWORD PTR ___$ReturnUdt$[esp]
  0000c	89 30		 mov	 DWORD PTR [eax], esi
  0000e	5e		 pop	 esi

; 336  : 			}

  0000f	c2 08 00	 ret	 8
??Eiterator@?$_Tree@V?$_Tmap_traits@KPAVCMail@@U?$less@K@std@@V?$allocator@U?$pair@$$CBKPAVCMail@@@std@@@3@$0A@@std@@@std@@QAE?AV012@H@Z ENDP ; std::_Tree<std::_Tmap_traits<unsigned long,CMail *,std::less<unsigned long>,std::allocator<std::pair<unsigned long const ,CMail *> >,0> >::iterator::operator++
_TEXT	ENDS
PUBLIC	??Eiterator@?$_Tree@V?$_Tmap_traits@KPAVCMailBox@@U?$less@K@std@@V?$allocator@U?$pair@$$CBKPAVCMailBox@@@std@@@3@$0A@@std@@@std@@QAE?AV012@H@Z ; std::_Tree<std::_Tmap_traits<unsigned long,CMailBox *,std::less<unsigned long>,std::allocator<std::pair<unsigned long const ,CMailBox *> >,0> >::iterator::operator++
; Function compile flags: /Ogty
;	COMDAT ??Eiterator@?$_Tree@V?$_Tmap_traits@KPAVCMailBox@@U?$less@K@std@@V?$allocator@U?$pair@$$CBKPAVCMailBox@@@std@@@3@$0A@@std@@@std@@QAE?AV012@H@Z
_TEXT	SEGMENT
___$ReturnUdt$ = 8					; size = 4
___formal$ = 12						; size = 4
??Eiterator@?$_Tree@V?$_Tmap_traits@KPAVCMailBox@@U?$less@K@std@@V?$allocator@U?$pair@$$CBKPAVCMailBox@@@std@@@3@$0A@@std@@@std@@QAE?AV012@H@Z PROC NEAR ; std::_Tree<std::_Tmap_traits<unsigned long,CMailBox *,std::less<unsigned long>,std::allocator<std::pair<unsigned long const ,CMailBox *> >,0> >::iterator::operator++, COMDAT
; _this$ = ecx

; 332  : 			{	// postincrement

  00000	56		 push	 esi

; 333  : 			iterator _Tmp = *this;

  00001	8b 31		 mov	 esi, DWORD PTR [ecx]

; 334  : 			++*this;

  00003	e8 00 00 00 00	 call	 ?_Inc@const_iterator@?$_Tree@V?$_Tmap_traits@KPAVCMailBox@@U?$less@K@std@@V?$allocator@U?$pair@$$CBKPAVCMailBox@@@std@@@3@$0A@@std@@@std@@QAEXXZ ; std::_Tree<std::_Tmap_traits<unsigned long,CMailBox *,std::less<unsigned long>,std::allocator<std::pair<unsigned long const ,CMailBox *> >,0> >::const_iterator::_Inc

; 335  : 			return (_Tmp);

  00008	8b 44 24 08	 mov	 eax, DWORD PTR ___$ReturnUdt$[esp]
  0000c	89 30		 mov	 DWORD PTR [eax], esi
  0000e	5e		 pop	 esi

; 336  : 			}

  0000f	c2 08 00	 ret	 8
??Eiterator@?$_Tree@V?$_Tmap_traits@KPAVCMailBox@@U?$less@K@std@@V?$allocator@U?$pair@$$CBKPAVCMailBox@@@std@@@3@$0A@@std@@@std@@QAE?AV012@H@Z ENDP ; std::_Tree<std::_Tmap_traits<unsigned long,CMailBox *,std::less<unsigned long>,std::allocator<std::pair<unsigned long const ,CMailBox *> >,0> >::iterator::operator++
_TEXT	ENDS
PUBLIC	??$_Distance2@Viterator@?$_Tree@V?$_Tmap_traits@KPAVCMail@@U?$less@K@std@@V?$allocator@U?$pair@$$CBKPAVCMail@@@std@@@3@$0A@@std@@@std@@I@std@@YAXViterator@?$_Tree@V?$_Tmap_traits@KPAVCMail@@U?$less@K@std@@V?$allocator@U?$pair@$$CBKPAVCMail@@@std@@@3@$0A@@std@@@0@0AAIUbidirectional_iterator_tag@0@@Z ; std::_Distance2<std::_Tree<std::_Tmap_traits<unsigned long,CMail *,std::less<unsigned long>,std::allocator<std::pair<unsigned long const ,CMail *> >,0> >::iterator,unsigned int>
; Function compile flags: /Ogty
; File c:\program files\microsoft visual studio .net 2003\vc7\include\xutility
;	COMDAT ??$_Distance2@Viterator@?$_Tree@V?$_Tmap_traits@KPAVCMail@@U?$less@K@std@@V?$allocator@U?$pair@$$CBKPAVCMail@@@std@@@3@$0A@@std@@@std@@I@std@@YAXViterator@?$_Tree@V?$_Tmap_traits@KPAVCMail@@U?$less@K@std@@V?$allocator@U?$pair@$$CBKPAVCMail@@@std@@@3@$0A@@std@@@0@0AAIUbidirectional_iterator_tag@0@@Z
_TEXT	SEGMENT
__First$ = 8						; size = 4
__Last$ = 12						; size = 4
__Off$ = 16						; size = 4
___formal$ = 20						; size = 1
??$_Distance2@Viterator@?$_Tree@V?$_Tmap_traits@KPAVCMail@@U?$less@K@std@@V?$allocator@U?$pair@$$CBKPAVCMail@@@std@@@3@$0A@@std@@@std@@I@std@@YAXViterator@?$_Tree@V?$_Tmap_traits@KPAVCMail@@U?$less@K@std@@V?$allocator@U?$pair@$$CBKPAVCMail@@@std@@@3@$0A@@std@@@0@0AAIUbidirectional_iterator_tag@0@@Z PROC NEAR ; std::_Distance2<std::_Tree<std::_Tmap_traits<unsigned long,CMail *,std::less<unsigned long>,std::allocator<std::pair<unsigned long const ,CMail *> >,0> >::iterator,unsigned int>, COMDAT

; 470  : 	for (; _First != _Last; ++_First)

  00000	8b 44 24 04	 mov	 eax, DWORD PTR __First$[esp-4]
  00004	57		 push	 edi
  00005	8b 7c 24 0c	 mov	 edi, DWORD PTR __Last$[esp]
  00009	3b c7		 cmp	 eax, edi
  0000b	74 17		 je	 SHORT $L201843
  0000d	56		 push	 esi
  0000e	8b 74 24 14	 mov	 esi, DWORD PTR __Off$[esp+4]
$L207715:

; 471  : 		++_Off;

  00012	ff 06		 inc	 DWORD PTR [esi]
  00014	8d 4c 24 0c	 lea	 ecx, DWORD PTR __First$[esp+4]
  00018	e8 00 00 00 00	 call	 ?_Inc@const_iterator@?$_Tree@V?$_Tmap_traits@KPAVCMail@@U?$less@K@std@@V?$allocator@U?$pair@$$CBKPAVCMail@@@std@@@3@$0A@@std@@@std@@QAEXXZ ; std::_Tree<std::_Tmap_traits<unsigned long,CMail *,std::less<unsigned long>,std::allocator<std::pair<unsigned long const ,CMail *> >,0> >::const_iterator::_Inc
  0001d	39 7c 24 0c	 cmp	 DWORD PTR __First$[esp+4], edi
  00021	75 ef		 jne	 SHORT $L207715
  00023	5e		 pop	 esi
$L201843:
  00024	5f		 pop	 edi

; 472  : 	}

  00025	c3		 ret	 0
??$_Distance2@Viterator@?$_Tree@V?$_Tmap_traits@KPAVCMail@@U?$less@K@std@@V?$allocator@U?$pair@$$CBKPAVCMail@@@std@@@3@$0A@@std@@@std@@I@std@@YAXViterator@?$_Tree@V?$_Tmap_traits@KPAVCMail@@U?$less@K@std@@V?$allocator@U?$pair@$$CBKPAVCMail@@@std@@@3@$0A@@std@@@0@0AAIUbidirectional_iterator_tag@0@@Z ENDP ; std::_Distance2<std::_Tree<std::_Tmap_traits<unsigned long,CMail *,std::less<unsigned long>,std::allocator<std::pair<unsigned long const ,CMail *> >,0> >::iterator,unsigned int>
_TEXT	ENDS
PUBLIC	??1?$basic_string@DU?$char_traits@D@std@@V?$allocator@D@2@@std@@QAE@XZ ; std::basic_string<char,std::char_traits<char>,std::allocator<char> >::~basic_string<char,std::char_traits<char>,std::allocator<char> >
; Function compile flags: /Ogty
; File c:\program files\microsoft visual studio .net 2003\vc7\include\xstring
;	COMDAT ??1?$basic_string@DU?$char_traits@D@std@@V?$allocator@D@2@@std@@QAE@XZ
_TEXT	SEGMENT
??1?$basic_string@DU?$char_traits@D@std@@V?$allocator@D@2@@std@@QAE@XZ PROC NEAR ; std::basic_string<char,std::char_traits<char>,std::allocator<char> >::~basic_string<char,std::char_traits<char>,std::allocator<char> >, COMDAT
; _this$ = ecx

; 456  : 		{	// destroy the string

  00000	56		 push	 esi
  00001	8b f1		 mov	 esi, ecx

; 457  : 		_Tidy(true);

  00003	83 7e 18 10	 cmp	 DWORD PTR [esi+24], 16	; 00000010H
  00007	72 0c		 jb	 SHORT $L207769
  00009	8b 46 04	 mov	 eax, DWORD PTR [esi+4]
  0000c	50		 push	 eax
  0000d	e8 00 00 00 00	 call	 ??3@YAXPAX@Z		; operator delete
  00012	83 c4 04	 add	 esp, 4
$L207769:
  00015	33 c0		 xor	 eax, eax
  00017	c7 46 18 0f 00
	00 00		 mov	 DWORD PTR [esi+24], 15	; 0000000fH
  0001e	89 46 14	 mov	 DWORD PTR [esi+20], eax
  00021	88 46 04	 mov	 BYTE PTR [esi+4], al
  00024	5e		 pop	 esi

; 458  : 		}

  00025	c3		 ret	 0
??1?$basic_string@DU?$char_traits@D@std@@V?$allocator@D@2@@std@@QAE@XZ ENDP ; std::basic_string<char,std::char_traits<char>,std::allocator<char> >::~basic_string<char,std::char_traits<char>,std::allocator<char> >
_TEXT	ENDS
PUBLIC	?_Grow@?$basic_string@DU?$char_traits@D@std@@V?$allocator@D@2@@std@@IAE_NI_N@Z ; std::basic_string<char,std::char_traits<char>,std::allocator<char> >::_Grow
EXTRN	?_Xlen@_String_base@std@@QBEXXZ:NEAR		; std::_String_base::_Xlen
; Function compile flags: /Ogty
;	COMDAT ?_Grow@?$basic_string@DU?$char_traits@D@std@@V?$allocator@D@2@@std@@IAE_NI_N@Z
_TEXT	SEGMENT
__Newsize$ = 8						; size = 4
__Trim$ = 12						; size = 1
?_Grow@?$basic_string@DU?$char_traits@D@std@@V?$allocator@D@2@@std@@IAE_NI_N@Z PROC NEAR ; std::basic_string<char,std::char_traits<char>,std::allocator<char> >::_Grow, COMDAT
; _this$ = ecx

; 1480 : 		{	// ensure buffer is big enough, trim to size if _Trim is true

  00000	55		 push	 ebp
  00001	56		 push	 esi

; 1481 : 		if (max_size() < _Newsize)

  00002	8b 74 24 0c	 mov	 esi, DWORD PTR __Newsize$[esp+4]
  00006	83 fe fe	 cmp	 esi, -2			; fffffffeH
  00009	8b e9		 mov	 ebp, ecx
  0000b	76 05		 jbe	 SHORT $L185002

; 1482 : 			_String_base::_Xlen();	// result too long

  0000d	e8 00 00 00 00	 call	 ?_Xlen@_String_base@std@@QBEXXZ ; std::_String_base::_Xlen
$L185002:

; 1483 : 		if (_Myres < _Newsize)

  00012	8b 45 18	 mov	 eax, DWORD PTR [ebp+24]
  00015	3b c6		 cmp	 eax, esi
  00017	73 19		 jae	 SHORT $L185003

; 1484 : 			_Copy(_Newsize, _Mysize);	// reallocate to grow

  00019	8b 45 14	 mov	 eax, DWORD PTR [ebp+20]
  0001c	50		 push	 eax
  0001d	56		 push	 esi
  0001e	8b cd		 mov	 ecx, ebp
  00020	e8 00 00 00 00	 call	 ?_Copy@?$basic_string@DU?$char_traits@D@std@@V?$allocator@D@2@@std@@IAEXII@Z ; std::basic_string<char,std::char_traits<char>,std::allocator<char> >::_Copy

; 1490 : 		return (0 < _Newsize);	// return true only if more work to do

  00025	33 c0		 xor	 eax, eax
  00027	3b c6		 cmp	 eax, esi
  00029	1b c0		 sbb	 eax, eax
  0002b	5e		 pop	 esi
  0002c	f7 d8		 neg	 eax
  0002e	5d		 pop	 ebp

; 1491 : 		}

  0002f	c2 08 00	 ret	 8
$L185003:

; 1485 : 		else if (_Trim && _Newsize < _BUF_SIZE)

  00032	8a 4c 24 10	 mov	 cl, BYTE PTR __Trim$[esp+4]
  00036	84 c9		 test	 cl, cl
  00038	74 5c		 je	 SHORT $L185005
  0003a	83 fe 10	 cmp	 esi, 16			; 00000010H
  0003d	73 57		 jae	 SHORT $L185005
  0003f	53		 push	 ebx

; 1486 : 			_Tidy(true,	// copy and deallocate if trimming to small string
; 1487 : 				_Newsize < _Mysize ? _Newsize : _Mysize);

  00040	8b 5d 14	 mov	 ebx, DWORD PTR [ebp+20]
  00043	3b f3		 cmp	 esi, ebx
  00045	73 02		 jae	 SHORT $L207783
  00047	8b de		 mov	 ebx, esi
$L207783:
  00049	83 f8 10	 cmp	 eax, 16			; 00000010H
  0004c	72 2b		 jb	 SHORT $L207843
  0004e	85 db		 test	 ebx, ebx
  00050	8b 45 04	 mov	 eax, DWORD PTR [ebp+4]
  00053	57		 push	 edi
  00054	8d 7d 04	 lea	 edi, DWORD PTR [ebp+4]
  00057	76 16		 jbe	 SHORT $L207842
  00059	8b cb		 mov	 ecx, ebx
  0005b	8b d1		 mov	 edx, ecx
  0005d	c1 e9 02	 shr	 ecx, 2
  00060	8b f0		 mov	 esi, eax
  00062	f3 a5		 rep movsd
  00064	8b ca		 mov	 ecx, edx
  00066	83 e1 03	 and	 ecx, 3
  00069	f3 a4		 rep movsb
  0006b	8b 74 24 14	 mov	 esi, DWORD PTR __Newsize$[esp+12]
$L207842:
  0006f	50		 push	 eax
  00070	e8 00 00 00 00	 call	 ??3@YAXPAX@Z		; operator delete
  00075	83 c4 04	 add	 esp, 4
  00078	5f		 pop	 edi
$L207843:
  00079	89 5d 14	 mov	 DWORD PTR [ebp+20], ebx

; 1490 : 		return (0 < _Newsize);	// return true only if more work to do

  0007c	33 c0		 xor	 eax, eax
  0007e	c7 45 18 0f 00
	00 00		 mov	 DWORD PTR [ebp+24], 15	; 0000000fH
  00085	c6 44 2b 04 00	 mov	 BYTE PTR [ebx+ebp+4], 0
  0008a	3b c6		 cmp	 eax, esi
  0008c	5b		 pop	 ebx
  0008d	1b c0		 sbb	 eax, eax
  0008f	5e		 pop	 esi
  00090	f7 d8		 neg	 eax
  00092	5d		 pop	 ebp

; 1491 : 		}

  00093	c2 08 00	 ret	 8
$L185005:

; 1488 : 		else if (_Newsize == 0)

  00096	85 f6		 test	 esi, esi
  00098	75 23		 jne	 SHORT $L207874

; 1489 : 			_Eos(0);	// new size is zero, just null terminate

  0009a	83 f8 10	 cmp	 eax, 16			; 00000010H
  0009d	89 75 14	 mov	 DWORD PTR [ebp+20], esi
  000a0	72 14		 jb	 SHORT $L207872
  000a2	8b 6d 04	 mov	 ebp, DWORD PTR [ebp+4]

; 1490 : 		return (0 < _Newsize);	// return true only if more work to do

  000a5	33 c0		 xor	 eax, eax
  000a7	3b c6		 cmp	 eax, esi
  000a9	1b c0		 sbb	 eax, eax
  000ab	5e		 pop	 esi
  000ac	c6 45 00 00	 mov	 BYTE PTR [ebp], 0
  000b0	f7 d8		 neg	 eax
  000b2	5d		 pop	 ebp

; 1491 : 		}

  000b3	c2 08 00	 ret	 8

; 1489 : 			_Eos(0);	// new size is zero, just null terminate

$L207872:
  000b6	83 c5 04	 add	 ebp, 4
  000b9	c6 45 00 00	 mov	 BYTE PTR [ebp], 0
$L207874:

; 1490 : 		return (0 < _Newsize);	// return true only if more work to do

  000bd	33 c0		 xor	 eax, eax
  000bf	3b c6		 cmp	 eax, esi
  000c1	1b c0		 sbb	 eax, eax
  000c3	5e		 pop	 esi
  000c4	f7 d8		 neg	 eax
  000c6	5d		 pop	 ebp

; 1491 : 		}

  000c7	c2 08 00	 ret	 8
?_Grow@?$basic_string@DU?$char_traits@D@std@@V?$allocator@D@2@@std@@IAE_NI_N@Z ENDP ; std::basic_string<char,std::char_traits<char>,std::allocator<char> >::_Grow
_TEXT	ENDS
PUBLIC	?Clear@CPost@@QAEXXZ				; CPost::Clear
; Function compile flags: /Ogty
; File c:\documents and settings\test\mes documents\source\virtuos_v17\build\program\_common\post.cpp
;	COMDAT ?Clear@CPost@@QAEXXZ
_TEXT	SEGMENT
_i$199418 = -4						; size = 4
?Clear@CPost@@QAEXXZ PROC NEAR				; CPost::Clear, COMDAT
; _this$ = ecx

; 518  : {

  00000	51		 push	 ecx
  00001	53		 push	 ebx
  00002	8b d9		 mov	 ebx, ecx

; 519  : 	for( map<u_long, CMailBox*>::iterator i = m_mapMailBox.begin(); i != m_mapMailBox.end(); ++i )

  00004	8b 4b 30	 mov	 ecx, DWORD PTR [ebx+48]
  00007	8b 01		 mov	 eax, DWORD PTR [ecx]
  00009	3b c1		 cmp	 eax, ecx
  0000b	55		 push	 ebp
  0000c	56		 push	 esi
  0000d	57		 push	 edi
  0000e	89 44 24 10	 mov	 DWORD PTR _i$199418[esp+20], eax
  00012	74 1f		 je	 SHORT $L199423
$L207920:

; 520  : 	{
; 521  : 		CMailBox* pMailBox	= i->second;

  00014	8b 48 10	 mov	 ecx, DWORD PTR [eax+16]

; 522  : 		SAFE_DELETE( pMailBox );

  00017	85 c9		 test	 ecx, ecx
  00019	74 06		 je	 SHORT $L199422
  0001b	8b 01		 mov	 eax, DWORD PTR [ecx]
  0001d	6a 01		 push	 1
  0001f	ff 10		 call	 DWORD PTR [eax]
$L199422:
  00021	8d 4c 24 10	 lea	 ecx, DWORD PTR _i$199418[esp+20]
  00025	e8 00 00 00 00	 call	 ?_Inc@const_iterator@?$_Tree@V?$_Tmap_traits@KPAVCMailBox@@U?$less@K@std@@V?$allocator@U?$pair@$$CBKPAVCMailBox@@@std@@@3@$0A@@std@@@std@@QAEXXZ ; std::_Tree<std::_Tmap_traits<unsigned long,CMailBox *,std::less<unsigned long>,std::allocator<std::pair<unsigned long const ,CMailBox *> >,0> >::const_iterator::_Inc
  0002a	8b 44 24 10	 mov	 eax, DWORD PTR _i$199418[esp+20]
  0002e	3b 43 30	 cmp	 eax, DWORD PTR [ebx+48]
  00031	75 e1		 jne	 SHORT $L207920
$L199423:

; 523  : 	}
; 524  : 	m_mapMailBox.clear();

  00033	8b 4b 30	 mov	 ecx, DWORD PTR [ebx+48]
  00036	8b 69 04	 mov	 ebp, DWORD PTR [ecx+4]
  00039	8a 45 15	 mov	 al, BYTE PTR [ebp+21]
  0003c	84 c0		 test	 al, al
  0003e	8d 73 2c	 lea	 esi, DWORD PTR [ebx+44]
  00041	8b fd		 mov	 edi, ebp
  00043	75 1f		 jne	 SHORT $L208049
$L208047:
  00045	8b 57 08	 mov	 edx, DWORD PTR [edi+8]
  00048	52		 push	 edx
  00049	8b ce		 mov	 ecx, esi
  0004b	e8 00 00 00 00	 call	 ?_Erase@?$_Tree@V?$_Tmap_traits@KPAVCMailBox@@U?$less@K@std@@V?$allocator@U?$pair@$$CBKPAVCMailBox@@@std@@@3@$0A@@std@@@std@@IAEXPAU_Node@?$_Tree_nod@V?$_Tmap_traits@KPAVCMailBox@@U?$less@K@std@@V?$allocator@U?$pair@$$CBKPAVCMailBox@@@std@@@3@$0A@@std@@@2@@Z ; std::_Tree<std::_Tmap_traits<unsigned long,CMailBox *,std::less<unsigned long>,std::allocator<std::pair<unsigned long const ,CMailBox *> >,0> >::_Erase
  00050	8b 3f		 mov	 edi, DWORD PTR [edi]
  00052	55		 push	 ebp
  00053	e8 00 00 00 00	 call	 ??3@YAXPAX@Z		; operator delete
  00058	8a 47 15	 mov	 al, BYTE PTR [edi+21]
  0005b	83 c4 04	 add	 esp, 4
  0005e	84 c0		 test	 al, al
  00060	8b ef		 mov	 ebp, edi
  00062	74 e1		 je	 SHORT $L208047
$L208049:
  00064	8b 46 04	 mov	 eax, DWORD PTR [esi+4]
  00067	89 40 04	 mov	 DWORD PTR [eax+4], eax
  0006a	8b 46 04	 mov	 eax, DWORD PTR [esi+4]
  0006d	c7 46 08 00 00
	00 00		 mov	 DWORD PTR [esi+8], 0
  00074	89 00		 mov	 DWORD PTR [eax], eax
  00076	8b 76 04	 mov	 esi, DWORD PTR [esi+4]
  00079	89 76 08	 mov	 DWORD PTR [esi+8], esi

; 525  : #ifdef __DBSERVER
; 526  : #ifdef _DEBUG
; 527  : 	TRACE( "CPost::m_mapMail4Proc.size() = %d\n", m_mapMail4Proc.size() );
; 528  : #endif	// _DEBUG
; 529  : 	m_mapMail4Proc.clear();

  0007c	8b 43 08	 mov	 eax, DWORD PTR [ebx+8]
  0007f	8b 68 04	 mov	 ebp, DWORD PTR [eax+4]
  00082	8a 45 15	 mov	 al, BYTE PTR [ebp+21]
  00085	84 c0		 test	 al, al
  00087	8d 7b 04	 lea	 edi, DWORD PTR [ebx+4]
  0008a	8b f5		 mov	 esi, ebp
  0008c	75 21		 jne	 SHORT $L208144
  0008e	8b ff		 npad	 2
$L208142:
  00090	8b 4e 08	 mov	 ecx, DWORD PTR [esi+8]
  00093	51		 push	 ecx
  00094	8b cf		 mov	 ecx, edi
  00096	e8 00 00 00 00	 call	 ?_Erase@?$_Tree@V?$_Tmap_traits@KPAVCMail@@U?$less@K@std@@V?$allocator@U?$pair@$$CBKPAVCMail@@@std@@@3@$0A@@std@@@std@@IAEXPAU_Node@?$_Tree_nod@V?$_Tmap_traits@KPAVCMail@@U?$less@K@std@@V?$allocator@U?$pair@$$CBKPAVCMail@@@std@@@3@$0A@@std@@@2@@Z ; std::_Tree<std::_Tmap_traits<unsigned long,CMail *,std::less<unsigned long>,std::allocator<std::pair<unsigned long const ,CMail *> >,0> >::_Erase
  0009b	8b 36		 mov	 esi, DWORD PTR [esi]
  0009d	55		 push	 ebp
  0009e	e8 00 00 00 00	 call	 ??3@YAXPAX@Z		; operator delete
  000a3	8a 46 15	 mov	 al, BYTE PTR [esi+21]
  000a6	83 c4 04	 add	 esp, 4
  000a9	84 c0		 test	 al, al
  000ab	8b ee		 mov	 ebp, esi
  000ad	74 e1		 je	 SHORT $L208142
$L208144:
  000af	8b 47 04	 mov	 eax, DWORD PTR [edi+4]
  000b2	89 40 04	 mov	 DWORD PTR [eax+4], eax
  000b5	8b 47 04	 mov	 eax, DWORD PTR [edi+4]
  000b8	c7 47 08 00 00
	00 00		 mov	 DWORD PTR [edi+8], 0
  000bf	89 00		 mov	 DWORD PTR [eax], eax
  000c1	8b 7f 04	 mov	 edi, DWORD PTR [edi+4]
  000c4	89 7f 08	 mov	 DWORD PTR [edi+8], edi
  000c7	5f		 pop	 edi
  000c8	5e		 pop	 esi
  000c9	5d		 pop	 ebp
  000ca	5b		 pop	 ebx

; 530  : #endif	// __DBSERVER
; 531  : }

  000cb	59		 pop	 ecx
  000cc	c3		 ret	 0
?Clear@CPost@@QAEXXZ ENDP				; CPost::Clear
_TEXT	ENDS
PUBLIC	?GetMailBox@CPost@@QAEPAVCMailBox@@K@Z		; CPost::GetMailBox
; Function compile flags: /Ogty
;	COMDAT ?GetMailBox@CPost@@QAEPAVCMailBox@@K@Z
_TEXT	SEGMENT
_i$ = -4						; size = 4
_idReceiver$ = 8					; size = 4
?GetMailBox@CPost@@QAEPAVCMailBox@@K@Z PROC NEAR	; CPost::GetMailBox, COMDAT
; _this$ = ecx

; 553  : {

  00000	51		 push	 ecx
  00001	56		 push	 esi
  00002	8b f1		 mov	 esi, ecx

; 554  : 	map<u_long, CMailBox*>::iterator i = m_mapMailBox.find( idReceiver );

  00004	8d 44 24 0c	 lea	 eax, DWORD PTR _idReceiver$[esp+4]
  00008	50		 push	 eax
  00009	8d 4c 24 08	 lea	 ecx, DWORD PTR _i$[esp+12]
  0000d	51		 push	 ecx
  0000e	8d 4e 2c	 lea	 ecx, DWORD PTR [esi+44]
  00011	e8 00 00 00 00	 call	 ?find@?$_Tree@V?$_Tmap_traits@KPAVCMailBox@@U?$less@K@std@@V?$allocator@U?$pair@$$CBKPAVCMailBox@@@std@@@3@$0A@@std@@@std@@QAE?AViterator@12@ABK@Z ; std::_Tree<std::_Tmap_traits<unsigned long,CMailBox *,std::less<unsigned long>,std::allocator<std::pair<unsigned long const ,CMailBox *> >,0> >::find

; 555  : 	if( i != m_mapMailBox.end() )

  00016	8b 4e 30	 mov	 ecx, DWORD PTR [esi+48]
  00019	8b 44 24 04	 mov	 eax, DWORD PTR _i$[esp+8]
  0001d	3b c1		 cmp	 eax, ecx
  0001f	5e		 pop	 esi
  00020	74 07		 je	 SHORT $L199475

; 556  : 		return i->second;

  00022	8b 40 10	 mov	 eax, DWORD PTR [eax+16]

; 558  : }

  00025	59		 pop	 ecx
  00026	c2 04 00	 ret	 4
$L199475:

; 557  : 	return NULL;

  00029	33 c0		 xor	 eax, eax

; 558  : }

  0002b	59		 pop	 ecx
  0002c	c2 04 00	 ret	 4
?GetMailBox@CPost@@QAEPAVCMailBox@@K@Z ENDP		; CPost::GetMailBox
_TEXT	ENDS
PUBLIC	??0?$list@PAVCMail@@V?$allocator@PAVCMail@@@std@@@std@@QAE@XZ ; std::list<CMail *,std::allocator<CMail *> >::list<CMail *,std::allocator<CMail *> >
; Function compile flags: /Ogty
; File c:\program files\microsoft visual studio .net 2003\vc7\include\list
;	COMDAT ??0?$list@PAVCMail@@V?$allocator@PAVCMail@@@std@@@std@@QAE@XZ
_TEXT	SEGMENT
??0?$list@PAVCMail@@V?$allocator@PAVCMail@@@std@@@std@@QAE@XZ PROC NEAR ; std::list<CMail *,std::allocator<CMail *> >::list<CMail *,std::allocator<CMail *> >, COMDAT
; _this$ = ecx

; 280  : 		{	// construct empty list

  00000	56		 push	 esi
  00001	8b f1		 mov	 esi, ecx
  00003	e8 00 00 00 00	 call	 ?_Buynode@?$list@PAVCMail@@V?$allocator@PAVCMail@@@std@@@std@@IAEPAU_Node@?$_List_nod@PAVCMail@@V?$allocator@PAVCMail@@@std@@@2@XZ ; std::list<CMail *,std::allocator<CMail *> >::_Buynode
  00008	89 46 04	 mov	 DWORD PTR [esi+4], eax
  0000b	c7 46 08 00 00
	00 00		 mov	 DWORD PTR [esi+8], 0

; 281  : 		}

  00012	8b c6		 mov	 eax, esi
  00014	5e		 pop	 esi
  00015	c3		 ret	 0
??0?$list@PAVCMail@@V?$allocator@PAVCMail@@@std@@@std@@QAE@XZ ENDP ; std::list<CMail *,std::allocator<CMail *> >::list<CMail *,std::allocator<CMail *> >
_TEXT	ENDS
PUBLIC	??0?$_Tree@V?$_Tmap_traits@KPAVCMail@@U?$less@K@std@@V?$allocator@U?$pair@$$CBKPAVCMail@@@std@@@3@$0A@@std@@@std@@QAE@ABU?$less@K@1@ABV?$allocator@U?$pair@$$CBKPAVCMail@@@std@@@1@@Z ; std::_Tree<std::_Tmap_traits<unsigned long,CMail *,std::less<unsigned long>,std::allocator<std::pair<unsigned long const ,CMail *> >,0> >::_Tree<std::_Tmap_traits<unsigned long,CMail *,std::less<unsigned long>,std::allocator<std::pair<unsigned long const ,CMail *> >,0> >
; Function compile flags: /Ogty
; File c:\program files\microsoft visual studio .net 2003\vc7\include\xtree
;	COMDAT ??0?$_Tree@V?$_Tmap_traits@KPAVCMail@@U?$less@K@std@@V?$allocator@U?$pair@$$CBKPAVCMail@@@std@@@3@$0A@@std@@@std@@QAE@ABU?$less@K@1@ABV?$allocator@U?$pair@$$CBKPAVCMail@@@std@@@1@@Z
_TEXT	SEGMENT
__Parg$ = 8						; size = 4
__Al$ = 12						; size = 4
??0?$_Tree@V?$_Tmap_traits@KPAVCMail@@U?$less@K@std@@V?$allocator@U?$pair@$$CBKPAVCMail@@@std@@@3@$0A@@std@@@std@@QAE@ABU?$less@K@1@ABV?$allocator@U?$pair@$$CBKPAVCMail@@@std@@@1@@Z PROC NEAR ; std::_Tree<std::_Tmap_traits<unsigned long,CMail *,std::less<unsigned long>,std::allocator<std::pair<unsigned long const ,CMail *> >,0> >::_Tree<std::_Tmap_traits<unsigned long,CMail *,std::less<unsigned long>,std::allocator<std::pair<unsigned long const ,CMail *> >,0> >, COMDAT
; _this$ = ecx

; 361  : 		{	// construct empty tree

  00000	56		 push	 esi
  00001	8b f1		 mov	 esi, ecx

; 362  : 		_Init();

  00003	e8 00 00 00 00	 call	 ?_Buynode@?$_Tree@V?$_Tmap_traits@KPAVCMail@@U?$less@K@std@@V?$allocator@U?$pair@$$CBKPAVCMail@@@std@@@3@$0A@@std@@@std@@IAEPAU_Node@?$_Tree_nod@V?$_Tmap_traits@KPAVCMail@@U?$less@K@std@@V?$allocator@U?$pair@$$CBKPAVCMail@@@std@@@3@$0A@@std@@@2@XZ ; std::_Tree<std::_Tmap_traits<unsigned long,CMail *,std::less<unsigned long>,std::allocator<std::pair<unsigned long const ,CMail *> >,0> >::_Buynode
  00008	89 46 04	 mov	 DWORD PTR [esi+4], eax
  0000b	c6 40 15 01	 mov	 BYTE PTR [eax+21], 1
  0000f	8b 46 04	 mov	 eax, DWORD PTR [esi+4]
  00012	89 40 04	 mov	 DWORD PTR [eax+4], eax
  00015	8b 46 04	 mov	 eax, DWORD PTR [esi+4]
  00018	89 00		 mov	 DWORD PTR [eax], eax
  0001a	8b 46 04	 mov	 eax, DWORD PTR [esi+4]
  0001d	89 40 08	 mov	 DWORD PTR [eax+8], eax
  00020	c7 46 08 00 00
	00 00		 mov	 DWORD PTR [esi+8], 0

; 363  : 		}

  00027	8b c6		 mov	 eax, esi
  00029	5e		 pop	 esi
  0002a	c2 08 00	 ret	 8
??0?$_Tree@V?$_Tmap_traits@KPAVCMail@@U?$less@K@std@@V?$allocator@U?$pair@$$CBKPAVCMail@@@std@@@3@$0A@@std@@@std@@QAE@ABU?$less@K@1@ABV?$allocator@U?$pair@$$CBKPAVCMail@@@std@@@1@@Z ENDP ; std::_Tree<std::_Tmap_traits<unsigned long,CMail *,std::less<unsigned long>,std::allocator<std::pair<unsigned long const ,CMail *> >,0> >::_Tree<std::_Tmap_traits<unsigned long,CMail *,std::less<unsigned long>,std::allocator<std::pair<unsigned long const ,CMail *> >,0> >
_TEXT	ENDS
PUBLIC	??0?$_Tree@V?$_Tmap_traits@KPAVCMailBox@@U?$less@K@std@@V?$allocator@U?$pair@$$CBKPAVCMailBox@@@std@@@3@$0A@@std@@@std@@QAE@ABU?$less@K@1@ABV?$allocator@U?$pair@$$CBKPAVCMailBox@@@std@@@1@@Z ; std::_Tree<std::_Tmap_traits<unsigned long,CMailBox *,std::less<unsigned long>,std::allocator<std::pair<unsigned long const ,CMailBox *> >,0> >::_Tree<std::_Tmap_traits<unsigned long,CMailBox *,std::less<unsigned long>,std::allocator<std::pair<unsigned long const ,CMailBox *> >,0> >
; Function compile flags: /Ogty
;	COMDAT ??0?$_Tree@V?$_Tmap_traits@KPAVCMailBox@@U?$less@K@std@@V?$allocator@U?$pair@$$CBKPAVCMailBox@@@std@@@3@$0A@@std@@@std@@QAE@ABU?$less@K@1@ABV?$allocator@U?$pair@$$CBKPAVCMailBox@@@std@@@1@@Z
_TEXT	SEGMENT
__Parg$ = 8						; size = 4
__Al$ = 12						; size = 4
??0?$_Tree@V?$_Tmap_traits@KPAVCMailBox@@U?$less@K@std@@V?$allocator@U?$pair@$$CBKPAVCMailBox@@@std@@@3@$0A@@std@@@std@@QAE@ABU?$less@K@1@ABV?$allocator@U?$pair@$$CBKPAVCMailBox@@@std@@@1@@Z PROC NEAR ; std::_Tree<std::_Tmap_traits<unsigned long,CMailBox *,std::less<unsigned long>,std::allocator<std::pair<unsigned long const ,CMailBox *> >,0> >::_Tree<std::_Tmap_traits<unsigned long,CMailBox *,std::less<unsigned long>,std::allocator<std::pair<unsigned long const ,CMailBox *> >,0> >, COMDAT
; _this$ = ecx

; 361  : 		{	// construct empty tree

  00000	56		 push	 esi
  00001	8b f1		 mov	 esi, ecx

; 362  : 		_Init();

  00003	e8 00 00 00 00	 call	 ?_Buynode@?$_Tree@V?$_Tmap_traits@KPAVCMailBox@@U?$less@K@std@@V?$allocator@U?$pair@$$CBKPAVCMailBox@@@std@@@3@$0A@@std@@@std@@IAEPAU_Node@?$_Tree_nod@V?$_Tmap_traits@KPAVCMailBox@@U?$less@K@std@@V?$allocator@U?$pair@$$CBKPAVCMailBox@@@std@@@3@$0A@@std@@@2@XZ ; std::_Tree<std::_Tmap_traits<unsigned long,CMailBox *,std::less<unsigned long>,std::allocator<std::pair<unsigned long const ,CMailBox *> >,0> >::_Buynode
  00008	89 46 04	 mov	 DWORD PTR [esi+4], eax
  0000b	c6 40 15 01	 mov	 BYTE PTR [eax+21], 1
  0000f	8b 46 04	 mov	 eax, DWORD PTR [esi+4]
  00012	89 40 04	 mov	 DWORD PTR [eax+4], eax
  00015	8b 46 04	 mov	 eax, DWORD PTR [esi+4]
  00018	89 00		 mov	 DWORD PTR [eax], eax
  0001a	8b 46 04	 mov	 eax, DWORD PTR [esi+4]
  0001d	89 40 08	 mov	 DWORD PTR [eax+8], eax
  00020	c7 46 08 00 00
	00 00		 mov	 DWORD PTR [esi+8], 0

; 363  : 		}

  00027	8b c6		 mov	 eax, esi
  00029	5e		 pop	 esi
  0002a	c2 08 00	 ret	 8
??0?$_Tree@V?$_Tmap_traits@KPAVCMailBox@@U?$less@K@std@@V?$allocator@U?$pair@$$CBKPAVCMailBox@@@std@@@3@$0A@@std@@@std@@QAE@ABU?$less@K@1@ABV?$allocator@U?$pair@$$CBKPAVCMailBox@@@std@@@1@@Z ENDP ; std::_Tree<std::_Tmap_traits<unsigned long,CMailBox *,std::less<unsigned long>,std::allocator<std::pair<unsigned long const ,CMailBox *> >,0> >::_Tree<std::_Tmap_traits<unsigned long,CMailBox *,std::less<unsigned long>,std::allocator<std::pair<unsigned long const ,CMailBox *> >,0> >
_TEXT	ENDS
PUBLIC	??$_Distance@Viterator@?$_Tree@V?$_Tmap_traits@KPAVCMail@@U?$less@K@std@@V?$allocator@U?$pair@$$CBKPAVCMail@@@std@@@3@$0A@@std@@@std@@I@std@@YAXViterator@?$_Tree@V?$_Tmap_traits@KPAVCMail@@U?$less@K@std@@V?$allocator@U?$pair@$$CBKPAVCMail@@@std@@@3@$0A@@std@@@0@0AAI@Z ; std::_Distance<std::_Tree<std::_Tmap_traits<unsigned long,CMail *,std::less<unsigned long>,std::allocator<std::pair<unsigned long const ,CMail *> >,0> >::iterator,unsigned int>
; Function compile flags: /Ogty
; File c:\program files\microsoft visual studio .net 2003\vc7\include\xutility
;	COMDAT ??$_Distance@Viterator@?$_Tree@V?$_Tmap_traits@KPAVCMail@@U?$less@K@std@@V?$allocator@U?$pair@$$CBKPAVCMail@@@std@@@3@$0A@@std@@@std@@I@std@@YAXViterator@?$_Tree@V?$_Tmap_traits@KPAVCMail@@U?$less@K@std@@V?$allocator@U?$pair@$$CBKPAVCMail@@@std@@@3@$0A@@std@@@0@0AAI@Z
_TEXT	SEGMENT
$T208557 = 8						; size = 4
__First$ = 8						; size = 4
__Last$ = 12						; size = 4
__Off$ = 16						; size = 4
??$_Distance@Viterator@?$_Tree@V?$_Tmap_traits@KPAVCMail@@U?$less@K@std@@V?$allocator@U?$pair@$$CBKPAVCMail@@@std@@@3@$0A@@std@@@std@@I@std@@YAXViterator@?$_Tree@V?$_Tmap_traits@KPAVCMail@@U?$less@K@std@@V?$allocator@U?$pair@$$CBKPAVCMail@@@std@@@3@$0A@@std@@@0@0AAI@Z PROC NEAR ; std::_Distance<std::_Tree<std::_Tmap_traits<unsigned long,CMail *,std::less<unsigned long>,std::allocator<std::pair<unsigned long const ,CMail *> >,0> >::iterator,unsigned int>, COMDAT

; 498  : 	_Distance2(_First, _Last, _Off, _Iter_cat(_First));

  00000	8b 44 24 04	 mov	 eax, DWORD PTR __First$[esp-4]
  00004	57		 push	 edi
  00005	8b 7c 24 0c	 mov	 edi, DWORD PTR __Last$[esp]
  00009	3b c7		 cmp	 eax, edi
  0000b	89 44 24 08	 mov	 DWORD PTR $T208557[esp], eax
  0000f	74 21		 je	 SHORT $L208545
  00011	56		 push	 esi
  00012	8b 74 24 14	 mov	 esi, DWORD PTR __Off$[esp+4]
  00016	eb 08 8d a4 24
	00 00 00 00 90	 npad	 10
$L208547:
  00020	ff 06		 inc	 DWORD PTR [esi]
  00022	8d 4c 24 0c	 lea	 ecx, DWORD PTR $T208557[esp+4]
  00026	e8 00 00 00 00	 call	 ?_Inc@const_iterator@?$_Tree@V?$_Tmap_traits@KPAVCMail@@U?$less@K@std@@V?$allocator@U?$pair@$$CBKPAVCMail@@@std@@@3@$0A@@std@@@std@@QAEXXZ ; std::_Tree<std::_Tmap_traits<unsigned long,CMail *,std::less<unsigned long>,std::allocator<std::pair<unsigned long const ,CMail *> >,0> >::const_iterator::_Inc
  0002b	39 7c 24 0c	 cmp	 DWORD PTR $T208557[esp+4], edi
  0002f	75 ef		 jne	 SHORT $L208547
  00031	5e		 pop	 esi
$L208545:
  00032	5f		 pop	 edi

; 499  : 	}

  00033	c3		 ret	 0
??$_Distance@Viterator@?$_Tree@V?$_Tmap_traits@KPAVCMail@@U?$less@K@std@@V?$allocator@U?$pair@$$CBKPAVCMail@@@std@@@3@$0A@@std@@@std@@I@std@@YAXViterator@?$_Tree@V?$_Tmap_traits@KPAVCMail@@U?$less@K@std@@V?$allocator@U?$pair@$$CBKPAVCMail@@@std@@@3@$0A@@std@@@0@0AAI@Z ENDP ; std::_Distance<std::_Tree<std::_Tmap_traits<unsigned long,CMail *,std::less<unsigned long>,std::allocator<std::pair<unsigned long const ,CMail *> >,0> >::iterator,unsigned int>
_TEXT	ENDS
PUBLIC	??_7logic_error@std@@6B@			; std::logic_error::`vftable'
PUBLIC	??_Glogic_error@std@@UAEPAXI@Z			; std::logic_error::`scalar deleting destructor'
PUBLIC	??1logic_error@std@@UAE@XZ			; std::logic_error::~logic_error
PUBLIC	?what@logic_error@std@@UBEPBDXZ			; std::logic_error::what
EXTRN	??_Elogic_error@std@@UAEPAXI@Z:NEAR		; std::logic_error::`vector deleting destructor'
EXTRN	??1exception@@UAE@XZ:NEAR			; exception::~exception
;	COMDAT ??_7logic_error@std@@6B@
; File c:\program files\microsoft visual studio .net 2003\vc7\include\iosfwd
CONST	SEGMENT
??_7logic_error@std@@6B@ DD FLAT:??_Elogic_error@std@@UAEPAXI@Z ; std::logic_error::`vftable'
	DD	FLAT:?what@logic_error@std@@UBEPBDXZ
; Function compile flags: /Ogty
; File c:\program files\microsoft visual studio .net 2003\vc7\include\stdexcept
CONST	ENDS
;	COMDAT ??1logic_error@std@@UAE@XZ
_TEXT	SEGMENT
??1logic_error@std@@UAE@XZ PROC NEAR			; std::logic_error::~logic_error, COMDAT
; _this$ = ecx

; 23   : 		{}	// destroy the object

  00000	56		 push	 esi
  00001	8b f1		 mov	 esi, ecx
  00003	c7 06 00 00 00
	00		 mov	 DWORD PTR [esi], OFFSET FLAT:??_7logic_error@std@@6B@
  00009	83 7e 24 10	 cmp	 DWORD PTR [esi+36], 16	; 00000010H
  0000d	72 0c		 jb	 SHORT $L208624
  0000f	8b 46 10	 mov	 eax, DWORD PTR [esi+16]
  00012	50		 push	 eax
  00013	e8 00 00 00 00	 call	 ??3@YAXPAX@Z		; operator delete
  00018	83 c4 04	 add	 esp, 4
$L208624:
  0001b	33 c0		 xor	 eax, eax
  0001d	c7 46 24 0f 00
	00 00		 mov	 DWORD PTR [esi+36], 15	; 0000000fH
  00024	89 46 20	 mov	 DWORD PTR [esi+32], eax
  00027	88 46 10	 mov	 BYTE PTR [esi+16], al
  0002a	8b ce		 mov	 ecx, esi
  0002c	5e		 pop	 esi
  0002d	e9 00 00 00 00	 jmp	 ??1exception@@UAE@XZ	; exception::~exception
??1logic_error@std@@UAE@XZ ENDP				; std::logic_error::~logic_error
; Function compile flags: /Ogty
_TEXT	ENDS
;	COMDAT ?what@logic_error@std@@UBEPBDXZ
_TEXT	SEGMENT
?what@logic_error@std@@UBEPBDXZ PROC NEAR		; std::logic_error::what, COMDAT
; _this$ = ecx

; 27   : 		return (_Str.c_str());

  00000	83 79 24 10	 cmp	 DWORD PTR [ecx+36], 16	; 00000010H
  00004	72 04		 jb	 SHORT $L208651
  00006	8b 41 10	 mov	 eax, DWORD PTR [ecx+16]

; 28   : 		}

  00009	c3		 ret	 0

; 27   : 		return (_Str.c_str());

$L208651:
  0000a	8d 41 10	 lea	 eax, DWORD PTR [ecx+16]

; 28   : 		}

  0000d	c3		 ret	 0
?what@logic_error@std@@UBEPBDXZ ENDP			; std::logic_error::what
; Function compile flags: /Ogty
_TEXT	ENDS
;	COMDAT ??_Glogic_error@std@@UAEPAXI@Z
_TEXT	SEGMENT
___flags$ = 8						; size = 4
??_Glogic_error@std@@UAEPAXI@Z PROC NEAR		; std::logic_error::`scalar deleting destructor', COMDAT
; _this$ = ecx
  00000	56		 push	 esi
  00001	8b f1		 mov	 esi, ecx
  00003	e8 00 00 00 00	 call	 ??1logic_error@std@@UAE@XZ ; std::logic_error::~logic_error
  00008	f6 44 24 08 01	 test	 BYTE PTR ___flags$[esp], 1
  0000d	74 09		 je	 SHORT $L208657
  0000f	56		 push	 esi
  00010	e8 00 00 00 00	 call	 ??3@YAXPAX@Z		; operator delete
  00015	83 c4 04	 add	 esp, 4
$L208657:
  00018	8b c6		 mov	 eax, esi
  0001a	5e		 pop	 esi
  0001b	c2 04 00	 ret	 4
??_Glogic_error@std@@UAEPAXI@Z ENDP			; std::logic_error::`scalar deleting destructor'
_TEXT	ENDS
PUBLIC	?assign@?$basic_string@DU?$char_traits@D@std@@V?$allocator@D@2@@std@@QAEAAV12@ABV12@II@Z ; std::basic_string<char,std::char_traits<char>,std::allocator<char> >::assign
; Function compile flags: /Ogty
; File c:\program files\microsoft visual studio .net 2003\vc7\include\xstring
;	COMDAT ?assign@?$basic_string@DU?$char_traits@D@std@@V?$allocator@D@2@@std@@QAEAAV12@ABV12@II@Z
_TEXT	SEGMENT
__Right$ = 8						; size = 4
__Roff$ = 12						; size = 4
__Count$ = 16						; size = 4
?assign@?$basic_string@DU?$char_traits@D@std@@V?$allocator@D@2@@std@@QAEAAV12@ABV12@II@Z PROC NEAR ; std::basic_string<char,std::char_traits<char>,std::allocator<char> >::assign, COMDAT
; _this$ = ecx

; 590  : 		{	// assign _Right [_Roff, _Roff + _Count)

  00000	53		 push	 ebx
  00001	55		 push	 ebp
  00002	56		 push	 esi

; 591  : 		if (_Right.size() < _Roff)

  00003	8b 74 24 14	 mov	 esi, DWORD PTR __Roff$[esp+8]
  00007	57		 push	 edi
  00008	8b 7c 24 14	 mov	 edi, DWORD PTR __Right$[esp+12]
  0000c	39 77 14	 cmp	 DWORD PTR [edi+20], esi
  0000f	8b d9		 mov	 ebx, ecx
  00011	73 05		 jae	 SHORT $L184271

; 592  : 			_String_base::_Xran();	// _Roff off end

  00013	e8 00 00 00 00	 call	 ?_Xran@_String_base@std@@QBEXXZ ; std::_String_base::_Xran
$L184271:

; 593  : 		size_type _Num = _Right.size() - _Roff;

  00018	8b 6f 14	 mov	 ebp, DWORD PTR [edi+20]

; 594  : 		if (_Count < _Num)

  0001b	8b 44 24 1c	 mov	 eax, DWORD PTR __Count$[esp+12]
  0001f	2b ee		 sub	 ebp, esi
  00021	3b c5		 cmp	 eax, ebp
  00023	73 02		 jae	 SHORT $L184273

; 595  : 			_Num = _Count;	// trim _Num to size

  00025	8b e8		 mov	 ebp, eax
$L184273:

; 596  : 
; 597  : 		if (this == &_Right)

  00027	3b df		 cmp	 ebx, edi
  00029	75 1f		 jne	 SHORT $L184274

; 598  : 			erase((size_type)(_Roff + _Num)), erase(0, _Roff);	// substring

  0002b	6a ff		 push	 -1
  0002d	03 ee		 add	 ebp, esi
  0002f	55		 push	 ebp
  00030	8b cb		 mov	 ecx, ebx
  00032	e8 00 00 00 00	 call	 ?erase@?$basic_string@DU?$char_traits@D@std@@V?$allocator@D@2@@std@@QAEAAV12@II@Z ; std::basic_string<char,std::char_traits<char>,std::allocator<char> >::erase
  00037	56		 push	 esi
  00038	6a 00		 push	 0
  0003a	8b cb		 mov	 ecx, ebx
  0003c	e8 00 00 00 00	 call	 ?erase@?$basic_string@DU?$char_traits@D@std@@V?$allocator@D@2@@std@@QAEAAV12@II@Z ; std::basic_string<char,std::char_traits<char>,std::allocator<char> >::erase
  00041	5f		 pop	 edi
  00042	5e		 pop	 esi
  00043	5d		 pop	 ebp

; 603  : 			}
; 604  : 		return (*this);

  00044	8b c3		 mov	 eax, ebx
  00046	5b		 pop	 ebx

; 605  : 		}

  00047	c2 0c 00	 ret	 12			; 0000000cH
$L184274:

; 599  : 		else if (_Grow(_Num))

  0004a	83 fd fe	 cmp	 ebp, -2			; fffffffeH
  0004d	76 07		 jbe	 SHORT $L208765
  0004f	8b cb		 mov	 ecx, ebx
  00051	e8 00 00 00 00	 call	 ?_Xlen@_String_base@std@@QBEXXZ ; std::_String_base::_Xlen
$L208765:
  00056	8b 43 18	 mov	 eax, DWORD PTR [ebx+24]
  00059	3b c5		 cmp	 eax, ebp
  0005b	73 21		 jae	 SHORT $L208766
  0005d	8b 43 14	 mov	 eax, DWORD PTR [ebx+20]
  00060	50		 push	 eax
  00061	55		 push	 ebp
  00062	8b cb		 mov	 ecx, ebx
  00064	e8 00 00 00 00	 call	 ?_Copy@?$basic_string@DU?$char_traits@D@std@@V?$allocator@D@2@@std@@IAEXII@Z ; std::basic_string<char,std::char_traits<char>,std::allocator<char> >::_Copy
  00069	85 ed		 test	 ebp, ebp
$L208853:
  0006b	76 6d		 jbe	 SHORT $L208852

; 600  : 			{	// make room and assign new stuff
; 601  : 			_Traits::copy(_Myptr(), _Right._Myptr() + _Roff, _Num);

  0006d	8b 4f 18	 mov	 ecx, DWORD PTR [edi+24]
  00070	b8 10 00 00 00	 mov	 eax, 16			; 00000010H
  00075	3b c8		 cmp	 ecx, eax
  00077	72 2f		 jb	 SHORT $L208818
  00079	8b 57 04	 mov	 edx, DWORD PTR [edi+4]
  0007c	eb 2d		 jmp	 SHORT $L208819

; 599  : 		else if (_Grow(_Num))

$L208766:
  0007e	85 ed		 test	 ebp, ebp
  00080	75 e9		 jne	 SHORT $L208853
  00082	83 f8 10	 cmp	 eax, 16			; 00000010H
  00085	89 6b 14	 mov	 DWORD PTR [ebx+20], ebp
  00088	72 0f		 jb	 SHORT $L208809
  0008a	8b 43 04	 mov	 eax, DWORD PTR [ebx+4]
  0008d	5f		 pop	 edi
  0008e	5e		 pop	 esi
  0008f	c6 00 00	 mov	 BYTE PTR [eax], 0
  00092	5d		 pop	 ebp

; 603  : 			}
; 604  : 		return (*this);

  00093	8b c3		 mov	 eax, ebx
  00095	5b		 pop	 ebx

; 605  : 		}

  00096	c2 0c 00	 ret	 12			; 0000000cH

; 599  : 		else if (_Grow(_Num))

$L208809:
  00099	5f		 pop	 edi
  0009a	8d 43 04	 lea	 eax, DWORD PTR [ebx+4]
  0009d	5e		 pop	 esi
  0009e	c6 00 00	 mov	 BYTE PTR [eax], 0
  000a1	5d		 pop	 ebp

; 603  : 			}
; 604  : 		return (*this);

  000a2	8b c3		 mov	 eax, ebx
  000a4	5b		 pop	 ebx

; 605  : 		}

  000a5	c2 0c 00	 ret	 12			; 0000000cH

; 600  : 			{	// make room and assign new stuff
; 601  : 			_Traits::copy(_Myptr(), _Right._Myptr() + _Roff, _Num);

$L208818:
  000a8	8d 57 04	 lea	 edx, DWORD PTR [edi+4]
$L208819:
  000ab	39 43 18	 cmp	 DWORD PTR [ebx+24], eax
  000ae	8d 43 04	 lea	 eax, DWORD PTR [ebx+4]
  000b1	72 04		 jb	 SHORT $L208825
  000b3	8b 38		 mov	 edi, DWORD PTR [eax]
  000b5	eb 02		 jmp	 SHORT $L208826
$L208825:
  000b7	8b f8		 mov	 edi, eax
$L208826:
  000b9	03 f2		 add	 esi, edx
  000bb	8b cd		 mov	 ecx, ebp
  000bd	8b d1		 mov	 edx, ecx
  000bf	c1 e9 02	 shr	 ecx, 2
  000c2	f3 a5		 rep movsd
  000c4	8b ca		 mov	 ecx, edx
  000c6	83 e1 03	 and	 ecx, 3
  000c9	f3 a4		 rep movsb

; 602  : 			_Eos(_Num);

  000cb	83 7b 18 10	 cmp	 DWORD PTR [ebx+24], 16	; 00000010H
  000cf	89 6b 14	 mov	 DWORD PTR [ebx+20], ebp
  000d2	72 02		 jb	 SHORT $L208849
  000d4	8b 00		 mov	 eax, DWORD PTR [eax]
$L208849:
  000d6	c6 04 28 00	 mov	 BYTE PTR [eax+ebp], 0
$L208852:
  000da	5f		 pop	 edi
  000db	5e		 pop	 esi
  000dc	5d		 pop	 ebp

; 603  : 			}
; 604  : 		return (*this);

  000dd	8b c3		 mov	 eax, ebx
  000df	5b		 pop	 ebx

; 605  : 		}

  000e0	c2 0c 00	 ret	 12			; 0000000cH
?assign@?$basic_string@DU?$char_traits@D@std@@V?$allocator@D@2@@std@@QAEAAV12@ABV12@II@Z ENDP ; std::basic_string<char,std::char_traits<char>,std::allocator<char> >::assign
_TEXT	ENDS
PUBLIC	?assign@?$basic_string@DU?$char_traits@D@std@@V?$allocator@D@2@@std@@QAEAAV12@PBDI@Z ; std::basic_string<char,std::char_traits<char>,std::allocator<char> >::assign
; Function compile flags: /Ogty
;	COMDAT ?assign@?$basic_string@DU?$char_traits@D@std@@V?$allocator@D@2@@std@@QAEAAV12@PBDI@Z
_TEXT	SEGMENT
__Ptr$ = 8						; size = 4
__Num$ = 12						; size = 4
?assign@?$basic_string@DU?$char_traits@D@std@@V?$allocator@D@2@@std@@QAEAAV12@PBDI@Z PROC NEAR ; std::basic_string<char,std::char_traits<char>,std::allocator<char> >::assign, COMDAT
; _this$ = ecx

; 608  : 		{	// assign [_Ptr, _Ptr + _Num)

  00000	53		 push	 ebx
  00001	8b d9		 mov	 ebx, ecx

; 609  : 		if (_Inside(_Ptr))

  00003	8b 53 18	 mov	 edx, DWORD PTR [ebx+24]
  00006	83 fa 10	 cmp	 edx, 16			; 00000010H
  00009	56		 push	 esi
  0000a	57		 push	 edi
  0000b	72 05		 jb	 SHORT $L208878
  0000d	8b 43 04	 mov	 eax, DWORD PTR [ebx+4]
  00010	eb 03		 jmp	 SHORT $L208879
$L208878:
  00012	8d 43 04	 lea	 eax, DWORD PTR [ebx+4]
$L208879:
  00015	8b 74 24 10	 mov	 esi, DWORD PTR __Ptr$[esp+8]
  00019	3b f0		 cmp	 esi, eax
  0001b	72 34		 jb	 SHORT $L184989
  0001d	83 fa 10	 cmp	 edx, 16			; 00000010H
  00020	8d 43 04	 lea	 eax, DWORD PTR [ebx+4]
  00023	72 04		 jb	 SHORT $L208882
  00025	8b 08		 mov	 ecx, DWORD PTR [eax]
  00027	eb 02		 jmp	 SHORT $L208883
$L208882:
  00029	8b c8		 mov	 ecx, eax
$L208883:
  0002b	8b 7b 14	 mov	 edi, DWORD PTR [ebx+20]
  0002e	03 f9		 add	 edi, ecx
  00030	3b fe		 cmp	 edi, esi
  00032	76 1d		 jbe	 SHORT $L184989

; 610  : 			return (assign(*this, _Ptr - _Myptr(), _Num));	// substring

  00034	83 fa 10	 cmp	 edx, 16			; 00000010H
  00037	72 02		 jb	 SHORT $L208891
  00039	8b 00		 mov	 eax, DWORD PTR [eax]
$L208891:
  0003b	8b 4c 24 14	 mov	 ecx, DWORD PTR __Num$[esp+8]
  0003f	51		 push	 ecx
  00040	2b f0		 sub	 esi, eax
  00042	56		 push	 esi
  00043	53		 push	 ebx
  00044	8b cb		 mov	 ecx, ebx
  00046	e8 00 00 00 00	 call	 ?assign@?$basic_string@DU?$char_traits@D@std@@V?$allocator@D@2@@std@@QAEAAV12@ABV12@II@Z ; std::basic_string<char,std::char_traits<char>,std::allocator<char> >::assign
  0004b	5f		 pop	 edi
  0004c	5e		 pop	 esi
  0004d	5b		 pop	 ebx

; 618  : 		}

  0004e	c2 08 00	 ret	 8
$L184989:
  00051	55		 push	 ebp

; 611  : 
; 612  : 		if (_Grow(_Num))

  00052	8b 6c 24 18	 mov	 ebp, DWORD PTR __Num$[esp+12]
  00056	83 fd fe	 cmp	 ebp, -2			; fffffffeH
  00059	76 07		 jbe	 SHORT $L209028
  0005b	8b cb		 mov	 ecx, ebx
  0005d	e8 00 00 00 00	 call	 ?_Xlen@_String_base@std@@QBEXXZ ; std::_String_base::_Xlen
$L209028:
  00062	8b 43 18	 mov	 eax, DWORD PTR [ebx+24]
  00065	3b c5		 cmp	 eax, ebp
  00067	73 1b		 jae	 SHORT $L209029
  00069	8b 53 14	 mov	 edx, DWORD PTR [ebx+20]
  0006c	52		 push	 edx
  0006d	55		 push	 ebp
  0006e	8b cb		 mov	 ecx, ebx
  00070	e8 00 00 00 00	 call	 ?_Copy@?$basic_string@DU?$char_traits@D@std@@V?$allocator@D@2@@std@@IAEXII@Z ; std::basic_string<char,std::char_traits<char>,std::allocator<char> >::_Copy
  00075	85 ed		 test	 ebp, ebp
$L209070:
  00077	76 68		 jbe	 SHORT $L209067

; 613  : 			{	// make room and assign new stuff
; 614  : 			_Traits::copy(_Myptr(), _Ptr, _Num);

  00079	83 7b 18 10	 cmp	 DWORD PTR [ebx+24], 16	; 00000010H
  0007d	72 2f		 jb	 SHORT $L209041
  0007f	8b 7b 04	 mov	 edi, DWORD PTR [ebx+4]
  00082	eb 2d		 jmp	 SHORT $L209042

; 611  : 
; 612  : 		if (_Grow(_Num))

$L209029:
  00084	85 ed		 test	 ebp, ebp
  00086	75 ef		 jne	 SHORT $L209070
  00088	83 f8 10	 cmp	 eax, 16			; 00000010H
  0008b	89 6b 14	 mov	 DWORD PTR [ebx+20], ebp
  0008e	72 0f		 jb	 SHORT $L209021
  00090	8b 43 04	 mov	 eax, DWORD PTR [ebx+4]
  00093	5d		 pop	 ebp
  00094	5f		 pop	 edi
  00095	c6 00 00	 mov	 BYTE PTR [eax], 0
  00098	5e		 pop	 esi

; 616  : 			}
; 617  : 		return (*this);

  00099	8b c3		 mov	 eax, ebx
  0009b	5b		 pop	 ebx

; 618  : 		}

  0009c	c2 08 00	 ret	 8

; 611  : 
; 612  : 		if (_Grow(_Num))

$L209021:
  0009f	5d		 pop	 ebp
  000a0	8d 43 04	 lea	 eax, DWORD PTR [ebx+4]
  000a3	5f		 pop	 edi
  000a4	c6 00 00	 mov	 BYTE PTR [eax], 0
  000a7	5e		 pop	 esi

; 616  : 			}
; 617  : 		return (*this);

  000a8	8b c3		 mov	 eax, ebx
  000aa	5b		 pop	 ebx

; 618  : 		}

  000ab	c2 08 00	 ret	 8

; 613  : 			{	// make room and assign new stuff
; 614  : 			_Traits::copy(_Myptr(), _Ptr, _Num);

$L209041:
  000ae	8d 7b 04	 lea	 edi, DWORD PTR [ebx+4]
$L209042:
  000b1	8b cd		 mov	 ecx, ebp
  000b3	8b c1		 mov	 eax, ecx
  000b5	c1 e9 02	 shr	 ecx, 2
  000b8	f3 a5		 rep movsd
  000ba	8b c8		 mov	 ecx, eax
  000bc	83 e1 03	 and	 ecx, 3
  000bf	f3 a4		 rep movsb

; 615  : 			_Eos(_Num);

  000c1	83 7b 18 10	 cmp	 DWORD PTR [ebx+24], 16	; 00000010H
  000c5	89 6b 14	 mov	 DWORD PTR [ebx+20], ebp
  000c8	72 10		 jb	 SHORT $L209063
  000ca	8b 43 04	 mov	 eax, DWORD PTR [ebx+4]
  000cd	c6 04 28 00	 mov	 BYTE PTR [eax+ebp], 0
  000d1	5d		 pop	 ebp
  000d2	5f		 pop	 edi
  000d3	5e		 pop	 esi

; 616  : 			}
; 617  : 		return (*this);

  000d4	8b c3		 mov	 eax, ebx
  000d6	5b		 pop	 ebx

; 618  : 		}

  000d7	c2 08 00	 ret	 8

; 615  : 			_Eos(_Num);

$L209063:
  000da	8d 43 04	 lea	 eax, DWORD PTR [ebx+4]
  000dd	c6 04 28 00	 mov	 BYTE PTR [eax+ebp], 0
$L209067:
  000e1	5d		 pop	 ebp
  000e2	5f		 pop	 edi
  000e3	5e		 pop	 esi

; 616  : 			}
; 617  : 		return (*this);

  000e4	8b c3		 mov	 eax, ebx
  000e6	5b		 pop	 ebx

; 618  : 		}

  000e7	c2 08 00	 ret	 8
?assign@?$basic_string@DU?$char_traits@D@std@@V?$allocator@D@2@@std@@QAEAAV12@PBDI@Z ENDP ; std::basic_string<char,std::char_traits<char>,std::allocator<char> >::assign
_TEXT	ENDS
PUBLIC	??0?$basic_string@DU?$char_traits@D@std@@V?$allocator@D@2@@std@@QAE@ABV01@@Z ; std::basic_string<char,std::char_traits<char>,std::allocator<char> >::basic_string<char,std::char_traits<char>,std::allocator<char> >
; Function compile flags: /Ogty
;	COMDAT ??0?$basic_string@DU?$char_traits@D@std@@V?$allocator@D@2@@std@@QAE@ABV01@@Z
_TEXT	SEGMENT
__Right$ = 8						; size = 4
??0?$basic_string@DU?$char_traits@D@std@@V?$allocator@D@2@@std@@QAE@ABV01@@Z PROC NEAR ; std::basic_string<char,std::char_traits<char>,std::allocator<char> >::basic_string<char,std::char_traits<char>,std::allocator<char> >, COMDAT
; _this$ = ecx

; 323  : 		{	// construct by copying _Right

  00000	56		 push	 esi

; 324  : 		_Tidy();

  00001	33 c0		 xor	 eax, eax
  00003	8b f1		 mov	 esi, ecx

; 325  : 		assign(_Right, 0, npos);

  00005	6a ff		 push	 -1
  00007	89 46 14	 mov	 DWORD PTR [esi+20], eax
  0000a	c7 46 18 0f 00
	00 00		 mov	 DWORD PTR [esi+24], 15	; 0000000fH
  00011	50		 push	 eax
  00012	88 46 04	 mov	 BYTE PTR [esi+4], al
  00015	8b 44 24 10	 mov	 eax, DWORD PTR __Right$[esp+8]
  00019	50		 push	 eax
  0001a	e8 00 00 00 00	 call	 ?assign@?$basic_string@DU?$char_traits@D@std@@V?$allocator@D@2@@std@@QAEAAV12@ABV12@II@Z ; std::basic_string<char,std::char_traits<char>,std::allocator<char> >::assign

; 326  : 		}

  0001f	8b c6		 mov	 eax, esi
  00021	5e		 pop	 esi
  00022	c2 04 00	 ret	 4
??0?$basic_string@DU?$char_traits@D@std@@V?$allocator@D@2@@std@@QAE@ABV01@@Z ENDP ; std::basic_string<char,std::char_traits<char>,std::allocator<char> >::basic_string<char,std::char_traits<char>,std::allocator<char> >
_TEXT	ENDS
PUBLIC	?assign@?$basic_string@DU?$char_traits@D@std@@V?$allocator@D@2@@std@@QAEAAV12@PBD@Z ; std::basic_string<char,std::char_traits<char>,std::allocator<char> >::assign
; Function compile flags: /Ogty
;	COMDAT ?assign@?$basic_string@DU?$char_traits@D@std@@V?$allocator@D@2@@std@@QAEAAV12@PBD@Z
_TEXT	SEGMENT
__Ptr$ = 8						; size = 4
?assign@?$basic_string@DU?$char_traits@D@std@@V?$allocator@D@2@@std@@QAEAAV12@PBD@Z PROC NEAR ; std::basic_string<char,std::char_traits<char>,std::allocator<char> >::assign, COMDAT
; _this$ = ecx

; 621  : 		{	// assign [_Ptr, <null>)

  00000	56		 push	 esi

; 622  : 		return (assign(_Ptr, _Traits::length(_Ptr)));

  00001	8b 74 24 08	 mov	 esi, DWORD PTR __Ptr$[esp]
  00005	8b c6		 mov	 eax, esi
  00007	57		 push	 edi
  00008	8d 78 01	 lea	 edi, DWORD PTR [eax+1]
  0000b	eb 03 8d 49 00	 npad	 5
$L209142:
  00010	8a 10		 mov	 dl, BYTE PTR [eax]
  00012	40		 inc	 eax
  00013	84 d2		 test	 dl, dl
  00015	75 f9		 jne	 SHORT $L209142
  00017	2b c7		 sub	 eax, edi
  00019	50		 push	 eax
  0001a	56		 push	 esi
  0001b	e8 00 00 00 00	 call	 ?assign@?$basic_string@DU?$char_traits@D@std@@V?$allocator@D@2@@std@@QAEAAV12@PBDI@Z ; std::basic_string<char,std::char_traits<char>,std::allocator<char> >::assign
  00020	5f		 pop	 edi
  00021	5e		 pop	 esi

; 623  : 		}

  00022	c2 04 00	 ret	 4
?assign@?$basic_string@DU?$char_traits@D@std@@V?$allocator@D@2@@std@@QAEAAV12@PBD@Z ENDP ; std::basic_string<char,std::char_traits<char>,std::allocator<char> >::assign
_TEXT	ENDS
PUBLIC	??0logic_error@std@@QAE@ABV?$basic_string@DU?$char_traits@D@std@@V?$allocator@D@2@@1@@Z ; std::logic_error::logic_error
EXTRN	??0exception@@QAE@XZ:NEAR			; exception::exception
;	COMDAT xdata$x
; File c:\program files\microsoft visual studio .net 2003\vc7\include\iosfwd
xdata$x	SEGMENT
$T209245 DD	0ffffffffH
	DD	FLAT:$L209145
$T209243 DD	019930520H
	DD	01H
	DD	FLAT:$T209245
	DD	2 DUP(00H)
	DD	2 DUP(00H)
; Function compile flags: /Ogty
; File c:\program files\microsoft visual studio .net 2003\vc7\include\stdexcept
xdata$x	ENDS
;	COMDAT ??0logic_error@std@@QAE@ABV?$basic_string@DU?$char_traits@D@std@@V?$allocator@D@2@@1@@Z
_TEXT	SEGMENT
_this$ = -16						; size = 4
__$EHRec$ = -12						; size = 12
__Message$ = 8						; size = 4
??0logic_error@std@@QAE@ABV?$basic_string@DU?$char_traits@D@std@@V?$allocator@D@2@@1@@Z PROC NEAR ; std::logic_error::logic_error, COMDAT
; _this$ = ecx

; 19   : 		{	// construct from message string

  00000	6a ff		 push	 -1
  00002	68 00 00 00 00	 push	 __ehhandler$??0logic_error@std@@QAE@ABV?$basic_string@DU?$char_traits@D@std@@V?$allocator@D@2@@1@@Z
  00007	64 a1 00 00 00
	00		 mov	 eax, DWORD PTR fs:__except_list
  0000d	50		 push	 eax
  0000e	64 89 25 00 00
	00 00		 mov	 DWORD PTR fs:__except_list, esp
  00015	51		 push	 ecx
  00016	56		 push	 esi
  00017	8b f1		 mov	 esi, ecx
  00019	89 74 24 04	 mov	 DWORD PTR _this$[esp+20], esi
  0001d	e8 00 00 00 00	 call	 ??0exception@@QAE@XZ	; exception::exception
  00022	33 c0		 xor	 eax, eax
  00024	8d 4e 0c	 lea	 ecx, DWORD PTR [esi+12]
  00027	c7 06 00 00 00
	00		 mov	 DWORD PTR [esi], OFFSET FLAT:??_7logic_error@std@@6B@
  0002d	6a ff		 push	 -1
  0002f	89 41 14	 mov	 DWORD PTR [ecx+20], eax
  00032	c7 41 18 0f 00
	00 00		 mov	 DWORD PTR [ecx+24], 15	; 0000000fH
  00039	50		 push	 eax
  0003a	89 44 24 18	 mov	 DWORD PTR __$EHRec$[esp+36], eax
  0003e	88 41 04	 mov	 BYTE PTR [ecx+4], al
  00041	8b 44 24 20	 mov	 eax, DWORD PTR __Message$[esp+24]
  00045	50		 push	 eax
  00046	e8 00 00 00 00	 call	 ?assign@?$basic_string@DU?$char_traits@D@std@@V?$allocator@D@2@@std@@QAEAAV12@ABV12@II@Z ; std::basic_string<char,std::char_traits<char>,std::allocator<char> >::assign

; 20   : 		}

  0004b	8b 4c 24 08	 mov	 ecx, DWORD PTR __$EHRec$[esp+20]
  0004f	8b c6		 mov	 eax, esi
  00051	5e		 pop	 esi
  00052	64 89 0d 00 00
	00 00		 mov	 DWORD PTR fs:__except_list, ecx
  00059	83 c4 10	 add	 esp, 16			; 00000010H
  0005c	c2 04 00	 ret	 4
_TEXT	ENDS
;	COMDAT text$x
text$x	SEGMENT
$L209145:
  00000	8b 4d f0	 mov	 ecx, DWORD PTR _this$[ebp]
  00003	e9 00 00 00 00	 jmp	 ??1exception@@UAE@XZ	; exception::~exception
__ehhandler$??0logic_error@std@@QAE@ABV?$basic_string@DU?$char_traits@D@std@@V?$allocator@D@2@@1@@Z:
  00008	b8 00 00 00 00	 mov	 eax, OFFSET FLAT:$T209243
  0000d	e9 00 00 00 00	 jmp	 ___CxxFrameHandler
text$x	ENDS
??0logic_error@std@@QAE@ABV?$basic_string@DU?$char_traits@D@std@@V?$allocator@D@2@@1@@Z ENDP ; std::logic_error::logic_error
PUBLIC	??0length_error@std@@QAE@ABV?$basic_string@DU?$char_traits@D@std@@V?$allocator@D@2@@1@@Z ; std::length_error::length_error
PUBLIC	??_7length_error@std@@6B@			; std::length_error::`vftable'
PUBLIC	??_Glength_error@std@@UAEPAXI@Z			; std::length_error::`scalar deleting destructor'
EXTRN	??_Elength_error@std@@UAEPAXI@Z:NEAR		; std::length_error::`vector deleting destructor'
;	COMDAT ??_7length_error@std@@6B@
CONST	SEGMENT
??_7length_error@std@@6B@ DD FLAT:??_Elength_error@std@@UAEPAXI@Z ; std::length_error::`vftable'
	DD	FLAT:?what@logic_error@std@@UBEPBDXZ
; Function compile flags: /Ogty
CONST	ENDS
;	COMDAT ??0length_error@std@@QAE@ABV?$basic_string@DU?$char_traits@D@std@@V?$allocator@D@2@@1@@Z
_TEXT	SEGMENT
__Message$ = 8						; size = 4
??0length_error@std@@QAE@ABV?$basic_string@DU?$char_traits@D@std@@V?$allocator@D@2@@1@@Z PROC NEAR ; std::length_error::length_error, COMDAT
; _this$ = ecx

; 95   : 		{	// construct from message string

  00000	8b 44 24 04	 mov	 eax, DWORD PTR __Message$[esp-4]
  00004	56		 push	 esi
  00005	50		 push	 eax
  00006	8b f1		 mov	 esi, ecx
  00008	e8 00 00 00 00	 call	 ??0logic_error@std@@QAE@ABV?$basic_string@DU?$char_traits@D@std@@V?$allocator@D@2@@1@@Z ; std::logic_error::logic_error
  0000d	c7 06 00 00 00
	00		 mov	 DWORD PTR [esi], OFFSET FLAT:??_7length_error@std@@6B@

; 96   : 		}

  00013	8b c6		 mov	 eax, esi
  00015	5e		 pop	 esi
  00016	c2 04 00	 ret	 4
??0length_error@std@@QAE@ABV?$basic_string@DU?$char_traits@D@std@@V?$allocator@D@2@@1@@Z ENDP ; std::length_error::length_error
_TEXT	ENDS
PUBLIC	??1length_error@std@@UAE@XZ			; std::length_error::~length_error
; Function compile flags: /Ogty
;	COMDAT ??_Glength_error@std@@UAEPAXI@Z
_TEXT	SEGMENT
___flags$ = 8						; size = 4
??_Glength_error@std@@UAEPAXI@Z PROC NEAR		; std::length_error::`scalar deleting destructor', COMDAT
; _this$ = ecx
  00000	56		 push	 esi
  00001	8b f1		 mov	 esi, ecx
  00003	e8 00 00 00 00	 call	 ??1length_error@std@@UAE@XZ ; std::length_error::~length_error
  00008	f6 44 24 08 01	 test	 BYTE PTR ___flags$[esp], 1
  0000d	74 09		 je	 SHORT $L209253
  0000f	56		 push	 esi
  00010	e8 00 00 00 00	 call	 ??3@YAXPAX@Z		; operator delete
  00015	83 c4 04	 add	 esp, 4
$L209253:
  00018	8b c6		 mov	 eax, esi
  0001a	5e		 pop	 esi
  0001b	c2 04 00	 ret	 4
??_Glength_error@std@@UAEPAXI@Z ENDP			; std::length_error::`scalar deleting destructor'
; Function compile flags: /Ogty
_TEXT	ENDS
;	COMDAT ??1length_error@std@@UAE@XZ
_TEXT	SEGMENT
??1length_error@std@@UAE@XZ PROC NEAR			; std::length_error::~length_error, COMDAT
; _this$ = ecx

; 99   : 		{}	// destroy the object

  00000	56		 push	 esi
  00001	8b f1		 mov	 esi, ecx
  00003	c7 06 00 00 00
	00		 mov	 DWORD PTR [esi], OFFSET FLAT:??_7logic_error@std@@6B@
  00009	83 7e 24 10	 cmp	 DWORD PTR [esi+36], 16	; 00000010H
  0000d	72 0c		 jb	 SHORT $L209347
  0000f	8b 46 10	 mov	 eax, DWORD PTR [esi+16]
  00012	50		 push	 eax
  00013	e8 00 00 00 00	 call	 ??3@YAXPAX@Z		; operator delete
  00018	83 c4 04	 add	 esp, 4
$L209347:
  0001b	33 c0		 xor	 eax, eax
  0001d	c7 46 24 0f 00
	00 00		 mov	 DWORD PTR [esi+36], 15	; 0000000fH
  00024	89 46 20	 mov	 DWORD PTR [esi+32], eax
  00027	88 46 10	 mov	 BYTE PTR [esi+16], al
  0002a	8b ce		 mov	 ecx, esi
  0002c	5e		 pop	 esi
  0002d	e9 00 00 00 00	 jmp	 ??1exception@@UAE@XZ	; exception::~exception
??1length_error@std@@UAE@XZ ENDP			; std::length_error::~length_error
_TEXT	ENDS
PUBLIC	??0out_of_range@std@@QAE@ABV?$basic_string@DU?$char_traits@D@std@@V?$allocator@D@2@@1@@Z ; std::out_of_range::out_of_range
PUBLIC	??_7out_of_range@std@@6B@			; std::out_of_range::`vftable'
PUBLIC	??_Gout_of_range@std@@UAEPAXI@Z			; std::out_of_range::`scalar deleting destructor'
EXTRN	??_Eout_of_range@std@@UAEPAXI@Z:NEAR		; std::out_of_range::`vector deleting destructor'
;	COMDAT ??_7out_of_range@std@@6B@
CONST	SEGMENT
??_7out_of_range@std@@6B@ DD FLAT:??_Eout_of_range@std@@UAEPAXI@Z ; std::out_of_range::`vftable'
	DD	FLAT:?what@logic_error@std@@UBEPBDXZ
; Function compile flags: /Ogty
CONST	ENDS
;	COMDAT ??0out_of_range@std@@QAE@ABV?$basic_string@DU?$char_traits@D@std@@V?$allocator@D@2@@1@@Z
_TEXT	SEGMENT
__Message$ = 8						; size = 4
??0out_of_range@std@@QAE@ABV?$basic_string@DU?$char_traits@D@std@@V?$allocator@D@2@@1@@Z PROC NEAR ; std::out_of_range::out_of_range, COMDAT
; _this$ = ecx

; 118  : 		{	// construct from message string

  00000	8b 44 24 04	 mov	 eax, DWORD PTR __Message$[esp-4]
  00004	56		 push	 esi
  00005	50		 push	 eax
  00006	8b f1		 mov	 esi, ecx
  00008	e8 00 00 00 00	 call	 ??0logic_error@std@@QAE@ABV?$basic_string@DU?$char_traits@D@std@@V?$allocator@D@2@@1@@Z ; std::logic_error::logic_error
  0000d	c7 06 00 00 00
	00		 mov	 DWORD PTR [esi], OFFSET FLAT:??_7out_of_range@std@@6B@

; 119  : 		}

  00013	8b c6		 mov	 eax, esi
  00015	5e		 pop	 esi
  00016	c2 04 00	 ret	 4
??0out_of_range@std@@QAE@ABV?$basic_string@DU?$char_traits@D@std@@V?$allocator@D@2@@1@@Z ENDP ; std::out_of_range::out_of_range
_TEXT	ENDS
PUBLIC	??1out_of_range@std@@UAE@XZ			; std::out_of_range::~out_of_range
; Function compile flags: /Ogty
;	COMDAT ??_Gout_of_range@std@@UAEPAXI@Z
_TEXT	SEGMENT
___flags$ = 8						; size = 4
??_Gout_of_range@std@@UAEPAXI@Z PROC NEAR		; std::out_of_range::`scalar deleting destructor', COMDAT
; _this$ = ecx
  00000	56		 push	 esi
  00001	8b f1		 mov	 esi, ecx
  00003	e8 00 00 00 00	 call	 ??1out_of_range@std@@UAE@XZ ; std::out_of_range::~out_of_range
  00008	f6 44 24 08 01	 test	 BYTE PTR ___flags$[esp], 1
  0000d	74 09		 je	 SHORT $L209364
  0000f	56		 push	 esi
  00010	e8 00 00 00 00	 call	 ??3@YAXPAX@Z		; operator delete
  00015	83 c4 04	 add	 esp, 4
$L209364:
  00018	8b c6		 mov	 eax, esi
  0001a	5e		 pop	 esi
  0001b	c2 04 00	 ret	 4
??_Gout_of_range@std@@UAEPAXI@Z ENDP			; std::out_of_range::`scalar deleting destructor'
; Function compile flags: /Ogty
_TEXT	ENDS
;	COMDAT ??1out_of_range@std@@UAE@XZ
_TEXT	SEGMENT
??1out_of_range@std@@UAE@XZ PROC NEAR			; std::out_of_range::~out_of_range, COMDAT
; _this$ = ecx

; 122  : 		{}	// destroy the object

  00000	56		 push	 esi
  00001	8b f1		 mov	 esi, ecx
  00003	c7 06 00 00 00
	00		 mov	 DWORD PTR [esi], OFFSET FLAT:??_7logic_error@std@@6B@
  00009	83 7e 24 10	 cmp	 DWORD PTR [esi+36], 16	; 00000010H
  0000d	72 0c		 jb	 SHORT $L209458
  0000f	8b 46 10	 mov	 eax, DWORD PTR [esi+16]
  00012	50		 push	 eax
  00013	e8 00 00 00 00	 call	 ??3@YAXPAX@Z		; operator delete
  00018	83 c4 04	 add	 esp, 4
$L209458:
  0001b	33 c0		 xor	 eax, eax
  0001d	c7 46 24 0f 00
	00 00		 mov	 DWORD PTR [esi+36], 15	; 0000000fH
  00024	89 46 20	 mov	 DWORD PTR [esi+32], eax
  00027	88 46 10	 mov	 BYTE PTR [esi+16], al
  0002a	8b ce		 mov	 ecx, esi
  0002c	5e		 pop	 esi
  0002d	e9 00 00 00 00	 jmp	 ??1exception@@UAE@XZ	; exception::~exception
??1out_of_range@std@@UAE@XZ ENDP			; std::out_of_range::~out_of_range
_TEXT	ENDS
PUBLIC	??0?$basic_string@DU?$char_traits@D@std@@V?$allocator@D@2@@std@@QAE@PBD@Z ; std::basic_string<char,std::char_traits<char>,std::allocator<char> >::basic_string<char,std::char_traits<char>,std::allocator<char> >
; Function compile flags: /Ogty
; File c:\program files\microsoft visual studio .net 2003\vc7\include\xstring
;	COMDAT ??0?$basic_string@DU?$char_traits@D@std@@V?$allocator@D@2@@std@@QAE@PBD@Z
_TEXT	SEGMENT
__Ptr$ = 8						; size = 4
??0?$basic_string@DU?$char_traits@D@std@@V?$allocator@D@2@@std@@QAE@PBD@Z PROC NEAR ; std::basic_string<char,std::char_traits<char>,std::allocator<char> >::basic_string<char,std::char_traits<char>,std::allocator<char> >, COMDAT
; _this$ = ecx

; 361  : 		_Tidy();
; 362  : 		assign(_Ptr);

  00000	8b 54 24 04	 mov	 edx, DWORD PTR __Ptr$[esp-4]
  00004	56		 push	 esi
  00005	8b f1		 mov	 esi, ecx
  00007	8b c2		 mov	 eax, edx
  00009	57		 push	 edi
  0000a	c7 46 18 0f 00
	00 00		 mov	 DWORD PTR [esi+24], 15	; 0000000fH
  00011	c7 46 14 00 00
	00 00		 mov	 DWORD PTR [esi+20], 0
  00018	c6 46 04 00	 mov	 BYTE PTR [esi+4], 0
  0001c	8d 78 01	 lea	 edi, DWORD PTR [eax+1]
  0001f	90		 npad	 1
$L209544:
  00020	8a 08		 mov	 cl, BYTE PTR [eax]
  00022	40		 inc	 eax
  00023	84 c9		 test	 cl, cl
  00025	75 f9		 jne	 SHORT $L209544
  00027	2b c7		 sub	 eax, edi
  00029	50		 push	 eax
  0002a	52		 push	 edx
  0002b	8b ce		 mov	 ecx, esi
  0002d	e8 00 00 00 00	 call	 ?assign@?$basic_string@DU?$char_traits@D@std@@V?$allocator@D@2@@std@@QAEAAV12@PBDI@Z ; std::basic_string<char,std::char_traits<char>,std::allocator<char> >::assign
  00032	5f		 pop	 edi

; 363  : 		}

  00033	8b c6		 mov	 eax, esi
  00035	5e		 pop	 esi
  00036	c2 04 00	 ret	 4
??0?$basic_string@DU?$char_traits@D@std@@V?$allocator@D@2@@std@@QAE@PBD@Z ENDP ; std::basic_string<char,std::char_traits<char>,std::allocator<char> >::basic_string<char,std::char_traits<char>,std::allocator<char> >
_TEXT	ENDS
PUBLIC	?_Insert@?$_Tree@V?$_Tmap_traits@KPAVCMail@@U?$less@K@std@@V?$allocator@U?$pair@$$CBKPAVCMail@@@std@@@3@$0A@@std@@@std@@IAE?AViterator@12@_NPAU_Node@?$_Tree_nod@V?$_Tmap_traits@KPAVCMail@@U?$less@K@std@@V?$allocator@U?$pair@$$CBKPAVCMail@@@std@@@3@$0A@@std@@@2@ABU?$pair@$$CBKPAVCMail@@@2@@Z ; std::_Tree<std::_Tmap_traits<unsigned long,CMail *,std::less<unsigned long>,std::allocator<std::pair<unsigned long const ,CMail *> >,0> >::_Insert
PUBLIC	??_R0?AVlogic_error@std@@@8			; std::logic_error `RTTI Type Descriptor'
PUBLIC	__CT??_R0?AVlogic_error@std@@@8??0logic_error@std@@QAE@ABV01@@Z40
PUBLIC	??_R0?AVexception@@@8				; exception `RTTI Type Descriptor'
PUBLIC	__CT??_R0?AVexception@@@8??0exception@@QAE@ABV0@@Z12
PUBLIC	??0logic_error@std@@QAE@ABV01@@Z		; std::logic_error::logic_error
PUBLIC	??0length_error@std@@QAE@ABV01@@Z		; std::length_error::length_error
PUBLIC	__TI3?AVlength_error@std@@
PUBLIC	__CTA3?AVlength_error@std@@
PUBLIC	??_R0?AVlength_error@std@@@8			; std::length_error `RTTI Type Descriptor'
PUBLIC	__CT??_R0?AVlength_error@std@@@8??0length_error@std@@QAE@ABV01@@Z40
PUBLIC	??_C@_0BE@JONHPENG@map?1set?$DMT?$DO?5too?5long?$AA@ ; `string'
EXTRN	??0exception@@QAE@ABV0@@Z:NEAR			; exception::exception
EXTRN	??_7type_info@@6B@:DWORD			; type_info::`vftable'
;	COMDAT xdata$x
; File c:\program files\microsoft visual studio .net 2003\vc7\include\xtree
xdata$x	SEGMENT
$T209919 DD	0ffffffffH
	DD	FLAT:$L209549
$T209914 DD	019930520H
	DD	01H
	DD	FLAT:$T209919
	DD	2 DUP(00H)
	DD	2 DUP(00H)
xdata$x	ENDS
;	COMDAT ??_C@_0BE@JONHPENG@map?1set?$DMT?$DO?5too?5long?$AA@
CONST	SEGMENT
??_C@_0BE@JONHPENG@map?1set?$DMT?$DO?5too?5long?$AA@ DB 'map/set<T> too l'
	DB	'ong', 00H					; `string'
CONST	ENDS
;	COMDAT __TI3?AVlength_error@std@@
xdata$x	SEGMENT
__TI3?AVlength_error@std@@ DD 00H
	DD	FLAT:??1length_error@std@@UAE@XZ
	DD	00H
	DD	FLAT:__CTA3?AVlength_error@std@@
xdata$x	ENDS
;	COMDAT __CTA3?AVlength_error@std@@
xdata$x	SEGMENT
__CTA3?AVlength_error@std@@ DD 03H
	DD	FLAT:__CT??_R0?AVlength_error@std@@@8??0length_error@std@@QAE@ABV01@@Z40
	DD	FLAT:__CT??_R0?AVlogic_error@std@@@8??0logic_error@std@@QAE@ABV01@@Z40
	DD	FLAT:__CT??_R0?AVexception@@@8??0exception@@QAE@ABV0@@Z12
xdata$x	ENDS
;	COMDAT __CT??_R0?AVlength_error@std@@@8??0length_error@std@@QAE@ABV01@@Z40
xdata$x	SEGMENT
__CT??_R0?AVlength_error@std@@@8??0length_error@std@@QAE@ABV01@@Z40 DD 00H
	DD	FLAT:??_R0?AVlength_error@std@@@8
	DD	00H
	DD	0ffffffffH
	ORG $+4
	DD	028H
	DD	FLAT:??0length_error@std@@QAE@ABV01@@Z
xdata$x	ENDS
;	COMDAT ??_R0?AVlength_error@std@@@8
_DATA	SEGMENT
??_R0?AVlength_error@std@@@8 DD FLAT:??_7type_info@@6B@	; std::length_error `RTTI Type Descriptor'
	DD	00H
	DB	'.?AVlength_error@std@@', 00H
_DATA	ENDS
;	COMDAT __CT??_R0?AVlogic_error@std@@@8??0logic_error@std@@QAE@ABV01@@Z40
xdata$x	SEGMENT
__CT??_R0?AVlogic_error@std@@@8??0logic_error@std@@QAE@ABV01@@Z40 DD 00H
	DD	FLAT:??_R0?AVlogic_error@std@@@8
	DD	00H
	DD	0ffffffffH
	ORG $+4
	DD	028H
	DD	FLAT:??0logic_error@std@@QAE@ABV01@@Z
xdata$x	ENDS
;	COMDAT ??_R0?AVlogic_error@std@@@8
_DATA	SEGMENT
??_R0?AVlogic_error@std@@@8 DD FLAT:??_7type_info@@6B@	; std::logic_error `RTTI Type Descriptor'
	DD	00H
	DB	'.?AVlogic_error@std@@', 00H
_DATA	ENDS
;	COMDAT __CT??_R0?AVexception@@@8??0exception@@QAE@ABV0@@Z12
xdata$x	SEGMENT
__CT??_R0?AVexception@@@8??0exception@@QAE@ABV0@@Z12 DD 00H
	DD	FLAT:??_R0?AVexception@@@8
	DD	00H
	DD	0ffffffffH
	ORG $+4
	DD	0cH
	DD	FLAT:??0exception@@QAE@ABV0@@Z
xdata$x	ENDS
;	COMDAT ??_R0?AVexception@@@8
_DATA	SEGMENT
??_R0?AVexception@@@8 DD FLAT:??_7type_info@@6B@	; exception `RTTI Type Descriptor'
	DD	00H
	DB	'.?AVexception@@', 00H
; Function compile flags: /Ogty
_DATA	ENDS
;	COMDAT ?_Insert@?$_Tree@V?$_Tmap_traits@KPAVCMail@@U?$less@K@std@@V?$allocator@U?$pair@$$CBKPAVCMail@@@std@@@3@$0A@@std@@@std@@IAE?AViterator@12@_NPAU_Node@?$_Tree_nod@V?$_Tmap_traits@KPAVCMail@@U?$less@K@std@@V?$allocator@U?$pair@$$CBKPAVCMail@@@std@@@3@$0A@@std@@@2@ABU?$pair@$$CBKPAVCMail@@@2@@Z
_TEXT	SEGMENT
$T209548 = -80						; size = 28
$T209547 = -52						; size = 40
__$EHRec$ = -12						; size = 12
___$ReturnUdt$ = 8					; size = 4
__Addleft$ = 12						; size = 1
__Wherenode$ = 16					; size = 4
__Newnode$ = 20						; size = 4
__Val$ = 20						; size = 4
?_Insert@?$_Tree@V?$_Tmap_traits@KPAVCMail@@U?$less@K@std@@V?$allocator@U?$pair@$$CBKPAVCMail@@@std@@@3@$0A@@std@@@std@@IAE?AViterator@12@_NPAU_Node@?$_Tree_nod@V?$_Tmap_traits@KPAVCMail@@U?$less@K@std@@V?$allocator@U?$pair@$$CBKPAVCMail@@@std@@@3@$0A@@std@@@2@ABU?$pair@$$CBKPAVCMail@@@2@@Z PROC NEAR ; std::_Tree<std::_Tmap_traits<unsigned long,CMail *,std::less<unsigned long>,std::allocator<std::pair<unsigned long const ,CMail *> >,0> >::_Insert, COMDAT
; _this$ = ecx

; 911  : 		{	// add node with value next to _Wherenode, to left if _Addnode

  00000	64 a1 00 00 00
	00		 mov	 eax, DWORD PTR fs:__except_list
  00006	6a ff		 push	 -1
  00008	68 00 00 00 00	 push	 __ehhandler$?_Insert@?$_Tree@V?$_Tmap_traits@KPAVCMail@@U?$less@K@std@@V?$allocator@U?$pair@$$CBKPAVCMail@@@std@@@3@$0A@@std@@@std@@IAE?AViterator@12@_NPAU_Node@?$_Tree_nod@V?$_Tmap_traits@KPAVCMail@@U?$less@K@std@@V?$allocator@U?$pair@$$CBKPAVCMail@@@std@@@3@$0A@@std@@@2@ABU?$pair@$$CBKPAVCMail@@@2@@Z
  0000d	50		 push	 eax
  0000e	64 89 25 00 00
	00 00		 mov	 DWORD PTR fs:__except_list, esp
  00015	83 ec 44	 sub	 esp, 68			; 00000044H
  00018	56		 push	 esi
  00019	57		 push	 edi
  0001a	8b f9		 mov	 edi, ecx

; 912  : 		if (max_size() - 1 <= _Mysize)

  0001c	81 7f 08 fe ff
	ff 1f		 cmp	 DWORD PTR [edi+8], 536870910 ; 1ffffffeH
  00023	72 4c		 jb	 SHORT $L200476

; 913  : 			_THROW(length_error, "map/set<T> too long");

  00025	6a 13		 push	 19			; 00000013H
  00027	33 f6		 xor	 esi, esi
  00029	68 00 00 00 00	 push	 OFFSET FLAT:??_C@_0BE@JONHPENG@map?1set?$DMT?$DO?5too?5long?$AA@
  0002e	8d 4c 24 10	 lea	 ecx, DWORD PTR $T209548[esp+96]
  00032	c7 44 24 28 0f
	00 00 00	 mov	 DWORD PTR $T209548[esp+120], 15 ; 0000000fH
  0003a	89 74 24 24	 mov	 DWORD PTR $T209548[esp+116], esi
  0003e	c6 44 24 14 00	 mov	 BYTE PTR $T209548[esp+100], 0
  00043	e8 00 00 00 00	 call	 ?assign@?$basic_string@DU?$char_traits@D@std@@V?$allocator@D@2@@std@@QAEAAV12@PBDI@Z ; std::basic_string<char,std::char_traits<char>,std::allocator<char> >::assign
  00048	8d 44 24 08	 lea	 eax, DWORD PTR $T209548[esp+88]
  0004c	50		 push	 eax
  0004d	8d 4c 24 28	 lea	 ecx, DWORD PTR $T209547[esp+92]
  00051	89 74 24 58	 mov	 DWORD PTR __$EHRec$[esp+100], esi
  00055	e8 00 00 00 00	 call	 ??0logic_error@std@@QAE@ABV?$basic_string@DU?$char_traits@D@std@@V?$allocator@D@2@@1@@Z ; std::logic_error::logic_error
  0005a	68 00 00 00 00	 push	 OFFSET FLAT:__TI3?AVlength_error@std@@
  0005f	8d 4c 24 28	 lea	 ecx, DWORD PTR $T209547[esp+92]
  00063	51		 push	 ecx
  00064	c7 44 24 2c 00
	00 00 00	 mov	 DWORD PTR $T209547[esp+96], OFFSET FLAT:??_7length_error@std@@6B@
  0006c	e8 00 00 00 00	 call	 __CxxThrowException@8
$L200476:

; 914  : 		_Nodeptr _Newnode = _Buynode(_Myhead, _Wherenode, _Myhead,
; 915  : 			_Val, _Red);

  00071	8b 54 24 68	 mov	 edx, DWORD PTR __Val$[esp+84]
  00075	8b 47 04	 mov	 eax, DWORD PTR [edi+4]
  00078	8b 74 24 64	 mov	 esi, DWORD PTR __Wherenode$[esp+84]
  0007c	53		 push	 ebx
  0007d	6a 00		 push	 0
  0007f	52		 push	 edx
  00080	50		 push	 eax
  00081	56		 push	 esi
  00082	50		 push	 eax
  00083	8b cf		 mov	 ecx, edi
  00085	e8 00 00 00 00	 call	 ?_Buynode@?$_Tree@V?$_Tmap_traits@KPAVCMail@@U?$less@K@std@@V?$allocator@U?$pair@$$CBKPAVCMail@@@std@@@3@$0A@@std@@@std@@IAEPAU_Node@?$_Tree_nod@V?$_Tmap_traits@KPAVCMail@@U?$less@K@std@@V?$allocator@U?$pair@$$CBKPAVCMail@@@std@@@3@$0A@@std@@@2@PAU342@00ABU?$pair@$$CBKPAVCMail@@@2@D@Z ; std::_Tree<std::_Tmap_traits<unsigned long,CMail *,std::less<unsigned long>,std::allocator<std::pair<unsigned long const ,CMail *> >,0> >::_Buynode

; 916  : 
; 917  : 		++_Mysize;

  0008a	8b 5f 08	 mov	 ebx, DWORD PTR [edi+8]
  0008d	8b c8		 mov	 ecx, eax

; 918  : 		if (_Wherenode == _Myhead)

  0008f	8b 47 04	 mov	 eax, DWORD PTR [edi+4]
  00092	43		 inc	 ebx
  00093	3b f0		 cmp	 esi, eax
  00095	89 4c 24 6c	 mov	 DWORD PTR __Newnode$[esp+88], ecx
  00099	89 5f 08	 mov	 DWORD PTR [edi+8], ebx
  0009c	75 10		 jne	 SHORT $L200481

; 919  : 			{	// first node in tree, just set head values
; 920  : 			_Root() = _Newnode;

  0009e	89 48 04	 mov	 DWORD PTR [eax+4], ecx

; 921  : 			_Lmost() = _Newnode, _Rmost() = _Newnode;

  000a1	8b 47 04	 mov	 eax, DWORD PTR [edi+4]
  000a4	89 08		 mov	 DWORD PTR [eax], ecx
  000a6	8b 57 04	 mov	 edx, DWORD PTR [edi+4]
  000a9	89 4a 08	 mov	 DWORD PTR [edx+8], ecx

; 922  : 			}
; 923  : 		else if (_Addleft)

  000ac	eb 23		 jmp	 SHORT $L200486
$L200481:
  000ae	8a 44 24 64	 mov	 al, BYTE PTR __Addleft$[esp+88]
  000b2	84 c0		 test	 al, al
  000b4	74 0d		 je	 SHORT $L200483

; 924  : 			{	// add to left of _Wherenode
; 925  : 			_Left(_Wherenode) = _Newnode;

  000b6	89 0e		 mov	 DWORD PTR [esi], ecx

; 926  : 			if (_Wherenode == _Lmost())

  000b8	8b 47 04	 mov	 eax, DWORD PTR [edi+4]
  000bb	3b 30		 cmp	 esi, DWORD PTR [eax]
  000bd	75 12		 jne	 SHORT $L200486

; 927  : 				_Lmost() = _Newnode;

  000bf	89 08		 mov	 DWORD PTR [eax], ecx

; 928  : 			}
; 929  : 		else

  000c1	eb 0e		 jmp	 SHORT $L200486
$L200483:

; 930  : 			{	// add to right of _Wherenode
; 931  : 			_Right(_Wherenode) = _Newnode;

  000c3	89 4e 08	 mov	 DWORD PTR [esi+8], ecx

; 932  : 			if (_Wherenode == _Rmost())

  000c6	8b 47 04	 mov	 eax, DWORD PTR [edi+4]
  000c9	3b 70 08	 cmp	 esi, DWORD PTR [eax+8]
  000cc	75 03		 jne	 SHORT $L200486

; 933  : 				_Rmost() = _Newnode;

  000ce	89 48 08	 mov	 DWORD PTR [eax+8], ecx
$L200486:

; 934  : 			}
; 935  : 
; 936  : 		for (_Nodeptr _Pnode = _Newnode; _Color(_Parent(_Pnode)) == _Red; )

  000d1	8b 51 04	 mov	 edx, DWORD PTR [ecx+4]
  000d4	80 7a 14 00	 cmp	 BYTE PTR [edx+20], 0
  000d8	8d 41 04	 lea	 eax, DWORD PTR [ecx+4]
  000db	8b f1		 mov	 esi, ecx
  000dd	b3 01		 mov	 bl, 1
  000df	0f 85 a5 00 00
	00		 jne	 $L200490
  000e5	55		 push	 ebp
$L200489:

; 937  : 			if (_Parent(_Pnode) == _Left(_Parent(_Parent(_Pnode))))

  000e6	8b 08		 mov	 ecx, DWORD PTR [eax]
  000e8	8b 69 04	 mov	 ebp, DWORD PTR [ecx+4]
  000eb	8b 55 00	 mov	 edx, DWORD PTR [ebp]
  000ee	3b ca		 cmp	 ecx, edx
  000f0	75 50		 jne	 SHORT $L200491

; 938  : 				{	// fixup red-red in left subtree
; 939  : 				_Wherenode = _Right(_Parent(_Parent(_Pnode)));

  000f2	8b 55 08	 mov	 edx, DWORD PTR [ebp+8]

; 940  : 				if (_Color(_Wherenode) == _Red)

  000f5	80 7a 14 00	 cmp	 BYTE PTR [edx+20], 0
  000f9	75 18		 jne	 SHORT $L200492
$L209918:

; 941  : 					{	// parent has two red children, blacken both
; 942  : 					_Color(_Parent(_Pnode)) = _Black;

  000fb	8b 08		 mov	 ecx, DWORD PTR [eax]
  000fd	88 59 14	 mov	 BYTE PTR [ecx+20], bl

; 943  : 					_Color(_Wherenode) = _Black;

  00100	88 5a 14	 mov	 BYTE PTR [edx+20], bl

; 944  : 					_Color(_Parent(_Parent(_Pnode))) = _Red;

  00103	8b 10		 mov	 edx, DWORD PTR [eax]
  00105	8b 4a 04	 mov	 ecx, DWORD PTR [edx+4]
  00108	c6 41 14 00	 mov	 BYTE PTR [ecx+20], 0

; 945  : 					_Pnode = _Parent(_Parent(_Pnode));

  0010c	8b 10		 mov	 edx, DWORD PTR [eax]
  0010e	8b 72 04	 mov	 esi, DWORD PTR [edx+4]

; 946  : 					}
; 947  : 				else

  00111	eb 61		 jmp	 SHORT $L200497
$L200492:

; 948  : 					{	// parent has red and black children
; 949  : 					if (_Pnode == _Right(_Parent(_Pnode)))

  00113	3b 71 08	 cmp	 esi, DWORD PTR [ecx+8]
  00116	75 0a		 jne	 SHORT $L200494

; 950  : 						{	// rotate right child to left
; 951  : 						_Pnode = _Parent(_Pnode);

  00118	8b f1		 mov	 esi, ecx

; 952  : 						_Lrotate(_Pnode);

  0011a	56		 push	 esi
  0011b	8b cf		 mov	 ecx, edi
  0011d	e8 00 00 00 00	 call	 ?_Lrotate@?$_Tree@V?$_Tmap_traits@KPAVCMail@@U?$less@K@std@@V?$allocator@U?$pair@$$CBKPAVCMail@@@std@@@3@$0A@@std@@@std@@IAEXPAU_Node@?$_Tree_nod@V?$_Tmap_traits@KPAVCMail@@U?$less@K@std@@V?$allocator@U?$pair@$$CBKPAVCMail@@@std@@@3@$0A@@std@@@2@@Z ; std::_Tree<std::_Tmap_traits<unsigned long,CMail *,std::less<unsigned long>,std::allocator<std::pair<unsigned long const ,CMail *> >,0> >::_Lrotate
$L200494:

; 953  : 						}
; 954  : 					_Color(_Parent(_Pnode)) = _Black;	// propagate red up

  00122	8b 46 04	 mov	 eax, DWORD PTR [esi+4]
  00125	88 58 14	 mov	 BYTE PTR [eax+20], bl

; 955  : 					_Color(_Parent(_Parent(_Pnode))) = _Red;

  00128	8b 4e 04	 mov	 ecx, DWORD PTR [esi+4]
  0012b	8b 51 04	 mov	 edx, DWORD PTR [ecx+4]
  0012e	c6 42 14 00	 mov	 BYTE PTR [edx+20], 0

; 956  : 					_Rrotate(_Parent(_Parent(_Pnode)));

  00132	8b 46 04	 mov	 eax, DWORD PTR [esi+4]
  00135	8b 48 04	 mov	 ecx, DWORD PTR [eax+4]
  00138	51		 push	 ecx
  00139	8b cf		 mov	 ecx, edi
  0013b	e8 00 00 00 00	 call	 ?_Rrotate@?$_Tree@V?$_Tmap_traits@KPAVCMail@@U?$less@K@std@@V?$allocator@U?$pair@$$CBKPAVCMail@@@std@@@3@$0A@@std@@@std@@IAEXPAU_Node@?$_Tree_nod@V?$_Tmap_traits@KPAVCMail@@U?$less@K@std@@V?$allocator@U?$pair@$$CBKPAVCMail@@@std@@@3@$0A@@std@@@2@@Z ; std::_Tree<std::_Tmap_traits<unsigned long,CMail *,std::less<unsigned long>,std::allocator<std::pair<unsigned long const ,CMail *> >,0> >::_Rrotate

; 957  : 					}
; 958  : 				}
; 959  : 			else

  00140	eb 32		 jmp	 SHORT $L200497
$L200491:

; 960  : 				{	// fixup red-red in right subtree
; 961  : 				_Wherenode = _Left(_Parent(_Parent(_Pnode)));
; 962  : 				if (_Color(_Wherenode) == _Red)

  00142	80 7a 14 00	 cmp	 BYTE PTR [edx+20], 0

; 963  : 					{	// parent has two red children, blacken both
; 964  : 					_Color(_Parent(_Pnode)) = _Black;
; 965  : 					_Color(_Wherenode) = _Black;
; 966  : 					_Color(_Parent(_Parent(_Pnode))) = _Red;
; 967  : 					_Pnode = _Parent(_Parent(_Pnode));
; 968  : 					}
; 969  : 				else

  00146	74 b3		 je	 SHORT $L209918

; 970  : 					{	// parent has red and black children
; 971  : 					if (_Pnode == _Left(_Parent(_Pnode)))

  00148	3b 31		 cmp	 esi, DWORD PTR [ecx]
  0014a	75 0a		 jne	 SHORT $L200498

; 972  : 						{	// rotate left child to right
; 973  : 						_Pnode = _Parent(_Pnode);

  0014c	8b f1		 mov	 esi, ecx

; 974  : 						_Rrotate(_Pnode);

  0014e	56		 push	 esi
  0014f	8b cf		 mov	 ecx, edi
  00151	e8 00 00 00 00	 call	 ?_Rrotate@?$_Tree@V?$_Tmap_traits@KPAVCMail@@U?$less@K@std@@V?$allocator@U?$pair@$$CBKPAVCMail@@@std@@@3@$0A@@std@@@std@@IAEXPAU_Node@?$_Tree_nod@V?$_Tmap_traits@KPAVCMail@@U?$less@K@std@@V?$allocator@U?$pair@$$CBKPAVCMail@@@std@@@3@$0A@@std@@@2@@Z ; std::_Tree<std::_Tmap_traits<unsigned long,CMail *,std::less<unsigned long>,std::allocator<std::pair<unsigned long const ,CMail *> >,0> >::_Rrotate
$L200498:

; 975  : 						}
; 976  : 					_Color(_Parent(_Pnode)) = _Black;	// propagate red up

  00156	8b 46 04	 mov	 eax, DWORD PTR [esi+4]
  00159	88 58 14	 mov	 BYTE PTR [eax+20], bl

; 977  : 					_Color(_Parent(_Parent(_Pnode))) = _Red;

  0015c	8b 4e 04	 mov	 ecx, DWORD PTR [esi+4]
  0015f	8b 51 04	 mov	 edx, DWORD PTR [ecx+4]
  00162	c6 42 14 00	 mov	 BYTE PTR [edx+20], 0

; 978  : 					_Lrotate(_Parent(_Parent(_Pnode)));

  00166	8b 46 04	 mov	 eax, DWORD PTR [esi+4]
  00169	8b 48 04	 mov	 ecx, DWORD PTR [eax+4]
  0016c	51		 push	 ecx
  0016d	8b cf		 mov	 ecx, edi
  0016f	e8 00 00 00 00	 call	 ?_Lrotate@?$_Tree@V?$_Tmap_traits@KPAVCMail@@U?$less@K@std@@V?$allocator@U?$pair@$$CBKPAVCMail@@@std@@@3@$0A@@std@@@std@@IAEXPAU_Node@?$_Tree_nod@V?$_Tmap_traits@KPAVCMail@@U?$less@K@std@@V?$allocator@U?$pair@$$CBKPAVCMail@@@std@@@3@$0A@@std@@@2@@Z ; std::_Tree<std::_Tmap_traits<unsigned long,CMail *,std::less<unsigned long>,std::allocator<std::pair<unsigned long const ,CMail *> >,0> >::_Lrotate
$L200497:
  00174	8b 56 04	 mov	 edx, DWORD PTR [esi+4]
  00177	8a 4a 14	 mov	 cl, BYTE PTR [edx+20]
  0017a	84 c9		 test	 cl, cl
  0017c	8d 46 04	 lea	 eax, DWORD PTR [esi+4]
  0017f	0f 84 61 ff ff
	ff		 je	 $L200489
  00185	8b 4c 24 70	 mov	 ecx, DWORD PTR __Newnode$[esp+92]
  00189	5d		 pop	 ebp
$L200490:

; 979  : 					}
; 980  : 				}
; 981  : 
; 982  : 		_Color(_Root()) = _Black;	// root is always black

  0018a	8b 47 04	 mov	 eax, DWORD PTR [edi+4]
  0018d	8b 50 04	 mov	 edx, DWORD PTR [eax+4]

; 983  : 		return (_TREE_ITERATOR(_Newnode));

  00190	8b 44 24 60	 mov	 eax, DWORD PTR ___$ReturnUdt$[esp+88]
  00194	88 5a 14	 mov	 BYTE PTR [edx+20], bl
  00197	5b		 pop	 ebx
  00198	89 08		 mov	 DWORD PTR [eax], ecx

; 984  : 		}

  0019a	8b 4c 24 4c	 mov	 ecx, DWORD PTR __$EHRec$[esp+88]
  0019e	5f		 pop	 edi
  0019f	5e		 pop	 esi
  001a0	64 89 0d 00 00
	00 00		 mov	 DWORD PTR fs:__except_list, ecx
  001a7	83 c4 50	 add	 esp, 80			; 00000050H
  001aa	c2 10 00	 ret	 16			; 00000010H
$L209917:
_TEXT	ENDS
;	COMDAT text$x
text$x	SEGMENT
$L209549:
  00000	8d 4d b0	 lea	 ecx, DWORD PTR $T209548[ebp]
  00003	e9 00 00 00 00	 jmp	 ??1?$basic_string@DU?$char_traits@D@std@@V?$allocator@D@2@@std@@QAE@XZ ; std::basic_string<char,std::char_traits<char>,std::allocator<char> >::~basic_string<char,std::char_traits<char>,std::allocator<char> >
__ehhandler$?_Insert@?$_Tree@V?$_Tmap_traits@KPAVCMail@@U?$less@K@std@@V?$allocator@U?$pair@$$CBKPAVCMail@@@std@@@3@$0A@@std@@@std@@IAE?AViterator@12@_NPAU_Node@?$_Tree_nod@V?$_Tmap_traits@KPAVCMail@@U?$less@K@std@@V?$allocator@U?$pair@$$CBKPAVCMail@@@std@@@3@$0A@@std@@@2@ABU?$pair@$$CBKPAVCMail@@@2@@Z:
  00008	b8 00 00 00 00	 mov	 eax, OFFSET FLAT:$T209914
  0000d	e9 00 00 00 00	 jmp	 ___CxxFrameHandler
text$x	ENDS
?_Insert@?$_Tree@V?$_Tmap_traits@KPAVCMail@@U?$less@K@std@@V?$allocator@U?$pair@$$CBKPAVCMail@@@std@@@3@$0A@@std@@@std@@IAE?AViterator@12@_NPAU_Node@?$_Tree_nod@V?$_Tmap_traits@KPAVCMail@@U?$less@K@std@@V?$allocator@U?$pair@$$CBKPAVCMail@@@std@@@3@$0A@@std@@@2@ABU?$pair@$$CBKPAVCMail@@@2@@Z ENDP ; std::_Tree<std::_Tmap_traits<unsigned long,CMail *,std::less<unsigned long>,std::allocator<std::pair<unsigned long const ,CMail *> >,0> >::_Insert
;	COMDAT xdata$x
xdata$x	SEGMENT
$T210024 DD	0ffffffffH
	DD	FLAT:$L209924
$T210022 DD	019930520H
	DD	01H
	DD	FLAT:$T210024
	DD	2 DUP(00H)
	DD	2 DUP(00H)
; Function compile flags: /Ogty
xdata$x	ENDS
;	COMDAT ??0logic_error@std@@QAE@ABV01@@Z
_TEXT	SEGMENT
_this$ = -16						; size = 4
__$EHRec$ = -12						; size = 12
___that$ = 8						; size = 4
??0logic_error@std@@QAE@ABV01@@Z PROC NEAR		; std::logic_error::logic_error, COMDAT
; _this$ = ecx
  00000	6a ff		 push	 -1
  00002	68 00 00 00 00	 push	 __ehhandler$??0logic_error@std@@QAE@ABV01@@Z
  00007	64 a1 00 00 00
	00		 mov	 eax, DWORD PTR fs:__except_list
  0000d	50		 push	 eax
  0000e	64 89 25 00 00
	00 00		 mov	 DWORD PTR fs:__except_list, esp
  00015	51		 push	 ecx
  00016	56		 push	 esi
  00017	57		 push	 edi
  00018	8b 7c 24 1c	 mov	 edi, DWORD PTR ___that$[esp+20]
  0001c	8b f1		 mov	 esi, ecx
  0001e	57		 push	 edi
  0001f	89 74 24 0c	 mov	 DWORD PTR _this$[esp+28], esi
  00023	e8 00 00 00 00	 call	 ??0exception@@QAE@ABV0@@Z ; exception::exception
  00028	33 c0		 xor	 eax, eax
  0002a	6a ff		 push	 -1
  0002c	8d 4e 0c	 lea	 ecx, DWORD PTR [esi+12]
  0002f	c7 06 00 00 00
	00		 mov	 DWORD PTR [esi], OFFSET FLAT:??_7logic_error@std@@6B@
  00035	50		 push	 eax
  00036	83 c7 0c	 add	 edi, 12			; 0000000cH
  00039	c7 41 18 0f 00
	00 00		 mov	 DWORD PTR [ecx+24], 15	; 0000000fH
  00040	89 41 14	 mov	 DWORD PTR [ecx+20], eax
  00043	57		 push	 edi
  00044	89 44 24 20	 mov	 DWORD PTR __$EHRec$[esp+44], eax
  00048	88 41 04	 mov	 BYTE PTR [ecx+4], al
  0004b	e8 00 00 00 00	 call	 ?assign@?$basic_string@DU?$char_traits@D@std@@V?$allocator@D@2@@std@@QAEAAV12@ABV12@II@Z ; std::basic_string<char,std::char_traits<char>,std::allocator<char> >::assign
  00050	8b 4c 24 0c	 mov	 ecx, DWORD PTR __$EHRec$[esp+24]
  00054	5f		 pop	 edi
  00055	8b c6		 mov	 eax, esi
  00057	5e		 pop	 esi
  00058	64 89 0d 00 00
	00 00		 mov	 DWORD PTR fs:__except_list, ecx
  0005f	83 c4 10	 add	 esp, 16			; 00000010H
  00062	c2 04 00	 ret	 4
_TEXT	ENDS
;	COMDAT text$x
text$x	SEGMENT
$L209924:
  00000	8b 4d f0	 mov	 ecx, DWORD PTR _this$[ebp]
  00003	e9 00 00 00 00	 jmp	 ??1exception@@UAE@XZ	; exception::~exception
__ehhandler$??0logic_error@std@@QAE@ABV01@@Z:
  00008	b8 00 00 00 00	 mov	 eax, OFFSET FLAT:$T210022
  0000d	e9 00 00 00 00	 jmp	 ___CxxFrameHandler
text$x	ENDS
??0logic_error@std@@QAE@ABV01@@Z ENDP			; std::logic_error::logic_error
; Function compile flags: /Ogty
;	COMDAT ??0length_error@std@@QAE@ABV01@@Z
_TEXT	SEGMENT
___that$ = 8						; size = 4
??0length_error@std@@QAE@ABV01@@Z PROC NEAR		; std::length_error::length_error, COMDAT
; _this$ = ecx
  00000	8b 44 24 04	 mov	 eax, DWORD PTR ___that$[esp-4]
  00004	56		 push	 esi
  00005	50		 push	 eax
  00006	8b f1		 mov	 esi, ecx
  00008	e8 00 00 00 00	 call	 ??0logic_error@std@@QAE@ABV01@@Z
  0000d	c7 06 00 00 00
	00		 mov	 DWORD PTR [esi], OFFSET FLAT:??_7length_error@std@@6B@
  00013	8b c6		 mov	 eax, esi
  00015	5e		 pop	 esi
  00016	c2 04 00	 ret	 4
??0length_error@std@@QAE@ABV01@@Z ENDP			; std::length_error::length_error
_TEXT	ENDS
PUBLIC	?_Insert@?$_Tree@V?$_Tmap_traits@KPAVCMailBox@@U?$less@K@std@@V?$allocator@U?$pair@$$CBKPAVCMailBox@@@std@@@3@$0A@@std@@@std@@IAE?AViterator@12@_NPAU_Node@?$_Tree_nod@V?$_Tmap_traits@KPAVCMailBox@@U?$less@K@std@@V?$allocator@U?$pair@$$CBKPAVCMailBox@@@std@@@3@$0A@@std@@@2@ABU?$pair@$$CBKPAVCMailBox@@@2@@Z ; std::_Tree<std::_Tmap_traits<unsigned long,CMailBox *,std::less<unsigned long>,std::allocator<std::pair<unsigned long const ,CMailBox *> >,0> >::_Insert
;	COMDAT xdata$x
xdata$x	SEGMENT
$T210404 DD	0ffffffffH
	DD	FLAT:$L210034
$T210399 DD	019930520H
	DD	01H
	DD	FLAT:$T210404
	DD	2 DUP(00H)
	DD	2 DUP(00H)
; Function compile flags: /Ogty
xdata$x	ENDS
;	COMDAT ?_Insert@?$_Tree@V?$_Tmap_traits@KPAVCMailBox@@U?$less@K@std@@V?$allocator@U?$pair@$$CBKPAVCMailBox@@@std@@@3@$0A@@std@@@std@@IAE?AViterator@12@_NPAU_Node@?$_Tree_nod@V?$_Tmap_traits@KPAVCMailBox@@U?$less@K@std@@V?$allocator@U?$pair@$$CBKPAVCMailBox@@@std@@@3@$0A@@std@@@2@ABU?$pair@$$CBKPAVCMailBox@@@2@@Z
_TEXT	SEGMENT
$T210033 = -80						; size = 28
$T210032 = -52						; size = 40
__$EHRec$ = -12						; size = 12
___$ReturnUdt$ = 8					; size = 4
__Addleft$ = 12						; size = 1
__Wherenode$ = 16					; size = 4
__Newnode$ = 20						; size = 4
__Val$ = 20						; size = 4
?_Insert@?$_Tree@V?$_Tmap_traits@KPAVCMailBox@@U?$less@K@std@@V?$allocator@U?$pair@$$CBKPAVCMailBox@@@std@@@3@$0A@@std@@@std@@IAE?AViterator@12@_NPAU_Node@?$_Tree_nod@V?$_Tmap_traits@KPAVCMailBox@@U?$less@K@std@@V?$allocator@U?$pair@$$CBKPAVCMailBox@@@std@@@3@$0A@@std@@@2@ABU?$pair@$$CBKPAVCMailBox@@@2@@Z PROC NEAR ; std::_Tree<std::_Tmap_traits<unsigned long,CMailBox *,std::less<unsigned long>,std::allocator<std::pair<unsigned long const ,CMailBox *> >,0> >::_Insert, COMDAT
; _this$ = ecx

; 911  : 		{	// add node with value next to _Wherenode, to left if _Addnode

  00000	64 a1 00 00 00
	00		 mov	 eax, DWORD PTR fs:__except_list
  00006	6a ff		 push	 -1
  00008	68 00 00 00 00	 push	 __ehhandler$?_Insert@?$_Tree@V?$_Tmap_traits@KPAVCMailBox@@U?$less@K@std@@V?$allocator@U?$pair@$$CBKPAVCMailBox@@@std@@@3@$0A@@std@@@std@@IAE?AViterator@12@_NPAU_Node@?$_Tree_nod@V?$_Tmap_traits@KPAVCMailBox@@U?$less@K@std@@V?$allocator@U?$pair@$$CBKPAVCMailBox@@@std@@@3@$0A@@std@@@2@ABU?$pair@$$CBKPAVCMailBox@@@2@@Z
  0000d	50		 push	 eax
  0000e	64 89 25 00 00
	00 00		 mov	 DWORD PTR fs:__except_list, esp
  00015	83 ec 44	 sub	 esp, 68			; 00000044H
  00018	56		 push	 esi
  00019	57		 push	 edi
  0001a	8b f9		 mov	 edi, ecx

; 912  : 		if (max_size() - 1 <= _Mysize)

  0001c	81 7f 08 fe ff
	ff 1f		 cmp	 DWORD PTR [edi+8], 536870910 ; 1ffffffeH
  00023	72 4c		 jb	 SHORT $L200555

; 913  : 			_THROW(length_error, "map/set<T> too long");

  00025	6a 13		 push	 19			; 00000013H
  00027	33 f6		 xor	 esi, esi
  00029	68 00 00 00 00	 push	 OFFSET FLAT:??_C@_0BE@JONHPENG@map?1set?$DMT?$DO?5too?5long?$AA@
  0002e	8d 4c 24 10	 lea	 ecx, DWORD PTR $T210033[esp+96]
  00032	c7 44 24 28 0f
	00 00 00	 mov	 DWORD PTR $T210033[esp+120], 15 ; 0000000fH
  0003a	89 74 24 24	 mov	 DWORD PTR $T210033[esp+116], esi
  0003e	c6 44 24 14 00	 mov	 BYTE PTR $T210033[esp+100], 0
  00043	e8 00 00 00 00	 call	 ?assign@?$basic_string@DU?$char_traits@D@std@@V?$allocator@D@2@@std@@QAEAAV12@PBDI@Z ; std::basic_string<char,std::char_traits<char>,std::allocator<char> >::assign
  00048	8d 44 24 08	 lea	 eax, DWORD PTR $T210033[esp+88]
  0004c	50		 push	 eax
  0004d	8d 4c 24 28	 lea	 ecx, DWORD PTR $T210032[esp+92]
  00051	89 74 24 58	 mov	 DWORD PTR __$EHRec$[esp+100], esi
  00055	e8 00 00 00 00	 call	 ??0logic_error@std@@QAE@ABV?$basic_string@DU?$char_traits@D@std@@V?$allocator@D@2@@1@@Z ; std::logic_error::logic_error
  0005a	68 00 00 00 00	 push	 OFFSET FLAT:__TI3?AVlength_error@std@@
  0005f	8d 4c 24 28	 lea	 ecx, DWORD PTR $T210032[esp+92]
  00063	51		 push	 ecx
  00064	c7 44 24 2c 00
	00 00 00	 mov	 DWORD PTR $T210032[esp+96], OFFSET FLAT:??_7length_error@std@@6B@
  0006c	e8 00 00 00 00	 call	 __CxxThrowException@8
$L200555:

; 914  : 		_Nodeptr _Newnode = _Buynode(_Myhead, _Wherenode, _Myhead,
; 915  : 			_Val, _Red);

  00071	8b 54 24 68	 mov	 edx, DWORD PTR __Val$[esp+84]
  00075	8b 47 04	 mov	 eax, DWORD PTR [edi+4]
  00078	8b 74 24 64	 mov	 esi, DWORD PTR __Wherenode$[esp+84]
  0007c	53		 push	 ebx
  0007d	6a 00		 push	 0
  0007f	52		 push	 edx
  00080	50		 push	 eax
  00081	56		 push	 esi
  00082	50		 push	 eax
  00083	8b cf		 mov	 ecx, edi
  00085	e8 00 00 00 00	 call	 ?_Buynode@?$_Tree@V?$_Tmap_traits@KPAVCMailBox@@U?$less@K@std@@V?$allocator@U?$pair@$$CBKPAVCMailBox@@@std@@@3@$0A@@std@@@std@@IAEPAU_Node@?$_Tree_nod@V?$_Tmap_traits@KPAVCMailBox@@U?$less@K@std@@V?$allocator@U?$pair@$$CBKPAVCMailBox@@@std@@@3@$0A@@std@@@2@PAU342@00ABU?$pair@$$CBKPAVCMailBox@@@2@D@Z ; std::_Tree<std::_Tmap_traits<unsigned long,CMailBox *,std::less<unsigned long>,std::allocator<std::pair<unsigned long const ,CMailBox *> >,0> >::_Buynode

; 916  : 
; 917  : 		++_Mysize;

  0008a	8b 5f 08	 mov	 ebx, DWORD PTR [edi+8]
  0008d	8b c8		 mov	 ecx, eax

; 918  : 		if (_Wherenode == _Myhead)

  0008f	8b 47 04	 mov	 eax, DWORD PTR [edi+4]
  00092	43		 inc	 ebx
  00093	3b f0		 cmp	 esi, eax
  00095	89 4c 24 6c	 mov	 DWORD PTR __Newnode$[esp+88], ecx
  00099	89 5f 08	 mov	 DWORD PTR [edi+8], ebx
  0009c	75 10		 jne	 SHORT $L200560

; 919  : 			{	// first node in tree, just set head values
; 920  : 			_Root() = _Newnode;

  0009e	89 48 04	 mov	 DWORD PTR [eax+4], ecx

; 921  : 			_Lmost() = _Newnode, _Rmost() = _Newnode;

  000a1	8b 47 04	 mov	 eax, DWORD PTR [edi+4]
  000a4	89 08		 mov	 DWORD PTR [eax], ecx
  000a6	8b 57 04	 mov	 edx, DWORD PTR [edi+4]
  000a9	89 4a 08	 mov	 DWORD PTR [edx+8], ecx

; 922  : 			}
; 923  : 		else if (_Addleft)

  000ac	eb 23		 jmp	 SHORT $L200565
$L200560:
  000ae	8a 44 24 64	 mov	 al, BYTE PTR __Addleft$[esp+88]
  000b2	84 c0		 test	 al, al
  000b4	74 0d		 je	 SHORT $L200562

; 924  : 			{	// add to left of _Wherenode
; 925  : 			_Left(_Wherenode) = _Newnode;

  000b6	89 0e		 mov	 DWORD PTR [esi], ecx

; 926  : 			if (_Wherenode == _Lmost())

  000b8	8b 47 04	 mov	 eax, DWORD PTR [edi+4]
  000bb	3b 30		 cmp	 esi, DWORD PTR [eax]
  000bd	75 12		 jne	 SHORT $L200565

; 927  : 				_Lmost() = _Newnode;

  000bf	89 08		 mov	 DWORD PTR [eax], ecx

; 928  : 			}
; 929  : 		else

  000c1	eb 0e		 jmp	 SHORT $L200565
$L200562:

; 930  : 			{	// add to right of _Wherenode
; 931  : 			_Right(_Wherenode) = _Newnode;

  000c3	89 4e 08	 mov	 DWORD PTR [esi+8], ecx

; 932  : 			if (_Wherenode == _Rmost())

  000c6	8b 47 04	 mov	 eax, DWORD PTR [edi+4]
  000c9	3b 70 08	 cmp	 esi, DWORD PTR [eax+8]
  000cc	75 03		 jne	 SHORT $L200565

; 933  : 				_Rmost() = _Newnode;

  000ce	89 48 08	 mov	 DWORD PTR [eax+8], ecx
$L200565:

; 934  : 			}
; 935  : 
; 936  : 		for (_Nodeptr _Pnode = _Newnode; _Color(_Parent(_Pnode)) == _Red; )

  000d1	8b 51 04	 mov	 edx, DWORD PTR [ecx+4]
  000d4	80 7a 14 00	 cmp	 BYTE PTR [edx+20], 0
  000d8	8d 41 04	 lea	 eax, DWORD PTR [ecx+4]
  000db	8b f1		 mov	 esi, ecx
  000dd	b3 01		 mov	 bl, 1
  000df	0f 85 a5 00 00
	00		 jne	 $L200569
  000e5	55		 push	 ebp
$L200568:

; 937  : 			if (_Parent(_Pnode) == _Left(_Parent(_Parent(_Pnode))))

  000e6	8b 08		 mov	 ecx, DWORD PTR [eax]
  000e8	8b 69 04	 mov	 ebp, DWORD PTR [ecx+4]
  000eb	8b 55 00	 mov	 edx, DWORD PTR [ebp]
  000ee	3b ca		 cmp	 ecx, edx
  000f0	75 50		 jne	 SHORT $L200570

; 938  : 				{	// fixup red-red in left subtree
; 939  : 				_Wherenode = _Right(_Parent(_Parent(_Pnode)));

  000f2	8b 55 08	 mov	 edx, DWORD PTR [ebp+8]

; 940  : 				if (_Color(_Wherenode) == _Red)

  000f5	80 7a 14 00	 cmp	 BYTE PTR [edx+20], 0
  000f9	75 18		 jne	 SHORT $L200571
$L210403:

; 941  : 					{	// parent has two red children, blacken both
; 942  : 					_Color(_Parent(_Pnode)) = _Black;

  000fb	8b 08		 mov	 ecx, DWORD PTR [eax]
  000fd	88 59 14	 mov	 BYTE PTR [ecx+20], bl

; 943  : 					_Color(_Wherenode) = _Black;

  00100	88 5a 14	 mov	 BYTE PTR [edx+20], bl

; 944  : 					_Color(_Parent(_Parent(_Pnode))) = _Red;

  00103	8b 10		 mov	 edx, DWORD PTR [eax]
  00105	8b 4a 04	 mov	 ecx, DWORD PTR [edx+4]
  00108	c6 41 14 00	 mov	 BYTE PTR [ecx+20], 0

; 945  : 					_Pnode = _Parent(_Parent(_Pnode));

  0010c	8b 10		 mov	 edx, DWORD PTR [eax]
  0010e	8b 72 04	 mov	 esi, DWORD PTR [edx+4]

; 946  : 					}
; 947  : 				else

  00111	eb 61		 jmp	 SHORT $L200576
$L200571:

; 948  : 					{	// parent has red and black children
; 949  : 					if (_Pnode == _Right(_Parent(_Pnode)))

  00113	3b 71 08	 cmp	 esi, DWORD PTR [ecx+8]
  00116	75 0a		 jne	 SHORT $L200573

; 950  : 						{	// rotate right child to left
; 951  : 						_Pnode = _Parent(_Pnode);

  00118	8b f1		 mov	 esi, ecx

; 952  : 						_Lrotate(_Pnode);

  0011a	56		 push	 esi
  0011b	8b cf		 mov	 ecx, edi
  0011d	e8 00 00 00 00	 call	 ?_Lrotate@?$_Tree@V?$_Tmap_traits@KPAVCMailBox@@U?$less@K@std@@V?$allocator@U?$pair@$$CBKPAVCMailBox@@@std@@@3@$0A@@std@@@std@@IAEXPAU_Node@?$_Tree_nod@V?$_Tmap_traits@KPAVCMailBox@@U?$less@K@std@@V?$allocator@U?$pair@$$CBKPAVCMailBox@@@std@@@3@$0A@@std@@@2@@Z ; std::_Tree<std::_Tmap_traits<unsigned long,CMailBox *,std::less<unsigned long>,std::allocator<std::pair<unsigned long const ,CMailBox *> >,0> >::_Lrotate
$L200573:

; 953  : 						}
; 954  : 					_Color(_Parent(_Pnode)) = _Black;	// propagate red up

  00122	8b 46 04	 mov	 eax, DWORD PTR [esi+4]
  00125	88 58 14	 mov	 BYTE PTR [eax+20], bl

; 955  : 					_Color(_Parent(_Parent(_Pnode))) = _Red;

  00128	8b 4e 04	 mov	 ecx, DWORD PTR [esi+4]
  0012b	8b 51 04	 mov	 edx, DWORD PTR [ecx+4]
  0012e	c6 42 14 00	 mov	 BYTE PTR [edx+20], 0

; 956  : 					_Rrotate(_Parent(_Parent(_Pnode)));

  00132	8b 46 04	 mov	 eax, DWORD PTR [esi+4]
  00135	8b 48 04	 mov	 ecx, DWORD PTR [eax+4]
  00138	51		 push	 ecx
  00139	8b cf		 mov	 ecx, edi
  0013b	e8 00 00 00 00	 call	 ?_Rrotate@?$_Tree@V?$_Tmap_traits@KPAVCMailBox@@U?$less@K@std@@V?$allocator@U?$pair@$$CBKPAVCMailBox@@@std@@@3@$0A@@std@@@std@@IAEXPAU_Node@?$_Tree_nod@V?$_Tmap_traits@KPAVCMailBox@@U?$less@K@std@@V?$allocator@U?$pair@$$CBKPAVCMailBox@@@std@@@3@$0A@@std@@@2@@Z ; std::_Tree<std::_Tmap_traits<unsigned long,CMailBox *,std::less<unsigned long>,std::allocator<std::pair<unsigned long const ,CMailBox *> >,0> >::_Rrotate

; 957  : 					}
; 958  : 				}
; 959  : 			else

  00140	eb 32		 jmp	 SHORT $L200576
$L200570:

; 960  : 				{	// fixup red-red in right subtree
; 961  : 				_Wherenode = _Left(_Parent(_Parent(_Pnode)));
; 962  : 				if (_Color(_Wherenode) == _Red)

  00142	80 7a 14 00	 cmp	 BYTE PTR [edx+20], 0

; 963  : 					{	// parent has two red children, blacken both
; 964  : 					_Color(_Parent(_Pnode)) = _Black;
; 965  : 					_Color(_Wherenode) = _Black;
; 966  : 					_Color(_Parent(_Parent(_Pnode))) = _Red;
; 967  : 					_Pnode = _Parent(_Parent(_Pnode));
; 968  : 					}
; 969  : 				else

  00146	74 b3		 je	 SHORT $L210403

; 970  : 					{	// parent has red and black children
; 971  : 					if (_Pnode == _Left(_Parent(_Pnode)))

  00148	3b 31		 cmp	 esi, DWORD PTR [ecx]
  0014a	75 0a		 jne	 SHORT $L200577

; 972  : 						{	// rotate left child to right
; 973  : 						_Pnode = _Parent(_Pnode);

  0014c	8b f1		 mov	 esi, ecx

; 974  : 						_Rrotate(_Pnode);

  0014e	56		 push	 esi
  0014f	8b cf		 mov	 ecx, edi
  00151	e8 00 00 00 00	 call	 ?_Rrotate@?$_Tree@V?$_Tmap_traits@KPAVCMailBox@@U?$less@K@std@@V?$allocator@U?$pair@$$CBKPAVCMailBox@@@std@@@3@$0A@@std@@@std@@IAEXPAU_Node@?$_Tree_nod@V?$_Tmap_traits@KPAVCMailBox@@U?$less@K@std@@V?$allocator@U?$pair@$$CBKPAVCMailBox@@@std@@@3@$0A@@std@@@2@@Z ; std::_Tree<std::_Tmap_traits<unsigned long,CMailBox *,std::less<unsigned long>,std::allocator<std::pair<unsigned long const ,CMailBox *> >,0> >::_Rrotate
$L200577:

; 975  : 						}
; 976  : 					_Color(_Parent(_Pnode)) = _Black;	// propagate red up

  00156	8b 46 04	 mov	 eax, DWORD PTR [esi+4]
  00159	88 58 14	 mov	 BYTE PTR [eax+20], bl

; 977  : 					_Color(_Parent(_Parent(_Pnode))) = _Red;

  0015c	8b 4e 04	 mov	 ecx, DWORD PTR [esi+4]
  0015f	8b 51 04	 mov	 edx, DWORD PTR [ecx+4]
  00162	c6 42 14 00	 mov	 BYTE PTR [edx+20], 0

; 978  : 					_Lrotate(_Parent(_Parent(_Pnode)));

  00166	8b 46 04	 mov	 eax, DWORD PTR [esi+4]
  00169	8b 48 04	 mov	 ecx, DWORD PTR [eax+4]
  0016c	51		 push	 ecx
  0016d	8b cf		 mov	 ecx, edi
  0016f	e8 00 00 00 00	 call	 ?_Lrotate@?$_Tree@V?$_Tmap_traits@KPAVCMailBox@@U?$less@K@std@@V?$allocator@U?$pair@$$CBKPAVCMailBox@@@std@@@3@$0A@@std@@@std@@IAEXPAU_Node@?$_Tree_nod@V?$_Tmap_traits@KPAVCMailBox@@U?$less@K@std@@V?$allocator@U?$pair@$$CBKPAVCMailBox@@@std@@@3@$0A@@std@@@2@@Z ; std::_Tree<std::_Tmap_traits<unsigned long,CMailBox *,std::less<unsigned long>,std::allocator<std::pair<unsigned long const ,CMailBox *> >,0> >::_Lrotate
$L200576:
  00174	8b 56 04	 mov	 edx, DWORD PTR [esi+4]
  00177	8a 4a 14	 mov	 cl, BYTE PTR [edx+20]
  0017a	84 c9		 test	 cl, cl
  0017c	8d 46 04	 lea	 eax, DWORD PTR [esi+4]
  0017f	0f 84 61 ff ff
	ff		 je	 $L200568
  00185	8b 4c 24 70	 mov	 ecx, DWORD PTR __Newnode$[esp+92]
  00189	5d		 pop	 ebp
$L200569:

; 979  : 					}
; 980  : 				}
; 981  : 
; 982  : 		_Color(_Root()) = _Black;	// root is always black

  0018a	8b 47 04	 mov	 eax, DWORD PTR [edi+4]
  0018d	8b 50 04	 mov	 edx, DWORD PTR [eax+4]

; 983  : 		return (_TREE_ITERATOR(_Newnode));

  00190	8b 44 24 60	 mov	 eax, DWORD PTR ___$ReturnUdt$[esp+88]
  00194	88 5a 14	 mov	 BYTE PTR [edx+20], bl
  00197	5b		 pop	 ebx
  00198	89 08		 mov	 DWORD PTR [eax], ecx

; 984  : 		}

  0019a	8b 4c 24 4c	 mov	 ecx, DWORD PTR __$EHRec$[esp+88]
  0019e	5f		 pop	 edi
  0019f	5e		 pop	 esi
  001a0	64 89 0d 00 00
	00 00		 mov	 DWORD PTR fs:__except_list, ecx
  001a7	83 c4 50	 add	 esp, 80			; 00000050H
  001aa	c2 10 00	 ret	 16			; 00000010H
$L210402:
_TEXT	ENDS
;	COMDAT text$x
text$x	SEGMENT
$L210034:
  00000	8d 4d b0	 lea	 ecx, DWORD PTR $T210033[ebp]
  00003	e9 00 00 00 00	 jmp	 ??1?$basic_string@DU?$char_traits@D@std@@V?$allocator@D@2@@std@@QAE@XZ ; std::basic_string<char,std::char_traits<char>,std::allocator<char> >::~basic_string<char,std::char_traits<char>,std::allocator<char> >
__ehhandler$?_Insert@?$_Tree@V?$_Tmap_traits@KPAVCMailBox@@U?$less@K@std@@V?$allocator@U?$pair@$$CBKPAVCMailBox@@@std@@@3@$0A@@std@@@std@@IAE?AViterator@12@_NPAU_Node@?$_Tree_nod@V?$_Tmap_traits@KPAVCMailBox@@U?$less@K@std@@V?$allocator@U?$pair@$$CBKPAVCMailBox@@@std@@@3@$0A@@std@@@2@ABU?$pair@$$CBKPAVCMailBox@@@2@@Z:
  00008	b8 00 00 00 00	 mov	 eax, OFFSET FLAT:$T210399
  0000d	e9 00 00 00 00	 jmp	 ___CxxFrameHandler
text$x	ENDS
?_Insert@?$_Tree@V?$_Tmap_traits@KPAVCMailBox@@U?$less@K@std@@V?$allocator@U?$pair@$$CBKPAVCMailBox@@@std@@@3@$0A@@std@@@std@@IAE?AViterator@12@_NPAU_Node@?$_Tree_nod@V?$_Tmap_traits@KPAVCMailBox@@U?$less@K@std@@V?$allocator@U?$pair@$$CBKPAVCMailBox@@@std@@@3@$0A@@std@@@2@ABU?$pair@$$CBKPAVCMailBox@@@2@@Z ENDP ; std::_Tree<std::_Tmap_traits<unsigned long,CMailBox *,std::less<unsigned long>,std::allocator<std::pair<unsigned long const ,CMailBox *> >,0> >::_Insert
PUBLIC	?_Xlen@?$vector@PAVCMail@@V?$allocator@PAVCMail@@@std@@@std@@IBEXXZ ; std::vector<CMail *,std::allocator<CMail *> >::_Xlen
PUBLIC	??_C@_0BD@OLBABOEK@vector?$DMT?$DO?5too?5long?$AA@ ; `string'
;	COMDAT xdata$x
; File c:\program files\microsoft visual studio .net 2003\vc7\include\stdexcept
xdata$x	SEGMENT
$T210526 DD	0ffffffffH
	DD	FLAT:$L210411
$T210523 DD	019930520H
	DD	01H
	DD	FLAT:$T210526
	DD	2 DUP(00H)
	DD	2 DUP(00H)
xdata$x	ENDS
;	COMDAT ??_C@_0BD@OLBABOEK@vector?$DMT?$DO?5too?5long?$AA@
CONST	SEGMENT
??_C@_0BD@OLBABOEK@vector?$DMT?$DO?5too?5long?$AA@ DB 'vector<T> too long'
	DB	00H						; `string'
; Function compile flags: /Ogty
; File c:\program files\microsoft visual studio .net 2003\vc7\include\vector
CONST	ENDS
;	COMDAT ?_Xlen@?$vector@PAVCMail@@V?$allocator@PAVCMail@@@std@@@std@@IBEXXZ
_TEXT	SEGMENT
$T210410 = -80						; size = 28
$T210409 = -52						; size = 40
__$EHRec$ = -12						; size = 12
?_Xlen@?$vector@PAVCMail@@V?$allocator@PAVCMail@@@std@@@std@@IBEXXZ PROC NEAR ; std::vector<CMail *,std::allocator<CMail *> >::_Xlen, COMDAT
; _this$ = ecx

; 883  : 		{	// report a length_error

  00000	6a ff		 push	 -1
  00002	68 00 00 00 00	 push	 __ehhandler$?_Xlen@?$vector@PAVCMail@@V?$allocator@PAVCMail@@@std@@@std@@IBEXXZ
  00007	64 a1 00 00 00
	00		 mov	 eax, DWORD PTR fs:__except_list
  0000d	50		 push	 eax
  0000e	64 89 25 00 00
	00 00		 mov	 DWORD PTR fs:__except_list, esp
  00015	83 ec 44	 sub	 esp, 68			; 00000044H

; 884  : 		_THROW(length_error, "vector<T> too long");

  00018	6a 12		 push	 18			; 00000012H
  0001a	68 00 00 00 00	 push	 OFFSET FLAT:??_C@_0BD@OLBABOEK@vector?$DMT?$DO?5too?5long?$AA@
  0001f	8d 4c 24 08	 lea	 ecx, DWORD PTR $T210410[esp+88]
  00023	c7 44 24 20 0f
	00 00 00	 mov	 DWORD PTR $T210410[esp+112], 15 ; 0000000fH
  0002b	c7 44 24 1c 00
	00 00 00	 mov	 DWORD PTR $T210410[esp+108], 0
  00033	c6 44 24 0c 00	 mov	 BYTE PTR $T210410[esp+92], 0
  00038	e8 00 00 00 00	 call	 ?assign@?$basic_string@DU?$char_traits@D@std@@V?$allocator@D@2@@std@@QAEAAV12@PBDI@Z ; std::basic_string<char,std::char_traits<char>,std::allocator<char> >::assign
  0003d	8d 04 24	 lea	 eax, DWORD PTR $T210410[esp+80]
  00040	50		 push	 eax
  00041	8d 4c 24 20	 lea	 ecx, DWORD PTR $T210409[esp+84]
  00045	c7 44 24 50 00
	00 00 00	 mov	 DWORD PTR __$EHRec$[esp+92], 0
  0004d	e8 00 00 00 00	 call	 ??0logic_error@std@@QAE@ABV?$basic_string@DU?$char_traits@D@std@@V?$allocator@D@2@@1@@Z ; std::logic_error::logic_error
  00052	68 00 00 00 00	 push	 OFFSET FLAT:__TI3?AVlength_error@std@@
  00057	8d 4c 24 20	 lea	 ecx, DWORD PTR $T210409[esp+84]
  0005b	51		 push	 ecx
  0005c	c7 44 24 24 00
	00 00 00	 mov	 DWORD PTR $T210409[esp+88], OFFSET FLAT:??_7length_error@std@@6B@
  00064	e8 00 00 00 00	 call	 __CxxThrowException@8
$L210525:
  00069	cc		 int	 3
_TEXT	ENDS
;	COMDAT text$x
text$x	SEGMENT
$L210411:
  00000	8d 4d b0	 lea	 ecx, DWORD PTR $T210410[ebp]
  00003	e9 00 00 00 00	 jmp	 ??1?$basic_string@DU?$char_traits@D@std@@V?$allocator@D@2@@std@@QAE@XZ ; std::basic_string<char,std::char_traits<char>,std::allocator<char> >::~basic_string<char,std::char_traits<char>,std::allocator<char> >
__ehhandler$?_Xlen@?$vector@PAVCMail@@V?$allocator@PAVCMail@@@std@@@std@@IBEXXZ:
  00008	b8 00 00 00 00	 mov	 eax, OFFSET FLAT:$T210523
  0000d	e9 00 00 00 00	 jmp	 ___CxxFrameHandler
text$x	ENDS
?_Xlen@?$vector@PAVCMail@@V?$allocator@PAVCMail@@@std@@@std@@IBEXXZ ENDP ; std::vector<CMail *,std::allocator<CMail *> >::_Xlen
PUBLIC	??_C@_0BM@PAPJHAGI@invalid?5map?1set?$DMT?$DO?5iterator?$AA@ ; `string'
PUBLIC	?erase@?$_Tree@V?$_Tmap_traits@KPAVCMail@@U?$less@K@std@@V?$allocator@U?$pair@$$CBKPAVCMail@@@std@@@3@$0A@@std@@@std@@QAE?AViterator@12@V312@@Z ; std::_Tree<std::_Tmap_traits<unsigned long,CMail *,std::less<unsigned long>,std::allocator<std::pair<unsigned long const ,CMail *> >,0> >::erase
PUBLIC	__TI3?AVout_of_range@std@@
PUBLIC	__CTA3?AVout_of_range@std@@
PUBLIC	??_R0?AVout_of_range@std@@@8			; std::out_of_range `RTTI Type Descriptor'
PUBLIC	__CT??_R0?AVout_of_range@std@@@8??0out_of_range@std@@QAE@ABV01@@Z40
PUBLIC	??0out_of_range@std@@QAE@ABV01@@Z		; std::out_of_range::out_of_range
;	COMDAT xdata$x
; File c:\program files\microsoft visual studio .net 2003\vc7\include\xmemory
xdata$x	SEGMENT
$T211023 DD	0ffffffffH
	DD	FLAT:$L210537
$T211015 DD	019930520H
	DD	01H
	DD	FLAT:$T211023
	DD	2 DUP(00H)
	DD	2 DUP(00H)
xdata$x	ENDS
;	COMDAT ??_C@_0BM@PAPJHAGI@invalid?5map?1set?$DMT?$DO?5iterator?$AA@
CONST	SEGMENT
??_C@_0BM@PAPJHAGI@invalid?5map?1set?$DMT?$DO?5iterator?$AA@ DB 'invalid '
	DB	'map/set<T> iterator', 00H			; `string'
CONST	ENDS
;	COMDAT __TI3?AVout_of_range@std@@
xdata$x	SEGMENT
__TI3?AVout_of_range@std@@ DD 00H
	DD	FLAT:??1out_of_range@std@@UAE@XZ
	DD	00H
	DD	FLAT:__CTA3?AVout_of_range@std@@
xdata$x	ENDS
;	COMDAT __CTA3?AVout_of_range@std@@
xdata$x	SEGMENT
__CTA3?AVout_of_range@std@@ DD 03H
	DD	FLAT:__CT??_R0?AVout_of_range@std@@@8??0out_of_range@std@@QAE@ABV01@@Z40
	DD	FLAT:__CT??_R0?AVlogic_error@std@@@8??0logic_error@std@@QAE@ABV01@@Z40
	DD	FLAT:__CT??_R0?AVexception@@@8??0exception@@QAE@ABV0@@Z12
xdata$x	ENDS
;	COMDAT __CT??_R0?AVout_of_range@std@@@8??0out_of_range@std@@QAE@ABV01@@Z40
xdata$x	SEGMENT
__CT??_R0?AVout_of_range@std@@@8??0out_of_range@std@@QAE@ABV01@@Z40 DD 00H
	DD	FLAT:??_R0?AVout_of_range@std@@@8
	DD	00H
	DD	0ffffffffH
	ORG $+4
	DD	028H
	DD	FLAT:??0out_of_range@std@@QAE@ABV01@@Z
xdata$x	ENDS
;	COMDAT ??_R0?AVout_of_range@std@@@8
_DATA	SEGMENT
??_R0?AVout_of_range@std@@@8 DD FLAT:??_7type_info@@6B@	; std::out_of_range `RTTI Type Descriptor'
	DD	00H
	DB	'.?AVout_of_range@std@@', 00H
; Function compile flags: /Ogty
; File c:\program files\microsoft visual studio .net 2003\vc7\include\xtree
_DATA	ENDS
;	COMDAT ?erase@?$_Tree@V?$_Tmap_traits@KPAVCMail@@U?$less@K@std@@V?$allocator@U?$pair@$$CBKPAVCMail@@@std@@@3@$0A@@std@@@std@@QAE?AViterator@12@V312@@Z
_TEXT	SEGMENT
__Erasednode$ = -84					; size = 4
$T210532 = -80						; size = 28
$T210531 = -52						; size = 40
__$EHRec$ = -12						; size = 12
___$ReturnUdt$ = 8					; size = 4
__Where$ = 12						; size = 4
?erase@?$_Tree@V?$_Tmap_traits@KPAVCMail@@U?$less@K@std@@V?$allocator@U?$pair@$$CBKPAVCMail@@@std@@@3@$0A@@std@@@std@@QAE?AViterator@12@V312@@Z PROC NEAR ; std::_Tree<std::_Tmap_traits<unsigned long,CMail *,std::less<unsigned long>,std::allocator<std::pair<unsigned long const ,CMail *> >,0> >::erase, COMDAT
; _this$ = ecx

; 590  : 		{	// erase element at _Where

  00000	64 a1 00 00 00
	00		 mov	 eax, DWORD PTR fs:__except_list
  00006	6a ff		 push	 -1
  00008	68 00 00 00 00	 push	 __ehhandler$?erase@?$_Tree@V?$_Tmap_traits@KPAVCMail@@U?$less@K@std@@V?$allocator@U?$pair@$$CBKPAVCMail@@@std@@@3@$0A@@std@@@std@@QAE?AViterator@12@V312@@Z
  0000d	50		 push	 eax

; 591  : 		if (_Isnil(_Where._Mynode()))

  0000e	8b 44 24 14	 mov	 eax, DWORD PTR __Where$[esp+8]
  00012	64 89 25 00 00
	00 00		 mov	 DWORD PTR fs:__except_list, esp
  00019	83 ec 48	 sub	 esp, 72			; 00000048H
  0001c	55		 push	 ebp
  0001d	8b e9		 mov	 ebp, ecx
  0001f	8a 48 15	 mov	 cl, BYTE PTR [eax+21]
  00022	84 c9		 test	 cl, cl
  00024	56		 push	 esi
  00025	74 4c		 je	 SHORT $L200796

; 592  : 			_THROW(out_of_range, "invalid map/set<T> iterator");

  00027	6a 1b		 push	 27			; 0000001bH
  00029	33 f6		 xor	 esi, esi
  0002b	68 00 00 00 00	 push	 OFFSET FLAT:??_C@_0BM@PAPJHAGI@invalid?5map?1set?$DMT?$DO?5iterator?$AA@
  00030	8d 4c 24 14	 lea	 ecx, DWORD PTR $T210532[esp+100]
  00034	c7 44 24 2c 0f
	00 00 00	 mov	 DWORD PTR $T210532[esp+124], 15 ; 0000000fH
  0003c	89 74 24 28	 mov	 DWORD PTR $T210532[esp+120], esi
  00040	c6 44 24 18 00	 mov	 BYTE PTR $T210532[esp+104], 0
  00045	e8 00 00 00 00	 call	 ?assign@?$basic_string@DU?$char_traits@D@std@@V?$allocator@D@2@@std@@QAEAAV12@PBDI@Z ; std::basic_string<char,std::char_traits<char>,std::allocator<char> >::assign
  0004a	8d 44 24 0c	 lea	 eax, DWORD PTR $T210532[esp+92]
  0004e	50		 push	 eax
  0004f	8d 4c 24 2c	 lea	 ecx, DWORD PTR $T210531[esp+96]
  00053	89 74 24 5c	 mov	 DWORD PTR __$EHRec$[esp+104], esi
  00057	e8 00 00 00 00	 call	 ??0logic_error@std@@QAE@ABV?$basic_string@DU?$char_traits@D@std@@V?$allocator@D@2@@1@@Z ; std::logic_error::logic_error
  0005c	68 00 00 00 00	 push	 OFFSET FLAT:__TI3?AVout_of_range@std@@
  00061	8d 4c 24 2c	 lea	 ecx, DWORD PTR $T210531[esp+96]
  00065	51		 push	 ecx
  00066	c7 44 24 30 00
	00 00 00	 mov	 DWORD PTR $T210531[esp+100], OFFSET FLAT:??_7out_of_range@std@@6B@
  0006e	e8 00 00 00 00	 call	 __CxxThrowException@8
$L200796:
  00073	53		 push	 ebx

; 593  : 		_Nodeptr _Erasednode = _Where._Mynode();	// node to erase

  00074	8b d8		 mov	 ebx, eax
  00076	57		 push	 edi

; 594  : 		++_Where;	// save successor iterator for return

  00077	8d 4c 24 6c	 lea	 ecx, DWORD PTR __Where$[esp+96]
  0007b	89 5c 24 10	 mov	 DWORD PTR __Erasednode$[esp+100], ebx
  0007f	e8 00 00 00 00	 call	 ?_Inc@const_iterator@?$_Tree@V?$_Tmap_traits@KPAVCMail@@U?$less@K@std@@V?$allocator@U?$pair@$$CBKPAVCMail@@@std@@@3@$0A@@std@@@std@@QAEXXZ ; std::_Tree<std::_Tmap_traits<unsigned long,CMail *,std::less<unsigned long>,std::allocator<std::pair<unsigned long const ,CMail *> >,0> >::const_iterator::_Inc

; 595  : 
; 596  : 		_Nodeptr _Fixnode;	// the node to recolor as needed
; 597  : 		_Nodeptr _Fixnodeparent;	// parent of _Fixnode (which may be nil)
; 598  : 		_Nodeptr _Pnode = _Erasednode;
; 599  : 
; 600  : 		if (_Isnil(_Left(_Pnode)))

  00084	8b 03		 mov	 eax, DWORD PTR [ebx]
  00086	8a 48 15	 mov	 cl, BYTE PTR [eax+21]
  00089	84 c9		 test	 cl, cl
  0008b	74 05		 je	 SHORT $L200804

; 601  : 			_Fixnode = _Right(_Pnode);	// must stitch up right subtree

  0008d	8b 7b 08	 mov	 edi, DWORD PTR [ebx+8]

; 602  : 		else if (_Isnil(_Right(_Pnode)))

  00090	eb 19		 jmp	 SHORT $L211018
$L200804:
  00092	8b 53 08	 mov	 edx, DWORD PTR [ebx+8]
  00095	8a 4a 15	 mov	 cl, BYTE PTR [edx+21]
  00098	84 c9		 test	 cl, cl
  0009a	74 04		 je	 SHORT $L200806

; 603  : 			_Fixnode = _Left(_Pnode);	// must stitch up left subtree

  0009c	8b f8		 mov	 edi, eax

; 604  : 		else

  0009e	eb 0b		 jmp	 SHORT $L211018
$L200806:

; 605  : 			{	// two subtrees, must lift successor node to replace erased
; 606  : 			_Pnode = _Where._Mynode();	// _Pnode is successor node
; 607  : 			_Fixnode = _Right(_Pnode);	// _Fixnode is its only subtree

  000a0	8b 4c 24 6c	 mov	 ecx, DWORD PTR __Where$[esp+96]

; 608  : 			}
; 609  : 
; 610  : 		if (_Pnode == _Erasednode)

  000a4	3b cb		 cmp	 ecx, ebx
  000a6	8b 79 08	 mov	 edi, DWORD PTR [ecx+8]
  000a9	75 6e		 jne	 SHORT $L200808
$L211018:

; 611  : 			{	// at most one subtree, relink it
; 612  : 			_Fixnodeparent = _Parent(_Erasednode);
; 613  : 			if (!_Isnil(_Fixnode))

  000ab	8a 47 15	 mov	 al, BYTE PTR [edi+21]
  000ae	84 c0		 test	 al, al
  000b0	8b 73 04	 mov	 esi, DWORD PTR [ebx+4]
  000b3	75 03		 jne	 SHORT $L200809

; 614  : 				_Parent(_Fixnode) = _Fixnodeparent;	// link up

  000b5	89 77 04	 mov	 DWORD PTR [edi+4], esi
$L200809:

; 615  : 
; 616  : 			if (_Root() == _Erasednode)

  000b8	8b 45 04	 mov	 eax, DWORD PTR [ebp+4]
  000bb	39 58 04	 cmp	 DWORD PTR [eax+4], ebx
  000be	75 05		 jne	 SHORT $L200810

; 617  : 				_Root() = _Fixnode;	// link down from root

  000c0	89 78 04	 mov	 DWORD PTR [eax+4], edi

; 618  : 			else if (_Left(_Fixnodeparent) == _Erasednode)

  000c3	eb 0b		 jmp	 SHORT $L200813
$L200810:
  000c5	39 1e		 cmp	 DWORD PTR [esi], ebx
  000c7	75 04		 jne	 SHORT $L200812

; 619  : 				_Left(_Fixnodeparent) = _Fixnode;	// link down to left

  000c9	89 3e		 mov	 DWORD PTR [esi], edi

; 620  : 			else

  000cb	eb 03		 jmp	 SHORT $L200813
$L200812:

; 621  : 				_Right(_Fixnodeparent) = _Fixnode;	// link down to right

  000cd	89 7e 08	 mov	 DWORD PTR [esi+8], edi
$L200813:

; 622  : 
; 623  : 			if (_Lmost() == _Erasednode)

  000d0	8b 5d 04	 mov	 ebx, DWORD PTR [ebp+4]
  000d3	8b 03		 mov	 eax, DWORD PTR [ebx]
  000d5	3b 44 24 10	 cmp	 eax, DWORD PTR __Erasednode$[esp+100]
  000d9	75 16		 jne	 SHORT $L200814

; 624  : 				_Lmost() = _Isnil(_Fixnode)
; 625  : 					? _Fixnodeparent	// smallest is parent of erased node
; 626  : 					: _Min(_Fixnode);	// smallest in relinked subtree

  000db	8a 47 15	 mov	 al, BYTE PTR [edi+21]
  000de	84 c0		 test	 al, al
  000e0	74 04		 je	 SHORT $L210533
  000e2	8b c6		 mov	 eax, esi
  000e4	eb 09		 jmp	 SHORT $L210534
$L210533:
  000e6	57		 push	 edi
  000e7	e8 00 00 00 00	 call	 ?_Min@?$_Tree@V?$_Tmap_traits@KPAVCMail@@U?$less@K@std@@V?$allocator@U?$pair@$$CBKPAVCMail@@@std@@@3@$0A@@std@@@std@@KAPAU_Node@?$_Tree_nod@V?$_Tmap_traits@KPAVCMail@@U?$less@K@std@@V?$allocator@U?$pair@$$CBKPAVCMail@@@std@@@3@$0A@@std@@@2@PAU342@@Z ; std::_Tree<std::_Tmap_traits<unsigned long,CMail *,std::less<unsigned long>,std::allocator<std::pair<unsigned long const ,CMail *> >,0> >::_Min
  000ec	83 c4 04	 add	 esp, 4
$L210534:
  000ef	89 03		 mov	 DWORD PTR [ebx], eax
$L200814:

; 627  : 
; 628  : 			if (_Rmost() == _Erasednode)

  000f1	8b 5d 04	 mov	 ebx, DWORD PTR [ebp+4]
  000f4	8b 4c 24 10	 mov	 ecx, DWORD PTR __Erasednode$[esp+100]
  000f8	39 4b 08	 cmp	 DWORD PTR [ebx+8], ecx
  000fb	75 74		 jne	 SHORT $L210851

; 629  : 				_Rmost() = _Isnil(_Fixnode)
; 630  : 					? _Fixnodeparent	// largest is parent of erased node
; 631  : 					: _Max(_Fixnode);	// largest in relinked subtree

  000fd	8a 47 15	 mov	 al, BYTE PTR [edi+21]
  00100	84 c0		 test	 al, al
  00102	74 07		 je	 SHORT $L210535
  00104	8b c6		 mov	 eax, esi
  00106	89 43 08	 mov	 DWORD PTR [ebx+8], eax

; 632  : 			}
; 633  : 		else

  00109	eb 66		 jmp	 SHORT $L210851
$L210535:

; 629  : 				_Rmost() = _Isnil(_Fixnode)
; 630  : 					? _Fixnodeparent	// largest is parent of erased node
; 631  : 					: _Max(_Fixnode);	// largest in relinked subtree

  0010b	57		 push	 edi
  0010c	e8 00 00 00 00	 call	 ?_Max@?$_Tree@V?$_Tmap_traits@KPAVCMail@@U?$less@K@std@@V?$allocator@U?$pair@$$CBKPAVCMail@@@std@@@3@$0A@@std@@@std@@KAPAU_Node@?$_Tree_nod@V?$_Tmap_traits@KPAVCMail@@U?$less@K@std@@V?$allocator@U?$pair@$$CBKPAVCMail@@@std@@@3@$0A@@std@@@2@PAU342@@Z ; std::_Tree<std::_Tmap_traits<unsigned long,CMail *,std::less<unsigned long>,std::allocator<std::pair<unsigned long const ,CMail *> >,0> >::_Max
  00111	83 c4 04	 add	 esp, 4
  00114	89 43 08	 mov	 DWORD PTR [ebx+8], eax

; 632  : 			}
; 633  : 		else

  00117	eb 58		 jmp	 SHORT $L210851
$L200808:

; 634  : 			{	// erased has two subtrees, _Pnode is successor to erased
; 635  : 			_Parent(_Left(_Erasednode)) = _Pnode;	// link left up

  00119	89 48 04	 mov	 DWORD PTR [eax+4], ecx

; 636  : 			_Left(_Pnode) = _Left(_Erasednode);	// link successor down

  0011c	8b 13		 mov	 edx, DWORD PTR [ebx]
  0011e	89 11		 mov	 DWORD PTR [ecx], edx

; 637  : 
; 638  : 			if (_Pnode == _Right(_Erasednode))

  00120	3b 4b 08	 cmp	 ecx, DWORD PTR [ebx+8]
  00123	75 04		 jne	 SHORT $L200817

; 639  : 				_Fixnodeparent = _Pnode;	// successor is next to erased

  00125	8b f1		 mov	 esi, ecx

; 640  : 			else

  00127	eb 1b		 jmp	 SHORT $L200818
$L200817:

; 641  : 				{	// successor further down, link in place of erased
; 642  : 				_Fixnodeparent = _Parent(_Pnode);	// parent is successor's
; 643  : 				if (!_Isnil(_Fixnode))

  00129	8a 47 15	 mov	 al, BYTE PTR [edi+21]
  0012c	84 c0		 test	 al, al
  0012e	8b 71 04	 mov	 esi, DWORD PTR [ecx+4]
  00131	75 03		 jne	 SHORT $L200819

; 644  : 					_Parent(_Fixnode) = _Fixnodeparent;	// link fix up

  00133	89 77 04	 mov	 DWORD PTR [edi+4], esi
$L200819:

; 645  : 				_Left(_Fixnodeparent) = _Fixnode;	// link fix down

  00136	89 3e		 mov	 DWORD PTR [esi], edi

; 646  : 				_Right(_Pnode) = _Right(_Erasednode);	// link successor down

  00138	8b 43 08	 mov	 eax, DWORD PTR [ebx+8]
  0013b	89 41 08	 mov	 DWORD PTR [ecx+8], eax

; 647  : 				_Parent(_Right(_Erasednode)) = _Pnode;	// link right up

  0013e	8b 53 08	 mov	 edx, DWORD PTR [ebx+8]
  00141	89 4a 04	 mov	 DWORD PTR [edx+4], ecx
$L200818:

; 648  : 				}
; 649  : 
; 650  : 			if (_Root() == _Erasednode)

  00144	8b 45 04	 mov	 eax, DWORD PTR [ebp+4]
  00147	39 58 04	 cmp	 DWORD PTR [eax+4], ebx
  0014a	75 05		 jne	 SHORT $L200820

; 651  : 				_Root() = _Pnode;	// link down from root

  0014c	89 48 04	 mov	 DWORD PTR [eax+4], ecx

; 652  : 			else if (_Left(_Parent(_Erasednode)) == _Erasednode)

  0014f	eb 0e		 jmp	 SHORT $L200823
$L200820:
  00151	8b 43 04	 mov	 eax, DWORD PTR [ebx+4]
  00154	39 18		 cmp	 DWORD PTR [eax], ebx
  00156	75 04		 jne	 SHORT $L200822

; 653  : 				_Left(_Parent(_Erasednode)) = _Pnode;	// link down to left

  00158	89 08		 mov	 DWORD PTR [eax], ecx

; 654  : 			else

  0015a	eb 03		 jmp	 SHORT $L200823
$L200822:

; 655  : 				_Right(_Parent(_Erasednode)) = _Pnode;	// link down to right

  0015c	89 48 08	 mov	 DWORD PTR [eax+8], ecx
$L200823:

; 656  : 
; 657  : 			_Parent(_Pnode) = _Parent(_Erasednode);	// link successor up

  0015f	8b 43 04	 mov	 eax, DWORD PTR [ebx+4]
  00162	89 41 04	 mov	 DWORD PTR [ecx+4], eax

; 658  : 			std::swap(_Color(_Pnode), _Color(_Erasednode));	// recolor it

  00165	8a 53 14	 mov	 dl, BYTE PTR [ebx+20]
  00168	8a 41 14	 mov	 al, BYTE PTR [ecx+20]
  0016b	88 51 14	 mov	 BYTE PTR [ecx+20], dl
  0016e	88 43 14	 mov	 BYTE PTR [ebx+20], al
$L210851:

; 659  : 			}
; 660  : 
; 661  : 		if (_Color(_Erasednode) == _Black)

  00171	8b 44 24 10	 mov	 eax, DWORD PTR __Erasednode$[esp+100]
  00175	8a 48 14	 mov	 cl, BYTE PTR [eax+20]
  00178	b3 01		 mov	 bl, 1
  0017a	3a cb		 cmp	 cl, bl
  0017c	0f 85 ff 00 00
	00		 jne	 $L200824

; 662  : 			{	// erasing black link, must recolor/rebalance tree
; 663  : 			for (; _Fixnode != _Root() && _Color(_Fixnode) == _Black;
; 664  : 				_Fixnodeparent = _Parent(_Fixnode))

  00182	8b 4d 04	 mov	 ecx, DWORD PTR [ebp+4]
  00185	3b 79 04	 cmp	 edi, DWORD PTR [ecx+4]
  00188	0f 84 f0 00 00
	00		 je	 $L200827
  0018e	8b ff		 npad	 2
$L200825:
  00190	38 5f 14	 cmp	 BYTE PTR [edi+20], bl
  00193	0f 85 e5 00 00
	00		 jne	 $L200827

; 665  : 				if (_Fixnode == _Left(_Fixnodeparent))

  00199	8b 06		 mov	 eax, DWORD PTR [esi]
  0019b	3b f8		 cmp	 edi, eax
  0019d	75 67		 jne	 SHORT $L200828

; 666  : 					{	// fixup left subtree
; 667  : 					_Pnode = _Right(_Fixnodeparent);

  0019f	8b 46 08	 mov	 eax, DWORD PTR [esi+8]

; 668  : 					if (_Color(_Pnode) == _Red)

  001a2	8a 48 14	 mov	 cl, BYTE PTR [eax+20]
  001a5	84 c9		 test	 cl, cl
  001a7	75 12		 jne	 SHORT $L200829

; 669  : 						{	// rotate red up from right subtree
; 670  : 						_Color(_Pnode) = _Black;

  001a9	88 58 14	 mov	 BYTE PTR [eax+20], bl

; 671  : 						_Color(_Fixnodeparent) = _Red;
; 672  : 						_Lrotate(_Fixnodeparent);

  001ac	56		 push	 esi
  001ad	8b cd		 mov	 ecx, ebp
  001af	c6 46 14 00	 mov	 BYTE PTR [esi+20], 0
  001b3	e8 00 00 00 00	 call	 ?_Lrotate@?$_Tree@V?$_Tmap_traits@KPAVCMail@@U?$less@K@std@@V?$allocator@U?$pair@$$CBKPAVCMail@@@std@@@3@$0A@@std@@@std@@IAEXPAU_Node@?$_Tree_nod@V?$_Tmap_traits@KPAVCMail@@U?$less@K@std@@V?$allocator@U?$pair@$$CBKPAVCMail@@@std@@@3@$0A@@std@@@2@@Z ; std::_Tree<std::_Tmap_traits<unsigned long,CMail *,std::less<unsigned long>,std::allocator<std::pair<unsigned long const ,CMail *> >,0> >::_Lrotate

; 673  : 						_Pnode = _Right(_Fixnodeparent);

  001b8	8b 46 08	 mov	 eax, DWORD PTR [esi+8]
$L200829:

; 674  : 						}
; 675  : 
; 676  : 					if (_Isnil(_Pnode))

  001bb	8a 48 15	 mov	 cl, BYTE PTR [eax+21]
  001be	84 c9		 test	 cl, cl

; 677  : 						_Fixnode = _Fixnodeparent;	// shouldn't happen
; 678  : 					else if (_Color(_Left(_Pnode)) == _Black

  001c0	75 76		 jne	 SHORT $L211021

; 679  : 						&& _Color(_Right(_Pnode)) == _Black)

  001c2	8b 10		 mov	 edx, DWORD PTR [eax]
  001c4	38 5a 14	 cmp	 BYTE PTR [edx+20], bl
  001c7	75 08		 jne	 SHORT $L200832
  001c9	8b 48 08	 mov	 ecx, DWORD PTR [eax+8]
  001cc	38 59 14	 cmp	 BYTE PTR [ecx+20], bl
  001cf	74 63		 je	 SHORT $L211022
$L200832:

; 680  : 						{	// redden right subtree with black children
; 681  : 						_Color(_Pnode) = _Red;
; 682  : 						_Fixnode = _Fixnodeparent;
; 683  : 						}
; 684  : 					else
; 685  : 						{	// must rearrange right subtree
; 686  : 						if (_Color(_Right(_Pnode)) == _Black)

  001d1	8b 48 08	 mov	 ecx, DWORD PTR [eax+8]
  001d4	38 59 14	 cmp	 BYTE PTR [ecx+20], bl
  001d7	75 14		 jne	 SHORT $L200834

; 687  : 							{	// rotate red up from left sub-subtree
; 688  : 							_Color(_Left(_Pnode)) = _Black;

  001d9	8b 10		 mov	 edx, DWORD PTR [eax]
  001db	88 5a 14	 mov	 BYTE PTR [edx+20], bl

; 689  : 							_Color(_Pnode) = _Red;
; 690  : 							_Rrotate(_Pnode);

  001de	50		 push	 eax
  001df	8b cd		 mov	 ecx, ebp
  001e1	c6 40 14 00	 mov	 BYTE PTR [eax+20], 0
  001e5	e8 00 00 00 00	 call	 ?_Rrotate@?$_Tree@V?$_Tmap_traits@KPAVCMail@@U?$less@K@std@@V?$allocator@U?$pair@$$CBKPAVCMail@@@std@@@3@$0A@@std@@@std@@IAEXPAU_Node@?$_Tree_nod@V?$_Tmap_traits@KPAVCMail@@U?$less@K@std@@V?$allocator@U?$pair@$$CBKPAVCMail@@@std@@@3@$0A@@std@@@2@@Z ; std::_Tree<std::_Tmap_traits<unsigned long,CMail *,std::less<unsigned long>,std::allocator<std::pair<unsigned long const ,CMail *> >,0> >::_Rrotate

; 691  : 							_Pnode = _Right(_Fixnodeparent);

  001ea	8b 46 08	 mov	 eax, DWORD PTR [esi+8]
$L200834:

; 692  : 							}
; 693  : 
; 694  : 						_Color(_Pnode) = _Color(_Fixnodeparent);

  001ed	8a 4e 14	 mov	 cl, BYTE PTR [esi+20]
  001f0	88 48 14	 mov	 BYTE PTR [eax+20], cl

; 695  : 						_Color(_Fixnodeparent) = _Black;

  001f3	88 5e 14	 mov	 BYTE PTR [esi+20], bl

; 696  : 						_Color(_Right(_Pnode)) = _Black;

  001f6	8b 50 08	 mov	 edx, DWORD PTR [eax+8]

; 697  : 						_Lrotate(_Fixnodeparent);

  001f9	56		 push	 esi
  001fa	8b cd		 mov	 ecx, ebp
  001fc	88 5a 14	 mov	 BYTE PTR [edx+20], bl
  001ff	e8 00 00 00 00	 call	 ?_Lrotate@?$_Tree@V?$_Tmap_traits@KPAVCMail@@U?$less@K@std@@V?$allocator@U?$pair@$$CBKPAVCMail@@@std@@@3@$0A@@std@@@std@@IAEXPAU_Node@?$_Tree_nod@V?$_Tmap_traits@KPAVCMail@@U?$less@K@std@@V?$allocator@U?$pair@$$CBKPAVCMail@@@std@@@3@$0A@@std@@@2@@Z ; std::_Tree<std::_Tmap_traits<unsigned long,CMail *,std::less<unsigned long>,std::allocator<std::pair<unsigned long const ,CMail *> >,0> >::_Lrotate

; 698  : 						break;	// tree now recolored/rebalanced

  00204	eb 78		 jmp	 SHORT $L200827
$L200828:

; 699  : 						}
; 700  : 					}
; 701  : 				else
; 702  : 					{	// fixup right subtree
; 703  : 					_Pnode = _Left(_Fixnodeparent);
; 704  : 					if (_Color(_Pnode) == _Red)

  00206	8a 48 14	 mov	 cl, BYTE PTR [eax+20]
  00209	84 c9		 test	 cl, cl
  0020b	75 11		 jne	 SHORT $L200836

; 705  : 						{	// rotate red up from left subtree
; 706  : 						_Color(_Pnode) = _Black;

  0020d	88 58 14	 mov	 BYTE PTR [eax+20], bl

; 707  : 						_Color(_Fixnodeparent) = _Red;
; 708  : 						_Rrotate(_Fixnodeparent);

  00210	56		 push	 esi
  00211	8b cd		 mov	 ecx, ebp
  00213	c6 46 14 00	 mov	 BYTE PTR [esi+20], 0
  00217	e8 00 00 00 00	 call	 ?_Rrotate@?$_Tree@V?$_Tmap_traits@KPAVCMail@@U?$less@K@std@@V?$allocator@U?$pair@$$CBKPAVCMail@@@std@@@3@$0A@@std@@@std@@IAEXPAU_Node@?$_Tree_nod@V?$_Tmap_traits@KPAVCMail@@U?$less@K@std@@V?$allocator@U?$pair@$$CBKPAVCMail@@@std@@@3@$0A@@std@@@2@@Z ; std::_Tree<std::_Tmap_traits<unsigned long,CMail *,std::less<unsigned long>,std::allocator<std::pair<unsigned long const ,CMail *> >,0> >::_Rrotate

; 709  : 						_Pnode = _Left(_Fixnodeparent);

  0021c	8b 06		 mov	 eax, DWORD PTR [esi]
$L200836:

; 710  : 						}
; 711  : 					if (_Isnil(_Pnode))

  0021e	8a 48 15	 mov	 cl, BYTE PTR [eax+21]
  00221	84 c9		 test	 cl, cl

; 712  : 						_Fixnode = _Fixnodeparent;	// shouldn't happen
; 713  : 					else if (_Color(_Right(_Pnode)) == _Black

  00223	75 13		 jne	 SHORT $L211021

; 714  : 						&& _Color(_Left(_Pnode)) == _Black)

  00225	8b 50 08	 mov	 edx, DWORD PTR [eax+8]
  00228	38 5a 14	 cmp	 BYTE PTR [edx+20], bl
  0022b	75 20		 jne	 SHORT $L200839
  0022d	8b 08		 mov	 ecx, DWORD PTR [eax]
  0022f	38 59 14	 cmp	 BYTE PTR [ecx+20], bl
  00232	75 19		 jne	 SHORT $L200839
$L211022:

; 715  : 						{	// redden left subtree with black children
; 716  : 						_Color(_Pnode) = _Red;

  00234	c6 40 14 00	 mov	 BYTE PTR [eax+20], 0
$L211021:

; 662  : 			{	// erasing black link, must recolor/rebalance tree
; 663  : 			for (; _Fixnode != _Root() && _Color(_Fixnode) == _Black;
; 664  : 				_Fixnodeparent = _Parent(_Fixnode))

  00238	8b 55 04	 mov	 edx, DWORD PTR [ebp+4]
  0023b	8b 42 04	 mov	 eax, DWORD PTR [edx+4]

; 717  : 						_Fixnode = _Fixnodeparent;

  0023e	8b fe		 mov	 edi, esi
  00240	3b f8		 cmp	 edi, eax
  00242	8b 76 04	 mov	 esi, DWORD PTR [esi+4]
  00245	0f 85 45 ff ff
	ff		 jne	 $L200825

; 662  : 			{	// erasing black link, must recolor/rebalance tree
; 663  : 			for (; _Fixnode != _Root() && _Color(_Fixnode) == _Black;
; 664  : 				_Fixnodeparent = _Parent(_Fixnode))

  0024b	eb 31		 jmp	 SHORT $L200827
$L200839:

; 718  : 						}
; 719  : 					else
; 720  : 						{	// must rearrange left subtree
; 721  : 						if (_Color(_Left(_Pnode)) == _Black)

  0024d	8b 08		 mov	 ecx, DWORD PTR [eax]
  0024f	38 59 14	 cmp	 BYTE PTR [ecx+20], bl
  00252	75 14		 jne	 SHORT $L200841

; 722  : 							{	// rotate red up from right sub-subtree
; 723  : 							_Color(_Right(_Pnode)) = _Black;

  00254	8b 50 08	 mov	 edx, DWORD PTR [eax+8]
  00257	88 5a 14	 mov	 BYTE PTR [edx+20], bl

; 724  : 							_Color(_Pnode) = _Red;
; 725  : 							_Lrotate(_Pnode);

  0025a	50		 push	 eax
  0025b	8b cd		 mov	 ecx, ebp
  0025d	c6 40 14 00	 mov	 BYTE PTR [eax+20], 0
  00261	e8 00 00 00 00	 call	 ?_Lrotate@?$_Tree@V?$_Tmap_traits@KPAVCMail@@U?$less@K@std@@V?$allocator@U?$pair@$$CBKPAVCMail@@@std@@@3@$0A@@std@@@std@@IAEXPAU_Node@?$_Tree_nod@V?$_Tmap_traits@KPAVCMail@@U?$less@K@std@@V?$allocator@U?$pair@$$CBKPAVCMail@@@std@@@3@$0A@@std@@@2@@Z ; std::_Tree<std::_Tmap_traits<unsigned long,CMail *,std::less<unsigned long>,std::allocator<std::pair<unsigned long const ,CMail *> >,0> >::_Lrotate

; 726  : 							_Pnode = _Left(_Fixnodeparent);

  00266	8b 06		 mov	 eax, DWORD PTR [esi]
$L200841:

; 727  : 							}
; 728  : 
; 729  : 						_Color(_Pnode) = _Color(_Fixnodeparent);

  00268	8a 4e 14	 mov	 cl, BYTE PTR [esi+20]
  0026b	88 48 14	 mov	 BYTE PTR [eax+20], cl

; 730  : 						_Color(_Fixnodeparent) = _Black;

  0026e	88 5e 14	 mov	 BYTE PTR [esi+20], bl

; 731  : 						_Color(_Left(_Pnode)) = _Black;

  00271	8b 10		 mov	 edx, DWORD PTR [eax]

; 732  : 						_Rrotate(_Fixnodeparent);

  00273	56		 push	 esi
  00274	8b cd		 mov	 ecx, ebp
  00276	88 5a 14	 mov	 BYTE PTR [edx+20], bl
  00279	e8 00 00 00 00	 call	 ?_Rrotate@?$_Tree@V?$_Tmap_traits@KPAVCMail@@U?$less@K@std@@V?$allocator@U?$pair@$$CBKPAVCMail@@@std@@@3@$0A@@std@@@std@@IAEXPAU_Node@?$_Tree_nod@V?$_Tmap_traits@KPAVCMail@@U?$less@K@std@@V?$allocator@U?$pair@$$CBKPAVCMail@@@std@@@3@$0A@@std@@@2@@Z ; std::_Tree<std::_Tmap_traits<unsigned long,CMail *,std::less<unsigned long>,std::allocator<std::pair<unsigned long const ,CMail *> >,0> >::_Rrotate
$L200827:

; 733  : 						break;	// tree now recolored/rebalanced
; 734  : 						}
; 735  : 					}
; 736  : 
; 737  : 			_Color(_Fixnode) = _Black;	// ensure stopping node is black

  0027e	88 5f 14	 mov	 BYTE PTR [edi+20], bl
$L200824:

; 738  : 			}
; 739  : 
; 740  : 		this->_Alnod.destroy(_Erasednode);	// destroy, free erased node
; 741  : 		this->_Alnod.deallocate(_Erasednode, 1);

  00281	8b 44 24 10	 mov	 eax, DWORD PTR __Erasednode$[esp+100]
  00285	50		 push	 eax
  00286	e8 00 00 00 00	 call	 ??3@YAXPAX@Z		; operator delete

; 742  : 
; 743  : 		if (0 < _Mysize)

  0028b	8b 45 08	 mov	 eax, DWORD PTR [ebp+8]
  0028e	83 c4 04	 add	 esp, 4
  00291	85 c0		 test	 eax, eax
  00293	5f		 pop	 edi
  00294	5b		 pop	 ebx
  00295	76 04		 jbe	 SHORT $L200842

; 744  : 			--_Mysize;

  00297	48		 dec	 eax
  00298	89 45 08	 mov	 DWORD PTR [ebp+8], eax
$L200842:

; 745  : 
; 746  : 		return (_Where);	// return successor iterator

  0029b	8b 4c 24 64	 mov	 ecx, DWORD PTR __Where$[esp+88]
  0029f	8b 44 24 60	 mov	 eax, DWORD PTR ___$ReturnUdt$[esp+88]
  002a3	89 08		 mov	 DWORD PTR [eax], ecx

; 747  : 		}

  002a5	8b 4c 24 50	 mov	 ecx, DWORD PTR __$EHRec$[esp+92]
  002a9	5e		 pop	 esi
  002aa	5d		 pop	 ebp
  002ab	64 89 0d 00 00
	00 00		 mov	 DWORD PTR fs:__except_list, ecx
  002b2	83 c4 54	 add	 esp, 84			; 00000054H
  002b5	c2 08 00	 ret	 8
$L211020:
_TEXT	ENDS
;	COMDAT text$x
text$x	SEGMENT
$L210537:
  00000	8d 4d b0	 lea	 ecx, DWORD PTR $T210532[ebp]
  00003	e9 00 00 00 00	 jmp	 ??1?$basic_string@DU?$char_traits@D@std@@V?$allocator@D@2@@std@@QAE@XZ ; std::basic_string<char,std::char_traits<char>,std::allocator<char> >::~basic_string<char,std::char_traits<char>,std::allocator<char> >
__ehhandler$?erase@?$_Tree@V?$_Tmap_traits@KPAVCMail@@U?$less@K@std@@V?$allocator@U?$pair@$$CBKPAVCMail@@@std@@@3@$0A@@std@@@std@@QAE?AViterator@12@V312@@Z:
  00008	b8 00 00 00 00	 mov	 eax, OFFSET FLAT:$T211015
  0000d	e9 00 00 00 00	 jmp	 ___CxxFrameHandler
text$x	ENDS
?erase@?$_Tree@V?$_Tmap_traits@KPAVCMail@@U?$less@K@std@@V?$allocator@U?$pair@$$CBKPAVCMail@@@std@@@3@$0A@@std@@@std@@QAE?AViterator@12@V312@@Z ENDP ; std::_Tree<std::_Tmap_traits<unsigned long,CMail *,std::less<unsigned long>,std::allocator<std::pair<unsigned long const ,CMail *> >,0> >::erase
; Function compile flags: /Ogty
;	COMDAT ??0out_of_range@std@@QAE@ABV01@@Z
_TEXT	SEGMENT
___that$ = 8						; size = 4
??0out_of_range@std@@QAE@ABV01@@Z PROC NEAR		; std::out_of_range::out_of_range, COMDAT
; _this$ = ecx
  00000	8b 44 24 04	 mov	 eax, DWORD PTR ___that$[esp-4]
  00004	56		 push	 esi
  00005	50		 push	 eax
  00006	8b f1		 mov	 esi, ecx
  00008	e8 00 00 00 00	 call	 ??0logic_error@std@@QAE@ABV01@@Z
  0000d	c7 06 00 00 00
	00		 mov	 DWORD PTR [esi], OFFSET FLAT:??_7out_of_range@std@@6B@
  00013	8b c6		 mov	 eax, esi
  00015	5e		 pop	 esi
  00016	c2 04 00	 ret	 4
??0out_of_range@std@@QAE@ABV01@@Z ENDP			; std::out_of_range::out_of_range
_TEXT	ENDS
PUBLIC	?_Incsize@?$list@PAVCMail@@V?$allocator@PAVCMail@@@std@@@std@@IAEXI@Z ; std::list<CMail *,std::allocator<CMail *> >::_Incsize
PUBLIC	??_C@_0BB@MOGOBHAF@list?$DMT?$DO?5too?5long?$AA@ ; `string'
;	COMDAT xdata$x
; File c:\program files\microsoft visual studio .net 2003\vc7\include\stdexcept
xdata$x	SEGMENT
$T211164 DD	0ffffffffH
	DD	FLAT:$L211033
$T211161 DD	019930520H
	DD	01H
	DD	FLAT:$T211164
	DD	2 DUP(00H)
	DD	2 DUP(00H)
xdata$x	ENDS
;	COMDAT ??_C@_0BB@MOGOBHAF@list?$DMT?$DO?5too?5long?$AA@
CONST	SEGMENT
??_C@_0BB@MOGOBHAF@list?$DMT?$DO?5too?5long?$AA@ DB 'list<T> too long', 00H ; `string'
; Function compile flags: /Ogty
; File c:\program files\microsoft visual studio .net 2003\vc7\include\list
CONST	ENDS
;	COMDAT ?_Incsize@?$list@PAVCMail@@V?$allocator@PAVCMail@@@std@@@std@@IAEXI@Z
_TEXT	SEGMENT
$T211032 = -80						; size = 28
$T211031 = -52						; size = 40
__$EHRec$ = -12						; size = 12
__Count$ = 8						; size = 4
?_Incsize@?$list@PAVCMail@@V?$allocator@PAVCMail@@@std@@@std@@IAEXI@Z PROC NEAR ; std::list<CMail *,std::allocator<CMail *> >::_Incsize, COMDAT
; _this$ = ecx

; 956  : 		{	// alter element count, with checking

  00000	64 a1 00 00 00
	00		 mov	 eax, DWORD PTR fs:__except_list

; 957  : 		if (max_size() - _Mysize < _Count)

  00006	8b 54 24 04	 mov	 edx, DWORD PTR __Count$[esp-4]
  0000a	6a ff		 push	 -1
  0000c	68 00 00 00 00	 push	 __ehhandler$?_Incsize@?$list@PAVCMail@@V?$allocator@PAVCMail@@@std@@@std@@IAEXI@Z
  00011	50		 push	 eax
  00012	64 89 25 00 00
	00 00		 mov	 DWORD PTR fs:__except_list, esp
  00019	8b 41 08	 mov	 eax, DWORD PTR [ecx+8]
  0001c	83 ec 44	 sub	 esp, 68			; 00000044H
  0001f	56		 push	 esi
  00020	be ff ff ff 3f	 mov	 esi, 1073741823		; 3fffffffH
  00025	2b f0		 sub	 esi, eax
  00027	3b f2		 cmp	 esi, edx
  00029	5e		 pop	 esi
  0002a	73 51		 jae	 SHORT $L201106

; 958  : 			_THROW(length_error, "list<T> too long");

  0002c	6a 10		 push	 16			; 00000010H
  0002e	68 00 00 00 00	 push	 OFFSET FLAT:??_C@_0BB@MOGOBHAF@list?$DMT?$DO?5too?5long?$AA@
  00033	8d 4c 24 08	 lea	 ecx, DWORD PTR $T211032[esp+88]
  00037	c7 44 24 20 0f
	00 00 00	 mov	 DWORD PTR $T211032[esp+112], 15 ; 0000000fH
  0003f	c7 44 24 1c 00
	00 00 00	 mov	 DWORD PTR $T211032[esp+108], 0
  00047	c6 44 24 0c 00	 mov	 BYTE PTR $T211032[esp+92], 0
  0004c	e8 00 00 00 00	 call	 ?assign@?$basic_string@DU?$char_traits@D@std@@V?$allocator@D@2@@std@@QAEAAV12@PBDI@Z ; std::basic_string<char,std::char_traits<char>,std::allocator<char> >::assign
  00051	8d 04 24	 lea	 eax, DWORD PTR $T211032[esp+80]
  00054	50		 push	 eax
  00055	8d 4c 24 20	 lea	 ecx, DWORD PTR $T211031[esp+84]
  00059	c7 44 24 50 00
	00 00 00	 mov	 DWORD PTR __$EHRec$[esp+92], 0
  00061	e8 00 00 00 00	 call	 ??0logic_error@std@@QAE@ABV?$basic_string@DU?$char_traits@D@std@@V?$allocator@D@2@@1@@Z ; std::logic_error::logic_error
  00066	68 00 00 00 00	 push	 OFFSET FLAT:__TI3?AVlength_error@std@@
  0006b	8d 4c 24 20	 lea	 ecx, DWORD PTR $T211031[esp+84]
  0006f	51		 push	 ecx
  00070	c7 44 24 24 00
	00 00 00	 mov	 DWORD PTR $T211031[esp+88], OFFSET FLAT:??_7length_error@std@@6B@
  00078	e8 00 00 00 00	 call	 __CxxThrowException@8
$L201106:

; 959  : 		_Mysize += _Count;

  0007d	03 c2		 add	 eax, edx
  0007f	89 41 08	 mov	 DWORD PTR [ecx+8], eax

; 960  : 		}

  00082	8b 4c 24 44	 mov	 ecx, DWORD PTR __$EHRec$[esp+80]
  00086	64 89 0d 00 00
	00 00		 mov	 DWORD PTR fs:__except_list, ecx
  0008d	83 c4 50	 add	 esp, 80			; 00000050H
  00090	c2 04 00	 ret	 4
$L211163:
_TEXT	ENDS
;	COMDAT text$x
text$x	SEGMENT
$L211033:
  00000	8d 4d b0	 lea	 ecx, DWORD PTR $T211032[ebp]
  00003	e9 00 00 00 00	 jmp	 ??1?$basic_string@DU?$char_traits@D@std@@V?$allocator@D@2@@std@@QAE@XZ ; std::basic_string<char,std::char_traits<char>,std::allocator<char> >::~basic_string<char,std::char_traits<char>,std::allocator<char> >
__ehhandler$?_Incsize@?$list@PAVCMail@@V?$allocator@PAVCMail@@@std@@@std@@IAEXI@Z:
  00008	b8 00 00 00 00	 mov	 eax, OFFSET FLAT:$T211161
  0000d	e9 00 00 00 00	 jmp	 ___CxxFrameHandler
text$x	ENDS
?_Incsize@?$list@PAVCMail@@V?$allocator@PAVCMail@@@std@@@std@@IAEXI@Z ENDP ; std::list<CMail *,std::allocator<CMail *> >::_Incsize
PUBLIC	?erase@?$_Tree@V?$_Tmap_traits@KPAVCMailBox@@U?$less@K@std@@V?$allocator@U?$pair@$$CBKPAVCMailBox@@@std@@@3@$0A@@std@@@std@@QAE?AViterator@12@V312@@Z ; std::_Tree<std::_Tmap_traits<unsigned long,CMailBox *,std::less<unsigned long>,std::allocator<std::pair<unsigned long const ,CMailBox *> >,0> >::erase
;	COMDAT xdata$x
; File c:\program files\microsoft visual studio .net 2003\vc7\include\xmemory
xdata$x	SEGMENT
$T211661 DD	0ffffffffH
	DD	FLAT:$L211175
$T211653 DD	019930520H
	DD	01H
	DD	FLAT:$T211661
	DD	2 DUP(00H)
	DD	2 DUP(00H)
; Function compile flags: /Ogty
; File c:\program files\microsoft visual studio .net 2003\vc7\include\xtree
xdata$x	ENDS
;	COMDAT ?erase@?$_Tree@V?$_Tmap_traits@KPAVCMailBox@@U?$less@K@std@@V?$allocator@U?$pair@$$CBKPAVCMailBox@@@std@@@3@$0A@@std@@@std@@QAE?AViterator@12@V312@@Z
_TEXT	SEGMENT
__Erasednode$ = -84					; size = 4
$T211170 = -80						; size = 28
$T211169 = -52						; size = 40
__$EHRec$ = -12						; size = 12
___$ReturnUdt$ = 8					; size = 4
__Where$ = 12						; size = 4
?erase@?$_Tree@V?$_Tmap_traits@KPAVCMailBox@@U?$less@K@std@@V?$allocator@U?$pair@$$CBKPAVCMailBox@@@std@@@3@$0A@@std@@@std@@QAE?AViterator@12@V312@@Z PROC NEAR ; std::_Tree<std::_Tmap_traits<unsigned long,CMailBox *,std::less<unsigned long>,std::allocator<std::pair<unsigned long const ,CMailBox *> >,0> >::erase, COMDAT
; _this$ = ecx

; 590  : 		{	// erase element at _Where

  00000	64 a1 00 00 00
	00		 mov	 eax, DWORD PTR fs:__except_list
  00006	6a ff		 push	 -1
  00008	68 00 00 00 00	 push	 __ehhandler$?erase@?$_Tree@V?$_Tmap_traits@KPAVCMailBox@@U?$less@K@std@@V?$allocator@U?$pair@$$CBKPAVCMailBox@@@std@@@3@$0A@@std@@@std@@QAE?AViterator@12@V312@@Z
  0000d	50		 push	 eax

; 591  : 		if (_Isnil(_Where._Mynode()))

  0000e	8b 44 24 14	 mov	 eax, DWORD PTR __Where$[esp+8]
  00012	64 89 25 00 00
	00 00		 mov	 DWORD PTR fs:__except_list, esp
  00019	83 ec 48	 sub	 esp, 72			; 00000048H
  0001c	55		 push	 ebp
  0001d	8b e9		 mov	 ebp, ecx
  0001f	8a 48 15	 mov	 cl, BYTE PTR [eax+21]
  00022	84 c9		 test	 cl, cl
  00024	56		 push	 esi
  00025	74 4c		 je	 SHORT $L201212

; 592  : 			_THROW(out_of_range, "invalid map/set<T> iterator");

  00027	6a 1b		 push	 27			; 0000001bH
  00029	33 f6		 xor	 esi, esi
  0002b	68 00 00 00 00	 push	 OFFSET FLAT:??_C@_0BM@PAPJHAGI@invalid?5map?1set?$DMT?$DO?5iterator?$AA@
  00030	8d 4c 24 14	 lea	 ecx, DWORD PTR $T211170[esp+100]
  00034	c7 44 24 2c 0f
	00 00 00	 mov	 DWORD PTR $T211170[esp+124], 15 ; 0000000fH
  0003c	89 74 24 28	 mov	 DWORD PTR $T211170[esp+120], esi
  00040	c6 44 24 18 00	 mov	 BYTE PTR $T211170[esp+104], 0
  00045	e8 00 00 00 00	 call	 ?assign@?$basic_string@DU?$char_traits@D@std@@V?$allocator@D@2@@std@@QAEAAV12@PBDI@Z ; std::basic_string<char,std::char_traits<char>,std::allocator<char> >::assign
  0004a	8d 44 24 0c	 lea	 eax, DWORD PTR $T211170[esp+92]
  0004e	50		 push	 eax
  0004f	8d 4c 24 2c	 lea	 ecx, DWORD PTR $T211169[esp+96]
  00053	89 74 24 5c	 mov	 DWORD PTR __$EHRec$[esp+104], esi
  00057	e8 00 00 00 00	 call	 ??0logic_error@std@@QAE@ABV?$basic_string@DU?$char_traits@D@std@@V?$allocator@D@2@@1@@Z ; std::logic_error::logic_error
  0005c	68 00 00 00 00	 push	 OFFSET FLAT:__TI3?AVout_of_range@std@@
  00061	8d 4c 24 2c	 lea	 ecx, DWORD PTR $T211169[esp+96]
  00065	51		 push	 ecx
  00066	c7 44 24 30 00
	00 00 00	 mov	 DWORD PTR $T211169[esp+100], OFFSET FLAT:??_7out_of_range@std@@6B@
  0006e	e8 00 00 00 00	 call	 __CxxThrowException@8
$L201212:
  00073	53		 push	 ebx

; 593  : 		_Nodeptr _Erasednode = _Where._Mynode();	// node to erase

  00074	8b d8		 mov	 ebx, eax
  00076	57		 push	 edi

; 594  : 		++_Where;	// save successor iterator for return

  00077	8d 4c 24 6c	 lea	 ecx, DWORD PTR __Where$[esp+96]
  0007b	89 5c 24 10	 mov	 DWORD PTR __Erasednode$[esp+100], ebx
  0007f	e8 00 00 00 00	 call	 ?_Inc@const_iterator@?$_Tree@V?$_Tmap_traits@KPAVCMailBox@@U?$less@K@std@@V?$allocator@U?$pair@$$CBKPAVCMailBox@@@std@@@3@$0A@@std@@@std@@QAEXXZ ; std::_Tree<std::_Tmap_traits<unsigned long,CMailBox *,std::less<unsigned long>,std::allocator<std::pair<unsigned long const ,CMailBox *> >,0> >::const_iterator::_Inc

; 595  : 
; 596  : 		_Nodeptr _Fixnode;	// the node to recolor as needed
; 597  : 		_Nodeptr _Fixnodeparent;	// parent of _Fixnode (which may be nil)
; 598  : 		_Nodeptr _Pnode = _Erasednode;
; 599  : 
; 600  : 		if (_Isnil(_Left(_Pnode)))

  00084	8b 03		 mov	 eax, DWORD PTR [ebx]
  00086	8a 48 15	 mov	 cl, BYTE PTR [eax+21]
  00089	84 c9		 test	 cl, cl
  0008b	74 05		 je	 SHORT $L201220

; 601  : 			_Fixnode = _Right(_Pnode);	// must stitch up right subtree

  0008d	8b 7b 08	 mov	 edi, DWORD PTR [ebx+8]

; 602  : 		else if (_Isnil(_Right(_Pnode)))

  00090	eb 19		 jmp	 SHORT $L211656
$L201220:
  00092	8b 53 08	 mov	 edx, DWORD PTR [ebx+8]
  00095	8a 4a 15	 mov	 cl, BYTE PTR [edx+21]
  00098	84 c9		 test	 cl, cl
  0009a	74 04		 je	 SHORT $L201222

; 603  : 			_Fixnode = _Left(_Pnode);	// must stitch up left subtree

  0009c	8b f8		 mov	 edi, eax

; 604  : 		else

  0009e	eb 0b		 jmp	 SHORT $L211656
$L201222:

; 605  : 			{	// two subtrees, must lift successor node to replace erased
; 606  : 			_Pnode = _Where._Mynode();	// _Pnode is successor node
; 607  : 			_Fixnode = _Right(_Pnode);	// _Fixnode is its only subtree

  000a0	8b 4c 24 6c	 mov	 ecx, DWORD PTR __Where$[esp+96]

; 608  : 			}
; 609  : 
; 610  : 		if (_Pnode == _Erasednode)

  000a4	3b cb		 cmp	 ecx, ebx
  000a6	8b 79 08	 mov	 edi, DWORD PTR [ecx+8]
  000a9	75 6e		 jne	 SHORT $L201224
$L211656:

; 611  : 			{	// at most one subtree, relink it
; 612  : 			_Fixnodeparent = _Parent(_Erasednode);
; 613  : 			if (!_Isnil(_Fixnode))

  000ab	8a 47 15	 mov	 al, BYTE PTR [edi+21]
  000ae	84 c0		 test	 al, al
  000b0	8b 73 04	 mov	 esi, DWORD PTR [ebx+4]
  000b3	75 03		 jne	 SHORT $L201225

; 614  : 				_Parent(_Fixnode) = _Fixnodeparent;	// link up

  000b5	89 77 04	 mov	 DWORD PTR [edi+4], esi
$L201225:

; 615  : 
; 616  : 			if (_Root() == _Erasednode)

  000b8	8b 45 04	 mov	 eax, DWORD PTR [ebp+4]
  000bb	39 58 04	 cmp	 DWORD PTR [eax+4], ebx
  000be	75 05		 jne	 SHORT $L201226

; 617  : 				_Root() = _Fixnode;	// link down from root

  000c0	89 78 04	 mov	 DWORD PTR [eax+4], edi

; 618  : 			else if (_Left(_Fixnodeparent) == _Erasednode)

  000c3	eb 0b		 jmp	 SHORT $L201229
$L201226:
  000c5	39 1e		 cmp	 DWORD PTR [esi], ebx
  000c7	75 04		 jne	 SHORT $L201228

; 619  : 				_Left(_Fixnodeparent) = _Fixnode;	// link down to left

  000c9	89 3e		 mov	 DWORD PTR [esi], edi

; 620  : 			else

  000cb	eb 03		 jmp	 SHORT $L201229
$L201228:

; 621  : 				_Right(_Fixnodeparent) = _Fixnode;	// link down to right

  000cd	89 7e 08	 mov	 DWORD PTR [esi+8], edi
$L201229:

; 622  : 
; 623  : 			if (_Lmost() == _Erasednode)

  000d0	8b 5d 04	 mov	 ebx, DWORD PTR [ebp+4]
  000d3	8b 03		 mov	 eax, DWORD PTR [ebx]
  000d5	3b 44 24 10	 cmp	 eax, DWORD PTR __Erasednode$[esp+100]
  000d9	75 16		 jne	 SHORT $L201230

; 624  : 				_Lmost() = _Isnil(_Fixnode)
; 625  : 					? _Fixnodeparent	// smallest is parent of erased node
; 626  : 					: _Min(_Fixnode);	// smallest in relinked subtree

  000db	8a 47 15	 mov	 al, BYTE PTR [edi+21]
  000de	84 c0		 test	 al, al
  000e0	74 04		 je	 SHORT $L211171
  000e2	8b c6		 mov	 eax, esi
  000e4	eb 09		 jmp	 SHORT $L211172
$L211171:
  000e6	57		 push	 edi
  000e7	e8 00 00 00 00	 call	 ?_Min@?$_Tree@V?$_Tmap_traits@KPAVCMailBox@@U?$less@K@std@@V?$allocator@U?$pair@$$CBKPAVCMailBox@@@std@@@3@$0A@@std@@@std@@KAPAU_Node@?$_Tree_nod@V?$_Tmap_traits@KPAVCMailBox@@U?$less@K@std@@V?$allocator@U?$pair@$$CBKPAVCMailBox@@@std@@@3@$0A@@std@@@2@PAU342@@Z ; std::_Tree<std::_Tmap_traits<unsigned long,CMailBox *,std::less<unsigned long>,std::allocator<std::pair<unsigned long const ,CMailBox *> >,0> >::_Min
  000ec	83 c4 04	 add	 esp, 4
$L211172:
  000ef	89 03		 mov	 DWORD PTR [ebx], eax
$L201230:

; 627  : 
; 628  : 			if (_Rmost() == _Erasednode)

  000f1	8b 5d 04	 mov	 ebx, DWORD PTR [ebp+4]
  000f4	8b 4c 24 10	 mov	 ecx, DWORD PTR __Erasednode$[esp+100]
  000f8	39 4b 08	 cmp	 DWORD PTR [ebx+8], ecx
  000fb	75 74		 jne	 SHORT $L211489

; 629  : 				_Rmost() = _Isnil(_Fixnode)
; 630  : 					? _Fixnodeparent	// largest is parent of erased node
; 631  : 					: _Max(_Fixnode);	// largest in relinked subtree

  000fd	8a 47 15	 mov	 al, BYTE PTR [edi+21]
  00100	84 c0		 test	 al, al
  00102	74 07		 je	 SHORT $L211173
  00104	8b c6		 mov	 eax, esi
  00106	89 43 08	 mov	 DWORD PTR [ebx+8], eax

; 632  : 			}
; 633  : 		else

  00109	eb 66		 jmp	 SHORT $L211489
$L211173:

; 629  : 				_Rmost() = _Isnil(_Fixnode)
; 630  : 					? _Fixnodeparent	// largest is parent of erased node
; 631  : 					: _Max(_Fixnode);	// largest in relinked subtree

  0010b	57		 push	 edi
  0010c	e8 00 00 00 00	 call	 ?_Max@?$_Tree@V?$_Tmap_traits@KPAVCMailBox@@U?$less@K@std@@V?$allocator@U?$pair@$$CBKPAVCMailBox@@@std@@@3@$0A@@std@@@std@@KAPAU_Node@?$_Tree_nod@V?$_Tmap_traits@KPAVCMailBox@@U?$less@K@std@@V?$allocator@U?$pair@$$CBKPAVCMailBox@@@std@@@3@$0A@@std@@@2@PAU342@@Z ; std::_Tree<std::_Tmap_traits<unsigned long,CMailBox *,std::less<unsigned long>,std::allocator<std::pair<unsigned long const ,CMailBox *> >,0> >::_Max
  00111	83 c4 04	 add	 esp, 4
  00114	89 43 08	 mov	 DWORD PTR [ebx+8], eax

; 632  : 			}
; 633  : 		else

  00117	eb 58		 jmp	 SHORT $L211489
$L201224:

; 634  : 			{	// erased has two subtrees, _Pnode is successor to erased
; 635  : 			_Parent(_Left(_Erasednode)) = _Pnode;	// link left up

  00119	89 48 04	 mov	 DWORD PTR [eax+4], ecx

; 636  : 			_Left(_Pnode) = _Left(_Erasednode);	// link successor down

  0011c	8b 13		 mov	 edx, DWORD PTR [ebx]
  0011e	89 11		 mov	 DWORD PTR [ecx], edx

; 637  : 
; 638  : 			if (_Pnode == _Right(_Erasednode))

  00120	3b 4b 08	 cmp	 ecx, DWORD PTR [ebx+8]
  00123	75 04		 jne	 SHORT $L201233

; 639  : 				_Fixnodeparent = _Pnode;	// successor is next to erased

  00125	8b f1		 mov	 esi, ecx

; 640  : 			else

  00127	eb 1b		 jmp	 SHORT $L201234
$L201233:

; 641  : 				{	// successor further down, link in place of erased
; 642  : 				_Fixnodeparent = _Parent(_Pnode);	// parent is successor's
; 643  : 				if (!_Isnil(_Fixnode))

  00129	8a 47 15	 mov	 al, BYTE PTR [edi+21]
  0012c	84 c0		 test	 al, al
  0012e	8b 71 04	 mov	 esi, DWORD PTR [ecx+4]
  00131	75 03		 jne	 SHORT $L201235

; 644  : 					_Parent(_Fixnode) = _Fixnodeparent;	// link fix up

  00133	89 77 04	 mov	 DWORD PTR [edi+4], esi
$L201235:

; 645  : 				_Left(_Fixnodeparent) = _Fixnode;	// link fix down

  00136	89 3e		 mov	 DWORD PTR [esi], edi

; 646  : 				_Right(_Pnode) = _Right(_Erasednode);	// link successor down

  00138	8b 43 08	 mov	 eax, DWORD PTR [ebx+8]
  0013b	89 41 08	 mov	 DWORD PTR [ecx+8], eax

; 647  : 				_Parent(_Right(_Erasednode)) = _Pnode;	// link right up

  0013e	8b 53 08	 mov	 edx, DWORD PTR [ebx+8]
  00141	89 4a 04	 mov	 DWORD PTR [edx+4], ecx
$L201234:

; 648  : 				}
; 649  : 
; 650  : 			if (_Root() == _Erasednode)

  00144	8b 45 04	 mov	 eax, DWORD PTR [ebp+4]
  00147	39 58 04	 cmp	 DWORD PTR [eax+4], ebx
  0014a	75 05		 jne	 SHORT $L201236

; 651  : 				_Root() = _Pnode;	// link down from root

  0014c	89 48 04	 mov	 DWORD PTR [eax+4], ecx

; 652  : 			else if (_Left(_Parent(_Erasednode)) == _Erasednode)

  0014f	eb 0e		 jmp	 SHORT $L201239
$L201236:
  00151	8b 43 04	 mov	 eax, DWORD PTR [ebx+4]
  00154	39 18		 cmp	 DWORD PTR [eax], ebx
  00156	75 04		 jne	 SHORT $L201238

; 653  : 				_Left(_Parent(_Erasednode)) = _Pnode;	// link down to left

  00158	89 08		 mov	 DWORD PTR [eax], ecx

; 654  : 			else

  0015a	eb 03		 jmp	 SHORT $L201239
$L201238:

; 655  : 				_Right(_Parent(_Erasednode)) = _Pnode;	// link down to right

  0015c	89 48 08	 mov	 DWORD PTR [eax+8], ecx
$L201239:

; 656  : 
; 657  : 			_Parent(_Pnode) = _Parent(_Erasednode);	// link successor up

  0015f	8b 43 04	 mov	 eax, DWORD PTR [ebx+4]
  00162	89 41 04	 mov	 DWORD PTR [ecx+4], eax

; 658  : 			std::swap(_Color(_Pnode), _Color(_Erasednode));	// recolor it

  00165	8a 53 14	 mov	 dl, BYTE PTR [ebx+20]
  00168	8a 41 14	 mov	 al, BYTE PTR [ecx+20]
  0016b	88 51 14	 mov	 BYTE PTR [ecx+20], dl
  0016e	88 43 14	 mov	 BYTE PTR [ebx+20], al
$L211489:

; 659  : 			}
; 660  : 
; 661  : 		if (_Color(_Erasednode) == _Black)

  00171	8b 44 24 10	 mov	 eax, DWORD PTR __Erasednode$[esp+100]
  00175	8a 48 14	 mov	 cl, BYTE PTR [eax+20]
  00178	b3 01		 mov	 bl, 1
  0017a	3a cb		 cmp	 cl, bl
  0017c	0f 85 ff 00 00
	00		 jne	 $L201240

; 662  : 			{	// erasing black link, must recolor/rebalance tree
; 663  : 			for (; _Fixnode != _Root() && _Color(_Fixnode) == _Black;
; 664  : 				_Fixnodeparent = _Parent(_Fixnode))

  00182	8b 4d 04	 mov	 ecx, DWORD PTR [ebp+4]
  00185	3b 79 04	 cmp	 edi, DWORD PTR [ecx+4]
  00188	0f 84 f0 00 00
	00		 je	 $L201243
  0018e	8b ff		 npad	 2
$L201241:
  00190	38 5f 14	 cmp	 BYTE PTR [edi+20], bl
  00193	0f 85 e5 00 00
	00		 jne	 $L201243

; 665  : 				if (_Fixnode == _Left(_Fixnodeparent))

  00199	8b 06		 mov	 eax, DWORD PTR [esi]
  0019b	3b f8		 cmp	 edi, eax
  0019d	75 67		 jne	 SHORT $L201244

; 666  : 					{	// fixup left subtree
; 667  : 					_Pnode = _Right(_Fixnodeparent);

  0019f	8b 46 08	 mov	 eax, DWORD PTR [esi+8]

; 668  : 					if (_Color(_Pnode) == _Red)

  001a2	8a 48 14	 mov	 cl, BYTE PTR [eax+20]
  001a5	84 c9		 test	 cl, cl
  001a7	75 12		 jne	 SHORT $L201245

; 669  : 						{	// rotate red up from right subtree
; 670  : 						_Color(_Pnode) = _Black;

  001a9	88 58 14	 mov	 BYTE PTR [eax+20], bl

; 671  : 						_Color(_Fixnodeparent) = _Red;
; 672  : 						_Lrotate(_Fixnodeparent);

  001ac	56		 push	 esi
  001ad	8b cd		 mov	 ecx, ebp
  001af	c6 46 14 00	 mov	 BYTE PTR [esi+20], 0
  001b3	e8 00 00 00 00	 call	 ?_Lrotate@?$_Tree@V?$_Tmap_traits@KPAVCMailBox@@U?$less@K@std@@V?$allocator@U?$pair@$$CBKPAVCMailBox@@@std@@@3@$0A@@std@@@std@@IAEXPAU_Node@?$_Tree_nod@V?$_Tmap_traits@KPAVCMailBox@@U?$less@K@std@@V?$allocator@U?$pair@$$CBKPAVCMailBox@@@std@@@3@$0A@@std@@@2@@Z ; std::_Tree<std::_Tmap_traits<unsigned long,CMailBox *,std::less<unsigned long>,std::allocator<std::pair<unsigned long const ,CMailBox *> >,0> >::_Lrotate

; 673  : 						_Pnode = _Right(_Fixnodeparent);

  001b8	8b 46 08	 mov	 eax, DWORD PTR [esi+8]
$L201245:

; 674  : 						}
; 675  : 
; 676  : 					if (_Isnil(_Pnode))

  001bb	8a 48 15	 mov	 cl, BYTE PTR [eax+21]
  001be	84 c9		 test	 cl, cl

; 677  : 						_Fixnode = _Fixnodeparent;	// shouldn't happen
; 678  : 					else if (_Color(_Left(_Pnode)) == _Black

  001c0	75 76		 jne	 SHORT $L211659

; 679  : 						&& _Color(_Right(_Pnode)) == _Black)

  001c2	8b 10		 mov	 edx, DWORD PTR [eax]
  001c4	38 5a 14	 cmp	 BYTE PTR [edx+20], bl
  001c7	75 08		 jne	 SHORT $L201248
  001c9	8b 48 08	 mov	 ecx, DWORD PTR [eax+8]
  001cc	38 59 14	 cmp	 BYTE PTR [ecx+20], bl
  001cf	74 63		 je	 SHORT $L211660
$L201248:

; 680  : 						{	// redden right subtree with black children
; 681  : 						_Color(_Pnode) = _Red;
; 682  : 						_Fixnode = _Fixnodeparent;
; 683  : 						}
; 684  : 					else
; 685  : 						{	// must rearrange right subtree
; 686  : 						if (_Color(_Right(_Pnode)) == _Black)

  001d1	8b 48 08	 mov	 ecx, DWORD PTR [eax+8]
  001d4	38 59 14	 cmp	 BYTE PTR [ecx+20], bl
  001d7	75 14		 jne	 SHORT $L201250

; 687  : 							{	// rotate red up from left sub-subtree
; 688  : 							_Color(_Left(_Pnode)) = _Black;

  001d9	8b 10		 mov	 edx, DWORD PTR [eax]
  001db	88 5a 14	 mov	 BYTE PTR [edx+20], bl

; 689  : 							_Color(_Pnode) = _Red;
; 690  : 							_Rrotate(_Pnode);

  001de	50		 push	 eax
  001df	8b cd		 mov	 ecx, ebp
  001e1	c6 40 14 00	 mov	 BYTE PTR [eax+20], 0
  001e5	e8 00 00 00 00	 call	 ?_Rrotate@?$_Tree@V?$_Tmap_traits@KPAVCMailBox@@U?$less@K@std@@V?$allocator@U?$pair@$$CBKPAVCMailBox@@@std@@@3@$0A@@std@@@std@@IAEXPAU_Node@?$_Tree_nod@V?$_Tmap_traits@KPAVCMailBox@@U?$less@K@std@@V?$allocator@U?$pair@$$CBKPAVCMailBox@@@std@@@3@$0A@@std@@@2@@Z ; std::_Tree<std::_Tmap_traits<unsigned long,CMailBox *,std::less<unsigned long>,std::allocator<std::pair<unsigned long const ,CMailBox *> >,0> >::_Rrotate

; 691  : 							_Pnode = _Right(_Fixnodeparent);

  001ea	8b 46 08	 mov	 eax, DWORD PTR [esi+8]
$L201250:

; 692  : 							}
; 693  : 
; 694  : 						_Color(_Pnode) = _Color(_Fixnodeparent);

  001ed	8a 4e 14	 mov	 cl, BYTE PTR [esi+20]
  001f0	88 48 14	 mov	 BYTE PTR [eax+20], cl

; 695  : 						_Color(_Fixnodeparent) = _Black;

  001f3	88 5e 14	 mov	 BYTE PTR [esi+20], bl

; 696  : 						_Color(_Right(_Pnode)) = _Black;

  001f6	8b 50 08	 mov	 edx, DWORD PTR [eax+8]

; 697  : 						_Lrotate(_Fixnodeparent);

  001f9	56		 push	 esi
  001fa	8b cd		 mov	 ecx, ebp
  001fc	88 5a 14	 mov	 BYTE PTR [edx+20], bl
  001ff	e8 00 00 00 00	 call	 ?_Lrotate@?$_Tree@V?$_Tmap_traits@KPAVCMailBox@@U?$less@K@std@@V?$allocator@U?$pair@$$CBKPAVCMailBox@@@std@@@3@$0A@@std@@@std@@IAEXPAU_Node@?$_Tree_nod@V?$_Tmap_traits@KPAVCMailBox@@U?$less@K@std@@V?$allocator@U?$pair@$$CBKPAVCMailBox@@@std@@@3@$0A@@std@@@2@@Z ; std::_Tree<std::_Tmap_traits<unsigned long,CMailBox *,std::less<unsigned long>,std::allocator<std::pair<unsigned long const ,CMailBox *> >,0> >::_Lrotate

; 698  : 						break;	// tree now recolored/rebalanced

  00204	eb 78		 jmp	 SHORT $L201243
$L201244:

; 699  : 						}
; 700  : 					}
; 701  : 				else
; 702  : 					{	// fixup right subtree
; 703  : 					_Pnode = _Left(_Fixnodeparent);
; 704  : 					if (_Color(_Pnode) == _Red)

  00206	8a 48 14	 mov	 cl, BYTE PTR [eax+20]
  00209	84 c9		 test	 cl, cl
  0020b	75 11		 jne	 SHORT $L201252

; 705  : 						{	// rotate red up from left subtree
; 706  : 						_Color(_Pnode) = _Black;

  0020d	88 58 14	 mov	 BYTE PTR [eax+20], bl

; 707  : 						_Color(_Fixnodeparent) = _Red;
; 708  : 						_Rrotate(_Fixnodeparent);

  00210	56		 push	 esi
  00211	8b cd		 mov	 ecx, ebp
  00213	c6 46 14 00	 mov	 BYTE PTR [esi+20], 0
  00217	e8 00 00 00 00	 call	 ?_Rrotate@?$_Tree@V?$_Tmap_traits@KPAVCMailBox@@U?$less@K@std@@V?$allocator@U?$pair@$$CBKPAVCMailBox@@@std@@@3@$0A@@std@@@std@@IAEXPAU_Node@?$_Tree_nod@V?$_Tmap_traits@KPAVCMailBox@@U?$less@K@std@@V?$allocator@U?$pair@$$CBKPAVCMailBox@@@std@@@3@$0A@@std@@@2@@Z ; std::_Tree<std::_Tmap_traits<unsigned long,CMailBox *,std::less<unsigned long>,std::allocator<std::pair<unsigned long const ,CMailBox *> >,0> >::_Rrotate

; 709  : 						_Pnode = _Left(_Fixnodeparent);

  0021c	8b 06		 mov	 eax, DWORD PTR [esi]
$L201252:

; 710  : 						}
; 711  : 					if (_Isnil(_Pnode))

  0021e	8a 48 15	 mov	 cl, BYTE PTR [eax+21]
  00221	84 c9		 test	 cl, cl

; 712  : 						_Fixnode = _Fixnodeparent;	// shouldn't happen
; 713  : 					else if (_Color(_Right(_Pnode)) == _Black

  00223	75 13		 jne	 SHORT $L211659

; 714  : 						&& _Color(_Left(_Pnode)) == _Black)

  00225	8b 50 08	 mov	 edx, DWORD PTR [eax+8]
  00228	38 5a 14	 cmp	 BYTE PTR [edx+20], bl
  0022b	75 20		 jne	 SHORT $L201255
  0022d	8b 08		 mov	 ecx, DWORD PTR [eax]
  0022f	38 59 14	 cmp	 BYTE PTR [ecx+20], bl
  00232	75 19		 jne	 SHORT $L201255
$L211660:

; 715  : 						{	// redden left subtree with black children
; 716  : 						_Color(_Pnode) = _Red;

  00234	c6 40 14 00	 mov	 BYTE PTR [eax+20], 0
$L211659:

; 662  : 			{	// erasing black link, must recolor/rebalance tree
; 663  : 			for (; _Fixnode != _Root() && _Color(_Fixnode) == _Black;
; 664  : 				_Fixnodeparent = _Parent(_Fixnode))

  00238	8b 55 04	 mov	 edx, DWORD PTR [ebp+4]
  0023b	8b 42 04	 mov	 eax, DWORD PTR [edx+4]

; 717  : 						_Fixnode = _Fixnodeparent;

  0023e	8b fe		 mov	 edi, esi
  00240	3b f8		 cmp	 edi, eax
  00242	8b 76 04	 mov	 esi, DWORD PTR [esi+4]
  00245	0f 85 45 ff ff
	ff		 jne	 $L201241

; 662  : 			{	// erasing black link, must recolor/rebalance tree
; 663  : 			for (; _Fixnode != _Root() && _Color(_Fixnode) == _Black;
; 664  : 				_Fixnodeparent = _Parent(_Fixnode))

  0024b	eb 31		 jmp	 SHORT $L201243
$L201255:

; 718  : 						}
; 719  : 					else
; 720  : 						{	// must rearrange left subtree
; 721  : 						if (_Color(_Left(_Pnode)) == _Black)

  0024d	8b 08		 mov	 ecx, DWORD PTR [eax]
  0024f	38 59 14	 cmp	 BYTE PTR [ecx+20], bl
  00252	75 14		 jne	 SHORT $L201257

; 722  : 							{	// rotate red up from right sub-subtree
; 723  : 							_Color(_Right(_Pnode)) = _Black;

  00254	8b 50 08	 mov	 edx, DWORD PTR [eax+8]
  00257	88 5a 14	 mov	 BYTE PTR [edx+20], bl

; 724  : 							_Color(_Pnode) = _Red;
; 725  : 							_Lrotate(_Pnode);

  0025a	50		 push	 eax
  0025b	8b cd		 mov	 ecx, ebp
  0025d	c6 40 14 00	 mov	 BYTE PTR [eax+20], 0
  00261	e8 00 00 00 00	 call	 ?_Lrotate@?$_Tree@V?$_Tmap_traits@KPAVCMailBox@@U?$less@K@std@@V?$allocator@U?$pair@$$CBKPAVCMailBox@@@std@@@3@$0A@@std@@@std@@IAEXPAU_Node@?$_Tree_nod@V?$_Tmap_traits@KPAVCMailBox@@U?$less@K@std@@V?$allocator@U?$pair@$$CBKPAVCMailBox@@@std@@@3@$0A@@std@@@2@@Z ; std::_Tree<std::_Tmap_traits<unsigned long,CMailBox *,std::less<unsigned long>,std::allocator<std::pair<unsigned long const ,CMailBox *> >,0> >::_Lrotate

; 726  : 							_Pnode = _Left(_Fixnodeparent);

  00266	8b 06		 mov	 eax, DWORD PTR [esi]
$L201257:

; 727  : 							}
; 728  : 
; 729  : 						_Color(_Pnode) = _Color(_Fixnodeparent);

  00268	8a 4e 14	 mov	 cl, BYTE PTR [esi+20]
  0026b	88 48 14	 mov	 BYTE PTR [eax+20], cl

; 730  : 						_Color(_Fixnodeparent) = _Black;

  0026e	88 5e 14	 mov	 BYTE PTR [esi+20], bl

; 731  : 						_Color(_Left(_Pnode)) = _Black;

  00271	8b 10		 mov	 edx, DWORD PTR [eax]

; 732  : 						_Rrotate(_Fixnodeparent);

  00273	56		 push	 esi
  00274	8b cd		 mov	 ecx, ebp
  00276	88 5a 14	 mov	 BYTE PTR [edx+20], bl
  00279	e8 00 00 00 00	 call	 ?_Rrotate@?$_Tree@V?$_Tmap_traits@KPAVCMailBox@@U?$less@K@std@@V?$allocator@U?$pair@$$CBKPAVCMailBox@@@std@@@3@$0A@@std@@@std@@IAEXPAU_Node@?$_Tree_nod@V?$_Tmap_traits@KPAVCMailBox@@U?$less@K@std@@V?$allocator@U?$pair@$$CBKPAVCMailBox@@@std@@@3@$0A@@std@@@2@@Z ; std::_Tree<std::_Tmap_traits<unsigned long,CMailBox *,std::less<unsigned long>,std::allocator<std::pair<unsigned long const ,CMailBox *> >,0> >::_Rrotate
$L201243:

; 733  : 						break;	// tree now recolored/rebalanced
; 734  : 						}
; 735  : 					}
; 736  : 
; 737  : 			_Color(_Fixnode) = _Black;	// ensure stopping node is black

  0027e	88 5f 14	 mov	 BYTE PTR [edi+20], bl
$L201240:

; 738  : 			}
; 739  : 
; 740  : 		this->_Alnod.destroy(_Erasednode);	// destroy, free erased node
; 741  : 		this->_Alnod.deallocate(_Erasednode, 1);

  00281	8b 44 24 10	 mov	 eax, DWORD PTR __Erasednode$[esp+100]
  00285	50		 push	 eax
  00286	e8 00 00 00 00	 call	 ??3@YAXPAX@Z		; operator delete

; 742  : 
; 743  : 		if (0 < _Mysize)

  0028b	8b 45 08	 mov	 eax, DWORD PTR [ebp+8]
  0028e	83 c4 04	 add	 esp, 4
  00291	85 c0		 test	 eax, eax
  00293	5f		 pop	 edi
  00294	5b		 pop	 ebx
  00295	76 04		 jbe	 SHORT $L201258

; 744  : 			--_Mysize;

  00297	48		 dec	 eax
  00298	89 45 08	 mov	 DWORD PTR [ebp+8], eax
$L201258:

; 745  : 
; 746  : 		return (_Where);	// return successor iterator

  0029b	8b 4c 24 64	 mov	 ecx, DWORD PTR __Where$[esp+88]
  0029f	8b 44 24 60	 mov	 eax, DWORD PTR ___$ReturnUdt$[esp+88]
  002a3	89 08		 mov	 DWORD PTR [eax], ecx

; 747  : 		}

  002a5	8b 4c 24 50	 mov	 ecx, DWORD PTR __$EHRec$[esp+92]
  002a9	5e		 pop	 esi
  002aa	5d		 pop	 ebp
  002ab	64 89 0d 00 00
	00 00		 mov	 DWORD PTR fs:__except_list, ecx
  002b2	83 c4 54	 add	 esp, 84			; 00000054H
  002b5	c2 08 00	 ret	 8
$L211658:
_TEXT	ENDS
;	COMDAT text$x
text$x	SEGMENT
$L211175:
  00000	8d 4d b0	 lea	 ecx, DWORD PTR $T211170[ebp]
  00003	e9 00 00 00 00	 jmp	 ??1?$basic_string@DU?$char_traits@D@std@@V?$allocator@D@2@@std@@QAE@XZ ; std::basic_string<char,std::char_traits<char>,std::allocator<char> >::~basic_string<char,std::char_traits<char>,std::allocator<char> >
__ehhandler$?erase@?$_Tree@V?$_Tmap_traits@KPAVCMailBox@@U?$less@K@std@@V?$allocator@U?$pair@$$CBKPAVCMailBox@@@std@@@3@$0A@@std@@@std@@QAE?AViterator@12@V312@@Z:
  00008	b8 00 00 00 00	 mov	 eax, OFFSET FLAT:$T211653
  0000d	e9 00 00 00 00	 jmp	 ___CxxFrameHandler
text$x	ENDS
?erase@?$_Tree@V?$_Tmap_traits@KPAVCMailBox@@U?$less@K@std@@V?$allocator@U?$pair@$$CBKPAVCMailBox@@@std@@@3@$0A@@std@@@std@@QAE?AViterator@12@V312@@Z ENDP ; std::_Tree<std::_Tmap_traits<unsigned long,CMailBox *,std::less<unsigned long>,std::allocator<std::pair<unsigned long const ,CMailBox *> >,0> >::erase
PUBLIC	?insert@?$_Tree@V?$_Tmap_traits@KPAVCMail@@U?$less@K@std@@V?$allocator@U?$pair@$$CBKPAVCMail@@@std@@@3@$0A@@std@@@std@@QAE?AU?$pair@Viterator@?$_Tree@V?$_Tmap_traits@KPAVCMail@@U?$less@K@std@@V?$allocator@U?$pair@$$CBKPAVCMail@@@std@@@3@$0A@@std@@@std@@_N@2@ABU?$pair@$$CBKPAVCMail@@@2@@Z ; std::_Tree<std::_Tmap_traits<unsigned long,CMail *,std::less<unsigned long>,std::allocator<std::pair<unsigned long const ,CMail *> >,0> >::insert
; Function compile flags: /Ogty
;	COMDAT ?insert@?$_Tree@V?$_Tmap_traits@KPAVCMail@@U?$less@K@std@@V?$allocator@U?$pair@$$CBKPAVCMail@@@std@@@3@$0A@@std@@@std@@QAE?AU?$pair@Viterator@?$_Tree@V?$_Tmap_traits@KPAVCMail@@U?$less@K@std@@V?$allocator@U?$pair@$$CBKPAVCMail@@@std@@@3@$0A@@std@@@std@@_N@2@ABU?$pair@$$CBKPAVCMail@@@2@@Z
_TEXT	SEGMENT
__Addleft$ = -4						; size = 1
___$ReturnUdt$ = 8					; size = 4
$T211674 = 12						; size = 4
$T211672 = 12						; size = 4
__Where$200052 = 12					; size = 4
__Val$ = 12						; size = 4
?insert@?$_Tree@V?$_Tmap_traits@KPAVCMail@@U?$less@K@std@@V?$allocator@U?$pair@$$CBKPAVCMail@@@std@@@3@$0A@@std@@@std@@QAE?AU?$pair@Viterator@?$_Tree@V?$_Tmap_traits@KPAVCMail@@U?$less@K@std@@V?$allocator@U?$pair@$$CBKPAVCMail@@@std@@@3@$0A@@std@@@std@@_N@2@ABU?$pair@$$CBKPAVCMail@@@2@@Z PROC NEAR ; std::_Tree<std::_Tmap_traits<unsigned long,CMail *,std::less<unsigned long>,std::allocator<std::pair<unsigned long const ,CMail *> >,0> >::insert, COMDAT
; _this$ = ecx

; 477  : 		{	// try to insert node with value _Val

  00000	51		 push	 ecx
  00001	55		 push	 ebp

; 478  : 		_Nodeptr _Trynode = _Root();
; 479  : 		_Nodeptr _Wherenode = _Myhead;
; 480  : 		bool _Addleft = true;	// add to left of head if tree empty
; 481  : 		while (!_Isnil(_Trynode))

  00002	8b 6c 24 10	 mov	 ebp, DWORD PTR __Val$[esp+4]
  00006	56		 push	 esi
  00007	57		 push	 edi
  00008	8b f9		 mov	 edi, ecx
  0000a	8b 77 04	 mov	 esi, DWORD PTR [edi+4]
  0000d	8b 46 04	 mov	 eax, DWORD PTR [esi+4]
  00010	8a 50 15	 mov	 dl, BYTE PTR [eax+21]
  00013	84 d2		 test	 dl, dl
  00015	b1 01		 mov	 cl, 1
  00017	88 4c 24 0c	 mov	 BYTE PTR __Addleft$[esp+16], cl
  0001b	75 20		 jne	 SHORT $L200042
  0001d	8b 55 00	 mov	 edx, DWORD PTR [ebp]
$L200041:

; 482  : 			{	// look for leaf to insert before (_Addleft) or after
; 483  : 			_Wherenode = _Trynode;
; 484  : 			_Addleft = this->comp(this->_Kfn(_Val), _Key(_Trynode));

  00020	3b 50 0c	 cmp	 edx, DWORD PTR [eax+12]
  00023	0f 92 c1	 setb	 cl

; 485  : 			_Trynode = _Addleft ? _Left(_Trynode) : _Right(_Trynode);

  00026	84 c9		 test	 cl, cl
  00028	8b f0		 mov	 esi, eax
  0002a	88 4c 24 0c	 mov	 BYTE PTR __Addleft$[esp+16], cl
  0002e	74 04		 je	 SHORT $L211666
  00030	8b 00		 mov	 eax, DWORD PTR [eax]
  00032	eb 03		 jmp	 SHORT $L211667
$L211666:
  00034	8b 40 08	 mov	 eax, DWORD PTR [eax+8]
$L211667:

; 478  : 		_Nodeptr _Trynode = _Root();
; 479  : 		_Nodeptr _Wherenode = _Myhead;
; 480  : 		bool _Addleft = true;	// add to left of head if tree empty
; 481  : 		while (!_Isnil(_Trynode))

  00037	80 78 15 00	 cmp	 BYTE PTR [eax+21], 0
  0003b	74 e3		 je	 SHORT $L200041
$L200042:

; 486  : 			}
; 487  : 
; 488  : 		if (this->_Multi)
; 489  : 			return (_Pairib(_Insert(_Addleft, _Wherenode, _Val), true));
; 490  : 		else
; 491  : 			{	// insert only if unique
; 492  : 			iterator _Where = _TREE_ITERATOR(_Wherenode);
; 493  : 			if (!_Addleft)

  0003d	84 c9		 test	 cl, cl
  0003f	8b d6		 mov	 edx, esi
  00041	89 54 24 18	 mov	 DWORD PTR __Where$200052[esp+12], edx
  00045	74 33		 je	 SHORT $L211765

; 494  : 				;	// need to test if insert after is okay
; 495  : 			else if (_Where == begin())

  00047	8b 47 04	 mov	 eax, DWORD PTR [edi+4]
  0004a	3b 30		 cmp	 esi, DWORD PTR [eax]

; 496  : 				return (_Pairib(_Insert(true, _Wherenode, _Val), true));

  0004c	8d 4c 24 18	 lea	 ecx, DWORD PTR $T211672[esp+12]
  00050	75 1f		 jne	 SHORT $L200057
  00052	55		 push	 ebp
  00053	56		 push	 esi
  00054	6a 01		 push	 1
  00056	51		 push	 ecx
  00057	8b cf		 mov	 ecx, edi
  00059	e8 00 00 00 00	 call	 ?_Insert@?$_Tree@V?$_Tmap_traits@KPAVCMail@@U?$less@K@std@@V?$allocator@U?$pair@$$CBKPAVCMail@@@std@@@3@$0A@@std@@@std@@IAE?AViterator@12@_NPAU_Node@?$_Tree_nod@V?$_Tmap_traits@KPAVCMail@@U?$less@K@std@@V?$allocator@U?$pair@$$CBKPAVCMail@@@std@@@3@$0A@@std@@@2@ABU?$pair@$$CBKPAVCMail@@@2@@Z ; std::_Tree<std::_Tmap_traits<unsigned long,CMail *,std::less<unsigned long>,std::allocator<std::pair<unsigned long const ,CMail *> >,0> >::_Insert
  0005e	8b 10		 mov	 edx, DWORD PTR [eax]
  00060	8b 44 24 14	 mov	 eax, DWORD PTR ___$ReturnUdt$[esp+12]
  00064	5f		 pop	 edi
  00065	5e		 pop	 esi
  00066	c6 40 04 01	 mov	 BYTE PTR [eax+4], 1

; 502  : 			else
; 503  : 				return (_Pairib(_Where, false));

  0006a	89 10		 mov	 DWORD PTR [eax], edx
  0006c	5d		 pop	 ebp

; 504  : 			}
; 505  : 		}

  0006d	59		 pop	 ecx
  0006e	c2 08 00	 ret	 8
$L200057:

; 497  : 			else
; 498  : 				--_Where;	// need to test if insert before is okay

  00071	e8 00 00 00 00	 call	 ?_Dec@const_iterator@?$_Tree@V?$_Tmap_traits@KPAVCMail@@U?$less@K@std@@V?$allocator@U?$pair@$$CBKPAVCMail@@@std@@@3@$0A@@std@@@std@@QAEXXZ ; std::_Tree<std::_Tmap_traits<unsigned long,CMail *,std::less<unsigned long>,std::allocator<std::pair<unsigned long const ,CMail *> >,0> >::const_iterator::_Dec
  00076	8b 54 24 18	 mov	 edx, DWORD PTR __Where$200052[esp+12]
$L211765:

; 499  : 
; 500  : 			if (this->comp(_Key(_Where._Mynode()), this->_Kfn(_Val)))

  0007a	8b 42 0c	 mov	 eax, DWORD PTR [edx+12]
  0007d	3b 45 00	 cmp	 eax, DWORD PTR [ebp]
  00080	73 26		 jae	 SHORT $L200062

; 501  : 				return (_Pairib(_Insert(_Addleft, _Wherenode, _Val), true));

  00082	8b 4c 24 0c	 mov	 ecx, DWORD PTR __Addleft$[esp+16]
  00086	55		 push	 ebp
  00087	56		 push	 esi
  00088	51		 push	 ecx
  00089	8d 54 24 24	 lea	 edx, DWORD PTR $T211674[esp+24]
  0008d	52		 push	 edx
  0008e	8b cf		 mov	 ecx, edi
  00090	e8 00 00 00 00	 call	 ?_Insert@?$_Tree@V?$_Tmap_traits@KPAVCMail@@U?$less@K@std@@V?$allocator@U?$pair@$$CBKPAVCMail@@@std@@@3@$0A@@std@@@std@@IAE?AViterator@12@_NPAU_Node@?$_Tree_nod@V?$_Tmap_traits@KPAVCMail@@U?$less@K@std@@V?$allocator@U?$pair@$$CBKPAVCMail@@@std@@@3@$0A@@std@@@2@ABU?$pair@$$CBKPAVCMail@@@2@@Z ; std::_Tree<std::_Tmap_traits<unsigned long,CMail *,std::less<unsigned long>,std::allocator<std::pair<unsigned long const ,CMail *> >,0> >::_Insert
  00095	8b 08		 mov	 ecx, DWORD PTR [eax]
  00097	8b 44 24 14	 mov	 eax, DWORD PTR ___$ReturnUdt$[esp+12]
  0009b	5f		 pop	 edi
  0009c	5e		 pop	 esi
  0009d	89 08		 mov	 DWORD PTR [eax], ecx
  0009f	c6 40 04 01	 mov	 BYTE PTR [eax+4], 1
  000a3	5d		 pop	 ebp

; 504  : 			}
; 505  : 		}

  000a4	59		 pop	 ecx
  000a5	c2 08 00	 ret	 8
$L200062:

; 502  : 			else
; 503  : 				return (_Pairib(_Where, false));

  000a8	8b 44 24 14	 mov	 eax, DWORD PTR ___$ReturnUdt$[esp+12]
  000ac	5f		 pop	 edi
  000ad	5e		 pop	 esi
  000ae	c6 40 04 00	 mov	 BYTE PTR [eax+4], 0
  000b2	89 10		 mov	 DWORD PTR [eax], edx
  000b4	5d		 pop	 ebp

; 504  : 			}
; 505  : 		}

  000b5	59		 pop	 ecx
  000b6	c2 08 00	 ret	 8
?insert@?$_Tree@V?$_Tmap_traits@KPAVCMail@@U?$less@K@std@@V?$allocator@U?$pair@$$CBKPAVCMail@@@std@@@3@$0A@@std@@@std@@QAE?AU?$pair@Viterator@?$_Tree@V?$_Tmap_traits@KPAVCMail@@U?$less@K@std@@V?$allocator@U?$pair@$$CBKPAVCMail@@@std@@@3@$0A@@std@@@std@@_N@2@ABU?$pair@$$CBKPAVCMail@@@2@@Z ENDP ; std::_Tree<std::_Tmap_traits<unsigned long,CMail *,std::less<unsigned long>,std::allocator<std::pair<unsigned long const ,CMail *> >,0> >::insert
_TEXT	ENDS
PUBLIC	?insert@?$_Tree@V?$_Tmap_traits@KPAVCMailBox@@U?$less@K@std@@V?$allocator@U?$pair@$$CBKPAVCMailBox@@@std@@@3@$0A@@std@@@std@@QAE?AU?$pair@Viterator@?$_Tree@V?$_Tmap_traits@KPAVCMailBox@@U?$less@K@std@@V?$allocator@U?$pair@$$CBKPAVCMailBox@@@std@@@3@$0A@@std@@@std@@_N@2@ABU?$pair@$$CBKPAVCMailBox@@@2@@Z ; std::_Tree<std::_Tmap_traits<unsigned long,CMailBox *,std::less<unsigned long>,std::allocator<std::pair<unsigned long const ,CMailBox *> >,0> >::insert
; Function compile flags: /Ogty
;	COMDAT ?insert@?$_Tree@V?$_Tmap_traits@KPAVCMailBox@@U?$less@K@std@@V?$allocator@U?$pair@$$CBKPAVCMailBox@@@std@@@3@$0A@@std@@@std@@QAE?AU?$pair@Viterator@?$_Tree@V?$_Tmap_traits@KPAVCMailBox@@U?$less@K@std@@V?$allocator@U?$pair@$$CBKPAVCMailBox@@@std@@@3@$0A@@std@@@std@@_N@2@ABU?$pair@$$CBKPAVCMailBox@@@2@@Z
_TEXT	SEGMENT
__Addleft$ = -4						; size = 1
___$ReturnUdt$ = 8					; size = 4
$T211810 = 12						; size = 4
$T211808 = 12						; size = 4
__Where$200144 = 12					; size = 4
__Val$ = 12						; size = 4
?insert@?$_Tree@V?$_Tmap_traits@KPAVCMailBox@@U?$less@K@std@@V?$allocator@U?$pair@$$CBKPAVCMailBox@@@std@@@3@$0A@@std@@@std@@QAE?AU?$pair@Viterator@?$_Tree@V?$_Tmap_traits@KPAVCMailBox@@U?$less@K@std@@V?$allocator@U?$pair@$$CBKPAVCMailBox@@@std@@@3@$0A@@std@@@std@@_N@2@ABU?$pair@$$CBKPAVCMailBox@@@2@@Z PROC NEAR ; std::_Tree<std::_Tmap_traits<unsigned long,CMailBox *,std::less<unsigned long>,std::allocator<std::pair<unsigned long const ,CMailBox *> >,0> >::insert, COMDAT
; _this$ = ecx

; 477  : 		{	// try to insert node with value _Val

  00000	51		 push	 ecx
  00001	55		 push	 ebp

; 478  : 		_Nodeptr _Trynode = _Root();
; 479  : 		_Nodeptr _Wherenode = _Myhead;
; 480  : 		bool _Addleft = true;	// add to left of head if tree empty
; 481  : 		while (!_Isnil(_Trynode))

  00002	8b 6c 24 10	 mov	 ebp, DWORD PTR __Val$[esp+4]
  00006	56		 push	 esi
  00007	57		 push	 edi
  00008	8b f9		 mov	 edi, ecx
  0000a	8b 77 04	 mov	 esi, DWORD PTR [edi+4]
  0000d	8b 46 04	 mov	 eax, DWORD PTR [esi+4]
  00010	8a 50 15	 mov	 dl, BYTE PTR [eax+21]
  00013	84 d2		 test	 dl, dl
  00015	b1 01		 mov	 cl, 1
  00017	88 4c 24 0c	 mov	 BYTE PTR __Addleft$[esp+16], cl
  0001b	75 20		 jne	 SHORT $L200134
  0001d	8b 55 00	 mov	 edx, DWORD PTR [ebp]
$L200133:

; 482  : 			{	// look for leaf to insert before (_Addleft) or after
; 483  : 			_Wherenode = _Trynode;
; 484  : 			_Addleft = this->comp(this->_Kfn(_Val), _Key(_Trynode));

  00020	3b 50 0c	 cmp	 edx, DWORD PTR [eax+12]
  00023	0f 92 c1	 setb	 cl

; 485  : 			_Trynode = _Addleft ? _Left(_Trynode) : _Right(_Trynode);

  00026	84 c9		 test	 cl, cl
  00028	8b f0		 mov	 esi, eax
  0002a	88 4c 24 0c	 mov	 BYTE PTR __Addleft$[esp+16], cl
  0002e	74 04		 je	 SHORT $L211802
  00030	8b 00		 mov	 eax, DWORD PTR [eax]
  00032	eb 03		 jmp	 SHORT $L211803
$L211802:
  00034	8b 40 08	 mov	 eax, DWORD PTR [eax+8]
$L211803:

; 478  : 		_Nodeptr _Trynode = _Root();
; 479  : 		_Nodeptr _Wherenode = _Myhead;
; 480  : 		bool _Addleft = true;	// add to left of head if tree empty
; 481  : 		while (!_Isnil(_Trynode))

  00037	80 78 15 00	 cmp	 BYTE PTR [eax+21], 0
  0003b	74 e3		 je	 SHORT $L200133
$L200134:

; 486  : 			}
; 487  : 
; 488  : 		if (this->_Multi)
; 489  : 			return (_Pairib(_Insert(_Addleft, _Wherenode, _Val), true));
; 490  : 		else
; 491  : 			{	// insert only if unique
; 492  : 			iterator _Where = _TREE_ITERATOR(_Wherenode);
; 493  : 			if (!_Addleft)

  0003d	84 c9		 test	 cl, cl
  0003f	8b d6		 mov	 edx, esi
  00041	89 54 24 18	 mov	 DWORD PTR __Where$200144[esp+12], edx
  00045	74 33		 je	 SHORT $L211901

; 494  : 				;	// need to test if insert after is okay
; 495  : 			else if (_Where == begin())

  00047	8b 47 04	 mov	 eax, DWORD PTR [edi+4]
  0004a	3b 30		 cmp	 esi, DWORD PTR [eax]

; 496  : 				return (_Pairib(_Insert(true, _Wherenode, _Val), true));

  0004c	8d 4c 24 18	 lea	 ecx, DWORD PTR $T211808[esp+12]
  00050	75 1f		 jne	 SHORT $L200149
  00052	55		 push	 ebp
  00053	56		 push	 esi
  00054	6a 01		 push	 1
  00056	51		 push	 ecx
  00057	8b cf		 mov	 ecx, edi
  00059	e8 00 00 00 00	 call	 ?_Insert@?$_Tree@V?$_Tmap_traits@KPAVCMailBox@@U?$less@K@std@@V?$allocator@U?$pair@$$CBKPAVCMailBox@@@std@@@3@$0A@@std@@@std@@IAE?AViterator@12@_NPAU_Node@?$_Tree_nod@V?$_Tmap_traits@KPAVCMailBox@@U?$less@K@std@@V?$allocator@U?$pair@$$CBKPAVCMailBox@@@std@@@3@$0A@@std@@@2@ABU?$pair@$$CBKPAVCMailBox@@@2@@Z ; std::_Tree<std::_Tmap_traits<unsigned long,CMailBox *,std::less<unsigned long>,std::allocator<std::pair<unsigned long const ,CMailBox *> >,0> >::_Insert
  0005e	8b 10		 mov	 edx, DWORD PTR [eax]
  00060	8b 44 24 14	 mov	 eax, DWORD PTR ___$ReturnUdt$[esp+12]
  00064	5f		 pop	 edi
  00065	5e		 pop	 esi
  00066	c6 40 04 01	 mov	 BYTE PTR [eax+4], 1

; 502  : 			else
; 503  : 				return (_Pairib(_Where, false));

  0006a	89 10		 mov	 DWORD PTR [eax], edx
  0006c	5d		 pop	 ebp

; 504  : 			}
; 505  : 		}

  0006d	59		 pop	 ecx
  0006e	c2 08 00	 ret	 8
$L200149:

; 497  : 			else
; 498  : 				--_Where;	// need to test if insert before is okay

  00071	e8 00 00 00 00	 call	 ?_Dec@const_iterator@?$_Tree@V?$_Tmap_traits@KPAVCMailBox@@U?$less@K@std@@V?$allocator@U?$pair@$$CBKPAVCMailBox@@@std@@@3@$0A@@std@@@std@@QAEXXZ ; std::_Tree<std::_Tmap_traits<unsigned long,CMailBox *,std::less<unsigned long>,std::allocator<std::pair<unsigned long const ,CMailBox *> >,0> >::const_iterator::_Dec
  00076	8b 54 24 18	 mov	 edx, DWORD PTR __Where$200144[esp+12]
$L211901:

; 499  : 
; 500  : 			if (this->comp(_Key(_Where._Mynode()), this->_Kfn(_Val)))

  0007a	8b 42 0c	 mov	 eax, DWORD PTR [edx+12]
  0007d	3b 45 00	 cmp	 eax, DWORD PTR [ebp]
  00080	73 26		 jae	 SHORT $L200154

; 501  : 				return (_Pairib(_Insert(_Addleft, _Wherenode, _Val), true));

  00082	8b 4c 24 0c	 mov	 ecx, DWORD PTR __Addleft$[esp+16]
  00086	55		 push	 ebp
  00087	56		 push	 esi
  00088	51		 push	 ecx
  00089	8d 54 24 24	 lea	 edx, DWORD PTR $T211810[esp+24]
  0008d	52		 push	 edx
  0008e	8b cf		 mov	 ecx, edi
  00090	e8 00 00 00 00	 call	 ?_Insert@?$_Tree@V?$_Tmap_traits@KPAVCMailBox@@U?$less@K@std@@V?$allocator@U?$pair@$$CBKPAVCMailBox@@@std@@@3@$0A@@std@@@std@@IAE?AViterator@12@_NPAU_Node@?$_Tree_nod@V?$_Tmap_traits@KPAVCMailBox@@U?$less@K@std@@V?$allocator@U?$pair@$$CBKPAVCMailBox@@@std@@@3@$0A@@std@@@2@ABU?$pair@$$CBKPAVCMailBox@@@2@@Z ; std::_Tree<std::_Tmap_traits<unsigned long,CMailBox *,std::less<unsigned long>,std::allocator<std::pair<unsigned long const ,CMailBox *> >,0> >::_Insert
  00095	8b 08		 mov	 ecx, DWORD PTR [eax]
  00097	8b 44 24 14	 mov	 eax, DWORD PTR ___$ReturnUdt$[esp+12]
  0009b	5f		 pop	 edi
  0009c	5e		 pop	 esi
  0009d	89 08		 mov	 DWORD PTR [eax], ecx
  0009f	c6 40 04 01	 mov	 BYTE PTR [eax+4], 1
  000a3	5d		 pop	 ebp

; 504  : 			}
; 505  : 		}

  000a4	59		 pop	 ecx
  000a5	c2 08 00	 ret	 8
$L200154:

; 502  : 			else
; 503  : 				return (_Pairib(_Where, false));

  000a8	8b 44 24 14	 mov	 eax, DWORD PTR ___$ReturnUdt$[esp+12]
  000ac	5f		 pop	 edi
  000ad	5e		 pop	 esi
  000ae	c6 40 04 00	 mov	 BYTE PTR [eax+4], 0
  000b2	89 10		 mov	 DWORD PTR [eax], edx
  000b4	5d		 pop	 ebp

; 504  : 			}
; 505  : 		}

  000b5	59		 pop	 ecx
  000b6	c2 08 00	 ret	 8
?insert@?$_Tree@V?$_Tmap_traits@KPAVCMailBox@@U?$less@K@std@@V?$allocator@U?$pair@$$CBKPAVCMailBox@@@std@@@3@$0A@@std@@@std@@QAE?AU?$pair@Viterator@?$_Tree@V?$_Tmap_traits@KPAVCMailBox@@U?$less@K@std@@V?$allocator@U?$pair@$$CBKPAVCMailBox@@@std@@@3@$0A@@std@@@std@@_N@2@ABU?$pair@$$CBKPAVCMailBox@@@2@@Z ENDP ; std::_Tree<std::_Tmap_traits<unsigned long,CMailBox *,std::less<unsigned long>,std::allocator<std::pair<unsigned long const ,CMailBox *> >,0> >::insert
_TEXT	ENDS
PUBLIC	?_Buy@?$vector@PAVCMail@@V?$allocator@PAVCMail@@@std@@@std@@IAE_NI@Z ; std::vector<CMail *,std::allocator<CMail *> >::_Buy
; Function compile flags: /Ogty
; File c:\program files\microsoft visual studio .net 2003\vc7\include\vector
;	COMDAT ?_Buy@?$vector@PAVCMail@@V?$allocator@PAVCMail@@@std@@@std@@IAE_NI@Z
_TEXT	SEGMENT
__Capacity$ = 8						; size = 4
?_Buy@?$vector@PAVCMail@@V?$allocator@PAVCMail@@@std@@@std@@IAE_NI@Z PROC NEAR ; std::vector<CMail *,std::allocator<CMail *> >::_Buy, COMDAT
; _this$ = ecx

; 771  : 		_Myfirst = 0, _Mylast = 0, _Myend = 0;
; 772  : 		if (_Capacity == 0)

  00000	8b 44 24 04	 mov	 eax, DWORD PTR __Capacity$[esp-4]
  00004	56		 push	 esi
  00005	8b f1		 mov	 esi, ecx
  00007	33 c9		 xor	 ecx, ecx
  00009	3b c1		 cmp	 eax, ecx
  0000b	89 4e 04	 mov	 DWORD PTR [esi+4], ecx
  0000e	89 4e 08	 mov	 DWORD PTR [esi+8], ecx
  00011	89 4e 0c	 mov	 DWORD PTR [esi+12], ecx
  00014	75 06		 jne	 SHORT $L200388

; 773  : 			return (false);

  00016	32 c0		 xor	 al, al
  00018	5e		 pop	 esi

; 783  : 		}

  00019	c2 04 00	 ret	 4
$L200388:

; 774  : 		else if (max_size() < _Capacity)

  0001c	3d ff ff ff 3f	 cmp	 eax, 1073741823		; 3fffffffH
  00021	76 07		 jbe	 SHORT $L200390

; 775  : 			_Xlen();	// result too long

  00023	8b ce		 mov	 ecx, esi
  00025	e8 00 00 00 00	 call	 ?_Xlen@?$vector@PAVCMail@@V?$allocator@PAVCMail@@@std@@@std@@IBEXXZ ; std::vector<CMail *,std::allocator<CMail *> >::_Xlen
$L200390:
  0002a	57		 push	 edi

; 776  : 		else
; 777  : 			{	// nonempty array, allocate storage
; 778  : 			_Myfirst = this->_Alval.allocate(_Capacity);

  0002b	8d 3c 85 00 00
	00 00		 lea	 edi, DWORD PTR [eax*4]
  00032	57		 push	 edi
  00033	e8 00 00 00 00	 call	 ??2@YAPAXI@Z		; operator new

; 779  : 			_Mylast = _Myfirst;
; 780  : 			_Myend = _Myfirst + _Capacity;

  00038	03 f8		 add	 edi, eax
  0003a	83 c4 04	 add	 esp, 4
  0003d	89 7e 0c	 mov	 DWORD PTR [esi+12], edi
  00040	89 46 04	 mov	 DWORD PTR [esi+4], eax
  00043	89 46 08	 mov	 DWORD PTR [esi+8], eax
  00046	5f		 pop	 edi

; 781  : 			}
; 782  : 		return (true);

  00047	b0 01		 mov	 al, 1
  00049	5e		 pop	 esi

; 783  : 		}

  0004a	c2 04 00	 ret	 4
$L211962:
?_Buy@?$vector@PAVCMail@@V?$allocator@PAVCMail@@@std@@@std@@IAE_NI@Z ENDP ; std::vector<CMail *,std::allocator<CMail *> >::_Buy
_TEXT	ENDS
PUBLIC	?erase@?$_Tree@V?$_Tmap_traits@KPAVCMail@@U?$less@K@std@@V?$allocator@U?$pair@$$CBKPAVCMail@@@std@@@3@$0A@@std@@@std@@QAE?AViterator@12@V312@0@Z ; std::_Tree<std::_Tmap_traits<unsigned long,CMail *,std::less<unsigned long>,std::allocator<std::pair<unsigned long const ,CMail *> >,0> >::erase
; Function compile flags: /Ogty
; File c:\program files\microsoft visual studio .net 2003\vc7\include\xtree
;	COMDAT ?erase@?$_Tree@V?$_Tmap_traits@KPAVCMail@@U?$less@K@std@@V?$allocator@U?$pair@$$CBKPAVCMail@@@std@@@3@$0A@@std@@@std@@QAE?AViterator@12@V312@0@Z
_TEXT	SEGMENT
___$ReturnUdt$ = 8					; size = 4
$T211968 = 12						; size = 4
__First$ = 12						; size = 4
__Last$ = 16						; size = 4
?erase@?$_Tree@V?$_Tmap_traits@KPAVCMail@@U?$less@K@std@@V?$allocator@U?$pair@$$CBKPAVCMail@@@std@@@3@$0A@@std@@@std@@QAE?AViterator@12@V312@0@Z PROC NEAR ; std::_Tree<std::_Tmap_traits<unsigned long,CMail *,std::less<unsigned long>,std::allocator<std::pair<unsigned long const ,CMail *> >,0> >::erase, COMDAT
; _this$ = ecx

; 750  : 		{	// erase [_First, _Last)

  00000	53		 push	 ebx

; 751  : 		if (_First == begin() && _Last == end())

  00001	8b 5c 24 10	 mov	 ebx, DWORD PTR __Last$[esp]
  00005	56		 push	 esi
  00006	8b 74 24 10	 mov	 esi, DWORD PTR __First$[esp+4]
  0000a	57		 push	 edi
  0000b	8b f9		 mov	 edi, ecx
  0000d	8b 47 04	 mov	 eax, DWORD PTR [edi+4]
  00010	3b 30		 cmp	 esi, DWORD PTR [eax]
  00012	75 38		 jne	 SHORT $L212300
  00014	3b d8		 cmp	 ebx, eax
  00016	75 34		 jne	 SHORT $L212300

; 752  : 			{	// erase all
; 753  : 			clear();

  00018	8b 40 04	 mov	 eax, DWORD PTR [eax+4]
  0001b	50		 push	 eax
  0001c	8b cf		 mov	 ecx, edi
  0001e	e8 00 00 00 00	 call	 ?_Erase@?$_Tree@V?$_Tmap_traits@KPAVCMail@@U?$less@K@std@@V?$allocator@U?$pair@$$CBKPAVCMail@@@std@@@3@$0A@@std@@@std@@IAEXPAU_Node@?$_Tree_nod@V?$_Tmap_traits@KPAVCMail@@U?$less@K@std@@V?$allocator@U?$pair@$$CBKPAVCMail@@@std@@@3@$0A@@std@@@2@@Z ; std::_Tree<std::_Tmap_traits<unsigned long,CMail *,std::less<unsigned long>,std::allocator<std::pair<unsigned long const ,CMail *> >,0> >::_Erase
  00023	8b 47 04	 mov	 eax, DWORD PTR [edi+4]
  00026	89 40 04	 mov	 DWORD PTR [eax+4], eax
  00029	8b 47 04	 mov	 eax, DWORD PTR [edi+4]
  0002c	c7 47 08 00 00
	00 00		 mov	 DWORD PTR [edi+8], 0
  00033	89 00		 mov	 DWORD PTR [eax], eax
  00035	8b 47 04	 mov	 eax, DWORD PTR [edi+4]
  00038	89 40 08	 mov	 DWORD PTR [eax+8], eax

; 754  : 			return (begin());

  0003b	8b 4f 04	 mov	 ecx, DWORD PTR [edi+4]
  0003e	8b 11		 mov	 edx, DWORD PTR [ecx]
  00040	8b 44 24 10	 mov	 eax, DWORD PTR ___$ReturnUdt$[esp+8]
  00044	5f		 pop	 edi
  00045	5e		 pop	 esi
  00046	89 10		 mov	 DWORD PTR [eax], edx
  00048	5b		 pop	 ebx

; 761  : 			}
; 762  : 		}

  00049	c2 0c 00	 ret	 12			; 0000000cH
$L212300:

; 755  : 			}
; 756  : 		else
; 757  : 			{	// partial erase, one at a time
; 758  : 			while (_First != _Last)

  0004c	3b f3		 cmp	 esi, ebx
  0004e	74 5b		 je	 SHORT $L200458
$L200457:

; 759  : 				erase(_First++);

  00050	8a 46 15	 mov	 al, BYTE PTR [esi+21]
  00053	84 c0		 test	 al, al
  00055	8b ce		 mov	 ecx, esi
  00057	75 41		 jne	 SHORT $L212292
  00059	8b 46 08	 mov	 eax, DWORD PTR [esi+8]
  0005c	8a 50 15	 mov	 dl, BYTE PTR [eax+21]
  0005f	84 d2		 test	 dl, dl
  00061	75 1a		 jne	 SHORT $L212302
  00063	8b f0		 mov	 esi, eax
  00065	8b 06		 mov	 eax, DWORD PTR [esi]
  00067	8a 50 15	 mov	 dl, BYTE PTR [eax+21]
  0006a	84 d2		 test	 dl, dl
  0006c	75 2c		 jne	 SHORT $L212292
  0006e	8b ff		 npad	 2
$L212280:
  00070	8b f0		 mov	 esi, eax
  00072	8b 06		 mov	 eax, DWORD PTR [esi]
  00074	8a 50 15	 mov	 dl, BYTE PTR [eax+21]
  00077	84 d2		 test	 dl, dl
  00079	74 f5		 je	 SHORT $L212280
  0007b	eb 1d		 jmp	 SHORT $L212292
$L212302:
  0007d	8b 46 04	 mov	 eax, DWORD PTR [esi+4]
  00080	8a 50 15	 mov	 dl, BYTE PTR [eax+21]
  00083	84 d2		 test	 dl, dl
  00085	75 11		 jne	 SHORT $L212295
$L212294:
  00087	3b 70 08	 cmp	 esi, DWORD PTR [eax+8]
  0008a	75 0c		 jne	 SHORT $L212295
  0008c	8b f0		 mov	 esi, eax
  0008e	8b 40 04	 mov	 eax, DWORD PTR [eax+4]
  00091	8a 50 15	 mov	 dl, BYTE PTR [eax+21]
  00094	84 d2		 test	 dl, dl
  00096	74 ef		 je	 SHORT $L212294
$L212295:
  00098	8b f0		 mov	 esi, eax
$L212292:
  0009a	51		 push	 ecx
  0009b	8d 44 24 18	 lea	 eax, DWORD PTR $T211968[esp+12]
  0009f	50		 push	 eax
  000a0	8b cf		 mov	 ecx, edi
  000a2	e8 00 00 00 00	 call	 ?erase@?$_Tree@V?$_Tmap_traits@KPAVCMail@@U?$less@K@std@@V?$allocator@U?$pair@$$CBKPAVCMail@@@std@@@3@$0A@@std@@@std@@QAE?AViterator@12@V312@@Z ; std::_Tree<std::_Tmap_traits<unsigned long,CMail *,std::less<unsigned long>,std::allocator<std::pair<unsigned long const ,CMail *> >,0> >::erase
  000a7	3b f3		 cmp	 esi, ebx
  000a9	75 a5		 jne	 SHORT $L200457
$L200458:

; 760  : 			return (_First);

  000ab	8b 44 24 10	 mov	 eax, DWORD PTR ___$ReturnUdt$[esp+8]
  000af	5f		 pop	 edi
  000b0	89 30		 mov	 DWORD PTR [eax], esi
  000b2	5e		 pop	 esi
  000b3	5b		 pop	 ebx

; 761  : 			}
; 762  : 		}

  000b4	c2 0c 00	 ret	 12			; 0000000cH
?erase@?$_Tree@V?$_Tmap_traits@KPAVCMail@@U?$less@K@std@@V?$allocator@U?$pair@$$CBKPAVCMail@@@std@@@3@$0A@@std@@@std@@QAE?AViterator@12@V312@0@Z ENDP ; std::_Tree<std::_Tmap_traits<unsigned long,CMail *,std::less<unsigned long>,std::allocator<std::pair<unsigned long const ,CMail *> >,0> >::erase
_TEXT	ENDS
PUBLIC	?_Tidy@?$_Tree@V?$_Tmap_traits@KPAVCMail@@U?$less@K@std@@V?$allocator@U?$pair@$$CBKPAVCMail@@@std@@@3@$0A@@std@@@std@@IAEXXZ ; std::_Tree<std::_Tmap_traits<unsigned long,CMail *,std::less<unsigned long>,std::allocator<std::pair<unsigned long const ,CMail *> >,0> >::_Tidy
; Function compile flags: /Ogty
;	COMDAT ?_Tidy@?$_Tree@V?$_Tmap_traits@KPAVCMail@@U?$less@K@std@@V?$allocator@U?$pair@$$CBKPAVCMail@@@std@@@3@$0A@@std@@@std@@IAEXXZ
_TEXT	SEGMENT
$T212310 = -4						; size = 4
?_Tidy@?$_Tree@V?$_Tmap_traits@KPAVCMail@@U?$less@K@std@@V?$allocator@U?$pair@$$CBKPAVCMail@@@std@@@3@$0A@@std@@@std@@IAEXXZ PROC NEAR ; std::_Tree<std::_Tmap_traits<unsigned long,CMail *,std::less<unsigned long>,std::allocator<std::pair<unsigned long const ,CMail *> >,0> >::_Tidy, COMDAT
; _this$ = ecx

; 1142 : 		{	// free all storage

  00000	51		 push	 ecx
  00001	56		 push	 esi
  00002	8b f1		 mov	 esi, ecx

; 1143 : 		erase(begin(), end());

  00004	8b 46 04	 mov	 eax, DWORD PTR [esi+4]
  00007	8b 08		 mov	 ecx, DWORD PTR [eax]
  00009	50		 push	 eax
  0000a	51		 push	 ecx
  0000b	8d 44 24 0c	 lea	 eax, DWORD PTR $T212310[esp+16]
  0000f	50		 push	 eax
  00010	8b ce		 mov	 ecx, esi
  00012	e8 00 00 00 00	 call	 ?erase@?$_Tree@V?$_Tmap_traits@KPAVCMail@@U?$less@K@std@@V?$allocator@U?$pair@$$CBKPAVCMail@@@std@@@3@$0A@@std@@@std@@QAE?AViterator@12@V312@0@Z ; std::_Tree<std::_Tmap_traits<unsigned long,CMail *,std::less<unsigned long>,std::allocator<std::pair<unsigned long const ,CMail *> >,0> >::erase

; 1144 : 		this->_Alptr.destroy(&_Left(_Myhead));
; 1145 : 		this->_Alptr.destroy(&_Parent(_Myhead));
; 1146 : 		this->_Alptr.destroy(&_Right(_Myhead));
; 1147 : 		this->_Alnod.deallocate(_Myhead, 1);

  00017	8b 4e 04	 mov	 ecx, DWORD PTR [esi+4]
  0001a	51		 push	 ecx
  0001b	e8 00 00 00 00	 call	 ??3@YAXPAX@Z		; operator delete
  00020	83 c4 04	 add	 esp, 4

; 1148 : 		_Myhead = 0, _Mysize = 0;

  00023	33 c0		 xor	 eax, eax
  00025	89 46 04	 mov	 DWORD PTR [esi+4], eax
  00028	89 46 08	 mov	 DWORD PTR [esi+8], eax
  0002b	5e		 pop	 esi

; 1149 : 		}

  0002c	59		 pop	 ecx
  0002d	c3		 ret	 0
?_Tidy@?$_Tree@V?$_Tmap_traits@KPAVCMail@@U?$less@K@std@@V?$allocator@U?$pair@$$CBKPAVCMail@@@std@@@3@$0A@@std@@@std@@IAEXXZ ENDP ; std::_Tree<std::_Tmap_traits<unsigned long,CMail *,std::less<unsigned long>,std::allocator<std::pair<unsigned long const ,CMail *> >,0> >::_Tidy
_TEXT	ENDS
PUBLIC	?_Insert@?$list@PAVCMail@@V?$allocator@PAVCMail@@@std@@@std@@QAEXViterator@12@ABQAVCMail@@@Z ; std::list<CMail *,std::allocator<CMail *> >::_Insert
; Function compile flags: /Ogty
; File c:\program files\microsoft visual studio .net 2003\vc7\include\list
;	COMDAT ?_Insert@?$list@PAVCMail@@V?$allocator@PAVCMail@@@std@@@std@@QAEXViterator@12@ABQAVCMail@@@Z
_TEXT	SEGMENT
__Where$ = 8						; size = 4
__Val$ = 12						; size = 4
?_Insert@?$list@PAVCMail@@V?$allocator@PAVCMail@@@std@@@std@@QAEXViterator@12@ABQAVCMail@@@Z PROC NEAR ; std::list<CMail *,std::allocator<CMail *> >::_Insert, COMDAT
; _this$ = ecx

; 522  : 		_Nodeptr _Pnode = _Where._Mynode();
; 523  : 		_Nodeptr _Newnode = _Buynode(_Pnode, _Prevnode(_Pnode), _Val);

  00000	8b 44 24 08	 mov	 eax, DWORD PTR __Val$[esp-4]
  00004	53		 push	 ebx
  00005	8b 5c 24 08	 mov	 ebx, DWORD PTR __Where$[esp]
  00009	56		 push	 esi
  0000a	57		 push	 edi
  0000b	8b f9		 mov	 edi, ecx
  0000d	8b 4b 04	 mov	 ecx, DWORD PTR [ebx+4]
  00010	50		 push	 eax
  00011	51		 push	 ecx
  00012	53		 push	 ebx
  00013	8b cf		 mov	 ecx, edi
  00015	e8 00 00 00 00	 call	 ?_Buynode@?$list@PAVCMail@@V?$allocator@PAVCMail@@@std@@@std@@IAEPAU_Node@?$_List_nod@PAVCMail@@V?$allocator@PAVCMail@@@std@@@2@PAU342@0ABQAVCMail@@@Z ; std::list<CMail *,std::allocator<CMail *> >::_Buynode

; 524  : 		_Incsize(1);

  0001a	6a 01		 push	 1
  0001c	8b cf		 mov	 ecx, edi
  0001e	8b f0		 mov	 esi, eax
  00020	e8 00 00 00 00	 call	 ?_Incsize@?$list@PAVCMail@@V?$allocator@PAVCMail@@@std@@@std@@IAEXI@Z ; std::list<CMail *,std::allocator<CMail *> >::_Incsize

; 525  : 		_Prevnode(_Pnode) = _Newnode;

  00025	89 73 04	 mov	 DWORD PTR [ebx+4], esi

; 526  : 		_Nextnode(_Prevnode(_Newnode)) = _Newnode;

  00028	8b 56 04	 mov	 edx, DWORD PTR [esi+4]
  0002b	5f		 pop	 edi
  0002c	89 32		 mov	 DWORD PTR [edx], esi
  0002e	5e		 pop	 esi
  0002f	5b		 pop	 ebx

; 527  : 		}

  00030	c2 08 00	 ret	 8
?_Insert@?$list@PAVCMail@@V?$allocator@PAVCMail@@@std@@@std@@QAEXViterator@12@ABQAVCMail@@@Z ENDP ; std::list<CMail *,std::allocator<CMail *> >::_Insert
_TEXT	ENDS
PUBLIC	?_Insert_n@?$vector@PAVCMail@@V?$allocator@PAVCMail@@@std@@@std@@IAEXViterator@12@IABQAVCMail@@@Z ; std::vector<CMail *,std::allocator<CMail *> >::_Insert_n
; Function compile flags: /Ogty
; File c:\program files\microsoft visual studio .net 2003\vc7\include\vector
;	COMDAT ?_Insert_n@?$vector@PAVCMail@@V?$allocator@PAVCMail@@@std@@@std@@IAEXViterator@12@IABQAVCMail@@@Z
_TEXT	SEGMENT
__Newvec$200739 = -4					; size = 4
tv393 = 8						; size = 4
__Where$ = 8						; size = 4
tv382 = 12						; size = 4
__Count$ = 12						; size = 4
__Tmp$ = 16						; size = 4
__Val$ = 16						; size = 4
?_Insert_n@?$vector@PAVCMail@@V?$allocator@PAVCMail@@@std@@@std@@IAEXViterator@12@IABQAVCMail@@@Z PROC NEAR ; std::vector<CMail *,std::allocator<CMail *> >::_Insert_n, COMDAT
; _this$ = ecx

; 809  : 		{	// insert _Count * _Val at _Where

  00000	51		 push	 ecx

; 810  : 		_Ty _Tmp = _Val;	// in case _Val is in sequence

  00001	8b 44 24 10	 mov	 eax, DWORD PTR __Val$[esp]
  00005	56		 push	 esi
  00006	8b f1		 mov	 esi, ecx

; 811  : 		size_type _Capacity = capacity();

  00008	8b 56 04	 mov	 edx, DWORD PTR [esi+4]
  0000b	85 d2		 test	 edx, edx
  0000d	8b 08		 mov	 ecx, DWORD PTR [eax]
  0000f	57		 push	 edi
  00010	89 4c 24 18	 mov	 DWORD PTR __Tmp$[esp+8], ecx
  00014	75 04		 jne	 SHORT $L212400
  00016	33 c0		 xor	 eax, eax
  00018	eb 08		 jmp	 SHORT $L212401
$L212400:
  0001a	8b 46 0c	 mov	 eax, DWORD PTR [esi+12]
  0001d	2b c2		 sub	 eax, edx
  0001f	c1 f8 02	 sar	 eax, 2
$L212401:

; 812  : 
; 813  : 		if (_Count == 0)

  00022	8b 7c 24 14	 mov	 edi, DWORD PTR __Count$[esp+8]
  00026	85 ff		 test	 edi, edi
  00028	0f 84 ac 01 00
	00		 je	 $L200759

; 814  : 			;
; 815  : 		else if (max_size() - size() < _Count)

  0002e	85 d2		 test	 edx, edx
  00030	75 04		 jne	 SHORT $L212424
  00032	33 c9		 xor	 ecx, ecx
  00034	eb 08		 jmp	 SHORT $L212425
$L212424:
  00036	8b 4e 08	 mov	 ecx, DWORD PTR [esi+8]
  00039	2b ca		 sub	 ecx, edx
  0003b	c1 f9 02	 sar	 ecx, 2
$L212425:
  0003e	53		 push	 ebx
  0003f	bb ff ff ff 3f	 mov	 ebx, 1073741823		; 3fffffffH
  00044	2b d9		 sub	 ebx, ecx
  00046	3b df		 cmp	 ebx, edi
  00048	73 07		 jae	 SHORT $L200735

; 816  : 			_Xlen();	// result too long

  0004a	8b ce		 mov	 ecx, esi
  0004c	e8 00 00 00 00	 call	 ?_Xlen@?$vector@PAVCMail@@V?$allocator@PAVCMail@@@std@@@std@@IBEXXZ ; std::vector<CMail *,std::allocator<CMail *> >::_Xlen
$L200735:

; 817  : 		else if (_Capacity < size() + _Count)

  00051	85 d2		 test	 edx, edx
  00053	75 04		 jne	 SHORT $L212431
  00055	33 c9		 xor	 ecx, ecx
  00057	eb 08		 jmp	 SHORT $L212432
$L212431:
  00059	8b 4e 08	 mov	 ecx, DWORD PTR [esi+8]
  0005c	2b ca		 sub	 ecx, edx
  0005e	c1 f9 02	 sar	 ecx, 2
$L212432:
  00061	03 cf		 add	 ecx, edi
  00063	3b c1		 cmp	 eax, ecx
  00065	55		 push	 ebp
  00066	0f 83 d6 00 00
	00		 jae	 $L200737

; 818  : 			{	// not enough room, reallocate
; 819  : 			_Capacity = max_size() - _Capacity / 2 < _Capacity
; 820  : 				? 0 : _Capacity + _Capacity / 2;	// try to grow by 50%

  0006c	8b c8		 mov	 ecx, eax
  0006e	d1 e9		 shr	 ecx, 1
  00070	bb ff ff ff 3f	 mov	 ebx, 1073741823		; 3fffffffH
  00075	2b d9		 sub	 ebx, ecx
  00077	3b d8		 cmp	 ebx, eax
  00079	73 04		 jae	 SHORT $L212390
  0007b	33 c0		 xor	 eax, eax
  0007d	eb 02		 jmp	 SHORT $L212391
$L212390:
  0007f	03 c1		 add	 eax, ecx
$L212391:

; 821  : 			if (_Capacity < size() + _Count)

  00081	85 d2		 test	 edx, edx
  00083	75 04		 jne	 SHORT $L212454
  00085	33 c9		 xor	 ecx, ecx
  00087	eb 08		 jmp	 SHORT $L212455
$L212454:
  00089	8b 4e 08	 mov	 ecx, DWORD PTR [esi+8]
  0008c	2b ca		 sub	 ecx, edx
  0008e	c1 f9 02	 sar	 ecx, 2
$L212455:
  00091	03 cf		 add	 ecx, edi
  00093	3b c1		 cmp	 eax, ecx
  00095	73 12		 jae	 SHORT $L200738

; 822  : 				_Capacity = size() + _Count;

  00097	85 d2		 test	 edx, edx
  00099	75 04		 jne	 SHORT $L212461
  0009b	33 c0		 xor	 eax, eax
  0009d	eb 08		 jmp	 SHORT $L212462
$L212461:
  0009f	8b 46 08	 mov	 eax, DWORD PTR [esi+8]
  000a2	2b c2		 sub	 eax, edx
  000a4	c1 f8 02	 sar	 eax, 2
$L212462:
  000a7	03 c7		 add	 eax, edi
$L200738:

; 823  : 			pointer _Newvec = this->_Alval.allocate(_Capacity);

  000a9	c1 e0 02	 shl	 eax, 2
  000ac	50		 push	 eax
  000ad	89 44 24 20	 mov	 DWORD PTR tv382[esp+20], eax
  000b1	e8 00 00 00 00	 call	 ??2@YAPAXI@Z		; operator new

; 824  : 			pointer _Ptr = _Newvec;
; 825  : 
; 826  : 			_TRY_BEGIN
; 827  : 			_Ptr = _Ucopy(_Myfirst, _ITER_BASE(_Where),
; 828  : 				_Newvec);	// copy prefix

  000b6	8b 4e 04	 mov	 ecx, DWORD PTR [esi+4]
  000b9	8b 5c 24 1c	 mov	 ebx, DWORD PTR __Where$[esp+20]
  000bd	8b d0		 mov	 edx, eax
  000bf	8b c3		 mov	 eax, ebx
  000c1	2b c1		 sub	 eax, ecx
  000c3	c1 f8 02	 sar	 eax, 2
  000c6	8d 2c 85 00 00
	00 00		 lea	 ebp, DWORD PTR [eax*4]
  000cd	55		 push	 ebp
  000ce	51		 push	 ecx
  000cf	52		 push	 edx
  000d0	89 54 24 20	 mov	 DWORD PTR __Newvec$200739[esp+36], edx
  000d4	e8 00 00 00 00	 call	 _memmove
  000d9	83 c4 10	 add	 esp, 16			; 00000010H

; 829  : 			_Ptr = _Ufill(_Ptr, _Count, _Tmp);	// add new stuff

  000dc	8d 54 24 20	 lea	 edx, DWORD PTR __Tmp$[esp+16]
  000e0	52		 push	 edx
  000e1	03 c5		 add	 eax, ebp
  000e3	57		 push	 edi
  000e4	50		 push	 eax
  000e5	8b ce		 mov	 ecx, esi
  000e7	e8 00 00 00 00	 call	 ?_Ufill@?$vector@PAVCMail@@V?$allocator@PAVCMail@@@std@@@std@@IAEPAPAVCMail@@PAPAV3@IABQAV3@@Z ; std::vector<CMail *,std::allocator<CMail *> >::_Ufill

; 830  : 			_Ucopy(_ITER_BASE(_Where), _Mylast, _Ptr);	// copy suffix

  000ec	8b 4e 08	 mov	 ecx, DWORD PTR [esi+8]
  000ef	2b cb		 sub	 ecx, ebx
  000f1	c1 f9 02	 sar	 ecx, 2
  000f4	c1 e1 02	 shl	 ecx, 2
  000f7	51		 push	 ecx
  000f8	53		 push	 ebx
  000f9	50		 push	 eax
  000fa	e8 00 00 00 00	 call	 _memmove

; 831  : 			_CATCH_ALL
; 832  : 			_Destroy(_Newvec, _Ptr);
; 833  : 			this->_Alval.deallocate(_Newvec, _Capacity);
; 834  : 			_RERAISE;
; 835  : 			_CATCH_END
; 836  : 
; 837  : 			_Count += size();

  000ff	8b 46 04	 mov	 eax, DWORD PTR [esi+4]
  00102	83 c4 0c	 add	 esp, 12			; 0000000cH
  00105	85 c0		 test	 eax, eax
  00107	75 04		 jne	 SHORT $L212543
  00109	33 c9		 xor	 ecx, ecx
  0010b	eb 08		 jmp	 SHORT $L212544
$L212543:
  0010d	8b 4e 08	 mov	 ecx, DWORD PTR [esi+8]
  00110	2b c8		 sub	 ecx, eax
  00112	c1 f9 02	 sar	 ecx, 2
$L212544:
  00115	03 f9		 add	 edi, ecx

; 838  : 			if (_Myfirst != 0)

  00117	85 c0		 test	 eax, eax
  00119	74 09		 je	 SHORT $L212546

; 839  : 				{	// destroy and deallocate old array
; 840  : 				_Destroy(_Myfirst, _Mylast);
; 841  : 				this->_Alval.deallocate(_Myfirst, _Myend - _Myfirst);

  0011b	50		 push	 eax
  0011c	e8 00 00 00 00	 call	 ??3@YAXPAX@Z		; operator delete
  00121	83 c4 04	 add	 esp, 4
$L212546:

; 842  : 				}
; 843  : 			_Myend = _Newvec + _Capacity;

  00124	8b 44 24 10	 mov	 eax, DWORD PTR __Newvec$200739[esp+20]
  00128	8b 54 24 1c	 mov	 edx, DWORD PTR tv382[esp+16]
  0012c	5d		 pop	 ebp
  0012d	5b		 pop	 ebx

; 844  : 			_Mylast = _Newvec + _Count;

  0012e	8d 0c b8	 lea	 ecx, DWORD PTR [eax+edi*4]
  00131	03 d0		 add	 edx, eax
  00133	5f		 pop	 edi
  00134	89 56 0c	 mov	 DWORD PTR [esi+12], edx
  00137	89 4e 08	 mov	 DWORD PTR [esi+8], ecx

; 845  : 			_Myfirst = _Newvec;

  0013a	89 46 04	 mov	 DWORD PTR [esi+4], eax
  0013d	5e		 pop	 esi

; 873  : 			}
; 874  : 		}

  0013e	59		 pop	 ecx
  0013f	c2 0c 00	 ret	 12			; 0000000cH
$L200737:

; 846  : 			}
; 847  : 		else if ((size_type)(_Mylast - _ITER_BASE(_Where)) < _Count)

  00142	8b 6e 08	 mov	 ebp, DWORD PTR [esi+8]
  00145	8b 5c 24 18	 mov	 ebx, DWORD PTR __Where$[esp+16]
  00149	8b d5		 mov	 edx, ebp
  0014b	2b d3		 sub	 edx, ebx
  0014d	c1 fa 02	 sar	 edx, 2
  00150	3b d7		 cmp	 edx, edi

; 848  : 			{	// new stuff spills off end
; 849  : 			_Ucopy(_ITER_BASE(_Where), _Mylast,
; 850  : 				_ITER_BASE(_Where) + _Count);	// copy suffix

  00152	8d 04 bd 00 00
	00 00		 lea	 eax, DWORD PTR [edi*4]
  00159	8b ce		 mov	 ecx, esi
  0015b	89 44 24 18	 mov	 DWORD PTR tv393[esp+16], eax
  0015f	73 4b		 jae	 SHORT $L200750
  00161	03 c3		 add	 eax, ebx
  00163	50		 push	 eax
  00164	55		 push	 ebp
  00165	53		 push	 ebx
  00166	e8 00 00 00 00	 call	 ??$_Ucopy@PAPAVCMail@@@?$vector@PAVCMail@@V?$allocator@PAVCMail@@@std@@@std@@IAEPAPAVCMail@@PAPAV2@00@Z ; std::vector<CMail *,std::allocator<CMail *> >::_Ucopy<CMail * *>

; 851  : 
; 852  : 			_TRY_BEGIN
; 853  : 			_Ufill(_Mylast, _Count - (_Mylast - _ITER_BASE(_Where)),
; 854  : 				_Tmp);	// insert new stuff off end

  0016b	8b 46 08	 mov	 eax, DWORD PTR [esi+8]
  0016e	8b d0		 mov	 edx, eax
  00170	2b d3		 sub	 edx, ebx
  00172	8d 4c 24 20	 lea	 ecx, DWORD PTR __Tmp$[esp+16]
  00176	51		 push	 ecx
  00177	c1 fa 02	 sar	 edx, 2
  0017a	2b fa		 sub	 edi, edx
  0017c	57		 push	 edi
  0017d	50		 push	 eax
  0017e	8b ce		 mov	 ecx, esi
  00180	e8 00 00 00 00	 call	 ?_Ufill@?$vector@PAVCMail@@V?$allocator@PAVCMail@@@std@@@std@@IAEPAPAVCMail@@PAPAV3@IABQAV3@@Z ; std::vector<CMail *,std::allocator<CMail *> >::_Ufill

; 855  : 			_CATCH_ALL
; 856  : 			_Destroy(_ITER_BASE(_Where) + _Count, _Mylast + _Count);
; 857  : 			_RERAISE;
; 858  : 			_CATCH_END
; 859  : 
; 860  : 			_Mylast += _Count;

  00185	8b 4e 08	 mov	 ecx, DWORD PTR [esi+8]
  00188	8b 44 24 18	 mov	 eax, DWORD PTR tv393[esp+16]
  0018c	03 c8		 add	 ecx, eax
  0018e	89 4e 08	 mov	 DWORD PTR [esi+8], ecx
  00191	8b f1		 mov	 esi, ecx

; 861  : 			fill(_ITER_BASE(_Where), _Mylast - _Count,
; 862  : 				_Tmp);	// insert up to old end

  00193	8d 4c 24 20	 lea	 ecx, DWORD PTR __Tmp$[esp+16]
  00197	51		 push	 ecx
  00198	2b f0		 sub	 esi, eax
  0019a	56		 push	 esi
  0019b	53		 push	 ebx
  0019c	e8 00 00 00 00	 call	 ??$fill@PAPAVCMail@@PAV1@@std@@YAXPAPAVCMail@@0ABQAV1@@Z ; std::fill<CMail * *,CMail *>
  001a1	83 c4 0c	 add	 esp, 12			; 0000000cH
  001a4	5d		 pop	 ebp
  001a5	5b		 pop	 ebx
  001a6	5f		 pop	 edi
  001a7	5e		 pop	 esi

; 873  : 			}
; 874  : 		}

  001a8	59		 pop	 ecx
  001a9	c2 0c 00	 ret	 12			; 0000000cH
$L200750:

; 863  : 			}
; 864  : 		else
; 865  : 			{	// new stuff can all be assigned
; 866  : 			pointer _Oldend = _Mylast;
; 867  : 			_Mylast = _Ucopy(_Oldend - _Count, _Oldend,
; 868  : 				_Mylast);	// copy suffix

  001ac	55		 push	 ebp
  001ad	8b fd		 mov	 edi, ebp
  001af	2b f8		 sub	 edi, eax
  001b1	55		 push	 ebp
  001b2	57		 push	 edi
  001b3	e8 00 00 00 00	 call	 ??$_Ucopy@PAPAVCMail@@@?$vector@PAVCMail@@V?$allocator@PAVCMail@@@std@@@std@@IAEPAPAVCMail@@PAPAV2@00@Z ; std::vector<CMail *,std::allocator<CMail *> >::_Ucopy<CMail * *>

; 869  : 			copy_backward(_ITER_BASE(_Where), _Oldend - _Count,
; 870  : 				_Oldend);	// copy hole

  001b8	55		 push	 ebp
  001b9	57		 push	 edi
  001ba	53		 push	 ebx
  001bb	89 46 08	 mov	 DWORD PTR [esi+8], eax
  001be	e8 00 00 00 00	 call	 ??$copy_backward@PAPAVCMail@@PAPAV1@@std@@YAPAPAVCMail@@PAPAV1@00@Z ; std::copy_backward<CMail * *,CMail * *>

; 871  : 			fill(_ITER_BASE(_Where), _ITER_BASE(_Where) + _Count,
; 872  : 				_Tmp);	// insert into hole

  001c3	8b 44 24 24	 mov	 eax, DWORD PTR tv393[esp+28]
  001c7	8d 54 24 2c	 lea	 edx, DWORD PTR __Tmp$[esp+28]
  001cb	52		 push	 edx
  001cc	03 c3		 add	 eax, ebx
  001ce	50		 push	 eax
  001cf	53		 push	 ebx
  001d0	e8 00 00 00 00	 call	 ??$fill@PAPAVCMail@@PAV1@@std@@YAXPAPAVCMail@@0ABQAV1@@Z ; std::fill<CMail * *,CMail *>
  001d5	83 c4 18	 add	 esp, 24			; 00000018H
  001d8	5d		 pop	 ebp
  001d9	5b		 pop	 ebx
$L200759:
  001da	5f		 pop	 edi
  001db	5e		 pop	 esi

; 873  : 			}
; 874  : 		}

  001dc	59		 pop	 ecx
  001dd	c2 0c 00	 ret	 12			; 0000000cH
$L212554:
?_Insert_n@?$vector@PAVCMail@@V?$allocator@PAVCMail@@@std@@@std@@IAEXViterator@12@IABQAVCMail@@@Z ENDP ; std::vector<CMail *,std::allocator<CMail *> >::_Insert_n
_TEXT	ENDS
PUBLIC	?erase@?$_Tree@V?$_Tmap_traits@KPAVCMailBox@@U?$less@K@std@@V?$allocator@U?$pair@$$CBKPAVCMailBox@@@std@@@3@$0A@@std@@@std@@QAE?AViterator@12@V312@0@Z ; std::_Tree<std::_Tmap_traits<unsigned long,CMailBox *,std::less<unsigned long>,std::allocator<std::pair<unsigned long const ,CMailBox *> >,0> >::erase
; Function compile flags: /Ogty
; File c:\program files\microsoft visual studio .net 2003\vc7\include\xtree
;	COMDAT ?erase@?$_Tree@V?$_Tmap_traits@KPAVCMailBox@@U?$less@K@std@@V?$allocator@U?$pair@$$CBKPAVCMailBox@@@std@@@3@$0A@@std@@@std@@QAE?AViterator@12@V312@0@Z
_TEXT	SEGMENT
___$ReturnUdt$ = 8					; size = 4
$T212560 = 12						; size = 4
__First$ = 12						; size = 4
__Last$ = 16						; size = 4
?erase@?$_Tree@V?$_Tmap_traits@KPAVCMailBox@@U?$less@K@std@@V?$allocator@U?$pair@$$CBKPAVCMailBox@@@std@@@3@$0A@@std@@@std@@QAE?AViterator@12@V312@0@Z PROC NEAR ; std::_Tree<std::_Tmap_traits<unsigned long,CMailBox *,std::less<unsigned long>,std::allocator<std::pair<unsigned long const ,CMailBox *> >,0> >::erase, COMDAT
; _this$ = ecx

; 750  : 		{	// erase [_First, _Last)

  00000	53		 push	 ebx

; 751  : 		if (_First == begin() && _Last == end())

  00001	8b 5c 24 10	 mov	 ebx, DWORD PTR __Last$[esp]
  00005	56		 push	 esi
  00006	8b 74 24 10	 mov	 esi, DWORD PTR __First$[esp+4]
  0000a	57		 push	 edi
  0000b	8b f9		 mov	 edi, ecx
  0000d	8b 47 04	 mov	 eax, DWORD PTR [edi+4]
  00010	3b 30		 cmp	 esi, DWORD PTR [eax]
  00012	75 38		 jne	 SHORT $L212892
  00014	3b d8		 cmp	 ebx, eax
  00016	75 34		 jne	 SHORT $L212892

; 752  : 			{	// erase all
; 753  : 			clear();

  00018	8b 40 04	 mov	 eax, DWORD PTR [eax+4]
  0001b	50		 push	 eax
  0001c	8b cf		 mov	 ecx, edi
  0001e	e8 00 00 00 00	 call	 ?_Erase@?$_Tree@V?$_Tmap_traits@KPAVCMailBox@@U?$less@K@std@@V?$allocator@U?$pair@$$CBKPAVCMailBox@@@std@@@3@$0A@@std@@@std@@IAEXPAU_Node@?$_Tree_nod@V?$_Tmap_traits@KPAVCMailBox@@U?$less@K@std@@V?$allocator@U?$pair@$$CBKPAVCMailBox@@@std@@@3@$0A@@std@@@2@@Z ; std::_Tree<std::_Tmap_traits<unsigned long,CMailBox *,std::less<unsigned long>,std::allocator<std::pair<unsigned long const ,CMailBox *> >,0> >::_Erase
  00023	8b 47 04	 mov	 eax, DWORD PTR [edi+4]
  00026	89 40 04	 mov	 DWORD PTR [eax+4], eax
  00029	8b 47 04	 mov	 eax, DWORD PTR [edi+4]
  0002c	c7 47 08 00 00
	00 00		 mov	 DWORD PTR [edi+8], 0
  00033	89 00		 mov	 DWORD PTR [eax], eax
  00035	8b 47 04	 mov	 eax, DWORD PTR [edi+4]
  00038	89 40 08	 mov	 DWORD PTR [eax+8], eax

; 754  : 			return (begin());

  0003b	8b 4f 04	 mov	 ecx, DWORD PTR [edi+4]
  0003e	8b 11		 mov	 edx, DWORD PTR [ecx]
  00040	8b 44 24 10	 mov	 eax, DWORD PTR ___$ReturnUdt$[esp+8]
  00044	5f		 pop	 edi
  00045	5e		 pop	 esi
  00046	89 10		 mov	 DWORD PTR [eax], edx
  00048	5b		 pop	 ebx

; 761  : 			}
; 762  : 		}

  00049	c2 0c 00	 ret	 12			; 0000000cH
$L212892:

; 755  : 			}
; 756  : 		else
; 757  : 			{	// partial erase, one at a time
; 758  : 			while (_First != _Last)

  0004c	3b f3		 cmp	 esi, ebx
  0004e	74 5b		 je	 SHORT $L200915
$L200914:

; 759  : 				erase(_First++);

  00050	8a 46 15	 mov	 al, BYTE PTR [esi+21]
  00053	84 c0		 test	 al, al
  00055	8b ce		 mov	 ecx, esi
  00057	75 41		 jne	 SHORT $L212862
  00059	8b 46 08	 mov	 eax, DWORD PTR [esi+8]
  0005c	8a 50 15	 mov	 dl, BYTE PTR [eax+21]
  0005f	84 d2		 test	 dl, dl
  00061	75 1a		 jne	 SHORT $L212894
  00063	8b f0		 mov	 esi, eax
  00065	8b 06		 mov	 eax, DWORD PTR [esi]
  00067	8a 50 15	 mov	 dl, BYTE PTR [eax+21]
  0006a	84 d2		 test	 dl, dl
  0006c	75 2c		 jne	 SHORT $L212862
  0006e	8b ff		 npad	 2
$L212876:
  00070	8b f0		 mov	 esi, eax
  00072	8b 06		 mov	 eax, DWORD PTR [esi]
  00074	8a 50 15	 mov	 dl, BYTE PTR [eax+21]
  00077	84 d2		 test	 dl, dl
  00079	74 f5		 je	 SHORT $L212876
  0007b	eb 1d		 jmp	 SHORT $L212862
$L212894:
  0007d	8b 46 04	 mov	 eax, DWORD PTR [esi+4]
  00080	8a 50 15	 mov	 dl, BYTE PTR [eax+21]
  00083	84 d2		 test	 dl, dl
  00085	75 11		 jne	 SHORT $L212865
$L212864:
  00087	3b 70 08	 cmp	 esi, DWORD PTR [eax+8]
  0008a	75 0c		 jne	 SHORT $L212865
  0008c	8b f0		 mov	 esi, eax
  0008e	8b 40 04	 mov	 eax, DWORD PTR [eax+4]
  00091	8a 50 15	 mov	 dl, BYTE PTR [eax+21]
  00094	84 d2		 test	 dl, dl
  00096	74 ef		 je	 SHORT $L212864
$L212865:
  00098	8b f0		 mov	 esi, eax
$L212862:
  0009a	51		 push	 ecx
  0009b	8d 44 24 18	 lea	 eax, DWORD PTR $T212560[esp+12]
  0009f	50		 push	 eax
  000a0	8b cf		 mov	 ecx, edi
  000a2	e8 00 00 00 00	 call	 ?erase@?$_Tree@V?$_Tmap_traits@KPAVCMailBox@@U?$less@K@std@@V?$allocator@U?$pair@$$CBKPAVCMailBox@@@std@@@3@$0A@@std@@@std@@QAE?AViterator@12@V312@@Z ; std::_Tree<std::_Tmap_traits<unsigned long,CMailBox *,std::less<unsigned long>,std::allocator<std::pair<unsigned long const ,CMailBox *> >,0> >::erase
  000a7	3b f3		 cmp	 esi, ebx
  000a9	75 a5		 jne	 SHORT $L200914
$L200915:

; 760  : 			return (_First);

  000ab	8b 44 24 10	 mov	 eax, DWORD PTR ___$ReturnUdt$[esp+8]
  000af	5f		 pop	 edi
  000b0	89 30		 mov	 DWORD PTR [eax], esi
  000b2	5e		 pop	 esi
  000b3	5b		 pop	 ebx

; 761  : 			}
; 762  : 		}

  000b4	c2 0c 00	 ret	 12			; 0000000cH
?erase@?$_Tree@V?$_Tmap_traits@KPAVCMailBox@@U?$less@K@std@@V?$allocator@U?$pair@$$CBKPAVCMailBox@@@std@@@3@$0A@@std@@@std@@QAE?AViterator@12@V312@0@Z ENDP ; std::_Tree<std::_Tmap_traits<unsigned long,CMailBox *,std::less<unsigned long>,std::allocator<std::pair<unsigned long const ,CMailBox *> >,0> >::erase
_TEXT	ENDS
PUBLIC	?AddMailBox@CPost@@QAEHPAVCMailBox@@@Z		; CPost::AddMailBox
; Function compile flags: /Ogty
; File c:\documents and settings\test\mes documents\source\virtuos_v17\build\program\_common\post.cpp
;	COMDAT ?AddMailBox@CPost@@QAEHPAVCMailBox@@@Z
_TEXT	SEGMENT
$T212900 = -16						; size = 8
$T212901 = -8						; size = 8
_pMailBox$ = 8						; size = 4
?AddMailBox@CPost@@QAEHPAVCMailBox@@@Z PROC NEAR	; CPost::AddMailBox, COMDAT
; _this$ = ecx

; 561  : {

  00000	83 ec 10	 sub	 esp, 16			; 00000010H

; 562  : #ifdef __DBSERVER
; 563  : 	pMailBox->SetPost( this );

  00003	8b 44 24 14	 mov	 eax, DWORD PTR _pMailBox$[esp+12]
  00007	89 48 14	 mov	 DWORD PTR [eax+20], ecx

; 564  : #endif	// __DBSERVER
; 565  : 	return m_mapMailBox.insert( map<u_long, CMailBox*>::value_type( pMailBox->m_idReceiver, pMailBox ) ).second;

  0000a	8b 50 18	 mov	 edx, DWORD PTR [eax+24]
  0000d	89 44 24 04	 mov	 DWORD PTR $T212900[esp+20], eax
  00011	8d 04 24	 lea	 eax, DWORD PTR $T212900[esp+16]
  00014	89 14 24	 mov	 DWORD PTR $T212900[esp+16], edx
  00017	50		 push	 eax
  00018	8d 54 24 0c	 lea	 edx, DWORD PTR $T212901[esp+20]
  0001c	52		 push	 edx
  0001d	83 c1 2c	 add	 ecx, 44			; 0000002cH
  00020	e8 00 00 00 00	 call	 ?insert@?$_Tree@V?$_Tmap_traits@KPAVCMailBox@@U?$less@K@std@@V?$allocator@U?$pair@$$CBKPAVCMailBox@@@std@@@3@$0A@@std@@@std@@QAE?AU?$pair@Viterator@?$_Tree@V?$_Tmap_traits@KPAVCMailBox@@U?$less@K@std@@V?$allocator@U?$pair@$$CBKPAVCMailBox@@@std@@@3@$0A@@std@@@std@@_N@2@ABU?$pair@$$CBKPAVCMailBox@@@2@@Z ; std::_Tree<std::_Tmap_traits<unsigned long,CMailBox *,std::less<unsigned long>,std::allocator<std::pair<unsigned long const ,CMailBox *> >,0> >::insert
  00025	0f b6 40 04	 movzx	 eax, BYTE PTR [eax+4]

; 566  : }

  00029	83 c4 10	 add	 esp, 16			; 00000010H
  0002c	c2 04 00	 ret	 4
?AddMailBox@CPost@@QAEHPAVCMailBox@@@Z ENDP		; CPost::AddMailBox
_TEXT	ENDS
PUBLIC	??0?$vector@PAVCMail@@V?$allocator@PAVCMail@@@std@@@std@@QAE@XZ ; std::vector<CMail *,std::allocator<CMail *> >::vector<CMail *,std::allocator<CMail *> >
; Function compile flags: /Ogty
; File c:\program files\microsoft visual studio .net 2003\vc7\include\vector
;	COMDAT ??0?$vector@PAVCMail@@V?$allocator@PAVCMail@@@std@@@std@@QAE@XZ
_TEXT	SEGMENT
??0?$vector@PAVCMail@@V?$allocator@PAVCMail@@@std@@@std@@QAE@XZ PROC NEAR ; std::vector<CMail *,std::allocator<CMail *> >::vector<CMail *,std::allocator<CMail *> >, COMDAT
; _this$ = ecx

; 299  : 		{	// construct empty vector

  00000	8b c1		 mov	 eax, ecx

; 300  : 		_Buy(0);

  00002	33 c9		 xor	 ecx, ecx
  00004	89 48 04	 mov	 DWORD PTR [eax+4], ecx
  00007	89 48 08	 mov	 DWORD PTR [eax+8], ecx
  0000a	89 48 0c	 mov	 DWORD PTR [eax+12], ecx

; 301  : 		}

  0000d	c3		 ret	 0
??0?$vector@PAVCMail@@V?$allocator@PAVCMail@@@std@@@std@@QAE@XZ ENDP ; std::vector<CMail *,std::allocator<CMail *> >::vector<CMail *,std::allocator<CMail *> >
_TEXT	ENDS
PUBLIC	??1?$_Tree@V?$_Tmap_traits@KPAVCMail@@U?$less@K@std@@V?$allocator@U?$pair@$$CBKPAVCMail@@@std@@@3@$0A@@std@@@std@@QAE@XZ ; std::_Tree<std::_Tmap_traits<unsigned long,CMail *,std::less<unsigned long>,std::allocator<std::pair<unsigned long const ,CMail *> >,0> >::~_Tree<std::_Tmap_traits<unsigned long,CMail *,std::less<unsigned long>,std::allocator<std::pair<unsigned long const ,CMail *> >,0> >
; Function compile flags: /Ogty
; File c:\program files\microsoft visual studio .net 2003\vc7\include\xtree
;	COMDAT ??1?$_Tree@V?$_Tmap_traits@KPAVCMail@@U?$less@K@std@@V?$allocator@U?$pair@$$CBKPAVCMail@@@std@@@3@$0A@@std@@@std@@QAE@XZ
_TEXT	SEGMENT
$T213056 = -4						; size = 4
??1?$_Tree@V?$_Tmap_traits@KPAVCMail@@U?$less@K@std@@V?$allocator@U?$pair@$$CBKPAVCMail@@@std@@@3@$0A@@std@@@std@@QAE@XZ PROC NEAR ; std::_Tree<std::_Tmap_traits<unsigned long,CMail *,std::less<unsigned long>,std::allocator<std::pair<unsigned long const ,CMail *> >,0> >::~_Tree<std::_Tmap_traits<unsigned long,CMail *,std::less<unsigned long>,std::allocator<std::pair<unsigned long const ,CMail *> >,0> >, COMDAT
; _this$ = ecx

; 391  : 		{	// destroy tree

  00000	51		 push	 ecx
  00001	56		 push	 esi
  00002	8b f1		 mov	 esi, ecx

; 392  : 		_Tidy();

  00004	8b 46 04	 mov	 eax, DWORD PTR [esi+4]
  00007	8b 08		 mov	 ecx, DWORD PTR [eax]
  00009	50		 push	 eax
  0000a	51		 push	 ecx
  0000b	8d 44 24 0c	 lea	 eax, DWORD PTR $T213056[esp+16]
  0000f	50		 push	 eax
  00010	8b ce		 mov	 ecx, esi
  00012	e8 00 00 00 00	 call	 ?erase@?$_Tree@V?$_Tmap_traits@KPAVCMail@@U?$less@K@std@@V?$allocator@U?$pair@$$CBKPAVCMail@@@std@@@3@$0A@@std@@@std@@QAE?AViterator@12@V312@0@Z ; std::_Tree<std::_Tmap_traits<unsigned long,CMail *,std::less<unsigned long>,std::allocator<std::pair<unsigned long const ,CMail *> >,0> >::erase
  00017	8b 4e 04	 mov	 ecx, DWORD PTR [esi+4]
  0001a	51		 push	 ecx
  0001b	e8 00 00 00 00	 call	 ??3@YAXPAX@Z		; operator delete
  00020	83 c4 04	 add	 esp, 4
  00023	33 c0		 xor	 eax, eax
  00025	89 46 04	 mov	 DWORD PTR [esi+4], eax
  00028	89 46 08	 mov	 DWORD PTR [esi+8], eax
  0002b	5e		 pop	 esi

; 393  : 		}

  0002c	59		 pop	 ecx
  0002d	c3		 ret	 0
??1?$_Tree@V?$_Tmap_traits@KPAVCMail@@U?$less@K@std@@V?$allocator@U?$pair@$$CBKPAVCMail@@@std@@@3@$0A@@std@@@std@@QAE@XZ ENDP ; std::_Tree<std::_Tmap_traits<unsigned long,CMail *,std::less<unsigned long>,std::allocator<std::pair<unsigned long const ,CMail *> >,0> >::~_Tree<std::_Tmap_traits<unsigned long,CMail *,std::less<unsigned long>,std::allocator<std::pair<unsigned long const ,CMail *> >,0> >
_TEXT	ENDS
PUBLIC	?erase@?$_Tree@V?$_Tmap_traits@KPAVCMail@@U?$less@K@std@@V?$allocator@U?$pair@$$CBKPAVCMail@@@std@@@3@$0A@@std@@@std@@QAEIABK@Z ; std::_Tree<std::_Tmap_traits<unsigned long,CMail *,std::less<unsigned long>,std::allocator<std::pair<unsigned long const ,CMail *> >,0> >::erase
; Function compile flags: /Ogty
;	COMDAT ?erase@?$_Tree@V?$_Tmap_traits@KPAVCMail@@U?$less@K@std@@V?$allocator@U?$pair@$$CBKPAVCMail@@@std@@@3@$0A@@std@@@std@@QAEIABK@Z
_TEXT	SEGMENT
$T213065 = -8						; size = 4
__Where$ = -8						; size = 8
__Num$ = 8						; size = 4
__Keyval$ = 8						; size = 4
?erase@?$_Tree@V?$_Tmap_traits@KPAVCMail@@U?$less@K@std@@V?$allocator@U?$pair@$$CBKPAVCMail@@@std@@@3@$0A@@std@@@std@@QAEIABK@Z PROC NEAR ; std::_Tree<std::_Tmap_traits<unsigned long,CMail *,std::less<unsigned long>,std::allocator<std::pair<unsigned long const ,CMail *> >,0> >::erase, COMDAT
; _this$ = ecx

; 765  : 		{	// erase and count all that match _Keyval

  00000	83 ec 08	 sub	 esp, 8

; 766  : 		_Pairii _Where = equal_range(_Keyval);

  00003	8b 44 24 0c	 mov	 eax, DWORD PTR __Keyval$[esp+4]
  00007	53		 push	 ebx
  00008	56		 push	 esi
  00009	57		 push	 edi
  0000a	8b f1		 mov	 esi, ecx
  0000c	50		 push	 eax
  0000d	8d 4c 24 10	 lea	 ecx, DWORD PTR __Where$[esp+24]
  00011	51		 push	 ecx
  00012	8b ce		 mov	 ecx, esi
  00014	e8 00 00 00 00	 call	 ?equal_range@?$_Tree@V?$_Tmap_traits@KPAVCMail@@U?$less@K@std@@V?$allocator@U?$pair@$$CBKPAVCMail@@@std@@@3@$0A@@std@@@std@@QAE?AU?$pair@Viterator@?$_Tree@V?$_Tmap_traits@KPAVCMail@@U?$less@K@std@@V?$allocator@U?$pair@$$CBKPAVCMail@@@std@@@3@$0A@@std@@@std@@V123@@2@ABK@Z ; std::_Tree<std::_Tmap_traits<unsigned long,CMail *,std::less<unsigned long>,std::allocator<std::pair<unsigned long const ,CMail *> >,0> >::equal_range

; 767  : 		size_type _Num = 0;
; 768  : 		_Distance(_Where.first, _Where.second, _Num);

  00019	8b 7c 24 10	 mov	 edi, DWORD PTR __Where$[esp+24]
  0001d	8b 5c 24 0c	 mov	 ebx, DWORD PTR __Where$[esp+20]
  00021	8d 54 24 18	 lea	 edx, DWORD PTR __Num$[esp+16]
  00025	52		 push	 edx
  00026	57		 push	 edi
  00027	53		 push	 ebx
  00028	c7 44 24 24 00
	00 00 00	 mov	 DWORD PTR __Num$[esp+28], 0
  00030	e8 00 00 00 00	 call	 ??$_Distance@Viterator@?$_Tree@V?$_Tmap_traits@KPAVCMail@@U?$less@K@std@@V?$allocator@U?$pair@$$CBKPAVCMail@@@std@@@3@$0A@@std@@@std@@I@std@@YAXViterator@?$_Tree@V?$_Tmap_traits@KPAVCMail@@U?$less@K@std@@V?$allocator@U?$pair@$$CBKPAVCMail@@@std@@@3@$0A@@std@@@0@0AAI@Z ; std::_Distance<std::_Tree<std::_Tmap_traits<unsigned long,CMail *,std::less<unsigned long>,std::allocator<std::pair<unsigned long const ,CMail *> >,0> >::iterator,unsigned int>
  00035	83 c4 0c	 add	 esp, 12			; 0000000cH

; 769  : 		erase(_Where.first, _Where.second);

  00038	57		 push	 edi
  00039	53		 push	 ebx
  0003a	8d 44 24 14	 lea	 eax, DWORD PTR $T213065[esp+28]
  0003e	50		 push	 eax
  0003f	8b ce		 mov	 ecx, esi
  00041	e8 00 00 00 00	 call	 ?erase@?$_Tree@V?$_Tmap_traits@KPAVCMail@@U?$less@K@std@@V?$allocator@U?$pair@$$CBKPAVCMail@@@std@@@3@$0A@@std@@@std@@QAE?AViterator@12@V312@0@Z ; std::_Tree<std::_Tmap_traits<unsigned long,CMail *,std::less<unsigned long>,std::allocator<std::pair<unsigned long const ,CMail *> >,0> >::erase

; 770  : 		return (_Num);

  00046	8b 44 24 18	 mov	 eax, DWORD PTR __Num$[esp+16]
  0004a	5f		 pop	 edi
  0004b	5e		 pop	 esi
  0004c	5b		 pop	 ebx

; 771  : 		}

  0004d	83 c4 08	 add	 esp, 8
  00050	c2 04 00	 ret	 4
?erase@?$_Tree@V?$_Tmap_traits@KPAVCMail@@U?$less@K@std@@V?$allocator@U?$pair@$$CBKPAVCMail@@@std@@@3@$0A@@std@@@std@@QAEIABK@Z ENDP ; std::_Tree<std::_Tmap_traits<unsigned long,CMail *,std::less<unsigned long>,std::allocator<std::pair<unsigned long const ,CMail *> >,0> >::erase
_TEXT	ENDS
PUBLIC	?push_back@?$list@PAVCMail@@V?$allocator@PAVCMail@@@std@@@std@@QAEXABQAVCMail@@@Z ; std::list<CMail *,std::allocator<CMail *> >::push_back
; Function compile flags: /Ogty
; File c:\program files\microsoft visual studio .net 2003\vc7\include\list
;	COMDAT ?push_back@?$list@PAVCMail@@V?$allocator@PAVCMail@@@std@@@std@@QAEXABQAVCMail@@@Z
_TEXT	SEGMENT
__Val$ = 8						; size = 4
?push_back@?$list@PAVCMail@@V?$allocator@PAVCMail@@@std@@@std@@QAEXABQAVCMail@@@Z PROC NEAR ; std::list<CMail *,std::allocator<CMail *> >::push_back, COMDAT
; _this$ = ecx

; 481  : 		_Insert(end(), _Val);

  00000	8b 44 24 04	 mov	 eax, DWORD PTR __Val$[esp-4]
  00004	53		 push	 ebx
  00005	56		 push	 esi
  00006	57		 push	 edi
  00007	8b f1		 mov	 esi, ecx
  00009	8b 7e 04	 mov	 edi, DWORD PTR [esi+4]
  0000c	8b 4f 04	 mov	 ecx, DWORD PTR [edi+4]
  0000f	50		 push	 eax
  00010	51		 push	 ecx
  00011	57		 push	 edi
  00012	8b ce		 mov	 ecx, esi
  00014	e8 00 00 00 00	 call	 ?_Buynode@?$list@PAVCMail@@V?$allocator@PAVCMail@@@std@@@std@@IAEPAU_Node@?$_List_nod@PAVCMail@@V?$allocator@PAVCMail@@@std@@@2@PAU342@0ABQAVCMail@@@Z ; std::list<CMail *,std::allocator<CMail *> >::_Buynode
  00019	6a 01		 push	 1
  0001b	8b ce		 mov	 ecx, esi
  0001d	8b d8		 mov	 ebx, eax
  0001f	e8 00 00 00 00	 call	 ?_Incsize@?$list@PAVCMail@@V?$allocator@PAVCMail@@@std@@@std@@IAEXI@Z ; std::list<CMail *,std::allocator<CMail *> >::_Incsize
  00024	89 5f 04	 mov	 DWORD PTR [edi+4], ebx
  00027	8b 53 04	 mov	 edx, DWORD PTR [ebx+4]
  0002a	5f		 pop	 edi
  0002b	5e		 pop	 esi
  0002c	89 1a		 mov	 DWORD PTR [edx], ebx
  0002e	5b		 pop	 ebx

; 482  : 		}

  0002f	c2 04 00	 ret	 4
?push_back@?$list@PAVCMail@@V?$allocator@PAVCMail@@@std@@@std@@QAEXABQAVCMail@@@Z ENDP ; std::list<CMail *,std::allocator<CMail *> >::push_back
_TEXT	ENDS
PUBLIC	?insert@?$vector@PAVCMail@@V?$allocator@PAVCMail@@@std@@@std@@QAE?AViterator@12@V312@ABQAVCMail@@@Z ; std::vector<CMail *,std::allocator<CMail *> >::insert
; Function compile flags: /Ogty
; File c:\program files\microsoft visual studio .net 2003\vc7\include\vector
;	COMDAT ?insert@?$vector@PAVCMail@@V?$allocator@PAVCMail@@@std@@@std@@QAE?AViterator@12@V312@ABQAVCMail@@@Z
_TEXT	SEGMENT
___$ReturnUdt$ = 8					; size = 4
__Where$ = 12						; size = 4
__Val$ = 16						; size = 4
?insert@?$vector@PAVCMail@@V?$allocator@PAVCMail@@@std@@@std@@QAE?AViterator@12@V312@ABQAVCMail@@@Z PROC NEAR ; std::vector<CMail *,std::allocator<CMail *> >::insert, COMDAT
; _this$ = ecx

; 621  : 		size_type _Off = size() == 0 ? 0 : _Where - begin();

  00000	8b 54 24 08	 mov	 edx, DWORD PTR __Where$[esp-4]
  00004	56		 push	 esi
  00005	57		 push	 edi
  00006	8b f9		 mov	 edi, ecx
  00008	8b 4f 04	 mov	 ecx, DWORD PTR [edi+4]
  0000b	85 c9		 test	 ecx, ecx
  0000d	74 0c		 je	 SHORT $L213181
  0000f	8b 47 08	 mov	 eax, DWORD PTR [edi+8]
  00012	2b c1		 sub	 eax, ecx
  00014	c1 f8 02	 sar	 eax, 2
  00017	85 c0		 test	 eax, eax
  00019	75 04		 jne	 SHORT $L213120
$L213181:
  0001b	33 f6		 xor	 esi, esi
  0001d	eb 07		 jmp	 SHORT $L213121
$L213120:
  0001f	8b f2		 mov	 esi, edx
  00021	2b f1		 sub	 esi, ecx
  00023	c1 fe 02	 sar	 esi, 2
$L213121:

; 622  : 		_Insert_n(_Where, (size_type)1, _Val);

  00026	8b 44 24 14	 mov	 eax, DWORD PTR __Val$[esp+4]
  0002a	50		 push	 eax
  0002b	6a 01		 push	 1
  0002d	52		 push	 edx
  0002e	8b cf		 mov	 ecx, edi
  00030	e8 00 00 00 00	 call	 ?_Insert_n@?$vector@PAVCMail@@V?$allocator@PAVCMail@@@std@@@std@@IAEXViterator@12@IABQAVCMail@@@Z ; std::vector<CMail *,std::allocator<CMail *> >::_Insert_n

; 623  : 		return (begin() + _Off);

  00035	8b 4f 04	 mov	 ecx, DWORD PTR [edi+4]
  00038	8b 44 24 0c	 mov	 eax, DWORD PTR ___$ReturnUdt$[esp+4]
  0003c	8d 14 b1	 lea	 edx, DWORD PTR [ecx+esi*4]
  0003f	5f		 pop	 edi
  00040	89 10		 mov	 DWORD PTR [eax], edx
  00042	5e		 pop	 esi

; 624  : 		}

  00043	c2 0c 00	 ret	 12			; 0000000cH
?insert@?$vector@PAVCMail@@V?$allocator@PAVCMail@@@std@@@std@@QAE?AViterator@12@V312@ABQAVCMail@@@Z ENDP ; std::vector<CMail *,std::allocator<CMail *> >::insert
_TEXT	ENDS
PUBLIC	?_Tidy@?$_Tree@V?$_Tmap_traits@KPAVCMailBox@@U?$less@K@std@@V?$allocator@U?$pair@$$CBKPAVCMailBox@@@std@@@3@$0A@@std@@@std@@IAEXXZ ; std::_Tree<std::_Tmap_traits<unsigned long,CMailBox *,std::less<unsigned long>,std::allocator<std::pair<unsigned long const ,CMailBox *> >,0> >::_Tidy
; Function compile flags: /Ogty
; File c:\program files\microsoft visual studio .net 2003\vc7\include\xtree
;	COMDAT ?_Tidy@?$_Tree@V?$_Tmap_traits@KPAVCMailBox@@U?$less@K@std@@V?$allocator@U?$pair@$$CBKPAVCMailBox@@@std@@@3@$0A@@std@@@std@@IAEXXZ
_TEXT	SEGMENT
$T213186 = -4						; size = 4
?_Tidy@?$_Tree@V?$_Tmap_traits@KPAVCMailBox@@U?$less@K@std@@V?$allocator@U?$pair@$$CBKPAVCMailBox@@@std@@@3@$0A@@std@@@std@@IAEXXZ PROC NEAR ; std::_Tree<std::_Tmap_traits<unsigned long,CMailBox *,std::less<unsigned long>,std::allocator<std::pair<unsigned long const ,CMailBox *> >,0> >::_Tidy, COMDAT
; _this$ = ecx

; 1142 : 		{	// free all storage

  00000	51		 push	 ecx
  00001	56		 push	 esi
  00002	8b f1		 mov	 esi, ecx

; 1143 : 		erase(begin(), end());

  00004	8b 46 04	 mov	 eax, DWORD PTR [esi+4]
  00007	8b 08		 mov	 ecx, DWORD PTR [eax]
  00009	50		 push	 eax
  0000a	51		 push	 ecx
  0000b	8d 44 24 0c	 lea	 eax, DWORD PTR $T213186[esp+16]
  0000f	50		 push	 eax
  00010	8b ce		 mov	 ecx, esi
  00012	e8 00 00 00 00	 call	 ?erase@?$_Tree@V?$_Tmap_traits@KPAVCMailBox@@U?$less@K@std@@V?$allocator@U?$pair@$$CBKPAVCMailBox@@@std@@@3@$0A@@std@@@std@@QAE?AViterator@12@V312@0@Z ; std::_Tree<std::_Tmap_traits<unsigned long,CMailBox *,std::less<unsigned long>,std::allocator<std::pair<unsigned long const ,CMailBox *> >,0> >::erase

; 1144 : 		this->_Alptr.destroy(&_Left(_Myhead));
; 1145 : 		this->_Alptr.destroy(&_Parent(_Myhead));
; 1146 : 		this->_Alptr.destroy(&_Right(_Myhead));
; 1147 : 		this->_Alnod.deallocate(_Myhead, 1);

  00017	8b 4e 04	 mov	 ecx, DWORD PTR [esi+4]
  0001a	51		 push	 ecx
  0001b	e8 00 00 00 00	 call	 ??3@YAXPAX@Z		; operator delete
  00020	83 c4 04	 add	 esp, 4

; 1148 : 		_Myhead = 0, _Mysize = 0;

  00023	33 c0		 xor	 eax, eax
  00025	89 46 04	 mov	 DWORD PTR [esi+4], eax
  00028	89 46 08	 mov	 DWORD PTR [esi+8], eax
  0002b	5e		 pop	 esi

; 1149 : 		}

  0002c	59		 pop	 ecx
  0002d	c3		 ret	 0
?_Tidy@?$_Tree@V?$_Tmap_traits@KPAVCMailBox@@U?$less@K@std@@V?$allocator@U?$pair@$$CBKPAVCMailBox@@@std@@@3@$0A@@std@@@std@@IAEXXZ ENDP ; std::_Tree<std::_Tmap_traits<unsigned long,CMailBox *,std::less<unsigned long>,std::allocator<std::pair<unsigned long const ,CMailBox *> >,0> >::_Tidy
_TEXT	ENDS
PUBLIC	??0CMailBox@@QAE@XZ				; CMailBox::CMailBox
PUBLIC	??_7CMailBox@@6B@				; CMailBox::`vftable'
PUBLIC	??_GCMailBox@@UAEPAXI@Z				; CMailBox::`scalar deleting destructor'
EXTRN	??_ECMailBox@@UAEPAXI@Z:NEAR			; CMailBox::`vector deleting destructor'
;	COMDAT ??_7CMailBox@@6B@
; File c:\program files\microsoft visual studio .net 2003\vc7\include\xmemory
CONST	SEGMENT
??_7CMailBox@@6B@ DD FLAT:??_ECMailBox@@UAEPAXI@Z	; CMailBox::`vftable'
; Function compile flags: /Ogty
; File c:\documents and settings\test\mes documents\source\virtuos_v17\build\program\_common\post.cpp
CONST	ENDS
;	COMDAT ??0CMailBox@@QAE@XZ
_TEXT	SEGMENT
??0CMailBox@@QAE@XZ PROC NEAR				; CMailBox::CMailBox, COMDAT
; _this$ = ecx

; 158  : {

  00000	8b c1		 mov	 eax, ecx
  00002	33 c9		 xor	 ecx, ecx
  00004	89 48 08	 mov	 DWORD PTR [eax+8], ecx
  00007	89 48 0c	 mov	 DWORD PTR [eax+12], ecx
  0000a	89 48 10	 mov	 DWORD PTR [eax+16], ecx
  0000d	c7 00 00 00 00
	00		 mov	 DWORD PTR [eax], OFFSET FLAT:??_7CMailBox@@6B@

; 159  : 	m_idReceiver	= 0;

  00013	89 48 18	 mov	 DWORD PTR [eax+24], ecx

; 160  : #ifdef __WORLDSERVER
; 161  : 	m_nStatus	= CMailBox::nodata;
; 162  : #endif	// __WORLDSERVER
; 163  : }

  00016	c3		 ret	 0
??0CMailBox@@QAE@XZ ENDP				; CMailBox::CMailBox
_TEXT	ENDS
PUBLIC	??0CMailBox@@QAE@K@Z				; CMailBox::CMailBox
; Function compile flags: /Ogty
;	COMDAT ??0CMailBox@@QAE@K@Z
_TEXT	SEGMENT
_idReceiver$ = 8					; size = 4
??0CMailBox@@QAE@K@Z PROC NEAR				; CMailBox::CMailBox, COMDAT
; _this$ = ecx

; 166  : {

  00000	8b c1		 mov	 eax, ecx
  00002	33 c9		 xor	 ecx, ecx
  00004	89 48 08	 mov	 DWORD PTR [eax+8], ecx
  00007	89 48 0c	 mov	 DWORD PTR [eax+12], ecx
  0000a	89 48 10	 mov	 DWORD PTR [eax+16], ecx

; 167  : 	m_idReceiver	= idReceiver;

  0000d	8b 4c 24 04	 mov	 ecx, DWORD PTR _idReceiver$[esp-4]
  00011	c7 00 00 00 00
	00		 mov	 DWORD PTR [eax], OFFSET FLAT:??_7CMailBox@@6B@
  00017	89 48 18	 mov	 DWORD PTR [eax+24], ecx

; 168  : #ifdef __WORLDSERVER
; 169  : 	m_nStatus	= CMailBox::nodata;
; 170  : #endif	// __WORLDSERVER
; 171  : 
; 172  : #ifdef __CLIENT
; 173  : 	Error( _T( "CMailBox::CMailBox" ) );
; 174  : #endif
; 175  : }

  0001a	c2 04 00	 ret	 4
??0CMailBox@@QAE@K@Z ENDP				; CMailBox::CMailBox
_TEXT	ENDS
PUBLIC	?Clear@CMailBox@@QAEXXZ				; CMailBox::Clear
; Function compile flags: /Ogty
;	COMDAT ?Clear@CMailBox@@QAEXXZ
_TEXT	SEGMENT
_this$ = -16						; size = 4
$T213754 = -12						; size = 4
__Where$213751 = -8					; size = 8
?Clear@CMailBox@@QAEXXZ PROC NEAR			; CMailBox::Clear, COMDAT
; _this$ = ecx

; 193  : {

  00000	83 ec 10	 sub	 esp, 16			; 00000010H
  00003	56		 push	 esi
  00004	57		 push	 edi
  00005	8b f9		 mov	 edi, ecx

; 194  : 	for( MailVectorItr i = begin(); i != end(); ++i )

  00007	8b 77 08	 mov	 esi, DWORD PTR [edi+8]
  0000a	3b 77 0c	 cmp	 esi, DWORD PTR [edi+12]
  0000d	89 7c 24 08	 mov	 DWORD PTR _this$[esp+24], edi
  00011	0f 84 b7 00 00
	00		 je	 $L199069
  00017	55		 push	 ebp
  00018	eb 06 8d 9b 00
	00 00 00	 npad	 8
$L213449:

; 195  : 	{
; 196  : #ifdef __DBSERVER
; 197  : 		if( m_pPost )

  00020	8b 47 14	 mov	 eax, DWORD PTR [edi+20]
  00023	85 c0		 test	 eax, eax
  00025	0f 84 82 00 00
	00		 je	 $L213750

; 198  : 			m_pPost->m_mapMail4Proc.erase( (*i)->m_nMail );

  0002b	8d 78 04	 lea	 edi, DWORD PTR [eax+4]
  0002e	8b 06		 mov	 eax, DWORD PTR [esi]
  00030	83 c0 04	 add	 eax, 4
  00033	50		 push	 eax
  00034	8d 4c 24 18	 lea	 ecx, DWORD PTR __Where$213751[esp+32]
  00038	51		 push	 ecx
  00039	8b cf		 mov	 ecx, edi
  0003b	e8 00 00 00 00	 call	 ?equal_range@?$_Tree@V?$_Tmap_traits@KPAVCMail@@U?$less@K@std@@V?$allocator@U?$pair@$$CBKPAVCMail@@@std@@@3@$0A@@std@@@std@@QAE?AU?$pair@Viterator@?$_Tree@V?$_Tmap_traits@KPAVCMail@@U?$less@K@std@@V?$allocator@U?$pair@$$CBKPAVCMail@@@std@@@3@$0A@@std@@@std@@V123@@2@ABK@Z ; std::_Tree<std::_Tmap_traits<unsigned long,CMail *,std::less<unsigned long>,std::allocator<std::pair<unsigned long const ,CMail *> >,0> >::equal_range
  00040	8b 54 24 14	 mov	 edx, DWORD PTR __Where$213751[esp+28]
  00044	8b 6c 24 18	 mov	 ebp, DWORD PTR __Where$213751[esp+32]
  00048	3b d5		 cmp	 edx, ebp
  0004a	8b ca		 mov	 ecx, edx
  0004c	74 4d		 je	 SHORT $L213763
  0004e	8b ff		 npad	 2
$L213766:
  00050	8a 41 15	 mov	 al, BYTE PTR [ecx+21]
  00053	84 c0		 test	 al, al
  00055	75 40		 jne	 SHORT $L213772
  00057	8b 41 08	 mov	 eax, DWORD PTR [ecx+8]
  0005a	80 78 15 00	 cmp	 BYTE PTR [eax+21], 0
  0005e	75 1c		 jne	 SHORT $L213856
  00060	8b c8		 mov	 ecx, eax
  00062	8b 01		 mov	 eax, DWORD PTR [ecx]
  00064	80 78 15 00	 cmp	 BYTE PTR [eax+21], 0
  00068	75 2d		 jne	 SHORT $L213772
  0006a	8d 9b 00 00 00
	00		 npad	 6
$L213786:
  00070	8b c8		 mov	 ecx, eax
  00072	8b 01		 mov	 eax, DWORD PTR [ecx]
  00074	80 78 15 00	 cmp	 BYTE PTR [eax+21], 0
  00078	74 f6		 je	 SHORT $L213786
  0007a	eb 1b		 jmp	 SHORT $L213772
$L213856:
  0007c	8b 41 04	 mov	 eax, DWORD PTR [ecx+4]
  0007f	80 78 15 00	 cmp	 BYTE PTR [eax+21], 0
  00083	75 10		 jne	 SHORT $L213775
$L213774:
  00085	3b 48 08	 cmp	 ecx, DWORD PTR [eax+8]
  00088	75 0b		 jne	 SHORT $L213775
  0008a	8b c8		 mov	 ecx, eax
  0008c	8b 40 04	 mov	 eax, DWORD PTR [eax+4]
  0008f	80 78 15 00	 cmp	 BYTE PTR [eax+21], 0
  00093	74 f0		 je	 SHORT $L213774
$L213775:
  00095	8b c8		 mov	 ecx, eax
$L213772:
  00097	3b cd		 cmp	 ecx, ebp
  00099	75 b5		 jne	 SHORT $L213766
$L213763:
  0009b	55		 push	 ebp
  0009c	52		 push	 edx
  0009d	8d 54 24 18	 lea	 edx, DWORD PTR $T213754[esp+36]
  000a1	52		 push	 edx
  000a2	8b cf		 mov	 ecx, edi
  000a4	e8 00 00 00 00	 call	 ?erase@?$_Tree@V?$_Tmap_traits@KPAVCMail@@U?$less@K@std@@V?$allocator@U?$pair@$$CBKPAVCMail@@@std@@@3@$0A@@std@@@std@@QAE?AViterator@12@V312@0@Z ; std::_Tree<std::_Tmap_traits<unsigned long,CMail *,std::less<unsigned long>,std::allocator<std::pair<unsigned long const ,CMail *> >,0> >::erase
  000a9	8b 7c 24 0c	 mov	 edi, DWORD PTR _this$[esp+28]
$L213750:

; 199  : #endif	// __DBSERVER
; 200  : 		SAFE_DELETE( *i );

  000ad	8b 0e		 mov	 ecx, DWORD PTR [esi]
  000af	85 c9		 test	 ecx, ecx
  000b1	74 0c		 je	 SHORT $L199068
  000b3	8b 01		 mov	 eax, DWORD PTR [ecx]
  000b5	6a 01		 push	 1
  000b7	ff 10		 call	 DWORD PTR [eax]
  000b9	c7 06 00 00 00
	00		 mov	 DWORD PTR [esi], 0
$L199068:
  000bf	8b 47 0c	 mov	 eax, DWORD PTR [edi+12]
  000c2	83 c6 04	 add	 esi, 4
  000c5	3b f0		 cmp	 esi, eax
  000c7	0f 85 53 ff ff
	ff		 jne	 $L213449
  000cd	5d		 pop	 ebp
$L199069:

; 201  : 	}
; 202  : 	clear();

  000ce	8b 47 08	 mov	 eax, DWORD PTR [edi+8]
  000d1	85 c0		 test	 eax, eax
  000d3	74 09		 je	 SHORT $L213850
  000d5	50		 push	 eax
  000d6	e8 00 00 00 00	 call	 ??3@YAXPAX@Z		; operator delete
  000db	83 c4 04	 add	 esp, 4
$L213850:
  000de	c7 47 08 00 00
	00 00		 mov	 DWORD PTR [edi+8], 0
  000e5	c7 47 0c 00 00
	00 00		 mov	 DWORD PTR [edi+12], 0
  000ec	c7 47 10 00 00
	00 00		 mov	 DWORD PTR [edi+16], 0
  000f3	5f		 pop	 edi
  000f4	5e		 pop	 esi

; 203  : 
; 204  : #ifdef __CLIENT
; 205  : 	Error( _T( "CMailBox::Clear" ) );
; 206  : #endif
; 207  : }

  000f5	83 c4 10	 add	 esp, 16			; 00000010H
  000f8	c3		 ret	 0
?Clear@CMailBox@@QAEXXZ ENDP				; CMailBox::Clear
_TEXT	ENDS
PUBLIC	?RemoveMail@CMailBox@@QAEHK@Z			; CMailBox::RemoveMail
; Function compile flags: /Ogty
;	COMDAT ?RemoveMail@CMailBox@@QAEHK@Z
_TEXT	SEGMENT
_nMail$ = 8						; size = 4
?RemoveMail@CMailBox@@QAEHK@Z PROC NEAR			; CMailBox::RemoveMail, COMDAT
; _this$ = ecx

; 409  : {

  00000	56		 push	 esi
  00001	57		 push	 edi
  00002	8b f9		 mov	 edi, ecx

; 410  : 	MailVectorItr i = Find( nMail );

  00004	8b 77 08	 mov	 esi, DWORD PTR [edi+8]
  00007	8b 47 0c	 mov	 eax, DWORD PTR [edi+12]
  0000a	3b f0		 cmp	 esi, eax
  0000c	74 69		 je	 SHORT $L199277
  0000e	8b 4c 24 0c	 mov	 ecx, DWORD PTR _nMail$[esp+4]
$L213936:
  00012	8b 16		 mov	 edx, DWORD PTR [esi]
  00014	39 4a 04	 cmp	 DWORD PTR [edx+4], ecx
  00017	74 07		 je	 SHORT $L214047
  00019	83 c6 04	 add	 esi, 4
  0001c	3b f0		 cmp	 esi, eax
  0001e	75 f2		 jne	 SHORT $L213936
$L214047:

; 411  : 	if( i != end() )

  00020	3b f0		 cmp	 esi, eax
  00022	74 53		 je	 SHORT $L199277

; 412  : 	{
; 413  : #ifdef __DBSERVER
; 414  : 		if( m_pPost )

  00024	8b 47 14	 mov	 eax, DWORD PTR [edi+20]
  00027	85 c0		 test	 eax, eax
  00029	74 0e		 je	 SHORT $L199278

; 415  : 			m_pPost->m_mapMail4Proc.erase( (*i)->m_nMail );

  0002b	8b 0e		 mov	 ecx, DWORD PTR [esi]
  0002d	83 c1 04	 add	 ecx, 4
  00030	51		 push	 ecx
  00031	8d 48 04	 lea	 ecx, DWORD PTR [eax+4]
  00034	e8 00 00 00 00	 call	 ?erase@?$_Tree@V?$_Tmap_traits@KPAVCMail@@U?$less@K@std@@V?$allocator@U?$pair@$$CBKPAVCMail@@@std@@@3@$0A@@std@@@std@@QAEIABK@Z ; std::_Tree<std::_Tmap_traits<unsigned long,CMail *,std::less<unsigned long>,std::allocator<std::pair<unsigned long const ,CMail *> >,0> >::erase
$L199278:

; 416  : #endif	// __DBSERVER
; 417  : 		SAFE_DELETE( *i );

  00039	8b 0e		 mov	 ecx, DWORD PTR [esi]
  0003b	85 c9		 test	 ecx, ecx
  0003d	74 0c		 je	 SHORT $L199279
  0003f	8b 11		 mov	 edx, DWORD PTR [ecx]
  00041	6a 01		 push	 1
  00043	ff 12		 call	 DWORD PTR [edx]
  00045	c7 06 00 00 00
	00		 mov	 DWORD PTR [esi], 0
$L199279:

; 418  : 		erase( i );

  0004b	8b 4f 0c	 mov	 ecx, DWORD PTR [edi+12]
  0004e	8d 46 04	 lea	 eax, DWORD PTR [esi+4]
  00051	2b c8		 sub	 ecx, eax
  00053	c1 f9 02	 sar	 ecx, 2
  00056	c1 e1 02	 shl	 ecx, 2
  00059	51		 push	 ecx
  0005a	50		 push	 eax
  0005b	56		 push	 esi
  0005c	e8 00 00 00 00	 call	 _memmove
  00061	8b 47 0c	 mov	 eax, DWORD PTR [edi+12]
  00064	83 c4 0c	 add	 esp, 12			; 0000000cH
  00067	83 c0 fc	 add	 eax, -4			; fffffffcH
  0006a	89 47 0c	 mov	 DWORD PTR [edi+12], eax
  0006d	5f		 pop	 edi

; 419  : 
; 420  : #ifdef __CLIENT
; 421  : 		Error( _T( "CMailBox::RemoveMail OK nMail:%d"), nMail  );
; 422  : #endif
; 423  : 		return TRUE;

  0006e	b8 01 00 00 00	 mov	 eax, 1
  00073	5e		 pop	 esi

; 430  : }

  00074	c2 04 00	 ret	 4
$L199277:
  00077	5f		 pop	 edi

; 424  : 	}
; 425  : 
; 426  : #ifdef __CLIENT
; 427  : 		Error( _T( "CMailBox::RemoveMail Failed nMail:%d" ), nMail );
; 428  : #endif
; 429  : 	return FALSE;

  00078	33 c0		 xor	 eax, eax
  0007a	5e		 pop	 esi

; 430  : }

  0007b	c2 04 00	 ret	 4
?RemoveMail@CMailBox@@QAEHK@Z ENDP			; CMailBox::RemoveMail
_TEXT	ENDS
PUBLIC	??1?$map@KPAVCMail@@U?$less@K@std@@V?$allocator@U?$pair@$$CBKPAVCMail@@@std@@@3@@std@@QAE@XZ ; std::map<unsigned long,CMail *,std::less<unsigned long>,std::allocator<std::pair<unsigned long const ,CMail *> > >::~map<unsigned long,CMail *,std::less<unsigned long>,std::allocator<std::pair<unsigned long const ,CMail *> > >
; Function compile flags: /Ogty
;	COMDAT ??1?$map@KPAVCMail@@U?$less@K@std@@V?$allocator@U?$pair@$$CBKPAVCMail@@@std@@@3@@std@@QAE@XZ
_TEXT	SEGMENT
$T214149 = -4						; size = 4
??1?$map@KPAVCMail@@U?$less@K@std@@V?$allocator@U?$pair@$$CBKPAVCMail@@@std@@@3@@std@@QAE@XZ PROC NEAR ; std::map<unsigned long,CMail *,std::less<unsigned long>,std::allocator<std::pair<unsigned long const ,CMail *> > >::~map<unsigned long,CMail *,std::less<unsigned long>,std::allocator<std::pair<unsigned long const ,CMail *> > >, COMDAT
; _this$ = ecx
  00000	51		 push	 ecx
  00001	56		 push	 esi
  00002	8b f1		 mov	 esi, ecx
  00004	8b 46 04	 mov	 eax, DWORD PTR [esi+4]
  00007	8b 08		 mov	 ecx, DWORD PTR [eax]
  00009	50		 push	 eax
  0000a	51		 push	 ecx
  0000b	8d 44 24 0c	 lea	 eax, DWORD PTR $T214149[esp+16]
  0000f	50		 push	 eax
  00010	8b ce		 mov	 ecx, esi
  00012	e8 00 00 00 00	 call	 ?erase@?$_Tree@V?$_Tmap_traits@KPAVCMail@@U?$less@K@std@@V?$allocator@U?$pair@$$CBKPAVCMail@@@std@@@3@$0A@@std@@@std@@QAE?AViterator@12@V312@0@Z ; std::_Tree<std::_Tmap_traits<unsigned long,CMail *,std::less<unsigned long>,std::allocator<std::pair<unsigned long const ,CMail *> >,0> >::erase
  00017	8b 4e 04	 mov	 ecx, DWORD PTR [esi+4]
  0001a	51		 push	 ecx
  0001b	e8 00 00 00 00	 call	 ??3@YAXPAX@Z		; operator delete
  00020	83 c4 04	 add	 esp, 4
  00023	33 c0		 xor	 eax, eax
  00025	89 46 04	 mov	 DWORD PTR [esi+4], eax
  00028	89 46 08	 mov	 DWORD PTR [esi+8], eax
  0002b	5e		 pop	 esi
  0002c	59		 pop	 ecx
  0002d	c3		 ret	 0
??1?$map@KPAVCMail@@U?$less@K@std@@V?$allocator@U?$pair@$$CBKPAVCMail@@@std@@@3@@std@@QAE@XZ ENDP ; std::map<unsigned long,CMail *,std::less<unsigned long>,std::allocator<std::pair<unsigned long const ,CMail *> > >::~map<unsigned long,CMail *,std::less<unsigned long>,std::allocator<std::pair<unsigned long const ,CMail *> > >
_TEXT	ENDS
PUBLIC	?Process@CPost@@QAEXXZ				; CPost::Process
EXTRN	?g_DbManager@@3AAVCDbManager@@A:DWORD		; g_DbManager
EXTRN	?RemoveMail@CDbManager@@QAEXAAV?$list@PAVCMail@@V?$allocator@PAVCMail@@@std@@@std@@@Z:NEAR ; CDbManager::RemoveMail
;	COMDAT xdata$x
; File c:\documents and settings\test\mes documents\source\virtuos_v17\build\program\_network\mcl\include\cmclcritsec.h
xdata$x	SEGMENT
$T214619 DD	0ffffffffH
	DD	FLAT:$L214181
	DD	00H
	DD	FLAT:$L214182
$T214611 DD	019930520H
	DD	02H
	DD	FLAT:$T214619
	DD	2 DUP(00H)
	DD	2 DUP(00H)
; Function compile flags: /Ogty
; File c:\documents and settings\test\mes documents\source\virtuos_v17\build\program\_common\post.cpp
xdata$x	ENDS
;	COMDAT ?Process@CPost@@QAEXXZ
_TEXT	SEGMENT
_i$199940 = -48						; size = 4
_pMail$199946 = -44					; size = 4
tv321 = -40						; size = 4
_Lock$ = -36						; size = 4
_t$ = -32						; size = 8
_lspMail$ = -24						; size = 12
__$EHRec$ = -12						; size = 12
?Process@CPost@@QAEXXZ PROC NEAR			; CPost::Process, COMDAT
; _this$ = ecx

; 600  : {

  00000	6a ff		 push	 -1
  00002	68 00 00 00 00	 push	 __ehhandler$?Process@CPost@@QAEXXZ
  00007	64 a1 00 00 00
	00		 mov	 eax, DWORD PTR fs:__except_list
  0000d	50		 push	 eax
  0000e	64 89 25 00 00
	00 00		 mov	 DWORD PTR fs:__except_list, esp
  00015	83 ec 24	 sub	 esp, 36			; 00000024H
  00018	53		 push	 ebx
  00019	55		 push	 ebp
  0001a	56		 push	 esi
  0001b	57		 push	 edi
  0001c	8b f9		 mov	 edi, ecx

; 601  : 	CMclAutoLock	Lock( m_csPost );

  0001e	8d 47 10	 lea	 eax, DWORD PTR [edi+16]
  00021	89 44 24 1c	 mov	 DWORD PTR _Lock$[esp+64], eax
  00025	83 c0 04	 add	 eax, 4
  00028	50		 push	 eax
  00029	89 44 24 1c	 mov	 DWORD PTR tv321[esp+68], eax
  0002d	ff 15 00 00 00
	00		 call	 DWORD PTR __imp__EnterCriticalSection@4
  00033	33 db		 xor	 ebx, ebx

; 602  : 	CTime t	= CTime::GetCurrentTime() - CTimeSpan( MAX_KEEP_MAX_DAY, 0, 0, 0 );

  00035	53		 push	 ebx
  00036	89 5c 24 40	 mov	 DWORD PTR __$EHRec$[esp+76], ebx
  0003a	e8 00 00 00 00	 call	 __time64
  0003f	83 c4 04	 add	 esp, 4
  00042	2d 80 f4 03 00	 sub	 eax, 259200		; 0003f480H
  00047	1b d3		 sbb	 edx, ebx

; 603  : 
; 604  : 	list<CMail*>	lspMail;

  00049	8d 4c 24 28	 lea	 ecx, DWORD PTR _lspMail$[esp+64]
  0004d	89 44 24 20	 mov	 DWORD PTR _t$[esp+64], eax
  00051	8b ea		 mov	 ebp, edx
  00053	e8 00 00 00 00	 call	 ?_Buynode@?$list@PAVCMail@@V?$allocator@PAVCMail@@@std@@@std@@IAEPAU_Node@?$_List_nod@PAVCMail@@V?$allocator@PAVCMail@@@std@@@2@XZ ; std::list<CMail *,std::allocator<CMail *> >::_Buynode
  00058	8b f0		 mov	 esi, eax
  0005a	89 74 24 2c	 mov	 DWORD PTR _lspMail$[esp+68], esi
  0005e	89 5c 24 30	 mov	 DWORD PTR _lspMail$[esp+72], ebx

; 605  : 	for( map<u_long, CMail*>::iterator i = m_mapMail4Proc.begin(); i != m_mapMail4Proc.end(); ++i )

  00062	8b 4f 08	 mov	 ecx, DWORD PTR [edi+8]
  00065	8b 01		 mov	 eax, DWORD PTR [ecx]
  00067	3b c1		 cmp	 eax, ecx
  00069	c6 44 24 3c 01	 mov	 BYTE PTR __$EHRec$[esp+72], 1
  0006e	89 44 24 10	 mov	 DWORD PTR _i$199940[esp+64], eax
  00072	74 59		 je	 SHORT $L199945
$L214341:

; 606  : 	{
; 607  : 		CMail* pMail	= i->second;

  00074	8b 40 10	 mov	 eax, DWORD PTR [eax+16]
  00077	89 44 24 14	 mov	 DWORD PTR _pMail$199946[esp+64], eax

; 608  : 		if( pMail->m_tmCreate < t.GetTime() )

  0007b	8b 40 14	 mov	 eax, DWORD PTR [eax+20]
  0007e	99		 cdq
  0007f	3b d5		 cmp	 edx, ebp
  00081	7f 38		 jg	 SHORT $L199944
  00083	7c 06		 jl	 SHORT $L214617
  00085	3b 44 24 20	 cmp	 eax, DWORD PTR _t$[esp+64]
  00089	73 30		 jae	 SHORT $L199944
$L214617:

; 609  : 			lspMail.push_back( pMail );

  0008b	8b 4e 04	 mov	 ecx, DWORD PTR [esi+4]
  0008e	8d 44 24 14	 lea	 eax, DWORD PTR _pMail$199946[esp+64]
  00092	8d 5e 04	 lea	 ebx, DWORD PTR [esi+4]
  00095	50		 push	 eax
  00096	51		 push	 ecx
  00097	56		 push	 esi
  00098	8d 4c 24 34	 lea	 ecx, DWORD PTR _lspMail$[esp+76]
  0009c	e8 00 00 00 00	 call	 ?_Buynode@?$list@PAVCMail@@V?$allocator@PAVCMail@@@std@@@std@@IAEPAU_Node@?$_List_nod@PAVCMail@@V?$allocator@PAVCMail@@@std@@@2@PAU342@0ABQAVCMail@@@Z ; std::list<CMail *,std::allocator<CMail *> >::_Buynode
  000a1	6a 01		 push	 1
  000a3	8d 4c 24 2c	 lea	 ecx, DWORD PTR _lspMail$[esp+68]
  000a7	8b f0		 mov	 esi, eax
  000a9	e8 00 00 00 00	 call	 ?_Incsize@?$list@PAVCMail@@V?$allocator@PAVCMail@@@std@@@std@@IAEXI@Z ; std::list<CMail *,std::allocator<CMail *> >::_Incsize
  000ae	89 33		 mov	 DWORD PTR [ebx], esi
  000b0	8b 56 04	 mov	 edx, DWORD PTR [esi+4]
  000b3	89 32		 mov	 DWORD PTR [edx], esi
  000b5	8b 74 24 2c	 mov	 esi, DWORD PTR _lspMail$[esp+68]
  000b9	33 db		 xor	 ebx, ebx
$L199944:
  000bb	8d 4c 24 10	 lea	 ecx, DWORD PTR _i$199940[esp+64]
  000bf	e8 00 00 00 00	 call	 ?_Inc@const_iterator@?$_Tree@V?$_Tmap_traits@KPAVCMail@@U?$less@K@std@@V?$allocator@U?$pair@$$CBKPAVCMail@@@std@@@3@$0A@@std@@@std@@QAEXXZ ; std::_Tree<std::_Tmap_traits<unsigned long,CMail *,std::less<unsigned long>,std::allocator<std::pair<unsigned long const ,CMail *> >,0> >::const_iterator::_Inc
  000c4	8b 44 24 10	 mov	 eax, DWORD PTR _i$199940[esp+64]
  000c8	3b 47 08	 cmp	 eax, DWORD PTR [edi+8]
  000cb	75 a7		 jne	 SHORT $L214341
$L199945:

; 610  : 	}
; 611  : #ifdef __POST_1204
; 612  : 	g_DbManager.RemoveMail( lspMail, t.GetTime() );
; 613  : #else	// __POST_1204
; 614  : 	g_DbManager.RemoveMail( lspMail );

  000cd	8b 0d 00 00 00
	00		 mov	 ecx, DWORD PTR ?g_DbManager@@3AAVCDbManager@@A ; g_DbManager
  000d3	8d 44 24 28	 lea	 eax, DWORD PTR _lspMail$[esp+64]
  000d7	50		 push	 eax
  000d8	e8 00 00 00 00	 call	 ?RemoveMail@CDbManager@@QAEXAAV?$list@PAVCMail@@V?$allocator@PAVCMail@@@std@@@std@@@Z ; CDbManager::RemoveMail

; 615  : #endif	// __POST_1204
; 616  : 	lspMail.clear();

  000dd	8b 4c 24 2c	 mov	 ecx, DWORD PTR _lspMail$[esp+68]
  000e1	8b 01		 mov	 eax, DWORD PTR [ecx]
  000e3	89 09		 mov	 DWORD PTR [ecx], ecx
  000e5	8b 4c 24 2c	 mov	 ecx, DWORD PTR _lspMail$[esp+68]
  000e9	89 49 04	 mov	 DWORD PTR [ecx+4], ecx
  000ec	8b 4c 24 2c	 mov	 ecx, DWORD PTR _lspMail$[esp+68]
  000f0	3b c1		 cmp	 eax, ecx
  000f2	89 5c 24 30	 mov	 DWORD PTR _lspMail$[esp+72], ebx
  000f6	74 15		 je	 SHORT $L214500
$L214498:
  000f8	8b 30		 mov	 esi, DWORD PTR [eax]
  000fa	50		 push	 eax
  000fb	e8 00 00 00 00	 call	 ??3@YAXPAX@Z		; operator delete
  00100	8b 4c 24 30	 mov	 ecx, DWORD PTR _lspMail$[esp+72]
  00104	83 c4 04	 add	 esp, 4
  00107	3b f1		 cmp	 esi, ecx
  00109	8b c6		 mov	 eax, esi
  0010b	75 eb		 jne	 SHORT $L214498
$L214500:

; 617  : }

  0010d	8b 01		 mov	 eax, DWORD PTR [ecx]
  0010f	89 09		 mov	 DWORD PTR [ecx], ecx
  00111	8b 4c 24 2c	 mov	 ecx, DWORD PTR _lspMail$[esp+68]
  00115	89 49 04	 mov	 DWORD PTR [ecx+4], ecx
  00118	8b 4c 24 2c	 mov	 ecx, DWORD PTR _lspMail$[esp+68]
  0011c	3b c1		 cmp	 eax, ecx
  0011e	89 5c 24 30	 mov	 DWORD PTR _lspMail$[esp+72], ebx
  00122	74 15		 je	 SHORT $L214592
$L214590:
  00124	8b 30		 mov	 esi, DWORD PTR [eax]
  00126	50		 push	 eax
  00127	e8 00 00 00 00	 call	 ??3@YAXPAX@Z		; operator delete
  0012c	8b 4c 24 30	 mov	 ecx, DWORD PTR _lspMail$[esp+72]
  00130	83 c4 04	 add	 esp, 4
  00133	3b f1		 cmp	 esi, ecx
  00135	8b c6		 mov	 eax, esi
  00137	75 eb		 jne	 SHORT $L214590
$L214592:
  00139	51		 push	 ecx
  0013a	e8 00 00 00 00	 call	 ??3@YAXPAX@Z		; operator delete
  0013f	8b 4c 24 1c	 mov	 ecx, DWORD PTR tv321[esp+68]
  00143	83 c4 04	 add	 esp, 4
  00146	51		 push	 ecx
  00147	89 5c 24 30	 mov	 DWORD PTR _lspMail$[esp+72], ebx
  0014b	ff 15 00 00 00
	00		 call	 DWORD PTR __imp__LeaveCriticalSection@4
  00151	8b 4c 24 34	 mov	 ecx, DWORD PTR __$EHRec$[esp+64]
  00155	5f		 pop	 edi
  00156	5e		 pop	 esi
  00157	5d		 pop	 ebp
  00158	5b		 pop	 ebx
  00159	64 89 0d 00 00
	00 00		 mov	 DWORD PTR fs:__except_list, ecx
  00160	83 c4 30	 add	 esp, 48			; 00000030H
  00163	c3		 ret	 0
_TEXT	ENDS
;	COMDAT text$x
text$x	SEGMENT
$L214181:
  00000	8d 4d dc	 lea	 ecx, DWORD PTR _Lock$[ebp]
  00003	e9 00 00 00 00	 jmp	 ??1CMclAutoLock@@QAE@XZ	; CMclAutoLock::~CMclAutoLock
$L214182:
  00008	8d 4d e8	 lea	 ecx, DWORD PTR _lspMail$[ebp]
  0000b	e9 00 00 00 00	 jmp	 ??1?$list@PAVCMail@@V?$allocator@PAVCMail@@@std@@@std@@QAE@XZ ; std::list<CMail *,std::allocator<CMail *> >::~list<CMail *,std::allocator<CMail *> >
__ehhandler$?Process@CPost@@QAEXXZ:
  00010	b8 00 00 00 00	 mov	 eax, OFFSET FLAT:$T214611
  00015	e9 00 00 00 00	 jmp	 ___CxxFrameHandler
text$x	ENDS
?Process@CPost@@QAEXXZ ENDP				; CPost::Process
PUBLIC	?push_back@?$vector@PAVCMail@@V?$allocator@PAVCMail@@@std@@@std@@QAEXABQAVCMail@@@Z ; std::vector<CMail *,std::allocator<CMail *> >::push_back
; Function compile flags: /Ogty
; File c:\program files\microsoft visual studio .net 2003\vc7\include\vector
;	COMDAT ?push_back@?$vector@PAVCMail@@V?$allocator@PAVCMail@@@std@@@std@@QAEXABQAVCMail@@@Z
_TEXT	SEGMENT
__Val$ = 8						; size = 4
?push_back@?$vector@PAVCMail@@V?$allocator@PAVCMail@@@std@@@std@@QAEXABQAVCMail@@@Z PROC NEAR ; std::vector<CMail *,std::allocator<CMail *> >::push_back, COMDAT
; _this$ = ecx

; 579  : 		{	// insert element at end

  00000	56		 push	 esi

; 580  : 		if (size() < capacity())

  00001	8b 71 04	 mov	 esi, DWORD PTR [ecx+4]
  00004	85 f6		 test	 esi, esi
  00006	75 04		 jne	 SHORT $L214631
  00008	33 d2		 xor	 edx, edx
  0000a	eb 08		 jmp	 SHORT $L214632
$L214631:
  0000c	8b 51 08	 mov	 edx, DWORD PTR [ecx+8]
  0000f	2b d6		 sub	 edx, esi
  00011	c1 fa 02	 sar	 edx, 2
$L214632:
  00014	85 f6		 test	 esi, esi
  00016	74 21		 je	 SHORT $L200004
  00018	8b 41 0c	 mov	 eax, DWORD PTR [ecx+12]
  0001b	2b c6		 sub	 eax, esi
  0001d	c1 f8 02	 sar	 eax, 2
  00020	3b d0		 cmp	 edx, eax
  00022	73 15		 jae	 SHORT $L200004

; 581  : 			_Mylast = _Ufill(_Mylast, 1, _Val);

  00024	8b 41 08	 mov	 eax, DWORD PTR [ecx+8]
  00027	8b 54 24 08	 mov	 edx, DWORD PTR __Val$[esp]
  0002b	8b 12		 mov	 edx, DWORD PTR [edx]
  0002d	89 10		 mov	 DWORD PTR [eax], edx
  0002f	83 c0 04	 add	 eax, 4
  00032	89 41 08	 mov	 DWORD PTR [ecx+8], eax
  00035	5e		 pop	 esi

; 584  : 		}

  00036	c2 04 00	 ret	 4
$L200004:

; 582  : 		else
; 583  : 			insert(end(), _Val);

  00039	8b 54 24 08	 mov	 edx, DWORD PTR __Val$[esp]
  0003d	8b 41 08	 mov	 eax, DWORD PTR [ecx+8]
  00040	52		 push	 edx
  00041	6a 01		 push	 1
  00043	50		 push	 eax
  00044	e8 00 00 00 00	 call	 ?_Insert_n@?$vector@PAVCMail@@V?$allocator@PAVCMail@@@std@@@std@@IAEXViterator@12@IABQAVCMail@@@Z ; std::vector<CMail *,std::allocator<CMail *> >::_Insert_n
  00049	5e		 pop	 esi

; 584  : 		}

  0004a	c2 04 00	 ret	 4
?push_back@?$vector@PAVCMail@@V?$allocator@PAVCMail@@@std@@@std@@QAEXABQAVCMail@@@Z ENDP ; std::vector<CMail *,std::allocator<CMail *> >::push_back
_TEXT	ENDS
PUBLIC	??0?$map@KPAVCMail@@U?$less@K@std@@V?$allocator@U?$pair@$$CBKPAVCMail@@@std@@@3@@std@@QAE@XZ ; std::map<unsigned long,CMail *,std::less<unsigned long>,std::allocator<std::pair<unsigned long const ,CMail *> > >::map<unsigned long,CMail *,std::less<unsigned long>,std::allocator<std::pair<unsigned long const ,CMail *> > >
; Function compile flags: /Ogty
; File c:\program files\microsoft visual studio .net 2003\vc7\include\map
;	COMDAT ??0?$map@KPAVCMail@@U?$less@K@std@@V?$allocator@U?$pair@$$CBKPAVCMail@@@std@@@3@@std@@QAE@XZ
_TEXT	SEGMENT
??0?$map@KPAVCMail@@U?$less@K@std@@V?$allocator@U?$pair@$$CBKPAVCMail@@@std@@@3@@std@@QAE@XZ PROC NEAR ; std::map<unsigned long,CMail *,std::less<unsigned long>,std::allocator<std::pair<unsigned long const ,CMail *> > >::map<unsigned long,CMail *,std::less<unsigned long>,std::allocator<std::pair<unsigned long const ,CMail *> > >, COMDAT
; _this$ = ecx

; 102  : 		{	// construct empty map from defaults

  00000	56		 push	 esi
  00001	8b f1		 mov	 esi, ecx
  00003	e8 00 00 00 00	 call	 ?_Buynode@?$_Tree@V?$_Tmap_traits@KPAVCMail@@U?$less@K@std@@V?$allocator@U?$pair@$$CBKPAVCMail@@@std@@@3@$0A@@std@@@std@@IAEPAU_Node@?$_Tree_nod@V?$_Tmap_traits@KPAVCMail@@U?$less@K@std@@V?$allocator@U?$pair@$$CBKPAVCMail@@@std@@@3@$0A@@std@@@2@XZ ; std::_Tree<std::_Tmap_traits<unsigned long,CMail *,std::less<unsigned long>,std::allocator<std::pair<unsigned long const ,CMail *> >,0> >::_Buynode
  00008	89 46 04	 mov	 DWORD PTR [esi+4], eax
  0000b	c6 40 15 01	 mov	 BYTE PTR [eax+21], 1
  0000f	8b 46 04	 mov	 eax, DWORD PTR [esi+4]
  00012	89 40 04	 mov	 DWORD PTR [eax+4], eax
  00015	8b 46 04	 mov	 eax, DWORD PTR [esi+4]
  00018	89 00		 mov	 DWORD PTR [eax], eax
  0001a	8b 46 04	 mov	 eax, DWORD PTR [esi+4]
  0001d	89 40 08	 mov	 DWORD PTR [eax+8], eax
  00020	c7 46 08 00 00
	00 00		 mov	 DWORD PTR [esi+8], 0

; 103  : 		}

  00027	8b c6		 mov	 eax, esi
  00029	5e		 pop	 esi
  0002a	c3		 ret	 0
??0?$map@KPAVCMail@@U?$less@K@std@@V?$allocator@U?$pair@$$CBKPAVCMail@@@std@@@3@@std@@QAE@XZ ENDP ; std::map<unsigned long,CMail *,std::less<unsigned long>,std::allocator<std::pair<unsigned long const ,CMail *> > >::map<unsigned long,CMail *,std::less<unsigned long>,std::allocator<std::pair<unsigned long const ,CMail *> > >
_TEXT	ENDS
PUBLIC	??1?$_Tree@V?$_Tmap_traits@KPAVCMailBox@@U?$less@K@std@@V?$allocator@U?$pair@$$CBKPAVCMailBox@@@std@@@3@$0A@@std@@@std@@QAE@XZ ; std::_Tree<std::_Tmap_traits<unsigned long,CMailBox *,std::less<unsigned long>,std::allocator<std::pair<unsigned long const ,CMailBox *> >,0> >::~_Tree<std::_Tmap_traits<unsigned long,CMailBox *,std::less<unsigned long>,std::allocator<std::pair<unsigned long const ,CMailBox *> >,0> >
; Function compile flags: /Ogty
; File c:\program files\microsoft visual studio .net 2003\vc7\include\xtree
;	COMDAT ??1?$_Tree@V?$_Tmap_traits@KPAVCMailBox@@U?$less@K@std@@V?$allocator@U?$pair@$$CBKPAVCMailBox@@@std@@@3@$0A@@std@@@std@@QAE@XZ
_TEXT	SEGMENT
$T215043 = -4						; size = 4
??1?$_Tree@V?$_Tmap_traits@KPAVCMailBox@@U?$less@K@std@@V?$allocator@U?$pair@$$CBKPAVCMailBox@@@std@@@3@$0A@@std@@@std@@QAE@XZ PROC NEAR ; std::_Tree<std::_Tmap_traits<unsigned long,CMailBox *,std::less<unsigned long>,std::allocator<std::pair<unsigned long const ,CMailBox *> >,0> >::~_Tree<std::_Tmap_traits<unsigned long,CMailBox *,std::less<unsigned long>,std::allocator<std::pair<unsigned long const ,CMailBox *> >,0> >, COMDAT
; _this$ = ecx

; 391  : 		{	// destroy tree

  00000	51		 push	 ecx
  00001	56		 push	 esi
  00002	8b f1		 mov	 esi, ecx

; 392  : 		_Tidy();

  00004	8b 46 04	 mov	 eax, DWORD PTR [esi+4]
  00007	8b 08		 mov	 ecx, DWORD PTR [eax]
  00009	50		 push	 eax
  0000a	51		 push	 ecx
  0000b	8d 44 24 0c	 lea	 eax, DWORD PTR $T215043[esp+16]
  0000f	50		 push	 eax
  00010	8b ce		 mov	 ecx, esi
  00012	e8 00 00 00 00	 call	 ?erase@?$_Tree@V?$_Tmap_traits@KPAVCMailBox@@U?$less@K@std@@V?$allocator@U?$pair@$$CBKPAVCMailBox@@@std@@@3@$0A@@std@@@std@@QAE?AViterator@12@V312@0@Z ; std::_Tree<std::_Tmap_traits<unsigned long,CMailBox *,std::less<unsigned long>,std::allocator<std::pair<unsigned long const ,CMailBox *> >,0> >::erase
  00017	8b 4e 04	 mov	 ecx, DWORD PTR [esi+4]
  0001a	51		 push	 ecx
  0001b	e8 00 00 00 00	 call	 ??3@YAXPAX@Z		; operator delete
  00020	83 c4 04	 add	 esp, 4
  00023	33 c0		 xor	 eax, eax
  00025	89 46 04	 mov	 DWORD PTR [esi+4], eax
  00028	89 46 08	 mov	 DWORD PTR [esi+8], eax
  0002b	5e		 pop	 esi

; 393  : 		}

  0002c	59		 pop	 ecx
  0002d	c3		 ret	 0
??1?$_Tree@V?$_Tmap_traits@KPAVCMailBox@@U?$less@K@std@@V?$allocator@U?$pair@$$CBKPAVCMailBox@@@std@@@3@$0A@@std@@@std@@QAE@XZ ENDP ; std::_Tree<std::_Tmap_traits<unsigned long,CMailBox *,std::less<unsigned long>,std::allocator<std::pair<unsigned long const ,CMailBox *> >,0> >::~_Tree<std::_Tmap_traits<unsigned long,CMailBox *,std::less<unsigned long>,std::allocator<std::pair<unsigned long const ,CMailBox *> >,0> >
_TEXT	ENDS
PUBLIC	??1CMailBox@@UAE@XZ				; CMailBox::~CMailBox
;	COMDAT xdata$x
; File c:\program files\microsoft visual studio .net 2003\vc7\include\xmemory
xdata$x	SEGMENT
$T215098 DD	0ffffffffH
	DD	FLAT:$L215074
$T215096 DD	019930520H
	DD	01H
	DD	FLAT:$T215098
	DD	2 DUP(00H)
	DD	2 DUP(00H)
; Function compile flags: /Ogty
; File c:\documents and settings\test\mes documents\source\virtuos_v17\build\program\_common\post.cpp
xdata$x	ENDS
;	COMDAT ??1CMailBox@@UAE@XZ
_TEXT	SEGMENT
$T215094 = -20						; size = 4
_this$ = -16						; size = 4
__$EHRec$ = -12						; size = 12
??1CMailBox@@UAE@XZ PROC NEAR				; CMailBox::~CMailBox, COMDAT
; _this$ = ecx

; 178  : {

  00000	6a ff		 push	 -1
  00002	68 00 00 00 00	 push	 __ehhandler$??1CMailBox@@UAE@XZ
  00007	64 a1 00 00 00
	00		 mov	 eax, DWORD PTR fs:__except_list
  0000d	50		 push	 eax
  0000e	64 89 25 00 00
	00 00		 mov	 DWORD PTR fs:__except_list, esp
  00015	83 ec 08	 sub	 esp, 8
  00018	56		 push	 esi
  00019	8b f1		 mov	 esi, ecx
  0001b	57		 push	 edi
  0001c	89 74 24 0c	 mov	 DWORD PTR _this$[esp+28], esi
  00020	c7 06 00 00 00
	00		 mov	 DWORD PTR [esi], OFFSET FLAT:??_7CMailBox@@6B@
  00026	33 ff		 xor	 edi, edi
  00028	89 7c 24 18	 mov	 DWORD PTR __$EHRec$[esp+36], edi

; 179  : 	Clear();

  0002c	e8 00 00 00 00	 call	 ?Clear@CMailBox@@QAEXXZ	; CMailBox::Clear

; 180  : 
; 181  : #ifdef __CLIENT
; 182  : 	Error( _T( "CMailBox::~CMailBox" ) );
; 183  : #endif
; 184  : }

  00031	8b 46 08	 mov	 eax, DWORD PTR [esi+8]
  00034	3b c7		 cmp	 eax, edi
  00036	74 09		 je	 SHORT $L215090
  00038	50		 push	 eax
  00039	e8 00 00 00 00	 call	 ??3@YAXPAX@Z		; operator delete
  0003e	83 c4 04	 add	 esp, 4
$L215090:
  00041	8b 4c 24 10	 mov	 ecx, DWORD PTR __$EHRec$[esp+28]
  00045	89 7e 08	 mov	 DWORD PTR [esi+8], edi
  00048	89 7e 0c	 mov	 DWORD PTR [esi+12], edi
  0004b	89 7e 10	 mov	 DWORD PTR [esi+16], edi
  0004e	5f		 pop	 edi
  0004f	5e		 pop	 esi
  00050	64 89 0d 00 00
	00 00		 mov	 DWORD PTR fs:__except_list, ecx
  00057	83 c4 14	 add	 esp, 20			; 00000014H
  0005a	c3		 ret	 0
_TEXT	ENDS
;	COMDAT text$x
text$x	SEGMENT
$L215074:
  00000	83 7d f0 00	 cmp	 DWORD PTR _this$[ebp], 0
  00004	0f 84 0e 00 00
	00		 je	 $L215072
  0000a	8b 45 f0	 mov	 eax, DWORD PTR _this$[ebp]
  0000d	83 c0 04	 add	 eax, 4
  00010	89 45 ec	 mov	 DWORD PTR $T215094[ebp], eax
  00013	e9 07 00 00 00	 jmp	 $L215073
$L215072:
  00018	c7 45 ec 00 00
	00 00		 mov	 DWORD PTR $T215094[ebp], 0
$L215073:
  0001f	8b 4d ec	 mov	 ecx, DWORD PTR $T215094[ebp]
  00022	e9 00 00 00 00	 jmp	 ??1?$vector@PAVCMail@@V?$allocator@PAVCMail@@@std@@@std@@QAE@XZ ; std::vector<CMail *,std::allocator<CMail *> >::~vector<CMail *,std::allocator<CMail *> >
__ehhandler$??1CMailBox@@UAE@XZ:
  00027	b8 00 00 00 00	 mov	 eax, OFFSET FLAT:$T215096
  0002c	e9 00 00 00 00	 jmp	 ___CxxFrameHandler
text$x	ENDS
??1CMailBox@@UAE@XZ ENDP				; CMailBox::~CMailBox
PUBLIC	??_C@_0CL@NMAPAMNI@AddMail?5Failed?5?9?5nMail?5?3?5?$CFd?0?5idS@ ; `string'
PUBLIC	?AddMail@CMailBox@@QAEKPAVCMail@@@Z		; CMailBox::AddMail
EXTRN	?Error@@YAPBDPBDZZ:NEAR				; Error
;	COMDAT ??_C@_0CL@NMAPAMNI@AddMail?5Failed?5?9?5nMail?5?3?5?$CFd?0?5idS@
; File c:\program files\microsoft visual studio .net 2003\vc7\include\utility
CONST	SEGMENT
??_C@_0CL@NMAPAMNI@AddMail?5Failed?5?9?5nMail?5?3?5?$CFd?0?5idS@ DB 'AddM'
	DB	'ail Failed - nMail : %d, idSender : %d', 00H ; `string'
; Function compile flags: /Ogty
; File c:\documents and settings\test\mes documents\source\virtuos_v17\build\program\_common\post.cpp
CONST	ENDS
;	COMDAT ?AddMail@CMailBox@@QAEKPAVCMail@@@Z
_TEXT	SEGMENT
$T215103 = -16						; size = 8
$T215104 = -8						; size = 8
_pMail$ = 8						; size = 4
?AddMail@CMailBox@@QAEKPAVCMail@@@Z PROC NEAR		; CMailBox::AddMail, COMDAT
; _this$ = ecx

; 210  : {

  00000	83 ec 10	 sub	 esp, 16			; 00000010H
  00003	53		 push	 ebx
  00004	56		 push	 esi
  00005	57		 push	 edi

; 211  : 	if( 0 == pMail->m_nMail )

  00006	8b 7c 24 20	 mov	 edi, DWORD PTR _pMail$[esp+24]
  0000a	8b 47 04	 mov	 eax, DWORD PTR [edi+4]
  0000d	85 c0		 test	 eax, eax
  0000f	8b d9		 mov	 ebx, ecx
  00011	75 10		 jne	 SHORT $L199156

; 212  : 		pMail->m_nMail	= ++CMail::s_nMail;

  00013	a1 00 00 00 00	 mov	 eax, DWORD PTR ?s_nMail@CMail@@2KA ; CMail::s_nMail
  00018	40		 inc	 eax
  00019	a3 00 00 00 00	 mov	 DWORD PTR ?s_nMail@CMail@@2KA, eax ; CMail::s_nMail
  0001e	89 47 04	 mov	 DWORD PTR [edi+4], eax

; 213  : 	else

  00021	eb 05		 jmp	 SHORT $L199157
$L199156:

; 214  : 		CMail::s_nMail	= pMail->m_nMail;

  00023	a3 00 00 00 00	 mov	 DWORD PTR ?s_nMail@CMail@@2KA, eax ; CMail::s_nMail
$L199157:

; 215  : 
; 216  : #ifdef __CLIENT
; 217  : 	Error( _T( "CMailBox::AddMail  nMail:%d sMail:%d" ), pMail->m_nMail, CMail::s_nMail );
; 218  : #endif
; 219  : 
; 220  : 	// : POST: m_nMail      .
; 221  : 	//      .
; 222  : 
; 223  : 	push_back( pMail );

  00028	8b 73 08	 mov	 esi, DWORD PTR [ebx+8]
  0002b	85 f6		 test	 esi, esi
  0002d	8d 4b 04	 lea	 ecx, DWORD PTR [ebx+4]
  00030	75 04		 jne	 SHORT $L215291
  00032	33 d2		 xor	 edx, edx
  00034	eb 08		 jmp	 SHORT $L215292
$L215291:
  00036	8b 51 08	 mov	 edx, DWORD PTR [ecx+8]
  00039	2b d6		 sub	 edx, esi
  0003b	c1 fa 02	 sar	 edx, 2
$L215292:
  0003e	85 f6		 test	 esi, esi
  00040	74 19		 je	 SHORT $L215353
  00042	8b 41 0c	 mov	 eax, DWORD PTR [ecx+12]
  00045	2b c6		 sub	 eax, esi
  00047	c1 f8 02	 sar	 eax, 2
  0004a	3b d0		 cmp	 edx, eax
  0004c	73 0d		 jae	 SHORT $L215353
  0004e	8b 41 08	 mov	 eax, DWORD PTR [ecx+8]
  00051	89 38		 mov	 DWORD PTR [eax], edi
  00053	83 c0 04	 add	 eax, 4
  00056	89 41 08	 mov	 DWORD PTR [ecx+8], eax
  00059	eb 10		 jmp	 SHORT $L215348
$L215353:
  0005b	8b 41 08	 mov	 eax, DWORD PTR [ecx+8]
  0005e	8d 54 24 20	 lea	 edx, DWORD PTR _pMail$[esp+24]
  00062	52		 push	 edx
  00063	6a 01		 push	 1
  00065	50		 push	 eax
  00066	e8 00 00 00 00	 call	 ?_Insert_n@?$vector@PAVCMail@@V?$allocator@PAVCMail@@@std@@@std@@IAEXViterator@12@IABQAVCMail@@@Z ; std::vector<CMail *,std::allocator<CMail *> >::_Insert_n
$L215348:

; 224  : #ifdef __DBSERVER
; 225  : 	pMail->SetMailBox( this );

  0006b	89 9f 3c 01 00
	00		 mov	 DWORD PTR [edi+316], ebx

; 226  : 	if( m_pPost )

  00071	8b 43 14	 mov	 eax, DWORD PTR [ebx+20]
  00074	85 c0		 test	 eax, eax
  00076	74 39		 je	 SHORT $L215367

; 227  : 	{
; 228  : 		bool bResult	= m_pPost->m_mapMail4Proc.insert( map<u_long, CMail*>::value_type( pMail->m_nMail, pMail ) ).second;

  00078	8b 4f 04	 mov	 ecx, DWORD PTR [edi+4]
  0007b	89 4c 24 0c	 mov	 DWORD PTR $T215103[esp+28], ecx
  0007f	8d 54 24 0c	 lea	 edx, DWORD PTR $T215103[esp+28]
  00083	52		 push	 edx
  00084	8d 4c 24 18	 lea	 ecx, DWORD PTR $T215104[esp+32]
  00088	51		 push	 ecx
  00089	8d 48 04	 lea	 ecx, DWORD PTR [eax+4]
  0008c	89 7c 24 18	 mov	 DWORD PTR $T215103[esp+40], edi
  00090	e8 00 00 00 00	 call	 ?insert@?$_Tree@V?$_Tmap_traits@KPAVCMail@@U?$less@K@std@@V?$allocator@U?$pair@$$CBKPAVCMail@@@std@@@3@$0A@@std@@@std@@QAE?AU?$pair@Viterator@?$_Tree@V?$_Tmap_traits@KPAVCMail@@U?$less@K@std@@V?$allocator@U?$pair@$$CBKPAVCMail@@@std@@@3@$0A@@std@@@std@@_N@2@ABU?$pair@$$CBKPAVCMail@@@2@@Z ; std::_Tree<std::_Tmap_traits<unsigned long,CMail *,std::less<unsigned long>,std::allocator<std::pair<unsigned long const ,CMail *> >,0> >::insert

; 229  : 		if( bResult == FALSE )

  00095	8a 48 04	 mov	 cl, BYTE PTR [eax+4]
  00098	84 c9		 test	 cl, cl

; 230  : 		{
; 231  : 			Error( "AddMail Failed - nMail : %d, idSender : %d", pMail->m_nMail, pMail->m_idSender );

  0009a	8b 47 04	 mov	 eax, DWORD PTR [edi+4]
  0009d	75 15		 jne	 SHORT $L199209
  0009f	8b 57 08	 mov	 edx, DWORD PTR [edi+8]
  000a2	52		 push	 edx
  000a3	50		 push	 eax
  000a4	68 00 00 00 00	 push	 OFFSET FLAT:??_C@_0CL@NMAPAMNI@AddMail?5Failed?5?9?5nMail?5?3?5?$CFd?0?5idS@
  000a9	e8 00 00 00 00	 call	 ?Error@@YAPBDPBDZZ	; Error
  000ae	83 c4 0c	 add	 esp, 12			; 0000000cH
$L215367:

; 232  : 		}
; 233  : 		else
; 234  : 		{
; 235  : // 			//	BEGINTEST
; 236  : // 			Error( "CMailBox::AddMail Sender[%d] nMail[%d]", pMail->m_idSender, pMail->m_nMail );
; 237  : 		}
; 238  : 	}
; 239  : #endif	// __DBSERVER
; 240  : 	return pMail->m_nMail;

  000b1	8b 47 04	 mov	 eax, DWORD PTR [edi+4]
$L199209:
  000b4	5f		 pop	 edi
  000b5	5e		 pop	 esi
  000b6	5b		 pop	 ebx

; 241  : }

  000b7	83 c4 10	 add	 esp, 16			; 00000010H
  000ba	c2 04 00	 ret	 4
?AddMail@CMailBox@@QAEKPAVCMail@@@Z ENDP		; CMailBox::AddMail
_TEXT	ENDS
PUBLIC	?Serialize@CMailBox@@QAEXAAVCAr@@H@Z		; CMailBox::Serialize
; Function compile flags: /Ogty
;	COMDAT ?Serialize@CMailBox@@QAEXAAVCAr@@H@Z
_TEXT	SEGMENT
tv190 = 8						; size = 4
_ar$ = 8						; size = 4
_bData$ = 12						; size = 4
?Serialize@CMailBox@@QAEXAAVCAr@@H@Z PROC NEAR		; CMailBox::Serialize, COMDAT
; _this$ = ecx

; 349  : {

  00000	53		 push	 ebx
  00001	55		 push	 ebp
  00002	56		 push	 esi

; 350  : 	if( ar.IsStoring() )

  00003	8b 74 24 10	 mov	 esi, DWORD PTR _ar$[esp+8]
  00007	33 c0		 xor	 eax, eax
  00009	8a 06		 mov	 al, BYTE PTR [esi]
  0000b	57		 push	 edi
  0000c	8b e9		 mov	 ebp, ecx
  0000e	f7 d0		 not	 eax
  00010	a8 01		 test	 al, 1
  00012	74 66		 je	 SHORT $L199229

; 351  : 	{
; 352  : 		ar << m_idReceiver;

  00014	8b 5d 18	 mov	 ebx, DWORD PTR [ebp+24]
  00017	bf 04 00 00 00	 mov	 edi, 4
  0001c	57		 push	 edi
  0001d	8b ce		 mov	 ecx, esi
  0001f	e8 00 00 00 00	 call	 ?CheckBuf@CAr@@QAEXI@Z	; CAr::CheckBuf
  00024	8b 4e 08	 mov	 ecx, DWORD PTR [esi+8]
  00027	89 19		 mov	 DWORD PTR [ecx], ebx
  00029	01 7e 08	 add	 DWORD PTR [esi+8], edi

; 353  : 		ar << (int)size();

  0002c	8b 45 08	 mov	 eax, DWORD PTR [ebp+8]
  0002f	33 db		 xor	 ebx, ebx
  00031	3b c3		 cmp	 eax, ebx
  00033	74 08		 je	 SHORT $L215389
  00035	8b 5d 0c	 mov	 ebx, DWORD PTR [ebp+12]
  00038	2b d8		 sub	 ebx, eax
  0003a	c1 fb 02	 sar	 ebx, 2
$L215389:
  0003d	57		 push	 edi
  0003e	8b ce		 mov	 ecx, esi
  00040	e8 00 00 00 00	 call	 ?CheckBuf@CAr@@QAEXI@Z	; CAr::CheckBuf
  00045	8b 56 08	 mov	 edx, DWORD PTR [esi+8]
  00048	89 1a		 mov	 DWORD PTR [edx], ebx
  0004a	01 7e 08	 add	 DWORD PTR [esi+8], edi

; 354  : 		for( MailVectorItr i = begin(); i != end(); ++i )

  0004d	8b 7d 08	 mov	 edi, DWORD PTR [ebp+8]
  00050	3b 7d 0c	 cmp	 edi, DWORD PTR [ebp+12]
  00053	0f 84 c1 00 00
	00		 je	 $L199243
  00059	8b 5c 24 18	 mov	 ebx, DWORD PTR _bData$[esp+12]
  0005d	8d 49 00	 npad	 3
$L215418:

; 355  : 		{
; 356  : 			CMail* pMail	= *i;
; 357  : 			pMail->Serialize( ar, bData );

  00060	8b 0f		 mov	 ecx, DWORD PTR [edi]
  00062	53		 push	 ebx
  00063	56		 push	 esi
  00064	e8 00 00 00 00	 call	 ?Serialize@CMail@@QAEXAAVCAr@@H@Z ; CMail::Serialize
  00069	8b 45 0c	 mov	 eax, DWORD PTR [ebp+12]
  0006c	83 c7 04	 add	 edi, 4
  0006f	3b f8		 cmp	 edi, eax
  00071	75 ed		 jne	 SHORT $L215418
  00073	5f		 pop	 edi
  00074	5e		 pop	 esi
  00075	5d		 pop	 ebp
  00076	5b		 pop	 ebx

; 380  : 		}
; 381  : 	}
; 382  : }

  00077	c2 08 00	 ret	 8
$L199229:

; 358  : 		}
; 359  : 	}
; 360  : 	else
; 361  : 	{
; 362  : 		Clear();

  0007a	8b cd		 mov	 ecx, ebp
  0007c	e8 00 00 00 00	 call	 ?Clear@CMailBox@@QAEXXZ	; CMailBox::Clear

; 363  : 		ar >> m_idReceiver;

  00081	8b 46 08	 mov	 eax, DWORD PTR [esi+8]
  00084	8b 56 0c	 mov	 edx, DWORD PTR [esi+12]
  00087	8d 48 04	 lea	 ecx, DWORD PTR [eax+4]
  0008a	33 db		 xor	 ebx, ebx
  0008c	3b ca		 cmp	 ecx, edx
  0008e	77 0d		 ja	 SHORT $L215453
  00090	8b 10		 mov	 edx, DWORD PTR [eax]
  00092	89 55 18	 mov	 DWORD PTR [ebp+24], edx
  00095	8b 46 08	 mov	 eax, DWORD PTR [esi+8]
  00098	83 c0 04	 add	 eax, 4
  0009b	eb 06		 jmp	 SHORT $L215476
$L215453:
  0009d	89 5d 18	 mov	 DWORD PTR [ebp+24], ebx
  000a0	8b 46 0c	 mov	 eax, DWORD PTR [esi+12]
$L215476:

; 364  : 		int nSize;
; 365  : 		ar >> nSize;

  000a3	8b 56 0c	 mov	 edx, DWORD PTR [esi+12]
  000a6	8d 48 04	 lea	 ecx, DWORD PTR [eax+4]
  000a9	3b ca		 cmp	 ecx, edx
  000ab	89 46 08	 mov	 DWORD PTR [esi+8], eax
  000ae	77 07		 ja	 SHORT $L215466
  000b0	8b 00		 mov	 eax, DWORD PTR [eax]
  000b2	89 4e 08	 mov	 DWORD PTR [esi+8], ecx
  000b5	eb 05		 jmp	 SHORT $L215467
$L215466:
  000b7	33 c0		 xor	 eax, eax
  000b9	89 56 08	 mov	 DWORD PTR [esi+8], edx
$L215467:

; 366  : 
; 367  : #ifdef __MAIL_REQUESTING_BOX
; 368  : 		if( g_WndMng.m_bWaitRequestMail && nSize <= 0 )
; 369  : 			g_DPlay.SendQueryMailBox();
; 370  : #endif //__MAIL_REQUESTING_BOX
; 371  : 
; 372  : #ifdef __CLIENT
; 373  : 			Error( _T( "CMailBox::Serialize m_idReceiver:%d, nSize:%d" ), m_idReceiver, nSize );
; 374  : #endif
; 375  : 		for( int i = 0; i < nSize; i++ )

  000bc	3b c3		 cmp	 eax, ebx
  000be	7e 5a		 jle	 SHORT $L199243
  000c0	89 44 24 14	 mov	 DWORD PTR tv190[esp+12], eax
$L199241:

; 376  : 		{
; 377  : 			CMail* pMail	= new CMail;

  000c4	68 40 01 00 00	 push	 320			; 00000140H
  000c9	e8 00 00 00 00	 call	 ??2@YAPAXI@Z		; operator new
  000ce	83 c4 04	 add	 esp, 4
  000d1	3b c3		 cmp	 eax, ebx
  000d3	74 28		 je	 SHORT $L215373
  000d5	c7 00 00 00 00
	00		 mov	 DWORD PTR [eax], OFFSET FLAT:??_7CMail@@6B@
  000db	89 58 04	 mov	 DWORD PTR [eax+4], ebx
  000de	89 58 08	 mov	 DWORD PTR [eax+8], ebx
  000e1	89 58 0c	 mov	 DWORD PTR [eax+12], ebx
  000e4	89 58 14	 mov	 DWORD PTR [eax+20], ebx
  000e7	88 58 18	 mov	 BYTE PTR [eax+24], bl
  000ea	88 58 19	 mov	 BYTE PTR [eax+25], bl
  000ed	88 58 39	 mov	 BYTE PTR [eax+57], bl
  000f0	89 98 3c 01 00
	00		 mov	 DWORD PTR [eax+316], ebx
  000f6	89 58 10	 mov	 DWORD PTR [eax+16], ebx
  000f9	8b f8		 mov	 edi, eax
  000fb	eb 02		 jmp	 SHORT $L215374
$L215373:
  000fd	33 ff		 xor	 edi, edi
$L215374:

; 378  : 			pMail->Serialize( ar, bData );

  000ff	8b 4c 24 18	 mov	 ecx, DWORD PTR _bData$[esp+12]
  00103	51		 push	 ecx
  00104	56		 push	 esi
  00105	8b cf		 mov	 ecx, edi
  00107	e8 00 00 00 00	 call	 ?Serialize@CMail@@QAEXAAVCAr@@H@Z ; CMail::Serialize

; 379  : 			AddMail( pMail );

  0010c	57		 push	 edi
  0010d	8b cd		 mov	 ecx, ebp
  0010f	e8 00 00 00 00	 call	 ?AddMail@CMailBox@@QAEKPAVCMail@@@Z ; CMailBox::AddMail
  00114	ff 4c 24 14	 dec	 DWORD PTR tv190[esp+12]
  00118	75 aa		 jne	 SHORT $L199241
$L199243:
  0011a	5f		 pop	 edi
  0011b	5e		 pop	 esi
  0011c	5d		 pop	 ebp
  0011d	5b		 pop	 ebx

; 380  : 		}
; 381  : 	}
; 382  : }

  0011e	c2 08 00	 ret	 8
?Serialize@CMailBox@@QAEXAAVCAr@@H@Z ENDP		; CMailBox::Serialize
_TEXT	ENDS
PUBLIC	??1?$map@KPAVCMailBox@@U?$less@K@std@@V?$allocator@U?$pair@$$CBKPAVCMailBox@@@std@@@3@@std@@QAE@XZ ; std::map<unsigned long,CMailBox *,std::less<unsigned long>,std::allocator<std::pair<unsigned long const ,CMailBox *> > >::~map<unsigned long,CMailBox *,std::less<unsigned long>,std::allocator<std::pair<unsigned long const ,CMailBox *> > >
; Function compile flags: /Ogty
;	COMDAT ??1?$map@KPAVCMailBox@@U?$less@K@std@@V?$allocator@U?$pair@$$CBKPAVCMailBox@@@std@@@3@@std@@QAE@XZ
_TEXT	SEGMENT
$T215578 = -4						; size = 4
??1?$map@KPAVCMailBox@@U?$less@K@std@@V?$allocator@U?$pair@$$CBKPAVCMailBox@@@std@@@3@@std@@QAE@XZ PROC NEAR ; std::map<unsigned long,CMailBox *,std::less<unsigned long>,std::allocator<std::pair<unsigned long const ,CMailBox *> > >::~map<unsigned long,CMailBox *,std::less<unsigned long>,std::allocator<std::pair<unsigned long const ,CMailBox *> > >, COMDAT
; _this$ = ecx
  00000	51		 push	 ecx
  00001	56		 push	 esi
  00002	8b f1		 mov	 esi, ecx
  00004	8b 46 04	 mov	 eax, DWORD PTR [esi+4]
  00007	8b 08		 mov	 ecx, DWORD PTR [eax]
  00009	50		 push	 eax
  0000a	51		 push	 ecx
  0000b	8d 44 24 0c	 lea	 eax, DWORD PTR $T215578[esp+16]
  0000f	50		 push	 eax
  00010	8b ce		 mov	 ecx, esi
  00012	e8 00 00 00 00	 call	 ?erase@?$_Tree@V?$_Tmap_traits@KPAVCMailBox@@U?$less@K@std@@V?$allocator@U?$pair@$$CBKPAVCMailBox@@@std@@@3@$0A@@std@@@std@@QAE?AViterator@12@V312@0@Z ; std::_Tree<std::_Tmap_traits<unsigned long,CMailBox *,std::less<unsigned long>,std::allocator<std::pair<unsigned long const ,CMailBox *> >,0> >::erase
  00017	8b 4e 04	 mov	 ecx, DWORD PTR [esi+4]
  0001a	51		 push	 ecx
  0001b	e8 00 00 00 00	 call	 ??3@YAXPAX@Z		; operator delete
  00020	83 c4 04	 add	 esp, 4
  00023	33 c0		 xor	 eax, eax
  00025	89 46 04	 mov	 DWORD PTR [esi+4], eax
  00028	89 46 08	 mov	 DWORD PTR [esi+8], eax
  0002b	5e		 pop	 esi
  0002c	59		 pop	 ecx
  0002d	c3		 ret	 0
??1?$map@KPAVCMailBox@@U?$less@K@std@@V?$allocator@U?$pair@$$CBKPAVCMailBox@@@std@@@3@@std@@QAE@XZ ENDP ; std::map<unsigned long,CMailBox *,std::less<unsigned long>,std::allocator<std::pair<unsigned long const ,CMailBox *> > >::~map<unsigned long,CMailBox *,std::less<unsigned long>,std::allocator<std::pair<unsigned long const ,CMailBox *> > >
_TEXT	ENDS
PUBLIC	??_7CPost@@6B@					; CPost::`vftable'
PUBLIC	??1CPost@@UAE@XZ				; CPost::~CPost
PUBLIC	??_GCPost@@UAEPAXI@Z				; CPost::`scalar deleting destructor'
EXTRN	??_ECPost@@UAEPAXI@Z:NEAR			; CPost::`vector deleting destructor'
;	COMDAT xdata$x
; File c:\program files\microsoft visual studio .net 2003\vc7\include\xmemory
xdata$x	SEGMENT
$T215936 DD	0ffffffffH
	DD	FLAT:$L215606
	DD	00H
	DD	FLAT:$L215607
	DD	01H
	DD	FLAT:$L215608
$T215934 DD	019930520H
	DD	03H
	DD	FLAT:$T215936
	DD	2 DUP(00H)
	DD	2 DUP(00H)
xdata$x	ENDS
;	COMDAT ??_7CPost@@6B@
CONST	SEGMENT
??_7CPost@@6B@ DD FLAT:??_ECPost@@UAEPAXI@Z		; CPost::`vftable'
; Function compile flags: /Ogty
; File c:\documents and settings\test\mes documents\source\virtuos_v17\build\program\_common\post.cpp
CONST	ENDS
;	COMDAT ??1CPost@@UAE@XZ
_TEXT	SEGMENT
_this$ = -20						; size = 4
$T215906 = -16						; size = 4
$T215741 = -16						; size = 4
__$EHRec$ = -12						; size = 12
??1CPost@@UAE@XZ PROC NEAR				; CPost::~CPost, COMDAT
; _this$ = ecx

; 513  : {

  00000	6a ff		 push	 -1
  00002	68 00 00 00 00	 push	 __ehhandler$??1CPost@@UAE@XZ
  00007	64 a1 00 00 00
	00		 mov	 eax, DWORD PTR fs:__except_list
  0000d	50		 push	 eax
  0000e	64 89 25 00 00
	00 00		 mov	 DWORD PTR fs:__except_list, esp
  00015	83 ec 08	 sub	 esp, 8
  00018	53		 push	 ebx
  00019	56		 push	 esi
  0001a	8b f1		 mov	 esi, ecx
  0001c	57		 push	 edi
  0001d	89 74 24 0c	 mov	 DWORD PTR _this$[esp+32], esi
  00021	c7 06 00 00 00
	00		 mov	 DWORD PTR [esi], OFFSET FLAT:??_7CPost@@6B@
  00027	c7 44 24 1c 02
	00 00 00	 mov	 DWORD PTR __$EHRec$[esp+40], 2

; 514  : 	Clear();

  0002f	e8 00 00 00 00	 call	 ?Clear@CPost@@QAEXXZ	; CPost::Clear

; 515  : }

  00034	8b 46 30	 mov	 eax, DWORD PTR [esi+48]
  00037	8b 08		 mov	 ecx, DWORD PTR [eax]
  00039	8d 7e 2c	 lea	 edi, DWORD PTR [esi+44]
  0003c	50		 push	 eax
  0003d	51		 push	 ecx
  0003e	8d 44 24 18	 lea	 eax, DWORD PTR $T215741[esp+40]
  00042	50		 push	 eax
  00043	8b cf		 mov	 ecx, edi
  00045	c6 44 24 28 01	 mov	 BYTE PTR __$EHRec$[esp+52], 1
  0004a	e8 00 00 00 00	 call	 ?erase@?$_Tree@V?$_Tmap_traits@KPAVCMailBox@@U?$less@K@std@@V?$allocator@U?$pair@$$CBKPAVCMailBox@@@std@@@3@$0A@@std@@@std@@QAE?AViterator@12@V312@0@Z ; std::_Tree<std::_Tmap_traits<unsigned long,CMailBox *,std::less<unsigned long>,std::allocator<std::pair<unsigned long const ,CMailBox *> >,0> >::erase
  0004f	8b 47 04	 mov	 eax, DWORD PTR [edi+4]
  00052	50		 push	 eax
  00053	e8 00 00 00 00	 call	 ??3@YAXPAX@Z		; operator delete
  00058	83 c4 04	 add	 esp, 4
  0005b	33 db		 xor	 ebx, ebx
  0005d	8d 4e 14	 lea	 ecx, DWORD PTR [esi+20]
  00060	89 5f 04	 mov	 DWORD PTR [edi+4], ebx
  00063	89 5f 08	 mov	 DWORD PTR [edi+8], ebx
  00066	51		 push	 ecx
  00067	c7 46 10 00 00
	00 00		 mov	 DWORD PTR [esi+16], OFFSET FLAT:??_7CMclCritSec@@6B@
  0006e	ff 15 00 00 00
	00		 call	 DWORD PTR __imp__DeleteCriticalSection@4
  00074	8b 46 08	 mov	 eax, DWORD PTR [esi+8]
  00077	8b 08		 mov	 ecx, DWORD PTR [eax]
  00079	83 c6 04	 add	 esi, 4
  0007c	50		 push	 eax
  0007d	51		 push	 ecx
  0007e	8d 54 24 18	 lea	 edx, DWORD PTR $T215906[esp+40]
  00082	52		 push	 edx
  00083	8b ce		 mov	 ecx, esi
  00085	c7 44 24 28 ff
	ff ff ff	 mov	 DWORD PTR __$EHRec$[esp+52], -1
  0008d	e8 00 00 00 00	 call	 ?erase@?$_Tree@V?$_Tmap_traits@KPAVCMail@@U?$less@K@std@@V?$allocator@U?$pair@$$CBKPAVCMail@@@std@@@3@$0A@@std@@@std@@QAE?AViterator@12@V312@0@Z ; std::_Tree<std::_Tmap_traits<unsigned long,CMail *,std::less<unsigned long>,std::allocator<std::pair<unsigned long const ,CMail *> >,0> >::erase
  00092	8b 46 04	 mov	 eax, DWORD PTR [esi+4]
  00095	50		 push	 eax
  00096	e8 00 00 00 00	 call	 ??3@YAXPAX@Z		; operator delete
  0009b	8b 4c 24 18	 mov	 ecx, DWORD PTR __$EHRec$[esp+36]
  0009f	83 c4 04	 add	 esp, 4
  000a2	89 5e 04	 mov	 DWORD PTR [esi+4], ebx
  000a5	89 5e 08	 mov	 DWORD PTR [esi+8], ebx
  000a8	5f		 pop	 edi
  000a9	5e		 pop	 esi
  000aa	5b		 pop	 ebx
  000ab	64 89 0d 00 00
	00 00		 mov	 DWORD PTR fs:__except_list, ecx
  000b2	83 c4 14	 add	 esp, 20			; 00000014H
  000b5	c3		 ret	 0
_TEXT	ENDS
;	COMDAT text$x
text$x	SEGMENT
$L215606:
  00000	8b 4d ec	 mov	 ecx, DWORD PTR _this$[ebp]
  00003	83 c1 04	 add	 ecx, 4
  00006	e9 00 00 00 00	 jmp	 ??1?$map@KPAVCMail@@U?$less@K@std@@V?$allocator@U?$pair@$$CBKPAVCMail@@@std@@@3@@std@@QAE@XZ
$L215607:
  0000b	8b 4d ec	 mov	 ecx, DWORD PTR _this$[ebp]
  0000e	83 c1 10	 add	 ecx, 16			; 00000010H
  00011	e9 00 00 00 00	 jmp	 ??1CMclCritSec@@UAE@XZ	; CMclCritSec::~CMclCritSec
$L215608:
  00016	8b 4d ec	 mov	 ecx, DWORD PTR _this$[ebp]
  00019	83 c1 2c	 add	 ecx, 44			; 0000002cH
  0001c	e9 00 00 00 00	 jmp	 ??1?$map@KPAVCMailBox@@U?$less@K@std@@V?$allocator@U?$pair@$$CBKPAVCMailBox@@@std@@@3@@std@@QAE@XZ
__ehhandler$??1CPost@@UAE@XZ:
  00021	b8 00 00 00 00	 mov	 eax, OFFSET FLAT:$T215934
  00026	e9 00 00 00 00	 jmp	 ___CxxFrameHandler
text$x	ENDS
??1CPost@@UAE@XZ ENDP					; CPost::~CPost
PUBLIC	?AddMail@CPost@@QAEKKPAVCMail@@@Z		; CPost::AddMail
PUBLIC	??_C@_0CE@ONJNFFPI@AddMailBox?5Failed?5?9?5idReceiver?5?3@ ; `string'
;	COMDAT xdata$x
; File c:\program files\microsoft visual studio .net 2003\vc7\include\utility
xdata$x	SEGMENT
$T216161 DD	0ffffffffH
	DD	FLAT:$L215945
$T216158 DD	019930520H
	DD	01H
	DD	FLAT:$T216161
	DD	2 DUP(00H)
	DD	2 DUP(00H)
xdata$x	ENDS
;	COMDAT ??_C@_0CE@ONJNFFPI@AddMailBox?5Failed?5?9?5idReceiver?5?3@
CONST	SEGMENT
??_C@_0CE@ONJNFFPI@AddMailBox?5Failed?5?9?5idReceiver?5?3@ DB 'AddMailBox'
	DB	' Failed - idReceiver : %d', 00H		; `string'
; Function compile flags: /Ogty
; File c:\documents and settings\test\mes documents\source\virtuos_v17\build\program\_common\post.cpp
CONST	ENDS
;	COMDAT ?AddMail@CPost@@QAEKKPAVCMail@@@Z
_TEXT	SEGMENT
$T215942 = -32						; size = 4
$T216150 = -28						; size = 8
$T216019 = -28						; size = 4
$T216149 = -20						; size = 8
_i$215997 = -20						; size = 4
__$EHRec$ = -12						; size = 12
_idReceiver$ = 8					; size = 4
_pMail$ = 12						; size = 4
?AddMail@CPost@@QAEKKPAVCMail@@@Z PROC NEAR		; CPost::AddMail, COMDAT
; _this$ = ecx

; 534  : {

  00000	6a ff		 push	 -1
  00002	68 00 00 00 00	 push	 __ehhandler$?AddMail@CPost@@QAEKKPAVCMail@@@Z
  00007	64 a1 00 00 00
	00		 mov	 eax, DWORD PTR fs:__except_list
  0000d	50		 push	 eax
  0000e	64 89 25 00 00
	00 00		 mov	 DWORD PTR fs:__except_list, esp
  00015	83 ec 14	 sub	 esp, 20			; 00000014H

; 535  : 	CMailBox* pMailBox	= GetMailBox( idReceiver );

  00018	8b 44 24 24	 mov	 eax, DWORD PTR _idReceiver$[esp+28]
  0001c	55		 push	 ebp
  0001d	56		 push	 esi
  0001e	8b f1		 mov	 esi, ecx
  00020	57		 push	 edi
  00021	8d 4c 24 10	 lea	 ecx, DWORD PTR $T216019[esp+44]
  00025	51		 push	 ecx
  00026	8d 54 24 1c	 lea	 edx, DWORD PTR _i$215997[esp+48]
  0002a	8d 6e 2c	 lea	 ebp, DWORD PTR [esi+44]
  0002d	52		 push	 edx
  0002e	8b cd		 mov	 ecx, ebp
  00030	89 44 24 18	 mov	 DWORD PTR $T216019[esp+52], eax
  00034	e8 00 00 00 00	 call	 ?find@?$_Tree@V?$_Tmap_traits@KPAVCMailBox@@U?$less@K@std@@V?$allocator@U?$pair@$$CBKPAVCMailBox@@@std@@@3@$0A@@std@@@std@@QAE?AViterator@12@ABK@Z ; std::_Tree<std::_Tmap_traits<unsigned long,CMailBox *,std::less<unsigned long>,std::allocator<std::pair<unsigned long const ,CMailBox *> >,0> >::find
  00039	8b 46 30	 mov	 eax, DWORD PTR [esi+48]
  0003c	8b 4c 24 18	 mov	 ecx, DWORD PTR _i$215997[esp+44]
  00040	3b c8		 cmp	 ecx, eax
  00042	74 07		 je	 SHORT $L216159
  00044	8b 79 10	 mov	 edi, DWORD PTR [ecx+16]

; 536  : 	if( !pMailBox )

  00047	85 ff		 test	 edi, edi
  00049	75 76		 jne	 SHORT $L199460
$L216159:

; 537  : 	{
; 538  : 		pMailBox	= new CMailBox( idReceiver );

  0004b	6a 1c		 push	 28			; 0000001cH
  0004d	e8 00 00 00 00	 call	 ??2@YAPAXI@Z		; operator new
  00052	83 c4 04	 add	 esp, 4
  00055	85 c0		 test	 eax, eax
  00057	74 24		 je	 SHORT $L215943
  00059	8b 4c 24 30	 mov	 ecx, DWORD PTR _idReceiver$[esp+40]
  0005d	c7 40 08 00 00
	00 00		 mov	 DWORD PTR [eax+8], 0
  00064	c7 40 0c 00 00
	00 00		 mov	 DWORD PTR [eax+12], 0
  0006b	c7 40 10 00 00
	00 00		 mov	 DWORD PTR [eax+16], 0
  00072	c7 00 00 00 00
	00		 mov	 DWORD PTR [eax], OFFSET FLAT:??_7CMailBox@@6B@
  00078	89 48 18	 mov	 DWORD PTR [eax+24], ecx
  0007b	eb 02		 jmp	 SHORT $L215944
$L215943:
  0007d	33 c0		 xor	 eax, eax
$L215944:

; 539  : 		if( AddMailBox( pMailBox ) == FALSE )

  0007f	89 70 14	 mov	 DWORD PTR [eax+20], esi
  00082	8b 50 18	 mov	 edx, DWORD PTR [eax+24]
  00085	8b f8		 mov	 edi, eax
  00087	89 44 24 1c	 mov	 DWORD PTR $T216149[esp+48], eax
  0008b	8d 44 24 18	 lea	 eax, DWORD PTR $T216149[esp+44]
  0008f	50		 push	 eax
  00090	8d 4c 24 14	 lea	 ecx, DWORD PTR $T216150[esp+48]
  00094	51		 push	 ecx
  00095	8b cd		 mov	 ecx, ebp
  00097	c7 44 24 30 ff
	ff ff ff	 mov	 DWORD PTR __$EHRec$[esp+60], -1
  0009f	89 54 24 20	 mov	 DWORD PTR $T216149[esp+52], edx
  000a3	e8 00 00 00 00	 call	 ?insert@?$_Tree@V?$_Tmap_traits@KPAVCMailBox@@U?$less@K@std@@V?$allocator@U?$pair@$$CBKPAVCMailBox@@@std@@@3@$0A@@std@@@std@@QAE?AU?$pair@Viterator@?$_Tree@V?$_Tmap_traits@KPAVCMailBox@@U?$less@K@std@@V?$allocator@U?$pair@$$CBKPAVCMailBox@@@std@@@3@$0A@@std@@@std@@_N@2@ABU?$pair@$$CBKPAVCMailBox@@@2@@Z ; std::_Tree<std::_Tmap_traits<unsigned long,CMailBox *,std::less<unsigned long>,std::allocator<std::pair<unsigned long const ,CMailBox *> >,0> >::insert
  000a8	8a 48 04	 mov	 cl, BYTE PTR [eax+4]
  000ab	84 c9		 test	 cl, cl
  000ad	75 12		 jne	 SHORT $L199460

; 540  : 		{
; 541  : 			Error( "AddMailBox Failed - idReceiver : %d", idReceiver );

  000af	8b 54 24 30	 mov	 edx, DWORD PTR _idReceiver$[esp+40]
  000b3	52		 push	 edx
  000b4	68 00 00 00 00	 push	 OFFSET FLAT:??_C@_0CE@ONJNFFPI@AddMailBox?5Failed?5?9?5idReceiver?5?3@
  000b9	e8 00 00 00 00	 call	 ?Error@@YAPBDPBDZZ	; Error
  000be	83 c4 08	 add	 esp, 8
$L199460:

; 542  : 		}
; 543  : 		else
; 544  : 		{
; 545  : // 			//	BEGINTEST
; 546  : // 			Error( "CPost::AddMail [%d]", idReceiver );
; 547  : 		}
; 548  : 	}
; 549  : 	return pMailBox->AddMail( pMail );

  000c1	8b 44 24 34	 mov	 eax, DWORD PTR _pMail$[esp+40]
  000c5	50		 push	 eax
  000c6	8b cf		 mov	 ecx, edi
  000c8	e8 00 00 00 00	 call	 ?AddMail@CMailBox@@QAEKPAVCMail@@@Z ; CMailBox::AddMail

; 550  : }

  000cd	8b 4c 24 20	 mov	 ecx, DWORD PTR __$EHRec$[esp+44]
  000d1	5f		 pop	 edi
  000d2	5e		 pop	 esi
  000d3	5d		 pop	 ebp
  000d4	64 89 0d 00 00
	00 00		 mov	 DWORD PTR fs:__except_list, ecx
  000db	83 c4 20	 add	 esp, 32			; 00000020H
  000de	c2 08 00	 ret	 8
_TEXT	ENDS
;	COMDAT text$x
text$x	SEGMENT
$L215945:
  00000	8b 45 e0	 mov	 eax, DWORD PTR $T215942[ebp]
  00003	50		 push	 eax
  00004	e8 00 00 00 00	 call	 ??3@YAXPAX@Z		; operator delete
  00009	59		 pop	 ecx
  0000a	c3		 ret	 0
__ehhandler$?AddMail@CPost@@QAEKKPAVCMail@@@Z:
  0000b	b8 00 00 00 00	 mov	 eax, OFFSET FLAT:$T216158
  00010	e9 00 00 00 00	 jmp	 ___CxxFrameHandler
text$x	ENDS
?AddMail@CPost@@QAEKKPAVCMail@@@Z ENDP			; CPost::AddMail
PUBLIC	?Serialize@CPost@@QAEXAAVCAr@@H@Z		; CPost::Serialize
;	COMDAT xdata$x
; File c:\program files\microsoft visual studio .net 2003\vc7\include\utility
xdata$x	SEGMENT
$T216428 DD	0ffffffffH
	DD	FLAT:$L216171
$T216422 DD	019930520H
	DD	01H
	DD	FLAT:$T216428
	DD	2 DUP(00H)
	DD	2 DUP(00H)
; Function compile flags: /Ogty
; File c:\documents and settings\test\mes documents\source\virtuos_v17\build\program\_common\post.cpp
xdata$x	ENDS
;	COMDAT ?Serialize@CPost@@QAEXAAVCAr@@H@Z
_TEXT	SEGMENT
$T216168 = -40						; size = 4
tv172 = -36						; size = 4
_i$199520 = -36						; size = 4
$T216413 = -32						; size = 8
$T216414 = -24						; size = 8
__$EHRec$ = -12						; size = 12
_ar$ = 8						; size = 4
_bData$ = 12						; size = 4
?Serialize@CPost@@QAEXAAVCAr@@H@Z PROC NEAR		; CPost::Serialize, COMDAT
; _this$ = ecx

; 569  : {

  00000	55		 push	 ebp
  00001	8b ec		 mov	 ebp, esp
  00003	83 e4 f8	 and	 esp, -8			; fffffff8H
  00006	6a ff		 push	 -1
  00008	68 00 00 00 00	 push	 __ehhandler$?Serialize@CPost@@QAEXAAVCAr@@H@Z
  0000d	64 a1 00 00 00
	00		 mov	 eax, DWORD PTR fs:__except_list
  00013	50		 push	 eax
  00014	64 89 25 00 00
	00 00		 mov	 DWORD PTR fs:__except_list, esp
  0001b	83 ec 20	 sub	 esp, 32			; 00000020H
  0001e	53		 push	 ebx
  0001f	56		 push	 esi
  00020	57		 push	 edi

; 570  : 	if( ar.IsStoring() )

  00021	8b 7d 08	 mov	 edi, DWORD PTR _ar$[ebp]
  00024	33 c0		 xor	 eax, eax
  00026	8a 07		 mov	 al, BYTE PTR [edi]
  00028	8b d9		 mov	 ebx, ecx
  0002a	f7 d0		 not	 eax
  0002c	a8 01		 test	 al, 1
  0002e	74 60		 je	 SHORT $L199514

; 571  : 	{
; 572  : 		ar << m_mapMailBox.size();

  00030	8b 73 34	 mov	 esi, DWORD PTR [ebx+52]
  00033	6a 04		 push	 4
  00035	8b cf		 mov	 ecx, edi
  00037	e8 00 00 00 00	 call	 ?CheckBuf@CAr@@QAEXI@Z	; CAr::CheckBuf
  0003c	8b 4f 08	 mov	 ecx, DWORD PTR [edi+8]
  0003f	89 31		 mov	 DWORD PTR [ecx], esi
  00041	83 47 08 04	 add	 DWORD PTR [edi+8], 4

; 573  : 		for( map<u_long, CMailBox*>::iterator i = m_mapMailBox.begin(); i != m_mapMailBox.end(); ++i )

  00045	8b 4b 30	 mov	 ecx, DWORD PTR [ebx+48]
  00048	8b 01		 mov	 eax, DWORD PTR [ecx]
  0004a	3b c1		 cmp	 eax, ecx
  0004c	89 44 24 14	 mov	 DWORD PTR _i$199520[esp+56], eax
  00050	0f 84 bd 00 00
	00		 je	 $L199532
  00056	8b 75 0c	 mov	 esi, DWORD PTR _bData$[ebp]
  00059	8d a4 24 00 00
	00 00		 npad	 7
$L216223:

; 574  : 		{
; 575  : 			CMailBox* pMailBox	= i->second;
; 576  : 			pMailBox->Serialize( ar, bData );

  00060	8b 48 10	 mov	 ecx, DWORD PTR [eax+16]
  00063	56		 push	 esi
  00064	57		 push	 edi
  00065	e8 00 00 00 00	 call	 ?Serialize@CMailBox@@QAEXAAVCAr@@H@Z ; CMailBox::Serialize
  0006a	8d 4c 24 14	 lea	 ecx, DWORD PTR _i$199520[esp+56]
  0006e	e8 00 00 00 00	 call	 ?_Inc@const_iterator@?$_Tree@V?$_Tmap_traits@KPAVCMailBox@@U?$less@K@std@@V?$allocator@U?$pair@$$CBKPAVCMailBox@@@std@@@3@$0A@@std@@@std@@QAEXXZ ; std::_Tree<std::_Tmap_traits<unsigned long,CMailBox *,std::less<unsigned long>,std::allocator<std::pair<unsigned long const ,CMailBox *> >,0> >::const_iterator::_Inc
  00073	8b 44 24 14	 mov	 eax, DWORD PTR _i$199520[esp+56]
  00077	3b 43 30	 cmp	 eax, DWORD PTR [ebx+48]
  0007a	75 e4		 jne	 SHORT $L216223

; 588  : 		}
; 589  : 	}
; 590  : }

  0007c	8b 4c 24 2c	 mov	 ecx, DWORD PTR __$EHRec$[esp+56]
  00080	64 89 0d 00 00
	00 00		 mov	 DWORD PTR fs:__except_list, ecx
  00087	5f		 pop	 edi
  00088	5e		 pop	 esi
  00089	5b		 pop	 ebx
  0008a	8b e5		 mov	 esp, ebp
  0008c	5d		 pop	 ebp
  0008d	c2 08 00	 ret	 8
$L199514:

; 577  : 		}
; 578  : 	}
; 579  : 	else
; 580  : 	{
; 581  : 		int nSize;
; 582  : 		ar >> nSize;

  00090	8b 47 08	 mov	 eax, DWORD PTR [edi+8]
  00093	8b 57 0c	 mov	 edx, DWORD PTR [edi+12]
  00096	8d 48 04	 lea	 ecx, DWORD PTR [eax+4]
  00099	33 f6		 xor	 esi, esi
  0009b	3b ca		 cmp	 ecx, edx
  0009d	77 07		 ja	 SHORT $L216281
  0009f	8b 00		 mov	 eax, DWORD PTR [eax]
  000a1	89 4f 08	 mov	 DWORD PTR [edi+8], ecx
  000a4	eb 05		 jmp	 SHORT $L216282
$L216281:
  000a6	33 c0		 xor	 eax, eax
  000a8	89 57 08	 mov	 DWORD PTR [edi+8], edx
$L216282:

; 583  : 		for( int i = 0; i < nSize; i++ )

  000ab	3b c6		 cmp	 eax, esi
  000ad	7e 64		 jle	 SHORT $L199532
  000af	89 44 24 14	 mov	 DWORD PTR tv172[esp+56], eax
  000b3	eb 02		 jmp	 SHORT $L199530
$L216426:
  000b5	33 f6		 xor	 esi, esi
$L199530:

; 584  : 		{
; 585  : 			CMailBox* pMailBox	= new CMailBox;

  000b7	6a 1c		 push	 28			; 0000001cH
  000b9	e8 00 00 00 00	 call	 ??2@YAPAXI@Z		; operator new
  000be	83 c4 04	 add	 esp, 4
  000c1	3b c6		 cmp	 eax, esi
  000c3	74 14		 je	 SHORT $L216170
  000c5	89 70 08	 mov	 DWORD PTR [eax+8], esi
  000c8	89 70 0c	 mov	 DWORD PTR [eax+12], esi
  000cb	89 70 10	 mov	 DWORD PTR [eax+16], esi
  000ce	89 70 18	 mov	 DWORD PTR [eax+24], esi
  000d1	c7 00 00 00 00
	00		 mov	 DWORD PTR [eax], OFFSET FLAT:??_7CMailBox@@6B@
  000d7	8b f0		 mov	 esi, eax
$L216170:

; 586  : 			pMailBox->Serialize( ar, bData );

  000d9	8b 55 0c	 mov	 edx, DWORD PTR _bData$[ebp]
  000dc	52		 push	 edx
  000dd	57		 push	 edi
  000de	8b ce		 mov	 ecx, esi
  000e0	c7 44 24 3c ff
	ff ff ff	 mov	 DWORD PTR __$EHRec$[esp+72], -1
  000e8	e8 00 00 00 00	 call	 ?Serialize@CMailBox@@QAEXAAVCAr@@H@Z ; CMailBox::Serialize

; 587  : 			AddMailBox( pMailBox );

  000ed	8d 4c 24 18	 lea	 ecx, DWORD PTR $T216413[esp+56]
  000f1	51		 push	 ecx
  000f2	89 5e 14	 mov	 DWORD PTR [esi+20], ebx
  000f5	8b 46 18	 mov	 eax, DWORD PTR [esi+24]
  000f8	8d 54 24 24	 lea	 edx, DWORD PTR $T216414[esp+60]
  000fc	52		 push	 edx
  000fd	8d 4b 2c	 lea	 ecx, DWORD PTR [ebx+44]
  00100	89 44 24 20	 mov	 DWORD PTR $T216413[esp+64], eax
  00104	89 74 24 24	 mov	 DWORD PTR $T216413[esp+68], esi
  00108	e8 00 00 00 00	 call	 ?insert@?$_Tree@V?$_Tmap_traits@KPAVCMailBox@@U?$less@K@std@@V?$allocator@U?$pair@$$CBKPAVCMailBox@@@std@@@3@$0A@@std@@@std@@QAE?AU?$pair@Viterator@?$_Tree@V?$_Tmap_traits@KPAVCMailBox@@U?$less@K@std@@V?$allocator@U?$pair@$$CBKPAVCMailBox@@@std@@@3@$0A@@std@@@std@@_N@2@ABU?$pair@$$CBKPAVCMailBox@@@2@@Z ; std::_Tree<std::_Tmap_traits<unsigned long,CMailBox *,std::less<unsigned long>,std::allocator<std::pair<unsigned long const ,CMailBox *> >,0> >::insert
  0010d	ff 4c 24 14	 dec	 DWORD PTR tv172[esp+56]
  00111	75 a2		 jne	 SHORT $L216426
$L199532:

; 588  : 		}
; 589  : 	}
; 590  : }

  00113	8b 4c 24 2c	 mov	 ecx, DWORD PTR __$EHRec$[esp+56]
  00117	5f		 pop	 edi
  00118	5e		 pop	 esi
  00119	64 89 0d 00 00
	00 00		 mov	 DWORD PTR fs:__except_list, ecx
  00120	5b		 pop	 ebx
  00121	8b e5		 mov	 esp, ebp
  00123	5d		 pop	 ebp
  00124	c2 08 00	 ret	 8
_TEXT	ENDS
;	COMDAT text$x
text$x	SEGMENT
$L216171:
  00000	8b 45 d8	 mov	 eax, DWORD PTR $T216168[ebp]
  00003	50		 push	 eax
  00004	e8 00 00 00 00	 call	 ??3@YAXPAX@Z		; operator delete
  00009	59		 pop	 ecx
  0000a	c3		 ret	 0
__ehhandler$?Serialize@CPost@@QAEXAAVCAr@@H@Z:
  0000b	b8 00 00 00 00	 mov	 eax, OFFSET FLAT:$T216422
  00010	e9 00 00 00 00	 jmp	 ___CxxFrameHandler
text$x	ENDS
?Serialize@CPost@@QAEXAAVCAr@@H@Z ENDP			; CPost::Serialize
PUBLIC	??0?$map@KPAVCMailBox@@U?$less@K@std@@V?$allocator@U?$pair@$$CBKPAVCMailBox@@@std@@@3@@std@@QAE@XZ ; std::map<unsigned long,CMailBox *,std::less<unsigned long>,std::allocator<std::pair<unsigned long const ,CMailBox *> > >::map<unsigned long,CMailBox *,std::less<unsigned long>,std::allocator<std::pair<unsigned long const ,CMailBox *> > >
; Function compile flags: /Ogty
; File c:\program files\microsoft visual studio .net 2003\vc7\include\map
;	COMDAT ??0?$map@KPAVCMailBox@@U?$less@K@std@@V?$allocator@U?$pair@$$CBKPAVCMailBox@@@std@@@3@@std@@QAE@XZ
_TEXT	SEGMENT
??0?$map@KPAVCMailBox@@U?$less@K@std@@V?$allocator@U?$pair@$$CBKPAVCMailBox@@@std@@@3@@std@@QAE@XZ PROC NEAR ; std::map<unsigned long,CMailBox *,std::less<unsigned long>,std::allocator<std::pair<unsigned long const ,CMailBox *> > >::map<unsigned long,CMailBox *,std::less<unsigned long>,std::allocator<std::pair<unsigned long const ,CMailBox *> > >, COMDAT
; _this$ = ecx

; 102  : 		{	// construct empty map from defaults

  00000	56		 push	 esi
  00001	8b f1		 mov	 esi, ecx
  00003	e8 00 00 00 00	 call	 ?_Buynode@?$_Tree@V?$_Tmap_traits@KPAVCMailBox@@U?$less@K@std@@V?$allocator@U?$pair@$$CBKPAVCMailBox@@@std@@@3@$0A@@std@@@std@@IAEPAU_Node@?$_Tree_nod@V?$_Tmap_traits@KPAVCMailBox@@U?$less@K@std@@V?$allocator@U?$pair@$$CBKPAVCMailBox@@@std@@@3@$0A@@std@@@2@XZ ; std::_Tree<std::_Tmap_traits<unsigned long,CMailBox *,std::less<unsigned long>,std::allocator<std::pair<unsigned long const ,CMailBox *> >,0> >::_Buynode
  00008	89 46 04	 mov	 DWORD PTR [esi+4], eax
  0000b	c6 40 15 01	 mov	 BYTE PTR [eax+21], 1
  0000f	8b 46 04	 mov	 eax, DWORD PTR [esi+4]
  00012	89 40 04	 mov	 DWORD PTR [eax+4], eax
  00015	8b 46 04	 mov	 eax, DWORD PTR [esi+4]
  00018	89 00		 mov	 DWORD PTR [eax], eax
  0001a	8b 46 04	 mov	 eax, DWORD PTR [esi+4]
  0001d	89 40 08	 mov	 DWORD PTR [eax+8], eax
  00020	c7 46 08 00 00
	00 00		 mov	 DWORD PTR [esi+8], 0

; 103  : 		}

  00027	8b c6		 mov	 eax, esi
  00029	5e		 pop	 esi
  0002a	c3		 ret	 0
??0?$map@KPAVCMailBox@@U?$less@K@std@@V?$allocator@U?$pair@$$CBKPAVCMailBox@@@std@@@3@@std@@QAE@XZ ENDP ; std::map<unsigned long,CMailBox *,std::less<unsigned long>,std::allocator<std::pair<unsigned long const ,CMailBox *> > >::map<unsigned long,CMailBox *,std::less<unsigned long>,std::allocator<std::pair<unsigned long const ,CMailBox *> > >
; Function compile flags: /Ogty
_TEXT	ENDS
;	COMDAT ??_GCMailBox@@UAEPAXI@Z
_TEXT	SEGMENT
___flags$ = 8						; size = 4
??_GCMailBox@@UAEPAXI@Z PROC NEAR			; CMailBox::`scalar deleting destructor', COMDAT
; _this$ = ecx
  00000	56		 push	 esi
  00001	8b f1		 mov	 esi, ecx
  00003	e8 00 00 00 00	 call	 ??1CMailBox@@UAE@XZ	; CMailBox::~CMailBox
  00008	f6 44 24 08 01	 test	 BYTE PTR ___flags$[esp], 1
  0000d	74 09		 je	 SHORT $L216599
  0000f	56		 push	 esi
  00010	e8 00 00 00 00	 call	 ??3@YAXPAX@Z		; operator delete
  00015	83 c4 04	 add	 esp, 4
$L216599:
  00018	8b c6		 mov	 eax, esi
  0001a	5e		 pop	 esi
  0001b	c2 04 00	 ret	 4
??_GCMailBox@@UAEPAXI@Z ENDP				; CMailBox::`scalar deleting destructor'
_TEXT	ENDS
PUBLIC	?GetInstance@CMailBox@@SAPAV1@XZ		; CMailBox::GetInstance
EXTRN	_atexit:NEAR
;	COMDAT ?sMailBox@?1??GetInstance@CMailBox@@SAPAV2@XZ@4V2@A
; File c:\program files\microsoft visual studio .net 2003\vc7\include\xmemory
_BSS	SEGMENT
?sMailBox@?1??GetInstance@CMailBox@@SAPAV2@XZ@4V2@A DB 01cH DUP (?) ; `CMailBox::GetInstance'::`2'::sMailBox
_BSS	ENDS
;	COMDAT ?$S1@?1??GetInstance@CMailBox@@SAPAV2@XZ@4IA
_BSS	SEGMENT
?$S1@?1??GetInstance@CMailBox@@SAPAV2@XZ@4IA DD 01H DUP (?) ; `CMailBox::GetInstance'::`2'::$S1
_BSS	ENDS
;	COMDAT xdata$x
xdata$x	SEGMENT
$T216724 DD	0ffffffffH
	DD	FLAT:$L216602
$T216721 DD	019930520H
	DD	01H
	DD	FLAT:$T216724
	DD	2 DUP(00H)
	DD	2 DUP(00H)
; Function compile flags: /Ogty
; File c:\documents and settings\test\mes documents\source\virtuos_v17\build\program\_common\post.cpp
xdata$x	ENDS
;	COMDAT ?GetInstance@CMailBox@@SAPAV1@XZ
_TEXT	SEGMENT
__$EHRec$ = -12						; size = 12
?GetInstance@CMailBox@@SAPAV1@XZ PROC NEAR		; CMailBox::GetInstance, COMDAT

; 187  : {

  00000	64 a1 00 00 00
	00		 mov	 eax, DWORD PTR fs:__except_list

; 188  : 	static CMailBox	sMailBox;

  00006	8a 0d 00 00 00
	00		 mov	 cl, BYTE PTR ?$S1@?1??GetInstance@CMailBox@@SAPAV2@XZ@4IA
  0000c	6a ff		 push	 -1
  0000e	68 00 00 00 00	 push	 __ehhandler$?GetInstance@CMailBox@@SAPAV1@XZ
  00013	50		 push	 eax
  00014	b8 01 00 00 00	 mov	 eax, 1
  00019	84 c8		 test	 cl, al
  0001b	64 89 25 00 00
	00 00		 mov	 DWORD PTR fs:__except_list, esp
  00022	75 33		 jne	 SHORT $L216722
  00024	09 05 00 00 00
	00		 or	 DWORD PTR ?$S1@?1??GetInstance@CMailBox@@SAPAV2@XZ@4IA, eax
  0002a	33 c0		 xor	 eax, eax
  0002c	68 00 00 00 00	 push	 OFFSET FLAT:_$E2
  00031	a3 08 00 00 00	 mov	 DWORD PTR ?sMailBox@?1??GetInstance@CMailBox@@SAPAV2@XZ@4V2@A+8, eax
  00036	a3 0c 00 00 00	 mov	 DWORD PTR ?sMailBox@?1??GetInstance@CMailBox@@SAPAV2@XZ@4V2@A+12, eax
  0003b	a3 10 00 00 00	 mov	 DWORD PTR ?sMailBox@?1??GetInstance@CMailBox@@SAPAV2@XZ@4V2@A+16, eax
  00040	c7 05 00 00 00
	00 00 00 00 00	 mov	 DWORD PTR ?sMailBox@?1??GetInstance@CMailBox@@SAPAV2@XZ@4V2@A, OFFSET FLAT:??_7CMailBox@@6B@
  0004a	a3 18 00 00 00	 mov	 DWORD PTR ?sMailBox@?1??GetInstance@CMailBox@@SAPAV2@XZ@4V2@A+24, eax
  0004f	e8 00 00 00 00	 call	 _atexit
  00054	83 c4 04	 add	 esp, 4
$L216722:

; 189  : 	return &sMailBox;
; 190  : }

  00057	8b 0c 24	 mov	 ecx, DWORD PTR __$EHRec$[esp+12]
  0005a	b8 00 00 00 00	 mov	 eax, OFFSET FLAT:?sMailBox@?1??GetInstance@CMailBox@@SAPAV2@XZ@4V2@A
  0005f	64 89 0d 00 00
	00 00		 mov	 DWORD PTR fs:__except_list, ecx
  00066	83 c4 0c	 add	 esp, 12			; 0000000cH
  00069	c3		 ret	 0
_TEXT	ENDS
;	COMDAT text$x
text$x	SEGMENT
$L216602:
  00000	a1 00 00 00 00	 mov	 eax, DWORD PTR ?$S1@?1??GetInstance@CMailBox@@SAPAV2@XZ@4IA
  00005	83 e0 fe	 and	 eax, -2			; fffffffeH
  00008	a3 00 00 00 00	 mov	 DWORD PTR ?$S1@?1??GetInstance@CMailBox@@SAPAV2@XZ@4IA, eax
  0000d	c3		 ret	 0
__ehhandler$?GetInstance@CMailBox@@SAPAV1@XZ:
  0000e	b8 00 00 00 00	 mov	 eax, OFFSET FLAT:$T216721
  00013	e9 00 00 00 00	 jmp	 ___CxxFrameHandler
text$x	ENDS
?GetInstance@CMailBox@@SAPAV1@XZ ENDP			; CMailBox::GetInstance
PUBLIC	??0CPost@@QAE@XZ				; CPost::CPost
;	COMDAT xdata$x
; File c:\program files\microsoft visual studio .net 2003\vc7\include\xtree
xdata$x	SEGMENT
$T217167 DD	0ffffffffH
	DD	FLAT:$L216729
	DD	00H
	DD	FLAT:$L216730
$T217165 DD	019930520H
	DD	02H
	DD	FLAT:$T217167
	DD	2 DUP(00H)
	DD	2 DUP(00H)
; Function compile flags: /Ogty
; File c:\documents and settings\test\mes documents\source\virtuos_v17\build\program\_common\post.cpp
xdata$x	ENDS
;	COMDAT ??0CPost@@QAE@XZ
_TEXT	SEGMENT
_this$ = -16						; size = 4
__$EHRec$ = -12						; size = 12
??0CPost@@QAE@XZ PROC NEAR				; CPost::CPost, COMDAT
; _this$ = ecx

; 509  : {

  00000	6a ff		 push	 -1
  00002	68 00 00 00 00	 push	 __ehhandler$??0CPost@@QAE@XZ
  00007	64 a1 00 00 00
	00		 mov	 eax, DWORD PTR fs:__except_list
  0000d	50		 push	 eax
  0000e	64 89 25 00 00
	00 00		 mov	 DWORD PTR fs:__except_list, esp
  00015	51		 push	 ecx
  00016	56		 push	 esi
  00017	8b f1		 mov	 esi, ecx
  00019	57		 push	 edi
  0001a	8d 7e 04	 lea	 edi, DWORD PTR [esi+4]
  0001d	8b cf		 mov	 ecx, edi
  0001f	89 74 24 08	 mov	 DWORD PTR _this$[esp+24], esi
  00023	c7 06 00 00 00
	00		 mov	 DWORD PTR [esi], OFFSET FLAT:??_7CPost@@6B@
  00029	e8 00 00 00 00	 call	 ?_Buynode@?$_Tree@V?$_Tmap_traits@KPAVCMail@@U?$less@K@std@@V?$allocator@U?$pair@$$CBKPAVCMail@@@std@@@3@$0A@@std@@@std@@IAEPAU_Node@?$_Tree_nod@V?$_Tmap_traits@KPAVCMail@@U?$less@K@std@@V?$allocator@U?$pair@$$CBKPAVCMail@@@std@@@3@$0A@@std@@@2@XZ ; std::_Tree<std::_Tmap_traits<unsigned long,CMail *,std::less<unsigned long>,std::allocator<std::pair<unsigned long const ,CMail *> >,0> >::_Buynode
  0002e	89 47 04	 mov	 DWORD PTR [edi+4], eax
  00031	c6 40 15 01	 mov	 BYTE PTR [eax+21], 1
  00035	8b 47 04	 mov	 eax, DWORD PTR [edi+4]
  00038	89 40 04	 mov	 DWORD PTR [eax+4], eax
  0003b	8b 47 04	 mov	 eax, DWORD PTR [edi+4]
  0003e	89 00		 mov	 DWORD PTR [eax], eax
  00040	8b 47 04	 mov	 eax, DWORD PTR [edi+4]
  00043	89 40 08	 mov	 DWORD PTR [eax+8], eax
  00046	c7 47 08 00 00
	00 00		 mov	 DWORD PTR [edi+8], 0
  0004d	8d 46 14	 lea	 eax, DWORD PTR [esi+20]
  00050	50		 push	 eax
  00051	c7 44 24 18 00
	00 00 00	 mov	 DWORD PTR __$EHRec$[esp+36], 0
  00059	c7 46 10 00 00
	00 00		 mov	 DWORD PTR [esi+16], OFFSET FLAT:??_7CMclCritSec@@6B@
  00060	ff 15 00 00 00
	00		 call	 DWORD PTR __imp__InitializeCriticalSection@4
  00066	8d 7e 2c	 lea	 edi, DWORD PTR [esi+44]
  00069	8b cf		 mov	 ecx, edi
  0006b	c6 44 24 14 01	 mov	 BYTE PTR __$EHRec$[esp+32], 1
  00070	e8 00 00 00 00	 call	 ?_Buynode@?$_Tree@V?$_Tmap_traits@KPAVCMailBox@@U?$less@K@std@@V?$allocator@U?$pair@$$CBKPAVCMailBox@@@std@@@3@$0A@@std@@@std@@IAEPAU_Node@?$_Tree_nod@V?$_Tmap_traits@KPAVCMailBox@@U?$less@K@std@@V?$allocator@U?$pair@$$CBKPAVCMailBox@@@std@@@3@$0A@@std@@@2@XZ ; std::_Tree<std::_Tmap_traits<unsigned long,CMailBox *,std::less<unsigned long>,std::allocator<std::pair<unsigned long const ,CMailBox *> >,0> >::_Buynode

; 510  : }

  00075	8b 4c 24 0c	 mov	 ecx, DWORD PTR __$EHRec$[esp+24]
  00079	89 47 04	 mov	 DWORD PTR [edi+4], eax
  0007c	c6 40 15 01	 mov	 BYTE PTR [eax+21], 1
  00080	8b 47 04	 mov	 eax, DWORD PTR [edi+4]
  00083	89 40 04	 mov	 DWORD PTR [eax+4], eax
  00086	8b 47 04	 mov	 eax, DWORD PTR [edi+4]
  00089	89 00		 mov	 DWORD PTR [eax], eax
  0008b	8b 47 04	 mov	 eax, DWORD PTR [edi+4]
  0008e	89 40 08	 mov	 DWORD PTR [eax+8], eax
  00091	c7 47 08 00 00
	00 00		 mov	 DWORD PTR [edi+8], 0
  00098	5f		 pop	 edi
  00099	8b c6		 mov	 eax, esi
  0009b	5e		 pop	 esi
  0009c	64 89 0d 00 00
	00 00		 mov	 DWORD PTR fs:__except_list, ecx
  000a3	83 c4 10	 add	 esp, 16			; 00000010H
  000a6	c3		 ret	 0
_TEXT	ENDS
;	COMDAT text$x
text$x	SEGMENT
$L216729:
  00000	8b 4d f0	 mov	 ecx, DWORD PTR _this$[ebp]
  00003	83 c1 04	 add	 ecx, 4
  00006	e9 00 00 00 00	 jmp	 ??1?$map@KPAVCMail@@U?$less@K@std@@V?$allocator@U?$pair@$$CBKPAVCMail@@@std@@@3@@std@@QAE@XZ
$L216730:
  0000b	8b 4d f0	 mov	 ecx, DWORD PTR _this$[ebp]
  0000e	83 c1 10	 add	 ecx, 16			; 00000010H
  00011	e9 00 00 00 00	 jmp	 ??1CMclCritSec@@UAE@XZ	; CMclCritSec::~CMclCritSec
__ehhandler$??0CPost@@QAE@XZ:
  00016	b8 00 00 00 00	 mov	 eax, OFFSET FLAT:$T217165
  0001b	e9 00 00 00 00	 jmp	 ___CxxFrameHandler
text$x	ENDS
??0CPost@@QAE@XZ ENDP					; CPost::CPost
; Function compile flags: /Ogty
;	COMDAT ??_GCPost@@UAEPAXI@Z
_TEXT	SEGMENT
___flags$ = 8						; size = 4
??_GCPost@@UAEPAXI@Z PROC NEAR				; CPost::`scalar deleting destructor', COMDAT
; _this$ = ecx
  00000	56		 push	 esi
  00001	8b f1		 mov	 esi, ecx
  00003	e8 00 00 00 00	 call	 ??1CPost@@UAE@XZ	; CPost::~CPost
  00008	f6 44 24 08 01	 test	 BYTE PTR ___flags$[esp], 1
  0000d	74 09		 je	 SHORT $L217172
  0000f	56		 push	 esi
  00010	e8 00 00 00 00	 call	 ??3@YAXPAX@Z		; operator delete
  00015	83 c4 04	 add	 esp, 4
$L217172:
  00018	8b c6		 mov	 eax, esi
  0001a	5e		 pop	 esi
  0001b	c2 04 00	 ret	 4
??_GCPost@@UAEPAXI@Z ENDP				; CPost::`scalar deleting destructor'
_TEXT	ENDS
PUBLIC	?GetInstance@CPost@@SAPAV1@XZ			; CPost::GetInstance
;	COMDAT ?sPost@?1??GetInstance@CPost@@SAPAV2@XZ@4V2@A
_BSS	SEGMENT
?sPost@?1??GetInstance@CPost@@SAPAV2@XZ@4V2@A DB 038H DUP (?) ; `CPost::GetInstance'::`2'::sPost
_BSS	ENDS
;	COMDAT ?$S3@?1??GetInstance@CPost@@SAPAV2@XZ@4IA
_BSS	SEGMENT
?$S3@?1??GetInstance@CPost@@SAPAV2@XZ@4IA DD 01H DUP (?) ; `CPost::GetInstance'::`2'::$S3
_BSS	ENDS
;	COMDAT xdata$x
xdata$x	SEGMENT
$T217180 DD	0ffffffffH
	DD	FLAT:$L217175
$T217177 DD	019930520H
	DD	01H
	DD	FLAT:$T217180
	DD	2 DUP(00H)
	DD	2 DUP(00H)
; Function compile flags: /Ogty
xdata$x	ENDS
;	COMDAT ?GetInstance@CPost@@SAPAV1@XZ
_TEXT	SEGMENT
__$EHRec$ = -12						; size = 12
?GetInstance@CPost@@SAPAV1@XZ PROC NEAR			; CPost::GetInstance, COMDAT

; 593  : {

  00000	64 a1 00 00 00
	00		 mov	 eax, DWORD PTR fs:__except_list

; 594  : 	static CPost	sPost;

  00006	8a 0d 00 00 00
	00		 mov	 cl, BYTE PTR ?$S3@?1??GetInstance@CPost@@SAPAV2@XZ@4IA
  0000c	6a ff		 push	 -1
  0000e	68 00 00 00 00	 push	 __ehhandler$?GetInstance@CPost@@SAPAV1@XZ
  00013	50		 push	 eax
  00014	b8 01 00 00 00	 mov	 eax, 1
  00019	84 c8		 test	 cl, al
  0001b	64 89 25 00 00
	00 00		 mov	 DWORD PTR fs:__except_list, esp
  00022	75 25		 jne	 SHORT $L217178
  00024	09 05 00 00 00
	00		 or	 DWORD PTR ?$S3@?1??GetInstance@CPost@@SAPAV2@XZ@4IA, eax
  0002a	b9 00 00 00 00	 mov	 ecx, OFFSET FLAT:?sPost@?1??GetInstance@CPost@@SAPAV2@XZ@4V2@A
  0002f	c7 44 24 08 00
	00 00 00	 mov	 DWORD PTR __$EHRec$[esp+20], 0
  00037	e8 00 00 00 00	 call	 ??0CPost@@QAE@XZ	; CPost::CPost
  0003c	68 00 00 00 00	 push	 OFFSET FLAT:_$E4
  00041	e8 00 00 00 00	 call	 _atexit
  00046	83 c4 04	 add	 esp, 4
$L217178:

; 595  : 	return &sPost;
; 596  : }

  00049	8b 0c 24	 mov	 ecx, DWORD PTR __$EHRec$[esp+12]
  0004c	b8 00 00 00 00	 mov	 eax, OFFSET FLAT:?sPost@?1??GetInstance@CPost@@SAPAV2@XZ@4V2@A
  00051	64 89 0d 00 00
	00 00		 mov	 DWORD PTR fs:__except_list, ecx
  00058	83 c4 0c	 add	 esp, 12			; 0000000cH
  0005b	c3		 ret	 0
_TEXT	ENDS
;	COMDAT text$x
text$x	SEGMENT
$L217175:
  00000	a1 00 00 00 00	 mov	 eax, DWORD PTR ?$S3@?1??GetInstance@CPost@@SAPAV2@XZ@4IA
  00005	83 e0 fe	 and	 eax, -2			; fffffffeH
  00008	a3 00 00 00 00	 mov	 DWORD PTR ?$S3@?1??GetInstance@CPost@@SAPAV2@XZ@4IA, eax
  0000d	c3		 ret	 0
__ehhandler$?GetInstance@CPost@@SAPAV1@XZ:
  0000e	b8 00 00 00 00	 mov	 eax, OFFSET FLAT:$T217177
  00013	e9 00 00 00 00	 jmp	 ___CxxFrameHandler
text$x	ENDS
?GetInstance@CPost@@SAPAV1@XZ ENDP			; CPost::GetInstance
; Function compile flags: /Ogty
;	COMDAT _$E2
text$yd	SEGMENT
_$E2	PROC NEAR					; COMDAT
  00000	b9 00 00 00 00	 mov	 ecx, OFFSET FLAT:?sMailBox@?1??GetInstance@CMailBox@@SAPAV2@XZ@4V2@A
  00005	e9 00 00 00 00	 jmp	 ??1CMailBox@@UAE@XZ	; CMailBox::~CMailBox
_$E2	ENDP
; Function compile flags: /Ogty
text$yd	ENDS
;	COMDAT _$E4
text$yd	SEGMENT
_$E4	PROC NEAR					; COMDAT
  00000	b9 00 00 00 00	 mov	 ecx, OFFSET FLAT:?sPost@?1??GetInstance@CPost@@SAPAV2@XZ@4V2@A
  00005	e9 00 00 00 00	 jmp	 ??1CPost@@UAE@XZ	; CPost::~CPost
_$E4	ENDP
text$yd	ENDS
END
