; Listing generated by Microsoft (R) Optimizing Compiler Version 13.10.6030 

	TITLE	.\QuizDBCtrl.cpp
	.386P
include listing.inc
if @Version gt 510
.model FLAT
else
_TEXT	SEGMENT PARA USE32 PUBLIC 'CODE'
_TEXT	ENDS
_DATA	SEGMENT DWORD USE32 PUBLIC 'DATA'
_DATA	ENDS
CONST	SEGMENT DWORD USE32 PUBLIC 'CONST'
CONST	ENDS
_BSS	SEGMENT DWORD USE32 PUBLIC 'BSS'
_BSS	ENDS
$$SYMBOLS	SEGMENT BYTE USE32 'DEBSYM'
$$SYMBOLS	ENDS
_TLS	SEGMENT DWORD USE32 PUBLIC 'TLS'
_TLS	ENDS
;	COMDAT ??_C@_0BC@MOGJFHKK@tr1?3?3bad_weak_ptr?$AA@
CONST	SEGMENT DWORD USE32 PUBLIC 'CONST'
CONST	ENDS
;	COMDAT ??_C@_0BD@IOHNFIBA@SetLOD?5?3?5lv?$DN?$CFd?0?5?$CFs?$AA@
CONST	SEGMENT DWORD USE32 PUBLIC 'CONST'
CONST	ENDS
;	COMDAT ??_C@_02PCIJFNDE@?$AN?6?$AA@
CONST	SEGMENT DWORD USE32 PUBLIC 'CONST'
CONST	ENDS
;	COMDAT ??_C@_01DNKMNLPK@?$HM?$AA@
CONST	SEGMENT DWORD USE32 PUBLIC 'CONST'
CONST	ENDS
;	COMDAT ??_C@_0DJ@FAECAJIA@usp_Quiz_Update?5?$EAserverindex?5?$DN?5?8@
CONST	SEGMENT DWORD USE32 PUBLIC 'CONST'
CONST	ENDS
;	COMDAT ??_C@_0BB@DDOPEPAG@?4?2QuizDBCtrl?4cpp?$AA@
CONST	SEGMENT DWORD USE32 PUBLIC 'CONST'
CONST	ENDS
;	COMDAT ??_C@_0CI@FLDMMNNC@usp_QuizID_Select?5?$EAserverindex?5?$DN@
CONST	SEGMENT DWORD USE32 PUBLIC 'CONST'
CONST	ENDS
;	COMDAT ??_C@_06MHCADHHK@QuizID?$AA@
CONST	SEGMENT DWORD USE32 PUBLIC 'CONST'
CONST	ENDS
;	COMDAT ??_C@_0FN@CPHHLGOP@usp_QuizLog_Insert?5?$EAidQuizEvent?5@
CONST	SEGMENT DWORD USE32 PUBLIC 'CONST'
CONST	ENDS
;	COMDAT ??_C@_0HC@EIMMABOA@usp_QuizLog_Update?5?$EAidQuizEvent?5@
CONST	SEGMENT DWORD USE32 PUBLIC 'CONST'
CONST	ENDS
;	COMDAT ??_C@_0DH@POLKCAKJ@usp_Quiz_Load?5?$EAserverindex?5?$DN?5?8?$CF0@
CONST	SEGMENT DWORD USE32 PUBLIC 'CONST'
CONST	ENDS
;	COMDAT ??_C@_08PALOFDJJ@m_nIndex?$AA@
CONST	SEGMENT DWORD USE32 PUBLIC 'CONST'
CONST	ENDS
;	COMDAT ??_C@_09JLOLCEAF@m_nAnswer?$AA@
CONST	SEGMENT DWORD USE32 PUBLIC 'CONST'
CONST	ENDS
;	COMDAT ??_C@_0N@FGDIAFNN@m_szQuestion?$AA@
CONST	SEGMENT DWORD USE32 PUBLIC 'CONST'
CONST	ENDS
;	COMDAT ??_C@_06FKNLKGFE@m_Item?$AA@
CONST	SEGMENT DWORD USE32 PUBLIC 'CONST'
CONST	ENDS
;	COMDAT ??_C@_0M@KDEONCPF@m_ItemCount?$AA@
CONST	SEGMENT DWORD USE32 PUBLIC 'CONST'
CONST	ENDS
;	COMDAT ??_C@_0GK@INLLFENK@usp_QuizUserLog_Insert?5?$EAm_idQuiz@
CONST	SEGMENT DWORD USE32 PUBLIC 'CONST'
CONST	ENDS
;	COMDAT ??_C@_0KA@MEAEOFMI@usp_QuizAnswerLog_Insert?5?$EAm_idQu@
CONST	SEGMENT DWORD USE32 PUBLIC 'CONST'
CONST	ENDS
;	COMDAT ??_C@_0CM@LINHPGHC@CQuizDBMng?5?9?5m_QuizDBCtrl?4Create@
CONST	SEGMENT DWORD USE32 PUBLIC 'CONST'
CONST	ENDS
;	COMDAT ??_C@_0CN@JDPLLBGJ@Can?8t?5connect?5db?3?5CQuizDBCtrl?4Cr@
CONST	SEGMENT DWORD USE32 PUBLIC 'CONST'
CONST	ENDS
text$yd	SEGMENT PARA USE32 PUBLIC 'CODE'
text$yd	ENDS
xdata$x	SEGMENT DWORD USE32 PUBLIC 'CONST'
xdata$x	ENDS
;	COMDAT ?GetQueryObject@CDbController@@QAEPAVCQuery@@XZ
_TEXT	SEGMENT PARA USE32 PUBLIC 'CODE'
_TEXT	ENDS
;	COMDAT ??0_WORLDDATA@CQuizDBCtrl@@QAE@XZ
_TEXT	SEGMENT PARA USE32 PUBLIC 'CODE'
_TEXT	ENDS
;	COMDAT ?InitQuizEventId@CQuizDBCtrl@@AAEXH@Z
_TEXT	SEGMENT PARA USE32 PUBLIC 'CODE'
_TEXT	ENDS
;	COMDAT ?SetQuizEventId@CQuizDBCtrl@@AAEHXZ
_TEXT	SEGMENT PARA USE32 PUBLIC 'CODE'
_TEXT	ENDS
;	COMDAT ?what@bad_weak_ptr@boost@@UBEPBDXZ
_TEXT	SEGMENT PARA USE32 PUBLIC 'CODE'
_TEXT	ENDS
;	COMDAT ??1sp_counted_base@detail@boost@@UAE@XZ
_TEXT	SEGMENT PARA USE32 PUBLIC 'CODE'
_TEXT	ENDS
;	COMDAT ?destroy@sp_counted_base@detail@boost@@UAEXXZ
_TEXT	SEGMENT PARA USE32 PUBLIC 'CODE'
_TEXT	ENDS
;	COMDAT ?add_ref_copy@sp_counted_base@detail@boost@@QAEXXZ
_TEXT	SEGMENT PARA USE32 PUBLIC 'CODE'
_TEXT	ENDS
;	COMDAT ?add_ref_lock@sp_counted_base@detail@boost@@QAE_NXZ
_TEXT	SEGMENT PARA USE32 PUBLIC 'CODE'
_TEXT	ENDS
;	COMDAT ?release@sp_counted_base@detail@boost@@QAEXXZ
_TEXT	SEGMENT PARA USE32 PUBLIC 'CODE'
_TEXT	ENDS
;	COMDAT ?weak_add_ref@sp_counted_base@detail@boost@@QAEXXZ
_TEXT	SEGMENT PARA USE32 PUBLIC 'CODE'
_TEXT	ENDS
;	COMDAT ?weak_release@sp_counted_base@detail@boost@@QAEXXZ
_TEXT	SEGMENT PARA USE32 PUBLIC 'CODE'
_TEXT	ENDS
;	COMDAT ?use_count@sp_counted_base@detail@boost@@QBEJXZ
_TEXT	SEGMENT PARA USE32 PUBLIC 'CODE'
_TEXT	ENDS
;	COMDAT ??_Gsp_counted_base@detail@boost@@UAEPAXI@Z
_TEXT	SEGMENT PARA USE32 PUBLIC 'CODE'
_TEXT	ENDS
;	COMDAT ?use_count@shared_count@detail@boost@@QBEJXZ
_TEXT	SEGMENT PARA USE32 PUBLIC 'CODE'
_TEXT	ENDS
;	COMDAT ??0bad_weak_ptr@boost@@QAE@XZ
_TEXT	SEGMENT PARA USE32 PUBLIC 'CODE'
_TEXT	ENDS
;	COMDAT ??1bad_weak_ptr@boost@@UAE@XZ
_TEXT	SEGMENT PARA USE32 PUBLIC 'CODE'
_TEXT	ENDS
;	COMDAT ??_Gbad_weak_ptr@boost@@UAEPAXI@Z
_TEXT	SEGMENT PARA USE32 PUBLIC 'CODE'
_TEXT	ENDS
;	COMDAT ?GetCooltime@CLordSkillComponent@@QAEHXZ
_TEXT	SEGMENT PARA USE32 PUBLIC 'CODE'
_TEXT	ENDS
;	COMDAT ?SetTick@CLordSkillComponent@@QAEXH@Z
_TEXT	SEGMENT PARA USE32 PUBLIC 'CODE'
_TEXT	ENDS
;	COMDAT ??1CLordSkillComponentExecutable@@UAE@XZ
_TEXT	SEGMENT PARA USE32 PUBLIC 'CODE'
_TEXT	ENDS
;	COMDAT ?Use@CLordSkillComponentExecutable@@IAEXXZ
_TEXT	SEGMENT PARA USE32 PUBLIC 'CODE'
_TEXT	ENDS
;	COMDAT ?Execute@CLordSkillComponentExecutable@@UAEXKKPAX@Z
_TEXT	SEGMENT PARA USE32 PUBLIC 'CODE'
_TEXT	ENDS
;	COMDAT ??_GCLordSkillComponentExecutable@@UAEPAXI@Z
_TEXT	SEGMENT PARA USE32 PUBLIC 'CODE'
_TEXT	ENDS
;	COMDAT ?GetDeposit@CCandidate@@QBE_JXZ
_TEXT	SEGMENT PARA USE32 PUBLIC 'CODE'
_TEXT	ENDS
;	COMDAT ?GetVote@CCandidate@@QAEHXZ
_TEXT	SEGMENT PARA USE32 PUBLIC 'CODE'
_TEXT	ENDS
;	COMDAT ?GetCreate@CCandidate@@QAEJXZ
_TEXT	SEGMENT PARA USE32 PUBLIC 'CODE'
_TEXT	ENDS
;	COMDAT ?GetType@CQuiz@@QAEHXZ
_TEXT	SEGMENT PARA USE32 PUBLIC 'CODE'
_TEXT	ENDS
;	COMDAT ?IsAutoMode@CQuiz@@QAEHXZ
_TEXT	SEGMENT PARA USE32 PUBLIC 'CODE'
_TEXT	ENDS
;	COMDAT ?SetRun@CQuiz@@QAEXH@Z
_TEXT	SEGMENT PARA USE32 PUBLIC 'CODE'
_TEXT	ENDS
;	COMDAT ?IsRun@CQuiz@@QAEHXZ
_TEXT	SEGMENT PARA USE32 PUBLIC 'CODE'
_TEXT	ENDS
;	COMDAT ?GetEntranceTime@CQuiz@@QAEKXZ
_TEXT	SEGMENT PARA USE32 PUBLIC 'CODE'
_TEXT	ENDS
;	COMDAT ??0CQuizDBCtrl@@QAE@XZ
_TEXT	SEGMENT PARA USE32 PUBLIC 'CODE'
_TEXT	ENDS
;	COMDAT ??_GCQuizDBCtrl@@UAEPAXI@Z
_TEXT	SEGMENT PARA USE32 PUBLIC 'CODE'
_TEXT	ENDS
;	COMDAT ??1?$map@KU_WORLDDATA@CQuizDBCtrl@@U?$less@K@std@@V?$allocator@U?$pair@$$CBKU_WORLDDATA@CQuizDBCtrl@@@std@@@4@@std@@QAE@XZ
_TEXT	SEGMENT PARA USE32 PUBLIC 'CODE'
_TEXT	ENDS
;	COMDAT ??1CQuizDBCtrl@@UAE@XZ
_TEXT	SEGMENT PARA USE32 PUBLIC 'CODE'
_TEXT	ENDS
;	COMDAT ??_GCQuery@@QAEPAXI@Z
_TEXT	SEGMENT PARA USE32 PUBLIC 'CODE'
_TEXT	ENDS
;	COMDAT ?Handler@CQuizDBCtrl@@UAEXPAUtagDB_OVERLAPPED_PLUS@@K@Z
_TEXT	SEGMENT PARA USE32 PUBLIC 'CODE'
_TEXT	ENDS
;	COMDAT ?OnTimer@CQuizDBCtrl@@UAEXXZ
_TEXT	SEGMENT PARA USE32 PUBLIC 'CODE'
_TEXT	ENDS
;	COMDAT ?InitWorldData@CQuizDBCtrl@@AAEXKHH@Z
_TEXT	SEGMENT PARA USE32 PUBLIC 'CODE'
_TEXT	ENDS
;	COMDAT ?DeleteWorldData@CQuizDBCtrl@@AAEXKH@Z
_TEXT	SEGMENT PARA USE32 PUBLIC 'CODE'
_TEXT	ENDS
;	COMDAT ?GetWorldData@CQuizDBCtrl@@AAEPAU_WORLDDATA@1@K@Z
_TEXT	SEGMENT PARA USE32 PUBLIC 'CODE'
_TEXT	ENDS
;	COMDAT ?SetState@CQuizDBCtrl@@AAEXKH@Z
_TEXT	SEGMENT PARA USE32 PUBLIC 'CODE'
_TEXT	ENDS
;	COMDAT ?LoadQuizEventId@CQuizDBCtrl@@QAEHXZ
_TEXT	SEGMENT PARA USE32 PUBLIC 'CODE'
_TEXT	ENDS
;	COMDAT ?GetQuizEventId@CQuizDBCtrl@@AAEHK@Z
_TEXT	SEGMENT PARA USE32 PUBLIC 'CODE'
_TEXT	ENDS
;	COMDAT ?InsertQuizEvent@CQuizDBCtrl@@AAEXKH@Z
_TEXT	SEGMENT PARA USE32 PUBLIC 'CODE'
_TEXT	ENDS
;	COMDAT ?UpdateQuizEvent@CQuizDBCtrl@@AAEXKHHH@Z
_TEXT	SEGMENT PARA USE32 PUBLIC 'CODE'
_TEXT	ENDS
;	COMDAT ?LoadQuizList@CQuizDBCtrl@@AAEXK@Z
_TEXT	SEGMENT PARA USE32 PUBLIC 'CODE'
_TEXT	ENDS
;	COMDAT ??0_QUIZLIST@CQuiz@@QAE@XZ
_TEXT	SEGMENT PARA USE32 PUBLIC 'CODE'
_TEXT	ENDS
;	COMDAT ??1_QUIZLIST@CQuiz@@QAE@XZ
_TEXT	SEGMENT PARA USE32 PUBLIC 'CODE'
_TEXT	ENDS
;	COMDAT ?EntranceQuizEvent@CQuizDBCtrl@@AAEXKKH@Z
_TEXT	SEGMENT PARA USE32 PUBLIC 'CODE'
_TEXT	ENDS
;	COMDAT ?SelectQuizExample@CQuizDBCtrl@@AAEXKKHHHH@Z
_TEXT	SEGMENT PARA USE32 PUBLIC 'CODE'
_TEXT	ENDS
;	COMDAT ?PostPrizeItem@CQuizDBCtrl@@AAEXKKH@Z
_TEXT	SEGMENT PARA USE32 PUBLIC 'CODE'
_TEXT	ENDS
;	COMDAT ??0CQuizDBMng@@QAE@XZ
_TEXT	SEGMENT PARA USE32 PUBLIC 'CODE'
_TEXT	ENDS
;	COMDAT ??1CQuizDBMng@@QAE@XZ
_TEXT	SEGMENT PARA USE32 PUBLIC 'CODE'
_TEXT	ENDS
;	COMDAT ?GetInstance@CQuizDBMng@@SAPAV1@XZ
_TEXT	SEGMENT PARA USE32 PUBLIC 'CODE'
_TEXT	ENDS
;	COMDAT _$E2
text$yd	SEGMENT PARA USE32 PUBLIC 'CODE'
text$yd	ENDS
;	COMDAT ?CreateLogQuery@CQuizDBMng@@QAEPAVCQuery@@XZ
_TEXT	SEGMENT PARA USE32 PUBLIC 'CODE'
_TEXT	ENDS
;	COMDAT ?InitQuizEventId@CQuizDBMng@@QAEHXZ
_TEXT	SEGMENT PARA USE32 PUBLIC 'CODE'
_TEXT	ENDS
;	COMDAT ?Replace@?$CStringT@DV?$StrTraitMFC@DV?$ChTraitsCRT@D@ATL@@@@@ATL@@QAEHPBD0@Z
_TEXT	SEGMENT PARA USE32 PUBLIC 'CODE'
_TEXT	ENDS
;	COMDAT ?compare@?$basic_string@DU?$char_traits@D@std@@V?$allocator@D@2@@std@@QBEHABV12@@Z
_TEXT	SEGMENT PARA USE32 PUBLIC 'CODE'
_TEXT	ENDS
;	COMDAT ??0?$map@KU_WORLDDATA@CQuizDBCtrl@@U?$less@K@std@@V?$allocator@U?$pair@$$CBKU_WORLDDATA@CQuizDBCtrl@@@std@@@4@@std@@QAE@XZ
_TEXT	SEGMENT PARA USE32 PUBLIC 'CODE'
_TEXT	ENDS
;	COMDAT ??1?$_Tree@V?$_Tmap_traits@KU_WORLDDATA@CQuizDBCtrl@@U?$less@K@std@@V?$allocator@U?$pair@$$CBKU_WORLDDATA@CQuizDBCtrl@@@std@@@4@$0A@@std@@@std@@QAE@XZ
_TEXT	SEGMENT PARA USE32 PUBLIC 'CODE'
_TEXT	ENDS
;	COMDAT ?begin@?$_Tree@V?$_Tmap_traits@KU_WORLDDATA@CQuizDBCtrl@@U?$less@K@std@@V?$allocator@U?$pair@$$CBKU_WORLDDATA@CQuizDBCtrl@@@std@@@4@$0A@@std@@@std@@QAE?AViterator@12@XZ
_TEXT	SEGMENT PARA USE32 PUBLIC 'CODE'
_TEXT	ENDS
;	COMDAT ?end@?$_Tree@V?$_Tmap_traits@KU_WORLDDATA@CQuizDBCtrl@@U?$less@K@std@@V?$allocator@U?$pair@$$CBKU_WORLDDATA@CQuizDBCtrl@@@std@@@4@$0A@@std@@@std@@QAE?AViterator@12@XZ
_TEXT	SEGMENT PARA USE32 PUBLIC 'CODE'
_TEXT	ENDS
;	COMDAT ?size@?$_Tree@V?$_Tmap_traits@KU_WORLDDATA@CQuizDBCtrl@@U?$less@K@std@@V?$allocator@U?$pair@$$CBKU_WORLDDATA@CQuizDBCtrl@@@std@@@4@$0A@@std@@@std@@QBEIXZ
_TEXT	SEGMENT PARA USE32 PUBLIC 'CODE'
_TEXT	ENDS
;	COMDAT ?insert@?$_Tree@V?$_Tmap_traits@KU_WORLDDATA@CQuizDBCtrl@@U?$less@K@std@@V?$allocator@U?$pair@$$CBKU_WORLDDATA@CQuizDBCtrl@@@std@@@4@$0A@@std@@@std@@QAE?AU?$pair@Viterator@?$_Tree@V?$_Tmap_traits@KU_WORLDDATA@CQuizDBCtrl@@U?$less@K@std@@V?$allocator@U?$pair@$$CBKU_WORLDDATA@CQuizDBCtrl@@@std@@@4@$0A@@std@@@std@@_N@2@ABU?$pair@$$CBKU_WORLDDATA@CQuizDBCtrl@@@2@@Z
_TEXT	SEGMENT PARA USE32 PUBLIC 'CODE'
_TEXT	ENDS
;	COMDAT ?erase@?$_Tree@V?$_Tmap_traits@KU_WORLDDATA@CQuizDBCtrl@@U?$less@K@std@@V?$allocator@U?$pair@$$CBKU_WORLDDATA@CQuizDBCtrl@@@std@@@4@$0A@@std@@@std@@QAE?AViterator@12@V312@@Z
_TEXT	SEGMENT PARA USE32 PUBLIC 'CODE'
_TEXT	ENDS
;	COMDAT ?clear@?$_Tree@V?$_Tmap_traits@KU_WORLDDATA@CQuizDBCtrl@@U?$less@K@std@@V?$allocator@U?$pair@$$CBKU_WORLDDATA@CQuizDBCtrl@@@std@@@4@$0A@@std@@@std@@QAEXXZ
_TEXT	SEGMENT PARA USE32 PUBLIC 'CODE'
_TEXT	ENDS
;	COMDAT ?find@?$_Tree@V?$_Tmap_traits@KU_WORLDDATA@CQuizDBCtrl@@U?$less@K@std@@V?$allocator@U?$pair@$$CBKU_WORLDDATA@CQuizDBCtrl@@@std@@@4@$0A@@std@@@std@@QAE?AViterator@12@ABK@Z
_TEXT	SEGMENT PARA USE32 PUBLIC 'CODE'
_TEXT	ENDS
;	COMDAT ??R?$less@PAVsp_counted_base@detail@boost@@@std@@QBE_NABQAVsp_counted_base@detail@boost@@0@Z
_TEXT	SEGMENT PARA USE32 PUBLIC 'CODE'
_TEXT	ENDS
;	COMDAT ?size@?$vector@PAVCLordSkillComponentExecutable@@V?$allocator@PAVCLordSkillComponentExecutable@@@std@@@std@@QBEIXZ
_TEXT	SEGMENT PARA USE32 PUBLIC 'CODE'
_TEXT	ENDS
;	COMDAT ?size@?$vector@V?$shared_ptr@VCCandidate@@@boost@@V?$allocator@V?$shared_ptr@VCCandidate@@@boost@@@std@@@std@@QBEIXZ
_TEXT	SEGMENT PARA USE32 PUBLIC 'CODE'
_TEXT	ENDS
;	COMDAT ??0?$vector@MV?$allocator@M@std@@@std@@QAE@XZ
_TEXT	SEGMENT PARA USE32 PUBLIC 'CODE'
_TEXT	ENDS
;	COMDAT ??1?$vector@MV?$allocator@M@std@@@std@@QAE@XZ
_TEXT	SEGMENT PARA USE32 PUBLIC 'CODE'
_TEXT	ENDS
;	COMDAT ??0?$vector@HV?$allocator@H@std@@@std@@QAE@XZ
_TEXT	SEGMENT PARA USE32 PUBLIC 'CODE'
_TEXT	ENDS
;	COMDAT ??1?$vector@HV?$allocator@H@std@@@std@@QAE@XZ
_TEXT	SEGMENT PARA USE32 PUBLIC 'CODE'
_TEXT	ENDS
;	COMDAT ??C?$shared_ptr@VCCandidate@@@boost@@QBEPAVCCandidate@@XZ
_TEXT	SEGMENT PARA USE32 PUBLIC 'CODE'
_TEXT	ENDS
;	COMDAT ?size@?$vector@PAVCLEComponent@@V?$allocator@PAVCLEComponent@@@std@@@std@@QBEIXZ
_TEXT	SEGMENT PARA USE32 PUBLIC 'CODE'
_TEXT	ENDS
;	COMDAT ?size@?$vector@U?$pair@M_J@std@@V?$allocator@U?$pair@M_J@std@@@2@@std@@QBEIXZ
_TEXT	SEGMENT PARA USE32 PUBLIC 'CODE'
_TEXT	ENDS
;	COMDAT ?size@?$_Tree@V?$_Tmap_traits@KPAU_PlayerData@@U?$less@K@std@@V?$allocator@U?$pair@$$CBKPAU_PlayerData@@@std@@@3@$0A@@std@@@std@@QBEIXZ
_TEXT	SEGMENT PARA USE32 PUBLIC 'CODE'
_TEXT	ENDS
;	COMDAT ?size@?$vector@U_QUIZLIST@CQuiz@@V?$allocator@U_QUIZLIST@CQuiz@@@std@@@std@@QBEIXZ
_TEXT	SEGMENT PARA USE32 PUBLIC 'CODE'
_TEXT	ENDS
;	COMDAT ??A?$vector@U_QUIZLIST@CQuiz@@V?$allocator@U_QUIZLIST@CQuiz@@@std@@@std@@QAEAAU_QUIZLIST@CQuiz@@I@Z
_TEXT	SEGMENT PARA USE32 PUBLIC 'CODE'
_TEXT	ENDS
;	COMDAT ?push_back@?$vector@U_QUIZLIST@CQuiz@@V?$allocator@U_QUIZLIST@CQuiz@@@std@@@std@@QAEXABU_QUIZLIST@CQuiz@@@Z
_TEXT	SEGMENT PARA USE32 PUBLIC 'CODE'
_TEXT	ENDS
;	COMDAT ?clear@?$vector@U_QUIZLIST@CQuiz@@V?$allocator@U_QUIZLIST@CQuiz@@@std@@@std@@QAEXXZ
_TEXT	SEGMENT PARA USE32 PUBLIC 'CODE'
_TEXT	ENDS
;	COMDAT ?end@?$_Tree@V?$_Tmap_traits@KP8CDPTrans@@AEXAAVCAr@@KKKPAEK@ZU?$less@K@std@@V?$allocator@U?$pair@$$CBKP8CDPTrans@@AEXAAVCAr@@KKKPAEK@Z@std@@@4@$0A@@std@@@std@@QAE?AViterator@12@XZ
_TEXT	SEGMENT PARA USE32 PUBLIC 'CODE'
_TEXT	ENDS
;	COMDAT ?find@?$_Tree@V?$_Tmap_traits@KP8CDPTrans@@AEXAAVCAr@@KKKPAEK@ZU?$less@K@std@@V?$allocator@U?$pair@$$CBKP8CDPTrans@@AEXAAVCAr@@KKKPAEK@Z@std@@@4@$0A@@std@@@std@@QAE?AViterator@12@ABK@Z
_TEXT	SEGMENT PARA USE32 PUBLIC 'CODE'
_TEXT	ENDS
;	COMDAT ??Citerator@?$_Tree@V?$_Tmap_traits@KP8CDPTrans@@AEXAAVCAr@@KKKPAEK@ZU?$less@K@std@@V?$allocator@U?$pair@$$CBKP8CDPTrans@@AEXAAVCAr@@KKKPAEK@Z@std@@@4@$0A@@std@@@std@@QBEPAU?$pair@$$CBKP8CDPTrans@@AEXAAVCAr@@KKKPAEK@Z@2@XZ
_TEXT	SEGMENT PARA USE32 PUBLIC 'CODE'
_TEXT	ENDS
;	COMDAT ??9const_iterator@?$_Tree@V?$_Tmap_traits@KP8CDPTrans@@AEXAAVCAr@@KKKPAEK@ZU?$less@K@std@@V?$allocator@U?$pair@$$CBKP8CDPTrans@@AEXAAVCAr@@KKKPAEK@Z@std@@@4@$0A@@std@@@std@@QBE_NABV012@@Z
_TEXT	SEGMENT PARA USE32 PUBLIC 'CODE'
_TEXT	ENDS
;	COMDAT ??Citerator@?$_Tree@V?$_Tmap_traits@KU_WORLDDATA@CQuizDBCtrl@@U?$less@K@std@@V?$allocator@U?$pair@$$CBKU_WORLDDATA@CQuizDBCtrl@@@std@@@4@$0A@@std@@@std@@QBEPAU?$pair@$$CBKU_WORLDDATA@CQuizDBCtrl@@@2@XZ
_TEXT	SEGMENT PARA USE32 PUBLIC 'CODE'
_TEXT	ENDS
;	COMDAT ??Eiterator@?$_Tree@V?$_Tmap_traits@KU_WORLDDATA@CQuizDBCtrl@@U?$less@K@std@@V?$allocator@U?$pair@$$CBKU_WORLDDATA@CQuizDBCtrl@@@std@@@4@$0A@@std@@@std@@QAEAAV012@XZ
_TEXT	SEGMENT PARA USE32 PUBLIC 'CODE'
_TEXT	ENDS
;	COMDAT ??9const_iterator@?$_Tree@V?$_Tmap_traits@KU_WORLDDATA@CQuizDBCtrl@@U?$less@K@std@@V?$allocator@U?$pair@$$CBKU_WORLDDATA@CQuizDBCtrl@@@std@@@4@$0A@@std@@@std@@QBE_NABV012@@Z
_TEXT	SEGMENT PARA USE32 PUBLIC 'CODE'
_TEXT	ENDS
;	COMDAT ??0?$pair@$$CBKU_WORLDDATA@CQuizDBCtrl@@@std@@QAE@ABKABU_WORLDDATA@CQuizDBCtrl@@@Z
_TEXT	SEGMENT PARA USE32 PUBLIC 'CODE'
_TEXT	ENDS
;	COMDAT ?StringFindString@?$ChTraitsCRT@D@ATL@@SAPADPADPBD@Z
_TEXT	SEGMENT PARA USE32 PUBLIC 'CODE'
_TEXT	ENDS
;	COMDAT ?SafeStringLen@?$ChTraitsCRT@D@ATL@@SAHPBD@Z
_TEXT	SEGMENT PARA USE32 PUBLIC 'CODE'
_TEXT	ENDS
;	COMDAT ?compare@?$basic_string@DU?$char_traits@D@std@@V?$allocator@D@2@@std@@QBEHIIPBDI@Z
_TEXT	SEGMENT PARA USE32 PUBLIC 'CODE'
_TEXT	ENDS
;	COMDAT ??0?$allocator@H@std@@QAE@XZ
_TEXT	SEGMENT PARA USE32 PUBLIC 'CODE'
_TEXT	ENDS
;	COMDAT ?_Color@?$_Tree@V?$_Tmap_traits@KU_WORLDDATA@CQuizDBCtrl@@U?$less@K@std@@V?$allocator@U?$pair@$$CBKU_WORLDDATA@CQuizDBCtrl@@@std@@@4@$0A@@std@@@std@@KAAADPAU_Node@?$_Tree_nod@V?$_Tmap_traits@KU_WORLDDATA@CQuizDBCtrl@@U?$less@K@std@@V?$allocator@U?$pair@$$CBKU_WORLDDATA@CQuizDBCtrl@@@std@@@4@$0A@@std@@@2@@Z
_TEXT	SEGMENT PARA USE32 PUBLIC 'CODE'
_TEXT	ENDS
;	COMDAT ?_Isnil@?$_Tree@V?$_Tmap_traits@KU_WORLDDATA@CQuizDBCtrl@@U?$less@K@std@@V?$allocator@U?$pair@$$CBKU_WORLDDATA@CQuizDBCtrl@@@std@@@4@$0A@@std@@@std@@KAAADPAU_Node@?$_Tree_nod@V?$_Tmap_traits@KU_WORLDDATA@CQuizDBCtrl@@U?$less@K@std@@V?$allocator@U?$pair@$$CBKU_WORLDDATA@CQuizDBCtrl@@@std@@@4@$0A@@std@@@2@@Z
_TEXT	SEGMENT PARA USE32 PUBLIC 'CODE'
_TEXT	ENDS
;	COMDAT ?_Key@?$_Tree@V?$_Tmap_traits@KU_WORLDDATA@CQuizDBCtrl@@U?$less@K@std@@V?$allocator@U?$pair@$$CBKU_WORLDDATA@CQuizDBCtrl@@@std@@@4@$0A@@std@@@std@@KAABKPAU_Node@?$_Tree_nod@V?$_Tmap_traits@KU_WORLDDATA@CQuizDBCtrl@@U?$less@K@std@@V?$allocator@U?$pair@$$CBKU_WORLDDATA@CQuizDBCtrl@@@std@@@4@$0A@@std@@@2@@Z
_TEXT	SEGMENT PARA USE32 PUBLIC 'CODE'
_TEXT	ENDS
;	COMDAT ?_Left@?$_Tree@V?$_Tmap_traits@KU_WORLDDATA@CQuizDBCtrl@@U?$less@K@std@@V?$allocator@U?$pair@$$CBKU_WORLDDATA@CQuizDBCtrl@@@std@@@4@$0A@@std@@@std@@KAAAPAU_Node@?$_Tree_nod@V?$_Tmap_traits@KU_WORLDDATA@CQuizDBCtrl@@U?$less@K@std@@V?$allocator@U?$pair@$$CBKU_WORLDDATA@CQuizDBCtrl@@@std@@@4@$0A@@std@@@2@PAU342@@Z
_TEXT	SEGMENT PARA USE32 PUBLIC 'CODE'
_TEXT	ENDS
;	COMDAT ?_Parent@?$_Tree@V?$_Tmap_traits@KU_WORLDDATA@CQuizDBCtrl@@U?$less@K@std@@V?$allocator@U?$pair@$$CBKU_WORLDDATA@CQuizDBCtrl@@@std@@@4@$0A@@std@@@std@@KAAAPAU_Node@?$_Tree_nod@V?$_Tmap_traits@KU_WORLDDATA@CQuizDBCtrl@@U?$less@K@std@@V?$allocator@U?$pair@$$CBKU_WORLDDATA@CQuizDBCtrl@@@std@@@4@$0A@@std@@@2@PAU342@@Z
_TEXT	SEGMENT PARA USE32 PUBLIC 'CODE'
_TEXT	ENDS
;	COMDAT ?_Right@?$_Tree@V?$_Tmap_traits@KU_WORLDDATA@CQuizDBCtrl@@U?$less@K@std@@V?$allocator@U?$pair@$$CBKU_WORLDDATA@CQuizDBCtrl@@@std@@@4@$0A@@std@@@std@@KAAAPAU_Node@?$_Tree_nod@V?$_Tmap_traits@KU_WORLDDATA@CQuizDBCtrl@@U?$less@K@std@@V?$allocator@U?$pair@$$CBKU_WORLDDATA@CQuizDBCtrl@@@std@@@4@$0A@@std@@@2@PAU342@@Z
_TEXT	SEGMENT PARA USE32 PUBLIC 'CODE'
_TEXT	ENDS
;	COMDAT ??0?$_Tree@V?$_Tmap_traits@KU_WORLDDATA@CQuizDBCtrl@@U?$less@K@std@@V?$allocator@U?$pair@$$CBKU_WORLDDATA@CQuizDBCtrl@@@std@@@4@$0A@@std@@@std@@QAE@ABU?$less@K@1@ABV?$allocator@U?$pair@$$CBKU_WORLDDATA@CQuizDBCtrl@@@std@@@1@@Z
_TEXT	SEGMENT PARA USE32 PUBLIC 'CODE'
_TEXT	ENDS
;	COMDAT ?lower_bound@?$_Tree@V?$_Tmap_traits@KU_WORLDDATA@CQuizDBCtrl@@U?$less@K@std@@V?$allocator@U?$pair@$$CBKU_WORLDDATA@CQuizDBCtrl@@@std@@@4@$0A@@std@@@std@@QAE?AViterator@12@ABK@Z
_TEXT	SEGMENT PARA USE32 PUBLIC 'CODE'
_TEXT	ENDS
;	COMDAT ?_Erase@?$_Tree@V?$_Tmap_traits@KU_WORLDDATA@CQuizDBCtrl@@U?$less@K@std@@V?$allocator@U?$pair@$$CBKU_WORLDDATA@CQuizDBCtrl@@@std@@@4@$0A@@std@@@std@@IAEXPAU_Node@?$_Tree_nod@V?$_Tmap_traits@KU_WORLDDATA@CQuizDBCtrl@@U?$less@K@std@@V?$allocator@U?$pair@$$CBKU_WORLDDATA@CQuizDBCtrl@@@std@@@4@$0A@@std@@@2@@Z
_TEXT	SEGMENT PARA USE32 PUBLIC 'CODE'
_TEXT	ENDS
;	COMDAT ?_Insert@?$_Tree@V?$_Tmap_traits@KU_WORLDDATA@CQuizDBCtrl@@U?$less@K@std@@V?$allocator@U?$pair@$$CBKU_WORLDDATA@CQuizDBCtrl@@@std@@@4@$0A@@std@@@std@@IAE?AViterator@12@_NPAU_Node@?$_Tree_nod@V?$_Tmap_traits@KU_WORLDDATA@CQuizDBCtrl@@U?$less@K@std@@V?$allocator@U?$pair@$$CBKU_WORLDDATA@CQuizDBCtrl@@@std@@@4@$0A@@std@@@2@ABU?$pair@$$CBKU_WORLDDATA@CQuizDBCtrl@@@2@@Z
_TEXT	SEGMENT PARA USE32 PUBLIC 'CODE'
_TEXT	ENDS
;	COMDAT ?_Lmost@?$_Tree@V?$_Tmap_traits@KU_WORLDDATA@CQuizDBCtrl@@U?$less@K@std@@V?$allocator@U?$pair@$$CBKU_WORLDDATA@CQuizDBCtrl@@@std@@@4@$0A@@std@@@std@@IAEAAPAU_Node@?$_Tree_nod@V?$_Tmap_traits@KU_WORLDDATA@CQuizDBCtrl@@U?$less@K@std@@V?$allocator@U?$pair@$$CBKU_WORLDDATA@CQuizDBCtrl@@@std@@@4@$0A@@std@@@2@XZ
_TEXT	SEGMENT PARA USE32 PUBLIC 'CODE'
_TEXT	ENDS
;	COMDAT ?_Lrotate@?$_Tree@V?$_Tmap_traits@KU_WORLDDATA@CQuizDBCtrl@@U?$less@K@std@@V?$allocator@U?$pair@$$CBKU_WORLDDATA@CQuizDBCtrl@@@std@@@4@$0A@@std@@@std@@IAEXPAU_Node@?$_Tree_nod@V?$_Tmap_traits@KU_WORLDDATA@CQuizDBCtrl@@U?$less@K@std@@V?$allocator@U?$pair@$$CBKU_WORLDDATA@CQuizDBCtrl@@@std@@@4@$0A@@std@@@2@@Z
_TEXT	SEGMENT PARA USE32 PUBLIC 'CODE'
_TEXT	ENDS
;	COMDAT ?_Max@?$_Tree@V?$_Tmap_traits@KU_WORLDDATA@CQuizDBCtrl@@U?$less@K@std@@V?$allocator@U?$pair@$$CBKU_WORLDDATA@CQuizDBCtrl@@@std@@@4@$0A@@std@@@std@@KAPAU_Node@?$_Tree_nod@V?$_Tmap_traits@KU_WORLDDATA@CQuizDBCtrl@@U?$less@K@std@@V?$allocator@U?$pair@$$CBKU_WORLDDATA@CQuizDBCtrl@@@std@@@4@$0A@@std@@@2@PAU342@@Z
_TEXT	SEGMENT PARA USE32 PUBLIC 'CODE'
_TEXT	ENDS
;	COMDAT ?_Min@?$_Tree@V?$_Tmap_traits@KU_WORLDDATA@CQuizDBCtrl@@U?$less@K@std@@V?$allocator@U?$pair@$$CBKU_WORLDDATA@CQuizDBCtrl@@@std@@@4@$0A@@std@@@std@@KAPAU_Node@?$_Tree_nod@V?$_Tmap_traits@KU_WORLDDATA@CQuizDBCtrl@@U?$less@K@std@@V?$allocator@U?$pair@$$CBKU_WORLDDATA@CQuizDBCtrl@@@std@@@4@$0A@@std@@@2@PAU342@@Z
_TEXT	SEGMENT PARA USE32 PUBLIC 'CODE'
_TEXT	ENDS
;	COMDAT ?_Rmost@?$_Tree@V?$_Tmap_traits@KU_WORLDDATA@CQuizDBCtrl@@U?$less@K@std@@V?$allocator@U?$pair@$$CBKU_WORLDDATA@CQuizDBCtrl@@@std@@@4@$0A@@std@@@std@@IAEAAPAU_Node@?$_Tree_nod@V?$_Tmap_traits@KU_WORLDDATA@CQuizDBCtrl@@U?$less@K@std@@V?$allocator@U?$pair@$$CBKU_WORLDDATA@CQuizDBCtrl@@@std@@@4@$0A@@std@@@2@XZ
_TEXT	SEGMENT PARA USE32 PUBLIC 'CODE'
_TEXT	ENDS
;	COMDAT ?_Root@?$_Tree@V?$_Tmap_traits@KU_WORLDDATA@CQuizDBCtrl@@U?$less@K@std@@V?$allocator@U?$pair@$$CBKU_WORLDDATA@CQuizDBCtrl@@@std@@@4@$0A@@std@@@std@@IAEAAPAU_Node@?$_Tree_nod@V?$_Tmap_traits@KU_WORLDDATA@CQuizDBCtrl@@U?$less@K@std@@V?$allocator@U?$pair@$$CBKU_WORLDDATA@CQuizDBCtrl@@@std@@@4@$0A@@std@@@2@XZ
_TEXT	SEGMENT PARA USE32 PUBLIC 'CODE'
_TEXT	ENDS
;	COMDAT ?_Rrotate@?$_Tree@V?$_Tmap_traits@KU_WORLDDATA@CQuizDBCtrl@@U?$less@K@std@@V?$allocator@U?$pair@$$CBKU_WORLDDATA@CQuizDBCtrl@@@std@@@4@$0A@@std@@@std@@IAEXPAU_Node@?$_Tree_nod@V?$_Tmap_traits@KU_WORLDDATA@CQuizDBCtrl@@U?$less@K@std@@V?$allocator@U?$pair@$$CBKU_WORLDDATA@CQuizDBCtrl@@@std@@@4@$0A@@std@@@2@@Z
_TEXT	SEGMENT PARA USE32 PUBLIC 'CODE'
_TEXT	ENDS
;	COMDAT ?_Tidy@?$_Tree@V?$_Tmap_traits@KU_WORLDDATA@CQuizDBCtrl@@U?$less@K@std@@V?$allocator@U?$pair@$$CBKU_WORLDDATA@CQuizDBCtrl@@@std@@@4@$0A@@std@@@std@@IAEXXZ
_TEXT	SEGMENT PARA USE32 PUBLIC 'CODE'
_TEXT	ENDS
;	COMDAT ?_Kfn@?$_Tmap_traits@KU_WORLDDATA@CQuizDBCtrl@@U?$less@K@std@@V?$allocator@U?$pair@$$CBKU_WORLDDATA@CQuizDBCtrl@@@std@@@4@$0A@@std@@SAABKABU?$pair@$$CBKU_WORLDDATA@CQuizDBCtrl@@@2@@Z
_TEXT	SEGMENT PARA USE32 PUBLIC 'CODE'
_TEXT	ENDS
;	COMDAT ??0?$allocator@U?$pair@$$CBKU_WORLDDATA@CQuizDBCtrl@@@std@@@std@@QAE@XZ
_TEXT	SEGMENT PARA USE32 PUBLIC 'CODE'
_TEXT	ENDS
;	COMDAT ?deallocate@?$allocator@U_Node@?$_Tree_nod@V?$_Tmap_traits@KU_WORLDDATA@CQuizDBCtrl@@U?$less@K@std@@V?$allocator@U?$pair@$$CBKU_WORLDDATA@CQuizDBCtrl@@@std@@@4@$0A@@std@@@std@@@std@@QAEXPAU_Node@?$_Tree_nod@V?$_Tmap_traits@KU_WORLDDATA@CQuizDBCtrl@@U?$less@K@std@@V?$allocator@U?$pair@$$CBKU_WORLDDATA@CQuizDBCtrl@@@std@@@4@$0A@@std@@@2@I@Z
_TEXT	SEGMENT PARA USE32 PUBLIC 'CODE'
_TEXT	ENDS
;	COMDAT ?destroy@?$allocator@U_Node@?$_Tree_nod@V?$_Tmap_traits@KU_WORLDDATA@CQuizDBCtrl@@U?$less@K@std@@V?$allocator@U?$pair@$$CBKU_WORLDDATA@CQuizDBCtrl@@@std@@@4@$0A@@std@@@std@@@std@@QAEXPAU_Node@?$_Tree_nod@V?$_Tmap_traits@KU_WORLDDATA@CQuizDBCtrl@@U?$less@K@std@@V?$allocator@U?$pair@$$CBKU_WORLDDATA@CQuizDBCtrl@@@std@@@4@$0A@@std@@@2@@Z
_TEXT	SEGMENT PARA USE32 PUBLIC 'CODE'
_TEXT	ENDS
;	COMDAT ?_Buy@?$vector@MV?$allocator@M@std@@@std@@IAE_NI@Z
_TEXT	SEGMENT PARA USE32 PUBLIC 'CODE'
_TEXT	ENDS
;	COMDAT ?_Tidy@?$vector@MV?$allocator@M@std@@@std@@IAEXXZ
_TEXT	SEGMENT PARA USE32 PUBLIC 'CODE'
_TEXT	ENDS
;	COMDAT ??0?$_Vector_val@MV?$allocator@M@std@@@std@@IAE@V?$allocator@M@1@@Z
_TEXT	SEGMENT PARA USE32 PUBLIC 'CODE'
_TEXT	ENDS
;	COMDAT ??0?$allocator@M@std@@QAE@XZ
_TEXT	SEGMENT PARA USE32 PUBLIC 'CODE'
_TEXT	ENDS
;	COMDAT ?_Buy@?$vector@HV?$allocator@H@std@@@std@@IAE_NI@Z
_TEXT	SEGMENT PARA USE32 PUBLIC 'CODE'
_TEXT	ENDS
;	COMDAT ?_Tidy@?$vector@HV?$allocator@H@std@@@std@@IAEXXZ
_TEXT	SEGMENT PARA USE32 PUBLIC 'CODE'
_TEXT	ENDS
;	COMDAT ??0?$_Vector_val@HV?$allocator@H@std@@@std@@IAE@V?$allocator@H@1@@Z
_TEXT	SEGMENT PARA USE32 PUBLIC 'CODE'
_TEXT	ENDS
;	COMDAT ?capacity@?$vector@U_QUIZLIST@CQuiz@@V?$allocator@U_QUIZLIST@CQuiz@@@std@@@std@@QBEIXZ
_TEXT	SEGMENT PARA USE32 PUBLIC 'CODE'
_TEXT	ENDS
;	COMDAT ?begin@?$vector@U_QUIZLIST@CQuiz@@V?$allocator@U_QUIZLIST@CQuiz@@@std@@@std@@QAE?AViterator@12@XZ
_TEXT	SEGMENT PARA USE32 PUBLIC 'CODE'
_TEXT	ENDS
;	COMDAT ?end@?$vector@U_QUIZLIST@CQuiz@@V?$allocator@U_QUIZLIST@CQuiz@@@std@@@std@@QAE?AViterator@12@XZ
_TEXT	SEGMENT PARA USE32 PUBLIC 'CODE'
_TEXT	ENDS
;	COMDAT ?insert@?$vector@U_QUIZLIST@CQuiz@@V?$allocator@U_QUIZLIST@CQuiz@@@std@@@std@@QAE?AViterator@12@V312@ABU_QUIZLIST@CQuiz@@@Z
_TEXT	SEGMENT PARA USE32 PUBLIC 'CODE'
_TEXT	ENDS
;	COMDAT ?_Tidy@?$vector@U_QUIZLIST@CQuiz@@V?$allocator@U_QUIZLIST@CQuiz@@@std@@@std@@IAEXXZ
_TEXT	SEGMENT PARA USE32 PUBLIC 'CODE'
_TEXT	ENDS
;	COMDAT ?_Ufill@?$vector@U_QUIZLIST@CQuiz@@V?$allocator@U_QUIZLIST@CQuiz@@@std@@@std@@IAEPAU_QUIZLIST@CQuiz@@PAU34@IABU34@@Z
_TEXT	SEGMENT PARA USE32 PUBLIC 'CODE'
_TEXT	ENDS
;	COMDAT ?_Key@?$_Tree@V?$_Tmap_traits@KP8CDPTrans@@AEXAAVCAr@@KKKPAEK@ZU?$less@K@std@@V?$allocator@U?$pair@$$CBKP8CDPTrans@@AEXAAVCAr@@KKKPAEK@Z@std@@@4@$0A@@std@@@std@@KAABKPAU_Node@?$_Tree_nod@V?$_Tmap_traits@KP8CDPTrans@@AEXAAVCAr@@KKKPAEK@ZU?$less@K@std@@V?$allocator@U?$pair@$$CBKP8CDPTrans@@AEXAAVCAr@@KKKPAEK@Z@std@@@4@$0A@@std@@@2@@Z
_TEXT	SEGMENT PARA USE32 PUBLIC 'CODE'
_TEXT	ENDS
;	COMDAT ?lower_bound@?$_Tree@V?$_Tmap_traits@KP8CDPTrans@@AEXAAVCAr@@KKKPAEK@ZU?$less@K@std@@V?$allocator@U?$pair@$$CBKP8CDPTrans@@AEXAAVCAr@@KKKPAEK@Z@std@@@4@$0A@@std@@@std@@QAE?AViterator@12@ABK@Z
_TEXT	SEGMENT PARA USE32 PUBLIC 'CODE'
_TEXT	ENDS
;	COMDAT ??0iterator@?$_Tree@V?$_Tmap_traits@KP8CDPTrans@@AEXAAVCAr@@KKKPAEK@ZU?$less@K@std@@V?$allocator@U?$pair@$$CBKP8CDPTrans@@AEXAAVCAr@@KKKPAEK@Z@std@@@4@$0A@@std@@@std@@QAE@PAU_Node@?$_Tree_nod@V?$_Tmap_traits@KP8CDPTrans@@AEXAAVCAr@@KKKPAEK@ZU?$less@K@std@@V?$allocator@U?$pair@$$CBKP8CDPTrans@@AEXAAVCAr@@KKKPAEK@Z@std@@@4@$0A@@std@@@2@@Z
_TEXT	SEGMENT PARA USE32 PUBLIC 'CODE'
_TEXT	ENDS
;	COMDAT ??Diterator@?$_Tree@V?$_Tmap_traits@KP8CDPTrans@@AEXAAVCAr@@KKKPAEK@ZU?$less@K@std@@V?$allocator@U?$pair@$$CBKP8CDPTrans@@AEXAAVCAr@@KKKPAEK@Z@std@@@4@$0A@@std@@@std@@QBEAAU?$pair@$$CBKP8CDPTrans@@AEXAAVCAr@@KKKPAEK@Z@2@XZ
_TEXT	SEGMENT PARA USE32 PUBLIC 'CODE'
_TEXT	ENDS
;	COMDAT ??8const_iterator@?$_Tree@V?$_Tmap_traits@KP8CDPTrans@@AEXAAVCAr@@KKKPAEK@ZU?$less@K@std@@V?$allocator@U?$pair@$$CBKP8CDPTrans@@AEXAAVCAr@@KKKPAEK@Z@std@@@4@$0A@@std@@@std@@QBE_NABV012@@Z
_TEXT	SEGMENT PARA USE32 PUBLIC 'CODE'
_TEXT	ENDS
;	COMDAT ?_Mynode@const_iterator@?$_Tree@V?$_Tmap_traits@KP8CDPTrans@@AEXAAVCAr@@KKKPAEK@ZU?$less@K@std@@V?$allocator@U?$pair@$$CBKP8CDPTrans@@AEXAAVCAr@@KKKPAEK@Z@std@@@4@$0A@@std@@@std@@QBEPAU_Node@?$_Tree_nod@V?$_Tmap_traits@KP8CDPTrans@@AEXAAVCAr@@KKKPAEK@ZU?$less@K@std@@V?$allocator@U?$pair@$$CBKP8CDPTrans@@AEXAAVCAr@@KKKPAEK@Z@std@@@4@$0A@@std@@@3@XZ
_TEXT	SEGMENT PARA USE32 PUBLIC 'CODE'
_TEXT	ENDS
;	COMDAT ??0iterator@?$_Tree@V?$_Tmap_traits@KU_WORLDDATA@CQuizDBCtrl@@U?$less@K@std@@V?$allocator@U?$pair@$$CBKU_WORLDDATA@CQuizDBCtrl@@@std@@@4@$0A@@std@@@std@@QAE@PAU_Node@?$_Tree_nod@V?$_Tmap_traits@KU_WORLDDATA@CQuizDBCtrl@@U?$less@K@std@@V?$allocator@U?$pair@$$CBKU_WORLDDATA@CQuizDBCtrl@@@std@@@4@$0A@@std@@@2@@Z
_TEXT	SEGMENT PARA USE32 PUBLIC 'CODE'
_TEXT	ENDS
;	COMDAT ??Diterator@?$_Tree@V?$_Tmap_traits@KU_WORLDDATA@CQuizDBCtrl@@U?$less@K@std@@V?$allocator@U?$pair@$$CBKU_WORLDDATA@CQuizDBCtrl@@@std@@@4@$0A@@std@@@std@@QBEAAU?$pair@$$CBKU_WORLDDATA@CQuizDBCtrl@@@2@XZ
_TEXT	SEGMENT PARA USE32 PUBLIC 'CODE'
_TEXT	ENDS
;	COMDAT ??Fiterator@?$_Tree@V?$_Tmap_traits@KU_WORLDDATA@CQuizDBCtrl@@U?$less@K@std@@V?$allocator@U?$pair@$$CBKU_WORLDDATA@CQuizDBCtrl@@@std@@@4@$0A@@std@@@std@@QAEAAV012@XZ
_TEXT	SEGMENT PARA USE32 PUBLIC 'CODE'
_TEXT	ENDS
;	COMDAT ??Econst_iterator@?$_Tree@V?$_Tmap_traits@KU_WORLDDATA@CQuizDBCtrl@@U?$less@K@std@@V?$allocator@U?$pair@$$CBKU_WORLDDATA@CQuizDBCtrl@@@std@@@4@$0A@@std@@@std@@QAEAAV012@XZ
_TEXT	SEGMENT PARA USE32 PUBLIC 'CODE'
_TEXT	ENDS
;	COMDAT ??8const_iterator@?$_Tree@V?$_Tmap_traits@KU_WORLDDATA@CQuizDBCtrl@@U?$less@K@std@@V?$allocator@U?$pair@$$CBKU_WORLDDATA@CQuizDBCtrl@@@std@@@4@$0A@@std@@@std@@QBE_NABV012@@Z
_TEXT	SEGMENT PARA USE32 PUBLIC 'CODE'
_TEXT	ENDS
;	COMDAT ?_Mynode@const_iterator@?$_Tree@V?$_Tmap_traits@KU_WORLDDATA@CQuizDBCtrl@@U?$less@K@std@@V?$allocator@U?$pair@$$CBKU_WORLDDATA@CQuizDBCtrl@@@std@@@4@$0A@@std@@@std@@QBEPAU_Node@?$_Tree_nod@V?$_Tmap_traits@KU_WORLDDATA@CQuizDBCtrl@@U?$less@K@std@@V?$allocator@U?$pair@$$CBKU_WORLDDATA@CQuizDBCtrl@@@std@@@4@$0A@@std@@@3@XZ
_TEXT	SEGMENT PARA USE32 PUBLIC 'CODE'
_TEXT	ENDS
;	COMDAT ??0?$pair@Viterator@?$_Tree@V?$_Tmap_traits@KU_WORLDDATA@CQuizDBCtrl@@U?$less@K@std@@V?$allocator@U?$pair@$$CBKU_WORLDDATA@CQuizDBCtrl@@@std@@@4@$0A@@std@@@std@@_N@std@@QAE@ABViterator@?$_Tree@V?$_Tmap_traits@KU_WORLDDATA@CQuizDBCtrl@@U?$less@K@std@@V?$allocator@U?$pair@$$CBKU_WORLDDATA@CQuizDBCtrl@@@std@@@4@$0A@@std@@@1@AB_N@Z
_TEXT	SEGMENT PARA USE32 PUBLIC 'CODE'
_TEXT	ENDS
;	COMDAT ??Diterator@?$vector@U_QUIZLIST@CQuiz@@V?$allocator@U_QUIZLIST@CQuiz@@@std@@@std@@QBEAAU_QUIZLIST@CQuiz@@XZ
_TEXT	SEGMENT PARA USE32 PUBLIC 'CODE'
_TEXT	ENDS
;	COMDAT ??Hiterator@?$vector@U_QUIZLIST@CQuiz@@V?$allocator@U_QUIZLIST@CQuiz@@@std@@@std@@QBE?AV012@H@Z
_TEXT	SEGMENT PARA USE32 PUBLIC 'CODE'
_TEXT	ENDS
;	COMDAT ??0?$allocator@H@std@@QAE@ABV01@@Z
_TEXT	SEGMENT PARA USE32 PUBLIC 'CODE'
_TEXT	ENDS
;	COMDAT ?deallocate@?$allocator@H@std@@QAEXPAHI@Z
_TEXT	SEGMENT PARA USE32 PUBLIC 'CODE'
_TEXT	ENDS
;	COMDAT ?allocate@?$allocator@H@std@@QAEPAHI@Z
_TEXT	SEGMENT PARA USE32 PUBLIC 'CODE'
_TEXT	ENDS
;	COMDAT ?_Myval@?$_Tree@V?$_Tmap_traits@KU_WORLDDATA@CQuizDBCtrl@@U?$less@K@std@@V?$allocator@U?$pair@$$CBKU_WORLDDATA@CQuizDBCtrl@@@std@@@4@$0A@@std@@@std@@KAAAU?$pair@$$CBKU_WORLDDATA@CQuizDBCtrl@@@2@PAU_Node@?$_Tree_nod@V?$_Tmap_traits@KU_WORLDDATA@CQuizDBCtrl@@U?$less@K@std@@V?$allocator@U?$pair@$$CBKU_WORLDDATA@CQuizDBCtrl@@@std@@@4@$0A@@std@@@2@@Z
_TEXT	SEGMENT PARA USE32 PUBLIC 'CODE'
_TEXT	ENDS
;	COMDAT ?max_size@?$_Tree@V?$_Tmap_traits@KU_WORLDDATA@CQuizDBCtrl@@U?$less@K@std@@V?$allocator@U?$pair@$$CBKU_WORLDDATA@CQuizDBCtrl@@@std@@@4@$0A@@std@@@std@@QBEIXZ
_TEXT	SEGMENT PARA USE32 PUBLIC 'CODE'
_TEXT	ENDS
;	COMDAT ?erase@?$_Tree@V?$_Tmap_traits@KU_WORLDDATA@CQuizDBCtrl@@U?$less@K@std@@V?$allocator@U?$pair@$$CBKU_WORLDDATA@CQuizDBCtrl@@@std@@@4@$0A@@std@@@std@@QAE?AViterator@12@V312@0@Z
_TEXT	SEGMENT PARA USE32 PUBLIC 'CODE'
_TEXT	ENDS
;	COMDAT ?_Init@?$_Tree@V?$_Tmap_traits@KU_WORLDDATA@CQuizDBCtrl@@U?$less@K@std@@V?$allocator@U?$pair@$$CBKU_WORLDDATA@CQuizDBCtrl@@@std@@@4@$0A@@std@@@std@@IAEXXZ
_TEXT	SEGMENT PARA USE32 PUBLIC 'CODE'
_TEXT	ENDS
;	COMDAT ?_Lbound@?$_Tree@V?$_Tmap_traits@KU_WORLDDATA@CQuizDBCtrl@@U?$less@K@std@@V?$allocator@U?$pair@$$CBKU_WORLDDATA@CQuizDBCtrl@@@std@@@4@$0A@@std@@@std@@IBEPAU_Node@?$_Tree_nod@V?$_Tmap_traits@KU_WORLDDATA@CQuizDBCtrl@@U?$less@K@std@@V?$allocator@U?$pair@$$CBKU_WORLDDATA@CQuizDBCtrl@@@std@@@4@$0A@@std@@@2@ABK@Z
_TEXT	SEGMENT PARA USE32 PUBLIC 'CODE'
_TEXT	ENDS
;	COMDAT ?_Buynode@?$_Tree@V?$_Tmap_traits@KU_WORLDDATA@CQuizDBCtrl@@U?$less@K@std@@V?$allocator@U?$pair@$$CBKU_WORLDDATA@CQuizDBCtrl@@@std@@@4@$0A@@std@@@std@@IAEPAU_Node@?$_Tree_nod@V?$_Tmap_traits@KU_WORLDDATA@CQuizDBCtrl@@U?$less@K@std@@V?$allocator@U?$pair@$$CBKU_WORLDDATA@CQuizDBCtrl@@@std@@@4@$0A@@std@@@2@PAU342@00ABU?$pair@$$CBKU_WORLDDATA@CQuizDBCtrl@@@2@D@Z
_TEXT	SEGMENT PARA USE32 PUBLIC 'CODE'
_TEXT	ENDS
;	COMDAT ??0?$_Tree_val@V?$_Tmap_traits@KU_WORLDDATA@CQuizDBCtrl@@U?$less@K@std@@V?$allocator@U?$pair@$$CBKU_WORLDDATA@CQuizDBCtrl@@@std@@@4@$0A@@std@@@std@@IAE@ABU?$less@K@1@V?$allocator@U?$pair@$$CBKU_WORLDDATA@CQuizDBCtrl@@@std@@@1@@Z
_TEXT	SEGMENT PARA USE32 PUBLIC 'CODE'
_TEXT	ENDS
;	COMDAT ??0?$allocator@U?$pair@$$CBKU_WORLDDATA@CQuizDBCtrl@@@std@@@std@@QAE@ABV01@@Z
_TEXT	SEGMENT PARA USE32 PUBLIC 'CODE'
_TEXT	ENDS
;	COMDAT ?destroy@?$allocator@PAU_Node@?$_Tree_nod@V?$_Tmap_traits@KU_WORLDDATA@CQuizDBCtrl@@U?$less@K@std@@V?$allocator@U?$pair@$$CBKU_WORLDDATA@CQuizDBCtrl@@@std@@@4@$0A@@std@@@std@@@std@@QAEXPAPAU_Node@?$_Tree_nod@V?$_Tmap_traits@KU_WORLDDATA@CQuizDBCtrl@@U?$less@K@std@@V?$allocator@U?$pair@$$CBKU_WORLDDATA@CQuizDBCtrl@@@std@@@4@$0A@@std@@@2@@Z
_TEXT	SEGMENT PARA USE32 PUBLIC 'CODE'
_TEXT	ENDS
;	COMDAT ?max_size@?$vector@MV?$allocator@M@std@@@std@@QBEIXZ
_TEXT	SEGMENT PARA USE32 PUBLIC 'CODE'
_TEXT	ENDS
;	COMDAT ?_Destroy@?$vector@MV?$allocator@M@std@@@std@@IAEXPAM0@Z
_TEXT	SEGMENT PARA USE32 PUBLIC 'CODE'
_TEXT	ENDS
;	COMDAT ?_Xlen@?$vector@MV?$allocator@M@std@@@std@@IBEXXZ
_TEXT	SEGMENT PARA USE32 PUBLIC 'CODE'
_TEXT	ENDS
;	COMDAT ??0?$allocator@M@std@@QAE@ABV01@@Z
_TEXT	SEGMENT PARA USE32 PUBLIC 'CODE'
_TEXT	ENDS
;	COMDAT ?deallocate@?$allocator@M@std@@QAEXPAMI@Z
_TEXT	SEGMENT PARA USE32 PUBLIC 'CODE'
_TEXT	ENDS
;	COMDAT ?allocate@?$allocator@M@std@@QAEPAMI@Z
_TEXT	SEGMENT PARA USE32 PUBLIC 'CODE'
_TEXT	ENDS
;	COMDAT ?max_size@?$vector@HV?$allocator@H@std@@@std@@QBEIXZ
_TEXT	SEGMENT PARA USE32 PUBLIC 'CODE'
_TEXT	ENDS
;	COMDAT ?_Destroy@?$vector@HV?$allocator@H@std@@@std@@IAEXPAH0@Z
_TEXT	SEGMENT PARA USE32 PUBLIC 'CODE'
_TEXT	ENDS
;	COMDAT ?_Xlen@?$vector@HV?$allocator@H@std@@@std@@IBEXXZ
_TEXT	SEGMENT PARA USE32 PUBLIC 'CODE'
_TEXT	ENDS
;	COMDAT ?_Destroy@?$vector@U_QUIZLIST@CQuiz@@V?$allocator@U_QUIZLIST@CQuiz@@@std@@@std@@IAEXPAU_QUIZLIST@CQuiz@@0@Z
_TEXT	SEGMENT PARA USE32 PUBLIC 'CODE'
_TEXT	ENDS
;	COMDAT ?_Insert_n@?$vector@U_QUIZLIST@CQuiz@@V?$allocator@U_QUIZLIST@CQuiz@@@std@@@std@@IAEXViterator@12@IABU_QUIZLIST@CQuiz@@@Z
_TEXT	SEGMENT PARA USE32 PUBLIC 'CODE'
_TEXT	ENDS
;	COMDAT ?deallocate@?$allocator@U_QUIZLIST@CQuiz@@@std@@QAEXPAU_QUIZLIST@CQuiz@@I@Z
_TEXT	SEGMENT PARA USE32 PUBLIC 'CODE'
_TEXT	ENDS
;	COMDAT ?_Myval@?$_Tree@V?$_Tmap_traits@KP8CDPTrans@@AEXAAVCAr@@KKKPAEK@ZU?$less@K@std@@V?$allocator@U?$pair@$$CBKP8CDPTrans@@AEXAAVCAr@@KKKPAEK@Z@std@@@4@$0A@@std@@@std@@KAAAU?$pair@$$CBKP8CDPTrans@@AEXAAVCAr@@KKKPAEK@Z@2@PAU_Node@?$_Tree_nod@V?$_Tmap_traits@KP8CDPTrans@@AEXAAVCAr@@KKKPAEK@ZU?$less@K@std@@V?$allocator@U?$pair@$$CBKP8CDPTrans@@AEXAAVCAr@@KKKPAEK@Z@std@@@4@$0A@@std@@@2@@Z
_TEXT	SEGMENT PARA USE32 PUBLIC 'CODE'
_TEXT	ENDS
;	COMDAT ?_Lbound@?$_Tree@V?$_Tmap_traits@KP8CDPTrans@@AEXAAVCAr@@KKKPAEK@ZU?$less@K@std@@V?$allocator@U?$pair@$$CBKP8CDPTrans@@AEXAAVCAr@@KKKPAEK@Z@std@@@4@$0A@@std@@@std@@IBEPAU_Node@?$_Tree_nod@V?$_Tmap_traits@KP8CDPTrans@@AEXAAVCAr@@KKKPAEK@ZU?$less@K@std@@V?$allocator@U?$pair@$$CBKP8CDPTrans@@AEXAAVCAr@@KKKPAEK@Z@std@@@4@$0A@@std@@@2@ABK@Z
_TEXT	SEGMENT PARA USE32 PUBLIC 'CODE'
_TEXT	ENDS
;	COMDAT ?_Kfn@?$_Tmap_traits@KP8CDPTrans@@AEXAAVCAr@@KKKPAEK@ZU?$less@K@std@@V?$allocator@U?$pair@$$CBKP8CDPTrans@@AEXAAVCAr@@KKKPAEK@Z@std@@@4@$0A@@std@@SAABKABU?$pair@$$CBKP8CDPTrans@@AEXAAVCAr@@KKKPAEK@Z@2@@Z
_TEXT	SEGMENT PARA USE32 PUBLIC 'CODE'
_TEXT	ENDS
;	COMDAT ??0const_iterator@?$_Tree@V?$_Tmap_traits@KP8CDPTrans@@AEXAAVCAr@@KKKPAEK@ZU?$less@K@std@@V?$allocator@U?$pair@$$CBKP8CDPTrans@@AEXAAVCAr@@KKKPAEK@Z@std@@@4@$0A@@std@@@std@@QAE@PAU_Node@?$_Tree_nod@V?$_Tmap_traits@KP8CDPTrans@@AEXAAVCAr@@KKKPAEK@ZU?$less@K@std@@V?$allocator@U?$pair@$$CBKP8CDPTrans@@AEXAAVCAr@@KKKPAEK@Z@std@@@4@$0A@@std@@@2@@Z
_TEXT	SEGMENT PARA USE32 PUBLIC 'CODE'
_TEXT	ENDS
;	COMDAT ??Dconst_iterator@?$_Tree@V?$_Tmap_traits@KP8CDPTrans@@AEXAAVCAr@@KKKPAEK@ZU?$less@K@std@@V?$allocator@U?$pair@$$CBKP8CDPTrans@@AEXAAVCAr@@KKKPAEK@Z@std@@@4@$0A@@std@@@std@@QBEABU?$pair@$$CBKP8CDPTrans@@AEXAAVCAr@@KKKPAEK@Z@2@XZ
_TEXT	SEGMENT PARA USE32 PUBLIC 'CODE'
_TEXT	ENDS
;	COMDAT ??0const_iterator@?$_Tree@V?$_Tmap_traits@KU_WORLDDATA@CQuizDBCtrl@@U?$less@K@std@@V?$allocator@U?$pair@$$CBKU_WORLDDATA@CQuizDBCtrl@@@std@@@4@$0A@@std@@@std@@QAE@PAU_Node@?$_Tree_nod@V?$_Tmap_traits@KU_WORLDDATA@CQuizDBCtrl@@U?$less@K@std@@V?$allocator@U?$pair@$$CBKU_WORLDDATA@CQuizDBCtrl@@@std@@@4@$0A@@std@@@2@@Z
_TEXT	SEGMENT PARA USE32 PUBLIC 'CODE'
_TEXT	ENDS
;	COMDAT ??Dconst_iterator@?$_Tree@V?$_Tmap_traits@KU_WORLDDATA@CQuizDBCtrl@@U?$less@K@std@@V?$allocator@U?$pair@$$CBKU_WORLDDATA@CQuizDBCtrl@@@std@@@4@$0A@@std@@@std@@QBEABU?$pair@$$CBKU_WORLDDATA@CQuizDBCtrl@@@2@XZ
_TEXT	SEGMENT PARA USE32 PUBLIC 'CODE'
_TEXT	ENDS
;	COMDAT ??Fconst_iterator@?$_Tree@V?$_Tmap_traits@KU_WORLDDATA@CQuizDBCtrl@@U?$less@K@std@@V?$allocator@U?$pair@$$CBKU_WORLDDATA@CQuizDBCtrl@@@std@@@4@$0A@@std@@@std@@QAEAAV012@XZ
_TEXT	SEGMENT PARA USE32 PUBLIC 'CODE'
_TEXT	ENDS
;	COMDAT ?_Inc@const_iterator@?$_Tree@V?$_Tmap_traits@KU_WORLDDATA@CQuizDBCtrl@@U?$less@K@std@@V?$allocator@U?$pair@$$CBKU_WORLDDATA@CQuizDBCtrl@@@std@@@4@$0A@@std@@@std@@QAEXXZ
_TEXT	SEGMENT PARA USE32 PUBLIC 'CODE'
_TEXT	ENDS
;	COMDAT ??0iterator@?$vector@U_QUIZLIST@CQuiz@@V?$allocator@U_QUIZLIST@CQuiz@@@std@@@std@@QAE@PAU_QUIZLIST@CQuiz@@@Z
_TEXT	SEGMENT PARA USE32 PUBLIC 'CODE'
_TEXT	ENDS
;	COMDAT ??Yiterator@?$vector@U_QUIZLIST@CQuiz@@V?$allocator@U_QUIZLIST@CQuiz@@@std@@@std@@QAEAAV012@H@Z
_TEXT	SEGMENT PARA USE32 PUBLIC 'CODE'
_TEXT	ENDS
;	COMDAT ??Giterator@?$vector@U_QUIZLIST@CQuiz@@V?$allocator@U_QUIZLIST@CQuiz@@@std@@@std@@QBEHABVconst_iterator@12@@Z
_TEXT	SEGMENT PARA USE32 PUBLIC 'CODE'
_TEXT	ENDS
;	COMDAT ??Dconst_iterator@?$vector@U_QUIZLIST@CQuiz@@V?$allocator@U_QUIZLIST@CQuiz@@@std@@@std@@QBEABU_QUIZLIST@CQuiz@@XZ
_TEXT	SEGMENT PARA USE32 PUBLIC 'CODE'
_TEXT	ENDS
;	COMDAT ??0_QUIZLIST@CQuiz@@QAE@ABU01@@Z
_TEXT	SEGMENT PARA USE32 PUBLIC 'CODE'
_TEXT	ENDS
;	COMDAT ?max_size@?$allocator@H@std@@QBEIXZ
_TEXT	SEGMENT PARA USE32 PUBLIC 'CODE'
_TEXT	ENDS
;	COMDAT ?_Root@?$_Tree@V?$_Tmap_traits@KU_WORLDDATA@CQuizDBCtrl@@U?$less@K@std@@V?$allocator@U?$pair@$$CBKU_WORLDDATA@CQuizDBCtrl@@@std@@@4@$0A@@std@@@std@@IBEAAPAU_Node@?$_Tree_nod@V?$_Tmap_traits@KU_WORLDDATA@CQuizDBCtrl@@U?$less@K@std@@V?$allocator@U?$pair@$$CBKU_WORLDDATA@CQuizDBCtrl@@@std@@@4@$0A@@std@@@2@XZ
_TEXT	SEGMENT PARA USE32 PUBLIC 'CODE'
_TEXT	ENDS
;	COMDAT ?_Buynode@?$_Tree@V?$_Tmap_traits@KU_WORLDDATA@CQuizDBCtrl@@U?$less@K@std@@V?$allocator@U?$pair@$$CBKU_WORLDDATA@CQuizDBCtrl@@@std@@@4@$0A@@std@@@std@@IAEPAU_Node@?$_Tree_nod@V?$_Tmap_traits@KU_WORLDDATA@CQuizDBCtrl@@U?$less@K@std@@V?$allocator@U?$pair@$$CBKU_WORLDDATA@CQuizDBCtrl@@@std@@@4@$0A@@std@@@2@XZ
_TEXT	SEGMENT PARA USE32 PUBLIC 'CODE'
_TEXT	ENDS
;	COMDAT ??0?$_Tree_ptr@V?$_Tmap_traits@KU_WORLDDATA@CQuizDBCtrl@@U?$less@K@std@@V?$allocator@U?$pair@$$CBKU_WORLDDATA@CQuizDBCtrl@@@std@@@4@$0A@@std@@@std@@IAE@ABU?$less@K@1@V?$allocator@U?$pair@$$CBKU_WORLDDATA@CQuizDBCtrl@@@std@@@1@@Z
_TEXT	SEGMENT PARA USE32 PUBLIC 'CODE'
_TEXT	ENDS
;	COMDAT ?max_size@?$allocator@U?$pair@$$CBKU_WORLDDATA@CQuizDBCtrl@@@std@@@std@@QBEIXZ
_TEXT	SEGMENT PARA USE32 PUBLIC 'CODE'
_TEXT	ENDS
;	COMDAT ?allocate@?$allocator@U_Node@?$_Tree_nod@V?$_Tmap_traits@KU_WORLDDATA@CQuizDBCtrl@@U?$less@K@std@@V?$allocator@U?$pair@$$CBKU_WORLDDATA@CQuizDBCtrl@@@std@@@4@$0A@@std@@@std@@@std@@QAEPAU_Node@?$_Tree_nod@V?$_Tmap_traits@KU_WORLDDATA@CQuizDBCtrl@@U?$less@K@std@@V?$allocator@U?$pair@$$CBKU_WORLDDATA@CQuizDBCtrl@@@std@@@4@$0A@@std@@@2@I@Z
_TEXT	SEGMENT PARA USE32 PUBLIC 'CODE'
_TEXT	ENDS
;	COMDAT ?max_size@?$allocator@M@std@@QBEIXZ
_TEXT	SEGMENT PARA USE32 PUBLIC 'CODE'
_TEXT	ENDS
;	COMDAT ?max_size@?$vector@U_QUIZLIST@CQuiz@@V?$allocator@U_QUIZLIST@CQuiz@@@std@@@std@@QBEIXZ
_TEXT	SEGMENT PARA USE32 PUBLIC 'CODE'
_TEXT	ENDS
;	COMDAT ?_Xlen@?$vector@U_QUIZLIST@CQuiz@@V?$allocator@U_QUIZLIST@CQuiz@@@std@@@std@@IBEXXZ
_TEXT	SEGMENT PARA USE32 PUBLIC 'CODE'
_TEXT	ENDS
;	COMDAT ?allocate@?$allocator@U_QUIZLIST@CQuiz@@@std@@QAEPAU_QUIZLIST@CQuiz@@I@Z
_TEXT	SEGMENT PARA USE32 PUBLIC 'CODE'
_TEXT	ENDS
;	COMDAT ?_Isnil@?$_Tree@V?$_Tmap_traits@KP8CDPTrans@@AEXAAVCAr@@KKKPAEK@ZU?$less@K@std@@V?$allocator@U?$pair@$$CBKP8CDPTrans@@AEXAAVCAr@@KKKPAEK@Z@std@@@4@$0A@@std@@@std@@KAAADPAU_Node@?$_Tree_nod@V?$_Tmap_traits@KP8CDPTrans@@AEXAAVCAr@@KKKPAEK@ZU?$less@K@std@@V?$allocator@U?$pair@$$CBKP8CDPTrans@@AEXAAVCAr@@KKKPAEK@Z@std@@@4@$0A@@std@@@2@@Z
_TEXT	SEGMENT PARA USE32 PUBLIC 'CODE'
_TEXT	ENDS
;	COMDAT ?_Left@?$_Tree@V?$_Tmap_traits@KP8CDPTrans@@AEXAAVCAr@@KKKPAEK@ZU?$less@K@std@@V?$allocator@U?$pair@$$CBKP8CDPTrans@@AEXAAVCAr@@KKKPAEK@Z@std@@@4@$0A@@std@@@std@@KAAAPAU_Node@?$_Tree_nod@V?$_Tmap_traits@KP8CDPTrans@@AEXAAVCAr@@KKKPAEK@ZU?$less@K@std@@V?$allocator@U?$pair@$$CBKP8CDPTrans@@AEXAAVCAr@@KKKPAEK@Z@std@@@4@$0A@@std@@@2@PAU342@@Z
_TEXT	SEGMENT PARA USE32 PUBLIC 'CODE'
_TEXT	ENDS
;	COMDAT ?_Right@?$_Tree@V?$_Tmap_traits@KP8CDPTrans@@AEXAAVCAr@@KKKPAEK@ZU?$less@K@std@@V?$allocator@U?$pair@$$CBKP8CDPTrans@@AEXAAVCAr@@KKKPAEK@Z@std@@@4@$0A@@std@@@std@@KAAAPAU_Node@?$_Tree_nod@V?$_Tmap_traits@KP8CDPTrans@@AEXAAVCAr@@KKKPAEK@ZU?$less@K@std@@V?$allocator@U?$pair@$$CBKP8CDPTrans@@AEXAAVCAr@@KKKPAEK@Z@std@@@4@$0A@@std@@@2@PAU342@@Z
_TEXT	SEGMENT PARA USE32 PUBLIC 'CODE'
_TEXT	ENDS
;	COMDAT ?_Root@?$_Tree@V?$_Tmap_traits@KP8CDPTrans@@AEXAAVCAr@@KKKPAEK@ZU?$less@K@std@@V?$allocator@U?$pair@$$CBKP8CDPTrans@@AEXAAVCAr@@KKKPAEK@Z@std@@@4@$0A@@std@@@std@@IBEAAPAU_Node@?$_Tree_nod@V?$_Tmap_traits@KP8CDPTrans@@AEXAAVCAr@@KKKPAEK@ZU?$less@K@std@@V?$allocator@U?$pair@$$CBKP8CDPTrans@@AEXAAVCAr@@KKKPAEK@Z@std@@@4@$0A@@std@@@2@XZ
_TEXT	SEGMENT PARA USE32 PUBLIC 'CODE'
_TEXT	ENDS
;	COMDAT ??Eiterator@?$_Tree@V?$_Tmap_traits@KU_WORLDDATA@CQuizDBCtrl@@U?$less@K@std@@V?$allocator@U?$pair@$$CBKU_WORLDDATA@CQuizDBCtrl@@@std@@@4@$0A@@std@@@std@@QAE?AV012@H@Z
_TEXT	SEGMENT PARA USE32 PUBLIC 'CODE'
_TEXT	ENDS
;	COMDAT ?_Dec@const_iterator@?$_Tree@V?$_Tmap_traits@KU_WORLDDATA@CQuizDBCtrl@@U?$less@K@std@@V?$allocator@U?$pair@$$CBKU_WORLDDATA@CQuizDBCtrl@@@std@@@4@$0A@@std@@@std@@QAEXXZ
_TEXT	SEGMENT PARA USE32 PUBLIC 'CODE'
_TEXT	ENDS
;	COMDAT ??0const_iterator@?$vector@U_QUIZLIST@CQuiz@@V?$allocator@U_QUIZLIST@CQuiz@@@std@@@std@@QAE@PAU_QUIZLIST@CQuiz@@@Z
_TEXT	SEGMENT PARA USE32 PUBLIC 'CODE'
_TEXT	ENDS
;	COMDAT ??Gconst_iterator@?$vector@U_QUIZLIST@CQuiz@@V?$allocator@U_QUIZLIST@CQuiz@@@std@@@std@@QBEHABV012@@Z
_TEXT	SEGMENT PARA USE32 PUBLIC 'CODE'
_TEXT	ENDS
;	COMDAT ??0_Node@?$_Tree_nod@V?$_Tmap_traits@KU_WORLDDATA@CQuizDBCtrl@@U?$less@K@std@@V?$allocator@U?$pair@$$CBKU_WORLDDATA@CQuizDBCtrl@@@std@@@4@$0A@@std@@@std@@QAE@PAU012@00ABU?$pair@$$CBKU_WORLDDATA@CQuizDBCtrl@@@2@D@Z
_TEXT	SEGMENT PARA USE32 PUBLIC 'CODE'
_TEXT	ENDS
;	COMDAT ??0?$_Tree_nod@V?$_Tmap_traits@KU_WORLDDATA@CQuizDBCtrl@@U?$less@K@std@@V?$allocator@U?$pair@$$CBKU_WORLDDATA@CQuizDBCtrl@@@std@@@4@$0A@@std@@@std@@IAE@ABU?$less@K@1@V?$allocator@U?$pair@$$CBKU_WORLDDATA@CQuizDBCtrl@@@std@@@1@@Z
_TEXT	SEGMENT PARA USE32 PUBLIC 'CODE'
_TEXT	ENDS
;	COMDAT ?construct@?$allocator@PAU_Node@?$_Tree_nod@V?$_Tmap_traits@KU_WORLDDATA@CQuizDBCtrl@@U?$less@K@std@@V?$allocator@U?$pair@$$CBKU_WORLDDATA@CQuizDBCtrl@@@std@@@4@$0A@@std@@@std@@@std@@QAEXPAPAU_Node@?$_Tree_nod@V?$_Tmap_traits@KU_WORLDDATA@CQuizDBCtrl@@U?$less@K@std@@V?$allocator@U?$pair@$$CBKU_WORLDDATA@CQuizDBCtrl@@@std@@@4@$0A@@std@@@2@ABQAU342@@Z
_TEXT	SEGMENT PARA USE32 PUBLIC 'CODE'
_TEXT	ENDS
;	COMDAT ?max_size@?$allocator@U_QUIZLIST@CQuiz@@@std@@QBEIXZ
_TEXT	SEGMENT PARA USE32 PUBLIC 'CODE'
_TEXT	ENDS
;	COMDAT ?_Parent@?$_Tree@V?$_Tmap_traits@KP8CDPTrans@@AEXAAVCAr@@KKKPAEK@ZU?$less@K@std@@V?$allocator@U?$pair@$$CBKP8CDPTrans@@AEXAAVCAr@@KKKPAEK@Z@std@@@4@$0A@@std@@@std@@KAAAPAU_Node@?$_Tree_nod@V?$_Tmap_traits@KP8CDPTrans@@AEXAAVCAr@@KKKPAEK@ZU?$less@K@std@@V?$allocator@U?$pair@$$CBKP8CDPTrans@@AEXAAVCAr@@KKKPAEK@Z@std@@@4@$0A@@std@@@2@PAU342@@Z
_TEXT	SEGMENT PARA USE32 PUBLIC 'CODE'
_TEXT	ENDS
;	COMDAT ??0?$_Tmap_traits@KU_WORLDDATA@CQuizDBCtrl@@U?$less@K@std@@V?$allocator@U?$pair@$$CBKU_WORLDDATA@CQuizDBCtrl@@@std@@@4@$0A@@std@@QAE@U?$less@K@1@@Z
_TEXT	SEGMENT PARA USE32 PUBLIC 'CODE'
_TEXT	ENDS
;	COMDAT ??$_Iter_cat@Viterator@?$_Tree@V?$_Tmap_traits@KU_Friend@@U?$less@K@std@@V?$allocator@U?$pair@$$CBKU_Friend@@@std@@@3@$0A@@std@@@std@@@std@@YA?AUbidirectional_iterator_tag@0@ABViterator@?$_Tree@V?$_Tmap_traits@KU_Friend@@U?$less@K@std@@V?$allocator@U?$pair@$$CBKU_Friend@@@std@@@3@$0A@@std@@@0@@Z
_TEXT	SEGMENT PARA USE32 PUBLIC 'CODE'
_TEXT	ENDS
;	COMDAT ??$_Distance2@Viterator@?$_Tree@V?$_Tmap_traits@KU_Friend@@U?$less@K@std@@V?$allocator@U?$pair@$$CBKU_Friend@@@std@@@3@$0A@@std@@@std@@I@std@@YAXViterator@?$_Tree@V?$_Tmap_traits@KU_Friend@@U?$less@K@std@@V?$allocator@U?$pair@$$CBKU_Friend@@@std@@@3@$0A@@std@@@0@0AAIUbidirectional_iterator_tag@0@@Z
_TEXT	SEGMENT PARA USE32 PUBLIC 'CODE'
_TEXT	ENDS
;	COMDAT ??$_Copy_opt@PAJPAJ@std@@YAPAJPAJ00U_Scalar_ptr_iterator_tag@0@@Z
_TEXT	SEGMENT PARA USE32 PUBLIC 'CODE'
_TEXT	ENDS
;	COMDAT ??$_Uninitialized_copy@PAJPAJV?$allocator@J@std@@@std@@YAPAJPAJ00AAV?$allocator@J@0@@Z
_TEXT	SEGMENT PARA USE32 PUBLIC 'CODE'
_TEXT	ENDS
;	COMDAT ??$_Copy_backward_opt@PAJPAJ@std@@YAPAJPAJ00U_Scalar_ptr_iterator_tag@0@@Z
_TEXT	SEGMENT PARA USE32 PUBLIC 'CODE'
_TEXT	ENDS
;	COMDAT ??$_Ptr_cat@PAUtagDROPITEM@@PAU1@@std@@YA?AU_Nonscalar_ptr_iterator_tag@0@AAPAUtagDROPITEM@@0@Z
_TEXT	SEGMENT PARA USE32 PUBLIC 'CODE'
_TEXT	ENDS
;	COMDAT ??$_Destroy_range@UtagDROPITEM@@V?$allocator@UtagDROPITEM@@@std@@@std@@YAXPAUtagDROPITEM@@0AAV?$allocator@UtagDROPITEM@@@0@U_Nonscalar_ptr_iterator_tag@0@@Z
_TEXT	SEGMENT PARA USE32 PUBLIC 'CODE'
_TEXT	ENDS
;	COMDAT ??$_Destroy_range@KV?$allocator@K@std@@@std@@YAXPAK0AAV?$allocator@K@0@U_Scalar_ptr_iterator_tag@0@@Z
_TEXT	SEGMENT PARA USE32 PUBLIC 'CODE'
_TEXT	ENDS
;	COMDAT ??$_Destroy_range@JV?$allocator@J@std@@@std@@YAXPAJ0AAV?$allocator@J@0@U_Scalar_ptr_iterator_tag@0@@Z
_TEXT	SEGMENT PARA USE32 PUBLIC 'CODE'
_TEXT	ENDS
;	COMDAT ??$_Uninit_fill_n@JIJ@std@@YAXPAJIABJAAV?$allocator@J@0@U_Scalar_ptr_iterator_tag@0@@Z
_TEXT	SEGMENT PARA USE32 PUBLIC 'CODE'
_TEXT	ENDS
;	COMDAT ??$throw_exception@Vbad_weak_ptr@boost@@@boost@@YAXABVbad_weak_ptr@0@@Z
_TEXT	SEGMENT PARA USE32 PUBLIC 'CODE'
_TEXT	ENDS
;	COMDAT ??$_Destroy@U_Node@?$_Tree_nod@V?$_Tmap_traits@KU_WORLDDATA@CQuizDBCtrl@@U?$less@K@std@@V?$allocator@U?$pair@$$CBKU_WORLDDATA@CQuizDBCtrl@@@std@@@4@$0A@@std@@@std@@@std@@YAXPAU_Node@?$_Tree_nod@V?$_Tmap_traits@KU_WORLDDATA@CQuizDBCtrl@@U?$less@K@std@@V?$allocator@U?$pair@$$CBKU_WORLDDATA@CQuizDBCtrl@@@std@@@4@$0A@@std@@@0@@Z
_TEXT	SEGMENT PARA USE32 PUBLIC 'CODE'
_TEXT	ENDS
;	COMDAT ??$_Uninitialized_fill_n@PAU_QUIZLIST@CQuiz@@IU12@V?$allocator@U_QUIZLIST@CQuiz@@@std@@@std@@YAXPAU_QUIZLIST@CQuiz@@IABU12@AAV?$allocator@U_QUIZLIST@CQuiz@@@0@@Z
_TEXT	SEGMENT PARA USE32 PUBLIC 'CODE'
_TEXT	ENDS
;	COMDAT ??$_Allocate@H@std@@YAPAHIPAH@Z
_TEXT	SEGMENT PARA USE32 PUBLIC 'CODE'
_TEXT	ENDS
;	COMDAT ??$_Destroy@PAU_Node@?$_Tree_nod@V?$_Tmap_traits@KU_WORLDDATA@CQuizDBCtrl@@U?$less@K@std@@V?$allocator@U?$pair@$$CBKU_WORLDDATA@CQuizDBCtrl@@@std@@@4@$0A@@std@@@std@@@std@@YAXPAPAU_Node@?$_Tree_nod@V?$_Tmap_traits@KU_WORLDDATA@CQuizDBCtrl@@U?$less@K@std@@V?$allocator@U?$pair@$$CBKU_WORLDDATA@CQuizDBCtrl@@@std@@@4@$0A@@std@@@0@@Z
_TEXT	SEGMENT PARA USE32 PUBLIC 'CODE'
_TEXT	ENDS
;	COMDAT ??$_Destroy_range@MV?$allocator@M@std@@@std@@YAXPAM0AAV?$allocator@M@0@@Z
_TEXT	SEGMENT PARA USE32 PUBLIC 'CODE'
_TEXT	ENDS
;	COMDAT ??$_Allocate@M@std@@YAPAMIPAM@Z
_TEXT	SEGMENT PARA USE32 PUBLIC 'CODE'
_TEXT	ENDS
;	COMDAT ??$_Destroy_range@HV?$allocator@H@std@@@std@@YAXPAH0AAV?$allocator@H@0@@Z
_TEXT	SEGMENT PARA USE32 PUBLIC 'CODE'
_TEXT	ENDS
;	COMDAT ??$_Destroy_range@U_QUIZLIST@CQuiz@@V?$allocator@U_QUIZLIST@CQuiz@@@std@@@std@@YAXPAU_QUIZLIST@CQuiz@@0AAV?$allocator@U_QUIZLIST@CQuiz@@@0@@Z
_TEXT	SEGMENT PARA USE32 PUBLIC 'CODE'
_TEXT	ENDS
;	COMDAT ??$_Ucopy@PAU_QUIZLIST@CQuiz@@@?$vector@U_QUIZLIST@CQuiz@@V?$allocator@U_QUIZLIST@CQuiz@@@std@@@std@@IAEPAU_QUIZLIST@CQuiz@@PAU23@00@Z
_TEXT	SEGMENT PARA USE32 PUBLIC 'CODE'
_TEXT	ENDS
;	COMDAT ??$fill@PAU_QUIZLIST@CQuiz@@U12@@std@@YAXPAU_QUIZLIST@CQuiz@@0ABU12@@Z
_TEXT	SEGMENT PARA USE32 PUBLIC 'CODE'
_TEXT	ENDS
;	COMDAT ??$copy_backward@PAU_QUIZLIST@CQuiz@@PAU12@@std@@YAPAU_QUIZLIST@CQuiz@@PAU12@00@Z
_TEXT	SEGMENT PARA USE32 PUBLIC 'CODE'
_TEXT	ENDS
;	COMDAT ??$?0U?$pair@$$CBKU_WORLDDATA@CQuizDBCtrl@@@std@@@?$allocator@PAU_Node@?$_Tree_nod@V?$_Tmap_traits@KU_WORLDDATA@CQuizDBCtrl@@U?$less@K@std@@V?$allocator@U?$pair@$$CBKU_WORLDDATA@CQuizDBCtrl@@@std@@@4@$0A@@std@@@std@@@std@@QAE@ABV?$allocator@U?$pair@$$CBKU_WORLDDATA@CQuizDBCtrl@@@std@@@1@@Z
_TEXT	SEGMENT PARA USE32 PUBLIC 'CODE'
_TEXT	ENDS
;	COMDAT ??$_Allocate@U_Node@?$_Tree_nod@V?$_Tmap_traits@KU_WORLDDATA@CQuizDBCtrl@@U?$less@K@std@@V?$allocator@U?$pair@$$CBKU_WORLDDATA@CQuizDBCtrl@@@std@@@4@$0A@@std@@@std@@@std@@YAPAU_Node@?$_Tree_nod@V?$_Tmap_traits@KU_WORLDDATA@CQuizDBCtrl@@U?$less@K@std@@V?$allocator@U?$pair@$$CBKU_WORLDDATA@CQuizDBCtrl@@@std@@@4@$0A@@std@@@0@IPAU120@@Z
_TEXT	SEGMENT PARA USE32 PUBLIC 'CODE'
_TEXT	ENDS
;	COMDAT ??$_Allocate@U_QUIZLIST@CQuiz@@@std@@YAPAU_QUIZLIST@CQuiz@@IPAU12@@Z
_TEXT	SEGMENT PARA USE32 PUBLIC 'CODE'
_TEXT	ENDS
;	COMDAT ??$?0U?$pair@$$CBKU_WORLDDATA@CQuizDBCtrl@@@std@@@?$allocator@U_Node@?$_Tree_nod@V?$_Tmap_traits@KU_WORLDDATA@CQuizDBCtrl@@U?$less@K@std@@V?$allocator@U?$pair@$$CBKU_WORLDDATA@CQuizDBCtrl@@@std@@@4@$0A@@std@@@std@@@std@@QAE@ABV?$allocator@U?$pair@$$CBKU_WORLDDATA@CQuizDBCtrl@@@std@@@1@@Z
_TEXT	SEGMENT PARA USE32 PUBLIC 'CODE'
_TEXT	ENDS
;	COMDAT ??$_Construct@PAU_Node@?$_Tree_nod@V?$_Tmap_traits@KU_WORLDDATA@CQuizDBCtrl@@U?$less@K@std@@V?$allocator@U?$pair@$$CBKU_WORLDDATA@CQuizDBCtrl@@@std@@@4@$0A@@std@@@std@@PAU123@@std@@YAXPAPAU_Node@?$_Tree_nod@V?$_Tmap_traits@KU_WORLDDATA@CQuizDBCtrl@@U?$less@K@std@@V?$allocator@U?$pair@$$CBKU_WORLDDATA@CQuizDBCtrl@@@std@@@4@$0A@@std@@@0@ABQAU120@@Z
_TEXT	SEGMENT PARA USE32 PUBLIC 'CODE'
_TEXT	ENDS
;	COMDAT ??0bad_weak_ptr@boost@@QAE@ABV01@@Z
_TEXT	SEGMENT PARA USE32 PUBLIC 'CODE'
_TEXT	ENDS
;	COMDAT ??4_QUIZLIST@CQuiz@@QAEAAU01@ABU01@@Z
_TEXT	SEGMENT PARA USE32 PUBLIC 'CODE'
_TEXT	ENDS
;	COMDAT ?destroy@?$allocator@UtagDROPITEM@@@std@@QAEXPAUtagDROPITEM@@@Z
_TEXT	SEGMENT PARA USE32 PUBLIC 'CODE'
_TEXT	ENDS
;	COMDAT ??$_Uninit_copy@JJ@std@@YAPAJPAJ00AAV?$allocator@J@0@U_Scalar_ptr_iterator_tag@0@@Z
_TEXT	SEGMENT PARA USE32 PUBLIC 'CODE'
_TEXT	ENDS
;	COMDAT ??$fill_n@PAJIJ@std@@YAXPAJIABJ@Z
_TEXT	SEGMENT PARA USE32 PUBLIC 'CODE'
_TEXT	ENDS
;	COMDAT ??$_Ptr_cat@PAU_QUIZLIST@CQuiz@@PAU12@@std@@YA?AU_Nonscalar_ptr_iterator_tag@0@AAPAU_QUIZLIST@CQuiz@@0@Z
_TEXT	SEGMENT PARA USE32 PUBLIC 'CODE'
_TEXT	ENDS
;	COMDAT ??$_Uninit_fill_n@PAU_QUIZLIST@CQuiz@@IU12@V?$allocator@U_QUIZLIST@CQuiz@@@std@@@std@@YAXPAU_QUIZLIST@CQuiz@@IABU12@AAV?$allocator@U_QUIZLIST@CQuiz@@@0@U_Nonscalar_ptr_iterator_tag@0@@Z
_TEXT	SEGMENT PARA USE32 PUBLIC 'CODE'
_TEXT	ENDS
;	COMDAT ??$_Destroy_range@MV?$allocator@M@std@@@std@@YAXPAM0AAV?$allocator@M@0@U_Scalar_ptr_iterator_tag@0@@Z
_TEXT	SEGMENT PARA USE32 PUBLIC 'CODE'
_TEXT	ENDS
;	COMDAT ??$_Destroy_range@HV?$allocator@H@std@@@std@@YAXPAH0AAV?$allocator@H@0@U_Scalar_ptr_iterator_tag@0@@Z
_TEXT	SEGMENT PARA USE32 PUBLIC 'CODE'
_TEXT	ENDS
;	COMDAT ??$_Destroy_range@U_QUIZLIST@CQuiz@@V?$allocator@U_QUIZLIST@CQuiz@@@std@@@std@@YAXPAU_QUIZLIST@CQuiz@@0AAV?$allocator@U_QUIZLIST@CQuiz@@@0@U_Nonscalar_ptr_iterator_tag@0@@Z
_TEXT	SEGMENT PARA USE32 PUBLIC 'CODE'
_TEXT	ENDS
;	COMDAT ??$_Uninitialized_copy@PAU_QUIZLIST@CQuiz@@PAU12@V?$allocator@U_QUIZLIST@CQuiz@@@std@@@std@@YAPAU_QUIZLIST@CQuiz@@PAU12@00AAV?$allocator@U_QUIZLIST@CQuiz@@@0@@Z
_TEXT	SEGMENT PARA USE32 PUBLIC 'CODE'
_TEXT	ENDS
;	COMDAT ??$_Copy_backward_opt@PAU_QUIZLIST@CQuiz@@PAU12@@std@@YAPAU_QUIZLIST@CQuiz@@PAU12@00U_Nonscalar_ptr_iterator_tag@0@@Z
_TEXT	SEGMENT PARA USE32 PUBLIC 'CODE'
_TEXT	ENDS
;	COMDAT ??$_Destroy@UtagDROPITEM@@@std@@YAXPAUtagDROPITEM@@@Z
_TEXT	SEGMENT PARA USE32 PUBLIC 'CODE'
_TEXT	ENDS
;	COMDAT ?construct@?$allocator@U_QUIZLIST@CQuiz@@@std@@QAEXPAU_QUIZLIST@CQuiz@@ABU34@@Z
_TEXT	SEGMENT PARA USE32 PUBLIC 'CODE'
_TEXT	ENDS
;	COMDAT ?destroy@?$allocator@U_QUIZLIST@CQuiz@@@std@@QAEXPAU_QUIZLIST@CQuiz@@@Z
_TEXT	SEGMENT PARA USE32 PUBLIC 'CODE'
_TEXT	ENDS
;	COMDAT ??$_Uninit_copy@PAU_QUIZLIST@CQuiz@@PAU12@V?$allocator@U_QUIZLIST@CQuiz@@@std@@@std@@YAPAU_QUIZLIST@CQuiz@@PAU12@00AAV?$allocator@U_QUIZLIST@CQuiz@@@0@U_Nonscalar_ptr_iterator_tag@0@@Z
_TEXT	SEGMENT PARA USE32 PUBLIC 'CODE'
_TEXT	ENDS
;	COMDAT ??$_Construct@U_QUIZLIST@CQuiz@@U12@@std@@YAXPAU_QUIZLIST@CQuiz@@ABU12@@Z
_TEXT	SEGMENT PARA USE32 PUBLIC 'CODE'
_TEXT	ENDS
;	COMDAT ??$_Destroy@U_QUIZLIST@CQuiz@@@std@@YAXPAU_QUIZLIST@CQuiz@@@Z
_TEXT	SEGMENT PARA USE32 PUBLIC 'CODE'
_TEXT	ENDS
;	COMDAT ??_G_QUIZLIST@CQuiz@@QAEPAXI@Z
_TEXT	SEGMENT PARA USE32 PUBLIC 'CODE'
_TEXT	ENDS
;	COMDAT ??4?$CStringT@DV?$StrTraitMFC@DV?$ChTraitsCRT@D@ATL@@@@@ATL@@QAEAAV01@ABV01@@Z
_TEXT	SEGMENT PARA USE32 PUBLIC 'CODE'
_TEXT	ENDS
;	COMDAT ??4?$CSimpleStringT@D$0A@@ATL@@QAEAAV01@ABV01@@Z
_TEXT	SEGMENT PARA USE32 PUBLIC 'CODE'
_TEXT	ENDS
;	COMDAT ?GetData@?$CSimpleStringT@D$0A@@ATL@@ABEPAUCStringData@2@XZ
_TEXT	SEGMENT PARA USE32 PUBLIC 'CODE'
_TEXT	ENDS
;	COMDAT ?IsLocked@CStringData@ATL@@QBE_NXZ
_TEXT	SEGMENT PARA USE32 PUBLIC 'CODE'
_TEXT	ENDS
;	COMDAT ?SetString@?$CSimpleStringT@D$0A@@ATL@@QAEXPBDH@Z
_TEXT	SEGMENT PARA USE32 PUBLIC 'CODE'
_TEXT	ENDS
;	COMDAT ?Empty@?$CSimpleStringT@D$0A@@ATL@@QAEXXZ
_TEXT	SEGMENT PARA USE32 PUBLIC 'CODE'
_TEXT	ENDS
;	COMDAT ?SetLength@?$CSimpleStringT@D$0A@@ATL@@AAEXH@Z
_TEXT	SEGMENT PARA USE32 PUBLIC 'CODE'
_TEXT	ENDS
;	COMDAT ?AtlThrow@ATL@@YGXJ@Z
_TEXT	SEGMENT PARA USE32 PUBLIC 'CODE'
_TEXT	ENDS
;	COMDAT ?CopyCharsOverlapped@?$CSimpleStringT@D$0A@@ATL@@SAXPADPBDH@Z
_TEXT	SEGMENT PARA USE32 PUBLIC 'CODE'
_TEXT	ENDS
;	COMDAT ?CopyChars@?$CSimpleStringT@D$0A@@ATL@@SAXPADPBDH@Z
_TEXT	SEGMENT PARA USE32 PUBLIC 'CODE'
_TEXT	ENDS
;	COMDAT ?CloneData@?$CSimpleStringT@D$0A@@ATL@@CAPAUCStringData@2@PAU32@@Z
_TEXT	SEGMENT PARA USE32 PUBLIC 'CODE'
_TEXT	ENDS
;	COMDAT ?AddRef@CStringData@ATL@@QAEXXZ
_TEXT	SEGMENT PARA USE32 PUBLIC 'CODE'
_TEXT	ENDS
;	COMDAT ?ThrowMemoryException@?$CSimpleStringT@D$0A@@ATL@@KAXXZ
_TEXT	SEGMENT PARA USE32 PUBLIC 'CODE'
_TEXT	ENDS
;	COMDAT ?data@CStringData@ATL@@QAEPAXXZ
_TEXT	SEGMENT PARA USE32 PUBLIC 'CODE'
_TEXT	ENDS
;	COMDAT ?Release@CStringData@ATL@@QAEXXZ
_TEXT	SEGMENT PARA USE32 PUBLIC 'CODE'
_TEXT	ENDS
;	COMDAT ?Attach@?$CSimpleStringT@D$0A@@ATL@@AAEXPAUCStringData@2@@Z
_TEXT	SEGMENT PARA USE32 PUBLIC 'CODE'
_TEXT	ENDS
;	COMDAT ?_Ptr_cat@std@@YA?AU_Scalar_ptr_iterator_tag@1@PAH0@Z
_TEXT	SEGMENT PARA USE32 PUBLIC 'CODE'
_TEXT	ENDS
;	COMDAT ?_Ptr_cat@std@@YA?AU_Scalar_ptr_iterator_tag@1@PAM0@Z
_TEXT	SEGMENT PARA USE32 PUBLIC 'CODE'
_TEXT	ENDS
;	COMDAT __CTA2?AVbad_weak_ptr@boost@@
xdata$x	SEGMENT DWORD USE32 PUBLIC 'CONST'
xdata$x	ENDS
;	COMDAT __CT??_R0?AVexception@@@8??0exception@@QAE@ABV0@@Z12
xdata$x	SEGMENT DWORD USE32 PUBLIC 'CONST'
xdata$x	ENDS
;	COMDAT ??_R0?AVexception@@@8
_DATA	SEGMENT DWORD USE32 PUBLIC 'DATA'
_DATA	ENDS
;	COMDAT __CT??_R0?AVbad_weak_ptr@boost@@@8??0bad_weak_ptr@boost@@QAE@ABV01@@Z12
xdata$x	SEGMENT DWORD USE32 PUBLIC 'CONST'
xdata$x	ENDS
;	COMDAT ??_R0?AVbad_weak_ptr@boost@@@8
_DATA	SEGMENT DWORD USE32 PUBLIC 'DATA'
_DATA	ENDS
;	COMDAT __TI2?AVbad_weak_ptr@boost@@
xdata$x	SEGMENT DWORD USE32 PUBLIC 'CONST'
xdata$x	ENDS
;	COMDAT ?_Ptr_cat@std@@YA?AU_Scalar_ptr_iterator_tag@1@PAJ0@Z
_TEXT	SEGMENT PARA USE32 PUBLIC 'CODE'
_TEXT	ENDS
;	COMDAT ??9const_iterator@?$_Tree@V?$_Tmap_traits@KU_Friend@@U?$less@K@std@@V?$allocator@U?$pair@$$CBKU_Friend@@@std@@@3@$0A@@std@@@std@@QBE_NABV012@@Z
_TEXT	SEGMENT PARA USE32 PUBLIC 'CODE'
_TEXT	ENDS
;	COMDAT ??8const_iterator@?$_Tree@V?$_Tmap_traits@KU_Friend@@U?$less@K@std@@V?$allocator@U?$pair@$$CBKU_Friend@@@std@@@3@$0A@@std@@@std@@QBE_NABV012@@Z
_TEXT	SEGMENT PARA USE32 PUBLIC 'CODE'
_TEXT	ENDS
;	COMDAT ??Eiterator@?$_Tree@V?$_Tmap_traits@KU_Friend@@U?$less@K@std@@V?$allocator@U?$pair@$$CBKU_Friend@@@std@@@3@$0A@@std@@@std@@QAEAAV012@XZ
_TEXT	SEGMENT PARA USE32 PUBLIC 'CODE'
_TEXT	ENDS
;	COMDAT ??Econst_iterator@?$_Tree@V?$_Tmap_traits@KU_Friend@@U?$less@K@std@@V?$allocator@U?$pair@$$CBKU_Friend@@@std@@@3@$0A@@std@@@std@@QAEAAV012@XZ
_TEXT	SEGMENT PARA USE32 PUBLIC 'CODE'
_TEXT	ENDS
;	COMDAT ?_Inc@const_iterator@?$_Tree@V?$_Tmap_traits@KU_Friend@@U?$less@K@std@@V?$allocator@U?$pair@$$CBKU_Friend@@@std@@@3@$0A@@std@@@std@@QAEXXZ
_TEXT	SEGMENT PARA USE32 PUBLIC 'CODE'
_TEXT	ENDS
;	COMDAT ?_Min@?$_Tree@V?$_Tmap_traits@KU_Friend@@U?$less@K@std@@V?$allocator@U?$pair@$$CBKU_Friend@@@std@@@3@$0A@@std@@@std@@KAPAU_Node@?$_Tree_nod@V?$_Tmap_traits@KU_Friend@@U?$less@K@std@@V?$allocator@U?$pair@$$CBKU_Friend@@@std@@@3@$0A@@std@@@2@PAU342@@Z
_TEXT	SEGMENT PARA USE32 PUBLIC 'CODE'
_TEXT	ENDS
;	COMDAT ?_Left@?$_Tree@V?$_Tmap_traits@KU_Friend@@U?$less@K@std@@V?$allocator@U?$pair@$$CBKU_Friend@@@std@@@3@$0A@@std@@@std@@KAAAPAU_Node@?$_Tree_nod@V?$_Tmap_traits@KU_Friend@@U?$less@K@std@@V?$allocator@U?$pair@$$CBKU_Friend@@@std@@@3@$0A@@std@@@2@PAU342@@Z
_TEXT	SEGMENT PARA USE32 PUBLIC 'CODE'
_TEXT	ENDS
;	COMDAT ?_Isnil@?$_Tree@V?$_Tmap_traits@KU_Friend@@U?$less@K@std@@V?$allocator@U?$pair@$$CBKU_Friend@@@std@@@3@$0A@@std@@@std@@KAAADPAU_Node@?$_Tree_nod@V?$_Tmap_traits@KU_Friend@@U?$less@K@std@@V?$allocator@U?$pair@$$CBKU_Friend@@@std@@@3@$0A@@std@@@2@@Z
_TEXT	SEGMENT PARA USE32 PUBLIC 'CODE'
_TEXT	ENDS
;	COMDAT ?_Parent@?$_Tree@V?$_Tmap_traits@KU_Friend@@U?$less@K@std@@V?$allocator@U?$pair@$$CBKU_Friend@@@std@@@3@$0A@@std@@@std@@KAAAPAU_Node@?$_Tree_nod@V?$_Tmap_traits@KU_Friend@@U?$less@K@std@@V?$allocator@U?$pair@$$CBKU_Friend@@@std@@@3@$0A@@std@@@2@PAU342@@Z
_TEXT	SEGMENT PARA USE32 PUBLIC 'CODE'
_TEXT	ENDS
;	COMDAT ?_Right@?$_Tree@V?$_Tmap_traits@KU_Friend@@U?$less@K@std@@V?$allocator@U?$pair@$$CBKU_Friend@@@std@@@3@$0A@@std@@@std@@KAAAPAU_Node@?$_Tree_nod@V?$_Tmap_traits@KU_Friend@@U?$less@K@std@@V?$allocator@U?$pair@$$CBKU_Friend@@@std@@@3@$0A@@std@@@2@PAU342@@Z
_TEXT	SEGMENT PARA USE32 PUBLIC 'CODE'
_TEXT	ENDS
;	COMDAT ?_Psave@?$_Facetptr@V?$ctype@G@std@@@std@@2PBVfacet@locale@2@B
_DATA	SEGMENT DWORD USE32 PUBLIC 'DATA'
_DATA	ENDS
;	COMDAT ?_Psave@?$_Facetptr@V?$ctype@D@std@@@std@@2PBVfacet@locale@2@B
_DATA	SEGMENT DWORD USE32 PUBLIC 'DATA'
_DATA	ENDS
;	COMDAT ??0?$CStringT@DV?$StrTraitMFC@DV?$ChTraitsCRT@D@ATL@@@@@ATL@@QAE@ABV01@@Z
_TEXT	SEGMENT PARA USE32 PUBLIC 'CODE'
_TEXT	ENDS
;	COMDAT ??0?$CSimpleStringT@D$0A@@ATL@@QAE@ABV01@@Z
_TEXT	SEGMENT PARA USE32 PUBLIC 'CODE'
_TEXT	ENDS
;	COMDAT ??1?$CSimpleStringT@D$0A@@ATL@@QAE@XZ
_TEXT	SEGMENT PARA USE32 PUBLIC 'CODE'
_TEXT	ENDS
;	COMDAT ??_C@_0BD@OLBABOEK@vector?$DMT?$DO?5too?5long?$AA@
CONST	SEGMENT DWORD USE32 PUBLIC 'CONST'
CONST	ENDS
;	COMDAT ??3@YAXPAX0@Z
_TEXT	SEGMENT PARA USE32 PUBLIC 'CODE'
_TEXT	ENDS
;	COMDAT ??2@YAPAXIPAX@Z
_TEXT	SEGMENT PARA USE32 PUBLIC 'CODE'
_TEXT	ENDS
;	COMDAT __TI3?AVlength_error@std@@
xdata$x	SEGMENT DWORD USE32 PUBLIC 'CONST'
xdata$x	ENDS
;	COMDAT ??1length_error@std@@UAE@XZ
_TEXT	SEGMENT PARA USE32 PUBLIC 'CODE'
_TEXT	ENDS
;	COMDAT ??_7length_error@std@@6B@
CONST	SEGMENT DWORD USE32 PUBLIC 'CONST'
CONST	ENDS
;	COMDAT ??_Glength_error@std@@UAEPAXI@Z
_TEXT	SEGMENT PARA USE32 PUBLIC 'CODE'
_TEXT	ENDS
;	COMDAT ?what@logic_error@std@@UBEPBDXZ
_TEXT	SEGMENT PARA USE32 PUBLIC 'CODE'
_TEXT	ENDS
;	COMDAT ?c_str@?$basic_string@DU?$char_traits@D@std@@V?$allocator@D@2@@std@@QBEPBDXZ
_TEXT	SEGMENT PARA USE32 PUBLIC 'CODE'
_TEXT	ENDS
;	COMDAT ??1logic_error@std@@UAE@XZ
_TEXT	SEGMENT PARA USE32 PUBLIC 'CODE'
_TEXT	ENDS
;	COMDAT ??_7logic_error@std@@6B@
CONST	SEGMENT DWORD USE32 PUBLIC 'CONST'
CONST	ENDS
;	COMDAT ??_Glogic_error@std@@UAEPAXI@Z
_TEXT	SEGMENT PARA USE32 PUBLIC 'CODE'
_TEXT	ENDS
;	COMDAT __CTA3?AVlength_error@std@@
xdata$x	SEGMENT DWORD USE32 PUBLIC 'CONST'
xdata$x	ENDS
;	COMDAT __CT??_R0?AVlength_error@std@@@8??0length_error@std@@QAE@ABV01@@Z40
xdata$x	SEGMENT DWORD USE32 PUBLIC 'CONST'
xdata$x	ENDS
;	COMDAT ??_R0?AVlength_error@std@@@8
_DATA	SEGMENT DWORD USE32 PUBLIC 'DATA'
_DATA	ENDS
;	COMDAT ??0length_error@std@@QAE@ABV01@@Z
_TEXT	SEGMENT PARA USE32 PUBLIC 'CODE'
_TEXT	ENDS
;	COMDAT ??0logic_error@std@@QAE@ABV01@@Z
_TEXT	SEGMENT PARA USE32 PUBLIC 'CODE'
_TEXT	ENDS
;	COMDAT ??0?$basic_string@DU?$char_traits@D@std@@V?$allocator@D@2@@std@@QAE@ABV01@@Z
_TEXT	SEGMENT PARA USE32 PUBLIC 'CODE'
_TEXT	ENDS
;	COMDAT ??0?$_String_val@DV?$allocator@D@std@@@std@@IAE@V?$allocator@D@1@@Z
_TEXT	SEGMENT PARA USE32 PUBLIC 'CODE'
_TEXT	ENDS
;	COMDAT ??0?$allocator@D@std@@QAE@ABV01@@Z
_TEXT	SEGMENT PARA USE32 PUBLIC 'CODE'
_TEXT	ENDS
;	COMDAT ?_Tidy@?$basic_string@DU?$char_traits@D@std@@V?$allocator@D@2@@std@@IAEX_NI@Z
_TEXT	SEGMENT PARA USE32 PUBLIC 'CODE'
_TEXT	ENDS
;	COMDAT ?copy@?$char_traits@D@std@@SAPADPADPBDI@Z
_TEXT	SEGMENT PARA USE32 PUBLIC 'CODE'
_TEXT	ENDS
;	COMDAT ?deallocate@?$allocator@D@std@@QAEXPADI@Z
_TEXT	SEGMENT PARA USE32 PUBLIC 'CODE'
_TEXT	ENDS
;	COMDAT ?_Eos@?$basic_string@DU?$char_traits@D@std@@V?$allocator@D@2@@std@@IAEXI@Z
_TEXT	SEGMENT PARA USE32 PUBLIC 'CODE'
_TEXT	ENDS
;	COMDAT ?assign@?$char_traits@D@std@@SAXAADABD@Z
_TEXT	SEGMENT PARA USE32 PUBLIC 'CODE'
_TEXT	ENDS
;	COMDAT ?_Myptr@?$basic_string@DU?$char_traits@D@std@@V?$allocator@D@2@@std@@QAEPADXZ
_TEXT	SEGMENT PARA USE32 PUBLIC 'CODE'
_TEXT	ENDS
;	COMDAT ?assign@?$basic_string@DU?$char_traits@D@std@@V?$allocator@D@2@@std@@QAEAAV12@ABV12@II@Z
_TEXT	SEGMENT PARA USE32 PUBLIC 'CODE'
_TEXT	ENDS
;	COMDAT ?erase@?$basic_string@DU?$char_traits@D@std@@V?$allocator@D@2@@std@@QAEAAV12@II@Z
_TEXT	SEGMENT PARA USE32 PUBLIC 'CODE'
_TEXT	ENDS
;	COMDAT ?move@?$char_traits@D@std@@SAPADPADPBDI@Z
_TEXT	SEGMENT PARA USE32 PUBLIC 'CODE'
_TEXT	ENDS
;	COMDAT ?_Grow@?$basic_string@DU?$char_traits@D@std@@V?$allocator@D@2@@std@@IAE_NI_N@Z
_TEXT	SEGMENT PARA USE32 PUBLIC 'CODE'
_TEXT	ENDS
;	COMDAT ?max_size@?$basic_string@DU?$char_traits@D@std@@V?$allocator@D@2@@std@@QBEIXZ
_TEXT	SEGMENT PARA USE32 PUBLIC 'CODE'
_TEXT	ENDS
;	COMDAT ?max_size@?$allocator@D@std@@QBEIXZ
_TEXT	SEGMENT PARA USE32 PUBLIC 'CODE'
_TEXT	ENDS
;	COMDAT ?_Copy@?$basic_string@DU?$char_traits@D@std@@V?$allocator@D@2@@std@@IAEXII@Z
_TEXT	SEGMENT PARA USE32 PUBLIC 'CODE'
_TEXT	ENDS
;	COMDAT ?allocate@?$allocator@D@std@@QAEPADI@Z
_TEXT	SEGMENT PARA USE32 PUBLIC 'CODE'
_TEXT	ENDS
;	COMDAT ??$_Allocate@D@std@@YAPADIPAD@Z
_TEXT	SEGMENT PARA USE32 PUBLIC 'CODE'
_TEXT	ENDS
;	COMDAT ?npos@?$basic_string@DU?$char_traits@D@std@@V?$allocator@D@2@@std@@2IB
CONST	SEGMENT DWORD USE32 PUBLIC 'CONST'
CONST	ENDS
;	COMDAT __CT??_R0?AVlogic_error@std@@@8??0logic_error@std@@QAE@ABV01@@Z40
xdata$x	SEGMENT DWORD USE32 PUBLIC 'CONST'
xdata$x	ENDS
;	COMDAT ??_R0?AVlogic_error@std@@@8
_DATA	SEGMENT DWORD USE32 PUBLIC 'DATA'
_DATA	ENDS
;	COMDAT ??_C@_0BE@JONHPENG@map?1set?$DMT?$DO?5too?5long?$AA@
CONST	SEGMENT DWORD USE32 PUBLIC 'CONST'
CONST	ENDS
;	COMDAT ??0length_error@std@@QAE@ABV?$basic_string@DU?$char_traits@D@std@@V?$allocator@D@2@@1@@Z
_TEXT	SEGMENT PARA USE32 PUBLIC 'CODE'
_TEXT	ENDS
;	COMDAT ??0logic_error@std@@QAE@ABV?$basic_string@DU?$char_traits@D@std@@V?$allocator@D@2@@1@@Z
_TEXT	SEGMENT PARA USE32 PUBLIC 'CODE'
_TEXT	ENDS
;	COMDAT ?compare@?$char_traits@D@std@@SAHPBD0I@Z
_TEXT	SEGMENT PARA USE32 PUBLIC 'CODE'
_TEXT	ENDS
;	COMDAT ??$swap@D@std@@YAXAAD0@Z
_TEXT	SEGMENT PARA USE32 PUBLIC 'CODE'
_TEXT	ENDS
;	COMDAT __TI3?AVout_of_range@std@@
xdata$x	SEGMENT DWORD USE32 PUBLIC 'CONST'
xdata$x	ENDS
;	COMDAT ??1out_of_range@std@@UAE@XZ
_TEXT	SEGMENT PARA USE32 PUBLIC 'CODE'
_TEXT	ENDS
;	COMDAT ??_7out_of_range@std@@6B@
CONST	SEGMENT DWORD USE32 PUBLIC 'CONST'
CONST	ENDS
;	COMDAT ??_Gout_of_range@std@@UAEPAXI@Z
_TEXT	SEGMENT PARA USE32 PUBLIC 'CODE'
_TEXT	ENDS
;	COMDAT __CTA3?AVout_of_range@std@@
xdata$x	SEGMENT DWORD USE32 PUBLIC 'CONST'
xdata$x	ENDS
;	COMDAT __CT??_R0?AVout_of_range@std@@@8??0out_of_range@std@@QAE@ABV01@@Z40
xdata$x	SEGMENT DWORD USE32 PUBLIC 'CONST'
xdata$x	ENDS
;	COMDAT ??_R0?AVout_of_range@std@@@8
_DATA	SEGMENT DWORD USE32 PUBLIC 'DATA'
_DATA	ENDS
;	COMDAT ??0out_of_range@std@@QAE@ABV01@@Z
_TEXT	SEGMENT PARA USE32 PUBLIC 'CODE'
_TEXT	ENDS
;	COMDAT ??1?$basic_string@DU?$char_traits@D@std@@V?$allocator@D@2@@std@@QAE@XZ
_TEXT	SEGMENT PARA USE32 PUBLIC 'CODE'
_TEXT	ENDS
;	COMDAT ??_C@_0BM@PAPJHAGI@invalid?5map?1set?$DMT?$DO?5iterator?$AA@
CONST	SEGMENT DWORD USE32 PUBLIC 'CONST'
CONST	ENDS
;	COMDAT ??0?$basic_string@DU?$char_traits@D@std@@V?$allocator@D@2@@std@@QAE@PBD@Z
_TEXT	SEGMENT PARA USE32 PUBLIC 'CODE'
_TEXT	ENDS
;	COMDAT ??0?$allocator@D@std@@QAE@XZ
_TEXT	SEGMENT PARA USE32 PUBLIC 'CODE'
_TEXT	ENDS
;	COMDAT ?assign@?$basic_string@DU?$char_traits@D@std@@V?$allocator@D@2@@std@@QAEAAV12@PBD@Z
_TEXT	SEGMENT PARA USE32 PUBLIC 'CODE'
_TEXT	ENDS
;	COMDAT ?assign@?$basic_string@DU?$char_traits@D@std@@V?$allocator@D@2@@std@@QAEAAV12@PBDI@Z
_TEXT	SEGMENT PARA USE32 PUBLIC 'CODE'
_TEXT	ENDS
;	COMDAT ?_Inside@?$basic_string@DU?$char_traits@D@std@@V?$allocator@D@2@@std@@IAE_NPBD@Z
_TEXT	SEGMENT PARA USE32 PUBLIC 'CODE'
_TEXT	ENDS
;	COMDAT ?length@?$char_traits@D@std@@SAIPBD@Z
_TEXT	SEGMENT PARA USE32 PUBLIC 'CODE'
_TEXT	ENDS
;	COMDAT ??0out_of_range@std@@QAE@ABV?$basic_string@DU?$char_traits@D@std@@V?$allocator@D@2@@1@@Z
_TEXT	SEGMENT PARA USE32 PUBLIC 'CODE'
_TEXT	ENDS
;	COMDAT ??R?$less@K@std@@QBE_NABK0@Z
_TEXT	SEGMENT PARA USE32 PUBLIC 'CODE'
_TEXT	ENDS
;	COMDAT ?_Myptr@?$basic_string@DU?$char_traits@D@std@@V?$allocator@D@2@@std@@QBEPBDXZ
_TEXT	SEGMENT PARA USE32 PUBLIC 'CODE'
_TEXT	ENDS
;	COMDAT ?size@?$basic_string@DU?$char_traits@D@std@@V?$allocator@D@2@@std@@QBEIXZ
_TEXT	SEGMENT PARA USE32 PUBLIC 'CODE'
_TEXT	ENDS
;	COMDAT ?ReleaseBufferSetLength@?$CSimpleStringT@D$0A@@ATL@@QAEXH@Z
_TEXT	SEGMENT PARA USE32 PUBLIC 'CODE'
_TEXT	ENDS
;	COMDAT ?GetBuffer@?$CSimpleStringT@D$0A@@ATL@@QAEPADH@Z
_TEXT	SEGMENT PARA USE32 PUBLIC 'CODE'
_TEXT	ENDS
;	COMDAT ?PrepareWrite@?$CSimpleStringT@D$0A@@ATL@@AAEPADH@Z
_TEXT	SEGMENT PARA USE32 PUBLIC 'CODE'
_TEXT	ENDS
;	COMDAT ?PrepareWrite2@?$CSimpleStringT@D$0A@@ATL@@AAEXH@Z
_TEXT	SEGMENT PARA USE32 PUBLIC 'CODE'
_TEXT	ENDS
;	COMDAT ?IsShared@CStringData@ATL@@QBE_NXZ
_TEXT	SEGMENT PARA USE32 PUBLIC 'CODE'
_TEXT	ENDS
;	COMDAT ?Fork@?$CSimpleStringT@D$0A@@ATL@@AAEXH@Z
_TEXT	SEGMENT PARA USE32 PUBLIC 'CODE'
_TEXT	ENDS
;	COMDAT ?Reallocate@?$CSimpleStringT@D$0A@@ATL@@AAEXH@Z
_TEXT	SEGMENT PARA USE32 PUBLIC 'CODE'
_TEXT	ENDS
;	COMDAT ?StringFindString@?$ChTraitsCRT@D@ATL@@SAPBDPBD0@Z
_TEXT	SEGMENT PARA USE32 PUBLIC 'CODE'
_TEXT	ENDS
;	COMDAT ?GetLength@?$CSimpleStringT@D$0A@@ATL@@QBEHXZ
_TEXT	SEGMENT PARA USE32 PUBLIC 'CODE'
_TEXT	ENDS
;	COMDAT ?GetString@?$CSimpleStringT@D$0A@@ATL@@QBEPBDXZ
_TEXT	SEGMENT PARA USE32 PUBLIC 'CODE'
_TEXT	ENDS
;	COMDAT ?sQuizDBMng@?1??GetInstance@CQuizDBMng@@SAPAV2@XZ@4V2@A
_BSS	SEGMENT DWORD USE32 PUBLIC 'BSS'
_BSS	ENDS
;	COMDAT ?$S1@?1??GetInstance@CQuizDBMng@@SAPAV2@XZ@4IA
_BSS	SEGMENT DWORD USE32 PUBLIC 'BSS'
_BSS	ENDS
;	COMDAT ?xRand@@YAKXZ
_TEXT	SEGMENT PARA USE32 PUBLIC 'CODE'
_TEXT	ENDS
;	COMDAT ?SetSerialNumber@CItemBase@@QAEXK@Z
_TEXT	SEGMENT PARA USE32 PUBLIC 'CODE'
_TEXT	ENDS
;	COMDAT ?GetText@CProject@@QAEPBDK@Z
_TEXT	SEGMENT PARA USE32 PUBLIC 'CODE'
_TEXT	ENDS
;	COMDAT ??_C@_00CNPNBAHC@?$AA@
CONST	SEGMENT DWORD USE32 PUBLIC 'CONST'
CONST	ENDS
;	COMDAT ?GetAt@?$CFixedArray@UtagColorText@@@@QAEPAUtagColorText@@K@Z
_TEXT	SEGMENT PARA USE32 PUBLIC 'CODE'
_TEXT	ENDS
;	COMDAT ??1?$CStringT@DV?$StrTraitMFC@DV?$ChTraitsCRT@D@ATL@@@@@ATL@@QAE@XZ
_TEXT	SEGMENT PARA USE32 PUBLIC 'CODE'
_TEXT	ENDS
;	COMDAT ??0?$CStringT@DV?$StrTraitMFC@DV?$ChTraitsCRT@D@ATL@@@@@ATL@@QAE@XZ
_TEXT	SEGMENT PARA USE32 PUBLIC 'CODE'
_TEXT	ENDS
;	COMDAT ??0?$CSimpleStringT@D$0A@@ATL@@QAE@PAUIAtlStringMgr@1@@Z
_TEXT	SEGMENT PARA USE32 PUBLIC 'CODE'
_TEXT	ENDS
;	COMDAT ?GetDefaultManager@?$StrTraitMFC@DV?$ChTraitsCRT@D@ATL@@@@SAPAUIAtlStringMgr@ATL@@XZ
_TEXT	SEGMENT PARA USE32 PUBLIC 'CODE'
_TEXT	ENDS
;	COMDAT ??_C@_09GBAEEKDE@?$CFs?0?5?$CFd?7?$CFs?$AA@
CONST	SEGMENT DWORD USE32 PUBLIC 'CONST'
CONST	ENDS
;	COMDAT ??_7CQuizDBCtrl@@6B@
CONST	SEGMENT DWORD USE32 PUBLIC 'CONST'
CONST	ENDS
;	COMDAT ??4?$CStringT@DV?$StrTraitMFC@DV?$ChTraitsCRT@D@ATL@@@@@ATL@@QAEAAV01@PBD@Z
_TEXT	SEGMENT PARA USE32 PUBLIC 'CODE'
_TEXT	ENDS
;	COMDAT ??4?$CSimpleStringT@D$0A@@ATL@@QAEAAV01@PBD@Z
_TEXT	SEGMENT PARA USE32 PUBLIC 'CODE'
_TEXT	ENDS
;	COMDAT ?SetString@?$CSimpleStringT@D$0A@@ATL@@QAEXPBD@Z
_TEXT	SEGMENT PARA USE32 PUBLIC 'CODE'
_TEXT	ENDS
;	COMDAT ?StringLength@?$CSimpleStringT@D$0A@@ATL@@SAHPBD@Z
_TEXT	SEGMENT PARA USE32 PUBLIC 'CODE'
_TEXT	ENDS
;	COMDAT ??B?$CSimpleStringT@D$0A@@ATL@@QBEPBDXZ
_TEXT	SEGMENT PARA USE32 PUBLIC 'CODE'
_TEXT	ENDS
;	COMDAT ??5@YAAAVCAr@@AAV0@AAUD3DXVECTOR3@@@Z
_TEXT	SEGMENT PARA USE32 PUBLIC 'CODE'
_TEXT	ENDS
;	COMDAT ??5CAr@@QAEAAV0@AAM@Z
_TEXT	SEGMENT PARA USE32 PUBLIC 'CODE'
_TEXT	ENDS
;	COMDAT ??5CAr@@QAEAAV0@AAK@Z
_TEXT	SEGMENT PARA USE32 PUBLIC 'CODE'
_TEXT	ENDS
;	COMDAT ??5CAr@@QAEAAV0@AAJ@Z
_TEXT	SEGMENT PARA USE32 PUBLIC 'CODE'
_TEXT	ENDS
;	COMDAT ?time_null@@YAJXZ
_TEXT	SEGMENT PARA USE32 PUBLIC 'CODE'
_TEXT	ENDS
;	COMDAT ??6CAr@@QAEAAV0@K@Z
_TEXT	SEGMENT PARA USE32 PUBLIC 'CODE'
_TEXT	ENDS
;	COMDAT ??6CAr@@QAEAAV0@J@Z
_TEXT	SEGMENT PARA USE32 PUBLIC 'CODE'
_TEXT	ENDS
;	COMDAT ??6@YAAAVCAr@@AAV0@UD3DXVECTOR3@@@Z
_TEXT	SEGMENT PARA USE32 PUBLIC 'CODE'
_TEXT	ENDS
;	COMDAT ??6CAr@@QAEAAV0@M@Z
_TEXT	SEGMENT PARA USE32 PUBLIC 'CODE'
_TEXT	ENDS
;	COMDAT ?IsStoring@CAr@@QBEHXZ
_TEXT	SEGMENT PARA USE32 PUBLIC 'CODE'
_TEXT	ENDS
;	COMDAT ?GetTime@CTime@ATL@@QBE_JXZ
_TEXT	SEGMENT PARA USE32 PUBLIC 'CODE'
_TEXT	ENDS
;	COMDAT ??0CTimeSpan@ATL@@QAE@JHHH@Z
_TEXT	SEGMENT PARA USE32 PUBLIC 'CODE'
_TEXT	ENDS
;	COMDAT ?GetTickCount@CTime@ATL@@SG?AV12@XZ
_TEXT	SEGMENT PARA USE32 PUBLIC 'CODE'
_TEXT	ENDS
;	COMDAT ??0CTime@ATL@@QAE@_J@Z
_TEXT	SEGMENT PARA USE32 PUBLIC 'CODE'
_TEXT	ENDS
;	COMDAT ??HCTime@ATL@@QBE?AV01@VCTimeSpan@1@@Z
_TEXT	SEGMENT PARA USE32 PUBLIC 'CODE'
_TEXT	ENDS
;	COMDAT ?GetTimeSpan@CTimeSpan@ATL@@QBE_JXZ
_TEXT	SEGMENT PARA USE32 PUBLIC 'CODE'
_TEXT	ENDS
;	COMDAT ?GetItemProp@CProject@@QAEPAUItemProp@@H@Z
_TEXT	SEGMENT PARA USE32 PUBLIC 'CODE'
_TEXT	ENDS
;	COMDAT ?GetAt@?$CFixedArray@UItemProp@@@@QAEPAUItemProp@@K@Z
_TEXT	SEGMENT PARA USE32 PUBLIC 'CODE'
_TEXT	ENDS
;	COMDAT ??0D3DXVECTOR3@@QAE@MMM@Z
_TEXT	SEGMENT PARA USE32 PUBLIC 'CODE'
_TEXT	ENDS
;	COMDAT ??5CAr@@QAEAAV0@AAH@Z
_TEXT	SEGMENT PARA USE32 PUBLIC 'CODE'
_TEXT	ENDS
;	COMDAT ??6CAr@@QAEAAV0@H@Z
_TEXT	SEGMENT PARA USE32 PUBLIC 'CODE'
_TEXT	ENDS
;	COMDAT ??_7CLordSkillComponentExecutable@@6B@
CONST	SEGMENT DWORD USE32 PUBLIC 'CONST'
CONST	ENDS
;	COMDAT ??_7bad_weak_ptr@boost@@6B@
CONST	SEGMENT DWORD USE32 PUBLIC 'CONST'
CONST	ENDS
;	COMDAT ??_7sp_counted_base@detail@boost@@6B@
CONST	SEGMENT DWORD USE32 PUBLIC 'CONST'
CONST	ENDS
sxdata	SEGMENT DWORD USE32 'SXDATA'
sxdata	ENDS
FLAT	GROUP _DATA, CONST, _BSS
	ASSUME	CS: FLAT, DS: FLAT, SS: FLAT
endif

INCLUDELIB LIBCMT
INCLUDELIB OLDNAMES

PUBLIC	?GetQueryObject@CDbController@@QAEPAVCQuery@@XZ	; CDbController::GetQueryObject
; Function compile flags: /Ogty
; File c:\documents and settings\test\mes documents\source\virtuos_v17\build\program\databaseserver\dbcontroller.h
;	COMDAT ?GetQueryObject@CDbController@@QAEPAVCQuery@@XZ
_TEXT	SEGMENT
?GetQueryObject@CDbController@@QAEPAVCQuery@@XZ PROC NEAR ; CDbController::GetQueryObject, COMDAT
; _this$ = ecx

; 20   : 	CQuery*	GetQueryObject( void )	{	return m_pQuery;	}

  00000	8b 41 0c	 mov	 eax, DWORD PTR [ecx+12]
  00003	c3		 ret	 0
?GetQueryObject@CDbController@@QAEPAVCQuery@@XZ ENDP	; CDbController::GetQueryObject
_TEXT	ENDS
PUBLIC	??0_WORLDDATA@CQuizDBCtrl@@QAE@XZ		; CQuizDBCtrl::_WORLDDATA::_WORLDDATA
; Function compile flags: /Ogty
; File c:\documents and settings\test\mes documents\source\virtuos_v17\build\program\databaseserver\quizdbctrl.h
;	COMDAT ??0_WORLDDATA@CQuizDBCtrl@@QAE@XZ
_TEXT	SEGMENT
??0_WORLDDATA@CQuizDBCtrl@@QAE@XZ PROC NEAR		; CQuizDBCtrl::_WORLDDATA::_WORLDDATA, COMDAT
; _this$ = ecx

; 51   : 		_WORLDDATA() : bQuizSend( FALSE ), nQuizEventId( 0 ), nChannel( 0 ), nState( 0 ), nCount( 0 ), dwQuizSendCycle( 0 ), dwNoticeCycle( 0 )	{}

  00000	8b c1		 mov	 eax, ecx
  00002	33 c9		 xor	 ecx, ecx
  00004	89 08		 mov	 DWORD PTR [eax], ecx
  00006	89 48 04	 mov	 DWORD PTR [eax+4], ecx
  00009	89 48 08	 mov	 DWORD PTR [eax+8], ecx
  0000c	89 48 0c	 mov	 DWORD PTR [eax+12], ecx
  0000f	89 48 10	 mov	 DWORD PTR [eax+16], ecx
  00012	89 48 14	 mov	 DWORD PTR [eax+20], ecx
  00015	89 48 18	 mov	 DWORD PTR [eax+24], ecx
  00018	c3		 ret	 0
??0_WORLDDATA@CQuizDBCtrl@@QAE@XZ ENDP			; CQuizDBCtrl::_WORLDDATA::_WORLDDATA
_TEXT	ENDS
PUBLIC	?InitQuizEventId@CQuizDBCtrl@@AAEXH@Z		; CQuizDBCtrl::InitQuizEventId
; Function compile flags: /Ogty
;	COMDAT ?InitQuizEventId@CQuizDBCtrl@@AAEXH@Z
_TEXT	SEGMENT
_nId$ = 8						; size = 4
?InitQuizEventId@CQuizDBCtrl@@AAEXH@Z PROC NEAR		; CQuizDBCtrl::InitQuizEventId, COMDAT
; _this$ = ecx

; 54   : 	void		InitQuizEventId( int nId )	{	m_nQuizEventId = nId;	}

  00000	8b 44 24 04	 mov	 eax, DWORD PTR _nId$[esp-4]
  00004	89 41 18	 mov	 DWORD PTR [ecx+24], eax
  00007	c2 04 00	 ret	 4
?InitQuizEventId@CQuizDBCtrl@@AAEXH@Z ENDP		; CQuizDBCtrl::InitQuizEventId
_TEXT	ENDS
PUBLIC	?SetQuizEventId@CQuizDBCtrl@@AAEHXZ		; CQuizDBCtrl::SetQuizEventId
; Function compile flags: /Ogty
;	COMDAT ?SetQuizEventId@CQuizDBCtrl@@AAEHXZ
_TEXT	SEGMENT
?SetQuizEventId@CQuizDBCtrl@@AAEHXZ PROC NEAR		; CQuizDBCtrl::SetQuizEventId, COMDAT
; _this$ = ecx

; 55   : 	int			SetQuizEventId()	{	return ++m_nQuizEventId;	}

  00000	8b 41 18	 mov	 eax, DWORD PTR [ecx+24]
  00003	40		 inc	 eax
  00004	89 41 18	 mov	 DWORD PTR [ecx+24], eax
  00007	c3		 ret	 0
?SetQuizEventId@CQuizDBCtrl@@AAEHXZ ENDP		; CQuizDBCtrl::SetQuizEventId
_TEXT	ENDS
PUBLIC	??2@YAPAXIPAX@Z					; operator new
; Function compile flags: /Ogty
; File c:\program files\microsoft visual studio .net 2003\vc7\include\new.h
;	COMDAT ??2@YAPAXIPAX@Z
_TEXT	SEGMENT
___formal$ = 8						; size = 4
__P$ = 12						; size = 4
??2@YAPAXIPAX@Z PROC NEAR				; operator new, COMDAT

; 109  :         {return (_P); }

  00000	8b 44 24 08	 mov	 eax, DWORD PTR __P$[esp-4]
  00004	c3		 ret	 0
??2@YAPAXIPAX@Z ENDP					; operator new
_TEXT	ENDS
PUBLIC	??3@YAXPAX0@Z					; operator delete
; Function compile flags: /Ogty
;	COMDAT ??3@YAXPAX0@Z
_TEXT	SEGMENT
___formal$ = 8						; size = 4
___formal$ = 12						; size = 4
??3@YAXPAX0@Z PROC NEAR					; operator delete, COMDAT

; 112  :         {return; }

  00000	c3		 ret	 0
??3@YAXPAX0@Z ENDP					; operator delete
_TEXT	ENDS
PUBLIC	?GetType@CQuiz@@QAEHXZ				; CQuiz::GetType
; Function compile flags: /Ogty
; File c:\documents and settings\test\mes documents\source\virtuos_v17\build\program\_common\quiz.h
;	COMDAT ?GetType@CQuiz@@QAEHXZ
_TEXT	SEGMENT
?GetType@CQuiz@@QAEHXZ PROC NEAR			; CQuiz::GetType, COMDAT
; _this$ = ecx

; 35   : 	int		GetType()	{	return m_nType;	}

  00000	8b 01		 mov	 eax, DWORD PTR [ecx]
  00002	c3		 ret	 0
?GetType@CQuiz@@QAEHXZ ENDP				; CQuiz::GetType
_TEXT	ENDS
PUBLIC	?AtlThrow@ATL@@YGXJ@Z				; ATL::AtlThrow
EXTRN	?AfxThrowMemoryException@@YGXXZ:NEAR		; AfxThrowMemoryException
EXTRN	?AfxThrowOleException@@YGXJ@Z:NEAR		; AfxThrowOleException
; Function compile flags: /Ogty
; File c:\program files\microsoft visual studio .net 2003\vc7\atlmfc\include\atlexcept.h
;	COMDAT ?AtlThrow@ATL@@YGXJ@Z
_TEXT	SEGMENT
_hr$ = 8						; size = 4
?AtlThrow@ATL@@YGXJ@Z PROC NEAR				; ATL::AtlThrow, COMDAT

; 62   : 	ATLTRACE(atlTraceException, 0, _T("AtlThrow: hr = 0x%x\n"), hr );
; 63   : #ifdef _AFX
; 64   : 	if( hr == E_OUTOFMEMORY )

  00000	8b 44 24 04	 mov	 eax, DWORD PTR _hr$[esp-4]
  00004	3d 0e 00 07 80	 cmp	 eax, -2147024882	; 8007000eH
  00009	75 05		 jne	 SHORT $L39166

; 65   : 	{
; 66   : 		AfxThrowMemoryException();

  0000b	e8 00 00 00 00	 call	 ?AfxThrowMemoryException@@YGXXZ ; AfxThrowMemoryException
$L39166:

; 67   : 	}
; 68   : 	else
; 69   : 	{
; 70   : 		AfxThrowOleException( hr );

  00010	50		 push	 eax
  00011	e8 00 00 00 00	 call	 ?AfxThrowOleException@@YGXJ@Z ; AfxThrowOleException
$L206005:
  00016	cc		 int	 3
?AtlThrow@ATL@@YGXJ@Z ENDP				; ATL::AtlThrow
_TEXT	ENDS
PUBLIC	?IsAutoMode@CQuiz@@QAEHXZ			; CQuiz::IsAutoMode
; Function compile flags: /Ogty
; File c:\documents and settings\test\mes documents\source\virtuos_v17\build\program\_common\quiz.h
;	COMDAT ?IsAutoMode@CQuiz@@QAEHXZ
_TEXT	SEGMENT
?IsAutoMode@CQuiz@@QAEHXZ PROC NEAR			; CQuiz::IsAutoMode, COMDAT
; _this$ = ecx

; 76   : 	BOOL	IsAutoMode()	{	return m_bAuto;		}

  00000	8b 41 04	 mov	 eax, DWORD PTR [ecx+4]
  00003	c3		 ret	 0
?IsAutoMode@CQuiz@@QAEHXZ ENDP				; CQuiz::IsAutoMode
_TEXT	ENDS
PUBLIC	?SetRun@CQuiz@@QAEXH@Z				; CQuiz::SetRun
; Function compile flags: /Ogty
;	COMDAT ?SetRun@CQuiz@@QAEXH@Z
_TEXT	SEGMENT
_bRun$ = 8						; size = 4
?SetRun@CQuiz@@QAEXH@Z PROC NEAR			; CQuiz::SetRun, COMDAT
; _this$ = ecx

; 77   : 	void	SetRun( BOOL bRun )		{	m_bRun = bRun;	}

  00000	8b 44 24 04	 mov	 eax, DWORD PTR _bRun$[esp-4]
  00004	89 41 08	 mov	 DWORD PTR [ecx+8], eax
  00007	c2 04 00	 ret	 4
?SetRun@CQuiz@@QAEXH@Z ENDP				; CQuiz::SetRun
_TEXT	ENDS
PUBLIC	?IsRun@CQuiz@@QAEHXZ				; CQuiz::IsRun
; Function compile flags: /Ogty
;	COMDAT ?IsRun@CQuiz@@QAEHXZ
_TEXT	SEGMENT
?IsRun@CQuiz@@QAEHXZ PROC NEAR				; CQuiz::IsRun, COMDAT
; _this$ = ecx

; 78   : 	BOOL	IsRun()		{	return m_bRun;	}

  00000	8b 41 08	 mov	 eax, DWORD PTR [ecx+8]
  00003	c3		 ret	 0
?IsRun@CQuiz@@QAEHXZ ENDP				; CQuiz::IsRun
_TEXT	ENDS
PUBLIC	?GetEntranceTime@CQuiz@@QAEKXZ			; CQuiz::GetEntranceTime
; Function compile flags: /Ogty
;	COMDAT ?GetEntranceTime@CQuiz@@QAEKXZ
_TEXT	SEGMENT
?GetEntranceTime@CQuiz@@QAEKXZ PROC NEAR		; CQuiz::GetEntranceTime, COMDAT
; _this$ = ecx

; 79   : 	DWORD	GetEntranceTime()	{	return m_dwEntranceTime;	}

  00000	8b 41 0c	 mov	 eax, DWORD PTR [ecx+12]
  00003	c3		 ret	 0
?GetEntranceTime@CQuiz@@QAEKXZ ENDP			; CQuiz::GetEntranceTime
_TEXT	ENDS
PUBLIC	??_GCQuery@@QAEPAXI@Z				; CQuery::`scalar deleting destructor'
EXTRN	??3@YAXPAX@Z:NEAR				; operator delete
EXTRN	??1CQuery@@QAE@XZ:NEAR				; CQuery::~CQuery
; Function compile flags: /Ogty
;	COMDAT ??_GCQuery@@QAEPAXI@Z
_TEXT	SEGMENT
___flags$ = 8						; size = 4
??_GCQuery@@QAEPAXI@Z PROC NEAR				; CQuery::`scalar deleting destructor', COMDAT
; _this$ = ecx
  00000	56		 push	 esi
  00001	8b f1		 mov	 esi, ecx
  00003	e8 00 00 00 00	 call	 ??1CQuery@@QAE@XZ	; CQuery::~CQuery
  00008	f6 44 24 08 01	 test	 BYTE PTR ___flags$[esp], 1
  0000d	74 09		 je	 SHORT $L206016
  0000f	56		 push	 esi
  00010	e8 00 00 00 00	 call	 ??3@YAXPAX@Z		; operator delete
  00015	83 c4 04	 add	 esp, 4
$L206016:
  00018	8b c6		 mov	 eax, esi
  0001a	5e		 pop	 esi
  0001b	c2 04 00	 ret	 4
??_GCQuery@@QAEPAXI@Z ENDP				; CQuery::`scalar deleting destructor'
_TEXT	ENDS
PUBLIC	??_C@_0BB@DDOPEPAG@?4?2QuizDBCtrl?4cpp?$AA@	; `string'
PUBLIC	??_C@_0CI@FLDMMNNC@usp_QuizID_Select?5?$EAserverindex?5?$DN@ ; `string'
PUBLIC	??_C@_06MHCADHHK@QuizID?$AA@			; `string'
PUBLIC	??_C@_09GBAEEKDE@?$CFs?0?5?$CFd?7?$CFs?$AA@	; `string'
PUBLIC	?LoadQuizEventId@CQuizDBCtrl@@QAEHXZ		; CQuizDBCtrl::LoadQuizEventId
EXTRN	?g_appInfo@@3UAppInfo@@A:QWORD			; g_appInfo
EXTRN	?Exec@CQuery@@QAEHPBD@Z:NEAR			; CQuery::Exec
EXTRN	?Fetch@CQuery@@QAEHXZ:NEAR			; CQuery::Fetch
EXTRN	__chkstk:NEAR
EXTRN	___security_cookie:DWORD
EXTRN	?WriteLog@@YAXPBDZZ:NEAR			; WriteLog
EXTRN	@__security_check_cookie@4:NEAR
EXTRN	?GetInt@CQuery@@QAEHPAD@Z:NEAR			; CQuery::GetInt
EXTRN	_sprintf:NEAR
;	COMDAT ??_C@_0CI@FLDMMNNC@usp_QuizID_Select?5?$EAserverindex?5?$DN@
; File c:\documents and settings\test\mes documents\source\virtuos_v17\build\program\databaseserver\quizdbctrl.h
CONST	SEGMENT
??_C@_0CI@FLDMMNNC@usp_QuizID_Select?5?$EAserverindex?5?$DN@ DB 'usp_Quiz'
	DB	'ID_Select @serverindex = ''%02d''', 00H	; `string'
CONST	ENDS
;	COMDAT ??_C@_0BB@DDOPEPAG@?4?2QuizDBCtrl?4cpp?$AA@
CONST	SEGMENT
??_C@_0BB@DDOPEPAG@?4?2QuizDBCtrl?4cpp?$AA@ DB '.\QuizDBCtrl.cpp', 00H ; `string'
CONST	ENDS
;	COMDAT ??_C@_09GBAEEKDE@?$CFs?0?5?$CFd?7?$CFs?$AA@
CONST	SEGMENT
??_C@_09GBAEEKDE@?$CFs?0?5?$CFd?7?$CFs?$AA@ DB '%s, %d', 09H, '%s', 00H ; `string'
CONST	ENDS
;	COMDAT ??_C@_06MHCADHHK@QuizID?$AA@
CONST	SEGMENT
??_C@_06MHCADHHK@QuizID?$AA@ DB 'QuizID', 00H		; `string'
; Function compile flags: /Ogty
; File c:\documents and settings\test\mes documents\source\virtuos_v17\build\program\databaseserver\quizdbctrl.cpp
CONST	ENDS
;	COMDAT ?LoadQuizEventId@CQuizDBCtrl@@QAEHXZ
_TEXT	SEGMENT
_szQuery$ = -40968					; size = 40960
__$ArrayPad$ = -4					; size = 4
__$ReturnAddr$ = 4					; size = 4
?LoadQuizEventId@CQuizDBCtrl@@QAEHXZ PROC NEAR		; CQuizDBCtrl::LoadQuizEventId, COMDAT
; _this$ = ecx

; 194  : {

  00000	55		 push	 ebp
  00001	8b ec		 mov	 ebp, esp
  00003	83 e4 f8	 and	 esp, -8			; fffffff8H
  00006	b8 08 a0 00 00	 mov	 eax, 40968		; 0000a008H
  0000b	e8 00 00 00 00	 call	 __chkstk
  00010	a1 00 00 00 00	 mov	 eax, DWORD PTR ___security_cookie
  00015	33 c5		 xor	 eax, ebp
  00017	56		 push	 esi
  00018	57		 push	 edi
  00019	89 84 24 0c a0
	00 00		 mov	 DWORD PTR __$ArrayPad$[esp+40976], eax
  00020	8b f1		 mov	 esi, ecx

; 195  : 	char szQuery[QUERY_SIZE] = {0, };

  00022	33 c0		 xor	 eax, eax
  00024	c6 44 24 08 00	 mov	 BYTE PTR _szQuery$[esp+40976], 0
  00029	b9 ff 27 00 00	 mov	 ecx, 10239		; 000027ffH
  0002e	8d 7c 24 09	 lea	 edi, DWORD PTR _szQuery$[esp+40977]
  00032	f3 ab		 rep stosd
  00034	66 ab		 stosw
  00036	aa		 stosb

; 196  : 	sprintf( szQuery, "usp_QuizID_Select @serverindex = '%02d'", g_appInfo.dwSys );

  00037	a1 00 00 00 00	 mov	 eax, DWORD PTR ?g_appInfo@@3UAppInfo@@A
  0003c	50		 push	 eax
  0003d	8d 4c 24 0c	 lea	 ecx, DWORD PTR _szQuery$[esp+40980]
  00041	68 00 00 00 00	 push	 OFFSET FLAT:??_C@_0CI@FLDMMNNC@usp_QuizID_Select?5?$EAserverindex?5?$DN@
  00046	51		 push	 ecx
  00047	e8 00 00 00 00	 call	 _sprintf

; 197  : 	if( m_pQuery->Exec( szQuery ) == FALSE )

  0004c	8b 4e 14	 mov	 ecx, DWORD PTR [esi+20]
  0004f	83 c4 0c	 add	 esp, 12			; 0000000cH
  00052	8d 54 24 08	 lea	 edx, DWORD PTR _szQuery$[esp+40976]
  00056	52		 push	 edx
  00057	e8 00 00 00 00	 call	 ?Exec@CQuery@@QAEHPBD@Z	; CQuery::Exec
  0005c	85 c0		 test	 eax, eax
  0005e	75 32		 jne	 SHORT $L204081

; 198  : 	{ WriteLog( "%s, %d\t%s", __FILE__, __LINE__, szQuery ); return FALSE; }

  00060	8d 44 24 08	 lea	 eax, DWORD PTR _szQuery$[esp+40976]
  00064	50		 push	 eax
  00065	68 c6 00 00 00	 push	 198			; 000000c6H
  0006a	68 00 00 00 00	 push	 OFFSET FLAT:??_C@_0BB@DDOPEPAG@?4?2QuizDBCtrl?4cpp?$AA@
  0006f	68 00 00 00 00	 push	 OFFSET FLAT:??_C@_09GBAEEKDE@?$CFs?0?5?$CFd?7?$CFs?$AA@
  00074	e8 00 00 00 00	 call	 ?WriteLog@@YAXPBDZZ	; WriteLog
  00079	83 c4 10	 add	 esp, 16			; 00000010H
$L204082:

; 202  : 		return TRUE;
; 203  : 	}
; 204  : 	return FALSE;

  0007c	33 c0		 xor	 eax, eax

; 205  : }

  0007e	5f		 pop	 edi
  0007f	5e		 pop	 esi
  00080	8b 8c 24 04 a0
	00 00		 mov	 ecx, DWORD PTR __$ArrayPad$[esp+40968]
  00087	33 cd		 xor	 ecx, ebp
  00089	e8 00 00 00 00	 call	 @__security_check_cookie@4
  0008e	8b e5		 mov	 esp, ebp
  00090	5d		 pop	 ebp
  00091	c3		 ret	 0
$L204081:

; 199  : 	if( m_pQuery->Fetch() )

  00092	8b 4e 14	 mov	 ecx, DWORD PTR [esi+20]
  00095	e8 00 00 00 00	 call	 ?Fetch@CQuery@@QAEHXZ	; CQuery::Fetch
  0009a	85 c0		 test	 eax, eax
  0009c	74 de		 je	 SHORT $L204082

; 200  : 	{
; 201  : 		InitQuizEventId( m_pQuery->GetInt( "QuizID" ) );

  0009e	8b 4e 14	 mov	 ecx, DWORD PTR [esi+20]
  000a1	68 00 00 00 00	 push	 OFFSET FLAT:??_C@_06MHCADHHK@QuizID?$AA@
  000a6	e8 00 00 00 00	 call	 ?GetInt@CQuery@@QAEHPAD@Z ; CQuery::GetInt

; 205  : }

  000ab	8b 8c 24 0c a0
	00 00		 mov	 ecx, DWORD PTR __$ArrayPad$[esp+40976]
  000b2	89 46 18	 mov	 DWORD PTR [esi+24], eax
  000b5	5f		 pop	 edi
  000b6	33 cd		 xor	 ecx, ebp
  000b8	b8 01 00 00 00	 mov	 eax, 1
  000bd	5e		 pop	 esi
  000be	e8 00 00 00 00	 call	 @__security_check_cookie@4
  000c3	8b e5		 mov	 esp, ebp
  000c5	5d		 pop	 ebp
  000c6	c3		 ret	 0
?LoadQuizEventId@CQuizDBCtrl@@QAEHXZ ENDP		; CQuizDBCtrl::LoadQuizEventId
_TEXT	ENDS
PUBLIC	?data@CStringData@ATL@@QAEPAXXZ			; ATL::CStringData::data
; Function compile flags: /Ogty
; File c:\program files\microsoft visual studio .net 2003\vc7\atlmfc\include\atlsimpstr.h
;	COMDAT ?data@CStringData@ATL@@QAEPAXXZ
_TEXT	SEGMENT
?data@CStringData@ATL@@QAEPAXXZ PROC NEAR		; ATL::CStringData::data, COMDAT
; _this$ = ecx

; 66   : 		return (this+1);

  00000	8d 41 10	 lea	 eax, DWORD PTR [ecx+16]

; 67   : 	}

  00003	c3		 ret	 0
?data@CStringData@ATL@@QAEPAXXZ ENDP			; ATL::CStringData::data
_TEXT	ENDS
PUBLIC	?AddRef@CStringData@ATL@@QAEXXZ			; ATL::CStringData::AddRef
; Function compile flags: /Ogty
;	COMDAT ?AddRef@CStringData@ATL@@QAEXXZ
_TEXT	SEGMENT
?AddRef@CStringData@ATL@@QAEXXZ PROC NEAR		; ATL::CStringData::AddRef, COMDAT
; _this$ = ecx

; 71   : 		ATLASSERT(nRefs > 0);
; 72   : 		_InterlockedIncrement(&nRefs);

  00000	83 c1 0c	 add	 ecx, 12			; 0000000cH
  00003	b8 01 00 00 00	 mov	 eax, 1
  00008	f0 0f c1 01	 lock	  xadd	 DWORD PTR [ecx], eax

; 73   : 	}

  0000c	c3		 ret	 0
?AddRef@CStringData@ATL@@QAEXXZ ENDP			; ATL::CStringData::AddRef
_TEXT	ENDS
PUBLIC	?IsLocked@CStringData@ATL@@QBE_NXZ		; ATL::CStringData::IsLocked
; Function compile flags: /Ogty
;	COMDAT ?IsLocked@CStringData@ATL@@QBE_NXZ
_TEXT	SEGMENT
?IsLocked@CStringData@ATL@@QBE_NXZ PROC NEAR		; ATL::CStringData::IsLocked, COMDAT
; _this$ = ecx

; 76   : 		return nRefs < 0;

  00000	8b 51 0c	 mov	 edx, DWORD PTR [ecx+12]
  00003	33 c0		 xor	 eax, eax
  00005	85 d2		 test	 edx, edx
  00007	0f 9c c0	 setl	 al

; 77   : 	}

  0000a	c3		 ret	 0
?IsLocked@CStringData@ATL@@QBE_NXZ ENDP			; ATL::CStringData::IsLocked
_TEXT	ENDS
PUBLIC	?IsShared@CStringData@ATL@@QBE_NXZ		; ATL::CStringData::IsShared
; Function compile flags: /Ogty
;	COMDAT ?IsShared@CStringData@ATL@@QBE_NXZ
_TEXT	SEGMENT
?IsShared@CStringData@ATL@@QBE_NXZ PROC NEAR		; ATL::CStringData::IsShared, COMDAT
; _this$ = ecx

; 80   : 		return( nRefs > 1 ); 

  00000	8b 51 0c	 mov	 edx, DWORD PTR [ecx+12]
  00003	33 c0		 xor	 eax, eax
  00005	83 fa 01	 cmp	 edx, 1
  00008	0f 9f c0	 setg	 al

; 81   : 	}

  0000b	c3		 ret	 0
?IsShared@CStringData@ATL@@QBE_NXZ ENDP			; ATL::CStringData::IsShared
_TEXT	ENDS
PUBLIC	?Release@CStringData@ATL@@QAEXXZ		; ATL::CStringData::Release
; Function compile flags: /Ogty
;	COMDAT ?Release@CStringData@ATL@@QAEXXZ
_TEXT	SEGMENT
?Release@CStringData@ATL@@QAEXXZ PROC NEAR		; ATL::CStringData::Release, COMDAT
; _this$ = ecx

; 93   : 		ATLASSERT( nRefs != 0 );
; 94   : 
; 95   : 		if( _InterlockedDecrement( &nRefs ) <= 0 )

  00000	8d 41 0c	 lea	 eax, DWORD PTR [ecx+12]
  00003	83 ca ff	 or	 edx, -1
  00006	f0 0f c1 10	 lock	  xadd	 DWORD PTR [eax], edx
  0000a	4a		 dec	 edx
  0000b	85 d2		 test	 edx, edx
  0000d	7f 0a		 jg	 SHORT $L39883

; 96   : 		{
; 97   : 			pStringMgr->Free( this );

  0000f	8b 01		 mov	 eax, DWORD PTR [ecx]
  00011	8b 10		 mov	 edx, DWORD PTR [eax]
  00013	51		 push	 ecx
  00014	8b c8		 mov	 ecx, eax
  00016	ff 52 04	 call	 DWORD PTR [edx+4]
$L39883:

; 98   : 		}
; 99   : 	}

  00019	c3		 ret	 0
?Release@CStringData@ATL@@QAEXXZ ENDP			; ATL::CStringData::Release
_TEXT	ENDS
PUBLIC	?CreateLogQuery@CQuizDBMng@@QAEPAVCQuery@@XZ	; CQuizDBMng::CreateLogQuery
PUBLIC	??_C@_0CN@JDPLLBGJ@Can?8t?5connect?5db?3?5CQuizDBCtrl?4Cr@ ; `string'
EXTRN	??2@YAPAXI@Z:NEAR				; operator new
EXTRN	??0CQuery@@QAE@XZ:NEAR				; CQuery::CQuery
EXTRN	?Connect@CQuery@@QAEHHPAD0PBD@Z:NEAR		; CQuery::Connect
EXTRN	__except_list:DWORD
EXTRN	___CxxFrameHandler:NEAR
EXTRN	?GetInstance@CDbManager@@SAAAV1@XZ:NEAR		; CDbManager::GetInstance
EXTRN	?DSN_NAME_LOG@@3PADA:BYTE			; DSN_NAME_LOG
EXTRN	?DB_ADMIN_ID_LOG@@3PADA:BYTE			; DB_ADMIN_ID_LOG
EXTRN	?AfxMessageBox@@YGHPBDII@Z:NEAR			; AfxMessageBox
;	COMDAT xdata$x
; File c:\documents and settings\test\mes documents\source\virtuos_v17\build\program\databaseserver\quizdbctrl.cpp
xdata$x	SEGMENT
$T206061 DD	0ffffffffH
	DD	FLAT:$L206048
$T206056 DD	019930520H
	DD	01H
	DD	FLAT:$T206061
	DD	2 DUP(00H)
	DD	2 DUP(00H)
xdata$x	ENDS
;	COMDAT ??_C@_0CN@JDPLLBGJ@Can?8t?5connect?5db?3?5CQuizDBCtrl?4Cr@
CONST	SEGMENT
??_C@_0CN@JDPLLBGJ@Can?8t?5connect?5db?3?5CQuizDBCtrl?4Cr@ DB 'Can''t con'
	DB	'nect db: CQuizDBCtrl.CreateLogQuery', 00H	; `string'
; Function compile flags: /Ogty
CONST	ENDS
;	COMDAT ?CreateLogQuery@CQuizDBMng@@QAEPAVCQuery@@XZ
_TEXT	SEGMENT
$T206041 = -16						; size = 4
__$EHRec$ = -12						; size = 12
?CreateLogQuery@CQuizDBMng@@QAEPAVCQuery@@XZ PROC NEAR	; CQuizDBMng::CreateLogQuery, COMDAT
; _this$ = ecx

; 355  : {

  00000	6a ff		 push	 -1
  00002	68 00 00 00 00	 push	 __ehhandler$?CreateLogQuery@CQuizDBMng@@QAEPAVCQuery@@XZ
  00007	64 a1 00 00 00
	00		 mov	 eax, DWORD PTR fs:__except_list
  0000d	50		 push	 eax
  0000e	64 89 25 00 00
	00 00		 mov	 DWORD PTR fs:__except_list, esp
  00015	51		 push	 ecx
  00016	56		 push	 esi

; 356  : 	CQuery* pQuery = new CQuery;

  00017	68 10 3d 00 00	 push	 15632			; 00003d10H
  0001c	e8 00 00 00 00	 call	 ??2@YAPAXI@Z		; operator new
  00021	83 c4 04	 add	 esp, 4
  00024	89 44 24 04	 mov	 DWORD PTR $T206041[esp+20], eax
  00028	85 c0		 test	 eax, eax
  0002a	c7 44 24 10 00
	00 00 00	 mov	 DWORD PTR __$EHRec$[esp+28], 0
  00032	74 0b		 je	 SHORT $L206042
  00034	8b c8		 mov	 ecx, eax
  00036	e8 00 00 00 00	 call	 ??0CQuery@@QAE@XZ	; CQuery::CQuery
  0003b	8b f0		 mov	 esi, eax
  0003d	eb 02		 jmp	 SHORT $L206043
$L206042:
  0003f	33 f6		 xor	 esi, esi
$L206043:
  00041	c7 44 24 10 ff
	ff ff ff	 mov	 DWORD PTR __$EHRec$[esp+28], -1

; 357  : 
; 358  : 	const char* pass	= CDbManager::GetInstance().DB_ADMIN_PASS_LOG;

  00049	e8 00 00 00 00	 call	 ?GetInstance@CDbManager@@SAAAV1@XZ ; CDbManager::GetInstance
  0004e	05 c0 03 00 00	 add	 eax, 960		; 000003c0H

; 359  : 	if( FALSE == pQuery->Connect( 3, DSN_NAME_LOG, DB_ADMIN_ID_LOG, pass ) )

  00053	50		 push	 eax
  00054	68 00 00 00 00	 push	 OFFSET FLAT:?DB_ADMIN_ID_LOG@@3PADA ; DB_ADMIN_ID_LOG
  00059	68 00 00 00 00	 push	 OFFSET FLAT:?DSN_NAME_LOG@@3PADA ; DSN_NAME_LOG
  0005e	6a 03		 push	 3
  00060	8b ce		 mov	 ecx, esi
  00062	e8 00 00 00 00	 call	 ?Connect@CQuery@@QAEHHPAD0PBD@Z ; CQuery::Connect
  00067	85 c0		 test	 eax, eax
  00069	75 32		 jne	 SHORT $L206058

; 360  : 	{
; 361  : 		::AfxMessageBox( "Can't connect db: CQuizDBCtrl.CreateLogQuery" );

  0006b	50		 push	 eax
  0006c	50		 push	 eax
  0006d	68 00 00 00 00	 push	 OFFSET FLAT:??_C@_0CN@JDPLLBGJ@Can?8t?5connect?5db?3?5CQuizDBCtrl?4Cr@
  00072	e8 00 00 00 00	 call	 ?AfxMessageBox@@YGHPBDII@Z ; AfxMessageBox

; 362  : 		SAFE_DELETE( pQuery );

  00077	85 f6		 test	 esi, esi
  00079	74 22		 je	 SHORT $L206058
  0007b	8b ce		 mov	 ecx, esi
  0007d	e8 00 00 00 00	 call	 ??1CQuery@@QAE@XZ	; CQuery::~CQuery
  00082	56		 push	 esi
  00083	e8 00 00 00 00	 call	 ??3@YAXPAX@Z		; operator delete
  00088	83 c4 04	 add	 esp, 4
  0008b	33 c0		 xor	 eax, eax
  0008d	5e		 pop	 esi

; 363  : 	}
; 364  : 	return pQuery;
; 365  : }

  0008e	8b 4c 24 04	 mov	 ecx, DWORD PTR __$EHRec$[esp+16]
  00092	64 89 0d 00 00
	00 00		 mov	 DWORD PTR fs:__except_list, ecx
  00099	83 c4 10	 add	 esp, 16			; 00000010H
  0009c	c3		 ret	 0
$L206058:
  0009d	8b 4c 24 08	 mov	 ecx, DWORD PTR __$EHRec$[esp+20]
  000a1	8b c6		 mov	 eax, esi
  000a3	5e		 pop	 esi
  000a4	64 89 0d 00 00
	00 00		 mov	 DWORD PTR fs:__except_list, ecx
  000ab	83 c4 10	 add	 esp, 16			; 00000010H
  000ae	c3		 ret	 0
_TEXT	ENDS
;	COMDAT text$x
text$x	SEGMENT
$L206048:
  00000	8b 45 f0	 mov	 eax, DWORD PTR $T206041[ebp]
  00003	50		 push	 eax
  00004	e8 00 00 00 00	 call	 ??3@YAXPAX@Z		; operator delete
  00009	59		 pop	 ecx
  0000a	c3		 ret	 0
__ehhandler$?CreateLogQuery@CQuizDBMng@@QAEPAVCQuery@@XZ:
  0000b	b8 00 00 00 00	 mov	 eax, OFFSET FLAT:$T206056
  00010	e9 00 00 00 00	 jmp	 ___CxxFrameHandler
text$x	ENDS
?CreateLogQuery@CQuizDBMng@@QAEPAVCQuery@@XZ ENDP	; CQuizDBMng::CreateLogQuery
PUBLIC	?InitQuizEventId@CQuizDBMng@@QAEHXZ		; CQuizDBMng::InitQuizEventId
; Function compile flags: /Ogty
;	COMDAT ?InitQuizEventId@CQuizDBMng@@QAEHXZ
_TEXT	SEGMENT
?InitQuizEventId@CQuizDBMng@@QAEHXZ PROC NEAR		; CQuizDBMng::InitQuizEventId, COMDAT
; _this$ = ecx

; 368  : {

  00000	56		 push	 esi
  00001	8b f1		 mov	 esi, ecx

; 369  : 	m_QuizDBCtrl.m_pQuery = CreateLogQuery();

  00003	e8 00 00 00 00	 call	 ?CreateLogQuery@CQuizDBMng@@QAEPAVCQuery@@XZ ; CQuizDBMng::CreateLogQuery

; 370  : 	if( !m_QuizDBCtrl.m_pQuery )

  00008	85 c0		 test	 eax, eax
  0000a	89 46 14	 mov	 DWORD PTR [esi+20], eax
  0000d	75 02		 jne	 SHORT $L204225
  0000f	5e		 pop	 esi

; 373  : 		return FALSE;
; 374  : 	return TRUE;
; 375  : }

  00010	c3		 ret	 0
$L204225:

; 371  : 		return FALSE;
; 372  : 	if( !m_QuizDBCtrl.LoadQuizEventId() )

  00011	8b ce		 mov	 ecx, esi
  00013	e8 00 00 00 00	 call	 ?LoadQuizEventId@CQuizDBCtrl@@QAEHXZ ; CQuizDBCtrl::LoadQuizEventId
  00018	f7 d8		 neg	 eax
  0001a	1b c0		 sbb	 eax, eax
  0001c	f7 d8		 neg	 eax
  0001e	5e		 pop	 esi

; 373  : 		return FALSE;
; 374  : 	return TRUE;
; 375  : }

  0001f	c3		 ret	 0
?InitQuizEventId@CQuizDBMng@@QAEHXZ ENDP		; CQuizDBMng::InitQuizEventId
_TEXT	ENDS
PUBLIC	?size@?$_Tree@V?$_Tmap_traits@KU_WORLDDATA@CQuizDBCtrl@@U?$less@K@std@@V?$allocator@U?$pair@$$CBKU_WORLDDATA@CQuizDBCtrl@@@std@@@4@$0A@@std@@@std@@QBEIXZ ; std::_Tree<std::_Tmap_traits<unsigned long,CQuizDBCtrl::_WORLDDATA,std::less<unsigned long>,std::allocator<std::pair<unsigned long const ,CQuizDBCtrl::_WORLDDATA> >,0> >::size
; Function compile flags: /Ogty
; File c:\program files\microsoft visual studio .net 2003\vc7\include\xtree
;	COMDAT ?size@?$_Tree@V?$_Tmap_traits@KU_WORLDDATA@CQuizDBCtrl@@U?$less@K@std@@V?$allocator@U?$pair@$$CBKU_WORLDDATA@CQuizDBCtrl@@@std@@@4@$0A@@std@@@std@@QBEIXZ
_TEXT	SEGMENT
?size@?$_Tree@V?$_Tmap_traits@KU_WORLDDATA@CQuizDBCtrl@@U?$less@K@std@@V?$allocator@U?$pair@$$CBKU_WORLDDATA@CQuizDBCtrl@@@std@@@4@$0A@@std@@@std@@QBEIXZ PROC NEAR ; std::_Tree<std::_Tmap_traits<unsigned long,CQuizDBCtrl::_WORLDDATA,std::less<unsigned long>,std::allocator<std::pair<unsigned long const ,CQuizDBCtrl::_WORLDDATA> >,0> >::size, COMDAT
; _this$ = ecx

; 448  : 		return (_Mysize);

  00000	8b 41 08	 mov	 eax, DWORD PTR [ecx+8]

; 449  : 		}

  00003	c3		 ret	 0
?size@?$_Tree@V?$_Tmap_traits@KU_WORLDDATA@CQuizDBCtrl@@U?$less@K@std@@V?$allocator@U?$pair@$$CBKU_WORLDDATA@CQuizDBCtrl@@@std@@@4@$0A@@std@@@std@@QBEIXZ ENDP ; std::_Tree<std::_Tmap_traits<unsigned long,CQuizDBCtrl::_WORLDDATA,std::less<unsigned long>,std::allocator<std::pair<unsigned long const ,CQuizDBCtrl::_WORLDDATA> >,0> >::size
_TEXT	ENDS
PUBLIC	?size@?$vector@U_QUIZLIST@CQuiz@@V?$allocator@U_QUIZLIST@CQuiz@@@std@@@std@@QBEIXZ ; std::vector<CQuiz::_QUIZLIST,std::allocator<CQuiz::_QUIZLIST> >::size
; Function compile flags: /Ogty
; File c:\program files\microsoft visual studio .net 2003\vc7\include\vector
;	COMDAT ?size@?$vector@U_QUIZLIST@CQuiz@@V?$allocator@U_QUIZLIST@CQuiz@@@std@@@std@@QBEIXZ
_TEXT	SEGMENT
?size@?$vector@U_QUIZLIST@CQuiz@@V?$allocator@U_QUIZLIST@CQuiz@@@std@@@std@@QBEIXZ PROC NEAR ; std::vector<CQuiz::_QUIZLIST,std::allocator<CQuiz::_QUIZLIST> >::size, COMDAT
; _this$ = ecx

; 516  : 		return (_Myfirst == 0 ? 0 : _Mylast - _Myfirst);

  00000	8b 41 04	 mov	 eax, DWORD PTR [ecx+4]
  00003	85 c0		 test	 eax, eax
  00005	75 01		 jne	 SHORT $L206071

; 517  : 		}

  00007	c3		 ret	 0
$L206071:

; 516  : 		return (_Myfirst == 0 ? 0 : _Mylast - _Myfirst);

  00008	8b 49 08	 mov	 ecx, DWORD PTR [ecx+8]
  0000b	2b c8		 sub	 ecx, eax
  0000d	b8 67 66 66 66	 mov	 eax, 1717986919		; 66666667H
  00012	f7 e9		 imul	 ecx
  00014	c1 fa 03	 sar	 edx, 3
  00017	8b c2		 mov	 eax, edx
  00019	c1 e8 1f	 shr	 eax, 31			; 0000001fH
  0001c	03 c2		 add	 eax, edx

; 517  : 		}

  0001e	c3		 ret	 0
?size@?$vector@U_QUIZLIST@CQuiz@@V?$allocator@U_QUIZLIST@CQuiz@@@std@@@std@@QBEIXZ ENDP ; std::vector<CQuiz::_QUIZLIST,std::allocator<CQuiz::_QUIZLIST> >::size
_TEXT	ENDS
PUBLIC	??0?$pair@$$CBKU_WORLDDATA@CQuizDBCtrl@@@std@@QAE@ABKABU_WORLDDATA@CQuizDBCtrl@@@Z ; std::pair<unsigned long const ,CQuizDBCtrl::_WORLDDATA>::pair<unsigned long const ,CQuizDBCtrl::_WORLDDATA>
; Function compile flags: /Ogty
; File c:\program files\microsoft visual studio .net 2003\vc7\include\utility
;	COMDAT ??0?$pair@$$CBKU_WORLDDATA@CQuizDBCtrl@@@std@@QAE@ABKABU_WORLDDATA@CQuizDBCtrl@@@Z
_TEXT	SEGMENT
__Val1$ = 8						; size = 4
__Val2$ = 12						; size = 4
??0?$pair@$$CBKU_WORLDDATA@CQuizDBCtrl@@@std@@QAE@ABKABU_WORLDDATA@CQuizDBCtrl@@@Z PROC NEAR ; std::pair<unsigned long const ,CQuizDBCtrl::_WORLDDATA>::pair<unsigned long const ,CQuizDBCtrl::_WORLDDATA>, COMDAT
; _this$ = ecx

; 34   : 		{	// construct from specified values

  00000	8b c1		 mov	 eax, ecx
  00002	8b 4c 24 04	 mov	 ecx, DWORD PTR __Val1$[esp-4]
  00006	8b 11		 mov	 edx, DWORD PTR [ecx]
  00008	56		 push	 esi
  00009	8b 74 24 0c	 mov	 esi, DWORD PTR __Val2$[esp]
  0000d	57		 push	 edi
  0000e	8d 78 04	 lea	 edi, DWORD PTR [eax+4]
  00011	b9 07 00 00 00	 mov	 ecx, 7
  00016	89 10		 mov	 DWORD PTR [eax], edx
  00018	f3 a5		 rep movsd
  0001a	5f		 pop	 edi
  0001b	5e		 pop	 esi

; 35   : 		}

  0001c	c2 08 00	 ret	 8
??0?$pair@$$CBKU_WORLDDATA@CQuizDBCtrl@@@std@@QAE@ABKABU_WORLDDATA@CQuizDBCtrl@@@Z ENDP ; std::pair<unsigned long const ,CQuizDBCtrl::_WORLDDATA>::pair<unsigned long const ,CQuizDBCtrl::_WORLDDATA>
_TEXT	ENDS
PUBLIC	?_Color@?$_Tree@V?$_Tmap_traits@KU_WORLDDATA@CQuizDBCtrl@@U?$less@K@std@@V?$allocator@U?$pair@$$CBKU_WORLDDATA@CQuizDBCtrl@@@std@@@4@$0A@@std@@@std@@KAAADPAU_Node@?$_Tree_nod@V?$_Tmap_traits@KU_WORLDDATA@CQuizDBCtrl@@U?$less@K@std@@V?$allocator@U?$pair@$$CBKU_WORLDDATA@CQuizDBCtrl@@@std@@@4@$0A@@std@@@2@@Z ; std::_Tree<std::_Tmap_traits<unsigned long,CQuizDBCtrl::_WORLDDATA,std::less<unsigned long>,std::allocator<std::pair<unsigned long const ,CQuizDBCtrl::_WORLDDATA> >,0> >::_Color
; Function compile flags: /Ogty
; File c:\program files\microsoft visual studio .net 2003\vc7\include\xtree
;	COMDAT ?_Color@?$_Tree@V?$_Tmap_traits@KU_WORLDDATA@CQuizDBCtrl@@U?$less@K@std@@V?$allocator@U?$pair@$$CBKU_WORLDDATA@CQuizDBCtrl@@@std@@@4@$0A@@std@@@std@@KAAADPAU_Node@?$_Tree_nod@V?$_Tmap_traits@KU_WORLDDATA@CQuizDBCtrl@@U?$less@K@std@@V?$allocator@U?$pair@$$CBKU_WORLDDATA@CQuizDBCtrl@@@std@@@4@$0A@@std@@@2@@Z
_TEXT	SEGMENT
__Pnode$ = 8						; size = 4
?_Color@?$_Tree@V?$_Tmap_traits@KU_WORLDDATA@CQuizDBCtrl@@U?$less@K@std@@V?$allocator@U?$pair@$$CBKU_WORLDDATA@CQuizDBCtrl@@@std@@@4@$0A@@std@@@std@@KAAADPAU_Node@?$_Tree_nod@V?$_Tmap_traits@KU_WORLDDATA@CQuizDBCtrl@@U?$less@K@std@@V?$allocator@U?$pair@$$CBKU_WORLDDATA@CQuizDBCtrl@@@std@@@4@$0A@@std@@@2@@Z PROC NEAR ; std::_Tree<std::_Tmap_traits<unsigned long,CQuizDBCtrl::_WORLDDATA,std::less<unsigned long>,std::allocator<std::pair<unsigned long const ,CQuizDBCtrl::_WORLDDATA> >,0> >::_Color, COMDAT

; 132  : 		return ((_Charref)(*_Pnode)._Color);

  00000	8b 44 24 04	 mov	 eax, DWORD PTR __Pnode$[esp-4]
  00004	83 c0 2c	 add	 eax, 44			; 0000002cH

; 133  : 		}

  00007	c3		 ret	 0
?_Color@?$_Tree@V?$_Tmap_traits@KU_WORLDDATA@CQuizDBCtrl@@U?$less@K@std@@V?$allocator@U?$pair@$$CBKU_WORLDDATA@CQuizDBCtrl@@@std@@@4@$0A@@std@@@std@@KAAADPAU_Node@?$_Tree_nod@V?$_Tmap_traits@KU_WORLDDATA@CQuizDBCtrl@@U?$less@K@std@@V?$allocator@U?$pair@$$CBKU_WORLDDATA@CQuizDBCtrl@@@std@@@4@$0A@@std@@@2@@Z ENDP ; std::_Tree<std::_Tmap_traits<unsigned long,CQuizDBCtrl::_WORLDDATA,std::less<unsigned long>,std::allocator<std::pair<unsigned long const ,CQuizDBCtrl::_WORLDDATA> >,0> >::_Color
_TEXT	ENDS
PUBLIC	?_Isnil@?$_Tree@V?$_Tmap_traits@KU_WORLDDATA@CQuizDBCtrl@@U?$less@K@std@@V?$allocator@U?$pair@$$CBKU_WORLDDATA@CQuizDBCtrl@@@std@@@4@$0A@@std@@@std@@KAAADPAU_Node@?$_Tree_nod@V?$_Tmap_traits@KU_WORLDDATA@CQuizDBCtrl@@U?$less@K@std@@V?$allocator@U?$pair@$$CBKU_WORLDDATA@CQuizDBCtrl@@@std@@@4@$0A@@std@@@2@@Z ; std::_Tree<std::_Tmap_traits<unsigned long,CQuizDBCtrl::_WORLDDATA,std::less<unsigned long>,std::allocator<std::pair<unsigned long const ,CQuizDBCtrl::_WORLDDATA> >,0> >::_Isnil
; Function compile flags: /Ogty
;	COMDAT ?_Isnil@?$_Tree@V?$_Tmap_traits@KU_WORLDDATA@CQuizDBCtrl@@U?$less@K@std@@V?$allocator@U?$pair@$$CBKU_WORLDDATA@CQuizDBCtrl@@@std@@@4@$0A@@std@@@std@@KAAADPAU_Node@?$_Tree_nod@V?$_Tmap_traits@KU_WORLDDATA@CQuizDBCtrl@@U?$less@K@std@@V?$allocator@U?$pair@$$CBKU_WORLDDATA@CQuizDBCtrl@@@std@@@4@$0A@@std@@@2@@Z
_TEXT	SEGMENT
__Pnode$ = 8						; size = 4
?_Isnil@?$_Tree@V?$_Tmap_traits@KU_WORLDDATA@CQuizDBCtrl@@U?$less@K@std@@V?$allocator@U?$pair@$$CBKU_WORLDDATA@CQuizDBCtrl@@@std@@@4@$0A@@std@@@std@@KAAADPAU_Node@?$_Tree_nod@V?$_Tmap_traits@KU_WORLDDATA@CQuizDBCtrl@@U?$less@K@std@@V?$allocator@U?$pair@$$CBKU_WORLDDATA@CQuizDBCtrl@@@std@@@4@$0A@@std@@@2@@Z PROC NEAR ; std::_Tree<std::_Tmap_traits<unsigned long,CQuizDBCtrl::_WORLDDATA,std::less<unsigned long>,std::allocator<std::pair<unsigned long const ,CQuizDBCtrl::_WORLDDATA> >,0> >::_Isnil, COMDAT

; 137  : 		return ((_Charref)(*_Pnode)._Isnil);

  00000	8b 44 24 04	 mov	 eax, DWORD PTR __Pnode$[esp-4]
  00004	83 c0 2d	 add	 eax, 45			; 0000002dH

; 138  : 		}

  00007	c3		 ret	 0
?_Isnil@?$_Tree@V?$_Tmap_traits@KU_WORLDDATA@CQuizDBCtrl@@U?$less@K@std@@V?$allocator@U?$pair@$$CBKU_WORLDDATA@CQuizDBCtrl@@@std@@@4@$0A@@std@@@std@@KAAADPAU_Node@?$_Tree_nod@V?$_Tmap_traits@KU_WORLDDATA@CQuizDBCtrl@@U?$less@K@std@@V?$allocator@U?$pair@$$CBKU_WORLDDATA@CQuizDBCtrl@@@std@@@4@$0A@@std@@@2@@Z ENDP ; std::_Tree<std::_Tmap_traits<unsigned long,CQuizDBCtrl::_WORLDDATA,std::less<unsigned long>,std::allocator<std::pair<unsigned long const ,CQuizDBCtrl::_WORLDDATA> >,0> >::_Isnil
_TEXT	ENDS
PUBLIC	?_Left@?$_Tree@V?$_Tmap_traits@KU_WORLDDATA@CQuizDBCtrl@@U?$less@K@std@@V?$allocator@U?$pair@$$CBKU_WORLDDATA@CQuizDBCtrl@@@std@@@4@$0A@@std@@@std@@KAAAPAU_Node@?$_Tree_nod@V?$_Tmap_traits@KU_WORLDDATA@CQuizDBCtrl@@U?$less@K@std@@V?$allocator@U?$pair@$$CBKU_WORLDDATA@CQuizDBCtrl@@@std@@@4@$0A@@std@@@2@PAU342@@Z ; std::_Tree<std::_Tmap_traits<unsigned long,CQuizDBCtrl::_WORLDDATA,std::less<unsigned long>,std::allocator<std::pair<unsigned long const ,CQuizDBCtrl::_WORLDDATA> >,0> >::_Left
; Function compile flags: /Ogty
;	COMDAT ?_Left@?$_Tree@V?$_Tmap_traits@KU_WORLDDATA@CQuizDBCtrl@@U?$less@K@std@@V?$allocator@U?$pair@$$CBKU_WORLDDATA@CQuizDBCtrl@@@std@@@4@$0A@@std@@@std@@KAAAPAU_Node@?$_Tree_nod@V?$_Tmap_traits@KU_WORLDDATA@CQuizDBCtrl@@U?$less@K@std@@V?$allocator@U?$pair@$$CBKU_WORLDDATA@CQuizDBCtrl@@@std@@@4@$0A@@std@@@2@PAU342@@Z
_TEXT	SEGMENT
__Pnode$ = 8						; size = 4
?_Left@?$_Tree@V?$_Tmap_traits@KU_WORLDDATA@CQuizDBCtrl@@U?$less@K@std@@V?$allocator@U?$pair@$$CBKU_WORLDDATA@CQuizDBCtrl@@@std@@@4@$0A@@std@@@std@@KAAAPAU_Node@?$_Tree_nod@V?$_Tmap_traits@KU_WORLDDATA@CQuizDBCtrl@@U?$less@K@std@@V?$allocator@U?$pair@$$CBKU_WORLDDATA@CQuizDBCtrl@@@std@@@4@$0A@@std@@@2@PAU342@@Z PROC NEAR ; std::_Tree<std::_Tmap_traits<unsigned long,CQuizDBCtrl::_WORLDDATA,std::less<unsigned long>,std::allocator<std::pair<unsigned long const ,CQuizDBCtrl::_WORLDDATA> >,0> >::_Left, COMDAT

; 147  : 		return ((_Nodepref)(*_Pnode)._Left);

  00000	8b 44 24 04	 mov	 eax, DWORD PTR __Pnode$[esp-4]

; 148  : 		}

  00004	c3		 ret	 0
?_Left@?$_Tree@V?$_Tmap_traits@KU_WORLDDATA@CQuizDBCtrl@@U?$less@K@std@@V?$allocator@U?$pair@$$CBKU_WORLDDATA@CQuizDBCtrl@@@std@@@4@$0A@@std@@@std@@KAAAPAU_Node@?$_Tree_nod@V?$_Tmap_traits@KU_WORLDDATA@CQuizDBCtrl@@U?$less@K@std@@V?$allocator@U?$pair@$$CBKU_WORLDDATA@CQuizDBCtrl@@@std@@@4@$0A@@std@@@2@PAU342@@Z ENDP ; std::_Tree<std::_Tmap_traits<unsigned long,CQuizDBCtrl::_WORLDDATA,std::less<unsigned long>,std::allocator<std::pair<unsigned long const ,CQuizDBCtrl::_WORLDDATA> >,0> >::_Left
_TEXT	ENDS
PUBLIC	?_Parent@?$_Tree@V?$_Tmap_traits@KU_WORLDDATA@CQuizDBCtrl@@U?$less@K@std@@V?$allocator@U?$pair@$$CBKU_WORLDDATA@CQuizDBCtrl@@@std@@@4@$0A@@std@@@std@@KAAAPAU_Node@?$_Tree_nod@V?$_Tmap_traits@KU_WORLDDATA@CQuizDBCtrl@@U?$less@K@std@@V?$allocator@U?$pair@$$CBKU_WORLDDATA@CQuizDBCtrl@@@std@@@4@$0A@@std@@@2@PAU342@@Z ; std::_Tree<std::_Tmap_traits<unsigned long,CQuizDBCtrl::_WORLDDATA,std::less<unsigned long>,std::allocator<std::pair<unsigned long const ,CQuizDBCtrl::_WORLDDATA> >,0> >::_Parent
; Function compile flags: /Ogty
;	COMDAT ?_Parent@?$_Tree@V?$_Tmap_traits@KU_WORLDDATA@CQuizDBCtrl@@U?$less@K@std@@V?$allocator@U?$pair@$$CBKU_WORLDDATA@CQuizDBCtrl@@@std@@@4@$0A@@std@@@std@@KAAAPAU_Node@?$_Tree_nod@V?$_Tmap_traits@KU_WORLDDATA@CQuizDBCtrl@@U?$less@K@std@@V?$allocator@U?$pair@$$CBKU_WORLDDATA@CQuizDBCtrl@@@std@@@4@$0A@@std@@@2@PAU342@@Z
_TEXT	SEGMENT
__Pnode$ = 8						; size = 4
?_Parent@?$_Tree@V?$_Tmap_traits@KU_WORLDDATA@CQuizDBCtrl@@U?$less@K@std@@V?$allocator@U?$pair@$$CBKU_WORLDDATA@CQuizDBCtrl@@@std@@@4@$0A@@std@@@std@@KAAAPAU_Node@?$_Tree_nod@V?$_Tmap_traits@KU_WORLDDATA@CQuizDBCtrl@@U?$less@K@std@@V?$allocator@U?$pair@$$CBKU_WORLDDATA@CQuizDBCtrl@@@std@@@4@$0A@@std@@@2@PAU342@@Z PROC NEAR ; std::_Tree<std::_Tmap_traits<unsigned long,CQuizDBCtrl::_WORLDDATA,std::less<unsigned long>,std::allocator<std::pair<unsigned long const ,CQuizDBCtrl::_WORLDDATA> >,0> >::_Parent, COMDAT

; 152  : 		return ((_Nodepref)(*_Pnode)._Parent);

  00000	8b 44 24 04	 mov	 eax, DWORD PTR __Pnode$[esp-4]
  00004	83 c0 04	 add	 eax, 4

; 153  : 		}

  00007	c3		 ret	 0
?_Parent@?$_Tree@V?$_Tmap_traits@KU_WORLDDATA@CQuizDBCtrl@@U?$less@K@std@@V?$allocator@U?$pair@$$CBKU_WORLDDATA@CQuizDBCtrl@@@std@@@4@$0A@@std@@@std@@KAAAPAU_Node@?$_Tree_nod@V?$_Tmap_traits@KU_WORLDDATA@CQuizDBCtrl@@U?$less@K@std@@V?$allocator@U?$pair@$$CBKU_WORLDDATA@CQuizDBCtrl@@@std@@@4@$0A@@std@@@2@PAU342@@Z ENDP ; std::_Tree<std::_Tmap_traits<unsigned long,CQuizDBCtrl::_WORLDDATA,std::less<unsigned long>,std::allocator<std::pair<unsigned long const ,CQuizDBCtrl::_WORLDDATA> >,0> >::_Parent
_TEXT	ENDS
PUBLIC	?_Right@?$_Tree@V?$_Tmap_traits@KU_WORLDDATA@CQuizDBCtrl@@U?$less@K@std@@V?$allocator@U?$pair@$$CBKU_WORLDDATA@CQuizDBCtrl@@@std@@@4@$0A@@std@@@std@@KAAAPAU_Node@?$_Tree_nod@V?$_Tmap_traits@KU_WORLDDATA@CQuizDBCtrl@@U?$less@K@std@@V?$allocator@U?$pair@$$CBKU_WORLDDATA@CQuizDBCtrl@@@std@@@4@$0A@@std@@@2@PAU342@@Z ; std::_Tree<std::_Tmap_traits<unsigned long,CQuizDBCtrl::_WORLDDATA,std::less<unsigned long>,std::allocator<std::pair<unsigned long const ,CQuizDBCtrl::_WORLDDATA> >,0> >::_Right
; Function compile flags: /Ogty
;	COMDAT ?_Right@?$_Tree@V?$_Tmap_traits@KU_WORLDDATA@CQuizDBCtrl@@U?$less@K@std@@V?$allocator@U?$pair@$$CBKU_WORLDDATA@CQuizDBCtrl@@@std@@@4@$0A@@std@@@std@@KAAAPAU_Node@?$_Tree_nod@V?$_Tmap_traits@KU_WORLDDATA@CQuizDBCtrl@@U?$less@K@std@@V?$allocator@U?$pair@$$CBKU_WORLDDATA@CQuizDBCtrl@@@std@@@4@$0A@@std@@@2@PAU342@@Z
_TEXT	SEGMENT
__Pnode$ = 8						; size = 4
?_Right@?$_Tree@V?$_Tmap_traits@KU_WORLDDATA@CQuizDBCtrl@@U?$less@K@std@@V?$allocator@U?$pair@$$CBKU_WORLDDATA@CQuizDBCtrl@@@std@@@4@$0A@@std@@@std@@KAAAPAU_Node@?$_Tree_nod@V?$_Tmap_traits@KU_WORLDDATA@CQuizDBCtrl@@U?$less@K@std@@V?$allocator@U?$pair@$$CBKU_WORLDDATA@CQuizDBCtrl@@@std@@@4@$0A@@std@@@2@PAU342@@Z PROC NEAR ; std::_Tree<std::_Tmap_traits<unsigned long,CQuizDBCtrl::_WORLDDATA,std::less<unsigned long>,std::allocator<std::pair<unsigned long const ,CQuizDBCtrl::_WORLDDATA> >,0> >::_Right, COMDAT

; 157  : 		return ((_Nodepref)(*_Pnode)._Right);

  00000	8b 44 24 04	 mov	 eax, DWORD PTR __Pnode$[esp-4]
  00004	83 c0 08	 add	 eax, 8

; 158  : 		}

  00007	c3		 ret	 0
?_Right@?$_Tree@V?$_Tmap_traits@KU_WORLDDATA@CQuizDBCtrl@@U?$less@K@std@@V?$allocator@U?$pair@$$CBKU_WORLDDATA@CQuizDBCtrl@@@std@@@4@$0A@@std@@@std@@KAAAPAU_Node@?$_Tree_nod@V?$_Tmap_traits@KU_WORLDDATA@CQuizDBCtrl@@U?$less@K@std@@V?$allocator@U?$pair@$$CBKU_WORLDDATA@CQuizDBCtrl@@@std@@@4@$0A@@std@@@2@PAU342@@Z ENDP ; std::_Tree<std::_Tmap_traits<unsigned long,CQuizDBCtrl::_WORLDDATA,std::less<unsigned long>,std::allocator<std::pair<unsigned long const ,CQuizDBCtrl::_WORLDDATA> >,0> >::_Right
_TEXT	ENDS
PUBLIC	?_Lmost@?$_Tree@V?$_Tmap_traits@KU_WORLDDATA@CQuizDBCtrl@@U?$less@K@std@@V?$allocator@U?$pair@$$CBKU_WORLDDATA@CQuizDBCtrl@@@std@@@4@$0A@@std@@@std@@IAEAAPAU_Node@?$_Tree_nod@V?$_Tmap_traits@KU_WORLDDATA@CQuizDBCtrl@@U?$less@K@std@@V?$allocator@U?$pair@$$CBKU_WORLDDATA@CQuizDBCtrl@@@std@@@4@$0A@@std@@@2@XZ ; std::_Tree<std::_Tmap_traits<unsigned long,CQuizDBCtrl::_WORLDDATA,std::less<unsigned long>,std::allocator<std::pair<unsigned long const ,CQuizDBCtrl::_WORLDDATA> >,0> >::_Lmost
; Function compile flags: /Ogty
;	COMDAT ?_Lmost@?$_Tree@V?$_Tmap_traits@KU_WORLDDATA@CQuizDBCtrl@@U?$less@K@std@@V?$allocator@U?$pair@$$CBKU_WORLDDATA@CQuizDBCtrl@@@std@@@4@$0A@@std@@@std@@IAEAAPAU_Node@?$_Tree_nod@V?$_Tmap_traits@KU_WORLDDATA@CQuizDBCtrl@@U?$less@K@std@@V?$allocator@U?$pair@$$CBKU_WORLDDATA@CQuizDBCtrl@@@std@@@4@$0A@@std@@@2@XZ
_TEXT	SEGMENT
?_Lmost@?$_Tree@V?$_Tmap_traits@KU_WORLDDATA@CQuizDBCtrl@@U?$less@K@std@@V?$allocator@U?$pair@$$CBKU_WORLDDATA@CQuizDBCtrl@@@std@@@4@$0A@@std@@@std@@IAEAAPAU_Node@?$_Tree_nod@V?$_Tmap_traits@KU_WORLDDATA@CQuizDBCtrl@@U?$less@K@std@@V?$allocator@U?$pair@$$CBKU_WORLDDATA@CQuizDBCtrl@@@std@@@4@$0A@@std@@@2@XZ PROC NEAR ; std::_Tree<std::_Tmap_traits<unsigned long,CQuizDBCtrl::_WORLDDATA,std::less<unsigned long>,std::allocator<std::pair<unsigned long const ,CQuizDBCtrl::_WORLDDATA> >,0> >::_Lmost, COMDAT
; _this$ = ecx

; 1005 : 		return (_Left(_Myhead));

  00000	8b 41 04	 mov	 eax, DWORD PTR [ecx+4]

; 1006 : 		}

  00003	c3		 ret	 0
?_Lmost@?$_Tree@V?$_Tmap_traits@KU_WORLDDATA@CQuizDBCtrl@@U?$less@K@std@@V?$allocator@U?$pair@$$CBKU_WORLDDATA@CQuizDBCtrl@@@std@@@4@$0A@@std@@@std@@IAEAAPAU_Node@?$_Tree_nod@V?$_Tmap_traits@KU_WORLDDATA@CQuizDBCtrl@@U?$less@K@std@@V?$allocator@U?$pair@$$CBKU_WORLDDATA@CQuizDBCtrl@@@std@@@4@$0A@@std@@@2@XZ ENDP ; std::_Tree<std::_Tmap_traits<unsigned long,CQuizDBCtrl::_WORLDDATA,std::less<unsigned long>,std::allocator<std::pair<unsigned long const ,CQuizDBCtrl::_WORLDDATA> >,0> >::_Lmost
_TEXT	ENDS
PUBLIC	?_Max@?$_Tree@V?$_Tmap_traits@KU_WORLDDATA@CQuizDBCtrl@@U?$less@K@std@@V?$allocator@U?$pair@$$CBKU_WORLDDATA@CQuizDBCtrl@@@std@@@4@$0A@@std@@@std@@KAPAU_Node@?$_Tree_nod@V?$_Tmap_traits@KU_WORLDDATA@CQuizDBCtrl@@U?$less@K@std@@V?$allocator@U?$pair@$$CBKU_WORLDDATA@CQuizDBCtrl@@@std@@@4@$0A@@std@@@2@PAU342@@Z ; std::_Tree<std::_Tmap_traits<unsigned long,CQuizDBCtrl::_WORLDDATA,std::less<unsigned long>,std::allocator<std::pair<unsigned long const ,CQuizDBCtrl::_WORLDDATA> >,0> >::_Max
; Function compile flags: /Ogty
;	COMDAT ?_Max@?$_Tree@V?$_Tmap_traits@KU_WORLDDATA@CQuizDBCtrl@@U?$less@K@std@@V?$allocator@U?$pair@$$CBKU_WORLDDATA@CQuizDBCtrl@@@std@@@4@$0A@@std@@@std@@KAPAU_Node@?$_Tree_nod@V?$_Tmap_traits@KU_WORLDDATA@CQuizDBCtrl@@U?$less@K@std@@V?$allocator@U?$pair@$$CBKU_WORLDDATA@CQuizDBCtrl@@@std@@@4@$0A@@std@@@2@PAU342@@Z
_TEXT	SEGMENT
__Pnode$ = 8						; size = 4
?_Max@?$_Tree@V?$_Tmap_traits@KU_WORLDDATA@CQuizDBCtrl@@U?$less@K@std@@V?$allocator@U?$pair@$$CBKU_WORLDDATA@CQuizDBCtrl@@@std@@@4@$0A@@std@@@std@@KAPAU_Node@?$_Tree_nod@V?$_Tmap_traits@KU_WORLDDATA@CQuizDBCtrl@@U?$less@K@std@@V?$allocator@U?$pair@$$CBKU_WORLDDATA@CQuizDBCtrl@@@std@@@4@$0A@@std@@@2@PAU342@@Z PROC NEAR ; std::_Tree<std::_Tmap_traits<unsigned long,CQuizDBCtrl::_WORLDDATA,std::less<unsigned long>,std::allocator<std::pair<unsigned long const ,CQuizDBCtrl::_WORLDDATA> >,0> >::_Max, COMDAT

; 1035 : 		while (!_Isnil(_Right(_Pnode)))

  00000	8b 44 24 04	 mov	 eax, DWORD PTR __Pnode$[esp-4]
  00004	8b 48 08	 mov	 ecx, DWORD PTR [eax+8]
  00007	8a 51 2d	 mov	 dl, BYTE PTR [ecx+45]
  0000a	84 d2		 test	 dl, dl
  0000c	75 0e		 jne	 SHORT $L204678
  0000e	8b ff		 npad	 2
$L204677:

; 1036 : 			_Pnode = _Right(_Pnode);

  00010	8b c1		 mov	 eax, ecx
  00012	8b 48 08	 mov	 ecx, DWORD PTR [eax+8]
  00015	8a 51 2d	 mov	 dl, BYTE PTR [ecx+45]
  00018	84 d2		 test	 dl, dl
  0001a	74 f4		 je	 SHORT $L204677
$L204678:

; 1037 : 		return (_Pnode);
; 1038 : 		}

  0001c	c3		 ret	 0
?_Max@?$_Tree@V?$_Tmap_traits@KU_WORLDDATA@CQuizDBCtrl@@U?$less@K@std@@V?$allocator@U?$pair@$$CBKU_WORLDDATA@CQuizDBCtrl@@@std@@@4@$0A@@std@@@std@@KAPAU_Node@?$_Tree_nod@V?$_Tmap_traits@KU_WORLDDATA@CQuizDBCtrl@@U?$less@K@std@@V?$allocator@U?$pair@$$CBKU_WORLDDATA@CQuizDBCtrl@@@std@@@4@$0A@@std@@@2@PAU342@@Z ENDP ; std::_Tree<std::_Tmap_traits<unsigned long,CQuizDBCtrl::_WORLDDATA,std::less<unsigned long>,std::allocator<std::pair<unsigned long const ,CQuizDBCtrl::_WORLDDATA> >,0> >::_Max
_TEXT	ENDS
PUBLIC	?_Min@?$_Tree@V?$_Tmap_traits@KU_WORLDDATA@CQuizDBCtrl@@U?$less@K@std@@V?$allocator@U?$pair@$$CBKU_WORLDDATA@CQuizDBCtrl@@@std@@@4@$0A@@std@@@std@@KAPAU_Node@?$_Tree_nod@V?$_Tmap_traits@KU_WORLDDATA@CQuizDBCtrl@@U?$less@K@std@@V?$allocator@U?$pair@$$CBKU_WORLDDATA@CQuizDBCtrl@@@std@@@4@$0A@@std@@@2@PAU342@@Z ; std::_Tree<std::_Tmap_traits<unsigned long,CQuizDBCtrl::_WORLDDATA,std::less<unsigned long>,std::allocator<std::pair<unsigned long const ,CQuizDBCtrl::_WORLDDATA> >,0> >::_Min
; Function compile flags: /Ogty
;	COMDAT ?_Min@?$_Tree@V?$_Tmap_traits@KU_WORLDDATA@CQuizDBCtrl@@U?$less@K@std@@V?$allocator@U?$pair@$$CBKU_WORLDDATA@CQuizDBCtrl@@@std@@@4@$0A@@std@@@std@@KAPAU_Node@?$_Tree_nod@V?$_Tmap_traits@KU_WORLDDATA@CQuizDBCtrl@@U?$less@K@std@@V?$allocator@U?$pair@$$CBKU_WORLDDATA@CQuizDBCtrl@@@std@@@4@$0A@@std@@@2@PAU342@@Z
_TEXT	SEGMENT
__Pnode$ = 8						; size = 4
?_Min@?$_Tree@V?$_Tmap_traits@KU_WORLDDATA@CQuizDBCtrl@@U?$less@K@std@@V?$allocator@U?$pair@$$CBKU_WORLDDATA@CQuizDBCtrl@@@std@@@4@$0A@@std@@@std@@KAPAU_Node@?$_Tree_nod@V?$_Tmap_traits@KU_WORLDDATA@CQuizDBCtrl@@U?$less@K@std@@V?$allocator@U?$pair@$$CBKU_WORLDDATA@CQuizDBCtrl@@@std@@@4@$0A@@std@@@2@PAU342@@Z PROC NEAR ; std::_Tree<std::_Tmap_traits<unsigned long,CQuizDBCtrl::_WORLDDATA,std::less<unsigned long>,std::allocator<std::pair<unsigned long const ,CQuizDBCtrl::_WORLDDATA> >,0> >::_Min, COMDAT

; 1042 : 		while (!_Isnil(_Left(_Pnode)))

  00000	8b 44 24 04	 mov	 eax, DWORD PTR __Pnode$[esp-4]
  00004	8b 08		 mov	 ecx, DWORD PTR [eax]
  00006	8a 51 2d	 mov	 dl, BYTE PTR [ecx+45]
  00009	84 d2		 test	 dl, dl
  0000b	75 0e		 jne	 SHORT $L204682
  0000d	8d 49 00	 npad	 3
$L204681:

; 1043 : 			_Pnode = _Left(_Pnode);

  00010	8b c1		 mov	 eax, ecx
  00012	8b 08		 mov	 ecx, DWORD PTR [eax]
  00014	8a 51 2d	 mov	 dl, BYTE PTR [ecx+45]
  00017	84 d2		 test	 dl, dl
  00019	74 f5		 je	 SHORT $L204681
$L204682:

; 1044 : 		return (_Pnode);
; 1045 : 		}

  0001b	c3		 ret	 0
?_Min@?$_Tree@V?$_Tmap_traits@KU_WORLDDATA@CQuizDBCtrl@@U?$less@K@std@@V?$allocator@U?$pair@$$CBKU_WORLDDATA@CQuizDBCtrl@@@std@@@4@$0A@@std@@@std@@KAPAU_Node@?$_Tree_nod@V?$_Tmap_traits@KU_WORLDDATA@CQuizDBCtrl@@U?$less@K@std@@V?$allocator@U?$pair@$$CBKU_WORLDDATA@CQuizDBCtrl@@@std@@@4@$0A@@std@@@2@PAU342@@Z ENDP ; std::_Tree<std::_Tmap_traits<unsigned long,CQuizDBCtrl::_WORLDDATA,std::less<unsigned long>,std::allocator<std::pair<unsigned long const ,CQuizDBCtrl::_WORLDDATA> >,0> >::_Min
_TEXT	ENDS
PUBLIC	?_Rmost@?$_Tree@V?$_Tmap_traits@KU_WORLDDATA@CQuizDBCtrl@@U?$less@K@std@@V?$allocator@U?$pair@$$CBKU_WORLDDATA@CQuizDBCtrl@@@std@@@4@$0A@@std@@@std@@IAEAAPAU_Node@?$_Tree_nod@V?$_Tmap_traits@KU_WORLDDATA@CQuizDBCtrl@@U?$less@K@std@@V?$allocator@U?$pair@$$CBKU_WORLDDATA@CQuizDBCtrl@@@std@@@4@$0A@@std@@@2@XZ ; std::_Tree<std::_Tmap_traits<unsigned long,CQuizDBCtrl::_WORLDDATA,std::less<unsigned long>,std::allocator<std::pair<unsigned long const ,CQuizDBCtrl::_WORLDDATA> >,0> >::_Rmost
; Function compile flags: /Ogty
;	COMDAT ?_Rmost@?$_Tree@V?$_Tmap_traits@KU_WORLDDATA@CQuizDBCtrl@@U?$less@K@std@@V?$allocator@U?$pair@$$CBKU_WORLDDATA@CQuizDBCtrl@@@std@@@4@$0A@@std@@@std@@IAEAAPAU_Node@?$_Tree_nod@V?$_Tmap_traits@KU_WORLDDATA@CQuizDBCtrl@@U?$less@K@std@@V?$allocator@U?$pair@$$CBKU_WORLDDATA@CQuizDBCtrl@@@std@@@4@$0A@@std@@@2@XZ
_TEXT	SEGMENT
?_Rmost@?$_Tree@V?$_Tmap_traits@KU_WORLDDATA@CQuizDBCtrl@@U?$less@K@std@@V?$allocator@U?$pair@$$CBKU_WORLDDATA@CQuizDBCtrl@@@std@@@4@$0A@@std@@@std@@IAEAAPAU_Node@?$_Tree_nod@V?$_Tmap_traits@KU_WORLDDATA@CQuizDBCtrl@@U?$less@K@std@@V?$allocator@U?$pair@$$CBKU_WORLDDATA@CQuizDBCtrl@@@std@@@4@$0A@@std@@@2@XZ PROC NEAR ; std::_Tree<std::_Tmap_traits<unsigned long,CQuizDBCtrl::_WORLDDATA,std::less<unsigned long>,std::allocator<std::pair<unsigned long const ,CQuizDBCtrl::_WORLDDATA> >,0> >::_Rmost, COMDAT
; _this$ = ecx

; 1049 : 		return (_Right(_Myhead));

  00000	8b 41 04	 mov	 eax, DWORD PTR [ecx+4]
  00003	83 c0 08	 add	 eax, 8

; 1050 : 		}

  00006	c3		 ret	 0
?_Rmost@?$_Tree@V?$_Tmap_traits@KU_WORLDDATA@CQuizDBCtrl@@U?$less@K@std@@V?$allocator@U?$pair@$$CBKU_WORLDDATA@CQuizDBCtrl@@@std@@@4@$0A@@std@@@std@@IAEAAPAU_Node@?$_Tree_nod@V?$_Tmap_traits@KU_WORLDDATA@CQuizDBCtrl@@U?$less@K@std@@V?$allocator@U?$pair@$$CBKU_WORLDDATA@CQuizDBCtrl@@@std@@@4@$0A@@std@@@2@XZ ENDP ; std::_Tree<std::_Tmap_traits<unsigned long,CQuizDBCtrl::_WORLDDATA,std::less<unsigned long>,std::allocator<std::pair<unsigned long const ,CQuizDBCtrl::_WORLDDATA> >,0> >::_Rmost
_TEXT	ENDS
PUBLIC	?_Root@?$_Tree@V?$_Tmap_traits@KU_WORLDDATA@CQuizDBCtrl@@U?$less@K@std@@V?$allocator@U?$pair@$$CBKU_WORLDDATA@CQuizDBCtrl@@@std@@@4@$0A@@std@@@std@@IAEAAPAU_Node@?$_Tree_nod@V?$_Tmap_traits@KU_WORLDDATA@CQuizDBCtrl@@U?$less@K@std@@V?$allocator@U?$pair@$$CBKU_WORLDDATA@CQuizDBCtrl@@@std@@@4@$0A@@std@@@2@XZ ; std::_Tree<std::_Tmap_traits<unsigned long,CQuizDBCtrl::_WORLDDATA,std::less<unsigned long>,std::allocator<std::pair<unsigned long const ,CQuizDBCtrl::_WORLDDATA> >,0> >::_Root
; Function compile flags: /Ogty
;	COMDAT ?_Root@?$_Tree@V?$_Tmap_traits@KU_WORLDDATA@CQuizDBCtrl@@U?$less@K@std@@V?$allocator@U?$pair@$$CBKU_WORLDDATA@CQuizDBCtrl@@@std@@@4@$0A@@std@@@std@@IAEAAPAU_Node@?$_Tree_nod@V?$_Tmap_traits@KU_WORLDDATA@CQuizDBCtrl@@U?$less@K@std@@V?$allocator@U?$pair@$$CBKU_WORLDDATA@CQuizDBCtrl@@@std@@@4@$0A@@std@@@2@XZ
_TEXT	SEGMENT
?_Root@?$_Tree@V?$_Tmap_traits@KU_WORLDDATA@CQuizDBCtrl@@U?$less@K@std@@V?$allocator@U?$pair@$$CBKU_WORLDDATA@CQuizDBCtrl@@@std@@@4@$0A@@std@@@std@@IAEAAPAU_Node@?$_Tree_nod@V?$_Tmap_traits@KU_WORLDDATA@CQuizDBCtrl@@U?$less@K@std@@V?$allocator@U?$pair@$$CBKU_WORLDDATA@CQuizDBCtrl@@@std@@@4@$0A@@std@@@2@XZ PROC NEAR ; std::_Tree<std::_Tmap_traits<unsigned long,CQuizDBCtrl::_WORLDDATA,std::less<unsigned long>,std::allocator<std::pair<unsigned long const ,CQuizDBCtrl::_WORLDDATA> >,0> >::_Root, COMDAT
; _this$ = ecx

; 1059 : 		return (_Parent(_Myhead));

  00000	8b 41 04	 mov	 eax, DWORD PTR [ecx+4]
  00003	83 c0 04	 add	 eax, 4

; 1060 : 		}

  00006	c3		 ret	 0
?_Root@?$_Tree@V?$_Tmap_traits@KU_WORLDDATA@CQuizDBCtrl@@U?$less@K@std@@V?$allocator@U?$pair@$$CBKU_WORLDDATA@CQuizDBCtrl@@@std@@@4@$0A@@std@@@std@@IAEAAPAU_Node@?$_Tree_nod@V?$_Tmap_traits@KU_WORLDDATA@CQuizDBCtrl@@U?$less@K@std@@V?$allocator@U?$pair@$$CBKU_WORLDDATA@CQuizDBCtrl@@@std@@@4@$0A@@std@@@2@XZ ENDP ; std::_Tree<std::_Tmap_traits<unsigned long,CQuizDBCtrl::_WORLDDATA,std::less<unsigned long>,std::allocator<std::pair<unsigned long const ,CQuizDBCtrl::_WORLDDATA> >,0> >::_Root
_TEXT	ENDS
PUBLIC	?_Rrotate@?$_Tree@V?$_Tmap_traits@KU_WORLDDATA@CQuizDBCtrl@@U?$less@K@std@@V?$allocator@U?$pair@$$CBKU_WORLDDATA@CQuizDBCtrl@@@std@@@4@$0A@@std@@@std@@IAEXPAU_Node@?$_Tree_nod@V?$_Tmap_traits@KU_WORLDDATA@CQuizDBCtrl@@U?$less@K@std@@V?$allocator@U?$pair@$$CBKU_WORLDDATA@CQuizDBCtrl@@@std@@@4@$0A@@std@@@2@@Z ; std::_Tree<std::_Tmap_traits<unsigned long,CQuizDBCtrl::_WORLDDATA,std::less<unsigned long>,std::allocator<std::pair<unsigned long const ,CQuizDBCtrl::_WORLDDATA> >,0> >::_Rrotate
; Function compile flags: /Ogty
;	COMDAT ?_Rrotate@?$_Tree@V?$_Tmap_traits@KU_WORLDDATA@CQuizDBCtrl@@U?$less@K@std@@V?$allocator@U?$pair@$$CBKU_WORLDDATA@CQuizDBCtrl@@@std@@@4@$0A@@std@@@std@@IAEXPAU_Node@?$_Tree_nod@V?$_Tmap_traits@KU_WORLDDATA@CQuizDBCtrl@@U?$less@K@std@@V?$allocator@U?$pair@$$CBKU_WORLDDATA@CQuizDBCtrl@@@std@@@4@$0A@@std@@@2@@Z
_TEXT	SEGMENT
__Wherenode$ = 8					; size = 4
?_Rrotate@?$_Tree@V?$_Tmap_traits@KU_WORLDDATA@CQuizDBCtrl@@U?$less@K@std@@V?$allocator@U?$pair@$$CBKU_WORLDDATA@CQuizDBCtrl@@@std@@@4@$0A@@std@@@std@@IAEXPAU_Node@?$_Tree_nod@V?$_Tmap_traits@KU_WORLDDATA@CQuizDBCtrl@@U?$less@K@std@@V?$allocator@U?$pair@$$CBKU_WORLDDATA@CQuizDBCtrl@@@std@@@4@$0A@@std@@@2@@Z PROC NEAR ; std::_Tree<std::_Tmap_traits<unsigned long,CQuizDBCtrl::_WORLDDATA,std::less<unsigned long>,std::allocator<std::pair<unsigned long const ,CQuizDBCtrl::_WORLDDATA> >,0> >::_Rrotate, COMDAT
; _this$ = ecx

; 1069 : 		_Nodeptr _Pnode = _Left(_Wherenode);

  00000	8b 54 24 04	 mov	 edx, DWORD PTR __Wherenode$[esp-4]
  00004	8b 02		 mov	 eax, DWORD PTR [edx]
  00006	53		 push	 ebx
  00007	56		 push	 esi

; 1070 : 		_Left(_Wherenode) = _Right(_Pnode);

  00008	8b 70 08	 mov	 esi, DWORD PTR [eax+8]
  0000b	89 32		 mov	 DWORD PTR [edx], esi

; 1071 : 
; 1072 : 		if (!_Isnil(_Right(_Pnode)))

  0000d	8b 70 08	 mov	 esi, DWORD PTR [eax+8]
  00010	8a 5e 2d	 mov	 bl, BYTE PTR [esi+45]
  00013	84 db		 test	 bl, bl
  00015	75 03		 jne	 SHORT $L204690

; 1073 : 			_Parent(_Right(_Pnode)) = _Wherenode;

  00017	89 56 04	 mov	 DWORD PTR [esi+4], edx
$L204690:

; 1074 : 		_Parent(_Pnode) = _Parent(_Wherenode);

  0001a	8b 72 04	 mov	 esi, DWORD PTR [edx+4]
  0001d	89 70 04	 mov	 DWORD PTR [eax+4], esi

; 1075 : 
; 1076 : 		if (_Wherenode == _Root())

  00020	8b 49 04	 mov	 ecx, DWORD PTR [ecx+4]
  00023	3b 51 04	 cmp	 edx, DWORD PTR [ecx+4]
  00026	75 0e		 jne	 SHORT $L204691

; 1077 : 			_Root() = _Pnode;

  00028	89 41 04	 mov	 DWORD PTR [ecx+4], eax
  0002b	5e		 pop	 esi

; 1082 : 
; 1083 : 		_Right(_Pnode) = _Wherenode;

  0002c	89 50 08	 mov	 DWORD PTR [eax+8], edx

; 1084 : 		_Parent(_Wherenode) = _Pnode;

  0002f	89 42 04	 mov	 DWORD PTR [edx+4], eax
  00032	5b		 pop	 ebx

; 1085 : 		}

  00033	c2 04 00	 ret	 4
$L204691:

; 1078 : 		else if (_Wherenode == _Right(_Parent(_Wherenode)))

  00036	8b 4a 04	 mov	 ecx, DWORD PTR [edx+4]
  00039	3b 51 08	 cmp	 edx, DWORD PTR [ecx+8]
  0003c	75 0e		 jne	 SHORT $L204693

; 1079 : 			_Right(_Parent(_Wherenode)) = _Pnode;

  0003e	89 41 08	 mov	 DWORD PTR [ecx+8], eax
  00041	5e		 pop	 esi

; 1082 : 
; 1083 : 		_Right(_Pnode) = _Wherenode;

  00042	89 50 08	 mov	 DWORD PTR [eax+8], edx

; 1084 : 		_Parent(_Wherenode) = _Pnode;

  00045	89 42 04	 mov	 DWORD PTR [edx+4], eax
  00048	5b		 pop	 ebx

; 1085 : 		}

  00049	c2 04 00	 ret	 4
$L204693:

; 1080 : 		else
; 1081 : 			_Left(_Parent(_Wherenode)) = _Pnode;

  0004c	89 01		 mov	 DWORD PTR [ecx], eax
  0004e	5e		 pop	 esi

; 1082 : 
; 1083 : 		_Right(_Pnode) = _Wherenode;

  0004f	89 50 08	 mov	 DWORD PTR [eax+8], edx

; 1084 : 		_Parent(_Wherenode) = _Pnode;

  00052	89 42 04	 mov	 DWORD PTR [edx+4], eax
  00055	5b		 pop	 ebx

; 1085 : 		}

  00056	c2 04 00	 ret	 4
?_Rrotate@?$_Tree@V?$_Tmap_traits@KU_WORLDDATA@CQuizDBCtrl@@U?$less@K@std@@V?$allocator@U?$pair@$$CBKU_WORLDDATA@CQuizDBCtrl@@@std@@@4@$0A@@std@@@std@@IAEXPAU_Node@?$_Tree_nod@V?$_Tmap_traits@KU_WORLDDATA@CQuizDBCtrl@@U?$less@K@std@@V?$allocator@U?$pair@$$CBKU_WORLDDATA@CQuizDBCtrl@@@std@@@4@$0A@@std@@@2@@Z ENDP ; std::_Tree<std::_Tmap_traits<unsigned long,CQuizDBCtrl::_WORLDDATA,std::less<unsigned long>,std::allocator<std::pair<unsigned long const ,CQuizDBCtrl::_WORLDDATA> >,0> >::_Rrotate
_TEXT	ENDS
PUBLIC	?_Kfn@?$_Tmap_traits@KU_WORLDDATA@CQuizDBCtrl@@U?$less@K@std@@V?$allocator@U?$pair@$$CBKU_WORLDDATA@CQuizDBCtrl@@@std@@@4@$0A@@std@@SAABKABU?$pair@$$CBKU_WORLDDATA@CQuizDBCtrl@@@2@@Z ; std::_Tmap_traits<unsigned long,CQuizDBCtrl::_WORLDDATA,std::less<unsigned long>,std::allocator<std::pair<unsigned long const ,CQuizDBCtrl::_WORLDDATA> >,0>::_Kfn
; Function compile flags: /Ogty
; File c:\program files\microsoft visual studio .net 2003\vc7\include\map
;	COMDAT ?_Kfn@?$_Tmap_traits@KU_WORLDDATA@CQuizDBCtrl@@U?$less@K@std@@V?$allocator@U?$pair@$$CBKU_WORLDDATA@CQuizDBCtrl@@@std@@@4@$0A@@std@@SAABKABU?$pair@$$CBKU_WORLDDATA@CQuizDBCtrl@@@2@@Z
_TEXT	SEGMENT
__Val$ = 8						; size = 4
?_Kfn@?$_Tmap_traits@KU_WORLDDATA@CQuizDBCtrl@@U?$less@K@std@@V?$allocator@U?$pair@$$CBKU_WORLDDATA@CQuizDBCtrl@@@std@@@4@$0A@@std@@SAABKABU?$pair@$$CBKU_WORLDDATA@CQuizDBCtrl@@@2@@Z PROC NEAR ; std::_Tmap_traits<unsigned long,CQuizDBCtrl::_WORLDDATA,std::less<unsigned long>,std::allocator<std::pair<unsigned long const ,CQuizDBCtrl::_WORLDDATA> >,0>::_Kfn, COMDAT

; 64   : 		return (_Val.first);

  00000	8b 44 24 04	 mov	 eax, DWORD PTR __Val$[esp-4]

; 65   : 		}

  00004	c3		 ret	 0
?_Kfn@?$_Tmap_traits@KU_WORLDDATA@CQuizDBCtrl@@U?$less@K@std@@V?$allocator@U?$pair@$$CBKU_WORLDDATA@CQuizDBCtrl@@@std@@@4@$0A@@std@@SAABKABU?$pair@$$CBKU_WORLDDATA@CQuizDBCtrl@@@2@@Z ENDP ; std::_Tmap_traits<unsigned long,CQuizDBCtrl::_WORLDDATA,std::less<unsigned long>,std::allocator<std::pair<unsigned long const ,CQuizDBCtrl::_WORLDDATA> >,0>::_Kfn
_TEXT	ENDS
PUBLIC	??0?$allocator@U?$pair@$$CBKU_WORLDDATA@CQuizDBCtrl@@@std@@@std@@QAE@XZ ; std::allocator<std::pair<unsigned long const ,CQuizDBCtrl::_WORLDDATA> >::allocator<std::pair<unsigned long const ,CQuizDBCtrl::_WORLDDATA> >
; Function compile flags: /Ogty
; File c:\program files\microsoft visual studio .net 2003\vc7\include\xmemory
;	COMDAT ??0?$allocator@U?$pair@$$CBKU_WORLDDATA@CQuizDBCtrl@@@std@@@std@@QAE@XZ
_TEXT	SEGMENT
??0?$allocator@U?$pair@$$CBKU_WORLDDATA@CQuizDBCtrl@@@std@@@std@@QAE@XZ PROC NEAR ; std::allocator<std::pair<unsigned long const ,CQuizDBCtrl::_WORLDDATA> >::allocator<std::pair<unsigned long const ,CQuizDBCtrl::_WORLDDATA> >, COMDAT
; _this$ = ecx

; 111  : 	allocator()

  00000	8b c1		 mov	 eax, ecx

; 112  : 		{	// construct default allocator (do nothing)
; 113  : 		}

  00002	c3		 ret	 0
??0?$allocator@U?$pair@$$CBKU_WORLDDATA@CQuizDBCtrl@@@std@@@std@@QAE@XZ ENDP ; std::allocator<std::pair<unsigned long const ,CQuizDBCtrl::_WORLDDATA> >::allocator<std::pair<unsigned long const ,CQuizDBCtrl::_WORLDDATA> >
_TEXT	ENDS
PUBLIC	?deallocate@?$allocator@U_Node@?$_Tree_nod@V?$_Tmap_traits@KU_WORLDDATA@CQuizDBCtrl@@U?$less@K@std@@V?$allocator@U?$pair@$$CBKU_WORLDDATA@CQuizDBCtrl@@@std@@@4@$0A@@std@@@std@@@std@@QAEXPAU_Node@?$_Tree_nod@V?$_Tmap_traits@KU_WORLDDATA@CQuizDBCtrl@@U?$less@K@std@@V?$allocator@U?$pair@$$CBKU_WORLDDATA@CQuizDBCtrl@@@std@@@4@$0A@@std@@@2@I@Z ; std::allocator<std::_Tree_nod<std::_Tmap_traits<unsigned long,CQuizDBCtrl::_WORLDDATA,std::less<unsigned long>,std::allocator<std::pair<unsigned long const ,CQuizDBCtrl::_WORLDDATA> >,0> >::_Node>::deallocate
; Function compile flags: /Ogty
;	COMDAT ?deallocate@?$allocator@U_Node@?$_Tree_nod@V?$_Tmap_traits@KU_WORLDDATA@CQuizDBCtrl@@U?$less@K@std@@V?$allocator@U?$pair@$$CBKU_WORLDDATA@CQuizDBCtrl@@@std@@@4@$0A@@std@@@std@@@std@@QAEXPAU_Node@?$_Tree_nod@V?$_Tmap_traits@KU_WORLDDATA@CQuizDBCtrl@@U?$less@K@std@@V?$allocator@U?$pair@$$CBKU_WORLDDATA@CQuizDBCtrl@@@std@@@4@$0A@@std@@@2@I@Z
_TEXT	SEGMENT
__Ptr$ = 8						; size = 4
___formal$ = 12						; size = 4
?deallocate@?$allocator@U_Node@?$_Tree_nod@V?$_Tmap_traits@KU_WORLDDATA@CQuizDBCtrl@@U?$less@K@std@@V?$allocator@U?$pair@$$CBKU_WORLDDATA@CQuizDBCtrl@@@std@@@4@$0A@@std@@@std@@@std@@QAEXPAU_Node@?$_Tree_nod@V?$_Tmap_traits@KU_WORLDDATA@CQuizDBCtrl@@U?$less@K@std@@V?$allocator@U?$pair@$$CBKU_WORLDDATA@CQuizDBCtrl@@@std@@@4@$0A@@std@@@2@I@Z PROC NEAR ; std::allocator<std::_Tree_nod<std::_Tmap_traits<unsigned long,CQuizDBCtrl::_WORLDDATA,std::less<unsigned long>,std::allocator<std::pair<unsigned long const ,CQuizDBCtrl::_WORLDDATA> >,0> >::_Node>::deallocate, COMDAT
; _this$ = ecx

; 132  : 		operator delete(_Ptr);

  00000	8b 44 24 04	 mov	 eax, DWORD PTR __Ptr$[esp-4]
  00004	50		 push	 eax
  00005	e8 00 00 00 00	 call	 ??3@YAXPAX@Z		; operator delete
  0000a	59		 pop	 ecx

; 133  : 		}

  0000b	c2 08 00	 ret	 8
?deallocate@?$allocator@U_Node@?$_Tree_nod@V?$_Tmap_traits@KU_WORLDDATA@CQuizDBCtrl@@U?$less@K@std@@V?$allocator@U?$pair@$$CBKU_WORLDDATA@CQuizDBCtrl@@@std@@@4@$0A@@std@@@std@@@std@@QAEXPAU_Node@?$_Tree_nod@V?$_Tmap_traits@KU_WORLDDATA@CQuizDBCtrl@@U?$less@K@std@@V?$allocator@U?$pair@$$CBKU_WORLDDATA@CQuizDBCtrl@@@std@@@4@$0A@@std@@@2@I@Z ENDP ; std::allocator<std::_Tree_nod<std::_Tmap_traits<unsigned long,CQuizDBCtrl::_WORLDDATA,std::less<unsigned long>,std::allocator<std::pair<unsigned long const ,CQuizDBCtrl::_WORLDDATA> >,0> >::_Node>::deallocate
_TEXT	ENDS
PUBLIC	?capacity@?$vector@U_QUIZLIST@CQuiz@@V?$allocator@U_QUIZLIST@CQuiz@@@std@@@std@@QBEIXZ ; std::vector<CQuiz::_QUIZLIST,std::allocator<CQuiz::_QUIZLIST> >::capacity
; Function compile flags: /Ogty
; File c:\program files\microsoft visual studio .net 2003\vc7\include\vector
;	COMDAT ?capacity@?$vector@U_QUIZLIST@CQuiz@@V?$allocator@U_QUIZLIST@CQuiz@@@std@@@std@@QBEIXZ
_TEXT	SEGMENT
?capacity@?$vector@U_QUIZLIST@CQuiz@@V?$allocator@U_QUIZLIST@CQuiz@@@std@@@std@@QBEIXZ PROC NEAR ; std::vector<CQuiz::_QUIZLIST,std::allocator<CQuiz::_QUIZLIST> >::capacity, COMDAT
; _this$ = ecx

; 458  : 		return (_Myfirst == 0 ? 0 : _Myend - _Myfirst);

  00000	8b 41 04	 mov	 eax, DWORD PTR [ecx+4]
  00003	85 c0		 test	 eax, eax
  00005	75 01		 jne	 SHORT $L206208

; 459  : 		}

  00007	c3		 ret	 0
$L206208:

; 458  : 		return (_Myfirst == 0 ? 0 : _Myend - _Myfirst);

  00008	8b 49 0c	 mov	 ecx, DWORD PTR [ecx+12]
  0000b	2b c8		 sub	 ecx, eax
  0000d	b8 67 66 66 66	 mov	 eax, 1717986919		; 66666667H
  00012	f7 e9		 imul	 ecx
  00014	c1 fa 03	 sar	 edx, 3
  00017	8b c2		 mov	 eax, edx
  00019	c1 e8 1f	 shr	 eax, 31			; 0000001fH
  0001c	03 c2		 add	 eax, edx

; 459  : 		}

  0001e	c3		 ret	 0
?capacity@?$vector@U_QUIZLIST@CQuiz@@V?$allocator@U_QUIZLIST@CQuiz@@@std@@@std@@QBEIXZ ENDP ; std::vector<CQuiz::_QUIZLIST,std::allocator<CQuiz::_QUIZLIST> >::capacity
_TEXT	ENDS
PUBLIC	??8const_iterator@?$_Tree@V?$_Tmap_traits@KU_WORLDDATA@CQuizDBCtrl@@U?$less@K@std@@V?$allocator@U?$pair@$$CBKU_WORLDDATA@CQuizDBCtrl@@@std@@@4@$0A@@std@@@std@@QBE_NABV012@@Z ; std::_Tree<std::_Tmap_traits<unsigned long,CQuizDBCtrl::_WORLDDATA,std::less<unsigned long>,std::allocator<std::pair<unsigned long const ,CQuizDBCtrl::_WORLDDATA> >,0> >::const_iterator::operator==
; Function compile flags: /Ogty
; File c:\program files\microsoft visual studio .net 2003\vc7\include\xtree
;	COMDAT ??8const_iterator@?$_Tree@V?$_Tmap_traits@KU_WORLDDATA@CQuizDBCtrl@@U?$less@K@std@@V?$allocator@U?$pair@$$CBKU_WORLDDATA@CQuizDBCtrl@@@std@@@4@$0A@@std@@@std@@QBE_NABV012@@Z
_TEXT	SEGMENT
__Right$ = 8						; size = 4
??8const_iterator@?$_Tree@V?$_Tmap_traits@KU_WORLDDATA@CQuizDBCtrl@@U?$less@K@std@@V?$allocator@U?$pair@$$CBKU_WORLDDATA@CQuizDBCtrl@@@std@@@4@$0A@@std@@@std@@QBE_NABV012@@Z PROC NEAR ; std::_Tree<std::_Tmap_traits<unsigned long,CQuizDBCtrl::_WORLDDATA,std::less<unsigned long>,std::allocator<std::pair<unsigned long const ,CQuizDBCtrl::_WORLDDATA> >,0> >::const_iterator::operator==, COMDAT
; _this$ = ecx

; 241  : 			return (_Ptr == _Right._Ptr);

  00000	8b 01		 mov	 eax, DWORD PTR [ecx]
  00002	8b 4c 24 04	 mov	 ecx, DWORD PTR __Right$[esp-4]
  00006	2b 01		 sub	 eax, DWORD PTR [ecx]
  00008	f7 d8		 neg	 eax
  0000a	1b c0		 sbb	 eax, eax
  0000c	40		 inc	 eax

; 242  : 			}

  0000d	c2 04 00	 ret	 4
??8const_iterator@?$_Tree@V?$_Tmap_traits@KU_WORLDDATA@CQuizDBCtrl@@U?$less@K@std@@V?$allocator@U?$pair@$$CBKU_WORLDDATA@CQuizDBCtrl@@@std@@@4@$0A@@std@@@std@@QBE_NABV012@@Z ENDP ; std::_Tree<std::_Tmap_traits<unsigned long,CQuizDBCtrl::_WORLDDATA,std::less<unsigned long>,std::allocator<std::pair<unsigned long const ,CQuizDBCtrl::_WORLDDATA> >,0> >::const_iterator::operator==
_TEXT	ENDS
PUBLIC	?_Mynode@const_iterator@?$_Tree@V?$_Tmap_traits@KU_WORLDDATA@CQuizDBCtrl@@U?$less@K@std@@V?$allocator@U?$pair@$$CBKU_WORLDDATA@CQuizDBCtrl@@@std@@@4@$0A@@std@@@std@@QBEPAU_Node@?$_Tree_nod@V?$_Tmap_traits@KU_WORLDDATA@CQuizDBCtrl@@U?$less@K@std@@V?$allocator@U?$pair@$$CBKU_WORLDDATA@CQuizDBCtrl@@@std@@@4@$0A@@std@@@3@XZ ; std::_Tree<std::_Tmap_traits<unsigned long,CQuizDBCtrl::_WORLDDATA,std::less<unsigned long>,std::allocator<std::pair<unsigned long const ,CQuizDBCtrl::_WORLDDATA> >,0> >::const_iterator::_Mynode
; Function compile flags: /Ogty
;	COMDAT ?_Mynode@const_iterator@?$_Tree@V?$_Tmap_traits@KU_WORLDDATA@CQuizDBCtrl@@U?$less@K@std@@V?$allocator@U?$pair@$$CBKU_WORLDDATA@CQuizDBCtrl@@@std@@@4@$0A@@std@@@std@@QBEPAU_Node@?$_Tree_nod@V?$_Tmap_traits@KU_WORLDDATA@CQuizDBCtrl@@U?$less@K@std@@V?$allocator@U?$pair@$$CBKU_WORLDDATA@CQuizDBCtrl@@@std@@@4@$0A@@std@@@3@XZ
_TEXT	SEGMENT
?_Mynode@const_iterator@?$_Tree@V?$_Tmap_traits@KU_WORLDDATA@CQuizDBCtrl@@U?$less@K@std@@V?$allocator@U?$pair@$$CBKU_WORLDDATA@CQuizDBCtrl@@@std@@@4@$0A@@std@@@std@@QBEPAU_Node@?$_Tree_nod@V?$_Tmap_traits@KU_WORLDDATA@CQuizDBCtrl@@U?$less@K@std@@V?$allocator@U?$pair@$$CBKU_WORLDDATA@CQuizDBCtrl@@@std@@@4@$0A@@std@@@3@XZ PROC NEAR ; std::_Tree<std::_Tmap_traits<unsigned long,CQuizDBCtrl::_WORLDDATA,std::less<unsigned long>,std::allocator<std::pair<unsigned long const ,CQuizDBCtrl::_WORLDDATA> >,0> >::const_iterator::_Mynode, COMDAT
; _this$ = ecx

; 284  : 			return (_Ptr);

  00000	8b 01		 mov	 eax, DWORD PTR [ecx]

; 285  : 			}

  00002	c3		 ret	 0
?_Mynode@const_iterator@?$_Tree@V?$_Tmap_traits@KU_WORLDDATA@CQuizDBCtrl@@U?$less@K@std@@V?$allocator@U?$pair@$$CBKU_WORLDDATA@CQuizDBCtrl@@@std@@@4@$0A@@std@@@std@@QBEPAU_Node@?$_Tree_nod@V?$_Tmap_traits@KU_WORLDDATA@CQuizDBCtrl@@U?$less@K@std@@V?$allocator@U?$pair@$$CBKU_WORLDDATA@CQuizDBCtrl@@@std@@@4@$0A@@std@@@3@XZ ENDP ; std::_Tree<std::_Tmap_traits<unsigned long,CQuizDBCtrl::_WORLDDATA,std::less<unsigned long>,std::allocator<std::pair<unsigned long const ,CQuizDBCtrl::_WORLDDATA> >,0> >::const_iterator::_Mynode
_TEXT	ENDS
PUBLIC	??0?$pair@Viterator@?$_Tree@V?$_Tmap_traits@KU_WORLDDATA@CQuizDBCtrl@@U?$less@K@std@@V?$allocator@U?$pair@$$CBKU_WORLDDATA@CQuizDBCtrl@@@std@@@4@$0A@@std@@@std@@_N@std@@QAE@ABViterator@?$_Tree@V?$_Tmap_traits@KU_WORLDDATA@CQuizDBCtrl@@U?$less@K@std@@V?$allocator@U?$pair@$$CBKU_WORLDDATA@CQuizDBCtrl@@@std@@@4@$0A@@std@@@1@AB_N@Z ; std::pair<std::_Tree<std::_Tmap_traits<unsigned long,CQuizDBCtrl::_WORLDDATA,std::less<unsigned long>,std::allocator<std::pair<unsigned long const ,CQuizDBCtrl::_WORLDDATA> >,0> >::iterator,bool>::pair<std::_Tree<std::_Tmap_traits<unsigned long,CQuizDBCtrl::_WORLDDATA,std::less<unsigned long>,std::allocator<std::pair<unsigned long const ,CQuizDBCtrl::_WORLDDATA> >,0> >::iterator,bool>
; Function compile flags: /Ogty
; File c:\program files\microsoft visual studio .net 2003\vc7\include\utility
;	COMDAT ??0?$pair@Viterator@?$_Tree@V?$_Tmap_traits@KU_WORLDDATA@CQuizDBCtrl@@U?$less@K@std@@V?$allocator@U?$pair@$$CBKU_WORLDDATA@CQuizDBCtrl@@@std@@@4@$0A@@std@@@std@@_N@std@@QAE@ABViterator@?$_Tree@V?$_Tmap_traits@KU_WORLDDATA@CQuizDBCtrl@@U?$less@K@std@@V?$allocator@U?$pair@$$CBKU_WORLDDATA@CQuizDBCtrl@@@std@@@4@$0A@@std@@@1@AB_N@Z
_TEXT	SEGMENT
__Val1$ = 8						; size = 4
__Val2$ = 12						; size = 4
??0?$pair@Viterator@?$_Tree@V?$_Tmap_traits@KU_WORLDDATA@CQuizDBCtrl@@U?$less@K@std@@V?$allocator@U?$pair@$$CBKU_WORLDDATA@CQuizDBCtrl@@@std@@@4@$0A@@std@@@std@@_N@std@@QAE@ABViterator@?$_Tree@V?$_Tmap_traits@KU_WORLDDATA@CQuizDBCtrl@@U?$less@K@std@@V?$allocator@U?$pair@$$CBKU_WORLDDATA@CQuizDBCtrl@@@std@@@4@$0A@@std@@@1@AB_N@Z PROC NEAR ; std::pair<std::_Tree<std::_Tmap_traits<unsigned long,CQuizDBCtrl::_WORLDDATA,std::less<unsigned long>,std::allocator<std::pair<unsigned long const ,CQuizDBCtrl::_WORLDDATA> >,0> >::iterator,bool>::pair<std::_Tree<std::_Tmap_traits<unsigned long,CQuizDBCtrl::_WORLDDATA,std::less<unsigned long>,std::allocator<std::pair<unsigned long const ,CQuizDBCtrl::_WORLDDATA> >,0> >::iterator,bool>, COMDAT
; _this$ = ecx

; 34   : 		{	// construct from specified values

  00000	8b c1		 mov	 eax, ecx
  00002	8b 4c 24 04	 mov	 ecx, DWORD PTR __Val1$[esp-4]
  00006	8b 11		 mov	 edx, DWORD PTR [ecx]
  00008	8b 4c 24 08	 mov	 ecx, DWORD PTR __Val2$[esp-4]
  0000c	89 10		 mov	 DWORD PTR [eax], edx
  0000e	8a 11		 mov	 dl, BYTE PTR [ecx]
  00010	88 50 04	 mov	 BYTE PTR [eax+4], dl

; 35   : 		}

  00013	c2 08 00	 ret	 8
??0?$pair@Viterator@?$_Tree@V?$_Tmap_traits@KU_WORLDDATA@CQuizDBCtrl@@U?$less@K@std@@V?$allocator@U?$pair@$$CBKU_WORLDDATA@CQuizDBCtrl@@@std@@@4@$0A@@std@@@std@@_N@std@@QAE@ABViterator@?$_Tree@V?$_Tmap_traits@KU_WORLDDATA@CQuizDBCtrl@@U?$less@K@std@@V?$allocator@U?$pair@$$CBKU_WORLDDATA@CQuizDBCtrl@@@std@@@4@$0A@@std@@@1@AB_N@Z ENDP ; std::pair<std::_Tree<std::_Tmap_traits<unsigned long,CQuizDBCtrl::_WORLDDATA,std::less<unsigned long>,std::allocator<std::pair<unsigned long const ,CQuizDBCtrl::_WORLDDATA> >,0> >::iterator,bool>::pair<std::_Tree<std::_Tmap_traits<unsigned long,CQuizDBCtrl::_WORLDDATA,std::less<unsigned long>,std::allocator<std::pair<unsigned long const ,CQuizDBCtrl::_WORLDDATA> >,0> >::iterator,bool>
_TEXT	ENDS
PUBLIC	?_Myval@?$_Tree@V?$_Tmap_traits@KU_WORLDDATA@CQuizDBCtrl@@U?$less@K@std@@V?$allocator@U?$pair@$$CBKU_WORLDDATA@CQuizDBCtrl@@@std@@@4@$0A@@std@@@std@@KAAAU?$pair@$$CBKU_WORLDDATA@CQuizDBCtrl@@@2@PAU_Node@?$_Tree_nod@V?$_Tmap_traits@KU_WORLDDATA@CQuizDBCtrl@@U?$less@K@std@@V?$allocator@U?$pair@$$CBKU_WORLDDATA@CQuizDBCtrl@@@std@@@4@$0A@@std@@@2@@Z ; std::_Tree<std::_Tmap_traits<unsigned long,CQuizDBCtrl::_WORLDDATA,std::less<unsigned long>,std::allocator<std::pair<unsigned long const ,CQuizDBCtrl::_WORLDDATA> >,0> >::_Myval
; Function compile flags: /Ogty
; File c:\program files\microsoft visual studio .net 2003\vc7\include\xtree
;	COMDAT ?_Myval@?$_Tree@V?$_Tmap_traits@KU_WORLDDATA@CQuizDBCtrl@@U?$less@K@std@@V?$allocator@U?$pair@$$CBKU_WORLDDATA@CQuizDBCtrl@@@std@@@4@$0A@@std@@@std@@KAAAU?$pair@$$CBKU_WORLDDATA@CQuizDBCtrl@@@2@PAU_Node@?$_Tree_nod@V?$_Tmap_traits@KU_WORLDDATA@CQuizDBCtrl@@U?$less@K@std@@V?$allocator@U?$pair@$$CBKU_WORLDDATA@CQuizDBCtrl@@@std@@@4@$0A@@std@@@2@@Z
_TEXT	SEGMENT
__Pnode$ = 8						; size = 4
?_Myval@?$_Tree@V?$_Tmap_traits@KU_WORLDDATA@CQuizDBCtrl@@U?$less@K@std@@V?$allocator@U?$pair@$$CBKU_WORLDDATA@CQuizDBCtrl@@@std@@@4@$0A@@std@@@std@@KAAAU?$pair@$$CBKU_WORLDDATA@CQuizDBCtrl@@@2@PAU_Node@?$_Tree_nod@V?$_Tmap_traits@KU_WORLDDATA@CQuizDBCtrl@@U?$less@K@std@@V?$allocator@U?$pair@$$CBKU_WORLDDATA@CQuizDBCtrl@@@std@@@4@$0A@@std@@@2@@Z PROC NEAR ; std::_Tree<std::_Tmap_traits<unsigned long,CQuizDBCtrl::_WORLDDATA,std::less<unsigned long>,std::allocator<std::pair<unsigned long const ,CQuizDBCtrl::_WORLDDATA> >,0> >::_Myval, COMDAT

; 162  : 		return ((_Vref)(*_Pnode)._Myval);

  00000	8b 44 24 04	 mov	 eax, DWORD PTR __Pnode$[esp-4]
  00004	83 c0 0c	 add	 eax, 12			; 0000000cH

; 163  : 		}

  00007	c3		 ret	 0
?_Myval@?$_Tree@V?$_Tmap_traits@KU_WORLDDATA@CQuizDBCtrl@@U?$less@K@std@@V?$allocator@U?$pair@$$CBKU_WORLDDATA@CQuizDBCtrl@@@std@@@4@$0A@@std@@@std@@KAAAU?$pair@$$CBKU_WORLDDATA@CQuizDBCtrl@@@2@PAU_Node@?$_Tree_nod@V?$_Tmap_traits@KU_WORLDDATA@CQuizDBCtrl@@U?$less@K@std@@V?$allocator@U?$pair@$$CBKU_WORLDDATA@CQuizDBCtrl@@@std@@@4@$0A@@std@@@2@@Z ENDP ; std::_Tree<std::_Tmap_traits<unsigned long,CQuizDBCtrl::_WORLDDATA,std::less<unsigned long>,std::allocator<std::pair<unsigned long const ,CQuizDBCtrl::_WORLDDATA> >,0> >::_Myval
_TEXT	ENDS
PUBLIC	??0?$allocator@U?$pair@$$CBKU_WORLDDATA@CQuizDBCtrl@@@std@@@std@@QAE@ABV01@@Z ; std::allocator<std::pair<unsigned long const ,CQuizDBCtrl::_WORLDDATA> >::allocator<std::pair<unsigned long const ,CQuizDBCtrl::_WORLDDATA> >
; Function compile flags: /Ogty
; File c:\program files\microsoft visual studio .net 2003\vc7\include\xmemory
;	COMDAT ??0?$allocator@U?$pair@$$CBKU_WORLDDATA@CQuizDBCtrl@@@std@@@std@@QAE@ABV01@@Z
_TEXT	SEGMENT
___formal$ = 8						; size = 4
??0?$allocator@U?$pair@$$CBKU_WORLDDATA@CQuizDBCtrl@@@std@@@std@@QAE@ABV01@@Z PROC NEAR ; std::allocator<std::pair<unsigned long const ,CQuizDBCtrl::_WORLDDATA> >::allocator<std::pair<unsigned long const ,CQuizDBCtrl::_WORLDDATA> >, COMDAT
; _this$ = ecx

; 115  : 	allocator(const allocator<_Ty>&)

  00000	8b c1		 mov	 eax, ecx

; 116  : 		{	// construct by copying (do nothing)
; 117  : 		}

  00002	c2 04 00	 ret	 4
??0?$allocator@U?$pair@$$CBKU_WORLDDATA@CQuizDBCtrl@@@std@@@std@@QAE@ABV01@@Z ENDP ; std::allocator<std::pair<unsigned long const ,CQuizDBCtrl::_WORLDDATA> >::allocator<std::pair<unsigned long const ,CQuizDBCtrl::_WORLDDATA> >
_TEXT	ENDS
PUBLIC	?deallocate@?$allocator@U_QUIZLIST@CQuiz@@@std@@QAEXPAU_QUIZLIST@CQuiz@@I@Z ; std::allocator<CQuiz::_QUIZLIST>::deallocate
; Function compile flags: /Ogty
;	COMDAT ?deallocate@?$allocator@U_QUIZLIST@CQuiz@@@std@@QAEXPAU_QUIZLIST@CQuiz@@I@Z
_TEXT	SEGMENT
__Ptr$ = 8						; size = 4
___formal$ = 12						; size = 4
?deallocate@?$allocator@U_QUIZLIST@CQuiz@@@std@@QAEXPAU_QUIZLIST@CQuiz@@I@Z PROC NEAR ; std::allocator<CQuiz::_QUIZLIST>::deallocate, COMDAT
; _this$ = ecx

; 132  : 		operator delete(_Ptr);

  00000	8b 44 24 04	 mov	 eax, DWORD PTR __Ptr$[esp-4]
  00004	50		 push	 eax
  00005	e8 00 00 00 00	 call	 ??3@YAXPAX@Z		; operator delete
  0000a	59		 pop	 ecx

; 133  : 		}

  0000b	c2 08 00	 ret	 8
?deallocate@?$allocator@U_QUIZLIST@CQuiz@@@std@@QAEXPAU_QUIZLIST@CQuiz@@I@Z ENDP ; std::allocator<CQuiz::_QUIZLIST>::deallocate
_TEXT	ENDS
PUBLIC	??0const_iterator@?$_Tree@V?$_Tmap_traits@KU_WORLDDATA@CQuizDBCtrl@@U?$less@K@std@@V?$allocator@U?$pair@$$CBKU_WORLDDATA@CQuizDBCtrl@@@std@@@4@$0A@@std@@@std@@QAE@PAU_Node@?$_Tree_nod@V?$_Tmap_traits@KU_WORLDDATA@CQuizDBCtrl@@U?$less@K@std@@V?$allocator@U?$pair@$$CBKU_WORLDDATA@CQuizDBCtrl@@@std@@@4@$0A@@std@@@2@@Z ; std::_Tree<std::_Tmap_traits<unsigned long,CQuizDBCtrl::_WORLDDATA,std::less<unsigned long>,std::allocator<std::pair<unsigned long const ,CQuizDBCtrl::_WORLDDATA> >,0> >::const_iterator::const_iterator
; Function compile flags: /Ogty
; File c:\program files\microsoft visual studio .net 2003\vc7\include\xtree
;	COMDAT ??0const_iterator@?$_Tree@V?$_Tmap_traits@KU_WORLDDATA@CQuizDBCtrl@@U?$less@K@std@@V?$allocator@U?$pair@$$CBKU_WORLDDATA@CQuizDBCtrl@@@std@@@4@$0A@@std@@@std@@QAE@PAU_Node@?$_Tree_nod@V?$_Tmap_traits@KU_WORLDDATA@CQuizDBCtrl@@U?$less@K@std@@V?$allocator@U?$pair@$$CBKU_WORLDDATA@CQuizDBCtrl@@@std@@@4@$0A@@std@@@2@@Z
_TEXT	SEGMENT
__Pnode$ = 8						; size = 4
??0const_iterator@?$_Tree@V?$_Tmap_traits@KU_WORLDDATA@CQuizDBCtrl@@U?$less@K@std@@V?$allocator@U?$pair@$$CBKU_WORLDDATA@CQuizDBCtrl@@@std@@@4@$0A@@std@@@std@@QAE@PAU_Node@?$_Tree_nod@V?$_Tmap_traits@KU_WORLDDATA@CQuizDBCtrl@@U?$less@K@std@@V?$allocator@U?$pair@$$CBKU_WORLDDATA@CQuizDBCtrl@@@std@@@4@$0A@@std@@@2@@Z PROC NEAR ; std::_Tree<std::_Tmap_traits<unsigned long,CQuizDBCtrl::_WORLDDATA,std::less<unsigned long>,std::allocator<std::pair<unsigned long const ,CQuizDBCtrl::_WORLDDATA> >,0> >::const_iterator::const_iterator, COMDAT
; _this$ = ecx

; 200  : 			{	// construct with node pointer _Pnode

  00000	8b c1		 mov	 eax, ecx
  00002	8b 4c 24 04	 mov	 ecx, DWORD PTR __Pnode$[esp-4]
  00006	89 08		 mov	 DWORD PTR [eax], ecx

; 201  : 			}

  00008	c2 04 00	 ret	 4
??0const_iterator@?$_Tree@V?$_Tmap_traits@KU_WORLDDATA@CQuizDBCtrl@@U?$less@K@std@@V?$allocator@U?$pair@$$CBKU_WORLDDATA@CQuizDBCtrl@@@std@@@4@$0A@@std@@@std@@QAE@PAU_Node@?$_Tree_nod@V?$_Tmap_traits@KU_WORLDDATA@CQuizDBCtrl@@U?$less@K@std@@V?$allocator@U?$pair@$$CBKU_WORLDDATA@CQuizDBCtrl@@@std@@@4@$0A@@std@@@2@@Z ENDP ; std::_Tree<std::_Tmap_traits<unsigned long,CQuizDBCtrl::_WORLDDATA,std::less<unsigned long>,std::allocator<std::pair<unsigned long const ,CQuizDBCtrl::_WORLDDATA> >,0> >::const_iterator::const_iterator
_TEXT	ENDS
PUBLIC	??Dconst_iterator@?$_Tree@V?$_Tmap_traits@KU_WORLDDATA@CQuizDBCtrl@@U?$less@K@std@@V?$allocator@U?$pair@$$CBKU_WORLDDATA@CQuizDBCtrl@@@std@@@4@$0A@@std@@@std@@QBEABU?$pair@$$CBKU_WORLDDATA@CQuizDBCtrl@@@2@XZ ; std::_Tree<std::_Tmap_traits<unsigned long,CQuizDBCtrl::_WORLDDATA,std::less<unsigned long>,std::allocator<std::pair<unsigned long const ,CQuizDBCtrl::_WORLDDATA> >,0> >::const_iterator::operator*
; Function compile flags: /Ogty
;	COMDAT ??Dconst_iterator@?$_Tree@V?$_Tmap_traits@KU_WORLDDATA@CQuizDBCtrl@@U?$less@K@std@@V?$allocator@U?$pair@$$CBKU_WORLDDATA@CQuizDBCtrl@@@std@@@4@$0A@@std@@@std@@QBEABU?$pair@$$CBKU_WORLDDATA@CQuizDBCtrl@@@2@XZ
_TEXT	SEGMENT
??Dconst_iterator@?$_Tree@V?$_Tmap_traits@KU_WORLDDATA@CQuizDBCtrl@@U?$less@K@std@@V?$allocator@U?$pair@$$CBKU_WORLDDATA@CQuizDBCtrl@@@std@@@4@$0A@@std@@@std@@QBEABU?$pair@$$CBKU_WORLDDATA@CQuizDBCtrl@@@2@XZ PROC NEAR ; std::_Tree<std::_Tmap_traits<unsigned long,CQuizDBCtrl::_WORLDDATA,std::less<unsigned long>,std::allocator<std::pair<unsigned long const ,CQuizDBCtrl::_WORLDDATA> >,0> >::const_iterator::operator*, COMDAT
; _this$ = ecx

; 205  : 			return (_Myval(_Ptr));

  00000	8b 01		 mov	 eax, DWORD PTR [ecx]
  00002	83 c0 0c	 add	 eax, 12			; 0000000cH

; 206  : 			}

  00005	c3		 ret	 0
??Dconst_iterator@?$_Tree@V?$_Tmap_traits@KU_WORLDDATA@CQuizDBCtrl@@U?$less@K@std@@V?$allocator@U?$pair@$$CBKU_WORLDDATA@CQuizDBCtrl@@@std@@@4@$0A@@std@@@std@@QBEABU?$pair@$$CBKU_WORLDDATA@CQuizDBCtrl@@@2@XZ ENDP ; std::_Tree<std::_Tmap_traits<unsigned long,CQuizDBCtrl::_WORLDDATA,std::less<unsigned long>,std::allocator<std::pair<unsigned long const ,CQuizDBCtrl::_WORLDDATA> >,0> >::const_iterator::operator*
_TEXT	ENDS
PUBLIC	?_Inc@const_iterator@?$_Tree@V?$_Tmap_traits@KU_WORLDDATA@CQuizDBCtrl@@U?$less@K@std@@V?$allocator@U?$pair@$$CBKU_WORLDDATA@CQuizDBCtrl@@@std@@@4@$0A@@std@@@std@@QAEXXZ ; std::_Tree<std::_Tmap_traits<unsigned long,CQuizDBCtrl::_WORLDDATA,std::less<unsigned long>,std::allocator<std::pair<unsigned long const ,CQuizDBCtrl::_WORLDDATA> >,0> >::const_iterator::_Inc
; Function compile flags: /Ogty
;	COMDAT ?_Inc@const_iterator@?$_Tree@V?$_Tmap_traits@KU_WORLDDATA@CQuizDBCtrl@@U?$less@K@std@@V?$allocator@U?$pair@$$CBKU_WORLDDATA@CQuizDBCtrl@@@std@@@4@$0A@@std@@@std@@QAEXXZ
_TEXT	SEGMENT
?_Inc@const_iterator@?$_Tree@V?$_Tmap_traits@KU_WORLDDATA@CQuizDBCtrl@@U?$less@K@std@@V?$allocator@U?$pair@$$CBKU_WORLDDATA@CQuizDBCtrl@@@std@@@4@$0A@@std@@@std@@QAEXXZ PROC NEAR ; std::_Tree<std::_Tmap_traits<unsigned long,CQuizDBCtrl::_WORLDDATA,std::less<unsigned long>,std::allocator<std::pair<unsigned long const ,CQuizDBCtrl::_WORLDDATA> >,0> >::const_iterator::_Inc, COMDAT
; _this$ = ecx

; 268  : 			if (_Isnil(_Ptr))

  00000	8b 01		 mov	 eax, DWORD PTR [ecx]
  00002	8a 50 2d	 mov	 dl, BYTE PTR [eax+45]
  00005	84 d2		 test	 dl, dl
  00007	75 4d		 jne	 SHORT $L205004

; 269  : 				;	// end() shouldn't be incremented, don't move
; 270  : 			else if (!_Isnil(_Right(_Ptr)))

  00009	8b 50 08	 mov	 edx, DWORD PTR [eax+8]
  0000c	53		 push	 ebx
  0000d	8a 5a 2d	 mov	 bl, BYTE PTR [edx+45]
  00010	84 db		 test	 bl, bl
  00012	75 1b		 jne	 SHORT $L206274

; 271  : 				_Ptr = _Min(_Right(_Ptr));	// ==> smallest of right subtree

  00014	8b 02		 mov	 eax, DWORD PTR [edx]
  00016	8a 58 2d	 mov	 bl, BYTE PTR [eax+45]
  00019	84 db		 test	 bl, bl
  0001b	75 0e		 jne	 SHORT $L206262
  0001d	8d 49 00	 npad	 3
$L206261:
  00020	8b d0		 mov	 edx, eax
  00022	8b 02		 mov	 eax, DWORD PTR [edx]
  00024	8a 58 2d	 mov	 bl, BYTE PTR [eax+45]
  00027	84 db		 test	 bl, bl
  00029	74 f5		 je	 SHORT $L206261
$L206262:
  0002b	89 11		 mov	 DWORD PTR [ecx], edx
  0002d	5b		 pop	 ebx

; 279  : 				}
; 280  : 			}

  0002e	c3		 ret	 0
$L206274:

; 272  : 			else
; 273  : 				{	// climb looking for right subtree
; 274  : 				_Nodeptr _Pnode;
; 275  : 				while (!_Isnil(_Pnode = _Parent(_Ptr))
; 276  : 					&& _Ptr == _Right(_Pnode))

  0002f	8b 40 04	 mov	 eax, DWORD PTR [eax+4]
  00032	8a 50 2d	 mov	 dl, BYTE PTR [eax+45]
  00035	84 d2		 test	 dl, dl
  00037	75 1a		 jne	 SHORT $L205008
  00039	8d a4 24 00 00
	00 00		 npad	 7
$L205007:
  00040	8b 11		 mov	 edx, DWORD PTR [ecx]
  00042	3b 50 08	 cmp	 edx, DWORD PTR [eax+8]
  00045	75 0c		 jne	 SHORT $L205008

; 277  : 					_Ptr = _Pnode;	// ==> parent while right subtree

  00047	89 01		 mov	 DWORD PTR [ecx], eax
  00049	8b 40 04	 mov	 eax, DWORD PTR [eax+4]
  0004c	8a 50 2d	 mov	 dl, BYTE PTR [eax+45]
  0004f	84 d2		 test	 dl, dl
  00051	74 ed		 je	 SHORT $L205007
$L205008:

; 278  : 				_Ptr = _Pnode;	// ==> parent (head if end())

  00053	89 01		 mov	 DWORD PTR [ecx], eax
  00055	5b		 pop	 ebx
$L205004:

; 279  : 				}
; 280  : 			}

  00056	c3		 ret	 0
?_Inc@const_iterator@?$_Tree@V?$_Tmap_traits@KU_WORLDDATA@CQuizDBCtrl@@U?$less@K@std@@V?$allocator@U?$pair@$$CBKU_WORLDDATA@CQuizDBCtrl@@@std@@@4@$0A@@std@@@std@@QAEXXZ ENDP ; std::_Tree<std::_Tmap_traits<unsigned long,CQuizDBCtrl::_WORLDDATA,std::less<unsigned long>,std::allocator<std::pair<unsigned long const ,CQuizDBCtrl::_WORLDDATA> >,0> >::const_iterator::_Inc
_TEXT	ENDS
PUBLIC	??Yiterator@?$vector@U_QUIZLIST@CQuiz@@V?$allocator@U_QUIZLIST@CQuiz@@@std@@@std@@QAEAAV012@H@Z ; std::vector<CQuiz::_QUIZLIST,std::allocator<CQuiz::_QUIZLIST> >::iterator::operator+=
; Function compile flags: /Ogty
; File c:\program files\microsoft visual studio .net 2003\vc7\include\vector
;	COMDAT ??Yiterator@?$vector@U_QUIZLIST@CQuiz@@V?$allocator@U_QUIZLIST@CQuiz@@@std@@@std@@QAEAAV012@H@Z
_TEXT	SEGMENT
__Off$ = 8						; size = 4
??Yiterator@?$vector@U_QUIZLIST@CQuiz@@V?$allocator@U_QUIZLIST@CQuiz@@@std@@@std@@QAEAAV012@H@Z PROC NEAR ; std::vector<CQuiz::_QUIZLIST,std::allocator<CQuiz::_QUIZLIST> >::iterator::operator+=, COMDAT
; _this$ = ecx

; 255  : 			{	// increment by integer

  00000	8b c1		 mov	 eax, ecx

; 256  : 			this->_Myptr += _Off;

  00002	8b 4c 24 04	 mov	 ecx, DWORD PTR __Off$[esp-4]
  00006	8b 10		 mov	 edx, DWORD PTR [eax]
  00008	8d 0c 89	 lea	 ecx, DWORD PTR [ecx+ecx*4]
  0000b	c1 e1 02	 shl	 ecx, 2
  0000e	03 d1		 add	 edx, ecx
  00010	89 10		 mov	 DWORD PTR [eax], edx

; 257  : 			return (*this);
; 258  : 			}

  00012	c2 04 00	 ret	 4
??Yiterator@?$vector@U_QUIZLIST@CQuiz@@V?$allocator@U_QUIZLIST@CQuiz@@@std@@@std@@QAEAAV012@H@Z ENDP ; std::vector<CQuiz::_QUIZLIST,std::allocator<CQuiz::_QUIZLIST> >::iterator::operator+=
_TEXT	ENDS
PUBLIC	??Dconst_iterator@?$vector@U_QUIZLIST@CQuiz@@V?$allocator@U_QUIZLIST@CQuiz@@@std@@@std@@QBEABU_QUIZLIST@CQuiz@@XZ ; std::vector<CQuiz::_QUIZLIST,std::allocator<CQuiz::_QUIZLIST> >::const_iterator::operator*
; Function compile flags: /Ogty
;	COMDAT ??Dconst_iterator@?$vector@U_QUIZLIST@CQuiz@@V?$allocator@U_QUIZLIST@CQuiz@@@std@@@std@@QBEABU_QUIZLIST@CQuiz@@XZ
_TEXT	SEGMENT
??Dconst_iterator@?$vector@U_QUIZLIST@CQuiz@@V?$allocator@U_QUIZLIST@CQuiz@@@std@@@std@@QBEABU_QUIZLIST@CQuiz@@XZ PROC NEAR ; std::vector<CQuiz::_QUIZLIST,std::allocator<CQuiz::_QUIZLIST> >::const_iterator::operator*, COMDAT
; _this$ = ecx

; 80   : 
; 81   : 
; 82   : 			return (*_Myptr);

  00000	8b 01		 mov	 eax, DWORD PTR [ecx]

; 83   : 			}

  00002	c3		 ret	 0
??Dconst_iterator@?$vector@U_QUIZLIST@CQuiz@@V?$allocator@U_QUIZLIST@CQuiz@@@std@@@std@@QBEABU_QUIZLIST@CQuiz@@XZ ENDP ; std::vector<CQuiz::_QUIZLIST,std::allocator<CQuiz::_QUIZLIST> >::const_iterator::operator*
_TEXT	ENDS
PUBLIC	?_Root@?$_Tree@V?$_Tmap_traits@KU_WORLDDATA@CQuizDBCtrl@@U?$less@K@std@@V?$allocator@U?$pair@$$CBKU_WORLDDATA@CQuizDBCtrl@@@std@@@4@$0A@@std@@@std@@IBEAAPAU_Node@?$_Tree_nod@V?$_Tmap_traits@KU_WORLDDATA@CQuizDBCtrl@@U?$less@K@std@@V?$allocator@U?$pair@$$CBKU_WORLDDATA@CQuizDBCtrl@@@std@@@4@$0A@@std@@@2@XZ ; std::_Tree<std::_Tmap_traits<unsigned long,CQuizDBCtrl::_WORLDDATA,std::less<unsigned long>,std::allocator<std::pair<unsigned long const ,CQuizDBCtrl::_WORLDDATA> >,0> >::_Root
; Function compile flags: /Ogty
; File c:\program files\microsoft visual studio .net 2003\vc7\include\xtree
;	COMDAT ?_Root@?$_Tree@V?$_Tmap_traits@KU_WORLDDATA@CQuizDBCtrl@@U?$less@K@std@@V?$allocator@U?$pair@$$CBKU_WORLDDATA@CQuizDBCtrl@@@std@@@4@$0A@@std@@@std@@IBEAAPAU_Node@?$_Tree_nod@V?$_Tmap_traits@KU_WORLDDATA@CQuizDBCtrl@@U?$less@K@std@@V?$allocator@U?$pair@$$CBKU_WORLDDATA@CQuizDBCtrl@@@std@@@4@$0A@@std@@@2@XZ
_TEXT	SEGMENT
?_Root@?$_Tree@V?$_Tmap_traits@KU_WORLDDATA@CQuizDBCtrl@@U?$less@K@std@@V?$allocator@U?$pair@$$CBKU_WORLDDATA@CQuizDBCtrl@@@std@@@4@$0A@@std@@@std@@IBEAAPAU_Node@?$_Tree_nod@V?$_Tmap_traits@KU_WORLDDATA@CQuizDBCtrl@@U?$less@K@std@@V?$allocator@U?$pair@$$CBKU_WORLDDATA@CQuizDBCtrl@@@std@@@4@$0A@@std@@@2@XZ PROC NEAR ; std::_Tree<std::_Tmap_traits<unsigned long,CQuizDBCtrl::_WORLDDATA,std::less<unsigned long>,std::allocator<std::pair<unsigned long const ,CQuizDBCtrl::_WORLDDATA> >,0> >::_Root, COMDAT
; _this$ = ecx

; 1064 : 		return (_Parent(_Myhead));

  00000	8b 41 04	 mov	 eax, DWORD PTR [ecx+4]
  00003	83 c0 04	 add	 eax, 4

; 1065 : 		}

  00006	c3		 ret	 0
?_Root@?$_Tree@V?$_Tmap_traits@KU_WORLDDATA@CQuizDBCtrl@@U?$less@K@std@@V?$allocator@U?$pair@$$CBKU_WORLDDATA@CQuizDBCtrl@@@std@@@4@$0A@@std@@@std@@IBEAAPAU_Node@?$_Tree_nod@V?$_Tmap_traits@KU_WORLDDATA@CQuizDBCtrl@@U?$less@K@std@@V?$allocator@U?$pair@$$CBKU_WORLDDATA@CQuizDBCtrl@@@std@@@4@$0A@@std@@@2@XZ ENDP ; std::_Tree<std::_Tmap_traits<unsigned long,CQuizDBCtrl::_WORLDDATA,std::less<unsigned long>,std::allocator<std::pair<unsigned long const ,CQuizDBCtrl::_WORLDDATA> >,0> >::_Root
_TEXT	ENDS
PUBLIC	?max_size@?$allocator@U?$pair@$$CBKU_WORLDDATA@CQuizDBCtrl@@@std@@@std@@QBEIXZ ; std::allocator<std::pair<unsigned long const ,CQuizDBCtrl::_WORLDDATA> >::max_size
; Function compile flags: /Ogty
; File c:\program files\microsoft visual studio .net 2003\vc7\include\xmemory
;	COMDAT ?max_size@?$allocator@U?$pair@$$CBKU_WORLDDATA@CQuizDBCtrl@@@std@@@std@@QBEIXZ
_TEXT	SEGMENT
?max_size@?$allocator@U?$pair@$$CBKU_WORLDDATA@CQuizDBCtrl@@@std@@@std@@QBEIXZ PROC NEAR ; std::allocator<std::pair<unsigned long const ,CQuizDBCtrl::_WORLDDATA> >::max_size, COMDAT
; _this$ = ecx

; 157  : 		_SIZT _Count = (_SIZT)(-1) / sizeof (_Ty);
; 158  : 		return (0 < _Count ? _Count : 1);

  00000	b8 ff ff ff 07	 mov	 eax, 134217727		; 07ffffffH

; 159  : 		}

  00005	c3		 ret	 0
?max_size@?$allocator@U?$pair@$$CBKU_WORLDDATA@CQuizDBCtrl@@@std@@@std@@QBEIXZ ENDP ; std::allocator<std::pair<unsigned long const ,CQuizDBCtrl::_WORLDDATA> >::max_size
_TEXT	ENDS
PUBLIC	?_Dec@const_iterator@?$_Tree@V?$_Tmap_traits@KU_WORLDDATA@CQuizDBCtrl@@U?$less@K@std@@V?$allocator@U?$pair@$$CBKU_WORLDDATA@CQuizDBCtrl@@@std@@@4@$0A@@std@@@std@@QAEXXZ ; std::_Tree<std::_Tmap_traits<unsigned long,CQuizDBCtrl::_WORLDDATA,std::less<unsigned long>,std::allocator<std::pair<unsigned long const ,CQuizDBCtrl::_WORLDDATA> >,0> >::const_iterator::_Dec
; Function compile flags: /Ogty
; File c:\program files\microsoft visual studio .net 2003\vc7\include\xtree
;	COMDAT ?_Dec@const_iterator@?$_Tree@V?$_Tmap_traits@KU_WORLDDATA@CQuizDBCtrl@@U?$less@K@std@@V?$allocator@U?$pair@$$CBKU_WORLDDATA@CQuizDBCtrl@@@std@@@4@$0A@@std@@@std@@QAEXXZ
_TEXT	SEGMENT
?_Dec@const_iterator@?$_Tree@V?$_Tmap_traits@KU_WORLDDATA@CQuizDBCtrl@@U?$less@K@std@@V?$allocator@U?$pair@$$CBKU_WORLDDATA@CQuizDBCtrl@@@std@@@4@$0A@@std@@@std@@QAEXXZ PROC NEAR ; std::_Tree<std::_Tmap_traits<unsigned long,CQuizDBCtrl::_WORLDDATA,std::less<unsigned long>,std::allocator<std::pair<unsigned long const ,CQuizDBCtrl::_WORLDDATA> >,0> >::const_iterator::_Dec, COMDAT
; _this$ = ecx

; 251  : 			if (_Isnil(_Ptr))

  00000	8b 01		 mov	 eax, DWORD PTR [ecx]
  00002	8a 50 2d	 mov	 dl, BYTE PTR [eax+45]
  00005	84 d2		 test	 dl, dl
  00007	74 06		 je	 SHORT $L205092

; 252  : 				_Ptr = _Right(_Ptr);	// end() ==> rightmost

  00009	8b 40 08	 mov	 eax, DWORD PTR [eax+8]
  0000c	89 01		 mov	 DWORD PTR [ecx], eax

; 263  : 				}
; 264  : 			}

  0000e	c3		 ret	 0
$L205092:

; 253  : 			else if (!_Isnil(_Left(_Ptr)))

  0000f	8b 10		 mov	 edx, DWORD PTR [eax]
  00011	53		 push	 ebx
  00012	8a 5a 2d	 mov	 bl, BYTE PTR [edx+45]
  00015	84 db		 test	 bl, bl
  00017	75 1a		 jne	 SHORT $L206344

; 254  : 				_Ptr = _Max(_Left(_Ptr));	// ==> largest of left subtree

  00019	8b 42 08	 mov	 eax, DWORD PTR [edx+8]
  0001c	8a 58 2d	 mov	 bl, BYTE PTR [eax+45]
  0001f	84 db		 test	 bl, bl
  00021	75 0c		 jne	 SHORT $L206329
$L206328:
  00023	8b d0		 mov	 edx, eax
  00025	8b 42 08	 mov	 eax, DWORD PTR [edx+8]
  00028	8a 58 2d	 mov	 bl, BYTE PTR [eax+45]
  0002b	84 db		 test	 bl, bl
  0002d	74 f4		 je	 SHORT $L206328
$L206329:
  0002f	89 11		 mov	 DWORD PTR [ecx], edx
  00031	5b		 pop	 ebx

; 263  : 				}
; 264  : 			}

  00032	c3		 ret	 0
$L206344:

; 255  : 			else
; 256  : 				{	// climb looking for left subtree
; 257  : 				_Nodeptr _Pnode;
; 258  : 				while (!_Isnil(_Pnode = _Parent(_Ptr))
; 259  : 					&& _Ptr == _Left(_Pnode))

  00033	8b 40 04	 mov	 eax, DWORD PTR [eax+4]
  00036	8a 50 2d	 mov	 dl, BYTE PTR [eax+45]
  00039	84 d2		 test	 dl, dl
  0003b	75 1e		 jne	 SHORT $L206347
  0003d	8d 49 00	 npad	 3
$L205098:
  00040	8b 11		 mov	 edx, DWORD PTR [ecx]
  00042	3b 10		 cmp	 edx, DWORD PTR [eax]
  00044	75 0c		 jne	 SHORT $L205099

; 260  : 					_Ptr = _Pnode;	// ==> parent while left subtree

  00046	89 01		 mov	 DWORD PTR [ecx], eax
  00048	8b 40 04	 mov	 eax, DWORD PTR [eax+4]
  0004b	8a 50 2d	 mov	 dl, BYTE PTR [eax+45]
  0004e	84 d2		 test	 dl, dl
  00050	74 ee		 je	 SHORT $L205098
$L205099:

; 261  : 				if (!_Isnil(_Pnode))

  00052	8a 50 2d	 mov	 dl, BYTE PTR [eax+45]
  00055	84 d2		 test	 dl, dl
  00057	75 02		 jne	 SHORT $L206347

; 262  : 					_Ptr = _Pnode;	// ==> parent if not head

  00059	89 01		 mov	 DWORD PTR [ecx], eax
$L206347:
  0005b	5b		 pop	 ebx

; 263  : 				}
; 264  : 			}

  0005c	c3		 ret	 0
?_Dec@const_iterator@?$_Tree@V?$_Tmap_traits@KU_WORLDDATA@CQuizDBCtrl@@U?$less@K@std@@V?$allocator@U?$pair@$$CBKU_WORLDDATA@CQuizDBCtrl@@@std@@@4@$0A@@std@@@std@@QAEXXZ ENDP ; std::_Tree<std::_Tmap_traits<unsigned long,CQuizDBCtrl::_WORLDDATA,std::less<unsigned long>,std::allocator<std::pair<unsigned long const ,CQuizDBCtrl::_WORLDDATA> >,0> >::const_iterator::_Dec
_TEXT	ENDS
PUBLIC	??0const_iterator@?$vector@U_QUIZLIST@CQuiz@@V?$allocator@U_QUIZLIST@CQuiz@@@std@@@std@@QAE@PAU_QUIZLIST@CQuiz@@@Z ; std::vector<CQuiz::_QUIZLIST,std::allocator<CQuiz::_QUIZLIST> >::const_iterator::const_iterator
; Function compile flags: /Ogty
; File c:\program files\microsoft visual studio .net 2003\vc7\include\vector
;	COMDAT ??0const_iterator@?$vector@U_QUIZLIST@CQuiz@@V?$allocator@U_QUIZLIST@CQuiz@@@std@@@std@@QAE@PAU_QUIZLIST@CQuiz@@@Z
_TEXT	SEGMENT
__Ptr$ = 8						; size = 4
??0const_iterator@?$vector@U_QUIZLIST@CQuiz@@V?$allocator@U_QUIZLIST@CQuiz@@@std@@@std@@QAE@PAU_QUIZLIST@CQuiz@@@Z PROC NEAR ; std::vector<CQuiz::_QUIZLIST,std::allocator<CQuiz::_QUIZLIST> >::const_iterator::const_iterator, COMDAT
; _this$ = ecx

; 73   : 		const_iterator(_Tptr _Ptr)

  00000	8b c1		 mov	 eax, ecx

; 74   : 			{	// construct with pointer _Ptr
; 75   : 			_Myptr = _Ptr;

  00002	8b 4c 24 04	 mov	 ecx, DWORD PTR __Ptr$[esp-4]
  00006	89 08		 mov	 DWORD PTR [eax], ecx

; 76   : 			}

  00008	c2 04 00	 ret	 4
??0const_iterator@?$vector@U_QUIZLIST@CQuiz@@V?$allocator@U_QUIZLIST@CQuiz@@@std@@@std@@QAE@PAU_QUIZLIST@CQuiz@@@Z ENDP ; std::vector<CQuiz::_QUIZLIST,std::allocator<CQuiz::_QUIZLIST> >::const_iterator::const_iterator
_TEXT	ENDS
PUBLIC	??Gconst_iterator@?$vector@U_QUIZLIST@CQuiz@@V?$allocator@U_QUIZLIST@CQuiz@@@std@@@std@@QBEHABV012@@Z ; std::vector<CQuiz::_QUIZLIST,std::allocator<CQuiz::_QUIZLIST> >::const_iterator::operator-
; Function compile flags: /Ogty
;	COMDAT ??Gconst_iterator@?$vector@U_QUIZLIST@CQuiz@@V?$allocator@U_QUIZLIST@CQuiz@@@std@@@std@@QBEHABV012@@Z
_TEXT	SEGMENT
__Right$ = 8						; size = 4
??Gconst_iterator@?$vector@U_QUIZLIST@CQuiz@@V?$allocator@U_QUIZLIST@CQuiz@@@std@@@std@@QBEHABV012@@Z PROC NEAR ; std::vector<CQuiz::_QUIZLIST,std::allocator<CQuiz::_QUIZLIST> >::const_iterator::operator-, COMDAT
; _this$ = ecx

; 141  : 
; 142  : 
; 143  : 			return (_Myptr - _Right._Myptr);

  00000	8b 44 24 04	 mov	 eax, DWORD PTR __Right$[esp-4]
  00004	8b 10		 mov	 edx, DWORD PTR [eax]
  00006	8b 09		 mov	 ecx, DWORD PTR [ecx]
  00008	2b ca		 sub	 ecx, edx
  0000a	b8 67 66 66 66	 mov	 eax, 1717986919		; 66666667H
  0000f	f7 e9		 imul	 ecx
  00011	c1 fa 03	 sar	 edx, 3
  00014	8b c2		 mov	 eax, edx
  00016	c1 e8 1f	 shr	 eax, 31			; 0000001fH
  00019	03 c2		 add	 eax, edx

; 144  : 			}

  0001b	c2 04 00	 ret	 4
??Gconst_iterator@?$vector@U_QUIZLIST@CQuiz@@V?$allocator@U_QUIZLIST@CQuiz@@@std@@@std@@QBEHABV012@@Z ENDP ; std::vector<CQuiz::_QUIZLIST,std::allocator<CQuiz::_QUIZLIST> >::const_iterator::operator-
_TEXT	ENDS
PUBLIC	??0_Node@?$_Tree_nod@V?$_Tmap_traits@KU_WORLDDATA@CQuizDBCtrl@@U?$less@K@std@@V?$allocator@U?$pair@$$CBKU_WORLDDATA@CQuizDBCtrl@@@std@@@4@$0A@@std@@@std@@QAE@PAU012@00ABU?$pair@$$CBKU_WORLDDATA@CQuizDBCtrl@@@2@D@Z ; std::_Tree_nod<std::_Tmap_traits<unsigned long,CQuizDBCtrl::_WORLDDATA,std::less<unsigned long>,std::allocator<std::pair<unsigned long const ,CQuizDBCtrl::_WORLDDATA> >,0> >::_Node::_Node
; Function compile flags: /Ogty
; File c:\program files\microsoft visual studio .net 2003\vc7\include\xtree
;	COMDAT ??0_Node@?$_Tree_nod@V?$_Tmap_traits@KU_WORLDDATA@CQuizDBCtrl@@U?$less@K@std@@V?$allocator@U?$pair@$$CBKU_WORLDDATA@CQuizDBCtrl@@@std@@@4@$0A@@std@@@std@@QAE@PAU012@00ABU?$pair@$$CBKU_WORLDDATA@CQuizDBCtrl@@@2@D@Z
_TEXT	SEGMENT
__Larg$ = 8						; size = 4
__Parg$ = 12						; size = 4
__Rarg$ = 16						; size = 4
__Val$ = 20						; size = 4
__Carg$ = 24						; size = 1
??0_Node@?$_Tree_nod@V?$_Tmap_traits@KU_WORLDDATA@CQuizDBCtrl@@U?$less@K@std@@V?$allocator@U?$pair@$$CBKU_WORLDDATA@CQuizDBCtrl@@@std@@@4@$0A@@std@@@std@@QAE@PAU012@00ABU?$pair@$$CBKU_WORLDDATA@CQuizDBCtrl@@@2@D@Z PROC NEAR ; std::_Tree_nod<std::_Tmap_traits<unsigned long,CQuizDBCtrl::_WORLDDATA,std::less<unsigned long>,std::allocator<std::pair<unsigned long const ,CQuizDBCtrl::_WORLDDATA> >,0> >::_Node::_Node, COMDAT
; _this$ = ecx

; 40   : 			{	// construct a node with value

  00000	8b 54 24 08	 mov	 edx, DWORD PTR __Parg$[esp-4]
  00004	8b c1		 mov	 eax, ecx
  00006	8b 4c 24 04	 mov	 ecx, DWORD PTR __Larg$[esp-4]
  0000a	56		 push	 esi
  0000b	8b 74 24 14	 mov	 esi, DWORD PTR __Val$[esp]
  0000f	89 08		 mov	 DWORD PTR [eax], ecx
  00011	8b 4c 24 10	 mov	 ecx, DWORD PTR __Rarg$[esp]
  00015	57		 push	 edi
  00016	89 48 08	 mov	 DWORD PTR [eax+8], ecx
  00019	89 50 04	 mov	 DWORD PTR [eax+4], edx
  0001c	8a 54 24 1c	 mov	 dl, BYTE PTR __Carg$[esp+4]
  00020	8d 78 0c	 lea	 edi, DWORD PTR [eax+12]
  00023	b9 08 00 00 00	 mov	 ecx, 8
  00028	f3 a5		 rep movsd
  0002a	5f		 pop	 edi
  0002b	88 50 2c	 mov	 BYTE PTR [eax+44], dl
  0002e	c6 40 2d 00	 mov	 BYTE PTR [eax+45], 0
  00032	5e		 pop	 esi

; 41   : 			}

  00033	c2 14 00	 ret	 20			; 00000014H
??0_Node@?$_Tree_nod@V?$_Tmap_traits@KU_WORLDDATA@CQuizDBCtrl@@U?$less@K@std@@V?$allocator@U?$pair@$$CBKU_WORLDDATA@CQuizDBCtrl@@@std@@@4@$0A@@std@@@std@@QAE@PAU012@00ABU?$pair@$$CBKU_WORLDDATA@CQuizDBCtrl@@@2@D@Z ENDP ; std::_Tree_nod<std::_Tmap_traits<unsigned long,CQuizDBCtrl::_WORLDDATA,std::less<unsigned long>,std::allocator<std::pair<unsigned long const ,CQuizDBCtrl::_WORLDDATA> >,0> >::_Node::_Node
_TEXT	ENDS
PUBLIC	?max_size@?$allocator@U_QUIZLIST@CQuiz@@@std@@QBEIXZ ; std::allocator<CQuiz::_QUIZLIST>::max_size
; Function compile flags: /Ogty
; File c:\program files\microsoft visual studio .net 2003\vc7\include\xmemory
;	COMDAT ?max_size@?$allocator@U_QUIZLIST@CQuiz@@@std@@QBEIXZ
_TEXT	SEGMENT
?max_size@?$allocator@U_QUIZLIST@CQuiz@@@std@@QBEIXZ PROC NEAR ; std::allocator<CQuiz::_QUIZLIST>::max_size, COMDAT
; _this$ = ecx

; 157  : 		_SIZT _Count = (_SIZT)(-1) / sizeof (_Ty);
; 158  : 		return (0 < _Count ? _Count : 1);

  00000	b8 cc cc cc 0c	 mov	 eax, 214748364		; 0cccccccH

; 159  : 		}

  00005	c3		 ret	 0
?max_size@?$allocator@U_QUIZLIST@CQuiz@@@std@@QBEIXZ ENDP ; std::allocator<CQuiz::_QUIZLIST>::max_size
_TEXT	ENDS
PUBLIC	??0?$_Tmap_traits@KU_WORLDDATA@CQuizDBCtrl@@U?$less@K@std@@V?$allocator@U?$pair@$$CBKU_WORLDDATA@CQuizDBCtrl@@@std@@@4@$0A@@std@@QAE@U?$less@K@1@@Z ; std::_Tmap_traits<unsigned long,CQuizDBCtrl::_WORLDDATA,std::less<unsigned long>,std::allocator<std::pair<unsigned long const ,CQuizDBCtrl::_WORLDDATA> >,0>::_Tmap_traits<unsigned long,CQuizDBCtrl::_WORLDDATA,std::less<unsigned long>,std::allocator<std::pair<unsigned long const ,CQuizDBCtrl::_WORLDDATA> >,0>
; Function compile flags: /Ogty
; File c:\program files\microsoft visual studio .net 2003\vc7\include\map
;	COMDAT ??0?$_Tmap_traits@KU_WORLDDATA@CQuizDBCtrl@@U?$less@K@std@@V?$allocator@U?$pair@$$CBKU_WORLDDATA@CQuizDBCtrl@@@std@@@4@$0A@@std@@QAE@U?$less@K@1@@Z
_TEXT	SEGMENT
__Parg$ = 8						; size = 1
??0?$_Tmap_traits@KU_WORLDDATA@CQuizDBCtrl@@U?$less@K@std@@V?$allocator@U?$pair@$$CBKU_WORLDDATA@CQuizDBCtrl@@@std@@@4@$0A@@std@@QAE@U?$less@K@1@@Z PROC NEAR ; std::_Tmap_traits<unsigned long,CQuizDBCtrl::_WORLDDATA,std::less<unsigned long>,std::allocator<std::pair<unsigned long const ,CQuizDBCtrl::_WORLDDATA> >,0>::_Tmap_traits<unsigned long,CQuizDBCtrl::_WORLDDATA,std::less<unsigned long>,std::allocator<std::pair<unsigned long const ,CQuizDBCtrl::_WORLDDATA> >,0>, COMDAT
; _this$ = ecx

; 38   : 		{	// construct with specified comparator

  00000	8b c1		 mov	 eax, ecx

; 39   : 		}

  00002	c2 04 00	 ret	 4
??0?$_Tmap_traits@KU_WORLDDATA@CQuizDBCtrl@@U?$less@K@std@@V?$allocator@U?$pair@$$CBKU_WORLDDATA@CQuizDBCtrl@@@std@@@4@$0A@@std@@QAE@U?$less@K@1@@Z ENDP ; std::_Tmap_traits<unsigned long,CQuizDBCtrl::_WORLDDATA,std::less<unsigned long>,std::allocator<std::pair<unsigned long const ,CQuizDBCtrl::_WORLDDATA> >,0>::_Tmap_traits<unsigned long,CQuizDBCtrl::_WORLDDATA,std::less<unsigned long>,std::allocator<std::pair<unsigned long const ,CQuizDBCtrl::_WORLDDATA> >,0>
_TEXT	ENDS
PUBLIC	??$_Destroy@U_Node@?$_Tree_nod@V?$_Tmap_traits@KU_WORLDDATA@CQuizDBCtrl@@U?$less@K@std@@V?$allocator@U?$pair@$$CBKU_WORLDDATA@CQuizDBCtrl@@@std@@@4@$0A@@std@@@std@@@std@@YAXPAU_Node@?$_Tree_nod@V?$_Tmap_traits@KU_WORLDDATA@CQuizDBCtrl@@U?$less@K@std@@V?$allocator@U?$pair@$$CBKU_WORLDDATA@CQuizDBCtrl@@@std@@@4@$0A@@std@@@0@@Z ; std::_Destroy<std::_Tree_nod<std::_Tmap_traits<unsigned long,CQuizDBCtrl::_WORLDDATA,std::less<unsigned long>,std::allocator<std::pair<unsigned long const ,CQuizDBCtrl::_WORLDDATA> >,0> >::_Node>
; Function compile flags: /Ogty
; File c:\program files\microsoft visual studio .net 2003\vc7\include\xmemory
;	COMDAT ??$_Destroy@U_Node@?$_Tree_nod@V?$_Tmap_traits@KU_WORLDDATA@CQuizDBCtrl@@U?$less@K@std@@V?$allocator@U?$pair@$$CBKU_WORLDDATA@CQuizDBCtrl@@@std@@@4@$0A@@std@@@std@@@std@@YAXPAU_Node@?$_Tree_nod@V?$_Tmap_traits@KU_WORLDDATA@CQuizDBCtrl@@U?$less@K@std@@V?$allocator@U?$pair@$$CBKU_WORLDDATA@CQuizDBCtrl@@@std@@@4@$0A@@std@@@0@@Z
_TEXT	SEGMENT
__Ptr$ = 8						; size = 4
??$_Destroy@U_Node@?$_Tree_nod@V?$_Tmap_traits@KU_WORLDDATA@CQuizDBCtrl@@U?$less@K@std@@V?$allocator@U?$pair@$$CBKU_WORLDDATA@CQuizDBCtrl@@@std@@@4@$0A@@std@@@std@@@std@@YAXPAU_Node@?$_Tree_nod@V?$_Tmap_traits@KU_WORLDDATA@CQuizDBCtrl@@U?$less@K@std@@V?$allocator@U?$pair@$$CBKU_WORLDDATA@CQuizDBCtrl@@@std@@@4@$0A@@std@@@0@@Z PROC NEAR ; std::_Destroy<std::_Tree_nod<std::_Tmap_traits<unsigned long,CQuizDBCtrl::_WORLDDATA,std::less<unsigned long>,std::allocator<std::pair<unsigned long const ,CQuizDBCtrl::_WORLDDATA> >,0> >::_Node>, COMDAT

; 49   : 	_DESTRUCTOR(_Ty, _Ptr);
; 50   : 	}

  00000	c3		 ret	 0
??$_Destroy@U_Node@?$_Tree_nod@V?$_Tmap_traits@KU_WORLDDATA@CQuizDBCtrl@@U?$less@K@std@@V?$allocator@U?$pair@$$CBKU_WORLDDATA@CQuizDBCtrl@@@std@@@4@$0A@@std@@@std@@@std@@YAXPAU_Node@?$_Tree_nod@V?$_Tmap_traits@KU_WORLDDATA@CQuizDBCtrl@@U?$less@K@std@@V?$allocator@U?$pair@$$CBKU_WORLDDATA@CQuizDBCtrl@@@std@@@4@$0A@@std@@@0@@Z ENDP ; std::_Destroy<std::_Tree_nod<std::_Tmap_traits<unsigned long,CQuizDBCtrl::_WORLDDATA,std::less<unsigned long>,std::allocator<std::pair<unsigned long const ,CQuizDBCtrl::_WORLDDATA> >,0> >::_Node>
_TEXT	ENDS
PUBLIC	??$_Destroy@PAU_Node@?$_Tree_nod@V?$_Tmap_traits@KU_WORLDDATA@CQuizDBCtrl@@U?$less@K@std@@V?$allocator@U?$pair@$$CBKU_WORLDDATA@CQuizDBCtrl@@@std@@@4@$0A@@std@@@std@@@std@@YAXPAPAU_Node@?$_Tree_nod@V?$_Tmap_traits@KU_WORLDDATA@CQuizDBCtrl@@U?$less@K@std@@V?$allocator@U?$pair@$$CBKU_WORLDDATA@CQuizDBCtrl@@@std@@@4@$0A@@std@@@0@@Z ; std::_Destroy<std::_Tree_nod<std::_Tmap_traits<unsigned long,CQuizDBCtrl::_WORLDDATA,std::less<unsigned long>,std::allocator<std::pair<unsigned long const ,CQuizDBCtrl::_WORLDDATA> >,0> >::_Node *>
; Function compile flags: /Ogty
;	COMDAT ??$_Destroy@PAU_Node@?$_Tree_nod@V?$_Tmap_traits@KU_WORLDDATA@CQuizDBCtrl@@U?$less@K@std@@V?$allocator@U?$pair@$$CBKU_WORLDDATA@CQuizDBCtrl@@@std@@@4@$0A@@std@@@std@@@std@@YAXPAPAU_Node@?$_Tree_nod@V?$_Tmap_traits@KU_WORLDDATA@CQuizDBCtrl@@U?$less@K@std@@V?$allocator@U?$pair@$$CBKU_WORLDDATA@CQuizDBCtrl@@@std@@@4@$0A@@std@@@0@@Z
_TEXT	SEGMENT
__Ptr$ = 8						; size = 4
??$_Destroy@PAU_Node@?$_Tree_nod@V?$_Tmap_traits@KU_WORLDDATA@CQuizDBCtrl@@U?$less@K@std@@V?$allocator@U?$pair@$$CBKU_WORLDDATA@CQuizDBCtrl@@@std@@@4@$0A@@std@@@std@@@std@@YAXPAPAU_Node@?$_Tree_nod@V?$_Tmap_traits@KU_WORLDDATA@CQuizDBCtrl@@U?$less@K@std@@V?$allocator@U?$pair@$$CBKU_WORLDDATA@CQuizDBCtrl@@@std@@@4@$0A@@std@@@0@@Z PROC NEAR ; std::_Destroy<std::_Tree_nod<std::_Tmap_traits<unsigned long,CQuizDBCtrl::_WORLDDATA,std::less<unsigned long>,std::allocator<std::pair<unsigned long const ,CQuizDBCtrl::_WORLDDATA> >,0> >::_Node *>, COMDAT

; 49   : 	_DESTRUCTOR(_Ty, _Ptr);
; 50   : 	}

  00000	c3		 ret	 0
??$_Destroy@PAU_Node@?$_Tree_nod@V?$_Tmap_traits@KU_WORLDDATA@CQuizDBCtrl@@U?$less@K@std@@V?$allocator@U?$pair@$$CBKU_WORLDDATA@CQuizDBCtrl@@@std@@@4@$0A@@std@@@std@@@std@@YAXPAPAU_Node@?$_Tree_nod@V?$_Tmap_traits@KU_WORLDDATA@CQuizDBCtrl@@U?$less@K@std@@V?$allocator@U?$pair@$$CBKU_WORLDDATA@CQuizDBCtrl@@@std@@@4@$0A@@std@@@0@@Z ENDP ; std::_Destroy<std::_Tree_nod<std::_Tmap_traits<unsigned long,CQuizDBCtrl::_WORLDDATA,std::less<unsigned long>,std::allocator<std::pair<unsigned long const ,CQuizDBCtrl::_WORLDDATA> >,0> >::_Node *>
_TEXT	ENDS
PUBLIC	??$?0U?$pair@$$CBKU_WORLDDATA@CQuizDBCtrl@@@std@@@?$allocator@PAU_Node@?$_Tree_nod@V?$_Tmap_traits@KU_WORLDDATA@CQuizDBCtrl@@U?$less@K@std@@V?$allocator@U?$pair@$$CBKU_WORLDDATA@CQuizDBCtrl@@@std@@@4@$0A@@std@@@std@@@std@@QAE@ABV?$allocator@U?$pair@$$CBKU_WORLDDATA@CQuizDBCtrl@@@std@@@1@@Z ; std::allocator<std::_Tree_nod<std::_Tmap_traits<unsigned long,CQuizDBCtrl::_WORLDDATA,std::less<unsigned long>,std::allocator<std::pair<unsigned long const ,CQuizDBCtrl::_WORLDDATA> >,0> >::_Node *>::allocator<std::_Tree_nod<std::_Tmap_traits<unsigned long,CQuizDBCtrl::_WORLDDATA,std::less<unsigned long>,std::allocator<std::pair<unsigned long const ,CQuizDBCtrl::_WORLDDATA> >,0> >::_Node *><std::pair<unsigned long const ,CQuizDBCtrl::_WORLDDATA> >
; Function compile flags: /Ogty
;	COMDAT ??$?0U?$pair@$$CBKU_WORLDDATA@CQuizDBCtrl@@@std@@@?$allocator@PAU_Node@?$_Tree_nod@V?$_Tmap_traits@KU_WORLDDATA@CQuizDBCtrl@@U?$less@K@std@@V?$allocator@U?$pair@$$CBKU_WORLDDATA@CQuizDBCtrl@@@std@@@4@$0A@@std@@@std@@@std@@QAE@ABV?$allocator@U?$pair@$$CBKU_WORLDDATA@CQuizDBCtrl@@@std@@@1@@Z
_TEXT	SEGMENT
___formal$ = 8						; size = 4
??$?0U?$pair@$$CBKU_WORLDDATA@CQuizDBCtrl@@@std@@@?$allocator@PAU_Node@?$_Tree_nod@V?$_Tmap_traits@KU_WORLDDATA@CQuizDBCtrl@@U?$less@K@std@@V?$allocator@U?$pair@$$CBKU_WORLDDATA@CQuizDBCtrl@@@std@@@4@$0A@@std@@@std@@@std@@QAE@ABV?$allocator@U?$pair@$$CBKU_WORLDDATA@CQuizDBCtrl@@@std@@@1@@Z PROC NEAR ; std::allocator<std::_Tree_nod<std::_Tmap_traits<unsigned long,CQuizDBCtrl::_WORLDDATA,std::less<unsigned long>,std::allocator<std::pair<unsigned long const ,CQuizDBCtrl::_WORLDDATA> >,0> >::_Node *>::allocator<std::_Tree_nod<std::_Tmap_traits<unsigned long,CQuizDBCtrl::_WORLDDATA,std::less<unsigned long>,std::allocator<std::pair<unsigned long const ,CQuizDBCtrl::_WORLDDATA> >,0> >::_Node *><std::pair<unsigned long const ,CQuizDBCtrl::_WORLDDATA> >, COMDAT
; _this$ = ecx

; 120  : 		allocator(const allocator<_Other>&)

  00000	8b c1		 mov	 eax, ecx

; 121  : 		{	// construct from a related allocator (do nothing)
; 122  : 		}

  00002	c2 04 00	 ret	 4
??$?0U?$pair@$$CBKU_WORLDDATA@CQuizDBCtrl@@@std@@@?$allocator@PAU_Node@?$_Tree_nod@V?$_Tmap_traits@KU_WORLDDATA@CQuizDBCtrl@@U?$less@K@std@@V?$allocator@U?$pair@$$CBKU_WORLDDATA@CQuizDBCtrl@@@std@@@4@$0A@@std@@@std@@@std@@QAE@ABV?$allocator@U?$pair@$$CBKU_WORLDDATA@CQuizDBCtrl@@@std@@@1@@Z ENDP ; std::allocator<std::_Tree_nod<std::_Tmap_traits<unsigned long,CQuizDBCtrl::_WORLDDATA,std::less<unsigned long>,std::allocator<std::pair<unsigned long const ,CQuizDBCtrl::_WORLDDATA> >,0> >::_Node *>::allocator<std::_Tree_nod<std::_Tmap_traits<unsigned long,CQuizDBCtrl::_WORLDDATA,std::less<unsigned long>,std::allocator<std::pair<unsigned long const ,CQuizDBCtrl::_WORLDDATA> >,0> >::_Node *><std::pair<unsigned long const ,CQuizDBCtrl::_WORLDDATA> >
_TEXT	ENDS
PUBLIC	??$_Allocate@U_Node@?$_Tree_nod@V?$_Tmap_traits@KU_WORLDDATA@CQuizDBCtrl@@U?$less@K@std@@V?$allocator@U?$pair@$$CBKU_WORLDDATA@CQuizDBCtrl@@@std@@@4@$0A@@std@@@std@@@std@@YAPAU_Node@?$_Tree_nod@V?$_Tmap_traits@KU_WORLDDATA@CQuizDBCtrl@@U?$less@K@std@@V?$allocator@U?$pair@$$CBKU_WORLDDATA@CQuizDBCtrl@@@std@@@4@$0A@@std@@@0@IPAU120@@Z ; std::_Allocate<std::_Tree_nod<std::_Tmap_traits<unsigned long,CQuizDBCtrl::_WORLDDATA,std::less<unsigned long>,std::allocator<std::pair<unsigned long const ,CQuizDBCtrl::_WORLDDATA> >,0> >::_Node>
; Function compile flags: /Ogty
;	COMDAT ??$_Allocate@U_Node@?$_Tree_nod@V?$_Tmap_traits@KU_WORLDDATA@CQuizDBCtrl@@U?$less@K@std@@V?$allocator@U?$pair@$$CBKU_WORLDDATA@CQuizDBCtrl@@@std@@@4@$0A@@std@@@std@@@std@@YAPAU_Node@?$_Tree_nod@V?$_Tmap_traits@KU_WORLDDATA@CQuizDBCtrl@@U?$less@K@std@@V?$allocator@U?$pair@$$CBKU_WORLDDATA@CQuizDBCtrl@@@std@@@4@$0A@@std@@@0@IPAU120@@Z
_TEXT	SEGMENT
__Count$ = 8						; size = 4
___formal$ = 12						; size = 4
??$_Allocate@U_Node@?$_Tree_nod@V?$_Tmap_traits@KU_WORLDDATA@CQuizDBCtrl@@U?$less@K@std@@V?$allocator@U?$pair@$$CBKU_WORLDDATA@CQuizDBCtrl@@@std@@@4@$0A@@std@@@std@@@std@@YAPAU_Node@?$_Tree_nod@V?$_Tmap_traits@KU_WORLDDATA@CQuizDBCtrl@@U?$less@K@std@@V?$allocator@U?$pair@$$CBKU_WORLDDATA@CQuizDBCtrl@@@std@@@4@$0A@@std@@@0@IPAU120@@Z PROC NEAR ; std::_Allocate<std::_Tree_nod<std::_Tmap_traits<unsigned long,CQuizDBCtrl::_WORLDDATA,std::less<unsigned long>,std::allocator<std::pair<unsigned long const ,CQuizDBCtrl::_WORLDDATA> >,0> >::_Node>, COMDAT

; 34   : 	return ((_Ty _FARQ *)operator new(_Count * sizeof (_Ty)));

  00000	8b 44 24 04	 mov	 eax, DWORD PTR __Count$[esp-4]
  00004	8d 04 40	 lea	 eax, DWORD PTR [eax+eax*2]
  00007	c1 e0 04	 shl	 eax, 4
  0000a	50		 push	 eax
  0000b	e8 00 00 00 00	 call	 ??2@YAPAXI@Z		; operator new
  00010	83 c4 04	 add	 esp, 4

; 35   : 	}

  00013	c3		 ret	 0
??$_Allocate@U_Node@?$_Tree_nod@V?$_Tmap_traits@KU_WORLDDATA@CQuizDBCtrl@@U?$less@K@std@@V?$allocator@U?$pair@$$CBKU_WORLDDATA@CQuizDBCtrl@@@std@@@4@$0A@@std@@@std@@@std@@YAPAU_Node@?$_Tree_nod@V?$_Tmap_traits@KU_WORLDDATA@CQuizDBCtrl@@U?$less@K@std@@V?$allocator@U?$pair@$$CBKU_WORLDDATA@CQuizDBCtrl@@@std@@@4@$0A@@std@@@0@IPAU120@@Z ENDP ; std::_Allocate<std::_Tree_nod<std::_Tmap_traits<unsigned long,CQuizDBCtrl::_WORLDDATA,std::less<unsigned long>,std::allocator<std::pair<unsigned long const ,CQuizDBCtrl::_WORLDDATA> >,0> >::_Node>
_TEXT	ENDS
PUBLIC	??$_Allocate@U_QUIZLIST@CQuiz@@@std@@YAPAU_QUIZLIST@CQuiz@@IPAU12@@Z ; std::_Allocate<CQuiz::_QUIZLIST>
; Function compile flags: /Ogty
;	COMDAT ??$_Allocate@U_QUIZLIST@CQuiz@@@std@@YAPAU_QUIZLIST@CQuiz@@IPAU12@@Z
_TEXT	SEGMENT
__Count$ = 8						; size = 4
___formal$ = 12						; size = 4
??$_Allocate@U_QUIZLIST@CQuiz@@@std@@YAPAU_QUIZLIST@CQuiz@@IPAU12@@Z PROC NEAR ; std::_Allocate<CQuiz::_QUIZLIST>, COMDAT

; 34   : 	return ((_Ty _FARQ *)operator new(_Count * sizeof (_Ty)));

  00000	8b 44 24 04	 mov	 eax, DWORD PTR __Count$[esp-4]
  00004	8d 04 80	 lea	 eax, DWORD PTR [eax+eax*4]
  00007	c1 e0 02	 shl	 eax, 2
  0000a	50		 push	 eax
  0000b	e8 00 00 00 00	 call	 ??2@YAPAXI@Z		; operator new
  00010	83 c4 04	 add	 esp, 4

; 35   : 	}

  00013	c3		 ret	 0
??$_Allocate@U_QUIZLIST@CQuiz@@@std@@YAPAU_QUIZLIST@CQuiz@@IPAU12@@Z ENDP ; std::_Allocate<CQuiz::_QUIZLIST>
_TEXT	ENDS
PUBLIC	??$?0U?$pair@$$CBKU_WORLDDATA@CQuizDBCtrl@@@std@@@?$allocator@U_Node@?$_Tree_nod@V?$_Tmap_traits@KU_WORLDDATA@CQuizDBCtrl@@U?$less@K@std@@V?$allocator@U?$pair@$$CBKU_WORLDDATA@CQuizDBCtrl@@@std@@@4@$0A@@std@@@std@@@std@@QAE@ABV?$allocator@U?$pair@$$CBKU_WORLDDATA@CQuizDBCtrl@@@std@@@1@@Z ; std::allocator<std::_Tree_nod<std::_Tmap_traits<unsigned long,CQuizDBCtrl::_WORLDDATA,std::less<unsigned long>,std::allocator<std::pair<unsigned long const ,CQuizDBCtrl::_WORLDDATA> >,0> >::_Node>::allocator<std::_Tree_nod<std::_Tmap_traits<unsigned long,CQuizDBCtrl::_WORLDDATA,std::less<unsigned long>,std::allocator<std::pair<unsigned long const ,CQuizDBCtrl::_WORLDDATA> >,0> >::_Node><std::pair<unsigned long const ,CQuizDBCtrl::_WORLDDATA> >
; Function compile flags: /Ogty
;	COMDAT ??$?0U?$pair@$$CBKU_WORLDDATA@CQuizDBCtrl@@@std@@@?$allocator@U_Node@?$_Tree_nod@V?$_Tmap_traits@KU_WORLDDATA@CQuizDBCtrl@@U?$less@K@std@@V?$allocator@U?$pair@$$CBKU_WORLDDATA@CQuizDBCtrl@@@std@@@4@$0A@@std@@@std@@@std@@QAE@ABV?$allocator@U?$pair@$$CBKU_WORLDDATA@CQuizDBCtrl@@@std@@@1@@Z
_TEXT	SEGMENT
___formal$ = 8						; size = 4
??$?0U?$pair@$$CBKU_WORLDDATA@CQuizDBCtrl@@@std@@@?$allocator@U_Node@?$_Tree_nod@V?$_Tmap_traits@KU_WORLDDATA@CQuizDBCtrl@@U?$less@K@std@@V?$allocator@U?$pair@$$CBKU_WORLDDATA@CQuizDBCtrl@@@std@@@4@$0A@@std@@@std@@@std@@QAE@ABV?$allocator@U?$pair@$$CBKU_WORLDDATA@CQuizDBCtrl@@@std@@@1@@Z PROC NEAR ; std::allocator<std::_Tree_nod<std::_Tmap_traits<unsigned long,CQuizDBCtrl::_WORLDDATA,std::less<unsigned long>,std::allocator<std::pair<unsigned long const ,CQuizDBCtrl::_WORLDDATA> >,0> >::_Node>::allocator<std::_Tree_nod<std::_Tmap_traits<unsigned long,CQuizDBCtrl::_WORLDDATA,std::less<unsigned long>,std::allocator<std::pair<unsigned long const ,CQuizDBCtrl::_WORLDDATA> >,0> >::_Node><std::pair<unsigned long const ,CQuizDBCtrl::_WORLDDATA> >, COMDAT
; _this$ = ecx

; 120  : 		allocator(const allocator<_Other>&)

  00000	8b c1		 mov	 eax, ecx

; 121  : 		{	// construct from a related allocator (do nothing)
; 122  : 		}

  00002	c2 04 00	 ret	 4
??$?0U?$pair@$$CBKU_WORLDDATA@CQuizDBCtrl@@@std@@@?$allocator@U_Node@?$_Tree_nod@V?$_Tmap_traits@KU_WORLDDATA@CQuizDBCtrl@@U?$less@K@std@@V?$allocator@U?$pair@$$CBKU_WORLDDATA@CQuizDBCtrl@@@std@@@4@$0A@@std@@@std@@@std@@QAE@ABV?$allocator@U?$pair@$$CBKU_WORLDDATA@CQuizDBCtrl@@@std@@@1@@Z ENDP ; std::allocator<std::_Tree_nod<std::_Tmap_traits<unsigned long,CQuizDBCtrl::_WORLDDATA,std::less<unsigned long>,std::allocator<std::pair<unsigned long const ,CQuizDBCtrl::_WORLDDATA> >,0> >::_Node>::allocator<std::_Tree_nod<std::_Tmap_traits<unsigned long,CQuizDBCtrl::_WORLDDATA,std::less<unsigned long>,std::allocator<std::pair<unsigned long const ,CQuizDBCtrl::_WORLDDATA> >,0> >::_Node><std::pair<unsigned long const ,CQuizDBCtrl::_WORLDDATA> >
_TEXT	ENDS
PUBLIC	??$_Construct@PAU_Node@?$_Tree_nod@V?$_Tmap_traits@KU_WORLDDATA@CQuizDBCtrl@@U?$less@K@std@@V?$allocator@U?$pair@$$CBKU_WORLDDATA@CQuizDBCtrl@@@std@@@4@$0A@@std@@@std@@PAU123@@std@@YAXPAPAU_Node@?$_Tree_nod@V?$_Tmap_traits@KU_WORLDDATA@CQuizDBCtrl@@U?$less@K@std@@V?$allocator@U?$pair@$$CBKU_WORLDDATA@CQuizDBCtrl@@@std@@@4@$0A@@std@@@0@ABQAU120@@Z ; std::_Construct<std::_Tree_nod<std::_Tmap_traits<unsigned long,CQuizDBCtrl::_WORLDDATA,std::less<unsigned long>,std::allocator<std::pair<unsigned long const ,CQuizDBCtrl::_WORLDDATA> >,0> >::_Node *,std::_Tree_nod<std::_Tmap_traits<unsigned long,CQuizDBCtrl::_WORLDDATA,std::less<unsigned long>,std::allocator<std::pair<unsigned long const ,CQuizDBCtrl::_WORLDDATA> >,0> >::_Node *>
; Function compile flags: /Ogty
;	COMDAT ??$_Construct@PAU_Node@?$_Tree_nod@V?$_Tmap_traits@KU_WORLDDATA@CQuizDBCtrl@@U?$less@K@std@@V?$allocator@U?$pair@$$CBKU_WORLDDATA@CQuizDBCtrl@@@std@@@4@$0A@@std@@@std@@PAU123@@std@@YAXPAPAU_Node@?$_Tree_nod@V?$_Tmap_traits@KU_WORLDDATA@CQuizDBCtrl@@U?$less@K@std@@V?$allocator@U?$pair@$$CBKU_WORLDDATA@CQuizDBCtrl@@@std@@@4@$0A@@std@@@0@ABQAU120@@Z
_TEXT	SEGMENT
__Ptr$ = 8						; size = 4
__Val$ = 12						; size = 4
??$_Construct@PAU_Node@?$_Tree_nod@V?$_Tmap_traits@KU_WORLDDATA@CQuizDBCtrl@@U?$less@K@std@@V?$allocator@U?$pair@$$CBKU_WORLDDATA@CQuizDBCtrl@@@std@@@4@$0A@@std@@@std@@PAU123@@std@@YAXPAPAU_Node@?$_Tree_nod@V?$_Tmap_traits@KU_WORLDDATA@CQuizDBCtrl@@U?$less@K@std@@V?$allocator@U?$pair@$$CBKU_WORLDDATA@CQuizDBCtrl@@@std@@@4@$0A@@std@@@0@ABQAU120@@Z PROC NEAR ; std::_Construct<std::_Tree_nod<std::_Tmap_traits<unsigned long,CQuizDBCtrl::_WORLDDATA,std::less<unsigned long>,std::allocator<std::pair<unsigned long const ,CQuizDBCtrl::_WORLDDATA> >,0> >::_Node *,std::_Tree_nod<std::_Tmap_traits<unsigned long,CQuizDBCtrl::_WORLDDATA,std::less<unsigned long>,std::allocator<std::pair<unsigned long const ,CQuizDBCtrl::_WORLDDATA> >,0> >::_Node *>, COMDAT

; 42   : 	new ((void _FARQ *)_Ptr) _T1(_Val);

  00000	8b 44 24 04	 mov	 eax, DWORD PTR __Ptr$[esp-4]
  00004	85 c0		 test	 eax, eax
  00006	74 08		 je	 SHORT $L206376
  00008	8b 4c 24 08	 mov	 ecx, DWORD PTR __Val$[esp-4]
  0000c	8b 11		 mov	 edx, DWORD PTR [ecx]
  0000e	89 10		 mov	 DWORD PTR [eax], edx
$L206376:

; 43   : 	}

  00010	c3		 ret	 0
??$_Construct@PAU_Node@?$_Tree_nod@V?$_Tmap_traits@KU_WORLDDATA@CQuizDBCtrl@@U?$less@K@std@@V?$allocator@U?$pair@$$CBKU_WORLDDATA@CQuizDBCtrl@@@std@@@4@$0A@@std@@@std@@PAU123@@std@@YAXPAPAU_Node@?$_Tree_nod@V?$_Tmap_traits@KU_WORLDDATA@CQuizDBCtrl@@U?$less@K@std@@V?$allocator@U?$pair@$$CBKU_WORLDDATA@CQuizDBCtrl@@@std@@@4@$0A@@std@@@0@ABQAU120@@Z ENDP ; std::_Construct<std::_Tree_nod<std::_Tmap_traits<unsigned long,CQuizDBCtrl::_WORLDDATA,std::less<unsigned long>,std::allocator<std::pair<unsigned long const ,CQuizDBCtrl::_WORLDDATA> >,0> >::_Node *,std::_Tree_nod<std::_Tmap_traits<unsigned long,CQuizDBCtrl::_WORLDDATA,std::less<unsigned long>,std::allocator<std::pair<unsigned long const ,CQuizDBCtrl::_WORLDDATA> >,0> >::_Node *>
_TEXT	ENDS
PUBLIC	??$_Ptr_cat@PAU_QUIZLIST@CQuiz@@PAU12@@std@@YA?AU_Nonscalar_ptr_iterator_tag@0@AAPAU_QUIZLIST@CQuiz@@0@Z ; std::_Ptr_cat<CQuiz::_QUIZLIST *,CQuiz::_QUIZLIST *>
; Function compile flags: /Ogty
; File c:\program files\microsoft visual studio .net 2003\vc7\include\xutility
;	COMDAT ??$_Ptr_cat@PAU_QUIZLIST@CQuiz@@PAU12@@std@@YA?AU_Nonscalar_ptr_iterator_tag@0@AAPAU_QUIZLIST@CQuiz@@0@Z
_TEXT	SEGMENT
__Cat$ = -1						; size = 1
___formal$ = 8						; size = 4
___formal$ = 12						; size = 4
??$_Ptr_cat@PAU_QUIZLIST@CQuiz@@PAU12@@std@@YA?AU_Nonscalar_ptr_iterator_tag@0@AAPAU_QUIZLIST@CQuiz@@0@Z PROC NEAR ; std::_Ptr_cat<CQuiz::_QUIZLIST *,CQuiz::_QUIZLIST *>, COMDAT

; 211  : 	{	// return pointer category from arbitrary arguments

  00000	51		 push	 ecx

; 212  : 	_Nonscalar_ptr_iterator_tag _Cat;
; 213  : 	return (_Cat);

  00001	8a 44 24 03	 mov	 al, BYTE PTR __Cat$[esp+4]

; 214  : 	}

  00005	59		 pop	 ecx
  00006	c3		 ret	 0
??$_Ptr_cat@PAU_QUIZLIST@CQuiz@@PAU12@@std@@YA?AU_Nonscalar_ptr_iterator_tag@0@AAPAU_QUIZLIST@CQuiz@@0@Z ENDP ; std::_Ptr_cat<CQuiz::_QUIZLIST *,CQuiz::_QUIZLIST *>
_TEXT	ENDS
PUBLIC	?assign@?$char_traits@D@std@@SAXAADABD@Z	; std::char_traits<char>::assign
; Function compile flags: /Ogty
; File c:\program files\microsoft visual studio .net 2003\vc7\include\iosfwd
;	COMDAT ?assign@?$char_traits@D@std@@SAXAADABD@Z
_TEXT	SEGMENT
__Left$ = 8						; size = 4
__Right$ = 12						; size = 4
?assign@?$char_traits@D@std@@SAXAADABD@Z PROC NEAR	; std::char_traits<char>::assign, COMDAT

; 331  : 		_Left = _Right;

  00000	8b 44 24 08	 mov	 eax, DWORD PTR __Right$[esp-4]
  00004	8a 08		 mov	 cl, BYTE PTR [eax]
  00006	8b 54 24 04	 mov	 edx, DWORD PTR __Left$[esp-4]
  0000a	88 0a		 mov	 BYTE PTR [edx], cl

; 332  : 		}

  0000c	c3		 ret	 0
?assign@?$char_traits@D@std@@SAXAADABD@Z ENDP		; std::char_traits<char>::assign
_TEXT	ENDS
PUBLIC	?length@?$char_traits@D@std@@SAIPBD@Z		; std::char_traits<char>::length
; Function compile flags: /Ogty
;	COMDAT ?length@?$char_traits@D@std@@SAIPBD@Z
_TEXT	SEGMENT
__First$ = 8						; size = 4
?length@?$char_traits@D@std@@SAIPBD@Z PROC NEAR		; std::char_traits<char>::length, COMDAT

; 352  : 		return (::strlen(_First));

  00000	8b 44 24 04	 mov	 eax, DWORD PTR __First$[esp-4]
  00004	8d 50 01	 lea	 edx, DWORD PTR [eax+1]
$L206387:
  00007	8a 08		 mov	 cl, BYTE PTR [eax]
  00009	40		 inc	 eax
  0000a	84 c9		 test	 cl, cl
  0000c	75 f9		 jne	 SHORT $L206387
  0000e	2b c2		 sub	 eax, edx

; 353  : 		}

  00010	c3		 ret	 0
?length@?$char_traits@D@std@@SAIPBD@Z ENDP		; std::char_traits<char>::length
_TEXT	ENDS
PUBLIC	?copy@?$char_traits@D@std@@SAPADPADPBDI@Z	; std::char_traits<char>::copy
; Function compile flags: /Ogty
;	COMDAT ?copy@?$char_traits@D@std@@SAPADPADPBDI@Z
_TEXT	SEGMENT
__First1$ = 8						; size = 4
__First2$ = 12						; size = 4
__Count$ = 16						; size = 4
?copy@?$char_traits@D@std@@SAPADPADPBDI@Z PROC NEAR	; std::char_traits<char>::copy, COMDAT

; 358  : 		return ((_Elem *)::memcpy(_First1, _First2, _Count));

  00000	8b 4c 24 0c	 mov	 ecx, DWORD PTR __Count$[esp-4]
  00004	56		 push	 esi
  00005	8b 74 24 0c	 mov	 esi, DWORD PTR __First2$[esp]
  00009	57		 push	 edi
  0000a	8b 7c 24 0c	 mov	 edi, DWORD PTR __First1$[esp+4]
  0000e	8b c1		 mov	 eax, ecx
  00010	8b d7		 mov	 edx, edi
  00012	c1 e9 02	 shr	 ecx, 2
  00015	f3 a5		 rep movsd
  00017	8b c8		 mov	 ecx, eax
  00019	83 e1 03	 and	 ecx, 3
  0001c	f3 a4		 rep movsb
  0001e	5f		 pop	 edi
  0001f	8b c2		 mov	 eax, edx
  00021	5e		 pop	 esi

; 359  : 		}

  00022	c3		 ret	 0
?copy@?$char_traits@D@std@@SAPADPADPBDI@Z ENDP		; std::char_traits<char>::copy
_TEXT	ENDS
PUBLIC	?move@?$char_traits@D@std@@SAPADPADPBDI@Z	; std::char_traits<char>::move
EXTRN	_memmove:NEAR
; Function compile flags: /Ogty
;	COMDAT ?move@?$char_traits@D@std@@SAPADPADPBDI@Z
_TEXT	SEGMENT
__First1$ = 8						; size = 4
__First2$ = 12						; size = 4
__Count$ = 16						; size = 4
?move@?$char_traits@D@std@@SAPADPADPBDI@Z PROC NEAR	; std::char_traits<char>::move, COMDAT

; 370  : 		return ((_Elem *)::memmove(_First1, _First2, _Count));

  00000	e9 00 00 00 00	 jmp	 _memmove
?move@?$char_traits@D@std@@SAPADPADPBDI@Z ENDP		; std::char_traits<char>::move
_TEXT	ENDS
PUBLIC	?time_null@@YAJXZ				; time_null
EXTRN	_time:NEAR
; Function compile flags: /Ogty
; File c:\documents and settings\test\mes documents\source\virtuos_v17\build\program\_network\cmnhdr.h
;	COMDAT ?time_null@@YAJXZ
_TEXT	SEGMENT
?time_null@@YAJXZ PROC NEAR				; time_null, COMDAT

; 702  : #if defined(__WORLDSERVER) || defined(__CLIENT)
; 703  : 	return	g_tCurrent;
; 704  : #else	//
; 705  : 	return time( NULL );

  00000	6a 00		 push	 0
  00002	e8 00 00 00 00	 call	 _time
  00007	83 c4 04	 add	 esp, 4

; 706  : #endif	//
; 707  : }

  0000a	c3		 ret	 0
?time_null@@YAJXZ ENDP					; time_null
_TEXT	ENDS
PUBLIC	?xRand@@YAKXZ					; xRand
EXTRN	?g_next@@3KA:DWORD				; g_next
; Function compile flags: /Ogty
; File c:\documents and settings\test\mes documents\source\virtuos_v17\build\program\_common\xutil.h
;	COMDAT ?xRand@@YAKXZ
_TEXT	SEGMENT
?xRand@@YAKXZ PROC NEAR					; xRand, COMDAT

; 16   : 	g_next = g_next * 1103515245 + 12345;// + nRandomSeed[ i++ ];

  00000	a1 00 00 00 00	 mov	 eax, DWORD PTR ?g_next@@3KA ; g_next
  00005	69 c0 6d 4e c6
	41		 imul	 eax, 1103515245		; 41c64e6dH
  0000b	05 39 30 00 00	 add	 eax, 12345		; 00003039H
  00010	a3 00 00 00 00	 mov	 DWORD PTR ?g_next@@3KA, eax ; g_next

; 17   : 	return g_next;	//   .
; 18   : }

  00015	c3		 ret	 0
?xRand@@YAKXZ ENDP					; xRand
_TEXT	ENDS
PUBLIC	??5CAr@@QAEAAV0@AAK@Z				; CAr::operator>>
; Function compile flags: /Ogty
; File c:\documents and settings\test\mes documents\source\virtuos_v17\build\program\_network\misc\include\ar.h
;	COMDAT ??5CAr@@QAEAAV0@AAK@Z
_TEXT	SEGMENT
_dw$ = 8						; size = 4
??5CAr@@QAEAAV0@AAK@Z PROC NEAR				; CAr::operator>>, COMDAT
; _this$ = ecx

; 146  : 	{	CAR_SAFE_READ( DWORD, dw );	}

  00000	8b c1		 mov	 eax, ecx
  00002	8b 48 08	 mov	 ecx, DWORD PTR [eax+8]
  00005	56		 push	 esi
  00006	8b 70 0c	 mov	 esi, DWORD PTR [eax+12]
  00009	8d 51 04	 lea	 edx, DWORD PTR [ecx+4]
  0000c	3b d6		 cmp	 edx, esi
  0000e	5e		 pop	 esi
  0000f	77 0f		 ja	 SHORT $L162868
  00011	8b 09		 mov	 ecx, DWORD PTR [ecx]
  00013	8b 54 24 04	 mov	 edx, DWORD PTR _dw$[esp-4]
  00017	89 0a		 mov	 DWORD PTR [edx], ecx
  00019	83 40 08 04	 add	 DWORD PTR [eax+8], 4
  0001d	c2 04 00	 ret	 4
$L162868:
  00020	8b 4c 24 04	 mov	 ecx, DWORD PTR _dw$[esp-4]
  00024	c7 01 00 00 00
	00		 mov	 DWORD PTR [ecx], 0
  0002a	8b 50 0c	 mov	 edx, DWORD PTR [eax+12]
  0002d	89 50 08	 mov	 DWORD PTR [eax+8], edx
  00030	c2 04 00	 ret	 4
??5CAr@@QAEAAV0@AAK@Z ENDP				; CAr::operator>>
_TEXT	ENDS
PUBLIC	??5CAr@@QAEAAV0@AAJ@Z				; CAr::operator>>
; Function compile flags: /Ogty
;	COMDAT ??5CAr@@QAEAAV0@AAJ@Z
_TEXT	SEGMENT
_l$ = 8							; size = 4
??5CAr@@QAEAAV0@AAJ@Z PROC NEAR				; CAr::operator>>, COMDAT
; _this$ = ecx

; 152  : 	{	CAR_SAFE_READ( LONG, l );	}

  00000	8b c1		 mov	 eax, ecx
  00002	8b 48 08	 mov	 ecx, DWORD PTR [eax+8]
  00005	56		 push	 esi
  00006	8b 70 0c	 mov	 esi, DWORD PTR [eax+12]
  00009	8d 51 04	 lea	 edx, DWORD PTR [ecx+4]
  0000c	3b d6		 cmp	 edx, esi
  0000e	5e		 pop	 esi
  0000f	77 0f		 ja	 SHORT $L162898
  00011	8b 09		 mov	 ecx, DWORD PTR [ecx]
  00013	8b 54 24 04	 mov	 edx, DWORD PTR _l$[esp-4]
  00017	89 0a		 mov	 DWORD PTR [edx], ecx
  00019	83 40 08 04	 add	 DWORD PTR [eax+8], 4
  0001d	c2 04 00	 ret	 4
$L162898:
  00020	8b 4c 24 04	 mov	 ecx, DWORD PTR _l$[esp-4]
  00024	c7 01 00 00 00
	00		 mov	 DWORD PTR [ecx], 0
  0002a	8b 50 0c	 mov	 edx, DWORD PTR [eax+12]
  0002d	89 50 08	 mov	 DWORD PTR [eax+8], edx
  00030	c2 04 00	 ret	 4
??5CAr@@QAEAAV0@AAJ@Z ENDP				; CAr::operator>>
_TEXT	ENDS
PUBLIC	?SetSerialNumber@CItemBase@@QAEXK@Z		; CItemBase::SetSerialNumber
; Function compile flags: /Ogty
; File c:\documents and settings\test\mes documents\source\virtuos_v17\build\program\_network\objects\obj.h
;	COMDAT ?SetSerialNumber@CItemBase@@QAEXK@Z
_TEXT	SEGMENT
_liSerialNumber$ = 8					; size = 4
?SetSerialNumber@CItemBase@@QAEXK@Z PROC NEAR		; CItemBase::SetSerialNumber, COMDAT
; _this$ = ecx

; 143  : 	void	SetSerialNumber( SERIALNUMBER liSerialNumber )	{	m_liSerialNumber	= liSerialNumber;	}

  00000	8b 44 24 04	 mov	 eax, DWORD PTR _liSerialNumber$[esp-4]
  00004	89 41 30	 mov	 DWORD PTR [ecx+48], eax
  00007	c2 04 00	 ret	 4
?SetSerialNumber@CItemBase@@QAEXK@Z ENDP		; CItemBase::SetSerialNumber
_TEXT	ENDS
PUBLIC	?size@?$basic_string@DU?$char_traits@D@std@@V?$allocator@D@2@@std@@QBEIXZ ; std::basic_string<char,std::char_traits<char>,std::allocator<char> >::size
; Function compile flags: /Ogty
; File c:\program files\microsoft visual studio .net 2003\vc7\include\xstring
;	COMDAT ?size@?$basic_string@DU?$char_traits@D@std@@V?$allocator@D@2@@std@@QBEIXZ
_TEXT	SEGMENT
?size@?$basic_string@DU?$char_traits@D@std@@V?$allocator@D@2@@std@@QBEIXZ PROC NEAR ; std::basic_string<char,std::char_traits<char>,std::allocator<char> >::size, COMDAT
; _this$ = ecx

; 1109 : 		return (_Mysize);

  00000	8b 41 14	 mov	 eax, DWORD PTR [ecx+20]

; 1110 : 		}

  00003	c3		 ret	 0
?size@?$basic_string@DU?$char_traits@D@std@@V?$allocator@D@2@@std@@QBEIXZ ENDP ; std::basic_string<char,std::char_traits<char>,std::allocator<char> >::size
_TEXT	ENDS
PUBLIC	?GetString@?$CSimpleStringT@D$0A@@ATL@@QBEPBDXZ	; ATL::CSimpleStringT<char,0>::GetString
; Function compile flags: /Ogty
; File c:\program files\microsoft visual studio .net 2003\vc7\atlmfc\include\atlsimpstr.h
;	COMDAT ?GetString@?$CSimpleStringT@D$0A@@ATL@@QBEPBDXZ
_TEXT	SEGMENT
?GetString@?$CSimpleStringT@D$0A@@ATL@@QBEPBDXZ PROC NEAR ; ATL::CSimpleStringT<char,0>::GetString, COMDAT
; _this$ = ecx

; 510  : 		return( m_pszData );

  00000	8b 01		 mov	 eax, DWORD PTR [ecx]

; 511  : 	}

  00002	c3		 ret	 0
?GetString@?$CSimpleStringT@D$0A@@ATL@@QBEPBDXZ ENDP	; ATL::CSimpleStringT<char,0>::GetString
_TEXT	ENDS
PUBLIC	?StringLength@?$CSimpleStringT@D$0A@@ATL@@SAHPBD@Z ; ATL::CSimpleStringT<char,0>::StringLength
; Function compile flags: /Ogty
;	COMDAT ?StringLength@?$CSimpleStringT@D$0A@@ATL@@SAHPBD@Z
_TEXT	SEGMENT
_psz$ = 8						; size = 4
?StringLength@?$CSimpleStringT@D$0A@@ATL@@SAHPBD@Z PROC NEAR ; ATL::CSimpleStringT<char,0>::StringLength, COMDAT

; 678  : 		if( psz == NULL )

  00000	8b 44 24 04	 mov	 eax, DWORD PTR _psz$[esp-4]
  00004	85 c0		 test	 eax, eax
  00006	75 01		 jne	 SHORT $L184226

; 683  : 	}

  00008	c3		 ret	 0
$L184226:

; 679  : 		{
; 680  : 			return( 0 );
; 681  : 		}
; 682  : 		return( int( strlen( psz ) ) );

  00009	8d 50 01	 lea	 edx, DWORD PTR [eax+1]
  0000c	8d 64 24 00	 npad	 4
$L206409:
  00010	8a 08		 mov	 cl, BYTE PTR [eax]
  00012	40		 inc	 eax
  00013	84 c9		 test	 cl, cl
  00015	75 f9		 jne	 SHORT $L206409
  00017	2b c2		 sub	 eax, edx

; 683  : 	}

  00019	c3		 ret	 0
?StringLength@?$CSimpleStringT@D$0A@@ATL@@SAHPBD@Z ENDP	; ATL::CSimpleStringT<char,0>::StringLength
_TEXT	ENDS
PUBLIC	?GetData@?$CSimpleStringT@D$0A@@ATL@@ABEPAUCStringData@2@XZ ; ATL::CSimpleStringT<char,0>::GetData
; Function compile flags: /Ogty
;	COMDAT ?GetData@?$CSimpleStringT@D$0A@@ATL@@ABEPAUCStringData@2@XZ
_TEXT	SEGMENT
?GetData@?$CSimpleStringT@D$0A@@ATL@@ABEPAUCStringData@2@XZ PROC NEAR ; ATL::CSimpleStringT<char,0>::GetData, COMDAT
; _this$ = ecx

; 731  : 		return( reinterpret_cast< CStringData* >( m_pszData )-1 );

  00000	8b 01		 mov	 eax, DWORD PTR [ecx]
  00002	83 e8 10	 sub	 eax, 16			; 00000010H

; 732  : 	}

  00005	c3		 ret	 0
?GetData@?$CSimpleStringT@D$0A@@ATL@@ABEPAUCStringData@2@XZ ENDP ; ATL::CSimpleStringT<char,0>::GetData
_TEXT	ENDS
PUBLIC	?SetLength@?$CSimpleStringT@D$0A@@ATL@@AAEXH@Z	; ATL::CSimpleStringT<char,0>::SetLength
; Function compile flags: /Ogty
;	COMDAT ?SetLength@?$CSimpleStringT@D$0A@@ATL@@AAEXH@Z
_TEXT	SEGMENT
_nLength$ = 8						; size = 4
?SetLength@?$CSimpleStringT@D$0A@@ATL@@AAEXH@Z PROC NEAR ; ATL::CSimpleStringT<char,0>::SetLength, COMDAT
; _this$ = ecx

; 790  : 		ATLASSERT( nLength >= 0 );
; 791  : 		ATLASSERT( nLength <= GetData()->nAllocLength );
; 792  : 
; 793  : 		if( nLength < 0 || nLength > GetData()->nAllocLength)

  00000	8b 44 24 04	 mov	 eax, DWORD PTR _nLength$[esp-4]
  00004	85 c0		 test	 eax, eax
  00006	7c 13		 jl	 SHORT $L184241
  00008	8b 11		 mov	 edx, DWORD PTR [ecx]
  0000a	3b 42 f8	 cmp	 eax, DWORD PTR [edx-8]
  0000d	7f 0c		 jg	 SHORT $L184241

; 794  : 			AtlThrow(E_INVALIDARG);
; 795  : 			
; 796  : 		GetData()->nDataLength = nLength;

  0000f	89 42 f4	 mov	 DWORD PTR [edx-12], eax

; 797  : 		m_pszData[nLength] = 0;

  00012	8b 09		 mov	 ecx, DWORD PTR [ecx]
  00014	c6 04 08 00	 mov	 BYTE PTR [eax+ecx], 0

; 798  : 	}

  00018	c2 04 00	 ret	 4
$L184241:
  0001b	68 57 00 07 80	 push	 -2147024809		; 80070057H
  00020	e8 00 00 00 00	 call	 ?AtlThrow@ATL@@YGXJ@Z	; ATL::AtlThrow
$L206420:
  00025	cc		 int	 3
?SetLength@?$CSimpleStringT@D$0A@@ATL@@AAEXH@Z ENDP	; ATL::CSimpleStringT<char,0>::SetLength
_TEXT	ENDS
PUBLIC	?GetDefaultManager@?$StrTraitMFC@DV?$ChTraitsCRT@D@ATL@@@@SAPAUIAtlStringMgr@ATL@@XZ ; StrTraitMFC<char,ATL::ChTraitsCRT<char> >::GetDefaultManager
EXTRN	?AfxGetStringManager@@YGPAUIAtlStringMgr@ATL@@XZ:NEAR ; AfxGetStringManager
; Function compile flags: /Ogty
; File c:\program files\microsoft visual studio .net 2003\vc7\atlmfc\include\afxstr.h
;	COMDAT ?GetDefaultManager@?$StrTraitMFC@DV?$ChTraitsCRT@D@ATL@@@@SAPAUIAtlStringMgr@ATL@@XZ
_TEXT	SEGMENT
?GetDefaultManager@?$StrTraitMFC@DV?$ChTraitsCRT@D@ATL@@@@SAPAUIAtlStringMgr@ATL@@XZ PROC NEAR ; StrTraitMFC<char,ATL::ChTraitsCRT<char> >::GetDefaultManager, COMDAT

; 50   : 		return( AfxGetStringManager() );

  00000	e9 00 00 00 00	 jmp	 ?AfxGetStringManager@@YGPAUIAtlStringMgr@ATL@@XZ ; AfxGetStringManager
?GetDefaultManager@?$StrTraitMFC@DV?$ChTraitsCRT@D@ATL@@@@SAPAUIAtlStringMgr@ATL@@XZ ENDP ; StrTraitMFC<char,ATL::ChTraitsCRT<char> >::GetDefaultManager
_TEXT	ENDS
PUBLIC	?_Myptr@?$basic_string@DU?$char_traits@D@std@@V?$allocator@D@2@@std@@QBEPBDXZ ; std::basic_string<char,std::char_traits<char>,std::allocator<char> >::_Myptr
; Function compile flags: /Ogty
; File c:\program files\microsoft visual studio .net 2003\vc7\include\xstring
;	COMDAT ?_Myptr@?$basic_string@DU?$char_traits@D@std@@V?$allocator@D@2@@std@@QBEPBDXZ
_TEXT	SEGMENT
?_Myptr@?$basic_string@DU?$char_traits@D@std@@V?$allocator@D@2@@std@@QBEPBDXZ PROC NEAR ; std::basic_string<char,std::char_traits<char>,std::allocator<char> >::_Myptr, COMDAT
; _this$ = ecx

; 1537 : 		return (_BUF_SIZE <= _Myres ? _Bx._Ptr : _Bx._Buf);

  00000	83 79 18 10	 cmp	 DWORD PTR [ecx+24], 16	; 00000010H
  00004	72 04		 jb	 SHORT $L206426
  00006	8b 41 04	 mov	 eax, DWORD PTR [ecx+4]

; 1538 : 		}

  00009	c3		 ret	 0
$L206426:

; 1537 : 		return (_BUF_SIZE <= _Myres ? _Bx._Ptr : _Bx._Buf);

  0000a	8d 41 04	 lea	 eax, DWORD PTR [ecx+4]

; 1538 : 		}

  0000d	c3		 ret	 0
?_Myptr@?$basic_string@DU?$char_traits@D@std@@V?$allocator@D@2@@std@@QBEPBDXZ ENDP ; std::basic_string<char,std::char_traits<char>,std::allocator<char> >::_Myptr
_TEXT	ENDS
PUBLIC	??0?$allocator@D@std@@QAE@XZ			; std::allocator<char>::allocator<char>
; Function compile flags: /Ogty
; File c:\program files\microsoft visual studio .net 2003\vc7\include\xmemory
;	COMDAT ??0?$allocator@D@std@@QAE@XZ
_TEXT	SEGMENT
??0?$allocator@D@std@@QAE@XZ PROC NEAR			; std::allocator<char>::allocator<char>, COMDAT
; _this$ = ecx

; 111  : 	allocator()

  00000	8b c1		 mov	 eax, ecx

; 112  : 		{	// construct default allocator (do nothing)
; 113  : 		}

  00002	c3		 ret	 0
??0?$allocator@D@std@@QAE@XZ ENDP			; std::allocator<char>::allocator<char>
_TEXT	ENDS
PUBLIC	??0?$allocator@D@std@@QAE@ABV01@@Z		; std::allocator<char>::allocator<char>
; Function compile flags: /Ogty
;	COMDAT ??0?$allocator@D@std@@QAE@ABV01@@Z
_TEXT	SEGMENT
___formal$ = 8						; size = 4
??0?$allocator@D@std@@QAE@ABV01@@Z PROC NEAR		; std::allocator<char>::allocator<char>, COMDAT
; _this$ = ecx

; 115  : 	allocator(const allocator<_Ty>&)

  00000	8b c1		 mov	 eax, ecx

; 116  : 		{	// construct by copying (do nothing)
; 117  : 		}

  00002	c2 04 00	 ret	 4
??0?$allocator@D@std@@QAE@ABV01@@Z ENDP			; std::allocator<char>::allocator<char>
_TEXT	ENDS
PUBLIC	??R?$less@K@std@@QBE_NABK0@Z			; std::less<unsigned long>::operator()
; Function compile flags: /Ogty
; File c:\program files\microsoft visual studio .net 2003\vc7\include\functional
;	COMDAT ??R?$less@K@std@@QBE_NABK0@Z
_TEXT	SEGMENT
__Left$ = 8						; size = 4
__Right$ = 12						; size = 4
??R?$less@K@std@@QBE_NABK0@Z PROC NEAR			; std::less<unsigned long>::operator(), COMDAT
; _this$ = ecx

; 139  : 		return (_Left < _Right);

  00000	8b 44 24 04	 mov	 eax, DWORD PTR __Left$[esp-4]
  00004	8b 08		 mov	 ecx, DWORD PTR [eax]
  00006	8b 54 24 08	 mov	 edx, DWORD PTR __Right$[esp-4]
  0000a	3b 0a		 cmp	 ecx, DWORD PTR [edx]
  0000c	1b c0		 sbb	 eax, eax
  0000e	f7 d8		 neg	 eax

; 140  : 		}

  00010	c2 08 00	 ret	 8
??R?$less@K@std@@QBE_NABK0@Z ENDP			; std::less<unsigned long>::operator()
_TEXT	ENDS
PUBLIC	?Attach@?$CSimpleStringT@D$0A@@ATL@@AAEXPAUCStringData@2@@Z ; ATL::CSimpleStringT<char,0>::Attach
; Function compile flags: /Ogty
; File c:\program files\microsoft visual studio .net 2003\vc7\atlmfc\include\atlsimpstr.h
;	COMDAT ?Attach@?$CSimpleStringT@D$0A@@ATL@@AAEXPAUCStringData@2@@Z
_TEXT	SEGMENT
_pData$ = 8						; size = 4
?Attach@?$CSimpleStringT@D$0A@@ATL@@AAEXPAUCStringData@2@@Z PROC NEAR ; ATL::CSimpleStringT<char,0>::Attach, COMDAT
; _this$ = ecx

; 712  : 		m_pszData = static_cast< PXSTR >( pData->data() );

  00000	8b 44 24 04	 mov	 eax, DWORD PTR _pData$[esp-4]
  00004	83 c0 10	 add	 eax, 16			; 00000010H
  00007	89 01		 mov	 DWORD PTR [ecx], eax

; 713  : 	}

  00009	c2 04 00	 ret	 4
?Attach@?$CSimpleStringT@D$0A@@ATL@@AAEXPAUCStringData@2@@Z ENDP ; ATL::CSimpleStringT<char,0>::Attach
_TEXT	ENDS
PUBLIC	?_Myptr@?$basic_string@DU?$char_traits@D@std@@V?$allocator@D@2@@std@@QAEPADXZ ; std::basic_string<char,std::char_traits<char>,std::allocator<char> >::_Myptr
; Function compile flags: /Ogty
; File c:\program files\microsoft visual studio .net 2003\vc7\include\xstring
;	COMDAT ?_Myptr@?$basic_string@DU?$char_traits@D@std@@V?$allocator@D@2@@std@@QAEPADXZ
_TEXT	SEGMENT
?_Myptr@?$basic_string@DU?$char_traits@D@std@@V?$allocator@D@2@@std@@QAEPADXZ PROC NEAR ; std::basic_string<char,std::char_traits<char>,std::allocator<char> >::_Myptr, COMDAT
; _this$ = ecx

; 1532 : 		return (_BUF_SIZE <= _Myres ? _Bx._Ptr : _Bx._Buf);

  00000	83 79 18 10	 cmp	 DWORD PTR [ecx+24], 16	; 00000010H
  00004	72 04		 jb	 SHORT $L206441
  00006	8b 41 04	 mov	 eax, DWORD PTR [ecx+4]

; 1533 : 		}

  00009	c3		 ret	 0
$L206441:

; 1532 : 		return (_BUF_SIZE <= _Myres ? _Bx._Ptr : _Bx._Buf);

  0000a	8d 41 04	 lea	 eax, DWORD PTR [ecx+4]

; 1533 : 		}

  0000d	c3		 ret	 0
?_Myptr@?$basic_string@DU?$char_traits@D@std@@V?$allocator@D@2@@std@@QAEPADXZ ENDP ; std::basic_string<char,std::char_traits<char>,std::allocator<char> >::_Myptr
_TEXT	ENDS
PUBLIC	?deallocate@?$allocator@D@std@@QAEXPADI@Z	; std::allocator<char>::deallocate
; Function compile flags: /Ogty
; File c:\program files\microsoft visual studio .net 2003\vc7\include\xmemory
;	COMDAT ?deallocate@?$allocator@D@std@@QAEXPADI@Z
_TEXT	SEGMENT
__Ptr$ = 8						; size = 4
___formal$ = 12						; size = 4
?deallocate@?$allocator@D@std@@QAEXPADI@Z PROC NEAR	; std::allocator<char>::deallocate, COMDAT
; _this$ = ecx

; 132  : 		operator delete(_Ptr);

  00000	8b 44 24 04	 mov	 eax, DWORD PTR __Ptr$[esp-4]
  00004	50		 push	 eax
  00005	e8 00 00 00 00	 call	 ??3@YAXPAX@Z		; operator delete
  0000a	59		 pop	 ecx

; 133  : 		}

  0000b	c2 08 00	 ret	 8
?deallocate@?$allocator@D@std@@QAEXPADI@Z ENDP		; std::allocator<char>::deallocate
_TEXT	ENDS
PUBLIC	?CopyChars@?$CSimpleStringT@D$0A@@ATL@@SAXPADPBDH@Z ; ATL::CSimpleStringT<char,0>::CopyChars
; Function compile flags: /Ogty
; File c:\program files\microsoft visual studio .net 2003\vc7\atlmfc\include\atlsimpstr.h
;	COMDAT ?CopyChars@?$CSimpleStringT@D$0A@@ATL@@SAXPADPBDH@Z
_TEXT	SEGMENT
_pchDest$ = 8						; size = 4
_pchSrc$ = 12						; size = 4
_nChars$ = 16						; size = 4
?CopyChars@?$CSimpleStringT@D$0A@@ATL@@SAXPADPBDH@Z PROC NEAR ; ATL::CSimpleStringT<char,0>::CopyChars, COMDAT

; 653  : 		memcpy( pchDest, pchSrc, nChars*sizeof( XCHAR ) );

  00000	8b 4c 24 0c	 mov	 ecx, DWORD PTR _nChars$[esp-4]
  00004	56		 push	 esi
  00005	8b 74 24 0c	 mov	 esi, DWORD PTR _pchSrc$[esp]
  00009	8b c1		 mov	 eax, ecx
  0000b	57		 push	 edi
  0000c	8b 7c 24 0c	 mov	 edi, DWORD PTR _pchDest$[esp+4]
  00010	c1 e9 02	 shr	 ecx, 2
  00013	f3 a5		 rep movsd
  00015	8b c8		 mov	 ecx, eax
  00017	83 e1 03	 and	 ecx, 3
  0001a	f3 a4		 rep movsb
  0001c	5f		 pop	 edi
  0001d	5e		 pop	 esi

; 654  : 	}

  0001e	c3		 ret	 0
?CopyChars@?$CSimpleStringT@D$0A@@ATL@@SAXPADPBDH@Z ENDP ; ATL::CSimpleStringT<char,0>::CopyChars
_TEXT	ENDS
PUBLIC	?CopyCharsOverlapped@?$CSimpleStringT@D$0A@@ATL@@SAXPADPBDH@Z ; ATL::CSimpleStringT<char,0>::CopyCharsOverlapped
; Function compile flags: /Ogty
;	COMDAT ?CopyCharsOverlapped@?$CSimpleStringT@D$0A@@ATL@@SAXPADPBDH@Z
_TEXT	SEGMENT
_pchDest$ = 8						; size = 4
_pchSrc$ = 12						; size = 4
_nChars$ = 16						; size = 4
?CopyCharsOverlapped@?$CSimpleStringT@D$0A@@ATL@@SAXPADPBDH@Z PROC NEAR ; ATL::CSimpleStringT<char,0>::CopyCharsOverlapped, COMDAT

; 657  : 		memmove( pchDest, pchSrc, nChars*sizeof( XCHAR ) );

  00000	e9 00 00 00 00	 jmp	 _memmove
?CopyCharsOverlapped@?$CSimpleStringT@D$0A@@ATL@@SAXPADPBDH@Z ENDP ; ATL::CSimpleStringT<char,0>::CopyCharsOverlapped
_TEXT	ENDS
PUBLIC	?ThrowMemoryException@?$CSimpleStringT@D$0A@@ATL@@KAXXZ ; ATL::CSimpleStringT<char,0>::ThrowMemoryException
; Function compile flags: /Ogty
;	COMDAT ?ThrowMemoryException@?$CSimpleStringT@D$0A@@ATL@@KAXXZ
_TEXT	SEGMENT
?ThrowMemoryException@?$CSimpleStringT@D$0A@@ATL@@KAXXZ PROC NEAR ; ATL::CSimpleStringT<char,0>::ThrowMemoryException, COMDAT

; 705  : 		AtlThrow( E_OUTOFMEMORY );

  00000	68 0e 00 07 80	 push	 -2147024882		; 8007000eH
  00005	e8 00 00 00 00	 call	 ?AtlThrow@ATL@@YGXJ@Z	; ATL::AtlThrow
$L206451:
  0000a	cc		 int	 3
?ThrowMemoryException@?$CSimpleStringT@D$0A@@ATL@@KAXXZ ENDP ; ATL::CSimpleStringT<char,0>::ThrowMemoryException
_TEXT	ENDS
PUBLIC	?Fork@?$CSimpleStringT@D$0A@@ATL@@AAEXH@Z	; ATL::CSimpleStringT<char,0>::Fork
; Function compile flags: /Ogty
;	COMDAT ?Fork@?$CSimpleStringT@D$0A@@ATL@@AAEXH@Z
_TEXT	SEGMENT
_this$ = -4						; size = 4
tv181 = 8						; size = 4
_nLength$ = 8						; size = 4
?Fork@?$CSimpleStringT@D$0A@@ATL@@AAEXH@Z PROC NEAR	; ATL::CSimpleStringT<char,0>::Fork, COMDAT
; _this$ = ecx

; 715  : 	{

  00000	51		 push	 ecx
  00001	53		 push	 ebx

; 716  : 		CStringData* pOldData = GetData();

  00002	8b 19		 mov	 ebx, DWORD PTR [ecx]
  00004	83 eb 10	 sub	 ebx, 16			; 00000010H
  00007	55		 push	 ebp

; 717  : 		int nOldLength = pOldData->nDataLength;

  00008	8b 6b 04	 mov	 ebp, DWORD PTR [ebx+4]
  0000b	89 4c 24 08	 mov	 DWORD PTR _this$[esp+12], ecx

; 718  : 		CStringData* pNewData = pOldData->pStringMgr->Clone()->Allocate( nLength, sizeof( XCHAR ) );

  0000f	8b 0b		 mov	 ecx, DWORD PTR [ebx]
  00011	8b 01		 mov	 eax, DWORD PTR [ecx]
  00013	56		 push	 esi
  00014	ff 50 10	 call	 DWORD PTR [eax+16]
  00017	8b 74 24 14	 mov	 esi, DWORD PTR _nLength$[esp+12]
  0001b	8b 10		 mov	 edx, DWORD PTR [eax]
  0001d	6a 01		 push	 1
  0001f	56		 push	 esi
  00020	8b c8		 mov	 ecx, eax
  00022	ff 12		 call	 DWORD PTR [edx]

; 719  : 		if( pNewData == NULL )

  00024	85 c0		 test	 eax, eax
  00026	75 05		 jne	 SHORT $L185534

; 720  : 		{
; 721  : 			ThrowMemoryException();

  00028	e8 00 00 00 00	 call	 ?ThrowMemoryException@?$CSimpleStringT@D$0A@@ATL@@KAXXZ ; ATL::CSimpleStringT<char,0>::ThrowMemoryException
$L185534:

; 722  : 		}
; 723  : 		int nCharsToCopy = ((nOldLength < nLength) ? nOldLength : nLength)+1;  // Copy '\0'

  0002d	3b ee		 cmp	 ebp, esi
  0002f	7d 02		 jge	 SHORT $L206455
  00031	8b f5		 mov	 esi, ebp
$L206455:
  00033	8d 4e 01	 lea	 ecx, DWORD PTR [esi+1]

; 724  : 		CopyChars( PXSTR( pNewData->data() ), PCXSTR( pOldData->data() ), nCharsToCopy );

  00036	8b d1		 mov	 edx, ecx
  00038	57		 push	 edi
  00039	c1 e9 02	 shr	 ecx, 2
  0003c	8d 78 10	 lea	 edi, DWORD PTR [eax+16]
  0003f	89 7c 24 18	 mov	 DWORD PTR tv181[esp+16], edi
  00043	8d 73 10	 lea	 esi, DWORD PTR [ebx+16]
  00046	f3 a5		 rep movsd
  00048	8b ca		 mov	 ecx, edx
  0004a	83 e1 03	 and	 ecx, 3
  0004d	f3 a4		 rep movsb

; 725  : 		pNewData->nDataLength = nOldLength;

  0004f	89 68 04	 mov	 DWORD PTR [eax+4], ebp

; 726  : 		pOldData->Release();

  00052	8d 43 0c	 lea	 eax, DWORD PTR [ebx+12]
  00055	83 c9 ff	 or	 ecx, -1
  00058	f0 0f c1 08	 lock	  xadd	 DWORD PTR [eax], ecx
  0005c	49		 dec	 ecx
  0005d	85 c9		 test	 ecx, ecx
  0005f	5f		 pop	 edi
  00060	7f 08		 jg	 SHORT $L206471
  00062	8b 0b		 mov	 ecx, DWORD PTR [ebx]
  00064	8b 11		 mov	 edx, DWORD PTR [ecx]
  00066	53		 push	 ebx
  00067	ff 52 04	 call	 DWORD PTR [edx+4]
$L206471:

; 727  : 		Attach( pNewData );

  0006a	8b 44 24 14	 mov	 eax, DWORD PTR tv181[esp+12]
  0006e	8b 4c 24 0c	 mov	 ecx, DWORD PTR _this$[esp+16]
  00072	5e		 pop	 esi
  00073	5d		 pop	 ebp
  00074	89 01		 mov	 DWORD PTR [ecx], eax
  00076	5b		 pop	 ebx

; 728  : 	}

  00077	59		 pop	 ecx
  00078	c2 04 00	 ret	 4
$L206480:
?Fork@?$CSimpleStringT@D$0A@@ATL@@AAEXH@Z ENDP		; ATL::CSimpleStringT<char,0>::Fork
_TEXT	ENDS
PUBLIC	?Reallocate@?$CSimpleStringT@D$0A@@ATL@@AAEXH@Z	; ATL::CSimpleStringT<char,0>::Reallocate
; Function compile flags: /Ogty
;	COMDAT ?Reallocate@?$CSimpleStringT@D$0A@@ATL@@AAEXH@Z
_TEXT	SEGMENT
_nLength$ = 8						; size = 4
?Reallocate@?$CSimpleStringT@D$0A@@ATL@@AAEXH@Z PROC NEAR ; ATL::CSimpleStringT<char,0>::Reallocate, COMDAT
; _this$ = ecx

; 776  : 	{

  00000	56		 push	 esi
  00001	57		 push	 edi

; 777  : 		CStringData* pOldData = GetData();
; 778  : 		ATLASSERT( pOldData->nAllocLength < nLength );
; 779  : 		IAtlStringMgr* pStringMgr = pOldData->pStringMgr;
; 780  : 		CStringData* pNewData = pStringMgr->Reallocate( pOldData, nLength, sizeof( XCHAR ) );

  00002	8b 7c 24 0c	 mov	 edi, DWORD PTR _nLength$[esp+4]
  00006	8b f1		 mov	 esi, ecx
  00008	8b 06		 mov	 eax, DWORD PTR [esi]
  0000a	8b 48 f0	 mov	 ecx, DWORD PTR [eax-16]
  0000d	8b 11		 mov	 edx, DWORD PTR [ecx]
  0000f	83 e8 10	 sub	 eax, 16			; 00000010H
  00012	6a 01		 push	 1
  00014	57		 push	 edi
  00015	50		 push	 eax
  00016	ff 52 08	 call	 DWORD PTR [edx+8]

; 781  : 		if( pNewData == NULL )

  00019	85 c0		 test	 eax, eax
  0001b	75 05		 jne	 SHORT $L185543

; 782  : 		{
; 783  : 			ThrowMemoryException();

  0001d	e8 00 00 00 00	 call	 ?ThrowMemoryException@?$CSimpleStringT@D$0A@@ATL@@KAXXZ ; ATL::CSimpleStringT<char,0>::ThrowMemoryException
$L185543:

; 784  : 		}
; 785  : 		Attach( pNewData );

  00022	83 c0 10	 add	 eax, 16			; 00000010H
  00025	5f		 pop	 edi
  00026	89 06		 mov	 DWORD PTR [esi], eax
  00028	5e		 pop	 esi

; 786  : 	}

  00029	c2 04 00	 ret	 4
$L206494:
?Reallocate@?$CSimpleStringT@D$0A@@ATL@@AAEXH@Z ENDP	; ATL::CSimpleStringT<char,0>::Reallocate
_TEXT	ENDS
PUBLIC	?_Inside@?$basic_string@DU?$char_traits@D@std@@V?$allocator@D@2@@std@@IAE_NPBD@Z ; std::basic_string<char,std::char_traits<char>,std::allocator<char> >::_Inside
; Function compile flags: /Ogty
; File c:\program files\microsoft visual studio .net 2003\vc7\include\xstring
;	COMDAT ?_Inside@?$basic_string@DU?$char_traits@D@std@@V?$allocator@D@2@@std@@IAE_NPBD@Z
_TEXT	SEGMENT
__Ptr$ = 8						; size = 4
?_Inside@?$basic_string@DU?$char_traits@D@std@@V?$allocator@D@2@@std@@IAE_NPBD@Z PROC NEAR ; std::basic_string<char,std::char_traits<char>,std::allocator<char> >::_Inside, COMDAT
; _this$ = ecx

; 1494 : 		{	// test if _Ptr points inside string

  00000	56		 push	 esi

; 1495 : 		if (_Ptr < _Myptr() || _Myptr() + _Mysize <= _Ptr)

  00001	8b 71 18	 mov	 esi, DWORD PTR [ecx+24]
  00004	83 fe 10	 cmp	 esi, 16			; 00000010H
  00007	57		 push	 edi
  00008	8d 41 04	 lea	 eax, DWORD PTR [ecx+4]
  0000b	72 04		 jb	 SHORT $L206501
  0000d	8b 10		 mov	 edx, DWORD PTR [eax]
  0000f	eb 02		 jmp	 SHORT $L206502
$L206501:
  00011	8b d0		 mov	 edx, eax
$L206502:
  00013	8b 7c 24 0c	 mov	 edi, DWORD PTR __Ptr$[esp+4]
  00017	3b fa		 cmp	 edi, edx
  00019	72 17		 jb	 SHORT $L185560
  0001b	83 fe 10	 cmp	 esi, 16			; 00000010H
  0001e	72 02		 jb	 SHORT $L206509
  00020	8b 00		 mov	 eax, DWORD PTR [eax]
$L206509:
  00022	8b 49 14	 mov	 ecx, DWORD PTR [ecx+20]
  00025	03 c8		 add	 ecx, eax
  00027	3b cf		 cmp	 ecx, edi
  00029	76 07		 jbe	 SHORT $L185560
  0002b	5f		 pop	 edi

; 1497 : 		else
; 1498 : 			return (true);

  0002c	b0 01		 mov	 al, 1
  0002e	5e		 pop	 esi

; 1499 : 		}

  0002f	c2 04 00	 ret	 4
$L185560:
  00032	5f		 pop	 edi

; 1496 : 			return (false);	// don't ask

  00033	32 c0		 xor	 al, al
  00035	5e		 pop	 esi

; 1499 : 		}

  00036	c2 04 00	 ret	 4
?_Inside@?$basic_string@DU?$char_traits@D@std@@V?$allocator@D@2@@std@@IAE_NPBD@Z ENDP ; std::basic_string<char,std::char_traits<char>,std::allocator<char> >::_Inside
_TEXT	ENDS
PUBLIC	?max_size@?$allocator@D@std@@QBEIXZ		; std::allocator<char>::max_size
; Function compile flags: /Ogty
; File c:\program files\microsoft visual studio .net 2003\vc7\include\xmemory
;	COMDAT ?max_size@?$allocator@D@std@@QBEIXZ
_TEXT	SEGMENT
?max_size@?$allocator@D@std@@QBEIXZ PROC NEAR		; std::allocator<char>::max_size, COMDAT
; _this$ = ecx

; 157  : 		_SIZT _Count = (_SIZT)(-1) / sizeof (_Ty);
; 158  : 		return (0 < _Count ? _Count : 1);

  00000	83 c8 ff	 or	 eax, -1

; 159  : 		}

  00003	c3		 ret	 0
?max_size@?$allocator@D@std@@QBEIXZ ENDP		; std::allocator<char>::max_size
_TEXT	ENDS
PUBLIC	?GetAt@?$CFixedArray@UtagColorText@@@@QAEPAUtagColorText@@K@Z ; CFixedArray<tagColorText>::GetAt
; Function compile flags: /Ogty
; File c:\documents and settings\test\mes documents\source\virtuos_v17\build\program\_common\data.h
;	COMDAT ?GetAt@?$CFixedArray@UtagColorText@@@@QAEPAUtagColorText@@K@Z
_TEXT	SEGMENT
_dwIndex$ = 8						; size = 4
?GetAt@?$CFixedArray@UtagColorText@@@@QAEPAUtagColorText@@K@Z PROC NEAR ; CFixedArray<tagColorText>::GetAt, COMDAT
; _this$ = ecx

; 270  : 	if( dwIndex >= (DWORD)m_nMaxIndex )

  00000	8b 44 24 04	 mov	 eax, DWORD PTR _dwIndex$[esp-4]
  00004	3b 41 18	 cmp	 eax, DWORD PTR [ecx+24]
  00007	72 05		 jb	 SHORT $L186299

; 271  : 		return NULL;

  00009	33 c0		 xor	 eax, eax

; 273  : }

  0000b	c2 04 00	 ret	 4
$L186299:

; 272  : 	return (T*) m_apOffset[ dwIndex ];

  0000e	8b 49 08	 mov	 ecx, DWORD PTR [ecx+8]
  00011	8b 04 81	 mov	 eax, DWORD PTR [ecx+eax*4]

; 273  : }

  00014	c2 04 00	 ret	 4
?GetAt@?$CFixedArray@UtagColorText@@@@QAEPAUtagColorText@@K@Z ENDP ; CFixedArray<tagColorText>::GetAt
_TEXT	ENDS
PUBLIC	??$swap@D@std@@YAXAAD0@Z			; std::swap<char>
; Function compile flags: /Ogty
; File c:\program files\microsoft visual studio .net 2003\vc7\include\utility
;	COMDAT ??$swap@D@std@@YAXAAD0@Z
_TEXT	SEGMENT
__Left$ = 8						; size = 4
__Right$ = 12						; size = 4
??$swap@D@std@@YAXAAD0@Z PROC NEAR			; std::swap<char>, COMDAT

; 15   : 	_Ty _Tmp = _Left;

  00000	8b 44 24 04	 mov	 eax, DWORD PTR __Left$[esp-4]
  00004	8a 08		 mov	 cl, BYTE PTR [eax]
  00006	56		 push	 esi

; 16   : 	_Left = _Right, _Right = _Tmp;

  00007	8b 74 24 0c	 mov	 esi, DWORD PTR __Right$[esp]
  0000b	8a 16		 mov	 dl, BYTE PTR [esi]
  0000d	88 10		 mov	 BYTE PTR [eax], dl
  0000f	88 0e		 mov	 BYTE PTR [esi], cl
  00011	5e		 pop	 esi

; 17   : 	}

  00012	c3		 ret	 0
??$swap@D@std@@YAXAAD0@Z ENDP				; std::swap<char>
_TEXT	ENDS
PUBLIC	??$_Allocate@D@std@@YAPADIPAD@Z			; std::_Allocate<char>
; Function compile flags: /Ogty
; File c:\program files\microsoft visual studio .net 2003\vc7\include\xmemory
;	COMDAT ??$_Allocate@D@std@@YAPADIPAD@Z
_TEXT	SEGMENT
__Count$ = 8						; size = 4
___formal$ = 12						; size = 4
??$_Allocate@D@std@@YAPADIPAD@Z PROC NEAR		; std::_Allocate<char>, COMDAT

; 34   : 	return ((_Ty _FARQ *)operator new(_Count * sizeof (_Ty)));

  00000	8b 44 24 04	 mov	 eax, DWORD PTR __Count$[esp-4]
  00004	50		 push	 eax
  00005	e8 00 00 00 00	 call	 ??2@YAPAXI@Z		; operator new
  0000a	83 c4 04	 add	 esp, 4

; 35   : 	}

  0000d	c3		 ret	 0
??$_Allocate@D@std@@YAPADIPAD@Z ENDP			; std::_Allocate<char>
_TEXT	ENDS
PUBLIC	??9const_iterator@?$_Tree@V?$_Tmap_traits@KU_WORLDDATA@CQuizDBCtrl@@U?$less@K@std@@V?$allocator@U?$pair@$$CBKU_WORLDDATA@CQuizDBCtrl@@@std@@@4@$0A@@std@@@std@@QBE_NABV012@@Z ; std::_Tree<std::_Tmap_traits<unsigned long,CQuizDBCtrl::_WORLDDATA,std::less<unsigned long>,std::allocator<std::pair<unsigned long const ,CQuizDBCtrl::_WORLDDATA> >,0> >::const_iterator::operator!=
; Function compile flags: /Ogty
; File c:\program files\microsoft visual studio .net 2003\vc7\include\xtree
;	COMDAT ??9const_iterator@?$_Tree@V?$_Tmap_traits@KU_WORLDDATA@CQuizDBCtrl@@U?$less@K@std@@V?$allocator@U?$pair@$$CBKU_WORLDDATA@CQuizDBCtrl@@@std@@@4@$0A@@std@@@std@@QBE_NABV012@@Z
_TEXT	SEGMENT
__Right$ = 8						; size = 4
??9const_iterator@?$_Tree@V?$_Tmap_traits@KU_WORLDDATA@CQuizDBCtrl@@U?$less@K@std@@V?$allocator@U?$pair@$$CBKU_WORLDDATA@CQuizDBCtrl@@@std@@@4@$0A@@std@@@std@@QBE_NABV012@@Z PROC NEAR ; std::_Tree<std::_Tmap_traits<unsigned long,CQuizDBCtrl::_WORLDDATA,std::less<unsigned long>,std::allocator<std::pair<unsigned long const ,CQuizDBCtrl::_WORLDDATA> >,0> >::const_iterator::operator!=, COMDAT
; _this$ = ecx

; 246  : 			return (!(*this == _Right));

  00000	8b 01		 mov	 eax, DWORD PTR [ecx]
  00002	8b 54 24 04	 mov	 edx, DWORD PTR __Right$[esp-4]
  00006	56		 push	 esi
  00007	8b 32		 mov	 esi, DWORD PTR [edx]
  00009	33 c9		 xor	 ecx, ecx
  0000b	3b c6		 cmp	 eax, esi
  0000d	0f 95 c1	 setne	 cl
  00010	8a c1		 mov	 al, cl
  00012	5e		 pop	 esi

; 247  : 			}

  00013	c2 04 00	 ret	 4
??9const_iterator@?$_Tree@V?$_Tmap_traits@KU_WORLDDATA@CQuizDBCtrl@@U?$less@K@std@@V?$allocator@U?$pair@$$CBKU_WORLDDATA@CQuizDBCtrl@@@std@@@4@$0A@@std@@@std@@QBE_NABV012@@Z ENDP ; std::_Tree<std::_Tmap_traits<unsigned long,CQuizDBCtrl::_WORLDDATA,std::less<unsigned long>,std::allocator<std::pair<unsigned long const ,CQuizDBCtrl::_WORLDDATA> >,0> >::const_iterator::operator!=
_TEXT	ENDS
PUBLIC	?_Key@?$_Tree@V?$_Tmap_traits@KU_WORLDDATA@CQuizDBCtrl@@U?$less@K@std@@V?$allocator@U?$pair@$$CBKU_WORLDDATA@CQuizDBCtrl@@@std@@@4@$0A@@std@@@std@@KAABKPAU_Node@?$_Tree_nod@V?$_Tmap_traits@KU_WORLDDATA@CQuizDBCtrl@@U?$less@K@std@@V?$allocator@U?$pair@$$CBKU_WORLDDATA@CQuizDBCtrl@@@std@@@4@$0A@@std@@@2@@Z ; std::_Tree<std::_Tmap_traits<unsigned long,CQuizDBCtrl::_WORLDDATA,std::less<unsigned long>,std::allocator<std::pair<unsigned long const ,CQuizDBCtrl::_WORLDDATA> >,0> >::_Key
; Function compile flags: /Ogty
;	COMDAT ?_Key@?$_Tree@V?$_Tmap_traits@KU_WORLDDATA@CQuizDBCtrl@@U?$less@K@std@@V?$allocator@U?$pair@$$CBKU_WORLDDATA@CQuizDBCtrl@@@std@@@4@$0A@@std@@@std@@KAABKPAU_Node@?$_Tree_nod@V?$_Tmap_traits@KU_WORLDDATA@CQuizDBCtrl@@U?$less@K@std@@V?$allocator@U?$pair@$$CBKU_WORLDDATA@CQuizDBCtrl@@@std@@@4@$0A@@std@@@2@@Z
_TEXT	SEGMENT
__Pnode$ = 8						; size = 4
?_Key@?$_Tree@V?$_Tmap_traits@KU_WORLDDATA@CQuizDBCtrl@@U?$less@K@std@@V?$allocator@U?$pair@$$CBKU_WORLDDATA@CQuizDBCtrl@@@std@@@4@$0A@@std@@@std@@KAABKPAU_Node@?$_Tree_nod@V?$_Tmap_traits@KU_WORLDDATA@CQuizDBCtrl@@U?$less@K@std@@V?$allocator@U?$pair@$$CBKU_WORLDDATA@CQuizDBCtrl@@@std@@@4@$0A@@std@@@2@@Z PROC NEAR ; std::_Tree<std::_Tmap_traits<unsigned long,CQuizDBCtrl::_WORLDDATA,std::less<unsigned long>,std::allocator<std::pair<unsigned long const ,CQuizDBCtrl::_WORLDDATA> >,0> >::_Key, COMDAT

; 142  : 		return (_Mybase::_Kfn(_Myval(_Pnode)));

  00000	8b 44 24 04	 mov	 eax, DWORD PTR __Pnode$[esp-4]
  00004	83 c0 0c	 add	 eax, 12			; 0000000cH

; 143  : 		}

  00007	c3		 ret	 0
?_Key@?$_Tree@V?$_Tmap_traits@KU_WORLDDATA@CQuizDBCtrl@@U?$less@K@std@@V?$allocator@U?$pair@$$CBKU_WORLDDATA@CQuizDBCtrl@@@std@@@4@$0A@@std@@@std@@KAABKPAU_Node@?$_Tree_nod@V?$_Tmap_traits@KU_WORLDDATA@CQuizDBCtrl@@U?$less@K@std@@V?$allocator@U?$pair@$$CBKU_WORLDDATA@CQuizDBCtrl@@@std@@@4@$0A@@std@@@2@@Z ENDP ; std::_Tree<std::_Tmap_traits<unsigned long,CQuizDBCtrl::_WORLDDATA,std::less<unsigned long>,std::allocator<std::pair<unsigned long const ,CQuizDBCtrl::_WORLDDATA> >,0> >::_Key
_TEXT	ENDS
PUBLIC	?_Lrotate@?$_Tree@V?$_Tmap_traits@KU_WORLDDATA@CQuizDBCtrl@@U?$less@K@std@@V?$allocator@U?$pair@$$CBKU_WORLDDATA@CQuizDBCtrl@@@std@@@4@$0A@@std@@@std@@IAEXPAU_Node@?$_Tree_nod@V?$_Tmap_traits@KU_WORLDDATA@CQuizDBCtrl@@U?$less@K@std@@V?$allocator@U?$pair@$$CBKU_WORLDDATA@CQuizDBCtrl@@@std@@@4@$0A@@std@@@2@@Z ; std::_Tree<std::_Tmap_traits<unsigned long,CQuizDBCtrl::_WORLDDATA,std::less<unsigned long>,std::allocator<std::pair<unsigned long const ,CQuizDBCtrl::_WORLDDATA> >,0> >::_Lrotate
; Function compile flags: /Ogty
;	COMDAT ?_Lrotate@?$_Tree@V?$_Tmap_traits@KU_WORLDDATA@CQuizDBCtrl@@U?$less@K@std@@V?$allocator@U?$pair@$$CBKU_WORLDDATA@CQuizDBCtrl@@@std@@@4@$0A@@std@@@std@@IAEXPAU_Node@?$_Tree_nod@V?$_Tmap_traits@KU_WORLDDATA@CQuizDBCtrl@@U?$less@K@std@@V?$allocator@U?$pair@$$CBKU_WORLDDATA@CQuizDBCtrl@@@std@@@4@$0A@@std@@@2@@Z
_TEXT	SEGMENT
__Wherenode$ = 8					; size = 4
?_Lrotate@?$_Tree@V?$_Tmap_traits@KU_WORLDDATA@CQuizDBCtrl@@U?$less@K@std@@V?$allocator@U?$pair@$$CBKU_WORLDDATA@CQuizDBCtrl@@@std@@@4@$0A@@std@@@std@@IAEXPAU_Node@?$_Tree_nod@V?$_Tmap_traits@KU_WORLDDATA@CQuizDBCtrl@@U?$less@K@std@@V?$allocator@U?$pair@$$CBKU_WORLDDATA@CQuizDBCtrl@@@std@@@4@$0A@@std@@@2@@Z PROC NEAR ; std::_Tree<std::_Tmap_traits<unsigned long,CQuizDBCtrl::_WORLDDATA,std::less<unsigned long>,std::allocator<std::pair<unsigned long const ,CQuizDBCtrl::_WORLDDATA> >,0> >::_Lrotate, COMDAT
; _this$ = ecx

; 1015 : 		_Nodeptr _Pnode = _Right(_Wherenode);

  00000	8b 54 24 04	 mov	 edx, DWORD PTR __Wherenode$[esp-4]
  00004	8b 42 08	 mov	 eax, DWORD PTR [edx+8]
  00007	53		 push	 ebx
  00008	56		 push	 esi

; 1016 : 		_Right(_Wherenode) = _Left(_Pnode);

  00009	8b 30		 mov	 esi, DWORD PTR [eax]
  0000b	89 72 08	 mov	 DWORD PTR [edx+8], esi

; 1017 : 
; 1018 : 		if (!_Isnil(_Left(_Pnode)))

  0000e	8b 30		 mov	 esi, DWORD PTR [eax]
  00010	8a 5e 2d	 mov	 bl, BYTE PTR [esi+45]
  00013	84 db		 test	 bl, bl
  00015	75 03		 jne	 SHORT $L204670

; 1019 : 			_Parent(_Left(_Pnode)) = _Wherenode;

  00017	89 56 04	 mov	 DWORD PTR [esi+4], edx
$L204670:

; 1020 : 		_Parent(_Pnode) = _Parent(_Wherenode);

  0001a	8b 72 04	 mov	 esi, DWORD PTR [edx+4]
  0001d	89 70 04	 mov	 DWORD PTR [eax+4], esi

; 1021 : 
; 1022 : 		if (_Wherenode == _Root())

  00020	8b 49 04	 mov	 ecx, DWORD PTR [ecx+4]
  00023	3b 51 04	 cmp	 edx, DWORD PTR [ecx+4]
  00026	75 0d		 jne	 SHORT $L204671

; 1023 : 			_Root() = _Pnode;

  00028	89 41 04	 mov	 DWORD PTR [ecx+4], eax
  0002b	5e		 pop	 esi

; 1028 : 
; 1029 : 		_Left(_Pnode) = _Wherenode;

  0002c	89 10		 mov	 DWORD PTR [eax], edx

; 1030 : 		_Parent(_Wherenode) = _Pnode;

  0002e	89 42 04	 mov	 DWORD PTR [edx+4], eax
  00031	5b		 pop	 ebx

; 1031 : 		}

  00032	c2 04 00	 ret	 4
$L204671:

; 1024 : 		else if (_Wherenode == _Left(_Parent(_Wherenode)))

  00035	8b 4a 04	 mov	 ecx, DWORD PTR [edx+4]
  00038	3b 11		 cmp	 edx, DWORD PTR [ecx]
  0003a	75 0c		 jne	 SHORT $L204673

; 1025 : 			_Left(_Parent(_Wherenode)) = _Pnode;

  0003c	89 01		 mov	 DWORD PTR [ecx], eax
  0003e	5e		 pop	 esi

; 1028 : 
; 1029 : 		_Left(_Pnode) = _Wherenode;

  0003f	89 10		 mov	 DWORD PTR [eax], edx

; 1030 : 		_Parent(_Wherenode) = _Pnode;

  00041	89 42 04	 mov	 DWORD PTR [edx+4], eax
  00044	5b		 pop	 ebx

; 1031 : 		}

  00045	c2 04 00	 ret	 4
$L204673:

; 1026 : 		else
; 1027 : 			_Right(_Parent(_Wherenode)) = _Pnode;

  00048	89 41 08	 mov	 DWORD PTR [ecx+8], eax
  0004b	5e		 pop	 esi

; 1028 : 
; 1029 : 		_Left(_Pnode) = _Wherenode;

  0004c	89 10		 mov	 DWORD PTR [eax], edx

; 1030 : 		_Parent(_Wherenode) = _Pnode;

  0004e	89 42 04	 mov	 DWORD PTR [edx+4], eax
  00051	5b		 pop	 ebx

; 1031 : 		}

  00052	c2 04 00	 ret	 4
?_Lrotate@?$_Tree@V?$_Tmap_traits@KU_WORLDDATA@CQuizDBCtrl@@U?$less@K@std@@V?$allocator@U?$pair@$$CBKU_WORLDDATA@CQuizDBCtrl@@@std@@@4@$0A@@std@@@std@@IAEXPAU_Node@?$_Tree_nod@V?$_Tmap_traits@KU_WORLDDATA@CQuizDBCtrl@@U?$less@K@std@@V?$allocator@U?$pair@$$CBKU_WORLDDATA@CQuizDBCtrl@@@std@@@4@$0A@@std@@@2@@Z ENDP ; std::_Tree<std::_Tmap_traits<unsigned long,CQuizDBCtrl::_WORLDDATA,std::less<unsigned long>,std::allocator<std::pair<unsigned long const ,CQuizDBCtrl::_WORLDDATA> >,0> >::_Lrotate
_TEXT	ENDS
PUBLIC	?destroy@?$allocator@U_Node@?$_Tree_nod@V?$_Tmap_traits@KU_WORLDDATA@CQuizDBCtrl@@U?$less@K@std@@V?$allocator@U?$pair@$$CBKU_WORLDDATA@CQuizDBCtrl@@@std@@@4@$0A@@std@@@std@@@std@@QAEXPAU_Node@?$_Tree_nod@V?$_Tmap_traits@KU_WORLDDATA@CQuizDBCtrl@@U?$less@K@std@@V?$allocator@U?$pair@$$CBKU_WORLDDATA@CQuizDBCtrl@@@std@@@4@$0A@@std@@@2@@Z ; std::allocator<std::_Tree_nod<std::_Tmap_traits<unsigned long,CQuizDBCtrl::_WORLDDATA,std::less<unsigned long>,std::allocator<std::pair<unsigned long const ,CQuizDBCtrl::_WORLDDATA> >,0> >::_Node>::destroy
; Function compile flags: /Ogty
; File c:\program files\microsoft visual studio .net 2003\vc7\include\xmemory
;	COMDAT ?destroy@?$allocator@U_Node@?$_Tree_nod@V?$_Tmap_traits@KU_WORLDDATA@CQuizDBCtrl@@U?$less@K@std@@V?$allocator@U?$pair@$$CBKU_WORLDDATA@CQuizDBCtrl@@@std@@@4@$0A@@std@@@std@@@std@@QAEXPAU_Node@?$_Tree_nod@V?$_Tmap_traits@KU_WORLDDATA@CQuizDBCtrl@@U?$less@K@std@@V?$allocator@U?$pair@$$CBKU_WORLDDATA@CQuizDBCtrl@@@std@@@4@$0A@@std@@@2@@Z
_TEXT	SEGMENT
__Ptr$ = 8						; size = 4
?destroy@?$allocator@U_Node@?$_Tree_nod@V?$_Tmap_traits@KU_WORLDDATA@CQuizDBCtrl@@U?$less@K@std@@V?$allocator@U?$pair@$$CBKU_WORLDDATA@CQuizDBCtrl@@@std@@@4@$0A@@std@@@std@@@std@@QAEXPAU_Node@?$_Tree_nod@V?$_Tmap_traits@KU_WORLDDATA@CQuizDBCtrl@@U?$less@K@std@@V?$allocator@U?$pair@$$CBKU_WORLDDATA@CQuizDBCtrl@@@std@@@4@$0A@@std@@@2@@Z PROC NEAR ; std::allocator<std::_Tree_nod<std::_Tmap_traits<unsigned long,CQuizDBCtrl::_WORLDDATA,std::less<unsigned long>,std::allocator<std::pair<unsigned long const ,CQuizDBCtrl::_WORLDDATA> >,0> >::_Node>::destroy, COMDAT
; _this$ = ecx

; 152  : 		_Destroy(_Ptr);
; 153  : 		}

  00000	c2 04 00	 ret	 4
?destroy@?$allocator@U_Node@?$_Tree_nod@V?$_Tmap_traits@KU_WORLDDATA@CQuizDBCtrl@@U?$less@K@std@@V?$allocator@U?$pair@$$CBKU_WORLDDATA@CQuizDBCtrl@@@std@@@4@$0A@@std@@@std@@@std@@QAEXPAU_Node@?$_Tree_nod@V?$_Tmap_traits@KU_WORLDDATA@CQuizDBCtrl@@U?$less@K@std@@V?$allocator@U?$pair@$$CBKU_WORLDDATA@CQuizDBCtrl@@@std@@@4@$0A@@std@@@2@@Z ENDP ; std::allocator<std::_Tree_nod<std::_Tmap_traits<unsigned long,CQuizDBCtrl::_WORLDDATA,std::less<unsigned long>,std::allocator<std::pair<unsigned long const ,CQuizDBCtrl::_WORLDDATA> >,0> >::_Node>::destroy
_TEXT	ENDS
PUBLIC	??0iterator@?$_Tree@V?$_Tmap_traits@KU_WORLDDATA@CQuizDBCtrl@@U?$less@K@std@@V?$allocator@U?$pair@$$CBKU_WORLDDATA@CQuizDBCtrl@@@std@@@4@$0A@@std@@@std@@QAE@PAU_Node@?$_Tree_nod@V?$_Tmap_traits@KU_WORLDDATA@CQuizDBCtrl@@U?$less@K@std@@V?$allocator@U?$pair@$$CBKU_WORLDDATA@CQuizDBCtrl@@@std@@@4@$0A@@std@@@2@@Z ; std::_Tree<std::_Tmap_traits<unsigned long,CQuizDBCtrl::_WORLDDATA,std::less<unsigned long>,std::allocator<std::pair<unsigned long const ,CQuizDBCtrl::_WORLDDATA> >,0> >::iterator::iterator
; Function compile flags: /Ogty
; File c:\program files\microsoft visual studio .net 2003\vc7\include\xtree
;	COMDAT ??0iterator@?$_Tree@V?$_Tmap_traits@KU_WORLDDATA@CQuizDBCtrl@@U?$less@K@std@@V?$allocator@U?$pair@$$CBKU_WORLDDATA@CQuizDBCtrl@@@std@@@4@$0A@@std@@@std@@QAE@PAU_Node@?$_Tree_nod@V?$_Tmap_traits@KU_WORLDDATA@CQuizDBCtrl@@U?$less@K@std@@V?$allocator@U?$pair@$$CBKU_WORLDDATA@CQuizDBCtrl@@@std@@@4@$0A@@std@@@2@@Z
_TEXT	SEGMENT
__Pnode$ = 8						; size = 4
??0iterator@?$_Tree@V?$_Tmap_traits@KU_WORLDDATA@CQuizDBCtrl@@U?$less@K@std@@V?$allocator@U?$pair@$$CBKU_WORLDDATA@CQuizDBCtrl@@@std@@@4@$0A@@std@@@std@@QAE@PAU_Node@?$_Tree_nod@V?$_Tmap_traits@KU_WORLDDATA@CQuizDBCtrl@@U?$less@K@std@@V?$allocator@U?$pair@$$CBKU_WORLDDATA@CQuizDBCtrl@@@std@@@4@$0A@@std@@@2@@Z PROC NEAR ; std::_Tree<std::_Tmap_traits<unsigned long,CQuizDBCtrl::_WORLDDATA,std::less<unsigned long>,std::allocator<std::pair<unsigned long const ,CQuizDBCtrl::_WORLDDATA> >,0> >::iterator::iterator, COMDAT
; _this$ = ecx

; 312  : 			{	// construct with node pointer _Pnode

  00000	8b c1		 mov	 eax, ecx
  00002	8b 4c 24 04	 mov	 ecx, DWORD PTR __Pnode$[esp-4]
  00006	89 08		 mov	 DWORD PTR [eax], ecx

; 313  : 			}

  00008	c2 04 00	 ret	 4
??0iterator@?$_Tree@V?$_Tmap_traits@KU_WORLDDATA@CQuizDBCtrl@@U?$less@K@std@@V?$allocator@U?$pair@$$CBKU_WORLDDATA@CQuizDBCtrl@@@std@@@4@$0A@@std@@@std@@QAE@PAU_Node@?$_Tree_nod@V?$_Tmap_traits@KU_WORLDDATA@CQuizDBCtrl@@U?$less@K@std@@V?$allocator@U?$pair@$$CBKU_WORLDDATA@CQuizDBCtrl@@@std@@@4@$0A@@std@@@2@@Z ENDP ; std::_Tree<std::_Tmap_traits<unsigned long,CQuizDBCtrl::_WORLDDATA,std::less<unsigned long>,std::allocator<std::pair<unsigned long const ,CQuizDBCtrl::_WORLDDATA> >,0> >::iterator::iterator
_TEXT	ENDS
PUBLIC	??Diterator@?$_Tree@V?$_Tmap_traits@KU_WORLDDATA@CQuizDBCtrl@@U?$less@K@std@@V?$allocator@U?$pair@$$CBKU_WORLDDATA@CQuizDBCtrl@@@std@@@4@$0A@@std@@@std@@QBEAAU?$pair@$$CBKU_WORLDDATA@CQuizDBCtrl@@@2@XZ ; std::_Tree<std::_Tmap_traits<unsigned long,CQuizDBCtrl::_WORLDDATA,std::less<unsigned long>,std::allocator<std::pair<unsigned long const ,CQuizDBCtrl::_WORLDDATA> >,0> >::iterator::operator*
; Function compile flags: /Ogty
;	COMDAT ??Diterator@?$_Tree@V?$_Tmap_traits@KU_WORLDDATA@CQuizDBCtrl@@U?$less@K@std@@V?$allocator@U?$pair@$$CBKU_WORLDDATA@CQuizDBCtrl@@@std@@@4@$0A@@std@@@std@@QBEAAU?$pair@$$CBKU_WORLDDATA@CQuizDBCtrl@@@2@XZ
_TEXT	SEGMENT
??Diterator@?$_Tree@V?$_Tmap_traits@KU_WORLDDATA@CQuizDBCtrl@@U?$less@K@std@@V?$allocator@U?$pair@$$CBKU_WORLDDATA@CQuizDBCtrl@@@std@@@4@$0A@@std@@@std@@QBEAAU?$pair@$$CBKU_WORLDDATA@CQuizDBCtrl@@@2@XZ PROC NEAR ; std::_Tree<std::_Tmap_traits<unsigned long,CQuizDBCtrl::_WORLDDATA,std::less<unsigned long>,std::allocator<std::pair<unsigned long const ,CQuizDBCtrl::_WORLDDATA> >,0> >::iterator::operator*, COMDAT
; _this$ = ecx

; 317  : 			return ((reference)**(const_iterator *)this);

  00000	8b 01		 mov	 eax, DWORD PTR [ecx]
  00002	83 c0 0c	 add	 eax, 12			; 0000000cH

; 318  : 			}

  00005	c3		 ret	 0
??Diterator@?$_Tree@V?$_Tmap_traits@KU_WORLDDATA@CQuizDBCtrl@@U?$less@K@std@@V?$allocator@U?$pair@$$CBKU_WORLDDATA@CQuizDBCtrl@@@std@@@4@$0A@@std@@@std@@QBEAAU?$pair@$$CBKU_WORLDDATA@CQuizDBCtrl@@@2@XZ ENDP ; std::_Tree<std::_Tmap_traits<unsigned long,CQuizDBCtrl::_WORLDDATA,std::less<unsigned long>,std::allocator<std::pair<unsigned long const ,CQuizDBCtrl::_WORLDDATA> >,0> >::iterator::operator*
_TEXT	ENDS
PUBLIC	??Econst_iterator@?$_Tree@V?$_Tmap_traits@KU_WORLDDATA@CQuizDBCtrl@@U?$less@K@std@@V?$allocator@U?$pair@$$CBKU_WORLDDATA@CQuizDBCtrl@@@std@@@4@$0A@@std@@@std@@QAEAAV012@XZ ; std::_Tree<std::_Tmap_traits<unsigned long,CQuizDBCtrl::_WORLDDATA,std::less<unsigned long>,std::allocator<std::pair<unsigned long const ,CQuizDBCtrl::_WORLDDATA> >,0> >::const_iterator::operator++
; Function compile flags: /Ogty
;	COMDAT ??Econst_iterator@?$_Tree@V?$_Tmap_traits@KU_WORLDDATA@CQuizDBCtrl@@U?$less@K@std@@V?$allocator@U?$pair@$$CBKU_WORLDDATA@CQuizDBCtrl@@@std@@@4@$0A@@std@@@std@@QAEAAV012@XZ
_TEXT	SEGMENT
??Econst_iterator@?$_Tree@V?$_Tmap_traits@KU_WORLDDATA@CQuizDBCtrl@@U?$less@K@std@@V?$allocator@U?$pair@$$CBKU_WORLDDATA@CQuizDBCtrl@@@std@@@4@$0A@@std@@@std@@QAEAAV012@XZ PROC NEAR ; std::_Tree<std::_Tmap_traits<unsigned long,CQuizDBCtrl::_WORLDDATA,std::less<unsigned long>,std::allocator<std::pair<unsigned long const ,CQuizDBCtrl::_WORLDDATA> >,0> >::const_iterator::operator++, COMDAT
; _this$ = ecx

; 214  : 			{	// preincrement

  00000	56		 push	 esi
  00001	8b f1		 mov	 esi, ecx

; 215  : 			_Inc();

  00003	e8 00 00 00 00	 call	 ?_Inc@const_iterator@?$_Tree@V?$_Tmap_traits@KU_WORLDDATA@CQuizDBCtrl@@U?$less@K@std@@V?$allocator@U?$pair@$$CBKU_WORLDDATA@CQuizDBCtrl@@@std@@@4@$0A@@std@@@std@@QAEXXZ ; std::_Tree<std::_Tmap_traits<unsigned long,CQuizDBCtrl::_WORLDDATA,std::less<unsigned long>,std::allocator<std::pair<unsigned long const ,CQuizDBCtrl::_WORLDDATA> >,0> >::const_iterator::_Inc

; 216  : 			return (*this);

  00008	8b c6		 mov	 eax, esi
  0000a	5e		 pop	 esi

; 217  : 			}

  0000b	c3		 ret	 0
??Econst_iterator@?$_Tree@V?$_Tmap_traits@KU_WORLDDATA@CQuizDBCtrl@@U?$less@K@std@@V?$allocator@U?$pair@$$CBKU_WORLDDATA@CQuizDBCtrl@@@std@@@4@$0A@@std@@@std@@QAEAAV012@XZ ENDP ; std::_Tree<std::_Tmap_traits<unsigned long,CQuizDBCtrl::_WORLDDATA,std::less<unsigned long>,std::allocator<std::pair<unsigned long const ,CQuizDBCtrl::_WORLDDATA> >,0> >::const_iterator::operator++
_TEXT	ENDS
PUBLIC	??Diterator@?$vector@U_QUIZLIST@CQuiz@@V?$allocator@U_QUIZLIST@CQuiz@@@std@@@std@@QBEAAU_QUIZLIST@CQuiz@@XZ ; std::vector<CQuiz::_QUIZLIST,std::allocator<CQuiz::_QUIZLIST> >::iterator::operator*
; Function compile flags: /Ogty
; File c:\program files\microsoft visual studio .net 2003\vc7\include\vector
;	COMDAT ??Diterator@?$vector@U_QUIZLIST@CQuiz@@V?$allocator@U_QUIZLIST@CQuiz@@@std@@@std@@QBEAAU_QUIZLIST@CQuiz@@XZ
_TEXT	SEGMENT
??Diterator@?$vector@U_QUIZLIST@CQuiz@@V?$allocator@U_QUIZLIST@CQuiz@@@std@@@std@@QBEAAU_QUIZLIST@CQuiz@@XZ PROC NEAR ; std::vector<CQuiz::_QUIZLIST,std::allocator<CQuiz::_QUIZLIST> >::iterator::operator*, COMDAT
; _this$ = ecx

; 220  : 			return ((reference)**(const_iterator *)this);

  00000	8b 01		 mov	 eax, DWORD PTR [ecx]

; 221  : 			}

  00002	c3		 ret	 0
??Diterator@?$vector@U_QUIZLIST@CQuiz@@V?$allocator@U_QUIZLIST@CQuiz@@@std@@@std@@QBEAAU_QUIZLIST@CQuiz@@XZ ENDP ; std::vector<CQuiz::_QUIZLIST,std::allocator<CQuiz::_QUIZLIST> >::iterator::operator*
_TEXT	ENDS
PUBLIC	??Hiterator@?$vector@U_QUIZLIST@CQuiz@@V?$allocator@U_QUIZLIST@CQuiz@@@std@@@std@@QBE?AV012@H@Z ; std::vector<CQuiz::_QUIZLIST,std::allocator<CQuiz::_QUIZLIST> >::iterator::operator+
; Function compile flags: /Ogty
;	COMDAT ??Hiterator@?$vector@U_QUIZLIST@CQuiz@@V?$allocator@U_QUIZLIST@CQuiz@@@std@@@std@@QBE?AV012@H@Z
_TEXT	SEGMENT
___$ReturnUdt$ = 8					; size = 4
__Off$ = 12						; size = 4
??Hiterator@?$vector@U_QUIZLIST@CQuiz@@V?$allocator@U_QUIZLIST@CQuiz@@@std@@@std@@QBE?AV012@H@Z PROC NEAR ; std::vector<CQuiz::_QUIZLIST,std::allocator<CQuiz::_QUIZLIST> >::iterator::operator+, COMDAT
; _this$ = ecx

; 262  : 			iterator _Tmp = *this;
; 263  : 			return (_Tmp += _Off);

  00000	8b 44 24 08	 mov	 eax, DWORD PTR __Off$[esp-4]
  00004	8b 09		 mov	 ecx, DWORD PTR [ecx]
  00006	8d 04 80	 lea	 eax, DWORD PTR [eax+eax*4]
  00009	8d 14 81	 lea	 edx, DWORD PTR [ecx+eax*4]
  0000c	8b 44 24 04	 mov	 eax, DWORD PTR ___$ReturnUdt$[esp-4]
  00010	89 10		 mov	 DWORD PTR [eax], edx

; 264  : 			}

  00012	c2 08 00	 ret	 8
??Hiterator@?$vector@U_QUIZLIST@CQuiz@@V?$allocator@U_QUIZLIST@CQuiz@@@std@@@std@@QBE?AV012@H@Z ENDP ; std::vector<CQuiz::_QUIZLIST,std::allocator<CQuiz::_QUIZLIST> >::iterator::operator+
_TEXT	ENDS
PUBLIC	?max_size@?$_Tree@V?$_Tmap_traits@KU_WORLDDATA@CQuizDBCtrl@@U?$less@K@std@@V?$allocator@U?$pair@$$CBKU_WORLDDATA@CQuizDBCtrl@@@std@@@4@$0A@@std@@@std@@QBEIXZ ; std::_Tree<std::_Tmap_traits<unsigned long,CQuizDBCtrl::_WORLDDATA,std::less<unsigned long>,std::allocator<std::pair<unsigned long const ,CQuizDBCtrl::_WORLDDATA> >,0> >::max_size
; Function compile flags: /Ogty
; File c:\program files\microsoft visual studio .net 2003\vc7\include\xtree
;	COMDAT ?max_size@?$_Tree@V?$_Tmap_traits@KU_WORLDDATA@CQuizDBCtrl@@U?$less@K@std@@V?$allocator@U?$pair@$$CBKU_WORLDDATA@CQuizDBCtrl@@@std@@@4@$0A@@std@@@std@@QBEIXZ
_TEXT	SEGMENT
?max_size@?$_Tree@V?$_Tmap_traits@KU_WORLDDATA@CQuizDBCtrl@@U?$less@K@std@@V?$allocator@U?$pair@$$CBKU_WORLDDATA@CQuizDBCtrl@@@std@@@4@$0A@@std@@@std@@QBEIXZ PROC NEAR ; std::_Tree<std::_Tmap_traits<unsigned long,CQuizDBCtrl::_WORLDDATA,std::less<unsigned long>,std::allocator<std::pair<unsigned long const ,CQuizDBCtrl::_WORLDDATA> >,0> >::max_size, COMDAT
; _this$ = ecx

; 453  : 		return (this->_Alval.max_size());

  00000	b8 ff ff ff 07	 mov	 eax, 134217727		; 07ffffffH

; 454  : 		}

  00005	c3		 ret	 0
?max_size@?$_Tree@V?$_Tmap_traits@KU_WORLDDATA@CQuizDBCtrl@@U?$less@K@std@@V?$allocator@U?$pair@$$CBKU_WORLDDATA@CQuizDBCtrl@@@std@@@4@$0A@@std@@@std@@QBEIXZ ENDP ; std::_Tree<std::_Tmap_traits<unsigned long,CQuizDBCtrl::_WORLDDATA,std::less<unsigned long>,std::allocator<std::pair<unsigned long const ,CQuizDBCtrl::_WORLDDATA> >,0> >::max_size
_TEXT	ENDS
PUBLIC	?_Lbound@?$_Tree@V?$_Tmap_traits@KU_WORLDDATA@CQuizDBCtrl@@U?$less@K@std@@V?$allocator@U?$pair@$$CBKU_WORLDDATA@CQuizDBCtrl@@@std@@@4@$0A@@std@@@std@@IBEPAU_Node@?$_Tree_nod@V?$_Tmap_traits@KU_WORLDDATA@CQuizDBCtrl@@U?$less@K@std@@V?$allocator@U?$pair@$$CBKU_WORLDDATA@CQuizDBCtrl@@@std@@@4@$0A@@std@@@2@ABK@Z ; std::_Tree<std::_Tmap_traits<unsigned long,CQuizDBCtrl::_WORLDDATA,std::less<unsigned long>,std::allocator<std::pair<unsigned long const ,CQuizDBCtrl::_WORLDDATA> >,0> >::_Lbound
; Function compile flags: /Ogty
;	COMDAT ?_Lbound@?$_Tree@V?$_Tmap_traits@KU_WORLDDATA@CQuizDBCtrl@@U?$less@K@std@@V?$allocator@U?$pair@$$CBKU_WORLDDATA@CQuizDBCtrl@@@std@@@4@$0A@@std@@@std@@IBEPAU_Node@?$_Tree_nod@V?$_Tmap_traits@KU_WORLDDATA@CQuizDBCtrl@@U?$less@K@std@@V?$allocator@U?$pair@$$CBKU_WORLDDATA@CQuizDBCtrl@@@std@@@4@$0A@@std@@@2@ABK@Z
_TEXT	SEGMENT
__Keyval$ = 8						; size = 4
?_Lbound@?$_Tree@V?$_Tmap_traits@KU_WORLDDATA@CQuizDBCtrl@@U?$less@K@std@@V?$allocator@U?$pair@$$CBKU_WORLDDATA@CQuizDBCtrl@@@std@@@4@$0A@@std@@@std@@IBEPAU_Node@?$_Tree_nod@V?$_Tmap_traits@KU_WORLDDATA@CQuizDBCtrl@@U?$less@K@std@@V?$allocator@U?$pair@$$CBKU_WORLDDATA@CQuizDBCtrl@@@std@@@4@$0A@@std@@@2@ABK@Z PROC NEAR ; std::_Tree<std::_Tmap_traits<unsigned long,CQuizDBCtrl::_WORLDDATA,std::less<unsigned long>,std::allocator<std::pair<unsigned long const ,CQuizDBCtrl::_WORLDDATA> >,0> >::_Lbound, COMDAT
; _this$ = ecx

; 988  : 		_Nodeptr _Pnode = _Root();

  00000	8b 41 04	 mov	 eax, DWORD PTR [ecx+4]
  00003	8b 48 04	 mov	 ecx, DWORD PTR [eax+4]

; 989  : 		_Nodeptr _Wherenode = _Myhead;	// end() if search fails
; 990  : 
; 991  : 		while (!_Isnil(_Pnode))

  00006	8a 51 2d	 mov	 dl, BYTE PTR [ecx+45]
  00009	84 d2		 test	 dl, dl
  0000b	75 1d		 jne	 SHORT $L204845
  0000d	8b 54 24 04	 mov	 edx, DWORD PTR __Keyval$[esp-4]
  00011	8b 12		 mov	 edx, DWORD PTR [edx]
  00013	53		 push	 ebx
$L204844:

; 992  : 			if (this->comp(_Key(_Pnode), _Keyval))

  00014	39 51 0c	 cmp	 DWORD PTR [ecx+12], edx
  00017	73 05		 jae	 SHORT $L204846

; 993  : 				_Pnode = _Right(_Pnode);	// descend right subtree

  00019	8b 49 08	 mov	 ecx, DWORD PTR [ecx+8]

; 994  : 			else

  0001c	eb 04		 jmp	 SHORT $L204847
$L204846:

; 995  : 				{	// _Pnode not less than _Keyval, remember it
; 996  : 				_Wherenode = _Pnode;

  0001e	8b c1		 mov	 eax, ecx

; 997  : 				_Pnode = _Left(_Pnode);	// descend left subtree

  00020	8b 09		 mov	 ecx, DWORD PTR [ecx]
$L204847:
  00022	8a 59 2d	 mov	 bl, BYTE PTR [ecx+45]
  00025	84 db		 test	 bl, bl
  00027	74 eb		 je	 SHORT $L204844
  00029	5b		 pop	 ebx
$L204845:

; 998  : 				}
; 999  : 
; 1000 : 		return (_Wherenode);	// return best remembered candidate
; 1001 : 		}

  0002a	c2 04 00	 ret	 4
?_Lbound@?$_Tree@V?$_Tmap_traits@KU_WORLDDATA@CQuizDBCtrl@@U?$less@K@std@@V?$allocator@U?$pair@$$CBKU_WORLDDATA@CQuizDBCtrl@@@std@@@4@$0A@@std@@@std@@IBEPAU_Node@?$_Tree_nod@V?$_Tmap_traits@KU_WORLDDATA@CQuizDBCtrl@@U?$less@K@std@@V?$allocator@U?$pair@$$CBKU_WORLDDATA@CQuizDBCtrl@@@std@@@4@$0A@@std@@@2@ABK@Z ENDP ; std::_Tree<std::_Tmap_traits<unsigned long,CQuizDBCtrl::_WORLDDATA,std::less<unsigned long>,std::allocator<std::pair<unsigned long const ,CQuizDBCtrl::_WORLDDATA> >,0> >::_Lbound
_TEXT	ENDS
PUBLIC	?destroy@?$allocator@PAU_Node@?$_Tree_nod@V?$_Tmap_traits@KU_WORLDDATA@CQuizDBCtrl@@U?$less@K@std@@V?$allocator@U?$pair@$$CBKU_WORLDDATA@CQuizDBCtrl@@@std@@@4@$0A@@std@@@std@@@std@@QAEXPAPAU_Node@?$_Tree_nod@V?$_Tmap_traits@KU_WORLDDATA@CQuizDBCtrl@@U?$less@K@std@@V?$allocator@U?$pair@$$CBKU_WORLDDATA@CQuizDBCtrl@@@std@@@4@$0A@@std@@@2@@Z ; std::allocator<std::_Tree_nod<std::_Tmap_traits<unsigned long,CQuizDBCtrl::_WORLDDATA,std::less<unsigned long>,std::allocator<std::pair<unsigned long const ,CQuizDBCtrl::_WORLDDATA> >,0> >::_Node *>::destroy
; Function compile flags: /Ogty
; File c:\program files\microsoft visual studio .net 2003\vc7\include\xmemory
;	COMDAT ?destroy@?$allocator@PAU_Node@?$_Tree_nod@V?$_Tmap_traits@KU_WORLDDATA@CQuizDBCtrl@@U?$less@K@std@@V?$allocator@U?$pair@$$CBKU_WORLDDATA@CQuizDBCtrl@@@std@@@4@$0A@@std@@@std@@@std@@QAEXPAPAU_Node@?$_Tree_nod@V?$_Tmap_traits@KU_WORLDDATA@CQuizDBCtrl@@U?$less@K@std@@V?$allocator@U?$pair@$$CBKU_WORLDDATA@CQuizDBCtrl@@@std@@@4@$0A@@std@@@2@@Z
_TEXT	SEGMENT
__Ptr$ = 8						; size = 4
?destroy@?$allocator@PAU_Node@?$_Tree_nod@V?$_Tmap_traits@KU_WORLDDATA@CQuizDBCtrl@@U?$less@K@std@@V?$allocator@U?$pair@$$CBKU_WORLDDATA@CQuizDBCtrl@@@std@@@4@$0A@@std@@@std@@@std@@QAEXPAPAU_Node@?$_Tree_nod@V?$_Tmap_traits@KU_WORLDDATA@CQuizDBCtrl@@U?$less@K@std@@V?$allocator@U?$pair@$$CBKU_WORLDDATA@CQuizDBCtrl@@@std@@@4@$0A@@std@@@2@@Z PROC NEAR ; std::allocator<std::_Tree_nod<std::_Tmap_traits<unsigned long,CQuizDBCtrl::_WORLDDATA,std::less<unsigned long>,std::allocator<std::pair<unsigned long const ,CQuizDBCtrl::_WORLDDATA> >,0> >::_Node *>::destroy, COMDAT
; _this$ = ecx

; 152  : 		_Destroy(_Ptr);
; 153  : 		}

  00000	c2 04 00	 ret	 4
?destroy@?$allocator@PAU_Node@?$_Tree_nod@V?$_Tmap_traits@KU_WORLDDATA@CQuizDBCtrl@@U?$less@K@std@@V?$allocator@U?$pair@$$CBKU_WORLDDATA@CQuizDBCtrl@@@std@@@4@$0A@@std@@@std@@@std@@QAEXPAPAU_Node@?$_Tree_nod@V?$_Tmap_traits@KU_WORLDDATA@CQuizDBCtrl@@U?$less@K@std@@V?$allocator@U?$pair@$$CBKU_WORLDDATA@CQuizDBCtrl@@@std@@@4@$0A@@std@@@2@@Z ENDP ; std::allocator<std::_Tree_nod<std::_Tmap_traits<unsigned long,CQuizDBCtrl::_WORLDDATA,std::less<unsigned long>,std::allocator<std::pair<unsigned long const ,CQuizDBCtrl::_WORLDDATA> >,0> >::_Node *>::destroy
_TEXT	ENDS
PUBLIC	??Fconst_iterator@?$_Tree@V?$_Tmap_traits@KU_WORLDDATA@CQuizDBCtrl@@U?$less@K@std@@V?$allocator@U?$pair@$$CBKU_WORLDDATA@CQuizDBCtrl@@@std@@@4@$0A@@std@@@std@@QAEAAV012@XZ ; std::_Tree<std::_Tmap_traits<unsigned long,CQuizDBCtrl::_WORLDDATA,std::less<unsigned long>,std::allocator<std::pair<unsigned long const ,CQuizDBCtrl::_WORLDDATA> >,0> >::const_iterator::operator--
; Function compile flags: /Ogty
; File c:\program files\microsoft visual studio .net 2003\vc7\include\xtree
;	COMDAT ??Fconst_iterator@?$_Tree@V?$_Tmap_traits@KU_WORLDDATA@CQuizDBCtrl@@U?$less@K@std@@V?$allocator@U?$pair@$$CBKU_WORLDDATA@CQuizDBCtrl@@@std@@@4@$0A@@std@@@std@@QAEAAV012@XZ
_TEXT	SEGMENT
??Fconst_iterator@?$_Tree@V?$_Tmap_traits@KU_WORLDDATA@CQuizDBCtrl@@U?$less@K@std@@V?$allocator@U?$pair@$$CBKU_WORLDDATA@CQuizDBCtrl@@@std@@@4@$0A@@std@@@std@@QAEAAV012@XZ PROC NEAR ; std::_Tree<std::_Tmap_traits<unsigned long,CQuizDBCtrl::_WORLDDATA,std::less<unsigned long>,std::allocator<std::pair<unsigned long const ,CQuizDBCtrl::_WORLDDATA> >,0> >::const_iterator::operator--, COMDAT
; _this$ = ecx

; 227  : 			{	// predecrement

  00000	56		 push	 esi
  00001	8b f1		 mov	 esi, ecx

; 228  : 			_Dec();

  00003	e8 00 00 00 00	 call	 ?_Dec@const_iterator@?$_Tree@V?$_Tmap_traits@KU_WORLDDATA@CQuizDBCtrl@@U?$less@K@std@@V?$allocator@U?$pair@$$CBKU_WORLDDATA@CQuizDBCtrl@@@std@@@4@$0A@@std@@@std@@QAEXXZ ; std::_Tree<std::_Tmap_traits<unsigned long,CQuizDBCtrl::_WORLDDATA,std::less<unsigned long>,std::allocator<std::pair<unsigned long const ,CQuizDBCtrl::_WORLDDATA> >,0> >::const_iterator::_Dec

; 229  : 			return (*this);

  00008	8b c6		 mov	 eax, esi
  0000a	5e		 pop	 esi

; 230  : 			}

  0000b	c3		 ret	 0
??Fconst_iterator@?$_Tree@V?$_Tmap_traits@KU_WORLDDATA@CQuizDBCtrl@@U?$less@K@std@@V?$allocator@U?$pair@$$CBKU_WORLDDATA@CQuizDBCtrl@@@std@@@4@$0A@@std@@@std@@QAEAAV012@XZ ENDP ; std::_Tree<std::_Tmap_traits<unsigned long,CQuizDBCtrl::_WORLDDATA,std::less<unsigned long>,std::allocator<std::pair<unsigned long const ,CQuizDBCtrl::_WORLDDATA> >,0> >::const_iterator::operator--
_TEXT	ENDS
PUBLIC	??0iterator@?$vector@U_QUIZLIST@CQuiz@@V?$allocator@U_QUIZLIST@CQuiz@@@std@@@std@@QAE@PAU_QUIZLIST@CQuiz@@@Z ; std::vector<CQuiz::_QUIZLIST,std::allocator<CQuiz::_QUIZLIST> >::iterator::iterator
; Function compile flags: /Ogty
; File c:\program files\microsoft visual studio .net 2003\vc7\include\vector
;	COMDAT ??0iterator@?$vector@U_QUIZLIST@CQuiz@@V?$allocator@U_QUIZLIST@CQuiz@@@std@@@std@@QAE@PAU_QUIZLIST@CQuiz@@@Z
_TEXT	SEGMENT
__Ptr$ = 8						; size = 4
??0iterator@?$vector@U_QUIZLIST@CQuiz@@V?$allocator@U_QUIZLIST@CQuiz@@@std@@@std@@QAE@PAU_QUIZLIST@CQuiz@@@Z PROC NEAR ; std::vector<CQuiz::_QUIZLIST,std::allocator<CQuiz::_QUIZLIST> >::iterator::iterator, COMDAT
; _this$ = ecx

; 215  : 			{	// construct with pointer _Ptr

  00000	8b c1		 mov	 eax, ecx
  00002	8b 4c 24 04	 mov	 ecx, DWORD PTR __Ptr$[esp-4]
  00006	89 08		 mov	 DWORD PTR [eax], ecx

; 216  : 			}

  00008	c2 04 00	 ret	 4
??0iterator@?$vector@U_QUIZLIST@CQuiz@@V?$allocator@U_QUIZLIST@CQuiz@@@std@@@std@@QAE@PAU_QUIZLIST@CQuiz@@@Z ENDP ; std::vector<CQuiz::_QUIZLIST,std::allocator<CQuiz::_QUIZLIST> >::iterator::iterator
_TEXT	ENDS
PUBLIC	??Giterator@?$vector@U_QUIZLIST@CQuiz@@V?$allocator@U_QUIZLIST@CQuiz@@@std@@@std@@QBEHABVconst_iterator@12@@Z ; std::vector<CQuiz::_QUIZLIST,std::allocator<CQuiz::_QUIZLIST> >::iterator::operator-
; Function compile flags: /Ogty
;	COMDAT ??Giterator@?$vector@U_QUIZLIST@CQuiz@@V?$allocator@U_QUIZLIST@CQuiz@@@std@@@std@@QBEHABVconst_iterator@12@@Z
_TEXT	SEGMENT
__Right$ = 8						; size = 4
??Giterator@?$vector@U_QUIZLIST@CQuiz@@V?$allocator@U_QUIZLIST@CQuiz@@@std@@@std@@QBEHABVconst_iterator@12@@Z PROC NEAR ; std::vector<CQuiz::_QUIZLIST,std::allocator<CQuiz::_QUIZLIST> >::iterator::operator-, COMDAT
; _this$ = ecx

; 279  : 			return ((const_iterator)*this - _Right);

  00000	8b 01		 mov	 eax, DWORD PTR [ecx]
  00002	8b 4c 24 04	 mov	 ecx, DWORD PTR __Right$[esp-4]
  00006	2b 01		 sub	 eax, DWORD PTR [ecx]
  00008	8b c8		 mov	 ecx, eax
  0000a	b8 67 66 66 66	 mov	 eax, 1717986919		; 66666667H
  0000f	f7 e9		 imul	 ecx
  00011	c1 fa 03	 sar	 edx, 3
  00014	8b c2		 mov	 eax, edx
  00016	c1 e8 1f	 shr	 eax, 31			; 0000001fH
  00019	03 c2		 add	 eax, edx

; 280  : 			}

  0001b	c2 04 00	 ret	 4
??Giterator@?$vector@U_QUIZLIST@CQuiz@@V?$allocator@U_QUIZLIST@CQuiz@@@std@@@std@@QBEHABVconst_iterator@12@@Z ENDP ; std::vector<CQuiz::_QUIZLIST,std::allocator<CQuiz::_QUIZLIST> >::iterator::operator-
_TEXT	ENDS
PUBLIC	?allocate@?$allocator@U_Node@?$_Tree_nod@V?$_Tmap_traits@KU_WORLDDATA@CQuizDBCtrl@@U?$less@K@std@@V?$allocator@U?$pair@$$CBKU_WORLDDATA@CQuizDBCtrl@@@std@@@4@$0A@@std@@@std@@@std@@QAEPAU_Node@?$_Tree_nod@V?$_Tmap_traits@KU_WORLDDATA@CQuizDBCtrl@@U?$less@K@std@@V?$allocator@U?$pair@$$CBKU_WORLDDATA@CQuizDBCtrl@@@std@@@4@$0A@@std@@@2@I@Z ; std::allocator<std::_Tree_nod<std::_Tmap_traits<unsigned long,CQuizDBCtrl::_WORLDDATA,std::less<unsigned long>,std::allocator<std::pair<unsigned long const ,CQuizDBCtrl::_WORLDDATA> >,0> >::_Node>::allocate
; Function compile flags: /Ogty
; File c:\program files\microsoft visual studio .net 2003\vc7\include\xmemory
;	COMDAT ?allocate@?$allocator@U_Node@?$_Tree_nod@V?$_Tmap_traits@KU_WORLDDATA@CQuizDBCtrl@@U?$less@K@std@@V?$allocator@U?$pair@$$CBKU_WORLDDATA@CQuizDBCtrl@@@std@@@4@$0A@@std@@@std@@@std@@QAEPAU_Node@?$_Tree_nod@V?$_Tmap_traits@KU_WORLDDATA@CQuizDBCtrl@@U?$less@K@std@@V?$allocator@U?$pair@$$CBKU_WORLDDATA@CQuizDBCtrl@@@std@@@4@$0A@@std@@@2@I@Z
_TEXT	SEGMENT
__Count$ = 8						; size = 4
?allocate@?$allocator@U_Node@?$_Tree_nod@V?$_Tmap_traits@KU_WORLDDATA@CQuizDBCtrl@@U?$less@K@std@@V?$allocator@U?$pair@$$CBKU_WORLDDATA@CQuizDBCtrl@@@std@@@4@$0A@@std@@@std@@@std@@QAEPAU_Node@?$_Tree_nod@V?$_Tmap_traits@KU_WORLDDATA@CQuizDBCtrl@@U?$less@K@std@@V?$allocator@U?$pair@$$CBKU_WORLDDATA@CQuizDBCtrl@@@std@@@4@$0A@@std@@@2@I@Z PROC NEAR ; std::allocator<std::_Tree_nod<std::_Tmap_traits<unsigned long,CQuizDBCtrl::_WORLDDATA,std::less<unsigned long>,std::allocator<std::pair<unsigned long const ,CQuizDBCtrl::_WORLDDATA> >,0> >::_Node>::allocate, COMDAT
; _this$ = ecx

; 137  : 		return (_Allocate(_Count, (pointer)0));

  00000	8b 44 24 04	 mov	 eax, DWORD PTR __Count$[esp-4]
  00004	8d 04 40	 lea	 eax, DWORD PTR [eax+eax*2]
  00007	c1 e0 04	 shl	 eax, 4
  0000a	50		 push	 eax
  0000b	e8 00 00 00 00	 call	 ??2@YAPAXI@Z		; operator new
  00010	83 c4 04	 add	 esp, 4

; 138  : 		}

  00013	c2 04 00	 ret	 4
?allocate@?$allocator@U_Node@?$_Tree_nod@V?$_Tmap_traits@KU_WORLDDATA@CQuizDBCtrl@@U?$less@K@std@@V?$allocator@U?$pair@$$CBKU_WORLDDATA@CQuizDBCtrl@@@std@@@4@$0A@@std@@@std@@@std@@QAEPAU_Node@?$_Tree_nod@V?$_Tmap_traits@KU_WORLDDATA@CQuizDBCtrl@@U?$less@K@std@@V?$allocator@U?$pair@$$CBKU_WORLDDATA@CQuizDBCtrl@@@std@@@4@$0A@@std@@@2@I@Z ENDP ; std::allocator<std::_Tree_nod<std::_Tmap_traits<unsigned long,CQuizDBCtrl::_WORLDDATA,std::less<unsigned long>,std::allocator<std::pair<unsigned long const ,CQuizDBCtrl::_WORLDDATA> >,0> >::_Node>::allocate
_TEXT	ENDS
PUBLIC	?max_size@?$vector@U_QUIZLIST@CQuiz@@V?$allocator@U_QUIZLIST@CQuiz@@@std@@@std@@QBEIXZ ; std::vector<CQuiz::_QUIZLIST,std::allocator<CQuiz::_QUIZLIST> >::max_size
; Function compile flags: /Ogty
; File c:\program files\microsoft visual studio .net 2003\vc7\include\vector
;	COMDAT ?max_size@?$vector@U_QUIZLIST@CQuiz@@V?$allocator@U_QUIZLIST@CQuiz@@@std@@@std@@QBEIXZ
_TEXT	SEGMENT
?max_size@?$vector@U_QUIZLIST@CQuiz@@V?$allocator@U_QUIZLIST@CQuiz@@@std@@@std@@QBEIXZ PROC NEAR ; std::vector<CQuiz::_QUIZLIST,std::allocator<CQuiz::_QUIZLIST> >::max_size, COMDAT
; _this$ = ecx

; 521  : 		return (this->_Alval.max_size());

  00000	b8 cc cc cc 0c	 mov	 eax, 214748364		; 0cccccccH

; 522  : 		}

  00005	c3		 ret	 0
?max_size@?$vector@U_QUIZLIST@CQuiz@@V?$allocator@U_QUIZLIST@CQuiz@@@std@@@std@@QBEIXZ ENDP ; std::vector<CQuiz::_QUIZLIST,std::allocator<CQuiz::_QUIZLIST> >::max_size
_TEXT	ENDS
PUBLIC	?allocate@?$allocator@U_QUIZLIST@CQuiz@@@std@@QAEPAU_QUIZLIST@CQuiz@@I@Z ; std::allocator<CQuiz::_QUIZLIST>::allocate
; Function compile flags: /Ogty
; File c:\program files\microsoft visual studio .net 2003\vc7\include\xmemory
;	COMDAT ?allocate@?$allocator@U_QUIZLIST@CQuiz@@@std@@QAEPAU_QUIZLIST@CQuiz@@I@Z
_TEXT	SEGMENT
__Count$ = 8						; size = 4
?allocate@?$allocator@U_QUIZLIST@CQuiz@@@std@@QAEPAU_QUIZLIST@CQuiz@@I@Z PROC NEAR ; std::allocator<CQuiz::_QUIZLIST>::allocate, COMDAT
; _this$ = ecx

; 137  : 		return (_Allocate(_Count, (pointer)0));

  00000	8b 44 24 04	 mov	 eax, DWORD PTR __Count$[esp-4]
  00004	8d 04 80	 lea	 eax, DWORD PTR [eax+eax*4]
  00007	c1 e0 02	 shl	 eax, 2
  0000a	50		 push	 eax
  0000b	e8 00 00 00 00	 call	 ??2@YAPAXI@Z		; operator new
  00010	83 c4 04	 add	 esp, 4

; 138  : 		}

  00013	c2 04 00	 ret	 4
?allocate@?$allocator@U_QUIZLIST@CQuiz@@@std@@QAEPAU_QUIZLIST@CQuiz@@I@Z ENDP ; std::allocator<CQuiz::_QUIZLIST>::allocate
_TEXT	ENDS
PUBLIC	??0?$_Tree_nod@V?$_Tmap_traits@KU_WORLDDATA@CQuizDBCtrl@@U?$less@K@std@@V?$allocator@U?$pair@$$CBKU_WORLDDATA@CQuizDBCtrl@@@std@@@4@$0A@@std@@@std@@IAE@ABU?$less@K@1@V?$allocator@U?$pair@$$CBKU_WORLDDATA@CQuizDBCtrl@@@std@@@1@@Z ; std::_Tree_nod<std::_Tmap_traits<unsigned long,CQuizDBCtrl::_WORLDDATA,std::less<unsigned long>,std::allocator<std::pair<unsigned long const ,CQuizDBCtrl::_WORLDDATA> >,0> >::_Tree_nod<std::_Tmap_traits<unsigned long,CQuizDBCtrl::_WORLDDATA,std::less<unsigned long>,std::allocator<std::pair<unsigned long const ,CQuizDBCtrl::_WORLDDATA> >,0> >
; Function compile flags: /Ogty
; File c:\program files\microsoft visual studio .net 2003\vc7\include\xtree
;	COMDAT ??0?$_Tree_nod@V?$_Tmap_traits@KU_WORLDDATA@CQuizDBCtrl@@U?$less@K@std@@V?$allocator@U?$pair@$$CBKU_WORLDDATA@CQuizDBCtrl@@@std@@@4@$0A@@std@@@std@@IAE@ABU?$less@K@1@V?$allocator@U?$pair@$$CBKU_WORLDDATA@CQuizDBCtrl@@@std@@@1@@Z
_TEXT	SEGMENT
__Parg$ = 8						; size = 4
__Al$ = 12						; size = 1
??0?$_Tree_nod@V?$_Tmap_traits@KU_WORLDDATA@CQuizDBCtrl@@U?$less@K@std@@V?$allocator@U?$pair@$$CBKU_WORLDDATA@CQuizDBCtrl@@@std@@@4@$0A@@std@@@std@@IAE@ABU?$less@K@1@V?$allocator@U?$pair@$$CBKU_WORLDDATA@CQuizDBCtrl@@@std@@@1@@Z PROC NEAR ; std::_Tree_nod<std::_Tmap_traits<unsigned long,CQuizDBCtrl::_WORLDDATA,std::less<unsigned long>,std::allocator<std::pair<unsigned long const ,CQuizDBCtrl::_WORLDDATA> >,0> >::_Tree_nod<std::_Tmap_traits<unsigned long,CQuizDBCtrl::_WORLDDATA,std::less<unsigned long>,std::allocator<std::pair<unsigned long const ,CQuizDBCtrl::_WORLDDATA> >,0> >, COMDAT
; _this$ = ecx

; 54   : 		{	// construct traits from _Parg and allocator from _Al

  00000	8b c1		 mov	 eax, ecx

; 55   : 		}

  00002	c2 08 00	 ret	 8
??0?$_Tree_nod@V?$_Tmap_traits@KU_WORLDDATA@CQuizDBCtrl@@U?$less@K@std@@V?$allocator@U?$pair@$$CBKU_WORLDDATA@CQuizDBCtrl@@@std@@@4@$0A@@std@@@std@@IAE@ABU?$less@K@1@V?$allocator@U?$pair@$$CBKU_WORLDDATA@CQuizDBCtrl@@@std@@@1@@Z ENDP ; std::_Tree_nod<std::_Tmap_traits<unsigned long,CQuizDBCtrl::_WORLDDATA,std::less<unsigned long>,std::allocator<std::pair<unsigned long const ,CQuizDBCtrl::_WORLDDATA> >,0> >::_Tree_nod<std::_Tmap_traits<unsigned long,CQuizDBCtrl::_WORLDDATA,std::less<unsigned long>,std::allocator<std::pair<unsigned long const ,CQuizDBCtrl::_WORLDDATA> >,0> >
_TEXT	ENDS
PUBLIC	?construct@?$allocator@PAU_Node@?$_Tree_nod@V?$_Tmap_traits@KU_WORLDDATA@CQuizDBCtrl@@U?$less@K@std@@V?$allocator@U?$pair@$$CBKU_WORLDDATA@CQuizDBCtrl@@@std@@@4@$0A@@std@@@std@@@std@@QAEXPAPAU_Node@?$_Tree_nod@V?$_Tmap_traits@KU_WORLDDATA@CQuizDBCtrl@@U?$less@K@std@@V?$allocator@U?$pair@$$CBKU_WORLDDATA@CQuizDBCtrl@@@std@@@4@$0A@@std@@@2@ABQAU342@@Z ; std::allocator<std::_Tree_nod<std::_Tmap_traits<unsigned long,CQuizDBCtrl::_WORLDDATA,std::less<unsigned long>,std::allocator<std::pair<unsigned long const ,CQuizDBCtrl::_WORLDDATA> >,0> >::_Node *>::construct
; Function compile flags: /Ogty
; File c:\program files\microsoft visual studio .net 2003\vc7\include\xmemory
;	COMDAT ?construct@?$allocator@PAU_Node@?$_Tree_nod@V?$_Tmap_traits@KU_WORLDDATA@CQuizDBCtrl@@U?$less@K@std@@V?$allocator@U?$pair@$$CBKU_WORLDDATA@CQuizDBCtrl@@@std@@@4@$0A@@std@@@std@@@std@@QAEXPAPAU_Node@?$_Tree_nod@V?$_Tmap_traits@KU_WORLDDATA@CQuizDBCtrl@@U?$less@K@std@@V?$allocator@U?$pair@$$CBKU_WORLDDATA@CQuizDBCtrl@@@std@@@4@$0A@@std@@@2@ABQAU342@@Z
_TEXT	SEGMENT
__Ptr$ = 8						; size = 4
__Val$ = 12						; size = 4
?construct@?$allocator@PAU_Node@?$_Tree_nod@V?$_Tmap_traits@KU_WORLDDATA@CQuizDBCtrl@@U?$less@K@std@@V?$allocator@U?$pair@$$CBKU_WORLDDATA@CQuizDBCtrl@@@std@@@4@$0A@@std@@@std@@@std@@QAEXPAPAU_Node@?$_Tree_nod@V?$_Tmap_traits@KU_WORLDDATA@CQuizDBCtrl@@U?$less@K@std@@V?$allocator@U?$pair@$$CBKU_WORLDDATA@CQuizDBCtrl@@@std@@@4@$0A@@std@@@2@ABQAU342@@Z PROC NEAR ; std::allocator<std::_Tree_nod<std::_Tmap_traits<unsigned long,CQuizDBCtrl::_WORLDDATA,std::less<unsigned long>,std::allocator<std::pair<unsigned long const ,CQuizDBCtrl::_WORLDDATA> >,0> >::_Node *>::construct, COMDAT
; _this$ = ecx

; 147  : 		_Construct(_Ptr, _Val);

  00000	8b 44 24 04	 mov	 eax, DWORD PTR __Ptr$[esp-4]
  00004	85 c0		 test	 eax, eax
  00006	74 08		 je	 SHORT $L206744
  00008	8b 4c 24 08	 mov	 ecx, DWORD PTR __Val$[esp-4]
  0000c	8b 11		 mov	 edx, DWORD PTR [ecx]
  0000e	89 10		 mov	 DWORD PTR [eax], edx
$L206744:

; 148  : 		}

  00010	c2 08 00	 ret	 8
?construct@?$allocator@PAU_Node@?$_Tree_nod@V?$_Tmap_traits@KU_WORLDDATA@CQuizDBCtrl@@U?$less@K@std@@V?$allocator@U?$pair@$$CBKU_WORLDDATA@CQuizDBCtrl@@@std@@@4@$0A@@std@@@std@@@std@@QAEXPAPAU_Node@?$_Tree_nod@V?$_Tmap_traits@KU_WORLDDATA@CQuizDBCtrl@@U?$less@K@std@@V?$allocator@U?$pair@$$CBKU_WORLDDATA@CQuizDBCtrl@@@std@@@4@$0A@@std@@@2@ABQAU342@@Z ENDP ; std::allocator<std::_Tree_nod<std::_Tmap_traits<unsigned long,CQuizDBCtrl::_WORLDDATA,std::less<unsigned long>,std::allocator<std::pair<unsigned long const ,CQuizDBCtrl::_WORLDDATA> >,0> >::_Node *>::construct
_TEXT	ENDS
PUBLIC	?GetText@CProject@@QAEPBDK@Z			; CProject::GetText
PUBLIC	??_C@_00CNPNBAHC@?$AA@				; `string'
;	COMDAT ??_C@_00CNPNBAHC@?$AA@
; File c:\documents and settings\test\mes documents\source\virtuos_v17\build\program\_common\data.h
CONST	SEGMENT
??_C@_00CNPNBAHC@?$AA@ DB 00H				; `string'
; Function compile flags: /Ogty
; File c:\documents and settings\test\mes documents\source\virtuos_v17\build\program\databaseserver\project.h
CONST	ENDS
;	COMDAT ?GetText@CProject@@QAEPBDK@Z
_TEXT	SEGMENT
_dwIndex$ = 8						; size = 4
?GetText@CProject@@QAEPBDK@Z PROC NEAR			; CProject::GetText, COMDAT
; _this$ = ecx

; 184  : 		if( m_colorText.GetAt( dwIndex ) == NULL )

  00000	8b 44 24 04	 mov	 eax, DWORD PTR _dwIndex$[esp-4]
  00004	3b 41 7c	 cmp	 eax, DWORD PTR [ecx+124]
  00007	73 0a		 jae	 SHORT $L206762
  00009	8b 51 6c	 mov	 edx, DWORD PTR [ecx+108]
  0000c	8b 14 82	 mov	 edx, DWORD PTR [edx+eax*4]
  0000f	85 d2		 test	 edx, edx
  00011	75 08		 jne	 SHORT $L156726
$L206762:

; 185  : 			return "";

  00013	b8 00 00 00 00	 mov	 eax, OFFSET FLAT:??_C@_00CNPNBAHC@?$AA@

; 187  : 	}

  00018	c2 04 00	 ret	 4
$L156726:

; 186  : 		return m_colorText.GetAt( dwIndex )->lpszData; 

  0001b	3b 41 7c	 cmp	 eax, DWORD PTR [ecx+124]
  0001e	72 08		 jb	 SHORT $L206759
  00020	33 c0		 xor	 eax, eax
  00022	8b 40 04	 mov	 eax, DWORD PTR [eax+4]

; 187  : 	}

  00025	c2 04 00	 ret	 4

; 186  : 		return m_colorText.GetAt( dwIndex )->lpszData; 

$L206759:
  00028	8b 49 6c	 mov	 ecx, DWORD PTR [ecx+108]
  0002b	8b 04 81	 mov	 eax, DWORD PTR [ecx+eax*4]
  0002e	8b 40 04	 mov	 eax, DWORD PTR [eax+4]

; 187  : 	}

  00031	c2 04 00	 ret	 4
?GetText@CProject@@QAEPBDK@Z ENDP			; CProject::GetText
_TEXT	ENDS
PUBLIC	??5CAr@@QAEAAV0@AAH@Z				; CAr::operator>>
; Function compile flags: /Ogty
; File c:\documents and settings\test\mes documents\source\virtuos_v17\build\program\_network\misc\include\ar.h
;	COMDAT ??5CAr@@QAEAAV0@AAH@Z
_TEXT	SEGMENT
_i$ = 8							; size = 4
??5CAr@@QAEAAV0@AAH@Z PROC NEAR				; CAr::operator>>, COMDAT
; _this$ = ecx

; 126  : 	{ return CAr::operator>>((LONG&)i); }

  00000	8b c1		 mov	 eax, ecx
  00002	8b 48 08	 mov	 ecx, DWORD PTR [eax+8]
  00005	56		 push	 esi
  00006	8b 70 0c	 mov	 esi, DWORD PTR [eax+12]
  00009	8d 51 04	 lea	 edx, DWORD PTR [ecx+4]
  0000c	3b d6		 cmp	 edx, esi
  0000e	5e		 pop	 esi
  0000f	77 0f		 ja	 SHORT $L206767
  00011	8b 09		 mov	 ecx, DWORD PTR [ecx]
  00013	8b 54 24 04	 mov	 edx, DWORD PTR _i$[esp-4]
  00017	89 0a		 mov	 DWORD PTR [edx], ecx
  00019	83 40 08 04	 add	 DWORD PTR [eax+8], 4
  0001d	c2 04 00	 ret	 4
$L206767:
  00020	8b 4c 24 04	 mov	 ecx, DWORD PTR _i$[esp-4]
  00024	c7 01 00 00 00
	00		 mov	 DWORD PTR [ecx], 0
  0002a	8b 50 0c	 mov	 edx, DWORD PTR [eax+12]
  0002d	89 50 08	 mov	 DWORD PTR [eax+8], edx
  00030	c2 04 00	 ret	 4
??5CAr@@QAEAAV0@AAH@Z ENDP				; CAr::operator>>
_TEXT	ENDS
PUBLIC	?GetLength@?$CSimpleStringT@D$0A@@ATL@@QBEHXZ	; ATL::CSimpleStringT<char,0>::GetLength
; Function compile flags: /Ogty
; File c:\program files\microsoft visual studio .net 2003\vc7\atlmfc\include\atlsimpstr.h
;	COMDAT ?GetLength@?$CSimpleStringT@D$0A@@ATL@@QBEHXZ
_TEXT	SEGMENT
?GetLength@?$CSimpleStringT@D$0A@@ATL@@QBEHXZ PROC NEAR	; ATL::CSimpleStringT<char,0>::GetLength, COMDAT
; _this$ = ecx

; 501  : 		return( GetData()->nDataLength );

  00000	8b 01		 mov	 eax, DWORD PTR [ecx]
  00002	8b 40 f4	 mov	 eax, DWORD PTR [eax-12]

; 502  : 	}

  00005	c3		 ret	 0
?GetLength@?$CSimpleStringT@D$0A@@ATL@@QBEHXZ ENDP	; ATL::CSimpleStringT<char,0>::GetLength
_TEXT	ENDS
PUBLIC	??0?$CSimpleStringT@D$0A@@ATL@@QAE@PAUIAtlStringMgr@1@@Z ; ATL::CSimpleStringT<char,0>::CSimpleStringT<char,0>
; Function compile flags: /Ogty
;	COMDAT ??0?$CSimpleStringT@D$0A@@ATL@@QAE@PAUIAtlStringMgr@1@@Z
_TEXT	SEGMENT
_pStringMgr$ = 8					; size = 4
??0?$CSimpleStringT@D$0A@@ATL@@QAE@PAUIAtlStringMgr@1@@Z PROC NEAR ; ATL::CSimpleStringT<char,0>::CSimpleStringT<char,0>, COMDAT
; _this$ = ecx

; 210  : 	explicit CSimpleStringT( IAtlStringMgr* pStringMgr ) throw()

  00000	56		 push	 esi
  00001	8b f1		 mov	 esi, ecx

; 211  : 	{
; 212  : 		ATLASSERT( pStringMgr != NULL );
; 213  : 		CStringData* pData = pStringMgr->GetNilString();

  00003	8b 4c 24 08	 mov	 ecx, DWORD PTR _pStringMgr$[esp]
  00007	8b 01		 mov	 eax, DWORD PTR [ecx]
  00009	ff 50 0c	 call	 DWORD PTR [eax+12]

; 214  : 		Attach( pData );

  0000c	83 c0 10	 add	 eax, 16			; 00000010H
  0000f	89 06		 mov	 DWORD PTR [esi], eax

; 215  : 	}

  00011	8b c6		 mov	 eax, esi
  00013	5e		 pop	 esi
  00014	c2 04 00	 ret	 4
??0?$CSimpleStringT@D$0A@@ATL@@QAE@PAUIAtlStringMgr@1@@Z ENDP ; ATL::CSimpleStringT<char,0>::CSimpleStringT<char,0>
_TEXT	ENDS
PUBLIC	??1?$CSimpleStringT@D$0A@@ATL@@QAE@XZ		; ATL::CSimpleStringT<char,0>::~CSimpleStringT<char,0>
; Function compile flags: /Ogty
;	COMDAT ??1?$CSimpleStringT@D$0A@@ATL@@QAE@XZ
_TEXT	SEGMENT
??1?$CSimpleStringT@D$0A@@ATL@@QAE@XZ PROC NEAR		; ATL::CSimpleStringT<char,0>::~CSimpleStringT<char,0>, COMDAT
; _this$ = ecx

; 263  : 		CStringData* pData = GetData();

  00000	8b 01		 mov	 eax, DWORD PTR [ecx]
  00002	83 e8 10	 sub	 eax, 16			; 00000010H

; 264  : 		pData->Release();

  00005	8d 48 0c	 lea	 ecx, DWORD PTR [eax+12]
  00008	83 ca ff	 or	 edx, -1
  0000b	f0 0f c1 11	 lock	  xadd	 DWORD PTR [ecx], edx
  0000f	4a		 dec	 edx
  00010	85 d2		 test	 edx, edx
  00012	7f 08		 jg	 SHORT $L206793
  00014	8b 08		 mov	 ecx, DWORD PTR [eax]
  00016	8b 11		 mov	 edx, DWORD PTR [ecx]
  00018	50		 push	 eax
  00019	ff 52 04	 call	 DWORD PTR [edx+4]
$L206793:

; 265  : 	}

  0001c	c3		 ret	 0
??1?$CSimpleStringT@D$0A@@ATL@@QAE@XZ ENDP		; ATL::CSimpleStringT<char,0>::~CSimpleStringT<char,0>
_TEXT	ENDS
PUBLIC	?ReleaseBufferSetLength@?$CSimpleStringT@D$0A@@ATL@@QAEXH@Z ; ATL::CSimpleStringT<char,0>::ReleaseBufferSetLength
; Function compile flags: /Ogty
;	COMDAT ?ReleaseBufferSetLength@?$CSimpleStringT@D$0A@@ATL@@QAEXH@Z
_TEXT	SEGMENT
_nNewLength$ = 8					; size = 4
?ReleaseBufferSetLength@?$CSimpleStringT@D$0A@@ATL@@QAEXH@Z PROC NEAR ; ATL::CSimpleStringT<char,0>::ReleaseBufferSetLength, COMDAT
; _this$ = ecx

; 547  : 		ATLASSERT( nNewLength >= 0 );
; 548  : 		SetLength( nNewLength );

  00000	8b 44 24 04	 mov	 eax, DWORD PTR _nNewLength$[esp-4]
  00004	85 c0		 test	 eax, eax
  00006	7c 13		 jl	 SHORT $L206805
  00008	8b 11		 mov	 edx, DWORD PTR [ecx]
  0000a	3b 42 f8	 cmp	 eax, DWORD PTR [edx-8]
  0000d	7f 0c		 jg	 SHORT $L206805
  0000f	89 42 f4	 mov	 DWORD PTR [edx-12], eax
  00012	8b 09		 mov	 ecx, DWORD PTR [ecx]
  00014	c6 04 08 00	 mov	 BYTE PTR [eax+ecx], 0

; 549  : 	}

  00018	c2 04 00	 ret	 4
$L206805:
  0001b	68 57 00 07 80	 push	 -2147024809		; 80070057H
  00020	e8 00 00 00 00	 call	 ?AtlThrow@ATL@@YGXJ@Z	; ATL::AtlThrow
$L206812:
  00025	cc		 int	 3
?ReleaseBufferSetLength@?$CSimpleStringT@D$0A@@ATL@@QAEXH@Z ENDP ; ATL::CSimpleStringT<char,0>::ReleaseBufferSetLength
_TEXT	ENDS
PUBLIC	??0?$_String_val@DV?$allocator@D@std@@@std@@IAE@V?$allocator@D@1@@Z ; std::_String_val<char,std::allocator<char> >::_String_val<char,std::allocator<char> >
; Function compile flags: /Ogty
; File c:\program files\microsoft visual studio .net 2003\vc7\include\xstring
;	COMDAT ??0?$_String_val@DV?$allocator@D@std@@@std@@IAE@V?$allocator@D@1@@Z
_TEXT	SEGMENT
__Al$ = 8						; size = 1
??0?$_String_val@DV?$allocator@D@std@@@std@@IAE@V?$allocator@D@1@@Z PROC NEAR ; std::_String_val<char,std::allocator<char> >::_String_val<char,std::allocator<char> >, COMDAT
; _this$ = ecx

; 34   : 		{	// construct allocator from _Al

  00000	8b c1		 mov	 eax, ecx

; 35   : 		}

  00002	c2 04 00	 ret	 4
??0?$_String_val@DV?$allocator@D@std@@@std@@IAE@V?$allocator@D@1@@Z ENDP ; std::_String_val<char,std::allocator<char> >::_String_val<char,std::allocator<char> >
_TEXT	ENDS
PUBLIC	?Empty@?$CSimpleStringT@D$0A@@ATL@@QAEXXZ	; ATL::CSimpleStringT<char,0>::Empty
; Function compile flags: /Ogty
; File c:\program files\microsoft visual studio .net 2003\vc7\atlmfc\include\atlsimpstr.h
;	COMDAT ?Empty@?$CSimpleStringT@D$0A@@ATL@@QAEXXZ
_TEXT	SEGMENT
?Empty@?$CSimpleStringT@D$0A@@ATL@@QAEXXZ PROC NEAR	; ATL::CSimpleStringT<char,0>::Empty, COMDAT
; _this$ = ecx

; 421  : 	{

  00000	56		 push	 esi
  00001	8b f1		 mov	 esi, ecx

; 422  : 		CStringData* pOldData = GetData();

  00003	8b 0e		 mov	 ecx, DWORD PTR [esi]

; 423  : 		IAtlStringMgr* pStringMgr = pOldData->pStringMgr;
; 424  : 		if( pOldData->nDataLength == 0 )

  00005	8b 51 f4	 mov	 edx, DWORD PTR [ecx-12]
  00008	85 d2		 test	 edx, edx
  0000a	8d 41 f0	 lea	 eax, DWORD PTR [ecx-16]
  0000d	57		 push	 edi
  0000e	8b 38		 mov	 edi, DWORD PTR [eax]
  00010	74 4c		 je	 SHORT $L206852
  00012	53		 push	 ebx

; 425  : 		{
; 426  : 			return;
; 427  : 		}
; 428  : 
; 429  : 		if( pOldData->IsLocked() )

  00013	8b 58 0c	 mov	 ebx, DWORD PTR [eax+12]
  00016	8d 50 0c	 lea	 edx, DWORD PTR [eax+12]
  00019	85 db		 test	 ebx, ebx
  0001b	5b		 pop	 ebx
  0001c	7d 20		 jge	 SHORT $L184939

; 430  : 		{
; 431  : 			// Don't reallocate a locked buffer that's shrinking
; 432  : 			SetLength( 0 );

  0001e	8b 41 f8	 mov	 eax, DWORD PTR [ecx-8]
  00021	85 c0		 test	 eax, eax
  00023	7d 0a		 jge	 SHORT $L206834
  00025	68 57 00 07 80	 push	 -2147024809		; 80070057H
  0002a	e8 00 00 00 00	 call	 ?AtlThrow@ATL@@YGXJ@Z	; ATL::AtlThrow
$L206834:
  0002f	c7 41 f4 00 00
	00 00		 mov	 DWORD PTR [ecx-12], 0
  00036	8b 06		 mov	 eax, DWORD PTR [esi]
  00038	5f		 pop	 edi
  00039	c6 00 00	 mov	 BYTE PTR [eax], 0
  0003c	5e		 pop	 esi

; 439  : 		}
; 440  : 	}

  0003d	c3		 ret	 0
$L184939:

; 433  : 		}
; 434  : 		else
; 435  : 		{
; 436  : 			pOldData->Release();

  0003e	83 c9 ff	 or	 ecx, -1
  00041	f0 0f c1 0a	 lock	  xadd	 DWORD PTR [edx], ecx
  00045	49		 dec	 ecx
  00046	85 c9		 test	 ecx, ecx
  00048	7f 08		 jg	 SHORT $L206844
  0004a	8b 08		 mov	 ecx, DWORD PTR [eax]
  0004c	8b 11		 mov	 edx, DWORD PTR [ecx]
  0004e	50		 push	 eax
  0004f	ff 52 04	 call	 DWORD PTR [edx+4]
$L206844:

; 437  : 			CStringData* pNewData = pStringMgr->GetNilString();

  00052	8b 07		 mov	 eax, DWORD PTR [edi]
  00054	8b cf		 mov	 ecx, edi
  00056	ff 50 0c	 call	 DWORD PTR [eax+12]

; 438  : 			Attach( pNewData );

  00059	83 c0 10	 add	 eax, 16			; 00000010H
  0005c	89 06		 mov	 DWORD PTR [esi], eax
$L206852:
  0005e	5f		 pop	 edi
  0005f	5e		 pop	 esi

; 439  : 		}
; 440  : 	}

  00060	c3		 ret	 0
$L206854:
?Empty@?$CSimpleStringT@D$0A@@ATL@@QAEXXZ ENDP		; ATL::CSimpleStringT<char,0>::Empty
_TEXT	ENDS
PUBLIC	?PrepareWrite2@?$CSimpleStringT@D$0A@@ATL@@AAEXH@Z ; ATL::CSimpleStringT<char,0>::PrepareWrite2
; Function compile flags: /Ogty
;	COMDAT ?PrepareWrite2@?$CSimpleStringT@D$0A@@ATL@@AAEXH@Z
_TEXT	SEGMENT
_nLength$ = 8						; size = 4
?PrepareWrite2@?$CSimpleStringT@D$0A@@ATL@@AAEXH@Z PROC NEAR ; ATL::CSimpleStringT<char,0>::PrepareWrite2, COMDAT
; _this$ = ecx

; 747  : 		CStringData* pOldData = GetData();

  00000	8b 01		 mov	 eax, DWORD PTR [ecx]

; 748  : 		if( pOldData->nDataLength > nLength )

  00002	8b 54 24 04	 mov	 edx, DWORD PTR _nLength$[esp-4]
  00006	83 e8 10	 sub	 eax, 16			; 00000010H
  00009	56		 push	 esi
  0000a	8b 70 04	 mov	 esi, DWORD PTR [eax+4]
  0000d	3b f2		 cmp	 esi, edx
  0000f	7e 02		 jle	 SHORT $L184961

; 749  : 		{
; 750  : 			nLength = pOldData->nDataLength;

  00011	8b d6		 mov	 edx, esi
$L184961:

; 751  : 		}
; 752  : 		if( pOldData->IsShared() )

  00013	83 78 0c 01	 cmp	 DWORD PTR [eax+12], 1
  00017	5e		 pop	 esi
  00018	7e 09		 jle	 SHORT $L184962

; 753  : 		{
; 754  : 			Fork( nLength );

  0001a	89 54 24 04	 mov	 DWORD PTR _nLength$[esp-4], edx
  0001e	e9 00 00 00 00	 jmp	 ?Fork@?$CSimpleStringT@D$0A@@ATL@@AAEXH@Z ; ATL::CSimpleStringT<char,0>::Fork
$L184962:

; 755  : 		}
; 756  : 		else if( pOldData->nAllocLength < nLength )

  00023	8b 40 08	 mov	 eax, DWORD PTR [eax+8]
  00026	3b c2		 cmp	 eax, edx
  00028	7d 1f		 jge	 SHORT $L184964

; 757  : 		{
; 758  : 			// Grow exponentially, until we hit 1K.
; 759  : 			int nNewLength = pOldData->nAllocLength;
; 760  : 			if( nNewLength > 1024 )

  0002a	3d 00 04 00 00	 cmp	 eax, 1024		; 00000400H
  0002f	7e 07		 jle	 SHORT $L184966

; 761  : 			{
; 762  : 				nNewLength += 1024;

  00031	05 00 04 00 00	 add	 eax, 1024		; 00000400H

; 763  : 			}
; 764  : 			else

  00036	eb 02		 jmp	 SHORT $L184967
$L184966:

; 765  : 			{
; 766  : 				nNewLength *= 2;

  00038	03 c0		 add	 eax, eax
$L184967:

; 767  : 			}
; 768  : 			if( nNewLength < nLength )

  0003a	3b c2		 cmp	 eax, edx
  0003c	7d 02		 jge	 SHORT $L184968

; 769  : 			{
; 770  : 				nNewLength = nLength;

  0003e	8b c2		 mov	 eax, edx
$L184968:

; 771  : 			}
; 772  : 			Reallocate( nNewLength );

  00040	89 44 24 04	 mov	 DWORD PTR _nLength$[esp-4], eax
  00044	e9 00 00 00 00	 jmp	 ?Reallocate@?$CSimpleStringT@D$0A@@ATL@@AAEXH@Z ; ATL::CSimpleStringT<char,0>::Reallocate
$L184964:

; 773  : 		}
; 774  : 	}

  00049	c2 04 00	 ret	 4
?PrepareWrite2@?$CSimpleStringT@D$0A@@ATL@@AAEXH@Z ENDP	; ATL::CSimpleStringT<char,0>::PrepareWrite2
_TEXT	ENDS
PUBLIC	?CloneData@?$CSimpleStringT@D$0A@@ATL@@CAPAUCStringData@2@PAU32@@Z ; ATL::CSimpleStringT<char,0>::CloneData
; Function compile flags: /Ogty
;	COMDAT ?CloneData@?$CSimpleStringT@D$0A@@ATL@@CAPAUCStringData@2@PAU32@@Z
_TEXT	SEGMENT
_pData$ = 8						; size = 4
?CloneData@?$CSimpleStringT@D$0A@@ATL@@CAPAUCStringData@2@PAU32@@Z PROC NEAR ; ATL::CSimpleStringT<char,0>::CloneData, COMDAT

; 801  : 	{

  00000	56		 push	 esi

; 802  : 		CStringData* pNewData = NULL;
; 803  : 
; 804  : 		IAtlStringMgr* pNewStringMgr = pData->pStringMgr->Clone();

  00001	8b 74 24 08	 mov	 esi, DWORD PTR _pData$[esp]
  00005	8b 0e		 mov	 ecx, DWORD PTR [esi]
  00007	8b 01		 mov	 eax, DWORD PTR [ecx]
  00009	ff 50 10	 call	 DWORD PTR [eax+16]

; 805  : 		if( !pData->IsLocked() && (pNewStringMgr == pData->pStringMgr) )

  0000c	8b 56 0c	 mov	 edx, DWORD PTR [esi+12]
  0000f	85 d2		 test	 edx, edx
  00011	8d 4e 0c	 lea	 ecx, DWORD PTR [esi+12]
  00014	7c 11		 jl	 SHORT $L184972
  00016	3b 06		 cmp	 eax, DWORD PTR [esi]
  00018	75 0d		 jne	 SHORT $L184972

; 806  : 		{
; 807  : 			pNewData = pData;

  0001a	8b c6		 mov	 eax, esi

; 808  : 			pNewData->AddRef();

  0001c	ba 01 00 00 00	 mov	 edx, 1
  00021	f0 0f c1 11	 lock	  xadd	 DWORD PTR [ecx], edx
  00025	5e		 pop	 esi

; 819  : 		}
; 820  : 
; 821  : 		return( pNewData );
; 822  : 	}

  00026	c3		 ret	 0
$L184972:

; 809  : 		}
; 810  : 		else
; 811  : 		{
; 812  : 			pNewData = pNewStringMgr->Allocate( pData->nDataLength, sizeof( XCHAR ) );

  00027	8b 4e 04	 mov	 ecx, DWORD PTR [esi+4]
  0002a	8b 10		 mov	 edx, DWORD PTR [eax]
  0002c	6a 01		 push	 1
  0002e	51		 push	 ecx
  0002f	8b c8		 mov	 ecx, eax
  00031	ff 12		 call	 DWORD PTR [edx]

; 813  : 			if( pNewData == NULL )

  00033	85 c0		 test	 eax, eax
  00035	75 05		 jne	 SHORT $L184975

; 814  : 			{
; 815  : 				ThrowMemoryException();

  00037	e9 00 00 00 00	 jmp	 ?ThrowMemoryException@?$CSimpleStringT@D$0A@@ATL@@KAXXZ ; ATL::CSimpleStringT<char,0>::ThrowMemoryException
$L184975:

; 816  : 			}
; 817  : 			pNewData->nDataLength = pData->nDataLength;

  0003c	8b 56 04	 mov	 edx, DWORD PTR [esi+4]
  0003f	89 50 04	 mov	 DWORD PTR [eax+4], edx

; 818  : 			CopyChars( PXSTR( pNewData->data() ), PCXSTR( pData->data() ), pData->nDataLength+1 );  // Copy '\0'

  00042	8b 4e 04	 mov	 ecx, DWORD PTR [esi+4]
  00045	41		 inc	 ecx
  00046	8b d1		 mov	 edx, ecx
  00048	57		 push	 edi
  00049	c1 e9 02	 shr	 ecx, 2
  0004c	83 c6 10	 add	 esi, 16			; 00000010H
  0004f	8d 78 10	 lea	 edi, DWORD PTR [eax+16]
  00052	f3 a5		 rep movsd
  00054	8b ca		 mov	 ecx, edx
  00056	83 e1 03	 and	 ecx, 3
  00059	f3 a4		 rep movsb
  0005b	5f		 pop	 edi
  0005c	5e		 pop	 esi

; 819  : 		}
; 820  : 
; 821  : 		return( pNewData );
; 822  : 	}

  0005d	c3		 ret	 0
?CloneData@?$CSimpleStringT@D$0A@@ATL@@CAPAUCStringData@2@PAU32@@Z ENDP ; ATL::CSimpleStringT<char,0>::CloneData
_TEXT	ENDS
PUBLIC	?_Eos@?$basic_string@DU?$char_traits@D@std@@V?$allocator@D@2@@std@@IAEXI@Z ; std::basic_string<char,std::char_traits<char>,std::allocator<char> >::_Eos
; Function compile flags: /Ogty
; File c:\program files\microsoft visual studio .net 2003\vc7\include\xstring
;	COMDAT ?_Eos@?$basic_string@DU?$char_traits@D@std@@V?$allocator@D@2@@std@@IAEXI@Z
_TEXT	SEGMENT
__Newsize$ = 8						; size = 4
?_Eos@?$basic_string@DU?$char_traits@D@std@@V?$allocator@D@2@@std@@IAEXI@Z PROC NEAR ; std::basic_string<char,std::char_traits<char>,std::allocator<char> >::_Eos, COMDAT
; _this$ = ecx

; 1475 : 		_Traits::assign(_Myptr()[_Mysize = _Newsize], _Elem());

  00000	83 79 18 10	 cmp	 DWORD PTR [ecx+24], 16	; 00000010H
  00004	8b 44 24 04	 mov	 eax, DWORD PTR __Newsize$[esp-4]
  00008	89 41 14	 mov	 DWORD PTR [ecx+20], eax
  0000b	72 0a		 jb	 SHORT $L206889
  0000d	8b 49 04	 mov	 ecx, DWORD PTR [ecx+4]
  00010	c6 04 01 00	 mov	 BYTE PTR [ecx+eax], 0

; 1476 : 		}

  00014	c2 04 00	 ret	 4

; 1475 : 		_Traits::assign(_Myptr()[_Mysize = _Newsize], _Elem());

$L206889:
  00017	c6 44 01 04 00	 mov	 BYTE PTR [ecx+eax+4], 0

; 1476 : 		}

  0001c	c2 04 00	 ret	 4
?_Eos@?$basic_string@DU?$char_traits@D@std@@V?$allocator@D@2@@std@@IAEXI@Z ENDP ; std::basic_string<char,std::char_traits<char>,std::allocator<char> >::_Eos
_TEXT	ENDS
PUBLIC	?max_size@?$basic_string@DU?$char_traits@D@std@@V?$allocator@D@2@@std@@QBEIXZ ; std::basic_string<char,std::char_traits<char>,std::allocator<char> >::max_size
; Function compile flags: /Ogty
;	COMDAT ?max_size@?$basic_string@DU?$char_traits@D@std@@V?$allocator@D@2@@std@@QBEIXZ
_TEXT	SEGMENT
?max_size@?$basic_string@DU?$char_traits@D@std@@V?$allocator@D@2@@std@@QBEIXZ PROC NEAR ; std::basic_string<char,std::char_traits<char>,std::allocator<char> >::max_size, COMDAT
; _this$ = ecx

; 1114 : 		size_type _Num = _Mybase::_Alval.max_size();
; 1115 : 		return (_Num <= 1 ? 1 : _Num - 1);

  00000	b8 fe ff ff ff	 mov	 eax, -2			; fffffffeH

; 1116 : 		}

  00005	c3		 ret	 0
?max_size@?$basic_string@DU?$char_traits@D@std@@V?$allocator@D@2@@std@@QBEIXZ ENDP ; std::basic_string<char,std::char_traits<char>,std::allocator<char> >::max_size
_TEXT	ENDS
PUBLIC	?allocate@?$allocator@D@std@@QAEPADI@Z		; std::allocator<char>::allocate
; Function compile flags: /Ogty
; File c:\program files\microsoft visual studio .net 2003\vc7\include\xmemory
;	COMDAT ?allocate@?$allocator@D@std@@QAEPADI@Z
_TEXT	SEGMENT
__Count$ = 8						; size = 4
?allocate@?$allocator@D@std@@QAEPADI@Z PROC NEAR	; std::allocator<char>::allocate, COMDAT
; _this$ = ecx

; 137  : 		return (_Allocate(_Count, (pointer)0));

  00000	8b 44 24 04	 mov	 eax, DWORD PTR __Count$[esp-4]
  00004	50		 push	 eax
  00005	e8 00 00 00 00	 call	 ??2@YAPAXI@Z		; operator new
  0000a	83 c4 04	 add	 esp, 4

; 138  : 		}

  0000d	c2 04 00	 ret	 4
?allocate@?$allocator@D@std@@QAEPADI@Z ENDP		; std::allocator<char>::allocate
_TEXT	ENDS
PUBLIC	?PostPrizeItem@CQuizDBCtrl@@AAEXKKH@Z		; CQuizDBCtrl::PostPrizeItem
EXTRN	??0CItemElem@@QAE@XZ:NEAR			; CItemElem::CItemElem
EXTRN	?Post@post@@YAXKPAVCMail@@PAVCQuery@@@Z:NEAR	; post::Post
EXTRN	??0CMail@@QAE@XZ:NEAR				; CMail::CMail
EXTRN	?prj@@3VCProject@@A:BYTE			; prj
;	COMDAT xdata$x
; File c:\documents and settings\test\mes documents\source\virtuos_v17\build\program\databaseserver\dbcontroller.h
xdata$x	SEGMENT
$T206990 DD	0ffffffffH
	DD	FLAT:$L206922
	DD	0ffffffffH
	DD	FLAT:$L206923
$T206986 DD	019930520H
	DD	02H
	DD	FLAT:$T206990
	DD	2 DUP(00H)
	DD	2 DUP(00H)
; Function compile flags: /Ogty
; File c:\documents and settings\test\mes documents\source\virtuos_v17\build\program\databaseserver\quizdbctrl.cpp
xdata$x	ENDS
;	COMDAT ?PostPrizeItem@CQuizDBCtrl@@AAEXKKH@Z
_TEXT	SEGMENT
$T206919 = -16						; size = 4
$T206915 = -16						; size = 4
__$EHRec$ = -12						; size = 12
_idPlayer$ = 8						; size = 4
_dwItemId$ = 12						; size = 4
_nItemNum$ = 16						; size = 4
?PostPrizeItem@CQuizDBCtrl@@AAEXKKH@Z PROC NEAR		; CQuizDBCtrl::PostPrizeItem, COMDAT
; _this$ = ecx

; 318  : {

  00000	6a ff		 push	 -1
  00002	68 00 00 00 00	 push	 __ehhandler$?PostPrizeItem@CQuizDBCtrl@@AAEXKKH@Z
  00007	64 a1 00 00 00
	00		 mov	 eax, DWORD PTR fs:__except_list
  0000d	50		 push	 eax
  0000e	64 89 25 00 00
	00 00		 mov	 DWORD PTR fs:__except_list, esp
  00015	51		 push	 ecx
  00016	55		 push	 ebp
  00017	56		 push	 esi

; 319  : 	CMail* pMail	= new CMail;

  00018	68 40 01 00 00	 push	 320			; 00000140H
  0001d	8b e9		 mov	 ebp, ecx
  0001f	e8 00 00 00 00	 call	 ??2@YAPAXI@Z		; operator new
  00024	83 c4 04	 add	 esp, 4
  00027	89 44 24 08	 mov	 DWORD PTR $T206915[esp+24], eax
  0002b	85 c0		 test	 eax, eax
  0002d	c7 44 24 14 00
	00 00 00	 mov	 DWORD PTR __$EHRec$[esp+32], 0
  00035	74 0b		 je	 SHORT $L206916
  00037	8b c8		 mov	 ecx, eax
  00039	e8 00 00 00 00	 call	 ??0CMail@@QAE@XZ	; CMail::CMail
  0003e	8b f0		 mov	 esi, eax
  00040	eb 02		 jmp	 SHORT $L206917
$L206916:
  00042	33 f6		 xor	 esi, esi
$L206917:

; 320  : 	pMail->m_tmCreate	= ::time_null();

  00044	6a 00		 push	 0
  00046	c7 44 24 18 ff
	ff ff ff	 mov	 DWORD PTR __$EHRec$[esp+36], -1
  0004e	e8 00 00 00 00	 call	 _time
  00053	89 46 14	 mov	 DWORD PTR [esi+20], eax

; 321  : 	pMail->m_idSender	= 0;

  00056	c7 46 08 00 00
	00 00		 mov	 DWORD PTR [esi+8], 0

; 322  : 	sprintf( pMail->m_szTitle, prj.GetText( TID_GAME_QUIZ_PRIZEITEM_TITLE ) );

  0005d	a1 7c 00 00 00	 mov	 eax, DWORD PTR ?prj@@3VCProject@@A+124
  00062	83 c4 04	 add	 esp, 4
  00065	3d 79 10 00 00	 cmp	 eax, 4217		; 00001079H
  0006a	76 10		 jbe	 SHORT $L206987
  0006c	8b 0d 6c 00 00
	00		 mov	 ecx, DWORD PTR ?prj@@3VCProject@@A+108
  00072	8b 91 e4 41 00
	00		 mov	 edx, DWORD PTR [ecx+16868]
  00078	85 d2		 test	 edx, edx
  0007a	75 07		 jne	 SHORT $L206941
$L206987:
  0007c	b8 00 00 00 00	 mov	 eax, OFFSET FLAT:??_C@_00CNPNBAHC@?$AA@
  00081	eb 14		 jmp	 SHORT $L206940
$L206941:
  00083	3d 79 10 00 00	 cmp	 eax, 4217		; 00001079H
  00088	77 04		 ja	 SHORT $L206948
  0008a	33 c0		 xor	 eax, eax
  0008c	eb 06		 jmp	 SHORT $L206947
$L206948:
  0008e	8b 81 e4 41 00
	00		 mov	 eax, DWORD PTR [ecx+16868]
$L206947:
  00094	8b 40 04	 mov	 eax, DWORD PTR [eax+4]
$L206940:
  00097	50		 push	 eax
  00098	8d 46 19	 lea	 eax, DWORD PTR [esi+25]
  0009b	50		 push	 eax
  0009c	e8 00 00 00 00	 call	 _sprintf

; 323  : 	sprintf( pMail->m_szText, prj.GetText( TID_GAME_QUIZ_PRIZEITEM_TEXT ) );

  000a1	a1 7c 00 00 00	 mov	 eax, DWORD PTR ?prj@@3VCProject@@A+124
  000a6	83 c4 08	 add	 esp, 8
  000a9	3d 7a 10 00 00	 cmp	 eax, 4218		; 0000107aH
  000ae	76 10		 jbe	 SHORT $L206988
  000b0	8b 0d 6c 00 00
	00		 mov	 ecx, DWORD PTR ?prj@@3VCProject@@A+108
  000b6	8b 91 e8 41 00
	00		 mov	 edx, DWORD PTR [ecx+16872]
  000bc	85 d2		 test	 edx, edx
  000be	75 07		 jne	 SHORT $L206964
$L206988:
  000c0	b8 00 00 00 00	 mov	 eax, OFFSET FLAT:??_C@_00CNPNBAHC@?$AA@
  000c5	eb 14		 jmp	 SHORT $L206963
$L206964:
  000c7	3d 7a 10 00 00	 cmp	 eax, 4218		; 0000107aH
  000cc	77 04		 ja	 SHORT $L206971
  000ce	33 c0		 xor	 eax, eax
  000d0	eb 06		 jmp	 SHORT $L206970
$L206971:
  000d2	8b 81 e8 41 00
	00		 mov	 eax, DWORD PTR [ecx+16872]
$L206970:
  000d8	8b 40 04	 mov	 eax, DWORD PTR [eax+4]
$L206963:
  000db	50		 push	 eax
  000dc	8d 4e 39	 lea	 ecx, DWORD PTR [esi+57]
  000df	51		 push	 ecx
  000e0	e8 00 00 00 00	 call	 _sprintf

; 324  : 	pMail->m_pItemElem	= new CItemElem;

  000e5	68 a0 00 00 00	 push	 160			; 000000a0H
  000ea	e8 00 00 00 00	 call	 ??2@YAPAXI@Z		; operator new
  000ef	83 c4 0c	 add	 esp, 12			; 0000000cH
  000f2	89 44 24 08	 mov	 DWORD PTR $T206919[esp+24], eax
  000f6	85 c0		 test	 eax, eax
  000f8	c7 44 24 14 01
	00 00 00	 mov	 DWORD PTR __$EHRec$[esp+32], 1
  00100	74 09		 je	 SHORT $L206920
  00102	8b c8		 mov	 ecx, eax
  00104	e8 00 00 00 00	 call	 ??0CItemElem@@QAE@XZ	; CItemElem::CItemElem
  00109	eb 02		 jmp	 SHORT $L206921
$L206920:
  0010b	33 c0		 xor	 eax, eax
$L206921:

; 325  : 	pMail->m_pItemElem->m_dwItemId	= dwItemId;

  0010d	8b 54 24 20	 mov	 edx, DWORD PTR _dwItemId$[esp+20]

; 326  : 	pMail->m_pItemElem->m_nItemNum	= nItemNum;

  00111	66 8b 4c 24 24	 mov	 cx, WORD PTR _nItemNum$[esp+20]
  00116	89 46 0c	 mov	 DWORD PTR [esi+12], eax
  00119	89 50 08	 mov	 DWORD PTR [eax+8], edx
  0011c	8b 46 0c	 mov	 eax, DWORD PTR [esi+12]
  0011f	66 89 48 72	 mov	 WORD PTR [eax+114], cx

; 327  : 	pMail->m_pItemElem->m_dwKeepTime	=	0;

  00123	8b 56 0c	 mov	 edx, DWORD PTR [esi+12]
  00126	c7 82 8c 00 00
	00 00 00 00 00	 mov	 DWORD PTR [edx+140], 0

; 328  : 	pMail->m_pItemElem->SetSerialNumber( xRand() );

  00130	a1 00 00 00 00	 mov	 eax, DWORD PTR ?g_next@@3KA ; g_next
  00135	69 c0 6d 4e c6
	41		 imul	 eax, 1103515245		; 41c64e6dH
  0013b	05 39 30 00 00	 add	 eax, 12345		; 00003039H
  00140	a3 00 00 00 00	 mov	 DWORD PTR ?g_next@@3KA, eax ; g_next
  00145	8b 4e 0c	 mov	 ecx, DWORD PTR [esi+12]
  00148	89 41 30	 mov	 DWORD PTR [ecx+48], eax

; 329  : 	post::Post( idPlayer, pMail, GetQueryObject() );

  0014b	8b 55 0c	 mov	 edx, DWORD PTR [ebp+12]
  0014e	8b 44 24 1c	 mov	 eax, DWORD PTR _idPlayer$[esp+20]
  00152	52		 push	 edx
  00153	56		 push	 esi
  00154	50		 push	 eax
  00155	c7 44 24 20 ff
	ff ff ff	 mov	 DWORD PTR __$EHRec$[esp+44], -1
  0015d	e8 00 00 00 00	 call	 ?Post@post@@YAXKPAVCMail@@PAVCQuery@@@Z ; post::Post

; 330  : }

  00162	8b 4c 24 18	 mov	 ecx, DWORD PTR __$EHRec$[esp+36]
  00166	83 c4 0c	 add	 esp, 12			; 0000000cH
  00169	5e		 pop	 esi
  0016a	5d		 pop	 ebp
  0016b	64 89 0d 00 00
	00 00		 mov	 DWORD PTR fs:__except_list, ecx
  00172	83 c4 10	 add	 esp, 16			; 00000010H
  00175	c2 0c 00	 ret	 12			; 0000000cH
_TEXT	ENDS
;	COMDAT text$x
text$x	SEGMENT
$L206922:
  00000	8b 45 f0	 mov	 eax, DWORD PTR $T206915[ebp]
  00003	50		 push	 eax
  00004	e8 00 00 00 00	 call	 ??3@YAXPAX@Z		; operator delete
  00009	59		 pop	 ecx
  0000a	c3		 ret	 0
$L206923:
  0000b	8b 45 f0	 mov	 eax, DWORD PTR $T206919[ebp]
  0000e	50		 push	 eax
  0000f	e8 00 00 00 00	 call	 ??3@YAXPAX@Z		; operator delete
  00014	59		 pop	 ecx
  00015	c3		 ret	 0
__ehhandler$?PostPrizeItem@CQuizDBCtrl@@AAEXKKH@Z:
  00016	b8 00 00 00 00	 mov	 eax, OFFSET FLAT:$T206986
  0001b	e9 00 00 00 00	 jmp	 ___CxxFrameHandler
text$x	ENDS
?PostPrizeItem@CQuizDBCtrl@@AAEXKKH@Z ENDP		; CQuizDBCtrl::PostPrizeItem
PUBLIC	?begin@?$_Tree@V?$_Tmap_traits@KU_WORLDDATA@CQuizDBCtrl@@U?$less@K@std@@V?$allocator@U?$pair@$$CBKU_WORLDDATA@CQuizDBCtrl@@@std@@@4@$0A@@std@@@std@@QAE?AViterator@12@XZ ; std::_Tree<std::_Tmap_traits<unsigned long,CQuizDBCtrl::_WORLDDATA,std::less<unsigned long>,std::allocator<std::pair<unsigned long const ,CQuizDBCtrl::_WORLDDATA> >,0> >::begin
; Function compile flags: /Ogty
; File c:\program files\microsoft visual studio .net 2003\vc7\include\xtree
;	COMDAT ?begin@?$_Tree@V?$_Tmap_traits@KU_WORLDDATA@CQuizDBCtrl@@U?$less@K@std@@V?$allocator@U?$pair@$$CBKU_WORLDDATA@CQuizDBCtrl@@@std@@@4@$0A@@std@@@std@@QAE?AViterator@12@XZ
_TEXT	SEGMENT
___$ReturnUdt$ = 8					; size = 4
?begin@?$_Tree@V?$_Tmap_traits@KU_WORLDDATA@CQuizDBCtrl@@U?$less@K@std@@V?$allocator@U?$pair@$$CBKU_WORLDDATA@CQuizDBCtrl@@@std@@@4@$0A@@std@@@std@@QAE?AViterator@12@XZ PROC NEAR ; std::_Tree<std::_Tmap_traits<unsigned long,CQuizDBCtrl::_WORLDDATA,std::less<unsigned long>,std::allocator<std::pair<unsigned long const ,CQuizDBCtrl::_WORLDDATA> >,0> >::begin, COMDAT
; _this$ = ecx

; 408  : 		return (_TREE_ITERATOR(_Lmost()));

  00000	8b 41 04	 mov	 eax, DWORD PTR [ecx+4]
  00003	8b 08		 mov	 ecx, DWORD PTR [eax]
  00005	8b 44 24 04	 mov	 eax, DWORD PTR ___$ReturnUdt$[esp-4]
  00009	89 08		 mov	 DWORD PTR [eax], ecx

; 409  : 		}

  0000b	c2 04 00	 ret	 4
?begin@?$_Tree@V?$_Tmap_traits@KU_WORLDDATA@CQuizDBCtrl@@U?$less@K@std@@V?$allocator@U?$pair@$$CBKU_WORLDDATA@CQuizDBCtrl@@@std@@@4@$0A@@std@@@std@@QAE?AViterator@12@XZ ENDP ; std::_Tree<std::_Tmap_traits<unsigned long,CQuizDBCtrl::_WORLDDATA,std::less<unsigned long>,std::allocator<std::pair<unsigned long const ,CQuizDBCtrl::_WORLDDATA> >,0> >::begin
_TEXT	ENDS
PUBLIC	?end@?$_Tree@V?$_Tmap_traits@KU_WORLDDATA@CQuizDBCtrl@@U?$less@K@std@@V?$allocator@U?$pair@$$CBKU_WORLDDATA@CQuizDBCtrl@@@std@@@4@$0A@@std@@@std@@QAE?AViterator@12@XZ ; std::_Tree<std::_Tmap_traits<unsigned long,CQuizDBCtrl::_WORLDDATA,std::less<unsigned long>,std::allocator<std::pair<unsigned long const ,CQuizDBCtrl::_WORLDDATA> >,0> >::end
; Function compile flags: /Ogty
;	COMDAT ?end@?$_Tree@V?$_Tmap_traits@KU_WORLDDATA@CQuizDBCtrl@@U?$less@K@std@@V?$allocator@U?$pair@$$CBKU_WORLDDATA@CQuizDBCtrl@@@std@@@4@$0A@@std@@@std@@QAE?AViterator@12@XZ
_TEXT	SEGMENT
___$ReturnUdt$ = 8					; size = 4
?end@?$_Tree@V?$_Tmap_traits@KU_WORLDDATA@CQuizDBCtrl@@U?$less@K@std@@V?$allocator@U?$pair@$$CBKU_WORLDDATA@CQuizDBCtrl@@@std@@@4@$0A@@std@@@std@@QAE?AViterator@12@XZ PROC NEAR ; std::_Tree<std::_Tmap_traits<unsigned long,CQuizDBCtrl::_WORLDDATA,std::less<unsigned long>,std::allocator<std::pair<unsigned long const ,CQuizDBCtrl::_WORLDDATA> >,0> >::end, COMDAT
; _this$ = ecx

; 418  : 		return (_TREE_ITERATOR(_Myhead));

  00000	8b 49 04	 mov	 ecx, DWORD PTR [ecx+4]
  00003	8b 44 24 04	 mov	 eax, DWORD PTR ___$ReturnUdt$[esp-4]
  00007	89 08		 mov	 DWORD PTR [eax], ecx

; 419  : 		}

  00009	c2 04 00	 ret	 4
?end@?$_Tree@V?$_Tmap_traits@KU_WORLDDATA@CQuizDBCtrl@@U?$less@K@std@@V?$allocator@U?$pair@$$CBKU_WORLDDATA@CQuizDBCtrl@@@std@@@4@$0A@@std@@@std@@QAE?AViterator@12@XZ ENDP ; std::_Tree<std::_Tmap_traits<unsigned long,CQuizDBCtrl::_WORLDDATA,std::less<unsigned long>,std::allocator<std::pair<unsigned long const ,CQuizDBCtrl::_WORLDDATA> >,0> >::end
_TEXT	ENDS
PUBLIC	??Citerator@?$_Tree@V?$_Tmap_traits@KU_WORLDDATA@CQuizDBCtrl@@U?$less@K@std@@V?$allocator@U?$pair@$$CBKU_WORLDDATA@CQuizDBCtrl@@@std@@@4@$0A@@std@@@std@@QBEPAU?$pair@$$CBKU_WORLDDATA@CQuizDBCtrl@@@2@XZ ; std::_Tree<std::_Tmap_traits<unsigned long,CQuizDBCtrl::_WORLDDATA,std::less<unsigned long>,std::allocator<std::pair<unsigned long const ,CQuizDBCtrl::_WORLDDATA> >,0> >::iterator::operator->
; Function compile flags: /Ogty
;	COMDAT ??Citerator@?$_Tree@V?$_Tmap_traits@KU_WORLDDATA@CQuizDBCtrl@@U?$less@K@std@@V?$allocator@U?$pair@$$CBKU_WORLDDATA@CQuizDBCtrl@@@std@@@4@$0A@@std@@@std@@QBEPAU?$pair@$$CBKU_WORLDDATA@CQuizDBCtrl@@@2@XZ
_TEXT	SEGMENT
??Citerator@?$_Tree@V?$_Tmap_traits@KU_WORLDDATA@CQuizDBCtrl@@U?$less@K@std@@V?$allocator@U?$pair@$$CBKU_WORLDDATA@CQuizDBCtrl@@@std@@@4@$0A@@std@@@std@@QBEPAU?$pair@$$CBKU_WORLDDATA@CQuizDBCtrl@@@2@XZ PROC NEAR ; std::_Tree<std::_Tmap_traits<unsigned long,CQuizDBCtrl::_WORLDDATA,std::less<unsigned long>,std::allocator<std::pair<unsigned long const ,CQuizDBCtrl::_WORLDDATA> >,0> >::iterator::operator->, COMDAT
; _this$ = ecx

; 322  : 			return (&**this);

  00000	8b 01		 mov	 eax, DWORD PTR [ecx]
  00002	83 c0 0c	 add	 eax, 12			; 0000000cH

; 323  : 			}

  00005	c3		 ret	 0
??Citerator@?$_Tree@V?$_Tmap_traits@KU_WORLDDATA@CQuizDBCtrl@@U?$less@K@std@@V?$allocator@U?$pair@$$CBKU_WORLDDATA@CQuizDBCtrl@@@std@@@4@$0A@@std@@@std@@QBEPAU?$pair@$$CBKU_WORLDDATA@CQuizDBCtrl@@@2@XZ ENDP ; std::_Tree<std::_Tmap_traits<unsigned long,CQuizDBCtrl::_WORLDDATA,std::less<unsigned long>,std::allocator<std::pair<unsigned long const ,CQuizDBCtrl::_WORLDDATA> >,0> >::iterator::operator->
_TEXT	ENDS
PUBLIC	??Eiterator@?$_Tree@V?$_Tmap_traits@KU_WORLDDATA@CQuizDBCtrl@@U?$less@K@std@@V?$allocator@U?$pair@$$CBKU_WORLDDATA@CQuizDBCtrl@@@std@@@4@$0A@@std@@@std@@QAEAAV012@XZ ; std::_Tree<std::_Tmap_traits<unsigned long,CQuizDBCtrl::_WORLDDATA,std::less<unsigned long>,std::allocator<std::pair<unsigned long const ,CQuizDBCtrl::_WORLDDATA> >,0> >::iterator::operator++
; Function compile flags: /Ogty
;	COMDAT ??Eiterator@?$_Tree@V?$_Tmap_traits@KU_WORLDDATA@CQuizDBCtrl@@U?$less@K@std@@V?$allocator@U?$pair@$$CBKU_WORLDDATA@CQuizDBCtrl@@@std@@@4@$0A@@std@@@std@@QAEAAV012@XZ
_TEXT	SEGMENT
??Eiterator@?$_Tree@V?$_Tmap_traits@KU_WORLDDATA@CQuizDBCtrl@@U?$less@K@std@@V?$allocator@U?$pair@$$CBKU_WORLDDATA@CQuizDBCtrl@@@std@@@4@$0A@@std@@@std@@QAEAAV012@XZ PROC NEAR ; std::_Tree<std::_Tmap_traits<unsigned long,CQuizDBCtrl::_WORLDDATA,std::less<unsigned long>,std::allocator<std::pair<unsigned long const ,CQuizDBCtrl::_WORLDDATA> >,0> >::iterator::operator++, COMDAT
; _this$ = ecx

; 326  : 			{	// preincrement

  00000	56		 push	 esi
  00001	8b f1		 mov	 esi, ecx

; 327  : 			++(*(const_iterator *)this);

  00003	e8 00 00 00 00	 call	 ?_Inc@const_iterator@?$_Tree@V?$_Tmap_traits@KU_WORLDDATA@CQuizDBCtrl@@U?$less@K@std@@V?$allocator@U?$pair@$$CBKU_WORLDDATA@CQuizDBCtrl@@@std@@@4@$0A@@std@@@std@@QAEXXZ ; std::_Tree<std::_Tmap_traits<unsigned long,CQuizDBCtrl::_WORLDDATA,std::less<unsigned long>,std::allocator<std::pair<unsigned long const ,CQuizDBCtrl::_WORLDDATA> >,0> >::const_iterator::_Inc

; 328  : 			return (*this);

  00008	8b c6		 mov	 eax, esi
  0000a	5e		 pop	 esi

; 329  : 			}

  0000b	c3		 ret	 0
??Eiterator@?$_Tree@V?$_Tmap_traits@KU_WORLDDATA@CQuizDBCtrl@@U?$less@K@std@@V?$allocator@U?$pair@$$CBKU_WORLDDATA@CQuizDBCtrl@@@std@@@4@$0A@@std@@@std@@QAEAAV012@XZ ENDP ; std::_Tree<std::_Tmap_traits<unsigned long,CQuizDBCtrl::_WORLDDATA,std::less<unsigned long>,std::allocator<std::pair<unsigned long const ,CQuizDBCtrl::_WORLDDATA> >,0> >::iterator::operator++
_TEXT	ENDS
PUBLIC	?lower_bound@?$_Tree@V?$_Tmap_traits@KU_WORLDDATA@CQuizDBCtrl@@U?$less@K@std@@V?$allocator@U?$pair@$$CBKU_WORLDDATA@CQuizDBCtrl@@@std@@@4@$0A@@std@@@std@@QAE?AViterator@12@ABK@Z ; std::_Tree<std::_Tmap_traits<unsigned long,CQuizDBCtrl::_WORLDDATA,std::less<unsigned long>,std::allocator<std::pair<unsigned long const ,CQuizDBCtrl::_WORLDDATA> >,0> >::lower_bound
; Function compile flags: /Ogty
;	COMDAT ?lower_bound@?$_Tree@V?$_Tmap_traits@KU_WORLDDATA@CQuizDBCtrl@@U?$less@K@std@@V?$allocator@U?$pair@$$CBKU_WORLDDATA@CQuizDBCtrl@@@std@@@4@$0A@@std@@@std@@QAE?AViterator@12@ABK@Z
_TEXT	SEGMENT
___$ReturnUdt$ = 8					; size = 4
__Keyval$ = 12						; size = 4
?lower_bound@?$_Tree@V?$_Tmap_traits@KU_WORLDDATA@CQuizDBCtrl@@U?$less@K@std@@V?$allocator@U?$pair@$$CBKU_WORLDDATA@CQuizDBCtrl@@@std@@@4@$0A@@std@@@std@@QAE?AViterator@12@ABK@Z PROC NEAR ; std::_Tree<std::_Tmap_traits<unsigned long,CQuizDBCtrl::_WORLDDATA,std::less<unsigned long>,std::allocator<std::pair<unsigned long const ,CQuizDBCtrl::_WORLDDATA> >,0> >::lower_bound, COMDAT
; _this$ = ecx

; 810  : 		return (_TREE_ITERATOR(_Lbound(_Keyval)));

  00000	8b 49 04	 mov	 ecx, DWORD PTR [ecx+4]
  00003	8b 41 04	 mov	 eax, DWORD PTR [ecx+4]
  00006	8a 50 2d	 mov	 dl, BYTE PTR [eax+45]
  00009	84 d2		 test	 dl, dl
  0000b	75 1d		 jne	 SHORT $L207117
  0000d	8b 54 24 08	 mov	 edx, DWORD PTR __Keyval$[esp-4]
  00011	8b 12		 mov	 edx, DWORD PTR [edx]
  00013	53		 push	 ebx
$L207085:
  00014	39 50 0c	 cmp	 DWORD PTR [eax+12], edx
  00017	73 05		 jae	 SHORT $L207087
  00019	8b 40 08	 mov	 eax, DWORD PTR [eax+8]
  0001c	eb 04		 jmp	 SHORT $L207088
$L207087:
  0001e	8b c8		 mov	 ecx, eax
  00020	8b 00		 mov	 eax, DWORD PTR [eax]
$L207088:
  00022	8a 58 2d	 mov	 bl, BYTE PTR [eax+45]
  00025	84 db		 test	 bl, bl
  00027	74 eb		 je	 SHORT $L207085
  00029	5b		 pop	 ebx
$L207117:
  0002a	8b 44 24 04	 mov	 eax, DWORD PTR ___$ReturnUdt$[esp-4]
  0002e	89 08		 mov	 DWORD PTR [eax], ecx

; 811  : 		}

  00030	c2 08 00	 ret	 8
?lower_bound@?$_Tree@V?$_Tmap_traits@KU_WORLDDATA@CQuizDBCtrl@@U?$less@K@std@@V?$allocator@U?$pair@$$CBKU_WORLDDATA@CQuizDBCtrl@@@std@@@4@$0A@@std@@@std@@QAE?AViterator@12@ABK@Z ENDP ; std::_Tree<std::_Tmap_traits<unsigned long,CQuizDBCtrl::_WORLDDATA,std::less<unsigned long>,std::allocator<std::pair<unsigned long const ,CQuizDBCtrl::_WORLDDATA> >,0> >::lower_bound
_TEXT	ENDS
PUBLIC	?_Erase@?$_Tree@V?$_Tmap_traits@KU_WORLDDATA@CQuizDBCtrl@@U?$less@K@std@@V?$allocator@U?$pair@$$CBKU_WORLDDATA@CQuizDBCtrl@@@std@@@4@$0A@@std@@@std@@IAEXPAU_Node@?$_Tree_nod@V?$_Tmap_traits@KU_WORLDDATA@CQuizDBCtrl@@U?$less@K@std@@V?$allocator@U?$pair@$$CBKU_WORLDDATA@CQuizDBCtrl@@@std@@@4@$0A@@std@@@2@@Z ; std::_Tree<std::_Tmap_traits<unsigned long,CQuizDBCtrl::_WORLDDATA,std::less<unsigned long>,std::allocator<std::pair<unsigned long const ,CQuizDBCtrl::_WORLDDATA> >,0> >::_Erase
; Function compile flags: /Ogty
;	COMDAT ?_Erase@?$_Tree@V?$_Tmap_traits@KU_WORLDDATA@CQuizDBCtrl@@U?$less@K@std@@V?$allocator@U?$pair@$$CBKU_WORLDDATA@CQuizDBCtrl@@@std@@@4@$0A@@std@@@std@@IAEXPAU_Node@?$_Tree_nod@V?$_Tmap_traits@KU_WORLDDATA@CQuizDBCtrl@@U?$less@K@std@@V?$allocator@U?$pair@$$CBKU_WORLDDATA@CQuizDBCtrl@@@std@@@4@$0A@@std@@@2@@Z
_TEXT	SEGMENT
__Rootnode$ = 8						; size = 4
?_Erase@?$_Tree@V?$_Tmap_traits@KU_WORLDDATA@CQuizDBCtrl@@U?$less@K@std@@V?$allocator@U?$pair@$$CBKU_WORLDDATA@CQuizDBCtrl@@@std@@@4@$0A@@std@@@std@@IAEXPAU_Node@?$_Tree_nod@V?$_Tmap_traits@KU_WORLDDATA@CQuizDBCtrl@@U?$less@K@std@@V?$allocator@U?$pair@$$CBKU_WORLDDATA@CQuizDBCtrl@@@std@@@4@$0A@@std@@@2@@Z PROC NEAR ; std::_Tree<std::_Tmap_traits<unsigned long,CQuizDBCtrl::_WORLDDATA,std::less<unsigned long>,std::allocator<std::pair<unsigned long const ,CQuizDBCtrl::_WORLDDATA> >,0> >::_Erase, COMDAT
; _this$ = ecx

; 890  : 		{	// free entire subtree, recursively

  00000	53		 push	 ebx
  00001	56		 push	 esi
  00002	57		 push	 edi

; 891  : 		for (_Nodeptr _Pnode = _Rootnode; !_Isnil(_Pnode); _Rootnode = _Pnode)

  00003	8b 7c 24 10	 mov	 edi, DWORD PTR __Rootnode$[esp+8]
  00007	8a 47 2d	 mov	 al, BYTE PTR [edi+45]
  0000a	84 c0		 test	 al, al
  0000c	8b d9		 mov	 ebx, ecx
  0000e	8b f7		 mov	 esi, edi
  00010	75 1f		 jne	 SHORT $L204637
$L204635:

; 892  : 			{	// free subtrees, then node
; 893  : 			_Erase(_Right(_Pnode));

  00012	8b 46 08	 mov	 eax, DWORD PTR [esi+8]
  00015	50		 push	 eax
  00016	8b cb		 mov	 ecx, ebx
  00018	e8 00 00 00 00	 call	 ?_Erase@?$_Tree@V?$_Tmap_traits@KU_WORLDDATA@CQuizDBCtrl@@U?$less@K@std@@V?$allocator@U?$pair@$$CBKU_WORLDDATA@CQuizDBCtrl@@@std@@@4@$0A@@std@@@std@@IAEXPAU_Node@?$_Tree_nod@V?$_Tmap_traits@KU_WORLDDATA@CQuizDBCtrl@@U?$less@K@std@@V?$allocator@U?$pair@$$CBKU_WORLDDATA@CQuizDBCtrl@@@std@@@4@$0A@@std@@@2@@Z ; std::_Tree<std::_Tmap_traits<unsigned long,CQuizDBCtrl::_WORLDDATA,std::less<unsigned long>,std::allocator<std::pair<unsigned long const ,CQuizDBCtrl::_WORLDDATA> >,0> >::_Erase

; 894  : 			_Pnode = _Left(_Pnode);

  0001d	8b 36		 mov	 esi, DWORD PTR [esi]

; 895  : 			this->_Alnod.destroy(_Rootnode);	// destroy, free erased node
; 896  : 			this->_Alnod.deallocate(_Rootnode, 1);

  0001f	57		 push	 edi
  00020	e8 00 00 00 00	 call	 ??3@YAXPAX@Z		; operator delete
  00025	8a 46 2d	 mov	 al, BYTE PTR [esi+45]
  00028	83 c4 04	 add	 esp, 4
  0002b	84 c0		 test	 al, al
  0002d	8b fe		 mov	 edi, esi
  0002f	74 e1		 je	 SHORT $L204635
$L204637:
  00031	5f		 pop	 edi
  00032	5e		 pop	 esi
  00033	5b		 pop	 ebx

; 897  : 			}
; 898  : 		}

  00034	c2 04 00	 ret	 4
?_Erase@?$_Tree@V?$_Tmap_traits@KU_WORLDDATA@CQuizDBCtrl@@U?$less@K@std@@V?$allocator@U?$pair@$$CBKU_WORLDDATA@CQuizDBCtrl@@@std@@@4@$0A@@std@@@std@@IAEXPAU_Node@?$_Tree_nod@V?$_Tmap_traits@KU_WORLDDATA@CQuizDBCtrl@@U?$less@K@std@@V?$allocator@U?$pair@$$CBKU_WORLDDATA@CQuizDBCtrl@@@std@@@4@$0A@@std@@@2@@Z ENDP ; std::_Tree<std::_Tmap_traits<unsigned long,CQuizDBCtrl::_WORLDDATA,std::less<unsigned long>,std::allocator<std::pair<unsigned long const ,CQuizDBCtrl::_WORLDDATA> >,0> >::_Erase
_TEXT	ENDS
PUBLIC	?begin@?$vector@U_QUIZLIST@CQuiz@@V?$allocator@U_QUIZLIST@CQuiz@@@std@@@std@@QAE?AViterator@12@XZ ; std::vector<CQuiz::_QUIZLIST,std::allocator<CQuiz::_QUIZLIST> >::begin
; Function compile flags: /Ogty
; File c:\program files\microsoft visual studio .net 2003\vc7\include\vector
;	COMDAT ?begin@?$vector@U_QUIZLIST@CQuiz@@V?$allocator@U_QUIZLIST@CQuiz@@@std@@@std@@QAE?AViterator@12@XZ
_TEXT	SEGMENT
___$ReturnUdt$ = 8					; size = 4
?begin@?$vector@U_QUIZLIST@CQuiz@@V?$allocator@U_QUIZLIST@CQuiz@@@std@@@std@@QAE?AViterator@12@XZ PROC NEAR ; std::vector<CQuiz::_QUIZLIST,std::allocator<CQuiz::_QUIZLIST> >::begin, COMDAT
; _this$ = ecx

; 463  : 		return (iterator(_Myfirst));

  00000	8b 49 04	 mov	 ecx, DWORD PTR [ecx+4]
  00003	8b 44 24 04	 mov	 eax, DWORD PTR ___$ReturnUdt$[esp-4]
  00007	89 08		 mov	 DWORD PTR [eax], ecx

; 464  : 		}

  00009	c2 04 00	 ret	 4
?begin@?$vector@U_QUIZLIST@CQuiz@@V?$allocator@U_QUIZLIST@CQuiz@@@std@@@std@@QAE?AViterator@12@XZ ENDP ; std::vector<CQuiz::_QUIZLIST,std::allocator<CQuiz::_QUIZLIST> >::begin
_TEXT	ENDS
PUBLIC	?end@?$vector@U_QUIZLIST@CQuiz@@V?$allocator@U_QUIZLIST@CQuiz@@@std@@@std@@QAE?AViterator@12@XZ ; std::vector<CQuiz::_QUIZLIST,std::allocator<CQuiz::_QUIZLIST> >::end
; Function compile flags: /Ogty
;	COMDAT ?end@?$vector@U_QUIZLIST@CQuiz@@V?$allocator@U_QUIZLIST@CQuiz@@@std@@@std@@QAE?AViterator@12@XZ
_TEXT	SEGMENT
___$ReturnUdt$ = 8					; size = 4
?end@?$vector@U_QUIZLIST@CQuiz@@V?$allocator@U_QUIZLIST@CQuiz@@@std@@@std@@QAE?AViterator@12@XZ PROC NEAR ; std::vector<CQuiz::_QUIZLIST,std::allocator<CQuiz::_QUIZLIST> >::end, COMDAT
; _this$ = ecx

; 473  : 		return (iterator(_Mylast));

  00000	8b 49 08	 mov	 ecx, DWORD PTR [ecx+8]
  00003	8b 44 24 04	 mov	 eax, DWORD PTR ___$ReturnUdt$[esp-4]
  00007	89 08		 mov	 DWORD PTR [eax], ecx

; 474  : 		}

  00009	c2 04 00	 ret	 4
?end@?$vector@U_QUIZLIST@CQuiz@@V?$allocator@U_QUIZLIST@CQuiz@@@std@@@std@@QAE?AViterator@12@XZ ENDP ; std::vector<CQuiz::_QUIZLIST,std::allocator<CQuiz::_QUIZLIST> >::end
_TEXT	ENDS
PUBLIC	??Fiterator@?$_Tree@V?$_Tmap_traits@KU_WORLDDATA@CQuizDBCtrl@@U?$less@K@std@@V?$allocator@U?$pair@$$CBKU_WORLDDATA@CQuizDBCtrl@@@std@@@4@$0A@@std@@@std@@QAEAAV012@XZ ; std::_Tree<std::_Tmap_traits<unsigned long,CQuizDBCtrl::_WORLDDATA,std::less<unsigned long>,std::allocator<std::pair<unsigned long const ,CQuizDBCtrl::_WORLDDATA> >,0> >::iterator::operator--
; Function compile flags: /Ogty
; File c:\program files\microsoft visual studio .net 2003\vc7\include\xtree
;	COMDAT ??Fiterator@?$_Tree@V?$_Tmap_traits@KU_WORLDDATA@CQuizDBCtrl@@U?$less@K@std@@V?$allocator@U?$pair@$$CBKU_WORLDDATA@CQuizDBCtrl@@@std@@@4@$0A@@std@@@std@@QAEAAV012@XZ
_TEXT	SEGMENT
??Fiterator@?$_Tree@V?$_Tmap_traits@KU_WORLDDATA@CQuizDBCtrl@@U?$less@K@std@@V?$allocator@U?$pair@$$CBKU_WORLDDATA@CQuizDBCtrl@@@std@@@4@$0A@@std@@@std@@QAEAAV012@XZ PROC NEAR ; std::_Tree<std::_Tmap_traits<unsigned long,CQuizDBCtrl::_WORLDDATA,std::less<unsigned long>,std::allocator<std::pair<unsigned long const ,CQuizDBCtrl::_WORLDDATA> >,0> >::iterator::operator--, COMDAT
; _this$ = ecx

; 339  : 			{	// predecrement

  00000	56		 push	 esi
  00001	8b f1		 mov	 esi, ecx

; 340  : 			--(*(const_iterator *)this);

  00003	e8 00 00 00 00	 call	 ?_Dec@const_iterator@?$_Tree@V?$_Tmap_traits@KU_WORLDDATA@CQuizDBCtrl@@U?$less@K@std@@V?$allocator@U?$pair@$$CBKU_WORLDDATA@CQuizDBCtrl@@@std@@@4@$0A@@std@@@std@@QAEXXZ ; std::_Tree<std::_Tmap_traits<unsigned long,CQuizDBCtrl::_WORLDDATA,std::less<unsigned long>,std::allocator<std::pair<unsigned long const ,CQuizDBCtrl::_WORLDDATA> >,0> >::const_iterator::_Dec

; 341  : 			return (*this);

  00008	8b c6		 mov	 eax, esi
  0000a	5e		 pop	 esi

; 342  : 			}

  0000b	c3		 ret	 0
??Fiterator@?$_Tree@V?$_Tmap_traits@KU_WORLDDATA@CQuizDBCtrl@@U?$less@K@std@@V?$allocator@U?$pair@$$CBKU_WORLDDATA@CQuizDBCtrl@@@std@@@4@$0A@@std@@@std@@QAEAAV012@XZ ENDP ; std::_Tree<std::_Tmap_traits<unsigned long,CQuizDBCtrl::_WORLDDATA,std::less<unsigned long>,std::allocator<std::pair<unsigned long const ,CQuizDBCtrl::_WORLDDATA> >,0> >::iterator::operator--
_TEXT	ENDS
PUBLIC	?_Buynode@?$_Tree@V?$_Tmap_traits@KU_WORLDDATA@CQuizDBCtrl@@U?$less@K@std@@V?$allocator@U?$pair@$$CBKU_WORLDDATA@CQuizDBCtrl@@@std@@@4@$0A@@std@@@std@@IAEPAU_Node@?$_Tree_nod@V?$_Tmap_traits@KU_WORLDDATA@CQuizDBCtrl@@U?$less@K@std@@V?$allocator@U?$pair@$$CBKU_WORLDDATA@CQuizDBCtrl@@@std@@@4@$0A@@std@@@2@PAU342@00ABU?$pair@$$CBKU_WORLDDATA@CQuizDBCtrl@@@2@D@Z ; std::_Tree<std::_Tmap_traits<unsigned long,CQuizDBCtrl::_WORLDDATA,std::less<unsigned long>,std::allocator<std::pair<unsigned long const ,CQuizDBCtrl::_WORLDDATA> >,0> >::_Buynode
EXTRN	__CxxThrowException@8:NEAR
; Function compile flags: /Ogty
;	COMDAT ?_Buynode@?$_Tree@V?$_Tmap_traits@KU_WORLDDATA@CQuizDBCtrl@@U?$less@K@std@@V?$allocator@U?$pair@$$CBKU_WORLDDATA@CQuizDBCtrl@@@std@@@4@$0A@@std@@@std@@IAEPAU_Node@?$_Tree_nod@V?$_Tmap_traits@KU_WORLDDATA@CQuizDBCtrl@@U?$less@K@std@@V?$allocator@U?$pair@$$CBKU_WORLDDATA@CQuizDBCtrl@@@std@@@4@$0A@@std@@@2@PAU342@00ABU?$pair@$$CBKU_WORLDDATA@CQuizDBCtrl@@@2@D@Z
_TEXT	SEGMENT
__Larg$ = 8						; size = 4
__Parg$ = 12						; size = 4
__Rarg$ = 16						; size = 4
__Val$ = 20						; size = 4
__Carg$ = 24						; size = 1
?_Buynode@?$_Tree@V?$_Tmap_traits@KU_WORLDDATA@CQuizDBCtrl@@U?$less@K@std@@V?$allocator@U?$pair@$$CBKU_WORLDDATA@CQuizDBCtrl@@@std@@@4@$0A@@std@@@std@@IAEPAU_Node@?$_Tree_nod@V?$_Tmap_traits@KU_WORLDDATA@CQuizDBCtrl@@U?$less@K@std@@V?$allocator@U?$pair@$$CBKU_WORLDDATA@CQuizDBCtrl@@@std@@@4@$0A@@std@@@2@PAU342@00ABU?$pair@$$CBKU_WORLDDATA@CQuizDBCtrl@@@2@D@Z PROC NEAR ; std::_Tree<std::_Tmap_traits<unsigned long,CQuizDBCtrl::_WORLDDATA,std::less<unsigned long>,std::allocator<std::pair<unsigned long const ,CQuizDBCtrl::_WORLDDATA> >,0> >::_Buynode, COMDAT
; _this$ = ecx

; 1131 : 		_Nodeptr _Wherenode = this->_Alnod.allocate(1);

  00000	6a 30		 push	 48			; 00000030H
  00002	e8 00 00 00 00	 call	 ??2@YAPAXI@Z		; operator new
  00007	83 c4 04	 add	 esp, 4

; 1132 : 		_TRY_BEGIN
; 1133 : 		new (_Wherenode) _Node(_Larg, _Parg, _Rarg, _Val, _Carg);

  0000a	85 c0		 test	 eax, eax
  0000c	74 31		 je	 SHORT $L207165
  0000e	8b 4c 24 04	 mov	 ecx, DWORD PTR __Larg$[esp-4]
  00012	8b 54 24 08	 mov	 edx, DWORD PTR __Parg$[esp-4]
  00016	56		 push	 esi
  00017	8b 74 24 14	 mov	 esi, DWORD PTR __Val$[esp]
  0001b	89 08		 mov	 DWORD PTR [eax], ecx
  0001d	8b 4c 24 10	 mov	 ecx, DWORD PTR __Rarg$[esp]
  00021	57		 push	 edi
  00022	89 48 08	 mov	 DWORD PTR [eax+8], ecx
  00025	89 50 04	 mov	 DWORD PTR [eax+4], edx
  00028	8a 54 24 1c	 mov	 dl, BYTE PTR __Carg$[esp+4]
  0002c	8d 78 0c	 lea	 edi, DWORD PTR [eax+12]
  0002f	b9 08 00 00 00	 mov	 ecx, 8
  00034	f3 a5		 rep movsd
  00036	5f		 pop	 edi
  00037	88 50 2c	 mov	 BYTE PTR [eax+44], dl
  0003a	c6 40 2d 00	 mov	 BYTE PTR [eax+45], 0
  0003e	5e		 pop	 esi
$L207165:

; 1134 : 		_CATCH_ALL
; 1135 : 		this->_Alnod.deallocate(_Wherenode, 1);
; 1136 : 		_RERAISE;
; 1137 : 		_CATCH_END
; 1138 : 		return (_Wherenode);
; 1139 : 		}

  0003f	c2 14 00	 ret	 20			; 00000014H
?_Buynode@?$_Tree@V?$_Tmap_traits@KU_WORLDDATA@CQuizDBCtrl@@U?$less@K@std@@V?$allocator@U?$pair@$$CBKU_WORLDDATA@CQuizDBCtrl@@@std@@@4@$0A@@std@@@std@@IAEPAU_Node@?$_Tree_nod@V?$_Tmap_traits@KU_WORLDDATA@CQuizDBCtrl@@U?$less@K@std@@V?$allocator@U?$pair@$$CBKU_WORLDDATA@CQuizDBCtrl@@@std@@@4@$0A@@std@@@2@PAU342@00ABU?$pair@$$CBKU_WORLDDATA@CQuizDBCtrl@@@2@D@Z ENDP ; std::_Tree<std::_Tmap_traits<unsigned long,CQuizDBCtrl::_WORLDDATA,std::less<unsigned long>,std::allocator<std::pair<unsigned long const ,CQuizDBCtrl::_WORLDDATA> >,0> >::_Buynode
_TEXT	ENDS
PUBLIC	?_Buynode@?$_Tree@V?$_Tmap_traits@KU_WORLDDATA@CQuizDBCtrl@@U?$less@K@std@@V?$allocator@U?$pair@$$CBKU_WORLDDATA@CQuizDBCtrl@@@std@@@4@$0A@@std@@@std@@IAEPAU_Node@?$_Tree_nod@V?$_Tmap_traits@KU_WORLDDATA@CQuizDBCtrl@@U?$less@K@std@@V?$allocator@U?$pair@$$CBKU_WORLDDATA@CQuizDBCtrl@@@std@@@4@$0A@@std@@@2@XZ ; std::_Tree<std::_Tmap_traits<unsigned long,CQuizDBCtrl::_WORLDDATA,std::less<unsigned long>,std::allocator<std::pair<unsigned long const ,CQuizDBCtrl::_WORLDDATA> >,0> >::_Buynode
; Function compile flags: /Ogty
;	COMDAT ?_Buynode@?$_Tree@V?$_Tmap_traits@KU_WORLDDATA@CQuizDBCtrl@@U?$less@K@std@@V?$allocator@U?$pair@$$CBKU_WORLDDATA@CQuizDBCtrl@@@std@@@4@$0A@@std@@@std@@IAEPAU_Node@?$_Tree_nod@V?$_Tmap_traits@KU_WORLDDATA@CQuizDBCtrl@@U?$less@K@std@@V?$allocator@U?$pair@$$CBKU_WORLDDATA@CQuizDBCtrl@@@std@@@4@$0A@@std@@@2@XZ
_TEXT	SEGMENT
?_Buynode@?$_Tree@V?$_Tmap_traits@KU_WORLDDATA@CQuizDBCtrl@@U?$less@K@std@@V?$allocator@U?$pair@$$CBKU_WORLDDATA@CQuizDBCtrl@@@std@@@4@$0A@@std@@@std@@IAEPAU_Node@?$_Tree_nod@V?$_Tmap_traits@KU_WORLDDATA@CQuizDBCtrl@@U?$less@K@std@@V?$allocator@U?$pair@$$CBKU_WORLDDATA@CQuizDBCtrl@@@std@@@4@$0A@@std@@@2@XZ PROC NEAR ; std::_Tree<std::_Tmap_traits<unsigned long,CQuizDBCtrl::_WORLDDATA,std::less<unsigned long>,std::allocator<std::pair<unsigned long const ,CQuizDBCtrl::_WORLDDATA> >,0> >::_Buynode, COMDAT
; _this$ = ecx

; 1106 : 		_Nodeptr _Wherenode = this->_Alnod.allocate(1);

  00000	6a 30		 push	 48			; 00000030H
  00002	e8 00 00 00 00	 call	 ??2@YAPAXI@Z		; operator new
  00007	83 c4 04	 add	 esp, 4

; 1107 : 		int _Linkcnt = 0;
; 1108 : 
; 1109 : 		_TRY_BEGIN
; 1110 : 		this->_Alptr.construct(&_Left(_Wherenode), 0);

  0000a	85 c0		 test	 eax, eax
  0000c	74 06		 je	 SHORT $L207228
  0000e	c7 00 00 00 00
	00		 mov	 DWORD PTR [eax], 0
$L207228:

; 1111 : 		++_Linkcnt;
; 1112 : 		this->_Alptr.construct(&_Parent(_Wherenode), 0);

  00014	8d 48 04	 lea	 ecx, DWORD PTR [eax+4]
  00017	85 c9		 test	 ecx, ecx
  00019	74 06		 je	 SHORT $L207255
  0001b	c7 01 00 00 00
	00		 mov	 DWORD PTR [ecx], 0
$L207255:

; 1113 : 		++_Linkcnt;
; 1114 : 		this->_Alptr.construct(&_Right(_Wherenode), 0);

  00021	8d 48 08	 lea	 ecx, DWORD PTR [eax+8]
  00024	85 c9		 test	 ecx, ecx
  00026	74 06		 je	 SHORT $L207282
  00028	c7 01 00 00 00
	00		 mov	 DWORD PTR [ecx], 0
$L207282:

; 1115 : 		_CATCH_ALL
; 1116 : 		if (1 < _Linkcnt)
; 1117 : 			this->_Alptr.destroy(&_Parent(_Wherenode));
; 1118 : 		if (0 < _Linkcnt)
; 1119 : 			this->_Alptr.destroy(&_Left(_Wherenode));
; 1120 : 		this->_Alnod.deallocate(_Wherenode, 1);
; 1121 : 		_RERAISE;
; 1122 : 		_CATCH_END
; 1123 : 		_Color(_Wherenode) = _Black;

  0002e	c6 40 2c 01	 mov	 BYTE PTR [eax+44], 1

; 1124 : 		_Isnil(_Wherenode) = false;

  00032	c6 40 2d 00	 mov	 BYTE PTR [eax+45], 0

; 1125 : 		return (_Wherenode);
; 1126 : 		}

  00036	c3		 ret	 0
?_Buynode@?$_Tree@V?$_Tmap_traits@KU_WORLDDATA@CQuizDBCtrl@@U?$less@K@std@@V?$allocator@U?$pair@$$CBKU_WORLDDATA@CQuizDBCtrl@@@std@@@4@$0A@@std@@@std@@IAEPAU_Node@?$_Tree_nod@V?$_Tmap_traits@KU_WORLDDATA@CQuizDBCtrl@@U?$less@K@std@@V?$allocator@U?$pair@$$CBKU_WORLDDATA@CQuizDBCtrl@@@std@@@4@$0A@@std@@@2@XZ ENDP ; std::_Tree<std::_Tmap_traits<unsigned long,CQuizDBCtrl::_WORLDDATA,std::less<unsigned long>,std::allocator<std::pair<unsigned long const ,CQuizDBCtrl::_WORLDDATA> >,0> >::_Buynode
_TEXT	ENDS
PUBLIC	??0?$_Tree_ptr@V?$_Tmap_traits@KU_WORLDDATA@CQuizDBCtrl@@U?$less@K@std@@V?$allocator@U?$pair@$$CBKU_WORLDDATA@CQuizDBCtrl@@@std@@@4@$0A@@std@@@std@@IAE@ABU?$less@K@1@V?$allocator@U?$pair@$$CBKU_WORLDDATA@CQuizDBCtrl@@@std@@@1@@Z ; std::_Tree_ptr<std::_Tmap_traits<unsigned long,CQuizDBCtrl::_WORLDDATA,std::less<unsigned long>,std::allocator<std::pair<unsigned long const ,CQuizDBCtrl::_WORLDDATA> >,0> >::_Tree_ptr<std::_Tmap_traits<unsigned long,CQuizDBCtrl::_WORLDDATA,std::less<unsigned long>,std::allocator<std::pair<unsigned long const ,CQuizDBCtrl::_WORLDDATA> >,0> >
; Function compile flags: /Ogty
;	COMDAT ??0?$_Tree_ptr@V?$_Tmap_traits@KU_WORLDDATA@CQuizDBCtrl@@U?$less@K@std@@V?$allocator@U?$pair@$$CBKU_WORLDDATA@CQuizDBCtrl@@@std@@@4@$0A@@std@@@std@@IAE@ABU?$less@K@1@V?$allocator@U?$pair@$$CBKU_WORLDDATA@CQuizDBCtrl@@@std@@@1@@Z
_TEXT	SEGMENT
__Parg$ = 8						; size = 4
__Al$ = 12						; size = 1
??0?$_Tree_ptr@V?$_Tmap_traits@KU_WORLDDATA@CQuizDBCtrl@@U?$less@K@std@@V?$allocator@U?$pair@$$CBKU_WORLDDATA@CQuizDBCtrl@@@std@@@4@$0A@@std@@@std@@IAE@ABU?$less@K@1@V?$allocator@U?$pair@$$CBKU_WORLDDATA@CQuizDBCtrl@@@std@@@1@@Z PROC NEAR ; std::_Tree_ptr<std::_Tmap_traits<unsigned long,CQuizDBCtrl::_WORLDDATA,std::less<unsigned long>,std::allocator<std::pair<unsigned long const ,CQuizDBCtrl::_WORLDDATA> >,0> >::_Tree_ptr<std::_Tmap_traits<unsigned long,CQuizDBCtrl::_WORLDDATA,std::less<unsigned long>,std::allocator<std::pair<unsigned long const ,CQuizDBCtrl::_WORLDDATA> >,0> >, COMDAT
; _this$ = ecx

; 76   : 		{	// construct base, and allocator from _Al

  00000	8b c1		 mov	 eax, ecx

; 77   : 		}

  00002	c2 08 00	 ret	 8
??0?$_Tree_ptr@V?$_Tmap_traits@KU_WORLDDATA@CQuizDBCtrl@@U?$less@K@std@@V?$allocator@U?$pair@$$CBKU_WORLDDATA@CQuizDBCtrl@@@std@@@4@$0A@@std@@@std@@IAE@ABU?$less@K@1@V?$allocator@U?$pair@$$CBKU_WORLDDATA@CQuizDBCtrl@@@std@@@1@@Z ENDP ; std::_Tree_ptr<std::_Tmap_traits<unsigned long,CQuizDBCtrl::_WORLDDATA,std::less<unsigned long>,std::allocator<std::pair<unsigned long const ,CQuizDBCtrl::_WORLDDATA> >,0> >::_Tree_ptr<std::_Tmap_traits<unsigned long,CQuizDBCtrl::_WORLDDATA,std::less<unsigned long>,std::allocator<std::pair<unsigned long const ,CQuizDBCtrl::_WORLDDATA> >,0> >
_TEXT	ENDS
PUBLIC	??Eiterator@?$_Tree@V?$_Tmap_traits@KU_WORLDDATA@CQuizDBCtrl@@U?$less@K@std@@V?$allocator@U?$pair@$$CBKU_WORLDDATA@CQuizDBCtrl@@@std@@@4@$0A@@std@@@std@@QAE?AV012@H@Z ; std::_Tree<std::_Tmap_traits<unsigned long,CQuizDBCtrl::_WORLDDATA,std::less<unsigned long>,std::allocator<std::pair<unsigned long const ,CQuizDBCtrl::_WORLDDATA> >,0> >::iterator::operator++
; Function compile flags: /Ogty
;	COMDAT ??Eiterator@?$_Tree@V?$_Tmap_traits@KU_WORLDDATA@CQuizDBCtrl@@U?$less@K@std@@V?$allocator@U?$pair@$$CBKU_WORLDDATA@CQuizDBCtrl@@@std@@@4@$0A@@std@@@std@@QAE?AV012@H@Z
_TEXT	SEGMENT
___$ReturnUdt$ = 8					; size = 4
___formal$ = 12						; size = 4
??Eiterator@?$_Tree@V?$_Tmap_traits@KU_WORLDDATA@CQuizDBCtrl@@U?$less@K@std@@V?$allocator@U?$pair@$$CBKU_WORLDDATA@CQuizDBCtrl@@@std@@@4@$0A@@std@@@std@@QAE?AV012@H@Z PROC NEAR ; std::_Tree<std::_Tmap_traits<unsigned long,CQuizDBCtrl::_WORLDDATA,std::less<unsigned long>,std::allocator<std::pair<unsigned long const ,CQuizDBCtrl::_WORLDDATA> >,0> >::iterator::operator++, COMDAT
; _this$ = ecx

; 332  : 			{	// postincrement

  00000	56		 push	 esi

; 333  : 			iterator _Tmp = *this;

  00001	8b 31		 mov	 esi, DWORD PTR [ecx]

; 334  : 			++*this;

  00003	e8 00 00 00 00	 call	 ?_Inc@const_iterator@?$_Tree@V?$_Tmap_traits@KU_WORLDDATA@CQuizDBCtrl@@U?$less@K@std@@V?$allocator@U?$pair@$$CBKU_WORLDDATA@CQuizDBCtrl@@@std@@@4@$0A@@std@@@std@@QAEXXZ ; std::_Tree<std::_Tmap_traits<unsigned long,CQuizDBCtrl::_WORLDDATA,std::less<unsigned long>,std::allocator<std::pair<unsigned long const ,CQuizDBCtrl::_WORLDDATA> >,0> >::const_iterator::_Inc

; 335  : 			return (_Tmp);

  00008	8b 44 24 08	 mov	 eax, DWORD PTR ___$ReturnUdt$[esp]
  0000c	89 30		 mov	 DWORD PTR [eax], esi
  0000e	5e		 pop	 esi

; 336  : 			}

  0000f	c2 08 00	 ret	 8
??Eiterator@?$_Tree@V?$_Tmap_traits@KU_WORLDDATA@CQuizDBCtrl@@U?$less@K@std@@V?$allocator@U?$pair@$$CBKU_WORLDDATA@CQuizDBCtrl@@@std@@@4@$0A@@std@@@std@@QAE?AV012@H@Z ENDP ; std::_Tree<std::_Tmap_traits<unsigned long,CQuizDBCtrl::_WORLDDATA,std::less<unsigned long>,std::allocator<std::pair<unsigned long const ,CQuizDBCtrl::_WORLDDATA> >,0> >::iterator::operator++
_TEXT	ENDS
PUBLIC	??0?$CStringT@DV?$StrTraitMFC@DV?$ChTraitsCRT@D@ATL@@@@@ATL@@QAE@XZ ; ATL::CStringT<char,StrTraitMFC<char,ATL::ChTraitsCRT<char> > >::CStringT<char,StrTraitMFC<char,ATL::ChTraitsCRT<char> > >
; Function compile flags: /Ogty
; File c:\program files\microsoft visual studio .net 2003\vc7\atlmfc\include\cstringt.h
;	COMDAT ??0?$CStringT@DV?$StrTraitMFC@DV?$ChTraitsCRT@D@ATL@@@@@ATL@@QAE@XZ
_TEXT	SEGMENT
??0?$CStringT@DV?$StrTraitMFC@DV?$ChTraitsCRT@D@ATL@@@@@ATL@@QAE@XZ PROC NEAR ; ATL::CStringT<char,StrTraitMFC<char,ATL::ChTraitsCRT<char> > >::CStringT<char,StrTraitMFC<char,ATL::ChTraitsCRT<char> > >, COMDAT
; _this$ = ecx

; 796  : 	{

  00000	56		 push	 esi
  00001	8b f1		 mov	 esi, ecx
  00003	e8 00 00 00 00	 call	 ?AfxGetStringManager@@YGPAUIAtlStringMgr@ATL@@XZ ; AfxGetStringManager
  00008	8b 10		 mov	 edx, DWORD PTR [eax]
  0000a	8b c8		 mov	 ecx, eax
  0000c	ff 52 0c	 call	 DWORD PTR [edx+12]
  0000f	83 c0 10	 add	 eax, 16			; 00000010H
  00012	89 06		 mov	 DWORD PTR [esi], eax

; 797  : 	}

  00014	8b c6		 mov	 eax, esi
  00016	5e		 pop	 esi
  00017	c3		 ret	 0
??0?$CStringT@DV?$StrTraitMFC@DV?$ChTraitsCRT@D@ATL@@@@@ATL@@QAE@XZ ENDP ; ATL::CStringT<char,StrTraitMFC<char,ATL::ChTraitsCRT<char> > >::CStringT<char,StrTraitMFC<char,ATL::ChTraitsCRT<char> > >
_TEXT	ENDS
PUBLIC	??1?$CStringT@DV?$StrTraitMFC@DV?$ChTraitsCRT@D@ATL@@@@@ATL@@QAE@XZ ; ATL::CStringT<char,StrTraitMFC<char,ATL::ChTraitsCRT<char> > >::~CStringT<char,StrTraitMFC<char,ATL::ChTraitsCRT<char> > >
; Function compile flags: /Ogty
;	COMDAT ??1?$CStringT@DV?$StrTraitMFC@DV?$ChTraitsCRT@D@ATL@@@@@ATL@@QAE@XZ
_TEXT	SEGMENT
??1?$CStringT@DV?$StrTraitMFC@DV?$ChTraitsCRT@D@ATL@@@@@ATL@@QAE@XZ PROC NEAR ; ATL::CStringT<char,StrTraitMFC<char,ATL::ChTraitsCRT<char> > >::~CStringT<char,StrTraitMFC<char,ATL::ChTraitsCRT<char> > >, COMDAT
; _this$ = ecx

; 963  : 	}

  00000	8b 01		 mov	 eax, DWORD PTR [ecx]
  00002	83 e8 10	 sub	 eax, 16			; 00000010H
  00005	8d 48 0c	 lea	 ecx, DWORD PTR [eax+12]
  00008	83 ca ff	 or	 edx, -1
  0000b	f0 0f c1 11	 lock	  xadd	 DWORD PTR [ecx], edx
  0000f	4a		 dec	 edx
  00010	85 d2		 test	 edx, edx
  00012	7f 08		 jg	 SHORT $L207375
  00014	8b 08		 mov	 ecx, DWORD PTR [eax]
  00016	8b 11		 mov	 edx, DWORD PTR [ecx]
  00018	50		 push	 eax
  00019	ff 52 04	 call	 DWORD PTR [edx+4]
$L207375:
  0001c	c3		 ret	 0
??1?$CStringT@DV?$StrTraitMFC@DV?$ChTraitsCRT@D@ATL@@@@@ATL@@QAE@XZ ENDP ; ATL::CStringT<char,StrTraitMFC<char,ATL::ChTraitsCRT<char> > >::~CStringT<char,StrTraitMFC<char,ATL::ChTraitsCRT<char> > >
_TEXT	ENDS
PUBLIC	??0?$CSimpleStringT@D$0A@@ATL@@QAE@ABV01@@Z	; ATL::CSimpleStringT<char,0>::CSimpleStringT<char,0>
; Function compile flags: /Ogty
; File c:\program files\microsoft visual studio .net 2003\vc7\atlmfc\include\atlsimpstr.h
;	COMDAT ??0?$CSimpleStringT@D$0A@@ATL@@QAE@ABV01@@Z
_TEXT	SEGMENT
_strSrc$ = 8						; size = 4
??0?$CSimpleStringT@D$0A@@ATL@@QAE@ABV01@@Z PROC NEAR	; ATL::CSimpleStringT<char,0>::CSimpleStringT<char,0>, COMDAT
; _this$ = ecx

; 218  : 	{
; 219  : 		CStringData* pSrcData = strSrc.GetData();

  00000	8b 44 24 04	 mov	 eax, DWORD PTR _strSrc$[esp-4]
  00004	8b 00		 mov	 eax, DWORD PTR [eax]
  00006	56		 push	 esi
  00007	83 e8 10	 sub	 eax, 16			; 00000010H

; 220  : 		CStringData* pNewData = CloneData( pSrcData );

  0000a	50		 push	 eax
  0000b	8b f1		 mov	 esi, ecx
  0000d	e8 00 00 00 00	 call	 ?CloneData@?$CSimpleStringT@D$0A@@ATL@@CAPAUCStringData@2@PAU32@@Z ; ATL::CSimpleStringT<char,0>::CloneData

; 221  : 		Attach( pNewData );

  00012	83 c0 10	 add	 eax, 16			; 00000010H
  00015	89 06		 mov	 DWORD PTR [esi], eax
  00017	83 c4 04	 add	 esp, 4

; 222  : 	}

  0001a	8b c6		 mov	 eax, esi
  0001c	5e		 pop	 esi
  0001d	c2 04 00	 ret	 4
??0?$CSimpleStringT@D$0A@@ATL@@QAE@ABV01@@Z ENDP	; ATL::CSimpleStringT<char,0>::CSimpleStringT<char,0>
_TEXT	ENDS
PUBLIC	?PrepareWrite@?$CSimpleStringT@D$0A@@ATL@@AAEPADH@Z ; ATL::CSimpleStringT<char,0>::PrepareWrite
; Function compile flags: /Ogty
;	COMDAT ?PrepareWrite@?$CSimpleStringT@D$0A@@ATL@@AAEPADH@Z
_TEXT	SEGMENT
_nLength$ = 8						; size = 4
?PrepareWrite@?$CSimpleStringT@D$0A@@ATL@@AAEPADH@Z PROC NEAR ; ATL::CSimpleStringT<char,0>::PrepareWrite, COMDAT
; _this$ = ecx

; 734  : 	{

  00000	56		 push	 esi
  00001	8b f1		 mov	 esi, ecx

; 735  : 		CStringData* pOldData = GetData();

  00003	8b 06		 mov	 eax, DWORD PTR [esi]

; 736  : 		int nShared = 1-pOldData->nRefs;  // nShared < 0 means true, >= 0 means false

  00005	8b 50 fc	 mov	 edx, DWORD PTR [eax-4]
  00008	83 e8 10	 sub	 eax, 16			; 00000010H
  0000b	b9 01 00 00 00	 mov	 ecx, 1
  00010	2b ca		 sub	 ecx, edx

; 737  : 		int nTooShort = pOldData->nAllocLength-nLength;  // nTooShort < 0 means true, >= 0 means false

  00012	8b 50 08	 mov	 edx, DWORD PTR [eax+8]
  00015	8b 44 24 08	 mov	 eax, DWORD PTR _nLength$[esp]
  00019	2b d0		 sub	 edx, eax

; 738  : 		if( (nShared|nTooShort) < 0 )  // If either sign bit is set (i.e. either is less than zero), we need to copy data

  0001b	0b ca		 or	 ecx, edx
  0001d	7d 08		 jge	 SHORT $L207396

; 739  : 		{
; 740  : 			PrepareWrite2( nLength );

  0001f	50		 push	 eax
  00020	8b ce		 mov	 ecx, esi
  00022	e8 00 00 00 00	 call	 ?PrepareWrite2@?$CSimpleStringT@D$0A@@ATL@@AAEXH@Z ; ATL::CSimpleStringT<char,0>::PrepareWrite2
$L207396:

; 741  : 		}
; 742  : 
; 743  : 		return( m_pszData );

  00027	8b 06		 mov	 eax, DWORD PTR [esi]
  00029	5e		 pop	 esi

; 744  : 	}

  0002a	c2 04 00	 ret	 4
?PrepareWrite@?$CSimpleStringT@D$0A@@ATL@@AAEPADH@Z ENDP ; ATL::CSimpleStringT<char,0>::PrepareWrite
_TEXT	ENDS
PUBLIC	?_Tidy@?$basic_string@DU?$char_traits@D@std@@V?$allocator@D@2@@std@@IAEX_NI@Z ; std::basic_string<char,std::char_traits<char>,std::allocator<char> >::_Tidy
; Function compile flags: /Ogty
; File c:\program files\microsoft visual studio .net 2003\vc7\include\xstring
;	COMDAT ?_Tidy@?$basic_string@DU?$char_traits@D@std@@V?$allocator@D@2@@std@@IAEX_NI@Z
_TEXT	SEGMENT
__Built$ = 8						; size = 1
__Newsize$ = 12						; size = 4
?_Tidy@?$basic_string@DU?$char_traits@D@std@@V?$allocator@D@2@@std@@IAEX_NI@Z PROC NEAR ; std::basic_string<char,std::char_traits<char>,std::allocator<char> >::_Tidy, COMDAT
; _this$ = ecx

; 1510 : 		if (!_Built)

  00000	8a 44 24 04	 mov	 al, BYTE PTR __Built$[esp-4]
  00004	84 c0		 test	 al, al
  00006	53		 push	 ebx
  00007	55		 push	 ebp
  00008	8b 6c 24 10	 mov	 ebp, DWORD PTR __Newsize$[esp+4]
  0000c	8b d9		 mov	 ebx, ecx
  0000e	74 2f		 je	 SHORT $L207404

; 1511 : 			;
; 1512 : 		else if (_BUF_SIZE <= _Myres)

  00010	83 7b 18 10	 cmp	 DWORD PTR [ebx+24], 16	; 00000010H
  00014	72 29		 jb	 SHORT $L207404

; 1513 : 			{	// copy any leftovers to small buffer and deallocate
; 1514 : 			_Elem *_Ptr = _Bx._Ptr;
; 1515 : 			if (0 < _Newsize)

  00016	85 ed		 test	 ebp, ebp
  00018	8b 43 04	 mov	 eax, DWORD PTR [ebx+4]
  0001b	57		 push	 edi
  0001c	8d 7b 04	 lea	 edi, DWORD PTR [ebx+4]
  0001f	76 14		 jbe	 SHORT $L207401
  00021	56		 push	 esi

; 1516 : 				_Traits::copy(_Bx._Buf, _Ptr, _Newsize);

  00022	8b cd		 mov	 ecx, ebp
  00024	8b d1		 mov	 edx, ecx
  00026	c1 e9 02	 shr	 ecx, 2
  00029	8b f0		 mov	 esi, eax
  0002b	f3 a5		 rep movsd
  0002d	8b ca		 mov	 ecx, edx
  0002f	83 e1 03	 and	 ecx, 3
  00032	f3 a4		 rep movsb
  00034	5e		 pop	 esi
$L207401:

; 1517 : 			_Mybase::_Alval.deallocate(_Ptr, _Myres + 1);

  00035	50		 push	 eax
  00036	e8 00 00 00 00	 call	 ??3@YAXPAX@Z		; operator delete
  0003b	83 c4 04	 add	 esp, 4
  0003e	5f		 pop	 edi
$L207404:

; 1518 : 			}
; 1519 : 		_Myres = _BUF_SIZE - 1;
; 1520 : 		_Eos(_Newsize);

  0003f	89 6b 14	 mov	 DWORD PTR [ebx+20], ebp
  00042	c7 43 18 0f 00
	00 00		 mov	 DWORD PTR [ebx+24], 15	; 0000000fH
  00049	c6 44 2b 04 00	 mov	 BYTE PTR [ebx+ebp+4], 0
  0004e	5d		 pop	 ebp
  0004f	5b		 pop	 ebx

; 1521 : 		}

  00050	c2 08 00	 ret	 8
?_Tidy@?$basic_string@DU?$char_traits@D@std@@V?$allocator@D@2@@std@@IAEX_NI@Z ENDP ; std::basic_string<char,std::char_traits<char>,std::allocator<char> >::_Tidy
_TEXT	ENDS
PUBLIC	?erase@?$basic_string@DU?$char_traits@D@std@@V?$allocator@D@2@@std@@QAEAAV12@II@Z ; std::basic_string<char,std::char_traits<char>,std::allocator<char> >::erase
EXTRN	?_Xran@_String_base@std@@QBEXXZ:NEAR		; std::_String_base::_Xran
; Function compile flags: /Ogty
;	COMDAT ?erase@?$basic_string@DU?$char_traits@D@std@@V?$allocator@D@2@@std@@QAEAAV12@II@Z
_TEXT	SEGMENT
__Off$ = 8						; size = 4
__Count$ = 12						; size = 4
?erase@?$basic_string@DU?$char_traits@D@std@@V?$allocator@D@2@@std@@QAEAAV12@II@Z PROC NEAR ; std::basic_string<char,std::char_traits<char>,std::allocator<char> >::erase, COMDAT
; _this$ = ecx

; 792  : 		{	// erase elements [_Off, _Off + _Count)

  00000	55		 push	 ebp

; 793  : 		if (_Mysize < _Off)

  00001	8b 6c 24 08	 mov	 ebp, DWORD PTR __Off$[esp]
  00005	56		 push	 esi
  00006	8b f1		 mov	 esi, ecx
  00008	39 6e 14	 cmp	 DWORD PTR [esi+20], ebp
  0000b	57		 push	 edi
  0000c	73 05		 jae	 SHORT $L184993

; 794  : 			_String_base::_Xran();	// _Off off end

  0000e	e8 00 00 00 00	 call	 ?_Xran@_String_base@std@@QBEXXZ ; std::_String_base::_Xran
$L184993:

; 795  : 		if (_Mysize - _Off < _Count)

  00013	8b 46 14	 mov	 eax, DWORD PTR [esi+20]
  00016	8b 7c 24 14	 mov	 edi, DWORD PTR __Count$[esp+8]
  0001a	2b c5		 sub	 eax, ebp
  0001c	3b c7		 cmp	 eax, edi
  0001e	73 02		 jae	 SHORT $L184994

; 796  : 			_Count = _Mysize - _Off;	// trim _Count

  00020	8b f8		 mov	 edi, eax
$L184994:

; 797  : 		if (0 < _Count)

  00022	85 ff		 test	 edi, edi
  00024	76 47		 jbe	 SHORT $L207468

; 798  : 			{	// move elements down
; 799  : 			_Traits::move(_Myptr() + _Off, _Myptr() + _Off + _Count,
; 800  : 				_Mysize - _Off - _Count);

  00026	8b 4e 18	 mov	 ecx, DWORD PTR [esi+24]
  00029	83 f9 10	 cmp	 ecx, 16			; 00000010H
  0002c	53		 push	 ebx
  0002d	8d 5e 04	 lea	 ebx, DWORD PTR [esi+4]
  00030	72 04		 jb	 SHORT $L207433
  00032	8b 13		 mov	 edx, DWORD PTR [ebx]
  00034	eb 02		 jmp	 SHORT $L207434
$L207433:
  00036	8b d3		 mov	 edx, ebx
$L207434:
  00038	83 f9 10	 cmp	 ecx, 16			; 00000010H
  0003b	72 04		 jb	 SHORT $L207440
  0003d	8b 0b		 mov	 ecx, DWORD PTR [ebx]
  0003f	eb 02		 jmp	 SHORT $L207441
$L207440:
  00041	8b cb		 mov	 ecx, ebx
$L207441:
  00043	2b c7		 sub	 eax, edi

; 803  : 			}
; 804  : 		return (*this);

  00045	03 d5		 add	 edx, ebp
  00047	50		 push	 eax
  00048	03 d7		 add	 edx, edi
  0004a	52		 push	 edx
  0004b	03 cd		 add	 ecx, ebp
  0004d	51		 push	 ecx
  0004e	e8 00 00 00 00	 call	 _memmove
  00053	8b 46 14	 mov	 eax, DWORD PTR [esi+20]
  00056	8b 4e 18	 mov	 ecx, DWORD PTR [esi+24]
  00059	2b c7		 sub	 eax, edi
  0005b	83 c4 0c	 add	 esp, 12			; 0000000cH
  0005e	83 f9 10	 cmp	 ecx, 16			; 00000010H
  00061	89 46 14	 mov	 DWORD PTR [esi+20], eax
  00064	72 02		 jb	 SHORT $L207463

; 801  : 			size_type _Newsize = _Mysize - _Count;
; 802  : 			_Eos(_Newsize);

  00066	8b 1b		 mov	 ebx, DWORD PTR [ebx]
$L207463:
  00068	c6 04 03 00	 mov	 BYTE PTR [ebx+eax], 0
  0006c	5b		 pop	 ebx
$L207468:
  0006d	5f		 pop	 edi

; 803  : 			}
; 804  : 		return (*this);

  0006e	8b c6		 mov	 eax, esi
  00070	5e		 pop	 esi
  00071	5d		 pop	 ebp

; 805  : 		}

  00072	c2 08 00	 ret	 8
?erase@?$basic_string@DU?$char_traits@D@std@@V?$allocator@D@2@@std@@QAEAAV12@II@Z ENDP ; std::basic_string<char,std::char_traits<char>,std::allocator<char> >::erase
_TEXT	ENDS
PUBLIC	?_Copy@?$basic_string@DU?$char_traits@D@std@@V?$allocator@D@2@@std@@IAEXII@Z ; std::basic_string<char,std::char_traits<char>,std::allocator<char> >::_Copy
;	COMDAT xdata$x
; File c:\program files\microsoft visual studio .net 2003\vc7\include\iosfwd
xdata$x	SEGMENT
$T207671 DD	0ffffffffH
	DD	00H
	DD	0ffffffffH
	DD	00H
	DD	01H
	DD	00H
	DD	01H
	DD	00H
$T207673 DD	00H
	DD	00H
	DD	00H
	DD	FLAT:$L207474
$T207674 DD	00H
	DD	00H
	DD	00H
	DD	FLAT:$L207472
$T207672 DD	02H
	DD	02H
	DD	03H
	DD	01H
	DD	FLAT:$T207673
	DD	00H
	DD	00H
	DD	03H
	DD	01H
	DD	FLAT:$T207674
$T207666 DD	019930520H
	DD	04H
	DD	FLAT:$T207671
	DD	02H
	DD	FLAT:$T207672
	DD	2 DUP(00H)
; Function compile flags: /Ogty
; File c:\program files\microsoft visual studio .net 2003\vc7\include\xstring
xdata$x	ENDS
;	COMDAT ?_Copy@?$basic_string@DU?$char_traits@D@std@@V?$allocator@D@2@@std@@IAEXII@Z
_TEXT	SEGMENT
__Newres$ = -24						; size = 4
_this$ = -20						; size = 4
__$EHRec$ = -16						; size = 16
__Ptr$ = 8						; size = 4
__Newsize$ = 8						; size = 4
__Oldlen$ = 12						; size = 4
?_Copy@?$basic_string@DU?$char_traits@D@std@@V?$allocator@D@2@@std@@IAEXII@Z PROC NEAR ; std::basic_string<char,std::char_traits<char>,std::allocator<char> >::_Copy, COMDAT
; _this$ = ecx

; 1444 : 		{	// copy _Oldlen elements to newly allocated buffer

  00000	55		 push	 ebp
  00001	8b ec		 mov	 ebp, esp
  00003	6a ff		 push	 -1
  00005	68 00 00 00 00	 push	 __ehhandler$?_Copy@?$basic_string@DU?$char_traits@D@std@@V?$allocator@D@2@@std@@IAEXII@Z
  0000a	64 a1 00 00 00
	00		 mov	 eax, DWORD PTR fs:__except_list
  00010	50		 push	 eax
  00011	64 89 25 00 00
	00 00		 mov	 DWORD PTR fs:__except_list, esp
  00018	83 ec 0c	 sub	 esp, 12			; 0000000cH

; 1445 : 		size_type _Newres = _Newsize | _ALLOC_MASK;

  0001b	8b 45 08	 mov	 eax, DWORD PTR __Newsize$[ebp]
  0001e	53		 push	 ebx
  0001f	56		 push	 esi
  00020	8b d8		 mov	 ebx, eax
  00022	83 cb 0f	 or	 ebx, 15			; 0000000fH

; 1446 : 		if (max_size() < _Newres)

  00025	83 fb fe	 cmp	 ebx, -2			; fffffffeH
  00028	57		 push	 edi
  00029	8b f1		 mov	 esi, ecx
  0002b	89 65 f0	 mov	 DWORD PTR __$EHRec$[ebp], esp
  0002e	89 75 ec	 mov	 DWORD PTR _this$[ebp], esi
  00031	76 04		 jbe	 SHORT $L185550

; 1447 : 			_Newres = _Newsize;	// undo roundup if too big

  00033	8b d8		 mov	 ebx, eax

; 1448 : 		else if (_Newres / 3 < _Myres / 2

  00035	eb 22		 jmp	 SHORT $L185552
$L185550:

; 1449 : 			&& _Myres <= max_size() - _Myres / 2)

  00037	8b 7e 18	 mov	 edi, DWORD PTR [esi+24]
  0003a	b8 ab aa aa aa	 mov	 eax, -1431655765	; aaaaaaabH
  0003f	f7 e3		 mul	 ebx
  00041	8b cf		 mov	 ecx, edi
  00043	d1 e9		 shr	 ecx, 1
  00045	d1 ea		 shr	 edx, 1
  00047	3b d1		 cmp	 edx, ecx
  00049	73 0e		 jae	 SHORT $L185552
  0004b	b8 fe ff ff ff	 mov	 eax, -2			; fffffffeH
  00050	2b c1		 sub	 eax, ecx
  00052	3b f8		 cmp	 edi, eax
  00054	77 03		 ja	 SHORT $L185552

; 1450 : 			_Newres = _Myres + _Myres / 2;	// grow exponentially if possible

  00056	8d 1c 39	 lea	 ebx, DWORD PTR [ecx+edi]
$L185552:

; 1451 : 		_Elem *_Ptr;
; 1452 : 
; 1453 : 		_TRY_BEGIN
; 1454 : 			_Ptr = _Mybase::_Alval.allocate(_Newres + 1);

  00059	8d 4b 01	 lea	 ecx, DWORD PTR [ebx+1]
  0005c	51		 push	 ecx
  0005d	c7 45 fc 00 00
	00 00		 mov	 DWORD PTR __$EHRec$[ebp+12], 0
  00064	e8 00 00 00 00	 call	 ??2@YAPAXI@Z		; operator new
  00069	8b d0		 mov	 edx, eax
  0006b	83 c4 04	 add	 esp, 4
  0006e	89 55 08	 mov	 DWORD PTR __Ptr$[ebp], edx
  00071	eb 29		 jmp	 SHORT $L185554
$L207472:

; 1455 : 		_CATCH_ALL
; 1456 : 			_Newres = _Newsize;	// allocation failed, undo roundup and retry

  00073	8b 45 08	 mov	 eax, DWORD PTR __Newsize$[ebp]
  00076	89 45 e8	 mov	 DWORD PTR __Newres$[ebp], eax

; 1457 : 			_TRY_BEGIN
; 1458 : 				_Ptr = _Mybase::_Alval.allocate(_Newres + 1);

  00079	40		 inc	 eax
  0007a	89 65 f0	 mov	 DWORD PTR __$EHRec$[ebp], esp
  0007d	50		 push	 eax
  0007e	c6 45 fc 02	 mov	 BYTE PTR __$EHRec$[ebp+12], 2
  00082	e8 00 00 00 00	 call	 ??2@YAPAXI@Z		; operator new
  00087	89 45 08	 mov	 DWORD PTR __Ptr$[ebp], eax
  0008a	83 c4 04	 add	 esp, 4

; 1462 : 			_CATCH_END
; 1463 : 		_CATCH_END

  0008d	b8 00 00 00 00	 mov	 eax, $L207667
  00092	c3		 ret	 0
$L207667:
  00093	8b 5d e8	 mov	 ebx, DWORD PTR __Newres$[ebp]
  00096	8b 75 ec	 mov	 esi, DWORD PTR _this$[ebp]
  00099	8b 55 08	 mov	 edx, DWORD PTR __Ptr$[ebp]
$L185554:

; 1464 : 
; 1465 : 		if (0 < _Oldlen)

  0009c	8b 4d 0c	 mov	 ecx, DWORD PTR __Oldlen$[ebp]
  0009f	85 c9		 test	 ecx, ecx
  000a1	76 24		 jbe	 SHORT $L207592

; 1466 : 			_Traits::copy(_Ptr, _Myptr(), _Oldlen);	// copy existing elements

  000a3	83 7e 18 10	 cmp	 DWORD PTR [esi+24], 16	; 00000010H
  000a7	72 05		 jb	 SHORT $L207588
  000a9	8b 76 04	 mov	 esi, DWORD PTR [esi+4]
  000ac	eb 03		 jmp	 SHORT $L207589
$L207588:
  000ae	83 c6 04	 add	 esi, 4
$L207589:
  000b1	8b c1		 mov	 eax, ecx
  000b3	c1 e9 02	 shr	 ecx, 2
  000b6	8b fa		 mov	 edi, edx
  000b8	f3 a5		 rep movsd
  000ba	8b c8		 mov	 ecx, eax
  000bc	83 e1 03	 and	 ecx, 3
  000bf	f3 a4		 rep movsb
  000c1	8b 75 ec	 mov	 esi, DWORD PTR _this$[ebp]
  000c4	8b 4d 0c	 mov	 ecx, DWORD PTR __Oldlen$[ebp]
$L207592:

; 1467 : 		_Tidy(true);

  000c7	83 7e 18 10	 cmp	 DWORD PTR [esi+24], 16	; 00000010H
  000cb	72 12		 jb	 SHORT $L207633
  000cd	8b 4e 04	 mov	 ecx, DWORD PTR [esi+4]
  000d0	51		 push	 ecx
  000d1	e8 00 00 00 00	 call	 ??3@YAXPAX@Z		; operator delete
  000d6	8b 55 08	 mov	 edx, DWORD PTR __Ptr$[ebp]
  000d9	8b 4d 0c	 mov	 ecx, DWORD PTR __Oldlen$[ebp]
  000dc	83 c4 04	 add	 esp, 4
$L207633:

; 1468 : 		_Bx._Ptr = _Ptr;
; 1469 : 		_Myres = _Newres;
; 1470 : 		_Eos(_Oldlen);

  000df	83 fb 10	 cmp	 ebx, 16			; 00000010H
  000e2	8d 46 04	 lea	 eax, DWORD PTR [esi+4]
  000e5	c6 00 00	 mov	 BYTE PTR [eax], 0
  000e8	89 10		 mov	 DWORD PTR [eax], edx
  000ea	89 5e 18	 mov	 DWORD PTR [esi+24], ebx
  000ed	89 4e 14	 mov	 DWORD PTR [esi+20], ecx
  000f0	72 02		 jb	 SHORT $L207662
  000f2	8b c2		 mov	 eax, edx
$L207662:

; 1471 : 		}

  000f4	5f		 pop	 edi
  000f5	c6 04 08 00	 mov	 BYTE PTR [eax+ecx], 0
  000f9	8b 4d f4	 mov	 ecx, DWORD PTR __$EHRec$[ebp+4]
  000fc	5e		 pop	 esi
  000fd	64 89 0d 00 00
	00 00		 mov	 DWORD PTR fs:__except_list, ecx
  00104	5b		 pop	 ebx
  00105	8b e5		 mov	 esp, ebp
  00107	5d		 pop	 ebp
  00108	c2 08 00	 ret	 8
$L207474:

; 1459 : 			_CATCH_ALL
; 1460 : 			_Tidy(true);	// failed again, discard storage and reraise

  0010b	8b 75 ec	 mov	 esi, DWORD PTR _this$[ebp]
  0010e	83 7e 18 10	 cmp	 DWORD PTR [esi+24], 16	; 00000010H
  00112	72 0c		 jb	 SHORT $L207573
  00114	8b 56 04	 mov	 edx, DWORD PTR [esi+4]
  00117	52		 push	 edx
  00118	e8 00 00 00 00	 call	 ??3@YAXPAX@Z		; operator delete
  0011d	83 c4 04	 add	 esp, 4
$L207573:

; 1461 : 			_RERAISE;

  00120	6a 00		 push	 0
  00122	c7 46 18 0f 00
	00 00		 mov	 DWORD PTR [esi+24], 15	; 0000000fH
  00129	c7 46 14 00 00
	00 00		 mov	 DWORD PTR [esi+20], 0
  00130	6a 00		 push	 0
  00132	c6 46 04 00	 mov	 BYTE PTR [esi+4], 0
  00136	e8 00 00 00 00	 call	 __CxxThrowException@8
$L207670:
  0013b	cc		 int	 3
_TEXT	ENDS
;	COMDAT text$x
text$x	SEGMENT
__ehhandler$?_Copy@?$basic_string@DU?$char_traits@D@std@@V?$allocator@D@2@@std@@IAEXII@Z:
  00000	b8 00 00 00 00	 mov	 eax, OFFSET FLAT:$T207666
  00005	e9 00 00 00 00	 jmp	 ___CxxFrameHandler
text$x	ENDS
?_Copy@?$basic_string@DU?$char_traits@D@std@@V?$allocator@D@2@@std@@IAEXII@Z ENDP ; std::basic_string<char,std::char_traits<char>,std::allocator<char> >::_Copy
PUBLIC	??0_QUIZLIST@CQuiz@@QAE@XZ			; CQuiz::_QUIZLIST::_QUIZLIST
; Function compile flags: /Ogty
;	COMDAT ??0_QUIZLIST@CQuiz@@QAE@XZ
_TEXT	SEGMENT
??0_QUIZLIST@CQuiz@@QAE@XZ PROC NEAR			; CQuiz::_QUIZLIST::_QUIZLIST, COMDAT
; _this$ = ecx
  00000	56		 push	 esi
  00001	8b f1		 mov	 esi, ecx
  00003	8d 4e 04	 lea	 ecx, DWORD PTR [esi+4]
  00006	e8 00 00 00 00	 call	 ??0?$CStringT@DV?$StrTraitMFC@DV?$ChTraitsCRT@D@ATL@@@@@ATL@@QAE@XZ ; ATL::CStringT<char,StrTraitMFC<char,ATL::ChTraitsCRT<char> > >::CStringT<char,StrTraitMFC<char,ATL::ChTraitsCRT<char> > >
  0000b	8b c6		 mov	 eax, esi
  0000d	5e		 pop	 esi
  0000e	c3		 ret	 0
??0_QUIZLIST@CQuiz@@QAE@XZ ENDP				; CQuiz::_QUIZLIST::_QUIZLIST
_TEXT	ENDS
PUBLIC	??1_QUIZLIST@CQuiz@@QAE@XZ			; CQuiz::_QUIZLIST::~_QUIZLIST
; Function compile flags: /Ogty
;	COMDAT ??1_QUIZLIST@CQuiz@@QAE@XZ
_TEXT	SEGMENT
??1_QUIZLIST@CQuiz@@QAE@XZ PROC NEAR			; CQuiz::_QUIZLIST::~_QUIZLIST, COMDAT
; _this$ = ecx
  00000	83 c1 04	 add	 ecx, 4
  00003	e9 00 00 00 00	 jmp	 ??1?$CStringT@DV?$StrTraitMFC@DV?$ChTraitsCRT@D@ATL@@@@@ATL@@QAE@XZ ; ATL::CStringT<char,StrTraitMFC<char,ATL::ChTraitsCRT<char> > >::~CStringT<char,StrTraitMFC<char,ATL::ChTraitsCRT<char> > >
??1_QUIZLIST@CQuiz@@QAE@XZ ENDP				; CQuiz::_QUIZLIST::~_QUIZLIST
_TEXT	ENDS
PUBLIC	?clear@?$_Tree@V?$_Tmap_traits@KU_WORLDDATA@CQuizDBCtrl@@U?$less@K@std@@V?$allocator@U?$pair@$$CBKU_WORLDDATA@CQuizDBCtrl@@@std@@@4@$0A@@std@@@std@@QAEXXZ ; std::_Tree<std::_Tmap_traits<unsigned long,CQuizDBCtrl::_WORLDDATA,std::less<unsigned long>,std::allocator<std::pair<unsigned long const ,CQuizDBCtrl::_WORLDDATA> >,0> >::clear
; Function compile flags: /Ogty
; File c:\program files\microsoft visual studio .net 2003\vc7\include\xtree
;	COMDAT ?clear@?$_Tree@V?$_Tmap_traits@KU_WORLDDATA@CQuizDBCtrl@@U?$less@K@std@@V?$allocator@U?$pair@$$CBKU_WORLDDATA@CQuizDBCtrl@@@std@@@4@$0A@@std@@@std@@QAEXXZ
_TEXT	SEGMENT
?clear@?$_Tree@V?$_Tmap_traits@KU_WORLDDATA@CQuizDBCtrl@@U?$less@K@std@@V?$allocator@U?$pair@$$CBKU_WORLDDATA@CQuizDBCtrl@@@std@@@4@$0A@@std@@@std@@QAEXXZ PROC NEAR ; std::_Tree<std::_Tmap_traits<unsigned long,CQuizDBCtrl::_WORLDDATA,std::less<unsigned long>,std::allocator<std::pair<unsigned long const ,CQuizDBCtrl::_WORLDDATA> >,0> >::clear, COMDAT
; _this$ = ecx

; 780  : 		{	// erase all

  00000	56		 push	 esi
  00001	8b f1		 mov	 esi, ecx

; 781  : 		_Erase(_Root());

  00003	8b 46 04	 mov	 eax, DWORD PTR [esi+4]
  00006	8b 48 04	 mov	 ecx, DWORD PTR [eax+4]
  00009	51		 push	 ecx
  0000a	8b ce		 mov	 ecx, esi
  0000c	e8 00 00 00 00	 call	 ?_Erase@?$_Tree@V?$_Tmap_traits@KU_WORLDDATA@CQuizDBCtrl@@U?$less@K@std@@V?$allocator@U?$pair@$$CBKU_WORLDDATA@CQuizDBCtrl@@@std@@@4@$0A@@std@@@std@@IAEXPAU_Node@?$_Tree_nod@V?$_Tmap_traits@KU_WORLDDATA@CQuizDBCtrl@@U?$less@K@std@@V?$allocator@U?$pair@$$CBKU_WORLDDATA@CQuizDBCtrl@@@std@@@4@$0A@@std@@@2@@Z ; std::_Tree<std::_Tmap_traits<unsigned long,CQuizDBCtrl::_WORLDDATA,std::less<unsigned long>,std::allocator<std::pair<unsigned long const ,CQuizDBCtrl::_WORLDDATA> >,0> >::_Erase

; 782  : 		_Root() = _Myhead, _Mysize = 0;

  00011	8b 46 04	 mov	 eax, DWORD PTR [esi+4]
  00014	89 40 04	 mov	 DWORD PTR [eax+4], eax

; 783  : 		_Lmost() = _Myhead, _Rmost() = _Myhead;

  00017	8b 46 04	 mov	 eax, DWORD PTR [esi+4]
  0001a	c7 46 08 00 00
	00 00		 mov	 DWORD PTR [esi+8], 0
  00021	89 00		 mov	 DWORD PTR [eax], eax
  00023	8b 76 04	 mov	 esi, DWORD PTR [esi+4]
  00026	89 76 08	 mov	 DWORD PTR [esi+8], esi
  00029	5e		 pop	 esi

; 784  : 		}

  0002a	c3		 ret	 0
?clear@?$_Tree@V?$_Tmap_traits@KU_WORLDDATA@CQuizDBCtrl@@U?$less@K@std@@V?$allocator@U?$pair@$$CBKU_WORLDDATA@CQuizDBCtrl@@@std@@@4@$0A@@std@@@std@@QAEXXZ ENDP ; std::_Tree<std::_Tmap_traits<unsigned long,CQuizDBCtrl::_WORLDDATA,std::less<unsigned long>,std::allocator<std::pair<unsigned long const ,CQuizDBCtrl::_WORLDDATA> >,0> >::clear
_TEXT	ENDS
PUBLIC	?find@?$_Tree@V?$_Tmap_traits@KU_WORLDDATA@CQuizDBCtrl@@U?$less@K@std@@V?$allocator@U?$pair@$$CBKU_WORLDDATA@CQuizDBCtrl@@@std@@@4@$0A@@std@@@std@@QAE?AViterator@12@ABK@Z ; std::_Tree<std::_Tmap_traits<unsigned long,CQuizDBCtrl::_WORLDDATA,std::less<unsigned long>,std::allocator<std::pair<unsigned long const ,CQuizDBCtrl::_WORLDDATA> >,0> >::find
; Function compile flags: /Ogty
;	COMDAT ?find@?$_Tree@V?$_Tmap_traits@KU_WORLDDATA@CQuizDBCtrl@@U?$less@K@std@@V?$allocator@U?$pair@$$CBKU_WORLDDATA@CQuizDBCtrl@@@std@@@4@$0A@@std@@@std@@QAE?AViterator@12@ABK@Z
_TEXT	SEGMENT
$T207720 = -4						; size = 4
___$ReturnUdt$ = 8					; size = 4
__Where$ = 12						; size = 4
__Keyval$ = 12						; size = 4
?find@?$_Tree@V?$_Tmap_traits@KU_WORLDDATA@CQuizDBCtrl@@U?$less@K@std@@V?$allocator@U?$pair@$$CBKU_WORLDDATA@CQuizDBCtrl@@@std@@@4@$0A@@std@@@std@@QAE?AViterator@12@ABK@Z PROC NEAR ; std::_Tree<std::_Tmap_traits<unsigned long,CQuizDBCtrl::_WORLDDATA,std::less<unsigned long>,std::allocator<std::pair<unsigned long const ,CQuizDBCtrl::_WORLDDATA> >,0> >::find, COMDAT
; _this$ = ecx

; 787  : 		{	// find an element in mutable sequence that matches _Keyval

  00000	51		 push	 ecx

; 788  : 		iterator _Where = lower_bound(_Keyval);

  00001	8b 51 04	 mov	 edx, DWORD PTR [ecx+4]
  00004	8b 42 04	 mov	 eax, DWORD PTR [edx+4]
  00007	53		 push	 ebx
  00008	8a 58 2d	 mov	 bl, BYTE PTR [eax+45]
  0000b	84 db		 test	 bl, bl
  0000d	56		 push	 esi
  0000e	57		 push	 edi
  0000f	8b 7c 24 18	 mov	 edi, DWORD PTR __Keyval$[esp+12]
  00013	75 17		 jne	 SHORT $L207797
  00015	8b 37		 mov	 esi, DWORD PTR [edi]
$L207796:
  00017	39 70 0c	 cmp	 DWORD PTR [eax+12], esi
  0001a	73 05		 jae	 SHORT $L207798
  0001c	8b 40 08	 mov	 eax, DWORD PTR [eax+8]
  0001f	eb 04		 jmp	 SHORT $L207799
$L207798:
  00021	8b d0		 mov	 edx, eax
  00023	8b 00		 mov	 eax, DWORD PTR [eax]
$L207799:
  00025	8a 58 2d	 mov	 bl, BYTE PTR [eax+45]
  00028	84 db		 test	 bl, bl
  0002a	74 eb		 je	 SHORT $L207796
$L207797:

; 789  : 		return (_Where == end() || this->comp(_Keyval, _Key(_Where._Mynode()))
; 790  : 			? end() : _Where);

  0002c	8b 41 04	 mov	 eax, DWORD PTR [ecx+4]
  0002f	3b d0		 cmp	 edx, eax
  00031	89 54 24 18	 mov	 DWORD PTR __Where$[esp+12], edx
  00035	74 1a		 je	 SHORT $L207719
  00037	8b 0f		 mov	 ecx, DWORD PTR [edi]
  00039	3b 4a 0c	 cmp	 ecx, DWORD PTR [edx+12]
  0003c	72 13		 jb	 SHORT $L207719
  0003e	8d 44 24 18	 lea	 eax, DWORD PTR __Where$[esp+12]
  00042	8b 10		 mov	 edx, DWORD PTR [eax]
  00044	8b 44 24 14	 mov	 eax, DWORD PTR ___$ReturnUdt$[esp+12]
  00048	5f		 pop	 edi
  00049	5e		 pop	 esi
  0004a	89 10		 mov	 DWORD PTR [eax], edx
  0004c	5b		 pop	 ebx

; 791  : 		}

  0004d	59		 pop	 ecx
  0004e	c2 08 00	 ret	 8
$L207719:

; 789  : 		return (_Where == end() || this->comp(_Keyval, _Key(_Where._Mynode()))
; 790  : 			? end() : _Where);

  00051	89 44 24 0c	 mov	 DWORD PTR $T207720[esp+16], eax
  00055	8d 44 24 0c	 lea	 eax, DWORD PTR $T207720[esp+16]
  00059	8b 10		 mov	 edx, DWORD PTR [eax]
  0005b	8b 44 24 14	 mov	 eax, DWORD PTR ___$ReturnUdt$[esp+12]
  0005f	5f		 pop	 edi
  00060	5e		 pop	 esi
  00061	89 10		 mov	 DWORD PTR [eax], edx
  00063	5b		 pop	 ebx

; 791  : 		}

  00064	59		 pop	 ecx
  00065	c2 08 00	 ret	 8
?find@?$_Tree@V?$_Tmap_traits@KU_WORLDDATA@CQuizDBCtrl@@U?$less@K@std@@V?$allocator@U?$pair@$$CBKU_WORLDDATA@CQuizDBCtrl@@@std@@@4@$0A@@std@@@std@@QAE?AViterator@12@ABK@Z ENDP ; std::_Tree<std::_Tmap_traits<unsigned long,CQuizDBCtrl::_WORLDDATA,std::less<unsigned long>,std::allocator<std::pair<unsigned long const ,CQuizDBCtrl::_WORLDDATA> >,0> >::find
_TEXT	ENDS
PUBLIC	??A?$vector@U_QUIZLIST@CQuiz@@V?$allocator@U_QUIZLIST@CQuiz@@@std@@@std@@QAEAAU_QUIZLIST@CQuiz@@I@Z ; std::vector<CQuiz::_QUIZLIST,std::allocator<CQuiz::_QUIZLIST> >::operator[]
; Function compile flags: /Ogty
; File c:\program files\microsoft visual studio .net 2003\vc7\include\vector
;	COMDAT ??A?$vector@U_QUIZLIST@CQuiz@@V?$allocator@U_QUIZLIST@CQuiz@@@std@@@std@@QAEAAU_QUIZLIST@CQuiz@@I@Z
_TEXT	SEGMENT
__Pos$ = 8						; size = 4
??A?$vector@U_QUIZLIST@CQuiz@@V?$allocator@U_QUIZLIST@CQuiz@@@std@@@std@@QAEAAU_QUIZLIST@CQuiz@@I@Z PROC NEAR ; std::vector<CQuiz::_QUIZLIST,std::allocator<CQuiz::_QUIZLIST> >::operator[], COMDAT
; _this$ = ecx

; 555  : 		return (*(begin() + _Pos));

  00000	8b 44 24 04	 mov	 eax, DWORD PTR __Pos$[esp-4]
  00004	8b 49 04	 mov	 ecx, DWORD PTR [ecx+4]
  00007	8d 04 80	 lea	 eax, DWORD PTR [eax+eax*4]
  0000a	8d 04 81	 lea	 eax, DWORD PTR [ecx+eax*4]

; 556  : 		}

  0000d	c2 04 00	 ret	 4
??A?$vector@U_QUIZLIST@CQuiz@@V?$allocator@U_QUIZLIST@CQuiz@@@std@@@std@@QAEAAU_QUIZLIST@CQuiz@@I@Z ENDP ; std::vector<CQuiz::_QUIZLIST,std::allocator<CQuiz::_QUIZLIST> >::operator[]
_TEXT	ENDS
PUBLIC	?_Init@?$_Tree@V?$_Tmap_traits@KU_WORLDDATA@CQuizDBCtrl@@U?$less@K@std@@V?$allocator@U?$pair@$$CBKU_WORLDDATA@CQuizDBCtrl@@@std@@@4@$0A@@std@@@std@@IAEXXZ ; std::_Tree<std::_Tmap_traits<unsigned long,CQuizDBCtrl::_WORLDDATA,std::less<unsigned long>,std::allocator<std::pair<unsigned long const ,CQuizDBCtrl::_WORLDDATA> >,0> >::_Init
; Function compile flags: /Ogty
; File c:\program files\microsoft visual studio .net 2003\vc7\include\xtree
;	COMDAT ?_Init@?$_Tree@V?$_Tmap_traits@KU_WORLDDATA@CQuizDBCtrl@@U?$less@K@std@@V?$allocator@U?$pair@$$CBKU_WORLDDATA@CQuizDBCtrl@@@std@@@4@$0A@@std@@@std@@IAEXXZ
_TEXT	SEGMENT
?_Init@?$_Tree@V?$_Tmap_traits@KU_WORLDDATA@CQuizDBCtrl@@U?$less@K@std@@V?$allocator@U?$pair@$$CBKU_WORLDDATA@CQuizDBCtrl@@@std@@@4@$0A@@std@@@std@@IAEXXZ PROC NEAR ; std::_Tree<std::_Tmap_traits<unsigned long,CQuizDBCtrl::_WORLDDATA,std::less<unsigned long>,std::allocator<std::pair<unsigned long const ,CQuizDBCtrl::_WORLDDATA> >,0> >::_Init, COMDAT
; _this$ = ecx

; 901  : 		{	// create head/nil node and make tree empty

  00000	56		 push	 esi
  00001	8b f1		 mov	 esi, ecx

; 902  : 		_Myhead = _Buynode();

  00003	e8 00 00 00 00	 call	 ?_Buynode@?$_Tree@V?$_Tmap_traits@KU_WORLDDATA@CQuizDBCtrl@@U?$less@K@std@@V?$allocator@U?$pair@$$CBKU_WORLDDATA@CQuizDBCtrl@@@std@@@4@$0A@@std@@@std@@IAEPAU_Node@?$_Tree_nod@V?$_Tmap_traits@KU_WORLDDATA@CQuizDBCtrl@@U?$less@K@std@@V?$allocator@U?$pair@$$CBKU_WORLDDATA@CQuizDBCtrl@@@std@@@4@$0A@@std@@@2@XZ ; std::_Tree<std::_Tmap_traits<unsigned long,CQuizDBCtrl::_WORLDDATA,std::less<unsigned long>,std::allocator<std::pair<unsigned long const ,CQuizDBCtrl::_WORLDDATA> >,0> >::_Buynode
  00008	89 46 04	 mov	 DWORD PTR [esi+4], eax

; 903  : 		_Isnil(_Myhead) = true;

  0000b	c6 40 2d 01	 mov	 BYTE PTR [eax+45], 1

; 904  : 		_Root() = _Myhead;

  0000f	8b 46 04	 mov	 eax, DWORD PTR [esi+4]
  00012	89 40 04	 mov	 DWORD PTR [eax+4], eax

; 905  : 		_Lmost() = _Myhead, _Rmost() = _Myhead;

  00015	8b 46 04	 mov	 eax, DWORD PTR [esi+4]
  00018	89 00		 mov	 DWORD PTR [eax], eax
  0001a	8b 46 04	 mov	 eax, DWORD PTR [esi+4]
  0001d	89 40 08	 mov	 DWORD PTR [eax+8], eax

; 906  : 		_Mysize = 0;

  00020	c7 46 08 00 00
	00 00		 mov	 DWORD PTR [esi+8], 0
  00027	5e		 pop	 esi

; 907  : 		}

  00028	c3		 ret	 0
?_Init@?$_Tree@V?$_Tmap_traits@KU_WORLDDATA@CQuizDBCtrl@@U?$less@K@std@@V?$allocator@U?$pair@$$CBKU_WORLDDATA@CQuizDBCtrl@@@std@@@4@$0A@@std@@@std@@IAEXXZ ENDP ; std::_Tree<std::_Tmap_traits<unsigned long,CQuizDBCtrl::_WORLDDATA,std::less<unsigned long>,std::allocator<std::pair<unsigned long const ,CQuizDBCtrl::_WORLDDATA> >,0> >::_Init
_TEXT	ENDS
PUBLIC	??0?$_Tree_val@V?$_Tmap_traits@KU_WORLDDATA@CQuizDBCtrl@@U?$less@K@std@@V?$allocator@U?$pair@$$CBKU_WORLDDATA@CQuizDBCtrl@@@std@@@4@$0A@@std@@@std@@IAE@ABU?$less@K@1@V?$allocator@U?$pair@$$CBKU_WORLDDATA@CQuizDBCtrl@@@std@@@1@@Z ; std::_Tree_val<std::_Tmap_traits<unsigned long,CQuizDBCtrl::_WORLDDATA,std::less<unsigned long>,std::allocator<std::pair<unsigned long const ,CQuizDBCtrl::_WORLDDATA> >,0> >::_Tree_val<std::_Tmap_traits<unsigned long,CQuizDBCtrl::_WORLDDATA,std::less<unsigned long>,std::allocator<std::pair<unsigned long const ,CQuizDBCtrl::_WORLDDATA> >,0> >
; Function compile flags: /Ogty
;	COMDAT ??0?$_Tree_val@V?$_Tmap_traits@KU_WORLDDATA@CQuizDBCtrl@@U?$less@K@std@@V?$allocator@U?$pair@$$CBKU_WORLDDATA@CQuizDBCtrl@@@std@@@4@$0A@@std@@@std@@IAE@ABU?$less@K@1@V?$allocator@U?$pair@$$CBKU_WORLDDATA@CQuizDBCtrl@@@std@@@1@@Z
_TEXT	SEGMENT
__Parg$ = 8						; size = 4
__Al$ = 12						; size = 1
??0?$_Tree_val@V?$_Tmap_traits@KU_WORLDDATA@CQuizDBCtrl@@U?$less@K@std@@V?$allocator@U?$pair@$$CBKU_WORLDDATA@CQuizDBCtrl@@@std@@@4@$0A@@std@@@std@@IAE@ABU?$less@K@1@V?$allocator@U?$pair@$$CBKU_WORLDDATA@CQuizDBCtrl@@@std@@@1@@Z PROC NEAR ; std::_Tree_val<std::_Tmap_traits<unsigned long,CQuizDBCtrl::_WORLDDATA,std::less<unsigned long>,std::allocator<std::pair<unsigned long const ,CQuizDBCtrl::_WORLDDATA> >,0> >::_Tree_val<std::_Tmap_traits<unsigned long,CQuizDBCtrl::_WORLDDATA,std::less<unsigned long>,std::allocator<std::pair<unsigned long const ,CQuizDBCtrl::_WORLDDATA> >,0> >, COMDAT
; _this$ = ecx

; 95   : 		{	// construct base, and allocator from _Al

  00000	8b c1		 mov	 eax, ecx

; 96   : 		}

  00002	c2 08 00	 ret	 8
??0?$_Tree_val@V?$_Tmap_traits@KU_WORLDDATA@CQuizDBCtrl@@U?$less@K@std@@V?$allocator@U?$pair@$$CBKU_WORLDDATA@CQuizDBCtrl@@@std@@@4@$0A@@std@@@std@@IAE@ABU?$less@K@1@V?$allocator@U?$pair@$$CBKU_WORLDDATA@CQuizDBCtrl@@@std@@@1@@Z ENDP ; std::_Tree_val<std::_Tmap_traits<unsigned long,CQuizDBCtrl::_WORLDDATA,std::less<unsigned long>,std::allocator<std::pair<unsigned long const ,CQuizDBCtrl::_WORLDDATA> >,0> >::_Tree_val<std::_Tmap_traits<unsigned long,CQuizDBCtrl::_WORLDDATA,std::less<unsigned long>,std::allocator<std::pair<unsigned long const ,CQuizDBCtrl::_WORLDDATA> >,0> >
_TEXT	ENDS
PUBLIC	??_G_QUIZLIST@CQuiz@@QAEPAXI@Z			; CQuiz::_QUIZLIST::`scalar deleting destructor'
; Function compile flags: /Ogty
;	COMDAT ??_G_QUIZLIST@CQuiz@@QAEPAXI@Z
_TEXT	SEGMENT
___flags$ = 8						; size = 4
??_G_QUIZLIST@CQuiz@@QAEPAXI@Z PROC NEAR		; CQuiz::_QUIZLIST::`scalar deleting destructor', COMDAT
; _this$ = ecx
  00000	56		 push	 esi
  00001	8b f1		 mov	 esi, ecx
  00003	e8 00 00 00 00	 call	 ??1_QUIZLIST@CQuiz@@QAE@XZ
  00008	f6 44 24 08 01	 test	 BYTE PTR ___flags$[esp], 1
  0000d	74 09		 je	 SHORT $L207994
  0000f	56		 push	 esi
  00010	e8 00 00 00 00	 call	 ??3@YAXPAX@Z		; operator delete
  00015	83 c4 04	 add	 esp, 4
$L207994:
  00018	8b c6		 mov	 eax, esi
  0001a	5e		 pop	 esi
  0001b	c2 04 00	 ret	 4
??_G_QUIZLIST@CQuiz@@QAEPAXI@Z ENDP			; CQuiz::_QUIZLIST::`scalar deleting destructor'
_TEXT	ENDS
PUBLIC	??0?$CStringT@DV?$StrTraitMFC@DV?$ChTraitsCRT@D@ATL@@@@@ATL@@QAE@ABV01@@Z ; ATL::CStringT<char,StrTraitMFC<char,ATL::ChTraitsCRT<char> > >::CStringT<char,StrTraitMFC<char,ATL::ChTraitsCRT<char> > >
; Function compile flags: /Ogty
; File c:\program files\microsoft visual studio .net 2003\vc7\atlmfc\include\cstringt.h
;	COMDAT ??0?$CStringT@DV?$StrTraitMFC@DV?$ChTraitsCRT@D@ATL@@@@@ATL@@QAE@ABV01@@Z
_TEXT	SEGMENT
_strSrc$ = 8						; size = 4
??0?$CStringT@DV?$StrTraitMFC@DV?$ChTraitsCRT@D@ATL@@@@@ATL@@QAE@ABV01@@Z PROC NEAR ; ATL::CStringT<char,StrTraitMFC<char,ATL::ChTraitsCRT<char> > >::CStringT<char,StrTraitMFC<char,ATL::ChTraitsCRT<char> > >, COMDAT
; _this$ = ecx

; 814  : 	{

  00000	8b 44 24 04	 mov	 eax, DWORD PTR _strSrc$[esp-4]
  00004	8b 00		 mov	 eax, DWORD PTR [eax]
  00006	56		 push	 esi
  00007	83 e8 10	 sub	 eax, 16			; 00000010H
  0000a	50		 push	 eax
  0000b	8b f1		 mov	 esi, ecx
  0000d	e8 00 00 00 00	 call	 ?CloneData@?$CSimpleStringT@D$0A@@ATL@@CAPAUCStringData@2@PAU32@@Z ; ATL::CSimpleStringT<char,0>::CloneData
  00012	83 c0 10	 add	 eax, 16			; 00000010H
  00015	89 06		 mov	 DWORD PTR [esi], eax
  00017	83 c4 04	 add	 esp, 4

; 815  : 	}

  0001a	8b c6		 mov	 eax, esi
  0001c	5e		 pop	 esi
  0001d	c2 04 00	 ret	 4
??0?$CStringT@DV?$StrTraitMFC@DV?$ChTraitsCRT@D@ATL@@@@@ATL@@QAE@ABV01@@Z ENDP ; ATL::CStringT<char,StrTraitMFC<char,ATL::ChTraitsCRT<char> > >::CStringT<char,StrTraitMFC<char,ATL::ChTraitsCRT<char> > >
_TEXT	ENDS
PUBLIC	?GetBuffer@?$CSimpleStringT@D$0A@@ATL@@QAEPADH@Z ; ATL::CSimpleStringT<char,0>::GetBuffer
; Function compile flags: /Ogty
; File c:\program files\microsoft visual studio .net 2003\vc7\atlmfc\include\atlsimpstr.h
;	COMDAT ?GetBuffer@?$CSimpleStringT@D$0A@@ATL@@QAEPADH@Z
_TEXT	SEGMENT
_nMinBufferLength$ = 8					; size = 4
?GetBuffer@?$CSimpleStringT@D$0A@@ATL@@QAEPADH@Z PROC NEAR ; ATL::CSimpleStringT<char,0>::GetBuffer, COMDAT
; _this$ = ecx

; 489  : 	{

  00000	56		 push	 esi
  00001	8b f1		 mov	 esi, ecx

; 490  : 		return( PrepareWrite( nMinBufferLength ) );

  00003	8b 06		 mov	 eax, DWORD PTR [esi]
  00005	8b 50 fc	 mov	 edx, DWORD PTR [eax-4]
  00008	83 e8 10	 sub	 eax, 16			; 00000010H
  0000b	b9 01 00 00 00	 mov	 ecx, 1
  00010	2b ca		 sub	 ecx, edx
  00012	8b 50 08	 mov	 edx, DWORD PTR [eax+8]
  00015	8b 44 24 08	 mov	 eax, DWORD PTR _nMinBufferLength$[esp]
  00019	2b d0		 sub	 edx, eax
  0001b	0b ca		 or	 ecx, edx
  0001d	7d 08		 jge	 SHORT $L208035
  0001f	50		 push	 eax
  00020	8b ce		 mov	 ecx, esi
  00022	e8 00 00 00 00	 call	 ?PrepareWrite2@?$CSimpleStringT@D$0A@@ATL@@AAEXH@Z ; ATL::CSimpleStringT<char,0>::PrepareWrite2
$L208035:
  00027	8b 06		 mov	 eax, DWORD PTR [esi]
  00029	5e		 pop	 esi

; 491  : 	}

  0002a	c2 04 00	 ret	 4
?GetBuffer@?$CSimpleStringT@D$0A@@ATL@@QAEPADH@Z ENDP	; ATL::CSimpleStringT<char,0>::GetBuffer
_TEXT	ENDS
PUBLIC	??1?$basic_string@DU?$char_traits@D@std@@V?$allocator@D@2@@std@@QAE@XZ ; std::basic_string<char,std::char_traits<char>,std::allocator<char> >::~basic_string<char,std::char_traits<char>,std::allocator<char> >
; Function compile flags: /Ogty
; File c:\program files\microsoft visual studio .net 2003\vc7\include\xstring
;	COMDAT ??1?$basic_string@DU?$char_traits@D@std@@V?$allocator@D@2@@std@@QAE@XZ
_TEXT	SEGMENT
??1?$basic_string@DU?$char_traits@D@std@@V?$allocator@D@2@@std@@QAE@XZ PROC NEAR ; std::basic_string<char,std::char_traits<char>,std::allocator<char> >::~basic_string<char,std::char_traits<char>,std::allocator<char> >, COMDAT
; _this$ = ecx

; 456  : 		{	// destroy the string

  00000	56		 push	 esi
  00001	8b f1		 mov	 esi, ecx

; 457  : 		_Tidy(true);

  00003	83 7e 18 10	 cmp	 DWORD PTR [esi+24], 16	; 00000010H
  00007	72 0c		 jb	 SHORT $L208078
  00009	8b 46 04	 mov	 eax, DWORD PTR [esi+4]
  0000c	50		 push	 eax
  0000d	e8 00 00 00 00	 call	 ??3@YAXPAX@Z		; operator delete
  00012	83 c4 04	 add	 esp, 4
$L208078:
  00015	33 c0		 xor	 eax, eax
  00017	c7 46 18 0f 00
	00 00		 mov	 DWORD PTR [esi+24], 15	; 0000000fH
  0001e	89 46 14	 mov	 DWORD PTR [esi+20], eax
  00021	88 46 04	 mov	 BYTE PTR [esi+4], al
  00024	5e		 pop	 esi

; 458  : 		}

  00025	c3		 ret	 0
??1?$basic_string@DU?$char_traits@D@std@@V?$allocator@D@2@@std@@QAE@XZ ENDP ; std::basic_string<char,std::char_traits<char>,std::allocator<char> >::~basic_string<char,std::char_traits<char>,std::allocator<char> >
_TEXT	ENDS
PUBLIC	?SetString@?$CSimpleStringT@D$0A@@ATL@@QAEXPBDH@Z ; ATL::CSimpleStringT<char,0>::SetString
; Function compile flags: /Ogty
; File c:\program files\microsoft visual studio .net 2003\vc7\atlmfc\include\atlsimpstr.h
;	COMDAT ?SetString@?$CSimpleStringT@D$0A@@ATL@@QAEXPBDH@Z
_TEXT	SEGMENT
_pszSrc$ = 8						; size = 4
_nLength$ = 12						; size = 4
?SetString@?$CSimpleStringT@D$0A@@ATL@@QAEXPBDH@Z PROC NEAR ; ATL::CSimpleStringT<char,0>::SetString, COMDAT
; _this$ = ecx

; 583  : 	{

  00000	53		 push	 ebx

; 584  : 		if( nLength == 0 )

  00001	8b 5c 24 0c	 mov	 ebx, DWORD PTR _nLength$[esp]
  00005	85 db		 test	 ebx, ebx
  00007	55		 push	 ebp
  00008	8b e9		 mov	 ebp, ecx
  0000a	75 0a		 jne	 SHORT $L184946

; 585  : 		{
; 586  : 			Empty();

  0000c	e8 00 00 00 00	 call	 ?Empty@?$CSimpleStringT@D$0A@@ATL@@QAEXXZ ; ATL::CSimpleStringT<char,0>::Empty
  00011	5d		 pop	 ebp
  00012	5b		 pop	 ebx

; 614  : 		}
; 615  : 	}

  00013	c2 08 00	 ret	 8
$L184946:

; 587  : 		}
; 588  : 		else
; 589  : 		{
; 590  : 			// It is possible that pszSrc points to a location inside of our 
; 591  : 			// buffer.  GetBuffer() might change m_pszData if (1) the buffer 
; 592  : 			// is shared or (2) the buffer is too small to hold the new 
; 593  : 			// string.  We detect this aliasing, and modify pszSrc to point
; 594  : 			// into the newly allocated buffer instead.
; 595  : 			
; 596  : 			if(pszSrc == NULL)

  00016	8b 54 24 0c	 mov	 edx, DWORD PTR _pszSrc$[esp+4]
  0001a	85 d2		 test	 edx, edx
  0001c	75 0a		 jne	 SHORT $L184948

; 612  : 			}
; 613  : 			ReleaseBufferSetLength( nLength );

$L208158:
  0001e	68 57 00 07 80	 push	 -2147024809		; 80070057H
  00023	e8 00 00 00 00	 call	 ?AtlThrow@ATL@@YGXJ@Z	; ATL::AtlThrow
$L184948:

; 597  : 				AtlThrow(E_INVALIDARG);			
; 598  : 				
; 599  : 			UINT nOldLength = GetLength();

  00028	8b 45 00	 mov	 eax, DWORD PTR [ebp]
  0002b	56		 push	 esi

; 600  : 			UINT_PTR nOffset = pszSrc-GetString();

  0002c	8b f2		 mov	 esi, edx
  0002e	2b f0		 sub	 esi, eax

; 601  : 			// If 0 <= nOffset <= nOldLength, then pszSrc points into our 
; 602  : 			// buffer
; 603  : 
; 604  : 			PXSTR pszBuffer = GetBuffer( nLength );

  00030	b9 01 00 00 00	 mov	 ecx, 1
  00035	2b 48 fc	 sub	 ecx, DWORD PTR [eax-4]
  00038	57		 push	 edi
  00039	8b 78 f4	 mov	 edi, DWORD PTR [eax-12]
  0003c	8b 40 f8	 mov	 eax, DWORD PTR [eax-8]
  0003f	2b c3		 sub	 eax, ebx
  00041	0b c8		 or	 ecx, eax
  00043	7d 0c		 jge	 SHORT $L208125
  00045	53		 push	 ebx
  00046	8b cd		 mov	 ecx, ebp
  00048	e8 00 00 00 00	 call	 ?PrepareWrite2@?$CSimpleStringT@D$0A@@ATL@@AAEXH@Z ; ATL::CSimpleStringT<char,0>::PrepareWrite2
  0004d	8b 54 24 14	 mov	 edx, DWORD PTR _pszSrc$[esp+12]
$L208125:

; 605  : 			if( nOffset <= nOldLength )

  00051	3b f7		 cmp	 esi, edi
  00053	8b 45 00	 mov	 eax, DWORD PTR [ebp]
  00056	77 10		 ja	 SHORT $L184953

; 606  : 			{
; 607  : 				CopyCharsOverlapped( pszBuffer, pszBuffer+nOffset, nLength );

  00058	53		 push	 ebx
  00059	8d 0c 30	 lea	 ecx, DWORD PTR [eax+esi]
  0005c	51		 push	 ecx
  0005d	50		 push	 eax
  0005e	e8 00 00 00 00	 call	 _memmove
  00063	83 c4 0c	 add	 esp, 12			; 0000000cH

; 608  : 			}
; 609  : 			else

  00066	eb 14		 jmp	 SHORT $L208131
$L184953:

; 610  : 			{
; 611  : 				CopyChars( pszBuffer, pszSrc, nLength );

  00068	8b cb		 mov	 ecx, ebx
  0006a	8b f2		 mov	 esi, edx
  0006c	8b d1		 mov	 edx, ecx
  0006e	c1 e9 02	 shr	 ecx, 2
  00071	8b f8		 mov	 edi, eax
  00073	f3 a5		 rep movsd
  00075	8b ca		 mov	 ecx, edx
  00077	83 e1 03	 and	 ecx, 3
  0007a	f3 a4		 rep movsb
$L208131:

; 612  : 			}
; 613  : 			ReleaseBufferSetLength( nLength );

  0007c	85 db		 test	 ebx, ebx
  0007e	5f		 pop	 edi
  0007f	5e		 pop	 esi
  00080	7c 9c		 jl	 SHORT $L208158
  00082	8b 45 00	 mov	 eax, DWORD PTR [ebp]
  00085	3b 58 f8	 cmp	 ebx, DWORD PTR [eax-8]
  00088	7f 94		 jg	 SHORT $L208158
  0008a	89 58 f4	 mov	 DWORD PTR [eax-12], ebx
  0008d	8b 45 00	 mov	 eax, DWORD PTR [ebp]
  00090	5d		 pop	 ebp
  00091	c6 04 03 00	 mov	 BYTE PTR [ebx+eax], 0
  00095	5b		 pop	 ebx

; 614  : 		}
; 615  : 	}

  00096	c2 08 00	 ret	 8
$L208161:
?SetString@?$CSimpleStringT@D$0A@@ATL@@QAEXPBDH@Z ENDP	; ATL::CSimpleStringT<char,0>::SetString
_TEXT	ENDS
PUBLIC	?_Grow@?$basic_string@DU?$char_traits@D@std@@V?$allocator@D@2@@std@@IAE_NI_N@Z ; std::basic_string<char,std::char_traits<char>,std::allocator<char> >::_Grow
EXTRN	?_Xlen@_String_base@std@@QBEXXZ:NEAR		; std::_String_base::_Xlen
; Function compile flags: /Ogty
; File c:\program files\microsoft visual studio .net 2003\vc7\include\xstring
;	COMDAT ?_Grow@?$basic_string@DU?$char_traits@D@std@@V?$allocator@D@2@@std@@IAE_NI_N@Z
_TEXT	SEGMENT
__Newsize$ = 8						; size = 4
__Trim$ = 12						; size = 1
?_Grow@?$basic_string@DU?$char_traits@D@std@@V?$allocator@D@2@@std@@IAE_NI_N@Z PROC NEAR ; std::basic_string<char,std::char_traits<char>,std::allocator<char> >::_Grow, COMDAT
; _this$ = ecx

; 1480 : 		{	// ensure buffer is big enough, trim to size if _Trim is true

  00000	55		 push	 ebp
  00001	56		 push	 esi

; 1481 : 		if (max_size() < _Newsize)

  00002	8b 74 24 0c	 mov	 esi, DWORD PTR __Newsize$[esp+4]
  00006	83 fe fe	 cmp	 esi, -2			; fffffffeH
  00009	8b e9		 mov	 ebp, ecx
  0000b	76 05		 jbe	 SHORT $L185002

; 1482 : 			_String_base::_Xlen();	// result too long

  0000d	e8 00 00 00 00	 call	 ?_Xlen@_String_base@std@@QBEXXZ ; std::_String_base::_Xlen
$L185002:

; 1483 : 		if (_Myres < _Newsize)

  00012	8b 45 18	 mov	 eax, DWORD PTR [ebp+24]
  00015	3b c6		 cmp	 eax, esi
  00017	73 19		 jae	 SHORT $L185003

; 1484 : 			_Copy(_Newsize, _Mysize);	// reallocate to grow

  00019	8b 45 14	 mov	 eax, DWORD PTR [ebp+20]
  0001c	50		 push	 eax
  0001d	56		 push	 esi
  0001e	8b cd		 mov	 ecx, ebp
  00020	e8 00 00 00 00	 call	 ?_Copy@?$basic_string@DU?$char_traits@D@std@@V?$allocator@D@2@@std@@IAEXII@Z ; std::basic_string<char,std::char_traits<char>,std::allocator<char> >::_Copy

; 1490 : 		return (0 < _Newsize);	// return true only if more work to do

  00025	33 c0		 xor	 eax, eax
  00027	3b c6		 cmp	 eax, esi
  00029	1b c0		 sbb	 eax, eax
  0002b	5e		 pop	 esi
  0002c	f7 d8		 neg	 eax
  0002e	5d		 pop	 ebp

; 1491 : 		}

  0002f	c2 08 00	 ret	 8
$L185003:

; 1485 : 		else if (_Trim && _Newsize < _BUF_SIZE)

  00032	8a 4c 24 10	 mov	 cl, BYTE PTR __Trim$[esp+4]
  00036	84 c9		 test	 cl, cl
  00038	74 5c		 je	 SHORT $L185005
  0003a	83 fe 10	 cmp	 esi, 16			; 00000010H
  0003d	73 57		 jae	 SHORT $L185005
  0003f	53		 push	 ebx

; 1486 : 			_Tidy(true,	// copy and deallocate if trimming to small string
; 1487 : 				_Newsize < _Mysize ? _Newsize : _Mysize);

  00040	8b 5d 14	 mov	 ebx, DWORD PTR [ebp+20]
  00043	3b f3		 cmp	 esi, ebx
  00045	73 02		 jae	 SHORT $L208165
  00047	8b de		 mov	 ebx, esi
$L208165:
  00049	83 f8 10	 cmp	 eax, 16			; 00000010H
  0004c	72 2b		 jb	 SHORT $L208226
  0004e	85 db		 test	 ebx, ebx
  00050	8b 45 04	 mov	 eax, DWORD PTR [ebp+4]
  00053	57		 push	 edi
  00054	8d 7d 04	 lea	 edi, DWORD PTR [ebp+4]
  00057	76 16		 jbe	 SHORT $L208224
  00059	8b cb		 mov	 ecx, ebx
  0005b	8b d1		 mov	 edx, ecx
  0005d	c1 e9 02	 shr	 ecx, 2
  00060	8b f0		 mov	 esi, eax
  00062	f3 a5		 rep movsd
  00064	8b ca		 mov	 ecx, edx
  00066	83 e1 03	 and	 ecx, 3
  00069	f3 a4		 rep movsb
  0006b	8b 74 24 14	 mov	 esi, DWORD PTR __Newsize$[esp+12]
$L208224:
  0006f	50		 push	 eax
  00070	e8 00 00 00 00	 call	 ??3@YAXPAX@Z		; operator delete
  00075	83 c4 04	 add	 esp, 4
  00078	5f		 pop	 edi
$L208226:
  00079	89 5d 14	 mov	 DWORD PTR [ebp+20], ebx

; 1490 : 		return (0 < _Newsize);	// return true only if more work to do

  0007c	33 c0		 xor	 eax, eax
  0007e	c7 45 18 0f 00
	00 00		 mov	 DWORD PTR [ebp+24], 15	; 0000000fH
  00085	c6 44 2b 04 00	 mov	 BYTE PTR [ebx+ebp+4], 0
  0008a	3b c6		 cmp	 eax, esi
  0008c	5b		 pop	 ebx
  0008d	1b c0		 sbb	 eax, eax
  0008f	5e		 pop	 esi
  00090	f7 d8		 neg	 eax
  00092	5d		 pop	 ebp

; 1491 : 		}

  00093	c2 08 00	 ret	 8
$L185005:

; 1488 : 		else if (_Newsize == 0)

  00096	85 f6		 test	 esi, esi
  00098	75 23		 jne	 SHORT $L208256

; 1489 : 			_Eos(0);	// new size is zero, just null terminate

  0009a	83 f8 10	 cmp	 eax, 16			; 00000010H
  0009d	89 75 14	 mov	 DWORD PTR [ebp+20], esi
  000a0	72 14		 jb	 SHORT $L208252
  000a2	8b 6d 04	 mov	 ebp, DWORD PTR [ebp+4]

; 1490 : 		return (0 < _Newsize);	// return true only if more work to do

  000a5	33 c0		 xor	 eax, eax
  000a7	3b c6		 cmp	 eax, esi
  000a9	1b c0		 sbb	 eax, eax
  000ab	5e		 pop	 esi
  000ac	c6 45 00 00	 mov	 BYTE PTR [ebp], 0
  000b0	f7 d8		 neg	 eax
  000b2	5d		 pop	 ebp

; 1491 : 		}

  000b3	c2 08 00	 ret	 8

; 1489 : 			_Eos(0);	// new size is zero, just null terminate

$L208252:
  000b6	83 c5 04	 add	 ebp, 4
  000b9	c6 45 00 00	 mov	 BYTE PTR [ebp], 0
$L208256:

; 1490 : 		return (0 < _Newsize);	// return true only if more work to do

  000bd	33 c0		 xor	 eax, eax
  000bf	3b c6		 cmp	 eax, esi
  000c1	1b c0		 sbb	 eax, eax
  000c3	5e		 pop	 esi
  000c4	f7 d8		 neg	 eax
  000c6	5d		 pop	 ebp

; 1491 : 		}

  000c7	c2 08 00	 ret	 8
?_Grow@?$basic_string@DU?$char_traits@D@std@@V?$allocator@D@2@@std@@IAE_NI_N@Z ENDP ; std::basic_string<char,std::char_traits<char>,std::allocator<char> >::_Grow
_TEXT	ENDS
PUBLIC	?OnTimer@CQuizDBCtrl@@UAEXXZ			; CQuizDBCtrl::OnTimer
EXTRN	?GetInstance@CDPTrans@@SAPAV1@XZ:NEAR		; CDPTrans::GetInstance
EXTRN	__imp__GetTickCount@0:NEAR
EXTRN	?SendQuizList@CDPTrans@@QAEXKAAU_QUIZLIST@CQuiz@@H@Z:NEAR ; CDPTrans::SendQuizList
EXTRN	?SendQuizEventNotice@CDPTrans@@QAEXK@Z:NEAR	; CDPTrans::SendQuizEventNotice
EXTRN	?GetInstance@CQuiz@@SAPAV1@XZ:NEAR		; CQuiz::GetInstance
; Function compile flags: /Ogty
; File c:\documents and settings\test\mes documents\source\virtuos_v17\build\program\databaseserver\quizdbctrl.cpp
;	COMDAT ?OnTimer@CQuizDBCtrl@@UAEXXZ
_TEXT	SEGMENT
_it$203960 = -4						; size = 4
?OnTimer@CQuizDBCtrl@@UAEXXZ PROC NEAR			; CQuizDBCtrl::OnTimer, COMDAT
; _this$ = ecx

; 123  : {

  00000	51		 push	 ecx
  00001	55		 push	 ebp
  00002	8b e9		 mov	 ebp, ecx

; 124  : 	if( !CQuiz::GetInstance()->IsRun() )

  00004	e8 00 00 00 00	 call	 ?GetInstance@CQuiz@@SAPAV1@XZ ; CQuiz::GetInstance
  00009	8b 48 08	 mov	 ecx, DWORD PTR [eax+8]
  0000c	85 c9		 test	 ecx, ecx
  0000e	0f 84 c5 00 00
	00		 je	 $L203965
  00014	53		 push	 ebx
  00015	56		 push	 esi

; 125  : 		return;
; 126  : 
; 127  : 	DWORD dwTick = GetTickCount();

  00016	ff 15 00 00 00
	00		 call	 DWORD PTR __imp__GetTickCount@0
  0001c	8b d8		 mov	 ebx, eax

; 128  : 	
; 129  : 	for( map<DPID, WORLDDATA>::iterator it = m_mapWorldData.begin(); it != m_mapWorldData.end(); ++it )

  0001e	8b 45 24	 mov	 eax, DWORD PTR [ebp+36]
  00021	8b 30		 mov	 esi, DWORD PTR [eax]
  00023	3b f0		 cmp	 esi, eax
  00025	89 74 24 0c	 mov	 DWORD PTR _it$203960[esp+16], esi
  00029	0f 84 a8 00 00
	00		 je	 $L208680
  0002f	57		 push	 edi
$L208679:

; 130  : 	{
; 131  : 		// notice send
; 132  : 		if( dwTick > it->second.dwNoticeCycle && ( it->second.nState == CQuiz::QE_OPEN || it->second.nState == CQuiz::QE_WATCHINGZONE_OPEN ) )

  00030	3b 5e 28	 cmp	 ebx, DWORD PTR [esi+40]
  00033	76 26		 jbe	 SHORT $L203986
  00035	8b 46 1c	 mov	 eax, DWORD PTR [esi+28]
  00038	83 f8 01	 cmp	 eax, 1
  0003b	74 05		 je	 SHORT $L203987
  0003d	83 f8 03	 cmp	 eax, 3
  00040	75 19		 jne	 SHORT $L203986
$L203987:

; 133  : 		{
; 134  : 			CDPTrans::GetInstance()->SendQuizEventNotice( it->first );

  00042	8b 46 0c	 mov	 eax, DWORD PTR [esi+12]
  00045	50		 push	 eax
  00046	e8 00 00 00 00	 call	 ?GetInstance@CDPTrans@@SAPAV1@XZ ; CDPTrans::GetInstance
  0004b	8b c8		 mov	 ecx, eax
  0004d	e8 00 00 00 00	 call	 ?SendQuizEventNotice@CDPTrans@@QAEXK@Z ; CDPTrans::SendQuizEventNotice

; 135  : 			it->second.dwNoticeCycle = dwTick + MIN( 1 );

  00052	8d 8b 60 ea 00
	00		 lea	 ecx, DWORD PTR [ebx+60000]
  00058	89 4e 28	 mov	 DWORD PTR [esi+40], ecx
$L203986:

; 136  : 		}
; 137  : 		// Quiz list send
; 138  : 		if( it->second.bQuizSend && dwTick > it->second.dwQuizSendCycle && CQuiz::GetInstance()->m_nQuizSize != 0 )

  0005b	8b 46 10	 mov	 eax, DWORD PTR [esi+16]
  0005e	85 c0		 test	 eax, eax
  00060	74 5e		 je	 SHORT $L203964
  00062	3b 5e 24	 cmp	 ebx, DWORD PTR [esi+36]
  00065	76 59		 jbe	 SHORT $L203964
  00067	e8 00 00 00 00	 call	 ?GetInstance@CQuiz@@SAPAV1@XZ ; CQuiz::GetInstance
  0006c	8b 48 10	 mov	 ecx, DWORD PTR [eax+16]
  0006f	85 c9		 test	 ecx, ecx
  00071	74 4d		 je	 SHORT $L203964

; 139  : 		{
; 140  : 			CDPTrans::GetInstance()->SendQuizList( it->first, CQuiz::GetInstance()->m_vecQuizList[it->second.nCount], CQuiz::GetInstance()->m_nQuizSize );

  00073	8b 7e 20	 mov	 edi, DWORD PTR [esi+32]
  00076	e8 00 00 00 00	 call	 ?GetInstance@CQuiz@@SAPAV1@XZ ; CQuiz::GetInstance
  0007b	83 c0 14	 add	 eax, 20			; 00000014H
  0007e	8b 40 04	 mov	 eax, DWORD PTR [eax+4]
  00081	8d 14 bf	 lea	 edx, DWORD PTR [edi+edi*4]
  00084	8d 3c 90	 lea	 edi, DWORD PTR [eax+edx*4]
  00087	e8 00 00 00 00	 call	 ?GetInstance@CQuiz@@SAPAV1@XZ ; CQuiz::GetInstance
  0008c	8b 48 10	 mov	 ecx, DWORD PTR [eax+16]
  0008f	8b 56 0c	 mov	 edx, DWORD PTR [esi+12]
  00092	51		 push	 ecx
  00093	57		 push	 edi
  00094	52		 push	 edx
  00095	e8 00 00 00 00	 call	 ?GetInstance@CDPTrans@@SAPAV1@XZ ; CDPTrans::GetInstance
  0009a	8b c8		 mov	 ecx, eax
  0009c	e8 00 00 00 00	 call	 ?SendQuizList@CDPTrans@@QAEXKAAU_QUIZLIST@CQuiz@@H@Z ; CDPTrans::SendQuizList

; 141  : 			it->second.dwQuizSendCycle = dwTick + m_dwQuizSendTick;

  000a1	8b 45 1c	 mov	 eax, DWORD PTR [ebp+28]
  000a4	03 c3		 add	 eax, ebx
  000a6	89 46 24	 mov	 DWORD PTR [esi+36], eax

; 142  : 			if( ++it->second.nCount >= CQuiz::GetInstance()->m_nQuizSize )

  000a9	ff 46 20	 inc	 DWORD PTR [esi+32]
  000ac	e8 00 00 00 00	 call	 ?GetInstance@CQuiz@@SAPAV1@XZ ; CQuiz::GetInstance
  000b1	8b 4e 20	 mov	 ecx, DWORD PTR [esi+32]
  000b4	3b 48 10	 cmp	 ecx, DWORD PTR [eax+16]
  000b7	7c 07		 jl	 SHORT $L203964

; 143  : 				it->second.bQuizSend = FALSE;

  000b9	c7 46 10 00 00
	00 00		 mov	 DWORD PTR [esi+16], 0
$L203964:

; 128  : 	
; 129  : 	for( map<DPID, WORLDDATA>::iterator it = m_mapWorldData.begin(); it != m_mapWorldData.end(); ++it )

  000c0	8d 4c 24 10	 lea	 ecx, DWORD PTR _it$203960[esp+20]
  000c4	e8 00 00 00 00	 call	 ?_Inc@const_iterator@?$_Tree@V?$_Tmap_traits@KU_WORLDDATA@CQuizDBCtrl@@U?$less@K@std@@V?$allocator@U?$pair@$$CBKU_WORLDDATA@CQuizDBCtrl@@@std@@@4@$0A@@std@@@std@@QAEXXZ ; std::_Tree<std::_Tmap_traits<unsigned long,CQuizDBCtrl::_WORLDDATA,std::less<unsigned long>,std::allocator<std::pair<unsigned long const ,CQuizDBCtrl::_WORLDDATA> >,0> >::const_iterator::_Inc
  000c9	8b 74 24 10	 mov	 esi, DWORD PTR _it$203960[esp+20]
  000cd	3b 75 24	 cmp	 esi, DWORD PTR [ebp+36]
  000d0	0f 85 5a ff ff
	ff		 jne	 $L208679
  000d6	5f		 pop	 edi
$L208680:
  000d7	5e		 pop	 esi
  000d8	5b		 pop	 ebx
$L203965:
  000d9	5d		 pop	 ebp

; 144  : 		}
; 145  : 	}
; 146  : }

  000da	59		 pop	 ecx
  000db	c3		 ret	 0
?OnTimer@CQuizDBCtrl@@UAEXXZ ENDP			; CQuizDBCtrl::OnTimer
_TEXT	ENDS
PUBLIC	?GetWorldData@CQuizDBCtrl@@AAEPAU_WORLDDATA@1@K@Z ; CQuizDBCtrl::GetWorldData
; Function compile flags: /Ogty
;	COMDAT ?GetWorldData@CQuizDBCtrl@@AAEPAU_WORLDDATA@1@K@Z
_TEXT	SEGMENT
_it$ = -4						; size = 4
_dpId$ = 8						; size = 4
?GetWorldData@CQuizDBCtrl@@AAEPAU_WORLDDATA@1@K@Z PROC NEAR ; CQuizDBCtrl::GetWorldData, COMDAT
; _this$ = ecx

; 179  : {

  00000	51		 push	 ecx
  00001	56		 push	 esi
  00002	8b f1		 mov	 esi, ecx

; 180  : 	map<DPID, WORLDDATA>::iterator it = m_mapWorldData.find( dpId );

  00004	8d 44 24 0c	 lea	 eax, DWORD PTR _dpId$[esp+4]
  00008	50		 push	 eax
  00009	8d 4c 24 08	 lea	 ecx, DWORD PTR _it$[esp+12]
  0000d	51		 push	 ecx
  0000e	8d 4e 20	 lea	 ecx, DWORD PTR [esi+32]
  00011	e8 00 00 00 00	 call	 ?find@?$_Tree@V?$_Tmap_traits@KU_WORLDDATA@CQuizDBCtrl@@U?$less@K@std@@V?$allocator@U?$pair@$$CBKU_WORLDDATA@CQuizDBCtrl@@@std@@@4@$0A@@std@@@std@@QAE?AViterator@12@ABK@Z ; std::_Tree<std::_Tmap_traits<unsigned long,CQuizDBCtrl::_WORLDDATA,std::less<unsigned long>,std::allocator<std::pair<unsigned long const ,CQuizDBCtrl::_WORLDDATA> >,0> >::find

; 181  : 	if( it != m_mapWorldData.end() )

  00016	8b 4e 24	 mov	 ecx, DWORD PTR [esi+36]
  00019	8b 44 24 04	 mov	 eax, DWORD PTR _it$[esp+8]
  0001d	3b c1		 cmp	 eax, ecx
  0001f	5e		 pop	 esi
  00020	74 07		 je	 SHORT $L204061

; 182  : 		return &it->second;

  00022	83 c0 10	 add	 eax, 16			; 00000010H

; 184  : }

  00025	59		 pop	 ecx
  00026	c2 04 00	 ret	 4
$L204061:

; 183  : 	return NULL;

  00029	33 c0		 xor	 eax, eax

; 184  : }

  0002b	59		 pop	 ecx
  0002c	c2 04 00	 ret	 4
?GetWorldData@CQuizDBCtrl@@AAEPAU_WORLDDATA@1@K@Z ENDP	; CQuizDBCtrl::GetWorldData
_TEXT	ENDS
PUBLIC	?SetState@CQuizDBCtrl@@AAEXKH@Z			; CQuizDBCtrl::SetState
; Function compile flags: /Ogty
;	COMDAT ?SetState@CQuizDBCtrl@@AAEXKH@Z
_TEXT	SEGMENT
_it$ = -4						; size = 4
_dpId$ = 8						; size = 4
_nState$ = 12						; size = 4
?SetState@CQuizDBCtrl@@AAEXKH@Z PROC NEAR		; CQuizDBCtrl::SetState, COMDAT
; _this$ = ecx

; 187  : {

  00000	51		 push	 ecx
  00001	56		 push	 esi
  00002	8b f1		 mov	 esi, ecx

; 188  : 	map<DPID, WORLDDATA>::iterator it = m_mapWorldData.find( dpId );

  00004	8d 44 24 0c	 lea	 eax, DWORD PTR _dpId$[esp+4]
  00008	50		 push	 eax
  00009	8d 4c 24 08	 lea	 ecx, DWORD PTR _it$[esp+12]
  0000d	51		 push	 ecx
  0000e	8d 4e 20	 lea	 ecx, DWORD PTR [esi+32]
  00011	e8 00 00 00 00	 call	 ?find@?$_Tree@V?$_Tmap_traits@KU_WORLDDATA@CQuizDBCtrl@@U?$less@K@std@@V?$allocator@U?$pair@$$CBKU_WORLDDATA@CQuizDBCtrl@@@std@@@4@$0A@@std@@@std@@QAE?AViterator@12@ABK@Z ; std::_Tree<std::_Tmap_traits<unsigned long,CQuizDBCtrl::_WORLDDATA,std::less<unsigned long>,std::allocator<std::pair<unsigned long const ,CQuizDBCtrl::_WORLDDATA> >,0> >::find

; 189  : 	if( it != m_mapWorldData.end() )

  00016	8b 4e 24	 mov	 ecx, DWORD PTR [esi+36]
  00019	8b 44 24 04	 mov	 eax, DWORD PTR _it$[esp+8]
  0001d	3b c1		 cmp	 eax, ecx
  0001f	5e		 pop	 esi
  00020	74 07		 je	 SHORT $L204075

; 190  : 		it->second.nState = nState;

  00022	8b 54 24 0c	 mov	 edx, DWORD PTR _nState$[esp]
  00026	89 50 1c	 mov	 DWORD PTR [eax+28], edx
$L204075:

; 191  : }

  00029	59		 pop	 ecx
  0002a	c2 08 00	 ret	 8
?SetState@CQuizDBCtrl@@AAEXKH@Z ENDP			; CQuizDBCtrl::SetState
_TEXT	ENDS
PUBLIC	?GetQuizEventId@CQuizDBCtrl@@AAEHK@Z		; CQuizDBCtrl::GetQuizEventId
; Function compile flags: /Ogty
;	COMDAT ?GetQuizEventId@CQuizDBCtrl@@AAEHK@Z
_TEXT	SEGMENT
_it$ = -4						; size = 4
_dpId$ = 8						; size = 4
?GetQuizEventId@CQuizDBCtrl@@AAEHK@Z PROC NEAR		; CQuizDBCtrl::GetQuizEventId, COMDAT
; _this$ = ecx

; 208  : {

  00000	51		 push	 ecx
  00001	56		 push	 esi
  00002	8b f1		 mov	 esi, ecx

; 209  : 	map<DPID, WORLDDATA>::iterator it = m_mapWorldData.find( dpId );

  00004	8d 44 24 0c	 lea	 eax, DWORD PTR _dpId$[esp+4]
  00008	50		 push	 eax
  00009	8d 4c 24 08	 lea	 ecx, DWORD PTR _it$[esp+12]
  0000d	51		 push	 ecx
  0000e	8d 4e 20	 lea	 ecx, DWORD PTR [esi+32]
  00011	e8 00 00 00 00	 call	 ?find@?$_Tree@V?$_Tmap_traits@KU_WORLDDATA@CQuizDBCtrl@@U?$less@K@std@@V?$allocator@U?$pair@$$CBKU_WORLDDATA@CQuizDBCtrl@@@std@@@4@$0A@@std@@@std@@QAE?AViterator@12@ABK@Z ; std::_Tree<std::_Tmap_traits<unsigned long,CQuizDBCtrl::_WORLDDATA,std::less<unsigned long>,std::allocator<std::pair<unsigned long const ,CQuizDBCtrl::_WORLDDATA> >,0> >::find

; 210  : 	if( it != m_mapWorldData.end() )

  00016	8b 4e 24	 mov	 ecx, DWORD PTR [esi+36]
  00019	8b 44 24 04	 mov	 eax, DWORD PTR _it$[esp+8]
  0001d	3b c1		 cmp	 eax, ecx
  0001f	5e		 pop	 esi
  00020	74 07		 je	 SHORT $L204096

; 211  : 		return it->second.nQuizEventId;

  00022	8b 40 14	 mov	 eax, DWORD PTR [eax+20]

; 214  : }

  00025	59		 pop	 ecx
  00026	c2 04 00	 ret	 4
$L204096:

; 212  : 
; 213  : 	return 0;

  00029	33 c0		 xor	 eax, eax

; 214  : }

  0002b	59		 pop	 ecx
  0002c	c2 04 00	 ret	 4
?GetQuizEventId@CQuizDBCtrl@@AAEHK@Z ENDP		; CQuizDBCtrl::GetQuizEventId
_TEXT	ENDS
PUBLIC	??_C@_0FN@CPHHLGOP@usp_QuizLog_Insert?5?$EAidQuizEvent?5@ ; `string'
PUBLIC	?InsertQuizEvent@CQuizDBCtrl@@AAEXKH@Z		; CQuizDBCtrl::InsertQuizEvent
;	COMDAT ??_C@_0FN@CPHHLGOP@usp_QuizLog_Insert?5?$EAidQuizEvent?5@
; File c:\documents and settings\test\mes documents\source\virtuos_v17\build\program\_common\quiz.h
CONST	SEGMENT
??_C@_0FN@CPHHLGOP@usp_QuizLog_Insert?5?$EAidQuizEvent?5@ DB 'usp_QuizLog'
	DB	'_Insert @idQuizEvent = %d, @serverindex = ''%02d'', @nChannel'
	DB	' = %d, @nQuizType = %d', 00H		; `string'
; Function compile flags: /Ogty
; File c:\documents and settings\test\mes documents\source\virtuos_v17\build\program\databaseserver\quizdbctrl.cpp
CONST	ENDS
;	COMDAT ?InsertQuizEvent@CQuizDBCtrl@@AAEXKH@Z
_TEXT	SEGMENT
_it$208895 = -40976					; size = 4
$T208917 = -40972					; size = 4
_szQuery$ = -40968					; size = 40960
__$ArrayPad$ = -4					; size = 4
__$ReturnAddr$ = 4					; size = 4
_dpId$ = 8						; size = 4
_nChannel$ = 12						; size = 4
?InsertQuizEvent@CQuizDBCtrl@@AAEXKH@Z PROC NEAR	; CQuizDBCtrl::InsertQuizEvent, COMDAT
; _this$ = ecx

; 217  : {

  00000	55		 push	 ebp
  00001	8b ec		 mov	 ebp, esp
  00003	83 e4 f8	 and	 esp, -8			; fffffff8H
  00006	b8 14 a0 00 00	 mov	 eax, 40980		; 0000a014H
  0000b	e8 00 00 00 00	 call	 __chkstk
  00010	a1 00 00 00 00	 mov	 eax, DWORD PTR ___security_cookie
  00015	53		 push	 ebx
  00016	56		 push	 esi
  00017	33 c5		 xor	 eax, ebp
  00019	57		 push	 edi
  0001a	89 84 24 1c a0
	00 00		 mov	 DWORD PTR __$ArrayPad$[esp+40992], eax
  00021	8b f1		 mov	 esi, ecx

; 218  : 	if( !CQuiz::GetInstance()->IsRun() )

  00023	e8 00 00 00 00	 call	 ?GetInstance@CQuiz@@SAPAV1@XZ ; CQuiz::GetInstance
  00028	8b 48 08	 mov	 ecx, DWORD PTR [eax+8]
  0002b	85 c9		 test	 ecx, ecx
  0002d	0f 84 91 00 00
	00		 je	 $L204107

; 219  : 		return;
; 220  : 	
; 221  : 	int nId = GetQuizEventId( dpId );

  00033	8b 45 08	 mov	 eax, DWORD PTR _dpId$[ebp]
  00036	8d 4c 24 14	 lea	 ecx, DWORD PTR $T208917[esp+40992]
  0003a	51		 push	 ecx
  0003b	8d 54 24 14	 lea	 edx, DWORD PTR _it$208895[esp+40996]
  0003f	52		 push	 edx
  00040	8d 4e 20	 lea	 ecx, DWORD PTR [esi+32]
  00043	89 44 24 1c	 mov	 DWORD PTR $T208917[esp+41000], eax
  00047	e8 00 00 00 00	 call	 ?find@?$_Tree@V?$_Tmap_traits@KU_WORLDDATA@CQuizDBCtrl@@U?$less@K@std@@V?$allocator@U?$pair@$$CBKU_WORLDDATA@CQuizDBCtrl@@@std@@@4@$0A@@std@@@std@@QAE?AViterator@12@ABK@Z ; std::_Tree<std::_Tmap_traits<unsigned long,CQuizDBCtrl::_WORLDDATA,std::less<unsigned long>,std::allocator<std::pair<unsigned long const ,CQuizDBCtrl::_WORLDDATA> >,0> >::find
  0004c	8b 44 24 10	 mov	 eax, DWORD PTR _it$208895[esp+40992]
  00050	3b 46 24	 cmp	 eax, DWORD PTR [esi+36]
  00053	74 6f		 je	 SHORT $L204107
  00055	8b 58 14	 mov	 ebx, DWORD PTR [eax+20]

; 222  : 	if( nId == 0 )

  00058	85 db		 test	 ebx, ebx
  0005a	74 68		 je	 SHORT $L204107

; 223  : 		return;
; 224  : 
; 225  : 	char szQuery[QUERY_SIZE] = {0, };

  0005c	c6 44 24 18 00	 mov	 BYTE PTR _szQuery$[esp+40992], 0
  00061	33 c0		 xor	 eax, eax
  00063	b9 ff 27 00 00	 mov	 ecx, 10239		; 000027ffH
  00068	8d 7c 24 19	 lea	 edi, DWORD PTR _szQuery$[esp+40993]
  0006c	f3 ab		 rep stosd
  0006e	66 ab		 stosw
  00070	aa		 stosb

; 226  : 	
; 227  : 	sprintf( szQuery, "usp_QuizLog_Insert @idQuizEvent = %d, @serverindex = '%02d', @nChannel = %d, @nQuizType = %d", 
; 228  : 		nId, g_appInfo.dwSys, nChannel, CQuiz::GetInstance()->GetType() );

  00071	e8 00 00 00 00	 call	 ?GetInstance@CQuiz@@SAPAV1@XZ ; CQuiz::GetInstance
  00076	8b 00		 mov	 eax, DWORD PTR [eax]
  00078	8b 4d 0c	 mov	 ecx, DWORD PTR _nChannel$[ebp]
  0007b	8b 15 00 00 00
	00		 mov	 edx, DWORD PTR ?g_appInfo@@3UAppInfo@@A
  00081	50		 push	 eax
  00082	51		 push	 ecx
  00083	52		 push	 edx
  00084	53		 push	 ebx
  00085	8d 44 24 28	 lea	 eax, DWORD PTR _szQuery$[esp+41008]
  00089	68 00 00 00 00	 push	 OFFSET FLAT:??_C@_0FN@CPHHLGOP@usp_QuizLog_Insert?5?$EAidQuizEvent?5@
  0008e	50		 push	 eax
  0008f	e8 00 00 00 00	 call	 _sprintf
  00094	83 c4 18	 add	 esp, 24			; 00000018H

; 229  : 	if( m_pQuery->Exec( szQuery ) == FALSE )

  00097	8d 4c 24 18	 lea	 ecx, DWORD PTR _szQuery$[esp+40992]
  0009b	51		 push	 ecx
  0009c	8b 4e 14	 mov	 ecx, DWORD PTR [esi+20]
  0009f	e8 00 00 00 00	 call	 ?Exec@CQuery@@QAEHPBD@Z	; CQuery::Exec
  000a4	85 c0		 test	 eax, eax
  000a6	75 1c		 jne	 SHORT $L204107

; 230  : 	{ WriteLog( "%s, %d\t%s", __FILE__, __LINE__, szQuery ); return; }

  000a8	8d 54 24 18	 lea	 edx, DWORD PTR _szQuery$[esp+40992]
  000ac	52		 push	 edx
  000ad	68 e6 00 00 00	 push	 230			; 000000e6H
  000b2	68 00 00 00 00	 push	 OFFSET FLAT:??_C@_0BB@DDOPEPAG@?4?2QuizDBCtrl?4cpp?$AA@
  000b7	68 00 00 00 00	 push	 OFFSET FLAT:??_C@_09GBAEEKDE@?$CFs?0?5?$CFd?7?$CFs?$AA@
  000bc	e8 00 00 00 00	 call	 ?WriteLog@@YAXPBDZZ	; WriteLog
  000c1	83 c4 10	 add	 esp, 16			; 00000010H
$L204107:

; 231  : }

  000c4	8b 8c 24 1c a0
	00 00		 mov	 ecx, DWORD PTR __$ArrayPad$[esp+40992]
  000cb	5f		 pop	 edi
  000cc	5e		 pop	 esi
  000cd	33 cd		 xor	 ecx, ebp
  000cf	5b		 pop	 ebx
  000d0	e8 00 00 00 00	 call	 @__security_check_cookie@4
  000d5	8b e5		 mov	 esp, ebp
  000d7	5d		 pop	 ebp
  000d8	c2 08 00	 ret	 8
?InsertQuizEvent@CQuizDBCtrl@@AAEXKH@Z ENDP		; CQuizDBCtrl::InsertQuizEvent
_TEXT	ENDS
PUBLIC	??_C@_0HC@EIMMABOA@usp_QuizLog_Update?5?$EAidQuizEvent?5@ ; `string'
PUBLIC	?UpdateQuizEvent@CQuizDBCtrl@@AAEXKHHH@Z	; CQuizDBCtrl::UpdateQuizEvent
;	COMDAT ??_C@_0HC@EIMMABOA@usp_QuizLog_Update?5?$EAidQuizEvent?5@
; File c:\program files\microsoft visual studio .net 2003\vc7\include\xtree
CONST	SEGMENT
??_C@_0HC@EIMMABOA@usp_QuizLog_Update?5?$EAidQuizEvent?5@ DB 'usp_QuizLog'
	DB	'_Update @idQuizEvent = %d, @serverindex = ''%02d'', @nChannel'
	DB	' = %d, @nWinnerCount = %d, @nQuizCount = %d', 00H ; `string'
; Function compile flags: /Ogty
; File c:\documents and settings\test\mes documents\source\virtuos_v17\build\program\databaseserver\quizdbctrl.cpp
CONST	ENDS
;	COMDAT ?UpdateQuizEvent@CQuizDBCtrl@@AAEXKHHH@Z
_TEXT	SEGMENT
_it$209003 = -40976					; size = 4
$T209005 = -40972					; size = 4
_szQuery$ = -40968					; size = 40960
__$ArrayPad$ = -4					; size = 4
__$ReturnAddr$ = 4					; size = 4
_dpId$ = 8						; size = 4
_nChannel$ = 12						; size = 4
_nWinnerCount$ = 16					; size = 4
_nQuizCount$ = 20					; size = 4
?UpdateQuizEvent@CQuizDBCtrl@@AAEXKHHH@Z PROC NEAR	; CQuizDBCtrl::UpdateQuizEvent, COMDAT
; _this$ = ecx

; 234  : {

  00000	55		 push	 ebp
  00001	8b ec		 mov	 ebp, esp
  00003	83 e4 f8	 and	 esp, -8			; fffffff8H
  00006	b8 10 a0 00 00	 mov	 eax, 40976		; 0000a010H
  0000b	e8 00 00 00 00	 call	 __chkstk
  00010	a1 00 00 00 00	 mov	 eax, DWORD PTR ___security_cookie
  00015	56		 push	 esi
  00016	33 c5		 xor	 eax, ebp
  00018	57		 push	 edi
  00019	89 84 24 14 a0
	00 00		 mov	 DWORD PTR __$ArrayPad$[esp+40984], eax
  00020	8b f1		 mov	 esi, ecx

; 235  : 	if( !CQuiz::GetInstance()->IsRun() )

  00022	e8 00 00 00 00	 call	 ?GetInstance@CQuiz@@SAPAV1@XZ ; CQuiz::GetInstance
  00027	8b 48 08	 mov	 ecx, DWORD PTR [eax+8]
  0002a	85 c9		 test	 ecx, ecx
  0002c	0f 84 91 00 00
	00		 je	 $L204120

; 236  : 		return;
; 237  : 	
; 238  : 	int nId = GetQuizEventId( dpId );

  00032	8b 45 08	 mov	 eax, DWORD PTR _dpId$[ebp]
  00035	8d 4c 24 0c	 lea	 ecx, DWORD PTR $T209005[esp+40984]
  00039	51		 push	 ecx
  0003a	8d 54 24 0c	 lea	 edx, DWORD PTR _it$209003[esp+40988]
  0003e	52		 push	 edx
  0003f	8d 4e 20	 lea	 ecx, DWORD PTR [esi+32]
  00042	89 44 24 14	 mov	 DWORD PTR $T209005[esp+40992], eax
  00046	e8 00 00 00 00	 call	 ?find@?$_Tree@V?$_Tmap_traits@KU_WORLDDATA@CQuizDBCtrl@@U?$less@K@std@@V?$allocator@U?$pair@$$CBKU_WORLDDATA@CQuizDBCtrl@@@std@@@4@$0A@@std@@@std@@QAE?AViterator@12@ABK@Z ; std::_Tree<std::_Tmap_traits<unsigned long,CQuizDBCtrl::_WORLDDATA,std::less<unsigned long>,std::allocator<std::pair<unsigned long const ,CQuizDBCtrl::_WORLDDATA> >,0> >::find
  0004b	8b 44 24 08	 mov	 eax, DWORD PTR _it$209003[esp+40984]
  0004f	3b 46 24	 cmp	 eax, DWORD PTR [esi+36]
  00052	74 6f		 je	 SHORT $L204120
  00054	8b 50 14	 mov	 edx, DWORD PTR [eax+20]

; 239  : 	if( nId == 0 )

  00057	85 d2		 test	 edx, edx
  00059	74 68		 je	 SHORT $L204120

; 240  : 		return;
; 241  : 
; 242  : 	char szQuery[QUERY_SIZE] = {0, };

  0005b	33 c0		 xor	 eax, eax
  0005d	c6 44 24 10 00	 mov	 BYTE PTR _szQuery$[esp+40984], 0
  00062	b9 ff 27 00 00	 mov	 ecx, 10239		; 000027ffH
  00067	8d 7c 24 11	 lea	 edi, DWORD PTR _szQuery$[esp+40985]
  0006b	f3 ab		 rep stosd

; 243  : 	
; 244  : 	sprintf( szQuery, "usp_QuizLog_Update @idQuizEvent = %d, @serverindex = '%02d', @nChannel = %d, @nWinnerCount = %d, @nQuizCount = %d", 
; 245  : 		nId, g_appInfo.dwSys, nChannel, nWinnerCount, nQuizCount );

  0006d	8b 4d 10	 mov	 ecx, DWORD PTR _nWinnerCount$[ebp]
  00070	66 ab		 stosw
  00072	aa		 stosb
  00073	8b 45 14	 mov	 eax, DWORD PTR _nQuizCount$[ebp]
  00076	50		 push	 eax
  00077	8b 45 0c	 mov	 eax, DWORD PTR _nChannel$[ebp]
  0007a	51		 push	 ecx
  0007b	8b 0d 00 00 00
	00		 mov	 ecx, DWORD PTR ?g_appInfo@@3UAppInfo@@A
  00081	50		 push	 eax
  00082	51		 push	 ecx
  00083	52		 push	 edx
  00084	8d 54 24 24	 lea	 edx, DWORD PTR _szQuery$[esp+41004]
  00088	68 00 00 00 00	 push	 OFFSET FLAT:??_C@_0HC@EIMMABOA@usp_QuizLog_Update?5?$EAidQuizEvent?5@
  0008d	52		 push	 edx
  0008e	e8 00 00 00 00	 call	 _sprintf

; 246  : 	if( m_pQuery->Exec( szQuery ) == FALSE )

  00093	8b 4e 14	 mov	 ecx, DWORD PTR [esi+20]
  00096	83 c4 1c	 add	 esp, 28			; 0000001cH
  00099	8d 44 24 10	 lea	 eax, DWORD PTR _szQuery$[esp+40984]
  0009d	50		 push	 eax
  0009e	e8 00 00 00 00	 call	 ?Exec@CQuery@@QAEHPBD@Z	; CQuery::Exec
  000a3	85 c0		 test	 eax, eax
  000a5	75 1c		 jne	 SHORT $L204120

; 247  : 	{ WriteLog( "%s, %d\t%s", __FILE__, __LINE__, szQuery ); return; }

  000a7	8d 4c 24 10	 lea	 ecx, DWORD PTR _szQuery$[esp+40984]
  000ab	51		 push	 ecx
  000ac	68 f7 00 00 00	 push	 247			; 000000f7H
  000b1	68 00 00 00 00	 push	 OFFSET FLAT:??_C@_0BB@DDOPEPAG@?4?2QuizDBCtrl?4cpp?$AA@
  000b6	68 00 00 00 00	 push	 OFFSET FLAT:??_C@_09GBAEEKDE@?$CFs?0?5?$CFd?7?$CFs?$AA@
  000bb	e8 00 00 00 00	 call	 ?WriteLog@@YAXPBDZZ	; WriteLog
  000c0	83 c4 10	 add	 esp, 16			; 00000010H
$L204120:

; 248  : }

  000c3	8b 8c 24 14 a0
	00 00		 mov	 ecx, DWORD PTR __$ArrayPad$[esp+40984]
  000ca	5f		 pop	 edi
  000cb	33 cd		 xor	 ecx, ebp
  000cd	5e		 pop	 esi
  000ce	e8 00 00 00 00	 call	 @__security_check_cookie@4
  000d3	8b e5		 mov	 esp, ebp
  000d5	5d		 pop	 ebp
  000d6	c2 10 00	 ret	 16			; 00000010H
?UpdateQuizEvent@CQuizDBCtrl@@AAEXKHHH@Z ENDP		; CQuizDBCtrl::UpdateQuizEvent
_TEXT	ENDS
PUBLIC	??_C@_0GK@INLLFENK@usp_QuizUserLog_Insert?5?$EAm_idQuiz@ ; `string'
PUBLIC	?EntranceQuizEvent@CQuizDBCtrl@@AAEXKKH@Z	; CQuizDBCtrl::EntranceQuizEvent
;	COMDAT ??_C@_0GK@INLLFENK@usp_QuizUserLog_Insert?5?$EAm_idQuiz@
; File c:\program files\microsoft visual studio .net 2003\vc7\include\xtree
CONST	SEGMENT
??_C@_0GK@INLLFENK@usp_QuizUserLog_Insert?5?$EAm_idQuiz@ DB 'usp_QuizUser'
	DB	'Log_Insert @m_idQuizEvent = %d, @m_idPlayer = ''%07d'', @serv'
	DB	'erindex = ''%02d'', @m_nChannel = %d', 00H	; `string'
; Function compile flags: /Ogty
; File c:\documents and settings\test\mes documents\source\virtuos_v17\build\program\databaseserver\quizdbctrl.cpp
CONST	ENDS
;	COMDAT ?EntranceQuizEvent@CQuizDBCtrl@@AAEXKKH@Z
_TEXT	SEGMENT
_it$209086 = -40976					; size = 4
$T209088 = -40972					; size = 4
_szQuery$ = -40968					; size = 40960
__$ArrayPad$ = -4					; size = 4
__$ReturnAddr$ = 4					; size = 4
_dpId$ = 8						; size = 4
_idPlayer$ = 12						; size = 4
_nChannel$ = 16						; size = 4
?EntranceQuizEvent@CQuizDBCtrl@@AAEXKKH@Z PROC NEAR	; CQuizDBCtrl::EntranceQuizEvent, COMDAT
; _this$ = ecx

; 284  : {

  00000	55		 push	 ebp
  00001	8b ec		 mov	 ebp, esp
  00003	83 e4 f8	 and	 esp, -8			; fffffff8H
  00006	b8 10 a0 00 00	 mov	 eax, 40976		; 0000a010H
  0000b	e8 00 00 00 00	 call	 __chkstk
  00010	a1 00 00 00 00	 mov	 eax, DWORD PTR ___security_cookie
  00015	56		 push	 esi
  00016	33 c5		 xor	 eax, ebp
  00018	57		 push	 edi
  00019	89 84 24 14 a0
	00 00		 mov	 DWORD PTR __$ArrayPad$[esp+40984], eax
  00020	8b f1		 mov	 esi, ecx

; 285  : 	if( !CQuiz::GetInstance()->IsRun() )

  00022	e8 00 00 00 00	 call	 ?GetInstance@CQuiz@@SAPAV1@XZ ; CQuiz::GetInstance
  00027	8b 48 08	 mov	 ecx, DWORD PTR [eax+8]
  0002a	85 c9		 test	 ecx, ecx
  0002c	0f 84 8d 00 00
	00		 je	 $L204157

; 286  : 		return;
; 287  : 	
; 288  : 	int nId = GetQuizEventId( dpId );

  00032	8b 45 08	 mov	 eax, DWORD PTR _dpId$[ebp]
  00035	8d 4c 24 0c	 lea	 ecx, DWORD PTR $T209088[esp+40984]
  00039	51		 push	 ecx
  0003a	8d 54 24 0c	 lea	 edx, DWORD PTR _it$209086[esp+40988]
  0003e	52		 push	 edx
  0003f	8d 4e 20	 lea	 ecx, DWORD PTR [esi+32]
  00042	89 44 24 14	 mov	 DWORD PTR $T209088[esp+40992], eax
  00046	e8 00 00 00 00	 call	 ?find@?$_Tree@V?$_Tmap_traits@KU_WORLDDATA@CQuizDBCtrl@@U?$less@K@std@@V?$allocator@U?$pair@$$CBKU_WORLDDATA@CQuizDBCtrl@@@std@@@4@$0A@@std@@@std@@QAE?AViterator@12@ABK@Z ; std::_Tree<std::_Tmap_traits<unsigned long,CQuizDBCtrl::_WORLDDATA,std::less<unsigned long>,std::allocator<std::pair<unsigned long const ,CQuizDBCtrl::_WORLDDATA> >,0> >::find
  0004b	8b 44 24 08	 mov	 eax, DWORD PTR _it$209086[esp+40984]
  0004f	3b 46 24	 cmp	 eax, DWORD PTR [esi+36]
  00052	74 6b		 je	 SHORT $L204157
  00054	8b 50 14	 mov	 edx, DWORD PTR [eax+20]

; 289  : 	if( nId == 0 )

  00057	85 d2		 test	 edx, edx
  00059	74 64		 je	 SHORT $L204157

; 290  : 		return;
; 291  : 
; 292  : 	char szQuery[QUERY_SIZE] = {0, };

  0005b	33 c0		 xor	 eax, eax
  0005d	c6 44 24 10 00	 mov	 BYTE PTR _szQuery$[esp+40984], 0
  00062	b9 ff 27 00 00	 mov	 ecx, 10239		; 000027ffH
  00067	8d 7c 24 11	 lea	 edi, DWORD PTR _szQuery$[esp+40985]
  0006b	f3 ab		 rep stosd

; 293  : 	
; 294  : 	sprintf( szQuery, "usp_QuizUserLog_Insert @m_idQuizEvent = %d, @m_idPlayer = '%07d', @serverindex = '%02d', @m_nChannel = %d", 
; 295  : 		nId, idPlayer, g_appInfo.dwSys, nChannel );

  0006d	8b 0d 00 00 00
	00		 mov	 ecx, DWORD PTR ?g_appInfo@@3UAppInfo@@A
  00073	66 ab		 stosw
  00075	aa		 stosb
  00076	8b 45 10	 mov	 eax, DWORD PTR _nChannel$[ebp]
  00079	50		 push	 eax
  0007a	8b 45 0c	 mov	 eax, DWORD PTR _idPlayer$[ebp]
  0007d	51		 push	 ecx
  0007e	50		 push	 eax
  0007f	52		 push	 edx
  00080	8d 4c 24 20	 lea	 ecx, DWORD PTR _szQuery$[esp+41000]
  00084	68 00 00 00 00	 push	 OFFSET FLAT:??_C@_0GK@INLLFENK@usp_QuizUserLog_Insert?5?$EAm_idQuiz@
  00089	51		 push	 ecx
  0008a	e8 00 00 00 00	 call	 _sprintf

; 296  : 	if( m_pQuery->Exec( szQuery ) == FALSE )

  0008f	8b 4e 14	 mov	 ecx, DWORD PTR [esi+20]
  00092	83 c4 18	 add	 esp, 24			; 00000018H
  00095	8d 54 24 10	 lea	 edx, DWORD PTR _szQuery$[esp+40984]
  00099	52		 push	 edx
  0009a	e8 00 00 00 00	 call	 ?Exec@CQuery@@QAEHPBD@Z	; CQuery::Exec
  0009f	85 c0		 test	 eax, eax
  000a1	75 1c		 jne	 SHORT $L204157

; 297  : 	{ WriteLog( "%s, %d\t%s", __FILE__, __LINE__, szQuery ); return; }

  000a3	8d 44 24 10	 lea	 eax, DWORD PTR _szQuery$[esp+40984]
  000a7	50		 push	 eax
  000a8	68 29 01 00 00	 push	 297			; 00000129H
  000ad	68 00 00 00 00	 push	 OFFSET FLAT:??_C@_0BB@DDOPEPAG@?4?2QuizDBCtrl?4cpp?$AA@
  000b2	68 00 00 00 00	 push	 OFFSET FLAT:??_C@_09GBAEEKDE@?$CFs?0?5?$CFd?7?$CFs?$AA@
  000b7	e8 00 00 00 00	 call	 ?WriteLog@@YAXPBDZZ	; WriteLog
  000bc	83 c4 10	 add	 esp, 16			; 00000010H
$L204157:

; 298  : }

  000bf	8b 8c 24 14 a0
	00 00		 mov	 ecx, DWORD PTR __$ArrayPad$[esp+40984]
  000c6	5f		 pop	 edi
  000c7	33 cd		 xor	 ecx, ebp
  000c9	5e		 pop	 esi
  000ca	e8 00 00 00 00	 call	 @__security_check_cookie@4
  000cf	8b e5		 mov	 esp, ebp
  000d1	5d		 pop	 ebp
  000d2	c2 0c 00	 ret	 12			; 0000000cH
?EntranceQuizEvent@CQuizDBCtrl@@AAEXKKH@Z ENDP		; CQuizDBCtrl::EntranceQuizEvent
_TEXT	ENDS
PUBLIC	??_C@_0KA@MEAEOFMI@usp_QuizAnswerLog_Insert?5?$EAm_idQu@ ; `string'
PUBLIC	?SelectQuizExample@CQuizDBCtrl@@AAEXKKHHHH@Z	; CQuizDBCtrl::SelectQuizExample
;	COMDAT ??_C@_0KA@MEAEOFMI@usp_QuizAnswerLog_Insert?5?$EAm_idQu@
; File c:\program files\microsoft visual studio .net 2003\vc7\include\xtree
CONST	SEGMENT
??_C@_0KA@MEAEOFMI@usp_QuizAnswerLog_Insert?5?$EAm_idQu@ DB 'usp_QuizAnsw'
	DB	'erLog_Insert @m_idQuizEvent = %d, @m_idPlayer = ''%07d'', @se'
	DB	'rverindex = ''%02d'', @m_nChannel = %d, @m_nQuizNum = %d, @m_'
	DB	'nSelect = %d, @m_nAnswer = %d', 00H		; `string'
; Function compile flags: /Ogty
; File c:\documents and settings\test\mes documents\source\virtuos_v17\build\program\databaseserver\quizdbctrl.cpp
CONST	ENDS
;	COMDAT ?SelectQuizExample@CQuizDBCtrl@@AAEXKKHHHH@Z
_TEXT	SEGMENT
_it$209169 = -40976					; size = 4
$T209171 = -40972					; size = 4
_szQuery$ = -40968					; size = 40960
__$ArrayPad$ = -4					; size = 4
__$ReturnAddr$ = 4					; size = 4
_dpId$ = 8						; size = 4
_idPlayer$ = 12						; size = 4
_nChannel$ = 16						; size = 4
_nQuizId$ = 20						; size = 4
_nSelect$ = 24						; size = 4
_nAnswer$ = 28						; size = 4
?SelectQuizExample@CQuizDBCtrl@@AAEXKKHHHH@Z PROC NEAR	; CQuizDBCtrl::SelectQuizExample, COMDAT
; _this$ = ecx

; 301  : {

  00000	55		 push	 ebp
  00001	8b ec		 mov	 ebp, esp
  00003	83 e4 f8	 and	 esp, -8			; fffffff8H
  00006	b8 10 a0 00 00	 mov	 eax, 40976		; 0000a010H
  0000b	e8 00 00 00 00	 call	 __chkstk
  00010	a1 00 00 00 00	 mov	 eax, DWORD PTR ___security_cookie
  00015	56		 push	 esi
  00016	33 c5		 xor	 eax, ebp
  00018	57		 push	 edi
  00019	89 84 24 14 a0
	00 00		 mov	 DWORD PTR __$ArrayPad$[esp+40984], eax
  00020	8b f1		 mov	 esi, ecx

; 302  : 	if( !CQuiz::GetInstance()->IsRun() )

  00022	e8 00 00 00 00	 call	 ?GetInstance@CQuiz@@SAPAV1@XZ ; CQuiz::GetInstance
  00027	8b 48 08	 mov	 ecx, DWORD PTR [eax+8]
  0002a	85 c9		 test	 ecx, ecx
  0002c	0f 84 98 00 00
	00		 je	 $L204172

; 303  : 		return;
; 304  : 	
; 305  : 	int nId = GetQuizEventId( dpId );

  00032	8b 45 08	 mov	 eax, DWORD PTR _dpId$[ebp]
  00035	8d 4c 24 0c	 lea	 ecx, DWORD PTR $T209171[esp+40984]
  00039	51		 push	 ecx
  0003a	8d 54 24 0c	 lea	 edx, DWORD PTR _it$209169[esp+40988]
  0003e	52		 push	 edx
  0003f	8d 4e 20	 lea	 ecx, DWORD PTR [esi+32]
  00042	89 44 24 14	 mov	 DWORD PTR $T209171[esp+40992], eax
  00046	e8 00 00 00 00	 call	 ?find@?$_Tree@V?$_Tmap_traits@KU_WORLDDATA@CQuizDBCtrl@@U?$less@K@std@@V?$allocator@U?$pair@$$CBKU_WORLDDATA@CQuizDBCtrl@@@std@@@4@$0A@@std@@@std@@QAE?AViterator@12@ABK@Z ; std::_Tree<std::_Tmap_traits<unsigned long,CQuizDBCtrl::_WORLDDATA,std::less<unsigned long>,std::allocator<std::pair<unsigned long const ,CQuizDBCtrl::_WORLDDATA> >,0> >::find
  0004b	8b 44 24 08	 mov	 eax, DWORD PTR _it$209169[esp+40984]
  0004f	3b 46 24	 cmp	 eax, DWORD PTR [esi+36]
  00052	74 76		 je	 SHORT $L204172
  00054	8b 50 14	 mov	 edx, DWORD PTR [eax+20]

; 306  : 	if( nId == 0 )

  00057	85 d2		 test	 edx, edx
  00059	74 6f		 je	 SHORT $L204172

; 307  : 		return;
; 308  : 
; 309  : 	char szQuery[QUERY_SIZE] = {0, };

  0005b	33 c0		 xor	 eax, eax
  0005d	c6 44 24 10 00	 mov	 BYTE PTR _szQuery$[esp+40984], 0
  00062	b9 ff 27 00 00	 mov	 ecx, 10239		; 000027ffH
  00067	8d 7c 24 11	 lea	 edi, DWORD PTR _szQuery$[esp+40985]
  0006b	f3 ab		 rep stosd

; 310  : 	
; 311  : 	sprintf( szQuery, "usp_QuizAnswerLog_Insert @m_idQuizEvent = %d, @m_idPlayer = '%07d', @serverindex = '%02d', @m_nChannel = %d, @m_nQuizNum = %d, @m_nSelect = %d, @m_nAnswer = %d", 
; 312  : 		nId, idPlayer, g_appInfo.dwSys, nChannel, nQuizId, nSelect, nAnswer );

  0006d	8b 4d 18	 mov	 ecx, DWORD PTR _nSelect$[ebp]
  00070	66 ab		 stosw
  00072	aa		 stosb
  00073	8b 45 1c	 mov	 eax, DWORD PTR _nAnswer$[ebp]
  00076	50		 push	 eax
  00077	8b 45 14	 mov	 eax, DWORD PTR _nQuizId$[ebp]
  0007a	51		 push	 ecx
  0007b	8b 4d 10	 mov	 ecx, DWORD PTR _nChannel$[ebp]
  0007e	50		 push	 eax
  0007f	a1 00 00 00 00	 mov	 eax, DWORD PTR ?g_appInfo@@3UAppInfo@@A
  00084	51		 push	 ecx
  00085	8b 4d 0c	 mov	 ecx, DWORD PTR _idPlayer$[ebp]
  00088	50		 push	 eax
  00089	51		 push	 ecx
  0008a	52		 push	 edx
  0008b	8d 54 24 2c	 lea	 edx, DWORD PTR _szQuery$[esp+41012]
  0008f	68 00 00 00 00	 push	 OFFSET FLAT:??_C@_0KA@MEAEOFMI@usp_QuizAnswerLog_Insert?5?$EAm_idQu@
  00094	52		 push	 edx
  00095	e8 00 00 00 00	 call	 _sprintf

; 313  : 	if( m_pQuery->Exec( szQuery ) == FALSE )

  0009a	8b 4e 14	 mov	 ecx, DWORD PTR [esi+20]
  0009d	83 c4 24	 add	 esp, 36			; 00000024H
  000a0	8d 44 24 10	 lea	 eax, DWORD PTR _szQuery$[esp+40984]
  000a4	50		 push	 eax
  000a5	e8 00 00 00 00	 call	 ?Exec@CQuery@@QAEHPBD@Z	; CQuery::Exec
  000aa	85 c0		 test	 eax, eax
  000ac	75 1c		 jne	 SHORT $L204172

; 314  : 	{ WriteLog( "%s, %d\t%s", __FILE__, __LINE__, szQuery ); return; }

  000ae	8d 4c 24 10	 lea	 ecx, DWORD PTR _szQuery$[esp+40984]
  000b2	51		 push	 ecx
  000b3	68 3a 01 00 00	 push	 314			; 0000013aH
  000b8	68 00 00 00 00	 push	 OFFSET FLAT:??_C@_0BB@DDOPEPAG@?4?2QuizDBCtrl?4cpp?$AA@
  000bd	68 00 00 00 00	 push	 OFFSET FLAT:??_C@_09GBAEEKDE@?$CFs?0?5?$CFd?7?$CFs?$AA@
  000c2	e8 00 00 00 00	 call	 ?WriteLog@@YAXPBDZZ	; WriteLog
  000c7	83 c4 10	 add	 esp, 16			; 00000010H
$L204172:

; 315  : }

  000ca	8b 8c 24 14 a0
	00 00		 mov	 ecx, DWORD PTR __$ArrayPad$[esp+40984]
  000d1	5f		 pop	 edi
  000d2	33 cd		 xor	 ecx, ebp
  000d4	5e		 pop	 esi
  000d5	e8 00 00 00 00	 call	 @__security_check_cookie@4
  000da	8b e5		 mov	 esp, ebp
  000dc	5d		 pop	 ebp
  000dd	c2 18 00	 ret	 24			; 00000018H
?SelectQuizExample@CQuizDBCtrl@@AAEXKKHHHH@Z ENDP	; CQuizDBCtrl::SelectQuizExample
_TEXT	ENDS
PUBLIC	??0?$_Tree@V?$_Tmap_traits@KU_WORLDDATA@CQuizDBCtrl@@U?$less@K@std@@V?$allocator@U?$pair@$$CBKU_WORLDDATA@CQuizDBCtrl@@@std@@@4@$0A@@std@@@std@@QAE@ABU?$less@K@1@ABV?$allocator@U?$pair@$$CBKU_WORLDDATA@CQuizDBCtrl@@@std@@@1@@Z ; std::_Tree<std::_Tmap_traits<unsigned long,CQuizDBCtrl::_WORLDDATA,std::less<unsigned long>,std::allocator<std::pair<unsigned long const ,CQuizDBCtrl::_WORLDDATA> >,0> >::_Tree<std::_Tmap_traits<unsigned long,CQuizDBCtrl::_WORLDDATA,std::less<unsigned long>,std::allocator<std::pair<unsigned long const ,CQuizDBCtrl::_WORLDDATA> >,0> >
; Function compile flags: /Ogty
; File c:\program files\microsoft visual studio .net 2003\vc7\include\xtree
;	COMDAT ??0?$_Tree@V?$_Tmap_traits@KU_WORLDDATA@CQuizDBCtrl@@U?$less@K@std@@V?$allocator@U?$pair@$$CBKU_WORLDDATA@CQuizDBCtrl@@@std@@@4@$0A@@std@@@std@@QAE@ABU?$less@K@1@ABV?$allocator@U?$pair@$$CBKU_WORLDDATA@CQuizDBCtrl@@@std@@@1@@Z
_TEXT	SEGMENT
__Parg$ = 8						; size = 4
__Al$ = 12						; size = 4
??0?$_Tree@V?$_Tmap_traits@KU_WORLDDATA@CQuizDBCtrl@@U?$less@K@std@@V?$allocator@U?$pair@$$CBKU_WORLDDATA@CQuizDBCtrl@@@std@@@4@$0A@@std@@@std@@QAE@ABU?$less@K@1@ABV?$allocator@U?$pair@$$CBKU_WORLDDATA@CQuizDBCtrl@@@std@@@1@@Z PROC NEAR ; std::_Tree<std::_Tmap_traits<unsigned long,CQuizDBCtrl::_WORLDDATA,std::less<unsigned long>,std::allocator<std::pair<unsigned long const ,CQuizDBCtrl::_WORLDDATA> >,0> >::_Tree<std::_Tmap_traits<unsigned long,CQuizDBCtrl::_WORLDDATA,std::less<unsigned long>,std::allocator<std::pair<unsigned long const ,CQuizDBCtrl::_WORLDDATA> >,0> >, COMDAT
; _this$ = ecx

; 361  : 		{	// construct empty tree

  00000	56		 push	 esi
  00001	8b f1		 mov	 esi, ecx

; 362  : 		_Init();

  00003	e8 00 00 00 00	 call	 ?_Buynode@?$_Tree@V?$_Tmap_traits@KU_WORLDDATA@CQuizDBCtrl@@U?$less@K@std@@V?$allocator@U?$pair@$$CBKU_WORLDDATA@CQuizDBCtrl@@@std@@@4@$0A@@std@@@std@@IAEPAU_Node@?$_Tree_nod@V?$_Tmap_traits@KU_WORLDDATA@CQuizDBCtrl@@U?$less@K@std@@V?$allocator@U?$pair@$$CBKU_WORLDDATA@CQuizDBCtrl@@@std@@@4@$0A@@std@@@2@XZ ; std::_Tree<std::_Tmap_traits<unsigned long,CQuizDBCtrl::_WORLDDATA,std::less<unsigned long>,std::allocator<std::pair<unsigned long const ,CQuizDBCtrl::_WORLDDATA> >,0> >::_Buynode
  00008	89 46 04	 mov	 DWORD PTR [esi+4], eax
  0000b	c6 40 2d 01	 mov	 BYTE PTR [eax+45], 1
  0000f	8b 46 04	 mov	 eax, DWORD PTR [esi+4]
  00012	89 40 04	 mov	 DWORD PTR [eax+4], eax
  00015	8b 46 04	 mov	 eax, DWORD PTR [esi+4]
  00018	89 00		 mov	 DWORD PTR [eax], eax
  0001a	8b 46 04	 mov	 eax, DWORD PTR [esi+4]
  0001d	89 40 08	 mov	 DWORD PTR [eax+8], eax
  00020	c7 46 08 00 00
	00 00		 mov	 DWORD PTR [esi+8], 0

; 363  : 		}

  00027	8b c6		 mov	 eax, esi
  00029	5e		 pop	 esi
  0002a	c2 08 00	 ret	 8
??0?$_Tree@V?$_Tmap_traits@KU_WORLDDATA@CQuizDBCtrl@@U?$less@K@std@@V?$allocator@U?$pair@$$CBKU_WORLDDATA@CQuizDBCtrl@@@std@@@4@$0A@@std@@@std@@QAE@ABU?$less@K@1@ABV?$allocator@U?$pair@$$CBKU_WORLDDATA@CQuizDBCtrl@@@std@@@1@@Z ENDP ; std::_Tree<std::_Tmap_traits<unsigned long,CQuizDBCtrl::_WORLDDATA,std::less<unsigned long>,std::allocator<std::pair<unsigned long const ,CQuizDBCtrl::_WORLDDATA> >,0> >::_Tree<std::_Tmap_traits<unsigned long,CQuizDBCtrl::_WORLDDATA,std::less<unsigned long>,std::allocator<std::pair<unsigned long const ,CQuizDBCtrl::_WORLDDATA> >,0> >
_TEXT	ENDS
PUBLIC	??0_QUIZLIST@CQuiz@@QAE@ABU01@@Z		; CQuiz::_QUIZLIST::_QUIZLIST
; Function compile flags: /Ogty
;	COMDAT ??0_QUIZLIST@CQuiz@@QAE@ABU01@@Z
_TEXT	SEGMENT
___that$ = 8						; size = 4
??0_QUIZLIST@CQuiz@@QAE@ABU01@@Z PROC NEAR		; CQuiz::_QUIZLIST::_QUIZLIST, COMDAT
; _this$ = ecx
  00000	56		 push	 esi
  00001	57		 push	 edi
  00002	8b 7c 24 0c	 mov	 edi, DWORD PTR ___that$[esp+4]
  00006	8b 07		 mov	 eax, DWORD PTR [edi]
  00008	8b f1		 mov	 esi, ecx
  0000a	89 06		 mov	 DWORD PTR [esi], eax
  0000c	8b 47 04	 mov	 eax, DWORD PTR [edi+4]
  0000f	83 e8 10	 sub	 eax, 16			; 00000010H
  00012	50		 push	 eax
  00013	e8 00 00 00 00	 call	 ?CloneData@?$CSimpleStringT@D$0A@@ATL@@CAPAUCStringData@2@PAU32@@Z ; ATL::CSimpleStringT<char,0>::CloneData
  00018	83 c0 10	 add	 eax, 16			; 00000010H
  0001b	89 46 04	 mov	 DWORD PTR [esi+4], eax
  0001e	8b 4f 08	 mov	 ecx, DWORD PTR [edi+8]
  00021	89 4e 08	 mov	 DWORD PTR [esi+8], ecx
  00024	8b 57 0c	 mov	 edx, DWORD PTR [edi+12]
  00027	89 56 0c	 mov	 DWORD PTR [esi+12], edx
  0002a	8b 47 10	 mov	 eax, DWORD PTR [edi+16]
  0002d	83 c4 04	 add	 esp, 4
  00030	89 46 10	 mov	 DWORD PTR [esi+16], eax
  00033	5f		 pop	 edi
  00034	8b c6		 mov	 eax, esi
  00036	5e		 pop	 esi
  00037	c2 04 00	 ret	 4
??0_QUIZLIST@CQuiz@@QAE@ABU01@@Z ENDP			; CQuiz::_QUIZLIST::_QUIZLIST
_TEXT	ENDS
PUBLIC	??$_Construct@U_QUIZLIST@CQuiz@@U12@@std@@YAXPAU_QUIZLIST@CQuiz@@ABU12@@Z ; std::_Construct<CQuiz::_QUIZLIST,CQuiz::_QUIZLIST>
;	COMDAT xdata$x
; File c:\program files\microsoft visual studio .net 2003\vc7\atlmfc\include\atlsimpstr.h
xdata$x	SEGMENT
$T209398 DD	0ffffffffH
	DD	FLAT:$L209338
$T209396 DD	019930520H
	DD	01H
	DD	FLAT:$T209398
	DD	2 DUP(00H)
	DD	2 DUP(00H)
; Function compile flags: /Ogty
; File c:\program files\microsoft visual studio .net 2003\vc7\include\xmemory
xdata$x	ENDS
;	COMDAT ??$_Construct@U_QUIZLIST@CQuiz@@U12@@std@@YAXPAU_QUIZLIST@CQuiz@@ABU12@@Z
_TEXT	SEGMENT
$T209335 = -16						; size = 4
__$EHRec$ = -12						; size = 12
__Ptr$ = 8						; size = 4
__Val$ = 12						; size = 4
??$_Construct@U_QUIZLIST@CQuiz@@U12@@std@@YAXPAU_QUIZLIST@CQuiz@@ABU12@@Z PROC NEAR ; std::_Construct<CQuiz::_QUIZLIST,CQuiz::_QUIZLIST>, COMDAT

; 41   : 	{	// construct object at _Ptr with value _Val

  00000	6a ff		 push	 -1
  00002	68 00 00 00 00	 push	 __ehhandler$??$_Construct@U_QUIZLIST@CQuiz@@U12@@std@@YAXPAU_QUIZLIST@CQuiz@@ABU12@@Z
  00007	64 a1 00 00 00
	00		 mov	 eax, DWORD PTR fs:__except_list
  0000d	50		 push	 eax
  0000e	64 89 25 00 00
	00 00		 mov	 DWORD PTR fs:__except_list, esp
  00015	51		 push	 ecx
  00016	56		 push	 esi

; 42   : 	new ((void _FARQ *)_Ptr) _T1(_Val);

  00017	8b 74 24 18	 mov	 esi, DWORD PTR __Ptr$[esp+16]
  0001b	89 74 24 04	 mov	 DWORD PTR $T209335[esp+20], esi
  0001f	85 f6		 test	 esi, esi
  00021	c7 44 24 10 00
	00 00 00	 mov	 DWORD PTR __$EHRec$[esp+28], 0
  00029	74 31		 je	 SHORT $L209336
  0002b	57		 push	 edi
  0002c	8b 7c 24 20	 mov	 edi, DWORD PTR __Val$[esp+20]
  00030	8b 07		 mov	 eax, DWORD PTR [edi]
  00032	89 06		 mov	 DWORD PTR [esi], eax
  00034	8b 47 04	 mov	 eax, DWORD PTR [edi+4]
  00037	83 e8 10	 sub	 eax, 16			; 00000010H
  0003a	50		 push	 eax
  0003b	e8 00 00 00 00	 call	 ?CloneData@?$CSimpleStringT@D$0A@@ATL@@CAPAUCStringData@2@PAU32@@Z ; ATL::CSimpleStringT<char,0>::CloneData
  00040	83 c4 04	 add	 esp, 4
  00043	83 c0 10	 add	 eax, 16			; 00000010H
  00046	89 46 04	 mov	 DWORD PTR [esi+4], eax
  00049	8b 4f 08	 mov	 ecx, DWORD PTR [edi+8]
  0004c	89 4e 08	 mov	 DWORD PTR [esi+8], ecx
  0004f	8b 57 0c	 mov	 edx, DWORD PTR [edi+12]
  00052	89 56 0c	 mov	 DWORD PTR [esi+12], edx
  00055	8b 47 10	 mov	 eax, DWORD PTR [edi+16]
  00058	89 46 10	 mov	 DWORD PTR [esi+16], eax
  0005b	5f		 pop	 edi
$L209336:

; 43   : 	}

  0005c	8b 4c 24 08	 mov	 ecx, DWORD PTR __$EHRec$[esp+20]
  00060	5e		 pop	 esi
  00061	64 89 0d 00 00
	00 00		 mov	 DWORD PTR fs:__except_list, ecx
  00068	83 c4 10	 add	 esp, 16			; 00000010H
  0006b	c3		 ret	 0
_TEXT	ENDS
;	COMDAT text$x
text$x	SEGMENT
$L209338:
  00000	8b 45 04	 mov	 eax, DWORD PTR __Ptr$[ebp-4]
  00003	50		 push	 eax
  00004	8b 4d f0	 mov	 ecx, DWORD PTR $T209335[ebp]
  00007	51		 push	 ecx
  00008	e8 00 00 00 00	 call	 ??3@YAXPAX0@Z		; operator delete
  0000d	83 c4 08	 add	 esp, 8
  00010	c3		 ret	 0
__ehhandler$??$_Construct@U_QUIZLIST@CQuiz@@U12@@std@@YAXPAU_QUIZLIST@CQuiz@@ABU12@@Z:
  00011	b8 00 00 00 00	 mov	 eax, OFFSET FLAT:$T209396
  00016	e9 00 00 00 00	 jmp	 ___CxxFrameHandler
text$x	ENDS
??$_Construct@U_QUIZLIST@CQuiz@@U12@@std@@YAXPAU_QUIZLIST@CQuiz@@ABU12@@Z ENDP ; std::_Construct<CQuiz::_QUIZLIST,CQuiz::_QUIZLIST>
PUBLIC	??$_Destroy@U_QUIZLIST@CQuiz@@@std@@YAXPAU_QUIZLIST@CQuiz@@@Z ; std::_Destroy<CQuiz::_QUIZLIST>
; Function compile flags: /Ogty
;	COMDAT ??$_Destroy@U_QUIZLIST@CQuiz@@@std@@YAXPAU_QUIZLIST@CQuiz@@@Z
_TEXT	SEGMENT
__Ptr$ = 8						; size = 4
??$_Destroy@U_QUIZLIST@CQuiz@@@std@@YAXPAU_QUIZLIST@CQuiz@@@Z PROC NEAR ; std::_Destroy<CQuiz::_QUIZLIST>, COMDAT

; 49   : 	_DESTRUCTOR(_Ty, _Ptr);

  00000	8b 4c 24 04	 mov	 ecx, DWORD PTR __Ptr$[esp-4]
  00004	e9 00 00 00 00	 jmp	 ??1_QUIZLIST@CQuiz@@QAE@XZ
??$_Destroy@U_QUIZLIST@CQuiz@@@std@@YAXPAU_QUIZLIST@CQuiz@@@Z ENDP ; std::_Destroy<CQuiz::_QUIZLIST>
_TEXT	ENDS
PUBLIC	??_7logic_error@std@@6B@			; std::logic_error::`vftable'
PUBLIC	??_Glogic_error@std@@UAEPAXI@Z			; std::logic_error::`scalar deleting destructor'
PUBLIC	??1logic_error@std@@UAE@XZ			; std::logic_error::~logic_error
PUBLIC	?what@logic_error@std@@UBEPBDXZ			; std::logic_error::what
EXTRN	??_Elogic_error@std@@UAEPAXI@Z:NEAR		; std::logic_error::`vector deleting destructor'
EXTRN	??1exception@@UAE@XZ:NEAR			; exception::~exception
;	COMDAT ??_7logic_error@std@@6B@
; File c:\program files\microsoft visual studio .net 2003\vc7\include\iosfwd
CONST	SEGMENT
??_7logic_error@std@@6B@ DD FLAT:??_Elogic_error@std@@UAEPAXI@Z ; std::logic_error::`vftable'
	DD	FLAT:?what@logic_error@std@@UBEPBDXZ
; Function compile flags: /Ogty
; File c:\program files\microsoft visual studio .net 2003\vc7\include\stdexcept
CONST	ENDS
;	COMDAT ??1logic_error@std@@UAE@XZ
_TEXT	SEGMENT
??1logic_error@std@@UAE@XZ PROC NEAR			; std::logic_error::~logic_error, COMDAT
; _this$ = ecx

; 23   : 		{}	// destroy the object

  00000	56		 push	 esi
  00001	8b f1		 mov	 esi, ecx
  00003	c7 06 00 00 00
	00		 mov	 DWORD PTR [esi], OFFSET FLAT:??_7logic_error@std@@6B@
  00009	83 7e 24 10	 cmp	 DWORD PTR [esi+36], 16	; 00000010H
  0000d	72 0c		 jb	 SHORT $L209473
  0000f	8b 46 10	 mov	 eax, DWORD PTR [esi+16]
  00012	50		 push	 eax
  00013	e8 00 00 00 00	 call	 ??3@YAXPAX@Z		; operator delete
  00018	83 c4 04	 add	 esp, 4
$L209473:
  0001b	33 c0		 xor	 eax, eax
  0001d	c7 46 24 0f 00
	00 00		 mov	 DWORD PTR [esi+36], 15	; 0000000fH
  00024	89 46 20	 mov	 DWORD PTR [esi+32], eax
  00027	88 46 10	 mov	 BYTE PTR [esi+16], al
  0002a	8b ce		 mov	 ecx, esi
  0002c	5e		 pop	 esi
  0002d	e9 00 00 00 00	 jmp	 ??1exception@@UAE@XZ	; exception::~exception
??1logic_error@std@@UAE@XZ ENDP				; std::logic_error::~logic_error
; Function compile flags: /Ogty
_TEXT	ENDS
;	COMDAT ?what@logic_error@std@@UBEPBDXZ
_TEXT	SEGMENT
?what@logic_error@std@@UBEPBDXZ PROC NEAR		; std::logic_error::what, COMDAT
; _this$ = ecx

; 27   : 		return (_Str.c_str());

  00000	83 79 24 10	 cmp	 DWORD PTR [ecx+36], 16	; 00000010H
  00004	72 04		 jb	 SHORT $L209499
  00006	8b 41 10	 mov	 eax, DWORD PTR [ecx+16]

; 28   : 		}

  00009	c3		 ret	 0

; 27   : 		return (_Str.c_str());

$L209499:
  0000a	8d 41 10	 lea	 eax, DWORD PTR [ecx+16]

; 28   : 		}

  0000d	c3		 ret	 0
?what@logic_error@std@@UBEPBDXZ ENDP			; std::logic_error::what
; Function compile flags: /Ogty
_TEXT	ENDS
;	COMDAT ??_Glogic_error@std@@UAEPAXI@Z
_TEXT	SEGMENT
___flags$ = 8						; size = 4
??_Glogic_error@std@@UAEPAXI@Z PROC NEAR		; std::logic_error::`scalar deleting destructor', COMDAT
; _this$ = ecx
  00000	56		 push	 esi
  00001	8b f1		 mov	 esi, ecx
  00003	e8 00 00 00 00	 call	 ??1logic_error@std@@UAE@XZ ; std::logic_error::~logic_error
  00008	f6 44 24 08 01	 test	 BYTE PTR ___flags$[esp], 1
  0000d	74 09		 je	 SHORT $L209505
  0000f	56		 push	 esi
  00010	e8 00 00 00 00	 call	 ??3@YAXPAX@Z		; operator delete
  00015	83 c4 04	 add	 esp, 4
$L209505:
  00018	8b c6		 mov	 eax, esi
  0001a	5e		 pop	 esi
  0001b	c2 04 00	 ret	 4
??_Glogic_error@std@@UAEPAXI@Z ENDP			; std::logic_error::`scalar deleting destructor'
_TEXT	ENDS
PUBLIC	??4?$CSimpleStringT@D$0A@@ATL@@QAEAAV01@ABV01@@Z ; ATL::CSimpleStringT<char,0>::operator=
; Function compile flags: /Ogty
; File c:\program files\microsoft visual studio .net 2003\vc7\atlmfc\include\atlsimpstr.h
;	COMDAT ??4?$CSimpleStringT@D$0A@@ATL@@QAEAAV01@ABV01@@Z
_TEXT	SEGMENT
_strSrc$ = 8						; size = 4
??4?$CSimpleStringT@D$0A@@ATL@@QAEAAV01@ABV01@@Z PROC NEAR ; ATL::CSimpleStringT<char,0>::operator=, COMDAT
; _this$ = ecx

; 274  : 		CStringData* pSrcData = strSrc.GetData();

  00000	8b 44 24 04	 mov	 eax, DWORD PTR _strSrc$[esp-4]
  00004	56		 push	 esi
  00005	57		 push	 edi
  00006	8b f9		 mov	 edi, ecx
  00008	8b 08		 mov	 ecx, DWORD PTR [eax]

; 275  : 		CStringData* pOldData = GetData();

  0000a	8b 37		 mov	 esi, DWORD PTR [edi]
  0000c	8d 41 f0	 lea	 eax, DWORD PTR [ecx-16]
  0000f	83 ee 10	 sub	 esi, 16			; 00000010H

; 276  : 		if( pSrcData != pOldData)

  00012	3b c6		 cmp	 eax, esi
  00014	74 4d		 je	 SHORT $L209542

; 277  : 		{
; 278  : 			if( pOldData->IsLocked() || pSrcData->pStringMgr != pOldData->pStringMgr )

  00016	8b 56 0c	 mov	 edx, DWORD PTR [esi+12]
  00019	85 d2		 test	 edx, edx
  0001b	53		 push	 ebx
  0001c	8d 5e 0c	 lea	 ebx, DWORD PTR [esi+12]
  0001f	55		 push	 ebp
  00020	7c 33		 jl	 SHORT $L184213
  00022	8b 10		 mov	 edx, DWORD PTR [eax]
  00024	3b 16		 cmp	 edx, DWORD PTR [esi]
  00026	75 2d		 jne	 SHORT $L184213

; 281  : 			}
; 282  : 			else
; 283  : 			{
; 284  : 				CStringData* pNewData = CloneData( pSrcData );

  00028	50		 push	 eax
  00029	e8 00 00 00 00	 call	 ?CloneData@?$CSimpleStringT@D$0A@@ATL@@CAPAUCStringData@2@PAU32@@Z ; ATL::CSimpleStringT<char,0>::CloneData
  0002e	8b e8		 mov	 ebp, eax
  00030	83 c4 04	 add	 esp, 4

; 285  : 				pOldData->Release();

  00033	83 c8 ff	 or	 eax, -1
  00036	f0 0f c1 03	 lock	  xadd	 DWORD PTR [ebx], eax
  0003a	48		 dec	 eax
  0003b	85 c0		 test	 eax, eax
  0003d	7f 08		 jg	 SHORT $L209533
  0003f	8b 0e		 mov	 ecx, DWORD PTR [esi]
  00041	8b 11		 mov	 edx, DWORD PTR [ecx]
  00043	56		 push	 esi
  00044	ff 52 04	 call	 DWORD PTR [edx+4]
$L209533:

; 286  : 				Attach( pNewData );

  00047	83 c5 10	 add	 ebp, 16			; 00000010H
  0004a	89 2f		 mov	 DWORD PTR [edi], ebp
  0004c	5d		 pop	 ebp
  0004d	5b		 pop	 ebx

; 287  : 			}
; 288  : 		}
; 289  : 
; 290  : 		return( *this );

  0004e	8b c7		 mov	 eax, edi
  00050	5f		 pop	 edi
  00051	5e		 pop	 esi

; 291  : 	}

  00052	c2 04 00	 ret	 4
$L184213:

; 279  : 			{
; 280  : 				SetString( strSrc.GetString(), strSrc.GetLength() );

  00055	8b 41 f4	 mov	 eax, DWORD PTR [ecx-12]
  00058	50		 push	 eax
  00059	51		 push	 ecx
  0005a	8b cf		 mov	 ecx, edi
  0005c	e8 00 00 00 00	 call	 ?SetString@?$CSimpleStringT@D$0A@@ATL@@QAEXPBDH@Z ; ATL::CSimpleStringT<char,0>::SetString
  00061	5d		 pop	 ebp
  00062	5b		 pop	 ebx
$L209542:

; 287  : 			}
; 288  : 		}
; 289  : 
; 290  : 		return( *this );

  00063	8b c7		 mov	 eax, edi
  00065	5f		 pop	 edi
  00066	5e		 pop	 esi

; 291  : 	}

  00067	c2 04 00	 ret	 4
??4?$CSimpleStringT@D$0A@@ATL@@QAEAAV01@ABV01@@Z ENDP	; ATL::CSimpleStringT<char,0>::operator=
_TEXT	ENDS
PUBLIC	?assign@?$basic_string@DU?$char_traits@D@std@@V?$allocator@D@2@@std@@QAEAAV12@ABV12@II@Z ; std::basic_string<char,std::char_traits<char>,std::allocator<char> >::assign
; Function compile flags: /Ogty
; File c:\program files\microsoft visual studio .net 2003\vc7\include\xstring
;	COMDAT ?assign@?$basic_string@DU?$char_traits@D@std@@V?$allocator@D@2@@std@@QAEAAV12@ABV12@II@Z
_TEXT	SEGMENT
__Right$ = 8						; size = 4
__Roff$ = 12						; size = 4
__Count$ = 16						; size = 4
?assign@?$basic_string@DU?$char_traits@D@std@@V?$allocator@D@2@@std@@QAEAAV12@ABV12@II@Z PROC NEAR ; std::basic_string<char,std::char_traits<char>,std::allocator<char> >::assign, COMDAT
; _this$ = ecx

; 590  : 		{	// assign _Right [_Roff, _Roff + _Count)

  00000	53		 push	 ebx
  00001	55		 push	 ebp
  00002	56		 push	 esi

; 591  : 		if (_Right.size() < _Roff)

  00003	8b 74 24 14	 mov	 esi, DWORD PTR __Roff$[esp+8]
  00007	57		 push	 edi
  00008	8b 7c 24 14	 mov	 edi, DWORD PTR __Right$[esp+12]
  0000c	39 77 14	 cmp	 DWORD PTR [edi+20], esi
  0000f	8b d9		 mov	 ebx, ecx
  00011	73 05		 jae	 SHORT $L184271

; 592  : 			_String_base::_Xran();	// _Roff off end

  00013	e8 00 00 00 00	 call	 ?_Xran@_String_base@std@@QBEXXZ ; std::_String_base::_Xran
$L184271:

; 593  : 		size_type _Num = _Right.size() - _Roff;

  00018	8b 6f 14	 mov	 ebp, DWORD PTR [edi+20]

; 594  : 		if (_Count < _Num)

  0001b	8b 44 24 1c	 mov	 eax, DWORD PTR __Count$[esp+12]
  0001f	2b ee		 sub	 ebp, esi
  00021	3b c5		 cmp	 eax, ebp
  00023	73 02		 jae	 SHORT $L184273

; 595  : 			_Num = _Count;	// trim _Num to size

  00025	8b e8		 mov	 ebp, eax
$L184273:

; 596  : 
; 597  : 		if (this == &_Right)

  00027	3b df		 cmp	 ebx, edi
  00029	75 1f		 jne	 SHORT $L184274

; 598  : 			erase((size_type)(_Roff + _Num)), erase(0, _Roff);	// substring

  0002b	6a ff		 push	 -1
  0002d	03 ee		 add	 ebp, esi
  0002f	55		 push	 ebp
  00030	8b cb		 mov	 ecx, ebx
  00032	e8 00 00 00 00	 call	 ?erase@?$basic_string@DU?$char_traits@D@std@@V?$allocator@D@2@@std@@QAEAAV12@II@Z ; std::basic_string<char,std::char_traits<char>,std::allocator<char> >::erase
  00037	56		 push	 esi
  00038	6a 00		 push	 0
  0003a	8b cb		 mov	 ecx, ebx
  0003c	e8 00 00 00 00	 call	 ?erase@?$basic_string@DU?$char_traits@D@std@@V?$allocator@D@2@@std@@QAEAAV12@II@Z ; std::basic_string<char,std::char_traits<char>,std::allocator<char> >::erase
  00041	5f		 pop	 edi
  00042	5e		 pop	 esi
  00043	5d		 pop	 ebp

; 603  : 			}
; 604  : 		return (*this);

  00044	8b c3		 mov	 eax, ebx
  00046	5b		 pop	 ebx

; 605  : 		}

  00047	c2 0c 00	 ret	 12			; 0000000cH
$L184274:

; 599  : 		else if (_Grow(_Num))

  0004a	83 fd fe	 cmp	 ebp, -2			; fffffffeH
  0004d	76 07		 jbe	 SHORT $L209665
  0004f	8b cb		 mov	 ecx, ebx
  00051	e8 00 00 00 00	 call	 ?_Xlen@_String_base@std@@QBEXXZ ; std::_String_base::_Xlen
$L209665:
  00056	8b 43 18	 mov	 eax, DWORD PTR [ebx+24]
  00059	3b c5		 cmp	 eax, ebp
  0005b	73 21		 jae	 SHORT $L209667
  0005d	8b 43 14	 mov	 eax, DWORD PTR [ebx+20]
  00060	50		 push	 eax
  00061	55		 push	 ebp
  00062	8b cb		 mov	 ecx, ebx
  00064	e8 00 00 00 00	 call	 ?_Copy@?$basic_string@DU?$char_traits@D@std@@V?$allocator@D@2@@std@@IAEXII@Z ; std::basic_string<char,std::char_traits<char>,std::allocator<char> >::_Copy
  00069	85 ed		 test	 ebp, ebp
$L209741:
  0006b	76 6d		 jbe	 SHORT $L209740

; 600  : 			{	// make room and assign new stuff
; 601  : 			_Traits::copy(_Myptr(), _Right._Myptr() + _Roff, _Num);

  0006d	8b 4f 18	 mov	 ecx, DWORD PTR [edi+24]
  00070	b8 10 00 00 00	 mov	 eax, 16			; 00000010H
  00075	3b c8		 cmp	 ecx, eax
  00077	72 2f		 jb	 SHORT $L209706
  00079	8b 57 04	 mov	 edx, DWORD PTR [edi+4]
  0007c	eb 2d		 jmp	 SHORT $L209707

; 599  : 		else if (_Grow(_Num))

$L209667:
  0007e	85 ed		 test	 ebp, ebp
  00080	75 e9		 jne	 SHORT $L209741
  00082	83 f8 10	 cmp	 eax, 16			; 00000010H
  00085	89 6b 14	 mov	 DWORD PTR [ebx+20], ebp
  00088	72 0f		 jb	 SHORT $L209697
  0008a	8b 43 04	 mov	 eax, DWORD PTR [ebx+4]
  0008d	5f		 pop	 edi
  0008e	5e		 pop	 esi
  0008f	c6 00 00	 mov	 BYTE PTR [eax], 0
  00092	5d		 pop	 ebp

; 603  : 			}
; 604  : 		return (*this);

  00093	8b c3		 mov	 eax, ebx
  00095	5b		 pop	 ebx

; 605  : 		}

  00096	c2 0c 00	 ret	 12			; 0000000cH

; 599  : 		else if (_Grow(_Num))

$L209697:
  00099	5f		 pop	 edi
  0009a	8d 43 04	 lea	 eax, DWORD PTR [ebx+4]
  0009d	5e		 pop	 esi
  0009e	c6 00 00	 mov	 BYTE PTR [eax], 0
  000a1	5d		 pop	 ebp

; 603  : 			}
; 604  : 		return (*this);

  000a2	8b c3		 mov	 eax, ebx
  000a4	5b		 pop	 ebx

; 605  : 		}

  000a5	c2 0c 00	 ret	 12			; 0000000cH

; 600  : 			{	// make room and assign new stuff
; 601  : 			_Traits::copy(_Myptr(), _Right._Myptr() + _Roff, _Num);

$L209706:
  000a8	8d 57 04	 lea	 edx, DWORD PTR [edi+4]
$L209707:
  000ab	39 43 18	 cmp	 DWORD PTR [ebx+24], eax
  000ae	8d 43 04	 lea	 eax, DWORD PTR [ebx+4]
  000b1	72 04		 jb	 SHORT $L209713
  000b3	8b 38		 mov	 edi, DWORD PTR [eax]
  000b5	eb 02		 jmp	 SHORT $L209714
$L209713:
  000b7	8b f8		 mov	 edi, eax
$L209714:
  000b9	03 f2		 add	 esi, edx
  000bb	8b cd		 mov	 ecx, ebp
  000bd	8b d1		 mov	 edx, ecx
  000bf	c1 e9 02	 shr	 ecx, 2
  000c2	f3 a5		 rep movsd
  000c4	8b ca		 mov	 ecx, edx
  000c6	83 e1 03	 and	 ecx, 3
  000c9	f3 a4		 rep movsb

; 602  : 			_Eos(_Num);

  000cb	83 7b 18 10	 cmp	 DWORD PTR [ebx+24], 16	; 00000010H
  000cf	89 6b 14	 mov	 DWORD PTR [ebx+20], ebp
  000d2	72 02		 jb	 SHORT $L209737
  000d4	8b 00		 mov	 eax, DWORD PTR [eax]
$L209737:
  000d6	c6 04 28 00	 mov	 BYTE PTR [eax+ebp], 0
$L209740:
  000da	5f		 pop	 edi
  000db	5e		 pop	 esi
  000dc	5d		 pop	 ebp

; 603  : 			}
; 604  : 		return (*this);

  000dd	8b c3		 mov	 eax, ebx
  000df	5b		 pop	 ebx

; 605  : 		}

  000e0	c2 0c 00	 ret	 12			; 0000000cH
?assign@?$basic_string@DU?$char_traits@D@std@@V?$allocator@D@2@@std@@QAEAAV12@ABV12@II@Z ENDP ; std::basic_string<char,std::char_traits<char>,std::allocator<char> >::assign
_TEXT	ENDS
PUBLIC	?SetString@?$CSimpleStringT@D$0A@@ATL@@QAEXPBD@Z ; ATL::CSimpleStringT<char,0>::SetString
; Function compile flags: /Ogty
; File c:\program files\microsoft visual studio .net 2003\vc7\atlmfc\include\atlsimpstr.h
;	COMDAT ?SetString@?$CSimpleStringT@D$0A@@ATL@@QAEXPBD@Z
_TEXT	SEGMENT
_pszSrc$ = 8						; size = 4
?SetString@?$CSimpleStringT@D$0A@@ATL@@QAEXPBD@Z PROC NEAR ; ATL::CSimpleStringT<char,0>::SetString, COMDAT
; _this$ = ecx

; 579  : 	{

  00000	56		 push	 esi

; 580  : 		SetString( pszSrc, StringLength( pszSrc ) );

  00001	8b 74 24 08	 mov	 esi, DWORD PTR _pszSrc$[esp]
  00005	85 f6		 test	 esi, esi
  00007	75 0d		 jne	 SHORT $L209747
  00009	33 c0		 xor	 eax, eax
  0000b	50		 push	 eax
  0000c	56		 push	 esi
  0000d	e8 00 00 00 00	 call	 ?SetString@?$CSimpleStringT@D$0A@@ATL@@QAEXPBDH@Z ; ATL::CSimpleStringT<char,0>::SetString
  00012	5e		 pop	 esi

; 581  : 	}

  00013	c2 04 00	 ret	 4

; 580  : 		SetString( pszSrc, StringLength( pszSrc ) );

$L209747:
  00016	8b c6		 mov	 eax, esi
  00018	57		 push	 edi
  00019	8d 78 01	 lea	 edi, DWORD PTR [eax+1]
  0001c	8d 64 24 00	 npad	 4
$L209749:
  00020	8a 10		 mov	 dl, BYTE PTR [eax]
  00022	40		 inc	 eax
  00023	84 d2		 test	 dl, dl
  00025	75 f9		 jne	 SHORT $L209749
  00027	2b c7		 sub	 eax, edi
  00029	5f		 pop	 edi
  0002a	50		 push	 eax
  0002b	56		 push	 esi
  0002c	e8 00 00 00 00	 call	 ?SetString@?$CSimpleStringT@D$0A@@ATL@@QAEXPBDH@Z ; ATL::CSimpleStringT<char,0>::SetString
  00031	5e		 pop	 esi

; 581  : 	}

  00032	c2 04 00	 ret	 4
?SetString@?$CSimpleStringT@D$0A@@ATL@@QAEXPBD@Z ENDP	; ATL::CSimpleStringT<char,0>::SetString
_TEXT	ENDS
PUBLIC	?assign@?$basic_string@DU?$char_traits@D@std@@V?$allocator@D@2@@std@@QAEAAV12@PBDI@Z ; std::basic_string<char,std::char_traits<char>,std::allocator<char> >::assign
; Function compile flags: /Ogty
; File c:\program files\microsoft visual studio .net 2003\vc7\include\xstring
;	COMDAT ?assign@?$basic_string@DU?$char_traits@D@std@@V?$allocator@D@2@@std@@QAEAAV12@PBDI@Z
_TEXT	SEGMENT
__Ptr$ = 8						; size = 4
__Num$ = 12						; size = 4
?assign@?$basic_string@DU?$char_traits@D@std@@V?$allocator@D@2@@std@@QAEAAV12@PBDI@Z PROC NEAR ; std::basic_string<char,std::char_traits<char>,std::allocator<char> >::assign, COMDAT
; _this$ = ecx

; 608  : 		{	// assign [_Ptr, _Ptr + _Num)

  00000	53		 push	 ebx
  00001	8b d9		 mov	 ebx, ecx

; 609  : 		if (_Inside(_Ptr))

  00003	8b 53 18	 mov	 edx, DWORD PTR [ebx+24]
  00006	83 fa 10	 cmp	 edx, 16			; 00000010H
  00009	56		 push	 esi
  0000a	57		 push	 edi
  0000b	72 05		 jb	 SHORT $L209774
  0000d	8b 43 04	 mov	 eax, DWORD PTR [ebx+4]
  00010	eb 03		 jmp	 SHORT $L209775
$L209774:
  00012	8d 43 04	 lea	 eax, DWORD PTR [ebx+4]
$L209775:
  00015	8b 74 24 10	 mov	 esi, DWORD PTR __Ptr$[esp+8]
  00019	3b f0		 cmp	 esi, eax
  0001b	72 34		 jb	 SHORT $L184989
  0001d	83 fa 10	 cmp	 edx, 16			; 00000010H
  00020	8d 43 04	 lea	 eax, DWORD PTR [ebx+4]
  00023	72 04		 jb	 SHORT $L209778
  00025	8b 08		 mov	 ecx, DWORD PTR [eax]
  00027	eb 02		 jmp	 SHORT $L209779
$L209778:
  00029	8b c8		 mov	 ecx, eax
$L209779:
  0002b	8b 7b 14	 mov	 edi, DWORD PTR [ebx+20]
  0002e	03 f9		 add	 edi, ecx
  00030	3b fe		 cmp	 edi, esi
  00032	76 1d		 jbe	 SHORT $L184989

; 610  : 			return (assign(*this, _Ptr - _Myptr(), _Num));	// substring

  00034	83 fa 10	 cmp	 edx, 16			; 00000010H
  00037	72 02		 jb	 SHORT $L209787
  00039	8b 00		 mov	 eax, DWORD PTR [eax]
$L209787:
  0003b	8b 4c 24 14	 mov	 ecx, DWORD PTR __Num$[esp+8]
  0003f	51		 push	 ecx
  00040	2b f0		 sub	 esi, eax
  00042	56		 push	 esi
  00043	53		 push	 ebx
  00044	8b cb		 mov	 ecx, ebx
  00046	e8 00 00 00 00	 call	 ?assign@?$basic_string@DU?$char_traits@D@std@@V?$allocator@D@2@@std@@QAEAAV12@ABV12@II@Z ; std::basic_string<char,std::char_traits<char>,std::allocator<char> >::assign
  0004b	5f		 pop	 edi
  0004c	5e		 pop	 esi
  0004d	5b		 pop	 ebx

; 618  : 		}

  0004e	c2 08 00	 ret	 8
$L184989:
  00051	55		 push	 ebp

; 611  : 
; 612  : 		if (_Grow(_Num))

  00052	8b 6c 24 18	 mov	 ebp, DWORD PTR __Num$[esp+12]
  00056	83 fd fe	 cmp	 ebp, -2			; fffffffeH
  00059	76 07		 jbe	 SHORT $L209885
  0005b	8b cb		 mov	 ecx, ebx
  0005d	e8 00 00 00 00	 call	 ?_Xlen@_String_base@std@@QBEXXZ ; std::_String_base::_Xlen
$L209885:
  00062	8b 43 18	 mov	 eax, DWORD PTR [ebx+24]
  00065	3b c5		 cmp	 eax, ebp
  00067	73 1b		 jae	 SHORT $L209886
  00069	8b 53 14	 mov	 edx, DWORD PTR [ebx+20]
  0006c	52		 push	 edx
  0006d	55		 push	 ebp
  0006e	8b cb		 mov	 ecx, ebx
  00070	e8 00 00 00 00	 call	 ?_Copy@?$basic_string@DU?$char_traits@D@std@@V?$allocator@D@2@@std@@IAEXII@Z ; std::basic_string<char,std::char_traits<char>,std::allocator<char> >::_Copy
  00075	85 ed		 test	 ebp, ebp
$L209966:
  00077	76 68		 jbe	 SHORT $L209963

; 613  : 			{	// make room and assign new stuff
; 614  : 			_Traits::copy(_Myptr(), _Ptr, _Num);

  00079	83 7b 18 10	 cmp	 DWORD PTR [ebx+24], 16	; 00000010H
  0007d	72 2f		 jb	 SHORT $L209937
  0007f	8b 7b 04	 mov	 edi, DWORD PTR [ebx+4]
  00082	eb 2d		 jmp	 SHORT $L209938

; 611  : 
; 612  : 		if (_Grow(_Num))

$L209886:
  00084	85 ed		 test	 ebp, ebp
  00086	75 ef		 jne	 SHORT $L209966
  00088	83 f8 10	 cmp	 eax, 16			; 00000010H
  0008b	89 6b 14	 mov	 DWORD PTR [ebx+20], ebp
  0008e	72 0f		 jb	 SHORT $L209929
  00090	8b 43 04	 mov	 eax, DWORD PTR [ebx+4]
  00093	5d		 pop	 ebp
  00094	5f		 pop	 edi
  00095	c6 00 00	 mov	 BYTE PTR [eax], 0
  00098	5e		 pop	 esi

; 616  : 			}
; 617  : 		return (*this);

  00099	8b c3		 mov	 eax, ebx
  0009b	5b		 pop	 ebx

; 618  : 		}

  0009c	c2 08 00	 ret	 8

; 611  : 
; 612  : 		if (_Grow(_Num))

$L209929:
  0009f	5d		 pop	 ebp
  000a0	8d 43 04	 lea	 eax, DWORD PTR [ebx+4]
  000a3	5f		 pop	 edi
  000a4	c6 00 00	 mov	 BYTE PTR [eax], 0
  000a7	5e		 pop	 esi

; 616  : 			}
; 617  : 		return (*this);

  000a8	8b c3		 mov	 eax, ebx
  000aa	5b		 pop	 ebx

; 618  : 		}

  000ab	c2 08 00	 ret	 8

; 613  : 			{	// make room and assign new stuff
; 614  : 			_Traits::copy(_Myptr(), _Ptr, _Num);

$L209937:
  000ae	8d 7b 04	 lea	 edi, DWORD PTR [ebx+4]
$L209938:
  000b1	8b cd		 mov	 ecx, ebp
  000b3	8b c1		 mov	 eax, ecx
  000b5	c1 e9 02	 shr	 ecx, 2
  000b8	f3 a5		 rep movsd
  000ba	8b c8		 mov	 ecx, eax
  000bc	83 e1 03	 and	 ecx, 3
  000bf	f3 a4		 rep movsb

; 615  : 			_Eos(_Num);

  000c1	83 7b 18 10	 cmp	 DWORD PTR [ebx+24], 16	; 00000010H
  000c5	89 6b 14	 mov	 DWORD PTR [ebx+20], ebp
  000c8	72 10		 jb	 SHORT $L209959
  000ca	8b 43 04	 mov	 eax, DWORD PTR [ebx+4]
  000cd	c6 04 28 00	 mov	 BYTE PTR [eax+ebp], 0
  000d1	5d		 pop	 ebp
  000d2	5f		 pop	 edi
  000d3	5e		 pop	 esi

; 616  : 			}
; 617  : 		return (*this);

  000d4	8b c3		 mov	 eax, ebx
  000d6	5b		 pop	 ebx

; 618  : 		}

  000d7	c2 08 00	 ret	 8

; 615  : 			_Eos(_Num);

$L209959:
  000da	8d 43 04	 lea	 eax, DWORD PTR [ebx+4]
  000dd	c6 04 28 00	 mov	 BYTE PTR [eax+ebp], 0
$L209963:
  000e1	5d		 pop	 ebp
  000e2	5f		 pop	 edi
  000e3	5e		 pop	 esi

; 616  : 			}
; 617  : 		return (*this);

  000e4	8b c3		 mov	 eax, ebx
  000e6	5b		 pop	 ebx

; 618  : 		}

  000e7	c2 08 00	 ret	 8
?assign@?$basic_string@DU?$char_traits@D@std@@V?$allocator@D@2@@std@@QAEAAV12@PBDI@Z ENDP ; std::basic_string<char,std::char_traits<char>,std::allocator<char> >::assign
_TEXT	ENDS
PUBLIC	?construct@?$allocator@U_QUIZLIST@CQuiz@@@std@@QAEXPAU_QUIZLIST@CQuiz@@ABU34@@Z ; std::allocator<CQuiz::_QUIZLIST>::construct
; Function compile flags: /Ogty
; File c:\program files\microsoft visual studio .net 2003\vc7\include\xmemory
;	COMDAT ?construct@?$allocator@U_QUIZLIST@CQuiz@@@std@@QAEXPAU_QUIZLIST@CQuiz@@ABU34@@Z
_TEXT	SEGMENT
__Ptr$ = 8						; size = 4
__Val$ = 12						; size = 4
?construct@?$allocator@U_QUIZLIST@CQuiz@@@std@@QAEXPAU_QUIZLIST@CQuiz@@ABU34@@Z PROC NEAR ; std::allocator<CQuiz::_QUIZLIST>::construct, COMDAT
; _this$ = ecx

; 147  : 		_Construct(_Ptr, _Val);

  00000	8b 44 24 08	 mov	 eax, DWORD PTR __Val$[esp-4]
  00004	8b 4c 24 04	 mov	 ecx, DWORD PTR __Ptr$[esp-4]
  00008	50		 push	 eax
  00009	51		 push	 ecx
  0000a	e8 00 00 00 00	 call	 ??$_Construct@U_QUIZLIST@CQuiz@@U12@@std@@YAXPAU_QUIZLIST@CQuiz@@ABU12@@Z ; std::_Construct<CQuiz::_QUIZLIST,CQuiz::_QUIZLIST>
  0000f	83 c4 08	 add	 esp, 8

; 148  : 		}

  00012	c2 08 00	 ret	 8
?construct@?$allocator@U_QUIZLIST@CQuiz@@@std@@QAEXPAU_QUIZLIST@CQuiz@@ABU34@@Z ENDP ; std::allocator<CQuiz::_QUIZLIST>::construct
_TEXT	ENDS
PUBLIC	?destroy@?$allocator@U_QUIZLIST@CQuiz@@@std@@QAEXPAU_QUIZLIST@CQuiz@@@Z ; std::allocator<CQuiz::_QUIZLIST>::destroy
; Function compile flags: /Ogty
;	COMDAT ?destroy@?$allocator@U_QUIZLIST@CQuiz@@@std@@QAEXPAU_QUIZLIST@CQuiz@@@Z
_TEXT	SEGMENT
__Ptr$ = 8						; size = 4
?destroy@?$allocator@U_QUIZLIST@CQuiz@@@std@@QAEXPAU_QUIZLIST@CQuiz@@@Z PROC NEAR ; std::allocator<CQuiz::_QUIZLIST>::destroy, COMDAT
; _this$ = ecx

; 152  : 		_Destroy(_Ptr);

  00000	8b 4c 24 04	 mov	 ecx, DWORD PTR __Ptr$[esp-4]
  00004	e8 00 00 00 00	 call	 ??1_QUIZLIST@CQuiz@@QAE@XZ

; 153  : 		}

  00009	c2 04 00	 ret	 4
?destroy@?$allocator@U_QUIZLIST@CQuiz@@@std@@QAEXPAU_QUIZLIST@CQuiz@@@Z ENDP ; std::allocator<CQuiz::_QUIZLIST>::destroy
_TEXT	ENDS
PUBLIC	??$_Uninit_copy@PAU_QUIZLIST@CQuiz@@PAU12@V?$allocator@U_QUIZLIST@CQuiz@@@std@@@std@@YAPAU_QUIZLIST@CQuiz@@PAU12@00AAV?$allocator@U_QUIZLIST@CQuiz@@@0@U_Nonscalar_ptr_iterator_tag@0@@Z ; std::_Uninit_copy<CQuiz::_QUIZLIST *,CQuiz::_QUIZLIST *,std::allocator<CQuiz::_QUIZLIST> >
;	COMDAT xdata$x
; File c:\program files\microsoft visual studio .net 2003\vc7\atlmfc\include\atlsimpstr.h
xdata$x	SEGMENT
$T210089 DD	0ffffffffH
	DD	00H
	DD	0ffffffffH
	DD	00H
$T210091 DD	00H
	DD	00H
	DD	00H
	DD	FLAT:$L209984
$T210090 DD	00H
	DD	00H
	DD	01H
	DD	01H
	DD	FLAT:$T210091
$T210083 DD	019930520H
	DD	02H
	DD	FLAT:$T210089
	DD	01H
	DD	FLAT:$T210090
	DD	2 DUP(00H)
; Function compile flags: /Ogty
; File c:\program files\microsoft visual studio .net 2003\vc7\include\memory
xdata$x	ENDS
;	COMDAT ??$_Uninit_copy@PAU_QUIZLIST@CQuiz@@PAU12@V?$allocator@U_QUIZLIST@CQuiz@@@std@@@std@@YAPAU_QUIZLIST@CQuiz@@PAU12@00AAV?$allocator@U_QUIZLIST@CQuiz@@@0@U_Nonscalar_ptr_iterator_tag@0@@Z
_TEXT	SEGMENT
__Next$ = -20						; size = 4
__$EHRec$ = -16						; size = 16
__First$ = 8						; size = 4
__Last$ = 12						; size = 4
__Dest$ = 16						; size = 4
__Al$ = 20						; size = 4
___formal$ = 24						; size = 1
??$_Uninit_copy@PAU_QUIZLIST@CQuiz@@PAU12@V?$allocator@U_QUIZLIST@CQuiz@@@std@@@std@@YAPAU_QUIZLIST@CQuiz@@PAU12@00AAV?$allocator@U_QUIZLIST@CQuiz@@@0@U_Nonscalar_ptr_iterator_tag@0@@Z PROC NEAR ; std::_Uninit_copy<CQuiz::_QUIZLIST *,CQuiz::_QUIZLIST *,std::allocator<CQuiz::_QUIZLIST> >, COMDAT

; 77   : 	{	// copy [_First, _Last) to raw _Dest, using _Al, arbitrary type

  00000	55		 push	 ebp
  00001	8b ec		 mov	 ebp, esp
  00003	6a ff		 push	 -1
  00005	68 00 00 00 00	 push	 __ehhandler$??$_Uninit_copy@PAU_QUIZLIST@CQuiz@@PAU12@V?$allocator@U_QUIZLIST@CQuiz@@@std@@@std@@YAPAU_QUIZLIST@CQuiz@@PAU12@00AAV?$allocator@U_QUIZLIST@CQuiz@@@0@U_Nonscalar_ptr_iterator_tag@0@@Z
  0000a	64 a1 00 00 00
	00		 mov	 eax, DWORD PTR fs:__except_list
  00010	50		 push	 eax
  00011	64 89 25 00 00
	00 00		 mov	 DWORD PTR fs:__except_list, esp
  00018	83 ec 08	 sub	 esp, 8
  0001b	53		 push	 ebx

; 78   : 	_FwdIt _Next = _Dest;
; 79   : 
; 80   : 	_TRY_BEGIN

  0001c	8b 5d 0c	 mov	 ebx, DWORD PTR __Last$[ebp]
  0001f	56		 push	 esi
  00020	8b 75 08	 mov	 esi, DWORD PTR __First$[ebp]
  00023	57		 push	 edi
  00024	8b 7d 10	 mov	 edi, DWORD PTR __Dest$[ebp]
  00027	89 65 f0	 mov	 DWORD PTR __$EHRec$[ebp], esp
  0002a	89 7d ec	 mov	 DWORD PTR __Next$[ebp], edi
  0002d	c7 45 fc 00 00
	00 00		 mov	 DWORD PTR __$EHRec$[ebp+12], 0
$L205533:

; 81   : 	for (; _First != _Last; ++_Dest, ++_First)

  00034	3b f3		 cmp	 esi, ebx
  00036	74 4c		 je	 SHORT $L205535

; 82   : 		_Al.construct(_Dest, *_First);

  00038	56		 push	 esi
  00039	57		 push	 edi
  0003a	e8 00 00 00 00	 call	 ??$_Construct@U_QUIZLIST@CQuiz@@U12@@std@@YAXPAU_QUIZLIST@CQuiz@@ABU12@@Z ; std::_Construct<CQuiz::_QUIZLIST,CQuiz::_QUIZLIST>
  0003f	83 c7 14	 add	 edi, 20			; 00000014H
  00042	83 c4 08	 add	 esp, 8
  00045	89 7d 10	 mov	 DWORD PTR __Dest$[ebp], edi
  00048	83 c6 14	 add	 esi, 20			; 00000014H
  0004b	eb e7		 jmp	 SHORT $L205533
$L209984:

; 83   : 	_CATCH_ALL
; 84   : 	for (; _Next != _Dest; ++_Next)

  0004d	8b 75 ec	 mov	 esi, DWORD PTR __Next$[ebp]
  00050	8b 7d 10	 mov	 edi, DWORD PTR __Dest$[ebp]
  00053	3b f7		 cmp	 esi, edi
  00055	74 24		 je	 SHORT $L205538
$L205536:

; 85   : 		_Al.destroy(_Next);

  00057	8b 46 04	 mov	 eax, DWORD PTR [esi+4]
  0005a	83 e8 10	 sub	 eax, 16			; 00000010H
  0005d	8d 48 0c	 lea	 ecx, DWORD PTR [eax+12]
  00060	83 ca ff	 or	 edx, -1
  00063	f0 0f c1 11	 lock	  xadd	 DWORD PTR [ecx], edx
  00067	4a		 dec	 edx
  00068	85 d2		 test	 edx, edx
  0006a	7f 08		 jg	 SHORT $L210073
  0006c	8b 08		 mov	 ecx, DWORD PTR [eax]
  0006e	8b 11		 mov	 edx, DWORD PTR [ecx]
  00070	50		 push	 eax
  00071	ff 52 04	 call	 DWORD PTR [edx+4]
$L210073:
  00074	83 c6 14	 add	 esi, 20			; 00000014H
  00077	3b f7		 cmp	 esi, edi
  00079	75 dc		 jne	 SHORT $L205536
$L205538:

; 86   : 	_RERAISE;

  0007b	6a 00		 push	 0
  0007d	6a 00		 push	 0
  0007f	e8 00 00 00 00	 call	 __CxxThrowException@8
$L205535:

; 87   : 	_CATCH_END
; 88   : 	return (_Dest);
; 89   : 	}

  00084	8b 4d f4	 mov	 ecx, DWORD PTR __$EHRec$[ebp+4]
  00087	8b c7		 mov	 eax, edi
  00089	5f		 pop	 edi
  0008a	5e		 pop	 esi
  0008b	64 89 0d 00 00
	00 00		 mov	 DWORD PTR fs:__except_list, ecx
  00092	5b		 pop	 ebx
  00093	8b e5		 mov	 esp, ebp
  00095	5d		 pop	 ebp
  00096	c3		 ret	 0
$L210088:
_TEXT	ENDS
;	COMDAT text$x
text$x	SEGMENT
__ehhandler$??$_Uninit_copy@PAU_QUIZLIST@CQuiz@@PAU12@V?$allocator@U_QUIZLIST@CQuiz@@@std@@@std@@YAPAU_QUIZLIST@CQuiz@@PAU12@00AAV?$allocator@U_QUIZLIST@CQuiz@@@0@U_Nonscalar_ptr_iterator_tag@0@@Z:
  00000	b8 00 00 00 00	 mov	 eax, OFFSET FLAT:$T210083
  00005	e9 00 00 00 00	 jmp	 ___CxxFrameHandler
text$x	ENDS
??$_Uninit_copy@PAU_QUIZLIST@CQuiz@@PAU12@V?$allocator@U_QUIZLIST@CQuiz@@@std@@@std@@YAPAU_QUIZLIST@CQuiz@@PAU12@00AAV?$allocator@U_QUIZLIST@CQuiz@@@0@U_Nonscalar_ptr_iterator_tag@0@@Z ENDP ; std::_Uninit_copy<CQuiz::_QUIZLIST *,CQuiz::_QUIZLIST *,std::allocator<CQuiz::_QUIZLIST> >
PUBLIC	??4?$CStringT@DV?$StrTraitMFC@DV?$ChTraitsCRT@D@ATL@@@@@ATL@@QAEAAV01@ABV01@@Z ; ATL::CStringT<char,StrTraitMFC<char,ATL::ChTraitsCRT<char> > >::operator=
; Function compile flags: /Ogty
; File c:\program files\microsoft visual studio .net 2003\vc7\atlmfc\include\cstringt.h
;	COMDAT ??4?$CStringT@DV?$StrTraitMFC@DV?$ChTraitsCRT@D@ATL@@@@@ATL@@QAEAAV01@ABV01@@Z
_TEXT	SEGMENT
_strSrc$ = 8						; size = 4
??4?$CStringT@DV?$StrTraitMFC@DV?$ChTraitsCRT@D@ATL@@@@@ATL@@QAEAAV01@ABV01@@Z PROC NEAR ; ATL::CStringT<char,StrTraitMFC<char,ATL::ChTraitsCRT<char> > >::operator=, COMDAT
; _this$ = ecx

; 968  : 		CThisSimpleString::operator=( strSrc );

  00000	8b 44 24 04	 mov	 eax, DWORD PTR _strSrc$[esp-4]
  00004	56		 push	 esi
  00005	50		 push	 eax
  00006	8b f1		 mov	 esi, ecx
  00008	e8 00 00 00 00	 call	 ??4?$CSimpleStringT@D$0A@@ATL@@QAEAAV01@ABV01@@Z ; ATL::CSimpleStringT<char,0>::operator=

; 969  : 
; 970  : 		return( *this );

  0000d	8b c6		 mov	 eax, esi
  0000f	5e		 pop	 esi

; 971  : 	}

  00010	c2 04 00	 ret	 4
??4?$CStringT@DV?$StrTraitMFC@DV?$ChTraitsCRT@D@ATL@@@@@ATL@@QAEAAV01@ABV01@@Z ENDP ; ATL::CStringT<char,StrTraitMFC<char,ATL::ChTraitsCRT<char> > >::operator=
_TEXT	ENDS
PUBLIC	??0?$basic_string@DU?$char_traits@D@std@@V?$allocator@D@2@@std@@QAE@ABV01@@Z ; std::basic_string<char,std::char_traits<char>,std::allocator<char> >::basic_string<char,std::char_traits<char>,std::allocator<char> >
; Function compile flags: /Ogty
; File c:\program files\microsoft visual studio .net 2003\vc7\include\xstring
;	COMDAT ??0?$basic_string@DU?$char_traits@D@std@@V?$allocator@D@2@@std@@QAE@ABV01@@Z
_TEXT	SEGMENT
__Right$ = 8						; size = 4
??0?$basic_string@DU?$char_traits@D@std@@V?$allocator@D@2@@std@@QAE@ABV01@@Z PROC NEAR ; std::basic_string<char,std::char_traits<char>,std::allocator<char> >::basic_string<char,std::char_traits<char>,std::allocator<char> >, COMDAT
; _this$ = ecx

; 323  : 		{	// construct by copying _Right

  00000	56		 push	 esi

; 324  : 		_Tidy();

  00001	33 c0		 xor	 eax, eax
  00003	8b f1		 mov	 esi, ecx

; 325  : 		assign(_Right, 0, npos);

  00005	6a ff		 push	 -1
  00007	89 46 14	 mov	 DWORD PTR [esi+20], eax
  0000a	c7 46 18 0f 00
	00 00		 mov	 DWORD PTR [esi+24], 15	; 0000000fH
  00011	50		 push	 eax
  00012	88 46 04	 mov	 BYTE PTR [esi+4], al
  00015	8b 44 24 10	 mov	 eax, DWORD PTR __Right$[esp+8]
  00019	50		 push	 eax
  0001a	e8 00 00 00 00	 call	 ?assign@?$basic_string@DU?$char_traits@D@std@@V?$allocator@D@2@@std@@QAEAAV12@ABV12@II@Z ; std::basic_string<char,std::char_traits<char>,std::allocator<char> >::assign

; 326  : 		}

  0001f	8b c6		 mov	 eax, esi
  00021	5e		 pop	 esi
  00022	c2 04 00	 ret	 4
??0?$basic_string@DU?$char_traits@D@std@@V?$allocator@D@2@@std@@QAE@ABV01@@Z ENDP ; std::basic_string<char,std::char_traits<char>,std::allocator<char> >::basic_string<char,std::char_traits<char>,std::allocator<char> >
_TEXT	ENDS
PUBLIC	??4?$CSimpleStringT@D$0A@@ATL@@QAEAAV01@PBD@Z	; ATL::CSimpleStringT<char,0>::operator=
; Function compile flags: /Ogty
; File c:\program files\microsoft visual studio .net 2003\vc7\atlmfc\include\atlsimpstr.h
;	COMDAT ??4?$CSimpleStringT@D$0A@@ATL@@QAEAAV01@PBD@Z
_TEXT	SEGMENT
_pszSrc$ = 8						; size = 4
??4?$CSimpleStringT@D$0A@@ATL@@QAEAAV01@PBD@Z PROC NEAR	; ATL::CSimpleStringT<char,0>::operator=, COMDAT
; _this$ = ecx

; 316  : 		SetString( pszSrc );

  00000	8b 54 24 04	 mov	 edx, DWORD PTR _pszSrc$[esp-4]
  00004	85 d2		 test	 edx, edx
  00006	57		 push	 edi
  00007	8b f9		 mov	 edi, ecx
  00009	75 0f		 jne	 SHORT $L210172
  0000b	33 c0		 xor	 eax, eax
  0000d	50		 push	 eax
  0000e	52		 push	 edx
  0000f	e8 00 00 00 00	 call	 ?SetString@?$CSimpleStringT@D$0A@@ATL@@QAEXPBDH@Z ; ATL::CSimpleStringT<char,0>::SetString

; 317  : 
; 318  : 		return( *this );

  00014	8b c7		 mov	 eax, edi
  00016	5f		 pop	 edi

; 319  : 	}

  00017	c2 04 00	 ret	 4

; 316  : 		SetString( pszSrc );

$L210172:
  0001a	8b c2		 mov	 eax, edx
  0001c	56		 push	 esi
  0001d	8d 70 01	 lea	 esi, DWORD PTR [eax+1]
$L210174:
  00020	8a 08		 mov	 cl, BYTE PTR [eax]
  00022	40		 inc	 eax
  00023	84 c9		 test	 cl, cl
  00025	75 f9		 jne	 SHORT $L210174
  00027	2b c6		 sub	 eax, esi
  00029	5e		 pop	 esi
  0002a	50		 push	 eax
  0002b	52		 push	 edx
  0002c	8b cf		 mov	 ecx, edi
  0002e	e8 00 00 00 00	 call	 ?SetString@?$CSimpleStringT@D$0A@@ATL@@QAEXPBDH@Z ; ATL::CSimpleStringT<char,0>::SetString

; 317  : 
; 318  : 		return( *this );

  00033	8b c7		 mov	 eax, edi
  00035	5f		 pop	 edi

; 319  : 	}

  00036	c2 04 00	 ret	 4
??4?$CSimpleStringT@D$0A@@ATL@@QAEAAV01@PBD@Z ENDP	; ATL::CSimpleStringT<char,0>::operator=
_TEXT	ENDS
PUBLIC	?assign@?$basic_string@DU?$char_traits@D@std@@V?$allocator@D@2@@std@@QAEAAV12@PBD@Z ; std::basic_string<char,std::char_traits<char>,std::allocator<char> >::assign
; Function compile flags: /Ogty
; File c:\program files\microsoft visual studio .net 2003\vc7\include\xstring
;	COMDAT ?assign@?$basic_string@DU?$char_traits@D@std@@V?$allocator@D@2@@std@@QAEAAV12@PBD@Z
_TEXT	SEGMENT
__Ptr$ = 8						; size = 4
?assign@?$basic_string@DU?$char_traits@D@std@@V?$allocator@D@2@@std@@QAEAAV12@PBD@Z PROC NEAR ; std::basic_string<char,std::char_traits<char>,std::allocator<char> >::assign, COMDAT
; _this$ = ecx

; 621  : 		{	// assign [_Ptr, <null>)

  00000	56		 push	 esi

; 622  : 		return (assign(_Ptr, _Traits::length(_Ptr)));

  00001	8b 74 24 08	 mov	 esi, DWORD PTR __Ptr$[esp]
  00005	8b c6		 mov	 eax, esi
  00007	57		 push	 edi
  00008	8d 78 01	 lea	 edi, DWORD PTR [eax+1]
  0000b	eb 03 8d 49 00	 npad	 5
$L210180:
  00010	8a 10		 mov	 dl, BYTE PTR [eax]
  00012	40		 inc	 eax
  00013	84 d2		 test	 dl, dl
  00015	75 f9		 jne	 SHORT $L210180
  00017	2b c7		 sub	 eax, edi
  00019	50		 push	 eax
  0001a	56		 push	 esi
  0001b	e8 00 00 00 00	 call	 ?assign@?$basic_string@DU?$char_traits@D@std@@V?$allocator@D@2@@std@@QAEAAV12@PBDI@Z ; std::basic_string<char,std::char_traits<char>,std::allocator<char> >::assign
  00020	5f		 pop	 edi
  00021	5e		 pop	 esi

; 623  : 		}

  00022	c2 04 00	 ret	 4
?assign@?$basic_string@DU?$char_traits@D@std@@V?$allocator@D@2@@std@@QAEAAV12@PBD@Z ENDP ; std::basic_string<char,std::char_traits<char>,std::allocator<char> >::assign
_TEXT	ENDS
PUBLIC	??4_QUIZLIST@CQuiz@@QAEAAU01@ABU01@@Z		; CQuiz::_QUIZLIST::operator=
; Function compile flags: /Ogty
;	COMDAT ??4_QUIZLIST@CQuiz@@QAEAAU01@ABU01@@Z
_TEXT	SEGMENT
___that$ = 8						; size = 4
??4_QUIZLIST@CQuiz@@QAEAAU01@ABU01@@Z PROC NEAR		; CQuiz::_QUIZLIST::operator=, COMDAT
; _this$ = ecx
  00000	56		 push	 esi
  00001	57		 push	 edi
  00002	8b 7c 24 0c	 mov	 edi, DWORD PTR ___that$[esp+4]
  00006	8b 07		 mov	 eax, DWORD PTR [edi]
  00008	8b f1		 mov	 esi, ecx
  0000a	8d 4f 04	 lea	 ecx, DWORD PTR [edi+4]
  0000d	51		 push	 ecx
  0000e	8d 4e 04	 lea	 ecx, DWORD PTR [esi+4]
  00011	89 06		 mov	 DWORD PTR [esi], eax
  00013	e8 00 00 00 00	 call	 ??4?$CSimpleStringT@D$0A@@ATL@@QAEAAV01@ABV01@@Z ; ATL::CSimpleStringT<char,0>::operator=
  00018	8b 57 08	 mov	 edx, DWORD PTR [edi+8]
  0001b	89 56 08	 mov	 DWORD PTR [esi+8], edx
  0001e	8b 47 0c	 mov	 eax, DWORD PTR [edi+12]
  00021	89 46 0c	 mov	 DWORD PTR [esi+12], eax
  00024	8b 4f 10	 mov	 ecx, DWORD PTR [edi+16]
  00027	5f		 pop	 edi
  00028	89 4e 10	 mov	 DWORD PTR [esi+16], ecx
  0002b	8b c6		 mov	 eax, esi
  0002d	5e		 pop	 esi
  0002e	c2 04 00	 ret	 4
??4_QUIZLIST@CQuiz@@QAEAAU01@ABU01@@Z ENDP		; CQuiz::_QUIZLIST::operator=
_TEXT	ENDS
PUBLIC	??$_Uninit_fill_n@PAU_QUIZLIST@CQuiz@@IU12@V?$allocator@U_QUIZLIST@CQuiz@@@std@@@std@@YAXPAU_QUIZLIST@CQuiz@@IABU12@AAV?$allocator@U_QUIZLIST@CQuiz@@@0@U_Nonscalar_ptr_iterator_tag@0@@Z ; std::_Uninit_fill_n<CQuiz::_QUIZLIST *,unsigned int,CQuiz::_QUIZLIST,std::allocator<CQuiz::_QUIZLIST> >
;	COMDAT xdata$x
; File c:\program files\microsoft visual studio .net 2003\vc7\atlmfc\include\atlsimpstr.h
xdata$x	SEGMENT
$T210295 DD	0ffffffffH
	DD	00H
	DD	0ffffffffH
	DD	00H
$T210297 DD	00H
	DD	00H
	DD	00H
	DD	FLAT:$L210190
$T210296 DD	00H
	DD	00H
	DD	01H
	DD	01H
	DD	FLAT:$T210297
$T210289 DD	019930520H
	DD	02H
	DD	FLAT:$T210295
	DD	01H
	DD	FLAT:$T210296
	DD	2 DUP(00H)
; Function compile flags: /Ogty
; File c:\program files\microsoft visual studio .net 2003\vc7\include\memory
xdata$x	ENDS
;	COMDAT ??$_Uninit_fill_n@PAU_QUIZLIST@CQuiz@@IU12@V?$allocator@U_QUIZLIST@CQuiz@@@std@@@std@@YAXPAU_QUIZLIST@CQuiz@@IABU12@AAV?$allocator@U_QUIZLIST@CQuiz@@@0@U_Nonscalar_ptr_iterator_tag@0@@Z
_TEXT	SEGMENT
__Next$ = -20						; size = 4
__$EHRec$ = -16						; size = 16
__First$ = 8						; size = 4
__Count$ = 12						; size = 4
__Val$ = 16						; size = 4
__Al$ = 20						; size = 4
___formal$ = 24						; size = 1
??$_Uninit_fill_n@PAU_QUIZLIST@CQuiz@@IU12@V?$allocator@U_QUIZLIST@CQuiz@@@std@@@std@@YAXPAU_QUIZLIST@CQuiz@@IABU12@AAV?$allocator@U_QUIZLIST@CQuiz@@@0@U_Nonscalar_ptr_iterator_tag@0@@Z PROC NEAR ; std::_Uninit_fill_n<CQuiz::_QUIZLIST *,unsigned int,CQuiz::_QUIZLIST,std::allocator<CQuiz::_QUIZLIST> >, COMDAT

; 207  : 	{	// copy _Count *_Val to raw _First, using _Al, arbitrary type

  00000	55		 push	 ebp
  00001	8b ec		 mov	 ebp, esp
  00003	6a ff		 push	 -1
  00005	68 00 00 00 00	 push	 __ehhandler$??$_Uninit_fill_n@PAU_QUIZLIST@CQuiz@@IU12@V?$allocator@U_QUIZLIST@CQuiz@@@std@@@std@@YAXPAU_QUIZLIST@CQuiz@@IABU12@AAV?$allocator@U_QUIZLIST@CQuiz@@@0@U_Nonscalar_ptr_iterator_tag@0@@Z
  0000a	64 a1 00 00 00
	00		 mov	 eax, DWORD PTR fs:__except_list
  00010	50		 push	 eax
  00011	64 89 25 00 00
	00 00		 mov	 DWORD PTR fs:__except_list, esp
  00018	83 ec 08	 sub	 esp, 8
  0001b	53		 push	 ebx

; 208  : 	_FwdIt _Next = _First;
; 209  : 
; 210  : 	_TRY_BEGIN

  0001c	8b 5d 10	 mov	 ebx, DWORD PTR __Val$[ebp]
  0001f	56		 push	 esi
  00020	8b 75 08	 mov	 esi, DWORD PTR __First$[ebp]
  00023	57		 push	 edi
  00024	8b 7d 0c	 mov	 edi, DWORD PTR __Count$[ebp]
  00027	89 65 f0	 mov	 DWORD PTR __$EHRec$[ebp], esp
  0002a	89 75 ec	 mov	 DWORD PTR __Next$[ebp], esi
  0002d	c7 45 fc 00 00
	00 00		 mov	 DWORD PTR __$EHRec$[ebp+12], 0
$L205459:

; 211  : 	for (; 0 < _Count; --_Count, ++_First)

  00034	85 ff		 test	 edi, edi
  00036	76 4a		 jbe	 SHORT $L205461

; 212  : 		_Al.construct(_First, _Val);

  00038	53		 push	 ebx
  00039	56		 push	 esi
  0003a	e8 00 00 00 00	 call	 ??$_Construct@U_QUIZLIST@CQuiz@@U12@@std@@YAXPAU_QUIZLIST@CQuiz@@ABU12@@Z ; std::_Construct<CQuiz::_QUIZLIST,CQuiz::_QUIZLIST>
  0003f	83 c4 08	 add	 esp, 8
  00042	4f		 dec	 edi
  00043	83 c6 14	 add	 esi, 20			; 00000014H
  00046	89 75 08	 mov	 DWORD PTR __First$[ebp], esi
  00049	eb e9		 jmp	 SHORT $L205459
$L210190:

; 213  : 	_CATCH_ALL
; 214  : 	for (; _Next != _First; ++_Next)

  0004b	8b 75 ec	 mov	 esi, DWORD PTR __Next$[ebp]
  0004e	8b 7d 08	 mov	 edi, DWORD PTR __First$[ebp]
  00051	3b f7		 cmp	 esi, edi
  00053	74 24		 je	 SHORT $L205464
$L205462:

; 215  : 		_Al.destroy(_Next);

  00055	8b 46 04	 mov	 eax, DWORD PTR [esi+4]
  00058	83 e8 10	 sub	 eax, 16			; 00000010H
  0005b	8d 48 0c	 lea	 ecx, DWORD PTR [eax+12]
  0005e	83 ca ff	 or	 edx, -1
  00061	f0 0f c1 11	 lock	  xadd	 DWORD PTR [ecx], edx
  00065	4a		 dec	 edx
  00066	85 d2		 test	 edx, edx
  00068	7f 08		 jg	 SHORT $L210279
  0006a	8b 08		 mov	 ecx, DWORD PTR [eax]
  0006c	8b 11		 mov	 edx, DWORD PTR [ecx]
  0006e	50		 push	 eax
  0006f	ff 52 04	 call	 DWORD PTR [edx+4]
$L210279:
  00072	83 c6 14	 add	 esi, 20			; 00000014H
  00075	3b f7		 cmp	 esi, edi
  00077	75 dc		 jne	 SHORT $L205462
$L205464:

; 216  : 	_RERAISE;

  00079	6a 00		 push	 0
  0007b	6a 00		 push	 0
  0007d	e8 00 00 00 00	 call	 __CxxThrowException@8
$L205461:

; 217  : 	_CATCH_END
; 218  : 	}

  00082	8b 4d f4	 mov	 ecx, DWORD PTR __$EHRec$[ebp+4]
  00085	5f		 pop	 edi
  00086	5e		 pop	 esi
  00087	64 89 0d 00 00
	00 00		 mov	 DWORD PTR fs:__except_list, ecx
  0008e	5b		 pop	 ebx
  0008f	8b e5		 mov	 esp, ebp
  00091	5d		 pop	 ebp
  00092	c3		 ret	 0
$L210294:
_TEXT	ENDS
;	COMDAT text$x
text$x	SEGMENT
__ehhandler$??$_Uninit_fill_n@PAU_QUIZLIST@CQuiz@@IU12@V?$allocator@U_QUIZLIST@CQuiz@@@std@@@std@@YAXPAU_QUIZLIST@CQuiz@@IABU12@AAV?$allocator@U_QUIZLIST@CQuiz@@@0@U_Nonscalar_ptr_iterator_tag@0@@Z:
  00000	b8 00 00 00 00	 mov	 eax, OFFSET FLAT:$T210289
  00005	e9 00 00 00 00	 jmp	 ___CxxFrameHandler
text$x	ENDS
??$_Uninit_fill_n@PAU_QUIZLIST@CQuiz@@IU12@V?$allocator@U_QUIZLIST@CQuiz@@@std@@@std@@YAXPAU_QUIZLIST@CQuiz@@IABU12@AAV?$allocator@U_QUIZLIST@CQuiz@@@0@U_Nonscalar_ptr_iterator_tag@0@@Z ENDP ; std::_Uninit_fill_n<CQuiz::_QUIZLIST *,unsigned int,CQuiz::_QUIZLIST,std::allocator<CQuiz::_QUIZLIST> >
PUBLIC	??$_Destroy_range@U_QUIZLIST@CQuiz@@V?$allocator@U_QUIZLIST@CQuiz@@@std@@@std@@YAXPAU_QUIZLIST@CQuiz@@0AAV?$allocator@U_QUIZLIST@CQuiz@@@0@U_Nonscalar_ptr_iterator_tag@0@@Z ; std::_Destroy_range<CQuiz::_QUIZLIST,std::allocator<CQuiz::_QUIZLIST> >
; Function compile flags: /Ogty
; File c:\program files\microsoft visual studio .net 2003\vc7\include\xmemory
;	COMDAT ??$_Destroy_range@U_QUIZLIST@CQuiz@@V?$allocator@U_QUIZLIST@CQuiz@@@std@@@std@@YAXPAU_QUIZLIST@CQuiz@@0AAV?$allocator@U_QUIZLIST@CQuiz@@@0@U_Nonscalar_ptr_iterator_tag@0@@Z
_TEXT	SEGMENT
__First$ = 8						; size = 4
__Last$ = 12						; size = 4
__Al$ = 16						; size = 4
___formal$ = 20						; size = 1
??$_Destroy_range@U_QUIZLIST@CQuiz@@V?$allocator@U_QUIZLIST@CQuiz@@@std@@@std@@YAXPAU_QUIZLIST@CQuiz@@0AAV?$allocator@U_QUIZLIST@CQuiz@@@0@U_Nonscalar_ptr_iterator_tag@0@@Z PROC NEAR ; std::_Destroy_range<CQuiz::_QUIZLIST,std::allocator<CQuiz::_QUIZLIST> >, COMDAT

; 224  : 	{	// destroy [_First, _Last), arbitrary type

  00000	56		 push	 esi

; 225  : 	for (; _First != _Last; ++_First)

  00001	8b 74 24 08	 mov	 esi, DWORD PTR __First$[esp]
  00005	57		 push	 edi
  00006	8b 7c 24 10	 mov	 edi, DWORD PTR __Last$[esp+4]
  0000a	3b f7		 cmp	 esi, edi
  0000c	74 10		 je	 SHORT $L205470
  0000e	8b ff		 npad	 2
$L205468:

; 226  : 		_Al.destroy(_First);

  00010	8b ce		 mov	 ecx, esi
  00012	e8 00 00 00 00	 call	 ??1_QUIZLIST@CQuiz@@QAE@XZ
  00017	83 c6 14	 add	 esi, 20			; 00000014H
  0001a	3b f7		 cmp	 esi, edi
  0001c	75 f2		 jne	 SHORT $L205468
$L205470:
  0001e	5f		 pop	 edi
  0001f	5e		 pop	 esi

; 227  : 	}

  00020	c3		 ret	 0
??$_Destroy_range@U_QUIZLIST@CQuiz@@V?$allocator@U_QUIZLIST@CQuiz@@@std@@@std@@YAXPAU_QUIZLIST@CQuiz@@0AAV?$allocator@U_QUIZLIST@CQuiz@@@0@U_Nonscalar_ptr_iterator_tag@0@@Z ENDP ; std::_Destroy_range<CQuiz::_QUIZLIST,std::allocator<CQuiz::_QUIZLIST> >
_TEXT	ENDS
PUBLIC	??$_Uninitialized_copy@PAU_QUIZLIST@CQuiz@@PAU12@V?$allocator@U_QUIZLIST@CQuiz@@@std@@@std@@YAPAU_QUIZLIST@CQuiz@@PAU12@00AAV?$allocator@U_QUIZLIST@CQuiz@@@0@@Z ; std::_Uninitialized_copy<CQuiz::_QUIZLIST *,CQuiz::_QUIZLIST *,std::allocator<CQuiz::_QUIZLIST> >
; Function compile flags: /Ogty
; File c:\program files\microsoft visual studio .net 2003\vc7\include\memory
;	COMDAT ??$_Uninitialized_copy@PAU_QUIZLIST@CQuiz@@PAU12@V?$allocator@U_QUIZLIST@CQuiz@@@std@@@std@@YAPAU_QUIZLIST@CQuiz@@PAU12@00AAV?$allocator@U_QUIZLIST@CQuiz@@@0@@Z
_TEXT	SEGMENT
__Cat$210327 = -4					; size = 1
__First$ = 8						; size = 4
__Last$ = 12						; size = 4
__Dest$ = 16						; size = 4
__Al$ = 20						; size = 4
??$_Uninitialized_copy@PAU_QUIZLIST@CQuiz@@PAU12@V?$allocator@U_QUIZLIST@CQuiz@@@std@@@std@@YAPAU_QUIZLIST@CQuiz@@PAU12@00AAV?$allocator@U_QUIZLIST@CQuiz@@@0@@Z PROC NEAR ; std::_Uninitialized_copy<CQuiz::_QUIZLIST *,CQuiz::_QUIZLIST *,std::allocator<CQuiz::_QUIZLIST> >, COMDAT

; 126  : 	{	// copy [_First, _Last) to raw _Dest, using _Al

  00000	51		 push	 ecx

; 127  : 	return (_Uninit_copy(_First, _Last, _Dest, _Al,
; 128  : 		_Ptr_cat(_First, _Dest)));

  00001	8b 04 24	 mov	 eax, DWORD PTR __Cat$210327[esp+4]
  00004	8b 4c 24 14	 mov	 ecx, DWORD PTR __Al$[esp]
  00008	8b 54 24 10	 mov	 edx, DWORD PTR __Dest$[esp]
  0000c	50		 push	 eax
  0000d	8b 44 24 10	 mov	 eax, DWORD PTR __Last$[esp+4]
  00011	51		 push	 ecx
  00012	8b 4c 24 10	 mov	 ecx, DWORD PTR __First$[esp+8]
  00016	52		 push	 edx
  00017	50		 push	 eax
  00018	51		 push	 ecx
  00019	e8 00 00 00 00	 call	 ??$_Uninit_copy@PAU_QUIZLIST@CQuiz@@PAU12@V?$allocator@U_QUIZLIST@CQuiz@@@std@@@std@@YAPAU_QUIZLIST@CQuiz@@PAU12@00AAV?$allocator@U_QUIZLIST@CQuiz@@@0@U_Nonscalar_ptr_iterator_tag@0@@Z ; std::_Uninit_copy<CQuiz::_QUIZLIST *,CQuiz::_QUIZLIST *,std::allocator<CQuiz::_QUIZLIST> >

; 129  : 	}

  0001e	83 c4 18	 add	 esp, 24			; 00000018H
  00021	c3		 ret	 0
??$_Uninitialized_copy@PAU_QUIZLIST@CQuiz@@PAU12@V?$allocator@U_QUIZLIST@CQuiz@@@std@@@std@@YAPAU_QUIZLIST@CQuiz@@PAU12@00AAV?$allocator@U_QUIZLIST@CQuiz@@@0@@Z ENDP ; std::_Uninitialized_copy<CQuiz::_QUIZLIST *,CQuiz::_QUIZLIST *,std::allocator<CQuiz::_QUIZLIST> >
_TEXT	ENDS
PUBLIC	??$_Copy_backward_opt@PAU_QUIZLIST@CQuiz@@PAU12@@std@@YAPAU_QUIZLIST@CQuiz@@PAU12@00U_Nonscalar_ptr_iterator_tag@0@@Z ; std::_Copy_backward_opt<CQuiz::_QUIZLIST *,CQuiz::_QUIZLIST *>
; Function compile flags: /Ogty
; File c:\program files\microsoft visual studio .net 2003\vc7\include\xutility
;	COMDAT ??$_Copy_backward_opt@PAU_QUIZLIST@CQuiz@@PAU12@@std@@YAPAU_QUIZLIST@CQuiz@@PAU12@00U_Nonscalar_ptr_iterator_tag@0@@Z
_TEXT	SEGMENT
__First$ = 8						; size = 4
__Last$ = 12						; size = 4
_pNewData$210456 = 16					; size = 4
__Dest$ = 16						; size = 4
___formal$ = 20						; size = 1
??$_Copy_backward_opt@PAU_QUIZLIST@CQuiz@@PAU12@@std@@YAPAU_QUIZLIST@CQuiz@@PAU12@00U_Nonscalar_ptr_iterator_tag@0@@Z PROC NEAR ; std::_Copy_backward_opt<CQuiz::_QUIZLIST *,CQuiz::_QUIZLIST *>, COMDAT

; 1049 : 	while (_First != _Last)

  00000	8b 44 24 04	 mov	 eax, DWORD PTR __First$[esp-4]
  00004	57		 push	 edi
  00005	8b 7c 24 0c	 mov	 edi, DWORD PTR __Last$[esp]
  00009	3b c7		 cmp	 eax, edi
  0000b	0f 84 95 00 00
	00		 je	 $L210460
  00011	53		 push	 ebx
  00012	8b 5c 24 14	 mov	 ebx, DWORD PTR __Dest$[esp+4]
  00016	55		 push	 ebp
  00017	56		 push	 esi
  00018	eb 06 8d 9b 00
	00 00 00	 npad	 8
$L205513:

; 1050 : 		*--_Dest = *--_Last;

  00020	8b 47 ec	 mov	 eax, DWORD PTR [edi-20]
  00023	83 ef 14	 sub	 edi, 20			; 00000014H
  00026	83 eb 14	 sub	 ebx, 20			; 00000014H
  00029	89 03		 mov	 DWORD PTR [ebx], eax
  0002b	8b 4f 04	 mov	 ecx, DWORD PTR [edi+4]
  0002e	8b 73 04	 mov	 esi, DWORD PTR [ebx+4]
  00031	8d 6b 04	 lea	 ebp, DWORD PTR [ebx+4]
  00034	8d 41 f0	 lea	 eax, DWORD PTR [ecx-16]
  00037	83 ee 10	 sub	 esi, 16			; 00000010H
  0003a	3b c6		 cmp	 eax, esi
  0003c	74 49		 je	 SHORT $L210448
  0003e	8b 56 0c	 mov	 edx, DWORD PTR [esi+12]
  00041	85 d2		 test	 edx, edx
  00043	7c 36		 jl	 SHORT $L210454
  00045	8b 10		 mov	 edx, DWORD PTR [eax]
  00047	3b 16		 cmp	 edx, DWORD PTR [esi]
  00049	75 30		 jne	 SHORT $L210454
  0004b	50		 push	 eax
  0004c	e8 00 00 00 00	 call	 ?CloneData@?$CSimpleStringT@D$0A@@ATL@@CAPAUCStringData@2@PAU32@@Z ; ATL::CSimpleStringT<char,0>::CloneData
  00051	89 44 24 20	 mov	 DWORD PTR _pNewData$210456[esp+16], eax
  00055	83 c4 04	 add	 esp, 4
  00058	83 c9 ff	 or	 ecx, -1
  0005b	8d 46 0c	 lea	 eax, DWORD PTR [esi+12]
  0005e	f0 0f c1 08	 lock	  xadd	 DWORD PTR [eax], ecx
  00062	49		 dec	 ecx
  00063	85 c9		 test	 ecx, ecx
  00065	7f 08		 jg	 SHORT $L210444
  00067	8b 0e		 mov	 ecx, DWORD PTR [esi]
  00069	8b 11		 mov	 edx, DWORD PTR [ecx]
  0006b	56		 push	 esi
  0006c	ff 52 04	 call	 DWORD PTR [edx+4]
$L210444:
  0006f	8b 44 24 1c	 mov	 eax, DWORD PTR _pNewData$210456[esp+12]
  00073	83 c0 10	 add	 eax, 16			; 00000010H
  00076	89 45 00	 mov	 DWORD PTR [ebp], eax
  00079	eb 0c		 jmp	 SHORT $L210448
$L210454:
  0007b	8b 51 f4	 mov	 edx, DWORD PTR [ecx-12]
  0007e	52		 push	 edx
  0007f	51		 push	 ecx
  00080	8b cd		 mov	 ecx, ebp
  00082	e8 00 00 00 00	 call	 ?SetString@?$CSimpleStringT@D$0A@@ATL@@QAEXPBDH@Z ; ATL::CSimpleStringT<char,0>::SetString
$L210448:
  00087	8b 47 08	 mov	 eax, DWORD PTR [edi+8]
  0008a	89 43 08	 mov	 DWORD PTR [ebx+8], eax
  0008d	8b 4f 0c	 mov	 ecx, DWORD PTR [edi+12]
  00090	3b 7c 24 14	 cmp	 edi, DWORD PTR __First$[esp+12]
  00094	89 4b 0c	 mov	 DWORD PTR [ebx+12], ecx
  00097	8b 57 10	 mov	 edx, DWORD PTR [edi+16]
  0009a	89 53 10	 mov	 DWORD PTR [ebx+16], edx
  0009d	75 81		 jne	 SHORT $L205513
  0009f	5e		 pop	 esi
  000a0	5d		 pop	 ebp

; 1051 : 	return (_Dest);

  000a1	8b c3		 mov	 eax, ebx
  000a3	5b		 pop	 ebx
  000a4	5f		 pop	 edi

; 1052 : 	}

  000a5	c3		 ret	 0
$L210460:

; 1051 : 	return (_Dest);

  000a6	8b 44 24 10	 mov	 eax, DWORD PTR __Dest$[esp]
  000aa	5f		 pop	 edi

; 1052 : 	}

  000ab	c3		 ret	 0
??$_Copy_backward_opt@PAU_QUIZLIST@CQuiz@@PAU12@@std@@YAPAU_QUIZLIST@CQuiz@@PAU12@00U_Nonscalar_ptr_iterator_tag@0@@Z ENDP ; std::_Copy_backward_opt<CQuiz::_QUIZLIST *,CQuiz::_QUIZLIST *>
_TEXT	ENDS
PUBLIC	??0logic_error@std@@QAE@ABV?$basic_string@DU?$char_traits@D@std@@V?$allocator@D@2@@1@@Z ; std::logic_error::logic_error
EXTRN	??0exception@@QAE@XZ:NEAR			; exception::exception
;	COMDAT xdata$x
; File c:\program files\microsoft visual studio .net 2003\vc7\include\iosfwd
xdata$x	SEGMENT
$T210563 DD	0ffffffffH
	DD	FLAT:$L210463
$T210561 DD	019930520H
	DD	01H
	DD	FLAT:$T210563
	DD	2 DUP(00H)
	DD	2 DUP(00H)
; Function compile flags: /Ogty
; File c:\program files\microsoft visual studio .net 2003\vc7\include\stdexcept
xdata$x	ENDS
;	COMDAT ??0logic_error@std@@QAE@ABV?$basic_string@DU?$char_traits@D@std@@V?$allocator@D@2@@1@@Z
_TEXT	SEGMENT
_this$ = -16						; size = 4
__$EHRec$ = -12						; size = 12
__Message$ = 8						; size = 4
??0logic_error@std@@QAE@ABV?$basic_string@DU?$char_traits@D@std@@V?$allocator@D@2@@1@@Z PROC NEAR ; std::logic_error::logic_error, COMDAT
; _this$ = ecx

; 19   : 		{	// construct from message string

  00000	6a ff		 push	 -1
  00002	68 00 00 00 00	 push	 __ehhandler$??0logic_error@std@@QAE@ABV?$basic_string@DU?$char_traits@D@std@@V?$allocator@D@2@@1@@Z
  00007	64 a1 00 00 00
	00		 mov	 eax, DWORD PTR fs:__except_list
  0000d	50		 push	 eax
  0000e	64 89 25 00 00
	00 00		 mov	 DWORD PTR fs:__except_list, esp
  00015	51		 push	 ecx
  00016	56		 push	 esi
  00017	8b f1		 mov	 esi, ecx
  00019	89 74 24 04	 mov	 DWORD PTR _this$[esp+20], esi
  0001d	e8 00 00 00 00	 call	 ??0exception@@QAE@XZ	; exception::exception
  00022	33 c0		 xor	 eax, eax
  00024	8d 4e 0c	 lea	 ecx, DWORD PTR [esi+12]
  00027	c7 06 00 00 00
	00		 mov	 DWORD PTR [esi], OFFSET FLAT:??_7logic_error@std@@6B@
  0002d	6a ff		 push	 -1
  0002f	89 41 14	 mov	 DWORD PTR [ecx+20], eax
  00032	c7 41 18 0f 00
	00 00		 mov	 DWORD PTR [ecx+24], 15	; 0000000fH
  00039	50		 push	 eax
  0003a	89 44 24 18	 mov	 DWORD PTR __$EHRec$[esp+36], eax
  0003e	88 41 04	 mov	 BYTE PTR [ecx+4], al
  00041	8b 44 24 20	 mov	 eax, DWORD PTR __Message$[esp+24]
  00045	50		 push	 eax
  00046	e8 00 00 00 00	 call	 ?assign@?$basic_string@DU?$char_traits@D@std@@V?$allocator@D@2@@std@@QAEAAV12@ABV12@II@Z ; std::basic_string<char,std::char_traits<char>,std::allocator<char> >::assign

; 20   : 		}

  0004b	8b 4c 24 08	 mov	 ecx, DWORD PTR __$EHRec$[esp+20]
  0004f	8b c6		 mov	 eax, esi
  00051	5e		 pop	 esi
  00052	64 89 0d 00 00
	00 00		 mov	 DWORD PTR fs:__except_list, ecx
  00059	83 c4 10	 add	 esp, 16			; 00000010H
  0005c	c2 04 00	 ret	 4
_TEXT	ENDS
;	COMDAT text$x
text$x	SEGMENT
$L210463:
  00000	8b 4d f0	 mov	 ecx, DWORD PTR _this$[ebp]
  00003	e9 00 00 00 00	 jmp	 ??1exception@@UAE@XZ	; exception::~exception
__ehhandler$??0logic_error@std@@QAE@ABV?$basic_string@DU?$char_traits@D@std@@V?$allocator@D@2@@1@@Z:
  00008	b8 00 00 00 00	 mov	 eax, OFFSET FLAT:$T210561
  0000d	e9 00 00 00 00	 jmp	 ___CxxFrameHandler
text$x	ENDS
??0logic_error@std@@QAE@ABV?$basic_string@DU?$char_traits@D@std@@V?$allocator@D@2@@1@@Z ENDP ; std::logic_error::logic_error
PUBLIC	??0length_error@std@@QAE@ABV?$basic_string@DU?$char_traits@D@std@@V?$allocator@D@2@@1@@Z ; std::length_error::length_error
PUBLIC	??_7length_error@std@@6B@			; std::length_error::`vftable'
PUBLIC	??_Glength_error@std@@UAEPAXI@Z			; std::length_error::`scalar deleting destructor'
EXTRN	??_Elength_error@std@@UAEPAXI@Z:NEAR		; std::length_error::`vector deleting destructor'
;	COMDAT ??_7length_error@std@@6B@
CONST	SEGMENT
??_7length_error@std@@6B@ DD FLAT:??_Elength_error@std@@UAEPAXI@Z ; std::length_error::`vftable'
	DD	FLAT:?what@logic_error@std@@UBEPBDXZ
; Function compile flags: /Ogty
CONST	ENDS
;	COMDAT ??0length_error@std@@QAE@ABV?$basic_string@DU?$char_traits@D@std@@V?$allocator@D@2@@1@@Z
_TEXT	SEGMENT
__Message$ = 8						; size = 4
??0length_error@std@@QAE@ABV?$basic_string@DU?$char_traits@D@std@@V?$allocator@D@2@@1@@Z PROC NEAR ; std::length_error::length_error, COMDAT
; _this$ = ecx

; 95   : 		{	// construct from message string

  00000	8b 44 24 04	 mov	 eax, DWORD PTR __Message$[esp-4]
  00004	56		 push	 esi
  00005	50		 push	 eax
  00006	8b f1		 mov	 esi, ecx
  00008	e8 00 00 00 00	 call	 ??0logic_error@std@@QAE@ABV?$basic_string@DU?$char_traits@D@std@@V?$allocator@D@2@@1@@Z ; std::logic_error::logic_error
  0000d	c7 06 00 00 00
	00		 mov	 DWORD PTR [esi], OFFSET FLAT:??_7length_error@std@@6B@

; 96   : 		}

  00013	8b c6		 mov	 eax, esi
  00015	5e		 pop	 esi
  00016	c2 04 00	 ret	 4
??0length_error@std@@QAE@ABV?$basic_string@DU?$char_traits@D@std@@V?$allocator@D@2@@1@@Z ENDP ; std::length_error::length_error
_TEXT	ENDS
PUBLIC	??1length_error@std@@UAE@XZ			; std::length_error::~length_error
; Function compile flags: /Ogty
;	COMDAT ??_Glength_error@std@@UAEPAXI@Z
_TEXT	SEGMENT
___flags$ = 8						; size = 4
??_Glength_error@std@@UAEPAXI@Z PROC NEAR		; std::length_error::`scalar deleting destructor', COMDAT
; _this$ = ecx
  00000	56		 push	 esi
  00001	8b f1		 mov	 esi, ecx
  00003	e8 00 00 00 00	 call	 ??1length_error@std@@UAE@XZ ; std::length_error::~length_error
  00008	f6 44 24 08 01	 test	 BYTE PTR ___flags$[esp], 1
  0000d	74 09		 je	 SHORT $L210571
  0000f	56		 push	 esi
  00010	e8 00 00 00 00	 call	 ??3@YAXPAX@Z		; operator delete
  00015	83 c4 04	 add	 esp, 4
$L210571:
  00018	8b c6		 mov	 eax, esi
  0001a	5e		 pop	 esi
  0001b	c2 04 00	 ret	 4
??_Glength_error@std@@UAEPAXI@Z ENDP			; std::length_error::`scalar deleting destructor'
; Function compile flags: /Ogty
_TEXT	ENDS
;	COMDAT ??1length_error@std@@UAE@XZ
_TEXT	SEGMENT
??1length_error@std@@UAE@XZ PROC NEAR			; std::length_error::~length_error, COMDAT
; _this$ = ecx

; 99   : 		{}	// destroy the object

  00000	56		 push	 esi
  00001	8b f1		 mov	 esi, ecx
  00003	c7 06 00 00 00
	00		 mov	 DWORD PTR [esi], OFFSET FLAT:??_7logic_error@std@@6B@
  00009	83 7e 24 10	 cmp	 DWORD PTR [esi+36], 16	; 00000010H
  0000d	72 0c		 jb	 SHORT $L210665
  0000f	8b 46 10	 mov	 eax, DWORD PTR [esi+16]
  00012	50		 push	 eax
  00013	e8 00 00 00 00	 call	 ??3@YAXPAX@Z		; operator delete
  00018	83 c4 04	 add	 esp, 4
$L210665:
  0001b	33 c0		 xor	 eax, eax
  0001d	c7 46 24 0f 00
	00 00		 mov	 DWORD PTR [esi+36], 15	; 0000000fH
  00024	89 46 20	 mov	 DWORD PTR [esi+32], eax
  00027	88 46 10	 mov	 BYTE PTR [esi+16], al
  0002a	8b ce		 mov	 ecx, esi
  0002c	5e		 pop	 esi
  0002d	e9 00 00 00 00	 jmp	 ??1exception@@UAE@XZ	; exception::~exception
??1length_error@std@@UAE@XZ ENDP			; std::length_error::~length_error
_TEXT	ENDS
PUBLIC	??0out_of_range@std@@QAE@ABV?$basic_string@DU?$char_traits@D@std@@V?$allocator@D@2@@1@@Z ; std::out_of_range::out_of_range
PUBLIC	??_7out_of_range@std@@6B@			; std::out_of_range::`vftable'
PUBLIC	??_Gout_of_range@std@@UAEPAXI@Z			; std::out_of_range::`scalar deleting destructor'
EXTRN	??_Eout_of_range@std@@UAEPAXI@Z:NEAR		; std::out_of_range::`vector deleting destructor'
;	COMDAT ??_7out_of_range@std@@6B@
CONST	SEGMENT
??_7out_of_range@std@@6B@ DD FLAT:??_Eout_of_range@std@@UAEPAXI@Z ; std::out_of_range::`vftable'
	DD	FLAT:?what@logic_error@std@@UBEPBDXZ
; Function compile flags: /Ogty
CONST	ENDS
;	COMDAT ??0out_of_range@std@@QAE@ABV?$basic_string@DU?$char_traits@D@std@@V?$allocator@D@2@@1@@Z
_TEXT	SEGMENT
__Message$ = 8						; size = 4
??0out_of_range@std@@QAE@ABV?$basic_string@DU?$char_traits@D@std@@V?$allocator@D@2@@1@@Z PROC NEAR ; std::out_of_range::out_of_range, COMDAT
; _this$ = ecx

; 118  : 		{	// construct from message string

  00000	8b 44 24 04	 mov	 eax, DWORD PTR __Message$[esp-4]
  00004	56		 push	 esi
  00005	50		 push	 eax
  00006	8b f1		 mov	 esi, ecx
  00008	e8 00 00 00 00	 call	 ??0logic_error@std@@QAE@ABV?$basic_string@DU?$char_traits@D@std@@V?$allocator@D@2@@1@@Z ; std::logic_error::logic_error
  0000d	c7 06 00 00 00
	00		 mov	 DWORD PTR [esi], OFFSET FLAT:??_7out_of_range@std@@6B@

; 119  : 		}

  00013	8b c6		 mov	 eax, esi
  00015	5e		 pop	 esi
  00016	c2 04 00	 ret	 4
??0out_of_range@std@@QAE@ABV?$basic_string@DU?$char_traits@D@std@@V?$allocator@D@2@@1@@Z ENDP ; std::out_of_range::out_of_range
_TEXT	ENDS
PUBLIC	??1out_of_range@std@@UAE@XZ			; std::out_of_range::~out_of_range
; Function compile flags: /Ogty
;	COMDAT ??_Gout_of_range@std@@UAEPAXI@Z
_TEXT	SEGMENT
___flags$ = 8						; size = 4
??_Gout_of_range@std@@UAEPAXI@Z PROC NEAR		; std::out_of_range::`scalar deleting destructor', COMDAT
; _this$ = ecx
  00000	56		 push	 esi
  00001	8b f1		 mov	 esi, ecx
  00003	e8 00 00 00 00	 call	 ??1out_of_range@std@@UAE@XZ ; std::out_of_range::~out_of_range
  00008	f6 44 24 08 01	 test	 BYTE PTR ___flags$[esp], 1
  0000d	74 09		 je	 SHORT $L210682
  0000f	56		 push	 esi
  00010	e8 00 00 00 00	 call	 ??3@YAXPAX@Z		; operator delete
  00015	83 c4 04	 add	 esp, 4
$L210682:
  00018	8b c6		 mov	 eax, esi
  0001a	5e		 pop	 esi
  0001b	c2 04 00	 ret	 4
??_Gout_of_range@std@@UAEPAXI@Z ENDP			; std::out_of_range::`scalar deleting destructor'
; Function compile flags: /Ogty
_TEXT	ENDS
;	COMDAT ??1out_of_range@std@@UAE@XZ
_TEXT	SEGMENT
??1out_of_range@std@@UAE@XZ PROC NEAR			; std::out_of_range::~out_of_range, COMDAT
; _this$ = ecx

; 122  : 		{}	// destroy the object

  00000	56		 push	 esi
  00001	8b f1		 mov	 esi, ecx
  00003	c7 06 00 00 00
	00		 mov	 DWORD PTR [esi], OFFSET FLAT:??_7logic_error@std@@6B@
  00009	83 7e 24 10	 cmp	 DWORD PTR [esi+36], 16	; 00000010H
  0000d	72 0c		 jb	 SHORT $L210775
  0000f	8b 46 10	 mov	 eax, DWORD PTR [esi+16]
  00012	50		 push	 eax
  00013	e8 00 00 00 00	 call	 ??3@YAXPAX@Z		; operator delete
  00018	83 c4 04	 add	 esp, 4
$L210775:
  0001b	33 c0		 xor	 eax, eax
  0001d	c7 46 24 0f 00
	00 00		 mov	 DWORD PTR [esi+36], 15	; 0000000fH
  00024	89 46 20	 mov	 DWORD PTR [esi+32], eax
  00027	88 46 10	 mov	 BYTE PTR [esi+16], al
  0002a	8b ce		 mov	 ecx, esi
  0002c	5e		 pop	 esi
  0002d	e9 00 00 00 00	 jmp	 ??1exception@@UAE@XZ	; exception::~exception
??1out_of_range@std@@UAE@XZ ENDP			; std::out_of_range::~out_of_range
_TEXT	ENDS
PUBLIC	??4?$CStringT@DV?$StrTraitMFC@DV?$ChTraitsCRT@D@ATL@@@@@ATL@@QAEAAV01@PBD@Z ; ATL::CStringT<char,StrTraitMFC<char,ATL::ChTraitsCRT<char> > >::operator=
; Function compile flags: /Ogty
; File c:\program files\microsoft visual studio .net 2003\vc7\atlmfc\include\cstringt.h
;	COMDAT ??4?$CStringT@DV?$StrTraitMFC@DV?$ChTraitsCRT@D@ATL@@@@@ATL@@QAEAAV01@PBD@Z
_TEXT	SEGMENT
_pszSrc$ = 8						; size = 4
??4?$CStringT@DV?$StrTraitMFC@DV?$ChTraitsCRT@D@ATL@@@@@ATL@@QAEAAV01@PBD@Z PROC NEAR ; ATL::CStringT<char,StrTraitMFC<char,ATL::ChTraitsCRT<char> > >::operator=, COMDAT
; _this$ = ecx

; 983  : 		CThisSimpleString::operator=( pszSrc );

  00000	8b 54 24 04	 mov	 edx, DWORD PTR _pszSrc$[esp-4]
  00004	85 d2		 test	 edx, edx
  00006	57		 push	 edi
  00007	8b f9		 mov	 edi, ecx
  00009	75 0f		 jne	 SHORT $L210807
  0000b	33 c0		 xor	 eax, eax
  0000d	50		 push	 eax
  0000e	52		 push	 edx
  0000f	e8 00 00 00 00	 call	 ?SetString@?$CSimpleStringT@D$0A@@ATL@@QAEXPBDH@Z ; ATL::CSimpleStringT<char,0>::SetString

; 984  : 
; 985  : 		return( *this );

  00014	8b c7		 mov	 eax, edi
  00016	5f		 pop	 edi

; 986  : 	}

  00017	c2 04 00	 ret	 4

; 983  : 		CThisSimpleString::operator=( pszSrc );

$L210807:
  0001a	8b c2		 mov	 eax, edx
  0001c	56		 push	 esi
  0001d	8d 70 01	 lea	 esi, DWORD PTR [eax+1]
$L210809:
  00020	8a 08		 mov	 cl, BYTE PTR [eax]
  00022	40		 inc	 eax
  00023	84 c9		 test	 cl, cl
  00025	75 f9		 jne	 SHORT $L210809
  00027	2b c6		 sub	 eax, esi
  00029	5e		 pop	 esi
  0002a	50		 push	 eax
  0002b	52		 push	 edx
  0002c	8b cf		 mov	 ecx, edi
  0002e	e8 00 00 00 00	 call	 ?SetString@?$CSimpleStringT@D$0A@@ATL@@QAEXPBDH@Z ; ATL::CSimpleStringT<char,0>::SetString

; 984  : 
; 985  : 		return( *this );

  00033	8b c7		 mov	 eax, edi
  00035	5f		 pop	 edi

; 986  : 	}

  00036	c2 04 00	 ret	 4
??4?$CStringT@DV?$StrTraitMFC@DV?$ChTraitsCRT@D@ATL@@@@@ATL@@QAEAAV01@PBD@Z ENDP ; ATL::CStringT<char,StrTraitMFC<char,ATL::ChTraitsCRT<char> > >::operator=
_TEXT	ENDS
PUBLIC	??0?$basic_string@DU?$char_traits@D@std@@V?$allocator@D@2@@std@@QAE@PBD@Z ; std::basic_string<char,std::char_traits<char>,std::allocator<char> >::basic_string<char,std::char_traits<char>,std::allocator<char> >
; Function compile flags: /Ogty
; File c:\program files\microsoft visual studio .net 2003\vc7\include\xstring
;	COMDAT ??0?$basic_string@DU?$char_traits@D@std@@V?$allocator@D@2@@std@@QAE@PBD@Z
_TEXT	SEGMENT
__Ptr$ = 8						; size = 4
??0?$basic_string@DU?$char_traits@D@std@@V?$allocator@D@2@@std@@QAE@PBD@Z PROC NEAR ; std::basic_string<char,std::char_traits<char>,std::allocator<char> >::basic_string<char,std::char_traits<char>,std::allocator<char> >, COMDAT
; _this$ = ecx

; 361  : 		_Tidy();
; 362  : 		assign(_Ptr);

  00000	8b 54 24 04	 mov	 edx, DWORD PTR __Ptr$[esp-4]
  00004	56		 push	 esi
  00005	8b f1		 mov	 esi, ecx
  00007	8b c2		 mov	 eax, edx
  00009	57		 push	 edi
  0000a	c7 46 18 0f 00
	00 00		 mov	 DWORD PTR [esi+24], 15	; 0000000fH
  00011	c7 46 14 00 00
	00 00		 mov	 DWORD PTR [esi+20], 0
  00018	c6 46 04 00	 mov	 BYTE PTR [esi+4], 0
  0001c	8d 78 01	 lea	 edi, DWORD PTR [eax+1]
  0001f	90		 npad	 1
$L210884:
  00020	8a 08		 mov	 cl, BYTE PTR [eax]
  00022	40		 inc	 eax
  00023	84 c9		 test	 cl, cl
  00025	75 f9		 jne	 SHORT $L210884
  00027	2b c7		 sub	 eax, edi
  00029	50		 push	 eax
  0002a	52		 push	 edx
  0002b	8b ce		 mov	 ecx, esi
  0002d	e8 00 00 00 00	 call	 ?assign@?$basic_string@DU?$char_traits@D@std@@V?$allocator@D@2@@std@@QAEAAV12@PBDI@Z ; std::basic_string<char,std::char_traits<char>,std::allocator<char> >::assign
  00032	5f		 pop	 edi

; 363  : 		}

  00033	8b c6		 mov	 eax, esi
  00035	5e		 pop	 esi
  00036	c2 04 00	 ret	 4
??0?$basic_string@DU?$char_traits@D@std@@V?$allocator@D@2@@std@@QAE@PBD@Z ENDP ; std::basic_string<char,std::char_traits<char>,std::allocator<char> >::basic_string<char,std::char_traits<char>,std::allocator<char> >
_TEXT	ENDS
PUBLIC	??_C@_0BM@PAPJHAGI@invalid?5map?1set?$DMT?$DO?5iterator?$AA@ ; `string'
PUBLIC	?erase@?$_Tree@V?$_Tmap_traits@KU_WORLDDATA@CQuizDBCtrl@@U?$less@K@std@@V?$allocator@U?$pair@$$CBKU_WORLDDATA@CQuizDBCtrl@@@std@@@4@$0A@@std@@@std@@QAE?AViterator@12@V312@@Z ; std::_Tree<std::_Tmap_traits<unsigned long,CQuizDBCtrl::_WORLDDATA,std::less<unsigned long>,std::allocator<std::pair<unsigned long const ,CQuizDBCtrl::_WORLDDATA> >,0> >::erase
PUBLIC	__TI3?AVout_of_range@std@@
PUBLIC	__CTA3?AVout_of_range@std@@
PUBLIC	??_R0?AVout_of_range@std@@@8			; std::out_of_range `RTTI Type Descriptor'
PUBLIC	__CT??_R0?AVout_of_range@std@@@8??0out_of_range@std@@QAE@ABV01@@Z40
PUBLIC	??_R0?AVlogic_error@std@@@8			; std::logic_error `RTTI Type Descriptor'
PUBLIC	__CT??_R0?AVlogic_error@std@@@8??0logic_error@std@@QAE@ABV01@@Z40
PUBLIC	??_R0?AVexception@@@8				; exception `RTTI Type Descriptor'
PUBLIC	__CT??_R0?AVexception@@@8??0exception@@QAE@ABV0@@Z12
PUBLIC	??0logic_error@std@@QAE@ABV01@@Z		; std::logic_error::logic_error
PUBLIC	??0out_of_range@std@@QAE@ABV01@@Z		; std::out_of_range::out_of_range
EXTRN	??0exception@@QAE@ABV0@@Z:NEAR			; exception::exception
EXTRN	??_7type_info@@6B@:DWORD			; type_info::`vftable'
;	COMDAT xdata$x
; File c:\program files\microsoft visual studio .net 2003\vc7\include\xmemory
xdata$x	SEGMENT
$T211379 DD	0ffffffffH
	DD	FLAT:$L210893
$T211371 DD	019930520H
	DD	01H
	DD	FLAT:$T211379
	DD	2 DUP(00H)
	DD	2 DUP(00H)
xdata$x	ENDS
;	COMDAT ??_C@_0BM@PAPJHAGI@invalid?5map?1set?$DMT?$DO?5iterator?$AA@
CONST	SEGMENT
??_C@_0BM@PAPJHAGI@invalid?5map?1set?$DMT?$DO?5iterator?$AA@ DB 'invalid '
	DB	'map/set<T> iterator', 00H			; `string'
CONST	ENDS
;	COMDAT __TI3?AVout_of_range@std@@
xdata$x	SEGMENT
__TI3?AVout_of_range@std@@ DD 00H
	DD	FLAT:??1out_of_range@std@@UAE@XZ
	DD	00H
	DD	FLAT:__CTA3?AVout_of_range@std@@
xdata$x	ENDS
;	COMDAT __CTA3?AVout_of_range@std@@
xdata$x	SEGMENT
__CTA3?AVout_of_range@std@@ DD 03H
	DD	FLAT:__CT??_R0?AVout_of_range@std@@@8??0out_of_range@std@@QAE@ABV01@@Z40
	DD	FLAT:__CT??_R0?AVlogic_error@std@@@8??0logic_error@std@@QAE@ABV01@@Z40
	DD	FLAT:__CT??_R0?AVexception@@@8??0exception@@QAE@ABV0@@Z12
xdata$x	ENDS
;	COMDAT __CT??_R0?AVout_of_range@std@@@8??0out_of_range@std@@QAE@ABV01@@Z40
xdata$x	SEGMENT
__CT??_R0?AVout_of_range@std@@@8??0out_of_range@std@@QAE@ABV01@@Z40 DD 00H
	DD	FLAT:??_R0?AVout_of_range@std@@@8
	DD	00H
	DD	0ffffffffH
	ORG $+4
	DD	028H
	DD	FLAT:??0out_of_range@std@@QAE@ABV01@@Z
xdata$x	ENDS
;	COMDAT ??_R0?AVout_of_range@std@@@8
_DATA	SEGMENT
??_R0?AVout_of_range@std@@@8 DD FLAT:??_7type_info@@6B@	; std::out_of_range `RTTI Type Descriptor'
	DD	00H
	DB	'.?AVout_of_range@std@@', 00H
_DATA	ENDS
;	COMDAT __CT??_R0?AVlogic_error@std@@@8??0logic_error@std@@QAE@ABV01@@Z40
xdata$x	SEGMENT
__CT??_R0?AVlogic_error@std@@@8??0logic_error@std@@QAE@ABV01@@Z40 DD 00H
	DD	FLAT:??_R0?AVlogic_error@std@@@8
	DD	00H
	DD	0ffffffffH
	ORG $+4
	DD	028H
	DD	FLAT:??0logic_error@std@@QAE@ABV01@@Z
xdata$x	ENDS
;	COMDAT ??_R0?AVlogic_error@std@@@8
_DATA	SEGMENT
??_R0?AVlogic_error@std@@@8 DD FLAT:??_7type_info@@6B@	; std::logic_error `RTTI Type Descriptor'
	DD	00H
	DB	'.?AVlogic_error@std@@', 00H
_DATA	ENDS
;	COMDAT __CT??_R0?AVexception@@@8??0exception@@QAE@ABV0@@Z12
xdata$x	SEGMENT
__CT??_R0?AVexception@@@8??0exception@@QAE@ABV0@@Z12 DD 00H
	DD	FLAT:??_R0?AVexception@@@8
	DD	00H
	DD	0ffffffffH
	ORG $+4
	DD	0cH
	DD	FLAT:??0exception@@QAE@ABV0@@Z
xdata$x	ENDS
;	COMDAT ??_R0?AVexception@@@8
_DATA	SEGMENT
??_R0?AVexception@@@8 DD FLAT:??_7type_info@@6B@	; exception `RTTI Type Descriptor'
	DD	00H
	DB	'.?AVexception@@', 00H
; Function compile flags: /Ogty
; File c:\program files\microsoft visual studio .net 2003\vc7\include\xtree
_DATA	ENDS
;	COMDAT ?erase@?$_Tree@V?$_Tmap_traits@KU_WORLDDATA@CQuizDBCtrl@@U?$less@K@std@@V?$allocator@U?$pair@$$CBKU_WORLDDATA@CQuizDBCtrl@@@std@@@4@$0A@@std@@@std@@QAE?AViterator@12@V312@@Z
_TEXT	SEGMENT
__Erasednode$ = -84					; size = 4
$T210888 = -80						; size = 28
$T210887 = -52						; size = 40
__$EHRec$ = -12						; size = 12
___$ReturnUdt$ = 8					; size = 4
__Where$ = 12						; size = 4
?erase@?$_Tree@V?$_Tmap_traits@KU_WORLDDATA@CQuizDBCtrl@@U?$less@K@std@@V?$allocator@U?$pair@$$CBKU_WORLDDATA@CQuizDBCtrl@@@std@@@4@$0A@@std@@@std@@QAE?AViterator@12@V312@@Z PROC NEAR ; std::_Tree<std::_Tmap_traits<unsigned long,CQuizDBCtrl::_WORLDDATA,std::less<unsigned long>,std::allocator<std::pair<unsigned long const ,CQuizDBCtrl::_WORLDDATA> >,0> >::erase, COMDAT
; _this$ = ecx

; 590  : 		{	// erase element at _Where

  00000	64 a1 00 00 00
	00		 mov	 eax, DWORD PTR fs:__except_list
  00006	6a ff		 push	 -1
  00008	68 00 00 00 00	 push	 __ehhandler$?erase@?$_Tree@V?$_Tmap_traits@KU_WORLDDATA@CQuizDBCtrl@@U?$less@K@std@@V?$allocator@U?$pair@$$CBKU_WORLDDATA@CQuizDBCtrl@@@std@@@4@$0A@@std@@@std@@QAE?AViterator@12@V312@@Z
  0000d	50		 push	 eax

; 591  : 		if (_Isnil(_Where._Mynode()))

  0000e	8b 44 24 14	 mov	 eax, DWORD PTR __Where$[esp+8]
  00012	64 89 25 00 00
	00 00		 mov	 DWORD PTR fs:__except_list, esp
  00019	83 ec 48	 sub	 esp, 72			; 00000048H
  0001c	55		 push	 ebp
  0001d	8b e9		 mov	 ebp, ecx
  0001f	8a 48 2d	 mov	 cl, BYTE PTR [eax+45]
  00022	84 c9		 test	 cl, cl
  00024	56		 push	 esi
  00025	74 4c		 je	 SHORT $L204315

; 592  : 			_THROW(out_of_range, "invalid map/set<T> iterator");

  00027	6a 1b		 push	 27			; 0000001bH
  00029	33 f6		 xor	 esi, esi
  0002b	68 00 00 00 00	 push	 OFFSET FLAT:??_C@_0BM@PAPJHAGI@invalid?5map?1set?$DMT?$DO?5iterator?$AA@
  00030	8d 4c 24 14	 lea	 ecx, DWORD PTR $T210888[esp+100]
  00034	c7 44 24 2c 0f
	00 00 00	 mov	 DWORD PTR $T210888[esp+124], 15 ; 0000000fH
  0003c	89 74 24 28	 mov	 DWORD PTR $T210888[esp+120], esi
  00040	c6 44 24 18 00	 mov	 BYTE PTR $T210888[esp+104], 0
  00045	e8 00 00 00 00	 call	 ?assign@?$basic_string@DU?$char_traits@D@std@@V?$allocator@D@2@@std@@QAEAAV12@PBDI@Z ; std::basic_string<char,std::char_traits<char>,std::allocator<char> >::assign
  0004a	8d 44 24 0c	 lea	 eax, DWORD PTR $T210888[esp+92]
  0004e	50		 push	 eax
  0004f	8d 4c 24 2c	 lea	 ecx, DWORD PTR $T210887[esp+96]
  00053	89 74 24 5c	 mov	 DWORD PTR __$EHRec$[esp+104], esi
  00057	e8 00 00 00 00	 call	 ??0logic_error@std@@QAE@ABV?$basic_string@DU?$char_traits@D@std@@V?$allocator@D@2@@1@@Z ; std::logic_error::logic_error
  0005c	68 00 00 00 00	 push	 OFFSET FLAT:__TI3?AVout_of_range@std@@
  00061	8d 4c 24 2c	 lea	 ecx, DWORD PTR $T210887[esp+96]
  00065	51		 push	 ecx
  00066	c7 44 24 30 00
	00 00 00	 mov	 DWORD PTR $T210887[esp+100], OFFSET FLAT:??_7out_of_range@std@@6B@
  0006e	e8 00 00 00 00	 call	 __CxxThrowException@8
$L204315:
  00073	53		 push	 ebx

; 593  : 		_Nodeptr _Erasednode = _Where._Mynode();	// node to erase

  00074	8b d8		 mov	 ebx, eax
  00076	57		 push	 edi

; 594  : 		++_Where;	// save successor iterator for return

  00077	8d 4c 24 6c	 lea	 ecx, DWORD PTR __Where$[esp+96]
  0007b	89 5c 24 10	 mov	 DWORD PTR __Erasednode$[esp+100], ebx
  0007f	e8 00 00 00 00	 call	 ?_Inc@const_iterator@?$_Tree@V?$_Tmap_traits@KU_WORLDDATA@CQuizDBCtrl@@U?$less@K@std@@V?$allocator@U?$pair@$$CBKU_WORLDDATA@CQuizDBCtrl@@@std@@@4@$0A@@std@@@std@@QAEXXZ ; std::_Tree<std::_Tmap_traits<unsigned long,CQuizDBCtrl::_WORLDDATA,std::less<unsigned long>,std::allocator<std::pair<unsigned long const ,CQuizDBCtrl::_WORLDDATA> >,0> >::const_iterator::_Inc

; 595  : 
; 596  : 		_Nodeptr _Fixnode;	// the node to recolor as needed
; 597  : 		_Nodeptr _Fixnodeparent;	// parent of _Fixnode (which may be nil)
; 598  : 		_Nodeptr _Pnode = _Erasednode;
; 599  : 
; 600  : 		if (_Isnil(_Left(_Pnode)))

  00084	8b 03		 mov	 eax, DWORD PTR [ebx]
  00086	8a 48 2d	 mov	 cl, BYTE PTR [eax+45]
  00089	84 c9		 test	 cl, cl
  0008b	74 05		 je	 SHORT $L204323

; 601  : 			_Fixnode = _Right(_Pnode);	// must stitch up right subtree

  0008d	8b 7b 08	 mov	 edi, DWORD PTR [ebx+8]

; 602  : 		else if (_Isnil(_Right(_Pnode)))

  00090	eb 19		 jmp	 SHORT $L211374
$L204323:
  00092	8b 53 08	 mov	 edx, DWORD PTR [ebx+8]
  00095	8a 4a 2d	 mov	 cl, BYTE PTR [edx+45]
  00098	84 c9		 test	 cl, cl
  0009a	74 04		 je	 SHORT $L204325

; 603  : 			_Fixnode = _Left(_Pnode);	// must stitch up left subtree

  0009c	8b f8		 mov	 edi, eax

; 604  : 		else

  0009e	eb 0b		 jmp	 SHORT $L211374
$L204325:

; 605  : 			{	// two subtrees, must lift successor node to replace erased
; 606  : 			_Pnode = _Where._Mynode();	// _Pnode is successor node
; 607  : 			_Fixnode = _Right(_Pnode);	// _Fixnode is its only subtree

  000a0	8b 4c 24 6c	 mov	 ecx, DWORD PTR __Where$[esp+96]

; 608  : 			}
; 609  : 
; 610  : 		if (_Pnode == _Erasednode)

  000a4	3b cb		 cmp	 ecx, ebx
  000a6	8b 79 08	 mov	 edi, DWORD PTR [ecx+8]
  000a9	75 6e		 jne	 SHORT $L204327
$L211374:

; 611  : 			{	// at most one subtree, relink it
; 612  : 			_Fixnodeparent = _Parent(_Erasednode);
; 613  : 			if (!_Isnil(_Fixnode))

  000ab	8a 47 2d	 mov	 al, BYTE PTR [edi+45]
  000ae	84 c0		 test	 al, al
  000b0	8b 73 04	 mov	 esi, DWORD PTR [ebx+4]
  000b3	75 03		 jne	 SHORT $L204328

; 614  : 				_Parent(_Fixnode) = _Fixnodeparent;	// link up

  000b5	89 77 04	 mov	 DWORD PTR [edi+4], esi
$L204328:

; 615  : 
; 616  : 			if (_Root() == _Erasednode)

  000b8	8b 45 04	 mov	 eax, DWORD PTR [ebp+4]
  000bb	39 58 04	 cmp	 DWORD PTR [eax+4], ebx
  000be	75 05		 jne	 SHORT $L204329

; 617  : 				_Root() = _Fixnode;	// link down from root

  000c0	89 78 04	 mov	 DWORD PTR [eax+4], edi

; 618  : 			else if (_Left(_Fixnodeparent) == _Erasednode)

  000c3	eb 0b		 jmp	 SHORT $L204332
$L204329:
  000c5	39 1e		 cmp	 DWORD PTR [esi], ebx
  000c7	75 04		 jne	 SHORT $L204331

; 619  : 				_Left(_Fixnodeparent) = _Fixnode;	// link down to left

  000c9	89 3e		 mov	 DWORD PTR [esi], edi

; 620  : 			else

  000cb	eb 03		 jmp	 SHORT $L204332
$L204331:

; 621  : 				_Right(_Fixnodeparent) = _Fixnode;	// link down to right

  000cd	89 7e 08	 mov	 DWORD PTR [esi+8], edi
$L204332:

; 622  : 
; 623  : 			if (_Lmost() == _Erasednode)

  000d0	8b 5d 04	 mov	 ebx, DWORD PTR [ebp+4]
  000d3	8b 03		 mov	 eax, DWORD PTR [ebx]
  000d5	3b 44 24 10	 cmp	 eax, DWORD PTR __Erasednode$[esp+100]
  000d9	75 16		 jne	 SHORT $L204333

; 624  : 				_Lmost() = _Isnil(_Fixnode)
; 625  : 					? _Fixnodeparent	// smallest is parent of erased node
; 626  : 					: _Min(_Fixnode);	// smallest in relinked subtree

  000db	8a 47 2d	 mov	 al, BYTE PTR [edi+45]
  000de	84 c0		 test	 al, al
  000e0	74 04		 je	 SHORT $L210889
  000e2	8b c6		 mov	 eax, esi
  000e4	eb 09		 jmp	 SHORT $L210890
$L210889:
  000e6	57		 push	 edi
  000e7	e8 00 00 00 00	 call	 ?_Min@?$_Tree@V?$_Tmap_traits@KU_WORLDDATA@CQuizDBCtrl@@U?$less@K@std@@V?$allocator@U?$pair@$$CBKU_WORLDDATA@CQuizDBCtrl@@@std@@@4@$0A@@std@@@std@@KAPAU_Node@?$_Tree_nod@V?$_Tmap_traits@KU_WORLDDATA@CQuizDBCtrl@@U?$less@K@std@@V?$allocator@U?$pair@$$CBKU_WORLDDATA@CQuizDBCtrl@@@std@@@4@$0A@@std@@@2@PAU342@@Z ; std::_Tree<std::_Tmap_traits<unsigned long,CQuizDBCtrl::_WORLDDATA,std::less<unsigned long>,std::allocator<std::pair<unsigned long const ,CQuizDBCtrl::_WORLDDATA> >,0> >::_Min
  000ec	83 c4 04	 add	 esp, 4
$L210890:
  000ef	89 03		 mov	 DWORD PTR [ebx], eax
$L204333:

; 627  : 
; 628  : 			if (_Rmost() == _Erasednode)

  000f1	8b 5d 04	 mov	 ebx, DWORD PTR [ebp+4]
  000f4	8b 4c 24 10	 mov	 ecx, DWORD PTR __Erasednode$[esp+100]
  000f8	39 4b 08	 cmp	 DWORD PTR [ebx+8], ecx
  000fb	75 74		 jne	 SHORT $L211207

; 629  : 				_Rmost() = _Isnil(_Fixnode)
; 630  : 					? _Fixnodeparent	// largest is parent of erased node
; 631  : 					: _Max(_Fixnode);	// largest in relinked subtree

  000fd	8a 47 2d	 mov	 al, BYTE PTR [edi+45]
  00100	84 c0		 test	 al, al
  00102	74 07		 je	 SHORT $L210891
  00104	8b c6		 mov	 eax, esi
  00106	89 43 08	 mov	 DWORD PTR [ebx+8], eax

; 632  : 			}
; 633  : 		else

  00109	eb 66		 jmp	 SHORT $L211207
$L210891:

; 629  : 				_Rmost() = _Isnil(_Fixnode)
; 630  : 					? _Fixnodeparent	// largest is parent of erased node
; 631  : 					: _Max(_Fixnode);	// largest in relinked subtree

  0010b	57		 push	 edi
  0010c	e8 00 00 00 00	 call	 ?_Max@?$_Tree@V?$_Tmap_traits@KU_WORLDDATA@CQuizDBCtrl@@U?$less@K@std@@V?$allocator@U?$pair@$$CBKU_WORLDDATA@CQuizDBCtrl@@@std@@@4@$0A@@std@@@std@@KAPAU_Node@?$_Tree_nod@V?$_Tmap_traits@KU_WORLDDATA@CQuizDBCtrl@@U?$less@K@std@@V?$allocator@U?$pair@$$CBKU_WORLDDATA@CQuizDBCtrl@@@std@@@4@$0A@@std@@@2@PAU342@@Z ; std::_Tree<std::_Tmap_traits<unsigned long,CQuizDBCtrl::_WORLDDATA,std::less<unsigned long>,std::allocator<std::pair<unsigned long const ,CQuizDBCtrl::_WORLDDATA> >,0> >::_Max
  00111	83 c4 04	 add	 esp, 4
  00114	89 43 08	 mov	 DWORD PTR [ebx+8], eax

; 632  : 			}
; 633  : 		else

  00117	eb 58		 jmp	 SHORT $L211207
$L204327:

; 634  : 			{	// erased has two subtrees, _Pnode is successor to erased
; 635  : 			_Parent(_Left(_Erasednode)) = _Pnode;	// link left up

  00119	89 48 04	 mov	 DWORD PTR [eax+4], ecx

; 636  : 			_Left(_Pnode) = _Left(_Erasednode);	// link successor down

  0011c	8b 13		 mov	 edx, DWORD PTR [ebx]
  0011e	89 11		 mov	 DWORD PTR [ecx], edx

; 637  : 
; 638  : 			if (_Pnode == _Right(_Erasednode))

  00120	3b 4b 08	 cmp	 ecx, DWORD PTR [ebx+8]
  00123	75 04		 jne	 SHORT $L204336

; 639  : 				_Fixnodeparent = _Pnode;	// successor is next to erased

  00125	8b f1		 mov	 esi, ecx

; 640  : 			else

  00127	eb 1b		 jmp	 SHORT $L204337
$L204336:

; 641  : 				{	// successor further down, link in place of erased
; 642  : 				_Fixnodeparent = _Parent(_Pnode);	// parent is successor's
; 643  : 				if (!_Isnil(_Fixnode))

  00129	8a 47 2d	 mov	 al, BYTE PTR [edi+45]
  0012c	84 c0		 test	 al, al
  0012e	8b 71 04	 mov	 esi, DWORD PTR [ecx+4]
  00131	75 03		 jne	 SHORT $L204338

; 644  : 					_Parent(_Fixnode) = _Fixnodeparent;	// link fix up

  00133	89 77 04	 mov	 DWORD PTR [edi+4], esi
$L204338:

; 645  : 				_Left(_Fixnodeparent) = _Fixnode;	// link fix down

  00136	89 3e		 mov	 DWORD PTR [esi], edi

; 646  : 				_Right(_Pnode) = _Right(_Erasednode);	// link successor down

  00138	8b 43 08	 mov	 eax, DWORD PTR [ebx+8]
  0013b	89 41 08	 mov	 DWORD PTR [ecx+8], eax

; 647  : 				_Parent(_Right(_Erasednode)) = _Pnode;	// link right up

  0013e	8b 53 08	 mov	 edx, DWORD PTR [ebx+8]
  00141	89 4a 04	 mov	 DWORD PTR [edx+4], ecx
$L204337:

; 648  : 				}
; 649  : 
; 650  : 			if (_Root() == _Erasednode)

  00144	8b 45 04	 mov	 eax, DWORD PTR [ebp+4]
  00147	39 58 04	 cmp	 DWORD PTR [eax+4], ebx
  0014a	75 05		 jne	 SHORT $L204339

; 651  : 				_Root() = _Pnode;	// link down from root

  0014c	89 48 04	 mov	 DWORD PTR [eax+4], ecx

; 652  : 			else if (_Left(_Parent(_Erasednode)) == _Erasednode)

  0014f	eb 0e		 jmp	 SHORT $L204342
$L204339:
  00151	8b 43 04	 mov	 eax, DWORD PTR [ebx+4]
  00154	39 18		 cmp	 DWORD PTR [eax], ebx
  00156	75 04		 jne	 SHORT $L204341

; 653  : 				_Left(_Parent(_Erasednode)) = _Pnode;	// link down to left

  00158	89 08		 mov	 DWORD PTR [eax], ecx

; 654  : 			else

  0015a	eb 03		 jmp	 SHORT $L204342
$L204341:

; 655  : 				_Right(_Parent(_Erasednode)) = _Pnode;	// link down to right

  0015c	89 48 08	 mov	 DWORD PTR [eax+8], ecx
$L204342:

; 656  : 
; 657  : 			_Parent(_Pnode) = _Parent(_Erasednode);	// link successor up

  0015f	8b 43 04	 mov	 eax, DWORD PTR [ebx+4]
  00162	89 41 04	 mov	 DWORD PTR [ecx+4], eax

; 658  : 			std::swap(_Color(_Pnode), _Color(_Erasednode));	// recolor it

  00165	8a 53 2c	 mov	 dl, BYTE PTR [ebx+44]
  00168	8a 41 2c	 mov	 al, BYTE PTR [ecx+44]
  0016b	88 51 2c	 mov	 BYTE PTR [ecx+44], dl
  0016e	88 43 2c	 mov	 BYTE PTR [ebx+44], al
$L211207:

; 659  : 			}
; 660  : 
; 661  : 		if (_Color(_Erasednode) == _Black)

  00171	8b 44 24 10	 mov	 eax, DWORD PTR __Erasednode$[esp+100]
  00175	8a 48 2c	 mov	 cl, BYTE PTR [eax+44]
  00178	b3 01		 mov	 bl, 1
  0017a	3a cb		 cmp	 cl, bl
  0017c	0f 85 ff 00 00
	00		 jne	 $L204343

; 662  : 			{	// erasing black link, must recolor/rebalance tree
; 663  : 			for (; _Fixnode != _Root() && _Color(_Fixnode) == _Black;
; 664  : 				_Fixnodeparent = _Parent(_Fixnode))

  00182	8b 4d 04	 mov	 ecx, DWORD PTR [ebp+4]
  00185	3b 79 04	 cmp	 edi, DWORD PTR [ecx+4]
  00188	0f 84 f0 00 00
	00		 je	 $L204346
  0018e	8b ff		 npad	 2
$L204344:
  00190	38 5f 2c	 cmp	 BYTE PTR [edi+44], bl
  00193	0f 85 e5 00 00
	00		 jne	 $L204346

; 665  : 				if (_Fixnode == _Left(_Fixnodeparent))

  00199	8b 06		 mov	 eax, DWORD PTR [esi]
  0019b	3b f8		 cmp	 edi, eax
  0019d	75 67		 jne	 SHORT $L204347

; 666  : 					{	// fixup left subtree
; 667  : 					_Pnode = _Right(_Fixnodeparent);

  0019f	8b 46 08	 mov	 eax, DWORD PTR [esi+8]

; 668  : 					if (_Color(_Pnode) == _Red)

  001a2	8a 48 2c	 mov	 cl, BYTE PTR [eax+44]
  001a5	84 c9		 test	 cl, cl
  001a7	75 12		 jne	 SHORT $L204348

; 669  : 						{	// rotate red up from right subtree
; 670  : 						_Color(_Pnode) = _Black;

  001a9	88 58 2c	 mov	 BYTE PTR [eax+44], bl

; 671  : 						_Color(_Fixnodeparent) = _Red;
; 672  : 						_Lrotate(_Fixnodeparent);

  001ac	56		 push	 esi
  001ad	8b cd		 mov	 ecx, ebp
  001af	c6 46 2c 00	 mov	 BYTE PTR [esi+44], 0
  001b3	e8 00 00 00 00	 call	 ?_Lrotate@?$_Tree@V?$_Tmap_traits@KU_WORLDDATA@CQuizDBCtrl@@U?$less@K@std@@V?$allocator@U?$pair@$$CBKU_WORLDDATA@CQuizDBCtrl@@@std@@@4@$0A@@std@@@std@@IAEXPAU_Node@?$_Tree_nod@V?$_Tmap_traits@KU_WORLDDATA@CQuizDBCtrl@@U?$less@K@std@@V?$allocator@U?$pair@$$CBKU_WORLDDATA@CQuizDBCtrl@@@std@@@4@$0A@@std@@@2@@Z ; std::_Tree<std::_Tmap_traits<unsigned long,CQuizDBCtrl::_WORLDDATA,std::less<unsigned long>,std::allocator<std::pair<unsigned long const ,CQuizDBCtrl::_WORLDDATA> >,0> >::_Lrotate

; 673  : 						_Pnode = _Right(_Fixnodeparent);

  001b8	8b 46 08	 mov	 eax, DWORD PTR [esi+8]
$L204348:

; 674  : 						}
; 675  : 
; 676  : 					if (_Isnil(_Pnode))

  001bb	8a 48 2d	 mov	 cl, BYTE PTR [eax+45]
  001be	84 c9		 test	 cl, cl

; 677  : 						_Fixnode = _Fixnodeparent;	// shouldn't happen
; 678  : 					else if (_Color(_Left(_Pnode)) == _Black

  001c0	75 76		 jne	 SHORT $L211377

; 679  : 						&& _Color(_Right(_Pnode)) == _Black)

  001c2	8b 10		 mov	 edx, DWORD PTR [eax]
  001c4	38 5a 2c	 cmp	 BYTE PTR [edx+44], bl
  001c7	75 08		 jne	 SHORT $L204351
  001c9	8b 48 08	 mov	 ecx, DWORD PTR [eax+8]
  001cc	38 59 2c	 cmp	 BYTE PTR [ecx+44], bl
  001cf	74 63		 je	 SHORT $L211378
$L204351:

; 680  : 						{	// redden right subtree with black children
; 681  : 						_Color(_Pnode) = _Red;
; 682  : 						_Fixnode = _Fixnodeparent;
; 683  : 						}
; 684  : 					else
; 685  : 						{	// must rearrange right subtree
; 686  : 						if (_Color(_Right(_Pnode)) == _Black)

  001d1	8b 48 08	 mov	 ecx, DWORD PTR [eax+8]
  001d4	38 59 2c	 cmp	 BYTE PTR [ecx+44], bl
  001d7	75 14		 jne	 SHORT $L204353

; 687  : 							{	// rotate red up from left sub-subtree
; 688  : 							_Color(_Left(_Pnode)) = _Black;

  001d9	8b 10		 mov	 edx, DWORD PTR [eax]
  001db	88 5a 2c	 mov	 BYTE PTR [edx+44], bl

; 689  : 							_Color(_Pnode) = _Red;
; 690  : 							_Rrotate(_Pnode);

  001de	50		 push	 eax
  001df	8b cd		 mov	 ecx, ebp
  001e1	c6 40 2c 00	 mov	 BYTE PTR [eax+44], 0
  001e5	e8 00 00 00 00	 call	 ?_Rrotate@?$_Tree@V?$_Tmap_traits@KU_WORLDDATA@CQuizDBCtrl@@U?$less@K@std@@V?$allocator@U?$pair@$$CBKU_WORLDDATA@CQuizDBCtrl@@@std@@@4@$0A@@std@@@std@@IAEXPAU_Node@?$_Tree_nod@V?$_Tmap_traits@KU_WORLDDATA@CQuizDBCtrl@@U?$less@K@std@@V?$allocator@U?$pair@$$CBKU_WORLDDATA@CQuizDBCtrl@@@std@@@4@$0A@@std@@@2@@Z ; std::_Tree<std::_Tmap_traits<unsigned long,CQuizDBCtrl::_WORLDDATA,std::less<unsigned long>,std::allocator<std::pair<unsigned long const ,CQuizDBCtrl::_WORLDDATA> >,0> >::_Rrotate

; 691  : 							_Pnode = _Right(_Fixnodeparent);

  001ea	8b 46 08	 mov	 eax, DWORD PTR [esi+8]
$L204353:

; 692  : 							}
; 693  : 
; 694  : 						_Color(_Pnode) = _Color(_Fixnodeparent);

  001ed	8a 4e 2c	 mov	 cl, BYTE PTR [esi+44]
  001f0	88 48 2c	 mov	 BYTE PTR [eax+44], cl

; 695  : 						_Color(_Fixnodeparent) = _Black;

  001f3	88 5e 2c	 mov	 BYTE PTR [esi+44], bl

; 696  : 						_Color(_Right(_Pnode)) = _Black;

  001f6	8b 50 08	 mov	 edx, DWORD PTR [eax+8]

; 697  : 						_Lrotate(_Fixnodeparent);

  001f9	56		 push	 esi
  001fa	8b cd		 mov	 ecx, ebp
  001fc	88 5a 2c	 mov	 BYTE PTR [edx+44], bl
  001ff	e8 00 00 00 00	 call	 ?_Lrotate@?$_Tree@V?$_Tmap_traits@KU_WORLDDATA@CQuizDBCtrl@@U?$less@K@std@@V?$allocator@U?$pair@$$CBKU_WORLDDATA@CQuizDBCtrl@@@std@@@4@$0A@@std@@@std@@IAEXPAU_Node@?$_Tree_nod@V?$_Tmap_traits@KU_WORLDDATA@CQuizDBCtrl@@U?$less@K@std@@V?$allocator@U?$pair@$$CBKU_WORLDDATA@CQuizDBCtrl@@@std@@@4@$0A@@std@@@2@@Z ; std::_Tree<std::_Tmap_traits<unsigned long,CQuizDBCtrl::_WORLDDATA,std::less<unsigned long>,std::allocator<std::pair<unsigned long const ,CQuizDBCtrl::_WORLDDATA> >,0> >::_Lrotate

; 698  : 						break;	// tree now recolored/rebalanced

  00204	eb 78		 jmp	 SHORT $L204346
$L204347:

; 699  : 						}
; 700  : 					}
; 701  : 				else
; 702  : 					{	// fixup right subtree
; 703  : 					_Pnode = _Left(_Fixnodeparent);
; 704  : 					if (_Color(_Pnode) == _Red)

  00206	8a 48 2c	 mov	 cl, BYTE PTR [eax+44]
  00209	84 c9		 test	 cl, cl
  0020b	75 11		 jne	 SHORT $L204355

; 705  : 						{	// rotate red up from left subtree
; 706  : 						_Color(_Pnode) = _Black;

  0020d	88 58 2c	 mov	 BYTE PTR [eax+44], bl

; 707  : 						_Color(_Fixnodeparent) = _Red;
; 708  : 						_Rrotate(_Fixnodeparent);

  00210	56		 push	 esi
  00211	8b cd		 mov	 ecx, ebp
  00213	c6 46 2c 00	 mov	 BYTE PTR [esi+44], 0
  00217	e8 00 00 00 00	 call	 ?_Rrotate@?$_Tree@V?$_Tmap_traits@KU_WORLDDATA@CQuizDBCtrl@@U?$less@K@std@@V?$allocator@U?$pair@$$CBKU_WORLDDATA@CQuizDBCtrl@@@std@@@4@$0A@@std@@@std@@IAEXPAU_Node@?$_Tree_nod@V?$_Tmap_traits@KU_WORLDDATA@CQuizDBCtrl@@U?$less@K@std@@V?$allocator@U?$pair@$$CBKU_WORLDDATA@CQuizDBCtrl@@@std@@@4@$0A@@std@@@2@@Z ; std::_Tree<std::_Tmap_traits<unsigned long,CQuizDBCtrl::_WORLDDATA,std::less<unsigned long>,std::allocator<std::pair<unsigned long const ,CQuizDBCtrl::_WORLDDATA> >,0> >::_Rrotate

; 709  : 						_Pnode = _Left(_Fixnodeparent);

  0021c	8b 06		 mov	 eax, DWORD PTR [esi]
$L204355:

; 710  : 						}
; 711  : 					if (_Isnil(_Pnode))

  0021e	8a 48 2d	 mov	 cl, BYTE PTR [eax+45]
  00221	84 c9		 test	 cl, cl

; 712  : 						_Fixnode = _Fixnodeparent;	// shouldn't happen
; 713  : 					else if (_Color(_Right(_Pnode)) == _Black

  00223	75 13		 jne	 SHORT $L211377

; 714  : 						&& _Color(_Left(_Pnode)) == _Black)

  00225	8b 50 08	 mov	 edx, DWORD PTR [eax+8]
  00228	38 5a 2c	 cmp	 BYTE PTR [edx+44], bl
  0022b	75 20		 jne	 SHORT $L204358
  0022d	8b 08		 mov	 ecx, DWORD PTR [eax]
  0022f	38 59 2c	 cmp	 BYTE PTR [ecx+44], bl
  00232	75 19		 jne	 SHORT $L204358
$L211378:

; 715  : 						{	// redden left subtree with black children
; 716  : 						_Color(_Pnode) = _Red;

  00234	c6 40 2c 00	 mov	 BYTE PTR [eax+44], 0
$L211377:

; 662  : 			{	// erasing black link, must recolor/rebalance tree
; 663  : 			for (; _Fixnode != _Root() && _Color(_Fixnode) == _Black;
; 664  : 				_Fixnodeparent = _Parent(_Fixnode))

  00238	8b 55 04	 mov	 edx, DWORD PTR [ebp+4]
  0023b	8b 42 04	 mov	 eax, DWORD PTR [edx+4]

; 717  : 						_Fixnode = _Fixnodeparent;

  0023e	8b fe		 mov	 edi, esi
  00240	3b f8		 cmp	 edi, eax
  00242	8b 76 04	 mov	 esi, DWORD PTR [esi+4]
  00245	0f 85 45 ff ff
	ff		 jne	 $L204344

; 662  : 			{	// erasing black link, must recolor/rebalance tree
; 663  : 			for (; _Fixnode != _Root() && _Color(_Fixnode) == _Black;
; 664  : 				_Fixnodeparent = _Parent(_Fixnode))

  0024b	eb 31		 jmp	 SHORT $L204346
$L204358:

; 718  : 						}
; 719  : 					else
; 720  : 						{	// must rearrange left subtree
; 721  : 						if (_Color(_Left(_Pnode)) == _Black)

  0024d	8b 08		 mov	 ecx, DWORD PTR [eax]
  0024f	38 59 2c	 cmp	 BYTE PTR [ecx+44], bl
  00252	75 14		 jne	 SHORT $L204360

; 722  : 							{	// rotate red up from right sub-subtree
; 723  : 							_Color(_Right(_Pnode)) = _Black;

  00254	8b 50 08	 mov	 edx, DWORD PTR [eax+8]
  00257	88 5a 2c	 mov	 BYTE PTR [edx+44], bl

; 724  : 							_Color(_Pnode) = _Red;
; 725  : 							_Lrotate(_Pnode);

  0025a	50		 push	 eax
  0025b	8b cd		 mov	 ecx, ebp
  0025d	c6 40 2c 00	 mov	 BYTE PTR [eax+44], 0
  00261	e8 00 00 00 00	 call	 ?_Lrotate@?$_Tree@V?$_Tmap_traits@KU_WORLDDATA@CQuizDBCtrl@@U?$less@K@std@@V?$allocator@U?$pair@$$CBKU_WORLDDATA@CQuizDBCtrl@@@std@@@4@$0A@@std@@@std@@IAEXPAU_Node@?$_Tree_nod@V?$_Tmap_traits@KU_WORLDDATA@CQuizDBCtrl@@U?$less@K@std@@V?$allocator@U?$pair@$$CBKU_WORLDDATA@CQuizDBCtrl@@@std@@@4@$0A@@std@@@2@@Z ; std::_Tree<std::_Tmap_traits<unsigned long,CQuizDBCtrl::_WORLDDATA,std::less<unsigned long>,std::allocator<std::pair<unsigned long const ,CQuizDBCtrl::_WORLDDATA> >,0> >::_Lrotate

; 726  : 							_Pnode = _Left(_Fixnodeparent);

  00266	8b 06		 mov	 eax, DWORD PTR [esi]
$L204360:

; 727  : 							}
; 728  : 
; 729  : 						_Color(_Pnode) = _Color(_Fixnodeparent);

  00268	8a 4e 2c	 mov	 cl, BYTE PTR [esi+44]
  0026b	88 48 2c	 mov	 BYTE PTR [eax+44], cl

; 730  : 						_Color(_Fixnodeparent) = _Black;

  0026e	88 5e 2c	 mov	 BYTE PTR [esi+44], bl

; 731  : 						_Color(_Left(_Pnode)) = _Black;

  00271	8b 10		 mov	 edx, DWORD PTR [eax]

; 732  : 						_Rrotate(_Fixnodeparent);

  00273	56		 push	 esi
  00274	8b cd		 mov	 ecx, ebp
  00276	88 5a 2c	 mov	 BYTE PTR [edx+44], bl
  00279	e8 00 00 00 00	 call	 ?_Rrotate@?$_Tree@V?$_Tmap_traits@KU_WORLDDATA@CQuizDBCtrl@@U?$less@K@std@@V?$allocator@U?$pair@$$CBKU_WORLDDATA@CQuizDBCtrl@@@std@@@4@$0A@@std@@@std@@IAEXPAU_Node@?$_Tree_nod@V?$_Tmap_traits@KU_WORLDDATA@CQuizDBCtrl@@U?$less@K@std@@V?$allocator@U?$pair@$$CBKU_WORLDDATA@CQuizDBCtrl@@@std@@@4@$0A@@std@@@2@@Z ; std::_Tree<std::_Tmap_traits<unsigned long,CQuizDBCtrl::_WORLDDATA,std::less<unsigned long>,std::allocator<std::pair<unsigned long const ,CQuizDBCtrl::_WORLDDATA> >,0> >::_Rrotate
$L204346:

; 733  : 						break;	// tree now recolored/rebalanced
; 734  : 						}
; 735  : 					}
; 736  : 
; 737  : 			_Color(_Fixnode) = _Black;	// ensure stopping node is black

  0027e	88 5f 2c	 mov	 BYTE PTR [edi+44], bl
$L204343:

; 738  : 			}
; 739  : 
; 740  : 		this->_Alnod.destroy(_Erasednode);	// destroy, free erased node
; 741  : 		this->_Alnod.deallocate(_Erasednode, 1);

  00281	8b 44 24 10	 mov	 eax, DWORD PTR __Erasednode$[esp+100]
  00285	50		 push	 eax
  00286	e8 00 00 00 00	 call	 ??3@YAXPAX@Z		; operator delete

; 742  : 
; 743  : 		if (0 < _Mysize)

  0028b	8b 45 08	 mov	 eax, DWORD PTR [ebp+8]
  0028e	83 c4 04	 add	 esp, 4
  00291	85 c0		 test	 eax, eax
  00293	5f		 pop	 edi
  00294	5b		 pop	 ebx
  00295	76 04		 jbe	 SHORT $L204361

; 744  : 			--_Mysize;

  00297	48		 dec	 eax
  00298	89 45 08	 mov	 DWORD PTR [ebp+8], eax
$L204361:

; 745  : 
; 746  : 		return (_Where);	// return successor iterator

  0029b	8b 4c 24 64	 mov	 ecx, DWORD PTR __Where$[esp+88]
  0029f	8b 44 24 60	 mov	 eax, DWORD PTR ___$ReturnUdt$[esp+88]
  002a3	89 08		 mov	 DWORD PTR [eax], ecx

; 747  : 		}

  002a5	8b 4c 24 50	 mov	 ecx, DWORD PTR __$EHRec$[esp+92]
  002a9	5e		 pop	 esi
  002aa	5d		 pop	 ebp
  002ab	64 89 0d 00 00
	00 00		 mov	 DWORD PTR fs:__except_list, ecx
  002b2	83 c4 54	 add	 esp, 84			; 00000054H
  002b5	c2 08 00	 ret	 8
$L211376:
_TEXT	ENDS
;	COMDAT text$x
text$x	SEGMENT
$L210893:
  00000	8d 4d b0	 lea	 ecx, DWORD PTR $T210888[ebp]
  00003	e9 00 00 00 00	 jmp	 ??1?$basic_string@DU?$char_traits@D@std@@V?$allocator@D@2@@std@@QAE@XZ ; std::basic_string<char,std::char_traits<char>,std::allocator<char> >::~basic_string<char,std::char_traits<char>,std::allocator<char> >
__ehhandler$?erase@?$_Tree@V?$_Tmap_traits@KU_WORLDDATA@CQuizDBCtrl@@U?$less@K@std@@V?$allocator@U?$pair@$$CBKU_WORLDDATA@CQuizDBCtrl@@@std@@@4@$0A@@std@@@std@@QAE?AViterator@12@V312@@Z:
  00008	b8 00 00 00 00	 mov	 eax, OFFSET FLAT:$T211371
  0000d	e9 00 00 00 00	 jmp	 ___CxxFrameHandler
text$x	ENDS
?erase@?$_Tree@V?$_Tmap_traits@KU_WORLDDATA@CQuizDBCtrl@@U?$less@K@std@@V?$allocator@U?$pair@$$CBKU_WORLDDATA@CQuizDBCtrl@@@std@@@4@$0A@@std@@@std@@QAE?AViterator@12@V312@@Z ENDP ; std::_Tree<std::_Tmap_traits<unsigned long,CQuizDBCtrl::_WORLDDATA,std::less<unsigned long>,std::allocator<std::pair<unsigned long const ,CQuizDBCtrl::_WORLDDATA> >,0> >::erase
;	COMDAT xdata$x
xdata$x	SEGMENT
$T211484 DD	0ffffffffH
	DD	FLAT:$L211384
$T211482 DD	019930520H
	DD	01H
	DD	FLAT:$T211484
	DD	2 DUP(00H)
	DD	2 DUP(00H)
; Function compile flags: /Ogty
xdata$x	ENDS
;	COMDAT ??0logic_error@std@@QAE@ABV01@@Z
_TEXT	SEGMENT
_this$ = -16						; size = 4
__$EHRec$ = -12						; size = 12
___that$ = 8						; size = 4
??0logic_error@std@@QAE@ABV01@@Z PROC NEAR		; std::logic_error::logic_error, COMDAT
; _this$ = ecx
  00000	6a ff		 push	 -1
  00002	68 00 00 00 00	 push	 __ehhandler$??0logic_error@std@@QAE@ABV01@@Z
  00007	64 a1 00 00 00
	00		 mov	 eax, DWORD PTR fs:__except_list
  0000d	50		 push	 eax
  0000e	64 89 25 00 00
	00 00		 mov	 DWORD PTR fs:__except_list, esp
  00015	51		 push	 ecx
  00016	56		 push	 esi
  00017	57		 push	 edi
  00018	8b 7c 24 1c	 mov	 edi, DWORD PTR ___that$[esp+20]
  0001c	8b f1		 mov	 esi, ecx
  0001e	57		 push	 edi
  0001f	89 74 24 0c	 mov	 DWORD PTR _this$[esp+28], esi
  00023	e8 00 00 00 00	 call	 ??0exception@@QAE@ABV0@@Z ; exception::exception
  00028	33 c0		 xor	 eax, eax
  0002a	6a ff		 push	 -1
  0002c	8d 4e 0c	 lea	 ecx, DWORD PTR [esi+12]
  0002f	c7 06 00 00 00
	00		 mov	 DWORD PTR [esi], OFFSET FLAT:??_7logic_error@std@@6B@
  00035	50		 push	 eax
  00036	83 c7 0c	 add	 edi, 12			; 0000000cH
  00039	c7 41 18 0f 00
	00 00		 mov	 DWORD PTR [ecx+24], 15	; 0000000fH
  00040	89 41 14	 mov	 DWORD PTR [ecx+20], eax
  00043	57		 push	 edi
  00044	89 44 24 20	 mov	 DWORD PTR __$EHRec$[esp+44], eax
  00048	88 41 04	 mov	 BYTE PTR [ecx+4], al
  0004b	e8 00 00 00 00	 call	 ?assign@?$basic_string@DU?$char_traits@D@std@@V?$allocator@D@2@@std@@QAEAAV12@ABV12@II@Z ; std::basic_string<char,std::char_traits<char>,std::allocator<char> >::assign
  00050	8b 4c 24 0c	 mov	 ecx, DWORD PTR __$EHRec$[esp+24]
  00054	5f		 pop	 edi
  00055	8b c6		 mov	 eax, esi
  00057	5e		 pop	 esi
  00058	64 89 0d 00 00
	00 00		 mov	 DWORD PTR fs:__except_list, ecx
  0005f	83 c4 10	 add	 esp, 16			; 00000010H
  00062	c2 04 00	 ret	 4
_TEXT	ENDS
;	COMDAT text$x
text$x	SEGMENT
$L211384:
  00000	8b 4d f0	 mov	 ecx, DWORD PTR _this$[ebp]
  00003	e9 00 00 00 00	 jmp	 ??1exception@@UAE@XZ	; exception::~exception
__ehhandler$??0logic_error@std@@QAE@ABV01@@Z:
  00008	b8 00 00 00 00	 mov	 eax, OFFSET FLAT:$T211482
  0000d	e9 00 00 00 00	 jmp	 ___CxxFrameHandler
text$x	ENDS
??0logic_error@std@@QAE@ABV01@@Z ENDP			; std::logic_error::logic_error
; Function compile flags: /Ogty
;	COMDAT ??0out_of_range@std@@QAE@ABV01@@Z
_TEXT	SEGMENT
___that$ = 8						; size = 4
??0out_of_range@std@@QAE@ABV01@@Z PROC NEAR		; std::out_of_range::out_of_range, COMDAT
; _this$ = ecx
  00000	8b 44 24 04	 mov	 eax, DWORD PTR ___that$[esp-4]
  00004	56		 push	 esi
  00005	50		 push	 eax
  00006	8b f1		 mov	 esi, ecx
  00008	e8 00 00 00 00	 call	 ??0logic_error@std@@QAE@ABV01@@Z
  0000d	c7 06 00 00 00
	00		 mov	 DWORD PTR [esi], OFFSET FLAT:??_7out_of_range@std@@6B@
  00013	8b c6		 mov	 eax, esi
  00015	5e		 pop	 esi
  00016	c2 04 00	 ret	 4
??0out_of_range@std@@QAE@ABV01@@Z ENDP			; std::out_of_range::out_of_range
_TEXT	ENDS
PUBLIC	?_Insert@?$_Tree@V?$_Tmap_traits@KU_WORLDDATA@CQuizDBCtrl@@U?$less@K@std@@V?$allocator@U?$pair@$$CBKU_WORLDDATA@CQuizDBCtrl@@@std@@@4@$0A@@std@@@std@@IAE?AViterator@12@_NPAU_Node@?$_Tree_nod@V?$_Tmap_traits@KU_WORLDDATA@CQuizDBCtrl@@U?$less@K@std@@V?$allocator@U?$pair@$$CBKU_WORLDDATA@CQuizDBCtrl@@@std@@@4@$0A@@std@@@2@ABU?$pair@$$CBKU_WORLDDATA@CQuizDBCtrl@@@2@@Z ; std::_Tree<std::_Tmap_traits<unsigned long,CQuizDBCtrl::_WORLDDATA,std::less<unsigned long>,std::allocator<std::pair<unsigned long const ,CQuizDBCtrl::_WORLDDATA> >,0> >::_Insert
PUBLIC	??0length_error@std@@QAE@ABV01@@Z		; std::length_error::length_error
PUBLIC	__TI3?AVlength_error@std@@
PUBLIC	__CTA3?AVlength_error@std@@
PUBLIC	??_R0?AVlength_error@std@@@8			; std::length_error `RTTI Type Descriptor'
PUBLIC	__CT??_R0?AVlength_error@std@@@8??0length_error@std@@QAE@ABV01@@Z40
PUBLIC	??_C@_0BE@JONHPENG@map?1set?$DMT?$DO?5too?5long?$AA@ ; `string'
;	COMDAT xdata$x
xdata$x	SEGMENT
$T211864 DD	0ffffffffH
	DD	FLAT:$L211494
$T211859 DD	019930520H
	DD	01H
	DD	FLAT:$T211864
	DD	2 DUP(00H)
	DD	2 DUP(00H)
xdata$x	ENDS
;	COMDAT ??_C@_0BE@JONHPENG@map?1set?$DMT?$DO?5too?5long?$AA@
CONST	SEGMENT
??_C@_0BE@JONHPENG@map?1set?$DMT?$DO?5too?5long?$AA@ DB 'map/set<T> too l'
	DB	'ong', 00H					; `string'
CONST	ENDS
;	COMDAT __TI3?AVlength_error@std@@
xdata$x	SEGMENT
__TI3?AVlength_error@std@@ DD 00H
	DD	FLAT:??1length_error@std@@UAE@XZ
	DD	00H
	DD	FLAT:__CTA3?AVlength_error@std@@
xdata$x	ENDS
;	COMDAT __CTA3?AVlength_error@std@@
xdata$x	SEGMENT
__CTA3?AVlength_error@std@@ DD 03H
	DD	FLAT:__CT??_R0?AVlength_error@std@@@8??0length_error@std@@QAE@ABV01@@Z40
	DD	FLAT:__CT??_R0?AVlogic_error@std@@@8??0logic_error@std@@QAE@ABV01@@Z40
	DD	FLAT:__CT??_R0?AVexception@@@8??0exception@@QAE@ABV0@@Z12
xdata$x	ENDS
;	COMDAT __CT??_R0?AVlength_error@std@@@8??0length_error@std@@QAE@ABV01@@Z40
xdata$x	SEGMENT
__CT??_R0?AVlength_error@std@@@8??0length_error@std@@QAE@ABV01@@Z40 DD 00H
	DD	FLAT:??_R0?AVlength_error@std@@@8
	DD	00H
	DD	0ffffffffH
	ORG $+4
	DD	028H
	DD	FLAT:??0length_error@std@@QAE@ABV01@@Z
xdata$x	ENDS
;	COMDAT ??_R0?AVlength_error@std@@@8
_DATA	SEGMENT
??_R0?AVlength_error@std@@@8 DD FLAT:??_7type_info@@6B@	; std::length_error `RTTI Type Descriptor'
	DD	00H
	DB	'.?AVlength_error@std@@', 00H
; Function compile flags: /Ogty
_DATA	ENDS
;	COMDAT ?_Insert@?$_Tree@V?$_Tmap_traits@KU_WORLDDATA@CQuizDBCtrl@@U?$less@K@std@@V?$allocator@U?$pair@$$CBKU_WORLDDATA@CQuizDBCtrl@@@std@@@4@$0A@@std@@@std@@IAE?AViterator@12@_NPAU_Node@?$_Tree_nod@V?$_Tmap_traits@KU_WORLDDATA@CQuizDBCtrl@@U?$less@K@std@@V?$allocator@U?$pair@$$CBKU_WORLDDATA@CQuizDBCtrl@@@std@@@4@$0A@@std@@@2@ABU?$pair@$$CBKU_WORLDDATA@CQuizDBCtrl@@@2@@Z
_TEXT	SEGMENT
$T211493 = -80						; size = 28
$T211492 = -52						; size = 40
__$EHRec$ = -12						; size = 12
___$ReturnUdt$ = 8					; size = 4
__Addleft$ = 12						; size = 1
__Wherenode$ = 16					; size = 4
__Newnode$ = 20						; size = 4
__Val$ = 20						; size = 4
?_Insert@?$_Tree@V?$_Tmap_traits@KU_WORLDDATA@CQuizDBCtrl@@U?$less@K@std@@V?$allocator@U?$pair@$$CBKU_WORLDDATA@CQuizDBCtrl@@@std@@@4@$0A@@std@@@std@@IAE?AViterator@12@_NPAU_Node@?$_Tree_nod@V?$_Tmap_traits@KU_WORLDDATA@CQuizDBCtrl@@U?$less@K@std@@V?$allocator@U?$pair@$$CBKU_WORLDDATA@CQuizDBCtrl@@@std@@@4@$0A@@std@@@2@ABU?$pair@$$CBKU_WORLDDATA@CQuizDBCtrl@@@2@@Z PROC NEAR ; std::_Tree<std::_Tmap_traits<unsigned long,CQuizDBCtrl::_WORLDDATA,std::less<unsigned long>,std::allocator<std::pair<unsigned long const ,CQuizDBCtrl::_WORLDDATA> >,0> >::_Insert, COMDAT
; _this$ = ecx

; 911  : 		{	// add node with value next to _Wherenode, to left if _Addnode

  00000	64 a1 00 00 00
	00		 mov	 eax, DWORD PTR fs:__except_list
  00006	6a ff		 push	 -1
  00008	68 00 00 00 00	 push	 __ehhandler$?_Insert@?$_Tree@V?$_Tmap_traits@KU_WORLDDATA@CQuizDBCtrl@@U?$less@K@std@@V?$allocator@U?$pair@$$CBKU_WORLDDATA@CQuizDBCtrl@@@std@@@4@$0A@@std@@@std@@IAE?AViterator@12@_NPAU_Node@?$_Tree_nod@V?$_Tmap_traits@KU_WORLDDATA@CQuizDBCtrl@@U?$less@K@std@@V?$allocator@U?$pair@$$CBKU_WORLDDATA@CQuizDBCtrl@@@std@@@4@$0A@@std@@@2@ABU?$pair@$$CBKU_WORLDDATA@CQuizDBCtrl@@@2@@Z
  0000d	50		 push	 eax
  0000e	64 89 25 00 00
	00 00		 mov	 DWORD PTR fs:__except_list, esp
  00015	83 ec 44	 sub	 esp, 68			; 00000044H
  00018	56		 push	 esi
  00019	57		 push	 edi
  0001a	8b f9		 mov	 edi, ecx

; 912  : 		if (max_size() - 1 <= _Mysize)

  0001c	81 7f 08 fe ff
	ff 07		 cmp	 DWORD PTR [edi+8], 134217726 ; 07fffffeH
  00023	72 4c		 jb	 SHORT $L204641

; 913  : 			_THROW(length_error, "map/set<T> too long");

  00025	6a 13		 push	 19			; 00000013H
  00027	33 f6		 xor	 esi, esi
  00029	68 00 00 00 00	 push	 OFFSET FLAT:??_C@_0BE@JONHPENG@map?1set?$DMT?$DO?5too?5long?$AA@
  0002e	8d 4c 24 10	 lea	 ecx, DWORD PTR $T211493[esp+96]
  00032	c7 44 24 28 0f
	00 00 00	 mov	 DWORD PTR $T211493[esp+120], 15 ; 0000000fH
  0003a	89 74 24 24	 mov	 DWORD PTR $T211493[esp+116], esi
  0003e	c6 44 24 14 00	 mov	 BYTE PTR $T211493[esp+100], 0
  00043	e8 00 00 00 00	 call	 ?assign@?$basic_string@DU?$char_traits@D@std@@V?$allocator@D@2@@std@@QAEAAV12@PBDI@Z ; std::basic_string<char,std::char_traits<char>,std::allocator<char> >::assign
  00048	8d 44 24 08	 lea	 eax, DWORD PTR $T211493[esp+88]
  0004c	50		 push	 eax
  0004d	8d 4c 24 28	 lea	 ecx, DWORD PTR $T211492[esp+92]
  00051	89 74 24 58	 mov	 DWORD PTR __$EHRec$[esp+100], esi
  00055	e8 00 00 00 00	 call	 ??0logic_error@std@@QAE@ABV?$basic_string@DU?$char_traits@D@std@@V?$allocator@D@2@@1@@Z ; std::logic_error::logic_error
  0005a	68 00 00 00 00	 push	 OFFSET FLAT:__TI3?AVlength_error@std@@
  0005f	8d 4c 24 28	 lea	 ecx, DWORD PTR $T211492[esp+92]
  00063	51		 push	 ecx
  00064	c7 44 24 2c 00
	00 00 00	 mov	 DWORD PTR $T211492[esp+96], OFFSET FLAT:??_7length_error@std@@6B@
  0006c	e8 00 00 00 00	 call	 __CxxThrowException@8
$L204641:

; 914  : 		_Nodeptr _Newnode = _Buynode(_Myhead, _Wherenode, _Myhead,
; 915  : 			_Val, _Red);

  00071	8b 54 24 68	 mov	 edx, DWORD PTR __Val$[esp+84]
  00075	8b 47 04	 mov	 eax, DWORD PTR [edi+4]
  00078	8b 74 24 64	 mov	 esi, DWORD PTR __Wherenode$[esp+84]
  0007c	53		 push	 ebx
  0007d	6a 00		 push	 0
  0007f	52		 push	 edx
  00080	50		 push	 eax
  00081	56		 push	 esi
  00082	50		 push	 eax
  00083	8b cf		 mov	 ecx, edi
  00085	e8 00 00 00 00	 call	 ?_Buynode@?$_Tree@V?$_Tmap_traits@KU_WORLDDATA@CQuizDBCtrl@@U?$less@K@std@@V?$allocator@U?$pair@$$CBKU_WORLDDATA@CQuizDBCtrl@@@std@@@4@$0A@@std@@@std@@IAEPAU_Node@?$_Tree_nod@V?$_Tmap_traits@KU_WORLDDATA@CQuizDBCtrl@@U?$less@K@std@@V?$allocator@U?$pair@$$CBKU_WORLDDATA@CQuizDBCtrl@@@std@@@4@$0A@@std@@@2@PAU342@00ABU?$pair@$$CBKU_WORLDDATA@CQuizDBCtrl@@@2@D@Z ; std::_Tree<std::_Tmap_traits<unsigned long,CQuizDBCtrl::_WORLDDATA,std::less<unsigned long>,std::allocator<std::pair<unsigned long const ,CQuizDBCtrl::_WORLDDATA> >,0> >::_Buynode

; 916  : 
; 917  : 		++_Mysize;

  0008a	8b 5f 08	 mov	 ebx, DWORD PTR [edi+8]
  0008d	8b c8		 mov	 ecx, eax

; 918  : 		if (_Wherenode == _Myhead)

  0008f	8b 47 04	 mov	 eax, DWORD PTR [edi+4]
  00092	43		 inc	 ebx
  00093	3b f0		 cmp	 esi, eax
  00095	89 4c 24 6c	 mov	 DWORD PTR __Newnode$[esp+88], ecx
  00099	89 5f 08	 mov	 DWORD PTR [edi+8], ebx
  0009c	75 10		 jne	 SHORT $L204646

; 919  : 			{	// first node in tree, just set head values
; 920  : 			_Root() = _Newnode;

  0009e	89 48 04	 mov	 DWORD PTR [eax+4], ecx

; 921  : 			_Lmost() = _Newnode, _Rmost() = _Newnode;

  000a1	8b 47 04	 mov	 eax, DWORD PTR [edi+4]
  000a4	89 08		 mov	 DWORD PTR [eax], ecx
  000a6	8b 57 04	 mov	 edx, DWORD PTR [edi+4]
  000a9	89 4a 08	 mov	 DWORD PTR [edx+8], ecx

; 922  : 			}
; 923  : 		else if (_Addleft)

  000ac	eb 23		 jmp	 SHORT $L204651
$L204646:
  000ae	8a 44 24 64	 mov	 al, BYTE PTR __Addleft$[esp+88]
  000b2	84 c0		 test	 al, al
  000b4	74 0d		 je	 SHORT $L204648

; 924  : 			{	// add to left of _Wherenode
; 925  : 			_Left(_Wherenode) = _Newnode;

  000b6	89 0e		 mov	 DWORD PTR [esi], ecx

; 926  : 			if (_Wherenode == _Lmost())

  000b8	8b 47 04	 mov	 eax, DWORD PTR [edi+4]
  000bb	3b 30		 cmp	 esi, DWORD PTR [eax]
  000bd	75 12		 jne	 SHORT $L204651

; 927  : 				_Lmost() = _Newnode;

  000bf	89 08		 mov	 DWORD PTR [eax], ecx

; 928  : 			}
; 929  : 		else

  000c1	eb 0e		 jmp	 SHORT $L204651
$L204648:

; 930  : 			{	// add to right of _Wherenode
; 931  : 			_Right(_Wherenode) = _Newnode;

  000c3	89 4e 08	 mov	 DWORD PTR [esi+8], ecx

; 932  : 			if (_Wherenode == _Rmost())

  000c6	8b 47 04	 mov	 eax, DWORD PTR [edi+4]
  000c9	3b 70 08	 cmp	 esi, DWORD PTR [eax+8]
  000cc	75 03		 jne	 SHORT $L204651

; 933  : 				_Rmost() = _Newnode;

  000ce	89 48 08	 mov	 DWORD PTR [eax+8], ecx
$L204651:

; 934  : 			}
; 935  : 
; 936  : 		for (_Nodeptr _Pnode = _Newnode; _Color(_Parent(_Pnode)) == _Red; )

  000d1	8b 51 04	 mov	 edx, DWORD PTR [ecx+4]
  000d4	80 7a 2c 00	 cmp	 BYTE PTR [edx+44], 0
  000d8	8d 41 04	 lea	 eax, DWORD PTR [ecx+4]
  000db	8b f1		 mov	 esi, ecx
  000dd	b3 01		 mov	 bl, 1
  000df	0f 85 a5 00 00
	00		 jne	 $L204655
  000e5	55		 push	 ebp
$L204654:

; 937  : 			if (_Parent(_Pnode) == _Left(_Parent(_Parent(_Pnode))))

  000e6	8b 08		 mov	 ecx, DWORD PTR [eax]
  000e8	8b 69 04	 mov	 ebp, DWORD PTR [ecx+4]
  000eb	8b 55 00	 mov	 edx, DWORD PTR [ebp]
  000ee	3b ca		 cmp	 ecx, edx
  000f0	75 50		 jne	 SHORT $L204656

; 938  : 				{	// fixup red-red in left subtree
; 939  : 				_Wherenode = _Right(_Parent(_Parent(_Pnode)));

  000f2	8b 55 08	 mov	 edx, DWORD PTR [ebp+8]

; 940  : 				if (_Color(_Wherenode) == _Red)

  000f5	80 7a 2c 00	 cmp	 BYTE PTR [edx+44], 0
  000f9	75 18		 jne	 SHORT $L204657
$L211863:

; 941  : 					{	// parent has two red children, blacken both
; 942  : 					_Color(_Parent(_Pnode)) = _Black;

  000fb	8b 08		 mov	 ecx, DWORD PTR [eax]
  000fd	88 59 2c	 mov	 BYTE PTR [ecx+44], bl

; 943  : 					_Color(_Wherenode) = _Black;

  00100	88 5a 2c	 mov	 BYTE PTR [edx+44], bl

; 944  : 					_Color(_Parent(_Parent(_Pnode))) = _Red;

  00103	8b 10		 mov	 edx, DWORD PTR [eax]
  00105	8b 4a 04	 mov	 ecx, DWORD PTR [edx+4]
  00108	c6 41 2c 00	 mov	 BYTE PTR [ecx+44], 0

; 945  : 					_Pnode = _Parent(_Parent(_Pnode));

  0010c	8b 10		 mov	 edx, DWORD PTR [eax]
  0010e	8b 72 04	 mov	 esi, DWORD PTR [edx+4]

; 946  : 					}
; 947  : 				else

  00111	eb 61		 jmp	 SHORT $L204662
$L204657:

; 948  : 					{	// parent has red and black children
; 949  : 					if (_Pnode == _Right(_Parent(_Pnode)))

  00113	3b 71 08	 cmp	 esi, DWORD PTR [ecx+8]
  00116	75 0a		 jne	 SHORT $L204659

; 950  : 						{	// rotate right child to left
; 951  : 						_Pnode = _Parent(_Pnode);

  00118	8b f1		 mov	 esi, ecx

; 952  : 						_Lrotate(_Pnode);

  0011a	56		 push	 esi
  0011b	8b cf		 mov	 ecx, edi
  0011d	e8 00 00 00 00	 call	 ?_Lrotate@?$_Tree@V?$_Tmap_traits@KU_WORLDDATA@CQuizDBCtrl@@U?$less@K@std@@V?$allocator@U?$pair@$$CBKU_WORLDDATA@CQuizDBCtrl@@@std@@@4@$0A@@std@@@std@@IAEXPAU_Node@?$_Tree_nod@V?$_Tmap_traits@KU_WORLDDATA@CQuizDBCtrl@@U?$less@K@std@@V?$allocator@U?$pair@$$CBKU_WORLDDATA@CQuizDBCtrl@@@std@@@4@$0A@@std@@@2@@Z ; std::_Tree<std::_Tmap_traits<unsigned long,CQuizDBCtrl::_WORLDDATA,std::less<unsigned long>,std::allocator<std::pair<unsigned long const ,CQuizDBCtrl::_WORLDDATA> >,0> >::_Lrotate
$L204659:

; 953  : 						}
; 954  : 					_Color(_Parent(_Pnode)) = _Black;	// propagate red up

  00122	8b 46 04	 mov	 eax, DWORD PTR [esi+4]
  00125	88 58 2c	 mov	 BYTE PTR [eax+44], bl

; 955  : 					_Color(_Parent(_Parent(_Pnode))) = _Red;

  00128	8b 4e 04	 mov	 ecx, DWORD PTR [esi+4]
  0012b	8b 51 04	 mov	 edx, DWORD PTR [ecx+4]
  0012e	c6 42 2c 00	 mov	 BYTE PTR [edx+44], 0

; 956  : 					_Rrotate(_Parent(_Parent(_Pnode)));

  00132	8b 46 04	 mov	 eax, DWORD PTR [esi+4]
  00135	8b 48 04	 mov	 ecx, DWORD PTR [eax+4]
  00138	51		 push	 ecx
  00139	8b cf		 mov	 ecx, edi
  0013b	e8 00 00 00 00	 call	 ?_Rrotate@?$_Tree@V?$_Tmap_traits@KU_WORLDDATA@CQuizDBCtrl@@U?$less@K@std@@V?$allocator@U?$pair@$$CBKU_WORLDDATA@CQuizDBCtrl@@@std@@@4@$0A@@std@@@std@@IAEXPAU_Node@?$_Tree_nod@V?$_Tmap_traits@KU_WORLDDATA@CQuizDBCtrl@@U?$less@K@std@@V?$allocator@U?$pair@$$CBKU_WORLDDATA@CQuizDBCtrl@@@std@@@4@$0A@@std@@@2@@Z ; std::_Tree<std::_Tmap_traits<unsigned long,CQuizDBCtrl::_WORLDDATA,std::less<unsigned long>,std::allocator<std::pair<unsigned long const ,CQuizDBCtrl::_WORLDDATA> >,0> >::_Rrotate

; 957  : 					}
; 958  : 				}
; 959  : 			else

  00140	eb 32		 jmp	 SHORT $L204662
$L204656:

; 960  : 				{	// fixup red-red in right subtree
; 961  : 				_Wherenode = _Left(_Parent(_Parent(_Pnode)));
; 962  : 				if (_Color(_Wherenode) == _Red)

  00142	80 7a 2c 00	 cmp	 BYTE PTR [edx+44], 0

; 963  : 					{	// parent has two red children, blacken both
; 964  : 					_Color(_Parent(_Pnode)) = _Black;
; 965  : 					_Color(_Wherenode) = _Black;
; 966  : 					_Color(_Parent(_Parent(_Pnode))) = _Red;
; 967  : 					_Pnode = _Parent(_Parent(_Pnode));
; 968  : 					}
; 969  : 				else

  00146	74 b3		 je	 SHORT $L211863

; 970  : 					{	// parent has red and black children
; 971  : 					if (_Pnode == _Left(_Parent(_Pnode)))

  00148	3b 31		 cmp	 esi, DWORD PTR [ecx]
  0014a	75 0a		 jne	 SHORT $L204663

; 972  : 						{	// rotate left child to right
; 973  : 						_Pnode = _Parent(_Pnode);

  0014c	8b f1		 mov	 esi, ecx

; 974  : 						_Rrotate(_Pnode);

  0014e	56		 push	 esi
  0014f	8b cf		 mov	 ecx, edi
  00151	e8 00 00 00 00	 call	 ?_Rrotate@?$_Tree@V?$_Tmap_traits@KU_WORLDDATA@CQuizDBCtrl@@U?$less@K@std@@V?$allocator@U?$pair@$$CBKU_WORLDDATA@CQuizDBCtrl@@@std@@@4@$0A@@std@@@std@@IAEXPAU_Node@?$_Tree_nod@V?$_Tmap_traits@KU_WORLDDATA@CQuizDBCtrl@@U?$less@K@std@@V?$allocator@U?$pair@$$CBKU_WORLDDATA@CQuizDBCtrl@@@std@@@4@$0A@@std@@@2@@Z ; std::_Tree<std::_Tmap_traits<unsigned long,CQuizDBCtrl::_WORLDDATA,std::less<unsigned long>,std::allocator<std::pair<unsigned long const ,CQuizDBCtrl::_WORLDDATA> >,0> >::_Rrotate
$L204663:

; 975  : 						}
; 976  : 					_Color(_Parent(_Pnode)) = _Black;	// propagate red up

  00156	8b 46 04	 mov	 eax, DWORD PTR [esi+4]
  00159	88 58 2c	 mov	 BYTE PTR [eax+44], bl

; 977  : 					_Color(_Parent(_Parent(_Pnode))) = _Red;

  0015c	8b 4e 04	 mov	 ecx, DWORD PTR [esi+4]
  0015f	8b 51 04	 mov	 edx, DWORD PTR [ecx+4]
  00162	c6 42 2c 00	 mov	 BYTE PTR [edx+44], 0

; 978  : 					_Lrotate(_Parent(_Parent(_Pnode)));

  00166	8b 46 04	 mov	 eax, DWORD PTR [esi+4]
  00169	8b 48 04	 mov	 ecx, DWORD PTR [eax+4]
  0016c	51		 push	 ecx
  0016d	8b cf		 mov	 ecx, edi
  0016f	e8 00 00 00 00	 call	 ?_Lrotate@?$_Tree@V?$_Tmap_traits@KU_WORLDDATA@CQuizDBCtrl@@U?$less@K@std@@V?$allocator@U?$pair@$$CBKU_WORLDDATA@CQuizDBCtrl@@@std@@@4@$0A@@std@@@std@@IAEXPAU_Node@?$_Tree_nod@V?$_Tmap_traits@KU_WORLDDATA@CQuizDBCtrl@@U?$less@K@std@@V?$allocator@U?$pair@$$CBKU_WORLDDATA@CQuizDBCtrl@@@std@@@4@$0A@@std@@@2@@Z ; std::_Tree<std::_Tmap_traits<unsigned long,CQuizDBCtrl::_WORLDDATA,std::less<unsigned long>,std::allocator<std::pair<unsigned long const ,CQuizDBCtrl::_WORLDDATA> >,0> >::_Lrotate
$L204662:
  00174	8b 56 04	 mov	 edx, DWORD PTR [esi+4]
  00177	8a 4a 2c	 mov	 cl, BYTE PTR [edx+44]
  0017a	84 c9		 test	 cl, cl
  0017c	8d 46 04	 lea	 eax, DWORD PTR [esi+4]
  0017f	0f 84 61 ff ff
	ff		 je	 $L204654
  00185	8b 4c 24 70	 mov	 ecx, DWORD PTR __Newnode$[esp+92]
  00189	5d		 pop	 ebp
$L204655:

; 979  : 					}
; 980  : 				}
; 981  : 
; 982  : 		_Color(_Root()) = _Black;	// root is always black

  0018a	8b 47 04	 mov	 eax, DWORD PTR [edi+4]
  0018d	8b 50 04	 mov	 edx, DWORD PTR [eax+4]

; 983  : 		return (_TREE_ITERATOR(_Newnode));

  00190	8b 44 24 60	 mov	 eax, DWORD PTR ___$ReturnUdt$[esp+88]
  00194	88 5a 2c	 mov	 BYTE PTR [edx+44], bl
  00197	5b		 pop	 ebx
  00198	89 08		 mov	 DWORD PTR [eax], ecx

; 984  : 		}

  0019a	8b 4c 24 4c	 mov	 ecx, DWORD PTR __$EHRec$[esp+88]
  0019e	5f		 pop	 edi
  0019f	5e		 pop	 esi
  001a0	64 89 0d 00 00
	00 00		 mov	 DWORD PTR fs:__except_list, ecx
  001a7	83 c4 50	 add	 esp, 80			; 00000050H
  001aa	c2 10 00	 ret	 16			; 00000010H
$L211862:
_TEXT	ENDS
;	COMDAT text$x
text$x	SEGMENT
$L211494:
  00000	8d 4d b0	 lea	 ecx, DWORD PTR $T211493[ebp]
  00003	e9 00 00 00 00	 jmp	 ??1?$basic_string@DU?$char_traits@D@std@@V?$allocator@D@2@@std@@QAE@XZ ; std::basic_string<char,std::char_traits<char>,std::allocator<char> >::~basic_string<char,std::char_traits<char>,std::allocator<char> >
__ehhandler$?_Insert@?$_Tree@V?$_Tmap_traits@KU_WORLDDATA@CQuizDBCtrl@@U?$less@K@std@@V?$allocator@U?$pair@$$CBKU_WORLDDATA@CQuizDBCtrl@@@std@@@4@$0A@@std@@@std@@IAE?AViterator@12@_NPAU_Node@?$_Tree_nod@V?$_Tmap_traits@KU_WORLDDATA@CQuizDBCtrl@@U?$less@K@std@@V?$allocator@U?$pair@$$CBKU_WORLDDATA@CQuizDBCtrl@@@std@@@4@$0A@@std@@@2@ABU?$pair@$$CBKU_WORLDDATA@CQuizDBCtrl@@@2@@Z:
  00008	b8 00 00 00 00	 mov	 eax, OFFSET FLAT:$T211859
  0000d	e9 00 00 00 00	 jmp	 ___CxxFrameHandler
text$x	ENDS
?_Insert@?$_Tree@V?$_Tmap_traits@KU_WORLDDATA@CQuizDBCtrl@@U?$less@K@std@@V?$allocator@U?$pair@$$CBKU_WORLDDATA@CQuizDBCtrl@@@std@@@4@$0A@@std@@@std@@IAE?AViterator@12@_NPAU_Node@?$_Tree_nod@V?$_Tmap_traits@KU_WORLDDATA@CQuizDBCtrl@@U?$less@K@std@@V?$allocator@U?$pair@$$CBKU_WORLDDATA@CQuizDBCtrl@@@std@@@4@$0A@@std@@@2@ABU?$pair@$$CBKU_WORLDDATA@CQuizDBCtrl@@@2@@Z ENDP ; std::_Tree<std::_Tmap_traits<unsigned long,CQuizDBCtrl::_WORLDDATA,std::less<unsigned long>,std::allocator<std::pair<unsigned long const ,CQuizDBCtrl::_WORLDDATA> >,0> >::_Insert
; Function compile flags: /Ogty
;	COMDAT ??0length_error@std@@QAE@ABV01@@Z
_TEXT	SEGMENT
___that$ = 8						; size = 4
??0length_error@std@@QAE@ABV01@@Z PROC NEAR		; std::length_error::length_error, COMDAT
; _this$ = ecx
  00000	8b 44 24 04	 mov	 eax, DWORD PTR ___that$[esp-4]
  00004	56		 push	 esi
  00005	50		 push	 eax
  00006	8b f1		 mov	 esi, ecx
  00008	e8 00 00 00 00	 call	 ??0logic_error@std@@QAE@ABV01@@Z
  0000d	c7 06 00 00 00
	00		 mov	 DWORD PTR [esi], OFFSET FLAT:??_7length_error@std@@6B@
  00013	8b c6		 mov	 eax, esi
  00015	5e		 pop	 esi
  00016	c2 04 00	 ret	 4
??0length_error@std@@QAE@ABV01@@Z ENDP			; std::length_error::length_error
_TEXT	ENDS
PUBLIC	?erase@?$_Tree@V?$_Tmap_traits@KU_WORLDDATA@CQuizDBCtrl@@U?$less@K@std@@V?$allocator@U?$pair@$$CBKU_WORLDDATA@CQuizDBCtrl@@@std@@@4@$0A@@std@@@std@@QAE?AViterator@12@V312@0@Z ; std::_Tree<std::_Tmap_traits<unsigned long,CQuizDBCtrl::_WORLDDATA,std::less<unsigned long>,std::allocator<std::pair<unsigned long const ,CQuizDBCtrl::_WORLDDATA> >,0> >::erase
; Function compile flags: /Ogty
;	COMDAT ?erase@?$_Tree@V?$_Tmap_traits@KU_WORLDDATA@CQuizDBCtrl@@U?$less@K@std@@V?$allocator@U?$pair@$$CBKU_WORLDDATA@CQuizDBCtrl@@@std@@@4@$0A@@std@@@std@@QAE?AViterator@12@V312@0@Z
_TEXT	SEGMENT
___$ReturnUdt$ = 8					; size = 4
$T211875 = 12						; size = 4
__First$ = 12						; size = 4
__Last$ = 16						; size = 4
?erase@?$_Tree@V?$_Tmap_traits@KU_WORLDDATA@CQuizDBCtrl@@U?$less@K@std@@V?$allocator@U?$pair@$$CBKU_WORLDDATA@CQuizDBCtrl@@@std@@@4@$0A@@std@@@std@@QAE?AViterator@12@V312@0@Z PROC NEAR ; std::_Tree<std::_Tmap_traits<unsigned long,CQuizDBCtrl::_WORLDDATA,std::less<unsigned long>,std::allocator<std::pair<unsigned long const ,CQuizDBCtrl::_WORLDDATA> >,0> >::erase, COMDAT
; _this$ = ecx

; 750  : 		{	// erase [_First, _Last)

  00000	53		 push	 ebx

; 751  : 		if (_First == begin() && _Last == end())

  00001	8b 5c 24 10	 mov	 ebx, DWORD PTR __Last$[esp]
  00005	56		 push	 esi
  00006	8b 74 24 10	 mov	 esi, DWORD PTR __First$[esp+4]
  0000a	57		 push	 edi
  0000b	8b f9		 mov	 edi, ecx
  0000d	8b 47 04	 mov	 eax, DWORD PTR [edi+4]
  00010	3b 30		 cmp	 esi, DWORD PTR [eax]
  00012	75 38		 jne	 SHORT $L212207
  00014	3b d8		 cmp	 ebx, eax
  00016	75 34		 jne	 SHORT $L212207

; 752  : 			{	// erase all
; 753  : 			clear();

  00018	8b 40 04	 mov	 eax, DWORD PTR [eax+4]
  0001b	50		 push	 eax
  0001c	8b cf		 mov	 ecx, edi
  0001e	e8 00 00 00 00	 call	 ?_Erase@?$_Tree@V?$_Tmap_traits@KU_WORLDDATA@CQuizDBCtrl@@U?$less@K@std@@V?$allocator@U?$pair@$$CBKU_WORLDDATA@CQuizDBCtrl@@@std@@@4@$0A@@std@@@std@@IAEXPAU_Node@?$_Tree_nod@V?$_Tmap_traits@KU_WORLDDATA@CQuizDBCtrl@@U?$less@K@std@@V?$allocator@U?$pair@$$CBKU_WORLDDATA@CQuizDBCtrl@@@std@@@4@$0A@@std@@@2@@Z ; std::_Tree<std::_Tmap_traits<unsigned long,CQuizDBCtrl::_WORLDDATA,std::less<unsigned long>,std::allocator<std::pair<unsigned long const ,CQuizDBCtrl::_WORLDDATA> >,0> >::_Erase
  00023	8b 47 04	 mov	 eax, DWORD PTR [edi+4]
  00026	89 40 04	 mov	 DWORD PTR [eax+4], eax
  00029	8b 47 04	 mov	 eax, DWORD PTR [edi+4]
  0002c	c7 47 08 00 00
	00 00		 mov	 DWORD PTR [edi+8], 0
  00033	89 00		 mov	 DWORD PTR [eax], eax
  00035	8b 47 04	 mov	 eax, DWORD PTR [edi+4]
  00038	89 40 08	 mov	 DWORD PTR [eax+8], eax

; 754  : 			return (begin());

  0003b	8b 4f 04	 mov	 ecx, DWORD PTR [edi+4]
  0003e	8b 11		 mov	 edx, DWORD PTR [ecx]
  00040	8b 44 24 10	 mov	 eax, DWORD PTR ___$ReturnUdt$[esp+8]
  00044	5f		 pop	 edi
  00045	5e		 pop	 esi
  00046	89 10		 mov	 DWORD PTR [eax], edx
  00048	5b		 pop	 ebx

; 761  : 			}
; 762  : 		}

  00049	c2 0c 00	 ret	 12			; 0000000cH
$L212207:

; 755  : 			}
; 756  : 		else
; 757  : 			{	// partial erase, one at a time
; 758  : 			while (_First != _Last)

  0004c	3b f3		 cmp	 esi, ebx
  0004e	74 5b		 je	 SHORT $L204834
$L204833:

; 759  : 				erase(_First++);

  00050	8a 46 2d	 mov	 al, BYTE PTR [esi+45]
  00053	84 c0		 test	 al, al
  00055	8b ce		 mov	 ecx, esi
  00057	75 41		 jne	 SHORT $L212199
  00059	8b 46 08	 mov	 eax, DWORD PTR [esi+8]
  0005c	8a 50 2d	 mov	 dl, BYTE PTR [eax+45]
  0005f	84 d2		 test	 dl, dl
  00061	75 1a		 jne	 SHORT $L212209
  00063	8b f0		 mov	 esi, eax
  00065	8b 06		 mov	 eax, DWORD PTR [esi]
  00067	8a 50 2d	 mov	 dl, BYTE PTR [eax+45]
  0006a	84 d2		 test	 dl, dl
  0006c	75 2c		 jne	 SHORT $L212199
  0006e	8b ff		 npad	 2
$L212187:
  00070	8b f0		 mov	 esi, eax
  00072	8b 06		 mov	 eax, DWORD PTR [esi]
  00074	8a 50 2d	 mov	 dl, BYTE PTR [eax+45]
  00077	84 d2		 test	 dl, dl
  00079	74 f5		 je	 SHORT $L212187
  0007b	eb 1d		 jmp	 SHORT $L212199
$L212209:
  0007d	8b 46 04	 mov	 eax, DWORD PTR [esi+4]
  00080	8a 50 2d	 mov	 dl, BYTE PTR [eax+45]
  00083	84 d2		 test	 dl, dl
  00085	75 11		 jne	 SHORT $L212202
$L212201:
  00087	3b 70 08	 cmp	 esi, DWORD PTR [eax+8]
  0008a	75 0c		 jne	 SHORT $L212202
  0008c	8b f0		 mov	 esi, eax
  0008e	8b 40 04	 mov	 eax, DWORD PTR [eax+4]
  00091	8a 50 2d	 mov	 dl, BYTE PTR [eax+45]
  00094	84 d2		 test	 dl, dl
  00096	74 ef		 je	 SHORT $L212201
$L212202:
  00098	8b f0		 mov	 esi, eax
$L212199:
  0009a	51		 push	 ecx
  0009b	8d 44 24 18	 lea	 eax, DWORD PTR $T211875[esp+12]
  0009f	50		 push	 eax
  000a0	8b cf		 mov	 ecx, edi
  000a2	e8 00 00 00 00	 call	 ?erase@?$_Tree@V?$_Tmap_traits@KU_WORLDDATA@CQuizDBCtrl@@U?$less@K@std@@V?$allocator@U?$pair@$$CBKU_WORLDDATA@CQuizDBCtrl@@@std@@@4@$0A@@std@@@std@@QAE?AViterator@12@V312@@Z ; std::_Tree<std::_Tmap_traits<unsigned long,CQuizDBCtrl::_WORLDDATA,std::less<unsigned long>,std::allocator<std::pair<unsigned long const ,CQuizDBCtrl::_WORLDDATA> >,0> >::erase
  000a7	3b f3		 cmp	 esi, ebx
  000a9	75 a5		 jne	 SHORT $L204833
$L204834:

; 760  : 			return (_First);

  000ab	8b 44 24 10	 mov	 eax, DWORD PTR ___$ReturnUdt$[esp+8]
  000af	5f		 pop	 edi
  000b0	89 30		 mov	 DWORD PTR [eax], esi
  000b2	5e		 pop	 esi
  000b3	5b		 pop	 ebx

; 761  : 			}
; 762  : 		}

  000b4	c2 0c 00	 ret	 12			; 0000000cH
?erase@?$_Tree@V?$_Tmap_traits@KU_WORLDDATA@CQuizDBCtrl@@U?$less@K@std@@V?$allocator@U?$pair@$$CBKU_WORLDDATA@CQuizDBCtrl@@@std@@@4@$0A@@std@@@std@@QAE?AViterator@12@V312@0@Z ENDP ; std::_Tree<std::_Tmap_traits<unsigned long,CQuizDBCtrl::_WORLDDATA,std::less<unsigned long>,std::allocator<std::pair<unsigned long const ,CQuizDBCtrl::_WORLDDATA> >,0> >::erase
_TEXT	ENDS
PUBLIC	?_Xlen@?$vector@U_QUIZLIST@CQuiz@@V?$allocator@U_QUIZLIST@CQuiz@@@std@@@std@@IBEXXZ ; std::vector<CQuiz::_QUIZLIST,std::allocator<CQuiz::_QUIZLIST> >::_Xlen
PUBLIC	??_C@_0BD@OLBABOEK@vector?$DMT?$DO?5too?5long?$AA@ ; `string'
;	COMDAT xdata$x
; File c:\program files\microsoft visual studio .net 2003\vc7\include\stdexcept
xdata$x	SEGMENT
$T212332 DD	0ffffffffH
	DD	FLAT:$L212217
$T212329 DD	019930520H
	DD	01H
	DD	FLAT:$T212332
	DD	2 DUP(00H)
	DD	2 DUP(00H)
xdata$x	ENDS
;	COMDAT ??_C@_0BD@OLBABOEK@vector?$DMT?$DO?5too?5long?$AA@
CONST	SEGMENT
??_C@_0BD@OLBABOEK@vector?$DMT?$DO?5too?5long?$AA@ DB 'vector<T> too long'
	DB	00H						; `string'
; Function compile flags: /Ogty
; File c:\program files\microsoft visual studio .net 2003\vc7\include\vector
CONST	ENDS
;	COMDAT ?_Xlen@?$vector@U_QUIZLIST@CQuiz@@V?$allocator@U_QUIZLIST@CQuiz@@@std@@@std@@IBEXXZ
_TEXT	SEGMENT
$T212216 = -80						; size = 28
$T212215 = -52						; size = 40
__$EHRec$ = -12						; size = 12
?_Xlen@?$vector@U_QUIZLIST@CQuiz@@V?$allocator@U_QUIZLIST@CQuiz@@@std@@@std@@IBEXXZ PROC NEAR ; std::vector<CQuiz::_QUIZLIST,std::allocator<CQuiz::_QUIZLIST> >::_Xlen, COMDAT
; _this$ = ecx

; 883  : 		{	// report a length_error

  00000	6a ff		 push	 -1
  00002	68 00 00 00 00	 push	 __ehhandler$?_Xlen@?$vector@U_QUIZLIST@CQuiz@@V?$allocator@U_QUIZLIST@CQuiz@@@std@@@std@@IBEXXZ
  00007	64 a1 00 00 00
	00		 mov	 eax, DWORD PTR fs:__except_list
  0000d	50		 push	 eax
  0000e	64 89 25 00 00
	00 00		 mov	 DWORD PTR fs:__except_list, esp
  00015	83 ec 44	 sub	 esp, 68			; 00000044H

; 884  : 		_THROW(length_error, "vector<T> too long");

  00018	6a 12		 push	 18			; 00000012H
  0001a	68 00 00 00 00	 push	 OFFSET FLAT:??_C@_0BD@OLBABOEK@vector?$DMT?$DO?5too?5long?$AA@
  0001f	8d 4c 24 08	 lea	 ecx, DWORD PTR $T212216[esp+88]
  00023	c7 44 24 20 0f
	00 00 00	 mov	 DWORD PTR $T212216[esp+112], 15 ; 0000000fH
  0002b	c7 44 24 1c 00
	00 00 00	 mov	 DWORD PTR $T212216[esp+108], 0
  00033	c6 44 24 0c 00	 mov	 BYTE PTR $T212216[esp+92], 0
  00038	e8 00 00 00 00	 call	 ?assign@?$basic_string@DU?$char_traits@D@std@@V?$allocator@D@2@@std@@QAEAAV12@PBDI@Z ; std::basic_string<char,std::char_traits<char>,std::allocator<char> >::assign
  0003d	8d 04 24	 lea	 eax, DWORD PTR $T212216[esp+80]
  00040	50		 push	 eax
  00041	8d 4c 24 20	 lea	 ecx, DWORD PTR $T212215[esp+84]
  00045	c7 44 24 50 00
	00 00 00	 mov	 DWORD PTR __$EHRec$[esp+92], 0
  0004d	e8 00 00 00 00	 call	 ??0logic_error@std@@QAE@ABV?$basic_string@DU?$char_traits@D@std@@V?$allocator@D@2@@1@@Z ; std::logic_error::logic_error
  00052	68 00 00 00 00	 push	 OFFSET FLAT:__TI3?AVlength_error@std@@
  00057	8d 4c 24 20	 lea	 ecx, DWORD PTR $T212215[esp+84]
  0005b	51		 push	 ecx
  0005c	c7 44 24 24 00
	00 00 00	 mov	 DWORD PTR $T212215[esp+88], OFFSET FLAT:??_7length_error@std@@6B@
  00064	e8 00 00 00 00	 call	 __CxxThrowException@8
$L212331:
  00069	cc		 int	 3
_TEXT	ENDS
;	COMDAT text$x
text$x	SEGMENT
$L212217:
  00000	8d 4d b0	 lea	 ecx, DWORD PTR $T212216[ebp]
  00003	e9 00 00 00 00	 jmp	 ??1?$basic_string@DU?$char_traits@D@std@@V?$allocator@D@2@@std@@QAE@XZ ; std::basic_string<char,std::char_traits<char>,std::allocator<char> >::~basic_string<char,std::char_traits<char>,std::allocator<char> >
__ehhandler$?_Xlen@?$vector@U_QUIZLIST@CQuiz@@V?$allocator@U_QUIZLIST@CQuiz@@@std@@@std@@IBEXXZ:
  00008	b8 00 00 00 00	 mov	 eax, OFFSET FLAT:$T212329
  0000d	e9 00 00 00 00	 jmp	 ___CxxFrameHandler
text$x	ENDS
?_Xlen@?$vector@U_QUIZLIST@CQuiz@@V?$allocator@U_QUIZLIST@CQuiz@@@std@@@std@@IBEXXZ ENDP ; std::vector<CQuiz::_QUIZLIST,std::allocator<CQuiz::_QUIZLIST> >::_Xlen
PUBLIC	??$_Uninitialized_fill_n@PAU_QUIZLIST@CQuiz@@IU12@V?$allocator@U_QUIZLIST@CQuiz@@@std@@@std@@YAXPAU_QUIZLIST@CQuiz@@IABU12@AAV?$allocator@U_QUIZLIST@CQuiz@@@0@@Z ; std::_Uninitialized_fill_n<CQuiz::_QUIZLIST *,unsigned int,CQuiz::_QUIZLIST,std::allocator<CQuiz::_QUIZLIST> >
; Function compile flags: /Ogty
; File c:\program files\microsoft visual studio .net 2003\vc7\include\memory
;	COMDAT ??$_Uninitialized_fill_n@PAU_QUIZLIST@CQuiz@@IU12@V?$allocator@U_QUIZLIST@CQuiz@@@std@@@std@@YAXPAU_QUIZLIST@CQuiz@@IABU12@AAV?$allocator@U_QUIZLIST@CQuiz@@@0@@Z
_TEXT	SEGMENT
__Cat$212341 = -4					; size = 1
__First$ = 8						; size = 4
__Count$ = 12						; size = 4
__Val$ = 16						; size = 4
__Al$ = 20						; size = 4
??$_Uninitialized_fill_n@PAU_QUIZLIST@CQuiz@@IU12@V?$allocator@U_QUIZLIST@CQuiz@@@std@@@std@@YAXPAU_QUIZLIST@CQuiz@@IABU12@AAV?$allocator@U_QUIZLIST@CQuiz@@@0@@Z PROC NEAR ; std::_Uninitialized_fill_n<CQuiz::_QUIZLIST *,unsigned int,CQuiz::_QUIZLIST,std::allocator<CQuiz::_QUIZLIST> >, COMDAT

; 255  : 	{	// copy _Count *_Val to raw _First, using _Al

  00000	51		 push	 ecx

; 256  : 	_Uninit_fill_n(_First, _Count, _Val, _Al,
; 257  : 		_Ptr_cat(_First, _First));

  00001	8b 04 24	 mov	 eax, DWORD PTR __Cat$212341[esp+4]
  00004	8b 4c 24 14	 mov	 ecx, DWORD PTR __Al$[esp]
  00008	8b 54 24 10	 mov	 edx, DWORD PTR __Val$[esp]
  0000c	50		 push	 eax
  0000d	8b 44 24 10	 mov	 eax, DWORD PTR __Count$[esp+4]
  00011	51		 push	 ecx
  00012	8b 4c 24 10	 mov	 ecx, DWORD PTR __First$[esp+8]
  00016	52		 push	 edx
  00017	50		 push	 eax
  00018	51		 push	 ecx
  00019	e8 00 00 00 00	 call	 ??$_Uninit_fill_n@PAU_QUIZLIST@CQuiz@@IU12@V?$allocator@U_QUIZLIST@CQuiz@@@std@@@std@@YAXPAU_QUIZLIST@CQuiz@@IABU12@AAV?$allocator@U_QUIZLIST@CQuiz@@@0@U_Nonscalar_ptr_iterator_tag@0@@Z ; std::_Uninit_fill_n<CQuiz::_QUIZLIST *,unsigned int,CQuiz::_QUIZLIST,std::allocator<CQuiz::_QUIZLIST> >

; 258  : 	}

  0001e	83 c4 18	 add	 esp, 24			; 00000018H
  00021	c3		 ret	 0
??$_Uninitialized_fill_n@PAU_QUIZLIST@CQuiz@@IU12@V?$allocator@U_QUIZLIST@CQuiz@@@std@@@std@@YAXPAU_QUIZLIST@CQuiz@@IABU12@AAV?$allocator@U_QUIZLIST@CQuiz@@@0@@Z ENDP ; std::_Uninitialized_fill_n<CQuiz::_QUIZLIST *,unsigned int,CQuiz::_QUIZLIST,std::allocator<CQuiz::_QUIZLIST> >
_TEXT	ENDS
PUBLIC	??$_Destroy_range@U_QUIZLIST@CQuiz@@V?$allocator@U_QUIZLIST@CQuiz@@@std@@@std@@YAXPAU_QUIZLIST@CQuiz@@0AAV?$allocator@U_QUIZLIST@CQuiz@@@0@@Z ; std::_Destroy_range<CQuiz::_QUIZLIST,std::allocator<CQuiz::_QUIZLIST> >
; Function compile flags: /Ogty
; File c:\program files\microsoft visual studio .net 2003\vc7\include\xmemory
;	COMDAT ??$_Destroy_range@U_QUIZLIST@CQuiz@@V?$allocator@U_QUIZLIST@CQuiz@@@std@@@std@@YAXPAU_QUIZLIST@CQuiz@@0AAV?$allocator@U_QUIZLIST@CQuiz@@@0@@Z
_TEXT	SEGMENT
__First$ = 8						; size = 4
__Last$ = 12						; size = 4
__Al$ = 16						; size = 4
??$_Destroy_range@U_QUIZLIST@CQuiz@@V?$allocator@U_QUIZLIST@CQuiz@@@std@@@std@@YAXPAU_QUIZLIST@CQuiz@@0AAV?$allocator@U_QUIZLIST@CQuiz@@@0@@Z PROC NEAR ; std::_Destroy_range<CQuiz::_QUIZLIST,std::allocator<CQuiz::_QUIZLIST> >, COMDAT

; 216  : 	{	// destroy [_First, _Last)

  00000	56		 push	 esi

; 217  : 	_Destroy_range(_First, _Last, _Al, _Ptr_cat(_First, _Last));

  00001	8b 74 24 08	 mov	 esi, DWORD PTR __First$[esp]
  00005	57		 push	 edi
  00006	8b 7c 24 10	 mov	 edi, DWORD PTR __Last$[esp+4]
  0000a	3b f7		 cmp	 esi, edi
  0000c	74 10		 je	 SHORT $L212379
  0000e	8b ff		 npad	 2
$L212377:
  00010	8b ce		 mov	 ecx, esi
  00012	e8 00 00 00 00	 call	 ??1_QUIZLIST@CQuiz@@QAE@XZ
  00017	83 c6 14	 add	 esi, 20			; 00000014H
  0001a	3b f7		 cmp	 esi, edi
  0001c	75 f2		 jne	 SHORT $L212377
$L212379:
  0001e	5f		 pop	 edi
  0001f	5e		 pop	 esi

; 218  : 	}

  00020	c3		 ret	 0
??$_Destroy_range@U_QUIZLIST@CQuiz@@V?$allocator@U_QUIZLIST@CQuiz@@@std@@@std@@YAXPAU_QUIZLIST@CQuiz@@0AAV?$allocator@U_QUIZLIST@CQuiz@@@0@@Z ENDP ; std::_Destroy_range<CQuiz::_QUIZLIST,std::allocator<CQuiz::_QUIZLIST> >
_TEXT	ENDS
PUBLIC	??$_Ucopy@PAU_QUIZLIST@CQuiz@@@?$vector@U_QUIZLIST@CQuiz@@V?$allocator@U_QUIZLIST@CQuiz@@@std@@@std@@IAEPAU_QUIZLIST@CQuiz@@PAU23@00@Z ; std::vector<CQuiz::_QUIZLIST,std::allocator<CQuiz::_QUIZLIST> >::_Ucopy<CQuiz::_QUIZLIST *>
; Function compile flags: /Ogty
; File c:\program files\microsoft visual studio .net 2003\vc7\include\vector
;	COMDAT ??$_Ucopy@PAU_QUIZLIST@CQuiz@@@?$vector@U_QUIZLIST@CQuiz@@V?$allocator@U_QUIZLIST@CQuiz@@@std@@@std@@IAEPAU_QUIZLIST@CQuiz@@PAU23@00@Z
_TEXT	SEGMENT
__First$ = 8						; size = 4
__Last$ = 12						; size = 4
__Cat$212396 = 16					; size = 1
__Ptr$ = 16						; size = 4
??$_Ucopy@PAU_QUIZLIST@CQuiz@@@?$vector@U_QUIZLIST@CQuiz@@V?$allocator@U_QUIZLIST@CQuiz@@@std@@@std@@IAEPAU_QUIZLIST@CQuiz@@PAU23@00@Z PROC NEAR ; std::vector<CQuiz::_QUIZLIST,std::allocator<CQuiz::_QUIZLIST> >::_Ucopy<CQuiz::_QUIZLIST *>, COMDAT
; _this$ = ecx

; 802  : 		{	// copy initializing [_First, _Last), using allocator
; 803  : 		return (_Uninitialized_copy(_First, _Last,
; 804  : 			_Ptr, this->_Alval));

  00000	8b 44 24 0c	 mov	 eax, DWORD PTR __Cat$212396[esp-4]
  00004	8b 54 24 08	 mov	 edx, DWORD PTR __Last$[esp-4]
  00008	50		 push	 eax
  00009	8b 44 24 08	 mov	 eax, DWORD PTR __First$[esp]
  0000d	51		 push	 ecx
  0000e	8b 4c 24 14	 mov	 ecx, DWORD PTR __Ptr$[esp+4]
  00012	51		 push	 ecx
  00013	52		 push	 edx
  00014	50		 push	 eax
  00015	e8 00 00 00 00	 call	 ??$_Uninit_copy@PAU_QUIZLIST@CQuiz@@PAU12@V?$allocator@U_QUIZLIST@CQuiz@@@std@@@std@@YAPAU_QUIZLIST@CQuiz@@PAU12@00AAV?$allocator@U_QUIZLIST@CQuiz@@@0@U_Nonscalar_ptr_iterator_tag@0@@Z ; std::_Uninit_copy<CQuiz::_QUIZLIST *,CQuiz::_QUIZLIST *,std::allocator<CQuiz::_QUIZLIST> >
  0001a	83 c4 14	 add	 esp, 20			; 00000014H

; 805  : 		}

  0001d	c2 0c 00	 ret	 12			; 0000000cH
??$_Ucopy@PAU_QUIZLIST@CQuiz@@@?$vector@U_QUIZLIST@CQuiz@@V?$allocator@U_QUIZLIST@CQuiz@@@std@@@std@@IAEPAU_QUIZLIST@CQuiz@@PAU23@00@Z ENDP ; std::vector<CQuiz::_QUIZLIST,std::allocator<CQuiz::_QUIZLIST> >::_Ucopy<CQuiz::_QUIZLIST *>
_TEXT	ENDS
PUBLIC	??$fill@PAU_QUIZLIST@CQuiz@@U12@@std@@YAXPAU_QUIZLIST@CQuiz@@0ABU12@@Z ; std::fill<CQuiz::_QUIZLIST *,CQuiz::_QUIZLIST>
; Function compile flags: /Ogty
; File c:\program files\microsoft visual studio .net 2003\vc7\include\xutility
;	COMDAT ??$fill@PAU_QUIZLIST@CQuiz@@U12@@std@@YAXPAU_QUIZLIST@CQuiz@@0ABU12@@Z
_TEXT	SEGMENT
__First$ = 8						; size = 4
__Last$ = 12						; size = 4
__Val$ = 16						; size = 4
??$fill@PAU_QUIZLIST@CQuiz@@U12@@std@@YAXPAU_QUIZLIST@CQuiz@@0ABU12@@Z PROC NEAR ; std::fill<CQuiz::_QUIZLIST *,CQuiz::_QUIZLIST>, COMDAT

; 1134 : 	{	// copy _Val through [_First, _Last)

  00000	55		 push	 ebp

; 1135 : 	for (; _First != _Last; ++_First)

  00001	8b 6c 24 0c	 mov	 ebp, DWORD PTR __Last$[esp]
  00005	56		 push	 esi
  00006	8b 74 24 0c	 mov	 esi, DWORD PTR __First$[esp+4]
  0000a	3b f5		 cmp	 esi, ebp
  0000c	74 31		 je	 SHORT $L205401
  0000e	53		 push	 ebx
  0000f	57		 push	 edi
  00010	8b 7c 24 1c	 mov	 edi, DWORD PTR __Val$[esp+12]
  00014	8d 5f 04	 lea	 ebx, DWORD PTR [edi+4]
$L205399:

; 1136 : 		*_First = _Val;

  00017	8b 07		 mov	 eax, DWORD PTR [edi]
  00019	53		 push	 ebx
  0001a	8d 4e 04	 lea	 ecx, DWORD PTR [esi+4]
  0001d	89 06		 mov	 DWORD PTR [esi], eax
  0001f	e8 00 00 00 00	 call	 ??4?$CSimpleStringT@D$0A@@ATL@@QAEAAV01@ABV01@@Z ; ATL::CSimpleStringT<char,0>::operator=
  00024	8b 4f 08	 mov	 ecx, DWORD PTR [edi+8]
  00027	89 4e 08	 mov	 DWORD PTR [esi+8], ecx
  0002a	8b 57 0c	 mov	 edx, DWORD PTR [edi+12]
  0002d	89 56 0c	 mov	 DWORD PTR [esi+12], edx
  00030	8b 47 10	 mov	 eax, DWORD PTR [edi+16]
  00033	89 46 10	 mov	 DWORD PTR [esi+16], eax
  00036	83 c6 14	 add	 esi, 20			; 00000014H
  00039	3b f5		 cmp	 esi, ebp
  0003b	75 da		 jne	 SHORT $L205399
  0003d	5f		 pop	 edi
  0003e	5b		 pop	 ebx
$L205401:
  0003f	5e		 pop	 esi
  00040	5d		 pop	 ebp

; 1137 : 	}

  00041	c3		 ret	 0
??$fill@PAU_QUIZLIST@CQuiz@@U12@@std@@YAXPAU_QUIZLIST@CQuiz@@0ABU12@@Z ENDP ; std::fill<CQuiz::_QUIZLIST *,CQuiz::_QUIZLIST>
_TEXT	ENDS
PUBLIC	??$copy_backward@PAU_QUIZLIST@CQuiz@@PAU12@@std@@YAPAU_QUIZLIST@CQuiz@@PAU12@00@Z ; std::copy_backward<CQuiz::_QUIZLIST *,CQuiz::_QUIZLIST *>
; Function compile flags: /Ogty
;	COMDAT ??$copy_backward@PAU_QUIZLIST@CQuiz@@PAU12@@std@@YAPAU_QUIZLIST@CQuiz@@PAU12@00@Z
_TEXT	SEGMENT
__Cat$212419 = -4					; size = 1
__First$ = 8						; size = 4
__Last$ = 12						; size = 4
__Dest$ = 16						; size = 4
??$copy_backward@PAU_QUIZLIST@CQuiz@@PAU12@@std@@YAPAU_QUIZLIST@CQuiz@@PAU12@00@Z PROC NEAR ; std::copy_backward<CQuiz::_QUIZLIST *,CQuiz::_QUIZLIST *>, COMDAT

; 1067 : 	{	// copy [_First, _Last) backwards to [..., _Dest)

  00000	51		 push	 ecx

; 1068 : 	return (_Copy_backward_opt(_First, _Last, _Dest,
; 1069 : 		_Ptr_cat(_First, _Dest)));

  00001	8b 04 24	 mov	 eax, DWORD PTR __Cat$212419[esp+4]
  00004	8b 4c 24 10	 mov	 ecx, DWORD PTR __Dest$[esp]
  00008	8b 54 24 0c	 mov	 edx, DWORD PTR __Last$[esp]
  0000c	50		 push	 eax
  0000d	8b 44 24 0c	 mov	 eax, DWORD PTR __First$[esp+4]
  00011	51		 push	 ecx
  00012	52		 push	 edx
  00013	50		 push	 eax
  00014	e8 00 00 00 00	 call	 ??$_Copy_backward_opt@PAU_QUIZLIST@CQuiz@@PAU12@@std@@YAPAU_QUIZLIST@CQuiz@@PAU12@00U_Nonscalar_ptr_iterator_tag@0@@Z ; std::_Copy_backward_opt<CQuiz::_QUIZLIST *,CQuiz::_QUIZLIST *>

; 1070 : 	}

  00019	83 c4 14	 add	 esp, 20			; 00000014H
  0001c	c3		 ret	 0
??$copy_backward@PAU_QUIZLIST@CQuiz@@PAU12@@std@@YAPAU_QUIZLIST@CQuiz@@PAU12@00@Z ENDP ; std::copy_backward<CQuiz::_QUIZLIST *,CQuiz::_QUIZLIST *>
_TEXT	ENDS
PUBLIC	?insert@?$_Tree@V?$_Tmap_traits@KU_WORLDDATA@CQuizDBCtrl@@U?$less@K@std@@V?$allocator@U?$pair@$$CBKU_WORLDDATA@CQuizDBCtrl@@@std@@@4@$0A@@std@@@std@@QAE?AU?$pair@Viterator@?$_Tree@V?$_Tmap_traits@KU_WORLDDATA@CQuizDBCtrl@@U?$less@K@std@@V?$allocator@U?$pair@$$CBKU_WORLDDATA@CQuizDBCtrl@@@std@@@4@$0A@@std@@@std@@_N@2@ABU?$pair@$$CBKU_WORLDDATA@CQuizDBCtrl@@@2@@Z ; std::_Tree<std::_Tmap_traits<unsigned long,CQuizDBCtrl::_WORLDDATA,std::less<unsigned long>,std::allocator<std::pair<unsigned long const ,CQuizDBCtrl::_WORLDDATA> >,0> >::insert
; Function compile flags: /Ogty
; File c:\program files\microsoft visual studio .net 2003\vc7\include\xtree
;	COMDAT ?insert@?$_Tree@V?$_Tmap_traits@KU_WORLDDATA@CQuizDBCtrl@@U?$less@K@std@@V?$allocator@U?$pair@$$CBKU_WORLDDATA@CQuizDBCtrl@@@std@@@4@$0A@@std@@@std@@QAE?AU?$pair@Viterator@?$_Tree@V?$_Tmap_traits@KU_WORLDDATA@CQuizDBCtrl@@U?$less@K@std@@V?$allocator@U?$pair@$$CBKU_WORLDDATA@CQuizDBCtrl@@@std@@@4@$0A@@std@@@std@@_N@2@ABU?$pair@$$CBKU_WORLDDATA@CQuizDBCtrl@@@2@@Z
_TEXT	SEGMENT
__Addleft$ = -4						; size = 1
___$ReturnUdt$ = 8					; size = 4
$T212430 = 12						; size = 4
$T212428 = 12						; size = 4
__Where$204295 = 12					; size = 4
__Val$ = 12						; size = 4
?insert@?$_Tree@V?$_Tmap_traits@KU_WORLDDATA@CQuizDBCtrl@@U?$less@K@std@@V?$allocator@U?$pair@$$CBKU_WORLDDATA@CQuizDBCtrl@@@std@@@4@$0A@@std@@@std@@QAE?AU?$pair@Viterator@?$_Tree@V?$_Tmap_traits@KU_WORLDDATA@CQuizDBCtrl@@U?$less@K@std@@V?$allocator@U?$pair@$$CBKU_WORLDDATA@CQuizDBCtrl@@@std@@@4@$0A@@std@@@std@@_N@2@ABU?$pair@$$CBKU_WORLDDATA@CQuizDBCtrl@@@2@@Z PROC NEAR ; std::_Tree<std::_Tmap_traits<unsigned long,CQuizDBCtrl::_WORLDDATA,std::less<unsigned long>,std::allocator<std::pair<unsigned long const ,CQuizDBCtrl::_WORLDDATA> >,0> >::insert, COMDAT
; _this$ = ecx

; 477  : 		{	// try to insert node with value _Val

  00000	51		 push	 ecx
  00001	55		 push	 ebp

; 478  : 		_Nodeptr _Trynode = _Root();
; 479  : 		_Nodeptr _Wherenode = _Myhead;
; 480  : 		bool _Addleft = true;	// add to left of head if tree empty
; 481  : 		while (!_Isnil(_Trynode))

  00002	8b 6c 24 10	 mov	 ebp, DWORD PTR __Val$[esp+4]
  00006	56		 push	 esi
  00007	57		 push	 edi
  00008	8b f9		 mov	 edi, ecx
  0000a	8b 77 04	 mov	 esi, DWORD PTR [edi+4]
  0000d	8b 46 04	 mov	 eax, DWORD PTR [esi+4]
  00010	8a 50 2d	 mov	 dl, BYTE PTR [eax+45]
  00013	84 d2		 test	 dl, dl
  00015	b1 01		 mov	 cl, 1
  00017	88 4c 24 0c	 mov	 BYTE PTR __Addleft$[esp+16], cl
  0001b	75 20		 jne	 SHORT $L204285
  0001d	8b 55 00	 mov	 edx, DWORD PTR [ebp]
$L204284:

; 482  : 			{	// look for leaf to insert before (_Addleft) or after
; 483  : 			_Wherenode = _Trynode;
; 484  : 			_Addleft = this->comp(this->_Kfn(_Val), _Key(_Trynode));

  00020	3b 50 0c	 cmp	 edx, DWORD PTR [eax+12]
  00023	0f 92 c1	 setb	 cl

; 485  : 			_Trynode = _Addleft ? _Left(_Trynode) : _Right(_Trynode);

  00026	84 c9		 test	 cl, cl
  00028	8b f0		 mov	 esi, eax
  0002a	88 4c 24 0c	 mov	 BYTE PTR __Addleft$[esp+16], cl
  0002e	74 04		 je	 SHORT $L212422
  00030	8b 00		 mov	 eax, DWORD PTR [eax]
  00032	eb 03		 jmp	 SHORT $L212423
$L212422:
  00034	8b 40 08	 mov	 eax, DWORD PTR [eax+8]
$L212423:

; 478  : 		_Nodeptr _Trynode = _Root();
; 479  : 		_Nodeptr _Wherenode = _Myhead;
; 480  : 		bool _Addleft = true;	// add to left of head if tree empty
; 481  : 		while (!_Isnil(_Trynode))

  00037	80 78 2d 00	 cmp	 BYTE PTR [eax+45], 0
  0003b	74 e3		 je	 SHORT $L204284
$L204285:

; 486  : 			}
; 487  : 
; 488  : 		if (this->_Multi)
; 489  : 			return (_Pairib(_Insert(_Addleft, _Wherenode, _Val), true));
; 490  : 		else
; 491  : 			{	// insert only if unique
; 492  : 			iterator _Where = _TREE_ITERATOR(_Wherenode);
; 493  : 			if (!_Addleft)

  0003d	84 c9		 test	 cl, cl
  0003f	8b d6		 mov	 edx, esi
  00041	89 54 24 18	 mov	 DWORD PTR __Where$204295[esp+12], edx
  00045	74 33		 je	 SHORT $L212521

; 494  : 				;	// need to test if insert after is okay
; 495  : 			else if (_Where == begin())

  00047	8b 47 04	 mov	 eax, DWORD PTR [edi+4]
  0004a	3b 30		 cmp	 esi, DWORD PTR [eax]

; 496  : 				return (_Pairib(_Insert(true, _Wherenode, _Val), true));

  0004c	8d 4c 24 18	 lea	 ecx, DWORD PTR $T212428[esp+12]
  00050	75 1f		 jne	 SHORT $L204300
  00052	55		 push	 ebp
  00053	56		 push	 esi
  00054	6a 01		 push	 1
  00056	51		 push	 ecx
  00057	8b cf		 mov	 ecx, edi
  00059	e8 00 00 00 00	 call	 ?_Insert@?$_Tree@V?$_Tmap_traits@KU_WORLDDATA@CQuizDBCtrl@@U?$less@K@std@@V?$allocator@U?$pair@$$CBKU_WORLDDATA@CQuizDBCtrl@@@std@@@4@$0A@@std@@@std@@IAE?AViterator@12@_NPAU_Node@?$_Tree_nod@V?$_Tmap_traits@KU_WORLDDATA@CQuizDBCtrl@@U?$less@K@std@@V?$allocator@U?$pair@$$CBKU_WORLDDATA@CQuizDBCtrl@@@std@@@4@$0A@@std@@@2@ABU?$pair@$$CBKU_WORLDDATA@CQuizDBCtrl@@@2@@Z ; std::_Tree<std::_Tmap_traits<unsigned long,CQuizDBCtrl::_WORLDDATA,std::less<unsigned long>,std::allocator<std::pair<unsigned long const ,CQuizDBCtrl::_WORLDDATA> >,0> >::_Insert
  0005e	8b 10		 mov	 edx, DWORD PTR [eax]
  00060	8b 44 24 14	 mov	 eax, DWORD PTR ___$ReturnUdt$[esp+12]
  00064	5f		 pop	 edi
  00065	5e		 pop	 esi
  00066	c6 40 04 01	 mov	 BYTE PTR [eax+4], 1

; 502  : 			else
; 503  : 				return (_Pairib(_Where, false));

  0006a	89 10		 mov	 DWORD PTR [eax], edx
  0006c	5d		 pop	 ebp

; 504  : 			}
; 505  : 		}

  0006d	59		 pop	 ecx
  0006e	c2 08 00	 ret	 8
$L204300:

; 497  : 			else
; 498  : 				--_Where;	// need to test if insert before is okay

  00071	e8 00 00 00 00	 call	 ?_Dec@const_iterator@?$_Tree@V?$_Tmap_traits@KU_WORLDDATA@CQuizDBCtrl@@U?$less@K@std@@V?$allocator@U?$pair@$$CBKU_WORLDDATA@CQuizDBCtrl@@@std@@@4@$0A@@std@@@std@@QAEXXZ ; std::_Tree<std::_Tmap_traits<unsigned long,CQuizDBCtrl::_WORLDDATA,std::less<unsigned long>,std::allocator<std::pair<unsigned long const ,CQuizDBCtrl::_WORLDDATA> >,0> >::const_iterator::_Dec
  00076	8b 54 24 18	 mov	 edx, DWORD PTR __Where$204295[esp+12]
$L212521:

; 499  : 
; 500  : 			if (this->comp(_Key(_Where._Mynode()), this->_Kfn(_Val)))

  0007a	8b 42 0c	 mov	 eax, DWORD PTR [edx+12]
  0007d	3b 45 00	 cmp	 eax, DWORD PTR [ebp]
  00080	73 26		 jae	 SHORT $L204305

; 501  : 				return (_Pairib(_Insert(_Addleft, _Wherenode, _Val), true));

  00082	8b 4c 24 0c	 mov	 ecx, DWORD PTR __Addleft$[esp+16]
  00086	55		 push	 ebp
  00087	56		 push	 esi
  00088	51		 push	 ecx
  00089	8d 54 24 24	 lea	 edx, DWORD PTR $T212430[esp+24]
  0008d	52		 push	 edx
  0008e	8b cf		 mov	 ecx, edi
  00090	e8 00 00 00 00	 call	 ?_Insert@?$_Tree@V?$_Tmap_traits@KU_WORLDDATA@CQuizDBCtrl@@U?$less@K@std@@V?$allocator@U?$pair@$$CBKU_WORLDDATA@CQuizDBCtrl@@@std@@@4@$0A@@std@@@std@@IAE?AViterator@12@_NPAU_Node@?$_Tree_nod@V?$_Tmap_traits@KU_WORLDDATA@CQuizDBCtrl@@U?$less@K@std@@V?$allocator@U?$pair@$$CBKU_WORLDDATA@CQuizDBCtrl@@@std@@@4@$0A@@std@@@2@ABU?$pair@$$CBKU_WORLDDATA@CQuizDBCtrl@@@2@@Z ; std::_Tree<std::_Tmap_traits<unsigned long,CQuizDBCtrl::_WORLDDATA,std::less<unsigned long>,std::allocator<std::pair<unsigned long const ,CQuizDBCtrl::_WORLDDATA> >,0> >::_Insert
  00095	8b 08		 mov	 ecx, DWORD PTR [eax]
  00097	8b 44 24 14	 mov	 eax, DWORD PTR ___$ReturnUdt$[esp+12]
  0009b	5f		 pop	 edi
  0009c	5e		 pop	 esi
  0009d	89 08		 mov	 DWORD PTR [eax], ecx
  0009f	c6 40 04 01	 mov	 BYTE PTR [eax+4], 1
  000a3	5d		 pop	 ebp

; 504  : 			}
; 505  : 		}

  000a4	59		 pop	 ecx
  000a5	c2 08 00	 ret	 8
$L204305:

; 502  : 			else
; 503  : 				return (_Pairib(_Where, false));

  000a8	8b 44 24 14	 mov	 eax, DWORD PTR ___$ReturnUdt$[esp+12]
  000ac	5f		 pop	 edi
  000ad	5e		 pop	 esi
  000ae	c6 40 04 00	 mov	 BYTE PTR [eax+4], 0
  000b2	89 10		 mov	 DWORD PTR [eax], edx
  000b4	5d		 pop	 ebp

; 504  : 			}
; 505  : 		}

  000b5	59		 pop	 ecx
  000b6	c2 08 00	 ret	 8
?insert@?$_Tree@V?$_Tmap_traits@KU_WORLDDATA@CQuizDBCtrl@@U?$less@K@std@@V?$allocator@U?$pair@$$CBKU_WORLDDATA@CQuizDBCtrl@@@std@@@4@$0A@@std@@@std@@QAE?AU?$pair@Viterator@?$_Tree@V?$_Tmap_traits@KU_WORLDDATA@CQuizDBCtrl@@U?$less@K@std@@V?$allocator@U?$pair@$$CBKU_WORLDDATA@CQuizDBCtrl@@@std@@@4@$0A@@std@@@std@@_N@2@ABU?$pair@$$CBKU_WORLDDATA@CQuizDBCtrl@@@2@@Z ENDP ; std::_Tree<std::_Tmap_traits<unsigned long,CQuizDBCtrl::_WORLDDATA,std::less<unsigned long>,std::allocator<std::pair<unsigned long const ,CQuizDBCtrl::_WORLDDATA> >,0> >::insert
_TEXT	ENDS
PUBLIC	?_Tidy@?$_Tree@V?$_Tmap_traits@KU_WORLDDATA@CQuizDBCtrl@@U?$less@K@std@@V?$allocator@U?$pair@$$CBKU_WORLDDATA@CQuizDBCtrl@@@std@@@4@$0A@@std@@@std@@IAEXXZ ; std::_Tree<std::_Tmap_traits<unsigned long,CQuizDBCtrl::_WORLDDATA,std::less<unsigned long>,std::allocator<std::pair<unsigned long const ,CQuizDBCtrl::_WORLDDATA> >,0> >::_Tidy
; Function compile flags: /Ogty
;	COMDAT ?_Tidy@?$_Tree@V?$_Tmap_traits@KU_WORLDDATA@CQuizDBCtrl@@U?$less@K@std@@V?$allocator@U?$pair@$$CBKU_WORLDDATA@CQuizDBCtrl@@@std@@@4@$0A@@std@@@std@@IAEXXZ
_TEXT	SEGMENT
$T212560 = -4						; size = 4
?_Tidy@?$_Tree@V?$_Tmap_traits@KU_WORLDDATA@CQuizDBCtrl@@U?$less@K@std@@V?$allocator@U?$pair@$$CBKU_WORLDDATA@CQuizDBCtrl@@@std@@@4@$0A@@std@@@std@@IAEXXZ PROC NEAR ; std::_Tree<std::_Tmap_traits<unsigned long,CQuizDBCtrl::_WORLDDATA,std::less<unsigned long>,std::allocator<std::pair<unsigned long const ,CQuizDBCtrl::_WORLDDATA> >,0> >::_Tidy, COMDAT
; _this$ = ecx

; 1142 : 		{	// free all storage

  00000	51		 push	 ecx
  00001	56		 push	 esi
  00002	8b f1		 mov	 esi, ecx

; 1143 : 		erase(begin(), end());

  00004	8b 46 04	 mov	 eax, DWORD PTR [esi+4]
  00007	8b 08		 mov	 ecx, DWORD PTR [eax]
  00009	50		 push	 eax
  0000a	51		 push	 ecx
  0000b	8d 44 24 0c	 lea	 eax, DWORD PTR $T212560[esp+16]
  0000f	50		 push	 eax
  00010	8b ce		 mov	 ecx, esi
  00012	e8 00 00 00 00	 call	 ?erase@?$_Tree@V?$_Tmap_traits@KU_WORLDDATA@CQuizDBCtrl@@U?$less@K@std@@V?$allocator@U?$pair@$$CBKU_WORLDDATA@CQuizDBCtrl@@@std@@@4@$0A@@std@@@std@@QAE?AViterator@12@V312@0@Z ; std::_Tree<std::_Tmap_traits<unsigned long,CQuizDBCtrl::_WORLDDATA,std::less<unsigned long>,std::allocator<std::pair<unsigned long const ,CQuizDBCtrl::_WORLDDATA> >,0> >::erase

; 1144 : 		this->_Alptr.destroy(&_Left(_Myhead));
; 1145 : 		this->_Alptr.destroy(&_Parent(_Myhead));
; 1146 : 		this->_Alptr.destroy(&_Right(_Myhead));
; 1147 : 		this->_Alnod.deallocate(_Myhead, 1);

  00017	8b 4e 04	 mov	 ecx, DWORD PTR [esi+4]
  0001a	51		 push	 ecx
  0001b	e8 00 00 00 00	 call	 ??3@YAXPAX@Z		; operator delete
  00020	83 c4 04	 add	 esp, 4

; 1148 : 		_Myhead = 0, _Mysize = 0;

  00023	33 c0		 xor	 eax, eax
  00025	89 46 04	 mov	 DWORD PTR [esi+4], eax
  00028	89 46 08	 mov	 DWORD PTR [esi+8], eax
  0002b	5e		 pop	 esi

; 1149 : 		}

  0002c	59		 pop	 ecx
  0002d	c3		 ret	 0
?_Tidy@?$_Tree@V?$_Tmap_traits@KU_WORLDDATA@CQuizDBCtrl@@U?$less@K@std@@V?$allocator@U?$pair@$$CBKU_WORLDDATA@CQuizDBCtrl@@@std@@@4@$0A@@std@@@std@@IAEXXZ ENDP ; std::_Tree<std::_Tmap_traits<unsigned long,CQuizDBCtrl::_WORLDDATA,std::less<unsigned long>,std::allocator<std::pair<unsigned long const ,CQuizDBCtrl::_WORLDDATA> >,0> >::_Tidy
_TEXT	ENDS
PUBLIC	?_Ufill@?$vector@U_QUIZLIST@CQuiz@@V?$allocator@U_QUIZLIST@CQuiz@@@std@@@std@@IAEPAU_QUIZLIST@CQuiz@@PAU34@IABU34@@Z ; std::vector<CQuiz::_QUIZLIST,std::allocator<CQuiz::_QUIZLIST> >::_Ufill
; Function compile flags: /Ogty
; File c:\program files\microsoft visual studio .net 2003\vc7\include\vector
;	COMDAT ?_Ufill@?$vector@U_QUIZLIST@CQuiz@@V?$allocator@U_QUIZLIST@CQuiz@@@std@@@std@@IAEPAU_QUIZLIST@CQuiz@@PAU34@IABU34@@Z
_TEXT	SEGMENT
__Ptr$ = 8						; size = 4
__Count$ = 12						; size = 4
__Cat$212632 = 16					; size = 1
__Val$ = 16						; size = 4
?_Ufill@?$vector@U_QUIZLIST@CQuiz@@V?$allocator@U_QUIZLIST@CQuiz@@@std@@@std@@IAEPAU_QUIZLIST@CQuiz@@PAU34@IABU34@@Z PROC NEAR ; std::vector<CQuiz::_QUIZLIST,std::allocator<CQuiz::_QUIZLIST> >::_Ufill, COMDAT
; _this$ = ecx

; 878  : 		_Uninitialized_fill_n(_Ptr, _Count, _Val, this->_Alval);

  00000	8b 44 24 0c	 mov	 eax, DWORD PTR __Cat$212632[esp-4]
  00004	56		 push	 esi
  00005	8b 74 24 0c	 mov	 esi, DWORD PTR __Count$[esp]
  00009	57		 push	 edi
  0000a	8b 7c 24 0c	 mov	 edi, DWORD PTR __Ptr$[esp+4]
  0000e	50		 push	 eax
  0000f	51		 push	 ecx
  00010	8b 4c 24 1c	 mov	 ecx, DWORD PTR __Val$[esp+12]
  00014	51		 push	 ecx
  00015	56		 push	 esi
  00016	57		 push	 edi
  00017	e8 00 00 00 00	 call	 ??$_Uninit_fill_n@PAU_QUIZLIST@CQuiz@@IU12@V?$allocator@U_QUIZLIST@CQuiz@@@std@@@std@@YAXPAU_QUIZLIST@CQuiz@@IABU12@AAV?$allocator@U_QUIZLIST@CQuiz@@@0@U_Nonscalar_ptr_iterator_tag@0@@Z ; std::_Uninit_fill_n<CQuiz::_QUIZLIST *,unsigned int,CQuiz::_QUIZLIST,std::allocator<CQuiz::_QUIZLIST> >

; 879  : 		return (_Ptr + _Count);

  0001c	8d 14 b6	 lea	 edx, DWORD PTR [esi+esi*4]
  0001f	83 c4 14	 add	 esp, 20			; 00000014H
  00022	8d 04 97	 lea	 eax, DWORD PTR [edi+edx*4]
  00025	5f		 pop	 edi
  00026	5e		 pop	 esi

; 880  : 		}

  00027	c2 0c 00	 ret	 12			; 0000000cH
?_Ufill@?$vector@U_QUIZLIST@CQuiz@@V?$allocator@U_QUIZLIST@CQuiz@@@std@@@std@@IAEPAU_QUIZLIST@CQuiz@@PAU34@IABU34@@Z ENDP ; std::vector<CQuiz::_QUIZLIST,std::allocator<CQuiz::_QUIZLIST> >::_Ufill
_TEXT	ENDS
PUBLIC	?_Destroy@?$vector@U_QUIZLIST@CQuiz@@V?$allocator@U_QUIZLIST@CQuiz@@@std@@@std@@IAEXPAU_QUIZLIST@CQuiz@@0@Z ; std::vector<CQuiz::_QUIZLIST,std::allocator<CQuiz::_QUIZLIST> >::_Destroy
; Function compile flags: /Ogty
;	COMDAT ?_Destroy@?$vector@U_QUIZLIST@CQuiz@@V?$allocator@U_QUIZLIST@CQuiz@@@std@@@std@@IAEXPAU_QUIZLIST@CQuiz@@0@Z
_TEXT	SEGMENT
__First$ = 8						; size = 4
__Last$ = 12						; size = 4
?_Destroy@?$vector@U_QUIZLIST@CQuiz@@V?$allocator@U_QUIZLIST@CQuiz@@@std@@@std@@IAEXPAU_QUIZLIST@CQuiz@@0@Z PROC NEAR ; std::vector<CQuiz::_QUIZLIST,std::allocator<CQuiz::_QUIZLIST> >::_Destroy, COMDAT
; _this$ = ecx

; 786  : 		{	// destroy [_First, _Last) using allocator

  00000	56		 push	 esi

; 787  : 		_Destroy_range(_First, _Last, this->_Alval);

  00001	8b 74 24 08	 mov	 esi, DWORD PTR __First$[esp]
  00005	57		 push	 edi
  00006	8b 7c 24 10	 mov	 edi, DWORD PTR __Last$[esp+4]
  0000a	3b f7		 cmp	 esi, edi
  0000c	74 10		 je	 SHORT $L212685
  0000e	8b ff		 npad	 2
$L212683:
  00010	8b ce		 mov	 ecx, esi
  00012	e8 00 00 00 00	 call	 ??1_QUIZLIST@CQuiz@@QAE@XZ
  00017	83 c6 14	 add	 esi, 20			; 00000014H
  0001a	3b f7		 cmp	 esi, edi
  0001c	75 f2		 jne	 SHORT $L212683
$L212685:
  0001e	5f		 pop	 edi
  0001f	5e		 pop	 esi

; 788  : 		}

  00020	c2 08 00	 ret	 8
?_Destroy@?$vector@U_QUIZLIST@CQuiz@@V?$allocator@U_QUIZLIST@CQuiz@@@std@@@std@@IAEXPAU_QUIZLIST@CQuiz@@0@Z ENDP ; std::vector<CQuiz::_QUIZLIST,std::allocator<CQuiz::_QUIZLIST> >::_Destroy
_TEXT	ENDS
PUBLIC	?_Insert_n@?$vector@U_QUIZLIST@CQuiz@@V?$allocator@U_QUIZLIST@CQuiz@@@std@@@std@@IAEXViterator@12@IABU_QUIZLIST@CQuiz@@@Z ; std::vector<CQuiz::_QUIZLIST,std::allocator<CQuiz::_QUIZLIST> >::_Insert_n
;	COMDAT xdata$x
; File c:\program files\microsoft visual studio .net 2003\vc7\atlmfc\include\atlsimpstr.h
xdata$x	SEGMENT
$T213019 DD	0ffffffffH
	DD	FLAT:$L212706
	DD	00H
	DD	00H
	DD	00H
	DD	00H
	DD	00H
	DD	00H
	DD	00H
	DD	00H
$T213021 DD	00H
	DD	00H
	DD	00H
	DD	FLAT:$L212703
$T213022 DD	00H
	DD	00H
	DD	00H
	DD	FLAT:$L212705
$T213020 DD	01H
	DD	01H
	DD	02H
	DD	01H
	DD	FLAT:$T213021
	DD	03H
	DD	03H
	DD	04H
	DD	01H
	DD	FLAT:$T213022
$T213016 DD	019930520H
	DD	05H
	DD	FLAT:$T213019
	DD	02H
	DD	FLAT:$T213020
	DD	2 DUP(00H)
; Function compile flags: /Ogty
; File c:\program files\microsoft visual studio .net 2003\vc7\include\vector
xdata$x	ENDS
;	COMDAT ?_Insert_n@?$vector@U_QUIZLIST@CQuiz@@V?$allocator@U_QUIZLIST@CQuiz@@@std@@@std@@IAEXViterator@12@IABU_QUIZLIST@CQuiz@@@Z
_TEXT	SEGMENT
__Tmp$ = -44						; size = 20
__Newvec$204931 = -24					; size = 4
_this$ = -20						; size = 4
__$EHRec$ = -16						; size = 16
tv506 = 8						; size = 4
__Cat$212971 = 8					; size = 1
__Cat$212958 = 8					; size = 1
__Cat$212934 = 8					; size = 1
__Cat$212895 = 8					; size = 1
__Cat$212871 = 8					; size = 1
__Cat$212849 = 8					; size = 1
__Where$ = 8						; size = 4
__Ptr$204932 = 12					; size = 4
__Count$ = 12						; size = 4
tv493 = 16						; size = 4
tv492 = 16						; size = 4
tv477 = 16						; size = 4
__Val$ = 16						; size = 4
?_Insert_n@?$vector@U_QUIZLIST@CQuiz@@V?$allocator@U_QUIZLIST@CQuiz@@@std@@@std@@IAEXViterator@12@IABU_QUIZLIST@CQuiz@@@Z PROC NEAR ; std::vector<CQuiz::_QUIZLIST,std::allocator<CQuiz::_QUIZLIST> >::_Insert_n, COMDAT
; _this$ = ecx

; 809  : 		{	// insert _Count * _Val at _Where

  00000	55		 push	 ebp
  00001	8b ec		 mov	 ebp, esp
  00003	6a ff		 push	 -1
  00005	68 00 00 00 00	 push	 __ehhandler$?_Insert_n@?$vector@U_QUIZLIST@CQuiz@@V?$allocator@U_QUIZLIST@CQuiz@@@std@@@std@@IAEXViterator@12@IABU_QUIZLIST@CQuiz@@@Z
  0000a	64 a1 00 00 00
	00		 mov	 eax, DWORD PTR fs:__except_list
  00010	50		 push	 eax
  00011	64 89 25 00 00
	00 00		 mov	 DWORD PTR fs:__except_list, esp
  00018	83 ec 20	 sub	 esp, 32			; 00000020H
  0001b	53		 push	 ebx
  0001c	56		 push	 esi
  0001d	57		 push	 edi

; 810  : 		_Ty _Tmp = _Val;	// in case _Val is in sequence

  0001e	8b 7d 10	 mov	 edi, DWORD PTR __Val$[ebp]
  00021	8b 07		 mov	 eax, DWORD PTR [edi]
  00023	89 45 d4	 mov	 DWORD PTR __Tmp$[ebp], eax
  00026	8b 47 04	 mov	 eax, DWORD PTR [edi+4]
  00029	83 e8 10	 sub	 eax, 16			; 00000010H
  0002c	89 65 f0	 mov	 DWORD PTR __$EHRec$[ebp], esp
  0002f	8b f1		 mov	 esi, ecx
  00031	50		 push	 eax
  00032	89 75 ec	 mov	 DWORD PTR _this$[ebp], esi
  00035	e8 00 00 00 00	 call	 ?CloneData@?$CSimpleStringT@D$0A@@ATL@@CAPAUCStringData@2@PAU32@@Z ; ATL::CSimpleStringT<char,0>::CloneData
  0003a	8b 4f 08	 mov	 ecx, DWORD PTR [edi+8]
  0003d	8b 57 0c	 mov	 edx, DWORD PTR [edi+12]
  00040	83 c0 10	 add	 eax, 16			; 00000010H
  00043	89 45 d8	 mov	 DWORD PTR __Tmp$[ebp+4], eax
  00046	8b 47 10	 mov	 eax, DWORD PTR [edi+16]
  00049	83 c4 04	 add	 esp, 4
  0004c	89 4d dc	 mov	 DWORD PTR __Tmp$[ebp+8], ecx
  0004f	89 55 e0	 mov	 DWORD PTR __Tmp$[ebp+12], edx
  00052	89 45 e4	 mov	 DWORD PTR __Tmp$[ebp+16], eax

; 811  : 		size_type _Capacity = capacity();

  00055	8b 5e 04	 mov	 ebx, DWORD PTR [esi+4]
  00058	33 c9		 xor	 ecx, ecx
  0005a	3b d9		 cmp	 ebx, ecx
  0005c	89 4d fc	 mov	 DWORD PTR __$EHRec$[ebp+12], ecx
  0005f	74 16		 je	 SHORT $L212765
  00061	8b 4e 0c	 mov	 ecx, DWORD PTR [esi+12]
  00064	2b cb		 sub	 ecx, ebx
  00066	b8 67 66 66 66	 mov	 eax, 1717986919		; 66666667H
  0006b	f7 e9		 imul	 ecx
  0006d	c1 fa 03	 sar	 edx, 3
  00070	8b ca		 mov	 ecx, edx
  00072	c1 e9 1f	 shr	 ecx, 31			; 0000001fH
  00075	03 ca		 add	 ecx, edx
$L212765:

; 812  : 
; 813  : 		if (_Count == 0)

  00077	8b 7d 0c	 mov	 edi, DWORD PTR __Count$[ebp]
  0007a	85 ff		 test	 edi, edi
  0007c	0f 84 75 02 00
	00		 je	 $L204951

; 814  : 			;
; 815  : 		else if (max_size() - size() < _Count)

  00082	85 db		 test	 ebx, ebx
  00084	75 04		 jne	 SHORT $L212788
  00086	33 c0		 xor	 eax, eax
  00088	eb 16		 jmp	 SHORT $L212789
$L212788:
  0008a	8b 56 08	 mov	 edx, DWORD PTR [esi+8]
  0008d	2b d3		 sub	 edx, ebx
  0008f	b8 67 66 66 66	 mov	 eax, 1717986919		; 66666667H
  00094	f7 ea		 imul	 edx
  00096	c1 fa 03	 sar	 edx, 3
  00099	8b c2		 mov	 eax, edx
  0009b	c1 e8 1f	 shr	 eax, 31			; 0000001fH
  0009e	03 c2		 add	 eax, edx
$L212789:
  000a0	ba cc cc cc 0c	 mov	 edx, 214748364		; 0cccccccH
  000a5	2b d0		 sub	 edx, eax
  000a7	3b d7		 cmp	 edx, edi
  000a9	73 07		 jae	 SHORT $L204927

; 816  : 			_Xlen();	// result too long

  000ab	8b ce		 mov	 ecx, esi
  000ad	e8 00 00 00 00	 call	 ?_Xlen@?$vector@U_QUIZLIST@CQuiz@@V?$allocator@U_QUIZLIST@CQuiz@@@std@@@std@@IBEXXZ ; std::vector<CQuiz::_QUIZLIST,std::allocator<CQuiz::_QUIZLIST> >::_Xlen
$L204927:

; 817  : 		else if (_Capacity < size() + _Count)

  000b2	85 db		 test	 ebx, ebx
  000b4	75 04		 jne	 SHORT $L212795
  000b6	33 c0		 xor	 eax, eax
  000b8	eb 16		 jmp	 SHORT $L212796
$L212795:
  000ba	8b 56 08	 mov	 edx, DWORD PTR [esi+8]
  000bd	2b d3		 sub	 edx, ebx
  000bf	b8 67 66 66 66	 mov	 eax, 1717986919		; 66666667H
  000c4	f7 ea		 imul	 edx
  000c6	c1 fa 03	 sar	 edx, 3
  000c9	8b c2		 mov	 eax, edx
  000cb	c1 e8 1f	 shr	 eax, 31			; 0000001fH
  000ce	03 c2		 add	 eax, edx
$L212796:
  000d0	03 c7		 add	 eax, edi
  000d2	3b c8		 cmp	 ecx, eax
  000d4	0f 83 26 01 00
	00		 jae	 $L204929

; 818  : 			{	// not enough room, reallocate
; 819  : 			_Capacity = max_size() - _Capacity / 2 < _Capacity
; 820  : 				? 0 : _Capacity + _Capacity / 2;	// try to grow by 50%

  000da	8b c1		 mov	 eax, ecx
  000dc	d1 e8		 shr	 eax, 1
  000de	ba cc cc cc 0c	 mov	 edx, 214748364		; 0cccccccH
  000e3	2b d0		 sub	 edx, eax
  000e5	3b d1		 cmp	 edx, ecx
  000e7	73 04		 jae	 SHORT $L212700
  000e9	33 c9		 xor	 ecx, ecx
  000eb	eb 02		 jmp	 SHORT $L212701
$L212700:
  000ed	03 c8		 add	 ecx, eax
$L212701:

; 821  : 			if (_Capacity < size() + _Count)

  000ef	85 db		 test	 ebx, ebx
  000f1	75 04		 jne	 SHORT $L212818
  000f3	33 c0		 xor	 eax, eax
  000f5	eb 16		 jmp	 SHORT $L212819
$L212818:
  000f7	8b 56 08	 mov	 edx, DWORD PTR [esi+8]
  000fa	2b d3		 sub	 edx, ebx
  000fc	b8 67 66 66 66	 mov	 eax, 1717986919		; 66666667H
  00101	f7 ea		 imul	 edx
  00103	c1 fa 03	 sar	 edx, 3
  00106	8b c2		 mov	 eax, edx
  00108	c1 e8 1f	 shr	 eax, 31			; 0000001fH
  0010b	03 c2		 add	 eax, edx
$L212819:
  0010d	03 c7		 add	 eax, edi
  0010f	3b c8		 cmp	 ecx, eax
  00111	73 0b		 jae	 SHORT $L204930

; 822  : 				_Capacity = size() + _Count;

  00113	8b ce		 mov	 ecx, esi
  00115	e8 00 00 00 00	 call	 ?size@?$vector@U_QUIZLIST@CQuiz@@V?$allocator@U_QUIZLIST@CQuiz@@@std@@@std@@QBEIXZ ; std::vector<CQuiz::_QUIZLIST,std::allocator<CQuiz::_QUIZLIST> >::size
  0011a	8b c8		 mov	 ecx, eax
  0011c	03 cf		 add	 ecx, edi
$L204930:

; 823  : 			pointer _Newvec = this->_Alval.allocate(_Capacity);

  0011e	8d 0c 89	 lea	 ecx, DWORD PTR [ecx+ecx*4]
  00121	c1 e1 02	 shl	 ecx, 2
  00124	51		 push	 ecx
  00125	89 4d 10	 mov	 DWORD PTR tv492[ebp], ecx
  00128	e8 00 00 00 00	 call	 ??2@YAPAXI@Z		; operator new

; 824  : 			pointer _Ptr = _Newvec;
; 825  : 
; 826  : 			_TRY_BEGIN
; 827  : 			_Ptr = _Ucopy(_Myfirst, _ITER_BASE(_Where),
; 828  : 				_Newvec);	// copy prefix

  0012d	8b 4d 08	 mov	 ecx, DWORD PTR __Cat$212849[ebp]
  00130	8b 55 08	 mov	 edx, DWORD PTR __Where$[ebp]
  00133	51		 push	 ecx
  00134	8b d8		 mov	 ebx, eax
  00136	8b 46 04	 mov	 eax, DWORD PTR [esi+4]
  00139	56		 push	 esi
  0013a	53		 push	 ebx
  0013b	52		 push	 edx
  0013c	50		 push	 eax
  0013d	89 5d e8	 mov	 DWORD PTR __Newvec$204931[ebp], ebx
  00140	89 5d 0c	 mov	 DWORD PTR __Ptr$204932[ebp], ebx
  00143	c6 45 fc 01	 mov	 BYTE PTR __$EHRec$[ebp+12], 1
  00147	e8 00 00 00 00	 call	 ??$_Uninit_copy@PAU_QUIZLIST@CQuiz@@PAU12@V?$allocator@U_QUIZLIST@CQuiz@@@std@@@std@@YAPAU_QUIZLIST@CQuiz@@PAU12@00AAV?$allocator@U_QUIZLIST@CQuiz@@@0@U_Nonscalar_ptr_iterator_tag@0@@Z ; std::_Uninit_copy<CQuiz::_QUIZLIST *,CQuiz::_QUIZLIST *,std::allocator<CQuiz::_QUIZLIST> >

; 829  : 			_Ptr = _Ufill(_Ptr, _Count, _Tmp);	// add new stuff

  0014c	8b 4d 08	 mov	 ecx, DWORD PTR __Cat$212871[ebp]
  0014f	83 c4 18	 add	 esp, 24			; 00000018H
  00152	51		 push	 ecx
  00153	56		 push	 esi
  00154	8d 55 d4	 lea	 edx, DWORD PTR __Tmp$[ebp]
  00157	52		 push	 edx
  00158	57		 push	 edi
  00159	50		 push	 eax
  0015a	89 45 0c	 mov	 DWORD PTR __Ptr$204932[ebp], eax
  0015d	e8 00 00 00 00	 call	 ??$_Uninit_fill_n@PAU_QUIZLIST@CQuiz@@IU12@V?$allocator@U_QUIZLIST@CQuiz@@@std@@@std@@YAXPAU_QUIZLIST@CQuiz@@IABU12@AAV?$allocator@U_QUIZLIST@CQuiz@@@0@U_Nonscalar_ptr_iterator_tag@0@@Z ; std::_Uninit_fill_n<CQuiz::_QUIZLIST *,unsigned int,CQuiz::_QUIZLIST,std::allocator<CQuiz::_QUIZLIST> >

; 830  : 			_Ucopy(_ITER_BASE(_Where), _Mylast, _Ptr);	// copy suffix

  00162	8b 55 08	 mov	 edx, DWORD PTR __Cat$212895[ebp]
  00165	8b 4d 0c	 mov	 ecx, DWORD PTR __Ptr$204932[ebp]
  00168	83 c4 14	 add	 esp, 20			; 00000014H
  0016b	52		 push	 edx
  0016c	8d 04 bf	 lea	 eax, DWORD PTR [edi+edi*4]
  0016f	8d 04 81	 lea	 eax, DWORD PTR [ecx+eax*4]
  00172	8b 4e 08	 mov	 ecx, DWORD PTR [esi+8]
  00175	56		 push	 esi
  00176	50		 push	 eax
  00177	89 45 0c	 mov	 DWORD PTR __Ptr$204932[ebp], eax
  0017a	8b 45 08	 mov	 eax, DWORD PTR __Where$[ebp]
  0017d	51		 push	 ecx
  0017e	50		 push	 eax
  0017f	e8 00 00 00 00	 call	 ??$_Uninit_copy@PAU_QUIZLIST@CQuiz@@PAU12@V?$allocator@U_QUIZLIST@CQuiz@@@std@@@std@@YAPAU_QUIZLIST@CQuiz@@PAU12@00AAV?$allocator@U_QUIZLIST@CQuiz@@@0@U_Nonscalar_ptr_iterator_tag@0@@Z ; std::_Uninit_copy<CQuiz::_QUIZLIST *,CQuiz::_QUIZLIST *,std::allocator<CQuiz::_QUIZLIST> >

; 835  : 			_CATCH_END
; 836  : 
; 837  : 			_Count += size();

  00184	8b 46 04	 mov	 eax, DWORD PTR [esi+4]
  00187	83 c4 14	 add	 esp, 20			; 00000014H
  0018a	85 c0		 test	 eax, eax
  0018c	74 16		 je	 SHORT $L212907
$L212906:
  0018e	8b 4e 08	 mov	 ecx, DWORD PTR [esi+8]
  00191	2b c8		 sub	 ecx, eax
  00193	b8 67 66 66 66	 mov	 eax, 1717986919		; 66666667H
  00198	f7 e9		 imul	 ecx
  0019a	c1 fa 03	 sar	 edx, 3
  0019d	8b c2		 mov	 eax, edx
  0019f	c1 e8 1f	 shr	 eax, 31			; 0000001fH
  001a2	03 c2		 add	 eax, edx
$L212907:
  001a4	03 f8		 add	 edi, eax

; 838  : 			if (_Myfirst != 0)

  001a6	8b 46 04	 mov	 eax, DWORD PTR [esi+4]
  001a9	85 c0		 test	 eax, eax
  001ab	74 18		 je	 SHORT $L212909

; 839  : 				{	// destroy and deallocate old array
; 840  : 				_Destroy(_Myfirst, _Mylast);

  001ad	8b 4e 08	 mov	 ecx, DWORD PTR [esi+8]
  001b0	51		 push	 ecx
  001b1	50		 push	 eax
  001b2	8b ce		 mov	 ecx, esi
  001b4	e8 00 00 00 00	 call	 ?_Destroy@?$vector@U_QUIZLIST@CQuiz@@V?$allocator@U_QUIZLIST@CQuiz@@@std@@@std@@IAEXPAU_QUIZLIST@CQuiz@@0@Z ; std::vector<CQuiz::_QUIZLIST,std::allocator<CQuiz::_QUIZLIST> >::_Destroy

; 841  : 				this->_Alval.deallocate(_Myfirst, _Myend - _Myfirst);

  001b9	8b 46 04	 mov	 eax, DWORD PTR [esi+4]
  001bc	50		 push	 eax
  001bd	e8 00 00 00 00	 call	 ??3@YAXPAX@Z		; operator delete
  001c2	83 c4 04	 add	 esp, 4
$L212909:

; 842  : 				}
; 843  : 			_Myend = _Newvec + _Capacity;

  001c5	8b 55 10	 mov	 edx, DWORD PTR tv492[ebp]

; 844  : 			_Mylast = _Newvec + _Count;

  001c8	8d 04 bf	 lea	 eax, DWORD PTR [edi+edi*4]
  001cb	03 d3		 add	 edx, ebx
  001cd	8d 0c 83	 lea	 ecx, DWORD PTR [ebx+eax*4]
  001d0	89 56 0c	 mov	 DWORD PTR [esi+12], edx
  001d3	89 4e 08	 mov	 DWORD PTR [esi+8], ecx

; 845  : 			_Myfirst = _Newvec;

  001d6	89 5e 04	 mov	 DWORD PTR [esi+4], ebx

; 846  : 			}
; 847  : 		else if ((size_type)(_Mylast - _ITER_BASE(_Where)) < _Count)

  001d9	e9 19 01 00 00	 jmp	 $L204951
$L212703:

; 831  : 			_CATCH_ALL
; 832  : 			_Destroy(_Newvec, _Ptr);

  001de	8b 55 0c	 mov	 edx, DWORD PTR __Ptr$204932[ebp]
  001e1	8b 75 e8	 mov	 esi, DWORD PTR __Newvec$204931[ebp]
  001e4	8b 4d ec	 mov	 ecx, DWORD PTR _this$[ebp]
  001e7	52		 push	 edx
  001e8	56		 push	 esi
  001e9	e8 00 00 00 00	 call	 ?_Destroy@?$vector@U_QUIZLIST@CQuiz@@V?$allocator@U_QUIZLIST@CQuiz@@@std@@@std@@IAEXPAU_QUIZLIST@CQuiz@@0@Z ; std::vector<CQuiz::_QUIZLIST,std::allocator<CQuiz::_QUIZLIST> >::_Destroy

; 833  : 			this->_Alval.deallocate(_Newvec, _Capacity);

  001ee	56		 push	 esi
  001ef	e8 00 00 00 00	 call	 ??3@YAXPAX@Z		; operator delete
  001f4	83 c4 04	 add	 esp, 4

; 834  : 			_RERAISE;

  001f7	6a 00		 push	 0
  001f9	6a 00		 push	 0
  001fb	e8 00 00 00 00	 call	 __CxxThrowException@8
$L204929:

; 846  : 			}
; 847  : 		else if ((size_type)(_Mylast - _ITER_BASE(_Where)) < _Count)

  00200	8b 4e 08	 mov	 ecx, DWORD PTR [esi+8]
  00203	8b 5d 08	 mov	 ebx, DWORD PTR __Where$[ebp]
  00206	8b d1		 mov	 edx, ecx
  00208	2b d3		 sub	 edx, ebx
  0020a	b8 67 66 66 66	 mov	 eax, 1717986919		; 66666667H
  0020f	f7 ea		 imul	 edx
  00211	c1 fa 03	 sar	 edx, 3
  00214	8b c2		 mov	 eax, edx
  00216	c1 e8 1f	 shr	 eax, 31			; 0000001fH
  00219	03 c2		 add	 eax, edx
  0021b	3b c7		 cmp	 eax, edi
  0021d	89 4d 10	 mov	 DWORD PTR tv477[ebp], ecx
  00220	0f 83 92 00 00
	00		 jae	 $L204942

; 848  : 			{	// new stuff spills off end
; 849  : 			_Ucopy(_ITER_BASE(_Where), _Mylast,
; 850  : 				_ITER_BASE(_Where) + _Count);	// copy suffix

  00226	8b 55 08	 mov	 edx, DWORD PTR __Cat$212934[ebp]
  00229	52		 push	 edx
  0022a	8d 04 bf	 lea	 eax, DWORD PTR [edi+edi*4]
  0022d	c1 e0 02	 shl	 eax, 2
  00230	89 45 10	 mov	 DWORD PTR tv493[ebp], eax
  00233	56		 push	 esi
  00234	03 c3		 add	 eax, ebx
  00236	50		 push	 eax
  00237	51		 push	 ecx
  00238	53		 push	 ebx
  00239	e8 00 00 00 00	 call	 ??$_Uninit_copy@PAU_QUIZLIST@CQuiz@@PAU12@V?$allocator@U_QUIZLIST@CQuiz@@@std@@@std@@YAPAU_QUIZLIST@CQuiz@@PAU12@00AAV?$allocator@U_QUIZLIST@CQuiz@@@0@U_Nonscalar_ptr_iterator_tag@0@@Z ; std::_Uninit_copy<CQuiz::_QUIZLIST *,CQuiz::_QUIZLIST *,std::allocator<CQuiz::_QUIZLIST> >

; 851  : 
; 852  : 			_TRY_BEGIN
; 853  : 			_Ufill(_Mylast, _Count - (_Mylast - _ITER_BASE(_Where)),
; 854  : 				_Tmp);	// insert new stuff off end

  0023e	8b 4e 08	 mov	 ecx, DWORD PTR [esi+8]
  00241	83 c4 14	 add	 esp, 20			; 00000014H
  00244	8d 45 d4	 lea	 eax, DWORD PTR __Tmp$[ebp]
  00247	50		 push	 eax
  00248	8b d1		 mov	 edx, ecx
  0024a	2b d3		 sub	 edx, ebx
  0024c	b8 67 66 66 66	 mov	 eax, 1717986919		; 66666667H
  00251	f7 ea		 imul	 edx
  00253	c1 fa 03	 sar	 edx, 3
  00256	8b c2		 mov	 eax, edx
  00258	c1 e8 1f	 shr	 eax, 31			; 0000001fH
  0025b	03 c2		 add	 eax, edx
  0025d	2b f8		 sub	 edi, eax
  0025f	57		 push	 edi
  00260	51		 push	 ecx
  00261	8b ce		 mov	 ecx, esi
  00263	c6 45 fc 03	 mov	 BYTE PTR __$EHRec$[ebp+12], 3
  00267	e8 00 00 00 00	 call	 ?_Ufill@?$vector@U_QUIZLIST@CQuiz@@V?$allocator@U_QUIZLIST@CQuiz@@@std@@@std@@IAEPAU_QUIZLIST@CQuiz@@PAU34@IABU34@@Z ; std::vector<CQuiz::_QUIZLIST,std::allocator<CQuiz::_QUIZLIST> >::_Ufill

; 858  : 			_CATCH_END
; 859  : 
; 860  : 			_Mylast += _Count;

  0026c	8b 7e 08	 mov	 edi, DWORD PTR [esi+8]
  0026f	8b 45 10	 mov	 eax, DWORD PTR tv493[ebp]
  00272	03 f8		 add	 edi, eax
  00274	89 7e 08	 mov	 DWORD PTR [esi+8], edi

; 861  : 			fill(_ITER_BASE(_Where), _Mylast - _Count,
; 862  : 				_Tmp);	// insert up to old end

  00277	8d 4d d4	 lea	 ecx, DWORD PTR __Tmp$[ebp]
  0027a	8b f7		 mov	 esi, edi
  0027c	51		 push	 ecx
  0027d	2b f0		 sub	 esi, eax
  0027f	56		 push	 esi
  00280	53		 push	 ebx
  00281	c7 45 fc 00 00
	00 00		 mov	 DWORD PTR __$EHRec$[ebp+12], 0
  00288	e8 00 00 00 00	 call	 ??$fill@PAU_QUIZLIST@CQuiz@@U12@@std@@YAXPAU_QUIZLIST@CQuiz@@0ABU12@@Z ; std::fill<CQuiz::_QUIZLIST *,CQuiz::_QUIZLIST>
  0028d	83 c4 0c	 add	 esp, 12			; 0000000cH

; 863  : 			}
; 864  : 		else

  00290	eb 65		 jmp	 SHORT $L204951
$L212705:

; 855  : 			_CATCH_ALL
; 856  : 			_Destroy(_ITER_BASE(_Where) + _Count, _Mylast + _Count);

  00292	8b 45 0c	 mov	 eax, DWORD PTR __Count$[ebp]
  00295	8b 4d ec	 mov	 ecx, DWORD PTR _this$[ebp]
  00298	8b 51 08	 mov	 edx, DWORD PTR [ecx+8]
  0029b	8d 04 80	 lea	 eax, DWORD PTR [eax+eax*4]
  0029e	c1 e0 02	 shl	 eax, 2
  002a1	03 d0		 add	 edx, eax
  002a3	52		 push	 edx
  002a4	8b 55 08	 mov	 edx, DWORD PTR __Where$[ebp]
  002a7	03 c2		 add	 eax, edx
  002a9	50		 push	 eax
  002aa	e8 00 00 00 00	 call	 ?_Destroy@?$vector@U_QUIZLIST@CQuiz@@V?$allocator@U_QUIZLIST@CQuiz@@@std@@@std@@IAEXPAU_QUIZLIST@CQuiz@@0@Z ; std::vector<CQuiz::_QUIZLIST,std::allocator<CQuiz::_QUIZLIST> >::_Destroy

; 857  : 			_RERAISE;

  002af	6a 00		 push	 0
  002b1	6a 00		 push	 0
  002b3	e8 00 00 00 00	 call	 __CxxThrowException@8
$L204942:

; 865  : 			{	// new stuff can all be assigned
; 866  : 			pointer _Oldend = _Mylast;
; 867  : 			_Mylast = _Ucopy(_Oldend - _Count, _Oldend,
; 868  : 				_Mylast);	// copy suffix

  002b8	8d 3c bf	 lea	 edi, DWORD PTR [edi+edi*4]
  002bb	8b c1		 mov	 eax, ecx
  002bd	c1 e7 02	 shl	 edi, 2
  002c0	2b c7		 sub	 eax, edi
  002c2	89 45 08	 mov	 DWORD PTR tv506[ebp], eax
  002c5	8b 55 08	 mov	 edx, DWORD PTR __Cat$212958[ebp]
  002c8	52		 push	 edx
  002c9	56		 push	 esi
  002ca	51		 push	 ecx
  002cb	51		 push	 ecx
  002cc	50		 push	 eax
  002cd	e8 00 00 00 00	 call	 ??$_Uninit_copy@PAU_QUIZLIST@CQuiz@@PAU12@V?$allocator@U_QUIZLIST@CQuiz@@@std@@@std@@YAPAU_QUIZLIST@CQuiz@@PAU12@00AAV?$allocator@U_QUIZLIST@CQuiz@@@0@U_Nonscalar_ptr_iterator_tag@0@@Z ; std::_Uninit_copy<CQuiz::_QUIZLIST *,CQuiz::_QUIZLIST *,std::allocator<CQuiz::_QUIZLIST> >

; 869  : 			copy_backward(_ITER_BASE(_Where), _Oldend - _Count,
; 870  : 				_Oldend);	// copy hole

  002d2	8b 4d 10	 mov	 ecx, DWORD PTR tv477[ebp]
  002d5	8b 55 08	 mov	 edx, DWORD PTR tv506[ebp]
  002d8	89 46 08	 mov	 DWORD PTR [esi+8], eax
  002db	8b 45 08	 mov	 eax, DWORD PTR __Cat$212971[ebp]
  002de	50		 push	 eax
  002df	51		 push	 ecx
  002e0	52		 push	 edx
  002e1	53		 push	 ebx
  002e2	e8 00 00 00 00	 call	 ??$_Copy_backward_opt@PAU_QUIZLIST@CQuiz@@PAU12@@std@@YAPAU_QUIZLIST@CQuiz@@PAU12@00U_Nonscalar_ptr_iterator_tag@0@@Z ; std::_Copy_backward_opt<CQuiz::_QUIZLIST *,CQuiz::_QUIZLIST *>

; 871  : 			fill(_ITER_BASE(_Where), _ITER_BASE(_Where) + _Count,
; 872  : 				_Tmp);	// insert into hole

  002e7	8d 45 d4	 lea	 eax, DWORD PTR __Tmp$[ebp]
  002ea	50		 push	 eax
  002eb	03 fb		 add	 edi, ebx
  002ed	57		 push	 edi
  002ee	53		 push	 ebx
  002ef	e8 00 00 00 00	 call	 ??$fill@PAU_QUIZLIST@CQuiz@@U12@@std@@YAXPAU_QUIZLIST@CQuiz@@0ABU12@@Z ; std::fill<CQuiz::_QUIZLIST *,CQuiz::_QUIZLIST>
  002f4	83 c4 30	 add	 esp, 48			; 00000030H
$L204951:

; 873  : 			}
; 874  : 		}

  002f7	8b 45 d8	 mov	 eax, DWORD PTR __Tmp$[ebp+4]
  002fa	83 c0 f0	 add	 eax, -16		; fffffff0H
  002fd	c7 45 fc ff ff
	ff ff		 mov	 DWORD PTR __$EHRec$[ebp+12], -1
  00304	8d 48 0c	 lea	 ecx, DWORD PTR [eax+12]
  00307	83 ca ff	 or	 edx, -1
  0030a	f0 0f c1 11	 lock	  xadd	 DWORD PTR [ecx], edx
  0030e	4a		 dec	 edx
  0030f	85 d2		 test	 edx, edx
  00311	7f 08		 jg	 SHORT $L213012
  00313	8b 08		 mov	 ecx, DWORD PTR [eax]
  00315	8b 11		 mov	 edx, DWORD PTR [ecx]
  00317	50		 push	 eax
  00318	ff 52 04	 call	 DWORD PTR [edx+4]
$L213012:
  0031b	8b 4d f4	 mov	 ecx, DWORD PTR __$EHRec$[ebp+4]
  0031e	5f		 pop	 edi
  0031f	5e		 pop	 esi
  00320	64 89 0d 00 00
	00 00		 mov	 DWORD PTR fs:__except_list, ecx
  00327	5b		 pop	 ebx
  00328	8b e5		 mov	 esp, ebp
  0032a	5d		 pop	 ebp
  0032b	c2 0c 00	 ret	 12			; 0000000cH
$L213018:
_TEXT	ENDS
;	COMDAT text$x
text$x	SEGMENT
$L212706:
  00000	8d 4d d4	 lea	 ecx, DWORD PTR __Tmp$[ebp]
  00003	e9 00 00 00 00	 jmp	 ??1_QUIZLIST@CQuiz@@QAE@XZ
__ehhandler$?_Insert_n@?$vector@U_QUIZLIST@CQuiz@@V?$allocator@U_QUIZLIST@CQuiz@@@std@@@std@@IAEXViterator@12@IABU_QUIZLIST@CQuiz@@@Z:
  00008	b8 00 00 00 00	 mov	 eax, OFFSET FLAT:$T213016
  0000d	e9 00 00 00 00	 jmp	 ___CxxFrameHandler
text$x	ENDS
?_Insert_n@?$vector@U_QUIZLIST@CQuiz@@V?$allocator@U_QUIZLIST@CQuiz@@@std@@@std@@IAEXViterator@12@IABU_QUIZLIST@CQuiz@@@Z ENDP ; std::vector<CQuiz::_QUIZLIST,std::allocator<CQuiz::_QUIZLIST> >::_Insert_n
PUBLIC	?InitWorldData@CQuizDBCtrl@@AAEXKHH@Z		; CQuizDBCtrl::InitWorldData
; Function compile flags: /Ogty
; File c:\documents and settings\test\mes documents\source\virtuos_v17\build\program\databaseserver\quizdbctrl.cpp
;	COMDAT ?InitWorldData@CQuizDBCtrl@@AAEXKHH@Z
_TEXT	SEGMENT
$T213027 = -68						; size = 8
_WD$ = -60						; size = 28
$T213026 = -32						; size = 32
_dpId$ = 8						; size = 4
_nChannel$ = 12						; size = 4
_nState$ = 16						; size = 4
?InitWorldData@CQuizDBCtrl@@AAEXKHH@Z PROC NEAR		; CQuizDBCtrl::InitWorldData, COMDAT
; _this$ = ecx

; 149  : {

  00000	83 ec 44	 sub	 esp, 68			; 00000044H

; 150  : 	WORLDDATA WD;
; 151  : 	if( nState == CQuiz::QE_OPEN )

  00003	8b 54 24 50	 mov	 edx, DWORD PTR _nState$[esp+64]
  00007	8b c1		 mov	 eax, ecx
  00009	33 c9		 xor	 ecx, ecx
  0000b	89 4c 24 08	 mov	 DWORD PTR _WD$[esp+68], ecx
  0000f	89 4c 24 14	 mov	 DWORD PTR _WD$[esp+80], ecx
  00013	89 4c 24 18	 mov	 DWORD PTR _WD$[esp+84], ecx
  00017	89 4c 24 1c	 mov	 DWORD PTR _WD$[esp+88], ecx
  0001b	89 4c 24 20	 mov	 DWORD PTR _WD$[esp+92], ecx
  0001f	b9 01 00 00 00	 mov	 ecx, 1
  00024	3b d1		 cmp	 edx, ecx
  00026	75 04		 jne	 SHORT $L203998

; 152  : 		WD.bQuizSend = TRUE;

  00028	89 4c 24 08	 mov	 DWORD PTR _WD$[esp+68], ecx
$L203998:

; 153  : 	WD.nQuizEventId = SetQuizEventId();
; 154  : 	WD.nChannel = nChannel;
; 155  : 	m_mapWorldData.insert( map<DPID, WORLDDATA>::value_type( dpId, WD ) );

  0002c	8b 54 24 48	 mov	 edx, DWORD PTR _dpId$[esp+64]
  00030	56		 push	 esi
  00031	8b 70 18	 mov	 esi, DWORD PTR [eax+24]
  00034	46		 inc	 esi
  00035	8b ce		 mov	 ecx, esi
  00037	89 4c 24 10	 mov	 DWORD PTR _WD$[esp+76], ecx
  0003b	8b 4c 24 50	 mov	 ecx, DWORD PTR _nChannel$[esp+68]
  0003f	57		 push	 edi
  00040	89 4c 24 18	 mov	 DWORD PTR _WD$[esp+84], ecx
  00044	89 70 18	 mov	 DWORD PTR [eax+24], esi
  00047	89 54 24 2c	 mov	 DWORD PTR $T213026[esp+76], edx
  0004b	b9 07 00 00 00	 mov	 ecx, 7
  00050	8d 74 24 10	 lea	 esi, DWORD PTR _WD$[esp+76]
  00054	8d 7c 24 30	 lea	 edi, DWORD PTR $T213026[esp+80]
  00058	f3 a5		 rep movsd
  0005a	8d 4c 24 2c	 lea	 ecx, DWORD PTR $T213026[esp+76]
  0005e	51		 push	 ecx
  0005f	8d 54 24 0c	 lea	 edx, DWORD PTR $T213027[esp+80]
  00063	52		 push	 edx
  00064	8d 48 20	 lea	 ecx, DWORD PTR [eax+32]
  00067	e8 00 00 00 00	 call	 ?insert@?$_Tree@V?$_Tmap_traits@KU_WORLDDATA@CQuizDBCtrl@@U?$less@K@std@@V?$allocator@U?$pair@$$CBKU_WORLDDATA@CQuizDBCtrl@@@std@@@4@$0A@@std@@@std@@QAE?AU?$pair@Viterator@?$_Tree@V?$_Tmap_traits@KU_WORLDDATA@CQuizDBCtrl@@U?$less@K@std@@V?$allocator@U?$pair@$$CBKU_WORLDDATA@CQuizDBCtrl@@@std@@@4@$0A@@std@@@std@@_N@2@ABU?$pair@$$CBKU_WORLDDATA@CQuizDBCtrl@@@2@@Z ; std::_Tree<std::_Tmap_traits<unsigned long,CQuizDBCtrl::_WORLDDATA,std::less<unsigned long>,std::allocator<std::pair<unsigned long const ,CQuizDBCtrl::_WORLDDATA> >,0> >::insert
  0006c	5f		 pop	 edi
  0006d	5e		 pop	 esi

; 156  : }

  0006e	83 c4 44	 add	 esp, 68			; 00000044H
  00071	c2 0c 00	 ret	 12			; 0000000cH
?InitWorldData@CQuizDBCtrl@@AAEXKHH@Z ENDP		; CQuizDBCtrl::InitWorldData
_TEXT	ENDS
PUBLIC	??1?$_Tree@V?$_Tmap_traits@KU_WORLDDATA@CQuizDBCtrl@@U?$less@K@std@@V?$allocator@U?$pair@$$CBKU_WORLDDATA@CQuizDBCtrl@@@std@@@4@$0A@@std@@@std@@QAE@XZ ; std::_Tree<std::_Tmap_traits<unsigned long,CQuizDBCtrl::_WORLDDATA,std::less<unsigned long>,std::allocator<std::pair<unsigned long const ,CQuizDBCtrl::_WORLDDATA> >,0> >::~_Tree<std::_Tmap_traits<unsigned long,CQuizDBCtrl::_WORLDDATA,std::less<unsigned long>,std::allocator<std::pair<unsigned long const ,CQuizDBCtrl::_WORLDDATA> >,0> >
; Function compile flags: /Ogty
; File c:\program files\microsoft visual studio .net 2003\vc7\include\xtree
;	COMDAT ??1?$_Tree@V?$_Tmap_traits@KU_WORLDDATA@CQuizDBCtrl@@U?$less@K@std@@V?$allocator@U?$pair@$$CBKU_WORLDDATA@CQuizDBCtrl@@@std@@@4@$0A@@std@@@std@@QAE@XZ
_TEXT	SEGMENT
$T213106 = -4						; size = 4
??1?$_Tree@V?$_Tmap_traits@KU_WORLDDATA@CQuizDBCtrl@@U?$less@K@std@@V?$allocator@U?$pair@$$CBKU_WORLDDATA@CQuizDBCtrl@@@std@@@4@$0A@@std@@@std@@QAE@XZ PROC NEAR ; std::_Tree<std::_Tmap_traits<unsigned long,CQuizDBCtrl::_WORLDDATA,std::less<unsigned long>,std::allocator<std::pair<unsigned long const ,CQuizDBCtrl::_WORLDDATA> >,0> >::~_Tree<std::_Tmap_traits<unsigned long,CQuizDBCtrl::_WORLDDATA,std::less<unsigned long>,std::allocator<std::pair<unsigned long const ,CQuizDBCtrl::_WORLDDATA> >,0> >, COMDAT
; _this$ = ecx

; 391  : 		{	// destroy tree

  00000	51		 push	 ecx
  00001	56		 push	 esi
  00002	8b f1		 mov	 esi, ecx

; 392  : 		_Tidy();

  00004	8b 46 04	 mov	 eax, DWORD PTR [esi+4]
  00007	8b 08		 mov	 ecx, DWORD PTR [eax]
  00009	50		 push	 eax
  0000a	51		 push	 ecx
  0000b	8d 44 24 0c	 lea	 eax, DWORD PTR $T213106[esp+16]
  0000f	50		 push	 eax
  00010	8b ce		 mov	 ecx, esi
  00012	e8 00 00 00 00	 call	 ?erase@?$_Tree@V?$_Tmap_traits@KU_WORLDDATA@CQuizDBCtrl@@U?$less@K@std@@V?$allocator@U?$pair@$$CBKU_WORLDDATA@CQuizDBCtrl@@@std@@@4@$0A@@std@@@std@@QAE?AViterator@12@V312@0@Z ; std::_Tree<std::_Tmap_traits<unsigned long,CQuizDBCtrl::_WORLDDATA,std::less<unsigned long>,std::allocator<std::pair<unsigned long const ,CQuizDBCtrl::_WORLDDATA> >,0> >::erase
  00017	8b 4e 04	 mov	 ecx, DWORD PTR [esi+4]
  0001a	51		 push	 ecx
  0001b	e8 00 00 00 00	 call	 ??3@YAXPAX@Z		; operator delete
  00020	83 c4 04	 add	 esp, 4
  00023	33 c0		 xor	 eax, eax
  00025	89 46 04	 mov	 DWORD PTR [esi+4], eax
  00028	89 46 08	 mov	 DWORD PTR [esi+8], eax
  0002b	5e		 pop	 esi

; 393  : 		}

  0002c	59		 pop	 ecx
  0002d	c3		 ret	 0
??1?$_Tree@V?$_Tmap_traits@KU_WORLDDATA@CQuizDBCtrl@@U?$less@K@std@@V?$allocator@U?$pair@$$CBKU_WORLDDATA@CQuizDBCtrl@@@std@@@4@$0A@@std@@@std@@QAE@XZ ENDP ; std::_Tree<std::_Tmap_traits<unsigned long,CQuizDBCtrl::_WORLDDATA,std::less<unsigned long>,std::allocator<std::pair<unsigned long const ,CQuizDBCtrl::_WORLDDATA> >,0> >::~_Tree<std::_Tmap_traits<unsigned long,CQuizDBCtrl::_WORLDDATA,std::less<unsigned long>,std::allocator<std::pair<unsigned long const ,CQuizDBCtrl::_WORLDDATA> >,0> >
_TEXT	ENDS
PUBLIC	?insert@?$vector@U_QUIZLIST@CQuiz@@V?$allocator@U_QUIZLIST@CQuiz@@@std@@@std@@QAE?AViterator@12@V312@ABU_QUIZLIST@CQuiz@@@Z ; std::vector<CQuiz::_QUIZLIST,std::allocator<CQuiz::_QUIZLIST> >::insert
; Function compile flags: /Ogty
; File c:\program files\microsoft visual studio .net 2003\vc7\include\vector
;	COMDAT ?insert@?$vector@U_QUIZLIST@CQuiz@@V?$allocator@U_QUIZLIST@CQuiz@@@std@@@std@@QAE?AViterator@12@V312@ABU_QUIZLIST@CQuiz@@@Z
_TEXT	SEGMENT
___$ReturnUdt$ = 8					; size = 4
tv90 = 12						; size = 4
__Where$ = 12						; size = 4
__Val$ = 16						; size = 4
?insert@?$vector@U_QUIZLIST@CQuiz@@V?$allocator@U_QUIZLIST@CQuiz@@@std@@@std@@QAE?AViterator@12@V312@ABU_QUIZLIST@CQuiz@@@Z PROC NEAR ; std::vector<CQuiz::_QUIZLIST,std::allocator<CQuiz::_QUIZLIST> >::insert, COMDAT
; _this$ = ecx

; 620  : 		{	// insert _Val at _Where

  00000	53		 push	 ebx

; 621  : 		size_type _Off = size() == 0 ? 0 : _Where - begin();

  00001	8b 5c 24 0c	 mov	 ebx, DWORD PTR __Where$[esp]
  00005	56		 push	 esi
  00006	57		 push	 edi
  00007	8b f9		 mov	 edi, ecx
  00009	8b 77 04	 mov	 esi, DWORD PTR [edi+4]
  0000c	85 f6		 test	 esi, esi
  0000e	74 1c		 je	 SHORT $L213196
  00010	8b 4f 08	 mov	 ecx, DWORD PTR [edi+8]
  00013	2b ce		 sub	 ecx, esi
  00015	b8 67 66 66 66	 mov	 eax, 1717986919		; 66666667H
  0001a	f7 e9		 imul	 ecx
  0001c	c1 fa 03	 sar	 edx, 3
  0001f	8b c2		 mov	 eax, edx
  00021	c1 e8 1f	 shr	 eax, 31			; 0000001fH
  00024	03 c2		 add	 eax, edx
  00026	89 44 24 14	 mov	 DWORD PTR tv90[esp+8], eax
  0002a	75 04		 jne	 SHORT $L213135
$L213196:
  0002c	33 f6		 xor	 esi, esi
  0002e	eb 15		 jmp	 SHORT $L213136
$L213135:
  00030	8b cb		 mov	 ecx, ebx
  00032	2b ce		 sub	 ecx, esi
  00034	b8 67 66 66 66	 mov	 eax, 1717986919		; 66666667H
  00039	f7 e9		 imul	 ecx
  0003b	c1 fa 03	 sar	 edx, 3
  0003e	8b f2		 mov	 esi, edx
  00040	c1 ee 1f	 shr	 esi, 31			; 0000001fH
  00043	03 f2		 add	 esi, edx
$L213136:

; 622  : 		_Insert_n(_Where, (size_type)1, _Val);

  00045	8b 4c 24 18	 mov	 ecx, DWORD PTR __Val$[esp+8]
  00049	51		 push	 ecx
  0004a	6a 01		 push	 1
  0004c	53		 push	 ebx
  0004d	8b cf		 mov	 ecx, edi
  0004f	e8 00 00 00 00	 call	 ?_Insert_n@?$vector@U_QUIZLIST@CQuiz@@V?$allocator@U_QUIZLIST@CQuiz@@@std@@@std@@IAEXViterator@12@IABU_QUIZLIST@CQuiz@@@Z ; std::vector<CQuiz::_QUIZLIST,std::allocator<CQuiz::_QUIZLIST> >::_Insert_n

; 623  : 		return (begin() + _Off);

  00054	8b 47 04	 mov	 eax, DWORD PTR [edi+4]
  00057	8d 14 b6	 lea	 edx, DWORD PTR [esi+esi*4]
  0005a	5f		 pop	 edi
  0005b	8d 0c 90	 lea	 ecx, DWORD PTR [eax+edx*4]
  0005e	8b 44 24 0c	 mov	 eax, DWORD PTR ___$ReturnUdt$[esp+4]
  00062	5e		 pop	 esi
  00063	89 08		 mov	 DWORD PTR [eax], ecx
  00065	5b		 pop	 ebx

; 624  : 		}

  00066	c2 0c 00	 ret	 12			; 0000000cH
?insert@?$vector@U_QUIZLIST@CQuiz@@V?$allocator@U_QUIZLIST@CQuiz@@@std@@@std@@QAE?AViterator@12@V312@ABU_QUIZLIST@CQuiz@@@Z ENDP ; std::vector<CQuiz::_QUIZLIST,std::allocator<CQuiz::_QUIZLIST> >::insert
_TEXT	ENDS
PUBLIC	?_Tidy@?$vector@U_QUIZLIST@CQuiz@@V?$allocator@U_QUIZLIST@CQuiz@@@std@@@std@@IAEXXZ ; std::vector<CQuiz::_QUIZLIST,std::allocator<CQuiz::_QUIZLIST> >::_Tidy
; Function compile flags: /Ogty
;	COMDAT ?_Tidy@?$vector@U_QUIZLIST@CQuiz@@V?$allocator@U_QUIZLIST@CQuiz@@@std@@@std@@IAEXXZ
_TEXT	SEGMENT
?_Tidy@?$vector@U_QUIZLIST@CQuiz@@V?$allocator@U_QUIZLIST@CQuiz@@@std@@@std@@IAEXXZ PROC NEAR ; std::vector<CQuiz::_QUIZLIST,std::allocator<CQuiz::_QUIZLIST> >::_Tidy, COMDAT
; _this$ = ecx

; 791  : 		{	// free all storage

  00000	53		 push	 ebx
  00001	8b d9		 mov	 ebx, ecx
  00003	56		 push	 esi

; 792  : 		if (_Myfirst != 0)

  00004	8b 73 04	 mov	 esi, DWORD PTR [ebx+4]
  00007	85 f6		 test	 esi, esi
  00009	74 23		 je	 SHORT $L213282
  0000b	57		 push	 edi

; 793  : 			{	// something to free, destroy and deallocate it
; 794  : 			_Destroy(_Myfirst, _Mylast);

  0000c	8b 7b 08	 mov	 edi, DWORD PTR [ebx+8]
  0000f	3b f7		 cmp	 esi, edi
  00011	74 0e		 je	 SHORT $L213277
$L213275:
  00013	8b ce		 mov	 ecx, esi
  00015	e8 00 00 00 00	 call	 ??1_QUIZLIST@CQuiz@@QAE@XZ
  0001a	83 c6 14	 add	 esi, 20			; 00000014H
  0001d	3b f7		 cmp	 esi, edi
  0001f	75 f2		 jne	 SHORT $L213275
$L213277:

; 795  : 			this->_Alval.deallocate(_Myfirst, _Myend - _Myfirst);

  00021	8b 43 04	 mov	 eax, DWORD PTR [ebx+4]
  00024	50		 push	 eax
  00025	e8 00 00 00 00	 call	 ??3@YAXPAX@Z		; operator delete
  0002a	83 c4 04	 add	 esp, 4
  0002d	5f		 pop	 edi
$L213282:
  0002e	5e		 pop	 esi

; 796  : 			}
; 797  : 		_Myfirst = 0, _Mylast = 0, _Myend = 0;

  0002f	c7 43 04 00 00
	00 00		 mov	 DWORD PTR [ebx+4], 0
  00036	c7 43 08 00 00
	00 00		 mov	 DWORD PTR [ebx+8], 0
  0003d	c7 43 0c 00 00
	00 00		 mov	 DWORD PTR [ebx+12], 0
  00044	5b		 pop	 ebx

; 798  : 		}

  00045	c3		 ret	 0
?_Tidy@?$vector@U_QUIZLIST@CQuiz@@V?$allocator@U_QUIZLIST@CQuiz@@@std@@@std@@IAEXXZ ENDP ; std::vector<CQuiz::_QUIZLIST,std::allocator<CQuiz::_QUIZLIST> >::_Tidy
_TEXT	ENDS
PUBLIC	??1?$map@KU_WORLDDATA@CQuizDBCtrl@@U?$less@K@std@@V?$allocator@U?$pair@$$CBKU_WORLDDATA@CQuizDBCtrl@@@std@@@4@@std@@QAE@XZ ; std::map<unsigned long,CQuizDBCtrl::_WORLDDATA,std::less<unsigned long>,std::allocator<std::pair<unsigned long const ,CQuizDBCtrl::_WORLDDATA> > >::~map<unsigned long,CQuizDBCtrl::_WORLDDATA,std::less<unsigned long>,std::allocator<std::pair<unsigned long const ,CQuizDBCtrl::_WORLDDATA> > >
; Function compile flags: /Ogty
;	COMDAT ??1?$map@KU_WORLDDATA@CQuizDBCtrl@@U?$less@K@std@@V?$allocator@U?$pair@$$CBKU_WORLDDATA@CQuizDBCtrl@@@std@@@4@@std@@QAE@XZ
_TEXT	SEGMENT
$T213388 = -4						; size = 4
??1?$map@KU_WORLDDATA@CQuizDBCtrl@@U?$less@K@std@@V?$allocator@U?$pair@$$CBKU_WORLDDATA@CQuizDBCtrl@@@std@@@4@@std@@QAE@XZ PROC NEAR ; std::map<unsigned long,CQuizDBCtrl::_WORLDDATA,std::less<unsigned long>,std::allocator<std::pair<unsigned long const ,CQuizDBCtrl::_WORLDDATA> > >::~map<unsigned long,CQuizDBCtrl::_WORLDDATA,std::less<unsigned long>,std::allocator<std::pair<unsigned long const ,CQuizDBCtrl::_WORLDDATA> > >, COMDAT
; _this$ = ecx
  00000	51		 push	 ecx
  00001	56		 push	 esi
  00002	8b f1		 mov	 esi, ecx
  00004	8b 46 04	 mov	 eax, DWORD PTR [esi+4]
  00007	8b 08		 mov	 ecx, DWORD PTR [eax]
  00009	50		 push	 eax
  0000a	51		 push	 ecx
  0000b	8d 44 24 0c	 lea	 eax, DWORD PTR $T213388[esp+16]
  0000f	50		 push	 eax
  00010	8b ce		 mov	 ecx, esi
  00012	e8 00 00 00 00	 call	 ?erase@?$_Tree@V?$_Tmap_traits@KU_WORLDDATA@CQuizDBCtrl@@U?$less@K@std@@V?$allocator@U?$pair@$$CBKU_WORLDDATA@CQuizDBCtrl@@@std@@@4@$0A@@std@@@std@@QAE?AViterator@12@V312@0@Z ; std::_Tree<std::_Tmap_traits<unsigned long,CQuizDBCtrl::_WORLDDATA,std::less<unsigned long>,std::allocator<std::pair<unsigned long const ,CQuizDBCtrl::_WORLDDATA> >,0> >::erase
  00017	8b 4e 04	 mov	 ecx, DWORD PTR [esi+4]
  0001a	51		 push	 ecx
  0001b	e8 00 00 00 00	 call	 ??3@YAXPAX@Z		; operator delete
  00020	83 c4 04	 add	 esp, 4
  00023	33 c0		 xor	 eax, eax
  00025	89 46 04	 mov	 DWORD PTR [esi+4], eax
  00028	89 46 08	 mov	 DWORD PTR [esi+8], eax
  0002b	5e		 pop	 esi
  0002c	59		 pop	 ecx
  0002d	c3		 ret	 0
??1?$map@KU_WORLDDATA@CQuizDBCtrl@@U?$less@K@std@@V?$allocator@U?$pair@$$CBKU_WORLDDATA@CQuizDBCtrl@@@std@@@4@@std@@QAE@XZ ENDP ; std::map<unsigned long,CQuizDBCtrl::_WORLDDATA,std::less<unsigned long>,std::allocator<std::pair<unsigned long const ,CQuizDBCtrl::_WORLDDATA> > >::~map<unsigned long,CQuizDBCtrl::_WORLDDATA,std::less<unsigned long>,std::allocator<std::pair<unsigned long const ,CQuizDBCtrl::_WORLDDATA> > >
_TEXT	ENDS
PUBLIC	??_7CQuizDBCtrl@@6B@				; CQuizDBCtrl::`vftable'
PUBLIC	??_GCQuizDBCtrl@@UAEPAXI@Z			; CQuizDBCtrl::`scalar deleting destructor'
PUBLIC	??1CQuizDBCtrl@@UAE@XZ				; CQuizDBCtrl::~CQuizDBCtrl
PUBLIC	?Handler@CQuizDBCtrl@@UAEXPAUtagDB_OVERLAPPED_PLUS@@K@Z ; CQuizDBCtrl::Handler
EXTRN	??_ECQuizDBCtrl@@UAEPAXI@Z:NEAR			; CQuizDBCtrl::`vector deleting destructor'
EXTRN	??1CDbController@@UAE@XZ:NEAR			; CDbController::~CDbController
;	COMDAT xdata$x
; File c:\program files\microsoft visual studio .net 2003\vc7\include\xmemory
xdata$x	SEGMENT
$T213643 DD	0ffffffffH
	DD	FLAT:$L213421
	DD	00H
	DD	FLAT:$L213422
$T213641 DD	019930520H
	DD	02H
	DD	FLAT:$T213643
	DD	2 DUP(00H)
	DD	2 DUP(00H)
xdata$x	ENDS
;	COMDAT ??_7CQuizDBCtrl@@6B@
CONST	SEGMENT
??_7CQuizDBCtrl@@6B@ DD FLAT:??_ECQuizDBCtrl@@UAEPAXI@Z	; CQuizDBCtrl::`vftable'
	DD	FLAT:?Handler@CQuizDBCtrl@@UAEXPAUtagDB_OVERLAPPED_PLUS@@K@Z
	DD	FLAT:?OnTimer@CQuizDBCtrl@@UAEXXZ
; Function compile flags: /Ogty
; File c:\documents and settings\test\mes documents\source\virtuos_v17\build\program\databaseserver\quizdbctrl.cpp
CONST	ENDS
;	COMDAT ??1CQuizDBCtrl@@UAE@XZ
_TEXT	SEGMENT
_this$ = -20						; size = 4
$T213613 = -16						; size = 4
__$EHRec$ = -12						; size = 12
??1CQuizDBCtrl@@UAE@XZ PROC NEAR			; CQuizDBCtrl::~CQuizDBCtrl, COMDAT
; _this$ = ecx

; 26   : {

  00000	6a ff		 push	 -1
  00002	68 00 00 00 00	 push	 __ehhandler$??1CQuizDBCtrl@@UAE@XZ
  00007	64 a1 00 00 00
	00		 mov	 eax, DWORD PTR fs:__except_list
  0000d	50		 push	 eax
  0000e	64 89 25 00 00
	00 00		 mov	 DWORD PTR fs:__except_list, esp
  00015	83 ec 08	 sub	 esp, 8
  00018	53		 push	 ebx
  00019	55		 push	 ebp
  0001a	56		 push	 esi
  0001b	57		 push	 edi
  0001c	8b f9		 mov	 edi, ecx
  0001e	89 7c 24 10	 mov	 DWORD PTR _this$[esp+36], edi
  00022	c7 07 00 00 00
	00		 mov	 DWORD PTR [edi], OFFSET FLAT:??_7CQuizDBCtrl@@6B@

; 27   : 	m_mapWorldData.clear();

  00028	8b 47 24	 mov	 eax, DWORD PTR [edi+36]
  0002b	8b 48 04	 mov	 ecx, DWORD PTR [eax+4]
  0002e	8d 77 20	 lea	 esi, DWORD PTR [edi+32]
  00031	51		 push	 ecx
  00032	8b ce		 mov	 ecx, esi
  00034	c7 44 24 24 01
	00 00 00	 mov	 DWORD PTR __$EHRec$[esp+48], 1
  0003c	e8 00 00 00 00	 call	 ?_Erase@?$_Tree@V?$_Tmap_traits@KU_WORLDDATA@CQuizDBCtrl@@U?$less@K@std@@V?$allocator@U?$pair@$$CBKU_WORLDDATA@CQuizDBCtrl@@@std@@@4@$0A@@std@@@std@@IAEXPAU_Node@?$_Tree_nod@V?$_Tmap_traits@KU_WORLDDATA@CQuizDBCtrl@@U?$less@K@std@@V?$allocator@U?$pair@$$CBKU_WORLDDATA@CQuizDBCtrl@@@std@@@4@$0A@@std@@@2@@Z ; std::_Tree<std::_Tmap_traits<unsigned long,CQuizDBCtrl::_WORLDDATA,std::less<unsigned long>,std::allocator<std::pair<unsigned long const ,CQuizDBCtrl::_WORLDDATA> >,0> >::_Erase
  00041	8b 46 04	 mov	 eax, DWORD PTR [esi+4]
  00044	89 40 04	 mov	 DWORD PTR [eax+4], eax
  00047	8b 46 04	 mov	 eax, DWORD PTR [esi+4]
  0004a	33 db		 xor	 ebx, ebx
  0004c	89 5e 08	 mov	 DWORD PTR [esi+8], ebx
  0004f	89 00		 mov	 DWORD PTR [eax], eax
  00051	8b 46 04	 mov	 eax, DWORD PTR [esi+4]
  00054	89 40 08	 mov	 DWORD PTR [eax+8], eax

; 28   : 	SAFE_DELETE( m_pQuery );

  00057	8b 6f 14	 mov	 ebp, DWORD PTR [edi+20]
  0005a	3b eb		 cmp	 ebp, ebx
  0005c	74 13		 je	 SHORT $L203816
  0005e	8b cd		 mov	 ecx, ebp
  00060	e8 00 00 00 00	 call	 ??1CQuery@@QAE@XZ	; CQuery::~CQuery
  00065	55		 push	 ebp
  00066	e8 00 00 00 00	 call	 ??3@YAXPAX@Z		; operator delete
  0006b	83 c4 04	 add	 esp, 4
  0006e	89 5f 14	 mov	 DWORD PTR [edi+20], ebx
$L203816:

; 29   : }

  00071	8b 46 04	 mov	 eax, DWORD PTR [esi+4]
  00074	8b 08		 mov	 ecx, DWORD PTR [eax]
  00076	50		 push	 eax
  00077	51		 push	 ecx
  00078	8d 54 24 1c	 lea	 edx, DWORD PTR $T213613[esp+44]
  0007c	52		 push	 edx
  0007d	8b ce		 mov	 ecx, esi
  0007f	88 5c 24 2c	 mov	 BYTE PTR __$EHRec$[esp+56], bl
  00083	e8 00 00 00 00	 call	 ?erase@?$_Tree@V?$_Tmap_traits@KU_WORLDDATA@CQuizDBCtrl@@U?$less@K@std@@V?$allocator@U?$pair@$$CBKU_WORLDDATA@CQuizDBCtrl@@@std@@@4@$0A@@std@@@std@@QAE?AViterator@12@V312@0@Z ; std::_Tree<std::_Tmap_traits<unsigned long,CQuizDBCtrl::_WORLDDATA,std::less<unsigned long>,std::allocator<std::pair<unsigned long const ,CQuizDBCtrl::_WORLDDATA> >,0> >::erase
  00088	8b 46 04	 mov	 eax, DWORD PTR [esi+4]
  0008b	50		 push	 eax
  0008c	e8 00 00 00 00	 call	 ??3@YAXPAX@Z		; operator delete
  00091	83 c4 04	 add	 esp, 4
  00094	8b cf		 mov	 ecx, edi
  00096	89 5e 04	 mov	 DWORD PTR [esi+4], ebx
  00099	89 5e 08	 mov	 DWORD PTR [esi+8], ebx
  0009c	c7 44 24 20 ff
	ff ff ff	 mov	 DWORD PTR __$EHRec$[esp+44], -1
  000a4	e8 00 00 00 00	 call	 ??1CDbController@@UAE@XZ ; CDbController::~CDbController
  000a9	8b 4c 24 18	 mov	 ecx, DWORD PTR __$EHRec$[esp+36]
  000ad	5f		 pop	 edi
  000ae	5e		 pop	 esi
  000af	5d		 pop	 ebp
  000b0	5b		 pop	 ebx
  000b1	64 89 0d 00 00
	00 00		 mov	 DWORD PTR fs:__except_list, ecx
  000b8	83 c4 14	 add	 esp, 20			; 00000014H
  000bb	c3		 ret	 0
_TEXT	ENDS
;	COMDAT text$x
text$x	SEGMENT
$L213421:
  00000	8b 4d ec	 mov	 ecx, DWORD PTR _this$[ebp]
  00003	e9 00 00 00 00	 jmp	 ??1CDbController@@UAE@XZ ; CDbController::~CDbController
$L213422:
  00008	8b 4d ec	 mov	 ecx, DWORD PTR _this$[ebp]
  0000b	83 c1 20	 add	 ecx, 32			; 00000020H
  0000e	e9 00 00 00 00	 jmp	 ??1?$map@KU_WORLDDATA@CQuizDBCtrl@@U?$less@K@std@@V?$allocator@U?$pair@$$CBKU_WORLDDATA@CQuizDBCtrl@@@std@@@4@@std@@QAE@XZ
__ehhandler$??1CQuizDBCtrl@@UAE@XZ:
  00013	b8 00 00 00 00	 mov	 eax, OFFSET FLAT:$T213641
  00018	e9 00 00 00 00	 jmp	 ___CxxFrameHandler
text$x	ENDS
??1CQuizDBCtrl@@UAE@XZ ENDP				; CQuizDBCtrl::~CQuizDBCtrl
PUBLIC	??1CQuizDBMng@@QAE@XZ				; CQuizDBMng::~CQuizDBMng
EXTRN	?CloseDbHandler@CDbController@@QAEXXZ:NEAR	; CDbController::CloseDbHandler
;	COMDAT xdata$x
xdata$x	SEGMENT
$T213652 DD	0ffffffffH
	DD	FLAT:$L213648
$T213650 DD	019930520H
	DD	01H
	DD	FLAT:$T213652
	DD	2 DUP(00H)
	DD	2 DUP(00H)
; Function compile flags: /Ogty
xdata$x	ENDS
;	COMDAT ??1CQuizDBMng@@QAE@XZ
_TEXT	SEGMENT
_this$ = -16						; size = 4
__$EHRec$ = -12						; size = 12
??1CQuizDBMng@@QAE@XZ PROC NEAR				; CQuizDBMng::~CQuizDBMng, COMDAT
; _this$ = ecx

; 344  : {

  00000	6a ff		 push	 -1
  00002	68 00 00 00 00	 push	 __ehhandler$??1CQuizDBMng@@QAE@XZ
  00007	64 a1 00 00 00
	00		 mov	 eax, DWORD PTR fs:__except_list
  0000d	50		 push	 eax
  0000e	64 89 25 00 00
	00 00		 mov	 DWORD PTR fs:__except_list, esp
  00015	51		 push	 ecx
  00016	56		 push	 esi
  00017	8b f1		 mov	 esi, ecx
  00019	89 74 24 04	 mov	 DWORD PTR _this$[esp+20], esi
  0001d	c7 44 24 10 00
	00 00 00	 mov	 DWORD PTR __$EHRec$[esp+28], 0

; 345  : 	m_QuizDBCtrl.CloseDbHandler();

  00025	e8 00 00 00 00	 call	 ?CloseDbHandler@CDbController@@QAEXXZ ; CDbController::CloseDbHandler

; 346  : }

  0002a	8b ce		 mov	 ecx, esi
  0002c	c7 44 24 10 ff
	ff ff ff	 mov	 DWORD PTR __$EHRec$[esp+28], -1
  00034	e8 00 00 00 00	 call	 ??1CQuizDBCtrl@@UAE@XZ	; CQuizDBCtrl::~CQuizDBCtrl
  00039	8b 4c 24 08	 mov	 ecx, DWORD PTR __$EHRec$[esp+20]
  0003d	5e		 pop	 esi
  0003e	64 89 0d 00 00
	00 00		 mov	 DWORD PTR fs:__except_list, ecx
  00045	83 c4 10	 add	 esp, 16			; 00000010H
  00048	c3		 ret	 0
_TEXT	ENDS
;	COMDAT text$x
text$x	SEGMENT
$L213648:
  00000	8b 4d f0	 mov	 ecx, DWORD PTR _this$[ebp]
  00003	e9 00 00 00 00	 jmp	 ??1CQuizDBCtrl@@UAE@XZ	; CQuizDBCtrl::~CQuizDBCtrl
__ehhandler$??1CQuizDBMng@@QAE@XZ:
  00008	b8 00 00 00 00	 mov	 eax, OFFSET FLAT:$T213650
  0000d	e9 00 00 00 00	 jmp	 ___CxxFrameHandler
text$x	ENDS
??1CQuizDBMng@@QAE@XZ ENDP				; CQuizDBMng::~CQuizDBMng
PUBLIC	??0?$map@KU_WORLDDATA@CQuizDBCtrl@@U?$less@K@std@@V?$allocator@U?$pair@$$CBKU_WORLDDATA@CQuizDBCtrl@@@std@@@4@@std@@QAE@XZ ; std::map<unsigned long,CQuizDBCtrl::_WORLDDATA,std::less<unsigned long>,std::allocator<std::pair<unsigned long const ,CQuizDBCtrl::_WORLDDATA> > >::map<unsigned long,CQuizDBCtrl::_WORLDDATA,std::less<unsigned long>,std::allocator<std::pair<unsigned long const ,CQuizDBCtrl::_WORLDDATA> > >
; Function compile flags: /Ogty
; File c:\program files\microsoft visual studio .net 2003\vc7\include\map
;	COMDAT ??0?$map@KU_WORLDDATA@CQuizDBCtrl@@U?$less@K@std@@V?$allocator@U?$pair@$$CBKU_WORLDDATA@CQuizDBCtrl@@@std@@@4@@std@@QAE@XZ
_TEXT	SEGMENT
??0?$map@KU_WORLDDATA@CQuizDBCtrl@@U?$less@K@std@@V?$allocator@U?$pair@$$CBKU_WORLDDATA@CQuizDBCtrl@@@std@@@4@@std@@QAE@XZ PROC NEAR ; std::map<unsigned long,CQuizDBCtrl::_WORLDDATA,std::less<unsigned long>,std::allocator<std::pair<unsigned long const ,CQuizDBCtrl::_WORLDDATA> > >::map<unsigned long,CQuizDBCtrl::_WORLDDATA,std::less<unsigned long>,std::allocator<std::pair<unsigned long const ,CQuizDBCtrl::_WORLDDATA> > >, COMDAT
; _this$ = ecx

; 102  : 		{	// construct empty map from defaults

  00000	56		 push	 esi
  00001	8b f1		 mov	 esi, ecx
  00003	e8 00 00 00 00	 call	 ?_Buynode@?$_Tree@V?$_Tmap_traits@KU_WORLDDATA@CQuizDBCtrl@@U?$less@K@std@@V?$allocator@U?$pair@$$CBKU_WORLDDATA@CQuizDBCtrl@@@std@@@4@$0A@@std@@@std@@IAEPAU_Node@?$_Tree_nod@V?$_Tmap_traits@KU_WORLDDATA@CQuizDBCtrl@@U?$less@K@std@@V?$allocator@U?$pair@$$CBKU_WORLDDATA@CQuizDBCtrl@@@std@@@4@$0A@@std@@@2@XZ ; std::_Tree<std::_Tmap_traits<unsigned long,CQuizDBCtrl::_WORLDDATA,std::less<unsigned long>,std::allocator<std::pair<unsigned long const ,CQuizDBCtrl::_WORLDDATA> >,0> >::_Buynode
  00008	89 46 04	 mov	 DWORD PTR [esi+4], eax
  0000b	c6 40 2d 01	 mov	 BYTE PTR [eax+45], 1
  0000f	8b 46 04	 mov	 eax, DWORD PTR [esi+4]
  00012	89 40 04	 mov	 DWORD PTR [eax+4], eax
  00015	8b 46 04	 mov	 eax, DWORD PTR [esi+4]
  00018	89 00		 mov	 DWORD PTR [eax], eax
  0001a	8b 46 04	 mov	 eax, DWORD PTR [esi+4]
  0001d	89 40 08	 mov	 DWORD PTR [eax+8], eax
  00020	c7 46 08 00 00
	00 00		 mov	 DWORD PTR [esi+8], 0

; 103  : 		}

  00027	8b c6		 mov	 eax, esi
  00029	5e		 pop	 esi
  0002a	c3		 ret	 0
??0?$map@KU_WORLDDATA@CQuizDBCtrl@@U?$less@K@std@@V?$allocator@U?$pair@$$CBKU_WORLDDATA@CQuizDBCtrl@@@std@@@4@@std@@QAE@XZ ENDP ; std::map<unsigned long,CQuizDBCtrl::_WORLDDATA,std::less<unsigned long>,std::allocator<std::pair<unsigned long const ,CQuizDBCtrl::_WORLDDATA> > >::map<unsigned long,CQuizDBCtrl::_WORLDDATA,std::less<unsigned long>,std::allocator<std::pair<unsigned long const ,CQuizDBCtrl::_WORLDDATA> > >
_TEXT	ENDS
PUBLIC	?push_back@?$vector@U_QUIZLIST@CQuiz@@V?$allocator@U_QUIZLIST@CQuiz@@@std@@@std@@QAEXABU_QUIZLIST@CQuiz@@@Z ; std::vector<CQuiz::_QUIZLIST,std::allocator<CQuiz::_QUIZLIST> >::push_back
; Function compile flags: /Ogty
; File c:\program files\microsoft visual studio .net 2003\vc7\include\vector
;	COMDAT ?push_back@?$vector@U_QUIZLIST@CQuiz@@V?$allocator@U_QUIZLIST@CQuiz@@@std@@@std@@QAEXABU_QUIZLIST@CQuiz@@@Z
_TEXT	SEGMENT
__Cat$213859 = 8					; size = 1
$T213825 = 8						; size = 4
__Val$ = 8						; size = 4
?push_back@?$vector@U_QUIZLIST@CQuiz@@V?$allocator@U_QUIZLIST@CQuiz@@@std@@@std@@QAEXABU_QUIZLIST@CQuiz@@@Z PROC NEAR ; std::vector<CQuiz::_QUIZLIST,std::allocator<CQuiz::_QUIZLIST> >::push_back, COMDAT
; _this$ = ecx

; 579  : 		{	// insert element at end

  00000	56		 push	 esi
  00001	8b f1		 mov	 esi, ecx
  00003	57		 push	 edi

; 580  : 		if (size() < capacity())

  00004	8b 7e 04	 mov	 edi, DWORD PTR [esi+4]
  00007	85 ff		 test	 edi, edi
  00009	75 04		 jne	 SHORT $L213831
  0000b	33 c9		 xor	 ecx, ecx
  0000d	eb 16		 jmp	 SHORT $L213832
$L213831:
  0000f	8b 4e 08	 mov	 ecx, DWORD PTR [esi+8]
  00012	2b cf		 sub	 ecx, edi
  00014	b8 67 66 66 66	 mov	 eax, 1717986919		; 66666667H
  00019	f7 e9		 imul	 ecx
  0001b	c1 fa 03	 sar	 edx, 3
  0001e	8b ca		 mov	 ecx, edx
  00020	c1 e9 1f	 shr	 ecx, 31			; 0000001fH
  00023	03 ca		 add	 ecx, edx
$L213832:
  00025	85 ff		 test	 edi, edi
  00027	74 3e		 je	 SHORT $L204553
  00029	8b 56 0c	 mov	 edx, DWORD PTR [esi+12]
  0002c	2b d7		 sub	 edx, edi
  0002e	b8 67 66 66 66	 mov	 eax, 1717986919		; 66666667H
  00033	f7 ea		 imul	 edx
  00035	c1 fa 03	 sar	 edx, 3
  00038	8b c2		 mov	 eax, edx
  0003a	c1 e8 1f	 shr	 eax, 31			; 0000001fH
  0003d	03 c2		 add	 eax, edx
  0003f	3b c8		 cmp	 ecx, eax
  00041	73 24		 jae	 SHORT $L204553

; 581  : 			_Mylast = _Ufill(_Mylast, 1, _Val);

  00043	8b 44 24 0c	 mov	 eax, DWORD PTR __Cat$213859[esp+4]
  00047	8b 4c 24 0c	 mov	 ecx, DWORD PTR __Val$[esp+4]
  0004b	8b 7e 08	 mov	 edi, DWORD PTR [esi+8]
  0004e	50		 push	 eax
  0004f	56		 push	 esi
  00050	51		 push	 ecx
  00051	6a 01		 push	 1
  00053	57		 push	 edi
  00054	e8 00 00 00 00	 call	 ??$_Uninit_fill_n@PAU_QUIZLIST@CQuiz@@IU12@V?$allocator@U_QUIZLIST@CQuiz@@@std@@@std@@YAXPAU_QUIZLIST@CQuiz@@IABU12@AAV?$allocator@U_QUIZLIST@CQuiz@@@0@U_Nonscalar_ptr_iterator_tag@0@@Z ; std::_Uninit_fill_n<CQuiz::_QUIZLIST *,unsigned int,CQuiz::_QUIZLIST,std::allocator<CQuiz::_QUIZLIST> >
  00059	83 c4 14	 add	 esp, 20			; 00000014H
  0005c	83 c7 14	 add	 edi, 20			; 00000014H
  0005f	89 7e 08	 mov	 DWORD PTR [esi+8], edi
  00062	5f		 pop	 edi
  00063	5e		 pop	 esi

; 584  : 		}

  00064	c2 04 00	 ret	 4
$L204553:

; 582  : 		else
; 583  : 			insert(end(), _Val);

  00067	8b 54 24 0c	 mov	 edx, DWORD PTR __Val$[esp+4]
  0006b	8b 46 08	 mov	 eax, DWORD PTR [esi+8]
  0006e	52		 push	 edx
  0006f	50		 push	 eax
  00070	8d 44 24 14	 lea	 eax, DWORD PTR $T213825[esp+12]
  00074	50		 push	 eax
  00075	8b ce		 mov	 ecx, esi
  00077	e8 00 00 00 00	 call	 ?insert@?$vector@U_QUIZLIST@CQuiz@@V?$allocator@U_QUIZLIST@CQuiz@@@std@@@std@@QAE?AViterator@12@V312@ABU_QUIZLIST@CQuiz@@@Z ; std::vector<CQuiz::_QUIZLIST,std::allocator<CQuiz::_QUIZLIST> >::insert
  0007c	5f		 pop	 edi
  0007d	5e		 pop	 esi

; 584  : 		}

  0007e	c2 04 00	 ret	 4
?push_back@?$vector@U_QUIZLIST@CQuiz@@V?$allocator@U_QUIZLIST@CQuiz@@@std@@@std@@QAEXABU_QUIZLIST@CQuiz@@@Z ENDP ; std::vector<CQuiz::_QUIZLIST,std::allocator<CQuiz::_QUIZLIST> >::push_back
_TEXT	ENDS
PUBLIC	?clear@?$vector@U_QUIZLIST@CQuiz@@V?$allocator@U_QUIZLIST@CQuiz@@@std@@@std@@QAEXXZ ; std::vector<CQuiz::_QUIZLIST,std::allocator<CQuiz::_QUIZLIST> >::clear
; Function compile flags: /Ogty
;	COMDAT ?clear@?$vector@U_QUIZLIST@CQuiz@@V?$allocator@U_QUIZLIST@CQuiz@@@std@@@std@@QAEXXZ
_TEXT	SEGMENT
?clear@?$vector@U_QUIZLIST@CQuiz@@V?$allocator@U_QUIZLIST@CQuiz@@@std@@@std@@QAEXXZ PROC NEAR ; std::vector<CQuiz::_QUIZLIST,std::allocator<CQuiz::_QUIZLIST> >::clear, COMDAT
; _this$ = ecx

; 744  : 		_Tidy();

  00000	e9 00 00 00 00	 jmp	 ?_Tidy@?$vector@U_QUIZLIST@CQuiz@@V?$allocator@U_QUIZLIST@CQuiz@@@std@@@std@@IAEXXZ ; std::vector<CQuiz::_QUIZLIST,std::allocator<CQuiz::_QUIZLIST> >::_Tidy
?clear@?$vector@U_QUIZLIST@CQuiz@@V?$allocator@U_QUIZLIST@CQuiz@@@std@@@std@@QAEXXZ ENDP ; std::vector<CQuiz::_QUIZLIST,std::allocator<CQuiz::_QUIZLIST> >::clear
_TEXT	ENDS
PUBLIC	??0CQuizDBCtrl@@QAE@XZ				; CQuizDBCtrl::CQuizDBCtrl
EXTRN	??0CDbController@@QAE@XZ:NEAR			; CDbController::CDbController
;	COMDAT xdata$x
; File c:\program files\microsoft visual studio .net 2003\vc7\include\xtree
xdata$x	SEGMENT
$T214102 DD	0ffffffffH
	DD	FLAT:$L213883
$T214100 DD	019930520H
	DD	01H
	DD	FLAT:$T214102
	DD	2 DUP(00H)
	DD	2 DUP(00H)
; Function compile flags: /Ogty
; File c:\documents and settings\test\mes documents\source\virtuos_v17\build\program\databaseserver\quizdbctrl.cpp
xdata$x	ENDS
;	COMDAT ??0CQuizDBCtrl@@QAE@XZ
_TEXT	SEGMENT
_this$ = -16						; size = 4
__$EHRec$ = -12						; size = 12
??0CQuizDBCtrl@@QAE@XZ PROC NEAR			; CQuizDBCtrl::CQuizDBCtrl, COMDAT
; _this$ = ecx

; 21   : {

  00000	6a ff		 push	 -1
  00002	68 00 00 00 00	 push	 __ehhandler$??0CQuizDBCtrl@@QAE@XZ
  00007	64 a1 00 00 00
	00		 mov	 eax, DWORD PTR fs:__except_list
  0000d	50		 push	 eax
  0000e	64 89 25 00 00
	00 00		 mov	 DWORD PTR fs:__except_list, esp
  00015	51		 push	 ecx
  00016	53		 push	 ebx
  00017	56		 push	 esi
  00018	8b f1		 mov	 esi, ecx
  0001a	57		 push	 edi
  0001b	89 74 24 0c	 mov	 DWORD PTR _this$[esp+28], esi
  0001f	e8 00 00 00 00	 call	 ??0CDbController@@QAE@XZ ; CDbController::CDbController
  00024	33 db		 xor	 ebx, ebx
  00026	8d 7e 20	 lea	 edi, DWORD PTR [esi+32]
  00029	8b cf		 mov	 ecx, edi
  0002b	89 5c 24 18	 mov	 DWORD PTR __$EHRec$[esp+36], ebx
  0002f	c7 06 00 00 00
	00		 mov	 DWORD PTR [esi], OFFSET FLAT:??_7CQuizDBCtrl@@6B@
  00035	89 5e 14	 mov	 DWORD PTR [esi+20], ebx
  00038	89 5e 18	 mov	 DWORD PTR [esi+24], ebx
  0003b	e8 00 00 00 00	 call	 ?_Buynode@?$_Tree@V?$_Tmap_traits@KU_WORLDDATA@CQuizDBCtrl@@U?$less@K@std@@V?$allocator@U?$pair@$$CBKU_WORLDDATA@CQuizDBCtrl@@@std@@@4@$0A@@std@@@std@@IAEPAU_Node@?$_Tree_nod@V?$_Tmap_traits@KU_WORLDDATA@CQuizDBCtrl@@U?$less@K@std@@V?$allocator@U?$pair@$$CBKU_WORLDDATA@CQuizDBCtrl@@@std@@@4@$0A@@std@@@2@XZ ; std::_Tree<std::_Tmap_traits<unsigned long,CQuizDBCtrl::_WORLDDATA,std::less<unsigned long>,std::allocator<std::pair<unsigned long const ,CQuizDBCtrl::_WORLDDATA> >,0> >::_Buynode

; 22   : 
; 23   : }

  00040	8b 4c 24 10	 mov	 ecx, DWORD PTR __$EHRec$[esp+28]
  00044	89 47 04	 mov	 DWORD PTR [edi+4], eax
  00047	c6 40 2d 01	 mov	 BYTE PTR [eax+45], 1
  0004b	8b 47 04	 mov	 eax, DWORD PTR [edi+4]
  0004e	89 40 04	 mov	 DWORD PTR [eax+4], eax
  00051	8b 47 04	 mov	 eax, DWORD PTR [edi+4]
  00054	89 00		 mov	 DWORD PTR [eax], eax
  00056	8b 47 04	 mov	 eax, DWORD PTR [edi+4]
  00059	89 40 08	 mov	 DWORD PTR [eax+8], eax
  0005c	89 5f 08	 mov	 DWORD PTR [edi+8], ebx
  0005f	5f		 pop	 edi
  00060	8b c6		 mov	 eax, esi
  00062	5e		 pop	 esi
  00063	5b		 pop	 ebx
  00064	64 89 0d 00 00
	00 00		 mov	 DWORD PTR fs:__except_list, ecx
  0006b	83 c4 10	 add	 esp, 16			; 00000010H
  0006e	c3		 ret	 0
_TEXT	ENDS
;	COMDAT text$x
text$x	SEGMENT
$L213883:
  00000	8b 4d f0	 mov	 ecx, DWORD PTR _this$[ebp]
  00003	e9 00 00 00 00	 jmp	 ??1CDbController@@UAE@XZ ; CDbController::~CDbController
__ehhandler$??0CQuizDBCtrl@@QAE@XZ:
  00008	b8 00 00 00 00	 mov	 eax, OFFSET FLAT:$T214100
  0000d	e9 00 00 00 00	 jmp	 ___CxxFrameHandler
text$x	ENDS
??0CQuizDBCtrl@@QAE@XZ ENDP				; CQuizDBCtrl::CQuizDBCtrl
; Function compile flags: /Ogty
;	COMDAT ??_GCQuizDBCtrl@@UAEPAXI@Z
_TEXT	SEGMENT
___flags$ = 8						; size = 4
??_GCQuizDBCtrl@@UAEPAXI@Z PROC NEAR			; CQuizDBCtrl::`scalar deleting destructor', COMDAT
; _this$ = ecx
  00000	56		 push	 esi
  00001	8b f1		 mov	 esi, ecx
  00003	e8 00 00 00 00	 call	 ??1CQuizDBCtrl@@UAE@XZ	; CQuizDBCtrl::~CQuizDBCtrl
  00008	f6 44 24 08 01	 test	 BYTE PTR ___flags$[esp], 1
  0000d	74 09		 je	 SHORT $L214107
  0000f	56		 push	 esi
  00010	e8 00 00 00 00	 call	 ??3@YAXPAX@Z		; operator delete
  00015	83 c4 04	 add	 esp, 4
$L214107:
  00018	8b c6		 mov	 eax, esi
  0001a	5e		 pop	 esi
  0001b	c2 04 00	 ret	 4
??_GCQuizDBCtrl@@UAEPAXI@Z ENDP				; CQuizDBCtrl::`scalar deleting destructor'
_TEXT	ENDS
PUBLIC	??_C@_0DJ@FAECAJIA@usp_Quiz_Update?5?$EAserverindex?5?$DN?5?8@ ; `string'
PUBLIC	?DeleteWorldData@CQuizDBCtrl@@AAEXKH@Z		; CQuizDBCtrl::DeleteWorldData
;	COMDAT ??_C@_0DJ@FAECAJIA@usp_Quiz_Update?5?$EAserverindex?5?$DN?5?8@
; File c:\documents and settings\test\mes documents\source\virtuos_v17\build\program\_common\quiz.h
CONST	SEGMENT
??_C@_0DJ@FAECAJIA@usp_Quiz_Update?5?$EAserverindex?5?$DN?5?8@ DB 'usp_Qu'
	DB	'iz_Update @serverindex = ''%02d'', @m_nQuizType = %d', 00H ; `string'
; Function compile flags: /Ogty
; File c:\documents and settings\test\mes documents\source\virtuos_v17\build\program\databaseserver\quizdbctrl.cpp
CONST	ENDS
;	COMDAT ?DeleteWorldData@CQuizDBCtrl@@AAEXKH@Z
_TEXT	SEGMENT
$T214112 = -40972					; size = 4
_it$ = -40972						; size = 4
_szQuery$204045 = -40968				; size = 40960
__$ArrayPad$ = -4					; size = 4
__$ReturnAddr$ = 4					; size = 4
_dpId$ = 8						; size = 4
_nState$ = 12						; size = 4
?DeleteWorldData@CQuizDBCtrl@@AAEXKH@Z PROC NEAR	; CQuizDBCtrl::DeleteWorldData, COMDAT
; _this$ = ecx

; 159  : {

  00000	55		 push	 ebp
  00001	8b ec		 mov	 ebp, esp
  00003	83 e4 f8	 and	 esp, -8			; fffffff8H
  00006	b8 10 a0 00 00	 mov	 eax, 40976		; 0000a010H
  0000b	e8 00 00 00 00	 call	 __chkstk
  00010	a1 00 00 00 00	 mov	 eax, DWORD PTR ___security_cookie
  00015	56		 push	 esi
  00016	33 c5		 xor	 eax, ebp
  00018	57		 push	 edi
  00019	89 84 24 14 a0
	00 00		 mov	 DWORD PTR __$ArrayPad$[esp+40984], eax
  00020	8b f1		 mov	 esi, ecx

; 160  : 	map<DPID, WORLDDATA>::iterator it = m_mapWorldData.find( dpId );

  00022	8d 45 08	 lea	 eax, DWORD PTR _dpId$[ebp]
  00025	50		 push	 eax
  00026	8d 4c 24 10	 lea	 ecx, DWORD PTR _it$[esp+40988]
  0002a	8d 7e 20	 lea	 edi, DWORD PTR [esi+32]
  0002d	51		 push	 ecx
  0002e	8b cf		 mov	 ecx, edi
  00030	e8 00 00 00 00	 call	 ?find@?$_Tree@V?$_Tmap_traits@KU_WORLDDATA@CQuizDBCtrl@@U?$less@K@std@@V?$allocator@U?$pair@$$CBKU_WORLDDATA@CQuizDBCtrl@@@std@@@4@$0A@@std@@@std@@QAE?AViterator@12@ABK@Z ; std::_Tree<std::_Tmap_traits<unsigned long,CQuizDBCtrl::_WORLDDATA,std::less<unsigned long>,std::allocator<std::pair<unsigned long const ,CQuizDBCtrl::_WORLDDATA> >,0> >::find

; 161  : 	if( it != m_mapWorldData.end() )

  00035	8b 44 24 0c	 mov	 eax, DWORD PTR _it$[esp+40984]
  00039	3b 46 24	 cmp	 eax, DWORD PTR [esi+36]
  0003c	74 0d		 je	 SHORT $L204041

; 162  : 		m_mapWorldData.erase( it );

  0003e	50		 push	 eax
  0003f	8d 54 24 10	 lea	 edx, DWORD PTR $T214112[esp+40988]
  00043	52		 push	 edx
  00044	8b cf		 mov	 ecx, edi
  00046	e8 00 00 00 00	 call	 ?erase@?$_Tree@V?$_Tmap_traits@KU_WORLDDATA@CQuizDBCtrl@@U?$less@K@std@@V?$allocator@U?$pair@$$CBKU_WORLDDATA@CQuizDBCtrl@@@std@@@4@$0A@@std@@@std@@QAE?AViterator@12@V312@@Z ; std::_Tree<std::_Tmap_traits<unsigned long,CQuizDBCtrl::_WORLDDATA,std::less<unsigned long>,std::allocator<std::pair<unsigned long const ,CQuizDBCtrl::_WORLDDATA> >,0> >::erase
$L204041:

; 163  : 	if( !m_mapWorldData.size() && nState == CQuiz::QE_CLOSE )

  0004b	8b 46 28	 mov	 eax, DWORD PTR [esi+40]
  0004e	85 c0		 test	 eax, eax
  00050	0f 85 97 00 00
	00		 jne	 $L204047
  00056	8b 45 0c	 mov	 eax, DWORD PTR _nState$[ebp]
  00059	85 c0		 test	 eax, eax
  0005b	0f 85 8c 00 00
	00		 jne	 $L204047

; 164  : 	{
; 165  : 		CQuiz::GetInstance()->SetRun( FALSE );

  00061	e8 00 00 00 00	 call	 ?GetInstance@CQuiz@@SAPAV1@XZ ; CQuiz::GetInstance
  00066	c7 40 08 00 00
	00 00		 mov	 DWORD PTR [eax+8], 0

; 166  : 		CQuiz::GetInstance()->m_vecQuizList.clear();

  0006d	e8 00 00 00 00	 call	 ?GetInstance@CQuiz@@SAPAV1@XZ ; CQuiz::GetInstance
  00072	83 c0 14	 add	 eax, 20			; 00000014H
  00075	8b c8		 mov	 ecx, eax
  00077	e8 00 00 00 00	 call	 ?_Tidy@?$vector@U_QUIZLIST@CQuiz@@V?$allocator@U_QUIZLIST@CQuiz@@@std@@@std@@IAEXXZ ; std::vector<CQuiz::_QUIZLIST,std::allocator<CQuiz::_QUIZLIST> >::_Tidy

; 167  : 		CQuiz::GetInstance()->m_nQuizSize = 0;

  0007c	e8 00 00 00 00	 call	 ?GetInstance@CQuiz@@SAPAV1@XZ ; CQuiz::GetInstance
  00081	c7 40 10 00 00
	00 00		 mov	 DWORD PTR [eax+16], 0

; 168  : 		//     
; 169  : 		CQuery* pQuery = GetQueryObject();

  00088	8b 76 0c	 mov	 esi, DWORD PTR [esi+12]

; 170  : 		char szQuery[QUERY_SIZE] = {0, };

  0008b	c6 44 24 10 00	 mov	 BYTE PTR _szQuery$204045[esp+40984], 0
  00090	33 c0		 xor	 eax, eax
  00092	b9 ff 27 00 00	 mov	 ecx, 10239		; 000027ffH
  00097	8d 7c 24 11	 lea	 edi, DWORD PTR _szQuery$204045[esp+40985]
  0009b	f3 ab		 rep stosd
  0009d	66 ab		 stosw
  0009f	aa		 stosb

; 171  : 		
; 172  : 		sprintf( szQuery, "usp_Quiz_Update @serverindex = '%02d', @m_nQuizType = %d", g_appInfo.dwSys, CQuiz::GetInstance()->GetType() );

  000a0	e8 00 00 00 00	 call	 ?GetInstance@CQuiz@@SAPAV1@XZ ; CQuiz::GetInstance
  000a5	8b 00		 mov	 eax, DWORD PTR [eax]
  000a7	8b 0d 00 00 00
	00		 mov	 ecx, DWORD PTR ?g_appInfo@@3UAppInfo@@A
  000ad	50		 push	 eax
  000ae	51		 push	 ecx
  000af	8d 54 24 18	 lea	 edx, DWORD PTR _szQuery$204045[esp+40992]
  000b3	68 00 00 00 00	 push	 OFFSET FLAT:??_C@_0DJ@FAECAJIA@usp_Quiz_Update?5?$EAserverindex?5?$DN?5?8@
  000b8	52		 push	 edx
  000b9	e8 00 00 00 00	 call	 _sprintf
  000be	83 c4 10	 add	 esp, 16			; 00000010H

; 173  : 		if( pQuery->Exec( szQuery ) == FALSE )

  000c1	8d 44 24 10	 lea	 eax, DWORD PTR _szQuery$204045[esp+40984]
  000c5	50		 push	 eax
  000c6	8b ce		 mov	 ecx, esi
  000c8	e8 00 00 00 00	 call	 ?Exec@CQuery@@QAEHPBD@Z	; CQuery::Exec
  000cd	85 c0		 test	 eax, eax
  000cf	75 1c		 jne	 SHORT $L204047

; 174  : 		{ WriteLog( "%s, %d\t%s", __FILE__, __LINE__, szQuery ); return; }

  000d1	8d 4c 24 10	 lea	 ecx, DWORD PTR _szQuery$204045[esp+40984]
  000d5	51		 push	 ecx
  000d6	68 ae 00 00 00	 push	 174			; 000000aeH
  000db	68 00 00 00 00	 push	 OFFSET FLAT:??_C@_0BB@DDOPEPAG@?4?2QuizDBCtrl?4cpp?$AA@
  000e0	68 00 00 00 00	 push	 OFFSET FLAT:??_C@_09GBAEEKDE@?$CFs?0?5?$CFd?7?$CFs?$AA@
  000e5	e8 00 00 00 00	 call	 ?WriteLog@@YAXPBDZZ	; WriteLog
  000ea	83 c4 10	 add	 esp, 16			; 00000010H
$L204047:

; 175  : 	}
; 176  : }

  000ed	8b 8c 24 14 a0
	00 00		 mov	 ecx, DWORD PTR __$ArrayPad$[esp+40984]
  000f4	5f		 pop	 edi
  000f5	33 cd		 xor	 ecx, ebp
  000f7	5e		 pop	 esi
  000f8	e8 00 00 00 00	 call	 @__security_check_cookie@4
  000fd	8b e5		 mov	 esp, ebp
  000ff	5d		 pop	 ebp
  00100	c2 08 00	 ret	 8
?DeleteWorldData@CQuizDBCtrl@@AAEXKH@Z ENDP		; CQuizDBCtrl::DeleteWorldData
_TEXT	ENDS
PUBLIC	??_C@_0DH@POLKCAKJ@usp_Quiz_Load?5?$EAserverindex?5?$DN?5?8?$CF0@ ; `string'
PUBLIC	??_C@_08PALOFDJJ@m_nIndex?$AA@			; `string'
PUBLIC	??_C@_09JLOLCEAF@m_nAnswer?$AA@			; `string'
PUBLIC	??_C@_0N@FGDIAFNN@m_szQuestion?$AA@		; `string'
PUBLIC	??_C@_06FKNLKGFE@m_Item?$AA@			; `string'
PUBLIC	??_C@_0M@KDEONCPF@m_ItemCount?$AA@		; `string'
PUBLIC	?LoadQuizList@CQuizDBCtrl@@AAEXK@Z		; CQuizDBCtrl::LoadQuizList
EXTRN	?GetStr@CQuery@@QAEXPAD0@Z:NEAR			; CQuery::GetStr
;	COMDAT xdata$x
; File c:\program files\microsoft visual studio .net 2003\vc7\atlmfc\include\atlsimpstr.h
xdata$x	SEGMENT
$T214321 DD	0ffffffffH
	DD	FLAT:$L214161
$T214314 DD	019930520H
	DD	01H
	DD	FLAT:$T214321
	DD	2 DUP(00H)
	DD	2 DUP(00H)
xdata$x	ENDS
;	COMDAT ??_C@_0DH@POLKCAKJ@usp_Quiz_Load?5?$EAserverindex?5?$DN?5?8?$CF0@
CONST	SEGMENT
??_C@_0DH@POLKCAKJ@usp_Quiz_Load?5?$EAserverindex?5?$DN?5?8?$CF0@ DB 'usp'
	DB	'_Quiz_Load @serverindex = ''%02d'', @m_nQuizType = %d', 00H ; `string'
CONST	ENDS
;	COMDAT ??_C@_08PALOFDJJ@m_nIndex?$AA@
CONST	SEGMENT
??_C@_08PALOFDJJ@m_nIndex?$AA@ DB 'm_nIndex', 00H	; `string'
CONST	ENDS
;	COMDAT ??_C@_09JLOLCEAF@m_nAnswer?$AA@
CONST	SEGMENT
??_C@_09JLOLCEAF@m_nAnswer?$AA@ DB 'm_nAnswer', 00H	; `string'
CONST	ENDS
;	COMDAT ??_C@_0N@FGDIAFNN@m_szQuestion?$AA@
CONST	SEGMENT
??_C@_0N@FGDIAFNN@m_szQuestion?$AA@ DB 'm_szQuestion', 00H ; `string'
CONST	ENDS
;	COMDAT ??_C@_06FKNLKGFE@m_Item?$AA@
CONST	SEGMENT
??_C@_06FKNLKGFE@m_Item?$AA@ DB 'm_Item', 00H		; `string'
CONST	ENDS
;	COMDAT ??_C@_0M@KDEONCPF@m_ItemCount?$AA@
CONST	SEGMENT
??_C@_0M@KDEONCPF@m_ItemCount?$AA@ DB 'm_ItemCount', 00H ; `string'
; Function compile flags: /Ogty
; File c:\documents and settings\test\mes documents\source\virtuos_v17\build\program\databaseserver\quizdbctrl.cpp
CONST	ENDS
;	COMDAT ?LoadQuizList@CQuizDBCtrl@@AAEXK@Z
_TEXT	SEGMENT
$T214312 = -42036					; size = 4
tv199 = -42032						; size = 4
tv184 = -42032						; size = 4
_QL$204130 = -42028					; size = 20
_szQuestion$204131 = -42008				; size = 1024
_szQuery$204127 = -40984				; size = 40960
__$ArrayPad$ = -20					; size = 4
__$EHRec$ = -12						; size = 12
__$ReturnAddr$ = 4					; size = 4
_dpId$ = 8						; size = 4
?LoadQuizList@CQuizDBCtrl@@AAEXK@Z PROC NEAR		; CQuizDBCtrl::LoadQuizList, COMDAT
; _this$ = ecx

; 251  : {

  00000	55		 push	 ebp
  00001	8b ec		 mov	 ebp, esp
  00003	83 e4 f8	 and	 esp, -8			; fffffff8H
  00006	6a ff		 push	 -1
  00008	68 00 00 00 00	 push	 __ehhandler$?LoadQuizList@CQuizDBCtrl@@AAEXK@Z
  0000d	64 a1 00 00 00
	00		 mov	 eax, DWORD PTR fs:__except_list
  00013	50		 push	 eax
  00014	64 89 25 00 00
	00 00		 mov	 DWORD PTR fs:__except_list, esp
  0001b	51		 push	 ecx
  0001c	b8 28 a4 00 00	 mov	 eax, 42024		; 0000a428H
  00021	e8 00 00 00 00	 call	 __chkstk
  00026	a1 00 00 00 00	 mov	 eax, DWORD PTR ___security_cookie
  0002b	56		 push	 esi
  0002c	33 c5		 xor	 eax, ebp
  0002e	8b f1		 mov	 esi, ecx
  00030	57		 push	 edi
  00031	89 84 24 2c a4
	00 00		 mov	 DWORD PTR __$ArrayPad$[esp+42048], eax

; 272  : 		}
; 273  : 		if( CQuiz::GetInstance()->m_vecQuizList.size() > 0 )

  00038	89 74 24 0c	 mov	 DWORD PTR $T214312[esp+42048], esi
  0003c	e8 00 00 00 00	 call	 ?GetInstance@CQuiz@@SAPAV1@XZ ; CQuiz::GetInstance
  00041	8b 40 08	 mov	 eax, DWORD PTR [eax+8]
  00044	85 c0		 test	 eax, eax
  00046	0f 84 21 02 00
	00		 je	 $L214307
  0004c	e8 00 00 00 00	 call	 ?GetInstance@CQuiz@@SAPAV1@XZ ; CQuiz::GetInstance
  00051	8b 50 18	 mov	 edx, DWORD PTR [eax+24]
  00054	83 c0 14	 add	 eax, 20			; 00000014H
  00057	85 d2		 test	 edx, edx
  00059	74 20		 je	 SHORT $L214317
  0005b	8b 48 08	 mov	 ecx, DWORD PTR [eax+8]
  0005e	2b ca		 sub	 ecx, edx
  00060	b8 67 66 66 66	 mov	 eax, 1717986919		; 66666667H
  00065	f7 e9		 imul	 ecx
  00067	c1 fa 03	 sar	 edx, 3
  0006a	8b c2		 mov	 eax, edx
  0006c	c1 e8 1f	 shr	 eax, 31			; 0000001fH
  0006f	03 c2		 add	 eax, edx
  00071	89 44 24 10	 mov	 DWORD PTR tv184[esp+42048], eax
  00075	0f 85 f2 01 00
	00		 jne	 $L214307
$L214317:

; 252  : 	if( CQuiz::GetInstance()->IsRun() && CQuiz::GetInstance()->m_vecQuizList.size() == 0 )
; 253  : 	{
; 254  : 		CQuery* pQuery = GetQueryObject();

  0007b	8b 76 0c	 mov	 esi, DWORD PTR [esi+12]

; 255  : 		char szQuery[QUERY_SIZE] = {0, };

  0007e	c6 84 24 28 04
	00 00 00	 mov	 BYTE PTR _szQuery$204127[esp+42048], 0
  00086	33 c0		 xor	 eax, eax
  00088	b9 ff 27 00 00	 mov	 ecx, 10239		; 000027ffH
  0008d	8d bc 24 29 04
	00 00		 lea	 edi, DWORD PTR _szQuery$204127[esp+42049]
  00094	f3 ab		 rep stosd
  00096	66 ab		 stosw
  00098	aa		 stosb

; 256  : 		
; 257  : 		sprintf( szQuery, "usp_Quiz_Load @serverindex = '%02d', @m_nQuizType = %d", g_appInfo.dwSys, CQuiz::GetInstance()->GetType() );

  00099	e8 00 00 00 00	 call	 ?GetInstance@CQuiz@@SAPAV1@XZ ; CQuiz::GetInstance
  0009e	8b 00		 mov	 eax, DWORD PTR [eax]
  000a0	8b 0d 00 00 00
	00		 mov	 ecx, DWORD PTR ?g_appInfo@@3UAppInfo@@A
  000a6	50		 push	 eax
  000a7	51		 push	 ecx
  000a8	8d 94 24 30 04
	00 00		 lea	 edx, DWORD PTR _szQuery$204127[esp+42056]
  000af	68 00 00 00 00	 push	 OFFSET FLAT:??_C@_0DH@POLKCAKJ@usp_Quiz_Load?5?$EAserverindex?5?$DN?5?8?$CF0@
  000b4	52		 push	 edx
  000b5	e8 00 00 00 00	 call	 _sprintf
  000ba	83 c4 10	 add	 esp, 16			; 00000010H

; 258  : 		if( pQuery->Exec( szQuery ) == FALSE )

  000bd	8d 84 24 28 04
	00 00		 lea	 eax, DWORD PTR _szQuery$204127[esp+42048]
  000c4	50		 push	 eax
  000c5	8b ce		 mov	 ecx, esi
  000c7	e8 00 00 00 00	 call	 ?Exec@CQuery@@QAEHPBD@Z	; CQuery::Exec
  000cc	85 c0		 test	 eax, eax
  000ce	75 24		 jne	 SHORT $L204129

; 259  : 		{ WriteLog( "%s, %d\t%s", __FILE__, __LINE__, szQuery ); return; }

  000d0	8d 8c 24 28 04
	00 00		 lea	 ecx, DWORD PTR _szQuery$204127[esp+42048]
  000d7	51		 push	 ecx
  000d8	68 03 01 00 00	 push	 259			; 00000103H
  000dd	68 00 00 00 00	 push	 OFFSET FLAT:??_C@_0BB@DDOPEPAG@?4?2QuizDBCtrl?4cpp?$AA@
  000e2	68 00 00 00 00	 push	 OFFSET FLAT:??_C@_09GBAEEKDE@?$CFs?0?5?$CFd?7?$CFs?$AA@
  000e7	e8 00 00 00 00	 call	 ?WriteLog@@YAXPBDZZ	; WriteLog
  000ec	83 c4 10	 add	 esp, 16			; 00000010H
  000ef	e9 79 01 00 00	 jmp	 $L214307
$L204129:

; 260  : 
; 261  : 		CQuiz::QUIZLIST QL;

  000f4	e8 00 00 00 00	 call	 ?AfxGetStringManager@@YGPAUIAtlStringMgr@ATL@@XZ ; AfxGetStringManager
  000f9	8b 10		 mov	 edx, DWORD PTR [eax]
  000fb	8b c8		 mov	 ecx, eax
  000fd	ff 52 0c	 call	 DWORD PTR [edx+12]
  00100	83 c0 10	 add	 eax, 16			; 00000010H
  00103	89 44 24 18	 mov	 DWORD PTR _QL$204130[esp+42052], eax

; 262  : 		char szQuestion[MAX_QUIZ_SIZE] = {0, };

  00107	c6 44 24 28 00	 mov	 BYTE PTR _szQuestion$204131[esp+42048], 0
  0010c	33 c0		 xor	 eax, eax
  0010e	b9 ff 00 00 00	 mov	 ecx, 255		; 000000ffH
  00113	8d 7c 24 29	 lea	 edi, DWORD PTR _szQuestion$204131[esp+42049]
  00117	f3 ab		 rep stosd
  00119	66 ab		 stosw

; 263  : 		while( pQuery->Fetch() )

  0011b	8b ce		 mov	 ecx, esi
  0011d	c7 84 24 3c a4
	00 00 00 00 00
	00		 mov	 DWORD PTR __$EHRec$[esp+42056], 0
  00128	aa		 stosb
  00129	e8 00 00 00 00	 call	 ?Fetch@CQuery@@QAEHXZ	; CQuery::Fetch
  0012e	85 c0		 test	 eax, eax
  00130	0f 84 9d 00 00
	00		 je	 $L204134
  00136	eb 08 8d a4 24
	00 00 00 00 90	 npad	 10
$L204133:

; 264  : 		{
; 265  : 			QL.nQuizId = pQuery->GetInt( "m_nIndex" );

  00140	68 00 00 00 00	 push	 OFFSET FLAT:??_C@_08PALOFDJJ@m_nIndex?$AA@
  00145	8b ce		 mov	 ecx, esi
  00147	e8 00 00 00 00	 call	 ?GetInt@CQuery@@QAEHPAD@Z ; CQuery::GetInt

; 266  : 			QL.nCorrect = pQuery->GetInt( "m_nAnswer" );

  0014c	68 00 00 00 00	 push	 OFFSET FLAT:??_C@_09JLOLCEAF@m_nAnswer?$AA@
  00151	8b ce		 mov	 ecx, esi
  00153	89 44 24 18	 mov	 DWORD PTR _QL$204130[esp+42052], eax
  00157	e8 00 00 00 00	 call	 ?GetInt@CQuery@@QAEHPAD@Z ; CQuery::GetInt
  0015c	89 44 24 1c	 mov	 DWORD PTR _QL$204130[esp+42056], eax

; 267  : 			pQuery->GetStr( "m_szQuestion", szQuestion );

  00160	8d 44 24 28	 lea	 eax, DWORD PTR _szQuestion$204131[esp+42048]
  00164	50		 push	 eax
  00165	68 00 00 00 00	 push	 OFFSET FLAT:??_C@_0N@FGDIAFNN@m_szQuestion?$AA@
  0016a	8b ce		 mov	 ecx, esi
  0016c	e8 00 00 00 00	 call	 ?GetStr@CQuery@@QAEXPAD0@Z ; CQuery::GetStr

; 268  : 			QL.strQuestion = szQuestion;

  00171	8d 44 24 28	 lea	 eax, DWORD PTR _szQuestion$204131[esp+42048]
  00175	8d 50 01	 lea	 edx, DWORD PTR [eax+1]
$L214318:
  00178	8a 08		 mov	 cl, BYTE PTR [eax]
  0017a	40		 inc	 eax
  0017b	84 c9		 test	 cl, cl
  0017d	75 f9		 jne	 SHORT $L214318
  0017f	2b c2		 sub	 eax, edx
  00181	50		 push	 eax
  00182	8d 4c 24 2c	 lea	 ecx, DWORD PTR _szQuestion$204131[esp+42052]
  00186	51		 push	 ecx
  00187	8d 4c 24 20	 lea	 ecx, DWORD PTR _QL$204130[esp+42060]
  0018b	e8 00 00 00 00	 call	 ?SetString@?$CSimpleStringT@D$0A@@ATL@@QAEXPBDH@Z ; ATL::CSimpleStringT<char,0>::SetString

; 269  : 			QL.nItemId = pQuery->GetInt( "m_Item" );

  00190	68 00 00 00 00	 push	 OFFSET FLAT:??_C@_06FKNLKGFE@m_Item?$AA@
  00195	8b ce		 mov	 ecx, esi
  00197	e8 00 00 00 00	 call	 ?GetInt@CQuery@@QAEHPAD@Z ; CQuery::GetInt

; 270  : 			QL.nItemNum = pQuery->GetInt( "m_ItemCount" );

  0019c	68 00 00 00 00	 push	 OFFSET FLAT:??_C@_0M@KDEONCPF@m_ItemCount?$AA@
  001a1	8b ce		 mov	 ecx, esi
  001a3	89 44 24 24	 mov	 DWORD PTR _QL$204130[esp+42064], eax
  001a7	e8 00 00 00 00	 call	 ?GetInt@CQuery@@QAEHPAD@Z ; CQuery::GetInt

; 271  : 			CQuiz::GetInstance()->m_vecQuizList.push_back( QL );

  001ac	8d 54 24 14	 lea	 edx, DWORD PTR _QL$204130[esp+42048]
  001b0	52		 push	 edx
  001b1	89 44 24 28	 mov	 DWORD PTR _QL$204130[esp+42068], eax
  001b5	e8 00 00 00 00	 call	 ?GetInstance@CQuiz@@SAPAV1@XZ ; CQuiz::GetInstance
  001ba	8b c8		 mov	 ecx, eax
  001bc	83 c1 14	 add	 ecx, 20			; 00000014H
  001bf	e8 00 00 00 00	 call	 ?push_back@?$vector@U_QUIZLIST@CQuiz@@V?$allocator@U_QUIZLIST@CQuiz@@@std@@@std@@QAEXABU_QUIZLIST@CQuiz@@@Z ; std::vector<CQuiz::_QUIZLIST,std::allocator<CQuiz::_QUIZLIST> >::push_back
  001c4	8b ce		 mov	 ecx, esi
  001c6	e8 00 00 00 00	 call	 ?Fetch@CQuery@@QAEHXZ	; CQuery::Fetch
  001cb	85 c0		 test	 eax, eax
  001cd	0f 85 6d ff ff
	ff		 jne	 $L204133
$L204134:

; 272  : 		}
; 273  : 		if( CQuiz::GetInstance()->m_vecQuizList.size() > 0 )

  001d3	e8 00 00 00 00	 call	 ?GetInstance@CQuiz@@SAPAV1@XZ ; CQuiz::GetInstance
  001d8	8b 50 18	 mov	 edx, DWORD PTR [eax+24]
  001db	83 c0 14	 add	 eax, 20			; 00000014H
  001de	85 d2		 test	 edx, edx
  001e0	74 62		 je	 SHORT $L204141
  001e2	8b 48 08	 mov	 ecx, DWORD PTR [eax+8]
  001e5	2b ca		 sub	 ecx, edx
  001e7	b8 67 66 66 66	 mov	 eax, 1717986919		; 66666667H
  001ec	f7 e9		 imul	 ecx
  001ee	c1 fa 03	 sar	 edx, 3
  001f1	8b c2		 mov	 eax, edx
  001f3	c1 e8 1f	 shr	 eax, 31			; 0000001fH
  001f6	03 c2		 add	 eax, edx
  001f8	89 44 24 10	 mov	 DWORD PTR tv199[esp+42048], eax
  001fc	74 46		 je	 SHORT $L204141

; 274  : 		{
; 275  : 			CQuiz::GetInstance()->m_nQuizSize = CQuiz::GetInstance()->m_vecQuizList.size();

  001fe	e8 00 00 00 00	 call	 ?GetInstance@CQuiz@@SAPAV1@XZ ; CQuiz::GetInstance
  00203	8b c8		 mov	 ecx, eax
  00205	83 c1 14	 add	 ecx, 20			; 00000014H
  00208	e8 00 00 00 00	 call	 ?size@?$vector@U_QUIZLIST@CQuiz@@V?$allocator@U_QUIZLIST@CQuiz@@@std@@@std@@QBEIXZ ; std::vector<CQuiz::_QUIZLIST,std::allocator<CQuiz::_QUIZLIST> >::size
  0020d	8b f0		 mov	 esi, eax
  0020f	e8 00 00 00 00	 call	 ?GetInstance@CQuiz@@SAPAV1@XZ ; CQuiz::GetInstance
  00214	89 70 10	 mov	 DWORD PTR [eax+16], esi

; 276  : 			m_dwQuizSendTick = ( CQuiz::GetInstance()->GetEntranceTime() / 2 ) / CQuiz::GetInstance()->m_nQuizSize;

  00217	e8 00 00 00 00	 call	 ?GetInstance@CQuiz@@SAPAV1@XZ ; CQuiz::GetInstance
  0021c	8b 70 0c	 mov	 esi, DWORD PTR [eax+12]
  0021f	e8 00 00 00 00	 call	 ?GetInstance@CQuiz@@SAPAV1@XZ ; CQuiz::GetInstance
  00224	8b c8		 mov	 ecx, eax
  00226	8b c6		 mov	 eax, esi
  00228	d1 e8		 shr	 eax, 1
  0022a	33 d2		 xor	 edx, edx
  0022c	f7 71 10	 div	 DWORD PTR [ecx+16]
  0022f	8b 4c 24 0c	 mov	 ecx, DWORD PTR $T214312[esp+42048]

; 277  : 			if( m_dwQuizSendTick < 1000 )

  00233	3d e8 03 00 00	 cmp	 eax, 1000		; 000003e8H
  00238	89 41 1c	 mov	 DWORD PTR [ecx+28], eax
  0023b	73 07		 jae	 SHORT $L204141

; 278  : 				m_dwQuizSendTick = 1000;

  0023d	c7 41 1c e8 03
	00 00		 mov	 DWORD PTR [ecx+28], 1000 ; 000003e8H
$L204141:

; 279  : 		}
; 280  : 	}

  00244	8b 44 24 18	 mov	 eax, DWORD PTR _QL$204130[esp+42052]
  00248	83 c0 f0	 add	 eax, -16		; fffffff0H
  0024b	c7 84 24 3c a4
	00 00 ff ff ff
	ff		 mov	 DWORD PTR __$EHRec$[esp+42056], -1
  00256	8d 50 0c	 lea	 edx, DWORD PTR [eax+12]
  00259	83 c9 ff	 or	 ecx, -1
  0025c	f0 0f c1 0a	 lock	  xadd	 DWORD PTR [edx], ecx
  00260	49		 dec	 ecx
  00261	85 c9		 test	 ecx, ecx
  00263	7f 08		 jg	 SHORT $L214307
  00265	8b 08		 mov	 ecx, DWORD PTR [eax]
  00267	8b 11		 mov	 edx, DWORD PTR [ecx]
  00269	50		 push	 eax
  0026a	ff 52 04	 call	 DWORD PTR [edx+4]
$L214307:

; 281  : }

  0026d	8b 8c 24 34 a4
	00 00		 mov	 ecx, DWORD PTR __$EHRec$[esp+42048]
  00274	64 89 0d 00 00
	00 00		 mov	 DWORD PTR fs:__except_list, ecx
  0027b	8b 8c 24 2c a4
	00 00		 mov	 ecx, DWORD PTR __$ArrayPad$[esp+42048]
  00282	5f		 pop	 edi
  00283	33 cd		 xor	 ecx, ebp
  00285	5e		 pop	 esi
  00286	e8 00 00 00 00	 call	 @__security_check_cookie@4
  0028b	8b e5		 mov	 esp, ebp
  0028d	5d		 pop	 ebp
  0028e	c2 04 00	 ret	 4
_TEXT	ENDS
;	COMDAT text$x
text$x	SEGMENT
$L214161:
  00000	8d 8d d4 5b ff
	ff		 lea	 ecx, DWORD PTR _QL$204130[ebp]
  00006	e9 00 00 00 00	 jmp	 ??1_QUIZLIST@CQuiz@@QAE@XZ
__ehhandler$?LoadQuizList@CQuizDBCtrl@@AAEXK@Z:
  0000b	b8 00 00 00 00	 mov	 eax, OFFSET FLAT:$T214314
  00010	e9 00 00 00 00	 jmp	 ___CxxFrameHandler
text$x	ENDS
?LoadQuizList@CQuizDBCtrl@@AAEXK@Z ENDP			; CQuizDBCtrl::LoadQuizList
PUBLIC	??0CQuizDBMng@@QAE@XZ				; CQuizDBMng::CQuizDBMng
PUBLIC	??_C@_0CM@LINHPGHC@CQuizDBMng?5?9?5m_QuizDBCtrl?4Create@ ; `string'
EXTRN	?CreateDbHandler@CDbController@@QAEHK@Z:NEAR	; CDbController::CreateDbHandler
EXTRN	?Error@@YAPBDPBDZZ:NEAR				; Error
;	COMDAT xdata$x
xdata$x	SEGMENT
$T214330 DD	0ffffffffH
	DD	FLAT:$L214325
$T214327 DD	019930520H
	DD	01H
	DD	FLAT:$T214330
	DD	2 DUP(00H)
	DD	2 DUP(00H)
xdata$x	ENDS
;	COMDAT ??_C@_0CM@LINHPGHC@CQuizDBMng?5?9?5m_QuizDBCtrl?4Create@
CONST	SEGMENT
??_C@_0CM@LINHPGHC@CQuizDBMng?5?9?5m_QuizDBCtrl?4Create@ DB 'CQuizDBMng -'
	DB	' m_QuizDBCtrl.CreateDbHandler()', 00H	; `string'
; Function compile flags: /Ogty
CONST	ENDS
;	COMDAT ??0CQuizDBMng@@QAE@XZ
_TEXT	SEGMENT
_this$ = -16						; size = 4
__$EHRec$ = -12						; size = 12
??0CQuizDBMng@@QAE@XZ PROC NEAR				; CQuizDBMng::CQuizDBMng, COMDAT
; _this$ = ecx

; 338  : {

  00000	6a ff		 push	 -1
  00002	68 00 00 00 00	 push	 __ehhandler$??0CQuizDBMng@@QAE@XZ
  00007	64 a1 00 00 00
	00		 mov	 eax, DWORD PTR fs:__except_list
  0000d	50		 push	 eax
  0000e	64 89 25 00 00
	00 00		 mov	 DWORD PTR fs:__except_list, esp
  00015	51		 push	 ecx
  00016	56		 push	 esi
  00017	8b f1		 mov	 esi, ecx
  00019	89 74 24 04	 mov	 DWORD PTR _this$[esp+20], esi
  0001d	e8 00 00 00 00	 call	 ??0CQuizDBCtrl@@QAE@XZ	; CQuizDBCtrl::CQuizDBCtrl

; 339  : 	if( !m_QuizDBCtrl.CreateDbHandler( SEC(1) ) )

  00022	68 e8 03 00 00	 push	 1000			; 000003e8H
  00027	8b ce		 mov	 ecx, esi
  00029	c7 44 24 14 00
	00 00 00	 mov	 DWORD PTR __$EHRec$[esp+32], 0
  00031	e8 00 00 00 00	 call	 ?CreateDbHandler@CDbController@@QAEHK@Z ; CDbController::CreateDbHandler
  00036	85 c0		 test	 eax, eax
  00038	75 0d		 jne	 SHORT $L214328

; 340  : 		Error( "CQuizDBMng - m_QuizDBCtrl.CreateDbHandler()" );

  0003a	68 00 00 00 00	 push	 OFFSET FLAT:??_C@_0CM@LINHPGHC@CQuizDBMng?5?9?5m_QuizDBCtrl?4Create@
  0003f	e8 00 00 00 00	 call	 ?Error@@YAPBDPBDZZ	; Error
  00044	83 c4 04	 add	 esp, 4
$L214328:

; 341  : }

  00047	8b 4c 24 08	 mov	 ecx, DWORD PTR __$EHRec$[esp+20]
  0004b	8b c6		 mov	 eax, esi
  0004d	5e		 pop	 esi
  0004e	64 89 0d 00 00
	00 00		 mov	 DWORD PTR fs:__except_list, ecx
  00055	83 c4 10	 add	 esp, 16			; 00000010H
  00058	c3		 ret	 0
_TEXT	ENDS
;	COMDAT text$x
text$x	SEGMENT
$L214325:
  00000	8b 4d f0	 mov	 ecx, DWORD PTR _this$[ebp]
  00003	e9 00 00 00 00	 jmp	 ??1CQuizDBCtrl@@UAE@XZ	; CQuizDBCtrl::~CQuizDBCtrl
__ehhandler$??0CQuizDBMng@@QAE@XZ:
  00008	b8 00 00 00 00	 mov	 eax, OFFSET FLAT:$T214327
  0000d	e9 00 00 00 00	 jmp	 ___CxxFrameHandler
text$x	ENDS
??0CQuizDBMng@@QAE@XZ ENDP				; CQuizDBMng::CQuizDBMng
PUBLIC	?GetInstance@CQuizDBMng@@SAPAV1@XZ		; CQuizDBMng::GetInstance
EXTRN	_atexit:NEAR
;	COMDAT ?sQuizDBMng@?1??GetInstance@CQuizDBMng@@SAPAV2@XZ@4V2@A
_BSS	SEGMENT
?sQuizDBMng@?1??GetInstance@CQuizDBMng@@SAPAV2@XZ@4V2@A DB 02cH DUP (?) ; `CQuizDBMng::GetInstance'::`2'::sQuizDBMng
_BSS	ENDS
;	COMDAT ?$S1@?1??GetInstance@CQuizDBMng@@SAPAV2@XZ@4IA
_BSS	SEGMENT
?$S1@?1??GetInstance@CQuizDBMng@@SAPAV2@XZ@4IA DD 01H DUP (?) ; `CQuizDBMng::GetInstance'::`2'::$S1
_BSS	ENDS
;	COMDAT xdata$x
xdata$x	SEGMENT
$T214340 DD	0ffffffffH
	DD	FLAT:$L214335
$T214337 DD	019930520H
	DD	01H
	DD	FLAT:$T214340
	DD	2 DUP(00H)
	DD	2 DUP(00H)
; Function compile flags: /Ogty
xdata$x	ENDS
;	COMDAT ?GetInstance@CQuizDBMng@@SAPAV1@XZ
_TEXT	SEGMENT
__$EHRec$ = -12						; size = 12
?GetInstance@CQuizDBMng@@SAPAV1@XZ PROC NEAR		; CQuizDBMng::GetInstance, COMDAT

; 349  : {

  00000	64 a1 00 00 00
	00		 mov	 eax, DWORD PTR fs:__except_list

; 350  : 	static CQuizDBMng sQuizDBMng;

  00006	8a 0d 00 00 00
	00		 mov	 cl, BYTE PTR ?$S1@?1??GetInstance@CQuizDBMng@@SAPAV2@XZ@4IA
  0000c	6a ff		 push	 -1
  0000e	68 00 00 00 00	 push	 __ehhandler$?GetInstance@CQuizDBMng@@SAPAV1@XZ
  00013	50		 push	 eax
  00014	b8 01 00 00 00	 mov	 eax, 1
  00019	84 c8		 test	 cl, al
  0001b	64 89 25 00 00
	00 00		 mov	 DWORD PTR fs:__except_list, esp
  00022	75 25		 jne	 SHORT $L214338
  00024	09 05 00 00 00
	00		 or	 DWORD PTR ?$S1@?1??GetInstance@CQuizDBMng@@SAPAV2@XZ@4IA, eax
  0002a	b9 00 00 00 00	 mov	 ecx, OFFSET FLAT:?sQuizDBMng@?1??GetInstance@CQuizDBMng@@SAPAV2@XZ@4V2@A
  0002f	c7 44 24 08 00
	00 00 00	 mov	 DWORD PTR __$EHRec$[esp+20], 0
  00037	e8 00 00 00 00	 call	 ??0CQuizDBMng@@QAE@XZ	; CQuizDBMng::CQuizDBMng
  0003c	68 00 00 00 00	 push	 OFFSET FLAT:_$E2
  00041	e8 00 00 00 00	 call	 _atexit
  00046	83 c4 04	 add	 esp, 4
$L214338:

; 351  : 	return & sQuizDBMng;
; 352  : }

  00049	8b 0c 24	 mov	 ecx, DWORD PTR __$EHRec$[esp+12]
  0004c	b8 00 00 00 00	 mov	 eax, OFFSET FLAT:?sQuizDBMng@?1??GetInstance@CQuizDBMng@@SAPAV2@XZ@4V2@A
  00051	64 89 0d 00 00
	00 00		 mov	 DWORD PTR fs:__except_list, ecx
  00058	83 c4 0c	 add	 esp, 12			; 0000000cH
  0005b	c3		 ret	 0
_TEXT	ENDS
;	COMDAT text$x
text$x	SEGMENT
$L214335:
  00000	a1 00 00 00 00	 mov	 eax, DWORD PTR ?$S1@?1??GetInstance@CQuizDBMng@@SAPAV2@XZ@4IA
  00005	83 e0 fe	 and	 eax, -2			; fffffffeH
  00008	a3 00 00 00 00	 mov	 DWORD PTR ?$S1@?1??GetInstance@CQuizDBMng@@SAPAV2@XZ@4IA, eax
  0000d	c3		 ret	 0
__ehhandler$?GetInstance@CQuizDBMng@@SAPAV1@XZ:
  0000e	b8 00 00 00 00	 mov	 eax, OFFSET FLAT:$T214337
  00013	e9 00 00 00 00	 jmp	 ___CxxFrameHandler
text$x	ENDS
?GetInstance@CQuizDBMng@@SAPAV1@XZ ENDP			; CQuizDBMng::GetInstance
EXTRN	?SendQuizEventOpen@CDPTrans@@QAEXK@Z:NEAR	; CDPTrans::SendQuizEventOpen
EXTRN	??0CAr@@QAE@PAXI@Z:NEAR				; CAr::CAr
EXTRN	??1CAr@@QAE@XZ:NEAR				; CAr::~CAr
;	COMDAT xdata$x
; File c:\documents and settings\test\mes documents\source\virtuos_v17\build\program\_common\quiz.h
xdata$x	SEGMENT
$T214375 DD	0ffffffffH
	DD	FLAT:$L214346
	DD	00H
	DD	FLAT:$L214347
	DD	00H
	DD	FLAT:$L214348
	DD	00H
	DD	FLAT:$L214349
	DD	00H
	DD	FLAT:$L214350
	DD	00H
	DD	FLAT:$L214351
$T214369 DD	019930520H
	DD	06H
	DD	FLAT:$T214375
	DD	2 DUP(00H)
	DD	2 DUP(00H)
; Function compile flags: /Ogty
; File c:\documents and settings\test\mes documents\source\virtuos_v17\build\program\databaseserver\quizdbctrl.cpp
xdata$x	ENDS
;	COMDAT ?Handler@CQuizDBCtrl@@UAEXPAUtagDB_OVERLAPPED_PLUS@@K@Z
_TEXT	SEGMENT
_dwItemId$203867 = -32844				; size = 4
_nAnswer$203863 = -32844				; size = 4
_nChannel$203856 = -32844				; size = 4
_nWinnerCount$203844 = -32844				; size = 4
_idPlayer$203866 = -32840				; size = 4
_nSelect$203862 = -32840				; size = 4
_idPlayer$203855 = -32840				; size = 4
_nQuizCount$203845 = -32840				; size = 4
_nChannel$203860 = -32836				; size = 4
_nChannel$203843 = -32836				; size = 4
_nType$203836 = -32836					; size = 4
_nItemNum$203868 = -32832				; size = 4
_idPlayer$203859 = -32832				; size = 4
_nQuizId$203861 = -32828				; size = 4
_nState$203842 = -32828					; size = 4
_ar$203865 = -32824					; size = 16404
_ar$203858 = -32824					; size = 16404
_ar$203854 = -32824					; size = 16404
_ar$203841 = -32824					; size = 16404
_ar$203835 = -32824					; size = 16404
_ar$ = -16420						; size = 16404
__$ArrayPad$ = -16					; size = 4
__$EHRec$ = -12						; size = 12
__$ReturnAddr$ = 4					; size = 4
_pov$ = 8						; size = 4
_dwCompletionKey$ = 12					; size = 4
?Handler@CQuizDBCtrl@@UAEXPAUtagDB_OVERLAPPED_PLUS@@K@Z PROC NEAR ; CQuizDBCtrl::Handler, COMDAT
; _this$ = ecx

; 32   : {

  00000	6a ff		 push	 -1
  00002	68 00 00 00 00	 push	 __ehhandler$?Handler@CQuizDBCtrl@@UAEXPAUtagDB_OVERLAPPED_PLUS@@K@Z
  00007	64 a1 00 00 00
	00		 mov	 eax, DWORD PTR fs:__except_list
  0000d	50		 push	 eax
  0000e	b8 40 80 00 00	 mov	 eax, 32832		; 00008040H
  00013	64 89 25 00 00
	00 00		 mov	 DWORD PTR fs:__except_list, esp
  0001a	e8 00 00 00 00	 call	 __chkstk
  0001f	a1 00 00 00 00	 mov	 eax, DWORD PTR ___security_cookie
  00024	33 c4		 xor	 eax, esp
  00026	56		 push	 esi
  00027	8b b4 24 54 80
	00 00		 mov	 esi, DWORD PTR _pov$[esp+32844]
  0002e	57		 push	 edi
  0002f	89 84 24 44 80
	00 00		 mov	 DWORD PTR __$ArrayPad$[esp+32852], eax

; 33   : 	CAr ar( pov->lpBuf, pov->uBufSize );

  00036	8b 46 1c	 mov	 eax, DWORD PTR [esi+28]
  00039	8b f9		 mov	 edi, ecx
  0003b	8b 4e 18	 mov	 ecx, DWORD PTR [esi+24]
  0003e	50		 push	 eax
  0003f	51		 push	 ecx
  00040	8d 8c 24 38 40
	00 00		 lea	 ecx, DWORD PTR _ar$[esp+32860]
  00047	e8 00 00 00 00	 call	 ??0CAr@@QAE@PAXI@Z	; CAr::CAr

; 34   : 	
; 35   : 	switch( pov->nQueryMode )

  0004c	8b 46 14	 mov	 eax, DWORD PTR [esi+20]
  0004f	83 f8 05	 cmp	 eax, 5
  00052	c7 84 24 50 80
	00 00 00 00 00
	00		 mov	 DWORD PTR __$EHRec$[esp+32860], 0
  0005d	0f 87 22 03 00
	00		 ja	 $L203872
  00063	ff 24 85 00 00
	00 00		 jmp	 DWORD PTR $L214374[eax*4]
$L203834:

; 36   : 	{
; 37   : 	case QUERY_QUIZ_OPEN:
; 38   : 		{
; 39   : 			CAr ar( pov->lpBuf, pov->uBufSize );

  0006a	8b 56 1c	 mov	 edx, DWORD PTR [esi+28]
  0006d	8b 46 18	 mov	 eax, DWORD PTR [esi+24]
  00070	52		 push	 edx
  00071	50		 push	 eax
  00072	8d 4c 24 24	 lea	 ecx, DWORD PTR _ar$203835[esp+32860]
  00076	e8 00 00 00 00	 call	 ??0CAr@@QAE@PAXI@Z	; CAr::CAr

; 40   : 			int nType;
; 41   : 			ar >> nType;

  0007b	8d 4c 24 10	 lea	 ecx, DWORD PTR _nType$203836[esp+32852]
  0007f	51		 push	 ecx
  00080	8d 4c 24 20	 lea	 ecx, DWORD PTR _ar$203835[esp+32856]
  00084	c6 84 24 54 80
	00 00 01	 mov	 BYTE PTR __$EHRec$[esp+32864], 1
  0008c	e8 00 00 00 00	 call	 ??5CAr@@QAEAAV0@AAH@Z	; CAr::operator>>

; 42   : 			if( nType == CQuiz::GetInstance()->GetType() )

  00091	e8 00 00 00 00	 call	 ?GetInstance@CQuiz@@SAPAV1@XZ ; CQuiz::GetInstance
  00096	8b 00		 mov	 eax, DWORD PTR [eax]
  00098	39 44 24 10	 cmp	 DWORD PTR _nType$203836[esp+32852], eax
  0009c	75 24		 jne	 SHORT $L203839

; 43   : 			{
; 44   : 				if( CQuiz::GetInstance()->IsAutoMode() )

  0009e	e8 00 00 00 00	 call	 ?GetInstance@CQuiz@@SAPAV1@XZ ; CQuiz::GetInstance
  000a3	8b 48 04	 mov	 ecx, DWORD PTR [eax+4]
  000a6	85 c9		 test	 ecx, ecx
  000a8	74 04		 je	 SHORT $L203838

; 45   : 					CDPTrans::GetInstance()->SendQuizEventOpen( DPID_ALLPLAYERS );

  000aa	6a 00		 push	 0

; 46   : 				else

  000ac	eb 08		 jmp	 SHORT $L214373
$L203838:

; 47   : 					CDPTrans::GetInstance()->SendQuizEventOpen( dwCompletionKey );

  000ae	8b 94 24 5c 80
	00 00		 mov	 edx, DWORD PTR _dwCompletionKey$[esp+32848]
  000b5	52		 push	 edx
$L214373:
  000b6	e8 00 00 00 00	 call	 ?GetInstance@CDPTrans@@SAPAV1@XZ ; CDPTrans::GetInstance
  000bb	8b c8		 mov	 ecx, eax
  000bd	e8 00 00 00 00	 call	 ?SendQuizEventOpen@CDPTrans@@QAEXK@Z ; CDPTrans::SendQuizEventOpen
$L203839:

; 48   : 			}
; 49   : 		}

  000c2	8d 4c 24 1c	 lea	 ecx, DWORD PTR _ar$203835[esp+32852]
  000c6	c6 84 24 50 80
	00 00 00	 mov	 BYTE PTR __$EHRec$[esp+32860], 0
  000ce	e8 00 00 00 00	 call	 ??1CAr@@QAE@XZ		; CAr::~CAr

; 50   : 		break;

  000d3	e9 ad 02 00 00	 jmp	 $L203872
$L203840:

; 51   : 
; 52   : 	case QUERY_QUIZ_STATE:
; 53   : 		{
; 54   : 			CAr ar( pov->lpBuf, pov->uBufSize );

  000d8	8b 46 1c	 mov	 eax, DWORD PTR [esi+28]
  000db	8b 4e 18	 mov	 ecx, DWORD PTR [esi+24]
  000de	53		 push	 ebx
  000df	50		 push	 eax
  000e0	51		 push	 ecx
  000e1	8d 4c 24 28	 lea	 ecx, DWORD PTR _ar$203841[esp+32864]
  000e5	e8 00 00 00 00	 call	 ??0CAr@@QAE@PAXI@Z	; CAr::CAr

; 55   : 			int nState, nChannel, nWinnerCount, nQuizCount;
; 56   : 			ar >> nState >> nChannel >> nWinnerCount >> nQuizCount;

  000ea	8d 54 24 10	 lea	 edx, DWORD PTR _nQuizCount$203845[esp+32856]
  000ee	52		 push	 edx
  000ef	8d 44 24 10	 lea	 eax, DWORD PTR _nWinnerCount$203844[esp+32860]
  000f3	50		 push	 eax
  000f4	8d 4c 24 1c	 lea	 ecx, DWORD PTR _nChannel$203843[esp+32864]
  000f8	51		 push	 ecx
  000f9	8d 54 24 28	 lea	 edx, DWORD PTR _nState$203842[esp+32868]
  000fd	52		 push	 edx
  000fe	8d 4c 24 30	 lea	 ecx, DWORD PTR _ar$203841[esp+32872]
  00102	c6 84 24 64 80
	00 00 02	 mov	 BYTE PTR __$EHRec$[esp+32880], 2
  0010a	e8 00 00 00 00	 call	 ??5CAr@@QAEAAV0@AAH@Z	; CAr::operator>>
  0010f	8b c8		 mov	 ecx, eax
  00111	e8 00 00 00 00	 call	 ??5CAr@@QAEAAV0@AAH@Z	; CAr::operator>>
  00116	8b c8		 mov	 ecx, eax
  00118	e8 00 00 00 00	 call	 ??5CAr@@QAEAAV0@AAH@Z	; CAr::operator>>
  0011d	8b c8		 mov	 ecx, eax
  0011f	e8 00 00 00 00	 call	 ??5CAr@@QAEAAV0@AAH@Z	; CAr::operator>>

; 57   : 			if( nState == CQuiz::QE_OPEN || nState == CQuiz::QE_WATCHINGZONE_OPEN )

  00124	8b 74 24 1c	 mov	 esi, DWORD PTR _nState$203842[esp+32856]
  00128	83 fe 01	 cmp	 esi, 1
  0012b	74 73		 je	 SHORT $L203847
  0012d	83 fe 03	 cmp	 esi, 3
  00130	74 6e		 je	 SHORT $L203847

; 65   : 			}
; 66   : 			else if( nState == CQuiz::QE_CLOSE || nState == CQuiz::QE_WINNER )

  00132	85 f6		 test	 esi, esi
  00134	74 2c		 je	 SHORT $L203851
  00136	83 fe 07	 cmp	 esi, 7
  00139	74 27		 je	 SHORT $L203851

; 70   : 			}
; 71   : 			else
; 72   : 				SetState( dwCompletionKey, nState );

  0013b	8b 84 24 60 80
	00 00		 mov	 eax, DWORD PTR _dwCompletionKey$[esp+32852]
  00142	56		 push	 esi
  00143	50		 push	 eax
  00144	8b cf		 mov	 ecx, edi
  00146	e8 00 00 00 00	 call	 ?SetState@CQuizDBCtrl@@AAEXKH@Z ; CQuizDBCtrl::SetState

; 73   : 		}

  0014b	8d 4c 24 20	 lea	 ecx, DWORD PTR _ar$203841[esp+32856]
  0014f	c6 84 24 54 80
	00 00 00	 mov	 BYTE PTR __$EHRec$[esp+32864], 0
  00157	e8 00 00 00 00	 call	 ??1CAr@@QAE@XZ		; CAr::~CAr
  0015c	5b		 pop	 ebx

; 74   : 		break;

  0015d	e9 23 02 00 00	 jmp	 $L203872
$L203851:

; 67   : 			{
; 68   : 				UpdateQuizEvent( dwCompletionKey, nChannel, nWinnerCount, nQuizCount );

  00162	8b 4c 24 10	 mov	 ecx, DWORD PTR _nQuizCount$203845[esp+32856]
  00166	8b 54 24 0c	 mov	 edx, DWORD PTR _nWinnerCount$203844[esp+32856]
  0016a	8b 44 24 14	 mov	 eax, DWORD PTR _nChannel$203843[esp+32856]
  0016e	8b 9c 24 60 80
	00 00		 mov	 ebx, DWORD PTR _dwCompletionKey$[esp+32852]
  00175	51		 push	 ecx
  00176	52		 push	 edx
  00177	50		 push	 eax
  00178	53		 push	 ebx
  00179	8b cf		 mov	 ecx, edi
  0017b	e8 00 00 00 00	 call	 ?UpdateQuizEvent@CQuizDBCtrl@@AAEXKHHH@Z ; CQuizDBCtrl::UpdateQuizEvent

; 69   : 				DeleteWorldData( dwCompletionKey, nState );

  00180	56		 push	 esi
  00181	53		 push	 ebx
  00182	8b cf		 mov	 ecx, edi
  00184	e8 00 00 00 00	 call	 ?DeleteWorldData@CQuizDBCtrl@@AAEXKH@Z ; CQuizDBCtrl::DeleteWorldData

; 73   : 		}

  00189	8d 4c 24 20	 lea	 ecx, DWORD PTR _ar$203841[esp+32856]
  0018d	c6 84 24 54 80
	00 00 00	 mov	 BYTE PTR __$EHRec$[esp+32864], 0
  00195	e8 00 00 00 00	 call	 ??1CAr@@QAE@XZ		; CAr::~CAr
  0019a	5b		 pop	 ebx

; 74   : 		break;

  0019b	e9 e5 01 00 00	 jmp	 $L203872
$L203847:

; 58   : 			{
; 59   : 				InitWorldData( dwCompletionKey, nChannel, nState );

  001a0	8b 5c 24 14	 mov	 ebx, DWORD PTR _nChannel$203843[esp+32856]
  001a4	55		 push	 ebp
  001a5	8b ac 24 64 80
	00 00		 mov	 ebp, DWORD PTR _dwCompletionKey$[esp+32856]
  001ac	56		 push	 esi
  001ad	53		 push	 ebx
  001ae	55		 push	 ebp
  001af	8b cf		 mov	 ecx, edi
  001b1	e8 00 00 00 00	 call	 ?InitWorldData@CQuizDBCtrl@@AAEXKHH@Z ; CQuizDBCtrl::InitWorldData

; 60   : 				SetState( dwCompletionKey, nState );

  001b6	56		 push	 esi
  001b7	55		 push	 ebp
  001b8	8b cf		 mov	 ecx, edi
  001ba	e8 00 00 00 00	 call	 ?SetState@CQuizDBCtrl@@AAEXKH@Z ; CQuizDBCtrl::SetState

; 61   : 				CQuiz::GetInstance()->SetRun( TRUE );

  001bf	e8 00 00 00 00	 call	 ?GetInstance@CQuiz@@SAPAV1@XZ ; CQuiz::GetInstance

; 62   : 				InsertQuizEvent( dwCompletionKey, nChannel );

  001c4	53		 push	 ebx
  001c5	55		 push	 ebp
  001c6	8b cf		 mov	 ecx, edi
  001c8	c7 40 08 01 00
	00 00		 mov	 DWORD PTR [eax+8], 1
  001cf	e8 00 00 00 00	 call	 ?InsertQuizEvent@CQuizDBCtrl@@AAEXKH@Z ; CQuizDBCtrl::InsertQuizEvent

; 63   : 				if( nState == CQuiz::QE_OPEN )

  001d4	83 fe 01	 cmp	 esi, 1
  001d7	75 08		 jne	 SHORT $L214372

; 64   : 					LoadQuizList( dwCompletionKey );

  001d9	55		 push	 ebp
  001da	8b cf		 mov	 ecx, edi
  001dc	e8 00 00 00 00	 call	 ?LoadQuizList@CQuizDBCtrl@@AAEXK@Z ; CQuizDBCtrl::LoadQuizList
$L214372:
  001e1	5d		 pop	 ebp

; 73   : 		}

  001e2	8d 4c 24 20	 lea	 ecx, DWORD PTR _ar$203841[esp+32856]
  001e6	c6 84 24 54 80
	00 00 00	 mov	 BYTE PTR __$EHRec$[esp+32864], 0
  001ee	e8 00 00 00 00	 call	 ??1CAr@@QAE@XZ		; CAr::~CAr
  001f3	5b		 pop	 ebx

; 74   : 		break;

  001f4	e9 8c 01 00 00	 jmp	 $L203872
$L203853:

; 75   : 		
; 76   : 	case QUERY_QUIZ_ENTRANCE:
; 77   : 		{
; 78   : 			CAr ar( pov->lpBuf, pov->uBufSize );

  001f9	8b 4e 1c	 mov	 ecx, DWORD PTR [esi+28]
  001fc	8b 56 18	 mov	 edx, DWORD PTR [esi+24]
  001ff	51		 push	 ecx
  00200	52		 push	 edx
  00201	8d 4c 24 24	 lea	 ecx, DWORD PTR _ar$203854[esp+32860]
  00205	e8 00 00 00 00	 call	 ??0CAr@@QAE@PAXI@Z	; CAr::CAr

; 79   : 			u_long idPlayer;
; 80   : 			int nChannel;
; 81   : 			ar >> idPlayer >> nChannel;

  0020a	8d 44 24 08	 lea	 eax, DWORD PTR _nChannel$203856[esp+32852]
  0020e	50		 push	 eax
  0020f	8d 4c 24 10	 lea	 ecx, DWORD PTR _idPlayer$203855[esp+32856]
  00213	51		 push	 ecx
  00214	8d 4c 24 24	 lea	 ecx, DWORD PTR _ar$203854[esp+32860]
  00218	c6 84 24 58 80
	00 00 03	 mov	 BYTE PTR __$EHRec$[esp+32868], 3
  00220	e8 00 00 00 00	 call	 ??5CAr@@QAEAAV0@AAK@Z	; CAr::operator>>
  00225	8b c8		 mov	 ecx, eax
  00227	e8 00 00 00 00	 call	 ??5CAr@@QAEAAV0@AAH@Z	; CAr::operator>>

; 82   : 			EntranceQuizEvent( dwCompletionKey, idPlayer, nChannel );

  0022c	8b 54 24 08	 mov	 edx, DWORD PTR _nChannel$203856[esp+32852]
  00230	8b 44 24 0c	 mov	 eax, DWORD PTR _idPlayer$203855[esp+32852]
  00234	8b 8c 24 5c 80
	00 00		 mov	 ecx, DWORD PTR _dwCompletionKey$[esp+32848]
  0023b	52		 push	 edx
  0023c	50		 push	 eax
  0023d	51		 push	 ecx
  0023e	8b cf		 mov	 ecx, edi
  00240	e8 00 00 00 00	 call	 ?EntranceQuizEvent@CQuizDBCtrl@@AAEXKKH@Z ; CQuizDBCtrl::EntranceQuizEvent

; 83   : 		}

  00245	8d 4c 24 1c	 lea	 ecx, DWORD PTR _ar$203854[esp+32852]
  00249	c6 84 24 50 80
	00 00 00	 mov	 BYTE PTR __$EHRec$[esp+32860], 0
  00251	e8 00 00 00 00	 call	 ??1CAr@@QAE@XZ		; CAr::~CAr

; 84   : 		break;

  00256	e9 2a 01 00 00	 jmp	 $L203872
$L203857:

; 85   : 
; 86   : 	case QUERY_QUIZ_SELECT:
; 87   : 		{
; 88   : 			CAr ar( pov->lpBuf, pov->uBufSize );

  0025b	8b 56 1c	 mov	 edx, DWORD PTR [esi+28]
  0025e	8b 46 18	 mov	 eax, DWORD PTR [esi+24]
  00261	52		 push	 edx
  00262	50		 push	 eax
  00263	8d 4c 24 24	 lea	 ecx, DWORD PTR _ar$203858[esp+32860]
  00267	e8 00 00 00 00	 call	 ??0CAr@@QAE@PAXI@Z	; CAr::CAr

; 89   : 			u_long idPlayer;
; 90   : 			int nChannel, nQuizId, nSelect, nAnswer;
; 91   : 			ar >> idPlayer >> nChannel >> nQuizId >> nSelect >> nAnswer;

  0026c	8d 4c 24 08	 lea	 ecx, DWORD PTR _nAnswer$203863[esp+32852]
  00270	51		 push	 ecx
  00271	8d 54 24 10	 lea	 edx, DWORD PTR _nSelect$203862[esp+32856]
  00275	52		 push	 edx
  00276	8d 44 24 20	 lea	 eax, DWORD PTR _nQuizId$203861[esp+32860]
  0027a	50		 push	 eax
  0027b	8d 4c 24 1c	 lea	 ecx, DWORD PTR _nChannel$203860[esp+32864]
  0027f	51		 push	 ecx
  00280	8d 54 24 24	 lea	 edx, DWORD PTR _idPlayer$203859[esp+32868]
  00284	52		 push	 edx
  00285	8d 4c 24 30	 lea	 ecx, DWORD PTR _ar$203858[esp+32872]
  00289	c6 84 24 64 80
	00 00 04	 mov	 BYTE PTR __$EHRec$[esp+32880], 4
  00291	e8 00 00 00 00	 call	 ??5CAr@@QAEAAV0@AAK@Z	; CAr::operator>>
  00296	8b c8		 mov	 ecx, eax
  00298	e8 00 00 00 00	 call	 ??5CAr@@QAEAAV0@AAH@Z	; CAr::operator>>
  0029d	8b c8		 mov	 ecx, eax
  0029f	e8 00 00 00 00	 call	 ??5CAr@@QAEAAV0@AAH@Z	; CAr::operator>>
  002a4	8b c8		 mov	 ecx, eax
  002a6	e8 00 00 00 00	 call	 ??5CAr@@QAEAAV0@AAH@Z	; CAr::operator>>
  002ab	8b c8		 mov	 ecx, eax
  002ad	e8 00 00 00 00	 call	 ??5CAr@@QAEAAV0@AAH@Z	; CAr::operator>>

; 92   : 			SelectQuizExample( dwCompletionKey, idPlayer, nChannel, nQuizId, nSelect, nAnswer );

  002b2	8b 44 24 08	 mov	 eax, DWORD PTR _nAnswer$203863[esp+32852]
  002b6	8b 4c 24 0c	 mov	 ecx, DWORD PTR _nSelect$203862[esp+32852]
  002ba	8b 54 24 18	 mov	 edx, DWORD PTR _nQuizId$203861[esp+32852]
  002be	50		 push	 eax
  002bf	8b 44 24 14	 mov	 eax, DWORD PTR _nChannel$203860[esp+32856]
  002c3	51		 push	 ecx
  002c4	8b 4c 24 1c	 mov	 ecx, DWORD PTR _idPlayer$203859[esp+32860]
  002c8	52		 push	 edx
  002c9	8b 94 24 68 80
	00 00		 mov	 edx, DWORD PTR _dwCompletionKey$[esp+32860]
  002d0	50		 push	 eax
  002d1	51		 push	 ecx
  002d2	52		 push	 edx
  002d3	8b cf		 mov	 ecx, edi
  002d5	e8 00 00 00 00	 call	 ?SelectQuizExample@CQuizDBCtrl@@AAEXKKHHHH@Z ; CQuizDBCtrl::SelectQuizExample

; 93   : 		}

  002da	8d 4c 24 1c	 lea	 ecx, DWORD PTR _ar$203858[esp+32852]
  002de	c6 84 24 50 80
	00 00 00	 mov	 BYTE PTR __$EHRec$[esp+32860], 0
  002e6	e8 00 00 00 00	 call	 ??1CAr@@QAE@XZ		; CAr::~CAr

; 94   : 		break;

  002eb	e9 95 00 00 00	 jmp	 $L203872
$L203864:

; 95   : 		
; 96   : 	case QUERY_QUIZ_POST_PRIZE:
; 97   : 		{
; 98   : 			CAr ar( pov->lpBuf, pov->uBufSize );

  002f0	8b 46 1c	 mov	 eax, DWORD PTR [esi+28]
  002f3	8b 4e 18	 mov	 ecx, DWORD PTR [esi+24]
  002f6	50		 push	 eax
  002f7	51		 push	 ecx
  002f8	8d 4c 24 24	 lea	 ecx, DWORD PTR _ar$203865[esp+32860]
  002fc	e8 00 00 00 00	 call	 ??0CAr@@QAE@PAXI@Z	; CAr::CAr

; 99   : 			u_long idPlayer;
; 100  : 			DWORD dwItemId;
; 101  : 			int nItemNum;
; 102  : 			ar >> idPlayer >> dwItemId >> nItemNum;

  00301	8d 54 24 14	 lea	 edx, DWORD PTR _nItemNum$203868[esp+32852]
  00305	52		 push	 edx
  00306	8d 44 24 0c	 lea	 eax, DWORD PTR _dwItemId$203867[esp+32856]
  0030a	50		 push	 eax
  0030b	8d 4c 24 14	 lea	 ecx, DWORD PTR _idPlayer$203866[esp+32860]
  0030f	51		 push	 ecx
  00310	8d 4c 24 28	 lea	 ecx, DWORD PTR _ar$203865[esp+32864]
  00314	c6 84 24 5c 80
	00 00 05	 mov	 BYTE PTR __$EHRec$[esp+32872], 5
  0031c	e8 00 00 00 00	 call	 ??5CAr@@QAEAAV0@AAK@Z	; CAr::operator>>
  00321	8b c8		 mov	 ecx, eax
  00323	e8 00 00 00 00	 call	 ??5CAr@@QAEAAV0@AAK@Z	; CAr::operator>>
  00328	8b c8		 mov	 ecx, eax
  0032a	e8 00 00 00 00	 call	 ??5CAr@@QAEAAV0@AAH@Z	; CAr::operator>>

; 103  : 			PostPrizeItem( idPlayer, dwItemId, nItemNum );

  0032f	8b 54 24 14	 mov	 edx, DWORD PTR _nItemNum$203868[esp+32852]
  00333	8b 44 24 08	 mov	 eax, DWORD PTR _dwItemId$203867[esp+32852]
  00337	8b 4c 24 0c	 mov	 ecx, DWORD PTR _idPlayer$203866[esp+32852]
  0033b	52		 push	 edx
  0033c	50		 push	 eax
  0033d	51		 push	 ecx
  0033e	8b cf		 mov	 ecx, edi
  00340	e8 00 00 00 00	 call	 ?PostPrizeItem@CQuizDBCtrl@@AAEXKKH@Z ; CQuizDBCtrl::PostPrizeItem

; 104  : 		}

  00345	8d 4c 24 1c	 lea	 ecx, DWORD PTR _ar$203865[esp+32852]
  00349	c6 84 24 50 80
	00 00 00	 mov	 BYTE PTR __$EHRec$[esp+32860], 0
  00351	e8 00 00 00 00	 call	 ??1CAr@@QAE@XZ		; CAr::~CAr

; 105  : 		break;

  00356	eb 2d		 jmp	 SHORT $L203872
$L203869:

; 106  : 		
; 107  : 	case QUERY_QUIZ_CLOSE:
; 108  : 		{
; 109  : 			int nChannel = 0;
; 110  : 			WORLDDATA* pWD = GetWorldData( dwCompletionKey );

  00358	8b b4 24 5c 80
	00 00		 mov	 esi, DWORD PTR _dwCompletionKey$[esp+32848]
  0035f	56		 push	 esi
  00360	8b cf		 mov	 ecx, edi
  00362	e8 00 00 00 00	 call	 ?GetWorldData@CQuizDBCtrl@@AAEPAU_WORLDDATA@1@K@Z ; CQuizDBCtrl::GetWorldData

; 111  : 			if( pWD )

  00367	85 c0		 test	 eax, eax
  00369	74 1a		 je	 SHORT $L203872

; 112  : 			{
; 113  : 				nChannel = pWD->nChannel;

  0036b	8b 40 08	 mov	 eax, DWORD PTR [eax+8]

; 114  : 				UpdateQuizEvent( dwCompletionKey, nChannel, 0, 0 );

  0036e	6a 00		 push	 0
  00370	6a 00		 push	 0
  00372	50		 push	 eax
  00373	56		 push	 esi
  00374	8b cf		 mov	 ecx, edi
  00376	e8 00 00 00 00	 call	 ?UpdateQuizEvent@CQuizDBCtrl@@AAEXKHHH@Z ; CQuizDBCtrl::UpdateQuizEvent

; 115  : 				DeleteWorldData( dwCompletionKey, CQuiz::QE_CLOSE );

  0037b	6a 00		 push	 0
  0037d	56		 push	 esi
  0037e	8b cf		 mov	 ecx, edi
  00380	e8 00 00 00 00	 call	 ?DeleteWorldData@CQuizDBCtrl@@AAEXKH@Z ; CQuizDBCtrl::DeleteWorldData
$L203872:

; 116  : 			}
; 117  : 		}
; 118  : 		break;
; 119  : 	}
; 120  : }

  00385	8d 8c 24 30 40
	00 00		 lea	 ecx, DWORD PTR _ar$[esp+32852]
  0038c	c7 84 24 50 80
	00 00 ff ff ff
	ff		 mov	 DWORD PTR __$EHRec$[esp+32860], -1
  00397	e8 00 00 00 00	 call	 ??1CAr@@QAE@XZ		; CAr::~CAr
  0039c	8b 8c 24 48 80
	00 00		 mov	 ecx, DWORD PTR __$EHRec$[esp+32852]
  003a3	5f		 pop	 edi
  003a4	64 89 0d 00 00
	00 00		 mov	 DWORD PTR fs:__except_list, ecx
  003ab	8b 8c 24 40 80
	00 00		 mov	 ecx, DWORD PTR __$ArrayPad$[esp+32848]
  003b2	5e		 pop	 esi
  003b3	33 cc		 xor	 ecx, esp
  003b5	e8 00 00 00 00	 call	 @__security_check_cookie@4
  003ba	81 c4 4c 80 00
	00		 add	 esp, 32844		; 0000804cH
  003c0	c2 08 00	 ret	 8
  003c3	90		 npad	 1
$L214374:
  003c4	00 00 00 00	 DD	 $L203834
  003c8	00 00 00 00	 DD	 $L203840
  003cc	00 00 00 00	 DD	 $L203853
  003d0	00 00 00 00	 DD	 $L203857
  003d4	00 00 00 00	 DD	 $L203864
  003d8	00 00 00 00	 DD	 $L203869
_TEXT	ENDS
;	COMDAT text$x
text$x	SEGMENT
$L214346:
  00000	8d 8d dc bf ff
	ff		 lea	 ecx, DWORD PTR _ar$[ebp]
  00006	e9 00 00 00 00	 jmp	 ??1CAr@@QAE@XZ		; CAr::~CAr
$L214347:
  0000b	8d 8d c8 7f ff
	ff		 lea	 ecx, DWORD PTR _ar$203835[ebp]
  00011	e9 00 00 00 00	 jmp	 ??1CAr@@QAE@XZ		; CAr::~CAr
$L214348:
  00016	8d 8d c8 7f ff
	ff		 lea	 ecx, DWORD PTR _ar$203841[ebp]
  0001c	e9 00 00 00 00	 jmp	 ??1CAr@@QAE@XZ		; CAr::~CAr
$L214349:
  00021	8d 8d c8 7f ff
	ff		 lea	 ecx, DWORD PTR _ar$203854[ebp]
  00027	e9 00 00 00 00	 jmp	 ??1CAr@@QAE@XZ		; CAr::~CAr
$L214350:
  0002c	8d 8d c8 7f ff
	ff		 lea	 ecx, DWORD PTR _ar$203858[ebp]
  00032	e9 00 00 00 00	 jmp	 ??1CAr@@QAE@XZ		; CAr::~CAr
$L214351:
  00037	8d 8d c8 7f ff
	ff		 lea	 ecx, DWORD PTR _ar$203865[ebp]
  0003d	e9 00 00 00 00	 jmp	 ??1CAr@@QAE@XZ		; CAr::~CAr
__ehhandler$?Handler@CQuizDBCtrl@@UAEXPAUtagDB_OVERLAPPED_PLUS@@K@Z:
  00042	b8 00 00 00 00	 mov	 eax, OFFSET FLAT:$T214369
  00047	e9 00 00 00 00	 jmp	 ___CxxFrameHandler
text$x	ENDS
?Handler@CQuizDBCtrl@@UAEXPAUtagDB_OVERLAPPED_PLUS@@K@Z ENDP ; CQuizDBCtrl::Handler
; Function compile flags: /Ogty
;	COMDAT _$E2
text$yd	SEGMENT
_$E2	PROC NEAR					; COMDAT
  00000	b9 00 00 00 00	 mov	 ecx, OFFSET FLAT:?sQuizDBMng@?1??GetInstance@CQuizDBMng@@SAPAV2@XZ@4V2@A
  00005	e9 00 00 00 00	 jmp	 ??1CQuizDBMng@@QAE@XZ	; CQuizDBMng::~CQuizDBMng
_$E2	ENDP
text$yd	ENDS
END
