; Listing generated by Microsoft (R) Optimizing Compiler Version 13.10.6030 

	TITLE	\Documents and Settings\test\Mes documents\Source\Virtuos_v17\Build\Program\_Common\scanner.cpp
	.386P
include listing.inc
if @Version gt 510
.model FLAT
else
_TEXT	SEGMENT PARA USE32 PUBLIC 'CODE'
_TEXT	ENDS
_DATA	SEGMENT DWORD USE32 PUBLIC 'DATA'
_DATA	ENDS
CONST	SEGMENT DWORD USE32 PUBLIC 'CONST'
CONST	ENDS
_BSS	SEGMENT DWORD USE32 PUBLIC 'BSS'
_BSS	ENDS
$$SYMBOLS	SEGMENT BYTE USE32 'DEBSYM'
$$SYMBOLS	ENDS
_TLS	SEGMENT DWORD USE32 PUBLIC 'TLS'
_TLS	ENDS
;	COMDAT ??_C@_0BE@NNIJINN@IDispatch?5error?5?$CD?$CFd?$AA@
CONST	SEGMENT DWORD USE32 PUBLIC 'CONST'
CONST	ENDS
;	COMDAT ??_C@_0BF@IPPGFENJ@Unknown?5error?50x?$CF0lX?$AA@
CONST	SEGMENT DWORD USE32 PUBLIC 'CONST'
CONST	ENDS
;	COMDAT ??_C@_0BH@PMNGKJFP@?5?$CB?3?$DL?0?$CL?9?$DM?$DO?8?1?$CK?$CF?$FO?$DN?$CI?$CJ?$CG?$HM?$CC?$HL?$HN?$AA@
CONST	SEGMENT DWORD USE32 PUBLIC 'CONST'
CONST	ENDS
;	COMDAT ??_C@_02JDPG@rb?$AA@
CONST	SEGMENT DWORD USE32 PUBLIC 'CONST'
CONST	ENDS
;	COMDAT ??_C@_0BB@BKECMLNK@?$CL?9?$CK?$FO?1?$CF?$DN?$DL?$CI?$CJ?0?8?3?$HL?$HN?4?$AA@
CONST	SEGMENT DWORD USE32 PUBLIC 'CONST'
CONST	ENDS
;	COMDAT ??_C@_0DN@LFHNMKPA@line?$CI?$CFd?$CJ?5?F?D?$MA?O?5?$CFs?$LP?$KB?$LM?$KN?5?$CC?$CFs?$CC?5?$LN?$LK?F?$KO?$LI?$LF@
CONST	SEGMENT DWORD USE32 PUBLIC 'CONST'
CONST	ENDS
;	COMDAT ??_C@_0DJ@HNOCKBIP@line?$CI?$CFd?$CJ?5?F?D?$MA?O?5?$CFs?$LP?$KB?$LM?$KN?5?$CC?$CFs?$CC?5?$LN?$LK?F?$KO?$LI?$LF@
CONST	SEGMENT DWORD USE32 PUBLIC 'CONST'
CONST	ENDS
xdata$x	SEGMENT DWORD USE32 PUBLIC 'CONST'
xdata$x	ENDS
;	COMDAT ?CheckError@_com_util@@YAXJ@Z
_TEXT	SEGMENT PARA USE32 PUBLIC 'CODE'
_TEXT	ENDS
;	COMDAT ??0_bstr_t@@QAE@ABV0@@Z
_TEXT	SEGMENT PARA USE32 PUBLIC 'CODE'
_TEXT	ENDS
;	COMDAT ??0_bstr_t@@QAE@PBD@Z
_TEXT	SEGMENT PARA USE32 PUBLIC 'CODE'
_TEXT	ENDS
;	COMDAT ??0_bstr_t@@QAE@PBG@Z
_TEXT	SEGMENT PARA USE32 PUBLIC 'CODE'
_TEXT	ENDS
;	COMDAT ??0_bstr_t@@QAE@PAG_N@Z
_TEXT	SEGMENT PARA USE32 PUBLIC 'CODE'
_TEXT	ENDS
;	COMDAT ??1_bstr_t@@QAE@XZ
_TEXT	SEGMENT PARA USE32 PUBLIC 'CODE'
_TEXT	ENDS
;	COMDAT ??4_bstr_t@@QAEAAV0@PBG@Z
_TEXT	SEGMENT PARA USE32 PUBLIC 'CODE'
_TEXT	ENDS
;	COMDAT ??Y_bstr_t@@QAEAAV0@ABV0@@Z
_TEXT	SEGMENT PARA USE32 PUBLIC 'CODE'
_TEXT	ENDS
;	COMDAT ??B_bstr_t@@QBEPBGXZ
_TEXT	SEGMENT PARA USE32 PUBLIC 'CODE'
_TEXT	ENDS
;	COMDAT ??B_bstr_t@@QBEPAGXZ
_TEXT	SEGMENT PARA USE32 PUBLIC 'CODE'
_TEXT	ENDS
;	COMDAT ??7_bstr_t@@QBE_NXZ
_TEXT	SEGMENT PARA USE32 PUBLIC 'CODE'
_TEXT	ENDS
;	COMDAT ?length@_bstr_t@@QBEIXZ
_TEXT	SEGMENT PARA USE32 PUBLIC 'CODE'
_TEXT	ENDS
;	COMDAT ?Attach@_bstr_t@@QAEXPAG@Z
_TEXT	SEGMENT PARA USE32 PUBLIC 'CODE'
_TEXT	ENDS
;	COMDAT ?_AddRef@_bstr_t@@AAEXXZ
_TEXT	SEGMENT PARA USE32 PUBLIC 'CODE'
_TEXT	ENDS
;	COMDAT ?_Free@_bstr_t@@AAEXXZ
_TEXT	SEGMENT PARA USE32 PUBLIC 'CODE'
_TEXT	ENDS
;	COMDAT ?_Compare@_bstr_t@@ABEHABV1@@Z
_TEXT	SEGMENT PARA USE32 PUBLIC 'CODE'
_TEXT	ENDS
;	COMDAT ??0Data_t@_bstr_t@@QAE@PBD@Z
_TEXT	SEGMENT PARA USE32 PUBLIC 'CODE'
_TEXT	ENDS
;	COMDAT ??0Data_t@_bstr_t@@QAE@PBG@Z
_TEXT	SEGMENT PARA USE32 PUBLIC 'CODE'
_TEXT	ENDS
;	COMDAT ??0Data_t@_bstr_t@@QAE@PAG_N@Z
_TEXT	SEGMENT PARA USE32 PUBLIC 'CODE'
_TEXT	ENDS
;	COMDAT ??0Data_t@_bstr_t@@QAE@ABV1@0@Z
_TEXT	SEGMENT PARA USE32 PUBLIC 'CODE'
_TEXT	ENDS
;	COMDAT ?AddRef@Data_t@_bstr_t@@QAEKXZ
_TEXT	SEGMENT PARA USE32 PUBLIC 'CODE'
_TEXT	ENDS
;	COMDAT ?Release@Data_t@_bstr_t@@QAEKXZ
_TEXT	SEGMENT PARA USE32 PUBLIC 'CODE'
_TEXT	ENDS
;	COMDAT ??_GData_t@_bstr_t@@AAEPAXI@Z
_TEXT	SEGMENT PARA USE32 PUBLIC 'CODE'
_TEXT	ENDS
;	COMDAT ?GetWString@Data_t@_bstr_t@@QAEAAPAGXZ
_TEXT	SEGMENT PARA USE32 PUBLIC 'CODE'
_TEXT	ENDS
;	COMDAT ?GetString@Data_t@_bstr_t@@QBEPBDXZ
_TEXT	SEGMENT PARA USE32 PUBLIC 'CODE'
_TEXT	ENDS
;	COMDAT ?Copy@Data_t@_bstr_t@@QBEPAGXZ
_TEXT	SEGMENT PARA USE32 PUBLIC 'CODE'
_TEXT	ENDS
;	COMDAT ?Length@Data_t@_bstr_t@@QBEIXZ
_TEXT	SEGMENT PARA USE32 PUBLIC 'CODE'
_TEXT	ENDS
;	COMDAT ?Compare@Data_t@_bstr_t@@QBEHABV12@@Z
_TEXT	SEGMENT PARA USE32 PUBLIC 'CODE'
_TEXT	ENDS
;	COMDAT ??2Data_t@_bstr_t@@SAPAXI@Z
_TEXT	SEGMENT PARA USE32 PUBLIC 'CODE'
_TEXT	ENDS
;	COMDAT ??1Data_t@_bstr_t@@AAE@XZ
_TEXT	SEGMENT PARA USE32 PUBLIC 'CODE'
_TEXT	ENDS
;	COMDAT ?_Free@Data_t@_bstr_t@@AAEXXZ
_TEXT	SEGMENT PARA USE32 PUBLIC 'CODE'
_TEXT	ENDS
;	COMDAT ??0_variant_t@@QAE@XZ
_TEXT	SEGMENT PARA USE32 PUBLIC 'CODE'
_TEXT	ENDS
;	COMDAT ??4_variant_t@@QAEAAV0@PBD@Z
_TEXT	SEGMENT PARA USE32 PUBLIC 'CODE'
_TEXT	ENDS
;	COMDAT ??8_variant_t@@QBE_NPBUtagVARIANT@@@Z
_TEXT	SEGMENT PARA USE32 PUBLIC 'CODE'
_TEXT	ENDS
;	COMDAT ?Clear@_variant_t@@QAEXXZ
_TEXT	SEGMENT PARA USE32 PUBLIC 'CODE'
_TEXT	ENDS
;	COMDAT ?ChangeType@_variant_t@@QAEXGPBV1@@Z
_TEXT	SEGMENT PARA USE32 PUBLIC 'CODE'
_TEXT	ENDS
;	COMDAT ??1_variant_t@@QAE@XZ
_TEXT	SEGMENT PARA USE32 PUBLIC 'CODE'
_TEXT	ENDS
;	COMDAT ??_G_com_error@@UAEPAXI@Z
_TEXT	SEGMENT PARA USE32 PUBLIC 'CODE'
_TEXT	ENDS
;	COMDAT ??0_com_error@@QAE@ABV0@@Z
_TEXT	SEGMENT PARA USE32 PUBLIC 'CODE'
_TEXT	ENDS
;	COMDAT ??1_com_error@@UAE@XZ
_TEXT	SEGMENT PARA USE32 PUBLIC 'CODE'
_TEXT	ENDS
;	COMDAT ?WCode@_com_error@@QBEGXZ
_TEXT	SEGMENT PARA USE32 PUBLIC 'CODE'
_TEXT	ENDS
;	COMDAT ?HRESULTToWCode@_com_error@@SAGJ@Z
_TEXT	SEGMENT PARA USE32 PUBLIC 'CODE'
_TEXT	ENDS
;	COMDAT ?iswhite@@YAHG@Z
_TEXT	SEGMENT PARA USE32 PUBLIC 'CODE'
_TEXT	ENDS
;	COMDAT ?isdelim@@YAHG@Z
_TEXT	SEGMENT PARA USE32 PUBLIC 'CODE'
_TEXT	ENDS
;	COMDAT ?IsComposibleTh@@YA_NEEH@Z
_TEXT	SEGMENT PARA USE32 PUBLIC 'CODE'
_TEXT	ENDS
;	COMDAT ?CharNextTh@@YAPBDPBD@Z
_TEXT	SEGMENT PARA USE32 PUBLIC 'CODE'
_TEXT	ENDS
;	COMDAT ?CharNextVt@@YAPBDPBD@Z
_TEXT	SEGMENT PARA USE32 PUBLIC 'CODE'
_TEXT	ENDS
;	COMDAT ?CharNextEx@@YAPBDPBDG@Z
_TEXT	SEGMENT PARA USE32 PUBLIC 'CODE'
_TEXT	ENDS
;	COMDAT ?IsTone@@YAHG@Z
_TEXT	SEGMENT PARA USE32 PUBLIC 'CODE'
_TEXT	ENDS
;	COMDAT ?ComposeTone@@YAGGH@Z
_TEXT	SEGMENT PARA USE32 PUBLIC 'CODE'
_TEXT	ENDS
;	COMDAT ?GetTone@@YA_NGPAH0@Z
_TEXT	SEGMENT PARA USE32 PUBLIC 'CODE'
_TEXT	ENDS
;	COMDAT ?ComposeString@@YAXPAG0H@Z
_TEXT	SEGMENT PARA USE32 PUBLIC 'CODE'
_TEXT	ENDS
;	COMDAT ?DecomposeString@@YAXPAG0H@Z
_TEXT	SEGMENT PARA USE32 PUBLIC 'CODE'
_TEXT	ENDS
;	COMDAT ?IsCyrillic@@YAHD@Z
_TEXT	SEGMENT PARA USE32 PUBLIC 'CODE'
_TEXT	ENDS
;	COMDAT ?WideCharToMultiByteEx@@YAHIKPBGHPADHPBDPAH@Z
_TEXT	SEGMENT PARA USE32 PUBLIC 'CODE'
_TEXT	ENDS
;	COMDAT ?MultiByteToWideCharEx@@YAHIKPBDHPAGH@Z
_TEXT	SEGMENT PARA USE32 PUBLIC 'CODE'
_TEXT	ENDS
;	COMDAT ??0CScanner@@QAE@H@Z
_TEXT	SEGMENT PARA USE32 PUBLIC 'CODE'
_TEXT	ENDS
;	COMDAT ??_GCScanner@@UAEPAXI@Z
_TEXT	SEGMENT PARA USE32 PUBLIC 'CODE'
_TEXT	ENDS
;	COMDAT ??0CScanner@@QAE@PAXH@Z
_TEXT	SEGMENT PARA USE32 PUBLIC 'CODE'
_TEXT	ENDS
;	COMDAT ??1CScanner@@UAE@XZ
_TEXT	SEGMENT PARA USE32 PUBLIC 'CODE'
_TEXT	ENDS
;	COMDAT ?Free@CScanner@@QAEXXZ
_TEXT	SEGMENT PARA USE32 PUBLIC 'CODE'
_TEXT	ENDS
;	COMDAT ?Read@CScanner@@IAEHPAVCFileIO@@H@Z
_TEXT	SEGMENT PARA USE32 PUBLIC 'CODE'
_TEXT	ENDS
;	COMDAT ?Load@CScanner@@QAEHPBDH@Z
_TEXT	SEGMENT PARA USE32 PUBLIC 'CODE'
_TEXT	ENDS
;	COMDAT ?Load_FileIO@CScanner@@QAEHPBDH@Z
_TEXT	SEGMENT PARA USE32 PUBLIC 'CODE'
_TEXT	ENDS
;	COMDAT ?SetProg@CScanner@@QAEXPAX@Z
_TEXT	SEGMENT PARA USE32 PUBLIC 'CODE'
_TEXT	ENDS
;	COMDAT ?GetLineNum@CScanner@@UAEHPAX@Z
_TEXT	SEGMENT PARA USE32 PUBLIC 'CODE'
_TEXT	ENDS
;	COMDAT ?GetLastFull@CScanner@@QAEXXZ
_TEXT	SEGMENT PARA USE32 PUBLIC 'CODE'
_TEXT	ENDS
;	COMDAT ?GetToken@CScanner@@UAEHH@Z
_TEXT	SEGMENT PARA USE32 PUBLIC 'CODE'
_TEXT	ENDS
;	COMDAT ?GetNumber@CScanner@@QAEHH@Z
_TEXT	SEGMENT PARA USE32 PUBLIC 'CODE'
_TEXT	ENDS
;	COMDAT ?GetInt64@CScanner@@QAE_JH@Z
_TEXT	SEGMENT PARA USE32 PUBLIC 'CODE'
_TEXT	ENDS
;	COMDAT ?GetFloat@CScanner@@QAEMH@Z
_TEXT	SEGMENT PARA USE32 PUBLIC 'CODE'
_TEXT	ENDS
;	COMDAT ?GetHex@CScanner@@QAEKH@Z
_TEXT	SEGMENT PARA USE32 PUBLIC 'CODE'
_TEXT	ENDS
;	COMDAT ?PutBack@CScanner@@UAEXXZ
_TEXT	SEGMENT PARA USE32 PUBLIC 'CODE'
_TEXT	ENDS
;	COMDAT ?GetSerialNumber@CScanner@@QAEKH@Z
_TEXT	SEGMENT PARA USE32 PUBLIC 'CODE'
_TEXT	ENDS
;	COMDAT ?MakeLower@?$CStringT@DV?$StrTraitMFC@DV?$ChTraitsCRT@D@ATL@@@@@ATL@@QAEAAV12@XZ
_TEXT	SEGMENT PARA USE32 PUBLIC 'CODE'
_TEXT	ENDS
;	COMDAT ?Format@?$CStringT@DV?$StrTraitMFC@DV?$ChTraitsCRT@D@ATL@@@@@ATL@@QAAXPBDZZ
_TEXT	SEGMENT PARA USE32 PUBLIC 'CODE'
_TEXT	ENDS
;	COMDAT ??A?$CSimpleStringT@D$0A@@ATL@@QBEDH@Z
_TEXT	SEGMENT PARA USE32 PUBLIC 'CODE'
_TEXT	ENDS
;	COMDAT ?IsEmpty@?$CSimpleStringT@D$0A@@ATL@@QBE_NXZ
_TEXT	SEGMENT PARA USE32 PUBLIC 'CODE'
_TEXT	ENDS
;	COMDAT ?compare@?$basic_string@DU?$char_traits@D@std@@V?$allocator@D@2@@std@@QBEHABV12@@Z
_TEXT	SEGMENT PARA USE32 PUBLIC 'CODE'
_TEXT	ENDS
;	COMDAT ?FormatV@?$CStringT@DV?$StrTraitMFC@DV?$ChTraitsCRT@D@ATL@@@@@ATL@@QAEXPBDPAD@Z
_TEXT	SEGMENT PARA USE32 PUBLIC 'CODE'
_TEXT	ENDS
;	COMDAT ?StringLowercase@?$ChTraitsCRT@D@ATL@@SAPADPAD@Z
_TEXT	SEGMENT PARA USE32 PUBLIC 'CODE'
_TEXT	ENDS
;	COMDAT ?compare@?$basic_string@DU?$char_traits@D@std@@V?$allocator@D@2@@std@@QBEHIIPBDI@Z
_TEXT	SEGMENT PARA USE32 PUBLIC 'CODE'
_TEXT	ENDS
;	COMDAT ??$_Iter_cat@Viterator@?$_Tree@V?$_Tmap_traits@KU_Friend@@U?$less@K@std@@V?$allocator@U?$pair@$$CBKU_Friend@@@std@@@3@$0A@@std@@@std@@@std@@YA?AUbidirectional_iterator_tag@0@ABViterator@?$_Tree@V?$_Tmap_traits@KU_Friend@@U?$less@K@std@@V?$allocator@U?$pair@$$CBKU_Friend@@@std@@@3@$0A@@std@@@0@@Z
_TEXT	SEGMENT PARA USE32 PUBLIC 'CODE'
_TEXT	ENDS
;	COMDAT ??$_Distance2@Viterator@?$_Tree@V?$_Tmap_traits@KU_Friend@@U?$less@K@std@@V?$allocator@U?$pair@$$CBKU_Friend@@@std@@@3@$0A@@std@@@std@@I@std@@YAXViterator@?$_Tree@V?$_Tmap_traits@KU_Friend@@U?$less@K@std@@V?$allocator@U?$pair@$$CBKU_Friend@@@std@@@3@$0A@@std@@@0@0AAIUbidirectional_iterator_tag@0@@Z
_TEXT	SEGMENT PARA USE32 PUBLIC 'CODE'
_TEXT	ENDS
;	COMDAT ??$_Copy_opt@PAJPAJ@std@@YAPAJPAJ00U_Scalar_ptr_iterator_tag@0@@Z
_TEXT	SEGMENT PARA USE32 PUBLIC 'CODE'
_TEXT	ENDS
;	COMDAT ??$_Uninitialized_copy@PAJPAJV?$allocator@J@std@@@std@@YAPAJPAJ00AAV?$allocator@J@0@@Z
_TEXT	SEGMENT PARA USE32 PUBLIC 'CODE'
_TEXT	ENDS
;	COMDAT ??$_Copy_backward_opt@PAJPAJ@std@@YAPAJPAJ00U_Scalar_ptr_iterator_tag@0@@Z
_TEXT	SEGMENT PARA USE32 PUBLIC 'CODE'
_TEXT	ENDS
;	COMDAT ??$_Ptr_cat@PAUtagDROPITEM@@PAU1@@std@@YA?AU_Nonscalar_ptr_iterator_tag@0@AAPAUtagDROPITEM@@0@Z
_TEXT	SEGMENT PARA USE32 PUBLIC 'CODE'
_TEXT	ENDS
;	COMDAT ??$_Destroy_range@UtagDROPITEM@@V?$allocator@UtagDROPITEM@@@std@@@std@@YAXPAUtagDROPITEM@@0AAV?$allocator@UtagDROPITEM@@@0@U_Nonscalar_ptr_iterator_tag@0@@Z
_TEXT	SEGMENT PARA USE32 PUBLIC 'CODE'
_TEXT	ENDS
;	COMDAT ??$_Destroy_range@KV?$allocator@K@std@@@std@@YAXPAK0AAV?$allocator@K@0@U_Scalar_ptr_iterator_tag@0@@Z
_TEXT	SEGMENT PARA USE32 PUBLIC 'CODE'
_TEXT	ENDS
;	COMDAT ??$_Destroy_range@JV?$allocator@J@std@@@std@@YAXPAJ0AAV?$allocator@J@0@U_Scalar_ptr_iterator_tag@0@@Z
_TEXT	SEGMENT PARA USE32 PUBLIC 'CODE'
_TEXT	ENDS
;	COMDAT ??$_Uninit_fill_n@JIJ@std@@YAXPAJIABJAAV?$allocator@J@0@U_Scalar_ptr_iterator_tag@0@@Z
_TEXT	SEGMENT PARA USE32 PUBLIC 'CODE'
_TEXT	ENDS
;	COMDAT ?destroy@?$allocator@UtagDROPITEM@@@std@@QAEXPAUtagDROPITEM@@@Z
_TEXT	SEGMENT PARA USE32 PUBLIC 'CODE'
_TEXT	ENDS
;	COMDAT ??$_Uninit_copy@JJ@std@@YAPAJPAJ00AAV?$allocator@J@0@U_Scalar_ptr_iterator_tag@0@@Z
_TEXT	SEGMENT PARA USE32 PUBLIC 'CODE'
_TEXT	ENDS
;	COMDAT ??$fill_n@PAJIJ@std@@YAXPAJIABJ@Z
_TEXT	SEGMENT PARA USE32 PUBLIC 'CODE'
_TEXT	ENDS
;	COMDAT ??$_Destroy@UtagDROPITEM@@@std@@YAXPAUtagDROPITEM@@@Z
_TEXT	SEGMENT PARA USE32 PUBLIC 'CODE'
_TEXT	ENDS
;	COMDAT ?GoMark@CScanner@@UAEXXZ
_TEXT	SEGMENT PARA USE32 PUBLIC 'CODE'
_TEXT	ENDS
;	COMDAT ?SetMark@CScanner@@UAEXXZ
_TEXT	SEGMENT PARA USE32 PUBLIC 'CODE'
_TEXT	ENDS
;	COMDAT ?_Ptr_cat@std@@YA?AU_Scalar_ptr_iterator_tag@1@PAJ0@Z
_TEXT	SEGMENT PARA USE32 PUBLIC 'CODE'
_TEXT	ENDS
;	COMDAT ??9const_iterator@?$_Tree@V?$_Tmap_traits@KU_Friend@@U?$less@K@std@@V?$allocator@U?$pair@$$CBKU_Friend@@@std@@@3@$0A@@std@@@std@@QBE_NABV012@@Z
_TEXT	SEGMENT PARA USE32 PUBLIC 'CODE'
_TEXT	ENDS
;	COMDAT ??8const_iterator@?$_Tree@V?$_Tmap_traits@KU_Friend@@U?$less@K@std@@V?$allocator@U?$pair@$$CBKU_Friend@@@std@@@3@$0A@@std@@@std@@QBE_NABV012@@Z
_TEXT	SEGMENT PARA USE32 PUBLIC 'CODE'
_TEXT	ENDS
;	COMDAT ??Eiterator@?$_Tree@V?$_Tmap_traits@KU_Friend@@U?$less@K@std@@V?$allocator@U?$pair@$$CBKU_Friend@@@std@@@3@$0A@@std@@@std@@QAEAAV012@XZ
_TEXT	SEGMENT PARA USE32 PUBLIC 'CODE'
_TEXT	ENDS
;	COMDAT ??Econst_iterator@?$_Tree@V?$_Tmap_traits@KU_Friend@@U?$less@K@std@@V?$allocator@U?$pair@$$CBKU_Friend@@@std@@@3@$0A@@std@@@std@@QAEAAV012@XZ
_TEXT	SEGMENT PARA USE32 PUBLIC 'CODE'
_TEXT	ENDS
;	COMDAT ?_Inc@const_iterator@?$_Tree@V?$_Tmap_traits@KU_Friend@@U?$less@K@std@@V?$allocator@U?$pair@$$CBKU_Friend@@@std@@@3@$0A@@std@@@std@@QAEXXZ
_TEXT	SEGMENT PARA USE32 PUBLIC 'CODE'
_TEXT	ENDS
;	COMDAT ?_Min@?$_Tree@V?$_Tmap_traits@KU_Friend@@U?$less@K@std@@V?$allocator@U?$pair@$$CBKU_Friend@@@std@@@3@$0A@@std@@@std@@KAPAU_Node@?$_Tree_nod@V?$_Tmap_traits@KU_Friend@@U?$less@K@std@@V?$allocator@U?$pair@$$CBKU_Friend@@@std@@@3@$0A@@std@@@2@PAU342@@Z
_TEXT	SEGMENT PARA USE32 PUBLIC 'CODE'
_TEXT	ENDS
;	COMDAT ?_Left@?$_Tree@V?$_Tmap_traits@KU_Friend@@U?$less@K@std@@V?$allocator@U?$pair@$$CBKU_Friend@@@std@@@3@$0A@@std@@@std@@KAAAPAU_Node@?$_Tree_nod@V?$_Tmap_traits@KU_Friend@@U?$less@K@std@@V?$allocator@U?$pair@$$CBKU_Friend@@@std@@@3@$0A@@std@@@2@PAU342@@Z
_TEXT	SEGMENT PARA USE32 PUBLIC 'CODE'
_TEXT	ENDS
;	COMDAT ?_Isnil@?$_Tree@V?$_Tmap_traits@KU_Friend@@U?$less@K@std@@V?$allocator@U?$pair@$$CBKU_Friend@@@std@@@3@$0A@@std@@@std@@KAAADPAU_Node@?$_Tree_nod@V?$_Tmap_traits@KU_Friend@@U?$less@K@std@@V?$allocator@U?$pair@$$CBKU_Friend@@@std@@@3@$0A@@std@@@2@@Z
_TEXT	SEGMENT PARA USE32 PUBLIC 'CODE'
_TEXT	ENDS
;	COMDAT ?_Parent@?$_Tree@V?$_Tmap_traits@KU_Friend@@U?$less@K@std@@V?$allocator@U?$pair@$$CBKU_Friend@@@std@@@3@$0A@@std@@@std@@KAAAPAU_Node@?$_Tree_nod@V?$_Tmap_traits@KU_Friend@@U?$less@K@std@@V?$allocator@U?$pair@$$CBKU_Friend@@@std@@@3@$0A@@std@@@2@PAU342@@Z
_TEXT	SEGMENT PARA USE32 PUBLIC 'CODE'
_TEXT	ENDS
;	COMDAT ?_Right@?$_Tree@V?$_Tmap_traits@KU_Friend@@U?$less@K@std@@V?$allocator@U?$pair@$$CBKU_Friend@@@std@@@3@$0A@@std@@@std@@KAAAPAU_Node@?$_Tree_nod@V?$_Tmap_traits@KU_Friend@@U?$less@K@std@@V?$allocator@U?$pair@$$CBKU_Friend@@@std@@@3@$0A@@std@@@2@PAU342@@Z
_TEXT	SEGMENT PARA USE32 PUBLIC 'CODE'
_TEXT	ENDS
;	COMDAT ?_Psave@?$_Facetptr@V?$ctype@G@std@@@std@@2PBVfacet@locale@2@B
_DATA	SEGMENT DWORD USE32 PUBLIC 'DATA'
_DATA	ENDS
;	COMDAT ?_Psave@?$_Facetptr@V?$ctype@D@std@@@std@@2PBVfacet@locale@2@B
_DATA	SEGMENT DWORD USE32 PUBLIC 'DATA'
_DATA	ENDS
;	COMDAT ?compare@?$char_traits@D@std@@SAHPBD0I@Z
_TEXT	SEGMENT PARA USE32 PUBLIC 'CODE'
_TEXT	ENDS
;	COMDAT ?Format@?$ChTraitsCRT@D@ATL@@SAHPADPBD0@Z
_TEXT	SEGMENT PARA USE32 PUBLIC 'CODE'
_TEXT	ENDS
;	COMDAT ?GetFormattedLength@?$ChTraitsCRT@D@ATL@@SAHPBDPAD@Z
_TEXT	SEGMENT PARA USE32 PUBLIC 'CODE'
_TEXT	ENDS
;	COMDAT ?_Myptr@?$basic_string@DU?$char_traits@D@std@@V?$allocator@D@2@@std@@QBEPBDXZ
_TEXT	SEGMENT PARA USE32 PUBLIC 'CODE'
_TEXT	ENDS
;	COMDAT ?size@?$basic_string@DU?$char_traits@D@std@@V?$allocator@D@2@@std@@QBEIXZ
_TEXT	SEGMENT PARA USE32 PUBLIC 'CODE'
_TEXT	ENDS
;	COMDAT ?AtlThrow@ATL@@YGXJ@Z
_TEXT	SEGMENT PARA USE32 PUBLIC 'CODE'
_TEXT	ENDS
;	COMDAT ?ReleaseBufferSetLength@?$CSimpleStringT@D$0A@@ATL@@QAEXH@Z
_TEXT	SEGMENT PARA USE32 PUBLIC 'CODE'
_TEXT	ENDS
;	COMDAT ?SetLength@?$CSimpleStringT@D$0A@@ATL@@AAEXH@Z
_TEXT	SEGMENT PARA USE32 PUBLIC 'CODE'
_TEXT	ENDS
;	COMDAT ?GetData@?$CSimpleStringT@D$0A@@ATL@@ABEPAUCStringData@2@XZ
_TEXT	SEGMENT PARA USE32 PUBLIC 'CODE'
_TEXT	ENDS
;	COMDAT ?GetBuffer@?$CSimpleStringT@D$0A@@ATL@@QAEPADH@Z
_TEXT	SEGMENT PARA USE32 PUBLIC 'CODE'
_TEXT	ENDS
;	COMDAT ?PrepareWrite@?$CSimpleStringT@D$0A@@ATL@@AAEPADH@Z
_TEXT	SEGMENT PARA USE32 PUBLIC 'CODE'
_TEXT	ENDS
;	COMDAT ?PrepareWrite2@?$CSimpleStringT@D$0A@@ATL@@AAEXH@Z
_TEXT	SEGMENT PARA USE32 PUBLIC 'CODE'
_TEXT	ENDS
;	COMDAT ?IsShared@CStringData@ATL@@QBE_NXZ
_TEXT	SEGMENT PARA USE32 PUBLIC 'CODE'
_TEXT	ENDS
;	COMDAT ?Fork@?$CSimpleStringT@D$0A@@ATL@@AAEXH@Z
_TEXT	SEGMENT PARA USE32 PUBLIC 'CODE'
_TEXT	ENDS
;	COMDAT ?ThrowMemoryException@?$CSimpleStringT@D$0A@@ATL@@KAXXZ
_TEXT	SEGMENT PARA USE32 PUBLIC 'CODE'
_TEXT	ENDS
;	COMDAT ?CopyChars@?$CSimpleStringT@D$0A@@ATL@@SAXPADPBDH@Z
_TEXT	SEGMENT PARA USE32 PUBLIC 'CODE'
_TEXT	ENDS
;	COMDAT ?data@CStringData@ATL@@QAEPAXXZ
_TEXT	SEGMENT PARA USE32 PUBLIC 'CODE'
_TEXT	ENDS
;	COMDAT ?Release@CStringData@ATL@@QAEXXZ
_TEXT	SEGMENT PARA USE32 PUBLIC 'CODE'
_TEXT	ENDS
;	COMDAT ?Attach@?$CSimpleStringT@D$0A@@ATL@@AAEXPAUCStringData@2@@Z
_TEXT	SEGMENT PARA USE32 PUBLIC 'CODE'
_TEXT	ENDS
;	COMDAT ?Reallocate@?$CSimpleStringT@D$0A@@ATL@@AAEXH@Z
_TEXT	SEGMENT PARA USE32 PUBLIC 'CODE'
_TEXT	ENDS
;	COMDAT ?GetLength@?$CSimpleStringT@D$0A@@ATL@@QBEHXZ
_TEXT	SEGMENT PARA USE32 PUBLIC 'CODE'
_TEXT	ENDS
;	COMDAT ??B?$CSimpleStringT@D$0A@@ATL@@QBEPBDXZ
_TEXT	SEGMENT PARA USE32 PUBLIC 'CODE'
_TEXT	ENDS
;	COMDAT ?isdigit2@@YAHD@Z
_TEXT	SEGMENT PARA USE32 PUBLIC 'CODE'
_TEXT	ENDS
;	COMDAT ??4?$CStringT@DV?$StrTraitMFC@DV?$ChTraitsCRT@D@ATL@@@@@ATL@@QAEAAV01@PBD@Z
_TEXT	SEGMENT PARA USE32 PUBLIC 'CODE'
_TEXT	ENDS
;	COMDAT ??4?$CSimpleStringT@D$0A@@ATL@@QAEAAV01@PBD@Z
_TEXT	SEGMENT PARA USE32 PUBLIC 'CODE'
_TEXT	ENDS
;	COMDAT ?SetString@?$CSimpleStringT@D$0A@@ATL@@QAEXPBD@Z
_TEXT	SEGMENT PARA USE32 PUBLIC 'CODE'
_TEXT	ENDS
;	COMDAT ?SetString@?$CSimpleStringT@D$0A@@ATL@@QAEXPBDH@Z
_TEXT	SEGMENT PARA USE32 PUBLIC 'CODE'
_TEXT	ENDS
;	COMDAT ?Empty@?$CSimpleStringT@D$0A@@ATL@@QAEXXZ
_TEXT	SEGMENT PARA USE32 PUBLIC 'CODE'
_TEXT	ENDS
;	COMDAT ?IsLocked@CStringData@ATL@@QBE_NXZ
_TEXT	SEGMENT PARA USE32 PUBLIC 'CODE'
_TEXT	ENDS
;	COMDAT ?GetString@?$CSimpleStringT@D$0A@@ATL@@QBEPBDXZ
_TEXT	SEGMENT PARA USE32 PUBLIC 'CODE'
_TEXT	ENDS
;	COMDAT ?CopyCharsOverlapped@?$CSimpleStringT@D$0A@@ATL@@SAXPADPBDH@Z
_TEXT	SEGMENT PARA USE32 PUBLIC 'CODE'
_TEXT	ENDS
;	COMDAT ?StringLength@?$CSimpleStringT@D$0A@@ATL@@SAHPBD@Z
_TEXT	SEGMENT PARA USE32 PUBLIC 'CODE'
_TEXT	ENDS
;	COMDAT ??0?$CStringT@DV?$StrTraitMFC@DV?$ChTraitsCRT@D@ATL@@@@@ATL@@QAE@PBD@Z
_TEXT	SEGMENT PARA USE32 PUBLIC 'CODE'
_TEXT	ENDS
;	COMDAT ??0?$CSimpleStringT@D$0A@@ATL@@QAE@PAUIAtlStringMgr@1@@Z
_TEXT	SEGMENT PARA USE32 PUBLIC 'CODE'
_TEXT	ENDS
;	COMDAT ?GetDefaultManager@?$StrTraitMFC@DV?$ChTraitsCRT@D@ATL@@@@SAPAUIAtlStringMgr@ATL@@XZ
_TEXT	SEGMENT PARA USE32 PUBLIC 'CODE'
_TEXT	ENDS
;	COMDAT ??1?$CSimpleStringT@D$0A@@ATL@@QAE@XZ
_TEXT	SEGMENT PARA USE32 PUBLIC 'CODE'
_TEXT	ENDS
;	COMDAT ?CheckImplicitLoad@?$CStringT@DV?$StrTraitMFC@DV?$ChTraitsCRT@D@ATL@@@@@ATL@@AAE_NPBX@Z
_TEXT	SEGMENT PARA USE32 PUBLIC 'CODE'
_TEXT	ENDS
;	COMDAT ?LoadStringA@?$CStringT@DV?$StrTraitMFC@DV?$ChTraitsCRT@D@ATL@@@@@ATL@@QAEHI@Z
_TEXT	SEGMENT PARA USE32 PUBLIC 'CODE'
_TEXT	ENDS
;	COMDAT ?FindStringResourceInstance@?$StrTraitMFC@DV?$ChTraitsCRT@D@ATL@@@@SAPAUHINSTANCE__@@I@Z
_TEXT	SEGMENT PARA USE32 PUBLIC 'CODE'
_TEXT	ENDS
;	COMDAT ?LoadStringA@?$CStringT@DV?$StrTraitMFC@DV?$ChTraitsCRT@D@ATL@@@@@ATL@@QAEHPAUHINSTANCE__@@I@Z
_TEXT	SEGMENT PARA USE32 PUBLIC 'CODE'
_TEXT	ENDS
;	COMDAT ?AtlGetStringResourceImage@ATL@@YAPBUATLSTRINGRESOURCEIMAGE@1@PAUHINSTANCE__@@I@Z
_TEXT	SEGMENT PARA USE32 PUBLIC 'CODE'
_TEXT	ENDS
;	COMDAT ?_AtlGetStringResourceImage@ATL@@YAPBUATLSTRINGRESOURCEIMAGE@1@PAUHINSTANCE__@@PAUHRSRC__@@I@Z
_TEXT	SEGMENT PARA USE32 PUBLIC 'CODE'
_TEXT	ENDS
;	COMDAT ?GetBaseTypeLength@?$ChTraitsCRT@D@ATL@@SAHPBGH@Z
_TEXT	SEGMENT PARA USE32 PUBLIC 'CODE'
_TEXT	ENDS
;	COMDAT ?_AtlGetConversionACP@ATL@@YGIXZ
_TEXT	SEGMENT PARA USE32 PUBLIC 'CODE'
_TEXT	ENDS
;	COMDAT ?g_pfnGetThreadACP@ATL@@3P6GIXZA
_DATA	SEGMENT DWORD USE32 PUBLIC 'DATA'
_DATA	ENDS
;	COMDAT ?_AtlGetThreadACPThunk@ATL@@YGIXZ
_TEXT	SEGMENT PARA USE32 PUBLIC 'CODE'
_TEXT	ENDS
;	COMDAT ?_AtlGetThreadACPReal@ATL@@YGIXZ
_TEXT	SEGMENT PARA USE32 PUBLIC 'CODE'
_TEXT	ENDS
;	COMDAT ?_AtlGetThreadACPFake@ATL@@YGIXZ
_TEXT	SEGMENT PARA USE32 PUBLIC 'CODE'
_TEXT	ENDS
;	COMDAT ?InterlockedExchangePointer@@YGPAXPAPAXPAX@Z
_TEXT	SEGMENT PARA USE32 PUBLIC 'CODE'
_TEXT	ENDS
;	COMDAT ?ConvertToBaseType@?$ChTraitsCRT@D@ATL@@SAXPADHPBGH@Z
_TEXT	SEGMENT PARA USE32 PUBLIC 'CODE'
_TEXT	ENDS
;	COMDAT ??1CFileIO@@UAE@XZ
_TEXT	SEGMENT PARA USE32 PUBLIC 'CODE'
_TEXT	ENDS
;	COMDAT ??_7CFileIO@@6B@
CONST	SEGMENT DWORD USE32 PUBLIC 'CONST'
CONST	ENDS
;	COMDAT ??_GCFileIO@@UAEPAXI@Z
_TEXT	SEGMENT PARA USE32 PUBLIC 'CODE'
_TEXT	ENDS
;	COMDAT ?Flush@CFileIO@@UAEHXZ
_TEXT	SEGMENT PARA USE32 PUBLIC 'CODE'
_TEXT	ENDS
;	COMDAT ?GetC@CFileIO@@UAEDXZ
_TEXT	SEGMENT PARA USE32 PUBLIC 'CODE'
_TEXT	ENDS
;	COMDAT ?GetW@CFileIO@@UAEGXZ
_TEXT	SEGMENT PARA USE32 PUBLIC 'CODE'
_TEXT	ENDS
;	COMDAT ?GetDW@CFileIO@@UAEKXZ
_TEXT	SEGMENT PARA USE32 PUBLIC 'CODE'
_TEXT	ENDS
;	COMDAT ?Tell@CFileIO@@UAEJXZ
_TEXT	SEGMENT PARA USE32 PUBLIC 'CODE'
_TEXT	ENDS
;	COMDAT ?Seek@CFileIO@@UAEHJH@Z
_TEXT	SEGMENT PARA USE32 PUBLIC 'CODE'
_TEXT	ENDS
;	COMDAT ?GetLength@CFileIO@@UAEJXZ
_TEXT	SEGMENT PARA USE32 PUBLIC 'CODE'
_TEXT	ENDS
;	COMDAT ?Handle@CFileIO@@QAEHXZ
_TEXT	SEGMENT PARA USE32 PUBLIC 'CODE'
_TEXT	ENDS
;	COMDAT ?Read@CFileIO@@UAEIPAXII@Z
_TEXT	SEGMENT PARA USE32 PUBLIC 'CODE'
_TEXT	ENDS
;	COMDAT ??0CFileIO@@QAE@XZ
_TEXT	SEGMENT PARA USE32 PUBLIC 'CODE'
_TEXT	ENDS
;	COMDAT ??1?$CStringT@DV?$StrTraitMFC@DV?$ChTraitsCRT@D@ATL@@@@@ATL@@QAE@XZ
_TEXT	SEGMENT PARA USE32 PUBLIC 'CODE'
_TEXT	ENDS
;	COMDAT ??0?$CStringT@DV?$StrTraitMFC@DV?$ChTraitsCRT@D@ATL@@@@@ATL@@QAE@XZ
_TEXT	SEGMENT PARA USE32 PUBLIC 'CODE'
_TEXT	ENDS
;	COMDAT ??_7CScanner@@6B@
CONST	SEGMENT DWORD USE32 PUBLIC 'CONST'
CONST	ENDS
;	COMDAT ?bCyrill@?3??IsCyrillic@@YAHD@Z@4PAHA
_DATA	SEGMENT DWORD USE32 PUBLIC 'DATA'
_DATA	ENDS
;	COMDAT __GUID_00000000_0000_0000_0000_000000000000
CONST	SEGMENT DWORD USE32 PUBLIC 'CONST'
CONST	ENDS
;	COMDAT ??_7_com_error@@6B@
CONST	SEGMENT DWORD USE32 PUBLIC 'CONST'
CONST	ENDS
sxdata	SEGMENT DWORD USE32 'SXDATA'
sxdata	ENDS
FLAT	GROUP _DATA, CONST, _BSS
	ASSUME	CS: FLAT, DS: FLAT, SS: FLAT
endif

INCLUDELIB LIBCMT
INCLUDELIB OLDNAMES

PUBLIC	?STATE_CHECK@OUTPUT@THAI@@3PAY0BB@W4TYPE@12@A	; THAI::OUTPUT::STATE_CHECK
PUBLIC	?wVTNToneChar@VTN@@3PAY05GA			; VTN::wVTNToneChar
PUBLIC	?wVTNCombiningDia@VTN@@3PAGA			; VTN::wVTNCombiningDia
PUBLIC	?g_codePage@@3GA				; g_codePage
PUBLIC	?g_pfnGetThreadACP@ATL@@3P6GIXZA		; ATL::g_pfnGetThreadACP
PUBLIC	?_AtlGetThreadACPThunk@ATL@@YGIXZ		; ATL::_AtlGetThreadACPThunk
PUBLIC	?CLASS_TABLE@THAI@@3PAW4CLASS@1@A		; THAI::CLASS_TABLE
PUBLIC	?COMPOSIBLE@INPUT@THAI@@3PAY04_NA		; THAI::INPUT::COMPOSIBLE
PUBLIC	?STATE_CHECK@INPUT@THAI@@3PAY0BB@W4TYPE@12@A	; THAI::INPUT::STATE_CHECK
_BSS	SEGMENT
?g_codePage@@3GA DW 01H DUP (?)				; g_codePage
_BSS	ENDS
_DATA	SEGMENT
?CLASS_TABLE@THAI@@3PAW4CLASS@1@A DD 00H		; THAI::CLASS_TABLE
	DD	00H
	DD	00H
	DD	00H
	DD	00H
	DD	00H
	DD	00H
	DD	00H
	DD	00H
	DD	00H
	DD	00H
	DD	00H
	DD	00H
	DD	00H
	DD	00H
	DD	00H
	DD	00H
	DD	00H
	DD	00H
	DD	00H
	DD	00H
	DD	00H
	DD	00H
	DD	00H
	DD	00H
	DD	00H
	DD	00H
	DD	00H
	DD	00H
	DD	00H
	DD	00H
	DD	00H
	DD	01H
	DD	01H
	DD	01H
	DD	01H
	DD	01H
	DD	01H
	DD	01H
	DD	01H
	DD	01H
	DD	01H
	DD	01H
	DD	01H
	DD	01H
	DD	01H
	DD	01H
	DD	01H
	DD	01H
	DD	01H
	DD	01H
	DD	01H
	DD	01H
	DD	01H
	DD	01H
	DD	01H
	DD	01H
	DD	01H
	DD	01H
	DD	01H
	DD	01H
	DD	01H
	DD	01H
	DD	01H
	DD	01H
	DD	01H
	DD	01H
	DD	01H
	DD	01H
	DD	01H
	DD	01H
	DD	01H
	DD	01H
	DD	01H
	DD	01H
	DD	01H
	DD	01H
	DD	01H
	DD	01H
	DD	01H
	DD	01H
	DD	01H
	DD	01H
	DD	01H
	DD	01H
	DD	01H
	DD	01H
	DD	01H
	DD	01H
	DD	01H
	DD	01H
	DD	01H
	DD	01H
	DD	01H
	DD	01H
	DD	01H
	DD	01H
	DD	01H
	DD	01H
	DD	01H
	DD	01H
	DD	01H
	DD	01H
	DD	01H
	DD	01H
	DD	01H
	DD	01H
	DD	01H
	DD	01H
	DD	01H
	DD	01H
	DD	01H
	DD	01H
	DD	01H
	DD	01H
	DD	01H
	DD	01H
	DD	01H
	DD	01H
	DD	01H
	DD	01H
	DD	01H
	DD	01H
	DD	01H
	DD	01H
	DD	01H
	DD	01H
	DD	00H
	DD	00H
	DD	00H
	DD	00H
	DD	00H
	DD	00H
	DD	00H
	DD	00H
	DD	00H
	DD	00H
	DD	00H
	DD	00H
	DD	00H
	DD	00H
	DD	00H
	DD	00H
	DD	00H
	DD	00H
	DD	00H
	DD	00H
	DD	00H
	DD	00H
	DD	00H
	DD	00H
	DD	00H
	DD	00H
	DD	00H
	DD	00H
	DD	00H
	DD	00H
	DD	00H
	DD	00H
	DD	00H
	DD	01H
	DD	02H
	DD	02H
	DD	02H
	DD	02H
	DD	02H
	DD	02H
	DD	02H
	DD	02H
	DD	02H
	DD	02H
	DD	02H
	DD	02H
	DD	02H
	DD	02H
	DD	02H
	DD	02H
	DD	02H
	DD	02H
	DD	02H
	DD	02H
	DD	02H
	DD	02H
	DD	02H
	DD	02H
	DD	02H
	DD	02H
	DD	02H
	DD	02H
	DD	02H
	DD	02H
	DD	02H
	DD	02H
	DD	02H
	DD	02H
	DD	02H
	DD	06H
	DD	02H
	DD	06H
	DD	02H
	DD	02H
	DD	02H
	DD	02H
	DD	02H
	DD	02H
	DD	02H
	DD	02H
	DD	01H
	DD	04H
	DD	0fH
	DD	04H
	DD	04H
	DD	0eH
	DD	010H
	DD	0fH
	DD	010H
	DD	07H
	DD	08H
	DD	09H
	DD	01H
	DD	01H
	DD	01H
	DD	01H
	DD	01H
	DD	03H
	DD	03H
	DD	03H
	DD	03H
	DD	03H
	DD	05H
	DD	01H
	DD	0cH
	DD	0aH
	DD	0aH
	DD	0aH
	DD	0aH
	DD	0bH
	DD	0bH
	DD	0dH
	DD	01H
	DD	01H
	DD	01H
	DD	01H
	DD	01H
	DD	01H
	DD	01H
	DD	01H
	DD	01H
	DD	01H
	DD	01H
	DD	01H
	DD	01H
	DD	01H
	DD	01H
	DD	01H
	DD	00H
?COMPOSIBLE@INPUT@THAI@@3PAY04_NA DB 01H		; THAI::INPUT::COMPOSIBLE
	DB	01H
	DB	01H
	DB	01H
	DB	01H
	DB	01H
	DB	01H
	DB	01H
	DB	00H
	DB	01H
	DB	01H
	DB	01H
	DB	00H
	DB	00H
	DB	01H
	ORG $+1
?STATE_CHECK@INPUT@THAI@@3PAY0BB@W4TYPE@12@A DD 04H	; THAI::INPUT::STATE_CHECK
	DD	00H
	DD	00H
	DD	00H
	DD	00H
	DD	00H
	DD	00H
	DD	03H
	DD	03H
	DD	03H
	DD	03H
	DD	03H
	DD	03H
	DD	03H
	DD	03H
	DD	03H
	DD	03H
	DD	04H
	DD	00H
	DD	00H
	DD	00H
	DD	02H
	DD	02H
	DD	00H
	DD	03H
	DD	03H
	DD	03H
	DD	03H
	DD	03H
	DD	03H
	DD	03H
	DD	03H
	DD	03H
	DD	03H
	DD	04H
	DD	00H
	DD	00H
	DD	00H
	DD	00H
	DD	02H
	DD	00H
	DD	01H
	DD	01H
	DD	01H
	DD	01H
	DD	01H
	DD	01H
	DD	01H
	DD	01H
	DD	01H
	DD	01H
	DD	04H
	DD	02H
	DD	00H
	DD	02H
	DD	02H
	DD	02H
	DD	02H
	DD	03H
	DD	03H
	DD	03H
	DD	03H
	DD	03H
	DD	03H
	DD	03H
	DD	03H
	DD	03H
	DD	03H
	DD	04H
	DD	02H
	DD	00H
	DD	02H
	DD	00H
	DD	02H
	DD	00H
	DD	03H
	DD	03H
	DD	03H
	DD	03H
	DD	03H
	DD	03H
	DD	03H
	DD	03H
	DD	03H
	DD	03H
	DD	04H
	DD	00H
	DD	00H
	DD	00H
	DD	00H
	DD	02H
	DD	00H
	DD	03H
	DD	03H
	DD	03H
	DD	03H
	DD	03H
	DD	03H
	DD	03H
	DD	03H
	DD	03H
	DD	03H
	DD	04H
	DD	00H
	DD	00H
	DD	00H
	DD	02H
	DD	00H
	DD	02H
	DD	03H
	DD	03H
	DD	03H
	DD	03H
	DD	03H
	DD	03H
	DD	03H
	DD	03H
	DD	03H
	DD	03H
	DD	04H
	DD	00H
	DD	00H
	DD	00H
	DD	00H
	DD	02H
	DD	00H
	DD	03H
	DD	03H
	DD	03H
	DD	01H
	DD	01H
	DD	03H
	DD	03H
	DD	03H
	DD	03H
	DD	03H
	DD	04H
	DD	00H
	DD	00H
	DD	00H
	DD	02H
	DD	02H
	DD	00H
	DD	03H
	DD	03H
	DD	03H
	DD	01H
	DD	03H
	DD	03H
	DD	03H
	DD	03H
	DD	03H
	DD	03H
	DD	04H
	DD	00H
	DD	00H
	DD	00H
	DD	02H
	DD	02H
	DD	00H
	DD	03H
	DD	03H
	DD	03H
	DD	03H
	DD	03H
	DD	03H
	DD	03H
	DD	03H
	DD	03H
	DD	03H
	DD	04H
	DD	00H
	DD	00H
	DD	00H
	DD	00H
	DD	00H
	DD	00H
	DD	03H
	DD	03H
	DD	03H
	DD	03H
	DD	03H
	DD	03H
	DD	03H
	DD	03H
	DD	03H
	DD	03H
	DD	04H
	DD	00H
	DD	00H
	DD	00H
	DD	02H
	DD	02H
	DD	00H
	DD	03H
	DD	03H
	DD	03H
	DD	03H
	DD	03H
	DD	03H
	DD	03H
	DD	03H
	DD	03H
	DD	03H
	DD	04H
	DD	00H
	DD	00H
	DD	00H
	DD	02H
	DD	02H
	DD	00H
	DD	03H
	DD	03H
	DD	03H
	DD	03H
	DD	03H
	DD	03H
	DD	03H
	DD	03H
	DD	03H
	DD	03H
	DD	04H
	DD	00H
	DD	00H
	DD	00H
	DD	02H
	DD	02H
	DD	00H
	DD	03H
	DD	03H
	DD	03H
	DD	03H
	DD	03H
	DD	03H
	DD	03H
	DD	03H
	DD	03H
	DD	03H
	DD	04H
	DD	00H
	DD	00H
	DD	00H
	DD	02H
	DD	02H
	DD	00H
	DD	03H
	DD	03H
	DD	03H
	DD	01H
	DD	01H
	DD	03H
	DD	03H
	DD	03H
	DD	03H
	DD	03H
	DD	04H
	DD	00H
	DD	00H
	DD	00H
	DD	02H
	DD	02H
	DD	00H
	DD	03H
	DD	03H
	DD	03H
	DD	01H
	DD	03H
	DD	03H
	DD	03H
	DD	03H
	DD	03H
	DD	03H
	DD	04H
	DD	00H
	DD	00H
	DD	00H
	DD	02H
	DD	02H
	DD	00H
	DD	03H
	DD	03H
	DD	03H
	DD	01H
	DD	03H
	DD	01H
	DD	03H
	DD	03H
	DD	03H
	DD	03H
	ORG $+4
?STATE_CHECK@OUTPUT@THAI@@3PAY0BB@W4TYPE@12@A DD 02H	; THAI::OUTPUT::STATE_CHECK
	DD	00H
	DD	00H
	DD	00H
	DD	00H
	DD	00H
	DD	00H
	DD	00H
	DD	00H
	DD	00H
	DD	00H
	DD	00H
	DD	00H
	DD	00H
	DD	00H
	DD	00H
	DD	00H
	DD	02H
	DD	00H
	DD	00H
	DD	00H
	DD	00H
	DD	00H
	DD	00H
	DD	00H
	DD	00H
	DD	00H
	DD	00H
	DD	00H
	DD	00H
	DD	00H
	DD	00H
	DD	00H
	DD	00H
	DD	02H
	DD	00H
	DD	00H
	DD	00H
	DD	00H
	DD	00H
	DD	00H
	DD	01H
	DD	01H
	DD	01H
	DD	01H
	DD	01H
	DD	01H
	DD	01H
	DD	01H
	DD	01H
	DD	01H
	DD	02H
	DD	00H
	DD	00H
	DD	00H
	DD	00H
	DD	00H
	DD	00H
	DD	00H
	DD	00H
	DD	00H
	DD	00H
	DD	00H
	DD	00H
	DD	00H
	DD	00H
	DD	00H
	DD	00H
	DD	02H
	DD	00H
	DD	00H
	DD	00H
	DD	00H
	DD	00H
	DD	00H
	DD	00H
	DD	00H
	DD	00H
	DD	00H
	DD	00H
	DD	00H
	DD	00H
	DD	00H
	DD	00H
	DD	00H
	DD	02H
	DD	00H
	DD	00H
	DD	00H
	DD	00H
	DD	00H
	DD	00H
	DD	00H
	DD	00H
	DD	00H
	DD	00H
	DD	00H
	DD	00H
	DD	00H
	DD	00H
	DD	00H
	DD	00H
	DD	02H
	DD	00H
	DD	00H
	DD	00H
	DD	00H
	DD	00H
	DD	00H
	DD	00H
	DD	00H
	DD	00H
	DD	00H
	DD	00H
	DD	00H
	DD	00H
	DD	00H
	DD	00H
	DD	00H
	DD	02H
	DD	00H
	DD	00H
	DD	00H
	DD	00H
	DD	00H
	DD	00H
	DD	00H
	DD	00H
	DD	00H
	DD	01H
	DD	01H
	DD	00H
	DD	00H
	DD	00H
	DD	00H
	DD	00H
	DD	02H
	DD	00H
	DD	00H
	DD	00H
	DD	00H
	DD	00H
	DD	00H
	DD	00H
	DD	00H
	DD	00H
	DD	01H
	DD	00H
	DD	00H
	DD	00H
	DD	00H
	DD	00H
	DD	00H
	DD	02H
	DD	00H
	DD	00H
	DD	00H
	DD	00H
	DD	00H
	DD	00H
	DD	00H
	DD	00H
	DD	00H
	DD	00H
	DD	00H
	DD	00H
	DD	00H
	DD	00H
	DD	00H
	DD	00H
	DD	02H
	DD	00H
	DD	00H
	DD	00H
	DD	00H
	DD	00H
	DD	00H
	DD	00H
	DD	00H
	DD	00H
	DD	00H
	DD	00H
	DD	00H
	DD	00H
	DD	00H
	DD	00H
	DD	00H
	DD	02H
	DD	00H
	DD	00H
	DD	00H
	DD	00H
	DD	00H
	DD	00H
	DD	00H
	DD	00H
	DD	00H
	DD	00H
	DD	00H
	DD	00H
	DD	00H
	DD	00H
	DD	00H
	DD	00H
	DD	02H
	DD	00H
	DD	00H
	DD	00H
	DD	00H
	DD	00H
	DD	00H
	DD	00H
	DD	00H
	DD	00H
	DD	00H
	DD	00H
	DD	00H
	DD	00H
	DD	00H
	DD	00H
	DD	00H
	DD	02H
	DD	00H
	DD	00H
	DD	00H
	DD	00H
	DD	00H
	DD	00H
	DD	00H
	DD	00H
	DD	00H
	DD	00H
	DD	00H
	DD	00H
	DD	00H
	DD	00H
	DD	00H
	DD	00H
	DD	02H
	DD	00H
	DD	00H
	DD	00H
	DD	00H
	DD	00H
	DD	00H
	DD	00H
	DD	00H
	DD	00H
	DD	01H
	DD	01H
	DD	00H
	DD	00H
	DD	00H
	DD	00H
	DD	00H
	DD	02H
	DD	00H
	DD	00H
	DD	00H
	DD	00H
	DD	00H
	DD	00H
	DD	00H
	DD	00H
	DD	00H
	DD	01H
	DD	00H
	DD	00H
	DD	00H
	DD	00H
	DD	00H
	DD	00H
	DD	02H
	DD	00H
	DD	00H
	DD	00H
	DD	00H
	DD	00H
	DD	00H
	DD	00H
	DD	00H
	DD	00H
	DD	01H
	DD	00H
	DD	01H
	DD	00H
	DD	00H
	DD	00H
	DD	00H
	ORG $+4
?wVTNToneChar@VTN@@3PAY05GA DW 0c1H			; VTN::wVTNToneChar
	DW	0c0H
	DW	01ea2H
	DW	0c3H
	DW	01ea0H
	DW	041H
	DW	0e1H
	DW	0e0H
	DW	01ea3H
	DW	0e3H
	DW	01ea1H
	DW	061H
	DW	01eaeH
	DW	01eb0H
	DW	01eb2H
	DW	01eb4H
	DW	01eb6H
	DW	0102H
	DW	01eafH
	DW	01eb1H
	DW	01eb3H
	DW	01eb5H
	DW	01eb7H
	DW	0103H
	DW	01ea4H
	DW	01ea6H
	DW	01ea8H
	DW	01eaaH
	DW	01eacH
	DW	0c2H
	DW	01ea5H
	DW	01ea7H
	DW	01ea9H
	DW	01eabH
	DW	01eadH
	DW	0e2H
	DW	0c9H
	DW	0c8H
	DW	01ebaH
	DW	01ebcH
	DW	01eb8H
	DW	045H
	DW	0e9H
	DW	0e8H
	DW	01ebbH
	DW	01ebdH
	DW	01eb9H
	DW	065H
	DW	01ebeH
	DW	01ec0H
	DW	01ec2H
	DW	01ec4H
	DW	01ec6H
	DW	0caH
	DW	01ebfH
	DW	01ec1H
	DW	01ec3H
	DW	01ec5H
	DW	01ec7H
	DW	0eaH
	DW	0cdH
	DW	0ccH
	DW	01ec8H
	DW	0128H
	DW	01ecaH
	DW	049H
	DW	0edH
	DW	0ecH
	DW	01ec9H
	DW	0129H
	DW	01ecbH
	DW	069H
	DW	0d3H
	DW	0d2H
	DW	01eceH
	DW	0d5H
	DW	01eccH
	DW	04fH
	DW	0f3H
	DW	0f2H
	DW	01ecfH
	DW	0f5H
	DW	01ecdH
	DW	06fH
	DW	01ed0H
	DW	01ed2H
	DW	01ed4H
	DW	01ed6H
	DW	01ed8H
	DW	0d4H
	DW	01ed1H
	DW	01ed3H
	DW	01ed5H
	DW	01ed7H
	DW	01ed9H
	DW	0f4H
	DW	01edaH
	DW	01edcH
	DW	01edeH
	DW	01ee0H
	DW	01ee2H
	DW	01a0H
	DW	01edbH
	DW	01eddH
	DW	01edfH
	DW	01ee1H
	DW	01ee3H
	DW	01a1H
	DW	0daH
	DW	0d9H
	DW	01ee6H
	DW	0168H
	DW	01ee4H
	DW	055H
	DW	0faH
	DW	0f9H
	DW	01ee7H
	DW	0169H
	DW	01ee5H
	DW	075H
	DW	01ee8H
	DW	01eeaH
	DW	01eecH
	DW	01eeeH
	DW	01ef0H
	DW	01afH
	DW	01ee9H
	DW	01eebH
	DW	01eedH
	DW	01eefH
	DW	01ef1H
	DW	01b0H
	DW	01ef2H
	DW	0ddH
	DW	01ef6H
	DW	01ef8H
	DW	01ef4H
	DW	059H
	DW	01ef3H
	DW	0fdH
	DW	01ef7H
	DW	01ef9H
	DW	01ef5H
	DW	079H
?wVTNCombiningDia@VTN@@3PAGA DW 0301H			; VTN::wVTNCombiningDia
	DW	0300H
	DW	0309H
	DW	0303H
	DW	0323H
_DATA	ENDS
;	COMDAT ?g_pfnGetThreadACP@ATL@@3P6GIXZA
_DATA	SEGMENT
?g_pfnGetThreadACP@ATL@@3P6GIXZA DD FLAT:?_AtlGetThreadACPThunk@ATL@@YGIXZ ; ATL::g_pfnGetThreadACP
_DATA	ENDS
PUBLIC	?InterlockedExchangePointer@@YGPAXPAPAXPAX@Z	; InterlockedExchangePointer
EXTRN	__imp__InterlockedExchange@8:NEAR
; Function compile flags: /Ogty
; File c:\program files\microsoft visual studio .net 2003\vc7\atlmfc\include\atlconv.h
;	COMDAT ?InterlockedExchangePointer@@YGPAXPAPAXPAX@Z
_TEXT	SEGMENT
_pp$ = 8						; size = 4
_pNew$ = 12						; size = 4
?InterlockedExchangePointer@@YGPAXPAPAXPAX@Z PROC NEAR	; InterlockedExchangePointer, COMDAT

; 92   : 	return( reinterpret_cast<void*>(static_cast<LONG_PTR>(::InterlockedExchange(reinterpret_cast<LONG*>(pp), static_cast<LONG>(reinterpret_cast<LONG_PTR>(pNew))))) );

  00000	ff 25 00 00 00
	00		 jmp	 DWORD PTR __imp__InterlockedExchange@8
?InterlockedExchangePointer@@YGPAXPAPAXPAX@Z ENDP	; InterlockedExchangePointer
_TEXT	ENDS
PUBLIC	?_AtlGetThreadACPFake@ATL@@YGIXZ		; ATL::_AtlGetThreadACPFake
EXTRN	__imp__GetThreadLocale@0:NEAR
EXTRN	___security_cookie:DWORD
EXTRN	@__security_check_cookie@4:NEAR
EXTRN	__imp__GetACP@0:NEAR
EXTRN	__imp__GetLocaleInfoA@16:NEAR
; Function compile flags: /Ogty
;	COMDAT ?_AtlGetThreadACPFake@ATL@@YGIXZ
_TEXT	SEGMENT
_szACP$ = -12						; size = 7
__$ArrayPad$ = -4					; size = 4
__$ReturnAddr$ = 4					; size = 4
?_AtlGetThreadACPFake@ATL@@YGIXZ PROC NEAR		; ATL::_AtlGetThreadACPFake, COMDAT

; 101  : {

  00000	83 ec 0c	 sub	 esp, 12			; 0000000cH
  00003	a1 00 00 00 00	 mov	 eax, DWORD PTR ___security_cookie
  00008	33 c4		 xor	 eax, esp
  0000a	56		 push	 esi
  0000b	89 44 24 0c	 mov	 DWORD PTR __$ArrayPad$[esp+16], eax

; 102  : 	UINT nACP = 0;

  0000f	33 f6		 xor	 esi, esi

; 103  : 
; 104  : 	LCID lcidThread = ::GetThreadLocale();

  00011	ff 15 00 00 00
	00		 call	 DWORD PTR __imp__GetThreadLocale@0

; 105  : 
; 106  : 	char szACP[7];
; 107  : 	// GetLocaleInfoA will fail for a Unicode-only LCID, but those are only supported on 
; 108  : 	// Windows 2000.  Since Windows 2000 supports CP_THREAD_ACP, this code path is never
; 109  : 	// executed on Windows 2000.
; 110  : 	if (::GetLocaleInfoA(lcidThread, LOCALE_IDEFAULTANSICODEPAGE, szACP, 7) != 0)

  00017	6a 07		 push	 7
  00019	8d 4c 24 08	 lea	 ecx, DWORD PTR _szACP$[esp+20]
  0001d	51		 push	 ecx
  0001e	68 04 10 00 00	 push	 4100			; 00001004H
  00023	50		 push	 eax
  00024	ff 15 00 00 00
	00		 call	 DWORD PTR __imp__GetLocaleInfoA@16
  0002a	85 c0		 test	 eax, eax
  0002c	74 27		 je	 SHORT $L190249

; 111  : 	{
; 112  : 		char* pch = szACP;
; 113  : 		while (*pch != '\0')

  0002e	8a 44 24 04	 mov	 al, BYTE PTR _szACP$[esp+16]
  00032	84 c0		 test	 al, al
  00034	8d 4c 24 04	 lea	 ecx, DWORD PTR _szACP$[esp+16]
  00038	74 1b		 je	 SHORT $L190249
  0003a	8d 9b 00 00 00
	00		 npad	 6
$L38554:

; 114  : 		{
; 115  : 			nACP *= 10;
; 116  : 			nACP += *pch++ - '0';

  00040	0f be c0	 movsx	 eax, al
  00043	8d 14 b6	 lea	 edx, DWORD PTR [esi+esi*4]
  00046	41		 inc	 ecx
  00047	8d 74 50 d0	 lea	 esi, DWORD PTR [eax+edx*2-48]
  0004b	8a 01		 mov	 al, BYTE PTR [ecx]
  0004d	84 c0		 test	 al, al
  0004f	75 ef		 jne	 SHORT $L38554

; 117  : 		}
; 118  : 	}
; 119  : 	// Use the Default ANSI Code Page if we were unable to get the thread ACP or if one does not exist.
; 120  : 	if (nACP == 0)

  00051	85 f6		 test	 esi, esi
  00053	75 16		 jne	 SHORT $L190250
$L190249:

; 121  : 		nACP = ::GetACP();

  00055	ff 15 00 00 00
	00		 call	 DWORD PTR __imp__GetACP@0
  0005b	5e		 pop	 esi

; 122  : 
; 123  : 	return nACP;
; 124  : }

  0005c	8b 4c 24 08	 mov	 ecx, DWORD PTR __$ArrayPad$[esp+12]
  00060	33 cc		 xor	 ecx, esp
  00062	e8 00 00 00 00	 call	 @__security_check_cookie@4
  00067	83 c4 0c	 add	 esp, 12			; 0000000cH
  0006a	c3		 ret	 0
$L190250:
  0006b	8b 4c 24 0c	 mov	 ecx, DWORD PTR __$ArrayPad$[esp+16]
  0006f	8b c6		 mov	 eax, esi
  00071	5e		 pop	 esi
  00072	33 cc		 xor	 ecx, esp
  00074	e8 00 00 00 00	 call	 @__security_check_cookie@4
  00079	83 c4 0c	 add	 esp, 12			; 0000000cH
  0007c	c3		 ret	 0
?_AtlGetThreadACPFake@ATL@@YGIXZ ENDP			; ATL::_AtlGetThreadACPFake
_TEXT	ENDS
PUBLIC	?_AtlGetThreadACPReal@ATL@@YGIXZ		; ATL::_AtlGetThreadACPReal
; Function compile flags: /Ogty
;	COMDAT ?_AtlGetThreadACPReal@ATL@@YGIXZ
_TEXT	SEGMENT
?_AtlGetThreadACPReal@ATL@@YGIXZ PROC NEAR		; ATL::_AtlGetThreadACPReal, COMDAT

; 128  : 	return( CP_THREAD_ACP );

  00000	b8 03 00 00 00	 mov	 eax, 3

; 129  : }

  00005	c3		 ret	 0
?_AtlGetThreadACPReal@ATL@@YGIXZ ENDP			; ATL::_AtlGetThreadACPReal
_TEXT	ENDS
EXTRN	__imp__GetVersionExA@4:NEAR
; Function compile flags: /Ogty
;	COMDAT ?_AtlGetThreadACPThunk@ATL@@YGIXZ
_TEXT	SEGMENT
_ver$ = -152						; size = 148
__$ArrayPad$ = -4					; size = 4
__$ReturnAddr$ = 4					; size = 4
?_AtlGetThreadACPThunk@ATL@@YGIXZ PROC NEAR		; ATL::_AtlGetThreadACPThunk, COMDAT

; 134  : {

  00000	81 ec 98 00 00
	00		 sub	 esp, 152		; 00000098H
  00006	a1 00 00 00 00	 mov	 eax, DWORD PTR ___security_cookie
  0000b	33 c4		 xor	 eax, esp
  0000d	89 84 24 94 00
	00 00		 mov	 DWORD PTR __$ArrayPad$[esp+152], eax

; 135  : 	OSVERSIONINFO ver;
; 136  : 	ATLGETTHREADACP pfnGetThreadACP;
; 137  : 
; 138  : 	ver.dwOSVersionInfoSize = sizeof( ver );
; 139  : 	::GetVersionEx( &ver );

  00014	8d 04 24	 lea	 eax, DWORD PTR _ver$[esp+152]
  00017	50		 push	 eax
  00018	c7 44 24 04 94
	00 00 00	 mov	 DWORD PTR _ver$[esp+156], 148 ; 00000094H
  00020	ff 15 00 00 00
	00		 call	 DWORD PTR __imp__GetVersionExA@4

; 140  : 	if( (ver.dwPlatformId == VER_PLATFORM_WIN32_NT) && (ver.dwMajorVersion >= 5) )

  00026	83 7c 24 10 02	 cmp	 DWORD PTR _ver$[esp+168], 2
  0002b	75 0c		 jne	 SHORT $L38564
  0002d	83 7c 24 04 05	 cmp	 DWORD PTR _ver$[esp+156], 5

; 141  : 	{
; 142  : 		// On Win2K, CP_THREAD_ACP is supported
; 143  : 		pfnGetThreadACP = _AtlGetThreadACPReal;

  00032	b8 00 00 00 00	 mov	 eax, OFFSET FLAT:?_AtlGetThreadACPReal@ATL@@YGIXZ ; ATL::_AtlGetThreadACPReal
  00037	73 05		 jae	 SHORT $L38565
$L38564:

; 144  : 	}
; 145  : 	else
; 146  : 	{
; 147  : 		pfnGetThreadACP = _AtlGetThreadACPFake;

  00039	b8 00 00 00 00	 mov	 eax, OFFSET FLAT:?_AtlGetThreadACPFake@ATL@@YGIXZ ; ATL::_AtlGetThreadACPFake
$L38565:

; 148  : 	}
; 149  : 	InterlockedExchangePointer( reinterpret_cast< void** >(&g_pfnGetThreadACP), pfnGetThreadACP );

  0003e	50		 push	 eax
  0003f	68 00 00 00 00	 push	 OFFSET FLAT:?g_pfnGetThreadACP@ATL@@3P6GIXZA ; ATL::g_pfnGetThreadACP
  00044	ff 15 00 00 00
	00		 call	 DWORD PTR __imp__InterlockedExchange@8

; 150  : 
; 151  : 	return( g_pfnGetThreadACP() );

  0004a	ff 15 00 00 00
	00		 call	 DWORD PTR ?g_pfnGetThreadACP@ATL@@3P6GIXZA ; ATL::g_pfnGetThreadACP

; 152  : }

  00050	8b 8c 24 94 00
	00 00		 mov	 ecx, DWORD PTR __$ArrayPad$[esp+152]
  00057	33 cc		 xor	 ecx, esp
  00059	e8 00 00 00 00	 call	 @__security_check_cookie@4
  0005e	81 c4 98 00 00
	00		 add	 esp, 152		; 00000098H
  00064	c3		 ret	 0
?_AtlGetThreadACPThunk@ATL@@YGIXZ ENDP			; ATL::_AtlGetThreadACPThunk
_TEXT	ENDS
PUBLIC	?_AtlGetConversionACP@ATL@@YGIXZ		; ATL::_AtlGetConversionACP
; Function compile flags: /Ogty
;	COMDAT ?_AtlGetConversionACP@ATL@@YGIXZ
_TEXT	SEGMENT
?_AtlGetConversionACP@ATL@@YGIXZ PROC NEAR		; ATL::_AtlGetConversionACP, COMDAT

; 158  : 	return( g_pfnGetThreadACP() );

  00000	ff 25 00 00 00
	00		 jmp	 DWORD PTR ?g_pfnGetThreadACP@ATL@@3P6GIXZA ; ATL::g_pfnGetThreadACP
?_AtlGetConversionACP@ATL@@YGIXZ ENDP			; ATL::_AtlGetConversionACP
_TEXT	ENDS
PUBLIC	?AtlThrow@ATL@@YGXJ@Z				; ATL::AtlThrow
EXTRN	?AfxThrowMemoryException@@YGXXZ:NEAR		; AfxThrowMemoryException
EXTRN	?AfxThrowOleException@@YGXJ@Z:NEAR		; AfxThrowOleException
; Function compile flags: /Ogty
; File c:\program files\microsoft visual studio .net 2003\vc7\atlmfc\include\atlexcept.h
;	COMDAT ?AtlThrow@ATL@@YGXJ@Z
_TEXT	SEGMENT
_hr$ = 8						; size = 4
?AtlThrow@ATL@@YGXJ@Z PROC NEAR				; ATL::AtlThrow, COMDAT

; 62   : 	ATLTRACE(atlTraceException, 0, _T("AtlThrow: hr = 0x%x\n"), hr );
; 63   : #ifdef _AFX
; 64   : 	if( hr == E_OUTOFMEMORY )

  00000	8b 44 24 04	 mov	 eax, DWORD PTR _hr$[esp-4]
  00004	3d 0e 00 07 80	 cmp	 eax, -2147024882	; 8007000eH
  00009	75 05		 jne	 SHORT $L39166

; 65   : 	{
; 66   : 		AfxThrowMemoryException();

  0000b	e8 00 00 00 00	 call	 ?AfxThrowMemoryException@@YGXXZ ; AfxThrowMemoryException
$L39166:

; 67   : 	}
; 68   : 	else
; 69   : 	{
; 70   : 		AfxThrowOleException( hr );

  00010	50		 push	 eax
  00011	e8 00 00 00 00	 call	 ?AfxThrowOleException@@YGXJ@Z ; AfxThrowOleException
$L190268:
  00016	cc		 int	 3
?AtlThrow@ATL@@YGXJ@Z ENDP				; ATL::AtlThrow
_TEXT	ENDS
PUBLIC	?_AtlGetStringResourceImage@ATL@@YAPBUATLSTRINGRESOURCEIMAGE@1@PAUHINSTANCE__@@PAUHRSRC__@@I@Z ; ATL::_AtlGetStringResourceImage
EXTRN	__imp__LoadResource@8:NEAR
EXTRN	__imp__SizeofResource@8:NEAR
EXTRN	__imp__LockResource@4:NEAR
; Function compile flags: /Ogty
; File c:\program files\microsoft visual studio .net 2003\vc7\atlmfc\include\atlcore.h
;	COMDAT ?_AtlGetStringResourceImage@ATL@@YAPBUATLSTRINGRESOURCEIMAGE@1@PAUHINSTANCE__@@PAUHRSRC__@@I@Z
_TEXT	SEGMENT
_hInstance$ = 8						; size = 4
_hResource$ = 12					; size = 4
_id$ = 16						; size = 4
?_AtlGetStringResourceImage@ATL@@YAPBUATLSTRINGRESOURCEIMAGE@1@PAUHINSTANCE__@@PAUHRSRC__@@I@Z PROC NEAR ; ATL::_AtlGetStringResourceImage, COMDAT

; 239  : {

  00000	53		 push	 ebx

; 240  : 	const ATLSTRINGRESOURCEIMAGE* pImage;
; 241  : 	const ATLSTRINGRESOURCEIMAGE* pImageEnd;
; 242  : 	ULONG nResourceSize;
; 243  : 	HGLOBAL hGlobal;
; 244  : 	UINT iIndex;
; 245  : 
; 246  : 	hGlobal = ::LoadResource( hInstance, hResource );

  00001	8b 5c 24 08	 mov	 ebx, DWORD PTR _hInstance$[esp]
  00005	57		 push	 edi
  00006	8b 7c 24 10	 mov	 edi, DWORD PTR _hResource$[esp+4]
  0000a	57		 push	 edi
  0000b	53		 push	 ebx
  0000c	ff 15 00 00 00
	00		 call	 DWORD PTR __imp__LoadResource@8

; 247  : 	if( hGlobal == NULL )

  00012	85 c0		 test	 eax, eax
  00014	75 03		 jne	 SHORT $L39520
  00016	5f		 pop	 edi
  00017	5b		 pop	 ebx

; 272  : 	{
; 273  : 		return( NULL );
; 274  : 	}
; 275  : 
; 276  : 	return( pImage );
; 277  : }

  00018	c3		 ret	 0
$L39520:
  00019	56		 push	 esi

; 248  : 	{
; 249  : 		return( NULL );
; 250  : 	}
; 251  : 
; 252  : 	pImage = (const ATLSTRINGRESOURCEIMAGE*)::LockResource( hGlobal );

  0001a	50		 push	 eax
  0001b	ff 15 00 00 00
	00		 call	 DWORD PTR __imp__LockResource@4
  00021	8b f0		 mov	 esi, eax

; 253  : 	if( pImage == NULL )

  00023	85 f6		 test	 esi, esi
  00025	75 06		 jne	 SHORT $L39522
$L190273:
  00027	5e		 pop	 esi
  00028	5f		 pop	 edi

; 254  : 	{
; 255  : 		return( NULL );

  00029	33 c0		 xor	 eax, eax
  0002b	5b		 pop	 ebx

; 272  : 	{
; 273  : 		return( NULL );
; 274  : 	}
; 275  : 
; 276  : 	return( pImage );
; 277  : }

  0002c	c3		 ret	 0
$L39522:

; 256  : 	}
; 257  : 
; 258  : 	nResourceSize = ::SizeofResource( hInstance, hResource );

  0002d	57		 push	 edi
  0002e	53		 push	 ebx
  0002f	ff 15 00 00 00
	00		 call	 DWORD PTR __imp__SizeofResource@8

; 259  : 	pImageEnd = (const ATLSTRINGRESOURCEIMAGE*)(LPBYTE( pImage )+nResourceSize);
; 260  : 	iIndex = id&0x000f;

  00035	8b 4c 24 18	 mov	 ecx, DWORD PTR _id$[esp+8]
  00039	03 c6		 add	 eax, esi
  0003b	83 e1 0f	 and	 ecx, 15			; 0000000fH

; 261  : 
; 262  : 	while( (iIndex > 0) && (pImage < pImageEnd) )

  0003e	76 0e		 jbe	 SHORT $L39526
$L39525:
  00040	3b f0		 cmp	 esi, eax
  00042	73 e3		 jae	 SHORT $L190273

; 263  : 	{
; 264  : 		pImage = (const ATLSTRINGRESOURCEIMAGE*)(LPBYTE( pImage )+(sizeof( ATLSTRINGRESOURCEIMAGE )+(pImage->nLength*sizeof( WCHAR ))));
; 265  : 		iIndex--;

  00044	49		 dec	 ecx
  00045	0f b7 16	 movzx	 edx, WORD PTR [esi]
  00048	8d 74 56 02	 lea	 esi, DWORD PTR [esi+edx*2+2]
  0004c	75 f2		 jne	 SHORT $L39525
$L39526:

; 266  : 	}
; 267  : 	if( pImage >= pImageEnd )

  0004e	3b f0		 cmp	 esi, eax

; 268  : 	{
; 269  : 		return( NULL );

  00050	73 d5		 jae	 SHORT $L190273

; 270  : 	}
; 271  : 	if( pImage->nLength == 0 )

  00052	66 8b 06	 mov	 ax, WORD PTR [esi]
  00055	66 f7 d8	 neg	 ax
  00058	1b c0		 sbb	 eax, eax
  0005a	23 c6		 and	 eax, esi
  0005c	5e		 pop	 esi
  0005d	5f		 pop	 edi
  0005e	5b		 pop	 ebx

; 272  : 	{
; 273  : 		return( NULL );
; 274  : 	}
; 275  : 
; 276  : 	return( pImage );
; 277  : }

  0005f	c3		 ret	 0
?_AtlGetStringResourceImage@ATL@@YAPBUATLSTRINGRESOURCEIMAGE@1@PAUHINSTANCE__@@PAUHRSRC__@@I@Z ENDP ; ATL::_AtlGetStringResourceImage
_TEXT	ENDS
PUBLIC	?AtlGetStringResourceImage@ATL@@YAPBUATLSTRINGRESOURCEIMAGE@1@PAUHINSTANCE__@@I@Z ; ATL::AtlGetStringResourceImage
EXTRN	__imp__FindResourceA@12:NEAR
; Function compile flags: /Ogty
;	COMDAT ?AtlGetStringResourceImage@ATL@@YAPBUATLSTRINGRESOURCEIMAGE@1@PAUHINSTANCE__@@I@Z
_TEXT	SEGMENT
_hInstance$ = 8						; size = 4
_id$ = 12						; size = 4
?AtlGetStringResourceImage@ATL@@YAPBUATLSTRINGRESOURCEIMAGE@1@PAUHINSTANCE__@@I@Z PROC NEAR ; ATL::AtlGetStringResourceImage, COMDAT

; 280  : {

  00000	56		 push	 esi

; 281  : 	HRSRC hResource;
; 282  : 
; 283  : 	hResource = ::FindResource( hInstance, MAKEINTRESOURCE( ((id>>4)+1) ), RT_STRING );

  00001	8b 74 24 0c	 mov	 esi, DWORD PTR _id$[esp]
  00005	8b c6		 mov	 eax, esi
  00007	c1 e8 04	 shr	 eax, 4
  0000a	57		 push	 edi
  0000b	8b 7c 24 0c	 mov	 edi, DWORD PTR _hInstance$[esp+4]
  0000f	40		 inc	 eax
  00010	0f b7 c8	 movzx	 ecx, ax
  00013	6a 06		 push	 6
  00015	51		 push	 ecx
  00016	57		 push	 edi
  00017	ff 15 00 00 00
	00		 call	 DWORD PTR __imp__FindResourceA@12

; 284  : 	if( hResource == NULL )

  0001d	85 c0		 test	 eax, eax
  0001f	75 03		 jne	 SHORT $L39543
  00021	5f		 pop	 edi
  00022	5e		 pop	 esi

; 290  : }

  00023	c3		 ret	 0
$L39543:

; 285  : 	{
; 286  : 		return( NULL );
; 287  : 	}
; 288  : 
; 289  : 	return _AtlGetStringResourceImage( hInstance, hResource, id );

  00024	56		 push	 esi
  00025	50		 push	 eax
  00026	57		 push	 edi
  00027	e8 00 00 00 00	 call	 ?_AtlGetStringResourceImage@ATL@@YAPBUATLSTRINGRESOURCEIMAGE@1@PAUHINSTANCE__@@PAUHRSRC__@@I@Z ; ATL::_AtlGetStringResourceImage
  0002c	83 c4 0c	 add	 esp, 12			; 0000000cH
  0002f	5f		 pop	 edi
  00030	5e		 pop	 esi

; 290  : }

  00031	c3		 ret	 0
?AtlGetStringResourceImage@ATL@@YAPBUATLSTRINGRESOURCEIMAGE@1@PAUHINSTANCE__@@I@Z ENDP ; ATL::AtlGetStringResourceImage
_TEXT	ENDS
PUBLIC	?data@CStringData@ATL@@QAEPAXXZ			; ATL::CStringData::data
; Function compile flags: /Ogty
; File c:\program files\microsoft visual studio .net 2003\vc7\atlmfc\include\atlsimpstr.h
;	COMDAT ?data@CStringData@ATL@@QAEPAXXZ
_TEXT	SEGMENT
?data@CStringData@ATL@@QAEPAXXZ PROC NEAR		; ATL::CStringData::data, COMDAT
; _this$ = ecx

; 66   : 		return (this+1);

  00000	8d 41 10	 lea	 eax, DWORD PTR [ecx+16]

; 67   : 	}

  00003	c3		 ret	 0
?data@CStringData@ATL@@QAEPAXXZ ENDP			; ATL::CStringData::data
_TEXT	ENDS
PUBLIC	?IsLocked@CStringData@ATL@@QBE_NXZ		; ATL::CStringData::IsLocked
; Function compile flags: /Ogty
;	COMDAT ?IsLocked@CStringData@ATL@@QBE_NXZ
_TEXT	SEGMENT
?IsLocked@CStringData@ATL@@QBE_NXZ PROC NEAR		; ATL::CStringData::IsLocked, COMDAT
; _this$ = ecx

; 76   : 		return nRefs < 0;

  00000	8b 51 0c	 mov	 edx, DWORD PTR [ecx+12]
  00003	33 c0		 xor	 eax, eax
  00005	85 d2		 test	 edx, edx
  00007	0f 9c c0	 setl	 al

; 77   : 	}

  0000a	c3		 ret	 0
?IsLocked@CStringData@ATL@@QBE_NXZ ENDP			; ATL::CStringData::IsLocked
_TEXT	ENDS
PUBLIC	?IsShared@CStringData@ATL@@QBE_NXZ		; ATL::CStringData::IsShared
; Function compile flags: /Ogty
;	COMDAT ?IsShared@CStringData@ATL@@QBE_NXZ
_TEXT	SEGMENT
?IsShared@CStringData@ATL@@QBE_NXZ PROC NEAR		; ATL::CStringData::IsShared, COMDAT
; _this$ = ecx

; 80   : 		return( nRefs > 1 ); 

  00000	8b 51 0c	 mov	 edx, DWORD PTR [ecx+12]
  00003	33 c0		 xor	 eax, eax
  00005	83 fa 01	 cmp	 edx, 1
  00008	0f 9f c0	 setg	 al

; 81   : 	}

  0000b	c3		 ret	 0
?IsShared@CStringData@ATL@@QBE_NXZ ENDP			; ATL::CStringData::IsShared
_TEXT	ENDS
PUBLIC	?Release@CStringData@ATL@@QAEXXZ		; ATL::CStringData::Release
; Function compile flags: /Ogty
;	COMDAT ?Release@CStringData@ATL@@QAEXXZ
_TEXT	SEGMENT
?Release@CStringData@ATL@@QAEXXZ PROC NEAR		; ATL::CStringData::Release, COMDAT
; _this$ = ecx

; 93   : 		ATLASSERT( nRefs != 0 );
; 94   : 
; 95   : 		if( _InterlockedDecrement( &nRefs ) <= 0 )

  00000	8d 41 0c	 lea	 eax, DWORD PTR [ecx+12]
  00003	83 ca ff	 or	 edx, -1
  00006	f0 0f c1 10	 lock	  xadd	 DWORD PTR [eax], edx
  0000a	4a		 dec	 edx
  0000b	85 d2		 test	 edx, edx
  0000d	7f 0a		 jg	 SHORT $L39883

; 96   : 		{
; 97   : 			pStringMgr->Free( this );

  0000f	8b 01		 mov	 eax, DWORD PTR [ecx]
  00011	8b 10		 mov	 edx, DWORD PTR [eax]
  00013	51		 push	 ecx
  00014	8b c8		 mov	 ecx, eax
  00016	ff 52 04	 call	 DWORD PTR [edx+4]
$L39883:

; 98   : 		}
; 99   : 	}

  00019	c3		 ret	 0
?Release@CStringData@ATL@@QAEXXZ ENDP			; ATL::CStringData::Release
_TEXT	ENDS
PUBLIC	?iswhite@@YAHG@Z				; iswhite
; Function compile flags: /Ogty
; File c:\documents and settings\test\mes documents\source\virtuos_v17\build\program\_common\scanner.cpp
;	COMDAT ?iswhite@@YAHG@Z
_TEXT	SEGMENT
_c$ = 8							; size = 2
?iswhite@@YAHG@Z PROC NEAR				; iswhite, COMDAT

; 22   : 	if(c > 0 && c <= 0x20)

  00000	66 8b 44 24 04	 mov	 ax, WORD PTR _c$[esp-4]
  00005	66 85 c0	 test	 ax, ax
  00008	76 0c		 jbe	 SHORT $L189402
  0000a	66 3d 20 00	 cmp	 ax, 32			; 00000020H
  0000e	77 06		 ja	 SHORT $L189402

; 23   : 		return 1;

  00010	b8 01 00 00 00	 mov	 eax, 1

; 25   : }

  00015	c3		 ret	 0
$L189402:

; 24   : 	return 0;

  00016	33 c0		 xor	 eax, eax

; 25   : }

  00018	c3		 ret	 0
?iswhite@@YAHG@Z ENDP					; iswhite
_TEXT	ENDS
PUBLIC	?isdelim@@YAHG@Z				; isdelim
PUBLIC	??_C@_0BH@PMNGKJFP@?5?$CB?3?$DL?0?$CL?9?$DM?$DO?8?1?$CK?$CF?$FO?$DN?$CI?$CJ?$CG?$HM?$CC?$HL?$HN?$AA@ ; `string'
EXTRN	_strchr:NEAR
;	COMDAT ??_C@_0BH@PMNGKJFP@?5?$CB?3?$DL?0?$CL?9?$DM?$DO?8?1?$CK?$CF?$FO?$DN?$CI?$CJ?$CG?$HM?$CC?$HL?$HN?$AA@
CONST	SEGMENT
??_C@_0BH@PMNGKJFP@?5?$CB?3?$DL?0?$CL?9?$DM?$DO?8?1?$CK?$CF?$FO?$DN?$CI?$CJ?$CG?$HM?$CC?$HL?$HN?$AA@ DB ' '
	DB	'!:;,+-<>''/*%^=()&|"{}', 00H		; `string'
; Function compile flags: /Ogty
CONST	ENDS
;	COMDAT ?isdelim@@YAHG@Z
_TEXT	SEGMENT
_c$ = 8							; size = 2
?isdelim@@YAHG@Z PROC NEAR				; isdelim, COMDAT

; 28   : {

  00000	56		 push	 esi

; 29   : 	if(strchr(" !:;,+-<>'/*%^=()&|\"{}",c) || c == 9 || c == '\r' || c == 0 || c == '\n' ) 

  00001	66 8b 74 24 08	 mov	 si, WORD PTR _c$[esp]
  00006	0f b7 c6	 movzx	 eax, si
  00009	50		 push	 eax
  0000a	68 00 00 00 00	 push	 OFFSET FLAT:??_C@_0BH@PMNGKJFP@?5?$CB?3?$DL?0?$CL?9?$DM?$DO?8?1?$CK?$CF?$FO?$DN?$CI?$CJ?$CG?$HM?$CC?$HL?$HN?$AA@
  0000f	e8 00 00 00 00	 call	 _strchr
  00014	83 c4 08	 add	 esp, 8
  00017	85 c0		 test	 eax, eax
  00019	75 19		 jne	 SHORT $L189407
  0001b	66 83 fe 09	 cmp	 si, 9
  0001f	74 13		 je	 SHORT $L189407
  00021	66 83 fe 0d	 cmp	 si, 13			; 0000000dH
  00025	74 0d		 je	 SHORT $L189407
  00027	66 85 f6	 test	 si, si
  0002a	74 08		 je	 SHORT $L189407
  0002c	66 83 fe 0a	 cmp	 si, 10			; 0000000aH
  00030	74 02		 je	 SHORT $L189407
  00032	5e		 pop	 esi

; 31   : 	return 0;
; 32   : }

  00033	c3		 ret	 0
$L189407:

; 30   : 		return 1;

  00034	b8 01 00 00 00	 mov	 eax, 1
  00039	5e		 pop	 esi

; 31   : 	return 0;
; 32   : }

  0003a	c3		 ret	 0
?isdelim@@YAHG@Z ENDP					; isdelim
_TEXT	ENDS
PUBLIC	?IsComposibleTh@@YA_NEEH@Z			; IsComposibleTh
; Function compile flags: /Ogty
;	COMDAT ?IsComposibleTh@@YA_NEEH@Z
_TEXT	SEGMENT
_prev$ = 8						; size = 1
_curr$ = 12						; size = 1
_mode$ = 16						; size = 4
?IsComposibleTh@@YA_NEEH@Z PROC NEAR			; IsComposibleTh, COMDAT

; 141  : 	using namespace THAI;
; 142  : 	using namespace INPUT;
; 143  : 
; 144  : 	if(mode > 2) {

  00000	8b 4c 24 0c	 mov	 ecx, DWORD PTR _mode$[esp-4]
  00004	83 f9 02	 cmp	 ecx, 2
  00007	7e 03		 jle	 SHORT $L189446

; 145  : 		return false;

  00009	32 c0		 xor	 al, al

; 148  : 	}
; 149  : }

  0000b	c3		 ret	 0
$L189446:

; 146  : 	} else {
; 147  : 		return COMPOSIBLE[mode][STATE_CHECK[CLASS_TABLE[prev]][CLASS_TABLE[curr]]];

  0000c	0f b6 44 24 04	 movzx	 eax, BYTE PTR _prev$[esp-4]
  00011	8b 04 85 00 00
	00 00		 mov	 eax, DWORD PTR ?CLASS_TABLE@THAI@@3PAW4CLASS@1@A[eax*4]
  00018	8b d0		 mov	 edx, eax
  0001a	c1 e2 04	 shl	 edx, 4
  0001d	03 d0		 add	 edx, eax
  0001f	0f b6 44 24 08	 movzx	 eax, BYTE PTR _curr$[esp-4]
  00024	03 14 85 00 00
	00 00		 add	 edx, DWORD PTR ?CLASS_TABLE@THAI@@3PAW4CLASS@1@A[eax*4]
  0002b	8b 14 95 00 00
	00 00		 mov	 edx, DWORD PTR ?STATE_CHECK@INPUT@THAI@@3PAY0BB@W4TYPE@12@A[edx*4]
  00032	8d 0c 89	 lea	 ecx, DWORD PTR [ecx+ecx*4]
  00035	8a 84 0a 00 00
	00 00		 mov	 al, BYTE PTR ?COMPOSIBLE@INPUT@THAI@@3PAY04_NA[edx+ecx]

; 148  : 	}
; 149  : }

  0003c	c3		 ret	 0
?IsComposibleTh@@YA_NEEH@Z ENDP				; IsComposibleTh
_TEXT	ENDS
PUBLIC	?CharNextTh@@YAPBDPBD@Z				; CharNextTh
; Function compile flags: /Ogty
;	COMDAT ?CharNextTh@@YAPBDPBD@Z
_TEXT	SEGMENT
_lpsz$ = 8						; size = 4
?CharNextTh@@YAPBDPBD@Z PROC NEAR			; CharNextTh, COMDAT

; 157  : 	using namespace THAI;
; 158  : 	using namespace OUTPUT;
; 159  : 
; 160  : 	const BYTE* stream = (const BYTE*)(lpsz);

  00000	8b 54 24 04	 mov	 edx, DWORD PTR _lpsz$[esp-4]

; 161  : 
; 162  : 	while(STATE_CHECK
; 163  : 		[ 
; 164  : 			CLASS_TABLE
; 165  : 			[ 
; 166  : 				stream[ 0 ] 
; 167  : 			] 
; 168  : 		]
; 169  : 		[ 
; 170  : 			CLASS_TABLE
; 171  : 			[ 
; 172  : 				stream[ 1 ] 
; 173  : 			] 
; 174  : 		] == C) ++stream;

  00004	0f b6 0a	 movzx	 ecx, BYTE PTR [edx]
  00007	8b 0c 8d 00 00
	00 00		 mov	 ecx, DWORD PTR ?CLASS_TABLE@THAI@@3PAW4CLASS@1@A[ecx*4]
  0000e	53		 push	 ebx
  0000f	57		 push	 edi
  00010	8b f9		 mov	 edi, ecx
  00012	c1 e7 04	 shl	 edi, 4
  00015	03 f9		 add	 edi, ecx
  00017	0f b6 4a 01	 movzx	 ecx, BYTE PTR [edx+1]
  0001b	8b 1c 8d 00 00
	00 00		 mov	 ebx, DWORD PTR ?CLASS_TABLE@THAI@@3PAW4CLASS@1@A[ecx*4]
  00022	8d 42 01	 lea	 eax, DWORD PTR [edx+1]
  00025	03 fb		 add	 edi, ebx
  00027	83 3c bd 00 00
	00 00 01	 cmp	 DWORD PTR ?STATE_CHECK@OUTPUT@THAI@@3PAY0BB@W4TYPE@12@A[edi*4], 1
  0002f	75 33		 jne	 SHORT $L190295
$L189454:
  00031	8b c8		 mov	 ecx, eax
  00033	0f b6 11	 movzx	 edx, BYTE PTR [ecx]
  00036	8b 14 95 00 00
	00 00		 mov	 edx, DWORD PTR ?CLASS_TABLE@THAI@@3PAW4CLASS@1@A[edx*4]
  0003d	8b fa		 mov	 edi, edx
  0003f	c1 e7 04	 shl	 edi, 4
  00042	03 fa		 add	 edi, edx
  00044	0f b6 51 01	 movzx	 edx, BYTE PTR [ecx+1]
  00048	8b 1c 95 00 00
	00 00		 mov	 ebx, DWORD PTR ?CLASS_TABLE@THAI@@3PAW4CLASS@1@A[edx*4]
  0004f	8d 41 01	 lea	 eax, DWORD PTR [ecx+1]
  00052	03 fb		 add	 edi, ebx
  00054	83 3c bd 00 00
	00 00 01	 cmp	 DWORD PTR ?STATE_CHECK@OUTPUT@THAI@@3PAY0BB@W4TYPE@12@A[edi*4], 1
  0005c	74 d3		 je	 SHORT $L189454
  0005e	5f		 pop	 edi

; 175  : 
; 176  : 	return (const char*)(stream+1);

  0005f	8d 41 01	 lea	 eax, DWORD PTR [ecx+1]
  00062	5b		 pop	 ebx

; 177  : }

  00063	c3		 ret	 0
$L190295:
  00064	5f		 pop	 edi

; 175  : 
; 176  : 	return (const char*)(stream+1);

  00065	8d 42 01	 lea	 eax, DWORD PTR [edx+1]
  00068	5b		 pop	 ebx

; 177  : }

  00069	c3		 ret	 0
?CharNextTh@@YAPBDPBD@Z ENDP				; CharNextTh
_TEXT	ENDS
PUBLIC	?CharNextVt@@YAPBDPBD@Z				; CharNextVt
; Function compile flags: /Ogty
;	COMDAT ?CharNextVt@@YAPBDPBD@Z
_TEXT	SEGMENT
_lpsz$ = 8						; size = 4
?CharNextVt@@YAPBDPBD@Z PROC NEAR			; CharNextVt, COMDAT

; 181  : 	const BYTE* stream = (const BYTE*)(lpsz);

  00000	8b 44 24 04	 mov	 eax, DWORD PTR _lpsz$[esp-4]

; 182  : 
; 183  : 	//     
; 184  : 	switch(stream[1])

  00004	0f b6 48 01	 movzx	 ecx, BYTE PTR [eax+1]
  00008	8b d0		 mov	 edx, eax
  0000a	40		 inc	 eax
  0000b	81 c1 34 ff ff
	ff		 add	 ecx, -204		; ffffff34H
  00011	83 f9 26	 cmp	 ecx, 38			; 00000026H
  00014	77 10		 ja	 SHORT $L189463
  00016	0f b6 89 00 00
	00 00		 movzx	 ecx, BYTE PTR $L190298[ecx]
  0001d	ff 24 8d 00 00
	00 00		 jmp	 DWORD PTR $L190299[ecx*4]
$L189466:

; 185  : 	{
; 186  : 		case 0xcc:
; 187  : 		case 0xec:
; 188  : 		case 0xd2:
; 189  : 		case 0xde:
; 190  : 		case 0xf2:
; 191  : 		{
; 192  : 			++stream;

  00024	8b d0		 mov	 edx, eax
$L189463:

; 193  : 		}
; 194  : 	    break;
; 195  : 	}
; 196  : 
; 197  : 	return (const char*)(stream+1);

  00026	8d 42 01	 lea	 eax, DWORD PTR [edx+1]

; 198  : }

  00029	c3		 ret	 0
  0002a	8b ff		 npad	 2
$L190299:
  0002c	00 00 00 00	 DD	 $L189466
  00030	00 00 00 00	 DD	 $L189463
$L190298:
  00034	00		 DB	 0
  00035	01		 DB	 1
  00036	01		 DB	 1
  00037	01		 DB	 1
  00038	01		 DB	 1
  00039	01		 DB	 1
  0003a	00		 DB	 0
  0003b	01		 DB	 1
  0003c	01		 DB	 1
  0003d	01		 DB	 1
  0003e	01		 DB	 1
  0003f	01		 DB	 1
  00040	01		 DB	 1
  00041	01		 DB	 1
  00042	01		 DB	 1
  00043	01		 DB	 1
  00044	01		 DB	 1
  00045	01		 DB	 1
  00046	00		 DB	 0
  00047	01		 DB	 1
  00048	01		 DB	 1
  00049	01		 DB	 1
  0004a	01		 DB	 1
  0004b	01		 DB	 1
  0004c	01		 DB	 1
  0004d	01		 DB	 1
  0004e	01		 DB	 1
  0004f	01		 DB	 1
  00050	01		 DB	 1
  00051	01		 DB	 1
  00052	01		 DB	 1
  00053	01		 DB	 1
  00054	00		 DB	 0
  00055	01		 DB	 1
  00056	01		 DB	 1
  00057	01		 DB	 1
  00058	01		 DB	 1
  00059	01		 DB	 1
  0005a	00		 DB	 0
?CharNextVt@@YAPBDPBD@Z ENDP				; CharNextVt
_TEXT	ENDS
PUBLIC	?CharNextEx@@YAPBDPBDG@Z			; CharNextEx
EXTRN	__imp__CharNextExA@12:NEAR
EXTRN	?GetLanguage@@YAHXZ:NEAR			; GetLanguage
; Function compile flags: /Ogty
;	COMDAT ?CharNextEx@@YAPBDPBDG@Z
_TEXT	SEGMENT
_strText$ = 8						; size = 4
_codePage$ = 12						; size = 2
?CharNextEx@@YAPBDPBDG@Z PROC NEAR			; CharNextEx, COMDAT

; 202  : 	if(::GetLanguage() == LANG_THA)

  00000	e8 00 00 00 00	 call	 ?GetLanguage@@YAHXZ	; GetLanguage
  00005	83 f8 04	 cmp	 eax, 4
  00008	75 0e		 jne	 SHORT $L189472

; 203  : 	{
; 204  : 		return CharNextTh(strText);

  0000a	8b 44 24 04	 mov	 eax, DWORD PTR _strText$[esp-4]
  0000e	50		 push	 eax
  0000f	e8 00 00 00 00	 call	 ?CharNextTh@@YAPBDPBD@Z	; CharNextTh
  00014	83 c4 04	 add	 esp, 4

; 213  : 	}
; 214  : }

  00017	c3		 ret	 0
$L189472:

; 205  : 	}
; 206  : 	else if(::GetLanguage() == LANG_VTN)

  00018	e8 00 00 00 00	 call	 ?GetLanguage@@YAHXZ	; GetLanguage
  0001d	83 f8 0b	 cmp	 eax, 11			; 0000000bH
  00020	75 0e		 jne	 SHORT $L189474

; 207  : 	{
; 208  : 		return CharNextVt(strText);

  00022	8b 4c 24 04	 mov	 ecx, DWORD PTR _strText$[esp-4]
  00026	51		 push	 ecx
  00027	e8 00 00 00 00	 call	 ?CharNextVt@@YAPBDPBD@Z	; CharNextVt
  0002c	83 c4 04	 add	 esp, 4

; 213  : 	}
; 214  : }

  0002f	c3		 ret	 0
$L189474:

; 209  : 	}
; 210  : 	else
; 211  : 	{
; 212  : 		return CharNextExA(g_codePage, strText, 0);

  00030	8b 54 24 04	 mov	 edx, DWORD PTR _strText$[esp-4]
  00034	33 c0		 xor	 eax, eax
  00036	66 a1 00 00 00
	00		 mov	 ax, WORD PTR ?g_codePage@@3GA ; g_codePage
  0003c	6a 00		 push	 0
  0003e	52		 push	 edx
  0003f	50		 push	 eax
  00040	ff 15 00 00 00
	00		 call	 DWORD PTR __imp__CharNextExA@12

; 213  : 	}
; 214  : }

  00046	c3		 ret	 0
?CharNextEx@@YAPBDPBDG@Z ENDP				; CharNextEx
_TEXT	ENDS
PUBLIC	?IsTone@@YAHG@Z					; IsTone
; Function compile flags: /Ogty
;	COMDAT ?IsTone@@YAHG@Z
_TEXT	SEGMENT
_input$ = 8						; size = 2
?IsTone@@YAHG@Z PROC NEAR				; IsTone, COMDAT

; 256  : 	using namespace VTN;
; 257  : 	//U0300 U0301 U0309 U0303 U0323  true
; 258  : 
; 259  : 	for(int i=0; i<5; i++)

  00000	66 8b 4c 24 04	 mov	 cx, WORD PTR _input$[esp-4]
  00005	33 c0		 xor	 eax, eax
  00007	eb 07 8d a4 24
	00 00 00 00	 npad	 9
$L189482:

; 260  : 	{
; 261  : 		if(input == wVTNCombiningDia[i])

  00010	66 3b 0c 45 00
	00 00 00	 cmp	 cx, WORD PTR ?wVTNCombiningDia@VTN@@3PAGA[eax*2]
  00018	74 09		 je	 SHORT $L189480
  0001a	40		 inc	 eax
  0001b	83 f8 05	 cmp	 eax, 5
  0001e	7c f0		 jl	 SHORT $L189482

; 262  : 			return i;
; 263  : 	}
; 264  : 
; 265  : 	return -1;

  00020	83 c8 ff	 or	 eax, -1
$L189480:

; 266  : }

  00023	c3		 ret	 0
?IsTone@@YAHG@Z ENDP					; IsTone
_TEXT	ENDS
PUBLIC	?ComposeTone@@YAGGH@Z				; ComposeTone
; Function compile flags: /Ogty
;	COMDAT ?ComposeTone@@YAGGH@Z
_TEXT	SEGMENT
_letter$ = 8						; size = 2
_nTone$ = 12						; size = 4
?ComposeTone@@YAGGH@Z PROC NEAR				; ComposeTone, COMDAT

; 270  : 	using namespace VTN;
; 271  : 
; 272  : 	for(int i=0; i<24; i++)

  00000	66 8b 54 24 04	 mov	 dx, WORD PTR _letter$[esp-4]
  00005	33 c9		 xor	 ecx, ecx
  00007	b8 0a 00 00 00	 mov	 eax, OFFSET FLAT:?wVTNToneChar@VTN@@3PAY05GA+10
  0000c	8d 64 24 00	 npad	 4
$L189491:

; 273  : 	{
; 274  : 		if(letter == wVTNToneChar[i][5])

  00010	66 3b 10	 cmp	 dx, WORD PTR [eax]
  00013	74 0f		 je	 SHORT $L190310
  00015	83 c0 0c	 add	 eax, 12			; 0000000cH
  00018	41		 inc	 ecx
  00019	3d 2a 01 00 00	 cmp	 eax, OFFSET FLAT:?wVTNToneChar@VTN@@3PAY05GA+298
  0001e	7c f0		 jl	 SHORT $L189491

; 276  : 	}
; 277  : 
; 278  : 	return NULL;

  00020	66 33 c0	 xor	 ax, ax

; 279  : }

  00023	c3		 ret	 0
$L190310:

; 275  : 			return wVTNToneChar[i][nTone];

  00024	8d 04 49	 lea	 eax, DWORD PTR [ecx+ecx*2]
  00027	8b 4c 24 08	 mov	 ecx, DWORD PTR _nTone$[esp-4]
  0002b	8d 14 41	 lea	 edx, DWORD PTR [ecx+eax*2]
  0002e	66 8b 04 55 00
	00 00 00	 mov	 ax, WORD PTR ?wVTNToneChar@VTN@@3PAY05GA[edx*2]

; 279  : }

  00036	c3		 ret	 0
?ComposeTone@@YAGGH@Z ENDP				; ComposeTone
_TEXT	ENDS
PUBLIC	?GetTone@@YA_NGPAH0@Z				; GetTone
; Function compile flags: /Ogty
;	COMDAT ?GetTone@@YA_NGPAH0@Z
_TEXT	SEGMENT
_input$ = 8						; size = 2
_pnLetterLine$ = 12					; size = 4
_pnTone$ = 16						; size = 4
?GetTone@@YA_NGPAH0@Z PROC NEAR				; GetTone, COMDAT

; 282  : {

  00000	53		 push	 ebx
  00001	55		 push	 ebp

; 283  : 	using namespace VTN;
; 284  : 
; 285  : 	for(int i=0; i<24; i++)

  00002	66 8b 6c 24 0c	 mov	 bp, WORD PTR _input$[esp+4]
  00007	56		 push	 esi
  00008	8b 74 24 18	 mov	 esi, DWORD PTR _pnTone$[esp+8]
  0000c	57		 push	 edi
  0000d	8b 7c 24 18	 mov	 edi, DWORD PTR _pnLetterLine$[esp+12]
  00011	33 db		 xor	 ebx, ebx
  00013	ba 00 00 00 00	 mov	 edx, OFFSET FLAT:?wVTNToneChar@VTN@@3PAY05GA ; VTN::wVTNToneChar
$L190320:

; 286  : 	{
; 287  : 		for(int j=0; j<5; j++)

  00018	33 c0		 xor	 eax, eax
  0001a	8b ca		 mov	 ecx, edx
  0001c	8d 64 24 00	 npad	 4
$L189505:

; 288  : 		{
; 289  : 			if(wVTNToneChar[i][j] == input)

  00020	66 39 29	 cmp	 WORD PTR [ecx], bp
  00023	75 08		 jne	 SHORT $L189506

; 290  : 			{
; 291  : 				if(pnLetterLine != NULL && pnTone != NULL)

  00025	85 ff		 test	 edi, edi
  00027	74 04		 je	 SHORT $L189506
  00029	85 f6		 test	 esi, esi
  0002b	75 1c		 jne	 SHORT $L190316
$L189506:

; 286  : 	{
; 287  : 		for(int j=0; j<5; j++)

  0002d	40		 inc	 eax
  0002e	83 c1 02	 add	 ecx, 2
  00031	83 f8 05	 cmp	 eax, 5
  00034	7c ea		 jl	 SHORT $L189505
  00036	83 c2 0c	 add	 edx, 12			; 0000000cH
  00039	43		 inc	 ebx
  0003a	81 fa 20 01 00
	00		 cmp	 edx, OFFSET FLAT:?wVTNToneChar@VTN@@3PAY05GA+288
  00040	7c d6		 jl	 SHORT $L190320
  00042	5f		 pop	 edi
  00043	5e		 pop	 esi
  00044	5d		 pop	 ebp

; 296  : 				}
; 297  : 			}
; 298  : 		}
; 299  : 	}
; 300  : 
; 301  : 	return false;

  00045	32 c0		 xor	 al, al
  00047	5b		 pop	 ebx

; 302  : }

  00048	c3		 ret	 0
$L190316:

; 292  : 				{
; 293  : 					*pnLetterLine = i;

  00049	89 1f		 mov	 DWORD PTR [edi], ebx
  0004b	5f		 pop	 edi

; 294  : 					*pnTone = j;

  0004c	89 06		 mov	 DWORD PTR [esi], eax
  0004e	5e		 pop	 esi
  0004f	5d		 pop	 ebp

; 295  : 					return true;

  00050	b0 01		 mov	 al, 1
  00052	5b		 pop	 ebx

; 302  : }

  00053	c3		 ret	 0
?GetTone@@YA_NGPAH0@Z ENDP				; GetTone
_TEXT	ENDS
PUBLIC	?ComposeString@@YAXPAG0H@Z			; ComposeString
; Function compile flags: /Ogty
;	COMDAT ?ComposeString@@YAXPAG0H@Z
_TEXT	SEGMENT
_pwSrc$ = 8						; size = 4
_pwDest$ = 12						; size = 4
_nSize$ = 16						; size = 4
?ComposeString@@YAXPAG0H@Z PROC NEAR			; ComposeString, COMDAT

; 306  : {

  00000	57		 push	 edi

; 307  : 	using namespace VTN;
; 308  : 
; 309  : 	if(pwSrc == NULL || pwDest == NULL || nSize <= 0)

  00001	8b 7c 24 08	 mov	 edi, DWORD PTR _pwSrc$[esp]
  00005	85 ff		 test	 edi, edi
  00007	74 69		 je	 SHORT $L190334
  00009	56		 push	 esi
  0000a	8b 74 24 10	 mov	 esi, DWORD PTR _pwDest$[esp+4]
  0000e	85 f6		 test	 esi, esi
  00010	74 5f		 je	 SHORT $L190339
  00012	55		 push	 ebp
  00013	8b 6c 24 18	 mov	 ebp, DWORD PTR _nSize$[esp+8]
  00017	85 ed		 test	 ebp, ebp
  00019	7e 55		 jle	 SHORT $L190340
  0001b	53		 push	 ebx

; 310  : 		return;
; 311  : 
; 312  : 	for(int i=0; i<nSize; i++)

  0001c	33 db		 xor	 ebx, ebx
  0001e	85 ed		 test	 ebp, ebp
  00020	7e 4d		 jle	 SHORT $L190341
$L190337:

; 313  : 	{
; 314  : 		*pwDest = *pwSrc;

  00022	66 8b 07	 mov	 ax, WORD PTR [edi]

; 315  : 		pwSrc++;
; 316  : 
; 317  : 		if(*pwDest == NULL)

  00025	66 8b c8	 mov	 cx, ax
  00028	83 c7 02	 add	 edi, 2
  0002b	66 85 c9	 test	 cx, cx
  0002e	66 89 06	 mov	 WORD PTR [esi], ax
  00031	74 3c		 je	 SHORT $L190341

; 318  : 			break;
; 319  : 
; 320  : 		int nTone = IsTone(*pwSrc);

  00033	66 8b 17	 mov	 dx, WORD PTR [edi]
  00036	33 c0		 xor	 eax, eax
  00038	eb 06 8d 9b 00
	00 00 00	 npad	 8
$L190326:
  00040	66 3b 14 45 00
	00 00 00	 cmp	 dx, WORD PTR ?wVTNCombiningDia@VTN@@3PAGA[eax*2]
  00048	74 08		 je	 SHORT $L190324
  0004a	40		 inc	 eax
  0004b	83 f8 05	 cmp	 eax, 5
  0004e	7c f0		 jl	 SHORT $L190326

; 315  : 		pwSrc++;
; 316  : 
; 317  : 		if(*pwDest == NULL)

  00050	eb 15		 jmp	 SHORT $L190338

; 318  : 			break;
; 319  : 
; 320  : 		int nTone = IsTone(*pwSrc);

$L190324:

; 321  : 		if(nTone > -1)

  00052	83 f8 ff	 cmp	 eax, -1
  00055	7e 10		 jle	 SHORT $L190338

; 322  : 		{
; 323  : 			*pwDest = ComposeTone(*pwDest, nTone);

  00057	50		 push	 eax
  00058	51		 push	 ecx
  00059	e8 00 00 00 00	 call	 ?ComposeTone@@YAGGH@Z	; ComposeTone
  0005e	83 c4 08	 add	 esp, 8
  00061	66 89 06	 mov	 WORD PTR [esi], ax

; 324  : 			pwSrc++;

  00064	83 c7 02	 add	 edi, 2
$L190338:

; 325  : 		}
; 326  : 		pwDest++;

  00067	83 c6 02	 add	 esi, 2
  0006a	43		 inc	 ebx
  0006b	3b dd		 cmp	 ebx, ebp
  0006d	7c b3		 jl	 SHORT $L190337
$L190341:
  0006f	5b		 pop	 ebx
$L190340:
  00070	5d		 pop	 ebp
$L190339:
  00071	5e		 pop	 esi
$L190334:
  00072	5f		 pop	 edi

; 327  : 	}
; 328  : }

  00073	c3		 ret	 0
?ComposeString@@YAXPAG0H@Z ENDP				; ComposeString
_TEXT	ENDS
PUBLIC	?DecomposeString@@YAXPAG0H@Z			; DecomposeString
; Function compile flags: /Ogty
;	COMDAT ?DecomposeString@@YAXPAG0H@Z
_TEXT	SEGMENT
_nTone$ = -4						; size = 4
_nLetterLine$ = 8					; size = 4
_pwSrc$ = 8						; size = 4
_pwDest$ = 12						; size = 4
_nSize$ = 16						; size = 4
?DecomposeString@@YAXPAG0H@Z PROC NEAR			; DecomposeString, COMDAT

; 332  : {

  00000	51		 push	 ecx
  00001	53		 push	 ebx

; 333  : 	using namespace VTN;
; 334  : 
; 335  : 	if(pwSrc == NULL || pwDest == NULL || nSize <= 0)

  00002	8b 5c 24 0c	 mov	 ebx, DWORD PTR _pwSrc$[esp+4]
  00006	85 db		 test	 ebx, ebx
  00008	74 67		 je	 SHORT $L189536
  0000a	56		 push	 esi
  0000b	8b 74 24 14	 mov	 esi, DWORD PTR _pwDest$[esp+8]
  0000f	85 f6		 test	 esi, esi
  00011	74 5d		 je	 SHORT $L190346
  00013	8b 44 24 18	 mov	 eax, DWORD PTR _nSize$[esp+8]
  00017	85 c0		 test	 eax, eax
  00019	7e 55		 jle	 SHORT $L190346
  0001b	55		 push	 ebp
  0001c	57		 push	 edi

; 336  : 		return;
; 337  : 
; 338  : 	int nLetterLine;
; 339  : 	int nTone;
; 340  : 
; 341  : 	for(int i=0; i<nSize; i++)

  0001d	8b e8		 mov	 ebp, eax
  0001f	90		 npad	 1
$L189534:

; 342  : 	{
; 343  : 		if(GetTone(*pwSrc, &nLetterLine, &nTone))

  00020	33 ff		 xor	 edi, edi
  00022	66 8b 3b	 mov	 di, WORD PTR [ebx]
  00025	8d 44 24 10	 lea	 eax, DWORD PTR _nTone$[esp+20]
  00029	50		 push	 eax
  0002a	8d 4c 24 1c	 lea	 ecx, DWORD PTR _nLetterLine$[esp+20]
  0002e	51		 push	 ecx
  0002f	57		 push	 edi
  00030	e8 00 00 00 00	 call	 ?GetTone@@YA_NGPAH0@Z	; GetTone
  00035	83 c4 0c	 add	 esp, 12			; 0000000cH
  00038	84 c0		 test	 al, al
  0003a	74 26		 je	 SHORT $L189537

; 344  : 		{
; 345  : 			*pwDest = wVTNToneChar[nLetterLine][5];

  0003c	8b 44 24 18	 mov	 eax, DWORD PTR _nLetterLine$[esp+16]

; 346  : 			++pwDest;
; 347  : 			*pwDest = wVTNCombiningDia[nTone];

  00040	8b 4c 24 10	 mov	 ecx, DWORD PTR _nTone$[esp+20]
  00044	8d 14 40	 lea	 edx, DWORD PTR [eax+eax*2]
  00047	66 8b 04 95 0a
	00 00 00	 mov	 ax, WORD PTR ?wVTNToneChar@VTN@@3PAY05GA[edx*4+10]
  0004f	66 89 06	 mov	 WORD PTR [esi], ax
  00052	66 8b 14 4d 00
	00 00 00	 mov	 dx, WORD PTR ?wVTNCombiningDia@VTN@@3PAGA[ecx*2]
  0005a	83 c6 02	 add	 esi, 2
  0005d	66 89 16	 mov	 WORD PTR [esi], dx

; 348  : 		}
; 349  : 		else

  00060	eb 03		 jmp	 SHORT $L189538
$L189537:

; 350  : 		{
; 351  : 			*pwDest = *pwSrc;

  00062	66 89 3e	 mov	 WORD PTR [esi], di
$L189538:

; 352  : 		}
; 353  : 		++pwSrc;

  00065	83 c3 02	 add	 ebx, 2

; 354  : 		++pwDest;

  00068	83 c6 02	 add	 esi, 2
  0006b	4d		 dec	 ebp
  0006c	75 b2		 jne	 SHORT $L189534
  0006e	5f		 pop	 edi
  0006f	5d		 pop	 ebp
$L190346:
  00070	5e		 pop	 esi
$L189536:
  00071	5b		 pop	 ebx

; 355  : 	}
; 356  : }

  00072	59		 pop	 ecx
  00073	c3		 ret	 0
?DecomposeString@@YAXPAG0H@Z ENDP			; DecomposeString
_TEXT	ENDS
PUBLIC	?IsCyrillic@@YAHD@Z				; IsCyrillic
;	COMDAT ?bCyrill@?3??IsCyrillic@@YAHD@Z@4PAHA
_DATA	SEGMENT
?bCyrill@?3??IsCyrillic@@YAHD@Z@4PAHA DD 00H		; `IsCyrillic'::`4'::bCyrill
	DD	00H
	DD	00H
	DD	00H
	DD	00H
	DD	00H
	DD	00H
	DD	00H
	DD	00H
	DD	00H
	DD	00H
	DD	00H
	DD	00H
	DD	00H
	DD	00H
	DD	00H
	DD	00H
	DD	00H
	DD	00H
	DD	00H
	DD	00H
	DD	00H
	DD	00H
	DD	00H
	DD	00H
	DD	00H
	DD	00H
	DD	00H
	DD	00H
	DD	00H
	DD	00H
	DD	00H
	DD	00H
	DD	00H
	DD	00H
	DD	00H
	DD	00H
	DD	00H
	DD	00H
	DD	00H
	DD	00H
	DD	00H
	DD	00H
	DD	00H
	DD	00H
	DD	00H
	DD	00H
	DD	00H
	DD	00H
	DD	00H
	DD	00H
	DD	00H
	DD	00H
	DD	00H
	DD	00H
	DD	00H
	DD	00H
	DD	00H
	DD	00H
	DD	00H
	DD	00H
	DD	00H
	DD	00H
	DD	00H
	DD	00H
	DD	00H
	DD	00H
	DD	00H
	DD	00H
	DD	00H
	DD	00H
	DD	00H
	DD	00H
	DD	00H
	DD	00H
	DD	00H
	DD	00H
	DD	00H
	DD	00H
	DD	00H
	DD	00H
	DD	00H
	DD	00H
	DD	00H
	DD	00H
	DD	00H
	DD	00H
	DD	00H
	DD	00H
	DD	00H
	DD	00H
	DD	00H
	DD	00H
	DD	00H
	DD	00H
	DD	00H
	DD	00H
	DD	00H
	DD	00H
	DD	00H
	DD	00H
	DD	00H
	DD	00H
	DD	00H
	DD	00H
	DD	00H
	DD	00H
	DD	00H
	DD	00H
	DD	00H
	DD	00H
	DD	00H
	DD	00H
	DD	00H
	DD	00H
	DD	00H
	DD	00H
	DD	00H
	DD	00H
	DD	00H
	DD	00H
	DD	00H
	DD	00H
	DD	00H
	DD	00H
	DD	00H
	DD	00H
	DD	00H
	DD	00H
	DD	00H
	DD	00H
	DD	00H
	DD	00H
	DD	00H
	DD	00H
	DD	00H
	DD	00H
	DD	00H
	DD	00H
	DD	00H
	DD	00H
	DD	00H
	DD	00H
	DD	00H
	DD	00H
	DD	00H
	DD	00H
	DD	00H
	DD	00H
	DD	00H
	DD	00H
	DD	00H
	DD	00H
	DD	00H
	DD	00H
	DD	00H
	DD	00H
	DD	00H
	DD	00H
	DD	00H
	DD	00H
	DD	00H
	DD	00H
	DD	00H
	DD	00H
	DD	00H
	DD	00H
	DD	00H
	DD	01H
	DD	00H
	DD	00H
	DD	00H
	DD	00H
	DD	00H
	DD	00H
	DD	00H
	DD	00H
	DD	00H
	DD	00H
	DD	00H
	DD	00H
	DD	00H
	DD	00H
	DD	00H
	DD	01H
	DD	00H
	DD	00H
	DD	00H
	DD	00H
	DD	00H
	DD	00H
	DD	00H
	DD	01H
	DD	01H
	DD	01H
	DD	01H
	DD	01H
	DD	01H
	DD	01H
	DD	01H
	DD	01H
	DD	01H
	DD	01H
	DD	01H
	DD	01H
	DD	01H
	DD	01H
	DD	01H
	DD	01H
	DD	01H
	DD	01H
	DD	01H
	DD	01H
	DD	01H
	DD	01H
	DD	01H
	DD	01H
	DD	01H
	DD	01H
	DD	01H
	DD	01H
	DD	01H
	DD	01H
	DD	01H
	DD	01H
	DD	01H
	DD	01H
	DD	01H
	DD	01H
	DD	01H
	DD	01H
	DD	01H
	DD	01H
	DD	01H
	DD	01H
	DD	01H
	DD	01H
	DD	01H
	DD	01H
	DD	01H
	DD	01H
	DD	01H
	DD	01H
	DD	01H
	DD	01H
	DD	01H
	DD	01H
	DD	01H
	DD	01H
	DD	01H
	DD	01H
	DD	01H
	DD	01H
	DD	01H
	DD	01H
	DD	01H
; Function compile flags: /Ogty
_DATA	ENDS
;	COMDAT ?IsCyrillic@@YAHD@Z
_TEXT	SEGMENT
_chSrc$ = 8						; size = 1
?IsCyrillic@@YAHD@Z PROC NEAR				; IsCyrillic, COMDAT

; 361  : 	if( ::GetLanguage() != LANG_RUS )

  00000	e8 00 00 00 00	 call	 ?GetLanguage@@YAHXZ	; GetLanguage
  00005	83 f8 0c	 cmp	 eax, 12			; 0000000cH
  00008	74 03		 je	 SHORT $L189542

; 362  : 		return FALSE;

  0000a	33 c0		 xor	 eax, eax

; 386  : }

  0000c	c3		 ret	 0
$L189542:

; 363  : 
; 364  : 	BYTE c = chSrc & 0x000000ff;
; 365  : 	static BOOL bCyrill[256] = 
; 366  : 	{//	0x00	0x01	0x02	0x03	0x04	0x05	0x06	0x07	0x08	0x09	0x0a	0x0b	0x0c	0x0d	0x0e	0x0f
; 367  : 		FALSE, 	FALSE, 	FALSE, 	FALSE, 	FALSE, 	FALSE, 	FALSE, 	FALSE, 	FALSE, 	FALSE, 	FALSE, 	FALSE, 	FALSE, 	FALSE, 	FALSE, 	FALSE,	// 0x00
; 368  : 		FALSE, 	FALSE, 	FALSE, 	FALSE, 	FALSE, 	FALSE, 	FALSE, 	FALSE, 	FALSE, 	FALSE, 	FALSE, 	FALSE, 	FALSE, 	FALSE, 	FALSE, 	FALSE,	// 0x10
; 369  : 		FALSE, 	FALSE, 	FALSE, 	FALSE, 	FALSE, 	FALSE, 	FALSE, 	FALSE, 	FALSE, 	FALSE, 	FALSE, 	FALSE, 	FALSE, 	FALSE, 	FALSE, 	FALSE,	// 0x20
; 370  : 		FALSE, 	FALSE, 	FALSE, 	FALSE, 	FALSE, 	FALSE, 	FALSE, 	FALSE, 	FALSE, 	FALSE, 	FALSE, 	FALSE, 	FALSE, 	FALSE, 	FALSE, 	FALSE,	// 0x30
; 371  : 		FALSE, 	FALSE, 	FALSE, 	FALSE, 	FALSE, 	FALSE, 	FALSE, 	FALSE, 	FALSE, 	FALSE, 	FALSE, 	FALSE, 	FALSE, 	FALSE, 	FALSE, 	FALSE,	// 0x40
; 372  : 		FALSE, 	FALSE, 	FALSE, 	FALSE, 	FALSE, 	FALSE, 	FALSE, 	FALSE, 	FALSE, 	FALSE, 	FALSE, 	FALSE, 	FALSE, 	FALSE, 	FALSE, 	FALSE,	// 0x50
; 373  : 		FALSE, 	FALSE, 	FALSE, 	FALSE, 	FALSE, 	FALSE, 	FALSE, 	FALSE, 	FALSE, 	FALSE, 	FALSE, 	FALSE, 	FALSE, 	FALSE, 	FALSE, 	FALSE,	// 0x60
; 374  : 		FALSE, 	FALSE, 	FALSE, 	FALSE, 	FALSE, 	FALSE, 	FALSE, 	FALSE, 	FALSE, 	FALSE, 	FALSE, 	FALSE, 	FALSE, 	FALSE, 	FALSE, 	FALSE,	// 0x70
; 375  : 		FALSE, 	FALSE, 	FALSE, 	FALSE, 	FALSE, 	FALSE, 	FALSE, 	FALSE, 	FALSE, 	FALSE, 	FALSE, 	FALSE, 	FALSE, 	FALSE, 	FALSE, 	FALSE,	// 0x80
; 376  : 		FALSE, 	FALSE, 	FALSE, 	FALSE, 	FALSE, 	FALSE, 	FALSE, 	FALSE, 	FALSE, 	FALSE, 	FALSE, 	FALSE, 	FALSE, 	FALSE, 	FALSE, 	FALSE,	// 0x90
; 377  : 		FALSE, 	FALSE, 	FALSE, 	FALSE, 	FALSE, 	FALSE, 	FALSE, 	FALSE, 	TRUE, 	FALSE, 	FALSE, 	FALSE, 	FALSE, 	FALSE, 	FALSE, 	FALSE,	// 0xa0
; 378  : 		FALSE, 	FALSE, 	FALSE, 	FALSE, 	FALSE, 	FALSE, 	FALSE, 	FALSE, 	TRUE, 	FALSE, 	FALSE, 	FALSE, 	FALSE, 	FALSE, 	FALSE, 	FALSE,	// 0xb0
; 379  : 		TRUE, 	TRUE, 	TRUE, 	TRUE, 	TRUE, 	TRUE, 	TRUE, 	TRUE, 	TRUE, 	TRUE, 	TRUE, 	TRUE, 	TRUE, 	TRUE, 	TRUE, 	TRUE,	// 0xc0
; 380  : 		TRUE, 	TRUE, 	TRUE, 	TRUE, 	TRUE, 	TRUE, 	TRUE, 	TRUE, 	TRUE, 	TRUE, 	TRUE, 	TRUE, 	TRUE, 	TRUE, 	TRUE, 	TRUE,	// 0xd0
; 381  : 		TRUE, 	TRUE, 	TRUE, 	TRUE, 	TRUE, 	TRUE, 	TRUE, 	TRUE, 	TRUE, 	TRUE, 	TRUE, 	TRUE, 	TRUE, 	TRUE, 	TRUE, 	TRUE,	// 0xe0
; 382  : 		TRUE, 	TRUE, 	TRUE, 	TRUE, 	TRUE, 	TRUE, 	TRUE, 	TRUE, 	TRUE, 	TRUE, 	TRUE, 	TRUE, 	TRUE, 	TRUE, 	TRUE, 	TRUE	// 0xf0
; 383  : 	};
; 384  : 
; 385  : 	return bCyrill[c];

  0000d	0f b6 44 24 04	 movzx	 eax, BYTE PTR _chSrc$[esp-4]
  00012	8b 04 85 00 00
	00 00		 mov	 eax, DWORD PTR ?bCyrill@?3??IsCyrillic@@YAHD@Z@4PAHA[eax*4]

; 386  : }

  00019	c3		 ret	 0
?IsCyrillic@@YAHD@Z ENDP				; IsCyrillic
_TEXT	ENDS
PUBLIC	?WideCharToMultiByteEx@@YAHIKPBGHPADHPBDPAH@Z	; WideCharToMultiByteEx
EXTRN	_wcslen:NEAR
EXTRN	??_U@YAPAXI@Z:NEAR				; operator new[]
EXTRN	??_V@YAXPAX@Z:NEAR				; operator delete[]
EXTRN	__imp__WideCharToMultiByte@32:NEAR
; Function compile flags: /Ogty
;	COMDAT ?WideCharToMultiByteEx@@YAHIKPBGHPADHPBDPAH@Z
_TEXT	SEGMENT
_pwDest$189563 = -4					; size = 4
_CodePage$ = 8						; size = 4
_dwFlags$ = 12						; size = 4
_lpWideCharStr$ = 16					; size = 4
_cchWideChar$ = 20					; size = 4
_lpMultiByteStr$ = 24					; size = 4
_cchMultiByte$ = 28					; size = 4
_lpDefaultChar$ = 32					; size = 4
_lpUsedDefaultChar$ = 36				; size = 4
?WideCharToMultiByteEx@@YAHIKPBGHPADHPBDPAH@Z PROC NEAR	; WideCharToMultiByteEx, COMDAT

; 397  : {

  00000	51		 push	 ecx

; 398  : 	int nLength;
; 399  : 	if(::GetLanguage() == LANG_VTN && lpMultiByteStr != NULL && cchMultiByte > 0)

  00001	e8 00 00 00 00	 call	 ?GetLanguage@@YAHXZ	; GetLanguage
  00006	83 f8 0b	 cmp	 eax, 11			; 0000000bH
  00009	0f 85 b5 00 00
	00		 jne	 $L190357
  0000f	8b 44 24 18	 mov	 eax, DWORD PTR _lpMultiByteStr$[esp]
  00013	85 c0		 test	 eax, eax
  00015	0f 84 a9 00 00
	00		 je	 $L190357
  0001b	8b 44 24 1c	 mov	 eax, DWORD PTR _cchMultiByte$[esp]
  0001f	85 c0		 test	 eax, eax
  00021	0f 8e 9d 00 00
	00		 jle	 $L190357
  00027	53		 push	 ebx
  00028	55		 push	 ebp
  00029	56		 push	 esi

; 400  : 	{
; 401  : 		int nSize = wcslen((LPCWSTR)lpWideCharStr);

  0002a	8b 74 24 1c	 mov	 esi, DWORD PTR _lpWideCharStr$[esp+12]
  0002e	57		 push	 edi
  0002f	56		 push	 esi
  00030	e8 00 00 00 00	 call	 _wcslen
  00035	8b e8		 mov	 ebp, eax

; 402  : 		wchar_t* pwSrc = new wchar_t[nSize+1];

  00037	8d 7c 2d 02	 lea	 edi, DWORD PTR [ebp+ebp+2]
  0003b	57		 push	 edi
  0003c	e8 00 00 00 00	 call	 ??_U@YAPAXI@Z		; operator new[]
  00041	8b d8		 mov	 ebx, eax

; 403  : 		wchar_t* pwDest = new wchar_t[(nSize*2)+1];

  00043	8d 04 ad 02 00
	00 00		 lea	 eax, DWORD PTR [ebp*4+2]
  0004a	50		 push	 eax
  0004b	e8 00 00 00 00	 call	 ??_U@YAPAXI@Z		; operator new[]

; 404  : 		memcpy(pwSrc, lpWideCharStr, sizeof(wchar_t)*(nSize+1));

  00050	8b cf		 mov	 ecx, edi
  00052	8b d1		 mov	 edx, ecx
  00054	c1 e9 02	 shr	 ecx, 2
  00057	8b fb		 mov	 edi, ebx
  00059	f3 a5		 rep movsd
  0005b	8b ca		 mov	 ecx, edx
  0005d	83 e1 03	 and	 ecx, 3

; 405  : 		DecomposeString(pwSrc, pwDest, nSize+1);

  00060	45		 inc	 ebp
  00061	55		 push	 ebp
  00062	50		 push	 eax
  00063	53		 push	 ebx
  00064	89 44 24 28	 mov	 DWORD PTR _pwDest$189563[esp+44], eax
  00068	f3 a4		 rep movsb
  0006a	e8 00 00 00 00	 call	 ?DecomposeString@@YAXPAG0H@Z ; DecomposeString

; 406  : 		nLength = WideCharToMultiByte(CodePage, dwFlags, pwDest, cchWideChar, lpMultiByteStr, cchMultiByte, lpDefaultChar, lpUsedDefaultChar);

  0006f	8b 44 24 4c	 mov	 eax, DWORD PTR _lpUsedDefaultChar$[esp+40]
  00073	8b 4c 24 48	 mov	 ecx, DWORD PTR _lpDefaultChar$[esp+40]
  00077	8b 54 24 44	 mov	 edx, DWORD PTR _cchMultiByte$[esp+40]
  0007b	8b 74 24 28	 mov	 esi, DWORD PTR _pwDest$189563[esp+44]
  0007f	83 c4 18	 add	 esp, 24			; 00000018H
  00082	50		 push	 eax
  00083	8b 44 24 2c	 mov	 eax, DWORD PTR _lpMultiByteStr$[esp+20]
  00087	51		 push	 ecx
  00088	8b 4c 24 2c	 mov	 ecx, DWORD PTR _cchWideChar$[esp+24]
  0008c	52		 push	 edx
  0008d	8b 54 24 28	 mov	 edx, DWORD PTR _dwFlags$[esp+28]
  00091	50		 push	 eax
  00092	8b 44 24 28	 mov	 eax, DWORD PTR _CodePage$[esp+32]
  00096	51		 push	 ecx
  00097	56		 push	 esi
  00098	52		 push	 edx
  00099	50		 push	 eax
  0009a	ff 15 00 00 00
	00		 call	 DWORD PTR __imp__WideCharToMultiByte@32

; 407  : 		SAFE_DELETE_ARRAY(pwSrc);

  000a0	85 db		 test	 ebx, ebx
  000a2	8b f8		 mov	 edi, eax
  000a4	74 09		 je	 SHORT $L189567
  000a6	53		 push	 ebx
  000a7	e8 00 00 00 00	 call	 ??_V@YAXPAX@Z		; operator delete[]
  000ac	83 c4 04	 add	 esp, 4
$L189567:

; 408  : 		SAFE_DELETE_ARRAY(pwDest);

  000af	85 f6		 test	 esi, esi
  000b1	74 09		 je	 SHORT $L190356
  000b3	56		 push	 esi
  000b4	e8 00 00 00 00	 call	 ??_V@YAXPAX@Z		; operator delete[]
  000b9	83 c4 04	 add	 esp, 4
$L190356:

; 412  : 
; 413  : 	return nLength;

  000bc	8b c7		 mov	 eax, edi
  000be	5f		 pop	 edi
  000bf	5e		 pop	 esi
  000c0	5d		 pop	 ebp
  000c1	5b		 pop	 ebx

; 414  : }

  000c2	59		 pop	 ecx
  000c3	c3		 ret	 0
$L190357:

; 409  : 	}
; 410  : 	else
; 411  : 		nLength = WideCharToMultiByte(CodePage, dwFlags, lpWideCharStr, cchWideChar, lpMultiByteStr, cchMultiByte, lpDefaultChar, lpUsedDefaultChar);

  000c4	8b 4c 24 24	 mov	 ecx, DWORD PTR _lpUsedDefaultChar$[esp]
  000c8	8b 54 24 20	 mov	 edx, DWORD PTR _lpDefaultChar$[esp]
  000cc	8b 44 24 1c	 mov	 eax, DWORD PTR _cchMultiByte$[esp]
  000d0	51		 push	 ecx
  000d1	8b 4c 24 1c	 mov	 ecx, DWORD PTR _lpMultiByteStr$[esp+4]
  000d5	52		 push	 edx
  000d6	8b 54 24 1c	 mov	 edx, DWORD PTR _cchWideChar$[esp+8]
  000da	50		 push	 eax
  000db	8b 44 24 1c	 mov	 eax, DWORD PTR _lpWideCharStr$[esp+12]
  000df	51		 push	 ecx
  000e0	8b 4c 24 1c	 mov	 ecx, DWORD PTR _dwFlags$[esp+16]
  000e4	52		 push	 edx
  000e5	8b 54 24 1c	 mov	 edx, DWORD PTR _CodePage$[esp+20]
  000e9	50		 push	 eax
  000ea	51		 push	 ecx
  000eb	52		 push	 edx
  000ec	ff 15 00 00 00
	00		 call	 DWORD PTR __imp__WideCharToMultiByte@32

; 414  : }

  000f2	59		 pop	 ecx
  000f3	c3		 ret	 0
?WideCharToMultiByteEx@@YAHIKPBGHPADHPBDPAH@Z ENDP	; WideCharToMultiByteEx
_TEXT	ENDS
PUBLIC	?MultiByteToWideCharEx@@YAHIKPBDHPAGH@Z		; MultiByteToWideCharEx
EXTRN	__imp__lstrlenA@4:NEAR
EXTRN	__imp__MultiByteToWideChar@24:NEAR
; Function compile flags: /Ogty
;	COMDAT ?MultiByteToWideCharEx@@YAHIKPBDHPAGH@Z
_TEXT	SEGMENT
_CodePage$ = 8						; size = 4
_dwFlags$ = 12						; size = 4
_lpMultiByteStr$ = 16					; size = 4
_cchMultiByte$ = 20					; size = 4
_lpWideCharStr$ = 24					; size = 4
_cchWideChar$ = 28					; size = 4
?MultiByteToWideCharEx@@YAHIKPBDHPAGH@Z PROC NEAR	; MultiByteToWideCharEx, COMDAT

; 423  : {

  00000	55		 push	 ebp

; 424  : 	int nLength;
; 425  : 	if(::GetLanguage() == LANG_VTN && lpWideCharStr != NULL && cchWideChar > 0)

  00001	e8 00 00 00 00	 call	 ?GetLanguage@@YAHXZ	; GetLanguage
  00006	8b 6c 24 18	 mov	 ebp, DWORD PTR _lpWideCharStr$[esp]
  0000a	83 f8 0b	 cmp	 eax, 11			; 0000000bH
  0000d	8b 44 24 1c	 mov	 eax, DWORD PTR _cchWideChar$[esp]
  00011	75 61		 jne	 SHORT $L189583
  00013	85 ed		 test	 ebp, ebp
  00015	74 5d		 je	 SHORT $L189583
  00017	85 c0		 test	 eax, eax
  00019	7e 59		 jle	 SHORT $L189583
  0001b	53		 push	 ebx

; 426  : 	{
; 427  : 		int nSize = lstrlen(lpMultiByteStr);

  0001c	8b 5c 24 14	 mov	 ebx, DWORD PTR _lpMultiByteStr$[esp+4]
  00020	56		 push	 esi
  00021	57		 push	 edi
  00022	53		 push	 ebx
  00023	ff 15 00 00 00
	00		 call	 DWORD PTR __imp__lstrlenA@4
  00029	8b f8		 mov	 edi, eax

; 428  : 		wchar_t* pwSrc = new wchar_t[nSize+1];

  0002b	8d 44 3f 02	 lea	 eax, DWORD PTR [edi+edi+2]
  0002f	50		 push	 eax
  00030	e8 00 00 00 00	 call	 ??_U@YAPAXI@Z		; operator new[]

; 429  : 		nLength = MultiByteToWideChar(CodePage, dwFlags, lpMultiByteStr, cchMultiByte, pwSrc, nSize+1);

  00035	8b 4c 24 24	 mov	 ecx, DWORD PTR _cchMultiByte$[esp+16]
  00039	8b 54 24 1c	 mov	 edx, DWORD PTR _dwFlags$[esp+16]
  0003d	83 c4 04	 add	 esp, 4
  00040	8b f0		 mov	 esi, eax
  00042	8b 44 24 14	 mov	 eax, DWORD PTR _CodePage$[esp+12]
  00046	47		 inc	 edi
  00047	57		 push	 edi
  00048	56		 push	 esi
  00049	51		 push	 ecx
  0004a	53		 push	 ebx
  0004b	52		 push	 edx
  0004c	50		 push	 eax
  0004d	ff 15 00 00 00
	00		 call	 DWORD PTR __imp__MultiByteToWideChar@24
  00053	8b f8		 mov	 edi, eax

; 430  : 		ComposeString(pwSrc, lpWideCharStr, nLength);

  00055	57		 push	 edi
  00056	55		 push	 ebp
  00057	56		 push	 esi
  00058	e8 00 00 00 00	 call	 ?ComposeString@@YAXPAG0H@Z ; ComposeString
  0005d	83 c4 0c	 add	 esp, 12			; 0000000cH

; 431  : 		SAFE_DELETE_ARRAY(pwSrc);

  00060	85 f6		 test	 esi, esi
  00062	74 09		 je	 SHORT $L190365
  00064	56		 push	 esi
  00065	e8 00 00 00 00	 call	 ??_V@YAXPAX@Z		; operator delete[]
  0006a	83 c4 04	 add	 esp, 4
$L190365:

; 435  : 
; 436  : 	return nLength;

  0006d	8b c7		 mov	 eax, edi
  0006f	5f		 pop	 edi
  00070	5e		 pop	 esi
  00071	5b		 pop	 ebx
  00072	5d		 pop	 ebp

; 437  : }

  00073	c3		 ret	 0
$L189583:

; 432  : 	}
; 433  : 	else
; 434  : 		nLength = MultiByteToWideChar(CodePage, dwFlags, lpMultiByteStr, cchMultiByte, lpWideCharStr, cchWideChar);

  00074	8b 4c 24 14	 mov	 ecx, DWORD PTR _cchMultiByte$[esp]
  00078	8b 54 24 10	 mov	 edx, DWORD PTR _lpMultiByteStr$[esp]
  0007c	50		 push	 eax
  0007d	8b 44 24 10	 mov	 eax, DWORD PTR _dwFlags$[esp+4]
  00081	55		 push	 ebp
  00082	51		 push	 ecx
  00083	8b 4c 24 14	 mov	 ecx, DWORD PTR _CodePage$[esp+12]
  00087	52		 push	 edx
  00088	50		 push	 eax
  00089	51		 push	 ecx
  0008a	ff 15 00 00 00
	00		 call	 DWORD PTR __imp__MultiByteToWideChar@24
  00090	5d		 pop	 ebp

; 437  : }

  00091	c3		 ret	 0
?MultiByteToWideCharEx@@YAHIKPBDHPAGH@Z ENDP		; MultiByteToWideCharEx
_TEXT	ENDS
PUBLIC	?Free@CScanner@@QAEXXZ				; CScanner::Free
; Function compile flags: /Ogty
;	COMDAT ?Free@CScanner@@QAEXXZ
_TEXT	SEGMENT
?Free@CScanner@@QAEXXZ PROC NEAR			; CScanner::Free, COMDAT
; _this$ = ecx

; 468  : {

  00000	53		 push	 ebx
  00001	56		 push	 esi
  00002	8b f1		 mov	 esi, ecx

; 469  : 	if(!m_bMemFlag && m_pBuf) 

  00004	8a 46 08	 mov	 al, BYTE PTR [esi+8]
  00007	33 db		 xor	 ebx, ebx
  00009	3a c3		 cmp	 al, bl
  0000b	75 10		 jne	 SHORT $L190372
  0000d	8b 46 1c	 mov	 eax, DWORD PTR [esi+28]
  00010	3b c3		 cmp	 eax, ebx
  00012	74 09		 je	 SHORT $L190372

; 470  : 		safe_delete_array( m_pBuf );

  00014	50		 push	 eax
  00015	e8 00 00 00 00	 call	 ??_V@YAXPAX@Z		; operator delete[]
  0001a	83 c4 04	 add	 esp, 4
$L190372:

; 471  : 	m_pProg = m_pBuf = 0;

  0001d	89 5e 1c	 mov	 DWORD PTR [esi+28], ebx
  00020	89 5e 18	 mov	 DWORD PTR [esi+24], ebx
  00023	5e		 pop	 esi
  00024	5b		 pop	 ebx

; 472  : }

  00025	c3		 ret	 0
?Free@CScanner@@QAEXXZ ENDP				; CScanner::Free
_TEXT	ENDS
PUBLIC	?Read@CScanner@@IAEHPAVCFileIO@@H@Z		; CScanner::Read
; Function compile flags: /Ogty
;	COMDAT ?Read@CScanner@@IAEHPAVCFileIO@@H@Z
_TEXT	SEGMENT
_pFile$ = 8						; size = 4
___formal$ = 12						; size = 4
?Read@CScanner@@IAEHPAVCFileIO@@H@Z PROC NEAR		; CScanner::Read, COMDAT
; _this$ = ecx

; 475  : {

  00000	53		 push	 ebx
  00001	55		 push	 ebp

; 476  : 	m_bMemFlag = 0;
; 477  : 	m_nProgSize = pFile->GetLength();

  00002	8b 6c 24 0c	 mov	 ebp, DWORD PTR _pFile$[esp+4]
  00006	56		 push	 esi
  00007	8b f1		 mov	 esi, ecx
  00009	c6 46 08 00	 mov	 BYTE PTR [esi+8], 0
  0000d	8b 45 00	 mov	 eax, DWORD PTR [ebp]
  00010	57		 push	 edi
  00011	8b cd		 mov	 ecx, ebp
  00013	ff 50 24	 call	 DWORD PTR [eax+36]

; 478  : 
; 479  : 	int nSize = m_nProgSize + 2;

  00016	8d 58 02	 lea	 ebx, DWORD PTR [eax+2]

; 480  : 	char* pProg = new char[ nSize ];

  00019	53		 push	 ebx
  0001a	89 46 0c	 mov	 DWORD PTR [esi+12], eax
  0001d	e8 00 00 00 00	 call	 ??_U@YAPAXI@Z		; operator new[]
  00022	8b f8		 mov	 edi, eax
  00024	83 c4 04	 add	 esp, 4

; 481  : 	if( !pProg )

  00027	85 ff		 test	 edi, edi
  00029	75 07		 jne	 SHORT $L189624
  0002b	5f		 pop	 edi
  0002c	5e		 pop	 esi
  0002d	5d		 pop	 ebp
  0002e	5b		 pop	 ebx

; 506  : }

  0002f	c2 08 00	 ret	 8
$L189624:

; 482  : 		return 0;
; 483  : 
; 484  : 	m_pProg = m_pBuf = pProg;
; 485  : 	pFile->Read( m_pBuf, m_nProgSize );

  00032	8b 46 0c	 mov	 eax, DWORD PTR [esi+12]
  00035	6a 01		 push	 1
  00037	50		 push	 eax
  00038	89 7e 1c	 mov	 DWORD PTR [esi+28], edi
  0003b	89 7e 18	 mov	 DWORD PTR [esi+24], edi
  0003e	8b 55 00	 mov	 edx, DWORD PTR [ebp]
  00041	57		 push	 edi
  00042	8b cd		 mov	 ecx, ebp
  00044	ff 52 2c	 call	 DWORD PTR [edx+44]

; 486  : 	// 0xfffe 2  (0x0000) 2   m_nProgSize  .
; 487  : 	*(pProg + m_nProgSize ) = '\0';

  00047	8b 4e 0c	 mov	 ecx, DWORD PTR [esi+12]
  0004a	c6 04 0f 00	 mov	 BYTE PTR [edi+ecx], 0

; 488  : 	*(pProg + m_nProgSize + 1 ) = '\0';

  0004e	8b 56 0c	 mov	 edx, DWORD PTR [esi+12]
  00051	c6 44 3a 01 00	 mov	 BYTE PTR [edx+edi+1], 0

; 489  : 
; 490  : 	if( (BYTE)*(pProg + 0 ) == 0xff && (BYTE)*(pProg + 1 ) == 0xfe ) // is unicode ?

  00056	80 3f ff	 cmp	 BYTE PTR [edi], 255	; 000000ffH
  00059	75 50		 jne	 SHORT $L189627
  0005b	80 7f 01 fe	 cmp	 BYTE PTR [edi+1], 254	; 000000feH
  0005f	75 4a		 jne	 SHORT $L189627

; 491  : 	{
; 492  : 		//      
; 493  : 		char* lpMultiByte = new char[ nSize ];

  00061	53		 push	 ebx
  00062	e8 00 00 00 00	 call	 ??_U@YAPAXI@Z		; operator new[]

; 494  : 		int nResult = WideCharToMultiByteEx( g_codePage, 0, 
; 495  : 			                               (LPCWSTR)(pProg + 2), -1, 
; 496  : 			                               lpMultiByte, nSize, 
; 497  : 										   NULL, NULL );

  00067	0f b7 0d 00 00
	00 00		 movzx	 ecx, WORD PTR ?g_codePage@@3GA ; g_codePage
  0006e	6a 00		 push	 0
  00070	6a 00		 push	 0
  00072	53		 push	 ebx
  00073	8b e8		 mov	 ebp, eax
  00075	55		 push	 ebp
  00076	6a ff		 push	 -1
  00078	8d 47 02	 lea	 eax, DWORD PTR [edi+2]
  0007b	50		 push	 eax
  0007c	6a 00		 push	 0
  0007e	51		 push	 ecx
  0007f	e8 00 00 00 00	 call	 ?WideCharToMultiByteEx@@YAHIKPBGHPADHPBDPAH@Z ; WideCharToMultiByteEx
  00084	83 c4 24	 add	 esp, 36			; 00000024H

; 498  : 		if( nResult > 0 )

  00087	85 c0		 test	 eax, eax
  00089	7e 17		 jle	 SHORT $L189633

; 499  : 		{
; 500  : 			lpMultiByte[nResult-1] = 0;
; 501  : 			memcpy( pProg, lpMultiByte, nResult );

  0008b	8b c8		 mov	 ecx, eax
  0008d	8b d1		 mov	 edx, ecx
  0008f	c1 e9 02	 shr	 ecx, 2
  00092	c6 44 28 ff 00	 mov	 BYTE PTR [eax+ebp-1], 0
  00097	8b f5		 mov	 esi, ebp
  00099	f3 a5		 rep movsd
  0009b	8b ca		 mov	 ecx, edx
  0009d	83 e1 03	 and	 ecx, 3
  000a0	f3 a4		 rep movsb
$L189633:

; 502  : 		}
; 503  : 		safe_delete_array( lpMultiByte );

  000a2	55		 push	 ebp
  000a3	e8 00 00 00 00	 call	 ??_V@YAXPAX@Z		; operator delete[]
  000a8	83 c4 04	 add	 esp, 4
$L189627:
  000ab	5f		 pop	 edi
  000ac	5e		 pop	 esi
  000ad	5d		 pop	 ebp

; 504  : 	}
; 505  : 	return 1;

  000ae	b8 01 00 00 00	 mov	 eax, 1
  000b3	5b		 pop	 ebx

; 506  : }

  000b4	c2 08 00	 ret	 8
?Read@CScanner@@IAEHPAVCFileIO@@H@Z ENDP		; CScanner::Read
_TEXT	ENDS
PUBLIC	?SetProg@CScanner@@QAEXPAX@Z			; CScanner::SetProg
; Function compile flags: /Ogty
;	COMDAT ?SetProg@CScanner@@QAEXPAX@Z
_TEXT	SEGMENT
_pProg$ = 8						; size = 4
?SetProg@CScanner@@QAEXPAX@Z PROC NEAR			; CScanner::SetProg, COMDAT
; _this$ = ecx

; 533  : 	m_bMemFlag = 1; m_pProg = m_pBuf = (CHAR*)pProg;

  00000	8b 44 24 04	 mov	 eax, DWORD PTR _pProg$[esp-4]
  00004	c6 41 08 01	 mov	 BYTE PTR [ecx+8], 1
  00008	89 41 1c	 mov	 DWORD PTR [ecx+28], eax
  0000b	89 41 18	 mov	 DWORD PTR [ecx+24], eax

; 534  : }

  0000e	c2 04 00	 ret	 4
?SetProg@CScanner@@QAEXPAX@Z ENDP			; CScanner::SetProg
_TEXT	ENDS
PUBLIC	?GetLineNum@CScanner@@UAEHPAX@Z			; CScanner::GetLineNum
; Function compile flags: /Ogty
;	COMDAT ?GetLineNum@CScanner@@UAEHPAX@Z
_TEXT	SEGMENT
_lpProg$ = 8						; size = 4
?GetLineNum@CScanner@@UAEHPAX@Z PROC NEAR		; CScanner::GetLineNum, COMDAT
; _this$ = ecx

; 537  : 	int nLine = 0;
; 538  : 	if( lpProg == NULL )

  00000	8b 54 24 04	 mov	 edx, DWORD PTR _lpProg$[esp-4]
  00004	33 c0		 xor	 eax, eax
  00006	85 d2		 test	 edx, edx
  00008	75 03		 jne	 SHORT $L189667

; 539  : 		lpProg = m_pProg;

  0000a	8b 51 18	 mov	 edx, DWORD PTR [ecx+24]
$L189667:

; 540  : 	
; 541  : 	CHAR* pCur = m_pBuf;

  0000d	8b 49 1c	 mov	 ecx, DWORD PTR [ecx+28]

; 542  : 	while( lpProg != pCur )

  00010	3b d1		 cmp	 edx, ecx
  00012	74 0b		 je	 SHORT $L189671
$L189670:

; 543  : 	{
; 544  : 		if( *pCur == '\r' )

  00014	80 39 0d	 cmp	 BYTE PTR [ecx], 13	; 0000000dH
  00017	75 01		 jne	 SHORT $L189672

; 545  : 			nLine++;

  00019	40		 inc	 eax
$L189672:

; 546  : 		pCur++;

  0001a	41		 inc	 ecx
  0001b	3b ca		 cmp	 ecx, edx
  0001d	75 f5		 jne	 SHORT $L189670
$L189671:

; 547  : 	}
; 548  : 	return nLine;
; 549  : }

  0001f	c2 04 00	 ret	 4
?GetLineNum@CScanner@@UAEHPAX@Z ENDP			; CScanner::GetLineNum
_TEXT	ENDS
PUBLIC	?PutBack@CScanner@@UAEXXZ			; CScanner::PutBack
; Function compile flags: /Ogty
;	COMDAT ?PutBack@CScanner@@UAEXXZ
_TEXT	SEGMENT
?PutBack@CScanner@@UAEXXZ PROC NEAR			; CScanner::PutBack, COMDAT
; _this$ = ecx

; 992  : 	for( CHAR *t = m_mszToken; *t; t++ ) 

  00000	8a 51 28	 mov	 dl, BYTE PTR [ecx+40]
  00003	84 d2		 test	 dl, dl
  00005	8d 41 28	 lea	 eax, DWORD PTR [ecx+40]
  00008	74 13		 je	 SHORT $L189887
  0000a	8d 9b 00 00 00
	00		 npad	 6
$L189885:

; 993  : 		m_pProg--;

  00010	8b 51 18	 mov	 edx, DWORD PTR [ecx+24]
  00013	4a		 dec	 edx
  00014	40		 inc	 eax
  00015	89 51 18	 mov	 DWORD PTR [ecx+24], edx
  00018	80 38 00	 cmp	 BYTE PTR [eax], 0
  0001b	75 f3		 jne	 SHORT $L189885
$L189887:

; 994  : 	if( tokenType == STRING ) //   

  0001d	83 b9 28 08 00
	00 06		 cmp	 DWORD PTR [ecx+2088], 6
  00024	75 04		 jne	 SHORT $L189888

; 995  : 		m_pProg-=2;

  00026	83 41 18 fe	 add	 DWORD PTR [ecx+24], -2	; fffffffeH
$L189888:

; 996  : }

  0002a	c3		 ret	 0
?PutBack@CScanner@@UAEXXZ ENDP				; CScanner::PutBack
_TEXT	ENDS
PUBLIC	?StringLowercase@?$ChTraitsCRT@D@ATL@@SAPADPAD@Z ; ATL::ChTraitsCRT<char>::StringLowercase
EXTRN	__mbslwr:NEAR
; Function compile flags: /Ogty
; File c:\program files\microsoft visual studio .net 2003\vc7\atlmfc\include\cstringt.h
;	COMDAT ?StringLowercase@?$ChTraitsCRT@D@ATL@@SAPADPAD@Z
_TEXT	SEGMENT
_psz$ = 8						; size = 4
?StringLowercase@?$ChTraitsCRT@D@ATL@@SAPADPAD@Z PROC NEAR ; ATL::ChTraitsCRT<char>::StringLowercase, COMDAT

; 398  : 		return reinterpret_cast< LPSTR >( _mbslwr( reinterpret_cast< unsigned char* >( psz ) ) );

  00000	e9 00 00 00 00	 jmp	 __mbslwr
?StringLowercase@?$ChTraitsCRT@D@ATL@@SAPADPAD@Z ENDP	; ATL::ChTraitsCRT<char>::StringLowercase
_TEXT	ENDS
PUBLIC	?isdigit2@@YAHD@Z				; isdigit2
; Function compile flags: /Ogty
; File c:\documents and settings\test\mes documents\source\virtuos_v17\build\program\_common\vutil.h
;	COMDAT ?isdigit2@@YAHD@Z
_TEXT	SEGMENT
_c$ = 8							; size = 1
?isdigit2@@YAHD@Z PROC NEAR				; isdigit2, COMDAT

; 105  : 	if( c >= '0' && c <= '9' )

  00000	8a 44 24 04	 mov	 al, BYTE PTR _c$[esp-4]
  00004	3c 30		 cmp	 al, 48			; 00000030H
  00006	7c 0a		 jl	 SHORT $L140120
  00008	3c 39		 cmp	 al, 57			; 00000039H
  0000a	7f 06		 jg	 SHORT $L140120

; 106  : 		return TRUE;

  0000c	b8 01 00 00 00	 mov	 eax, 1

; 109  : }

  00011	c3		 ret	 0
$L140120:

; 107  : 	else
; 108  : 		return FALSE;

  00012	33 c0		 xor	 eax, eax

; 109  : }

  00014	c3		 ret	 0
?isdigit2@@YAHD@Z ENDP					; isdigit2
_TEXT	ENDS
PUBLIC	??_7CFileIO@@6B@				; CFileIO::`vftable'
PUBLIC	??_GCFileIO@@UAEPAXI@Z				; CFileIO::`scalar deleting destructor'
PUBLIC	??0CFileIO@@QAE@XZ				; CFileIO::CFileIO
PUBLIC	?Flush@CFileIO@@UAEHXZ				; CFileIO::Flush
PUBLIC	?GetC@CFileIO@@UAEDXZ				; CFileIO::GetC
PUBLIC	?GetW@CFileIO@@UAEGXZ				; CFileIO::GetW
PUBLIC	?GetDW@CFileIO@@UAEKXZ				; CFileIO::GetDW
PUBLIC	?Tell@CFileIO@@UAEJXZ				; CFileIO::Tell
PUBLIC	?Seek@CFileIO@@UAEHJH@Z				; CFileIO::Seek
PUBLIC	?GetLength@CFileIO@@UAEJXZ			; CFileIO::GetLength
PUBLIC	?Read@CFileIO@@UAEIPAXII@Z			; CFileIO::Read
EXTRN	??_ECFileIO@@UAEPAXI@Z:NEAR			; CFileIO::`vector deleting destructor'
EXTRN	?Open@CFileIO@@UAEHPBDPAD@Z:NEAR		; CFileIO::Open
EXTRN	?Close@CFileIO@@UAEHXZ:NEAR			; CFileIO::Close
EXTRN	?Read@CFileIO@@UAEPAXXZ:NEAR			; CFileIO::Read
;	COMDAT ??_7CFileIO@@6B@
; File c:\documents and settings\test\mes documents\source\virtuos_v17\build\program\_common\file.h
CONST	SEGMENT
??_7CFileIO@@6B@ DD FLAT:??_ECFileIO@@UAEPAXI@Z		; CFileIO::`vftable'
	DD	FLAT:?Open@CFileIO@@UAEHPBDPAD@Z
	DD	FLAT:?Close@CFileIO@@UAEHXZ
	DD	FLAT:?Flush@CFileIO@@UAEHXZ
	DD	FLAT:?GetC@CFileIO@@UAEDXZ
	DD	FLAT:?GetW@CFileIO@@UAEGXZ
	DD	FLAT:?GetDW@CFileIO@@UAEKXZ
	DD	FLAT:?Tell@CFileIO@@UAEJXZ
	DD	FLAT:?Seek@CFileIO@@UAEHJH@Z
	DD	FLAT:?GetLength@CFileIO@@UAEJXZ
	DD	FLAT:?Read@CFileIO@@UAEPAXXZ
	DD	FLAT:?Read@CFileIO@@UAEIPAXII@Z
; Function compile flags: /Ogty
CONST	ENDS
;	COMDAT ??0CFileIO@@QAE@XZ
_TEXT	SEGMENT
??0CFileIO@@QAE@XZ PROC NEAR				; CFileIO::CFileIO, COMDAT
; _this$ = ecx

; 15   : 	CFileIO() { fp = NULL; } 

  00000	8b c1		 mov	 eax, ecx
  00002	c7 00 00 00 00
	00		 mov	 DWORD PTR [eax], OFFSET FLAT:??_7CFileIO@@6B@
  00008	c7 40 04 00 00
	00 00		 mov	 DWORD PTR [eax+4], 0
  0000f	c3		 ret	 0
??0CFileIO@@QAE@XZ ENDP					; CFileIO::CFileIO
_TEXT	ENDS
PUBLIC	??1CFileIO@@UAE@XZ				; CFileIO::~CFileIO
; Function compile flags: /Ogty
;	COMDAT ??1CFileIO@@UAE@XZ
_TEXT	SEGMENT
??1CFileIO@@UAE@XZ PROC NEAR				; CFileIO::~CFileIO, COMDAT
; _this$ = ecx

; 17   : 	virtual ~CFileIO() { Close(); }

  00000	c7 01 00 00 00
	00		 mov	 DWORD PTR [ecx], OFFSET FLAT:??_7CFileIO@@6B@
  00006	e9 00 00 00 00	 jmp	 ?Close@CFileIO@@UAEHXZ	; CFileIO::Close
??1CFileIO@@UAE@XZ ENDP					; CFileIO::~CFileIO
_TEXT	ENDS
EXTRN	_fflush:NEAR
; Function compile flags: /Ogty
;	COMDAT ?Flush@CFileIO@@UAEHXZ
_TEXT	SEGMENT
?Flush@CFileIO@@UAEHXZ PROC NEAR			; CFileIO::Flush, COMDAT
; _this$ = ecx

; 20   : 	virtual int	 Flush()  { return fflush( fp ); }

  00000	8b 41 04	 mov	 eax, DWORD PTR [ecx+4]
  00003	50		 push	 eax
  00004	e8 00 00 00 00	 call	 _fflush
  00009	83 c4 04	 add	 esp, 4
  0000c	c3		 ret	 0
?Flush@CFileIO@@UAEHXZ ENDP				; CFileIO::Flush
_TEXT	ENDS
EXTRN	_getc:NEAR
; Function compile flags: /Ogty
;	COMDAT ?GetC@CFileIO@@UAEDXZ
_TEXT	SEGMENT
?GetC@CFileIO@@UAEDXZ PROC NEAR				; CFileIO::GetC, COMDAT
; _this$ = ecx

; 21   : 	virtual char  GetC()  { return (char)getc( fp ); }

  00000	8b 41 04	 mov	 eax, DWORD PTR [ecx+4]
  00003	50		 push	 eax
  00004	e8 00 00 00 00	 call	 _getc
  00009	83 c4 04	 add	 esp, 4
  0000c	c3		 ret	 0
?GetC@CFileIO@@UAEDXZ ENDP				; CFileIO::GetC
_TEXT	ENDS
EXTRN	_fgetwc:NEAR
; Function compile flags: /Ogty
;	COMDAT ?GetW@CFileIO@@UAEGXZ
_TEXT	SEGMENT
?GetW@CFileIO@@UAEGXZ PROC NEAR				; CFileIO::GetW, COMDAT
; _this$ = ecx

; 22   : 	virtual WORD  GetW()  { return getwc( fp ); } 

  00000	8b 41 04	 mov	 eax, DWORD PTR [ecx+4]
  00003	50		 push	 eax
  00004	e8 00 00 00 00	 call	 _fgetwc
  00009	83 c4 04	 add	 esp, 4
  0000c	c3		 ret	 0
?GetW@CFileIO@@UAEGXZ ENDP				; CFileIO::GetW
_TEXT	ENDS
EXTRN	_fread:NEAR
; Function compile flags: /Ogty
;	COMDAT ?GetDW@CFileIO@@UAEKXZ
_TEXT	SEGMENT
_dw$ = -4						; size = 4
?GetDW@CFileIO@@UAEKXZ PROC NEAR			; CFileIO::GetDW, COMDAT
; _this$ = ecx

; 23   : 	virtual DWORD GetDW() { DWORD dw; fread( &dw, sizeof( dw ), 1, fp ); return dw; }

  00000	51		 push	 ecx
  00001	8b 41 04	 mov	 eax, DWORD PTR [ecx+4]
  00004	50		 push	 eax
  00005	6a 01		 push	 1
  00007	8d 4c 24 08	 lea	 ecx, DWORD PTR _dw$[esp+12]
  0000b	6a 04		 push	 4
  0000d	51		 push	 ecx
  0000e	e8 00 00 00 00	 call	 _fread
  00013	8b 44 24 10	 mov	 eax, DWORD PTR _dw$[esp+20]
  00017	83 c4 14	 add	 esp, 20			; 00000014H
  0001a	c3		 ret	 0
?GetDW@CFileIO@@UAEKXZ ENDP				; CFileIO::GetDW
_TEXT	ENDS
EXTRN	_ftell:NEAR
; Function compile flags: /Ogty
;	COMDAT ?Tell@CFileIO@@UAEJXZ
_TEXT	SEGMENT
?Tell@CFileIO@@UAEJXZ PROC NEAR				; CFileIO::Tell, COMDAT
; _this$ = ecx

; 24   : 	virtual long Tell()   { return ftell(fp); }

  00000	8b 41 04	 mov	 eax, DWORD PTR [ecx+4]
  00003	50		 push	 eax
  00004	e8 00 00 00 00	 call	 _ftell
  00009	83 c4 04	 add	 esp, 4
  0000c	c3		 ret	 0
?Tell@CFileIO@@UAEJXZ ENDP				; CFileIO::Tell
_TEXT	ENDS
EXTRN	_fseek:NEAR
; Function compile flags: /Ogty
;	COMDAT ?Seek@CFileIO@@UAEHJH@Z
_TEXT	SEGMENT
_offset$ = 8						; size = 4
_whence$ = 12						; size = 4
?Seek@CFileIO@@UAEHJH@Z PROC NEAR			; CFileIO::Seek, COMDAT
; _this$ = ecx

; 25   : 	virtual int  Seek( long offset, int whence ) { return fseek( fp, offset, whence ); }

  00000	8b 44 24 08	 mov	 eax, DWORD PTR _whence$[esp-4]
  00004	8b 54 24 04	 mov	 edx, DWORD PTR _offset$[esp-4]
  00008	50		 push	 eax
  00009	8b 41 04	 mov	 eax, DWORD PTR [ecx+4]
  0000c	52		 push	 edx
  0000d	50		 push	 eax
  0000e	e8 00 00 00 00	 call	 _fseek
  00013	83 c4 0c	 add	 esp, 12			; 0000000cH
  00016	c2 08 00	 ret	 8
?Seek@CFileIO@@UAEHJH@Z ENDP				; CFileIO::Seek
; Function compile flags: /Ogty
_TEXT	ENDS
;	COMDAT ?Read@CFileIO@@UAEIPAXII@Z
_TEXT	SEGMENT
_ptr$ = 8						; size = 4
_size$ = 12						; size = 4
_n$ = 16						; size = 4
?Read@CFileIO@@UAEIPAXII@Z PROC NEAR			; CFileIO::Read, COMDAT
; _this$ = ecx

; 27   : 	virtual size_t Read( void *ptr, size_t size, size_t n = 1 )	{ return fread( ptr, size, n, fp ); }

  00000	8b 41 04	 mov	 eax, DWORD PTR [ecx+4]
  00003	8b 4c 24 0c	 mov	 ecx, DWORD PTR _n$[esp-4]
  00007	8b 54 24 08	 mov	 edx, DWORD PTR _size$[esp-4]
  0000b	50		 push	 eax
  0000c	8b 44 24 08	 mov	 eax, DWORD PTR _ptr$[esp]
  00010	51		 push	 ecx
  00011	52		 push	 edx
  00012	50		 push	 eax
  00013	e8 00 00 00 00	 call	 _fread
  00018	83 c4 10	 add	 esp, 16			; 00000010H
  0001b	c2 0c 00	 ret	 12			; 0000000cH
?Read@CFileIO@@UAEIPAXII@Z ENDP				; CFileIO::Read
_TEXT	ENDS
EXTRN	??3@YAXPAX@Z:NEAR				; operator delete
; Function compile flags: /Ogty
;	COMDAT ??_GCFileIO@@UAEPAXI@Z
_TEXT	SEGMENT
___flags$ = 8						; size = 4
??_GCFileIO@@UAEPAXI@Z PROC NEAR			; CFileIO::`scalar deleting destructor', COMDAT
; _this$ = ecx
  00000	56		 push	 esi
  00001	8b f1		 mov	 esi, ecx
  00003	c7 06 00 00 00
	00		 mov	 DWORD PTR [esi], OFFSET FLAT:??_7CFileIO@@6B@
  00009	e8 00 00 00 00	 call	 ?Close@CFileIO@@UAEHXZ	; CFileIO::Close
  0000e	f6 44 24 08 01	 test	 BYTE PTR ___flags$[esp], 1
  00013	74 09		 je	 SHORT $L190417
  00015	56		 push	 esi
  00016	e8 00 00 00 00	 call	 ??3@YAXPAX@Z		; operator delete
  0001b	83 c4 04	 add	 esp, 4
$L190417:
  0001e	8b c6		 mov	 eax, esi
  00020	5e		 pop	 esi
  00021	c2 04 00	 ret	 4
??_GCFileIO@@UAEPAXI@Z ENDP				; CFileIO::`scalar deleting destructor'
_TEXT	ENDS
PUBLIC	??B?$CSimpleStringT@D$0A@@ATL@@QBEPBDXZ		; ATL::CSimpleStringT<char,0>::operator char const *
; Function compile flags: /Ogty
; File c:\program files\microsoft visual studio .net 2003\vc7\atlmfc\include\atlsimpstr.h
;	COMDAT ??B?$CSimpleStringT@D$0A@@ATL@@QBEPBDXZ
_TEXT	SEGMENT
??B?$CSimpleStringT@D$0A@@ATL@@QBEPBDXZ PROC NEAR	; ATL::CSimpleStringT<char,0>::operator char const *, COMDAT
; _this$ = ecx

; 379  : 		return( m_pszData );

  00000	8b 01		 mov	 eax, DWORD PTR [ecx]

; 380  : 	}

  00002	c3		 ret	 0
??B?$CSimpleStringT@D$0A@@ATL@@QBEPBDXZ ENDP		; ATL::CSimpleStringT<char,0>::operator char const *
_TEXT	ENDS
PUBLIC	?GetString@?$CSimpleStringT@D$0A@@ATL@@QBEPBDXZ	; ATL::CSimpleStringT<char,0>::GetString
; Function compile flags: /Ogty
;	COMDAT ?GetString@?$CSimpleStringT@D$0A@@ATL@@QBEPBDXZ
_TEXT	SEGMENT
?GetString@?$CSimpleStringT@D$0A@@ATL@@QBEPBDXZ PROC NEAR ; ATL::CSimpleStringT<char,0>::GetString, COMDAT
; _this$ = ecx

; 510  : 		return( m_pszData );

  00000	8b 01		 mov	 eax, DWORD PTR [ecx]

; 511  : 	}

  00002	c3		 ret	 0
?GetString@?$CSimpleStringT@D$0A@@ATL@@QBEPBDXZ ENDP	; ATL::CSimpleStringT<char,0>::GetString
_TEXT	ENDS
PUBLIC	?StringLength@?$CSimpleStringT@D$0A@@ATL@@SAHPBD@Z ; ATL::CSimpleStringT<char,0>::StringLength
; Function compile flags: /Ogty
;	COMDAT ?StringLength@?$CSimpleStringT@D$0A@@ATL@@SAHPBD@Z
_TEXT	SEGMENT
_psz$ = 8						; size = 4
?StringLength@?$CSimpleStringT@D$0A@@ATL@@SAHPBD@Z PROC NEAR ; ATL::CSimpleStringT<char,0>::StringLength, COMDAT

; 678  : 		if( psz == NULL )

  00000	8b 44 24 04	 mov	 eax, DWORD PTR _psz$[esp-4]
  00004	85 c0		 test	 eax, eax
  00006	75 01		 jne	 SHORT $L184226

; 683  : 	}

  00008	c3		 ret	 0
$L184226:

; 679  : 		{
; 680  : 			return( 0 );
; 681  : 		}
; 682  : 		return( int( strlen( psz ) ) );

  00009	8d 50 01	 lea	 edx, DWORD PTR [eax+1]
  0000c	8d 64 24 00	 npad	 4
$L190424:
  00010	8a 08		 mov	 cl, BYTE PTR [eax]
  00012	40		 inc	 eax
  00013	84 c9		 test	 cl, cl
  00015	75 f9		 jne	 SHORT $L190424
  00017	2b c2		 sub	 eax, edx

; 683  : 	}

  00019	c3		 ret	 0
?StringLength@?$CSimpleStringT@D$0A@@ATL@@SAHPBD@Z ENDP	; ATL::CSimpleStringT<char,0>::StringLength
_TEXT	ENDS
PUBLIC	?GetData@?$CSimpleStringT@D$0A@@ATL@@ABEPAUCStringData@2@XZ ; ATL::CSimpleStringT<char,0>::GetData
; Function compile flags: /Ogty
;	COMDAT ?GetData@?$CSimpleStringT@D$0A@@ATL@@ABEPAUCStringData@2@XZ
_TEXT	SEGMENT
?GetData@?$CSimpleStringT@D$0A@@ATL@@ABEPAUCStringData@2@XZ PROC NEAR ; ATL::CSimpleStringT<char,0>::GetData, COMDAT
; _this$ = ecx

; 731  : 		return( reinterpret_cast< CStringData* >( m_pszData )-1 );

  00000	8b 01		 mov	 eax, DWORD PTR [ecx]
  00002	83 e8 10	 sub	 eax, 16			; 00000010H

; 732  : 	}

  00005	c3		 ret	 0
?GetData@?$CSimpleStringT@D$0A@@ATL@@ABEPAUCStringData@2@XZ ENDP ; ATL::CSimpleStringT<char,0>::GetData
_TEXT	ENDS
PUBLIC	?SetLength@?$CSimpleStringT@D$0A@@ATL@@AAEXH@Z	; ATL::CSimpleStringT<char,0>::SetLength
; Function compile flags: /Ogty
;	COMDAT ?SetLength@?$CSimpleStringT@D$0A@@ATL@@AAEXH@Z
_TEXT	SEGMENT
_nLength$ = 8						; size = 4
?SetLength@?$CSimpleStringT@D$0A@@ATL@@AAEXH@Z PROC NEAR ; ATL::CSimpleStringT<char,0>::SetLength, COMDAT
; _this$ = ecx

; 790  : 		ATLASSERT( nLength >= 0 );
; 791  : 		ATLASSERT( nLength <= GetData()->nAllocLength );
; 792  : 
; 793  : 		if( nLength < 0 || nLength > GetData()->nAllocLength)

  00000	8b 44 24 04	 mov	 eax, DWORD PTR _nLength$[esp-4]
  00004	85 c0		 test	 eax, eax
  00006	7c 13		 jl	 SHORT $L184241
  00008	8b 11		 mov	 edx, DWORD PTR [ecx]
  0000a	3b 42 f8	 cmp	 eax, DWORD PTR [edx-8]
  0000d	7f 0c		 jg	 SHORT $L184241

; 794  : 			AtlThrow(E_INVALIDARG);
; 795  : 			
; 796  : 		GetData()->nDataLength = nLength;

  0000f	89 42 f4	 mov	 DWORD PTR [edx-12], eax

; 797  : 		m_pszData[nLength] = 0;

  00012	8b 09		 mov	 ecx, DWORD PTR [ecx]
  00014	c6 04 08 00	 mov	 BYTE PTR [eax+ecx], 0

; 798  : 	}

  00018	c2 04 00	 ret	 4
$L184241:
  0001b	68 57 00 07 80	 push	 -2147024809		; 80070057H
  00020	e8 00 00 00 00	 call	 ?AtlThrow@ATL@@YGXJ@Z	; ATL::AtlThrow
$L190435:
  00025	cc		 int	 3
?SetLength@?$CSimpleStringT@D$0A@@ATL@@AAEXH@Z ENDP	; ATL::CSimpleStringT<char,0>::SetLength
_TEXT	ENDS
PUBLIC	?FindStringResourceInstance@?$StrTraitMFC@DV?$ChTraitsCRT@D@ATL@@@@SAPAUHINSTANCE__@@I@Z ; StrTraitMFC<char,ATL::ChTraitsCRT<char> >::FindStringResourceInstance
EXTRN	?AfxFindStringResourceHandle@@YGPAUHINSTANCE__@@I@Z:NEAR ; AfxFindStringResourceHandle
; Function compile flags: /Ogty
; File c:\program files\microsoft visual studio .net 2003\vc7\atlmfc\include\afxstr.h
;	COMDAT ?FindStringResourceInstance@?$StrTraitMFC@DV?$ChTraitsCRT@D@ATL@@@@SAPAUHINSTANCE__@@I@Z
_TEXT	SEGMENT
_nID$ = 8						; size = 4
?FindStringResourceInstance@?$StrTraitMFC@DV?$ChTraitsCRT@D@ATL@@@@SAPAUHINSTANCE__@@I@Z PROC NEAR ; StrTraitMFC<char,ATL::ChTraitsCRT<char> >::FindStringResourceInstance, COMDAT

; 45   : 		return( AfxFindStringResourceHandle( nID ) );

  00000	8b 44 24 04	 mov	 eax, DWORD PTR _nID$[esp-4]
  00004	50		 push	 eax
  00005	e8 00 00 00 00	 call	 ?AfxFindStringResourceHandle@@YGPAUHINSTANCE__@@I@Z ; AfxFindStringResourceHandle

; 46   : 	}

  0000a	c3		 ret	 0
?FindStringResourceInstance@?$StrTraitMFC@DV?$ChTraitsCRT@D@ATL@@@@SAPAUHINSTANCE__@@I@Z ENDP ; StrTraitMFC<char,ATL::ChTraitsCRT<char> >::FindStringResourceInstance
_TEXT	ENDS
PUBLIC	?GetDefaultManager@?$StrTraitMFC@DV?$ChTraitsCRT@D@ATL@@@@SAPAUIAtlStringMgr@ATL@@XZ ; StrTraitMFC<char,ATL::ChTraitsCRT<char> >::GetDefaultManager
EXTRN	?AfxGetStringManager@@YGPAUIAtlStringMgr@ATL@@XZ:NEAR ; AfxGetStringManager
; Function compile flags: /Ogty
;	COMDAT ?GetDefaultManager@?$StrTraitMFC@DV?$ChTraitsCRT@D@ATL@@@@SAPAUIAtlStringMgr@ATL@@XZ
_TEXT	SEGMENT
?GetDefaultManager@?$StrTraitMFC@DV?$ChTraitsCRT@D@ATL@@@@SAPAUIAtlStringMgr@ATL@@XZ PROC NEAR ; StrTraitMFC<char,ATL::ChTraitsCRT<char> >::GetDefaultManager, COMDAT

; 50   : 		return( AfxGetStringManager() );

  00000	e9 00 00 00 00	 jmp	 ?AfxGetStringManager@@YGPAUIAtlStringMgr@ATL@@XZ ; AfxGetStringManager
?GetDefaultManager@?$StrTraitMFC@DV?$ChTraitsCRT@D@ATL@@@@SAPAUIAtlStringMgr@ATL@@XZ ENDP ; StrTraitMFC<char,ATL::ChTraitsCRT<char> >::GetDefaultManager
_TEXT	ENDS
PUBLIC	?Attach@?$CSimpleStringT@D$0A@@ATL@@AAEXPAUCStringData@2@@Z ; ATL::CSimpleStringT<char,0>::Attach
; Function compile flags: /Ogty
; File c:\program files\microsoft visual studio .net 2003\vc7\atlmfc\include\atlsimpstr.h
;	COMDAT ?Attach@?$CSimpleStringT@D$0A@@ATL@@AAEXPAUCStringData@2@@Z
_TEXT	SEGMENT
_pData$ = 8						; size = 4
?Attach@?$CSimpleStringT@D$0A@@ATL@@AAEXPAUCStringData@2@@Z PROC NEAR ; ATL::CSimpleStringT<char,0>::Attach, COMDAT
; _this$ = ecx

; 712  : 		m_pszData = static_cast< PXSTR >( pData->data() );

  00000	8b 44 24 04	 mov	 eax, DWORD PTR _pData$[esp-4]
  00004	83 c0 10	 add	 eax, 16			; 00000010H
  00007	89 01		 mov	 DWORD PTR [ecx], eax

; 713  : 	}

  00009	c2 04 00	 ret	 4
?Attach@?$CSimpleStringT@D$0A@@ATL@@AAEXPAUCStringData@2@@Z ENDP ; ATL::CSimpleStringT<char,0>::Attach
_TEXT	ENDS
PUBLIC	?GetFormattedLength@?$ChTraitsCRT@D@ATL@@SAHPBDPAD@Z ; ATL::ChTraitsCRT<char>::GetFormattedLength
EXTRN	__vscprintf:NEAR
; Function compile flags: /Ogty
; File c:\program files\microsoft visual studio .net 2003\vc7\atlmfc\include\cstringt.h
;	COMDAT ?GetFormattedLength@?$ChTraitsCRT@D@ATL@@SAHPBDPAD@Z
_TEXT	SEGMENT
_pszFormat$ = 8						; size = 4
_args$ = 12						; size = 4
?GetFormattedLength@?$ChTraitsCRT@D@ATL@@SAHPBDPAD@Z PROC NEAR ; ATL::ChTraitsCRT<char>::GetFormattedLength, COMDAT

; 408  : 		return _vscprintf( pszFormat, args );

  00000	e9 00 00 00 00	 jmp	 __vscprintf
?GetFormattedLength@?$ChTraitsCRT@D@ATL@@SAHPBDPAD@Z ENDP ; ATL::ChTraitsCRT<char>::GetFormattedLength
_TEXT	ENDS
PUBLIC	?Format@?$ChTraitsCRT@D@ATL@@SAHPADPBD0@Z	; ATL::ChTraitsCRT<char>::Format
EXTRN	_vsprintf:NEAR
; Function compile flags: /Ogty
;	COMDAT ?Format@?$ChTraitsCRT@D@ATL@@SAHPADPBD0@Z
_TEXT	SEGMENT
_pszBuffer$ = 8						; size = 4
_pszFormat$ = 12					; size = 4
_args$ = 16						; size = 4
?Format@?$ChTraitsCRT@D@ATL@@SAHPADPBD0@Z PROC NEAR	; ATL::ChTraitsCRT<char>::Format, COMDAT

; 413  : 		return vsprintf( pszBuffer, pszFormat, args );

  00000	e9 00 00 00 00	 jmp	 _vsprintf
?Format@?$ChTraitsCRT@D@ATL@@SAHPADPBD0@Z ENDP		; ATL::ChTraitsCRT<char>::Format
_TEXT	ENDS
PUBLIC	?GetBaseTypeLength@?$ChTraitsCRT@D@ATL@@SAHPBGH@Z ; ATL::ChTraitsCRT<char>::GetBaseTypeLength
; Function compile flags: /Ogty
;	COMDAT ?GetBaseTypeLength@?$ChTraitsCRT@D@ATL@@SAHPBGH@Z
_TEXT	SEGMENT
_pszSource$ = 8						; size = 4
_nLength$ = 12						; size = 4
?GetBaseTypeLength@?$ChTraitsCRT@D@ATL@@SAHPBGH@Z PROC NEAR ; ATL::ChTraitsCRT<char>::GetBaseTypeLength, COMDAT

; 437  : 		// Returns required buffer length in XCHARs
; 438  : 		return ::WideCharToMultiByte( _AtlGetConversionACP(), 0, pszSource, nLength, NULL, 0, NULL, NULL );

  00000	ff 15 00 00 00
	00		 call	 DWORD PTR ?g_pfnGetThreadACP@ATL@@3P6GIXZA ; ATL::g_pfnGetThreadACP
  00006	8b 4c 24 08	 mov	 ecx, DWORD PTR _nLength$[esp-4]
  0000a	8b 54 24 04	 mov	 edx, DWORD PTR _pszSource$[esp-4]
  0000e	6a 00		 push	 0
  00010	6a 00		 push	 0
  00012	6a 00		 push	 0
  00014	6a 00		 push	 0
  00016	51		 push	 ecx
  00017	52		 push	 edx
  00018	6a 00		 push	 0
  0001a	50		 push	 eax
  0001b	ff 15 00 00 00
	00		 call	 DWORD PTR __imp__WideCharToMultiByte@32

; 439  : 	}

  00021	c3		 ret	 0
?GetBaseTypeLength@?$ChTraitsCRT@D@ATL@@SAHPBGH@Z ENDP	; ATL::ChTraitsCRT<char>::GetBaseTypeLength
_TEXT	ENDS
PUBLIC	?ConvertToBaseType@?$ChTraitsCRT@D@ATL@@SAXPADHPBGH@Z ; ATL::ChTraitsCRT<char>::ConvertToBaseType
; Function compile flags: /Ogty
;	COMDAT ?ConvertToBaseType@?$ChTraitsCRT@D@ATL@@SAXPADHPBGH@Z
_TEXT	SEGMENT
_pszDest$ = 8						; size = 4
_nDestLength$ = 12					; size = 4
_pszSrc$ = 16						; size = 4
_nSrcLength$ = 20					; size = 4
?ConvertToBaseType@?$ChTraitsCRT@D@ATL@@SAXPADHPBGH@Z PROC NEAR ; ATL::ChTraitsCRT<char>::ConvertToBaseType, COMDAT

; 452  : 		// nLen is in XCHARs
; 453  : 		::WideCharToMultiByte( _AtlGetConversionACP(), 0, pszSrc, nSrcLength, pszDest, nDestLength, NULL, NULL );

  00000	8b 44 24 08	 mov	 eax, DWORD PTR _nDestLength$[esp-4]
  00004	8b 4c 24 04	 mov	 ecx, DWORD PTR _pszDest$[esp-4]
  00008	8b 54 24 10	 mov	 edx, DWORD PTR _nSrcLength$[esp-4]
  0000c	6a 00		 push	 0
  0000e	6a 00		 push	 0
  00010	50		 push	 eax
  00011	8b 44 24 18	 mov	 eax, DWORD PTR _pszSrc$[esp+8]
  00015	51		 push	 ecx
  00016	52		 push	 edx
  00017	50		 push	 eax
  00018	6a 00		 push	 0
  0001a	ff 15 00 00 00
	00		 call	 DWORD PTR ?g_pfnGetThreadACP@ATL@@3P6GIXZA ; ATL::g_pfnGetThreadACP
  00020	50		 push	 eax
  00021	ff 15 00 00 00
	00		 call	 DWORD PTR __imp__WideCharToMultiByte@32

; 454  : 	}

  00027	c3		 ret	 0
?ConvertToBaseType@?$ChTraitsCRT@D@ATL@@SAXPADHPBGH@Z ENDP ; ATL::ChTraitsCRT<char>::ConvertToBaseType
_TEXT	ENDS
PUBLIC	?CopyChars@?$CSimpleStringT@D$0A@@ATL@@SAXPADPBDH@Z ; ATL::CSimpleStringT<char,0>::CopyChars
; Function compile flags: /Ogty
; File c:\program files\microsoft visual studio .net 2003\vc7\atlmfc\include\atlsimpstr.h
;	COMDAT ?CopyChars@?$CSimpleStringT@D$0A@@ATL@@SAXPADPBDH@Z
_TEXT	SEGMENT
_pchDest$ = 8						; size = 4
_pchSrc$ = 12						; size = 4
_nChars$ = 16						; size = 4
?CopyChars@?$CSimpleStringT@D$0A@@ATL@@SAXPADPBDH@Z PROC NEAR ; ATL::CSimpleStringT<char,0>::CopyChars, COMDAT

; 653  : 		memcpy( pchDest, pchSrc, nChars*sizeof( XCHAR ) );

  00000	8b 4c 24 0c	 mov	 ecx, DWORD PTR _nChars$[esp-4]
  00004	56		 push	 esi
  00005	8b 74 24 0c	 mov	 esi, DWORD PTR _pchSrc$[esp]
  00009	8b c1		 mov	 eax, ecx
  0000b	57		 push	 edi
  0000c	8b 7c 24 0c	 mov	 edi, DWORD PTR _pchDest$[esp+4]
  00010	c1 e9 02	 shr	 ecx, 2
  00013	f3 a5		 rep movsd
  00015	8b c8		 mov	 ecx, eax
  00017	83 e1 03	 and	 ecx, 3
  0001a	f3 a4		 rep movsb
  0001c	5f		 pop	 edi
  0001d	5e		 pop	 esi

; 654  : 	}

  0001e	c3		 ret	 0
?CopyChars@?$CSimpleStringT@D$0A@@ATL@@SAXPADPBDH@Z ENDP ; ATL::CSimpleStringT<char,0>::CopyChars
_TEXT	ENDS
PUBLIC	?CopyCharsOverlapped@?$CSimpleStringT@D$0A@@ATL@@SAXPADPBDH@Z ; ATL::CSimpleStringT<char,0>::CopyCharsOverlapped
EXTRN	_memmove:NEAR
; Function compile flags: /Ogty
;	COMDAT ?CopyCharsOverlapped@?$CSimpleStringT@D$0A@@ATL@@SAXPADPBDH@Z
_TEXT	SEGMENT
_pchDest$ = 8						; size = 4
_pchSrc$ = 12						; size = 4
_nChars$ = 16						; size = 4
?CopyCharsOverlapped@?$CSimpleStringT@D$0A@@ATL@@SAXPADPBDH@Z PROC NEAR ; ATL::CSimpleStringT<char,0>::CopyCharsOverlapped, COMDAT

; 657  : 		memmove( pchDest, pchSrc, nChars*sizeof( XCHAR ) );

  00000	e9 00 00 00 00	 jmp	 _memmove
?CopyCharsOverlapped@?$CSimpleStringT@D$0A@@ATL@@SAXPADPBDH@Z ENDP ; ATL::CSimpleStringT<char,0>::CopyCharsOverlapped
_TEXT	ENDS
PUBLIC	?ThrowMemoryException@?$CSimpleStringT@D$0A@@ATL@@KAXXZ ; ATL::CSimpleStringT<char,0>::ThrowMemoryException
; Function compile flags: /Ogty
;	COMDAT ?ThrowMemoryException@?$CSimpleStringT@D$0A@@ATL@@KAXXZ
_TEXT	SEGMENT
?ThrowMemoryException@?$CSimpleStringT@D$0A@@ATL@@KAXXZ PROC NEAR ; ATL::CSimpleStringT<char,0>::ThrowMemoryException, COMDAT

; 705  : 		AtlThrow( E_OUTOFMEMORY );

  00000	68 0e 00 07 80	 push	 -2147024882		; 8007000eH
  00005	e8 00 00 00 00	 call	 ?AtlThrow@ATL@@YGXJ@Z	; ATL::AtlThrow
$L190469:
  0000a	cc		 int	 3
?ThrowMemoryException@?$CSimpleStringT@D$0A@@ATL@@KAXXZ ENDP ; ATL::CSimpleStringT<char,0>::ThrowMemoryException
_TEXT	ENDS
PUBLIC	?Fork@?$CSimpleStringT@D$0A@@ATL@@AAEXH@Z	; ATL::CSimpleStringT<char,0>::Fork
; Function compile flags: /Ogty
;	COMDAT ?Fork@?$CSimpleStringT@D$0A@@ATL@@AAEXH@Z
_TEXT	SEGMENT
_this$ = -4						; size = 4
tv181 = 8						; size = 4
_nLength$ = 8						; size = 4
?Fork@?$CSimpleStringT@D$0A@@ATL@@AAEXH@Z PROC NEAR	; ATL::CSimpleStringT<char,0>::Fork, COMDAT
; _this$ = ecx

; 715  : 	{

  00000	51		 push	 ecx
  00001	53		 push	 ebx

; 716  : 		CStringData* pOldData = GetData();

  00002	8b 19		 mov	 ebx, DWORD PTR [ecx]
  00004	83 eb 10	 sub	 ebx, 16			; 00000010H
  00007	55		 push	 ebp

; 717  : 		int nOldLength = pOldData->nDataLength;

  00008	8b 6b 04	 mov	 ebp, DWORD PTR [ebx+4]
  0000b	89 4c 24 08	 mov	 DWORD PTR _this$[esp+12], ecx

; 718  : 		CStringData* pNewData = pOldData->pStringMgr->Clone()->Allocate( nLength, sizeof( XCHAR ) );

  0000f	8b 0b		 mov	 ecx, DWORD PTR [ebx]
  00011	8b 01		 mov	 eax, DWORD PTR [ecx]
  00013	56		 push	 esi
  00014	ff 50 10	 call	 DWORD PTR [eax+16]
  00017	8b 74 24 14	 mov	 esi, DWORD PTR _nLength$[esp+12]
  0001b	8b 10		 mov	 edx, DWORD PTR [eax]
  0001d	6a 01		 push	 1
  0001f	56		 push	 esi
  00020	8b c8		 mov	 ecx, eax
  00022	ff 12		 call	 DWORD PTR [edx]

; 719  : 		if( pNewData == NULL )

  00024	85 c0		 test	 eax, eax
  00026	75 05		 jne	 SHORT $L185534

; 720  : 		{
; 721  : 			ThrowMemoryException();

  00028	e8 00 00 00 00	 call	 ?ThrowMemoryException@?$CSimpleStringT@D$0A@@ATL@@KAXXZ ; ATL::CSimpleStringT<char,0>::ThrowMemoryException
$L185534:

; 722  : 		}
; 723  : 		int nCharsToCopy = ((nOldLength < nLength) ? nOldLength : nLength)+1;  // Copy '\0'

  0002d	3b ee		 cmp	 ebp, esi
  0002f	7d 02		 jge	 SHORT $L190473
  00031	8b f5		 mov	 esi, ebp
$L190473:
  00033	8d 4e 01	 lea	 ecx, DWORD PTR [esi+1]

; 724  : 		CopyChars( PXSTR( pNewData->data() ), PCXSTR( pOldData->data() ), nCharsToCopy );

  00036	8b d1		 mov	 edx, ecx
  00038	57		 push	 edi
  00039	c1 e9 02	 shr	 ecx, 2
  0003c	8d 78 10	 lea	 edi, DWORD PTR [eax+16]
  0003f	89 7c 24 18	 mov	 DWORD PTR tv181[esp+16], edi
  00043	8d 73 10	 lea	 esi, DWORD PTR [ebx+16]
  00046	f3 a5		 rep movsd
  00048	8b ca		 mov	 ecx, edx
  0004a	83 e1 03	 and	 ecx, 3
  0004d	f3 a4		 rep movsb

; 725  : 		pNewData->nDataLength = nOldLength;

  0004f	89 68 04	 mov	 DWORD PTR [eax+4], ebp

; 726  : 		pOldData->Release();

  00052	8d 43 0c	 lea	 eax, DWORD PTR [ebx+12]
  00055	83 c9 ff	 or	 ecx, -1
  00058	f0 0f c1 08	 lock	  xadd	 DWORD PTR [eax], ecx
  0005c	49		 dec	 ecx
  0005d	85 c9		 test	 ecx, ecx
  0005f	5f		 pop	 edi
  00060	7f 08		 jg	 SHORT $L190489
  00062	8b 0b		 mov	 ecx, DWORD PTR [ebx]
  00064	8b 11		 mov	 edx, DWORD PTR [ecx]
  00066	53		 push	 ebx
  00067	ff 52 04	 call	 DWORD PTR [edx+4]
$L190489:

; 727  : 		Attach( pNewData );

  0006a	8b 44 24 14	 mov	 eax, DWORD PTR tv181[esp+12]
  0006e	8b 4c 24 0c	 mov	 ecx, DWORD PTR _this$[esp+16]
  00072	5e		 pop	 esi
  00073	5d		 pop	 ebp
  00074	89 01		 mov	 DWORD PTR [ecx], eax
  00076	5b		 pop	 ebx

; 728  : 	}

  00077	59		 pop	 ecx
  00078	c2 04 00	 ret	 4
$L190498:
?Fork@?$CSimpleStringT@D$0A@@ATL@@AAEXH@Z ENDP		; ATL::CSimpleStringT<char,0>::Fork
_TEXT	ENDS
PUBLIC	?Reallocate@?$CSimpleStringT@D$0A@@ATL@@AAEXH@Z	; ATL::CSimpleStringT<char,0>::Reallocate
; Function compile flags: /Ogty
;	COMDAT ?Reallocate@?$CSimpleStringT@D$0A@@ATL@@AAEXH@Z
_TEXT	SEGMENT
_nLength$ = 8						; size = 4
?Reallocate@?$CSimpleStringT@D$0A@@ATL@@AAEXH@Z PROC NEAR ; ATL::CSimpleStringT<char,0>::Reallocate, COMDAT
; _this$ = ecx

; 776  : 	{

  00000	56		 push	 esi
  00001	57		 push	 edi

; 777  : 		CStringData* pOldData = GetData();
; 778  : 		ATLASSERT( pOldData->nAllocLength < nLength );
; 779  : 		IAtlStringMgr* pStringMgr = pOldData->pStringMgr;
; 780  : 		CStringData* pNewData = pStringMgr->Reallocate( pOldData, nLength, sizeof( XCHAR ) );

  00002	8b 7c 24 0c	 mov	 edi, DWORD PTR _nLength$[esp+4]
  00006	8b f1		 mov	 esi, ecx
  00008	8b 06		 mov	 eax, DWORD PTR [esi]
  0000a	8b 48 f0	 mov	 ecx, DWORD PTR [eax-16]
  0000d	8b 11		 mov	 edx, DWORD PTR [ecx]
  0000f	83 e8 10	 sub	 eax, 16			; 00000010H
  00012	6a 01		 push	 1
  00014	57		 push	 edi
  00015	50		 push	 eax
  00016	ff 52 08	 call	 DWORD PTR [edx+8]

; 781  : 		if( pNewData == NULL )

  00019	85 c0		 test	 eax, eax
  0001b	75 05		 jne	 SHORT $L185543

; 782  : 		{
; 783  : 			ThrowMemoryException();

  0001d	e8 00 00 00 00	 call	 ?ThrowMemoryException@?$CSimpleStringT@D$0A@@ATL@@KAXXZ ; ATL::CSimpleStringT<char,0>::ThrowMemoryException
$L185543:

; 784  : 		}
; 785  : 		Attach( pNewData );

  00022	83 c0 10	 add	 eax, 16			; 00000010H
  00025	5f		 pop	 edi
  00026	89 06		 mov	 DWORD PTR [esi], eax
  00028	5e		 pop	 esi

; 786  : 	}

  00029	c2 04 00	 ret	 4
$L190512:
?Reallocate@?$CSimpleStringT@D$0A@@ATL@@AAEXH@Z ENDP	; ATL::CSimpleStringT<char,0>::Reallocate
_TEXT	ENDS
EXTRN	_fileno:NEAR
EXTRN	__filelength:NEAR
; Function compile flags: /Ogty
; File c:\documents and settings\test\mes documents\source\virtuos_v17\build\program\_common\file.h
;	COMDAT ?GetLength@CFileIO@@UAEJXZ
_TEXT	SEGMENT
?GetLength@CFileIO@@UAEJXZ PROC NEAR			; CFileIO::GetLength, COMDAT
; _this$ = ecx

; 26   : 	virtual long GetLength() { return _filelength( Handle() ); }

  00000	8b 41 04	 mov	 eax, DWORD PTR [ecx+4]
  00003	50		 push	 eax
  00004	e8 00 00 00 00	 call	 _fileno
  00009	50		 push	 eax
  0000a	e8 00 00 00 00	 call	 __filelength
  0000f	83 c4 08	 add	 esp, 8
  00012	c3		 ret	 0
?GetLength@CFileIO@@UAEJXZ ENDP				; CFileIO::GetLength
_TEXT	ENDS
PUBLIC	?GetLength@?$CSimpleStringT@D$0A@@ATL@@QBEHXZ	; ATL::CSimpleStringT<char,0>::GetLength
; Function compile flags: /Ogty
; File c:\program files\microsoft visual studio .net 2003\vc7\atlmfc\include\atlsimpstr.h
;	COMDAT ?GetLength@?$CSimpleStringT@D$0A@@ATL@@QBEHXZ
_TEXT	SEGMENT
?GetLength@?$CSimpleStringT@D$0A@@ATL@@QBEHXZ PROC NEAR	; ATL::CSimpleStringT<char,0>::GetLength, COMDAT
; _this$ = ecx

; 501  : 		return( GetData()->nDataLength );

  00000	8b 01		 mov	 eax, DWORD PTR [ecx]
  00002	8b 40 f4	 mov	 eax, DWORD PTR [eax-12]

; 502  : 	}

  00005	c3		 ret	 0
?GetLength@?$CSimpleStringT@D$0A@@ATL@@QBEHXZ ENDP	; ATL::CSimpleStringT<char,0>::GetLength
_TEXT	ENDS
PUBLIC	??0?$CSimpleStringT@D$0A@@ATL@@QAE@PAUIAtlStringMgr@1@@Z ; ATL::CSimpleStringT<char,0>::CSimpleStringT<char,0>
; Function compile flags: /Ogty
;	COMDAT ??0?$CSimpleStringT@D$0A@@ATL@@QAE@PAUIAtlStringMgr@1@@Z
_TEXT	SEGMENT
_pStringMgr$ = 8					; size = 4
??0?$CSimpleStringT@D$0A@@ATL@@QAE@PAUIAtlStringMgr@1@@Z PROC NEAR ; ATL::CSimpleStringT<char,0>::CSimpleStringT<char,0>, COMDAT
; _this$ = ecx

; 210  : 	explicit CSimpleStringT( IAtlStringMgr* pStringMgr ) throw()

  00000	56		 push	 esi
  00001	8b f1		 mov	 esi, ecx

; 211  : 	{
; 212  : 		ATLASSERT( pStringMgr != NULL );
; 213  : 		CStringData* pData = pStringMgr->GetNilString();

  00003	8b 4c 24 08	 mov	 ecx, DWORD PTR _pStringMgr$[esp]
  00007	8b 01		 mov	 eax, DWORD PTR [ecx]
  00009	ff 50 0c	 call	 DWORD PTR [eax+12]

; 214  : 		Attach( pData );

  0000c	83 c0 10	 add	 eax, 16			; 00000010H
  0000f	89 06		 mov	 DWORD PTR [esi], eax

; 215  : 	}

  00011	8b c6		 mov	 eax, esi
  00013	5e		 pop	 esi
  00014	c2 04 00	 ret	 4
??0?$CSimpleStringT@D$0A@@ATL@@QAE@PAUIAtlStringMgr@1@@Z ENDP ; ATL::CSimpleStringT<char,0>::CSimpleStringT<char,0>
_TEXT	ENDS
PUBLIC	??1?$CSimpleStringT@D$0A@@ATL@@QAE@XZ		; ATL::CSimpleStringT<char,0>::~CSimpleStringT<char,0>
; Function compile flags: /Ogty
;	COMDAT ??1?$CSimpleStringT@D$0A@@ATL@@QAE@XZ
_TEXT	SEGMENT
??1?$CSimpleStringT@D$0A@@ATL@@QAE@XZ PROC NEAR		; ATL::CSimpleStringT<char,0>::~CSimpleStringT<char,0>, COMDAT
; _this$ = ecx

; 263  : 		CStringData* pData = GetData();

  00000	8b 01		 mov	 eax, DWORD PTR [ecx]
  00002	83 e8 10	 sub	 eax, 16			; 00000010H

; 264  : 		pData->Release();

  00005	8d 48 0c	 lea	 ecx, DWORD PTR [eax+12]
  00008	83 ca ff	 or	 edx, -1
  0000b	f0 0f c1 11	 lock	  xadd	 DWORD PTR [ecx], edx
  0000f	4a		 dec	 edx
  00010	85 d2		 test	 edx, edx
  00012	7f 08		 jg	 SHORT $L190542
  00014	8b 08		 mov	 ecx, DWORD PTR [eax]
  00016	8b 11		 mov	 edx, DWORD PTR [ecx]
  00018	50		 push	 eax
  00019	ff 52 04	 call	 DWORD PTR [edx+4]
$L190542:

; 265  : 	}

  0001c	c3		 ret	 0
??1?$CSimpleStringT@D$0A@@ATL@@QAE@XZ ENDP		; ATL::CSimpleStringT<char,0>::~CSimpleStringT<char,0>
_TEXT	ENDS
PUBLIC	?ReleaseBufferSetLength@?$CSimpleStringT@D$0A@@ATL@@QAEXH@Z ; ATL::CSimpleStringT<char,0>::ReleaseBufferSetLength
; Function compile flags: /Ogty
;	COMDAT ?ReleaseBufferSetLength@?$CSimpleStringT@D$0A@@ATL@@QAEXH@Z
_TEXT	SEGMENT
_nNewLength$ = 8					; size = 4
?ReleaseBufferSetLength@?$CSimpleStringT@D$0A@@ATL@@QAEXH@Z PROC NEAR ; ATL::CSimpleStringT<char,0>::ReleaseBufferSetLength, COMDAT
; _this$ = ecx

; 547  : 		ATLASSERT( nNewLength >= 0 );
; 548  : 		SetLength( nNewLength );

  00000	8b 44 24 04	 mov	 eax, DWORD PTR _nNewLength$[esp-4]
  00004	85 c0		 test	 eax, eax
  00006	7c 13		 jl	 SHORT $L190559
  00008	8b 11		 mov	 edx, DWORD PTR [ecx]
  0000a	3b 42 f8	 cmp	 eax, DWORD PTR [edx-8]
  0000d	7f 0c		 jg	 SHORT $L190559
  0000f	89 42 f4	 mov	 DWORD PTR [edx-12], eax
  00012	8b 09		 mov	 ecx, DWORD PTR [ecx]
  00014	c6 04 08 00	 mov	 BYTE PTR [eax+ecx], 0

; 549  : 	}

  00018	c2 04 00	 ret	 4
$L190559:
  0001b	68 57 00 07 80	 push	 -2147024809		; 80070057H
  00020	e8 00 00 00 00	 call	 ?AtlThrow@ATL@@YGXJ@Z	; ATL::AtlThrow
$L190561:
  00025	cc		 int	 3
?ReleaseBufferSetLength@?$CSimpleStringT@D$0A@@ATL@@QAEXH@Z ENDP ; ATL::CSimpleStringT<char,0>::ReleaseBufferSetLength
_TEXT	ENDS
PUBLIC	?Empty@?$CSimpleStringT@D$0A@@ATL@@QAEXXZ	; ATL::CSimpleStringT<char,0>::Empty
; Function compile flags: /Ogty
;	COMDAT ?Empty@?$CSimpleStringT@D$0A@@ATL@@QAEXXZ
_TEXT	SEGMENT
?Empty@?$CSimpleStringT@D$0A@@ATL@@QAEXXZ PROC NEAR	; ATL::CSimpleStringT<char,0>::Empty, COMDAT
; _this$ = ecx

; 421  : 	{

  00000	56		 push	 esi
  00001	8b f1		 mov	 esi, ecx

; 422  : 		CStringData* pOldData = GetData();

  00003	8b 0e		 mov	 ecx, DWORD PTR [esi]

; 423  : 		IAtlStringMgr* pStringMgr = pOldData->pStringMgr;
; 424  : 		if( pOldData->nDataLength == 0 )

  00005	8b 51 f4	 mov	 edx, DWORD PTR [ecx-12]
  00008	85 d2		 test	 edx, edx
  0000a	8d 41 f0	 lea	 eax, DWORD PTR [ecx-16]
  0000d	57		 push	 edi
  0000e	8b 38		 mov	 edi, DWORD PTR [eax]
  00010	74 4c		 je	 SHORT $L190597
  00012	53		 push	 ebx

; 425  : 		{
; 426  : 			return;
; 427  : 		}
; 428  : 
; 429  : 		if( pOldData->IsLocked() )

  00013	8b 58 0c	 mov	 ebx, DWORD PTR [eax+12]
  00016	8d 50 0c	 lea	 edx, DWORD PTR [eax+12]
  00019	85 db		 test	 ebx, ebx
  0001b	5b		 pop	 ebx
  0001c	7d 20		 jge	 SHORT $L184939

; 430  : 		{
; 431  : 			// Don't reallocate a locked buffer that's shrinking
; 432  : 			SetLength( 0 );

  0001e	8b 41 f8	 mov	 eax, DWORD PTR [ecx-8]
  00021	85 c0		 test	 eax, eax
  00023	7d 0a		 jge	 SHORT $L190583
  00025	68 57 00 07 80	 push	 -2147024809		; 80070057H
  0002a	e8 00 00 00 00	 call	 ?AtlThrow@ATL@@YGXJ@Z	; ATL::AtlThrow
$L190583:
  0002f	c7 41 f4 00 00
	00 00		 mov	 DWORD PTR [ecx-12], 0
  00036	8b 06		 mov	 eax, DWORD PTR [esi]
  00038	5f		 pop	 edi
  00039	c6 00 00	 mov	 BYTE PTR [eax], 0
  0003c	5e		 pop	 esi

; 439  : 		}
; 440  : 	}

  0003d	c3		 ret	 0
$L184939:

; 433  : 		}
; 434  : 		else
; 435  : 		{
; 436  : 			pOldData->Release();

  0003e	83 c9 ff	 or	 ecx, -1
  00041	f0 0f c1 0a	 lock	  xadd	 DWORD PTR [edx], ecx
  00045	49		 dec	 ecx
  00046	85 c9		 test	 ecx, ecx
  00048	7f 08		 jg	 SHORT $L190589
  0004a	8b 08		 mov	 ecx, DWORD PTR [eax]
  0004c	8b 11		 mov	 edx, DWORD PTR [ecx]
  0004e	50		 push	 eax
  0004f	ff 52 04	 call	 DWORD PTR [edx+4]
$L190589:

; 437  : 			CStringData* pNewData = pStringMgr->GetNilString();

  00052	8b 07		 mov	 eax, DWORD PTR [edi]
  00054	8b cf		 mov	 ecx, edi
  00056	ff 50 0c	 call	 DWORD PTR [eax+12]

; 438  : 			Attach( pNewData );

  00059	83 c0 10	 add	 eax, 16			; 00000010H
  0005c	89 06		 mov	 DWORD PTR [esi], eax
$L190597:
  0005e	5f		 pop	 edi
  0005f	5e		 pop	 esi

; 439  : 		}
; 440  : 	}

  00060	c3		 ret	 0
$L190598:
?Empty@?$CSimpleStringT@D$0A@@ATL@@QAEXXZ ENDP		; ATL::CSimpleStringT<char,0>::Empty
_TEXT	ENDS
PUBLIC	?PrepareWrite2@?$CSimpleStringT@D$0A@@ATL@@AAEXH@Z ; ATL::CSimpleStringT<char,0>::PrepareWrite2
; Function compile flags: /Ogty
;	COMDAT ?PrepareWrite2@?$CSimpleStringT@D$0A@@ATL@@AAEXH@Z
_TEXT	SEGMENT
_nLength$ = 8						; size = 4
?PrepareWrite2@?$CSimpleStringT@D$0A@@ATL@@AAEXH@Z PROC NEAR ; ATL::CSimpleStringT<char,0>::PrepareWrite2, COMDAT
; _this$ = ecx

; 747  : 		CStringData* pOldData = GetData();

  00000	8b 01		 mov	 eax, DWORD PTR [ecx]

; 748  : 		if( pOldData->nDataLength > nLength )

  00002	8b 54 24 04	 mov	 edx, DWORD PTR _nLength$[esp-4]
  00006	83 e8 10	 sub	 eax, 16			; 00000010H
  00009	56		 push	 esi
  0000a	8b 70 04	 mov	 esi, DWORD PTR [eax+4]
  0000d	3b f2		 cmp	 esi, edx
  0000f	7e 02		 jle	 SHORT $L184961

; 749  : 		{
; 750  : 			nLength = pOldData->nDataLength;

  00011	8b d6		 mov	 edx, esi
$L184961:

; 751  : 		}
; 752  : 		if( pOldData->IsShared() )

  00013	83 78 0c 01	 cmp	 DWORD PTR [eax+12], 1
  00017	5e		 pop	 esi
  00018	7e 09		 jle	 SHORT $L184962

; 753  : 		{
; 754  : 			Fork( nLength );

  0001a	89 54 24 04	 mov	 DWORD PTR _nLength$[esp-4], edx
  0001e	e9 00 00 00 00	 jmp	 ?Fork@?$CSimpleStringT@D$0A@@ATL@@AAEXH@Z ; ATL::CSimpleStringT<char,0>::Fork
$L184962:

; 755  : 		}
; 756  : 		else if( pOldData->nAllocLength < nLength )

  00023	8b 40 08	 mov	 eax, DWORD PTR [eax+8]
  00026	3b c2		 cmp	 eax, edx
  00028	7d 1f		 jge	 SHORT $L184964

; 757  : 		{
; 758  : 			// Grow exponentially, until we hit 1K.
; 759  : 			int nNewLength = pOldData->nAllocLength;
; 760  : 			if( nNewLength > 1024 )

  0002a	3d 00 04 00 00	 cmp	 eax, 1024		; 00000400H
  0002f	7e 07		 jle	 SHORT $L184966

; 761  : 			{
; 762  : 				nNewLength += 1024;

  00031	05 00 04 00 00	 add	 eax, 1024		; 00000400H

; 763  : 			}
; 764  : 			else

  00036	eb 02		 jmp	 SHORT $L184967
$L184966:

; 765  : 			{
; 766  : 				nNewLength *= 2;

  00038	03 c0		 add	 eax, eax
$L184967:

; 767  : 			}
; 768  : 			if( nNewLength < nLength )

  0003a	3b c2		 cmp	 eax, edx
  0003c	7d 02		 jge	 SHORT $L184968

; 769  : 			{
; 770  : 				nNewLength = nLength;

  0003e	8b c2		 mov	 eax, edx
$L184968:

; 771  : 			}
; 772  : 			Reallocate( nNewLength );

  00040	89 44 24 04	 mov	 DWORD PTR _nLength$[esp-4], eax
  00044	e9 00 00 00 00	 jmp	 ?Reallocate@?$CSimpleStringT@D$0A@@ATL@@AAEXH@Z ; ATL::CSimpleStringT<char,0>::Reallocate
$L184964:

; 773  : 		}
; 774  : 	}

  00049	c2 04 00	 ret	 4
?PrepareWrite2@?$CSimpleStringT@D$0A@@ATL@@AAEXH@Z ENDP	; ATL::CSimpleStringT<char,0>::PrepareWrite2
_TEXT	ENDS
PUBLIC	??A?$CSimpleStringT@D$0A@@ATL@@QBEDH@Z		; ATL::CSimpleStringT<char,0>::operator[]
; Function compile flags: /Ogty
;	COMDAT ??A?$CSimpleStringT@D$0A@@ATL@@QBEDH@Z
_TEXT	SEGMENT
_iChar$ = 8						; size = 4
??A?$CSimpleStringT@D$0A@@ATL@@QBEDH@Z PROC NEAR	; ATL::CSimpleStringT<char,0>::operator[], COMDAT
; _this$ = ecx

; 369  : 		ATLASSERT( (iChar >= 0) && (iChar <= GetLength()) );  // Indexing the '\0' is OK
; 370  : 		
; 371  : 		if( (iChar < 0) || (iChar > GetLength()) )

  00000	8b 54 24 04	 mov	 edx, DWORD PTR _iChar$[esp-4]
  00004	85 d2		 test	 edx, edx
  00006	7c 0d		 jl	 SHORT $L189910
  00008	8b 01		 mov	 eax, DWORD PTR [ecx]
  0000a	3b 50 f4	 cmp	 edx, DWORD PTR [eax-12]
  0000d	7f 06		 jg	 SHORT $L189910

; 372  : 			AtlThrow(E_INVALIDARG);
; 373  : 			
; 374  : 		return( m_pszData[iChar] );

  0000f	8a 04 10	 mov	 al, BYTE PTR [eax+edx]

; 375  : 	}

  00012	c2 04 00	 ret	 4
$L189910:
  00015	68 57 00 07 80	 push	 -2147024809		; 80070057H
  0001a	e8 00 00 00 00	 call	 ?AtlThrow@ATL@@YGXJ@Z	; ATL::AtlThrow
$L190618:
  0001f	cc		 int	 3
??A?$CSimpleStringT@D$0A@@ATL@@QBEDH@Z ENDP		; ATL::CSimpleStringT<char,0>::operator[]
_TEXT	ENDS
PUBLIC	?IsEmpty@?$CSimpleStringT@D$0A@@ATL@@QBE_NXZ	; ATL::CSimpleStringT<char,0>::IsEmpty
; Function compile flags: /Ogty
;	COMDAT ?IsEmpty@?$CSimpleStringT@D$0A@@ATL@@QBE_NXZ
_TEXT	SEGMENT
?IsEmpty@?$CSimpleStringT@D$0A@@ATL@@QBE_NXZ PROC NEAR	; ATL::CSimpleStringT<char,0>::IsEmpty, COMDAT
; _this$ = ecx

; 514  : 		return( GetLength() == 0 );

  00000	8b 01		 mov	 eax, DWORD PTR [ecx]
  00002	8b 50 f4	 mov	 edx, DWORD PTR [eax-12]
  00005	33 c9		 xor	 ecx, ecx
  00007	85 d2		 test	 edx, edx
  00009	0f 94 c1	 sete	 cl
  0000c	8a c1		 mov	 al, cl

; 515  : 	}

  0000e	c3		 ret	 0
?IsEmpty@?$CSimpleStringT@D$0A@@ATL@@QBE_NXZ ENDP	; ATL::CSimpleStringT<char,0>::IsEmpty
_TEXT	ENDS
PUBLIC	??0?$CStringT@DV?$StrTraitMFC@DV?$ChTraitsCRT@D@ATL@@@@@ATL@@QAE@XZ ; ATL::CStringT<char,StrTraitMFC<char,ATL::ChTraitsCRT<char> > >::CStringT<char,StrTraitMFC<char,ATL::ChTraitsCRT<char> > >
; Function compile flags: /Ogty
; File c:\program files\microsoft visual studio .net 2003\vc7\atlmfc\include\cstringt.h
;	COMDAT ??0?$CStringT@DV?$StrTraitMFC@DV?$ChTraitsCRT@D@ATL@@@@@ATL@@QAE@XZ
_TEXT	SEGMENT
??0?$CStringT@DV?$StrTraitMFC@DV?$ChTraitsCRT@D@ATL@@@@@ATL@@QAE@XZ PROC NEAR ; ATL::CStringT<char,StrTraitMFC<char,ATL::ChTraitsCRT<char> > >::CStringT<char,StrTraitMFC<char,ATL::ChTraitsCRT<char> > >, COMDAT
; _this$ = ecx

; 796  : 	{

  00000	56		 push	 esi
  00001	8b f1		 mov	 esi, ecx
  00003	e8 00 00 00 00	 call	 ?AfxGetStringManager@@YGPAUIAtlStringMgr@ATL@@XZ ; AfxGetStringManager
  00008	8b 10		 mov	 edx, DWORD PTR [eax]
  0000a	8b c8		 mov	 ecx, eax
  0000c	ff 52 0c	 call	 DWORD PTR [edx+12]
  0000f	83 c0 10	 add	 eax, 16			; 00000010H
  00012	89 06		 mov	 DWORD PTR [esi], eax

; 797  : 	}

  00014	8b c6		 mov	 eax, esi
  00016	5e		 pop	 esi
  00017	c3		 ret	 0
??0?$CStringT@DV?$StrTraitMFC@DV?$ChTraitsCRT@D@ATL@@@@@ATL@@QAE@XZ ENDP ; ATL::CStringT<char,StrTraitMFC<char,ATL::ChTraitsCRT<char> > >::CStringT<char,StrTraitMFC<char,ATL::ChTraitsCRT<char> > >
_TEXT	ENDS
PUBLIC	??1?$CStringT@DV?$StrTraitMFC@DV?$ChTraitsCRT@D@ATL@@@@@ATL@@QAE@XZ ; ATL::CStringT<char,StrTraitMFC<char,ATL::ChTraitsCRT<char> > >::~CStringT<char,StrTraitMFC<char,ATL::ChTraitsCRT<char> > >
; Function compile flags: /Ogty
;	COMDAT ??1?$CStringT@DV?$StrTraitMFC@DV?$ChTraitsCRT@D@ATL@@@@@ATL@@QAE@XZ
_TEXT	SEGMENT
??1?$CStringT@DV?$StrTraitMFC@DV?$ChTraitsCRT@D@ATL@@@@@ATL@@QAE@XZ PROC NEAR ; ATL::CStringT<char,StrTraitMFC<char,ATL::ChTraitsCRT<char> > >::~CStringT<char,StrTraitMFC<char,ATL::ChTraitsCRT<char> > >, COMDAT
; _this$ = ecx

; 963  : 	}

  00000	8b 01		 mov	 eax, DWORD PTR [ecx]
  00002	83 e8 10	 sub	 eax, 16			; 00000010H
  00005	8d 48 0c	 lea	 ecx, DWORD PTR [eax+12]
  00008	83 ca ff	 or	 edx, -1
  0000b	f0 0f c1 11	 lock	  xadd	 DWORD PTR [ecx], edx
  0000f	4a		 dec	 edx
  00010	85 d2		 test	 edx, edx
  00012	7f 08		 jg	 SHORT $L190667
  00014	8b 08		 mov	 ecx, DWORD PTR [eax]
  00016	8b 11		 mov	 edx, DWORD PTR [ecx]
  00018	50		 push	 eax
  00019	ff 52 04	 call	 DWORD PTR [edx+4]
$L190667:
  0001c	c3		 ret	 0
??1?$CStringT@DV?$StrTraitMFC@DV?$ChTraitsCRT@D@ATL@@@@@ATL@@QAE@XZ ENDP ; ATL::CStringT<char,StrTraitMFC<char,ATL::ChTraitsCRT<char> > >::~CStringT<char,StrTraitMFC<char,ATL::ChTraitsCRT<char> > >
_TEXT	ENDS
PUBLIC	?PrepareWrite@?$CSimpleStringT@D$0A@@ATL@@AAEPADH@Z ; ATL::CSimpleStringT<char,0>::PrepareWrite
; Function compile flags: /Ogty
; File c:\program files\microsoft visual studio .net 2003\vc7\atlmfc\include\atlsimpstr.h
;	COMDAT ?PrepareWrite@?$CSimpleStringT@D$0A@@ATL@@AAEPADH@Z
_TEXT	SEGMENT
_nLength$ = 8						; size = 4
?PrepareWrite@?$CSimpleStringT@D$0A@@ATL@@AAEPADH@Z PROC NEAR ; ATL::CSimpleStringT<char,0>::PrepareWrite, COMDAT
; _this$ = ecx

; 734  : 	{

  00000	56		 push	 esi
  00001	8b f1		 mov	 esi, ecx

; 735  : 		CStringData* pOldData = GetData();

  00003	8b 06		 mov	 eax, DWORD PTR [esi]

; 736  : 		int nShared = 1-pOldData->nRefs;  // nShared < 0 means true, >= 0 means false

  00005	8b 50 fc	 mov	 edx, DWORD PTR [eax-4]
  00008	83 e8 10	 sub	 eax, 16			; 00000010H
  0000b	b9 01 00 00 00	 mov	 ecx, 1
  00010	2b ca		 sub	 ecx, edx

; 737  : 		int nTooShort = pOldData->nAllocLength-nLength;  // nTooShort < 0 means true, >= 0 means false

  00012	8b 50 08	 mov	 edx, DWORD PTR [eax+8]
  00015	8b 44 24 08	 mov	 eax, DWORD PTR _nLength$[esp]
  00019	2b d0		 sub	 edx, eax

; 738  : 		if( (nShared|nTooShort) < 0 )  // If either sign bit is set (i.e. either is less than zero), we need to copy data

  0001b	0b ca		 or	 ecx, edx
  0001d	7d 08		 jge	 SHORT $L190675

; 739  : 		{
; 740  : 			PrepareWrite2( nLength );

  0001f	50		 push	 eax
  00020	8b ce		 mov	 ecx, esi
  00022	e8 00 00 00 00	 call	 ?PrepareWrite2@?$CSimpleStringT@D$0A@@ATL@@AAEXH@Z ; ATL::CSimpleStringT<char,0>::PrepareWrite2
$L190675:

; 741  : 		}
; 742  : 
; 743  : 		return( m_pszData );

  00027	8b 06		 mov	 eax, DWORD PTR [esi]
  00029	5e		 pop	 esi

; 744  : 	}

  0002a	c2 04 00	 ret	 4
?PrepareWrite@?$CSimpleStringT@D$0A@@ATL@@AAEPADH@Z ENDP ; ATL::CSimpleStringT<char,0>::PrepareWrite
_TEXT	ENDS
PUBLIC	??0CScanner@@QAE@H@Z				; CScanner::CScanner
PUBLIC	?SetMark@CScanner@@UAEXXZ			; CScanner::SetMark
PUBLIC	?GoMark@CScanner@@UAEXXZ			; CScanner::GoMark
PUBLIC	?GetToken@CScanner@@UAEHH@Z			; CScanner::GetToken
PUBLIC	??_7CScanner@@6B@				; CScanner::`vftable'
PUBLIC	??_GCScanner@@UAEPAXI@Z				; CScanner::`scalar deleting destructor'
EXTRN	??_ECScanner@@UAEPAXI@Z:NEAR			; CScanner::`vector deleting destructor'
;	COMDAT ??_7CScanner@@6B@
CONST	SEGMENT
??_7CScanner@@6B@ DD FLAT:??_ECScanner@@UAEPAXI@Z	; CScanner::`vftable'
	DD	FLAT:?SetMark@CScanner@@UAEXXZ
	DD	FLAT:?GoMark@CScanner@@UAEXXZ
	DD	FLAT:?GetLineNum@CScanner@@UAEHPAX@Z
	DD	FLAT:?PutBack@CScanner@@UAEXXZ
	DD	FLAT:?GetToken@CScanner@@UAEHH@Z
; Function compile flags: /Ogty
; File c:\documents and settings\test\mes documents\source\virtuos_v17\build\program\_common\scanner.cpp
CONST	ENDS
;	COMDAT ??0CScanner@@QAE@H@Z
_TEXT	SEGMENT
_bComma$ = 8						; size = 4
??0CScanner@@QAE@H@Z PROC NEAR				; CScanner::CScanner, COMDAT
; _this$ = ecx

; 440  : {

  00000	56		 push	 esi
  00001	8b f1		 mov	 esi, ecx
  00003	c7 06 00 00 00
	00		 mov	 DWORD PTR [esi], OFFSET FLAT:??_7CScanner@@6B@
  00009	e8 00 00 00 00	 call	 ?AfxGetStringManager@@YGPAUIAtlStringMgr@ATL@@XZ ; AfxGetStringManager
  0000e	8b 10		 mov	 edx, DWORD PTR [eax]
  00010	8b c8		 mov	 ecx, eax
  00012	ff 52 0c	 call	 DWORD PTR [edx+12]
  00015	83 c0 10	 add	 eax, 16			; 00000010H
  00018	89 46 20	 mov	 DWORD PTR [esi+32], eax
  0001b	e8 00 00 00 00	 call	 ?AfxGetStringManager@@YGPAUIAtlStringMgr@ATL@@XZ ; AfxGetStringManager
  00020	8b 10		 mov	 edx, DWORD PTR [eax]
  00022	8b c8		 mov	 ecx, eax
  00024	ff 52 0c	 call	 DWORD PTR [edx+12]
  00027	83 c0 10	 add	 eax, 16			; 00000010H
  0002a	89 86 38 08 00
	00		 mov	 DWORD PTR [esi+2104], eax

; 441  : 	m_bComma = bComma;

  00030	8b 44 24 08	 mov	 eax, DWORD PTR _bComma$[esp]
  00034	89 46 04	 mov	 DWORD PTR [esi+4], eax

; 442  : 	m_pProg = m_pBuf = NULL;

  00037	33 c0		 xor	 eax, eax

; 443  : 	m_bMemFlag = 1;

  00039	b9 01 00 00 00	 mov	 ecx, 1

; 444  : 	dwValue	= 0;
; 445  : 	m_lpMark = NULL;
; 446  : 	m_dwDef = 0;
; 447  : 	token = m_mszToken;

  0003e	8d 56 28	 lea	 edx, DWORD PTR [esi+40]
  00041	89 46 1c	 mov	 DWORD PTR [esi+28], eax
  00044	89 46 18	 mov	 DWORD PTR [esi+24], eax
  00047	89 86 34 08 00
	00		 mov	 DWORD PTR [esi+2100], eax
  0004d	89 46 14	 mov	 DWORD PTR [esi+20], eax
  00050	89 46 10	 mov	 DWORD PTR [esi+16], eax
  00053	88 4e 08	 mov	 BYTE PTR [esi+8], cl
  00056	89 56 24	 mov	 DWORD PTR [esi+36], edx

; 448  : 	m_bErrorCheck = TRUE;

  00059	89 8e 3c 08 00
	00		 mov	 DWORD PTR [esi+2108], ecx

; 449  : }

  0005f	8b c6		 mov	 eax, esi
  00061	5e		 pop	 esi
  00062	c2 04 00	 ret	 4
??0CScanner@@QAE@H@Z ENDP				; CScanner::CScanner
; Function compile flags: /Ogty
; File c:\documents and settings\test\mes documents\source\virtuos_v17\build\program\_common\scanner.h
_TEXT	ENDS
;	COMDAT ?SetMark@CScanner@@UAEXXZ
_TEXT	SEGMENT
?SetMark@CScanner@@UAEXXZ PROC NEAR			; CScanner::SetMark, COMDAT
; _this$ = ecx

; 67   : 	virtual void	SetMark() { m_lpMark = m_pProg; }

  00000	8b 41 18	 mov	 eax, DWORD PTR [ecx+24]
  00003	89 41 14	 mov	 DWORD PTR [ecx+20], eax
  00006	c3		 ret	 0
?SetMark@CScanner@@UAEXXZ ENDP				; CScanner::SetMark
; Function compile flags: /Ogty
_TEXT	ENDS
;	COMDAT ?GoMark@CScanner@@UAEXXZ
_TEXT	SEGMENT
?GoMark@CScanner@@UAEXXZ PROC NEAR			; CScanner::GoMark, COMDAT
; _this$ = ecx

; 68   : 	virtual void	GoMark() { if( m_lpMark ) m_pProg = m_lpMark; }

  00000	8b 41 14	 mov	 eax, DWORD PTR [ecx+20]
  00003	85 c0		 test	 eax, eax
  00005	74 03		 je	 SHORT $L148728
  00007	89 41 18	 mov	 DWORD PTR [ecx+24], eax
$L148728:
  0000a	c3		 ret	 0
?GoMark@CScanner@@UAEXXZ ENDP				; CScanner::GoMark
_TEXT	ENDS
PUBLIC	??0CScanner@@QAE@PAXH@Z				; CScanner::CScanner
; Function compile flags: /Ogty
; File c:\documents and settings\test\mes documents\source\virtuos_v17\build\program\_common\scanner.cpp
;	COMDAT ??0CScanner@@QAE@PAXH@Z
_TEXT	SEGMENT
_p$ = 8							; size = 4
_bComma$ = 12						; size = 4
??0CScanner@@QAE@PAXH@Z PROC NEAR			; CScanner::CScanner, COMDAT
; _this$ = ecx

; 452  : {

  00000	56		 push	 esi
  00001	8b f1		 mov	 esi, ecx
  00003	c7 06 00 00 00
	00		 mov	 DWORD PTR [esi], OFFSET FLAT:??_7CScanner@@6B@
  00009	e8 00 00 00 00	 call	 ?AfxGetStringManager@@YGPAUIAtlStringMgr@ATL@@XZ ; AfxGetStringManager
  0000e	8b 10		 mov	 edx, DWORD PTR [eax]
  00010	8b c8		 mov	 ecx, eax
  00012	ff 52 0c	 call	 DWORD PTR [edx+12]
  00015	83 c0 10	 add	 eax, 16			; 00000010H
  00018	89 46 20	 mov	 DWORD PTR [esi+32], eax
  0001b	e8 00 00 00 00	 call	 ?AfxGetStringManager@@YGPAUIAtlStringMgr@ATL@@XZ ; AfxGetStringManager
  00020	8b 10		 mov	 edx, DWORD PTR [eax]
  00022	8b c8		 mov	 ecx, eax
  00024	ff 52 0c	 call	 DWORD PTR [edx+12]
  00027	83 c0 10	 add	 eax, 16			; 00000010H
  0002a	89 86 38 08 00
	00		 mov	 DWORD PTR [esi+2104], eax

; 453  : 	m_bComma = bComma;

  00030	8b 44 24 0c	 mov	 eax, DWORD PTR _bComma$[esp]
  00034	89 46 04	 mov	 DWORD PTR [esi+4], eax

; 454  : 	m_pProg = m_pBuf = (CHAR*)p;

  00037	8b 44 24 08	 mov	 eax, DWORD PTR _p$[esp]
  0003b	89 46 1c	 mov	 DWORD PTR [esi+28], eax
  0003e	89 46 18	 mov	 DWORD PTR [esi+24], eax

; 455  : 	m_bMemFlag = 1;
; 456  : 	dwValue	= 0;

  00041	33 c0		 xor	 eax, eax
  00043	b9 01 00 00 00	 mov	 ecx, 1

; 457  : 	m_dwDef = 0;
; 458  : 	token = m_mszToken;

  00048	8d 56 28	 lea	 edx, DWORD PTR [esi+40]
  0004b	89 86 34 08 00
	00		 mov	 DWORD PTR [esi+2100], eax
  00051	89 46 10	 mov	 DWORD PTR [esi+16], eax
  00054	88 4e 08	 mov	 BYTE PTR [esi+8], cl
  00057	89 56 24	 mov	 DWORD PTR [esi+36], edx

; 459  : 	m_bErrorCheck = TRUE;

  0005a	89 8e 3c 08 00
	00		 mov	 DWORD PTR [esi+2108], ecx

; 460  : }

  00060	8b c6		 mov	 eax, esi
  00062	5e		 pop	 esi
  00063	c2 08 00	 ret	 8
??0CScanner@@QAE@PAXH@Z ENDP				; CScanner::CScanner
_TEXT	ENDS
PUBLIC	??1CScanner@@UAE@XZ				; CScanner::~CScanner
; Function compile flags: /Ogty
;	COMDAT ??1CScanner@@UAE@XZ
_TEXT	SEGMENT
??1CScanner@@UAE@XZ PROC NEAR				; CScanner::~CScanner, COMDAT
; _this$ = ecx

; 463  : {

  00000	56		 push	 esi
  00001	8b f1		 mov	 esi, ecx

; 464  : 	Free();

  00003	8a 46 08	 mov	 al, BYTE PTR [esi+8]
  00006	84 c0		 test	 al, al
  00008	c7 06 00 00 00
	00		 mov	 DWORD PTR [esi], OFFSET FLAT:??_7CScanner@@6B@
  0000e	75 10		 jne	 SHORT $L190827
  00010	8b 46 1c	 mov	 eax, DWORD PTR [esi+28]
  00013	85 c0		 test	 eax, eax
  00015	74 09		 je	 SHORT $L190827
  00017	50		 push	 eax
  00018	e8 00 00 00 00	 call	 ??_V@YAXPAX@Z		; operator delete[]
  0001d	83 c4 04	 add	 esp, 4
$L190827:

; 465  : }

  00020	8b 86 38 08 00
	00		 mov	 eax, DWORD PTR [esi+2104]
  00026	83 e8 10	 sub	 eax, 16			; 00000010H
  00029	c7 46 1c 00 00
	00 00		 mov	 DWORD PTR [esi+28], 0
  00030	c7 46 18 00 00
	00 00		 mov	 DWORD PTR [esi+24], 0
  00037	8d 48 0c	 lea	 ecx, DWORD PTR [eax+12]
  0003a	83 ca ff	 or	 edx, -1
  0003d	f0 0f c1 11	 lock	  xadd	 DWORD PTR [ecx], edx
  00041	4a		 dec	 edx
  00042	85 d2		 test	 edx, edx
  00044	7f 08		 jg	 SHORT $L190853
  00046	8b 08		 mov	 ecx, DWORD PTR [eax]
  00048	8b 11		 mov	 edx, DWORD PTR [ecx]
  0004a	50		 push	 eax
  0004b	ff 52 04	 call	 DWORD PTR [edx+4]
$L190853:
  0004e	8b 76 20	 mov	 esi, DWORD PTR [esi+32]
  00051	83 ee 10	 sub	 esi, 16			; 00000010H
  00054	8d 46 0c	 lea	 eax, DWORD PTR [esi+12]
  00057	83 c9 ff	 or	 ecx, -1
  0005a	f0 0f c1 08	 lock	  xadd	 DWORD PTR [eax], ecx
  0005e	49		 dec	 ecx
  0005f	85 c9		 test	 ecx, ecx
  00061	7f 08		 jg	 SHORT $L190880
  00063	8b 0e		 mov	 ecx, DWORD PTR [esi]
  00065	8b 11		 mov	 edx, DWORD PTR [ecx]
  00067	56		 push	 esi
  00068	ff 52 04	 call	 DWORD PTR [edx+4]
$L190880:
  0006b	5e		 pop	 esi
  0006c	c3		 ret	 0
??1CScanner@@UAE@XZ ENDP				; CScanner::~CScanner
_TEXT	ENDS
PUBLIC	?GetInt64@CScanner@@QAE_JH@Z			; CScanner::GetInt64
EXTRN	__atoi64:NEAR
; Function compile flags: /Ogty
;	COMDAT ?GetInt64@CScanner@@QAE_JH@Z
_TEXT	SEGMENT
_bComma$ = 8						; size = 4
?GetInt64@CScanner@@QAE_JH@Z PROC NEAR			; CScanner::GetInt64, COMDAT
; _this$ = ecx

; 905  : {

  00000	53		 push	 ebx

; 906  : 	m_dwDef		= 1;
; 907  : 	if( GetToken( bComma ) == HEX )

  00001	8b 5c 24 08	 mov	 ebx, DWORD PTR _bComma$[esp]
  00005	56		 push	 esi
  00006	8b f1		 mov	 esi, ecx
  00008	8b 06		 mov	 eax, DWORD PTR [esi]
  0000a	57		 push	 edi
  0000b	53		 push	 ebx
  0000c	c7 46 10 01 00
	00 00		 mov	 DWORD PTR [esi+16], 1
  00013	ff 50 14	 call	 DWORD PTR [eax+20]
  00016	33 ff		 xor	 edi, edi
  00018	83 f8 04	 cmp	 eax, 4
  0001b	0f 84 97 00 00
	00		 je	 $L189839

; 908  : 	{
; 909  : 	}
; 910  : 	else if( !Token.IsEmpty() )

  00021	8b 4e 20	 mov	 ecx, DWORD PTR [esi+32]
  00024	39 79 f4	 cmp	 DWORD PTR [ecx-12], edi
  00027	0f 84 8b 00 00
	00		 je	 $L189839

; 911  : 	{
; 912  : 		switch( Token[0] )

  0002d	8b c1		 mov	 eax, ecx
  0002f	39 78 f4	 cmp	 DWORD PTR [eax-12], edi
  00032	7d 0a		 jge	 SHORT $L190918
  00034	68 57 00 07 80	 push	 -2147024809		; 80070057H
  00039	e8 00 00 00 00	 call	 ?AtlThrow@ATL@@YGXJ@Z	; ATL::AtlThrow
$L190918:
  0003e	0f be 00	 movsx	 eax, BYTE PTR [eax]
  00041	83 e8 2b	 sub	 eax, 43			; 0000002bH
  00044	74 51		 je	 SHORT $L189847
  00046	83 e8 02	 sub	 eax, 2
  00049	74 13		 je	 SHORT $L189845
  0004b	83 e8 10	 sub	 eax, 16			; 00000010H
  0004e	75 53		 jne	 SHORT $L189849

; 935  : 	}
; 936  : 	m_dwDef = 0;

  00050	89 7e 10	 mov	 DWORD PTR [esi+16], edi
  00053	5f		 pop	 edi
  00054	5e		 pop	 esi
  00055	83 c8 ff	 or	 eax, -1

; 937  : 	return (__int64)0;

  00058	33 d2		 xor	 edx, edx
  0005a	5b		 pop	 ebx

; 938  : }

  0005b	c2 04 00	 ret	 4
$L189845:

; 913  : 		{
; 914  : 			case '=': 
; 915  : 				m_dwDef = 0;
; 916  : 				return NULL_ID;
; 917  : 			case '-': 
; 918  : 				if( bComma == FALSE )

  0005e	3b df		 cmp	 ebx, edi
  00060	75 23		 jne	 SHORT $L189846

; 919  : 				{
; 920  : 					GetToken();	

  00062	8b 16		 mov	 edx, DWORD PTR [esi]
  00064	57		 push	 edi
  00065	8b ce		 mov	 ecx, esi
  00067	ff 52 14	 call	 DWORD PTR [edx+20]

; 921  : 					m_dwDef = 0;

  0006a	89 7e 10	 mov	 DWORD PTR [esi+16], edi

; 922  : 					return -_atoi64( Token );

  0006d	8b 76 20	 mov	 esi, DWORD PTR [esi+32]
  00070	56		 push	 esi
  00071	e8 00 00 00 00	 call	 __atoi64
  00076	83 c4 04	 add	 esp, 4
  00079	f7 d8		 neg	 eax
  0007b	13 d7		 adc	 edx, edi
  0007d	5f		 pop	 edi
  0007e	5e		 pop	 esi
  0007f	f7 da		 neg	 edx
  00081	5b		 pop	 ebx

; 938  : }

  00082	c2 04 00	 ret	 4
$L189846:

; 923  : 				}
; 924  : 				else
; 925  : 				{
; 926  : 					m_dwDef = 0;
; 927  : 					return _atoi64( Token );

  00085	51		 push	 ecx
  00086	89 7e 10	 mov	 DWORD PTR [esi+16], edi
  00089	e8 00 00 00 00	 call	 __atoi64
  0008e	83 c4 04	 add	 esp, 4
  00091	5f		 pop	 edi
  00092	5e		 pop	 esi
  00093	5b		 pop	 ebx

; 938  : }

  00094	c2 04 00	 ret	 4
$L189847:

; 928  : 				}
; 929  : 			case '+':	
; 930  : 				if( bComma == FALSE )

  00097	3b df		 cmp	 ebx, edi
  00099	75 08		 jne	 SHORT $L189849

; 931  : 					GetToken();	

  0009b	8b 06		 mov	 eax, DWORD PTR [esi]
  0009d	57		 push	 edi
  0009e	8b ce		 mov	 ecx, esi
  000a0	ff 50 14	 call	 DWORD PTR [eax+20]
$L189849:

; 932  : 		}
; 933  : 		m_dwDef = 0;

  000a3	89 7e 10	 mov	 DWORD PTR [esi+16], edi

; 934  : 		return _atoi64( Token );

  000a6	8b 76 20	 mov	 esi, DWORD PTR [esi+32]
  000a9	56		 push	 esi
  000aa	e8 00 00 00 00	 call	 __atoi64
  000af	83 c4 04	 add	 esp, 4
  000b2	5f		 pop	 edi
  000b3	5e		 pop	 esi
  000b4	5b		 pop	 ebx

; 938  : }

  000b5	c2 04 00	 ret	 4
$L189839:

; 935  : 	}
; 936  : 	m_dwDef = 0;

  000b8	89 7e 10	 mov	 DWORD PTR [esi+16], edi
  000bb	5f		 pop	 edi
  000bc	5e		 pop	 esi

; 937  : 	return (__int64)0;

  000bd	33 c0		 xor	 eax, eax
  000bf	33 d2		 xor	 edx, edx
  000c1	5b		 pop	 ebx

; 938  : }

  000c2	c2 04 00	 ret	 4
$L190935:
?GetInt64@CScanner@@QAE_JH@Z ENDP			; CScanner::GetInt64
_TEXT	ENDS
PUBLIC	?GetFloat@CScanner@@QAEMH@Z			; CScanner::GetFloat
PUBLIC	__real@bf800000
PUBLIC	__real@00000000
EXTRN	__fltused:NEAR
EXTRN	_atof:NEAR
;	COMDAT __real@bf800000
; File c:\program files\microsoft visual studio .net 2003\vc7\atlmfc\include\atlsimpstr.h
CONST	SEGMENT
__real@bf800000 DD 0bf800000r			; -1
CONST	ENDS
;	COMDAT __real@00000000
CONST	SEGMENT
__real@00000000 DD 000000000r			; 0
; Function compile flags: /Ogty
; File c:\documents and settings\test\mes documents\source\virtuos_v17\build\program\_common\scanner.cpp
CONST	ENDS
;	COMDAT ?GetFloat@CScanner@@QAEMH@Z
_TEXT	SEGMENT
_bComma$ = 8						; size = 4
?GetFloat@CScanner@@QAEMH@Z PROC NEAR			; CScanner::GetFloat, COMDAT
; _this$ = ecx

; 941  : {

  00000	53		 push	 ebx
  00001	56		 push	 esi
  00002	57		 push	 edi

; 942  : 	m_dwDef = 1;
; 943  : 	GetToken( bComma );

  00003	8b 7c 24 10	 mov	 edi, DWORD PTR _bComma$[esp+8]
  00007	8b f1		 mov	 esi, ecx
  00009	8b 06		 mov	 eax, DWORD PTR [esi]
  0000b	57		 push	 edi
  0000c	c7 46 10 01 00
	00 00		 mov	 DWORD PTR [esi+16], 1
  00013	ff 50 14	 call	 DWORD PTR [eax+20]

; 944  : 	if( !Token.IsEmpty() )

  00016	8b 4e 20	 mov	 ecx, DWORD PTR [esi+32]
  00019	8b 41 f4	 mov	 eax, DWORD PTR [ecx-12]
  0001c	33 db		 xor	 ebx, ebx
  0001e	3b c3		 cmp	 eax, ebx
  00020	74 6e		 je	 SHORT $L189855

; 945  : 	{
; 946  : 		switch( Token[0] )

  00022	8b c1		 mov	 eax, ecx
  00024	39 58 f4	 cmp	 DWORD PTR [eax-12], ebx
  00027	7d 0a		 jge	 SHORT $L190966
  00029	68 57 00 07 80	 push	 -2147024809		; 80070057H
  0002e	e8 00 00 00 00	 call	 ?AtlThrow@ATL@@YGXJ@Z	; ATL::AtlThrow
$L190966:
  00033	0f be 00	 movsx	 eax, BYTE PTR [eax]
  00036	83 e8 2b	 sub	 eax, 43			; 0000002bH
  00039	74 38		 je	 SHORT $L189863
  0003b	83 e8 02	 sub	 eax, 2
  0003e	74 14		 je	 SHORT $L189861
  00040	83 e8 10	 sub	 eax, 16			; 00000010H
  00043	75 36		 jne	 SHORT $L189857

; 947  : 		{
; 948  : 			case '=': 
; 949  : 				m_dwDef = 0;
; 950  : 				return -1;

  00045	d9 05 00 00 00
	00		 fld	 DWORD PTR __real@bf800000
  0004b	5f		 pop	 edi

; 960  : 	}
; 961  : 	m_dwDef = 0;

  0004c	89 5e 10	 mov	 DWORD PTR [esi+16], ebx
  0004f	5e		 pop	 esi
  00050	5b		 pop	 ebx

; 963  : }

  00051	c2 04 00	 ret	 4
$L189861:

; 951  : 			case '-': 
; 952  : 				GetToken(bComma);	

  00054	8b 16		 mov	 edx, DWORD PTR [esi]
  00056	57		 push	 edi
  00057	8b ce		 mov	 ecx, esi
  00059	ff 52 14	 call	 DWORD PTR [edx+20]

; 953  : 				m_dwDef = 0;

  0005c	89 5e 10	 mov	 DWORD PTR [esi+16], ebx

; 954  : 				return (FLOAT)-atof(Token);

  0005f	8b 76 20	 mov	 esi, DWORD PTR [esi+32]
  00062	56		 push	 esi
  00063	e8 00 00 00 00	 call	 _atof
  00068	d9 e0		 fchs
  0006a	83 c4 04	 add	 esp, 4
  0006d	5f		 pop	 edi
  0006e	5e		 pop	 esi
  0006f	5b		 pop	 ebx

; 963  : }

  00070	c2 04 00	 ret	 4
$L189863:

; 955  : 			case '+':	
; 956  : 				GetToken(bComma);	

  00073	8b 06		 mov	 eax, DWORD PTR [esi]
  00075	57		 push	 edi
  00076	8b ce		 mov	 ecx, esi
  00078	ff 50 14	 call	 DWORD PTR [eax+20]
$L189857:

; 957  : 		}
; 958  : 		m_dwDef = 0;

  0007b	89 5e 10	 mov	 DWORD PTR [esi+16], ebx

; 959  : 		return (FLOAT)atof(Token);

  0007e	8b 76 20	 mov	 esi, DWORD PTR [esi+32]
  00081	56		 push	 esi
  00082	e8 00 00 00 00	 call	 _atof
  00087	83 c4 04	 add	 esp, 4
  0008a	5f		 pop	 edi
  0008b	5e		 pop	 esi
  0008c	5b		 pop	 ebx

; 963  : }

  0008d	c2 04 00	 ret	 4
$L189855:

; 962  : 	return 0.0f;

  00090	d9 05 00 00 00
	00		 fld	 DWORD PTR __real@00000000
  00096	5f		 pop	 edi
  00097	89 5e 10	 mov	 DWORD PTR [esi+16], ebx
  0009a	5e		 pop	 esi
  0009b	5b		 pop	 ebx

; 963  : }

  0009c	c2 04 00	 ret	 4
$L190988:
?GetFloat@CScanner@@QAEMH@Z ENDP			; CScanner::GetFloat
_TEXT	ENDS
PUBLIC	?GetBuffer@?$CSimpleStringT@D$0A@@ATL@@QAEPADH@Z ; ATL::CSimpleStringT<char,0>::GetBuffer
; Function compile flags: /Ogty
; File c:\program files\microsoft visual studio .net 2003\vc7\atlmfc\include\atlsimpstr.h
;	COMDAT ?GetBuffer@?$CSimpleStringT@D$0A@@ATL@@QAEPADH@Z
_TEXT	SEGMENT
_nMinBufferLength$ = 8					; size = 4
?GetBuffer@?$CSimpleStringT@D$0A@@ATL@@QAEPADH@Z PROC NEAR ; ATL::CSimpleStringT<char,0>::GetBuffer, COMDAT
; _this$ = ecx

; 489  : 	{

  00000	56		 push	 esi
  00001	8b f1		 mov	 esi, ecx

; 490  : 		return( PrepareWrite( nMinBufferLength ) );

  00003	8b 06		 mov	 eax, DWORD PTR [esi]
  00005	8b 50 fc	 mov	 edx, DWORD PTR [eax-4]
  00008	83 e8 10	 sub	 eax, 16			; 00000010H
  0000b	b9 01 00 00 00	 mov	 ecx, 1
  00010	2b ca		 sub	 ecx, edx
  00012	8b 50 08	 mov	 edx, DWORD PTR [eax+8]
  00015	8b 44 24 08	 mov	 eax, DWORD PTR _nMinBufferLength$[esp]
  00019	2b d0		 sub	 edx, eax
  0001b	0b ca		 or	 ecx, edx
  0001d	7d 08		 jge	 SHORT $L191006
  0001f	50		 push	 eax
  00020	8b ce		 mov	 ecx, esi
  00022	e8 00 00 00 00	 call	 ?PrepareWrite2@?$CSimpleStringT@D$0A@@ATL@@AAEXH@Z ; ATL::CSimpleStringT<char,0>::PrepareWrite2
$L191006:
  00027	8b 06		 mov	 eax, DWORD PTR [esi]
  00029	5e		 pop	 esi

; 491  : 	}

  0002a	c2 04 00	 ret	 4
?GetBuffer@?$CSimpleStringT@D$0A@@ATL@@QAEPADH@Z ENDP	; ATL::CSimpleStringT<char,0>::GetBuffer
_TEXT	ENDS
PUBLIC	?LoadStringA@?$CStringT@DV?$StrTraitMFC@DV?$ChTraitsCRT@D@ATL@@@@@ATL@@QAEHPAUHINSTANCE__@@I@Z ; ATL::CStringT<char,StrTraitMFC<char,ATL::ChTraitsCRT<char> > >::LoadStringA
; Function compile flags: /Ogty
; File c:\program files\microsoft visual studio .net 2003\vc7\atlmfc\include\cstringt.h
;	COMDAT ?LoadStringA@?$CStringT@DV?$StrTraitMFC@DV?$ChTraitsCRT@D@ATL@@@@@ATL@@QAEHPAUHINSTANCE__@@I@Z
_TEXT	SEGMENT
_hInstance$ = 8						; size = 4
_nID$ = 12						; size = 4
?LoadStringA@?$CStringT@DV?$StrTraitMFC@DV?$ChTraitsCRT@D@ATL@@@@@ATL@@QAEHPAUHINSTANCE__@@I@Z PROC NEAR ; ATL::CStringT<char,StrTraitMFC<char,ATL::ChTraitsCRT<char> > >::LoadStringA, COMDAT
; _this$ = ecx

; 1981 : 	{

  00000	53		 push	 ebx
  00001	56		 push	 esi

; 1982 : 		const ATLSTRINGRESOURCEIMAGE* pImage = AtlGetStringResourceImage( hInstance, nID );

  00002	8b 74 24 10	 mov	 esi, DWORD PTR _nID$[esp+4]
  00006	8b c6		 mov	 eax, esi
  00008	c1 e8 04	 shr	 eax, 4
  0000b	57		 push	 edi
  0000c	8b 7c 24 10	 mov	 edi, DWORD PTR _hInstance$[esp+8]
  00010	40		 inc	 eax
  00011	8b d9		 mov	 ebx, ecx
  00013	0f b7 c8	 movzx	 ecx, ax
  00016	6a 06		 push	 6
  00018	51		 push	 ecx
  00019	57		 push	 edi
  0001a	ff 15 00 00 00
	00		 call	 DWORD PTR __imp__FindResourceA@12
  00020	85 c0		 test	 eax, eax
  00022	74 11		 je	 SHORT $L191085
  00024	56		 push	 esi
  00025	50		 push	 eax
  00026	57		 push	 edi
  00027	e8 00 00 00 00	 call	 ?_AtlGetStringResourceImage@ATL@@YAPBUATLSTRINGRESOURCEIMAGE@1@PAUHINSTANCE__@@PAUHRSRC__@@I@Z ; ATL::_AtlGetStringResourceImage
  0002c	8b f8		 mov	 edi, eax
  0002e	83 c4 0c	 add	 esp, 12			; 0000000cH

; 1983 : 		if( pImage == NULL )

  00031	85 ff		 test	 edi, edi
  00033	75 08		 jne	 SHORT $L184183
$L191085:
  00035	5f		 pop	 edi
  00036	5e		 pop	 esi

; 1984 : 		{
; 1985 : 			return( FALSE );

  00037	33 c0		 xor	 eax, eax
  00039	5b		 pop	 ebx

; 1994 : 	}

  0003a	c2 08 00	 ret	 8
$L184183:

; 1986 : 		}
; 1987 : 
; 1988 : 		int nLength = StringTraits::GetBaseTypeLength( pImage->achString, pImage->nLength );

  0003d	0f b7 37	 movzx	 esi, WORD PTR [edi]
  00040	55		 push	 ebp
  00041	ff 15 00 00 00
	00		 call	 DWORD PTR ?g_pfnGetThreadACP@ATL@@3P6GIXZA ; ATL::g_pfnGetThreadACP
  00047	6a 00		 push	 0
  00049	6a 00		 push	 0
  0004b	6a 00		 push	 0
  0004d	6a 00		 push	 0
  0004f	56		 push	 esi
  00050	8d 6f 02	 lea	 ebp, DWORD PTR [edi+2]
  00053	55		 push	 ebp
  00054	6a 00		 push	 0
  00056	50		 push	 eax
  00057	ff 15 00 00 00
	00		 call	 DWORD PTR __imp__WideCharToMultiByte@32
  0005d	8b f0		 mov	 esi, eax

; 1989 : 		PXSTR pszBuffer = GetBuffer( nLength );

  0005f	8b 03		 mov	 eax, DWORD PTR [ebx]
  00061	8b 48 fc	 mov	 ecx, DWORD PTR [eax-4]
  00064	83 e8 10	 sub	 eax, 16			; 00000010H
  00067	8b 40 08	 mov	 eax, DWORD PTR [eax+8]
  0006a	ba 01 00 00 00	 mov	 edx, 1
  0006f	2b d1		 sub	 edx, ecx
  00071	2b c6		 sub	 eax, esi
  00073	0b d0		 or	 edx, eax
  00075	7d 08		 jge	 SHORT $L191046
  00077	56		 push	 esi
  00078	8b cb		 mov	 ecx, ebx
  0007a	e8 00 00 00 00	 call	 ?PrepareWrite2@?$CSimpleStringT@D$0A@@ATL@@AAEXH@Z ; ATL::CSimpleStringT<char,0>::PrepareWrite2
$L191046:
  0007f	8b 03		 mov	 eax, DWORD PTR [ebx]

; 1990 : 		StringTraits::ConvertToBaseType( pszBuffer, nLength, pImage->achString, pImage->nLength );

  00081	0f b7 0f	 movzx	 ecx, WORD PTR [edi]
  00084	6a 00		 push	 0
  00086	6a 00		 push	 0
  00088	56		 push	 esi
  00089	50		 push	 eax
  0008a	51		 push	 ecx
  0008b	55		 push	 ebp
  0008c	6a 00		 push	 0
  0008e	ff 15 00 00 00
	00		 call	 DWORD PTR ?g_pfnGetThreadACP@ATL@@3P6GIXZA ; ATL::g_pfnGetThreadACP
  00094	50		 push	 eax
  00095	ff 15 00 00 00
	00		 call	 DWORD PTR __imp__WideCharToMultiByte@32

; 1991 : 		ReleaseBufferSetLength( nLength );

  0009b	85 f6		 test	 esi, esi
  0009d	5d		 pop	 ebp
  0009e	7c 1b		 jl	 SHORT $L191082
  000a0	8b 03		 mov	 eax, DWORD PTR [ebx]
  000a2	3b 70 f8	 cmp	 esi, DWORD PTR [eax-8]
  000a5	7f 14		 jg	 SHORT $L191082
  000a7	89 70 f4	 mov	 DWORD PTR [eax-12], esi
  000aa	8b 0b		 mov	 ecx, DWORD PTR [ebx]
  000ac	5f		 pop	 edi
  000ad	c6 04 0e 00	 mov	 BYTE PTR [esi+ecx], 0
  000b1	5e		 pop	 esi

; 1992 : 
; 1993 : 		return( TRUE );

  000b2	b8 01 00 00 00	 mov	 eax, 1
  000b7	5b		 pop	 ebx

; 1994 : 	}

  000b8	c2 08 00	 ret	 8
$L191082:
  000bb	68 57 00 07 80	 push	 -2147024809		; 80070057H
  000c0	e8 00 00 00 00	 call	 ?AtlThrow@ATL@@YGXJ@Z	; ATL::AtlThrow
$L191086:
  000c5	cc		 int	 3
?LoadStringA@?$CStringT@DV?$StrTraitMFC@DV?$ChTraitsCRT@D@ATL@@@@@ATL@@QAEHPAUHINSTANCE__@@I@Z ENDP ; ATL::CStringT<char,StrTraitMFC<char,ATL::ChTraitsCRT<char> > >::LoadStringA
_TEXT	ENDS
PUBLIC	?SetString@?$CSimpleStringT@D$0A@@ATL@@QAEXPBDH@Z ; ATL::CSimpleStringT<char,0>::SetString
; Function compile flags: /Ogty
; File c:\program files\microsoft visual studio .net 2003\vc7\atlmfc\include\atlsimpstr.h
;	COMDAT ?SetString@?$CSimpleStringT@D$0A@@ATL@@QAEXPBDH@Z
_TEXT	SEGMENT
_pszSrc$ = 8						; size = 4
_nLength$ = 12						; size = 4
?SetString@?$CSimpleStringT@D$0A@@ATL@@QAEXPBDH@Z PROC NEAR ; ATL::CSimpleStringT<char,0>::SetString, COMDAT
; _this$ = ecx

; 583  : 	{

  00000	53		 push	 ebx

; 584  : 		if( nLength == 0 )

  00001	8b 5c 24 0c	 mov	 ebx, DWORD PTR _nLength$[esp]
  00005	85 db		 test	 ebx, ebx
  00007	55		 push	 ebp
  00008	8b e9		 mov	 ebp, ecx
  0000a	75 0a		 jne	 SHORT $L184946

; 585  : 		{
; 586  : 			Empty();

  0000c	e8 00 00 00 00	 call	 ?Empty@?$CSimpleStringT@D$0A@@ATL@@QAEXXZ ; ATL::CSimpleStringT<char,0>::Empty
  00011	5d		 pop	 ebp
  00012	5b		 pop	 ebx

; 614  : 		}
; 615  : 	}

  00013	c2 08 00	 ret	 8
$L184946:

; 587  : 		}
; 588  : 		else
; 589  : 		{
; 590  : 			// It is possible that pszSrc points to a location inside of our 
; 591  : 			// buffer.  GetBuffer() might change m_pszData if (1) the buffer 
; 592  : 			// is shared or (2) the buffer is too small to hold the new 
; 593  : 			// string.  We detect this aliasing, and modify pszSrc to point
; 594  : 			// into the newly allocated buffer instead.
; 595  : 			
; 596  : 			if(pszSrc == NULL)

  00016	8b 54 24 0c	 mov	 edx, DWORD PTR _pszSrc$[esp+4]
  0001a	85 d2		 test	 edx, edx
  0001c	75 0a		 jne	 SHORT $L184948

; 612  : 			}
; 613  : 			ReleaseBufferSetLength( nLength );

$L191157:
  0001e	68 57 00 07 80	 push	 -2147024809		; 80070057H
  00023	e8 00 00 00 00	 call	 ?AtlThrow@ATL@@YGXJ@Z	; ATL::AtlThrow
$L184948:

; 597  : 				AtlThrow(E_INVALIDARG);			
; 598  : 				
; 599  : 			UINT nOldLength = GetLength();

  00028	8b 45 00	 mov	 eax, DWORD PTR [ebp]
  0002b	56		 push	 esi

; 600  : 			UINT_PTR nOffset = pszSrc-GetString();

  0002c	8b f2		 mov	 esi, edx
  0002e	2b f0		 sub	 esi, eax

; 601  : 			// If 0 <= nOffset <= nOldLength, then pszSrc points into our 
; 602  : 			// buffer
; 603  : 
; 604  : 			PXSTR pszBuffer = GetBuffer( nLength );

  00030	b9 01 00 00 00	 mov	 ecx, 1
  00035	2b 48 fc	 sub	 ecx, DWORD PTR [eax-4]
  00038	57		 push	 edi
  00039	8b 78 f4	 mov	 edi, DWORD PTR [eax-12]
  0003c	8b 40 f8	 mov	 eax, DWORD PTR [eax-8]
  0003f	2b c3		 sub	 eax, ebx
  00041	0b c8		 or	 ecx, eax
  00043	7d 0c		 jge	 SHORT $L191124
  00045	53		 push	 ebx
  00046	8b cd		 mov	 ecx, ebp
  00048	e8 00 00 00 00	 call	 ?PrepareWrite2@?$CSimpleStringT@D$0A@@ATL@@AAEXH@Z ; ATL::CSimpleStringT<char,0>::PrepareWrite2
  0004d	8b 54 24 14	 mov	 edx, DWORD PTR _pszSrc$[esp+12]
$L191124:

; 605  : 			if( nOffset <= nOldLength )

  00051	3b f7		 cmp	 esi, edi
  00053	8b 45 00	 mov	 eax, DWORD PTR [ebp]
  00056	77 10		 ja	 SHORT $L184953

; 606  : 			{
; 607  : 				CopyCharsOverlapped( pszBuffer, pszBuffer+nOffset, nLength );

  00058	53		 push	 ebx
  00059	8d 0c 30	 lea	 ecx, DWORD PTR [eax+esi]
  0005c	51		 push	 ecx
  0005d	50		 push	 eax
  0005e	e8 00 00 00 00	 call	 _memmove
  00063	83 c4 0c	 add	 esp, 12			; 0000000cH

; 608  : 			}
; 609  : 			else

  00066	eb 14		 jmp	 SHORT $L191130
$L184953:

; 610  : 			{
; 611  : 				CopyChars( pszBuffer, pszSrc, nLength );

  00068	8b cb		 mov	 ecx, ebx
  0006a	8b f2		 mov	 esi, edx
  0006c	8b d1		 mov	 edx, ecx
  0006e	c1 e9 02	 shr	 ecx, 2
  00071	8b f8		 mov	 edi, eax
  00073	f3 a5		 rep movsd
  00075	8b ca		 mov	 ecx, edx
  00077	83 e1 03	 and	 ecx, 3
  0007a	f3 a4		 rep movsb
$L191130:

; 612  : 			}
; 613  : 			ReleaseBufferSetLength( nLength );

  0007c	85 db		 test	 ebx, ebx
  0007e	5f		 pop	 edi
  0007f	5e		 pop	 esi
  00080	7c 9c		 jl	 SHORT $L191157
  00082	8b 45 00	 mov	 eax, DWORD PTR [ebp]
  00085	3b 58 f8	 cmp	 ebx, DWORD PTR [eax-8]
  00088	7f 94		 jg	 SHORT $L191157
  0008a	89 58 f4	 mov	 DWORD PTR [eax-12], ebx
  0008d	8b 45 00	 mov	 eax, DWORD PTR [ebp]
  00090	5d		 pop	 ebp
  00091	c6 04 03 00	 mov	 BYTE PTR [ebx+eax], 0
  00095	5b		 pop	 ebx

; 614  : 		}
; 615  : 	}

  00096	c2 08 00	 ret	 8
$L191160:
?SetString@?$CSimpleStringT@D$0A@@ATL@@QAEXPBDH@Z ENDP	; ATL::CSimpleStringT<char,0>::SetString
; Function compile flags: /Ogty
_TEXT	ENDS
;	COMDAT ??_GCScanner@@UAEPAXI@Z
_TEXT	SEGMENT
___flags$ = 8						; size = 4
??_GCScanner@@UAEPAXI@Z PROC NEAR			; CScanner::`scalar deleting destructor', COMDAT
; _this$ = ecx
  00000	56		 push	 esi
  00001	8b f1		 mov	 esi, ecx
  00003	e8 00 00 00 00	 call	 ??1CScanner@@UAE@XZ	; CScanner::~CScanner
  00008	f6 44 24 08 01	 test	 BYTE PTR ___flags$[esp], 1
  0000d	74 09		 je	 SHORT $L191163
  0000f	56		 push	 esi
  00010	e8 00 00 00 00	 call	 ??3@YAXPAX@Z		; operator delete
  00015	83 c4 04	 add	 esp, 4
$L191163:
  00018	8b c6		 mov	 eax, esi
  0001a	5e		 pop	 esi
  0001b	c2 04 00	 ret	 4
??_GCScanner@@UAEPAXI@Z ENDP				; CScanner::`scalar deleting destructor'
_TEXT	ENDS
PUBLIC	?MakeLower@?$CStringT@DV?$StrTraitMFC@DV?$ChTraitsCRT@D@ATL@@@@@ATL@@QAEAAV12@XZ ; ATL::CStringT<char,StrTraitMFC<char,ATL::ChTraitsCRT<char> > >::MakeLower
; Function compile flags: /Ogty
; File c:\program files\microsoft visual studio .net 2003\vc7\atlmfc\include\cstringt.h
;	COMDAT ?MakeLower@?$CStringT@DV?$StrTraitMFC@DV?$ChTraitsCRT@D@ATL@@@@@ATL@@QAEAAV12@XZ
_TEXT	SEGMENT
?MakeLower@?$CStringT@DV?$StrTraitMFC@DV?$ChTraitsCRT@D@ATL@@@@@ATL@@QAEAAV12@XZ PROC NEAR ; ATL::CStringT<char,StrTraitMFC<char,ATL::ChTraitsCRT<char> > >::MakeLower, COMDAT
; _this$ = ecx

; 1446 : 	{

  00000	56		 push	 esi
  00001	8b f1		 mov	 esi, ecx

; 1447 : 		int nLength = GetLength();

  00003	8b 06		 mov	 eax, DWORD PTR [esi]

; 1448 : 		PXSTR pszBuffer = GetBuffer( nLength );

  00005	8b 50 fc	 mov	 edx, DWORD PTR [eax-4]
  00008	b9 01 00 00 00	 mov	 ecx, 1
  0000d	2b ca		 sub	 ecx, edx
  0000f	8b 50 f8	 mov	 edx, DWORD PTR [eax-8]
  00012	57		 push	 edi
  00013	8b 78 f4	 mov	 edi, DWORD PTR [eax-12]
  00016	2b d7		 sub	 edx, edi
  00018	0b ca		 or	 ecx, edx
  0001a	7d 08		 jge	 SHORT $L191196
  0001c	57		 push	 edi
  0001d	8b ce		 mov	 ecx, esi
  0001f	e8 00 00 00 00	 call	 ?PrepareWrite2@?$CSimpleStringT@D$0A@@ATL@@AAEXH@Z ; ATL::CSimpleStringT<char,0>::PrepareWrite2
$L191196:

; 1449 : 		StringTraits::StringLowercase( pszBuffer );

  00024	8b 06		 mov	 eax, DWORD PTR [esi]
  00026	50		 push	 eax
  00027	e8 00 00 00 00	 call	 __mbslwr
  0002c	83 c4 04	 add	 esp, 4

; 1450 : 		ReleaseBufferSetLength( nLength );

  0002f	85 ff		 test	 edi, edi
  00031	7c 15		 jl	 SHORT $L191226
  00033	8b 06		 mov	 eax, DWORD PTR [esi]
  00035	3b 78 f8	 cmp	 edi, DWORD PTR [eax-8]
  00038	7f 0e		 jg	 SHORT $L191226
  0003a	89 78 f4	 mov	 DWORD PTR [eax-12], edi
  0003d	8b 0e		 mov	 ecx, DWORD PTR [esi]
  0003f	c6 04 0f 00	 mov	 BYTE PTR [edi+ecx], 0
  00043	5f		 pop	 edi

; 1451 : 
; 1452 : 		return( *this );

  00044	8b c6		 mov	 eax, esi
  00046	5e		 pop	 esi

; 1453 : 	}

  00047	c3		 ret	 0
$L191226:
  00048	68 57 00 07 80	 push	 -2147024809		; 80070057H
  0004d	e8 00 00 00 00	 call	 ?AtlThrow@ATL@@YGXJ@Z	; ATL::AtlThrow
$L191229:
  00052	cc		 int	 3
?MakeLower@?$CStringT@DV?$StrTraitMFC@DV?$ChTraitsCRT@D@ATL@@@@@ATL@@QAEAAV12@XZ ENDP ; ATL::CStringT<char,StrTraitMFC<char,ATL::ChTraitsCRT<char> > >::MakeLower
_TEXT	ENDS
PUBLIC	?FormatV@?$CStringT@DV?$StrTraitMFC@DV?$ChTraitsCRT@D@ATL@@@@@ATL@@QAEXPBDPAD@Z ; ATL::CStringT<char,StrTraitMFC<char,ATL::ChTraitsCRT<char> > >::FormatV
; Function compile flags: /Ogty
;	COMDAT ?FormatV@?$CStringT@DV?$StrTraitMFC@DV?$ChTraitsCRT@D@ATL@@@@@ATL@@QAEXPBDPAD@Z
_TEXT	SEGMENT
_pszFormat$ = 8						; size = 4
_args$ = 12						; size = 4
?FormatV@?$CStringT@DV?$StrTraitMFC@DV?$ChTraitsCRT@D@ATL@@@@@ATL@@QAEXPBDPAD@Z PROC NEAR ; ATL::CStringT<char,StrTraitMFC<char,ATL::ChTraitsCRT<char> > >::FormatV, COMDAT
; _this$ = ecx

; 1855 : 	{

  00000	53		 push	 ebx

; 1856 : 		ATLASSERT( AtlIsValidString( pszFormat ) );
; 1857 : 		if(pszFormat == NULL)

  00001	8b 5c 24 08	 mov	 ebx, DWORD PTR _pszFormat$[esp]
  00005	85 db		 test	 ebx, ebx
  00007	57		 push	 edi
  00008	8b f9		 mov	 edi, ecx
  0000a	75 0a		 jne	 SHORT $L189919

; 1858 : 			AtlThrow(E_INVALIDARG);

  0000c	68 57 00 07 80	 push	 -2147024809		; 80070057H
  00011	e8 00 00 00 00	 call	 ?AtlThrow@ATL@@YGXJ@Z	; ATL::AtlThrow
$L189919:
  00016	55		 push	 ebp

; 1859 : 
; 1860 : 		int nLength = StringTraits::GetFormattedLength( pszFormat, args );

  00017	8b 6c 24 14	 mov	 ebp, DWORD PTR _args$[esp+8]
  0001b	56		 push	 esi
  0001c	55		 push	 ebp
  0001d	53		 push	 ebx
  0001e	e8 00 00 00 00	 call	 __vscprintf
  00023	8b f0		 mov	 esi, eax

; 1861 : 		PXSTR pszBuffer = GetBuffer( nLength );

  00025	8b 07		 mov	 eax, DWORD PTR [edi]
  00027	8b 50 fc	 mov	 edx, DWORD PTR [eax-4]
  0002a	83 e8 10	 sub	 eax, 16			; 00000010H
  0002d	b9 01 00 00 00	 mov	 ecx, 1
  00032	2b ca		 sub	 ecx, edx
  00034	8b 50 08	 mov	 edx, DWORD PTR [eax+8]
  00037	2b d6		 sub	 edx, esi
  00039	83 c4 08	 add	 esp, 8
  0003c	0b ca		 or	 ecx, edx
  0003e	7d 08		 jge	 SHORT $L191257
  00040	56		 push	 esi
  00041	8b cf		 mov	 ecx, edi
  00043	e8 00 00 00 00	 call	 ?PrepareWrite2@?$CSimpleStringT@D$0A@@ATL@@AAEXH@Z ; ATL::CSimpleStringT<char,0>::PrepareWrite2
$L191257:

; 1862 : 		StringTraits::Format( pszBuffer, pszFormat, args );

  00048	8b 07		 mov	 eax, DWORD PTR [edi]
  0004a	55		 push	 ebp
  0004b	53		 push	 ebx
  0004c	50		 push	 eax
  0004d	e8 00 00 00 00	 call	 _vsprintf
  00052	83 c4 0c	 add	 esp, 12			; 0000000cH

; 1863 : 		ReleaseBufferSetLength( nLength );

  00055	85 f6		 test	 esi, esi
  00057	7c 17		 jl	 SHORT $L191287
  00059	8b 07		 mov	 eax, DWORD PTR [edi]
  0005b	3b 70 f8	 cmp	 esi, DWORD PTR [eax-8]
  0005e	7f 10		 jg	 SHORT $L191287
  00060	89 70 f4	 mov	 DWORD PTR [eax-12], esi
  00063	8b 0f		 mov	 ecx, DWORD PTR [edi]
  00065	c6 04 0e 00	 mov	 BYTE PTR [esi+ecx], 0
  00069	5e		 pop	 esi
  0006a	5d		 pop	 ebp
  0006b	5f		 pop	 edi
  0006c	5b		 pop	 ebx

; 1864 : 	}

  0006d	c2 08 00	 ret	 8
$L191287:
  00070	68 57 00 07 80	 push	 -2147024809		; 80070057H
  00075	e8 00 00 00 00	 call	 ?AtlThrow@ATL@@YGXJ@Z	; ATL::AtlThrow
$L191291:
  0007a	cc		 int	 3
?FormatV@?$CStringT@DV?$StrTraitMFC@DV?$ChTraitsCRT@D@ATL@@@@@ATL@@QAEXPBDPAD@Z ENDP ; ATL::CStringT<char,StrTraitMFC<char,ATL::ChTraitsCRT<char> > >::FormatV
_TEXT	ENDS
PUBLIC	?LoadStringA@?$CStringT@DV?$StrTraitMFC@DV?$ChTraitsCRT@D@ATL@@@@@ATL@@QAEHI@Z ; ATL::CStringT<char,StrTraitMFC<char,ATL::ChTraitsCRT<char> > >::LoadStringA
; Function compile flags: /Ogty
;	COMDAT ?LoadStringA@?$CStringT@DV?$StrTraitMFC@DV?$ChTraitsCRT@D@ATL@@@@@ATL@@QAEHI@Z
_TEXT	SEGMENT
_nID$ = 8						; size = 4
?LoadStringA@?$CStringT@DV?$StrTraitMFC@DV?$ChTraitsCRT@D@ATL@@@@@ATL@@QAEHI@Z PROC NEAR ; ATL::CStringT<char,StrTraitMFC<char,ATL::ChTraitsCRT<char> > >::LoadStringA, COMDAT
; _this$ = ecx

; 1969 : 	{

  00000	56		 push	 esi
  00001	57		 push	 edi

; 1970 : 		HINSTANCE hInst = StringTraits::FindStringResourceInstance( nID );

  00002	8b 7c 24 0c	 mov	 edi, DWORD PTR _nID$[esp+4]
  00006	57		 push	 edi
  00007	8b f1		 mov	 esi, ecx
  00009	e8 00 00 00 00	 call	 ?AfxFindStringResourceHandle@@YGPAUHINSTANCE__@@I@Z ; AfxFindStringResourceHandle

; 1971 : 		if( hInst == NULL )

  0000e	85 c0		 test	 eax, eax
  00010	75 05		 jne	 SHORT $L183105
  00012	5f		 pop	 edi
  00013	5e		 pop	 esi

; 1977 : 	}

  00014	c2 04 00	 ret	 4
$L183105:

; 1972 : 		{
; 1973 : 			return( FALSE );
; 1974 : 		}
; 1975 : 
; 1976 : 		return( LoadString( hInst, nID ) );		

  00017	57		 push	 edi
  00018	50		 push	 eax
  00019	8b ce		 mov	 ecx, esi
  0001b	e8 00 00 00 00	 call	 ?LoadStringA@?$CStringT@DV?$StrTraitMFC@DV?$ChTraitsCRT@D@ATL@@@@@ATL@@QAEHPAUHINSTANCE__@@I@Z ; ATL::CStringT<char,StrTraitMFC<char,ATL::ChTraitsCRT<char> > >::LoadStringA
  00020	5f		 pop	 edi
  00021	5e		 pop	 esi

; 1977 : 	}

  00022	c2 04 00	 ret	 4
?LoadStringA@?$CStringT@DV?$StrTraitMFC@DV?$ChTraitsCRT@D@ATL@@@@@ATL@@QAEHI@Z ENDP ; ATL::CStringT<char,StrTraitMFC<char,ATL::ChTraitsCRT<char> > >::LoadStringA
_TEXT	ENDS
PUBLIC	?CheckImplicitLoad@?$CStringT@DV?$StrTraitMFC@DV?$ChTraitsCRT@D@ATL@@@@@ATL@@AAE_NPBX@Z ; ATL::CStringT<char,StrTraitMFC<char,ATL::ChTraitsCRT<char> > >::CheckImplicitLoad
; Function compile flags: /Ogty
;	COMDAT ?CheckImplicitLoad@?$CStringT@DV?$StrTraitMFC@DV?$ChTraitsCRT@D@ATL@@@@@ATL@@AAE_NPBX@Z
_TEXT	SEGMENT
_pv$ = 8						; size = 4
?CheckImplicitLoad@?$CStringT@DV?$StrTraitMFC@DV?$ChTraitsCRT@D@ATL@@@@@ATL@@AAE_NPBX@Z PROC NEAR ; ATL::CStringT<char,StrTraitMFC<char,ATL::ChTraitsCRT<char> > >::CheckImplicitLoad, COMDAT
; _this$ = ecx

; 2229 : 	{

  00000	57		 push	 edi
  00001	8b f9		 mov	 edi, ecx

; 2230 : 		bool bRet = false;
; 2231 : 
; 2232 : 		if( (pv != NULL) && IS_INTRESOURCE( pv ) )

  00003	8b 4c 24 08	 mov	 ecx, DWORD PTR _pv$[esp]
  00007	32 c0		 xor	 al, al
  00009	85 c9		 test	 ecx, ecx
  0000b	74 22		 je	 SHORT $L184190
  0000d	f7 c1 00 00 ff
	ff		 test	 ecx, -65536		; ffff0000H
  00013	75 1a		 jne	 SHORT $L184190
  00015	56		 push	 esi

; 2233 : 		{
; 2234 : 			UINT nID = LOWORD( reinterpret_cast< DWORD_PTR >( pv ) );

  00016	0f b7 f1	 movzx	 esi, cx

; 2235 : 			if( !LoadString( nID ) )

  00019	56		 push	 esi
  0001a	e8 00 00 00 00	 call	 ?AfxFindStringResourceHandle@@YGPAUHINSTANCE__@@I@Z ; AfxFindStringResourceHandle
  0001f	85 c0		 test	 eax, eax
  00021	74 09		 je	 SHORT $L191303
  00023	56		 push	 esi
  00024	50		 push	 eax
  00025	8b cf		 mov	 ecx, edi
  00027	e8 00 00 00 00	 call	 ?LoadStringA@?$CStringT@DV?$StrTraitMFC@DV?$ChTraitsCRT@D@ATL@@@@@ATL@@QAEHPAUHINSTANCE__@@I@Z ; ATL::CStringT<char,StrTraitMFC<char,ATL::ChTraitsCRT<char> > >::LoadStringA
$L191303:

; 2236 : 			{
; 2237 : 				ATLTRACE( atlTraceString, 2, _T( "Warning: implicit LoadString(%u) failed\n" ), nID );
; 2238 : 			}
; 2239 : 			bRet = true;

  0002c	b0 01		 mov	 al, 1
  0002e	5e		 pop	 esi
$L184190:
  0002f	5f		 pop	 edi

; 2240 : 		}
; 2241 : 
; 2242 : 		return( bRet );
; 2243 : 	}

  00030	c2 04 00	 ret	 4
?CheckImplicitLoad@?$CStringT@DV?$StrTraitMFC@DV?$ChTraitsCRT@D@ATL@@@@@ATL@@AAE_NPBX@Z ENDP ; ATL::CStringT<char,StrTraitMFC<char,ATL::ChTraitsCRT<char> > >::CheckImplicitLoad
_TEXT	ENDS
PUBLIC	?SetString@?$CSimpleStringT@D$0A@@ATL@@QAEXPBD@Z ; ATL::CSimpleStringT<char,0>::SetString
; Function compile flags: /Ogty
; File c:\program files\microsoft visual studio .net 2003\vc7\atlmfc\include\atlsimpstr.h
;	COMDAT ?SetString@?$CSimpleStringT@D$0A@@ATL@@QAEXPBD@Z
_TEXT	SEGMENT
_pszSrc$ = 8						; size = 4
?SetString@?$CSimpleStringT@D$0A@@ATL@@QAEXPBD@Z PROC NEAR ; ATL::CSimpleStringT<char,0>::SetString, COMDAT
; _this$ = ecx

; 579  : 	{

  00000	56		 push	 esi

; 580  : 		SetString( pszSrc, StringLength( pszSrc ) );

  00001	8b 74 24 08	 mov	 esi, DWORD PTR _pszSrc$[esp]
  00005	85 f6		 test	 esi, esi
  00007	75 0d		 jne	 SHORT $L191317
  00009	33 c0		 xor	 eax, eax
  0000b	50		 push	 eax
  0000c	56		 push	 esi
  0000d	e8 00 00 00 00	 call	 ?SetString@?$CSimpleStringT@D$0A@@ATL@@QAEXPBDH@Z ; ATL::CSimpleStringT<char,0>::SetString
  00012	5e		 pop	 esi

; 581  : 	}

  00013	c2 04 00	 ret	 4

; 580  : 		SetString( pszSrc, StringLength( pszSrc ) );

$L191317:
  00016	8b c6		 mov	 eax, esi
  00018	57		 push	 edi
  00019	8d 78 01	 lea	 edi, DWORD PTR [eax+1]
  0001c	8d 64 24 00	 npad	 4
$L191319:
  00020	8a 10		 mov	 dl, BYTE PTR [eax]
  00022	40		 inc	 eax
  00023	84 d2		 test	 dl, dl
  00025	75 f9		 jne	 SHORT $L191319
  00027	2b c7		 sub	 eax, edi
  00029	5f		 pop	 edi
  0002a	50		 push	 eax
  0002b	56		 push	 esi
  0002c	e8 00 00 00 00	 call	 ?SetString@?$CSimpleStringT@D$0A@@ATL@@QAEXPBDH@Z ; ATL::CSimpleStringT<char,0>::SetString
  00031	5e		 pop	 esi

; 581  : 	}

  00032	c2 04 00	 ret	 4
?SetString@?$CSimpleStringT@D$0A@@ATL@@QAEXPBD@Z ENDP	; ATL::CSimpleStringT<char,0>::SetString
_TEXT	ENDS
PUBLIC	?GetNumber@CScanner@@QAEHH@Z			; CScanner::GetNumber
EXTRN	_atoi:NEAR
EXTRN	__allshl:NEAR
; Function compile flags: /Ogty
; File c:\documents and settings\test\mes documents\source\virtuos_v17\build\program\_common\scanner.cpp
;	COMDAT ?GetNumber@CScanner@@QAEHH@Z
_TEXT	SEGMENT
_dwlNumber$189810 = -8					; size = 8
_bComma$ = 8						; size = 4
?GetNumber@CScanner@@QAEHH@Z PROC NEAR			; CScanner::GetNumber, COMDAT
; _this$ = ecx

; 853  : {

  00000	83 ec 08	 sub	 esp, 8
  00003	53		 push	 ebx

; 854  : 	m_dwDef = 1;
; 855  : 	if( GetToken( bComma ) == HEX )

  00004	8b 5c 24 10	 mov	 ebx, DWORD PTR _bComma$[esp+8]
  00008	56		 push	 esi
  00009	57		 push	 edi
  0000a	8b f9		 mov	 edi, ecx
  0000c	8b 07		 mov	 eax, DWORD PTR [edi]
  0000e	53		 push	 ebx
  0000f	c7 47 10 01 00
	00 00		 mov	 DWORD PTR [edi+16], 1
  00016	ff 50 14	 call	 DWORD PTR [eax+20]
  00019	83 f8 04	 cmp	 eax, 4
  0001c	75 7f		 jne	 SHORT $L189809
  0001e	55		 push	 ebp

; 856  : 	{
; 857  : 		Token.MakeLower();

  0001f	8d 6f 20	 lea	 ebp, DWORD PTR [edi+32]
  00022	8b cd		 mov	 ecx, ebp
  00024	e8 00 00 00 00	 call	 ?MakeLower@?$CStringT@DV?$StrTraitMFC@DV?$ChTraitsCRT@D@ATL@@@@@ATL@@QAEAAV12@XZ ; ATL::CStringT<char,StrTraitMFC<char,ATL::ChTraitsCRT<char> > >::MakeLower

; 858  : 		DWORDLONG dwlNumber = 0;
; 859  : 		DWORD dwMulCnt = 0;
; 860  : 		CHAR cVal;
; 861  : 		for( int i = Token.GetLength() - 1; i >= 0; i--)

  00029	8b 4d 00	 mov	 ecx, DWORD PTR [ebp]
  0002c	8b 71 f4	 mov	 esi, DWORD PTR [ecx-12]
  0002f	33 db		 xor	 ebx, ebx
  00031	4e		 dec	 esi
  00032	89 5c 24 10	 mov	 DWORD PTR _dwlNumber$189810[esp+24], ebx
  00036	89 5c 24 14	 mov	 DWORD PTR _dwlNumber$189810[esp+28], ebx
  0003a	78 42		 js	 SHORT $L189816
  0003c	8d 64 24 00	 npad	 4
$L191403:

; 862  : 		{
; 863  : 			cVal = Token[ i ];

  00040	85 f6		 test	 esi, esi
  00042	7c 4f		 jl	 SHORT $L191400
  00044	8b 45 00	 mov	 eax, DWORD PTR [ebp]
  00047	3b 70 f4	 cmp	 esi, DWORD PTR [eax-12]
  0004a	7f 47		 jg	 SHORT $L191400
  0004c	8a 04 30	 mov	 al, BYTE PTR [eax+esi]

; 864  : 			if( cVal >= 'a' )

  0004f	3c 61		 cmp	 al, 97			; 00000061H
  00051	7c 04		 jl	 SHORT $L189817

; 865  : 				cVal = ( cVal - 'a' ) + 10;

  00053	04 a9		 add	 al, -87			; ffffffa9H

; 866  : 			else cVal -= '0';

  00055	eb 02		 jmp	 SHORT $L189818
$L189817:
  00057	04 d0		 add	 al, -48			; ffffffd0H
$L189818:

; 867  : 			dwlNumber |= (DWORDLONG) cVal << dwMulCnt;

  00059	0f be c0	 movsx	 eax, al
  0005c	99		 cdq
  0005d	8b cb		 mov	 ecx, ebx
  0005f	e8 00 00 00 00	 call	 __allshl
  00064	8b 4c 24 10	 mov	 ecx, DWORD PTR _dwlNumber$189810[esp+24]
  00068	0b c8		 or	 ecx, eax
  0006a	8b 44 24 14	 mov	 eax, DWORD PTR _dwlNumber$189810[esp+28]
  0006e	0b c2		 or	 eax, edx

; 868  : 			dwMulCnt += 4;

  00070	83 c3 04	 add	 ebx, 4
  00073	4e		 dec	 esi
  00074	89 4c 24 10	 mov	 DWORD PTR _dwlNumber$189810[esp+24], ecx
  00078	89 44 24 14	 mov	 DWORD PTR _dwlNumber$189810[esp+28], eax
  0007c	79 c2		 jns	 SHORT $L191403
$L189816:

; 869  : 		}
; 870  : 		m_dwDef = 0;
; 871  : 		return (DWORD)dwlNumber;

  0007e	8b 44 24 10	 mov	 eax, DWORD PTR _dwlNumber$189810[esp+24]
  00082	5d		 pop	 ebp
  00083	c7 47 10 00 00
	00 00		 mov	 DWORD PTR [edi+16], 0
  0008a	5f		 pop	 edi
  0008b	5e		 pop	 esi
  0008c	5b		 pop	 ebx

; 902  : }

  0008d	83 c4 08	 add	 esp, 8
  00090	c2 04 00	 ret	 4
$L191400:

; 862  : 		{
; 863  : 			cVal = Token[ i ];

  00093	68 57 00 07 80	 push	 -2147024809		; 80070057H
  00098	e8 00 00 00 00	 call	 ?AtlThrow@ATL@@YGXJ@Z	; ATL::AtlThrow
$L189809:

; 872  : 	}
; 873  : 	else
; 874  : 	if(!Token.IsEmpty())

  0009d	8b 4f 20	 mov	 ecx, DWORD PTR [edi+32]
  000a0	8b 41 f4	 mov	 eax, DWORD PTR [ecx-12]
  000a3	33 f6		 xor	 esi, esi
  000a5	3b c6		 cmp	 eax, esi
  000a7	0f 84 91 00 00
	00		 je	 $L189822

; 875  : 	{
; 876  : 		switch(Token[0])

  000ad	8b c1		 mov	 eax, ecx
  000af	39 70 f4	 cmp	 DWORD PTR [eax-12], esi
  000b2	7d 0a		 jge	 SHORT $L191378
  000b4	68 57 00 07 80	 push	 -2147024809		; 80070057H
  000b9	e8 00 00 00 00	 call	 ?AtlThrow@ATL@@YGXJ@Z	; ATL::AtlThrow
$L191378:
  000be	0f be 00	 movsx	 eax, BYTE PTR [eax]
  000c1	83 e8 2b	 sub	 eax, 43			; 0000002bH
  000c4	74 54		 je	 SHORT $L189830
  000c6	83 e8 02	 sub	 eax, 2
  000c9	74 14		 je	 SHORT $L189828
  000cb	83 e8 10	 sub	 eax, 16			; 00000010H
  000ce	75 56		 jne	 SHORT $L189832

; 877  : 		{
; 878  : 			case '=': 
; 879  : 				m_dwDef = 0;

  000d0	89 77 10	 mov	 DWORD PTR [edi+16], esi
  000d3	5f		 pop	 edi
  000d4	5e		 pop	 esi

; 880  : 				return NULL_ID;

  000d5	83 c8 ff	 or	 eax, -1
  000d8	5b		 pop	 ebx

; 902  : }

  000d9	83 c4 08	 add	 esp, 8
  000dc	c2 04 00	 ret	 4
$L189828:

; 881  : 			case '-': 
; 882  : 				if( bComma == FALSE )

  000df	3b de		 cmp	 ebx, esi
  000e1	75 22		 jne	 SHORT $L189829

; 883  : 				{
; 884  : 					GetToken();	

  000e3	8b 17		 mov	 edx, DWORD PTR [edi]
  000e5	56		 push	 esi
  000e6	8b cf		 mov	 ecx, edi
  000e8	ff 52 14	 call	 DWORD PTR [edx+20]

; 885  : 					m_dwDef = 0;

  000eb	89 77 10	 mov	 DWORD PTR [edi+16], esi

; 886  : 					return -atoi(Token);

  000ee	8b 7f 20	 mov	 edi, DWORD PTR [edi+32]
  000f1	57		 push	 edi
  000f2	e8 00 00 00 00	 call	 _atoi
  000f7	83 c4 04	 add	 esp, 4
  000fa	5f		 pop	 edi
  000fb	5e		 pop	 esi
  000fc	f7 d8		 neg	 eax
  000fe	5b		 pop	 ebx

; 902  : }

  000ff	83 c4 08	 add	 esp, 8
  00102	c2 04 00	 ret	 4
$L189829:

; 887  : 				}
; 888  : 				else
; 889  : 				{
; 890  : 					m_dwDef = 0;
; 891  : 					return atoi(Token);

  00105	51		 push	 ecx
  00106	89 77 10	 mov	 DWORD PTR [edi+16], esi
  00109	e8 00 00 00 00	 call	 _atoi
  0010e	83 c4 04	 add	 esp, 4
  00111	5f		 pop	 edi
  00112	5e		 pop	 esi
  00113	5b		 pop	 ebx

; 902  : }

  00114	83 c4 08	 add	 esp, 8
  00117	c2 04 00	 ret	 4
$L189830:

; 892  : 				}
; 893  : 			case '+':	
; 894  : 				if( bComma == FALSE )

  0011a	3b de		 cmp	 ebx, esi
  0011c	75 08		 jne	 SHORT $L189832

; 895  : 					GetToken();	

  0011e	8b 07		 mov	 eax, DWORD PTR [edi]
  00120	56		 push	 esi
  00121	8b cf		 mov	 ecx, edi
  00123	ff 50 14	 call	 DWORD PTR [eax+20]
$L189832:

; 896  : 		}
; 897  : 		m_dwDef = 0;

  00126	89 77 10	 mov	 DWORD PTR [edi+16], esi

; 898  : 		return atoi(Token);

  00129	8b 7f 20	 mov	 edi, DWORD PTR [edi+32]
  0012c	57		 push	 edi
  0012d	e8 00 00 00 00	 call	 _atoi
  00132	83 c4 04	 add	 esp, 4
  00135	5f		 pop	 edi
  00136	5e		 pop	 esi
  00137	5b		 pop	 ebx

; 902  : }

  00138	83 c4 08	 add	 esp, 8
  0013b	c2 04 00	 ret	 4
$L189822:

; 899  : 	}
; 900  : 	m_dwDef = 0;

  0013e	89 77 10	 mov	 DWORD PTR [edi+16], esi
  00141	5f		 pop	 edi
  00142	5e		 pop	 esi

; 901  : 	return 0;

  00143	33 c0		 xor	 eax, eax
  00145	5b		 pop	 ebx

; 902  : }

  00146	83 c4 08	 add	 esp, 8
  00149	c2 04 00	 ret	 4
$L191405:
?GetNumber@CScanner@@QAEHH@Z ENDP			; CScanner::GetNumber
_TEXT	ENDS
PUBLIC	?GetHex@CScanner@@QAEKH@Z			; CScanner::GetHex
; Function compile flags: /Ogty
;	COMDAT ?GetHex@CScanner@@QAEKH@Z
_TEXT	SEGMENT
_this$ = -12						; size = 4
_dwlNumber$189870 = -8					; size = 8
_bComma$ = 8						; size = 4
?GetHex@CScanner@@QAEKH@Z PROC NEAR			; CScanner::GetHex, COMDAT
; _this$ = ecx

; 965  : {

  00000	83 ec 0c	 sub	 esp, 12			; 0000000cH
  00003	53		 push	 ebx
  00004	8b d9		 mov	 ebx, ecx

; 966  : 	m_dwDef = 1;
; 967  : 	if( GetToken( bComma ) == HEX )

  00006	8b 4c 24 14	 mov	 ecx, DWORD PTR _bComma$[esp+12]
  0000a	8b 03		 mov	 eax, DWORD PTR [ebx]
  0000c	51		 push	 ecx
  0000d	8b cb		 mov	 ecx, ebx
  0000f	89 5c 24 08	 mov	 DWORD PTR _this$[esp+20], ebx
  00013	c7 43 10 01 00
	00 00		 mov	 DWORD PTR [ebx+16], 1
  0001a	ff 50 14	 call	 DWORD PTR [eax+20]
  0001d	83 f8 04	 cmp	 eax, 4
  00020	75 74		 jne	 SHORT $L189869
  00022	55		 push	 ebp
  00023	56		 push	 esi

; 968  : 	{
; 969  : 		Token.MakeLower();

  00024	83 c3 20	 add	 ebx, 32			; 00000020H
  00027	57		 push	 edi
  00028	8b cb		 mov	 ecx, ebx
  0002a	e8 00 00 00 00	 call	 ?MakeLower@?$CStringT@DV?$StrTraitMFC@DV?$ChTraitsCRT@D@ATL@@@@@ATL@@QAEAAV12@XZ ; ATL::CStringT<char,StrTraitMFC<char,ATL::ChTraitsCRT<char> > >::MakeLower

; 970  : 		DWORDLONG dwlNumber = 0;
; 971  : 		DWORD dwMulCnt = 0;
; 972  : 		CHAR cVal;
; 973  : 		for( int i = Token.GetLength() - 1; i >= 0; i--)

  0002f	8b 13		 mov	 edx, DWORD PTR [ebx]
  00031	8b 72 f4	 mov	 esi, DWORD PTR [edx-12]
  00034	33 ff		 xor	 edi, edi
  00036	33 ed		 xor	 ebp, ebp
  00038	4e		 dec	 esi
  00039	89 7c 24 18	 mov	 DWORD PTR _dwlNumber$189870[esp+32], edi
  0003d	78 36		 js	 SHORT $L189876
  0003f	90		 npad	 1
$L191440:

; 974  : 		{
; 975  : 			cVal = Token[ i ];

  00040	85 f6		 test	 esi, esi
  00042	7c 48		 jl	 SHORT $L191438
  00044	8b 03		 mov	 eax, DWORD PTR [ebx]
  00046	3b 70 f4	 cmp	 esi, DWORD PTR [eax-12]
  00049	7f 41		 jg	 SHORT $L191438
  0004b	8a 04 30	 mov	 al, BYTE PTR [eax+esi]

; 976  : 			if( cVal >= 'a' )

  0004e	3c 61		 cmp	 al, 97			; 00000061H
  00050	7c 04		 jl	 SHORT $L189877

; 977  : 				cVal = ( cVal - 'a' ) + 10;

  00052	04 a9		 add	 al, -87			; ffffffa9H

; 978  : 			else cVal -= '0';

  00054	eb 02		 jmp	 SHORT $L189878
$L189877:
  00056	04 d0		 add	 al, -48			; ffffffd0H
$L189878:

; 979  : 			dwlNumber |= (DWORDLONG) cVal << dwMulCnt;

  00058	0f be c0	 movsx	 eax, al
  0005b	99		 cdq
  0005c	8b cf		 mov	 ecx, edi
  0005e	e8 00 00 00 00	 call	 __allshl
  00063	0b e8		 or	 ebp, eax
  00065	8b 44 24 18	 mov	 eax, DWORD PTR _dwlNumber$189870[esp+32]
  00069	0b c2		 or	 eax, edx

; 980  : 			dwMulCnt += 4;

  0006b	83 c7 04	 add	 edi, 4
  0006e	4e		 dec	 esi
  0006f	89 44 24 18	 mov	 DWORD PTR _dwlNumber$189870[esp+32], eax
  00073	79 cb		 jns	 SHORT $L191440
$L189876:

; 981  : 		}
; 982  : 		m_dwDef = 0;

  00075	8b 44 24 10	 mov	 eax, DWORD PTR _this$[esp+28]
  00079	5f		 pop	 edi
  0007a	5e		 pop	 esi
  0007b	c7 40 10 00 00
	00 00		 mov	 DWORD PTR [eax+16], 0

; 983  : 		return (DWORD)dwlNumber;

  00082	8b c5		 mov	 eax, ebp
  00084	5d		 pop	 ebp
  00085	5b		 pop	 ebx

; 987  : }

  00086	83 c4 0c	 add	 esp, 12			; 0000000cH
  00089	c2 04 00	 ret	 4
$L191438:

; 974  : 		{
; 975  : 			cVal = Token[ i ];

  0008c	68 57 00 07 80	 push	 -2147024809		; 80070057H
  00091	e8 00 00 00 00	 call	 ?AtlThrow@ATL@@YGXJ@Z	; ATL::AtlThrow
$L189869:

; 984  : 	}
; 985  : 	m_dwDef = 0;

  00096	c7 43 10 00 00
	00 00		 mov	 DWORD PTR [ebx+16], 0

; 986  : 	return 0;

  0009d	33 c0		 xor	 eax, eax
  0009f	5b		 pop	 ebx

; 987  : }

  000a0	83 c4 0c	 add	 esp, 12			; 0000000cH
  000a3	c2 04 00	 ret	 4
$L191444:
?GetHex@CScanner@@QAEKH@Z ENDP				; CScanner::GetHex
_TEXT	ENDS
PUBLIC	?GetSerialNumber@CScanner@@QAEKH@Z		; CScanner::GetSerialNumber
; Function compile flags: /Ogty
;	COMDAT ?GetSerialNumber@CScanner@@QAEKH@Z
_TEXT	SEGMENT
_bComma$ = 8						; size = 4
?GetSerialNumber@CScanner@@QAEKH@Z PROC NEAR		; CScanner::GetSerialNumber, COMDAT
; _this$ = ecx

; 1002 : 	return GetNumber( bComma );

  00000	e9 00 00 00 00	 jmp	 ?GetNumber@CScanner@@QAEHH@Z ; CScanner::GetNumber
?GetSerialNumber@CScanner@@QAEKH@Z ENDP			; CScanner::GetSerialNumber
_TEXT	ENDS
PUBLIC	?Format@?$CStringT@DV?$StrTraitMFC@DV?$ChTraitsCRT@D@ATL@@@@@ATL@@QAAXPBDZZ ; ATL::CStringT<char,StrTraitMFC<char,ATL::ChTraitsCRT<char> > >::Format
; Function compile flags: /Ogty
; File c:\program files\microsoft visual studio .net 2003\vc7\atlmfc\include\cstringt.h
;	COMDAT ?Format@?$CStringT@DV?$StrTraitMFC@DV?$ChTraitsCRT@D@ATL@@@@@ATL@@QAAXPBDZZ
_TEXT	SEGMENT
_this$ = 8						; size = 4
_pszFormat$ = 12					; size = 4
?Format@?$CStringT@DV?$StrTraitMFC@DV?$ChTraitsCRT@D@ATL@@@@@ATL@@QAAXPBDZZ PROC NEAR ; ATL::CStringT<char,StrTraitMFC<char,ATL::ChTraitsCRT<char> > >::Format, COMDAT

; 1796 : 		ATLASSERT( AtlIsValidString( pszFormat ) );
; 1797 : 		
; 1798 : 		va_list argList;
; 1799 : 		va_start( argList, pszFormat );
; 1800 : 		FormatV( pszFormat, argList );

  00000	8b 4c 24 08	 mov	 ecx, DWORD PTR _pszFormat$[esp-4]
  00004	8d 44 24 0c	 lea	 eax, DWORD PTR _pszFormat$[esp]
  00008	50		 push	 eax
  00009	51		 push	 ecx
  0000a	8b 4c 24 0c	 mov	 ecx, DWORD PTR _this$[esp+4]
  0000e	e8 00 00 00 00	 call	 ?FormatV@?$CStringT@DV?$StrTraitMFC@DV?$ChTraitsCRT@D@ATL@@@@@ATL@@QAEXPBDPAD@Z ; ATL::CStringT<char,StrTraitMFC<char,ATL::ChTraitsCRT<char> > >::FormatV

; 1801 : 		va_end( argList );
; 1802 : 	}

  00013	c3		 ret	 0
?Format@?$CStringT@DV?$StrTraitMFC@DV?$ChTraitsCRT@D@ATL@@@@@ATL@@QAAXPBDZZ ENDP ; ATL::CStringT<char,StrTraitMFC<char,ATL::ChTraitsCRT<char> > >::Format
_TEXT	ENDS
PUBLIC	??4?$CSimpleStringT@D$0A@@ATL@@QAEAAV01@PBD@Z	; ATL::CSimpleStringT<char,0>::operator=
; Function compile flags: /Ogty
; File c:\program files\microsoft visual studio .net 2003\vc7\atlmfc\include\atlsimpstr.h
;	COMDAT ??4?$CSimpleStringT@D$0A@@ATL@@QAEAAV01@PBD@Z
_TEXT	SEGMENT
_pszSrc$ = 8						; size = 4
??4?$CSimpleStringT@D$0A@@ATL@@QAEAAV01@PBD@Z PROC NEAR	; ATL::CSimpleStringT<char,0>::operator=, COMDAT
; _this$ = ecx

; 316  : 		SetString( pszSrc );

  00000	8b 54 24 04	 mov	 edx, DWORD PTR _pszSrc$[esp-4]
  00004	85 d2		 test	 edx, edx
  00006	57		 push	 edi
  00007	8b f9		 mov	 edi, ecx
  00009	75 0f		 jne	 SHORT $L191461
  0000b	33 c0		 xor	 eax, eax
  0000d	50		 push	 eax
  0000e	52		 push	 edx
  0000f	e8 00 00 00 00	 call	 ?SetString@?$CSimpleStringT@D$0A@@ATL@@QAEXPBDH@Z ; ATL::CSimpleStringT<char,0>::SetString

; 317  : 
; 318  : 		return( *this );

  00014	8b c7		 mov	 eax, edi
  00016	5f		 pop	 edi

; 319  : 	}

  00017	c2 04 00	 ret	 4

; 316  : 		SetString( pszSrc );

$L191461:
  0001a	8b c2		 mov	 eax, edx
  0001c	56		 push	 esi
  0001d	8d 70 01	 lea	 esi, DWORD PTR [eax+1]
$L191463:
  00020	8a 08		 mov	 cl, BYTE PTR [eax]
  00022	40		 inc	 eax
  00023	84 c9		 test	 cl, cl
  00025	75 f9		 jne	 SHORT $L191463
  00027	2b c6		 sub	 eax, esi
  00029	5e		 pop	 esi
  0002a	50		 push	 eax
  0002b	52		 push	 edx
  0002c	8b cf		 mov	 ecx, edi
  0002e	e8 00 00 00 00	 call	 ?SetString@?$CSimpleStringT@D$0A@@ATL@@QAEXPBDH@Z ; ATL::CSimpleStringT<char,0>::SetString

; 317  : 
; 318  : 		return( *this );

  00033	8b c7		 mov	 eax, edi
  00035	5f		 pop	 edi

; 319  : 	}

  00036	c2 04 00	 ret	 4
??4?$CSimpleStringT@D$0A@@ATL@@QAEAAV01@PBD@Z ENDP	; ATL::CSimpleStringT<char,0>::operator=
_TEXT	ENDS
PUBLIC	??4?$CStringT@DV?$StrTraitMFC@DV?$ChTraitsCRT@D@ATL@@@@@ATL@@QAEAAV01@PBD@Z ; ATL::CStringT<char,StrTraitMFC<char,ATL::ChTraitsCRT<char> > >::operator=
; Function compile flags: /Ogty
; File c:\program files\microsoft visual studio .net 2003\vc7\atlmfc\include\cstringt.h
;	COMDAT ??4?$CStringT@DV?$StrTraitMFC@DV?$ChTraitsCRT@D@ATL@@@@@ATL@@QAEAAV01@PBD@Z
_TEXT	SEGMENT
_pszSrc$ = 8						; size = 4
??4?$CStringT@DV?$StrTraitMFC@DV?$ChTraitsCRT@D@ATL@@@@@ATL@@QAEAAV01@PBD@Z PROC NEAR ; ATL::CStringT<char,StrTraitMFC<char,ATL::ChTraitsCRT<char> > >::operator=, COMDAT
; _this$ = ecx

; 983  : 		CThisSimpleString::operator=( pszSrc );

  00000	8b 54 24 04	 mov	 edx, DWORD PTR _pszSrc$[esp-4]
  00004	85 d2		 test	 edx, edx
  00006	57		 push	 edi
  00007	8b f9		 mov	 edi, ecx
  00009	75 0f		 jne	 SHORT $L191483
  0000b	33 c0		 xor	 eax, eax
  0000d	50		 push	 eax
  0000e	52		 push	 edx
  0000f	e8 00 00 00 00	 call	 ?SetString@?$CSimpleStringT@D$0A@@ATL@@QAEXPBDH@Z ; ATL::CSimpleStringT<char,0>::SetString

; 984  : 
; 985  : 		return( *this );

  00014	8b c7		 mov	 eax, edi
  00016	5f		 pop	 edi

; 986  : 	}

  00017	c2 04 00	 ret	 4

; 983  : 		CThisSimpleString::operator=( pszSrc );

$L191483:
  0001a	8b c2		 mov	 eax, edx
  0001c	56		 push	 esi
  0001d	8d 70 01	 lea	 esi, DWORD PTR [eax+1]
$L191485:
  00020	8a 08		 mov	 cl, BYTE PTR [eax]
  00022	40		 inc	 eax
  00023	84 c9		 test	 cl, cl
  00025	75 f9		 jne	 SHORT $L191485
  00027	2b c6		 sub	 eax, esi
  00029	5e		 pop	 esi
  0002a	50		 push	 eax
  0002b	52		 push	 edx
  0002c	8b cf		 mov	 ecx, edi
  0002e	e8 00 00 00 00	 call	 ?SetString@?$CSimpleStringT@D$0A@@ATL@@QAEXPBDH@Z ; ATL::CSimpleStringT<char,0>::SetString

; 984  : 
; 985  : 		return( *this );

  00033	8b c7		 mov	 eax, edi
  00035	5f		 pop	 edi

; 986  : 	}

  00036	c2 04 00	 ret	 4
??4?$CStringT@DV?$StrTraitMFC@DV?$ChTraitsCRT@D@ATL@@@@@ATL@@QAEAAV01@PBD@Z ENDP ; ATL::CStringT<char,StrTraitMFC<char,ATL::ChTraitsCRT<char> > >::operator=
_TEXT	ENDS
PUBLIC	?GetLastFull@CScanner@@QAEXXZ			; CScanner::GetLastFull
EXTRN	?CopyChar@@YAHPBDPAD@Z:NEAR			; CopyChar
; Function compile flags: /Ogty
; File c:\documents and settings\test\mes documents\source\virtuos_v17\build\program\_common\scanner.cpp
;	COMDAT ?GetLastFull@CScanner@@QAEXXZ
_TEXT	SEGMENT
?GetLastFull@CScanner@@QAEXXZ PROC NEAR			; CScanner::GetLastFull, COMDAT
; _this$ = ecx

; 551  : {

  00000	56		 push	 esi
  00001	57		 push	 edi
  00002	8b f1		 mov	 esi, ecx
$L189677:

; 552  : 	//  white space 
; 553  : 	while( iswhite( *m_pProg ) && *m_pProg && *m_pProg != '\r' ) 

  00004	8b 56 18	 mov	 edx, DWORD PTR [esi+24]
  00007	8a 02		 mov	 al, BYTE PTR [edx]
  00009	66 0f be c8	 movsx	 cx, al
  0000d	66 85 c9	 test	 cx, cx
  00010	76 14		 jbe	 SHORT $L191491
  00012	66 83 f9 20	 cmp	 cx, 32			; 00000020H
  00016	77 0e		 ja	 SHORT $L191491
  00018	84 c0		 test	 al, al
  0001a	74 0a		 je	 SHORT $L191491
  0001c	3c 0d		 cmp	 al, 13			; 0000000dH
  0001e	74 06		 je	 SHORT $L191491

; 554  : 		++m_pProg;

  00020	42		 inc	 edx
  00021	89 56 18	 mov	 DWORD PTR [esi+24], edx
  00024	eb de		 jmp	 SHORT $L189677

; 552  : 	//  white space 
; 553  : 	while( iswhite( *m_pProg ) && *m_pProg && *m_pProg != '\r' ) 

$L191491:

; 555  : 	
; 556  : 	char* pCur = token; 
; 557  : 	while( *m_pProg && *m_pProg!='\r' )

  00026	8b 46 18	 mov	 eax, DWORD PTR [esi+24]
  00029	80 38 00	 cmp	 BYTE PTR [eax], 0
  0002c	8b 7e 24	 mov	 edi, DWORD PTR [esi+36]
  0002f	74 24		 je	 SHORT $L189682
$L189681:
  00031	8b 46 18	 mov	 eax, DWORD PTR [esi+24]
  00034	80 38 0d	 cmp	 BYTE PTR [eax], 13	; 0000000dH
  00037	74 1c		 je	 SHORT $L189682

; 558  : 	{
; 559  : 		int count = CopyChar( m_pProg, pCur );

  00039	57		 push	 edi
  0003a	50		 push	 eax
  0003b	e8 00 00 00 00	 call	 ?CopyChar@@YAHPBDPAD@Z	; CopyChar

; 560  : 		m_pProg += count;

  00040	8b 56 18	 mov	 edx, DWORD PTR [esi+24]
  00043	03 d0		 add	 edx, eax

; 561  : 		pCur += count;

  00045	03 f8		 add	 edi, eax
  00047	8b ca		 mov	 ecx, edx
  00049	89 56 18	 mov	 DWORD PTR [esi+24], edx
  0004c	8a 01		 mov	 al, BYTE PTR [ecx]
  0004e	83 c4 08	 add	 esp, 8
  00051	84 c0		 test	 al, al
  00053	75 dc		 jne	 SHORT $L189681
$L189682:

; 562  : 	}
; 563  : 	//  white space 
; 564  : 	if( pCur != token )

  00055	3b 7e 24	 cmp	 edi, DWORD PTR [esi+36]
  00058	74 18		 je	 SHORT $L189684
$L191538:

; 565  : 	{
; 566  : 		--pCur;
; 567  : 		while( iswhite( *pCur ) && *pCur ) 

  0005a	8a 4f ff	 mov	 cl, BYTE PTR [edi-1]
  0005d	4f		 dec	 edi
  0005e	66 0f be c1	 movsx	 ax, cl
  00062	66 85 c0	 test	 ax, ax
  00065	76 0a		 jbe	 SHORT $L191497
  00067	66 3d 20 00	 cmp	 ax, 32			; 00000020H
  0006b	77 04		 ja	 SHORT $L191497
  0006d	84 c9		 test	 cl, cl

; 568  : 			--pCur;

  0006f	75 e9		 jne	 SHORT $L191538

; 565  : 	{
; 566  : 		--pCur;
; 567  : 		while( iswhite( *pCur ) && *pCur ) 

$L191497:

; 569  : 		++pCur;

  00071	47		 inc	 edi
$L189684:

; 570  : 	}
; 571  : 	*pCur = '\0';

  00072	c6 07 00	 mov	 BYTE PTR [edi], 0

; 572  : 	Token = token;

  00075	8b 7e 24	 mov	 edi, DWORD PTR [esi+36]
  00078	85 ff		 test	 edi, edi
  0007a	8d 4e 20	 lea	 ecx, DWORD PTR [esi+32]
  0007d	75 0c		 jne	 SHORT $L191525
  0007f	33 c0		 xor	 eax, eax
  00081	50		 push	 eax
  00082	57		 push	 edi
  00083	e8 00 00 00 00	 call	 ?SetString@?$CSimpleStringT@D$0A@@ATL@@QAEXPBDH@Z ; ATL::CSimpleStringT<char,0>::SetString
  00088	5f		 pop	 edi
  00089	5e		 pop	 esi

; 573  : }

  0008a	c3		 ret	 0

; 572  : 	Token = token;

$L191525:
  0008b	8b c7		 mov	 eax, edi
  0008d	8d 70 01	 lea	 esi, DWORD PTR [eax+1]
$L191537:
  00090	8a 10		 mov	 dl, BYTE PTR [eax]
  00092	40		 inc	 eax
  00093	84 d2		 test	 dl, dl
  00095	75 f9		 jne	 SHORT $L191537
  00097	2b c6		 sub	 eax, esi
  00099	50		 push	 eax
  0009a	57		 push	 edi
  0009b	e8 00 00 00 00	 call	 ?SetString@?$CSimpleStringT@D$0A@@ATL@@QAEXPBDH@Z ; ATL::CSimpleStringT<char,0>::SetString
  000a0	5f		 pop	 edi
  000a1	5e		 pop	 esi

; 573  : }

  000a2	c3		 ret	 0
?GetLastFull@CScanner@@QAEXXZ ENDP			; CScanner::GetLastFull
_TEXT	ENDS
PUBLIC	??_C@_0BB@BKECMLNK@?$CL?9?$CK?$FO?1?$CF?$DN?$DL?$CI?$CJ?0?8?3?$HL?$HN?4?$AA@ ; `string'
PUBLIC	??_C@_0DN@LFHNMKPA@line?$CI?$CFd?$CJ?5?F?D?$MA?O?5?$CFs?$LP?$KB?$LM?$KN?5?$CC?$CFs?$CC?5?$LN?$LK?F?$KO?$LI?$LF@ ; `string'
PUBLIC	??_C@_0DJ@HNOCKBIP@line?$CI?$CFd?$CJ?5?F?D?$MA?O?5?$CFs?$LP?$KB?$LM?$KN?5?$CC?$CFs?$CC?5?$LN?$LK?F?$KO?$LI?$LF@ ; `string'
EXTRN	__except_list:DWORD
EXTRN	___CxxFrameHandler:NEAR
EXTRN	_iswalpha:NEAR
EXTRN	?Error@@YAPBDPBDZZ:NEAR				; Error
EXTRN	?IsMultiByte@@YAHPBD@Z:NEAR			; IsMultiByte
;	COMDAT xdata$x
; File c:\program files\microsoft visual studio .net 2003\vc7\atlmfc\include\atlsimpstr.h
xdata$x	SEGMENT
$T191651 DD	0ffffffffH
	DD	FLAT:$L191541
$T191604 DD	019930520H
	DD	01H
	DD	FLAT:$T191651
	DD	2 DUP(00H)
	DD	2 DUP(00H)
xdata$x	ENDS
;	COMDAT ??_C@_0BB@BKECMLNK@?$CL?9?$CK?$FO?1?$CF?$DN?$DL?$CI?$CJ?0?8?3?$HL?$HN?4?$AA@
CONST	SEGMENT
??_C@_0BB@BKECMLNK@?$CL?9?$CK?$FO?1?$CF?$DN?$DL?$CI?$CJ?0?8?3?$HL?$HN?4?$AA@ DB '+'
	DB	'-*^/%=;(),'':{}.', 00H			; `string'
CONST	ENDS
;	COMDAT ??_C@_0DN@LFHNMKPA@line?$CI?$CFd?$CJ?5?F?D?$MA?O?5?$CFs?$LP?$KB?$LM?$KN?5?$CC?$CFs?$CC?5?$LN?$LK?F?$KO?$LI?$LF@
CONST	SEGMENT
??_C@_0DN@LFHNMKPA@line?$CI?$CFd?$CJ?5?F?D?$MA?O?5?$CFs?$LP?$KB?$LM?$KN?5?$CC?$CFs?$CC?5?$LN?$LK?F?$KO?$LI?$LF@ DB 'l'
	DB	'ine(%d) ', 0c6H, 0c4H, 0c0H, 0cfH, ' %s', 0bfH, 0a1H, 0bcH, 0adH
	DB	' "%s" ', 0bdH, 0baH, 0c6H, 0aeH, 0b8H, 0b5H, ' ', 0b1H, 0e6H, 0c0H
	DB	0ccH, 0b0H, 0a1H, ' %d', 0b9H, 0d9H, 0c0H, 0ccH, 0c6H, 0aeH, 0b8H
	DB	0a6H, ' ', 0c3H, 0caH, 0b0H, 0faH, 0c7H, 0dfH, 0c0H, 0bdH, '.', 00H ; `string'
CONST	ENDS
;	COMDAT ??_C@_0DJ@HNOCKBIP@line?$CI?$CFd?$CJ?5?F?D?$MA?O?5?$CFs?$LP?$KB?$LM?$KN?5?$CC?$CFs?$CC?5?$LN?$LK?F?$KO?$LI?$LF@
CONST	SEGMENT
??_C@_0DJ@HNOCKBIP@line?$CI?$CFd?$CJ?5?F?D?$MA?O?5?$CFs?$LP?$KB?$LM?$KN?5?$CC?$CFs?$CC?5?$LN?$LK?F?$KO?$LI?$LF@ DB 'l'
	DB	'ine(%d) ', 0c6H, 0c4H, 0c0H, 0cfH, ' %s', 0bfH, 0a1H, 0bcH, 0adH
	DB	' "%s" ', 0bdH, 0baH, 0c6H, 0aeH, 0b8H, 0b5H, 0c0H, 0ccH, ' ', 0b5H
	DB	0fbH, 0bfH, 0c8H, 0c7H, 0a5H, 0b7H, 0ceH, ' ', 0b3H, 0a1H, 0b3H
	DB	0aaH, 0c1H, 0f6H, ' ', 0beH, 0caH, 0c0H, 0bdH, '.', 00H ; `string'
; Function compile flags: /Ogty
; File c:\documents and settings\test\mes documents\source\virtuos_v17\build\program\_common\scanner.cpp
CONST	ENDS
;	COMDAT ?GetToken@CScanner@@UAEHH@Z
_TEXT	SEGMENT
_pszCur$ = -16						; size = 4
__$EHRec$ = -12						; size = 12
_string$189781 = 8					; size = 4
_bComma$ = 8						; size = 4
?GetToken@CScanner@@UAEHH@Z PROC NEAR			; CScanner::GetToken, COMDAT
; _this$ = ecx

; 576  : {

  00000	6a ff		 push	 -1
  00002	68 00 00 00 00	 push	 __ehhandler$?GetToken@CScanner@@UAEHH@Z
  00007	64 a1 00 00 00
	00		 mov	 eax, DWORD PTR fs:__except_list
  0000d	50		 push	 eax
  0000e	64 89 25 00 00
	00 00		 mov	 DWORD PTR fs:__except_list, esp
  00015	51		 push	 ecx
  00016	53		 push	 ebx
  00017	55		 push	 ebp
  00018	56		 push	 esi
  00019	8b f1		 mov	 esi, ecx

; 577  : 	char* pszCur = m_mszToken; 

  0001b	8d 5e 28	 lea	 ebx, DWORD PTR [esi+40]

; 578  : 	*pszCur = '\0';

  0001e	33 ed		 xor	 ebp, ebp
  00020	c6 03 00	 mov	 BYTE PTR [ebx], 0
  00023	57		 push	 edi
  00024	89 5c 24 10	 mov	 DWORD PTR _pszCur$[esp+32], ebx

; 579  : 	tokenType = TEMP; 

  00028	89 ae 28 08 00
	00		 mov	 DWORD PTR [esi+2088], ebp

; 580  : 	tok = NONE_;

  0002e	89 ae 2c 08 00
	00		 mov	 DWORD PTR [esi+2092], ebp

; 581  : 	m_nDoubleOps = 0;

  00034	89 ae 30 08 00
	00		 mov	 DWORD PTR [esi+2096], ebp
  0003a	8d 9b 00 00 00
	00		 npad	 6
$L189694:

; 582  : 
; 583  : 	BOOL bLoop;
; 584  : 	do
; 585  : 	{
; 586  : 		bLoop = FALSE;

  00040	33 ff		 xor	 edi, edi
$L189698:

; 587  : 		
; 588  : 		while( iswhite( *m_pProg ) && *m_pProg ) // white space 

  00042	8b 56 18	 mov	 edx, DWORD PTR [esi+24]
  00045	8a 0a		 mov	 cl, BYTE PTR [edx]
  00047	66 0f be c1	 movsx	 ax, cl
  0004b	66 3b c5	 cmp	 ax, bp
  0004e	76 10		 jbe	 SHORT $L191545
  00050	66 3d 20 00	 cmp	 ax, 32			; 00000020H
  00054	77 0a		 ja	 SHORT $L191545
  00056	84 c9		 test	 cl, cl
  00058	74 06		 je	 SHORT $L191545

; 589  : 			++m_pProg;

  0005a	42		 inc	 edx
  0005b	89 56 18	 mov	 DWORD PTR [esi+24], edx
  0005e	eb e2		 jmp	 SHORT $L189698

; 587  : 		
; 588  : 		while( iswhite( *m_pProg ) && *m_pProg ) // white space 

$L191545:

; 590  : 
; 591  : 		while(*m_pProg == '/') //  

  00060	8b 46 18	 mov	 eax, DWORD PTR [esi+24]
  00063	80 38 2f	 cmp	 BYTE PTR [eax], 47	; 0000002fH
  00066	0f 85 ae 00 00
	00		 jne	 $L191621
  0006c	8d 64 24 00	 npad	 4
$L189701:

; 592  : 		{
; 593  : 			++m_pProg;

  00070	8b 46 18	 mov	 eax, DWORD PTR [esi+24]
  00073	40		 inc	 eax
  00074	89 46 18	 mov	 DWORD PTR [esi+24], eax

; 594  : 			if(*m_pProg == '/') 

  00077	8a 08		 mov	 cl, BYTE PTR [eax]
  00079	80 f9 2f	 cmp	 cl, 47			; 0000002fH
  0007c	75 39		 jne	 SHORT $L189703

; 595  : 			{ 
; 596  : 				++m_pProg;

  0007e	40		 inc	 eax
  0007f	89 46 18	 mov	 DWORD PTR [esi+24], eax

; 597  : 				while(*m_pProg != '\r' && *m_pProg != '\0') 

  00082	80 38 0d	 cmp	 BYTE PTR [eax], 13	; 0000000dH
  00085	74 13		 je	 SHORT $L189706
$L189705:
  00087	8b 46 18	 mov	 eax, DWORD PTR [esi+24]
  0008a	80 38 00	 cmp	 BYTE PTR [eax], 0
  0008d	74 0b		 je	 SHORT $L189706

; 598  : 					++m_pProg;

  0008f	40		 inc	 eax
  00090	8b c8		 mov	 ecx, eax
  00092	89 46 18	 mov	 DWORD PTR [esi+24], eax
  00095	80 39 0d	 cmp	 BYTE PTR [ecx], 13	; 0000000dH
  00098	75 ed		 jne	 SHORT $L189705
$L189706:

; 599  : 				if(*m_pProg == '\r') 

  0009a	8b 46 18	 mov	 eax, DWORD PTR [esi+24]
  0009d	80 38 0d	 cmp	 BYTE PTR [eax], 13	; 0000000dH
  000a0	75 06		 jne	 SHORT $L191551

; 600  : 					m_pProg+=2;

  000a2	83 c0 02	 add	 eax, 2
  000a5	89 46 18	 mov	 DWORD PTR [esi+24], eax

; 621  : 				while(iswhite(*m_pProg) && *m_pProg) 

$L191551:
  000a8	8b 4e 18	 mov	 ecx, DWORD PTR [esi+24]
  000ab	80 39 2f	 cmp	 BYTE PTR [ecx], 47	; 0000002fH

; 627  : 				break;
; 628  : 			}
; 629  : 			bLoop = TRUE;	//    loop 

  000ae	bf 01 00 00 00	 mov	 edi, 1
  000b3	74 bb		 je	 SHORT $L189701

; 630  : 		}
; 631  : 	}
; 632  : 	while( bLoop ) ;

  000b5	eb 89		 jmp	 SHORT $L189694
$L189703:

; 601  : 			}
; 602  : 			else if(*m_pProg == '*') 

  000b7	80 f9 2a	 cmp	 cl, 42			; 0000002aH
  000ba	75 52		 jne	 SHORT $L189709

; 603  : 			{
; 604  : 				++m_pProg;

  000bc	40		 inc	 eax
  000bd	89 46 18	 mov	 DWORD PTR [esi+24], eax
$L189710:

; 605  : 				do 
; 606  : 				{
; 607  : 					while(*m_pProg != '*' && *m_pProg != '\0') 

  000c0	8b 56 18	 mov	 edx, DWORD PTR [esi+24]
  000c3	80 3a 2a	 cmp	 BYTE PTR [edx], 42	; 0000002aH
  000c6	74 11		 je	 SHORT $L189715
$L189714:
  000c8	8b 46 18	 mov	 eax, DWORD PTR [esi+24]
  000cb	80 38 00	 cmp	 BYTE PTR [eax], 0
  000ce	74 09		 je	 SHORT $L189715

; 608  : 						++m_pProg;

  000d0	40		 inc	 eax
  000d1	89 46 18	 mov	 DWORD PTR [esi+24], eax
  000d4	80 38 2a	 cmp	 BYTE PTR [eax], 42	; 0000002aH
  000d7	75 ef		 jne	 SHORT $L189714
$L189715:

; 609  : 					
; 610  : 					if(*m_pProg == '\0') 

  000d9	8b 46 18	 mov	 eax, DWORD PTR [esi+24]
  000dc	80 38 00	 cmp	 BYTE PTR [eax], 0
  000df	74 5b		 je	 SHORT $L191619

; 614  : 						return tokenType;
; 615  : 					}
; 616  : 					++m_pProg;

  000e1	40		 inc	 eax
  000e2	89 46 18	 mov	 DWORD PTR [esi+24], eax

; 617  : 				} 
; 618  : 				while(*m_pProg != '/');

  000e5	80 38 2f	 cmp	 BYTE PTR [eax], 47	; 0000002fH
  000e8	75 d6		 jne	 SHORT $L189710

; 619  : 				
; 620  : 				++m_pProg;

  000ea	40		 inc	 eax
  000eb	89 46 18	 mov	 DWORD PTR [esi+24], eax
  000ee	8b ff		 npad	 2
$L189718:

; 621  : 				while(iswhite(*m_pProg) && *m_pProg) 

  000f0	8b 56 18	 mov	 edx, DWORD PTR [esi+24]
  000f3	8a 0a		 mov	 cl, BYTE PTR [edx]
  000f5	66 0f be c1	 movsx	 ax, cl
  000f9	66 3b c5	 cmp	 ax, bp
  000fc	76 aa		 jbe	 SHORT $L191551
  000fe	66 3d 20 00	 cmp	 ax, 32			; 00000020H
  00102	77 a4		 ja	 SHORT $L191551
  00104	84 c9		 test	 cl, cl
  00106	74 a0		 je	 SHORT $L191551

; 622  : 					++m_pProg;

  00108	42		 inc	 edx
  00109	89 56 18	 mov	 DWORD PTR [esi+24], edx
  0010c	eb e2		 jmp	 SHORT $L189718
$L189709:

; 623  : 			}
; 624  : 			else 
; 625  : 			{
; 626  : 				--m_pProg;

  0010e	48		 dec	 eax

; 630  : 		}
; 631  : 	}
; 632  : 	while( bLoop ) ;

  0010f	3b fd		 cmp	 edi, ebp
  00111	89 46 18	 mov	 DWORD PTR [esi+24], eax
  00114	0f 85 26 ff ff
	ff		 jne	 $L189694
$L191621:

; 633  : 
; 634  : 	//  
; 635  : 	if(*m_pProg=='\0') 

  0011a	8b 56 18	 mov	 edx, DWORD PTR [esi+24]
  0011d	8a 02		 mov	 al, BYTE PTR [edx]
  0011f	84 c0		 test	 al, al
  00121	75 43		 jne	 SHORT $L189721

; 636  : 	{
; 637  : 		tok = FINISHED;

  00123	c7 86 2c 08 00
	00 15 00 00 00	 mov	 DWORD PTR [esi+2092], 21 ; 00000015H

; 751  : 		tokenType = DELIMITER; 

  0012d	c7 86 28 08 00
	00 01 00 00 00	 mov	 DWORD PTR [esi+2088], 1

; 752  : 		goto EXIT; 

  00137	e9 43 05 00 00	 jmp	 $EXIT$189722
$L191619:
  0013c	5f		 pop	 edi

; 611  : 					{
; 612  : 						tok = FINISHED;
; 613  : 						tokenType = DELIMITER; 

  0013d	b8 01 00 00 00	 mov	 eax, 1
  00142	c7 86 2c 08 00
	00 15 00 00 00	 mov	 DWORD PTR [esi+2092], 21 ; 00000015H
  0014c	89 86 28 08 00
	00		 mov	 DWORD PTR [esi+2088], eax
  00152	5e		 pop	 esi
  00153	5d		 pop	 ebp
  00154	5b		 pop	 ebx

; 850  : }

  00155	8b 4c 24 04	 mov	 ecx, DWORD PTR __$EHRec$[esp+16]
  00159	64 89 0d 00 00
	00 00		 mov	 DWORD PTR fs:__except_list, ecx
  00160	83 c4 10	 add	 esp, 16			; 00000010H
  00163	c2 04 00	 ret	 4
$L189721:

; 638  : 		tokenType = DELIMITER; 
; 639  : 		goto EXIT;
; 640  : 	}
; 641  : 
; 642  : 	// Comma  ?
; 643  : 	if( bComma || m_bComma )

  00166	39 6c 24 24	 cmp	 DWORD PTR _bComma$[esp+28], ebp
  0016a	0f 85 48 04 00
	00		 jne	 $L189725
  00170	39 6e 04	 cmp	 DWORD PTR [esi+4], ebp
  00173	0f 85 3f 04 00
	00		 jne	 $L189725

; 673  : 		}
; 674  : 		goto EXIT;
; 675  : 	}
; 676  : 
; 677  : 	//relation operator?
; 678  : 	switch(*m_pProg) 

  00179	0f be c8	 movsx	 ecx, al
  0017c	83 c1 df	 add	 ecx, -33		; ffffffdfH
  0017f	83 f9 1d	 cmp	 ecx, 29			; 0000001dH
  00182	bf 02 00 00 00	 mov	 edi, 2
  00187	bd 04 00 00 00	 mov	 ebp, 4
  0018c	bb 03 00 00 00	 mov	 ebx, 3
  00191	0f 87 11 01 00
	00		 ja	 $L189764
  00197	0f b6 89 00 00
	00 00		 movzx	 ecx, BYTE PTR $L191636[ecx]
  0019e	ff 24 8d 00 00
	00 00		 jmp	 DWORD PTR $L191650[ecx*4]
$L189747:

; 679  : 	{
; 680  : 		case '=':
; 681  : 			if(*(m_pProg+1)=='=') 

  001a5	80 7a 01 3d	 cmp	 BYTE PTR [edx+1], 61	; 0000003dH
  001a9	75 28		 jne	 SHORT $L189748

; 682  : 			{
; 683  : 				*pszCur++ = *m_pProg++;

  001ab	8b 4c 24 10	 mov	 ecx, DWORD PTR _pszCur$[esp+32]
  001af	88 01		 mov	 BYTE PTR [ecx], al
  001b1	8b 46 18	 mov	 eax, DWORD PTR [esi+24]
  001b4	41		 inc	 ecx
  001b5	40		 inc	 eax
  001b6	89 46 18	 mov	 DWORD PTR [esi+24], eax

; 684  : 				*pszCur++ = *m_pProg++;

  001b9	8a 10		 mov	 dl, BYTE PTR [eax]
  001bb	88 11		 mov	 BYTE PTR [ecx], dl
  001bd	8b 46 18	 mov	 eax, DWORD PTR [esi+24]
  001c0	41		 inc	 ecx
  001c1	40		 inc	 eax
  001c2	89 4c 24 10	 mov	 DWORD PTR _pszCur$[esp+32], ecx
  001c6	89 46 18	 mov	 DWORD PTR [esi+24], eax

; 685  : 				m_nDoubleOps = EQ;

  001c9	c7 86 30 08 00
	00 05 00 00 00	 mov	 DWORD PTR [esi+2096], 5
$L189748:

; 686  : 			}
; 687  : 
; 688  : 			if(*token) { tokenType = DELIMITER; goto EXIT; 	}

  001d3	8b 46 24	 mov	 eax, DWORD PTR [esi+36]
  001d6	80 38 00	 cmp	 BYTE PTR [eax], 0
  001d9	0f 84 c9 00 00
	00		 je	 $L189764

; 751  : 		tokenType = DELIMITER; 

  001df	c7 86 28 08 00
	00 01 00 00 00	 mov	 DWORD PTR [esi+2088], 1

; 752  : 		goto EXIT; 

  001e9	e9 91 04 00 00	 jmp	 $EXIT$189722
$L189751:

; 689  : 			break;
; 690  : 		case '!':
; 691  : 			if(*(m_pProg+1)=='=') 

  001ee	80 7a 01 3d	 cmp	 BYTE PTR [edx+1], 61	; 0000003dH

; 692  : 			{
; 693  : 				*pszCur++ = *m_pProg++;

  001f2	8b 4c 24 10	 mov	 ecx, DWORD PTR _pszCur$[esp+32]
  001f6	88 01		 mov	 BYTE PTR [ecx], al
  001f8	8b 46 18	 mov	 eax, DWORD PTR [esi+24]
  001fb	75 18		 jne	 SHORT $L189752
  001fd	41		 inc	 ecx
  001fe	40		 inc	 eax
  001ff	89 46 18	 mov	 DWORD PTR [esi+24], eax

; 694  : 				*pszCur++ = *m_pProg++;

  00202	8a 10		 mov	 dl, BYTE PTR [eax]
  00204	88 11		 mov	 BYTE PTR [ecx], dl
  00206	8b 46 18	 mov	 eax, DWORD PTR [esi+24]

; 695  : 				m_nDoubleOps = NE;

  00209	c7 86 30 08 00
	00 06 00 00 00	 mov	 DWORD PTR [esi+2096], 6

; 696  : 			}
; 697  : 			else 

  00213	eb 0a		 jmp	 SHORT $L191644
$L189752:

; 700  : 				m_nDoubleOps = NT;

  00215	c7 86 30 08 00
	00 07 00 00 00	 mov	 DWORD PTR [esi+2096], 7
$L191644:

; 698  : 			{
; 699  : 				*pszCur++ = *m_pProg++;

  0021f	41		 inc	 ecx
  00220	40		 inc	 eax
  00221	89 46 18	 mov	 DWORD PTR [esi+24], eax

; 701  : 			}
; 702  : 			
; 703  : 			if(*token) { tokenType = DELIMITER; goto EXIT; }

  00224	8b 46 24	 mov	 eax, DWORD PTR [esi+36]
  00227	89 4c 24 10	 mov	 DWORD PTR _pszCur$[esp+32], ecx
  0022b	80 38 00	 cmp	 BYTE PTR [eax], 0
  0022e	74 78		 je	 SHORT $L189764

; 751  : 		tokenType = DELIMITER; 

  00230	c7 86 28 08 00
	00 01 00 00 00	 mov	 DWORD PTR [esi+2088], 1

; 752  : 		goto EXIT; 

  0023a	e9 40 04 00 00	 jmp	 $EXIT$189722
$L189756:

; 704  : 			break;
; 705  : 		case '<':
; 706  : 			if(*(m_pProg+1)=='=') 

  0023f	80 7a 01 3d	 cmp	 BYTE PTR [edx+1], 61	; 0000003dH

; 707  : 			{
; 708  : 				*pszCur++ = *m_pProg++;

  00243	8b 4c 24 10	 mov	 ecx, DWORD PTR _pszCur$[esp+32]
  00247	88 01		 mov	 BYTE PTR [ecx], al
  00249	8b 46 18	 mov	 eax, DWORD PTR [esi+24]
  0024c	75 14		 jne	 SHORT $L189757
  0024e	41		 inc	 ecx
  0024f	40		 inc	 eax
  00250	89 46 18	 mov	 DWORD PTR [esi+24], eax

; 709  : 				*pszCur++ = *m_pProg++;

  00253	8a 10		 mov	 dl, BYTE PTR [eax]
  00255	88 11		 mov	 BYTE PTR [ecx], dl
  00257	8b 46 18	 mov	 eax, DWORD PTR [esi+24]

; 710  : 				m_nDoubleOps = LE;

  0025a	89 be 30 08 00
	00		 mov	 DWORD PTR [esi+2096], edi

; 711  : 			}
; 712  : 			else 

  00260	eb bd		 jmp	 SHORT $L191644
$L189757:

; 713  : 			{
; 714  : 				*pszCur++ = *m_pProg++;
; 715  : 				m_nDoubleOps = LT;

  00262	c7 86 30 08 00
	00 01 00 00 00	 mov	 DWORD PTR [esi+2096], 1

; 716  : 			}
; 717  : 			
; 718  : 			if(*token) { tokenType = DELIMITER; goto EXIT; }

  0026c	eb b1		 jmp	 SHORT $L191644
$L189761:

; 719  : 			break;
; 720  : 		case '>':
; 721  : 			if(*(m_pProg+1)=='=') 

  0026e	80 7a 01 3d	 cmp	 BYTE PTR [edx+1], 61	; 0000003dH

; 722  : 			{
; 723  : 				*pszCur++ = *m_pProg++;

  00272	8b 4c 24 10	 mov	 ecx, DWORD PTR _pszCur$[esp+32]
  00276	88 01		 mov	 BYTE PTR [ecx], al
  00278	8b 46 18	 mov	 eax, DWORD PTR [esi+24]
  0027b	75 14		 jne	 SHORT $L189762
  0027d	41		 inc	 ecx
  0027e	40		 inc	 eax
  0027f	89 46 18	 mov	 DWORD PTR [esi+24], eax

; 724  : 				*pszCur++ = *m_pProg++;

  00282	8a 10		 mov	 dl, BYTE PTR [eax]
  00284	88 11		 mov	 BYTE PTR [ecx], dl
  00286	8b 46 18	 mov	 eax, DWORD PTR [esi+24]

; 725  : 				m_nDoubleOps = GE;

  00289	89 ae 30 08 00
	00		 mov	 DWORD PTR [esi+2096], ebp

; 726  : 			}
; 727  : 			else 

  0028f	eb 06		 jmp	 SHORT $L191646
$L189762:

; 730  : 				m_nDoubleOps = GT;

  00291	89 9e 30 08 00
	00		 mov	 DWORD PTR [esi+2096], ebx
$L191646:

; 728  : 			{
; 729  : 				*pszCur++ = *m_pProg++;

  00297	41		 inc	 ecx
  00298	40		 inc	 eax
  00299	89 46 18	 mov	 DWORD PTR [esi+24], eax

; 731  : 			}
; 732  : 
; 733  : 			if(*token) { tokenType = DELIMITER; goto EXIT; }

  0029c	8b 46 24	 mov	 eax, DWORD PTR [esi+36]
  0029f	89 4c 24 10	 mov	 DWORD PTR _pszCur$[esp+32], ecx
  002a3	80 38 00	 cmp	 BYTE PTR [eax], 0
  002a6	75 2d		 jne	 SHORT $L191649
$L189764:

; 734  : 			break;
; 735  : 	}
; 736  : 		
; 737  : 	// delimiter
; 738  : 	if(*m_pProg == '&' && *(m_pProg+1) == '&') 

  002a8	8b 46 18	 mov	 eax, DWORD PTR [esi+24]
  002ab	8a 08		 mov	 cl, BYTE PTR [eax]
  002ad	b2 26		 mov	 dl, 38			; 00000026H
  002af	3a ca		 cmp	 cl, dl
  002b1	75 05		 jne	 SHORT $L189766
  002b3	38 50 01	 cmp	 BYTE PTR [eax+1], dl

; 739  : 	{
; 740  : 		*pszCur = *(pszCur+1) = '&';
; 741  : 		pszCur+=2; 
; 742  : 		m_pProg+=2; 
; 743  : 		tokenType = DELIMITER; 
; 744  : 		goto EXIT; 

  002b6	74 0b		 je	 SHORT $L191648
$L189766:

; 745  : 	}
; 746  : 	if(*m_pProg == '|' && *(m_pProg+1) == '|') 

  002b8	b2 7c		 mov	 dl, 124			; 0000007cH
  002ba	3a ca		 cmp	 cl, dl
  002bc	75 26		 jne	 SHORT $L189768
  002be	38 50 01	 cmp	 BYTE PTR [eax+1], dl
  002c1	75 21		 jne	 SHORT $L189768
$L191648:

; 747  : 	{
; 748  : 		*pszCur = *(pszCur+1) = '|';

  002c3	8b 44 24 10	 mov	 eax, DWORD PTR _pszCur$[esp+32]
  002c7	88 50 01	 mov	 BYTE PTR [eax+1], dl
  002ca	88 10		 mov	 BYTE PTR [eax], dl

; 749  : 		pszCur+=2; 

  002cc	03 c7		 add	 eax, edi
  002ce	89 44 24 10	 mov	 DWORD PTR _pszCur$[esp+32], eax

; 750  : 		m_pProg+=2; 

  002d2	01 7e 18	 add	 DWORD PTR [esi+24], edi
$L191649:

; 751  : 		tokenType = DELIMITER; 

  002d5	c7 86 28 08 00
	00 01 00 00 00	 mov	 DWORD PTR [esi+2088], 1

; 752  : 		goto EXIT; 

  002df	e9 9b 03 00 00	 jmp	 $EXIT$189722
$L189768:

; 753  : 	}
; 754  : 	if( strchr( "+-*^/%=;(),':{}.", *m_pProg ) )  

  002e4	0f be c9	 movsx	 ecx, cl
  002e7	51		 push	 ecx
  002e8	68 00 00 00 00	 push	 OFFSET FLAT:??_C@_0BB@BKECMLNK@?$CL?9?$CK?$FO?1?$CF?$DN?$DL?$CI?$CJ?0?8?3?$HL?$HN?4?$AA@
  002ed	e8 00 00 00 00	 call	 _strchr
  002f2	83 c4 08	 add	 esp, 8
  002f5	85 c0		 test	 eax, eax
  002f7	74 26		 je	 SHORT $L189770

; 755  : 	{
; 756  : 		*pszCur = *m_pProg; 

  002f9	8b 56 18	 mov	 edx, DWORD PTR [esi+24]
  002fc	8a 0a		 mov	 cl, BYTE PTR [edx]
  002fe	8b 44 24 10	 mov	 eax, DWORD PTR _pszCur$[esp+32]
  00302	88 08		 mov	 BYTE PTR [eax], cl

; 757  : 		++m_pProg;

  00304	8b 56 18	 mov	 edx, DWORD PTR [esi+24]
  00307	42		 inc	 edx

; 758  : 		++pszCur;	

  00308	40		 inc	 eax
  00309	89 56 18	 mov	 DWORD PTR [esi+24], edx
  0030c	89 44 24 10	 mov	 DWORD PTR _pszCur$[esp+32], eax

; 759  : 		tokenType = DELIMITER; 

  00310	c7 86 28 08 00
	00 01 00 00 00	 mov	 DWORD PTR [esi+2088], 1

; 760  : 		goto EXIT;

  0031a	e9 60 03 00 00	 jmp	 $EXIT$189722
$L189770:

; 761  : 	}
; 762  : 
; 763  : 	//  
; 764  : 	if(*m_pProg=='"') 

  0031f	8b 7e 18	 mov	 edi, DWORD PTR [esi+24]
  00322	8a 07		 mov	 al, BYTE PTR [edi]
  00324	3c 22		 cmp	 al, 34			; 00000022H
  00326	0f 85 0e 01 00
	00		 jne	 $L189773

; 765  : 	{
; 766  : 		++m_pProg;

  0032c	8d 47 01	 lea	 eax, DWORD PTR [edi+1]
  0032f	89 46 18	 mov	 DWORD PTR [esi+24], eax

; 767  : 		while( *m_pProg != '"' && *m_pProg != '\r' && *m_pProg != '\0' && ( pszCur - token ) < MAX_TOKENSTR ) 

  00332	80 38 22	 cmp	 BYTE PTR [eax], 34	; 00000022H
  00335	74 42		 je	 SHORT $L189776
$L189775:
  00337	8b 46 18	 mov	 eax, DWORD PTR [esi+24]
  0033a	8a 08		 mov	 cl, BYTE PTR [eax]
  0033c	80 f9 0d	 cmp	 cl, 13			; 0000000dH
  0033f	74 38		 je	 SHORT $L189776
  00341	84 c9		 test	 cl, cl
  00343	74 34		 je	 SHORT $L189776
  00345	8b 54 24 10	 mov	 edx, DWORD PTR _pszCur$[esp+32]
  00349	2b 56 24	 sub	 edx, DWORD PTR [esi+36]
  0034c	81 fa 00 08 00
	00		 cmp	 edx, 2048		; 00000800H
  00352	7d 25		 jge	 SHORT $L189776

; 768  : 		{
; 769  : 			int count = CopyChar( m_pProg, pszCur );

  00354	8b 7c 24 10	 mov	 edi, DWORD PTR _pszCur$[esp+32]
  00358	57		 push	 edi
  00359	50		 push	 eax
  0035a	e8 00 00 00 00	 call	 ?CopyChar@@YAHPBDPAD@Z	; CopyChar

; 770  : 			m_pProg += count;

  0035f	8b 5e 18	 mov	 ebx, DWORD PTR [esi+24]
  00362	03 d8		 add	 ebx, eax

; 771  : 			pszCur += count;

  00364	03 f8		 add	 edi, eax
  00366	8b c3		 mov	 eax, ebx
  00368	89 5e 18	 mov	 DWORD PTR [esi+24], ebx
  0036b	8a 08		 mov	 cl, BYTE PTR [eax]
  0036d	83 c4 08	 add	 esp, 8
  00370	80 f9 22	 cmp	 cl, 34			; 00000022H
  00373	89 7c 24 10	 mov	 DWORD PTR _pszCur$[esp+32], edi
  00377	75 be		 jne	 SHORT $L189775
$L189776:

; 772  : 		}
; 773  : 		++m_pProg; 

  00379	8b 7e 18	 mov	 edi, DWORD PTR [esi+24]
  0037c	47		 inc	 edi
  0037d	8b c7		 mov	 eax, edi

; 774  : 		tokenType = STRING; 
; 775  : 		if( *(m_pProg-1) != '"' )

  0037f	8d 48 ff	 lea	 ecx, DWORD PTR [eax-1]
  00382	89 7e 18	 mov	 DWORD PTR [esi+24], edi
  00385	c7 86 28 08 00
	00 06 00 00 00	 mov	 DWORD PTR [esi+2088], 6
  0038f	8a 01		 mov	 al, BYTE PTR [ecx]
  00391	3c 22		 cmp	 al, 34			; 00000022H
  00393	0f 84 e6 02 00
	00		 je	 $EXIT$189722

; 776  : 		{
; 777  : 			if( *(m_pProg-1) == '\0' )

  00399	84 c0		 test	 al, al
  0039b	75 03		 jne	 SHORT $L189779

; 778  : 				--m_pProg; 

  0039d	89 4e 18	 mov	 DWORD PTR [esi+24], ecx
$L189779:

; 779  : 			if( m_bErrorCheck )

  003a0	8b 86 3c 08 00
	00		 mov	 eax, DWORD PTR [esi+2108]
  003a6	85 c0		 test	 eax, eax
  003a8	0f 84 d1 02 00
	00		 je	 $EXIT$189722

; 780  : 			{
; 781  : 				CString string;

  003ae	8d 4c 24 24	 lea	 ecx, DWORD PTR _string$189781[esp+28]
  003b2	e8 00 00 00 00	 call	 ??0?$CStringT@DV?$StrTraitMFC@DV?$ChTraitsCRT@D@ATL@@@@@ATL@@QAE@XZ ; ATL::CStringT<char,StrTraitMFC<char,ATL::ChTraitsCRT<char> > >::CStringT<char,StrTraitMFC<char,ATL::ChTraitsCRT<char> > >

; 782  : 				if( ( pszCur - token ) >= MAX_TOKENSTR )

  003b7	8b 46 24	 mov	 eax, DWORD PTR [esi+36]
  003ba	8b 4c 24 10	 mov	 ecx, DWORD PTR _pszCur$[esp+32]

; 783  : 					string.Format( "line(%d)  %s \"%s\"   %d .", GetLineNum(), m_strFileName, token, MAX_TOKENSTR );

  003be	8b 96 38 08 00
	00		 mov	 edx, DWORD PTR [esi+2104]
  003c4	2b c8		 sub	 ecx, eax
  003c6	81 f9 00 08 00
	00		 cmp	 ecx, 2048		; 00000800H
  003cc	c7 44 24 1c 00
	00 00 00	 mov	 DWORD PTR __$EHRec$[esp+40], 0
  003d4	8b ce		 mov	 ecx, esi
  003d6	7c 23		 jl	 SHORT $L189782
  003d8	68 00 08 00 00	 push	 2048			; 00000800H
  003dd	50		 push	 eax
  003de	8b 06		 mov	 eax, DWORD PTR [esi]
  003e0	52		 push	 edx
  003e1	6a 00		 push	 0
  003e3	ff 50 0c	 call	 DWORD PTR [eax+12]
  003e6	50		 push	 eax
  003e7	8d 4c 24 34	 lea	 ecx, DWORD PTR _string$189781[esp+44]
  003eb	68 00 00 00 00	 push	 OFFSET FLAT:??_C@_0DN@LFHNMKPA@line?$CI?$CFd?$CJ?5?F?D?$MA?O?5?$CFs?$LP?$KB?$LM?$KN?5?$CC?$CFs?$CC?5?$LN?$LK?F?$KO?$LI?$LF@
  003f0	51		 push	 ecx
  003f1	e8 00 00 00 00	 call	 ?Format@?$CStringT@DV?$StrTraitMFC@DV?$ChTraitsCRT@D@ATL@@@@@ATL@@QAAXPBDZZ ; ATL::CStringT<char,StrTraitMFC<char,ATL::ChTraitsCRT<char> > >::Format
  003f6	83 c4 18	 add	 esp, 24			; 00000018H

; 784  : 				else

  003f9	eb 1c		 jmp	 SHORT $L189784
$L189782:

; 785  : 					string.Format( "line(%d)  %s \"%s\"    .", GetLineNum(), m_strFileName, token );

  003fb	50		 push	 eax
  003fc	8b 06		 mov	 eax, DWORD PTR [esi]
  003fe	52		 push	 edx
  003ff	6a 00		 push	 0
  00401	ff 50 0c	 call	 DWORD PTR [eax+12]
  00404	50		 push	 eax
  00405	8d 4c 24 30	 lea	 ecx, DWORD PTR _string$189781[esp+40]
  00409	68 00 00 00 00	 push	 OFFSET FLAT:??_C@_0DJ@HNOCKBIP@line?$CI?$CFd?$CJ?5?F?D?$MA?O?5?$CFs?$LP?$KB?$LM?$KN?5?$CC?$CFs?$CC?5?$LN?$LK?F?$KO?$LI?$LF@
  0040e	51		 push	 ecx
  0040f	e8 00 00 00 00	 call	 ?Format@?$CStringT@DV?$StrTraitMFC@DV?$ChTraitsCRT@D@ATL@@@@@ATL@@QAAXPBDZZ ; ATL::CStringT<char,StrTraitMFC<char,ATL::ChTraitsCRT<char> > >::Format
  00414	83 c4 14	 add	 esp, 20			; 00000014H
$L189784:

; 786  : 				Error( string );

  00417	8b 54 24 24	 mov	 edx, DWORD PTR _string$189781[esp+28]
  0041b	52		 push	 edx
  0041c	e8 00 00 00 00	 call	 ?Error@@YAPBDPBDZZ	; Error
  00421	83 c4 04	 add	 esp, 4

; 787  : 			}

  00424	8d 4c 24 24	 lea	 ecx, DWORD PTR _string$189781[esp+28]
  00428	c7 44 24 1c ff
	ff ff ff	 mov	 DWORD PTR __$EHRec$[esp+40], -1
  00430	e8 00 00 00 00	 call	 ??1?$CStringT@DV?$StrTraitMFC@DV?$ChTraitsCRT@D@ATL@@@@@ATL@@QAE@XZ ; ATL::CStringT<char,StrTraitMFC<char,ATL::ChTraitsCRT<char> > >::~CStringT<char,StrTraitMFC<char,ATL::ChTraitsCRT<char> > >

; 788  : 		}
; 789  : 		goto EXIT;

  00435	e9 45 02 00 00	 jmp	 $EXIT$189722
$L189773:

; 790  : 	}
; 791  : 	// hex
; 792  : 	if( *m_pProg=='0' && *(m_pProg + 1)=='x' ) 

  0043a	3c 30		 cmp	 al, 48			; 00000030H
  0043c	75 51		 jne	 SHORT $L189787
  0043e	80 7f 01 78	 cmp	 BYTE PTR [edi+1], 120	; 00000078H
  00442	75 4b		 jne	 SHORT $L189787

; 793  : 	{
; 794  : 		m_pProg+=2;

  00444	8d 47 02	 lea	 eax, DWORD PTR [edi+2]
  00447	89 46 18	 mov	 DWORD PTR [esi+24], eax

; 795  : 		while(!isdelim(*m_pProg)) 

  0044a	66 0f be 00	 movsx	 ax, BYTE PTR [eax]
  0044e	50		 push	 eax
  0044f	e8 00 00 00 00	 call	 ?isdelim@@YAHG@Z	; isdelim
  00454	83 c4 04	 add	 esp, 4
  00457	85 c0		 test	 eax, eax
  00459	75 29		 jne	 SHORT $L189790
  0045b	8b 7c 24 10	 mov	 edi, DWORD PTR _pszCur$[esp+32]
  0045f	90		 npad	 1
$L189789:

; 796  : 			*pszCur++ = *m_pProg++;

  00460	8b 4e 18	 mov	 ecx, DWORD PTR [esi+24]
  00463	8a 11		 mov	 dl, BYTE PTR [ecx]
  00465	88 17		 mov	 BYTE PTR [edi], dl
  00467	8b 46 18	 mov	 eax, DWORD PTR [esi+24]
  0046a	47		 inc	 edi
  0046b	40		 inc	 eax
  0046c	89 46 18	 mov	 DWORD PTR [esi+24], eax
  0046f	66 0f be 08	 movsx	 cx, BYTE PTR [eax]
  00473	51		 push	 ecx
  00474	e8 00 00 00 00	 call	 ?isdelim@@YAHG@Z	; isdelim
  00479	83 c4 04	 add	 esp, 4
  0047c	85 c0		 test	 eax, eax
  0047e	74 e0		 je	 SHORT $L189789
  00480	89 7c 24 10	 mov	 DWORD PTR _pszCur$[esp+32], edi
$L189790:

; 797  : 		tokenType = HEX; 

  00484	89 ae 28 08 00
	00		 mov	 DWORD PTR [esi+2088], ebp

; 798  : 		goto EXIT;

  0048a	e9 f0 01 00 00	 jmp	 $EXIT$189722
$L189787:

; 799  : 	}
; 800  : 	// 
; 801  : 	if( isdigit2( *m_pProg ) && !IsMultiByte( m_pProg ) ) //       ?

  0048f	50		 push	 eax
  00490	e8 00 00 00 00	 call	 ?isdigit2@@YAHD@Z	; isdigit2
  00495	83 c4 04	 add	 esp, 4
  00498	85 c0		 test	 eax, eax
  0049a	74 59		 je	 SHORT $L189792
  0049c	57		 push	 edi
  0049d	e8 00 00 00 00	 call	 ?IsMultiByte@@YAHPBD@Z	; IsMultiByte
  004a2	83 c4 04	 add	 esp, 4
  004a5	85 c0		 test	 eax, eax
  004a7	75 4c		 jne	 SHORT $L189792

; 802  : 	{
; 803  : 		while( !isdelim( *m_pProg ) )

  004a9	8b 56 18	 mov	 edx, DWORD PTR [esi+24]
  004ac	66 0f be 02	 movsx	 ax, BYTE PTR [edx]
  004b0	50		 push	 eax
  004b1	e8 00 00 00 00	 call	 ?isdelim@@YAHG@Z	; isdelim
  004b6	83 c4 04	 add	 esp, 4
  004b9	85 c0		 test	 eax, eax
  004bb	75 2d		 jne	 SHORT $L189795
  004bd	8b 7c 24 10	 mov	 edi, DWORD PTR _pszCur$[esp+32]
$L189794:

; 804  : 		{
; 805  : 			int count	= CopyChar( m_pProg, pszCur );

  004c1	8b 4e 18	 mov	 ecx, DWORD PTR [esi+24]
  004c4	57		 push	 edi
  004c5	51		 push	 ecx
  004c6	e8 00 00 00 00	 call	 ?CopyChar@@YAHPBDPAD@Z	; CopyChar

; 806  : 			m_pProg	+= count;

  004cb	8b 56 18	 mov	 edx, DWORD PTR [esi+24]
  004ce	03 d0		 add	 edx, eax
  004d0	89 56 18	 mov	 DWORD PTR [esi+24], edx

; 807  : 			pszCur	+= count;

  004d3	03 f8		 add	 edi, eax
  004d5	66 0f be 02	 movsx	 ax, BYTE PTR [edx]
  004d9	50		 push	 eax
  004da	e8 00 00 00 00	 call	 ?isdelim@@YAHG@Z	; isdelim
  004df	83 c4 0c	 add	 esp, 12			; 0000000cH
  004e2	85 c0		 test	 eax, eax
  004e4	74 db		 je	 SHORT $L189794
  004e6	89 7c 24 10	 mov	 DWORD PTR _pszCur$[esp+32], edi
$L189795:

; 808  : 		}
; 809  : //		while( !isdelim( *m_pProg ) ) 
; 810  : //			*pszCur++ = *m_pProg++;
; 811  : 		tokenType = NUMBER; 

  004ea	89 9e 28 08 00
	00		 mov	 DWORD PTR [esi+2088], ebx

; 812  : 		goto EXIT;

  004f0	e9 8a 01 00 00	 jmp	 $EXIT$189722
$L189792:

; 813  : 	}
; 814  : 
; 815  : 	//  
; 816  : #ifdef __VS2003
; 817  : 	if( iswalpha( *m_pProg ) || IsMultiByte( m_pProg ) || IsCyrillic( *m_pProg ) 
; 818  : 		|| *m_pProg == '#' || *m_pProg == '_' || *m_pProg == '@' || *m_pProg=='$' || *m_pProg == '?' ) 

  004f5	8b 4e 18	 mov	 ecx, DWORD PTR [esi+24]
  004f8	66 0f be 11	 movsx	 dx, BYTE PTR [ecx]
  004fc	52		 push	 edx
  004fd	e8 00 00 00 00	 call	 _iswalpha
  00502	83 c4 04	 add	 esp, 4
  00505	85 c0		 test	 eax, eax
  00507	75 5e		 jne	 SHORT $L191615
  00509	8b 46 18	 mov	 eax, DWORD PTR [esi+24]
  0050c	50		 push	 eax
  0050d	e8 00 00 00 00	 call	 ?IsMultiByte@@YAHPBD@Z	; IsMultiByte
  00512	83 c4 04	 add	 esp, 4
  00515	85 c0		 test	 eax, eax
  00517	75 4e		 jne	 SHORT $L191615
  00519	8b 4e 18	 mov	 ecx, DWORD PTR [esi+24]
  0051c	33 d2		 xor	 edx, edx
  0051e	8a 11		 mov	 dl, BYTE PTR [ecx]
  00520	52		 push	 edx
  00521	e8 00 00 00 00	 call	 ?IsCyrillic@@YAHD@Z	; IsCyrillic
  00526	83 c4 04	 add	 esp, 4
  00529	85 c0		 test	 eax, eax
  0052b	75 3a		 jne	 SHORT $L191615
  0052d	8b 46 18	 mov	 eax, DWORD PTR [esi+24]
  00530	8a 00		 mov	 al, BYTE PTR [eax]
  00532	3c 23		 cmp	 al, 35			; 00000023H
  00534	74 31		 je	 SHORT $L191615
  00536	3c 5f		 cmp	 al, 95			; 0000005fH
  00538	74 2d		 je	 SHORT $L191615
  0053a	3c 40		 cmp	 al, 64			; 00000040H
  0053c	74 29		 je	 SHORT $L191615
  0053e	3c 24		 cmp	 al, 36			; 00000024H
  00540	74 25		 je	 SHORT $L191615
  00542	3c 3f		 cmp	 al, 63			; 0000003fH
  00544	74 21		 je	 SHORT $L191615

; 829  : 		}
; 830  : 	}
; 831  : 	else
; 832  : 	{
; 833  : 		/*
; 834  : 		while( !isdelim( *m_pProg ) ) 
; 835  : 		{
; 836  : 			int count	= CopyChar( m_pProg, pszCur );
; 837  : 			m_pProg	+= count;
; 838  : 			pszCur	+= count;
; 839  : 		}
; 840  : 		*/
; 841  : 		*pszCur++ = *m_pProg++;

  00546	8b 4c 24 10	 mov	 ecx, DWORD PTR _pszCur$[esp+32]
  0054a	88 01		 mov	 BYTE PTR [ecx], al
  0054c	8b 46 18	 mov	 eax, DWORD PTR [esi+24]
  0054f	41		 inc	 ecx
  00550	40		 inc	 eax
  00551	89 4c 24 10	 mov	 DWORD PTR _pszCur$[esp+32], ecx
  00555	89 46 18	 mov	 DWORD PTR [esi+24], eax

; 842  : 	}
; 843  : 
; 844  : 	tokenType = TEMP;

  00558	c7 86 28 08 00
	00 00 00 00 00	 mov	 DWORD PTR [esi+2088], 0
  00562	e9 18 01 00 00	 jmp	 $EXIT$189722
$L191615:

; 819  : #else //__VS2003
; 820  : 	if( isalpha( *m_pProg ) || IsMultiByte( m_pProg ) || IsCyrillic( *m_pProg )
; 821  : 		|| *m_pProg == '#' || *m_pProg == '_' || *m_pProg == '@' || *m_pProg=='$' || *m_pProg == '?' ) 
; 822  : #endif //__VS2003
; 823  : 	{
; 824  : 		while( !isdelim( *m_pProg ) ) 

  00567	8b 4e 18	 mov	 ecx, DWORD PTR [esi+24]
  0056a	66 0f be 11	 movsx	 dx, BYTE PTR [ecx]
  0056e	52		 push	 edx
  0056f	e8 00 00 00 00	 call	 ?isdelim@@YAHG@Z	; isdelim
  00574	83 c4 04	 add	 esp, 4
  00577	85 c0		 test	 eax, eax
  00579	75 2e		 jne	 SHORT $L189802
  0057b	8b 7c 24 10	 mov	 edi, DWORD PTR _pszCur$[esp+32]
  0057f	90		 npad	 1
$L189801:

; 825  : 		{
; 826  : 			int count = CopyChar( m_pProg, pszCur );

  00580	8b 46 18	 mov	 eax, DWORD PTR [esi+24]
  00583	57		 push	 edi
  00584	50		 push	 eax
  00585	e8 00 00 00 00	 call	 ?CopyChar@@YAHPBDPAD@Z	; CopyChar

; 827  : 			m_pProg += count;

  0058a	8b 4e 18	 mov	 ecx, DWORD PTR [esi+24]
  0058d	03 c8		 add	 ecx, eax
  0058f	89 4e 18	 mov	 DWORD PTR [esi+24], ecx
  00592	66 0f be 11	 movsx	 dx, BYTE PTR [ecx]

; 828  : 			pszCur += count;

  00596	03 f8		 add	 edi, eax
  00598	52		 push	 edx
  00599	e8 00 00 00 00	 call	 ?isdelim@@YAHG@Z	; isdelim
  0059e	83 c4 0c	 add	 esp, 12			; 0000000cH
  005a1	85 c0		 test	 eax, eax
  005a3	74 db		 je	 SHORT $L189801
  005a5	89 7c 24 10	 mov	 DWORD PTR _pszCur$[esp+32], edi
$L189802:

; 842  : 	}
; 843  : 
; 844  : 	tokenType = TEMP;

  005a9	c7 86 28 08 00
	00 00 00 00 00	 mov	 DWORD PTR [esi+2088], 0
  005b3	e9 c7 00 00 00	 jmp	 $EXIT$189722
$L189725:

; 644  : 	{
; 645  : 		//   ,      .
; 646  : 		//     pszCur NUMBER .
; 647  : 		if(*m_pProg=='"') 

  005b8	3c 22		 cmp	 al, 34			; 00000022H
  005ba	75 3d		 jne	 SHORT $L191617

; 648  : 		{
; 649  : 			++m_pProg;

  005bc	8d 42 01	 lea	 eax, DWORD PTR [edx+1]
  005bf	89 46 18	 mov	 DWORD PTR [esi+24], eax

; 650  : 			while(*m_pProg != '"' && *m_pProg != '\r' && *m_pProg != '\0') 

  005c2	80 38 22	 cmp	 BYTE PTR [eax], 34	; 00000022H
  005c5	74 22		 je	 SHORT $L189729
$L189728:
  005c7	8a 08		 mov	 cl, BYTE PTR [eax]
  005c9	80 f9 0d	 cmp	 cl, 13			; 0000000dH
  005cc	74 17		 je	 SHORT $L191639
  005ce	84 c9		 test	 cl, cl
  005d0	74 13		 je	 SHORT $L191639

; 651  : 				*pszCur++ = *m_pProg++;

  005d2	88 0b		 mov	 BYTE PTR [ebx], cl
  005d4	8b 7e 18	 mov	 edi, DWORD PTR [esi+24]
  005d7	43		 inc	 ebx
  005d8	47		 inc	 edi
  005d9	8b cf		 mov	 ecx, edi
  005db	89 7e 18	 mov	 DWORD PTR [esi+24], edi
  005de	80 39 22	 cmp	 BYTE PTR [ecx], 34	; 00000022H
  005e1	8b c7		 mov	 eax, edi
  005e3	75 e2		 jne	 SHORT $L189728
$L191639:
  005e5	89 5c 24 10	 mov	 DWORD PTR _pszCur$[esp+32], ebx
$L189729:

; 652  : 			++m_pProg; 

  005e9	40		 inc	 eax
  005ea	89 46 18	 mov	 DWORD PTR [esi+24], eax

; 653  : 			tokenType = STRING; 

  005ed	c7 86 28 08 00
	00 06 00 00 00	 mov	 DWORD PTR [esi+2088], 6

; 654  : 		}
; 655  : 		else

  005f7	eb 29		 jmp	 SHORT $L189733
$L191617:

; 656  : 		{
; 657  : 			while(*m_pProg!=',' && *m_pProg != '\r' && *m_pProg != '\0') 

  005f9	3c 2c		 cmp	 al, 44			; 0000002cH
  005fb	74 25		 je	 SHORT $L189733
  005fd	8d 49 00	 npad	 3
$L189732:
  00600	8b 56 18	 mov	 edx, DWORD PTR [esi+24]
  00603	8a 02		 mov	 al, BYTE PTR [edx]
  00605	3c 0d		 cmp	 al, 13			; 0000000dH
  00607	74 15		 je	 SHORT $L191641
  00609	84 c0		 test	 al, al
  0060b	74 11		 je	 SHORT $L191641

; 658  : 				*pszCur++ = *m_pProg++;

  0060d	88 03		 mov	 BYTE PTR [ebx], al
  0060f	8b 56 18	 mov	 edx, DWORD PTR [esi+24]
  00612	43		 inc	 ebx
  00613	42		 inc	 edx
  00614	8b c2		 mov	 eax, edx
  00616	89 56 18	 mov	 DWORD PTR [esi+24], edx
  00619	80 38 2c	 cmp	 BYTE PTR [eax], 44	; 0000002cH
  0061c	75 e2		 jne	 SHORT $L189732
$L191641:
  0061e	89 5c 24 10	 mov	 DWORD PTR _pszCur$[esp+32], ebx
$L189733:

; 659  : 		}
; 660  : 		if( *m_pProg == ',' || *m_pProg == '\r')

  00622	8b 4e 18	 mov	 ecx, DWORD PTR [esi+24]
  00625	8a 01		 mov	 al, BYTE PTR [ecx]
  00627	3c 2c		 cmp	 al, 44			; 0000002cH
  00629	74 04		 je	 SHORT $L189735
  0062b	3c 0d		 cmp	 al, 13			; 0000000dH
  0062d	75 04		 jne	 SHORT $L189734
$L189735:

; 661  : 			++m_pProg; // skim comma

  0062f	41		 inc	 ecx
  00630	89 4e 18	 mov	 DWORD PTR [esi+24], ecx
$L189734:

; 662  : 		// white space 
; 663  : 		if( pszCur != token )

  00633	8b 56 24	 mov	 edx, DWORD PTR [esi+36]
  00636	3b da		 cmp	 ebx, edx
  00638	74 45		 je	 SHORT $EXIT$189722
$L191647:

; 664  : 		{
; 665  : 			--pszCur;
; 666  : 			while( iswhite( *pszCur ) && *pszCur ) 

  0063a	8a 4b ff	 mov	 cl, BYTE PTR [ebx-1]
  0063d	4b		 dec	 ebx
  0063e	66 0f be c1	 movsx	 ax, cl
  00642	66 3b c5	 cmp	 ax, bp
  00645	76 0a		 jbe	 SHORT $L191557
  00647	66 3d 20 00	 cmp	 ax, 32			; 00000020H
  0064b	77 04		 ja	 SHORT $L191557
  0064d	84 c9		 test	 cl, cl

; 667  : 				--pszCur;

  0064f	75 e9		 jne	 SHORT $L191647

; 664  : 		{
; 665  : 			--pszCur;
; 666  : 			while( iswhite( *pszCur ) && *pszCur ) 

$L191557:

; 668  : 			++pszCur;
; 669  : 			if( isdigit2( token[0] ) )

  00651	8a 02		 mov	 al, BYTE PTR [edx]
  00653	43		 inc	 ebx
  00654	3c 30		 cmp	 al, 48			; 00000030H
  00656	89 5c 24 10	 mov	 DWORD PTR _pszCur$[esp+32], ebx
  0065a	7c 0e		 jl	 SHORT $L189740
  0065c	3c 39		 cmp	 al, 57			; 00000039H
  0065e	7f 0a		 jg	 SHORT $L189740

; 670  : 				tokenType = NUMBER;

  00660	c7 86 28 08 00
	00 03 00 00 00	 mov	 DWORD PTR [esi+2088], 3
$L189740:

; 671  : 			if(token[0]=='0' && token[1]=='x') 

  0066a	80 3a 30	 cmp	 BYTE PTR [edx], 48	; 00000030H
  0066d	75 10		 jne	 SHORT $EXIT$189722
  0066f	80 7a 01 78	 cmp	 BYTE PTR [edx+1], 120	; 00000078H
  00673	75 0a		 jne	 SHORT $EXIT$189722

; 672  : 				tokenType = HEX;

  00675	c7 86 28 08 00
	00 04 00 00 00	 mov	 DWORD PTR [esi+2088], 4
$EXIT$189722:

; 845  : 
; 846  : EXIT:
; 847  : 	*pszCur = '\0';

  0067f	8b 4c 24 10	 mov	 ecx, DWORD PTR _pszCur$[esp+32]
  00683	c6 01 00	 mov	 BYTE PTR [ecx], 0

; 848  : 	Token = token; 

  00686	8b 7e 24	 mov	 edi, DWORD PTR [esi+36]
  00689	85 ff		 test	 edi, edi
  0068b	8d 4e 20	 lea	 ecx, DWORD PTR [esi+32]
  0068e	75 04		 jne	 SHORT $L191595
  00690	33 c0		 xor	 eax, eax
  00692	eb 15		 jmp	 SHORT $L191594
$L191595:
  00694	8b c7		 mov	 eax, edi
  00696	8d 68 01	 lea	 ebp, DWORD PTR [eax+1]
  00699	8d a4 24 00 00
	00 00		 npad	 7
$L191637:
  006a0	8a 10		 mov	 dl, BYTE PTR [eax]
  006a2	40		 inc	 eax
  006a3	84 d2		 test	 dl, dl
  006a5	75 f9		 jne	 SHORT $L191637
  006a7	2b c5		 sub	 eax, ebp
$L191594:
  006a9	50		 push	 eax
  006aa	57		 push	 edi
  006ab	e8 00 00 00 00	 call	 ?SetString@?$CSimpleStringT@D$0A@@ATL@@QAEXPBDH@Z ; ATL::CSimpleStringT<char,0>::SetString

; 849  : 	return tokenType;

  006b0	8b 86 28 08 00
	00		 mov	 eax, DWORD PTR [esi+2088]

; 850  : }

  006b6	8b 4c 24 14	 mov	 ecx, DWORD PTR __$EHRec$[esp+32]
  006ba	5f		 pop	 edi
  006bb	5e		 pop	 esi
  006bc	5d		 pop	 ebp
  006bd	5b		 pop	 ebx
  006be	64 89 0d 00 00
	00 00		 mov	 DWORD PTR fs:__except_list, ecx
  006c5	83 c4 10	 add	 esp, 16			; 00000010H
  006c8	c2 04 00	 ret	 4
  006cb	90		 npad	 1
$L191650:
  006cc	00 00 00 00	 DD	 $L189751
  006d0	00 00 00 00	 DD	 $L189756
  006d4	00 00 00 00	 DD	 $L189747
  006d8	00 00 00 00	 DD	 $L189761
  006dc	00 00 00 00	 DD	 $L189764
$L191636:
  006e0	00		 DB	 0
  006e1	04		 DB	 4
  006e2	04		 DB	 4
  006e3	04		 DB	 4
  006e4	04		 DB	 4
  006e5	04		 DB	 4
  006e6	04		 DB	 4
  006e7	04		 DB	 4
  006e8	04		 DB	 4
  006e9	04		 DB	 4
  006ea	04		 DB	 4
  006eb	04		 DB	 4
  006ec	04		 DB	 4
  006ed	04		 DB	 4
  006ee	04		 DB	 4
  006ef	04		 DB	 4
  006f0	04		 DB	 4
  006f1	04		 DB	 4
  006f2	04		 DB	 4
  006f3	04		 DB	 4
  006f4	04		 DB	 4
  006f5	04		 DB	 4
  006f6	04		 DB	 4
  006f7	04		 DB	 4
  006f8	04		 DB	 4
  006f9	04		 DB	 4
  006fa	04		 DB	 4
  006fb	01		 DB	 1
  006fc	02		 DB	 2
  006fd	03		 DB	 3
_TEXT	ENDS
;	COMDAT text$x
text$x	SEGMENT
$L191541:
  00000	8d 4d 04	 lea	 ecx, DWORD PTR _string$189781[ebp-4]
  00003	e9 00 00 00 00	 jmp	 ??1?$CStringT@DV?$StrTraitMFC@DV?$ChTraitsCRT@D@ATL@@@@@ATL@@QAE@XZ ; ATL::CStringT<char,StrTraitMFC<char,ATL::ChTraitsCRT<char> > >::~CStringT<char,StrTraitMFC<char,ATL::ChTraitsCRT<char> > >
__ehhandler$?GetToken@CScanner@@UAEHH@Z:
  00008	b8 00 00 00 00	 mov	 eax, OFFSET FLAT:$T191604
  0000d	e9 00 00 00 00	 jmp	 ___CxxFrameHandler
text$x	ENDS
?GetToken@CScanner@@UAEHH@Z ENDP			; CScanner::GetToken
PUBLIC	??0?$CStringT@DV?$StrTraitMFC@DV?$ChTraitsCRT@D@ATL@@@@@ATL@@QAE@PBD@Z ; ATL::CStringT<char,StrTraitMFC<char,ATL::ChTraitsCRT<char> > >::CStringT<char,StrTraitMFC<char,ATL::ChTraitsCRT<char> > >
;	COMDAT xdata$x
; File c:\program files\microsoft visual studio .net 2003\vc7\atlmfc\include\atlsimpstr.h
xdata$x	SEGMENT
$T191738 DD	0ffffffffH
	DD	FLAT:$L191657
$T191732 DD	019930520H
	DD	01H
	DD	FLAT:$T191738
	DD	2 DUP(00H)
	DD	2 DUP(00H)
; Function compile flags: /Ogty
; File c:\program files\microsoft visual studio .net 2003\vc7\atlmfc\include\cstringt.h
xdata$x	ENDS
;	COMDAT ??0?$CStringT@DV?$StrTraitMFC@DV?$ChTraitsCRT@D@ATL@@@@@ATL@@QAE@PBD@Z
_TEXT	SEGMENT
_this$ = -16						; size = 4
__$EHRec$ = -12						; size = 12
_pszSrc$ = 8						; size = 4
??0?$CStringT@DV?$StrTraitMFC@DV?$ChTraitsCRT@D@ATL@@@@@ATL@@QAE@PBD@Z PROC NEAR ; ATL::CStringT<char,StrTraitMFC<char,ATL::ChTraitsCRT<char> > >::CStringT<char,StrTraitMFC<char,ATL::ChTraitsCRT<char> > >, COMDAT
; _this$ = ecx

; 830  : 	{

  00000	6a ff		 push	 -1
  00002	68 00 00 00 00	 push	 __ehhandler$??0?$CStringT@DV?$StrTraitMFC@DV?$ChTraitsCRT@D@ATL@@@@@ATL@@QAE@PBD@Z
  00007	64 a1 00 00 00
	00		 mov	 eax, DWORD PTR fs:__except_list
  0000d	50		 push	 eax
  0000e	64 89 25 00 00
	00 00		 mov	 DWORD PTR fs:__except_list, esp
  00015	51		 push	 ecx
  00016	56		 push	 esi
  00017	8b f1		 mov	 esi, ecx
  00019	57		 push	 edi
  0001a	89 74 24 08	 mov	 DWORD PTR _this$[esp+24], esi
  0001e	e8 00 00 00 00	 call	 ?AfxGetStringManager@@YGPAUIAtlStringMgr@ATL@@XZ ; AfxGetStringManager
  00023	8b 10		 mov	 edx, DWORD PTR [eax]
  00025	8b c8		 mov	 ecx, eax
  00027	ff 52 0c	 call	 DWORD PTR [edx+12]
  0002a	83 c0 10	 add	 eax, 16			; 00000010H
  0002d	89 06		 mov	 DWORD PTR [esi], eax

; 831  : 		if( !CheckImplicitLoad( pszSrc ) )

  0002f	8b 54 24 1c	 mov	 edx, DWORD PTR _pszSrc$[esp+20]
  00033	85 d2		 test	 edx, edx
  00035	c7 44 24 14 00
	00 00 00	 mov	 DWORD PTR __$EHRec$[esp+32], 0
  0003d	74 33		 je	 SHORT $L191734
  0003f	f7 c2 00 00 ff
	ff		 test	 edx, -65536		; ffff0000H
  00045	75 2f		 jne	 SHORT $L191727
  00047	0f b7 fa	 movzx	 edi, dx
  0004a	57		 push	 edi
  0004b	e8 00 00 00 00	 call	 ?AfxFindStringResourceHandle@@YGPAUHINSTANCE__@@I@Z ; AfxFindStringResourceHandle
  00050	85 c0		 test	 eax, eax
  00052	74 3e		 je	 SHORT $L191736
  00054	57		 push	 edi
  00055	50		 push	 eax
  00056	8b ce		 mov	 ecx, esi
  00058	e8 00 00 00 00	 call	 ?LoadStringA@?$CStringT@DV?$StrTraitMFC@DV?$ChTraitsCRT@D@ATL@@@@@ATL@@QAEHPAUHINSTANCE__@@I@Z ; ATL::CStringT<char,StrTraitMFC<char,ATL::ChTraitsCRT<char> > >::LoadStringA
  0005d	5f		 pop	 edi

; 835  : 		}
; 836  : 	}

  0005e	8b c6		 mov	 eax, esi
  00060	5e		 pop	 esi
  00061	8b 4c 24 04	 mov	 ecx, DWORD PTR __$EHRec$[esp+16]
  00065	64 89 0d 00 00
	00 00		 mov	 DWORD PTR fs:__except_list, ecx
  0006c	83 c4 10	 add	 esp, 16			; 00000010H
  0006f	c2 04 00	 ret	 4
$L191734:

; 832  : 		{
; 833  : 			// nDestLength is in XCHARs
; 834  : 			*this = pszSrc;

  00072	33 c0		 xor	 eax, eax
  00074	eb 13		 jmp	 SHORT $L191726
$L191727:
  00076	8b c2		 mov	 eax, edx
  00078	8d 78 01	 lea	 edi, DWORD PTR [eax+1]
  0007b	eb 03 8d 49 00	 npad	 5
$L191735:
  00080	8a 08		 mov	 cl, BYTE PTR [eax]
  00082	40		 inc	 eax
  00083	84 c9		 test	 cl, cl
  00085	75 f9		 jne	 SHORT $L191735
  00087	2b c7		 sub	 eax, edi
$L191726:
  00089	50		 push	 eax
  0008a	52		 push	 edx
  0008b	8b ce		 mov	 ecx, esi
  0008d	e8 00 00 00 00	 call	 ?SetString@?$CSimpleStringT@D$0A@@ATL@@QAEXPBDH@Z ; ATL::CSimpleStringT<char,0>::SetString
$L191736:

; 835  : 		}
; 836  : 	}

  00092	8b 4c 24 0c	 mov	 ecx, DWORD PTR __$EHRec$[esp+24]
  00096	5f		 pop	 edi
  00097	8b c6		 mov	 eax, esi
  00099	5e		 pop	 esi
  0009a	64 89 0d 00 00
	00 00		 mov	 DWORD PTR fs:__except_list, ecx
  000a1	83 c4 10	 add	 esp, 16			; 00000010H
  000a4	c2 04 00	 ret	 4
_TEXT	ENDS
;	COMDAT text$x
text$x	SEGMENT
$L191657:
  00000	8b 4d f0	 mov	 ecx, DWORD PTR _this$[ebp]
  00003	e9 00 00 00 00	 jmp	 ??1?$CSimpleStringT@D$0A@@ATL@@QAE@XZ ; ATL::CSimpleStringT<char,0>::~CSimpleStringT<char,0>
__ehhandler$??0?$CStringT@DV?$StrTraitMFC@DV?$ChTraitsCRT@D@ATL@@@@@ATL@@QAE@PBD@Z:
  00008	b8 00 00 00 00	 mov	 eax, OFFSET FLAT:$T191732
  0000d	e9 00 00 00 00	 jmp	 ___CxxFrameHandler
text$x	ENDS
??0?$CStringT@DV?$StrTraitMFC@DV?$ChTraitsCRT@D@ATL@@@@@ATL@@QAE@PBD@Z ENDP ; ATL::CStringT<char,StrTraitMFC<char,ATL::ChTraitsCRT<char> > >::CStringT<char,StrTraitMFC<char,ATL::ChTraitsCRT<char> > >
PUBLIC	??_C@_02JDPG@rb?$AA@				; `string'
PUBLIC	?Load@CScanner@@QAEHPBDH@Z			; CScanner::Load
;	COMDAT xdata$x
; File c:\documents and settings\test\mes documents\source\virtuos_v17\build\program\_common\file.h
xdata$x	SEGMENT
$T191844 DD	0ffffffffH
	DD	FLAT:$L191745
	DD	00H
	DD	FLAT:$L191746
$T191841 DD	019930520H
	DD	02H
	DD	FLAT:$T191844
	DD	2 DUP(00H)
	DD	2 DUP(00H)
xdata$x	ENDS
;	COMDAT ??_C@_02JDPG@rb?$AA@
CONST	SEGMENT
??_C@_02JDPG@rb?$AA@ DB 'rb', 00H			; `string'
; Function compile flags: /Ogty
; File c:\documents and settings\test\mes documents\source\virtuos_v17\build\program\_common\scanner.cpp
CONST	ENDS
;	COMDAT ?Load@CScanner@@QAEHPBDH@Z
_TEXT	SEGMENT
_file$ = -20						; size = 8
__$EHRec$ = -12						; size = 12
_fileName$ = 8						; size = 4
_lpszFileName$ = 8					; size = 4
_bMultiByte$ = 12					; size = 4
?Load@CScanner@@QAEHPBDH@Z PROC NEAR			; CScanner::Load, COMDAT
; _this$ = ecx

; 509  : {

  00000	6a ff		 push	 -1
  00002	68 00 00 00 00	 push	 __ehhandler$?Load@CScanner@@QAEHPBDH@Z
  00007	64 a1 00 00 00
	00		 mov	 eax, DWORD PTR fs:__except_list
  0000d	50		 push	 eax
  0000e	64 89 25 00 00
	00 00		 mov	 DWORD PTR fs:__except_list, esp
  00015	83 ec 08	 sub	 esp, 8
  00018	53		 push	 ebx
  00019	55		 push	 ebp
  0001a	56		 push	 esi

; 510  : 	CResFile file; 

  0001b	bd 00 00 00 00	 mov	 ebp, OFFSET FLAT:??_7CFileIO@@6B@
  00020	33 db		 xor	 ebx, ebx
  00022	57		 push	 edi
  00023	8b f9		 mov	 edi, ecx
  00025	89 6c 24 10	 mov	 DWORD PTR _file$[esp+36], ebp
  00029	89 5c 24 14	 mov	 DWORD PTR _file$[esp+40], ebx

; 511  : 	CString fileName = lpszFileName;

  0002d	8b 74 24 28	 mov	 esi, DWORD PTR _lpszFileName$[esp+32]
  00031	56		 push	 esi
  00032	8d 4c 24 2c	 lea	 ecx, DWORD PTR _fileName$[esp+36]
  00036	89 5c 24 24	 mov	 DWORD PTR __$EHRec$[esp+48], ebx
  0003a	e8 00 00 00 00	 call	 ??0?$CStringT@DV?$StrTraitMFC@DV?$ChTraitsCRT@D@ATL@@@@@ATL@@QAE@PBD@Z ; ATL::CStringT<char,StrTraitMFC<char,ATL::ChTraitsCRT<char> > >::CStringT<char,StrTraitMFC<char,ATL::ChTraitsCRT<char> > >

; 512  : 	fileName.MakeLower();

  0003f	8d 4c 24 28	 lea	 ecx, DWORD PTR _fileName$[esp+32]
  00043	c6 44 24 20 01	 mov	 BYTE PTR __$EHRec$[esp+44], 1
  00048	e8 00 00 00 00	 call	 ?MakeLower@?$CStringT@DV?$StrTraitMFC@DV?$ChTraitsCRT@D@ATL@@@@@ATL@@QAEAAV12@XZ ; ATL::CStringT<char,StrTraitMFC<char,ATL::ChTraitsCRT<char> > >::MakeLower

; 513  : 	if( !file.Open(lpszFileName, "rb" ) ) 

  0004d	68 00 00 00 00	 push	 OFFSET FLAT:??_C@_02JDPG@rb?$AA@
  00052	56		 push	 esi
  00053	8d 4c 24 18	 lea	 ecx, DWORD PTR _file$[esp+44]
  00057	e8 00 00 00 00	 call	 ?Open@CFileIO@@UAEHPBDPAD@Z ; CFileIO::Open
  0005c	85 c0		 test	 eax, eax
  0005e	75 4e		 jne	 SHORT $L189643

; 514  : 		return 0;

  00060	8b 44 24 28	 mov	 eax, DWORD PTR _fileName$[esp+32]
  00064	83 c0 f0	 add	 eax, -16		; fffffff0H
  00067	88 5c 24 20	 mov	 BYTE PTR __$EHRec$[esp+44], bl
  0006b	8d 48 0c	 lea	 ecx, DWORD PTR [eax+12]
  0006e	83 ca ff	 or	 edx, -1
  00071	f0 0f c1 11	 lock	  xadd	 DWORD PTR [ecx], edx
  00075	4a		 dec	 edx
  00076	85 d2		 test	 edx, edx
  00078	7f 08		 jg	 SHORT $L191773
  0007a	8b 08		 mov	 ecx, DWORD PTR [eax]
  0007c	8b 11		 mov	 edx, DWORD PTR [ecx]
  0007e	50		 push	 eax
  0007f	ff 52 04	 call	 DWORD PTR [edx+4]
$L191773:
  00082	8d 4c 24 10	 lea	 ecx, DWORD PTR _file$[esp+36]
  00086	c7 44 24 20 ff
	ff ff ff	 mov	 DWORD PTR __$EHRec$[esp+44], -1
  0008e	89 6c 24 10	 mov	 DWORD PTR _file$[esp+36], ebp
  00092	e8 00 00 00 00	 call	 ?Close@CFileIO@@UAEHXZ	; CFileIO::Close
  00097	5f		 pop	 edi
  00098	5e		 pop	 esi
  00099	5d		 pop	 ebp
  0009a	33 c0		 xor	 eax, eax
  0009c	5b		 pop	 ebx

; 517  : }

  0009d	8b 4c 24 08	 mov	 ecx, DWORD PTR __$EHRec$[esp+20]
  000a1	64 89 0d 00 00
	00 00		 mov	 DWORD PTR fs:__except_list, ecx
  000a8	83 c4 14	 add	 esp, 20			; 00000014H
  000ab	c2 08 00	 ret	 8
$L189643:

; 515  : 	m_strFileName = lpszFileName;

  000ae	3b f3		 cmp	 esi, ebx
  000b0	8d 8f 38 08 00
	00		 lea	 ecx, DWORD PTR [edi+2104]
  000b6	75 04		 jne	 SHORT $L191805
  000b8	33 c0		 xor	 eax, eax
  000ba	eb 13		 jmp	 SHORT $L191804
$L191805:
  000bc	8b c6		 mov	 eax, esi
  000be	8d 68 01	 lea	 ebp, DWORD PTR [eax+1]
$L191842:
  000c1	8a 10		 mov	 dl, BYTE PTR [eax]
  000c3	40		 inc	 eax
  000c4	3a d3		 cmp	 dl, bl
  000c6	75 f9		 jne	 SHORT $L191842
  000c8	2b c5		 sub	 eax, ebp
  000ca	bd 00 00 00 00	 mov	 ebp, OFFSET FLAT:??_7CFileIO@@6B@
$L191804:
  000cf	50		 push	 eax
  000d0	56		 push	 esi
  000d1	e8 00 00 00 00	 call	 ?SetString@?$CSimpleStringT@D$0A@@ATL@@QAEXPBDH@Z ; ATL::CSimpleStringT<char,0>::SetString

; 516  : 	return Read( &file, bMultiByte );

  000d6	8b 44 24 2c	 mov	 eax, DWORD PTR _bMultiByte$[esp+32]
  000da	50		 push	 eax
  000db	8d 4c 24 14	 lea	 ecx, DWORD PTR _file$[esp+40]
  000df	51		 push	 ecx
  000e0	8b cf		 mov	 ecx, edi
  000e2	e8 00 00 00 00	 call	 ?Read@CScanner@@IAEHPAVCFileIO@@H@Z ; CScanner::Read
  000e7	8b f0		 mov	 esi, eax
  000e9	8b 44 24 28	 mov	 eax, DWORD PTR _fileName$[esp+32]
  000ed	83 c0 f0	 add	 eax, -16		; fffffff0H
  000f0	88 5c 24 20	 mov	 BYTE PTR __$EHRec$[esp+44], bl
  000f4	8d 50 0c	 lea	 edx, DWORD PTR [eax+12]
  000f7	83 c9 ff	 or	 ecx, -1
  000fa	f0 0f c1 0a	 lock	  xadd	 DWORD PTR [edx], ecx
  000fe	49		 dec	 ecx
  000ff	85 c9		 test	 ecx, ecx
  00101	7f 08		 jg	 SHORT $L191833
  00103	8b 08		 mov	 ecx, DWORD PTR [eax]
  00105	8b 11		 mov	 edx, DWORD PTR [ecx]
  00107	50		 push	 eax
  00108	ff 52 04	 call	 DWORD PTR [edx+4]
$L191833:
  0010b	8d 4c 24 10	 lea	 ecx, DWORD PTR _file$[esp+36]
  0010f	c7 44 24 20 ff
	ff ff ff	 mov	 DWORD PTR __$EHRec$[esp+44], -1
  00117	89 6c 24 10	 mov	 DWORD PTR _file$[esp+36], ebp
  0011b	e8 00 00 00 00	 call	 ?Close@CFileIO@@UAEHXZ	; CFileIO::Close

; 517  : }

  00120	8b 4c 24 18	 mov	 ecx, DWORD PTR __$EHRec$[esp+36]
  00124	5f		 pop	 edi
  00125	8b c6		 mov	 eax, esi
  00127	5e		 pop	 esi
  00128	5d		 pop	 ebp
  00129	5b		 pop	 ebx
  0012a	64 89 0d 00 00
	00 00		 mov	 DWORD PTR fs:__except_list, ecx
  00131	83 c4 14	 add	 esp, 20			; 00000014H
  00134	c2 08 00	 ret	 8
_TEXT	ENDS
;	COMDAT text$x
text$x	SEGMENT
$L191745:
  00000	8d 4d ec	 lea	 ecx, DWORD PTR _file$[ebp]
  00003	e9 00 00 00 00	 jmp	 ??1CFileIO@@UAE@XZ	; CFileIO::~CFileIO
$L191746:
  00008	8d 4d 04	 lea	 ecx, DWORD PTR _fileName$[ebp-4]
  0000b	e9 00 00 00 00	 jmp	 ??1?$CStringT@DV?$StrTraitMFC@DV?$ChTraitsCRT@D@ATL@@@@@ATL@@QAE@XZ ; ATL::CStringT<char,StrTraitMFC<char,ATL::ChTraitsCRT<char> > >::~CStringT<char,StrTraitMFC<char,ATL::ChTraitsCRT<char> > >
__ehhandler$?Load@CScanner@@QAEHPBDH@Z:
  00010	b8 00 00 00 00	 mov	 eax, OFFSET FLAT:$T191841
  00015	e9 00 00 00 00	 jmp	 ___CxxFrameHandler
text$x	ENDS
?Load@CScanner@@QAEHPBDH@Z ENDP				; CScanner::Load
PUBLIC	?Load_FileIO@CScanner@@QAEHPBDH@Z		; CScanner::Load_FileIO
;	COMDAT xdata$x
; File c:\documents and settings\test\mes documents\source\virtuos_v17\build\program\_common\file.h
xdata$x	SEGMENT
$T191950 DD	0ffffffffH
	DD	FLAT:$L191851
	DD	00H
	DD	FLAT:$L191852
$T191947 DD	019930520H
	DD	02H
	DD	FLAT:$T191950
	DD	2 DUP(00H)
	DD	2 DUP(00H)
; Function compile flags: /Ogty
; File c:\documents and settings\test\mes documents\source\virtuos_v17\build\program\_common\scanner.cpp
xdata$x	ENDS
;	COMDAT ?Load_FileIO@CScanner@@QAEHPBDH@Z
_TEXT	SEGMENT
_file$ = -20						; size = 8
__$EHRec$ = -12						; size = 12
_fileName$ = 8						; size = 4
_lpszFileName$ = 8					; size = 4
_bMultiByte$ = 12					; size = 4
?Load_FileIO@CScanner@@QAEHPBDH@Z PROC NEAR		; CScanner::Load_FileIO, COMDAT
; _this$ = ecx

; 521  : {

  00000	6a ff		 push	 -1
  00002	68 00 00 00 00	 push	 __ehhandler$?Load_FileIO@CScanner@@QAEHPBDH@Z
  00007	64 a1 00 00 00
	00		 mov	 eax, DWORD PTR fs:__except_list
  0000d	50		 push	 eax
  0000e	64 89 25 00 00
	00 00		 mov	 DWORD PTR fs:__except_list, esp
  00015	83 ec 08	 sub	 esp, 8
  00018	53		 push	 ebx
  00019	55		 push	 ebp
  0001a	56		 push	 esi

; 522  : 	CFileIO file;

  0001b	bd 00 00 00 00	 mov	 ebp, OFFSET FLAT:??_7CFileIO@@6B@
  00020	33 db		 xor	 ebx, ebx
  00022	57		 push	 edi
  00023	8b f9		 mov	 edi, ecx
  00025	89 6c 24 10	 mov	 DWORD PTR _file$[esp+36], ebp
  00029	89 5c 24 14	 mov	 DWORD PTR _file$[esp+40], ebx

; 523  : 	CString fileName = lpszFileName;

  0002d	8b 74 24 28	 mov	 esi, DWORD PTR _lpszFileName$[esp+32]
  00031	56		 push	 esi
  00032	8d 4c 24 2c	 lea	 ecx, DWORD PTR _fileName$[esp+36]
  00036	89 5c 24 24	 mov	 DWORD PTR __$EHRec$[esp+48], ebx
  0003a	e8 00 00 00 00	 call	 ??0?$CStringT@DV?$StrTraitMFC@DV?$ChTraitsCRT@D@ATL@@@@@ATL@@QAE@PBD@Z ; ATL::CStringT<char,StrTraitMFC<char,ATL::ChTraitsCRT<char> > >::CStringT<char,StrTraitMFC<char,ATL::ChTraitsCRT<char> > >

; 524  : 	fileName.MakeLower();

  0003f	8d 4c 24 28	 lea	 ecx, DWORD PTR _fileName$[esp+32]
  00043	c6 44 24 20 01	 mov	 BYTE PTR __$EHRec$[esp+44], 1
  00048	e8 00 00 00 00	 call	 ?MakeLower@?$CStringT@DV?$StrTraitMFC@DV?$ChTraitsCRT@D@ATL@@@@@ATL@@QAEAAV12@XZ ; ATL::CStringT<char,StrTraitMFC<char,ATL::ChTraitsCRT<char> > >::MakeLower

; 525  : 	if( !file.Open(lpszFileName, "rb" ) ) 

  0004d	68 00 00 00 00	 push	 OFFSET FLAT:??_C@_02JDPG@rb?$AA@
  00052	56		 push	 esi
  00053	8d 4c 24 18	 lea	 ecx, DWORD PTR _file$[esp+44]
  00057	e8 00 00 00 00	 call	 ?Open@CFileIO@@UAEHPBDPAD@Z ; CFileIO::Open
  0005c	85 c0		 test	 eax, eax
  0005e	75 4e		 jne	 SHORT $L189654

; 526  : 		return 0;

  00060	8b 44 24 28	 mov	 eax, DWORD PTR _fileName$[esp+32]
  00064	83 c0 f0	 add	 eax, -16		; fffffff0H
  00067	88 5c 24 20	 mov	 BYTE PTR __$EHRec$[esp+44], bl
  0006b	8d 48 0c	 lea	 ecx, DWORD PTR [eax+12]
  0006e	83 ca ff	 or	 edx, -1
  00071	f0 0f c1 11	 lock	  xadd	 DWORD PTR [ecx], edx
  00075	4a		 dec	 edx
  00076	85 d2		 test	 edx, edx
  00078	7f 08		 jg	 SHORT $L191879
  0007a	8b 08		 mov	 ecx, DWORD PTR [eax]
  0007c	8b 11		 mov	 edx, DWORD PTR [ecx]
  0007e	50		 push	 eax
  0007f	ff 52 04	 call	 DWORD PTR [edx+4]
$L191879:
  00082	8d 4c 24 10	 lea	 ecx, DWORD PTR _file$[esp+36]
  00086	c7 44 24 20 ff
	ff ff ff	 mov	 DWORD PTR __$EHRec$[esp+44], -1
  0008e	89 6c 24 10	 mov	 DWORD PTR _file$[esp+36], ebp
  00092	e8 00 00 00 00	 call	 ?Close@CFileIO@@UAEHXZ	; CFileIO::Close
  00097	5f		 pop	 edi
  00098	5e		 pop	 esi
  00099	5d		 pop	 ebp
  0009a	33 c0		 xor	 eax, eax
  0009c	5b		 pop	 ebx

; 529  : }

  0009d	8b 4c 24 08	 mov	 ecx, DWORD PTR __$EHRec$[esp+20]
  000a1	64 89 0d 00 00
	00 00		 mov	 DWORD PTR fs:__except_list, ecx
  000a8	83 c4 14	 add	 esp, 20			; 00000014H
  000ab	c2 08 00	 ret	 8
$L189654:

; 527  : 	m_strFileName = lpszFileName;

  000ae	3b f3		 cmp	 esi, ebx
  000b0	8d 8f 38 08 00
	00		 lea	 ecx, DWORD PTR [edi+2104]
  000b6	75 04		 jne	 SHORT $L191911
  000b8	33 c0		 xor	 eax, eax
  000ba	eb 13		 jmp	 SHORT $L191910
$L191911:
  000bc	8b c6		 mov	 eax, esi
  000be	8d 68 01	 lea	 ebp, DWORD PTR [eax+1]
$L191948:
  000c1	8a 10		 mov	 dl, BYTE PTR [eax]
  000c3	40		 inc	 eax
  000c4	3a d3		 cmp	 dl, bl
  000c6	75 f9		 jne	 SHORT $L191948
  000c8	2b c5		 sub	 eax, ebp
  000ca	bd 00 00 00 00	 mov	 ebp, OFFSET FLAT:??_7CFileIO@@6B@
$L191910:
  000cf	50		 push	 eax
  000d0	56		 push	 esi
  000d1	e8 00 00 00 00	 call	 ?SetString@?$CSimpleStringT@D$0A@@ATL@@QAEXPBDH@Z ; ATL::CSimpleStringT<char,0>::SetString

; 528  : 	return Read( &file, bMultiByte );

  000d6	8b 44 24 2c	 mov	 eax, DWORD PTR _bMultiByte$[esp+32]
  000da	50		 push	 eax
  000db	8d 4c 24 14	 lea	 ecx, DWORD PTR _file$[esp+40]
  000df	51		 push	 ecx
  000e0	8b cf		 mov	 ecx, edi
  000e2	e8 00 00 00 00	 call	 ?Read@CScanner@@IAEHPAVCFileIO@@H@Z ; CScanner::Read
  000e7	8b f0		 mov	 esi, eax
  000e9	8b 44 24 28	 mov	 eax, DWORD PTR _fileName$[esp+32]
  000ed	83 c0 f0	 add	 eax, -16		; fffffff0H
  000f0	88 5c 24 20	 mov	 BYTE PTR __$EHRec$[esp+44], bl
  000f4	8d 50 0c	 lea	 edx, DWORD PTR [eax+12]
  000f7	83 c9 ff	 or	 ecx, -1
  000fa	f0 0f c1 0a	 lock	  xadd	 DWORD PTR [edx], ecx
  000fe	49		 dec	 ecx
  000ff	85 c9		 test	 ecx, ecx
  00101	7f 08		 jg	 SHORT $L191939
  00103	8b 08		 mov	 ecx, DWORD PTR [eax]
  00105	8b 11		 mov	 edx, DWORD PTR [ecx]
  00107	50		 push	 eax
  00108	ff 52 04	 call	 DWORD PTR [edx+4]
$L191939:
  0010b	8d 4c 24 10	 lea	 ecx, DWORD PTR _file$[esp+36]
  0010f	c7 44 24 20 ff
	ff ff ff	 mov	 DWORD PTR __$EHRec$[esp+44], -1
  00117	89 6c 24 10	 mov	 DWORD PTR _file$[esp+36], ebp
  0011b	e8 00 00 00 00	 call	 ?Close@CFileIO@@UAEHXZ	; CFileIO::Close

; 529  : }

  00120	8b 4c 24 18	 mov	 ecx, DWORD PTR __$EHRec$[esp+36]
  00124	5f		 pop	 edi
  00125	8b c6		 mov	 eax, esi
  00127	5e		 pop	 esi
  00128	5d		 pop	 ebp
  00129	5b		 pop	 ebx
  0012a	64 89 0d 00 00
	00 00		 mov	 DWORD PTR fs:__except_list, ecx
  00131	83 c4 14	 add	 esp, 20			; 00000014H
  00134	c2 08 00	 ret	 8
_TEXT	ENDS
;	COMDAT text$x
text$x	SEGMENT
$L191851:
  00000	8d 4d ec	 lea	 ecx, DWORD PTR _file$[ebp]
  00003	e9 00 00 00 00	 jmp	 ??1CFileIO@@UAE@XZ	; CFileIO::~CFileIO
$L191852:
  00008	8d 4d 04	 lea	 ecx, DWORD PTR _fileName$[ebp-4]
  0000b	e9 00 00 00 00	 jmp	 ??1?$CStringT@DV?$StrTraitMFC@DV?$ChTraitsCRT@D@ATL@@@@@ATL@@QAE@XZ ; ATL::CStringT<char,StrTraitMFC<char,ATL::ChTraitsCRT<char> > >::~CStringT<char,StrTraitMFC<char,ATL::ChTraitsCRT<char> > >
__ehhandler$?Load_FileIO@CScanner@@QAEHPBDH@Z:
  00010	b8 00 00 00 00	 mov	 eax, OFFSET FLAT:$T191947
  00015	e9 00 00 00 00	 jmp	 ___CxxFrameHandler
text$x	ENDS
?Load_FileIO@CScanner@@QAEHPBDH@Z ENDP			; CScanner::Load_FileIO
END
