; Listing generated by Microsoft (R) Optimizing Compiler Version 13.10.6030 

	TITLE	.\SecretRoomDBMng.cpp
	.386P
include listing.inc
if @Version gt 510
.model FLAT
else
_TEXT	SEGMENT PARA USE32 PUBLIC 'CODE'
_TEXT	ENDS
_DATA	SEGMENT DWORD USE32 PUBLIC 'DATA'
_DATA	ENDS
CONST	SEGMENT DWORD USE32 PUBLIC 'CONST'
CONST	ENDS
_BSS	SEGMENT DWORD USE32 PUBLIC 'BSS'
_BSS	ENDS
$$SYMBOLS	SEGMENT BYTE USE32 'DEBSYM'
$$SYMBOLS	ENDS
_TLS	SEGMENT DWORD USE32 PUBLIC 'TLS'
_TLS	ENDS
;	COMDAT ??_C@_0BC@MOGJFHKK@tr1?3?3bad_weak_ptr?$AA@
CONST	SEGMENT DWORD USE32 PUBLIC 'CONST'
CONST	ENDS
;	COMDAT ??_C@_0BD@IOHNFIBA@SetLOD?5?3?5lv?$DN?$CFd?0?5?$CFs?$AA@
CONST	SEGMENT DWORD USE32 PUBLIC 'CONST'
CONST	ENDS
;	COMDAT ??_C@_02PCIJFNDE@?$AN?6?$AA@
CONST	SEGMENT DWORD USE32 PUBLIC 'CONST'
CONST	ENDS
;	COMDAT ??_C@_01DNKMNLPK@?$HM?$AA@
CONST	SEGMENT DWORD USE32 PUBLIC 'CONST'
CONST	ENDS
;	COMDAT ??_C@_0DG@LLEPPCHM@CSecretRoomDBMng?5?9?5m_SRDbControl@
CONST	SEGMENT DWORD USE32 PUBLIC 'CONST'
CONST	ENDS
;	COMDAT ??_C@_0DJ@KPDDDLOH@SECRET_ROOM_STR?5?8S1?8?0?5?8?$CF02d?8?0?50?0@
CONST	SEGMENT DWORD USE32 PUBLIC 'CONST'
CONST	ENDS
;	COMDAT ??_C@_0BG@NIIAKECF@?4?2SecretRoomDBMng?4cpp?$AA@
CONST	SEGMENT DWORD USE32 PUBLIC 'CONST'
CONST	ENDS
;	COMDAT ??_C@_06DJGFEEME@nTimes?$AA@
CONST	SEGMENT DWORD USE32 PUBLIC 'CONST'
CONST	ENDS
;	COMDAT ??_C@_0DK@PIHLKIG@SECRET_ROOM_STR?5?8S2?8?0?5?8?$CF02d?8?0?5?$CFd@
CONST	SEGMENT DWORD USE32 PUBLIC 'CONST'
CONST	ENDS
;	COMDAT ??_C@_0L@LBNAINBN@nContinent?$AA@
CONST	SEGMENT DWORD USE32 PUBLIC 'CONST'
CONST	ENDS
;	COMDAT ??_C@_09MHDEIN@m_idGuild?$AA@
CONST	SEGMENT DWORD USE32 PUBLIC 'CONST'
CONST	ENDS
;	COMDAT ??_C@_06BIHJGOPK@nPenya?$AA@
CONST	SEGMENT DWORD USE32 PUBLIC 'CONST'
CONST	ENDS
;	COMDAT ??_C@_0DJ@DCPFIIMD@SECRET_ROOM_MEMBER_STR?5?8S2?8?0?5?8?$CF0@
CONST	SEGMENT DWORD USE32 PUBLIC 'CONST'
CONST	ENDS
;	COMDAT ??_C@_0L@FONFFEJF@m_idPlayer?$AA@
CONST	SEGMENT DWORD USE32 PUBLIC 'CONST'
CONST	ENDS
;	COMDAT ??_C@_0DP@BOHJKIPD@SECRET_ROOM_STR?5?8I1?8?0?5?8?$CF02d?8?0?5?$CFd@
CONST	SEGMENT DWORD USE32 PUBLIC 'CONST'
CONST	ENDS
;	COMDAT ??_C@_0ED@ODGBHELB@SECRET_ROOM_STR?5?8U2?8?0?5?8?$CF02d?8?0?5?$CFd@
CONST	SEGMENT DWORD USE32 PUBLIC 'CONST'
CONST	ENDS
;	COMDAT ??_C@_0EA@IECOBPGC@SECRET_ROOM_STR?5?8U1?8?0?5?8?$CF02d?8?0?5?$CFd@
CONST	SEGMENT DWORD USE32 PUBLIC 'CONST'
CONST	ENDS
;	COMDAT ??_C@_0DJ@KCPMHBBH@SECRET_ROOM_MEMBER_STR?5?8D1?8?0?5?8?$CF0@
CONST	SEGMENT DWORD USE32 PUBLIC 'CONST'
CONST	ENDS
;	COMDAT ??_C@_0DM@DPPKLHMA@SECRET_ROOM_MEMBER_STR?5?8I1?8?0?5?8?$CF0@
CONST	SEGMENT DWORD USE32 PUBLIC 'CONST'
CONST	ENDS
text$yd	SEGMENT PARA USE32 PUBLIC 'CODE'
text$yd	ENDS
xdata$x	SEGMENT DWORD USE32 PUBLIC 'CONST'
xdata$x	ENDS
;	COMDAT ?GetQueryObject@CDbController@@QAEPAVCQuery@@XZ
_TEXT	SEGMENT PARA USE32 PUBLIC 'CODE'
_TEXT	ENDS
;	COMDAT ?OnTimer@CDbController@@UAEXXZ
_TEXT	SEGMENT PARA USE32 PUBLIC 'CODE'
_TEXT	ENDS
;	COMDAT ?what@bad_weak_ptr@boost@@UBEPBDXZ
_TEXT	SEGMENT PARA USE32 PUBLIC 'CODE'
_TEXT	ENDS
;	COMDAT ??1sp_counted_base@detail@boost@@UAE@XZ
_TEXT	SEGMENT PARA USE32 PUBLIC 'CODE'
_TEXT	ENDS
;	COMDAT ?destroy@sp_counted_base@detail@boost@@UAEXXZ
_TEXT	SEGMENT PARA USE32 PUBLIC 'CODE'
_TEXT	ENDS
;	COMDAT ?add_ref_copy@sp_counted_base@detail@boost@@QAEXXZ
_TEXT	SEGMENT PARA USE32 PUBLIC 'CODE'
_TEXT	ENDS
;	COMDAT ?add_ref_lock@sp_counted_base@detail@boost@@QAE_NXZ
_TEXT	SEGMENT PARA USE32 PUBLIC 'CODE'
_TEXT	ENDS
;	COMDAT ?release@sp_counted_base@detail@boost@@QAEXXZ
_TEXT	SEGMENT PARA USE32 PUBLIC 'CODE'
_TEXT	ENDS
;	COMDAT ?weak_add_ref@sp_counted_base@detail@boost@@QAEXXZ
_TEXT	SEGMENT PARA USE32 PUBLIC 'CODE'
_TEXT	ENDS
;	COMDAT ?weak_release@sp_counted_base@detail@boost@@QAEXXZ
_TEXT	SEGMENT PARA USE32 PUBLIC 'CODE'
_TEXT	ENDS
;	COMDAT ?use_count@sp_counted_base@detail@boost@@QBEJXZ
_TEXT	SEGMENT PARA USE32 PUBLIC 'CODE'
_TEXT	ENDS
;	COMDAT ??_Gsp_counted_base@detail@boost@@UAEPAXI@Z
_TEXT	SEGMENT PARA USE32 PUBLIC 'CODE'
_TEXT	ENDS
;	COMDAT ?use_count@shared_count@detail@boost@@QBEJXZ
_TEXT	SEGMENT PARA USE32 PUBLIC 'CODE'
_TEXT	ENDS
;	COMDAT ??0bad_weak_ptr@boost@@QAE@XZ
_TEXT	SEGMENT PARA USE32 PUBLIC 'CODE'
_TEXT	ENDS
;	COMDAT ??1bad_weak_ptr@boost@@UAE@XZ
_TEXT	SEGMENT PARA USE32 PUBLIC 'CODE'
_TEXT	ENDS
;	COMDAT ??_Gbad_weak_ptr@boost@@UAEPAXI@Z
_TEXT	SEGMENT PARA USE32 PUBLIC 'CODE'
_TEXT	ENDS
;	COMDAT ?GetCooltime@CLordSkillComponent@@QAEHXZ
_TEXT	SEGMENT PARA USE32 PUBLIC 'CODE'
_TEXT	ENDS
;	COMDAT ?SetTick@CLordSkillComponent@@QAEXH@Z
_TEXT	SEGMENT PARA USE32 PUBLIC 'CODE'
_TEXT	ENDS
;	COMDAT ??1CLordSkillComponentExecutable@@UAE@XZ
_TEXT	SEGMENT PARA USE32 PUBLIC 'CODE'
_TEXT	ENDS
;	COMDAT ?Use@CLordSkillComponentExecutable@@IAEXXZ
_TEXT	SEGMENT PARA USE32 PUBLIC 'CODE'
_TEXT	ENDS
;	COMDAT ?Execute@CLordSkillComponentExecutable@@UAEXKKPAX@Z
_TEXT	SEGMENT PARA USE32 PUBLIC 'CODE'
_TEXT	ENDS
;	COMDAT ??_GCLordSkillComponentExecutable@@UAEPAXI@Z
_TEXT	SEGMENT PARA USE32 PUBLIC 'CODE'
_TEXT	ENDS
;	COMDAT ?GetDeposit@CCandidate@@QBE_JXZ
_TEXT	SEGMENT PARA USE32 PUBLIC 'CODE'
_TEXT	ENDS
;	COMDAT ?GetVote@CCandidate@@QAEHXZ
_TEXT	SEGMENT PARA USE32 PUBLIC 'CODE'
_TEXT	ENDS
;	COMDAT ?GetCreate@CCandidate@@QAEJXZ
_TEXT	SEGMENT PARA USE32 PUBLIC 'CODE'
_TEXT	ENDS
;	COMDAT ??0CSecretRoomDBMng@@QAE@XZ
_TEXT	SEGMENT PARA USE32 PUBLIC 'CODE'
_TEXT	ENDS
;	COMDAT ??1CSecretRoomDBMng@@QAE@XZ
_TEXT	SEGMENT PARA USE32 PUBLIC 'CODE'
_TEXT	ENDS
;	COMDAT ?GetInstance@CSecretRoomDBMng@@SAPAV1@XZ
_TEXT	SEGMENT PARA USE32 PUBLIC 'CODE'
_TEXT	ENDS
;	COMDAT _$E2
text$yd	SEGMENT PARA USE32 PUBLIC 'CODE'
text$yd	ENDS
;	COMDAT ?PostRequest@CSecretRoomDBMng@@QAEHHPAEHK@Z
_TEXT	SEGMENT PARA USE32 PUBLIC 'CODE'
_TEXT	ENDS
;	COMDAT ??0CSecretRoomDbController@@QAE@XZ
_TEXT	SEGMENT PARA USE32 PUBLIC 'CODE'
_TEXT	ENDS
;	COMDAT ??_GCSecretRoomDbController@@UAEPAXI@Z
_TEXT	SEGMENT PARA USE32 PUBLIC 'CODE'
_TEXT	ENDS
;	COMDAT ??1CSecretRoomDbController@@UAE@XZ
_TEXT	SEGMENT PARA USE32 PUBLIC 'CODE'
_TEXT	ENDS
;	COMDAT ?Handler@CSecretRoomDbController@@UAEXPAUtagDB_OVERLAPPED_PLUS@@K@Z
_TEXT	SEGMENT PARA USE32 PUBLIC 'CODE'
_TEXT	ENDS
;	COMDAT ?LoadSecretRoom@CSecretRoomDbController@@AAEXK@Z
_TEXT	SEGMENT PARA USE32 PUBLIC 'CODE'
_TEXT	ENDS
;	COMDAT ?InsertTenderToDB@CSecretRoomDbController@@AAEXEKH@Z
_TEXT	SEGMENT PARA USE32 PUBLIC 'CODE'
_TEXT	ENDS
;	COMDAT ?UpdateTenderToDB@CSecretRoomDbController@@AAEXEKHDKHH@Z
_TEXT	SEGMENT PARA USE32 PUBLIC 'CODE'
_TEXT	ENDS
;	COMDAT ?InsertLineUpMemberToDB@CSecretRoomDbController@@AAEXEKAAV?$vector@KV?$allocator@K@std@@@std@@@Z
_TEXT	SEGMENT PARA USE32 PUBLIC 'CODE'
_TEXT	ENDS
;	COMDAT ?Replace@?$CStringT@DV?$StrTraitMFC@DV?$ChTraitsCRT@D@ATL@@@@@ATL@@QAEHPBD0@Z
_TEXT	SEGMENT PARA USE32 PUBLIC 'CODE'
_TEXT	ENDS
;	COMDAT ?compare@?$basic_string@DU?$char_traits@D@std@@V?$allocator@D@2@@std@@QBEHABV12@@Z
_TEXT	SEGMENT PARA USE32 PUBLIC 'CODE'
_TEXT	ENDS
;	COMDAT ?size@?$vector@KV?$allocator@K@std@@@std@@QBEIXZ
_TEXT	SEGMENT PARA USE32 PUBLIC 'CODE'
_TEXT	ENDS
;	COMDAT ??A?$vector@KV?$allocator@K@std@@@std@@QAEAAKI@Z
_TEXT	SEGMENT PARA USE32 PUBLIC 'CODE'
_TEXT	ENDS
;	COMDAT ?push_back@?$vector@KV?$allocator@K@std@@@std@@QAEXABK@Z
_TEXT	SEGMENT PARA USE32 PUBLIC 'CODE'
_TEXT	ENDS
;	COMDAT ??R?$less@PAVsp_counted_base@detail@boost@@@std@@QBE_NABQAVsp_counted_base@detail@boost@@0@Z
_TEXT	SEGMENT PARA USE32 PUBLIC 'CODE'
_TEXT	ENDS
;	COMDAT ?size@?$vector@PAVCLordSkillComponentExecutable@@V?$allocator@PAVCLordSkillComponentExecutable@@@std@@@std@@QBEIXZ
_TEXT	SEGMENT PARA USE32 PUBLIC 'CODE'
_TEXT	ENDS
;	COMDAT ?size@?$vector@V?$shared_ptr@VCCandidate@@@boost@@V?$allocator@V?$shared_ptr@VCCandidate@@@boost@@@std@@@std@@QBEIXZ
_TEXT	SEGMENT PARA USE32 PUBLIC 'CODE'
_TEXT	ENDS
;	COMDAT ??0?$vector@MV?$allocator@M@std@@@std@@QAE@XZ
_TEXT	SEGMENT PARA USE32 PUBLIC 'CODE'
_TEXT	ENDS
;	COMDAT ??1?$vector@MV?$allocator@M@std@@@std@@QAE@XZ
_TEXT	SEGMENT PARA USE32 PUBLIC 'CODE'
_TEXT	ENDS
;	COMDAT ??0?$vector@HV?$allocator@H@std@@@std@@QAE@XZ
_TEXT	SEGMENT PARA USE32 PUBLIC 'CODE'
_TEXT	ENDS
;	COMDAT ??1?$vector@HV?$allocator@H@std@@@std@@QAE@XZ
_TEXT	SEGMENT PARA USE32 PUBLIC 'CODE'
_TEXT	ENDS
;	COMDAT ??A?$vector@HV?$allocator@H@std@@@std@@QAEAAHI@Z
_TEXT	SEGMENT PARA USE32 PUBLIC 'CODE'
_TEXT	ENDS
;	COMDAT ?push_back@?$vector@HV?$allocator@H@std@@@std@@QAEXABH@Z
_TEXT	SEGMENT PARA USE32 PUBLIC 'CODE'
_TEXT	ENDS
;	COMDAT ??C?$shared_ptr@VCCandidate@@@boost@@QBEPAVCCandidate@@XZ
_TEXT	SEGMENT PARA USE32 PUBLIC 'CODE'
_TEXT	ENDS
;	COMDAT ?size@?$vector@PAVCLEComponent@@V?$allocator@PAVCLEComponent@@@std@@@std@@QBEIXZ
_TEXT	SEGMENT PARA USE32 PUBLIC 'CODE'
_TEXT	ENDS
;	COMDAT ?size@?$vector@U?$pair@M_J@std@@V?$allocator@U?$pair@M_J@std@@@2@@std@@QBEIXZ
_TEXT	SEGMENT PARA USE32 PUBLIC 'CODE'
_TEXT	ENDS
;	COMDAT ?size@?$_Tree@V?$_Tmap_traits@KPAU_PlayerData@@U?$less@K@std@@V?$allocator@U?$pair@$$CBKPAU_PlayerData@@@std@@@3@$0A@@std@@@std@@QBEIXZ
_TEXT	SEGMENT PARA USE32 PUBLIC 'CODE'
_TEXT	ENDS
;	COMDAT ?end@?$_Tree@V?$_Tmap_traits@KP8CDPTrans@@AEXAAVCAr@@KKKPAEK@ZU?$less@K@std@@V?$allocator@U?$pair@$$CBKP8CDPTrans@@AEXAAVCAr@@KKKPAEK@Z@std@@@4@$0A@@std@@@std@@QAE?AViterator@12@XZ
_TEXT	SEGMENT PARA USE32 PUBLIC 'CODE'
_TEXT	ENDS
;	COMDAT ?find@?$_Tree@V?$_Tmap_traits@KP8CDPTrans@@AEXAAVCAr@@KKKPAEK@ZU?$less@K@std@@V?$allocator@U?$pair@$$CBKP8CDPTrans@@AEXAAVCAr@@KKKPAEK@Z@std@@@4@$0A@@std@@@std@@QAE?AViterator@12@ABK@Z
_TEXT	SEGMENT PARA USE32 PUBLIC 'CODE'
_TEXT	ENDS
;	COMDAT ??Citerator@?$_Tree@V?$_Tmap_traits@KP8CDPTrans@@AEXAAVCAr@@KKKPAEK@ZU?$less@K@std@@V?$allocator@U?$pair@$$CBKP8CDPTrans@@AEXAAVCAr@@KKKPAEK@Z@std@@@4@$0A@@std@@@std@@QBEPAU?$pair@$$CBKP8CDPTrans@@AEXAAVCAr@@KKKPAEK@Z@2@XZ
_TEXT	SEGMENT PARA USE32 PUBLIC 'CODE'
_TEXT	ENDS
;	COMDAT ??9const_iterator@?$_Tree@V?$_Tmap_traits@KP8CDPTrans@@AEXAAVCAr@@KKKPAEK@ZU?$less@K@std@@V?$allocator@U?$pair@$$CBKP8CDPTrans@@AEXAAVCAr@@KKKPAEK@Z@std@@@4@$0A@@std@@@std@@QBE_NABV012@@Z
_TEXT	SEGMENT PARA USE32 PUBLIC 'CODE'
_TEXT	ENDS
;	COMDAT ??0?$vector@EV?$allocator@E@std@@@std@@QAE@XZ
_TEXT	SEGMENT PARA USE32 PUBLIC 'CODE'
_TEXT	ENDS
;	COMDAT ??1?$vector@EV?$allocator@E@std@@@std@@QAE@XZ
_TEXT	SEGMENT PARA USE32 PUBLIC 'CODE'
_TEXT	ENDS
;	COMDAT ?size@?$vector@EV?$allocator@E@std@@@std@@QBEIXZ
_TEXT	SEGMENT PARA USE32 PUBLIC 'CODE'
_TEXT	ENDS
;	COMDAT ??A?$vector@EV?$allocator@E@std@@@std@@QAEAAEI@Z
_TEXT	SEGMENT PARA USE32 PUBLIC 'CODE'
_TEXT	ENDS
;	COMDAT ?push_back@?$vector@EV?$allocator@E@std@@@std@@QAEXABE@Z
_TEXT	SEGMENT PARA USE32 PUBLIC 'CODE'
_TEXT	ENDS
;	COMDAT ?StringFindString@?$ChTraitsCRT@D@ATL@@SAPADPADPBD@Z
_TEXT	SEGMENT PARA USE32 PUBLIC 'CODE'
_TEXT	ENDS
;	COMDAT ?SafeStringLen@?$ChTraitsCRT@D@ATL@@SAHPBD@Z
_TEXT	SEGMENT PARA USE32 PUBLIC 'CODE'
_TEXT	ENDS
;	COMDAT ?compare@?$basic_string@DU?$char_traits@D@std@@V?$allocator@D@2@@std@@QBEHIIPBDI@Z
_TEXT	SEGMENT PARA USE32 PUBLIC 'CODE'
_TEXT	ENDS
;	COMDAT ??0?$allocator@E@std@@QAE@XZ
_TEXT	SEGMENT PARA USE32 PUBLIC 'CODE'
_TEXT	ENDS
;	COMDAT ?capacity@?$vector@KV?$allocator@K@std@@@std@@QBEIXZ
_TEXT	SEGMENT PARA USE32 PUBLIC 'CODE'
_TEXT	ENDS
;	COMDAT ?begin@?$vector@KV?$allocator@K@std@@@std@@QAE?AViterator@12@XZ
_TEXT	SEGMENT PARA USE32 PUBLIC 'CODE'
_TEXT	ENDS
;	COMDAT ?end@?$vector@KV?$allocator@K@std@@@std@@QAE?AViterator@12@XZ
_TEXT	SEGMENT PARA USE32 PUBLIC 'CODE'
_TEXT	ENDS
;	COMDAT ?insert@?$vector@KV?$allocator@K@std@@@std@@QAE?AViterator@12@V312@ABK@Z
_TEXT	SEGMENT PARA USE32 PUBLIC 'CODE'
_TEXT	ENDS
;	COMDAT ?_Ufill@?$vector@KV?$allocator@K@std@@@std@@IAEPAKPAKIABK@Z
_TEXT	SEGMENT PARA USE32 PUBLIC 'CODE'
_TEXT	ENDS
;	COMDAT ??0?$allocator@H@std@@QAE@XZ
_TEXT	SEGMENT PARA USE32 PUBLIC 'CODE'
_TEXT	ENDS
;	COMDAT ?_Buy@?$vector@MV?$allocator@M@std@@@std@@IAE_NI@Z
_TEXT	SEGMENT PARA USE32 PUBLIC 'CODE'
_TEXT	ENDS
;	COMDAT ?_Tidy@?$vector@MV?$allocator@M@std@@@std@@IAEXXZ
_TEXT	SEGMENT PARA USE32 PUBLIC 'CODE'
_TEXT	ENDS
;	COMDAT ??0?$_Vector_val@MV?$allocator@M@std@@@std@@IAE@V?$allocator@M@1@@Z
_TEXT	SEGMENT PARA USE32 PUBLIC 'CODE'
_TEXT	ENDS
;	COMDAT ??0?$allocator@M@std@@QAE@XZ
_TEXT	SEGMENT PARA USE32 PUBLIC 'CODE'
_TEXT	ENDS
;	COMDAT ?capacity@?$vector@HV?$allocator@H@std@@@std@@QBEIXZ
_TEXT	SEGMENT PARA USE32 PUBLIC 'CODE'
_TEXT	ENDS
;	COMDAT ?begin@?$vector@HV?$allocator@H@std@@@std@@QAE?AViterator@12@XZ
_TEXT	SEGMENT PARA USE32 PUBLIC 'CODE'
_TEXT	ENDS
;	COMDAT ?end@?$vector@HV?$allocator@H@std@@@std@@QAE?AViterator@12@XZ
_TEXT	SEGMENT PARA USE32 PUBLIC 'CODE'
_TEXT	ENDS
;	COMDAT ?size@?$vector@HV?$allocator@H@std@@@std@@QBEIXZ
_TEXT	SEGMENT PARA USE32 PUBLIC 'CODE'
_TEXT	ENDS
;	COMDAT ?insert@?$vector@HV?$allocator@H@std@@@std@@QAE?AViterator@12@V312@ABH@Z
_TEXT	SEGMENT PARA USE32 PUBLIC 'CODE'
_TEXT	ENDS
;	COMDAT ?_Buy@?$vector@HV?$allocator@H@std@@@std@@IAE_NI@Z
_TEXT	SEGMENT PARA USE32 PUBLIC 'CODE'
_TEXT	ENDS
;	COMDAT ?_Tidy@?$vector@HV?$allocator@H@std@@@std@@IAEXXZ
_TEXT	SEGMENT PARA USE32 PUBLIC 'CODE'
_TEXT	ENDS
;	COMDAT ?_Ufill@?$vector@HV?$allocator@H@std@@@std@@IAEPAHPAHIABH@Z
_TEXT	SEGMENT PARA USE32 PUBLIC 'CODE'
_TEXT	ENDS
;	COMDAT ??0?$_Vector_val@HV?$allocator@H@std@@@std@@IAE@V?$allocator@H@1@@Z
_TEXT	SEGMENT PARA USE32 PUBLIC 'CODE'
_TEXT	ENDS
;	COMDAT ?_Key@?$_Tree@V?$_Tmap_traits@KP8CDPTrans@@AEXAAVCAr@@KKKPAEK@ZU?$less@K@std@@V?$allocator@U?$pair@$$CBKP8CDPTrans@@AEXAAVCAr@@KKKPAEK@Z@std@@@4@$0A@@std@@@std@@KAABKPAU_Node@?$_Tree_nod@V?$_Tmap_traits@KP8CDPTrans@@AEXAAVCAr@@KKKPAEK@ZU?$less@K@std@@V?$allocator@U?$pair@$$CBKP8CDPTrans@@AEXAAVCAr@@KKKPAEK@Z@std@@@4@$0A@@std@@@2@@Z
_TEXT	SEGMENT PARA USE32 PUBLIC 'CODE'
_TEXT	ENDS
;	COMDAT ?lower_bound@?$_Tree@V?$_Tmap_traits@KP8CDPTrans@@AEXAAVCAr@@KKKPAEK@ZU?$less@K@std@@V?$allocator@U?$pair@$$CBKP8CDPTrans@@AEXAAVCAr@@KKKPAEK@Z@std@@@4@$0A@@std@@@std@@QAE?AViterator@12@ABK@Z
_TEXT	SEGMENT PARA USE32 PUBLIC 'CODE'
_TEXT	ENDS
;	COMDAT ??0iterator@?$_Tree@V?$_Tmap_traits@KP8CDPTrans@@AEXAAVCAr@@KKKPAEK@ZU?$less@K@std@@V?$allocator@U?$pair@$$CBKP8CDPTrans@@AEXAAVCAr@@KKKPAEK@Z@std@@@4@$0A@@std@@@std@@QAE@PAU_Node@?$_Tree_nod@V?$_Tmap_traits@KP8CDPTrans@@AEXAAVCAr@@KKKPAEK@ZU?$less@K@std@@V?$allocator@U?$pair@$$CBKP8CDPTrans@@AEXAAVCAr@@KKKPAEK@Z@std@@@4@$0A@@std@@@2@@Z
_TEXT	SEGMENT PARA USE32 PUBLIC 'CODE'
_TEXT	ENDS
;	COMDAT ??Diterator@?$_Tree@V?$_Tmap_traits@KP8CDPTrans@@AEXAAVCAr@@KKKPAEK@ZU?$less@K@std@@V?$allocator@U?$pair@$$CBKP8CDPTrans@@AEXAAVCAr@@KKKPAEK@Z@std@@@4@$0A@@std@@@std@@QBEAAU?$pair@$$CBKP8CDPTrans@@AEXAAVCAr@@KKKPAEK@Z@2@XZ
_TEXT	SEGMENT PARA USE32 PUBLIC 'CODE'
_TEXT	ENDS
;	COMDAT ??8const_iterator@?$_Tree@V?$_Tmap_traits@KP8CDPTrans@@AEXAAVCAr@@KKKPAEK@ZU?$less@K@std@@V?$allocator@U?$pair@$$CBKP8CDPTrans@@AEXAAVCAr@@KKKPAEK@Z@std@@@4@$0A@@std@@@std@@QBE_NABV012@@Z
_TEXT	SEGMENT PARA USE32 PUBLIC 'CODE'
_TEXT	ENDS
;	COMDAT ?_Mynode@const_iterator@?$_Tree@V?$_Tmap_traits@KP8CDPTrans@@AEXAAVCAr@@KKKPAEK@ZU?$less@K@std@@V?$allocator@U?$pair@$$CBKP8CDPTrans@@AEXAAVCAr@@KKKPAEK@Z@std@@@4@$0A@@std@@@std@@QBEPAU_Node@?$_Tree_nod@V?$_Tmap_traits@KP8CDPTrans@@AEXAAVCAr@@KKKPAEK@ZU?$less@K@std@@V?$allocator@U?$pair@$$CBKP8CDPTrans@@AEXAAVCAr@@KKKPAEK@Z@std@@@4@$0A@@std@@@3@XZ
_TEXT	SEGMENT PARA USE32 PUBLIC 'CODE'
_TEXT	ENDS
;	COMDAT ?capacity@?$vector@EV?$allocator@E@std@@@std@@QBEIXZ
_TEXT	SEGMENT PARA USE32 PUBLIC 'CODE'
_TEXT	ENDS
;	COMDAT ?begin@?$vector@EV?$allocator@E@std@@@std@@QAE?AViterator@12@XZ
_TEXT	SEGMENT PARA USE32 PUBLIC 'CODE'
_TEXT	ENDS
;	COMDAT ?end@?$vector@EV?$allocator@E@std@@@std@@QAE?AViterator@12@XZ
_TEXT	SEGMENT PARA USE32 PUBLIC 'CODE'
_TEXT	ENDS
;	COMDAT ?insert@?$vector@EV?$allocator@E@std@@@std@@QAE?AViterator@12@V312@ABE@Z
_TEXT	SEGMENT PARA USE32 PUBLIC 'CODE'
_TEXT	ENDS
;	COMDAT ?_Buy@?$vector@EV?$allocator@E@std@@@std@@IAE_NI@Z
_TEXT	SEGMENT PARA USE32 PUBLIC 'CODE'
_TEXT	ENDS
;	COMDAT ?_Tidy@?$vector@EV?$allocator@E@std@@@std@@IAEXXZ
_TEXT	SEGMENT PARA USE32 PUBLIC 'CODE'
_TEXT	ENDS
;	COMDAT ?_Ufill@?$vector@EV?$allocator@E@std@@@std@@IAEPAEPAEIABE@Z
_TEXT	SEGMENT PARA USE32 PUBLIC 'CODE'
_TEXT	ENDS
;	COMDAT ??0?$_Vector_val@EV?$allocator@E@std@@@std@@IAE@V?$allocator@E@1@@Z
_TEXT	SEGMENT PARA USE32 PUBLIC 'CODE'
_TEXT	ENDS
;	COMDAT ??Diterator@?$vector@KV?$allocator@K@std@@@std@@QBEAAKXZ
_TEXT	SEGMENT PARA USE32 PUBLIC 'CODE'
_TEXT	ENDS
;	COMDAT ??Hiterator@?$vector@KV?$allocator@K@std@@@std@@QBE?AV012@H@Z
_TEXT	SEGMENT PARA USE32 PUBLIC 'CODE'
_TEXT	ENDS
;	COMDAT ??Diterator@?$vector@HV?$allocator@H@std@@@std@@QBEAAHXZ
_TEXT	SEGMENT PARA USE32 PUBLIC 'CODE'
_TEXT	ENDS
;	COMDAT ??Hiterator@?$vector@HV?$allocator@H@std@@@std@@QBE?AV012@H@Z
_TEXT	SEGMENT PARA USE32 PUBLIC 'CODE'
_TEXT	ENDS
;	COMDAT ??Diterator@?$vector@EV?$allocator@E@std@@@std@@QBEAAEXZ
_TEXT	SEGMENT PARA USE32 PUBLIC 'CODE'
_TEXT	ENDS
;	COMDAT ??Hiterator@?$vector@EV?$allocator@E@std@@@std@@QBE?AV012@H@Z
_TEXT	SEGMENT PARA USE32 PUBLIC 'CODE'
_TEXT	ENDS
;	COMDAT ??0?$allocator@E@std@@QAE@ABV01@@Z
_TEXT	SEGMENT PARA USE32 PUBLIC 'CODE'
_TEXT	ENDS
;	COMDAT ?deallocate@?$allocator@E@std@@QAEXPAEI@Z
_TEXT	SEGMENT PARA USE32 PUBLIC 'CODE'
_TEXT	ENDS
;	COMDAT ?allocate@?$allocator@E@std@@QAEPAEI@Z
_TEXT	SEGMENT PARA USE32 PUBLIC 'CODE'
_TEXT	ENDS
;	COMDAT ?_Insert_n@?$vector@KV?$allocator@K@std@@@std@@IAEXViterator@12@IABK@Z
_TEXT	SEGMENT PARA USE32 PUBLIC 'CODE'
_TEXT	ENDS
;	COMDAT ??0?$allocator@H@std@@QAE@ABV01@@Z
_TEXT	SEGMENT PARA USE32 PUBLIC 'CODE'
_TEXT	ENDS
;	COMDAT ?deallocate@?$allocator@H@std@@QAEXPAHI@Z
_TEXT	SEGMENT PARA USE32 PUBLIC 'CODE'
_TEXT	ENDS
;	COMDAT ?allocate@?$allocator@H@std@@QAEPAHI@Z
_TEXT	SEGMENT PARA USE32 PUBLIC 'CODE'
_TEXT	ENDS
;	COMDAT ?max_size@?$vector@MV?$allocator@M@std@@@std@@QBEIXZ
_TEXT	SEGMENT PARA USE32 PUBLIC 'CODE'
_TEXT	ENDS
;	COMDAT ?_Destroy@?$vector@MV?$allocator@M@std@@@std@@IAEXPAM0@Z
_TEXT	SEGMENT PARA USE32 PUBLIC 'CODE'
_TEXT	ENDS
;	COMDAT ?_Xlen@?$vector@MV?$allocator@M@std@@@std@@IBEXXZ
_TEXT	SEGMENT PARA USE32 PUBLIC 'CODE'
_TEXT	ENDS
;	COMDAT ??0?$allocator@M@std@@QAE@ABV01@@Z
_TEXT	SEGMENT PARA USE32 PUBLIC 'CODE'
_TEXT	ENDS
;	COMDAT ?deallocate@?$allocator@M@std@@QAEXPAMI@Z
_TEXT	SEGMENT PARA USE32 PUBLIC 'CODE'
_TEXT	ENDS
;	COMDAT ?allocate@?$allocator@M@std@@QAEPAMI@Z
_TEXT	SEGMENT PARA USE32 PUBLIC 'CODE'
_TEXT	ENDS
;	COMDAT ?max_size@?$vector@HV?$allocator@H@std@@@std@@QBEIXZ
_TEXT	SEGMENT PARA USE32 PUBLIC 'CODE'
_TEXT	ENDS
;	COMDAT ?_Destroy@?$vector@HV?$allocator@H@std@@@std@@IAEXPAH0@Z
_TEXT	SEGMENT PARA USE32 PUBLIC 'CODE'
_TEXT	ENDS
;	COMDAT ?_Insert_n@?$vector@HV?$allocator@H@std@@@std@@IAEXViterator@12@IABH@Z
_TEXT	SEGMENT PARA USE32 PUBLIC 'CODE'
_TEXT	ENDS
;	COMDAT ?_Xlen@?$vector@HV?$allocator@H@std@@@std@@IBEXXZ
_TEXT	SEGMENT PARA USE32 PUBLIC 'CODE'
_TEXT	ENDS
;	COMDAT ?_Myval@?$_Tree@V?$_Tmap_traits@KP8CDPTrans@@AEXAAVCAr@@KKKPAEK@ZU?$less@K@std@@V?$allocator@U?$pair@$$CBKP8CDPTrans@@AEXAAVCAr@@KKKPAEK@Z@std@@@4@$0A@@std@@@std@@KAAAU?$pair@$$CBKP8CDPTrans@@AEXAAVCAr@@KKKPAEK@Z@2@PAU_Node@?$_Tree_nod@V?$_Tmap_traits@KP8CDPTrans@@AEXAAVCAr@@KKKPAEK@ZU?$less@K@std@@V?$allocator@U?$pair@$$CBKP8CDPTrans@@AEXAAVCAr@@KKKPAEK@Z@std@@@4@$0A@@std@@@2@@Z
_TEXT	SEGMENT PARA USE32 PUBLIC 'CODE'
_TEXT	ENDS
;	COMDAT ?_Lbound@?$_Tree@V?$_Tmap_traits@KP8CDPTrans@@AEXAAVCAr@@KKKPAEK@ZU?$less@K@std@@V?$allocator@U?$pair@$$CBKP8CDPTrans@@AEXAAVCAr@@KKKPAEK@Z@std@@@4@$0A@@std@@@std@@IBEPAU_Node@?$_Tree_nod@V?$_Tmap_traits@KP8CDPTrans@@AEXAAVCAr@@KKKPAEK@ZU?$less@K@std@@V?$allocator@U?$pair@$$CBKP8CDPTrans@@AEXAAVCAr@@KKKPAEK@Z@std@@@4@$0A@@std@@@2@ABK@Z
_TEXT	SEGMENT PARA USE32 PUBLIC 'CODE'
_TEXT	ENDS
;	COMDAT ?_Kfn@?$_Tmap_traits@KP8CDPTrans@@AEXAAVCAr@@KKKPAEK@ZU?$less@K@std@@V?$allocator@U?$pair@$$CBKP8CDPTrans@@AEXAAVCAr@@KKKPAEK@Z@std@@@4@$0A@@std@@SAABKABU?$pair@$$CBKP8CDPTrans@@AEXAAVCAr@@KKKPAEK@Z@2@@Z
_TEXT	SEGMENT PARA USE32 PUBLIC 'CODE'
_TEXT	ENDS
;	COMDAT ??0const_iterator@?$_Tree@V?$_Tmap_traits@KP8CDPTrans@@AEXAAVCAr@@KKKPAEK@ZU?$less@K@std@@V?$allocator@U?$pair@$$CBKP8CDPTrans@@AEXAAVCAr@@KKKPAEK@Z@std@@@4@$0A@@std@@@std@@QAE@PAU_Node@?$_Tree_nod@V?$_Tmap_traits@KP8CDPTrans@@AEXAAVCAr@@KKKPAEK@ZU?$less@K@std@@V?$allocator@U?$pair@$$CBKP8CDPTrans@@AEXAAVCAr@@KKKPAEK@Z@std@@@4@$0A@@std@@@2@@Z
_TEXT	SEGMENT PARA USE32 PUBLIC 'CODE'
_TEXT	ENDS
;	COMDAT ??Dconst_iterator@?$_Tree@V?$_Tmap_traits@KP8CDPTrans@@AEXAAVCAr@@KKKPAEK@ZU?$less@K@std@@V?$allocator@U?$pair@$$CBKP8CDPTrans@@AEXAAVCAr@@KKKPAEK@Z@std@@@4@$0A@@std@@@std@@QBEABU?$pair@$$CBKP8CDPTrans@@AEXAAVCAr@@KKKPAEK@Z@2@XZ
_TEXT	SEGMENT PARA USE32 PUBLIC 'CODE'
_TEXT	ENDS
;	COMDAT ?max_size@?$vector@EV?$allocator@E@std@@@std@@QBEIXZ
_TEXT	SEGMENT PARA USE32 PUBLIC 'CODE'
_TEXT	ENDS
;	COMDAT ?_Destroy@?$vector@EV?$allocator@E@std@@@std@@IAEXPAE0@Z
_TEXT	SEGMENT PARA USE32 PUBLIC 'CODE'
_TEXT	ENDS
;	COMDAT ?_Insert_n@?$vector@EV?$allocator@E@std@@@std@@IAEXViterator@12@IABE@Z
_TEXT	SEGMENT PARA USE32 PUBLIC 'CODE'
_TEXT	ENDS
;	COMDAT ?_Xlen@?$vector@EV?$allocator@E@std@@@std@@IBEXXZ
_TEXT	SEGMENT PARA USE32 PUBLIC 'CODE'
_TEXT	ENDS
;	COMDAT ??0iterator@?$vector@KV?$allocator@K@std@@@std@@QAE@PAK@Z
_TEXT	SEGMENT PARA USE32 PUBLIC 'CODE'
_TEXT	ENDS
;	COMDAT ??Yiterator@?$vector@KV?$allocator@K@std@@@std@@QAEAAV012@H@Z
_TEXT	SEGMENT PARA USE32 PUBLIC 'CODE'
_TEXT	ENDS
;	COMDAT ??Giterator@?$vector@KV?$allocator@K@std@@@std@@QBEHABVconst_iterator@12@@Z
_TEXT	SEGMENT PARA USE32 PUBLIC 'CODE'
_TEXT	ENDS
;	COMDAT ??Dconst_iterator@?$vector@KV?$allocator@K@std@@@std@@QBEABKXZ
_TEXT	SEGMENT PARA USE32 PUBLIC 'CODE'
_TEXT	ENDS
;	COMDAT ??0iterator@?$vector@HV?$allocator@H@std@@@std@@QAE@PAH@Z
_TEXT	SEGMENT PARA USE32 PUBLIC 'CODE'
_TEXT	ENDS
;	COMDAT ??Yiterator@?$vector@HV?$allocator@H@std@@@std@@QAEAAV012@H@Z
_TEXT	SEGMENT PARA USE32 PUBLIC 'CODE'
_TEXT	ENDS
;	COMDAT ??Giterator@?$vector@HV?$allocator@H@std@@@std@@QBEHABVconst_iterator@12@@Z
_TEXT	SEGMENT PARA USE32 PUBLIC 'CODE'
_TEXT	ENDS
;	COMDAT ??Dconst_iterator@?$vector@HV?$allocator@H@std@@@std@@QBEABHXZ
_TEXT	SEGMENT PARA USE32 PUBLIC 'CODE'
_TEXT	ENDS
;	COMDAT ??0iterator@?$vector@EV?$allocator@E@std@@@std@@QAE@PAE@Z
_TEXT	SEGMENT PARA USE32 PUBLIC 'CODE'
_TEXT	ENDS
;	COMDAT ??Yiterator@?$vector@EV?$allocator@E@std@@@std@@QAEAAV012@H@Z
_TEXT	SEGMENT PARA USE32 PUBLIC 'CODE'
_TEXT	ENDS
;	COMDAT ??Giterator@?$vector@EV?$allocator@E@std@@@std@@QBEHABVconst_iterator@12@@Z
_TEXT	SEGMENT PARA USE32 PUBLIC 'CODE'
_TEXT	ENDS
;	COMDAT ??Dconst_iterator@?$vector@EV?$allocator@E@std@@@std@@QBEABEXZ
_TEXT	SEGMENT PARA USE32 PUBLIC 'CODE'
_TEXT	ENDS
;	COMDAT ?max_size@?$allocator@E@std@@QBEIXZ
_TEXT	SEGMENT PARA USE32 PUBLIC 'CODE'
_TEXT	ENDS
;	COMDAT ?max_size@?$allocator@H@std@@QBEIXZ
_TEXT	SEGMENT PARA USE32 PUBLIC 'CODE'
_TEXT	ENDS
;	COMDAT ?max_size@?$allocator@M@std@@QBEIXZ
_TEXT	SEGMENT PARA USE32 PUBLIC 'CODE'
_TEXT	ENDS
;	COMDAT ?_Isnil@?$_Tree@V?$_Tmap_traits@KP8CDPTrans@@AEXAAVCAr@@KKKPAEK@ZU?$less@K@std@@V?$allocator@U?$pair@$$CBKP8CDPTrans@@AEXAAVCAr@@KKKPAEK@Z@std@@@4@$0A@@std@@@std@@KAAADPAU_Node@?$_Tree_nod@V?$_Tmap_traits@KP8CDPTrans@@AEXAAVCAr@@KKKPAEK@ZU?$less@K@std@@V?$allocator@U?$pair@$$CBKP8CDPTrans@@AEXAAVCAr@@KKKPAEK@Z@std@@@4@$0A@@std@@@2@@Z
_TEXT	SEGMENT PARA USE32 PUBLIC 'CODE'
_TEXT	ENDS
;	COMDAT ?_Left@?$_Tree@V?$_Tmap_traits@KP8CDPTrans@@AEXAAVCAr@@KKKPAEK@ZU?$less@K@std@@V?$allocator@U?$pair@$$CBKP8CDPTrans@@AEXAAVCAr@@KKKPAEK@Z@std@@@4@$0A@@std@@@std@@KAAAPAU_Node@?$_Tree_nod@V?$_Tmap_traits@KP8CDPTrans@@AEXAAVCAr@@KKKPAEK@ZU?$less@K@std@@V?$allocator@U?$pair@$$CBKP8CDPTrans@@AEXAAVCAr@@KKKPAEK@Z@std@@@4@$0A@@std@@@2@PAU342@@Z
_TEXT	SEGMENT PARA USE32 PUBLIC 'CODE'
_TEXT	ENDS
;	COMDAT ?_Right@?$_Tree@V?$_Tmap_traits@KP8CDPTrans@@AEXAAVCAr@@KKKPAEK@ZU?$less@K@std@@V?$allocator@U?$pair@$$CBKP8CDPTrans@@AEXAAVCAr@@KKKPAEK@Z@std@@@4@$0A@@std@@@std@@KAAAPAU_Node@?$_Tree_nod@V?$_Tmap_traits@KP8CDPTrans@@AEXAAVCAr@@KKKPAEK@ZU?$less@K@std@@V?$allocator@U?$pair@$$CBKP8CDPTrans@@AEXAAVCAr@@KKKPAEK@Z@std@@@4@$0A@@std@@@2@PAU342@@Z
_TEXT	SEGMENT PARA USE32 PUBLIC 'CODE'
_TEXT	ENDS
;	COMDAT ?_Root@?$_Tree@V?$_Tmap_traits@KP8CDPTrans@@AEXAAVCAr@@KKKPAEK@ZU?$less@K@std@@V?$allocator@U?$pair@$$CBKP8CDPTrans@@AEXAAVCAr@@KKKPAEK@Z@std@@@4@$0A@@std@@@std@@IBEAAPAU_Node@?$_Tree_nod@V?$_Tmap_traits@KP8CDPTrans@@AEXAAVCAr@@KKKPAEK@ZU?$less@K@std@@V?$allocator@U?$pair@$$CBKP8CDPTrans@@AEXAAVCAr@@KKKPAEK@Z@std@@@4@$0A@@std@@@2@XZ
_TEXT	SEGMENT PARA USE32 PUBLIC 'CODE'
_TEXT	ENDS
;	COMDAT ??0const_iterator@?$vector@KV?$allocator@K@std@@@std@@QAE@PAK@Z
_TEXT	SEGMENT PARA USE32 PUBLIC 'CODE'
_TEXT	ENDS
;	COMDAT ??Gconst_iterator@?$vector@KV?$allocator@K@std@@@std@@QBEHABV012@@Z
_TEXT	SEGMENT PARA USE32 PUBLIC 'CODE'
_TEXT	ENDS
;	COMDAT ??0const_iterator@?$vector@HV?$allocator@H@std@@@std@@QAE@PAH@Z
_TEXT	SEGMENT PARA USE32 PUBLIC 'CODE'
_TEXT	ENDS
;	COMDAT ??Gconst_iterator@?$vector@HV?$allocator@H@std@@@std@@QBEHABV012@@Z
_TEXT	SEGMENT PARA USE32 PUBLIC 'CODE'
_TEXT	ENDS
;	COMDAT ??0const_iterator@?$vector@EV?$allocator@E@std@@@std@@QAE@PAE@Z
_TEXT	SEGMENT PARA USE32 PUBLIC 'CODE'
_TEXT	ENDS
;	COMDAT ??Gconst_iterator@?$vector@EV?$allocator@E@std@@@std@@QBEHABV012@@Z
_TEXT	SEGMENT PARA USE32 PUBLIC 'CODE'
_TEXT	ENDS
;	COMDAT ?_Parent@?$_Tree@V?$_Tmap_traits@KP8CDPTrans@@AEXAAVCAr@@KKKPAEK@ZU?$less@K@std@@V?$allocator@U?$pair@$$CBKP8CDPTrans@@AEXAAVCAr@@KKKPAEK@Z@std@@@4@$0A@@std@@@std@@KAAAPAU_Node@?$_Tree_nod@V?$_Tmap_traits@KP8CDPTrans@@AEXAAVCAr@@KKKPAEK@ZU?$less@K@std@@V?$allocator@U?$pair@$$CBKP8CDPTrans@@AEXAAVCAr@@KKKPAEK@Z@std@@@4@$0A@@std@@@2@PAU342@@Z
_TEXT	SEGMENT PARA USE32 PUBLIC 'CODE'
_TEXT	ENDS
;	COMDAT ??$_Iter_cat@Viterator@?$_Tree@V?$_Tmap_traits@KU_Friend@@U?$less@K@std@@V?$allocator@U?$pair@$$CBKU_Friend@@@std@@@3@$0A@@std@@@std@@@std@@YA?AUbidirectional_iterator_tag@0@ABViterator@?$_Tree@V?$_Tmap_traits@KU_Friend@@U?$less@K@std@@V?$allocator@U?$pair@$$CBKU_Friend@@@std@@@3@$0A@@std@@@0@@Z
_TEXT	SEGMENT PARA USE32 PUBLIC 'CODE'
_TEXT	ENDS
;	COMDAT ??$_Distance2@Viterator@?$_Tree@V?$_Tmap_traits@KU_Friend@@U?$less@K@std@@V?$allocator@U?$pair@$$CBKU_Friend@@@std@@@3@$0A@@std@@@std@@I@std@@YAXViterator@?$_Tree@V?$_Tmap_traits@KU_Friend@@U?$less@K@std@@V?$allocator@U?$pair@$$CBKU_Friend@@@std@@@3@$0A@@std@@@0@0AAIUbidirectional_iterator_tag@0@@Z
_TEXT	SEGMENT PARA USE32 PUBLIC 'CODE'
_TEXT	ENDS
;	COMDAT ??$_Copy_opt@PAJPAJ@std@@YAPAJPAJ00U_Scalar_ptr_iterator_tag@0@@Z
_TEXT	SEGMENT PARA USE32 PUBLIC 'CODE'
_TEXT	ENDS
;	COMDAT ??$_Uninitialized_copy@PAJPAJV?$allocator@J@std@@@std@@YAPAJPAJ00AAV?$allocator@J@0@@Z
_TEXT	SEGMENT PARA USE32 PUBLIC 'CODE'
_TEXT	ENDS
;	COMDAT ??$_Copy_backward_opt@PAJPAJ@std@@YAPAJPAJ00U_Scalar_ptr_iterator_tag@0@@Z
_TEXT	SEGMENT PARA USE32 PUBLIC 'CODE'
_TEXT	ENDS
;	COMDAT ??$_Ptr_cat@PAUtagDROPITEM@@PAU1@@std@@YA?AU_Nonscalar_ptr_iterator_tag@0@AAPAUtagDROPITEM@@0@Z
_TEXT	SEGMENT PARA USE32 PUBLIC 'CODE'
_TEXT	ENDS
;	COMDAT ??$_Destroy_range@UtagDROPITEM@@V?$allocator@UtagDROPITEM@@@std@@@std@@YAXPAUtagDROPITEM@@0AAV?$allocator@UtagDROPITEM@@@0@U_Nonscalar_ptr_iterator_tag@0@@Z
_TEXT	SEGMENT PARA USE32 PUBLIC 'CODE'
_TEXT	ENDS
;	COMDAT ??$_Destroy_range@KV?$allocator@K@std@@@std@@YAXPAK0AAV?$allocator@K@0@U_Scalar_ptr_iterator_tag@0@@Z
_TEXT	SEGMENT PARA USE32 PUBLIC 'CODE'
_TEXT	ENDS
;	COMDAT ??$_Destroy_range@JV?$allocator@J@std@@@std@@YAXPAJ0AAV?$allocator@J@0@U_Scalar_ptr_iterator_tag@0@@Z
_TEXT	SEGMENT PARA USE32 PUBLIC 'CODE'
_TEXT	ENDS
;	COMDAT ??$_Uninit_fill_n@JIJ@std@@YAXPAJIABJAAV?$allocator@J@0@U_Scalar_ptr_iterator_tag@0@@Z
_TEXT	SEGMENT PARA USE32 PUBLIC 'CODE'
_TEXT	ENDS
;	COMDAT ??$throw_exception@Vbad_weak_ptr@boost@@@boost@@YAXABVbad_weak_ptr@0@@Z
_TEXT	SEGMENT PARA USE32 PUBLIC 'CODE'
_TEXT	ENDS
;	COMDAT ??$_Uninitialized_fill_n@PAKIKV?$allocator@K@std@@@std@@YAXPAKIABKAAV?$allocator@K@0@@Z
_TEXT	SEGMENT PARA USE32 PUBLIC 'CODE'
_TEXT	ENDS
;	COMDAT ??$_Uninitialized_fill_n@PAHIHV?$allocator@H@std@@@std@@YAXPAHIABHAAV?$allocator@H@0@@Z
_TEXT	SEGMENT PARA USE32 PUBLIC 'CODE'
_TEXT	ENDS
;	COMDAT ??$_Uninitialized_fill_n@PAEIEV?$allocator@E@std@@@std@@YAXPAEIABEAAV?$allocator@E@0@@Z
_TEXT	SEGMENT PARA USE32 PUBLIC 'CODE'
_TEXT	ENDS
;	COMDAT ??$_Allocate@E@std@@YAPAEIPAE@Z
_TEXT	SEGMENT PARA USE32 PUBLIC 'CODE'
_TEXT	ENDS
;	COMDAT ??$_Ucopy@PAK@?$vector@KV?$allocator@K@std@@@std@@IAEPAKPAK00@Z
_TEXT	SEGMENT PARA USE32 PUBLIC 'CODE'
_TEXT	ENDS
;	COMDAT ??$fill@PAKK@std@@YAXPAK0ABK@Z
_TEXT	SEGMENT PARA USE32 PUBLIC 'CODE'
_TEXT	ENDS
;	COMDAT ??$copy_backward@PAKPAK@std@@YAPAKPAK00@Z
_TEXT	SEGMENT PARA USE32 PUBLIC 'CODE'
_TEXT	ENDS
;	COMDAT ??$_Allocate@H@std@@YAPAHIPAH@Z
_TEXT	SEGMENT PARA USE32 PUBLIC 'CODE'
_TEXT	ENDS
;	COMDAT ??$_Destroy_range@MV?$allocator@M@std@@@std@@YAXPAM0AAV?$allocator@M@0@@Z
_TEXT	SEGMENT PARA USE32 PUBLIC 'CODE'
_TEXT	ENDS
;	COMDAT ??$_Allocate@M@std@@YAPAMIPAM@Z
_TEXT	SEGMENT PARA USE32 PUBLIC 'CODE'
_TEXT	ENDS
;	COMDAT ??$_Destroy_range@HV?$allocator@H@std@@@std@@YAXPAH0AAV?$allocator@H@0@@Z
_TEXT	SEGMENT PARA USE32 PUBLIC 'CODE'
_TEXT	ENDS
;	COMDAT ??$_Ucopy@PAH@?$vector@HV?$allocator@H@std@@@std@@IAEPAHPAH00@Z
_TEXT	SEGMENT PARA USE32 PUBLIC 'CODE'
_TEXT	ENDS
;	COMDAT ??$fill@PAHH@std@@YAXPAH0ABH@Z
_TEXT	SEGMENT PARA USE32 PUBLIC 'CODE'
_TEXT	ENDS
;	COMDAT ??$copy_backward@PAHPAH@std@@YAPAHPAH00@Z
_TEXT	SEGMENT PARA USE32 PUBLIC 'CODE'
_TEXT	ENDS
;	COMDAT ??$_Destroy_range@EV?$allocator@E@std@@@std@@YAXPAE0AAV?$allocator@E@0@@Z
_TEXT	SEGMENT PARA USE32 PUBLIC 'CODE'
_TEXT	ENDS
;	COMDAT ??$_Ucopy@PAE@?$vector@EV?$allocator@E@std@@@std@@IAEPAEPAE00@Z
_TEXT	SEGMENT PARA USE32 PUBLIC 'CODE'
_TEXT	ENDS
;	COMDAT ??$fill@PAEE@std@@YAXPAE0ABE@Z
_TEXT	SEGMENT PARA USE32 PUBLIC 'CODE'
_TEXT	ENDS
;	COMDAT ??$copy_backward@PAEPAE@std@@YAPAEPAE00@Z
_TEXT	SEGMENT PARA USE32 PUBLIC 'CODE'
_TEXT	ENDS
;	COMDAT ??0bad_weak_ptr@boost@@QAE@ABV01@@Z
_TEXT	SEGMENT PARA USE32 PUBLIC 'CODE'
_TEXT	ENDS
;	COMDAT ?destroy@?$allocator@UtagDROPITEM@@@std@@QAEXPAUtagDROPITEM@@@Z
_TEXT	SEGMENT PARA USE32 PUBLIC 'CODE'
_TEXT	ENDS
;	COMDAT ??$_Uninit_copy@JJ@std@@YAPAJPAJ00AAV?$allocator@J@0@U_Scalar_ptr_iterator_tag@0@@Z
_TEXT	SEGMENT PARA USE32 PUBLIC 'CODE'
_TEXT	ENDS
;	COMDAT ??$fill_n@PAJIJ@std@@YAXPAJIABJ@Z
_TEXT	SEGMENT PARA USE32 PUBLIC 'CODE'
_TEXT	ENDS
;	COMDAT ??$_Uninit_fill_n@KIK@std@@YAXPAKIABKAAV?$allocator@K@0@U_Scalar_ptr_iterator_tag@0@@Z
_TEXT	SEGMENT PARA USE32 PUBLIC 'CODE'
_TEXT	ENDS
;	COMDAT ??$_Uninit_fill_n@HIH@std@@YAXPAHIABHAAV?$allocator@H@0@U_Scalar_ptr_iterator_tag@0@@Z
_TEXT	SEGMENT PARA USE32 PUBLIC 'CODE'
_TEXT	ENDS
;	COMDAT ??$_Uninit_fill_n@EIE@std@@YAXPAEIABEAAV?$allocator@E@0@U_Scalar_ptr_iterator_tag@0@@Z
_TEXT	SEGMENT PARA USE32 PUBLIC 'CODE'
_TEXT	ENDS
;	COMDAT ??$_Uninitialized_copy@PAKPAKV?$allocator@K@std@@@std@@YAPAKPAK00AAV?$allocator@K@0@@Z
_TEXT	SEGMENT PARA USE32 PUBLIC 'CODE'
_TEXT	ENDS
;	COMDAT ??$_Copy_backward_opt@PAKPAK@std@@YAPAKPAK00U_Scalar_ptr_iterator_tag@0@@Z
_TEXT	SEGMENT PARA USE32 PUBLIC 'CODE'
_TEXT	ENDS
;	COMDAT ??$_Destroy_range@MV?$allocator@M@std@@@std@@YAXPAM0AAV?$allocator@M@0@U_Scalar_ptr_iterator_tag@0@@Z
_TEXT	SEGMENT PARA USE32 PUBLIC 'CODE'
_TEXT	ENDS
;	COMDAT ??$_Destroy_range@HV?$allocator@H@std@@@std@@YAXPAH0AAV?$allocator@H@0@U_Scalar_ptr_iterator_tag@0@@Z
_TEXT	SEGMENT PARA USE32 PUBLIC 'CODE'
_TEXT	ENDS
;	COMDAT ??$_Uninitialized_copy@PAHPAHV?$allocator@H@std@@@std@@YAPAHPAH00AAV?$allocator@H@0@@Z
_TEXT	SEGMENT PARA USE32 PUBLIC 'CODE'
_TEXT	ENDS
;	COMDAT ??$_Copy_backward_opt@PAHPAH@std@@YAPAHPAH00U_Scalar_ptr_iterator_tag@0@@Z
_TEXT	SEGMENT PARA USE32 PUBLIC 'CODE'
_TEXT	ENDS
;	COMDAT ??$_Destroy_range@EV?$allocator@E@std@@@std@@YAXPAE0AAV?$allocator@E@0@U_Scalar_ptr_iterator_tag@0@@Z
_TEXT	SEGMENT PARA USE32 PUBLIC 'CODE'
_TEXT	ENDS
;	COMDAT ??$_Uninitialized_copy@PAEPAEV?$allocator@E@std@@@std@@YAPAEPAE00AAV?$allocator@E@0@@Z
_TEXT	SEGMENT PARA USE32 PUBLIC 'CODE'
_TEXT	ENDS
;	COMDAT ??$_Copy_backward_opt@PAEPAE@std@@YAPAEPAE00U_Scalar_ptr_iterator_tag@0@@Z
_TEXT	SEGMENT PARA USE32 PUBLIC 'CODE'
_TEXT	ENDS
;	COMDAT ??$_Destroy@UtagDROPITEM@@@std@@YAXPAUtagDROPITEM@@@Z
_TEXT	SEGMENT PARA USE32 PUBLIC 'CODE'
_TEXT	ENDS
;	COMDAT ??$fill_n@PAKIK@std@@YAXPAKIABK@Z
_TEXT	SEGMENT PARA USE32 PUBLIC 'CODE'
_TEXT	ENDS
;	COMDAT ??$fill_n@PAHIH@std@@YAXPAHIABH@Z
_TEXT	SEGMENT PARA USE32 PUBLIC 'CODE'
_TEXT	ENDS
;	COMDAT ??$fill_n@PAEIE@std@@YAXPAEIABE@Z
_TEXT	SEGMENT PARA USE32 PUBLIC 'CODE'
_TEXT	ENDS
;	COMDAT ??$_Uninit_copy@KK@std@@YAPAKPAK00AAV?$allocator@K@0@U_Scalar_ptr_iterator_tag@0@@Z
_TEXT	SEGMENT PARA USE32 PUBLIC 'CODE'
_TEXT	ENDS
;	COMDAT ??$_Uninit_copy@HH@std@@YAPAHPAH00AAV?$allocator@H@0@U_Scalar_ptr_iterator_tag@0@@Z
_TEXT	SEGMENT PARA USE32 PUBLIC 'CODE'
_TEXT	ENDS
;	COMDAT ??$_Uninit_copy@EE@std@@YAPAEPAE00AAV?$allocator@E@0@U_Scalar_ptr_iterator_tag@0@@Z
_TEXT	SEGMENT PARA USE32 PUBLIC 'CODE'
_TEXT	ENDS
;	COMDAT ?_Ptr_cat@std@@YA?AU_Scalar_ptr_iterator_tag@1@PAM0@Z
_TEXT	SEGMENT PARA USE32 PUBLIC 'CODE'
_TEXT	ENDS
;	COMDAT ?_Ptr_cat@std@@YA?AU_Scalar_ptr_iterator_tag@1@PAE0@Z
_TEXT	SEGMENT PARA USE32 PUBLIC 'CODE'
_TEXT	ENDS
;	COMDAT ?_Ptr_cat@std@@YA?AU_Scalar_ptr_iterator_tag@1@PAH0@Z
_TEXT	SEGMENT PARA USE32 PUBLIC 'CODE'
_TEXT	ENDS
;	COMDAT ?_Ptr_cat@std@@YA?AU_Scalar_ptr_iterator_tag@1@PAK0@Z
_TEXT	SEGMENT PARA USE32 PUBLIC 'CODE'
_TEXT	ENDS
;	COMDAT __CTA2?AVbad_weak_ptr@boost@@
xdata$x	SEGMENT DWORD USE32 PUBLIC 'CONST'
xdata$x	ENDS
;	COMDAT __CT??_R0?AVexception@@@8??0exception@@QAE@ABV0@@Z12
xdata$x	SEGMENT DWORD USE32 PUBLIC 'CONST'
xdata$x	ENDS
;	COMDAT ??_R0?AVexception@@@8
_DATA	SEGMENT DWORD USE32 PUBLIC 'DATA'
_DATA	ENDS
;	COMDAT __CT??_R0?AVbad_weak_ptr@boost@@@8??0bad_weak_ptr@boost@@QAE@ABV01@@Z12
xdata$x	SEGMENT DWORD USE32 PUBLIC 'CONST'
xdata$x	ENDS
;	COMDAT ??_R0?AVbad_weak_ptr@boost@@@8
_DATA	SEGMENT DWORD USE32 PUBLIC 'DATA'
_DATA	ENDS
;	COMDAT __TI2?AVbad_weak_ptr@boost@@
xdata$x	SEGMENT DWORD USE32 PUBLIC 'CONST'
xdata$x	ENDS
;	COMDAT ?_Ptr_cat@std@@YA?AU_Scalar_ptr_iterator_tag@1@PAJ0@Z
_TEXT	SEGMENT PARA USE32 PUBLIC 'CODE'
_TEXT	ENDS
;	COMDAT ??9const_iterator@?$_Tree@V?$_Tmap_traits@KU_Friend@@U?$less@K@std@@V?$allocator@U?$pair@$$CBKU_Friend@@@std@@@3@$0A@@std@@@std@@QBE_NABV012@@Z
_TEXT	SEGMENT PARA USE32 PUBLIC 'CODE'
_TEXT	ENDS
;	COMDAT ??8const_iterator@?$_Tree@V?$_Tmap_traits@KU_Friend@@U?$less@K@std@@V?$allocator@U?$pair@$$CBKU_Friend@@@std@@@3@$0A@@std@@@std@@QBE_NABV012@@Z
_TEXT	SEGMENT PARA USE32 PUBLIC 'CODE'
_TEXT	ENDS
;	COMDAT ??Eiterator@?$_Tree@V?$_Tmap_traits@KU_Friend@@U?$less@K@std@@V?$allocator@U?$pair@$$CBKU_Friend@@@std@@@3@$0A@@std@@@std@@QAEAAV012@XZ
_TEXT	SEGMENT PARA USE32 PUBLIC 'CODE'
_TEXT	ENDS
;	COMDAT ??Econst_iterator@?$_Tree@V?$_Tmap_traits@KU_Friend@@U?$less@K@std@@V?$allocator@U?$pair@$$CBKU_Friend@@@std@@@3@$0A@@std@@@std@@QAEAAV012@XZ
_TEXT	SEGMENT PARA USE32 PUBLIC 'CODE'
_TEXT	ENDS
;	COMDAT ?_Inc@const_iterator@?$_Tree@V?$_Tmap_traits@KU_Friend@@U?$less@K@std@@V?$allocator@U?$pair@$$CBKU_Friend@@@std@@@3@$0A@@std@@@std@@QAEXXZ
_TEXT	SEGMENT PARA USE32 PUBLIC 'CODE'
_TEXT	ENDS
;	COMDAT ?_Min@?$_Tree@V?$_Tmap_traits@KU_Friend@@U?$less@K@std@@V?$allocator@U?$pair@$$CBKU_Friend@@@std@@@3@$0A@@std@@@std@@KAPAU_Node@?$_Tree_nod@V?$_Tmap_traits@KU_Friend@@U?$less@K@std@@V?$allocator@U?$pair@$$CBKU_Friend@@@std@@@3@$0A@@std@@@2@PAU342@@Z
_TEXT	SEGMENT PARA USE32 PUBLIC 'CODE'
_TEXT	ENDS
;	COMDAT ?_Left@?$_Tree@V?$_Tmap_traits@KU_Friend@@U?$less@K@std@@V?$allocator@U?$pair@$$CBKU_Friend@@@std@@@3@$0A@@std@@@std@@KAAAPAU_Node@?$_Tree_nod@V?$_Tmap_traits@KU_Friend@@U?$less@K@std@@V?$allocator@U?$pair@$$CBKU_Friend@@@std@@@3@$0A@@std@@@2@PAU342@@Z
_TEXT	SEGMENT PARA USE32 PUBLIC 'CODE'
_TEXT	ENDS
;	COMDAT ?_Isnil@?$_Tree@V?$_Tmap_traits@KU_Friend@@U?$less@K@std@@V?$allocator@U?$pair@$$CBKU_Friend@@@std@@@3@$0A@@std@@@std@@KAAADPAU_Node@?$_Tree_nod@V?$_Tmap_traits@KU_Friend@@U?$less@K@std@@V?$allocator@U?$pair@$$CBKU_Friend@@@std@@@3@$0A@@std@@@2@@Z
_TEXT	SEGMENT PARA USE32 PUBLIC 'CODE'
_TEXT	ENDS
;	COMDAT ?_Parent@?$_Tree@V?$_Tmap_traits@KU_Friend@@U?$less@K@std@@V?$allocator@U?$pair@$$CBKU_Friend@@@std@@@3@$0A@@std@@@std@@KAAAPAU_Node@?$_Tree_nod@V?$_Tmap_traits@KU_Friend@@U?$less@K@std@@V?$allocator@U?$pair@$$CBKU_Friend@@@std@@@3@$0A@@std@@@2@PAU342@@Z
_TEXT	SEGMENT PARA USE32 PUBLIC 'CODE'
_TEXT	ENDS
;	COMDAT ?_Right@?$_Tree@V?$_Tmap_traits@KU_Friend@@U?$less@K@std@@V?$allocator@U?$pair@$$CBKU_Friend@@@std@@@3@$0A@@std@@@std@@KAAAPAU_Node@?$_Tree_nod@V?$_Tmap_traits@KU_Friend@@U?$less@K@std@@V?$allocator@U?$pair@$$CBKU_Friend@@@std@@@3@$0A@@std@@@2@PAU342@@Z
_TEXT	SEGMENT PARA USE32 PUBLIC 'CODE'
_TEXT	ENDS
;	COMDAT ?_Psave@?$_Facetptr@V?$ctype@G@std@@@std@@2PBVfacet@locale@2@B
_DATA	SEGMENT DWORD USE32 PUBLIC 'DATA'
_DATA	ENDS
;	COMDAT ?_Psave@?$_Facetptr@V?$ctype@D@std@@@std@@2PBVfacet@locale@2@B
_DATA	SEGMENT DWORD USE32 PUBLIC 'DATA'
_DATA	ENDS
;	COMDAT __TI3?AVlength_error@std@@
xdata$x	SEGMENT DWORD USE32 PUBLIC 'CONST'
xdata$x	ENDS
;	COMDAT ??1length_error@std@@UAE@XZ
_TEXT	SEGMENT PARA USE32 PUBLIC 'CODE'
_TEXT	ENDS
;	COMDAT ??_7length_error@std@@6B@
CONST	SEGMENT DWORD USE32 PUBLIC 'CONST'
CONST	ENDS
;	COMDAT ??_Glength_error@std@@UAEPAXI@Z
_TEXT	SEGMENT PARA USE32 PUBLIC 'CODE'
_TEXT	ENDS
;	COMDAT ?what@logic_error@std@@UBEPBDXZ
_TEXT	SEGMENT PARA USE32 PUBLIC 'CODE'
_TEXT	ENDS
;	COMDAT ?c_str@?$basic_string@DU?$char_traits@D@std@@V?$allocator@D@2@@std@@QBEPBDXZ
_TEXT	SEGMENT PARA USE32 PUBLIC 'CODE'
_TEXT	ENDS
;	COMDAT ??1logic_error@std@@UAE@XZ
_TEXT	SEGMENT PARA USE32 PUBLIC 'CODE'
_TEXT	ENDS
;	COMDAT ??_7logic_error@std@@6B@
CONST	SEGMENT DWORD USE32 PUBLIC 'CONST'
CONST	ENDS
;	COMDAT ??_Glogic_error@std@@UAEPAXI@Z
_TEXT	SEGMENT PARA USE32 PUBLIC 'CODE'
_TEXT	ENDS
;	COMDAT __CTA3?AVlength_error@std@@
xdata$x	SEGMENT DWORD USE32 PUBLIC 'CONST'
xdata$x	ENDS
;	COMDAT __CT??_R0?AVlength_error@std@@@8??0length_error@std@@QAE@ABV01@@Z40
xdata$x	SEGMENT DWORD USE32 PUBLIC 'CONST'
xdata$x	ENDS
;	COMDAT ??_R0?AVlength_error@std@@@8
_DATA	SEGMENT DWORD USE32 PUBLIC 'DATA'
_DATA	ENDS
;	COMDAT ??0length_error@std@@QAE@ABV01@@Z
_TEXT	SEGMENT PARA USE32 PUBLIC 'CODE'
_TEXT	ENDS
;	COMDAT ??0logic_error@std@@QAE@ABV01@@Z
_TEXT	SEGMENT PARA USE32 PUBLIC 'CODE'
_TEXT	ENDS
;	COMDAT ??0?$basic_string@DU?$char_traits@D@std@@V?$allocator@D@2@@std@@QAE@ABV01@@Z
_TEXT	SEGMENT PARA USE32 PUBLIC 'CODE'
_TEXT	ENDS
;	COMDAT ??0?$_String_val@DV?$allocator@D@std@@@std@@IAE@V?$allocator@D@1@@Z
_TEXT	SEGMENT PARA USE32 PUBLIC 'CODE'
_TEXT	ENDS
;	COMDAT ??0?$allocator@D@std@@QAE@ABV01@@Z
_TEXT	SEGMENT PARA USE32 PUBLIC 'CODE'
_TEXT	ENDS
;	COMDAT ?_Tidy@?$basic_string@DU?$char_traits@D@std@@V?$allocator@D@2@@std@@IAEX_NI@Z
_TEXT	SEGMENT PARA USE32 PUBLIC 'CODE'
_TEXT	ENDS
;	COMDAT ?copy@?$char_traits@D@std@@SAPADPADPBDI@Z
_TEXT	SEGMENT PARA USE32 PUBLIC 'CODE'
_TEXT	ENDS
;	COMDAT ?deallocate@?$allocator@D@std@@QAEXPADI@Z
_TEXT	SEGMENT PARA USE32 PUBLIC 'CODE'
_TEXT	ENDS
;	COMDAT ?_Eos@?$basic_string@DU?$char_traits@D@std@@V?$allocator@D@2@@std@@IAEXI@Z
_TEXT	SEGMENT PARA USE32 PUBLIC 'CODE'
_TEXT	ENDS
;	COMDAT ?assign@?$char_traits@D@std@@SAXAADABD@Z
_TEXT	SEGMENT PARA USE32 PUBLIC 'CODE'
_TEXT	ENDS
;	COMDAT ?_Myptr@?$basic_string@DU?$char_traits@D@std@@V?$allocator@D@2@@std@@QAEPADXZ
_TEXT	SEGMENT PARA USE32 PUBLIC 'CODE'
_TEXT	ENDS
;	COMDAT ?assign@?$basic_string@DU?$char_traits@D@std@@V?$allocator@D@2@@std@@QAEAAV12@ABV12@II@Z
_TEXT	SEGMENT PARA USE32 PUBLIC 'CODE'
_TEXT	ENDS
;	COMDAT ?erase@?$basic_string@DU?$char_traits@D@std@@V?$allocator@D@2@@std@@QAEAAV12@II@Z
_TEXT	SEGMENT PARA USE32 PUBLIC 'CODE'
_TEXT	ENDS
;	COMDAT ?move@?$char_traits@D@std@@SAPADPADPBDI@Z
_TEXT	SEGMENT PARA USE32 PUBLIC 'CODE'
_TEXT	ENDS
;	COMDAT ?_Grow@?$basic_string@DU?$char_traits@D@std@@V?$allocator@D@2@@std@@IAE_NI_N@Z
_TEXT	SEGMENT PARA USE32 PUBLIC 'CODE'
_TEXT	ENDS
;	COMDAT ?max_size@?$basic_string@DU?$char_traits@D@std@@V?$allocator@D@2@@std@@QBEIXZ
_TEXT	SEGMENT PARA USE32 PUBLIC 'CODE'
_TEXT	ENDS
;	COMDAT ?max_size@?$allocator@D@std@@QBEIXZ
_TEXT	SEGMENT PARA USE32 PUBLIC 'CODE'
_TEXT	ENDS
;	COMDAT ?_Copy@?$basic_string@DU?$char_traits@D@std@@V?$allocator@D@2@@std@@IAEXII@Z
_TEXT	SEGMENT PARA USE32 PUBLIC 'CODE'
_TEXT	ENDS
;	COMDAT ?allocate@?$allocator@D@std@@QAEPADI@Z
_TEXT	SEGMENT PARA USE32 PUBLIC 'CODE'
_TEXT	ENDS
;	COMDAT ??$_Allocate@D@std@@YAPADIPAD@Z
_TEXT	SEGMENT PARA USE32 PUBLIC 'CODE'
_TEXT	ENDS
;	COMDAT ?npos@?$basic_string@DU?$char_traits@D@std@@V?$allocator@D@2@@std@@2IB
CONST	SEGMENT DWORD USE32 PUBLIC 'CONST'
CONST	ENDS
;	COMDAT __CT??_R0?AVlogic_error@std@@@8??0logic_error@std@@QAE@ABV01@@Z40
xdata$x	SEGMENT DWORD USE32 PUBLIC 'CONST'
xdata$x	ENDS
;	COMDAT ??_R0?AVlogic_error@std@@@8
_DATA	SEGMENT DWORD USE32 PUBLIC 'DATA'
_DATA	ENDS
;	COMDAT ??1?$basic_string@DU?$char_traits@D@std@@V?$allocator@D@2@@std@@QAE@XZ
_TEXT	SEGMENT PARA USE32 PUBLIC 'CODE'
_TEXT	ENDS
;	COMDAT ??_C@_0BD@OLBABOEK@vector?$DMT?$DO?5too?5long?$AA@
CONST	SEGMENT DWORD USE32 PUBLIC 'CONST'
CONST	ENDS
;	COMDAT ??0?$basic_string@DU?$char_traits@D@std@@V?$allocator@D@2@@std@@QAE@PBD@Z
_TEXT	SEGMENT PARA USE32 PUBLIC 'CODE'
_TEXT	ENDS
;	COMDAT ??0?$allocator@D@std@@QAE@XZ
_TEXT	SEGMENT PARA USE32 PUBLIC 'CODE'
_TEXT	ENDS
;	COMDAT ?assign@?$basic_string@DU?$char_traits@D@std@@V?$allocator@D@2@@std@@QAEAAV12@PBD@Z
_TEXT	SEGMENT PARA USE32 PUBLIC 'CODE'
_TEXT	ENDS
;	COMDAT ?assign@?$basic_string@DU?$char_traits@D@std@@V?$allocator@D@2@@std@@QAEAAV12@PBDI@Z
_TEXT	SEGMENT PARA USE32 PUBLIC 'CODE'
_TEXT	ENDS
;	COMDAT ?_Inside@?$basic_string@DU?$char_traits@D@std@@V?$allocator@D@2@@std@@IAE_NPBD@Z
_TEXT	SEGMENT PARA USE32 PUBLIC 'CODE'
_TEXT	ENDS
;	COMDAT ?length@?$char_traits@D@std@@SAIPBD@Z
_TEXT	SEGMENT PARA USE32 PUBLIC 'CODE'
_TEXT	ENDS
;	COMDAT ??0length_error@std@@QAE@ABV?$basic_string@DU?$char_traits@D@std@@V?$allocator@D@2@@1@@Z
_TEXT	SEGMENT PARA USE32 PUBLIC 'CODE'
_TEXT	ENDS
;	COMDAT ??0logic_error@std@@QAE@ABV?$basic_string@DU?$char_traits@D@std@@V?$allocator@D@2@@1@@Z
_TEXT	SEGMENT PARA USE32 PUBLIC 'CODE'
_TEXT	ENDS
;	COMDAT ?deallocate@?$allocator@K@std@@QAEXPAKI@Z
_TEXT	SEGMENT PARA USE32 PUBLIC 'CODE'
_TEXT	ENDS
;	COMDAT ?_Destroy@?$vector@KV?$allocator@K@std@@@std@@IAEXPAK0@Z
_TEXT	SEGMENT PARA USE32 PUBLIC 'CODE'
_TEXT	ENDS
;	COMDAT ??$_Destroy_range@KV?$allocator@K@std@@@std@@YAXPAK0AAV?$allocator@K@0@@Z
_TEXT	SEGMENT PARA USE32 PUBLIC 'CODE'
_TEXT	ENDS
;	COMDAT ?allocate@?$allocator@K@std@@QAEPAKI@Z
_TEXT	SEGMENT PARA USE32 PUBLIC 'CODE'
_TEXT	ENDS
;	COMDAT ??$_Allocate@K@std@@YAPAKIPAK@Z
_TEXT	SEGMENT PARA USE32 PUBLIC 'CODE'
_TEXT	ENDS
;	COMDAT ?_Xlen@?$vector@KV?$allocator@K@std@@@std@@IBEXXZ
_TEXT	SEGMENT PARA USE32 PUBLIC 'CODE'
_TEXT	ENDS
;	COMDAT ?max_size@?$vector@KV?$allocator@K@std@@@std@@QBEIXZ
_TEXT	SEGMENT PARA USE32 PUBLIC 'CODE'
_TEXT	ENDS
;	COMDAT ?max_size@?$allocator@K@std@@QBEIXZ
_TEXT	SEGMENT PARA USE32 PUBLIC 'CODE'
_TEXT	ENDS
;	COMDAT ?compare@?$char_traits@D@std@@SAHPBD0I@Z
_TEXT	SEGMENT PARA USE32 PUBLIC 'CODE'
_TEXT	ENDS
;	COMDAT ??R?$less@K@std@@QBE_NABK0@Z
_TEXT	SEGMENT PARA USE32 PUBLIC 'CODE'
_TEXT	ENDS
;	COMDAT ?_Myptr@?$basic_string@DU?$char_traits@D@std@@V?$allocator@D@2@@std@@QBEPBDXZ
_TEXT	SEGMENT PARA USE32 PUBLIC 'CODE'
_TEXT	ENDS
;	COMDAT ?size@?$basic_string@DU?$char_traits@D@std@@V?$allocator@D@2@@std@@QBEIXZ
_TEXT	SEGMENT PARA USE32 PUBLIC 'CODE'
_TEXT	ENDS
;	COMDAT ?ReleaseBufferSetLength@?$CSimpleStringT@D$0A@@ATL@@QAEXH@Z
_TEXT	SEGMENT PARA USE32 PUBLIC 'CODE'
_TEXT	ENDS
;	COMDAT ?SetLength@?$CSimpleStringT@D$0A@@ATL@@AAEXH@Z
_TEXT	SEGMENT PARA USE32 PUBLIC 'CODE'
_TEXT	ENDS
;	COMDAT ?AtlThrow@ATL@@YGXJ@Z
_TEXT	SEGMENT PARA USE32 PUBLIC 'CODE'
_TEXT	ENDS
;	COMDAT ?GetData@?$CSimpleStringT@D$0A@@ATL@@ABEPAUCStringData@2@XZ
_TEXT	SEGMENT PARA USE32 PUBLIC 'CODE'
_TEXT	ENDS
;	COMDAT ?GetBuffer@?$CSimpleStringT@D$0A@@ATL@@QAEPADH@Z
_TEXT	SEGMENT PARA USE32 PUBLIC 'CODE'
_TEXT	ENDS
;	COMDAT ?PrepareWrite@?$CSimpleStringT@D$0A@@ATL@@AAEPADH@Z
_TEXT	SEGMENT PARA USE32 PUBLIC 'CODE'
_TEXT	ENDS
;	COMDAT ?PrepareWrite2@?$CSimpleStringT@D$0A@@ATL@@AAEXH@Z
_TEXT	SEGMENT PARA USE32 PUBLIC 'CODE'
_TEXT	ENDS
;	COMDAT ?IsShared@CStringData@ATL@@QBE_NXZ
_TEXT	SEGMENT PARA USE32 PUBLIC 'CODE'
_TEXT	ENDS
;	COMDAT ?Fork@?$CSimpleStringT@D$0A@@ATL@@AAEXH@Z
_TEXT	SEGMENT PARA USE32 PUBLIC 'CODE'
_TEXT	ENDS
;	COMDAT ?ThrowMemoryException@?$CSimpleStringT@D$0A@@ATL@@KAXXZ
_TEXT	SEGMENT PARA USE32 PUBLIC 'CODE'
_TEXT	ENDS
;	COMDAT ?CopyChars@?$CSimpleStringT@D$0A@@ATL@@SAXPADPBDH@Z
_TEXT	SEGMENT PARA USE32 PUBLIC 'CODE'
_TEXT	ENDS
;	COMDAT ?data@CStringData@ATL@@QAEPAXXZ
_TEXT	SEGMENT PARA USE32 PUBLIC 'CODE'
_TEXT	ENDS
;	COMDAT ?Release@CStringData@ATL@@QAEXXZ
_TEXT	SEGMENT PARA USE32 PUBLIC 'CODE'
_TEXT	ENDS
;	COMDAT ?Attach@?$CSimpleStringT@D$0A@@ATL@@AAEXPAUCStringData@2@@Z
_TEXT	SEGMENT PARA USE32 PUBLIC 'CODE'
_TEXT	ENDS
;	COMDAT ?Reallocate@?$CSimpleStringT@D$0A@@ATL@@AAEXH@Z
_TEXT	SEGMENT PARA USE32 PUBLIC 'CODE'
_TEXT	ENDS
;	COMDAT ?StringFindString@?$ChTraitsCRT@D@ATL@@SAPBDPBD0@Z
_TEXT	SEGMENT PARA USE32 PUBLIC 'CODE'
_TEXT	ENDS
;	COMDAT ?GetLength@?$CSimpleStringT@D$0A@@ATL@@QBEHXZ
_TEXT	SEGMENT PARA USE32 PUBLIC 'CODE'
_TEXT	ENDS
;	COMDAT ?GetString@?$CSimpleStringT@D$0A@@ATL@@QBEPBDXZ
_TEXT	SEGMENT PARA USE32 PUBLIC 'CODE'
_TEXT	ENDS
;	COMDAT ??_C@_09GBAEEKDE@?$CFs?0?5?$CFd?7?$CFs?$AA@
CONST	SEGMENT DWORD USE32 PUBLIC 'CONST'
CONST	ENDS
;	COMDAT ??1?$vector@KV?$allocator@K@std@@@std@@QAE@XZ
_TEXT	SEGMENT PARA USE32 PUBLIC 'CODE'
_TEXT	ENDS
;	COMDAT ?_Tidy@?$vector@KV?$allocator@K@std@@@std@@IAEXXZ
_TEXT	SEGMENT PARA USE32 PUBLIC 'CODE'
_TEXT	ENDS
;	COMDAT ??0?$vector@KV?$allocator@K@std@@@std@@QAE@XZ
_TEXT	SEGMENT PARA USE32 PUBLIC 'CODE'
_TEXT	ENDS
;	COMDAT ??0?$_Vector_val@KV?$allocator@K@std@@@std@@IAE@V?$allocator@K@1@@Z
_TEXT	SEGMENT PARA USE32 PUBLIC 'CODE'
_TEXT	ENDS
;	COMDAT ??0?$allocator@K@std@@QAE@ABV01@@Z
_TEXT	SEGMENT PARA USE32 PUBLIC 'CODE'
_TEXT	ENDS
;	COMDAT ??0?$allocator@K@std@@QAE@XZ
_TEXT	SEGMENT PARA USE32 PUBLIC 'CODE'
_TEXT	ENDS
;	COMDAT ?_Buy@?$vector@KV?$allocator@K@std@@@std@@IAE_NI@Z
_TEXT	SEGMENT PARA USE32 PUBLIC 'CODE'
_TEXT	ENDS
;	COMDAT ??5CAr@@QAEAAV0@AAD@Z
_TEXT	SEGMENT PARA USE32 PUBLIC 'CODE'
_TEXT	ENDS
;	COMDAT ??5CAr@@QAEAAV0@AAE@Z
_TEXT	SEGMENT PARA USE32 PUBLIC 'CODE'
_TEXT	ENDS
;	COMDAT ??_7CSecretRoomDbController@@6B@
CONST	SEGMENT DWORD USE32 PUBLIC 'CONST'
CONST	ENDS
;	COMDAT ?sSecretRoomDBMng@?1??GetInstance@CSecretRoomDBMng@@SAPAV2@XZ@4V2@A
_BSS	SEGMENT DWORD USE32 PUBLIC 'BSS'
_BSS	ENDS
;	COMDAT ?$S1@?1??GetInstance@CSecretRoomDBMng@@SAPAV2@XZ@4IA
_BSS	SEGMENT DWORD USE32 PUBLIC 'BSS'
_BSS	ENDS
;	COMDAT ??4?$CStringT@DV?$StrTraitMFC@DV?$ChTraitsCRT@D@ATL@@@@@ATL@@QAEAAV01@PBD@Z
_TEXT	SEGMENT PARA USE32 PUBLIC 'CODE'
_TEXT	ENDS
;	COMDAT ??4?$CSimpleStringT@D$0A@@ATL@@QAEAAV01@PBD@Z
_TEXT	SEGMENT PARA USE32 PUBLIC 'CODE'
_TEXT	ENDS
;	COMDAT ?SetString@?$CSimpleStringT@D$0A@@ATL@@QAEXPBD@Z
_TEXT	SEGMENT PARA USE32 PUBLIC 'CODE'
_TEXT	ENDS
;	COMDAT ?SetString@?$CSimpleStringT@D$0A@@ATL@@QAEXPBDH@Z
_TEXT	SEGMENT PARA USE32 PUBLIC 'CODE'
_TEXT	ENDS
;	COMDAT ?Empty@?$CSimpleStringT@D$0A@@ATL@@QAEXXZ
_TEXT	SEGMENT PARA USE32 PUBLIC 'CODE'
_TEXT	ENDS
;	COMDAT ?IsLocked@CStringData@ATL@@QBE_NXZ
_TEXT	SEGMENT PARA USE32 PUBLIC 'CODE'
_TEXT	ENDS
;	COMDAT ?CopyCharsOverlapped@?$CSimpleStringT@D$0A@@ATL@@SAXPADPBDH@Z
_TEXT	SEGMENT PARA USE32 PUBLIC 'CODE'
_TEXT	ENDS
;	COMDAT ?StringLength@?$CSimpleStringT@D$0A@@ATL@@SAHPBD@Z
_TEXT	SEGMENT PARA USE32 PUBLIC 'CODE'
_TEXT	ENDS
;	COMDAT ??B?$CSimpleStringT@D$0A@@ATL@@QBEPBDXZ
_TEXT	SEGMENT PARA USE32 PUBLIC 'CODE'
_TEXT	ENDS
;	COMDAT ??5@YAAAVCAr@@AAV0@AAUD3DXVECTOR3@@@Z
_TEXT	SEGMENT PARA USE32 PUBLIC 'CODE'
_TEXT	ENDS
;	COMDAT ??5CAr@@QAEAAV0@AAM@Z
_TEXT	SEGMENT PARA USE32 PUBLIC 'CODE'
_TEXT	ENDS
;	COMDAT ??5CAr@@QAEAAV0@AAK@Z
_TEXT	SEGMENT PARA USE32 PUBLIC 'CODE'
_TEXT	ENDS
;	COMDAT ??5CAr@@QAEAAV0@AAJ@Z
_TEXT	SEGMENT PARA USE32 PUBLIC 'CODE'
_TEXT	ENDS
;	COMDAT ?time_null@@YAJXZ
_TEXT	SEGMENT PARA USE32 PUBLIC 'CODE'
_TEXT	ENDS
;	COMDAT ??6CAr@@QAEAAV0@K@Z
_TEXT	SEGMENT PARA USE32 PUBLIC 'CODE'
_TEXT	ENDS
;	COMDAT ??6CAr@@QAEAAV0@J@Z
_TEXT	SEGMENT PARA USE32 PUBLIC 'CODE'
_TEXT	ENDS
;	COMDAT ??6@YAAAVCAr@@AAV0@UD3DXVECTOR3@@@Z
_TEXT	SEGMENT PARA USE32 PUBLIC 'CODE'
_TEXT	ENDS
;	COMDAT ??6CAr@@QAEAAV0@M@Z
_TEXT	SEGMENT PARA USE32 PUBLIC 'CODE'
_TEXT	ENDS
;	COMDAT ?IsStoring@CAr@@QBEHXZ
_TEXT	SEGMENT PARA USE32 PUBLIC 'CODE'
_TEXT	ENDS
;	COMDAT ?GetTime@CTime@ATL@@QBE_JXZ
_TEXT	SEGMENT PARA USE32 PUBLIC 'CODE'
_TEXT	ENDS
;	COMDAT ??0CTimeSpan@ATL@@QAE@JHHH@Z
_TEXT	SEGMENT PARA USE32 PUBLIC 'CODE'
_TEXT	ENDS
;	COMDAT ?GetTickCount@CTime@ATL@@SG?AV12@XZ
_TEXT	SEGMENT PARA USE32 PUBLIC 'CODE'
_TEXT	ENDS
;	COMDAT ??0CTime@ATL@@QAE@_J@Z
_TEXT	SEGMENT PARA USE32 PUBLIC 'CODE'
_TEXT	ENDS
;	COMDAT ??HCTime@ATL@@QBE?AV01@VCTimeSpan@1@@Z
_TEXT	SEGMENT PARA USE32 PUBLIC 'CODE'
_TEXT	ENDS
;	COMDAT ?GetTimeSpan@CTimeSpan@ATL@@QBE_JXZ
_TEXT	SEGMENT PARA USE32 PUBLIC 'CODE'
_TEXT	ENDS
;	COMDAT ?GetItemProp@CProject@@QAEPAUItemProp@@H@Z
_TEXT	SEGMENT PARA USE32 PUBLIC 'CODE'
_TEXT	ENDS
;	COMDAT ?GetAt@?$CFixedArray@UItemProp@@@@QAEPAUItemProp@@K@Z
_TEXT	SEGMENT PARA USE32 PUBLIC 'CODE'
_TEXT	ENDS
;	COMDAT ??0D3DXVECTOR3@@QAE@MMM@Z
_TEXT	SEGMENT PARA USE32 PUBLIC 'CODE'
_TEXT	ENDS
;	COMDAT ??5CAr@@QAEAAV0@AAH@Z
_TEXT	SEGMENT PARA USE32 PUBLIC 'CODE'
_TEXT	ENDS
;	COMDAT ??6CAr@@QAEAAV0@H@Z
_TEXT	SEGMENT PARA USE32 PUBLIC 'CODE'
_TEXT	ENDS
;	COMDAT ??_7CLordSkillComponentExecutable@@6B@
CONST	SEGMENT DWORD USE32 PUBLIC 'CONST'
CONST	ENDS
;	COMDAT ??_7bad_weak_ptr@boost@@6B@
CONST	SEGMENT DWORD USE32 PUBLIC 'CONST'
CONST	ENDS
;	COMDAT ??_7sp_counted_base@detail@boost@@6B@
CONST	SEGMENT DWORD USE32 PUBLIC 'CONST'
CONST	ENDS
sxdata	SEGMENT DWORD USE32 'SXDATA'
sxdata	ENDS
FLAT	GROUP _DATA, CONST, _BSS
	ASSUME	CS: FLAT, DS: FLAT, SS: FLAT
endif

INCLUDELIB LIBCMT
INCLUDELIB OLDNAMES

PUBLIC	?GetQueryObject@CDbController@@QAEPAVCQuery@@XZ	; CDbController::GetQueryObject
; Function compile flags: /Ogty
; File c:\documents and settings\test\mes documents\source\virtuos_v17\build\program\databaseserver\dbcontroller.h
;	COMDAT ?GetQueryObject@CDbController@@QAEPAVCQuery@@XZ
_TEXT	SEGMENT
?GetQueryObject@CDbController@@QAEPAVCQuery@@XZ PROC NEAR ; CDbController::GetQueryObject, COMDAT
; _this$ = ecx

; 20   : 	CQuery*	GetQueryObject( void )	{	return m_pQuery;	}

  00000	8b 41 0c	 mov	 eax, DWORD PTR [ecx+12]
  00003	c3		 ret	 0
?GetQueryObject@CDbController@@QAEPAVCQuery@@XZ ENDP	; CDbController::GetQueryObject
_TEXT	ENDS
PUBLIC	?PostRequest@CSecretRoomDBMng@@QAEHHPAEHK@Z	; CSecretRoomDBMng::PostRequest
EXTRN	?PostRequest@CDbController@@QAEHHPAEHK@Z:NEAR	; CDbController::PostRequest
; Function compile flags: /Ogty
; File c:\documents and settings\test\mes documents\source\virtuos_v17\build\program\databaseserver\secretroomdbmng.cpp
;	COMDAT ?PostRequest@CSecretRoomDBMng@@QAEHHPAEHK@Z
_TEXT	SEGMENT
_nQuery$ = 8						; size = 4
_lpBuf$ = 12						; size = 4
_nBufSize$ = 16						; size = 4
_dwCompletionKey$ = 20					; size = 4
?PostRequest@CSecretRoomDBMng@@QAEHHPAEHK@Z PROC NEAR	; CSecretRoomDBMng::PostRequest, COMDAT
; _this$ = ecx

; 30   : 	return m_SRDbController.PostRequest( nQuery, lpBuf, nBufSize, dwCompletionKey );

  00000	e9 00 00 00 00	 jmp	 ?PostRequest@CDbController@@QAEHHPAEHK@Z ; CDbController::PostRequest
?PostRequest@CSecretRoomDBMng@@QAEHHPAEHK@Z ENDP	; CSecretRoomDBMng::PostRequest
_TEXT	ENDS
PUBLIC	?OnTimer@CDbController@@UAEXXZ			; CDbController::OnTimer
PUBLIC	??0CSecretRoomDbController@@QAE@XZ		; CSecretRoomDbController::CSecretRoomDbController
PUBLIC	?Handler@CSecretRoomDbController@@UAEXPAUtagDB_OVERLAPPED_PLUS@@K@Z ; CSecretRoomDbController::Handler
PUBLIC	??_7CSecretRoomDbController@@6B@		; CSecretRoomDbController::`vftable'
PUBLIC	??_GCSecretRoomDbController@@UAEPAXI@Z		; CSecretRoomDbController::`scalar deleting destructor'
EXTRN	??0CDbController@@QAE@XZ:NEAR			; CDbController::CDbController
EXTRN	??_ECSecretRoomDbController@@UAEPAXI@Z:NEAR	; CSecretRoomDbController::`vector deleting destructor'
;	COMDAT ??_7CSecretRoomDbController@@6B@
CONST	SEGMENT
??_7CSecretRoomDbController@@6B@ DD FLAT:??_ECSecretRoomDbController@@UAEPAXI@Z ; CSecretRoomDbController::`vftable'
	DD	FLAT:?Handler@CSecretRoomDbController@@UAEXPAUtagDB_OVERLAPPED_PLUS@@K@Z
	DD	FLAT:?OnTimer@CDbController@@UAEXXZ
; Function compile flags: /Ogty
CONST	ENDS
;	COMDAT ??0CSecretRoomDbController@@QAE@XZ
_TEXT	SEGMENT
??0CSecretRoomDbController@@QAE@XZ PROC NEAR		; CSecretRoomDbController::CSecretRoomDbController, COMDAT
; _this$ = ecx

; 40   : {

  00000	56		 push	 esi
  00001	8b f1		 mov	 esi, ecx
  00003	e8 00 00 00 00	 call	 ??0CDbController@@QAE@XZ ; CDbController::CDbController
  00008	c7 06 00 00 00
	00		 mov	 DWORD PTR [esi], OFFSET FLAT:??_7CSecretRoomDbController@@6B@
  0000e	c7 46 14 00 00
	00 00		 mov	 DWORD PTR [esi+20], 0

; 41   : }

  00015	8b c6		 mov	 eax, esi
  00017	5e		 pop	 esi
  00018	c3		 ret	 0
??0CSecretRoomDbController@@QAE@XZ ENDP			; CSecretRoomDbController::CSecretRoomDbController
; Function compile flags: /Ogty
; File c:\documents and settings\test\mes documents\source\virtuos_v17\build\program\databaseserver\dbcontroller.h
_TEXT	ENDS
;	COMDAT ?OnTimer@CDbController@@UAEXXZ
_TEXT	SEGMENT
?OnTimer@CDbController@@UAEXXZ PROC NEAR		; CDbController::OnTimer, COMDAT
; _this$ = ecx

; 26   : 	virtual void	OnTimer()	{}

  00000	c3		 ret	 0
?OnTimer@CDbController@@UAEXXZ ENDP			; CDbController::OnTimer
_TEXT	ENDS
PUBLIC	??1CSecretRoomDbController@@UAE@XZ		; CSecretRoomDbController::~CSecretRoomDbController
EXTRN	??1CDbController@@UAE@XZ:NEAR			; CDbController::~CDbController
; Function compile flags: /Ogty
; File c:\documents and settings\test\mes documents\source\virtuos_v17\build\program\databaseserver\secretroomdbmng.cpp
;	COMDAT ??1CSecretRoomDbController@@UAE@XZ
_TEXT	SEGMENT
??1CSecretRoomDbController@@UAE@XZ PROC NEAR		; CSecretRoomDbController::~CSecretRoomDbController, COMDAT
; _this$ = ecx

; 44   : {

  00000	c7 01 00 00 00
	00		 mov	 DWORD PTR [ecx], OFFSET FLAT:??_7CSecretRoomDbController@@6B@

; 45   : }

  00006	e9 00 00 00 00	 jmp	 ??1CDbController@@UAE@XZ ; CDbController::~CDbController
??1CSecretRoomDbController@@UAE@XZ ENDP			; CSecretRoomDbController::~CSecretRoomDbController
_TEXT	ENDS
PUBLIC	??_C@_0BG@NIIAKECF@?4?2SecretRoomDBMng?4cpp?$AA@ ; `string'
PUBLIC	??_C@_0DP@BOHJKIPD@SECRET_ROOM_STR?5?8I1?8?0?5?8?$CF02d?8?0?5?$CFd@ ; `string'
PUBLIC	??_C@_09GBAEEKDE@?$CFs?0?5?$CFd?7?$CFs?$AA@	; `string'
PUBLIC	?InsertTenderToDB@CSecretRoomDbController@@AAEXEKH@Z ; CSecretRoomDbController::InsertTenderToDB
EXTRN	?Exec@CQuery@@QAEHPBD@Z:NEAR			; CQuery::Exec
EXTRN	?WriteLog@@YAXPBDZZ:NEAR			; WriteLog
EXTRN	?g_appInfo@@3UAppInfo@@A:QWORD			; g_appInfo
EXTRN	_sprintf:NEAR
EXTRN	__chkstk:NEAR
EXTRN	___security_cookie:DWORD
EXTRN	@__security_check_cookie@4:NEAR
;	COMDAT ??_C@_0DP@BOHJKIPD@SECRET_ROOM_STR?5?8I1?8?0?5?8?$CF02d?8?0?5?$CFd@
; File c:\documents and settings\test\mes documents\source\virtuos_v17\build\program\databaseserver\dbcontroller.h
CONST	SEGMENT
??_C@_0DP@BOHJKIPD@SECRET_ROOM_STR?5?8I1?8?0?5?8?$CF02d?8?0?5?$CFd@ DB 'S'
	DB	'ECRET_ROOM_STR ''I1'', ''%02d'', %d, %d, ''%06d'', %d, ''T'','
	DB	' 0, 0, 0', 00H				; `string'
CONST	ENDS
;	COMDAT ??_C@_0BG@NIIAKECF@?4?2SecretRoomDBMng?4cpp?$AA@
CONST	SEGMENT
??_C@_0BG@NIIAKECF@?4?2SecretRoomDBMng?4cpp?$AA@ DB '.\SecretRoomDBMng.cp'
	DB	'p', 00H					; `string'
CONST	ENDS
;	COMDAT ??_C@_09GBAEEKDE@?$CFs?0?5?$CFd?7?$CFs?$AA@
CONST	SEGMENT
??_C@_09GBAEEKDE@?$CFs?0?5?$CFd?7?$CFs?$AA@ DB '%s, %d', 09H, '%s', 00H ; `string'
; Function compile flags: /Ogty
; File c:\documents and settings\test\mes documents\source\virtuos_v17\build\program\databaseserver\secretroomdbmng.cpp
CONST	ENDS
;	COMDAT ?InsertTenderToDB@CSecretRoomDbController@@AAEXEKH@Z
_TEXT	SEGMENT
_szQuery$ = -40968					; size = 40960
__$ArrayPad$ = -4					; size = 4
__$ReturnAddr$ = 4					; size = 4
_nContinent$ = 8					; size = 1
_dwGuildId$ = 12					; size = 4
_nPenya$ = 16						; size = 4
?InsertTenderToDB@CSecretRoomDbController@@AAEXEKH@Z PROC NEAR ; CSecretRoomDbController::InsertTenderToDB, COMDAT
; _this$ = ecx

; 161  : {

  00000	55		 push	 ebp
  00001	8b ec		 mov	 ebp, esp
  00003	83 e4 f8	 and	 esp, -8			; fffffff8H
  00006	b8 08 a0 00 00	 mov	 eax, 40968		; 0000a008H
  0000b	e8 00 00 00 00	 call	 __chkstk
  00010	a1 00 00 00 00	 mov	 eax, DWORD PTR ___security_cookie
  00015	56		 push	 esi
  00016	57		 push	 edi
  00017	33 c5		 xor	 eax, ebp
  00019	89 84 24 0c a0
	00 00		 mov	 DWORD PTR __$ArrayPad$[esp+40976], eax
  00020	8b d1		 mov	 edx, ecx

; 162  : 	CQuery* pQuery = GetQueryObject();

  00022	8b 72 0c	 mov	 esi, DWORD PTR [edx+12]

; 163  : 	char szQuery[QUERY_SIZE] = {0,};

  00025	33 c0		 xor	 eax, eax
  00027	c6 44 24 08 00	 mov	 BYTE PTR _szQuery$[esp+40976], 0
  0002c	b9 ff 27 00 00	 mov	 ecx, 10239		; 000027ffH
  00031	8d 7c 24 09	 lea	 edi, DWORD PTR _szQuery$[esp+40977]
  00035	f3 ab		 rep stosd

; 164  : 
; 165  : 	//   Insert
; 166  : 	sprintf( szQuery, "SECRET_ROOM_STR 'I1', '%02d', %d, %d, '%06d', %d, 'T', 0, 0, 0",
; 167  : 						g_appInfo.dwSys, m_nTimes, nContinent, dwGuildId, nPenya );

  00037	8b 4d 0c	 mov	 ecx, DWORD PTR _dwGuildId$[ebp]
  0003a	66 ab		 stosw
  0003c	aa		 stosb
  0003d	8b 45 10	 mov	 eax, DWORD PTR _nPenya$[ebp]
  00040	50		 push	 eax
  00041	0f b6 45 08	 movzx	 eax, BYTE PTR _nContinent$[ebp]
  00045	51		 push	 ecx
  00046	8b 4a 14	 mov	 ecx, DWORD PTR [edx+20]
  00049	8b 15 00 00 00
	00		 mov	 edx, DWORD PTR ?g_appInfo@@3UAppInfo@@A
  0004f	50		 push	 eax
  00050	51		 push	 ecx
  00051	52		 push	 edx
  00052	8d 44 24 1c	 lea	 eax, DWORD PTR _szQuery$[esp+40996]
  00056	68 00 00 00 00	 push	 OFFSET FLAT:??_C@_0DP@BOHJKIPD@SECRET_ROOM_STR?5?8I1?8?0?5?8?$CF02d?8?0?5?$CFd@
  0005b	50		 push	 eax
  0005c	e8 00 00 00 00	 call	 _sprintf
  00061	83 c4 1c	 add	 esp, 28			; 0000001cH

; 168  : 	if( pQuery->Exec( szQuery ) == FALSE )

  00064	8d 4c 24 08	 lea	 ecx, DWORD PTR _szQuery$[esp+40976]
  00068	51		 push	 ecx
  00069	8b ce		 mov	 ecx, esi
  0006b	e8 00 00 00 00	 call	 ?Exec@CQuery@@QAEHPBD@Z	; CQuery::Exec
  00070	85 c0		 test	 eax, eax
  00072	75 1c		 jne	 SHORT $L198208

; 169  : 	{ WriteLog( "%s, %d\t%s", __FILE__, __LINE__, szQuery ); return; }

  00074	8d 54 24 08	 lea	 edx, DWORD PTR _szQuery$[esp+40976]
  00078	52		 push	 edx
  00079	68 a9 00 00 00	 push	 169			; 000000a9H
  0007e	68 00 00 00 00	 push	 OFFSET FLAT:??_C@_0BG@NIIAKECF@?4?2SecretRoomDBMng?4cpp?$AA@
  00083	68 00 00 00 00	 push	 OFFSET FLAT:??_C@_09GBAEEKDE@?$CFs?0?5?$CFd?7?$CFs?$AA@
  00088	e8 00 00 00 00	 call	 ?WriteLog@@YAXPBDZZ	; WriteLog
  0008d	83 c4 10	 add	 esp, 16			; 00000010H
$L198208:

; 170  : }

  00090	8b 8c 24 0c a0
	00 00		 mov	 ecx, DWORD PTR __$ArrayPad$[esp+40976]
  00097	5f		 pop	 edi
  00098	33 cd		 xor	 ecx, ebp
  0009a	5e		 pop	 esi
  0009b	e8 00 00 00 00	 call	 @__security_check_cookie@4
  000a0	8b e5		 mov	 esp, ebp
  000a2	5d		 pop	 ebp
  000a3	c2 0c 00	 ret	 12			; 0000000cH
?InsertTenderToDB@CSecretRoomDbController@@AAEXEKH@Z ENDP ; CSecretRoomDbController::InsertTenderToDB
_TEXT	ENDS
PUBLIC	??_C@_0ED@ODGBHELB@SECRET_ROOM_STR?5?8U2?8?0?5?8?$CF02d?8?0?5?$CFd@ ; `string'
PUBLIC	??_C@_0EA@IECOBPGC@SECRET_ROOM_STR?5?8U1?8?0?5?8?$CF02d?8?0?5?$CFd@ ; `string'
PUBLIC	?UpdateTenderToDB@CSecretRoomDbController@@AAEXEKHDKHH@Z ; CSecretRoomDbController::UpdateTenderToDB
;	COMDAT ??_C@_0EA@IECOBPGC@SECRET_ROOM_STR?5?8U1?8?0?5?8?$CF02d?8?0?5?$CFd@
; File c:\documents and settings\test\mes documents\source\virtuos_v17\build\program\databaseserver\dbcontroller.h
CONST	SEGMENT
??_C@_0EA@IECOBPGC@SECRET_ROOM_STR?5?8U1?8?0?5?8?$CF02d?8?0?5?$CFd@ DB 'S'
	DB	'ECRET_ROOM_STR ''U1'', ''%02d'', %d, %d, ''%06d'', %d, ''%c'''
	DB	', 0, 0, 0', 00H				; `string'
CONST	ENDS
;	COMDAT ??_C@_0ED@ODGBHELB@SECRET_ROOM_STR?5?8U2?8?0?5?8?$CF02d?8?0?5?$CFd@
CONST	SEGMENT
??_C@_0ED@ODGBHELB@SECRET_ROOM_STR?5?8U2?8?0?5?8?$CF02d?8?0?5?$CFd@ DB 'S'
	DB	'ECRET_ROOM_STR ''U2'', ''%02d'', %d, %d, ''%06d'', %d, ''%c'''
	DB	', %d, %d, %d', 00H				; `string'
; Function compile flags: /Ogty
; File c:\documents and settings\test\mes documents\source\virtuos_v17\build\program\databaseserver\secretroomdbmng.cpp
CONST	ENDS
;	COMDAT ?UpdateTenderToDB@CSecretRoomDbController@@AAEXEKHDKHH@Z
_TEXT	SEGMENT
_szQuery$ = -40968					; size = 40960
__$ArrayPad$ = -4					; size = 4
__$ReturnAddr$ = 4					; size = 4
_nContinent$ = 8					; size = 1
_dwGuildId$ = 12					; size = 4
_nPenya$ = 16						; size = 4
_chState$ = 20						; size = 1
_dwWorldId$ = 24					; size = 4
_nWarState$ = 28					; size = 4
_nKillCount$ = 32					; size = 4
?UpdateTenderToDB@CSecretRoomDbController@@AAEXEKHDKHH@Z PROC NEAR ; CSecretRoomDbController::UpdateTenderToDB, COMDAT
; _this$ = ecx

; 173  : {

  00000	55		 push	 ebp
  00001	8b ec		 mov	 ebp, esp
  00003	83 e4 f8	 and	 esp, -8			; fffffff8H
  00006	b8 08 a0 00 00	 mov	 eax, 40968		; 0000a008H
  0000b	e8 00 00 00 00	 call	 __chkstk
  00010	a1 00 00 00 00	 mov	 eax, DWORD PTR ___security_cookie
  00015	33 c5		 xor	 eax, ebp
  00017	89 84 24 04 a0
	00 00		 mov	 DWORD PTR __$ArrayPad$[esp+40968], eax
  0001e	56		 push	 esi
  0001f	57		 push	 edi
  00020	8b d1		 mov	 edx, ecx

; 174  : 	CQuery* pQuery = GetQueryObject();

  00022	8b 72 0c	 mov	 esi, DWORD PTR [edx+12]

; 175  : 	char szQuery[QUERY_SIZE] = {0,};

  00025	33 c0		 xor	 eax, eax
  00027	c6 44 24 08 00	 mov	 BYTE PTR _szQuery$[esp+40976], 0
  0002c	b9 ff 27 00 00	 mov	 ecx, 10239		; 000027ffH
  00031	8d 7c 24 09	 lea	 edi, DWORD PTR _szQuery$[esp+40977]
  00035	f3 ab		 rep stosd
  00037	66 ab		 stosw
  00039	aa		 stosb

; 176  : 
; 177  : 	//   Update
; 178  : 	if( chState == 'W' || chState == 'L' )		// ,  

  0003a	8a 45 14	 mov	 al, BYTE PTR _chState$[ebp]
  0003d	3c 57		 cmp	 al, 87			; 00000057H
  0003f	74 33		 je	 SHORT $L198222
  00041	3c 4c		 cmp	 al, 76			; 0000004cH
  00043	74 2f		 je	 SHORT $L198222

; 181  : 	else	//  Update(     )
; 182  : 		sprintf( szQuery, "SECRET_ROOM_STR 'U1', '%02d', %d, %d, '%06d', %d, '%c', 0, 0, 0",
; 183  : 				g_appInfo.dwSys, m_nTimes, nContinent, dwGuildId, nPenya, chState );

  00045	8b 4d 10	 mov	 ecx, DWORD PTR _nPenya$[ebp]
  00048	8b 52 14	 mov	 edx, DWORD PTR [edx+20]
  0004b	0f be c0	 movsx	 eax, al
  0004e	50		 push	 eax
  0004f	8b 45 0c	 mov	 eax, DWORD PTR _dwGuildId$[ebp]
  00052	51		 push	 ecx
  00053	0f b6 4d 08	 movzx	 ecx, BYTE PTR _nContinent$[ebp]
  00057	50		 push	 eax
  00058	a1 00 00 00 00	 mov	 eax, DWORD PTR ?g_appInfo@@3UAppInfo@@A
  0005d	51		 push	 ecx
  0005e	52		 push	 edx
  0005f	50		 push	 eax
  00060	8d 4c 24 20	 lea	 ecx, DWORD PTR _szQuery$[esp+41000]
  00064	68 00 00 00 00	 push	 OFFSET FLAT:??_C@_0EA@IECOBPGC@SECRET_ROOM_STR?5?8U1?8?0?5?8?$CF02d?8?0?5?$CFd@
  00069	51		 push	 ecx
  0006a	e8 00 00 00 00	 call	 _sprintf
  0006f	83 c4 20	 add	 esp, 32			; 00000020H
  00072	eb 39		 jmp	 SHORT $L198224
$L198222:

; 179  : 		sprintf( szQuery, "SECRET_ROOM_STR 'U2', '%02d', %d, %d, '%06d', %d, '%c', %d, %d, %d",
; 180  : 				g_appInfo.dwSys, m_nTimes, nContinent, dwGuildId, nPenya, chState, dwWorldId, nWarState, nKillCount );

  00074	8b 4d 20	 mov	 ecx, DWORD PTR _nKillCount$[ebp]
  00077	8b 52 14	 mov	 edx, DWORD PTR [edx+20]
  0007a	51		 push	 ecx
  0007b	8b 4d 1c	 mov	 ecx, DWORD PTR _nWarState$[ebp]
  0007e	51		 push	 ecx
  0007f	8b 4d 18	 mov	 ecx, DWORD PTR _dwWorldId$[ebp]
  00082	51		 push	 ecx
  00083	8b 4d 10	 mov	 ecx, DWORD PTR _nPenya$[ebp]
  00086	0f be c0	 movsx	 eax, al
  00089	50		 push	 eax
  0008a	8b 45 0c	 mov	 eax, DWORD PTR _dwGuildId$[ebp]
  0008d	51		 push	 ecx
  0008e	0f b6 4d 08	 movzx	 ecx, BYTE PTR _nContinent$[ebp]
  00092	50		 push	 eax
  00093	a1 00 00 00 00	 mov	 eax, DWORD PTR ?g_appInfo@@3UAppInfo@@A
  00098	51		 push	 ecx
  00099	52		 push	 edx
  0009a	50		 push	 eax
  0009b	8d 4c 24 2c	 lea	 ecx, DWORD PTR _szQuery$[esp+41012]
  0009f	68 00 00 00 00	 push	 OFFSET FLAT:??_C@_0ED@ODGBHELB@SECRET_ROOM_STR?5?8U2?8?0?5?8?$CF02d?8?0?5?$CFd@
  000a4	51		 push	 ecx
  000a5	e8 00 00 00 00	 call	 _sprintf
  000aa	83 c4 2c	 add	 esp, 44			; 0000002cH
$L198224:

; 184  : 	
; 185  : 	if( pQuery->Exec( szQuery ) == FALSE )

  000ad	8d 54 24 08	 lea	 edx, DWORD PTR _szQuery$[esp+40976]
  000b1	52		 push	 edx
  000b2	8b ce		 mov	 ecx, esi
  000b4	e8 00 00 00 00	 call	 ?Exec@CQuery@@QAEHPBD@Z	; CQuery::Exec
  000b9	85 c0		 test	 eax, eax
  000bb	75 1c		 jne	 SHORT $L198226

; 186  : 	{ WriteLog( "%s, %d\t%s", __FILE__, __LINE__, szQuery ); return; }

  000bd	8d 44 24 08	 lea	 eax, DWORD PTR _szQuery$[esp+40976]
  000c1	50		 push	 eax
  000c2	68 ba 00 00 00	 push	 186			; 000000baH
  000c7	68 00 00 00 00	 push	 OFFSET FLAT:??_C@_0BG@NIIAKECF@?4?2SecretRoomDBMng?4cpp?$AA@
  000cc	68 00 00 00 00	 push	 OFFSET FLAT:??_C@_09GBAEEKDE@?$CFs?0?5?$CFd?7?$CFs?$AA@
  000d1	e8 00 00 00 00	 call	 ?WriteLog@@YAXPBDZZ	; WriteLog
  000d6	83 c4 10	 add	 esp, 16			; 00000010H
$L198226:

; 187  : }

  000d9	8b 8c 24 0c a0
	00 00		 mov	 ecx, DWORD PTR __$ArrayPad$[esp+40976]
  000e0	5f		 pop	 edi
  000e1	33 cd		 xor	 ecx, ebp
  000e3	5e		 pop	 esi
  000e4	e8 00 00 00 00	 call	 @__security_check_cookie@4
  000e9	8b e5		 mov	 esp, ebp
  000eb	5d		 pop	 ebp
  000ec	c2 1c 00	 ret	 28			; 0000001cH
?UpdateTenderToDB@CSecretRoomDbController@@AAEXEKHDKHH@Z ENDP ; CSecretRoomDbController::UpdateTenderToDB
_TEXT	ENDS
PUBLIC	?size@?$vector@KV?$allocator@K@std@@@std@@QBEIXZ ; std::vector<unsigned long,std::allocator<unsigned long> >::size
; Function compile flags: /Ogty
; File c:\program files\microsoft visual studio .net 2003\vc7\include\vector
;	COMDAT ?size@?$vector@KV?$allocator@K@std@@@std@@QBEIXZ
_TEXT	SEGMENT
?size@?$vector@KV?$allocator@K@std@@@std@@QBEIXZ PROC NEAR ; std::vector<unsigned long,std::allocator<unsigned long> >::size, COMDAT
; _this$ = ecx

; 516  : 		return (_Myfirst == 0 ? 0 : _Mylast - _Myfirst);

  00000	8b 51 04	 mov	 edx, DWORD PTR [ecx+4]
  00003	85 d2		 test	 edx, edx
  00005	75 03		 jne	 SHORT $L200381
  00007	33 c0		 xor	 eax, eax

; 517  : 		}

  00009	c3		 ret	 0
$L200381:

; 516  : 		return (_Myfirst == 0 ? 0 : _Mylast - _Myfirst);

  0000a	8b 41 08	 mov	 eax, DWORD PTR [ecx+8]
  0000d	2b c2		 sub	 eax, edx
  0000f	c1 f8 02	 sar	 eax, 2

; 517  : 		}

  00012	c3		 ret	 0
?size@?$vector@KV?$allocator@K@std@@@std@@QBEIXZ ENDP	; std::vector<unsigned long,std::allocator<unsigned long> >::size
_TEXT	ENDS
PUBLIC	?size@?$vector@EV?$allocator@E@std@@@std@@QBEIXZ ; std::vector<unsigned char,std::allocator<unsigned char> >::size
; Function compile flags: /Ogty
;	COMDAT ?size@?$vector@EV?$allocator@E@std@@@std@@QBEIXZ
_TEXT	SEGMENT
?size@?$vector@EV?$allocator@E@std@@@std@@QBEIXZ PROC NEAR ; std::vector<unsigned char,std::allocator<unsigned char> >::size, COMDAT
; _this$ = ecx

; 516  : 		return (_Myfirst == 0 ? 0 : _Mylast - _Myfirst);

  00000	8b 51 04	 mov	 edx, DWORD PTR [ecx+4]
  00003	85 d2		 test	 edx, edx
  00005	75 03		 jne	 SHORT $L200385
  00007	33 c0		 xor	 eax, eax

; 517  : 		}

  00009	c3		 ret	 0
$L200385:

; 516  : 		return (_Myfirst == 0 ? 0 : _Mylast - _Myfirst);

  0000a	8b 41 08	 mov	 eax, DWORD PTR [ecx+8]
  0000d	2b c2		 sub	 eax, edx

; 517  : 		}

  0000f	c3		 ret	 0
?size@?$vector@EV?$allocator@E@std@@@std@@QBEIXZ ENDP	; std::vector<unsigned char,std::allocator<unsigned char> >::size
_TEXT	ENDS
PUBLIC	??0?$allocator@E@std@@QAE@XZ			; std::allocator<unsigned char>::allocator<unsigned char>
; Function compile flags: /Ogty
; File c:\program files\microsoft visual studio .net 2003\vc7\include\xmemory
;	COMDAT ??0?$allocator@E@std@@QAE@XZ
_TEXT	SEGMENT
??0?$allocator@E@std@@QAE@XZ PROC NEAR			; std::allocator<unsigned char>::allocator<unsigned char>, COMDAT
; _this$ = ecx

; 111  : 	allocator()

  00000	8b c1		 mov	 eax, ecx

; 112  : 		{	// construct default allocator (do nothing)
; 113  : 		}

  00002	c3		 ret	 0
??0?$allocator@E@std@@QAE@XZ ENDP			; std::allocator<unsigned char>::allocator<unsigned char>
_TEXT	ENDS
PUBLIC	?capacity@?$vector@KV?$allocator@K@std@@@std@@QBEIXZ ; std::vector<unsigned long,std::allocator<unsigned long> >::capacity
; Function compile flags: /Ogty
; File c:\program files\microsoft visual studio .net 2003\vc7\include\vector
;	COMDAT ?capacity@?$vector@KV?$allocator@K@std@@@std@@QBEIXZ
_TEXT	SEGMENT
?capacity@?$vector@KV?$allocator@K@std@@@std@@QBEIXZ PROC NEAR ; std::vector<unsigned long,std::allocator<unsigned long> >::capacity, COMDAT
; _this$ = ecx

; 458  : 		return (_Myfirst == 0 ? 0 : _Myend - _Myfirst);

  00000	8b 51 04	 mov	 edx, DWORD PTR [ecx+4]
  00003	85 d2		 test	 edx, edx
  00005	75 03		 jne	 SHORT $L200391
  00007	33 c0		 xor	 eax, eax

; 459  : 		}

  00009	c3		 ret	 0
$L200391:

; 458  : 		return (_Myfirst == 0 ? 0 : _Myend - _Myfirst);

  0000a	8b 41 0c	 mov	 eax, DWORD PTR [ecx+12]
  0000d	2b c2		 sub	 eax, edx
  0000f	c1 f8 02	 sar	 eax, 2

; 459  : 		}

  00012	c3		 ret	 0
?capacity@?$vector@KV?$allocator@K@std@@@std@@QBEIXZ ENDP ; std::vector<unsigned long,std::allocator<unsigned long> >::capacity
_TEXT	ENDS
PUBLIC	??0?$allocator@H@std@@QAE@XZ			; std::allocator<int>::allocator<int>
; Function compile flags: /Ogty
; File c:\program files\microsoft visual studio .net 2003\vc7\include\xmemory
;	COMDAT ??0?$allocator@H@std@@QAE@XZ
_TEXT	SEGMENT
??0?$allocator@H@std@@QAE@XZ PROC NEAR			; std::allocator<int>::allocator<int>, COMDAT
; _this$ = ecx

; 111  : 	allocator()

  00000	8b c1		 mov	 eax, ecx

; 112  : 		{	// construct default allocator (do nothing)
; 113  : 		}

  00002	c3		 ret	 0
??0?$allocator@H@std@@QAE@XZ ENDP			; std::allocator<int>::allocator<int>
_TEXT	ENDS
PUBLIC	?capacity@?$vector@HV?$allocator@H@std@@@std@@QBEIXZ ; std::vector<int,std::allocator<int> >::capacity
; Function compile flags: /Ogty
; File c:\program files\microsoft visual studio .net 2003\vc7\include\vector
;	COMDAT ?capacity@?$vector@HV?$allocator@H@std@@@std@@QBEIXZ
_TEXT	SEGMENT
?capacity@?$vector@HV?$allocator@H@std@@@std@@QBEIXZ PROC NEAR ; std::vector<int,std::allocator<int> >::capacity, COMDAT
; _this$ = ecx

; 458  : 		return (_Myfirst == 0 ? 0 : _Myend - _Myfirst);

  00000	8b 51 04	 mov	 edx, DWORD PTR [ecx+4]
  00003	85 d2		 test	 edx, edx
  00005	75 03		 jne	 SHORT $L200397
  00007	33 c0		 xor	 eax, eax

; 459  : 		}

  00009	c3		 ret	 0
$L200397:

; 458  : 		return (_Myfirst == 0 ? 0 : _Myend - _Myfirst);

  0000a	8b 41 0c	 mov	 eax, DWORD PTR [ecx+12]
  0000d	2b c2		 sub	 eax, edx
  0000f	c1 f8 02	 sar	 eax, 2

; 459  : 		}

  00012	c3		 ret	 0
?capacity@?$vector@HV?$allocator@H@std@@@std@@QBEIXZ ENDP ; std::vector<int,std::allocator<int> >::capacity
_TEXT	ENDS
PUBLIC	?size@?$vector@HV?$allocator@H@std@@@std@@QBEIXZ ; std::vector<int,std::allocator<int> >::size
; Function compile flags: /Ogty
;	COMDAT ?size@?$vector@HV?$allocator@H@std@@@std@@QBEIXZ
_TEXT	SEGMENT
?size@?$vector@HV?$allocator@H@std@@@std@@QBEIXZ PROC NEAR ; std::vector<int,std::allocator<int> >::size, COMDAT
; _this$ = ecx

; 516  : 		return (_Myfirst == 0 ? 0 : _Mylast - _Myfirst);

  00000	8b 51 04	 mov	 edx, DWORD PTR [ecx+4]
  00003	85 d2		 test	 edx, edx
  00005	75 03		 jne	 SHORT $L200401
  00007	33 c0		 xor	 eax, eax

; 517  : 		}

  00009	c3		 ret	 0
$L200401:

; 516  : 		return (_Myfirst == 0 ? 0 : _Mylast - _Myfirst);

  0000a	8b 41 08	 mov	 eax, DWORD PTR [ecx+8]
  0000d	2b c2		 sub	 eax, edx
  0000f	c1 f8 02	 sar	 eax, 2

; 517  : 		}

  00012	c3		 ret	 0
?size@?$vector@HV?$allocator@H@std@@@std@@QBEIXZ ENDP	; std::vector<int,std::allocator<int> >::size
_TEXT	ENDS
PUBLIC	?capacity@?$vector@EV?$allocator@E@std@@@std@@QBEIXZ ; std::vector<unsigned char,std::allocator<unsigned char> >::capacity
; Function compile flags: /Ogty
;	COMDAT ?capacity@?$vector@EV?$allocator@E@std@@@std@@QBEIXZ
_TEXT	SEGMENT
?capacity@?$vector@EV?$allocator@E@std@@@std@@QBEIXZ PROC NEAR ; std::vector<unsigned char,std::allocator<unsigned char> >::capacity, COMDAT
; _this$ = ecx

; 458  : 		return (_Myfirst == 0 ? 0 : _Myend - _Myfirst);

  00000	8b 51 04	 mov	 edx, DWORD PTR [ecx+4]
  00003	85 d2		 test	 edx, edx
  00005	75 03		 jne	 SHORT $L200405
  00007	33 c0		 xor	 eax, eax

; 459  : 		}

  00009	c3		 ret	 0
$L200405:

; 458  : 		return (_Myfirst == 0 ? 0 : _Myend - _Myfirst);

  0000a	8b 41 0c	 mov	 eax, DWORD PTR [ecx+12]
  0000d	2b c2		 sub	 eax, edx

; 459  : 		}

  0000f	c3		 ret	 0
?capacity@?$vector@EV?$allocator@E@std@@@std@@QBEIXZ ENDP ; std::vector<unsigned char,std::allocator<unsigned char> >::capacity
_TEXT	ENDS
PUBLIC	??0?$allocator@E@std@@QAE@ABV01@@Z		; std::allocator<unsigned char>::allocator<unsigned char>
; Function compile flags: /Ogty
; File c:\program files\microsoft visual studio .net 2003\vc7\include\xmemory
;	COMDAT ??0?$allocator@E@std@@QAE@ABV01@@Z
_TEXT	SEGMENT
___formal$ = 8						; size = 4
??0?$allocator@E@std@@QAE@ABV01@@Z PROC NEAR		; std::allocator<unsigned char>::allocator<unsigned char>, COMDAT
; _this$ = ecx

; 115  : 	allocator(const allocator<_Ty>&)

  00000	8b c1		 mov	 eax, ecx

; 116  : 		{	// construct by copying (do nothing)
; 117  : 		}

  00002	c2 04 00	 ret	 4
??0?$allocator@E@std@@QAE@ABV01@@Z ENDP			; std::allocator<unsigned char>::allocator<unsigned char>
_TEXT	ENDS
PUBLIC	?deallocate@?$allocator@E@std@@QAEXPAEI@Z	; std::allocator<unsigned char>::deallocate
EXTRN	??3@YAXPAX@Z:NEAR				; operator delete
; Function compile flags: /Ogty
;	COMDAT ?deallocate@?$allocator@E@std@@QAEXPAEI@Z
_TEXT	SEGMENT
__Ptr$ = 8						; size = 4
___formal$ = 12						; size = 4
?deallocate@?$allocator@E@std@@QAEXPAEI@Z PROC NEAR	; std::allocator<unsigned char>::deallocate, COMDAT
; _this$ = ecx

; 132  : 		operator delete(_Ptr);

  00000	8b 44 24 04	 mov	 eax, DWORD PTR __Ptr$[esp-4]
  00004	50		 push	 eax
  00005	e8 00 00 00 00	 call	 ??3@YAXPAX@Z		; operator delete
  0000a	59		 pop	 ecx

; 133  : 		}

  0000b	c2 08 00	 ret	 8
?deallocate@?$allocator@E@std@@QAEXPAEI@Z ENDP		; std::allocator<unsigned char>::deallocate
_TEXT	ENDS
PUBLIC	??0?$allocator@H@std@@QAE@ABV01@@Z		; std::allocator<int>::allocator<int>
; Function compile flags: /Ogty
;	COMDAT ??0?$allocator@H@std@@QAE@ABV01@@Z
_TEXT	SEGMENT
___formal$ = 8						; size = 4
??0?$allocator@H@std@@QAE@ABV01@@Z PROC NEAR		; std::allocator<int>::allocator<int>, COMDAT
; _this$ = ecx

; 115  : 	allocator(const allocator<_Ty>&)

  00000	8b c1		 mov	 eax, ecx

; 116  : 		{	// construct by copying (do nothing)
; 117  : 		}

  00002	c2 04 00	 ret	 4
??0?$allocator@H@std@@QAE@ABV01@@Z ENDP			; std::allocator<int>::allocator<int>
_TEXT	ENDS
PUBLIC	?deallocate@?$allocator@H@std@@QAEXPAHI@Z	; std::allocator<int>::deallocate
; Function compile flags: /Ogty
;	COMDAT ?deallocate@?$allocator@H@std@@QAEXPAHI@Z
_TEXT	SEGMENT
__Ptr$ = 8						; size = 4
___formal$ = 12						; size = 4
?deallocate@?$allocator@H@std@@QAEXPAHI@Z PROC NEAR	; std::allocator<int>::deallocate, COMDAT
; _this$ = ecx

; 132  : 		operator delete(_Ptr);

  00000	8b 44 24 04	 mov	 eax, DWORD PTR __Ptr$[esp-4]
  00004	50		 push	 eax
  00005	e8 00 00 00 00	 call	 ??3@YAXPAX@Z		; operator delete
  0000a	59		 pop	 ecx

; 133  : 		}

  0000b	c2 08 00	 ret	 8
?deallocate@?$allocator@H@std@@QAEXPAHI@Z ENDP		; std::allocator<int>::deallocate
_TEXT	ENDS
PUBLIC	??Yiterator@?$vector@KV?$allocator@K@std@@@std@@QAEAAV012@H@Z ; std::vector<unsigned long,std::allocator<unsigned long> >::iterator::operator+=
; Function compile flags: /Ogty
; File c:\program files\microsoft visual studio .net 2003\vc7\include\vector
;	COMDAT ??Yiterator@?$vector@KV?$allocator@K@std@@@std@@QAEAAV012@H@Z
_TEXT	SEGMENT
__Off$ = 8						; size = 4
??Yiterator@?$vector@KV?$allocator@K@std@@@std@@QAEAAV012@H@Z PROC NEAR ; std::vector<unsigned long,std::allocator<unsigned long> >::iterator::operator+=, COMDAT
; _this$ = ecx

; 255  : 			{	// increment by integer

  00000	8b c1		 mov	 eax, ecx

; 256  : 			this->_Myptr += _Off;

  00002	8b 4c 24 04	 mov	 ecx, DWORD PTR __Off$[esp-4]
  00006	8d 14 8d 00 00
	00 00		 lea	 edx, DWORD PTR [ecx*4]
  0000d	01 10		 add	 DWORD PTR [eax], edx

; 257  : 			return (*this);
; 258  : 			}

  0000f	c2 04 00	 ret	 4
??Yiterator@?$vector@KV?$allocator@K@std@@@std@@QAEAAV012@H@Z ENDP ; std::vector<unsigned long,std::allocator<unsigned long> >::iterator::operator+=
_TEXT	ENDS
PUBLIC	??Dconst_iterator@?$vector@KV?$allocator@K@std@@@std@@QBEABKXZ ; std::vector<unsigned long,std::allocator<unsigned long> >::const_iterator::operator*
; Function compile flags: /Ogty
;	COMDAT ??Dconst_iterator@?$vector@KV?$allocator@K@std@@@std@@QBEABKXZ
_TEXT	SEGMENT
??Dconst_iterator@?$vector@KV?$allocator@K@std@@@std@@QBEABKXZ PROC NEAR ; std::vector<unsigned long,std::allocator<unsigned long> >::const_iterator::operator*, COMDAT
; _this$ = ecx

; 80   : 
; 81   : 
; 82   : 			return (*_Myptr);

  00000	8b 01		 mov	 eax, DWORD PTR [ecx]

; 83   : 			}

  00002	c3		 ret	 0
??Dconst_iterator@?$vector@KV?$allocator@K@std@@@std@@QBEABKXZ ENDP ; std::vector<unsigned long,std::allocator<unsigned long> >::const_iterator::operator*
_TEXT	ENDS
PUBLIC	??Yiterator@?$vector@HV?$allocator@H@std@@@std@@QAEAAV012@H@Z ; std::vector<int,std::allocator<int> >::iterator::operator+=
; Function compile flags: /Ogty
;	COMDAT ??Yiterator@?$vector@HV?$allocator@H@std@@@std@@QAEAAV012@H@Z
_TEXT	SEGMENT
__Off$ = 8						; size = 4
??Yiterator@?$vector@HV?$allocator@H@std@@@std@@QAEAAV012@H@Z PROC NEAR ; std::vector<int,std::allocator<int> >::iterator::operator+=, COMDAT
; _this$ = ecx

; 255  : 			{	// increment by integer

  00000	8b c1		 mov	 eax, ecx

; 256  : 			this->_Myptr += _Off;

  00002	8b 4c 24 04	 mov	 ecx, DWORD PTR __Off$[esp-4]
  00006	8d 14 8d 00 00
	00 00		 lea	 edx, DWORD PTR [ecx*4]
  0000d	01 10		 add	 DWORD PTR [eax], edx

; 257  : 			return (*this);
; 258  : 			}

  0000f	c2 04 00	 ret	 4
??Yiterator@?$vector@HV?$allocator@H@std@@@std@@QAEAAV012@H@Z ENDP ; std::vector<int,std::allocator<int> >::iterator::operator+=
_TEXT	ENDS
PUBLIC	??Dconst_iterator@?$vector@HV?$allocator@H@std@@@std@@QBEABHXZ ; std::vector<int,std::allocator<int> >::const_iterator::operator*
; Function compile flags: /Ogty
;	COMDAT ??Dconst_iterator@?$vector@HV?$allocator@H@std@@@std@@QBEABHXZ
_TEXT	SEGMENT
??Dconst_iterator@?$vector@HV?$allocator@H@std@@@std@@QBEABHXZ PROC NEAR ; std::vector<int,std::allocator<int> >::const_iterator::operator*, COMDAT
; _this$ = ecx

; 80   : 
; 81   : 
; 82   : 			return (*_Myptr);

  00000	8b 01		 mov	 eax, DWORD PTR [ecx]

; 83   : 			}

  00002	c3		 ret	 0
??Dconst_iterator@?$vector@HV?$allocator@H@std@@@std@@QBEABHXZ ENDP ; std::vector<int,std::allocator<int> >::const_iterator::operator*
_TEXT	ENDS
PUBLIC	??Yiterator@?$vector@EV?$allocator@E@std@@@std@@QAEAAV012@H@Z ; std::vector<unsigned char,std::allocator<unsigned char> >::iterator::operator+=
; Function compile flags: /Ogty
;	COMDAT ??Yiterator@?$vector@EV?$allocator@E@std@@@std@@QAEAAV012@H@Z
_TEXT	SEGMENT
__Off$ = 8						; size = 4
??Yiterator@?$vector@EV?$allocator@E@std@@@std@@QAEAAV012@H@Z PROC NEAR ; std::vector<unsigned char,std::allocator<unsigned char> >::iterator::operator+=, COMDAT
; _this$ = ecx

; 255  : 			{	// increment by integer

  00000	8b c1		 mov	 eax, ecx

; 256  : 			this->_Myptr += _Off;

  00002	8b 10		 mov	 edx, DWORD PTR [eax]
  00004	8b 4c 24 04	 mov	 ecx, DWORD PTR __Off$[esp-4]
  00008	03 d1		 add	 edx, ecx
  0000a	89 10		 mov	 DWORD PTR [eax], edx

; 257  : 			return (*this);
; 258  : 			}

  0000c	c2 04 00	 ret	 4
??Yiterator@?$vector@EV?$allocator@E@std@@@std@@QAEAAV012@H@Z ENDP ; std::vector<unsigned char,std::allocator<unsigned char> >::iterator::operator+=
_TEXT	ENDS
PUBLIC	??Dconst_iterator@?$vector@EV?$allocator@E@std@@@std@@QBEABEXZ ; std::vector<unsigned char,std::allocator<unsigned char> >::const_iterator::operator*
; Function compile flags: /Ogty
;	COMDAT ??Dconst_iterator@?$vector@EV?$allocator@E@std@@@std@@QBEABEXZ
_TEXT	SEGMENT
??Dconst_iterator@?$vector@EV?$allocator@E@std@@@std@@QBEABEXZ PROC NEAR ; std::vector<unsigned char,std::allocator<unsigned char> >::const_iterator::operator*, COMDAT
; _this$ = ecx

; 80   : 
; 81   : 
; 82   : 			return (*_Myptr);

  00000	8b 01		 mov	 eax, DWORD PTR [ecx]

; 83   : 			}

  00002	c3		 ret	 0
??Dconst_iterator@?$vector@EV?$allocator@E@std@@@std@@QBEABEXZ ENDP ; std::vector<unsigned char,std::allocator<unsigned char> >::const_iterator::operator*
_TEXT	ENDS
PUBLIC	?max_size@?$allocator@E@std@@QBEIXZ		; std::allocator<unsigned char>::max_size
; Function compile flags: /Ogty
; File c:\program files\microsoft visual studio .net 2003\vc7\include\xmemory
;	COMDAT ?max_size@?$allocator@E@std@@QBEIXZ
_TEXT	SEGMENT
?max_size@?$allocator@E@std@@QBEIXZ PROC NEAR		; std::allocator<unsigned char>::max_size, COMDAT
; _this$ = ecx

; 157  : 		_SIZT _Count = (_SIZT)(-1) / sizeof (_Ty);
; 158  : 		return (0 < _Count ? _Count : 1);

  00000	83 c8 ff	 or	 eax, -1

; 159  : 		}

  00003	c3		 ret	 0
?max_size@?$allocator@E@std@@QBEIXZ ENDP		; std::allocator<unsigned char>::max_size
_TEXT	ENDS
PUBLIC	?max_size@?$allocator@H@std@@QBEIXZ		; std::allocator<int>::max_size
; Function compile flags: /Ogty
;	COMDAT ?max_size@?$allocator@H@std@@QBEIXZ
_TEXT	SEGMENT
?max_size@?$allocator@H@std@@QBEIXZ PROC NEAR		; std::allocator<int>::max_size, COMDAT
; _this$ = ecx

; 157  : 		_SIZT _Count = (_SIZT)(-1) / sizeof (_Ty);
; 158  : 		return (0 < _Count ? _Count : 1);

  00000	b8 ff ff ff 3f	 mov	 eax, 1073741823		; 3fffffffH

; 159  : 		}

  00005	c3		 ret	 0
?max_size@?$allocator@H@std@@QBEIXZ ENDP		; std::allocator<int>::max_size
_TEXT	ENDS
PUBLIC	??0const_iterator@?$vector@KV?$allocator@K@std@@@std@@QAE@PAK@Z ; std::vector<unsigned long,std::allocator<unsigned long> >::const_iterator::const_iterator
; Function compile flags: /Ogty
; File c:\program files\microsoft visual studio .net 2003\vc7\include\vector
;	COMDAT ??0const_iterator@?$vector@KV?$allocator@K@std@@@std@@QAE@PAK@Z
_TEXT	SEGMENT
__Ptr$ = 8						; size = 4
??0const_iterator@?$vector@KV?$allocator@K@std@@@std@@QAE@PAK@Z PROC NEAR ; std::vector<unsigned long,std::allocator<unsigned long> >::const_iterator::const_iterator, COMDAT
; _this$ = ecx

; 73   : 		const_iterator(_Tptr _Ptr)

  00000	8b c1		 mov	 eax, ecx

; 74   : 			{	// construct with pointer _Ptr
; 75   : 			_Myptr = _Ptr;

  00002	8b 4c 24 04	 mov	 ecx, DWORD PTR __Ptr$[esp-4]
  00006	89 08		 mov	 DWORD PTR [eax], ecx

; 76   : 			}

  00008	c2 04 00	 ret	 4
??0const_iterator@?$vector@KV?$allocator@K@std@@@std@@QAE@PAK@Z ENDP ; std::vector<unsigned long,std::allocator<unsigned long> >::const_iterator::const_iterator
_TEXT	ENDS
PUBLIC	??Gconst_iterator@?$vector@KV?$allocator@K@std@@@std@@QBEHABV012@@Z ; std::vector<unsigned long,std::allocator<unsigned long> >::const_iterator::operator-
; Function compile flags: /Ogty
;	COMDAT ??Gconst_iterator@?$vector@KV?$allocator@K@std@@@std@@QBEHABV012@@Z
_TEXT	SEGMENT
__Right$ = 8						; size = 4
??Gconst_iterator@?$vector@KV?$allocator@K@std@@@std@@QBEHABV012@@Z PROC NEAR ; std::vector<unsigned long,std::allocator<unsigned long> >::const_iterator::operator-, COMDAT
; _this$ = ecx

; 141  : 
; 142  : 
; 143  : 			return (_Myptr - _Right._Myptr);

  00000	8b 01		 mov	 eax, DWORD PTR [ecx]
  00002	8b 4c 24 04	 mov	 ecx, DWORD PTR __Right$[esp-4]
  00006	2b 01		 sub	 eax, DWORD PTR [ecx]
  00008	c1 f8 02	 sar	 eax, 2

; 144  : 			}

  0000b	c2 04 00	 ret	 4
??Gconst_iterator@?$vector@KV?$allocator@K@std@@@std@@QBEHABV012@@Z ENDP ; std::vector<unsigned long,std::allocator<unsigned long> >::const_iterator::operator-
_TEXT	ENDS
PUBLIC	??0const_iterator@?$vector@HV?$allocator@H@std@@@std@@QAE@PAH@Z ; std::vector<int,std::allocator<int> >::const_iterator::const_iterator
; Function compile flags: /Ogty
;	COMDAT ??0const_iterator@?$vector@HV?$allocator@H@std@@@std@@QAE@PAH@Z
_TEXT	SEGMENT
__Ptr$ = 8						; size = 4
??0const_iterator@?$vector@HV?$allocator@H@std@@@std@@QAE@PAH@Z PROC NEAR ; std::vector<int,std::allocator<int> >::const_iterator::const_iterator, COMDAT
; _this$ = ecx

; 73   : 		const_iterator(_Tptr _Ptr)

  00000	8b c1		 mov	 eax, ecx

; 74   : 			{	// construct with pointer _Ptr
; 75   : 			_Myptr = _Ptr;

  00002	8b 4c 24 04	 mov	 ecx, DWORD PTR __Ptr$[esp-4]
  00006	89 08		 mov	 DWORD PTR [eax], ecx

; 76   : 			}

  00008	c2 04 00	 ret	 4
??0const_iterator@?$vector@HV?$allocator@H@std@@@std@@QAE@PAH@Z ENDP ; std::vector<int,std::allocator<int> >::const_iterator::const_iterator
_TEXT	ENDS
PUBLIC	??Gconst_iterator@?$vector@HV?$allocator@H@std@@@std@@QBEHABV012@@Z ; std::vector<int,std::allocator<int> >::const_iterator::operator-
; Function compile flags: /Ogty
;	COMDAT ??Gconst_iterator@?$vector@HV?$allocator@H@std@@@std@@QBEHABV012@@Z
_TEXT	SEGMENT
__Right$ = 8						; size = 4
??Gconst_iterator@?$vector@HV?$allocator@H@std@@@std@@QBEHABV012@@Z PROC NEAR ; std::vector<int,std::allocator<int> >::const_iterator::operator-, COMDAT
; _this$ = ecx

; 141  : 
; 142  : 
; 143  : 			return (_Myptr - _Right._Myptr);

  00000	8b 01		 mov	 eax, DWORD PTR [ecx]
  00002	8b 4c 24 04	 mov	 ecx, DWORD PTR __Right$[esp-4]
  00006	2b 01		 sub	 eax, DWORD PTR [ecx]
  00008	c1 f8 02	 sar	 eax, 2

; 144  : 			}

  0000b	c2 04 00	 ret	 4
??Gconst_iterator@?$vector@HV?$allocator@H@std@@@std@@QBEHABV012@@Z ENDP ; std::vector<int,std::allocator<int> >::const_iterator::operator-
_TEXT	ENDS
PUBLIC	??0const_iterator@?$vector@EV?$allocator@E@std@@@std@@QAE@PAE@Z ; std::vector<unsigned char,std::allocator<unsigned char> >::const_iterator::const_iterator
; Function compile flags: /Ogty
;	COMDAT ??0const_iterator@?$vector@EV?$allocator@E@std@@@std@@QAE@PAE@Z
_TEXT	SEGMENT
__Ptr$ = 8						; size = 4
??0const_iterator@?$vector@EV?$allocator@E@std@@@std@@QAE@PAE@Z PROC NEAR ; std::vector<unsigned char,std::allocator<unsigned char> >::const_iterator::const_iterator, COMDAT
; _this$ = ecx

; 73   : 		const_iterator(_Tptr _Ptr)

  00000	8b c1		 mov	 eax, ecx

; 74   : 			{	// construct with pointer _Ptr
; 75   : 			_Myptr = _Ptr;

  00002	8b 4c 24 04	 mov	 ecx, DWORD PTR __Ptr$[esp-4]
  00006	89 08		 mov	 DWORD PTR [eax], ecx

; 76   : 			}

  00008	c2 04 00	 ret	 4
??0const_iterator@?$vector@EV?$allocator@E@std@@@std@@QAE@PAE@Z ENDP ; std::vector<unsigned char,std::allocator<unsigned char> >::const_iterator::const_iterator
_TEXT	ENDS
PUBLIC	??Gconst_iterator@?$vector@EV?$allocator@E@std@@@std@@QBEHABV012@@Z ; std::vector<unsigned char,std::allocator<unsigned char> >::const_iterator::operator-
; Function compile flags: /Ogty
;	COMDAT ??Gconst_iterator@?$vector@EV?$allocator@E@std@@@std@@QBEHABV012@@Z
_TEXT	SEGMENT
__Right$ = 8						; size = 4
??Gconst_iterator@?$vector@EV?$allocator@E@std@@@std@@QBEHABV012@@Z PROC NEAR ; std::vector<unsigned char,std::allocator<unsigned char> >::const_iterator::operator-, COMDAT
; _this$ = ecx

; 141  : 
; 142  : 
; 143  : 			return (_Myptr - _Right._Myptr);

  00000	8b 01		 mov	 eax, DWORD PTR [ecx]
  00002	8b 4c 24 04	 mov	 ecx, DWORD PTR __Right$[esp-4]
  00006	2b 01		 sub	 eax, DWORD PTR [ecx]

; 144  : 			}

  00008	c2 04 00	 ret	 4
??Gconst_iterator@?$vector@EV?$allocator@E@std@@@std@@QBEHABV012@@Z ENDP ; std::vector<unsigned char,std::allocator<unsigned char> >::const_iterator::operator-
_TEXT	ENDS
PUBLIC	??$_Destroy_range@KV?$allocator@K@std@@@std@@YAXPAK0AAV?$allocator@K@0@U_Scalar_ptr_iterator_tag@0@@Z ; std::_Destroy_range<unsigned long,std::allocator<unsigned long> >
; Function compile flags: /Ogty
; File c:\program files\microsoft visual studio .net 2003\vc7\include\xmemory
;	COMDAT ??$_Destroy_range@KV?$allocator@K@std@@@std@@YAXPAK0AAV?$allocator@K@0@U_Scalar_ptr_iterator_tag@0@@Z
_TEXT	SEGMENT
__First$ = 8						; size = 4
__Last$ = 12						; size = 4
__Al$ = 16						; size = 4
___formal$ = 20						; size = 1
??$_Destroy_range@KV?$allocator@K@std@@@std@@YAXPAK0AAV?$allocator@K@0@U_Scalar_ptr_iterator_tag@0@@Z PROC NEAR ; std::_Destroy_range<unsigned long,std::allocator<unsigned long> >, COMDAT

; 234  : 	}

  00000	c3		 ret	 0
??$_Destroy_range@KV?$allocator@K@std@@@std@@YAXPAK0AAV?$allocator@K@0@U_Scalar_ptr_iterator_tag@0@@Z ENDP ; std::_Destroy_range<unsigned long,std::allocator<unsigned long> >
_TEXT	ENDS
PUBLIC	??$_Allocate@E@std@@YAPAEIPAE@Z			; std::_Allocate<unsigned char>
EXTRN	??2@YAPAXI@Z:NEAR				; operator new
; Function compile flags: /Ogty
;	COMDAT ??$_Allocate@E@std@@YAPAEIPAE@Z
_TEXT	SEGMENT
__Count$ = 8						; size = 4
___formal$ = 12						; size = 4
??$_Allocate@E@std@@YAPAEIPAE@Z PROC NEAR		; std::_Allocate<unsigned char>, COMDAT

; 34   : 	return ((_Ty _FARQ *)operator new(_Count * sizeof (_Ty)));

  00000	8b 44 24 04	 mov	 eax, DWORD PTR __Count$[esp-4]
  00004	50		 push	 eax
  00005	e8 00 00 00 00	 call	 ??2@YAPAXI@Z		; operator new
  0000a	83 c4 04	 add	 esp, 4

; 35   : 	}

  0000d	c3		 ret	 0
??$_Allocate@E@std@@YAPAEIPAE@Z ENDP			; std::_Allocate<unsigned char>
_TEXT	ENDS
PUBLIC	??$fill@PAKK@std@@YAXPAK0ABK@Z			; std::fill<unsigned long *,unsigned long>
; Function compile flags: /Ogty
; File c:\program files\microsoft visual studio .net 2003\vc7\include\xutility
;	COMDAT ??$fill@PAKK@std@@YAXPAK0ABK@Z
_TEXT	SEGMENT
__First$ = 8						; size = 4
__Last$ = 12						; size = 4
__Val$ = 16						; size = 4
??$fill@PAKK@std@@YAXPAK0ABK@Z PROC NEAR		; std::fill<unsigned long *,unsigned long>, COMDAT

; 1135 : 	for (; _First != _Last; ++_First)

  00000	8b 44 24 04	 mov	 eax, DWORD PTR __First$[esp-4]
  00004	8b 4c 24 08	 mov	 ecx, DWORD PTR __Last$[esp-4]
  00008	3b c1		 cmp	 eax, ecx
  0000a	74 11		 je	 SHORT $L199615
  0000c	8b 54 24 0c	 mov	 edx, DWORD PTR __Val$[esp-4]
  00010	56		 push	 esi
$L199613:

; 1136 : 		*_First = _Val;

  00011	8b 32		 mov	 esi, DWORD PTR [edx]
  00013	89 30		 mov	 DWORD PTR [eax], esi
  00015	83 c0 04	 add	 eax, 4
  00018	3b c1		 cmp	 eax, ecx
  0001a	75 f5		 jne	 SHORT $L199613
  0001c	5e		 pop	 esi
$L199615:

; 1137 : 	}

  0001d	c3		 ret	 0
??$fill@PAKK@std@@YAXPAK0ABK@Z ENDP			; std::fill<unsigned long *,unsigned long>
_TEXT	ENDS
PUBLIC	??$_Allocate@H@std@@YAPAHIPAH@Z			; std::_Allocate<int>
; Function compile flags: /Ogty
; File c:\program files\microsoft visual studio .net 2003\vc7\include\xmemory
;	COMDAT ??$_Allocate@H@std@@YAPAHIPAH@Z
_TEXT	SEGMENT
__Count$ = 8						; size = 4
___formal$ = 12						; size = 4
??$_Allocate@H@std@@YAPAHIPAH@Z PROC NEAR		; std::_Allocate<int>, COMDAT

; 34   : 	return ((_Ty _FARQ *)operator new(_Count * sizeof (_Ty)));

  00000	8b 44 24 04	 mov	 eax, DWORD PTR __Count$[esp-4]
  00004	8d 0c 85 00 00
	00 00		 lea	 ecx, DWORD PTR [eax*4]
  0000b	51		 push	 ecx
  0000c	e8 00 00 00 00	 call	 ??2@YAPAXI@Z		; operator new
  00011	83 c4 04	 add	 esp, 4

; 35   : 	}

  00014	c3		 ret	 0
??$_Allocate@H@std@@YAPAHIPAH@Z ENDP			; std::_Allocate<int>
_TEXT	ENDS
PUBLIC	??$fill@PAHH@std@@YAXPAH0ABH@Z			; std::fill<int *,int>
; Function compile flags: /Ogty
; File c:\program files\microsoft visual studio .net 2003\vc7\include\xutility
;	COMDAT ??$fill@PAHH@std@@YAXPAH0ABH@Z
_TEXT	SEGMENT
__First$ = 8						; size = 4
__Last$ = 12						; size = 4
__Val$ = 16						; size = 4
??$fill@PAHH@std@@YAXPAH0ABH@Z PROC NEAR		; std::fill<int *,int>, COMDAT

; 1135 : 	for (; _First != _Last; ++_First)

  00000	8b 44 24 04	 mov	 eax, DWORD PTR __First$[esp-4]
  00004	8b 4c 24 08	 mov	 ecx, DWORD PTR __Last$[esp-4]
  00008	3b c1		 cmp	 eax, ecx
  0000a	74 11		 je	 SHORT $L199696
  0000c	8b 54 24 0c	 mov	 edx, DWORD PTR __Val$[esp-4]
  00010	56		 push	 esi
$L199694:

; 1136 : 		*_First = _Val;

  00011	8b 32		 mov	 esi, DWORD PTR [edx]
  00013	89 30		 mov	 DWORD PTR [eax], esi
  00015	83 c0 04	 add	 eax, 4
  00018	3b c1		 cmp	 eax, ecx
  0001a	75 f5		 jne	 SHORT $L199694
  0001c	5e		 pop	 esi
$L199696:

; 1137 : 	}

  0001d	c3		 ret	 0
??$fill@PAHH@std@@YAXPAH0ABH@Z ENDP			; std::fill<int *,int>
_TEXT	ENDS
PUBLIC	??$fill@PAEE@std@@YAXPAE0ABE@Z			; std::fill<unsigned char *,unsigned char>
; Function compile flags: /Ogty
;	COMDAT ??$fill@PAEE@std@@YAXPAE0ABE@Z
_TEXT	SEGMENT
__First$ = 8						; size = 4
__Last$ = 12						; size = 4
__Val$ = 16						; size = 4
??$fill@PAEE@std@@YAXPAE0ABE@Z PROC NEAR		; std::fill<unsigned char *,unsigned char>, COMDAT

; 1135 : 	for (; _First != _Last; ++_First)

  00000	8b 44 24 04	 mov	 eax, DWORD PTR __First$[esp-4]
  00004	8b 4c 24 08	 mov	 ecx, DWORD PTR __Last$[esp-4]
  00008	3b c1		 cmp	 eax, ecx
  0000a	74 0f		 je	 SHORT $L199747
  0000c	56		 push	 esi
  0000d	8b 74 24 10	 mov	 esi, DWORD PTR __Val$[esp]
$L199745:

; 1136 : 		*_First = _Val;

  00011	8a 16		 mov	 dl, BYTE PTR [esi]
  00013	88 10		 mov	 BYTE PTR [eax], dl
  00015	40		 inc	 eax
  00016	3b c1		 cmp	 eax, ecx
  00018	75 f7		 jne	 SHORT $L199745
  0001a	5e		 pop	 esi
$L199747:

; 1137 : 	}

  0001b	c3		 ret	 0
??$fill@PAEE@std@@YAXPAE0ABE@Z ENDP			; std::fill<unsigned char *,unsigned char>
_TEXT	ENDS
PUBLIC	??$_Copy_backward_opt@PAKPAK@std@@YAPAKPAK00U_Scalar_ptr_iterator_tag@0@@Z ; std::_Copy_backward_opt<unsigned long *,unsigned long *>
EXTRN	_memmove:NEAR
; Function compile flags: /Ogty
;	COMDAT ??$_Copy_backward_opt@PAKPAK@std@@YAPAKPAK00U_Scalar_ptr_iterator_tag@0@@Z
_TEXT	SEGMENT
__First$ = 8						; size = 4
__Last$ = 12						; size = 4
__Dest$ = 16						; size = 4
___formal$ = 20						; size = 1
??$_Copy_backward_opt@PAKPAK@std@@YAPAKPAK00U_Scalar_ptr_iterator_tag@0@@Z PROC NEAR ; std::_Copy_backward_opt<unsigned long *,unsigned long *>, COMDAT

; 1059 : 	ptrdiff_t _Off = _Last - _First;	// NB: non-overlapping move

  00000	8b 4c 24 04	 mov	 ecx, DWORD PTR __First$[esp-4]
  00004	8b 44 24 08	 mov	 eax, DWORD PTR __Last$[esp-4]
  00008	2b c1		 sub	 eax, ecx
  0000a	c1 f8 02	 sar	 eax, 2

; 1060 : 	return ((_OutIt)memmove(&*_Dest - _Off, &*_First,
; 1061 : 		_Off * sizeof (*_First)));

  0000d	c1 e0 02	 shl	 eax, 2
  00010	50		 push	 eax
  00011	51		 push	 ecx
  00012	8b 4c 24 14	 mov	 ecx, DWORD PTR __Dest$[esp+4]
  00016	2b c8		 sub	 ecx, eax
  00018	51		 push	 ecx
  00019	e8 00 00 00 00	 call	 _memmove
  0001e	83 c4 0c	 add	 esp, 12			; 0000000cH

; 1062 : 	}

  00021	c3		 ret	 0
??$_Copy_backward_opt@PAKPAK@std@@YAPAKPAK00U_Scalar_ptr_iterator_tag@0@@Z ENDP ; std::_Copy_backward_opt<unsigned long *,unsigned long *>
_TEXT	ENDS
PUBLIC	??$_Destroy_range@HV?$allocator@H@std@@@std@@YAXPAH0AAV?$allocator@H@0@U_Scalar_ptr_iterator_tag@0@@Z ; std::_Destroy_range<int,std::allocator<int> >
; Function compile flags: /Ogty
; File c:\program files\microsoft visual studio .net 2003\vc7\include\xmemory
;	COMDAT ??$_Destroy_range@HV?$allocator@H@std@@@std@@YAXPAH0AAV?$allocator@H@0@U_Scalar_ptr_iterator_tag@0@@Z
_TEXT	SEGMENT
__First$ = 8						; size = 4
__Last$ = 12						; size = 4
__Al$ = 16						; size = 4
___formal$ = 20						; size = 1
??$_Destroy_range@HV?$allocator@H@std@@@std@@YAXPAH0AAV?$allocator@H@0@U_Scalar_ptr_iterator_tag@0@@Z PROC NEAR ; std::_Destroy_range<int,std::allocator<int> >, COMDAT

; 234  : 	}

  00000	c3		 ret	 0
??$_Destroy_range@HV?$allocator@H@std@@@std@@YAXPAH0AAV?$allocator@H@0@U_Scalar_ptr_iterator_tag@0@@Z ENDP ; std::_Destroy_range<int,std::allocator<int> >
_TEXT	ENDS
PUBLIC	??$_Copy_backward_opt@PAHPAH@std@@YAPAHPAH00U_Scalar_ptr_iterator_tag@0@@Z ; std::_Copy_backward_opt<int *,int *>
; Function compile flags: /Ogty
; File c:\program files\microsoft visual studio .net 2003\vc7\include\xutility
;	COMDAT ??$_Copy_backward_opt@PAHPAH@std@@YAPAHPAH00U_Scalar_ptr_iterator_tag@0@@Z
_TEXT	SEGMENT
__First$ = 8						; size = 4
__Last$ = 12						; size = 4
__Dest$ = 16						; size = 4
___formal$ = 20						; size = 1
??$_Copy_backward_opt@PAHPAH@std@@YAPAHPAH00U_Scalar_ptr_iterator_tag@0@@Z PROC NEAR ; std::_Copy_backward_opt<int *,int *>, COMDAT

; 1059 : 	ptrdiff_t _Off = _Last - _First;	// NB: non-overlapping move

  00000	8b 4c 24 04	 mov	 ecx, DWORD PTR __First$[esp-4]
  00004	8b 44 24 08	 mov	 eax, DWORD PTR __Last$[esp-4]
  00008	2b c1		 sub	 eax, ecx
  0000a	c1 f8 02	 sar	 eax, 2

; 1060 : 	return ((_OutIt)memmove(&*_Dest - _Off, &*_First,
; 1061 : 		_Off * sizeof (*_First)));

  0000d	c1 e0 02	 shl	 eax, 2
  00010	50		 push	 eax
  00011	51		 push	 ecx
  00012	8b 4c 24 14	 mov	 ecx, DWORD PTR __Dest$[esp+4]
  00016	2b c8		 sub	 ecx, eax
  00018	51		 push	 ecx
  00019	e8 00 00 00 00	 call	 _memmove
  0001e	83 c4 0c	 add	 esp, 12			; 0000000cH

; 1062 : 	}

  00021	c3		 ret	 0
??$_Copy_backward_opt@PAHPAH@std@@YAPAHPAH00U_Scalar_ptr_iterator_tag@0@@Z ENDP ; std::_Copy_backward_opt<int *,int *>
_TEXT	ENDS
PUBLIC	??$_Destroy_range@EV?$allocator@E@std@@@std@@YAXPAE0AAV?$allocator@E@0@U_Scalar_ptr_iterator_tag@0@@Z ; std::_Destroy_range<unsigned char,std::allocator<unsigned char> >
; Function compile flags: /Ogty
; File c:\program files\microsoft visual studio .net 2003\vc7\include\xmemory
;	COMDAT ??$_Destroy_range@EV?$allocator@E@std@@@std@@YAXPAE0AAV?$allocator@E@0@U_Scalar_ptr_iterator_tag@0@@Z
_TEXT	SEGMENT
__First$ = 8						; size = 4
__Last$ = 12						; size = 4
__Al$ = 16						; size = 4
___formal$ = 20						; size = 1
??$_Destroy_range@EV?$allocator@E@std@@@std@@YAXPAE0AAV?$allocator@E@0@U_Scalar_ptr_iterator_tag@0@@Z PROC NEAR ; std::_Destroy_range<unsigned char,std::allocator<unsigned char> >, COMDAT

; 234  : 	}

  00000	c3		 ret	 0
??$_Destroy_range@EV?$allocator@E@std@@@std@@YAXPAE0AAV?$allocator@E@0@U_Scalar_ptr_iterator_tag@0@@Z ENDP ; std::_Destroy_range<unsigned char,std::allocator<unsigned char> >
_TEXT	ENDS
PUBLIC	??$_Copy_backward_opt@PAEPAE@std@@YAPAEPAE00U_Scalar_ptr_iterator_tag@0@@Z ; std::_Copy_backward_opt<unsigned char *,unsigned char *>
; Function compile flags: /Ogty
; File c:\program files\microsoft visual studio .net 2003\vc7\include\xutility
;	COMDAT ??$_Copy_backward_opt@PAEPAE@std@@YAPAEPAE00U_Scalar_ptr_iterator_tag@0@@Z
_TEXT	SEGMENT
__First$ = 8						; size = 4
__Last$ = 12						; size = 4
__Dest$ = 16						; size = 4
___formal$ = 20						; size = 1
??$_Copy_backward_opt@PAEPAE@std@@YAPAEPAE00U_Scalar_ptr_iterator_tag@0@@Z PROC NEAR ; std::_Copy_backward_opt<unsigned char *,unsigned char *>, COMDAT

; 1059 : 	ptrdiff_t _Off = _Last - _First;	// NB: non-overlapping move

  00000	8b 4c 24 04	 mov	 ecx, DWORD PTR __First$[esp-4]
  00004	8b 44 24 08	 mov	 eax, DWORD PTR __Last$[esp-4]
  00008	2b c1		 sub	 eax, ecx

; 1060 : 	return ((_OutIt)memmove(&*_Dest - _Off, &*_First,
; 1061 : 		_Off * sizeof (*_First)));

  0000a	50		 push	 eax
  0000b	51		 push	 ecx
  0000c	8b 4c 24 14	 mov	 ecx, DWORD PTR __Dest$[esp+4]
  00010	2b c8		 sub	 ecx, eax
  00012	51		 push	 ecx
  00013	e8 00 00 00 00	 call	 _memmove
  00018	83 c4 0c	 add	 esp, 12			; 0000000cH

; 1062 : 	}

  0001b	c3		 ret	 0
??$_Copy_backward_opt@PAEPAE@std@@YAPAEPAE00U_Scalar_ptr_iterator_tag@0@@Z ENDP ; std::_Copy_backward_opt<unsigned char *,unsigned char *>
_TEXT	ENDS
PUBLIC	??$fill_n@PAKIK@std@@YAXPAKIABK@Z		; std::fill_n<unsigned long *,unsigned int,unsigned long>
; Function compile flags: /Ogty
;	COMDAT ??$fill_n@PAKIK@std@@YAXPAKIABK@Z
_TEXT	SEGMENT
__First$ = 8						; size = 4
__Count$ = 12						; size = 4
__Val$ = 16						; size = 4
??$fill_n@PAKIK@std@@YAXPAKIABK@Z PROC NEAR		; std::fill_n<unsigned long *,unsigned int,unsigned long>, COMDAT

; 1160 : 	for (; 0 < _Count; --_Count, ++_First)

  00000	8b 4c 24 08	 mov	 ecx, DWORD PTR __Count$[esp-4]
  00004	85 c9		 test	 ecx, ecx
  00006	76 14		 jbe	 SHORT $L199946
  00008	8b 54 24 0c	 mov	 edx, DWORD PTR __Val$[esp-4]
  0000c	8b 44 24 04	 mov	 eax, DWORD PTR __First$[esp-4]
  00010	56		 push	 esi
$L199944:

; 1161 : 		*_First = _Val;

  00011	8b 32		 mov	 esi, DWORD PTR [edx]
  00013	89 30		 mov	 DWORD PTR [eax], esi
  00015	83 c0 04	 add	 eax, 4
  00018	49		 dec	 ecx
  00019	75 f6		 jne	 SHORT $L199944
  0001b	5e		 pop	 esi
$L199946:

; 1162 : 	}

  0001c	c3		 ret	 0
??$fill_n@PAKIK@std@@YAXPAKIABK@Z ENDP			; std::fill_n<unsigned long *,unsigned int,unsigned long>
_TEXT	ENDS
PUBLIC	??$fill_n@PAHIH@std@@YAXPAHIABH@Z		; std::fill_n<int *,unsigned int,int>
; Function compile flags: /Ogty
;	COMDAT ??$fill_n@PAHIH@std@@YAXPAHIABH@Z
_TEXT	SEGMENT
__First$ = 8						; size = 4
__Count$ = 12						; size = 4
__Val$ = 16						; size = 4
??$fill_n@PAHIH@std@@YAXPAHIABH@Z PROC NEAR		; std::fill_n<int *,unsigned int,int>, COMDAT

; 1160 : 	for (; 0 < _Count; --_Count, ++_First)

  00000	8b 4c 24 08	 mov	 ecx, DWORD PTR __Count$[esp-4]
  00004	85 c9		 test	 ecx, ecx
  00006	76 14		 jbe	 SHORT $L199950
  00008	8b 54 24 0c	 mov	 edx, DWORD PTR __Val$[esp-4]
  0000c	8b 44 24 04	 mov	 eax, DWORD PTR __First$[esp-4]
  00010	56		 push	 esi
$L199948:

; 1161 : 		*_First = _Val;

  00011	8b 32		 mov	 esi, DWORD PTR [edx]
  00013	89 30		 mov	 DWORD PTR [eax], esi
  00015	83 c0 04	 add	 eax, 4
  00018	49		 dec	 ecx
  00019	75 f6		 jne	 SHORT $L199948
  0001b	5e		 pop	 esi
$L199950:

; 1162 : 	}

  0001c	c3		 ret	 0
??$fill_n@PAHIH@std@@YAXPAHIABH@Z ENDP			; std::fill_n<int *,unsigned int,int>
_TEXT	ENDS
PUBLIC	??$fill_n@PAEIE@std@@YAXPAEIABE@Z		; std::fill_n<unsigned char *,unsigned int,unsigned char>
; Function compile flags: /Ogty
;	COMDAT ??$fill_n@PAEIE@std@@YAXPAEIABE@Z
_TEXT	SEGMENT
__First$ = 8						; size = 4
__Count$ = 12						; size = 4
__Val$ = 16						; size = 4
??$fill_n@PAEIE@std@@YAXPAEIABE@Z PROC NEAR		; std::fill_n<unsigned char *,unsigned int,unsigned char>, COMDAT

; 1160 : 	for (; 0 < _Count; --_Count, ++_First)

  00000	8b 4c 24 08	 mov	 ecx, DWORD PTR __Count$[esp-4]
  00004	85 c9		 test	 ecx, ecx
  00006	76 12		 jbe	 SHORT $L199954
  00008	8b 44 24 04	 mov	 eax, DWORD PTR __First$[esp-4]
  0000c	56		 push	 esi
  0000d	8b 74 24 10	 mov	 esi, DWORD PTR __Val$[esp]
$L199952:

; 1161 : 		*_First = _Val;

  00011	8a 16		 mov	 dl, BYTE PTR [esi]
  00013	88 10		 mov	 BYTE PTR [eax], dl
  00015	40		 inc	 eax
  00016	49		 dec	 ecx
  00017	75 f8		 jne	 SHORT $L199952
  00019	5e		 pop	 esi
$L199954:

; 1162 : 	}

  0001a	c3		 ret	 0
??$fill_n@PAEIE@std@@YAXPAEIABE@Z ENDP			; std::fill_n<unsigned char *,unsigned int,unsigned char>
_TEXT	ENDS
PUBLIC	??$_Uninit_copy@KK@std@@YAPAKPAK00AAV?$allocator@K@0@U_Scalar_ptr_iterator_tag@0@@Z ; std::_Uninit_copy<unsigned long,unsigned long>
; Function compile flags: /Ogty
; File c:\program files\microsoft visual studio .net 2003\vc7\include\memory
;	COMDAT ??$_Uninit_copy@KK@std@@YAPAKPAK00AAV?$allocator@K@0@U_Scalar_ptr_iterator_tag@0@@Z
_TEXT	SEGMENT
__First$ = 8						; size = 4
__Last$ = 12						; size = 4
__Dest$ = 16						; size = 4
___formal$ = 20						; size = 4
___formal$ = 24						; size = 1
??$_Uninit_copy@KK@std@@YAPAKPAK00AAV?$allocator@K@0@U_Scalar_ptr_iterator_tag@0@@Z PROC NEAR ; std::_Uninit_copy<unsigned long,unsigned long>, COMDAT

; 106  : 	size_t _Count = (size_t)(_Last - _First);

  00000	8b 4c 24 04	 mov	 ecx, DWORD PTR __First$[esp-4]
  00004	8b 44 24 08	 mov	 eax, DWORD PTR __Last$[esp-4]
  00008	2b c1		 sub	 eax, ecx
  0000a	56		 push	 esi
  0000b	c1 f8 02	 sar	 eax, 2

; 107  : 	return ((_Ty2 *)memmove(&*_Dest, &*_First,
; 108  : 		_Count * sizeof (*_First)) + _Count);	// NB: non-overlapping move

  0000e	8d 34 85 00 00
	00 00		 lea	 esi, DWORD PTR [eax*4]
  00015	8b 44 24 10	 mov	 eax, DWORD PTR __Dest$[esp]
  00019	56		 push	 esi
  0001a	51		 push	 ecx
  0001b	50		 push	 eax
  0001c	e8 00 00 00 00	 call	 _memmove
  00021	83 c4 0c	 add	 esp, 12			; 0000000cH
  00024	03 c6		 add	 eax, esi
  00026	5e		 pop	 esi

; 109  : 	}

  00027	c3		 ret	 0
??$_Uninit_copy@KK@std@@YAPAKPAK00AAV?$allocator@K@0@U_Scalar_ptr_iterator_tag@0@@Z ENDP ; std::_Uninit_copy<unsigned long,unsigned long>
_TEXT	ENDS
PUBLIC	??$_Uninit_copy@HH@std@@YAPAHPAH00AAV?$allocator@H@0@U_Scalar_ptr_iterator_tag@0@@Z ; std::_Uninit_copy<int,int>
; Function compile flags: /Ogty
;	COMDAT ??$_Uninit_copy@HH@std@@YAPAHPAH00AAV?$allocator@H@0@U_Scalar_ptr_iterator_tag@0@@Z
_TEXT	SEGMENT
__First$ = 8						; size = 4
__Last$ = 12						; size = 4
__Dest$ = 16						; size = 4
___formal$ = 20						; size = 4
___formal$ = 24						; size = 1
??$_Uninit_copy@HH@std@@YAPAHPAH00AAV?$allocator@H@0@U_Scalar_ptr_iterator_tag@0@@Z PROC NEAR ; std::_Uninit_copy<int,int>, COMDAT

; 106  : 	size_t _Count = (size_t)(_Last - _First);

  00000	8b 4c 24 04	 mov	 ecx, DWORD PTR __First$[esp-4]
  00004	8b 44 24 08	 mov	 eax, DWORD PTR __Last$[esp-4]
  00008	2b c1		 sub	 eax, ecx
  0000a	56		 push	 esi
  0000b	c1 f8 02	 sar	 eax, 2

; 107  : 	return ((_Ty2 *)memmove(&*_Dest, &*_First,
; 108  : 		_Count * sizeof (*_First)) + _Count);	// NB: non-overlapping move

  0000e	8d 34 85 00 00
	00 00		 lea	 esi, DWORD PTR [eax*4]
  00015	8b 44 24 10	 mov	 eax, DWORD PTR __Dest$[esp]
  00019	56		 push	 esi
  0001a	51		 push	 ecx
  0001b	50		 push	 eax
  0001c	e8 00 00 00 00	 call	 _memmove
  00021	83 c4 0c	 add	 esp, 12			; 0000000cH
  00024	03 c6		 add	 eax, esi
  00026	5e		 pop	 esi

; 109  : 	}

  00027	c3		 ret	 0
??$_Uninit_copy@HH@std@@YAPAHPAH00AAV?$allocator@H@0@U_Scalar_ptr_iterator_tag@0@@Z ENDP ; std::_Uninit_copy<int,int>
_TEXT	ENDS
PUBLIC	??$_Uninit_copy@EE@std@@YAPAEPAE00AAV?$allocator@E@0@U_Scalar_ptr_iterator_tag@0@@Z ; std::_Uninit_copy<unsigned char,unsigned char>
; Function compile flags: /Ogty
;	COMDAT ??$_Uninit_copy@EE@std@@YAPAEPAE00AAV?$allocator@E@0@U_Scalar_ptr_iterator_tag@0@@Z
_TEXT	SEGMENT
__First$ = 8						; size = 4
__Last$ = 12						; size = 4
__Dest$ = 16						; size = 4
___formal$ = 20						; size = 4
___formal$ = 24						; size = 1
??$_Uninit_copy@EE@std@@YAPAEPAE00AAV?$allocator@E@0@U_Scalar_ptr_iterator_tag@0@@Z PROC NEAR ; std::_Uninit_copy<unsigned char,unsigned char>, COMDAT

; 106  : 	size_t _Count = (size_t)(_Last - _First);

  00000	8b 44 24 04	 mov	 eax, DWORD PTR __First$[esp-4]
  00004	56		 push	 esi
  00005	8b 74 24 0c	 mov	 esi, DWORD PTR __Last$[esp]
  00009	2b f0		 sub	 esi, eax

; 107  : 	return ((_Ty2 *)memmove(&*_Dest, &*_First,
; 108  : 		_Count * sizeof (*_First)) + _Count);	// NB: non-overlapping move

  0000b	56		 push	 esi
  0000c	50		 push	 eax
  0000d	8b 44 24 18	 mov	 eax, DWORD PTR __Dest$[esp+8]
  00011	50		 push	 eax
  00012	e8 00 00 00 00	 call	 _memmove
  00017	83 c4 0c	 add	 esp, 12			; 0000000cH
  0001a	03 c6		 add	 eax, esi
  0001c	5e		 pop	 esi

; 109  : 	}

  0001d	c3		 ret	 0
??$_Uninit_copy@EE@std@@YAPAEPAE00AAV?$allocator@E@0@U_Scalar_ptr_iterator_tag@0@@Z ENDP ; std::_Uninit_copy<unsigned char,unsigned char>
_TEXT	ENDS
PUBLIC	?assign@?$char_traits@D@std@@SAXAADABD@Z	; std::char_traits<char>::assign
; Function compile flags: /Ogty
; File c:\program files\microsoft visual studio .net 2003\vc7\include\iosfwd
;	COMDAT ?assign@?$char_traits@D@std@@SAXAADABD@Z
_TEXT	SEGMENT
__Left$ = 8						; size = 4
__Right$ = 12						; size = 4
?assign@?$char_traits@D@std@@SAXAADABD@Z PROC NEAR	; std::char_traits<char>::assign, COMDAT

; 331  : 		_Left = _Right;

  00000	8b 44 24 08	 mov	 eax, DWORD PTR __Right$[esp-4]
  00004	8a 08		 mov	 cl, BYTE PTR [eax]
  00006	8b 54 24 04	 mov	 edx, DWORD PTR __Left$[esp-4]
  0000a	88 0a		 mov	 BYTE PTR [edx], cl

; 332  : 		}

  0000c	c3		 ret	 0
?assign@?$char_traits@D@std@@SAXAADABD@Z ENDP		; std::char_traits<char>::assign
_TEXT	ENDS
PUBLIC	?length@?$char_traits@D@std@@SAIPBD@Z		; std::char_traits<char>::length
; Function compile flags: /Ogty
;	COMDAT ?length@?$char_traits@D@std@@SAIPBD@Z
_TEXT	SEGMENT
__First$ = 8						; size = 4
?length@?$char_traits@D@std@@SAIPBD@Z PROC NEAR		; std::char_traits<char>::length, COMDAT

; 352  : 		return (::strlen(_First));

  00000	8b 44 24 04	 mov	 eax, DWORD PTR __First$[esp-4]
  00004	8d 50 01	 lea	 edx, DWORD PTR [eax+1]
$L200497:
  00007	8a 08		 mov	 cl, BYTE PTR [eax]
  00009	40		 inc	 eax
  0000a	84 c9		 test	 cl, cl
  0000c	75 f9		 jne	 SHORT $L200497
  0000e	2b c2		 sub	 eax, edx

; 353  : 		}

  00010	c3		 ret	 0
?length@?$char_traits@D@std@@SAIPBD@Z ENDP		; std::char_traits<char>::length
_TEXT	ENDS
PUBLIC	?copy@?$char_traits@D@std@@SAPADPADPBDI@Z	; std::char_traits<char>::copy
; Function compile flags: /Ogty
;	COMDAT ?copy@?$char_traits@D@std@@SAPADPADPBDI@Z
_TEXT	SEGMENT
__First1$ = 8						; size = 4
__First2$ = 12						; size = 4
__Count$ = 16						; size = 4
?copy@?$char_traits@D@std@@SAPADPADPBDI@Z PROC NEAR	; std::char_traits<char>::copy, COMDAT

; 358  : 		return ((_Elem *)::memcpy(_First1, _First2, _Count));

  00000	8b 4c 24 0c	 mov	 ecx, DWORD PTR __Count$[esp-4]
  00004	56		 push	 esi
  00005	8b 74 24 0c	 mov	 esi, DWORD PTR __First2$[esp]
  00009	57		 push	 edi
  0000a	8b 7c 24 0c	 mov	 edi, DWORD PTR __First1$[esp+4]
  0000e	8b c1		 mov	 eax, ecx
  00010	8b d7		 mov	 edx, edi
  00012	c1 e9 02	 shr	 ecx, 2
  00015	f3 a5		 rep movsd
  00017	8b c8		 mov	 ecx, eax
  00019	83 e1 03	 and	 ecx, 3
  0001c	f3 a4		 rep movsb
  0001e	5f		 pop	 edi
  0001f	8b c2		 mov	 eax, edx
  00021	5e		 pop	 esi

; 359  : 		}

  00022	c3		 ret	 0
?copy@?$char_traits@D@std@@SAPADPADPBDI@Z ENDP		; std::char_traits<char>::copy
_TEXT	ENDS
PUBLIC	?move@?$char_traits@D@std@@SAPADPADPBDI@Z	; std::char_traits<char>::move
; Function compile flags: /Ogty
;	COMDAT ?move@?$char_traits@D@std@@SAPADPADPBDI@Z
_TEXT	SEGMENT
__First1$ = 8						; size = 4
__First2$ = 12						; size = 4
__Count$ = 16						; size = 4
?move@?$char_traits@D@std@@SAPADPADPBDI@Z PROC NEAR	; std::char_traits<char>::move, COMDAT

; 370  : 		return ((_Elem *)::memmove(_First1, _First2, _Count));

  00000	e9 00 00 00 00	 jmp	 _memmove
?move@?$char_traits@D@std@@SAPADPADPBDI@Z ENDP		; std::char_traits<char>::move
_TEXT	ENDS
PUBLIC	?_Ptr_cat@std@@YA?AU_Scalar_ptr_iterator_tag@1@PAE0@Z ; std::_Ptr_cat
; Function compile flags: /Ogty
; File c:\program files\microsoft visual studio .net 2003\vc7\include\xutility
;	COMDAT ?_Ptr_cat@std@@YA?AU_Scalar_ptr_iterator_tag@1@PAE0@Z
_TEXT	SEGMENT
__Cat$ = -1						; size = 1
___formal$ = 8						; size = 4
___formal$ = 12						; size = 4
?_Ptr_cat@std@@YA?AU_Scalar_ptr_iterator_tag@1@PAE0@Z PROC NEAR ; std::_Ptr_cat, COMDAT

; 282  : 	{	// return pointer category from pointer to unsigned char arguments

  00000	51		 push	 ecx

; 283  : 	_Scalar_ptr_iterator_tag _Cat;
; 284  : 	return (_Cat);

  00001	8a 44 24 03	 mov	 al, BYTE PTR __Cat$[esp+4]

; 285  : 	}

  00005	59		 pop	 ecx
  00006	c3		 ret	 0
?_Ptr_cat@std@@YA?AU_Scalar_ptr_iterator_tag@1@PAE0@Z ENDP ; std::_Ptr_cat
_TEXT	ENDS
PUBLIC	?_Ptr_cat@std@@YA?AU_Scalar_ptr_iterator_tag@1@PAH0@Z ; std::_Ptr_cat
; Function compile flags: /Ogty
;	COMDAT ?_Ptr_cat@std@@YA?AU_Scalar_ptr_iterator_tag@1@PAH0@Z
_TEXT	SEGMENT
__Cat$ = -1						; size = 1
___formal$ = 8						; size = 4
___formal$ = 12						; size = 4
?_Ptr_cat@std@@YA?AU_Scalar_ptr_iterator_tag@1@PAH0@Z PROC NEAR ; std::_Ptr_cat, COMDAT

; 335  : 	{	// return pointer category from pointer to int arguments

  00000	51		 push	 ecx

; 336  : 	_Scalar_ptr_iterator_tag _Cat;
; 337  : 	return (_Cat);

  00001	8a 44 24 03	 mov	 al, BYTE PTR __Cat$[esp+4]

; 338  : 	}

  00005	59		 pop	 ecx
  00006	c3		 ret	 0
?_Ptr_cat@std@@YA?AU_Scalar_ptr_iterator_tag@1@PAH0@Z ENDP ; std::_Ptr_cat
_TEXT	ENDS
PUBLIC	?_Ptr_cat@std@@YA?AU_Scalar_ptr_iterator_tag@1@PAK0@Z ; std::_Ptr_cat
; Function compile flags: /Ogty
;	COMDAT ?_Ptr_cat@std@@YA?AU_Scalar_ptr_iterator_tag@1@PAK0@Z
_TEXT	SEGMENT
__Cat$ = -1						; size = 1
___formal$ = 8						; size = 4
___formal$ = 12						; size = 4
?_Ptr_cat@std@@YA?AU_Scalar_ptr_iterator_tag@1@PAK0@Z PROC NEAR ; std::_Ptr_cat, COMDAT

; 371  : 	{	// return pointer category from pointer to unsigned long arguments

  00000	51		 push	 ecx

; 372  : 	_Scalar_ptr_iterator_tag _Cat;
; 373  : 	return (_Cat);

  00001	8a 44 24 03	 mov	 al, BYTE PTR __Cat$[esp+4]

; 374  : 	}

  00005	59		 pop	 ecx
  00006	c3		 ret	 0
?_Ptr_cat@std@@YA?AU_Scalar_ptr_iterator_tag@1@PAK0@Z ENDP ; std::_Ptr_cat
_TEXT	ENDS
PUBLIC	??5CAr@@QAEAAV0@AAE@Z				; CAr::operator>>
; Function compile flags: /Ogty
; File c:\documents and settings\test\mes documents\source\virtuos_v17\build\program\_network\misc\include\ar.h
;	COMDAT ??5CAr@@QAEAAV0@AAE@Z
_TEXT	SEGMENT
_by$ = 8						; size = 4
??5CAr@@QAEAAV0@AAE@Z PROC NEAR				; CAr::operator>>, COMDAT
; _this$ = ecx

; 142  : 	{	CAR_SAFE_READ( BYTE, by );	}

  00000	8b c1		 mov	 eax, ecx
  00002	8b 48 08	 mov	 ecx, DWORD PTR [eax+8]
  00005	56		 push	 esi
  00006	8b 70 0c	 mov	 esi, DWORD PTR [eax+12]
  00009	8d 51 01	 lea	 edx, DWORD PTR [ecx+1]
  0000c	3b d6		 cmp	 edx, esi
  0000e	5e		 pop	 esi
  0000f	77 0e		 ja	 SHORT $L162848
  00011	8a 09		 mov	 cl, BYTE PTR [ecx]
  00013	8b 54 24 04	 mov	 edx, DWORD PTR _by$[esp-4]
  00017	88 0a		 mov	 BYTE PTR [edx], cl
  00019	ff 40 08	 inc	 DWORD PTR [eax+8]
  0001c	c2 04 00	 ret	 4
$L162848:
  0001f	8b 4c 24 04	 mov	 ecx, DWORD PTR _by$[esp-4]
  00023	c6 01 00	 mov	 BYTE PTR [ecx], 0
  00026	8b 50 0c	 mov	 edx, DWORD PTR [eax+12]
  00029	89 50 08	 mov	 DWORD PTR [eax+8], edx
  0002c	c2 04 00	 ret	 4
??5CAr@@QAEAAV0@AAE@Z ENDP				; CAr::operator>>
_TEXT	ENDS
PUBLIC	??5CAr@@QAEAAV0@AAK@Z				; CAr::operator>>
; Function compile flags: /Ogty
;	COMDAT ??5CAr@@QAEAAV0@AAK@Z
_TEXT	SEGMENT
_dw$ = 8						; size = 4
??5CAr@@QAEAAV0@AAK@Z PROC NEAR				; CAr::operator>>, COMDAT
; _this$ = ecx

; 146  : 	{	CAR_SAFE_READ( DWORD, dw );	}

  00000	8b c1		 mov	 eax, ecx
  00002	8b 48 08	 mov	 ecx, DWORD PTR [eax+8]
  00005	56		 push	 esi
  00006	8b 70 0c	 mov	 esi, DWORD PTR [eax+12]
  00009	8d 51 04	 lea	 edx, DWORD PTR [ecx+4]
  0000c	3b d6		 cmp	 edx, esi
  0000e	5e		 pop	 esi
  0000f	77 0f		 ja	 SHORT $L162868
  00011	8b 09		 mov	 ecx, DWORD PTR [ecx]
  00013	8b 54 24 04	 mov	 edx, DWORD PTR _dw$[esp-4]
  00017	89 0a		 mov	 DWORD PTR [edx], ecx
  00019	83 40 08 04	 add	 DWORD PTR [eax+8], 4
  0001d	c2 04 00	 ret	 4
$L162868:
  00020	8b 4c 24 04	 mov	 ecx, DWORD PTR _dw$[esp-4]
  00024	c7 01 00 00 00
	00		 mov	 DWORD PTR [ecx], 0
  0002a	8b 50 0c	 mov	 edx, DWORD PTR [eax+12]
  0002d	89 50 08	 mov	 DWORD PTR [eax+8], edx
  00030	c2 04 00	 ret	 4
??5CAr@@QAEAAV0@AAK@Z ENDP				; CAr::operator>>
_TEXT	ENDS
PUBLIC	??5CAr@@QAEAAV0@AAJ@Z				; CAr::operator>>
; Function compile flags: /Ogty
;	COMDAT ??5CAr@@QAEAAV0@AAJ@Z
_TEXT	SEGMENT
_l$ = 8							; size = 4
??5CAr@@QAEAAV0@AAJ@Z PROC NEAR				; CAr::operator>>, COMDAT
; _this$ = ecx

; 152  : 	{	CAR_SAFE_READ( LONG, l );	}

  00000	8b c1		 mov	 eax, ecx
  00002	8b 48 08	 mov	 ecx, DWORD PTR [eax+8]
  00005	56		 push	 esi
  00006	8b 70 0c	 mov	 esi, DWORD PTR [eax+12]
  00009	8d 51 04	 lea	 edx, DWORD PTR [ecx+4]
  0000c	3b d6		 cmp	 edx, esi
  0000e	5e		 pop	 esi
  0000f	77 0f		 ja	 SHORT $L162898
  00011	8b 09		 mov	 ecx, DWORD PTR [ecx]
  00013	8b 54 24 04	 mov	 edx, DWORD PTR _l$[esp-4]
  00017	89 0a		 mov	 DWORD PTR [edx], ecx
  00019	83 40 08 04	 add	 DWORD PTR [eax+8], 4
  0001d	c2 04 00	 ret	 4
$L162898:
  00020	8b 4c 24 04	 mov	 ecx, DWORD PTR _l$[esp-4]
  00024	c7 01 00 00 00
	00		 mov	 DWORD PTR [ecx], 0
  0002a	8b 50 0c	 mov	 edx, DWORD PTR [eax+12]
  0002d	89 50 08	 mov	 DWORD PTR [eax+8], edx
  00030	c2 04 00	 ret	 4
??5CAr@@QAEAAV0@AAJ@Z ENDP				; CAr::operator>>
_TEXT	ENDS
PUBLIC	?size@?$basic_string@DU?$char_traits@D@std@@V?$allocator@D@2@@std@@QBEIXZ ; std::basic_string<char,std::char_traits<char>,std::allocator<char> >::size
; Function compile flags: /Ogty
; File c:\program files\microsoft visual studio .net 2003\vc7\include\xstring
;	COMDAT ?size@?$basic_string@DU?$char_traits@D@std@@V?$allocator@D@2@@std@@QBEIXZ
_TEXT	SEGMENT
?size@?$basic_string@DU?$char_traits@D@std@@V?$allocator@D@2@@std@@QBEIXZ PROC NEAR ; std::basic_string<char,std::char_traits<char>,std::allocator<char> >::size, COMDAT
; _this$ = ecx

; 1109 : 		return (_Mysize);

  00000	8b 41 14	 mov	 eax, DWORD PTR [ecx+20]

; 1110 : 		}

  00003	c3		 ret	 0
?size@?$basic_string@DU?$char_traits@D@std@@V?$allocator@D@2@@std@@QBEIXZ ENDP ; std::basic_string<char,std::char_traits<char>,std::allocator<char> >::size
_TEXT	ENDS
PUBLIC	?_Myptr@?$basic_string@DU?$char_traits@D@std@@V?$allocator@D@2@@std@@QBEPBDXZ ; std::basic_string<char,std::char_traits<char>,std::allocator<char> >::_Myptr
; Function compile flags: /Ogty
;	COMDAT ?_Myptr@?$basic_string@DU?$char_traits@D@std@@V?$allocator@D@2@@std@@QBEPBDXZ
_TEXT	SEGMENT
?_Myptr@?$basic_string@DU?$char_traits@D@std@@V?$allocator@D@2@@std@@QBEPBDXZ PROC NEAR ; std::basic_string<char,std::char_traits<char>,std::allocator<char> >::_Myptr, COMDAT
; _this$ = ecx

; 1537 : 		return (_BUF_SIZE <= _Myres ? _Bx._Ptr : _Bx._Buf);

  00000	83 79 18 10	 cmp	 DWORD PTR [ecx+24], 16	; 00000010H
  00004	72 04		 jb	 SHORT $L200519
  00006	8b 41 04	 mov	 eax, DWORD PTR [ecx+4]

; 1538 : 		}

  00009	c3		 ret	 0
$L200519:

; 1537 : 		return (_BUF_SIZE <= _Myres ? _Bx._Ptr : _Bx._Buf);

  0000a	8d 41 04	 lea	 eax, DWORD PTR [ecx+4]

; 1538 : 		}

  0000d	c3		 ret	 0
?_Myptr@?$basic_string@DU?$char_traits@D@std@@V?$allocator@D@2@@std@@QBEPBDXZ ENDP ; std::basic_string<char,std::char_traits<char>,std::allocator<char> >::_Myptr
_TEXT	ENDS
PUBLIC	??0?$allocator@D@std@@QAE@XZ			; std::allocator<char>::allocator<char>
; Function compile flags: /Ogty
; File c:\program files\microsoft visual studio .net 2003\vc7\include\xmemory
;	COMDAT ??0?$allocator@D@std@@QAE@XZ
_TEXT	SEGMENT
??0?$allocator@D@std@@QAE@XZ PROC NEAR			; std::allocator<char>::allocator<char>, COMDAT
; _this$ = ecx

; 111  : 	allocator()

  00000	8b c1		 mov	 eax, ecx

; 112  : 		{	// construct default allocator (do nothing)
; 113  : 		}

  00002	c3		 ret	 0
??0?$allocator@D@std@@QAE@XZ ENDP			; std::allocator<char>::allocator<char>
_TEXT	ENDS
PUBLIC	??0?$allocator@D@std@@QAE@ABV01@@Z		; std::allocator<char>::allocator<char>
; Function compile flags: /Ogty
;	COMDAT ??0?$allocator@D@std@@QAE@ABV01@@Z
_TEXT	SEGMENT
___formal$ = 8						; size = 4
??0?$allocator@D@std@@QAE@ABV01@@Z PROC NEAR		; std::allocator<char>::allocator<char>, COMDAT
; _this$ = ecx

; 115  : 	allocator(const allocator<_Ty>&)

  00000	8b c1		 mov	 eax, ecx

; 116  : 		{	// construct by copying (do nothing)
; 117  : 		}

  00002	c2 04 00	 ret	 4
??0?$allocator@D@std@@QAE@ABV01@@Z ENDP			; std::allocator<char>::allocator<char>
_TEXT	ENDS
PUBLIC	??0?$allocator@K@std@@QAE@XZ			; std::allocator<unsigned long>::allocator<unsigned long>
; Function compile flags: /Ogty
;	COMDAT ??0?$allocator@K@std@@QAE@XZ
_TEXT	SEGMENT
??0?$allocator@K@std@@QAE@XZ PROC NEAR			; std::allocator<unsigned long>::allocator<unsigned long>, COMDAT
; _this$ = ecx

; 111  : 	allocator()

  00000	8b c1		 mov	 eax, ecx

; 112  : 		{	// construct default allocator (do nothing)
; 113  : 		}

  00002	c3		 ret	 0
??0?$allocator@K@std@@QAE@XZ ENDP			; std::allocator<unsigned long>::allocator<unsigned long>
_TEXT	ENDS
PUBLIC	?_Myptr@?$basic_string@DU?$char_traits@D@std@@V?$allocator@D@2@@std@@QAEPADXZ ; std::basic_string<char,std::char_traits<char>,std::allocator<char> >::_Myptr
; Function compile flags: /Ogty
; File c:\program files\microsoft visual studio .net 2003\vc7\include\xstring
;	COMDAT ?_Myptr@?$basic_string@DU?$char_traits@D@std@@V?$allocator@D@2@@std@@QAEPADXZ
_TEXT	SEGMENT
?_Myptr@?$basic_string@DU?$char_traits@D@std@@V?$allocator@D@2@@std@@QAEPADXZ PROC NEAR ; std::basic_string<char,std::char_traits<char>,std::allocator<char> >::_Myptr, COMDAT
; _this$ = ecx

; 1532 : 		return (_BUF_SIZE <= _Myres ? _Bx._Ptr : _Bx._Buf);

  00000	83 79 18 10	 cmp	 DWORD PTR [ecx+24], 16	; 00000010H
  00004	72 04		 jb	 SHORT $L200529
  00006	8b 41 04	 mov	 eax, DWORD PTR [ecx+4]

; 1533 : 		}

  00009	c3		 ret	 0
$L200529:

; 1532 : 		return (_BUF_SIZE <= _Myres ? _Bx._Ptr : _Bx._Buf);

  0000a	8d 41 04	 lea	 eax, DWORD PTR [ecx+4]

; 1533 : 		}

  0000d	c3		 ret	 0
?_Myptr@?$basic_string@DU?$char_traits@D@std@@V?$allocator@D@2@@std@@QAEPADXZ ENDP ; std::basic_string<char,std::char_traits<char>,std::allocator<char> >::_Myptr
_TEXT	ENDS
PUBLIC	?deallocate@?$allocator@D@std@@QAEXPADI@Z	; std::allocator<char>::deallocate
; Function compile flags: /Ogty
; File c:\program files\microsoft visual studio .net 2003\vc7\include\xmemory
;	COMDAT ?deallocate@?$allocator@D@std@@QAEXPADI@Z
_TEXT	SEGMENT
__Ptr$ = 8						; size = 4
___formal$ = 12						; size = 4
?deallocate@?$allocator@D@std@@QAEXPADI@Z PROC NEAR	; std::allocator<char>::deallocate, COMDAT
; _this$ = ecx

; 132  : 		operator delete(_Ptr);

  00000	8b 44 24 04	 mov	 eax, DWORD PTR __Ptr$[esp-4]
  00004	50		 push	 eax
  00005	e8 00 00 00 00	 call	 ??3@YAXPAX@Z		; operator delete
  0000a	59		 pop	 ecx

; 133  : 		}

  0000b	c2 08 00	 ret	 8
?deallocate@?$allocator@D@std@@QAEXPADI@Z ENDP		; std::allocator<char>::deallocate
_TEXT	ENDS
PUBLIC	??0?$allocator@K@std@@QAE@ABV01@@Z		; std::allocator<unsigned long>::allocator<unsigned long>
; Function compile flags: /Ogty
;	COMDAT ??0?$allocator@K@std@@QAE@ABV01@@Z
_TEXT	SEGMENT
___formal$ = 8						; size = 4
??0?$allocator@K@std@@QAE@ABV01@@Z PROC NEAR		; std::allocator<unsigned long>::allocator<unsigned long>, COMDAT
; _this$ = ecx

; 115  : 	allocator(const allocator<_Ty>&)

  00000	8b c1		 mov	 eax, ecx

; 116  : 		{	// construct by copying (do nothing)
; 117  : 		}

  00002	c2 04 00	 ret	 4
??0?$allocator@K@std@@QAE@ABV01@@Z ENDP			; std::allocator<unsigned long>::allocator<unsigned long>
_TEXT	ENDS
PUBLIC	?deallocate@?$allocator@K@std@@QAEXPAKI@Z	; std::allocator<unsigned long>::deallocate
; Function compile flags: /Ogty
;	COMDAT ?deallocate@?$allocator@K@std@@QAEXPAKI@Z
_TEXT	SEGMENT
__Ptr$ = 8						; size = 4
___formal$ = 12						; size = 4
?deallocate@?$allocator@K@std@@QAEXPAKI@Z PROC NEAR	; std::allocator<unsigned long>::deallocate, COMDAT
; _this$ = ecx

; 132  : 		operator delete(_Ptr);

  00000	8b 44 24 04	 mov	 eax, DWORD PTR __Ptr$[esp-4]
  00004	50		 push	 eax
  00005	e8 00 00 00 00	 call	 ??3@YAXPAX@Z		; operator delete
  0000a	59		 pop	 ecx

; 133  : 		}

  0000b	c2 08 00	 ret	 8
?deallocate@?$allocator@K@std@@QAEXPAKI@Z ENDP		; std::allocator<unsigned long>::deallocate
_TEXT	ENDS
PUBLIC	?_Inside@?$basic_string@DU?$char_traits@D@std@@V?$allocator@D@2@@std@@IAE_NPBD@Z ; std::basic_string<char,std::char_traits<char>,std::allocator<char> >::_Inside
; Function compile flags: /Ogty
; File c:\program files\microsoft visual studio .net 2003\vc7\include\xstring
;	COMDAT ?_Inside@?$basic_string@DU?$char_traits@D@std@@V?$allocator@D@2@@std@@IAE_NPBD@Z
_TEXT	SEGMENT
__Ptr$ = 8						; size = 4
?_Inside@?$basic_string@DU?$char_traits@D@std@@V?$allocator@D@2@@std@@IAE_NPBD@Z PROC NEAR ; std::basic_string<char,std::char_traits<char>,std::allocator<char> >::_Inside, COMDAT
; _this$ = ecx

; 1494 : 		{	// test if _Ptr points inside string

  00000	56		 push	 esi

; 1495 : 		if (_Ptr < _Myptr() || _Myptr() + _Mysize <= _Ptr)

  00001	8b 71 18	 mov	 esi, DWORD PTR [ecx+24]
  00004	83 fe 10	 cmp	 esi, 16			; 00000010H
  00007	57		 push	 edi
  00008	8d 41 04	 lea	 eax, DWORD PTR [ecx+4]
  0000b	72 04		 jb	 SHORT $L200544
  0000d	8b 10		 mov	 edx, DWORD PTR [eax]
  0000f	eb 02		 jmp	 SHORT $L200545
$L200544:
  00011	8b d0		 mov	 edx, eax
$L200545:
  00013	8b 7c 24 0c	 mov	 edi, DWORD PTR __Ptr$[esp+4]
  00017	3b fa		 cmp	 edi, edx
  00019	72 17		 jb	 SHORT $L185560
  0001b	83 fe 10	 cmp	 esi, 16			; 00000010H
  0001e	72 02		 jb	 SHORT $L200552
  00020	8b 00		 mov	 eax, DWORD PTR [eax]
$L200552:
  00022	8b 49 14	 mov	 ecx, DWORD PTR [ecx+20]
  00025	03 c8		 add	 ecx, eax
  00027	3b cf		 cmp	 ecx, edi
  00029	76 07		 jbe	 SHORT $L185560
  0002b	5f		 pop	 edi

; 1497 : 		else
; 1498 : 			return (true);

  0002c	b0 01		 mov	 al, 1
  0002e	5e		 pop	 esi

; 1499 : 		}

  0002f	c2 04 00	 ret	 4
$L185560:
  00032	5f		 pop	 edi

; 1496 : 			return (false);	// don't ask

  00033	32 c0		 xor	 al, al
  00035	5e		 pop	 esi

; 1499 : 		}

  00036	c2 04 00	 ret	 4
?_Inside@?$basic_string@DU?$char_traits@D@std@@V?$allocator@D@2@@std@@IAE_NPBD@Z ENDP ; std::basic_string<char,std::char_traits<char>,std::allocator<char> >::_Inside
_TEXT	ENDS
PUBLIC	?max_size@?$allocator@K@std@@QBEIXZ		; std::allocator<unsigned long>::max_size
; Function compile flags: /Ogty
; File c:\program files\microsoft visual studio .net 2003\vc7\include\xmemory
;	COMDAT ?max_size@?$allocator@K@std@@QBEIXZ
_TEXT	SEGMENT
?max_size@?$allocator@K@std@@QBEIXZ PROC NEAR		; std::allocator<unsigned long>::max_size, COMDAT
; _this$ = ecx

; 157  : 		_SIZT _Count = (_SIZT)(-1) / sizeof (_Ty);
; 158  : 		return (0 < _Count ? _Count : 1);

  00000	b8 ff ff ff 3f	 mov	 eax, 1073741823		; 3fffffffH

; 159  : 		}

  00005	c3		 ret	 0
?max_size@?$allocator@K@std@@QBEIXZ ENDP		; std::allocator<unsigned long>::max_size
_TEXT	ENDS
PUBLIC	?max_size@?$allocator@D@std@@QBEIXZ		; std::allocator<char>::max_size
; Function compile flags: /Ogty
;	COMDAT ?max_size@?$allocator@D@std@@QBEIXZ
_TEXT	SEGMENT
?max_size@?$allocator@D@std@@QBEIXZ PROC NEAR		; std::allocator<char>::max_size, COMDAT
; _this$ = ecx

; 157  : 		_SIZT _Count = (_SIZT)(-1) / sizeof (_Ty);
; 158  : 		return (0 < _Count ? _Count : 1);

  00000	83 c8 ff	 or	 eax, -1

; 159  : 		}

  00003	c3		 ret	 0
?max_size@?$allocator@D@std@@QBEIXZ ENDP		; std::allocator<char>::max_size
_TEXT	ENDS
PUBLIC	??$_Destroy_range@KV?$allocator@K@std@@@std@@YAXPAK0AAV?$allocator@K@0@@Z ; std::_Destroy_range<unsigned long,std::allocator<unsigned long> >
; Function compile flags: /Ogty
;	COMDAT ??$_Destroy_range@KV?$allocator@K@std@@@std@@YAXPAK0AAV?$allocator@K@0@@Z
_TEXT	SEGMENT
__First$ = 8						; size = 4
__Last$ = 12						; size = 4
__Al$ = 16						; size = 4
??$_Destroy_range@KV?$allocator@K@std@@@std@@YAXPAK0AAV?$allocator@K@0@@Z PROC NEAR ; std::_Destroy_range<unsigned long,std::allocator<unsigned long> >, COMDAT

; 217  : 	_Destroy_range(_First, _Last, _Al, _Ptr_cat(_First, _Last));
; 218  : 	}

  00000	c3		 ret	 0
??$_Destroy_range@KV?$allocator@K@std@@@std@@YAXPAK0AAV?$allocator@K@0@@Z ENDP ; std::_Destroy_range<unsigned long,std::allocator<unsigned long> >
_TEXT	ENDS
PUBLIC	??$_Allocate@K@std@@YAPAKIPAK@Z			; std::_Allocate<unsigned long>
; Function compile flags: /Ogty
;	COMDAT ??$_Allocate@K@std@@YAPAKIPAK@Z
_TEXT	SEGMENT
__Count$ = 8						; size = 4
___formal$ = 12						; size = 4
??$_Allocate@K@std@@YAPAKIPAK@Z PROC NEAR		; std::_Allocate<unsigned long>, COMDAT

; 34   : 	return ((_Ty _FARQ *)operator new(_Count * sizeof (_Ty)));

  00000	8b 44 24 04	 mov	 eax, DWORD PTR __Count$[esp-4]
  00004	8d 0c 85 00 00
	00 00		 lea	 ecx, DWORD PTR [eax*4]
  0000b	51		 push	 ecx
  0000c	e8 00 00 00 00	 call	 ??2@YAPAXI@Z		; operator new
  00011	83 c4 04	 add	 esp, 4

; 35   : 	}

  00014	c3		 ret	 0
??$_Allocate@K@std@@YAPAKIPAK@Z ENDP			; std::_Allocate<unsigned long>
_TEXT	ENDS
PUBLIC	??$_Allocate@D@std@@YAPADIPAD@Z			; std::_Allocate<char>
; Function compile flags: /Ogty
;	COMDAT ??$_Allocate@D@std@@YAPADIPAD@Z
_TEXT	SEGMENT
__Count$ = 8						; size = 4
___formal$ = 12						; size = 4
??$_Allocate@D@std@@YAPADIPAD@Z PROC NEAR		; std::_Allocate<char>, COMDAT

; 34   : 	return ((_Ty _FARQ *)operator new(_Count * sizeof (_Ty)));

  00000	8b 44 24 04	 mov	 eax, DWORD PTR __Count$[esp-4]
  00004	50		 push	 eax
  00005	e8 00 00 00 00	 call	 ??2@YAPAXI@Z		; operator new
  0000a	83 c4 04	 add	 esp, 4

; 35   : 	}

  0000d	c3		 ret	 0
??$_Allocate@D@std@@YAPADIPAD@Z ENDP			; std::_Allocate<char>
_TEXT	ENDS
PUBLIC	??_C@_0DG@LLEPPCHM@CSecretRoomDBMng?5?9?5m_SRDbControl@ ; `string'
PUBLIC	??0CSecretRoomDBMng@@QAE@XZ			; CSecretRoomDBMng::CSecretRoomDBMng
EXTRN	?CreateDbHandler@CDbController@@QAEHK@Z:NEAR	; CDbController::CreateDbHandler
EXTRN	?Error@@YAPBDPBDZZ:NEAR				; Error
EXTRN	__except_list:DWORD
EXTRN	___CxxFrameHandler:NEAR
;	COMDAT xdata$x
; File c:\documents and settings\test\mes documents\source\virtuos_v17\build\program\databaseserver\secretroomdbmng.cpp
xdata$x	SEGMENT
$T200589 DD	0ffffffffH
	DD	FLAT:$L200577
$T200585 DD	019930520H
	DD	01H
	DD	FLAT:$T200589
	DD	2 DUP(00H)
	DD	2 DUP(00H)
xdata$x	ENDS
;	COMDAT ??_C@_0DG@LLEPPCHM@CSecretRoomDBMng?5?9?5m_SRDbControl@
CONST	SEGMENT
??_C@_0DG@LLEPPCHM@CSecretRoomDBMng?5?9?5m_SRDbControl@ DB 'CSecretRoomDB'
	DB	'Mng - m_SRDbController.CreateDbHandler()', 00H ; `string'
; Function compile flags: /Ogty
CONST	ENDS
;	COMDAT ??0CSecretRoomDBMng@@QAE@XZ
_TEXT	SEGMENT
_this$ = -16						; size = 4
__$EHRec$ = -12						; size = 12
??0CSecretRoomDBMng@@QAE@XZ PROC NEAR			; CSecretRoomDBMng::CSecretRoomDBMng, COMDAT
; _this$ = ecx

; 11   : {

  00000	6a ff		 push	 -1
  00002	68 00 00 00 00	 push	 __ehhandler$??0CSecretRoomDBMng@@QAE@XZ
  00007	64 a1 00 00 00
	00		 mov	 eax, DWORD PTR fs:__except_list
  0000d	50		 push	 eax
  0000e	64 89 25 00 00
	00 00		 mov	 DWORD PTR fs:__except_list, esp
  00015	51		 push	 ecx
  00016	56		 push	 esi
  00017	8b f1		 mov	 esi, ecx
  00019	89 74 24 04	 mov	 DWORD PTR _this$[esp+20], esi
  0001d	e8 00 00 00 00	 call	 ??0CDbController@@QAE@XZ ; CDbController::CDbController
  00022	33 c0		 xor	 eax, eax
  00024	c7 06 00 00 00
	00		 mov	 DWORD PTR [esi], OFFSET FLAT:??_7CSecretRoomDbController@@6B@
  0002a	89 46 14	 mov	 DWORD PTR [esi+20], eax

; 12   : 	if( !m_SRDbController.CreateDbHandler() )

  0002d	6a ff		 push	 -1
  0002f	8b ce		 mov	 ecx, esi
  00031	89 44 24 14	 mov	 DWORD PTR __$EHRec$[esp+32], eax
  00035	e8 00 00 00 00	 call	 ?CreateDbHandler@CDbController@@QAEHK@Z ; CDbController::CreateDbHandler
  0003a	85 c0		 test	 eax, eax
  0003c	75 0d		 jne	 SHORT $L200586

; 13   : 		Error( "CSecretRoomDBMng - m_SRDbController.CreateDbHandler()" );

  0003e	68 00 00 00 00	 push	 OFFSET FLAT:??_C@_0DG@LLEPPCHM@CSecretRoomDBMng?5?9?5m_SRDbControl@
  00043	e8 00 00 00 00	 call	 ?Error@@YAPBDPBDZZ	; Error
  00048	83 c4 04	 add	 esp, 4
$L200586:

; 14   : }

  0004b	8b 4c 24 08	 mov	 ecx, DWORD PTR __$EHRec$[esp+20]
  0004f	8b c6		 mov	 eax, esi
  00051	5e		 pop	 esi
  00052	64 89 0d 00 00
	00 00		 mov	 DWORD PTR fs:__except_list, ecx
  00059	83 c4 10	 add	 esp, 16			; 00000010H
  0005c	c3		 ret	 0
_TEXT	ENDS
;	COMDAT text$x
text$x	SEGMENT
$L200577:
  00000	8b 4d f0	 mov	 ecx, DWORD PTR _this$[ebp]
  00003	e9 00 00 00 00	 jmp	 ??1CSecretRoomDbController@@UAE@XZ ; CSecretRoomDbController::~CSecretRoomDbController
__ehhandler$??0CSecretRoomDBMng@@QAE@XZ:
  00008	b8 00 00 00 00	 mov	 eax, OFFSET FLAT:$T200585
  0000d	e9 00 00 00 00	 jmp	 ___CxxFrameHandler
text$x	ENDS
??0CSecretRoomDBMng@@QAE@XZ ENDP			; CSecretRoomDBMng::CSecretRoomDBMng
PUBLIC	??1CSecretRoomDBMng@@QAE@XZ			; CSecretRoomDBMng::~CSecretRoomDBMng
EXTRN	?CloseDbHandler@CDbController@@QAEXXZ:NEAR	; CDbController::CloseDbHandler
;	COMDAT xdata$x
xdata$x	SEGMENT
$T200603 DD	0ffffffffH
	DD	FLAT:$L200595
$T200601 DD	019930520H
	DD	01H
	DD	FLAT:$T200603
	DD	2 DUP(00H)
	DD	2 DUP(00H)
; Function compile flags: /Ogty
xdata$x	ENDS
;	COMDAT ??1CSecretRoomDBMng@@QAE@XZ
_TEXT	SEGMENT
_this$ = -16						; size = 4
__$EHRec$ = -12						; size = 12
??1CSecretRoomDBMng@@QAE@XZ PROC NEAR			; CSecretRoomDBMng::~CSecretRoomDBMng, COMDAT
; _this$ = ecx

; 17   : {

  00000	6a ff		 push	 -1
  00002	68 00 00 00 00	 push	 __ehhandler$??1CSecretRoomDBMng@@QAE@XZ
  00007	64 a1 00 00 00
	00		 mov	 eax, DWORD PTR fs:__except_list
  0000d	50		 push	 eax
  0000e	64 89 25 00 00
	00 00		 mov	 DWORD PTR fs:__except_list, esp
  00015	51		 push	 ecx
  00016	56		 push	 esi
  00017	8b f1		 mov	 esi, ecx
  00019	89 74 24 04	 mov	 DWORD PTR _this$[esp+20], esi
  0001d	c7 44 24 10 00
	00 00 00	 mov	 DWORD PTR __$EHRec$[esp+28], 0

; 18   : 	m_SRDbController.CloseDbHandler();

  00025	e8 00 00 00 00	 call	 ?CloseDbHandler@CDbController@@QAEXXZ ; CDbController::CloseDbHandler

; 19   : }

  0002a	8b ce		 mov	 ecx, esi
  0002c	c7 44 24 10 ff
	ff ff ff	 mov	 DWORD PTR __$EHRec$[esp+28], -1
  00034	c7 06 00 00 00
	00		 mov	 DWORD PTR [esi], OFFSET FLAT:??_7CSecretRoomDbController@@6B@
  0003a	e8 00 00 00 00	 call	 ??1CDbController@@UAE@XZ ; CDbController::~CDbController
  0003f	8b 4c 24 08	 mov	 ecx, DWORD PTR __$EHRec$[esp+20]
  00043	5e		 pop	 esi
  00044	64 89 0d 00 00
	00 00		 mov	 DWORD PTR fs:__except_list, ecx
  0004b	83 c4 10	 add	 esp, 16			; 00000010H
  0004e	c3		 ret	 0
_TEXT	ENDS
;	COMDAT text$x
text$x	SEGMENT
$L200595:
  00000	8b 4d f0	 mov	 ecx, DWORD PTR _this$[ebp]
  00003	e9 00 00 00 00	 jmp	 ??1CSecretRoomDbController@@UAE@XZ ; CSecretRoomDbController::~CSecretRoomDbController
__ehhandler$??1CSecretRoomDBMng@@QAE@XZ:
  00008	b8 00 00 00 00	 mov	 eax, OFFSET FLAT:$T200601
  0000d	e9 00 00 00 00	 jmp	 ___CxxFrameHandler
text$x	ENDS
??1CSecretRoomDBMng@@QAE@XZ ENDP			; CSecretRoomDBMng::~CSecretRoomDBMng
; Function compile flags: /Ogty
;	COMDAT ??_GCSecretRoomDbController@@UAEPAXI@Z
_TEXT	SEGMENT
___flags$ = 8						; size = 4
??_GCSecretRoomDbController@@UAEPAXI@Z PROC NEAR	; CSecretRoomDbController::`scalar deleting destructor', COMDAT
; _this$ = ecx
  00000	56		 push	 esi
  00001	8b f1		 mov	 esi, ecx
  00003	e8 00 00 00 00	 call	 ??1CSecretRoomDbController@@UAE@XZ ; CSecretRoomDbController::~CSecretRoomDbController
  00008	f6 44 24 08 01	 test	 BYTE PTR ___flags$[esp], 1
  0000d	74 09		 je	 SHORT $L200608
  0000f	56		 push	 esi
  00010	e8 00 00 00 00	 call	 ??3@YAXPAX@Z		; operator delete
  00015	83 c4 04	 add	 esp, 4
$L200608:
  00018	8b c6		 mov	 eax, esi
  0001a	5e		 pop	 esi
  0001b	c2 04 00	 ret	 4
??_GCSecretRoomDbController@@UAEPAXI@Z ENDP		; CSecretRoomDbController::`scalar deleting destructor'
_TEXT	ENDS
PUBLIC	??0?$_Vector_val@HV?$allocator@H@std@@@std@@IAE@V?$allocator@H@1@@Z ; std::_Vector_val<int,std::allocator<int> >::_Vector_val<int,std::allocator<int> >
; Function compile flags: /Ogty
; File c:\program files\microsoft visual studio .net 2003\vc7\include\vector
;	COMDAT ??0?$_Vector_val@HV?$allocator@H@std@@@std@@IAE@V?$allocator@H@1@@Z
_TEXT	SEGMENT
__Al$ = 8						; size = 1
??0?$_Vector_val@HV?$allocator@H@std@@@std@@IAE@V?$allocator@H@1@@Z PROC NEAR ; std::_Vector_val<int,std::allocator<int> >::_Vector_val<int,std::allocator<int> >, COMDAT
; _this$ = ecx

; 21   : 		{	// construct allocator from _Al

  00000	8b c1		 mov	 eax, ecx

; 22   : 		}

  00002	c2 04 00	 ret	 4
??0?$_Vector_val@HV?$allocator@H@std@@@std@@IAE@V?$allocator@H@1@@Z ENDP ; std::_Vector_val<int,std::allocator<int> >::_Vector_val<int,std::allocator<int> >
_TEXT	ENDS
PUBLIC	??0?$_Vector_val@EV?$allocator@E@std@@@std@@IAE@V?$allocator@E@1@@Z ; std::_Vector_val<unsigned char,std::allocator<unsigned char> >::_Vector_val<unsigned char,std::allocator<unsigned char> >
; Function compile flags: /Ogty
;	COMDAT ??0?$_Vector_val@EV?$allocator@E@std@@@std@@IAE@V?$allocator@E@1@@Z
_TEXT	SEGMENT
__Al$ = 8						; size = 1
??0?$_Vector_val@EV?$allocator@E@std@@@std@@IAE@V?$allocator@E@1@@Z PROC NEAR ; std::_Vector_val<unsigned char,std::allocator<unsigned char> >::_Vector_val<unsigned char,std::allocator<unsigned char> >, COMDAT
; _this$ = ecx

; 21   : 		{	// construct allocator from _Al

  00000	8b c1		 mov	 eax, ecx

; 22   : 		}

  00002	c2 04 00	 ret	 4
??0?$_Vector_val@EV?$allocator@E@std@@@std@@IAE@V?$allocator@E@1@@Z ENDP ; std::_Vector_val<unsigned char,std::allocator<unsigned char> >::_Vector_val<unsigned char,std::allocator<unsigned char> >
_TEXT	ENDS
PUBLIC	??Diterator@?$vector@KV?$allocator@K@std@@@std@@QBEAAKXZ ; std::vector<unsigned long,std::allocator<unsigned long> >::iterator::operator*
; Function compile flags: /Ogty
;	COMDAT ??Diterator@?$vector@KV?$allocator@K@std@@@std@@QBEAAKXZ
_TEXT	SEGMENT
??Diterator@?$vector@KV?$allocator@K@std@@@std@@QBEAAKXZ PROC NEAR ; std::vector<unsigned long,std::allocator<unsigned long> >::iterator::operator*, COMDAT
; _this$ = ecx

; 220  : 			return ((reference)**(const_iterator *)this);

  00000	8b 01		 mov	 eax, DWORD PTR [ecx]

; 221  : 			}

  00002	c3		 ret	 0
??Diterator@?$vector@KV?$allocator@K@std@@@std@@QBEAAKXZ ENDP ; std::vector<unsigned long,std::allocator<unsigned long> >::iterator::operator*
_TEXT	ENDS
PUBLIC	??Hiterator@?$vector@KV?$allocator@K@std@@@std@@QBE?AV012@H@Z ; std::vector<unsigned long,std::allocator<unsigned long> >::iterator::operator+
; Function compile flags: /Ogty
;	COMDAT ??Hiterator@?$vector@KV?$allocator@K@std@@@std@@QBE?AV012@H@Z
_TEXT	SEGMENT
___$ReturnUdt$ = 8					; size = 4
__Off$ = 12						; size = 4
??Hiterator@?$vector@KV?$allocator@K@std@@@std@@QBE?AV012@H@Z PROC NEAR ; std::vector<unsigned long,std::allocator<unsigned long> >::iterator::operator+, COMDAT
; _this$ = ecx

; 262  : 			iterator _Tmp = *this;
; 263  : 			return (_Tmp += _Off);

  00000	8b 01		 mov	 eax, DWORD PTR [ecx]
  00002	8b 4c 24 08	 mov	 ecx, DWORD PTR __Off$[esp-4]
  00006	8d 14 88	 lea	 edx, DWORD PTR [eax+ecx*4]
  00009	8b 44 24 04	 mov	 eax, DWORD PTR ___$ReturnUdt$[esp-4]
  0000d	89 10		 mov	 DWORD PTR [eax], edx

; 264  : 			}

  0000f	c2 08 00	 ret	 8
??Hiterator@?$vector@KV?$allocator@K@std@@@std@@QBE?AV012@H@Z ENDP ; std::vector<unsigned long,std::allocator<unsigned long> >::iterator::operator+
_TEXT	ENDS
PUBLIC	??Diterator@?$vector@HV?$allocator@H@std@@@std@@QBEAAHXZ ; std::vector<int,std::allocator<int> >::iterator::operator*
; Function compile flags: /Ogty
;	COMDAT ??Diterator@?$vector@HV?$allocator@H@std@@@std@@QBEAAHXZ
_TEXT	SEGMENT
??Diterator@?$vector@HV?$allocator@H@std@@@std@@QBEAAHXZ PROC NEAR ; std::vector<int,std::allocator<int> >::iterator::operator*, COMDAT
; _this$ = ecx

; 220  : 			return ((reference)**(const_iterator *)this);

  00000	8b 01		 mov	 eax, DWORD PTR [ecx]

; 221  : 			}

  00002	c3		 ret	 0
??Diterator@?$vector@HV?$allocator@H@std@@@std@@QBEAAHXZ ENDP ; std::vector<int,std::allocator<int> >::iterator::operator*
_TEXT	ENDS
PUBLIC	??Hiterator@?$vector@HV?$allocator@H@std@@@std@@QBE?AV012@H@Z ; std::vector<int,std::allocator<int> >::iterator::operator+
; Function compile flags: /Ogty
;	COMDAT ??Hiterator@?$vector@HV?$allocator@H@std@@@std@@QBE?AV012@H@Z
_TEXT	SEGMENT
___$ReturnUdt$ = 8					; size = 4
__Off$ = 12						; size = 4
??Hiterator@?$vector@HV?$allocator@H@std@@@std@@QBE?AV012@H@Z PROC NEAR ; std::vector<int,std::allocator<int> >::iterator::operator+, COMDAT
; _this$ = ecx

; 262  : 			iterator _Tmp = *this;
; 263  : 			return (_Tmp += _Off);

  00000	8b 01		 mov	 eax, DWORD PTR [ecx]
  00002	8b 4c 24 08	 mov	 ecx, DWORD PTR __Off$[esp-4]
  00006	8d 14 88	 lea	 edx, DWORD PTR [eax+ecx*4]
  00009	8b 44 24 04	 mov	 eax, DWORD PTR ___$ReturnUdt$[esp-4]
  0000d	89 10		 mov	 DWORD PTR [eax], edx

; 264  : 			}

  0000f	c2 08 00	 ret	 8
??Hiterator@?$vector@HV?$allocator@H@std@@@std@@QBE?AV012@H@Z ENDP ; std::vector<int,std::allocator<int> >::iterator::operator+
_TEXT	ENDS
PUBLIC	??Diterator@?$vector@EV?$allocator@E@std@@@std@@QBEAAEXZ ; std::vector<unsigned char,std::allocator<unsigned char> >::iterator::operator*
; Function compile flags: /Ogty
;	COMDAT ??Diterator@?$vector@EV?$allocator@E@std@@@std@@QBEAAEXZ
_TEXT	SEGMENT
??Diterator@?$vector@EV?$allocator@E@std@@@std@@QBEAAEXZ PROC NEAR ; std::vector<unsigned char,std::allocator<unsigned char> >::iterator::operator*, COMDAT
; _this$ = ecx

; 220  : 			return ((reference)**(const_iterator *)this);

  00000	8b 01		 mov	 eax, DWORD PTR [ecx]

; 221  : 			}

  00002	c3		 ret	 0
??Diterator@?$vector@EV?$allocator@E@std@@@std@@QBEAAEXZ ENDP ; std::vector<unsigned char,std::allocator<unsigned char> >::iterator::operator*
_TEXT	ENDS
PUBLIC	??Hiterator@?$vector@EV?$allocator@E@std@@@std@@QBE?AV012@H@Z ; std::vector<unsigned char,std::allocator<unsigned char> >::iterator::operator+
; Function compile flags: /Ogty
;	COMDAT ??Hiterator@?$vector@EV?$allocator@E@std@@@std@@QBE?AV012@H@Z
_TEXT	SEGMENT
___$ReturnUdt$ = 8					; size = 4
__Off$ = 12						; size = 4
??Hiterator@?$vector@EV?$allocator@E@std@@@std@@QBE?AV012@H@Z PROC NEAR ; std::vector<unsigned char,std::allocator<unsigned char> >::iterator::operator+, COMDAT
; _this$ = ecx

; 262  : 			iterator _Tmp = *this;
; 263  : 			return (_Tmp += _Off);

  00000	8b 09		 mov	 ecx, DWORD PTR [ecx]
  00002	03 4c 24 08	 add	 ecx, DWORD PTR __Off$[esp-4]
  00006	8b 44 24 04	 mov	 eax, DWORD PTR ___$ReturnUdt$[esp-4]
  0000a	89 08		 mov	 DWORD PTR [eax], ecx

; 264  : 			}

  0000c	c2 08 00	 ret	 8
??Hiterator@?$vector@EV?$allocator@E@std@@@std@@QBE?AV012@H@Z ENDP ; std::vector<unsigned char,std::allocator<unsigned char> >::iterator::operator+
_TEXT	ENDS
PUBLIC	?allocate@?$allocator@E@std@@QAEPAEI@Z		; std::allocator<unsigned char>::allocate
; Function compile flags: /Ogty
; File c:\program files\microsoft visual studio .net 2003\vc7\include\xmemory
;	COMDAT ?allocate@?$allocator@E@std@@QAEPAEI@Z
_TEXT	SEGMENT
__Count$ = 8						; size = 4
?allocate@?$allocator@E@std@@QAEPAEI@Z PROC NEAR	; std::allocator<unsigned char>::allocate, COMDAT
; _this$ = ecx

; 137  : 		return (_Allocate(_Count, (pointer)0));

  00000	8b 44 24 04	 mov	 eax, DWORD PTR __Count$[esp-4]
  00004	50		 push	 eax
  00005	e8 00 00 00 00	 call	 ??2@YAPAXI@Z		; operator new
  0000a	83 c4 04	 add	 esp, 4

; 138  : 		}

  0000d	c2 04 00	 ret	 4
?allocate@?$allocator@E@std@@QAEPAEI@Z ENDP		; std::allocator<unsigned char>::allocate
_TEXT	ENDS
PUBLIC	?allocate@?$allocator@H@std@@QAEPAHI@Z		; std::allocator<int>::allocate
; Function compile flags: /Ogty
;	COMDAT ?allocate@?$allocator@H@std@@QAEPAHI@Z
_TEXT	SEGMENT
__Count$ = 8						; size = 4
?allocate@?$allocator@H@std@@QAEPAHI@Z PROC NEAR	; std::allocator<int>::allocate, COMDAT
; _this$ = ecx

; 137  : 		return (_Allocate(_Count, (pointer)0));

  00000	8b 44 24 04	 mov	 eax, DWORD PTR __Count$[esp-4]
  00004	8d 0c 85 00 00
	00 00		 lea	 ecx, DWORD PTR [eax*4]
  0000b	51		 push	 ecx
  0000c	e8 00 00 00 00	 call	 ??2@YAPAXI@Z		; operator new
  00011	83 c4 04	 add	 esp, 4

; 138  : 		}

  00014	c2 04 00	 ret	 4
?allocate@?$allocator@H@std@@QAEPAHI@Z ENDP		; std::allocator<int>::allocate
_TEXT	ENDS
PUBLIC	?max_size@?$vector@HV?$allocator@H@std@@@std@@QBEIXZ ; std::vector<int,std::allocator<int> >::max_size
; Function compile flags: /Ogty
; File c:\program files\microsoft visual studio .net 2003\vc7\include\vector
;	COMDAT ?max_size@?$vector@HV?$allocator@H@std@@@std@@QBEIXZ
_TEXT	SEGMENT
?max_size@?$vector@HV?$allocator@H@std@@@std@@QBEIXZ PROC NEAR ; std::vector<int,std::allocator<int> >::max_size, COMDAT
; _this$ = ecx

; 521  : 		return (this->_Alval.max_size());

  00000	b8 ff ff ff 3f	 mov	 eax, 1073741823		; 3fffffffH

; 522  : 		}

  00005	c3		 ret	 0
?max_size@?$vector@HV?$allocator@H@std@@@std@@QBEIXZ ENDP ; std::vector<int,std::allocator<int> >::max_size
_TEXT	ENDS
PUBLIC	?max_size@?$vector@EV?$allocator@E@std@@@std@@QBEIXZ ; std::vector<unsigned char,std::allocator<unsigned char> >::max_size
; Function compile flags: /Ogty
;	COMDAT ?max_size@?$vector@EV?$allocator@E@std@@@std@@QBEIXZ
_TEXT	SEGMENT
?max_size@?$vector@EV?$allocator@E@std@@@std@@QBEIXZ PROC NEAR ; std::vector<unsigned char,std::allocator<unsigned char> >::max_size, COMDAT
; _this$ = ecx

; 521  : 		return (this->_Alval.max_size());

  00000	83 c8 ff	 or	 eax, -1

; 522  : 		}

  00003	c3		 ret	 0
?max_size@?$vector@EV?$allocator@E@std@@@std@@QBEIXZ ENDP ; std::vector<unsigned char,std::allocator<unsigned char> >::max_size
_TEXT	ENDS
PUBLIC	??0iterator@?$vector@KV?$allocator@K@std@@@std@@QAE@PAK@Z ; std::vector<unsigned long,std::allocator<unsigned long> >::iterator::iterator
; Function compile flags: /Ogty
;	COMDAT ??0iterator@?$vector@KV?$allocator@K@std@@@std@@QAE@PAK@Z
_TEXT	SEGMENT
__Ptr$ = 8						; size = 4
??0iterator@?$vector@KV?$allocator@K@std@@@std@@QAE@PAK@Z PROC NEAR ; std::vector<unsigned long,std::allocator<unsigned long> >::iterator::iterator, COMDAT
; _this$ = ecx

; 215  : 			{	// construct with pointer _Ptr

  00000	8b c1		 mov	 eax, ecx
  00002	8b 4c 24 04	 mov	 ecx, DWORD PTR __Ptr$[esp-4]
  00006	89 08		 mov	 DWORD PTR [eax], ecx

; 216  : 			}

  00008	c2 04 00	 ret	 4
??0iterator@?$vector@KV?$allocator@K@std@@@std@@QAE@PAK@Z ENDP ; std::vector<unsigned long,std::allocator<unsigned long> >::iterator::iterator
_TEXT	ENDS
PUBLIC	??Giterator@?$vector@KV?$allocator@K@std@@@std@@QBEHABVconst_iterator@12@@Z ; std::vector<unsigned long,std::allocator<unsigned long> >::iterator::operator-
; Function compile flags: /Ogty
;	COMDAT ??Giterator@?$vector@KV?$allocator@K@std@@@std@@QBEHABVconst_iterator@12@@Z
_TEXT	SEGMENT
__Right$ = 8						; size = 4
??Giterator@?$vector@KV?$allocator@K@std@@@std@@QBEHABVconst_iterator@12@@Z PROC NEAR ; std::vector<unsigned long,std::allocator<unsigned long> >::iterator::operator-, COMDAT
; _this$ = ecx

; 279  : 			return ((const_iterator)*this - _Right);

  00000	8b 01		 mov	 eax, DWORD PTR [ecx]
  00002	8b 4c 24 04	 mov	 ecx, DWORD PTR __Right$[esp-4]
  00006	2b 01		 sub	 eax, DWORD PTR [ecx]
  00008	c1 f8 02	 sar	 eax, 2

; 280  : 			}

  0000b	c2 04 00	 ret	 4
??Giterator@?$vector@KV?$allocator@K@std@@@std@@QBEHABVconst_iterator@12@@Z ENDP ; std::vector<unsigned long,std::allocator<unsigned long> >::iterator::operator-
_TEXT	ENDS
PUBLIC	??0iterator@?$vector@HV?$allocator@H@std@@@std@@QAE@PAH@Z ; std::vector<int,std::allocator<int> >::iterator::iterator
; Function compile flags: /Ogty
;	COMDAT ??0iterator@?$vector@HV?$allocator@H@std@@@std@@QAE@PAH@Z
_TEXT	SEGMENT
__Ptr$ = 8						; size = 4
??0iterator@?$vector@HV?$allocator@H@std@@@std@@QAE@PAH@Z PROC NEAR ; std::vector<int,std::allocator<int> >::iterator::iterator, COMDAT
; _this$ = ecx

; 215  : 			{	// construct with pointer _Ptr

  00000	8b c1		 mov	 eax, ecx
  00002	8b 4c 24 04	 mov	 ecx, DWORD PTR __Ptr$[esp-4]
  00006	89 08		 mov	 DWORD PTR [eax], ecx

; 216  : 			}

  00008	c2 04 00	 ret	 4
??0iterator@?$vector@HV?$allocator@H@std@@@std@@QAE@PAH@Z ENDP ; std::vector<int,std::allocator<int> >::iterator::iterator
_TEXT	ENDS
PUBLIC	??Giterator@?$vector@HV?$allocator@H@std@@@std@@QBEHABVconst_iterator@12@@Z ; std::vector<int,std::allocator<int> >::iterator::operator-
; Function compile flags: /Ogty
;	COMDAT ??Giterator@?$vector@HV?$allocator@H@std@@@std@@QBEHABVconst_iterator@12@@Z
_TEXT	SEGMENT
__Right$ = 8						; size = 4
??Giterator@?$vector@HV?$allocator@H@std@@@std@@QBEHABVconst_iterator@12@@Z PROC NEAR ; std::vector<int,std::allocator<int> >::iterator::operator-, COMDAT
; _this$ = ecx

; 279  : 			return ((const_iterator)*this - _Right);

  00000	8b 01		 mov	 eax, DWORD PTR [ecx]
  00002	8b 4c 24 04	 mov	 ecx, DWORD PTR __Right$[esp-4]
  00006	2b 01		 sub	 eax, DWORD PTR [ecx]
  00008	c1 f8 02	 sar	 eax, 2

; 280  : 			}

  0000b	c2 04 00	 ret	 4
??Giterator@?$vector@HV?$allocator@H@std@@@std@@QBEHABVconst_iterator@12@@Z ENDP ; std::vector<int,std::allocator<int> >::iterator::operator-
_TEXT	ENDS
PUBLIC	??0iterator@?$vector@EV?$allocator@E@std@@@std@@QAE@PAE@Z ; std::vector<unsigned char,std::allocator<unsigned char> >::iterator::iterator
; Function compile flags: /Ogty
;	COMDAT ??0iterator@?$vector@EV?$allocator@E@std@@@std@@QAE@PAE@Z
_TEXT	SEGMENT
__Ptr$ = 8						; size = 4
??0iterator@?$vector@EV?$allocator@E@std@@@std@@QAE@PAE@Z PROC NEAR ; std::vector<unsigned char,std::allocator<unsigned char> >::iterator::iterator, COMDAT
; _this$ = ecx

; 215  : 			{	// construct with pointer _Ptr

  00000	8b c1		 mov	 eax, ecx
  00002	8b 4c 24 04	 mov	 ecx, DWORD PTR __Ptr$[esp-4]
  00006	89 08		 mov	 DWORD PTR [eax], ecx

; 216  : 			}

  00008	c2 04 00	 ret	 4
??0iterator@?$vector@EV?$allocator@E@std@@@std@@QAE@PAE@Z ENDP ; std::vector<unsigned char,std::allocator<unsigned char> >::iterator::iterator
_TEXT	ENDS
PUBLIC	??Giterator@?$vector@EV?$allocator@E@std@@@std@@QBEHABVconst_iterator@12@@Z ; std::vector<unsigned char,std::allocator<unsigned char> >::iterator::operator-
; Function compile flags: /Ogty
;	COMDAT ??Giterator@?$vector@EV?$allocator@E@std@@@std@@QBEHABVconst_iterator@12@@Z
_TEXT	SEGMENT
__Right$ = 8						; size = 4
??Giterator@?$vector@EV?$allocator@E@std@@@std@@QBEHABVconst_iterator@12@@Z PROC NEAR ; std::vector<unsigned char,std::allocator<unsigned char> >::iterator::operator-, COMDAT
; _this$ = ecx

; 279  : 			return ((const_iterator)*this - _Right);

  00000	8b 01		 mov	 eax, DWORD PTR [ecx]
  00002	8b 4c 24 04	 mov	 ecx, DWORD PTR __Right$[esp-4]
  00006	2b 01		 sub	 eax, DWORD PTR [ecx]

; 280  : 			}

  00008	c2 04 00	 ret	 4
??Giterator@?$vector@EV?$allocator@E@std@@@std@@QBEHABVconst_iterator@12@@Z ENDP ; std::vector<unsigned char,std::allocator<unsigned char> >::iterator::operator-
_TEXT	ENDS
PUBLIC	??$copy_backward@PAKPAK@std@@YAPAKPAK00@Z	; std::copy_backward<unsigned long *,unsigned long *>
; Function compile flags: /Ogty
; File c:\program files\microsoft visual studio .net 2003\vc7\include\xutility
;	COMDAT ??$copy_backward@PAKPAK@std@@YAPAKPAK00@Z
_TEXT	SEGMENT
__First$ = 8						; size = 4
__Last$ = 12						; size = 4
__Dest$ = 16						; size = 4
??$copy_backward@PAKPAK@std@@YAPAKPAK00@Z PROC NEAR	; std::copy_backward<unsigned long *,unsigned long *>, COMDAT

; 1068 : 	return (_Copy_backward_opt(_First, _Last, _Dest,
; 1069 : 		_Ptr_cat(_First, _Dest)));

  00000	8b 4c 24 04	 mov	 ecx, DWORD PTR __First$[esp-4]
  00004	8b 44 24 08	 mov	 eax, DWORD PTR __Last$[esp-4]
  00008	2b c1		 sub	 eax, ecx
  0000a	c1 f8 02	 sar	 eax, 2
  0000d	c1 e0 02	 shl	 eax, 2
  00010	50		 push	 eax
  00011	51		 push	 ecx
  00012	8b 4c 24 14	 mov	 ecx, DWORD PTR __Dest$[esp+4]
  00016	2b c8		 sub	 ecx, eax
  00018	51		 push	 ecx
  00019	e8 00 00 00 00	 call	 _memmove
  0001e	83 c4 0c	 add	 esp, 12			; 0000000cH

; 1070 : 	}

  00021	c3		 ret	 0
??$copy_backward@PAKPAK@std@@YAPAKPAK00@Z ENDP		; std::copy_backward<unsigned long *,unsigned long *>
_TEXT	ENDS
PUBLIC	??$_Destroy_range@HV?$allocator@H@std@@@std@@YAXPAH0AAV?$allocator@H@0@@Z ; std::_Destroy_range<int,std::allocator<int> >
; Function compile flags: /Ogty
; File c:\program files\microsoft visual studio .net 2003\vc7\include\xmemory
;	COMDAT ??$_Destroy_range@HV?$allocator@H@std@@@std@@YAXPAH0AAV?$allocator@H@0@@Z
_TEXT	SEGMENT
__First$ = 8						; size = 4
__Last$ = 12						; size = 4
__Al$ = 16						; size = 4
??$_Destroy_range@HV?$allocator@H@std@@@std@@YAXPAH0AAV?$allocator@H@0@@Z PROC NEAR ; std::_Destroy_range<int,std::allocator<int> >, COMDAT

; 217  : 	_Destroy_range(_First, _Last, _Al, _Ptr_cat(_First, _Last));
; 218  : 	}

  00000	c3		 ret	 0
??$_Destroy_range@HV?$allocator@H@std@@@std@@YAXPAH0AAV?$allocator@H@0@@Z ENDP ; std::_Destroy_range<int,std::allocator<int> >
_TEXT	ENDS
PUBLIC	??$copy_backward@PAHPAH@std@@YAPAHPAH00@Z	; std::copy_backward<int *,int *>
; Function compile flags: /Ogty
; File c:\program files\microsoft visual studio .net 2003\vc7\include\xutility
;	COMDAT ??$copy_backward@PAHPAH@std@@YAPAHPAH00@Z
_TEXT	SEGMENT
__First$ = 8						; size = 4
__Last$ = 12						; size = 4
__Dest$ = 16						; size = 4
??$copy_backward@PAHPAH@std@@YAPAHPAH00@Z PROC NEAR	; std::copy_backward<int *,int *>, COMDAT

; 1068 : 	return (_Copy_backward_opt(_First, _Last, _Dest,
; 1069 : 		_Ptr_cat(_First, _Dest)));

  00000	8b 4c 24 04	 mov	 ecx, DWORD PTR __First$[esp-4]
  00004	8b 44 24 08	 mov	 eax, DWORD PTR __Last$[esp-4]
  00008	2b c1		 sub	 eax, ecx
  0000a	c1 f8 02	 sar	 eax, 2
  0000d	c1 e0 02	 shl	 eax, 2
  00010	50		 push	 eax
  00011	51		 push	 ecx
  00012	8b 4c 24 14	 mov	 ecx, DWORD PTR __Dest$[esp+4]
  00016	2b c8		 sub	 ecx, eax
  00018	51		 push	 ecx
  00019	e8 00 00 00 00	 call	 _memmove
  0001e	83 c4 0c	 add	 esp, 12			; 0000000cH

; 1070 : 	}

  00021	c3		 ret	 0
??$copy_backward@PAHPAH@std@@YAPAHPAH00@Z ENDP		; std::copy_backward<int *,int *>
_TEXT	ENDS
PUBLIC	??$_Destroy_range@EV?$allocator@E@std@@@std@@YAXPAE0AAV?$allocator@E@0@@Z ; std::_Destroy_range<unsigned char,std::allocator<unsigned char> >
; Function compile flags: /Ogty
; File c:\program files\microsoft visual studio .net 2003\vc7\include\xmemory
;	COMDAT ??$_Destroy_range@EV?$allocator@E@std@@@std@@YAXPAE0AAV?$allocator@E@0@@Z
_TEXT	SEGMENT
__First$ = 8						; size = 4
__Last$ = 12						; size = 4
__Al$ = 16						; size = 4
??$_Destroy_range@EV?$allocator@E@std@@@std@@YAXPAE0AAV?$allocator@E@0@@Z PROC NEAR ; std::_Destroy_range<unsigned char,std::allocator<unsigned char> >, COMDAT

; 217  : 	_Destroy_range(_First, _Last, _Al, _Ptr_cat(_First, _Last));
; 218  : 	}

  00000	c3		 ret	 0
??$_Destroy_range@EV?$allocator@E@std@@@std@@YAXPAE0AAV?$allocator@E@0@@Z ENDP ; std::_Destroy_range<unsigned char,std::allocator<unsigned char> >
_TEXT	ENDS
PUBLIC	??$copy_backward@PAEPAE@std@@YAPAEPAE00@Z	; std::copy_backward<unsigned char *,unsigned char *>
; Function compile flags: /Ogty
; File c:\program files\microsoft visual studio .net 2003\vc7\include\xutility
;	COMDAT ??$copy_backward@PAEPAE@std@@YAPAEPAE00@Z
_TEXT	SEGMENT
__First$ = 8						; size = 4
__Last$ = 12						; size = 4
__Dest$ = 16						; size = 4
??$copy_backward@PAEPAE@std@@YAPAEPAE00@Z PROC NEAR	; std::copy_backward<unsigned char *,unsigned char *>, COMDAT

; 1068 : 	return (_Copy_backward_opt(_First, _Last, _Dest,
; 1069 : 		_Ptr_cat(_First, _Dest)));

  00000	8b 4c 24 04	 mov	 ecx, DWORD PTR __First$[esp-4]
  00004	8b 44 24 08	 mov	 eax, DWORD PTR __Last$[esp-4]
  00008	2b c1		 sub	 eax, ecx
  0000a	50		 push	 eax
  0000b	51		 push	 ecx
  0000c	8b 4c 24 14	 mov	 ecx, DWORD PTR __Dest$[esp+4]
  00010	2b c8		 sub	 ecx, eax
  00012	51		 push	 ecx
  00013	e8 00 00 00 00	 call	 _memmove
  00018	83 c4 0c	 add	 esp, 12			; 0000000cH

; 1070 : 	}

  0001b	c3		 ret	 0
??$copy_backward@PAEPAE@std@@YAPAEPAE00@Z ENDP		; std::copy_backward<unsigned char *,unsigned char *>
_TEXT	ENDS
PUBLIC	??$_Uninit_fill_n@KIK@std@@YAXPAKIABKAAV?$allocator@K@0@U_Scalar_ptr_iterator_tag@0@@Z ; std::_Uninit_fill_n<unsigned long,unsigned int,unsigned long>
; Function compile flags: /Ogty
; File c:\program files\microsoft visual studio .net 2003\vc7\include\memory
;	COMDAT ??$_Uninit_fill_n@KIK@std@@YAXPAKIABKAAV?$allocator@K@0@U_Scalar_ptr_iterator_tag@0@@Z
_TEXT	SEGMENT
__First$ = 8						; size = 4
__Count$ = 12						; size = 4
__Val$ = 16						; size = 4
___formal$ = 20						; size = 4
___formal$ = 24						; size = 1
??$_Uninit_fill_n@KIK@std@@YAXPAKIABKAAV?$allocator@K@0@U_Scalar_ptr_iterator_tag@0@@Z PROC NEAR ; std::_Uninit_fill_n<unsigned long,unsigned int,unsigned long>, COMDAT

; 237  : 	fill_n(_First, _Count, _Val);

  00000	8b 4c 24 08	 mov	 ecx, DWORD PTR __Count$[esp-4]
  00004	85 c9		 test	 ecx, ecx
  00006	8b 44 24 04	 mov	 eax, DWORD PTR __First$[esp-4]
  0000a	76 10		 jbe	 SHORT $L200775
  0000c	8b 54 24 0c	 mov	 edx, DWORD PTR __Val$[esp-4]
  00010	56		 push	 esi
$L200773:
  00011	8b 32		 mov	 esi, DWORD PTR [edx]
  00013	89 30		 mov	 DWORD PTR [eax], esi
  00015	83 c0 04	 add	 eax, 4
  00018	49		 dec	 ecx
  00019	75 f6		 jne	 SHORT $L200773
  0001b	5e		 pop	 esi
$L200775:

; 238  : 	}

  0001c	c3		 ret	 0
??$_Uninit_fill_n@KIK@std@@YAXPAKIABKAAV?$allocator@K@0@U_Scalar_ptr_iterator_tag@0@@Z ENDP ; std::_Uninit_fill_n<unsigned long,unsigned int,unsigned long>
_TEXT	ENDS
PUBLIC	??$_Uninit_fill_n@HIH@std@@YAXPAHIABHAAV?$allocator@H@0@U_Scalar_ptr_iterator_tag@0@@Z ; std::_Uninit_fill_n<int,unsigned int,int>
; Function compile flags: /Ogty
;	COMDAT ??$_Uninit_fill_n@HIH@std@@YAXPAHIABHAAV?$allocator@H@0@U_Scalar_ptr_iterator_tag@0@@Z
_TEXT	SEGMENT
__First$ = 8						; size = 4
__Count$ = 12						; size = 4
__Val$ = 16						; size = 4
___formal$ = 20						; size = 4
___formal$ = 24						; size = 1
??$_Uninit_fill_n@HIH@std@@YAXPAHIABHAAV?$allocator@H@0@U_Scalar_ptr_iterator_tag@0@@Z PROC NEAR ; std::_Uninit_fill_n<int,unsigned int,int>, COMDAT

; 237  : 	fill_n(_First, _Count, _Val);

  00000	8b 4c 24 08	 mov	 ecx, DWORD PTR __Count$[esp-4]
  00004	85 c9		 test	 ecx, ecx
  00006	8b 44 24 04	 mov	 eax, DWORD PTR __First$[esp-4]
  0000a	76 10		 jbe	 SHORT $L200787
  0000c	8b 54 24 0c	 mov	 edx, DWORD PTR __Val$[esp-4]
  00010	56		 push	 esi
$L200785:
  00011	8b 32		 mov	 esi, DWORD PTR [edx]
  00013	89 30		 mov	 DWORD PTR [eax], esi
  00015	83 c0 04	 add	 eax, 4
  00018	49		 dec	 ecx
  00019	75 f6		 jne	 SHORT $L200785
  0001b	5e		 pop	 esi
$L200787:

; 238  : 	}

  0001c	c3		 ret	 0
??$_Uninit_fill_n@HIH@std@@YAXPAHIABHAAV?$allocator@H@0@U_Scalar_ptr_iterator_tag@0@@Z ENDP ; std::_Uninit_fill_n<int,unsigned int,int>
_TEXT	ENDS
PUBLIC	??$_Uninit_fill_n@EIE@std@@YAXPAEIABEAAV?$allocator@E@0@U_Scalar_ptr_iterator_tag@0@@Z ; std::_Uninit_fill_n<unsigned char,unsigned int,unsigned char>
; Function compile flags: /Ogty
;	COMDAT ??$_Uninit_fill_n@EIE@std@@YAXPAEIABEAAV?$allocator@E@0@U_Scalar_ptr_iterator_tag@0@@Z
_TEXT	SEGMENT
__First$ = 8						; size = 4
__Count$ = 12						; size = 4
__Val$ = 16						; size = 4
___formal$ = 20						; size = 4
___formal$ = 24						; size = 1
??$_Uninit_fill_n@EIE@std@@YAXPAEIABEAAV?$allocator@E@0@U_Scalar_ptr_iterator_tag@0@@Z PROC NEAR ; std::_Uninit_fill_n<unsigned char,unsigned int,unsigned char>, COMDAT

; 237  : 	fill_n(_First, _Count, _Val);

  00000	8b 4c 24 08	 mov	 ecx, DWORD PTR __Count$[esp-4]
  00004	85 c9		 test	 ecx, ecx
  00006	8b 44 24 04	 mov	 eax, DWORD PTR __First$[esp-4]
  0000a	76 0e		 jbe	 SHORT $L200799
  0000c	56		 push	 esi
  0000d	8b 74 24 10	 mov	 esi, DWORD PTR __Val$[esp]
$L200797:
  00011	8a 16		 mov	 dl, BYTE PTR [esi]
  00013	88 10		 mov	 BYTE PTR [eax], dl
  00015	40		 inc	 eax
  00016	49		 dec	 ecx
  00017	75 f8		 jne	 SHORT $L200797
  00019	5e		 pop	 esi
$L200799:

; 238  : 	}

  0001a	c3		 ret	 0
??$_Uninit_fill_n@EIE@std@@YAXPAEIABEAAV?$allocator@E@0@U_Scalar_ptr_iterator_tag@0@@Z ENDP ; std::_Uninit_fill_n<unsigned char,unsigned int,unsigned char>
_TEXT	ENDS
PUBLIC	??$_Uninitialized_copy@PAKPAKV?$allocator@K@std@@@std@@YAPAKPAK00AAV?$allocator@K@0@@Z ; std::_Uninitialized_copy<unsigned long *,unsigned long *,std::allocator<unsigned long> >
; Function compile flags: /Ogty
;	COMDAT ??$_Uninitialized_copy@PAKPAKV?$allocator@K@std@@@std@@YAPAKPAK00AAV?$allocator@K@0@@Z
_TEXT	SEGMENT
__First$ = 8						; size = 4
__Last$ = 12						; size = 4
__Dest$ = 16						; size = 4
__Al$ = 20						; size = 4
??$_Uninitialized_copy@PAKPAKV?$allocator@K@std@@@std@@YAPAKPAK00AAV?$allocator@K@0@@Z PROC NEAR ; std::_Uninitialized_copy<unsigned long *,unsigned long *,std::allocator<unsigned long> >, COMDAT

; 127  : 	return (_Uninit_copy(_First, _Last, _Dest, _Al,
; 128  : 		_Ptr_cat(_First, _Dest)));

  00000	8b 4c 24 04	 mov	 ecx, DWORD PTR __First$[esp-4]
  00004	8b 44 24 08	 mov	 eax, DWORD PTR __Last$[esp-4]
  00008	2b c1		 sub	 eax, ecx
  0000a	56		 push	 esi
  0000b	c1 f8 02	 sar	 eax, 2
  0000e	8d 34 85 00 00
	00 00		 lea	 esi, DWORD PTR [eax*4]
  00015	8b 44 24 10	 mov	 eax, DWORD PTR __Dest$[esp]
  00019	56		 push	 esi
  0001a	51		 push	 ecx
  0001b	50		 push	 eax
  0001c	e8 00 00 00 00	 call	 _memmove
  00021	83 c4 0c	 add	 esp, 12			; 0000000cH
  00024	03 c6		 add	 eax, esi
  00026	5e		 pop	 esi

; 129  : 	}

  00027	c3		 ret	 0
??$_Uninitialized_copy@PAKPAKV?$allocator@K@std@@@std@@YAPAKPAK00AAV?$allocator@K@0@@Z ENDP ; std::_Uninitialized_copy<unsigned long *,unsigned long *,std::allocator<unsigned long> >
_TEXT	ENDS
PUBLIC	??$_Uninitialized_copy@PAHPAHV?$allocator@H@std@@@std@@YAPAHPAH00AAV?$allocator@H@0@@Z ; std::_Uninitialized_copy<int *,int *,std::allocator<int> >
; Function compile flags: /Ogty
;	COMDAT ??$_Uninitialized_copy@PAHPAHV?$allocator@H@std@@@std@@YAPAHPAH00AAV?$allocator@H@0@@Z
_TEXT	SEGMENT
__First$ = 8						; size = 4
__Last$ = 12						; size = 4
__Dest$ = 16						; size = 4
__Al$ = 20						; size = 4
??$_Uninitialized_copy@PAHPAHV?$allocator@H@std@@@std@@YAPAHPAH00AAV?$allocator@H@0@@Z PROC NEAR ; std::_Uninitialized_copy<int *,int *,std::allocator<int> >, COMDAT

; 127  : 	return (_Uninit_copy(_First, _Last, _Dest, _Al,
; 128  : 		_Ptr_cat(_First, _Dest)));

  00000	8b 4c 24 04	 mov	 ecx, DWORD PTR __First$[esp-4]
  00004	8b 44 24 08	 mov	 eax, DWORD PTR __Last$[esp-4]
  00008	2b c1		 sub	 eax, ecx
  0000a	56		 push	 esi
  0000b	c1 f8 02	 sar	 eax, 2
  0000e	8d 34 85 00 00
	00 00		 lea	 esi, DWORD PTR [eax*4]
  00015	8b 44 24 10	 mov	 eax, DWORD PTR __Dest$[esp]
  00019	56		 push	 esi
  0001a	51		 push	 ecx
  0001b	50		 push	 eax
  0001c	e8 00 00 00 00	 call	 _memmove
  00021	83 c4 0c	 add	 esp, 12			; 0000000cH
  00024	03 c6		 add	 eax, esi
  00026	5e		 pop	 esi

; 129  : 	}

  00027	c3		 ret	 0
??$_Uninitialized_copy@PAHPAHV?$allocator@H@std@@@std@@YAPAHPAH00AAV?$allocator@H@0@@Z ENDP ; std::_Uninitialized_copy<int *,int *,std::allocator<int> >
_TEXT	ENDS
PUBLIC	??$_Uninitialized_copy@PAEPAEV?$allocator@E@std@@@std@@YAPAEPAE00AAV?$allocator@E@0@@Z ; std::_Uninitialized_copy<unsigned char *,unsigned char *,std::allocator<unsigned char> >
; Function compile flags: /Ogty
;	COMDAT ??$_Uninitialized_copy@PAEPAEV?$allocator@E@std@@@std@@YAPAEPAE00AAV?$allocator@E@0@@Z
_TEXT	SEGMENT
__First$ = 8						; size = 4
__Last$ = 12						; size = 4
__Dest$ = 16						; size = 4
__Al$ = 20						; size = 4
??$_Uninitialized_copy@PAEPAEV?$allocator@E@std@@@std@@YAPAEPAE00AAV?$allocator@E@0@@Z PROC NEAR ; std::_Uninitialized_copy<unsigned char *,unsigned char *,std::allocator<unsigned char> >, COMDAT

; 127  : 	return (_Uninit_copy(_First, _Last, _Dest, _Al,
; 128  : 		_Ptr_cat(_First, _Dest)));

  00000	8b 44 24 04	 mov	 eax, DWORD PTR __First$[esp-4]
  00004	56		 push	 esi
  00005	8b 74 24 0c	 mov	 esi, DWORD PTR __Last$[esp]
  00009	2b f0		 sub	 esi, eax
  0000b	56		 push	 esi
  0000c	50		 push	 eax
  0000d	8b 44 24 18	 mov	 eax, DWORD PTR __Dest$[esp+8]
  00011	50		 push	 eax
  00012	e8 00 00 00 00	 call	 _memmove
  00017	83 c4 0c	 add	 esp, 12			; 0000000cH
  0001a	03 c6		 add	 eax, esi
  0001c	5e		 pop	 esi

; 129  : 	}

  0001d	c3		 ret	 0
??$_Uninitialized_copy@PAEPAEV?$allocator@E@std@@@std@@YAPAEPAE00AAV?$allocator@E@0@@Z ENDP ; std::_Uninitialized_copy<unsigned char *,unsigned char *,std::allocator<unsigned char> >
_TEXT	ENDS
PUBLIC	??5CAr@@QAEAAV0@AAH@Z				; CAr::operator>>
; Function compile flags: /Ogty
; File c:\documents and settings\test\mes documents\source\virtuos_v17\build\program\_network\misc\include\ar.h
;	COMDAT ??5CAr@@QAEAAV0@AAH@Z
_TEXT	SEGMENT
_i$ = 8							; size = 4
??5CAr@@QAEAAV0@AAH@Z PROC NEAR				; CAr::operator>>, COMDAT
; _this$ = ecx

; 126  : 	{ return CAr::operator>>((LONG&)i); }

  00000	8b c1		 mov	 eax, ecx
  00002	8b 48 08	 mov	 ecx, DWORD PTR [eax+8]
  00005	56		 push	 esi
  00006	8b 70 0c	 mov	 esi, DWORD PTR [eax+12]
  00009	8d 51 04	 lea	 edx, DWORD PTR [ecx+4]
  0000c	3b d6		 cmp	 edx, esi
  0000e	5e		 pop	 esi
  0000f	77 0f		 ja	 SHORT $L200841
  00011	8b 09		 mov	 ecx, DWORD PTR [ecx]
  00013	8b 54 24 04	 mov	 edx, DWORD PTR _i$[esp-4]
  00017	89 0a		 mov	 DWORD PTR [edx], ecx
  00019	83 40 08 04	 add	 DWORD PTR [eax+8], 4
  0001d	c2 04 00	 ret	 4
$L200841:
  00020	8b 4c 24 04	 mov	 ecx, DWORD PTR _i$[esp-4]
  00024	c7 01 00 00 00
	00		 mov	 DWORD PTR [ecx], 0
  0002a	8b 50 0c	 mov	 edx, DWORD PTR [eax+12]
  0002d	89 50 08	 mov	 DWORD PTR [eax+8], edx
  00030	c2 04 00	 ret	 4
??5CAr@@QAEAAV0@AAH@Z ENDP				; CAr::operator>>
_TEXT	ENDS
PUBLIC	??5CAr@@QAEAAV0@AAD@Z				; CAr::operator>>
; Function compile flags: /Ogty
;	COMDAT ??5CAr@@QAEAAV0@AAD@Z
_TEXT	SEGMENT
_ch$ = 8						; size = 4
??5CAr@@QAEAAV0@AAD@Z PROC NEAR				; CAr::operator>>, COMDAT
; _this$ = ecx

; 132  : 	{ return CAr::operator>>((BYTE&)ch); }

  00000	8b c1		 mov	 eax, ecx
  00002	8b 48 08	 mov	 ecx, DWORD PTR [eax+8]
  00005	56		 push	 esi
  00006	8b 70 0c	 mov	 esi, DWORD PTR [eax+12]
  00009	8d 51 01	 lea	 edx, DWORD PTR [ecx+1]
  0000c	3b d6		 cmp	 edx, esi
  0000e	5e		 pop	 esi
  0000f	77 0e		 ja	 SHORT $L200848
  00011	8a 09		 mov	 cl, BYTE PTR [ecx]
  00013	8b 54 24 04	 mov	 edx, DWORD PTR _ch$[esp-4]
  00017	88 0a		 mov	 BYTE PTR [edx], cl
  00019	ff 40 08	 inc	 DWORD PTR [eax+8]
  0001c	c2 04 00	 ret	 4
$L200848:
  0001f	8b 4c 24 04	 mov	 ecx, DWORD PTR _ch$[esp-4]
  00023	c6 01 00	 mov	 BYTE PTR [ecx], 0
  00026	8b 50 0c	 mov	 edx, DWORD PTR [eax+12]
  00029	89 50 08	 mov	 DWORD PTR [eax+8], edx
  0002c	c2 04 00	 ret	 4
??5CAr@@QAEAAV0@AAD@Z ENDP				; CAr::operator>>
_TEXT	ENDS
PUBLIC	??0?$_String_val@DV?$allocator@D@std@@@std@@IAE@V?$allocator@D@1@@Z ; std::_String_val<char,std::allocator<char> >::_String_val<char,std::allocator<char> >
; Function compile flags: /Ogty
; File c:\program files\microsoft visual studio .net 2003\vc7\include\xstring
;	COMDAT ??0?$_String_val@DV?$allocator@D@std@@@std@@IAE@V?$allocator@D@1@@Z
_TEXT	SEGMENT
__Al$ = 8						; size = 1
??0?$_String_val@DV?$allocator@D@std@@@std@@IAE@V?$allocator@D@1@@Z PROC NEAR ; std::_String_val<char,std::allocator<char> >::_String_val<char,std::allocator<char> >, COMDAT
; _this$ = ecx

; 34   : 		{	// construct allocator from _Al

  00000	8b c1		 mov	 eax, ecx

; 35   : 		}

  00002	c2 04 00	 ret	 4
??0?$_String_val@DV?$allocator@D@std@@@std@@IAE@V?$allocator@D@1@@Z ENDP ; std::_String_val<char,std::allocator<char> >::_String_val<char,std::allocator<char> >
_TEXT	ENDS
PUBLIC	??0?$_Vector_val@KV?$allocator@K@std@@@std@@IAE@V?$allocator@K@1@@Z ; std::_Vector_val<unsigned long,std::allocator<unsigned long> >::_Vector_val<unsigned long,std::allocator<unsigned long> >
; Function compile flags: /Ogty
; File c:\program files\microsoft visual studio .net 2003\vc7\include\vector
;	COMDAT ??0?$_Vector_val@KV?$allocator@K@std@@@std@@IAE@V?$allocator@K@1@@Z
_TEXT	SEGMENT
__Al$ = 8						; size = 1
??0?$_Vector_val@KV?$allocator@K@std@@@std@@IAE@V?$allocator@K@1@@Z PROC NEAR ; std::_Vector_val<unsigned long,std::allocator<unsigned long> >::_Vector_val<unsigned long,std::allocator<unsigned long> >, COMDAT
; _this$ = ecx

; 21   : 		{	// construct allocator from _Al

  00000	8b c1		 mov	 eax, ecx

; 22   : 		}

  00002	c2 04 00	 ret	 4
??0?$_Vector_val@KV?$allocator@K@std@@@std@@IAE@V?$allocator@K@1@@Z ENDP ; std::_Vector_val<unsigned long,std::allocator<unsigned long> >::_Vector_val<unsigned long,std::allocator<unsigned long> >
_TEXT	ENDS
PUBLIC	?_Eos@?$basic_string@DU?$char_traits@D@std@@V?$allocator@D@2@@std@@IAEXI@Z ; std::basic_string<char,std::char_traits<char>,std::allocator<char> >::_Eos
; Function compile flags: /Ogty
; File c:\program files\microsoft visual studio .net 2003\vc7\include\xstring
;	COMDAT ?_Eos@?$basic_string@DU?$char_traits@D@std@@V?$allocator@D@2@@std@@IAEXI@Z
_TEXT	SEGMENT
__Newsize$ = 8						; size = 4
?_Eos@?$basic_string@DU?$char_traits@D@std@@V?$allocator@D@2@@std@@IAEXI@Z PROC NEAR ; std::basic_string<char,std::char_traits<char>,std::allocator<char> >::_Eos, COMDAT
; _this$ = ecx

; 1475 : 		_Traits::assign(_Myptr()[_Mysize = _Newsize], _Elem());

  00000	83 79 18 10	 cmp	 DWORD PTR [ecx+24], 16	; 00000010H
  00004	8b 44 24 04	 mov	 eax, DWORD PTR __Newsize$[esp-4]
  00008	89 41 14	 mov	 DWORD PTR [ecx+20], eax
  0000b	72 0a		 jb	 SHORT $L200868
  0000d	8b 49 04	 mov	 ecx, DWORD PTR [ecx+4]
  00010	c6 04 01 00	 mov	 BYTE PTR [ecx+eax], 0

; 1476 : 		}

  00014	c2 04 00	 ret	 4

; 1475 : 		_Traits::assign(_Myptr()[_Mysize = _Newsize], _Elem());

$L200868:
  00017	c6 44 01 04 00	 mov	 BYTE PTR [ecx+eax+4], 0

; 1476 : 		}

  0001c	c2 04 00	 ret	 4
?_Eos@?$basic_string@DU?$char_traits@D@std@@V?$allocator@D@2@@std@@IAEXI@Z ENDP ; std::basic_string<char,std::char_traits<char>,std::allocator<char> >::_Eos
_TEXT	ENDS
PUBLIC	?max_size@?$vector@KV?$allocator@K@std@@@std@@QBEIXZ ; std::vector<unsigned long,std::allocator<unsigned long> >::max_size
; Function compile flags: /Ogty
; File c:\program files\microsoft visual studio .net 2003\vc7\include\vector
;	COMDAT ?max_size@?$vector@KV?$allocator@K@std@@@std@@QBEIXZ
_TEXT	SEGMENT
?max_size@?$vector@KV?$allocator@K@std@@@std@@QBEIXZ PROC NEAR ; std::vector<unsigned long,std::allocator<unsigned long> >::max_size, COMDAT
; _this$ = ecx

; 521  : 		return (this->_Alval.max_size());

  00000	b8 ff ff ff 3f	 mov	 eax, 1073741823		; 3fffffffH

; 522  : 		}

  00005	c3		 ret	 0
?max_size@?$vector@KV?$allocator@K@std@@@std@@QBEIXZ ENDP ; std::vector<unsigned long,std::allocator<unsigned long> >::max_size
_TEXT	ENDS
PUBLIC	?_Destroy@?$vector@KV?$allocator@K@std@@@std@@IAEXPAK0@Z ; std::vector<unsigned long,std::allocator<unsigned long> >::_Destroy
; Function compile flags: /Ogty
;	COMDAT ?_Destroy@?$vector@KV?$allocator@K@std@@@std@@IAEXPAK0@Z
_TEXT	SEGMENT
__First$ = 8						; size = 4
__Last$ = 12						; size = 4
?_Destroy@?$vector@KV?$allocator@K@std@@@std@@IAEXPAK0@Z PROC NEAR ; std::vector<unsigned long,std::allocator<unsigned long> >::_Destroy, COMDAT
; _this$ = ecx

; 787  : 		_Destroy_range(_First, _Last, this->_Alval);
; 788  : 		}

  00000	c2 08 00	 ret	 8
?_Destroy@?$vector@KV?$allocator@K@std@@@std@@IAEXPAK0@Z ENDP ; std::vector<unsigned long,std::allocator<unsigned long> >::_Destroy
_TEXT	ENDS
PUBLIC	?allocate@?$allocator@K@std@@QAEPAKI@Z		; std::allocator<unsigned long>::allocate
; Function compile flags: /Ogty
; File c:\program files\microsoft visual studio .net 2003\vc7\include\xmemory
;	COMDAT ?allocate@?$allocator@K@std@@QAEPAKI@Z
_TEXT	SEGMENT
__Count$ = 8						; size = 4
?allocate@?$allocator@K@std@@QAEPAKI@Z PROC NEAR	; std::allocator<unsigned long>::allocate, COMDAT
; _this$ = ecx

; 137  : 		return (_Allocate(_Count, (pointer)0));

  00000	8b 44 24 04	 mov	 eax, DWORD PTR __Count$[esp-4]
  00004	8d 0c 85 00 00
	00 00		 lea	 ecx, DWORD PTR [eax*4]
  0000b	51		 push	 ecx
  0000c	e8 00 00 00 00	 call	 ??2@YAPAXI@Z		; operator new
  00011	83 c4 04	 add	 esp, 4

; 138  : 		}

  00014	c2 04 00	 ret	 4
?allocate@?$allocator@K@std@@QAEPAKI@Z ENDP		; std::allocator<unsigned long>::allocate
_TEXT	ENDS
PUBLIC	?max_size@?$basic_string@DU?$char_traits@D@std@@V?$allocator@D@2@@std@@QBEIXZ ; std::basic_string<char,std::char_traits<char>,std::allocator<char> >::max_size
; Function compile flags: /Ogty
; File c:\program files\microsoft visual studio .net 2003\vc7\include\xstring
;	COMDAT ?max_size@?$basic_string@DU?$char_traits@D@std@@V?$allocator@D@2@@std@@QBEIXZ
_TEXT	SEGMENT
?max_size@?$basic_string@DU?$char_traits@D@std@@V?$allocator@D@2@@std@@QBEIXZ PROC NEAR ; std::basic_string<char,std::char_traits<char>,std::allocator<char> >::max_size, COMDAT
; _this$ = ecx

; 1114 : 		size_type _Num = _Mybase::_Alval.max_size();
; 1115 : 		return (_Num <= 1 ? 1 : _Num - 1);

  00000	b8 fe ff ff ff	 mov	 eax, -2			; fffffffeH

; 1116 : 		}

  00005	c3		 ret	 0
?max_size@?$basic_string@DU?$char_traits@D@std@@V?$allocator@D@2@@std@@QBEIXZ ENDP ; std::basic_string<char,std::char_traits<char>,std::allocator<char> >::max_size
_TEXT	ENDS
PUBLIC	?allocate@?$allocator@D@std@@QAEPADI@Z		; std::allocator<char>::allocate
; Function compile flags: /Ogty
; File c:\program files\microsoft visual studio .net 2003\vc7\include\xmemory
;	COMDAT ?allocate@?$allocator@D@std@@QAEPADI@Z
_TEXT	SEGMENT
__Count$ = 8						; size = 4
?allocate@?$allocator@D@std@@QAEPADI@Z PROC NEAR	; std::allocator<char>::allocate, COMDAT
; _this$ = ecx

; 137  : 		return (_Allocate(_Count, (pointer)0));

  00000	8b 44 24 04	 mov	 eax, DWORD PTR __Count$[esp-4]
  00004	50		 push	 eax
  00005	e8 00 00 00 00	 call	 ??2@YAPAXI@Z		; operator new
  0000a	83 c4 04	 add	 esp, 4

; 138  : 		}

  0000d	c2 04 00	 ret	 4
?allocate@?$allocator@D@std@@QAEPADI@Z ENDP		; std::allocator<char>::allocate
_TEXT	ENDS
PUBLIC	?GetInstance@CSecretRoomDBMng@@SAPAV1@XZ	; CSecretRoomDBMng::GetInstance
EXTRN	_atexit:NEAR
;	COMDAT ?sSecretRoomDBMng@?1??GetInstance@CSecretRoomDBMng@@SAPAV2@XZ@4V2@A
; File c:\documents and settings\test\mes documents\source\virtuos_v17\build\program\databaseserver\secretroomdbmng.cpp
_BSS	SEGMENT
?sSecretRoomDBMng@?1??GetInstance@CSecretRoomDBMng@@SAPAV2@XZ@4V2@A DB 018H DUP (?) ; `CSecretRoomDBMng::GetInstance'::`2'::sSecretRoomDBMng
_BSS	ENDS
;	COMDAT ?$S1@?1??GetInstance@CSecretRoomDBMng@@SAPAV2@XZ@4IA
_BSS	SEGMENT
?$S1@?1??GetInstance@CSecretRoomDBMng@@SAPAV2@XZ@4IA DD 01H DUP (?) ; `CSecretRoomDBMng::GetInstance'::`2'::$S1
_BSS	ENDS
;	COMDAT xdata$x
xdata$x	SEGMENT
$T200915 DD	0ffffffffH
	DD	FLAT:$L200910
$T200912 DD	019930520H
	DD	01H
	DD	FLAT:$T200915
	DD	2 DUP(00H)
	DD	2 DUP(00H)
; Function compile flags: /Ogty
xdata$x	ENDS
;	COMDAT ?GetInstance@CSecretRoomDBMng@@SAPAV1@XZ
_TEXT	SEGMENT
__$EHRec$ = -12						; size = 12
?GetInstance@CSecretRoomDBMng@@SAPAV1@XZ PROC NEAR	; CSecretRoomDBMng::GetInstance, COMDAT

; 22   : {

  00000	64 a1 00 00 00
	00		 mov	 eax, DWORD PTR fs:__except_list

; 23   : 	static CSecretRoomDBMng sSecretRoomDBMng;

  00006	8a 0d 00 00 00
	00		 mov	 cl, BYTE PTR ?$S1@?1??GetInstance@CSecretRoomDBMng@@SAPAV2@XZ@4IA
  0000c	6a ff		 push	 -1
  0000e	68 00 00 00 00	 push	 __ehhandler$?GetInstance@CSecretRoomDBMng@@SAPAV1@XZ
  00013	50		 push	 eax
  00014	b8 01 00 00 00	 mov	 eax, 1
  00019	84 c8		 test	 cl, al
  0001b	64 89 25 00 00
	00 00		 mov	 DWORD PTR fs:__except_list, esp
  00022	75 25		 jne	 SHORT $L200913
  00024	09 05 00 00 00
	00		 or	 DWORD PTR ?$S1@?1??GetInstance@CSecretRoomDBMng@@SAPAV2@XZ@4IA, eax
  0002a	b9 00 00 00 00	 mov	 ecx, OFFSET FLAT:?sSecretRoomDBMng@?1??GetInstance@CSecretRoomDBMng@@SAPAV2@XZ@4V2@A
  0002f	c7 44 24 08 00
	00 00 00	 mov	 DWORD PTR __$EHRec$[esp+20], 0
  00037	e8 00 00 00 00	 call	 ??0CSecretRoomDBMng@@QAE@XZ ; CSecretRoomDBMng::CSecretRoomDBMng
  0003c	68 00 00 00 00	 push	 OFFSET FLAT:_$E2
  00041	e8 00 00 00 00	 call	 _atexit
  00046	83 c4 04	 add	 esp, 4
$L200913:

; 24   : 	return &sSecretRoomDBMng;
; 25   : }

  00049	8b 0c 24	 mov	 ecx, DWORD PTR __$EHRec$[esp+12]
  0004c	b8 00 00 00 00	 mov	 eax, OFFSET FLAT:?sSecretRoomDBMng@?1??GetInstance@CSecretRoomDBMng@@SAPAV2@XZ@4V2@A
  00051	64 89 0d 00 00
	00 00		 mov	 DWORD PTR fs:__except_list, ecx
  00058	83 c4 0c	 add	 esp, 12			; 0000000cH
  0005b	c3		 ret	 0
_TEXT	ENDS
;	COMDAT text$x
text$x	SEGMENT
$L200910:
  00000	a1 00 00 00 00	 mov	 eax, DWORD PTR ?$S1@?1??GetInstance@CSecretRoomDBMng@@SAPAV2@XZ@4IA
  00005	83 e0 fe	 and	 eax, -2			; fffffffeH
  00008	a3 00 00 00 00	 mov	 DWORD PTR ?$S1@?1??GetInstance@CSecretRoomDBMng@@SAPAV2@XZ@4IA, eax
  0000d	c3		 ret	 0
__ehhandler$?GetInstance@CSecretRoomDBMng@@SAPAV1@XZ:
  0000e	b8 00 00 00 00	 mov	 eax, OFFSET FLAT:$T200912
  00013	e9 00 00 00 00	 jmp	 ___CxxFrameHandler
text$x	ENDS
?GetInstance@CSecretRoomDBMng@@SAPAV1@XZ ENDP		; CSecretRoomDBMng::GetInstance
PUBLIC	?begin@?$vector@KV?$allocator@K@std@@@std@@QAE?AViterator@12@XZ ; std::vector<unsigned long,std::allocator<unsigned long> >::begin
; Function compile flags: /Ogty
; File c:\program files\microsoft visual studio .net 2003\vc7\include\vector
;	COMDAT ?begin@?$vector@KV?$allocator@K@std@@@std@@QAE?AViterator@12@XZ
_TEXT	SEGMENT
___$ReturnUdt$ = 8					; size = 4
?begin@?$vector@KV?$allocator@K@std@@@std@@QAE?AViterator@12@XZ PROC NEAR ; std::vector<unsigned long,std::allocator<unsigned long> >::begin, COMDAT
; _this$ = ecx

; 463  : 		return (iterator(_Myfirst));

  00000	8b 49 04	 mov	 ecx, DWORD PTR [ecx+4]
  00003	8b 44 24 04	 mov	 eax, DWORD PTR ___$ReturnUdt$[esp-4]
  00007	89 08		 mov	 DWORD PTR [eax], ecx

; 464  : 		}

  00009	c2 04 00	 ret	 4
?begin@?$vector@KV?$allocator@K@std@@@std@@QAE?AViterator@12@XZ ENDP ; std::vector<unsigned long,std::allocator<unsigned long> >::begin
_TEXT	ENDS
PUBLIC	?end@?$vector@KV?$allocator@K@std@@@std@@QAE?AViterator@12@XZ ; std::vector<unsigned long,std::allocator<unsigned long> >::end
; Function compile flags: /Ogty
;	COMDAT ?end@?$vector@KV?$allocator@K@std@@@std@@QAE?AViterator@12@XZ
_TEXT	SEGMENT
___$ReturnUdt$ = 8					; size = 4
?end@?$vector@KV?$allocator@K@std@@@std@@QAE?AViterator@12@XZ PROC NEAR ; std::vector<unsigned long,std::allocator<unsigned long> >::end, COMDAT
; _this$ = ecx

; 473  : 		return (iterator(_Mylast));

  00000	8b 49 08	 mov	 ecx, DWORD PTR [ecx+8]
  00003	8b 44 24 04	 mov	 eax, DWORD PTR ___$ReturnUdt$[esp-4]
  00007	89 08		 mov	 DWORD PTR [eax], ecx

; 474  : 		}

  00009	c2 04 00	 ret	 4
?end@?$vector@KV?$allocator@K@std@@@std@@QAE?AViterator@12@XZ ENDP ; std::vector<unsigned long,std::allocator<unsigned long> >::end
_TEXT	ENDS
PUBLIC	?begin@?$vector@HV?$allocator@H@std@@@std@@QAE?AViterator@12@XZ ; std::vector<int,std::allocator<int> >::begin
; Function compile flags: /Ogty
;	COMDAT ?begin@?$vector@HV?$allocator@H@std@@@std@@QAE?AViterator@12@XZ
_TEXT	SEGMENT
___$ReturnUdt$ = 8					; size = 4
?begin@?$vector@HV?$allocator@H@std@@@std@@QAE?AViterator@12@XZ PROC NEAR ; std::vector<int,std::allocator<int> >::begin, COMDAT
; _this$ = ecx

; 463  : 		return (iterator(_Myfirst));

  00000	8b 49 04	 mov	 ecx, DWORD PTR [ecx+4]
  00003	8b 44 24 04	 mov	 eax, DWORD PTR ___$ReturnUdt$[esp-4]
  00007	89 08		 mov	 DWORD PTR [eax], ecx

; 464  : 		}

  00009	c2 04 00	 ret	 4
?begin@?$vector@HV?$allocator@H@std@@@std@@QAE?AViterator@12@XZ ENDP ; std::vector<int,std::allocator<int> >::begin
_TEXT	ENDS
PUBLIC	?end@?$vector@HV?$allocator@H@std@@@std@@QAE?AViterator@12@XZ ; std::vector<int,std::allocator<int> >::end
; Function compile flags: /Ogty
;	COMDAT ?end@?$vector@HV?$allocator@H@std@@@std@@QAE?AViterator@12@XZ
_TEXT	SEGMENT
___$ReturnUdt$ = 8					; size = 4
?end@?$vector@HV?$allocator@H@std@@@std@@QAE?AViterator@12@XZ PROC NEAR ; std::vector<int,std::allocator<int> >::end, COMDAT
; _this$ = ecx

; 473  : 		return (iterator(_Mylast));

  00000	8b 49 08	 mov	 ecx, DWORD PTR [ecx+8]
  00003	8b 44 24 04	 mov	 eax, DWORD PTR ___$ReturnUdt$[esp-4]
  00007	89 08		 mov	 DWORD PTR [eax], ecx

; 474  : 		}

  00009	c2 04 00	 ret	 4
?end@?$vector@HV?$allocator@H@std@@@std@@QAE?AViterator@12@XZ ENDP ; std::vector<int,std::allocator<int> >::end
_TEXT	ENDS
PUBLIC	?begin@?$vector@EV?$allocator@E@std@@@std@@QAE?AViterator@12@XZ ; std::vector<unsigned char,std::allocator<unsigned char> >::begin
; Function compile flags: /Ogty
;	COMDAT ?begin@?$vector@EV?$allocator@E@std@@@std@@QAE?AViterator@12@XZ
_TEXT	SEGMENT
___$ReturnUdt$ = 8					; size = 4
?begin@?$vector@EV?$allocator@E@std@@@std@@QAE?AViterator@12@XZ PROC NEAR ; std::vector<unsigned char,std::allocator<unsigned char> >::begin, COMDAT
; _this$ = ecx

; 463  : 		return (iterator(_Myfirst));

  00000	8b 49 04	 mov	 ecx, DWORD PTR [ecx+4]
  00003	8b 44 24 04	 mov	 eax, DWORD PTR ___$ReturnUdt$[esp-4]
  00007	89 08		 mov	 DWORD PTR [eax], ecx

; 464  : 		}

  00009	c2 04 00	 ret	 4
?begin@?$vector@EV?$allocator@E@std@@@std@@QAE?AViterator@12@XZ ENDP ; std::vector<unsigned char,std::allocator<unsigned char> >::begin
_TEXT	ENDS
PUBLIC	?end@?$vector@EV?$allocator@E@std@@@std@@QAE?AViterator@12@XZ ; std::vector<unsigned char,std::allocator<unsigned char> >::end
; Function compile flags: /Ogty
;	COMDAT ?end@?$vector@EV?$allocator@E@std@@@std@@QAE?AViterator@12@XZ
_TEXT	SEGMENT
___$ReturnUdt$ = 8					; size = 4
?end@?$vector@EV?$allocator@E@std@@@std@@QAE?AViterator@12@XZ PROC NEAR ; std::vector<unsigned char,std::allocator<unsigned char> >::end, COMDAT
; _this$ = ecx

; 473  : 		return (iterator(_Mylast));

  00000	8b 49 08	 mov	 ecx, DWORD PTR [ecx+8]
  00003	8b 44 24 04	 mov	 eax, DWORD PTR ___$ReturnUdt$[esp-4]
  00007	89 08		 mov	 DWORD PTR [eax], ecx

; 474  : 		}

  00009	c2 04 00	 ret	 4
?end@?$vector@EV?$allocator@E@std@@@std@@QAE?AViterator@12@XZ ENDP ; std::vector<unsigned char,std::allocator<unsigned char> >::end
_TEXT	ENDS
PUBLIC	?_Destroy@?$vector@HV?$allocator@H@std@@@std@@IAEXPAH0@Z ; std::vector<int,std::allocator<int> >::_Destroy
; Function compile flags: /Ogty
;	COMDAT ?_Destroy@?$vector@HV?$allocator@H@std@@@std@@IAEXPAH0@Z
_TEXT	SEGMENT
__First$ = 8						; size = 4
__Last$ = 12						; size = 4
?_Destroy@?$vector@HV?$allocator@H@std@@@std@@IAEXPAH0@Z PROC NEAR ; std::vector<int,std::allocator<int> >::_Destroy, COMDAT
; _this$ = ecx

; 787  : 		_Destroy_range(_First, _Last, this->_Alval);
; 788  : 		}

  00000	c2 08 00	 ret	 8
?_Destroy@?$vector@HV?$allocator@H@std@@@std@@IAEXPAH0@Z ENDP ; std::vector<int,std::allocator<int> >::_Destroy
_TEXT	ENDS
PUBLIC	?_Destroy@?$vector@EV?$allocator@E@std@@@std@@IAEXPAE0@Z ; std::vector<unsigned char,std::allocator<unsigned char> >::_Destroy
; Function compile flags: /Ogty
;	COMDAT ?_Destroy@?$vector@EV?$allocator@E@std@@@std@@IAEXPAE0@Z
_TEXT	SEGMENT
__First$ = 8						; size = 4
__Last$ = 12						; size = 4
?_Destroy@?$vector@EV?$allocator@E@std@@@std@@IAEXPAE0@Z PROC NEAR ; std::vector<unsigned char,std::allocator<unsigned char> >::_Destroy, COMDAT
; _this$ = ecx

; 787  : 		_Destroy_range(_First, _Last, this->_Alval);
; 788  : 		}

  00000	c2 08 00	 ret	 8
?_Destroy@?$vector@EV?$allocator@E@std@@@std@@IAEXPAE0@Z ENDP ; std::vector<unsigned char,std::allocator<unsigned char> >::_Destroy
_TEXT	ENDS
PUBLIC	??$_Uninitialized_fill_n@PAKIKV?$allocator@K@std@@@std@@YAXPAKIABKAAV?$allocator@K@0@@Z ; std::_Uninitialized_fill_n<unsigned long *,unsigned int,unsigned long,std::allocator<unsigned long> >
; Function compile flags: /Ogty
; File c:\program files\microsoft visual studio .net 2003\vc7\include\memory
;	COMDAT ??$_Uninitialized_fill_n@PAKIKV?$allocator@K@std@@@std@@YAXPAKIABKAAV?$allocator@K@0@@Z
_TEXT	SEGMENT
__First$ = 8						; size = 4
__Count$ = 12						; size = 4
__Val$ = 16						; size = 4
__Al$ = 20						; size = 4
??$_Uninitialized_fill_n@PAKIKV?$allocator@K@std@@@std@@YAXPAKIABKAAV?$allocator@K@0@@Z PROC NEAR ; std::_Uninitialized_fill_n<unsigned long *,unsigned int,unsigned long,std::allocator<unsigned long> >, COMDAT

; 256  : 	_Uninit_fill_n(_First, _Count, _Val, _Al,
; 257  : 		_Ptr_cat(_First, _First));

  00000	8b 4c 24 08	 mov	 ecx, DWORD PTR __Count$[esp-4]
  00004	85 c9		 test	 ecx, ecx
  00006	8b 44 24 04	 mov	 eax, DWORD PTR __First$[esp-4]
  0000a	76 10		 jbe	 SHORT $L201009
  0000c	8b 54 24 0c	 mov	 edx, DWORD PTR __Val$[esp-4]
  00010	56		 push	 esi
$L201007:
  00011	8b 32		 mov	 esi, DWORD PTR [edx]
  00013	89 30		 mov	 DWORD PTR [eax], esi
  00015	83 c0 04	 add	 eax, 4
  00018	49		 dec	 ecx
  00019	75 f6		 jne	 SHORT $L201007
  0001b	5e		 pop	 esi
$L201009:

; 258  : 	}

  0001c	c3		 ret	 0
??$_Uninitialized_fill_n@PAKIKV?$allocator@K@std@@@std@@YAXPAKIABKAAV?$allocator@K@0@@Z ENDP ; std::_Uninitialized_fill_n<unsigned long *,unsigned int,unsigned long,std::allocator<unsigned long> >
_TEXT	ENDS
PUBLIC	??$_Uninitialized_fill_n@PAHIHV?$allocator@H@std@@@std@@YAXPAHIABHAAV?$allocator@H@0@@Z ; std::_Uninitialized_fill_n<int *,unsigned int,int,std::allocator<int> >
; Function compile flags: /Ogty
;	COMDAT ??$_Uninitialized_fill_n@PAHIHV?$allocator@H@std@@@std@@YAXPAHIABHAAV?$allocator@H@0@@Z
_TEXT	SEGMENT
__First$ = 8						; size = 4
__Count$ = 12						; size = 4
__Val$ = 16						; size = 4
__Al$ = 20						; size = 4
??$_Uninitialized_fill_n@PAHIHV?$allocator@H@std@@@std@@YAXPAHIABHAAV?$allocator@H@0@@Z PROC NEAR ; std::_Uninitialized_fill_n<int *,unsigned int,int,std::allocator<int> >, COMDAT

; 256  : 	_Uninit_fill_n(_First, _Count, _Val, _Al,
; 257  : 		_Ptr_cat(_First, _First));

  00000	8b 4c 24 08	 mov	 ecx, DWORD PTR __Count$[esp-4]
  00004	85 c9		 test	 ecx, ecx
  00006	8b 44 24 04	 mov	 eax, DWORD PTR __First$[esp-4]
  0000a	76 10		 jbe	 SHORT $L201034
  0000c	8b 54 24 0c	 mov	 edx, DWORD PTR __Val$[esp-4]
  00010	56		 push	 esi
$L201032:
  00011	8b 32		 mov	 esi, DWORD PTR [edx]
  00013	89 30		 mov	 DWORD PTR [eax], esi
  00015	83 c0 04	 add	 eax, 4
  00018	49		 dec	 ecx
  00019	75 f6		 jne	 SHORT $L201032
  0001b	5e		 pop	 esi
$L201034:

; 258  : 	}

  0001c	c3		 ret	 0
??$_Uninitialized_fill_n@PAHIHV?$allocator@H@std@@@std@@YAXPAHIABHAAV?$allocator@H@0@@Z ENDP ; std::_Uninitialized_fill_n<int *,unsigned int,int,std::allocator<int> >
_TEXT	ENDS
PUBLIC	??$_Uninitialized_fill_n@PAEIEV?$allocator@E@std@@@std@@YAXPAEIABEAAV?$allocator@E@0@@Z ; std::_Uninitialized_fill_n<unsigned char *,unsigned int,unsigned char,std::allocator<unsigned char> >
; Function compile flags: /Ogty
;	COMDAT ??$_Uninitialized_fill_n@PAEIEV?$allocator@E@std@@@std@@YAXPAEIABEAAV?$allocator@E@0@@Z
_TEXT	SEGMENT
__First$ = 8						; size = 4
__Count$ = 12						; size = 4
__Val$ = 16						; size = 4
__Al$ = 20						; size = 4
??$_Uninitialized_fill_n@PAEIEV?$allocator@E@std@@@std@@YAXPAEIABEAAV?$allocator@E@0@@Z PROC NEAR ; std::_Uninitialized_fill_n<unsigned char *,unsigned int,unsigned char,std::allocator<unsigned char> >, COMDAT

; 256  : 	_Uninit_fill_n(_First, _Count, _Val, _Al,
; 257  : 		_Ptr_cat(_First, _First));

  00000	8b 4c 24 08	 mov	 ecx, DWORD PTR __Count$[esp-4]
  00004	85 c9		 test	 ecx, ecx
  00006	8b 44 24 04	 mov	 eax, DWORD PTR __First$[esp-4]
  0000a	76 0e		 jbe	 SHORT $L201059
  0000c	56		 push	 esi
  0000d	8b 74 24 10	 mov	 esi, DWORD PTR __Val$[esp]
$L201057:
  00011	8a 16		 mov	 dl, BYTE PTR [esi]
  00013	88 10		 mov	 BYTE PTR [eax], dl
  00015	40		 inc	 eax
  00016	49		 dec	 ecx
  00017	75 f8		 jne	 SHORT $L201057
  00019	5e		 pop	 esi
$L201059:

; 258  : 	}

  0001a	c3		 ret	 0
??$_Uninitialized_fill_n@PAEIEV?$allocator@E@std@@@std@@YAXPAEIABEAAV?$allocator@E@0@@Z ENDP ; std::_Uninitialized_fill_n<unsigned char *,unsigned int,unsigned char,std::allocator<unsigned char> >
_TEXT	ENDS
PUBLIC	??$_Ucopy@PAK@?$vector@KV?$allocator@K@std@@@std@@IAEPAKPAK00@Z ; std::vector<unsigned long,std::allocator<unsigned long> >::_Ucopy<unsigned long *>
; Function compile flags: /Ogty
; File c:\program files\microsoft visual studio .net 2003\vc7\include\vector
;	COMDAT ??$_Ucopy@PAK@?$vector@KV?$allocator@K@std@@@std@@IAEPAKPAK00@Z
_TEXT	SEGMENT
__First$ = 8						; size = 4
__Last$ = 12						; size = 4
__Ptr$ = 16						; size = 4
??$_Ucopy@PAK@?$vector@KV?$allocator@K@std@@@std@@IAEPAKPAK00@Z PROC NEAR ; std::vector<unsigned long,std::allocator<unsigned long> >::_Ucopy<unsigned long *>, COMDAT
; _this$ = ecx

; 802  : 		{	// copy initializing [_First, _Last), using allocator
; 803  : 		return (_Uninitialized_copy(_First, _Last,
; 804  : 			_Ptr, this->_Alval));

  00000	8b 4c 24 04	 mov	 ecx, DWORD PTR __First$[esp-4]
  00004	8b 44 24 08	 mov	 eax, DWORD PTR __Last$[esp-4]
  00008	2b c1		 sub	 eax, ecx
  0000a	56		 push	 esi
  0000b	c1 f8 02	 sar	 eax, 2
  0000e	8d 34 85 00 00
	00 00		 lea	 esi, DWORD PTR [eax*4]
  00015	8b 44 24 10	 mov	 eax, DWORD PTR __Ptr$[esp]
  00019	56		 push	 esi
  0001a	51		 push	 ecx
  0001b	50		 push	 eax
  0001c	e8 00 00 00 00	 call	 _memmove
  00021	83 c4 0c	 add	 esp, 12			; 0000000cH
  00024	03 c6		 add	 eax, esi
  00026	5e		 pop	 esi

; 805  : 		}

  00027	c2 0c 00	 ret	 12			; 0000000cH
??$_Ucopy@PAK@?$vector@KV?$allocator@K@std@@@std@@IAEPAKPAK00@Z ENDP ; std::vector<unsigned long,std::allocator<unsigned long> >::_Ucopy<unsigned long *>
_TEXT	ENDS
PUBLIC	??$_Ucopy@PAH@?$vector@HV?$allocator@H@std@@@std@@IAEPAHPAH00@Z ; std::vector<int,std::allocator<int> >::_Ucopy<int *>
; Function compile flags: /Ogty
;	COMDAT ??$_Ucopy@PAH@?$vector@HV?$allocator@H@std@@@std@@IAEPAHPAH00@Z
_TEXT	SEGMENT
__First$ = 8						; size = 4
__Last$ = 12						; size = 4
__Ptr$ = 16						; size = 4
??$_Ucopy@PAH@?$vector@HV?$allocator@H@std@@@std@@IAEPAHPAH00@Z PROC NEAR ; std::vector<int,std::allocator<int> >::_Ucopy<int *>, COMDAT
; _this$ = ecx

; 802  : 		{	// copy initializing [_First, _Last), using allocator
; 803  : 		return (_Uninitialized_copy(_First, _Last,
; 804  : 			_Ptr, this->_Alval));

  00000	8b 4c 24 04	 mov	 ecx, DWORD PTR __First$[esp-4]
  00004	8b 44 24 08	 mov	 eax, DWORD PTR __Last$[esp-4]
  00008	2b c1		 sub	 eax, ecx
  0000a	56		 push	 esi
  0000b	c1 f8 02	 sar	 eax, 2
  0000e	8d 34 85 00 00
	00 00		 lea	 esi, DWORD PTR [eax*4]
  00015	8b 44 24 10	 mov	 eax, DWORD PTR __Ptr$[esp]
  00019	56		 push	 esi
  0001a	51		 push	 ecx
  0001b	50		 push	 eax
  0001c	e8 00 00 00 00	 call	 _memmove
  00021	83 c4 0c	 add	 esp, 12			; 0000000cH
  00024	03 c6		 add	 eax, esi
  00026	5e		 pop	 esi

; 805  : 		}

  00027	c2 0c 00	 ret	 12			; 0000000cH
??$_Ucopy@PAH@?$vector@HV?$allocator@H@std@@@std@@IAEPAHPAH00@Z ENDP ; std::vector<int,std::allocator<int> >::_Ucopy<int *>
_TEXT	ENDS
PUBLIC	??$_Ucopy@PAE@?$vector@EV?$allocator@E@std@@@std@@IAEPAEPAE00@Z ; std::vector<unsigned char,std::allocator<unsigned char> >::_Ucopy<unsigned char *>
; Function compile flags: /Ogty
;	COMDAT ??$_Ucopy@PAE@?$vector@EV?$allocator@E@std@@@std@@IAEPAEPAE00@Z
_TEXT	SEGMENT
__First$ = 8						; size = 4
__Last$ = 12						; size = 4
__Ptr$ = 16						; size = 4
??$_Ucopy@PAE@?$vector@EV?$allocator@E@std@@@std@@IAEPAEPAE00@Z PROC NEAR ; std::vector<unsigned char,std::allocator<unsigned char> >::_Ucopy<unsigned char *>, COMDAT
; _this$ = ecx

; 802  : 		{	// copy initializing [_First, _Last), using allocator
; 803  : 		return (_Uninitialized_copy(_First, _Last,
; 804  : 			_Ptr, this->_Alval));

  00000	8b 44 24 04	 mov	 eax, DWORD PTR __First$[esp-4]
  00004	56		 push	 esi
  00005	8b 74 24 0c	 mov	 esi, DWORD PTR __Last$[esp]
  00009	2b f0		 sub	 esi, eax
  0000b	56		 push	 esi
  0000c	50		 push	 eax
  0000d	8b 44 24 18	 mov	 eax, DWORD PTR __Ptr$[esp+8]
  00011	50		 push	 eax
  00012	e8 00 00 00 00	 call	 _memmove
  00017	83 c4 0c	 add	 esp, 12			; 0000000cH
  0001a	03 c6		 add	 eax, esi
  0001c	5e		 pop	 esi

; 805  : 		}

  0001d	c2 0c 00	 ret	 12			; 0000000cH
??$_Ucopy@PAE@?$vector@EV?$allocator@E@std@@@std@@IAEPAEPAE00@Z ENDP ; std::vector<unsigned char,std::allocator<unsigned char> >::_Ucopy<unsigned char *>
_TEXT	ENDS
PUBLIC	?_Tidy@?$basic_string@DU?$char_traits@D@std@@V?$allocator@D@2@@std@@IAEX_NI@Z ; std::basic_string<char,std::char_traits<char>,std::allocator<char> >::_Tidy
; Function compile flags: /Ogty
; File c:\program files\microsoft visual studio .net 2003\vc7\include\xstring
;	COMDAT ?_Tidy@?$basic_string@DU?$char_traits@D@std@@V?$allocator@D@2@@std@@IAEX_NI@Z
_TEXT	SEGMENT
__Built$ = 8						; size = 1
__Newsize$ = 12						; size = 4
?_Tidy@?$basic_string@DU?$char_traits@D@std@@V?$allocator@D@2@@std@@IAEX_NI@Z PROC NEAR ; std::basic_string<char,std::char_traits<char>,std::allocator<char> >::_Tidy, COMDAT
; _this$ = ecx

; 1510 : 		if (!_Built)

  00000	8a 44 24 04	 mov	 al, BYTE PTR __Built$[esp-4]
  00004	84 c0		 test	 al, al
  00006	53		 push	 ebx
  00007	55		 push	 ebp
  00008	8b 6c 24 10	 mov	 ebp, DWORD PTR __Newsize$[esp+4]
  0000c	8b d9		 mov	 ebx, ecx
  0000e	74 2f		 je	 SHORT $L201133

; 1511 : 			;
; 1512 : 		else if (_BUF_SIZE <= _Myres)

  00010	83 7b 18 10	 cmp	 DWORD PTR [ebx+24], 16	; 00000010H
  00014	72 29		 jb	 SHORT $L201133

; 1513 : 			{	// copy any leftovers to small buffer and deallocate
; 1514 : 			_Elem *_Ptr = _Bx._Ptr;
; 1515 : 			if (0 < _Newsize)

  00016	85 ed		 test	 ebp, ebp
  00018	8b 43 04	 mov	 eax, DWORD PTR [ebx+4]
  0001b	57		 push	 edi
  0001c	8d 7b 04	 lea	 edi, DWORD PTR [ebx+4]
  0001f	76 14		 jbe	 SHORT $L201130
  00021	56		 push	 esi

; 1516 : 				_Traits::copy(_Bx._Buf, _Ptr, _Newsize);

  00022	8b cd		 mov	 ecx, ebp
  00024	8b d1		 mov	 edx, ecx
  00026	c1 e9 02	 shr	 ecx, 2
  00029	8b f0		 mov	 esi, eax
  0002b	f3 a5		 rep movsd
  0002d	8b ca		 mov	 ecx, edx
  0002f	83 e1 03	 and	 ecx, 3
  00032	f3 a4		 rep movsb
  00034	5e		 pop	 esi
$L201130:

; 1517 : 			_Mybase::_Alval.deallocate(_Ptr, _Myres + 1);

  00035	50		 push	 eax
  00036	e8 00 00 00 00	 call	 ??3@YAXPAX@Z		; operator delete
  0003b	83 c4 04	 add	 esp, 4
  0003e	5f		 pop	 edi
$L201133:

; 1518 : 			}
; 1519 : 		_Myres = _BUF_SIZE - 1;
; 1520 : 		_Eos(_Newsize);

  0003f	89 6b 14	 mov	 DWORD PTR [ebx+20], ebp
  00042	c7 43 18 0f 00
	00 00		 mov	 DWORD PTR [ebx+24], 15	; 0000000fH
  00049	c6 44 2b 04 00	 mov	 BYTE PTR [ebx+ebp+4], 0
  0004e	5d		 pop	 ebp
  0004f	5b		 pop	 ebx

; 1521 : 		}

  00050	c2 08 00	 ret	 8
?_Tidy@?$basic_string@DU?$char_traits@D@std@@V?$allocator@D@2@@std@@IAEX_NI@Z ENDP ; std::basic_string<char,std::char_traits<char>,std::allocator<char> >::_Tidy
_TEXT	ENDS
PUBLIC	?_Tidy@?$vector@KV?$allocator@K@std@@@std@@IAEXXZ ; std::vector<unsigned long,std::allocator<unsigned long> >::_Tidy
; Function compile flags: /Ogty
; File c:\program files\microsoft visual studio .net 2003\vc7\include\vector
;	COMDAT ?_Tidy@?$vector@KV?$allocator@K@std@@@std@@IAEXXZ
_TEXT	SEGMENT
?_Tidy@?$vector@KV?$allocator@K@std@@@std@@IAEXXZ PROC NEAR ; std::vector<unsigned long,std::allocator<unsigned long> >::_Tidy, COMDAT
; _this$ = ecx

; 791  : 		{	// free all storage

  00000	56		 push	 esi
  00001	8b f1		 mov	 esi, ecx

; 792  : 		if (_Myfirst != 0)

  00003	8b 46 04	 mov	 eax, DWORD PTR [esi+4]
  00006	85 c0		 test	 eax, eax
  00008	74 09		 je	 SHORT $L201160

; 793  : 			{	// something to free, destroy and deallocate it
; 794  : 			_Destroy(_Myfirst, _Mylast);
; 795  : 			this->_Alval.deallocate(_Myfirst, _Myend - _Myfirst);

  0000a	50		 push	 eax
  0000b	e8 00 00 00 00	 call	 ??3@YAXPAX@Z		; operator delete
  00010	83 c4 04	 add	 esp, 4
$L201160:

; 796  : 			}
; 797  : 		_Myfirst = 0, _Mylast = 0, _Myend = 0;

  00013	c7 46 04 00 00
	00 00		 mov	 DWORD PTR [esi+4], 0
  0001a	c7 46 08 00 00
	00 00		 mov	 DWORD PTR [esi+8], 0
  00021	c7 46 0c 00 00
	00 00		 mov	 DWORD PTR [esi+12], 0
  00028	5e		 pop	 esi

; 798  : 		}

  00029	c3		 ret	 0
?_Tidy@?$vector@KV?$allocator@K@std@@@std@@IAEXXZ ENDP	; std::vector<unsigned long,std::allocator<unsigned long> >::_Tidy
_TEXT	ENDS
PUBLIC	?erase@?$basic_string@DU?$char_traits@D@std@@V?$allocator@D@2@@std@@QAEAAV12@II@Z ; std::basic_string<char,std::char_traits<char>,std::allocator<char> >::erase
EXTRN	?_Xran@_String_base@std@@QBEXXZ:NEAR		; std::_String_base::_Xran
; Function compile flags: /Ogty
; File c:\program files\microsoft visual studio .net 2003\vc7\include\xstring
;	COMDAT ?erase@?$basic_string@DU?$char_traits@D@std@@V?$allocator@D@2@@std@@QAEAAV12@II@Z
_TEXT	SEGMENT
__Off$ = 8						; size = 4
__Count$ = 12						; size = 4
?erase@?$basic_string@DU?$char_traits@D@std@@V?$allocator@D@2@@std@@QAEAAV12@II@Z PROC NEAR ; std::basic_string<char,std::char_traits<char>,std::allocator<char> >::erase, COMDAT
; _this$ = ecx

; 792  : 		{	// erase elements [_Off, _Off + _Count)

  00000	55		 push	 ebp

; 793  : 		if (_Mysize < _Off)

  00001	8b 6c 24 08	 mov	 ebp, DWORD PTR __Off$[esp]
  00005	56		 push	 esi
  00006	8b f1		 mov	 esi, ecx
  00008	39 6e 14	 cmp	 DWORD PTR [esi+20], ebp
  0000b	57		 push	 edi
  0000c	73 05		 jae	 SHORT $L184993

; 794  : 			_String_base::_Xran();	// _Off off end

  0000e	e8 00 00 00 00	 call	 ?_Xran@_String_base@std@@QBEXXZ ; std::_String_base::_Xran
$L184993:

; 795  : 		if (_Mysize - _Off < _Count)

  00013	8b 46 14	 mov	 eax, DWORD PTR [esi+20]
  00016	8b 7c 24 14	 mov	 edi, DWORD PTR __Count$[esp+8]
  0001a	2b c5		 sub	 eax, ebp
  0001c	3b c7		 cmp	 eax, edi
  0001e	73 02		 jae	 SHORT $L184994

; 796  : 			_Count = _Mysize - _Off;	// trim _Count

  00020	8b f8		 mov	 edi, eax
$L184994:

; 797  : 		if (0 < _Count)

  00022	85 ff		 test	 edi, edi
  00024	76 47		 jbe	 SHORT $L201204

; 798  : 			{	// move elements down
; 799  : 			_Traits::move(_Myptr() + _Off, _Myptr() + _Off + _Count,
; 800  : 				_Mysize - _Off - _Count);

  00026	8b 4e 18	 mov	 ecx, DWORD PTR [esi+24]
  00029	83 f9 10	 cmp	 ecx, 16			; 00000010H
  0002c	53		 push	 ebx
  0002d	8d 5e 04	 lea	 ebx, DWORD PTR [esi+4]
  00030	72 04		 jb	 SHORT $L201169
  00032	8b 13		 mov	 edx, DWORD PTR [ebx]
  00034	eb 02		 jmp	 SHORT $L201170
$L201169:
  00036	8b d3		 mov	 edx, ebx
$L201170:
  00038	83 f9 10	 cmp	 ecx, 16			; 00000010H
  0003b	72 04		 jb	 SHORT $L201176
  0003d	8b 0b		 mov	 ecx, DWORD PTR [ebx]
  0003f	eb 02		 jmp	 SHORT $L201177
$L201176:
  00041	8b cb		 mov	 ecx, ebx
$L201177:
  00043	2b c7		 sub	 eax, edi

; 803  : 			}
; 804  : 		return (*this);

  00045	03 d5		 add	 edx, ebp
  00047	50		 push	 eax
  00048	03 d7		 add	 edx, edi
  0004a	52		 push	 edx
  0004b	03 cd		 add	 ecx, ebp
  0004d	51		 push	 ecx
  0004e	e8 00 00 00 00	 call	 _memmove
  00053	8b 46 14	 mov	 eax, DWORD PTR [esi+20]
  00056	8b 4e 18	 mov	 ecx, DWORD PTR [esi+24]
  00059	2b c7		 sub	 eax, edi
  0005b	83 c4 0c	 add	 esp, 12			; 0000000cH
  0005e	83 f9 10	 cmp	 ecx, 16			; 00000010H
  00061	89 46 14	 mov	 DWORD PTR [esi+20], eax
  00064	72 02		 jb	 SHORT $L201199

; 801  : 			size_type _Newsize = _Mysize - _Count;
; 802  : 			_Eos(_Newsize);

  00066	8b 1b		 mov	 ebx, DWORD PTR [ebx]
$L201199:
  00068	c6 04 03 00	 mov	 BYTE PTR [ebx+eax], 0
  0006c	5b		 pop	 ebx
$L201204:
  0006d	5f		 pop	 edi

; 803  : 			}
; 804  : 		return (*this);

  0006e	8b c6		 mov	 eax, esi
  00070	5e		 pop	 esi
  00071	5d		 pop	 ebp

; 805  : 		}

  00072	c2 08 00	 ret	 8
?erase@?$basic_string@DU?$char_traits@D@std@@V?$allocator@D@2@@std@@QAEAAV12@II@Z ENDP ; std::basic_string<char,std::char_traits<char>,std::allocator<char> >::erase
_TEXT	ENDS
PUBLIC	?_Copy@?$basic_string@DU?$char_traits@D@std@@V?$allocator@D@2@@std@@IAEXII@Z ; std::basic_string<char,std::char_traits<char>,std::allocator<char> >::_Copy
EXTRN	__CxxThrowException@8:NEAR
;	COMDAT xdata$x
; File c:\program files\microsoft visual studio .net 2003\vc7\include\iosfwd
xdata$x	SEGMENT
$T201408 DD	0ffffffffH
	DD	00H
	DD	0ffffffffH
	DD	00H
	DD	01H
	DD	00H
	DD	01H
	DD	00H
$T201410 DD	00H
	DD	00H
	DD	00H
	DD	FLAT:$L201211
$T201411 DD	00H
	DD	00H
	DD	00H
	DD	FLAT:$L201209
$T201409 DD	02H
	DD	02H
	DD	03H
	DD	01H
	DD	FLAT:$T201410
	DD	00H
	DD	00H
	DD	03H
	DD	01H
	DD	FLAT:$T201411
$T201403 DD	019930520H
	DD	04H
	DD	FLAT:$T201408
	DD	02H
	DD	FLAT:$T201409
	DD	2 DUP(00H)
; Function compile flags: /Ogty
; File c:\program files\microsoft visual studio .net 2003\vc7\include\xstring
xdata$x	ENDS
;	COMDAT ?_Copy@?$basic_string@DU?$char_traits@D@std@@V?$allocator@D@2@@std@@IAEXII@Z
_TEXT	SEGMENT
__Newres$ = -24						; size = 4
_this$ = -20						; size = 4
__$EHRec$ = -16						; size = 16
__Ptr$ = 8						; size = 4
__Newsize$ = 8						; size = 4
__Oldlen$ = 12						; size = 4
?_Copy@?$basic_string@DU?$char_traits@D@std@@V?$allocator@D@2@@std@@IAEXII@Z PROC NEAR ; std::basic_string<char,std::char_traits<char>,std::allocator<char> >::_Copy, COMDAT
; _this$ = ecx

; 1444 : 		{	// copy _Oldlen elements to newly allocated buffer

  00000	55		 push	 ebp
  00001	8b ec		 mov	 ebp, esp
  00003	6a ff		 push	 -1
  00005	68 00 00 00 00	 push	 __ehhandler$?_Copy@?$basic_string@DU?$char_traits@D@std@@V?$allocator@D@2@@std@@IAEXII@Z
  0000a	64 a1 00 00 00
	00		 mov	 eax, DWORD PTR fs:__except_list
  00010	50		 push	 eax
  00011	64 89 25 00 00
	00 00		 mov	 DWORD PTR fs:__except_list, esp
  00018	83 ec 0c	 sub	 esp, 12			; 0000000cH

; 1445 : 		size_type _Newres = _Newsize | _ALLOC_MASK;

  0001b	8b 45 08	 mov	 eax, DWORD PTR __Newsize$[ebp]
  0001e	53		 push	 ebx
  0001f	56		 push	 esi
  00020	8b d8		 mov	 ebx, eax
  00022	83 cb 0f	 or	 ebx, 15			; 0000000fH

; 1446 : 		if (max_size() < _Newres)

  00025	83 fb fe	 cmp	 ebx, -2			; fffffffeH
  00028	57		 push	 edi
  00029	8b f1		 mov	 esi, ecx
  0002b	89 65 f0	 mov	 DWORD PTR __$EHRec$[ebp], esp
  0002e	89 75 ec	 mov	 DWORD PTR _this$[ebp], esi
  00031	76 04		 jbe	 SHORT $L185550

; 1447 : 			_Newres = _Newsize;	// undo roundup if too big

  00033	8b d8		 mov	 ebx, eax

; 1448 : 		else if (_Newres / 3 < _Myres / 2

  00035	eb 22		 jmp	 SHORT $L185552
$L185550:

; 1449 : 			&& _Myres <= max_size() - _Myres / 2)

  00037	8b 7e 18	 mov	 edi, DWORD PTR [esi+24]
  0003a	b8 ab aa aa aa	 mov	 eax, -1431655765	; aaaaaaabH
  0003f	f7 e3		 mul	 ebx
  00041	8b cf		 mov	 ecx, edi
  00043	d1 e9		 shr	 ecx, 1
  00045	d1 ea		 shr	 edx, 1
  00047	3b d1		 cmp	 edx, ecx
  00049	73 0e		 jae	 SHORT $L185552
  0004b	b8 fe ff ff ff	 mov	 eax, -2			; fffffffeH
  00050	2b c1		 sub	 eax, ecx
  00052	3b f8		 cmp	 edi, eax
  00054	77 03		 ja	 SHORT $L185552

; 1450 : 			_Newres = _Myres + _Myres / 2;	// grow exponentially if possible

  00056	8d 1c 39	 lea	 ebx, DWORD PTR [ecx+edi]
$L185552:

; 1451 : 		_Elem *_Ptr;
; 1452 : 
; 1453 : 		_TRY_BEGIN
; 1454 : 			_Ptr = _Mybase::_Alval.allocate(_Newres + 1);

  00059	8d 4b 01	 lea	 ecx, DWORD PTR [ebx+1]
  0005c	51		 push	 ecx
  0005d	c7 45 fc 00 00
	00 00		 mov	 DWORD PTR __$EHRec$[ebp+12], 0
  00064	e8 00 00 00 00	 call	 ??2@YAPAXI@Z		; operator new
  00069	8b d0		 mov	 edx, eax
  0006b	83 c4 04	 add	 esp, 4
  0006e	89 55 08	 mov	 DWORD PTR __Ptr$[ebp], edx
  00071	eb 29		 jmp	 SHORT $L185554
$L201209:

; 1455 : 		_CATCH_ALL
; 1456 : 			_Newres = _Newsize;	// allocation failed, undo roundup and retry

  00073	8b 45 08	 mov	 eax, DWORD PTR __Newsize$[ebp]
  00076	89 45 e8	 mov	 DWORD PTR __Newres$[ebp], eax

; 1457 : 			_TRY_BEGIN
; 1458 : 				_Ptr = _Mybase::_Alval.allocate(_Newres + 1);

  00079	40		 inc	 eax
  0007a	89 65 f0	 mov	 DWORD PTR __$EHRec$[ebp], esp
  0007d	50		 push	 eax
  0007e	c6 45 fc 02	 mov	 BYTE PTR __$EHRec$[ebp+12], 2
  00082	e8 00 00 00 00	 call	 ??2@YAPAXI@Z		; operator new
  00087	89 45 08	 mov	 DWORD PTR __Ptr$[ebp], eax
  0008a	83 c4 04	 add	 esp, 4

; 1462 : 			_CATCH_END
; 1463 : 		_CATCH_END

  0008d	b8 00 00 00 00	 mov	 eax, $L201404
  00092	c3		 ret	 0
$L201404:
  00093	8b 5d e8	 mov	 ebx, DWORD PTR __Newres$[ebp]
  00096	8b 75 ec	 mov	 esi, DWORD PTR _this$[ebp]
  00099	8b 55 08	 mov	 edx, DWORD PTR __Ptr$[ebp]
$L185554:

; 1464 : 
; 1465 : 		if (0 < _Oldlen)

  0009c	8b 4d 0c	 mov	 ecx, DWORD PTR __Oldlen$[ebp]
  0009f	85 c9		 test	 ecx, ecx
  000a1	76 24		 jbe	 SHORT $L201329

; 1466 : 			_Traits::copy(_Ptr, _Myptr(), _Oldlen);	// copy existing elements

  000a3	83 7e 18 10	 cmp	 DWORD PTR [esi+24], 16	; 00000010H
  000a7	72 05		 jb	 SHORT $L201324
  000a9	8b 76 04	 mov	 esi, DWORD PTR [esi+4]
  000ac	eb 03		 jmp	 SHORT $L201325
$L201324:
  000ae	83 c6 04	 add	 esi, 4
$L201325:
  000b1	8b c1		 mov	 eax, ecx
  000b3	c1 e9 02	 shr	 ecx, 2
  000b6	8b fa		 mov	 edi, edx
  000b8	f3 a5		 rep movsd
  000ba	8b c8		 mov	 ecx, eax
  000bc	83 e1 03	 and	 ecx, 3
  000bf	f3 a4		 rep movsb
  000c1	8b 75 ec	 mov	 esi, DWORD PTR _this$[ebp]
  000c4	8b 4d 0c	 mov	 ecx, DWORD PTR __Oldlen$[ebp]
$L201329:

; 1467 : 		_Tidy(true);

  000c7	83 7e 18 10	 cmp	 DWORD PTR [esi+24], 16	; 00000010H
  000cb	72 12		 jb	 SHORT $L201371
  000cd	8b 4e 04	 mov	 ecx, DWORD PTR [esi+4]
  000d0	51		 push	 ecx
  000d1	e8 00 00 00 00	 call	 ??3@YAXPAX@Z		; operator delete
  000d6	8b 55 08	 mov	 edx, DWORD PTR __Ptr$[ebp]
  000d9	8b 4d 0c	 mov	 ecx, DWORD PTR __Oldlen$[ebp]
  000dc	83 c4 04	 add	 esp, 4
$L201371:

; 1468 : 		_Bx._Ptr = _Ptr;
; 1469 : 		_Myres = _Newres;
; 1470 : 		_Eos(_Oldlen);

  000df	83 fb 10	 cmp	 ebx, 16			; 00000010H
  000e2	8d 46 04	 lea	 eax, DWORD PTR [esi+4]
  000e5	c6 00 00	 mov	 BYTE PTR [eax], 0
  000e8	89 10		 mov	 DWORD PTR [eax], edx
  000ea	89 5e 18	 mov	 DWORD PTR [esi+24], ebx
  000ed	89 4e 14	 mov	 DWORD PTR [esi+20], ecx
  000f0	72 02		 jb	 SHORT $L201398
  000f2	8b c2		 mov	 eax, edx
$L201398:

; 1471 : 		}

  000f4	5f		 pop	 edi
  000f5	c6 04 08 00	 mov	 BYTE PTR [eax+ecx], 0
  000f9	8b 4d f4	 mov	 ecx, DWORD PTR __$EHRec$[ebp+4]
  000fc	5e		 pop	 esi
  000fd	64 89 0d 00 00
	00 00		 mov	 DWORD PTR fs:__except_list, ecx
  00104	5b		 pop	 ebx
  00105	8b e5		 mov	 esp, ebp
  00107	5d		 pop	 ebp
  00108	c2 08 00	 ret	 8
$L201211:

; 1459 : 			_CATCH_ALL
; 1460 : 			_Tidy(true);	// failed again, discard storage and reraise

  0010b	8b 75 ec	 mov	 esi, DWORD PTR _this$[ebp]
  0010e	83 7e 18 10	 cmp	 DWORD PTR [esi+24], 16	; 00000010H
  00112	72 0c		 jb	 SHORT $L201310
  00114	8b 56 04	 mov	 edx, DWORD PTR [esi+4]
  00117	52		 push	 edx
  00118	e8 00 00 00 00	 call	 ??3@YAXPAX@Z		; operator delete
  0011d	83 c4 04	 add	 esp, 4
$L201310:

; 1461 : 			_RERAISE;

  00120	6a 00		 push	 0
  00122	c7 46 18 0f 00
	00 00		 mov	 DWORD PTR [esi+24], 15	; 0000000fH
  00129	c7 46 14 00 00
	00 00		 mov	 DWORD PTR [esi+20], 0
  00130	6a 00		 push	 0
  00132	c6 46 04 00	 mov	 BYTE PTR [esi+4], 0
  00136	e8 00 00 00 00	 call	 __CxxThrowException@8
$L201407:
  0013b	cc		 int	 3
_TEXT	ENDS
;	COMDAT text$x
text$x	SEGMENT
__ehhandler$?_Copy@?$basic_string@DU?$char_traits@D@std@@V?$allocator@D@2@@std@@IAEXII@Z:
  00000	b8 00 00 00 00	 mov	 eax, OFFSET FLAT:$T201403
  00005	e9 00 00 00 00	 jmp	 ___CxxFrameHandler
text$x	ENDS
?_Copy@?$basic_string@DU?$char_traits@D@std@@V?$allocator@D@2@@std@@IAEXII@Z ENDP ; std::basic_string<char,std::char_traits<char>,std::allocator<char> >::_Copy
PUBLIC	??A?$vector@KV?$allocator@K@std@@@std@@QAEAAKI@Z ; std::vector<unsigned long,std::allocator<unsigned long> >::operator[]
; Function compile flags: /Ogty
; File c:\program files\microsoft visual studio .net 2003\vc7\include\vector
;	COMDAT ??A?$vector@KV?$allocator@K@std@@@std@@QAEAAKI@Z
_TEXT	SEGMENT
__Pos$ = 8						; size = 4
??A?$vector@KV?$allocator@K@std@@@std@@QAEAAKI@Z PROC NEAR ; std::vector<unsigned long,std::allocator<unsigned long> >::operator[], COMDAT
; _this$ = ecx

; 555  : 		return (*(begin() + _Pos));

  00000	8b 41 04	 mov	 eax, DWORD PTR [ecx+4]
  00003	8b 4c 24 04	 mov	 ecx, DWORD PTR __Pos$[esp-4]
  00007	8d 04 88	 lea	 eax, DWORD PTR [eax+ecx*4]

; 556  : 		}

  0000a	c2 04 00	 ret	 4
??A?$vector@KV?$allocator@K@std@@@std@@QAEAAKI@Z ENDP	; std::vector<unsigned long,std::allocator<unsigned long> >::operator[]
_TEXT	ENDS
PUBLIC	??A?$vector@HV?$allocator@H@std@@@std@@QAEAAHI@Z ; std::vector<int,std::allocator<int> >::operator[]
; Function compile flags: /Ogty
;	COMDAT ??A?$vector@HV?$allocator@H@std@@@std@@QAEAAHI@Z
_TEXT	SEGMENT
__Pos$ = 8						; size = 4
??A?$vector@HV?$allocator@H@std@@@std@@QAEAAHI@Z PROC NEAR ; std::vector<int,std::allocator<int> >::operator[], COMDAT
; _this$ = ecx

; 555  : 		return (*(begin() + _Pos));

  00000	8b 41 04	 mov	 eax, DWORD PTR [ecx+4]
  00003	8b 4c 24 04	 mov	 ecx, DWORD PTR __Pos$[esp-4]
  00007	8d 04 88	 lea	 eax, DWORD PTR [eax+ecx*4]

; 556  : 		}

  0000a	c2 04 00	 ret	 4
??A?$vector@HV?$allocator@H@std@@@std@@QAEAAHI@Z ENDP	; std::vector<int,std::allocator<int> >::operator[]
_TEXT	ENDS
PUBLIC	??A?$vector@EV?$allocator@E@std@@@std@@QAEAAEI@Z ; std::vector<unsigned char,std::allocator<unsigned char> >::operator[]
; Function compile flags: /Ogty
;	COMDAT ??A?$vector@EV?$allocator@E@std@@@std@@QAEAAEI@Z
_TEXT	SEGMENT
__Pos$ = 8						; size = 4
??A?$vector@EV?$allocator@E@std@@@std@@QAEAAEI@Z PROC NEAR ; std::vector<unsigned char,std::allocator<unsigned char> >::operator[], COMDAT
; _this$ = ecx

; 555  : 		return (*(begin() + _Pos));

  00000	8b 41 04	 mov	 eax, DWORD PTR [ecx+4]
  00003	03 44 24 04	 add	 eax, DWORD PTR __Pos$[esp-4]

; 556  : 		}

  00007	c2 04 00	 ret	 4
??A?$vector@EV?$allocator@E@std@@@std@@QAEAAEI@Z ENDP	; std::vector<unsigned char,std::allocator<unsigned char> >::operator[]
_TEXT	ENDS
PUBLIC	?_Ufill@?$vector@KV?$allocator@K@std@@@std@@IAEPAKPAKIABK@Z ; std::vector<unsigned long,std::allocator<unsigned long> >::_Ufill
; Function compile flags: /Ogty
;	COMDAT ?_Ufill@?$vector@KV?$allocator@K@std@@@std@@IAEPAKPAKIABK@Z
_TEXT	SEGMENT
__Ptr$ = 8						; size = 4
__Count$ = 12						; size = 4
__Val$ = 16						; size = 4
?_Ufill@?$vector@KV?$allocator@K@std@@@std@@IAEPAKPAKIABK@Z PROC NEAR ; std::vector<unsigned long,std::allocator<unsigned long> >::_Ufill, COMDAT
; _this$ = ecx

; 877  : 		{	// copy initializing _Count * _Val, using allocator

  00000	56		 push	 esi

; 878  : 		_Uninitialized_fill_n(_Ptr, _Count, _Val, this->_Alval);

  00001	8b 74 24 0c	 mov	 esi, DWORD PTR __Count$[esp]
  00005	85 f6		 test	 esi, esi
  00007	57		 push	 edi
  00008	8b 7c 24 0c	 mov	 edi, DWORD PTR __Ptr$[esp+4]
  0000c	8b c7		 mov	 eax, edi
  0000e	76 12		 jbe	 SHORT $L201563
  00010	8b 54 24 14	 mov	 edx, DWORD PTR __Val$[esp+4]
  00014	8b ce		 mov	 ecx, esi
  00016	53		 push	 ebx
$L201557:
  00017	8b 1a		 mov	 ebx, DWORD PTR [edx]
  00019	89 18		 mov	 DWORD PTR [eax], ebx
  0001b	83 c0 04	 add	 eax, 4
  0001e	49		 dec	 ecx
  0001f	75 f6		 jne	 SHORT $L201557
  00021	5b		 pop	 ebx
$L201563:

; 879  : 		return (_Ptr + _Count);

  00022	8d 04 b7	 lea	 eax, DWORD PTR [edi+esi*4]
  00025	5f		 pop	 edi
  00026	5e		 pop	 esi

; 880  : 		}

  00027	c2 0c 00	 ret	 12			; 0000000cH
?_Ufill@?$vector@KV?$allocator@K@std@@@std@@IAEPAKPAKIABK@Z ENDP ; std::vector<unsigned long,std::allocator<unsigned long> >::_Ufill
_TEXT	ENDS
PUBLIC	?_Tidy@?$vector@HV?$allocator@H@std@@@std@@IAEXXZ ; std::vector<int,std::allocator<int> >::_Tidy
; Function compile flags: /Ogty
;	COMDAT ?_Tidy@?$vector@HV?$allocator@H@std@@@std@@IAEXXZ
_TEXT	SEGMENT
?_Tidy@?$vector@HV?$allocator@H@std@@@std@@IAEXXZ PROC NEAR ; std::vector<int,std::allocator<int> >::_Tidy, COMDAT
; _this$ = ecx

; 791  : 		{	// free all storage

  00000	56		 push	 esi
  00001	8b f1		 mov	 esi, ecx

; 792  : 		if (_Myfirst != 0)

  00003	8b 46 04	 mov	 eax, DWORD PTR [esi+4]
  00006	85 c0		 test	 eax, eax
  00008	74 09		 je	 SHORT $L201567

; 793  : 			{	// something to free, destroy and deallocate it
; 794  : 			_Destroy(_Myfirst, _Mylast);
; 795  : 			this->_Alval.deallocate(_Myfirst, _Myend - _Myfirst);

  0000a	50		 push	 eax
  0000b	e8 00 00 00 00	 call	 ??3@YAXPAX@Z		; operator delete
  00010	83 c4 04	 add	 esp, 4
$L201567:

; 796  : 			}
; 797  : 		_Myfirst = 0, _Mylast = 0, _Myend = 0;

  00013	c7 46 04 00 00
	00 00		 mov	 DWORD PTR [esi+4], 0
  0001a	c7 46 08 00 00
	00 00		 mov	 DWORD PTR [esi+8], 0
  00021	c7 46 0c 00 00
	00 00		 mov	 DWORD PTR [esi+12], 0
  00028	5e		 pop	 esi

; 798  : 		}

  00029	c3		 ret	 0
?_Tidy@?$vector@HV?$allocator@H@std@@@std@@IAEXXZ ENDP	; std::vector<int,std::allocator<int> >::_Tidy
_TEXT	ENDS
PUBLIC	?_Ufill@?$vector@HV?$allocator@H@std@@@std@@IAEPAHPAHIABH@Z ; std::vector<int,std::allocator<int> >::_Ufill
; Function compile flags: /Ogty
;	COMDAT ?_Ufill@?$vector@HV?$allocator@H@std@@@std@@IAEPAHPAHIABH@Z
_TEXT	SEGMENT
__Ptr$ = 8						; size = 4
__Count$ = 12						; size = 4
__Val$ = 16						; size = 4
?_Ufill@?$vector@HV?$allocator@H@std@@@std@@IAEPAHPAHIABH@Z PROC NEAR ; std::vector<int,std::allocator<int> >::_Ufill, COMDAT
; _this$ = ecx

; 877  : 		{	// copy initializing _Count * _Val, using allocator

  00000	56		 push	 esi

; 878  : 		_Uninitialized_fill_n(_Ptr, _Count, _Val, this->_Alval);

  00001	8b 74 24 0c	 mov	 esi, DWORD PTR __Count$[esp]
  00005	85 f6		 test	 esi, esi
  00007	57		 push	 edi
  00008	8b 7c 24 0c	 mov	 edi, DWORD PTR __Ptr$[esp+4]
  0000c	8b c7		 mov	 eax, edi
  0000e	76 12		 jbe	 SHORT $L201610
  00010	8b 54 24 14	 mov	 edx, DWORD PTR __Val$[esp+4]
  00014	8b ce		 mov	 ecx, esi
  00016	53		 push	 ebx
$L201604:
  00017	8b 1a		 mov	 ebx, DWORD PTR [edx]
  00019	89 18		 mov	 DWORD PTR [eax], ebx
  0001b	83 c0 04	 add	 eax, 4
  0001e	49		 dec	 ecx
  0001f	75 f6		 jne	 SHORT $L201604
  00021	5b		 pop	 ebx
$L201610:

; 879  : 		return (_Ptr + _Count);

  00022	8d 04 b7	 lea	 eax, DWORD PTR [edi+esi*4]
  00025	5f		 pop	 edi
  00026	5e		 pop	 esi

; 880  : 		}

  00027	c2 0c 00	 ret	 12			; 0000000cH
?_Ufill@?$vector@HV?$allocator@H@std@@@std@@IAEPAHPAHIABH@Z ENDP ; std::vector<int,std::allocator<int> >::_Ufill
_TEXT	ENDS
PUBLIC	?_Tidy@?$vector@EV?$allocator@E@std@@@std@@IAEXXZ ; std::vector<unsigned char,std::allocator<unsigned char> >::_Tidy
; Function compile flags: /Ogty
;	COMDAT ?_Tidy@?$vector@EV?$allocator@E@std@@@std@@IAEXXZ
_TEXT	SEGMENT
?_Tidy@?$vector@EV?$allocator@E@std@@@std@@IAEXXZ PROC NEAR ; std::vector<unsigned char,std::allocator<unsigned char> >::_Tidy, COMDAT
; _this$ = ecx

; 791  : 		{	// free all storage

  00000	56		 push	 esi
  00001	8b f1		 mov	 esi, ecx

; 792  : 		if (_Myfirst != 0)

  00003	8b 46 04	 mov	 eax, DWORD PTR [esi+4]
  00006	85 c0		 test	 eax, eax
  00008	74 09		 je	 SHORT $L201614

; 793  : 			{	// something to free, destroy and deallocate it
; 794  : 			_Destroy(_Myfirst, _Mylast);
; 795  : 			this->_Alval.deallocate(_Myfirst, _Myend - _Myfirst);

  0000a	50		 push	 eax
  0000b	e8 00 00 00 00	 call	 ??3@YAXPAX@Z		; operator delete
  00010	83 c4 04	 add	 esp, 4
$L201614:

; 796  : 			}
; 797  : 		_Myfirst = 0, _Mylast = 0, _Myend = 0;

  00013	c7 46 04 00 00
	00 00		 mov	 DWORD PTR [esi+4], 0
  0001a	c7 46 08 00 00
	00 00		 mov	 DWORD PTR [esi+8], 0
  00021	c7 46 0c 00 00
	00 00		 mov	 DWORD PTR [esi+12], 0
  00028	5e		 pop	 esi

; 798  : 		}

  00029	c3		 ret	 0
?_Tidy@?$vector@EV?$allocator@E@std@@@std@@IAEXXZ ENDP	; std::vector<unsigned char,std::allocator<unsigned char> >::_Tidy
_TEXT	ENDS
PUBLIC	?_Ufill@?$vector@EV?$allocator@E@std@@@std@@IAEPAEPAEIABE@Z ; std::vector<unsigned char,std::allocator<unsigned char> >::_Ufill
; Function compile flags: /Ogty
;	COMDAT ?_Ufill@?$vector@EV?$allocator@E@std@@@std@@IAEPAEPAEIABE@Z
_TEXT	SEGMENT
__Ptr$ = 8						; size = 4
__Count$ = 12						; size = 4
__Val$ = 16						; size = 4
?_Ufill@?$vector@EV?$allocator@E@std@@@std@@IAEPAEPAEIABE@Z PROC NEAR ; std::vector<unsigned char,std::allocator<unsigned char> >::_Ufill, COMDAT
; _this$ = ecx

; 877  : 		{	// copy initializing _Count * _Val, using allocator

  00000	55		 push	 ebp

; 878  : 		_Uninitialized_fill_n(_Ptr, _Count, _Val, this->_Alval);

  00001	8b 6c 24 08	 mov	 ebp, DWORD PTR __Ptr$[esp]
  00005	57		 push	 edi
  00006	8b 7c 24 10	 mov	 edi, DWORD PTR __Count$[esp+4]
  0000a	85 ff		 test	 edi, edi
  0000c	8b c5		 mov	 eax, ebp
  0000e	76 10		 jbe	 SHORT $L201657
  00010	56		 push	 esi
  00011	8b 74 24 18	 mov	 esi, DWORD PTR __Val$[esp+8]
  00015	8b cf		 mov	 ecx, edi
$L201651:
  00017	8a 16		 mov	 dl, BYTE PTR [esi]
  00019	88 10		 mov	 BYTE PTR [eax], dl
  0001b	40		 inc	 eax
  0001c	49		 dec	 ecx
  0001d	75 f8		 jne	 SHORT $L201651
  0001f	5e		 pop	 esi
$L201657:

; 879  : 		return (_Ptr + _Count);

  00020	8d 04 2f	 lea	 eax, DWORD PTR [edi+ebp]
  00023	5f		 pop	 edi
  00024	5d		 pop	 ebp

; 880  : 		}

  00025	c2 0c 00	 ret	 12			; 0000000cH
?_Ufill@?$vector@EV?$allocator@E@std@@@std@@IAEPAEPAEIABE@Z ENDP ; std::vector<unsigned char,std::allocator<unsigned char> >::_Ufill
_TEXT	ENDS
PUBLIC	??1?$basic_string@DU?$char_traits@D@std@@V?$allocator@D@2@@std@@QAE@XZ ; std::basic_string<char,std::char_traits<char>,std::allocator<char> >::~basic_string<char,std::char_traits<char>,std::allocator<char> >
; Function compile flags: /Ogty
; File c:\program files\microsoft visual studio .net 2003\vc7\include\xstring
;	COMDAT ??1?$basic_string@DU?$char_traits@D@std@@V?$allocator@D@2@@std@@QAE@XZ
_TEXT	SEGMENT
??1?$basic_string@DU?$char_traits@D@std@@V?$allocator@D@2@@std@@QAE@XZ PROC NEAR ; std::basic_string<char,std::char_traits<char>,std::allocator<char> >::~basic_string<char,std::char_traits<char>,std::allocator<char> >, COMDAT
; _this$ = ecx

; 456  : 		{	// destroy the string

  00000	56		 push	 esi
  00001	8b f1		 mov	 esi, ecx

; 457  : 		_Tidy(true);

  00003	83 7e 18 10	 cmp	 DWORD PTR [esi+24], 16	; 00000010H
  00007	72 0c		 jb	 SHORT $L201699
  00009	8b 46 04	 mov	 eax, DWORD PTR [esi+4]
  0000c	50		 push	 eax
  0000d	e8 00 00 00 00	 call	 ??3@YAXPAX@Z		; operator delete
  00012	83 c4 04	 add	 esp, 4
$L201699:
  00015	33 c0		 xor	 eax, eax
  00017	c7 46 18 0f 00
	00 00		 mov	 DWORD PTR [esi+24], 15	; 0000000fH
  0001e	89 46 14	 mov	 DWORD PTR [esi+20], eax
  00021	88 46 04	 mov	 BYTE PTR [esi+4], al
  00024	5e		 pop	 esi

; 458  : 		}

  00025	c3		 ret	 0
??1?$basic_string@DU?$char_traits@D@std@@V?$allocator@D@2@@std@@QAE@XZ ENDP ; std::basic_string<char,std::char_traits<char>,std::allocator<char> >::~basic_string<char,std::char_traits<char>,std::allocator<char> >
_TEXT	ENDS
PUBLIC	??1?$vector@KV?$allocator@K@std@@@std@@QAE@XZ	; std::vector<unsigned long,std::allocator<unsigned long> >::~vector<unsigned long,std::allocator<unsigned long> >
; Function compile flags: /Ogty
; File c:\program files\microsoft visual studio .net 2003\vc7\include\vector
;	COMDAT ??1?$vector@KV?$allocator@K@std@@@std@@QAE@XZ
_TEXT	SEGMENT
??1?$vector@KV?$allocator@K@std@@@std@@QAE@XZ PROC NEAR	; std::vector<unsigned long,std::allocator<unsigned long> >::~vector<unsigned long,std::allocator<unsigned long> >, COMDAT
; _this$ = ecx

; 387  : 		{	// destroy the object

  00000	56		 push	 esi
  00001	8b f1		 mov	 esi, ecx

; 388  : 		_Tidy();

  00003	8b 46 04	 mov	 eax, DWORD PTR [esi+4]
  00006	85 c0		 test	 eax, eax
  00008	74 09		 je	 SHORT $L201721
  0000a	50		 push	 eax
  0000b	e8 00 00 00 00	 call	 ??3@YAXPAX@Z		; operator delete
  00010	83 c4 04	 add	 esp, 4
$L201721:
  00013	c7 46 04 00 00
	00 00		 mov	 DWORD PTR [esi+4], 0
  0001a	c7 46 08 00 00
	00 00		 mov	 DWORD PTR [esi+8], 0
  00021	c7 46 0c 00 00
	00 00		 mov	 DWORD PTR [esi+12], 0
  00028	5e		 pop	 esi

; 389  : 		}

  00029	c3		 ret	 0
??1?$vector@KV?$allocator@K@std@@@std@@QAE@XZ ENDP	; std::vector<unsigned long,std::allocator<unsigned long> >::~vector<unsigned long,std::allocator<unsigned long> >
_TEXT	ENDS
PUBLIC	?_Grow@?$basic_string@DU?$char_traits@D@std@@V?$allocator@D@2@@std@@IAE_NI_N@Z ; std::basic_string<char,std::char_traits<char>,std::allocator<char> >::_Grow
EXTRN	?_Xlen@_String_base@std@@QBEXXZ:NEAR		; std::_String_base::_Xlen
; Function compile flags: /Ogty
; File c:\program files\microsoft visual studio .net 2003\vc7\include\xstring
;	COMDAT ?_Grow@?$basic_string@DU?$char_traits@D@std@@V?$allocator@D@2@@std@@IAE_NI_N@Z
_TEXT	SEGMENT
__Newsize$ = 8						; size = 4
__Trim$ = 12						; size = 1
?_Grow@?$basic_string@DU?$char_traits@D@std@@V?$allocator@D@2@@std@@IAE_NI_N@Z PROC NEAR ; std::basic_string<char,std::char_traits<char>,std::allocator<char> >::_Grow, COMDAT
; _this$ = ecx

; 1480 : 		{	// ensure buffer is big enough, trim to size if _Trim is true

  00000	55		 push	 ebp
  00001	56		 push	 esi

; 1481 : 		if (max_size() < _Newsize)

  00002	8b 74 24 0c	 mov	 esi, DWORD PTR __Newsize$[esp+4]
  00006	83 fe fe	 cmp	 esi, -2			; fffffffeH
  00009	8b e9		 mov	 ebp, ecx
  0000b	76 05		 jbe	 SHORT $L185002

; 1482 : 			_String_base::_Xlen();	// result too long

  0000d	e8 00 00 00 00	 call	 ?_Xlen@_String_base@std@@QBEXXZ ; std::_String_base::_Xlen
$L185002:

; 1483 : 		if (_Myres < _Newsize)

  00012	8b 45 18	 mov	 eax, DWORD PTR [ebp+24]
  00015	3b c6		 cmp	 eax, esi
  00017	73 19		 jae	 SHORT $L185003

; 1484 : 			_Copy(_Newsize, _Mysize);	// reallocate to grow

  00019	8b 45 14	 mov	 eax, DWORD PTR [ebp+20]
  0001c	50		 push	 eax
  0001d	56		 push	 esi
  0001e	8b cd		 mov	 ecx, ebp
  00020	e8 00 00 00 00	 call	 ?_Copy@?$basic_string@DU?$char_traits@D@std@@V?$allocator@D@2@@std@@IAEXII@Z ; std::basic_string<char,std::char_traits<char>,std::allocator<char> >::_Copy

; 1490 : 		return (0 < _Newsize);	// return true only if more work to do

  00025	33 c0		 xor	 eax, eax
  00027	3b c6		 cmp	 eax, esi
  00029	1b c0		 sbb	 eax, eax
  0002b	5e		 pop	 esi
  0002c	f7 d8		 neg	 eax
  0002e	5d		 pop	 ebp

; 1491 : 		}

  0002f	c2 08 00	 ret	 8
$L185003:

; 1485 : 		else if (_Trim && _Newsize < _BUF_SIZE)

  00032	8a 4c 24 10	 mov	 cl, BYTE PTR __Trim$[esp+4]
  00036	84 c9		 test	 cl, cl
  00038	74 5c		 je	 SHORT $L185005
  0003a	83 fe 10	 cmp	 esi, 16			; 00000010H
  0003d	73 57		 jae	 SHORT $L185005
  0003f	53		 push	 ebx

; 1486 : 			_Tidy(true,	// copy and deallocate if trimming to small string
; 1487 : 				_Newsize < _Mysize ? _Newsize : _Mysize);

  00040	8b 5d 14	 mov	 ebx, DWORD PTR [ebp+20]
  00043	3b f3		 cmp	 esi, ebx
  00045	73 02		 jae	 SHORT $L201726
  00047	8b de		 mov	 ebx, esi
$L201726:
  00049	83 f8 10	 cmp	 eax, 16			; 00000010H
  0004c	72 2b		 jb	 SHORT $L201781
  0004e	85 db		 test	 ebx, ebx
  00050	8b 45 04	 mov	 eax, DWORD PTR [ebp+4]
  00053	57		 push	 edi
  00054	8d 7d 04	 lea	 edi, DWORD PTR [ebp+4]
  00057	76 16		 jbe	 SHORT $L201779
  00059	8b cb		 mov	 ecx, ebx
  0005b	8b d1		 mov	 edx, ecx
  0005d	c1 e9 02	 shr	 ecx, 2
  00060	8b f0		 mov	 esi, eax
  00062	f3 a5		 rep movsd
  00064	8b ca		 mov	 ecx, edx
  00066	83 e1 03	 and	 ecx, 3
  00069	f3 a4		 rep movsb
  0006b	8b 74 24 14	 mov	 esi, DWORD PTR __Newsize$[esp+12]
$L201779:
  0006f	50		 push	 eax
  00070	e8 00 00 00 00	 call	 ??3@YAXPAX@Z		; operator delete
  00075	83 c4 04	 add	 esp, 4
  00078	5f		 pop	 edi
$L201781:
  00079	89 5d 14	 mov	 DWORD PTR [ebp+20], ebx

; 1490 : 		return (0 < _Newsize);	// return true only if more work to do

  0007c	33 c0		 xor	 eax, eax
  0007e	c7 45 18 0f 00
	00 00		 mov	 DWORD PTR [ebp+24], 15	; 0000000fH
  00085	c6 44 2b 04 00	 mov	 BYTE PTR [ebx+ebp+4], 0
  0008a	3b c6		 cmp	 eax, esi
  0008c	5b		 pop	 ebx
  0008d	1b c0		 sbb	 eax, eax
  0008f	5e		 pop	 esi
  00090	f7 d8		 neg	 eax
  00092	5d		 pop	 ebp

; 1491 : 		}

  00093	c2 08 00	 ret	 8
$L185005:

; 1488 : 		else if (_Newsize == 0)

  00096	85 f6		 test	 esi, esi
  00098	75 23		 jne	 SHORT $L201817

; 1489 : 			_Eos(0);	// new size is zero, just null terminate

  0009a	83 f8 10	 cmp	 eax, 16			; 00000010H
  0009d	89 75 14	 mov	 DWORD PTR [ebp+20], esi
  000a0	72 14		 jb	 SHORT $L201813
  000a2	8b 6d 04	 mov	 ebp, DWORD PTR [ebp+4]

; 1490 : 		return (0 < _Newsize);	// return true only if more work to do

  000a5	33 c0		 xor	 eax, eax
  000a7	3b c6		 cmp	 eax, esi
  000a9	1b c0		 sbb	 eax, eax
  000ab	5e		 pop	 esi
  000ac	c6 45 00 00	 mov	 BYTE PTR [ebp], 0
  000b0	f7 d8		 neg	 eax
  000b2	5d		 pop	 ebp

; 1491 : 		}

  000b3	c2 08 00	 ret	 8

; 1489 : 			_Eos(0);	// new size is zero, just null terminate

$L201813:
  000b6	83 c5 04	 add	 ebp, 4
  000b9	c6 45 00 00	 mov	 BYTE PTR [ebp], 0
$L201817:

; 1490 : 		return (0 < _Newsize);	// return true only if more work to do

  000bd	33 c0		 xor	 eax, eax
  000bf	3b c6		 cmp	 eax, esi
  000c1	1b c0		 sbb	 eax, eax
  000c3	5e		 pop	 esi
  000c4	f7 d8		 neg	 eax
  000c6	5d		 pop	 ebp

; 1491 : 		}

  000c7	c2 08 00	 ret	 8
?_Grow@?$basic_string@DU?$char_traits@D@std@@V?$allocator@D@2@@std@@IAE_NI_N@Z ENDP ; std::basic_string<char,std::char_traits<char>,std::allocator<char> >::_Grow
_TEXT	ENDS
PUBLIC	??_C@_0DJ@KCPMHBBH@SECRET_ROOM_MEMBER_STR?5?8D1?8?0?5?8?$CF0@ ; `string'
PUBLIC	??_C@_0DM@DPPKLHMA@SECRET_ROOM_MEMBER_STR?5?8I1?8?0?5?8?$CF0@ ; `string'
PUBLIC	?InsertLineUpMemberToDB@CSecretRoomDbController@@AAEXEKAAV?$vector@KV?$allocator@K@std@@@std@@@Z ; CSecretRoomDbController::InsertLineUpMemberToDB
;	COMDAT ??_C@_0DJ@KCPMHBBH@SECRET_ROOM_MEMBER_STR?5?8D1?8?0?5?8?$CF0@
; File c:\program files\microsoft visual studio .net 2003\vc7\include\vector
CONST	SEGMENT
??_C@_0DJ@KCPMHBBH@SECRET_ROOM_MEMBER_STR?5?8D1?8?0?5?8?$CF0@ DB 'SECRET_'
	DB	'ROOM_MEMBER_STR ''D1'', ''%02d'', %d, %d, ''%06d'', ''0''', 00H ; `string'
CONST	ENDS
;	COMDAT ??_C@_0DM@DPPKLHMA@SECRET_ROOM_MEMBER_STR?5?8I1?8?0?5?8?$CF0@
CONST	SEGMENT
??_C@_0DM@DPPKLHMA@SECRET_ROOM_MEMBER_STR?5?8I1?8?0?5?8?$CF0@ DB 'SECRET_'
	DB	'ROOM_MEMBER_STR ''I1'', ''%02d'', %d, %d, ''%06d'', ''%07d''', 00H ; `string'
; Function compile flags: /Ogty
; File c:\documents and settings\test\mes documents\source\virtuos_v17\build\program\databaseserver\secretroomdbmng.cpp
CONST	ENDS
;	COMDAT ?InsertLineUpMemberToDB@CSecretRoomDbController@@AAEXEKAAV?$vector@KV?$allocator@K@std@@@std@@@Z
_TEXT	SEGMENT
$T201889 = -40972					; size = 4
_szQuery$ = -40968					; size = 40960
__$ArrayPad$ = -4					; size = 4
__$ReturnAddr$ = 4					; size = 4
_nContinent$ = 8					; size = 1
_dwGuildId$ = 12					; size = 4
_vecMemberId$ = 16					; size = 4
?InsertLineUpMemberToDB@CSecretRoomDbController@@AAEXEKAAV?$vector@KV?$allocator@K@std@@@std@@@Z PROC NEAR ; CSecretRoomDbController::InsertLineUpMemberToDB, COMDAT
; _this$ = ecx

; 190  : {

  00000	55		 push	 ebp
  00001	8b ec		 mov	 ebp, esp
  00003	83 e4 f8	 and	 esp, -8			; fffffff8H
  00006	b8 0c a0 00 00	 mov	 eax, 40972		; 0000a00cH
  0000b	e8 00 00 00 00	 call	 __chkstk
  00010	a1 00 00 00 00	 mov	 eax, DWORD PTR ___security_cookie
  00015	33 c5		 xor	 eax, ebp
  00017	53		 push	 ebx
  00018	89 84 24 0c a0
	00 00		 mov	 DWORD PTR __$ArrayPad$[esp+40976], eax
  0001f	8b 45 10	 mov	 eax, DWORD PTR _vecMemberId$[ebp]
  00022	56		 push	 esi
  00023	57		 push	 edi
  00024	8b f1		 mov	 esi, ecx

; 191  : 	CQuery* pQuery = GetQueryObject();
; 192  : 	char szQuery[QUERY_SIZE] = {0,};
; 193  : 
; 194  : 	//     ...
; 195  : 	sprintf( szQuery, "SECRET_ROOM_MEMBER_STR 'D1', '%02d', %d, %d, '%06d', '0'",
; 196  : 		g_appInfo.dwSys, m_nTimes, nContinent, dwGuildId );

  00026	8b 56 14	 mov	 edx, DWORD PTR [esi+20]

; 197  : 	if( pQuery->Exec( szQuery ) == FALSE )
; 198  : 	{ WriteLog( "%s, %d\t%s", __FILE__, __LINE__, szQuery ); return; }
; 199  : 
; 200  : 	//    Insert
; 201  : 	for( DWORD i=0; i<vecMemberId.size(); i++ )

  00029	89 44 24 0c	 mov	 DWORD PTR $T201889[esp+40984], eax
  0002d	8b 5e 0c	 mov	 ebx, DWORD PTR [esi+12]
  00030	33 c0		 xor	 eax, eax
  00032	c6 44 24 10 00	 mov	 BYTE PTR _szQuery$[esp+40984], 0
  00037	b9 ff 27 00 00	 mov	 ecx, 10239		; 000027ffH
  0003c	8d 7c 24 11	 lea	 edi, DWORD PTR _szQuery$[esp+40985]
  00040	f3 ab		 rep stosd
  00042	8b 4d 0c	 mov	 ecx, DWORD PTR _dwGuildId$[ebp]
  00045	66 ab		 stosw
  00047	51		 push	 ecx
  00048	aa		 stosb
  00049	0f b6 45 08	 movzx	 eax, BYTE PTR _nContinent$[ebp]
  0004d	50		 push	 eax
  0004e	a1 00 00 00 00	 mov	 eax, DWORD PTR ?g_appInfo@@3UAppInfo@@A
  00053	52		 push	 edx
  00054	50		 push	 eax
  00055	8d 4c 24 20	 lea	 ecx, DWORD PTR _szQuery$[esp+41000]
  00059	68 00 00 00 00	 push	 OFFSET FLAT:??_C@_0DJ@KCPMHBBH@SECRET_ROOM_MEMBER_STR?5?8D1?8?0?5?8?$CF0@
  0005e	51		 push	 ecx
  0005f	e8 00 00 00 00	 call	 _sprintf
  00064	83 c4 18	 add	 esp, 24			; 00000018H
  00067	8d 54 24 10	 lea	 edx, DWORD PTR _szQuery$[esp+40984]
  0006b	52		 push	 edx
  0006c	8b cb		 mov	 ecx, ebx
  0006e	e8 00 00 00 00	 call	 ?Exec@CQuery@@QAEHPBD@Z	; CQuery::Exec
  00073	85 c0		 test	 eax, eax
  00075	75 0c		 jne	 SHORT $L198237
  00077	8d 44 24 10	 lea	 eax, DWORD PTR _szQuery$[esp+40984]
  0007b	50		 push	 eax
  0007c	68 c6 00 00 00	 push	 198			; 000000c6H
  00081	eb 60		 jmp	 SHORT $L201894
$L198237:
  00083	33 ff		 xor	 edi, edi
$L198239:
  00085	8b 44 24 0c	 mov	 eax, DWORD PTR $T201889[esp+40984]
  00089	8b 48 04	 mov	 ecx, DWORD PTR [eax+4]
  0008c	85 c9		 test	 ecx, ecx
  0008e	74 65		 je	 SHORT $L198241
  00090	8b 40 08	 mov	 eax, DWORD PTR [eax+8]
  00093	2b c1		 sub	 eax, ecx
  00095	c1 f8 02	 sar	 eax, 2
  00098	3b f8		 cmp	 edi, eax
  0009a	73 59		 jae	 SHORT $L198241

; 202  : 	{
; 203  : 		sprintf( szQuery, "SECRET_ROOM_MEMBER_STR 'I1', '%02d', %d, %d, '%06d', '%07d'",
; 204  : 			g_appInfo.dwSys, m_nTimes, nContinent, dwGuildId, vecMemberId[i] );

  0009c	8b 0c b9	 mov	 ecx, DWORD PTR [ecx+edi*4]
  0009f	8b 55 0c	 mov	 edx, DWORD PTR _dwGuildId$[ebp]
  000a2	0f b6 45 08	 movzx	 eax, BYTE PTR _nContinent$[ebp]
  000a6	51		 push	 ecx
  000a7	8b 0d 00 00 00
	00		 mov	 ecx, DWORD PTR ?g_appInfo@@3UAppInfo@@A
  000ad	52		 push	 edx
  000ae	50		 push	 eax
  000af	8b 46 14	 mov	 eax, DWORD PTR [esi+20]
  000b2	50		 push	 eax
  000b3	51		 push	 ecx
  000b4	8d 54 24 24	 lea	 edx, DWORD PTR _szQuery$[esp+41004]
  000b8	68 00 00 00 00	 push	 OFFSET FLAT:??_C@_0DM@DPPKLHMA@SECRET_ROOM_MEMBER_STR?5?8I1?8?0?5?8?$CF0@
  000bd	52		 push	 edx
  000be	e8 00 00 00 00	 call	 _sprintf
  000c3	83 c4 1c	 add	 esp, 28			; 0000001cH

; 205  : 		if( pQuery->Exec( szQuery ) == FALSE )

  000c6	8d 44 24 10	 lea	 eax, DWORD PTR _szQuery$[esp+40984]
  000ca	50		 push	 eax
  000cb	8b cb		 mov	 ecx, ebx
  000cd	e8 00 00 00 00	 call	 ?Exec@CQuery@@QAEHPBD@Z	; CQuery::Exec
  000d2	85 c0		 test	 eax, eax
  000d4	74 03		 je	 SHORT $L201891

; 197  : 	if( pQuery->Exec( szQuery ) == FALSE )
; 198  : 	{ WriteLog( "%s, %d\t%s", __FILE__, __LINE__, szQuery ); return; }
; 199  : 
; 200  : 	//    Insert
; 201  : 	for( DWORD i=0; i<vecMemberId.size(); i++ )

  000d6	47		 inc	 edi
  000d7	eb ac		 jmp	 SHORT $L198239
$L201891:

; 206  : 		{ WriteLog( "%s, %d\t%s", __FILE__, __LINE__, szQuery ); return; }

  000d9	8d 4c 24 10	 lea	 ecx, DWORD PTR _szQuery$[esp+40984]
  000dd	51		 push	 ecx
  000de	68 ce 00 00 00	 push	 206			; 000000ceH
$L201894:
  000e3	68 00 00 00 00	 push	 OFFSET FLAT:??_C@_0BG@NIIAKECF@?4?2SecretRoomDBMng?4cpp?$AA@
  000e8	68 00 00 00 00	 push	 OFFSET FLAT:??_C@_09GBAEEKDE@?$CFs?0?5?$CFd?7?$CFs?$AA@
  000ed	e8 00 00 00 00	 call	 ?WriteLog@@YAXPBDZZ	; WriteLog
  000f2	83 c4 10	 add	 esp, 16			; 00000010H
$L198241:

; 207  : 	}
; 208  : }

  000f5	8b 8c 24 14 a0
	00 00		 mov	 ecx, DWORD PTR __$ArrayPad$[esp+40984]
  000fc	5f		 pop	 edi
  000fd	5e		 pop	 esi
  000fe	33 cd		 xor	 ecx, ebp
  00100	5b		 pop	 ebx
  00101	e8 00 00 00 00	 call	 @__security_check_cookie@4
  00106	8b e5		 mov	 esp, ebp
  00108	5d		 pop	 ebp
  00109	c2 0c 00	 ret	 12			; 0000000cH
?InsertLineUpMemberToDB@CSecretRoomDbController@@AAEXEKAAV?$vector@KV?$allocator@K@std@@@std@@@Z ENDP ; CSecretRoomDbController::InsertLineUpMemberToDB
_TEXT	ENDS
PUBLIC	??1?$vector@HV?$allocator@H@std@@@std@@QAE@XZ	; std::vector<int,std::allocator<int> >::~vector<int,std::allocator<int> >
; Function compile flags: /Ogty
; File c:\program files\microsoft visual studio .net 2003\vc7\include\vector
;	COMDAT ??1?$vector@HV?$allocator@H@std@@@std@@QAE@XZ
_TEXT	SEGMENT
??1?$vector@HV?$allocator@H@std@@@std@@QAE@XZ PROC NEAR	; std::vector<int,std::allocator<int> >::~vector<int,std::allocator<int> >, COMDAT
; _this$ = ecx

; 387  : 		{	// destroy the object

  00000	56		 push	 esi
  00001	8b f1		 mov	 esi, ecx

; 388  : 		_Tidy();

  00003	8b 46 04	 mov	 eax, DWORD PTR [esi+4]
  00006	85 c0		 test	 eax, eax
  00008	74 09		 je	 SHORT $L201904
  0000a	50		 push	 eax
  0000b	e8 00 00 00 00	 call	 ??3@YAXPAX@Z		; operator delete
  00010	83 c4 04	 add	 esp, 4
$L201904:
  00013	c7 46 04 00 00
	00 00		 mov	 DWORD PTR [esi+4], 0
  0001a	c7 46 08 00 00
	00 00		 mov	 DWORD PTR [esi+8], 0
  00021	c7 46 0c 00 00
	00 00		 mov	 DWORD PTR [esi+12], 0
  00028	5e		 pop	 esi

; 389  : 		}

  00029	c3		 ret	 0
??1?$vector@HV?$allocator@H@std@@@std@@QAE@XZ ENDP	; std::vector<int,std::allocator<int> >::~vector<int,std::allocator<int> >
_TEXT	ENDS
PUBLIC	??1?$vector@EV?$allocator@E@std@@@std@@QAE@XZ	; std::vector<unsigned char,std::allocator<unsigned char> >::~vector<unsigned char,std::allocator<unsigned char> >
; Function compile flags: /Ogty
;	COMDAT ??1?$vector@EV?$allocator@E@std@@@std@@QAE@XZ
_TEXT	SEGMENT
??1?$vector@EV?$allocator@E@std@@@std@@QAE@XZ PROC NEAR	; std::vector<unsigned char,std::allocator<unsigned char> >::~vector<unsigned char,std::allocator<unsigned char> >, COMDAT
; _this$ = ecx

; 387  : 		{	// destroy the object

  00000	56		 push	 esi
  00001	8b f1		 mov	 esi, ecx

; 388  : 		_Tidy();

  00003	8b 46 04	 mov	 eax, DWORD PTR [esi+4]
  00006	85 c0		 test	 eax, eax
  00008	74 09		 je	 SHORT $L201917
  0000a	50		 push	 eax
  0000b	e8 00 00 00 00	 call	 ??3@YAXPAX@Z		; operator delete
  00010	83 c4 04	 add	 esp, 4
$L201917:
  00013	c7 46 04 00 00
	00 00		 mov	 DWORD PTR [esi+4], 0
  0001a	c7 46 08 00 00
	00 00		 mov	 DWORD PTR [esi+8], 0
  00021	c7 46 0c 00 00
	00 00		 mov	 DWORD PTR [esi+12], 0
  00028	5e		 pop	 esi

; 389  : 		}

  00029	c3		 ret	 0
??1?$vector@EV?$allocator@E@std@@@std@@QAE@XZ ENDP	; std::vector<unsigned char,std::allocator<unsigned char> >::~vector<unsigned char,std::allocator<unsigned char> >
_TEXT	ENDS
PUBLIC	??_7logic_error@std@@6B@			; std::logic_error::`vftable'
PUBLIC	??_Glogic_error@std@@UAEPAXI@Z			; std::logic_error::`scalar deleting destructor'
PUBLIC	??1logic_error@std@@UAE@XZ			; std::logic_error::~logic_error
PUBLIC	?what@logic_error@std@@UBEPBDXZ			; std::logic_error::what
EXTRN	??_Elogic_error@std@@UAEPAXI@Z:NEAR		; std::logic_error::`vector deleting destructor'
EXTRN	??1exception@@UAE@XZ:NEAR			; exception::~exception
;	COMDAT ??_7logic_error@std@@6B@
; File c:\program files\microsoft visual studio .net 2003\vc7\include\iosfwd
CONST	SEGMENT
??_7logic_error@std@@6B@ DD FLAT:??_Elogic_error@std@@UAEPAXI@Z ; std::logic_error::`vftable'
	DD	FLAT:?what@logic_error@std@@UBEPBDXZ
; Function compile flags: /Ogty
; File c:\program files\microsoft visual studio .net 2003\vc7\include\stdexcept
CONST	ENDS
;	COMDAT ??1logic_error@std@@UAE@XZ
_TEXT	SEGMENT
??1logic_error@std@@UAE@XZ PROC NEAR			; std::logic_error::~logic_error, COMDAT
; _this$ = ecx

; 23   : 		{}	// destroy the object

  00000	56		 push	 esi
  00001	8b f1		 mov	 esi, ecx
  00003	c7 06 00 00 00
	00		 mov	 DWORD PTR [esi], OFFSET FLAT:??_7logic_error@std@@6B@
  00009	83 7e 24 10	 cmp	 DWORD PTR [esi+36], 16	; 00000010H
  0000d	72 0c		 jb	 SHORT $L201986
  0000f	8b 46 10	 mov	 eax, DWORD PTR [esi+16]
  00012	50		 push	 eax
  00013	e8 00 00 00 00	 call	 ??3@YAXPAX@Z		; operator delete
  00018	83 c4 04	 add	 esp, 4
$L201986:
  0001b	33 c0		 xor	 eax, eax
  0001d	c7 46 24 0f 00
	00 00		 mov	 DWORD PTR [esi+36], 15	; 0000000fH
  00024	89 46 20	 mov	 DWORD PTR [esi+32], eax
  00027	88 46 10	 mov	 BYTE PTR [esi+16], al
  0002a	8b ce		 mov	 ecx, esi
  0002c	5e		 pop	 esi
  0002d	e9 00 00 00 00	 jmp	 ??1exception@@UAE@XZ	; exception::~exception
??1logic_error@std@@UAE@XZ ENDP				; std::logic_error::~logic_error
; Function compile flags: /Ogty
_TEXT	ENDS
;	COMDAT ?what@logic_error@std@@UBEPBDXZ
_TEXT	SEGMENT
?what@logic_error@std@@UBEPBDXZ PROC NEAR		; std::logic_error::what, COMDAT
; _this$ = ecx

; 27   : 		return (_Str.c_str());

  00000	83 79 24 10	 cmp	 DWORD PTR [ecx+36], 16	; 00000010H
  00004	72 04		 jb	 SHORT $L202012
  00006	8b 41 10	 mov	 eax, DWORD PTR [ecx+16]

; 28   : 		}

  00009	c3		 ret	 0

; 27   : 		return (_Str.c_str());

$L202012:
  0000a	8d 41 10	 lea	 eax, DWORD PTR [ecx+16]

; 28   : 		}

  0000d	c3		 ret	 0
?what@logic_error@std@@UBEPBDXZ ENDP			; std::logic_error::what
; Function compile flags: /Ogty
_TEXT	ENDS
;	COMDAT ??_Glogic_error@std@@UAEPAXI@Z
_TEXT	SEGMENT
___flags$ = 8						; size = 4
??_Glogic_error@std@@UAEPAXI@Z PROC NEAR		; std::logic_error::`scalar deleting destructor', COMDAT
; _this$ = ecx
  00000	56		 push	 esi
  00001	8b f1		 mov	 esi, ecx
  00003	e8 00 00 00 00	 call	 ??1logic_error@std@@UAE@XZ ; std::logic_error::~logic_error
  00008	f6 44 24 08 01	 test	 BYTE PTR ___flags$[esp], 1
  0000d	74 09		 je	 SHORT $L202018
  0000f	56		 push	 esi
  00010	e8 00 00 00 00	 call	 ??3@YAXPAX@Z		; operator delete
  00015	83 c4 04	 add	 esp, 4
$L202018:
  00018	8b c6		 mov	 eax, esi
  0001a	5e		 pop	 esi
  0001b	c2 04 00	 ret	 4
??_Glogic_error@std@@UAEPAXI@Z ENDP			; std::logic_error::`scalar deleting destructor'
_TEXT	ENDS
PUBLIC	?assign@?$basic_string@DU?$char_traits@D@std@@V?$allocator@D@2@@std@@QAEAAV12@ABV12@II@Z ; std::basic_string<char,std::char_traits<char>,std::allocator<char> >::assign
; Function compile flags: /Ogty
; File c:\program files\microsoft visual studio .net 2003\vc7\include\xstring
;	COMDAT ?assign@?$basic_string@DU?$char_traits@D@std@@V?$allocator@D@2@@std@@QAEAAV12@ABV12@II@Z
_TEXT	SEGMENT
__Right$ = 8						; size = 4
__Roff$ = 12						; size = 4
__Count$ = 16						; size = 4
?assign@?$basic_string@DU?$char_traits@D@std@@V?$allocator@D@2@@std@@QAEAAV12@ABV12@II@Z PROC NEAR ; std::basic_string<char,std::char_traits<char>,std::allocator<char> >::assign, COMDAT
; _this$ = ecx

; 590  : 		{	// assign _Right [_Roff, _Roff + _Count)

  00000	53		 push	 ebx
  00001	55		 push	 ebp
  00002	56		 push	 esi

; 591  : 		if (_Right.size() < _Roff)

  00003	8b 74 24 14	 mov	 esi, DWORD PTR __Roff$[esp+8]
  00007	57		 push	 edi
  00008	8b 7c 24 14	 mov	 edi, DWORD PTR __Right$[esp+12]
  0000c	39 77 14	 cmp	 DWORD PTR [edi+20], esi
  0000f	8b d9		 mov	 ebx, ecx
  00011	73 05		 jae	 SHORT $L184271

; 592  : 			_String_base::_Xran();	// _Roff off end

  00013	e8 00 00 00 00	 call	 ?_Xran@_String_base@std@@QBEXXZ ; std::_String_base::_Xran
$L184271:

; 593  : 		size_type _Num = _Right.size() - _Roff;

  00018	8b 6f 14	 mov	 ebp, DWORD PTR [edi+20]

; 594  : 		if (_Count < _Num)

  0001b	8b 44 24 1c	 mov	 eax, DWORD PTR __Count$[esp+12]
  0001f	2b ee		 sub	 ebp, esi
  00021	3b c5		 cmp	 eax, ebp
  00023	73 02		 jae	 SHORT $L184273

; 595  : 			_Num = _Count;	// trim _Num to size

  00025	8b e8		 mov	 ebp, eax
$L184273:

; 596  : 
; 597  : 		if (this == &_Right)

  00027	3b df		 cmp	 ebx, edi
  00029	75 1f		 jne	 SHORT $L184274

; 598  : 			erase((size_type)(_Roff + _Num)), erase(0, _Roff);	// substring

  0002b	6a ff		 push	 -1
  0002d	03 ee		 add	 ebp, esi
  0002f	55		 push	 ebp
  00030	8b cb		 mov	 ecx, ebx
  00032	e8 00 00 00 00	 call	 ?erase@?$basic_string@DU?$char_traits@D@std@@V?$allocator@D@2@@std@@QAEAAV12@II@Z ; std::basic_string<char,std::char_traits<char>,std::allocator<char> >::erase
  00037	56		 push	 esi
  00038	6a 00		 push	 0
  0003a	8b cb		 mov	 ecx, ebx
  0003c	e8 00 00 00 00	 call	 ?erase@?$basic_string@DU?$char_traits@D@std@@V?$allocator@D@2@@std@@QAEAAV12@II@Z ; std::basic_string<char,std::char_traits<char>,std::allocator<char> >::erase
  00041	5f		 pop	 edi
  00042	5e		 pop	 esi
  00043	5d		 pop	 ebp

; 603  : 			}
; 604  : 		return (*this);

  00044	8b c3		 mov	 eax, ebx
  00046	5b		 pop	 ebx

; 605  : 		}

  00047	c2 0c 00	 ret	 12			; 0000000cH
$L184274:

; 599  : 		else if (_Grow(_Num))

  0004a	83 fd fe	 cmp	 ebp, -2			; fffffffeH
  0004d	76 07		 jbe	 SHORT $L202168
  0004f	8b cb		 mov	 ecx, ebx
  00051	e8 00 00 00 00	 call	 ?_Xlen@_String_base@std@@QBEXXZ ; std::_String_base::_Xlen
$L202168:
  00056	8b 43 18	 mov	 eax, DWORD PTR [ebx+24]
  00059	3b c5		 cmp	 eax, ebp
  0005b	73 21		 jae	 SHORT $L202169
  0005d	8b 43 14	 mov	 eax, DWORD PTR [ebx+20]
  00060	50		 push	 eax
  00061	55		 push	 ebp
  00062	8b cb		 mov	 ecx, ebx
  00064	e8 00 00 00 00	 call	 ?_Copy@?$basic_string@DU?$char_traits@D@std@@V?$allocator@D@2@@std@@IAEXII@Z ; std::basic_string<char,std::char_traits<char>,std::allocator<char> >::_Copy
  00069	85 ed		 test	 ebp, ebp
$L202214:
  0006b	76 6d		 jbe	 SHORT $L202213

; 600  : 			{	// make room and assign new stuff
; 601  : 			_Traits::copy(_Myptr(), _Right._Myptr() + _Roff, _Num);

  0006d	8b 4f 18	 mov	 ecx, DWORD PTR [edi+24]
  00070	b8 10 00 00 00	 mov	 eax, 16			; 00000010H
  00075	3b c8		 cmp	 ecx, eax
  00077	72 2f		 jb	 SHORT $L202179
  00079	8b 57 04	 mov	 edx, DWORD PTR [edi+4]
  0007c	eb 2d		 jmp	 SHORT $L202180

; 599  : 		else if (_Grow(_Num))

$L202169:
  0007e	85 ed		 test	 ebp, ebp
  00080	75 e9		 jne	 SHORT $L202214
  00082	83 f8 10	 cmp	 eax, 16			; 00000010H
  00085	89 6b 14	 mov	 DWORD PTR [ebx+20], ebp
  00088	72 0f		 jb	 SHORT $L202161
  0008a	8b 43 04	 mov	 eax, DWORD PTR [ebx+4]
  0008d	5f		 pop	 edi
  0008e	5e		 pop	 esi
  0008f	c6 00 00	 mov	 BYTE PTR [eax], 0
  00092	5d		 pop	 ebp

; 603  : 			}
; 604  : 		return (*this);

  00093	8b c3		 mov	 eax, ebx
  00095	5b		 pop	 ebx

; 605  : 		}

  00096	c2 0c 00	 ret	 12			; 0000000cH

; 599  : 		else if (_Grow(_Num))

$L202161:
  00099	5f		 pop	 edi
  0009a	8d 43 04	 lea	 eax, DWORD PTR [ebx+4]
  0009d	5e		 pop	 esi
  0009e	c6 00 00	 mov	 BYTE PTR [eax], 0
  000a1	5d		 pop	 ebp

; 603  : 			}
; 604  : 		return (*this);

  000a2	8b c3		 mov	 eax, ebx
  000a4	5b		 pop	 ebx

; 605  : 		}

  000a5	c2 0c 00	 ret	 12			; 0000000cH

; 600  : 			{	// make room and assign new stuff
; 601  : 			_Traits::copy(_Myptr(), _Right._Myptr() + _Roff, _Num);

$L202179:
  000a8	8d 57 04	 lea	 edx, DWORD PTR [edi+4]
$L202180:
  000ab	39 43 18	 cmp	 DWORD PTR [ebx+24], eax
  000ae	8d 43 04	 lea	 eax, DWORD PTR [ebx+4]
  000b1	72 04		 jb	 SHORT $L202185
  000b3	8b 38		 mov	 edi, DWORD PTR [eax]
  000b5	eb 02		 jmp	 SHORT $L202186
$L202185:
  000b7	8b f8		 mov	 edi, eax
$L202186:
  000b9	03 f2		 add	 esi, edx
  000bb	8b cd		 mov	 ecx, ebp
  000bd	8b d1		 mov	 edx, ecx
  000bf	c1 e9 02	 shr	 ecx, 2
  000c2	f3 a5		 rep movsd
  000c4	8b ca		 mov	 ecx, edx
  000c6	83 e1 03	 and	 ecx, 3
  000c9	f3 a4		 rep movsb

; 602  : 			_Eos(_Num);

  000cb	83 7b 18 10	 cmp	 DWORD PTR [ebx+24], 16	; 00000010H
  000cf	89 6b 14	 mov	 DWORD PTR [ebx+20], ebp
  000d2	72 02		 jb	 SHORT $L202208
  000d4	8b 00		 mov	 eax, DWORD PTR [eax]
$L202208:
  000d6	c6 04 28 00	 mov	 BYTE PTR [eax+ebp], 0
$L202213:
  000da	5f		 pop	 edi
  000db	5e		 pop	 esi
  000dc	5d		 pop	 ebp

; 603  : 			}
; 604  : 		return (*this);

  000dd	8b c3		 mov	 eax, ebx
  000df	5b		 pop	 ebx

; 605  : 		}

  000e0	c2 0c 00	 ret	 12			; 0000000cH
?assign@?$basic_string@DU?$char_traits@D@std@@V?$allocator@D@2@@std@@QAEAAV12@ABV12@II@Z ENDP ; std::basic_string<char,std::char_traits<char>,std::allocator<char> >::assign
_TEXT	ENDS
PUBLIC	?assign@?$basic_string@DU?$char_traits@D@std@@V?$allocator@D@2@@std@@QAEAAV12@PBDI@Z ; std::basic_string<char,std::char_traits<char>,std::allocator<char> >::assign
; Function compile flags: /Ogty
;	COMDAT ?assign@?$basic_string@DU?$char_traits@D@std@@V?$allocator@D@2@@std@@QAEAAV12@PBDI@Z
_TEXT	SEGMENT
__Ptr$ = 8						; size = 4
__Num$ = 12						; size = 4
?assign@?$basic_string@DU?$char_traits@D@std@@V?$allocator@D@2@@std@@QAEAAV12@PBDI@Z PROC NEAR ; std::basic_string<char,std::char_traits<char>,std::allocator<char> >::assign, COMDAT
; _this$ = ecx

; 608  : 		{	// assign [_Ptr, _Ptr + _Num)

  00000	53		 push	 ebx
  00001	8b d9		 mov	 ebx, ecx

; 609  : 		if (_Inside(_Ptr))

  00003	8b 53 18	 mov	 edx, DWORD PTR [ebx+24]
  00006	83 fa 10	 cmp	 edx, 16			; 00000010H
  00009	56		 push	 esi
  0000a	57		 push	 edi
  0000b	72 05		 jb	 SHORT $L202238
  0000d	8b 43 04	 mov	 eax, DWORD PTR [ebx+4]
  00010	eb 03		 jmp	 SHORT $L202239
$L202238:
  00012	8d 43 04	 lea	 eax, DWORD PTR [ebx+4]
$L202239:
  00015	8b 74 24 10	 mov	 esi, DWORD PTR __Ptr$[esp+8]
  00019	3b f0		 cmp	 esi, eax
  0001b	72 34		 jb	 SHORT $L184989
  0001d	83 fa 10	 cmp	 edx, 16			; 00000010H
  00020	8d 43 04	 lea	 eax, DWORD PTR [ebx+4]
  00023	72 04		 jb	 SHORT $L202242
  00025	8b 08		 mov	 ecx, DWORD PTR [eax]
  00027	eb 02		 jmp	 SHORT $L202243
$L202242:
  00029	8b c8		 mov	 ecx, eax
$L202243:
  0002b	8b 7b 14	 mov	 edi, DWORD PTR [ebx+20]
  0002e	03 f9		 add	 edi, ecx
  00030	3b fe		 cmp	 edi, esi
  00032	76 1d		 jbe	 SHORT $L184989

; 610  : 			return (assign(*this, _Ptr - _Myptr(), _Num));	// substring

  00034	83 fa 10	 cmp	 edx, 16			; 00000010H
  00037	72 02		 jb	 SHORT $L202251
  00039	8b 00		 mov	 eax, DWORD PTR [eax]
$L202251:
  0003b	8b 4c 24 14	 mov	 ecx, DWORD PTR __Num$[esp+8]
  0003f	51		 push	 ecx
  00040	2b f0		 sub	 esi, eax
  00042	56		 push	 esi
  00043	53		 push	 ebx
  00044	8b cb		 mov	 ecx, ebx
  00046	e8 00 00 00 00	 call	 ?assign@?$basic_string@DU?$char_traits@D@std@@V?$allocator@D@2@@std@@QAEAAV12@ABV12@II@Z ; std::basic_string<char,std::char_traits<char>,std::allocator<char> >::assign
  0004b	5f		 pop	 edi
  0004c	5e		 pop	 esi
  0004d	5b		 pop	 ebx

; 618  : 		}

  0004e	c2 08 00	 ret	 8
$L184989:
  00051	55		 push	 ebp

; 611  : 
; 612  : 		if (_Grow(_Num))

  00052	8b 6c 24 18	 mov	 ebp, DWORD PTR __Num$[esp+12]
  00056	83 fd fe	 cmp	 ebp, -2			; fffffffeH
  00059	76 07		 jbe	 SHORT $L202392
  0005b	8b cb		 mov	 ecx, ebx
  0005d	e8 00 00 00 00	 call	 ?_Xlen@_String_base@std@@QBEXXZ ; std::_String_base::_Xlen
$L202392:
  00062	8b 43 18	 mov	 eax, DWORD PTR [ebx+24]
  00065	3b c5		 cmp	 eax, ebp
  00067	73 1b		 jae	 SHORT $L202393
  00069	8b 53 14	 mov	 edx, DWORD PTR [ebx+20]
  0006c	52		 push	 edx
  0006d	55		 push	 ebp
  0006e	8b cb		 mov	 ecx, ebx
  00070	e8 00 00 00 00	 call	 ?_Copy@?$basic_string@DU?$char_traits@D@std@@V?$allocator@D@2@@std@@IAEXII@Z ; std::basic_string<char,std::char_traits<char>,std::allocator<char> >::_Copy
  00075	85 ed		 test	 ebp, ebp
$L202431:
  00077	76 68		 jbe	 SHORT $L202429

; 613  : 			{	// make room and assign new stuff
; 614  : 			_Traits::copy(_Myptr(), _Ptr, _Num);

  00079	83 7b 18 10	 cmp	 DWORD PTR [ebx+24], 16	; 00000010H
  0007d	72 2f		 jb	 SHORT $L202402
  0007f	8b 7b 04	 mov	 edi, DWORD PTR [ebx+4]
  00082	eb 2d		 jmp	 SHORT $L202403

; 611  : 
; 612  : 		if (_Grow(_Num))

$L202393:
  00084	85 ed		 test	 ebp, ebp
  00086	75 ef		 jne	 SHORT $L202431
  00088	83 f8 10	 cmp	 eax, 16			; 00000010H
  0008b	89 6b 14	 mov	 DWORD PTR [ebx+20], ebp
  0008e	72 0f		 jb	 SHORT $L202385
  00090	8b 43 04	 mov	 eax, DWORD PTR [ebx+4]
  00093	5d		 pop	 ebp
  00094	5f		 pop	 edi
  00095	c6 00 00	 mov	 BYTE PTR [eax], 0
  00098	5e		 pop	 esi

; 616  : 			}
; 617  : 		return (*this);

  00099	8b c3		 mov	 eax, ebx
  0009b	5b		 pop	 ebx

; 618  : 		}

  0009c	c2 08 00	 ret	 8

; 611  : 
; 612  : 		if (_Grow(_Num))

$L202385:
  0009f	5d		 pop	 ebp
  000a0	8d 43 04	 lea	 eax, DWORD PTR [ebx+4]
  000a3	5f		 pop	 edi
  000a4	c6 00 00	 mov	 BYTE PTR [eax], 0
  000a7	5e		 pop	 esi

; 616  : 			}
; 617  : 		return (*this);

  000a8	8b c3		 mov	 eax, ebx
  000aa	5b		 pop	 ebx

; 618  : 		}

  000ab	c2 08 00	 ret	 8

; 613  : 			{	// make room and assign new stuff
; 614  : 			_Traits::copy(_Myptr(), _Ptr, _Num);

$L202402:
  000ae	8d 7b 04	 lea	 edi, DWORD PTR [ebx+4]
$L202403:
  000b1	8b cd		 mov	 ecx, ebp
  000b3	8b c1		 mov	 eax, ecx
  000b5	c1 e9 02	 shr	 ecx, 2
  000b8	f3 a5		 rep movsd
  000ba	8b c8		 mov	 ecx, eax
  000bc	83 e1 03	 and	 ecx, 3
  000bf	f3 a4		 rep movsb

; 615  : 			_Eos(_Num);

  000c1	83 7b 18 10	 cmp	 DWORD PTR [ebx+24], 16	; 00000010H
  000c5	89 6b 14	 mov	 DWORD PTR [ebx+20], ebp
  000c8	72 10		 jb	 SHORT $L202425
  000ca	8b 43 04	 mov	 eax, DWORD PTR [ebx+4]
  000cd	c6 04 28 00	 mov	 BYTE PTR [eax+ebp], 0
  000d1	5d		 pop	 ebp
  000d2	5f		 pop	 edi
  000d3	5e		 pop	 esi

; 616  : 			}
; 617  : 		return (*this);

  000d4	8b c3		 mov	 eax, ebx
  000d6	5b		 pop	 ebx

; 618  : 		}

  000d7	c2 08 00	 ret	 8

; 615  : 			_Eos(_Num);

$L202425:
  000da	8d 43 04	 lea	 eax, DWORD PTR [ebx+4]
  000dd	c6 04 28 00	 mov	 BYTE PTR [eax+ebp], 0
$L202429:
  000e1	5d		 pop	 ebp
  000e2	5f		 pop	 edi
  000e3	5e		 pop	 esi

; 616  : 			}
; 617  : 		return (*this);

  000e4	8b c3		 mov	 eax, ebx
  000e6	5b		 pop	 ebx

; 618  : 		}

  000e7	c2 08 00	 ret	 8
?assign@?$basic_string@DU?$char_traits@D@std@@V?$allocator@D@2@@std@@QAEAAV12@PBDI@Z ENDP ; std::basic_string<char,std::char_traits<char>,std::allocator<char> >::assign
_TEXT	ENDS
PUBLIC	??0?$basic_string@DU?$char_traits@D@std@@V?$allocator@D@2@@std@@QAE@ABV01@@Z ; std::basic_string<char,std::char_traits<char>,std::allocator<char> >::basic_string<char,std::char_traits<char>,std::allocator<char> >
; Function compile flags: /Ogty
;	COMDAT ??0?$basic_string@DU?$char_traits@D@std@@V?$allocator@D@2@@std@@QAE@ABV01@@Z
_TEXT	SEGMENT
__Right$ = 8						; size = 4
??0?$basic_string@DU?$char_traits@D@std@@V?$allocator@D@2@@std@@QAE@ABV01@@Z PROC NEAR ; std::basic_string<char,std::char_traits<char>,std::allocator<char> >::basic_string<char,std::char_traits<char>,std::allocator<char> >, COMDAT
; _this$ = ecx

; 323  : 		{	// construct by copying _Right

  00000	56		 push	 esi

; 324  : 		_Tidy();

  00001	33 c0		 xor	 eax, eax
  00003	8b f1		 mov	 esi, ecx

; 325  : 		assign(_Right, 0, npos);

  00005	6a ff		 push	 -1
  00007	89 46 14	 mov	 DWORD PTR [esi+20], eax
  0000a	c7 46 18 0f 00
	00 00		 mov	 DWORD PTR [esi+24], 15	; 0000000fH
  00011	50		 push	 eax
  00012	88 46 04	 mov	 BYTE PTR [esi+4], al
  00015	8b 44 24 10	 mov	 eax, DWORD PTR __Right$[esp+8]
  00019	50		 push	 eax
  0001a	e8 00 00 00 00	 call	 ?assign@?$basic_string@DU?$char_traits@D@std@@V?$allocator@D@2@@std@@QAEAAV12@ABV12@II@Z ; std::basic_string<char,std::char_traits<char>,std::allocator<char> >::assign

; 326  : 		}

  0001f	8b c6		 mov	 eax, esi
  00021	5e		 pop	 esi
  00022	c2 04 00	 ret	 4
??0?$basic_string@DU?$char_traits@D@std@@V?$allocator@D@2@@std@@QAE@ABV01@@Z ENDP ; std::basic_string<char,std::char_traits<char>,std::allocator<char> >::basic_string<char,std::char_traits<char>,std::allocator<char> >
_TEXT	ENDS
PUBLIC	?assign@?$basic_string@DU?$char_traits@D@std@@V?$allocator@D@2@@std@@QAEAAV12@PBD@Z ; std::basic_string<char,std::char_traits<char>,std::allocator<char> >::assign
; Function compile flags: /Ogty
;	COMDAT ?assign@?$basic_string@DU?$char_traits@D@std@@V?$allocator@D@2@@std@@QAEAAV12@PBD@Z
_TEXT	SEGMENT
__Ptr$ = 8						; size = 4
?assign@?$basic_string@DU?$char_traits@D@std@@V?$allocator@D@2@@std@@QAEAAV12@PBD@Z PROC NEAR ; std::basic_string<char,std::char_traits<char>,std::allocator<char> >::assign, COMDAT
; _this$ = ecx

; 621  : 		{	// assign [_Ptr, <null>)

  00000	56		 push	 esi

; 622  : 		return (assign(_Ptr, _Traits::length(_Ptr)));

  00001	8b 74 24 08	 mov	 esi, DWORD PTR __Ptr$[esp]
  00005	8b c6		 mov	 eax, esi
  00007	57		 push	 edi
  00008	8d 78 01	 lea	 edi, DWORD PTR [eax+1]
  0000b	eb 03 8d 49 00	 npad	 5
$L202503:
  00010	8a 10		 mov	 dl, BYTE PTR [eax]
  00012	40		 inc	 eax
  00013	84 d2		 test	 dl, dl
  00015	75 f9		 jne	 SHORT $L202503
  00017	2b c7		 sub	 eax, edi
  00019	50		 push	 eax
  0001a	56		 push	 esi
  0001b	e8 00 00 00 00	 call	 ?assign@?$basic_string@DU?$char_traits@D@std@@V?$allocator@D@2@@std@@QAEAAV12@PBDI@Z ; std::basic_string<char,std::char_traits<char>,std::allocator<char> >::assign
  00020	5f		 pop	 edi
  00021	5e		 pop	 esi

; 623  : 		}

  00022	c2 04 00	 ret	 4
?assign@?$basic_string@DU?$char_traits@D@std@@V?$allocator@D@2@@std@@QAEAAV12@PBD@Z ENDP ; std::basic_string<char,std::char_traits<char>,std::allocator<char> >::assign
_TEXT	ENDS
PUBLIC	??0logic_error@std@@QAE@ABV?$basic_string@DU?$char_traits@D@std@@V?$allocator@D@2@@1@@Z ; std::logic_error::logic_error
EXTRN	??0exception@@QAE@XZ:NEAR			; exception::exception
;	COMDAT xdata$x
; File c:\program files\microsoft visual studio .net 2003\vc7\include\iosfwd
xdata$x	SEGMENT
$T202606 DD	0ffffffffH
	DD	FLAT:$L202506
$T202604 DD	019930520H
	DD	01H
	DD	FLAT:$T202606
	DD	2 DUP(00H)
	DD	2 DUP(00H)
; Function compile flags: /Ogty
; File c:\program files\microsoft visual studio .net 2003\vc7\include\stdexcept
xdata$x	ENDS
;	COMDAT ??0logic_error@std@@QAE@ABV?$basic_string@DU?$char_traits@D@std@@V?$allocator@D@2@@1@@Z
_TEXT	SEGMENT
_this$ = -16						; size = 4
__$EHRec$ = -12						; size = 12
__Message$ = 8						; size = 4
??0logic_error@std@@QAE@ABV?$basic_string@DU?$char_traits@D@std@@V?$allocator@D@2@@1@@Z PROC NEAR ; std::logic_error::logic_error, COMDAT
; _this$ = ecx

; 19   : 		{	// construct from message string

  00000	6a ff		 push	 -1
  00002	68 00 00 00 00	 push	 __ehhandler$??0logic_error@std@@QAE@ABV?$basic_string@DU?$char_traits@D@std@@V?$allocator@D@2@@1@@Z
  00007	64 a1 00 00 00
	00		 mov	 eax, DWORD PTR fs:__except_list
  0000d	50		 push	 eax
  0000e	64 89 25 00 00
	00 00		 mov	 DWORD PTR fs:__except_list, esp
  00015	51		 push	 ecx
  00016	56		 push	 esi
  00017	8b f1		 mov	 esi, ecx
  00019	89 74 24 04	 mov	 DWORD PTR _this$[esp+20], esi
  0001d	e8 00 00 00 00	 call	 ??0exception@@QAE@XZ	; exception::exception
  00022	33 c0		 xor	 eax, eax
  00024	8d 4e 0c	 lea	 ecx, DWORD PTR [esi+12]
  00027	c7 06 00 00 00
	00		 mov	 DWORD PTR [esi], OFFSET FLAT:??_7logic_error@std@@6B@
  0002d	6a ff		 push	 -1
  0002f	89 41 14	 mov	 DWORD PTR [ecx+20], eax
  00032	c7 41 18 0f 00
	00 00		 mov	 DWORD PTR [ecx+24], 15	; 0000000fH
  00039	50		 push	 eax
  0003a	89 44 24 18	 mov	 DWORD PTR __$EHRec$[esp+36], eax
  0003e	88 41 04	 mov	 BYTE PTR [ecx+4], al
  00041	8b 44 24 20	 mov	 eax, DWORD PTR __Message$[esp+24]
  00045	50		 push	 eax
  00046	e8 00 00 00 00	 call	 ?assign@?$basic_string@DU?$char_traits@D@std@@V?$allocator@D@2@@std@@QAEAAV12@ABV12@II@Z ; std::basic_string<char,std::char_traits<char>,std::allocator<char> >::assign

; 20   : 		}

  0004b	8b 4c 24 08	 mov	 ecx, DWORD PTR __$EHRec$[esp+20]
  0004f	8b c6		 mov	 eax, esi
  00051	5e		 pop	 esi
  00052	64 89 0d 00 00
	00 00		 mov	 DWORD PTR fs:__except_list, ecx
  00059	83 c4 10	 add	 esp, 16			; 00000010H
  0005c	c2 04 00	 ret	 4
_TEXT	ENDS
;	COMDAT text$x
text$x	SEGMENT
$L202506:
  00000	8b 4d f0	 mov	 ecx, DWORD PTR _this$[ebp]
  00003	e9 00 00 00 00	 jmp	 ??1exception@@UAE@XZ	; exception::~exception
__ehhandler$??0logic_error@std@@QAE@ABV?$basic_string@DU?$char_traits@D@std@@V?$allocator@D@2@@1@@Z:
  00008	b8 00 00 00 00	 mov	 eax, OFFSET FLAT:$T202604
  0000d	e9 00 00 00 00	 jmp	 ___CxxFrameHandler
text$x	ENDS
??0logic_error@std@@QAE@ABV?$basic_string@DU?$char_traits@D@std@@V?$allocator@D@2@@1@@Z ENDP ; std::logic_error::logic_error
PUBLIC	??0length_error@std@@QAE@ABV?$basic_string@DU?$char_traits@D@std@@V?$allocator@D@2@@1@@Z ; std::length_error::length_error
PUBLIC	??_7length_error@std@@6B@			; std::length_error::`vftable'
