; Listing generated by Microsoft (R) Optimizing Compiler Version 13.10.6030 

	TITLE	\Documents and Settings\test\Mes documents\Source\Virtuos_v17\Build\Program\_Common\spevent.cpp
	.386P
include listing.inc
if @Version gt 510
.model FLAT
else
_TEXT	SEGMENT PARA USE32 PUBLIC 'CODE'
_TEXT	ENDS
_DATA	SEGMENT DWORD USE32 PUBLIC 'DATA'
_DATA	ENDS
CONST	SEGMENT DWORD USE32 PUBLIC 'CONST'
CONST	ENDS
_BSS	SEGMENT DWORD USE32 PUBLIC 'BSS'
_BSS	ENDS
$$SYMBOLS	SEGMENT BYTE USE32 'DEBSYM'
$$SYMBOLS	ENDS
_TLS	SEGMENT DWORD USE32 PUBLIC 'TLS'
_TLS	ENDS
;	COMDAT ??_C@_05GCNIINAF@Event?$AA@
CONST	SEGMENT DWORD USE32 PUBLIC 'CONST'
CONST	ENDS
;	COMDAT ??_C@_05PABKJLOM@Title?$AA@
CONST	SEGMENT DWORD USE32 PUBLIC 'CONST'
CONST	ENDS
;	COMDAT ??_C@_01BJJEKLCA@?$CC?$AA@
CONST	SEGMENT DWORD USE32 PUBLIC 'CONST'
CONST	ENDS
;	COMDAT ??_C@_04OKOFBOPB@Time?$AA@
CONST	SEGMENT DWORD USE32 PUBLIC 'CONST'
CONST	ENDS
;	COMDAT ??_C@_04BGCMBJDA@Item?$AA@
CONST	SEGMENT DWORD USE32 PUBLIC 'CONST'
CONST	ENDS
;	COMDAT ??_C@_0L@DDJPBPFC@fExpFactor?$AA@
CONST	SEGMENT DWORD USE32 PUBLIC 'CONST'
CONST	ENDS
;	COMDAT ??_C@_0O@NDHJHAFN@fItemDropRate?$AA@
CONST	SEGMENT DWORD USE32 PUBLIC 'CONST'
CONST	ENDS
;	COMDAT ??_C@_05BEKPGMFA@Spawn?$AA@
CONST	SEGMENT DWORD USE32 PUBLIC 'CONST'
CONST	ENDS
;	COMDAT ??_C@_0DM@PNNFMCGB@m_dwFlag?$DN0x?$CF08x?0?5nId?$DN?$CFd?0?5tStart?$DN@
CONST	SEGMENT DWORD USE32 PUBLIC 'CONST'
CONST	ENDS
text$yd	SEGMENT PARA USE32 PUBLIC 'CODE'
text$yd	ENDS
xdata$x	SEGMENT DWORD USE32 PUBLIC 'CONST'
xdata$x	ENDS
;	COMDAT ??0CSPEvent@@QAE@XZ
_TEXT	SEGMENT PARA USE32 PUBLIC 'CODE'
_TEXT	ENDS
;	COMDAT ??1CSPEvent@@UAE@XZ
_TEXT	SEGMENT PARA USE32 PUBLIC 'CODE'
_TEXT	ENDS
;	COMDAT ??_GCSPEvent@@UAEPAXI@Z
_TEXT	SEGMENT PARA USE32 PUBLIC 'CODE'
_TEXT	ENDS
;	COMDAT ??0_EVENT_GENERIC@@QAE@XZ
_TEXT	SEGMENT PARA USE32 PUBLIC 'CODE'
_TEXT	ENDS
;	COMDAT ??1CEventItem@@UAE@XZ
_TEXT	SEGMENT PARA USE32 PUBLIC 'CODE'
_TEXT	ENDS
;	COMDAT ??_GCEventItem@@UAEPAXI@Z
_TEXT	SEGMENT PARA USE32 PUBLIC 'CODE'
_TEXT	ENDS
;	COMDAT ??0CXMasEvent@@QAE@XZ
_TEXT	SEGMENT PARA USE32 PUBLIC 'CODE'
_TEXT	ENDS
;	COMDAT ??_GCXMasEvent@@UAEPAXI@Z
_TEXT	SEGMENT PARA USE32 PUBLIC 'CODE'
_TEXT	ENDS
;	COMDAT ??1CXMasEvent@@UAE@XZ
_TEXT	SEGMENT PARA USE32 PUBLIC 'CODE'
_TEXT	ENDS
;	COMDAT ?IsTimeout@CXMasEvent@@QAEHH@Z
_TEXT	SEGMENT PARA USE32 PUBLIC 'CODE'
_TEXT	ENDS
;	COMDAT ?LoadScript@CXMasEvent@@QAEHPBD@Z
_TEXT	SEGMENT PARA USE32 PUBLIC 'CODE'
_TEXT	ENDS
;	COMDAT ?Skip@CXMasEvent@@QAEXJ@Z
_TEXT	SEGMENT PARA USE32 PUBLIC 'CODE'
_TEXT	ENDS
;	COMDAT ?GetInstance@CXMasEvent@@SAPAV1@XZ
_TEXT	SEGMENT PARA USE32 PUBLIC 'CODE'
_TEXT	ENDS
;	COMDAT _$E2
text$yd	SEGMENT PARA USE32 PUBLIC 'CODE'
text$yd	ENDS
;	COMDAT ??0CEventItem@@QAE@XZ
_TEXT	SEGMENT PARA USE32 PUBLIC 'CODE'
_TEXT	ENDS
;	COMDAT ??0CEventItem@@QAE@KHH@Z
_TEXT	SEGMENT PARA USE32 PUBLIC 'CODE'
_TEXT	ENDS
;	COMDAT ?IsTimeout@CEventItem@@QAEHH@Z
_TEXT	SEGMENT PARA USE32 PUBLIC 'CODE'
_TEXT	ENDS
;	COMDAT ?Skip@CEventItem@@QAEXJ@Z
_TEXT	SEGMENT PARA USE32 PUBLIC 'CODE'
_TEXT	ENDS
;	COMDAT ?Serialize@CEventItem@@QAEXAAVCAr@@@Z
_TEXT	SEGMENT PARA USE32 PUBLIC 'CODE'
_TEXT	ENDS
;	COMDAT ??0CEventGeneric@@QAE@XZ
_TEXT	SEGMENT PARA USE32 PUBLIC 'CODE'
_TEXT	ENDS
;	COMDAT ??_GCEventGeneric@@UAEPAXI@Z
_TEXT	SEGMENT PARA USE32 PUBLIC 'CODE'
_TEXT	ENDS
;	COMDAT ??1?$map@HPAV?$list@PAVCEventItem@@V?$allocator@PAVCEventItem@@@std@@@std@@U?$less@H@2@V?$allocator@U?$pair@$$CBHPAV?$list@PAVCEventItem@@V?$allocator@PAVCEventItem@@@std@@@std@@@std@@@2@@std@@QAE@XZ
_TEXT	SEGMENT PARA USE32 PUBLIC 'CODE'
_TEXT	ENDS
;	COMDAT ??1CEventGeneric@@UAE@XZ
_TEXT	SEGMENT PARA USE32 PUBLIC 'CODE'
_TEXT	ENDS
;	COMDAT ?Clear@CEventGeneric@@QAEXH@Z
_TEXT	SEGMENT PARA USE32 PUBLIC 'CODE'
_TEXT	ENDS
;	COMDAT ??_G?$list@PAVCEventItem@@V?$allocator@PAVCEventItem@@@std@@@std@@QAEPAXI@Z
_TEXT	SEGMENT PARA USE32 PUBLIC 'CODE'
_TEXT	ENDS
;	COMDAT ?LoadScript@CEventGeneric@@QAEHPBD@Z
_TEXT	SEGMENT PARA USE32 PUBLIC 'CODE'
_TEXT	ENDS
;	COMDAT ?AddItem@CEventGeneric@@QAEHHKHH@Z
_TEXT	SEGMENT PARA USE32 PUBLIC 'CODE'
_TEXT	ENDS
;	COMDAT ?GetInstance@CEventGeneric@@SAPAV1@XZ
_TEXT	SEGMENT PARA USE32 PUBLIC 'CODE'
_TEXT	ENDS
;	COMDAT _$E4
text$yd	SEGMENT PARA USE32 PUBLIC 'CODE'
text$yd	ENDS
;	COMDAT ?Serialize@CEventGeneric@@QAEXAAVCAr@@@Z
_TEXT	SEGMENT PARA USE32 PUBLIC 'CODE'
_TEXT	ENDS
;	COMDAT ?Run@CEventGeneric@@QAEHXZ
_TEXT	SEGMENT PARA USE32 PUBLIC 'CODE'
_TEXT	ENDS
;	COMDAT ?GetEvent@CEventGeneric@@QAEPAU_EVENT_GENERIC@@H@Z
_TEXT	SEGMENT PARA USE32 PUBLIC 'CODE'
_TEXT	ENDS
;	COMDAT ?Replace@?$CStringT@DV?$StrTraitMFC@DV?$ChTraitsCRT@D@ATL@@@@@ATL@@QAEHPBD0@Z
_TEXT	SEGMENT PARA USE32 PUBLIC 'CODE'
_TEXT	ENDS
;	COMDAT ??8ATL@@YA_NABV?$CStringT@DV?$StrTraitMFC@DV?$ChTraitsCRT@D@ATL@@@@@0@PBD@Z
_TEXT	SEGMENT PARA USE32 PUBLIC 'CODE'
_TEXT	ENDS
;	COMDAT ?compare@?$basic_string@DU?$char_traits@D@std@@V?$allocator@D@2@@std@@QBEHABV12@@Z
_TEXT	SEGMENT PARA USE32 PUBLIC 'CODE'
_TEXT	ENDS
;	COMDAT ??0?$list@PAU_EVENT_GENERIC@@V?$allocator@PAU_EVENT_GENERIC@@@std@@@std@@QAE@XZ
_TEXT	SEGMENT PARA USE32 PUBLIC 'CODE'
_TEXT	ENDS
;	COMDAT ??1?$list@PAU_EVENT_GENERIC@@V?$allocator@PAU_EVENT_GENERIC@@@std@@@std@@QAE@XZ
_TEXT	SEGMENT PARA USE32 PUBLIC 'CODE'
_TEXT	ENDS
;	COMDAT ?begin@?$list@PAU_EVENT_GENERIC@@V?$allocator@PAU_EVENT_GENERIC@@@std@@@std@@QAE?AViterator@12@XZ
_TEXT	SEGMENT PARA USE32 PUBLIC 'CODE'
_TEXT	ENDS
;	COMDAT ?end@?$list@PAU_EVENT_GENERIC@@V?$allocator@PAU_EVENT_GENERIC@@@std@@@std@@QAE?AViterator@12@XZ
_TEXT	SEGMENT PARA USE32 PUBLIC 'CODE'
_TEXT	ENDS
;	COMDAT ?size@?$list@PAU_EVENT_GENERIC@@V?$allocator@PAU_EVENT_GENERIC@@@std@@@std@@QBEIXZ
_TEXT	SEGMENT PARA USE32 PUBLIC 'CODE'
_TEXT	ENDS
;	COMDAT ?push_back@?$list@PAU_EVENT_GENERIC@@V?$allocator@PAU_EVENT_GENERIC@@@std@@@std@@QAEXABQAU_EVENT_GENERIC@@@Z
_TEXT	SEGMENT PARA USE32 PUBLIC 'CODE'
_TEXT	ENDS
;	COMDAT ?clear@?$list@PAU_EVENT_GENERIC@@V?$allocator@PAU_EVENT_GENERIC@@@std@@@std@@QAEXXZ
_TEXT	SEGMENT PARA USE32 PUBLIC 'CODE'
_TEXT	ENDS
;	COMDAT ??0?$map@HPAV?$list@PAVCEventItem@@V?$allocator@PAVCEventItem@@@std@@@std@@U?$less@H@2@V?$allocator@U?$pair@$$CBHPAV?$list@PAVCEventItem@@V?$allocator@PAVCEventItem@@@std@@@std@@@std@@@2@@std@@QAE@XZ
_TEXT	SEGMENT PARA USE32 PUBLIC 'CODE'
_TEXT	ENDS
;	COMDAT ??1?$_Tree@V?$_Tmap_traits@HPAV?$list@PAVCEventItem@@V?$allocator@PAVCEventItem@@@std@@@std@@U?$less@H@2@V?$allocator@U?$pair@$$CBHPAV?$list@PAVCEventItem@@V?$allocator@PAVCEventItem@@@std@@@std@@@std@@@2@$0A@@std@@@std@@QAE@XZ
_TEXT	SEGMENT PARA USE32 PUBLIC 'CODE'
_TEXT	ENDS
;	COMDAT ?begin@?$_Tree@V?$_Tmap_traits@HPAV?$list@PAVCEventItem@@V?$allocator@PAVCEventItem@@@std@@@std@@U?$less@H@2@V?$allocator@U?$pair@$$CBHPAV?$list@PAVCEventItem@@V?$allocator@PAVCEventItem@@@std@@@std@@@std@@@2@$0A@@std@@@std@@QAE?AViterator@12@XZ
_TEXT	SEGMENT PARA USE32 PUBLIC 'CODE'
_TEXT	ENDS
;	COMDAT ?end@?$_Tree@V?$_Tmap_traits@HPAV?$list@PAVCEventItem@@V?$allocator@PAVCEventItem@@@std@@@std@@U?$less@H@2@V?$allocator@U?$pair@$$CBHPAV?$list@PAVCEventItem@@V?$allocator@PAVCEventItem@@@std@@@std@@@std@@@2@$0A@@std@@@std@@QAE?AViterator@12@XZ
_TEXT	SEGMENT PARA USE32 PUBLIC 'CODE'
_TEXT	ENDS
;	COMDAT ?size@?$_Tree@V?$_Tmap_traits@HPAV?$list@PAVCEventItem@@V?$allocator@PAVCEventItem@@@std@@@std@@U?$less@H@2@V?$allocator@U?$pair@$$CBHPAV?$list@PAVCEventItem@@V?$allocator@PAVCEventItem@@@std@@@std@@@std@@@2@$0A@@std@@@std@@QBEIXZ
_TEXT	SEGMENT PARA USE32 PUBLIC 'CODE'
_TEXT	ENDS
;	COMDAT ?insert@?$_Tree@V?$_Tmap_traits@HPAV?$list@PAVCEventItem@@V?$allocator@PAVCEventItem@@@std@@@std@@U?$less@H@2@V?$allocator@U?$pair@$$CBHPAV?$list@PAVCEventItem@@V?$allocator@PAVCEventItem@@@std@@@std@@@std@@@2@$0A@@std@@@std@@QAE?AU?$pair@Viterator@?$_Tree@V?$_Tmap_traits@HPAV?$list@PAVCEventItem@@V?$allocator@PAVCEventItem@@@std@@@std@@U?$less@H@2@V?$allocator@U?$pair@$$CBHPAV?$list@PAVCEventItem@@V?$allocator@PAVCEventItem@@@std@@@std@@@std@@@2@$0A@@std@@@std@@_N@2@ABU?$pair@$$CBHPAV?$list@PAVCEventItem@@V?$allocator@PAVCEventItem@@@std@@@std@@@2@@Z
_TEXT	SEGMENT PARA USE32 PUBLIC 'CODE'
_TEXT	ENDS
;	COMDAT ?clear@?$_Tree@V?$_Tmap_traits@HPAV?$list@PAVCEventItem@@V?$allocator@PAVCEventItem@@@std@@@std@@U?$less@H@2@V?$allocator@U?$pair@$$CBHPAV?$list@PAVCEventItem@@V?$allocator@PAVCEventItem@@@std@@@std@@@std@@@2@$0A@@std@@@std@@QAEXXZ
_TEXT	SEGMENT PARA USE32 PUBLIC 'CODE'
_TEXT	ENDS
;	COMDAT ?find@?$_Tree@V?$_Tmap_traits@HPAV?$list@PAVCEventItem@@V?$allocator@PAVCEventItem@@@std@@@std@@U?$less@H@2@V?$allocator@U?$pair@$$CBHPAV?$list@PAVCEventItem@@V?$allocator@PAVCEventItem@@@std@@@std@@@std@@@2@$0A@@std@@@std@@QAE?AViterator@12@ABH@Z
_TEXT	SEGMENT PARA USE32 PUBLIC 'CODE'
_TEXT	ENDS
;	COMDAT ??Diterator@?$list@PAU_EVENT_GENERIC@@V?$allocator@PAU_EVENT_GENERIC@@@std@@@std@@QBEAAPAU_EVENT_GENERIC@@XZ
_TEXT	SEGMENT PARA USE32 PUBLIC 'CODE'
_TEXT	ENDS
;	COMDAT ??Eiterator@?$list@PAU_EVENT_GENERIC@@V?$allocator@PAU_EVENT_GENERIC@@@std@@@std@@QAEAAV012@XZ
_TEXT	SEGMENT PARA USE32 PUBLIC 'CODE'
_TEXT	ENDS
;	COMDAT ??9const_iterator@?$list@PAU_EVENT_GENERIC@@V?$allocator@PAU_EVENT_GENERIC@@@std@@@std@@QBE_NABV012@@Z
_TEXT	SEGMENT PARA USE32 PUBLIC 'CODE'
_TEXT	ENDS
;	COMDAT ??Citerator@?$_Tree@V?$_Tmap_traits@HPAV?$list@PAVCEventItem@@V?$allocator@PAVCEventItem@@@std@@@std@@U?$less@H@2@V?$allocator@U?$pair@$$CBHPAV?$list@PAVCEventItem@@V?$allocator@PAVCEventItem@@@std@@@std@@@std@@@2@$0A@@std@@@std@@QBEPAU?$pair@$$CBHPAV?$list@PAVCEventItem@@V?$allocator@PAVCEventItem@@@std@@@std@@@2@XZ
_TEXT	SEGMENT PARA USE32 PUBLIC 'CODE'
_TEXT	ENDS
;	COMDAT ??Eiterator@?$_Tree@V?$_Tmap_traits@HPAV?$list@PAVCEventItem@@V?$allocator@PAVCEventItem@@@std@@@std@@U?$less@H@2@V?$allocator@U?$pair@$$CBHPAV?$list@PAVCEventItem@@V?$allocator@PAVCEventItem@@@std@@@std@@@std@@@2@$0A@@std@@@std@@QAEAAV012@XZ
_TEXT	SEGMENT PARA USE32 PUBLIC 'CODE'
_TEXT	ENDS
;	COMDAT ??8const_iterator@?$_Tree@V?$_Tmap_traits@HPAV?$list@PAVCEventItem@@V?$allocator@PAVCEventItem@@@std@@@std@@U?$less@H@2@V?$allocator@U?$pair@$$CBHPAV?$list@PAVCEventItem@@V?$allocator@PAVCEventItem@@@std@@@std@@@std@@@2@$0A@@std@@@std@@QBE_NABV012@@Z
_TEXT	SEGMENT PARA USE32 PUBLIC 'CODE'
_TEXT	ENDS
;	COMDAT ??9const_iterator@?$_Tree@V?$_Tmap_traits@HPAV?$list@PAVCEventItem@@V?$allocator@PAVCEventItem@@@std@@@std@@U?$less@H@2@V?$allocator@U?$pair@$$CBHPAV?$list@PAVCEventItem@@V?$allocator@PAVCEventItem@@@std@@@std@@@std@@@2@$0A@@std@@@std@@QBE_NABV012@@Z
_TEXT	SEGMENT PARA USE32 PUBLIC 'CODE'
_TEXT	ENDS
;	COMDAT ??0?$pair@$$CBHPAV?$list@PAVCEventItem@@V?$allocator@PAVCEventItem@@@std@@@std@@@std@@QAE@ABHABQAV?$list@PAVCEventItem@@V?$allocator@PAVCEventItem@@@std@@@1@@Z
_TEXT	SEGMENT PARA USE32 PUBLIC 'CODE'
_TEXT	ENDS
;	COMDAT ??0?$list@PAVCEventItem@@V?$allocator@PAVCEventItem@@@std@@@std@@QAE@XZ
_TEXT	SEGMENT PARA USE32 PUBLIC 'CODE'
_TEXT	ENDS
;	COMDAT ??1?$list@PAVCEventItem@@V?$allocator@PAVCEventItem@@@std@@@std@@QAE@XZ
_TEXT	SEGMENT PARA USE32 PUBLIC 'CODE'
_TEXT	ENDS
;	COMDAT ?begin@?$list@PAVCEventItem@@V?$allocator@PAVCEventItem@@@std@@@std@@QAE?AViterator@12@XZ
_TEXT	SEGMENT PARA USE32 PUBLIC 'CODE'
_TEXT	ENDS
;	COMDAT ?end@?$list@PAVCEventItem@@V?$allocator@PAVCEventItem@@@std@@@std@@QAE?AViterator@12@XZ
_TEXT	SEGMENT PARA USE32 PUBLIC 'CODE'
_TEXT	ENDS
;	COMDAT ?size@?$list@PAVCEventItem@@V?$allocator@PAVCEventItem@@@std@@@std@@QBEIXZ
_TEXT	SEGMENT PARA USE32 PUBLIC 'CODE'
_TEXT	ENDS
;	COMDAT ?push_back@?$list@PAVCEventItem@@V?$allocator@PAVCEventItem@@@std@@@std@@QAEXABQAVCEventItem@@@Z
_TEXT	SEGMENT PARA USE32 PUBLIC 'CODE'
_TEXT	ENDS
;	COMDAT ?clear@?$list@PAVCEventItem@@V?$allocator@PAVCEventItem@@@std@@@std@@QAEXXZ
_TEXT	SEGMENT PARA USE32 PUBLIC 'CODE'
_TEXT	ENDS
;	COMDAT ??Diterator@?$list@PAVCEventItem@@V?$allocator@PAVCEventItem@@@std@@@std@@QBEAAPAVCEventItem@@XZ
_TEXT	SEGMENT PARA USE32 PUBLIC 'CODE'
_TEXT	ENDS
;	COMDAT ??Eiterator@?$list@PAVCEventItem@@V?$allocator@PAVCEventItem@@@std@@@std@@QAEAAV012@XZ
_TEXT	SEGMENT PARA USE32 PUBLIC 'CODE'
_TEXT	ENDS
;	COMDAT ??9const_iterator@?$list@PAVCEventItem@@V?$allocator@PAVCEventItem@@@std@@@std@@QBE_NABV012@@Z
_TEXT	SEGMENT PARA USE32 PUBLIC 'CODE'
_TEXT	ENDS
;	COMDAT ?Compare@?$CStringT@DV?$StrTraitMFC@DV?$ChTraitsCRT@D@ATL@@@@@ATL@@QBEHPBD@Z
_TEXT	SEGMENT PARA USE32 PUBLIC 'CODE'
_TEXT	ENDS
;	COMDAT ?StringFindString@?$ChTraitsCRT@D@ATL@@SAPADPADPBD@Z
_TEXT	SEGMENT PARA USE32 PUBLIC 'CODE'
_TEXT	ENDS
;	COMDAT ?SafeStringLen@?$ChTraitsCRT@D@ATL@@SAHPBD@Z
_TEXT	SEGMENT PARA USE32 PUBLIC 'CODE'
_TEXT	ENDS
;	COMDAT ?compare@?$basic_string@DU?$char_traits@D@std@@V?$allocator@D@2@@std@@QBEHIIPBDI@Z
_TEXT	SEGMENT PARA USE32 PUBLIC 'CODE'
_TEXT	ENDS
;	COMDAT ??R?$less@H@std@@QBE_NABH0@Z
_TEXT	SEGMENT PARA USE32 PUBLIC 'CODE'
_TEXT	ENDS
;	COMDAT ?_Nextnode@?$list@PAU_EVENT_GENERIC@@V?$allocator@PAU_EVENT_GENERIC@@@std@@@std@@KAAAPAU_Node@?$_List_nod@PAU_EVENT_GENERIC@@V?$allocator@PAU_EVENT_GENERIC@@@std@@@2@PAU342@@Z
_TEXT	SEGMENT PARA USE32 PUBLIC 'CODE'
_TEXT	ENDS
;	COMDAT ?_Prevnode@?$list@PAU_EVENT_GENERIC@@V?$allocator@PAU_EVENT_GENERIC@@@std@@@std@@KAAAPAU_Node@?$_List_nod@PAU_EVENT_GENERIC@@V?$allocator@PAU_EVENT_GENERIC@@@std@@@2@PAU342@@Z
_TEXT	SEGMENT PARA USE32 PUBLIC 'CODE'
_TEXT	ENDS
;	COMDAT ?_Insert@?$list@PAU_EVENT_GENERIC@@V?$allocator@PAU_EVENT_GENERIC@@@std@@@std@@QAEXViterator@12@ABQAU_EVENT_GENERIC@@@Z
_TEXT	SEGMENT PARA USE32 PUBLIC 'CODE'
_TEXT	ENDS
;	COMDAT ?_Buynode@?$list@PAU_EVENT_GENERIC@@V?$allocator@PAU_EVENT_GENERIC@@@std@@@std@@IAEPAU_Node@?$_List_nod@PAU_EVENT_GENERIC@@V?$allocator@PAU_EVENT_GENERIC@@@std@@@2@XZ
_TEXT	SEGMENT PARA USE32 PUBLIC 'CODE'
_TEXT	ENDS
;	COMDAT ?_Tidy@?$list@PAU_EVENT_GENERIC@@V?$allocator@PAU_EVENT_GENERIC@@@std@@@std@@IAEXXZ
_TEXT	SEGMENT PARA USE32 PUBLIC 'CODE'
_TEXT	ENDS
;	COMDAT ??0?$_List_val@PAU_EVENT_GENERIC@@V?$allocator@PAU_EVENT_GENERIC@@@std@@@std@@IAE@V?$allocator@PAU_EVENT_GENERIC@@@1@@Z
_TEXT	SEGMENT PARA USE32 PUBLIC 'CODE'
_TEXT	ENDS
;	COMDAT ??0?$allocator@PAU_EVENT_GENERIC@@@std@@QAE@XZ
_TEXT	SEGMENT PARA USE32 PUBLIC 'CODE'
_TEXT	ENDS
;	COMDAT ?deallocate@?$allocator@U_Node@?$_List_nod@PAU_EVENT_GENERIC@@V?$allocator@PAU_EVENT_GENERIC@@@std@@@std@@@std@@QAEXPAU_Node@?$_List_nod@PAU_EVENT_GENERIC@@V?$allocator@PAU_EVENT_GENERIC@@@std@@@2@I@Z
_TEXT	SEGMENT PARA USE32 PUBLIC 'CODE'
_TEXT	ENDS
;	COMDAT ?destroy@?$allocator@U_Node@?$_List_nod@PAU_EVENT_GENERIC@@V?$allocator@PAU_EVENT_GENERIC@@@std@@@std@@@std@@QAEXPAU_Node@?$_List_nod@PAU_EVENT_GENERIC@@V?$allocator@PAU_EVENT_GENERIC@@@std@@@2@@Z
_TEXT	SEGMENT PARA USE32 PUBLIC 'CODE'
_TEXT	ENDS
;	COMDAT ?_Isnil@?$_Tree@V?$_Tmap_traits@HPAV?$list@PAVCEventItem@@V?$allocator@PAVCEventItem@@@std@@@std@@U?$less@H@2@V?$allocator@U?$pair@$$CBHPAV?$list@PAVCEventItem@@V?$allocator@PAVCEventItem@@@std@@@std@@@std@@@2@$0A@@std@@@std@@KAAADPAU_Node@?$_Tree_nod@V?$_Tmap_traits@HPAV?$list@PAVCEventItem@@V?$allocator@PAVCEventItem@@@std@@@std@@U?$less@H@2@V?$allocator@U?$pair@$$CBHPAV?$list@PAVCEventItem@@V?$allocator@PAVCEventItem@@@std@@@std@@@std@@@2@$0A@@std@@@2@@Z
_TEXT	SEGMENT PARA USE32 PUBLIC 'CODE'
_TEXT	ENDS
;	COMDAT ?_Key@?$_Tree@V?$_Tmap_traits@HPAV?$list@PAVCEventItem@@V?$allocator@PAVCEventItem@@@std@@@std@@U?$less@H@2@V?$allocator@U?$pair@$$CBHPAV?$list@PAVCEventItem@@V?$allocator@PAVCEventItem@@@std@@@std@@@std@@@2@$0A@@std@@@std@@KAABHPAU_Node@?$_Tree_nod@V?$_Tmap_traits@HPAV?$list@PAVCEventItem@@V?$allocator@PAVCEventItem@@@std@@@std@@U?$less@H@2@V?$allocator@U?$pair@$$CBHPAV?$list@PAVCEventItem@@V?$allocator@PAVCEventItem@@@std@@@std@@@std@@@2@$0A@@std@@@2@@Z
_TEXT	SEGMENT PARA USE32 PUBLIC 'CODE'
_TEXT	ENDS
;	COMDAT ?_Left@?$_Tree@V?$_Tmap_traits@HPAV?$list@PAVCEventItem@@V?$allocator@PAVCEventItem@@@std@@@std@@U?$less@H@2@V?$allocator@U?$pair@$$CBHPAV?$list@PAVCEventItem@@V?$allocator@PAVCEventItem@@@std@@@std@@@std@@@2@$0A@@std@@@std@@KAAAPAU_Node@?$_Tree_nod@V?$_Tmap_traits@HPAV?$list@PAVCEventItem@@V?$allocator@PAVCEventItem@@@std@@@std@@U?$less@H@2@V?$allocator@U?$pair@$$CBHPAV?$list@PAVCEventItem@@V?$allocator@PAVCEventItem@@@std@@@std@@@std@@@2@$0A@@std@@@2@PAU342@@Z
_TEXT	SEGMENT PARA USE32 PUBLIC 'CODE'
_TEXT	ENDS
;	COMDAT ?_Right@?$_Tree@V?$_Tmap_traits@HPAV?$list@PAVCEventItem@@V?$allocator@PAVCEventItem@@@std@@@std@@U?$less@H@2@V?$allocator@U?$pair@$$CBHPAV?$list@PAVCEventItem@@V?$allocator@PAVCEventItem@@@std@@@std@@@std@@@2@$0A@@std@@@std@@KAAAPAU_Node@?$_Tree_nod@V?$_Tmap_traits@HPAV?$list@PAVCEventItem@@V?$allocator@PAVCEventItem@@@std@@@std@@U?$less@H@2@V?$allocator@U?$pair@$$CBHPAV?$list@PAVCEventItem@@V?$allocator@PAVCEventItem@@@std@@@std@@@std@@@2@$0A@@std@@@2@PAU342@@Z
_TEXT	SEGMENT PARA USE32 PUBLIC 'CODE'
_TEXT	ENDS
;	COMDAT ??0?$_Tree@V?$_Tmap_traits@HPAV?$list@PAVCEventItem@@V?$allocator@PAVCEventItem@@@std@@@std@@U?$less@H@2@V?$allocator@U?$pair@$$CBHPAV?$list@PAVCEventItem@@V?$allocator@PAVCEventItem@@@std@@@std@@@std@@@2@$0A@@std@@@std@@QAE@ABU?$less@H@1@ABV?$allocator@U?$pair@$$CBHPAV?$list@PAVCEventItem@@V?$allocator@PAVCEventItem@@@std@@@std@@@std@@@1@@Z
_TEXT	SEGMENT PARA USE32 PUBLIC 'CODE'
_TEXT	ENDS
;	COMDAT ?lower_bound@?$_Tree@V?$_Tmap_traits@HPAV?$list@PAVCEventItem@@V?$allocator@PAVCEventItem@@@std@@@std@@U?$less@H@2@V?$allocator@U?$pair@$$CBHPAV?$list@PAVCEventItem@@V?$allocator@PAVCEventItem@@@std@@@std@@@std@@@2@$0A@@std@@@std@@QAE?AViterator@12@ABH@Z
_TEXT	SEGMENT PARA USE32 PUBLIC 'CODE'
_TEXT	ENDS
;	COMDAT ?_Erase@?$_Tree@V?$_Tmap_traits@HPAV?$list@PAVCEventItem@@V?$allocator@PAVCEventItem@@@std@@@std@@U?$less@H@2@V?$allocator@U?$pair@$$CBHPAV?$list@PAVCEventItem@@V?$allocator@PAVCEventItem@@@std@@@std@@@std@@@2@$0A@@std@@@std@@IAEXPAU_Node@?$_Tree_nod@V?$_Tmap_traits@HPAV?$list@PAVCEventItem@@V?$allocator@PAVCEventItem@@@std@@@std@@U?$less@H@2@V?$allocator@U?$pair@$$CBHPAV?$list@PAVCEventItem@@V?$allocator@PAVCEventItem@@@std@@@std@@@std@@@2@$0A@@std@@@2@@Z
_TEXT	SEGMENT PARA USE32 PUBLIC 'CODE'
_TEXT	ENDS
;	COMDAT ?_Insert@?$_Tree@V?$_Tmap_traits@HPAV?$list@PAVCEventItem@@V?$allocator@PAVCEventItem@@@std@@@std@@U?$less@H@2@V?$allocator@U?$pair@$$CBHPAV?$list@PAVCEventItem@@V?$allocator@PAVCEventItem@@@std@@@std@@@std@@@2@$0A@@std@@@std@@IAE?AViterator@12@_NPAU_Node@?$_Tree_nod@V?$_Tmap_traits@HPAV?$list@PAVCEventItem@@V?$allocator@PAVCEventItem@@@std@@@std@@U?$less@H@2@V?$allocator@U?$pair@$$CBHPAV?$list@PAVCEventItem@@V?$allocator@PAVCEventItem@@@std@@@std@@@std@@@2@$0A@@std@@@2@ABU?$pair@$$CBHPAV?$list@PAVCEventItem@@V?$allocator@PAVCEventItem@@@std@@@std@@@2@@Z
_TEXT	SEGMENT PARA USE32 PUBLIC 'CODE'
_TEXT	ENDS
;	COMDAT ?_Lmost@?$_Tree@V?$_Tmap_traits@HPAV?$list@PAVCEventItem@@V?$allocator@PAVCEventItem@@@std@@@std@@U?$less@H@2@V?$allocator@U?$pair@$$CBHPAV?$list@PAVCEventItem@@V?$allocator@PAVCEventItem@@@std@@@std@@@std@@@2@$0A@@std@@@std@@IAEAAPAU_Node@?$_Tree_nod@V?$_Tmap_traits@HPAV?$list@PAVCEventItem@@V?$allocator@PAVCEventItem@@@std@@@std@@U?$less@H@2@V?$allocator@U?$pair@$$CBHPAV?$list@PAVCEventItem@@V?$allocator@PAVCEventItem@@@std@@@std@@@std@@@2@$0A@@std@@@2@XZ
_TEXT	SEGMENT PARA USE32 PUBLIC 'CODE'
_TEXT	ENDS
;	COMDAT ?_Rmost@?$_Tree@V?$_Tmap_traits@HPAV?$list@PAVCEventItem@@V?$allocator@PAVCEventItem@@@std@@@std@@U?$less@H@2@V?$allocator@U?$pair@$$CBHPAV?$list@PAVCEventItem@@V?$allocator@PAVCEventItem@@@std@@@std@@@std@@@2@$0A@@std@@@std@@IAEAAPAU_Node@?$_Tree_nod@V?$_Tmap_traits@HPAV?$list@PAVCEventItem@@V?$allocator@PAVCEventItem@@@std@@@std@@U?$less@H@2@V?$allocator@U?$pair@$$CBHPAV?$list@PAVCEventItem@@V?$allocator@PAVCEventItem@@@std@@@std@@@std@@@2@$0A@@std@@@2@XZ
_TEXT	SEGMENT PARA USE32 PUBLIC 'CODE'
_TEXT	ENDS
;	COMDAT ?_Root@?$_Tree@V?$_Tmap_traits@HPAV?$list@PAVCEventItem@@V?$allocator@PAVCEventItem@@@std@@@std@@U?$less@H@2@V?$allocator@U?$pair@$$CBHPAV?$list@PAVCEventItem@@V?$allocator@PAVCEventItem@@@std@@@std@@@std@@@2@$0A@@std@@@std@@IAEAAPAU_Node@?$_Tree_nod@V?$_Tmap_traits@HPAV?$list@PAVCEventItem@@V?$allocator@PAVCEventItem@@@std@@@std@@U?$less@H@2@V?$allocator@U?$pair@$$CBHPAV?$list@PAVCEventItem@@V?$allocator@PAVCEventItem@@@std@@@std@@@std@@@2@$0A@@std@@@2@XZ
_TEXT	SEGMENT PARA USE32 PUBLIC 'CODE'
_TEXT	ENDS
;	COMDAT ?_Tidy@?$_Tree@V?$_Tmap_traits@HPAV?$list@PAVCEventItem@@V?$allocator@PAVCEventItem@@@std@@@std@@U?$less@H@2@V?$allocator@U?$pair@$$CBHPAV?$list@PAVCEventItem@@V?$allocator@PAVCEventItem@@@std@@@std@@@std@@@2@$0A@@std@@@std@@IAEXXZ
_TEXT	SEGMENT PARA USE32 PUBLIC 'CODE'
_TEXT	ENDS
;	COMDAT ?_Kfn@?$_Tmap_traits@HPAV?$list@PAVCEventItem@@V?$allocator@PAVCEventItem@@@std@@@std@@U?$less@H@2@V?$allocator@U?$pair@$$CBHPAV?$list@PAVCEventItem@@V?$allocator@PAVCEventItem@@@std@@@std@@@std@@@2@$0A@@std@@SAABHABU?$pair@$$CBHPAV?$list@PAVCEventItem@@V?$allocator@PAVCEventItem@@@std@@@std@@@2@@Z
_TEXT	SEGMENT PARA USE32 PUBLIC 'CODE'
_TEXT	ENDS
;	COMDAT ??0?$allocator@U?$pair@$$CBHPAV?$list@PAVCEventItem@@V?$allocator@PAVCEventItem@@@std@@@std@@@std@@@std@@QAE@XZ
_TEXT	SEGMENT PARA USE32 PUBLIC 'CODE'
_TEXT	ENDS
;	COMDAT ??0iterator@?$list@PAU_EVENT_GENERIC@@V?$allocator@PAU_EVENT_GENERIC@@@std@@@std@@QAE@PAU_Node@?$_List_nod@PAU_EVENT_GENERIC@@V?$allocator@PAU_EVENT_GENERIC@@@std@@@2@@Z
_TEXT	SEGMENT PARA USE32 PUBLIC 'CODE'
_TEXT	ENDS
;	COMDAT ??Dconst_iterator@?$list@PAU_EVENT_GENERIC@@V?$allocator@PAU_EVENT_GENERIC@@@std@@@std@@QBEABQAU_EVENT_GENERIC@@XZ
_TEXT	SEGMENT PARA USE32 PUBLIC 'CODE'
_TEXT	ENDS
;	COMDAT ??Econst_iterator@?$list@PAU_EVENT_GENERIC@@V?$allocator@PAU_EVENT_GENERIC@@@std@@@std@@QAEAAV012@XZ
_TEXT	SEGMENT PARA USE32 PUBLIC 'CODE'
_TEXT	ENDS
;	COMDAT ??8const_iterator@?$list@PAU_EVENT_GENERIC@@V?$allocator@PAU_EVENT_GENERIC@@@std@@@std@@QBE_NABV012@@Z
_TEXT	SEGMENT PARA USE32 PUBLIC 'CODE'
_TEXT	ENDS
;	COMDAT ??0iterator@?$_Tree@V?$_Tmap_traits@HPAV?$list@PAVCEventItem@@V?$allocator@PAVCEventItem@@@std@@@std@@U?$less@H@2@V?$allocator@U?$pair@$$CBHPAV?$list@PAVCEventItem@@V?$allocator@PAVCEventItem@@@std@@@std@@@std@@@2@$0A@@std@@@std@@QAE@PAU_Node@?$_Tree_nod@V?$_Tmap_traits@HPAV?$list@PAVCEventItem@@V?$allocator@PAVCEventItem@@@std@@@std@@U?$less@H@2@V?$allocator@U?$pair@$$CBHPAV?$list@PAVCEventItem@@V?$allocator@PAVCEventItem@@@std@@@std@@@std@@@2@$0A@@std@@@2@@Z
_TEXT	SEGMENT PARA USE32 PUBLIC 'CODE'
_TEXT	ENDS
;	COMDAT ??Diterator@?$_Tree@V?$_Tmap_traits@HPAV?$list@PAVCEventItem@@V?$allocator@PAVCEventItem@@@std@@@std@@U?$less@H@2@V?$allocator@U?$pair@$$CBHPAV?$list@PAVCEventItem@@V?$allocator@PAVCEventItem@@@std@@@std@@@std@@@2@$0A@@std@@@std@@QBEAAU?$pair@$$CBHPAV?$list@PAVCEventItem@@V?$allocator@PAVCEventItem@@@std@@@std@@@2@XZ
_TEXT	SEGMENT PARA USE32 PUBLIC 'CODE'
_TEXT	ENDS
;	COMDAT ??Fiterator@?$_Tree@V?$_Tmap_traits@HPAV?$list@PAVCEventItem@@V?$allocator@PAVCEventItem@@@std@@@std@@U?$less@H@2@V?$allocator@U?$pair@$$CBHPAV?$list@PAVCEventItem@@V?$allocator@PAVCEventItem@@@std@@@std@@@std@@@2@$0A@@std@@@std@@QAEAAV012@XZ
_TEXT	SEGMENT PARA USE32 PUBLIC 'CODE'
_TEXT	ENDS
;	COMDAT ??Econst_iterator@?$_Tree@V?$_Tmap_traits@HPAV?$list@PAVCEventItem@@V?$allocator@PAVCEventItem@@@std@@@std@@U?$less@H@2@V?$allocator@U?$pair@$$CBHPAV?$list@PAVCEventItem@@V?$allocator@PAVCEventItem@@@std@@@std@@@std@@@2@$0A@@std@@@std@@QAEAAV012@XZ
_TEXT	SEGMENT PARA USE32 PUBLIC 'CODE'
_TEXT	ENDS
;	COMDAT ?_Mynode@const_iterator@?$_Tree@V?$_Tmap_traits@HPAV?$list@PAVCEventItem@@V?$allocator@PAVCEventItem@@@std@@@std@@U?$less@H@2@V?$allocator@U?$pair@$$CBHPAV?$list@PAVCEventItem@@V?$allocator@PAVCEventItem@@@std@@@std@@@std@@@2@$0A@@std@@@std@@QBEPAU_Node@?$_Tree_nod@V?$_Tmap_traits@HPAV?$list@PAVCEventItem@@V?$allocator@PAVCEventItem@@@std@@@std@@U?$less@H@2@V?$allocator@U?$pair@$$CBHPAV?$list@PAVCEventItem@@V?$allocator@PAVCEventItem@@@std@@@std@@@std@@@2@$0A@@std@@@3@XZ
_TEXT	SEGMENT PARA USE32 PUBLIC 'CODE'
_TEXT	ENDS
;	COMDAT ?_Nextnode@?$list@PAVCEventItem@@V?$allocator@PAVCEventItem@@@std@@@std@@KAAAPAU_Node@?$_List_nod@PAVCEventItem@@V?$allocator@PAVCEventItem@@@std@@@2@PAU342@@Z
_TEXT	SEGMENT PARA USE32 PUBLIC 'CODE'
_TEXT	ENDS
;	COMDAT ?_Prevnode@?$list@PAVCEventItem@@V?$allocator@PAVCEventItem@@@std@@@std@@KAAAPAU_Node@?$_List_nod@PAVCEventItem@@V?$allocator@PAVCEventItem@@@std@@@2@PAU342@@Z
_TEXT	SEGMENT PARA USE32 PUBLIC 'CODE'
_TEXT	ENDS
;	COMDAT ?_Insert@?$list@PAVCEventItem@@V?$allocator@PAVCEventItem@@@std@@@std@@QAEXViterator@12@ABQAVCEventItem@@@Z
_TEXT	SEGMENT PARA USE32 PUBLIC 'CODE'
_TEXT	ENDS
;	COMDAT ?_Buynode@?$list@PAVCEventItem@@V?$allocator@PAVCEventItem@@@std@@@std@@IAEPAU_Node@?$_List_nod@PAVCEventItem@@V?$allocator@PAVCEventItem@@@std@@@2@XZ
_TEXT	SEGMENT PARA USE32 PUBLIC 'CODE'
_TEXT	ENDS
;	COMDAT ?_Tidy@?$list@PAVCEventItem@@V?$allocator@PAVCEventItem@@@std@@@std@@IAEXXZ
_TEXT	SEGMENT PARA USE32 PUBLIC 'CODE'
_TEXT	ENDS
;	COMDAT ??0?$_List_val@PAVCEventItem@@V?$allocator@PAVCEventItem@@@std@@@std@@IAE@V?$allocator@PAVCEventItem@@@1@@Z
_TEXT	SEGMENT PARA USE32 PUBLIC 'CODE'
_TEXT	ENDS
;	COMDAT ??0?$allocator@PAVCEventItem@@@std@@QAE@XZ
_TEXT	SEGMENT PARA USE32 PUBLIC 'CODE'
_TEXT	ENDS
;	COMDAT ?deallocate@?$allocator@U_Node@?$_List_nod@PAVCEventItem@@V?$allocator@PAVCEventItem@@@std@@@std@@@std@@QAEXPAU_Node@?$_List_nod@PAVCEventItem@@V?$allocator@PAVCEventItem@@@std@@@2@I@Z
_TEXT	SEGMENT PARA USE32 PUBLIC 'CODE'
_TEXT	ENDS
;	COMDAT ?destroy@?$allocator@U_Node@?$_List_nod@PAVCEventItem@@V?$allocator@PAVCEventItem@@@std@@@std@@@std@@QAEXPAU_Node@?$_List_nod@PAVCEventItem@@V?$allocator@PAVCEventItem@@@std@@@2@@Z
_TEXT	SEGMENT PARA USE32 PUBLIC 'CODE'
_TEXT	ENDS
;	COMDAT ??0iterator@?$list@PAVCEventItem@@V?$allocator@PAVCEventItem@@@std@@@std@@QAE@PAU_Node@?$_List_nod@PAVCEventItem@@V?$allocator@PAVCEventItem@@@std@@@2@@Z
_TEXT	SEGMENT PARA USE32 PUBLIC 'CODE'
_TEXT	ENDS
;	COMDAT ??Dconst_iterator@?$list@PAVCEventItem@@V?$allocator@PAVCEventItem@@@std@@@std@@QBEABQAVCEventItem@@XZ
_TEXT	SEGMENT PARA USE32 PUBLIC 'CODE'
_TEXT	ENDS
;	COMDAT ??Econst_iterator@?$list@PAVCEventItem@@V?$allocator@PAVCEventItem@@@std@@@std@@QAEAAV012@XZ
_TEXT	SEGMENT PARA USE32 PUBLIC 'CODE'
_TEXT	ENDS
;	COMDAT ??8const_iterator@?$list@PAVCEventItem@@V?$allocator@PAVCEventItem@@@std@@@std@@QBE_NABV012@@Z
_TEXT	SEGMENT PARA USE32 PUBLIC 'CODE'
_TEXT	ENDS
;	COMDAT ??0?$pair@Viterator@?$_Tree@V?$_Tmap_traits@HPAV?$list@PAVCEventItem@@V?$allocator@PAVCEventItem@@@std@@@std@@U?$less@H@2@V?$allocator@U?$pair@$$CBHPAV?$list@PAVCEventItem@@V?$allocator@PAVCEventItem@@@std@@@std@@@std@@@2@$0A@@std@@@std@@_N@std@@QAE@ABViterator@?$_Tree@V?$_Tmap_traits@HPAV?$list@PAVCEventItem@@V?$allocator@PAVCEventItem@@@std@@@std@@U?$less@H@2@V?$allocator@U?$pair@$$CBHPAV?$list@PAVCEventItem@@V?$allocator@PAVCEventItem@@@std@@@std@@@std@@@2@$0A@@std@@@1@AB_N@Z
_TEXT	SEGMENT PARA USE32 PUBLIC 'CODE'
_TEXT	ENDS
;	COMDAT ?StringCompare@?$ChTraitsCRT@D@ATL@@SAHPBD0@Z
_TEXT	SEGMENT PARA USE32 PUBLIC 'CODE'
_TEXT	ENDS
;	COMDAT ?_Myval@?$list@PAU_EVENT_GENERIC@@V?$allocator@PAU_EVENT_GENERIC@@@std@@@std@@KAAAPAU_EVENT_GENERIC@@PAU_Node@?$_List_nod@PAU_EVENT_GENERIC@@V?$allocator@PAU_EVENT_GENERIC@@@std@@@2@@Z
_TEXT	SEGMENT PARA USE32 PUBLIC 'CODE'
_TEXT	ENDS
;	COMDAT ?_Buynode@?$list@PAU_EVENT_GENERIC@@V?$allocator@PAU_EVENT_GENERIC@@@std@@@std@@IAEPAU_Node@?$_List_nod@PAU_EVENT_GENERIC@@V?$allocator@PAU_EVENT_GENERIC@@@std@@@2@PAU342@0ABQAU_EVENT_GENERIC@@@Z
_TEXT	SEGMENT PARA USE32 PUBLIC 'CODE'
_TEXT	ENDS
;	COMDAT ?_Incsize@?$list@PAU_EVENT_GENERIC@@V?$allocator@PAU_EVENT_GENERIC@@@std@@@std@@IAEXI@Z
_TEXT	SEGMENT PARA USE32 PUBLIC 'CODE'
_TEXT	ENDS
;	COMDAT ??0?$_List_ptr@PAU_EVENT_GENERIC@@V?$allocator@PAU_EVENT_GENERIC@@@std@@@std@@IAE@V?$allocator@PAU_EVENT_GENERIC@@@1@@Z
_TEXT	SEGMENT PARA USE32 PUBLIC 'CODE'
_TEXT	ENDS
;	COMDAT ??0?$allocator@PAU_EVENT_GENERIC@@@std@@QAE@ABV01@@Z
_TEXT	SEGMENT PARA USE32 PUBLIC 'CODE'
_TEXT	ENDS
;	COMDAT ?allocate@?$allocator@U_Node@?$_List_nod@PAU_EVENT_GENERIC@@V?$allocator@PAU_EVENT_GENERIC@@@std@@@std@@@std@@QAEPAU_Node@?$_List_nod@PAU_EVENT_GENERIC@@V?$allocator@PAU_EVENT_GENERIC@@@std@@@2@I@Z
_TEXT	SEGMENT PARA USE32 PUBLIC 'CODE'
_TEXT	ENDS
;	COMDAT ?construct@?$allocator@PAU_Node@?$_List_nod@PAU_EVENT_GENERIC@@V?$allocator@PAU_EVENT_GENERIC@@@std@@@std@@@std@@QAEXPAPAU_Node@?$_List_nod@PAU_EVENT_GENERIC@@V?$allocator@PAU_EVENT_GENERIC@@@std@@@2@ABQAU342@@Z
_TEXT	SEGMENT PARA USE32 PUBLIC 'CODE'
_TEXT	ENDS
;	COMDAT ?destroy@?$allocator@PAU_Node@?$_List_nod@PAU_EVENT_GENERIC@@V?$allocator@PAU_EVENT_GENERIC@@@std@@@std@@@std@@QAEXPAPAU_Node@?$_List_nod@PAU_EVENT_GENERIC@@V?$allocator@PAU_EVENT_GENERIC@@@std@@@2@@Z
_TEXT	SEGMENT PARA USE32 PUBLIC 'CODE'
_TEXT	ENDS
;	COMDAT ?_Color@?$_Tree@V?$_Tmap_traits@HPAV?$list@PAVCEventItem@@V?$allocator@PAVCEventItem@@@std@@@std@@U?$less@H@2@V?$allocator@U?$pair@$$CBHPAV?$list@PAVCEventItem@@V?$allocator@PAVCEventItem@@@std@@@std@@@std@@@2@$0A@@std@@@std@@KAAADPAU_Node@?$_Tree_nod@V?$_Tmap_traits@HPAV?$list@PAVCEventItem@@V?$allocator@PAVCEventItem@@@std@@@std@@U?$less@H@2@V?$allocator@U?$pair@$$CBHPAV?$list@PAVCEventItem@@V?$allocator@PAVCEventItem@@@std@@@std@@@std@@@2@$0A@@std@@@2@@Z
_TEXT	SEGMENT PARA USE32 PUBLIC 'CODE'
_TEXT	ENDS
;	COMDAT ?_Parent@?$_Tree@V?$_Tmap_traits@HPAV?$list@PAVCEventItem@@V?$allocator@PAVCEventItem@@@std@@@std@@U?$less@H@2@V?$allocator@U?$pair@$$CBHPAV?$list@PAVCEventItem@@V?$allocator@PAVCEventItem@@@std@@@std@@@std@@@2@$0A@@std@@@std@@KAAAPAU_Node@?$_Tree_nod@V?$_Tmap_traits@HPAV?$list@PAVCEventItem@@V?$allocator@PAVCEventItem@@@std@@@std@@U?$less@H@2@V?$allocator@U?$pair@$$CBHPAV?$list@PAVCEventItem@@V?$allocator@PAVCEventItem@@@std@@@std@@@std@@@2@$0A@@std@@@2@PAU342@@Z
_TEXT	SEGMENT PARA USE32 PUBLIC 'CODE'
_TEXT	ENDS
;	COMDAT ?_Myval@?$_Tree@V?$_Tmap_traits@HPAV?$list@PAVCEventItem@@V?$allocator@PAVCEventItem@@@std@@@std@@U?$less@H@2@V?$allocator@U?$pair@$$CBHPAV?$list@PAVCEventItem@@V?$allocator@PAVCEventItem@@@std@@@std@@@std@@@2@$0A@@std@@@std@@KAAAU?$pair@$$CBHPAV?$list@PAVCEventItem@@V?$allocator@PAVCEventItem@@@std@@@std@@@2@PAU_Node@?$_Tree_nod@V?$_Tmap_traits@HPAV?$list@PAVCEventItem@@V?$allocator@PAVCEventItem@@@std@@@std@@U?$less@H@2@V?$allocator@U?$pair@$$CBHPAV?$list@PAVCEventItem@@V?$allocator@PAVCEventItem@@@std@@@std@@@std@@@2@$0A@@std@@@2@@Z
_TEXT	SEGMENT PARA USE32 PUBLIC 'CODE'
_TEXT	ENDS
;	COMDAT ?max_size@?$_Tree@V?$_Tmap_traits@HPAV?$list@PAVCEventItem@@V?$allocator@PAVCEventItem@@@std@@@std@@U?$less@H@2@V?$allocator@U?$pair@$$CBHPAV?$list@PAVCEventItem@@V?$allocator@PAVCEventItem@@@std@@@std@@@std@@@2@$0A@@std@@@std@@QBEIXZ
_TEXT	SEGMENT PARA USE32 PUBLIC 'CODE'
_TEXT	ENDS
;	COMDAT ?erase@?$_Tree@V?$_Tmap_traits@HPAV?$list@PAVCEventItem@@V?$allocator@PAVCEventItem@@@std@@@std@@U?$less@H@2@V?$allocator@U?$pair@$$CBHPAV?$list@PAVCEventItem@@V?$allocator@PAVCEventItem@@@std@@@std@@@std@@@2@$0A@@std@@@std@@QAE?AViterator@12@V312@0@Z
_TEXT	SEGMENT PARA USE32 PUBLIC 'CODE'
_TEXT	ENDS
;	COMDAT ?_Init@?$_Tree@V?$_Tmap_traits@HPAV?$list@PAVCEventItem@@V?$allocator@PAVCEventItem@@@std@@@std@@U?$less@H@2@V?$allocator@U?$pair@$$CBHPAV?$list@PAVCEventItem@@V?$allocator@PAVCEventItem@@@std@@@std@@@std@@@2@$0A@@std@@@std@@IAEXXZ
_TEXT	SEGMENT PARA USE32 PUBLIC 'CODE'
_TEXT	ENDS
;	COMDAT ?_Lbound@?$_Tree@V?$_Tmap_traits@HPAV?$list@PAVCEventItem@@V?$allocator@PAVCEventItem@@@std@@@std@@U?$less@H@2@V?$allocator@U?$pair@$$CBHPAV?$list@PAVCEventItem@@V?$allocator@PAVCEventItem@@@std@@@std@@@std@@@2@$0A@@std@@@std@@IBEPAU_Node@?$_Tree_nod@V?$_Tmap_traits@HPAV?$list@PAVCEventItem@@V?$allocator@PAVCEventItem@@@std@@@std@@U?$less@H@2@V?$allocator@U?$pair@$$CBHPAV?$list@PAVCEventItem@@V?$allocator@PAVCEventItem@@@std@@@std@@@std@@@2@$0A@@std@@@2@ABH@Z
_TEXT	SEGMENT PARA USE32 PUBLIC 'CODE'
_TEXT	ENDS
;	COMDAT ?_Lrotate@?$_Tree@V?$_Tmap_traits@HPAV?$list@PAVCEventItem@@V?$allocator@PAVCEventItem@@@std@@@std@@U?$less@H@2@V?$allocator@U?$pair@$$CBHPAV?$list@PAVCEventItem@@V?$allocator@PAVCEventItem@@@std@@@std@@@std@@@2@$0A@@std@@@std@@IAEXPAU_Node@?$_Tree_nod@V?$_Tmap_traits@HPAV?$list@PAVCEventItem@@V?$allocator@PAVCEventItem@@@std@@@std@@U?$less@H@2@V?$allocator@U?$pair@$$CBHPAV?$list@PAVCEventItem@@V?$allocator@PAVCEventItem@@@std@@@std@@@std@@@2@$0A@@std@@@2@@Z
_TEXT	SEGMENT PARA USE32 PUBLIC 'CODE'
_TEXT	ENDS
;	COMDAT ?_Rrotate@?$_Tree@V?$_Tmap_traits@HPAV?$list@PAVCEventItem@@V?$allocator@PAVCEventItem@@@std@@@std@@U?$less@H@2@V?$allocator@U?$pair@$$CBHPAV?$list@PAVCEventItem@@V?$allocator@PAVCEventItem@@@std@@@std@@@std@@@2@$0A@@std@@@std@@IAEXPAU_Node@?$_Tree_nod@V?$_Tmap_traits@HPAV?$list@PAVCEventItem@@V?$allocator@PAVCEventItem@@@std@@@std@@U?$less@H@2@V?$allocator@U?$pair@$$CBHPAV?$list@PAVCEventItem@@V?$allocator@PAVCEventItem@@@std@@@std@@@std@@@2@$0A@@std@@@2@@Z
_TEXT	SEGMENT PARA USE32 PUBLIC 'CODE'
_TEXT	ENDS
;	COMDAT ?_Buynode@?$_Tree@V?$_Tmap_traits@HPAV?$list@PAVCEventItem@@V?$allocator@PAVCEventItem@@@std@@@std@@U?$less@H@2@V?$allocator@U?$pair@$$CBHPAV?$list@PAVCEventItem@@V?$allocator@PAVCEventItem@@@std@@@std@@@std@@@2@$0A@@std@@@std@@IAEPAU_Node@?$_Tree_nod@V?$_Tmap_traits@HPAV?$list@PAVCEventItem@@V?$allocator@PAVCEventItem@@@std@@@std@@U?$less@H@2@V?$allocator@U?$pair@$$CBHPAV?$list@PAVCEventItem@@V?$allocator@PAVCEventItem@@@std@@@std@@@std@@@2@$0A@@std@@@2@PAU342@00ABU?$pair@$$CBHPAV?$list@PAVCEventItem@@V?$allocator@PAVCEventItem@@@std@@@std@@@2@D@Z
_TEXT	SEGMENT PARA USE32 PUBLIC 'CODE'
_TEXT	ENDS
;	COMDAT ??0?$_Tree_val@V?$_Tmap_traits@HPAV?$list@PAVCEventItem@@V?$allocator@PAVCEventItem@@@std@@@std@@U?$less@H@2@V?$allocator@U?$pair@$$CBHPAV?$list@PAVCEventItem@@V?$allocator@PAVCEventItem@@@std@@@std@@@std@@@2@$0A@@std@@@std@@IAE@ABU?$less@H@1@V?$allocator@U?$pair@$$CBHPAV?$list@PAVCEventItem@@V?$allocator@PAVCEventItem@@@std@@@std@@@std@@@1@@Z
_TEXT	SEGMENT PARA USE32 PUBLIC 'CODE'
_TEXT	ENDS
;	COMDAT ??0?$allocator@U?$pair@$$CBHPAV?$list@PAVCEventItem@@V?$allocator@PAVCEventItem@@@std@@@std@@@std@@@std@@QAE@ABV01@@Z
_TEXT	SEGMENT PARA USE32 PUBLIC 'CODE'
_TEXT	ENDS
;	COMDAT ?deallocate@?$allocator@U_Node@?$_Tree_nod@V?$_Tmap_traits@HPAV?$list@PAVCEventItem@@V?$allocator@PAVCEventItem@@@std@@@std@@U?$less@H@2@V?$allocator@U?$pair@$$CBHPAV?$list@PAVCEventItem@@V?$allocator@PAVCEventItem@@@std@@@std@@@std@@@2@$0A@@std@@@std@@@std@@QAEXPAU_Node@?$_Tree_nod@V?$_Tmap_traits@HPAV?$list@PAVCEventItem@@V?$allocator@PAVCEventItem@@@std@@@std@@U?$less@H@2@V?$allocator@U?$pair@$$CBHPAV?$list@PAVCEventItem@@V?$allocator@PAVCEventItem@@@std@@@std@@@std@@@2@$0A@@std@@@2@I@Z
_TEXT	SEGMENT PARA USE32 PUBLIC 'CODE'
_TEXT	ENDS
;	COMDAT ?destroy@?$allocator@U_Node@?$_Tree_nod@V?$_Tmap_traits@HPAV?$list@PAVCEventItem@@V?$allocator@PAVCEventItem@@@std@@@std@@U?$less@H@2@V?$allocator@U?$pair@$$CBHPAV?$list@PAVCEventItem@@V?$allocator@PAVCEventItem@@@std@@@std@@@std@@@2@$0A@@std@@@std@@@std@@QAEXPAU_Node@?$_Tree_nod@V?$_Tmap_traits@HPAV?$list@PAVCEventItem@@V?$allocator@PAVCEventItem@@@std@@@std@@U?$less@H@2@V?$allocator@U?$pair@$$CBHPAV?$list@PAVCEventItem@@V?$allocator@PAVCEventItem@@@std@@@std@@@std@@@2@$0A@@std@@@2@@Z
_TEXT	SEGMENT PARA USE32 PUBLIC 'CODE'
_TEXT	ENDS
;	COMDAT ?destroy@?$allocator@PAU_Node@?$_Tree_nod@V?$_Tmap_traits@HPAV?$list@PAVCEventItem@@V?$allocator@PAVCEventItem@@@std@@@std@@U?$less@H@2@V?$allocator@U?$pair@$$CBHPAV?$list@PAVCEventItem@@V?$allocator@PAVCEventItem@@@std@@@std@@@std@@@2@$0A@@std@@@std@@@std@@QAEXPAPAU_Node@?$_Tree_nod@V?$_Tmap_traits@HPAV?$list@PAVCEventItem@@V?$allocator@PAVCEventItem@@@std@@@std@@U?$less@H@2@V?$allocator@U?$pair@$$CBHPAV?$list@PAVCEventItem@@V?$allocator@PAVCEventItem@@@std@@@std@@@std@@@2@$0A@@std@@@2@@Z
_TEXT	SEGMENT PARA USE32 PUBLIC 'CODE'
_TEXT	ENDS
;	COMDAT ??0const_iterator@?$list@PAU_EVENT_GENERIC@@V?$allocator@PAU_EVENT_GENERIC@@@std@@@std@@QAE@PAU_Node@?$_List_nod@PAU_EVENT_GENERIC@@V?$allocator@PAU_EVENT_GENERIC@@@std@@@2@@Z
_TEXT	SEGMENT PARA USE32 PUBLIC 'CODE'
_TEXT	ENDS
;	COMDAT ?_Mynode@const_iterator@?$list@PAU_EVENT_GENERIC@@V?$allocator@PAU_EVENT_GENERIC@@@std@@@std@@QBEPAU_Node@?$_List_nod@PAU_EVENT_GENERIC@@V?$allocator@PAU_EVENT_GENERIC@@@std@@@3@XZ
_TEXT	SEGMENT PARA USE32 PUBLIC 'CODE'
_TEXT	ENDS
;	COMDAT ??0const_iterator@?$_Tree@V?$_Tmap_traits@HPAV?$list@PAVCEventItem@@V?$allocator@PAVCEventItem@@@std@@@std@@U?$less@H@2@V?$allocator@U?$pair@$$CBHPAV?$list@PAVCEventItem@@V?$allocator@PAVCEventItem@@@std@@@std@@@std@@@2@$0A@@std@@@std@@QAE@PAU_Node@?$_Tree_nod@V?$_Tmap_traits@HPAV?$list@PAVCEventItem@@V?$allocator@PAVCEventItem@@@std@@@std@@U?$less@H@2@V?$allocator@U?$pair@$$CBHPAV?$list@PAVCEventItem@@V?$allocator@PAVCEventItem@@@std@@@std@@@std@@@2@$0A@@std@@@2@@Z
_TEXT	SEGMENT PARA USE32 PUBLIC 'CODE'
_TEXT	ENDS
;	COMDAT ??Dconst_iterator@?$_Tree@V?$_Tmap_traits@HPAV?$list@PAVCEventItem@@V?$allocator@PAVCEventItem@@@std@@@std@@U?$less@H@2@V?$allocator@U?$pair@$$CBHPAV?$list@PAVCEventItem@@V?$allocator@PAVCEventItem@@@std@@@std@@@std@@@2@$0A@@std@@@std@@QBEABU?$pair@$$CBHPAV?$list@PAVCEventItem@@V?$allocator@PAVCEventItem@@@std@@@std@@@2@XZ
_TEXT	SEGMENT PARA USE32 PUBLIC 'CODE'
_TEXT	ENDS
;	COMDAT ??Fconst_iterator@?$_Tree@V?$_Tmap_traits@HPAV?$list@PAVCEventItem@@V?$allocator@PAVCEventItem@@@std@@@std@@U?$less@H@2@V?$allocator@U?$pair@$$CBHPAV?$list@PAVCEventItem@@V?$allocator@PAVCEventItem@@@std@@@std@@@std@@@2@$0A@@std@@@std@@QAEAAV012@XZ
_TEXT	SEGMENT PARA USE32 PUBLIC 'CODE'
_TEXT	ENDS
;	COMDAT ?_Inc@const_iterator@?$_Tree@V?$_Tmap_traits@HPAV?$list@PAVCEventItem@@V?$allocator@PAVCEventItem@@@std@@@std@@U?$less@H@2@V?$allocator@U?$pair@$$CBHPAV?$list@PAVCEventItem@@V?$allocator@PAVCEventItem@@@std@@@std@@@std@@@2@$0A@@std@@@std@@QAEXXZ
_TEXT	SEGMENT PARA USE32 PUBLIC 'CODE'
_TEXT	ENDS
;	COMDAT ?_Myval@?$list@PAVCEventItem@@V?$allocator@PAVCEventItem@@@std@@@std@@KAAAPAVCEventItem@@PAU_Node@?$_List_nod@PAVCEventItem@@V?$allocator@PAVCEventItem@@@std@@@2@@Z
_TEXT	SEGMENT PARA USE32 PUBLIC 'CODE'
_TEXT	ENDS
;	COMDAT ?_Buynode@?$list@PAVCEventItem@@V?$allocator@PAVCEventItem@@@std@@@std@@IAEPAU_Node@?$_List_nod@PAVCEventItem@@V?$allocator@PAVCEventItem@@@std@@@2@PAU342@0ABQAVCEventItem@@@Z
_TEXT	SEGMENT PARA USE32 PUBLIC 'CODE'
_TEXT	ENDS
;	COMDAT ?_Incsize@?$list@PAVCEventItem@@V?$allocator@PAVCEventItem@@@std@@@std@@IAEXI@Z
_TEXT	SEGMENT PARA USE32 PUBLIC 'CODE'
_TEXT	ENDS
;	COMDAT ??0?$_List_ptr@PAVCEventItem@@V?$allocator@PAVCEventItem@@@std@@@std@@IAE@V?$allocator@PAVCEventItem@@@1@@Z
_TEXT	SEGMENT PARA USE32 PUBLIC 'CODE'
_TEXT	ENDS
;	COMDAT ??0?$allocator@PAVCEventItem@@@std@@QAE@ABV01@@Z
_TEXT	SEGMENT PARA USE32 PUBLIC 'CODE'
_TEXT	ENDS
;	COMDAT ?allocate@?$allocator@U_Node@?$_List_nod@PAVCEventItem@@V?$allocator@PAVCEventItem@@@std@@@std@@@std@@QAEPAU_Node@?$_List_nod@PAVCEventItem@@V?$allocator@PAVCEventItem@@@std@@@2@I@Z
_TEXT	SEGMENT PARA USE32 PUBLIC 'CODE'
_TEXT	ENDS
;	COMDAT ?construct@?$allocator@PAU_Node@?$_List_nod@PAVCEventItem@@V?$allocator@PAVCEventItem@@@std@@@std@@@std@@QAEXPAPAU_Node@?$_List_nod@PAVCEventItem@@V?$allocator@PAVCEventItem@@@std@@@2@ABQAU342@@Z
_TEXT	SEGMENT PARA USE32 PUBLIC 'CODE'
_TEXT	ENDS
;	COMDAT ?destroy@?$allocator@PAU_Node@?$_List_nod@PAVCEventItem@@V?$allocator@PAVCEventItem@@@std@@@std@@@std@@QAEXPAPAU_Node@?$_List_nod@PAVCEventItem@@V?$allocator@PAVCEventItem@@@std@@@2@@Z
_TEXT	SEGMENT PARA USE32 PUBLIC 'CODE'
_TEXT	ENDS
;	COMDAT ??0const_iterator@?$list@PAVCEventItem@@V?$allocator@PAVCEventItem@@@std@@@std@@QAE@PAU_Node@?$_List_nod@PAVCEventItem@@V?$allocator@PAVCEventItem@@@std@@@2@@Z
_TEXT	SEGMENT PARA USE32 PUBLIC 'CODE'
_TEXT	ENDS
;	COMDAT ?_Mynode@const_iterator@?$list@PAVCEventItem@@V?$allocator@PAVCEventItem@@@std@@@std@@QBEPAU_Node@?$_List_nod@PAVCEventItem@@V?$allocator@PAVCEventItem@@@std@@@3@XZ
_TEXT	SEGMENT PARA USE32 PUBLIC 'CODE'
_TEXT	ENDS
;	COMDAT ?max_size@?$list@PAU_EVENT_GENERIC@@V?$allocator@PAU_EVENT_GENERIC@@@std@@@std@@QBEIXZ
_TEXT	SEGMENT PARA USE32 PUBLIC 'CODE'
_TEXT	ENDS
;	COMDAT ??0?$_List_nod@PAU_EVENT_GENERIC@@V?$allocator@PAU_EVENT_GENERIC@@@std@@@std@@IAE@V?$allocator@PAU_EVENT_GENERIC@@@1@@Z
_TEXT	SEGMENT PARA USE32 PUBLIC 'CODE'
_TEXT	ENDS
;	COMDAT ?erase@?$_Tree@V?$_Tmap_traits@HPAV?$list@PAVCEventItem@@V?$allocator@PAVCEventItem@@@std@@@std@@U?$less@H@2@V?$allocator@U?$pair@$$CBHPAV?$list@PAVCEventItem@@V?$allocator@PAVCEventItem@@@std@@@std@@@std@@@2@$0A@@std@@@std@@QAE?AViterator@12@V312@@Z
_TEXT	SEGMENT PARA USE32 PUBLIC 'CODE'
_TEXT	ENDS
;	COMDAT ?_Min@?$_Tree@V?$_Tmap_traits@HPAV?$list@PAVCEventItem@@V?$allocator@PAVCEventItem@@@std@@@std@@U?$less@H@2@V?$allocator@U?$pair@$$CBHPAV?$list@PAVCEventItem@@V?$allocator@PAVCEventItem@@@std@@@std@@@std@@@2@$0A@@std@@@std@@KAPAU_Node@?$_Tree_nod@V?$_Tmap_traits@HPAV?$list@PAVCEventItem@@V?$allocator@PAVCEventItem@@@std@@@std@@U?$less@H@2@V?$allocator@U?$pair@$$CBHPAV?$list@PAVCEventItem@@V?$allocator@PAVCEventItem@@@std@@@std@@@std@@@2@$0A@@std@@@2@PAU342@@Z
_TEXT	SEGMENT PARA USE32 PUBLIC 'CODE'
_TEXT	ENDS
;	COMDAT ?_Root@?$_Tree@V?$_Tmap_traits@HPAV?$list@PAVCEventItem@@V?$allocator@PAVCEventItem@@@std@@@std@@U?$less@H@2@V?$allocator@U?$pair@$$CBHPAV?$list@PAVCEventItem@@V?$allocator@PAVCEventItem@@@std@@@std@@@std@@@2@$0A@@std@@@std@@IBEAAPAU_Node@?$_Tree_nod@V?$_Tmap_traits@HPAV?$list@PAVCEventItem@@V?$allocator@PAVCEventItem@@@std@@@std@@U?$less@H@2@V?$allocator@U?$pair@$$CBHPAV?$list@PAVCEventItem@@V?$allocator@PAVCEventItem@@@std@@@std@@@std@@@2@$0A@@std@@@2@XZ
_TEXT	SEGMENT PARA USE32 PUBLIC 'CODE'
_TEXT	ENDS
;	COMDAT ?_Buynode@?$_Tree@V?$_Tmap_traits@HPAV?$list@PAVCEventItem@@V?$allocator@PAVCEventItem@@@std@@@std@@U?$less@H@2@V?$allocator@U?$pair@$$CBHPAV?$list@PAVCEventItem@@V?$allocator@PAVCEventItem@@@std@@@std@@@std@@@2@$0A@@std@@@std@@IAEPAU_Node@?$_Tree_nod@V?$_Tmap_traits@HPAV?$list@PAVCEventItem@@V?$allocator@PAVCEventItem@@@std@@@std@@U?$less@H@2@V?$allocator@U?$pair@$$CBHPAV?$list@PAVCEventItem@@V?$allocator@PAVCEventItem@@@std@@@std@@@std@@@2@$0A@@std@@@2@XZ
_TEXT	SEGMENT PARA USE32 PUBLIC 'CODE'
_TEXT	ENDS
;	COMDAT ??0?$_Tree_ptr@V?$_Tmap_traits@HPAV?$list@PAVCEventItem@@V?$allocator@PAVCEventItem@@@std@@@std@@U?$less@H@2@V?$allocator@U?$pair@$$CBHPAV?$list@PAVCEventItem@@V?$allocator@PAVCEventItem@@@std@@@std@@@std@@@2@$0A@@std@@@std@@IAE@ABU?$less@H@1@V?$allocator@U?$pair@$$CBHPAV?$list@PAVCEventItem@@V?$allocator@PAVCEventItem@@@std@@@std@@@std@@@1@@Z
_TEXT	SEGMENT PARA USE32 PUBLIC 'CODE'
_TEXT	ENDS
;	COMDAT ?max_size@?$allocator@U?$pair@$$CBHPAV?$list@PAVCEventItem@@V?$allocator@PAVCEventItem@@@std@@@std@@@std@@@std@@QBEIXZ
_TEXT	SEGMENT PARA USE32 PUBLIC 'CODE'
_TEXT	ENDS
;	COMDAT ?allocate@?$allocator@U_Node@?$_Tree_nod@V?$_Tmap_traits@HPAV?$list@PAVCEventItem@@V?$allocator@PAVCEventItem@@@std@@@std@@U?$less@H@2@V?$allocator@U?$pair@$$CBHPAV?$list@PAVCEventItem@@V?$allocator@PAVCEventItem@@@std@@@std@@@std@@@2@$0A@@std@@@std@@@std@@QAEPAU_Node@?$_Tree_nod@V?$_Tmap_traits@HPAV?$list@PAVCEventItem@@V?$allocator@PAVCEventItem@@@std@@@std@@U?$less@H@2@V?$allocator@U?$pair@$$CBHPAV?$list@PAVCEventItem@@V?$allocator@PAVCEventItem@@@std@@@std@@@std@@@2@$0A@@std@@@2@I@Z
_TEXT	SEGMENT PARA USE32 PUBLIC 'CODE'
_TEXT	ENDS
;	COMDAT ??Eiterator@?$_Tree@V?$_Tmap_traits@HPAV?$list@PAVCEventItem@@V?$allocator@PAVCEventItem@@@std@@@std@@U?$less@H@2@V?$allocator@U?$pair@$$CBHPAV?$list@PAVCEventItem@@V?$allocator@PAVCEventItem@@@std@@@std@@@std@@@2@$0A@@std@@@std@@QAE?AV012@H@Z
_TEXT	SEGMENT PARA USE32 PUBLIC 'CODE'
_TEXT	ENDS
;	COMDAT ?_Dec@const_iterator@?$_Tree@V?$_Tmap_traits@HPAV?$list@PAVCEventItem@@V?$allocator@PAVCEventItem@@@std@@@std@@U?$less@H@2@V?$allocator@U?$pair@$$CBHPAV?$list@PAVCEventItem@@V?$allocator@PAVCEventItem@@@std@@@std@@@std@@@2@$0A@@std@@@std@@QAEXXZ
_TEXT	SEGMENT PARA USE32 PUBLIC 'CODE'
_TEXT	ENDS
;	COMDAT ?max_size@?$list@PAVCEventItem@@V?$allocator@PAVCEventItem@@@std@@@std@@QBEIXZ
_TEXT	SEGMENT PARA USE32 PUBLIC 'CODE'
_TEXT	ENDS
;	COMDAT ??0?$_List_nod@PAVCEventItem@@V?$allocator@PAVCEventItem@@@std@@@std@@IAE@V?$allocator@PAVCEventItem@@@1@@Z
_TEXT	SEGMENT PARA USE32 PUBLIC 'CODE'
_TEXT	ENDS
;	COMDAT ??0_Node@?$_List_nod@PAU_EVENT_GENERIC@@V?$allocator@PAU_EVENT_GENERIC@@@std@@@std@@QAE@PAU012@0ABQAU_EVENT_GENERIC@@@Z
_TEXT	SEGMENT PARA USE32 PUBLIC 'CODE'
_TEXT	ENDS
;	COMDAT ??0_Node@?$_Tree_nod@V?$_Tmap_traits@HPAV?$list@PAVCEventItem@@V?$allocator@PAVCEventItem@@@std@@@std@@U?$less@H@2@V?$allocator@U?$pair@$$CBHPAV?$list@PAVCEventItem@@V?$allocator@PAVCEventItem@@@std@@@std@@@std@@@2@$0A@@std@@@std@@QAE@PAU012@00ABU?$pair@$$CBHPAV?$list@PAVCEventItem@@V?$allocator@PAVCEventItem@@@std@@@std@@@2@D@Z
_TEXT	SEGMENT PARA USE32 PUBLIC 'CODE'
_TEXT	ENDS
;	COMDAT ??0_Node@?$_List_nod@PAVCEventItem@@V?$allocator@PAVCEventItem@@@std@@@std@@QAE@PAU012@0ABQAVCEventItem@@@Z
_TEXT	SEGMENT PARA USE32 PUBLIC 'CODE'
_TEXT	ENDS
;	COMDAT ?max_size@?$allocator@PAU_EVENT_GENERIC@@@std@@QBEIXZ
_TEXT	SEGMENT PARA USE32 PUBLIC 'CODE'
_TEXT	ENDS
;	COMDAT ?_Max@?$_Tree@V?$_Tmap_traits@HPAV?$list@PAVCEventItem@@V?$allocator@PAVCEventItem@@@std@@@std@@U?$less@H@2@V?$allocator@U?$pair@$$CBHPAV?$list@PAVCEventItem@@V?$allocator@PAVCEventItem@@@std@@@std@@@std@@@2@$0A@@std@@@std@@KAPAU_Node@?$_Tree_nod@V?$_Tmap_traits@HPAV?$list@PAVCEventItem@@V?$allocator@PAVCEventItem@@@std@@@std@@U?$less@H@2@V?$allocator@U?$pair@$$CBHPAV?$list@PAVCEventItem@@V?$allocator@PAVCEventItem@@@std@@@std@@@std@@@2@$0A@@std@@@2@PAU342@@Z
_TEXT	SEGMENT PARA USE32 PUBLIC 'CODE'
_TEXT	ENDS
;	COMDAT ??0?$_Tree_nod@V?$_Tmap_traits@HPAV?$list@PAVCEventItem@@V?$allocator@PAVCEventItem@@@std@@@std@@U?$less@H@2@V?$allocator@U?$pair@$$CBHPAV?$list@PAVCEventItem@@V?$allocator@PAVCEventItem@@@std@@@std@@@std@@@2@$0A@@std@@@std@@IAE@ABU?$less@H@1@V?$allocator@U?$pair@$$CBHPAV?$list@PAVCEventItem@@V?$allocator@PAVCEventItem@@@std@@@std@@@std@@@1@@Z
_TEXT	SEGMENT PARA USE32 PUBLIC 'CODE'
_TEXT	ENDS
;	COMDAT ?construct@?$allocator@PAU_Node@?$_Tree_nod@V?$_Tmap_traits@HPAV?$list@PAVCEventItem@@V?$allocator@PAVCEventItem@@@std@@@std@@U?$less@H@2@V?$allocator@U?$pair@$$CBHPAV?$list@PAVCEventItem@@V?$allocator@PAVCEventItem@@@std@@@std@@@std@@@2@$0A@@std@@@std@@@std@@QAEXPAPAU_Node@?$_Tree_nod@V?$_Tmap_traits@HPAV?$list@PAVCEventItem@@V?$allocator@PAVCEventItem@@@std@@@std@@U?$less@H@2@V?$allocator@U?$pair@$$CBHPAV?$list@PAVCEventItem@@V?$allocator@PAVCEventItem@@@std@@@std@@@std@@@2@$0A@@std@@@2@ABQAU342@@Z
_TEXT	SEGMENT PARA USE32 PUBLIC 'CODE'
_TEXT	ENDS
;	COMDAT ?max_size@?$allocator@PAVCEventItem@@@std@@QBEIXZ
_TEXT	SEGMENT PARA USE32 PUBLIC 'CODE'
_TEXT	ENDS
;	COMDAT ??0?$_Tmap_traits@HPAV?$list@PAVCEventItem@@V?$allocator@PAVCEventItem@@@std@@@std@@U?$less@H@2@V?$allocator@U?$pair@$$CBHPAV?$list@PAVCEventItem@@V?$allocator@PAVCEventItem@@@std@@@std@@@std@@@2@$0A@@std@@QAE@U?$less@H@1@@Z
_TEXT	SEGMENT PARA USE32 PUBLIC 'CODE'
_TEXT	ENDS
;	COMDAT ??$_Iter_cat@Viterator@?$_Tree@V?$_Tmap_traits@KU_Friend@@U?$less@K@std@@V?$allocator@U?$pair@$$CBKU_Friend@@@std@@@3@$0A@@std@@@std@@@std@@YA?AUbidirectional_iterator_tag@0@ABViterator@?$_Tree@V?$_Tmap_traits@KU_Friend@@U?$less@K@std@@V?$allocator@U?$pair@$$CBKU_Friend@@@std@@@3@$0A@@std@@@0@@Z
_TEXT	SEGMENT PARA USE32 PUBLIC 'CODE'
_TEXT	ENDS
;	COMDAT ??$_Distance2@Viterator@?$_Tree@V?$_Tmap_traits@KU_Friend@@U?$less@K@std@@V?$allocator@U?$pair@$$CBKU_Friend@@@std@@@3@$0A@@std@@@std@@I@std@@YAXViterator@?$_Tree@V?$_Tmap_traits@KU_Friend@@U?$less@K@std@@V?$allocator@U?$pair@$$CBKU_Friend@@@std@@@3@$0A@@std@@@0@0AAIUbidirectional_iterator_tag@0@@Z
_TEXT	SEGMENT PARA USE32 PUBLIC 'CODE'
_TEXT	ENDS
;	COMDAT ??$_Copy_opt@PAJPAJ@std@@YAPAJPAJ00U_Scalar_ptr_iterator_tag@0@@Z
_TEXT	SEGMENT PARA USE32 PUBLIC 'CODE'
_TEXT	ENDS
;	COMDAT ??$_Uninitialized_copy@PAJPAJV?$allocator@J@std@@@std@@YAPAJPAJ00AAV?$allocator@J@0@@Z
_TEXT	SEGMENT PARA USE32 PUBLIC 'CODE'
_TEXT	ENDS
;	COMDAT ??$_Copy_backward_opt@PAJPAJ@std@@YAPAJPAJ00U_Scalar_ptr_iterator_tag@0@@Z
_TEXT	SEGMENT PARA USE32 PUBLIC 'CODE'
_TEXT	ENDS
;	COMDAT ??$_Ptr_cat@PAUtagDROPITEM@@PAU1@@std@@YA?AU_Nonscalar_ptr_iterator_tag@0@AAPAUtagDROPITEM@@0@Z
_TEXT	SEGMENT PARA USE32 PUBLIC 'CODE'
_TEXT	ENDS
;	COMDAT ??$_Destroy_range@UtagDROPITEM@@V?$allocator@UtagDROPITEM@@@std@@@std@@YAXPAUtagDROPITEM@@0AAV?$allocator@UtagDROPITEM@@@0@U_Nonscalar_ptr_iterator_tag@0@@Z
_TEXT	SEGMENT PARA USE32 PUBLIC 'CODE'
_TEXT	ENDS
;	COMDAT ??$_Destroy_range@KV?$allocator@K@std@@@std@@YAXPAK0AAV?$allocator@K@0@U_Scalar_ptr_iterator_tag@0@@Z
_TEXT	SEGMENT PARA USE32 PUBLIC 'CODE'
_TEXT	ENDS
;	COMDAT ??$_Destroy_range@JV?$allocator@J@std@@@std@@YAXPAJ0AAV?$allocator@J@0@U_Scalar_ptr_iterator_tag@0@@Z
_TEXT	SEGMENT PARA USE32 PUBLIC 'CODE'
_TEXT	ENDS
;	COMDAT ??$_Uninit_fill_n@JIJ@std@@YAXPAJIABJAAV?$allocator@J@0@U_Scalar_ptr_iterator_tag@0@@Z
_TEXT	SEGMENT PARA USE32 PUBLIC 'CODE'
_TEXT	ENDS
;	COMDAT ??$_Destroy@U_Node@?$_List_nod@PAU_EVENT_GENERIC@@V?$allocator@PAU_EVENT_GENERIC@@@std@@@std@@@std@@YAXPAU_Node@?$_List_nod@PAU_EVENT_GENERIC@@V?$allocator@PAU_EVENT_GENERIC@@@std@@@0@@Z
_TEXT	SEGMENT PARA USE32 PUBLIC 'CODE'
_TEXT	ENDS
;	COMDAT ??$_Destroy@U_Node@?$_List_nod@PAVCEventItem@@V?$allocator@PAVCEventItem@@@std@@@std@@@std@@YAXPAU_Node@?$_List_nod@PAVCEventItem@@V?$allocator@PAVCEventItem@@@std@@@0@@Z
_TEXT	SEGMENT PARA USE32 PUBLIC 'CODE'
_TEXT	ENDS
;	COMDAT ??$?0PAU_EVENT_GENERIC@@@?$allocator@PAU_Node@?$_List_nod@PAU_EVENT_GENERIC@@V?$allocator@PAU_EVENT_GENERIC@@@std@@@std@@@std@@QAE@ABV?$allocator@PAU_EVENT_GENERIC@@@1@@Z
_TEXT	SEGMENT PARA USE32 PUBLIC 'CODE'
_TEXT	ENDS
;	COMDAT ??$_Allocate@U_Node@?$_List_nod@PAU_EVENT_GENERIC@@V?$allocator@PAU_EVENT_GENERIC@@@std@@@std@@@std@@YAPAU_Node@?$_List_nod@PAU_EVENT_GENERIC@@V?$allocator@PAU_EVENT_GENERIC@@@std@@@0@IPAU120@@Z
_TEXT	SEGMENT PARA USE32 PUBLIC 'CODE'
_TEXT	ENDS
;	COMDAT ??$_Construct@PAU_Node@?$_List_nod@PAU_EVENT_GENERIC@@V?$allocator@PAU_EVENT_GENERIC@@@std@@@std@@PAU123@@std@@YAXPAPAU_Node@?$_List_nod@PAU_EVENT_GENERIC@@V?$allocator@PAU_EVENT_GENERIC@@@std@@@0@ABQAU120@@Z
_TEXT	SEGMENT PARA USE32 PUBLIC 'CODE'
_TEXT	ENDS
;	COMDAT ??$_Destroy@PAU_Node@?$_List_nod@PAU_EVENT_GENERIC@@V?$allocator@PAU_EVENT_GENERIC@@@std@@@std@@@std@@YAXPAPAU_Node@?$_List_nod@PAU_EVENT_GENERIC@@V?$allocator@PAU_EVENT_GENERIC@@@std@@@0@@Z
_TEXT	SEGMENT PARA USE32 PUBLIC 'CODE'
_TEXT	ENDS
;	COMDAT ??$_Destroy@U_Node@?$_Tree_nod@V?$_Tmap_traits@HPAV?$list@PAVCEventItem@@V?$allocator@PAVCEventItem@@@std@@@std@@U?$less@H@2@V?$allocator@U?$pair@$$CBHPAV?$list@PAVCEventItem@@V?$allocator@PAVCEventItem@@@std@@@std@@@std@@@2@$0A@@std@@@std@@@std@@YAXPAU_Node@?$_Tree_nod@V?$_Tmap_traits@HPAV?$list@PAVCEventItem@@V?$allocator@PAVCEventItem@@@std@@@std@@U?$less@H@2@V?$allocator@U?$pair@$$CBHPAV?$list@PAVCEventItem@@V?$allocator@PAVCEventItem@@@std@@@std@@@std@@@2@$0A@@std@@@0@@Z
_TEXT	SEGMENT PARA USE32 PUBLIC 'CODE'
_TEXT	ENDS
;	COMDAT ??$_Destroy@PAU_Node@?$_Tree_nod@V?$_Tmap_traits@HPAV?$list@PAVCEventItem@@V?$allocator@PAVCEventItem@@@std@@@std@@U?$less@H@2@V?$allocator@U?$pair@$$CBHPAV?$list@PAVCEventItem@@V?$allocator@PAVCEventItem@@@std@@@std@@@std@@@2@$0A@@std@@@std@@@std@@YAXPAPAU_Node@?$_Tree_nod@V?$_Tmap_traits@HPAV?$list@PAVCEventItem@@V?$allocator@PAVCEventItem@@@std@@@std@@U?$less@H@2@V?$allocator@U?$pair@$$CBHPAV?$list@PAVCEventItem@@V?$allocator@PAVCEventItem@@@std@@@std@@@std@@@2@$0A@@std@@@0@@Z
_TEXT	SEGMENT PARA USE32 PUBLIC 'CODE'
_TEXT	ENDS
;	COMDAT ??$?0PAVCEventItem@@@?$allocator@PAU_Node@?$_List_nod@PAVCEventItem@@V?$allocator@PAVCEventItem@@@std@@@std@@@std@@QAE@ABV?$allocator@PAVCEventItem@@@1@@Z
_TEXT	SEGMENT PARA USE32 PUBLIC 'CODE'
_TEXT	ENDS
;	COMDAT ??$_Allocate@U_Node@?$_List_nod@PAVCEventItem@@V?$allocator@PAVCEventItem@@@std@@@std@@@std@@YAPAU_Node@?$_List_nod@PAVCEventItem@@V?$allocator@PAVCEventItem@@@std@@@0@IPAU120@@Z
_TEXT	SEGMENT PARA USE32 PUBLIC 'CODE'
_TEXT	ENDS
;	COMDAT ??$_Construct@PAU_Node@?$_List_nod@PAVCEventItem@@V?$allocator@PAVCEventItem@@@std@@@std@@PAU123@@std@@YAXPAPAU_Node@?$_List_nod@PAVCEventItem@@V?$allocator@PAVCEventItem@@@std@@@0@ABQAU120@@Z
_TEXT	SEGMENT PARA USE32 PUBLIC 'CODE'
_TEXT	ENDS
;	COMDAT ??$_Destroy@PAU_Node@?$_List_nod@PAVCEventItem@@V?$allocator@PAVCEventItem@@@std@@@std@@@std@@YAXPAPAU_Node@?$_List_nod@PAVCEventItem@@V?$allocator@PAVCEventItem@@@std@@@0@@Z
_TEXT	SEGMENT PARA USE32 PUBLIC 'CODE'
_TEXT	ENDS
;	COMDAT ??$?0PAU_EVENT_GENERIC@@@?$allocator@U_Node@?$_List_nod@PAU_EVENT_GENERIC@@V?$allocator@PAU_EVENT_GENERIC@@@std@@@std@@@std@@QAE@ABV?$allocator@PAU_EVENT_GENERIC@@@1@@Z
_TEXT	SEGMENT PARA USE32 PUBLIC 'CODE'
_TEXT	ENDS
;	COMDAT ??$?0U?$pair@$$CBHPAV?$list@PAVCEventItem@@V?$allocator@PAVCEventItem@@@std@@@std@@@std@@@?$allocator@PAU_Node@?$_Tree_nod@V?$_Tmap_traits@HPAV?$list@PAVCEventItem@@V?$allocator@PAVCEventItem@@@std@@@std@@U?$less@H@2@V?$allocator@U?$pair@$$CBHPAV?$list@PAVCEventItem@@V?$allocator@PAVCEventItem@@@std@@@std@@@std@@@2@$0A@@std@@@std@@@std@@QAE@ABV?$allocator@U?$pair@$$CBHPAV?$list@PAVCEventItem@@V?$allocator@PAVCEventItem@@@std@@@std@@@std@@@1@@Z
_TEXT	SEGMENT PARA USE32 PUBLIC 'CODE'
_TEXT	ENDS
;	COMDAT ??$_Allocate@U_Node@?$_Tree_nod@V?$_Tmap_traits@HPAV?$list@PAVCEventItem@@V?$allocator@PAVCEventItem@@@std@@@std@@U?$less@H@2@V?$allocator@U?$pair@$$CBHPAV?$list@PAVCEventItem@@V?$allocator@PAVCEventItem@@@std@@@std@@@std@@@2@$0A@@std@@@std@@@std@@YAPAU_Node@?$_Tree_nod@V?$_Tmap_traits@HPAV?$list@PAVCEventItem@@V?$allocator@PAVCEventItem@@@std@@@std@@U?$less@H@2@V?$allocator@U?$pair@$$CBHPAV?$list@PAVCEventItem@@V?$allocator@PAVCEventItem@@@std@@@std@@@std@@@2@$0A@@std@@@0@IPAU120@@Z
_TEXT	SEGMENT PARA USE32 PUBLIC 'CODE'
_TEXT	ENDS
;	COMDAT ??$?0PAVCEventItem@@@?$allocator@U_Node@?$_List_nod@PAVCEventItem@@V?$allocator@PAVCEventItem@@@std@@@std@@@std@@QAE@ABV?$allocator@PAVCEventItem@@@1@@Z
_TEXT	SEGMENT PARA USE32 PUBLIC 'CODE'
_TEXT	ENDS
;	COMDAT ??$?0U?$pair@$$CBHPAV?$list@PAVCEventItem@@V?$allocator@PAVCEventItem@@@std@@@std@@@std@@@?$allocator@U_Node@?$_Tree_nod@V?$_Tmap_traits@HPAV?$list@PAVCEventItem@@V?$allocator@PAVCEventItem@@@std@@@std@@U?$less@H@2@V?$allocator@U?$pair@$$CBHPAV?$list@PAVCEventItem@@V?$allocator@PAVCEventItem@@@std@@@std@@@std@@@2@$0A@@std@@@std@@@std@@QAE@ABV?$allocator@U?$pair@$$CBHPAV?$list@PAVCEventItem@@V?$allocator@PAVCEventItem@@@std@@@std@@@std@@@1@@Z
_TEXT	SEGMENT PARA USE32 PUBLIC 'CODE'
_TEXT	ENDS
;	COMDAT ??$_Construct@PAU_Node@?$_Tree_nod@V?$_Tmap_traits@HPAV?$list@PAVCEventItem@@V?$allocator@PAVCEventItem@@@std@@@std@@U?$less@H@2@V?$allocator@U?$pair@$$CBHPAV?$list@PAVCEventItem@@V?$allocator@PAVCEventItem@@@std@@@std@@@std@@@2@$0A@@std@@@std@@PAU123@@std@@YAXPAPAU_Node@?$_Tree_nod@V?$_Tmap_traits@HPAV?$list@PAVCEventItem@@V?$allocator@PAVCEventItem@@@std@@@std@@U?$less@H@2@V?$allocator@U?$pair@$$CBHPAV?$list@PAVCEventItem@@V?$allocator@PAVCEventItem@@@std@@@std@@@std@@@2@$0A@@std@@@0@ABQAU120@@Z
_TEXT	SEGMENT PARA USE32 PUBLIC 'CODE'
_TEXT	ENDS
;	COMDAT ?destroy@?$allocator@UtagDROPITEM@@@std@@QAEXPAUtagDROPITEM@@@Z
_TEXT	SEGMENT PARA USE32 PUBLIC 'CODE'
_TEXT	ENDS
;	COMDAT ??$_Uninit_copy@JJ@std@@YAPAJPAJ00AAV?$allocator@J@0@U_Scalar_ptr_iterator_tag@0@@Z
_TEXT	SEGMENT PARA USE32 PUBLIC 'CODE'
_TEXT	ENDS
;	COMDAT ??$fill_n@PAJIJ@std@@YAXPAJIABJ@Z
_TEXT	SEGMENT PARA USE32 PUBLIC 'CODE'
_TEXT	ENDS
;	COMDAT ??$_Destroy@UtagDROPITEM@@@std@@YAXPAUtagDROPITEM@@@Z
_TEXT	SEGMENT PARA USE32 PUBLIC 'CODE'
_TEXT	ENDS
;	COMDAT ?_Ptr_cat@std@@YA?AU_Scalar_ptr_iterator_tag@1@PAJ0@Z
_TEXT	SEGMENT PARA USE32 PUBLIC 'CODE'
_TEXT	ENDS
;	COMDAT ??9const_iterator@?$_Tree@V?$_Tmap_traits@KU_Friend@@U?$less@K@std@@V?$allocator@U?$pair@$$CBKU_Friend@@@std@@@3@$0A@@std@@@std@@QBE_NABV012@@Z
_TEXT	SEGMENT PARA USE32 PUBLIC 'CODE'
_TEXT	ENDS
;	COMDAT ??8const_iterator@?$_Tree@V?$_Tmap_traits@KU_Friend@@U?$less@K@std@@V?$allocator@U?$pair@$$CBKU_Friend@@@std@@@3@$0A@@std@@@std@@QBE_NABV012@@Z
_TEXT	SEGMENT PARA USE32 PUBLIC 'CODE'
_TEXT	ENDS
;	COMDAT ??Eiterator@?$_Tree@V?$_Tmap_traits@KU_Friend@@U?$less@K@std@@V?$allocator@U?$pair@$$CBKU_Friend@@@std@@@3@$0A@@std@@@std@@QAEAAV012@XZ
_TEXT	SEGMENT PARA USE32 PUBLIC 'CODE'
_TEXT	ENDS
;	COMDAT ??Econst_iterator@?$_Tree@V?$_Tmap_traits@KU_Friend@@U?$less@K@std@@V?$allocator@U?$pair@$$CBKU_Friend@@@std@@@3@$0A@@std@@@std@@QAEAAV012@XZ
_TEXT	SEGMENT PARA USE32 PUBLIC 'CODE'
_TEXT	ENDS
;	COMDAT ?_Inc@const_iterator@?$_Tree@V?$_Tmap_traits@KU_Friend@@U?$less@K@std@@V?$allocator@U?$pair@$$CBKU_Friend@@@std@@@3@$0A@@std@@@std@@QAEXXZ
_TEXT	SEGMENT PARA USE32 PUBLIC 'CODE'
_TEXT	ENDS
;	COMDAT ?_Min@?$_Tree@V?$_Tmap_traits@KU_Friend@@U?$less@K@std@@V?$allocator@U?$pair@$$CBKU_Friend@@@std@@@3@$0A@@std@@@std@@KAPAU_Node@?$_Tree_nod@V?$_Tmap_traits@KU_Friend@@U?$less@K@std@@V?$allocator@U?$pair@$$CBKU_Friend@@@std@@@3@$0A@@std@@@2@PAU342@@Z
_TEXT	SEGMENT PARA USE32 PUBLIC 'CODE'
_TEXT	ENDS
;	COMDAT ?_Left@?$_Tree@V?$_Tmap_traits@KU_Friend@@U?$less@K@std@@V?$allocator@U?$pair@$$CBKU_Friend@@@std@@@3@$0A@@std@@@std@@KAAAPAU_Node@?$_Tree_nod@V?$_Tmap_traits@KU_Friend@@U?$less@K@std@@V?$allocator@U?$pair@$$CBKU_Friend@@@std@@@3@$0A@@std@@@2@PAU342@@Z
_TEXT	SEGMENT PARA USE32 PUBLIC 'CODE'
_TEXT	ENDS
;	COMDAT ?_Isnil@?$_Tree@V?$_Tmap_traits@KU_Friend@@U?$less@K@std@@V?$allocator@U?$pair@$$CBKU_Friend@@@std@@@3@$0A@@std@@@std@@KAAADPAU_Node@?$_Tree_nod@V?$_Tmap_traits@KU_Friend@@U?$less@K@std@@V?$allocator@U?$pair@$$CBKU_Friend@@@std@@@3@$0A@@std@@@2@@Z
_TEXT	SEGMENT PARA USE32 PUBLIC 'CODE'
_TEXT	ENDS
;	COMDAT ?_Parent@?$_Tree@V?$_Tmap_traits@KU_Friend@@U?$less@K@std@@V?$allocator@U?$pair@$$CBKU_Friend@@@std@@@3@$0A@@std@@@std@@KAAAPAU_Node@?$_Tree_nod@V?$_Tmap_traits@KU_Friend@@U?$less@K@std@@V?$allocator@U?$pair@$$CBKU_Friend@@@std@@@3@$0A@@std@@@2@PAU342@@Z
_TEXT	SEGMENT PARA USE32 PUBLIC 'CODE'
_TEXT	ENDS
;	COMDAT ?_Right@?$_Tree@V?$_Tmap_traits@KU_Friend@@U?$less@K@std@@V?$allocator@U?$pair@$$CBKU_Friend@@@std@@@3@$0A@@std@@@std@@KAAAPAU_Node@?$_Tree_nod@V?$_Tmap_traits@KU_Friend@@U?$less@K@std@@V?$allocator@U?$pair@$$CBKU_Friend@@@std@@@3@$0A@@std@@@2@PAU342@@Z
_TEXT	SEGMENT PARA USE32 PUBLIC 'CODE'
_TEXT	ENDS
;	COMDAT ?_Psave@?$_Facetptr@V?$ctype@G@std@@@std@@2PBVfacet@locale@2@B
_DATA	SEGMENT DWORD USE32 PUBLIC 'DATA'
_DATA	ENDS
;	COMDAT ?_Psave@?$_Facetptr@V?$ctype@D@std@@@std@@2PBVfacet@locale@2@B
_DATA	SEGMENT DWORD USE32 PUBLIC 'DATA'
_DATA	ENDS
;	COMDAT ??$swap@D@std@@YAXAAD0@Z
_TEXT	SEGMENT PARA USE32 PUBLIC 'CODE'
_TEXT	ENDS
;	COMDAT __TI3?AVout_of_range@std@@
xdata$x	SEGMENT DWORD USE32 PUBLIC 'CONST'
xdata$x	ENDS
;	COMDAT ??1out_of_range@std@@UAE@XZ
_TEXT	SEGMENT PARA USE32 PUBLIC 'CODE'
_TEXT	ENDS
;	COMDAT ??_7out_of_range@std@@6B@
CONST	SEGMENT DWORD USE32 PUBLIC 'CONST'
CONST	ENDS
;	COMDAT ??_Gout_of_range@std@@UAEPAXI@Z
_TEXT	SEGMENT PARA USE32 PUBLIC 'CODE'
_TEXT	ENDS
;	COMDAT ?what@logic_error@std@@UBEPBDXZ
_TEXT	SEGMENT PARA USE32 PUBLIC 'CODE'
_TEXT	ENDS
;	COMDAT ?c_str@?$basic_string@DU?$char_traits@D@std@@V?$allocator@D@2@@std@@QBEPBDXZ
_TEXT	SEGMENT PARA USE32 PUBLIC 'CODE'
_TEXT	ENDS
;	COMDAT ??1logic_error@std@@UAE@XZ
_TEXT	SEGMENT PARA USE32 PUBLIC 'CODE'
_TEXT	ENDS
;	COMDAT ??_7logic_error@std@@6B@
CONST	SEGMENT DWORD USE32 PUBLIC 'CONST'
CONST	ENDS
;	COMDAT ??_Glogic_error@std@@UAEPAXI@Z
_TEXT	SEGMENT PARA USE32 PUBLIC 'CODE'
_TEXT	ENDS
;	COMDAT __CTA3?AVout_of_range@std@@
xdata$x	SEGMENT DWORD USE32 PUBLIC 'CONST'
xdata$x	ENDS
;	COMDAT __CT??_R0?AVout_of_range@std@@@8??0out_of_range@std@@QAE@ABV01@@Z40
xdata$x	SEGMENT DWORD USE32 PUBLIC 'CONST'
xdata$x	ENDS
;	COMDAT ??_R0?AVout_of_range@std@@@8
_DATA	SEGMENT DWORD USE32 PUBLIC 'DATA'
_DATA	ENDS
;	COMDAT ??0out_of_range@std@@QAE@ABV01@@Z
_TEXT	SEGMENT PARA USE32 PUBLIC 'CODE'
_TEXT	ENDS
;	COMDAT ??0logic_error@std@@QAE@ABV01@@Z
_TEXT	SEGMENT PARA USE32 PUBLIC 'CODE'
_TEXT	ENDS
;	COMDAT ??0?$basic_string@DU?$char_traits@D@std@@V?$allocator@D@2@@std@@QAE@ABV01@@Z
_TEXT	SEGMENT PARA USE32 PUBLIC 'CODE'
_TEXT	ENDS
;	COMDAT ??0?$_String_val@DV?$allocator@D@std@@@std@@IAE@V?$allocator@D@1@@Z
_TEXT	SEGMENT PARA USE32 PUBLIC 'CODE'
_TEXT	ENDS
;	COMDAT ??0?$allocator@D@std@@QAE@ABV01@@Z
_TEXT	SEGMENT PARA USE32 PUBLIC 'CODE'
_TEXT	ENDS
;	COMDAT ?_Tidy@?$basic_string@DU?$char_traits@D@std@@V?$allocator@D@2@@std@@IAEX_NI@Z
_TEXT	SEGMENT PARA USE32 PUBLIC 'CODE'
_TEXT	ENDS
;	COMDAT ?copy@?$char_traits@D@std@@SAPADPADPBDI@Z
_TEXT	SEGMENT PARA USE32 PUBLIC 'CODE'
_TEXT	ENDS
;	COMDAT ?deallocate@?$allocator@D@std@@QAEXPADI@Z
_TEXT	SEGMENT PARA USE32 PUBLIC 'CODE'
_TEXT	ENDS
;	COMDAT ?_Eos@?$basic_string@DU?$char_traits@D@std@@V?$allocator@D@2@@std@@IAEXI@Z
_TEXT	SEGMENT PARA USE32 PUBLIC 'CODE'
_TEXT	ENDS
;	COMDAT ?assign@?$char_traits@D@std@@SAXAADABD@Z
_TEXT	SEGMENT PARA USE32 PUBLIC 'CODE'
_TEXT	ENDS
;	COMDAT ?_Myptr@?$basic_string@DU?$char_traits@D@std@@V?$allocator@D@2@@std@@QAEPADXZ
_TEXT	SEGMENT PARA USE32 PUBLIC 'CODE'
_TEXT	ENDS
;	COMDAT ?assign@?$basic_string@DU?$char_traits@D@std@@V?$allocator@D@2@@std@@QAEAAV12@ABV12@II@Z
_TEXT	SEGMENT PARA USE32 PUBLIC 'CODE'
_TEXT	ENDS
;	COMDAT ?erase@?$basic_string@DU?$char_traits@D@std@@V?$allocator@D@2@@std@@QAEAAV12@II@Z
_TEXT	SEGMENT PARA USE32 PUBLIC 'CODE'
_TEXT	ENDS
;	COMDAT ?move@?$char_traits@D@std@@SAPADPADPBDI@Z
_TEXT	SEGMENT PARA USE32 PUBLIC 'CODE'
_TEXT	ENDS
;	COMDAT ?_Grow@?$basic_string@DU?$char_traits@D@std@@V?$allocator@D@2@@std@@IAE_NI_N@Z
_TEXT	SEGMENT PARA USE32 PUBLIC 'CODE'
_TEXT	ENDS
;	COMDAT ?max_size@?$basic_string@DU?$char_traits@D@std@@V?$allocator@D@2@@std@@QBEIXZ
_TEXT	SEGMENT PARA USE32 PUBLIC 'CODE'
_TEXT	ENDS
;	COMDAT ?max_size@?$allocator@D@std@@QBEIXZ
_TEXT	SEGMENT PARA USE32 PUBLIC 'CODE'
_TEXT	ENDS
;	COMDAT ?_Copy@?$basic_string@DU?$char_traits@D@std@@V?$allocator@D@2@@std@@IAEXII@Z
_TEXT	SEGMENT PARA USE32 PUBLIC 'CODE'
_TEXT	ENDS
;	COMDAT ?allocate@?$allocator@D@std@@QAEPADI@Z
_TEXT	SEGMENT PARA USE32 PUBLIC 'CODE'
_TEXT	ENDS
;	COMDAT ??$_Allocate@D@std@@YAPADIPAD@Z
_TEXT	SEGMENT PARA USE32 PUBLIC 'CODE'
_TEXT	ENDS
;	COMDAT ?npos@?$basic_string@DU?$char_traits@D@std@@V?$allocator@D@2@@std@@2IB
CONST	SEGMENT DWORD USE32 PUBLIC 'CONST'
CONST	ENDS
;	COMDAT __CT??_R0?AVlogic_error@std@@@8??0logic_error@std@@QAE@ABV01@@Z40
xdata$x	SEGMENT DWORD USE32 PUBLIC 'CONST'
xdata$x	ENDS
;	COMDAT ??_R0?AVlogic_error@std@@@8
_DATA	SEGMENT DWORD USE32 PUBLIC 'DATA'
_DATA	ENDS
;	COMDAT __CT??_R0?AVexception@@@8??0exception@@QAE@ABV0@@Z12
xdata$x	SEGMENT DWORD USE32 PUBLIC 'CONST'
xdata$x	ENDS
;	COMDAT ??_R0?AVexception@@@8
_DATA	SEGMENT DWORD USE32 PUBLIC 'DATA'
_DATA	ENDS
;	COMDAT ??_C@_0BM@PAPJHAGI@invalid?5map?1set?$DMT?$DO?5iterator?$AA@
CONST	SEGMENT DWORD USE32 PUBLIC 'CONST'
CONST	ENDS
;	COMDAT ??0out_of_range@std@@QAE@ABV?$basic_string@DU?$char_traits@D@std@@V?$allocator@D@2@@1@@Z
_TEXT	SEGMENT PARA USE32 PUBLIC 'CODE'
_TEXT	ENDS
;	COMDAT ??0logic_error@std@@QAE@ABV?$basic_string@DU?$char_traits@D@std@@V?$allocator@D@2@@1@@Z
_TEXT	SEGMENT PARA USE32 PUBLIC 'CODE'
_TEXT	ENDS
;	COMDAT ??_C@_0BB@MOGOBHAF@list?$DMT?$DO?5too?5long?$AA@
CONST	SEGMENT DWORD USE32 PUBLIC 'CONST'
CONST	ENDS
;	COMDAT ??3@YAXPAX0@Z
_TEXT	SEGMENT PARA USE32 PUBLIC 'CODE'
_TEXT	ENDS
;	COMDAT ??2@YAPAXIPAX@Z
_TEXT	SEGMENT PARA USE32 PUBLIC 'CODE'
_TEXT	ENDS
;	COMDAT __TI3?AVlength_error@std@@
xdata$x	SEGMENT DWORD USE32 PUBLIC 'CONST'
xdata$x	ENDS
;	COMDAT ??1length_error@std@@UAE@XZ
_TEXT	SEGMENT PARA USE32 PUBLIC 'CODE'
_TEXT	ENDS
;	COMDAT ??_7length_error@std@@6B@
CONST	SEGMENT DWORD USE32 PUBLIC 'CONST'
CONST	ENDS
;	COMDAT ??_Glength_error@std@@UAEPAXI@Z
_TEXT	SEGMENT PARA USE32 PUBLIC 'CODE'
_TEXT	ENDS
;	COMDAT __CTA3?AVlength_error@std@@
xdata$x	SEGMENT DWORD USE32 PUBLIC 'CONST'
xdata$x	ENDS
;	COMDAT __CT??_R0?AVlength_error@std@@@8??0length_error@std@@QAE@ABV01@@Z40
xdata$x	SEGMENT DWORD USE32 PUBLIC 'CONST'
xdata$x	ENDS
;	COMDAT ??_R0?AVlength_error@std@@@8
_DATA	SEGMENT DWORD USE32 PUBLIC 'DATA'
_DATA	ENDS
;	COMDAT ??0length_error@std@@QAE@ABV01@@Z
_TEXT	SEGMENT PARA USE32 PUBLIC 'CODE'
_TEXT	ENDS
;	COMDAT ??1?$basic_string@DU?$char_traits@D@std@@V?$allocator@D@2@@std@@QAE@XZ
_TEXT	SEGMENT PARA USE32 PUBLIC 'CODE'
_TEXT	ENDS
;	COMDAT ??_C@_0BE@JONHPENG@map?1set?$DMT?$DO?5too?5long?$AA@
CONST	SEGMENT DWORD USE32 PUBLIC 'CONST'
CONST	ENDS
;	COMDAT ??0?$basic_string@DU?$char_traits@D@std@@V?$allocator@D@2@@std@@QAE@PBD@Z
_TEXT	SEGMENT PARA USE32 PUBLIC 'CODE'
_TEXT	ENDS
;	COMDAT ??0?$allocator@D@std@@QAE@XZ
_TEXT	SEGMENT PARA USE32 PUBLIC 'CODE'
_TEXT	ENDS
;	COMDAT ?assign@?$basic_string@DU?$char_traits@D@std@@V?$allocator@D@2@@std@@QAEAAV12@PBD@Z
_TEXT	SEGMENT PARA USE32 PUBLIC 'CODE'
_TEXT	ENDS
;	COMDAT ?assign@?$basic_string@DU?$char_traits@D@std@@V?$allocator@D@2@@std@@QAEAAV12@PBDI@Z
_TEXT	SEGMENT PARA USE32 PUBLIC 'CODE'
_TEXT	ENDS
;	COMDAT ?_Inside@?$basic_string@DU?$char_traits@D@std@@V?$allocator@D@2@@std@@IAE_NPBD@Z
_TEXT	SEGMENT PARA USE32 PUBLIC 'CODE'
_TEXT	ENDS
;	COMDAT ?length@?$char_traits@D@std@@SAIPBD@Z
_TEXT	SEGMENT PARA USE32 PUBLIC 'CODE'
_TEXT	ENDS
;	COMDAT ??0length_error@std@@QAE@ABV?$basic_string@DU?$char_traits@D@std@@V?$allocator@D@2@@1@@Z
_TEXT	SEGMENT PARA USE32 PUBLIC 'CODE'
_TEXT	ENDS
;	COMDAT ?compare@?$char_traits@D@std@@SAHPBD0I@Z
_TEXT	SEGMENT PARA USE32 PUBLIC 'CODE'
_TEXT	ENDS
;	COMDAT ?_Myptr@?$basic_string@DU?$char_traits@D@std@@V?$allocator@D@2@@std@@QBEPBDXZ
_TEXT	SEGMENT PARA USE32 PUBLIC 'CODE'
_TEXT	ENDS
;	COMDAT ?size@?$basic_string@DU?$char_traits@D@std@@V?$allocator@D@2@@std@@QBEIXZ
_TEXT	SEGMENT PARA USE32 PUBLIC 'CODE'
_TEXT	ENDS
;	COMDAT ?ReleaseBufferSetLength@?$CSimpleStringT@D$0A@@ATL@@QAEXH@Z
_TEXT	SEGMENT PARA USE32 PUBLIC 'CODE'
_TEXT	ENDS
;	COMDAT ?SetLength@?$CSimpleStringT@D$0A@@ATL@@AAEXH@Z
_TEXT	SEGMENT PARA USE32 PUBLIC 'CODE'
_TEXT	ENDS
;	COMDAT ?AtlThrow@ATL@@YGXJ@Z
_TEXT	SEGMENT PARA USE32 PUBLIC 'CODE'
_TEXT	ENDS
;	COMDAT ?GetData@?$CSimpleStringT@D$0A@@ATL@@ABEPAUCStringData@2@XZ
_TEXT	SEGMENT PARA USE32 PUBLIC 'CODE'
_TEXT	ENDS
;	COMDAT ?GetBuffer@?$CSimpleStringT@D$0A@@ATL@@QAEPADH@Z
_TEXT	SEGMENT PARA USE32 PUBLIC 'CODE'
_TEXT	ENDS
;	COMDAT ?PrepareWrite@?$CSimpleStringT@D$0A@@ATL@@AAEPADH@Z
_TEXT	SEGMENT PARA USE32 PUBLIC 'CODE'
_TEXT	ENDS
;	COMDAT ?PrepareWrite2@?$CSimpleStringT@D$0A@@ATL@@AAEXH@Z
_TEXT	SEGMENT PARA USE32 PUBLIC 'CODE'
_TEXT	ENDS
;	COMDAT ?IsShared@CStringData@ATL@@QBE_NXZ
_TEXT	SEGMENT PARA USE32 PUBLIC 'CODE'
_TEXT	ENDS
;	COMDAT ?Fork@?$CSimpleStringT@D$0A@@ATL@@AAEXH@Z
_TEXT	SEGMENT PARA USE32 PUBLIC 'CODE'
_TEXT	ENDS
;	COMDAT ?ThrowMemoryException@?$CSimpleStringT@D$0A@@ATL@@KAXXZ
_TEXT	SEGMENT PARA USE32 PUBLIC 'CODE'
_TEXT	ENDS
;	COMDAT ?CopyChars@?$CSimpleStringT@D$0A@@ATL@@SAXPADPBDH@Z
_TEXT	SEGMENT PARA USE32 PUBLIC 'CODE'
_TEXT	ENDS
;	COMDAT ?data@CStringData@ATL@@QAEPAXXZ
_TEXT	SEGMENT PARA USE32 PUBLIC 'CODE'
_TEXT	ENDS
;	COMDAT ?Release@CStringData@ATL@@QAEXXZ
_TEXT	SEGMENT PARA USE32 PUBLIC 'CODE'
_TEXT	ENDS
;	COMDAT ?Attach@?$CSimpleStringT@D$0A@@ATL@@AAEXPAUCStringData@2@@Z
_TEXT	SEGMENT PARA USE32 PUBLIC 'CODE'
_TEXT	ENDS
;	COMDAT ?Reallocate@?$CSimpleStringT@D$0A@@ATL@@AAEXH@Z
_TEXT	SEGMENT PARA USE32 PUBLIC 'CODE'
_TEXT	ENDS
;	COMDAT ?StringFindString@?$ChTraitsCRT@D@ATL@@SAPBDPBD0@Z
_TEXT	SEGMENT PARA USE32 PUBLIC 'CODE'
_TEXT	ENDS
;	COMDAT ?GetLength@?$CSimpleStringT@D$0A@@ATL@@QBEHXZ
_TEXT	SEGMENT PARA USE32 PUBLIC 'CODE'
_TEXT	ENDS
;	COMDAT ?GetString@?$CSimpleStringT@D$0A@@ATL@@QBEPBDXZ
_TEXT	SEGMENT PARA USE32 PUBLIC 'CODE'
_TEXT	ENDS
;	COMDAT ?time_null@@YAJXZ
_TEXT	SEGMENT PARA USE32 PUBLIC 'CODE'
_TEXT	ENDS
;	COMDAT ?sEventGeneric@?1??GetInstance@CEventGeneric@@SAPAV2@XZ@4V2@A
_BSS	SEGMENT DWORD USE32 PUBLIC 'BSS'
_BSS	ENDS
;	COMDAT ?$S3@?1??GetInstance@CEventGeneric@@SAPAV2@XZ@4IA
_BSS	SEGMENT DWORD USE32 PUBLIC 'BSS'
_BSS	ENDS
;	COMDAT ?GetTime@CTime@ATL@@QBE_JXZ
_TEXT	SEGMENT PARA USE32 PUBLIC 'CODE'
_TEXT	ENDS
;	COMDAT ??0CTime@ATL@@QAE@HHHHHHH@Z
_TEXT	SEGMENT PARA USE32 PUBLIC 'CODE'
_TEXT	ENDS
;	COMDAT ??B?$CSimpleStringT@D$0A@@ATL@@QBEPBDXZ
_TEXT	SEGMENT PARA USE32 PUBLIC 'CODE'
_TEXT	ENDS
;	COMDAT ??0?$CStringT@DV?$StrTraitMFC@DV?$ChTraitsCRT@D@ATL@@@@@ATL@@QAE@ABV01@@Z
_TEXT	SEGMENT PARA USE32 PUBLIC 'CODE'
_TEXT	ENDS
;	COMDAT ??0?$CSimpleStringT@D$0A@@ATL@@QAE@ABV01@@Z
_TEXT	SEGMENT PARA USE32 PUBLIC 'CODE'
_TEXT	ENDS
;	COMDAT ?CloneData@?$CSimpleStringT@D$0A@@ATL@@CAPAUCStringData@2@PAU32@@Z
_TEXT	SEGMENT PARA USE32 PUBLIC 'CODE'
_TEXT	ENDS
;	COMDAT ?IsLocked@CStringData@ATL@@QBE_NXZ
_TEXT	SEGMENT PARA USE32 PUBLIC 'CODE'
_TEXT	ENDS
;	COMDAT ?AddRef@CStringData@ATL@@QAEXXZ
_TEXT	SEGMENT PARA USE32 PUBLIC 'CODE'
_TEXT	ENDS
;	COMDAT ??1?$CSimpleStringT@D$0A@@ATL@@QAE@XZ
_TEXT	SEGMENT PARA USE32 PUBLIC 'CODE'
_TEXT	ENDS
;	COMDAT ??_C@_00CNPNBAHC@?$AA@
CONST	SEGMENT DWORD USE32 PUBLIC 'CONST'
CONST	ENDS
;	COMDAT ??1?$CStringT@DV?$StrTraitMFC@DV?$ChTraitsCRT@D@ATL@@@@@ATL@@QAE@XZ
_TEXT	SEGMENT PARA USE32 PUBLIC 'CODE'
_TEXT	ENDS
;	COMDAT ??0?$CStringT@DV?$StrTraitMFC@DV?$ChTraitsCRT@D@ATL@@@@@ATL@@QAE@PBD@Z
_TEXT	SEGMENT PARA USE32 PUBLIC 'CODE'
_TEXT	ENDS
;	COMDAT ??0?$CSimpleStringT@D$0A@@ATL@@QAE@PAUIAtlStringMgr@1@@Z
_TEXT	SEGMENT PARA USE32 PUBLIC 'CODE'
_TEXT	ENDS
;	COMDAT ?GetDefaultManager@?$StrTraitMFC@DV?$ChTraitsCRT@D@ATL@@@@SAPAUIAtlStringMgr@ATL@@XZ
_TEXT	SEGMENT PARA USE32 PUBLIC 'CODE'
_TEXT	ENDS
;	COMDAT ?CheckImplicitLoad@?$CStringT@DV?$StrTraitMFC@DV?$ChTraitsCRT@D@ATL@@@@@ATL@@AAE_NPBX@Z
_TEXT	SEGMENT PARA USE32 PUBLIC 'CODE'
_TEXT	ENDS
;	COMDAT ?LoadStringA@?$CStringT@DV?$StrTraitMFC@DV?$ChTraitsCRT@D@ATL@@@@@ATL@@QAEHI@Z
_TEXT	SEGMENT PARA USE32 PUBLIC 'CODE'
_TEXT	ENDS
;	COMDAT ?FindStringResourceInstance@?$StrTraitMFC@DV?$ChTraitsCRT@D@ATL@@@@SAPAUHINSTANCE__@@I@Z
_TEXT	SEGMENT PARA USE32 PUBLIC 'CODE'
_TEXT	ENDS
;	COMDAT ?LoadStringA@?$CStringT@DV?$StrTraitMFC@DV?$ChTraitsCRT@D@ATL@@@@@ATL@@QAEHPAUHINSTANCE__@@I@Z
_TEXT	SEGMENT PARA USE32 PUBLIC 'CODE'
_TEXT	ENDS
;	COMDAT ?AtlGetStringResourceImage@ATL@@YAPBUATLSTRINGRESOURCEIMAGE@1@PAUHINSTANCE__@@I@Z
_TEXT	SEGMENT PARA USE32 PUBLIC 'CODE'
_TEXT	ENDS
;	COMDAT ?_AtlGetStringResourceImage@ATL@@YAPBUATLSTRINGRESOURCEIMAGE@1@PAUHINSTANCE__@@PAUHRSRC__@@I@Z
_TEXT	SEGMENT PARA USE32 PUBLIC 'CODE'
_TEXT	ENDS
;	COMDAT ?GetBaseTypeLength@?$ChTraitsCRT@D@ATL@@SAHPBGH@Z
_TEXT	SEGMENT PARA USE32 PUBLIC 'CODE'
_TEXT	ENDS
;	COMDAT ?_AtlGetConversionACP@ATL@@YGIXZ
_TEXT	SEGMENT PARA USE32 PUBLIC 'CODE'
_TEXT	ENDS
;	COMDAT ?g_pfnGetThreadACP@ATL@@3P6GIXZA
_DATA	SEGMENT DWORD USE32 PUBLIC 'DATA'
_DATA	ENDS
;	COMDAT ?_AtlGetThreadACPThunk@ATL@@YGIXZ
_TEXT	SEGMENT PARA USE32 PUBLIC 'CODE'
_TEXT	ENDS
;	COMDAT ?_AtlGetThreadACPReal@ATL@@YGIXZ
_TEXT	SEGMENT PARA USE32 PUBLIC 'CODE'
_TEXT	ENDS
;	COMDAT ?_AtlGetThreadACPFake@ATL@@YGIXZ
_TEXT	SEGMENT PARA USE32 PUBLIC 'CODE'
_TEXT	ENDS
;	COMDAT ?InterlockedExchangePointer@@YGPAXPAPAXPAX@Z
_TEXT	SEGMENT PARA USE32 PUBLIC 'CODE'
_TEXT	ENDS
;	COMDAT ?ConvertToBaseType@?$ChTraitsCRT@D@ATL@@SAXPADHPBGH@Z
_TEXT	SEGMENT PARA USE32 PUBLIC 'CODE'
_TEXT	ENDS
;	COMDAT ??4?$CStringT@DV?$StrTraitMFC@DV?$ChTraitsCRT@D@ATL@@@@@ATL@@QAEAAV01@PBD@Z
_TEXT	SEGMENT PARA USE32 PUBLIC 'CODE'
_TEXT	ENDS
;	COMDAT ??4?$CSimpleStringT@D$0A@@ATL@@QAEAAV01@PBD@Z
_TEXT	SEGMENT PARA USE32 PUBLIC 'CODE'
_TEXT	ENDS
;	COMDAT ?SetString@?$CSimpleStringT@D$0A@@ATL@@QAEXPBD@Z
_TEXT	SEGMENT PARA USE32 PUBLIC 'CODE'
_TEXT	ENDS
;	COMDAT ?SetString@?$CSimpleStringT@D$0A@@ATL@@QAEXPBDH@Z
_TEXT	SEGMENT PARA USE32 PUBLIC 'CODE'
_TEXT	ENDS
;	COMDAT ?Empty@?$CSimpleStringT@D$0A@@ATL@@QAEXXZ
_TEXT	SEGMENT PARA USE32 PUBLIC 'CODE'
_TEXT	ENDS
;	COMDAT ?CopyCharsOverlapped@?$CSimpleStringT@D$0A@@ATL@@SAXPADPBDH@Z
_TEXT	SEGMENT PARA USE32 PUBLIC 'CODE'
_TEXT	ENDS
;	COMDAT ?StringLength@?$CSimpleStringT@D$0A@@ATL@@SAHPBD@Z
_TEXT	SEGMENT PARA USE32 PUBLIC 'CODE'
_TEXT	ENDS
;	COMDAT ??_7CEventGeneric@@6B@
CONST	SEGMENT DWORD USE32 PUBLIC 'CONST'
CONST	ENDS
;	COMDAT ??5CAr@@QAEAAV0@AAH@Z
_TEXT	SEGMENT PARA USE32 PUBLIC 'CODE'
_TEXT	ENDS
;	COMDAT ??5CAr@@QAEAAV0@AAJ@Z
_TEXT	SEGMENT PARA USE32 PUBLIC 'CODE'
_TEXT	ENDS
;	COMDAT ??5CAr@@QAEAAV0@AAK@Z
_TEXT	SEGMENT PARA USE32 PUBLIC 'CODE'
_TEXT	ENDS
;	COMDAT ??6CAr@@QAEAAV0@H@Z
_TEXT	SEGMENT PARA USE32 PUBLIC 'CODE'
_TEXT	ENDS
;	COMDAT ??6CAr@@QAEAAV0@J@Z
_TEXT	SEGMENT PARA USE32 PUBLIC 'CODE'
_TEXT	ENDS
;	COMDAT ??6CAr@@QAEAAV0@K@Z
_TEXT	SEGMENT PARA USE32 PUBLIC 'CODE'
_TEXT	ENDS
;	COMDAT ?IsStoring@CAr@@QBEHXZ
_TEXT	SEGMENT PARA USE32 PUBLIC 'CODE'
_TEXT	ENDS
;	COMDAT ?s_anHour@?1???0CEventItem@@QAE@KHH@Z@4PAHA
_DATA	SEGMENT DWORD USE32 PUBLIC 'DATA'
_DATA	ENDS
;	COMDAT ?sXMasEvent@?1??GetInstance@CXMasEvent@@SAPAV2@XZ@4V2@A
_BSS	SEGMENT DWORD USE32 PUBLIC 'BSS'
_BSS	ENDS
;	COMDAT ?$S1@?1??GetInstance@CXMasEvent@@SAPAV2@XZ@4IA
_BSS	SEGMENT DWORD USE32 PUBLIC 'BSS'
_BSS	ENDS
;	COMDAT ??_7CXMasEvent@@6B@
CONST	SEGMENT DWORD USE32 PUBLIC 'CONST'
CONST	ENDS
;	COMDAT ??_7CEventItem@@6B@
CONST	SEGMENT DWORD USE32 PUBLIC 'CONST'
CONST	ENDS
;	COMDAT ??_7CSPEvent@@6B@
CONST	SEGMENT DWORD USE32 PUBLIC 'CONST'
CONST	ENDS
sxdata	SEGMENT DWORD USE32 'SXDATA'
sxdata	ENDS
FLAT	GROUP _DATA, CONST, _BSS
	ASSUME	CS: FLAT, DS: FLAT, SS: FLAT
endif

INCLUDELIB LIBCMT
INCLUDELIB OLDNAMES

PUBLIC	?g_pfnGetThreadACP@ATL@@3P6GIXZA		; ATL::g_pfnGetThreadACP
PUBLIC	?_AtlGetThreadACPThunk@ATL@@YGIXZ		; ATL::_AtlGetThreadACPThunk
;	COMDAT ?g_pfnGetThreadACP@ATL@@3P6GIXZA
_DATA	SEGMENT
?g_pfnGetThreadACP@ATL@@3P6GIXZA DD FLAT:?_AtlGetThreadACPThunk@ATL@@YGIXZ ; ATL::g_pfnGetThreadACP
_DATA	ENDS
PUBLIC	??0CSPEvent@@QAE@XZ				; CSPEvent::CSPEvent
PUBLIC	??_7CSPEvent@@6B@				; CSPEvent::`vftable'
PUBLIC	??_GCSPEvent@@UAEPAXI@Z				; CSPEvent::`scalar deleting destructor'
EXTRN	??_ECSPEvent@@UAEPAXI@Z:NEAR			; CSPEvent::`vector deleting destructor'
;	COMDAT ??_7CSPEvent@@6B@
; File c:\documents and settings\test\mes documents\source\virtuos_v17\build\program\_common\spevent.h
CONST	SEGMENT
??_7CSPEvent@@6B@ DD FLAT:??_ECSPEvent@@UAEPAXI@Z	; CSPEvent::`vftable'
; Function compile flags: /Ogty
CONST	ENDS
;	COMDAT ??0CSPEvent@@QAE@XZ
_TEXT	SEGMENT
??0CSPEvent@@QAE@XZ PROC NEAR				; CSPEvent::CSPEvent, COMDAT
; _this$ = ecx

; 9    : 	CSPEvent()	{}

  00000	8b c1		 mov	 eax, ecx
  00002	c7 00 00 00 00
	00		 mov	 DWORD PTR [eax], OFFSET FLAT:??_7CSPEvent@@6B@
  00008	c3		 ret	 0
??0CSPEvent@@QAE@XZ ENDP				; CSPEvent::CSPEvent
_TEXT	ENDS
PUBLIC	??1CSPEvent@@UAE@XZ				; CSPEvent::~CSPEvent
; Function compile flags: /Ogty
;	COMDAT ??1CSPEvent@@UAE@XZ
_TEXT	SEGMENT
??1CSPEvent@@UAE@XZ PROC NEAR				; CSPEvent::~CSPEvent, COMDAT
; _this$ = ecx

; 10   : 	virtual	~CSPEvent()	{}

  00000	c7 01 00 00 00
	00		 mov	 DWORD PTR [ecx], OFFSET FLAT:??_7CSPEvent@@6B@
  00006	c3		 ret	 0
??1CSPEvent@@UAE@XZ ENDP				; CSPEvent::~CSPEvent
_TEXT	ENDS
EXTRN	??3@YAXPAX@Z:NEAR				; operator delete
; Function compile flags: /Ogty
;	COMDAT ??_GCSPEvent@@UAEPAXI@Z
_TEXT	SEGMENT
___flags$ = 8						; size = 4
??_GCSPEvent@@UAEPAXI@Z PROC NEAR			; CSPEvent::`scalar deleting destructor', COMDAT
; _this$ = ecx
  00000	f6 44 24 04 01	 test	 BYTE PTR ___flags$[esp-4], 1
  00005	56		 push	 esi
  00006	8b f1		 mov	 esi, ecx
  00008	c7 06 00 00 00
	00		 mov	 DWORD PTR [esi], OFFSET FLAT:??_7CSPEvent@@6B@
  0000e	74 09		 je	 SHORT $L190154
  00010	56		 push	 esi
  00011	e8 00 00 00 00	 call	 ??3@YAXPAX@Z		; operator delete
  00016	83 c4 04	 add	 esp, 4
$L190154:
  00019	8b c6		 mov	 eax, esi
  0001b	5e		 pop	 esi
  0001c	c2 04 00	 ret	 4
??_GCSPEvent@@UAEPAXI@Z ENDP				; CSPEvent::`scalar deleting destructor'
_TEXT	ENDS
PUBLIC	??0_EVENT_GENERIC@@QAE@XZ			; _EVENT_GENERIC::_EVENT_GENERIC
EXTRN	__fltused:NEAR
; Function compile flags: /Ogty
;	COMDAT ??0_EVENT_GENERIC@@QAE@XZ
_TEXT	SEGMENT
??0_EVENT_GENERIC@@QAE@XZ PROC NEAR			; _EVENT_GENERIC::_EVENT_GENERIC, COMDAT
; _this$ = ecx

; 42   : 	_EVENT_GENERIC()

  00000	8b c1		 mov	 eax, ecx

; 43   : 	{
; 44   : 		nId	= 0;

  00002	33 c9		 xor	 ecx, ecx
  00004	89 08		 mov	 DWORD PTR [eax], ecx

; 45   : 		nFlag	= 0;

  00006	89 48 04	 mov	 DWORD PTR [eax+4], ecx

; 46   : 		tStart	= 0;

  00009	89 48 08	 mov	 DWORD PTR [eax+8], ecx

; 47   : 		tEnd	= 0;

  0000c	89 48 0c	 mov	 DWORD PTR [eax+12], ecx

; 48   : 		*pszTitle	= '\0';

  0000f	88 48 18	 mov	 BYTE PTR [eax+24], cl

; 49   : 		fExpFactor	= 1.0f;

  00012	b9 00 00 80 3f	 mov	 ecx, 1065353216		; 3f800000H
  00017	89 48 10	 mov	 DWORD PTR [eax+16], ecx

; 50   : #ifdef __ITEMDROPRATE
; 51   : 		fItemDropRate = 1.0f;

  0001a	89 48 14	 mov	 DWORD PTR [eax+20], ecx

; 52   : #endif // __ITEMDROPRATE
; 53   : 	}

  0001d	c3		 ret	 0
??0_EVENT_GENERIC@@QAE@XZ ENDP				; _EVENT_GENERIC::_EVENT_GENERIC
_TEXT	ENDS
PUBLIC	??2@YAPAXIPAX@Z					; operator new
; Function compile flags: /Ogty
; File c:\program files\microsoft visual studio .net 2003\vc7\include\new.h
;	COMDAT ??2@YAPAXIPAX@Z
_TEXT	SEGMENT
___formal$ = 8						; size = 4
__P$ = 12						; size = 4
??2@YAPAXIPAX@Z PROC NEAR				; operator new, COMDAT

; 109  :         {return (_P); }

  00000	8b 44 24 08	 mov	 eax, DWORD PTR __P$[esp-4]
  00004	c3		 ret	 0
??2@YAPAXIPAX@Z ENDP					; operator new
_TEXT	ENDS
PUBLIC	??3@YAXPAX0@Z					; operator delete
; Function compile flags: /Ogty
;	COMDAT ??3@YAXPAX0@Z
_TEXT	SEGMENT
___formal$ = 8						; size = 4
___formal$ = 12						; size = 4
??3@YAXPAX0@Z PROC NEAR					; operator delete, COMDAT

; 112  :         {return; }

  00000	c3		 ret	 0
??3@YAXPAX0@Z ENDP					; operator delete
_TEXT	ENDS
PUBLIC	??0CXMasEvent@@QAE@XZ				; CXMasEvent::CXMasEvent
PUBLIC	??_7CXMasEvent@@6B@				; CXMasEvent::`vftable'
PUBLIC	??_GCXMasEvent@@UAEPAXI@Z			; CXMasEvent::`scalar deleting destructor'
EXTRN	__imp__GetTickCount@0:NEAR
EXTRN	??_ECXMasEvent@@UAEPAXI@Z:NEAR			; CXMasEvent::`vector deleting destructor'
;	COMDAT ??_7CXMasEvent@@6B@
; File c:\documents and settings\test\mes documents\source\virtuos_v17\build\program\_common\spevent.h
CONST	SEGMENT
??_7CXMasEvent@@6B@ DD FLAT:??_ECXMasEvent@@UAEPAXI@Z	; CXMasEvent::`vftable'
; Function compile flags: /Ogty
; File c:\documents and settings\test\mes documents\source\virtuos_v17\build\program\_common\spevent.cpp
CONST	ENDS
;	COMDAT ??0CXMasEvent@@QAE@XZ
_TEXT	SEGMENT
??0CXMasEvent@@QAE@XZ PROC NEAR				; CXMasEvent::CXMasEvent, COMDAT
; _this$ = ecx

; 16   : {

  00000	56		 push	 esi
  00001	8b f1		 mov	 esi, ecx
  00003	57		 push	 edi
  00004	c7 06 00 00 00
	00		 mov	 DWORD PTR [esi], OFFSET FLAT:??_7CXMasEvent@@6B@

; 17   : 	m_dwTimeout	= GetTickCount();

  0000a	ff 15 00 00 00
	00		 call	 DWORD PTR __imp__GetTickCount@0
  00010	89 46 64	 mov	 DWORD PTR [esi+100], eax

; 18   : 	memset( (void*)m_adwInterval, 0, sizeof(DWORD) * 24 );

  00013	33 c0		 xor	 eax, eax
  00015	8d 7e 04	 lea	 edi, DWORD PTR [esi+4]
  00018	b9 18 00 00 00	 mov	 ecx, 24			; 00000018H
  0001d	f3 ab		 rep stosd

; 19   : 	m_lSkip		= 0;

  0001f	89 46 68	 mov	 DWORD PTR [esi+104], eax
  00022	5f		 pop	 edi

; 20   : }

  00023	8b c6		 mov	 eax, esi
  00025	5e		 pop	 esi
  00026	c3		 ret	 0
??0CXMasEvent@@QAE@XZ ENDP				; CXMasEvent::CXMasEvent
_TEXT	ENDS
PUBLIC	??1CXMasEvent@@UAE@XZ				; CXMasEvent::~CXMasEvent
; Function compile flags: /Ogty
;	COMDAT ??1CXMasEvent@@UAE@XZ
_TEXT	SEGMENT
??1CXMasEvent@@UAE@XZ PROC NEAR				; CXMasEvent::~CXMasEvent, COMDAT
; _this$ = ecx

; 24   : 
; 25   : }

  00000	c7 01 00 00 00
	00		 mov	 DWORD PTR [ecx], OFFSET FLAT:??_7CSPEvent@@6B@
  00006	c3		 ret	 0
??1CXMasEvent@@UAE@XZ ENDP				; CXMasEvent::~CXMasEvent
_TEXT	ENDS
PUBLIC	?IsTimeout@CXMasEvent@@QAEHH@Z			; CXMasEvent::IsTimeout
; Function compile flags: /Ogty
;	COMDAT ?IsTimeout@CXMasEvent@@QAEHH@Z
_TEXT	SEGMENT
_nHour$ = 8						; size = 4
?IsTimeout@CXMasEvent@@QAEHH@Z PROC NEAR		; CXMasEvent::IsTimeout, COMDAT
; _this$ = ecx

; 28   : {

  00000	56		 push	 esi
  00001	8b f1		 mov	 esi, ecx

; 29   : 	DWORD dwTickCount	= GetTickCount();

  00003	ff 15 00 00 00
	00		 call	 DWORD PTR __imp__GetTickCount@0

; 30   : 	if( dwTickCount >= m_dwTimeout )

  00009	3b 46 64	 cmp	 eax, DWORD PTR [esi+100]
  0000c	72 18		 jb	 SHORT $L187804

; 31   : 	{
; 32   : 		m_dwTimeout	= dwTickCount + m_adwInterval[nHour];

  0000e	8b 4c 24 08	 mov	 ecx, DWORD PTR _nHour$[esp]
  00012	8b 54 8e 04	 mov	 edx, DWORD PTR [esi+ecx*4+4]
  00016	03 d0		 add	 edx, eax

; 33   : 
; 34   : 		if( m_lSkip > 0 )

  00018	8b 46 68	 mov	 eax, DWORD PTR [esi+104]
  0001b	85 c0		 test	 eax, eax
  0001d	89 56 64	 mov	 DWORD PTR [esi+100], edx
  00020	7e 0a		 jle	 SHORT $L187805

; 35   : 		{
; 36   : 			m_lSkip--;

  00022	48		 dec	 eax
  00023	89 46 68	 mov	 DWORD PTR [esi+104], eax
$L187804:

; 40   : 	}
; 41   : 	return FALSE;

  00026	33 c0		 xor	 eax, eax
  00028	5e		 pop	 esi

; 42   : }

  00029	c2 04 00	 ret	 4
$L187805:

; 37   : 			return FALSE;
; 38   : 		}
; 39   : 		return TRUE;

  0002c	b8 01 00 00 00	 mov	 eax, 1
  00031	5e		 pop	 esi

; 42   : }

  00032	c2 04 00	 ret	 4
?IsTimeout@CXMasEvent@@QAEHH@Z ENDP			; CXMasEvent::IsTimeout
_TEXT	ENDS
PUBLIC	?LoadScript@CXMasEvent@@QAEHPBD@Z		; CXMasEvent::LoadScript
PUBLIC	__real@4a5bba00
EXTRN	?GetNumber@CScanner@@QAEHH@Z:NEAR		; CScanner::GetNumber
EXTRN	??0CScript@@QAE@H@Z:NEAR			; CScript::CScript
EXTRN	??1CScript@@UAE@XZ:NEAR				; CScript::~CScript
EXTRN	?Load@CScript@@QAEHPBDHH@Z:NEAR			; CScript::Load
EXTRN	__ftol2:NEAR
EXTRN	__except_list:DWORD
EXTRN	__chkstk:NEAR
EXTRN	___security_cookie:DWORD
EXTRN	@__security_check_cookie@4:NEAR
EXTRN	___CxxFrameHandler:NEAR
;	COMDAT xdata$x
xdata$x	SEGMENT
$T190201 DD	0ffffffffH
	DD	FLAT:$L190181
$T190187 DD	019930520H
	DD	01H
	DD	FLAT:$T190201
	DD	2 DUP(00H)
	DD	2 DUP(00H)
xdata$x	ENDS
;	COMDAT __real@4a5bba00
CONST	SEGMENT
__real@4a5bba00 DD 04a5bba00r			; 3.6e+006
; Function compile flags: /Ogty
CONST	ENDS
;	COMDAT ?LoadScript@CXMasEvent@@QAEHPBD@Z
_TEXT	SEGMENT
_nTotal$ = -7880					; size = 4
_nMax$ = -7876						; size = 4
_an$ = -7872						; size = 96
_s$ = -7776						; size = 7760
__$ArrayPad$ = -16					; size = 4
__$EHRec$ = -12						; size = 12
__$ReturnAddr$ = 4					; size = 4
_lpFilename$ = 8					; size = 4
?LoadScript@CXMasEvent@@QAEHPBD@Z PROC NEAR		; CXMasEvent::LoadScript, COMDAT
; _this$ = ecx

; 45   : {

  00000	6a ff		 push	 -1
  00002	68 00 00 00 00	 push	 __ehhandler$?LoadScript@CXMasEvent@@QAEHPBD@Z
  00007	64 a1 00 00 00
	00		 mov	 eax, DWORD PTR fs:__except_list
  0000d	50		 push	 eax
  0000e	b8 bc 1e 00 00	 mov	 eax, 7868		; 00001ebcH
  00013	64 89 25 00 00
	00 00		 mov	 DWORD PTR fs:__except_list, esp
  0001a	e8 00 00 00 00	 call	 __chkstk
  0001f	a1 00 00 00 00	 mov	 eax, DWORD PTR ___security_cookie
  00024	33 c4		 xor	 eax, esp
  00026	55		 push	 ebp
  00027	56		 push	 esi
  00028	8b b4 24 d4 1e
	00 00		 mov	 esi, DWORD PTR _lpFilename$[esp+7884]
  0002f	8b e9		 mov	 ebp, ecx

; 46   : 	CScript s;

  00031	6a 00		 push	 0
  00033	8d 4c 24 74	 lea	 ecx, DWORD PTR _s$[esp+7892]
  00037	89 84 24 c4 1e
	00 00		 mov	 DWORD PTR __$ArrayPad$[esp+7892], eax
  0003e	e8 00 00 00 00	 call	 ??0CScript@@QAE@H@Z	; CScript::CScript

; 47   : 	if( s.Load( lpFilename ) == FALSE )

  00043	6a 00		 push	 0
  00045	6a 01		 push	 1
  00047	56		 push	 esi
  00048	8d 4c 24 7c	 lea	 ecx, DWORD PTR _s$[esp+7900]
  0004c	c7 84 24 d8 1e
	00 00 00 00 00
	00		 mov	 DWORD PTR __$EHRec$[esp+7908], 0
  00057	e8 00 00 00 00	 call	 ?Load@CScript@@QAEHPBDHH@Z ; CScript::Load
  0005c	85 c0		 test	 eax, eax
  0005e	75 1b		 jne	 SHORT $L187811

; 48   : 		return FALSE;

  00060	8d 4c 24 70	 lea	 ecx, DWORD PTR _s$[esp+7888]
  00064	c7 84 24 cc 1e
	00 00 ff ff ff
	ff		 mov	 DWORD PTR __$EHRec$[esp+7896], -1
  0006f	e8 00 00 00 00	 call	 ??1CScript@@UAE@XZ	; CScript::~CScript
  00074	33 c0		 xor	 eax, eax
  00076	e9 91 00 00 00	 jmp	 $L187809
$L187811:
  0007b	57		 push	 edi

; 49   : 	
; 50   : 	int an[24]	= { 0, };

  0007c	33 c0		 xor	 eax, eax
  0007e	b9 17 00 00 00	 mov	 ecx, 23			; 00000017H
  00083	8d 7c 24 18	 lea	 edi, DWORD PTR _an$[esp+7896]
  00087	c7 44 24 14 00
	00 00 00	 mov	 DWORD PTR _an$[esp+7892], 0
  0008f	f3 ab		 rep stosd

; 51   : 	int nTotal	= 0;

  00091	33 ff		 xor	 edi, edi

; 52   : 	
; 53   : 	int nMax	= s.GetNumber();	// drop num a day

  00093	57		 push	 edi
  00094	8d 4c 24 78	 lea	 ecx, DWORD PTR _s$[esp+7896]
  00098	e8 00 00 00 00	 call	 ?GetNumber@CScanner@@QAEHH@Z ; CScanner::GetNumber
  0009d	89 44 24 10	 mov	 DWORD PTR _nMax$[esp+7892], eax

; 54   : 
; 55   : 	for( int i = 0; i < 24; i++ )

  000a1	33 f6		 xor	 esi, esi
$L187817:

; 56   : 	{
; 57   : 		an[i]	= s.GetNumber();

  000a3	6a 00		 push	 0
  000a5	8d 4c 24 78	 lea	 ecx, DWORD PTR _s$[esp+7896]
  000a9	e8 00 00 00 00	 call	 ?GetNumber@CScanner@@QAEHH@Z ; CScanner::GetNumber

; 58   : 		nTotal	+= an[i];

  000ae	03 f8		 add	 edi, eax
  000b0	89 44 b4 14	 mov	 DWORD PTR _an$[esp+esi*4+7892], eax
  000b4	46		 inc	 esi
  000b5	83 fe 18	 cmp	 esi, 24			; 00000018H
  000b8	7c e9		 jl	 SHORT $L187817

; 59   : 	}
; 60   : 	for( i = 0; i < 24; i++ )
; 61   : 		m_adwInterval[i]	= (DWORD)( (float)MIN( 60 ) / ( nMax * (float)an[i] / (float)nTotal ) );
; 62   : 
; 63   : 	return TRUE;

  000ba	db 44 24 10	 fild	 DWORD PTR _nMax$[esp+7892]
  000be	89 7c 24 0c	 mov	 DWORD PTR _nTotal$[esp+7892], edi
  000c2	db 44 24 0c	 fild	 DWORD PTR _nTotal$[esp+7892]
  000c6	33 f6		 xor	 esi, esi
  000c8	8d 7d 04	 lea	 edi, DWORD PTR [ebp+4]
  000cb	eb 03 8d 49 00	 npad	 5
$L187820:
  000d0	db 44 b4 14	 fild	 DWORD PTR _an$[esp+esi*4+7892]
  000d4	d8 ca		 fmul	 ST(0), ST(2)
  000d6	d8 f1		 fdiv	 ST(0), ST(1)
  000d8	d8 3d 00 00 00
	00		 fdivr	 DWORD PTR __real@4a5bba00
  000de	e8 00 00 00 00	 call	 __ftol2
  000e3	89 07		 mov	 DWORD PTR [edi], eax
  000e5	46		 inc	 esi
  000e6	83 c7 04	 add	 edi, 4
  000e9	83 fe 18	 cmp	 esi, 24			; 00000018H
  000ec	7c e2		 jl	 SHORT $L187820
  000ee	dd d8		 fstp	 ST(0)
  000f0	8d 4c 24 74	 lea	 ecx, DWORD PTR _s$[esp+7892]
  000f4	dd d8		 fstp	 ST(0)
  000f6	c7 84 24 d0 1e
	00 00 ff ff ff
	ff		 mov	 DWORD PTR __$EHRec$[esp+7900], -1
  00101	e8 00 00 00 00	 call	 ??1CScript@@UAE@XZ	; CScript::~CScript
  00106	b8 01 00 00 00	 mov	 eax, 1
  0010b	5f		 pop	 edi
$L187809:

; 64   : }

  0010c	8b 8c 24 c4 1e
	00 00		 mov	 ecx, DWORD PTR __$EHRec$[esp+7888]
  00113	5e		 pop	 esi
  00114	64 89 0d 00 00
	00 00		 mov	 DWORD PTR fs:__except_list, ecx
  0011b	8b 8c 24 bc 1e
	00 00		 mov	 ecx, DWORD PTR __$ArrayPad$[esp+7884]
  00122	5d		 pop	 ebp
  00123	33 cc		 xor	 ecx, esp
  00125	e8 00 00 00 00	 call	 @__security_check_cookie@4
  0012a	81 c4 c8 1e 00
	00		 add	 esp, 7880		; 00001ec8H
  00130	c2 04 00	 ret	 4
_TEXT	ENDS
;	COMDAT text$x
text$x	SEGMENT
$L190181:
  00000	8d 8d a0 e1 ff
	ff		 lea	 ecx, DWORD PTR _s$[ebp]
  00006	e9 00 00 00 00	 jmp	 ??1CScript@@UAE@XZ	; CScript::~CScript
__ehhandler$?LoadScript@CXMasEvent@@QAEHPBD@Z:
  0000b	b8 00 00 00 00	 mov	 eax, OFFSET FLAT:$T190187
  00010	e9 00 00 00 00	 jmp	 ___CxxFrameHandler
text$x	ENDS
?LoadScript@CXMasEvent@@QAEHPBD@Z ENDP			; CXMasEvent::LoadScript
PUBLIC	?Skip@CXMasEvent@@QAEXJ@Z			; CXMasEvent::Skip
; Function compile flags: /Ogty
;	COMDAT ?Skip@CXMasEvent@@QAEXJ@Z
_TEXT	SEGMENT
_lSkip$ = 8						; size = 4
?Skip@CXMasEvent@@QAEXJ@Z PROC NEAR			; CXMasEvent::Skip, COMDAT
; _this$ = ecx

; 68   : 	m_lSkip		= lSkip;

  00000	8b 44 24 04	 mov	 eax, DWORD PTR _lSkip$[esp-4]
  00004	89 41 68	 mov	 DWORD PTR [ecx+104], eax

; 69   : }

  00007	c2 04 00	 ret	 4
?Skip@CXMasEvent@@QAEXJ@Z ENDP				; CXMasEvent::Skip
_TEXT	ENDS
PUBLIC	??0CEventItem@@QAE@XZ				; CEventItem::CEventItem
PUBLIC	??_7CEventItem@@6B@				; CEventItem::`vftable'
PUBLIC	??_GCEventItem@@UAEPAXI@Z			; CEventItem::`scalar deleting destructor'
EXTRN	??_ECEventItem@@UAEPAXI@Z:NEAR			; CEventItem::`vector deleting destructor'
;	COMDAT ??_7CEventItem@@6B@
CONST	SEGMENT
??_7CEventItem@@6B@ DD FLAT:??_ECEventItem@@UAEPAXI@Z	; CEventItem::`vftable'
; Function compile flags: /Ogty
CONST	ENDS
;	COMDAT ??0CEventItem@@QAE@XZ
_TEXT	SEGMENT
??0CEventItem@@QAE@XZ PROC NEAR				; CEventItem::CEventItem, COMDAT
; _this$ = ecx

; 78   : {

  00000	8b d1		 mov	 edx, ecx

; 79   : 	m_dwItemId	= 0;

  00002	33 c0		 xor	 eax, eax
  00004	57		 push	 edi
  00005	89 42 70	 mov	 DWORD PTR [edx+112], eax

; 80   : 	m_nMax	= 0;

  00008	89 42 04	 mov	 DWORD PTR [edx+4], eax

; 81   : 	m_nNum	= 0;

  0000b	89 42 74	 mov	 DWORD PTR [edx+116], eax

; 82   : 	m_dwTimeout	= 0;

  0000e	89 42 68	 mov	 DWORD PTR [edx+104], eax

; 83   : 	m_lSkip	= 0;

  00011	89 42 6c	 mov	 DWORD PTR [edx+108], eax

; 84   : 	memset( (void*)m_adwInterval, 0, sizeof(m_adwInterval) );

  00014	b9 18 00 00 00	 mov	 ecx, 24			; 00000018H
  00019	8d 7a 08	 lea	 edi, DWORD PTR [edx+8]
  0001c	c7 02 00 00 00
	00		 mov	 DWORD PTR [edx], OFFSET FLAT:??_7CEventItem@@6B@
  00022	f3 ab		 rep stosd

; 85   : }

  00024	8b c2		 mov	 eax, edx
  00026	5f		 pop	 edi
  00027	c3		 ret	 0
??0CEventItem@@QAE@XZ ENDP				; CEventItem::CEventItem
; Function compile flags: /Ogty
_TEXT	ENDS
;	COMDAT ??_GCEventItem@@UAEPAXI@Z
_TEXT	SEGMENT
___flags$ = 8						; size = 4
??_GCEventItem@@UAEPAXI@Z PROC NEAR			; CEventItem::`scalar deleting destructor', COMDAT
; _this$ = ecx
  00000	f6 44 24 04 01	 test	 BYTE PTR ___flags$[esp-4], 1
  00005	56		 push	 esi
  00006	8b f1		 mov	 esi, ecx
  00008	c7 06 00 00 00
	00		 mov	 DWORD PTR [esi], OFFSET FLAT:??_7CEventItem@@6B@
  0000e	74 09		 je	 SHORT $L190214
  00010	56		 push	 esi
  00011	e8 00 00 00 00	 call	 ??3@YAXPAX@Z		; operator delete
  00016	83 c4 04	 add	 esp, 4
$L190214:
  00019	8b c6		 mov	 eax, esi
  0001b	5e		 pop	 esi
  0001c	c2 04 00	 ret	 4
??_GCEventItem@@UAEPAXI@Z ENDP				; CEventItem::`scalar deleting destructor'
_TEXT	ENDS
PUBLIC	??0CEventItem@@QAE@KHH@Z			; CEventItem::CEventItem
;	COMDAT ?s_anHour@?1???0CEventItem@@QAE@KHH@Z@4PAHA
_DATA	SEGMENT
?s_anHour@?1???0CEventItem@@QAE@KHH@Z@4PAHA DD 01f9H	; `CEventItem::CEventItem'::`2'::s_anHour
	DD	0199H
	DD	0144H
	DD	0118H
	DD	0dcH
	DD	0cbH
	DD	0caH
	DD	0d4H
	DD	0e3H
	DD	0105H
	DD	012eH
	DD	015dH
	DD	023bH
	DD	02bdH
	DD	02fcH
	DD	0323H
	DD	0316H
	DD	0315H
	DD	02f2H
	DD	0351H
	DD	03a8H
	DD	03acH
	DD	0397H
	DD	02d0H
; Function compile flags: /Ogty
_DATA	ENDS
;	COMDAT ??0CEventItem@@QAE@KHH@Z
_TEXT	SEGMENT
_nTotal$ = 8						; size = 4
_dwItemId$ = 8						; size = 4
_nMax$ = 12						; size = 4
_nNum$ = 16						; size = 4
??0CEventItem@@QAE@KHH@Z PROC NEAR			; CEventItem::CEventItem, COMDAT
; _this$ = ecx

; 89   : 	m_dwItemId	= dwItemId;

  00000	8b 44 24 04	 mov	 eax, DWORD PTR _dwItemId$[esp-4]

; 90   : 	m_nMax	= nMax;
; 91   : 	m_nNum	= nNum;

  00004	8b 54 24 0c	 mov	 edx, DWORD PTR _nNum$[esp-4]
  00008	53		 push	 ebx
  00009	56		 push	 esi
  0000a	57		 push	 edi
  0000b	8b f9		 mov	 edi, ecx
  0000d	8b 4c 24 14	 mov	 ecx, DWORD PTR _nMax$[esp+8]
  00011	c7 07 00 00 00
	00		 mov	 DWORD PTR [edi], OFFSET FLAT:??_7CEventItem@@6B@
  00017	89 47 70	 mov	 DWORD PTR [edi+112], eax
  0001a	89 4f 04	 mov	 DWORD PTR [edi+4], ecx
  0001d	89 57 74	 mov	 DWORD PTR [edi+116], edx

; 92   : 	m_dwTimeout	= GetTickCount();

  00020	ff 15 00 00 00
	00		 call	 DWORD PTR __imp__GetTickCount@0

; 93   : 	m_lSkip	= 0;

  00026	33 c9		 xor	 ecx, ecx
  00028	89 47 68	 mov	 DWORD PTR [edi+104], eax
  0002b	89 4f 6c	 mov	 DWORD PTR [edi+108], ecx
  0002e	b8 10 00 00 00	 mov	 eax, OFFSET FLAT:?s_anHour@?1???0CEventItem@@QAE@KHH@Z@4PAHA+16
$L187858:

; 94   : 
; 95   : 	static	int	s_anHour[24]	=
; 96   : 		{	505, 409, 324, 280, 220, 203, 202, 212,
; 97   : 			227, 261, 302, 349, 571, 701, 764, 803,
; 98   : 			790, 789, 754, 849, 936, 940, 919, 720	};
; 99   : 	int nTotal	= 0;
; 100  : 
; 101  : 	for( int i = 0; i < 24; i++ )
; 102  : 		nTotal	+= s_anHour[i];

  00033	8b 70 f4	 mov	 esi, DWORD PTR [eax-12]
  00036	8b 50 f0	 mov	 edx, DWORD PTR [eax-16]
  00039	8b 58 f8	 mov	 ebx, DWORD PTR [eax-8]
  0003c	03 d6		 add	 edx, esi
  0003e	8b 70 fc	 mov	 esi, DWORD PTR [eax-4]
  00041	03 d3		 add	 edx, ebx
  00043	8b 58 04	 mov	 ebx, DWORD PTR [eax+4]
  00046	03 d6		 add	 edx, esi
  00048	8b 30		 mov	 esi, DWORD PTR [eax]
  0004a	03 d3		 add	 edx, ebx
  0004c	03 d6		 add	 edx, esi
  0004e	83 c0 18	 add	 eax, 24			; 00000018H
  00051	03 ca		 add	 ecx, edx
  00053	3d 70 00 00 00	 cmp	 eax, OFFSET FLAT:?s_anHour@?1???0CEventItem@@QAE@KHH@Z@4PAHA+112
  00058	7c d9		 jl	 SHORT $L187858

; 103  : 	for( i = 0; i < 24; i++ )
; 104  : 		m_adwInterval[i]	= (DWORD)( (float)MIN( 60 ) / ( nMax * (float)s_anHour[i] / (float)nTotal ) );
; 105  : }

  0005a	db 44 24 14	 fild	 DWORD PTR _nMax$[esp+8]
  0005e	89 4c 24 10	 mov	 DWORD PTR _nTotal$[esp+8], ecx
  00062	db 44 24 10	 fild	 DWORD PTR _nTotal$[esp+8]
  00066	be 00 00 00 00	 mov	 esi, OFFSET FLAT:?s_anHour@?1???0CEventItem@@QAE@KHH@Z@4PAHA
  0006b	8d 5f 08	 lea	 ebx, DWORD PTR [edi+8]
  0006e	8b ff		 npad	 2
$L187861:
  00070	db 06		 fild	 DWORD PTR [esi]
  00072	d8 ca		 fmul	 ST(0), ST(2)
  00074	d8 f1		 fdiv	 ST(0), ST(1)
  00076	d8 3d 00 00 00
	00		 fdivr	 DWORD PTR __real@4a5bba00
  0007c	e8 00 00 00 00	 call	 __ftol2
  00081	89 03		 mov	 DWORD PTR [ebx], eax
  00083	83 c6 04	 add	 esi, 4
  00086	83 c3 04	 add	 ebx, 4
  00089	81 fe 60 00 00
	00		 cmp	 esi, OFFSET FLAT:?s_anHour@?1???0CEventItem@@QAE@KHH@Z@4PAHA+96
  0008f	7c df		 jl	 SHORT $L187861
  00091	8b c7		 mov	 eax, edi
  00093	dd d8		 fstp	 ST(0)
  00095	5f		 pop	 edi
  00096	dd d8		 fstp	 ST(0)
  00098	5e		 pop	 esi
  00099	5b		 pop	 ebx
  0009a	c2 0c 00	 ret	 12			; 0000000cH
??0CEventItem@@QAE@KHH@Z ENDP				; CEventItem::CEventItem
_TEXT	ENDS
PUBLIC	?IsTimeout@CEventItem@@QAEHH@Z			; CEventItem::IsTimeout
; Function compile flags: /Ogty
;	COMDAT ?IsTimeout@CEventItem@@QAEHH@Z
_TEXT	SEGMENT
_nHour$ = 8						; size = 4
?IsTimeout@CEventItem@@QAEHH@Z PROC NEAR		; CEventItem::IsTimeout, COMDAT
; _this$ = ecx

; 108  : {

  00000	56		 push	 esi
  00001	8b f1		 mov	 esi, ecx

; 109  : 	DWORD dwTickCount	= GetTickCount();

  00003	ff 15 00 00 00
	00		 call	 DWORD PTR __imp__GetTickCount@0

; 110  : 	if( dwTickCount >= m_dwTimeout )

  00009	3b 46 68	 cmp	 eax, DWORD PTR [esi+104]
  0000c	72 18		 jb	 SHORT $L187874

; 111  : 	{
; 112  : 		m_dwTimeout	= dwTickCount + m_adwInterval[nHour];

  0000e	8b 4c 24 08	 mov	 ecx, DWORD PTR _nHour$[esp]
  00012	8b 54 8e 08	 mov	 edx, DWORD PTR [esi+ecx*4+8]
  00016	03 d0		 add	 edx, eax

; 113  : 
; 114  : 		if( m_lSkip > 0 )

  00018	8b 46 6c	 mov	 eax, DWORD PTR [esi+108]
  0001b	85 c0		 test	 eax, eax
  0001d	89 56 68	 mov	 DWORD PTR [esi+104], edx
  00020	7e 0a		 jle	 SHORT $L187875

; 115  : 		{
; 116  : 			m_lSkip--;

  00022	48		 dec	 eax
  00023	89 46 6c	 mov	 DWORD PTR [esi+108], eax
$L187874:

; 120  : 	}
; 121  : 	return FALSE;

  00026	33 c0		 xor	 eax, eax
  00028	5e		 pop	 esi

; 122  : }

  00029	c2 04 00	 ret	 4
$L187875:

; 117  : 			return FALSE;
; 118  : 		}
; 119  : 		return TRUE;

  0002c	b8 01 00 00 00	 mov	 eax, 1
  00031	5e		 pop	 esi

; 122  : }

  00032	c2 04 00	 ret	 4
?IsTimeout@CEventItem@@QAEHH@Z ENDP			; CEventItem::IsTimeout
_TEXT	ENDS
PUBLIC	?Skip@CEventItem@@QAEXJ@Z			; CEventItem::Skip
; Function compile flags: /Ogty
;	COMDAT ?Skip@CEventItem@@QAEXJ@Z
_TEXT	SEGMENT
_lSkip$ = 8						; size = 4
?Skip@CEventItem@@QAEXJ@Z PROC NEAR			; CEventItem::Skip, COMDAT
; _this$ = ecx

; 126  : 	m_lSkip		= lSkip;

  00000	8b 44 24 04	 mov	 eax, DWORD PTR _lSkip$[esp-4]
  00004	89 41 6c	 mov	 DWORD PTR [ecx+108], eax

; 127  : }

  00007	c2 04 00	 ret	 4
?Skip@CEventItem@@QAEXJ@Z ENDP				; CEventItem::Skip
_TEXT	ENDS
PUBLIC	?InterlockedExchangePointer@@YGPAXPAPAXPAX@Z	; InterlockedExchangePointer
EXTRN	__imp__InterlockedExchange@8:NEAR
; Function compile flags: /Ogty
; File c:\program files\microsoft visual studio .net 2003\vc7\atlmfc\include\atlconv.h
;	COMDAT ?InterlockedExchangePointer@@YGPAXPAPAXPAX@Z
_TEXT	SEGMENT
_pp$ = 8						; size = 4
_pNew$ = 12						; size = 4
?InterlockedExchangePointer@@YGPAXPAPAXPAX@Z PROC NEAR	; InterlockedExchangePointer, COMDAT

; 92   : 	return( reinterpret_cast<void*>(static_cast<LONG_PTR>(::InterlockedExchange(reinterpret_cast<LONG*>(pp), static_cast<LONG>(reinterpret_cast<LONG_PTR>(pNew))))) );

  00000	ff 25 00 00 00
	00		 jmp	 DWORD PTR __imp__InterlockedExchange@8
?InterlockedExchangePointer@@YGPAXPAPAXPAX@Z ENDP	; InterlockedExchangePointer
_TEXT	ENDS
PUBLIC	?_AtlGetThreadACPFake@ATL@@YGIXZ		; ATL::_AtlGetThreadACPFake
EXTRN	__imp__GetThreadLocale@0:NEAR
EXTRN	__imp__GetACP@0:NEAR
EXTRN	__imp__GetLocaleInfoA@16:NEAR
; Function compile flags: /Ogty
;	COMDAT ?_AtlGetThreadACPFake@ATL@@YGIXZ
_TEXT	SEGMENT
_szACP$ = -12						; size = 7
__$ArrayPad$ = -4					; size = 4
__$ReturnAddr$ = 4					; size = 4
?_AtlGetThreadACPFake@ATL@@YGIXZ PROC NEAR		; ATL::_AtlGetThreadACPFake, COMDAT

; 101  : {

  00000	83 ec 0c	 sub	 esp, 12			; 0000000cH
  00003	a1 00 00 00 00	 mov	 eax, DWORD PTR ___security_cookie
  00008	33 c4		 xor	 eax, esp
  0000a	56		 push	 esi
  0000b	89 44 24 0c	 mov	 DWORD PTR __$ArrayPad$[esp+16], eax

; 102  : 	UINT nACP = 0;

  0000f	33 f6		 xor	 esi, esi

; 103  : 
; 104  : 	LCID lcidThread = ::GetThreadLocale();

  00011	ff 15 00 00 00
	00		 call	 DWORD PTR __imp__GetThreadLocale@0

; 105  : 
; 106  : 	char szACP[7];
; 107  : 	// GetLocaleInfoA will fail for a Unicode-only LCID, but those are only supported on 
; 108  : 	// Windows 2000.  Since Windows 2000 supports CP_THREAD_ACP, this code path is never
; 109  : 	// executed on Windows 2000.
; 110  : 	if (::GetLocaleInfoA(lcidThread, LOCALE_IDEFAULTANSICODEPAGE, szACP, 7) != 0)

  00017	6a 07		 push	 7
  00019	8d 4c 24 08	 lea	 ecx, DWORD PTR _szACP$[esp+20]
  0001d	51		 push	 ecx
  0001e	68 04 10 00 00	 push	 4100			; 00001004H
  00023	50		 push	 eax
  00024	ff 15 00 00 00
	00		 call	 DWORD PTR __imp__GetLocaleInfoA@16
  0002a	85 c0		 test	 eax, eax
  0002c	74 27		 je	 SHORT $L190233

; 111  : 	{
; 112  : 		char* pch = szACP;
; 113  : 		while (*pch != '\0')

  0002e	8a 44 24 04	 mov	 al, BYTE PTR _szACP$[esp+16]
  00032	84 c0		 test	 al, al
  00034	8d 4c 24 04	 lea	 ecx, DWORD PTR _szACP$[esp+16]
  00038	74 1b		 je	 SHORT $L190233
  0003a	8d 9b 00 00 00
	00		 npad	 6
$L38554:

; 114  : 		{
; 115  : 			nACP *= 10;
; 116  : 			nACP += *pch++ - '0';

  00040	0f be c0	 movsx	 eax, al
  00043	8d 14 b6	 lea	 edx, DWORD PTR [esi+esi*4]
  00046	41		 inc	 ecx
  00047	8d 74 50 d0	 lea	 esi, DWORD PTR [eax+edx*2-48]
  0004b	8a 01		 mov	 al, BYTE PTR [ecx]
  0004d	84 c0		 test	 al, al
  0004f	75 ef		 jne	 SHORT $L38554

; 117  : 		}
; 118  : 	}
; 119  : 	// Use the Default ANSI Code Page if we were unable to get the thread ACP or if one does not exist.
; 120  : 	if (nACP == 0)

  00051	85 f6		 test	 esi, esi
  00053	75 16		 jne	 SHORT $L190234
$L190233:

; 121  : 		nACP = ::GetACP();

  00055	ff 15 00 00 00
	00		 call	 DWORD PTR __imp__GetACP@0
  0005b	5e		 pop	 esi

; 122  : 
; 123  : 	return nACP;
; 124  : }

  0005c	8b 4c 24 08	 mov	 ecx, DWORD PTR __$ArrayPad$[esp+12]
  00060	33 cc		 xor	 ecx, esp
  00062	e8 00 00 00 00	 call	 @__security_check_cookie@4
  00067	83 c4 0c	 add	 esp, 12			; 0000000cH
  0006a	c3		 ret	 0
$L190234:
  0006b	8b 4c 24 0c	 mov	 ecx, DWORD PTR __$ArrayPad$[esp+16]
  0006f	8b c6		 mov	 eax, esi
  00071	5e		 pop	 esi
  00072	33 cc		 xor	 ecx, esp
  00074	e8 00 00 00 00	 call	 @__security_check_cookie@4
  00079	83 c4 0c	 add	 esp, 12			; 0000000cH
  0007c	c3		 ret	 0
?_AtlGetThreadACPFake@ATL@@YGIXZ ENDP			; ATL::_AtlGetThreadACPFake
_TEXT	ENDS
PUBLIC	?_AtlGetThreadACPReal@ATL@@YGIXZ		; ATL::_AtlGetThreadACPReal
; Function compile flags: /Ogty
;	COMDAT ?_AtlGetThreadACPReal@ATL@@YGIXZ
_TEXT	SEGMENT
?_AtlGetThreadACPReal@ATL@@YGIXZ PROC NEAR		; ATL::_AtlGetThreadACPReal, COMDAT

; 128  : 	return( CP_THREAD_ACP );

  00000	b8 03 00 00 00	 mov	 eax, 3

; 129  : }

  00005	c3		 ret	 0
?_AtlGetThreadACPReal@ATL@@YGIXZ ENDP			; ATL::_AtlGetThreadACPReal
_TEXT	ENDS
EXTRN	__imp__GetVersionExA@4:NEAR
; Function compile flags: /Ogty
;	COMDAT ?_AtlGetThreadACPThunk@ATL@@YGIXZ
_TEXT	SEGMENT
_ver$ = -152						; size = 148
__$ArrayPad$ = -4					; size = 4
__$ReturnAddr$ = 4					; size = 4
?_AtlGetThreadACPThunk@ATL@@YGIXZ PROC NEAR		; ATL::_AtlGetThreadACPThunk, COMDAT

; 134  : {

  00000	81 ec 98 00 00
	00		 sub	 esp, 152		; 00000098H
  00006	a1 00 00 00 00	 mov	 eax, DWORD PTR ___security_cookie
  0000b	33 c4		 xor	 eax, esp
  0000d	89 84 24 94 00
	00 00		 mov	 DWORD PTR __$ArrayPad$[esp+152], eax

; 135  : 	OSVERSIONINFO ver;
; 136  : 	ATLGETTHREADACP pfnGetThreadACP;
; 137  : 
; 138  : 	ver.dwOSVersionInfoSize = sizeof( ver );
; 139  : 	::GetVersionEx( &ver );

  00014	8d 04 24	 lea	 eax, DWORD PTR _ver$[esp+152]
  00017	50		 push	 eax
  00018	c7 44 24 04 94
	00 00 00	 mov	 DWORD PTR _ver$[esp+156], 148 ; 00000094H
  00020	ff 15 00 00 00
	00		 call	 DWORD PTR __imp__GetVersionExA@4

; 140  : 	if( (ver.dwPlatformId == VER_PLATFORM_WIN32_NT) && (ver.dwMajorVersion >= 5) )

  00026	83 7c 24 10 02	 cmp	 DWORD PTR _ver$[esp+168], 2
  0002b	75 0c		 jne	 SHORT $L38564
  0002d	83 7c 24 04 05	 cmp	 DWORD PTR _ver$[esp+156], 5

; 141  : 	{
; 142  : 		// On Win2K, CP_THREAD_ACP is supported
; 143  : 		pfnGetThreadACP = _AtlGetThreadACPReal;

  00032	b8 00 00 00 00	 mov	 eax, OFFSET FLAT:?_AtlGetThreadACPReal@ATL@@YGIXZ ; ATL::_AtlGetThreadACPReal
  00037	73 05		 jae	 SHORT $L38565
$L38564:

; 144  : 	}
; 145  : 	else
; 146  : 	{
; 147  : 		pfnGetThreadACP = _AtlGetThreadACPFake;

  00039	b8 00 00 00 00	 mov	 eax, OFFSET FLAT:?_AtlGetThreadACPFake@ATL@@YGIXZ ; ATL::_AtlGetThreadACPFake
$L38565:

; 148  : 	}
; 149  : 	InterlockedExchangePointer( reinterpret_cast< void** >(&g_pfnGetThreadACP), pfnGetThreadACP );

  0003e	50		 push	 eax
  0003f	68 00 00 00 00	 push	 OFFSET FLAT:?g_pfnGetThreadACP@ATL@@3P6GIXZA ; ATL::g_pfnGetThreadACP
  00044	ff 15 00 00 00
	00		 call	 DWORD PTR __imp__InterlockedExchange@8

; 150  : 
; 151  : 	return( g_pfnGetThreadACP() );

  0004a	ff 15 00 00 00
	00		 call	 DWORD PTR ?g_pfnGetThreadACP@ATL@@3P6GIXZA ; ATL::g_pfnGetThreadACP

; 152  : }

  00050	8b 8c 24 94 00
	00 00		 mov	 ecx, DWORD PTR __$ArrayPad$[esp+152]
  00057	33 cc		 xor	 ecx, esp
  00059	e8 00 00 00 00	 call	 @__security_check_cookie@4
  0005e	81 c4 98 00 00
	00		 add	 esp, 152		; 00000098H
  00064	c3		 ret	 0
?_AtlGetThreadACPThunk@ATL@@YGIXZ ENDP			; ATL::_AtlGetThreadACPThunk
_TEXT	ENDS
PUBLIC	?_AtlGetConversionACP@ATL@@YGIXZ		; ATL::_AtlGetConversionACP
; Function compile flags: /Ogty
;	COMDAT ?_AtlGetConversionACP@ATL@@YGIXZ
_TEXT	SEGMENT
?_AtlGetConversionACP@ATL@@YGIXZ PROC NEAR		; ATL::_AtlGetConversionACP, COMDAT

; 158  : 	return( g_pfnGetThreadACP() );

  00000	ff 25 00 00 00
	00		 jmp	 DWORD PTR ?g_pfnGetThreadACP@ATL@@3P6GIXZA ; ATL::g_pfnGetThreadACP
?_AtlGetConversionACP@ATL@@YGIXZ ENDP			; ATL::_AtlGetConversionACP
_TEXT	ENDS
PUBLIC	?size@?$list@PAU_EVENT_GENERIC@@V?$allocator@PAU_EVENT_GENERIC@@@std@@@std@@QBEIXZ ; std::list<_EVENT_GENERIC *,std::allocator<_EVENT_GENERIC *> >::size
; Function compile flags: /Ogty
; File c:\program files\microsoft visual studio .net 2003\vc7\include\list
;	COMDAT ?size@?$list@PAU_EVENT_GENERIC@@V?$allocator@PAU_EVENT_GENERIC@@@std@@@std@@QBEIXZ
_TEXT	SEGMENT
?size@?$list@PAU_EVENT_GENERIC@@V?$allocator@PAU_EVENT_GENERIC@@@std@@@std@@QBEIXZ PROC NEAR ; std::list<_EVENT_GENERIC *,std::allocator<_EVENT_GENERIC *> >::size, COMDAT
; _this$ = ecx

; 431  : 		return (_Mysize);

  00000	8b 41 08	 mov	 eax, DWORD PTR [ecx+8]

; 432  : 		}

  00003	c3		 ret	 0
?size@?$list@PAU_EVENT_GENERIC@@V?$allocator@PAU_EVENT_GENERIC@@@std@@@std@@QBEIXZ ENDP ; std::list<_EVENT_GENERIC *,std::allocator<_EVENT_GENERIC *> >::size
_TEXT	ENDS
PUBLIC	?size@?$_Tree@V?$_Tmap_traits@HPAV?$list@PAVCEventItem@@V?$allocator@PAVCEventItem@@@std@@@std@@U?$less@H@2@V?$allocator@U?$pair@$$CBHPAV?$list@PAVCEventItem@@V?$allocator@PAVCEventItem@@@std@@@std@@@std@@@2@$0A@@std@@@std@@QBEIXZ ; std::_Tree<std::_Tmap_traits<int,std::list<CEventItem *,std::allocator<CEventItem *> > *,std::less<int>,std::allocator<std::pair<int const ,std::list<CEventItem *,std::allocator<CEventItem *> > *> >,0> >::size
; Function compile flags: /Ogty
; File c:\program files\microsoft visual studio .net 2003\vc7\include\xtree
;	COMDAT ?size@?$_Tree@V?$_Tmap_traits@HPAV?$list@PAVCEventItem@@V?$allocator@PAVCEventItem@@@std@@@std@@U?$less@H@2@V?$allocator@U?$pair@$$CBHPAV?$list@PAVCEventItem@@V?$allocator@PAVCEventItem@@@std@@@std@@@std@@@2@$0A@@std@@@std@@QBEIXZ
_TEXT	SEGMENT
?size@?$_Tree@V?$_Tmap_traits@HPAV?$list@PAVCEventItem@@V?$allocator@PAVCEventItem@@@std@@@std@@U?$less@H@2@V?$allocator@U?$pair@$$CBHPAV?$list@PAVCEventItem@@V?$allocator@PAVCEventItem@@@std@@@std@@@std@@@2@$0A@@std@@@std@@QBEIXZ PROC NEAR ; std::_Tree<std::_Tmap_traits<int,std::list<CEventItem *,std::allocator<CEventItem *> > *,std::less<int>,std::allocator<std::pair<int const ,std::list<CEventItem *,std::allocator<CEventItem *> > *> >,0> >::size, COMDAT
; _this$ = ecx

; 448  : 		return (_Mysize);

  00000	8b 41 08	 mov	 eax, DWORD PTR [ecx+8]

; 449  : 		}

  00003	c3		 ret	 0
?size@?$_Tree@V?$_Tmap_traits@HPAV?$list@PAVCEventItem@@V?$allocator@PAVCEventItem@@@std@@@std@@U?$less@H@2@V?$allocator@U?$pair@$$CBHPAV?$list@PAVCEventItem@@V?$allocator@PAVCEventItem@@@std@@@std@@@std@@@2@$0A@@std@@@std@@QBEIXZ ENDP ; std::_Tree<std::_Tmap_traits<int,std::list<CEventItem *,std::allocator<CEventItem *> > *,std::less<int>,std::allocator<std::pair<int const ,std::list<CEventItem *,std::allocator<CEventItem *> > *> >,0> >::size
_TEXT	ENDS
PUBLIC	??8const_iterator@?$_Tree@V?$_Tmap_traits@HPAV?$list@PAVCEventItem@@V?$allocator@PAVCEventItem@@@std@@@std@@U?$less@H@2@V?$allocator@U?$pair@$$CBHPAV?$list@PAVCEventItem@@V?$allocator@PAVCEventItem@@@std@@@std@@@std@@@2@$0A@@std@@@std@@QBE_NABV012@@Z ; std::_Tree<std::_Tmap_traits<int,std::list<CEventItem *,std::allocator<CEventItem *> > *,std::less<int>,std::allocator<std::pair<int const ,std::list<CEventItem *,std::allocator<CEventItem *> > *> >,0> >::const_iterator::operator==
; Function compile flags: /Ogty
;	COMDAT ??8const_iterator@?$_Tree@V?$_Tmap_traits@HPAV?$list@PAVCEventItem@@V?$allocator@PAVCEventItem@@@std@@@std@@U?$less@H@2@V?$allocator@U?$pair@$$CBHPAV?$list@PAVCEventItem@@V?$allocator@PAVCEventItem@@@std@@@std@@@std@@@2@$0A@@std@@@std@@QBE_NABV012@@Z
_TEXT	SEGMENT
__Right$ = 8						; size = 4
??8const_iterator@?$_Tree@V?$_Tmap_traits@HPAV?$list@PAVCEventItem@@V?$allocator@PAVCEventItem@@@std@@@std@@U?$less@H@2@V?$allocator@U?$pair@$$CBHPAV?$list@PAVCEventItem@@V?$allocator@PAVCEventItem@@@std@@@std@@@std@@@2@$0A@@std@@@std@@QBE_NABV012@@Z PROC NEAR ; std::_Tree<std::_Tmap_traits<int,std::list<CEventItem *,std::allocator<CEventItem *> > *,std::less<int>,std::allocator<std::pair<int const ,std::list<CEventItem *,std::allocator<CEventItem *> > *> >,0> >::const_iterator::operator==, COMDAT
; _this$ = ecx

; 241  : 			return (_Ptr == _Right._Ptr);

  00000	8b 01		 mov	 eax, DWORD PTR [ecx]
  00002	8b 4c 24 04	 mov	 ecx, DWORD PTR __Right$[esp-4]
  00006	2b 01		 sub	 eax, DWORD PTR [ecx]
  00008	f7 d8		 neg	 eax
  0000a	1b c0		 sbb	 eax, eax
  0000c	40		 inc	 eax

; 242  : 			}

  0000d	c2 04 00	 ret	 4
??8const_iterator@?$_Tree@V?$_Tmap_traits@HPAV?$list@PAVCEventItem@@V?$allocator@PAVCEventItem@@@std@@@std@@U?$less@H@2@V?$allocator@U?$pair@$$CBHPAV?$list@PAVCEventItem@@V?$allocator@PAVCEventItem@@@std@@@std@@@std@@@2@$0A@@std@@@std@@QBE_NABV012@@Z ENDP ; std::_Tree<std::_Tmap_traits<int,std::list<CEventItem *,std::allocator<CEventItem *> > *,std::less<int>,std::allocator<std::pair<int const ,std::list<CEventItem *,std::allocator<CEventItem *> > *> >,0> >::const_iterator::operator==
_TEXT	ENDS
PUBLIC	??9const_iterator@?$_Tree@V?$_Tmap_traits@HPAV?$list@PAVCEventItem@@V?$allocator@PAVCEventItem@@@std@@@std@@U?$less@H@2@V?$allocator@U?$pair@$$CBHPAV?$list@PAVCEventItem@@V?$allocator@PAVCEventItem@@@std@@@std@@@std@@@2@$0A@@std@@@std@@QBE_NABV012@@Z ; std::_Tree<std::_Tmap_traits<int,std::list<CEventItem *,std::allocator<CEventItem *> > *,std::less<int>,std::allocator<std::pair<int const ,std::list<CEventItem *,std::allocator<CEventItem *> > *> >,0> >::const_iterator::operator!=
; Function compile flags: /Ogty
;	COMDAT ??9const_iterator@?$_Tree@V?$_Tmap_traits@HPAV?$list@PAVCEventItem@@V?$allocator@PAVCEventItem@@@std@@@std@@U?$less@H@2@V?$allocator@U?$pair@$$CBHPAV?$list@PAVCEventItem@@V?$allocator@PAVCEventItem@@@std@@@std@@@std@@@2@$0A@@std@@@std@@QBE_NABV012@@Z
_TEXT	SEGMENT
__Right$ = 8						; size = 4
??9const_iterator@?$_Tree@V?$_Tmap_traits@HPAV?$list@PAVCEventItem@@V?$allocator@PAVCEventItem@@@std@@@std@@U?$less@H@2@V?$allocator@U?$pair@$$CBHPAV?$list@PAVCEventItem@@V?$allocator@PAVCEventItem@@@std@@@std@@@std@@@2@$0A@@std@@@std@@QBE_NABV012@@Z PROC NEAR ; std::_Tree<std::_Tmap_traits<int,std::list<CEventItem *,std::allocator<CEventItem *> > *,std::less<int>,std::allocator<std::pair<int const ,std::list<CEventItem *,std::allocator<CEventItem *> > *> >,0> >::const_iterator::operator!=, COMDAT
; _this$ = ecx

; 246  : 			return (!(*this == _Right));

  00000	8b 01		 mov	 eax, DWORD PTR [ecx]
  00002	8b 54 24 04	 mov	 edx, DWORD PTR __Right$[esp-4]
  00006	56		 push	 esi
  00007	8b 32		 mov	 esi, DWORD PTR [edx]
  00009	33 c9		 xor	 ecx, ecx
  0000b	3b c6		 cmp	 eax, esi
  0000d	0f 95 c1	 setne	 cl
  00010	8a c1		 mov	 al, cl
  00012	5e		 pop	 esi

; 247  : 			}

  00013	c2 04 00	 ret	 4
??9const_iterator@?$_Tree@V?$_Tmap_traits@HPAV?$list@PAVCEventItem@@V?$allocator@PAVCEventItem@@@std@@@std@@U?$less@H@2@V?$allocator@U?$pair@$$CBHPAV?$list@PAVCEventItem@@V?$allocator@PAVCEventItem@@@std@@@std@@@std@@@2@$0A@@std@@@std@@QBE_NABV012@@Z ENDP ; std::_Tree<std::_Tmap_traits<int,std::list<CEventItem *,std::allocator<CEventItem *> > *,std::less<int>,std::allocator<std::pair<int const ,std::list<CEventItem *,std::allocator<CEventItem *> > *> >,0> >::const_iterator::operator!=
_TEXT	ENDS
PUBLIC	??0?$pair@$$CBHPAV?$list@PAVCEventItem@@V?$allocator@PAVCEventItem@@@std@@@std@@@std@@QAE@ABHABQAV?$list@PAVCEventItem@@V?$allocator@PAVCEventItem@@@std@@@1@@Z ; std::pair<int const ,std::list<CEventItem *,std::allocator<CEventItem *> > *>::pair<int const ,std::list<CEventItem *,std::allocator<CEventItem *> > *>
; Function compile flags: /Ogty
; File c:\program files\microsoft visual studio .net 2003\vc7\include\utility
;	COMDAT ??0?$pair@$$CBHPAV?$list@PAVCEventItem@@V?$allocator@PAVCEventItem@@@std@@@std@@@std@@QAE@ABHABQAV?$list@PAVCEventItem@@V?$allocator@PAVCEventItem@@@std@@@1@@Z
_TEXT	SEGMENT
__Val1$ = 8						; size = 4
__Val2$ = 12						; size = 4
??0?$pair@$$CBHPAV?$list@PAVCEventItem@@V?$allocator@PAVCEventItem@@@std@@@std@@@std@@QAE@ABHABQAV?$list@PAVCEventItem@@V?$allocator@PAVCEventItem@@@std@@@1@@Z PROC NEAR ; std::pair<int const ,std::list<CEventItem *,std::allocator<CEventItem *> > *>::pair<int const ,std::list<CEventItem *,std::allocator<CEventItem *> > *>, COMDAT
; _this$ = ecx

; 34   : 		{	// construct from specified values

  00000	8b c1		 mov	 eax, ecx
  00002	8b 4c 24 04	 mov	 ecx, DWORD PTR __Val1$[esp-4]
  00006	8b 11		 mov	 edx, DWORD PTR [ecx]
  00008	8b 4c 24 08	 mov	 ecx, DWORD PTR __Val2$[esp-4]
  0000c	89 10		 mov	 DWORD PTR [eax], edx
  0000e	8b 11		 mov	 edx, DWORD PTR [ecx]
  00010	89 50 04	 mov	 DWORD PTR [eax+4], edx

; 35   : 		}

  00013	c2 08 00	 ret	 8
??0?$pair@$$CBHPAV?$list@PAVCEventItem@@V?$allocator@PAVCEventItem@@@std@@@std@@@std@@QAE@ABHABQAV?$list@PAVCEventItem@@V?$allocator@PAVCEventItem@@@std@@@1@@Z ENDP ; std::pair<int const ,std::list<CEventItem *,std::allocator<CEventItem *> > *>::pair<int const ,std::list<CEventItem *,std::allocator<CEventItem *> > *>
_TEXT	ENDS
PUBLIC	?size@?$list@PAVCEventItem@@V?$allocator@PAVCEventItem@@@std@@@std@@QBEIXZ ; std::list<CEventItem *,std::allocator<CEventItem *> >::size
; Function compile flags: /Ogty
; File c:\program files\microsoft visual studio .net 2003\vc7\include\list
;	COMDAT ?size@?$list@PAVCEventItem@@V?$allocator@PAVCEventItem@@@std@@@std@@QBEIXZ
_TEXT	SEGMENT
?size@?$list@PAVCEventItem@@V?$allocator@PAVCEventItem@@@std@@@std@@QBEIXZ PROC NEAR ; std::list<CEventItem *,std::allocator<CEventItem *> >::size, COMDAT
; _this$ = ecx

; 431  : 		return (_Mysize);

  00000	8b 41 08	 mov	 eax, DWORD PTR [ecx+8]

; 432  : 		}

  00003	c3		 ret	 0
?size@?$list@PAVCEventItem@@V?$allocator@PAVCEventItem@@@std@@@std@@QBEIXZ ENDP ; std::list<CEventItem *,std::allocator<CEventItem *> >::size
_TEXT	ENDS
PUBLIC	?AtlThrow@ATL@@YGXJ@Z				; ATL::AtlThrow
EXTRN	?AfxThrowMemoryException@@YGXXZ:NEAR		; AfxThrowMemoryException
EXTRN	?AfxThrowOleException@@YGXJ@Z:NEAR		; AfxThrowOleException
; Function compile flags: /Ogty
; File c:\program files\microsoft visual studio .net 2003\vc7\atlmfc\include\atlexcept.h
;	COMDAT ?AtlThrow@ATL@@YGXJ@Z
_TEXT	SEGMENT
_hr$ = 8						; size = 4
?AtlThrow@ATL@@YGXJ@Z PROC NEAR				; ATL::AtlThrow, COMDAT

; 62   : 	ATLTRACE(atlTraceException, 0, _T("AtlThrow: hr = 0x%x\n"), hr );
; 63   : #ifdef _AFX
; 64   : 	if( hr == E_OUTOFMEMORY )

  00000	8b 44 24 04	 mov	 eax, DWORD PTR _hr$[esp-4]
  00004	3d 0e 00 07 80	 cmp	 eax, -2147024882	; 8007000eH
  00009	75 05		 jne	 SHORT $L39166

; 65   : 	{
; 66   : 		AfxThrowMemoryException();

  0000b	e8 00 00 00 00	 call	 ?AfxThrowMemoryException@@YGXXZ ; AfxThrowMemoryException
$L39166:

; 67   : 	}
; 68   : 	else
; 69   : 	{
; 70   : 		AfxThrowOleException( hr );

  00010	50		 push	 eax
  00011	e8 00 00 00 00	 call	 ?AfxThrowOleException@@YGXJ@Z ; AfxThrowOleException
$L190265:
  00016	cc		 int	 3
?AtlThrow@ATL@@YGXJ@Z ENDP				; ATL::AtlThrow
_TEXT	ENDS
PUBLIC	?SafeStringLen@?$ChTraitsCRT@D@ATL@@SAHPBD@Z	; ATL::ChTraitsCRT<char>::SafeStringLen
; Function compile flags: /Ogty
; File c:\program files\microsoft visual studio .net 2003\vc7\atlmfc\include\cstringt.h
;	COMDAT ?SafeStringLen@?$ChTraitsCRT@D@ATL@@SAHPBD@Z
_TEXT	SEGMENT
_psz$ = 8						; size = 4
?SafeStringLen@?$ChTraitsCRT@D@ATL@@SAHPBD@Z PROC NEAR	; ATL::ChTraitsCRT<char>::SafeStringLen, COMDAT

; 508  : 		// returns length in bytes
; 509  : 		return (psz != NULL) ? int( strlen( psz ) ) : 0;

  00000	8b 44 24 04	 mov	 eax, DWORD PTR _psz$[esp-4]
  00004	85 c0		 test	 eax, eax
  00006	74 12		 je	 SHORT $L190268
  00008	8d 50 01	 lea	 edx, DWORD PTR [eax+1]
  0000b	eb 03 8d 49 00	 npad	 5
$L190270:
  00010	8a 08		 mov	 cl, BYTE PTR [eax]
  00012	40		 inc	 eax
  00013	84 c9		 test	 cl, cl
  00015	75 f9		 jne	 SHORT $L190270
  00017	2b c2		 sub	 eax, edx

; 510  : 	}

  00019	c3		 ret	 0
$L190268:

; 508  : 		// returns length in bytes
; 509  : 		return (psz != NULL) ? int( strlen( psz ) ) : 0;

  0001a	33 c0		 xor	 eax, eax

; 510  : 	}

  0001c	c3		 ret	 0
?SafeStringLen@?$ChTraitsCRT@D@ATL@@SAHPBD@Z ENDP	; ATL::ChTraitsCRT<char>::SafeStringLen
_TEXT	ENDS
PUBLIC	??R?$less@H@std@@QBE_NABH0@Z			; std::less<int>::operator()
; Function compile flags: /Ogty
; File c:\program files\microsoft visual studio .net 2003\vc7\include\functional
;	COMDAT ??R?$less@H@std@@QBE_NABH0@Z
_TEXT	SEGMENT
__Left$ = 8						; size = 4
__Right$ = 12						; size = 4
??R?$less@H@std@@QBE_NABH0@Z PROC NEAR			; std::less<int>::operator(), COMDAT
; _this$ = ecx

; 139  : 		return (_Left < _Right);

  00000	8b 44 24 04	 mov	 eax, DWORD PTR __Left$[esp-4]
  00004	8b 08		 mov	 ecx, DWORD PTR [eax]
  00006	8b 54 24 08	 mov	 edx, DWORD PTR __Right$[esp-4]
  0000a	56		 push	 esi
  0000b	8b 32		 mov	 esi, DWORD PTR [edx]
  0000d	33 c0		 xor	 eax, eax
  0000f	3b ce		 cmp	 ecx, esi
  00011	0f 9c c0	 setl	 al
  00014	5e		 pop	 esi

; 140  : 		}

  00015	c2 08 00	 ret	 8
??R?$less@H@std@@QBE_NABH0@Z ENDP			; std::less<int>::operator()
_TEXT	ENDS
PUBLIC	?_Nextnode@?$list@PAU_EVENT_GENERIC@@V?$allocator@PAU_EVENT_GENERIC@@@std@@@std@@KAAAPAU_Node@?$_List_nod@PAU_EVENT_GENERIC@@V?$allocator@PAU_EVENT_GENERIC@@@std@@@2@PAU342@@Z ; std::list<_EVENT_GENERIC *,std::allocator<_EVENT_GENERIC *> >::_Nextnode
; Function compile flags: /Ogty
; File c:\program files\microsoft visual studio .net 2003\vc7\include\list
;	COMDAT ?_Nextnode@?$list@PAU_EVENT_GENERIC@@V?$allocator@PAU_EVENT_GENERIC@@@std@@@std@@KAAAPAU_Node@?$_List_nod@PAU_EVENT_GENERIC@@V?$allocator@PAU_EVENT_GENERIC@@@std@@@2@PAU342@@Z
_TEXT	SEGMENT
__Pnode$ = 8						; size = 4
?_Nextnode@?$list@PAU_EVENT_GENERIC@@V?$allocator@PAU_EVENT_GENERIC@@@std@@@std@@KAAAPAU_Node@?$_List_nod@PAU_EVENT_GENERIC@@V?$allocator@PAU_EVENT_GENERIC@@@std@@@2@PAU342@@Z PROC NEAR ; std::list<_EVENT_GENERIC *,std::allocator<_EVENT_GENERIC *> >::_Nextnode, COMDAT

; 108  : 		return ((_Nodepref)(*_Pnode)._Next);

  00000	8b 44 24 04	 mov	 eax, DWORD PTR __Pnode$[esp-4]

; 109  : 		}

  00004	c3		 ret	 0
?_Nextnode@?$list@PAU_EVENT_GENERIC@@V?$allocator@PAU_EVENT_GENERIC@@@std@@@std@@KAAAPAU_Node@?$_List_nod@PAU_EVENT_GENERIC@@V?$allocator@PAU_EVENT_GENERIC@@@std@@@2@PAU342@@Z ENDP ; std::list<_EVENT_GENERIC *,std::allocator<_EVENT_GENERIC *> >::_Nextnode
_TEXT	ENDS
PUBLIC	?_Prevnode@?$list@PAU_EVENT_GENERIC@@V?$allocator@PAU_EVENT_GENERIC@@@std@@@std@@KAAAPAU_Node@?$_List_nod@PAU_EVENT_GENERIC@@V?$allocator@PAU_EVENT_GENERIC@@@std@@@2@PAU342@@Z ; std::list<_EVENT_GENERIC *,std::allocator<_EVENT_GENERIC *> >::_Prevnode
; Function compile flags: /Ogty
;	COMDAT ?_Prevnode@?$list@PAU_EVENT_GENERIC@@V?$allocator@PAU_EVENT_GENERIC@@@std@@@std@@KAAAPAU_Node@?$_List_nod@PAU_EVENT_GENERIC@@V?$allocator@PAU_EVENT_GENERIC@@@std@@@2@PAU342@@Z
_TEXT	SEGMENT
__Pnode$ = 8						; size = 4
?_Prevnode@?$list@PAU_EVENT_GENERIC@@V?$allocator@PAU_EVENT_GENERIC@@@std@@@std@@KAAAPAU_Node@?$_List_nod@PAU_EVENT_GENERIC@@V?$allocator@PAU_EVENT_GENERIC@@@std@@@2@PAU342@@Z PROC NEAR ; std::list<_EVENT_GENERIC *,std::allocator<_EVENT_GENERIC *> >::_Prevnode, COMDAT

; 113  : 		return ((_Nodepref)(*_Pnode)._Prev);

  00000	8b 44 24 04	 mov	 eax, DWORD PTR __Pnode$[esp-4]
  00004	83 c0 04	 add	 eax, 4

; 114  : 		}

  00007	c3		 ret	 0
?_Prevnode@?$list@PAU_EVENT_GENERIC@@V?$allocator@PAU_EVENT_GENERIC@@@std@@@std@@KAAAPAU_Node@?$_List_nod@PAU_EVENT_GENERIC@@V?$allocator@PAU_EVENT_GENERIC@@@std@@@2@PAU342@@Z ENDP ; std::list<_EVENT_GENERIC *,std::allocator<_EVENT_GENERIC *> >::_Prevnode
_TEXT	ENDS
PUBLIC	?_AtlGetStringResourceImage@ATL@@YAPBUATLSTRINGRESOURCEIMAGE@1@PAUHINSTANCE__@@PAUHRSRC__@@I@Z ; ATL::_AtlGetStringResourceImage
EXTRN	__imp__LoadResource@8:NEAR
EXTRN	__imp__SizeofResource@8:NEAR
EXTRN	__imp__LockResource@4:NEAR
; Function compile flags: /Ogty
; File c:\program files\microsoft visual studio .net 2003\vc7\atlmfc\include\atlcore.h
;	COMDAT ?_AtlGetStringResourceImage@ATL@@YAPBUATLSTRINGRESOURCEIMAGE@1@PAUHINSTANCE__@@PAUHRSRC__@@I@Z
_TEXT	SEGMENT
_hInstance$ = 8						; size = 4
_hResource$ = 12					; size = 4
_id$ = 16						; size = 4
?_AtlGetStringResourceImage@ATL@@YAPBUATLSTRINGRESOURCEIMAGE@1@PAUHINSTANCE__@@PAUHRSRC__@@I@Z PROC NEAR ; ATL::_AtlGetStringResourceImage, COMDAT

; 239  : {

  00000	53		 push	 ebx

; 240  : 	const ATLSTRINGRESOURCEIMAGE* pImage;
; 241  : 	const ATLSTRINGRESOURCEIMAGE* pImageEnd;
; 242  : 	ULONG nResourceSize;
; 243  : 	HGLOBAL hGlobal;
; 244  : 	UINT iIndex;
; 245  : 
; 246  : 	hGlobal = ::LoadResource( hInstance, hResource );

  00001	8b 5c 24 08	 mov	 ebx, DWORD PTR _hInstance$[esp]
  00005	57		 push	 edi
  00006	8b 7c 24 10	 mov	 edi, DWORD PTR _hResource$[esp+4]
  0000a	57		 push	 edi
  0000b	53		 push	 ebx
  0000c	ff 15 00 00 00
	00		 call	 DWORD PTR __imp__LoadResource@8

; 247  : 	if( hGlobal == NULL )

  00012	85 c0		 test	 eax, eax
  00014	75 03		 jne	 SHORT $L39520
  00016	5f		 pop	 edi
  00017	5b		 pop	 ebx

; 272  : 	{
; 273  : 		return( NULL );
; 274  : 	}
; 275  : 
; 276  : 	return( pImage );
; 277  : }

  00018	c3		 ret	 0
$L39520:
  00019	56		 push	 esi

; 248  : 	{
; 249  : 		return( NULL );
; 250  : 	}
; 251  : 
; 252  : 	pImage = (const ATLSTRINGRESOURCEIMAGE*)::LockResource( hGlobal );

  0001a	50		 push	 eax
  0001b	ff 15 00 00 00
	00		 call	 DWORD PTR __imp__LockResource@4
  00021	8b f0		 mov	 esi, eax

; 253  : 	if( pImage == NULL )

  00023	85 f6		 test	 esi, esi
  00025	75 06		 jne	 SHORT $L39522
$L190281:
  00027	5e		 pop	 esi
  00028	5f		 pop	 edi

; 254  : 	{
; 255  : 		return( NULL );

  00029	33 c0		 xor	 eax, eax
  0002b	5b		 pop	 ebx

; 272  : 	{
; 273  : 		return( NULL );
; 274  : 	}
; 275  : 
; 276  : 	return( pImage );
; 277  : }

  0002c	c3		 ret	 0
$L39522:

; 256  : 	}
; 257  : 
; 258  : 	nResourceSize = ::SizeofResource( hInstance, hResource );

  0002d	57		 push	 edi
  0002e	53		 push	 ebx
  0002f	ff 15 00 00 00
	00		 call	 DWORD PTR __imp__SizeofResource@8

; 259  : 	pImageEnd = (const ATLSTRINGRESOURCEIMAGE*)(LPBYTE( pImage )+nResourceSize);
; 260  : 	iIndex = id&0x000f;

  00035	8b 4c 24 18	 mov	 ecx, DWORD PTR _id$[esp+8]
  00039	03 c6		 add	 eax, esi
  0003b	83 e1 0f	 and	 ecx, 15			; 0000000fH

; 261  : 
; 262  : 	while( (iIndex > 0) && (pImage < pImageEnd) )

  0003e	76 0e		 jbe	 SHORT $L39526
$L39525:
  00040	3b f0		 cmp	 esi, eax
  00042	73 e3		 jae	 SHORT $L190281

; 263  : 	{
; 264  : 		pImage = (const ATLSTRINGRESOURCEIMAGE*)(LPBYTE( pImage )+(sizeof( ATLSTRINGRESOURCEIMAGE )+(pImage->nLength*sizeof( WCHAR ))));
; 265  : 		iIndex--;

  00044	49		 dec	 ecx
  00045	0f b7 16	 movzx	 edx, WORD PTR [esi]
  00048	8d 74 56 02	 lea	 esi, DWORD PTR [esi+edx*2+2]
  0004c	75 f2		 jne	 SHORT $L39525
$L39526:

; 266  : 	}
; 267  : 	if( pImage >= pImageEnd )

  0004e	3b f0		 cmp	 esi, eax

; 268  : 	{
; 269  : 		return( NULL );

  00050	73 d5		 jae	 SHORT $L190281

; 270  : 	}
; 271  : 	if( pImage->nLength == 0 )

  00052	66 8b 06	 mov	 ax, WORD PTR [esi]
  00055	66 f7 d8	 neg	 ax
  00058	1b c0		 sbb	 eax, eax
  0005a	23 c6		 and	 eax, esi
  0005c	5e		 pop	 esi
  0005d	5f		 pop	 edi
  0005e	5b		 pop	 ebx

; 272  : 	{
; 273  : 		return( NULL );
; 274  : 	}
; 275  : 
; 276  : 	return( pImage );
; 277  : }

  0005f	c3		 ret	 0
?_AtlGetStringResourceImage@ATL@@YAPBUATLSTRINGRESOURCEIMAGE@1@PAUHINSTANCE__@@PAUHRSRC__@@I@Z ENDP ; ATL::_AtlGetStringResourceImage
_TEXT	ENDS
PUBLIC	??0?$allocator@PAU_EVENT_GENERIC@@@std@@QAE@XZ	; std::allocator<_EVENT_GENERIC *>::allocator<_EVENT_GENERIC *>
; Function compile flags: /Ogty
; File c:\program files\microsoft visual studio .net 2003\vc7\include\xmemory
;	COMDAT ??0?$allocator@PAU_EVENT_GENERIC@@@std@@QAE@XZ
_TEXT	SEGMENT
??0?$allocator@PAU_EVENT_GENERIC@@@std@@QAE@XZ PROC NEAR ; std::allocator<_EVENT_GENERIC *>::allocator<_EVENT_GENERIC *>, COMDAT
; _this$ = ecx

; 111  : 	allocator()

  00000	8b c1		 mov	 eax, ecx

; 112  : 		{	// construct default allocator (do nothing)
; 113  : 		}

  00002	c3		 ret	 0
??0?$allocator@PAU_EVENT_GENERIC@@@std@@QAE@XZ ENDP	; std::allocator<_EVENT_GENERIC *>::allocator<_EVENT_GENERIC *>
_TEXT	ENDS
PUBLIC	?deallocate@?$allocator@U_Node@?$_List_nod@PAU_EVENT_GENERIC@@V?$allocator@PAU_EVENT_GENERIC@@@std@@@std@@@std@@QAEXPAU_Node@?$_List_nod@PAU_EVENT_GENERIC@@V?$allocator@PAU_EVENT_GENERIC@@@std@@@2@I@Z ; std::allocator<std::_List_nod<_EVENT_GENERIC *,std::allocator<_EVENT_GENERIC *> >::_Node>::deallocate
; Function compile flags: /Ogty
;	COMDAT ?deallocate@?$allocator@U_Node@?$_List_nod@PAU_EVENT_GENERIC@@V?$allocator@PAU_EVENT_GENERIC@@@std@@@std@@@std@@QAEXPAU_Node@?$_List_nod@PAU_EVENT_GENERIC@@V?$allocator@PAU_EVENT_GENERIC@@@std@@@2@I@Z
_TEXT	SEGMENT
__Ptr$ = 8						; size = 4
___formal$ = 12						; size = 4
?deallocate@?$allocator@U_Node@?$_List_nod@PAU_EVENT_GENERIC@@V?$allocator@PAU_EVENT_GENERIC@@@std@@@std@@@std@@QAEXPAU_Node@?$_List_nod@PAU_EVENT_GENERIC@@V?$allocator@PAU_EVENT_GENERIC@@@std@@@2@I@Z PROC NEAR ; std::allocator<std::_List_nod<_EVENT_GENERIC *,std::allocator<_EVENT_GENERIC *> >::_Node>::deallocate, COMDAT
; _this$ = ecx

; 132  : 		operator delete(_Ptr);

  00000	8b 44 24 04	 mov	 eax, DWORD PTR __Ptr$[esp-4]
  00004	50		 push	 eax
  00005	e8 00 00 00 00	 call	 ??3@YAXPAX@Z		; operator delete
  0000a	59		 pop	 ecx

; 133  : 		}

  0000b	c2 08 00	 ret	 8
?deallocate@?$allocator@U_Node@?$_List_nod@PAU_EVENT_GENERIC@@V?$allocator@PAU_EVENT_GENERIC@@@std@@@std@@@std@@QAEXPAU_Node@?$_List_nod@PAU_EVENT_GENERIC@@V?$allocator@PAU_EVENT_GENERIC@@@std@@@2@I@Z ENDP ; std::allocator<std::_List_nod<_EVENT_GENERIC *,std::allocator<_EVENT_GENERIC *> >::_Node>::deallocate
_TEXT	ENDS
PUBLIC	?_Isnil@?$_Tree@V?$_Tmap_traits@HPAV?$list@PAVCEventItem@@V?$allocator@PAVCEventItem@@@std@@@std@@U?$less@H@2@V?$allocator@U?$pair@$$CBHPAV?$list@PAVCEventItem@@V?$allocator@PAVCEventItem@@@std@@@std@@@std@@@2@$0A@@std@@@std@@KAAADPAU_Node@?$_Tree_nod@V?$_Tmap_traits@HPAV?$list@PAVCEventItem@@V?$allocator@PAVCEventItem@@@std@@@std@@U?$less@H@2@V?$allocator@U?$pair@$$CBHPAV?$list@PAVCEventItem@@V?$allocator@PAVCEventItem@@@std@@@std@@@std@@@2@$0A@@std@@@2@@Z ; std::_Tree<std::_Tmap_traits<int,std::list<CEventItem *,std::allocator<CEventItem *> > *,std::less<int>,std::allocator<std::pair<int const ,std::list<CEventItem *,std::allocator<CEventItem *> > *> >,0> >::_Isnil
; Function compile flags: /Ogty
; File c:\program files\microsoft visual studio .net 2003\vc7\include\xtree
;	COMDAT ?_Isnil@?$_Tree@V?$_Tmap_traits@HPAV?$list@PAVCEventItem@@V?$allocator@PAVCEventItem@@@std@@@std@@U?$less@H@2@V?$allocator@U?$pair@$$CBHPAV?$list@PAVCEventItem@@V?$allocator@PAVCEventItem@@@std@@@std@@@std@@@2@$0A@@std@@@std@@KAAADPAU_Node@?$_Tree_nod@V?$_Tmap_traits@HPAV?$list@PAVCEventItem@@V?$allocator@PAVCEventItem@@@std@@@std@@U?$less@H@2@V?$allocator@U?$pair@$$CBHPAV?$list@PAVCEventItem@@V?$allocator@PAVCEventItem@@@std@@@std@@@std@@@2@$0A@@std@@@2@@Z
_TEXT	SEGMENT
__Pnode$ = 8						; size = 4
?_Isnil@?$_Tree@V?$_Tmap_traits@HPAV?$list@PAVCEventItem@@V?$allocator@PAVCEventItem@@@std@@@std@@U?$less@H@2@V?$allocator@U?$pair@$$CBHPAV?$list@PAVCEventItem@@V?$allocator@PAVCEventItem@@@std@@@std@@@std@@@2@$0A@@std@@@std@@KAAADPAU_Node@?$_Tree_nod@V?$_Tmap_traits@HPAV?$list@PAVCEventItem@@V?$allocator@PAVCEventItem@@@std@@@std@@U?$less@H@2@V?$allocator@U?$pair@$$CBHPAV?$list@PAVCEventItem@@V?$allocator@PAVCEventItem@@@std@@@std@@@std@@@2@$0A@@std@@@2@@Z PROC NEAR ; std::_Tree<std::_Tmap_traits<int,std::list<CEventItem *,std::allocator<CEventItem *> > *,std::less<int>,std::allocator<std::pair<int const ,std::list<CEventItem *,std::allocator<CEventItem *> > *> >,0> >::_Isnil, COMDAT

; 137  : 		return ((_Charref)(*_Pnode)._Isnil);

  00000	8b 44 24 04	 mov	 eax, DWORD PTR __Pnode$[esp-4]
  00004	83 c0 15	 add	 eax, 21			; 00000015H

; 138  : 		}

  00007	c3		 ret	 0
?_Isnil@?$_Tree@V?$_Tmap_traits@HPAV?$list@PAVCEventItem@@V?$allocator@PAVCEventItem@@@std@@@std@@U?$less@H@2@V?$allocator@U?$pair@$$CBHPAV?$list@PAVCEventItem@@V?$allocator@PAVCEventItem@@@std@@@std@@@std@@@2@$0A@@std@@@std@@KAAADPAU_Node@?$_Tree_nod@V?$_Tmap_traits@HPAV?$list@PAVCEventItem@@V?$allocator@PAVCEventItem@@@std@@@std@@U?$less@H@2@V?$allocator@U?$pair@$$CBHPAV?$list@PAVCEventItem@@V?$allocator@PAVCEventItem@@@std@@@std@@@std@@@2@$0A@@std@@@2@@Z ENDP ; std::_Tree<std::_Tmap_traits<int,std::list<CEventItem *,std::allocator<CEventItem *> > *,std::less<int>,std::allocator<std::pair<int const ,std::list<CEventItem *,std::allocator<CEventItem *> > *> >,0> >::_Isnil
_TEXT	ENDS
PUBLIC	?AtlGetStringResourceImage@ATL@@YAPBUATLSTRINGRESOURCEIMAGE@1@PAUHINSTANCE__@@I@Z ; ATL::AtlGetStringResourceImage
EXTRN	__imp__FindResourceA@12:NEAR
; Function compile flags: /Ogty
; File c:\program files\microsoft visual studio .net 2003\vc7\atlmfc\include\atlcore.h
;	COMDAT ?AtlGetStringResourceImage@ATL@@YAPBUATLSTRINGRESOURCEIMAGE@1@PAUHINSTANCE__@@I@Z
_TEXT	SEGMENT
_hInstance$ = 8						; size = 4
_id$ = 12						; size = 4
?AtlGetStringResourceImage@ATL@@YAPBUATLSTRINGRESOURCEIMAGE@1@PAUHINSTANCE__@@I@Z PROC NEAR ; ATL::AtlGetStringResourceImage, COMDAT

; 280  : {

  00000	56		 push	 esi

; 281  : 	HRSRC hResource;
; 282  : 
; 283  : 	hResource = ::FindResource( hInstance, MAKEINTRESOURCE( ((id>>4)+1) ), RT_STRING );

  00001	8b 74 24 0c	 mov	 esi, DWORD PTR _id$[esp]
  00005	8b c6		 mov	 eax, esi
  00007	c1 e8 04	 shr	 eax, 4
  0000a	57		 push	 edi
  0000b	8b 7c 24 0c	 mov	 edi, DWORD PTR _hInstance$[esp+4]
  0000f	40		 inc	 eax
  00010	0f b7 c8	 movzx	 ecx, ax
  00013	6a 06		 push	 6
  00015	51		 push	 ecx
  00016	57		 push	 edi
  00017	ff 15 00 00 00
	00		 call	 DWORD PTR __imp__FindResourceA@12

; 284  : 	if( hResource == NULL )

  0001d	85 c0		 test	 eax, eax
  0001f	75 03		 jne	 SHORT $L39543
  00021	5f		 pop	 edi
  00022	5e		 pop	 esi

; 290  : }

  00023	c3		 ret	 0
$L39543:

; 285  : 	{
; 286  : 		return( NULL );
; 287  : 	}
; 288  : 
; 289  : 	return _AtlGetStringResourceImage( hInstance, hResource, id );

  00024	56		 push	 esi
  00025	50		 push	 eax
  00026	57		 push	 edi
  00027	e8 00 00 00 00	 call	 ?_AtlGetStringResourceImage@ATL@@YAPBUATLSTRINGRESOURCEIMAGE@1@PAUHINSTANCE__@@PAUHRSRC__@@I@Z ; ATL::_AtlGetStringResourceImage
  0002c	83 c4 0c	 add	 esp, 12			; 0000000cH
  0002f	5f		 pop	 edi
  00030	5e		 pop	 esi

; 290  : }

  00031	c3		 ret	 0
?AtlGetStringResourceImage@ATL@@YAPBUATLSTRINGRESOURCEIMAGE@1@PAUHINSTANCE__@@I@Z ENDP ; ATL::AtlGetStringResourceImage
_TEXT	ENDS
PUBLIC	?_Left@?$_Tree@V?$_Tmap_traits@HPAV?$list@PAVCEventItem@@V?$allocator@PAVCEventItem@@@std@@@std@@U?$less@H@2@V?$allocator@U?$pair@$$CBHPAV?$list@PAVCEventItem@@V?$allocator@PAVCEventItem@@@std@@@std@@@std@@@2@$0A@@std@@@std@@KAAAPAU_Node@?$_Tree_nod@V?$_Tmap_traits@HPAV?$list@PAVCEventItem@@V?$allocator@PAVCEventItem@@@std@@@std@@U?$less@H@2@V?$allocator@U?$pair@$$CBHPAV?$list@PAVCEventItem@@V?$allocator@PAVCEventItem@@@std@@@std@@@std@@@2@$0A@@std@@@2@PAU342@@Z ; std::_Tree<std::_Tmap_traits<int,std::list<CEventItem *,std::allocator<CEventItem *> > *,std::less<int>,std::allocator<std::pair<int const ,std::list<CEventItem *,std::allocator<CEventItem *> > *> >,0> >::_Left
; Function compile flags: /Ogty
; File c:\program files\microsoft visual studio .net 2003\vc7\include\xtree
;	COMDAT ?_Left@?$_Tree@V?$_Tmap_traits@HPAV?$list@PAVCEventItem@@V?$allocator@PAVCEventItem@@@std@@@std@@U?$less@H@2@V?$allocator@U?$pair@$$CBHPAV?$list@PAVCEventItem@@V?$allocator@PAVCEventItem@@@std@@@std@@@std@@@2@$0A@@std@@@std@@KAAAPAU_Node@?$_Tree_nod@V?$_Tmap_traits@HPAV?$list@PAVCEventItem@@V?$allocator@PAVCEventItem@@@std@@@std@@U?$less@H@2@V?$allocator@U?$pair@$$CBHPAV?$list@PAVCEventItem@@V?$allocator@PAVCEventItem@@@std@@@std@@@std@@@2@$0A@@std@@@2@PAU342@@Z
_TEXT	SEGMENT
__Pnode$ = 8						; size = 4
?_Left@?$_Tree@V?$_Tmap_traits@HPAV?$list@PAVCEventItem@@V?$allocator@PAVCEventItem@@@std@@@std@@U?$less@H@2@V?$allocator@U?$pair@$$CBHPAV?$list@PAVCEventItem@@V?$allocator@PAVCEventItem@@@std@@@std@@@std@@@2@$0A@@std@@@std@@KAAAPAU_Node@?$_Tree_nod@V?$_Tmap_traits@HPAV?$list@PAVCEventItem@@V?$allocator@PAVCEventItem@@@std@@@std@@U?$less@H@2@V?$allocator@U?$pair@$$CBHPAV?$list@PAVCEventItem@@V?$allocator@PAVCEventItem@@@std@@@std@@@std@@@2@$0A@@std@@@2@PAU342@@Z PROC NEAR ; std::_Tree<std::_Tmap_traits<int,std::list<CEventItem *,std::allocator<CEventItem *> > *,std::less<int>,std::allocator<std::pair<int const ,std::list<CEventItem *,std::allocator<CEventItem *> > *> >,0> >::_Left, COMDAT

; 147  : 		return ((_Nodepref)(*_Pnode)._Left);

  00000	8b 44 24 04	 mov	 eax, DWORD PTR __Pnode$[esp-4]

; 148  : 		}

  00004	c3		 ret	 0
?_Left@?$_Tree@V?$_Tmap_traits@HPAV?$list@PAVCEventItem@@V?$allocator@PAVCEventItem@@@std@@@std@@U?$less@H@2@V?$allocator@U?$pair@$$CBHPAV?$list@PAVCEventItem@@V?$allocator@PAVCEventItem@@@std@@@std@@@std@@@2@$0A@@std@@@std@@KAAAPAU_Node@?$_Tree_nod@V?$_Tmap_traits@HPAV?$list@PAVCEventItem@@V?$allocator@PAVCEventItem@@@std@@@std@@U?$less@H@2@V?$allocator@U?$pair@$$CBHPAV?$list@PAVCEventItem@@V?$allocator@PAVCEventItem@@@std@@@std@@@std@@@2@$0A@@std@@@2@PAU342@@Z ENDP ; std::_Tree<std::_Tmap_traits<int,std::list<CEventItem *,std::allocator<CEventItem *> > *,std::less<int>,std::allocator<std::pair<int const ,std::list<CEventItem *,std::allocator<CEventItem *> > *> >,0> >::_Left
_TEXT	ENDS
PUBLIC	?_Right@?$_Tree@V?$_Tmap_traits@HPAV?$list@PAVCEventItem@@V?$allocator@PAVCEventItem@@@std@@@std@@U?$less@H@2@V?$allocator@U?$pair@$$CBHPAV?$list@PAVCEventItem@@V?$allocator@PAVCEventItem@@@std@@@std@@@std@@@2@$0A@@std@@@std@@KAAAPAU_Node@?$_Tree_nod@V?$_Tmap_traits@HPAV?$list@PAVCEventItem@@V?$allocator@PAVCEventItem@@@std@@@std@@U?$less@H@2@V?$allocator@U?$pair@$$CBHPAV?$list@PAVCEventItem@@V?$allocator@PAVCEventItem@@@std@@@std@@@std@@@2@$0A@@std@@@2@PAU342@@Z ; std::_Tree<std::_Tmap_traits<int,std::list<CEventItem *,std::allocator<CEventItem *> > *,std::less<int>,std::allocator<std::pair<int const ,std::list<CEventItem *,std::allocator<CEventItem *> > *> >,0> >::_Right
; Function compile flags: /Ogty
;	COMDAT ?_Right@?$_Tree@V?$_Tmap_traits@HPAV?$list@PAVCEventItem@@V?$allocator@PAVCEventItem@@@std@@@std@@U?$less@H@2@V?$allocator@U?$pair@$$CBHPAV?$list@PAVCEventItem@@V?$allocator@PAVCEventItem@@@std@@@std@@@std@@@2@$0A@@std@@@std@@KAAAPAU_Node@?$_Tree_nod@V?$_Tmap_traits@HPAV?$list@PAVCEventItem@@V?$allocator@PAVCEventItem@@@std@@@std@@U?$less@H@2@V?$allocator@U?$pair@$$CBHPAV?$list@PAVCEventItem@@V?$allocator@PAVCEventItem@@@std@@@std@@@std@@@2@$0A@@std@@@2@PAU342@@Z
_TEXT	SEGMENT
__Pnode$ = 8						; size = 4
?_Right@?$_Tree@V?$_Tmap_traits@HPAV?$list@PAVCEventItem@@V?$allocator@PAVCEventItem@@@std@@@std@@U?$less@H@2@V?$allocator@U?$pair@$$CBHPAV?$list@PAVCEventItem@@V?$allocator@PAVCEventItem@@@std@@@std@@@std@@@2@$0A@@std@@@std@@KAAAPAU_Node@?$_Tree_nod@V?$_Tmap_traits@HPAV?$list@PAVCEventItem@@V?$allocator@PAVCEventItem@@@std@@@std@@U?$less@H@2@V?$allocator@U?$pair@$$CBHPAV?$list@PAVCEventItem@@V?$allocator@PAVCEventItem@@@std@@@std@@@std@@@2@$0A@@std@@@2@PAU342@@Z PROC NEAR ; std::_Tree<std::_Tmap_traits<int,std::list<CEventItem *,std::allocator<CEventItem *> > *,std::less<int>,std::allocator<std::pair<int const ,std::list<CEventItem *,std::allocator<CEventItem *> > *> >,0> >::_Right, COMDAT

; 157  : 		return ((_Nodepref)(*_Pnode)._Right);

  00000	8b 44 24 04	 mov	 eax, DWORD PTR __Pnode$[esp-4]
  00004	83 c0 08	 add	 eax, 8

; 158  : 		}

  00007	c3		 ret	 0
?_Right@?$_Tree@V?$_Tmap_traits@HPAV?$list@PAVCEventItem@@V?$allocator@PAVCEventItem@@@std@@@std@@U?$less@H@2@V?$allocator@U?$pair@$$CBHPAV?$list@PAVCEventItem@@V?$allocator@PAVCEventItem@@@std@@@std@@@std@@@2@$0A@@std@@@std@@KAAAPAU_Node@?$_Tree_nod@V?$_Tmap_traits@HPAV?$list@PAVCEventItem@@V?$allocator@PAVCEventItem@@@std@@@std@@U?$less@H@2@V?$allocator@U?$pair@$$CBHPAV?$list@PAVCEventItem@@V?$allocator@PAVCEventItem@@@std@@@std@@@std@@@2@$0A@@std@@@2@PAU342@@Z ENDP ; std::_Tree<std::_Tmap_traits<int,std::list<CEventItem *,std::allocator<CEventItem *> > *,std::less<int>,std::allocator<std::pair<int const ,std::list<CEventItem *,std::allocator<CEventItem *> > *> >,0> >::_Right
_TEXT	ENDS
PUBLIC	?_Lmost@?$_Tree@V?$_Tmap_traits@HPAV?$list@PAVCEventItem@@V?$allocator@PAVCEventItem@@@std@@@std@@U?$less@H@2@V?$allocator@U?$pair@$$CBHPAV?$list@PAVCEventItem@@V?$allocator@PAVCEventItem@@@std@@@std@@@std@@@2@$0A@@std@@@std@@IAEAAPAU_Node@?$_Tree_nod@V?$_Tmap_traits@HPAV?$list@PAVCEventItem@@V?$allocator@PAVCEventItem@@@std@@@std@@U?$less@H@2@V?$allocator@U?$pair@$$CBHPAV?$list@PAVCEventItem@@V?$allocator@PAVCEventItem@@@std@@@std@@@std@@@2@$0A@@std@@@2@XZ ; std::_Tree<std::_Tmap_traits<int,std::list<CEventItem *,std::allocator<CEventItem *> > *,std::less<int>,std::allocator<std::pair<int const ,std::list<CEventItem *,std::allocator<CEventItem *> > *> >,0> >::_Lmost
; Function compile flags: /Ogty
;	COMDAT ?_Lmost@?$_Tree@V?$_Tmap_traits@HPAV?$list@PAVCEventItem@@V?$allocator@PAVCEventItem@@@std@@@std@@U?$less@H@2@V?$allocator@U?$pair@$$CBHPAV?$list@PAVCEventItem@@V?$allocator@PAVCEventItem@@@std@@@std@@@std@@@2@$0A@@std@@@std@@IAEAAPAU_Node@?$_Tree_nod@V?$_Tmap_traits@HPAV?$list@PAVCEventItem@@V?$allocator@PAVCEventItem@@@std@@@std@@U?$less@H@2@V?$allocator@U?$pair@$$CBHPAV?$list@PAVCEventItem@@V?$allocator@PAVCEventItem@@@std@@@std@@@std@@@2@$0A@@std@@@2@XZ
_TEXT	SEGMENT
?_Lmost@?$_Tree@V?$_Tmap_traits@HPAV?$list@PAVCEventItem@@V?$allocator@PAVCEventItem@@@std@@@std@@U?$less@H@2@V?$allocator@U?$pair@$$CBHPAV?$list@PAVCEventItem@@V?$allocator@PAVCEventItem@@@std@@@std@@@std@@@2@$0A@@std@@@std@@IAEAAPAU_Node@?$_Tree_nod@V?$_Tmap_traits@HPAV?$list@PAVCEventItem@@V?$allocator@PAVCEventItem@@@std@@@std@@U?$less@H@2@V?$allocator@U?$pair@$$CBHPAV?$list@PAVCEventItem@@V?$allocator@PAVCEventItem@@@std@@@std@@@std@@@2@$0A@@std@@@2@XZ PROC NEAR ; std::_Tree<std::_Tmap_traits<int,std::list<CEventItem *,std::allocator<CEventItem *> > *,std::less<int>,std::allocator<std::pair<int const ,std::list<CEventItem *,std::allocator<CEventItem *> > *> >,0> >::_Lmost, COMDAT
; _this$ = ecx

; 1005 : 		return (_Left(_Myhead));

  00000	8b 41 04	 mov	 eax, DWORD PTR [ecx+4]

; 1006 : 		}

  00003	c3		 ret	 0
?_Lmost@?$_Tree@V?$_Tmap_traits@HPAV?$list@PAVCEventItem@@V?$allocator@PAVCEventItem@@@std@@@std@@U?$less@H@2@V?$allocator@U?$pair@$$CBHPAV?$list@PAVCEventItem@@V?$allocator@PAVCEventItem@@@std@@@std@@@std@@@2@$0A@@std@@@std@@IAEAAPAU_Node@?$_Tree_nod@V?$_Tmap_traits@HPAV?$list@PAVCEventItem@@V?$allocator@PAVCEventItem@@@std@@@std@@U?$less@H@2@V?$allocator@U?$pair@$$CBHPAV?$list@PAVCEventItem@@V?$allocator@PAVCEventItem@@@std@@@std@@@std@@@2@$0A@@std@@@2@XZ ENDP ; std::_Tree<std::_Tmap_traits<int,std::list<CEventItem *,std::allocator<CEventItem *> > *,std::less<int>,std::allocator<std::pair<int const ,std::list<CEventItem *,std::allocator<CEventItem *> > *> >,0> >::_Lmost
_TEXT	ENDS
PUBLIC	?_Rmost@?$_Tree@V?$_Tmap_traits@HPAV?$list@PAVCEventItem@@V?$allocator@PAVCEventItem@@@std@@@std@@U?$less@H@2@V?$allocator@U?$pair@$$CBHPAV?$list@PAVCEventItem@@V?$allocator@PAVCEventItem@@@std@@@std@@@std@@@2@$0A@@std@@@std@@IAEAAPAU_Node@?$_Tree_nod@V?$_Tmap_traits@HPAV?$list@PAVCEventItem@@V?$allocator@PAVCEventItem@@@std@@@std@@U?$less@H@2@V?$allocator@U?$pair@$$CBHPAV?$list@PAVCEventItem@@V?$allocator@PAVCEventItem@@@std@@@std@@@std@@@2@$0A@@std@@@2@XZ ; std::_Tree<std::_Tmap_traits<int,std::list<CEventItem *,std::allocator<CEventItem *> > *,std::less<int>,std::allocator<std::pair<int const ,std::list<CEventItem *,std::allocator<CEventItem *> > *> >,0> >::_Rmost
; Function compile flags: /Ogty
;	COMDAT ?_Rmost@?$_Tree@V?$_Tmap_traits@HPAV?$list@PAVCEventItem@@V?$allocator@PAVCEventItem@@@std@@@std@@U?$less@H@2@V?$allocator@U?$pair@$$CBHPAV?$list@PAVCEventItem@@V?$allocator@PAVCEventItem@@@std@@@std@@@std@@@2@$0A@@std@@@std@@IAEAAPAU_Node@?$_Tree_nod@V?$_Tmap_traits@HPAV?$list@PAVCEventItem@@V?$allocator@PAVCEventItem@@@std@@@std@@U?$less@H@2@V?$allocator@U?$pair@$$CBHPAV?$list@PAVCEventItem@@V?$allocator@PAVCEventItem@@@std@@@std@@@std@@@2@$0A@@std@@@2@XZ
_TEXT	SEGMENT
?_Rmost@?$_Tree@V?$_Tmap_traits@HPAV?$list@PAVCEventItem@@V?$allocator@PAVCEventItem@@@std@@@std@@U?$less@H@2@V?$allocator@U?$pair@$$CBHPAV?$list@PAVCEventItem@@V?$allocator@PAVCEventItem@@@std@@@std@@@std@@@2@$0A@@std@@@std@@IAEAAPAU_Node@?$_Tree_nod@V?$_Tmap_traits@HPAV?$list@PAVCEventItem@@V?$allocator@PAVCEventItem@@@std@@@std@@U?$less@H@2@V?$allocator@U?$pair@$$CBHPAV?$list@PAVCEventItem@@V?$allocator@PAVCEventItem@@@std@@@std@@@std@@@2@$0A@@std@@@2@XZ PROC NEAR ; std::_Tree<std::_Tmap_traits<int,std::list<CEventItem *,std::allocator<CEventItem *> > *,std::less<int>,std::allocator<std::pair<int const ,std::list<CEventItem *,std::allocator<CEventItem *> > *> >,0> >::_Rmost, COMDAT
; _this$ = ecx

; 1049 : 		return (_Right(_Myhead));

  00000	8b 41 04	 mov	 eax, DWORD PTR [ecx+4]
  00003	83 c0 08	 add	 eax, 8

; 1050 : 		}

  00006	c3		 ret	 0
?_Rmost@?$_Tree@V?$_Tmap_traits@HPAV?$list@PAVCEventItem@@V?$allocator@PAVCEventItem@@@std@@@std@@U?$less@H@2@V?$allocator@U?$pair@$$CBHPAV?$list@PAVCEventItem@@V?$allocator@PAVCEventItem@@@std@@@std@@@std@@@2@$0A@@std@@@std@@IAEAAPAU_Node@?$_Tree_nod@V?$_Tmap_traits@HPAV?$list@PAVCEventItem@@V?$allocator@PAVCEventItem@@@std@@@std@@U?$less@H@2@V?$allocator@U?$pair@$$CBHPAV?$list@PAVCEventItem@@V?$allocator@PAVCEventItem@@@std@@@std@@@std@@@2@$0A@@std@@@2@XZ ENDP ; std::_Tree<std::_Tmap_traits<int,std::list<CEventItem *,std::allocator<CEventItem *> > *,std::less<int>,std::allocator<std::pair<int const ,std::list<CEventItem *,std::allocator<CEventItem *> > *> >,0> >::_Rmost
_TEXT	ENDS
PUBLIC	?_Kfn@?$_Tmap_traits@HPAV?$list@PAVCEventItem@@V?$allocator@PAVCEventItem@@@std@@@std@@U?$less@H@2@V?$allocator@U?$pair@$$CBHPAV?$list@PAVCEventItem@@V?$allocator@PAVCEventItem@@@std@@@std@@@std@@@2@$0A@@std@@SAABHABU?$pair@$$CBHPAV?$list@PAVCEventItem@@V?$allocator@PAVCEventItem@@@std@@@std@@@2@@Z ; std::_Tmap_traits<int,std::list<CEventItem *,std::allocator<CEventItem *> > *,std::less<int>,std::allocator<std::pair<int const ,std::list<CEventItem *,std::allocator<CEventItem *> > *> >,0>::_Kfn
; Function compile flags: /Ogty
; File c:\program files\microsoft visual studio .net 2003\vc7\include\map
;	COMDAT ?_Kfn@?$_Tmap_traits@HPAV?$list@PAVCEventItem@@V?$allocator@PAVCEventItem@@@std@@@std@@U?$less@H@2@V?$allocator@U?$pair@$$CBHPAV?$list@PAVCEventItem@@V?$allocator@PAVCEventItem@@@std@@@std@@@std@@@2@$0A@@std@@SAABHABU?$pair@$$CBHPAV?$list@PAVCEventItem@@V?$allocator@PAVCEventItem@@@std@@@std@@@2@@Z
_TEXT	SEGMENT
__Val$ = 8						; size = 4
?_Kfn@?$_Tmap_traits@HPAV?$list@PAVCEventItem@@V?$allocator@PAVCEventItem@@@std@@@std@@U?$less@H@2@V?$allocator@U?$pair@$$CBHPAV?$list@PAVCEventItem@@V?$allocator@PAVCEventItem@@@std@@@std@@@std@@@2@$0A@@std@@SAABHABU?$pair@$$CBHPAV?$list@PAVCEventItem@@V?$allocator@PAVCEventItem@@@std@@@std@@@2@@Z PROC NEAR ; std::_Tmap_traits<int,std::list<CEventItem *,std::allocator<CEventItem *> > *,std::less<int>,std::allocator<std::pair<int const ,std::list<CEventItem *,std::allocator<CEventItem *> > *> >,0>::_Kfn, COMDAT

; 64   : 		return (_Val.first);

  00000	8b 44 24 04	 mov	 eax, DWORD PTR __Val$[esp-4]

; 65   : 		}

  00004	c3		 ret	 0
?_Kfn@?$_Tmap_traits@HPAV?$list@PAVCEventItem@@V?$allocator@PAVCEventItem@@@std@@@std@@U?$less@H@2@V?$allocator@U?$pair@$$CBHPAV?$list@PAVCEventItem@@V?$allocator@PAVCEventItem@@@std@@@std@@@std@@@2@$0A@@std@@SAABHABU?$pair@$$CBHPAV?$list@PAVCEventItem@@V?$allocator@PAVCEventItem@@@std@@@std@@@2@@Z ENDP ; std::_Tmap_traits<int,std::list<CEventItem *,std::allocator<CEventItem *> > *,std::less<int>,std::allocator<std::pair<int const ,std::list<CEventItem *,std::allocator<CEventItem *> > *> >,0>::_Kfn
_TEXT	ENDS
PUBLIC	??0?$allocator@U?$pair@$$CBHPAV?$list@PAVCEventItem@@V?$allocator@PAVCEventItem@@@std@@@std@@@std@@@std@@QAE@XZ ; std::allocator<std::pair<int const ,std::list<CEventItem *,std::allocator<CEventItem *> > *> >::allocator<std::pair<int const ,std::list<CEventItem *,std::allocator<CEventItem *> > *> >
; Function compile flags: /Ogty
; File c:\program files\microsoft visual studio .net 2003\vc7\include\xmemory
;	COMDAT ??0?$allocator@U?$pair@$$CBHPAV?$list@PAVCEventItem@@V?$allocator@PAVCEventItem@@@std@@@std@@@std@@@std@@QAE@XZ
_TEXT	SEGMENT
??0?$allocator@U?$pair@$$CBHPAV?$list@PAVCEventItem@@V?$allocator@PAVCEventItem@@@std@@@std@@@std@@@std@@QAE@XZ PROC NEAR ; std::allocator<std::pair<int const ,std::list<CEventItem *,std::allocator<CEventItem *> > *> >::allocator<std::pair<int const ,std::list<CEventItem *,std::allocator<CEventItem *> > *> >, COMDAT
; _this$ = ecx

; 111  : 	allocator()

  00000	8b c1		 mov	 eax, ecx

; 112  : 		{	// construct default allocator (do nothing)
; 113  : 		}

  00002	c3		 ret	 0
??0?$allocator@U?$pair@$$CBHPAV?$list@PAVCEventItem@@V?$allocator@PAVCEventItem@@@std@@@std@@@std@@@std@@QAE@XZ ENDP ; std::allocator<std::pair<int const ,std::list<CEventItem *,std::allocator<CEventItem *> > *> >::allocator<std::pair<int const ,std::list<CEventItem *,std::allocator<CEventItem *> > *> >
_TEXT	ENDS
PUBLIC	??Econst_iterator@?$list@PAU_EVENT_GENERIC@@V?$allocator@PAU_EVENT_GENERIC@@@std@@@std@@QAEAAV012@XZ ; std::list<_EVENT_GENERIC *,std::allocator<_EVENT_GENERIC *> >::const_iterator::operator++
; Function compile flags: /Ogty
; File c:\program files\microsoft visual studio .net 2003\vc7\include\list
;	COMDAT ??Econst_iterator@?$list@PAU_EVENT_GENERIC@@V?$allocator@PAU_EVENT_GENERIC@@@std@@@std@@QAEAAV012@XZ
_TEXT	SEGMENT
??Econst_iterator@?$list@PAU_EVENT_GENERIC@@V?$allocator@PAU_EVENT_GENERIC@@@std@@@std@@QAEAAV012@XZ PROC NEAR ; std::list<_EVENT_GENERIC *,std::allocator<_EVENT_GENERIC *> >::const_iterator::operator++, COMDAT
; _this$ = ecx

; 170  : 			{	// preincrement

  00000	8b c1		 mov	 eax, ecx

; 171  : 			_Ptr = _Nextnode(_Ptr);

  00002	8b 08		 mov	 ecx, DWORD PTR [eax]
  00004	8b 11		 mov	 edx, DWORD PTR [ecx]
  00006	89 10		 mov	 DWORD PTR [eax], edx

; 172  : 			return (*this);
; 173  : 			}

  00008	c3		 ret	 0
??Econst_iterator@?$list@PAU_EVENT_GENERIC@@V?$allocator@PAU_EVENT_GENERIC@@@std@@@std@@QAEAAV012@XZ ENDP ; std::list<_EVENT_GENERIC *,std::allocator<_EVENT_GENERIC *> >::const_iterator::operator++
_TEXT	ENDS
PUBLIC	??8const_iterator@?$list@PAU_EVENT_GENERIC@@V?$allocator@PAU_EVENT_GENERIC@@@std@@@std@@QBE_NABV012@@Z ; std::list<_EVENT_GENERIC *,std::allocator<_EVENT_GENERIC *> >::const_iterator::operator==
; Function compile flags: /Ogty
;	COMDAT ??8const_iterator@?$list@PAU_EVENT_GENERIC@@V?$allocator@PAU_EVENT_GENERIC@@@std@@@std@@QBE_NABV012@@Z
_TEXT	SEGMENT
__Right$ = 8						; size = 4
??8const_iterator@?$list@PAU_EVENT_GENERIC@@V?$allocator@PAU_EVENT_GENERIC@@@std@@@std@@QBE_NABV012@@Z PROC NEAR ; std::list<_EVENT_GENERIC *,std::allocator<_EVENT_GENERIC *> >::const_iterator::operator==, COMDAT
; _this$ = ecx

; 197  : 			return (_Ptr == _Right._Ptr);

  00000	8b 01		 mov	 eax, DWORD PTR [ecx]
  00002	8b 4c 24 04	 mov	 ecx, DWORD PTR __Right$[esp-4]
  00006	2b 01		 sub	 eax, DWORD PTR [ecx]
  00008	f7 d8		 neg	 eax
  0000a	1b c0		 sbb	 eax, eax
  0000c	40		 inc	 eax

; 198  : 			}

  0000d	c2 04 00	 ret	 4
??8const_iterator@?$list@PAU_EVENT_GENERIC@@V?$allocator@PAU_EVENT_GENERIC@@@std@@@std@@QBE_NABV012@@Z ENDP ; std::list<_EVENT_GENERIC *,std::allocator<_EVENT_GENERIC *> >::const_iterator::operator==
_TEXT	ENDS
PUBLIC	?_Mynode@const_iterator@?$_Tree@V?$_Tmap_traits@HPAV?$list@PAVCEventItem@@V?$allocator@PAVCEventItem@@@std@@@std@@U?$less@H@2@V?$allocator@U?$pair@$$CBHPAV?$list@PAVCEventItem@@V?$allocator@PAVCEventItem@@@std@@@std@@@std@@@2@$0A@@std@@@std@@QBEPAU_Node@?$_Tree_nod@V?$_Tmap_traits@HPAV?$list@PAVCEventItem@@V?$allocator@PAVCEventItem@@@std@@@std@@U?$less@H@2@V?$allocator@U?$pair@$$CBHPAV?$list@PAVCEventItem@@V?$allocator@PAVCEventItem@@@std@@@std@@@std@@@2@$0A@@std@@@3@XZ ; std::_Tree<std::_Tmap_traits<int,std::list<CEventItem *,std::allocator<CEventItem *> > *,std::less<int>,std::allocator<std::pair<int const ,std::list<CEventItem *,std::allocator<CEventItem *> > *> >,0> >::const_iterator::_Mynode
; Function compile flags: /Ogty
; File c:\program files\microsoft visual studio .net 2003\vc7\include\xtree
;	COMDAT ?_Mynode@const_iterator@?$_Tree@V?$_Tmap_traits@HPAV?$list@PAVCEventItem@@V?$allocator@PAVCEventItem@@@std@@@std@@U?$less@H@2@V?$allocator@U?$pair@$$CBHPAV?$list@PAVCEventItem@@V?$allocator@PAVCEventItem@@@std@@@std@@@std@@@2@$0A@@std@@@std@@QBEPAU_Node@?$_Tree_nod@V?$_Tmap_traits@HPAV?$list@PAVCEventItem@@V?$allocator@PAVCEventItem@@@std@@@std@@U?$less@H@2@V?$allocator@U?$pair@$$CBHPAV?$list@PAVCEventItem@@V?$allocator@PAVCEventItem@@@std@@@std@@@std@@@2@$0A@@std@@@3@XZ
_TEXT	SEGMENT
?_Mynode@const_iterator@?$_Tree@V?$_Tmap_traits@HPAV?$list@PAVCEventItem@@V?$allocator@PAVCEventItem@@@std@@@std@@U?$less@H@2@V?$allocator@U?$pair@$$CBHPAV?$list@PAVCEventItem@@V?$allocator@PAVCEventItem@@@std@@@std@@@std@@@2@$0A@@std@@@std@@QBEPAU_Node@?$_Tree_nod@V?$_Tmap_traits@HPAV?$list@PAVCEventItem@@V?$allocator@PAVCEventItem@@@std@@@std@@U?$less@H@2@V?$allocator@U?$pair@$$CBHPAV?$list@PAVCEventItem@@V?$allocator@PAVCEventItem@@@std@@@std@@@std@@@2@$0A@@std@@@3@XZ PROC NEAR ; std::_Tree<std::_Tmap_traits<int,std::list<CEventItem *,std::allocator<CEventItem *> > *,std::less<int>,std::allocator<std::pair<int const ,std::list<CEventItem *,std::allocator<CEventItem *> > *> >,0> >::const_iterator::_Mynode, COMDAT
; _this$ = ecx

; 284  : 			return (_Ptr);

  00000	8b 01		 mov	 eax, DWORD PTR [ecx]

; 285  : 			}

  00002	c3		 ret	 0
?_Mynode@const_iterator@?$_Tree@V?$_Tmap_traits@HPAV?$list@PAVCEventItem@@V?$allocator@PAVCEventItem@@@std@@@std@@U?$less@H@2@V?$allocator@U?$pair@$$CBHPAV?$list@PAVCEventItem@@V?$allocator@PAVCEventItem@@@std@@@std@@@std@@@2@$0A@@std@@@std@@QBEPAU_Node@?$_Tree_nod@V?$_Tmap_traits@HPAV?$list@PAVCEventItem@@V?$allocator@PAVCEventItem@@@std@@@std@@U?$less@H@2@V?$allocator@U?$pair@$$CBHPAV?$list@PAVCEventItem@@V?$allocator@PAVCEventItem@@@std@@@std@@@std@@@2@$0A@@std@@@3@XZ ENDP ; std::_Tree<std::_Tmap_traits<int,std::list<CEventItem *,std::allocator<CEventItem *> > *,std::less<int>,std::allocator<std::pair<int const ,std::list<CEventItem *,std::allocator<CEventItem *> > *> >,0> >::const_iterator::_Mynode
_TEXT	ENDS
PUBLIC	?_Nextnode@?$list@PAVCEventItem@@V?$allocator@PAVCEventItem@@@std@@@std@@KAAAPAU_Node@?$_List_nod@PAVCEventItem@@V?$allocator@PAVCEventItem@@@std@@@2@PAU342@@Z ; std::list<CEventItem *,std::allocator<CEventItem *> >::_Nextnode
; Function compile flags: /Ogty
; File c:\program files\microsoft visual studio .net 2003\vc7\include\list
;	COMDAT ?_Nextnode@?$list@PAVCEventItem@@V?$allocator@PAVCEventItem@@@std@@@std@@KAAAPAU_Node@?$_List_nod@PAVCEventItem@@V?$allocator@PAVCEventItem@@@std@@@2@PAU342@@Z
_TEXT	SEGMENT
__Pnode$ = 8						; size = 4
?_Nextnode@?$list@PAVCEventItem@@V?$allocator@PAVCEventItem@@@std@@@std@@KAAAPAU_Node@?$_List_nod@PAVCEventItem@@V?$allocator@PAVCEventItem@@@std@@@2@PAU342@@Z PROC NEAR ; std::list<CEventItem *,std::allocator<CEventItem *> >::_Nextnode, COMDAT

; 108  : 		return ((_Nodepref)(*_Pnode)._Next);

  00000	8b 44 24 04	 mov	 eax, DWORD PTR __Pnode$[esp-4]

; 109  : 		}

  00004	c3		 ret	 0
?_Nextnode@?$list@PAVCEventItem@@V?$allocator@PAVCEventItem@@@std@@@std@@KAAAPAU_Node@?$_List_nod@PAVCEventItem@@V?$allocator@PAVCEventItem@@@std@@@2@PAU342@@Z ENDP ; std::list<CEventItem *,std::allocator<CEventItem *> >::_Nextnode
_TEXT	ENDS
PUBLIC	?_Prevnode@?$list@PAVCEventItem@@V?$allocator@PAVCEventItem@@@std@@@std@@KAAAPAU_Node@?$_List_nod@PAVCEventItem@@V?$allocator@PAVCEventItem@@@std@@@2@PAU342@@Z ; std::list<CEventItem *,std::allocator<CEventItem *> >::_Prevnode
; Function compile flags: /Ogty
;	COMDAT ?_Prevnode@?$list@PAVCEventItem@@V?$allocator@PAVCEventItem@@@std@@@std@@KAAAPAU_Node@?$_List_nod@PAVCEventItem@@V?$allocator@PAVCEventItem@@@std@@@2@PAU342@@Z
_TEXT	SEGMENT
__Pnode$ = 8						; size = 4
?_Prevnode@?$list@PAVCEventItem@@V?$allocator@PAVCEventItem@@@std@@@std@@KAAAPAU_Node@?$_List_nod@PAVCEventItem@@V?$allocator@PAVCEventItem@@@std@@@2@PAU342@@Z PROC NEAR ; std::list<CEventItem *,std::allocator<CEventItem *> >::_Prevnode, COMDAT

; 113  : 		return ((_Nodepref)(*_Pnode)._Prev);

  00000	8b 44 24 04	 mov	 eax, DWORD PTR __Pnode$[esp-4]
  00004	83 c0 04	 add	 eax, 4

; 114  : 		}

  00007	c3		 ret	 0
?_Prevnode@?$list@PAVCEventItem@@V?$allocator@PAVCEventItem@@@std@@@std@@KAAAPAU_Node@?$_List_nod@PAVCEventItem@@V?$allocator@PAVCEventItem@@@std@@@2@PAU342@@Z ENDP ; std::list<CEventItem *,std::allocator<CEventItem *> >::_Prevnode
_TEXT	ENDS
PUBLIC	?data@CStringData@ATL@@QAEPAXXZ			; ATL::CStringData::data
; Function compile flags: /Ogty
; File c:\program files\microsoft visual studio .net 2003\vc7\atlmfc\include\atlsimpstr.h
;	COMDAT ?data@CStringData@ATL@@QAEPAXXZ
_TEXT	SEGMENT
?data@CStringData@ATL@@QAEPAXXZ PROC NEAR		; ATL::CStringData::data, COMDAT
; _this$ = ecx

; 66   : 		return (this+1);

  00000	8d 41 10	 lea	 eax, DWORD PTR [ecx+16]

; 67   : 	}

  00003	c3		 ret	 0
?data@CStringData@ATL@@QAEPAXXZ ENDP			; ATL::CStringData::data
_TEXT	ENDS
PUBLIC	?AddRef@CStringData@ATL@@QAEXXZ			; ATL::CStringData::AddRef
; Function compile flags: /Ogty
;	COMDAT ?AddRef@CStringData@ATL@@QAEXXZ
_TEXT	SEGMENT
?AddRef@CStringData@ATL@@QAEXXZ PROC NEAR		; ATL::CStringData::AddRef, COMDAT
; _this$ = ecx

; 71   : 		ATLASSERT(nRefs > 0);
; 72   : 		_InterlockedIncrement(&nRefs);

  00000	83 c1 0c	 add	 ecx, 12			; 0000000cH
  00003	b8 01 00 00 00	 mov	 eax, 1
  00008	f0 0f c1 01	 lock	  xadd	 DWORD PTR [ecx], eax

; 73   : 	}

  0000c	c3		 ret	 0
?AddRef@CStringData@ATL@@QAEXXZ ENDP			; ATL::CStringData::AddRef
_TEXT	ENDS
PUBLIC	?IsLocked@CStringData@ATL@@QBE_NXZ		; ATL::CStringData::IsLocked
; Function compile flags: /Ogty
;	COMDAT ?IsLocked@CStringData@ATL@@QBE_NXZ
_TEXT	SEGMENT
?IsLocked@CStringData@ATL@@QBE_NXZ PROC NEAR		; ATL::CStringData::IsLocked, COMDAT
; _this$ = ecx

; 76   : 		return nRefs < 0;

  00000	8b 51 0c	 mov	 edx, DWORD PTR [ecx+12]
  00003	33 c0		 xor	 eax, eax
  00005	85 d2		 test	 edx, edx
  00007	0f 9c c0	 setl	 al

; 77   : 	}

  0000a	c3		 ret	 0
?IsLocked@CStringData@ATL@@QBE_NXZ ENDP			; ATL::CStringData::IsLocked
_TEXT	ENDS
PUBLIC	?IsShared@CStringData@ATL@@QBE_NXZ		; ATL::CStringData::IsShared
; Function compile flags: /Ogty
;	COMDAT ?IsShared@CStringData@ATL@@QBE_NXZ
_TEXT	SEGMENT
?IsShared@CStringData@ATL@@QBE_NXZ PROC NEAR		; ATL::CStringData::IsShared, COMDAT
; _this$ = ecx

; 80   : 		return( nRefs > 1 ); 

  00000	8b 51 0c	 mov	 edx, DWORD PTR [ecx+12]
  00003	33 c0		 xor	 eax, eax
  00005	83 fa 01	 cmp	 edx, 1
  00008	0f 9f c0	 setg	 al

; 81   : 	}

  0000b	c3		 ret	 0
?IsShared@CStringData@ATL@@QBE_NXZ ENDP			; ATL::CStringData::IsShared
_TEXT	ENDS
PUBLIC	?Release@CStringData@ATL@@QAEXXZ		; ATL::CStringData::Release
; Function compile flags: /Ogty
;	COMDAT ?Release@CStringData@ATL@@QAEXXZ
_TEXT	SEGMENT
?Release@CStringData@ATL@@QAEXXZ PROC NEAR		; ATL::CStringData::Release, COMDAT
; _this$ = ecx

; 93   : 		ATLASSERT( nRefs != 0 );
; 94   : 
; 95   : 		if( _InterlockedDecrement( &nRefs ) <= 0 )

  00000	8d 41 0c	 lea	 eax, DWORD PTR [ecx+12]
  00003	83 ca ff	 or	 edx, -1
  00006	f0 0f c1 10	 lock	  xadd	 DWORD PTR [eax], edx
  0000a	4a		 dec	 edx
  0000b	85 d2		 test	 edx, edx
  0000d	7f 0a		 jg	 SHORT $L39883

; 96   : 		{
; 97   : 			pStringMgr->Free( this );

  0000f	8b 01		 mov	 eax, DWORD PTR [ecx]
  00011	8b 10		 mov	 edx, DWORD PTR [eax]
  00013	51		 push	 ecx
  00014	8b c8		 mov	 ecx, eax
  00016	ff 52 04	 call	 DWORD PTR [edx+4]
$L39883:

; 98   : 		}
; 99   : 	}

  00019	c3		 ret	 0
?Release@CStringData@ATL@@QAEXXZ ENDP			; ATL::CStringData::Release
_TEXT	ENDS
PUBLIC	??0?$allocator@PAVCEventItem@@@std@@QAE@XZ	; std::allocator<CEventItem *>::allocator<CEventItem *>
; Function compile flags: /Ogty
; File c:\program files\microsoft visual studio .net 2003\vc7\include\xmemory
;	COMDAT ??0?$allocator@PAVCEventItem@@@std@@QAE@XZ
_TEXT	SEGMENT
??0?$allocator@PAVCEventItem@@@std@@QAE@XZ PROC NEAR	; std::allocator<CEventItem *>::allocator<CEventItem *>, COMDAT
; _this$ = ecx

; 111  : 	allocator()

  00000	8b c1		 mov	 eax, ecx

; 112  : 		{	// construct default allocator (do nothing)
; 113  : 		}

  00002	c3		 ret	 0
??0?$allocator@PAVCEventItem@@@std@@QAE@XZ ENDP		; std::allocator<CEventItem *>::allocator<CEventItem *>
_TEXT	ENDS
PUBLIC	?deallocate@?$allocator@U_Node@?$_List_nod@PAVCEventItem@@V?$allocator@PAVCEventItem@@@std@@@std@@@std@@QAEXPAU_Node@?$_List_nod@PAVCEventItem@@V?$allocator@PAVCEventItem@@@std@@@2@I@Z ; std::allocator<std::_List_nod<CEventItem *,std::allocator<CEventItem *> >::_Node>::deallocate
; Function compile flags: /Ogty
;	COMDAT ?deallocate@?$allocator@U_Node@?$_List_nod@PAVCEventItem@@V?$allocator@PAVCEventItem@@@std@@@std@@@std@@QAEXPAU_Node@?$_List_nod@PAVCEventItem@@V?$allocator@PAVCEventItem@@@std@@@2@I@Z
_TEXT	SEGMENT
__Ptr$ = 8						; size = 4
___formal$ = 12						; size = 4
?deallocate@?$allocator@U_Node@?$_List_nod@PAVCEventItem@@V?$allocator@PAVCEventItem@@@std@@@std@@@std@@QAEXPAU_Node@?$_List_nod@PAVCEventItem@@V?$allocator@PAVCEventItem@@@std@@@2@I@Z PROC NEAR ; std::allocator<std::_List_nod<CEventItem *,std::allocator<CEventItem *> >::_Node>::deallocate, COMDAT
; _this$ = ecx

; 132  : 		operator delete(_Ptr);

  00000	8b 44 24 04	 mov	 eax, DWORD PTR __Ptr$[esp-4]
  00004	50		 push	 eax
  00005	e8 00 00 00 00	 call	 ??3@YAXPAX@Z		; operator delete
  0000a	59		 pop	 ecx

; 133  : 		}

  0000b	c2 08 00	 ret	 8
?deallocate@?$allocator@U_Node@?$_List_nod@PAVCEventItem@@V?$allocator@PAVCEventItem@@@std@@@std@@@std@@QAEXPAU_Node@?$_List_nod@PAVCEventItem@@V?$allocator@PAVCEventItem@@@std@@@2@I@Z ENDP ; std::allocator<std::_List_nod<CEventItem *,std::allocator<CEventItem *> >::_Node>::deallocate
_TEXT	ENDS
PUBLIC	??Econst_iterator@?$list@PAVCEventItem@@V?$allocator@PAVCEventItem@@@std@@@std@@QAEAAV012@XZ ; std::list<CEventItem *,std::allocator<CEventItem *> >::const_iterator::operator++
; Function compile flags: /Ogty
; File c:\program files\microsoft visual studio .net 2003\vc7\include\list
;	COMDAT ??Econst_iterator@?$list@PAVCEventItem@@V?$allocator@PAVCEventItem@@@std@@@std@@QAEAAV012@XZ
_TEXT	SEGMENT
??Econst_iterator@?$list@PAVCEventItem@@V?$allocator@PAVCEventItem@@@std@@@std@@QAEAAV012@XZ PROC NEAR ; std::list<CEventItem *,std::allocator<CEventItem *> >::const_iterator::operator++, COMDAT
; _this$ = ecx

; 170  : 			{	// preincrement

  00000	8b c1		 mov	 eax, ecx

; 171  : 			_Ptr = _Nextnode(_Ptr);

  00002	8b 08		 mov	 ecx, DWORD PTR [eax]
  00004	8b 11		 mov	 edx, DWORD PTR [ecx]
  00006	89 10		 mov	 DWORD PTR [eax], edx

; 172  : 			return (*this);
; 173  : 			}

  00008	c3		 ret	 0
??Econst_iterator@?$list@PAVCEventItem@@V?$allocator@PAVCEventItem@@@std@@@std@@QAEAAV012@XZ ENDP ; std::list<CEventItem *,std::allocator<CEventItem *> >::const_iterator::operator++
_TEXT	ENDS
PUBLIC	??8const_iterator@?$list@PAVCEventItem@@V?$allocator@PAVCEventItem@@@std@@@std@@QBE_NABV012@@Z ; std::list<CEventItem *,std::allocator<CEventItem *> >::const_iterator::operator==
; Function compile flags: /Ogty
;	COMDAT ??8const_iterator@?$list@PAVCEventItem@@V?$allocator@PAVCEventItem@@@std@@@std@@QBE_NABV012@@Z
_TEXT	SEGMENT
__Right$ = 8						; size = 4
??8const_iterator@?$list@PAVCEventItem@@V?$allocator@PAVCEventItem@@@std@@@std@@QBE_NABV012@@Z PROC NEAR ; std::list<CEventItem *,std::allocator<CEventItem *> >::const_iterator::operator==, COMDAT
; _this$ = ecx

; 197  : 			return (_Ptr == _Right._Ptr);

  00000	8b 01		 mov	 eax, DWORD PTR [ecx]
  00002	8b 4c 24 04	 mov	 ecx, DWORD PTR __Right$[esp-4]
  00006	2b 01		 sub	 eax, DWORD PTR [ecx]
  00008	f7 d8		 neg	 eax
  0000a	1b c0		 sbb	 eax, eax
  0000c	40		 inc	 eax

; 198  : 			}

  0000d	c2 04 00	 ret	 4
??8const_iterator@?$list@PAVCEventItem@@V?$allocator@PAVCEventItem@@@std@@@std@@QBE_NABV012@@Z ENDP ; std::list<CEventItem *,std::allocator<CEventItem *> >::const_iterator::operator==
_TEXT	ENDS
PUBLIC	??0?$pair@Viterator@?$_Tree@V?$_Tmap_traits@HPAV?$list@PAVCEventItem@@V?$allocator@PAVCEventItem@@@std@@@std@@U?$less@H@2@V?$allocator@U?$pair@$$CBHPAV?$list@PAVCEventItem@@V?$allocator@PAVCEventItem@@@std@@@std@@@std@@@2@$0A@@std@@@std@@_N@std@@QAE@ABViterator@?$_Tree@V?$_Tmap_traits@HPAV?$list@PAVCEventItem@@V?$allocator@PAVCEventItem@@@std@@@std@@U?$less@H@2@V?$allocator@U?$pair@$$CBHPAV?$list@PAVCEventItem@@V?$allocator@PAVCEventItem@@@std@@@std@@@std@@@2@$0A@@std@@@1@AB_N@Z ; std::pair<std::_Tree<std::_Tmap_traits<int,std::list<CEventItem *,std::allocator<CEventItem *> > *,std::less<int>,std::allocator<std::pair<int const ,std::list<CEventItem *,std::allocator<CEventItem *> > *> >,0> >::iterator,bool>::pair<std::_Tree<std::_Tmap_traits<int,std::list<CEventItem *,std::allocator<CEventItem *> > *,std::less<int>,std::allocator<std::pair<int const ,std::list<CEventItem *,std::allocator<CEventItem *> > *> >,0> >::iterator,bool>
; Function compile flags: /Ogty
; File c:\program files\microsoft visual studio .net 2003\vc7\include\utility
;	COMDAT ??0?$pair@Viterator@?$_Tree@V?$_Tmap_traits@HPAV?$list@PAVCEventItem@@V?$allocator@PAVCEventItem@@@std@@@std@@U?$less@H@2@V?$allocator@U?$pair@$$CBHPAV?$list@PAVCEventItem@@V?$allocator@PAVCEventItem@@@std@@@std@@@std@@@2@$0A@@std@@@std@@_N@std@@QAE@ABViterator@?$_Tree@V?$_Tmap_traits@HPAV?$list@PAVCEventItem@@V?$allocator@PAVCEventItem@@@std@@@std@@U?$less@H@2@V?$allocator@U?$pair@$$CBHPAV?$list@PAVCEventItem@@V?$allocator@PAVCEventItem@@@std@@@std@@@std@@@2@$0A@@std@@@1@AB_N@Z
_TEXT	SEGMENT
__Val1$ = 8						; size = 4
__Val2$ = 12						; size = 4
??0?$pair@Viterator@?$_Tree@V?$_Tmap_traits@HPAV?$list@PAVCEventItem@@V?$allocator@PAVCEventItem@@@std@@@std@@U?$less@H@2@V?$allocator@U?$pair@$$CBHPAV?$list@PAVCEventItem@@V?$allocator@PAVCEventItem@@@std@@@std@@@std@@@2@$0A@@std@@@std@@_N@std@@QAE@ABViterator@?$_Tree@V?$_Tmap_traits@HPAV?$list@PAVCEventItem@@V?$allocator@PAVCEventItem@@@std@@@std@@U?$less@H@2@V?$allocator@U?$pair@$$CBHPAV?$list@PAVCEventItem@@V?$allocator@PAVCEventItem@@@std@@@std@@@std@@@2@$0A@@std@@@1@AB_N@Z PROC NEAR ; std::pair<std::_Tree<std::_Tmap_traits<int,std::list<CEventItem *,std::allocator<CEventItem *> > *,std::less<int>,std::allocator<std::pair<int const ,std::list<CEventItem *,std::allocator<CEventItem *> > *> >,0> >::iterator,bool>::pair<std::_Tree<std::_Tmap_traits<int,std::list<CEventItem *,std::allocator<CEventItem *> > *,std::less<int>,std::allocator<std::pair<int const ,std::list<CEventItem *,std::allocator<CEventItem *> > *> >,0> >::iterator,bool>, COMDAT
; _this$ = ecx

; 34   : 		{	// construct from specified values

  00000	8b c1		 mov	 eax, ecx
  00002	8b 4c 24 04	 mov	 ecx, DWORD PTR __Val1$[esp-4]
  00006	8b 11		 mov	 edx, DWORD PTR [ecx]
  00008	8b 4c 24 08	 mov	 ecx, DWORD PTR __Val2$[esp-4]
  0000c	89 10		 mov	 DWORD PTR [eax], edx
  0000e	8a 11		 mov	 dl, BYTE PTR [ecx]
  00010	88 50 04	 mov	 BYTE PTR [eax+4], dl

; 35   : 		}

  00013	c2 08 00	 ret	 8
??0?$pair@Viterator@?$_Tree@V?$_Tmap_traits@HPAV?$list@PAVCEventItem@@V?$allocator@PAVCEventItem@@@std@@@std@@U?$less@H@2@V?$allocator@U?$pair@$$CBHPAV?$list@PAVCEventItem@@V?$allocator@PAVCEventItem@@@std@@@std@@@std@@@2@$0A@@std@@@std@@_N@std@@QAE@ABViterator@?$_Tree@V?$_Tmap_traits@HPAV?$list@PAVCEventItem@@V?$allocator@PAVCEventItem@@@std@@@std@@U?$less@H@2@V?$allocator@U?$pair@$$CBHPAV?$list@PAVCEventItem@@V?$allocator@PAVCEventItem@@@std@@@std@@@std@@@2@$0A@@std@@@1@AB_N@Z ENDP ; std::pair<std::_Tree<std::_Tmap_traits<int,std::list<CEventItem *,std::allocator<CEventItem *> > *,std::less<int>,std::allocator<std::pair<int const ,std::list<CEventItem *,std::allocator<CEventItem *> > *> >,0> >::iterator,bool>::pair<std::_Tree<std::_Tmap_traits<int,std::list<CEventItem *,std::allocator<CEventItem *> > *,std::less<int>,std::allocator<std::pair<int const ,std::list<CEventItem *,std::allocator<CEventItem *> > *> >,0> >::iterator,bool>
_TEXT	ENDS
PUBLIC	?StringCompare@?$ChTraitsCRT@D@ATL@@SAHPBD0@Z	; ATL::ChTraitsCRT<char>::StringCompare
EXTRN	__mbscmp:NEAR
; Function compile flags: /Ogty
; File c:\program files\microsoft visual studio .net 2003\vc7\atlmfc\include\cstringt.h
;	COMDAT ?StringCompare@?$ChTraitsCRT@D@ATL@@SAHPBD0@Z
_TEXT	SEGMENT
_pszA$ = 8						; size = 4
_pszB$ = 12						; size = 4
?StringCompare@?$ChTraitsCRT@D@ATL@@SAHPBD0@Z PROC NEAR	; ATL::ChTraitsCRT<char>::StringCompare, COMDAT

; 336  : 		return _mbscmp( reinterpret_cast< const unsigned char* >( pszA ), reinterpret_cast< const unsigned char* >( pszB ) );

  00000	e9 00 00 00 00	 jmp	 __mbscmp
?StringCompare@?$ChTraitsCRT@D@ATL@@SAHPBD0@Z ENDP	; ATL::ChTraitsCRT<char>::StringCompare
_TEXT	ENDS
PUBLIC	?_Myval@?$list@PAU_EVENT_GENERIC@@V?$allocator@PAU_EVENT_GENERIC@@@std@@@std@@KAAAPAU_EVENT_GENERIC@@PAU_Node@?$_List_nod@PAU_EVENT_GENERIC@@V?$allocator@PAU_EVENT_GENERIC@@@std@@@2@@Z ; std::list<_EVENT_GENERIC *,std::allocator<_EVENT_GENERIC *> >::_Myval
; Function compile flags: /Ogty
; File c:\program files\microsoft visual studio .net 2003\vc7\include\list
;	COMDAT ?_Myval@?$list@PAU_EVENT_GENERIC@@V?$allocator@PAU_EVENT_GENERIC@@@std@@@std@@KAAAPAU_EVENT_GENERIC@@PAU_Node@?$_List_nod@PAU_EVENT_GENERIC@@V?$allocator@PAU_EVENT_GENERIC@@@std@@@2@@Z
_TEXT	SEGMENT
__Pnode$ = 8						; size = 4
?_Myval@?$list@PAU_EVENT_GENERIC@@V?$allocator@PAU_EVENT_GENERIC@@@std@@@std@@KAAAPAU_EVENT_GENERIC@@PAU_Node@?$_List_nod@PAU_EVENT_GENERIC@@V?$allocator@PAU_EVENT_GENERIC@@@std@@@2@@Z PROC NEAR ; std::list<_EVENT_GENERIC *,std::allocator<_EVENT_GENERIC *> >::_Myval, COMDAT

; 118  : 		return ((_Vref)(*_Pnode)._Myval);

  00000	8b 44 24 04	 mov	 eax, DWORD PTR __Pnode$[esp-4]
  00004	83 c0 08	 add	 eax, 8

; 119  : 		}

  00007	c3		 ret	 0
?_Myval@?$list@PAU_EVENT_GENERIC@@V?$allocator@PAU_EVENT_GENERIC@@@std@@@std@@KAAAPAU_EVENT_GENERIC@@PAU_Node@?$_List_nod@PAU_EVENT_GENERIC@@V?$allocator@PAU_EVENT_GENERIC@@@std@@@2@@Z ENDP ; std::list<_EVENT_GENERIC *,std::allocator<_EVENT_GENERIC *> >::_Myval
_TEXT	ENDS
PUBLIC	??0?$allocator@PAU_EVENT_GENERIC@@@std@@QAE@ABV01@@Z ; std::allocator<_EVENT_GENERIC *>::allocator<_EVENT_GENERIC *>
; Function compile flags: /Ogty
; File c:\program files\microsoft visual studio .net 2003\vc7\include\xmemory
;	COMDAT ??0?$allocator@PAU_EVENT_GENERIC@@@std@@QAE@ABV01@@Z
_TEXT	SEGMENT
___formal$ = 8						; size = 4
??0?$allocator@PAU_EVENT_GENERIC@@@std@@QAE@ABV01@@Z PROC NEAR ; std::allocator<_EVENT_GENERIC *>::allocator<_EVENT_GENERIC *>, COMDAT
; _this$ = ecx

; 115  : 	allocator(const allocator<_Ty>&)

  00000	8b c1		 mov	 eax, ecx

; 116  : 		{	// construct by copying (do nothing)
; 117  : 		}

  00002	c2 04 00	 ret	 4
??0?$allocator@PAU_EVENT_GENERIC@@@std@@QAE@ABV01@@Z ENDP ; std::allocator<_EVENT_GENERIC *>::allocator<_EVENT_GENERIC *>
_TEXT	ENDS
PUBLIC	?_Color@?$_Tree@V?$_Tmap_traits@HPAV?$list@PAVCEventItem@@V?$allocator@PAVCEventItem@@@std@@@std@@U?$less@H@2@V?$allocator@U?$pair@$$CBHPAV?$list@PAVCEventItem@@V?$allocator@PAVCEventItem@@@std@@@std@@@std@@@2@$0A@@std@@@std@@KAAADPAU_Node@?$_Tree_nod@V?$_Tmap_traits@HPAV?$list@PAVCEventItem@@V?$allocator@PAVCEventItem@@@std@@@std@@U?$less@H@2@V?$allocator@U?$pair@$$CBHPAV?$list@PAVCEventItem@@V?$allocator@PAVCEventItem@@@std@@@std@@@std@@@2@$0A@@std@@@2@@Z ; std::_Tree<std::_Tmap_traits<int,std::list<CEventItem *,std::allocator<CEventItem *> > *,std::less<int>,std::allocator<std::pair<int const ,std::list<CEventItem *,std::allocator<CEventItem *> > *> >,0> >::_Color
; Function compile flags: /Ogty
; File c:\program files\microsoft visual studio .net 2003\vc7\include\xtree
;	COMDAT ?_Color@?$_Tree@V?$_Tmap_traits@HPAV?$list@PAVCEventItem@@V?$allocator@PAVCEventItem@@@std@@@std@@U?$less@H@2@V?$allocator@U?$pair@$$CBHPAV?$list@PAVCEventItem@@V?$allocator@PAVCEventItem@@@std@@@std@@@std@@@2@$0A@@std@@@std@@KAAADPAU_Node@?$_Tree_nod@V?$_Tmap_traits@HPAV?$list@PAVCEventItem@@V?$allocator@PAVCEventItem@@@std@@@std@@U?$less@H@2@V?$allocator@U?$pair@$$CBHPAV?$list@PAVCEventItem@@V?$allocator@PAVCEventItem@@@std@@@std@@@std@@@2@$0A@@std@@@2@@Z
_TEXT	SEGMENT
__Pnode$ = 8						; size = 4
?_Color@?$_Tree@V?$_Tmap_traits@HPAV?$list@PAVCEventItem@@V?$allocator@PAVCEventItem@@@std@@@std@@U?$less@H@2@V?$allocator@U?$pair@$$CBHPAV?$list@PAVCEventItem@@V?$allocator@PAVCEventItem@@@std@@@std@@@std@@@2@$0A@@std@@@std@@KAAADPAU_Node@?$_Tree_nod@V?$_Tmap_traits@HPAV?$list@PAVCEventItem@@V?$allocator@PAVCEventItem@@@std@@@std@@U?$less@H@2@V?$allocator@U?$pair@$$CBHPAV?$list@PAVCEventItem@@V?$allocator@PAVCEventItem@@@std@@@std@@@std@@@2@$0A@@std@@@2@@Z PROC NEAR ; std::_Tree<std::_Tmap_traits<int,std::list<CEventItem *,std::allocator<CEventItem *> > *,std::less<int>,std::allocator<std::pair<int const ,std::list<CEventItem *,std::allocator<CEventItem *> > *> >,0> >::_Color, COMDAT

; 132  : 		return ((_Charref)(*_Pnode)._Color);

  00000	8b 44 24 04	 mov	 eax, DWORD PTR __Pnode$[esp-4]
  00004	83 c0 14	 add	 eax, 20			; 00000014H

; 133  : 		}

  00007	c3		 ret	 0
?_Color@?$_Tree@V?$_Tmap_traits@HPAV?$list@PAVCEventItem@@V?$allocator@PAVCEventItem@@@std@@@std@@U?$less@H@2@V?$allocator@U?$pair@$$CBHPAV?$list@PAVCEventItem@@V?$allocator@PAVCEventItem@@@std@@@std@@@std@@@2@$0A@@std@@@std@@KAAADPAU_Node@?$_Tree_nod@V?$_Tmap_traits@HPAV?$list@PAVCEventItem@@V?$allocator@PAVCEventItem@@@std@@@std@@U?$less@H@2@V?$allocator@U?$pair@$$CBHPAV?$list@PAVCEventItem@@V?$allocator@PAVCEventItem@@@std@@@std@@@std@@@2@$0A@@std@@@2@@Z ENDP ; std::_Tree<std::_Tmap_traits<int,std::list<CEventItem *,std::allocator<CEventItem *> > *,std::less<int>,std::allocator<std::pair<int const ,std::list<CEventItem *,std::allocator<CEventItem *> > *> >,0> >::_Color
_TEXT	ENDS
PUBLIC	?_Parent@?$_Tree@V?$_Tmap_traits@HPAV?$list@PAVCEventItem@@V?$allocator@PAVCEventItem@@@std@@@std@@U?$less@H@2@V?$allocator@U?$pair@$$CBHPAV?$list@PAVCEventItem@@V?$allocator@PAVCEventItem@@@std@@@std@@@std@@@2@$0A@@std@@@std@@KAAAPAU_Node@?$_Tree_nod@V?$_Tmap_traits@HPAV?$list@PAVCEventItem@@V?$allocator@PAVCEventItem@@@std@@@std@@U?$less@H@2@V?$allocator@U?$pair@$$CBHPAV?$list@PAVCEventItem@@V?$allocator@PAVCEventItem@@@std@@@std@@@std@@@2@$0A@@std@@@2@PAU342@@Z ; std::_Tree<std::_Tmap_traits<int,std::list<CEventItem *,std::allocator<CEventItem *> > *,std::less<int>,std::allocator<std::pair<int const ,std::list<CEventItem *,std::allocator<CEventItem *> > *> >,0> >::_Parent
; Function compile flags: /Ogty
;	COMDAT ?_Parent@?$_Tree@V?$_Tmap_traits@HPAV?$list@PAVCEventItem@@V?$allocator@PAVCEventItem@@@std@@@std@@U?$less@H@2@V?$allocator@U?$pair@$$CBHPAV?$list@PAVCEventItem@@V?$allocator@PAVCEventItem@@@std@@@std@@@std@@@2@$0A@@std@@@std@@KAAAPAU_Node@?$_Tree_nod@V?$_Tmap_traits@HPAV?$list@PAVCEventItem@@V?$allocator@PAVCEventItem@@@std@@@std@@U?$less@H@2@V?$allocator@U?$pair@$$CBHPAV?$list@PAVCEventItem@@V?$allocator@PAVCEventItem@@@std@@@std@@@std@@@2@$0A@@std@@@2@PAU342@@Z
_TEXT	SEGMENT
__Pnode$ = 8						; size = 4
?_Parent@?$_Tree@V?$_Tmap_traits@HPAV?$list@PAVCEventItem@@V?$allocator@PAVCEventItem@@@std@@@std@@U?$less@H@2@V?$allocator@U?$pair@$$CBHPAV?$list@PAVCEventItem@@V?$allocator@PAVCEventItem@@@std@@@std@@@std@@@2@$0A@@std@@@std@@KAAAPAU_Node@?$_Tree_nod@V?$_Tmap_traits@HPAV?$list@PAVCEventItem@@V?$allocator@PAVCEventItem@@@std@@@std@@U?$less@H@2@V?$allocator@U?$pair@$$CBHPAV?$list@PAVCEventItem@@V?$allocator@PAVCEventItem@@@std@@@std@@@std@@@2@$0A@@std@@@2@PAU342@@Z PROC NEAR ; std::_Tree<std::_Tmap_traits<int,std::list<CEventItem *,std::allocator<CEventItem *> > *,std::less<int>,std::allocator<std::pair<int const ,std::list<CEventItem *,std::allocator<CEventItem *> > *> >,0> >::_Parent, COMDAT

; 152  : 		return ((_Nodepref)(*_Pnode)._Parent);

  00000	8b 44 24 04	 mov	 eax, DWORD PTR __Pnode$[esp-4]
  00004	83 c0 04	 add	 eax, 4

; 153  : 		}

  00007	c3		 ret	 0
?_Parent@?$_Tree@V?$_Tmap_traits@HPAV?$list@PAVCEventItem@@V?$allocator@PAVCEventItem@@@std@@@std@@U?$less@H@2@V?$allocator@U?$pair@$$CBHPAV?$list@PAVCEventItem@@V?$allocator@PAVCEventItem@@@std@@@std@@@std@@@2@$0A@@std@@@std@@KAAAPAU_Node@?$_Tree_nod@V?$_Tmap_traits@HPAV?$list@PAVCEventItem@@V?$allocator@PAVCEventItem@@@std@@@std@@U?$less@H@2@V?$allocator@U?$pair@$$CBHPAV?$list@PAVCEventItem@@V?$allocator@PAVCEventItem@@@std@@@std@@@std@@@2@$0A@@std@@@2@PAU342@@Z ENDP ; std::_Tree<std::_Tmap_traits<int,std::list<CEventItem *,std::allocator<CEventItem *> > *,std::less<int>,std::allocator<std::pair<int const ,std::list<CEventItem *,std::allocator<CEventItem *> > *> >,0> >::_Parent
_TEXT	ENDS
PUBLIC	?_Myval@?$_Tree@V?$_Tmap_traits@HPAV?$list@PAVCEventItem@@V?$allocator@PAVCEventItem@@@std@@@std@@U?$less@H@2@V?$allocator@U?$pair@$$CBHPAV?$list@PAVCEventItem@@V?$allocator@PAVCEventItem@@@std@@@std@@@std@@@2@$0A@@std@@@std@@KAAAU?$pair@$$CBHPAV?$list@PAVCEventItem@@V?$allocator@PAVCEventItem@@@std@@@std@@@2@PAU_Node@?$_Tree_nod@V?$_Tmap_traits@HPAV?$list@PAVCEventItem@@V?$allocator@PAVCEventItem@@@std@@@std@@U?$less@H@2@V?$allocator@U?$pair@$$CBHPAV?$list@PAVCEventItem@@V?$allocator@PAVCEventItem@@@std@@@std@@@std@@@2@$0A@@std@@@2@@Z ; std::_Tree<std::_Tmap_traits<int,std::list<CEventItem *,std::allocator<CEventItem *> > *,std::less<int>,std::allocator<std::pair<int const ,std::list<CEventItem *,std::allocator<CEventItem *> > *> >,0> >::_Myval
; Function compile flags: /Ogty
;	COMDAT ?_Myval@?$_Tree@V?$_Tmap_traits@HPAV?$list@PAVCEventItem@@V?$allocator@PAVCEventItem@@@std@@@std@@U?$less@H@2@V?$allocator@U?$pair@$$CBHPAV?$list@PAVCEventItem@@V?$allocator@PAVCEventItem@@@std@@@std@@@std@@@2@$0A@@std@@@std@@KAAAU?$pair@$$CBHPAV?$list@PAVCEventItem@@V?$allocator@PAVCEventItem@@@std@@@std@@@2@PAU_Node@?$_Tree_nod@V?$_Tmap_traits@HPAV?$list@PAVCEventItem@@V?$allocator@PAVCEventItem@@@std@@@std@@U?$less@H@2@V?$allocator@U?$pair@$$CBHPAV?$list@PAVCEventItem@@V?$allocator@PAVCEventItem@@@std@@@std@@@std@@@2@$0A@@std@@@2@@Z
_TEXT	SEGMENT
__Pnode$ = 8						; size = 4
?_Myval@?$_Tree@V?$_Tmap_traits@HPAV?$list@PAVCEventItem@@V?$allocator@PAVCEventItem@@@std@@@std@@U?$less@H@2@V?$allocator@U?$pair@$$CBHPAV?$list@PAVCEventItem@@V?$allocator@PAVCEventItem@@@std@@@std@@@std@@@2@$0A@@std@@@std@@KAAAU?$pair@$$CBHPAV?$list@PAVCEventItem@@V?$allocator@PAVCEventItem@@@std@@@std@@@2@PAU_Node@?$_Tree_nod@V?$_Tmap_traits@HPAV?$list@PAVCEventItem@@V?$allocator@PAVCEventItem@@@std@@@std@@U?$less@H@2@V?$allocator@U?$pair@$$CBHPAV?$list@PAVCEventItem@@V?$allocator@PAVCEventItem@@@std@@@std@@@std@@@2@$0A@@std@@@2@@Z PROC NEAR ; std::_Tree<std::_Tmap_traits<int,std::list<CEventItem *,std::allocator<CEventItem *> > *,std::less<int>,std::allocator<std::pair<int const ,std::list<CEventItem *,std::allocator<CEventItem *> > *> >,0> >::_Myval, COMDAT

; 162  : 		return ((_Vref)(*_Pnode)._Myval);

  00000	8b 44 24 04	 mov	 eax, DWORD PTR __Pnode$[esp-4]
  00004	83 c0 0c	 add	 eax, 12			; 0000000cH

; 163  : 		}

  00007	c3		 ret	 0
?_Myval@?$_Tree@V?$_Tmap_traits@HPAV?$list@PAVCEventItem@@V?$allocator@PAVCEventItem@@@std@@@std@@U?$less@H@2@V?$allocator@U?$pair@$$CBHPAV?$list@PAVCEventItem@@V?$allocator@PAVCEventItem@@@std@@@std@@@std@@@2@$0A@@std@@@std@@KAAAU?$pair@$$CBHPAV?$list@PAVCEventItem@@V?$allocator@PAVCEventItem@@@std@@@std@@@2@PAU_Node@?$_Tree_nod@V?$_Tmap_traits@HPAV?$list@PAVCEventItem@@V?$allocator@PAVCEventItem@@@std@@@std@@U?$less@H@2@V?$allocator@U?$pair@$$CBHPAV?$list@PAVCEventItem@@V?$allocator@PAVCEventItem@@@std@@@std@@@std@@@2@$0A@@std@@@2@@Z ENDP ; std::_Tree<std::_Tmap_traits<int,std::list<CEventItem *,std::allocator<CEventItem *> > *,std::less<int>,std::allocator<std::pair<int const ,std::list<CEventItem *,std::allocator<CEventItem *> > *> >,0> >::_Myval
_TEXT	ENDS
PUBLIC	??0?$allocator@U?$pair@$$CBHPAV?$list@PAVCEventItem@@V?$allocator@PAVCEventItem@@@std@@@std@@@std@@@std@@QAE@ABV01@@Z ; std::allocator<std::pair<int const ,std::list<CEventItem *,std::allocator<CEventItem *> > *> >::allocator<std::pair<int const ,std::list<CEventItem *,std::allocator<CEventItem *> > *> >
; Function compile flags: /Ogty
; File c:\program files\microsoft visual studio .net 2003\vc7\include\xmemory
;	COMDAT ??0?$allocator@U?$pair@$$CBHPAV?$list@PAVCEventItem@@V?$allocator@PAVCEventItem@@@std@@@std@@@std@@@std@@QAE@ABV01@@Z
_TEXT	SEGMENT
___formal$ = 8						; size = 4
??0?$allocator@U?$pair@$$CBHPAV?$list@PAVCEventItem@@V?$allocator@PAVCEventItem@@@std@@@std@@@std@@@std@@QAE@ABV01@@Z PROC NEAR ; std::allocator<std::pair<int const ,std::list<CEventItem *,std::allocator<CEventItem *> > *> >::allocator<std::pair<int const ,std::list<CEventItem *,std::allocator<CEventItem *> > *> >, COMDAT
; _this$ = ecx

; 115  : 	allocator(const allocator<_Ty>&)

  00000	8b c1		 mov	 eax, ecx

; 116  : 		{	// construct by copying (do nothing)
; 117  : 		}

  00002	c2 04 00	 ret	 4
??0?$allocator@U?$pair@$$CBHPAV?$list@PAVCEventItem@@V?$allocator@PAVCEventItem@@@std@@@std@@@std@@@std@@QAE@ABV01@@Z ENDP ; std::allocator<std::pair<int const ,std::list<CEventItem *,std::allocator<CEventItem *> > *> >::allocator<std::pair<int const ,std::list<CEventItem *,std::allocator<CEventItem *> > *> >
_TEXT	ENDS
PUBLIC	?deallocate@?$allocator@U_Node@?$_Tree_nod@V?$_Tmap_traits@HPAV?$list@PAVCEventItem@@V?$allocator@PAVCEventItem@@@std@@@std@@U?$less@H@2@V?$allocator@U?$pair@$$CBHPAV?$list@PAVCEventItem@@V?$allocator@PAVCEventItem@@@std@@@std@@@std@@@2@$0A@@std@@@std@@@std@@QAEXPAU_Node@?$_Tree_nod@V?$_Tmap_traits@HPAV?$list@PAVCEventItem@@V?$allocator@PAVCEventItem@@@std@@@std@@U?$less@H@2@V?$allocator@U?$pair@$$CBHPAV?$list@PAVCEventItem@@V?$allocator@PAVCEventItem@@@std@@@std@@@std@@@2@$0A@@std@@@2@I@Z ; std::allocator<std::_Tree_nod<std::_Tmap_traits<int,std::list<CEventItem *,std::allocator<CEventItem *> > *,std::less<int>,std::allocator<std::pair<int const ,std::list<CEventItem *,std::allocator<CEventItem *> > *> >,0> >::_Node>::deallocate
; Function compile flags: /Ogty
;	COMDAT ?deallocate@?$allocator@U_Node@?$_Tree_nod@V?$_Tmap_traits@HPAV?$list@PAVCEventItem@@V?$allocator@PAVCEventItem@@@std@@@std@@U?$less@H@2@V?$allocator@U?$pair@$$CBHPAV?$list@PAVCEventItem@@V?$allocator@PAVCEventItem@@@std@@@std@@@std@@@2@$0A@@std@@@std@@@std@@QAEXPAU_Node@?$_Tree_nod@V?$_Tmap_traits@HPAV?$list@PAVCEventItem@@V?$allocator@PAVCEventItem@@@std@@@std@@U?$less@H@2@V?$allocator@U?$pair@$$CBHPAV?$list@PAVCEventItem@@V?$allocator@PAVCEventItem@@@std@@@std@@@std@@@2@$0A@@std@@@2@I@Z
_TEXT	SEGMENT
__Ptr$ = 8						; size = 4
___formal$ = 12						; size = 4
?deallocate@?$allocator@U_Node@?$_Tree_nod@V?$_Tmap_traits@HPAV?$list@PAVCEventItem@@V?$allocator@PAVCEventItem@@@std@@@std@@U?$less@H@2@V?$allocator@U?$pair@$$CBHPAV?$list@PAVCEventItem@@V?$allocator@PAVCEventItem@@@std@@@std@@@std@@@2@$0A@@std@@@std@@@std@@QAEXPAU_Node@?$_Tree_nod@V?$_Tmap_traits@HPAV?$list@PAVCEventItem@@V?$allocator@PAVCEventItem@@@std@@@std@@U?$less@H@2@V?$allocator@U?$pair@$$CBHPAV?$list@PAVCEventItem@@V?$allocator@PAVCEventItem@@@std@@@std@@@std@@@2@$0A@@std@@@2@I@Z PROC NEAR ; std::allocator<std::_Tree_nod<std::_Tmap_traits<int,std::list<CEventItem *,std::allocator<CEventItem *> > *,std::less<int>,std::allocator<std::pair<int const ,std::list<CEventItem *,std::allocator<CEventItem *> > *> >,0> >::_Node>::deallocate, COMDAT
; _this$ = ecx

; 132  : 		operator delete(_Ptr);

  00000	8b 44 24 04	 mov	 eax, DWORD PTR __Ptr$[esp-4]
  00004	50		 push	 eax
  00005	e8 00 00 00 00	 call	 ??3@YAXPAX@Z		; operator delete
  0000a	59		 pop	 ecx

; 133  : 		}

  0000b	c2 08 00	 ret	 8
?deallocate@?$allocator@U_Node@?$_Tree_nod@V?$_Tmap_traits@HPAV?$list@PAVCEventItem@@V?$allocator@PAVCEventItem@@@std@@@std@@U?$less@H@2@V?$allocator@U?$pair@$$CBHPAV?$list@PAVCEventItem@@V?$allocator@PAVCEventItem@@@std@@@std@@@std@@@2@$0A@@std@@@std@@@std@@QAEXPAU_Node@?$_Tree_nod@V?$_Tmap_traits@HPAV?$list@PAVCEventItem@@V?$allocator@PAVCEventItem@@@std@@@std@@U?$less@H@2@V?$allocator@U?$pair@$$CBHPAV?$list@PAVCEventItem@@V?$allocator@PAVCEventItem@@@std@@@std@@@std@@@2@$0A@@std@@@2@I@Z ENDP ; std::allocator<std::_Tree_nod<std::_Tmap_traits<int,std::list<CEventItem *,std::allocator<CEventItem *> > *,std::less<int>,std::allocator<std::pair<int const ,std::list<CEventItem *,std::allocator<CEventItem *> > *> >,0> >::_Node>::deallocate
_TEXT	ENDS
PUBLIC	??0const_iterator@?$list@PAU_EVENT_GENERIC@@V?$allocator@PAU_EVENT_GENERIC@@@std@@@std@@QAE@PAU_Node@?$_List_nod@PAU_EVENT_GENERIC@@V?$allocator@PAU_EVENT_GENERIC@@@std@@@2@@Z ; std::list<_EVENT_GENERIC *,std::allocator<_EVENT_GENERIC *> >::const_iterator::const_iterator
; Function compile flags: /Ogty
; File c:\program files\microsoft visual studio .net 2003\vc7\include\list
;	COMDAT ??0const_iterator@?$list@PAU_EVENT_GENERIC@@V?$allocator@PAU_EVENT_GENERIC@@@std@@@std@@QAE@PAU_Node@?$_List_nod@PAU_EVENT_GENERIC@@V?$allocator@PAU_EVENT_GENERIC@@@std@@@2@@Z
_TEXT	SEGMENT
__Pnode$ = 8						; size = 4
??0const_iterator@?$list@PAU_EVENT_GENERIC@@V?$allocator@PAU_EVENT_GENERIC@@@std@@@std@@QAE@PAU_Node@?$_List_nod@PAU_EVENT_GENERIC@@V?$allocator@PAU_EVENT_GENERIC@@@std@@@2@@Z PROC NEAR ; std::list<_EVENT_GENERIC *,std::allocator<_EVENT_GENERIC *> >::const_iterator::const_iterator, COMDAT
; _this$ = ecx

; 156  : 			{	// construct with node pointer _Pnode

  00000	8b c1		 mov	 eax, ecx
  00002	8b 4c 24 04	 mov	 ecx, DWORD PTR __Pnode$[esp-4]
  00006	89 08		 mov	 DWORD PTR [eax], ecx

; 157  : 			}

  00008	c2 04 00	 ret	 4
??0const_iterator@?$list@PAU_EVENT_GENERIC@@V?$allocator@PAU_EVENT_GENERIC@@@std@@@std@@QAE@PAU_Node@?$_List_nod@PAU_EVENT_GENERIC@@V?$allocator@PAU_EVENT_GENERIC@@@std@@@2@@Z ENDP ; std::list<_EVENT_GENERIC *,std::allocator<_EVENT_GENERIC *> >::const_iterator::const_iterator
_TEXT	ENDS
PUBLIC	?_Mynode@const_iterator@?$list@PAU_EVENT_GENERIC@@V?$allocator@PAU_EVENT_GENERIC@@@std@@@std@@QBEPAU_Node@?$_List_nod@PAU_EVENT_GENERIC@@V?$allocator@PAU_EVENT_GENERIC@@@std@@@3@XZ ; std::list<_EVENT_GENERIC *,std::allocator<_EVENT_GENERIC *> >::const_iterator::_Mynode
; Function compile flags: /Ogty
;	COMDAT ?_Mynode@const_iterator@?$list@PAU_EVENT_GENERIC@@V?$allocator@PAU_EVENT_GENERIC@@@std@@@std@@QBEPAU_Node@?$_List_nod@PAU_EVENT_GENERIC@@V?$allocator@PAU_EVENT_GENERIC@@@std@@@3@XZ
_TEXT	SEGMENT
?_Mynode@const_iterator@?$list@PAU_EVENT_GENERIC@@V?$allocator@PAU_EVENT_GENERIC@@@std@@@std@@QBEPAU_Node@?$_List_nod@PAU_EVENT_GENERIC@@V?$allocator@PAU_EVENT_GENERIC@@@std@@@3@XZ PROC NEAR ; std::list<_EVENT_GENERIC *,std::allocator<_EVENT_GENERIC *> >::const_iterator::_Mynode, COMDAT
; _this$ = ecx

; 207  : 			return (_Ptr);

  00000	8b 01		 mov	 eax, DWORD PTR [ecx]

; 208  : 			}

  00002	c3		 ret	 0
?_Mynode@const_iterator@?$list@PAU_EVENT_GENERIC@@V?$allocator@PAU_EVENT_GENERIC@@@std@@@std@@QBEPAU_Node@?$_List_nod@PAU_EVENT_GENERIC@@V?$allocator@PAU_EVENT_GENERIC@@@std@@@3@XZ ENDP ; std::list<_EVENT_GENERIC *,std::allocator<_EVENT_GENERIC *> >::const_iterator::_Mynode
_TEXT	ENDS
PUBLIC	??0const_iterator@?$_Tree@V?$_Tmap_traits@HPAV?$list@PAVCEventItem@@V?$allocator@PAVCEventItem@@@std@@@std@@U?$less@H@2@V?$allocator@U?$pair@$$CBHPAV?$list@PAVCEventItem@@V?$allocator@PAVCEventItem@@@std@@@std@@@std@@@2@$0A@@std@@@std@@QAE@PAU_Node@?$_Tree_nod@V?$_Tmap_traits@HPAV?$list@PAVCEventItem@@V?$allocator@PAVCEventItem@@@std@@@std@@U?$less@H@2@V?$allocator@U?$pair@$$CBHPAV?$list@PAVCEventItem@@V?$allocator@PAVCEventItem@@@std@@@std@@@std@@@2@$0A@@std@@@2@@Z ; std::_Tree<std::_Tmap_traits<int,std::list<CEventItem *,std::allocator<CEventItem *> > *,std::less<int>,std::allocator<std::pair<int const ,std::list<CEventItem *,std::allocator<CEventItem *> > *> >,0> >::const_iterator::const_iterator
; Function compile flags: /Ogty
; File c:\program files\microsoft visual studio .net 2003\vc7\include\xtree
;	COMDAT ??0const_iterator@?$_Tree@V?$_Tmap_traits@HPAV?$list@PAVCEventItem@@V?$allocator@PAVCEventItem@@@std@@@std@@U?$less@H@2@V?$allocator@U?$pair@$$CBHPAV?$list@PAVCEventItem@@V?$allocator@PAVCEventItem@@@std@@@std@@@std@@@2@$0A@@std@@@std@@QAE@PAU_Node@?$_Tree_nod@V?$_Tmap_traits@HPAV?$list@PAVCEventItem@@V?$allocator@PAVCEventItem@@@std@@@std@@U?$less@H@2@V?$allocator@U?$pair@$$CBHPAV?$list@PAVCEventItem@@V?$allocator@PAVCEventItem@@@std@@@std@@@std@@@2@$0A@@std@@@2@@Z
_TEXT	SEGMENT
__Pnode$ = 8						; size = 4
??0const_iterator@?$_Tree@V?$_Tmap_traits@HPAV?$list@PAVCEventItem@@V?$allocator@PAVCEventItem@@@std@@@std@@U?$less@H@2@V?$allocator@U?$pair@$$CBHPAV?$list@PAVCEventItem@@V?$allocator@PAVCEventItem@@@std@@@std@@@std@@@2@$0A@@std@@@std@@QAE@PAU_Node@?$_Tree_nod@V?$_Tmap_traits@HPAV?$list@PAVCEventItem@@V?$allocator@PAVCEventItem@@@std@@@std@@U?$less@H@2@V?$allocator@U?$pair@$$CBHPAV?$list@PAVCEventItem@@V?$allocator@PAVCEventItem@@@std@@@std@@@std@@@2@$0A@@std@@@2@@Z PROC NEAR ; std::_Tree<std::_Tmap_traits<int,std::list<CEventItem *,std::allocator<CEventItem *> > *,std::less<int>,std::allocator<std::pair<int const ,std::list<CEventItem *,std::allocator<CEventItem *> > *> >,0> >::const_iterator::const_iterator, COMDAT
; _this$ = ecx

; 200  : 			{	// construct with node pointer _Pnode

  00000	8b c1		 mov	 eax, ecx
  00002	8b 4c 24 04	 mov	 ecx, DWORD PTR __Pnode$[esp-4]
  00006	89 08		 mov	 DWORD PTR [eax], ecx

; 201  : 			}

  00008	c2 04 00	 ret	 4
??0const_iterator@?$_Tree@V?$_Tmap_traits@HPAV?$list@PAVCEventItem@@V?$allocator@PAVCEventItem@@@std@@@std@@U?$less@H@2@V?$allocator@U?$pair@$$CBHPAV?$list@PAVCEventItem@@V?$allocator@PAVCEventItem@@@std@@@std@@@std@@@2@$0A@@std@@@std@@QAE@PAU_Node@?$_Tree_nod@V?$_Tmap_traits@HPAV?$list@PAVCEventItem@@V?$allocator@PAVCEventItem@@@std@@@std@@U?$less@H@2@V?$allocator@U?$pair@$$CBHPAV?$list@PAVCEventItem@@V?$allocator@PAVCEventItem@@@std@@@std@@@std@@@2@$0A@@std@@@2@@Z ENDP ; std::_Tree<std::_Tmap_traits<int,std::list<CEventItem *,std::allocator<CEventItem *> > *,std::less<int>,std::allocator<std::pair<int const ,std::list<CEventItem *,std::allocator<CEventItem *> > *> >,0> >::const_iterator::const_iterator
_TEXT	ENDS
PUBLIC	??Dconst_iterator@?$_Tree@V?$_Tmap_traits@HPAV?$list@PAVCEventItem@@V?$allocator@PAVCEventItem@@@std@@@std@@U?$less@H@2@V?$allocator@U?$pair@$$CBHPAV?$list@PAVCEventItem@@V?$allocator@PAVCEventItem@@@std@@@std@@@std@@@2@$0A@@std@@@std@@QBEABU?$pair@$$CBHPAV?$list@PAVCEventItem@@V?$allocator@PAVCEventItem@@@std@@@std@@@2@XZ ; std::_Tree<std::_Tmap_traits<int,std::list<CEventItem *,std::allocator<CEventItem *> > *,std::less<int>,std::allocator<std::pair<int const ,std::list<CEventItem *,std::allocator<CEventItem *> > *> >,0> >::const_iterator::operator*
; Function compile flags: /Ogty
;	COMDAT ??Dconst_iterator@?$_Tree@V?$_Tmap_traits@HPAV?$list@PAVCEventItem@@V?$allocator@PAVCEventItem@@@std@@@std@@U?$less@H@2@V?$allocator@U?$pair@$$CBHPAV?$list@PAVCEventItem@@V?$allocator@PAVCEventItem@@@std@@@std@@@std@@@2@$0A@@std@@@std@@QBEABU?$pair@$$CBHPAV?$list@PAVCEventItem@@V?$allocator@PAVCEventItem@@@std@@@std@@@2@XZ
_TEXT	SEGMENT
??Dconst_iterator@?$_Tree@V?$_Tmap_traits@HPAV?$list@PAVCEventItem@@V?$allocator@PAVCEventItem@@@std@@@std@@U?$less@H@2@V?$allocator@U?$pair@$$CBHPAV?$list@PAVCEventItem@@V?$allocator@PAVCEventItem@@@std@@@std@@@std@@@2@$0A@@std@@@std@@QBEABU?$pair@$$CBHPAV?$list@PAVCEventItem@@V?$allocator@PAVCEventItem@@@std@@@std@@@2@XZ PROC NEAR ; std::_Tree<std::_Tmap_traits<int,std::list<CEventItem *,std::allocator<CEventItem *> > *,std::less<int>,std::allocator<std::pair<int const ,std::list<CEventItem *,std::allocator<CEventItem *> > *> >,0> >::const_iterator::operator*, COMDAT
; _this$ = ecx

; 205  : 			return (_Myval(_Ptr));

  00000	8b 01		 mov	 eax, DWORD PTR [ecx]
  00002	83 c0 0c	 add	 eax, 12			; 0000000cH

; 206  : 			}

  00005	c3		 ret	 0
??Dconst_iterator@?$_Tree@V?$_Tmap_traits@HPAV?$list@PAVCEventItem@@V?$allocator@PAVCEventItem@@@std@@@std@@U?$less@H@2@V?$allocator@U?$pair@$$CBHPAV?$list@PAVCEventItem@@V?$allocator@PAVCEventItem@@@std@@@std@@@std@@@2@$0A@@std@@@std@@QBEABU?$pair@$$CBHPAV?$list@PAVCEventItem@@V?$allocator@PAVCEventItem@@@std@@@std@@@2@XZ ENDP ; std::_Tree<std::_Tmap_traits<int,std::list<CEventItem *,std::allocator<CEventItem *> > *,std::less<int>,std::allocator<std::pair<int const ,std::list<CEventItem *,std::allocator<CEventItem *> > *> >,0> >::const_iterator::operator*
_TEXT	ENDS
PUBLIC	?_Myval@?$list@PAVCEventItem@@V?$allocator@PAVCEventItem@@@std@@@std@@KAAAPAVCEventItem@@PAU_Node@?$_List_nod@PAVCEventItem@@V?$allocator@PAVCEventItem@@@std@@@2@@Z ; std::list<CEventItem *,std::allocator<CEventItem *> >::_Myval
; Function compile flags: /Ogty
; File c:\program files\microsoft visual studio .net 2003\vc7\include\list
;	COMDAT ?_Myval@?$list@PAVCEventItem@@V?$allocator@PAVCEventItem@@@std@@@std@@KAAAPAVCEventItem@@PAU_Node@?$_List_nod@PAVCEventItem@@V?$allocator@PAVCEventItem@@@std@@@2@@Z
_TEXT	SEGMENT
__Pnode$ = 8						; size = 4
?_Myval@?$list@PAVCEventItem@@V?$allocator@PAVCEventItem@@@std@@@std@@KAAAPAVCEventItem@@PAU_Node@?$_List_nod@PAVCEventItem@@V?$allocator@PAVCEventItem@@@std@@@2@@Z PROC NEAR ; std::list<CEventItem *,std::allocator<CEventItem *> >::_Myval, COMDAT

; 118  : 		return ((_Vref)(*_Pnode)._Myval);

  00000	8b 44 24 04	 mov	 eax, DWORD PTR __Pnode$[esp-4]
  00004	83 c0 08	 add	 eax, 8

; 119  : 		}

  00007	c3		 ret	 0
?_Myval@?$list@PAVCEventItem@@V?$allocator@PAVCEventItem@@@std@@@std@@KAAAPAVCEventItem@@PAU_Node@?$_List_nod@PAVCEventItem@@V?$allocator@PAVCEventItem@@@std@@@2@@Z ENDP ; std::list<CEventItem *,std::allocator<CEventItem *> >::_Myval
_TEXT	ENDS
PUBLIC	??0?$allocator@PAVCEventItem@@@std@@QAE@ABV01@@Z ; std::allocator<CEventItem *>::allocator<CEventItem *>
; Function compile flags: /Ogty
; File c:\program files\microsoft visual studio .net 2003\vc7\include\xmemory
;	COMDAT ??0?$allocator@PAVCEventItem@@@std@@QAE@ABV01@@Z
_TEXT	SEGMENT
___formal$ = 8						; size = 4
??0?$allocator@PAVCEventItem@@@std@@QAE@ABV01@@Z PROC NEAR ; std::allocator<CEventItem *>::allocator<CEventItem *>, COMDAT
; _this$ = ecx

; 115  : 	allocator(const allocator<_Ty>&)

  00000	8b c1		 mov	 eax, ecx

; 116  : 		{	// construct by copying (do nothing)
; 117  : 		}

  00002	c2 04 00	 ret	 4
??0?$allocator@PAVCEventItem@@@std@@QAE@ABV01@@Z ENDP	; std::allocator<CEventItem *>::allocator<CEventItem *>
_TEXT	ENDS
PUBLIC	??0const_iterator@?$list@PAVCEventItem@@V?$allocator@PAVCEventItem@@@std@@@std@@QAE@PAU_Node@?$_List_nod@PAVCEventItem@@V?$allocator@PAVCEventItem@@@std@@@2@@Z ; std::list<CEventItem *,std::allocator<CEventItem *> >::const_iterator::const_iterator
; Function compile flags: /Ogty
; File c:\program files\microsoft visual studio .net 2003\vc7\include\list
;	COMDAT ??0const_iterator@?$list@PAVCEventItem@@V?$allocator@PAVCEventItem@@@std@@@std@@QAE@PAU_Node@?$_List_nod@PAVCEventItem@@V?$allocator@PAVCEventItem@@@std@@@2@@Z
_TEXT	SEGMENT
__Pnode$ = 8						; size = 4
??0const_iterator@?$list@PAVCEventItem@@V?$allocator@PAVCEventItem@@@std@@@std@@QAE@PAU_Node@?$_List_nod@PAVCEventItem@@V?$allocator@PAVCEventItem@@@std@@@2@@Z PROC NEAR ; std::list<CEventItem *,std::allocator<CEventItem *> >::const_iterator::const_iterator, COMDAT
; _this$ = ecx

; 156  : 			{	// construct with node pointer _Pnode

  00000	8b c1		 mov	 eax, ecx
  00002	8b 4c 24 04	 mov	 ecx, DWORD PTR __Pnode$[esp-4]
  00006	89 08		 mov	 DWORD PTR [eax], ecx

; 157  : 			}

  00008	c2 04 00	 ret	 4
??0const_iterator@?$list@PAVCEventItem@@V?$allocator@PAVCEventItem@@@std@@@std@@QAE@PAU_Node@?$_List_nod@PAVCEventItem@@V?$allocator@PAVCEventItem@@@std@@@2@@Z ENDP ; std::list<CEventItem *,std::allocator<CEventItem *> >::const_iterator::const_iterator
_TEXT	ENDS
PUBLIC	?_Mynode@const_iterator@?$list@PAVCEventItem@@V?$allocator@PAVCEventItem@@@std@@@std@@QBEPAU_Node@?$_List_nod@PAVCEventItem@@V?$allocator@PAVCEventItem@@@std@@@3@XZ ; std::list<CEventItem *,std::allocator<CEventItem *> >::const_iterator::_Mynode
; Function compile flags: /Ogty
;	COMDAT ?_Mynode@const_iterator@?$list@PAVCEventItem@@V?$allocator@PAVCEventItem@@@std@@@std@@QBEPAU_Node@?$_List_nod@PAVCEventItem@@V?$allocator@PAVCEventItem@@@std@@@3@XZ
_TEXT	SEGMENT
?_Mynode@const_iterator@?$list@PAVCEventItem@@V?$allocator@PAVCEventItem@@@std@@@std@@QBEPAU_Node@?$_List_nod@PAVCEventItem@@V?$allocator@PAVCEventItem@@@std@@@3@XZ PROC NEAR ; std::list<CEventItem *,std::allocator<CEventItem *> >::const_iterator::_Mynode, COMDAT
; _this$ = ecx

; 207  : 			return (_Ptr);

  00000	8b 01		 mov	 eax, DWORD PTR [ecx]

; 208  : 			}

  00002	c3		 ret	 0
?_Mynode@const_iterator@?$list@PAVCEventItem@@V?$allocator@PAVCEventItem@@@std@@@std@@QBEPAU_Node@?$_List_nod@PAVCEventItem@@V?$allocator@PAVCEventItem@@@std@@@3@XZ ENDP ; std::list<CEventItem *,std::allocator<CEventItem *> >::const_iterator::_Mynode
_TEXT	ENDS
PUBLIC	?_Min@?$_Tree@V?$_Tmap_traits@HPAV?$list@PAVCEventItem@@V?$allocator@PAVCEventItem@@@std@@@std@@U?$less@H@2@V?$allocator@U?$pair@$$CBHPAV?$list@PAVCEventItem@@V?$allocator@PAVCEventItem@@@std@@@std@@@std@@@2@$0A@@std@@@std@@KAPAU_Node@?$_Tree_nod@V?$_Tmap_traits@HPAV?$list@PAVCEventItem@@V?$allocator@PAVCEventItem@@@std@@@std@@U?$less@H@2@V?$allocator@U?$pair@$$CBHPAV?$list@PAVCEventItem@@V?$allocator@PAVCEventItem@@@std@@@std@@@std@@@2@$0A@@std@@@2@PAU342@@Z ; std::_Tree<std::_Tmap_traits<int,std::list<CEventItem *,std::allocator<CEventItem *> > *,std::less<int>,std::allocator<std::pair<int const ,std::list<CEventItem *,std::allocator<CEventItem *> > *> >,0> >::_Min
; Function compile flags: /Ogty
; File c:\program files\microsoft visual studio .net 2003\vc7\include\xtree
;	COMDAT ?_Min@?$_Tree@V?$_Tmap_traits@HPAV?$list@PAVCEventItem@@V?$allocator@PAVCEventItem@@@std@@@std@@U?$less@H@2@V?$allocator@U?$pair@$$CBHPAV?$list@PAVCEventItem@@V?$allocator@PAVCEventItem@@@std@@@std@@@std@@@2@$0A@@std@@@std@@KAPAU_Node@?$_Tree_nod@V?$_Tmap_traits@HPAV?$list@PAVCEventItem@@V?$allocator@PAVCEventItem@@@std@@@std@@U?$less@H@2@V?$allocator@U?$pair@$$CBHPAV?$list@PAVCEventItem@@V?$allocator@PAVCEventItem@@@std@@@std@@@std@@@2@$0A@@std@@@2@PAU342@@Z
_TEXT	SEGMENT
__Pnode$ = 8						; size = 4
?_Min@?$_Tree@V?$_Tmap_traits@HPAV?$list@PAVCEventItem@@V?$allocator@PAVCEventItem@@@std@@@std@@U?$less@H@2@V?$allocator@U?$pair@$$CBHPAV?$list@PAVCEventItem@@V?$allocator@PAVCEventItem@@@std@@@std@@@std@@@2@$0A@@std@@@std@@KAPAU_Node@?$_Tree_nod@V?$_Tmap_traits@HPAV?$list@PAVCEventItem@@V?$allocator@PAVCEventItem@@@std@@@std@@U?$less@H@2@V?$allocator@U?$pair@$$CBHPAV?$list@PAVCEventItem@@V?$allocator@PAVCEventItem@@@std@@@std@@@std@@@2@$0A@@std@@@2@PAU342@@Z PROC NEAR ; std::_Tree<std::_Tmap_traits<int,std::list<CEventItem *,std::allocator<CEventItem *> > *,std::less<int>,std::allocator<std::pair<int const ,std::list<CEventItem *,std::allocator<CEventItem *> > *> >,0> >::_Min, COMDAT

; 1042 : 		while (!_Isnil(_Left(_Pnode)))

  00000	8b 44 24 04	 mov	 eax, DWORD PTR __Pnode$[esp-4]
  00004	8b 08		 mov	 ecx, DWORD PTR [eax]
  00006	8a 51 15	 mov	 dl, BYTE PTR [ecx+21]
  00009	84 d2		 test	 dl, dl
  0000b	75 0e		 jne	 SHORT $L189537
  0000d	8d 49 00	 npad	 3
$L189536:

; 1043 : 			_Pnode = _Left(_Pnode);

  00010	8b c1		 mov	 eax, ecx
  00012	8b 08		 mov	 ecx, DWORD PTR [eax]
  00014	8a 51 15	 mov	 dl, BYTE PTR [ecx+21]
  00017	84 d2		 test	 dl, dl
  00019	74 f5		 je	 SHORT $L189536
$L189537:

; 1044 : 		return (_Pnode);
; 1045 : 		}

  0001b	c3		 ret	 0
?_Min@?$_Tree@V?$_Tmap_traits@HPAV?$list@PAVCEventItem@@V?$allocator@PAVCEventItem@@@std@@@std@@U?$less@H@2@V?$allocator@U?$pair@$$CBHPAV?$list@PAVCEventItem@@V?$allocator@PAVCEventItem@@@std@@@std@@@std@@@2@$0A@@std@@@std@@KAPAU_Node@?$_Tree_nod@V?$_Tmap_traits@HPAV?$list@PAVCEventItem@@V?$allocator@PAVCEventItem@@@std@@@std@@U?$less@H@2@V?$allocator@U?$pair@$$CBHPAV?$list@PAVCEventItem@@V?$allocator@PAVCEventItem@@@std@@@std@@@std@@@2@$0A@@std@@@2@PAU342@@Z ENDP ; std::_Tree<std::_Tmap_traits<int,std::list<CEventItem *,std::allocator<CEventItem *> > *,std::less<int>,std::allocator<std::pair<int const ,std::list<CEventItem *,std::allocator<CEventItem *> > *> >,0> >::_Min
_TEXT	ENDS
PUBLIC	?_Root@?$_Tree@V?$_Tmap_traits@HPAV?$list@PAVCEventItem@@V?$allocator@PAVCEventItem@@@std@@@std@@U?$less@H@2@V?$allocator@U?$pair@$$CBHPAV?$list@PAVCEventItem@@V?$allocator@PAVCEventItem@@@std@@@std@@@std@@@2@$0A@@std@@@std@@IBEAAPAU_Node@?$_Tree_nod@V?$_Tmap_traits@HPAV?$list@PAVCEventItem@@V?$allocator@PAVCEventItem@@@std@@@std@@U?$less@H@2@V?$allocator@U?$pair@$$CBHPAV?$list@PAVCEventItem@@V?$allocator@PAVCEventItem@@@std@@@std@@@std@@@2@$0A@@std@@@2@XZ ; std::_Tree<std::_Tmap_traits<int,std::list<CEventItem *,std::allocator<CEventItem *> > *,std::less<int>,std::allocator<std::pair<int const ,std::list<CEventItem *,std::allocator<CEventItem *> > *> >,0> >::_Root
; Function compile flags: /Ogty
;	COMDAT ?_Root@?$_Tree@V?$_Tmap_traits@HPAV?$list@PAVCEventItem@@V?$allocator@PAVCEventItem@@@std@@@std@@U?$less@H@2@V?$allocator@U?$pair@$$CBHPAV?$list@PAVCEventItem@@V?$allocator@PAVCEventItem@@@std@@@std@@@std@@@2@$0A@@std@@@std@@IBEAAPAU_Node@?$_Tree_nod@V?$_Tmap_traits@HPAV?$list@PAVCEventItem@@V?$allocator@PAVCEventItem@@@std@@@std@@U?$less@H@2@V?$allocator@U?$pair@$$CBHPAV?$list@PAVCEventItem@@V?$allocator@PAVCEventItem@@@std@@@std@@@std@@@2@$0A@@std@@@2@XZ
_TEXT	SEGMENT
?_Root@?$_Tree@V?$_Tmap_traits@HPAV?$list@PAVCEventItem@@V?$allocator@PAVCEventItem@@@std@@@std@@U?$less@H@2@V?$allocator@U?$pair@$$CBHPAV?$list@PAVCEventItem@@V?$allocator@PAVCEventItem@@@std@@@std@@@std@@@2@$0A@@std@@@std@@IBEAAPAU_Node@?$_Tree_nod@V?$_Tmap_traits@HPAV?$list@PAVCEventItem@@V?$allocator@PAVCEventItem@@@std@@@std@@U?$less@H@2@V?$allocator@U?$pair@$$CBHPAV?$list@PAVCEventItem@@V?$allocator@PAVCEventItem@@@std@@@std@@@std@@@2@$0A@@std@@@2@XZ PROC NEAR ; std::_Tree<std::_Tmap_traits<int,std::list<CEventItem *,std::allocator<CEventItem *> > *,std::less<int>,std::allocator<std::pair<int const ,std::list<CEventItem *,std::allocator<CEventItem *> > *> >,0> >::_Root, COMDAT
; _this$ = ecx

; 1064 : 		return (_Parent(_Myhead));

  00000	8b 41 04	 mov	 eax, DWORD PTR [ecx+4]
  00003	83 c0 04	 add	 eax, 4

; 1065 : 		}

  00006	c3		 ret	 0
?_Root@?$_Tree@V?$_Tmap_traits@HPAV?$list@PAVCEventItem@@V?$allocator@PAVCEventItem@@@std@@@std@@U?$less@H@2@V?$allocator@U?$pair@$$CBHPAV?$list@PAVCEventItem@@V?$allocator@PAVCEventItem@@@std@@@std@@@std@@@2@$0A@@std@@@std@@IBEAAPAU_Node@?$_Tree_nod@V?$_Tmap_traits@HPAV?$list@PAVCEventItem@@V?$allocator@PAVCEventItem@@@std@@@std@@U?$less@H@2@V?$allocator@U?$pair@$$CBHPAV?$list@PAVCEventItem@@V?$allocator@PAVCEventItem@@@std@@@std@@@std@@@2@$0A@@std@@@2@XZ ENDP ; std::_Tree<std::_Tmap_traits<int,std::list<CEventItem *,std::allocator<CEventItem *> > *,std::less<int>,std::allocator<std::pair<int const ,std::list<CEventItem *,std::allocator<CEventItem *> > *> >,0> >::_Root
_TEXT	ENDS
PUBLIC	?max_size@?$allocator@U?$pair@$$CBHPAV?$list@PAVCEventItem@@V?$allocator@PAVCEventItem@@@std@@@std@@@std@@@std@@QBEIXZ ; std::allocator<std::pair<int const ,std::list<CEventItem *,std::allocator<CEventItem *> > *> >::max_size
; Function compile flags: /Ogty
; File c:\program files\microsoft visual studio .net 2003\vc7\include\xmemory
;	COMDAT ?max_size@?$allocator@U?$pair@$$CBHPAV?$list@PAVCEventItem@@V?$allocator@PAVCEventItem@@@std@@@std@@@std@@@std@@QBEIXZ
_TEXT	SEGMENT
?max_size@?$allocator@U?$pair@$$CBHPAV?$list@PAVCEventItem@@V?$allocator@PAVCEventItem@@@std@@@std@@@std@@@std@@QBEIXZ PROC NEAR ; std::allocator<std::pair<int const ,std::list<CEventItem *,std::allocator<CEventItem *> > *> >::max_size, COMDAT
; _this$ = ecx

; 157  : 		_SIZT _Count = (_SIZT)(-1) / sizeof (_Ty);
; 158  : 		return (0 < _Count ? _Count : 1);

  00000	b8 ff ff ff 1f	 mov	 eax, 536870911		; 1fffffffH

; 159  : 		}

  00005	c3		 ret	 0
?max_size@?$allocator@U?$pair@$$CBHPAV?$list@PAVCEventItem@@V?$allocator@PAVCEventItem@@@std@@@std@@@std@@@std@@QBEIXZ ENDP ; std::allocator<std::pair<int const ,std::list<CEventItem *,std::allocator<CEventItem *> > *> >::max_size
_TEXT	ENDS
PUBLIC	??0_Node@?$_List_nod@PAU_EVENT_GENERIC@@V?$allocator@PAU_EVENT_GENERIC@@@std@@@std@@QAE@PAU012@0ABQAU_EVENT_GENERIC@@@Z ; std::_List_nod<_EVENT_GENERIC *,std::allocator<_EVENT_GENERIC *> >::_Node::_Node
; Function compile flags: /Ogty
; File c:\program files\microsoft visual studio .net 2003\vc7\include\list
;	COMDAT ??0_Node@?$_List_nod@PAU_EVENT_GENERIC@@V?$allocator@PAU_EVENT_GENERIC@@@std@@@std@@QAE@PAU012@0ABQAU_EVENT_GENERIC@@@Z
_TEXT	SEGMENT
__Nextarg$ = 8						; size = 4
__Prevarg$ = 12						; size = 4
__Myvalarg$ = 16					; size = 4
??0_Node@?$_List_nod@PAU_EVENT_GENERIC@@V?$allocator@PAU_EVENT_GENERIC@@@std@@@std@@QAE@PAU012@0ABQAU_EVENT_GENERIC@@@Z PROC NEAR ; std::_List_nod<_EVENT_GENERIC *,std::allocator<_EVENT_GENERIC *> >::_Node::_Node, COMDAT
; _this$ = ecx

; 34   : 			{	// construct a node with value

  00000	8b 54 24 08	 mov	 edx, DWORD PTR __Prevarg$[esp-4]
  00004	8b c1		 mov	 eax, ecx
  00006	8b 4c 24 04	 mov	 ecx, DWORD PTR __Nextarg$[esp-4]
  0000a	89 08		 mov	 DWORD PTR [eax], ecx
  0000c	8b 4c 24 0c	 mov	 ecx, DWORD PTR __Myvalarg$[esp-4]
  00010	89 50 04	 mov	 DWORD PTR [eax+4], edx
  00013	8b 11		 mov	 edx, DWORD PTR [ecx]
  00015	89 50 08	 mov	 DWORD PTR [eax+8], edx

; 35   : 			}

  00018	c2 0c 00	 ret	 12			; 0000000cH
??0_Node@?$_List_nod@PAU_EVENT_GENERIC@@V?$allocator@PAU_EVENT_GENERIC@@@std@@@std@@QAE@PAU012@0ABQAU_EVENT_GENERIC@@@Z ENDP ; std::_List_nod<_EVENT_GENERIC *,std::allocator<_EVENT_GENERIC *> >::_Node::_Node
_TEXT	ENDS
PUBLIC	??0_Node@?$_Tree_nod@V?$_Tmap_traits@HPAV?$list@PAVCEventItem@@V?$allocator@PAVCEventItem@@@std@@@std@@U?$less@H@2@V?$allocator@U?$pair@$$CBHPAV?$list@PAVCEventItem@@V?$allocator@PAVCEventItem@@@std@@@std@@@std@@@2@$0A@@std@@@std@@QAE@PAU012@00ABU?$pair@$$CBHPAV?$list@PAVCEventItem@@V?$allocator@PAVCEventItem@@@std@@@std@@@2@D@Z ; std::_Tree_nod<std::_Tmap_traits<int,std::list<CEventItem *,std::allocator<CEventItem *> > *,std::less<int>,std::allocator<std::pair<int const ,std::list<CEventItem *,std::allocator<CEventItem *> > *> >,0> >::_Node::_Node
; Function compile flags: /Ogty
; File c:\program files\microsoft visual studio .net 2003\vc7\include\xtree
;	COMDAT ??0_Node@?$_Tree_nod@V?$_Tmap_traits@HPAV?$list@PAVCEventItem@@V?$allocator@PAVCEventItem@@@std@@@std@@U?$less@H@2@V?$allocator@U?$pair@$$CBHPAV?$list@PAVCEventItem@@V?$allocator@PAVCEventItem@@@std@@@std@@@std@@@2@$0A@@std@@@std@@QAE@PAU012@00ABU?$pair@$$CBHPAV?$list@PAVCEventItem@@V?$allocator@PAVCEventItem@@@std@@@std@@@2@D@Z
_TEXT	SEGMENT
__Larg$ = 8						; size = 4
__Parg$ = 12						; size = 4
__Rarg$ = 16						; size = 4
__Val$ = 20						; size = 4
__Carg$ = 24						; size = 1
??0_Node@?$_Tree_nod@V?$_Tmap_traits@HPAV?$list@PAVCEventItem@@V?$allocator@PAVCEventItem@@@std@@@std@@U?$less@H@2@V?$allocator@U?$pair@$$CBHPAV?$list@PAVCEventItem@@V?$allocator@PAVCEventItem@@@std@@@std@@@std@@@2@$0A@@std@@@std@@QAE@PAU012@00ABU?$pair@$$CBHPAV?$list@PAVCEventItem@@V?$allocator@PAVCEventItem@@@std@@@std@@@2@D@Z PROC NEAR ; std::_Tree_nod<std::_Tmap_traits<int,std::list<CEventItem *,std::allocator<CEventItem *> > *,std::less<int>,std::allocator<std::pair<int const ,std::list<CEventItem *,std::allocator<CEventItem *> > *> >,0> >::_Node::_Node, COMDAT
; _this$ = ecx

; 40   : 			{	// construct a node with value

  00000	8b 54 24 08	 mov	 edx, DWORD PTR __Parg$[esp-4]
  00004	8b c1		 mov	 eax, ecx
  00006	8b 4c 24 04	 mov	 ecx, DWORD PTR __Larg$[esp-4]
  0000a	89 08		 mov	 DWORD PTR [eax], ecx
  0000c	8b 4c 24 0c	 mov	 ecx, DWORD PTR __Rarg$[esp-4]
  00010	89 48 08	 mov	 DWORD PTR [eax+8], ecx
  00013	8b 4c 24 10	 mov	 ecx, DWORD PTR __Val$[esp-4]
  00017	89 50 04	 mov	 DWORD PTR [eax+4], edx
  0001a	8b 11		 mov	 edx, DWORD PTR [ecx]
  0001c	89 50 0c	 mov	 DWORD PTR [eax+12], edx
  0001f	8b 49 04	 mov	 ecx, DWORD PTR [ecx+4]
  00022	8a 54 24 14	 mov	 dl, BYTE PTR __Carg$[esp-4]
  00026	89 48 10	 mov	 DWORD PTR [eax+16], ecx
  00029	88 50 14	 mov	 BYTE PTR [eax+20], dl
  0002c	c6 40 15 00	 mov	 BYTE PTR [eax+21], 0

; 41   : 			}

  00030	c2 14 00	 ret	 20			; 00000014H
??0_Node@?$_Tree_nod@V?$_Tmap_traits@HPAV?$list@PAVCEventItem@@V?$allocator@PAVCEventItem@@@std@@@std@@U?$less@H@2@V?$allocator@U?$pair@$$CBHPAV?$list@PAVCEventItem@@V?$allocator@PAVCEventItem@@@std@@@std@@@std@@@2@$0A@@std@@@std@@QAE@PAU012@00ABU?$pair@$$CBHPAV?$list@PAVCEventItem@@V?$allocator@PAVCEventItem@@@std@@@std@@@2@D@Z ENDP ; std::_Tree_nod<std::_Tmap_traits<int,std::list<CEventItem *,std::allocator<CEventItem *> > *,std::less<int>,std::allocator<std::pair<int const ,std::list<CEventItem *,std::allocator<CEventItem *> > *> >,0> >::_Node::_Node
_TEXT	ENDS
PUBLIC	??0_Node@?$_List_nod@PAVCEventItem@@V?$allocator@PAVCEventItem@@@std@@@std@@QAE@PAU012@0ABQAVCEventItem@@@Z ; std::_List_nod<CEventItem *,std::allocator<CEventItem *> >::_Node::_Node
; Function compile flags: /Ogty
; File c:\program files\microsoft visual studio .net 2003\vc7\include\list
;	COMDAT ??0_Node@?$_List_nod@PAVCEventItem@@V?$allocator@PAVCEventItem@@@std@@@std@@QAE@PAU012@0ABQAVCEventItem@@@Z
_TEXT	SEGMENT
__Nextarg$ = 8						; size = 4
__Prevarg$ = 12						; size = 4
__Myvalarg$ = 16					; size = 4
??0_Node@?$_List_nod@PAVCEventItem@@V?$allocator@PAVCEventItem@@@std@@@std@@QAE@PAU012@0ABQAVCEventItem@@@Z PROC NEAR ; std::_List_nod<CEventItem *,std::allocator<CEventItem *> >::_Node::_Node, COMDAT
; _this$ = ecx

; 34   : 			{	// construct a node with value

  00000	8b 54 24 08	 mov	 edx, DWORD PTR __Prevarg$[esp-4]
  00004	8b c1		 mov	 eax, ecx
  00006	8b 4c 24 04	 mov	 ecx, DWORD PTR __Nextarg$[esp-4]
  0000a	89 08		 mov	 DWORD PTR [eax], ecx
  0000c	8b 4c 24 0c	 mov	 ecx, DWORD PTR __Myvalarg$[esp-4]
  00010	89 50 04	 mov	 DWORD PTR [eax+4], edx
  00013	8b 11		 mov	 edx, DWORD PTR [ecx]
  00015	89 50 08	 mov	 DWORD PTR [eax+8], edx

; 35   : 			}

  00018	c2 0c 00	 ret	 12			; 0000000cH
??0_Node@?$_List_nod@PAVCEventItem@@V?$allocator@PAVCEventItem@@@std@@@std@@QAE@PAU012@0ABQAVCEventItem@@@Z ENDP ; std::_List_nod<CEventItem *,std::allocator<CEventItem *> >::_Node::_Node
_TEXT	ENDS
PUBLIC	?max_size@?$allocator@PAU_EVENT_GENERIC@@@std@@QBEIXZ ; std::allocator<_EVENT_GENERIC *>::max_size
; Function compile flags: /Ogty
; File c:\program files\microsoft visual studio .net 2003\vc7\include\xmemory
;	COMDAT ?max_size@?$allocator@PAU_EVENT_GENERIC@@@std@@QBEIXZ
_TEXT	SEGMENT
?max_size@?$allocator@PAU_EVENT_GENERIC@@@std@@QBEIXZ PROC NEAR ; std::allocator<_EVENT_GENERIC *>::max_size, COMDAT
; _this$ = ecx

; 157  : 		_SIZT _Count = (_SIZT)(-1) / sizeof (_Ty);
; 158  : 		return (0 < _Count ? _Count : 1);

  00000	b8 ff ff ff 3f	 mov	 eax, 1073741823		; 3fffffffH

; 159  : 		}

  00005	c3		 ret	 0
?max_size@?$allocator@PAU_EVENT_GENERIC@@@std@@QBEIXZ ENDP ; std::allocator<_EVENT_GENERIC *>::max_size
_TEXT	ENDS
PUBLIC	?_Max@?$_Tree@V?$_Tmap_traits@HPAV?$list@PAVCEventItem@@V?$allocator@PAVCEventItem@@@std@@@std@@U?$less@H@2@V?$allocator@U?$pair@$$CBHPAV?$list@PAVCEventItem@@V?$allocator@PAVCEventItem@@@std@@@std@@@std@@@2@$0A@@std@@@std@@KAPAU_Node@?$_Tree_nod@V?$_Tmap_traits@HPAV?$list@PAVCEventItem@@V?$allocator@PAVCEventItem@@@std@@@std@@U?$less@H@2@V?$allocator@U?$pair@$$CBHPAV?$list@PAVCEventItem@@V?$allocator@PAVCEventItem@@@std@@@std@@@std@@@2@$0A@@std@@@2@PAU342@@Z ; std::_Tree<std::_Tmap_traits<int,std::list<CEventItem *,std::allocator<CEventItem *> > *,std::less<int>,std::allocator<std::pair<int const ,std::list<CEventItem *,std::allocator<CEventItem *> > *> >,0> >::_Max
; Function compile flags: /Ogty
; File c:\program files\microsoft visual studio .net 2003\vc7\include\xtree
;	COMDAT ?_Max@?$_Tree@V?$_Tmap_traits@HPAV?$list@PAVCEventItem@@V?$allocator@PAVCEventItem@@@std@@@std@@U?$less@H@2@V?$allocator@U?$pair@$$CBHPAV?$list@PAVCEventItem@@V?$allocator@PAVCEventItem@@@std@@@std@@@std@@@2@$0A@@std@@@std@@KAPAU_Node@?$_Tree_nod@V?$_Tmap_traits@HPAV?$list@PAVCEventItem@@V?$allocator@PAVCEventItem@@@std@@@std@@U?$less@H@2@V?$allocator@U?$pair@$$CBHPAV?$list@PAVCEventItem@@V?$allocator@PAVCEventItem@@@std@@@std@@@std@@@2@$0A@@std@@@2@PAU342@@Z
_TEXT	SEGMENT
__Pnode$ = 8						; size = 4
?_Max@?$_Tree@V?$_Tmap_traits@HPAV?$list@PAVCEventItem@@V?$allocator@PAVCEventItem@@@std@@@std@@U?$less@H@2@V?$allocator@U?$pair@$$CBHPAV?$list@PAVCEventItem@@V?$allocator@PAVCEventItem@@@std@@@std@@@std@@@2@$0A@@std@@@std@@KAPAU_Node@?$_Tree_nod@V?$_Tmap_traits@HPAV?$list@PAVCEventItem@@V?$allocator@PAVCEventItem@@@std@@@std@@U?$less@H@2@V?$allocator@U?$pair@$$CBHPAV?$list@PAVCEventItem@@V?$allocator@PAVCEventItem@@@std@@@std@@@std@@@2@$0A@@std@@@2@PAU342@@Z PROC NEAR ; std::_Tree<std::_Tmap_traits<int,std::list<CEventItem *,std::allocator<CEventItem *> > *,std::less<int>,std::allocator<std::pair<int const ,std::list<CEventItem *,std::allocator<CEventItem *> > *> >,0> >::_Max, COMDAT

; 1035 : 		while (!_Isnil(_Right(_Pnode)))

  00000	8b 44 24 04	 mov	 eax, DWORD PTR __Pnode$[esp-4]
  00004	8b 48 08	 mov	 ecx, DWORD PTR [eax+8]
  00007	8a 51 15	 mov	 dl, BYTE PTR [ecx+21]
  0000a	84 d2		 test	 dl, dl
  0000c	75 0e		 jne	 SHORT $L189609
  0000e	8b ff		 npad	 2
$L189608:

; 1036 : 			_Pnode = _Right(_Pnode);

  00010	8b c1		 mov	 eax, ecx
  00012	8b 48 08	 mov	 ecx, DWORD PTR [eax+8]
  00015	8a 51 15	 mov	 dl, BYTE PTR [ecx+21]
  00018	84 d2		 test	 dl, dl
  0001a	74 f4		 je	 SHORT $L189608
$L189609:

; 1037 : 		return (_Pnode);
; 1038 : 		}

  0001c	c3		 ret	 0
?_Max@?$_Tree@V?$_Tmap_traits@HPAV?$list@PAVCEventItem@@V?$allocator@PAVCEventItem@@@std@@@std@@U?$less@H@2@V?$allocator@U?$pair@$$CBHPAV?$list@PAVCEventItem@@V?$allocator@PAVCEventItem@@@std@@@std@@@std@@@2@$0A@@std@@@std@@KAPAU_Node@?$_Tree_nod@V?$_Tmap_traits@HPAV?$list@PAVCEventItem@@V?$allocator@PAVCEventItem@@@std@@@std@@U?$less@H@2@V?$allocator@U?$pair@$$CBHPAV?$list@PAVCEventItem@@V?$allocator@PAVCEventItem@@@std@@@std@@@std@@@2@$0A@@std@@@2@PAU342@@Z ENDP ; std::_Tree<std::_Tmap_traits<int,std::list<CEventItem *,std::allocator<CEventItem *> > *,std::less<int>,std::allocator<std::pair<int const ,std::list<CEventItem *,std::allocator<CEventItem *> > *> >,0> >::_Max
_TEXT	ENDS
PUBLIC	??0CTime@ATL@@QAE@HHHHHHH@Z			; ATL::CTime::CTime
EXTRN	__mktime64:NEAR
; Function compile flags: /Ogty
; File c:\program files\microsoft visual studio .net 2003\vc7\atlmfc\include\atltime.inl
;	COMDAT ??0CTime@ATL@@QAE@HHHHHHH@Z
_TEXT	SEGMENT
_atm$ = -36						; size = 36
_nYear$ = 8						; size = 4
_nMonth$ = 12						; size = 4
_nDay$ = 16						; size = 4
_nHour$ = 20						; size = 4
_nMin$ = 24						; size = 4
_nSec$ = 28						; size = 4
_nDST$ = 32						; size = 4
??0CTime@ATL@@QAE@HHHHHHH@Z PROC NEAR			; ATL::CTime::CTime, COMDAT
; _this$ = ecx

; 172  : {

  00000	83 ec 24	 sub	 esp, 36			; 00000024H

; 173  : 	struct tm atm;
; 174  : 	atm.tm_sec = nSec;

  00003	8b 44 24 3c	 mov	 eax, DWORD PTR _nSec$[esp+32]

; 175  : 	atm.tm_min = nMin;
; 176  : 	atm.tm_hour = nHour;

  00007	8b 54 24 34	 mov	 edx, DWORD PTR _nHour$[esp+32]
  0000b	56		 push	 esi
  0000c	8b f1		 mov	 esi, ecx
  0000e	8b 4c 24 3c	 mov	 ecx, DWORD PTR _nMin$[esp+36]
  00012	89 4c 24 08	 mov	 DWORD PTR _atm$[esp+44], ecx

; 177  : 	ATLASSERT(nDay >= 1 && nDay <= 31);
; 178  : 	atm.tm_mday = nDay;
; 179  : 	ATLASSERT(nMonth >= 1 && nMonth <= 12);
; 180  : 	atm.tm_mon = nMonth - 1;        // tm_mon is 0 based

  00016	8b 4c 24 30	 mov	 ecx, DWORD PTR _nMonth$[esp+36]
  0001a	89 44 24 04	 mov	 DWORD PTR _atm$[esp+40], eax
  0001e	8b 44 24 34	 mov	 eax, DWORD PTR _nDay$[esp+36]
  00022	49		 dec	 ecx
  00023	89 54 24 0c	 mov	 DWORD PTR _atm$[esp+48], edx

; 181  : 	ATLASSERT(nYear >= 1900);
; 182  : 	atm.tm_year = nYear - 1900;     // tm_year is 1900 based

  00027	8b 54 24 2c	 mov	 edx, DWORD PTR _nYear$[esp+36]
  0002b	89 4c 24 14	 mov	 DWORD PTR _atm$[esp+56], ecx
  0002f	89 44 24 10	 mov	 DWORD PTR _atm$[esp+52], eax

; 183  : 	atm.tm_isdst = nDST;

  00033	8b 44 24 44	 mov	 eax, DWORD PTR _nDST$[esp+36]

; 184  : 	m_time = _mktime64(&atm);

  00037	8d 4c 24 04	 lea	 ecx, DWORD PTR _atm$[esp+40]
  0003b	81 c2 94 f8 ff
	ff		 add	 edx, -1900		; fffff894H
  00041	51		 push	 ecx
  00042	89 54 24 1c	 mov	 DWORD PTR _atm$[esp+64], edx
  00046	89 44 24 28	 mov	 DWORD PTR _atm$[esp+76], eax
  0004a	e8 00 00 00 00	 call	 __mktime64
  0004f	89 56 04	 mov	 DWORD PTR [esi+4], edx

; 185  : 	ATLASSERT(m_time != -1);       // indicates an illegal input time
; 186  : 	
; 187  : 	if(m_time == -1)

  00052	8b 4e 04	 mov	 ecx, DWORD PTR [esi+4]
  00055	8b d0		 mov	 edx, eax
  00057	23 d1		 and	 edx, ecx
  00059	83 c4 04	 add	 esp, 4
  0005c	83 fa ff	 cmp	 edx, -1
  0005f	89 06		 mov	 DWORD PTR [esi], eax
  00061	75 0a		 jne	 SHORT $L42610

; 188  : 		AtlThrow(E_INVALIDARG);

  00063	68 57 00 07 80	 push	 -2147024809		; 80070057H
  00068	e8 00 00 00 00	 call	 ?AtlThrow@ATL@@YGXJ@Z	; ATL::AtlThrow
$L42610:

; 189  : }

  0006d	8b c6		 mov	 eax, esi
  0006f	5e		 pop	 esi
  00070	83 c4 24	 add	 esp, 36			; 00000024H
  00073	c2 1c 00	 ret	 28			; 0000001cH
$L190433:
??0CTime@ATL@@QAE@HHHHHHH@Z ENDP			; ATL::CTime::CTime
_TEXT	ENDS
PUBLIC	?max_size@?$allocator@PAVCEventItem@@@std@@QBEIXZ ; std::allocator<CEventItem *>::max_size
; Function compile flags: /Ogty
; File c:\program files\microsoft visual studio .net 2003\vc7\include\xmemory
;	COMDAT ?max_size@?$allocator@PAVCEventItem@@@std@@QBEIXZ
_TEXT	SEGMENT
?max_size@?$allocator@PAVCEventItem@@@std@@QBEIXZ PROC NEAR ; std::allocator<CEventItem *>::max_size, COMDAT
; _this$ = ecx

; 157  : 		_SIZT _Count = (_SIZT)(-1) / sizeof (_Ty);
; 158  : 		return (0 < _Count ? _Count : 1);

  00000	b8 ff ff ff 3f	 mov	 eax, 1073741823		; 3fffffffH

; 159  : 		}

  00005	c3		 ret	 0
?max_size@?$allocator@PAVCEventItem@@@std@@QBEIXZ ENDP	; std::allocator<CEventItem *>::max_size
_TEXT	ENDS
PUBLIC	??0?$_Tmap_traits@HPAV?$list@PAVCEventItem@@V?$allocator@PAVCEventItem@@@std@@@std@@U?$less@H@2@V?$allocator@U?$pair@$$CBHPAV?$list@PAVCEventItem@@V?$allocator@PAVCEventItem@@@std@@@std@@@std@@@2@$0A@@std@@QAE@U?$less@H@1@@Z ; std::_Tmap_traits<int,std::list<CEventItem *,std::allocator<CEventItem *> > *,std::less<int>,std::allocator<std::pair<int const ,std::list<CEventItem *,std::allocator<CEventItem *> > *> >,0>::_Tmap_traits<int,std::list<CEventItem *,std::allocator<CEventItem *> > *,std::less<int>,std::allocator<std::pair<int const ,std::list<CEventItem *,std::allocator<CEventItem *> > *> >,0>
; Function compile flags: /Ogty
; File c:\program files\microsoft visual studio .net 2003\vc7\include\map
;	COMDAT ??0?$_Tmap_traits@HPAV?$list@PAVCEventItem@@V?$allocator@PAVCEventItem@@@std@@@std@@U?$less@H@2@V?$allocator@U?$pair@$$CBHPAV?$list@PAVCEventItem@@V?$allocator@PAVCEventItem@@@std@@@std@@@std@@@2@$0A@@std@@QAE@U?$less@H@1@@Z
_TEXT	SEGMENT
__Parg$ = 8						; size = 1
??0?$_Tmap_traits@HPAV?$list@PAVCEventItem@@V?$allocator@PAVCEventItem@@@std@@@std@@U?$less@H@2@V?$allocator@U?$pair@$$CBHPAV?$list@PAVCEventItem@@V?$allocator@PAVCEventItem@@@std@@@std@@@std@@@2@$0A@@std@@QAE@U?$less@H@1@@Z PROC NEAR ; std::_Tmap_traits<int,std::list<CEventItem *,std::allocator<CEventItem *> > *,std::less<int>,std::allocator<std::pair<int const ,std::list<CEventItem *,std::allocator<CEventItem *> > *> >,0>::_Tmap_traits<int,std::list<CEventItem *,std::allocator<CEventItem *> > *,std::less<int>,std::allocator<std::pair<int const ,std::list<CEventItem *,std::allocator<CEventItem *> > *> >,0>, COMDAT
; _this$ = ecx

; 38   : 		{	// construct with specified comparator

  00000	8b c1		 mov	 eax, ecx

; 39   : 		}

  00002	c2 04 00	 ret	 4
??0?$_Tmap_traits@HPAV?$list@PAVCEventItem@@V?$allocator@PAVCEventItem@@@std@@@std@@U?$less@H@2@V?$allocator@U?$pair@$$CBHPAV?$list@PAVCEventItem@@V?$allocator@PAVCEventItem@@@std@@@std@@@std@@@2@$0A@@std@@QAE@U?$less@H@1@@Z ENDP ; std::_Tmap_traits<int,std::list<CEventItem *,std::allocator<CEventItem *> > *,std::less<int>,std::allocator<std::pair<int const ,std::list<CEventItem *,std::allocator<CEventItem *> > *> >,0>::_Tmap_traits<int,std::list<CEventItem *,std::allocator<CEventItem *> > *,std::less<int>,std::allocator<std::pair<int const ,std::list<CEventItem *,std::allocator<CEventItem *> > *> >,0>
_TEXT	ENDS
PUBLIC	??$_Destroy@U_Node@?$_List_nod@PAU_EVENT_GENERIC@@V?$allocator@PAU_EVENT_GENERIC@@@std@@@std@@@std@@YAXPAU_Node@?$_List_nod@PAU_EVENT_GENERIC@@V?$allocator@PAU_EVENT_GENERIC@@@std@@@0@@Z ; std::_Destroy<std::_List_nod<_EVENT_GENERIC *,std::allocator<_EVENT_GENERIC *> >::_Node>
; Function compile flags: /Ogty
; File c:\program files\microsoft visual studio .net 2003\vc7\include\xmemory
;	COMDAT ??$_Destroy@U_Node@?$_List_nod@PAU_EVENT_GENERIC@@V?$allocator@PAU_EVENT_GENERIC@@@std@@@std@@@std@@YAXPAU_Node@?$_List_nod@PAU_EVENT_GENERIC@@V?$allocator@PAU_EVENT_GENERIC@@@std@@@0@@Z
_TEXT	SEGMENT
__Ptr$ = 8						; size = 4
??$_Destroy@U_Node@?$_List_nod@PAU_EVENT_GENERIC@@V?$allocator@PAU_EVENT_GENERIC@@@std@@@std@@@std@@YAXPAU_Node@?$_List_nod@PAU_EVENT_GENERIC@@V?$allocator@PAU_EVENT_GENERIC@@@std@@@0@@Z PROC NEAR ; std::_Destroy<std::_List_nod<_EVENT_GENERIC *,std::allocator<_EVENT_GENERIC *> >::_Node>, COMDAT

; 49   : 	_DESTRUCTOR(_Ty, _Ptr);
; 50   : 	}

  00000	c3		 ret	 0
??$_Destroy@U_Node@?$_List_nod@PAU_EVENT_GENERIC@@V?$allocator@PAU_EVENT_GENERIC@@@std@@@std@@@std@@YAXPAU_Node@?$_List_nod@PAU_EVENT_GENERIC@@V?$allocator@PAU_EVENT_GENERIC@@@std@@@0@@Z ENDP ; std::_Destroy<std::_List_nod<_EVENT_GENERIC *,std::allocator<_EVENT_GENERIC *> >::_Node>
_TEXT	ENDS
PUBLIC	??$_Destroy@U_Node@?$_List_nod@PAVCEventItem@@V?$allocator@PAVCEventItem@@@std@@@std@@@std@@YAXPAU_Node@?$_List_nod@PAVCEventItem@@V?$allocator@PAVCEventItem@@@std@@@0@@Z ; std::_Destroy<std::_List_nod<CEventItem *,std::allocator<CEventItem *> >::_Node>
; Function compile flags: /Ogty
;	COMDAT ??$_Destroy@U_Node@?$_List_nod@PAVCEventItem@@V?$allocator@PAVCEventItem@@@std@@@std@@@std@@YAXPAU_Node@?$_List_nod@PAVCEventItem@@V?$allocator@PAVCEventItem@@@std@@@0@@Z
_TEXT	SEGMENT
__Ptr$ = 8						; size = 4
??$_Destroy@U_Node@?$_List_nod@PAVCEventItem@@V?$allocator@PAVCEventItem@@@std@@@std@@@std@@YAXPAU_Node@?$_List_nod@PAVCEventItem@@V?$allocator@PAVCEventItem@@@std@@@0@@Z PROC NEAR ; std::_Destroy<std::_List_nod<CEventItem *,std::allocator<CEventItem *> >::_Node>, COMDAT

; 49   : 	_DESTRUCTOR(_Ty, _Ptr);
; 50   : 	}

  00000	c3		 ret	 0
??$_Destroy@U_Node@?$_List_nod@PAVCEventItem@@V?$allocator@PAVCEventItem@@@std@@@std@@@std@@YAXPAU_Node@?$_List_nod@PAVCEventItem@@V?$allocator@PAVCEventItem@@@std@@@0@@Z ENDP ; std::_Destroy<std::_List_nod<CEventItem *,std::allocator<CEventItem *> >::_Node>
_TEXT	ENDS
PUBLIC	??$?0PAU_EVENT_GENERIC@@@?$allocator@PAU_Node@?$_List_nod@PAU_EVENT_GENERIC@@V?$allocator@PAU_EVENT_GENERIC@@@std@@@std@@@std@@QAE@ABV?$allocator@PAU_EVENT_GENERIC@@@1@@Z ; std::allocator<std::_List_nod<_EVENT_GENERIC *,std::allocator<_EVENT_GENERIC *> >::_Node *>::allocator<std::_List_nod<_EVENT_GENERIC *,std::allocator<_EVENT_GENERIC *> >::_Node *><_EVENT_GENERIC *>
; Function compile flags: /Ogty
;	COMDAT ??$?0PAU_EVENT_GENERIC@@@?$allocator@PAU_Node@?$_List_nod@PAU_EVENT_GENERIC@@V?$allocator@PAU_EVENT_GENERIC@@@std@@@std@@@std@@QAE@ABV?$allocator@PAU_EVENT_GENERIC@@@1@@Z
_TEXT	SEGMENT
___formal$ = 8						; size = 4
??$?0PAU_EVENT_GENERIC@@@?$allocator@PAU_Node@?$_List_nod@PAU_EVENT_GENERIC@@V?$allocator@PAU_EVENT_GENERIC@@@std@@@std@@@std@@QAE@ABV?$allocator@PAU_EVENT_GENERIC@@@1@@Z PROC NEAR ; std::allocator<std::_List_nod<_EVENT_GENERIC *,std::allocator<_EVENT_GENERIC *> >::_Node *>::allocator<std::_List_nod<_EVENT_GENERIC *,std::allocator<_EVENT_GENERIC *> >::_Node *><_EVENT_GENERIC *>, COMDAT
; _this$ = ecx

; 120  : 		allocator(const allocator<_Other>&)

  00000	8b c1		 mov	 eax, ecx

; 121  : 		{	// construct from a related allocator (do nothing)
; 122  : 		}

  00002	c2 04 00	 ret	 4
??$?0PAU_EVENT_GENERIC@@@?$allocator@PAU_Node@?$_List_nod@PAU_EVENT_GENERIC@@V?$allocator@PAU_EVENT_GENERIC@@@std@@@std@@@std@@QAE@ABV?$allocator@PAU_EVENT_GENERIC@@@1@@Z ENDP ; std::allocator<std::_List_nod<_EVENT_GENERIC *,std::allocator<_EVENT_GENERIC *> >::_Node *>::allocator<std::_List_nod<_EVENT_GENERIC *,std::allocator<_EVENT_GENERIC *> >::_Node *><_EVENT_GENERIC *>
_TEXT	ENDS
PUBLIC	??$_Allocate@U_Node@?$_List_nod@PAU_EVENT_GENERIC@@V?$allocator@PAU_EVENT_GENERIC@@@std@@@std@@@std@@YAPAU_Node@?$_List_nod@PAU_EVENT_GENERIC@@V?$allocator@PAU_EVENT_GENERIC@@@std@@@0@IPAU120@@Z ; std::_Allocate<std::_List_nod<_EVENT_GENERIC *,std::allocator<_EVENT_GENERIC *> >::_Node>
EXTRN	??2@YAPAXI@Z:NEAR				; operator new
; Function compile flags: /Ogty
;	COMDAT ??$_Allocate@U_Node@?$_List_nod@PAU_EVENT_GENERIC@@V?$allocator@PAU_EVENT_GENERIC@@@std@@@std@@@std@@YAPAU_Node@?$_List_nod@PAU_EVENT_GENERIC@@V?$allocator@PAU_EVENT_GENERIC@@@std@@@0@IPAU120@@Z
_TEXT	SEGMENT
__Count$ = 8						; size = 4
___formal$ = 12						; size = 4
??$_Allocate@U_Node@?$_List_nod@PAU_EVENT_GENERIC@@V?$allocator@PAU_EVENT_GENERIC@@@std@@@std@@@std@@YAPAU_Node@?$_List_nod@PAU_EVENT_GENERIC@@V?$allocator@PAU_EVENT_GENERIC@@@std@@@0@IPAU120@@Z PROC NEAR ; std::_Allocate<std::_List_nod<_EVENT_GENERIC *,std::allocator<_EVENT_GENERIC *> >::_Node>, COMDAT

; 34   : 	return ((_Ty _FARQ *)operator new(_Count * sizeof (_Ty)));

  00000	8b 44 24 04	 mov	 eax, DWORD PTR __Count$[esp-4]
  00004	8d 04 40	 lea	 eax, DWORD PTR [eax+eax*2]
  00007	c1 e0 02	 shl	 eax, 2
  0000a	50		 push	 eax
  0000b	e8 00 00 00 00	 call	 ??2@YAPAXI@Z		; operator new
  00010	83 c4 04	 add	 esp, 4

; 35   : 	}

  00013	c3		 ret	 0
??$_Allocate@U_Node@?$_List_nod@PAU_EVENT_GENERIC@@V?$allocator@PAU_EVENT_GENERIC@@@std@@@std@@@std@@YAPAU_Node@?$_List_nod@PAU_EVENT_GENERIC@@V?$allocator@PAU_EVENT_GENERIC@@@std@@@0@IPAU120@@Z ENDP ; std::_Allocate<std::_List_nod<_EVENT_GENERIC *,std::allocator<_EVENT_GENERIC *> >::_Node>
_TEXT	ENDS
PUBLIC	??$_Construct@PAU_Node@?$_List_nod@PAU_EVENT_GENERIC@@V?$allocator@PAU_EVENT_GENERIC@@@std@@@std@@PAU123@@std@@YAXPAPAU_Node@?$_List_nod@PAU_EVENT_GENERIC@@V?$allocator@PAU_EVENT_GENERIC@@@std@@@0@ABQAU120@@Z ; std::_Construct<std::_List_nod<_EVENT_GENERIC *,std::allocator<_EVENT_GENERIC *> >::_Node *,std::_List_nod<_EVENT_GENERIC *,std::allocator<_EVENT_GENERIC *> >::_Node *>
; Function compile flags: /Ogty
;	COMDAT ??$_Construct@PAU_Node@?$_List_nod@PAU_EVENT_GENERIC@@V?$allocator@PAU_EVENT_GENERIC@@@std@@@std@@PAU123@@std@@YAXPAPAU_Node@?$_List_nod@PAU_EVENT_GENERIC@@V?$allocator@PAU_EVENT_GENERIC@@@std@@@0@ABQAU120@@Z
_TEXT	SEGMENT
__Ptr$ = 8						; size = 4
__Val$ = 12						; size = 4
??$_Construct@PAU_Node@?$_List_nod@PAU_EVENT_GENERIC@@V?$allocator@PAU_EVENT_GENERIC@@@std@@@std@@PAU123@@std@@YAXPAPAU_Node@?$_List_nod@PAU_EVENT_GENERIC@@V?$allocator@PAU_EVENT_GENERIC@@@std@@@0@ABQAU120@@Z PROC NEAR ; std::_Construct<std::_List_nod<_EVENT_GENERIC *,std::allocator<_EVENT_GENERIC *> >::_Node *,std::_List_nod<_EVENT_GENERIC *,std::allocator<_EVENT_GENERIC *> >::_Node *>, COMDAT

; 42   : 	new ((void _FARQ *)_Ptr) _T1(_Val);

  00000	8b 44 24 04	 mov	 eax, DWORD PTR __Ptr$[esp-4]
  00004	85 c0		 test	 eax, eax
  00006	74 08		 je	 SHORT $L190451
  00008	8b 4c 24 08	 mov	 ecx, DWORD PTR __Val$[esp-4]
  0000c	8b 11		 mov	 edx, DWORD PTR [ecx]
  0000e	89 10		 mov	 DWORD PTR [eax], edx
$L190451:

; 43   : 	}

  00010	c3		 ret	 0
??$_Construct@PAU_Node@?$_List_nod@PAU_EVENT_GENERIC@@V?$allocator@PAU_EVENT_GENERIC@@@std@@@std@@PAU123@@std@@YAXPAPAU_Node@?$_List_nod@PAU_EVENT_GENERIC@@V?$allocator@PAU_EVENT_GENERIC@@@std@@@0@ABQAU120@@Z ENDP ; std::_Construct<std::_List_nod<_EVENT_GENERIC *,std::allocator<_EVENT_GENERIC *> >::_Node *,std::_List_nod<_EVENT_GENERIC *,std::allocator<_EVENT_GENERIC *> >::_Node *>
_TEXT	ENDS
PUBLIC	??$_Destroy@PAU_Node@?$_List_nod@PAU_EVENT_GENERIC@@V?$allocator@PAU_EVENT_GENERIC@@@std@@@std@@@std@@YAXPAPAU_Node@?$_List_nod@PAU_EVENT_GENERIC@@V?$allocator@PAU_EVENT_GENERIC@@@std@@@0@@Z ; std::_Destroy<std::_List_nod<_EVENT_GENERIC *,std::allocator<_EVENT_GENERIC *> >::_Node *>
; Function compile flags: /Ogty
;	COMDAT ??$_Destroy@PAU_Node@?$_List_nod@PAU_EVENT_GENERIC@@V?$allocator@PAU_EVENT_GENERIC@@@std@@@std@@@std@@YAXPAPAU_Node@?$_List_nod@PAU_EVENT_GENERIC@@V?$allocator@PAU_EVENT_GENERIC@@@std@@@0@@Z
_TEXT	SEGMENT
__Ptr$ = 8						; size = 4
??$_Destroy@PAU_Node@?$_List_nod@PAU_EVENT_GENERIC@@V?$allocator@PAU_EVENT_GENERIC@@@std@@@std@@@std@@YAXPAPAU_Node@?$_List_nod@PAU_EVENT_GENERIC@@V?$allocator@PAU_EVENT_GENERIC@@@std@@@0@@Z PROC NEAR ; std::_Destroy<std::_List_nod<_EVENT_GENERIC *,std::allocator<_EVENT_GENERIC *> >::_Node *>, COMDAT

; 49   : 	_DESTRUCTOR(_Ty, _Ptr);
; 50   : 	}

  00000	c3		 ret	 0
??$_Destroy@PAU_Node@?$_List_nod@PAU_EVENT_GENERIC@@V?$allocator@PAU_EVENT_GENERIC@@@std@@@std@@@std@@YAXPAPAU_Node@?$_List_nod@PAU_EVENT_GENERIC@@V?$allocator@PAU_EVENT_GENERIC@@@std@@@0@@Z ENDP ; std::_Destroy<std::_List_nod<_EVENT_GENERIC *,std::allocator<_EVENT_GENERIC *> >::_Node *>
_TEXT	ENDS
PUBLIC	??$_Destroy@U_Node@?$_Tree_nod@V?$_Tmap_traits@HPAV?$list@PAVCEventItem@@V?$allocator@PAVCEventItem@@@std@@@std@@U?$less@H@2@V?$allocator@U?$pair@$$CBHPAV?$list@PAVCEventItem@@V?$allocator@PAVCEventItem@@@std@@@std@@@std@@@2@$0A@@std@@@std@@@std@@YAXPAU_Node@?$_Tree_nod@V?$_Tmap_traits@HPAV?$list@PAVCEventItem@@V?$allocator@PAVCEventItem@@@std@@@std@@U?$less@H@2@V?$allocator@U?$pair@$$CBHPAV?$list@PAVCEventItem@@V?$allocator@PAVCEventItem@@@std@@@std@@@std@@@2@$0A@@std@@@0@@Z ; std::_Destroy<std::_Tree_nod<std::_Tmap_traits<int,std::list<CEventItem *,std::allocator<CEventItem *> > *,std::less<int>,std::allocator<std::pair<int const ,std::list<CEventItem *,std::allocator<CEventItem *> > *> >,0> >::_Node>
; Function compile flags: /Ogty
;	COMDAT ??$_Destroy@U_Node@?$_Tree_nod@V?$_Tmap_traits@HPAV?$list@PAVCEventItem@@V?$allocator@PAVCEventItem@@@std@@@std@@U?$less@H@2@V?$allocator@U?$pair@$$CBHPAV?$list@PAVCEventItem@@V?$allocator@PAVCEventItem@@@std@@@std@@@std@@@2@$0A@@std@@@std@@@std@@YAXPAU_Node@?$_Tree_nod@V?$_Tmap_traits@HPAV?$list@PAVCEventItem@@V?$allocator@PAVCEventItem@@@std@@@std@@U?$less@H@2@V?$allocator@U?$pair@$$CBHPAV?$list@PAVCEventItem@@V?$allocator@PAVCEventItem@@@std@@@std@@@std@@@2@$0A@@std@@@0@@Z
_TEXT	SEGMENT
__Ptr$ = 8						; size = 4
??$_Destroy@U_Node@?$_Tree_nod@V?$_Tmap_traits@HPAV?$list@PAVCEventItem@@V?$allocator@PAVCEventItem@@@std@@@std@@U?$less@H@2@V?$allocator@U?$pair@$$CBHPAV?$list@PAVCEventItem@@V?$allocator@PAVCEventItem@@@std@@@std@@@std@@@2@$0A@@std@@@std@@@std@@YAXPAU_Node@?$_Tree_nod@V?$_Tmap_traits@HPAV?$list@PAVCEventItem@@V?$allocator@PAVCEventItem@@@std@@@std@@U?$less@H@2@V?$allocator@U?$pair@$$CBHPAV?$list@PAVCEventItem@@V?$allocator@PAVCEventItem@@@std@@@std@@@std@@@2@$0A@@std@@@0@@Z PROC NEAR ; std::_Destroy<std::_Tree_nod<std::_Tmap_traits<int,std::list<CEventItem *,std::allocator<CEventItem *> > *,std::less<int>,std::allocator<std::pair<int const ,std::list<CEventItem *,std::allocator<CEventItem *> > *> >,0> >::_Node>, COMDAT

; 49   : 	_DESTRUCTOR(_Ty, _Ptr);
; 50   : 	}

  00000	c3		 ret	 0
??$_Destroy@U_Node@?$_Tree_nod@V?$_Tmap_traits@HPAV?$list@PAVCEventItem@@V?$allocator@PAVCEventItem@@@std@@@std@@U?$less@H@2@V?$allocator@U?$pair@$$CBHPAV?$list@PAVCEventItem@@V?$allocator@PAVCEventItem@@@std@@@std@@@std@@@2@$0A@@std@@@std@@@std@@YAXPAU_Node@?$_Tree_nod@V?$_Tmap_traits@HPAV?$list@PAVCEventItem@@V?$allocator@PAVCEventItem@@@std@@@std@@U?$less@H@2@V?$allocator@U?$pair@$$CBHPAV?$list@PAVCEventItem@@V?$allocator@PAVCEventItem@@@std@@@std@@@std@@@2@$0A@@std@@@0@@Z ENDP ; std::_Destroy<std::_Tree_nod<std::_Tmap_traits<int,std::list<CEventItem *,std::allocator<CEventItem *> > *,std::less<int>,std::allocator<std::pair<int const ,std::list<CEventItem *,std::allocator<CEventItem *> > *> >,0> >::_Node>
_TEXT	ENDS
PUBLIC	??$_Destroy@PAU_Node@?$_Tree_nod@V?$_Tmap_traits@HPAV?$list@PAVCEventItem@@V?$allocator@PAVCEventItem@@@std@@@std@@U?$less@H@2@V?$allocator@U?$pair@$$CBHPAV?$list@PAVCEventItem@@V?$allocator@PAVCEventItem@@@std@@@std@@@std@@@2@$0A@@std@@@std@@@std@@YAXPAPAU_Node@?$_Tree_nod@V?$_Tmap_traits@HPAV?$list@PAVCEventItem@@V?$allocator@PAVCEventItem@@@std@@@std@@U?$less@H@2@V?$allocator@U?$pair@$$CBHPAV?$list@PAVCEventItem@@V?$allocator@PAVCEventItem@@@std@@@std@@@std@@@2@$0A@@std@@@0@@Z ; std::_Destroy<std::_Tree_nod<std::_Tmap_traits<int,std::list<CEventItem *,std::allocator<CEventItem *> > *,std::less<int>,std::allocator<std::pair<int const ,std::list<CEventItem *,std::allocator<CEventItem *> > *> >,0> >::_Node *>
; Function compile flags: /Ogty
;	COMDAT ??$_Destroy@PAU_Node@?$_Tree_nod@V?$_Tmap_traits@HPAV?$list@PAVCEventItem@@V?$allocator@PAVCEventItem@@@std@@@std@@U?$less@H@2@V?$allocator@U?$pair@$$CBHPAV?$list@PAVCEventItem@@V?$allocator@PAVCEventItem@@@std@@@std@@@std@@@2@$0A@@std@@@std@@@std@@YAXPAPAU_Node@?$_Tree_nod@V?$_Tmap_traits@HPAV?$list@PAVCEventItem@@V?$allocator@PAVCEventItem@@@std@@@std@@U?$less@H@2@V?$allocator@U?$pair@$$CBHPAV?$list@PAVCEventItem@@V?$allocator@PAVCEventItem@@@std@@@std@@@std@@@2@$0A@@std@@@0@@Z
_TEXT	SEGMENT
__Ptr$ = 8						; size = 4
??$_Destroy@PAU_Node@?$_Tree_nod@V?$_Tmap_traits@HPAV?$list@PAVCEventItem@@V?$allocator@PAVCEventItem@@@std@@@std@@U?$less@H@2@V?$allocator@U?$pair@$$CBHPAV?$list@PAVCEventItem@@V?$allocator@PAVCEventItem@@@std@@@std@@@std@@@2@$0A@@std@@@std@@@std@@YAXPAPAU_Node@?$_Tree_nod@V?$_Tmap_traits@HPAV?$list@PAVCEventItem@@V?$allocator@PAVCEventItem@@@std@@@std@@U?$less@H@2@V?$allocator@U?$pair@$$CBHPAV?$list@PAVCEventItem@@V?$allocator@PAVCEventItem@@@std@@@std@@@std@@@2@$0A@@std@@@0@@Z PROC NEAR ; std::_Destroy<std::_Tree_nod<std::_Tmap_traits<int,std::list<CEventItem *,std::allocator<CEventItem *> > *,std::less<int>,std::allocator<std::pair<int const ,std::list<CEventItem *,std::allocator<CEventItem *> > *> >,0> >::_Node *>, COMDAT

; 49   : 	_DESTRUCTOR(_Ty, _Ptr);
; 50   : 	}

  00000	c3		 ret	 0
??$_Destroy@PAU_Node@?$_Tree_nod@V?$_Tmap_traits@HPAV?$list@PAVCEventItem@@V?$allocator@PAVCEventItem@@@std@@@std@@U?$less@H@2@V?$allocator@U?$pair@$$CBHPAV?$list@PAVCEventItem@@V?$allocator@PAVCEventItem@@@std@@@std@@@std@@@2@$0A@@std@@@std@@@std@@YAXPAPAU_Node@?$_Tree_nod@V?$_Tmap_traits@HPAV?$list@PAVCEventItem@@V?$allocator@PAVCEventItem@@@std@@@std@@U?$less@H@2@V?$allocator@U?$pair@$$CBHPAV?$list@PAVCEventItem@@V?$allocator@PAVCEventItem@@@std@@@std@@@std@@@2@$0A@@std@@@0@@Z ENDP ; std::_Destroy<std::_Tree_nod<std::_Tmap_traits<int,std::list<CEventItem *,std::allocator<CEventItem *> > *,std::less<int>,std::allocator<std::pair<int const ,std::list<CEventItem *,std::allocator<CEventItem *> > *> >,0> >::_Node *>
_TEXT	ENDS
PUBLIC	??$?0PAVCEventItem@@@?$allocator@PAU_Node@?$_List_nod@PAVCEventItem@@V?$allocator@PAVCEventItem@@@std@@@std@@@std@@QAE@ABV?$allocator@PAVCEventItem@@@1@@Z ; std::allocator<std::_List_nod<CEventItem *,std::allocator<CEventItem *> >::_Node *>::allocator<std::_List_nod<CEventItem *,std::allocator<CEventItem *> >::_Node *><CEventItem *>
; Function compile flags: /Ogty
;	COMDAT ??$?0PAVCEventItem@@@?$allocator@PAU_Node@?$_List_nod@PAVCEventItem@@V?$allocator@PAVCEventItem@@@std@@@std@@@std@@QAE@ABV?$allocator@PAVCEventItem@@@1@@Z
_TEXT	SEGMENT
___formal$ = 8						; size = 4
??$?0PAVCEventItem@@@?$allocator@PAU_Node@?$_List_nod@PAVCEventItem@@V?$allocator@PAVCEventItem@@@std@@@std@@@std@@QAE@ABV?$allocator@PAVCEventItem@@@1@@Z PROC NEAR ; std::allocator<std::_List_nod<CEventItem *,std::allocator<CEventItem *> >::_Node *>::allocator<std::_List_nod<CEventItem *,std::allocator<CEventItem *> >::_Node *><CEventItem *>, COMDAT
; _this$ = ecx

; 120  : 		allocator(const allocator<_Other>&)

  00000	8b c1		 mov	 eax, ecx

; 121  : 		{	// construct from a related allocator (do nothing)
; 122  : 		}

  00002	c2 04 00	 ret	 4
??$?0PAVCEventItem@@@?$allocator@PAU_Node@?$_List_nod@PAVCEventItem@@V?$allocator@PAVCEventItem@@@std@@@std@@@std@@QAE@ABV?$allocator@PAVCEventItem@@@1@@Z ENDP ; std::allocator<std::_List_nod<CEventItem *,std::allocator<CEventItem *> >::_Node *>::allocator<std::_List_nod<CEventItem *,std::allocator<CEventItem *> >::_Node *><CEventItem *>
_TEXT	ENDS
PUBLIC	??$_Allocate@U_Node@?$_List_nod@PAVCEventItem@@V?$allocator@PAVCEventItem@@@std@@@std@@@std@@YAPAU_Node@?$_List_nod@PAVCEventItem@@V?$allocator@PAVCEventItem@@@std@@@0@IPAU120@@Z ; std::_Allocate<std::_List_nod<CEventItem *,std::allocator<CEventItem *> >::_Node>
; Function compile flags: /Ogty
;	COMDAT ??$_Allocate@U_Node@?$_List_nod@PAVCEventItem@@V?$allocator@PAVCEventItem@@@std@@@std@@@std@@YAPAU_Node@?$_List_nod@PAVCEventItem@@V?$allocator@PAVCEventItem@@@std@@@0@IPAU120@@Z
_TEXT	SEGMENT
__Count$ = 8						; size = 4
___formal$ = 12						; size = 4
??$_Allocate@U_Node@?$_List_nod@PAVCEventItem@@V?$allocator@PAVCEventItem@@@std@@@std@@@std@@YAPAU_Node@?$_List_nod@PAVCEventItem@@V?$allocator@PAVCEventItem@@@std@@@0@IPAU120@@Z PROC NEAR ; std::_Allocate<std::_List_nod<CEventItem *,std::allocator<CEventItem *> >::_Node>, COMDAT

; 34   : 	return ((_Ty _FARQ *)operator new(_Count * sizeof (_Ty)));

  00000	8b 44 24 04	 mov	 eax, DWORD PTR __Count$[esp-4]
  00004	8d 04 40	 lea	 eax, DWORD PTR [eax+eax*2]
  00007	c1 e0 02	 shl	 eax, 2
  0000a	50		 push	 eax
  0000b	e8 00 00 00 00	 call	 ??2@YAPAXI@Z		; operator new
  00010	83 c4 04	 add	 esp, 4

; 35   : 	}

  00013	c3		 ret	 0
??$_Allocate@U_Node@?$_List_nod@PAVCEventItem@@V?$allocator@PAVCEventItem@@@std@@@std@@@std@@YAPAU_Node@?$_List_nod@PAVCEventItem@@V?$allocator@PAVCEventItem@@@std@@@0@IPAU120@@Z ENDP ; std::_Allocate<std::_List_nod<CEventItem *,std::allocator<CEventItem *> >::_Node>
_TEXT	ENDS
PUBLIC	??$_Construct@PAU_Node@?$_List_nod@PAVCEventItem@@V?$allocator@PAVCEventItem@@@std@@@std@@PAU123@@std@@YAXPAPAU_Node@?$_List_nod@PAVCEventItem@@V?$allocator@PAVCEventItem@@@std@@@0@ABQAU120@@Z ; std::_Construct<std::_List_nod<CEventItem *,std::allocator<CEventItem *> >::_Node *,std::_List_nod<CEventItem *,std::allocator<CEventItem *> >::_Node *>
; Function compile flags: /Ogty
;	COMDAT ??$_Construct@PAU_Node@?$_List_nod@PAVCEventItem@@V?$allocator@PAVCEventItem@@@std@@@std@@PAU123@@std@@YAXPAPAU_Node@?$_List_nod@PAVCEventItem@@V?$allocator@PAVCEventItem@@@std@@@0@ABQAU120@@Z
_TEXT	SEGMENT
__Ptr$ = 8						; size = 4
__Val$ = 12						; size = 4
??$_Construct@PAU_Node@?$_List_nod@PAVCEventItem@@V?$allocator@PAVCEventItem@@@std@@@std@@PAU123@@std@@YAXPAPAU_Node@?$_List_nod@PAVCEventItem@@V?$allocator@PAVCEventItem@@@std@@@0@ABQAU120@@Z PROC NEAR ; std::_Construct<std::_List_nod<CEventItem *,std::allocator<CEventItem *> >::_Node *,std::_List_nod<CEventItem *,std::allocator<CEventItem *> >::_Node *>, COMDAT

; 42   : 	new ((void _FARQ *)_Ptr) _T1(_Val);

  00000	8b 44 24 04	 mov	 eax, DWORD PTR __Ptr$[esp-4]
  00004	85 c0		 test	 eax, eax
  00006	74 08		 je	 SHORT $L190469
  00008	8b 4c 24 08	 mov	 ecx, DWORD PTR __Val$[esp-4]
  0000c	8b 11		 mov	 edx, DWORD PTR [ecx]
  0000e	89 10		 mov	 DWORD PTR [eax], edx
$L190469:

; 43   : 	}

  00010	c3		 ret	 0
??$_Construct@PAU_Node@?$_List_nod@PAVCEventItem@@V?$allocator@PAVCEventItem@@@std@@@std@@PAU123@@std@@YAXPAPAU_Node@?$_List_nod@PAVCEventItem@@V?$allocator@PAVCEventItem@@@std@@@0@ABQAU120@@Z ENDP ; std::_Construct<std::_List_nod<CEventItem *,std::allocator<CEventItem *> >::_Node *,std::_List_nod<CEventItem *,std::allocator<CEventItem *> >::_Node *>
_TEXT	ENDS
PUBLIC	??$_Destroy@PAU_Node@?$_List_nod@PAVCEventItem@@V?$allocator@PAVCEventItem@@@std@@@std@@@std@@YAXPAPAU_Node@?$_List_nod@PAVCEventItem@@V?$allocator@PAVCEventItem@@@std@@@0@@Z ; std::_Destroy<std::_List_nod<CEventItem *,std::allocator<CEventItem *> >::_Node *>
; Function compile flags: /Ogty
;	COMDAT ??$_Destroy@PAU_Node@?$_List_nod@PAVCEventItem@@V?$allocator@PAVCEventItem@@@std@@@std@@@std@@YAXPAPAU_Node@?$_List_nod@PAVCEventItem@@V?$allocator@PAVCEventItem@@@std@@@0@@Z
_TEXT	SEGMENT
__Ptr$ = 8						; size = 4
??$_Destroy@PAU_Node@?$_List_nod@PAVCEventItem@@V?$allocator@PAVCEventItem@@@std@@@std@@@std@@YAXPAPAU_Node@?$_List_nod@PAVCEventItem@@V?$allocator@PAVCEventItem@@@std@@@0@@Z PROC NEAR ; std::_Destroy<std::_List_nod<CEventItem *,std::allocator<CEventItem *> >::_Node *>, COMDAT

; 49   : 	_DESTRUCTOR(_Ty, _Ptr);
; 50   : 	}

  00000	c3		 ret	 0
??$_Destroy@PAU_Node@?$_List_nod@PAVCEventItem@@V?$allocator@PAVCEventItem@@@std@@@std@@@std@@YAXPAPAU_Node@?$_List_nod@PAVCEventItem@@V?$allocator@PAVCEventItem@@@std@@@0@@Z ENDP ; std::_Destroy<std::_List_nod<CEventItem *,std::allocator<CEventItem *> >::_Node *>
_TEXT	ENDS
PUBLIC	??$?0PAU_EVENT_GENERIC@@@?$allocator@U_Node@?$_List_nod@PAU_EVENT_GENERIC@@V?$allocator@PAU_EVENT_GENERIC@@@std@@@std@@@std@@QAE@ABV?$allocator@PAU_EVENT_GENERIC@@@1@@Z ; std::allocator<std::_List_nod<_EVENT_GENERIC *,std::allocator<_EVENT_GENERIC *> >::_Node>::allocator<std::_List_nod<_EVENT_GENERIC *,std::allocator<_EVENT_GENERIC *> >::_Node><_EVENT_GENERIC *>
; Function compile flags: /Ogty
;	COMDAT ??$?0PAU_EVENT_GENERIC@@@?$allocator@U_Node@?$_List_nod@PAU_EVENT_GENERIC@@V?$allocator@PAU_EVENT_GENERIC@@@std@@@std@@@std@@QAE@ABV?$allocator@PAU_EVENT_GENERIC@@@1@@Z
_TEXT	SEGMENT
___formal$ = 8						; size = 4
??$?0PAU_EVENT_GENERIC@@@?$allocator@U_Node@?$_List_nod@PAU_EVENT_GENERIC@@V?$allocator@PAU_EVENT_GENERIC@@@std@@@std@@@std@@QAE@ABV?$allocator@PAU_EVENT_GENERIC@@@1@@Z PROC NEAR ; std::allocator<std::_List_nod<_EVENT_GENERIC *,std::allocator<_EVENT_GENERIC *> >::_Node>::allocator<std::_List_nod<_EVENT_GENERIC *,std::allocator<_EVENT_GENERIC *> >::_Node><_EVENT_GENERIC *>, COMDAT
; _this$ = ecx

; 120  : 		allocator(const allocator<_Other>&)

  00000	8b c1		 mov	 eax, ecx

; 121  : 		{	// construct from a related allocator (do nothing)
; 122  : 		}

  00002	c2 04 00	 ret	 4
??$?0PAU_EVENT_GENERIC@@@?$allocator@U_Node@?$_List_nod@PAU_EVENT_GENERIC@@V?$allocator@PAU_EVENT_GENERIC@@@std@@@std@@@std@@QAE@ABV?$allocator@PAU_EVENT_GENERIC@@@1@@Z ENDP ; std::allocator<std::_List_nod<_EVENT_GENERIC *,std::allocator<_EVENT_GENERIC *> >::_Node>::allocator<std::_List_nod<_EVENT_GENERIC *,std::allocator<_EVENT_GENERIC *> >::_Node><_EVENT_GENERIC *>
_TEXT	ENDS
PUBLIC	??$?0U?$pair@$$CBHPAV?$list@PAVCEventItem@@V?$allocator@PAVCEventItem@@@std@@@std@@@std@@@?$allocator@PAU_Node@?$_Tree_nod@V?$_Tmap_traits@HPAV?$list@PAVCEventItem@@V?$allocator@PAVCEventItem@@@std@@@std@@U?$less@H@2@V?$allocator@U?$pair@$$CBHPAV?$list@PAVCEventItem@@V?$allocator@PAVCEventItem@@@std@@@std@@@std@@@2@$0A@@std@@@std@@@std@@QAE@ABV?$allocator@U?$pair@$$CBHPAV?$list@PAVCEventItem@@V?$allocator@PAVCEventItem@@@std@@@std@@@std@@@1@@Z ; std::allocator<std::_Tree_nod<std::_Tmap_traits<int,std::list<CEventItem *,std::allocator<CEventItem *> > *,std::less<int>,std::allocator<std::pair<int const ,std::list<CEventItem *,std::allocator<CEventItem *> > *> >,0> >::_Node *>::allocator<std::_Tree_nod<std::_Tmap_traits<int,std::list<CEventItem *,std::allocator<CEventItem *> > *,std::less<int>,std::allocator<std::pair<int const ,std::list<CEventItem *,std::allocator<CEventItem *> > *> >,0> >::_Node *><std::pair<int const ,std::list<CEventItem *,std::allocator<CEventItem *> > *> >
; Function compile flags: /Ogty
;	COMDAT ??$?0U?$pair@$$CBHPAV?$list@PAVCEventItem@@V?$allocator@PAVCEventItem@@@std@@@std@@@std@@@?$allocator@PAU_Node@?$_Tree_nod@V?$_Tmap_traits@HPAV?$list@PAVCEventItem@@V?$allocator@PAVCEventItem@@@std@@@std@@U?$less@H@2@V?$allocator@U?$pair@$$CBHPAV?$list@PAVCEventItem@@V?$allocator@PAVCEventItem@@@std@@@std@@@std@@@2@$0A@@std@@@std@@@std@@QAE@ABV?$allocator@U?$pair@$$CBHPAV?$list@PAVCEventItem@@V?$allocator@PAVCEventItem@@@std@@@std@@@std@@@1@@Z
_TEXT	SEGMENT
___formal$ = 8						; size = 4
??$?0U?$pair@$$CBHPAV?$list@PAVCEventItem@@V?$allocator@PAVCEventItem@@@std@@@std@@@std@@@?$allocator@PAU_Node@?$_Tree_nod@V?$_Tmap_traits@HPAV?$list@PAVCEventItem@@V?$allocator@PAVCEventItem@@@std@@@std@@U?$less@H@2@V?$allocator@U?$pair@$$CBHPAV?$list@PAVCEventItem@@V?$allocator@PAVCEventItem@@@std@@@std@@@std@@@2@$0A@@std@@@std@@@std@@QAE@ABV?$allocator@U?$pair@$$CBHPAV?$list@PAVCEventItem@@V?$allocator@PAVCEventItem@@@std@@@std@@@std@@@1@@Z PROC NEAR ; std::allocator<std::_Tree_nod<std::_Tmap_traits<int,std::list<CEventItem *,std::allocator<CEventItem *> > *,std::less<int>,std::allocator<std::pair<int const ,std::list<CEventItem *,std::allocator<CEventItem *> > *> >,0> >::_Node *>::allocator<std::_Tree_nod<std::_Tmap_traits<int,std::list<CEventItem *,std::allocator<CEventItem *> > *,std::less<int>,std::allocator<std::pair<int const ,std::list<CEventItem *,std::allocator<CEventItem *> > *> >,0> >::_Node *><std::pair<int const ,std::list<CEventItem *,std::allocator<CEventItem *> > *> >, COMDAT
; _this$ = ecx

; 120  : 		allocator(const allocator<_Other>&)

  00000	8b c1		 mov	 eax, ecx

; 121  : 		{	// construct from a related allocator (do nothing)
; 122  : 		}

  00002	c2 04 00	 ret	 4
??$?0U?$pair@$$CBHPAV?$list@PAVCEventItem@@V?$allocator@PAVCEventItem@@@std@@@std@@@std@@@?$allocator@PAU_Node@?$_Tree_nod@V?$_Tmap_traits@HPAV?$list@PAVCEventItem@@V?$allocator@PAVCEventItem@@@std@@@std@@U?$less@H@2@V?$allocator@U?$pair@$$CBHPAV?$list@PAVCEventItem@@V?$allocator@PAVCEventItem@@@std@@@std@@@std@@@2@$0A@@std@@@std@@@std@@QAE@ABV?$allocator@U?$pair@$$CBHPAV?$list@PAVCEventItem@@V?$allocator@PAVCEventItem@@@std@@@std@@@std@@@1@@Z ENDP ; std::allocator<std::_Tree_nod<std::_Tmap_traits<int,std::list<CEventItem *,std::allocator<CEventItem *> > *,std::less<int>,std::allocator<std::pair<int const ,std::list<CEventItem *,std::allocator<CEventItem *> > *> >,0> >::_Node *>::allocator<std::_Tree_nod<std::_Tmap_traits<int,std::list<CEventItem *,std::allocator<CEventItem *> > *,std::less<int>,std::allocator<std::pair<int const ,std::list<CEventItem *,std::allocator<CEventItem *> > *> >,0> >::_Node *><std::pair<int const ,std::list<CEventItem *,std::allocator<CEventItem *> > *> >
_TEXT	ENDS
PUBLIC	??$_Allocate@U_Node@?$_Tree_nod@V?$_Tmap_traits@HPAV?$list@PAVCEventItem@@V?$allocator@PAVCEventItem@@@std@@@std@@U?$less@H@2@V?$allocator@U?$pair@$$CBHPAV?$list@PAVCEventItem@@V?$allocator@PAVCEventItem@@@std@@@std@@@std@@@2@$0A@@std@@@std@@@std@@YAPAU_Node@?$_Tree_nod@V?$_Tmap_traits@HPAV?$list@PAVCEventItem@@V?$allocator@PAVCEventItem@@@std@@@std@@U?$less@H@2@V?$allocator@U?$pair@$$CBHPAV?$list@PAVCEventItem@@V?$allocator@PAVCEventItem@@@std@@@std@@@std@@@2@$0A@@std@@@0@IPAU120@@Z ; std::_Allocate<std::_Tree_nod<std::_Tmap_traits<int,std::list<CEventItem *,std::allocator<CEventItem *> > *,std::less<int>,std::allocator<std::pair<int const ,std::list<CEventItem *,std::allocator<CEventItem *> > *> >,0> >::_Node>
; Function compile flags: /Ogty
;	COMDAT ??$_Allocate@U_Node@?$_Tree_nod@V?$_Tmap_traits@HPAV?$list@PAVCEventItem@@V?$allocator@PAVCEventItem@@@std@@@std@@U?$less@H@2@V?$allocator@U?$pair@$$CBHPAV?$list@PAVCEventItem@@V?$allocator@PAVCEventItem@@@std@@@std@@@std@@@2@$0A@@std@@@std@@@std@@YAPAU_Node@?$_Tree_nod@V?$_Tmap_traits@HPAV?$list@PAVCEventItem@@V?$allocator@PAVCEventItem@@@std@@@std@@U?$less@H@2@V?$allocator@U?$pair@$$CBHPAV?$list@PAVCEventItem@@V?$allocator@PAVCEventItem@@@std@@@std@@@std@@@2@$0A@@std@@@0@IPAU120@@Z
_TEXT	SEGMENT
__Count$ = 8						; size = 4
___formal$ = 12						; size = 4
??$_Allocate@U_Node@?$_Tree_nod@V?$_Tmap_traits@HPAV?$list@PAVCEventItem@@V?$allocator@PAVCEventItem@@@std@@@std@@U?$less@H@2@V?$allocator@U?$pair@$$CBHPAV?$list@PAVCEventItem@@V?$allocator@PAVCEventItem@@@std@@@std@@@std@@@2@$0A@@std@@@std@@@std@@YAPAU_Node@?$_Tree_nod@V?$_Tmap_traits@HPAV?$list@PAVCEventItem@@V?$allocator@PAVCEventItem@@@std@@@std@@U?$less@H@2@V?$allocator@U?$pair@$$CBHPAV?$list@PAVCEventItem@@V?$allocator@PAVCEventItem@@@std@@@std@@@std@@@2@$0A@@std@@@0@IPAU120@@Z PROC NEAR ; std::_Allocate<std::_Tree_nod<std::_Tmap_traits<int,std::list<CEventItem *,std::allocator<CEventItem *> > *,std::less<int>,std::allocator<std::pair<int const ,std::list<CEventItem *,std::allocator<CEventItem *> > *> >,0> >::_Node>, COMDAT

; 34   : 	return ((_Ty _FARQ *)operator new(_Count * sizeof (_Ty)));

  00000	8b 44 24 04	 mov	 eax, DWORD PTR __Count$[esp-4]
  00004	8d 04 40	 lea	 eax, DWORD PTR [eax+eax*2]
  00007	c1 e0 03	 shl	 eax, 3
  0000a	50		 push	 eax
  0000b	e8 00 00 00 00	 call	 ??2@YAPAXI@Z		; operator new
  00010	83 c4 04	 add	 esp, 4

; 35   : 	}

  00013	c3		 ret	 0
??$_Allocate@U_Node@?$_Tree_nod@V?$_Tmap_traits@HPAV?$list@PAVCEventItem@@V?$allocator@PAVCEventItem@@@std@@@std@@U?$less@H@2@V?$allocator@U?$pair@$$CBHPAV?$list@PAVCEventItem@@V?$allocator@PAVCEventItem@@@std@@@std@@@std@@@2@$0A@@std@@@std@@@std@@YAPAU_Node@?$_Tree_nod@V?$_Tmap_traits@HPAV?$list@PAVCEventItem@@V?$allocator@PAVCEventItem@@@std@@@std@@U?$less@H@2@V?$allocator@U?$pair@$$CBHPAV?$list@PAVCEventItem@@V?$allocator@PAVCEventItem@@@std@@@std@@@std@@@2@$0A@@std@@@0@IPAU120@@Z ENDP ; std::_Allocate<std::_Tree_nod<std::_Tmap_traits<int,std::list<CEventItem *,std::allocator<CEventItem *> > *,std::less<int>,std::allocator<std::pair<int const ,std::list<CEventItem *,std::allocator<CEventItem *> > *> >,0> >::_Node>
_TEXT	ENDS
PUBLIC	??$?0PAVCEventItem@@@?$allocator@U_Node@?$_List_nod@PAVCEventItem@@V?$allocator@PAVCEventItem@@@std@@@std@@@std@@QAE@ABV?$allocator@PAVCEventItem@@@1@@Z ; std::allocator<std::_List_nod<CEventItem *,std::allocator<CEventItem *> >::_Node>::allocator<std::_List_nod<CEventItem *,std::allocator<CEventItem *> >::_Node><CEventItem *>
; Function compile flags: /Ogty
;	COMDAT ??$?0PAVCEventItem@@@?$allocator@U_Node@?$_List_nod@PAVCEventItem@@V?$allocator@PAVCEventItem@@@std@@@std@@@std@@QAE@ABV?$allocator@PAVCEventItem@@@1@@Z
_TEXT	SEGMENT
___formal$ = 8						; size = 4
??$?0PAVCEventItem@@@?$allocator@U_Node@?$_List_nod@PAVCEventItem@@V?$allocator@PAVCEventItem@@@std@@@std@@@std@@QAE@ABV?$allocator@PAVCEventItem@@@1@@Z PROC NEAR ; std::allocator<std::_List_nod<CEventItem *,std::allocator<CEventItem *> >::_Node>::allocator<std::_List_nod<CEventItem *,std::allocator<CEventItem *> >::_Node><CEventItem *>, COMDAT
; _this$ = ecx

; 120  : 		allocator(const allocator<_Other>&)

  00000	8b c1		 mov	 eax, ecx

; 121  : 		{	// construct from a related allocator (do nothing)
; 122  : 		}

  00002	c2 04 00	 ret	 4
??$?0PAVCEventItem@@@?$allocator@U_Node@?$_List_nod@PAVCEventItem@@V?$allocator@PAVCEventItem@@@std@@@std@@@std@@QAE@ABV?$allocator@PAVCEventItem@@@1@@Z ENDP ; std::allocator<std::_List_nod<CEventItem *,std::allocator<CEventItem *> >::_Node>::allocator<std::_List_nod<CEventItem *,std::allocator<CEventItem *> >::_Node><CEventItem *>
_TEXT	ENDS
PUBLIC	??$?0U?$pair@$$CBHPAV?$list@PAVCEventItem@@V?$allocator@PAVCEventItem@@@std@@@std@@@std@@@?$allocator@U_Node@?$_Tree_nod@V?$_Tmap_traits@HPAV?$list@PAVCEventItem@@V?$allocator@PAVCEventItem@@@std@@@std@@U?$less@H@2@V?$allocator@U?$pair@$$CBHPAV?$list@PAVCEventItem@@V?$allocator@PAVCEventItem@@@std@@@std@@@std@@@2@$0A@@std@@@std@@@std@@QAE@ABV?$allocator@U?$pair@$$CBHPAV?$list@PAVCEventItem@@V?$allocator@PAVCEventItem@@@std@@@std@@@std@@@1@@Z ; std::allocator<std::_Tree_nod<std::_Tmap_traits<int,std::list<CEventItem *,std::allocator<CEventItem *> > *,std::less<int>,std::allocator<std::pair<int const ,std::list<CEventItem *,std::allocator<CEventItem *> > *> >,0> >::_Node>::allocator<std::_Tree_nod<std::_Tmap_traits<int,std::list<CEventItem *,std::allocator<CEventItem *> > *,std::less<int>,std::allocator<std::pair<int const ,std::list<CEventItem *,std::allocator<CEventItem *> > *> >,0> >::_Node><std::pair<int const ,std::list<CEventItem *,std::allocator<CEventItem *> > *> >
; Function compile flags: /Ogty
;	COMDAT ??$?0U?$pair@$$CBHPAV?$list@PAVCEventItem@@V?$allocator@PAVCEventItem@@@std@@@std@@@std@@@?$allocator@U_Node@?$_Tree_nod@V?$_Tmap_traits@HPAV?$list@PAVCEventItem@@V?$allocator@PAVCEventItem@@@std@@@std@@U?$less@H@2@V?$allocator@U?$pair@$$CBHPAV?$list@PAVCEventItem@@V?$allocator@PAVCEventItem@@@std@@@std@@@std@@@2@$0A@@std@@@std@@@std@@QAE@ABV?$allocator@U?$pair@$$CBHPAV?$list@PAVCEventItem@@V?$allocator@PAVCEventItem@@@std@@@std@@@std@@@1@@Z
_TEXT	SEGMENT
___formal$ = 8						; size = 4
??$?0U?$pair@$$CBHPAV?$list@PAVCEventItem@@V?$allocator@PAVCEventItem@@@std@@@std@@@std@@@?$allocator@U_Node@?$_Tree_nod@V?$_Tmap_traits@HPAV?$list@PAVCEventItem@@V?$allocator@PAVCEventItem@@@std@@@std@@U?$less@H@2@V?$allocator@U?$pair@$$CBHPAV?$list@PAVCEventItem@@V?$allocator@PAVCEventItem@@@std@@@std@@@std@@@2@$0A@@std@@@std@@@std@@QAE@ABV?$allocator@U?$pair@$$CBHPAV?$list@PAVCEventItem@@V?$allocator@PAVCEventItem@@@std@@@std@@@std@@@1@@Z PROC NEAR ; std::allocator<std::_Tree_nod<std::_Tmap_traits<int,std::list<CEventItem *,std::allocator<CEventItem *> > *,std::less<int>,std::allocator<std::pair<int const ,std::list<CEventItem *,std::allocator<CEventItem *> > *> >,0> >::_Node>::allocator<std::_Tree_nod<std::_Tmap_traits<int,std::list<CEventItem *,std::allocator<CEventItem *> > *,std::less<int>,std::allocator<std::pair<int const ,std::list<CEventItem *,std::allocator<CEventItem *> > *> >,0> >::_Node><std::pair<int const ,std::list<CEventItem *,std::allocator<CEventItem *> > *> >, COMDAT
; _this$ = ecx

; 120  : 		allocator(const allocator<_Other>&)

  00000	8b c1		 mov	 eax, ecx

; 121  : 		{	// construct from a related allocator (do nothing)
; 122  : 		}

  00002	c2 04 00	 ret	 4
??$?0U?$pair@$$CBHPAV?$list@PAVCEventItem@@V?$allocator@PAVCEventItem@@@std@@@std@@@std@@@?$allocator@U_Node@?$_Tree_nod@V?$_Tmap_traits@HPAV?$list@PAVCEventItem@@V?$allocator@PAVCEventItem@@@std@@@std@@U?$less@H@2@V?$allocator@U?$pair@$$CBHPAV?$list@PAVCEventItem@@V?$allocator@PAVCEventItem@@@std@@@std@@@std@@@2@$0A@@std@@@std@@@std@@QAE@ABV?$allocator@U?$pair@$$CBHPAV?$list@PAVCEventItem@@V?$allocator@PAVCEventItem@@@std@@@std@@@std@@@1@@Z ENDP ; std::allocator<std::_Tree_nod<std::_Tmap_traits<int,std::list<CEventItem *,std::allocator<CEventItem *> > *,std::less<int>,std::allocator<std::pair<int const ,std::list<CEventItem *,std::allocator<CEventItem *> > *> >,0> >::_Node>::allocator<std::_Tree_nod<std::_Tmap_traits<int,std::list<CEventItem *,std::allocator<CEventItem *> > *,std::less<int>,std::allocator<std::pair<int const ,std::list<CEventItem *,std::allocator<CEventItem *> > *> >,0> >::_Node><std::pair<int const ,std::list<CEventItem *,std::allocator<CEventItem *> > *> >
_TEXT	ENDS
PUBLIC	??$_Construct@PAU_Node@?$_Tree_nod@V?$_Tmap_traits@HPAV?$list@PAVCEventItem@@V?$allocator@PAVCEventItem@@@std@@@std@@U?$less@H@2@V?$allocator@U?$pair@$$CBHPAV?$list@PAVCEventItem@@V?$allocator@PAVCEventItem@@@std@@@std@@@std@@@2@$0A@@std@@@std@@PAU123@@std@@YAXPAPAU_Node@?$_Tree_nod@V?$_Tmap_traits@HPAV?$list@PAVCEventItem@@V?$allocator@PAVCEventItem@@@std@@@std@@U?$less@H@2@V?$allocator@U?$pair@$$CBHPAV?$list@PAVCEventItem@@V?$allocator@PAVCEventItem@@@std@@@std@@@std@@@2@$0A@@std@@@0@ABQAU120@@Z ; std::_Construct<std::_Tree_nod<std::_Tmap_traits<int,std::list<CEventItem *,std::allocator<CEventItem *> > *,std::less<int>,std::allocator<std::pair<int const ,std::list<CEventItem *,std::allocator<CEventItem *> > *> >,0> >::_Node *,std::_Tree_nod<std::_Tmap_traits<int,std::list<CEventItem *,std::allocator<CEventItem *> > *,std::less<int>,std::allocator<std::pair<int const ,std::list<CEventItem *,std::allocator<CEventItem *> > *> >,0> >::_Node *>
; Function compile flags: /Ogty
;	COMDAT ??$_Construct@PAU_Node@?$_Tree_nod@V?$_Tmap_traits@HPAV?$list@PAVCEventItem@@V?$allocator@PAVCEventItem@@@std@@@std@@U?$less@H@2@V?$allocator@U?$pair@$$CBHPAV?$list@PAVCEventItem@@V?$allocator@PAVCEventItem@@@std@@@std@@@std@@@2@$0A@@std@@@std@@PAU123@@std@@YAXPAPAU_Node@?$_Tree_nod@V?$_Tmap_traits@HPAV?$list@PAVCEventItem@@V?$allocator@PAVCEventItem@@@std@@@std@@U?$less@H@2@V?$allocator@U?$pair@$$CBHPAV?$list@PAVCEventItem@@V?$allocator@PAVCEventItem@@@std@@@std@@@std@@@2@$0A@@std@@@0@ABQAU120@@Z
_TEXT	SEGMENT
__Ptr$ = 8						; size = 4
__Val$ = 12						; size = 4
??$_Construct@PAU_Node@?$_Tree_nod@V?$_Tmap_traits@HPAV?$list@PAVCEventItem@@V?$allocator@PAVCEventItem@@@std@@@std@@U?$less@H@2@V?$allocator@U?$pair@$$CBHPAV?$list@PAVCEventItem@@V?$allocator@PAVCEventItem@@@std@@@std@@@std@@@2@$0A@@std@@@std@@PAU123@@std@@YAXPAPAU_Node@?$_Tree_nod@V?$_Tmap_traits@HPAV?$list@PAVCEventItem@@V?$allocator@PAVCEventItem@@@std@@@std@@U?$less@H@2@V?$allocator@U?$pair@$$CBHPAV?$list@PAVCEventItem@@V?$allocator@PAVCEventItem@@@std@@@std@@@std@@@2@$0A@@std@@@0@ABQAU120@@Z PROC NEAR ; std::_Construct<std::_Tree_nod<std::_Tmap_traits<int,std::list<CEventItem *,std::allocator<CEventItem *> > *,std::less<int>,std::allocator<std::pair<int const ,std::list<CEventItem *,std::allocator<CEventItem *> > *> >,0> >::_Node *,std::_Tree_nod<std::_Tmap_traits<int,std::list<CEventItem *,std::allocator<CEventItem *> > *,std::less<int>,std::allocator<std::pair<int const ,std::list<CEventItem *,std::allocator<CEventItem *> > *> >,0> >::_Node *>, COMDAT

; 42   : 	new ((void _FARQ *)_Ptr) _T1(_Val);

  00000	8b 44 24 04	 mov	 eax, DWORD PTR __Ptr$[esp-4]
  00004	85 c0		 test	 eax, eax
  00006	74 08		 je	 SHORT $L190489
  00008	8b 4c 24 08	 mov	 ecx, DWORD PTR __Val$[esp-4]
  0000c	8b 11		 mov	 edx, DWORD PTR [ecx]
  0000e	89 10		 mov	 DWORD PTR [eax], edx
$L190489:

; 43   : 	}

  00010	c3		 ret	 0
??$_Construct@PAU_Node@?$_Tree_nod@V?$_Tmap_traits@HPAV?$list@PAVCEventItem@@V?$allocator@PAVCEventItem@@@std@@@std@@U?$less@H@2@V?$allocator@U?$pair@$$CBHPAV?$list@PAVCEventItem@@V?$allocator@PAVCEventItem@@@std@@@std@@@std@@@2@$0A@@std@@@std@@PAU123@@std@@YAXPAPAU_Node@?$_Tree_nod@V?$_Tmap_traits@HPAV?$list@PAVCEventItem@@V?$allocator@PAVCEventItem@@@std@@@std@@U?$less@H@2@V?$allocator@U?$pair@$$CBHPAV?$list@PAVCEventItem@@V?$allocator@PAVCEventItem@@@std@@@std@@@std@@@2@$0A@@std@@@0@ABQAU120@@Z ENDP ; std::_Construct<std::_Tree_nod<std::_Tmap_traits<int,std::list<CEventItem *,std::allocator<CEventItem *> > *,std::less<int>,std::allocator<std::pair<int const ,std::list<CEventItem *,std::allocator<CEventItem *> > *> >,0> >::_Node *,std::_Tree_nod<std::_Tmap_traits<int,std::list<CEventItem *,std::allocator<CEventItem *> > *,std::less<int>,std::allocator<std::pair<int const ,std::list<CEventItem *,std::allocator<CEventItem *> > *> >,0> >::_Node *>
_TEXT	ENDS
PUBLIC	?GetTime@CTime@ATL@@QBE_JXZ			; ATL::CTime::GetTime
; Function compile flags: /Ogty
; File c:\program files\microsoft visual studio .net 2003\vc7\atlmfc\include\atltime.inl
;	COMDAT ?GetTime@CTime@ATL@@QBE_JXZ
_TEXT	SEGMENT
?GetTime@CTime@ATL@@QBE_JXZ PROC NEAR			; ATL::CTime::GetTime, COMDAT
; _this$ = ecx

; 372  : 	return( m_time );

  00000	8b 01		 mov	 eax, DWORD PTR [ecx]
  00002	8b 51 04	 mov	 edx, DWORD PTR [ecx+4]

; 373  : }

  00005	c3		 ret	 0
?GetTime@CTime@ATL@@QBE_JXZ ENDP			; ATL::CTime::GetTime
_TEXT	ENDS
PUBLIC	?assign@?$char_traits@D@std@@SAXAADABD@Z	; std::char_traits<char>::assign
; Function compile flags: /Ogty
; File c:\program files\microsoft visual studio .net 2003\vc7\include\iosfwd
;	COMDAT ?assign@?$char_traits@D@std@@SAXAADABD@Z
_TEXT	SEGMENT
__Left$ = 8						; size = 4
__Right$ = 12						; size = 4
?assign@?$char_traits@D@std@@SAXAADABD@Z PROC NEAR	; std::char_traits<char>::assign, COMDAT

; 331  : 		_Left = _Right;

  00000	8b 44 24 08	 mov	 eax, DWORD PTR __Right$[esp-4]
  00004	8a 08		 mov	 cl, BYTE PTR [eax]
  00006	8b 54 24 04	 mov	 edx, DWORD PTR __Left$[esp-4]
  0000a	88 0a		 mov	 BYTE PTR [edx], cl

; 332  : 		}

  0000c	c3		 ret	 0
?assign@?$char_traits@D@std@@SAXAADABD@Z ENDP		; std::char_traits<char>::assign
_TEXT	ENDS
PUBLIC	?length@?$char_traits@D@std@@SAIPBD@Z		; std::char_traits<char>::length
; Function compile flags: /Ogty
;	COMDAT ?length@?$char_traits@D@std@@SAIPBD@Z
_TEXT	SEGMENT
__First$ = 8						; size = 4
?length@?$char_traits@D@std@@SAIPBD@Z PROC NEAR		; std::char_traits<char>::length, COMDAT

; 352  : 		return (::strlen(_First));

  00000	8b 44 24 04	 mov	 eax, DWORD PTR __First$[esp-4]
  00004	8d 50 01	 lea	 edx, DWORD PTR [eax+1]
$L190500:
  00007	8a 08		 mov	 cl, BYTE PTR [eax]
  00009	40		 inc	 eax
  0000a	84 c9		 test	 cl, cl
  0000c	75 f9		 jne	 SHORT $L190500
  0000e	2b c2		 sub	 eax, edx

; 353  : 		}

  00010	c3		 ret	 0
?length@?$char_traits@D@std@@SAIPBD@Z ENDP		; std::char_traits<char>::length
_TEXT	ENDS
PUBLIC	?copy@?$char_traits@D@std@@SAPADPADPBDI@Z	; std::char_traits<char>::copy
; Function compile flags: /Ogty
;	COMDAT ?copy@?$char_traits@D@std@@SAPADPADPBDI@Z
_TEXT	SEGMENT
__First1$ = 8						; size = 4
__First2$ = 12						; size = 4
__Count$ = 16						; size = 4
?copy@?$char_traits@D@std@@SAPADPADPBDI@Z PROC NEAR	; std::char_traits<char>::copy, COMDAT

; 358  : 		return ((_Elem *)::memcpy(_First1, _First2, _Count));

  00000	8b 4c 24 0c	 mov	 ecx, DWORD PTR __Count$[esp-4]
  00004	56		 push	 esi
  00005	8b 74 24 0c	 mov	 esi, DWORD PTR __First2$[esp]
  00009	57		 push	 edi
  0000a	8b 7c 24 0c	 mov	 edi, DWORD PTR __First1$[esp+4]
  0000e	8b c1		 mov	 eax, ecx
  00010	8b d7		 mov	 edx, edi
  00012	c1 e9 02	 shr	 ecx, 2
  00015	f3 a5		 rep movsd
  00017	8b c8		 mov	 ecx, eax
  00019	83 e1 03	 and	 ecx, 3
  0001c	f3 a4		 rep movsb
  0001e	5f		 pop	 edi
  0001f	8b c2		 mov	 eax, edx
  00021	5e		 pop	 esi

; 359  : 		}

  00022	c3		 ret	 0
?copy@?$char_traits@D@std@@SAPADPADPBDI@Z ENDP		; std::char_traits<char>::copy
_TEXT	ENDS
PUBLIC	?move@?$char_traits@D@std@@SAPADPADPBDI@Z	; std::char_traits<char>::move
EXTRN	_memmove:NEAR
; Function compile flags: /Ogty
;	COMDAT ?move@?$char_traits@D@std@@SAPADPADPBDI@Z
_TEXT	SEGMENT
__First1$ = 8						; size = 4
__First2$ = 12						; size = 4
__Count$ = 16						; size = 4
?move@?$char_traits@D@std@@SAPADPADPBDI@Z PROC NEAR	; std::char_traits<char>::move, COMDAT

; 370  : 		return ((_Elem *)::memmove(_First1, _First2, _Count));

  00000	e9 00 00 00 00	 jmp	 _memmove
?move@?$char_traits@D@std@@SAPADPADPBDI@Z ENDP		; std::char_traits<char>::move
_TEXT	ENDS
PUBLIC	?time_null@@YAJXZ				; time_null
EXTRN	_time:NEAR
; Function compile flags: /Ogty
; File c:\documents and settings\test\mes documents\source\virtuos_v17\build\program\_network\cmnhdr.h
;	COMDAT ?time_null@@YAJXZ
_TEXT	SEGMENT
?time_null@@YAJXZ PROC NEAR				; time_null, COMDAT

; 702  : #if defined(__WORLDSERVER) || defined(__CLIENT)
; 703  : 	return	g_tCurrent;
; 704  : #else	//
; 705  : 	return time( NULL );

  00000	6a 00		 push	 0
  00002	e8 00 00 00 00	 call	 _time
  00007	83 c4 04	 add	 esp, 4

; 706  : #endif	//
; 707  : }

  0000a	c3		 ret	 0
?time_null@@YAJXZ ENDP					; time_null
_TEXT	ENDS
PUBLIC	?IsStoring@CAr@@QBEHXZ				; CAr::IsStoring
; Function compile flags: /Ogty
; File c:\documents and settings\test\mes documents\source\virtuos_v17\build\program\_network\misc\include\ar.h
;	COMDAT ?IsStoring@CAr@@QBEHXZ
_TEXT	SEGMENT
?IsStoring@CAr@@QBEHXZ PROC NEAR			; CAr::IsStoring, COMDAT
; _this$ = ecx

; 96   : 	{ return (m_nMode & CAr::load) == 0; }

  00000	33 c0		 xor	 eax, eax
  00002	8a 01		 mov	 al, BYTE PTR [ecx]
  00004	f7 d0		 not	 eax
  00006	83 e0 01	 and	 eax, 1
  00009	c3		 ret	 0
?IsStoring@CAr@@QBEHXZ ENDP				; CAr::IsStoring
_TEXT	ENDS
PUBLIC	??6CAr@@QAEAAV0@J@Z				; CAr::operator<<
EXTRN	?CheckBuf@CAr@@QAEXI@Z:NEAR			; CAr::CheckBuf
; Function compile flags: /Ogty
;	COMDAT ??6CAr@@QAEAAV0@J@Z
_TEXT	SEGMENT
_l$ = 8							; size = 4
??6CAr@@QAEAAV0@J@Z PROC NEAR				; CAr::operator<<, COMDAT
; _this$ = ecx

; 113  : 	{ CheckBuf( sizeof(LONG) );

  00000	56		 push	 esi
  00001	6a 04		 push	 4
  00003	8b f1		 mov	 esi, ecx
  00005	e8 00 00 00 00	 call	 ?CheckBuf@CAr@@QAEXI@Z	; CAr::CheckBuf

; 114  : 		*(UNALIGNED LONG*)m_lpBufCur = l; m_lpBufCur += sizeof(LONG); return *this; }

  0000a	8b 46 08	 mov	 eax, DWORD PTR [esi+8]
  0000d	8b 4c 24 08	 mov	 ecx, DWORD PTR _l$[esp]
  00011	89 08		 mov	 DWORD PTR [eax], ecx
  00013	83 46 08 04	 add	 DWORD PTR [esi+8], 4
  00017	8b c6		 mov	 eax, esi
  00019	5e		 pop	 esi
  0001a	c2 04 00	 ret	 4
??6CAr@@QAEAAV0@J@Z ENDP				; CAr::operator<<
_TEXT	ENDS
PUBLIC	??6CAr@@QAEAAV0@K@Z				; CAr::operator<<
; Function compile flags: /Ogty
;	COMDAT ??6CAr@@QAEAAV0@K@Z
_TEXT	SEGMENT
_dw$ = 8						; size = 4
??6CAr@@QAEAAV0@K@Z PROC NEAR				; CAr::operator<<, COMDAT
; _this$ = ecx

; 116  : 	{ CheckBuf( sizeof(DWORD) );

  00000	56		 push	 esi
  00001	6a 04		 push	 4
  00003	8b f1		 mov	 esi, ecx
  00005	e8 00 00 00 00	 call	 ?CheckBuf@CAr@@QAEXI@Z	; CAr::CheckBuf

; 117  : 		*(UNALIGNED DWORD*)m_lpBufCur = dw; m_lpBufCur += sizeof(DWORD); return *this; }

  0000a	8b 46 08	 mov	 eax, DWORD PTR [esi+8]
  0000d	8b 4c 24 08	 mov	 ecx, DWORD PTR _dw$[esp]
  00011	89 08		 mov	 DWORD PTR [eax], ecx
  00013	83 46 08 04	 add	 DWORD PTR [esi+8], 4
  00017	8b c6		 mov	 eax, esi
  00019	5e		 pop	 esi
  0001a	c2 04 00	 ret	 4
??6CAr@@QAEAAV0@K@Z ENDP				; CAr::operator<<
_TEXT	ENDS
PUBLIC	??5CAr@@QAEAAV0@AAK@Z				; CAr::operator>>
; Function compile flags: /Ogty
;	COMDAT ??5CAr@@QAEAAV0@AAK@Z
_TEXT	SEGMENT
_dw$ = 8						; size = 4
??5CAr@@QAEAAV0@AAK@Z PROC NEAR				; CAr::operator>>, COMDAT
; _this$ = ecx

; 146  : 	{	CAR_SAFE_READ( DWORD, dw );	}

  00000	8b c1		 mov	 eax, ecx
  00002	8b 48 08	 mov	 ecx, DWORD PTR [eax+8]
  00005	56		 push	 esi
  00006	8b 70 0c	 mov	 esi, DWORD PTR [eax+12]
  00009	8d 51 04	 lea	 edx, DWORD PTR [ecx+4]
  0000c	3b d6		 cmp	 edx, esi
  0000e	5e		 pop	 esi
  0000f	77 0f		 ja	 SHORT $L162868
  00011	8b 09		 mov	 ecx, DWORD PTR [ecx]
  00013	8b 54 24 04	 mov	 edx, DWORD PTR _dw$[esp-4]
  00017	89 0a		 mov	 DWORD PTR [edx], ecx
  00019	83 40 08 04	 add	 DWORD PTR [eax+8], 4
  0001d	c2 04 00	 ret	 4
$L162868:
  00020	8b 4c 24 04	 mov	 ecx, DWORD PTR _dw$[esp-4]
  00024	c7 01 00 00 00
	00		 mov	 DWORD PTR [ecx], 0
  0002a	8b 50 0c	 mov	 edx, DWORD PTR [eax+12]
  0002d	89 50 08	 mov	 DWORD PTR [eax+8], edx
  00030	c2 04 00	 ret	 4
??5CAr@@QAEAAV0@AAK@Z ENDP				; CAr::operator>>
_TEXT	ENDS
PUBLIC	??5CAr@@QAEAAV0@AAJ@Z				; CAr::operator>>
; Function compile flags: /Ogty
;	COMDAT ??5CAr@@QAEAAV0@AAJ@Z
_TEXT	SEGMENT
_l$ = 8							; size = 4
??5CAr@@QAEAAV0@AAJ@Z PROC NEAR				; CAr::operator>>, COMDAT
; _this$ = ecx

; 152  : 	{	CAR_SAFE_READ( LONG, l );	}

  00000	8b c1		 mov	 eax, ecx
  00002	8b 48 08	 mov	 ecx, DWORD PTR [eax+8]
  00005	56		 push	 esi
  00006	8b 70 0c	 mov	 esi, DWORD PTR [eax+12]
  00009	8d 51 04	 lea	 edx, DWORD PTR [ecx+4]
  0000c	3b d6		 cmp	 edx, esi
  0000e	5e		 pop	 esi
  0000f	77 0f		 ja	 SHORT $L162898
  00011	8b 09		 mov	 ecx, DWORD PTR [ecx]
  00013	8b 54 24 04	 mov	 edx, DWORD PTR _l$[esp-4]
  00017	89 0a		 mov	 DWORD PTR [edx], ecx
  00019	83 40 08 04	 add	 DWORD PTR [eax+8], 4
  0001d	c2 04 00	 ret	 4
$L162898:
  00020	8b 4c 24 04	 mov	 ecx, DWORD PTR _l$[esp-4]
  00024	c7 01 00 00 00
	00		 mov	 DWORD PTR [ecx], 0
  0002a	8b 50 0c	 mov	 edx, DWORD PTR [eax+12]
  0002d	89 50 08	 mov	 DWORD PTR [eax+8], edx
  00030	c2 04 00	 ret	 4
??5CAr@@QAEAAV0@AAJ@Z ENDP				; CAr::operator>>
_TEXT	ENDS
PUBLIC	??B?$CSimpleStringT@D$0A@@ATL@@QBEPBDXZ		; ATL::CSimpleStringT<char,0>::operator char const *
; Function compile flags: /Ogty
; File c:\program files\microsoft visual studio .net 2003\vc7\atlmfc\include\atlsimpstr.h
;	COMDAT ??B?$CSimpleStringT@D$0A@@ATL@@QBEPBDXZ
_TEXT	SEGMENT
??B?$CSimpleStringT@D$0A@@ATL@@QBEPBDXZ PROC NEAR	; ATL::CSimpleStringT<char,0>::operator char const *, COMDAT
; _this$ = ecx

; 379  : 		return( m_pszData );

  00000	8b 01		 mov	 eax, DWORD PTR [ecx]

; 380  : 	}

  00002	c3		 ret	 0
??B?$CSimpleStringT@D$0A@@ATL@@QBEPBDXZ ENDP		; ATL::CSimpleStringT<char,0>::operator char const *
_TEXT	ENDS
PUBLIC	?size@?$basic_string@DU?$char_traits@D@std@@V?$allocator@D@2@@std@@QBEIXZ ; std::basic_string<char,std::char_traits<char>,std::allocator<char> >::size
; Function compile flags: /Ogty
; File c:\program files\microsoft visual studio .net 2003\vc7\include\xstring
;	COMDAT ?size@?$basic_string@DU?$char_traits@D@std@@V?$allocator@D@2@@std@@QBEIXZ
_TEXT	SEGMENT
?size@?$basic_string@DU?$char_traits@D@std@@V?$allocator@D@2@@std@@QBEIXZ PROC NEAR ; std::basic_string<char,std::char_traits<char>,std::allocator<char> >::size, COMDAT
; _this$ = ecx

; 1109 : 		return (_Mysize);

  00000	8b 41 14	 mov	 eax, DWORD PTR [ecx+20]

; 1110 : 		}

  00003	c3		 ret	 0
?size@?$basic_string@DU?$char_traits@D@std@@V?$allocator@D@2@@std@@QBEIXZ ENDP ; std::basic_string<char,std::char_traits<char>,std::allocator<char> >::size
_TEXT	ENDS
PUBLIC	?GetString@?$CSimpleStringT@D$0A@@ATL@@QBEPBDXZ	; ATL::CSimpleStringT<char,0>::GetString
; Function compile flags: /Ogty
; File c:\program files\microsoft visual studio .net 2003\vc7\atlmfc\include\atlsimpstr.h
;	COMDAT ?GetString@?$CSimpleStringT@D$0A@@ATL@@QBEPBDXZ
_TEXT	SEGMENT
?GetString@?$CSimpleStringT@D$0A@@ATL@@QBEPBDXZ PROC NEAR ; ATL::CSimpleStringT<char,0>::GetString, COMDAT
; _this$ = ecx

; 510  : 		return( m_pszData );

  00000	8b 01		 mov	 eax, DWORD PTR [ecx]

; 511  : 	}

  00002	c3		 ret	 0
?GetString@?$CSimpleStringT@D$0A@@ATL@@QBEPBDXZ ENDP	; ATL::CSimpleStringT<char,0>::GetString
_TEXT	ENDS
PUBLIC	?StringLength@?$CSimpleStringT@D$0A@@ATL@@SAHPBD@Z ; ATL::CSimpleStringT<char,0>::StringLength
; Function compile flags: /Ogty
;	COMDAT ?StringLength@?$CSimpleStringT@D$0A@@ATL@@SAHPBD@Z
_TEXT	SEGMENT
_psz$ = 8						; size = 4
?StringLength@?$CSimpleStringT@D$0A@@ATL@@SAHPBD@Z PROC NEAR ; ATL::CSimpleStringT<char,0>::StringLength, COMDAT

; 678  : 		if( psz == NULL )

  00000	8b 44 24 04	 mov	 eax, DWORD PTR _psz$[esp-4]
  00004	85 c0		 test	 eax, eax
  00006	75 01		 jne	 SHORT $L184226

; 683  : 	}

  00008	c3		 ret	 0
$L184226:

; 679  : 		{
; 680  : 			return( 0 );
; 681  : 		}
; 682  : 		return( int( strlen( psz ) ) );

  00009	8d 50 01	 lea	 edx, DWORD PTR [eax+1]
  0000c	8d 64 24 00	 npad	 4
$L190526:
  00010	8a 08		 mov	 cl, BYTE PTR [eax]
  00012	40		 inc	 eax
  00013	84 c9		 test	 cl, cl
  00015	75 f9		 jne	 SHORT $L190526
  00017	2b c2		 sub	 eax, edx

; 683  : 	}

  00019	c3		 ret	 0
?StringLength@?$CSimpleStringT@D$0A@@ATL@@SAHPBD@Z ENDP	; ATL::CSimpleStringT<char,0>::StringLength
_TEXT	ENDS
PUBLIC	?GetData@?$CSimpleStringT@D$0A@@ATL@@ABEPAUCStringData@2@XZ ; ATL::CSimpleStringT<char,0>::GetData
; Function compile flags: /Ogty
;	COMDAT ?GetData@?$CSimpleStringT@D$0A@@ATL@@ABEPAUCStringData@2@XZ
_TEXT	SEGMENT
?GetData@?$CSimpleStringT@D$0A@@ATL@@ABEPAUCStringData@2@XZ PROC NEAR ; ATL::CSimpleStringT<char,0>::GetData, COMDAT
; _this$ = ecx

; 731  : 		return( reinterpret_cast< CStringData* >( m_pszData )-1 );

  00000	8b 01		 mov	 eax, DWORD PTR [ecx]
  00002	83 e8 10	 sub	 eax, 16			; 00000010H

; 732  : 	}

  00005	c3		 ret	 0
?GetData@?$CSimpleStringT@D$0A@@ATL@@ABEPAUCStringData@2@XZ ENDP ; ATL::CSimpleStringT<char,0>::GetData
_TEXT	ENDS
PUBLIC	?SetLength@?$CSimpleStringT@D$0A@@ATL@@AAEXH@Z	; ATL::CSimpleStringT<char,0>::SetLength
; Function compile flags: /Ogty
;	COMDAT ?SetLength@?$CSimpleStringT@D$0A@@ATL@@AAEXH@Z
_TEXT	SEGMENT
_nLength$ = 8						; size = 4
?SetLength@?$CSimpleStringT@D$0A@@ATL@@AAEXH@Z PROC NEAR ; ATL::CSimpleStringT<char,0>::SetLength, COMDAT
; _this$ = ecx

; 790  : 		ATLASSERT( nLength >= 0 );
; 791  : 		ATLASSERT( nLength <= GetData()->nAllocLength );
; 792  : 
; 793  : 		if( nLength < 0 || nLength > GetData()->nAllocLength)

  00000	8b 44 24 04	 mov	 eax, DWORD PTR _nLength$[esp-4]
  00004	85 c0		 test	 eax, eax
  00006	7c 13		 jl	 SHORT $L184241
  00008	8b 11		 mov	 edx, DWORD PTR [ecx]
  0000a	3b 42 f8	 cmp	 eax, DWORD PTR [edx-8]
  0000d	7f 0c		 jg	 SHORT $L184241

; 794  : 			AtlThrow(E_INVALIDARG);
; 795  : 			
; 796  : 		GetData()->nDataLength = nLength;

  0000f	89 42 f4	 mov	 DWORD PTR [edx-12], eax

; 797  : 		m_pszData[nLength] = 0;

  00012	8b 09		 mov	 ecx, DWORD PTR [ecx]
  00014	c6 04 08 00	 mov	 BYTE PTR [eax+ecx], 0

; 798  : 	}

  00018	c2 04 00	 ret	 4
$L184241:
  0001b	68 57 00 07 80	 push	 -2147024809		; 80070057H
  00020	e8 00 00 00 00	 call	 ?AtlThrow@ATL@@YGXJ@Z	; ATL::AtlThrow
$L190537:
  00025	cc		 int	 3
?SetLength@?$CSimpleStringT@D$0A@@ATL@@AAEXH@Z ENDP	; ATL::CSimpleStringT<char,0>::SetLength
_TEXT	ENDS
PUBLIC	?FindStringResourceInstance@?$StrTraitMFC@DV?$ChTraitsCRT@D@ATL@@@@SAPAUHINSTANCE__@@I@Z ; StrTraitMFC<char,ATL::ChTraitsCRT<char> >::FindStringResourceInstance
EXTRN	?AfxFindStringResourceHandle@@YGPAUHINSTANCE__@@I@Z:NEAR ; AfxFindStringResourceHandle
; Function compile flags: /Ogty
; File c:\program files\microsoft visual studio .net 2003\vc7\atlmfc\include\afxstr.h
;	COMDAT ?FindStringResourceInstance@?$StrTraitMFC@DV?$ChTraitsCRT@D@ATL@@@@SAPAUHINSTANCE__@@I@Z
_TEXT	SEGMENT
_nID$ = 8						; size = 4
?FindStringResourceInstance@?$StrTraitMFC@DV?$ChTraitsCRT@D@ATL@@@@SAPAUHINSTANCE__@@I@Z PROC NEAR ; StrTraitMFC<char,ATL::ChTraitsCRT<char> >::FindStringResourceInstance, COMDAT

; 45   : 		return( AfxFindStringResourceHandle( nID ) );

  00000	8b 44 24 04	 mov	 eax, DWORD PTR _nID$[esp-4]
  00004	50		 push	 eax
  00005	e8 00 00 00 00	 call	 ?AfxFindStringResourceHandle@@YGPAUHINSTANCE__@@I@Z ; AfxFindStringResourceHandle

; 46   : 	}

  0000a	c3		 ret	 0
?FindStringResourceInstance@?$StrTraitMFC@DV?$ChTraitsCRT@D@ATL@@@@SAPAUHINSTANCE__@@I@Z ENDP ; StrTraitMFC<char,ATL::ChTraitsCRT<char> >::FindStringResourceInstance
_TEXT	ENDS
PUBLIC	?GetDefaultManager@?$StrTraitMFC@DV?$ChTraitsCRT@D@ATL@@@@SAPAUIAtlStringMgr@ATL@@XZ ; StrTraitMFC<char,ATL::ChTraitsCRT<char> >::GetDefaultManager
EXTRN	?AfxGetStringManager@@YGPAUIAtlStringMgr@ATL@@XZ:NEAR ; AfxGetStringManager
; Function compile flags: /Ogty
;	COMDAT ?GetDefaultManager@?$StrTraitMFC@DV?$ChTraitsCRT@D@ATL@@@@SAPAUIAtlStringMgr@ATL@@XZ
_TEXT	SEGMENT
?GetDefaultManager@?$StrTraitMFC@DV?$ChTraitsCRT@D@ATL@@@@SAPAUIAtlStringMgr@ATL@@XZ PROC NEAR ; StrTraitMFC<char,ATL::ChTraitsCRT<char> >::GetDefaultManager, COMDAT

; 50   : 		return( AfxGetStringManager() );

  00000	e9 00 00 00 00	 jmp	 ?AfxGetStringManager@@YGPAUIAtlStringMgr@ATL@@XZ ; AfxGetStringManager
?GetDefaultManager@?$StrTraitMFC@DV?$ChTraitsCRT@D@ATL@@@@SAPAUIAtlStringMgr@ATL@@XZ ENDP ; StrTraitMFC<char,ATL::ChTraitsCRT<char> >::GetDefaultManager
_TEXT	ENDS
PUBLIC	?StringFindString@?$ChTraitsCRT@D@ATL@@SAPBDPBD0@Z ; ATL::ChTraitsCRT<char>::StringFindString
EXTRN	__mbsstr:NEAR
; Function compile flags: /Ogty
; File c:\program files\microsoft visual studio .net 2003\vc7\atlmfc\include\cstringt.h
;	COMDAT ?StringFindString@?$ChTraitsCRT@D@ATL@@SAPBDPBD0@Z
_TEXT	SEGMENT
_pszBlock$ = 8						; size = 4
_pszMatch$ = 12						; size = 4
?StringFindString@?$ChTraitsCRT@D@ATL@@SAPBDPBD0@Z PROC NEAR ; ATL::ChTraitsCRT<char>::StringFindString, COMDAT

; 356  : 		return reinterpret_cast< LPCSTR >( _mbsstr( reinterpret_cast< const unsigned char* >( pszBlock ),
; 357  : 			reinterpret_cast< const unsigned char* >( pszMatch ) ) );

  00000	e9 00 00 00 00	 jmp	 __mbsstr
?StringFindString@?$ChTraitsCRT@D@ATL@@SAPBDPBD0@Z ENDP	; ATL::ChTraitsCRT<char>::StringFindString
_TEXT	ENDS
PUBLIC	?_Myptr@?$basic_string@DU?$char_traits@D@std@@V?$allocator@D@2@@std@@QBEPBDXZ ; std::basic_string<char,std::char_traits<char>,std::allocator<char> >::_Myptr
; Function compile flags: /Ogty
; File c:\program files\microsoft visual studio .net 2003\vc7\include\xstring
;	COMDAT ?_Myptr@?$basic_string@DU?$char_traits@D@std@@V?$allocator@D@2@@std@@QBEPBDXZ
_TEXT	SEGMENT
?_Myptr@?$basic_string@DU?$char_traits@D@std@@V?$allocator@D@2@@std@@QBEPBDXZ PROC NEAR ; std::basic_string<char,std::char_traits<char>,std::allocator<char> >::_Myptr, COMDAT
; _this$ = ecx

; 1537 : 		return (_BUF_SIZE <= _Myres ? _Bx._Ptr : _Bx._Buf);

  00000	83 79 18 10	 cmp	 DWORD PTR [ecx+24], 16	; 00000010H
  00004	72 04		 jb	 SHORT $L190548
  00006	8b 41 04	 mov	 eax, DWORD PTR [ecx+4]

; 1538 : 		}

  00009	c3		 ret	 0
$L190548:

; 1537 : 		return (_BUF_SIZE <= _Myres ? _Bx._Ptr : _Bx._Buf);

  0000a	8d 41 04	 lea	 eax, DWORD PTR [ecx+4]

; 1538 : 		}

  0000d	c3		 ret	 0
?_Myptr@?$basic_string@DU?$char_traits@D@std@@V?$allocator@D@2@@std@@QBEPBDXZ ENDP ; std::basic_string<char,std::char_traits<char>,std::allocator<char> >::_Myptr
_TEXT	ENDS
PUBLIC	??0?$allocator@D@std@@QAE@XZ			; std::allocator<char>::allocator<char>
; Function compile flags: /Ogty
; File c:\program files\microsoft visual studio .net 2003\vc7\include\xmemory
;	COMDAT ??0?$allocator@D@std@@QAE@XZ
_TEXT	SEGMENT
??0?$allocator@D@std@@QAE@XZ PROC NEAR			; std::allocator<char>::allocator<char>, COMDAT
; _this$ = ecx

; 111  : 	allocator()

  00000	8b c1		 mov	 eax, ecx

; 112  : 		{	// construct default allocator (do nothing)
; 113  : 		}

  00002	c3		 ret	 0
??0?$allocator@D@std@@QAE@XZ ENDP			; std::allocator<char>::allocator<char>
_TEXT	ENDS
PUBLIC	??0?$allocator@D@std@@QAE@ABV01@@Z		; std::allocator<char>::allocator<char>
; Function compile flags: /Ogty
;	COMDAT ??0?$allocator@D@std@@QAE@ABV01@@Z
_TEXT	SEGMENT
___formal$ = 8						; size = 4
??0?$allocator@D@std@@QAE@ABV01@@Z PROC NEAR		; std::allocator<char>::allocator<char>, COMDAT
; _this$ = ecx

; 115  : 	allocator(const allocator<_Ty>&)

  00000	8b c1		 mov	 eax, ecx

; 116  : 		{	// construct by copying (do nothing)
; 117  : 		}

  00002	c2 04 00	 ret	 4
??0?$allocator@D@std@@QAE@ABV01@@Z ENDP			; std::allocator<char>::allocator<char>
_TEXT	ENDS
PUBLIC	?Attach@?$CSimpleStringT@D$0A@@ATL@@AAEXPAUCStringData@2@@Z ; ATL::CSimpleStringT<char,0>::Attach
; Function compile flags: /Ogty
; File c:\program files\microsoft visual studio .net 2003\vc7\atlmfc\include\atlsimpstr.h
;	COMDAT ?Attach@?$CSimpleStringT@D$0A@@ATL@@AAEXPAUCStringData@2@@Z
_TEXT	SEGMENT
_pData$ = 8						; size = 4
?Attach@?$CSimpleStringT@D$0A@@ATL@@AAEXPAUCStringData@2@@Z PROC NEAR ; ATL::CSimpleStringT<char,0>::Attach, COMDAT
; _this$ = ecx

; 712  : 		m_pszData = static_cast< PXSTR >( pData->data() );

  00000	8b 44 24 04	 mov	 eax, DWORD PTR _pData$[esp-4]
  00004	83 c0 10	 add	 eax, 16			; 00000010H
  00007	89 01		 mov	 DWORD PTR [ecx], eax

; 713  : 	}

  00009	c2 04 00	 ret	 4
?Attach@?$CSimpleStringT@D$0A@@ATL@@AAEXPAUCStringData@2@@Z ENDP ; ATL::CSimpleStringT<char,0>::Attach
_TEXT	ENDS
PUBLIC	?GetBaseTypeLength@?$ChTraitsCRT@D@ATL@@SAHPBGH@Z ; ATL::ChTraitsCRT<char>::GetBaseTypeLength
EXTRN	__imp__WideCharToMultiByte@32:NEAR
; Function compile flags: /Ogty
; File c:\program files\microsoft visual studio .net 2003\vc7\atlmfc\include\cstringt.h
;	COMDAT ?GetBaseTypeLength@?$ChTraitsCRT@D@ATL@@SAHPBGH@Z
_TEXT	SEGMENT
_pszSource$ = 8						; size = 4
_nLength$ = 12						; size = 4
?GetBaseTypeLength@?$ChTraitsCRT@D@ATL@@SAHPBGH@Z PROC NEAR ; ATL::ChTraitsCRT<char>::GetBaseTypeLength, COMDAT

; 437  : 		// Returns required buffer length in XCHARs
; 438  : 		return ::WideCharToMultiByte( _AtlGetConversionACP(), 0, pszSource, nLength, NULL, 0, NULL, NULL );

  00000	ff 15 00 00 00
	00		 call	 DWORD PTR ?g_pfnGetThreadACP@ATL@@3P6GIXZA ; ATL::g_pfnGetThreadACP
  00006	8b 4c 24 08	 mov	 ecx, DWORD PTR _nLength$[esp-4]
  0000a	8b 54 24 04	 mov	 edx, DWORD PTR _pszSource$[esp-4]
  0000e	6a 00		 push	 0
  00010	6a 00		 push	 0
  00012	6a 00		 push	 0
  00014	6a 00		 push	 0
  00016	51		 push	 ecx
  00017	52		 push	 edx
  00018	6a 00		 push	 0
  0001a	50		 push	 eax
  0001b	ff 15 00 00 00
	00		 call	 DWORD PTR __imp__WideCharToMultiByte@32

; 439  : 	}

  00021	c3		 ret	 0
?GetBaseTypeLength@?$ChTraitsCRT@D@ATL@@SAHPBGH@Z ENDP	; ATL::ChTraitsCRT<char>::GetBaseTypeLength
_TEXT	ENDS
PUBLIC	?ConvertToBaseType@?$ChTraitsCRT@D@ATL@@SAXPADHPBGH@Z ; ATL::ChTraitsCRT<char>::ConvertToBaseType
; Function compile flags: /Ogty
;	COMDAT ?ConvertToBaseType@?$ChTraitsCRT@D@ATL@@SAXPADHPBGH@Z
_TEXT	SEGMENT
_pszDest$ = 8						; size = 4
_nDestLength$ = 12					; size = 4
_pszSrc$ = 16						; size = 4
_nSrcLength$ = 20					; size = 4
?ConvertToBaseType@?$ChTraitsCRT@D@ATL@@SAXPADHPBGH@Z PROC NEAR ; ATL::ChTraitsCRT<char>::ConvertToBaseType, COMDAT

; 452  : 		// nLen is in XCHARs
; 453  : 		::WideCharToMultiByte( _AtlGetConversionACP(), 0, pszSrc, nSrcLength, pszDest, nDestLength, NULL, NULL );

  00000	8b 44 24 08	 mov	 eax, DWORD PTR _nDestLength$[esp-4]
  00004	8b 4c 24 04	 mov	 ecx, DWORD PTR _pszDest$[esp-4]
  00008	8b 54 24 10	 mov	 edx, DWORD PTR _nSrcLength$[esp-4]
  0000c	6a 00		 push	 0
  0000e	6a 00		 push	 0
  00010	50		 push	 eax
  00011	8b 44 24 18	 mov	 eax, DWORD PTR _pszSrc$[esp+8]
  00015	51		 push	 ecx
  00016	52		 push	 edx
  00017	50		 push	 eax
  00018	6a 00		 push	 0
  0001a	ff 15 00 00 00
	00		 call	 DWORD PTR ?g_pfnGetThreadACP@ATL@@3P6GIXZA ; ATL::g_pfnGetThreadACP
  00020	50		 push	 eax
  00021	ff 15 00 00 00
	00		 call	 DWORD PTR __imp__WideCharToMultiByte@32

; 454  : 	}

  00027	c3		 ret	 0
?ConvertToBaseType@?$ChTraitsCRT@D@ATL@@SAXPADHPBGH@Z ENDP ; ATL::ChTraitsCRT<char>::ConvertToBaseType
_TEXT	ENDS
PUBLIC	?_Myptr@?$basic_string@DU?$char_traits@D@std@@V?$allocator@D@2@@std@@QAEPADXZ ; std::basic_string<char,std::char_traits<char>,std::allocator<char> >::_Myptr
; Function compile flags: /Ogty
; File c:\program files\microsoft visual studio .net 2003\vc7\include\xstring
;	COMDAT ?_Myptr@?$basic_string@DU?$char_traits@D@std@@V?$allocator@D@2@@std@@QAEPADXZ
_TEXT	SEGMENT
?_Myptr@?$basic_string@DU?$char_traits@D@std@@V?$allocator@D@2@@std@@QAEPADXZ PROC NEAR ; std::basic_string<char,std::char_traits<char>,std::allocator<char> >::_Myptr, COMDAT
; _this$ = ecx

; 1532 : 		return (_BUF_SIZE <= _Myres ? _Bx._Ptr : _Bx._Buf);

  00000	83 79 18 10	 cmp	 DWORD PTR [ecx+24], 16	; 00000010H
  00004	72 04		 jb	 SHORT $L190572
  00006	8b 41 04	 mov	 eax, DWORD PTR [ecx+4]

; 1533 : 		}

  00009	c3		 ret	 0
$L190572:

; 1532 : 		return (_BUF_SIZE <= _Myres ? _Bx._Ptr : _Bx._Buf);

  0000a	8d 41 04	 lea	 eax, DWORD PTR [ecx+4]

; 1533 : 		}

  0000d	c3		 ret	 0
?_Myptr@?$basic_string@DU?$char_traits@D@std@@V?$allocator@D@2@@std@@QAEPADXZ ENDP ; std::basic_string<char,std::char_traits<char>,std::allocator<char> >::_Myptr
_TEXT	ENDS
PUBLIC	?deallocate@?$allocator@D@std@@QAEXPADI@Z	; std::allocator<char>::deallocate
; Function compile flags: /Ogty
; File c:\program files\microsoft visual studio .net 2003\vc7\include\xmemory
;	COMDAT ?deallocate@?$allocator@D@std@@QAEXPADI@Z
_TEXT	SEGMENT
__Ptr$ = 8						; size = 4
___formal$ = 12						; size = 4
?deallocate@?$allocator@D@std@@QAEXPADI@Z PROC NEAR	; std::allocator<char>::deallocate, COMDAT
; _this$ = ecx

; 132  : 		operator delete(_Ptr);

  00000	8b 44 24 04	 mov	 eax, DWORD PTR __Ptr$[esp-4]
  00004	50		 push	 eax
  00005	e8 00 00 00 00	 call	 ??3@YAXPAX@Z		; operator delete
  0000a	59		 pop	 ecx

; 133  : 		}

  0000b	c2 08 00	 ret	 8
?deallocate@?$allocator@D@std@@QAEXPADI@Z ENDP		; std::allocator<char>::deallocate
_TEXT	ENDS
PUBLIC	?CopyChars@?$CSimpleStringT@D$0A@@ATL@@SAXPADPBDH@Z ; ATL::CSimpleStringT<char,0>::CopyChars
; Function compile flags: /Ogty
; File c:\program files\microsoft visual studio .net 2003\vc7\atlmfc\include\atlsimpstr.h
;	COMDAT ?CopyChars@?$CSimpleStringT@D$0A@@ATL@@SAXPADPBDH@Z
_TEXT	SEGMENT
_pchDest$ = 8						; size = 4
_pchSrc$ = 12						; size = 4
_nChars$ = 16						; size = 4
?CopyChars@?$CSimpleStringT@D$0A@@ATL@@SAXPADPBDH@Z PROC NEAR ; ATL::CSimpleStringT<char,0>::CopyChars, COMDAT

; 653  : 		memcpy( pchDest, pchSrc, nChars*sizeof( XCHAR ) );

  00000	8b 4c 24 0c	 mov	 ecx, DWORD PTR _nChars$[esp-4]
  00004	56		 push	 esi
  00005	8b 74 24 0c	 mov	 esi, DWORD PTR _pchSrc$[esp]
  00009	8b c1		 mov	 eax, ecx
  0000b	57		 push	 edi
  0000c	8b 7c 24 0c	 mov	 edi, DWORD PTR _pchDest$[esp+4]
  00010	c1 e9 02	 shr	 ecx, 2
  00013	f3 a5		 rep movsd
  00015	8b c8		 mov	 ecx, eax
  00017	83 e1 03	 and	 ecx, 3
  0001a	f3 a4		 rep movsb
  0001c	5f		 pop	 edi
  0001d	5e		 pop	 esi

; 654  : 	}

  0001e	c3		 ret	 0
?CopyChars@?$CSimpleStringT@D$0A@@ATL@@SAXPADPBDH@Z ENDP ; ATL::CSimpleStringT<char,0>::CopyChars
_TEXT	ENDS
PUBLIC	?CopyCharsOverlapped@?$CSimpleStringT@D$0A@@ATL@@SAXPADPBDH@Z ; ATL::CSimpleStringT<char,0>::CopyCharsOverlapped
; Function compile flags: /Ogty
;	COMDAT ?CopyCharsOverlapped@?$CSimpleStringT@D$0A@@ATL@@SAXPADPBDH@Z
_TEXT	SEGMENT
_pchDest$ = 8						; size = 4
_pchSrc$ = 12						; size = 4
_nChars$ = 16						; size = 4
?CopyCharsOverlapped@?$CSimpleStringT@D$0A@@ATL@@SAXPADPBDH@Z PROC NEAR ; ATL::CSimpleStringT<char,0>::CopyCharsOverlapped, COMDAT

; 657  : 		memmove( pchDest, pchSrc, nChars*sizeof( XCHAR ) );

  00000	e9 00 00 00 00	 jmp	 _memmove
?CopyCharsOverlapped@?$CSimpleStringT@D$0A@@ATL@@SAXPADPBDH@Z ENDP ; ATL::CSimpleStringT<char,0>::CopyCharsOverlapped
_TEXT	ENDS
PUBLIC	?ThrowMemoryException@?$CSimpleStringT@D$0A@@ATL@@KAXXZ ; ATL::CSimpleStringT<char,0>::ThrowMemoryException
; Function compile flags: /Ogty
;	COMDAT ?ThrowMemoryException@?$CSimpleStringT@D$0A@@ATL@@KAXXZ
_TEXT	SEGMENT
?ThrowMemoryException@?$CSimpleStringT@D$0A@@ATL@@KAXXZ PROC NEAR ; ATL::CSimpleStringT<char,0>::ThrowMemoryException, COMDAT

; 705  : 		AtlThrow( E_OUTOFMEMORY );

  00000	68 0e 00 07 80	 push	 -2147024882		; 8007000eH
  00005	e8 00 00 00 00	 call	 ?AtlThrow@ATL@@YGXJ@Z	; ATL::AtlThrow
$L190582:
  0000a	cc		 int	 3
?ThrowMemoryException@?$CSimpleStringT@D$0A@@ATL@@KAXXZ ENDP ; ATL::CSimpleStringT<char,0>::ThrowMemoryException
_TEXT	ENDS
PUBLIC	?Fork@?$CSimpleStringT@D$0A@@ATL@@AAEXH@Z	; ATL::CSimpleStringT<char,0>::Fork
; Function compile flags: /Ogty
;	COMDAT ?Fork@?$CSimpleStringT@D$0A@@ATL@@AAEXH@Z
_TEXT	SEGMENT
_this$ = -4						; size = 4
tv181 = 8						; size = 4
_nLength$ = 8						; size = 4
?Fork@?$CSimpleStringT@D$0A@@ATL@@AAEXH@Z PROC NEAR	; ATL::CSimpleStringT<char,0>::Fork, COMDAT
; _this$ = ecx

; 715  : 	{

  00000	51		 push	 ecx
  00001	53		 push	 ebx

; 716  : 		CStringData* pOldData = GetData();

  00002	8b 19		 mov	 ebx, DWORD PTR [ecx]
  00004	83 eb 10	 sub	 ebx, 16			; 00000010H
  00007	55		 push	 ebp

; 717  : 		int nOldLength = pOldData->nDataLength;

  00008	8b 6b 04	 mov	 ebp, DWORD PTR [ebx+4]
  0000b	89 4c 24 08	 mov	 DWORD PTR _this$[esp+12], ecx

; 718  : 		CStringData* pNewData = pOldData->pStringMgr->Clone()->Allocate( nLength, sizeof( XCHAR ) );

  0000f	8b 0b		 mov	 ecx, DWORD PTR [ebx]
  00011	8b 01		 mov	 eax, DWORD PTR [ecx]
  00013	56		 push	 esi
  00014	ff 50 10	 call	 DWORD PTR [eax+16]
  00017	8b 74 24 14	 mov	 esi, DWORD PTR _nLength$[esp+12]
  0001b	8b 10		 mov	 edx, DWORD PTR [eax]
  0001d	6a 01		 push	 1
  0001f	56		 push	 esi
  00020	8b c8		 mov	 ecx, eax
  00022	ff 12		 call	 DWORD PTR [edx]

; 719  : 		if( pNewData == NULL )

  00024	85 c0		 test	 eax, eax
  00026	75 05		 jne	 SHORT $L185534

; 720  : 		{
; 721  : 			ThrowMemoryException();

  00028	e8 00 00 00 00	 call	 ?ThrowMemoryException@?$CSimpleStringT@D$0A@@ATL@@KAXXZ ; ATL::CSimpleStringT<char,0>::ThrowMemoryException
$L185534:

; 722  : 		}
; 723  : 		int nCharsToCopy = ((nOldLength < nLength) ? nOldLength : nLength)+1;  // Copy '\0'

  0002d	3b ee		 cmp	 ebp, esi
  0002f	7d 02		 jge	 SHORT $L190586
  00031	8b f5		 mov	 esi, ebp
$L190586:
  00033	8d 4e 01	 lea	 ecx, DWORD PTR [esi+1]

; 724  : 		CopyChars( PXSTR( pNewData->data() ), PCXSTR( pOldData->data() ), nCharsToCopy );

  00036	8b d1		 mov	 edx, ecx
  00038	57		 push	 edi
  00039	c1 e9 02	 shr	 ecx, 2
  0003c	8d 78 10	 lea	 edi, DWORD PTR [eax+16]
  0003f	89 7c 24 18	 mov	 DWORD PTR tv181[esp+16], edi
  00043	8d 73 10	 lea	 esi, DWORD PTR [ebx+16]
  00046	f3 a5		 rep movsd
  00048	8b ca		 mov	 ecx, edx
  0004a	83 e1 03	 and	 ecx, 3
  0004d	f3 a4		 rep movsb

; 725  : 		pNewData->nDataLength = nOldLength;

  0004f	89 68 04	 mov	 DWORD PTR [eax+4], ebp

; 726  : 		pOldData->Release();

  00052	8d 43 0c	 lea	 eax, DWORD PTR [ebx+12]
  00055	83 c9 ff	 or	 ecx, -1
  00058	f0 0f c1 08	 lock	  xadd	 DWORD PTR [eax], ecx
  0005c	49		 dec	 ecx
  0005d	85 c9		 test	 ecx, ecx
  0005f	5f		 pop	 edi
  00060	7f 08		 jg	 SHORT $L190602
  00062	8b 0b		 mov	 ecx, DWORD PTR [ebx]
  00064	8b 11		 mov	 edx, DWORD PTR [ecx]
  00066	53		 push	 ebx
  00067	ff 52 04	 call	 DWORD PTR [edx+4]
$L190602:

; 727  : 		Attach( pNewData );

  0006a	8b 44 24 14	 mov	 eax, DWORD PTR tv181[esp+12]
  0006e	8b 4c 24 0c	 mov	 ecx, DWORD PTR _this$[esp+16]
  00072	5e		 pop	 esi
  00073	5d		 pop	 ebp
  00074	89 01		 mov	 DWORD PTR [ecx], eax
  00076	5b		 pop	 ebx

; 728  : 	}

  00077	59		 pop	 ecx
  00078	c2 04 00	 ret	 4
$L190611:
?Fork@?$CSimpleStringT@D$0A@@ATL@@AAEXH@Z ENDP		; ATL::CSimpleStringT<char,0>::Fork
_TEXT	ENDS
PUBLIC	?Reallocate@?$CSimpleStringT@D$0A@@ATL@@AAEXH@Z	; ATL::CSimpleStringT<char,0>::Reallocate
; Function compile flags: /Ogty
;	COMDAT ?Reallocate@?$CSimpleStringT@D$0A@@ATL@@AAEXH@Z
_TEXT	SEGMENT
_nLength$ = 8						; size = 4
?Reallocate@?$CSimpleStringT@D$0A@@ATL@@AAEXH@Z PROC NEAR ; ATL::CSimpleStringT<char,0>::Reallocate, COMDAT
; _this$ = ecx

; 776  : 	{

  00000	56		 push	 esi
  00001	57		 push	 edi

; 777  : 		CStringData* pOldData = GetData();
; 778  : 		ATLASSERT( pOldData->nAllocLength < nLength );
; 779  : 		IAtlStringMgr* pStringMgr = pOldData->pStringMgr;
; 780  : 		CStringData* pNewData = pStringMgr->Reallocate( pOldData, nLength, sizeof( XCHAR ) );

  00002	8b 7c 24 0c	 mov	 edi, DWORD PTR _nLength$[esp+4]
  00006	8b f1		 mov	 esi, ecx
  00008	8b 06		 mov	 eax, DWORD PTR [esi]
  0000a	8b 48 f0	 mov	 ecx, DWORD PTR [eax-16]
  0000d	8b 11		 mov	 edx, DWORD PTR [ecx]
  0000f	83 e8 10	 sub	 eax, 16			; 00000010H
  00012	6a 01		 push	 1
  00014	57		 push	 edi
  00015	50		 push	 eax
  00016	ff 52 08	 call	 DWORD PTR [edx+8]

; 781  : 		if( pNewData == NULL )

  00019	85 c0		 test	 eax, eax
  0001b	75 05		 jne	 SHORT $L185543

; 782  : 		{
; 783  : 			ThrowMemoryException();

  0001d	e8 00 00 00 00	 call	 ?ThrowMemoryException@?$CSimpleStringT@D$0A@@ATL@@KAXXZ ; ATL::CSimpleStringT<char,0>::ThrowMemoryException
$L185543:

; 784  : 		}
; 785  : 		Attach( pNewData );

  00022	83 c0 10	 add	 eax, 16			; 00000010H
  00025	5f		 pop	 edi
  00026	89 06		 mov	 DWORD PTR [esi], eax
  00028	5e		 pop	 esi

; 786  : 	}

  00029	c2 04 00	 ret	 4
$L190625:
?Reallocate@?$CSimpleStringT@D$0A@@ATL@@AAEXH@Z ENDP	; ATL::CSimpleStringT<char,0>::Reallocate
_TEXT	ENDS
PUBLIC	?_Inside@?$basic_string@DU?$char_traits@D@std@@V?$allocator@D@2@@std@@IAE_NPBD@Z ; std::basic_string<char,std::char_traits<char>,std::allocator<char> >::_Inside
; Function compile flags: /Ogty
; File c:\program files\microsoft visual studio .net 2003\vc7\include\xstring
;	COMDAT ?_Inside@?$basic_string@DU?$char_traits@D@std@@V?$allocator@D@2@@std@@IAE_NPBD@Z
_TEXT	SEGMENT
__Ptr$ = 8						; size = 4
?_Inside@?$basic_string@DU?$char_traits@D@std@@V?$allocator@D@2@@std@@IAE_NPBD@Z PROC NEAR ; std::basic_string<char,std::char_traits<char>,std::allocator<char> >::_Inside, COMDAT
; _this$ = ecx

; 1494 : 		{	// test if _Ptr points inside string

  00000	56		 push	 esi

; 1495 : 		if (_Ptr < _Myptr() || _Myptr() + _Mysize <= _Ptr)

  00001	8b 71 18	 mov	 esi, DWORD PTR [ecx+24]
  00004	83 fe 10	 cmp	 esi, 16			; 00000010H
  00007	57		 push	 edi
  00008	8d 41 04	 lea	 eax, DWORD PTR [ecx+4]
  0000b	72 04		 jb	 SHORT $L190632
  0000d	8b 10		 mov	 edx, DWORD PTR [eax]
  0000f	eb 02		 jmp	 SHORT $L190633
$L190632:
  00011	8b d0		 mov	 edx, eax
$L190633:
  00013	8b 7c 24 0c	 mov	 edi, DWORD PTR __Ptr$[esp+4]
  00017	3b fa		 cmp	 edi, edx
  00019	72 17		 jb	 SHORT $L185560
  0001b	83 fe 10	 cmp	 esi, 16			; 00000010H
  0001e	72 02		 jb	 SHORT $L190640
  00020	8b 00		 mov	 eax, DWORD PTR [eax]
$L190640:
  00022	8b 49 14	 mov	 ecx, DWORD PTR [ecx+20]
  00025	03 c8		 add	 ecx, eax
  00027	3b cf		 cmp	 ecx, edi
  00029	76 07		 jbe	 SHORT $L185560
  0002b	5f		 pop	 edi

; 1497 : 		else
; 1498 : 			return (true);

  0002c	b0 01		 mov	 al, 1
  0002e	5e		 pop	 esi

; 1499 : 		}

  0002f	c2 04 00	 ret	 4
$L185560:
  00032	5f		 pop	 edi

; 1496 : 			return (false);	// don't ask

  00033	32 c0		 xor	 al, al
  00035	5e		 pop	 esi

; 1499 : 		}

  00036	c2 04 00	 ret	 4
?_Inside@?$basic_string@DU?$char_traits@D@std@@V?$allocator@D@2@@std@@IAE_NPBD@Z ENDP ; std::basic_string<char,std::char_traits<char>,std::allocator<char> >::_Inside
_TEXT	ENDS
PUBLIC	?max_size@?$allocator@D@std@@QBEIXZ		; std::allocator<char>::max_size
; Function compile flags: /Ogty
; File c:\program files\microsoft visual studio .net 2003\vc7\include\xmemory
;	COMDAT ?max_size@?$allocator@D@std@@QBEIXZ
_TEXT	SEGMENT
?max_size@?$allocator@D@std@@QBEIXZ PROC NEAR		; std::allocator<char>::max_size, COMDAT
; _this$ = ecx

; 157  : 		_SIZT _Count = (_SIZT)(-1) / sizeof (_Ty);
; 158  : 		return (0 < _Count ? _Count : 1);

  00000	83 c8 ff	 or	 eax, -1

; 159  : 		}

  00003	c3		 ret	 0
?max_size@?$allocator@D@std@@QBEIXZ ENDP		; std::allocator<char>::max_size
_TEXT	ENDS
PUBLIC	??$swap@D@std@@YAXAAD0@Z			; std::swap<char>
; Function compile flags: /Ogty
; File c:\program files\microsoft visual studio .net 2003\vc7\include\utility
;	COMDAT ??$swap@D@std@@YAXAAD0@Z
_TEXT	SEGMENT
__Left$ = 8						; size = 4
__Right$ = 12						; size = 4
??$swap@D@std@@YAXAAD0@Z PROC NEAR			; std::swap<char>, COMDAT

; 15   : 	_Ty _Tmp = _Left;

  00000	8b 44 24 04	 mov	 eax, DWORD PTR __Left$[esp-4]
  00004	8a 08		 mov	 cl, BYTE PTR [eax]
  00006	56		 push	 esi

; 16   : 	_Left = _Right, _Right = _Tmp;

  00007	8b 74 24 0c	 mov	 esi, DWORD PTR __Right$[esp]
  0000b	8a 16		 mov	 dl, BYTE PTR [esi]
  0000d	88 10		 mov	 BYTE PTR [eax], dl
  0000f	88 0e		 mov	 BYTE PTR [esi], cl
  00011	5e		 pop	 esi

; 17   : 	}

  00012	c3		 ret	 0
??$swap@D@std@@YAXAAD0@Z ENDP				; std::swap<char>
_TEXT	ENDS
PUBLIC	??$_Allocate@D@std@@YAPADIPAD@Z			; std::_Allocate<char>
; Function compile flags: /Ogty
; File c:\program files\microsoft visual studio .net 2003\vc7\include\xmemory
;	COMDAT ??$_Allocate@D@std@@YAPADIPAD@Z
_TEXT	SEGMENT
__Count$ = 8						; size = 4
___formal$ = 12						; size = 4
??$_Allocate@D@std@@YAPADIPAD@Z PROC NEAR		; std::_Allocate<char>, COMDAT

; 34   : 	return ((_Ty _FARQ *)operator new(_Count * sizeof (_Ty)));

  00000	8b 44 24 04	 mov	 eax, DWORD PTR __Count$[esp-4]
  00004	50		 push	 eax
  00005	e8 00 00 00 00	 call	 ??2@YAPAXI@Z		; operator new
  0000a	83 c4 04	 add	 esp, 4

; 35   : 	}

  0000d	c3		 ret	 0
??$_Allocate@D@std@@YAPADIPAD@Z ENDP			; std::_Allocate<char>
; Function compile flags: /Ogty
_TEXT	ENDS
;	COMDAT ??_GCXMasEvent@@UAEPAXI@Z
_TEXT	SEGMENT
___flags$ = 8						; size = 4
??_GCXMasEvent@@UAEPAXI@Z PROC NEAR			; CXMasEvent::`scalar deleting destructor', COMDAT
; _this$ = ecx
  00000	56		 push	 esi
  00001	8b f1		 mov	 esi, ecx
  00003	e8 00 00 00 00	 call	 ??1CXMasEvent@@UAE@XZ	; CXMasEvent::~CXMasEvent
  00008	f6 44 24 08 01	 test	 BYTE PTR ___flags$[esp], 1
  0000d	74 09		 je	 SHORT $L190652
  0000f	56		 push	 esi
  00010	e8 00 00 00 00	 call	 ??3@YAXPAX@Z		; operator delete
  00015	83 c4 04	 add	 esp, 4
$L190652:
  00018	8b c6		 mov	 eax, esi
  0001a	5e		 pop	 esi
  0001b	c2 04 00	 ret	 4
??_GCXMasEvent@@UAEPAXI@Z ENDP				; CXMasEvent::`scalar deleting destructor'
_TEXT	ENDS
PUBLIC	?GetInstance@CXMasEvent@@SAPAV1@XZ		; CXMasEvent::GetInstance
EXTRN	_atexit:NEAR
;	COMDAT ?sXMasEvent@?1??GetInstance@CXMasEvent@@SAPAV2@XZ@4V2@A
; File c:\documents and settings\test\mes documents\source\virtuos_v17\build\program\_common\spevent.h
_BSS	SEGMENT
?sXMasEvent@?1??GetInstance@CXMasEvent@@SAPAV2@XZ@4V2@A DB 06cH DUP (?) ; `CXMasEvent::GetInstance'::`2'::sXMasEvent
_BSS	ENDS
;	COMDAT ?$S1@?1??GetInstance@CXMasEvent@@SAPAV2@XZ@4IA
_BSS	SEGMENT
?$S1@?1??GetInstance@CXMasEvent@@SAPAV2@XZ@4IA DD 01H DUP (?) ; `CXMasEvent::GetInstance'::`2'::$S1
; Function compile flags: /Ogty
; File c:\documents and settings\test\mes documents\source\virtuos_v17\build\program\_common\spevent.cpp
_BSS	ENDS
;	COMDAT ?GetInstance@CXMasEvent@@SAPAV1@XZ
_TEXT	SEGMENT
?GetInstance@CXMasEvent@@SAPAV1@XZ PROC NEAR		; CXMasEvent::GetInstance, COMDAT

; 73   : 	static	CXMasEvent	sXMasEvent;

  00000	8a 0d 00 00 00
	00		 mov	 cl, BYTE PTR ?$S1@?1??GetInstance@CXMasEvent@@SAPAV2@XZ@4IA
  00006	b8 01 00 00 00	 mov	 eax, 1
  0000b	84 c8		 test	 cl, al
  0000d	75 45		 jne	 SHORT $L190664
  0000f	8b 15 00 00 00
	00		 mov	 edx, DWORD PTR ?$S1@?1??GetInstance@CXMasEvent@@SAPAV2@XZ@4IA
  00015	0b d0		 or	 edx, eax
  00017	57		 push	 edi
  00018	89 15 00 00 00
	00		 mov	 DWORD PTR ?$S1@?1??GetInstance@CXMasEvent@@SAPAV2@XZ@4IA, edx
  0001e	c7 05 00 00 00
	00 00 00 00 00	 mov	 DWORD PTR ?sXMasEvent@?1??GetInstance@CXMasEvent@@SAPAV2@XZ@4V2@A, OFFSET FLAT:??_7CXMasEvent@@6B@
  00028	ff 15 00 00 00
	00		 call	 DWORD PTR __imp__GetTickCount@0
  0002e	a3 64 00 00 00	 mov	 DWORD PTR ?sXMasEvent@?1??GetInstance@CXMasEvent@@SAPAV2@XZ@4V2@A+100, eax
  00033	33 c0		 xor	 eax, eax
  00035	b9 18 00 00 00	 mov	 ecx, 24			; 00000018H
  0003a	bf 04 00 00 00	 mov	 edi, OFFSET FLAT:?sXMasEvent@?1??GetInstance@CXMasEvent@@SAPAV2@XZ@4V2@A+4
  0003f	f3 ab		 rep stosd
  00041	68 00 00 00 00	 push	 OFFSET FLAT:_$E2
  00046	a3 68 00 00 00	 mov	 DWORD PTR ?sXMasEvent@?1??GetInstance@CXMasEvent@@SAPAV2@XZ@4V2@A+104, eax
  0004b	e8 00 00 00 00	 call	 _atexit
  00050	83 c4 04	 add	 esp, 4
  00053	5f		 pop	 edi
$L190664:

; 74   : 	return	&sXMasEvent;

  00054	b8 00 00 00 00	 mov	 eax, OFFSET FLAT:?sXMasEvent@?1??GetInstance@CXMasEvent@@SAPAV2@XZ@4V2@A

; 75   : }

  00059	c3		 ret	 0
?GetInstance@CXMasEvent@@SAPAV1@XZ ENDP			; CXMasEvent::GetInstance
_TEXT	ENDS
PUBLIC	??Eiterator@?$list@PAU_EVENT_GENERIC@@V?$allocator@PAU_EVENT_GENERIC@@@std@@@std@@QAEAAV012@XZ ; std::list<_EVENT_GENERIC *,std::allocator<_EVENT_GENERIC *> >::iterator::operator++
; Function compile flags: /Ogty
; File c:\program files\microsoft visual studio .net 2003\vc7\include\list
;	COMDAT ??Eiterator@?$list@PAU_EVENT_GENERIC@@V?$allocator@PAU_EVENT_GENERIC@@@std@@@std@@QAEAAV012@XZ
_TEXT	SEGMENT
??Eiterator@?$list@PAU_EVENT_GENERIC@@V?$allocator@PAU_EVENT_GENERIC@@@std@@@std@@QAEAAV012@XZ PROC NEAR ; std::list<_EVENT_GENERIC *,std::allocator<_EVENT_GENERIC *> >::iterator::operator++, COMDAT
; _this$ = ecx

; 249  : 			{	// preincrement

  00000	8b c1		 mov	 eax, ecx

; 250  : 			++(*(const_iterator *)this);

  00002	8b 08		 mov	 ecx, DWORD PTR [eax]
  00004	8b 11		 mov	 edx, DWORD PTR [ecx]
  00006	89 10		 mov	 DWORD PTR [eax], edx

; 251  : 			return (*this);
; 252  : 			}

  00008	c3		 ret	 0
??Eiterator@?$list@PAU_EVENT_GENERIC@@V?$allocator@PAU_EVENT_GENERIC@@@std@@@std@@QAEAAV012@XZ ENDP ; std::list<_EVENT_GENERIC *,std::allocator<_EVENT_GENERIC *> >::iterator::operator++
_TEXT	ENDS
PUBLIC	??9const_iterator@?$list@PAU_EVENT_GENERIC@@V?$allocator@PAU_EVENT_GENERIC@@@std@@@std@@QBE_NABV012@@Z ; std::list<_EVENT_GENERIC *,std::allocator<_EVENT_GENERIC *> >::const_iterator::operator!=
; Function compile flags: /Ogty
;	COMDAT ??9const_iterator@?$list@PAU_EVENT_GENERIC@@V?$allocator@PAU_EVENT_GENERIC@@@std@@@std@@QBE_NABV012@@Z
_TEXT	SEGMENT
__Right$ = 8						; size = 4
??9const_iterator@?$list@PAU_EVENT_GENERIC@@V?$allocator@PAU_EVENT_GENERIC@@@std@@@std@@QBE_NABV012@@Z PROC NEAR ; std::list<_EVENT_GENERIC *,std::allocator<_EVENT_GENERIC *> >::const_iterator::operator!=, COMDAT
; _this$ = ecx

; 202  : 			return (!(*this == _Right));

  00000	8b 01		 mov	 eax, DWORD PTR [ecx]
  00002	8b 54 24 04	 mov	 edx, DWORD PTR __Right$[esp-4]
  00006	56		 push	 esi
  00007	8b 32		 mov	 esi, DWORD PTR [edx]
  00009	33 c9		 xor	 ecx, ecx
  0000b	3b c6		 cmp	 eax, esi
  0000d	0f 95 c1	 setne	 cl
  00010	8a c1		 mov	 al, cl
  00012	5e		 pop	 esi

; 203  : 			}

  00013	c2 04 00	 ret	 4
??9const_iterator@?$list@PAU_EVENT_GENERIC@@V?$allocator@PAU_EVENT_GENERIC@@@std@@@std@@QBE_NABV012@@Z ENDP ; std::list<_EVENT_GENERIC *,std::allocator<_EVENT_GENERIC *> >::const_iterator::operator!=
_TEXT	ENDS
PUBLIC	??Eiterator@?$list@PAVCEventItem@@V?$allocator@PAVCEventItem@@@std@@@std@@QAEAAV012@XZ ; std::list<CEventItem *,std::allocator<CEventItem *> >::iterator::operator++
; Function compile flags: /Ogty
;	COMDAT ??Eiterator@?$list@PAVCEventItem@@V?$allocator@PAVCEventItem@@@std@@@std@@QAEAAV012@XZ
_TEXT	SEGMENT
??Eiterator@?$list@PAVCEventItem@@V?$allocator@PAVCEventItem@@@std@@@std@@QAEAAV012@XZ PROC NEAR ; std::list<CEventItem *,std::allocator<CEventItem *> >::iterator::operator++, COMDAT
; _this$ = ecx

; 249  : 			{	// preincrement

  00000	8b c1		 mov	 eax, ecx

; 250  : 			++(*(const_iterator *)this);

  00002	8b 08		 mov	 ecx, DWORD PTR [eax]
  00004	8b 11		 mov	 edx, DWORD PTR [ecx]
  00006	89 10		 mov	 DWORD PTR [eax], edx

; 251  : 			return (*this);
; 252  : 			}

  00008	c3		 ret	 0
??Eiterator@?$list@PAVCEventItem@@V?$allocator@PAVCEventItem@@@std@@@std@@QAEAAV012@XZ ENDP ; std::list<CEventItem *,std::allocator<CEventItem *> >::iterator::operator++
_TEXT	ENDS
PUBLIC	??9const_iterator@?$list@PAVCEventItem@@V?$allocator@PAVCEventItem@@@std@@@std@@QBE_NABV012@@Z ; std::list<CEventItem *,std::allocator<CEventItem *> >::const_iterator::operator!=
; Function compile flags: /Ogty
;	COMDAT ??9const_iterator@?$list@PAVCEventItem@@V?$allocator@PAVCEventItem@@@std@@@std@@QBE_NABV012@@Z
_TEXT	SEGMENT
__Right$ = 8						; size = 4
??9const_iterator@?$list@PAVCEventItem@@V?$allocator@PAVCEventItem@@@std@@@std@@QBE_NABV012@@Z PROC NEAR ; std::list<CEventItem *,std::allocator<CEventItem *> >::const_iterator::operator!=, COMDAT
; _this$ = ecx

; 202  : 			return (!(*this == _Right));

  00000	8b 01		 mov	 eax, DWORD PTR [ecx]
  00002	8b 54 24 04	 mov	 edx, DWORD PTR __Right$[esp-4]
  00006	56		 push	 esi
  00007	8b 32		 mov	 esi, DWORD PTR [edx]
  00009	33 c9		 xor	 ecx, ecx
  0000b	3b c6		 cmp	 eax, esi
  0000d	0f 95 c1	 setne	 cl
  00010	8a c1		 mov	 al, cl
  00012	5e		 pop	 esi

; 203  : 			}

  00013	c2 04 00	 ret	 4
??9const_iterator@?$list@PAVCEventItem@@V?$allocator@PAVCEventItem@@@std@@@std@@QBE_NABV012@@Z ENDP ; std::list<CEventItem *,std::allocator<CEventItem *> >::const_iterator::operator!=
_TEXT	ENDS
PUBLIC	?Compare@?$CStringT@DV?$StrTraitMFC@DV?$ChTraitsCRT@D@ATL@@@@@ATL@@QBEHPBD@Z ; ATL::CStringT<char,StrTraitMFC<char,ATL::ChTraitsCRT<char> > >::Compare
; Function compile flags: /Ogty
; File c:\program files\microsoft visual studio .net 2003\vc7\atlmfc\include\cstringt.h
;	COMDAT ?Compare@?$CStringT@DV?$StrTraitMFC@DV?$ChTraitsCRT@D@ATL@@@@@ATL@@QBEHPBD@Z
_TEXT	SEGMENT
_psz$ = 8						; size = 4
?Compare@?$CStringT@DV?$StrTraitMFC@DV?$ChTraitsCRT@D@ATL@@@@@ATL@@QBEHPBD@Z PROC NEAR ; ATL::CStringT<char,StrTraitMFC<char,ATL::ChTraitsCRT<char> > >::Compare, COMDAT
; _this$ = ecx

; 1088 : 		ATLASSERT( AtlIsValidString( psz ) );
; 1089 : 		return( StringTraits::StringCompare( GetString(), psz ) );

  00000	8b 44 24 04	 mov	 eax, DWORD PTR _psz$[esp-4]
  00004	8b 09		 mov	 ecx, DWORD PTR [ecx]
  00006	50		 push	 eax
  00007	51		 push	 ecx
  00008	e8 00 00 00 00	 call	 __mbscmp
  0000d	83 c4 08	 add	 esp, 8

; 1090 : 	}

  00010	c2 04 00	 ret	 4
?Compare@?$CStringT@DV?$StrTraitMFC@DV?$ChTraitsCRT@D@ATL@@@@@ATL@@QBEHPBD@Z ENDP ; ATL::CStringT<char,StrTraitMFC<char,ATL::ChTraitsCRT<char> > >::Compare
_TEXT	ENDS
PUBLIC	?StringFindString@?$ChTraitsCRT@D@ATL@@SAPADPADPBD@Z ; ATL::ChTraitsCRT<char>::StringFindString
; Function compile flags: /Ogty
;	COMDAT ?StringFindString@?$ChTraitsCRT@D@ATL@@SAPADPADPBD@Z
_TEXT	SEGMENT
_pszBlock$ = 8						; size = 4
_pszMatch$ = 12						; size = 4
?StringFindString@?$ChTraitsCRT@D@ATL@@SAPADPADPBD@Z PROC NEAR ; ATL::ChTraitsCRT<char>::StringFindString, COMDAT

; 362  : 		return( const_cast< LPSTR >( StringFindString( const_cast< LPCSTR >( pszBlock ), pszMatch ) ) );

  00000	e9 00 00 00 00	 jmp	 __mbsstr
?StringFindString@?$ChTraitsCRT@D@ATL@@SAPADPADPBD@Z ENDP ; ATL::ChTraitsCRT<char>::StringFindString
_TEXT	ENDS
PUBLIC	?destroy@?$allocator@U_Node@?$_List_nod@PAU_EVENT_GENERIC@@V?$allocator@PAU_EVENT_GENERIC@@@std@@@std@@@std@@QAEXPAU_Node@?$_List_nod@PAU_EVENT_GENERIC@@V?$allocator@PAU_EVENT_GENERIC@@@std@@@2@@Z ; std::allocator<std::_List_nod<_EVENT_GENERIC *,std::allocator<_EVENT_GENERIC *> >::_Node>::destroy
; Function compile flags: /Ogty
; File c:\program files\microsoft visual studio .net 2003\vc7\include\xmemory
;	COMDAT ?destroy@?$allocator@U_Node@?$_List_nod@PAU_EVENT_GENERIC@@V?$allocator@PAU_EVENT_GENERIC@@@std@@@std@@@std@@QAEXPAU_Node@?$_List_nod@PAU_EVENT_GENERIC@@V?$allocator@PAU_EVENT_GENERIC@@@std@@@2@@Z
_TEXT	SEGMENT
__Ptr$ = 8						; size = 4
?destroy@?$allocator@U_Node@?$_List_nod@PAU_EVENT_GENERIC@@V?$allocator@PAU_EVENT_GENERIC@@@std@@@std@@@std@@QAEXPAU_Node@?$_List_nod@PAU_EVENT_GENERIC@@V?$allocator@PAU_EVENT_GENERIC@@@std@@@2@@Z PROC NEAR ; std::allocator<std::_List_nod<_EVENT_GENERIC *,std::allocator<_EVENT_GENERIC *> >::_Node>::destroy, COMDAT
; _this$ = ecx

; 152  : 		_Destroy(_Ptr);
; 153  : 		}

  00000	c2 04 00	 ret	 4
?destroy@?$allocator@U_Node@?$_List_nod@PAU_EVENT_GENERIC@@V?$allocator@PAU_EVENT_GENERIC@@@std@@@std@@@std@@QAEXPAU_Node@?$_List_nod@PAU_EVENT_GENERIC@@V?$allocator@PAU_EVENT_GENERIC@@@std@@@2@@Z ENDP ; std::allocator<std::_List_nod<_EVENT_GENERIC *,std::allocator<_EVENT_GENERIC *> >::_Node>::destroy
_TEXT	ENDS
PUBLIC	?_Key@?$_Tree@V?$_Tmap_traits@HPAV?$list@PAVCEventItem@@V?$allocator@PAVCEventItem@@@std@@@std@@U?$less@H@2@V?$allocator@U?$pair@$$CBHPAV?$list@PAVCEventItem@@V?$allocator@PAVCEventItem@@@std@@@std@@@std@@@2@$0A@@std@@@std@@KAABHPAU_Node@?$_Tree_nod@V?$_Tmap_traits@HPAV?$list@PAVCEventItem@@V?$allocator@PAVCEventItem@@@std@@@std@@U?$less@H@2@V?$allocator@U?$pair@$$CBHPAV?$list@PAVCEventItem@@V?$allocator@PAVCEventItem@@@std@@@std@@@std@@@2@$0A@@std@@@2@@Z ; std::_Tree<std::_Tmap_traits<int,std::list<CEventItem *,std::allocator<CEventItem *> > *,std::less<int>,std::allocator<std::pair<int const ,std::list<CEventItem *,std::allocator<CEventItem *> > *> >,0> >::_Key
; Function compile flags: /Ogty
; File c:\program files\microsoft visual studio .net 2003\vc7\include\xtree
;	COMDAT ?_Key@?$_Tree@V?$_Tmap_traits@HPAV?$list@PAVCEventItem@@V?$allocator@PAVCEventItem@@@std@@@std@@U?$less@H@2@V?$allocator@U?$pair@$$CBHPAV?$list@PAVCEventItem@@V?$allocator@PAVCEventItem@@@std@@@std@@@std@@@2@$0A@@std@@@std@@KAABHPAU_Node@?$_Tree_nod@V?$_Tmap_traits@HPAV?$list@PAVCEventItem@@V?$allocator@PAVCEventItem@@@std@@@std@@U?$less@H@2@V?$allocator@U?$pair@$$CBHPAV?$list@PAVCEventItem@@V?$allocator@PAVCEventItem@@@std@@@std@@@std@@@2@$0A@@std@@@2@@Z
_TEXT	SEGMENT
__Pnode$ = 8						; size = 4
?_Key@?$_Tree@V?$_Tmap_traits@HPAV?$list@PAVCEventItem@@V?$allocator@PAVCEventItem@@@std@@@std@@U?$less@H@2@V?$allocator@U?$pair@$$CBHPAV?$list@PAVCEventItem@@V?$allocator@PAVCEventItem@@@std@@@std@@@std@@@2@$0A@@std@@@std@@KAABHPAU_Node@?$_Tree_nod@V?$_Tmap_traits@HPAV?$list@PAVCEventItem@@V?$allocator@PAVCEventItem@@@std@@@std@@U?$less@H@2@V?$allocator@U?$pair@$$CBHPAV?$list@PAVCEventItem@@V?$allocator@PAVCEventItem@@@std@@@std@@@std@@@2@$0A@@std@@@2@@Z PROC NEAR ; std::_Tree<std::_Tmap_traits<int,std::list<CEventItem *,std::allocator<CEventItem *> > *,std::less<int>,std::allocator<std::pair<int const ,std::list<CEventItem *,std::allocator<CEventItem *> > *> >,0> >::_Key, COMDAT

; 142  : 		return (_Mybase::_Kfn(_Myval(_Pnode)));

  00000	8b 44 24 04	 mov	 eax, DWORD PTR __Pnode$[esp-4]
  00004	83 c0 0c	 add	 eax, 12			; 0000000cH

; 143  : 		}

  00007	c3		 ret	 0
?_Key@?$_Tree@V?$_Tmap_traits@HPAV?$list@PAVCEventItem@@V?$allocator@PAVCEventItem@@@std@@@std@@U?$less@H@2@V?$allocator@U?$pair@$$CBHPAV?$list@PAVCEventItem@@V?$allocator@PAVCEventItem@@@std@@@std@@@std@@@2@$0A@@std@@@std@@KAABHPAU_Node@?$_Tree_nod@V?$_Tmap_traits@HPAV?$list@PAVCEventItem@@V?$allocator@PAVCEventItem@@@std@@@std@@U?$less@H@2@V?$allocator@U?$pair@$$CBHPAV?$list@PAVCEventItem@@V?$allocator@PAVCEventItem@@@std@@@std@@@std@@@2@$0A@@std@@@2@@Z ENDP ; std::_Tree<std::_Tmap_traits<int,std::list<CEventItem *,std::allocator<CEventItem *> > *,std::less<int>,std::allocator<std::pair<int const ,std::list<CEventItem *,std::allocator<CEventItem *> > *> >,0> >::_Key
_TEXT	ENDS
PUBLIC	?_Root@?$_Tree@V?$_Tmap_traits@HPAV?$list@PAVCEventItem@@V?$allocator@PAVCEventItem@@@std@@@std@@U?$less@H@2@V?$allocator@U?$pair@$$CBHPAV?$list@PAVCEventItem@@V?$allocator@PAVCEventItem@@@std@@@std@@@std@@@2@$0A@@std@@@std@@IAEAAPAU_Node@?$_Tree_nod@V?$_Tmap_traits@HPAV?$list@PAVCEventItem@@V?$allocator@PAVCEventItem@@@std@@@std@@U?$less@H@2@V?$allocator@U?$pair@$$CBHPAV?$list@PAVCEventItem@@V?$allocator@PAVCEventItem@@@std@@@std@@@std@@@2@$0A@@std@@@2@XZ ; std::_Tree<std::_Tmap_traits<int,std::list<CEventItem *,std::allocator<CEventItem *> > *,std::less<int>,std::allocator<std::pair<int const ,std::list<CEventItem *,std::allocator<CEventItem *> > *> >,0> >::_Root
; Function compile flags: /Ogty
;	COMDAT ?_Root@?$_Tree@V?$_Tmap_traits@HPAV?$list@PAVCEventItem@@V?$allocator@PAVCEventItem@@@std@@@std@@U?$less@H@2@V?$allocator@U?$pair@$$CBHPAV?$list@PAVCEventItem@@V?$allocator@PAVCEventItem@@@std@@@std@@@std@@@2@$0A@@std@@@std@@IAEAAPAU_Node@?$_Tree_nod@V?$_Tmap_traits@HPAV?$list@PAVCEventItem@@V?$allocator@PAVCEventItem@@@std@@@std@@U?$less@H@2@V?$allocator@U?$pair@$$CBHPAV?$list@PAVCEventItem@@V?$allocator@PAVCEventItem@@@std@@@std@@@std@@@2@$0A@@std@@@2@XZ
_TEXT	SEGMENT
?_Root@?$_Tree@V?$_Tmap_traits@HPAV?$list@PAVCEventItem@@V?$allocator@PAVCEventItem@@@std@@@std@@U?$less@H@2@V?$allocator@U?$pair@$$CBHPAV?$list@PAVCEventItem@@V?$allocator@PAVCEventItem@@@std@@@std@@@std@@@2@$0A@@std@@@std@@IAEAAPAU_Node@?$_Tree_nod@V?$_Tmap_traits@HPAV?$list@PAVCEventItem@@V?$allocator@PAVCEventItem@@@std@@@std@@U?$less@H@2@V?$allocator@U?$pair@$$CBHPAV?$list@PAVCEventItem@@V?$allocator@PAVCEventItem@@@std@@@std@@@std@@@2@$0A@@std@@@2@XZ PROC NEAR ; std::_Tree<std::_Tmap_traits<int,std::list<CEventItem *,std::allocator<CEventItem *> > *,std::less<int>,std::allocator<std::pair<int const ,std::list<CEventItem *,std::allocator<CEventItem *> > *> >,0> >::_Root, COMDAT
; _this$ = ecx

; 1059 : 		return (_Parent(_Myhead));

  00000	8b 41 04	 mov	 eax, DWORD PTR [ecx+4]
  00003	83 c0 04	 add	 eax, 4

; 1060 : 		}

  00006	c3		 ret	 0
?_Root@?$_Tree@V?$_Tmap_traits@HPAV?$list@PAVCEventItem@@V?$allocator@PAVCEventItem@@@std@@@std@@U?$less@H@2@V?$allocator@U?$pair@$$CBHPAV?$list@PAVCEventItem@@V?$allocator@PAVCEventItem@@@std@@@std@@@std@@@2@$0A@@std@@@std@@IAEAAPAU_Node@?$_Tree_nod@V?$_Tmap_traits@HPAV?$list@PAVCEventItem@@V?$allocator@PAVCEventItem@@@std@@@std@@U?$less@H@2@V?$allocator@U?$pair@$$CBHPAV?$list@PAVCEventItem@@V?$allocator@PAVCEventItem@@@std@@@std@@@std@@@2@$0A@@std@@@2@XZ ENDP ; std::_Tree<std::_Tmap_traits<int,std::list<CEventItem *,std::allocator<CEventItem *> > *,std::less<int>,std::allocator<std::pair<int const ,std::list<CEventItem *,std::allocator<CEventItem *> > *> >,0> >::_Root
_TEXT	ENDS
PUBLIC	??0iterator@?$list@PAU_EVENT_GENERIC@@V?$allocator@PAU_EVENT_GENERIC@@@std@@@std@@QAE@PAU_Node@?$_List_nod@PAU_EVENT_GENERIC@@V?$allocator@PAU_EVENT_GENERIC@@@std@@@2@@Z ; std::list<_EVENT_GENERIC *,std::allocator<_EVENT_GENERIC *> >::iterator::iterator
; Function compile flags: /Ogty
; File c:\program files\microsoft visual studio .net 2003\vc7\include\list
;	COMDAT ??0iterator@?$list@PAU_EVENT_GENERIC@@V?$allocator@PAU_EVENT_GENERIC@@@std@@@std@@QAE@PAU_Node@?$_List_nod@PAU_EVENT_GENERIC@@V?$allocator@PAU_EVENT_GENERIC@@@std@@@2@@Z
_TEXT	SEGMENT
__Pnode$ = 8						; size = 4
??0iterator@?$list@PAU_EVENT_GENERIC@@V?$allocator@PAU_EVENT_GENERIC@@@std@@@std@@QAE@PAU_Node@?$_List_nod@PAU_EVENT_GENERIC@@V?$allocator@PAU_EVENT_GENERIC@@@std@@@2@@Z PROC NEAR ; std::list<_EVENT_GENERIC *,std::allocator<_EVENT_GENERIC *> >::iterator::iterator, COMDAT
; _this$ = ecx

; 235  : 			{	// construct with node pointer _Pnode

  00000	8b c1		 mov	 eax, ecx
  00002	8b 4c 24 04	 mov	 ecx, DWORD PTR __Pnode$[esp-4]
  00006	89 08		 mov	 DWORD PTR [eax], ecx

; 236  : 			}

  00008	c2 04 00	 ret	 4
??0iterator@?$list@PAU_EVENT_GENERIC@@V?$allocator@PAU_EVENT_GENERIC@@@std@@@std@@QAE@PAU_Node@?$_List_nod@PAU_EVENT_GENERIC@@V?$allocator@PAU_EVENT_GENERIC@@@std@@@2@@Z ENDP ; std::list<_EVENT_GENERIC *,std::allocator<_EVENT_GENERIC *> >::iterator::iterator
_TEXT	ENDS
PUBLIC	??Dconst_iterator@?$list@PAU_EVENT_GENERIC@@V?$allocator@PAU_EVENT_GENERIC@@@std@@@std@@QBEABQAU_EVENT_GENERIC@@XZ ; std::list<_EVENT_GENERIC *,std::allocator<_EVENT_GENERIC *> >::const_iterator::operator*
; Function compile flags: /Ogty
;	COMDAT ??Dconst_iterator@?$list@PAU_EVENT_GENERIC@@V?$allocator@PAU_EVENT_GENERIC@@@std@@@std@@QBEABQAU_EVENT_GENERIC@@XZ
_TEXT	SEGMENT
??Dconst_iterator@?$list@PAU_EVENT_GENERIC@@V?$allocator@PAU_EVENT_GENERIC@@@std@@@std@@QBEABQAU_EVENT_GENERIC@@XZ PROC NEAR ; std::list<_EVENT_GENERIC *,std::allocator<_EVENT_GENERIC *> >::const_iterator::operator*, COMDAT
; _this$ = ecx

; 161  : 			return (_Myval(_Ptr));

  00000	8b 01		 mov	 eax, DWORD PTR [ecx]
  00002	83 c0 08	 add	 eax, 8

; 162  : 			}

  00005	c3		 ret	 0
??Dconst_iterator@?$list@PAU_EVENT_GENERIC@@V?$allocator@PAU_EVENT_GENERIC@@@std@@@std@@QBEABQAU_EVENT_GENERIC@@XZ ENDP ; std::list<_EVENT_GENERIC *,std::allocator<_EVENT_GENERIC *> >::const_iterator::operator*
_TEXT	ENDS
PUBLIC	??0iterator@?$_Tree@V?$_Tmap_traits@HPAV?$list@PAVCEventItem@@V?$allocator@PAVCEventItem@@@std@@@std@@U?$less@H@2@V?$allocator@U?$pair@$$CBHPAV?$list@PAVCEventItem@@V?$allocator@PAVCEventItem@@@std@@@std@@@std@@@2@$0A@@std@@@std@@QAE@PAU_Node@?$_Tree_nod@V?$_Tmap_traits@HPAV?$list@PAVCEventItem@@V?$allocator@PAVCEventItem@@@std@@@std@@U?$less@H@2@V?$allocator@U?$pair@$$CBHPAV?$list@PAVCEventItem@@V?$allocator@PAVCEventItem@@@std@@@std@@@std@@@2@$0A@@std@@@2@@Z ; std::_Tree<std::_Tmap_traits<int,std::list<CEventItem *,std::allocator<CEventItem *> > *,std::less<int>,std::allocator<std::pair<int const ,std::list<CEventItem *,std::allocator<CEventItem *> > *> >,0> >::iterator::iterator
; Function compile flags: /Ogty
; File c:\program files\microsoft visual studio .net 2003\vc7\include\xtree
;	COMDAT ??0iterator@?$_Tree@V?$_Tmap_traits@HPAV?$list@PAVCEventItem@@V?$allocator@PAVCEventItem@@@std@@@std@@U?$less@H@2@V?$allocator@U?$pair@$$CBHPAV?$list@PAVCEventItem@@V?$allocator@PAVCEventItem@@@std@@@std@@@std@@@2@$0A@@std@@@std@@QAE@PAU_Node@?$_Tree_nod@V?$_Tmap_traits@HPAV?$list@PAVCEventItem@@V?$allocator@PAVCEventItem@@@std@@@std@@U?$less@H@2@V?$allocator@U?$pair@$$CBHPAV?$list@PAVCEventItem@@V?$allocator@PAVCEventItem@@@std@@@std@@@std@@@2@$0A@@std@@@2@@Z
_TEXT	SEGMENT
__Pnode$ = 8						; size = 4
??0iterator@?$_Tree@V?$_Tmap_traits@HPAV?$list@PAVCEventItem@@V?$allocator@PAVCEventItem@@@std@@@std@@U?$less@H@2@V?$allocator@U?$pair@$$CBHPAV?$list@PAVCEventItem@@V?$allocator@PAVCEventItem@@@std@@@std@@@std@@@2@$0A@@std@@@std@@QAE@PAU_Node@?$_Tree_nod@V?$_Tmap_traits@HPAV?$list@PAVCEventItem@@V?$allocator@PAVCEventItem@@@std@@@std@@U?$less@H@2@V?$allocator@U?$pair@$$CBHPAV?$list@PAVCEventItem@@V?$allocator@PAVCEventItem@@@std@@@std@@@std@@@2@$0A@@std@@@2@@Z PROC NEAR ; std::_Tree<std::_Tmap_traits<int,std::list<CEventItem *,std::allocator<CEventItem *> > *,std::less<int>,std::allocator<std::pair<int const ,std::list<CEventItem *,std::allocator<CEventItem *> > *> >,0> >::iterator::iterator, COMDAT
; _this$ = ecx

; 312  : 			{	// construct with node pointer _Pnode

  00000	8b c1		 mov	 eax, ecx
  00002	8b 4c 24 04	 mov	 ecx, DWORD PTR __Pnode$[esp-4]
  00006	89 08		 mov	 DWORD PTR [eax], ecx

; 313  : 			}

  00008	c2 04 00	 ret	 4
??0iterator@?$_Tree@V?$_Tmap_traits@HPAV?$list@PAVCEventItem@@V?$allocator@PAVCEventItem@@@std@@@std@@U?$less@H@2@V?$allocator@U?$pair@$$CBHPAV?$list@PAVCEventItem@@V?$allocator@PAVCEventItem@@@std@@@std@@@std@@@2@$0A@@std@@@std@@QAE@PAU_Node@?$_Tree_nod@V?$_Tmap_traits@HPAV?$list@PAVCEventItem@@V?$allocator@PAVCEventItem@@@std@@@std@@U?$less@H@2@V?$allocator@U?$pair@$$CBHPAV?$list@PAVCEventItem@@V?$allocator@PAVCEventItem@@@std@@@std@@@std@@@2@$0A@@std@@@2@@Z ENDP ; std::_Tree<std::_Tmap_traits<int,std::list<CEventItem *,std::allocator<CEventItem *> > *,std::less<int>,std::allocator<std::pair<int const ,std::list<CEventItem *,std::allocator<CEventItem *> > *> >,0> >::iterator::iterator
_TEXT	ENDS
PUBLIC	??Diterator@?$_Tree@V?$_Tmap_traits@HPAV?$list@PAVCEventItem@@V?$allocator@PAVCEventItem@@@std@@@std@@U?$less@H@2@V?$allocator@U?$pair@$$CBHPAV?$list@PAVCEventItem@@V?$allocator@PAVCEventItem@@@std@@@std@@@std@@@2@$0A@@std@@@std@@QBEAAU?$pair@$$CBHPAV?$list@PAVCEventItem@@V?$allocator@PAVCEventItem@@@std@@@std@@@2@XZ ; std::_Tree<std::_Tmap_traits<int,std::list<CEventItem *,std::allocator<CEventItem *> > *,std::less<int>,std::allocator<std::pair<int const ,std::list<CEventItem *,std::allocator<CEventItem *> > *> >,0> >::iterator::operator*
; Function compile flags: /Ogty
;	COMDAT ??Diterator@?$_Tree@V?$_Tmap_traits@HPAV?$list@PAVCEventItem@@V?$allocator@PAVCEventItem@@@std@@@std@@U?$less@H@2@V?$allocator@U?$pair@$$CBHPAV?$list@PAVCEventItem@@V?$allocator@PAVCEventItem@@@std@@@std@@@std@@@2@$0A@@std@@@std@@QBEAAU?$pair@$$CBHPAV?$list@PAVCEventItem@@V?$allocator@PAVCEventItem@@@std@@@std@@@2@XZ
_TEXT	SEGMENT
??Diterator@?$_Tree@V?$_Tmap_traits@HPAV?$list@PAVCEventItem@@V?$allocator@PAVCEventItem@@@std@@@std@@U?$less@H@2@V?$allocator@U?$pair@$$CBHPAV?$list@PAVCEventItem@@V?$allocator@PAVCEventItem@@@std@@@std@@@std@@@2@$0A@@std@@@std@@QBEAAU?$pair@$$CBHPAV?$list@PAVCEventItem@@V?$allocator@PAVCEventItem@@@std@@@std@@@2@XZ PROC NEAR ; std::_Tree<std::_Tmap_traits<int,std::list<CEventItem *,std::allocator<CEventItem *> > *,std::less<int>,std::allocator<std::pair<int const ,std::list<CEventItem *,std::allocator<CEventItem *> > *> >,0> >::iterator::operator*, COMDAT
; _this$ = ecx

; 317  : 			return ((reference)**(const_iterator *)this);

  00000	8b 01		 mov	 eax, DWORD PTR [ecx]
  00002	83 c0 0c	 add	 eax, 12			; 0000000cH

; 318  : 			}

  00005	c3		 ret	 0
??Diterator@?$_Tree@V?$_Tmap_traits@HPAV?$list@PAVCEventItem@@V?$allocator@PAVCEventItem@@@std@@@std@@U?$less@H@2@V?$allocator@U?$pair@$$CBHPAV?$list@PAVCEventItem@@V?$allocator@PAVCEventItem@@@std@@@std@@@std@@@2@$0A@@std@@@std@@QBEAAU?$pair@$$CBHPAV?$list@PAVCEventItem@@V?$allocator@PAVCEventItem@@@std@@@std@@@2@XZ ENDP ; std::_Tree<std::_Tmap_traits<int,std::list<CEventItem *,std::allocator<CEventItem *> > *,std::less<int>,std::allocator<std::pair<int const ,std::list<CEventItem *,std::allocator<CEventItem *> > *> >,0> >::iterator::operator*
_TEXT	ENDS
PUBLIC	?destroy@?$allocator@U_Node@?$_List_nod@PAVCEventItem@@V?$allocator@PAVCEventItem@@@std@@@std@@@std@@QAEXPAU_Node@?$_List_nod@PAVCEventItem@@V?$allocator@PAVCEventItem@@@std@@@2@@Z ; std::allocator<std::_List_nod<CEventItem *,std::allocator<CEventItem *> >::_Node>::destroy
; Function compile flags: /Ogty
; File c:\program files\microsoft visual studio .net 2003\vc7\include\xmemory
;	COMDAT ?destroy@?$allocator@U_Node@?$_List_nod@PAVCEventItem@@V?$allocator@PAVCEventItem@@@std@@@std@@@std@@QAEXPAU_Node@?$_List_nod@PAVCEventItem@@V?$allocator@PAVCEventItem@@@std@@@2@@Z
_TEXT	SEGMENT
__Ptr$ = 8						; size = 4
?destroy@?$allocator@U_Node@?$_List_nod@PAVCEventItem@@V?$allocator@PAVCEventItem@@@std@@@std@@@std@@QAEXPAU_Node@?$_List_nod@PAVCEventItem@@V?$allocator@PAVCEventItem@@@std@@@2@@Z PROC NEAR ; std::allocator<std::_List_nod<CEventItem *,std::allocator<CEventItem *> >::_Node>::destroy, COMDAT
; _this$ = ecx

; 152  : 		_Destroy(_Ptr);
; 153  : 		}

  00000	c2 04 00	 ret	 4
?destroy@?$allocator@U_Node@?$_List_nod@PAVCEventItem@@V?$allocator@PAVCEventItem@@@std@@@std@@@std@@QAEXPAU_Node@?$_List_nod@PAVCEventItem@@V?$allocator@PAVCEventItem@@@std@@@2@@Z ENDP ; std::allocator<std::_List_nod<CEventItem *,std::allocator<CEventItem *> >::_Node>::destroy
_TEXT	ENDS
PUBLIC	??0iterator@?$list@PAVCEventItem@@V?$allocator@PAVCEventItem@@@std@@@std@@QAE@PAU_Node@?$_List_nod@PAVCEventItem@@V?$allocator@PAVCEventItem@@@std@@@2@@Z ; std::list<CEventItem *,std::allocator<CEventItem *> >::iterator::iterator
; Function compile flags: /Ogty
; File c:\program files\microsoft visual studio .net 2003\vc7\include\list
;	COMDAT ??0iterator@?$list@PAVCEventItem@@V?$allocator@PAVCEventItem@@@std@@@std@@QAE@PAU_Node@?$_List_nod@PAVCEventItem@@V?$allocator@PAVCEventItem@@@std@@@2@@Z
_TEXT	SEGMENT
__Pnode$ = 8						; size = 4
??0iterator@?$list@PAVCEventItem@@V?$allocator@PAVCEventItem@@@std@@@std@@QAE@PAU_Node@?$_List_nod@PAVCEventItem@@V?$allocator@PAVCEventItem@@@std@@@2@@Z PROC NEAR ; std::list<CEventItem *,std::allocator<CEventItem *> >::iterator::iterator, COMDAT
; _this$ = ecx

; 235  : 			{	// construct with node pointer _Pnode

  00000	8b c1		 mov	 eax, ecx
  00002	8b 4c 24 04	 mov	 ecx, DWORD PTR __Pnode$[esp-4]
  00006	89 08		 mov	 DWORD PTR [eax], ecx

; 236  : 			}

  00008	c2 04 00	 ret	 4
??0iterator@?$list@PAVCEventItem@@V?$allocator@PAVCEventItem@@@std@@@std@@QAE@PAU_Node@?$_List_nod@PAVCEventItem@@V?$allocator@PAVCEventItem@@@std@@@2@@Z ENDP ; std::list<CEventItem *,std::allocator<CEventItem *> >::iterator::iterator
_TEXT	ENDS
PUBLIC	??Dconst_iterator@?$list@PAVCEventItem@@V?$allocator@PAVCEventItem@@@std@@@std@@QBEABQAVCEventItem@@XZ ; std::list<CEventItem *,std::allocator<CEventItem *> >::const_iterator::operator*
; Function compile flags: /Ogty
;	COMDAT ??Dconst_iterator@?$list@PAVCEventItem@@V?$allocator@PAVCEventItem@@@std@@@std@@QBEABQAVCEventItem@@XZ
_TEXT	SEGMENT
??Dconst_iterator@?$list@PAVCEventItem@@V?$allocator@PAVCEventItem@@@std@@@std@@QBEABQAVCEventItem@@XZ PROC NEAR ; std::list<CEventItem *,std::allocator<CEventItem *> >::const_iterator::operator*, COMDAT
; _this$ = ecx

; 161  : 			return (_Myval(_Ptr));

  00000	8b 01		 mov	 eax, DWORD PTR [ecx]
  00002	83 c0 08	 add	 eax, 8

; 162  : 			}

  00005	c3		 ret	 0
??Dconst_iterator@?$list@PAVCEventItem@@V?$allocator@PAVCEventItem@@@std@@@std@@QBEABQAVCEventItem@@XZ ENDP ; std::list<CEventItem *,std::allocator<CEventItem *> >::const_iterator::operator*
_TEXT	ENDS
PUBLIC	?allocate@?$allocator@U_Node@?$_List_nod@PAU_EVENT_GENERIC@@V?$allocator@PAU_EVENT_GENERIC@@@std@@@std@@@std@@QAEPAU_Node@?$_List_nod@PAU_EVENT_GENERIC@@V?$allocator@PAU_EVENT_GENERIC@@@std@@@2@I@Z ; std::allocator<std::_List_nod<_EVENT_GENERIC *,std::allocator<_EVENT_GENERIC *> >::_Node>::allocate
; Function compile flags: /Ogty
; File c:\program files\microsoft visual studio .net 2003\vc7\include\xmemory
;	COMDAT ?allocate@?$allocator@U_Node@?$_List_nod@PAU_EVENT_GENERIC@@V?$allocator@PAU_EVENT_GENERIC@@@std@@@std@@@std@@QAEPAU_Node@?$_List_nod@PAU_EVENT_GENERIC@@V?$allocator@PAU_EVENT_GENERIC@@@std@@@2@I@Z
_TEXT	SEGMENT
__Count$ = 8						; size = 4
?allocate@?$allocator@U_Node@?$_List_nod@PAU_EVENT_GENERIC@@V?$allocator@PAU_EVENT_GENERIC@@@std@@@std@@@std@@QAEPAU_Node@?$_List_nod@PAU_EVENT_GENERIC@@V?$allocator@PAU_EVENT_GENERIC@@@std@@@2@I@Z PROC NEAR ; std::allocator<std::_List_nod<_EVENT_GENERIC *,std::allocator<_EVENT_GENERIC *> >::_Node>::allocate, COMDAT
; _this$ = ecx

; 137  : 		return (_Allocate(_Count, (pointer)0));

  00000	8b 44 24 04	 mov	 eax, DWORD PTR __Count$[esp-4]
  00004	8d 04 40	 lea	 eax, DWORD PTR [eax+eax*2]
  00007	c1 e0 02	 shl	 eax, 2
  0000a	50		 push	 eax
  0000b	e8 00 00 00 00	 call	 ??2@YAPAXI@Z		; operator new
  00010	83 c4 04	 add	 esp, 4

; 138  : 		}

  00013	c2 04 00	 ret	 4
?allocate@?$allocator@U_Node@?$_List_nod@PAU_EVENT_GENERIC@@V?$allocator@PAU_EVENT_GENERIC@@@std@@@std@@@std@@QAEPAU_Node@?$_List_nod@PAU_EVENT_GENERIC@@V?$allocator@PAU_EVENT_GENERIC@@@std@@@2@I@Z ENDP ; std::allocator<std::_List_nod<_EVENT_GENERIC *,std::allocator<_EVENT_GENERIC *> >::_Node>::allocate
_TEXT	ENDS
PUBLIC	?construct@?$allocator@PAU_Node@?$_List_nod@PAU_EVENT_GENERIC@@V?$allocator@PAU_EVENT_GENERIC@@@std@@@std@@@std@@QAEXPAPAU_Node@?$_List_nod@PAU_EVENT_GENERIC@@V?$allocator@PAU_EVENT_GENERIC@@@std@@@2@ABQAU342@@Z ; std::allocator<std::_List_nod<_EVENT_GENERIC *,std::allocator<_EVENT_GENERIC *> >::_Node *>::construct
; Function compile flags: /Ogty
;	COMDAT ?construct@?$allocator@PAU_Node@?$_List_nod@PAU_EVENT_GENERIC@@V?$allocator@PAU_EVENT_GENERIC@@@std@@@std@@@std@@QAEXPAPAU_Node@?$_List_nod@PAU_EVENT_GENERIC@@V?$allocator@PAU_EVENT_GENERIC@@@std@@@2@ABQAU342@@Z
_TEXT	SEGMENT
__Ptr$ = 8						; size = 4
__Val$ = 12						; size = 4
?construct@?$allocator@PAU_Node@?$_List_nod@PAU_EVENT_GENERIC@@V?$allocator@PAU_EVENT_GENERIC@@@std@@@std@@@std@@QAEXPAPAU_Node@?$_List_nod@PAU_EVENT_GENERIC@@V?$allocator@PAU_EVENT_GENERIC@@@std@@@2@ABQAU342@@Z PROC NEAR ; std::allocator<std::_List_nod<_EVENT_GENERIC *,std::allocator<_EVENT_GENERIC *> >::_Node *>::construct, COMDAT
; _this$ = ecx

; 147  : 		_Construct(_Ptr, _Val);

  00000	8b 44 24 04	 mov	 eax, DWORD PTR __Ptr$[esp-4]
  00004	85 c0		 test	 eax, eax
  00006	74 08		 je	 SHORT $L190787
  00008	8b 4c 24 08	 mov	 ecx, DWORD PTR __Val$[esp-4]
  0000c	8b 11		 mov	 edx, DWORD PTR [ecx]
  0000e	89 10		 mov	 DWORD PTR [eax], edx
$L190787:

; 148  : 		}

  00010	c2 08 00	 ret	 8
?construct@?$allocator@PAU_Node@?$_List_nod@PAU_EVENT_GENERIC@@V?$allocator@PAU_EVENT_GENERIC@@@std@@@std@@@std@@QAEXPAPAU_Node@?$_List_nod@PAU_EVENT_GENERIC@@V?$allocator@PAU_EVENT_GENERIC@@@std@@@2@ABQAU342@@Z ENDP ; std::allocator<std::_List_nod<_EVENT_GENERIC *,std::allocator<_EVENT_GENERIC *> >::_Node *>::construct
_TEXT	ENDS
PUBLIC	?destroy@?$allocator@PAU_Node@?$_List_nod@PAU_EVENT_GENERIC@@V?$allocator@PAU_EVENT_GENERIC@@@std@@@std@@@std@@QAEXPAPAU_Node@?$_List_nod@PAU_EVENT_GENERIC@@V?$allocator@PAU_EVENT_GENERIC@@@std@@@2@@Z ; std::allocator<std::_List_nod<_EVENT_GENERIC *,std::allocator<_EVENT_GENERIC *> >::_Node *>::destroy
; Function compile flags: /Ogty
;	COMDAT ?destroy@?$allocator@PAU_Node@?$_List_nod@PAU_EVENT_GENERIC@@V?$allocator@PAU_EVENT_GENERIC@@@std@@@std@@@std@@QAEXPAPAU_Node@?$_List_nod@PAU_EVENT_GENERIC@@V?$allocator@PAU_EVENT_GENERIC@@@std@@@2@@Z
_TEXT	SEGMENT
__Ptr$ = 8						; size = 4
?destroy@?$allocator@PAU_Node@?$_List_nod@PAU_EVENT_GENERIC@@V?$allocator@PAU_EVENT_GENERIC@@@std@@@std@@@std@@QAEXPAPAU_Node@?$_List_nod@PAU_EVENT_GENERIC@@V?$allocator@PAU_EVENT_GENERIC@@@std@@@2@@Z PROC NEAR ; std::allocator<std::_List_nod<_EVENT_GENERIC *,std::allocator<_EVENT_GENERIC *> >::_Node *>::destroy, COMDAT
; _this$ = ecx

; 152  : 		_Destroy(_Ptr);
; 153  : 		}

  00000	c2 04 00	 ret	 4
?destroy@?$allocator@PAU_Node@?$_List_nod@PAU_EVENT_GENERIC@@V?$allocator@PAU_EVENT_GENERIC@@@std@@@std@@@std@@QAEXPAPAU_Node@?$_List_nod@PAU_EVENT_GENERIC@@V?$allocator@PAU_EVENT_GENERIC@@@std@@@2@@Z ENDP ; std::allocator<std::_List_nod<_EVENT_GENERIC *,std::allocator<_EVENT_GENERIC *> >::_Node *>::destroy
_TEXT	ENDS
PUBLIC	?max_size@?$_Tree@V?$_Tmap_traits@HPAV?$list@PAVCEventItem@@V?$allocator@PAVCEventItem@@@std@@@std@@U?$less@H@2@V?$allocator@U?$pair@$$CBHPAV?$list@PAVCEventItem@@V?$allocator@PAVCEventItem@@@std@@@std@@@std@@@2@$0A@@std@@@std@@QBEIXZ ; std::_Tree<std::_Tmap_traits<int,std::list<CEventItem *,std::allocator<CEventItem *> > *,std::less<int>,std::allocator<std::pair<int const ,std::list<CEventItem *,std::allocator<CEventItem *> > *> >,0> >::max_size
; Function compile flags: /Ogty
; File c:\program files\microsoft visual studio .net 2003\vc7\include\xtree
;	COMDAT ?max_size@?$_Tree@V?$_Tmap_traits@HPAV?$list@PAVCEventItem@@V?$allocator@PAVCEventItem@@@std@@@std@@U?$less@H@2@V?$allocator@U?$pair@$$CBHPAV?$list@PAVCEventItem@@V?$allocator@PAVCEventItem@@@std@@@std@@@std@@@2@$0A@@std@@@std@@QBEIXZ
_TEXT	SEGMENT
?max_size@?$_Tree@V?$_Tmap_traits@HPAV?$list@PAVCEventItem@@V?$allocator@PAVCEventItem@@@std@@@std@@U?$less@H@2@V?$allocator@U?$pair@$$CBHPAV?$list@PAVCEventItem@@V?$allocator@PAVCEventItem@@@std@@@std@@@std@@@2@$0A@@std@@@std@@QBEIXZ PROC NEAR ; std::_Tree<std::_Tmap_traits<int,std::list<CEventItem *,std::allocator<CEventItem *> > *,std::less<int>,std::allocator<std::pair<int const ,std::list<CEventItem *,std::allocator<CEventItem *> > *> >,0> >::max_size, COMDAT
; _this$ = ecx

; 453  : 		return (this->_Alval.max_size());

  00000	b8 ff ff ff 1f	 mov	 eax, 536870911		; 1fffffffH

; 454  : 		}

  00005	c3		 ret	 0
?max_size@?$_Tree@V?$_Tmap_traits@HPAV?$list@PAVCEventItem@@V?$allocator@PAVCEventItem@@@std@@@std@@U?$less@H@2@V?$allocator@U?$pair@$$CBHPAV?$list@PAVCEventItem@@V?$allocator@PAVCEventItem@@@std@@@std@@@std@@@2@$0A@@std@@@std@@QBEIXZ ENDP ; std::_Tree<std::_Tmap_traits<int,std::list<CEventItem *,std::allocator<CEventItem *> > *,std::less<int>,std::allocator<std::pair<int const ,std::list<CEventItem *,std::allocator<CEventItem *> > *> >,0> >::max_size
_TEXT	ENDS
PUBLIC	?_Lbound@?$_Tree@V?$_Tmap_traits@HPAV?$list@PAVCEventItem@@V?$allocator@PAVCEventItem@@@std@@@std@@U?$less@H@2@V?$allocator@U?$pair@$$CBHPAV?$list@PAVCEventItem@@V?$allocator@PAVCEventItem@@@std@@@std@@@std@@@2@$0A@@std@@@std@@IBEPAU_Node@?$_Tree_nod@V?$_Tmap_traits@HPAV?$list@PAVCEventItem@@V?$allocator@PAVCEventItem@@@std@@@std@@U?$less@H@2@V?$allocator@U?$pair@$$CBHPAV?$list@PAVCEventItem@@V?$allocator@PAVCEventItem@@@std@@@std@@@std@@@2@$0A@@std@@@2@ABH@Z ; std::_Tree<std::_Tmap_traits<int,std::list<CEventItem *,std::allocator<CEventItem *> > *,std::less<int>,std::allocator<std::pair<int const ,std::list<CEventItem *,std::allocator<CEventItem *> > *> >,0> >::_Lbound
; Function compile flags: /Ogty
;	COMDAT ?_Lbound@?$_Tree@V?$_Tmap_traits@HPAV?$list@PAVCEventItem@@V?$allocator@PAVCEventItem@@@std@@@std@@U?$less@H@2@V?$allocator@U?$pair@$$CBHPAV?$list@PAVCEventItem@@V?$allocator@PAVCEventItem@@@std@@@std@@@std@@@2@$0A@@std@@@std@@IBEPAU_Node@?$_Tree_nod@V?$_Tmap_traits@HPAV?$list@PAVCEventItem@@V?$allocator@PAVCEventItem@@@std@@@std@@U?$less@H@2@V?$allocator@U?$pair@$$CBHPAV?$list@PAVCEventItem@@V?$allocator@PAVCEventItem@@@std@@@std@@@std@@@2@$0A@@std@@@2@ABH@Z
_TEXT	SEGMENT
__Keyval$ = 8						; size = 4
?_Lbound@?$_Tree@V?$_Tmap_traits@HPAV?$list@PAVCEventItem@@V?$allocator@PAVCEventItem@@@std@@@std@@U?$less@H@2@V?$allocator@U?$pair@$$CBHPAV?$list@PAVCEventItem@@V?$allocator@PAVCEventItem@@@std@@@std@@@std@@@2@$0A@@std@@@std@@IBEPAU_Node@?$_Tree_nod@V?$_Tmap_traits@HPAV?$list@PAVCEventItem@@V?$allocator@PAVCEventItem@@@std@@@std@@U?$less@H@2@V?$allocator@U?$pair@$$CBHPAV?$list@PAVCEventItem@@V?$allocator@PAVCEventItem@@@std@@@std@@@std@@@2@$0A@@std@@@2@ABH@Z PROC NEAR ; std::_Tree<std::_Tmap_traits<int,std::list<CEventItem *,std::allocator<CEventItem *> > *,std::less<int>,std::allocator<std::pair<int const ,std::list<CEventItem *,std::allocator<CEventItem *> > *> >,0> >::_Lbound, COMDAT
; _this$ = ecx

; 988  : 		_Nodeptr _Pnode = _Root();

  00000	8b 41 04	 mov	 eax, DWORD PTR [ecx+4]
  00003	8b 48 04	 mov	 ecx, DWORD PTR [eax+4]

; 989  : 		_Nodeptr _Wherenode = _Myhead;	// end() if search fails
; 990  : 
; 991  : 		while (!_Isnil(_Pnode))

  00006	8a 51 15	 mov	 dl, BYTE PTR [ecx+21]
  00009	84 d2		 test	 dl, dl
  0000b	75 1d		 jne	 SHORT $L189358
  0000d	8b 54 24 04	 mov	 edx, DWORD PTR __Keyval$[esp-4]
  00011	8b 12		 mov	 edx, DWORD PTR [edx]
  00013	53		 push	 ebx
$L189357:

; 992  : 			if (this->comp(_Key(_Pnode), _Keyval))

  00014	39 51 0c	 cmp	 DWORD PTR [ecx+12], edx
  00017	7d 05		 jge	 SHORT $L189359

; 993  : 				_Pnode = _Right(_Pnode);	// descend right subtree

  00019	8b 49 08	 mov	 ecx, DWORD PTR [ecx+8]

; 994  : 			else

  0001c	eb 04		 jmp	 SHORT $L189360
$L189359:

; 995  : 				{	// _Pnode not less than _Keyval, remember it
; 996  : 				_Wherenode = _Pnode;

  0001e	8b c1		 mov	 eax, ecx

; 997  : 				_Pnode = _Left(_Pnode);	// descend left subtree

  00020	8b 09		 mov	 ecx, DWORD PTR [ecx]
$L189360:
  00022	8a 59 15	 mov	 bl, BYTE PTR [ecx+21]
  00025	84 db		 test	 bl, bl
  00027	74 eb		 je	 SHORT $L189357
  00029	5b		 pop	 ebx
$L189358:

; 998  : 				}
; 999  : 
; 1000 : 		return (_Wherenode);	// return best remembered candidate
; 1001 : 		}

  0002a	c2 04 00	 ret	 4
?_Lbound@?$_Tree@V?$_Tmap_traits@HPAV?$list@PAVCEventItem@@V?$allocator@PAVCEventItem@@@std@@@std@@U?$less@H@2@V?$allocator@U?$pair@$$CBHPAV?$list@PAVCEventItem@@V?$allocator@PAVCEventItem@@@std@@@std@@@std@@@2@$0A@@std@@@std@@IBEPAU_Node@?$_Tree_nod@V?$_Tmap_traits@HPAV?$list@PAVCEventItem@@V?$allocator@PAVCEventItem@@@std@@@std@@U?$less@H@2@V?$allocator@U?$pair@$$CBHPAV?$list@PAVCEventItem@@V?$allocator@PAVCEventItem@@@std@@@std@@@std@@@2@$0A@@std@@@2@ABH@Z ENDP ; std::_Tree<std::_Tmap_traits<int,std::list<CEventItem *,std::allocator<CEventItem *> > *,std::less<int>,std::allocator<std::pair<int const ,std::list<CEventItem *,std::allocator<CEventItem *> > *> >,0> >::_Lbound
_TEXT	ENDS
PUBLIC	?_Lrotate@?$_Tree@V?$_Tmap_traits@HPAV?$list@PAVCEventItem@@V?$allocator@PAVCEventItem@@@std@@@std@@U?$less@H@2@V?$allocator@U?$pair@$$CBHPAV?$list@PAVCEventItem@@V?$allocator@PAVCEventItem@@@std@@@std@@@std@@@2@$0A@@std@@@std@@IAEXPAU_Node@?$_Tree_nod@V?$_Tmap_traits@HPAV?$list@PAVCEventItem@@V?$allocator@PAVCEventItem@@@std@@@std@@U?$less@H@2@V?$allocator@U?$pair@$$CBHPAV?$list@PAVCEventItem@@V?$allocator@PAVCEventItem@@@std@@@std@@@std@@@2@$0A@@std@@@2@@Z ; std::_Tree<std::_Tmap_traits<int,std::list<CEventItem *,std::allocator<CEventItem *> > *,std::less<int>,std::allocator<std::pair<int const ,std::list<CEventItem *,std::allocator<CEventItem *> > *> >,0> >::_Lrotate
; Function compile flags: /Ogty
;	COMDAT ?_Lrotate@?$_Tree@V?$_Tmap_traits@HPAV?$list@PAVCEventItem@@V?$allocator@PAVCEventItem@@@std@@@std@@U?$less@H@2@V?$allocator@U?$pair@$$CBHPAV?$list@PAVCEventItem@@V?$allocator@PAVCEventItem@@@std@@@std@@@std@@@2@$0A@@std@@@std@@IAEXPAU_Node@?$_Tree_nod@V?$_Tmap_traits@HPAV?$list@PAVCEventItem@@V?$allocator@PAVCEventItem@@@std@@@std@@U?$less@H@2@V?$allocator@U?$pair@$$CBHPAV?$list@PAVCEventItem@@V?$allocator@PAVCEventItem@@@std@@@std@@@std@@@2@$0A@@std@@@2@@Z
_TEXT	SEGMENT
__Wherenode$ = 8					; size = 4
?_Lrotate@?$_Tree@V?$_Tmap_traits@HPAV?$list@PAVCEventItem@@V?$allocator@PAVCEventItem@@@std@@@std@@U?$less@H@2@V?$allocator@U?$pair@$$CBHPAV?$list@PAVCEventItem@@V?$allocator@PAVCEventItem@@@std@@@std@@@std@@@2@$0A@@std@@@std@@IAEXPAU_Node@?$_Tree_nod@V?$_Tmap_traits@HPAV?$list@PAVCEventItem@@V?$allocator@PAVCEventItem@@@std@@@std@@U?$less@H@2@V?$allocator@U?$pair@$$CBHPAV?$list@PAVCEventItem@@V?$allocator@PAVCEventItem@@@std@@@std@@@std@@@2@$0A@@std@@@2@@Z PROC NEAR ; std::_Tree<std::_Tmap_traits<int,std::list<CEventItem *,std::allocator<CEventItem *> > *,std::less<int>,std::allocator<std::pair<int const ,std::list<CEventItem *,std::allocator<CEventItem *> > *> >,0> >::_Lrotate, COMDAT
; _this$ = ecx

; 1015 : 		_Nodeptr _Pnode = _Right(_Wherenode);

  00000	8b 54 24 04	 mov	 edx, DWORD PTR __Wherenode$[esp-4]
  00004	8b 42 08	 mov	 eax, DWORD PTR [edx+8]
  00007	53		 push	 ebx
  00008	56		 push	 esi

; 1016 : 		_Right(_Wherenode) = _Left(_Pnode);

  00009	8b 30		 mov	 esi, DWORD PTR [eax]
  0000b	89 72 08	 mov	 DWORD PTR [edx+8], esi

; 1017 : 
; 1018 : 		if (!_Isnil(_Left(_Pnode)))

  0000e	8b 30		 mov	 esi, DWORD PTR [eax]
  00010	8a 5e 15	 mov	 bl, BYTE PTR [esi+21]
  00013	84 db		 test	 bl, bl
  00015	75 03		 jne	 SHORT $L189364

; 1019 : 			_Parent(_Left(_Pnode)) = _Wherenode;

  00017	89 56 04	 mov	 DWORD PTR [esi+4], edx
$L189364:

; 1020 : 		_Parent(_Pnode) = _Parent(_Wherenode);

  0001a	8b 72 04	 mov	 esi, DWORD PTR [edx+4]
  0001d	89 70 04	 mov	 DWORD PTR [eax+4], esi

; 1021 : 
; 1022 : 		if (_Wherenode == _Root())

  00020	8b 49 04	 mov	 ecx, DWORD PTR [ecx+4]
  00023	3b 51 04	 cmp	 edx, DWORD PTR [ecx+4]
  00026	75 0d		 jne	 SHORT $L189365

; 1023 : 			_Root() = _Pnode;

  00028	89 41 04	 mov	 DWORD PTR [ecx+4], eax
  0002b	5e		 pop	 esi

; 1028 : 
; 1029 : 		_Left(_Pnode) = _Wherenode;

  0002c	89 10		 mov	 DWORD PTR [eax], edx

; 1030 : 		_Parent(_Wherenode) = _Pnode;

  0002e	89 42 04	 mov	 DWORD PTR [edx+4], eax
  00031	5b		 pop	 ebx

; 1031 : 		}

  00032	c2 04 00	 ret	 4
$L189365:

; 1024 : 		else if (_Wherenode == _Left(_Parent(_Wherenode)))

  00035	8b 4a 04	 mov	 ecx, DWORD PTR [edx+4]
  00038	3b 11		 cmp	 edx, DWORD PTR [ecx]
  0003a	75 0c		 jne	 SHORT $L189367

; 1025 : 			_Left(_Parent(_Wherenode)) = _Pnode;

  0003c	89 01		 mov	 DWORD PTR [ecx], eax
  0003e	5e		 pop	 esi

; 1028 : 
; 1029 : 		_Left(_Pnode) = _Wherenode;

  0003f	89 10		 mov	 DWORD PTR [eax], edx

; 1030 : 		_Parent(_Wherenode) = _Pnode;

  00041	89 42 04	 mov	 DWORD PTR [edx+4], eax
  00044	5b		 pop	 ebx

; 1031 : 		}

  00045	c2 04 00	 ret	 4
$L189367:

; 1026 : 		else
; 1027 : 			_Right(_Parent(_Wherenode)) = _Pnode;

  00048	89 41 08	 mov	 DWORD PTR [ecx+8], eax
  0004b	5e		 pop	 esi

; 1028 : 
; 1029 : 		_Left(_Pnode) = _Wherenode;

  0004c	89 10		 mov	 DWORD PTR [eax], edx

; 1030 : 		_Parent(_Wherenode) = _Pnode;

  0004e	89 42 04	 mov	 DWORD PTR [edx+4], eax
  00051	5b		 pop	 ebx

; 1031 : 		}

  00052	c2 04 00	 ret	 4
?_Lrotate@?$_Tree@V?$_Tmap_traits@HPAV?$list@PAVCEventItem@@V?$allocator@PAVCEventItem@@@std@@@std@@U?$less@H@2@V?$allocator@U?$pair@$$CBHPAV?$list@PAVCEventItem@@V?$allocator@PAVCEventItem@@@std@@@std@@@std@@@2@$0A@@std@@@std@@IAEXPAU_Node@?$_Tree_nod@V?$_Tmap_traits@HPAV?$list@PAVCEventItem@@V?$allocator@PAVCEventItem@@@std@@@std@@U?$less@H@2@V?$allocator@U?$pair@$$CBHPAV?$list@PAVCEventItem@@V?$allocator@PAVCEventItem@@@std@@@std@@@std@@@2@$0A@@std@@@2@@Z ENDP ; std::_Tree<std::_Tmap_traits<int,std::list<CEventItem *,std::allocator<CEventItem *> > *,std::less<int>,std::allocator<std::pair<int const ,std::list<CEventItem *,std::allocator<CEventItem *> > *> >,0> >::_Lrotate
_TEXT	ENDS
PUBLIC	?_Rrotate@?$_Tree@V?$_Tmap_traits@HPAV?$list@PAVCEventItem@@V?$allocator@PAVCEventItem@@@std@@@std@@U?$less@H@2@V?$allocator@U?$pair@$$CBHPAV?$list@PAVCEventItem@@V?$allocator@PAVCEventItem@@@std@@@std@@@std@@@2@$0A@@std@@@std@@IAEXPAU_Node@?$_Tree_nod@V?$_Tmap_traits@HPAV?$list@PAVCEventItem@@V?$allocator@PAVCEventItem@@@std@@@std@@U?$less@H@2@V?$allocator@U?$pair@$$CBHPAV?$list@PAVCEventItem@@V?$allocator@PAVCEventItem@@@std@@@std@@@std@@@2@$0A@@std@@@2@@Z ; std::_Tree<std::_Tmap_traits<int,std::list<CEventItem *,std::allocator<CEventItem *> > *,std::less<int>,std::allocator<std::pair<int const ,std::list<CEventItem *,std::allocator<CEventItem *> > *> >,0> >::_Rrotate
; Function compile flags: /Ogty
;	COMDAT ?_Rrotate@?$_Tree@V?$_Tmap_traits@HPAV?$list@PAVCEventItem@@V?$allocator@PAVCEventItem@@@std@@@std@@U?$less@H@2@V?$allocator@U?$pair@$$CBHPAV?$list@PAVCEventItem@@V?$allocator@PAVCEventItem@@@std@@@std@@@std@@@2@$0A@@std@@@std@@IAEXPAU_Node@?$_Tree_nod@V?$_Tmap_traits@HPAV?$list@PAVCEventItem@@V?$allocator@PAVCEventItem@@@std@@@std@@U?$less@H@2@V?$allocator@U?$pair@$$CBHPAV?$list@PAVCEventItem@@V?$allocator@PAVCEventItem@@@std@@@std@@@std@@@2@$0A@@std@@@2@@Z
_TEXT	SEGMENT
__Wherenode$ = 8					; size = 4
?_Rrotate@?$_Tree@V?$_Tmap_traits@HPAV?$list@PAVCEventItem@@V?$allocator@PAVCEventItem@@@std@@@std@@U?$less@H@2@V?$allocator@U?$pair@$$CBHPAV?$list@PAVCEventItem@@V?$allocator@PAVCEventItem@@@std@@@std@@@std@@@2@$0A@@std@@@std@@IAEXPAU_Node@?$_Tree_nod@V?$_Tmap_traits@HPAV?$list@PAVCEventItem@@V?$allocator@PAVCEventItem@@@std@@@std@@U?$less@H@2@V?$allocator@U?$pair@$$CBHPAV?$list@PAVCEventItem@@V?$allocator@PAVCEventItem@@@std@@@std@@@std@@@2@$0A@@std@@@2@@Z PROC NEAR ; std::_Tree<std::_Tmap_traits<int,std::list<CEventItem *,std::allocator<CEventItem *> > *,std::less<int>,std::allocator<std::pair<int const ,std::list<CEventItem *,std::allocator<CEventItem *> > *> >,0> >::_Rrotate, COMDAT
; _this$ = ecx

; 1069 : 		_Nodeptr _Pnode = _Left(_Wherenode);

  00000	8b 54 24 04	 mov	 edx, DWORD PTR __Wherenode$[esp-4]
  00004	8b 02		 mov	 eax, DWORD PTR [edx]
  00006	53		 push	 ebx
  00007	56		 push	 esi

; 1070 : 		_Left(_Wherenode) = _Right(_Pnode);

  00008	8b 70 08	 mov	 esi, DWORD PTR [eax+8]
  0000b	89 32		 mov	 DWORD PTR [edx], esi

; 1071 : 
; 1072 : 		if (!_Isnil(_Right(_Pnode)))

  0000d	8b 70 08	 mov	 esi, DWORD PTR [eax+8]
  00010	8a 5e 15	 mov	 bl, BYTE PTR [esi+21]
  00013	84 db		 test	 bl, bl
  00015	75 03		 jne	 SHORT $L189372

; 1073 : 			_Parent(_Right(_Pnode)) = _Wherenode;

  00017	89 56 04	 mov	 DWORD PTR [esi+4], edx
$L189372:

; 1074 : 		_Parent(_Pnode) = _Parent(_Wherenode);

  0001a	8b 72 04	 mov	 esi, DWORD PTR [edx+4]
  0001d	89 70 04	 mov	 DWORD PTR [eax+4], esi

; 1075 : 
; 1076 : 		if (_Wherenode == _Root())

  00020	8b 49 04	 mov	 ecx, DWORD PTR [ecx+4]
  00023	3b 51 04	 cmp	 edx, DWORD PTR [ecx+4]
  00026	75 0e		 jne	 SHORT $L189373

; 1077 : 			_Root() = _Pnode;

  00028	89 41 04	 mov	 DWORD PTR [ecx+4], eax
  0002b	5e		 pop	 esi

; 1082 : 
; 1083 : 		_Right(_Pnode) = _Wherenode;

  0002c	89 50 08	 mov	 DWORD PTR [eax+8], edx

; 1084 : 		_Parent(_Wherenode) = _Pnode;

  0002f	89 42 04	 mov	 DWORD PTR [edx+4], eax
  00032	5b		 pop	 ebx

; 1085 : 		}

  00033	c2 04 00	 ret	 4
$L189373:

; 1078 : 		else if (_Wherenode == _Right(_Parent(_Wherenode)))

  00036	8b 4a 04	 mov	 ecx, DWORD PTR [edx+4]
  00039	3b 51 08	 cmp	 edx, DWORD PTR [ecx+8]
  0003c	75 0e		 jne	 SHORT $L189375

; 1079 : 			_Right(_Parent(_Wherenode)) = _Pnode;

  0003e	89 41 08	 mov	 DWORD PTR [ecx+8], eax
  00041	5e		 pop	 esi

; 1082 : 
; 1083 : 		_Right(_Pnode) = _Wherenode;

  00042	89 50 08	 mov	 DWORD PTR [eax+8], edx

; 1084 : 		_Parent(_Wherenode) = _Pnode;

  00045	89 42 04	 mov	 DWORD PTR [edx+4], eax
  00048	5b		 pop	 ebx

; 1085 : 		}

  00049	c2 04 00	 ret	 4
$L189375:

; 1080 : 		else
; 1081 : 			_Left(_Parent(_Wherenode)) = _Pnode;

  0004c	89 01		 mov	 DWORD PTR [ecx], eax
  0004e	5e		 pop	 esi

; 1082 : 
; 1083 : 		_Right(_Pnode) = _Wherenode;

  0004f	89 50 08	 mov	 DWORD PTR [eax+8], edx

; 1084 : 		_Parent(_Wherenode) = _Pnode;

  00052	89 42 04	 mov	 DWORD PTR [edx+4], eax
  00055	5b		 pop	 ebx

; 1085 : 		}

  00056	c2 04 00	 ret	 4
?_Rrotate@?$_Tree@V?$_Tmap_traits@HPAV?$list@PAVCEventItem@@V?$allocator@PAVCEventItem@@@std@@@std@@U?$less@H@2@V?$allocator@U?$pair@$$CBHPAV?$list@PAVCEventItem@@V?$allocator@PAVCEventItem@@@std@@@std@@@std@@@2@$0A@@std@@@std@@IAEXPAU_Node@?$_Tree_nod@V?$_Tmap_traits@HPAV?$list@PAVCEventItem@@V?$allocator@PAVCEventItem@@@std@@@std@@U?$less@H@2@V?$allocator@U?$pair@$$CBHPAV?$list@PAVCEventItem@@V?$allocator@PAVCEventItem@@@std@@@std@@@std@@@2@$0A@@std@@@2@@Z ENDP ; std::_Tree<std::_Tmap_traits<int,std::list<CEventItem *,std::allocator<CEventItem *> > *,std::less<int>,std::allocator<std::pair<int const ,std::list<CEventItem *,std::allocator<CEventItem *> > *> >,0> >::_Rrotate
_TEXT	ENDS
PUBLIC	?destroy@?$allocator@U_Node@?$_Tree_nod@V?$_Tmap_traits@HPAV?$list@PAVCEventItem@@V?$allocator@PAVCEventItem@@@std@@@std@@U?$less@H@2@V?$allocator@U?$pair@$$CBHPAV?$list@PAVCEventItem@@V?$allocator@PAVCEventItem@@@std@@@std@@@std@@@2@$0A@@std@@@std@@@std@@QAEXPAU_Node@?$_Tree_nod@V?$_Tmap_traits@HPAV?$list@PAVCEventItem@@V?$allocator@PAVCEventItem@@@std@@@std@@U?$less@H@2@V?$allocator@U?$pair@$$CBHPAV?$list@PAVCEventItem@@V?$allocator@PAVCEventItem@@@std@@@std@@@std@@@2@$0A@@std@@@2@@Z ; std::allocator<std::_Tree_nod<std::_Tmap_traits<int,std::list<CEventItem *,std::allocator<CEventItem *> > *,std::less<int>,std::allocator<std::pair<int const ,std::list<CEventItem *,std::allocator<CEventItem *> > *> >,0> >::_Node>::destroy
; Function compile flags: /Ogty
; File c:\program files\microsoft visual studio .net 2003\vc7\include\xmemory
;	COMDAT ?destroy@?$allocator@U_Node@?$_Tree_nod@V?$_Tmap_traits@HPAV?$list@PAVCEventItem@@V?$allocator@PAVCEventItem@@@std@@@std@@U?$less@H@2@V?$allocator@U?$pair@$$CBHPAV?$list@PAVCEventItem@@V?$allocator@PAVCEventItem@@@std@@@std@@@std@@@2@$0A@@std@@@std@@@std@@QAEXPAU_Node@?$_Tree_nod@V?$_Tmap_traits@HPAV?$list@PAVCEventItem@@V?$allocator@PAVCEventItem@@@std@@@std@@U?$less@H@2@V?$allocator@U?$pair@$$CBHPAV?$list@PAVCEventItem@@V?$allocator@PAVCEventItem@@@std@@@std@@@std@@@2@$0A@@std@@@2@@Z
_TEXT	SEGMENT
__Ptr$ = 8						; size = 4
?destroy@?$allocator@U_Node@?$_Tree_nod@V?$_Tmap_traits@HPAV?$list@PAVCEventItem@@V?$allocator@PAVCEventItem@@@std@@@std@@U?$less@H@2@V?$allocator@U?$pair@$$CBHPAV?$list@PAVCEventItem@@V?$allocator@PAVCEventItem@@@std@@@std@@@std@@@2@$0A@@std@@@std@@@std@@QAEXPAU_Node@?$_Tree_nod@V?$_Tmap_traits@HPAV?$list@PAVCEventItem@@V?$allocator@PAVCEventItem@@@std@@@std@@U?$less@H@2@V?$allocator@U?$pair@$$CBHPAV?$list@PAVCEventItem@@V?$allocator@PAVCEventItem@@@std@@@std@@@std@@@2@$0A@@std@@@2@@Z PROC NEAR ; std::allocator<std::_Tree_nod<std::_Tmap_traits<int,std::list<CEventItem *,std::allocator<CEventItem *> > *,std::less<int>,std::allocator<std::pair<int const ,std::list<CEventItem *,std::allocator<CEventItem *> > *> >,0> >::_Node>::destroy, COMDAT
; _this$ = ecx

; 152  : 		_Destroy(_Ptr);
; 153  : 		}

  00000	c2 04 00	 ret	 4
?destroy@?$allocator@U_Node@?$_Tree_nod@V?$_Tmap_traits@HPAV?$list@PAVCEventItem@@V?$allocator@PAVCEventItem@@@std@@@std@@U?$less@H@2@V?$allocator@U?$pair@$$CBHPAV?$list@PAVCEventItem@@V?$allocator@PAVCEventItem@@@std@@@std@@@std@@@2@$0A@@std@@@std@@@std@@QAEXPAU_Node@?$_Tree_nod@V?$_Tmap_traits@HPAV?$list@PAVCEventItem@@V?$allocator@PAVCEventItem@@@std@@@std@@U?$less@H@2@V?$allocator@U?$pair@$$CBHPAV?$list@PAVCEventItem@@V?$allocator@PAVCEventItem@@@std@@@std@@@std@@@2@$0A@@std@@@2@@Z ENDP ; std::allocator<std::_Tree_nod<std::_Tmap_traits<int,std::list<CEventItem *,std::allocator<CEventItem *> > *,std::less<int>,std::allocator<std::pair<int const ,std::list<CEventItem *,std::allocator<CEventItem *> > *> >,0> >::_Node>::destroy
_TEXT	ENDS
PUBLIC	?destroy@?$allocator@PAU_Node@?$_Tree_nod@V?$_Tmap_traits@HPAV?$list@PAVCEventItem@@V?$allocator@PAVCEventItem@@@std@@@std@@U?$less@H@2@V?$allocator@U?$pair@$$CBHPAV?$list@PAVCEventItem@@V?$allocator@PAVCEventItem@@@std@@@std@@@std@@@2@$0A@@std@@@std@@@std@@QAEXPAPAU_Node@?$_Tree_nod@V?$_Tmap_traits@HPAV?$list@PAVCEventItem@@V?$allocator@PAVCEventItem@@@std@@@std@@U?$less@H@2@V?$allocator@U?$pair@$$CBHPAV?$list@PAVCEventItem@@V?$allocator@PAVCEventItem@@@std@@@std@@@std@@@2@$0A@@std@@@2@@Z ; std::allocator<std::_Tree_nod<std::_Tmap_traits<int,std::list<CEventItem *,std::allocator<CEventItem *> > *,std::less<int>,std::allocator<std::pair<int const ,std::list<CEventItem *,std::allocator<CEventItem *> > *> >,0> >::_Node *>::destroy
; Function compile flags: /Ogty
;	COMDAT ?destroy@?$allocator@PAU_Node@?$_Tree_nod@V?$_Tmap_traits@HPAV?$list@PAVCEventItem@@V?$allocator@PAVCEventItem@@@std@@@std@@U?$less@H@2@V?$allocator@U?$pair@$$CBHPAV?$list@PAVCEventItem@@V?$allocator@PAVCEventItem@@@std@@@std@@@std@@@2@$0A@@std@@@std@@@std@@QAEXPAPAU_Node@?$_Tree_nod@V?$_Tmap_traits@HPAV?$list@PAVCEventItem@@V?$allocator@PAVCEventItem@@@std@@@std@@U?$less@H@2@V?$allocator@U?$pair@$$CBHPAV?$list@PAVCEventItem@@V?$allocator@PAVCEventItem@@@std@@@std@@@std@@@2@$0A@@std@@@2@@Z
_TEXT	SEGMENT
__Ptr$ = 8						; size = 4
?destroy@?$allocator@PAU_Node@?$_Tree_nod@V?$_Tmap_traits@HPAV?$list@PAVCEventItem@@V?$allocator@PAVCEventItem@@@std@@@std@@U?$less@H@2@V?$allocator@U?$pair@$$CBHPAV?$list@PAVCEventItem@@V?$allocator@PAVCEventItem@@@std@@@std@@@std@@@2@$0A@@std@@@std@@@std@@QAEXPAPAU_Node@?$_Tree_nod@V?$_Tmap_traits@HPAV?$list@PAVCEventItem@@V?$allocator@PAVCEventItem@@@std@@@std@@U?$less@H@2@V?$allocator@U?$pair@$$CBHPAV?$list@PAVCEventItem@@V?$allocator@PAVCEventItem@@@std@@@std@@@std@@@2@$0A@@std@@@2@@Z PROC NEAR ; std::allocator<std::_Tree_nod<std::_Tmap_traits<int,std::list<CEventItem *,std::allocator<CEventItem *> > *,std::less<int>,std::allocator<std::pair<int const ,std::list<CEventItem *,std::allocator<CEventItem *> > *> >,0> >::_Node *>::destroy, COMDAT
; _this$ = ecx

; 152  : 		_Destroy(_Ptr);
; 153  : 		}

  00000	c2 04 00	 ret	 4
?destroy@?$allocator@PAU_Node@?$_Tree_nod@V?$_Tmap_traits@HPAV?$list@PAVCEventItem@@V?$allocator@PAVCEventItem@@@std@@@std@@U?$less@H@2@V?$allocator@U?$pair@$$CBHPAV?$list@PAVCEventItem@@V?$allocator@PAVCEventItem@@@std@@@std@@@std@@@2@$0A@@std@@@std@@@std@@QAEXPAPAU_Node@?$_Tree_nod@V?$_Tmap_traits@HPAV?$list@PAVCEventItem@@V?$allocator@PAVCEventItem@@@std@@@std@@U?$less@H@2@V?$allocator@U?$pair@$$CBHPAV?$list@PAVCEventItem@@V?$allocator@PAVCEventItem@@@std@@@std@@@std@@@2@$0A@@std@@@2@@Z ENDP ; std::allocator<std::_Tree_nod<std::_Tmap_traits<int,std::list<CEventItem *,std::allocator<CEventItem *> > *,std::less<int>,std::allocator<std::pair<int const ,std::list<CEventItem *,std::allocator<CEventItem *> > *> >,0> >::_Node *>::destroy
_TEXT	ENDS
PUBLIC	?_Inc@const_iterator@?$_Tree@V?$_Tmap_traits@HPAV?$list@PAVCEventItem@@V?$allocator@PAVCEventItem@@@std@@@std@@U?$less@H@2@V?$allocator@U?$pair@$$CBHPAV?$list@PAVCEventItem@@V?$allocator@PAVCEventItem@@@std@@@std@@@std@@@2@$0A@@std@@@std@@QAEXXZ ; std::_Tree<std::_Tmap_traits<int,std::list<CEventItem *,std::allocator<CEventItem *> > *,std::less<int>,std::allocator<std::pair<int const ,std::list<CEventItem *,std::allocator<CEventItem *> > *> >,0> >::const_iterator::_Inc
; Function compile flags: /Ogty
; File c:\program files\microsoft visual studio .net 2003\vc7\include\xtree
;	COMDAT ?_Inc@const_iterator@?$_Tree@V?$_Tmap_traits@HPAV?$list@PAVCEventItem@@V?$allocator@PAVCEventItem@@@std@@@std@@U?$less@H@2@V?$allocator@U?$pair@$$CBHPAV?$list@PAVCEventItem@@V?$allocator@PAVCEventItem@@@std@@@std@@@std@@@2@$0A@@std@@@std@@QAEXXZ
_TEXT	SEGMENT
?_Inc@const_iterator@?$_Tree@V?$_Tmap_traits@HPAV?$list@PAVCEventItem@@V?$allocator@PAVCEventItem@@@std@@@std@@U?$less@H@2@V?$allocator@U?$pair@$$CBHPAV?$list@PAVCEventItem@@V?$allocator@PAVCEventItem@@@std@@@std@@@std@@@2@$0A@@std@@@std@@QAEXXZ PROC NEAR ; std::_Tree<std::_Tmap_traits<int,std::list<CEventItem *,std::allocator<CEventItem *> > *,std::less<int>,std::allocator<std::pair<int const ,std::list<CEventItem *,std::allocator<CEventItem *> > *> >,0> >::const_iterator::_Inc, COMDAT
; _this$ = ecx

; 268  : 			if (_Isnil(_Ptr))

  00000	8b 01		 mov	 eax, DWORD PTR [ecx]
  00002	8a 50 15	 mov	 dl, BYTE PTR [eax+21]
  00005	84 d2		 test	 dl, dl
  00007	75 4d		 jne	 SHORT $L189420

; 269  : 				;	// end() shouldn't be incremented, don't move
; 270  : 			else if (!_Isnil(_Right(_Ptr)))

  00009	8b 50 08	 mov	 edx, DWORD PTR [eax+8]
  0000c	53		 push	 ebx
  0000d	8a 5a 15	 mov	 bl, BYTE PTR [edx+21]
  00010	84 db		 test	 bl, bl
  00012	75 1b		 jne	 SHORT $L191041

; 271  : 				_Ptr = _Min(_Right(_Ptr));	// ==> smallest of right subtree

  00014	8b 02		 mov	 eax, DWORD PTR [edx]
  00016	8a 58 15	 mov	 bl, BYTE PTR [eax+21]
  00019	84 db		 test	 bl, bl
  0001b	75 0e		 jne	 SHORT $L191022
  0001d	8d 49 00	 npad	 3
$L191021:
  00020	8b d0		 mov	 edx, eax
  00022	8b 02		 mov	 eax, DWORD PTR [edx]
  00024	8a 58 15	 mov	 bl, BYTE PTR [eax+21]
  00027	84 db		 test	 bl, bl
  00029	74 f5		 je	 SHORT $L191021
$L191022:
  0002b	89 11		 mov	 DWORD PTR [ecx], edx
  0002d	5b		 pop	 ebx

; 279  : 				}
; 280  : 			}

  0002e	c3		 ret	 0
$L191041:

; 272  : 			else
; 273  : 				{	// climb looking for right subtree
; 274  : 				_Nodeptr _Pnode;
; 275  : 				while (!_Isnil(_Pnode = _Parent(_Ptr))
; 276  : 					&& _Ptr == _Right(_Pnode))

  0002f	8b 40 04	 mov	 eax, DWORD PTR [eax+4]
  00032	8a 50 15	 mov	 dl, BYTE PTR [eax+21]
  00035	84 d2		 test	 dl, dl
  00037	75 1a		 jne	 SHORT $L189424
  00039	8d a4 24 00 00
	00 00		 npad	 7
$L189423:
  00040	8b 11		 mov	 edx, DWORD PTR [ecx]
  00042	3b 50 08	 cmp	 edx, DWORD PTR [eax+8]
  00045	75 0c		 jne	 SHORT $L189424

; 277  : 					_Ptr = _Pnode;	// ==> parent while right subtree

  00047	89 01		 mov	 DWORD PTR [ecx], eax
  00049	8b 40 04	 mov	 eax, DWORD PTR [eax+4]
  0004c	8a 50 15	 mov	 dl, BYTE PTR [eax+21]
  0004f	84 d2		 test	 dl, dl
  00051	74 ed		 je	 SHORT $L189423
$L189424:

; 278  : 				_Ptr = _Pnode;	// ==> parent (head if end())

  00053	89 01		 mov	 DWORD PTR [ecx], eax
  00055	5b		 pop	 ebx
$L189420:

; 279  : 				}
; 280  : 			}

  00056	c3		 ret	 0
?_Inc@const_iterator@?$_Tree@V?$_Tmap_traits@HPAV?$list@PAVCEventItem@@V?$allocator@PAVCEventItem@@@std@@@std@@U?$less@H@2@V?$allocator@U?$pair@$$CBHPAV?$list@PAVCEventItem@@V?$allocator@PAVCEventItem@@@std@@@std@@@std@@@2@$0A@@std@@@std@@QAEXXZ ENDP ; std::_Tree<std::_Tmap_traits<int,std::list<CEventItem *,std::allocator<CEventItem *> > *,std::less<int>,std::allocator<std::pair<int const ,std::list<CEventItem *,std::allocator<CEventItem *> > *> >,0> >::const_iterator::_Inc
_TEXT	ENDS
PUBLIC	?allocate@?$allocator@U_Node@?$_List_nod@PAVCEventItem@@V?$allocator@PAVCEventItem@@@std@@@std@@@std@@QAEPAU_Node@?$_List_nod@PAVCEventItem@@V?$allocator@PAVCEventItem@@@std@@@2@I@Z ; std::allocator<std::_List_nod<CEventItem *,std::allocator<CEventItem *> >::_Node>::allocate
; Function compile flags: /Ogty
; File c:\program files\microsoft visual studio .net 2003\vc7\include\xmemory
;	COMDAT ?allocate@?$allocator@U_Node@?$_List_nod@PAVCEventItem@@V?$allocator@PAVCEventItem@@@std@@@std@@@std@@QAEPAU_Node@?$_List_nod@PAVCEventItem@@V?$allocator@PAVCEventItem@@@std@@@2@I@Z
_TEXT	SEGMENT
__Count$ = 8						; size = 4
?allocate@?$allocator@U_Node@?$_List_nod@PAVCEventItem@@V?$allocator@PAVCEventItem@@@std@@@std@@@std@@QAEPAU_Node@?$_List_nod@PAVCEventItem@@V?$allocator@PAVCEventItem@@@std@@@2@I@Z PROC NEAR ; std::allocator<std::_List_nod<CEventItem *,std::allocator<CEventItem *> >::_Node>::allocate, COMDAT
; _this$ = ecx

; 137  : 		return (_Allocate(_Count, (pointer)0));

  00000	8b 44 24 04	 mov	 eax, DWORD PTR __Count$[esp-4]
  00004	8d 04 40	 lea	 eax, DWORD PTR [eax+eax*2]
  00007	c1 e0 02	 shl	 eax, 2
  0000a	50		 push	 eax
  0000b	e8 00 00 00 00	 call	 ??2@YAPAXI@Z		; operator new
  00010	83 c4 04	 add	 esp, 4

; 138  : 		}

  00013	c2 04 00	 ret	 4
?allocate@?$allocator@U_Node@?$_List_nod@PAVCEventItem@@V?$allocator@PAVCEventItem@@@std@@@std@@@std@@QAEPAU_Node@?$_List_nod@PAVCEventItem@@V?$allocator@PAVCEventItem@@@std@@@2@I@Z ENDP ; std::allocator<std::_List_nod<CEventItem *,std::allocator<CEventItem *> >::_Node>::allocate
_TEXT	ENDS
PUBLIC	?construct@?$allocator@PAU_Node@?$_List_nod@PAVCEventItem@@V?$allocator@PAVCEventItem@@@std@@@std@@@std@@QAEXPAPAU_Node@?$_List_nod@PAVCEventItem@@V?$allocator@PAVCEventItem@@@std@@@2@ABQAU342@@Z ; std::allocator<std::_List_nod<CEventItem *,std::allocator<CEventItem *> >::_Node *>::construct
; Function compile flags: /Ogty
;	COMDAT ?construct@?$allocator@PAU_Node@?$_List_nod@PAVCEventItem@@V?$allocator@PAVCEventItem@@@std@@@std@@@std@@QAEXPAPAU_Node@?$_List_nod@PAVCEventItem@@V?$allocator@PAVCEventItem@@@std@@@2@ABQAU342@@Z
_TEXT	SEGMENT
__Ptr$ = 8						; size = 4
__Val$ = 12						; size = 4
?construct@?$allocator@PAU_Node@?$_List_nod@PAVCEventItem@@V?$allocator@PAVCEventItem@@@std@@@std@@@std@@QAEXPAPAU_Node@?$_List_nod@PAVCEventItem@@V?$allocator@PAVCEventItem@@@std@@@2@ABQAU342@@Z PROC NEAR ; std::allocator<std::_List_nod<CEventItem *,std::allocator<CEventItem *> >::_Node *>::construct, COMDAT
; _this$ = ecx

; 147  : 		_Construct(_Ptr, _Val);

  00000	8b 44 24 04	 mov	 eax, DWORD PTR __Ptr$[esp-4]
  00004	85 c0		 test	 eax, eax
  00006	74 08		 je	 SHORT $L191062
  00008	8b 4c 24 08	 mov	 ecx, DWORD PTR __Val$[esp-4]
  0000c	8b 11		 mov	 edx, DWORD PTR [ecx]
  0000e	89 10		 mov	 DWORD PTR [eax], edx
$L191062:

; 148  : 		}

  00010	c2 08 00	 ret	 8
?construct@?$allocator@PAU_Node@?$_List_nod@PAVCEventItem@@V?$allocator@PAVCEventItem@@@std@@@std@@@std@@QAEXPAPAU_Node@?$_List_nod@PAVCEventItem@@V?$allocator@PAVCEventItem@@@std@@@2@ABQAU342@@Z ENDP ; std::allocator<std::_List_nod<CEventItem *,std::allocator<CEventItem *> >::_Node *>::construct
_TEXT	ENDS
PUBLIC	?destroy@?$allocator@PAU_Node@?$_List_nod@PAVCEventItem@@V?$allocator@PAVCEventItem@@@std@@@std@@@std@@QAEXPAPAU_Node@?$_List_nod@PAVCEventItem@@V?$allocator@PAVCEventItem@@@std@@@2@@Z ; std::allocator<std::_List_nod<CEventItem *,std::allocator<CEventItem *> >::_Node *>::destroy
; Function compile flags: /Ogty
;	COMDAT ?destroy@?$allocator@PAU_Node@?$_List_nod@PAVCEventItem@@V?$allocator@PAVCEventItem@@@std@@@std@@@std@@QAEXPAPAU_Node@?$_List_nod@PAVCEventItem@@V?$allocator@PAVCEventItem@@@std@@@2@@Z
_TEXT	SEGMENT
__Ptr$ = 8						; size = 4
?destroy@?$allocator@PAU_Node@?$_List_nod@PAVCEventItem@@V?$allocator@PAVCEventItem@@@std@@@std@@@std@@QAEXPAPAU_Node@?$_List_nod@PAVCEventItem@@V?$allocator@PAVCEventItem@@@std@@@2@@Z PROC NEAR ; std::allocator<std::_List_nod<CEventItem *,std::allocator<CEventItem *> >::_Node *>::destroy, COMDAT
; _this$ = ecx

; 152  : 		_Destroy(_Ptr);
; 153  : 		}

  00000	c2 04 00	 ret	 4
?destroy@?$allocator@PAU_Node@?$_List_nod@PAVCEventItem@@V?$allocator@PAVCEventItem@@@std@@@std@@@std@@QAEXPAPAU_Node@?$_List_nod@PAVCEventItem@@V?$allocator@PAVCEventItem@@@std@@@2@@Z ENDP ; std::allocator<std::_List_nod<CEventItem *,std::allocator<CEventItem *> >::_Node *>::destroy
_TEXT	ENDS
PUBLIC	?max_size@?$list@PAU_EVENT_GENERIC@@V?$allocator@PAU_EVENT_GENERIC@@@std@@@std@@QBEIXZ ; std::list<_EVENT_GENERIC *,std::allocator<_EVENT_GENERIC *> >::max_size
; Function compile flags: /Ogty
; File c:\program files\microsoft visual studio .net 2003\vc7\include\list
;	COMDAT ?max_size@?$list@PAU_EVENT_GENERIC@@V?$allocator@PAU_EVENT_GENERIC@@@std@@@std@@QBEIXZ
_TEXT	SEGMENT
?max_size@?$list@PAU_EVENT_GENERIC@@V?$allocator@PAU_EVENT_GENERIC@@@std@@@std@@QBEIXZ PROC NEAR ; std::list<_EVENT_GENERIC *,std::allocator<_EVENT_GENERIC *> >::max_size, COMDAT
; _this$ = ecx

; 436  : 		return (this->_Alval.max_size());

  00000	b8 ff ff ff 3f	 mov	 eax, 1073741823		; 3fffffffH

; 437  : 		}

  00005	c3		 ret	 0
?max_size@?$list@PAU_EVENT_GENERIC@@V?$allocator@PAU_EVENT_GENERIC@@@std@@@std@@QBEIXZ ENDP ; std::list<_EVENT_GENERIC *,std::allocator<_EVENT_GENERIC *> >::max_size
_TEXT	ENDS
PUBLIC	??0?$_List_nod@PAU_EVENT_GENERIC@@V?$allocator@PAU_EVENT_GENERIC@@@std@@@std@@IAE@V?$allocator@PAU_EVENT_GENERIC@@@1@@Z ; std::_List_nod<_EVENT_GENERIC *,std::allocator<_EVENT_GENERIC *> >::_List_nod<_EVENT_GENERIC *,std::allocator<_EVENT_GENERIC *> >
; Function compile flags: /Ogty
;	COMDAT ??0?$_List_nod@PAU_EVENT_GENERIC@@V?$allocator@PAU_EVENT_GENERIC@@@std@@@std@@IAE@V?$allocator@PAU_EVENT_GENERIC@@@1@@Z
_TEXT	SEGMENT
__Al$ = 8						; size = 1
??0?$_List_nod@PAU_EVENT_GENERIC@@V?$allocator@PAU_EVENT_GENERIC@@@std@@@std@@IAE@V?$allocator@PAU_EVENT_GENERIC@@@1@@Z PROC NEAR ; std::_List_nod<_EVENT_GENERIC *,std::allocator<_EVENT_GENERIC *> >::_List_nod<_EVENT_GENERIC *,std::allocator<_EVENT_GENERIC *> >, COMDAT
; _this$ = ecx

; 44   : 		{	// construct allocator from _Al

  00000	8b c1		 mov	 eax, ecx

; 45   : 		}

  00002	c2 04 00	 ret	 4
??0?$_List_nod@PAU_EVENT_GENERIC@@V?$allocator@PAU_EVENT_GENERIC@@@std@@@std@@IAE@V?$allocator@PAU_EVENT_GENERIC@@@1@@Z ENDP ; std::_List_nod<_EVENT_GENERIC *,std::allocator<_EVENT_GENERIC *> >::_List_nod<_EVENT_GENERIC *,std::allocator<_EVENT_GENERIC *> >
_TEXT	ENDS
PUBLIC	?allocate@?$allocator@U_Node@?$_Tree_nod@V?$_Tmap_traits@HPAV?$list@PAVCEventItem@@V?$allocator@PAVCEventItem@@@std@@@std@@U?$less@H@2@V?$allocator@U?$pair@$$CBHPAV?$list@PAVCEventItem@@V?$allocator@PAVCEventItem@@@std@@@std@@@std@@@2@$0A@@std@@@std@@@std@@QAEPAU_Node@?$_Tree_nod@V?$_Tmap_traits@HPAV?$list@PAVCEventItem@@V?$allocator@PAVCEventItem@@@std@@@std@@U?$less@H@2@V?$allocator@U?$pair@$$CBHPAV?$list@PAVCEventItem@@V?$allocator@PAVCEventItem@@@std@@@std@@@std@@@2@$0A@@std@@@2@I@Z ; std::allocator<std::_Tree_nod<std::_Tmap_traits<int,std::list<CEventItem *,std::allocator<CEventItem *> > *,std::less<int>,std::allocator<std::pair<int const ,std::list<CEventItem *,std::allocator<CEventItem *> > *> >,0> >::_Node>::allocate
; Function compile flags: /Ogty
; File c:\program files\microsoft visual studio .net 2003\vc7\include\xmemory
;	COMDAT ?allocate@?$allocator@U_Node@?$_Tree_nod@V?$_Tmap_traits@HPAV?$list@PAVCEventItem@@V?$allocator@PAVCEventItem@@@std@@@std@@U?$less@H@2@V?$allocator@U?$pair@$$CBHPAV?$list@PAVCEventItem@@V?$allocator@PAVCEventItem@@@std@@@std@@@std@@@2@$0A@@std@@@std@@@std@@QAEPAU_Node@?$_Tree_nod@V?$_Tmap_traits@HPAV?$list@PAVCEventItem@@V?$allocator@PAVCEventItem@@@std@@@std@@U?$less@H@2@V?$allocator@U?$pair@$$CBHPAV?$list@PAVCEventItem@@V?$allocator@PAVCEventItem@@@std@@@std@@@std@@@2@$0A@@std@@@2@I@Z
_TEXT	SEGMENT
__Count$ = 8						; size = 4
?allocate@?$allocator@U_Node@?$_Tree_nod@V?$_Tmap_traits@HPAV?$list@PAVCEventItem@@V?$allocator@PAVCEventItem@@@std@@@std@@U?$less@H@2@V?$allocator@U?$pair@$$CBHPAV?$list@PAVCEventItem@@V?$allocator@PAVCEventItem@@@std@@@std@@@std@@@2@$0A@@std@@@std@@@std@@QAEPAU_Node@?$_Tree_nod@V?$_Tmap_traits@HPAV?$list@PAVCEventItem@@V?$allocator@PAVCEventItem@@@std@@@std@@U?$less@H@2@V?$allocator@U?$pair@$$CBHPAV?$list@PAVCEventItem@@V?$allocator@PAVCEventItem@@@std@@@std@@@std@@@2@$0A@@std@@@2@I@Z PROC NEAR ; std::allocator<std::_Tree_nod<std::_Tmap_traits<int,std::list<CEventItem *,std::allocator<CEventItem *> > *,std::less<int>,std::allocator<std::pair<int const ,std::list<CEventItem *,std::allocator<CEventItem *> > *> >,0> >::_Node>::allocate, COMDAT
; _this$ = ecx

; 137  : 		return (_Allocate(_Count, (pointer)0));

  00000	8b 44 24 04	 mov	 eax, DWORD PTR __Count$[esp-4]
  00004	8d 04 40	 lea	 eax, DWORD PTR [eax+eax*2]
  00007	c1 e0 03	 shl	 eax, 3
  0000a	50		 push	 eax
  0000b	e8 00 00 00 00	 call	 ??2@YAPAXI@Z		; operator new
  00010	83 c4 04	 add	 esp, 4

; 138  : 		}

  00013	c2 04 00	 ret	 4
?allocate@?$allocator@U_Node@?$_Tree_nod@V?$_Tmap_traits@HPAV?$list@PAVCEventItem@@V?$allocator@PAVCEventItem@@@std@@@std@@U?$less@H@2@V?$allocator@U?$pair@$$CBHPAV?$list@PAVCEventItem@@V?$allocator@PAVCEventItem@@@std@@@std@@@std@@@2@$0A@@std@@@std@@@std@@QAEPAU_Node@?$_Tree_nod@V?$_Tmap_traits@HPAV?$list@PAVCEventItem@@V?$allocator@PAVCEventItem@@@std@@@std@@U?$less@H@2@V?$allocator@U?$pair@$$CBHPAV?$list@PAVCEventItem@@V?$allocator@PAVCEventItem@@@std@@@std@@@std@@@2@$0A@@std@@@2@I@Z ENDP ; std::allocator<std::_Tree_nod<std::_Tmap_traits<int,std::list<CEventItem *,std::allocator<CEventItem *> > *,std::less<int>,std::allocator<std::pair<int const ,std::list<CEventItem *,std::allocator<CEventItem *> > *> >,0> >::_Node>::allocate
_TEXT	ENDS
PUBLIC	?_Dec@const_iterator@?$_Tree@V?$_Tmap_traits@HPAV?$list@PAVCEventItem@@V?$allocator@PAVCEventItem@@@std@@@std@@U?$less@H@2@V?$allocator@U?$pair@$$CBHPAV?$list@PAVCEventItem@@V?$allocator@PAVCEventItem@@@std@@@std@@@std@@@2@$0A@@std@@@std@@QAEXXZ ; std::_Tree<std::_Tmap_traits<int,std::list<CEventItem *,std::allocator<CEventItem *> > *,std::less<int>,std::allocator<std::pair<int const ,std::list<CEventItem *,std::allocator<CEventItem *> > *> >,0> >::const_iterator::_Dec
; Function compile flags: /Ogty
; File c:\program files\microsoft visual studio .net 2003\vc7\include\xtree
;	COMDAT ?_Dec@const_iterator@?$_Tree@V?$_Tmap_traits@HPAV?$list@PAVCEventItem@@V?$allocator@PAVCEventItem@@@std@@@std@@U?$less@H@2@V?$allocator@U?$pair@$$CBHPAV?$list@PAVCEventItem@@V?$allocator@PAVCEventItem@@@std@@@std@@@std@@@2@$0A@@std@@@std@@QAEXXZ
_TEXT	SEGMENT
?_Dec@const_iterator@?$_Tree@V?$_Tmap_traits@HPAV?$list@PAVCEventItem@@V?$allocator@PAVCEventItem@@@std@@@std@@U?$less@H@2@V?$allocator@U?$pair@$$CBHPAV?$list@PAVCEventItem@@V?$allocator@PAVCEventItem@@@std@@@std@@@std@@@2@$0A@@std@@@std@@QAEXXZ PROC NEAR ; std::_Tree<std::_Tmap_traits<int,std::list<CEventItem *,std::allocator<CEventItem *> > *,std::less<int>,std::allocator<std::pair<int const ,std::list<CEventItem *,std::allocator<CEventItem *> > *> >,0> >::const_iterator::_Dec, COMDAT
; _this$ = ecx

; 251  : 			if (_Isnil(_Ptr))

  00000	8b 01		 mov	 eax, DWORD PTR [ecx]
  00002	8a 50 15	 mov	 dl, BYTE PTR [eax+21]
  00005	84 d2		 test	 dl, dl
  00007	74 06		 je	 SHORT $L189575

; 252  : 				_Ptr = _Right(_Ptr);	// end() ==> rightmost

  00009	8b 40 08	 mov	 eax, DWORD PTR [eax+8]
  0000c	89 01		 mov	 DWORD PTR [ecx], eax

; 263  : 				}
; 264  : 			}

  0000e	c3		 ret	 0
$L189575:

; 253  : 			else if (!_Isnil(_Left(_Ptr)))

  0000f	8b 10		 mov	 edx, DWORD PTR [eax]
  00011	53		 push	 ebx
  00012	8a 5a 15	 mov	 bl, BYTE PTR [edx+21]
  00015	84 db		 test	 bl, bl
  00017	75 1a		 jne	 SHORT $L191144

; 254  : 				_Ptr = _Max(_Left(_Ptr));	// ==> largest of left subtree

  00019	8b 42 08	 mov	 eax, DWORD PTR [edx+8]
  0001c	8a 58 15	 mov	 bl, BYTE PTR [eax+21]
  0001f	84 db		 test	 bl, bl
  00021	75 0c		 jne	 SHORT $L191122
$L191121:
  00023	8b d0		 mov	 edx, eax
  00025	8b 42 08	 mov	 eax, DWORD PTR [edx+8]
  00028	8a 58 15	 mov	 bl, BYTE PTR [eax+21]
  0002b	84 db		 test	 bl, bl
  0002d	74 f4		 je	 SHORT $L191121
$L191122:
  0002f	89 11		 mov	 DWORD PTR [ecx], edx
  00031	5b		 pop	 ebx

; 263  : 				}
; 264  : 			}

  00032	c3		 ret	 0
$L191144:

; 255  : 			else
; 256  : 				{	// climb looking for left subtree
; 257  : 				_Nodeptr _Pnode;
; 258  : 				while (!_Isnil(_Pnode = _Parent(_Ptr))
; 259  : 					&& _Ptr == _Left(_Pnode))

  00033	8b 40 04	 mov	 eax, DWORD PTR [eax+4]
  00036	8a 50 15	 mov	 dl, BYTE PTR [eax+21]
  00039	84 d2		 test	 dl, dl
  0003b	75 1e		 jne	 SHORT $L191147
  0003d	8d 49 00	 npad	 3
$L189581:
  00040	8b 11		 mov	 edx, DWORD PTR [ecx]
  00042	3b 10		 cmp	 edx, DWORD PTR [eax]
  00044	75 0c		 jne	 SHORT $L189582

; 260  : 					_Ptr = _Pnode;	// ==> parent while left subtree

  00046	89 01		 mov	 DWORD PTR [ecx], eax
  00048	8b 40 04	 mov	 eax, DWORD PTR [eax+4]
  0004b	8a 50 15	 mov	 dl, BYTE PTR [eax+21]
  0004e	84 d2		 test	 dl, dl
  00050	74 ee		 je	 SHORT $L189581
$L189582:

; 261  : 				if (!_Isnil(_Pnode))

  00052	8a 50 15	 mov	 dl, BYTE PTR [eax+21]
  00055	84 d2		 test	 dl, dl
  00057	75 02		 jne	 SHORT $L191147

; 262  : 					_Ptr = _Pnode;	// ==> parent if not head

  00059	89 01		 mov	 DWORD PTR [ecx], eax
$L191147:
  0005b	5b		 pop	 ebx

; 263  : 				}
; 264  : 			}

  0005c	c3		 ret	 0
?_Dec@const_iterator@?$_Tree@V?$_Tmap_traits@HPAV?$list@PAVCEventItem@@V?$allocator@PAVCEventItem@@@std@@@std@@U?$less@H@2@V?$allocator@U?$pair@$$CBHPAV?$list@PAVCEventItem@@V?$allocator@PAVCEventItem@@@std@@@std@@@std@@@2@$0A@@std@@@std@@QAEXXZ ENDP ; std::_Tree<std::_Tmap_traits<int,std::list<CEventItem *,std::allocator<CEventItem *> > *,std::less<int>,std::allocator<std::pair<int const ,std::list<CEventItem *,std::allocator<CEventItem *> > *> >,0> >::const_iterator::_Dec
_TEXT	ENDS
PUBLIC	?max_size@?$list@PAVCEventItem@@V?$allocator@PAVCEventItem@@@std@@@std@@QBEIXZ ; std::list<CEventItem *,std::allocator<CEventItem *> >::max_size
; Function compile flags: /Ogty
; File c:\program files\microsoft visual studio .net 2003\vc7\include\list
;	COMDAT ?max_size@?$list@PAVCEventItem@@V?$allocator@PAVCEventItem@@@std@@@std@@QBEIXZ
_TEXT	SEGMENT
?max_size@?$list@PAVCEventItem@@V?$allocator@PAVCEventItem@@@std@@@std@@QBEIXZ PROC NEAR ; std::list<CEventItem *,std::allocator<CEventItem *> >::max_size, COMDAT
; _this$ = ecx

; 436  : 		return (this->_Alval.max_size());

  00000	b8 ff ff ff 3f	 mov	 eax, 1073741823		; 3fffffffH

; 437  : 		}

  00005	c3		 ret	 0
?max_size@?$list@PAVCEventItem@@V?$allocator@PAVCEventItem@@@std@@@std@@QBEIXZ ENDP ; std::list<CEventItem *,std::allocator<CEventItem *> >::max_size
_TEXT	ENDS
PUBLIC	??0?$_List_nod@PAVCEventItem@@V?$allocator@PAVCEventItem@@@std@@@std@@IAE@V?$allocator@PAVCEventItem@@@1@@Z ; std::_List_nod<CEventItem *,std::allocator<CEventItem *> >::_List_nod<CEventItem *,std::allocator<CEventItem *> >
; Function compile flags: /Ogty
;	COMDAT ??0?$_List_nod@PAVCEventItem@@V?$allocator@PAVCEventItem@@@std@@@std@@IAE@V?$allocator@PAVCEventItem@@@1@@Z
_TEXT	SEGMENT
__Al$ = 8						; size = 1
??0?$_List_nod@PAVCEventItem@@V?$allocator@PAVCEventItem@@@std@@@std@@IAE@V?$allocator@PAVCEventItem@@@1@@Z PROC NEAR ; std::_List_nod<CEventItem *,std::allocator<CEventItem *> >::_List_nod<CEventItem *,std::allocator<CEventItem *> >, COMDAT
; _this$ = ecx

; 44   : 		{	// construct allocator from _Al

  00000	8b c1		 mov	 eax, ecx

; 45   : 		}

  00002	c2 04 00	 ret	 4
??0?$_List_nod@PAVCEventItem@@V?$allocator@PAVCEventItem@@@std@@@std@@IAE@V?$allocator@PAVCEventItem@@@1@@Z ENDP ; std::_List_nod<CEventItem *,std::allocator<CEventItem *> >::_List_nod<CEventItem *,std::allocator<CEventItem *> >
_TEXT	ENDS
PUBLIC	??0?$_Tree_nod@V?$_Tmap_traits@HPAV?$list@PAVCEventItem@@V?$allocator@PAVCEventItem@@@std@@@std@@U?$less@H@2@V?$allocator@U?$pair@$$CBHPAV?$list@PAVCEventItem@@V?$allocator@PAVCEventItem@@@std@@@std@@@std@@@2@$0A@@std@@@std@@IAE@ABU?$less@H@1@V?$allocator@U?$pair@$$CBHPAV?$list@PAVCEventItem@@V?$allocator@PAVCEventItem@@@std@@@std@@@std@@@1@@Z ; std::_Tree_nod<std::_Tmap_traits<int,std::list<CEventItem *,std::allocator<CEventItem *> > *,std::less<int>,std::allocator<std::pair<int const ,std::list<CEventItem *,std::allocator<CEventItem *> > *> >,0> >::_Tree_nod<std::_Tmap_traits<int,std::list<CEventItem *,std::allocator<CEventItem *> > *,std::less<int>,std::allocator<std::pair<int const ,std::list<CEventItem *,std::allocator<CEventItem *> > *> >,0> >
; Function compile flags: /Ogty
; File c:\program files\microsoft visual studio .net 2003\vc7\include\xtree
;	COMDAT ??0?$_Tree_nod@V?$_Tmap_traits@HPAV?$list@PAVCEventItem@@V?$allocator@PAVCEventItem@@@std@@@std@@U?$less@H@2@V?$allocator@U?$pair@$$CBHPAV?$list@PAVCEventItem@@V?$allocator@PAVCEventItem@@@std@@@std@@@std@@@2@$0A@@std@@@std@@IAE@ABU?$less@H@1@V?$allocator@U?$pair@$$CBHPAV?$list@PAVCEventItem@@V?$allocator@PAVCEventItem@@@std@@@std@@@std@@@1@@Z
_TEXT	SEGMENT
__Parg$ = 8						; size = 4
__Al$ = 12						; size = 1
??0?$_Tree_nod@V?$_Tmap_traits@HPAV?$list@PAVCEventItem@@V?$allocator@PAVCEventItem@@@std@@@std@@U?$less@H@2@V?$allocator@U?$pair@$$CBHPAV?$list@PAVCEventItem@@V?$allocator@PAVCEventItem@@@std@@@std@@@std@@@2@$0A@@std@@@std@@IAE@ABU?$less@H@1@V?$allocator@U?$pair@$$CBHPAV?$list@PAVCEventItem@@V?$allocator@PAVCEventItem@@@std@@@std@@@std@@@1@@Z PROC NEAR ; std::_Tree_nod<std::_Tmap_traits<int,std::list<CEventItem *,std::allocator<CEventItem *> > *,std::less<int>,std::allocator<std::pair<int const ,std::list<CEventItem *,std::allocator<CEventItem *> > *> >,0> >::_Tree_nod<std::_Tmap_traits<int,std::list<CEventItem *,std::allocator<CEventItem *> > *,std::less<int>,std::allocator<std::pair<int const ,std::list<CEventItem *,std::allocator<CEventItem *> > *> >,0> >, COMDAT
; _this$ = ecx

; 54   : 		{	// construct traits from _Parg and allocator from _Al

  00000	8b c1		 mov	 eax, ecx

; 55   : 		}

  00002	c2 08 00	 ret	 8
??0?$_Tree_nod@V?$_Tmap_traits@HPAV?$list@PAVCEventItem@@V?$allocator@PAVCEventItem@@@std@@@std@@U?$less@H@2@V?$allocator@U?$pair@$$CBHPAV?$list@PAVCEventItem@@V?$allocator@PAVCEventItem@@@std@@@std@@@std@@@2@$0A@@std@@@std@@IAE@ABU?$less@H@1@V?$allocator@U?$pair@$$CBHPAV?$list@PAVCEventItem@@V?$allocator@PAVCEventItem@@@std@@@std@@@std@@@1@@Z ENDP ; std::_Tree_nod<std::_Tmap_traits<int,std::list<CEventItem *,std::allocator<CEventItem *> > *,std::less<int>,std::allocator<std::pair<int const ,std::list<CEventItem *,std::allocator<CEventItem *> > *> >,0> >::_Tree_nod<std::_Tmap_traits<int,std::list<CEventItem *,std::allocator<CEventItem *> > *,std::less<int>,std::allocator<std::pair<int const ,std::list<CEventItem *,std::allocator<CEventItem *> > *> >,0> >
_TEXT	ENDS
PUBLIC	?construct@?$allocator@PAU_Node@?$_Tree_nod@V?$_Tmap_traits@HPAV?$list@PAVCEventItem@@V?$allocator@PAVCEventItem@@@std@@@std@@U?$less@H@2@V?$allocator@U?$pair@$$CBHPAV?$list@PAVCEventItem@@V?$allocator@PAVCEventItem@@@std@@@std@@@std@@@2@$0A@@std@@@std@@@std@@QAEXPAPAU_Node@?$_Tree_nod@V?$_Tmap_traits@HPAV?$list@PAVCEventItem@@V?$allocator@PAVCEventItem@@@std@@@std@@U?$less@H@2@V?$allocator@U?$pair@$$CBHPAV?$list@PAVCEventItem@@V?$allocator@PAVCEventItem@@@std@@@std@@@std@@@2@$0A@@std@@@2@ABQAU342@@Z ; std::allocator<std::_Tree_nod<std::_Tmap_traits<int,std::list<CEventItem *,std::allocator<CEventItem *> > *,std::less<int>,std::allocator<std::pair<int const ,std::list<CEventItem *,std::allocator<CEventItem *> > *> >,0> >::_Node *>::construct
; Function compile flags: /Ogty
; File c:\program files\microsoft visual studio .net 2003\vc7\include\xmemory
;	COMDAT ?construct@?$allocator@PAU_Node@?$_Tree_nod@V?$_Tmap_traits@HPAV?$list@PAVCEventItem@@V?$allocator@PAVCEventItem@@@std@@@std@@U?$less@H@2@V?$allocator@U?$pair@$$CBHPAV?$list@PAVCEventItem@@V?$allocator@PAVCEventItem@@@std@@@std@@@std@@@2@$0A@@std@@@std@@@std@@QAEXPAPAU_Node@?$_Tree_nod@V?$_Tmap_traits@HPAV?$list@PAVCEventItem@@V?$allocator@PAVCEventItem@@@std@@@std@@U?$less@H@2@V?$allocator@U?$pair@$$CBHPAV?$list@PAVCEventItem@@V?$allocator@PAVCEventItem@@@std@@@std@@@std@@@2@$0A@@std@@@2@ABQAU342@@Z
_TEXT	SEGMENT
__Ptr$ = 8						; size = 4
__Val$ = 12						; size = 4
?construct@?$allocator@PAU_Node@?$_Tree_nod@V?$_Tmap_traits@HPAV?$list@PAVCEventItem@@V?$allocator@PAVCEventItem@@@std@@@std@@U?$less@H@2@V?$allocator@U?$pair@$$CBHPAV?$list@PAVCEventItem@@V?$allocator@PAVCEventItem@@@std@@@std@@@std@@@2@$0A@@std@@@std@@@std@@QAEXPAPAU_Node@?$_Tree_nod@V?$_Tmap_traits@HPAV?$list@PAVCEventItem@@V?$allocator@PAVCEventItem@@@std@@@std@@U?$less@H@2@V?$allocator@U?$pair@$$CBHPAV?$list@PAVCEventItem@@V?$allocator@PAVCEventItem@@@std@@@std@@@std@@@2@$0A@@std@@@2@ABQAU342@@Z PROC NEAR ; std::allocator<std::_Tree_nod<std::_Tmap_traits<int,std::list<CEventItem *,std::allocator<CEventItem *> > *,std::less<int>,std::allocator<std::pair<int const ,std::list<CEventItem *,std::allocator<CEventItem *> > *> >,0> >::_Node *>::construct, COMDAT
; _this$ = ecx

; 147  : 		_Construct(_Ptr, _Val);

  00000	8b 44 24 04	 mov	 eax, DWORD PTR __Ptr$[esp-4]
  00004	85 c0		 test	 eax, eax
  00006	74 08		 je	 SHORT $L191184
  00008	8b 4c 24 08	 mov	 ecx, DWORD PTR __Val$[esp-4]
  0000c	8b 11		 mov	 edx, DWORD PTR [ecx]
  0000e	89 10		 mov	 DWORD PTR [eax], edx
$L191184:

; 148  : 		}

  00010	c2 08 00	 ret	 8
?construct@?$allocator@PAU_Node@?$_Tree_nod@V?$_Tmap_traits@HPAV?$list@PAVCEventItem@@V?$allocator@PAVCEventItem@@@std@@@std@@U?$less@H@2@V?$allocator@U?$pair@$$CBHPAV?$list@PAVCEventItem@@V?$allocator@PAVCEventItem@@@std@@@std@@@std@@@2@$0A@@std@@@std@@@std@@QAEXPAPAU_Node@?$_Tree_nod@V?$_Tmap_traits@HPAV?$list@PAVCEventItem@@V?$allocator@PAVCEventItem@@@std@@@std@@U?$less@H@2@V?$allocator@U?$pair@$$CBHPAV?$list@PAVCEventItem@@V?$allocator@PAVCEventItem@@@std@@@std@@@std@@@2@$0A@@std@@@2@ABQAU342@@Z ENDP ; std::allocator<std::_Tree_nod<std::_Tmap_traits<int,std::list<CEventItem *,std::allocator<CEventItem *> > *,std::less<int>,std::allocator<std::pair<int const ,std::list<CEventItem *,std::allocator<CEventItem *> > *> >,0> >::_Node *>::construct
_TEXT	ENDS
PUBLIC	??6CAr@@QAEAAV0@H@Z				; CAr::operator<<
; Function compile flags: /Ogty
; File c:\documents and settings\test\mes documents\source\virtuos_v17\build\program\_network\misc\include\ar.h
;	COMDAT ??6CAr@@QAEAAV0@H@Z
_TEXT	SEGMENT
_i$ = 8							; size = 4
??6CAr@@QAEAAV0@H@Z PROC NEAR				; CAr::operator<<, COMDAT
; _this$ = ecx

; 99   : 	{ return CAr::operator<<((LONG)i); }

  00000	56		 push	 esi
  00001	6a 04		 push	 4
  00003	8b f1		 mov	 esi, ecx
  00005	e8 00 00 00 00	 call	 ?CheckBuf@CAr@@QAEXI@Z	; CAr::CheckBuf
  0000a	8b 46 08	 mov	 eax, DWORD PTR [esi+8]
  0000d	8b 4c 24 08	 mov	 ecx, DWORD PTR _i$[esp]
  00011	89 08		 mov	 DWORD PTR [eax], ecx
  00013	83 46 08 04	 add	 DWORD PTR [esi+8], 4
  00017	8b c6		 mov	 eax, esi
  00019	5e		 pop	 esi
  0001a	c2 04 00	 ret	 4
??6CAr@@QAEAAV0@H@Z ENDP				; CAr::operator<<
_TEXT	ENDS
PUBLIC	??5CAr@@QAEAAV0@AAH@Z				; CAr::operator>>
; Function compile flags: /Ogty
;	COMDAT ??5CAr@@QAEAAV0@AAH@Z
_TEXT	SEGMENT
_i$ = 8							; size = 4
??5CAr@@QAEAAV0@AAH@Z PROC NEAR				; CAr::operator>>, COMDAT
; _this$ = ecx

; 126  : 	{ return CAr::operator>>((LONG&)i); }

  00000	8b c1		 mov	 eax, ecx
  00002	8b 48 08	 mov	 ecx, DWORD PTR [eax+8]
  00005	56		 push	 esi
  00006	8b 70 0c	 mov	 esi, DWORD PTR [eax+12]
  00009	8d 51 04	 lea	 edx, DWORD PTR [ecx+4]
  0000c	3b d6		 cmp	 edx, esi
  0000e	5e		 pop	 esi
  0000f	77 0f		 ja	 SHORT $L191197
  00011	8b 09		 mov	 ecx, DWORD PTR [ecx]
  00013	8b 54 24 04	 mov	 edx, DWORD PTR _i$[esp-4]
  00017	89 0a		 mov	 DWORD PTR [edx], ecx
  00019	83 40 08 04	 add	 DWORD PTR [eax+8], 4
  0001d	c2 04 00	 ret	 4
$L191197:
  00020	8b 4c 24 04	 mov	 ecx, DWORD PTR _i$[esp-4]
  00024	c7 01 00 00 00
	00		 mov	 DWORD PTR [ecx], 0
  0002a	8b 50 0c	 mov	 edx, DWORD PTR [eax+12]
  0002d	89 50 08	 mov	 DWORD PTR [eax+8], edx
  00030	c2 04 00	 ret	 4
??5CAr@@QAEAAV0@AAH@Z ENDP				; CAr::operator>>
_TEXT	ENDS
PUBLIC	?GetLength@?$CSimpleStringT@D$0A@@ATL@@QBEHXZ	; ATL::CSimpleStringT<char,0>::GetLength
; Function compile flags: /Ogty
; File c:\program files\microsoft visual studio .net 2003\vc7\atlmfc\include\atlsimpstr.h
;	COMDAT ?GetLength@?$CSimpleStringT@D$0A@@ATL@@QBEHXZ
_TEXT	SEGMENT
?GetLength@?$CSimpleStringT@D$0A@@ATL@@QBEHXZ PROC NEAR	; ATL::CSimpleStringT<char,0>::GetLength, COMDAT
; _this$ = ecx

; 501  : 		return( GetData()->nDataLength );

  00000	8b 01		 mov	 eax, DWORD PTR [ecx]
  00002	8b 40 f4	 mov	 eax, DWORD PTR [eax-12]

; 502  : 	}

  00005	c3		 ret	 0
?GetLength@?$CSimpleStringT@D$0A@@ATL@@QBEHXZ ENDP	; ATL::CSimpleStringT<char,0>::GetLength
_TEXT	ENDS
PUBLIC	??0?$CSimpleStringT@D$0A@@ATL@@QAE@PAUIAtlStringMgr@1@@Z ; ATL::CSimpleStringT<char,0>::CSimpleStringT<char,0>
; Function compile flags: /Ogty
;	COMDAT ??0?$CSimpleStringT@D$0A@@ATL@@QAE@PAUIAtlStringMgr@1@@Z
_TEXT	SEGMENT
_pStringMgr$ = 8					; size = 4
??0?$CSimpleStringT@D$0A@@ATL@@QAE@PAUIAtlStringMgr@1@@Z PROC NEAR ; ATL::CSimpleStringT<char,0>::CSimpleStringT<char,0>, COMDAT
; _this$ = ecx

; 210  : 	explicit CSimpleStringT( IAtlStringMgr* pStringMgr ) throw()

  00000	56		 push	 esi
  00001	8b f1		 mov	 esi, ecx

; 211  : 	{
; 212  : 		ATLASSERT( pStringMgr != NULL );
; 213  : 		CStringData* pData = pStringMgr->GetNilString();

  00003	8b 4c 24 08	 mov	 ecx, DWORD PTR _pStringMgr$[esp]
  00007	8b 01		 mov	 eax, DWORD PTR [ecx]
  00009	ff 50 0c	 call	 DWORD PTR [eax+12]

; 214  : 		Attach( pData );

  0000c	83 c0 10	 add	 eax, 16			; 00000010H
  0000f	89 06		 mov	 DWORD PTR [esi], eax

; 215  : 	}

  00011	8b c6		 mov	 eax, esi
  00013	5e		 pop	 esi
  00014	c2 04 00	 ret	 4
??0?$CSimpleStringT@D$0A@@ATL@@QAE@PAUIAtlStringMgr@1@@Z ENDP ; ATL::CSimpleStringT<char,0>::CSimpleStringT<char,0>
_TEXT	ENDS
PUBLIC	??1?$CSimpleStringT@D$0A@@ATL@@QAE@XZ		; ATL::CSimpleStringT<char,0>::~CSimpleStringT<char,0>
; Function compile flags: /Ogty
;	COMDAT ??1?$CSimpleStringT@D$0A@@ATL@@QAE@XZ
_TEXT	SEGMENT
??1?$CSimpleStringT@D$0A@@ATL@@QAE@XZ PROC NEAR		; ATL::CSimpleStringT<char,0>::~CSimpleStringT<char,0>, COMDAT
; _this$ = ecx

; 263  : 		CStringData* pData = GetData();

  00000	8b 01		 mov	 eax, DWORD PTR [ecx]
  00002	83 e8 10	 sub	 eax, 16			; 00000010H

; 264  : 		pData->Release();

  00005	8d 48 0c	 lea	 ecx, DWORD PTR [eax+12]
  00008	83 ca ff	 or	 edx, -1
  0000b	f0 0f c1 11	 lock	  xadd	 DWORD PTR [ecx], edx
  0000f	4a		 dec	 edx
  00010	85 d2		 test	 edx, edx
  00012	7f 08		 jg	 SHORT $L191223
  00014	8b 08		 mov	 ecx, DWORD PTR [eax]
  00016	8b 11		 mov	 edx, DWORD PTR [ecx]
  00018	50		 push	 eax
  00019	ff 52 04	 call	 DWORD PTR [edx+4]
$L191223:

; 265  : 	}

  0001c	c3		 ret	 0
??1?$CSimpleStringT@D$0A@@ATL@@QAE@XZ ENDP		; ATL::CSimpleStringT<char,0>::~CSimpleStringT<char,0>
_TEXT	ENDS
PUBLIC	?ReleaseBufferSetLength@?$CSimpleStringT@D$0A@@ATL@@QAEXH@Z ; ATL::CSimpleStringT<char,0>::ReleaseBufferSetLength
; Function compile flags: /Ogty
;	COMDAT ?ReleaseBufferSetLength@?$CSimpleStringT@D$0A@@ATL@@QAEXH@Z
_TEXT	SEGMENT
_nNewLength$ = 8					; size = 4
?ReleaseBufferSetLength@?$CSimpleStringT@D$0A@@ATL@@QAEXH@Z PROC NEAR ; ATL::CSimpleStringT<char,0>::ReleaseBufferSetLength, COMDAT
; _this$ = ecx

; 547  : 		ATLASSERT( nNewLength >= 0 );
; 548  : 		SetLength( nNewLength );

  00000	8b 44 24 04	 mov	 eax, DWORD PTR _nNewLength$[esp-4]
  00004	85 c0		 test	 eax, eax
  00006	7c 13		 jl	 SHORT $L191240
  00008	8b 11		 mov	 edx, DWORD PTR [ecx]
  0000a	3b 42 f8	 cmp	 eax, DWORD PTR [edx-8]
  0000d	7f 0c		 jg	 SHORT $L191240
  0000f	89 42 f4	 mov	 DWORD PTR [edx-12], eax
  00012	8b 09		 mov	 ecx, DWORD PTR [ecx]
  00014	c6 04 08 00	 mov	 BYTE PTR [eax+ecx], 0

; 549  : 	}

  00018	c2 04 00	 ret	 4
$L191240:
  0001b	68 57 00 07 80	 push	 -2147024809		; 80070057H
  00020	e8 00 00 00 00	 call	 ?AtlThrow@ATL@@YGXJ@Z	; ATL::AtlThrow
$L191242:
  00025	cc		 int	 3
?ReleaseBufferSetLength@?$CSimpleStringT@D$0A@@ATL@@QAEXH@Z ENDP ; ATL::CSimpleStringT<char,0>::ReleaseBufferSetLength
_TEXT	ENDS
PUBLIC	??0?$_String_val@DV?$allocator@D@std@@@std@@IAE@V?$allocator@D@1@@Z ; std::_String_val<char,std::allocator<char> >::_String_val<char,std::allocator<char> >
; Function compile flags: /Ogty
; File c:\program files\microsoft visual studio .net 2003\vc7\include\xstring
;	COMDAT ??0?$_String_val@DV?$allocator@D@std@@@std@@IAE@V?$allocator@D@1@@Z
_TEXT	SEGMENT
__Al$ = 8						; size = 1
??0?$_String_val@DV?$allocator@D@std@@@std@@IAE@V?$allocator@D@1@@Z PROC NEAR ; std::_String_val<char,std::allocator<char> >::_String_val<char,std::allocator<char> >, COMDAT
; _this$ = ecx

; 34   : 		{	// construct allocator from _Al

  00000	8b c1		 mov	 eax, ecx

; 35   : 		}

  00002	c2 04 00	 ret	 4
??0?$_String_val@DV?$allocator@D@std@@@std@@IAE@V?$allocator@D@1@@Z ENDP ; std::_String_val<char,std::allocator<char> >::_String_val<char,std::allocator<char> >
_TEXT	ENDS
PUBLIC	?Empty@?$CSimpleStringT@D$0A@@ATL@@QAEXXZ	; ATL::CSimpleStringT<char,0>::Empty
; Function compile flags: /Ogty
; File c:\program files\microsoft visual studio .net 2003\vc7\atlmfc\include\atlsimpstr.h
;	COMDAT ?Empty@?$CSimpleStringT@D$0A@@ATL@@QAEXXZ
_TEXT	SEGMENT
?Empty@?$CSimpleStringT@D$0A@@ATL@@QAEXXZ PROC NEAR	; ATL::CSimpleStringT<char,0>::Empty, COMDAT
; _this$ = ecx

; 421  : 	{

  00000	56		 push	 esi
  00001	8b f1		 mov	 esi, ecx

; 422  : 		CStringData* pOldData = GetData();

  00003	8b 0e		 mov	 ecx, DWORD PTR [esi]

; 423  : 		IAtlStringMgr* pStringMgr = pOldData->pStringMgr;
; 424  : 		if( pOldData->nDataLength == 0 )

  00005	8b 51 f4	 mov	 edx, DWORD PTR [ecx-12]
  00008	85 d2		 test	 edx, edx
  0000a	8d 41 f0	 lea	 eax, DWORD PTR [ecx-16]
  0000d	57		 push	 edi
  0000e	8b 38		 mov	 edi, DWORD PTR [eax]
  00010	74 4c		 je	 SHORT $L191280
  00012	53		 push	 ebx

; 425  : 		{
; 426  : 			return;
; 427  : 		}
; 428  : 
; 429  : 		if( pOldData->IsLocked() )

  00013	8b 58 0c	 mov	 ebx, DWORD PTR [eax+12]
  00016	8d 50 0c	 lea	 edx, DWORD PTR [eax+12]
  00019	85 db		 test	 ebx, ebx
  0001b	5b		 pop	 ebx
  0001c	7d 20		 jge	 SHORT $L184939

; 430  : 		{
; 431  : 			// Don't reallocate a locked buffer that's shrinking
; 432  : 			SetLength( 0 );

  0001e	8b 41 f8	 mov	 eax, DWORD PTR [ecx-8]
  00021	85 c0		 test	 eax, eax
  00023	7d 0a		 jge	 SHORT $L191269
  00025	68 57 00 07 80	 push	 -2147024809		; 80070057H
  0002a	e8 00 00 00 00	 call	 ?AtlThrow@ATL@@YGXJ@Z	; ATL::AtlThrow
$L191269:
  0002f	c7 41 f4 00 00
	00 00		 mov	 DWORD PTR [ecx-12], 0
  00036	8b 06		 mov	 eax, DWORD PTR [esi]
  00038	5f		 pop	 edi
  00039	c6 00 00	 mov	 BYTE PTR [eax], 0
  0003c	5e		 pop	 esi

; 439  : 		}
; 440  : 	}

  0003d	c3		 ret	 0
$L184939:

; 433  : 		}
; 434  : 		else
; 435  : 		{
; 436  : 			pOldData->Release();

  0003e	83 c9 ff	 or	 ecx, -1
  00041	f0 0f c1 0a	 lock	  xadd	 DWORD PTR [edx], ecx
  00045	49		 dec	 ecx
  00046	85 c9		 test	 ecx, ecx
  00048	7f 08		 jg	 SHORT $L191275
  0004a	8b 08		 mov	 ecx, DWORD PTR [eax]
  0004c	8b 11		 mov	 edx, DWORD PTR [ecx]
  0004e	50		 push	 eax
  0004f	ff 52 04	 call	 DWORD PTR [edx+4]
$L191275:

; 437  : 			CStringData* pNewData = pStringMgr->GetNilString();

  00052	8b 07		 mov	 eax, DWORD PTR [edi]
  00054	8b cf		 mov	 ecx, edi
  00056	ff 50 0c	 call	 DWORD PTR [eax+12]

; 438  : 			Attach( pNewData );

  00059	83 c0 10	 add	 eax, 16			; 00000010H
  0005c	89 06		 mov	 DWORD PTR [esi], eax
$L191280:
  0005e	5f		 pop	 edi
  0005f	5e		 pop	 esi

; 439  : 		}
; 440  : 	}

  00060	c3		 ret	 0
$L191284:
?Empty@?$CSimpleStringT@D$0A@@ATL@@QAEXXZ ENDP		; ATL::CSimpleStringT<char,0>::Empty
_TEXT	ENDS
PUBLIC	?PrepareWrite2@?$CSimpleStringT@D$0A@@ATL@@AAEXH@Z ; ATL::CSimpleStringT<char,0>::PrepareWrite2
; Function compile flags: /Ogty
;	COMDAT ?PrepareWrite2@?$CSimpleStringT@D$0A@@ATL@@AAEXH@Z
_TEXT	SEGMENT
_nLength$ = 8						; size = 4
?PrepareWrite2@?$CSimpleStringT@D$0A@@ATL@@AAEXH@Z PROC NEAR ; ATL::CSimpleStringT<char,0>::PrepareWrite2, COMDAT
; _this$ = ecx

; 747  : 		CStringData* pOldData = GetData();

  00000	8b 01		 mov	 eax, DWORD PTR [ecx]

; 748  : 		if( pOldData->nDataLength > nLength )

  00002	8b 54 24 04	 mov	 edx, DWORD PTR _nLength$[esp-4]
  00006	83 e8 10	 sub	 eax, 16			; 00000010H
  00009	56		 push	 esi
  0000a	8b 70 04	 mov	 esi, DWORD PTR [eax+4]
  0000d	3b f2		 cmp	 esi, edx
  0000f	7e 02		 jle	 SHORT $L184961

; 749  : 		{
; 750  : 			nLength = pOldData->nDataLength;

  00011	8b d6		 mov	 edx, esi
$L184961:

; 751  : 		}
; 752  : 		if( pOldData->IsShared() )

  00013	83 78 0c 01	 cmp	 DWORD PTR [eax+12], 1
  00017	5e		 pop	 esi
  00018	7e 09		 jle	 SHORT $L184962

; 753  : 		{
; 754  : 			Fork( nLength );

  0001a	89 54 24 04	 mov	 DWORD PTR _nLength$[esp-4], edx
  0001e	e9 00 00 00 00	 jmp	 ?Fork@?$CSimpleStringT@D$0A@@ATL@@AAEXH@Z ; ATL::CSimpleStringT<char,0>::Fork
$L184962:

; 755  : 		}
; 756  : 		else if( pOldData->nAllocLength < nLength )

  00023	8b 40 08	 mov	 eax, DWORD PTR [eax+8]
  00026	3b c2		 cmp	 eax, edx
  00028	7d 1f		 jge	 SHORT $L184964

; 757  : 		{
; 758  : 			// Grow exponentially, until we hit 1K.
; 759  : 			int nNewLength = pOldData->nAllocLength;
; 760  : 			if( nNewLength > 1024 )

  0002a	3d 00 04 00 00	 cmp	 eax, 1024		; 00000400H
  0002f	7e 07		 jle	 SHORT $L184966

; 761  : 			{
; 762  : 				nNewLength += 1024;

  00031	05 00 04 00 00	 add	 eax, 1024		; 00000400H

; 763  : 			}
; 764  : 			else

  00036	eb 02		 jmp	 SHORT $L184967
$L184966:

; 765  : 			{
; 766  : 				nNewLength *= 2;

  00038	03 c0		 add	 eax, eax
$L184967:

; 767  : 			}
; 768  : 			if( nNewLength < nLength )

  0003a	3b c2		 cmp	 eax, edx
  0003c	7d 02		 jge	 SHORT $L184968

; 769  : 			{
; 770  : 				nNewLength = nLength;

  0003e	8b c2		 mov	 eax, edx
$L184968:

; 771  : 			}
; 772  : 			Reallocate( nNewLength );

  00040	89 44 24 04	 mov	 DWORD PTR _nLength$[esp-4], eax
  00044	e9 00 00 00 00	 jmp	 ?Reallocate@?$CSimpleStringT@D$0A@@ATL@@AAEXH@Z ; ATL::CSimpleStringT<char,0>::Reallocate
$L184964:

; 773  : 		}
; 774  : 	}

  00049	c2 04 00	 ret	 4
?PrepareWrite2@?$CSimpleStringT@D$0A@@ATL@@AAEXH@Z ENDP	; ATL::CSimpleStringT<char,0>::PrepareWrite2
_TEXT	ENDS
PUBLIC	?CloneData@?$CSimpleStringT@D$0A@@ATL@@CAPAUCStringData@2@PAU32@@Z ; ATL::CSimpleStringT<char,0>::CloneData
; Function compile flags: /Ogty
;	COMDAT ?CloneData@?$CSimpleStringT@D$0A@@ATL@@CAPAUCStringData@2@PAU32@@Z
_TEXT	SEGMENT
_pData$ = 8						; size = 4
?CloneData@?$CSimpleStringT@D$0A@@ATL@@CAPAUCStringData@2@PAU32@@Z PROC NEAR ; ATL::CSimpleStringT<char,0>::CloneData, COMDAT

; 801  : 	{

  00000	56		 push	 esi

; 802  : 		CStringData* pNewData = NULL;
; 803  : 
; 804  : 		IAtlStringMgr* pNewStringMgr = pData->pStringMgr->Clone();

  00001	8b 74 24 08	 mov	 esi, DWORD PTR _pData$[esp]
  00005	8b 0e		 mov	 ecx, DWORD PTR [esi]
  00007	8b 01		 mov	 eax, DWORD PTR [ecx]
  00009	ff 50 10	 call	 DWORD PTR [eax+16]

; 805  : 		if( !pData->IsLocked() && (pNewStringMgr == pData->pStringMgr) )

  0000c	8b 56 0c	 mov	 edx, DWORD PTR [esi+12]
  0000f	85 d2		 test	 edx, edx
  00011	8d 4e 0c	 lea	 ecx, DWORD PTR [esi+12]
  00014	7c 11		 jl	 SHORT $L184972
  00016	3b 06		 cmp	 eax, DWORD PTR [esi]
  00018	75 0d		 jne	 SHORT $L184972

; 806  : 		{
; 807  : 			pNewData = pData;

  0001a	8b c6		 mov	 eax, esi

; 808  : 			pNewData->AddRef();

  0001c	ba 01 00 00 00	 mov	 edx, 1
  00021	f0 0f c1 11	 lock	  xadd	 DWORD PTR [ecx], edx
  00025	5e		 pop	 esi

; 819  : 		}
; 820  : 
; 821  : 		return( pNewData );
; 822  : 	}

  00026	c3		 ret	 0
$L184972:

; 809  : 		}
; 810  : 		else
; 811  : 		{
; 812  : 			pNewData = pNewStringMgr->Allocate( pData->nDataLength, sizeof( XCHAR ) );

  00027	8b 4e 04	 mov	 ecx, DWORD PTR [esi+4]
  0002a	8b 10		 mov	 edx, DWORD PTR [eax]
  0002c	6a 01		 push	 1
  0002e	51		 push	 ecx
  0002f	8b c8		 mov	 ecx, eax
  00031	ff 12		 call	 DWORD PTR [edx]

; 813  : 			if( pNewData == NULL )

  00033	85 c0		 test	 eax, eax
  00035	75 05		 jne	 SHORT $L184975

; 814  : 			{
; 815  : 				ThrowMemoryException();

  00037	e9 00 00 00 00	 jmp	 ?ThrowMemoryException@?$CSimpleStringT@D$0A@@ATL@@KAXXZ ; ATL::CSimpleStringT<char,0>::ThrowMemoryException
$L184975:

; 816  : 			}
; 817  : 			pNewData->nDataLength = pData->nDataLength;

  0003c	8b 56 04	 mov	 edx, DWORD PTR [esi+4]
  0003f	89 50 04	 mov	 DWORD PTR [eax+4], edx

; 818  : 			CopyChars( PXSTR( pNewData->data() ), PCXSTR( pData->data() ), pData->nDataLength+1 );  // Copy '\0'

  00042	8b 4e 04	 mov	 ecx, DWORD PTR [esi+4]
  00045	41		 inc	 ecx
  00046	8b d1		 mov	 edx, ecx
  00048	57		 push	 edi
  00049	c1 e9 02	 shr	 ecx, 2
  0004c	83 c6 10	 add	 esi, 16			; 00000010H
  0004f	8d 78 10	 lea	 edi, DWORD PTR [eax+16]
  00052	f3 a5		 rep movsd
  00054	8b ca		 mov	 ecx, edx
  00056	83 e1 03	 and	 ecx, 3
  00059	f3 a4		 rep movsb
  0005b	5f		 pop	 edi
  0005c	5e		 pop	 esi

; 819  : 		}
; 820  : 
; 821  : 		return( pNewData );
; 822  : 	}

  0005d	c3		 ret	 0
?CloneData@?$CSimpleStringT@D$0A@@ATL@@CAPAUCStringData@2@PAU32@@Z ENDP ; ATL::CSimpleStringT<char,0>::CloneData
_TEXT	ENDS
PUBLIC	?_Eos@?$basic_string@DU?$char_traits@D@std@@V?$allocator@D@2@@std@@IAEXI@Z ; std::basic_string<char,std::char_traits<char>,std::allocator<char> >::_Eos
; Function compile flags: /Ogty
; File c:\program files\microsoft visual studio .net 2003\vc7\include\xstring
;	COMDAT ?_Eos@?$basic_string@DU?$char_traits@D@std@@V?$allocator@D@2@@std@@IAEXI@Z
_TEXT	SEGMENT
__Newsize$ = 8						; size = 4
?_Eos@?$basic_string@DU?$char_traits@D@std@@V?$allocator@D@2@@std@@IAEXI@Z PROC NEAR ; std::basic_string<char,std::char_traits<char>,std::allocator<char> >::_Eos, COMDAT
; _this$ = ecx

; 1475 : 		_Traits::assign(_Myptr()[_Mysize = _Newsize], _Elem());

  00000	83 79 18 10	 cmp	 DWORD PTR [ecx+24], 16	; 00000010H
  00004	8b 44 24 04	 mov	 eax, DWORD PTR __Newsize$[esp-4]
  00008	89 41 14	 mov	 DWORD PTR [ecx+20], eax
  0000b	72 0a		 jb	 SHORT $L191320
  0000d	8b 49 04	 mov	 ecx, DWORD PTR [ecx+4]
  00010	c6 04 01 00	 mov	 BYTE PTR [ecx+eax], 0

; 1476 : 		}

  00014	c2 04 00	 ret	 4

; 1475 : 		_Traits::assign(_Myptr()[_Mysize = _Newsize], _Elem());

$L191320:
  00017	c6 44 01 04 00	 mov	 BYTE PTR [ecx+eax+4], 0

; 1476 : 		}

  0001c	c2 04 00	 ret	 4
?_Eos@?$basic_string@DU?$char_traits@D@std@@V?$allocator@D@2@@std@@IAEXI@Z ENDP ; std::basic_string<char,std::char_traits<char>,std::allocator<char> >::_Eos
_TEXT	ENDS
PUBLIC	?max_size@?$basic_string@DU?$char_traits@D@std@@V?$allocator@D@2@@std@@QBEIXZ ; std::basic_string<char,std::char_traits<char>,std::allocator<char> >::max_size
; Function compile flags: /Ogty
;	COMDAT ?max_size@?$basic_string@DU?$char_traits@D@std@@V?$allocator@D@2@@std@@QBEIXZ
_TEXT	SEGMENT
?max_size@?$basic_string@DU?$char_traits@D@std@@V?$allocator@D@2@@std@@QBEIXZ PROC NEAR ; std::basic_string<char,std::char_traits<char>,std::allocator<char> >::max_size, COMDAT
; _this$ = ecx

; 1114 : 		size_type _Num = _Mybase::_Alval.max_size();
; 1115 : 		return (_Num <= 1 ? 1 : _Num - 1);

  00000	b8 fe ff ff ff	 mov	 eax, -2			; fffffffeH

; 1116 : 		}

  00005	c3		 ret	 0
?max_size@?$basic_string@DU?$char_traits@D@std@@V?$allocator@D@2@@std@@QBEIXZ ENDP ; std::basic_string<char,std::char_traits<char>,std::allocator<char> >::max_size
_TEXT	ENDS
PUBLIC	?allocate@?$allocator@D@std@@QAEPADI@Z		; std::allocator<char>::allocate
; Function compile flags: /Ogty
; File c:\program files\microsoft visual studio .net 2003\vc7\include\xmemory
;	COMDAT ?allocate@?$allocator@D@std@@QAEPADI@Z
_TEXT	SEGMENT
__Count$ = 8						; size = 4
?allocate@?$allocator@D@std@@QAEPADI@Z PROC NEAR	; std::allocator<char>::allocate, COMDAT
; _this$ = ecx

; 137  : 		return (_Allocate(_Count, (pointer)0));

  00000	8b 44 24 04	 mov	 eax, DWORD PTR __Count$[esp-4]
  00004	50		 push	 eax
  00005	e8 00 00 00 00	 call	 ??2@YAPAXI@Z		; operator new
  0000a	83 c4 04	 add	 esp, 4

; 138  : 		}

  0000d	c2 04 00	 ret	 4
?allocate@?$allocator@D@std@@QAEPADI@Z ENDP		; std::allocator<char>::allocate
_TEXT	ENDS
PUBLIC	?Serialize@CEventItem@@QAEXAAVCAr@@@Z		; CEventItem::Serialize
EXTRN	?Read@CAr@@QAEXPAXI@Z:NEAR			; CAr::Read
EXTRN	?Write@CAr@@QAEXPBXI@Z:NEAR			; CAr::Write
; Function compile flags: /Ogty
; File c:\documents and settings\test\mes documents\source\virtuos_v17\build\program\_common\spevent.cpp
;	COMDAT ?Serialize@CEventItem@@QAEXAAVCAr@@@Z
_TEXT	SEGMENT
_ar$ = 8						; size = 4
?Serialize@CEventItem@@QAEXAAVCAr@@@Z PROC NEAR		; CEventItem::Serialize, COMDAT
; _this$ = ecx

; 130  : {

  00000	53		 push	 ebx
  00001	55		 push	 ebp
  00002	56		 push	 esi

; 131  : 	if( ar.IsStoring() )

  00003	8b 74 24 10	 mov	 esi, DWORD PTR _ar$[esp+8]
  00007	33 c0		 xor	 eax, eax
  00009	8a 06		 mov	 al, BYTE PTR [esi]
  0000b	57		 push	 edi
  0000c	8b f9		 mov	 edi, ecx

; 132  : 	{
; 133  : 		ar << m_dwItemId;

  0000e	bd 04 00 00 00	 mov	 ebp, 4
  00013	f7 d0		 not	 eax
  00015	a8 01		 test	 al, 1
  00017	74 52		 je	 SHORT $L187884
  00019	8b 5f 70	 mov	 ebx, DWORD PTR [edi+112]
  0001c	55		 push	 ebp
  0001d	8b ce		 mov	 ecx, esi
  0001f	e8 00 00 00 00	 call	 ?CheckBuf@CAr@@QAEXI@Z	; CAr::CheckBuf
  00024	8b 4e 08	 mov	 ecx, DWORD PTR [esi+8]
  00027	89 19		 mov	 DWORD PTR [ecx], ebx
  00029	01 6e 08	 add	 DWORD PTR [esi+8], ebp

; 134  : 		ar << m_nMax;

  0002c	8b 5f 04	 mov	 ebx, DWORD PTR [edi+4]
  0002f	55		 push	 ebp
  00030	8b ce		 mov	 ecx, esi
  00032	e8 00 00 00 00	 call	 ?CheckBuf@CAr@@QAEXI@Z	; CAr::CheckBuf
  00037	8b 56 08	 mov	 edx, DWORD PTR [esi+8]
  0003a	89 1a		 mov	 DWORD PTR [edx], ebx
  0003c	01 6e 08	 add	 DWORD PTR [esi+8], ebp

; 135  : 		ar << m_nNum;

  0003f	8b 5f 74	 mov	 ebx, DWORD PTR [edi+116]
  00042	55		 push	 ebp
  00043	8b ce		 mov	 ecx, esi
  00045	e8 00 00 00 00	 call	 ?CheckBuf@CAr@@QAEXI@Z	; CAr::CheckBuf
  0004a	8b 46 08	 mov	 eax, DWORD PTR [esi+8]
  0004d	89 18		 mov	 DWORD PTR [eax], ebx
  0004f	8b 56 08	 mov	 edx, DWORD PTR [esi+8]

; 136  : 		ar.Write( (const void*)m_adwInterval, sizeof(m_adwInterval) );

  00052	6a 60		 push	 96			; 00000060H
  00054	83 c7 08	 add	 edi, 8
  00057	03 d5		 add	 edx, ebp
  00059	57		 push	 edi
  0005a	8b ce		 mov	 ecx, esi
  0005c	89 56 08	 mov	 DWORD PTR [esi+8], edx
  0005f	e8 00 00 00 00	 call	 ?Write@CAr@@QAEXPBXI@Z	; CAr::Write
  00064	5f		 pop	 edi
  00065	5e		 pop	 esi
  00066	5d		 pop	 ebp
  00067	5b		 pop	 ebx

; 145  : 	}
; 146  : }

  00068	c2 04 00	 ret	 4
$L187884:

; 137  : 	}
; 138  : 	else
; 139  : 	{
; 140  : 		ar >> m_dwItemId;

  0006b	8b 46 08	 mov	 eax, DWORD PTR [esi+8]
  0006e	8b 5e 0c	 mov	 ebx, DWORD PTR [esi+12]
  00071	8d 50 04	 lea	 edx, DWORD PTR [eax+4]
  00074	33 c9		 xor	 ecx, ecx
  00076	3b d3		 cmp	 edx, ebx
  00078	77 0a		 ja	 SHORT $L191371
  0007a	8b 00		 mov	 eax, DWORD PTR [eax]
  0007c	89 47 70	 mov	 DWORD PTR [edi+112], eax
  0007f	01 6e 08	 add	 DWORD PTR [esi+8], ebp
  00082	eb 09		 jmp	 SHORT $L191372
$L191371:
  00084	89 4f 70	 mov	 DWORD PTR [edi+112], ecx
  00087	8b 56 0c	 mov	 edx, DWORD PTR [esi+12]
  0008a	89 56 08	 mov	 DWORD PTR [esi+8], edx
$L191372:

; 141  : 		ar >> m_nMax;

  0008d	8b 46 08	 mov	 eax, DWORD PTR [esi+8]
  00090	8b 5e 0c	 mov	 ebx, DWORD PTR [esi+12]
  00093	8d 50 04	 lea	 edx, DWORD PTR [eax+4]
  00096	3b d3		 cmp	 edx, ebx
  00098	77 0a		 ja	 SHORT $L191384
  0009a	8b 00		 mov	 eax, DWORD PTR [eax]
  0009c	89 47 04	 mov	 DWORD PTR [edi+4], eax
  0009f	01 6e 08	 add	 DWORD PTR [esi+8], ebp
  000a2	eb 09		 jmp	 SHORT $L191385
$L191384:
  000a4	89 4f 04	 mov	 DWORD PTR [edi+4], ecx
  000a7	8b 56 0c	 mov	 edx, DWORD PTR [esi+12]
  000aa	89 56 08	 mov	 DWORD PTR [esi+8], edx
$L191385:

; 142  : 		ar >> m_nNum;

  000ad	8b 46 08	 mov	 eax, DWORD PTR [esi+8]
  000b0	8b 5e 0c	 mov	 ebx, DWORD PTR [esi+12]
  000b3	8d 50 04	 lea	 edx, DWORD PTR [eax+4]
  000b6	3b d3		 cmp	 edx, ebx
  000b8	77 0a		 ja	 SHORT $L191397
  000ba	8b 00		 mov	 eax, DWORD PTR [eax]
  000bc	89 47 74	 mov	 DWORD PTR [edi+116], eax
  000bf	01 6e 08	 add	 DWORD PTR [esi+8], ebp
  000c2	eb 09		 jmp	 SHORT $L191398
$L191397:
  000c4	89 4f 74	 mov	 DWORD PTR [edi+116], ecx
  000c7	8b 4e 0c	 mov	 ecx, DWORD PTR [esi+12]
  000ca	89 4e 08	 mov	 DWORD PTR [esi+8], ecx
$L191398:

; 143  : 		ar.Read( (void*)m_adwInterval, sizeof(m_adwInterval) );

  000cd	6a 60		 push	 96			; 00000060H
  000cf	8d 57 08	 lea	 edx, DWORD PTR [edi+8]
  000d2	52		 push	 edx
  000d3	8b ce		 mov	 ecx, esi
  000d5	e8 00 00 00 00	 call	 ?Read@CAr@@QAEXPAXI@Z	; CAr::Read

; 144  : 		m_dwTimeout		= GetTickCount();

  000da	ff 15 00 00 00
	00		 call	 DWORD PTR __imp__GetTickCount@0
  000e0	89 47 68	 mov	 DWORD PTR [edi+104], eax
  000e3	5f		 pop	 edi
  000e4	5e		 pop	 esi
  000e5	5d		 pop	 ebp
  000e6	5b		 pop	 ebx

; 145  : 	}
; 146  : }

  000e7	c2 04 00	 ret	 4
?Serialize@CEventItem@@QAEXAAVCAr@@@Z ENDP		; CEventItem::Serialize
_TEXT	ENDS
PUBLIC	??8ATL@@YA_NABV?$CStringT@DV?$StrTraitMFC@DV?$ChTraitsCRT@D@ATL@@@@@0@PBD@Z ; ATL::operator==
; Function compile flags: /Ogty
; File c:\program files\microsoft visual studio .net 2003\vc7\atlmfc\include\cstringt.h
;	COMDAT ??8ATL@@YA_NABV?$CStringT@DV?$StrTraitMFC@DV?$ChTraitsCRT@D@ATL@@@@@0@PBD@Z
_TEXT	SEGMENT
_str1$ = 8						; size = 4
_psz2$ = 12						; size = 4
??8ATL@@YA_NABV?$CStringT@DV?$StrTraitMFC@DV?$ChTraitsCRT@D@ATL@@@@@0@PBD@Z PROC NEAR ; ATL::operator==, COMDAT

; 2088 : 		return( str1.Compare( psz2 ) == 0 );

  00000	8b 4c 24 08	 mov	 ecx, DWORD PTR _psz2$[esp-4]
  00004	8b 44 24 04	 mov	 eax, DWORD PTR _str1$[esp-4]
  00008	8b 00		 mov	 eax, DWORD PTR [eax]
  0000a	51		 push	 ecx
  0000b	50		 push	 eax
  0000c	e8 00 00 00 00	 call	 __mbscmp
  00011	83 c4 08	 add	 esp, 8
  00014	f7 d8		 neg	 eax
  00016	1b c0		 sbb	 eax, eax
  00018	40		 inc	 eax

; 2089 : 	}

  00019	c3		 ret	 0
??8ATL@@YA_NABV?$CStringT@DV?$StrTraitMFC@DV?$ChTraitsCRT@D@ATL@@@@@0@PBD@Z ENDP ; ATL::operator==
_TEXT	ENDS
PUBLIC	?begin@?$list@PAU_EVENT_GENERIC@@V?$allocator@PAU_EVENT_GENERIC@@@std@@@std@@QAE?AViterator@12@XZ ; std::list<_EVENT_GENERIC *,std::allocator<_EVENT_GENERIC *> >::begin
; Function compile flags: /Ogty
; File c:\program files\microsoft visual studio .net 2003\vc7\include\list
;	COMDAT ?begin@?$list@PAU_EVENT_GENERIC@@V?$allocator@PAU_EVENT_GENERIC@@@std@@@std@@QAE?AViterator@12@XZ
_TEXT	SEGMENT
___$ReturnUdt$ = 8					; size = 4
?begin@?$list@PAU_EVENT_GENERIC@@V?$allocator@PAU_EVENT_GENERIC@@@std@@@std@@QAE?AViterator@12@XZ PROC NEAR ; std::list<_EVENT_GENERIC *,std::allocator<_EVENT_GENERIC *> >::begin, COMDAT
; _this$ = ecx

; 377  : 		return (iterator(_Nextnode(_Myhead)));

  00000	8b 41 04	 mov	 eax, DWORD PTR [ecx+4]
  00003	8b 08		 mov	 ecx, DWORD PTR [eax]
  00005	8b 44 24 04	 mov	 eax, DWORD PTR ___$ReturnUdt$[esp-4]
  00009	89 08		 mov	 DWORD PTR [eax], ecx

; 378  : 		}

  0000b	c2 04 00	 ret	 4
?begin@?$list@PAU_EVENT_GENERIC@@V?$allocator@PAU_EVENT_GENERIC@@@std@@@std@@QAE?AViterator@12@XZ ENDP ; std::list<_EVENT_GENERIC *,std::allocator<_EVENT_GENERIC *> >::begin
_TEXT	ENDS
PUBLIC	?end@?$list@PAU_EVENT_GENERIC@@V?$allocator@PAU_EVENT_GENERIC@@@std@@@std@@QAE?AViterator@12@XZ ; std::list<_EVENT_GENERIC *,std::allocator<_EVENT_GENERIC *> >::end
; Function compile flags: /Ogty
;	COMDAT ?end@?$list@PAU_EVENT_GENERIC@@V?$allocator@PAU_EVENT_GENERIC@@@std@@@std@@QAE?AViterator@12@XZ
_TEXT	SEGMENT
___$ReturnUdt$ = 8					; size = 4
?end@?$list@PAU_EVENT_GENERIC@@V?$allocator@PAU_EVENT_GENERIC@@@std@@@std@@QAE?AViterator@12@XZ PROC NEAR ; std::list<_EVENT_GENERIC *,std::allocator<_EVENT_GENERIC *> >::end, COMDAT
; _this$ = ecx

; 387  : 		return (iterator(_Myhead));

  00000	8b 49 04	 mov	 ecx, DWORD PTR [ecx+4]
  00003	8b 44 24 04	 mov	 eax, DWORD PTR ___$ReturnUdt$[esp-4]
  00007	89 08		 mov	 DWORD PTR [eax], ecx

; 388  : 		}

  00009	c2 04 00	 ret	 4
?end@?$list@PAU_EVENT_GENERIC@@V?$allocator@PAU_EVENT_GENERIC@@@std@@@std@@QAE?AViterator@12@XZ ENDP ; std::list<_EVENT_GENERIC *,std::allocator<_EVENT_GENERIC *> >::end
_TEXT	ENDS
PUBLIC	?clear@?$list@PAU_EVENT_GENERIC@@V?$allocator@PAU_EVENT_GENERIC@@@std@@@std@@QAEXXZ ; std::list<_EVENT_GENERIC *,std::allocator<_EVENT_GENERIC *> >::clear
; Function compile flags: /Ogty
;	COMDAT ?clear@?$list@PAU_EVENT_GENERIC@@V?$allocator@PAU_EVENT_GENERIC@@@std@@@std@@QAEXXZ
_TEXT	SEGMENT
?clear@?$list@PAU_EVENT_GENERIC@@V?$allocator@PAU_EVENT_GENERIC@@@std@@@std@@QAEXXZ PROC NEAR ; std::list<_EVENT_GENERIC *,std::allocator<_EVENT_GENERIC *> >::clear, COMDAT
; _this$ = ecx

; 610  : 		{	// erase all

  00000	56		 push	 esi
  00001	8b f1		 mov	 esi, ecx

; 611  : 		_Nodeptr _Pnext;
; 612  : 		_Nodeptr _Pnode = _Nextnode(_Myhead);

  00003	8b 4e 04	 mov	 ecx, DWORD PTR [esi+4]
  00006	8b 01		 mov	 eax, DWORD PTR [ecx]

; 613  : 		_Nextnode(_Myhead) = _Myhead;

  00008	89 09		 mov	 DWORD PTR [ecx], ecx

; 614  : 		_Prevnode(_Myhead) = _Myhead;

  0000a	8b 4e 04	 mov	 ecx, DWORD PTR [esi+4]
  0000d	89 49 04	 mov	 DWORD PTR [ecx+4], ecx

; 615  : 		_Mysize = 0;
; 616  : 
; 617  : 		for (; _Pnode != _Myhead; _Pnode = _Pnext)

  00010	3b 46 04	 cmp	 eax, DWORD PTR [esi+4]
  00013	c7 46 08 00 00
	00 00		 mov	 DWORD PTR [esi+8], 0
  0001a	74 19		 je	 SHORT $L188949
  0001c	57		 push	 edi
  0001d	8d 49 00	 npad	 3
$L188947:

; 618  : 			{	// delete an element
; 619  : 			_Pnext = _Nextnode(_Pnode);

  00020	8b 38		 mov	 edi, DWORD PTR [eax]

; 620  : 			this->_Alnod.destroy(_Pnode);
; 621  : 			this->_Alnod.deallocate(_Pnode, 1);

  00022	50		 push	 eax
  00023	e8 00 00 00 00	 call	 ??3@YAXPAX@Z		; operator delete
  00028	8b 4e 04	 mov	 ecx, DWORD PTR [esi+4]
  0002b	83 c4 04	 add	 esp, 4
  0002e	3b f9		 cmp	 edi, ecx
  00030	8b c7		 mov	 eax, edi
  00032	75 ec		 jne	 SHORT $L188947
  00034	5f		 pop	 edi
$L188949:
  00035	5e		 pop	 esi

; 622  : 			}
; 623  : 		}

  00036	c3		 ret	 0
?clear@?$list@PAU_EVENT_GENERIC@@V?$allocator@PAU_EVENT_GENERIC@@@std@@@std@@QAEXXZ ENDP ; std::list<_EVENT_GENERIC *,std::allocator<_EVENT_GENERIC *> >::clear
_TEXT	ENDS
PUBLIC	?begin@?$_Tree@V?$_Tmap_traits@HPAV?$list@PAVCEventItem@@V?$allocator@PAVCEventItem@@@std@@@std@@U?$less@H@2@V?$allocator@U?$pair@$$CBHPAV?$list@PAVCEventItem@@V?$allocator@PAVCEventItem@@@std@@@std@@@std@@@2@$0A@@std@@@std@@QAE?AViterator@12@XZ ; std::_Tree<std::_Tmap_traits<int,std::list<CEventItem *,std::allocator<CEventItem *> > *,std::less<int>,std::allocator<std::pair<int const ,std::list<CEventItem *,std::allocator<CEventItem *> > *> >,0> >::begin
; Function compile flags: /Ogty
; File c:\program files\microsoft visual studio .net 2003\vc7\include\xtree
;	COMDAT ?begin@?$_Tree@V?$_Tmap_traits@HPAV?$list@PAVCEventItem@@V?$allocator@PAVCEventItem@@@std@@@std@@U?$less@H@2@V?$allocator@U?$pair@$$CBHPAV?$list@PAVCEventItem@@V?$allocator@PAVCEventItem@@@std@@@std@@@std@@@2@$0A@@std@@@std@@QAE?AViterator@12@XZ
_TEXT	SEGMENT
___$ReturnUdt$ = 8					; size = 4
?begin@?$_Tree@V?$_Tmap_traits@HPAV?$list@PAVCEventItem@@V?$allocator@PAVCEventItem@@@std@@@std@@U?$less@H@2@V?$allocator@U?$pair@$$CBHPAV?$list@PAVCEventItem@@V?$allocator@PAVCEventItem@@@std@@@std@@@std@@@2@$0A@@std@@@std@@QAE?AViterator@12@XZ PROC NEAR ; std::_Tree<std::_Tmap_traits<int,std::list<CEventItem *,std::allocator<CEventItem *> > *,std::less<int>,std::allocator<std::pair<int const ,std::list<CEventItem *,std::allocator<CEventItem *> > *> >,0> >::begin, COMDAT
; _this$ = ecx

; 408  : 		return (_TREE_ITERATOR(_Lmost()));

  00000	8b 41 04	 mov	 eax, DWORD PTR [ecx+4]
  00003	8b 08		 mov	 ecx, DWORD PTR [eax]
  00005	8b 44 24 04	 mov	 eax, DWORD PTR ___$ReturnUdt$[esp-4]
  00009	89 08		 mov	 DWORD PTR [eax], ecx

; 409  : 		}

  0000b	c2 04 00	 ret	 4
?begin@?$_Tree@V?$_Tmap_traits@HPAV?$list@PAVCEventItem@@V?$allocator@PAVCEventItem@@@std@@@std@@U?$less@H@2@V?$allocator@U?$pair@$$CBHPAV?$list@PAVCEventItem@@V?$allocator@PAVCEventItem@@@std@@@std@@@std@@@2@$0A@@std@@@std@@QAE?AViterator@12@XZ ENDP ; std::_Tree<std::_Tmap_traits<int,std::list<CEventItem *,std::allocator<CEventItem *> > *,std::less<int>,std::allocator<std::pair<int const ,std::list<CEventItem *,std::allocator<CEventItem *> > *> >,0> >::begin
_TEXT	ENDS
PUBLIC	?end@?$_Tree@V?$_Tmap_traits@HPAV?$list@PAVCEventItem@@V?$allocator@PAVCEventItem@@@std@@@std@@U?$less@H@2@V?$allocator@U?$pair@$$CBHPAV?$list@PAVCEventItem@@V?$allocator@PAVCEventItem@@@std@@@std@@@std@@@2@$0A@@std@@@std@@QAE?AViterator@12@XZ ; std::_Tree<std::_Tmap_traits<int,std::list<CEventItem *,std::allocator<CEventItem *> > *,std::less<int>,std::allocator<std::pair<int const ,std::list<CEventItem *,std::allocator<CEventItem *> > *> >,0> >::end
; Function compile flags: /Ogty
;	COMDAT ?end@?$_Tree@V?$_Tmap_traits@HPAV?$list@PAVCEventItem@@V?$allocator@PAVCEventItem@@@std@@@std@@U?$less@H@2@V?$allocator@U?$pair@$$CBHPAV?$list@PAVCEventItem@@V?$allocator@PAVCEventItem@@@std@@@std@@@std@@@2@$0A@@std@@@std@@QAE?AViterator@12@XZ
_TEXT	SEGMENT
___$ReturnUdt$ = 8					; size = 4
?end@?$_Tree@V?$_Tmap_traits@HPAV?$list@PAVCEventItem@@V?$allocator@PAVCEventItem@@@std@@@std@@U?$less@H@2@V?$allocator@U?$pair@$$CBHPAV?$list@PAVCEventItem@@V?$allocator@PAVCEventItem@@@std@@@std@@@std@@@2@$0A@@std@@@std@@QAE?AViterator@12@XZ PROC NEAR ; std::_Tree<std::_Tmap_traits<int,std::list<CEventItem *,std::allocator<CEventItem *> > *,std::less<int>,std::allocator<std::pair<int const ,std::list<CEventItem *,std::allocator<CEventItem *> > *> >,0> >::end, COMDAT
; _this$ = ecx

; 418  : 		return (_TREE_ITERATOR(_Myhead));

  00000	8b 49 04	 mov	 ecx, DWORD PTR [ecx+4]
  00003	8b 44 24 04	 mov	 eax, DWORD PTR ___$ReturnUdt$[esp-4]
  00007	89 08		 mov	 DWORD PTR [eax], ecx

; 419  : 		}

  00009	c2 04 00	 ret	 4
?end@?$_Tree@V?$_Tmap_traits@HPAV?$list@PAVCEventItem@@V?$allocator@PAVCEventItem@@@std@@@std@@U?$less@H@2@V?$allocator@U?$pair@$$CBHPAV?$list@PAVCEventItem@@V?$allocator@PAVCEventItem@@@std@@@std@@@std@@@2@$0A@@std@@@std@@QAE?AViterator@12@XZ ENDP ; std::_Tree<std::_Tmap_traits<int,std::list<CEventItem *,std::allocator<CEventItem *> > *,std::less<int>,std::allocator<std::pair<int const ,std::list<CEventItem *,std::allocator<CEventItem *> > *> >,0> >::end
_TEXT	ENDS
PUBLIC	??Diterator@?$list@PAU_EVENT_GENERIC@@V?$allocator@PAU_EVENT_GENERIC@@@std@@@std@@QBEAAPAU_EVENT_GENERIC@@XZ ; std::list<_EVENT_GENERIC *,std::allocator<_EVENT_GENERIC *> >::iterator::operator*
; Function compile flags: /Ogty
; File c:\program files\microsoft visual studio .net 2003\vc7\include\list
;	COMDAT ??Diterator@?$list@PAU_EVENT_GENERIC@@V?$allocator@PAU_EVENT_GENERIC@@@std@@@std@@QBEAAPAU_EVENT_GENERIC@@XZ
_TEXT	SEGMENT
??Diterator@?$list@PAU_EVENT_GENERIC@@V?$allocator@PAU_EVENT_GENERIC@@@std@@@std@@QBEAAPAU_EVENT_GENERIC@@XZ PROC NEAR ; std::list<_EVENT_GENERIC *,std::allocator<_EVENT_GENERIC *> >::iterator::operator*, COMDAT
; _this$ = ecx

; 240  : 			return ((reference)**(const_iterator *)this);

  00000	8b 01		 mov	 eax, DWORD PTR [ecx]
  00002	83 c0 08	 add	 eax, 8

; 241  : 			}

  00005	c3		 ret	 0
??Diterator@?$list@PAU_EVENT_GENERIC@@V?$allocator@PAU_EVENT_GENERIC@@@std@@@std@@QBEAAPAU_EVENT_GENERIC@@XZ ENDP ; std::list<_EVENT_GENERIC *,std::allocator<_EVENT_GENERIC *> >::iterator::operator*
_TEXT	ENDS
PUBLIC	??Citerator@?$_Tree@V?$_Tmap_traits@HPAV?$list@PAVCEventItem@@V?$allocator@PAVCEventItem@@@std@@@std@@U?$less@H@2@V?$allocator@U?$pair@$$CBHPAV?$list@PAVCEventItem@@V?$allocator@PAVCEventItem@@@std@@@std@@@std@@@2@$0A@@std@@@std@@QBEPAU?$pair@$$CBHPAV?$list@PAVCEventItem@@V?$allocator@PAVCEventItem@@@std@@@std@@@2@XZ ; std::_Tree<std::_Tmap_traits<int,std::list<CEventItem *,std::allocator<CEventItem *> > *,std::less<int>,std::allocator<std::pair<int const ,std::list<CEventItem *,std::allocator<CEventItem *> > *> >,0> >::iterator::operator->
; Function compile flags: /Ogty
; File c:\program files\microsoft visual studio .net 2003\vc7\include\xtree
;	COMDAT ??Citerator@?$_Tree@V?$_Tmap_traits@HPAV?$list@PAVCEventItem@@V?$allocator@PAVCEventItem@@@std@@@std@@U?$less@H@2@V?$allocator@U?$pair@$$CBHPAV?$list@PAVCEventItem@@V?$allocator@PAVCEventItem@@@std@@@std@@@std@@@2@$0A@@std@@@std@@QBEPAU?$pair@$$CBHPAV?$list@PAVCEventItem@@V?$allocator@PAVCEventItem@@@std@@@std@@@2@XZ
_TEXT	SEGMENT
??Citerator@?$_Tree@V?$_Tmap_traits@HPAV?$list@PAVCEventItem@@V?$allocator@PAVCEventItem@@@std@@@std@@U?$less@H@2@V?$allocator@U?$pair@$$CBHPAV?$list@PAVCEventItem@@V?$allocator@PAVCEventItem@@@std@@@std@@@std@@@2@$0A@@std@@@std@@QBEPAU?$pair@$$CBHPAV?$list@PAVCEventItem@@V?$allocator@PAVCEventItem@@@std@@@std@@@2@XZ PROC NEAR ; std::_Tree<std::_Tmap_traits<int,std::list<CEventItem *,std::allocator<CEventItem *> > *,std::less<int>,std::allocator<std::pair<int const ,std::list<CEventItem *,std::allocator<CEventItem *> > *> >,0> >::iterator::operator->, COMDAT
; _this$ = ecx

; 322  : 			return (&**this);

  00000	8b 01		 mov	 eax, DWORD PTR [ecx]
  00002	83 c0 0c	 add	 eax, 12			; 0000000cH

; 323  : 			}

  00005	c3		 ret	 0
??Citerator@?$_Tree@V?$_Tmap_traits@HPAV?$list@PAVCEventItem@@V?$allocator@PAVCEventItem@@@std@@@std@@U?$less@H@2@V?$allocator@U?$pair@$$CBHPAV?$list@PAVCEventItem@@V?$allocator@PAVCEventItem@@@std@@@std@@@std@@@2@$0A@@std@@@std@@QBEPAU?$pair@$$CBHPAV?$list@PAVCEventItem@@V?$allocator@PAVCEventItem@@@std@@@std@@@2@XZ ENDP ; std::_Tree<std::_Tmap_traits<int,std::list<CEventItem *,std::allocator<CEventItem *> > *,std::less<int>,std::allocator<std::pair<int const ,std::list<CEventItem *,std::allocator<CEventItem *> > *> >,0> >::iterator::operator->
_TEXT	ENDS
PUBLIC	?begin@?$list@PAVCEventItem@@V?$allocator@PAVCEventItem@@@std@@@std@@QAE?AViterator@12@XZ ; std::list<CEventItem *,std::allocator<CEventItem *> >::begin
; Function compile flags: /Ogty
; File c:\program files\microsoft visual studio .net 2003\vc7\include\list
;	COMDAT ?begin@?$list@PAVCEventItem@@V?$allocator@PAVCEventItem@@@std@@@std@@QAE?AViterator@12@XZ
_TEXT	SEGMENT
___$ReturnUdt$ = 8					; size = 4
?begin@?$list@PAVCEventItem@@V?$allocator@PAVCEventItem@@@std@@@std@@QAE?AViterator@12@XZ PROC NEAR ; std::list<CEventItem *,std::allocator<CEventItem *> >::begin, COMDAT
; _this$ = ecx

; 377  : 		return (iterator(_Nextnode(_Myhead)));

  00000	8b 41 04	 mov	 eax, DWORD PTR [ecx+4]
  00003	8b 08		 mov	 ecx, DWORD PTR [eax]
  00005	8b 44 24 04	 mov	 eax, DWORD PTR ___$ReturnUdt$[esp-4]
  00009	89 08		 mov	 DWORD PTR [eax], ecx

; 378  : 		}

  0000b	c2 04 00	 ret	 4
?begin@?$list@PAVCEventItem@@V?$allocator@PAVCEventItem@@@std@@@std@@QAE?AViterator@12@XZ ENDP ; std::list<CEventItem *,std::allocator<CEventItem *> >::begin
_TEXT	ENDS
PUBLIC	?end@?$list@PAVCEventItem@@V?$allocator@PAVCEventItem@@@std@@@std@@QAE?AViterator@12@XZ ; std::list<CEventItem *,std::allocator<CEventItem *> >::end
; Function compile flags: /Ogty
;	COMDAT ?end@?$list@PAVCEventItem@@V?$allocator@PAVCEventItem@@@std@@@std@@QAE?AViterator@12@XZ
_TEXT	SEGMENT
___$ReturnUdt$ = 8					; size = 4
?end@?$list@PAVCEventItem@@V?$allocator@PAVCEventItem@@@std@@@std@@QAE?AViterator@12@XZ PROC NEAR ; std::list<CEventItem *,std::allocator<CEventItem *> >::end, COMDAT
; _this$ = ecx

; 387  : 		return (iterator(_Myhead));

  00000	8b 49 04	 mov	 ecx, DWORD PTR [ecx+4]
  00003	8b 44 24 04	 mov	 eax, DWORD PTR ___$ReturnUdt$[esp-4]
  00007	89 08		 mov	 DWORD PTR [eax], ecx

; 388  : 		}

  00009	c2 04 00	 ret	 4
?end@?$list@PAVCEventItem@@V?$allocator@PAVCEventItem@@@std@@@std@@QAE?AViterator@12@XZ ENDP ; std::list<CEventItem *,std::allocator<CEventItem *> >::end
_TEXT	ENDS
PUBLIC	?clear@?$list@PAVCEventItem@@V?$allocator@PAVCEventItem@@@std@@@std@@QAEXXZ ; std::list<CEventItem *,std::allocator<CEventItem *> >::clear
; Function compile flags: /Ogty
;	COMDAT ?clear@?$list@PAVCEventItem@@V?$allocator@PAVCEventItem@@@std@@@std@@QAEXXZ
_TEXT	SEGMENT
?clear@?$list@PAVCEventItem@@V?$allocator@PAVCEventItem@@@std@@@std@@QAEXXZ PROC NEAR ; std::list<CEventItem *,std::allocator<CEventItem *> >::clear, COMDAT
; _this$ = ecx

; 610  : 		{	// erase all

  00000	56		 push	 esi
  00001	8b f1		 mov	 esi, ecx

; 611  : 		_Nodeptr _Pnext;
; 612  : 		_Nodeptr _Pnode = _Nextnode(_Myhead);

  00003	8b 4e 04	 mov	 ecx, DWORD PTR [esi+4]
  00006	8b 01		 mov	 eax, DWORD PTR [ecx]

; 613  : 		_Nextnode(_Myhead) = _Myhead;

  00008	89 09		 mov	 DWORD PTR [ecx], ecx

; 614  : 		_Prevnode(_Myhead) = _Myhead;

  0000a	8b 4e 04	 mov	 ecx, DWORD PTR [esi+4]
  0000d	89 49 04	 mov	 DWORD PTR [ecx+4], ecx

; 615  : 		_Mysize = 0;
; 616  : 
; 617  : 		for (; _Pnode != _Myhead; _Pnode = _Pnext)

  00010	3b 46 04	 cmp	 eax, DWORD PTR [esi+4]
  00013	c7 46 08 00 00
	00 00		 mov	 DWORD PTR [esi+8], 0
  0001a	74 19		 je	 SHORT $L189061
  0001c	57		 push	 edi
  0001d	8d 49 00	 npad	 3
$L189059:

; 618  : 			{	// delete an element
; 619  : 			_Pnext = _Nextnode(_Pnode);

  00020	8b 38		 mov	 edi, DWORD PTR [eax]

; 620  : 			this->_Alnod.destroy(_Pnode);
; 621  : 			this->_Alnod.deallocate(_Pnode, 1);

  00022	50		 push	 eax
  00023	e8 00 00 00 00	 call	 ??3@YAXPAX@Z		; operator delete
  00028	8b 4e 04	 mov	 ecx, DWORD PTR [esi+4]
  0002b	83 c4 04	 add	 esp, 4
  0002e	3b f9		 cmp	 edi, ecx
  00030	8b c7		 mov	 eax, edi
  00032	75 ec		 jne	 SHORT $L189059
  00034	5f		 pop	 edi
$L189061:
  00035	5e		 pop	 esi

; 622  : 			}
; 623  : 		}

  00036	c3		 ret	 0
?clear@?$list@PAVCEventItem@@V?$allocator@PAVCEventItem@@@std@@@std@@QAEXXZ ENDP ; std::list<CEventItem *,std::allocator<CEventItem *> >::clear
_TEXT	ENDS
PUBLIC	??Diterator@?$list@PAVCEventItem@@V?$allocator@PAVCEventItem@@@std@@@std@@QBEAAPAVCEventItem@@XZ ; std::list<CEventItem *,std::allocator<CEventItem *> >::iterator::operator*
; Function compile flags: /Ogty
;	COMDAT ??Diterator@?$list@PAVCEventItem@@V?$allocator@PAVCEventItem@@@std@@@std@@QBEAAPAVCEventItem@@XZ
_TEXT	SEGMENT
??Diterator@?$list@PAVCEventItem@@V?$allocator@PAVCEventItem@@@std@@@std@@QBEAAPAVCEventItem@@XZ PROC NEAR ; std::list<CEventItem *,std::allocator<CEventItem *> >::iterator::operator*, COMDAT
; _this$ = ecx

; 240  : 			return ((reference)**(const_iterator *)this);

  00000	8b 01		 mov	 eax, DWORD PTR [ecx]
  00002	83 c0 08	 add	 eax, 8

; 241  : 			}

  00005	c3		 ret	 0
??Diterator@?$list@PAVCEventItem@@V?$allocator@PAVCEventItem@@@std@@@std@@QBEAAPAVCEventItem@@XZ ENDP ; std::list<CEventItem *,std::allocator<CEventItem *> >::iterator::operator*
_TEXT	ENDS
PUBLIC	?_Buynode@?$list@PAU_EVENT_GENERIC@@V?$allocator@PAU_EVENT_GENERIC@@@std@@@std@@IAEPAU_Node@?$_List_nod@PAU_EVENT_GENERIC@@V?$allocator@PAU_EVENT_GENERIC@@@std@@@2@XZ ; std::list<_EVENT_GENERIC *,std::allocator<_EVENT_GENERIC *> >::_Buynode
EXTRN	__CxxThrowException@8:NEAR
; Function compile flags: /Ogty
;	COMDAT ?_Buynode@?$list@PAU_EVENT_GENERIC@@V?$allocator@PAU_EVENT_GENERIC@@@std@@@std@@IAEPAU_Node@?$_List_nod@PAU_EVENT_GENERIC@@V?$allocator@PAU_EVENT_GENERIC@@@std@@@2@XZ
_TEXT	SEGMENT
?_Buynode@?$list@PAU_EVENT_GENERIC@@V?$allocator@PAU_EVENT_GENERIC@@@std@@@std@@IAEPAU_Node@?$_List_nod@PAU_EVENT_GENERIC@@V?$allocator@PAU_EVENT_GENERIC@@@std@@@2@XZ PROC NEAR ; std::list<_EVENT_GENERIC *,std::allocator<_EVENT_GENERIC *> >::_Buynode, COMDAT
; _this$ = ecx

; 899  : 		_Nodeptr _Pnode = this->_Alnod.allocate(1);

  00000	6a 0c		 push	 12			; 0000000cH
  00002	e8 00 00 00 00	 call	 ??2@YAPAXI@Z		; operator new
  00007	83 c4 04	 add	 esp, 4

; 900  : 		int _Linkcnt = 0;
; 901  : 
; 902  : 		_TRY_BEGIN
; 903  : 		this->_Alptr.construct(&_Nextnode(_Pnode), _Pnode);

  0000a	85 c0		 test	 eax, eax
  0000c	74 02		 je	 SHORT $L191613
  0000e	89 00		 mov	 DWORD PTR [eax], eax
$L191613:

; 904  : 		++_Linkcnt;
; 905  : 		this->_Alptr.construct(&_Prevnode(_Pnode), _Pnode);

  00010	8d 48 04	 lea	 ecx, DWORD PTR [eax+4]
  00013	85 c9		 test	 ecx, ecx
  00015	74 02		 je	 SHORT $L191641
  00017	89 01		 mov	 DWORD PTR [ecx], eax
$L191641:

; 906  : 		_CATCH_ALL
; 907  : 		if (0 < _Linkcnt)
; 908  : 			this->_Alptr.destroy(&_Nextnode(_Pnode));
; 909  : 		this->_Alnod.deallocate(_Pnode, 1);
; 910  : 		_RERAISE;
; 911  : 		_CATCH_END
; 912  : 		return (_Pnode);
; 913  : 		}

  00019	c3		 ret	 0
?_Buynode@?$list@PAU_EVENT_GENERIC@@V?$allocator@PAU_EVENT_GENERIC@@@std@@@std@@IAEPAU_Node@?$_List_nod@PAU_EVENT_GENERIC@@V?$allocator@PAU_EVENT_GENERIC@@@std@@@2@XZ ENDP ; std::list<_EVENT_GENERIC *,std::allocator<_EVENT_GENERIC *> >::_Buynode
_TEXT	ENDS
PUBLIC	?_Tidy@?$list@PAU_EVENT_GENERIC@@V?$allocator@PAU_EVENT_GENERIC@@@std@@@std@@IAEXXZ ; std::list<_EVENT_GENERIC *,std::allocator<_EVENT_GENERIC *> >::_Tidy
; Function compile flags: /Ogty
;	COMDAT ?_Tidy@?$list@PAU_EVENT_GENERIC@@V?$allocator@PAU_EVENT_GENERIC@@@std@@@std@@IAEXXZ
_TEXT	SEGMENT
?_Tidy@?$list@PAU_EVENT_GENERIC@@V?$allocator@PAU_EVENT_GENERIC@@@std@@@std@@IAEXXZ PROC NEAR ; std::list<_EVENT_GENERIC *,std::allocator<_EVENT_GENERIC *> >::_Tidy, COMDAT
; _this$ = ecx

; 929  : 		{	// free all storage

  00000	56		 push	 esi
  00001	8b f1		 mov	 esi, ecx

; 930  : 		clear();

  00003	e8 00 00 00 00	 call	 ?clear@?$list@PAU_EVENT_GENERIC@@V?$allocator@PAU_EVENT_GENERIC@@@std@@@std@@QAEXXZ ; std::list<_EVENT_GENERIC *,std::allocator<_EVENT_GENERIC *> >::clear

; 931  : 		this->_Alptr.destroy(&_Nextnode(_Myhead));
; 932  : 		this->_Alptr.destroy(&_Prevnode(_Myhead));
; 933  : 		this->_Alnod.deallocate(_Myhead, 1);

  00008	8b 46 04	 mov	 eax, DWORD PTR [esi+4]
  0000b	50		 push	 eax
  0000c	e8 00 00 00 00	 call	 ??3@YAXPAX@Z		; operator delete
  00011	83 c4 04	 add	 esp, 4

; 934  : 		_Myhead = 0;

  00014	c7 46 04 00 00
	00 00		 mov	 DWORD PTR [esi+4], 0
  0001b	5e		 pop	 esi

; 935  : 		}

  0001c	c3		 ret	 0
?_Tidy@?$list@PAU_EVENT_GENERIC@@V?$allocator@PAU_EVENT_GENERIC@@@std@@@std@@IAEXXZ ENDP ; std::list<_EVENT_GENERIC *,std::allocator<_EVENT_GENERIC *> >::_Tidy
_TEXT	ENDS
PUBLIC	?lower_bound@?$_Tree@V?$_Tmap_traits@HPAV?$list@PAVCEventItem@@V?$allocator@PAVCEventItem@@@std@@@std@@U?$less@H@2@V?$allocator@U?$pair@$$CBHPAV?$list@PAVCEventItem@@V?$allocator@PAVCEventItem@@@std@@@std@@@std@@@2@$0A@@std@@@std@@QAE?AViterator@12@ABH@Z ; std::_Tree<std::_Tmap_traits<int,std::list<CEventItem *,std::allocator<CEventItem *> > *,std::less<int>,std::allocator<std::pair<int const ,std::list<CEventItem *,std::allocator<CEventItem *> > *> >,0> >::lower_bound
; Function compile flags: /Ogty
; File c:\program files\microsoft visual studio .net 2003\vc7\include\xtree
;	COMDAT ?lower_bound@?$_Tree@V?$_Tmap_traits@HPAV?$list@PAVCEventItem@@V?$allocator@PAVCEventItem@@@std@@@std@@U?$less@H@2@V?$allocator@U?$pair@$$CBHPAV?$list@PAVCEventItem@@V?$allocator@PAVCEventItem@@@std@@@std@@@std@@@2@$0A@@std@@@std@@QAE?AViterator@12@ABH@Z
_TEXT	SEGMENT
___$ReturnUdt$ = 8					; size = 4
__Keyval$ = 12						; size = 4
?lower_bound@?$_Tree@V?$_Tmap_traits@HPAV?$list@PAVCEventItem@@V?$allocator@PAVCEventItem@@@std@@@std@@U?$less@H@2@V?$allocator@U?$pair@$$CBHPAV?$list@PAVCEventItem@@V?$allocator@PAVCEventItem@@@std@@@std@@@std@@@2@$0A@@std@@@std@@QAE?AViterator@12@ABH@Z PROC NEAR ; std::_Tree<std::_Tmap_traits<int,std::list<CEventItem *,std::allocator<CEventItem *> > *,std::less<int>,std::allocator<std::pair<int const ,std::list<CEventItem *,std::allocator<CEventItem *> > *> >,0> >::lower_bound, COMDAT
; _this$ = ecx

; 810  : 		return (_TREE_ITERATOR(_Lbound(_Keyval)));

  00000	8b 49 04	 mov	 ecx, DWORD PTR [ecx+4]
  00003	8b 41 04	 mov	 eax, DWORD PTR [ecx+4]
  00006	8a 50 15	 mov	 dl, BYTE PTR [eax+21]
  00009	84 d2		 test	 dl, dl
  0000b	75 1d		 jne	 SHORT $L191742
  0000d	8b 54 24 08	 mov	 edx, DWORD PTR __Keyval$[esp-4]
  00011	8b 12		 mov	 edx, DWORD PTR [edx]
  00013	53		 push	 ebx
$L191729:
  00014	39 50 0c	 cmp	 DWORD PTR [eax+12], edx
  00017	7d 05		 jge	 SHORT $L191731
  00019	8b 40 08	 mov	 eax, DWORD PTR [eax+8]
  0001c	eb 04		 jmp	 SHORT $L191732
$L191731:
  0001e	8b c8		 mov	 ecx, eax
  00020	8b 00		 mov	 eax, DWORD PTR [eax]
$L191732:
  00022	8a 58 15	 mov	 bl, BYTE PTR [eax+21]
  00025	84 db		 test	 bl, bl
  00027	74 eb		 je	 SHORT $L191729
  00029	5b		 pop	 ebx
$L191742:
  0002a	8b 44 24 04	 mov	 eax, DWORD PTR ___$ReturnUdt$[esp-4]
  0002e	89 08		 mov	 DWORD PTR [eax], ecx

; 811  : 		}

  00030	c2 08 00	 ret	 8
?lower_bound@?$_Tree@V?$_Tmap_traits@HPAV?$list@PAVCEventItem@@V?$allocator@PAVCEventItem@@@std@@@std@@U?$less@H@2@V?$allocator@U?$pair@$$CBHPAV?$list@PAVCEventItem@@V?$allocator@PAVCEventItem@@@std@@@std@@@std@@@2@$0A@@std@@@std@@QAE?AViterator@12@ABH@Z ENDP ; std::_Tree<std::_Tmap_traits<int,std::list<CEventItem *,std::allocator<CEventItem *> > *,std::less<int>,std::allocator<std::pair<int const ,std::list<CEventItem *,std::allocator<CEventItem *> > *> >,0> >::lower_bound
_TEXT	ENDS
PUBLIC	?_Erase@?$_Tree@V?$_Tmap_traits@HPAV?$list@PAVCEventItem@@V?$allocator@PAVCEventItem@@@std@@@std@@U?$less@H@2@V?$allocator@U?$pair@$$CBHPAV?$list@PAVCEventItem@@V?$allocator@PAVCEventItem@@@std@@@std@@@std@@@2@$0A@@std@@@std@@IAEXPAU_Node@?$_Tree_nod@V?$_Tmap_traits@HPAV?$list@PAVCEventItem@@V?$allocator@PAVCEventItem@@@std@@@std@@U?$less@H@2@V?$allocator@U?$pair@$$CBHPAV?$list@PAVCEventItem@@V?$allocator@PAVCEventItem@@@std@@@std@@@std@@@2@$0A@@std@@@2@@Z ; std::_Tree<std::_Tmap_traits<int,std::list<CEventItem *,std::allocator<CEventItem *> > *,std::less<int>,std::allocator<std::pair<int const ,std::list<CEventItem *,std::allocator<CEventItem *> > *> >,0> >::_Erase
; Function compile flags: /Ogty
;	COMDAT ?_Erase@?$_Tree@V?$_Tmap_traits@HPAV?$list@PAVCEventItem@@V?$allocator@PAVCEventItem@@@std@@@std@@U?$less@H@2@V?$allocator@U?$pair@$$CBHPAV?$list@PAVCEventItem@@V?$allocator@PAVCEventItem@@@std@@@std@@@std@@@2@$0A@@std@@@std@@IAEXPAU_Node@?$_Tree_nod@V?$_Tmap_traits@HPAV?$list@PAVCEventItem@@V?$allocator@PAVCEventItem@@@std@@@std@@U?$less@H@2@V?$allocator@U?$pair@$$CBHPAV?$list@PAVCEventItem@@V?$allocator@PAVCEventItem@@@std@@@std@@@std@@@2@$0A@@std@@@2@@Z
_TEXT	SEGMENT
__Rootnode$ = 8						; size = 4
?_Erase@?$_Tree@V?$_Tmap_traits@HPAV?$list@PAVCEventItem@@V?$allocator@PAVCEventItem@@@std@@@std@@U?$less@H@2@V?$allocator@U?$pair@$$CBHPAV?$list@PAVCEventItem@@V?$allocator@PAVCEventItem@@@std@@@std@@@std@@@2@$0A@@std@@@std@@IAEXPAU_Node@?$_Tree_nod@V?$_Tmap_traits@HPAV?$list@PAVCEventItem@@V?$allocator@PAVCEventItem@@@std@@@std@@U?$less@H@2@V?$allocator@U?$pair@$$CBHPAV?$list@PAVCEventItem@@V?$allocator@PAVCEventItem@@@std@@@std@@@std@@@2@$0A@@std@@@2@@Z PROC NEAR ; std::_Tree<std::_Tmap_traits<int,std::list<CEventItem *,std::allocator<CEventItem *> > *,std::less<int>,std::allocator<std::pair<int const ,std::list<CEventItem *,std::allocator<CEventItem *> > *> >,0> >::_Erase, COMDAT
; _this$ = ecx

; 890  : 		{	// free entire subtree, recursively

  00000	53		 push	 ebx
  00001	56		 push	 esi
  00002	57		 push	 edi

; 891  : 		for (_Nodeptr _Pnode = _Rootnode; !_Isnil(_Pnode); _Rootnode = _Pnode)

  00003	8b 7c 24 10	 mov	 edi, DWORD PTR __Rootnode$[esp+8]
  00007	8a 47 15	 mov	 al, BYTE PTR [edi+21]
  0000a	84 c0		 test	 al, al
  0000c	8b d9		 mov	 ebx, ecx
  0000e	8b f7		 mov	 esi, edi
  00010	75 1f		 jne	 SHORT $L189164
$L189162:

; 892  : 			{	// free subtrees, then node
; 893  : 			_Erase(_Right(_Pnode));

  00012	8b 46 08	 mov	 eax, DWORD PTR [esi+8]
  00015	50		 push	 eax
  00016	8b cb		 mov	 ecx, ebx
  00018	e8 00 00 00 00	 call	 ?_Erase@?$_Tree@V?$_Tmap_traits@HPAV?$list@PAVCEventItem@@V?$allocator@PAVCEventItem@@@std@@@std@@U?$less@H@2@V?$allocator@U?$pair@$$CBHPAV?$list@PAVCEventItem@@V?$allocator@PAVCEventItem@@@std@@@std@@@std@@@2@$0A@@std@@@std@@IAEXPAU_Node@?$_Tree_nod@V?$_Tmap_traits@HPAV?$list@PAVCEventItem@@V?$allocator@PAVCEventItem@@@std@@@std@@U?$less@H@2@V?$allocator@U?$pair@$$CBHPAV?$list@PAVCEventItem@@V?$allocator@PAVCEventItem@@@std@@@std@@@std@@@2@$0A@@std@@@2@@Z ; std::_Tree<std::_Tmap_traits<int,std::list<CEventItem *,std::allocator<CEventItem *> > *,std::less<int>,std::allocator<std::pair<int const ,std::list<CEventItem *,std::allocator<CEventItem *> > *> >,0> >::_Erase

; 894  : 			_Pnode = _Left(_Pnode);

  0001d	8b 36		 mov	 esi, DWORD PTR [esi]

; 895  : 			this->_Alnod.destroy(_Rootnode);	// destroy, free erased node
; 896  : 			this->_Alnod.deallocate(_Rootnode, 1);

  0001f	57		 push	 edi
  00020	e8 00 00 00 00	 call	 ??3@YAXPAX@Z		; operator delete
  00025	8a 46 15	 mov	 al, BYTE PTR [esi+21]
  00028	83 c4 04	 add	 esp, 4
  0002b	84 c0		 test	 al, al
  0002d	8b fe		 mov	 edi, esi
  0002f	74 e1		 je	 SHORT $L189162
$L189164:
  00031	5f		 pop	 edi
  00032	5e		 pop	 esi
  00033	5b		 pop	 ebx

; 897  : 			}
; 898  : 		}

  00034	c2 04 00	 ret	 4
?_Erase@?$_Tree@V?$_Tmap_traits@HPAV?$list@PAVCEventItem@@V?$allocator@PAVCEventItem@@@std@@@std@@U?$less@H@2@V?$allocator@U?$pair@$$CBHPAV?$list@PAVCEventItem@@V?$allocator@PAVCEventItem@@@std@@@std@@@std@@@2@$0A@@std@@@std@@IAEXPAU_Node@?$_Tree_nod@V?$_Tmap_traits@HPAV?$list@PAVCEventItem@@V?$allocator@PAVCEventItem@@@std@@@std@@U?$less@H@2@V?$allocator@U?$pair@$$CBHPAV?$list@PAVCEventItem@@V?$allocator@PAVCEventItem@@@std@@@std@@@std@@@2@$0A@@std@@@2@@Z ENDP ; std::_Tree<std::_Tmap_traits<int,std::list<CEventItem *,std::allocator<CEventItem *> > *,std::less<int>,std::allocator<std::pair<int const ,std::list<CEventItem *,std::allocator<CEventItem *> > *> >,0> >::_Erase
_TEXT	ENDS
PUBLIC	??Econst_iterator@?$_Tree@V?$_Tmap_traits@HPAV?$list@PAVCEventItem@@V?$allocator@PAVCEventItem@@@std@@@std@@U?$less@H@2@V?$allocator@U?$pair@$$CBHPAV?$list@PAVCEventItem@@V?$allocator@PAVCEventItem@@@std@@@std@@@std@@@2@$0A@@std@@@std@@QAEAAV012@XZ ; std::_Tree<std::_Tmap_traits<int,std::list<CEventItem *,std::allocator<CEventItem *> > *,std::less<int>,std::allocator<std::pair<int const ,std::list<CEventItem *,std::allocator<CEventItem *> > *> >,0> >::const_iterator::operator++
; Function compile flags: /Ogty
;	COMDAT ??Econst_iterator@?$_Tree@V?$_Tmap_traits@HPAV?$list@PAVCEventItem@@V?$allocator@PAVCEventItem@@@std@@@std@@U?$less@H@2@V?$allocator@U?$pair@$$CBHPAV?$list@PAVCEventItem@@V?$allocator@PAVCEventItem@@@std@@@std@@@std@@@2@$0A@@std@@@std@@QAEAAV012@XZ
_TEXT	SEGMENT
??Econst_iterator@?$_Tree@V?$_Tmap_traits@HPAV?$list@PAVCEventItem@@V?$allocator@PAVCEventItem@@@std@@@std@@U?$less@H@2@V?$allocator@U?$pair@$$CBHPAV?$list@PAVCEventItem@@V?$allocator@PAVCEventItem@@@std@@@std@@@std@@@2@$0A@@std@@@std@@QAEAAV012@XZ PROC NEAR ; std::_Tree<std::_Tmap_traits<int,std::list<CEventItem *,std::allocator<CEventItem *> > *,std::less<int>,std::allocator<std::pair<int const ,std::list<CEventItem *,std::allocator<CEventItem *> > *> >,0> >::const_iterator::operator++, COMDAT
; _this$ = ecx

; 214  : 			{	// preincrement

  00000	56		 push	 esi
  00001	8b f1		 mov	 esi, ecx

; 215  : 			_Inc();

  00003	e8 00 00 00 00	 call	 ?_Inc@const_iterator@?$_Tree@V?$_Tmap_traits@HPAV?$list@PAVCEventItem@@V?$allocator@PAVCEventItem@@@std@@@std@@U?$less@H@2@V?$allocator@U?$pair@$$CBHPAV?$list@PAVCEventItem@@V?$allocator@PAVCEventItem@@@std@@@std@@@std@@@2@$0A@@std@@@std@@QAEXXZ ; std::_Tree<std::_Tmap_traits<int,std::list<CEventItem *,std::allocator<CEventItem *> > *,std::less<int>,std::allocator<std::pair<int const ,std::list<CEventItem *,std::allocator<CEventItem *> > *> >,0> >::const_iterator::_Inc

; 216  : 			return (*this);

  00008	8b c6		 mov	 eax, esi
  0000a	5e		 pop	 esi

; 217  : 			}

  0000b	c3		 ret	 0
??Econst_iterator@?$_Tree@V?$_Tmap_traits@HPAV?$list@PAVCEventItem@@V?$allocator@PAVCEventItem@@@std@@@std@@U?$less@H@2@V?$allocator@U?$pair@$$CBHPAV?$list@PAVCEventItem@@V?$allocator@PAVCEventItem@@@std@@@std@@@std@@@2@$0A@@std@@@std@@QAEAAV012@XZ ENDP ; std::_Tree<std::_Tmap_traits<int,std::list<CEventItem *,std::allocator<CEventItem *> > *,std::less<int>,std::allocator<std::pair<int const ,std::list<CEventItem *,std::allocator<CEventItem *> > *> >,0> >::const_iterator::operator++
_TEXT	ENDS
PUBLIC	?_Buynode@?$list@PAVCEventItem@@V?$allocator@PAVCEventItem@@@std@@@std@@IAEPAU_Node@?$_List_nod@PAVCEventItem@@V?$allocator@PAVCEventItem@@@std@@@2@XZ ; std::list<CEventItem *,std::allocator<CEventItem *> >::_Buynode
; Function compile flags: /Ogty
; File c:\program files\microsoft visual studio .net 2003\vc7\include\list
;	COMDAT ?_Buynode@?$list@PAVCEventItem@@V?$allocator@PAVCEventItem@@@std@@@std@@IAEPAU_Node@?$_List_nod@PAVCEventItem@@V?$allocator@PAVCEventItem@@@std@@@2@XZ
_TEXT	SEGMENT
?_Buynode@?$list@PAVCEventItem@@V?$allocator@PAVCEventItem@@@std@@@std@@IAEPAU_Node@?$_List_nod@PAVCEventItem@@V?$allocator@PAVCEventItem@@@std@@@2@XZ PROC NEAR ; std::list<CEventItem *,std::allocator<CEventItem *> >::_Buynode, COMDAT
; _this$ = ecx

; 899  : 		_Nodeptr _Pnode = this->_Alnod.allocate(1);

  00000	6a 0c		 push	 12			; 0000000cH
  00002	e8 00 00 00 00	 call	 ??2@YAPAXI@Z		; operator new
  00007	83 c4 04	 add	 esp, 4

; 900  : 		int _Linkcnt = 0;
; 901  : 
; 902  : 		_TRY_BEGIN
; 903  : 		this->_Alptr.construct(&_Nextnode(_Pnode), _Pnode);

  0000a	85 c0		 test	 eax, eax
  0000c	74 02		 je	 SHORT $L191796
  0000e	89 00		 mov	 DWORD PTR [eax], eax
$L191796:

; 904  : 		++_Linkcnt;
; 905  : 		this->_Alptr.construct(&_Prevnode(_Pnode), _Pnode);

  00010	8d 48 04	 lea	 ecx, DWORD PTR [eax+4]
  00013	85 c9		 test	 ecx, ecx
  00015	74 02		 je	 SHORT $L191824
  00017	89 01		 mov	 DWORD PTR [ecx], eax
$L191824:

; 906  : 		_CATCH_ALL
; 907  : 		if (0 < _Linkcnt)
; 908  : 			this->_Alptr.destroy(&_Nextnode(_Pnode));
; 909  : 		this->_Alnod.deallocate(_Pnode, 1);
; 910  : 		_RERAISE;
; 911  : 		_CATCH_END
; 912  : 		return (_Pnode);
; 913  : 		}

  00019	c3		 ret	 0
?_Buynode@?$list@PAVCEventItem@@V?$allocator@PAVCEventItem@@@std@@@std@@IAEPAU_Node@?$_List_nod@PAVCEventItem@@V?$allocator@PAVCEventItem@@@std@@@2@XZ ENDP ; std::list<CEventItem *,std::allocator<CEventItem *> >::_Buynode
_TEXT	ENDS
PUBLIC	?_Tidy@?$list@PAVCEventItem@@V?$allocator@PAVCEventItem@@@std@@@std@@IAEXXZ ; std::list<CEventItem *,std::allocator<CEventItem *> >::_Tidy
; Function compile flags: /Ogty
;	COMDAT ?_Tidy@?$list@PAVCEventItem@@V?$allocator@PAVCEventItem@@@std@@@std@@IAEXXZ
_TEXT	SEGMENT
?_Tidy@?$list@PAVCEventItem@@V?$allocator@PAVCEventItem@@@std@@@std@@IAEXXZ PROC NEAR ; std::list<CEventItem *,std::allocator<CEventItem *> >::_Tidy, COMDAT
; _this$ = ecx

; 929  : 		{	// free all storage

  00000	56		 push	 esi
  00001	8b f1		 mov	 esi, ecx

; 930  : 		clear();

  00003	e8 00 00 00 00	 call	 ?clear@?$list@PAVCEventItem@@V?$allocator@PAVCEventItem@@@std@@@std@@QAEXXZ ; std::list<CEventItem *,std::allocator<CEventItem *> >::clear

; 931  : 		this->_Alptr.destroy(&_Nextnode(_Myhead));
; 932  : 		this->_Alptr.destroy(&_Prevnode(_Myhead));
; 933  : 		this->_Alnod.deallocate(_Myhead, 1);

  00008	8b 46 04	 mov	 eax, DWORD PTR [esi+4]
  0000b	50		 push	 eax
  0000c	e8 00 00 00 00	 call	 ??3@YAXPAX@Z		; operator delete
  00011	83 c4 04	 add	 esp, 4

; 934  : 		_Myhead = 0;

  00014	c7 46 04 00 00
	00 00		 mov	 DWORD PTR [esi+4], 0
  0001b	5e		 pop	 esi

; 935  : 		}

  0001c	c3		 ret	 0
?_Tidy@?$list@PAVCEventItem@@V?$allocator@PAVCEventItem@@@std@@@std@@IAEXXZ ENDP ; std::list<CEventItem *,std::allocator<CEventItem *> >::_Tidy
_TEXT	ENDS
PUBLIC	?_Buynode@?$list@PAU_EVENT_GENERIC@@V?$allocator@PAU_EVENT_GENERIC@@@std@@@std@@IAEPAU_Node@?$_List_nod@PAU_EVENT_GENERIC@@V?$allocator@PAU_EVENT_GENERIC@@@std@@@2@PAU342@0ABQAU_EVENT_GENERIC@@@Z ; std::list<_EVENT_GENERIC *,std::allocator<_EVENT_GENERIC *> >::_Buynode
; Function compile flags: /Ogty
;	COMDAT ?_Buynode@?$list@PAU_EVENT_GENERIC@@V?$allocator@PAU_EVENT_GENERIC@@@std@@@std@@IAEPAU_Node@?$_List_nod@PAU_EVENT_GENERIC@@V?$allocator@PAU_EVENT_GENERIC@@@std@@@2@PAU342@0ABQAU_EVENT_GENERIC@@@Z
_TEXT	SEGMENT
__Next$ = 8						; size = 4
__Prev$ = 12						; size = 4
__Val$ = 16						; size = 4
?_Buynode@?$list@PAU_EVENT_GENERIC@@V?$allocator@PAU_EVENT_GENERIC@@@std@@@std@@IAEPAU_Node@?$_List_nod@PAU_EVENT_GENERIC@@V?$allocator@PAU_EVENT_GENERIC@@@std@@@2@PAU342@0ABQAU_EVENT_GENERIC@@@Z PROC NEAR ; std::list<_EVENT_GENERIC *,std::allocator<_EVENT_GENERIC *> >::_Buynode, COMDAT
; _this$ = ecx

; 918  : 		_Nodeptr _Pnode = this->_Alnod.allocate(1);

  00000	6a 0c		 push	 12			; 0000000cH
  00002	e8 00 00 00 00	 call	 ??2@YAPAXI@Z		; operator new
  00007	83 c4 04	 add	 esp, 4

; 919  : 		_TRY_BEGIN
; 920  : 		new ((void *)_Pnode) _Node(_Next, _Prev, _Val);

  0000a	85 c0		 test	 eax, eax
  0000c	74 16		 je	 SHORT $L191856
  0000e	8b 4c 24 04	 mov	 ecx, DWORD PTR __Next$[esp-4]
  00012	8b 54 24 08	 mov	 edx, DWORD PTR __Prev$[esp-4]
  00016	89 08		 mov	 DWORD PTR [eax], ecx
  00018	8b 4c 24 0c	 mov	 ecx, DWORD PTR __Val$[esp-4]
  0001c	89 50 04	 mov	 DWORD PTR [eax+4], edx
  0001f	8b 11		 mov	 edx, DWORD PTR [ecx]
  00021	89 50 08	 mov	 DWORD PTR [eax+8], edx
$L191856:

; 921  : 		_CATCH_ALL
; 922  : 		this->_Alnod.deallocate(_Pnode, 1);
; 923  : 		_RERAISE;
; 924  : 		_CATCH_END
; 925  : 		return (_Pnode);
; 926  : 		}

  00024	c2 0c 00	 ret	 12			; 0000000cH
?_Buynode@?$list@PAU_EVENT_GENERIC@@V?$allocator@PAU_EVENT_GENERIC@@@std@@@std@@IAEPAU_Node@?$_List_nod@PAU_EVENT_GENERIC@@V?$allocator@PAU_EVENT_GENERIC@@@std@@@2@PAU342@0ABQAU_EVENT_GENERIC@@@Z ENDP ; std::list<_EVENT_GENERIC *,std::allocator<_EVENT_GENERIC *> >::_Buynode
_TEXT	ENDS
PUBLIC	??0?$_List_ptr@PAU_EVENT_GENERIC@@V?$allocator@PAU_EVENT_GENERIC@@@std@@@std@@IAE@V?$allocator@PAU_EVENT_GENERIC@@@1@@Z ; std::_List_ptr<_EVENT_GENERIC *,std::allocator<_EVENT_GENERIC *> >::_List_ptr<_EVENT_GENERIC *,std::allocator<_EVENT_GENERIC *> >
; Function compile flags: /Ogty
;	COMDAT ??0?$_List_ptr@PAU_EVENT_GENERIC@@V?$allocator@PAU_EVENT_GENERIC@@@std@@@std@@IAE@V?$allocator@PAU_EVENT_GENERIC@@@1@@Z
_TEXT	SEGMENT
__Al$ = 8						; size = 1
??0?$_List_ptr@PAU_EVENT_GENERIC@@V?$allocator@PAU_EVENT_GENERIC@@@std@@@std@@IAE@V?$allocator@PAU_EVENT_GENERIC@@@1@@Z PROC NEAR ; std::_List_ptr<_EVENT_GENERIC *,std::allocator<_EVENT_GENERIC *> >::_List_ptr<_EVENT_GENERIC *,std::allocator<_EVENT_GENERIC *> >, COMDAT
; _this$ = ecx

; 64   : 		{	// construct base, and allocator from _Al

  00000	8b c1		 mov	 eax, ecx

; 65   : 		}

  00002	c2 04 00	 ret	 4
??0?$_List_ptr@PAU_EVENT_GENERIC@@V?$allocator@PAU_EVENT_GENERIC@@@std@@@std@@IAE@V?$allocator@PAU_EVENT_GENERIC@@@1@@Z ENDP ; std::_List_ptr<_EVENT_GENERIC *,std::allocator<_EVENT_GENERIC *> >::_List_ptr<_EVENT_GENERIC *,std::allocator<_EVENT_GENERIC *> >
_TEXT	ENDS
PUBLIC	?_Buynode@?$_Tree@V?$_Tmap_traits@HPAV?$list@PAVCEventItem@@V?$allocator@PAVCEventItem@@@std@@@std@@U?$less@H@2@V?$allocator@U?$pair@$$CBHPAV?$list@PAVCEventItem@@V?$allocator@PAVCEventItem@@@std@@@std@@@std@@@2@$0A@@std@@@std@@IAEPAU_Node@?$_Tree_nod@V?$_Tmap_traits@HPAV?$list@PAVCEventItem@@V?$allocator@PAVCEventItem@@@std@@@std@@U?$less@H@2@V?$allocator@U?$pair@$$CBHPAV?$list@PAVCEventItem@@V?$allocator@PAVCEventItem@@@std@@@std@@@std@@@2@$0A@@std@@@2@PAU342@00ABU?$pair@$$CBHPAV?$list@PAVCEventItem@@V?$allocator@PAVCEventItem@@@std@@@std@@@2@D@Z ; std::_Tree<std::_Tmap_traits<int,std::list<CEventItem *,std::allocator<CEventItem *> > *,std::less<int>,std::allocator<std::pair<int const ,std::list<CEventItem *,std::allocator<CEventItem *> > *> >,0> >::_Buynode
; Function compile flags: /Ogty
; File c:\program files\microsoft visual studio .net 2003\vc7\include\xtree
;	COMDAT ?_Buynode@?$_Tree@V?$_Tmap_traits@HPAV?$list@PAVCEventItem@@V?$allocator@PAVCEventItem@@@std@@@std@@U?$less@H@2@V?$allocator@U?$pair@$$CBHPAV?$list@PAVCEventItem@@V?$allocator@PAVCEventItem@@@std@@@std@@@std@@@2@$0A@@std@@@std@@IAEPAU_Node@?$_Tree_nod@V?$_Tmap_traits@HPAV?$list@PAVCEventItem@@V?$allocator@PAVCEventItem@@@std@@@std@@U?$less@H@2@V?$allocator@U?$pair@$$CBHPAV?$list@PAVCEventItem@@V?$allocator@PAVCEventItem@@@std@@@std@@@std@@@2@$0A@@std@@@2@PAU342@00ABU?$pair@$$CBHPAV?$list@PAVCEventItem@@V?$allocator@PAVCEventItem@@@std@@@std@@@2@D@Z
_TEXT	SEGMENT
__Larg$ = 8						; size = 4
__Parg$ = 12						; size = 4
__Rarg$ = 16						; size = 4
__Val$ = 20						; size = 4
__Carg$ = 24						; size = 1
?_Buynode@?$_Tree@V?$_Tmap_traits@HPAV?$list@PAVCEventItem@@V?$allocator@PAVCEventItem@@@std@@@std@@U?$less@H@2@V?$allocator@U?$pair@$$CBHPAV?$list@PAVCEventItem@@V?$allocator@PAVCEventItem@@@std@@@std@@@std@@@2@$0A@@std@@@std@@IAEPAU_Node@?$_Tree_nod@V?$_Tmap_traits@HPAV?$list@PAVCEventItem@@V?$allocator@PAVCEventItem@@@std@@@std@@U?$less@H@2@V?$allocator@U?$pair@$$CBHPAV?$list@PAVCEventItem@@V?$allocator@PAVCEventItem@@@std@@@std@@@std@@@2@$0A@@std@@@2@PAU342@00ABU?$pair@$$CBHPAV?$list@PAVCEventItem@@V?$allocator@PAVCEventItem@@@std@@@std@@@2@D@Z PROC NEAR ; std::_Tree<std::_Tmap_traits<int,std::list<CEventItem *,std::allocator<CEventItem *> > *,std::less<int>,std::allocator<std::pair<int const ,std::list<CEventItem *,std::allocator<CEventItem *> > *> >,0> >::_Buynode, COMDAT
; _this$ = ecx

; 1131 : 		_Nodeptr _Wherenode = this->_Alnod.allocate(1);

  00000	6a 18		 push	 24			; 00000018H
  00002	e8 00 00 00 00	 call	 ??2@YAPAXI@Z		; operator new
  00007	83 c4 04	 add	 esp, 4

; 1132 : 		_TRY_BEGIN
; 1133 : 		new (_Wherenode) _Node(_Larg, _Parg, _Rarg, _Val, _Carg);

  0000a	85 c0		 test	 eax, eax
  0000c	74 2e		 je	 SHORT $L191904
  0000e	8b 4c 24 04	 mov	 ecx, DWORD PTR __Larg$[esp-4]
  00012	8b 54 24 08	 mov	 edx, DWORD PTR __Parg$[esp-4]
  00016	89 08		 mov	 DWORD PTR [eax], ecx
  00018	8b 4c 24 0c	 mov	 ecx, DWORD PTR __Rarg$[esp-4]
  0001c	89 48 08	 mov	 DWORD PTR [eax+8], ecx
  0001f	8b 4c 24 10	 mov	 ecx, DWORD PTR __Val$[esp-4]
  00023	89 50 04	 mov	 DWORD PTR [eax+4], edx
  00026	8b 11		 mov	 edx, DWORD PTR [ecx]
  00028	89 50 0c	 mov	 DWORD PTR [eax+12], edx
  0002b	8b 49 04	 mov	 ecx, DWORD PTR [ecx+4]
  0002e	8a 54 24 14	 mov	 dl, BYTE PTR __Carg$[esp-4]
  00032	89 48 10	 mov	 DWORD PTR [eax+16], ecx
  00035	88 50 14	 mov	 BYTE PTR [eax+20], dl
  00038	c6 40 15 00	 mov	 BYTE PTR [eax+21], 0
$L191904:

; 1134 : 		_CATCH_ALL
; 1135 : 		this->_Alnod.deallocate(_Wherenode, 1);
; 1136 : 		_RERAISE;
; 1137 : 		_CATCH_END
; 1138 : 		return (_Wherenode);
; 1139 : 		}

  0003c	c2 14 00	 ret	 20			; 00000014H
?_Buynode@?$_Tree@V?$_Tmap_traits@HPAV?$list@PAVCEventItem@@V?$allocator@PAVCEventItem@@@std@@@std@@U?$less@H@2@V?$allocator@U?$pair@$$CBHPAV?$list@PAVCEventItem@@V?$allocator@PAVCEventItem@@@std@@@std@@@std@@@2@$0A@@std@@@std@@IAEPAU_Node@?$_Tree_nod@V?$_Tmap_traits@HPAV?$list@PAVCEventItem@@V?$allocator@PAVCEventItem@@@std@@@std@@U?$less@H@2@V?$allocator@U?$pair@$$CBHPAV?$list@PAVCEventItem@@V?$allocator@PAVCEventItem@@@std@@@std@@@std@@@2@$0A@@std@@@2@PAU342@00ABU?$pair@$$CBHPAV?$list@PAVCEventItem@@V?$allocator@PAVCEventItem@@@std@@@std@@@2@D@Z ENDP ; std::_Tree<std::_Tmap_traits<int,std::list<CEventItem *,std::allocator<CEventItem *> > *,std::less<int>,std::allocator<std::pair<int const ,std::list<CEventItem *,std::allocator<CEventItem *> > *> >,0> >::_Buynode
_TEXT	ENDS
PUBLIC	??Fconst_iterator@?$_Tree@V?$_Tmap_traits@HPAV?$list@PAVCEventItem@@V?$allocator@PAVCEventItem@@@std@@@std@@U?$less@H@2@V?$allocator@U?$pair@$$CBHPAV?$list@PAVCEventItem@@V?$allocator@PAVCEventItem@@@std@@@std@@@std@@@2@$0A@@std@@@std@@QAEAAV012@XZ ; std::_Tree<std::_Tmap_traits<int,std::list<CEventItem *,std::allocator<CEventItem *> > *,std::less<int>,std::allocator<std::pair<int const ,std::list<CEventItem *,std::allocator<CEventItem *> > *> >,0> >::const_iterator::operator--
; Function compile flags: /Ogty
;	COMDAT ??Fconst_iterator@?$_Tree@V?$_Tmap_traits@HPAV?$list@PAVCEventItem@@V?$allocator@PAVCEventItem@@@std@@@std@@U?$less@H@2@V?$allocator@U?$pair@$$CBHPAV?$list@PAVCEventItem@@V?$allocator@PAVCEventItem@@@std@@@std@@@std@@@2@$0A@@std@@@std@@QAEAAV012@XZ
_TEXT	SEGMENT
??Fconst_iterator@?$_Tree@V?$_Tmap_traits@HPAV?$list@PAVCEventItem@@V?$allocator@PAVCEventItem@@@std@@@std@@U?$less@H@2@V?$allocator@U?$pair@$$CBHPAV?$list@PAVCEventItem@@V?$allocator@PAVCEventItem@@@std@@@std@@@std@@@2@$0A@@std@@@std@@QAEAAV012@XZ PROC NEAR ; std::_Tree<std::_Tmap_traits<int,std::list<CEventItem *,std::allocator<CEventItem *> > *,std::less<int>,std::allocator<std::pair<int const ,std::list<CEventItem *,std::allocator<CEventItem *> > *> >,0> >::const_iterator::operator--, COMDAT
; _this$ = ecx

; 227  : 			{	// predecrement

  00000	56		 push	 esi
  00001	8b f1		 mov	 esi, ecx

; 228  : 			_Dec();

  00003	e8 00 00 00 00	 call	 ?_Dec@const_iterator@?$_Tree@V?$_Tmap_traits@HPAV?$list@PAVCEventItem@@V?$allocator@PAVCEventItem@@@std@@@std@@U?$less@H@2@V?$allocator@U?$pair@$$CBHPAV?$list@PAVCEventItem@@V?$allocator@PAVCEventItem@@@std@@@std@@@std@@@2@$0A@@std@@@std@@QAEXXZ ; std::_Tree<std::_Tmap_traits<int,std::list<CEventItem *,std::allocator<CEventItem *> > *,std::less<int>,std::allocator<std::pair<int const ,std::list<CEventItem *,std::allocator<CEventItem *> > *> >,0> >::const_iterator::_Dec

; 229  : 			return (*this);

  00008	8b c6		 mov	 eax, esi
  0000a	5e		 pop	 esi

; 230  : 			}

  0000b	c3		 ret	 0
??Fconst_iterator@?$_Tree@V?$_Tmap_traits@HPAV?$list@PAVCEventItem@@V?$allocator@PAVCEventItem@@@std@@@std@@U?$less@H@2@V?$allocator@U?$pair@$$CBHPAV?$list@PAVCEventItem@@V?$allocator@PAVCEventItem@@@std@@@std@@@std@@@2@$0A@@std@@@std@@QAEAAV012@XZ ENDP ; std::_Tree<std::_Tmap_traits<int,std::list<CEventItem *,std::allocator<CEventItem *> > *,std::less<int>,std::allocator<std::pair<int const ,std::list<CEventItem *,std::allocator<CEventItem *> > *> >,0> >::const_iterator::operator--
_TEXT	ENDS
PUBLIC	?_Buynode@?$list@PAVCEventItem@@V?$allocator@PAVCEventItem@@@std@@@std@@IAEPAU_Node@?$_List_nod@PAVCEventItem@@V?$allocator@PAVCEventItem@@@std@@@2@PAU342@0ABQAVCEventItem@@@Z ; std::list<CEventItem *,std::allocator<CEventItem *> >::_Buynode
; Function compile flags: /Ogty
; File c:\program files\microsoft visual studio .net 2003\vc7\include\list
;	COMDAT ?_Buynode@?$list@PAVCEventItem@@V?$allocator@PAVCEventItem@@@std@@@std@@IAEPAU_Node@?$_List_nod@PAVCEventItem@@V?$allocator@PAVCEventItem@@@std@@@2@PAU342@0ABQAVCEventItem@@@Z
_TEXT	SEGMENT
__Next$ = 8						; size = 4
__Prev$ = 12						; size = 4
__Val$ = 16						; size = 4
?_Buynode@?$list@PAVCEventItem@@V?$allocator@PAVCEventItem@@@std@@@std@@IAEPAU_Node@?$_List_nod@PAVCEventItem@@V?$allocator@PAVCEventItem@@@std@@@2@PAU342@0ABQAVCEventItem@@@Z PROC NEAR ; std::list<CEventItem *,std::allocator<CEventItem *> >::_Buynode, COMDAT
; _this$ = ecx

; 918  : 		_Nodeptr _Pnode = this->_Alnod.allocate(1);

  00000	6a 0c		 push	 12			; 0000000cH
  00002	e8 00 00 00 00	 call	 ??2@YAPAXI@Z		; operator new
  00007	83 c4 04	 add	 esp, 4

; 919  : 		_TRY_BEGIN
; 920  : 		new ((void *)_Pnode) _Node(_Next, _Prev, _Val);

  0000a	85 c0		 test	 eax, eax
  0000c	74 16		 je	 SHORT $L191935
  0000e	8b 4c 24 04	 mov	 ecx, DWORD PTR __Next$[esp-4]
  00012	8b 54 24 08	 mov	 edx, DWORD PTR __Prev$[esp-4]
  00016	89 08		 mov	 DWORD PTR [eax], ecx
  00018	8b 4c 24 0c	 mov	 ecx, DWORD PTR __Val$[esp-4]
  0001c	89 50 04	 mov	 DWORD PTR [eax+4], edx
  0001f	8b 11		 mov	 edx, DWORD PTR [ecx]
  00021	89 50 08	 mov	 DWORD PTR [eax+8], edx
$L191935:

; 921  : 		_CATCH_ALL
; 922  : 		this->_Alnod.deallocate(_Pnode, 1);
; 923  : 		_RERAISE;
; 924  : 		_CATCH_END
; 925  : 		return (_Pnode);
; 926  : 		}

  00024	c2 0c 00	 ret	 12			; 0000000cH
?_Buynode@?$list@PAVCEventItem@@V?$allocator@PAVCEventItem@@@std@@@std@@IAEPAU_Node@?$_List_nod@PAVCEventItem@@V?$allocator@PAVCEventItem@@@std@@@2@PAU342@0ABQAVCEventItem@@@Z ENDP ; std::list<CEventItem *,std::allocator<CEventItem *> >::_Buynode
_TEXT	ENDS
PUBLIC	??0?$_List_ptr@PAVCEventItem@@V?$allocator@PAVCEventItem@@@std@@@std@@IAE@V?$allocator@PAVCEventItem@@@1@@Z ; std::_List_ptr<CEventItem *,std::allocator<CEventItem *> >::_List_ptr<CEventItem *,std::allocator<CEventItem *> >
; Function compile flags: /Ogty
;	COMDAT ??0?$_List_ptr@PAVCEventItem@@V?$allocator@PAVCEventItem@@@std@@@std@@IAE@V?$allocator@PAVCEventItem@@@1@@Z
_TEXT	SEGMENT
__Al$ = 8						; size = 1
??0?$_List_ptr@PAVCEventItem@@V?$allocator@PAVCEventItem@@@std@@@std@@IAE@V?$allocator@PAVCEventItem@@@1@@Z PROC NEAR ; std::_List_ptr<CEventItem *,std::allocator<CEventItem *> >::_List_ptr<CEventItem *,std::allocator<CEventItem *> >, COMDAT
; _this$ = ecx

; 64   : 		{	// construct base, and allocator from _Al

  00000	8b c1		 mov	 eax, ecx

; 65   : 		}

  00002	c2 04 00	 ret	 4
??0?$_List_ptr@PAVCEventItem@@V?$allocator@PAVCEventItem@@@std@@@std@@IAE@V?$allocator@PAVCEventItem@@@1@@Z ENDP ; std::_List_ptr<CEventItem *,std::allocator<CEventItem *> >::_List_ptr<CEventItem *,std::allocator<CEventItem *> >
_TEXT	ENDS
PUBLIC	?_Buynode@?$_Tree@V?$_Tmap_traits@HPAV?$list@PAVCEventItem@@V?$allocator@PAVCEventItem@@@std@@@std@@U?$less@H@2@V?$allocator@U?$pair@$$CBHPAV?$list@PAVCEventItem@@V?$allocator@PAVCEventItem@@@std@@@std@@@std@@@2@$0A@@std@@@std@@IAEPAU_Node@?$_Tree_nod@V?$_Tmap_traits@HPAV?$list@PAVCEventItem@@V?$allocator@PAVCEventItem@@@std@@@std@@U?$less@H@2@V?$allocator@U?$pair@$$CBHPAV?$list@PAVCEventItem@@V?$allocator@PAVCEventItem@@@std@@@std@@@std@@@2@$0A@@std@@@2@XZ ; std::_Tree<std::_Tmap_traits<int,std::list<CEventItem *,std::allocator<CEventItem *> > *,std::less<int>,std::allocator<std::pair<int const ,std::list<CEventItem *,std::allocator<CEventItem *> > *> >,0> >::_Buynode
; Function compile flags: /Ogty
; File c:\program files\microsoft visual studio .net 2003\vc7\include\xtree
;	COMDAT ?_Buynode@?$_Tree@V?$_Tmap_traits@HPAV?$list@PAVCEventItem@@V?$allocator@PAVCEventItem@@@std@@@std@@U?$less@H@2@V?$allocator@U?$pair@$$CBHPAV?$list@PAVCEventItem@@V?$allocator@PAVCEventItem@@@std@@@std@@@std@@@2@$0A@@std@@@std@@IAEPAU_Node@?$_Tree_nod@V?$_Tmap_traits@HPAV?$list@PAVCEventItem@@V?$allocator@PAVCEventItem@@@std@@@std@@U?$less@H@2@V?$allocator@U?$pair@$$CBHPAV?$list@PAVCEventItem@@V?$allocator@PAVCEventItem@@@std@@@std@@@std@@@2@$0A@@std@@@2@XZ
_TEXT	SEGMENT
?_Buynode@?$_Tree@V?$_Tmap_traits@HPAV?$list@PAVCEventItem@@V?$allocator@PAVCEventItem@@@std@@@std@@U?$less@H@2@V?$allocator@U?$pair@$$CBHPAV?$list@PAVCEventItem@@V?$allocator@PAVCEventItem@@@std@@@std@@@std@@@2@$0A@@std@@@std@@IAEPAU_Node@?$_Tree_nod@V?$_Tmap_traits@HPAV?$list@PAVCEventItem@@V?$allocator@PAVCEventItem@@@std@@@std@@U?$less@H@2@V?$allocator@U?$pair@$$CBHPAV?$list@PAVCEventItem@@V?$allocator@PAVCEventItem@@@std@@@std@@@std@@@2@$0A@@std@@@2@XZ PROC NEAR ; std::_Tree<std::_Tmap_traits<int,std::list<CEventItem *,std::allocator<CEventItem *> > *,std::less<int>,std::allocator<std::pair<int const ,std::list<CEventItem *,std::allocator<CEventItem *> > *> >,0> >::_Buynode, COMDAT
; _this$ = ecx

; 1106 : 		_Nodeptr _Wherenode = this->_Alnod.allocate(1);

  00000	6a 18		 push	 24			; 00000018H
  00002	e8 00 00 00 00	 call	 ??2@YAPAXI@Z		; operator new
  00007	83 c4 04	 add	 esp, 4

; 1107 : 		int _Linkcnt = 0;
; 1108 : 
; 1109 : 		_TRY_BEGIN
; 1110 : 		this->_Alptr.construct(&_Left(_Wherenode), 0);

  0000a	85 c0		 test	 eax, eax
  0000c	74 06		 je	 SHORT $L192017
  0000e	c7 00 00 00 00
	00		 mov	 DWORD PTR [eax], 0
$L192017:

; 1111 : 		++_Linkcnt;
; 1112 : 		this->_Alptr.construct(&_Parent(_Wherenode), 0);

  00014	8d 48 04	 lea	 ecx, DWORD PTR [eax+4]
  00017	85 c9		 test	 ecx, ecx
  00019	74 06		 je	 SHORT $L192044
  0001b	c7 01 00 00 00
	00		 mov	 DWORD PTR [ecx], 0
$L192044:

; 1113 : 		++_Linkcnt;
; 1114 : 		this->_Alptr.construct(&_Right(_Wherenode), 0);

  00021	8d 48 08	 lea	 ecx, DWORD PTR [eax+8]
  00024	85 c9		 test	 ecx, ecx
  00026	74 06		 je	 SHORT $L192071
  00028	c7 01 00 00 00
	00		 mov	 DWORD PTR [ecx], 0
$L192071:

; 1115 : 		_CATCH_ALL
; 1116 : 		if (1 < _Linkcnt)
; 1117 : 			this->_Alptr.destroy(&_Parent(_Wherenode));
; 1118 : 		if (0 < _Linkcnt)
; 1119 : 			this->_Alptr.destroy(&_Left(_Wherenode));
; 1120 : 		this->_Alnod.deallocate(_Wherenode, 1);
; 1121 : 		_RERAISE;
; 1122 : 		_CATCH_END
; 1123 : 		_Color(_Wherenode) = _Black;

  0002e	c6 40 14 01	 mov	 BYTE PTR [eax+20], 1

; 1124 : 		_Isnil(_Wherenode) = false;

  00032	c6 40 15 00	 mov	 BYTE PTR [eax+21], 0

; 1125 : 		return (_Wherenode);
; 1126 : 		}

  00036	c3		 ret	 0
?_Buynode@?$_Tree@V?$_Tmap_traits@HPAV?$list@PAVCEventItem@@V?$allocator@PAVCEventItem@@@std@@@std@@U?$less@H@2@V?$allocator@U?$pair@$$CBHPAV?$list@PAVCEventItem@@V?$allocator@PAVCEventItem@@@std@@@std@@@std@@@2@$0A@@std@@@std@@IAEPAU_Node@?$_Tree_nod@V?$_Tmap_traits@HPAV?$list@PAVCEventItem@@V?$allocator@PAVCEventItem@@@std@@@std@@U?$less@H@2@V?$allocator@U?$pair@$$CBHPAV?$list@PAVCEventItem@@V?$allocator@PAVCEventItem@@@std@@@std@@@std@@@2@$0A@@std@@@2@XZ ENDP ; std::_Tree<std::_Tmap_traits<int,std::list<CEventItem *,std::allocator<CEventItem *> > *,std::less<int>,std::allocator<std::pair<int const ,std::list<CEventItem *,std::allocator<CEventItem *> > *> >,0> >::_Buynode
_TEXT	ENDS
PUBLIC	??0?$_Tree_ptr@V?$_Tmap_traits@HPAV?$list@PAVCEventItem@@V?$allocator@PAVCEventItem@@@std@@@std@@U?$less@H@2@V?$allocator@U?$pair@$$CBHPAV?$list@PAVCEventItem@@V?$allocator@PAVCEventItem@@@std@@@std@@@std@@@2@$0A@@std@@@std@@IAE@ABU?$less@H@1@V?$allocator@U?$pair@$$CBHPAV?$list@PAVCEventItem@@V?$allocator@PAVCEventItem@@@std@@@std@@@std@@@1@@Z ; std::_Tree_ptr<std::_Tmap_traits<int,std::list<CEventItem *,std::allocator<CEventItem *> > *,std::less<int>,std::allocator<std::pair<int const ,std::list<CEventItem *,std::allocator<CEventItem *> > *> >,0> >::_Tree_ptr<std::_Tmap_traits<int,std::list<CEventItem *,std::allocator<CEventItem *> > *,std::less<int>,std::allocator<std::pair<int const ,std::list<CEventItem *,std::allocator<CEventItem *> > *> >,0> >
; Function compile flags: /Ogty
;	COMDAT ??0?$_Tree_ptr@V?$_Tmap_traits@HPAV?$list@PAVCEventItem@@V?$allocator@PAVCEventItem@@@std@@@std@@U?$less@H@2@V?$allocator@U?$pair@$$CBHPAV?$list@PAVCEventItem@@V?$allocator@PAVCEventItem@@@std@@@std@@@std@@@2@$0A@@std@@@std@@IAE@ABU?$less@H@1@V?$allocator@U?$pair@$$CBHPAV?$list@PAVCEventItem@@V?$allocator@PAVCEventItem@@@std@@@std@@@std@@@1@@Z
_TEXT	SEGMENT
__Parg$ = 8						; size = 4
__Al$ = 12						; size = 1
??0?$_Tree_ptr@V?$_Tmap_traits@HPAV?$list@PAVCEventItem@@V?$allocator@PAVCEventItem@@@std@@@std@@U?$less@H@2@V?$allocator@U?$pair@$$CBHPAV?$list@PAVCEventItem@@V?$allocator@PAVCEventItem@@@std@@@std@@@std@@@2@$0A@@std@@@std@@IAE@ABU?$less@H@1@V?$allocator@U?$pair@$$CBHPAV?$list@PAVCEventItem@@V?$allocator@PAVCEventItem@@@std@@@std@@@std@@@1@@Z PROC NEAR ; std::_Tree_ptr<std::_Tmap_traits<int,std::list<CEventItem *,std::allocator<CEventItem *> > *,std::less<int>,std::allocator<std::pair<int const ,std::list<CEventItem *,std::allocator<CEventItem *> > *> >,0> >::_Tree_ptr<std::_Tmap_traits<int,std::list<CEventItem *,std::allocator<CEventItem *> > *,std::less<int>,std::allocator<std::pair<int const ,std::list<CEventItem *,std::allocator<CEventItem *> > *> >,0> >, COMDAT
; _this$ = ecx

; 76   : 		{	// construct base, and allocator from _Al

  00000	8b c1		 mov	 eax, ecx

; 77   : 		}

  00002	c2 08 00	 ret	 8
??0?$_Tree_ptr@V?$_Tmap_traits@HPAV?$list@PAVCEventItem@@V?$allocator@PAVCEventItem@@@std@@@std@@U?$less@H@2@V?$allocator@U?$pair@$$CBHPAV?$list@PAVCEventItem@@V?$allocator@PAVCEventItem@@@std@@@std@@@std@@@2@$0A@@std@@@std@@IAE@ABU?$less@H@1@V?$allocator@U?$pair@$$CBHPAV?$list@PAVCEventItem@@V?$allocator@PAVCEventItem@@@std@@@std@@@std@@@1@@Z ENDP ; std::_Tree_ptr<std::_Tmap_traits<int,std::list<CEventItem *,std::allocator<CEventItem *> > *,std::less<int>,std::allocator<std::pair<int const ,std::list<CEventItem *,std::allocator<CEventItem *> > *> >,0> >::_Tree_ptr<std::_Tmap_traits<int,std::list<CEventItem *,std::allocator<CEventItem *> > *,std::less<int>,std::allocator<std::pair<int const ,std::list<CEventItem *,std::allocator<CEventItem *> > *> >,0> >
_TEXT	ENDS
PUBLIC	??1?$CStringT@DV?$StrTraitMFC@DV?$ChTraitsCRT@D@ATL@@@@@ATL@@QAE@XZ ; ATL::CStringT<char,StrTraitMFC<char,ATL::ChTraitsCRT<char> > >::~CStringT<char,StrTraitMFC<char,ATL::ChTraitsCRT<char> > >
; Function compile flags: /Ogty
; File c:\program files\microsoft visual studio .net 2003\vc7\atlmfc\include\cstringt.h
;	COMDAT ??1?$CStringT@DV?$StrTraitMFC@DV?$ChTraitsCRT@D@ATL@@@@@ATL@@QAE@XZ
_TEXT	SEGMENT
??1?$CStringT@DV?$StrTraitMFC@DV?$ChTraitsCRT@D@ATL@@@@@ATL@@QAE@XZ PROC NEAR ; ATL::CStringT<char,StrTraitMFC<char,ATL::ChTraitsCRT<char> > >::~CStringT<char,StrTraitMFC<char,ATL::ChTraitsCRT<char> > >, COMDAT
; _this$ = ecx

; 963  : 	}

  00000	8b 01		 mov	 eax, DWORD PTR [ecx]
  00002	83 e8 10	 sub	 eax, 16			; 00000010H
  00005	8d 48 0c	 lea	 ecx, DWORD PTR [eax+12]
  00008	83 ca ff	 or	 edx, -1
  0000b	f0 0f c1 11	 lock	  xadd	 DWORD PTR [ecx], edx
  0000f	4a		 dec	 edx
  00010	85 d2		 test	 edx, edx
  00012	7f 08		 jg	 SHORT $L192131
  00014	8b 08		 mov	 ecx, DWORD PTR [eax]
  00016	8b 11		 mov	 edx, DWORD PTR [ecx]
  00018	50		 push	 eax
  00019	ff 52 04	 call	 DWORD PTR [edx+4]
$L192131:
  0001c	c3		 ret	 0
??1?$CStringT@DV?$StrTraitMFC@DV?$ChTraitsCRT@D@ATL@@@@@ATL@@QAE@XZ ENDP ; ATL::CStringT<char,StrTraitMFC<char,ATL::ChTraitsCRT<char> > >::~CStringT<char,StrTraitMFC<char,ATL::ChTraitsCRT<char> > >
_TEXT	ENDS
PUBLIC	??0?$CSimpleStringT@D$0A@@ATL@@QAE@ABV01@@Z	; ATL::CSimpleStringT<char,0>::CSimpleStringT<char,0>
; Function compile flags: /Ogty
; File c:\program files\microsoft visual studio .net 2003\vc7\atlmfc\include\atlsimpstr.h
;	COMDAT ??0?$CSimpleStringT@D$0A@@ATL@@QAE@ABV01@@Z
_TEXT	SEGMENT
_strSrc$ = 8						; size = 4
??0?$CSimpleStringT@D$0A@@ATL@@QAE@ABV01@@Z PROC NEAR	; ATL::CSimpleStringT<char,0>::CSimpleStringT<char,0>, COMDAT
; _this$ = ecx

; 218  : 	{
; 219  : 		CStringData* pSrcData = strSrc.GetData();

  00000	8b 44 24 04	 mov	 eax, DWORD PTR _strSrc$[esp-4]
  00004	8b 00		 mov	 eax, DWORD PTR [eax]
  00006	56		 push	 esi
  00007	83 e8 10	 sub	 eax, 16			; 00000010H

; 220  : 		CStringData* pNewData = CloneData( pSrcData );

  0000a	50		 push	 eax
  0000b	8b f1		 mov	 esi, ecx
  0000d	e8 00 00 00 00	 call	 ?CloneData@?$CSimpleStringT@D$0A@@ATL@@CAPAUCStringData@2@PAU32@@Z ; ATL::CSimpleStringT<char,0>::CloneData

; 221  : 		Attach( pNewData );

  00012	83 c0 10	 add	 eax, 16			; 00000010H
  00015	89 06		 mov	 DWORD PTR [esi], eax
  00017	83 c4 04	 add	 esp, 4

; 222  : 	}

  0001a	8b c6		 mov	 eax, esi
  0001c	5e		 pop	 esi
  0001d	c2 04 00	 ret	 4
??0?$CSimpleStringT@D$0A@@ATL@@QAE@ABV01@@Z ENDP	; ATL::CSimpleStringT<char,0>::CSimpleStringT<char,0>
_TEXT	ENDS
PUBLIC	?PrepareWrite@?$CSimpleStringT@D$0A@@ATL@@AAEPADH@Z ; ATL::CSimpleStringT<char,0>::PrepareWrite
; Function compile flags: /Ogty
;	COMDAT ?PrepareWrite@?$CSimpleStringT@D$0A@@ATL@@AAEPADH@Z
_TEXT	SEGMENT
_nLength$ = 8						; size = 4
?PrepareWrite@?$CSimpleStringT@D$0A@@ATL@@AAEPADH@Z PROC NEAR ; ATL::CSimpleStringT<char,0>::PrepareWrite, COMDAT
; _this$ = ecx

; 734  : 	{

  00000	56		 push	 esi
  00001	8b f1		 mov	 esi, ecx

; 735  : 		CStringData* pOldData = GetData();

  00003	8b 06		 mov	 eax, DWORD PTR [esi]

; 736  : 		int nShared = 1-pOldData->nRefs;  // nShared < 0 means true, >= 0 means false

  00005	8b 50 fc	 mov	 edx, DWORD PTR [eax-4]
  00008	83 e8 10	 sub	 eax, 16			; 00000010H
  0000b	b9 01 00 00 00	 mov	 ecx, 1
  00010	2b ca		 sub	 ecx, edx

; 737  : 		int nTooShort = pOldData->nAllocLength-nLength;  // nTooShort < 0 means true, >= 0 means false

  00012	8b 50 08	 mov	 edx, DWORD PTR [eax+8]
  00015	8b 44 24 08	 mov	 eax, DWORD PTR _nLength$[esp]
  00019	2b d0		 sub	 edx, eax

; 738  : 		if( (nShared|nTooShort) < 0 )  // If either sign bit is set (i.e. either is less than zero), we need to copy data

  0001b	0b ca		 or	 ecx, edx
  0001d	7d 08		 jge	 SHORT $L192152

; 739  : 		{
; 740  : 			PrepareWrite2( nLength );

  0001f	50		 push	 eax
  00020	8b ce		 mov	 ecx, esi
  00022	e8 00 00 00 00	 call	 ?PrepareWrite2@?$CSimpleStringT@D$0A@@ATL@@AAEXH@Z ; ATL::CSimpleStringT<char,0>::PrepareWrite2
$L192152:

; 741  : 		}
; 742  : 
; 743  : 		return( m_pszData );

  00027	8b 06		 mov	 eax, DWORD PTR [esi]
  00029	5e		 pop	 esi

; 744  : 	}

  0002a	c2 04 00	 ret	 4
?PrepareWrite@?$CSimpleStringT@D$0A@@ATL@@AAEPADH@Z ENDP ; ATL::CSimpleStringT<char,0>::PrepareWrite
_TEXT	ENDS
PUBLIC	?_Tidy@?$basic_string@DU?$char_traits@D@std@@V?$allocator@D@2@@std@@IAEX_NI@Z ; std::basic_string<char,std::char_traits<char>,std::allocator<char> >::_Tidy
; Function compile flags: /Ogty
; File c:\program files\microsoft visual studio .net 2003\vc7\include\xstring
;	COMDAT ?_Tidy@?$basic_string@DU?$char_traits@D@std@@V?$allocator@D@2@@std@@IAEX_NI@Z
_TEXT	SEGMENT
__Built$ = 8						; size = 1
__Newsize$ = 12						; size = 4
?_Tidy@?$basic_string@DU?$char_traits@D@std@@V?$allocator@D@2@@std@@IAEX_NI@Z PROC NEAR ; std::basic_string<char,std::char_traits<char>,std::allocator<char> >::_Tidy, COMDAT
; _this$ = ecx

; 1510 : 		if (!_Built)

  00000	8a 44 24 04	 mov	 al, BYTE PTR __Built$[esp-4]
  00004	84 c0		 test	 al, al
  00006	53		 push	 ebx
  00007	55		 push	 ebp
  00008	8b 6c 24 10	 mov	 ebp, DWORD PTR __Newsize$[esp+4]
  0000c	8b d9		 mov	 ebx, ecx
  0000e	74 2f		 je	 SHORT $L192160

; 1511 : 			;
; 1512 : 		else if (_BUF_SIZE <= _Myres)

  00010	83 7b 18 10	 cmp	 DWORD PTR [ebx+24], 16	; 00000010H
  00014	72 29		 jb	 SHORT $L192160

; 1513 : 			{	// copy any leftovers to small buffer and deallocate
; 1514 : 			_Elem *_Ptr = _Bx._Ptr;
; 1515 : 			if (0 < _Newsize)

  00016	85 ed		 test	 ebp, ebp
  00018	8b 43 04	 mov	 eax, DWORD PTR [ebx+4]
  0001b	57		 push	 edi
  0001c	8d 7b 04	 lea	 edi, DWORD PTR [ebx+4]
  0001f	76 14		 jbe	 SHORT $L192157
  00021	56		 push	 esi

; 1516 : 				_Traits::copy(_Bx._Buf, _Ptr, _Newsize);

  00022	8b cd		 mov	 ecx, ebp
  00024	8b d1		 mov	 edx, ecx
  00026	c1 e9 02	 shr	 ecx, 2
  00029	8b f0		 mov	 esi, eax
  0002b	f3 a5		 rep movsd
  0002d	8b ca		 mov	 ecx, edx
  0002f	83 e1 03	 and	 ecx, 3
  00032	f3 a4		 rep movsb
  00034	5e		 pop	 esi
$L192157:

; 1517 : 			_Mybase::_Alval.deallocate(_Ptr, _Myres + 1);

  00035	50		 push	 eax
  00036	e8 00 00 00 00	 call	 ??3@YAXPAX@Z		; operator delete
  0003b	83 c4 04	 add	 esp, 4
  0003e	5f		 pop	 edi
$L192160:

; 1518 : 			}
; 1519 : 		_Myres = _BUF_SIZE - 1;
; 1520 : 		_Eos(_Newsize);

  0003f	89 6b 14	 mov	 DWORD PTR [ebx+20], ebp
  00042	c7 43 18 0f 00
	00 00		 mov	 DWORD PTR [ebx+24], 15	; 0000000fH
  00049	c6 44 2b 04 00	 mov	 BYTE PTR [ebx+ebp+4], 0
  0004e	5d		 pop	 ebp
  0004f	5b		 pop	 ebx

; 1521 : 		}

  00050	c2 08 00	 ret	 8
?_Tidy@?$basic_string@DU?$char_traits@D@std@@V?$allocator@D@2@@std@@IAEX_NI@Z ENDP ; std::basic_string<char,std::char_traits<char>,std::allocator<char> >::_Tidy
_TEXT	ENDS
PUBLIC	?erase@?$basic_string@DU?$char_traits@D@std@@V?$allocator@D@2@@std@@QAEAAV12@II@Z ; std::basic_string<char,std::char_traits<char>,std::allocator<char> >::erase
EXTRN	?_Xran@_String_base@std@@QBEXXZ:NEAR		; std::_String_base::_Xran
; Function compile flags: /Ogty
;	COMDAT ?erase@?$basic_string@DU?$char_traits@D@std@@V?$allocator@D@2@@std@@QAEAAV12@II@Z
_TEXT	SEGMENT
__Off$ = 8						; size = 4
__Count$ = 12						; size = 4
?erase@?$basic_string@DU?$char_traits@D@std@@V?$allocator@D@2@@std@@QAEAAV12@II@Z PROC NEAR ; std::basic_string<char,std::char_traits<char>,std::allocator<char> >::erase, COMDAT
; _this$ = ecx

; 792  : 		{	// erase elements [_Off, _Off + _Count)

  00000	55		 push	 ebp

; 793  : 		if (_Mysize < _Off)

  00001	8b 6c 24 08	 mov	 ebp, DWORD PTR __Off$[esp]
  00005	56		 push	 esi
  00006	8b f1		 mov	 esi, ecx
  00008	39 6e 14	 cmp	 DWORD PTR [esi+20], ebp
  0000b	57		 push	 edi
  0000c	73 05		 jae	 SHORT $L184993

; 794  : 			_String_base::_Xran();	// _Off off end

  0000e	e8 00 00 00 00	 call	 ?_Xran@_String_base@std@@QBEXXZ ; std::_String_base::_Xran
$L184993:

; 795  : 		if (_Mysize - _Off < _Count)

  00013	8b 46 14	 mov	 eax, DWORD PTR [esi+20]
  00016	8b 7c 24 14	 mov	 edi, DWORD PTR __Count$[esp+8]
  0001a	2b c5		 sub	 eax, ebp
  0001c	3b c7		 cmp	 eax, edi
  0001e	73 02		 jae	 SHORT $L184994

; 796  : 			_Count = _Mysize - _Off;	// trim _Count

  00020	8b f8		 mov	 edi, eax
$L184994:

; 797  : 		if (0 < _Count)

  00022	85 ff		 test	 edi, edi
  00024	76 47		 jbe	 SHORT $L192224

; 798  : 			{	// move elements down
; 799  : 			_Traits::move(_Myptr() + _Off, _Myptr() + _Off + _Count,
; 800  : 				_Mysize - _Off - _Count);

  00026	8b 4e 18	 mov	 ecx, DWORD PTR [esi+24]
  00029	83 f9 10	 cmp	 ecx, 16			; 00000010H
  0002c	53		 push	 ebx
  0002d	8d 5e 04	 lea	 ebx, DWORD PTR [esi+4]
  00030	72 04		 jb	 SHORT $L192190
  00032	8b 13		 mov	 edx, DWORD PTR [ebx]
  00034	eb 02		 jmp	 SHORT $L192191
$L192190:
  00036	8b d3		 mov	 edx, ebx
$L192191:
  00038	83 f9 10	 cmp	 ecx, 16			; 00000010H
  0003b	72 04		 jb	 SHORT $L192197
  0003d	8b 0b		 mov	 ecx, DWORD PTR [ebx]
  0003f	eb 02		 jmp	 SHORT $L192198
$L192197:
  00041	8b cb		 mov	 ecx, ebx
$L192198:
  00043	2b c7		 sub	 eax, edi

; 803  : 			}
; 804  : 		return (*this);

  00045	03 d5		 add	 edx, ebp
  00047	50		 push	 eax
  00048	03 d7		 add	 edx, edi
  0004a	52		 push	 edx
  0004b	03 cd		 add	 ecx, ebp
  0004d	51		 push	 ecx
  0004e	e8 00 00 00 00	 call	 _memmove
  00053	8b 46 14	 mov	 eax, DWORD PTR [esi+20]
  00056	8b 4e 18	 mov	 ecx, DWORD PTR [esi+24]
  00059	2b c7		 sub	 eax, edi
  0005b	83 c4 0c	 add	 esp, 12			; 0000000cH
  0005e	83 f9 10	 cmp	 ecx, 16			; 00000010H
  00061	89 46 14	 mov	 DWORD PTR [esi+20], eax
  00064	72 02		 jb	 SHORT $L192221

; 801  : 			size_type _Newsize = _Mysize - _Count;
; 802  : 			_Eos(_Newsize);

  00066	8b 1b		 mov	 ebx, DWORD PTR [ebx]
$L192221:
  00068	c6 04 03 00	 mov	 BYTE PTR [ebx+eax], 0
  0006c	5b		 pop	 ebx
$L192224:
  0006d	5f		 pop	 edi

; 803  : 			}
; 804  : 		return (*this);

  0006e	8b c6		 mov	 eax, esi
  00070	5e		 pop	 esi
  00071	5d		 pop	 ebp

; 805  : 		}

  00072	c2 08 00	 ret	 8
?erase@?$basic_string@DU?$char_traits@D@std@@V?$allocator@D@2@@std@@QAEAAV12@II@Z ENDP ; std::basic_string<char,std::char_traits<char>,std::allocator<char> >::erase
_TEXT	ENDS
PUBLIC	?_Copy@?$basic_string@DU?$char_traits@D@std@@V?$allocator@D@2@@std@@IAEXII@Z ; std::basic_string<char,std::char_traits<char>,std::allocator<char> >::_Copy
;	COMDAT xdata$x
; File c:\program files\microsoft visual studio .net 2003\vc7\include\iosfwd
xdata$x	SEGMENT
$T192427 DD	0ffffffffH
	DD	00H
	DD	0ffffffffH
	DD	00H
	DD	01H
	DD	00H
	DD	01H
	DD	00H
$T192429 DD	00H
	DD	00H
	DD	00H
	DD	FLAT:$L192230
$T192430 DD	00H
	DD	00H
	DD	00H
	DD	FLAT:$L192228
$T192428 DD	02H
	DD	02H
	DD	03H
	DD	01H
	DD	FLAT:$T192429
	DD	00H
	DD	00H
	DD	03H
	DD	01H
	DD	FLAT:$T192430
$T192422 DD	019930520H
	DD	04H
	DD	FLAT:$T192427
	DD	02H
	DD	FLAT:$T192428
	DD	2 DUP(00H)
; Function compile flags: /Ogty
; File c:\program files\microsoft visual studio .net 2003\vc7\include\xstring
xdata$x	ENDS
;	COMDAT ?_Copy@?$basic_string@DU?$char_traits@D@std@@V?$allocator@D@2@@std@@IAEXII@Z
_TEXT	SEGMENT
__Newres$ = -24						; size = 4
_this$ = -20						; size = 4
__$EHRec$ = -16						; size = 16
__Ptr$ = 8						; size = 4
__Newsize$ = 8						; size = 4
__Oldlen$ = 12						; size = 4
?_Copy@?$basic_string@DU?$char_traits@D@std@@V?$allocator@D@2@@std@@IAEXII@Z PROC NEAR ; std::basic_string<char,std::char_traits<char>,std::allocator<char> >::_Copy, COMDAT
; _this$ = ecx

; 1444 : 		{	// copy _Oldlen elements to newly allocated buffer

  00000	55		 push	 ebp
  00001	8b ec		 mov	 ebp, esp
  00003	6a ff		 push	 -1
  00005	68 00 00 00 00	 push	 __ehhandler$?_Copy@?$basic_string@DU?$char_traits@D@std@@V?$allocator@D@2@@std@@IAEXII@Z
  0000a	64 a1 00 00 00
	00		 mov	 eax, DWORD PTR fs:__except_list
  00010	50		 push	 eax
  00011	64 89 25 00 00
	00 00		 mov	 DWORD PTR fs:__except_list, esp
  00018	83 ec 0c	 sub	 esp, 12			; 0000000cH

; 1445 : 		size_type _Newres = _Newsize | _ALLOC_MASK;

  0001b	8b 45 08	 mov	 eax, DWORD PTR __Newsize$[ebp]
  0001e	53		 push	 ebx
  0001f	56		 push	 esi
  00020	8b d8		 mov	 ebx, eax
  00022	83 cb 0f	 or	 ebx, 15			; 0000000fH

; 1446 : 		if (max_size() < _Newres)

  00025	83 fb fe	 cmp	 ebx, -2			; fffffffeH
  00028	57		 push	 edi
  00029	8b f1		 mov	 esi, ecx
  0002b	89 65 f0	 mov	 DWORD PTR __$EHRec$[ebp], esp
  0002e	89 75 ec	 mov	 DWORD PTR _this$[ebp], esi
  00031	76 04		 jbe	 SHORT $L185550

; 1447 : 			_Newres = _Newsize;	// undo roundup if too big

  00033	8b d8		 mov	 ebx, eax

; 1448 : 		else if (_Newres / 3 < _Myres / 2

  00035	eb 22		 jmp	 SHORT $L185552
$L185550:

; 1449 : 			&& _Myres <= max_size() - _Myres / 2)

  00037	8b 7e 18	 mov	 edi, DWORD PTR [esi+24]
  0003a	b8 ab aa aa aa	 mov	 eax, -1431655765	; aaaaaaabH
  0003f	f7 e3		 mul	 ebx
  00041	8b cf		 mov	 ecx, edi
  00043	d1 e9		 shr	 ecx, 1
  00045	d1 ea		 shr	 edx, 1
  00047	3b d1		 cmp	 edx, ecx
  00049	73 0e		 jae	 SHORT $L185552
  0004b	b8 fe ff ff ff	 mov	 eax, -2			; fffffffeH
  00050	2b c1		 sub	 eax, ecx
  00052	3b f8		 cmp	 edi, eax
  00054	77 03		 ja	 SHORT $L185552

; 1450 : 			_Newres = _Myres + _Myres / 2;	// grow exponentially if possible

  00056	8d 1c 39	 lea	 ebx, DWORD PTR [ecx+edi]
$L185552:

; 1451 : 		_Elem *_Ptr;
; 1452 : 
; 1453 : 		_TRY_BEGIN
; 1454 : 			_Ptr = _Mybase::_Alval.allocate(_Newres + 1);

  00059	8d 4b 01	 lea	 ecx, DWORD PTR [ebx+1]
  0005c	51		 push	 ecx
  0005d	c7 45 fc 00 00
	00 00		 mov	 DWORD PTR __$EHRec$[ebp+12], 0
  00064	e8 00 00 00 00	 call	 ??2@YAPAXI@Z		; operator new
  00069	8b d0		 mov	 edx, eax
  0006b	83 c4 04	 add	 esp, 4
  0006e	89 55 08	 mov	 DWORD PTR __Ptr$[ebp], edx
  00071	eb 29		 jmp	 SHORT $L185554
$L192228:

; 1455 : 		_CATCH_ALL
; 1456 : 			_Newres = _Newsize;	// allocation failed, undo roundup and retry

  00073	8b 45 08	 mov	 eax, DWORD PTR __Newsize$[ebp]
  00076	89 45 e8	 mov	 DWORD PTR __Newres$[ebp], eax

; 1457 : 			_TRY_BEGIN
; 1458 : 				_Ptr = _Mybase::_Alval.allocate(_Newres + 1);

  00079	40		 inc	 eax
  0007a	89 65 f0	 mov	 DWORD PTR __$EHRec$[ebp], esp
  0007d	50		 push	 eax
  0007e	c6 45 fc 02	 mov	 BYTE PTR __$EHRec$[ebp+12], 2
  00082	e8 00 00 00 00	 call	 ??2@YAPAXI@Z		; operator new
  00087	89 45 08	 mov	 DWORD PTR __Ptr$[ebp], eax
  0008a	83 c4 04	 add	 esp, 4

; 1462 : 			_CATCH_END
; 1463 : 		_CATCH_END

  0008d	b8 00 00 00 00	 mov	 eax, $L192423
  00092	c3		 ret	 0
$L192423:
  00093	8b 5d e8	 mov	 ebx, DWORD PTR __Newres$[ebp]
  00096	8b 75 ec	 mov	 esi, DWORD PTR _this$[ebp]
  00099	8b 55 08	 mov	 edx, DWORD PTR __Ptr$[ebp]
$L185554:

; 1464 : 
; 1465 : 		if (0 < _Oldlen)

  0009c	8b 4d 0c	 mov	 ecx, DWORD PTR __Oldlen$[ebp]
  0009f	85 c9		 test	 ecx, ecx
  000a1	76 24		 jbe	 SHORT $L192348

; 1466 : 			_Traits::copy(_Ptr, _Myptr(), _Oldlen);	// copy existing elements

  000a3	83 7e 18 10	 cmp	 DWORD PTR [esi+24], 16	; 00000010H
  000a7	72 05		 jb	 SHORT $L192344
  000a9	8b 76 04	 mov	 esi, DWORD PTR [esi+4]
  000ac	eb 03		 jmp	 SHORT $L192345
$L192344:
  000ae	83 c6 04	 add	 esi, 4
$L192345:
  000b1	8b c1		 mov	 eax, ecx
  000b3	c1 e9 02	 shr	 ecx, 2
  000b6	8b fa		 mov	 edi, edx
  000b8	f3 a5		 rep movsd
  000ba	8b c8		 mov	 ecx, eax
  000bc	83 e1 03	 and	 ecx, 3
  000bf	f3 a4		 rep movsb
  000c1	8b 75 ec	 mov	 esi, DWORD PTR _this$[ebp]
  000c4	8b 4d 0c	 mov	 ecx, DWORD PTR __Oldlen$[ebp]
$L192348:

; 1467 : 		_Tidy(true);

  000c7	83 7e 18 10	 cmp	 DWORD PTR [esi+24], 16	; 00000010H
  000cb	72 12		 jb	 SHORT $L192389
  000cd	8b 4e 04	 mov	 ecx, DWORD PTR [esi+4]
  000d0	51		 push	 ecx
  000d1	e8 00 00 00 00	 call	 ??3@YAXPAX@Z		; operator delete
  000d6	8b 55 08	 mov	 edx, DWORD PTR __Ptr$[ebp]
  000d9	8b 4d 0c	 mov	 ecx, DWORD PTR __Oldlen$[ebp]
  000dc	83 c4 04	 add	 esp, 4
$L192389:

; 1468 : 		_Bx._Ptr = _Ptr;
; 1469 : 		_Myres = _Newres;
; 1470 : 		_Eos(_Oldlen);

  000df	83 fb 10	 cmp	 ebx, 16			; 00000010H
  000e2	8d 46 04	 lea	 eax, DWORD PTR [esi+4]
  000e5	c6 00 00	 mov	 BYTE PTR [eax], 0
  000e8	89 10		 mov	 DWORD PTR [eax], edx
  000ea	89 5e 18	 mov	 DWORD PTR [esi+24], ebx
  000ed	89 4e 14	 mov	 DWORD PTR [esi+20], ecx
  000f0	72 02		 jb	 SHORT $L192418
  000f2	8b c2		 mov	 eax, edx
$L192418:

; 1471 : 		}

  000f4	5f		 pop	 edi
  000f5	c6 04 08 00	 mov	 BYTE PTR [eax+ecx], 0
  000f9	8b 4d f4	 mov	 ecx, DWORD PTR __$EHRec$[ebp+4]
  000fc	5e		 pop	 esi
  000fd	64 89 0d 00 00
	00 00		 mov	 DWORD PTR fs:__except_list, ecx
  00104	5b		 pop	 ebx
  00105	8b e5		 mov	 esp, ebp
  00107	5d		 pop	 ebp
  00108	c2 08 00	 ret	 8
$L192230:

; 1459 : 			_CATCH_ALL
; 1460 : 			_Tidy(true);	// failed again, discard storage and reraise

  0010b	8b 75 ec	 mov	 esi, DWORD PTR _this$[ebp]
  0010e	83 7e 18 10	 cmp	 DWORD PTR [esi+24], 16	; 00000010H
  00112	72 0c		 jb	 SHORT $L192328
  00114	8b 56 04	 mov	 edx, DWORD PTR [esi+4]
  00117	52		 push	 edx
  00118	e8 00 00 00 00	 call	 ??3@YAXPAX@Z		; operator delete
  0011d	83 c4 04	 add	 esp, 4
$L192328:

; 1461 : 			_RERAISE;

  00120	6a 00		 push	 0
  00122	c7 46 18 0f 00
	00 00		 mov	 DWORD PTR [esi+24], 15	; 0000000fH
  00129	c7 46 14 00 00
	00 00		 mov	 DWORD PTR [esi+20], 0
  00130	6a 00		 push	 0
  00132	c6 46 04 00	 mov	 BYTE PTR [esi+4], 0
  00136	e8 00 00 00 00	 call	 __CxxThrowException@8
$L192426:
  0013b	cc		 int	 3
_TEXT	ENDS
;	COMDAT text$x
text$x	SEGMENT
__ehhandler$?_Copy@?$basic_string@DU?$char_traits@D@std@@V?$allocator@D@2@@std@@IAEXII@Z:
  00000	b8 00 00 00 00	 mov	 eax, OFFSET FLAT:$T192422
  00005	e9 00 00 00 00	 jmp	 ___CxxFrameHandler
text$x	ENDS
?_Copy@?$basic_string@DU?$char_traits@D@std@@V?$allocator@D@2@@std@@IAEXII@Z ENDP ; std::basic_string<char,std::char_traits<char>,std::allocator<char> >::_Copy
PUBLIC	?Run@CEventGeneric@@QAEHXZ			; CEventGeneric::Run
PUBLIC	??_C@_0DM@PNNFMCGB@m_dwFlag?$DN0x?$CF08x?0?5nId?$DN?$CFd?0?5tStart?$DN@ ; `string'
EXTRN	__imp__OutputDebugStringA@4:NEAR
EXTRN	_sprintf:NEAR
;	COMDAT ??_C@_0DM@PNNFMCGB@m_dwFlag?$DN0x?$CF08x?0?5nId?$DN?$CFd?0?5tStart?$DN@
; File c:\documents and settings\test\mes documents\source\virtuos_v17\build\program\_network\cmnhdr.h
CONST	SEGMENT
??_C@_0DM@PNNFMCGB@m_dwFlag?$DN0x?$CF08x?0?5nId?$DN?$CFd?0?5tStart?$DN@ DB 'm'
	DB	'_dwFlag=0x%08x, nId=%d, tStart=%d, tEnd=%d, t=%d, nFlag=%d', 00H ; `string'
; Function compile flags: /Ogty
; File c:\documents and settings\test\mes documents\source\virtuos_v17\build\program\_common\spevent.cpp
CONST	ENDS
;	COMDAT ?Run@CEventGeneric@@QAEHXZ
_TEXT	SEGMENT
_i$188859 = -536					; size = 4
_f$ = -532						; size = 4
_bEvent$188866 = -528					; size = 4
_t$ = -524						; size = 4
_lpOutputString$188867 = -520				; size = 512
__$ArrayPad$ = -4					; size = 4
__$ReturnAddr$ = 4					; size = 4
?Run@CEventGeneric@@QAEHXZ PROC NEAR			; CEventGeneric::Run, COMDAT
; _this$ = ecx

; 468  : {

  00000	55		 push	 ebp
  00001	8b ec		 mov	 ebp, esp
  00003	83 e4 f8	 and	 esp, -8			; fffffff8H
  00006	81 ec 1c 02 00
	00		 sub	 esp, 540		; 0000021cH
  0000c	a1 00 00 00 00	 mov	 eax, DWORD PTR ___security_cookie
  00011	53		 push	 ebx
  00012	56		 push	 esi

; 469  : 	BOOL f	= FALSE;

  00013	33 f6		 xor	 esi, esi
  00015	33 c5		 xor	 eax, ebp
  00017	57		 push	 edi

; 470  : 	time_t t	= time_null();

  00018	56		 push	 esi
  00019	89 84 24 28 02
	00 00		 mov	 DWORD PTR __$ArrayPad$[esp+556], eax
  00020	8b d9		 mov	 ebx, ecx
  00022	89 74 24 18	 mov	 DWORD PTR _f$[esp+556], esi
  00026	e8 00 00 00 00	 call	 _time

; 471  : 	for( list<EVENT_GENERIC*>::iterator i = m_lspEvent.begin(); i != m_lspEvent.end(); ++i )

  0002b	8b 4b 0c	 mov	 ecx, DWORD PTR [ebx+12]
  0002e	8b 11		 mov	 edx, DWORD PTR [ecx]
  00030	83 c4 04	 add	 esp, 4
  00033	3b d1		 cmp	 edx, ecx
  00035	89 44 24 1c	 mov	 DWORD PTR _t$[esp+552], eax
  00039	89 54 24 10	 mov	 DWORD PTR _i$188859[esp+552], edx
  0003d	75 21		 jne	 SHORT $L192472

; 489  : 		}
; 490  : 	}
; 491  : 	return f;

  0003f	8b c6		 mov	 eax, esi

; 492  : }

  00041	5f		 pop	 edi
  00042	5e		 pop	 esi
  00043	5b		 pop	 ebx
  00044	8b 8c 24 18 02
	00 00		 mov	 ecx, DWORD PTR __$ArrayPad$[esp+540]
  0004b	33 cd		 xor	 ecx, ebp
  0004d	e8 00 00 00 00	 call	 @__security_check_cookie@4
  00052	8b e5		 mov	 esp, ebp
  00054	5d		 pop	 ebp
  00055	c3		 ret	 0
$L192525:

; 471  : 	for( list<EVENT_GENERIC*>::iterator i = m_lspEvent.begin(); i != m_lspEvent.end(); ++i )

  00056	8b 54 24 10	 mov	 edx, DWORD PTR _i$188859[esp+552]
  0005a	8b 44 24 1c	 mov	 eax, DWORD PTR _t$[esp+552]
  0005e	8b ff		 npad	 2
$L192472:

; 472  : 	{
; 473  : 		PEVENT_GENERIC pEvent	= *i;

  00060	8b 72 08	 mov	 esi, DWORD PTR [edx+8]

; 474  : 		BOOL bEvent	= ( t >= pEvent->tStart && t < pEvent->tEnd );

  00063	3b 46 08	 cmp	 eax, DWORD PTR [esi+8]
  00066	7c 0d		 jl	 SHORT $L192436
  00068	3b 46 0c	 cmp	 eax, DWORD PTR [esi+12]
  0006b	c7 44 24 18 01
	00 00 00	 mov	 DWORD PTR _bEvent$188866[esp+552], 1
  00073	7c 08		 jl	 SHORT $L192437
$L192436:
  00075	c7 44 24 18 00
	00 00 00	 mov	 DWORD PTR _bEvent$188866[esp+552], 0
$L192437:

; 475  : 		// 
; 476  : 		char lpOutputString[512]	= { 0, };

  0007d	c6 44 24 20 00	 mov	 BYTE PTR _lpOutputString$188867[esp+552], 0
  00082	33 c0		 xor	 eax, eax
  00084	b9 7f 00 00 00	 mov	 ecx, 127		; 0000007fH
  00089	8d 7c 24 21	 lea	 edi, DWORD PTR _lpOutputString$188867[esp+553]
  0008d	f3 ab		 rep stosd
  0008f	66 ab		 stosw

; 477  : 		sprintf( lpOutputString, "m_dwFlag=0x%08x, nId=%d, tStart=%d, tEnd=%d, t=%d, nFlag=%d", m_dwFlag, pEvent->nId, pEvent->tStart, pEvent->tEnd, time_null(), pEvent->nFlag );

  00091	6a 00		 push	 0
  00093	aa		 stosb
  00094	e8 00 00 00 00	 call	 _time
  00099	8b 4e 04	 mov	 ecx, DWORD PTR [esi+4]
  0009c	8b 56 0c	 mov	 edx, DWORD PTR [esi+12]
  0009f	51		 push	 ecx
  000a0	8b 0e		 mov	 ecx, DWORD PTR [esi]
  000a2	50		 push	 eax
  000a3	8b 46 08	 mov	 eax, DWORD PTR [esi+8]
  000a6	52		 push	 edx
  000a7	8b 53 04	 mov	 edx, DWORD PTR [ebx+4]
  000aa	50		 push	 eax
  000ab	51		 push	 ecx
  000ac	52		 push	 edx
  000ad	8d 44 24 3c	 lea	 eax, DWORD PTR _lpOutputString$188867[esp+580]
  000b1	68 00 00 00 00	 push	 OFFSET FLAT:??_C@_0DM@PNNFMCGB@m_dwFlag?$DN0x?$CF08x?0?5nId?$DN?$CFd?0?5tStart?$DN@
  000b6	50		 push	 eax
  000b7	e8 00 00 00 00	 call	 _sprintf
  000bc	83 c4 24	 add	 esp, 36			; 00000024H

; 478  : 		OutputDebugString( lpOutputString );

  000bf	8d 4c 24 20	 lea	 ecx, DWORD PTR _lpOutputString$188867[esp+552]
  000c3	51		 push	 ecx
  000c4	ff 15 00 00 00
	00		 call	 DWORD PTR __imp__OutputDebugStringA@4

; 479  : 
; 480  : 		if( bEvent && !( m_dwFlag & pEvent->nFlag ) )

  000ca	8b 44 24 18	 mov	 eax, DWORD PTR _bEvent$188866[esp+552]
  000ce	8b 76 04	 mov	 esi, DWORD PTR [esi+4]
  000d1	85 c0		 test	 eax, eax
  000d3	8b 43 04	 mov	 eax, DWORD PTR [ebx+4]
  000d6	74 0b		 je	 SHORT $L192523
  000d8	85 c6		 test	 eax, esi
  000da	75 1a		 jne	 SHORT $L188863

; 481  : 		{
; 482  : 			m_dwFlag	|= pEvent->nFlag;

  000dc	0b c6		 or	 eax, esi
  000de	89 43 04	 mov	 DWORD PTR [ebx+4], eax

; 483  : 			f	= TRUE;
; 484  : 		}
; 485  : 		else if( !bEvent && ( m_dwFlag & pEvent->nFlag ) )

  000e1	eb 0b		 jmp	 SHORT $L192527
$L192523:
  000e3	85 c6		 test	 eax, esi
  000e5	74 0f		 je	 SHORT $L188863

; 486  : 		{
; 487  : 			m_dwFlag	&= ~pEvent->nFlag;

  000e7	f7 d6		 not	 esi
  000e9	23 f0		 and	 esi, eax
  000eb	89 73 04	 mov	 DWORD PTR [ebx+4], esi
$L192527:

; 488  : 			f	= TRUE;

  000ee	c7 44 24 14 01
	00 00 00	 mov	 DWORD PTR _f$[esp+552], 1
$L188863:

; 471  : 	for( list<EVENT_GENERIC*>::iterator i = m_lspEvent.begin(); i != m_lspEvent.end(); ++i )

  000f6	8b 54 24 10	 mov	 edx, DWORD PTR _i$188859[esp+552]
  000fa	8b 02		 mov	 eax, DWORD PTR [edx]
  000fc	3b 43 0c	 cmp	 eax, DWORD PTR [ebx+12]
  000ff	89 44 24 10	 mov	 DWORD PTR _i$188859[esp+552], eax
  00103	0f 85 4d ff ff
	ff		 jne	 $L192525

; 492  : }

  00109	8b 8c 24 24 02
	00 00		 mov	 ecx, DWORD PTR __$ArrayPad$[esp+552]
  00110	8b 44 24 14	 mov	 eax, DWORD PTR _f$[esp+552]
  00114	5f		 pop	 edi
  00115	5e		 pop	 esi
  00116	33 cd		 xor	 ecx, ebp
  00118	5b		 pop	 ebx
  00119	e8 00 00 00 00	 call	 @__security_check_cookie@4
  0011e	8b e5		 mov	 esp, ebp
  00120	5d		 pop	 ebp
  00121	c3		 ret	 0
?Run@CEventGeneric@@QAEHXZ ENDP				; CEventGeneric::Run
_TEXT	ENDS
PUBLIC	?GetEvent@CEventGeneric@@QAEPAU_EVENT_GENERIC@@H@Z ; CEventGeneric::GetEvent
; Function compile flags: /Ogty
;	COMDAT ?GetEvent@CEventGeneric@@QAEPAU_EVENT_GENERIC@@H@Z
_TEXT	SEGMENT
_nEvent$ = 8						; size = 4
?GetEvent@CEventGeneric@@QAEPAU_EVENT_GENERIC@@H@Z PROC NEAR ; CEventGeneric::GetEvent, COMDAT
; _this$ = ecx

; 496  : 	for( list<EVENT_GENERIC*>::iterator i = m_lspEvent.begin(); i != m_lspEvent.end(); ++i )

  00000	8b 51 0c	 mov	 edx, DWORD PTR [ecx+12]
  00003	8b 0a		 mov	 ecx, DWORD PTR [edx]
  00005	3b ca		 cmp	 ecx, edx
  00007	56		 push	 esi
  00008	74 13		 je	 SHORT $L188882
  0000a	8b 74 24 08	 mov	 esi, DWORD PTR _nEvent$[esp]
  0000e	8b ff		 npad	 2
$L192566:

; 497  : 	{
; 498  : 		PEVENT_GENERIC pEvent	= *i;

  00010	8b 41 08	 mov	 eax, DWORD PTR [ecx+8]

; 499  : 		if( pEvent->nId == nEvent )

  00013	39 30		 cmp	 DWORD PTR [eax], esi
  00015	74 08		 je	 SHORT $L188875
  00017	8b 09		 mov	 ecx, DWORD PTR [ecx]
  00019	3b ca		 cmp	 ecx, edx
  0001b	75 f3		 jne	 SHORT $L192566
$L188882:

; 500  : 			return pEvent;
; 501  : 	}
; 502  : 	return NULL;

  0001d	33 c0		 xor	 eax, eax
$L188875:
  0001f	5e		 pop	 esi

; 503  : }

  00020	c2 04 00	 ret	 4
?GetEvent@CEventGeneric@@QAEPAU_EVENT_GENERIC@@H@Z ENDP	; CEventGeneric::GetEvent
_TEXT	ENDS
PUBLIC	??1?$list@PAU_EVENT_GENERIC@@V?$allocator@PAU_EVENT_GENERIC@@@std@@@std@@QAE@XZ ; std::list<_EVENT_GENERIC *,std::allocator<_EVENT_GENERIC *> >::~list<_EVENT_GENERIC *,std::allocator<_EVENT_GENERIC *> >
; Function compile flags: /Ogty
; File c:\program files\microsoft visual studio .net 2003\vc7\include\list
;	COMDAT ??1?$list@PAU_EVENT_GENERIC@@V?$allocator@PAU_EVENT_GENERIC@@@std@@@std@@QAE@XZ
_TEXT	SEGMENT
??1?$list@PAU_EVENT_GENERIC@@V?$allocator@PAU_EVENT_GENERIC@@@std@@@std@@QAE@XZ PROC NEAR ; std::list<_EVENT_GENERIC *,std::allocator<_EVENT_GENERIC *> >::~list<_EVENT_GENERIC *,std::allocator<_EVENT_GENERIC *> >, COMDAT
; _this$ = ecx

; 364  : 		{	// destroy the object

  00000	56		 push	 esi
  00001	8b f1		 mov	 esi, ecx

; 365  : 		_Tidy();

  00003	e8 00 00 00 00	 call	 ?clear@?$list@PAU_EVENT_GENERIC@@V?$allocator@PAU_EVENT_GENERIC@@@std@@@std@@QAEXXZ ; std::list<_EVENT_GENERIC *,std::allocator<_EVENT_GENERIC *> >::clear
  00008	8b 46 04	 mov	 eax, DWORD PTR [esi+4]
  0000b	50		 push	 eax
  0000c	e8 00 00 00 00	 call	 ??3@YAXPAX@Z		; operator delete
  00011	83 c4 04	 add	 esp, 4
  00014	c7 46 04 00 00
	00 00		 mov	 DWORD PTR [esi+4], 0
  0001b	5e		 pop	 esi

; 366  : 		}

  0001c	c3		 ret	 0
??1?$list@PAU_EVENT_GENERIC@@V?$allocator@PAU_EVENT_GENERIC@@@std@@@std@@QAE@XZ ENDP ; std::list<_EVENT_GENERIC *,std::allocator<_EVENT_GENERIC *> >::~list<_EVENT_GENERIC *,std::allocator<_EVENT_GENERIC *> >
_TEXT	ENDS
PUBLIC	?clear@?$_Tree@V?$_Tmap_traits@HPAV?$list@PAVCEventItem@@V?$allocator@PAVCEventItem@@@std@@@std@@U?$less@H@2@V?$allocator@U?$pair@$$CBHPAV?$list@PAVCEventItem@@V?$allocator@PAVCEventItem@@@std@@@std@@@std@@@2@$0A@@std@@@std@@QAEXXZ ; std::_Tree<std::_Tmap_traits<int,std::list<CEventItem *,std::allocator<CEventItem *> > *,std::less<int>,std::allocator<std::pair<int const ,std::list<CEventItem *,std::allocator<CEventItem *> > *> >,0> >::clear
; Function compile flags: /Ogty
; File c:\program files\microsoft visual studio .net 2003\vc7\include\xtree
;	COMDAT ?clear@?$_Tree@V?$_Tmap_traits@HPAV?$list@PAVCEventItem@@V?$allocator@PAVCEventItem@@@std@@@std@@U?$less@H@2@V?$allocator@U?$pair@$$CBHPAV?$list@PAVCEventItem@@V?$allocator@PAVCEventItem@@@std@@@std@@@std@@@2@$0A@@std@@@std@@QAEXXZ
_TEXT	SEGMENT
?clear@?$_Tree@V?$_Tmap_traits@HPAV?$list@PAVCEventItem@@V?$allocator@PAVCEventItem@@@std@@@std@@U?$less@H@2@V?$allocator@U?$pair@$$CBHPAV?$list@PAVCEventItem@@V?$allocator@PAVCEventItem@@@std@@@std@@@std@@@2@$0A@@std@@@std@@QAEXXZ PROC NEAR ; std::_Tree<std::_Tmap_traits<int,std::list<CEventItem *,std::allocator<CEventItem *> > *,std::less<int>,std::allocator<std::pair<int const ,std::list<CEventItem *,std::allocator<CEventItem *> > *> >,0> >::clear, COMDAT
; _this$ = ecx

; 780  : 		{	// erase all

  00000	56		 push	 esi
  00001	8b f1		 mov	 esi, ecx

; 781  : 		_Erase(_Root());

  00003	8b 46 04	 mov	 eax, DWORD PTR [esi+4]
  00006	8b 48 04	 mov	 ecx, DWORD PTR [eax+4]
  00009	51		 push	 ecx
  0000a	8b ce		 mov	 ecx, esi
  0000c	e8 00 00 00 00	 call	 ?_Erase@?$_Tree@V?$_Tmap_traits@HPAV?$list@PAVCEventItem@@V?$allocator@PAVCEventItem@@@std@@@std@@U?$less@H@2@V?$allocator@U?$pair@$$CBHPAV?$list@PAVCEventItem@@V?$allocator@PAVCEventItem@@@std@@@std@@@std@@@2@$0A@@std@@@std@@IAEXPAU_Node@?$_Tree_nod@V?$_Tmap_traits@HPAV?$list@PAVCEventItem@@V?$allocator@PAVCEventItem@@@std@@@std@@U?$less@H@2@V?$allocator@U?$pair@$$CBHPAV?$list@PAVCEventItem@@V?$allocator@PAVCEventItem@@@std@@@std@@@std@@@2@$0A@@std@@@2@@Z ; std::_Tree<std::_Tmap_traits<int,std::list<CEventItem *,std::allocator<CEventItem *> > *,std::less<int>,std::allocator<std::pair<int const ,std::list<CEventItem *,std::allocator<CEventItem *> > *> >,0> >::_Erase

; 782  : 		_Root() = _Myhead, _Mysize = 0;

  00011	8b 46 04	 mov	 eax, DWORD PTR [esi+4]
  00014	89 40 04	 mov	 DWORD PTR [eax+4], eax

; 783  : 		_Lmost() = _Myhead, _Rmost() = _Myhead;

  00017	8b 46 04	 mov	 eax, DWORD PTR [esi+4]
  0001a	c7 46 08 00 00
	00 00		 mov	 DWORD PTR [esi+8], 0
  00021	89 00		 mov	 DWORD PTR [eax], eax
  00023	8b 76 04	 mov	 esi, DWORD PTR [esi+4]
  00026	89 76 08	 mov	 DWORD PTR [esi+8], esi
  00029	5e		 pop	 esi

; 784  : 		}

  0002a	c3		 ret	 0
?clear@?$_Tree@V?$_Tmap_traits@HPAV?$list@PAVCEventItem@@V?$allocator@PAVCEventItem@@@std@@@std@@U?$less@H@2@V?$allocator@U?$pair@$$CBHPAV?$list@PAVCEventItem@@V?$allocator@PAVCEventItem@@@std@@@std@@@std@@@2@$0A@@std@@@std@@QAEXXZ ENDP ; std::_Tree<std::_Tmap_traits<int,std::list<CEventItem *,std::allocator<CEventItem *> > *,std::less<int>,std::allocator<std::pair<int const ,std::list<CEventItem *,std::allocator<CEventItem *> > *> >,0> >::clear
_TEXT	ENDS
PUBLIC	?find@?$_Tree@V?$_Tmap_traits@HPAV?$list@PAVCEventItem@@V?$allocator@PAVCEventItem@@@std@@@std@@U?$less@H@2@V?$allocator@U?$pair@$$CBHPAV?$list@PAVCEventItem@@V?$allocator@PAVCEventItem@@@std@@@std@@@std@@@2@$0A@@std@@@std@@QAE?AViterator@12@ABH@Z ; std::_Tree<std::_Tmap_traits<int,std::list<CEventItem *,std::allocator<CEventItem *> > *,std::less<int>,std::allocator<std::pair<int const ,std::list<CEventItem *,std::allocator<CEventItem *> > *> >,0> >::find
; Function compile flags: /Ogty
;	COMDAT ?find@?$_Tree@V?$_Tmap_traits@HPAV?$list@PAVCEventItem@@V?$allocator@PAVCEventItem@@@std@@@std@@U?$less@H@2@V?$allocator@U?$pair@$$CBHPAV?$list@PAVCEventItem@@V?$allocator@PAVCEventItem@@@std@@@std@@@std@@@2@$0A@@std@@@std@@QAE?AViterator@12@ABH@Z
_TEXT	SEGMENT
$T192671 = -4						; size = 4
___$ReturnUdt$ = 8					; size = 4
__Where$ = 12						; size = 4
__Keyval$ = 12						; size = 4
?find@?$_Tree@V?$_Tmap_traits@HPAV?$list@PAVCEventItem@@V?$allocator@PAVCEventItem@@@std@@@std@@U?$less@H@2@V?$allocator@U?$pair@$$CBHPAV?$list@PAVCEventItem@@V?$allocator@PAVCEventItem@@@std@@@std@@@std@@@2@$0A@@std@@@std@@QAE?AViterator@12@ABH@Z PROC NEAR ; std::_Tree<std::_Tmap_traits<int,std::list<CEventItem *,std::allocator<CEventItem *> > *,std::less<int>,std::allocator<std::pair<int const ,std::list<CEventItem *,std::allocator<CEventItem *> > *> >,0> >::find, COMDAT
; _this$ = ecx

; 787  : 		{	// find an element in mutable sequence that matches _Keyval

  00000	51		 push	 ecx

; 788  : 		iterator _Where = lower_bound(_Keyval);

  00001	8b 51 04	 mov	 edx, DWORD PTR [ecx+4]
  00004	8b 42 04	 mov	 eax, DWORD PTR [edx+4]
  00007	53		 push	 ebx
  00008	8a 58 15	 mov	 bl, BYTE PTR [eax+21]
  0000b	84 db		 test	 bl, bl
  0000d	56		 push	 esi
  0000e	57		 push	 edi
  0000f	8b 7c 24 18	 mov	 edi, DWORD PTR __Keyval$[esp+12]
  00013	75 17		 jne	 SHORT $L192766
  00015	8b 37		 mov	 esi, DWORD PTR [edi]
$L192765:
  00017	39 70 0c	 cmp	 DWORD PTR [eax+12], esi
  0001a	7d 05		 jge	 SHORT $L192767
  0001c	8b 40 08	 mov	 eax, DWORD PTR [eax+8]
  0001f	eb 04		 jmp	 SHORT $L192768
$L192767:
  00021	8b d0		 mov	 edx, eax
  00023	8b 00		 mov	 eax, DWORD PTR [eax]
$L192768:
  00025	8a 58 15	 mov	 bl, BYTE PTR [eax+21]
  00028	84 db		 test	 bl, bl
  0002a	74 eb		 je	 SHORT $L192765
$L192766:

; 789  : 		return (_Where == end() || this->comp(_Keyval, _Key(_Where._Mynode()))
; 790  : 			? end() : _Where);

  0002c	8b 41 04	 mov	 eax, DWORD PTR [ecx+4]
  0002f	3b d0		 cmp	 edx, eax
  00031	89 54 24 18	 mov	 DWORD PTR __Where$[esp+12], edx
  00035	74 1a		 je	 SHORT $L192670
  00037	8b 0f		 mov	 ecx, DWORD PTR [edi]
  00039	3b 4a 0c	 cmp	 ecx, DWORD PTR [edx+12]
  0003c	7c 13		 jl	 SHORT $L192670
  0003e	8d 44 24 18	 lea	 eax, DWORD PTR __Where$[esp+12]
  00042	8b 10		 mov	 edx, DWORD PTR [eax]
  00044	8b 44 24 14	 mov	 eax, DWORD PTR ___$ReturnUdt$[esp+12]
  00048	5f		 pop	 edi
  00049	5e		 pop	 esi
  0004a	89 10		 mov	 DWORD PTR [eax], edx
  0004c	5b		 pop	 ebx

; 791  : 		}

  0004d	59		 pop	 ecx
  0004e	c2 08 00	 ret	 8
$L192670:

; 789  : 		return (_Where == end() || this->comp(_Keyval, _Key(_Where._Mynode()))
; 790  : 			? end() : _Where);

  00051	89 44 24 0c	 mov	 DWORD PTR $T192671[esp+16], eax
  00055	8d 44 24 0c	 lea	 eax, DWORD PTR $T192671[esp+16]
  00059	8b 10		 mov	 edx, DWORD PTR [eax]
  0005b	8b 44 24 14	 mov	 eax, DWORD PTR ___$ReturnUdt$[esp+12]
  0005f	5f		 pop	 edi
  00060	5e		 pop	 esi
  00061	89 10		 mov	 DWORD PTR [eax], edx
  00063	5b		 pop	 ebx

; 791  : 		}

  00064	59		 pop	 ecx
  00065	c2 08 00	 ret	 8
?find@?$_Tree@V?$_Tmap_traits@HPAV?$list@PAVCEventItem@@V?$allocator@PAVCEventItem@@@std@@@std@@U?$less@H@2@V?$allocator@U?$pair@$$CBHPAV?$list@PAVCEventItem@@V?$allocator@PAVCEventItem@@@std@@@std@@@std@@@2@$0A@@std@@@std@@QAE?AViterator@12@ABH@Z ENDP ; std::_Tree<std::_Tmap_traits<int,std::list<CEventItem *,std::allocator<CEventItem *> > *,std::less<int>,std::allocator<std::pair<int const ,std::list<CEventItem *,std::allocator<CEventItem *> > *> >,0> >::find
_TEXT	ENDS
PUBLIC	??Eiterator@?$_Tree@V?$_Tmap_traits@HPAV?$list@PAVCEventItem@@V?$allocator@PAVCEventItem@@@std@@@std@@U?$less@H@2@V?$allocator@U?$pair@$$CBHPAV?$list@PAVCEventItem@@V?$allocator@PAVCEventItem@@@std@@@std@@@std@@@2@$0A@@std@@@std@@QAEAAV012@XZ ; std::_Tree<std::_Tmap_traits<int,std::list<CEventItem *,std::allocator<CEventItem *> > *,std::less<int>,std::allocator<std::pair<int const ,std::list<CEventItem *,std::allocator<CEventItem *> > *> >,0> >::iterator::operator++
; Function compile flags: /Ogty
;	COMDAT ??Eiterator@?$_Tree@V?$_Tmap_traits@HPAV?$list@PAVCEventItem@@V?$allocator@PAVCEventItem@@@std@@@std@@U?$less@H@2@V?$allocator@U?$pair@$$CBHPAV?$list@PAVCEventItem@@V?$allocator@PAVCEventItem@@@std@@@std@@@std@@@2@$0A@@std@@@std@@QAEAAV012@XZ
_TEXT	SEGMENT
??Eiterator@?$_Tree@V?$_Tmap_traits@HPAV?$list@PAVCEventItem@@V?$allocator@PAVCEventItem@@@std@@@std@@U?$less@H@2@V?$allocator@U?$pair@$$CBHPAV?$list@PAVCEventItem@@V?$allocator@PAVCEventItem@@@std@@@std@@@std@@@2@$0A@@std@@@std@@QAEAAV012@XZ PROC NEAR ; std::_Tree<std::_Tmap_traits<int,std::list<CEventItem *,std::allocator<CEventItem *> > *,std::less<int>,std::allocator<std::pair<int const ,std::list<CEventItem *,std::allocator<CEventItem *> > *> >,0> >::iterator::operator++, COMDAT
; _this$ = ecx

; 326  : 			{	// preincrement

  00000	56		 push	 esi
  00001	8b f1		 mov	 esi, ecx

; 327  : 			++(*(const_iterator *)this);

  00003	e8 00 00 00 00	 call	 ?_Inc@const_iterator@?$_Tree@V?$_Tmap_traits@HPAV?$list@PAVCEventItem@@V?$allocator@PAVCEventItem@@@std@@@std@@U?$less@H@2@V?$allocator@U?$pair@$$CBHPAV?$list@PAVCEventItem@@V?$allocator@PAVCEventItem@@@std@@@std@@@std@@@2@$0A@@std@@@std@@QAEXXZ ; std::_Tree<std::_Tmap_traits<int,std::list<CEventItem *,std::allocator<CEventItem *> > *,std::less<int>,std::allocator<std::pair<int const ,std::list<CEventItem *,std::allocator<CEventItem *> > *> >,0> >::const_iterator::_Inc

; 328  : 			return (*this);

  00008	8b c6		 mov	 eax, esi
  0000a	5e		 pop	 esi

; 329  : 			}

  0000b	c3		 ret	 0
??Eiterator@?$_Tree@V?$_Tmap_traits@HPAV?$list@PAVCEventItem@@V?$allocator@PAVCEventItem@@@std@@@std@@U?$less@H@2@V?$allocator@U?$pair@$$CBHPAV?$list@PAVCEventItem@@V?$allocator@PAVCEventItem@@@std@@@std@@@std@@@2@$0A@@std@@@std@@QAEAAV012@XZ ENDP ; std::_Tree<std::_Tmap_traits<int,std::list<CEventItem *,std::allocator<CEventItem *> > *,std::less<int>,std::allocator<std::pair<int const ,std::list<CEventItem *,std::allocator<CEventItem *> > *> >,0> >::iterator::operator++
_TEXT	ENDS
PUBLIC	??1?$list@PAVCEventItem@@V?$allocator@PAVCEventItem@@@std@@@std@@QAE@XZ ; std::list<CEventItem *,std::allocator<CEventItem *> >::~list<CEventItem *,std::allocator<CEventItem *> >
; Function compile flags: /Ogty
; File c:\program files\microsoft visual studio .net 2003\vc7\include\list
;	COMDAT ??1?$list@PAVCEventItem@@V?$allocator@PAVCEventItem@@@std@@@std@@QAE@XZ
_TEXT	SEGMENT
??1?$list@PAVCEventItem@@V?$allocator@PAVCEventItem@@@std@@@std@@QAE@XZ PROC NEAR ; std::list<CEventItem *,std::allocator<CEventItem *> >::~list<CEventItem *,std::allocator<CEventItem *> >, COMDAT
; _this$ = ecx

; 364  : 		{	// destroy the object

  00000	56		 push	 esi
  00001	8b f1		 mov	 esi, ecx

; 365  : 		_Tidy();

  00003	e8 00 00 00 00	 call	 ?clear@?$list@PAVCEventItem@@V?$allocator@PAVCEventItem@@@std@@@std@@QAEXXZ ; std::list<CEventItem *,std::allocator<CEventItem *> >::clear
  00008	8b 46 04	 mov	 eax, DWORD PTR [esi+4]
  0000b	50		 push	 eax
  0000c	e8 00 00 00 00	 call	 ??3@YAXPAX@Z		; operator delete
  00011	83 c4 04	 add	 esp, 4
  00014	c7 46 04 00 00
	00 00		 mov	 DWORD PTR [esi+4], 0
  0001b	5e		 pop	 esi

; 366  : 		}

  0001c	c3		 ret	 0
??1?$list@PAVCEventItem@@V?$allocator@PAVCEventItem@@@std@@@std@@QAE@XZ ENDP ; std::list<CEventItem *,std::allocator<CEventItem *> >::~list<CEventItem *,std::allocator<CEventItem *> >
_TEXT	ENDS
PUBLIC	??0?$_List_val@PAU_EVENT_GENERIC@@V?$allocator@PAU_EVENT_GENERIC@@@std@@@std@@IAE@V?$allocator@PAU_EVENT_GENERIC@@@1@@Z ; std::_List_val<_EVENT_GENERIC *,std::allocator<_EVENT_GENERIC *> >::_List_val<_EVENT_GENERIC *,std::allocator<_EVENT_GENERIC *> >
; Function compile flags: /Ogty
;	COMDAT ??0?$_List_val@PAU_EVENT_GENERIC@@V?$allocator@PAU_EVENT_GENERIC@@@std@@@std@@IAE@V?$allocator@PAU_EVENT_GENERIC@@@1@@Z
_TEXT	SEGMENT
__Al$ = 8						; size = 1
??0?$_List_val@PAU_EVENT_GENERIC@@V?$allocator@PAU_EVENT_GENERIC@@@std@@@std@@IAE@V?$allocator@PAU_EVENT_GENERIC@@@1@@Z PROC NEAR ; std::_List_val<_EVENT_GENERIC *,std::allocator<_EVENT_GENERIC *> >::_List_val<_EVENT_GENERIC *,std::allocator<_EVENT_GENERIC *> >, COMDAT
; _this$ = ecx

; 82   : 		{	// construct base, and allocator from _Al

  00000	8b c1		 mov	 eax, ecx

; 83   : 		}

  00002	c2 04 00	 ret	 4
??0?$_List_val@PAU_EVENT_GENERIC@@V?$allocator@PAU_EVENT_GENERIC@@@std@@@std@@IAE@V?$allocator@PAU_EVENT_GENERIC@@@1@@Z ENDP ; std::_List_val<_EVENT_GENERIC *,std::allocator<_EVENT_GENERIC *> >::_List_val<_EVENT_GENERIC *,std::allocator<_EVENT_GENERIC *> >
_TEXT	ENDS
PUBLIC	??Fiterator@?$_Tree@V?$_Tmap_traits@HPAV?$list@PAVCEventItem@@V?$allocator@PAVCEventItem@@@std@@@std@@U?$less@H@2@V?$allocator@U?$pair@$$CBHPAV?$list@PAVCEventItem@@V?$allocator@PAVCEventItem@@@std@@@std@@@std@@@2@$0A@@std@@@std@@QAEAAV012@XZ ; std::_Tree<std::_Tmap_traits<int,std::list<CEventItem *,std::allocator<CEventItem *> > *,std::less<int>,std::allocator<std::pair<int const ,std::list<CEventItem *,std::allocator<CEventItem *> > *> >,0> >::iterator::operator--
; Function compile flags: /Ogty
; File c:\program files\microsoft visual studio .net 2003\vc7\include\xtree
;	COMDAT ??Fiterator@?$_Tree@V?$_Tmap_traits@HPAV?$list@PAVCEventItem@@V?$allocator@PAVCEventItem@@@std@@@std@@U?$less@H@2@V?$allocator@U?$pair@$$CBHPAV?$list@PAVCEventItem@@V?$allocator@PAVCEventItem@@@std@@@std@@@std@@@2@$0A@@std@@@std@@QAEAAV012@XZ
_TEXT	SEGMENT
??Fiterator@?$_Tree@V?$_Tmap_traits@HPAV?$list@PAVCEventItem@@V?$allocator@PAVCEventItem@@@std@@@std@@U?$less@H@2@V?$allocator@U?$pair@$$CBHPAV?$list@PAVCEventItem@@V?$allocator@PAVCEventItem@@@std@@@std@@@std@@@2@$0A@@std@@@std@@QAEAAV012@XZ PROC NEAR ; std::_Tree<std::_Tmap_traits<int,std::list<CEventItem *,std::allocator<CEventItem *> > *,std::less<int>,std::allocator<std::pair<int const ,std::list<CEventItem *,std::allocator<CEventItem *> > *> >,0> >::iterator::operator--, COMDAT
; _this$ = ecx

; 339  : 			{	// predecrement

  00000	56		 push	 esi
  00001	8b f1		 mov	 esi, ecx

; 340  : 			--(*(const_iterator *)this);

  00003	e8 00 00 00 00	 call	 ?_Dec@const_iterator@?$_Tree@V?$_Tmap_traits@HPAV?$list@PAVCEventItem@@V?$allocator@PAVCEventItem@@@std@@@std@@U?$less@H@2@V?$allocator@U?$pair@$$CBHPAV?$list@PAVCEventItem@@V?$allocator@PAVCEventItem@@@std@@@std@@@std@@@2@$0A@@std@@@std@@QAEXXZ ; std::_Tree<std::_Tmap_traits<int,std::list<CEventItem *,std::allocator<CEventItem *> > *,std::less<int>,std::allocator<std::pair<int const ,std::list<CEventItem *,std::allocator<CEventItem *> > *> >,0> >::const_iterator::_Dec

; 341  : 			return (*this);

  00008	8b c6		 mov	 eax, esi
  0000a	5e		 pop	 esi

; 342  : 			}

  0000b	c3		 ret	 0
??Fiterator@?$_Tree@V?$_Tmap_traits@HPAV?$list@PAVCEventItem@@V?$allocator@PAVCEventItem@@@std@@@std@@U?$less@H@2@V?$allocator@U?$pair@$$CBHPAV?$list@PAVCEventItem@@V?$allocator@PAVCEventItem@@@std@@@std@@@std@@@2@$0A@@std@@@std@@QAEAAV012@XZ ENDP ; std::_Tree<std::_Tmap_traits<int,std::list<CEventItem *,std::allocator<CEventItem *> > *,std::less<int>,std::allocator<std::pair<int const ,std::list<CEventItem *,std::allocator<CEventItem *> > *> >,0> >::iterator::operator--
_TEXT	ENDS
PUBLIC	??0?$_List_val@PAVCEventItem@@V?$allocator@PAVCEventItem@@@std@@@std@@IAE@V?$allocator@PAVCEventItem@@@1@@Z ; std::_List_val<CEventItem *,std::allocator<CEventItem *> >::_List_val<CEventItem *,std::allocator<CEventItem *> >
; Function compile flags: /Ogty
; File c:\program files\microsoft visual studio .net 2003\vc7\include\list
;	COMDAT ??0?$_List_val@PAVCEventItem@@V?$allocator@PAVCEventItem@@@std@@@std@@IAE@V?$allocator@PAVCEventItem@@@1@@Z
_TEXT	SEGMENT
__Al$ = 8						; size = 1
??0?$_List_val@PAVCEventItem@@V?$allocator@PAVCEventItem@@@std@@@std@@IAE@V?$allocator@PAVCEventItem@@@1@@Z PROC NEAR ; std::_List_val<CEventItem *,std::allocator<CEventItem *> >::_List_val<CEventItem *,std::allocator<CEventItem *> >, COMDAT
; _this$ = ecx

; 82   : 		{	// construct base, and allocator from _Al

  00000	8b c1		 mov	 eax, ecx

; 83   : 		}

  00002	c2 04 00	 ret	 4
??0?$_List_val@PAVCEventItem@@V?$allocator@PAVCEventItem@@@std@@@std@@IAE@V?$allocator@PAVCEventItem@@@1@@Z ENDP ; std::_List_val<CEventItem *,std::allocator<CEventItem *> >::_List_val<CEventItem *,std::allocator<CEventItem *> >
_TEXT	ENDS
PUBLIC	?_Init@?$_Tree@V?$_Tmap_traits@HPAV?$list@PAVCEventItem@@V?$allocator@PAVCEventItem@@@std@@@std@@U?$less@H@2@V?$allocator@U?$pair@$$CBHPAV?$list@PAVCEventItem@@V?$allocator@PAVCEventItem@@@std@@@std@@@std@@@2@$0A@@std@@@std@@IAEXXZ ; std::_Tree<std::_Tmap_traits<int,std::list<CEventItem *,std::allocator<CEventItem *> > *,std::less<int>,std::allocator<std::pair<int const ,std::list<CEventItem *,std::allocator<CEventItem *> > *> >,0> >::_Init
; Function compile flags: /Ogty
; File c:\program files\microsoft visual studio .net 2003\vc7\include\xtree
;	COMDAT ?_Init@?$_Tree@V?$_Tmap_traits@HPAV?$list@PAVCEventItem@@V?$allocator@PAVCEventItem@@@std@@@std@@U?$less@H@2@V?$allocator@U?$pair@$$CBHPAV?$list@PAVCEventItem@@V?$allocator@PAVCEventItem@@@std@@@std@@@std@@@2@$0A@@std@@@std@@IAEXXZ
_TEXT	SEGMENT
?_Init@?$_Tree@V?$_Tmap_traits@HPAV?$list@PAVCEventItem@@V?$allocator@PAVCEventItem@@@std@@@std@@U?$less@H@2@V?$allocator@U?$pair@$$CBHPAV?$list@PAVCEventItem@@V?$allocator@PAVCEventItem@@@std@@@std@@@std@@@2@$0A@@std@@@std@@IAEXXZ PROC NEAR ; std::_Tree<std::_Tmap_traits<int,std::list<CEventItem *,std::allocator<CEventItem *> > *,std::less<int>,std::allocator<std::pair<int const ,std::list<CEventItem *,std::allocator<CEventItem *> > *> >,0> >::_Init, COMDAT
; _this$ = ecx

; 901  : 		{	// create head/nil node and make tree empty

  00000	56		 push	 esi
  00001	8b f1		 mov	 esi, ecx

; 902  : 		_Myhead = _Buynode();

  00003	e8 00 00 00 00	 call	 ?_Buynode@?$_Tree@V?$_Tmap_traits@HPAV?$list@PAVCEventItem@@V?$allocator@PAVCEventItem@@@std@@@std@@U?$less@H@2@V?$allocator@U?$pair@$$CBHPAV?$list@PAVCEventItem@@V?$allocator@PAVCEventItem@@@std@@@std@@@std@@@2@$0A@@std@@@std@@IAEPAU_Node@?$_Tree_nod@V?$_Tmap_traits@HPAV?$list@PAVCEventItem@@V?$allocator@PAVCEventItem@@@std@@@std@@U?$less@H@2@V?$allocator@U?$pair@$$CBHPAV?$list@PAVCEventItem@@V?$allocator@PAVCEventItem@@@std@@@std@@@std@@@2@$0A@@std@@@2@XZ ; std::_Tree<std::_Tmap_traits<int,std::list<CEventItem *,std::allocator<CEventItem *> > *,std::less<int>,std::allocator<std::pair<int const ,std::list<CEventItem *,std::allocator<CEventItem *> > *> >,0> >::_Buynode
  00008	89 46 04	 mov	 DWORD PTR [esi+4], eax

; 903  : 		_Isnil(_Myhead) = true;

  0000b	c6 40 15 01	 mov	 BYTE PTR [eax+21], 1

; 904  : 		_Root() = _Myhead;

  0000f	8b 46 04	 mov	 eax, DWORD PTR [esi+4]
  00012	89 40 04	 mov	 DWORD PTR [eax+4], eax

; 905  : 		_Lmost() = _Myhead, _Rmost() = _Myhead;

  00015	8b 46 04	 mov	 eax, DWORD PTR [esi+4]
  00018	89 00		 mov	 DWORD PTR [eax], eax
  0001a	8b 46 04	 mov	 eax, DWORD PTR [esi+4]
  0001d	89 40 08	 mov	 DWORD PTR [eax+8], eax

; 906  : 		_Mysize = 0;

  00020	c7 46 08 00 00
	00 00		 mov	 DWORD PTR [esi+8], 0
  00027	5e		 pop	 esi

; 907  : 		}

  00028	c3		 ret	 0
?_Init@?$_Tree@V?$_Tmap_traits@HPAV?$list@PAVCEventItem@@V?$allocator@PAVCEventItem@@@std@@@std@@U?$less@H@2@V?$allocator@U?$pair@$$CBHPAV?$list@PAVCEventItem@@V?$allocator@PAVCEventItem@@@std@@@std@@@std@@@2@$0A@@std@@@std@@IAEXXZ ENDP ; std::_Tree<std::_Tmap_traits<int,std::list<CEventItem *,std::allocator<CEventItem *> > *,std::less<int>,std::allocator<std::pair<int const ,std::list<CEventItem *,std::allocator<CEventItem *> > *> >,0> >::_Init
_TEXT	ENDS
PUBLIC	??0?$_Tree_val@V?$_Tmap_traits@HPAV?$list@PAVCEventItem@@V?$allocator@PAVCEventItem@@@std@@@std@@U?$less@H@2@V?$allocator@U?$pair@$$CBHPAV?$list@PAVCEventItem@@V?$allocator@PAVCEventItem@@@std@@@std@@@std@@@2@$0A@@std@@@std@@IAE@ABU?$less@H@1@V?$allocator@U?$pair@$$CBHPAV?$list@PAVCEventItem@@V?$allocator@PAVCEventItem@@@std@@@std@@@std@@@1@@Z ; std::_Tree_val<std::_Tmap_traits<int,std::list<CEventItem *,std::allocator<CEventItem *> > *,std::less<int>,std::allocator<std::pair<int const ,std::list<CEventItem *,std::allocator<CEventItem *> > *> >,0> >::_Tree_val<std::_Tmap_traits<int,std::list<CEventItem *,std::allocator<CEventItem *> > *,std::less<int>,std::allocator<std::pair<int const ,std::list<CEventItem *,std::allocator<CEventItem *> > *> >,0> >
; Function compile flags: /Ogty
;	COMDAT ??0?$_Tree_val@V?$_Tmap_traits@HPAV?$list@PAVCEventItem@@V?$allocator@PAVCEventItem@@@std@@@std@@U?$less@H@2@V?$allocator@U?$pair@$$CBHPAV?$list@PAVCEventItem@@V?$allocator@PAVCEventItem@@@std@@@std@@@std@@@2@$0A@@std@@@std@@IAE@ABU?$less@H@1@V?$allocator@U?$pair@$$CBHPAV?$list@PAVCEventItem@@V?$allocator@PAVCEventItem@@@std@@@std@@@std@@@1@@Z
_TEXT	SEGMENT
__Parg$ = 8						; size = 4
__Al$ = 12						; size = 1
??0?$_Tree_val@V?$_Tmap_traits@HPAV?$list@PAVCEventItem@@V?$allocator@PAVCEventItem@@@std@@@std@@U?$less@H@2@V?$allocator@U?$pair@$$CBHPAV?$list@PAVCEventItem@@V?$allocator@PAVCEventItem@@@std@@@std@@@std@@@2@$0A@@std@@@std@@IAE@ABU?$less@H@1@V?$allocator@U?$pair@$$CBHPAV?$list@PAVCEventItem@@V?$allocator@PAVCEventItem@@@std@@@std@@@std@@@1@@Z PROC NEAR ; std::_Tree_val<std::_Tmap_traits<int,std::list<CEventItem *,std::allocator<CEventItem *> > *,std::less<int>,std::allocator<std::pair<int const ,std::list<CEventItem *,std::allocator<CEventItem *> > *> >,0> >::_Tree_val<std::_Tmap_traits<int,std::list<CEventItem *,std::allocator<CEventItem *> > *,std::less<int>,std::allocator<std::pair<int const ,std::list<CEventItem *,std::allocator<CEventItem *> > *> >,0> >, COMDAT
; _this$ = ecx

; 95   : 		{	// construct base, and allocator from _Al

  00000	8b c1		 mov	 eax, ecx

; 96   : 		}

  00002	c2 08 00	 ret	 8
??0?$_Tree_val@V?$_Tmap_traits@HPAV?$list@PAVCEventItem@@V?$allocator@PAVCEventItem@@@std@@@std@@U?$less@H@2@V?$allocator@U?$pair@$$CBHPAV?$list@PAVCEventItem@@V?$allocator@PAVCEventItem@@@std@@@std@@@std@@@2@$0A@@std@@@std@@IAE@ABU?$less@H@1@V?$allocator@U?$pair@$$CBHPAV?$list@PAVCEventItem@@V?$allocator@PAVCEventItem@@@std@@@std@@@std@@@1@@Z ENDP ; std::_Tree_val<std::_Tmap_traits<int,std::list<CEventItem *,std::allocator<CEventItem *> > *,std::less<int>,std::allocator<std::pair<int const ,std::list<CEventItem *,std::allocator<CEventItem *> > *> >,0> >::_Tree_val<std::_Tmap_traits<int,std::list<CEventItem *,std::allocator<CEventItem *> > *,std::less<int>,std::allocator<std::pair<int const ,std::list<CEventItem *,std::allocator<CEventItem *> > *> >,0> >
_TEXT	ENDS
PUBLIC	??Eiterator@?$_Tree@V?$_Tmap_traits@HPAV?$list@PAVCEventItem@@V?$allocator@PAVCEventItem@@@std@@@std@@U?$less@H@2@V?$allocator@U?$pair@$$CBHPAV?$list@PAVCEventItem@@V?$allocator@PAVCEventItem@@@std@@@std@@@std@@@2@$0A@@std@@@std@@QAE?AV012@H@Z ; std::_Tree<std::_Tmap_traits<int,std::list<CEventItem *,std::allocator<CEventItem *> > *,std::less<int>,std::allocator<std::pair<int const ,std::list<CEventItem *,std::allocator<CEventItem *> > *> >,0> >::iterator::operator++
; Function compile flags: /Ogty
;	COMDAT ??Eiterator@?$_Tree@V?$_Tmap_traits@HPAV?$list@PAVCEventItem@@V?$allocator@PAVCEventItem@@@std@@@std@@U?$less@H@2@V?$allocator@U?$pair@$$CBHPAV?$list@PAVCEventItem@@V?$allocator@PAVCEventItem@@@std@@@std@@@std@@@2@$0A@@std@@@std@@QAE?AV012@H@Z
_TEXT	SEGMENT
___$ReturnUdt$ = 8					; size = 4
___formal$ = 12						; size = 4
??Eiterator@?$_Tree@V?$_Tmap_traits@HPAV?$list@PAVCEventItem@@V?$allocator@PAVCEventItem@@@std@@@std@@U?$less@H@2@V?$allocator@U?$pair@$$CBHPAV?$list@PAVCEventItem@@V?$allocator@PAVCEventItem@@@std@@@std@@@std@@@2@$0A@@std@@@std@@QAE?AV012@H@Z PROC NEAR ; std::_Tree<std::_Tmap_traits<int,std::list<CEventItem *,std::allocator<CEventItem *> > *,std::less<int>,std::allocator<std::pair<int const ,std::list<CEventItem *,std::allocator<CEventItem *> > *> >,0> >::iterator::operator++, COMDAT
; _this$ = ecx

; 332  : 			{	// postincrement

  00000	56		 push	 esi

; 333  : 			iterator _Tmp = *this;

  00001	8b 31		 mov	 esi, DWORD PTR [ecx]

; 334  : 			++*this;

  00003	e8 00 00 00 00	 call	 ?_Inc@const_iterator@?$_Tree@V?$_Tmap_traits@HPAV?$list@PAVCEventItem@@V?$allocator@PAVCEventItem@@@std@@@std@@U?$less@H@2@V?$allocator@U?$pair@$$CBHPAV?$list@PAVCEventItem@@V?$allocator@PAVCEventItem@@@std@@@std@@@std@@@2@$0A@@std@@@std@@QAEXXZ ; std::_Tree<std::_Tmap_traits<int,std::list<CEventItem *,std::allocator<CEventItem *> > *,std::less<int>,std::allocator<std::pair<int const ,std::list<CEventItem *,std::allocator<CEventItem *> > *> >,0> >::const_iterator::_Inc

; 335  : 			return (_Tmp);

  00008	8b 44 24 08	 mov	 eax, DWORD PTR ___$ReturnUdt$[esp]
  0000c	89 30		 mov	 DWORD PTR [eax], esi
  0000e	5e		 pop	 esi

; 336  : 			}

  0000f	c2 08 00	 ret	 8
??Eiterator@?$_Tree@V?$_Tmap_traits@HPAV?$list@PAVCEventItem@@V?$allocator@PAVCEventItem@@@std@@@std@@U?$less@H@2@V?$allocator@U?$pair@$$CBHPAV?$list@PAVCEventItem@@V?$allocator@PAVCEventItem@@@std@@@std@@@std@@@2@$0A@@std@@@std@@QAE?AV012@H@Z ENDP ; std::_Tree<std::_Tmap_traits<int,std::list<CEventItem *,std::allocator<CEventItem *> > *,std::less<int>,std::allocator<std::pair<int const ,std::list<CEventItem *,std::allocator<CEventItem *> > *> >,0> >::iterator::operator++
_TEXT	ENDS
PUBLIC	??0?$CStringT@DV?$StrTraitMFC@DV?$ChTraitsCRT@D@ATL@@@@@ATL@@QAE@ABV01@@Z ; ATL::CStringT<char,StrTraitMFC<char,ATL::ChTraitsCRT<char> > >::CStringT<char,StrTraitMFC<char,ATL::ChTraitsCRT<char> > >
; Function compile flags: /Ogty
; File c:\program files\microsoft visual studio .net 2003\vc7\atlmfc\include\cstringt.h
;	COMDAT ??0?$CStringT@DV?$StrTraitMFC@DV?$ChTraitsCRT@D@ATL@@@@@ATL@@QAE@ABV01@@Z
_TEXT	SEGMENT
_strSrc$ = 8						; size = 4
??0?$CStringT@DV?$StrTraitMFC@DV?$ChTraitsCRT@D@ATL@@@@@ATL@@QAE@ABV01@@Z PROC NEAR ; ATL::CStringT<char,StrTraitMFC<char,ATL::ChTraitsCRT<char> > >::CStringT<char,StrTraitMFC<char,ATL::ChTraitsCRT<char> > >, COMDAT
; _this$ = ecx

; 814  : 	{

  00000	8b 44 24 04	 mov	 eax, DWORD PTR _strSrc$[esp-4]
  00004	8b 00		 mov	 eax, DWORD PTR [eax]
  00006	56		 push	 esi
  00007	83 e8 10	 sub	 eax, 16			; 00000010H
  0000a	50		 push	 eax
  0000b	8b f1		 mov	 esi, ecx
  0000d	e8 00 00 00 00	 call	 ?CloneData@?$CSimpleStringT@D$0A@@ATL@@CAPAUCStringData@2@PAU32@@Z ; ATL::CSimpleStringT<char,0>::CloneData
  00012	83 c0 10	 add	 eax, 16			; 00000010H
  00015	89 06		 mov	 DWORD PTR [esi], eax
  00017	83 c4 04	 add	 esp, 4

; 815  : 	}

  0001a	8b c6		 mov	 eax, esi
  0001c	5e		 pop	 esi
  0001d	c2 04 00	 ret	 4
??0?$CStringT@DV?$StrTraitMFC@DV?$ChTraitsCRT@D@ATL@@@@@ATL@@QAE@ABV01@@Z ENDP ; ATL::CStringT<char,StrTraitMFC<char,ATL::ChTraitsCRT<char> > >::CStringT<char,StrTraitMFC<char,ATL::ChTraitsCRT<char> > >
_TEXT	ENDS
PUBLIC	?GetBuffer@?$CSimpleStringT@D$0A@@ATL@@QAEPADH@Z ; ATL::CSimpleStringT<char,0>::GetBuffer
; Function compile flags: /Ogty
; File c:\program files\microsoft visual studio .net 2003\vc7\atlmfc\include\atlsimpstr.h
;	COMDAT ?GetBuffer@?$CSimpleStringT@D$0A@@ATL@@QAEPADH@Z
_TEXT	SEGMENT
_nMinBufferLength$ = 8					; size = 4
?GetBuffer@?$CSimpleStringT@D$0A@@ATL@@QAEPADH@Z PROC NEAR ; ATL::CSimpleStringT<char,0>::GetBuffer, COMDAT
; _this$ = ecx

; 489  : 	{

  00000	56		 push	 esi
  00001	8b f1		 mov	 esi, ecx

; 490  : 		return( PrepareWrite( nMinBufferLength ) );

  00003	8b 06		 mov	 eax, DWORD PTR [esi]
  00005	8b 50 fc	 mov	 edx, DWORD PTR [eax-4]
  00008	83 e8 10	 sub	 eax, 16			; 00000010H
  0000b	b9 01 00 00 00	 mov	 ecx, 1
  00010	2b ca		 sub	 ecx, edx
  00012	8b 50 08	 mov	 edx, DWORD PTR [eax+8]
  00015	8b 44 24 08	 mov	 eax, DWORD PTR _nMinBufferLength$[esp]
  00019	2b d0		 sub	 edx, eax
  0001b	0b ca		 or	 ecx, edx
  0001d	7d 08		 jge	 SHORT $L193068
  0001f	50		 push	 eax
  00020	8b ce		 mov	 ecx, esi
  00022	e8 00 00 00 00	 call	 ?PrepareWrite2@?$CSimpleStringT@D$0A@@ATL@@AAEXH@Z ; ATL::CSimpleStringT<char,0>::PrepareWrite2
$L193068:
  00027	8b 06		 mov	 eax, DWORD PTR [esi]
  00029	5e		 pop	 esi

; 491  : 	}

  0002a	c2 04 00	 ret	 4
?GetBuffer@?$CSimpleStringT@D$0A@@ATL@@QAEPADH@Z ENDP	; ATL::CSimpleStringT<char,0>::GetBuffer
_TEXT	ENDS
PUBLIC	??1?$basic_string@DU?$char_traits@D@std@@V?$allocator@D@2@@std@@QAE@XZ ; std::basic_string<char,std::char_traits<char>,std::allocator<char> >::~basic_string<char,std::char_traits<char>,std::allocator<char> >
; Function compile flags: /Ogty
; File c:\program files\microsoft visual studio .net 2003\vc7\include\xstring
;	COMDAT ??1?$basic_string@DU?$char_traits@D@std@@V?$allocator@D@2@@std@@QAE@XZ
_TEXT	SEGMENT
??1?$basic_string@DU?$char_traits@D@std@@V?$allocator@D@2@@std@@QAE@XZ PROC NEAR ; std::basic_string<char,std::char_traits<char>,std::allocator<char> >::~basic_string<char,std::char_traits<char>,std::allocator<char> >, COMDAT
; _this$ = ecx

; 456  : 		{	// destroy the string

  00000	56		 push	 esi
  00001	8b f1		 mov	 esi, ecx

; 457  : 		_Tidy(true);

  00003	83 7e 18 10	 cmp	 DWORD PTR [esi+24], 16	; 00000010H
  00007	72 0c		 jb	 SHORT $L193111
  00009	8b 46 04	 mov	 eax, DWORD PTR [esi+4]
  0000c	50		 push	 eax
  0000d	e8 00 00 00 00	 call	 ??3@YAXPAX@Z		; operator delete
  00012	83 c4 04	 add	 esp, 4
$L193111:
  00015	33 c0		 xor	 eax, eax
  00017	c7 46 18 0f 00
	00 00		 mov	 DWORD PTR [esi+24], 15	; 0000000fH
  0001e	89 46 14	 mov	 DWORD PTR [esi+20], eax
  00021	88 46 04	 mov	 BYTE PTR [esi+4], al
  00024	5e		 pop	 esi

; 458  : 		}

  00025	c3		 ret	 0
??1?$basic_string@DU?$char_traits@D@std@@V?$allocator@D@2@@std@@QAE@XZ ENDP ; std::basic_string<char,std::char_traits<char>,std::allocator<char> >::~basic_string<char,std::char_traits<char>,std::allocator<char> >
_TEXT	ENDS
PUBLIC	?LoadStringA@?$CStringT@DV?$StrTraitMFC@DV?$ChTraitsCRT@D@ATL@@@@@ATL@@QAEHPAUHINSTANCE__@@I@Z ; ATL::CStringT<char,StrTraitMFC<char,ATL::ChTraitsCRT<char> > >::LoadStringA
; Function compile flags: /Ogty
; File c:\program files\microsoft visual studio .net 2003\vc7\atlmfc\include\cstringt.h
;	COMDAT ?LoadStringA@?$CStringT@DV?$StrTraitMFC@DV?$ChTraitsCRT@D@ATL@@@@@ATL@@QAEHPAUHINSTANCE__@@I@Z
_TEXT	SEGMENT
_hInstance$ = 8						; size = 4
_nID$ = 12						; size = 4
?LoadStringA@?$CStringT@DV?$StrTraitMFC@DV?$ChTraitsCRT@D@ATL@@@@@ATL@@QAEHPAUHINSTANCE__@@I@Z PROC NEAR ; ATL::CStringT<char,StrTraitMFC<char,ATL::ChTraitsCRT<char> > >::LoadStringA, COMDAT
; _this$ = ecx

; 1981 : 	{

  00000	53		 push	 ebx
  00001	56		 push	 esi

; 1982 : 		const ATLSTRINGRESOURCEIMAGE* pImage = AtlGetStringResourceImage( hInstance, nID );

  00002	8b 74 24 10	 mov	 esi, DWORD PTR _nID$[esp+4]
  00006	8b c6		 mov	 eax, esi
  00008	c1 e8 04	 shr	 eax, 4
  0000b	57		 push	 edi
  0000c	8b 7c 24 10	 mov	 edi, DWORD PTR _hInstance$[esp+8]
  00010	40		 inc	 eax
  00011	8b d9		 mov	 ebx, ecx
  00013	0f b7 c8	 movzx	 ecx, ax
  00016	6a 06		 push	 6
  00018	51		 push	 ecx
  00019	57		 push	 edi
  0001a	ff 15 00 00 00
	00		 call	 DWORD PTR __imp__FindResourceA@12
  00020	85 c0		 test	 eax, eax
  00022	74 11		 je	 SHORT $L193199
  00024	56		 push	 esi
  00025	50		 push	 eax
  00026	57		 push	 edi
  00027	e8 00 00 00 00	 call	 ?_AtlGetStringResourceImage@ATL@@YAPBUATLSTRINGRESOURCEIMAGE@1@PAUHINSTANCE__@@PAUHRSRC__@@I@Z ; ATL::_AtlGetStringResourceImage
  0002c	8b f8		 mov	 edi, eax
  0002e	83 c4 0c	 add	 esp, 12			; 0000000cH

; 1983 : 		if( pImage == NULL )

  00031	85 ff		 test	 edi, edi
  00033	75 08		 jne	 SHORT $L184183
$L193199:
  00035	5f		 pop	 edi
  00036	5e		 pop	 esi

; 1984 : 		{
; 1985 : 			return( FALSE );

  00037	33 c0		 xor	 eax, eax
  00039	5b		 pop	 ebx

; 1994 : 	}

  0003a	c2 08 00	 ret	 8
$L184183:

; 1986 : 		}
; 1987 : 
; 1988 : 		int nLength = StringTraits::GetBaseTypeLength( pImage->achString, pImage->nLength );

  0003d	0f b7 37	 movzx	 esi, WORD PTR [edi]
  00040	55		 push	 ebp
  00041	ff 15 00 00 00
	00		 call	 DWORD PTR ?g_pfnGetThreadACP@ATL@@3P6GIXZA ; ATL::g_pfnGetThreadACP
  00047	6a 00		 push	 0
  00049	6a 00		 push	 0
  0004b	6a 00		 push	 0
  0004d	6a 00		 push	 0
  0004f	56		 push	 esi
  00050	8d 6f 02	 lea	 ebp, DWORD PTR [edi+2]
  00053	55		 push	 ebp
  00054	6a 00		 push	 0
  00056	50		 push	 eax
  00057	ff 15 00 00 00
	00		 call	 DWORD PTR __imp__WideCharToMultiByte@32
  0005d	8b f0		 mov	 esi, eax

; 1989 : 		PXSTR pszBuffer = GetBuffer( nLength );

  0005f	8b 03		 mov	 eax, DWORD PTR [ebx]
  00061	8b 48 fc	 mov	 ecx, DWORD PTR [eax-4]
  00064	83 e8 10	 sub	 eax, 16			; 00000010H
  00067	8b 40 08	 mov	 eax, DWORD PTR [eax+8]
  0006a	ba 01 00 00 00	 mov	 edx, 1
  0006f	2b d1		 sub	 edx, ecx
  00071	2b c6		 sub	 eax, esi
  00073	0b d0		 or	 edx, eax
  00075	7d 08		 jge	 SHORT $L193160
  00077	56		 push	 esi
  00078	8b cb		 mov	 ecx, ebx
  0007a	e8 00 00 00 00	 call	 ?PrepareWrite2@?$CSimpleStringT@D$0A@@ATL@@AAEXH@Z ; ATL::CSimpleStringT<char,0>::PrepareWrite2
$L193160:
  0007f	8b 03		 mov	 eax, DWORD PTR [ebx]

; 1990 : 		StringTraits::ConvertToBaseType( pszBuffer, nLength, pImage->achString, pImage->nLength );

  00081	0f b7 0f	 movzx	 ecx, WORD PTR [edi]
  00084	6a 00		 push	 0
  00086	6a 00		 push	 0
  00088	56		 push	 esi
  00089	50		 push	 eax
  0008a	51		 push	 ecx
  0008b	55		 push	 ebp
  0008c	6a 00		 push	 0
  0008e	ff 15 00 00 00
	00		 call	 DWORD PTR ?g_pfnGetThreadACP@ATL@@3P6GIXZA ; ATL::g_pfnGetThreadACP
  00094	50		 push	 eax
  00095	ff 15 00 00 00
	00		 call	 DWORD PTR __imp__WideCharToMultiByte@32

; 1991 : 		ReleaseBufferSetLength( nLength );

  0009b	85 f6		 test	 esi, esi
  0009d	5d		 pop	 ebp
  0009e	7c 1b		 jl	 SHORT $L193196
  000a0	8b 03		 mov	 eax, DWORD PTR [ebx]
  000a2	3b 70 f8	 cmp	 esi, DWORD PTR [eax-8]
  000a5	7f 14		 jg	 SHORT $L193196
  000a7	89 70 f4	 mov	 DWORD PTR [eax-12], esi
  000aa	8b 0b		 mov	 ecx, DWORD PTR [ebx]
  000ac	5f		 pop	 edi
  000ad	c6 04 0e 00	 mov	 BYTE PTR [esi+ecx], 0
  000b1	5e		 pop	 esi

; 1992 : 
; 1993 : 		return( TRUE );

  000b2	b8 01 00 00 00	 mov	 eax, 1
  000b7	5b		 pop	 ebx

; 1994 : 	}

  000b8	c2 08 00	 ret	 8
$L193196:
  000bb	68 57 00 07 80	 push	 -2147024809		; 80070057H
  000c0	e8 00 00 00 00	 call	 ?AtlThrow@ATL@@YGXJ@Z	; ATL::AtlThrow
$L193200:
  000c5	cc		 int	 3
?LoadStringA@?$CStringT@DV?$StrTraitMFC@DV?$ChTraitsCRT@D@ATL@@@@@ATL@@QAEHPAUHINSTANCE__@@I@Z ENDP ; ATL::CStringT<char,StrTraitMFC<char,ATL::ChTraitsCRT<char> > >::LoadStringA
_TEXT	ENDS
PUBLIC	?SetString@?$CSimpleStringT@D$0A@@ATL@@QAEXPBDH@Z ; ATL::CSimpleStringT<char,0>::SetString
; Function compile flags: /Ogty
; File c:\program files\microsoft visual studio .net 2003\vc7\atlmfc\include\atlsimpstr.h
;	COMDAT ?SetString@?$CSimpleStringT@D$0A@@ATL@@QAEXPBDH@Z
_TEXT	SEGMENT
_pszSrc$ = 8						; size = 4
_nLength$ = 12						; size = 4
?SetString@?$CSimpleStringT@D$0A@@ATL@@QAEXPBDH@Z PROC NEAR ; ATL::CSimpleStringT<char,0>::SetString, COMDAT
; _this$ = ecx

; 583  : 	{

  00000	53		 push	 ebx

; 584  : 		if( nLength == 0 )

  00001	8b 5c 24 0c	 mov	 ebx, DWORD PTR _nLength$[esp]
  00005	85 db		 test	 ebx, ebx
  00007	55		 push	 ebp
  00008	8b e9		 mov	 ebp, ecx
  0000a	75 0a		 jne	 SHORT $L184946

; 585  : 		{
; 586  : 			Empty();

  0000c	e8 00 00 00 00	 call	 ?Empty@?$CSimpleStringT@D$0A@@ATL@@QAEXXZ ; ATL::CSimpleStringT<char,0>::Empty
  00011	5d		 pop	 ebp
  00012	5b		 pop	 ebx

; 614  : 		}
; 615  : 	}

  00013	c2 08 00	 ret	 8
$L184946:

; 587  : 		}
; 588  : 		else
; 589  : 		{
; 590  : 			// It is possible that pszSrc points to a location inside of our 
; 591  : 			// buffer.  GetBuffer() might change m_pszData if (1) the buffer 
; 592  : 			// is shared or (2) the buffer is too small to hold the new 
; 593  : 			// string.  We detect this aliasing, and modify pszSrc to point
; 594  : 			// into the newly allocated buffer instead.
; 595  : 			
; 596  : 			if(pszSrc == NULL)

  00016	8b 54 24 0c	 mov	 edx, DWORD PTR _pszSrc$[esp+4]
  0001a	85 d2		 test	 edx, edx
  0001c	75 0a		 jne	 SHORT $L184948

; 612  : 			}
; 613  : 			ReleaseBufferSetLength( nLength );

$L193271:
  0001e	68 57 00 07 80	 push	 -2147024809		; 80070057H
  00023	e8 00 00 00 00	 call	 ?AtlThrow@ATL@@YGXJ@Z	; ATL::AtlThrow
$L184948:

; 597  : 				AtlThrow(E_INVALIDARG);			
; 598  : 				
; 599  : 			UINT nOldLength = GetLength();

  00028	8b 45 00	 mov	 eax, DWORD PTR [ebp]
  0002b	56		 push	 esi

; 600  : 			UINT_PTR nOffset = pszSrc-GetString();

  0002c	8b f2		 mov	 esi, edx
  0002e	2b f0		 sub	 esi, eax

; 601  : 			// If 0 <= nOffset <= nOldLength, then pszSrc points into our 
; 602  : 			// buffer
; 603  : 
; 604  : 			PXSTR pszBuffer = GetBuffer( nLength );

  00030	b9 01 00 00 00	 mov	 ecx, 1
  00035	2b 48 fc	 sub	 ecx, DWORD PTR [eax-4]
  00038	57		 push	 edi
  00039	8b 78 f4	 mov	 edi, DWORD PTR [eax-12]
  0003c	8b 40 f8	 mov	 eax, DWORD PTR [eax-8]
  0003f	2b c3		 sub	 eax, ebx
  00041	0b c8		 or	 ecx, eax
  00043	7d 0c		 jge	 SHORT $L193238
  00045	53		 push	 ebx
  00046	8b cd		 mov	 ecx, ebp
  00048	e8 00 00 00 00	 call	 ?PrepareWrite2@?$CSimpleStringT@D$0A@@ATL@@AAEXH@Z ; ATL::CSimpleStringT<char,0>::PrepareWrite2
  0004d	8b 54 24 14	 mov	 edx, DWORD PTR _pszSrc$[esp+12]
$L193238:

; 605  : 			if( nOffset <= nOldLength )

  00051	3b f7		 cmp	 esi, edi
  00053	8b 45 00	 mov	 eax, DWORD PTR [ebp]
  00056	77 10		 ja	 SHORT $L184953

; 606  : 			{
; 607  : 				CopyCharsOverlapped( pszBuffer, pszBuffer+nOffset, nLength );

  00058	53		 push	 ebx
  00059	8d 0c 30	 lea	 ecx, DWORD PTR [eax+esi]
  0005c	51		 push	 ecx
  0005d	50		 push	 eax
  0005e	e8 00 00 00 00	 call	 _memmove
  00063	83 c4 0c	 add	 esp, 12			; 0000000cH

; 608  : 			}
; 609  : 			else

  00066	eb 14		 jmp	 SHORT $L193244
$L184953:

; 610  : 			{
; 611  : 				CopyChars( pszBuffer, pszSrc, nLength );

  00068	8b cb		 mov	 ecx, ebx
  0006a	8b f2		 mov	 esi, edx
  0006c	8b d1		 mov	 edx, ecx
  0006e	c1 e9 02	 shr	 ecx, 2
  00071	8b f8		 mov	 edi, eax
  00073	f3 a5		 rep movsd
  00075	8b ca		 mov	 ecx, edx
  00077	83 e1 03	 and	 ecx, 3
  0007a	f3 a4		 rep movsb
$L193244:

; 612  : 			}
; 613  : 			ReleaseBufferSetLength( nLength );

  0007c	85 db		 test	 ebx, ebx
  0007e	5f		 pop	 edi
  0007f	5e		 pop	 esi
  00080	7c 9c		 jl	 SHORT $L193271
  00082	8b 45 00	 mov	 eax, DWORD PTR [ebp]
  00085	3b 58 f8	 cmp	 ebx, DWORD PTR [eax-8]
  00088	7f 94		 jg	 SHORT $L193271
  0008a	89 58 f4	 mov	 DWORD PTR [eax-12], ebx
  0008d	8b 45 00	 mov	 eax, DWORD PTR [ebp]
  00090	5d		 pop	 ebp
  00091	c6 04 03 00	 mov	 BYTE PTR [ebx+eax], 0
  00095	5b		 pop	 ebx

; 614  : 		}
; 615  : 	}

  00096	c2 08 00	 ret	 8
$L193274:
?SetString@?$CSimpleStringT@D$0A@@ATL@@QAEXPBDH@Z ENDP	; ATL::CSimpleStringT<char,0>::SetString
_TEXT	ENDS
PUBLIC	?_Grow@?$basic_string@DU?$char_traits@D@std@@V?$allocator@D@2@@std@@IAE_NI_N@Z ; std::basic_string<char,std::char_traits<char>,std::allocator<char> >::_Grow
EXTRN	?_Xlen@_String_base@std@@QBEXXZ:NEAR		; std::_String_base::_Xlen
; Function compile flags: /Ogty
; File c:\program files\microsoft visual studio .net 2003\vc7\include\xstring
;	COMDAT ?_Grow@?$basic_string@DU?$char_traits@D@std@@V?$allocator@D@2@@std@@IAE_NI_N@Z
_TEXT	SEGMENT
__Newsize$ = 8						; size = 4
__Trim$ = 12						; size = 1
?_Grow@?$basic_string@DU?$char_traits@D@std@@V?$allocator@D@2@@std@@IAE_NI_N@Z PROC NEAR ; std::basic_string<char,std::char_traits<char>,std::allocator<char> >::_Grow, COMDAT
; _this$ = ecx

; 1480 : 		{	// ensure buffer is big enough, trim to size if _Trim is true

  00000	55		 push	 ebp
  00001	56		 push	 esi

; 1481 : 		if (max_size() < _Newsize)

  00002	8b 74 24 0c	 mov	 esi, DWORD PTR __Newsize$[esp+4]
  00006	83 fe fe	 cmp	 esi, -2			; fffffffeH
  00009	8b e9		 mov	 ebp, ecx
  0000b	76 05		 jbe	 SHORT $L185002

; 1482 : 			_String_base::_Xlen();	// result too long

  0000d	e8 00 00 00 00	 call	 ?_Xlen@_String_base@std@@QBEXXZ ; std::_String_base::_Xlen
$L185002:

; 1483 : 		if (_Myres < _Newsize)

  00012	8b 45 18	 mov	 eax, DWORD PTR [ebp+24]
  00015	3b c6		 cmp	 eax, esi
  00017	73 19		 jae	 SHORT $L185003

; 1484 : 			_Copy(_Newsize, _Mysize);	// reallocate to grow

  00019	8b 45 14	 mov	 eax, DWORD PTR [ebp+20]
  0001c	50		 push	 eax
  0001d	56		 push	 esi
  0001e	8b cd		 mov	 ecx, ebp
  00020	e8 00 00 00 00	 call	 ?_Copy@?$basic_string@DU?$char_traits@D@std@@V?$allocator@D@2@@std@@IAEXII@Z ; std::basic_string<char,std::char_traits<char>,std::allocator<char> >::_Copy

; 1490 : 		return (0 < _Newsize);	// return true only if more work to do

  00025	33 c0		 xor	 eax, eax
  00027	3b c6		 cmp	 eax, esi
  00029	1b c0		 sbb	 eax, eax
  0002b	5e		 pop	 esi
  0002c	f7 d8		 neg	 eax
  0002e	5d		 pop	 ebp

; 1491 : 		}

  0002f	c2 08 00	 ret	 8
$L185003:

; 1485 : 		else if (_Trim && _Newsize < _BUF_SIZE)

  00032	8a 4c 24 10	 mov	 cl, BYTE PTR __Trim$[esp+4]
  00036	84 c9		 test	 cl, cl
  00038	74 5c		 je	 SHORT $L185005
  0003a	83 fe 10	 cmp	 esi, 16			; 00000010H
  0003d	73 57		 jae	 SHORT $L185005
  0003f	53		 push	 ebx

; 1486 : 			_Tidy(true,	// copy and deallocate if trimming to small string
; 1487 : 				_Newsize < _Mysize ? _Newsize : _Mysize);

  00040	8b 5d 14	 mov	 ebx, DWORD PTR [ebp+20]
  00043	3b f3		 cmp	 esi, ebx
  00045	73 02		 jae	 SHORT $L193278
  00047	8b de		 mov	 ebx, esi
$L193278:
  00049	83 f8 10	 cmp	 eax, 16			; 00000010H
  0004c	72 2b		 jb	 SHORT $L193338
  0004e	85 db		 test	 ebx, ebx
  00050	8b 45 04	 mov	 eax, DWORD PTR [ebp+4]
  00053	57		 push	 edi
  00054	8d 7d 04	 lea	 edi, DWORD PTR [ebp+4]
  00057	76 16		 jbe	 SHORT $L193337
  00059	8b cb		 mov	 ecx, ebx
  0005b	8b d1		 mov	 edx, ecx
  0005d	c1 e9 02	 shr	 ecx, 2
  00060	8b f0		 mov	 esi, eax
  00062	f3 a5		 rep movsd
  00064	8b ca		 mov	 ecx, edx
  00066	83 e1 03	 and	 ecx, 3
  00069	f3 a4		 rep movsb
  0006b	8b 74 24 14	 mov	 esi, DWORD PTR __Newsize$[esp+12]
$L193337:
  0006f	50		 push	 eax
  00070	e8 00 00 00 00	 call	 ??3@YAXPAX@Z		; operator delete
  00075	83 c4 04	 add	 esp, 4
  00078	5f		 pop	 edi
$L193338:
  00079	89 5d 14	 mov	 DWORD PTR [ebp+20], ebx

; 1490 : 		return (0 < _Newsize);	// return true only if more work to do

  0007c	33 c0		 xor	 eax, eax
  0007e	c7 45 18 0f 00
	00 00		 mov	 DWORD PTR [ebp+24], 15	; 0000000fH
  00085	c6 44 2b 04 00	 mov	 BYTE PTR [ebx+ebp+4], 0
  0008a	3b c6		 cmp	 eax, esi
  0008c	5b		 pop	 ebx
  0008d	1b c0		 sbb	 eax, eax
  0008f	5e		 pop	 esi
  00090	f7 d8		 neg	 eax
  00092	5d		 pop	 ebp

; 1491 : 		}

  00093	c2 08 00	 ret	 8
$L185005:

; 1488 : 		else if (_Newsize == 0)

  00096	85 f6		 test	 esi, esi
  00098	75 23		 jne	 SHORT $L193370

; 1489 : 			_Eos(0);	// new size is zero, just null terminate

  0009a	83 f8 10	 cmp	 eax, 16			; 00000010H
  0009d	89 75 14	 mov	 DWORD PTR [ebp+20], esi
  000a0	72 14		 jb	 SHORT $L193367
  000a2	8b 6d 04	 mov	 ebp, DWORD PTR [ebp+4]

; 1490 : 		return (0 < _Newsize);	// return true only if more work to do

  000a5	33 c0		 xor	 eax, eax
  000a7	3b c6		 cmp	 eax, esi
  000a9	1b c0		 sbb	 eax, eax
  000ab	5e		 pop	 esi
  000ac	c6 45 00 00	 mov	 BYTE PTR [ebp], 0
  000b0	f7 d8		 neg	 eax
  000b2	5d		 pop	 ebp

; 1491 : 		}

  000b3	c2 08 00	 ret	 8

; 1489 : 			_Eos(0);	// new size is zero, just null terminate

$L193367:
  000b6	83 c5 04	 add	 ebp, 4
  000b9	c6 45 00 00	 mov	 BYTE PTR [ebp], 0
$L193370:

; 1490 : 		return (0 < _Newsize);	// return true only if more work to do

  000bd	33 c0		 xor	 eax, eax
  000bf	3b c6		 cmp	 eax, esi
  000c1	1b c0		 sbb	 eax, eax
  000c3	5e		 pop	 esi
  000c4	f7 d8		 neg	 eax
  000c6	5d		 pop	 ebp

; 1491 : 		}

  000c7	c2 08 00	 ret	 8
?_Grow@?$basic_string@DU?$char_traits@D@std@@V?$allocator@D@2@@std@@IAE_NI_N@Z ENDP ; std::basic_string<char,std::char_traits<char>,std::allocator<char> >::_Grow
_TEXT	ENDS
PUBLIC	??_G?$list@PAVCEventItem@@V?$allocator@PAVCEventItem@@@std@@@std@@QAEPAXI@Z ; std::list<CEventItem *,std::allocator<CEventItem *> >::`scalar deleting destructor'
; Function compile flags: /Ogty
;	COMDAT ??_G?$list@PAVCEventItem@@V?$allocator@PAVCEventItem@@@std@@@std@@QAEPAXI@Z
_TEXT	SEGMENT
___flags$ = 8						; size = 4
??_G?$list@PAVCEventItem@@V?$allocator@PAVCEventItem@@@std@@@std@@QAEPAXI@Z PROC NEAR ; std::list<CEventItem *,std::allocator<CEventItem *> >::`scalar deleting destructor', COMDAT
; _this$ = ecx
  00000	56		 push	 esi
  00001	8b f1		 mov	 esi, ecx
  00003	e8 00 00 00 00	 call	 ?clear@?$list@PAVCEventItem@@V?$allocator@PAVCEventItem@@@std@@@std@@QAEXXZ ; std::list<CEventItem *,std::allocator<CEventItem *> >::clear
  00008	8b 46 04	 mov	 eax, DWORD PTR [esi+4]
  0000b	50		 push	 eax
  0000c	e8 00 00 00 00	 call	 ??3@YAXPAX@Z		; operator delete
  00011	8a 44 24 0c	 mov	 al, BYTE PTR ___flags$[esp+4]
  00015	83 c4 04	 add	 esp, 4
  00018	a8 01		 test	 al, 1
  0001a	c7 46 04 00 00
	00 00		 mov	 DWORD PTR [esi+4], 0
  00021	74 09		 je	 SHORT $L193405
  00023	56		 push	 esi
  00024	e8 00 00 00 00	 call	 ??3@YAXPAX@Z		; operator delete
  00029	83 c4 04	 add	 esp, 4
$L193405:
  0002c	8b c6		 mov	 eax, esi
  0002e	5e		 pop	 esi
  0002f	c2 04 00	 ret	 4
??_G?$list@PAVCEventItem@@V?$allocator@PAVCEventItem@@@std@@@std@@QAEPAXI@Z ENDP ; std::list<CEventItem *,std::allocator<CEventItem *> >::`scalar deleting destructor'
_TEXT	ENDS
PUBLIC	?Replace@?$CStringT@DV?$StrTraitMFC@DV?$ChTraitsCRT@D@ATL@@@@@ATL@@QAEHPBD0@Z ; ATL::CStringT<char,StrTraitMFC<char,ATL::ChTraitsCRT<char> > >::Replace
; Function compile flags: /Ogty
; File c:\program files\microsoft visual studio .net 2003\vc7\atlmfc\include\cstringt.h
;	COMDAT ?Replace@?$CStringT@DV?$StrTraitMFC@DV?$ChTraitsCRT@D@ATL@@@@@ATL@@QAEHPBD0@Z
_TEXT	SEGMENT
_nReplacementLen$ = -32					; size = 4
_nOldLength$188901 = -28				; size = 4
_this$ = -24						; size = 4
_nSourceLen$ = -20					; size = 4
_pszBuffer$188903 = -16					; size = 4
_pszEnd$188892 = -12					; size = 4
_nCount$ = -12						; size = 4
_pszEnd$188905 = -8					; size = 4
_nNewLength$188902 = -4					; size = 4
_pszOld$ = 8						; size = 4
_pszNew$ = 12						; size = 4
?Replace@?$CStringT@DV?$StrTraitMFC@DV?$ChTraitsCRT@D@ATL@@@@@ATL@@QAEHPBD0@Z PROC NEAR ; ATL::CStringT<char,StrTraitMFC<char,ATL::ChTraitsCRT<char> > >::Replace, COMDAT
; _this$ = ecx

; 1230 : 	{

  00000	83 ec 20	 sub	 esp, 32			; 00000020H
  00003	53		 push	 ebx

; 1231 : 		// can't have empty or NULL lpszOld
; 1232 : 
; 1233 : 		// nSourceLen is in XCHARs
; 1234 : 		int nSourceLen = StringTraits::SafeStringLen( pszOld );

  00004	8b 5c 24 28	 mov	 ebx, DWORD PTR _pszOld$[esp+32]
  00008	55		 push	 ebp
  00009	56		 push	 esi
  0000a	33 ed		 xor	 ebp, ebp
  0000c	3b dd		 cmp	 ebx, ebp
  0000e	8b f1		 mov	 esi, ecx
  00010	57		 push	 edi
  00011	89 74 24 18	 mov	 DWORD PTR _this$[esp+48], esi
  00015	74 1a		 je	 SHORT $L193530
  00017	8b fb		 mov	 edi, ebx
  00019	8d 4f 01	 lea	 ecx, DWORD PTR [edi+1]
  0001c	8d 64 24 00	 npad	 4
$L193531:
  00020	8a 07		 mov	 al, BYTE PTR [edi]
  00022	47		 inc	 edi
  00023	84 c0		 test	 al, al
  00025	75 f9		 jne	 SHORT $L193531
  00027	2b f9		 sub	 edi, ecx

; 1235 : 		if( nSourceLen == 0 )

  00029	3b fd		 cmp	 edi, ebp
  0002b	89 7c 24 1c	 mov	 DWORD PTR _nSourceLen$[esp+48], edi
  0002f	75 0c		 jne	 SHORT $L188888
$L193530:
  00031	5f		 pop	 edi
  00032	5e		 pop	 esi
  00033	5d		 pop	 ebp

; 1236 : 			return( 0 );

  00034	33 c0		 xor	 eax, eax
  00036	5b		 pop	 ebx

; 1291 : 	}

  00037	83 c4 20	 add	 esp, 32			; 00000020H
  0003a	c2 08 00	 ret	 8
$L188888:

; 1237 : 		// nReplacementLen is in XCHARs
; 1238 : 		int nReplacementLen = StringTraits::SafeStringLen( pszNew );

  0003d	8b 44 24 38	 mov	 eax, DWORD PTR _pszNew$[esp+44]
  00041	3b c5		 cmp	 eax, ebp
  00043	74 12		 je	 SHORT $L193422
  00045	8d 50 01	 lea	 edx, DWORD PTR [eax+1]
$L193532:
  00048	8a 08		 mov	 cl, BYTE PTR [eax]
  0004a	40		 inc	 eax
  0004b	84 c9		 test	 cl, cl
  0004d	75 f9		 jne	 SHORT $L193532
  0004f	2b c2		 sub	 eax, edx
  00051	89 44 24 10	 mov	 DWORD PTR _nReplacementLen$[esp+48], eax
  00055	eb 04		 jmp	 SHORT $L193423
$L193422:
  00057	89 6c 24 10	 mov	 DWORD PTR _nReplacementLen$[esp+48], ebp
$L193423:

; 1239 : 
; 1240 : 		// loop once to figure out the size of the result string
; 1241 : 		int nCount = 0;
; 1242 : 		{
; 1243 : 			PCXSTR pszStart = GetString();

  0005b	8b 36		 mov	 esi, DWORD PTR [esi]

; 1244 : 			PCXSTR pszEnd = pszStart+GetLength();

  0005d	8b 46 f4	 mov	 eax, DWORD PTR [esi-12]
  00060	03 c6		 add	 eax, esi

; 1245 : 			while( pszStart < pszEnd )

  00062	3b f0		 cmp	 esi, eax
  00064	89 6c 24 24	 mov	 DWORD PTR _nCount$[esp+48], ebp
  00068	89 44 24 24	 mov	 DWORD PTR _pszEnd$188892[esp+48], eax
  0006c	0f 83 6f 01 00
	00		 jae	 $L193511
$L188894:

; 1246 : 			{
; 1247 : 				PCXSTR pszTarget;
; 1248 : 				while( (pszTarget = StringTraits::StringFindString( pszStart, pszOld ) ) != NULL)

  00072	53		 push	 ebx
  00073	56		 push	 esi
  00074	e8 00 00 00 00	 call	 __mbsstr
  00079	83 c4 08	 add	 esp, 8
  0007c	85 c0		 test	 eax, eax
  0007e	74 12		 je	 SHORT $L188899
$L188898:

; 1249 : 				{
; 1250 : 					nCount++;
; 1251 : 					pszStart = pszTarget+nSourceLen;

  00080	8d 34 38	 lea	 esi, DWORD PTR [eax+edi]
  00083	53		 push	 ebx
  00084	56		 push	 esi
  00085	45		 inc	 ebp
  00086	e8 00 00 00 00	 call	 __mbsstr
  0008b	83 c4 08	 add	 esp, 8
  0008e	85 c0		 test	 eax, eax
  00090	75 ee		 jne	 SHORT $L188898
$L188899:

; 1252 : 				}
; 1253 : 				pszStart += StringTraits::SafeStringLen( pszStart )+1;

  00092	85 f6		 test	 esi, esi
  00094	74 15		 je	 SHORT $L193444
  00096	8b c6		 mov	 eax, esi
  00098	8d 50 01	 lea	 edx, DWORD PTR [eax+1]
  0009b	eb 03 8d 49 00	 npad	 5
$L193533:
  000a0	8a 08		 mov	 cl, BYTE PTR [eax]
  000a2	40		 inc	 eax
  000a3	84 c9		 test	 cl, cl
  000a5	75 f9		 jne	 SHORT $L193533
  000a7	2b c2		 sub	 eax, edx
  000a9	eb 02		 jmp	 SHORT $L193445
$L193444:
  000ab	33 c0		 xor	 eax, eax
$L193445:
  000ad	8d 74 06 01	 lea	 esi, DWORD PTR [esi+eax+1]
  000b1	3b 74 24 24	 cmp	 esi, DWORD PTR _pszEnd$188892[esp+48]
  000b5	72 bb		 jb	 SHORT $L188894

; 1254 : 			}
; 1255 : 		}
; 1256 : 
; 1257 : 		// if any changes were made, make them
; 1258 : 		if( nCount > 0 )

  000b7	85 ed		 test	 ebp, ebp
  000b9	89 6c 24 24	 mov	 DWORD PTR _nCount$[esp+48], ebp
  000bd	0f 8e 1e 01 00
	00		 jle	 $L193511

; 1259 : 		{
; 1260 : 			// if the buffer is too small, just
; 1261 : 			//   allocate a new buffer (slow but sure)
; 1262 : 			int nOldLength = GetLength();
; 1263 : 			int nNewLength = nOldLength+(nReplacementLen-nSourceLen)*nCount;

  000c3	8b 5c 24 10	 mov	 ebx, DWORD PTR _nReplacementLen$[esp+48]
  000c7	8b 44 24 18	 mov	 eax, DWORD PTR _this$[esp+48]
  000cb	8b 08		 mov	 ecx, DWORD PTR [eax]
  000cd	8b 41 f4	 mov	 eax, DWORD PTR [ecx-12]
  000d0	2b df		 sub	 ebx, edi
  000d2	0f af dd	 imul	 ebx, ebp
  000d5	03 d8		 add	 ebx, eax

; 1264 : 
; 1265 : 			PXSTR pszBuffer = GetBuffer( max( nNewLength, nOldLength ) );

  000d7	3b d8		 cmp	 ebx, eax
  000d9	89 44 24 14	 mov	 DWORD PTR _nOldLength$188901[esp+48], eax
  000dd	89 5c 24 2c	 mov	 DWORD PTR _nNewLength$188902[esp+48], ebx
  000e1	7e 02		 jle	 SHORT $L193409
  000e3	8b c3		 mov	 eax, ebx
$L193409:
  000e5	8b 71 fc	 mov	 esi, DWORD PTR [ecx-4]
  000e8	8b 49 f8	 mov	 ecx, DWORD PTR [ecx-8]
  000eb	ba 01 00 00 00	 mov	 edx, 1
  000f0	2b d6		 sub	 edx, esi
  000f2	2b c8		 sub	 ecx, eax
  000f4	0b d1		 or	 edx, ecx
  000f6	7d 0a		 jge	 SHORT $L193537
  000f8	8b 4c 24 18	 mov	 ecx, DWORD PTR _this$[esp+48]
  000fc	50		 push	 eax
  000fd	e8 00 00 00 00	 call	 ?PrepareWrite2@?$CSimpleStringT@D$0A@@ATL@@AAEXH@Z ; ATL::CSimpleStringT<char,0>::PrepareWrite2
$L193537:
  00102	8b 54 24 18	 mov	 edx, DWORD PTR _this$[esp+48]
  00106	8b 2a		 mov	 ebp, DWORD PTR [edx]

; 1266 : 
; 1267 : 			PXSTR pszStart = pszBuffer;
; 1268 : 			PXSTR pszEnd = pszStart+nOldLength;

  00108	8b 44 24 14	 mov	 eax, DWORD PTR _nOldLength$188901[esp+48]
  0010c	03 c5		 add	 eax, ebp

; 1269 : 
; 1270 : 			// loop again to actually do the work
; 1271 : 			while( pszStart < pszEnd )

  0010e	3b e8		 cmp	 ebp, eax
  00110	89 6c 24 20	 mov	 DWORD PTR _pszBuffer$188903[esp+48], ebp
  00114	8b f5		 mov	 esi, ebp
  00116	89 44 24 28	 mov	 DWORD PTR _pszEnd$188905[esp+48], eax
  0011a	0f 83 a5 00 00
	00		 jae	 $L188908
$L188907:

; 1272 : 			{
; 1273 : 				PXSTR pszTarget;
; 1274 : 				while( (pszTarget = StringTraits::StringFindString( pszStart, pszOld ) ) != NULL )

  00120	8b 4c 24 34	 mov	 ecx, DWORD PTR _pszOld$[esp+44]
  00124	51		 push	 ecx
  00125	56		 push	 esi
  00126	e8 00 00 00 00	 call	 __mbsstr
  0012b	8b d8		 mov	 ebx, eax
  0012d	83 c4 08	 add	 esp, 8
  00130	85 db		 test	 ebx, ebx
  00132	74 69		 je	 SHORT $L188912
$L193535:

; 1275 : 				{
; 1276 : 					int nBalance = nOldLength-int(pszTarget-pszBuffer+nSourceLen);

  00134	8b 54 24 14	 mov	 edx, DWORD PTR _nOldLength$188901[esp+48]

; 1277 : 					memmove( pszTarget+nReplacementLen, pszTarget+nSourceLen, nBalance*sizeof( XCHAR ) );

  00138	8b 74 24 10	 mov	 esi, DWORD PTR _nReplacementLen$[esp+48]
  0013c	2b eb		 sub	 ebp, ebx
  0013e	2b ef		 sub	 ebp, edi
  00140	03 ea		 add	 ebp, edx
  00142	55		 push	 ebp
  00143	8d 14 3b	 lea	 edx, DWORD PTR [ebx+edi]
  00146	8d 04 33	 lea	 eax, DWORD PTR [ebx+esi]
  00149	52		 push	 edx
  0014a	50		 push	 eax
  0014b	e8 00 00 00 00	 call	 _memmove
  00150	8b 54 24 40	 mov	 edx, DWORD PTR _pszOld$[esp+56]

; 1278 : 
; 1279 : 					memcpy( pszTarget, pszNew, nReplacementLen*sizeof( XCHAR ) );

  00154	8b ce		 mov	 ecx, esi
  00156	8b 74 24 44	 mov	 esi, DWORD PTR _pszNew$[esp+56]
  0015a	8b c1		 mov	 eax, ecx
  0015c	c1 e9 02	 shr	 ecx, 2
  0015f	8b fb		 mov	 edi, ebx
  00161	f3 a5		 rep movsd
  00163	8b c8		 mov	 ecx, eax
  00165	83 e1 03	 and	 ecx, 3

; 1280 : 					pszStart = pszTarget+nReplacementLen;
; 1281 : 					pszTarget[nReplacementLen+nBalance] = 0;

  00168	03 eb		 add	 ebp, ebx
  0016a	f3 a4		 rep movsb
  0016c	8b c8		 mov	 ecx, eax
  0016e	c6 04 28 00	 mov	 BYTE PTR [eax+ebp], 0

; 1282 : 					nOldLength += (nReplacementLen-nSourceLen);

  00172	8b 6c 24 28	 mov	 ebp, DWORD PTR _nSourceLen$[esp+60]
  00176	8d 34 0b	 lea	 esi, DWORD PTR [ebx+ecx]
  00179	8b 5c 24 20	 mov	 ebx, DWORD PTR _nOldLength$188901[esp+60]
  0017d	2b c5		 sub	 eax, ebp
  0017f	52		 push	 edx
  00180	03 d8		 add	 ebx, eax
  00182	56		 push	 esi
  00183	89 5c 24 28	 mov	 DWORD PTR _nOldLength$188901[esp+68], ebx
  00187	e8 00 00 00 00	 call	 __mbsstr
  0018c	8b 6c 24 34	 mov	 ebp, DWORD PTR _pszBuffer$188903[esp+68]
  00190	8b 7c 24 30	 mov	 edi, DWORD PTR _nSourceLen$[esp+68]
  00194	8b d8		 mov	 ebx, eax
  00196	83 c4 14	 add	 esp, 20			; 00000014H
  00199	85 db		 test	 ebx, ebx
  0019b	75 97		 jne	 SHORT $L193535
$L188912:

; 1283 : 				}
; 1284 : 				pszStart += StringTraits::SafeStringLen( pszStart )+1;

  0019d	85 f6		 test	 esi, esi
  0019f	74 10		 je	 SHORT $L193492
  001a1	8b c6		 mov	 eax, esi
  001a3	8d 50 01	 lea	 edx, DWORD PTR [eax+1]
$L193534:
  001a6	8a 08		 mov	 cl, BYTE PTR [eax]
  001a8	40		 inc	 eax
  001a9	84 c9		 test	 cl, cl
  001ab	75 f9		 jne	 SHORT $L193534
  001ad	2b c2		 sub	 eax, edx
  001af	eb 02		 jmp	 SHORT $L193493
$L193492:
  001b1	33 c0		 xor	 eax, eax
$L193493:
  001b3	8d 74 06 01	 lea	 esi, DWORD PTR [esi+eax+1]
  001b7	3b 74 24 28	 cmp	 esi, DWORD PTR _pszEnd$188905[esp+48]
  001bb	0f 82 5f ff ff
	ff		 jb	 $L188907

; 1269 : 
; 1270 : 			// loop again to actually do the work
; 1271 : 			while( pszStart < pszEnd )

  001c1	8b 5c 24 2c	 mov	 ebx, DWORD PTR _nNewLength$188902[esp+48]
$L188908:

; 1285 : 			}
; 1286 : 			ATLASSERT( pszBuffer[nNewLength] == 0 );
; 1287 : 			ReleaseBufferSetLength( nNewLength );

  001c5	85 db		 test	 ebx, ebx
  001c7	7c 24		 jl	 SHORT $L193515
  001c9	8b 4c 24 18	 mov	 ecx, DWORD PTR _this$[esp+48]
  001cd	8b 01		 mov	 eax, DWORD PTR [ecx]
  001cf	3b 58 f8	 cmp	 ebx, DWORD PTR [eax-8]
  001d2	7f 19		 jg	 SHORT $L193515
  001d4	8b 6c 24 24	 mov	 ebp, DWORD PTR _nCount$[esp+48]
  001d8	89 58 f4	 mov	 DWORD PTR [eax-12], ebx
  001db	8b 01		 mov	 eax, DWORD PTR [ecx]
  001dd	c6 04 03 00	 mov	 BYTE PTR [ebx+eax], 0
$L193511:
  001e1	5f		 pop	 edi
  001e2	5e		 pop	 esi

; 1288 : 		}
; 1289 : 
; 1290 : 		return( nCount );

  001e3	8b c5		 mov	 eax, ebp
  001e5	5d		 pop	 ebp
  001e6	5b		 pop	 ebx

; 1291 : 	}

  001e7	83 c4 20	 add	 esp, 32			; 00000020H
  001ea	c2 08 00	 ret	 8

; 1285 : 			}
; 1286 : 			ATLASSERT( pszBuffer[nNewLength] == 0 );
; 1287 : 			ReleaseBufferSetLength( nNewLength );

$L193515:
  001ed	68 57 00 07 80	 push	 -2147024809		; 80070057H
  001f2	e8 00 00 00 00	 call	 ?AtlThrow@ATL@@YGXJ@Z	; ATL::AtlThrow
$L193538:
  001f7	cc		 int	 3
?Replace@?$CStringT@DV?$StrTraitMFC@DV?$ChTraitsCRT@D@ATL@@@@@ATL@@QAEHPBD0@Z ENDP ; ATL::CStringT<char,StrTraitMFC<char,ATL::ChTraitsCRT<char> > >::Replace
_TEXT	ENDS
PUBLIC	??0?$list@PAU_EVENT_GENERIC@@V?$allocator@PAU_EVENT_GENERIC@@@std@@@std@@QAE@XZ ; std::list<_EVENT_GENERIC *,std::allocator<_EVENT_GENERIC *> >::list<_EVENT_GENERIC *,std::allocator<_EVENT_GENERIC *> >
; Function compile flags: /Ogty
; File c:\program files\microsoft visual studio .net 2003\vc7\include\list
;	COMDAT ??0?$list@PAU_EVENT_GENERIC@@V?$allocator@PAU_EVENT_GENERIC@@@std@@@std@@QAE@XZ
_TEXT	SEGMENT
??0?$list@PAU_EVENT_GENERIC@@V?$allocator@PAU_EVENT_GENERIC@@@std@@@std@@QAE@XZ PROC NEAR ; std::list<_EVENT_GENERIC *,std::allocator<_EVENT_GENERIC *> >::list<_EVENT_GENERIC *,std::allocator<_EVENT_GENERIC *> >, COMDAT
; _this$ = ecx

; 280  : 		{	// construct empty list

  00000	56		 push	 esi
  00001	8b f1		 mov	 esi, ecx
  00003	e8 00 00 00 00	 call	 ?_Buynode@?$list@PAU_EVENT_GENERIC@@V?$allocator@PAU_EVENT_GENERIC@@@std@@@std@@IAEPAU_Node@?$_List_nod@PAU_EVENT_GENERIC@@V?$allocator@PAU_EVENT_GENERIC@@@std@@@2@XZ ; std::list<_EVENT_GENERIC *,std::allocator<_EVENT_GENERIC *> >::_Buynode
  00008	89 46 04	 mov	 DWORD PTR [esi+4], eax
  0000b	c7 46 08 00 00
	00 00		 mov	 DWORD PTR [esi+8], 0

; 281  : 		}

  00012	8b c6		 mov	 eax, esi
  00014	5e		 pop	 esi
  00015	c3		 ret	 0
??0?$list@PAU_EVENT_GENERIC@@V?$allocator@PAU_EVENT_GENERIC@@@std@@@std@@QAE@XZ ENDP ; std::list<_EVENT_GENERIC *,std::allocator<_EVENT_GENERIC *> >::list<_EVENT_GENERIC *,std::allocator<_EVENT_GENERIC *> >
_TEXT	ENDS
PUBLIC	??0?$list@PAVCEventItem@@V?$allocator@PAVCEventItem@@@std@@@std@@QAE@XZ ; std::list<CEventItem *,std::allocator<CEventItem *> >::list<CEventItem *,std::allocator<CEventItem *> >
; Function compile flags: /Ogty
;	COMDAT ??0?$list@PAVCEventItem@@V?$allocator@PAVCEventItem@@@std@@@std@@QAE@XZ
_TEXT	SEGMENT
??0?$list@PAVCEventItem@@V?$allocator@PAVCEventItem@@@std@@@std@@QAE@XZ PROC NEAR ; std::list<CEventItem *,std::allocator<CEventItem *> >::list<CEventItem *,std::allocator<CEventItem *> >, COMDAT
; _this$ = ecx

; 280  : 		{	// construct empty list

  00000	56		 push	 esi
  00001	8b f1		 mov	 esi, ecx
  00003	e8 00 00 00 00	 call	 ?_Buynode@?$list@PAVCEventItem@@V?$allocator@PAVCEventItem@@@std@@@std@@IAEPAU_Node@?$_List_nod@PAVCEventItem@@V?$allocator@PAVCEventItem@@@std@@@2@XZ ; std::list<CEventItem *,std::allocator<CEventItem *> >::_Buynode
  00008	89 46 04	 mov	 DWORD PTR [esi+4], eax
  0000b	c7 46 08 00 00
	00 00		 mov	 DWORD PTR [esi+8], 0

; 281  : 		}

  00012	8b c6		 mov	 eax, esi
  00014	5e		 pop	 esi
  00015	c3		 ret	 0
??0?$list@PAVCEventItem@@V?$allocator@PAVCEventItem@@@std@@@std@@QAE@XZ ENDP ; std::list<CEventItem *,std::allocator<CEventItem *> >::list<CEventItem *,std::allocator<CEventItem *> >
_TEXT	ENDS
PUBLIC	??0?$_Tree@V?$_Tmap_traits@HPAV?$list@PAVCEventItem@@V?$allocator@PAVCEventItem@@@std@@@std@@U?$less@H@2@V?$allocator@U?$pair@$$CBHPAV?$list@PAVCEventItem@@V?$allocator@PAVCEventItem@@@std@@@std@@@std@@@2@$0A@@std@@@std@@QAE@ABU?$less@H@1@ABV?$allocator@U?$pair@$$CBHPAV?$list@PAVCEventItem@@V?$allocator@PAVCEventItem@@@std@@@std@@@std@@@1@@Z ; std::_Tree<std::_Tmap_traits<int,std::list<CEventItem *,std::allocator<CEventItem *> > *,std::less<int>,std::allocator<std::pair<int const ,std::list<CEventItem *,std::allocator<CEventItem *> > *> >,0> >::_Tree<std::_Tmap_traits<int,std::list<CEventItem *,std::allocator<CEventItem *> > *,std::less<int>,std::allocator<std::pair<int const ,std::list<CEventItem *,std::allocator<CEventItem *> > *> >,0> >
; Function compile flags: /Ogty
; File c:\program files\microsoft visual studio .net 2003\vc7\include\xtree
;	COMDAT ??0?$_Tree@V?$_Tmap_traits@HPAV?$list@PAVCEventItem@@V?$allocator@PAVCEventItem@@@std@@@std@@U?$less@H@2@V?$allocator@U?$pair@$$CBHPAV?$list@PAVCEventItem@@V?$allocator@PAVCEventItem@@@std@@@std@@@std@@@2@$0A@@std@@@std@@QAE@ABU?$less@H@1@ABV?$allocator@U?$pair@$$CBHPAV?$list@PAVCEventItem@@V?$allocator@PAVCEventItem@@@std@@@std@@@std@@@1@@Z
_TEXT	SEGMENT
__Parg$ = 8						; size = 4
__Al$ = 12						; size = 4
??0?$_Tree@V?$_Tmap_traits@HPAV?$list@PAVCEventItem@@V?$allocator@PAVCEventItem@@@std@@@std@@U?$less@H@2@V?$allocator@U?$pair@$$CBHPAV?$list@PAVCEventItem@@V?$allocator@PAVCEventItem@@@std@@@std@@@std@@@2@$0A@@std@@@std@@QAE@ABU?$less@H@1@ABV?$allocator@U?$pair@$$CBHPAV?$list@PAVCEventItem@@V?$allocator@PAVCEventItem@@@std@@@std@@@std@@@1@@Z PROC NEAR ; std::_Tree<std::_Tmap_traits<int,std::list<CEventItem *,std::allocator<CEventItem *> > *,std::less<int>,std::allocator<std::pair<int const ,std::list<CEventItem *,std::allocator<CEventItem *> > *> >,0> >::_Tree<std::_Tmap_traits<int,std::list<CEventItem *,std::allocator<CEventItem *> > *,std::less<int>,std::allocator<std::pair<int const ,std::list<CEventItem *,std::allocator<CEventItem *> > *> >,0> >, COMDAT
; _this$ = ecx

; 361  : 		{	// construct empty tree

  00000	56		 push	 esi
  00001	8b f1		 mov	 esi, ecx

; 362  : 		_Init();

  00003	e8 00 00 00 00	 call	 ?_Buynode@?$_Tree@V?$_Tmap_traits@HPAV?$list@PAVCEventItem@@V?$allocator@PAVCEventItem@@@std@@@std@@U?$less@H@2@V?$allocator@U?$pair@$$CBHPAV?$list@PAVCEventItem@@V?$allocator@PAVCEventItem@@@std@@@std@@@std@@@2@$0A@@std@@@std@@IAEPAU_Node@?$_Tree_nod@V?$_Tmap_traits@HPAV?$list@PAVCEventItem@@V?$allocator@PAVCEventItem@@@std@@@std@@U?$less@H@2@V?$allocator@U?$pair@$$CBHPAV?$list@PAVCEventItem@@V?$allocator@PAVCEventItem@@@std@@@std@@@std@@@2@$0A@@std@@@2@XZ ; std::_Tree<std::_Tmap_traits<int,std::list<CEventItem *,std::allocator<CEventItem *> > *,std::less<int>,std::allocator<std::pair<int const ,std::list<CEventItem *,std::allocator<CEventItem *> > *> >,0> >::_Buynode
  00008	89 46 04	 mov	 DWORD PTR [esi+4], eax
  0000b	c6 40 15 01	 mov	 BYTE PTR [eax+21], 1
  0000f	8b 46 04	 mov	 eax, DWORD PTR [esi+4]
  00012	89 40 04	 mov	 DWORD PTR [eax+4], eax
  00015	8b 46 04	 mov	 eax, DWORD PTR [esi+4]
  00018	89 00		 mov	 DWORD PTR [eax], eax
  0001a	8b 46 04	 mov	 eax, DWORD PTR [esi+4]
  0001d	89 40 08	 mov	 DWORD PTR [eax+8], eax
  00020	c7 46 08 00 00
	00 00		 mov	 DWORD PTR [esi+8], 0

; 363  : 		}

  00027	8b c6		 mov	 eax, esi
  00029	5e		 pop	 esi
  0002a	c2 08 00	 ret	 8
??0?$_Tree@V?$_Tmap_traits@HPAV?$list@PAVCEventItem@@V?$allocator@PAVCEventItem@@@std@@@std@@U?$less@H@2@V?$allocator@U?$pair@$$CBHPAV?$list@PAVCEventItem@@V?$allocator@PAVCEventItem@@@std@@@std@@@std@@@2@$0A@@std@@@std@@QAE@ABU?$less@H@1@ABV?$allocator@U?$pair@$$CBHPAV?$list@PAVCEventItem@@V?$allocator@PAVCEventItem@@@std@@@std@@@std@@@1@@Z ENDP ; std::_Tree<std::_Tmap_traits<int,std::list<CEventItem *,std::allocator<CEventItem *> > *,std::less<int>,std::allocator<std::pair<int const ,std::list<CEventItem *,std::allocator<CEventItem *> > *> >,0> >::_Tree<std::_Tmap_traits<int,std::list<CEventItem *,std::allocator<CEventItem *> > *,std::less<int>,std::allocator<std::pair<int const ,std::list<CEventItem *,std::allocator<CEventItem *> > *> >,0> >
_TEXT	ENDS
PUBLIC	??_7logic_error@std@@6B@			; std::logic_error::`vftable'
PUBLIC	??_Glogic_error@std@@UAEPAXI@Z			; std::logic_error::`scalar deleting destructor'
PUBLIC	??1logic_error@std@@UAE@XZ			; std::logic_error::~logic_error
PUBLIC	?what@logic_error@std@@UBEPBDXZ			; std::logic_error::what
EXTRN	??_Elogic_error@std@@UAEPAXI@Z:NEAR		; std::logic_error::`vector deleting destructor'
EXTRN	??1exception@@UAE@XZ:NEAR			; exception::~exception
;	COMDAT ??_7logic_error@std@@6B@
; File c:\program files\microsoft visual studio .net 2003\vc7\include\iosfwd
CONST	SEGMENT
??_7logic_error@std@@6B@ DD FLAT:??_Elogic_error@std@@UAEPAXI@Z ; std::logic_error::`vftable'
	DD	FLAT:?what@logic_error@std@@UBEPBDXZ
; Function compile flags: /Ogty
; File c:\program files\microsoft visual studio .net 2003\vc7\include\stdexcept
CONST	ENDS
;	COMDAT ??1logic_error@std@@UAE@XZ
_TEXT	SEGMENT
??1logic_error@std@@UAE@XZ PROC NEAR			; std::logic_error::~logic_error, COMDAT
; _this$ = ecx

; 23   : 		{}	// destroy the object

  00000	56		 push	 esi
  00001	8b f1		 mov	 esi, ecx
  00003	c7 06 00 00 00
	00		 mov	 DWORD PTR [esi], OFFSET FLAT:??_7logic_error@std@@6B@
  00009	83 7e 24 10	 cmp	 DWORD PTR [esi+36], 16	; 00000010H
  0000d	72 0c		 jb	 SHORT $L193854
  0000f	8b 46 10	 mov	 eax, DWORD PTR [esi+16]
  00012	50		 push	 eax
  00013	e8 00 00 00 00	 call	 ??3@YAXPAX@Z		; operator delete
  00018	83 c4 04	 add	 esp, 4
$L193854:
  0001b	33 c0		 xor	 eax, eax
  0001d	c7 46 24 0f 00
	00 00		 mov	 DWORD PTR [esi+36], 15	; 0000000fH
  00024	89 46 20	 mov	 DWORD PTR [esi+32], eax
  00027	88 46 10	 mov	 BYTE PTR [esi+16], al
  0002a	8b ce		 mov	 ecx, esi
  0002c	5e		 pop	 esi
  0002d	e9 00 00 00 00	 jmp	 ??1exception@@UAE@XZ	; exception::~exception
??1logic_error@std@@UAE@XZ ENDP				; std::logic_error::~logic_error
; Function compile flags: /Ogty
_TEXT	ENDS
;	COMDAT ?what@logic_error@std@@UBEPBDXZ
_TEXT	SEGMENT
?what@logic_error@std@@UBEPBDXZ PROC NEAR		; std::logic_error::what, COMDAT
; _this$ = ecx

; 27   : 		return (_Str.c_str());

  00000	83 79 24 10	 cmp	 DWORD PTR [ecx+36], 16	; 00000010H
  00004	72 04		 jb	 SHORT $L193880
  00006	8b 41 10	 mov	 eax, DWORD PTR [ecx+16]

; 28   : 		}

  00009	c3		 ret	 0

; 27   : 		return (_Str.c_str());

$L193880:
  0000a	8d 41 10	 lea	 eax, DWORD PTR [ecx+16]

; 28   : 		}

  0000d	c3		 ret	 0
?what@logic_error@std@@UBEPBDXZ ENDP			; std::logic_error::what
; Function compile flags: /Ogty
_TEXT	ENDS
;	COMDAT ??_Glogic_error@std@@UAEPAXI@Z
_TEXT	SEGMENT
___flags$ = 8						; size = 4
??_Glogic_error@std@@UAEPAXI@Z PROC NEAR		; std::logic_error::`scalar deleting destructor', COMDAT
; _this$ = ecx
  00000	56		 push	 esi
  00001	8b f1		 mov	 esi, ecx
  00003	e8 00 00 00 00	 call	 ??1logic_error@std@@UAE@XZ ; std::logic_error::~logic_error
  00008	f6 44 24 08 01	 test	 BYTE PTR ___flags$[esp], 1
  0000d	74 09		 je	 SHORT $L193886
  0000f	56		 push	 esi
  00010	e8 00 00 00 00	 call	 ??3@YAXPAX@Z		; operator delete
  00015	83 c4 04	 add	 esp, 4
$L193886:
  00018	8b c6		 mov	 eax, esi
  0001a	5e		 pop	 esi
  0001b	c2 04 00	 ret	 4
??_Glogic_error@std@@UAEPAXI@Z ENDP			; std::logic_error::`scalar deleting destructor'
_TEXT	ENDS
PUBLIC	?LoadStringA@?$CStringT@DV?$StrTraitMFC@DV?$ChTraitsCRT@D@ATL@@@@@ATL@@QAEHI@Z ; ATL::CStringT<char,StrTraitMFC<char,ATL::ChTraitsCRT<char> > >::LoadStringA
; Function compile flags: /Ogty
; File c:\program files\microsoft visual studio .net 2003\vc7\atlmfc\include\cstringt.h
;	COMDAT ?LoadStringA@?$CStringT@DV?$StrTraitMFC@DV?$ChTraitsCRT@D@ATL@@@@@ATL@@QAEHI@Z
_TEXT	SEGMENT
_nID$ = 8						; size = 4
?LoadStringA@?$CStringT@DV?$StrTraitMFC@DV?$ChTraitsCRT@D@ATL@@@@@ATL@@QAEHI@Z PROC NEAR ; ATL::CStringT<char,StrTraitMFC<char,ATL::ChTraitsCRT<char> > >::LoadStringA, COMDAT
; _this$ = ecx

; 1969 : 	{

  00000	56		 push	 esi
  00001	57		 push	 edi

; 1970 : 		HINSTANCE hInst = StringTraits::FindStringResourceInstance( nID );

  00002	8b 7c 24 0c	 mov	 edi, DWORD PTR _nID$[esp+4]
  00006	57		 push	 edi
  00007	8b f1		 mov	 esi, ecx
  00009	e8 00 00 00 00	 call	 ?AfxFindStringResourceHandle@@YGPAUHINSTANCE__@@I@Z ; AfxFindStringResourceHandle

; 1971 : 		if( hInst == NULL )

  0000e	85 c0		 test	 eax, eax
  00010	75 05		 jne	 SHORT $L183105
  00012	5f		 pop	 edi
  00013	5e		 pop	 esi

; 1977 : 	}

  00014	c2 04 00	 ret	 4
$L183105:

; 1972 : 		{
; 1973 : 			return( FALSE );
; 1974 : 		}
; 1975 : 
; 1976 : 		return( LoadString( hInst, nID ) );		

  00017	57		 push	 edi
  00018	50		 push	 eax
  00019	8b ce		 mov	 ecx, esi
  0001b	e8 00 00 00 00	 call	 ?LoadStringA@?$CStringT@DV?$StrTraitMFC@DV?$ChTraitsCRT@D@ATL@@@@@ATL@@QAEHPAUHINSTANCE__@@I@Z ; ATL::CStringT<char,StrTraitMFC<char,ATL::ChTraitsCRT<char> > >::LoadStringA
  00020	5f		 pop	 edi
  00021	5e		 pop	 esi

; 1977 : 	}

  00022	c2 04 00	 ret	 4
?LoadStringA@?$CStringT@DV?$StrTraitMFC@DV?$ChTraitsCRT@D@ATL@@@@@ATL@@QAEHI@Z ENDP ; ATL::CStringT<char,StrTraitMFC<char,ATL::ChTraitsCRT<char> > >::LoadStringA
_TEXT	ENDS
PUBLIC	?CheckImplicitLoad@?$CStringT@DV?$StrTraitMFC@DV?$ChTraitsCRT@D@ATL@@@@@ATL@@AAE_NPBX@Z ; ATL::CStringT<char,StrTraitMFC<char,ATL::ChTraitsCRT<char> > >::CheckImplicitLoad
; Function compile flags: /Ogty
;	COMDAT ?CheckImplicitLoad@?$CStringT@DV?$StrTraitMFC@DV?$ChTraitsCRT@D@ATL@@@@@ATL@@AAE_NPBX@Z
_TEXT	SEGMENT
_pv$ = 8						; size = 4
?CheckImplicitLoad@?$CStringT@DV?$StrTraitMFC@DV?$ChTraitsCRT@D@ATL@@@@@ATL@@AAE_NPBX@Z PROC NEAR ; ATL::CStringT<char,StrTraitMFC<char,ATL::ChTraitsCRT<char> > >::CheckImplicitLoad, COMDAT
; _this$ = ecx

; 2229 : 	{

  00000	57		 push	 edi
  00001	8b f9		 mov	 edi, ecx

; 2230 : 		bool bRet = false;
; 2231 : 
; 2232 : 		if( (pv != NULL) && IS_INTRESOURCE( pv ) )

  00003	8b 4c 24 08	 mov	 ecx, DWORD PTR _pv$[esp]
  00007	32 c0		 xor	 al, al
  00009	85 c9		 test	 ecx, ecx
  0000b	74 22		 je	 SHORT $L184190
  0000d	f7 c1 00 00 ff
	ff		 test	 ecx, -65536		; ffff0000H
  00013	75 1a		 jne	 SHORT $L184190
  00015	56		 push	 esi

; 2233 : 		{
; 2234 : 			UINT nID = LOWORD( reinterpret_cast< DWORD_PTR >( pv ) );

  00016	0f b7 f1	 movzx	 esi, cx

; 2235 : 			if( !LoadString( nID ) )

  00019	56		 push	 esi
  0001a	e8 00 00 00 00	 call	 ?AfxFindStringResourceHandle@@YGPAUHINSTANCE__@@I@Z ; AfxFindStringResourceHandle
  0001f	85 c0		 test	 eax, eax
  00021	74 09		 je	 SHORT $L193901
  00023	56		 push	 esi
  00024	50		 push	 eax
  00025	8b cf		 mov	 ecx, edi
  00027	e8 00 00 00 00	 call	 ?LoadStringA@?$CStringT@DV?$StrTraitMFC@DV?$ChTraitsCRT@D@ATL@@@@@ATL@@QAEHPAUHINSTANCE__@@I@Z ; ATL::CStringT<char,StrTraitMFC<char,ATL::ChTraitsCRT<char> > >::LoadStringA
$L193901:

; 2236 : 			{
; 2237 : 				ATLTRACE( atlTraceString, 2, _T( "Warning: implicit LoadString(%u) failed\n" ), nID );
; 2238 : 			}
; 2239 : 			bRet = true;

  0002c	b0 01		 mov	 al, 1
  0002e	5e		 pop	 esi
$L184190:
  0002f	5f		 pop	 edi

; 2240 : 		}
; 2241 : 
; 2242 : 		return( bRet );
; 2243 : 	}

  00030	c2 04 00	 ret	 4
?CheckImplicitLoad@?$CStringT@DV?$StrTraitMFC@DV?$ChTraitsCRT@D@ATL@@@@@ATL@@AAE_NPBX@Z ENDP ; ATL::CStringT<char,StrTraitMFC<char,ATL::ChTraitsCRT<char> > >::CheckImplicitLoad
_TEXT	ENDS
PUBLIC	?assign@?$basic_string@DU?$char_traits@D@std@@V?$allocator@D@2@@std@@QAEAAV12@ABV12@II@Z ; std::basic_string<char,std::char_traits<char>,std::allocator<char> >::assign
; Function compile flags: /Ogty
; File c:\program files\microsoft visual studio .net 2003\vc7\include\xstring
;	COMDAT ?assign@?$basic_string@DU?$char_traits@D@std@@V?$allocator@D@2@@std@@QAEAAV12@ABV12@II@Z
_TEXT	SEGMENT
__Right$ = 8						; size = 4
__Roff$ = 12						; size = 4
__Count$ = 16						; size = 4
?assign@?$basic_string@DU?$char_traits@D@std@@V?$allocator@D@2@@std@@QAEAAV12@ABV12@II@Z PROC NEAR ; std::basic_string<char,std::char_traits<char>,std::allocator<char> >::assign, COMDAT
; _this$ = ecx

; 590  : 		{	// assign _Right [_Roff, _Roff + _Count)

  00000	53		 push	 ebx
  00001	55		 push	 ebp
  00002	56		 push	 esi

; 591  : 		if (_Right.size() < _Roff)

  00003	8b 74 24 14	 mov	 esi, DWORD PTR __Roff$[esp+8]
  00007	57		 push	 edi
  00008	8b 7c 24 14	 mov	 edi, DWORD PTR __Right$[esp+12]
  0000c	39 77 14	 cmp	 DWORD PTR [edi+20], esi
  0000f	8b d9		 mov	 ebx, ecx
  00011	73 05		 jae	 SHORT $L184271

; 592  : 			_String_base::_Xran();	// _Roff off end

  00013	e8 00 00 00 00	 call	 ?_Xran@_String_base@std@@QBEXXZ ; std::_String_base::_Xran
$L184271:

; 593  : 		size_type _Num = _Right.size() - _Roff;

  00018	8b 6f 14	 mov	 ebp, DWORD PTR [edi+20]

; 594  : 		if (_Count < _Num)

  0001b	8b 44 24 1c	 mov	 eax, DWORD PTR __Count$[esp+12]
  0001f	2b ee		 sub	 ebp, esi
  00021	3b c5		 cmp	 eax, ebp
  00023	73 02		 jae	 SHORT $L184273

; 595  : 			_Num = _Count;	// trim _Num to size

  00025	8b e8		 mov	 ebp, eax
$L184273:

; 596  : 
; 597  : 		if (this == &_Right)

  00027	3b df		 cmp	 ebx, edi
  00029	75 1f		 jne	 SHORT $L184274

; 598  : 			erase((size_type)(_Roff + _Num)), erase(0, _Roff);	// substring

  0002b	6a ff		 push	 -1
  0002d	03 ee		 add	 ebp, esi
  0002f	55		 push	 ebp
  00030	8b cb		 mov	 ecx, ebx
  00032	e8 00 00 00 00	 call	 ?erase@?$basic_string@DU?$char_traits@D@std@@V?$allocator@D@2@@std@@QAEAAV12@II@Z ; std::basic_string<char,std::char_traits<char>,std::allocator<char> >::erase
  00037	56		 push	 esi
  00038	6a 00		 push	 0
  0003a	8b cb		 mov	 ecx, ebx
  0003c	e8 00 00 00 00	 call	 ?erase@?$basic_string@DU?$char_traits@D@std@@V?$allocator@D@2@@std@@QAEAAV12@II@Z ; std::basic_string<char,std::char_traits<char>,std::allocator<char> >::erase
  00041	5f		 pop	 edi
  00042	5e		 pop	 esi
  00043	5d		 pop	 ebp

; 603  : 			}
; 604  : 		return (*this);

  00044	8b c3		 mov	 eax, ebx
  00046	5b		 pop	 ebx

; 605  : 		}

  00047	c2 0c 00	 ret	 12			; 0000000cH
$L184274:

; 599  : 		else if (_Grow(_Num))

  0004a	83 fd fe	 cmp	 ebp, -2			; fffffffeH
  0004d	76 07		 jbe	 SHORT $L194056
  0004f	8b cb		 mov	 ecx, ebx
  00051	e8 00 00 00 00	 call	 ?_Xlen@_String_base@std@@QBEXXZ ; std::_String_base::_Xlen
$L194056:
  00056	8b 43 18	 mov	 eax, DWORD PTR [ebx+24]
  00059	3b c5		 cmp	 eax, ebp
  0005b	73 21		 jae	 SHORT $L194057
  0005d	8b 43 14	 mov	 eax, DWORD PTR [ebx+20]
  00060	50		 push	 eax
  00061	55		 push	 ebp
  00062	8b cb		 mov	 ecx, ebx
  00064	e8 00 00 00 00	 call	 ?_Copy@?$basic_string@DU?$char_traits@D@std@@V?$allocator@D@2@@std@@IAEXII@Z ; std::basic_string<char,std::char_traits<char>,std::allocator<char> >::_Copy
  00069	85 ed		 test	 ebp, ebp
$L194102:
  0006b	76 6d		 jbe	 SHORT $L194101

; 600  : 			{	// make room and assign new stuff
; 601  : 			_Traits::copy(_Myptr(), _Right._Myptr() + _Roff, _Num);

  0006d	8b 4f 18	 mov	 ecx, DWORD PTR [edi+24]
  00070	b8 10 00 00 00	 mov	 eax, 16			; 00000010H
  00075	3b c8		 cmp	 ecx, eax
  00077	72 2f		 jb	 SHORT $L194067
  00079	8b 57 04	 mov	 edx, DWORD PTR [edi+4]
  0007c	eb 2d		 jmp	 SHORT $L194068

; 599  : 		else if (_Grow(_Num))

$L194057:
  0007e	85 ed		 test	 ebp, ebp
  00080	75 e9		 jne	 SHORT $L194102
  00082	83 f8 10	 cmp	 eax, 16			; 00000010H
  00085	89 6b 14	 mov	 DWORD PTR [ebx+20], ebp
  00088	72 0f		 jb	 SHORT $L194049
  0008a	8b 43 04	 mov	 eax, DWORD PTR [ebx+4]
  0008d	5f		 pop	 edi
  0008e	5e		 pop	 esi
  0008f	c6 00 00	 mov	 BYTE PTR [eax], 0
  00092	5d		 pop	 ebp

; 603  : 			}
; 604  : 		return (*this);

  00093	8b c3		 mov	 eax, ebx
  00095	5b		 pop	 ebx

; 605  : 		}

  00096	c2 0c 00	 ret	 12			; 0000000cH

; 599  : 		else if (_Grow(_Num))

$L194049:
  00099	5f		 pop	 edi
  0009a	8d 43 04	 lea	 eax, DWORD PTR [ebx+4]
  0009d	5e		 pop	 esi
  0009e	c6 00 00	 mov	 BYTE PTR [eax], 0
  000a1	5d		 pop	 ebp

; 603  : 			}
; 604  : 		return (*this);

  000a2	8b c3		 mov	 eax, ebx
  000a4	5b		 pop	 ebx

; 605  : 		}

  000a5	c2 0c 00	 ret	 12			; 0000000cH

; 600  : 			{	// make room and assign new stuff
; 601  : 			_Traits::copy(_Myptr(), _Right._Myptr() + _Roff, _Num);

$L194067:
  000a8	8d 57 04	 lea	 edx, DWORD PTR [edi+4]
$L194068:
  000ab	39 43 18	 cmp	 DWORD PTR [ebx+24], eax
  000ae	8d 43 04	 lea	 eax, DWORD PTR [ebx+4]
  000b1	72 04		 jb	 SHORT $L194073
  000b3	8b 38		 mov	 edi, DWORD PTR [eax]
  000b5	eb 02		 jmp	 SHORT $L194074
$L194073:
  000b7	8b f8		 mov	 edi, eax
$L194074:
  000b9	03 f2		 add	 esi, edx
  000bb	8b cd		 mov	 ecx, ebp
  000bd	8b d1		 mov	 edx, ecx
  000bf	c1 e9 02	 shr	 ecx, 2
  000c2	f3 a5		 rep movsd
  000c4	8b ca		 mov	 ecx, edx
  000c6	83 e1 03	 and	 ecx, 3
  000c9	f3 a4		 rep movsb

; 602  : 			_Eos(_Num);

  000cb	83 7b 18 10	 cmp	 DWORD PTR [ebx+24], 16	; 00000010H
  000cf	89 6b 14	 mov	 DWORD PTR [ebx+20], ebp
  000d2	72 02		 jb	 SHORT $L194096
  000d4	8b 00		 mov	 eax, DWORD PTR [eax]
$L194096:
  000d6	c6 04 28 00	 mov	 BYTE PTR [eax+ebp], 0
$L194101:
  000da	5f		 pop	 edi
  000db	5e		 pop	 esi
  000dc	5d		 pop	 ebp

; 603  : 			}
; 604  : 		return (*this);

  000dd	8b c3		 mov	 eax, ebx
  000df	5b		 pop	 ebx

; 605  : 		}

  000e0	c2 0c 00	 ret	 12			; 0000000cH
?assign@?$basic_string@DU?$char_traits@D@std@@V?$allocator@D@2@@std@@QAEAAV12@ABV12@II@Z ENDP ; std::basic_string<char,std::char_traits<char>,std::allocator<char> >::assign
_TEXT	ENDS
PUBLIC	?SetString@?$CSimpleStringT@D$0A@@ATL@@QAEXPBD@Z ; ATL::CSimpleStringT<char,0>::SetString
; Function compile flags: /Ogty
; File c:\program files\microsoft visual studio .net 2003\vc7\atlmfc\include\atlsimpstr.h
;	COMDAT ?SetString@?$CSimpleStringT@D$0A@@ATL@@QAEXPBD@Z
_TEXT	SEGMENT
_pszSrc$ = 8						; size = 4
?SetString@?$CSimpleStringT@D$0A@@ATL@@QAEXPBD@Z PROC NEAR ; ATL::CSimpleStringT<char,0>::SetString, COMDAT
; _this$ = ecx

; 579  : 	{

  00000	56		 push	 esi

; 580  : 		SetString( pszSrc, StringLength( pszSrc ) );

  00001	8b 74 24 08	 mov	 esi, DWORD PTR _pszSrc$[esp]
  00005	85 f6		 test	 esi, esi
  00007	75 0d		 jne	 SHORT $L194108
  00009	33 c0		 xor	 eax, eax
  0000b	50		 push	 eax
  0000c	56		 push	 esi
  0000d	e8 00 00 00 00	 call	 ?SetString@?$CSimpleStringT@D$0A@@ATL@@QAEXPBDH@Z ; ATL::CSimpleStringT<char,0>::SetString
  00012	5e		 pop	 esi

; 581  : 	}

  00013	c2 04 00	 ret	 4

; 580  : 		SetString( pszSrc, StringLength( pszSrc ) );

$L194108:
  00016	8b c6		 mov	 eax, esi
  00018	57		 push	 edi
  00019	8d 78 01	 lea	 edi, DWORD PTR [eax+1]
  0001c	8d 64 24 00	 npad	 4
$L194110:
  00020	8a 10		 mov	 dl, BYTE PTR [eax]
  00022	40		 inc	 eax
  00023	84 d2		 test	 dl, dl
  00025	75 f9		 jne	 SHORT $L194110
  00027	2b c7		 sub	 eax, edi
  00029	5f		 pop	 edi
  0002a	50		 push	 eax
  0002b	56		 push	 esi
  0002c	e8 00 00 00 00	 call	 ?SetString@?$CSimpleStringT@D$0A@@ATL@@QAEXPBDH@Z ; ATL::CSimpleStringT<char,0>::SetString
  00031	5e		 pop	 esi

; 581  : 	}

  00032	c2 04 00	 ret	 4
?SetString@?$CSimpleStringT@D$0A@@ATL@@QAEXPBD@Z ENDP	; ATL::CSimpleStringT<char,0>::SetString
_TEXT	ENDS
PUBLIC	?assign@?$basic_string@DU?$char_traits@D@std@@V?$allocator@D@2@@std@@QAEAAV12@PBDI@Z ; std::basic_string<char,std::char_traits<char>,std::allocator<char> >::assign
; Function compile flags: /Ogty
; File c:\program files\microsoft visual studio .net 2003\vc7\include\xstring
;	COMDAT ?assign@?$basic_string@DU?$char_traits@D@std@@V?$allocator@D@2@@std@@QAEAAV12@PBDI@Z
_TEXT	SEGMENT
__Ptr$ = 8						; size = 4
__Num$ = 12						; size = 4
?assign@?$basic_string@DU?$char_traits@D@std@@V?$allocator@D@2@@std@@QAEAAV12@PBDI@Z PROC NEAR ; std::basic_string<char,std::char_traits<char>,std::allocator<char> >::assign, COMDAT
; _this$ = ecx

; 608  : 		{	// assign [_Ptr, _Ptr + _Num)

  00000	53		 push	 ebx
  00001	8b d9		 mov	 ebx, ecx

; 609  : 		if (_Inside(_Ptr))

  00003	8b 53 18	 mov	 edx, DWORD PTR [ebx+24]
  00006	83 fa 10	 cmp	 edx, 16			; 00000010H
  00009	56		 push	 esi
  0000a	57		 push	 edi
  0000b	72 05		 jb	 SHORT $L194134
  0000d	8b 43 04	 mov	 eax, DWORD PTR [ebx+4]
  00010	eb 03		 jmp	 SHORT $L194135
$L194134:
  00012	8d 43 04	 lea	 eax, DWORD PTR [ebx+4]
$L194135:
  00015	8b 74 24 10	 mov	 esi, DWORD PTR __Ptr$[esp+8]
  00019	3b f0		 cmp	 esi, eax
  0001b	72 34		 jb	 SHORT $L184989
  0001d	83 fa 10	 cmp	 edx, 16			; 00000010H
  00020	8d 43 04	 lea	 eax, DWORD PTR [ebx+4]
  00023	72 04		 jb	 SHORT $L194138
  00025	8b 08		 mov	 ecx, DWORD PTR [eax]
  00027	eb 02		 jmp	 SHORT $L194139
$L194138:
  00029	8b c8		 mov	 ecx, eax
$L194139:
  0002b	8b 7b 14	 mov	 edi, DWORD PTR [ebx+20]
  0002e	03 f9		 add	 edi, ecx
  00030	3b fe		 cmp	 edi, esi
  00032	76 1d		 jbe	 SHORT $L184989

; 610  : 			return (assign(*this, _Ptr - _Myptr(), _Num));	// substring

  00034	83 fa 10	 cmp	 edx, 16			; 00000010H
  00037	72 02		 jb	 SHORT $L194147
  00039	8b 00		 mov	 eax, DWORD PTR [eax]
$L194147:
  0003b	8b 4c 24 14	 mov	 ecx, DWORD PTR __Num$[esp+8]
  0003f	51		 push	 ecx
  00040	2b f0		 sub	 esi, eax
  00042	56		 push	 esi
  00043	53		 push	 ebx
  00044	8b cb		 mov	 ecx, ebx
  00046	e8 00 00 00 00	 call	 ?assign@?$basic_string@DU?$char_traits@D@std@@V?$allocator@D@2@@std@@QAEAAV12@ABV12@II@Z ; std::basic_string<char,std::char_traits<char>,std::allocator<char> >::assign
  0004b	5f		 pop	 edi
  0004c	5e		 pop	 esi
  0004d	5b		 pop	 ebx

; 618  : 		}

  0004e	c2 08 00	 ret	 8
$L184989:
  00051	55		 push	 ebp

; 611  : 
; 612  : 		if (_Grow(_Num))

  00052	8b 6c 24 18	 mov	 ebp, DWORD PTR __Num$[esp+12]
  00056	83 fd fe	 cmp	 ebp, -2			; fffffffeH
  00059	76 07		 jbe	 SHORT $L194276
  0005b	8b cb		 mov	 ecx, ebx
  0005d	e8 00 00 00 00	 call	 ?_Xlen@_String_base@std@@QBEXXZ ; std::_String_base::_Xlen
$L194276:
  00062	8b 43 18	 mov	 eax, DWORD PTR [ebx+24]
  00065	3b c5		 cmp	 eax, ebp
  00067	73 1b		 jae	 SHORT $L194278
  00069	8b 53 14	 mov	 edx, DWORD PTR [ebx+20]
  0006c	52		 push	 edx
  0006d	55		 push	 ebp
  0006e	8b cb		 mov	 ecx, ebx
  00070	e8 00 00 00 00	 call	 ?_Copy@?$basic_string@DU?$char_traits@D@std@@V?$allocator@D@2@@std@@IAEXII@Z ; std::basic_string<char,std::char_traits<char>,std::allocator<char> >::_Copy
  00075	85 ed		 test	 ebp, ebp
$L194327:
  00077	76 68		 jbe	 SHORT $L194325

; 613  : 			{	// make room and assign new stuff
; 614  : 			_Traits::copy(_Myptr(), _Ptr, _Num);

  00079	83 7b 18 10	 cmp	 DWORD PTR [ebx+24], 16	; 00000010H
  0007d	72 2f		 jb	 SHORT $L194299
  0007f	8b 7b 04	 mov	 edi, DWORD PTR [ebx+4]
  00082	eb 2d		 jmp	 SHORT $L194300

; 611  : 
; 612  : 		if (_Grow(_Num))

$L194278:
  00084	85 ed		 test	 ebp, ebp
  00086	75 ef		 jne	 SHORT $L194327
  00088	83 f8 10	 cmp	 eax, 16			; 00000010H
  0008b	89 6b 14	 mov	 DWORD PTR [ebx+20], ebp
  0008e	72 0f		 jb	 SHORT $L194290
  00090	8b 43 04	 mov	 eax, DWORD PTR [ebx+4]
  00093	5d		 pop	 ebp
  00094	5f		 pop	 edi
  00095	c6 00 00	 mov	 BYTE PTR [eax], 0
  00098	5e		 pop	 esi

; 616  : 			}
; 617  : 		return (*this);

  00099	8b c3		 mov	 eax, ebx
  0009b	5b		 pop	 ebx

; 618  : 		}

  0009c	c2 08 00	 ret	 8

; 611  : 
; 612  : 		if (_Grow(_Num))

$L194290:
  0009f	5d		 pop	 ebp
  000a0	8d 43 04	 lea	 eax, DWORD PTR [ebx+4]
  000a3	5f		 pop	 edi
  000a4	c6 00 00	 mov	 BYTE PTR [eax], 0
  000a7	5e		 pop	 esi

; 616  : 			}
; 617  : 		return (*this);

  000a8	8b c3		 mov	 eax, ebx
  000aa	5b		 pop	 ebx

; 618  : 		}

  000ab	c2 08 00	 ret	 8

; 613  : 			{	// make room and assign new stuff
; 614  : 			_Traits::copy(_Myptr(), _Ptr, _Num);

$L194299:
  000ae	8d 7b 04	 lea	 edi, DWORD PTR [ebx+4]
$L194300:
  000b1	8b cd		 mov	 ecx, ebp
  000b3	8b c1		 mov	 eax, ecx
  000b5	c1 e9 02	 shr	 ecx, 2
  000b8	f3 a5		 rep movsd
  000ba	8b c8		 mov	 ecx, eax
  000bc	83 e1 03	 and	 ecx, 3
  000bf	f3 a4		 rep movsb

; 615  : 			_Eos(_Num);

  000c1	83 7b 18 10	 cmp	 DWORD PTR [ebx+24], 16	; 00000010H
  000c5	89 6b 14	 mov	 DWORD PTR [ebx+20], ebp
  000c8	72 10		 jb	 SHORT $L194322
  000ca	8b 43 04	 mov	 eax, DWORD PTR [ebx+4]
  000cd	c6 04 28 00	 mov	 BYTE PTR [eax+ebp], 0
  000d1	5d		 pop	 ebp
  000d2	5f		 pop	 edi
  000d3	5e		 pop	 esi

; 616  : 			}
; 617  : 		return (*this);

  000d4	8b c3		 mov	 eax, ebx
  000d6	5b		 pop	 ebx

; 618  : 		}

  000d7	c2 08 00	 ret	 8

; 615  : 			_Eos(_Num);

$L194322:
  000da	8d 43 04	 lea	 eax, DWORD PTR [ebx+4]
  000dd	c6 04 28 00	 mov	 BYTE PTR [eax+ebp], 0
$L194325:
  000e1	5d		 pop	 ebp
  000e2	5f		 pop	 edi
  000e3	5e		 pop	 esi

; 616  : 			}
; 617  : 		return (*this);

  000e4	8b c3		 mov	 eax, ebx
  000e6	5b		 pop	 ebx

; 618  : 		}

  000e7	c2 08 00	 ret	 8
?assign@?$basic_string@DU?$char_traits@D@std@@V?$allocator@D@2@@std@@QAEAAV12@PBDI@Z ENDP ; std::basic_string<char,std::char_traits<char>,std::allocator<char> >::assign
_TEXT	ENDS
PUBLIC	?Clear@CEventGeneric@@QAEXH@Z			; CEventGeneric::Clear
; Function compile flags: /Ogty
; File c:\documents and settings\test\mes documents\source\virtuos_v17\build\program\_common\spevent.cpp
;	COMDAT ?Clear@CEventGeneric@@QAEXH@Z
_TEXT	SEGMENT
_this$ = -4						; size = 4
_bDestructor$ = 8					; size = 4
?Clear@CEventGeneric@@QAEXH@Z PROC NEAR			; CEventGeneric::Clear, COMDAT
; _this$ = ecx

; 159  : {

  00000	51		 push	 ecx
  00001	53		 push	 ebx
  00002	55		 push	 ebp
  00003	56		 push	 esi
  00004	57		 push	 edi
  00005	8b f9		 mov	 edi, ecx

; 160  : 	for( list<EVENT_GENERIC*>::iterator i = m_lspEvent.begin(); i != m_lspEvent.end(); ++i )

  00007	8b 47 0c	 mov	 eax, DWORD PTR [edi+12]
  0000a	8b 30		 mov	 esi, DWORD PTR [eax]
  0000c	3b f0		 cmp	 esi, eax
  0000e	89 7c 24 10	 mov	 DWORD PTR _this$[esp+20], edi
  00012	74 15		 je	 SHORT $L187987
$L194373:

; 161  : 		safe_delete( *i );

  00014	8b 46 08	 mov	 eax, DWORD PTR [esi+8]
  00017	50		 push	 eax
  00018	e8 00 00 00 00	 call	 ??3@YAXPAX@Z		; operator delete
  0001d	8b 36		 mov	 esi, DWORD PTR [esi]
  0001f	8b 47 0c	 mov	 eax, DWORD PTR [edi+12]
  00022	83 c4 04	 add	 esp, 4
  00025	3b f0		 cmp	 esi, eax
  00027	75 eb		 jne	 SHORT $L194373
$L187987:

; 162  : 	m_lspEvent.clear();

  00029	8b 4f 0c	 mov	 ecx, DWORD PTR [edi+12]
  0002c	8b 01		 mov	 eax, DWORD PTR [ecx]
  0002e	89 09		 mov	 DWORD PTR [ecx], ecx
  00030	8b 4f 0c	 mov	 ecx, DWORD PTR [edi+12]
  00033	89 49 04	 mov	 DWORD PTR [ecx+4], ecx
  00036	8b 4f 0c	 mov	 ecx, DWORD PTR [edi+12]
  00039	33 db		 xor	 ebx, ebx
  0003b	3b c1		 cmp	 eax, ecx
  0003d	89 5f 10	 mov	 DWORD PTR [edi+16], ebx
  00040	74 14		 je	 SHORT $L194441
$L194439:
  00042	8b 30		 mov	 esi, DWORD PTR [eax]
  00044	50		 push	 eax
  00045	e8 00 00 00 00	 call	 ??3@YAXPAX@Z		; operator delete
  0004a	8b 4f 0c	 mov	 ecx, DWORD PTR [edi+12]
  0004d	83 c4 04	 add	 esp, 4
  00050	3b f1		 cmp	 esi, ecx
  00052	8b c6		 mov	 eax, esi
  00054	75 ec		 jne	 SHORT $L194439
$L194441:

; 163  : 
; 164  : 	for( map<int, list<CEventItem*>*>::iterator i2 = m_mapEventItemList.begin(); i2 != m_mapEventItemList.end(); ++i2 )

  00056	8b 47 18	 mov	 eax, DWORD PTR [edi+24]
  00059	8b 28		 mov	 ebp, DWORD PTR [eax]
  0005b	3b e8		 cmp	 ebp, eax
  0005d	0f 84 e2 00 00
	00		 je	 $L188078
$L194631:

; 165  : 	{
; 166  : 		list<CEventItem*>* pList	= i2->second;

  00063	8b 75 10	 mov	 esi, DWORD PTR [ebp+16]

; 167  : 		for( list<CEventItem*>::iterator i3 = pList->begin(); i3 != pList->end(); ++i3 )

  00066	8b 46 04	 mov	 eax, DWORD PTR [esi+4]
  00069	8b 38		 mov	 edi, DWORD PTR [eax]
  0006b	3b f8		 cmp	 edi, eax
  0006d	74 15		 je	 SHORT $L188619
  0006f	90		 npad	 1
$L194717:

; 168  : 			safe_delete( *i3 );

  00070	8b 4f 08	 mov	 ecx, DWORD PTR [edi+8]
  00073	3b cb		 cmp	 ecx, ebx
  00075	74 06		 je	 SHORT $L188618
  00077	8b 11		 mov	 edx, DWORD PTR [ecx]
  00079	6a 01		 push	 1
  0007b	ff 12		 call	 DWORD PTR [edx]
$L188618:
  0007d	8b 3f		 mov	 edi, DWORD PTR [edi]
  0007f	3b 7e 04	 cmp	 edi, DWORD PTR [esi+4]
  00082	75 ec		 jne	 SHORT $L194717
$L188619:

; 169  : 		pList->clear();

  00084	8b 4e 04	 mov	 ecx, DWORD PTR [esi+4]
  00087	8b 01		 mov	 eax, DWORD PTR [ecx]
  00089	89 09		 mov	 DWORD PTR [ecx], ecx
  0008b	8b 4e 04	 mov	 ecx, DWORD PTR [esi+4]
  0008e	89 49 04	 mov	 DWORD PTR [ecx+4], ecx
  00091	3b 46 04	 cmp	 eax, DWORD PTR [esi+4]
  00094	89 5e 08	 mov	 DWORD PTR [esi+8], ebx
  00097	74 1b		 je	 SHORT $L194791
  00099	8d a4 24 00 00
	00 00		 npad	 7
$L194789:
  000a0	8b 38		 mov	 edi, DWORD PTR [eax]
  000a2	50		 push	 eax
  000a3	e8 00 00 00 00	 call	 ??3@YAXPAX@Z		; operator delete
  000a8	8b 4e 04	 mov	 ecx, DWORD PTR [esi+4]
  000ab	83 c4 04	 add	 esp, 4
  000ae	3b f9		 cmp	 edi, ecx
  000b0	8b c7		 mov	 eax, edi
  000b2	75 ec		 jne	 SHORT $L194789
$L194791:

; 170  : 		safe_delete( pList );

  000b4	8b 4e 04	 mov	 ecx, DWORD PTR [esi+4]
  000b7	8b 01		 mov	 eax, DWORD PTR [ecx]
  000b9	89 09		 mov	 DWORD PTR [ecx], ecx
  000bb	8b 4e 04	 mov	 ecx, DWORD PTR [esi+4]
  000be	89 49 04	 mov	 DWORD PTR [ecx+4], ecx
  000c1	3b 46 04	 cmp	 eax, DWORD PTR [esi+4]
  000c4	89 5e 08	 mov	 DWORD PTR [esi+8], ebx
  000c7	74 1b		 je	 SHORT $L194914
  000c9	8d a4 24 00 00
	00 00		 npad	 7
$L194912:
  000d0	8b 38		 mov	 edi, DWORD PTR [eax]
  000d2	50		 push	 eax
  000d3	e8 00 00 00 00	 call	 ??3@YAXPAX@Z		; operator delete
  000d8	8b 4e 04	 mov	 ecx, DWORD PTR [esi+4]
  000db	83 c4 04	 add	 esp, 4
  000de	3b f9		 cmp	 edi, ecx
  000e0	8b c7		 mov	 eax, edi
  000e2	75 ec		 jne	 SHORT $L194912
$L194914:
  000e4	8b 46 04	 mov	 eax, DWORD PTR [esi+4]
  000e7	50		 push	 eax
  000e8	e8 00 00 00 00	 call	 ??3@YAXPAX@Z		; operator delete
  000ed	56		 push	 esi
  000ee	89 5e 04	 mov	 DWORD PTR [esi+4], ebx
  000f1	e8 00 00 00 00	 call	 ??3@YAXPAX@Z		; operator delete
  000f6	8a 45 15	 mov	 al, BYTE PTR [ebp+21]
  000f9	83 c4 08	 add	 esp, 8
  000fc	3a c3		 cmp	 al, bl
  000fe	75 36		 jne	 SHORT $L194628
  00100	8b 4d 08	 mov	 ecx, DWORD PTR [ebp+8]
  00103	38 59 15	 cmp	 BYTE PTR [ecx+21], bl
  00106	75 15		 jne	 SHORT $L195025
  00108	8b 01		 mov	 eax, DWORD PTR [ecx]
  0010a	38 58 15	 cmp	 BYTE PTR [eax+21], bl
  0010d	75 0a		 jne	 SHORT $L194610
  0010f	90		 npad	 1

; 163  : 
; 164  : 	for( map<int, list<CEventItem*>*>::iterator i2 = m_mapEventItemList.begin(); i2 != m_mapEventItemList.end(); ++i2 )

$L194609:
  00110	8b c8		 mov	 ecx, eax
  00112	8b 01		 mov	 eax, DWORD PTR [ecx]
  00114	38 58 15	 cmp	 BYTE PTR [eax+21], bl
  00117	74 f7		 je	 SHORT $L194609
$L194610:
  00119	8b e9		 mov	 ebp, ecx
  0011b	eb 19		 jmp	 SHORT $L194628
$L195025:
  0011d	8b 45 04	 mov	 eax, DWORD PTR [ebp+4]
  00120	38 58 15	 cmp	 BYTE PTR [eax+21], bl
  00123	75 0f		 jne	 SHORT $L194596
$L194630:
  00125	3b 68 08	 cmp	 ebp, DWORD PTR [eax+8]
  00128	75 0a		 jne	 SHORT $L194596
  0012a	8b e8		 mov	 ebp, eax
  0012c	8b 40 04	 mov	 eax, DWORD PTR [eax+4]
  0012f	38 58 15	 cmp	 BYTE PTR [eax+21], bl
  00132	74 f1		 je	 SHORT $L194630
$L194596:
  00134	8b e8		 mov	 ebp, eax
$L194628:
  00136	8b 4c 24 10	 mov	 ecx, DWORD PTR _this$[esp+20]
  0013a	3b 69 18	 cmp	 ebp, DWORD PTR [ecx+24]
  0013d	0f 85 20 ff ff
	ff		 jne	 $L194631
  00143	8b f9		 mov	 edi, ecx
$L188078:

; 171  : 	}
; 172  : 	m_mapEventItemList.clear();

  00145	8b 57 18	 mov	 edx, DWORD PTR [edi+24]
  00148	8b 6a 04	 mov	 ebp, DWORD PTR [edx+4]
  0014b	8a 45 15	 mov	 al, BYTE PTR [ebp+21]
  0014e	83 c7 14	 add	 edi, 20			; 00000014H
  00151	3a c3		 cmp	 al, bl
  00153	8b f5		 mov	 esi, ebp
  00155	75 1f		 jne	 SHORT $L195003
$L195001:
  00157	8b 46 08	 mov	 eax, DWORD PTR [esi+8]
  0015a	50		 push	 eax
  0015b	8b cf		 mov	 ecx, edi
  0015d	e8 00 00 00 00	 call	 ?_Erase@?$_Tree@V?$_Tmap_traits@HPAV?$list@PAVCEventItem@@V?$allocator@PAVCEventItem@@@std@@@std@@U?$less@H@2@V?$allocator@U?$pair@$$CBHPAV?$list@PAVCEventItem@@V?$allocator@PAVCEventItem@@@std@@@std@@@std@@@2@$0A@@std@@@std@@IAEXPAU_Node@?$_Tree_nod@V?$_Tmap_traits@HPAV?$list@PAVCEventItem@@V?$allocator@PAVCEventItem@@@std@@@std@@U?$less@H@2@V?$allocator@U?$pair@$$CBHPAV?$list@PAVCEventItem@@V?$allocator@PAVCEventItem@@@std@@@std@@@std@@@2@$0A@@std@@@2@@Z ; std::_Tree<std::_Tmap_traits<int,std::list<CEventItem *,std::allocator<CEventItem *> > *,std::less<int>,std::allocator<std::pair<int const ,std::list<CEventItem *,std::allocator<CEventItem *> > *> >,0> >::_Erase
  00162	8b 36		 mov	 esi, DWORD PTR [esi]
  00164	55		 push	 ebp
  00165	e8 00 00 00 00	 call	 ??3@YAXPAX@Z		; operator delete
  0016a	8a 46 15	 mov	 al, BYTE PTR [esi+21]
  0016d	83 c4 04	 add	 esp, 4
  00170	3a c3		 cmp	 al, bl
  00172	8b ee		 mov	 ebp, esi
  00174	74 e1		 je	 SHORT $L195001
$L195003:
  00176	8b 47 04	 mov	 eax, DWORD PTR [edi+4]
  00179	89 40 04	 mov	 DWORD PTR [eax+4], eax
  0017c	8b 47 04	 mov	 eax, DWORD PTR [edi+4]
  0017f	89 5f 08	 mov	 DWORD PTR [edi+8], ebx
  00182	89 00		 mov	 DWORD PTR [eax], eax
  00184	8b 7f 04	 mov	 edi, DWORD PTR [edi+4]
  00187	89 7f 08	 mov	 DWORD PTR [edi+8], edi
  0018a	5f		 pop	 edi
  0018b	5e		 pop	 esi
  0018c	5d		 pop	 ebp
  0018d	5b		 pop	 ebx

; 173  : #ifdef __EVENT_0117
; 174  : 	if( bDestructor )
; 175  : 	{
; 176  : 		for( map<int, CSpawn*>::iterator i3	= m_mapSpawn.begin(); i3 != m_mapSpawn.end(); ++i3 )
; 177  : 			safe_delete( i3->second );
; 178  : 		m_mapSpawn.clear();
; 179  : 	}
; 180  : #endif	// __EVENT_0117
; 181  : }

  0018e	59		 pop	 ecx
  0018f	c2 04 00	 ret	 4
?Clear@CEventGeneric@@QAEXH@Z ENDP			; CEventGeneric::Clear
_TEXT	ENDS
PUBLIC	??0?$basic_string@DU?$char_traits@D@std@@V?$allocator@D@2@@std@@QAE@ABV01@@Z ; std::basic_string<char,std::char_traits<char>,std::allocator<char> >::basic_string<char,std::char_traits<char>,std::allocator<char> >
; Function compile flags: /Ogty
; File c:\program files\microsoft visual studio .net 2003\vc7\include\xstring
;	COMDAT ??0?$basic_string@DU?$char_traits@D@std@@V?$allocator@D@2@@std@@QAE@ABV01@@Z
_TEXT	SEGMENT
__Right$ = 8						; size = 4
??0?$basic_string@DU?$char_traits@D@std@@V?$allocator@D@2@@std@@QAE@ABV01@@Z PROC NEAR ; std::basic_string<char,std::char_traits<char>,std::allocator<char> >::basic_string<char,std::char_traits<char>,std::allocator<char> >, COMDAT
; _this$ = ecx

; 323  : 		{	// construct by copying _Right

  00000	56		 push	 esi

; 324  : 		_Tidy();

  00001	33 c0		 xor	 eax, eax
  00003	8b f1		 mov	 esi, ecx

; 325  : 		assign(_Right, 0, npos);

  00005	6a ff		 push	 -1
  00007	89 46 14	 mov	 DWORD PTR [esi+20], eax
  0000a	c7 46 18 0f 00
	00 00		 mov	 DWORD PTR [esi+24], 15	; 0000000fH
  00011	50		 push	 eax
  00012	88 46 04	 mov	 BYTE PTR [esi+4], al
  00015	8b 44 24 10	 mov	 eax, DWORD PTR __Right$[esp+8]
  00019	50		 push	 eax
  0001a	e8 00 00 00 00	 call	 ?assign@?$basic_string@DU?$char_traits@D@std@@V?$allocator@D@2@@std@@QAEAAV12@ABV12@II@Z ; std::basic_string<char,std::char_traits<char>,std::allocator<char> >::assign

; 326  : 		}

  0001f	8b c6		 mov	 eax, esi
  00021	5e		 pop	 esi
  00022	c2 04 00	 ret	 4
??0?$basic_string@DU?$char_traits@D@std@@V?$allocator@D@2@@std@@QAE@ABV01@@Z ENDP ; std::basic_string<char,std::char_traits<char>,std::allocator<char> >::basic_string<char,std::char_traits<char>,std::allocator<char> >
_TEXT	ENDS
PUBLIC	??4?$CSimpleStringT@D$0A@@ATL@@QAEAAV01@PBD@Z	; ATL::CSimpleStringT<char,0>::operator=
; Function compile flags: /Ogty
; File c:\program files\microsoft visual studio .net 2003\vc7\atlmfc\include\atlsimpstr.h
;	COMDAT ??4?$CSimpleStringT@D$0A@@ATL@@QAEAAV01@PBD@Z
_TEXT	SEGMENT
_pszSrc$ = 8						; size = 4
??4?$CSimpleStringT@D$0A@@ATL@@QAEAAV01@PBD@Z PROC NEAR	; ATL::CSimpleStringT<char,0>::operator=, COMDAT
; _this$ = ecx

; 316  : 		SetString( pszSrc );

  00000	8b 54 24 04	 mov	 edx, DWORD PTR _pszSrc$[esp-4]
  00004	85 d2		 test	 edx, edx
  00006	57		 push	 edi
  00007	8b f9		 mov	 edi, ecx
  00009	75 0f		 jne	 SHORT $L195110
  0000b	33 c0		 xor	 eax, eax
  0000d	50		 push	 eax
  0000e	52		 push	 edx
  0000f	e8 00 00 00 00	 call	 ?SetString@?$CSimpleStringT@D$0A@@ATL@@QAEXPBDH@Z ; ATL::CSimpleStringT<char,0>::SetString

; 317  : 
; 318  : 		return( *this );

  00014	8b c7		 mov	 eax, edi
  00016	5f		 pop	 edi

; 319  : 	}

  00017	c2 04 00	 ret	 4

; 316  : 		SetString( pszSrc );

$L195110:
  0001a	8b c2		 mov	 eax, edx
  0001c	56		 push	 esi
  0001d	8d 70 01	 lea	 esi, DWORD PTR [eax+1]
$L195112:
  00020	8a 08		 mov	 cl, BYTE PTR [eax]
  00022	40		 inc	 eax
  00023	84 c9		 test	 cl, cl
  00025	75 f9		 jne	 SHORT $L195112
  00027	2b c6		 sub	 eax, esi
  00029	5e		 pop	 esi
  0002a	50		 push	 eax
  0002b	52		 push	 edx
  0002c	8b cf		 mov	 ecx, edi
  0002e	e8 00 00 00 00	 call	 ?SetString@?$CSimpleStringT@D$0A@@ATL@@QAEXPBDH@Z ; ATL::CSimpleStringT<char,0>::SetString

; 317  : 
; 318  : 		return( *this );

  00033	8b c7		 mov	 eax, edi
  00035	5f		 pop	 edi

; 319  : 	}

  00036	c2 04 00	 ret	 4
??4?$CSimpleStringT@D$0A@@ATL@@QAEAAV01@PBD@Z ENDP	; ATL::CSimpleStringT<char,0>::operator=
_TEXT	ENDS
PUBLIC	?assign@?$basic_string@DU?$char_traits@D@std@@V?$allocator@D@2@@std@@QAEAAV12@PBD@Z ; std::basic_string<char,std::char_traits<char>,std::allocator<char> >::assign
; Function compile flags: /Ogty
; File c:\program files\microsoft visual studio .net 2003\vc7\include\xstring
;	COMDAT ?assign@?$basic_string@DU?$char_traits@D@std@@V?$allocator@D@2@@std@@QAEAAV12@PBD@Z
_TEXT	SEGMENT
__Ptr$ = 8						; size = 4
?assign@?$basic_string@DU?$char_traits@D@std@@V?$allocator@D@2@@std@@QAEAAV12@PBD@Z PROC NEAR ; std::basic_string<char,std::char_traits<char>,std::allocator<char> >::assign, COMDAT
; _this$ = ecx

; 621  : 		{	// assign [_Ptr, <null>)

  00000	56		 push	 esi

; 622  : 		return (assign(_Ptr, _Traits::length(_Ptr)));

  00001	8b 74 24 08	 mov	 esi, DWORD PTR __Ptr$[esp]
  00005	8b c6		 mov	 eax, esi
  00007	57		 push	 edi
  00008	8d 78 01	 lea	 edi, DWORD PTR [eax+1]
  0000b	eb 03 8d 49 00	 npad	 5
$L195118:
  00010	8a 10		 mov	 dl, BYTE PTR [eax]
  00012	40		 inc	 eax
  00013	84 d2		 test	 dl, dl
  00015	75 f9		 jne	 SHORT $L195118
  00017	2b c7		 sub	 eax, edi
  00019	50		 push	 eax
  0001a	56		 push	 esi
  0001b	e8 00 00 00 00	 call	 ?assign@?$basic_string@DU?$char_traits@D@std@@V?$allocator@D@2@@std@@QAEAAV12@PBDI@Z ; std::basic_string<char,std::char_traits<char>,std::allocator<char> >::assign
  00020	5f		 pop	 edi
  00021	5e		 pop	 esi

; 623  : 		}

  00022	c2 04 00	 ret	 4
?assign@?$basic_string@DU?$char_traits@D@std@@V?$allocator@D@2@@std@@QAEAAV12@PBD@Z ENDP ; std::basic_string<char,std::char_traits<char>,std::allocator<char> >::assign
_TEXT	ENDS
PUBLIC	??0logic_error@std@@QAE@ABV?$basic_string@DU?$char_traits@D@std@@V?$allocator@D@2@@1@@Z ; std::logic_error::logic_error
EXTRN	??0exception@@QAE@XZ:NEAR			; exception::exception
;	COMDAT xdata$x
; File c:\program files\microsoft visual studio .net 2003\vc7\include\iosfwd
xdata$x	SEGMENT
$T195221 DD	0ffffffffH
	DD	FLAT:$L195121
$T195219 DD	019930520H
	DD	01H
	DD	FLAT:$T195221
	DD	2 DUP(00H)
	DD	2 DUP(00H)
; Function compile flags: /Ogty
; File c:\program files\microsoft visual studio .net 2003\vc7\include\stdexcept
xdata$x	ENDS
;	COMDAT ??0logic_error@std@@QAE@ABV?$basic_string@DU?$char_traits@D@std@@V?$allocator@D@2@@1@@Z
_TEXT	SEGMENT
_this$ = -16						; size = 4
__$EHRec$ = -12						; size = 12
__Message$ = 8						; size = 4
??0logic_error@std@@QAE@ABV?$basic_string@DU?$char_traits@D@std@@V?$allocator@D@2@@1@@Z PROC NEAR ; std::logic_error::logic_error, COMDAT
; _this$ = ecx

; 19   : 		{	// construct from message string

  00000	6a ff		 push	 -1
  00002	68 00 00 00 00	 push	 __ehhandler$??0logic_error@std@@QAE@ABV?$basic_string@DU?$char_traits@D@std@@V?$allocator@D@2@@1@@Z
  00007	64 a1 00 00 00
	00		 mov	 eax, DWORD PTR fs:__except_list
  0000d	50		 push	 eax
  0000e	64 89 25 00 00
	00 00		 mov	 DWORD PTR fs:__except_list, esp
  00015	51		 push	 ecx
  00016	56		 push	 esi
  00017	8b f1		 mov	 esi, ecx
  00019	89 74 24 04	 mov	 DWORD PTR _this$[esp+20], esi
  0001d	e8 00 00 00 00	 call	 ??0exception@@QAE@XZ	; exception::exception
  00022	33 c0		 xor	 eax, eax
  00024	8d 4e 0c	 lea	 ecx, DWORD PTR [esi+12]
  00027	c7 06 00 00 00
	00		 mov	 DWORD PTR [esi], OFFSET FLAT:??_7logic_error@std@@6B@
  0002d	6a ff		 push	 -1
  0002f	89 41 14	 mov	 DWORD PTR [ecx+20], eax
  00032	c7 41 18 0f 00
	00 00		 mov	 DWORD PTR [ecx+24], 15	; 0000000fH
  00039	50		 push	 eax
  0003a	89 44 24 18	 mov	 DWORD PTR __$EHRec$[esp+36], eax
  0003e	88 41 04	 mov	 BYTE PTR [ecx+4], al
  00041	8b 44 24 20	 mov	 eax, DWORD PTR __Message$[esp+24]
  00045	50		 push	 eax
  00046	e8 00 00 00 00	 call	 ?assign@?$basic_string@DU?$char_traits@D@std@@V?$allocator@D@2@@std@@QAEAAV12@ABV12@II@Z ; std::basic_string<char,std::char_traits<char>,std::allocator<char> >::assign

; 20   : 		}

  0004b	8b 4c 24 08	 mov	 ecx, DWORD PTR __$EHRec$[esp+20]
  0004f	8b c6		 mov	 eax, esi
  00051	5e		 pop	 esi
  00052	64 89 0d 00 00
	00 00		 mov	 DWORD PTR fs:__except_list, ecx
  00059	83 c4 10	 add	 esp, 16			; 00000010H
  0005c	c2 04 00	 ret	 4
_TEXT	ENDS
;	COMDAT text$x
text$x	SEGMENT
$L195121:
  00000	8b 4d f0	 mov	 ecx, DWORD PTR _this$[ebp]
  00003	e9 00 00 00 00	 jmp	 ??1exception@@UAE@XZ	; exception::~exception
__ehhandler$??0logic_error@std@@QAE@ABV?$basic_string@DU?$char_traits@D@std@@V?$allocator@D@2@@1@@Z:
  00008	b8 00 00 00 00	 mov	 eax, OFFSET FLAT:$T195219
  0000d	e9 00 00 00 00	 jmp	 ___CxxFrameHandler
text$x	ENDS
??0logic_error@std@@QAE@ABV?$basic_string@DU?$char_traits@D@std@@V?$allocator@D@2@@1@@Z ENDP ; std::logic_error::logic_error
PUBLIC	??0length_error@std@@QAE@ABV?$basic_string@DU?$char_traits@D@std@@V?$allocator@D@2@@1@@Z ; std::length_error::length_error
PUBLIC	??_7length_error@std@@6B@			; std::length_error::`vftable'
PUBLIC	??_Glength_error@std@@UAEPAXI@Z			; std::length_error::`scalar deleting destructor'
EXTRN	??_Elength_error@std@@UAEPAXI@Z:NEAR		; std::length_error::`vector deleting destructor'
;	COMDAT ??_7length_error@std@@6B@
CONST	SEGMENT
??_7length_error@std@@6B@ DD FLAT:??_Elength_error@std@@UAEPAXI@Z ; std::length_error::`vftable'
	DD	FLAT:?what@logic_error@std@@UBEPBDXZ
; Function compile flags: /Ogty
CONST	ENDS
;	COMDAT ??0length_error@std@@QAE@ABV?$basic_string@DU?$char_traits@D@std@@V?$allocator@D@2@@1@@Z
_TEXT	SEGMENT
__Message$ = 8						; size = 4
??0length_error@std@@QAE@ABV?$basic_string@DU?$char_traits@D@std@@V?$allocator@D@2@@1@@Z PROC NEAR ; std::length_error::length_error, COMDAT
; _this$ = ecx

; 95   : 		{	// construct from message string

  00000	8b 44 24 04	 mov	 eax, DWORD PTR __Message$[esp-4]
  00004	56		 push	 esi
  00005	50		 push	 eax
  00006	8b f1		 mov	 esi, ecx
  00008	e8 00 00 00 00	 call	 ??0logic_error@std@@QAE@ABV?$basic_string@DU?$char_traits@D@std@@V?$allocator@D@2@@1@@Z ; std::logic_error::logic_error
  0000d	c7 06 00 00 00
	00		 mov	 DWORD PTR [esi], OFFSET FLAT:??_7length_error@std@@6B@

; 96   : 		}

  00013	8b c6		 mov	 eax, esi
  00015	5e		 pop	 esi
  00016	c2 04 00	 ret	 4
??0length_error@std@@QAE@ABV?$basic_string@DU?$char_traits@D@std@@V?$allocator@D@2@@1@@Z ENDP ; std::length_error::length_error
_TEXT	ENDS
PUBLIC	??1length_error@std@@UAE@XZ			; std::length_error::~length_error
; Function compile flags: /Ogty
;	COMDAT ??_Glength_error@std@@UAEPAXI@Z
_TEXT	SEGMENT
___flags$ = 8						; size = 4
??_Glength_error@std@@UAEPAXI@Z PROC NEAR		; std::length_error::`scalar deleting destructor', COMDAT
; _this$ = ecx
  00000	56		 push	 esi
  00001	8b f1		 mov	 esi, ecx
  00003	e8 00 00 00 00	 call	 ??1length_error@std@@UAE@XZ ; std::length_error::~length_error
  00008	f6 44 24 08 01	 test	 BYTE PTR ___flags$[esp], 1
  0000d	74 09		 je	 SHORT $L195229
  0000f	56		 push	 esi
  00010	e8 00 00 00 00	 call	 ??3@YAXPAX@Z		; operator delete
  00015	83 c4 04	 add	 esp, 4
$L195229:
  00018	8b c6		 mov	 eax, esi
  0001a	5e		 pop	 esi
  0001b	c2 04 00	 ret	 4
??_Glength_error@std@@UAEPAXI@Z ENDP			; std::length_error::`scalar deleting destructor'
; Function compile flags: /Ogty
_TEXT	ENDS
;	COMDAT ??1length_error@std@@UAE@XZ
_TEXT	SEGMENT
??1length_error@std@@UAE@XZ PROC NEAR			; std::length_error::~length_error, COMDAT
; _this$ = ecx

; 99   : 		{}	// destroy the object

  00000	56		 push	 esi
  00001	8b f1		 mov	 esi, ecx
  00003	c7 06 00 00 00
	00		 mov	 DWORD PTR [esi], OFFSET FLAT:??_7logic_error@std@@6B@
  00009	83 7e 24 10	 cmp	 DWORD PTR [esi+36], 16	; 00000010H
  0000d	72 0c		 jb	 SHORT $L195323
  0000f	8b 46 10	 mov	 eax, DWORD PTR [esi+16]
  00012	50		 push	 eax
  00013	e8 00 00 00 00	 call	 ??3@YAXPAX@Z		; operator delete
  00018	83 c4 04	 add	 esp, 4
$L195323:
  0001b	33 c0		 xor	 eax, eax
  0001d	c7 46 24 0f 00
	00 00		 mov	 DWORD PTR [esi+36], 15	; 0000000fH
  00024	89 46 20	 mov	 DWORD PTR [esi+32], eax
  00027	88 46 10	 mov	 BYTE PTR [esi+16], al
  0002a	8b ce		 mov	 ecx, esi
  0002c	5e		 pop	 esi
  0002d	e9 00 00 00 00	 jmp	 ??1exception@@UAE@XZ	; exception::~exception
??1length_error@std@@UAE@XZ ENDP			; std::length_error::~length_error
_TEXT	ENDS
PUBLIC	??0out_of_range@std@@QAE@ABV?$basic_string@DU?$char_traits@D@std@@V?$allocator@D@2@@1@@Z ; std::out_of_range::out_of_range
PUBLIC	??_7out_of_range@std@@6B@			; std::out_of_range::`vftable'
PUBLIC	??_Gout_of_range@std@@UAEPAXI@Z			; std::out_of_range::`scalar deleting destructor'
EXTRN	??_Eout_of_range@std@@UAEPAXI@Z:NEAR		; std::out_of_range::`vector deleting destructor'
;	COMDAT ??_7out_of_range@std@@6B@
CONST	SEGMENT
??_7out_of_range@std@@6B@ DD FLAT:??_Eout_of_range@std@@UAEPAXI@Z ; std::out_of_range::`vftable'
	DD	FLAT:?what@logic_error@std@@UBEPBDXZ
; Function compile flags: /Ogty
CONST	ENDS
;	COMDAT ??0out_of_range@std@@QAE@ABV?$basic_string@DU?$char_traits@D@std@@V?$allocator@D@2@@1@@Z
_TEXT	SEGMENT
__Message$ = 8						; size = 4
??0out_of_range@std@@QAE@ABV?$basic_string@DU?$char_traits@D@std@@V?$allocator@D@2@@1@@Z PROC NEAR ; std::out_of_range::out_of_range, COMDAT
; _this$ = ecx

; 118  : 		{	// construct from message string

  00000	8b 44 24 04	 mov	 eax, DWORD PTR __Message$[esp-4]
  00004	56		 push	 esi
  00005	50		 push	 eax
  00006	8b f1		 mov	 esi, ecx
  00008	e8 00 00 00 00	 call	 ??0logic_error@std@@QAE@ABV?$basic_string@DU?$char_traits@D@std@@V?$allocator@D@2@@1@@Z ; std::logic_error::logic_error
  0000d	c7 06 00 00 00
	00		 mov	 DWORD PTR [esi], OFFSET FLAT:??_7out_of_range@std@@6B@

; 119  : 		}

  00013	8b c6		 mov	 eax, esi
  00015	5e		 pop	 esi
  00016	c2 04 00	 ret	 4
??0out_of_range@std@@QAE@ABV?$basic_string@DU?$char_traits@D@std@@V?$allocator@D@2@@1@@Z ENDP ; std::out_of_range::out_of_range
_TEXT	ENDS
PUBLIC	??1out_of_range@std@@UAE@XZ			; std::out_of_range::~out_of_range
; Function compile flags: /Ogty
;	COMDAT ??_Gout_of_range@std@@UAEPAXI@Z
_TEXT	SEGMENT
___flags$ = 8						; size = 4
??_Gout_of_range@std@@UAEPAXI@Z PROC NEAR		; std::out_of_range::`scalar deleting destructor', COMDAT
; _this$ = ecx
  00000	56		 push	 esi
  00001	8b f1		 mov	 esi, ecx
  00003	e8 00 00 00 00	 call	 ??1out_of_range@std@@UAE@XZ ; std::out_of_range::~out_of_range
  00008	f6 44 24 08 01	 test	 BYTE PTR ___flags$[esp], 1
  0000d	74 09		 je	 SHORT $L195340
  0000f	56		 push	 esi
  00010	e8 00 00 00 00	 call	 ??3@YAXPAX@Z		; operator delete
  00015	83 c4 04	 add	 esp, 4
$L195340:
  00018	8b c6		 mov	 eax, esi
  0001a	5e		 pop	 esi
  0001b	c2 04 00	 ret	 4
??_Gout_of_range@std@@UAEPAXI@Z ENDP			; std::out_of_range::`scalar deleting destructor'
; Function compile flags: /Ogty
_TEXT	ENDS
;	COMDAT ??1out_of_range@std@@UAE@XZ
_TEXT	SEGMENT
??1out_of_range@std@@UAE@XZ PROC NEAR			; std::out_of_range::~out_of_range, COMDAT
; _this$ = ecx

; 122  : 		{}	// destroy the object

  00000	56		 push	 esi
  00001	8b f1		 mov	 esi, ecx
  00003	c7 06 00 00 00
	00		 mov	 DWORD PTR [esi], OFFSET FLAT:??_7logic_error@std@@6B@
  00009	83 7e 24 10	 cmp	 DWORD PTR [esi+36], 16	; 00000010H
  0000d	72 0c		 jb	 SHORT $L195433
  0000f	8b 46 10	 mov	 eax, DWORD PTR [esi+16]
  00012	50		 push	 eax
  00013	e8 00 00 00 00	 call	 ??3@YAXPAX@Z		; operator delete
  00018	83 c4 04	 add	 esp, 4
$L195433:
  0001b	33 c0		 xor	 eax, eax
  0001d	c7 46 24 0f 00
	00 00		 mov	 DWORD PTR [esi+36], 15	; 0000000fH
  00024	89 46 20	 mov	 DWORD PTR [esi+32], eax
  00027	88 46 10	 mov	 BYTE PTR [esi+16], al
  0002a	8b ce		 mov	 ecx, esi
  0002c	5e		 pop	 esi
  0002d	e9 00 00 00 00	 jmp	 ??1exception@@UAE@XZ	; exception::~exception
??1out_of_range@std@@UAE@XZ ENDP			; std::out_of_range::~out_of_range
_TEXT	ENDS
PUBLIC	??4?$CStringT@DV?$StrTraitMFC@DV?$ChTraitsCRT@D@ATL@@@@@ATL@@QAEAAV01@PBD@Z ; ATL::CStringT<char,StrTraitMFC<char,ATL::ChTraitsCRT<char> > >::operator=
; Function compile flags: /Ogty
; File c:\program files\microsoft visual studio .net 2003\vc7\atlmfc\include\cstringt.h
;	COMDAT ??4?$CStringT@DV?$StrTraitMFC@DV?$ChTraitsCRT@D@ATL@@@@@ATL@@QAEAAV01@PBD@Z
_TEXT	SEGMENT
_pszSrc$ = 8						; size = 4
??4?$CStringT@DV?$StrTraitMFC@DV?$ChTraitsCRT@D@ATL@@@@@ATL@@QAEAAV01@PBD@Z PROC NEAR ; ATL::CStringT<char,StrTraitMFC<char,ATL::ChTraitsCRT<char> > >::operator=, COMDAT
; _this$ = ecx

; 983  : 		CThisSimpleString::operator=( pszSrc );

  00000	8b 54 24 04	 mov	 edx, DWORD PTR _pszSrc$[esp-4]
  00004	85 d2		 test	 edx, edx
  00006	57		 push	 edi
  00007	8b f9		 mov	 edi, ecx
  00009	75 0f		 jne	 SHORT $L195465
  0000b	33 c0		 xor	 eax, eax
  0000d	50		 push	 eax
  0000e	52		 push	 edx
  0000f	e8 00 00 00 00	 call	 ?SetString@?$CSimpleStringT@D$0A@@ATL@@QAEXPBDH@Z ; ATL::CSimpleStringT<char,0>::SetString

; 984  : 
; 985  : 		return( *this );

  00014	8b c7		 mov	 eax, edi
  00016	5f		 pop	 edi

; 986  : 	}

  00017	c2 04 00	 ret	 4

; 983  : 		CThisSimpleString::operator=( pszSrc );

$L195465:
  0001a	8b c2		 mov	 eax, edx
  0001c	56		 push	 esi
  0001d	8d 70 01	 lea	 esi, DWORD PTR [eax+1]
$L195467:
  00020	8a 08		 mov	 cl, BYTE PTR [eax]
  00022	40		 inc	 eax
  00023	84 c9		 test	 cl, cl
  00025	75 f9		 jne	 SHORT $L195467
  00027	2b c6		 sub	 eax, esi
  00029	5e		 pop	 esi
  0002a	50		 push	 eax
  0002b	52		 push	 edx
  0002c	8b cf		 mov	 ecx, edi
  0002e	e8 00 00 00 00	 call	 ?SetString@?$CSimpleStringT@D$0A@@ATL@@QAEXPBDH@Z ; ATL::CSimpleStringT<char,0>::SetString

; 984  : 
; 985  : 		return( *this );

  00033	8b c7		 mov	 eax, edi
  00035	5f		 pop	 edi

; 986  : 	}

  00036	c2 04 00	 ret	 4
??4?$CStringT@DV?$StrTraitMFC@DV?$ChTraitsCRT@D@ATL@@@@@ATL@@QAEAAV01@PBD@Z ENDP ; ATL::CStringT<char,StrTraitMFC<char,ATL::ChTraitsCRT<char> > >::operator=
_TEXT	ENDS
PUBLIC	??0?$basic_string@DU?$char_traits@D@std@@V?$allocator@D@2@@std@@QAE@PBD@Z ; std::basic_string<char,std::char_traits<char>,std::allocator<char> >::basic_string<char,std::char_traits<char>,std::allocator<char> >
; Function compile flags: /Ogty
; File c:\program files\microsoft visual studio .net 2003\vc7\include\xstring
;	COMDAT ??0?$basic_string@DU?$char_traits@D@std@@V?$allocator@D@2@@std@@QAE@PBD@Z
_TEXT	SEGMENT
__Ptr$ = 8						; size = 4
??0?$basic_string@DU?$char_traits@D@std@@V?$allocator@D@2@@std@@QAE@PBD@Z PROC NEAR ; std::basic_string<char,std::char_traits<char>,std::allocator<char> >::basic_string<char,std::char_traits<char>,std::allocator<char> >, COMDAT
; _this$ = ecx

; 361  : 		_Tidy();
; 362  : 		assign(_Ptr);

  00000	8b 54 24 04	 mov	 edx, DWORD PTR __Ptr$[esp-4]
  00004	56		 push	 esi
  00005	8b f1		 mov	 esi, ecx
  00007	8b c2		 mov	 eax, edx
  00009	57		 push	 edi
  0000a	c7 46 18 0f 00
	00 00		 mov	 DWORD PTR [esi+24], 15	; 0000000fH
  00011	c7 46 14 00 00
	00 00		 mov	 DWORD PTR [esi+20], 0
  00018	c6 46 04 00	 mov	 BYTE PTR [esi+4], 0
  0001c	8d 78 01	 lea	 edi, DWORD PTR [eax+1]
  0001f	90		 npad	 1
$L195542:
  00020	8a 08		 mov	 cl, BYTE PTR [eax]
  00022	40		 inc	 eax
  00023	84 c9		 test	 cl, cl
  00025	75 f9		 jne	 SHORT $L195542
  00027	2b c7		 sub	 eax, edi
  00029	50		 push	 eax
  0002a	52		 push	 edx
  0002b	8b ce		 mov	 ecx, esi
  0002d	e8 00 00 00 00	 call	 ?assign@?$basic_string@DU?$char_traits@D@std@@V?$allocator@D@2@@std@@QAEAAV12@PBDI@Z ; std::basic_string<char,std::char_traits<char>,std::allocator<char> >::assign
  00032	5f		 pop	 edi

; 363  : 		}

  00033	8b c6		 mov	 eax, esi
  00035	5e		 pop	 esi
  00036	c2 04 00	 ret	 4
??0?$basic_string@DU?$char_traits@D@std@@V?$allocator@D@2@@std@@QAE@PBD@Z ENDP ; std::basic_string<char,std::char_traits<char>,std::allocator<char> >::basic_string<char,std::char_traits<char>,std::allocator<char> >
_TEXT	ENDS
PUBLIC	??_R0?AVlogic_error@std@@@8			; std::logic_error `RTTI Type Descriptor'
PUBLIC	__CT??_R0?AVlogic_error@std@@@8??0logic_error@std@@QAE@ABV01@@Z40
PUBLIC	??_R0?AVexception@@@8				; exception `RTTI Type Descriptor'
PUBLIC	__CT??_R0?AVexception@@@8??0exception@@QAE@ABV0@@Z12
PUBLIC	?_Insert@?$_Tree@V?$_Tmap_traits@HPAV?$list@PAVCEventItem@@V?$allocator@PAVCEventItem@@@std@@@std@@U?$less@H@2@V?$allocator@U?$pair@$$CBHPAV?$list@PAVCEventItem@@V?$allocator@PAVCEventItem@@@std@@@std@@@std@@@2@$0A@@std@@@std@@IAE?AViterator@12@_NPAU_Node@?$_Tree_nod@V?$_Tmap_traits@HPAV?$list@PAVCEventItem@@V?$allocator@PAVCEventItem@@@std@@@std@@U?$less@H@2@V?$allocator@U?$pair@$$CBHPAV?$list@PAVCEventItem@@V?$allocator@PAVCEventItem@@@std@@@std@@@std@@@2@$0A@@std@@@2@ABU?$pair@$$CBHPAV?$list@PAVCEventItem@@V?$allocator@PAVCEventItem@@@std@@@std@@@2@@Z ; std::_Tree<std::_Tmap_traits<int,std::list<CEventItem *,std::allocator<CEventItem *> > *,std::less<int>,std::allocator<std::pair<int const ,std::list<CEventItem *,std::allocator<CEventItem *> > *> >,0> >::_Insert
PUBLIC	??0logic_error@std@@QAE@ABV01@@Z		; std::logic_error::logic_error
PUBLIC	??0length_error@std@@QAE@ABV01@@Z		; std::length_error::length_error
PUBLIC	__TI3?AVlength_error@std@@
PUBLIC	__CTA3?AVlength_error@std@@
PUBLIC	??_R0?AVlength_error@std@@@8			; std::length_error `RTTI Type Descriptor'
PUBLIC	__CT??_R0?AVlength_error@std@@@8??0length_error@std@@QAE@ABV01@@Z40
PUBLIC	??_C@_0BE@JONHPENG@map?1set?$DMT?$DO?5too?5long?$AA@ ; `string'
EXTRN	??0exception@@QAE@ABV0@@Z:NEAR			; exception::exception
EXTRN	??_7type_info@@6B@:DWORD			; type_info::`vftable'
;	COMDAT xdata$x
; File c:\program files\microsoft visual studio .net 2003\vc7\include\xtree
xdata$x	SEGMENT
$T195917 DD	0ffffffffH
	DD	FLAT:$L195547
$T195912 DD	019930520H
	DD	01H
	DD	FLAT:$T195917
	DD	2 DUP(00H)
	DD	2 DUP(00H)
xdata$x	ENDS
;	COMDAT ??_C@_0BE@JONHPENG@map?1set?$DMT?$DO?5too?5long?$AA@
CONST	SEGMENT
??_C@_0BE@JONHPENG@map?1set?$DMT?$DO?5too?5long?$AA@ DB 'map/set<T> too l'
	DB	'ong', 00H					; `string'
CONST	ENDS
;	COMDAT __TI3?AVlength_error@std@@
xdata$x	SEGMENT
__TI3?AVlength_error@std@@ DD 00H
	DD	FLAT:??1length_error@std@@UAE@XZ
	DD	00H
	DD	FLAT:__CTA3?AVlength_error@std@@
xdata$x	ENDS
;	COMDAT __CTA3?AVlength_error@std@@
xdata$x	SEGMENT
__CTA3?AVlength_error@std@@ DD 03H
	DD	FLAT:__CT??_R0?AVlength_error@std@@@8??0length_error@std@@QAE@ABV01@@Z40
	DD	FLAT:__CT??_R0?AVlogic_error@std@@@8??0logic_error@std@@QAE@ABV01@@Z40
	DD	FLAT:__CT??_R0?AVexception@@@8??0exception@@QAE@ABV0@@Z12
xdata$x	ENDS
;	COMDAT __CT??_R0?AVlength_error@std@@@8??0length_error@std@@QAE@ABV01@@Z40
xdata$x	SEGMENT
__CT??_R0?AVlength_error@std@@@8??0length_error@std@@QAE@ABV01@@Z40 DD 00H
	DD	FLAT:??_R0?AVlength_error@std@@@8
	DD	00H
	DD	0ffffffffH
	ORG $+4
	DD	028H
	DD	FLAT:??0length_error@std@@QAE@ABV01@@Z
xdata$x	ENDS
;	COMDAT ??_R0?AVlength_error@std@@@8
_DATA	SEGMENT
??_R0?AVlength_error@std@@@8 DD FLAT:??_7type_info@@6B@	; std::length_error `RTTI Type Descriptor'
	DD	00H
	DB	'.?AVlength_error@std@@', 00H
_DATA	ENDS
;	COMDAT __CT??_R0?AVlogic_error@std@@@8??0logic_error@std@@QAE@ABV01@@Z40
xdata$x	SEGMENT
__CT??_R0?AVlogic_error@std@@@8??0logic_error@std@@QAE@ABV01@@Z40 DD 00H
	DD	FLAT:??_R0?AVlogic_error@std@@@8
	DD	00H
	DD	0ffffffffH
	ORG $+4
	DD	028H
	DD	FLAT:??0logic_error@std@@QAE@ABV01@@Z
xdata$x	ENDS
;	COMDAT ??_R0?AVlogic_error@std@@@8
_DATA	SEGMENT
??_R0?AVlogic_error@std@@@8 DD FLAT:??_7type_info@@6B@	; std::logic_error `RTTI Type Descriptor'
	DD	00H
	DB	'.?AVlogic_error@std@@', 00H
_DATA	ENDS
;	COMDAT __CT??_R0?AVexception@@@8??0exception@@QAE@ABV0@@Z12
xdata$x	SEGMENT
__CT??_R0?AVexception@@@8??0exception@@QAE@ABV0@@Z12 DD 00H
	DD	FLAT:??_R0?AVexception@@@8
	DD	00H
	DD	0ffffffffH
	ORG $+4
	DD	0cH
	DD	FLAT:??0exception@@QAE@ABV0@@Z
xdata$x	ENDS
;	COMDAT ??_R0?AVexception@@@8
_DATA	SEGMENT
??_R0?AVexception@@@8 DD FLAT:??_7type_info@@6B@	; exception `RTTI Type Descriptor'
	DD	00H
	DB	'.?AVexception@@', 00H
; Function compile flags: /Ogty
_DATA	ENDS
;	COMDAT ?_Insert@?$_Tree@V?$_Tmap_traits@HPAV?$list@PAVCEventItem@@V?$allocator@PAVCEventItem@@@std@@@std@@U?$less@H@2@V?$allocator@U?$pair@$$CBHPAV?$list@PAVCEventItem@@V?$allocator@PAVCEventItem@@@std@@@std@@@std@@@2@$0A@@std@@@std@@IAE?AViterator@12@_NPAU_Node@?$_Tree_nod@V?$_Tmap_traits@HPAV?$list@PAVCEventItem@@V?$allocator@PAVCEventItem@@@std@@@std@@U?$less@H@2@V?$allocator@U?$pair@$$CBHPAV?$list@PAVCEventItem@@V?$allocator@PAVCEventItem@@@std@@@std@@@std@@@2@$0A@@std@@@2@ABU?$pair@$$CBHPAV?$list@PAVCEventItem@@V?$allocator@PAVCEventItem@@@std@@@std@@@2@@Z
_TEXT	SEGMENT
$T195546 = -80						; size = 28
$T195545 = -52						; size = 40
__$EHRec$ = -12						; size = 12
___$ReturnUdt$ = 8					; size = 4
__Addleft$ = 12						; size = 1
__Wherenode$ = 16					; size = 4
__Newnode$ = 20						; size = 4
__Val$ = 20						; size = 4
?_Insert@?$_Tree@V?$_Tmap_traits@HPAV?$list@PAVCEventItem@@V?$allocator@PAVCEventItem@@@std@@@std@@U?$less@H@2@V?$allocator@U?$pair@$$CBHPAV?$list@PAVCEventItem@@V?$allocator@PAVCEventItem@@@std@@@std@@@std@@@2@$0A@@std@@@std@@IAE?AViterator@12@_NPAU_Node@?$_Tree_nod@V?$_Tmap_traits@HPAV?$list@PAVCEventItem@@V?$allocator@PAVCEventItem@@@std@@@std@@U?$less@H@2@V?$allocator@U?$pair@$$CBHPAV?$list@PAVCEventItem@@V?$allocator@PAVCEventItem@@@std@@@std@@@std@@@2@$0A@@std@@@2@ABU?$pair@$$CBHPAV?$list@PAVCEventItem@@V?$allocator@PAVCEventItem@@@std@@@std@@@2@@Z PROC NEAR ; std::_Tree<std::_Tmap_traits<int,std::list<CEventItem *,std::allocator<CEventItem *> > *,std::less<int>,std::allocator<std::pair<int const ,std::list<CEventItem *,std::allocator<CEventItem *> > *> >,0> >::_Insert, COMDAT
; _this$ = ecx

; 911  : 		{	// add node with value next to _Wherenode, to left if _Addnode

  00000	64 a1 00 00 00
	00		 mov	 eax, DWORD PTR fs:__except_list
  00006	6a ff		 push	 -1
  00008	68 00 00 00 00	 push	 __ehhandler$?_Insert@?$_Tree@V?$_Tmap_traits@HPAV?$list@PAVCEventItem@@V?$allocator@PAVCEventItem@@@std@@@std@@U?$less@H@2@V?$allocator@U?$pair@$$CBHPAV?$list@PAVCEventItem@@V?$allocator@PAVCEventItem@@@std@@@std@@@std@@@2@$0A@@std@@@std@@IAE?AViterator@12@_NPAU_Node@?$_Tree_nod@V?$_Tmap_traits@HPAV?$list@PAVCEventItem@@V?$allocator@PAVCEventItem@@@std@@@std@@U?$less@H@2@V?$allocator@U?$pair@$$CBHPAV?$list@PAVCEventItem@@V?$allocator@PAVCEventItem@@@std@@@std@@@std@@@2@$0A@@std@@@2@ABU?$pair@$$CBHPAV?$list@PAVCEventItem@@V?$allocator@PAVCEventItem@@@std@@@std@@@2@@Z
  0000d	50		 push	 eax
  0000e	64 89 25 00 00
	00 00		 mov	 DWORD PTR fs:__except_list, esp
  00015	83 ec 44	 sub	 esp, 68			; 00000044H
  00018	56		 push	 esi
  00019	57		 push	 edi
  0001a	8b f9		 mov	 edi, ecx

; 912  : 		if (max_size() - 1 <= _Mysize)

  0001c	81 7f 08 fe ff
	ff 1f		 cmp	 DWORD PTR [edi+8], 536870910 ; 1ffffffeH
  00023	72 4c		 jb	 SHORT $L189168

; 913  : 			_THROW(length_error, "map/set<T> too long");

  00025	6a 13		 push	 19			; 00000013H
  00027	33 f6		 xor	 esi, esi
  00029	68 00 00 00 00	 push	 OFFSET FLAT:??_C@_0BE@JONHPENG@map?1set?$DMT?$DO?5too?5long?$AA@
  0002e	8d 4c 24 10	 lea	 ecx, DWORD PTR $T195546[esp+96]
  00032	c7 44 24 28 0f
	00 00 00	 mov	 DWORD PTR $T195546[esp+120], 15 ; 0000000fH
  0003a	89 74 24 24	 mov	 DWORD PTR $T195546[esp+116], esi
  0003e	c6 44 24 14 00	 mov	 BYTE PTR $T195546[esp+100], 0
  00043	e8 00 00 00 00	 call	 ?assign@?$basic_string@DU?$char_traits@D@std@@V?$allocator@D@2@@std@@QAEAAV12@PBDI@Z ; std::basic_string<char,std::char_traits<char>,std::allocator<char> >::assign
  00048	8d 44 24 08	 lea	 eax, DWORD PTR $T195546[esp+88]
  0004c	50		 push	 eax
  0004d	8d 4c 24 28	 lea	 ecx, DWORD PTR $T195545[esp+92]
  00051	89 74 24 58	 mov	 DWORD PTR __$EHRec$[esp+100], esi
  00055	e8 00 00 00 00	 call	 ??0logic_error@std@@QAE@ABV?$basic_string@DU?$char_traits@D@std@@V?$allocator@D@2@@1@@Z ; std::logic_error::logic_error
  0005a	68 00 00 00 00	 push	 OFFSET FLAT:__TI3?AVlength_error@std@@
  0005f	8d 4c 24 28	 lea	 ecx, DWORD PTR $T195545[esp+92]
  00063	51		 push	 ecx
  00064	c7 44 24 2c 00
	00 00 00	 mov	 DWORD PTR $T195545[esp+96], OFFSET FLAT:??_7length_error@std@@6B@
  0006c	e8 00 00 00 00	 call	 __CxxThrowException@8
$L189168:

; 914  : 		_Nodeptr _Newnode = _Buynode(_Myhead, _Wherenode, _Myhead,
; 915  : 			_Val, _Red);

  00071	8b 54 24 68	 mov	 edx, DWORD PTR __Val$[esp+84]
  00075	8b 47 04	 mov	 eax, DWORD PTR [edi+4]
  00078	8b 74 24 64	 mov	 esi, DWORD PTR __Wherenode$[esp+84]
  0007c	53		 push	 ebx
  0007d	6a 00		 push	 0
  0007f	52		 push	 edx
  00080	50		 push	 eax
  00081	56		 push	 esi
  00082	50		 push	 eax
  00083	8b cf		 mov	 ecx, edi
  00085	e8 00 00 00 00	 call	 ?_Buynode@?$_Tree@V?$_Tmap_traits@HPAV?$list@PAVCEventItem@@V?$allocator@PAVCEventItem@@@std@@@std@@U?$less@H@2@V?$allocator@U?$pair@$$CBHPAV?$list@PAVCEventItem@@V?$allocator@PAVCEventItem@@@std@@@std@@@std@@@2@$0A@@std@@@std@@IAEPAU_Node@?$_Tree_nod@V?$_Tmap_traits@HPAV?$list@PAVCEventItem@@V?$allocator@PAVCEventItem@@@std@@@std@@U?$less@H@2@V?$allocator@U?$pair@$$CBHPAV?$list@PAVCEventItem@@V?$allocator@PAVCEventItem@@@std@@@std@@@std@@@2@$0A@@std@@@2@PAU342@00ABU?$pair@$$CBHPAV?$list@PAVCEventItem@@V?$allocator@PAVCEventItem@@@std@@@std@@@2@D@Z ; std::_Tree<std::_Tmap_traits<int,std::list<CEventItem *,std::allocator<CEventItem *> > *,std::less<int>,std::allocator<std::pair<int const ,std::list<CEventItem *,std::allocator<CEventItem *> > *> >,0> >::_Buynode

; 916  : 
; 917  : 		++_Mysize;

  0008a	8b 5f 08	 mov	 ebx, DWORD PTR [edi+8]
  0008d	8b c8		 mov	 ecx, eax

; 918  : 		if (_Wherenode == _Myhead)

  0008f	8b 47 04	 mov	 eax, DWORD PTR [edi+4]
  00092	43		 inc	 ebx
  00093	3b f0		 cmp	 esi, eax
  00095	89 4c 24 6c	 mov	 DWORD PTR __Newnode$[esp+88], ecx
  00099	89 5f 08	 mov	 DWORD PTR [edi+8], ebx
  0009c	75 10		 jne	 SHORT $L189173

; 919  : 			{	// first node in tree, just set head values
; 920  : 			_Root() = _Newnode;

  0009e	89 48 04	 mov	 DWORD PTR [eax+4], ecx

; 921  : 			_Lmost() = _Newnode, _Rmost() = _Newnode;

  000a1	8b 47 04	 mov	 eax, DWORD PTR [edi+4]
  000a4	89 08		 mov	 DWORD PTR [eax], ecx
  000a6	8b 57 04	 mov	 edx, DWORD PTR [edi+4]
  000a9	89 4a 08	 mov	 DWORD PTR [edx+8], ecx

; 922  : 			}
; 923  : 		else if (_Addleft)

  000ac	eb 23		 jmp	 SHORT $L189178
$L189173:
  000ae	8a 44 24 64	 mov	 al, BYTE PTR __Addleft$[esp+88]
  000b2	84 c0		 test	 al, al
  000b4	74 0d		 je	 SHORT $L189175

; 924  : 			{	// add to left of _Wherenode
; 925  : 			_Left(_Wherenode) = _Newnode;

  000b6	89 0e		 mov	 DWORD PTR [esi], ecx

; 926  : 			if (_Wherenode == _Lmost())

  000b8	8b 47 04	 mov	 eax, DWORD PTR [edi+4]
  000bb	3b 30		 cmp	 esi, DWORD PTR [eax]
  000bd	75 12		 jne	 SHORT $L189178

; 927  : 				_Lmost() = _Newnode;

  000bf	89 08		 mov	 DWORD PTR [eax], ecx

; 928  : 			}
; 929  : 		else

  000c1	eb 0e		 jmp	 SHORT $L189178
$L189175:

; 930  : 			{	// add to right of _Wherenode
; 931  : 			_Right(_Wherenode) = _Newnode;

  000c3	89 4e 08	 mov	 DWORD PTR [esi+8], ecx

; 932  : 			if (_Wherenode == _Rmost())

  000c6	8b 47 04	 mov	 eax, DWORD PTR [edi+4]
  000c9	3b 70 08	 cmp	 esi, DWORD PTR [eax+8]
  000cc	75 03		 jne	 SHORT $L189178

; 933  : 				_Rmost() = _Newnode;

  000ce	89 48 08	 mov	 DWORD PTR [eax+8], ecx
$L189178:

; 934  : 			}
; 935  : 
; 936  : 		for (_Nodeptr _Pnode = _Newnode; _Color(_Parent(_Pnode)) == _Red; )

  000d1	8b 51 04	 mov	 edx, DWORD PTR [ecx+4]
  000d4	80 7a 14 00	 cmp	 BYTE PTR [edx+20], 0
  000d8	8d 41 04	 lea	 eax, DWORD PTR [ecx+4]
  000db	8b f1		 mov	 esi, ecx
  000dd	b3 01		 mov	 bl, 1
  000df	0f 85 a5 00 00
	00		 jne	 $L189182
  000e5	55		 push	 ebp
$L189181:

; 937  : 			if (_Parent(_Pnode) == _Left(_Parent(_Parent(_Pnode))))

  000e6	8b 08		 mov	 ecx, DWORD PTR [eax]
  000e8	8b 69 04	 mov	 ebp, DWORD PTR [ecx+4]
  000eb	8b 55 00	 mov	 edx, DWORD PTR [ebp]
  000ee	3b ca		 cmp	 ecx, edx
  000f0	75 50		 jne	 SHORT $L189183

; 938  : 				{	// fixup red-red in left subtree
; 939  : 				_Wherenode = _Right(_Parent(_Parent(_Pnode)));

  000f2	8b 55 08	 mov	 edx, DWORD PTR [ebp+8]

; 940  : 				if (_Color(_Wherenode) == _Red)

  000f5	80 7a 14 00	 cmp	 BYTE PTR [edx+20], 0
  000f9	75 18		 jne	 SHORT $L189184
$L195916:

; 941  : 					{	// parent has two red children, blacken both
; 942  : 					_Color(_Parent(_Pnode)) = _Black;

  000fb	8b 08		 mov	 ecx, DWORD PTR [eax]
  000fd	88 59 14	 mov	 BYTE PTR [ecx+20], bl

; 943  : 					_Color(_Wherenode) = _Black;

  00100	88 5a 14	 mov	 BYTE PTR [edx+20], bl

; 944  : 					_Color(_Parent(_Parent(_Pnode))) = _Red;

  00103	8b 10		 mov	 edx, DWORD PTR [eax]
  00105	8b 4a 04	 mov	 ecx, DWORD PTR [edx+4]
  00108	c6 41 14 00	 mov	 BYTE PTR [ecx+20], 0

; 945  : 					_Pnode = _Parent(_Parent(_Pnode));

  0010c	8b 10		 mov	 edx, DWORD PTR [eax]
  0010e	8b 72 04	 mov	 esi, DWORD PTR [edx+4]

; 946  : 					}
; 947  : 				else

  00111	eb 61		 jmp	 SHORT $L189189
$L189184:

; 948  : 					{	// parent has red and black children
; 949  : 					if (_Pnode == _Right(_Parent(_Pnode)))

  00113	3b 71 08	 cmp	 esi, DWORD PTR [ecx+8]
  00116	75 0a		 jne	 SHORT $L189186

; 950  : 						{	// rotate right child to left
; 951  : 						_Pnode = _Parent(_Pnode);

  00118	8b f1		 mov	 esi, ecx

; 952  : 						_Lrotate(_Pnode);

  0011a	56		 push	 esi
  0011b	8b cf		 mov	 ecx, edi
  0011d	e8 00 00 00 00	 call	 ?_Lrotate@?$_Tree@V?$_Tmap_traits@HPAV?$list@PAVCEventItem@@V?$allocator@PAVCEventItem@@@std@@@std@@U?$less@H@2@V?$allocator@U?$pair@$$CBHPAV?$list@PAVCEventItem@@V?$allocator@PAVCEventItem@@@std@@@std@@@std@@@2@$0A@@std@@@std@@IAEXPAU_Node@?$_Tree_nod@V?$_Tmap_traits@HPAV?$list@PAVCEventItem@@V?$allocator@PAVCEventItem@@@std@@@std@@U?$less@H@2@V?$allocator@U?$pair@$$CBHPAV?$list@PAVCEventItem@@V?$allocator@PAVCEventItem@@@std@@@std@@@std@@@2@$0A@@std@@@2@@Z ; std::_Tree<std::_Tmap_traits<int,std::list<CEventItem *,std::allocator<CEventItem *> > *,std::less<int>,std::allocator<std::pair<int const ,std::list<CEventItem *,std::allocator<CEventItem *> > *> >,0> >::_Lrotate
$L189186:

; 953  : 						}
; 954  : 					_Color(_Parent(_Pnode)) = _Black;	// propagate red up

  00122	8b 46 04	 mov	 eax, DWORD PTR [esi+4]
  00125	88 58 14	 mov	 BYTE PTR [eax+20], bl

; 955  : 					_Color(_Parent(_Parent(_Pnode))) = _Red;

  00128	8b 4e 04	 mov	 ecx, DWORD PTR [esi+4]
  0012b	8b 51 04	 mov	 edx, DWORD PTR [ecx+4]
  0012e	c6 42 14 00	 mov	 BYTE PTR [edx+20], 0

; 956  : 					_Rrotate(_Parent(_Parent(_Pnode)));

  00132	8b 46 04	 mov	 eax, DWORD PTR [esi+4]
  00135	8b 48 04	 mov	 ecx, DWORD PTR [eax+4]
  00138	51		 push	 ecx
  00139	8b cf		 mov	 ecx, edi
  0013b	e8 00 00 00 00	 call	 ?_Rrotate@?$_Tree@V?$_Tmap_traits@HPAV?$list@PAVCEventItem@@V?$allocator@PAVCEventItem@@@std@@@std@@U?$less@H@2@V?$allocator@U?$pair@$$CBHPAV?$list@PAVCEventItem@@V?$allocator@PAVCEventItem@@@std@@@std@@@std@@@2@$0A@@std@@@std@@IAEXPAU_Node@?$_Tree_nod@V?$_Tmap_traits@HPAV?$list@PAVCEventItem@@V?$allocator@PAVCEventItem@@@std@@@std@@U?$less@H@2@V?$allocator@U?$pair@$$CBHPAV?$list@PAVCEventItem@@V?$allocator@PAVCEventItem@@@std@@@std@@@std@@@2@$0A@@std@@@2@@Z ; std::_Tree<std::_Tmap_traits<int,std::list<CEventItem *,std::allocator<CEventItem *> > *,std::less<int>,std::allocator<std::pair<int const ,std::list<CEventItem *,std::allocator<CEventItem *> > *> >,0> >::_Rrotate

; 957  : 					}
; 958  : 				}
; 959  : 			else

  00140	eb 32		 jmp	 SHORT $L189189
$L189183:

; 960  : 				{	// fixup red-red in right subtree
; 961  : 				_Wherenode = _Left(_Parent(_Parent(_Pnode)));
; 962  : 				if (_Color(_Wherenode) == _Red)

  00142	80 7a 14 00	 cmp	 BYTE PTR [edx+20], 0

; 963  : 					{	// parent has two red children, blacken both
; 964  : 					_Color(_Parent(_Pnode)) = _Black;
; 965  : 					_Color(_Wherenode) = _Black;
; 966  : 					_Color(_Parent(_Parent(_Pnode))) = _Red;
; 967  : 					_Pnode = _Parent(_Parent(_Pnode));
; 968  : 					}
; 969  : 				else

  00146	74 b3		 je	 SHORT $L195916

; 970  : 					{	// parent has red and black children
; 971  : 					if (_Pnode == _Left(_Parent(_Pnode)))

  00148	3b 31		 cmp	 esi, DWORD PTR [ecx]
  0014a	75 0a		 jne	 SHORT $L189190

; 972  : 						{	// rotate left child to right
; 973  : 						_Pnode = _Parent(_Pnode);

  0014c	8b f1		 mov	 esi, ecx

; 974  : 						_Rrotate(_Pnode);

  0014e	56		 push	 esi
  0014f	8b cf		 mov	 ecx, edi
  00151	e8 00 00 00 00	 call	 ?_Rrotate@?$_Tree@V?$_Tmap_traits@HPAV?$list@PAVCEventItem@@V?$allocator@PAVCEventItem@@@std@@@std@@U?$less@H@2@V?$allocator@U?$pair@$$CBHPAV?$list@PAVCEventItem@@V?$allocator@PAVCEventItem@@@std@@@std@@@std@@@2@$0A@@std@@@std@@IAEXPAU_Node@?$_Tree_nod@V?$_Tmap_traits@HPAV?$list@PAVCEventItem@@V?$allocator@PAVCEventItem@@@std@@@std@@U?$less@H@2@V?$allocator@U?$pair@$$CBHPAV?$list@PAVCEventItem@@V?$allocator@PAVCEventItem@@@std@@@std@@@std@@@2@$0A@@std@@@2@@Z ; std::_Tree<std::_Tmap_traits<int,std::list<CEventItem *,std::allocator<CEventItem *> > *,std::less<int>,std::allocator<std::pair<int const ,std::list<CEventItem *,std::allocator<CEventItem *> > *> >,0> >::_Rrotate
$L189190:

; 975  : 						}
; 976  : 					_Color(_Parent(_Pnode)) = _Black;	// propagate red up

  00156	8b 46 04	 mov	 eax, DWORD PTR [esi+4]
  00159	88 58 14	 mov	 BYTE PTR [eax+20], bl

; 977  : 					_Color(_Parent(_Parent(_Pnode))) = _Red;

  0015c	8b 4e 04	 mov	 ecx, DWORD PTR [esi+4]
  0015f	8b 51 04	 mov	 edx, DWORD PTR [ecx+4]
  00162	c6 42 14 00	 mov	 BYTE PTR [edx+20], 0

; 978  : 					_Lrotate(_Parent(_Parent(_Pnode)));

  00166	8b 46 04	 mov	 eax, DWORD PTR [esi+4]
  00169	8b 48 04	 mov	 ecx, DWORD PTR [eax+4]
  0016c	51		 push	 ecx
  0016d	8b cf		 mov	 ecx, edi
  0016f	e8 00 00 00 00	 call	 ?_Lrotate@?$_Tree@V?$_Tmap_traits@HPAV?$list@PAVCEventItem@@V?$allocator@PAVCEventItem@@@std@@@std@@U?$less@H@2@V?$allocator@U?$pair@$$CBHPAV?$list@PAVCEventItem@@V?$allocator@PAVCEventItem@@@std@@@std@@@std@@@2@$0A@@std@@@std@@IAEXPAU_Node@?$_Tree_nod@V?$_Tmap_traits@HPAV?$list@PAVCEventItem@@V?$allocator@PAVCEventItem@@@std@@@std@@U?$less@H@2@V?$allocator@U?$pair@$$CBHPAV?$list@PAVCEventItem@@V?$allocator@PAVCEventItem@@@std@@@std@@@std@@@2@$0A@@std@@@2@@Z ; std::_Tree<std::_Tmap_traits<int,std::list<CEventItem *,std::allocator<CEventItem *> > *,std::less<int>,std::allocator<std::pair<int const ,std::list<CEventItem *,std::allocator<CEventItem *> > *> >,0> >::_Lrotate
$L189189:
  00174	8b 56 04	 mov	 edx, DWORD PTR [esi+4]
  00177	8a 4a 14	 mov	 cl, BYTE PTR [edx+20]
  0017a	84 c9		 test	 cl, cl
  0017c	8d 46 04	 lea	 eax, DWORD PTR [esi+4]
  0017f	0f 84 61 ff ff
	ff		 je	 $L189181
  00185	8b 4c 24 70	 mov	 ecx, DWORD PTR __Newnode$[esp+92]
  00189	5d		 pop	 ebp
$L189182:

; 979  : 					}
; 980  : 				}
; 981  : 
; 982  : 		_Color(_Root()) = _Black;	// root is always black

  0018a	8b 47 04	 mov	 eax, DWORD PTR [edi+4]
  0018d	8b 50 04	 mov	 edx, DWORD PTR [eax+4]

; 983  : 		return (_TREE_ITERATOR(_Newnode));

  00190	8b 44 24 60	 mov	 eax, DWORD PTR ___$ReturnUdt$[esp+88]
  00194	88 5a 14	 mov	 BYTE PTR [edx+20], bl
  00197	5b		 pop	 ebx
  00198	89 08		 mov	 DWORD PTR [eax], ecx

; 984  : 		}

  0019a	8b 4c 24 4c	 mov	 ecx, DWORD PTR __$EHRec$[esp+88]
  0019e	5f		 pop	 edi
  0019f	5e		 pop	 esi
  001a0	64 89 0d 00 00
	00 00		 mov	 DWORD PTR fs:__except_list, ecx
  001a7	83 c4 50	 add	 esp, 80			; 00000050H
  001aa	c2 10 00	 ret	 16			; 00000010H
$L195915:
_TEXT	ENDS
;	COMDAT text$x
text$x	SEGMENT
$L195547:
  00000	8d 4d b0	 lea	 ecx, DWORD PTR $T195546[ebp]
  00003	e9 00 00 00 00	 jmp	 ??1?$basic_string@DU?$char_traits@D@std@@V?$allocator@D@2@@std@@QAE@XZ ; std::basic_string<char,std::char_traits<char>,std::allocator<char> >::~basic_string<char,std::char_traits<char>,std::allocator<char> >
__ehhandler$?_Insert@?$_Tree@V?$_Tmap_traits@HPAV?$list@PAVCEventItem@@V?$allocator@PAVCEventItem@@@std@@@std@@U?$less@H@2@V?$allocator@U?$pair@$$CBHPAV?$list@PAVCEventItem@@V?$allocator@PAVCEventItem@@@std@@@std@@@std@@@2@$0A@@std@@@std@@IAE?AViterator@12@_NPAU_Node@?$_Tree_nod@V?$_Tmap_traits@HPAV?$list@PAVCEventItem@@V?$allocator@PAVCEventItem@@@std@@@std@@U?$less@H@2@V?$allocator@U?$pair@$$CBHPAV?$list@PAVCEventItem@@V?$allocator@PAVCEventItem@@@std@@@std@@@std@@@2@$0A@@std@@@2@ABU?$pair@$$CBHPAV?$list@PAVCEventItem@@V?$allocator@PAVCEventItem@@@std@@@std@@@2@@Z:
  00008	b8 00 00 00 00	 mov	 eax, OFFSET FLAT:$T195912
  0000d	e9 00 00 00 00	 jmp	 ___CxxFrameHandler
text$x	ENDS
?_Insert@?$_Tree@V?$_Tmap_traits@HPAV?$list@PAVCEventItem@@V?$allocator@PAVCEventItem@@@std@@@std@@U?$less@H@2@V?$allocator@U?$pair@$$CBHPAV?$list@PAVCEventItem@@V?$allocator@PAVCEventItem@@@std@@@std@@@std@@@2@$0A@@std@@@std@@IAE?AViterator@12@_NPAU_Node@?$_Tree_nod@V?$_Tmap_traits@HPAV?$list@PAVCEventItem@@V?$allocator@PAVCEventItem@@@std@@@std@@U?$less@H@2@V?$allocator@U?$pair@$$CBHPAV?$list@PAVCEventItem@@V?$allocator@PAVCEventItem@@@std@@@std@@@std@@@2@$0A@@std@@@2@ABU?$pair@$$CBHPAV?$list@PAVCEventItem@@V?$allocator@PAVCEventItem@@@std@@@std@@@2@@Z ENDP ; std::_Tree<std::_Tmap_traits<int,std::list<CEventItem *,std::allocator<CEventItem *> > *,std::less<int>,std::allocator<std::pair<int const ,std::list<CEventItem *,std::allocator<CEventItem *> > *> >,0> >::_Insert
;	COMDAT xdata$x
xdata$x	SEGMENT
$T196022 DD	0ffffffffH
	DD	FLAT:$L195922
$T196020 DD	019930520H
	DD	01H
	DD	FLAT:$T196022
	DD	2 DUP(00H)
	DD	2 DUP(00H)
; Function compile flags: /Ogty
xdata$x	ENDS
;	COMDAT ??0logic_error@std@@QAE@ABV01@@Z
_TEXT	SEGMENT
_this$ = -16						; size = 4
__$EHRec$ = -12						; size = 12
___that$ = 8						; size = 4
??0logic_error@std@@QAE@ABV01@@Z PROC NEAR		; std::logic_error::logic_error, COMDAT
; _this$ = ecx
  00000	6a ff		 push	 -1
  00002	68 00 00 00 00	 push	 __ehhandler$??0logic_error@std@@QAE@ABV01@@Z
  00007	64 a1 00 00 00
	00		 mov	 eax, DWORD PTR fs:__except_list
  0000d	50		 push	 eax
  0000e	64 89 25 00 00
	00 00		 mov	 DWORD PTR fs:__except_list, esp
  00015	51		 push	 ecx
  00016	56		 push	 esi
  00017	57		 push	 edi
  00018	8b 7c 24 1c	 mov	 edi, DWORD PTR ___that$[esp+20]
  0001c	8b f1		 mov	 esi, ecx
  0001e	57		 push	 edi
  0001f	89 74 24 0c	 mov	 DWORD PTR _this$[esp+28], esi
  00023	e8 00 00 00 00	 call	 ??0exception@@QAE@ABV0@@Z ; exception::exception
  00028	33 c0		 xor	 eax, eax
  0002a	6a ff		 push	 -1
  0002c	8d 4e 0c	 lea	 ecx, DWORD PTR [esi+12]
  0002f	c7 06 00 00 00
	00		 mov	 DWORD PTR [esi], OFFSET FLAT:??_7logic_error@std@@6B@
  00035	50		 push	 eax
  00036	83 c7 0c	 add	 edi, 12			; 0000000cH
  00039	c7 41 18 0f 00
	00 00		 mov	 DWORD PTR [ecx+24], 15	; 0000000fH
  00040	89 41 14	 mov	 DWORD PTR [ecx+20], eax
  00043	57		 push	 edi
  00044	89 44 24 20	 mov	 DWORD PTR __$EHRec$[esp+44], eax
  00048	88 41 04	 mov	 BYTE PTR [ecx+4], al
  0004b	e8 00 00 00 00	 call	 ?assign@?$basic_string@DU?$char_traits@D@std@@V?$allocator@D@2@@std@@QAEAAV12@ABV12@II@Z ; std::basic_string<char,std::char_traits<char>,std::allocator<char> >::assign
  00050	8b 4c 24 0c	 mov	 ecx, DWORD PTR __$EHRec$[esp+24]
  00054	5f		 pop	 edi
  00055	8b c6		 mov	 eax, esi
  00057	5e		 pop	 esi
  00058	64 89 0d 00 00
	00 00		 mov	 DWORD PTR fs:__except_list, ecx
  0005f	83 c4 10	 add	 esp, 16			; 00000010H
  00062	c2 04 00	 ret	 4
_TEXT	ENDS
;	COMDAT text$x
text$x	SEGMENT
$L195922:
  00000	8b 4d f0	 mov	 ecx, DWORD PTR _this$[ebp]
  00003	e9 00 00 00 00	 jmp	 ??1exception@@UAE@XZ	; exception::~exception
__ehhandler$??0logic_error@std@@QAE@ABV01@@Z:
  00008	b8 00 00 00 00	 mov	 eax, OFFSET FLAT:$T196020
  0000d	e9 00 00 00 00	 jmp	 ___CxxFrameHandler
text$x	ENDS
??0logic_error@std@@QAE@ABV01@@Z ENDP			; std::logic_error::logic_error
; Function compile flags: /Ogty
;	COMDAT ??0length_error@std@@QAE@ABV01@@Z
_TEXT	SEGMENT
___that$ = 8						; size = 4
??0length_error@std@@QAE@ABV01@@Z PROC NEAR		; std::length_error::length_error, COMDAT
; _this$ = ecx
  00000	8b 44 24 04	 mov	 eax, DWORD PTR ___that$[esp-4]
  00004	56		 push	 esi
  00005	50		 push	 eax
  00006	8b f1		 mov	 esi, ecx
  00008	e8 00 00 00 00	 call	 ??0logic_error@std@@QAE@ABV01@@Z
  0000d	c7 06 00 00 00
	00		 mov	 DWORD PTR [esi], OFFSET FLAT:??_7length_error@std@@6B@
  00013	8b c6		 mov	 eax, esi
  00015	5e		 pop	 esi
  00016	c2 04 00	 ret	 4
??0length_error@std@@QAE@ABV01@@Z ENDP			; std::length_error::length_error
_TEXT	ENDS
PUBLIC	??_C@_0BB@MOGOBHAF@list?$DMT?$DO?5too?5long?$AA@ ; `string'
PUBLIC	?_Incsize@?$list@PAU_EVENT_GENERIC@@V?$allocator@PAU_EVENT_GENERIC@@@std@@@std@@IAEXI@Z ; std::list<_EVENT_GENERIC *,std::allocator<_EVENT_GENERIC *> >::_Incsize
;	COMDAT xdata$x
; File c:\program files\microsoft visual studio .net 2003\vc7\include\stdexcept
xdata$x	SEGMENT
$T196163 DD	0ffffffffH
	DD	FLAT:$L196032
$T196160 DD	019930520H
	DD	01H
	DD	FLAT:$T196163
	DD	2 DUP(00H)
	DD	2 DUP(00H)
xdata$x	ENDS
;	COMDAT ??_C@_0BB@MOGOBHAF@list?$DMT?$DO?5too?5long?$AA@
CONST	SEGMENT
??_C@_0BB@MOGOBHAF@list?$DMT?$DO?5too?5long?$AA@ DB 'list<T> too long', 00H ; `string'
; Function compile flags: /Ogty
; File c:\program files\microsoft visual studio .net 2003\vc7\include\list
CONST	ENDS
;	COMDAT ?_Incsize@?$list@PAU_EVENT_GENERIC@@V?$allocator@PAU_EVENT_GENERIC@@@std@@@std@@IAEXI@Z
_TEXT	SEGMENT
$T196031 = -80						; size = 28
$T196030 = -52						; size = 40
__$EHRec$ = -12						; size = 12
__Count$ = 8						; size = 4
?_Incsize@?$list@PAU_EVENT_GENERIC@@V?$allocator@PAU_EVENT_GENERIC@@@std@@@std@@IAEXI@Z PROC NEAR ; std::list<_EVENT_GENERIC *,std::allocator<_EVENT_GENERIC *> >::_Incsize, COMDAT
; _this$ = ecx

; 956  : 		{	// alter element count, with checking

  00000	64 a1 00 00 00
	00		 mov	 eax, DWORD PTR fs:__except_list

; 957  : 		if (max_size() - _Mysize < _Count)

  00006	8b 54 24 04	 mov	 edx, DWORD PTR __Count$[esp-4]
  0000a	6a ff		 push	 -1
  0000c	68 00 00 00 00	 push	 __ehhandler$?_Incsize@?$list@PAU_EVENT_GENERIC@@V?$allocator@PAU_EVENT_GENERIC@@@std@@@std@@IAEXI@Z
  00011	50		 push	 eax
  00012	64 89 25 00 00
	00 00		 mov	 DWORD PTR fs:__except_list, esp
  00019	8b 41 08	 mov	 eax, DWORD PTR [ecx+8]
  0001c	83 ec 44	 sub	 esp, 68			; 00000044H
  0001f	56		 push	 esi
  00020	be ff ff ff 3f	 mov	 esi, 1073741823		; 3fffffffH
  00025	2b f0		 sub	 esi, eax
  00027	3b f2		 cmp	 esi, edx
  00029	5e		 pop	 esi
  0002a	73 51		 jae	 SHORT $L189295

; 958  : 			_THROW(length_error, "list<T> too long");

  0002c	6a 10		 push	 16			; 00000010H
  0002e	68 00 00 00 00	 push	 OFFSET FLAT:??_C@_0BB@MOGOBHAF@list?$DMT?$DO?5too?5long?$AA@
  00033	8d 4c 24 08	 lea	 ecx, DWORD PTR $T196031[esp+88]
  00037	c7 44 24 20 0f
	00 00 00	 mov	 DWORD PTR $T196031[esp+112], 15 ; 0000000fH
  0003f	c7 44 24 1c 00
	00 00 00	 mov	 DWORD PTR $T196031[esp+108], 0
  00047	c6 44 24 0c 00	 mov	 BYTE PTR $T196031[esp+92], 0
  0004c	e8 00 00 00 00	 call	 ?assign@?$basic_string@DU?$char_traits@D@std@@V?$allocator@D@2@@std@@QAEAAV12@PBDI@Z ; std::basic_string<char,std::char_traits<char>,std::allocator<char> >::assign
  00051	8d 04 24	 lea	 eax, DWORD PTR $T196031[esp+80]
  00054	50		 push	 eax
  00055	8d 4c 24 20	 lea	 ecx, DWORD PTR $T196030[esp+84]
  00059	c7 44 24 50 00
	00 00 00	 mov	 DWORD PTR __$EHRec$[esp+92], 0
  00061	e8 00 00 00 00	 call	 ??0logic_error@std@@QAE@ABV?$basic_string@DU?$char_traits@D@std@@V?$allocator@D@2@@1@@Z ; std::logic_error::logic_error
  00066	68 00 00 00 00	 push	 OFFSET FLAT:__TI3?AVlength_error@std@@
  0006b	8d 4c 24 20	 lea	 ecx, DWORD PTR $T196030[esp+84]
  0006f	51		 push	 ecx
  00070	c7 44 24 24 00
	00 00 00	 mov	 DWORD PTR $T196030[esp+88], OFFSET FLAT:??_7length_error@std@@6B@
  00078	e8 00 00 00 00	 call	 __CxxThrowException@8
$L189295:

; 959  : 		_Mysize += _Count;

  0007d	03 c2		 add	 eax, edx
  0007f	89 41 08	 mov	 DWORD PTR [ecx+8], eax

; 960  : 		}

  00082	8b 4c 24 44	 mov	 ecx, DWORD PTR __$EHRec$[esp+80]
  00086	64 89 0d 00 00
	00 00		 mov	 DWORD PTR fs:__except_list, ecx
  0008d	83 c4 50	 add	 esp, 80			; 00000050H
  00090	c2 04 00	 ret	 4
$L196162:
_TEXT	ENDS
;	COMDAT text$x
text$x	SEGMENT
$L196032:
  00000	8d 4d b0	 lea	 ecx, DWORD PTR $T196031[ebp]
  00003	e9 00 00 00 00	 jmp	 ??1?$basic_string@DU?$char_traits@D@std@@V?$allocator@D@2@@std@@QAE@XZ ; std::basic_string<char,std::char_traits<char>,std::allocator<char> >::~basic_string<char,std::char_traits<char>,std::allocator<char> >
__ehhandler$?_Incsize@?$list@PAU_EVENT_GENERIC@@V?$allocator@PAU_EVENT_GENERIC@@@std@@@std@@IAEXI@Z:
  00008	b8 00 00 00 00	 mov	 eax, OFFSET FLAT:$T196160
  0000d	e9 00 00 00 00	 jmp	 ___CxxFrameHandler
text$x	ENDS
?_Incsize@?$list@PAU_EVENT_GENERIC@@V?$allocator@PAU_EVENT_GENERIC@@@std@@@std@@IAEXI@Z ENDP ; std::list<_EVENT_GENERIC *,std::allocator<_EVENT_GENERIC *> >::_Incsize
PUBLIC	?_Incsize@?$list@PAVCEventItem@@V?$allocator@PAVCEventItem@@@std@@@std@@IAEXI@Z ; std::list<CEventItem *,std::allocator<CEventItem *> >::_Incsize
;	COMDAT xdata$x
; File c:\program files\microsoft visual studio .net 2003\vc7\include\stdexcept
xdata$x	SEGMENT
$T196301 DD	0ffffffffH
	DD	FLAT:$L196170
$T196298 DD	019930520H
	DD	01H
	DD	FLAT:$T196301
	DD	2 DUP(00H)
	DD	2 DUP(00H)
; Function compile flags: /Ogty
; File c:\program files\microsoft visual studio .net 2003\vc7\include\list
xdata$x	ENDS
;	COMDAT ?_Incsize@?$list@PAVCEventItem@@V?$allocator@PAVCEventItem@@@std@@@std@@IAEXI@Z
_TEXT	SEGMENT
$T196169 = -80						; size = 28
$T196168 = -52						; size = 40
__$EHRec$ = -12						; size = 12
__Count$ = 8						; size = 4
?_Incsize@?$list@PAVCEventItem@@V?$allocator@PAVCEventItem@@@std@@@std@@IAEXI@Z PROC NEAR ; std::list<CEventItem *,std::allocator<CEventItem *> >::_Incsize, COMDAT
; _this$ = ecx

; 956  : 		{	// alter element count, with checking

  00000	64 a1 00 00 00
	00		 mov	 eax, DWORD PTR fs:__except_list

; 957  : 		if (max_size() - _Mysize < _Count)

  00006	8b 54 24 04	 mov	 edx, DWORD PTR __Count$[esp-4]
  0000a	6a ff		 push	 -1
  0000c	68 00 00 00 00	 push	 __ehhandler$?_Incsize@?$list@PAVCEventItem@@V?$allocator@PAVCEventItem@@@std@@@std@@IAEXI@Z
  00011	50		 push	 eax
  00012	64 89 25 00 00
	00 00		 mov	 DWORD PTR fs:__except_list, esp
  00019	8b 41 08	 mov	 eax, DWORD PTR [ecx+8]
  0001c	83 ec 44	 sub	 esp, 68			; 00000044H
  0001f	56		 push	 esi
  00020	be ff ff ff 3f	 mov	 esi, 1073741823		; 3fffffffH
  00025	2b f0		 sub	 esi, eax
  00027	3b f2		 cmp	 esi, edx
  00029	5e		 pop	 esi
  0002a	73 51		 jae	 SHORT $L189439

; 958  : 			_THROW(length_error, "list<T> too long");

  0002c	6a 10		 push	 16			; 00000010H
  0002e	68 00 00 00 00	 push	 OFFSET FLAT:??_C@_0BB@MOGOBHAF@list?$DMT?$DO?5too?5long?$AA@
  00033	8d 4c 24 08	 lea	 ecx, DWORD PTR $T196169[esp+88]
  00037	c7 44 24 20 0f
	00 00 00	 mov	 DWORD PTR $T196169[esp+112], 15 ; 0000000fH
  0003f	c7 44 24 1c 00
	00 00 00	 mov	 DWORD PTR $T196169[esp+108], 0
  00047	c6 44 24 0c 00	 mov	 BYTE PTR $T196169[esp+92], 0
  0004c	e8 00 00 00 00	 call	 ?assign@?$basic_string@DU?$char_traits@D@std@@V?$allocator@D@2@@std@@QAEAAV12@PBDI@Z ; std::basic_string<char,std::char_traits<char>,std::allocator<char> >::assign
  00051	8d 04 24	 lea	 eax, DWORD PTR $T196169[esp+80]
  00054	50		 push	 eax
  00055	8d 4c 24 20	 lea	 ecx, DWORD PTR $T196168[esp+84]
  00059	c7 44 24 50 00
	00 00 00	 mov	 DWORD PTR __$EHRec$[esp+92], 0
  00061	e8 00 00 00 00	 call	 ??0logic_error@std@@QAE@ABV?$basic_string@DU?$char_traits@D@std@@V?$allocator@D@2@@1@@Z ; std::logic_error::logic_error
  00066	68 00 00 00 00	 push	 OFFSET FLAT:__TI3?AVlength_error@std@@
  0006b	8d 4c 24 20	 lea	 ecx, DWORD PTR $T196168[esp+84]
  0006f	51		 push	 ecx
  00070	c7 44 24 24 00
	00 00 00	 mov	 DWORD PTR $T196168[esp+88], OFFSET FLAT:??_7length_error@std@@6B@
  00078	e8 00 00 00 00	 call	 __CxxThrowException@8
$L189439:

; 959  : 		_Mysize += _Count;

  0007d	03 c2		 add	 eax, edx
  0007f	89 41 08	 mov	 DWORD PTR [ecx+8], eax

; 960  : 		}

  00082	8b 4c 24 44	 mov	 ecx, DWORD PTR __$EHRec$[esp+80]
  00086	64 89 0d 00 00
	00 00		 mov	 DWORD PTR fs:__except_list, ecx
  0008d	83 c4 50	 add	 esp, 80			; 00000050H
  00090	c2 04 00	 ret	 4
$L196300:
_TEXT	ENDS
;	COMDAT text$x
text$x	SEGMENT
$L196170:
  00000	8d 4d b0	 lea	 ecx, DWORD PTR $T196169[ebp]
  00003	e9 00 00 00 00	 jmp	 ??1?$basic_string@DU?$char_traits@D@std@@V?$allocator@D@2@@std@@QAE@XZ ; std::basic_string<char,std::char_traits<char>,std::allocator<char> >::~basic_string<char,std::char_traits<char>,std::allocator<char> >
__ehhandler$?_Incsize@?$list@PAVCEventItem@@V?$allocator@PAVCEventItem@@@std@@@std@@IAEXI@Z:
  00008	b8 00 00 00 00	 mov	 eax, OFFSET FLAT:$T196298
  0000d	e9 00 00 00 00	 jmp	 ___CxxFrameHandler
text$x	ENDS
?_Incsize@?$list@PAVCEventItem@@V?$allocator@PAVCEventItem@@@std@@@std@@IAEXI@Z ENDP ; std::list<CEventItem *,std::allocator<CEventItem *> >::_Incsize
PUBLIC	??_C@_0BM@PAPJHAGI@invalid?5map?1set?$DMT?$DO?5iterator?$AA@ ; `string'
PUBLIC	?erase@?$_Tree@V?$_Tmap_traits@HPAV?$list@PAVCEventItem@@V?$allocator@PAVCEventItem@@@std@@@std@@U?$less@H@2@V?$allocator@U?$pair@$$CBHPAV?$list@PAVCEventItem@@V?$allocator@PAVCEventItem@@@std@@@std@@@std@@@2@$0A@@std@@@std@@QAE?AViterator@12@V312@@Z ; std::_Tree<std::_Tmap_traits<int,std::list<CEventItem *,std::allocator<CEventItem *> > *,std::less<int>,std::allocator<std::pair<int const ,std::list<CEventItem *,std::allocator<CEventItem *> > *> >,0> >::erase
PUBLIC	__TI3?AVout_of_range@std@@
PUBLIC	__CTA3?AVout_of_range@std@@
PUBLIC	??_R0?AVout_of_range@std@@@8			; std::out_of_range `RTTI Type Descriptor'
PUBLIC	__CT??_R0?AVout_of_range@std@@@8??0out_of_range@std@@QAE@ABV01@@Z40
PUBLIC	??0out_of_range@std@@QAE@ABV01@@Z		; std::out_of_range::out_of_range
;	COMDAT xdata$x
; File c:\program files\microsoft visual studio .net 2003\vc7\include\xmemory
xdata$x	SEGMENT
$T196798 DD	0ffffffffH
	DD	FLAT:$L196312
$T196790 DD	019930520H
	DD	01H
	DD	FLAT:$T196798
	DD	2 DUP(00H)
	DD	2 DUP(00H)
xdata$x	ENDS
;	COMDAT ??_C@_0BM@PAPJHAGI@invalid?5map?1set?$DMT?$DO?5iterator?$AA@
CONST	SEGMENT
??_C@_0BM@PAPJHAGI@invalid?5map?1set?$DMT?$DO?5iterator?$AA@ DB 'invalid '
	DB	'map/set<T> iterator', 00H			; `string'
CONST	ENDS
;	COMDAT __TI3?AVout_of_range@std@@
xdata$x	SEGMENT
__TI3?AVout_of_range@std@@ DD 00H
	DD	FLAT:??1out_of_range@std@@UAE@XZ
	DD	00H
	DD	FLAT:__CTA3?AVout_of_range@std@@
xdata$x	ENDS
;	COMDAT __CTA3?AVout_of_range@std@@
xdata$x	SEGMENT
__CTA3?AVout_of_range@std@@ DD 03H
	DD	FLAT:__CT??_R0?AVout_of_range@std@@@8??0out_of_range@std@@QAE@ABV01@@Z40
	DD	FLAT:__CT??_R0?AVlogic_error@std@@@8??0logic_error@std@@QAE@ABV01@@Z40
	DD	FLAT:__CT??_R0?AVexception@@@8??0exception@@QAE@ABV0@@Z12
xdata$x	ENDS
;	COMDAT __CT??_R0?AVout_of_range@std@@@8??0out_of_range@std@@QAE@ABV01@@Z40
xdata$x	SEGMENT
__CT??_R0?AVout_of_range@std@@@8??0out_of_range@std@@QAE@ABV01@@Z40 DD 00H
	DD	FLAT:??_R0?AVout_of_range@std@@@8
	DD	00H
	DD	0ffffffffH
	ORG $+4
	DD	028H
	DD	FLAT:??0out_of_range@std@@QAE@ABV01@@Z
xdata$x	ENDS
;	COMDAT ??_R0?AVout_of_range@std@@@8
_DATA	SEGMENT
??_R0?AVout_of_range@std@@@8 DD FLAT:??_7type_info@@6B@	; std::out_of_range `RTTI Type Descriptor'
	DD	00H
	DB	'.?AVout_of_range@std@@', 00H
; Function compile flags: /Ogty
; File c:\program files\microsoft visual studio .net 2003\vc7\include\xtree
_DATA	ENDS
;	COMDAT ?erase@?$_Tree@V?$_Tmap_traits@HPAV?$list@PAVCEventItem@@V?$allocator@PAVCEventItem@@@std@@@std@@U?$less@H@2@V?$allocator@U?$pair@$$CBHPAV?$list@PAVCEventItem@@V?$allocator@PAVCEventItem@@@std@@@std@@@std@@@2@$0A@@std@@@std@@QAE?AViterator@12@V312@@Z
_TEXT	SEGMENT
__Erasednode$ = -84					; size = 4
$T196307 = -80						; size = 28
$T196306 = -52						; size = 40
__$EHRec$ = -12						; size = 12
___$ReturnUdt$ = 8					; size = 4
__Where$ = 12						; size = 4
?erase@?$_Tree@V?$_Tmap_traits@HPAV?$list@PAVCEventItem@@V?$allocator@PAVCEventItem@@@std@@@std@@U?$less@H@2@V?$allocator@U?$pair@$$CBHPAV?$list@PAVCEventItem@@V?$allocator@PAVCEventItem@@@std@@@std@@@std@@@2@$0A@@std@@@std@@QAE?AViterator@12@V312@@Z PROC NEAR ; std::_Tree<std::_Tmap_traits<int,std::list<CEventItem *,std::allocator<CEventItem *> > *,std::less<int>,std::allocator<std::pair<int const ,std::list<CEventItem *,std::allocator<CEventItem *> > *> >,0> >::erase, COMDAT
; _this$ = ecx

; 590  : 		{	// erase element at _Where

  00000	64 a1 00 00 00
	00		 mov	 eax, DWORD PTR fs:__except_list
  00006	6a ff		 push	 -1
  00008	68 00 00 00 00	 push	 __ehhandler$?erase@?$_Tree@V?$_Tmap_traits@HPAV?$list@PAVCEventItem@@V?$allocator@PAVCEventItem@@@std@@@std@@U?$less@H@2@V?$allocator@U?$pair@$$CBHPAV?$list@PAVCEventItem@@V?$allocator@PAVCEventItem@@@std@@@std@@@std@@@2@$0A@@std@@@std@@QAE?AViterator@12@V312@@Z
  0000d	50		 push	 eax

; 591  : 		if (_Isnil(_Where._Mynode()))

  0000e	8b 44 24 14	 mov	 eax, DWORD PTR __Where$[esp+8]
  00012	64 89 25 00 00
	00 00		 mov	 DWORD PTR fs:__except_list, esp
  00019	83 ec 48	 sub	 esp, 72			; 00000048H
  0001c	55		 push	 ebp
  0001d	8b e9		 mov	 ebp, ecx
  0001f	8a 48 15	 mov	 cl, BYTE PTR [eax+21]
  00022	84 c9		 test	 cl, cl
  00024	56		 push	 esi
  00025	74 4c		 je	 SHORT $L189487

; 592  : 			_THROW(out_of_range, "invalid map/set<T> iterator");

  00027	6a 1b		 push	 27			; 0000001bH
  00029	33 f6		 xor	 esi, esi
  0002b	68 00 00 00 00	 push	 OFFSET FLAT:??_C@_0BM@PAPJHAGI@invalid?5map?1set?$DMT?$DO?5iterator?$AA@
  00030	8d 4c 24 14	 lea	 ecx, DWORD PTR $T196307[esp+100]
  00034	c7 44 24 2c 0f
	00 00 00	 mov	 DWORD PTR $T196307[esp+124], 15 ; 0000000fH
  0003c	89 74 24 28	 mov	 DWORD PTR $T196307[esp+120], esi
  00040	c6 44 24 18 00	 mov	 BYTE PTR $T196307[esp+104], 0
  00045	e8 00 00 00 00	 call	 ?assign@?$basic_string@DU?$char_traits@D@std@@V?$allocator@D@2@@std@@QAEAAV12@PBDI@Z ; std::basic_string<char,std::char_traits<char>,std::allocator<char> >::assign
  0004a	8d 44 24 0c	 lea	 eax, DWORD PTR $T196307[esp+92]
  0004e	50		 push	 eax
  0004f	8d 4c 24 2c	 lea	 ecx, DWORD PTR $T196306[esp+96]
  00053	89 74 24 5c	 mov	 DWORD PTR __$EHRec$[esp+104], esi
  00057	e8 00 00 00 00	 call	 ??0logic_error@std@@QAE@ABV?$basic_string@DU?$char_traits@D@std@@V?$allocator@D@2@@1@@Z ; std::logic_error::logic_error
  0005c	68 00 00 00 00	 push	 OFFSET FLAT:__TI3?AVout_of_range@std@@
  00061	8d 4c 24 2c	 lea	 ecx, DWORD PTR $T196306[esp+96]
  00065	51		 push	 ecx
  00066	c7 44 24 30 00
	00 00 00	 mov	 DWORD PTR $T196306[esp+100], OFFSET FLAT:??_7out_of_range@std@@6B@
  0006e	e8 00 00 00 00	 call	 __CxxThrowException@8
$L189487:
  00073	53		 push	 ebx

; 593  : 		_Nodeptr _Erasednode = _Where._Mynode();	// node to erase

  00074	8b d8		 mov	 ebx, eax
  00076	57		 push	 edi

; 594  : 		++_Where;	// save successor iterator for return

  00077	8d 4c 24 6c	 lea	 ecx, DWORD PTR __Where$[esp+96]
  0007b	89 5c 24 10	 mov	 DWORD PTR __Erasednode$[esp+100], ebx
  0007f	e8 00 00 00 00	 call	 ?_Inc@const_iterator@?$_Tree@V?$_Tmap_traits@HPAV?$list@PAVCEventItem@@V?$allocator@PAVCEventItem@@@std@@@std@@U?$less@H@2@V?$allocator@U?$pair@$$CBHPAV?$list@PAVCEventItem@@V?$allocator@PAVCEventItem@@@std@@@std@@@std@@@2@$0A@@std@@@std@@QAEXXZ ; std::_Tree<std::_Tmap_traits<int,std::list<CEventItem *,std::allocator<CEventItem *> > *,std::less<int>,std::allocator<std::pair<int const ,std::list<CEventItem *,std::allocator<CEventItem *> > *> >,0> >::const_iterator::_Inc

; 595  : 
; 596  : 		_Nodeptr _Fixnode;	// the node to recolor as needed
; 597  : 		_Nodeptr _Fixnodeparent;	// parent of _Fixnode (which may be nil)
; 598  : 		_Nodeptr _Pnode = _Erasednode;
; 599  : 
; 600  : 		if (_Isnil(_Left(_Pnode)))

  00084	8b 03		 mov	 eax, DWORD PTR [ebx]
  00086	8a 48 15	 mov	 cl, BYTE PTR [eax+21]
  00089	84 c9		 test	 cl, cl
  0008b	74 05		 je	 SHORT $L189495

; 601  : 			_Fixnode = _Right(_Pnode);	// must stitch up right subtree

  0008d	8b 7b 08	 mov	 edi, DWORD PTR [ebx+8]

; 602  : 		else if (_Isnil(_Right(_Pnode)))

  00090	eb 19		 jmp	 SHORT $L196793
$L189495:
  00092	8b 53 08	 mov	 edx, DWORD PTR [ebx+8]
  00095	8a 4a 15	 mov	 cl, BYTE PTR [edx+21]
  00098	84 c9		 test	 cl, cl
  0009a	74 04		 je	 SHORT $L189497

; 603  : 			_Fixnode = _Left(_Pnode);	// must stitch up left subtree

  0009c	8b f8		 mov	 edi, eax

; 604  : 		else

  0009e	eb 0b		 jmp	 SHORT $L196793
$L189497:

; 605  : 			{	// two subtrees, must lift successor node to replace erased
; 606  : 			_Pnode = _Where._Mynode();	// _Pnode is successor node
; 607  : 			_Fixnode = _Right(_Pnode);	// _Fixnode is its only subtree

  000a0	8b 4c 24 6c	 mov	 ecx, DWORD PTR __Where$[esp+96]

; 608  : 			}
; 609  : 
; 610  : 		if (_Pnode == _Erasednode)

  000a4	3b cb		 cmp	 ecx, ebx
  000a6	8b 79 08	 mov	 edi, DWORD PTR [ecx+8]
  000a9	75 6e		 jne	 SHORT $L189499
$L196793:

; 611  : 			{	// at most one subtree, relink it
; 612  : 			_Fixnodeparent = _Parent(_Erasednode);
; 613  : 			if (!_Isnil(_Fixnode))

  000ab	8a 47 15	 mov	 al, BYTE PTR [edi+21]
  000ae	84 c0		 test	 al, al
  000b0	8b 73 04	 mov	 esi, DWORD PTR [ebx+4]
  000b3	75 03		 jne	 SHORT $L189500

; 614  : 				_Parent(_Fixnode) = _Fixnodeparent;	// link up

  000b5	89 77 04	 mov	 DWORD PTR [edi+4], esi
$L189500:

; 615  : 
; 616  : 			if (_Root() == _Erasednode)

  000b8	8b 45 04	 mov	 eax, DWORD PTR [ebp+4]
  000bb	39 58 04	 cmp	 DWORD PTR [eax+4], ebx
  000be	75 05		 jne	 SHORT $L189501

; 617  : 				_Root() = _Fixnode;	// link down from root

  000c0	89 78 04	 mov	 DWORD PTR [eax+4], edi

; 618  : 			else if (_Left(_Fixnodeparent) == _Erasednode)

  000c3	eb 0b		 jmp	 SHORT $L189504
$L189501:
  000c5	39 1e		 cmp	 DWORD PTR [esi], ebx
  000c7	75 04		 jne	 SHORT $L189503

; 619  : 				_Left(_Fixnodeparent) = _Fixnode;	// link down to left

  000c9	89 3e		 mov	 DWORD PTR [esi], edi

; 620  : 			else

  000cb	eb 03		 jmp	 SHORT $L189504
$L189503:

; 621  : 				_Right(_Fixnodeparent) = _Fixnode;	// link down to right

  000cd	89 7e 08	 mov	 DWORD PTR [esi+8], edi
$L189504:

; 622  : 
; 623  : 			if (_Lmost() == _Erasednode)

  000d0	8b 5d 04	 mov	 ebx, DWORD PTR [ebp+4]
  000d3	8b 03		 mov	 eax, DWORD PTR [ebx]
  000d5	3b 44 24 10	 cmp	 eax, DWORD PTR __Erasednode$[esp+100]
  000d9	75 16		 jne	 SHORT $L189505

; 624  : 				_Lmost() = _Isnil(_Fixnode)
; 625  : 					? _Fixnodeparent	// smallest is parent of erased node
; 626  : 					: _Min(_Fixnode);	// smallest in relinked subtree

  000db	8a 47 15	 mov	 al, BYTE PTR [edi+21]
  000de	84 c0		 test	 al, al
  000e0	74 04		 je	 SHORT $L196308
  000e2	8b c6		 mov	 eax, esi
  000e4	eb 09		 jmp	 SHORT $L196309
$L196308:
  000e6	57		 push	 edi
  000e7	e8 00 00 00 00	 call	 ?_Min@?$_Tree@V?$_Tmap_traits@HPAV?$list@PAVCEventItem@@V?$allocator@PAVCEventItem@@@std@@@std@@U?$less@H@2@V?$allocator@U?$pair@$$CBHPAV?$list@PAVCEventItem@@V?$allocator@PAVCEventItem@@@std@@@std@@@std@@@2@$0A@@std@@@std@@KAPAU_Node@?$_Tree_nod@V?$_Tmap_traits@HPAV?$list@PAVCEventItem@@V?$allocator@PAVCEventItem@@@std@@@std@@U?$less@H@2@V?$allocator@U?$pair@$$CBHPAV?$list@PAVCEventItem@@V?$allocator@PAVCEventItem@@@std@@@std@@@std@@@2@$0A@@std@@@2@PAU342@@Z ; std::_Tree<std::_Tmap_traits<int,std::list<CEventItem *,std::allocator<CEventItem *> > *,std::less<int>,std::allocator<std::pair<int const ,std::list<CEventItem *,std::allocator<CEventItem *> > *> >,0> >::_Min
  000ec	83 c4 04	 add	 esp, 4
$L196309:
  000ef	89 03		 mov	 DWORD PTR [ebx], eax
$L189505:

; 627  : 
; 628  : 			if (_Rmost() == _Erasednode)

  000f1	8b 5d 04	 mov	 ebx, DWORD PTR [ebp+4]
  000f4	8b 4c 24 10	 mov	 ecx, DWORD PTR __Erasednode$[esp+100]
  000f8	39 4b 08	 cmp	 DWORD PTR [ebx+8], ecx
  000fb	75 74		 jne	 SHORT $L196627

; 629  : 				_Rmost() = _Isnil(_Fixnode)
; 630  : 					? _Fixnodeparent	// largest is parent of erased node
; 631  : 					: _Max(_Fixnode);	// largest in relinked subtree

  000fd	8a 47 15	 mov	 al, BYTE PTR [edi+21]
  00100	84 c0		 test	 al, al
  00102	74 07		 je	 SHORT $L196310
  00104	8b c6		 mov	 eax, esi
  00106	89 43 08	 mov	 DWORD PTR [ebx+8], eax

; 632  : 			}
; 633  : 		else

  00109	eb 66		 jmp	 SHORT $L196627
$L196310:

; 629  : 				_Rmost() = _Isnil(_Fixnode)
; 630  : 					? _Fixnodeparent	// largest is parent of erased node
; 631  : 					: _Max(_Fixnode);	// largest in relinked subtree

  0010b	57		 push	 edi
  0010c	e8 00 00 00 00	 call	 ?_Max@?$_Tree@V?$_Tmap_traits@HPAV?$list@PAVCEventItem@@V?$allocator@PAVCEventItem@@@std@@@std@@U?$less@H@2@V?$allocator@U?$pair@$$CBHPAV?$list@PAVCEventItem@@V?$allocator@PAVCEventItem@@@std@@@std@@@std@@@2@$0A@@std@@@std@@KAPAU_Node@?$_Tree_nod@V?$_Tmap_traits@HPAV?$list@PAVCEventItem@@V?$allocator@PAVCEventItem@@@std@@@std@@U?$less@H@2@V?$allocator@U?$pair@$$CBHPAV?$list@PAVCEventItem@@V?$allocator@PAVCEventItem@@@std@@@std@@@std@@@2@$0A@@std@@@2@PAU342@@Z ; std::_Tree<std::_Tmap_traits<int,std::list<CEventItem *,std::allocator<CEventItem *> > *,std::less<int>,std::allocator<std::pair<int const ,std::list<CEventItem *,std::allocator<CEventItem *> > *> >,0> >::_Max
  00111	83 c4 04	 add	 esp, 4
  00114	89 43 08	 mov	 DWORD PTR [ebx+8], eax

; 632  : 			}
; 633  : 		else

  00117	eb 58		 jmp	 SHORT $L196627
$L189499:

; 634  : 			{	// erased has two subtrees, _Pnode is successor to erased
; 635  : 			_Parent(_Left(_Erasednode)) = _Pnode;	// link left up

  00119	89 48 04	 mov	 DWORD PTR [eax+4], ecx

; 636  : 			_Left(_Pnode) = _Left(_Erasednode);	// link successor down

  0011c	8b 13		 mov	 edx, DWORD PTR [ebx]
  0011e	89 11		 mov	 DWORD PTR [ecx], edx

; 637  : 
; 638  : 			if (_Pnode == _Right(_Erasednode))

  00120	3b 4b 08	 cmp	 ecx, DWORD PTR [ebx+8]
  00123	75 04		 jne	 SHORT $L189508

; 639  : 				_Fixnodeparent = _Pnode;	// successor is next to erased

  00125	8b f1		 mov	 esi, ecx

; 640  : 			else

  00127	eb 1b		 jmp	 SHORT $L189509
$L189508:

; 641  : 				{	// successor further down, link in place of erased
; 642  : 				_Fixnodeparent = _Parent(_Pnode);	// parent is successor's
; 643  : 				if (!_Isnil(_Fixnode))

  00129	8a 47 15	 mov	 al, BYTE PTR [edi+21]
  0012c	84 c0		 test	 al, al
  0012e	8b 71 04	 mov	 esi, DWORD PTR [ecx+4]
  00131	75 03		 jne	 SHORT $L189510

; 644  : 					_Parent(_Fixnode) = _Fixnodeparent;	// link fix up

  00133	89 77 04	 mov	 DWORD PTR [edi+4], esi
$L189510:

; 645  : 				_Left(_Fixnodeparent) = _Fixnode;	// link fix down

  00136	89 3e		 mov	 DWORD PTR [esi], edi

; 646  : 				_Right(_Pnode) = _Right(_Erasednode);	// link successor down

  00138	8b 43 08	 mov	 eax, DWORD PTR [ebx+8]
  0013b	89 41 08	 mov	 DWORD PTR [ecx+8], eax

; 647  : 				_Parent(_Right(_Erasednode)) = _Pnode;	// link right up

  0013e	8b 53 08	 mov	 edx, DWORD PTR [ebx+8]
  00141	89 4a 04	 mov	 DWORD PTR [edx+4], ecx
$L189509:

; 648  : 				}
; 649  : 
; 650  : 			if (_Root() == _Erasednode)

  00144	8b 45 04	 mov	 eax, DWORD PTR [ebp+4]
  00147	39 58 04	 cmp	 DWORD PTR [eax+4], ebx
  0014a	75 05		 jne	 SHORT $L189511

; 651  : 				_Root() = _Pnode;	// link down from root

  0014c	89 48 04	 mov	 DWORD PTR [eax+4], ecx

; 652  : 			else if (_Left(_Parent(_Erasednode)) == _Erasednode)

  0014f	eb 0e		 jmp	 SHORT $L189514
$L189511:
  00151	8b 43 04	 mov	 eax, DWORD PTR [ebx+4]
  00154	39 18		 cmp	 DWORD PTR [eax], ebx
  00156	75 04		 jne	 SHORT $L189513

; 653  : 				_Left(_Parent(_Erasednode)) = _Pnode;	// link down to left

  00158	89 08		 mov	 DWORD PTR [eax], ecx

; 654  : 			else

  0015a	eb 03		 jmp	 SHORT $L189514
$L189513:

; 655  : 				_Right(_Parent(_Erasednode)) = _Pnode;	// link down to right

  0015c	89 48 08	 mov	 DWORD PTR [eax+8], ecx
$L189514:

; 656  : 
; 657  : 			_Parent(_Pnode) = _Parent(_Erasednode);	// link successor up

  0015f	8b 43 04	 mov	 eax, DWORD PTR [ebx+4]
  00162	89 41 04	 mov	 DWORD PTR [ecx+4], eax

; 658  : 			std::swap(_Color(_Pnode), _Color(_Erasednode));	// recolor it

  00165	8a 53 14	 mov	 dl, BYTE PTR [ebx+20]
  00168	8a 41 14	 mov	 al, BYTE PTR [ecx+20]
  0016b	88 51 14	 mov	 BYTE PTR [ecx+20], dl
  0016e	88 43 14	 mov	 BYTE PTR [ebx+20], al
$L196627:

; 659  : 			}
; 660  : 
; 661  : 		if (_Color(_Erasednode) == _Black)

  00171	8b 44 24 10	 mov	 eax, DWORD PTR __Erasednode$[esp+100]
  00175	8a 48 14	 mov	 cl, BYTE PTR [eax+20]
  00178	b3 01		 mov	 bl, 1
  0017a	3a cb		 cmp	 cl, bl
  0017c	0f 85 ff 00 00
	00		 jne	 $L189515

; 662  : 			{	// erasing black link, must recolor/rebalance tree
; 663  : 			for (; _Fixnode != _Root() && _Color(_Fixnode) == _Black;
; 664  : 				_Fixnodeparent = _Parent(_Fixnode))

  00182	8b 4d 04	 mov	 ecx, DWORD PTR [ebp+4]
  00185	3b 79 04	 cmp	 edi, DWORD PTR [ecx+4]
  00188	0f 84 f0 00 00
	00		 je	 $L189518
  0018e	8b ff		 npad	 2
$L189516:
  00190	38 5f 14	 cmp	 BYTE PTR [edi+20], bl
  00193	0f 85 e5 00 00
	00		 jne	 $L189518

; 665  : 				if (_Fixnode == _Left(_Fixnodeparent))

  00199	8b 06		 mov	 eax, DWORD PTR [esi]
  0019b	3b f8		 cmp	 edi, eax
  0019d	75 67		 jne	 SHORT $L189519

; 666  : 					{	// fixup left subtree
; 667  : 					_Pnode = _Right(_Fixnodeparent);

  0019f	8b 46 08	 mov	 eax, DWORD PTR [esi+8]

; 668  : 					if (_Color(_Pnode) == _Red)

  001a2	8a 48 14	 mov	 cl, BYTE PTR [eax+20]
  001a5	84 c9		 test	 cl, cl
  001a7	75 12		 jne	 SHORT $L189520

; 669  : 						{	// rotate red up from right subtree
; 670  : 						_Color(_Pnode) = _Black;

  001a9	88 58 14	 mov	 BYTE PTR [eax+20], bl

; 671  : 						_Color(_Fixnodeparent) = _Red;
; 672  : 						_Lrotate(_Fixnodeparent);

  001ac	56		 push	 esi
  001ad	8b cd		 mov	 ecx, ebp
  001af	c6 46 14 00	 mov	 BYTE PTR [esi+20], 0
  001b3	e8 00 00 00 00	 call	 ?_Lrotate@?$_Tree@V?$_Tmap_traits@HPAV?$list@PAVCEventItem@@V?$allocator@PAVCEventItem@@@std@@@std@@U?$less@H@2@V?$allocator@U?$pair@$$CBHPAV?$list@PAVCEventItem@@V?$allocator@PAVCEventItem@@@std@@@std@@@std@@@2@$0A@@std@@@std@@IAEXPAU_Node@?$_Tree_nod@V?$_Tmap_traits@HPAV?$list@PAVCEventItem@@V?$allocator@PAVCEventItem@@@std@@@std@@U?$less@H@2@V?$allocator@U?$pair@$$CBHPAV?$list@PAVCEventItem@@V?$allocator@PAVCEventItem@@@std@@@std@@@std@@@2@$0A@@std@@@2@@Z ; std::_Tree<std::_Tmap_traits<int,std::list<CEventItem *,std::allocator<CEventItem *> > *,std::less<int>,std::allocator<std::pair<int const ,std::list<CEventItem *,std::allocator<CEventItem *> > *> >,0> >::_Lrotate

; 673  : 						_Pnode = _Right(_Fixnodeparent);

  001b8	8b 46 08	 mov	 eax, DWORD PTR [esi+8]
$L189520:

; 674  : 						}
; 675  : 
; 676  : 					if (_Isnil(_Pnode))

  001bb	8a 48 15	 mov	 cl, BYTE PTR [eax+21]
  001be	84 c9		 test	 cl, cl

; 677  : 						_Fixnode = _Fixnodeparent;	// shouldn't happen
; 678  : 					else if (_Color(_Left(_Pnode)) == _Black

  001c0	75 76		 jne	 SHORT $L196796

; 679  : 						&& _Color(_Right(_Pnode)) == _Black)

  001c2	8b 10		 mov	 edx, DWORD PTR [eax]
  001c4	38 5a 14	 cmp	 BYTE PTR [edx+20], bl
  001c7	75 08		 jne	 SHORT $L189523
  001c9	8b 48 08	 mov	 ecx, DWORD PTR [eax+8]
  001cc	38 59 14	 cmp	 BYTE PTR [ecx+20], bl
  001cf	74 63		 je	 SHORT $L196797
$L189523:

; 680  : 						{	// redden right subtree with black children
; 681  : 						_Color(_Pnode) = _Red;
; 682  : 						_Fixnode = _Fixnodeparent;
; 683  : 						}
; 684  : 					else
; 685  : 						{	// must rearrange right subtree
; 686  : 						if (_Color(_Right(_Pnode)) == _Black)

  001d1	8b 48 08	 mov	 ecx, DWORD PTR [eax+8]
  001d4	38 59 14	 cmp	 BYTE PTR [ecx+20], bl
  001d7	75 14		 jne	 SHORT $L189525

; 687  : 							{	// rotate red up from left sub-subtree
; 688  : 							_Color(_Left(_Pnode)) = _Black;

  001d9	8b 10		 mov	 edx, DWORD PTR [eax]
  001db	88 5a 14	 mov	 BYTE PTR [edx+20], bl

; 689  : 							_Color(_Pnode) = _Red;
; 690  : 							_Rrotate(_Pnode);

  001de	50		 push	 eax
  001df	8b cd		 mov	 ecx, ebp
  001e1	c6 40 14 00	 mov	 BYTE PTR [eax+20], 0
  001e5	e8 00 00 00 00	 call	 ?_Rrotate@?$_Tree@V?$_Tmap_traits@HPAV?$list@PAVCEventItem@@V?$allocator@PAVCEventItem@@@std@@@std@@U?$less@H@2@V?$allocator@U?$pair@$$CBHPAV?$list@PAVCEventItem@@V?$allocator@PAVCEventItem@@@std@@@std@@@std@@@2@$0A@@std@@@std@@IAEXPAU_Node@?$_Tree_nod@V?$_Tmap_traits@HPAV?$list@PAVCEventItem@@V?$allocator@PAVCEventItem@@@std@@@std@@U?$less@H@2@V?$allocator@U?$pair@$$CBHPAV?$list@PAVCEventItem@@V?$allocator@PAVCEventItem@@@std@@@std@@@std@@@2@$0A@@std@@@2@@Z ; std::_Tree<std::_Tmap_traits<int,std::list<CEventItem *,std::allocator<CEventItem *> > *,std::less<int>,std::allocator<std::pair<int const ,std::list<CEventItem *,std::allocator<CEventItem *> > *> >,0> >::_Rrotate

; 691  : 							_Pnode = _Right(_Fixnodeparent);

  001ea	8b 46 08	 mov	 eax, DWORD PTR [esi+8]
$L189525:

; 692  : 							}
; 693  : 
; 694  : 						_Color(_Pnode) = _Color(_Fixnodeparent);

  001ed	8a 4e 14	 mov	 cl, BYTE PTR [esi+20]
  001f0	88 48 14	 mov	 BYTE PTR [eax+20], cl

; 695  : 						_Color(_Fixnodeparent) = _Black;

  001f3	88 5e 14	 mov	 BYTE PTR [esi+20], bl

; 696  : 						_Color(_Right(_Pnode)) = _Black;

  001f6	8b 50 08	 mov	 edx, DWORD PTR [eax+8]

; 697  : 						_Lrotate(_Fixnodeparent);

  001f9	56		 push	 esi
  001fa	8b cd		 mov	 ecx, ebp
  001fc	88 5a 14	 mov	 BYTE PTR [edx+20], bl
  001ff	e8 00 00 00 00	 call	 ?_Lrotate@?$_Tree@V?$_Tmap_traits@HPAV?$list@PAVCEventItem@@V?$allocator@PAVCEventItem@@@std@@@std@@U?$less@H@2@V?$allocator@U?$pair@$$CBHPAV?$list@PAVCEventItem@@V?$allocator@PAVCEventItem@@@std@@@std@@@std@@@2@$0A@@std@@@std@@IAEXPAU_Node@?$_Tree_nod@V?$_Tmap_traits@HPAV?$list@PAVCEventItem@@V?$allocator@PAVCEventItem@@@std@@@std@@U?$less@H@2@V?$allocator@U?$pair@$$CBHPAV?$list@PAVCEventItem@@V?$allocator@PAVCEventItem@@@std@@@std@@@std@@@2@$0A@@std@@@2@@Z ; std::_Tree<std::_Tmap_traits<int,std::list<CEventItem *,std::allocator<CEventItem *> > *,std::less<int>,std::allocator<std::pair<int const ,std::list<CEventItem *,std::allocator<CEventItem *> > *> >,0> >::_Lrotate

; 698  : 						break;	// tree now recolored/rebalanced

  00204	eb 78		 jmp	 SHORT $L189518
$L189519:

; 699  : 						}
; 700  : 					}
; 701  : 				else
; 702  : 					{	// fixup right subtree
; 703  : 					_Pnode = _Left(_Fixnodeparent);
; 704  : 					if (_Color(_Pnode) == _Red)

  00206	8a 48 14	 mov	 cl, BYTE PTR [eax+20]
  00209	84 c9		 test	 cl, cl
  0020b	75 11		 jne	 SHORT $L189527

; 705  : 						{	// rotate red up from left subtree
; 706  : 						_Color(_Pnode) = _Black;

  0020d	88 58 14	 mov	 BYTE PTR [eax+20], bl

; 707  : 						_Color(_Fixnodeparent) = _Red;
; 708  : 						_Rrotate(_Fixnodeparent);

  00210	56		 push	 esi
  00211	8b cd		 mov	 ecx, ebp
  00213	c6 46 14 00	 mov	 BYTE PTR [esi+20], 0
  00217	e8 00 00 00 00	 call	 ?_Rrotate@?$_Tree@V?$_Tmap_traits@HPAV?$list@PAVCEventItem@@V?$allocator@PAVCEventItem@@@std@@@std@@U?$less@H@2@V?$allocator@U?$pair@$$CBHPAV?$list@PAVCEventItem@@V?$allocator@PAVCEventItem@@@std@@@std@@@std@@@2@$0A@@std@@@std@@IAEXPAU_Node@?$_Tree_nod@V?$_Tmap_traits@HPAV?$list@PAVCEventItem@@V?$allocator@PAVCEventItem@@@std@@@std@@U?$less@H@2@V?$allocator@U?$pair@$$CBHPAV?$list@PAVCEventItem@@V?$allocator@PAVCEventItem@@@std@@@std@@@std@@@2@$0A@@std@@@2@@Z ; std::_Tree<std::_Tmap_traits<int,std::list<CEventItem *,std::allocator<CEventItem *> > *,std::less<int>,std::allocator<std::pair<int const ,std::list<CEventItem *,std::allocator<CEventItem *> > *> >,0> >::_Rrotate

; 709  : 						_Pnode = _Left(_Fixnodeparent);

  0021c	8b 06		 mov	 eax, DWORD PTR [esi]
$L189527:

; 710  : 						}
; 711  : 					if (_Isnil(_Pnode))

  0021e	8a 48 15	 mov	 cl, BYTE PTR [eax+21]
  00221	84 c9		 test	 cl, cl

; 712  : 						_Fixnode = _Fixnodeparent;	// shouldn't happen
; 713  : 					else if (_Color(_Right(_Pnode)) == _Black

  00223	75 13		 jne	 SHORT $L196796

; 714  : 						&& _Color(_Left(_Pnode)) == _Black)

  00225	8b 50 08	 mov	 edx, DWORD PTR [eax+8]
  00228	38 5a 14	 cmp	 BYTE PTR [edx+20], bl
  0022b	75 20		 jne	 SHORT $L189530
  0022d	8b 08		 mov	 ecx, DWORD PTR [eax]
  0022f	38 59 14	 cmp	 BYTE PTR [ecx+20], bl
  00232	75 19		 jne	 SHORT $L189530
$L196797:

; 715  : 						{	// redden left subtree with black children
; 716  : 						_Color(_Pnode) = _Red;

  00234	c6 40 14 00	 mov	 BYTE PTR [eax+20], 0
$L196796:

; 662  : 			{	// erasing black link, must recolor/rebalance tree
; 663  : 			for (; _Fixnode != _Root() && _Color(_Fixnode) == _Black;
; 664  : 				_Fixnodeparent = _Parent(_Fixnode))

  00238	8b 55 04	 mov	 edx, DWORD PTR [ebp+4]
  0023b	8b 42 04	 mov	 eax, DWORD PTR [edx+4]

; 717  : 						_Fixnode = _Fixnodeparent;

  0023e	8b fe		 mov	 edi, esi
  00240	3b f8		 cmp	 edi, eax
  00242	8b 76 04	 mov	 esi, DWORD PTR [esi+4]
  00245	0f 85 45 ff ff
	ff		 jne	 $L189516

; 662  : 			{	// erasing black link, must recolor/rebalance tree
; 663  : 			for (; _Fixnode != _Root() && _Color(_Fixnode) == _Black;
; 664  : 				_Fixnodeparent = _Parent(_Fixnode))

  0024b	eb 31		 jmp	 SHORT $L189518
$L189530:

; 718  : 						}
; 719  : 					else
; 720  : 						{	// must rearrange left subtree
; 721  : 						if (_Color(_Left(_Pnode)) == _Black)

  0024d	8b 08		 mov	 ecx, DWORD PTR [eax]
  0024f	38 59 14	 cmp	 BYTE PTR [ecx+20], bl
  00252	75 14		 jne	 SHORT $L189532

; 722  : 							{	// rotate red up from right sub-subtree
; 723  : 							_Color(_Right(_Pnode)) = _Black;

  00254	8b 50 08	 mov	 edx, DWORD PTR [eax+8]
  00257	88 5a 14	 mov	 BYTE PTR [edx+20], bl

; 724  : 							_Color(_Pnode) = _Red;
; 725  : 							_Lrotate(_Pnode);

  0025a	50		 push	 eax
  0025b	8b cd		 mov	 ecx, ebp
  0025d	c6 40 14 00	 mov	 BYTE PTR [eax+20], 0
  00261	e8 00 00 00 00	 call	 ?_Lrotate@?$_Tree@V?$_Tmap_traits@HPAV?$list@PAVCEventItem@@V?$allocator@PAVCEventItem@@@std@@@std@@U?$less@H@2@V?$allocator@U?$pair@$$CBHPAV?$list@PAVCEventItem@@V?$allocator@PAVCEventItem@@@std@@@std@@@std@@@2@$0A@@std@@@std@@IAEXPAU_Node@?$_Tree_nod@V?$_Tmap_traits@HPAV?$list@PAVCEventItem@@V?$allocator@PAVCEventItem@@@std@@@std@@U?$less@H@2@V?$allocator@U?$pair@$$CBHPAV?$list@PAVCEventItem@@V?$allocator@PAVCEventItem@@@std@@@std@@@std@@@2@$0A@@std@@@2@@Z ; std::_Tree<std::_Tmap_traits<int,std::list<CEventItem *,std::allocator<CEventItem *> > *,std::less<int>,std::allocator<std::pair<int const ,std::list<CEventItem *,std::allocator<CEventItem *> > *> >,0> >::_Lrotate

; 726  : 							_Pnode = _Left(_Fixnodeparent);

  00266	8b 06		 mov	 eax, DWORD PTR [esi]
$L189532:

; 727  : 							}
; 728  : 
; 729  : 						_Color(_Pnode) = _Color(_Fixnodeparent);

  00268	8a 4e 14	 mov	 cl, BYTE PTR [esi+20]
  0026b	88 48 14	 mov	 BYTE PTR [eax+20], cl

; 730  : 						_Color(_Fixnodeparent) = _Black;

  0026e	88 5e 14	 mov	 BYTE PTR [esi+20], bl

; 731  : 						_Color(_Left(_Pnode)) = _Black;

  00271	8b 10		 mov	 edx, DWORD PTR [eax]

; 732  : 						_Rrotate(_Fixnodeparent);

  00273	56		 push	 esi
  00274	8b cd		 mov	 ecx, ebp
  00276	88 5a 14	 mov	 BYTE PTR [edx+20], bl
  00279	e8 00 00 00 00	 call	 ?_Rrotate@?$_Tree@V?$_Tmap_traits@HPAV?$list@PAVCEventItem@@V?$allocator@PAVCEventItem@@@std@@@std@@U?$less@H@2@V?$allocator@U?$pair@$$CBHPAV?$list@PAVCEventItem@@V?$allocator@PAVCEventItem@@@std@@@std@@@std@@@2@$0A@@std@@@std@@IAEXPAU_Node@?$_Tree_nod@V?$_Tmap_traits@HPAV?$list@PAVCEventItem@@V?$allocator@PAVCEventItem@@@std@@@std@@U?$less@H@2@V?$allocator@U?$pair@$$CBHPAV?$list@PAVCEventItem@@V?$allocator@PAVCEventItem@@@std@@@std@@@std@@@2@$0A@@std@@@2@@Z ; std::_Tree<std::_Tmap_traits<int,std::list<CEventItem *,std::allocator<CEventItem *> > *,std::less<int>,std::allocator<std::pair<int const ,std::list<CEventItem *,std::allocator<CEventItem *> > *> >,0> >::_Rrotate
$L189518:

; 733  : 						break;	// tree now recolored/rebalanced
; 734  : 						}
; 735  : 					}
; 736  : 
; 737  : 			_Color(_Fixnode) = _Black;	// ensure stopping node is black

  0027e	88 5f 14	 mov	 BYTE PTR [edi+20], bl
$L189515:

; 738  : 			}
; 739  : 
; 740  : 		this->_Alnod.destroy(_Erasednode);	// destroy, free erased node
; 741  : 		this->_Alnod.deallocate(_Erasednode, 1);

  00281	8b 44 24 10	 mov	 eax, DWORD PTR __Erasednode$[esp+100]
  00285	50		 push	 eax
  00286	e8 00 00 00 00	 call	 ??3@YAXPAX@Z		; operator delete

; 742  : 
; 743  : 		if (0 < _Mysize)

  0028b	8b 45 08	 mov	 eax, DWORD PTR [ebp+8]
  0028e	83 c4 04	 add	 esp, 4
  00291	85 c0		 test	 eax, eax
  00293	5f		 pop	 edi
  00294	5b		 pop	 ebx
  00295	76 04		 jbe	 SHORT $L189533

; 744  : 			--_Mysize;

  00297	48		 dec	 eax
  00298	89 45 08	 mov	 DWORD PTR [ebp+8], eax
$L189533:

; 745  : 
; 746  : 		return (_Where);	// return successor iterator

  0029b	8b 4c 24 64	 mov	 ecx, DWORD PTR __Where$[esp+88]
  0029f	8b 44 24 60	 mov	 eax, DWORD PTR ___$ReturnUdt$[esp+88]
  002a3	89 08		 mov	 DWORD PTR [eax], ecx

; 747  : 		}

  002a5	8b 4c 24 50	 mov	 ecx, DWORD PTR __$EHRec$[esp+92]
  002a9	5e		 pop	 esi
  002aa	5d		 pop	 ebp
  002ab	64 89 0d 00 00
	00 00		 mov	 DWORD PTR fs:__except_list, ecx
  002b2	83 c4 54	 add	 esp, 84			; 00000054H
  002b5	c2 08 00	 ret	 8
$L196795:
_TEXT	ENDS
;	COMDAT text$x
text$x	SEGMENT
$L196312:
  00000	8d 4d b0	 lea	 ecx, DWORD PTR $T196307[ebp]
  00003	e9 00 00 00 00	 jmp	 ??1?$basic_string@DU?$char_traits@D@std@@V?$allocator@D@2@@std@@QAE@XZ ; std::basic_string<char,std::char_traits<char>,std::allocator<char> >::~basic_string<char,std::char_traits<char>,std::allocator<char> >
__ehhandler$?erase@?$_Tree@V?$_Tmap_traits@HPAV?$list@PAVCEventItem@@V?$allocator@PAVCEventItem@@@std@@@std@@U?$less@H@2@V?$allocator@U?$pair@$$CBHPAV?$list@PAVCEventItem@@V?$allocator@PAVCEventItem@@@std@@@std@@@std@@@2@$0A@@std@@@std@@QAE?AViterator@12@V312@@Z:
  00008	b8 00 00 00 00	 mov	 eax, OFFSET FLAT:$T196790
  0000d	e9 00 00 00 00	 jmp	 ___CxxFrameHandler
text$x	ENDS
?erase@?$_Tree@V?$_Tmap_traits@HPAV?$list@PAVCEventItem@@V?$allocator@PAVCEventItem@@@std@@@std@@U?$less@H@2@V?$allocator@U?$pair@$$CBHPAV?$list@PAVCEventItem@@V?$allocator@PAVCEventItem@@@std@@@std@@@std@@@2@$0A@@std@@@std@@QAE?AViterator@12@V312@@Z ENDP ; std::_Tree<std::_Tmap_traits<int,std::list<CEventItem *,std::allocator<CEventItem *> > *,std::less<int>,std::allocator<std::pair<int const ,std::list<CEventItem *,std::allocator<CEventItem *> > *> >,0> >::erase
; Function compile flags: /Ogty
;	COMDAT ??0out_of_range@std@@QAE@ABV01@@Z
_TEXT	SEGMENT
___that$ = 8						; size = 4
??0out_of_range@std@@QAE@ABV01@@Z PROC NEAR		; std::out_of_range::out_of_range, COMDAT
; _this$ = ecx
  00000	8b 44 24 04	 mov	 eax, DWORD PTR ___that$[esp-4]
  00004	56		 push	 esi
  00005	50		 push	 eax
  00006	8b f1		 mov	 esi, ecx
  00008	e8 00 00 00 00	 call	 ??0logic_error@std@@QAE@ABV01@@Z
  0000d	c7 06 00 00 00
	00		 mov	 DWORD PTR [esi], OFFSET FLAT:??_7out_of_range@std@@6B@
  00013	8b c6		 mov	 eax, esi
  00015	5e		 pop	 esi
  00016	c2 04 00	 ret	 4
??0out_of_range@std@@QAE@ABV01@@Z ENDP			; std::out_of_range::out_of_range
_TEXT	ENDS
PUBLIC	??0?$CStringT@DV?$StrTraitMFC@DV?$ChTraitsCRT@D@ATL@@@@@ATL@@QAE@PBD@Z ; ATL::CStringT<char,StrTraitMFC<char,ATL::ChTraitsCRT<char> > >::CStringT<char,StrTraitMFC<char,ATL::ChTraitsCRT<char> > >
;	COMDAT xdata$x
; File c:\program files\microsoft visual studio .net 2003\vc7\atlmfc\include\atlsimpstr.h
xdata$x	SEGMENT
$T196887 DD	0ffffffffH
	DD	FLAT:$L196806
$T196881 DD	019930520H
	DD	01H
	DD	FLAT:$T196887
	DD	2 DUP(00H)
	DD	2 DUP(00H)
; Function compile flags: /Ogty
; File c:\program files\microsoft visual studio .net 2003\vc7\atlmfc\include\cstringt.h
xdata$x	ENDS
;	COMDAT ??0?$CStringT@DV?$StrTraitMFC@DV?$ChTraitsCRT@D@ATL@@@@@ATL@@QAE@PBD@Z
_TEXT	SEGMENT
_this$ = -16						; size = 4
__$EHRec$ = -12						; size = 12
_pszSrc$ = 8						; size = 4
??0?$CStringT@DV?$StrTraitMFC@DV?$ChTraitsCRT@D@ATL@@@@@ATL@@QAE@PBD@Z PROC NEAR ; ATL::CStringT<char,StrTraitMFC<char,ATL::ChTraitsCRT<char> > >::CStringT<char,StrTraitMFC<char,ATL::ChTraitsCRT<char> > >, COMDAT
; _this$ = ecx

; 830  : 	{

  00000	6a ff		 push	 -1
  00002	68 00 00 00 00	 push	 __ehhandler$??0?$CStringT@DV?$StrTraitMFC@DV?$ChTraitsCRT@D@ATL@@@@@ATL@@QAE@PBD@Z
  00007	64 a1 00 00 00
	00		 mov	 eax, DWORD PTR fs:__except_list
  0000d	50		 push	 eax
  0000e	64 89 25 00 00
	00 00		 mov	 DWORD PTR fs:__except_list, esp
  00015	51		 push	 ecx
  00016	56		 push	 esi
  00017	8b f1		 mov	 esi, ecx
  00019	57		 push	 edi
  0001a	89 74 24 08	 mov	 DWORD PTR _this$[esp+24], esi
  0001e	e8 00 00 00 00	 call	 ?AfxGetStringManager@@YGPAUIAtlStringMgr@ATL@@XZ ; AfxGetStringManager
  00023	8b 10		 mov	 edx, DWORD PTR [eax]
  00025	8b c8		 mov	 ecx, eax
  00027	ff 52 0c	 call	 DWORD PTR [edx+12]
  0002a	83 c0 10	 add	 eax, 16			; 00000010H
  0002d	89 06		 mov	 DWORD PTR [esi], eax

; 831  : 		if( !CheckImplicitLoad( pszSrc ) )

  0002f	8b 54 24 1c	 mov	 edx, DWORD PTR _pszSrc$[esp+20]
  00033	85 d2		 test	 edx, edx
  00035	c7 44 24 14 00
	00 00 00	 mov	 DWORD PTR __$EHRec$[esp+32], 0
  0003d	74 33		 je	 SHORT $L196883
  0003f	f7 c2 00 00 ff
	ff		 test	 edx, -65536		; ffff0000H
  00045	75 2f		 jne	 SHORT $L196876
  00047	0f b7 fa	 movzx	 edi, dx
  0004a	57		 push	 edi
  0004b	e8 00 00 00 00	 call	 ?AfxFindStringResourceHandle@@YGPAUHINSTANCE__@@I@Z ; AfxFindStringResourceHandle
  00050	85 c0		 test	 eax, eax
  00052	74 3e		 je	 SHORT $L196885
  00054	57		 push	 edi
  00055	50		 push	 eax
  00056	8b ce		 mov	 ecx, esi
  00058	e8 00 00 00 00	 call	 ?LoadStringA@?$CStringT@DV?$StrTraitMFC@DV?$ChTraitsCRT@D@ATL@@@@@ATL@@QAEHPAUHINSTANCE__@@I@Z ; ATL::CStringT<char,StrTraitMFC<char,ATL::ChTraitsCRT<char> > >::LoadStringA
  0005d	5f		 pop	 edi

; 835  : 		}
; 836  : 	}

  0005e	8b c6		 mov	 eax, esi
  00060	5e		 pop	 esi
  00061	8b 4c 24 04	 mov	 ecx, DWORD PTR __$EHRec$[esp+16]
  00065	64 89 0d 00 00
	00 00		 mov	 DWORD PTR fs:__except_list, ecx
  0006c	83 c4 10	 add	 esp, 16			; 00000010H
  0006f	c2 04 00	 ret	 4
$L196883:

; 832  : 		{
; 833  : 			// nDestLength is in XCHARs
; 834  : 			*this = pszSrc;

  00072	33 c0		 xor	 eax, eax
  00074	eb 13		 jmp	 SHORT $L196875
$L196876:
  00076	8b c2		 mov	 eax, edx
  00078	8d 78 01	 lea	 edi, DWORD PTR [eax+1]
  0007b	eb 03 8d 49 00	 npad	 5
$L196884:
  00080	8a 08		 mov	 cl, BYTE PTR [eax]
  00082	40		 inc	 eax
  00083	84 c9		 test	 cl, cl
  00085	75 f9		 jne	 SHORT $L196884
  00087	2b c7		 sub	 eax, edi
$L196875:
  00089	50		 push	 eax
  0008a	52		 push	 edx
  0008b	8b ce		 mov	 ecx, esi
  0008d	e8 00 00 00 00	 call	 ?SetString@?$CSimpleStringT@D$0A@@ATL@@QAEXPBDH@Z ; ATL::CSimpleStringT<char,0>::SetString
$L196885:

; 835  : 		}
; 836  : 	}

  00092	8b 4c 24 0c	 mov	 ecx, DWORD PTR __$EHRec$[esp+24]
  00096	5f		 pop	 edi
  00097	8b c6		 mov	 eax, esi
  00099	5e		 pop	 esi
  0009a	64 89 0d 00 00
	00 00		 mov	 DWORD PTR fs:__except_list, ecx
  000a1	83 c4 10	 add	 esp, 16			; 00000010H
  000a4	c2 04 00	 ret	 4
_TEXT	ENDS
;	COMDAT text$x
text$x	SEGMENT
$L196806:
  00000	8b 4d f0	 mov	 ecx, DWORD PTR _this$[ebp]
  00003	e9 00 00 00 00	 jmp	 ??1?$CSimpleStringT@D$0A@@ATL@@QAE@XZ ; ATL::CSimpleStringT<char,0>::~CSimpleStringT<char,0>
__ehhandler$??0?$CStringT@DV?$StrTraitMFC@DV?$ChTraitsCRT@D@ATL@@@@@ATL@@QAE@PBD@Z:
  00008	b8 00 00 00 00	 mov	 eax, OFFSET FLAT:$T196881
  0000d	e9 00 00 00 00	 jmp	 ___CxxFrameHandler
text$x	ENDS
??0?$CStringT@DV?$StrTraitMFC@DV?$ChTraitsCRT@D@ATL@@@@@ATL@@QAE@PBD@Z ENDP ; ATL::CStringT<char,StrTraitMFC<char,ATL::ChTraitsCRT<char> > >::CStringT<char,StrTraitMFC<char,ATL::ChTraitsCRT<char> > >
PUBLIC	?insert@?$_Tree@V?$_Tmap_traits@HPAV?$list@PAVCEventItem@@V?$allocator@PAVCEventItem@@@std@@@std@@U?$less@H@2@V?$allocator@U?$pair@$$CBHPAV?$list@PAVCEventItem@@V?$allocator@PAVCEventItem@@@std@@@std@@@std@@@2@$0A@@std@@@std@@QAE?AU?$pair@Viterator@?$_Tree@V?$_Tmap_traits@HPAV?$list@PAVCEventItem@@V?$allocator@PAVCEventItem@@@std@@@std@@U?$less@H@2@V?$allocator@U?$pair@$$CBHPAV?$list@PAVCEventItem@@V?$allocator@PAVCEventItem@@@std@@@std@@@std@@@2@$0A@@std@@@std@@_N@2@ABU?$pair@$$CBHPAV?$list@PAVCEventItem@@V?$allocator@PAVCEventItem@@@std@@@std@@@2@@Z ; std::_Tree<std::_Tmap_traits<int,std::list<CEventItem *,std::allocator<CEventItem *> > *,std::less<int>,std::allocator<std::pair<int const ,std::list<CEventItem *,std::allocator<CEventItem *> > *> >,0> >::insert
; Function compile flags: /Ogty
; File c:\program files\microsoft visual studio .net 2003\vc7\include\xtree
;	COMDAT ?insert@?$_Tree@V?$_Tmap_traits@HPAV?$list@PAVCEventItem@@V?$allocator@PAVCEventItem@@@std@@@std@@U?$less@H@2@V?$allocator@U?$pair@$$CBHPAV?$list@PAVCEventItem@@V?$allocator@PAVCEventItem@@@std@@@std@@@std@@@2@$0A@@std@@@std@@QAE?AU?$pair@Viterator@?$_Tree@V?$_Tmap_traits@HPAV?$list@PAVCEventItem@@V?$allocator@PAVCEventItem@@@std@@@std@@U?$less@H@2@V?$allocator@U?$pair@$$CBHPAV?$list@PAVCEventItem@@V?$allocator@PAVCEventItem@@@std@@@std@@@std@@@2@$0A@@std@@@std@@_N@2@ABU?$pair@$$CBHPAV?$list@PAVCEventItem@@V?$allocator@PAVCEventItem@@@std@@@std@@@2@@Z
_TEXT	SEGMENT
__Addleft$ = -4						; size = 1
___$ReturnUdt$ = 8					; size = 4
$T196900 = 12						; size = 4
$T196898 = 12						; size = 4
__Where$188985 = 12					; size = 4
__Val$ = 12						; size = 4
?insert@?$_Tree@V?$_Tmap_traits@HPAV?$list@PAVCEventItem@@V?$allocator@PAVCEventItem@@@std@@@std@@U?$less@H@2@V?$allocator@U?$pair@$$CBHPAV?$list@PAVCEventItem@@V?$allocator@PAVCEventItem@@@std@@@std@@@std@@@2@$0A@@std@@@std@@QAE?AU?$pair@Viterator@?$_Tree@V?$_Tmap_traits@HPAV?$list@PAVCEventItem@@V?$allocator@PAVCEventItem@@@std@@@std@@U?$less@H@2@V?$allocator@U?$pair@$$CBHPAV?$list@PAVCEventItem@@V?$allocator@PAVCEventItem@@@std@@@std@@@std@@@2@$0A@@std@@@std@@_N@2@ABU?$pair@$$CBHPAV?$list@PAVCEventItem@@V?$allocator@PAVCEventItem@@@std@@@std@@@2@@Z PROC NEAR ; std::_Tree<std::_Tmap_traits<int,std::list<CEventItem *,std::allocator<CEventItem *> > *,std::less<int>,std::allocator<std::pair<int const ,std::list<CEventItem *,std::allocator<CEventItem *> > *> >,0> >::insert, COMDAT
; _this$ = ecx

; 477  : 		{	// try to insert node with value _Val

  00000	51		 push	 ecx
  00001	55		 push	 ebp

; 478  : 		_Nodeptr _Trynode = _Root();
; 479  : 		_Nodeptr _Wherenode = _Myhead;
; 480  : 		bool _Addleft = true;	// add to left of head if tree empty
; 481  : 		while (!_Isnil(_Trynode))

  00002	8b 6c 24 10	 mov	 ebp, DWORD PTR __Val$[esp+4]
  00006	56		 push	 esi
  00007	57		 push	 edi
  00008	8b f9		 mov	 edi, ecx
  0000a	8b 77 04	 mov	 esi, DWORD PTR [edi+4]
  0000d	8b 46 04	 mov	 eax, DWORD PTR [esi+4]
  00010	8a 50 15	 mov	 dl, BYTE PTR [eax+21]
  00013	84 d2		 test	 dl, dl
  00015	b1 01		 mov	 cl, 1
  00017	88 4c 24 0c	 mov	 BYTE PTR __Addleft$[esp+16], cl
  0001b	75 20		 jne	 SHORT $L188974
  0001d	8b 55 00	 mov	 edx, DWORD PTR [ebp]
$L188973:

; 482  : 			{	// look for leaf to insert before (_Addleft) or after
; 483  : 			_Wherenode = _Trynode;
; 484  : 			_Addleft = this->comp(this->_Kfn(_Val), _Key(_Trynode));

  00020	3b 50 0c	 cmp	 edx, DWORD PTR [eax+12]
  00023	0f 9c c1	 setl	 cl

; 485  : 			_Trynode = _Addleft ? _Left(_Trynode) : _Right(_Trynode);

  00026	84 c9		 test	 cl, cl
  00028	8b f0		 mov	 esi, eax
  0002a	88 4c 24 0c	 mov	 BYTE PTR __Addleft$[esp+16], cl
  0002e	74 04		 je	 SHORT $L196892
  00030	8b 00		 mov	 eax, DWORD PTR [eax]
  00032	eb 03		 jmp	 SHORT $L196893
$L196892:
  00034	8b 40 08	 mov	 eax, DWORD PTR [eax+8]
$L196893:

; 478  : 		_Nodeptr _Trynode = _Root();
; 479  : 		_Nodeptr _Wherenode = _Myhead;
; 480  : 		bool _Addleft = true;	// add to left of head if tree empty
; 481  : 		while (!_Isnil(_Trynode))

  00037	80 78 15 00	 cmp	 BYTE PTR [eax+21], 0
  0003b	74 e3		 je	 SHORT $L188973
$L188974:

; 486  : 			}
; 487  : 
; 488  : 		if (this->_Multi)
; 489  : 			return (_Pairib(_Insert(_Addleft, _Wherenode, _Val), true));
; 490  : 		else
; 491  : 			{	// insert only if unique
; 492  : 			iterator _Where = _TREE_ITERATOR(_Wherenode);
; 493  : 			if (!_Addleft)

  0003d	84 c9		 test	 cl, cl
  0003f	8b d6		 mov	 edx, esi
  00041	89 54 24 18	 mov	 DWORD PTR __Where$188985[esp+12], edx
  00045	74 33		 je	 SHORT $L196992

; 494  : 				;	// need to test if insert after is okay
; 495  : 			else if (_Where == begin())

  00047	8b 47 04	 mov	 eax, DWORD PTR [edi+4]
  0004a	3b 30		 cmp	 esi, DWORD PTR [eax]

; 496  : 				return (_Pairib(_Insert(true, _Wherenode, _Val), true));

  0004c	8d 4c 24 18	 lea	 ecx, DWORD PTR $T196898[esp+12]
  00050	75 1f		 jne	 SHORT $L188990
  00052	55		 push	 ebp
  00053	56		 push	 esi
  00054	6a 01		 push	 1
  00056	51		 push	 ecx
  00057	8b cf		 mov	 ecx, edi
  00059	e8 00 00 00 00	 call	 ?_Insert@?$_Tree@V?$_Tmap_traits@HPAV?$list@PAVCEventItem@@V?$allocator@PAVCEventItem@@@std@@@std@@U?$less@H@2@V?$allocator@U?$pair@$$CBHPAV?$list@PAVCEventItem@@V?$allocator@PAVCEventItem@@@std@@@std@@@std@@@2@$0A@@std@@@std@@IAE?AViterator@12@_NPAU_Node@?$_Tree_nod@V?$_Tmap_traits@HPAV?$list@PAVCEventItem@@V?$allocator@PAVCEventItem@@@std@@@std@@U?$less@H@2@V?$allocator@U?$pair@$$CBHPAV?$list@PAVCEventItem@@V?$allocator@PAVCEventItem@@@std@@@std@@@std@@@2@$0A@@std@@@2@ABU?$pair@$$CBHPAV?$list@PAVCEventItem@@V?$allocator@PAVCEventItem@@@std@@@std@@@2@@Z ; std::_Tree<std::_Tmap_traits<int,std::list<CEventItem *,std::allocator<CEventItem *> > *,std::less<int>,std::allocator<std::pair<int const ,std::list<CEventItem *,std::allocator<CEventItem *> > *> >,0> >::_Insert
  0005e	8b 10		 mov	 edx, DWORD PTR [eax]
  00060	8b 44 24 14	 mov	 eax, DWORD PTR ___$ReturnUdt$[esp+12]
  00064	5f		 pop	 edi
  00065	5e		 pop	 esi
  00066	c6 40 04 01	 mov	 BYTE PTR [eax+4], 1

; 502  : 			else
; 503  : 				return (_Pairib(_Where, false));

  0006a	89 10		 mov	 DWORD PTR [eax], edx
  0006c	5d		 pop	 ebp

; 504  : 			}
; 505  : 		}

  0006d	59		 pop	 ecx
  0006e	c2 08 00	 ret	 8
$L188990:

; 497  : 			else
; 498  : 				--_Where;	// need to test if insert before is okay

  00071	e8 00 00 00 00	 call	 ?_Dec@const_iterator@?$_Tree@V?$_Tmap_traits@HPAV?$list@PAVCEventItem@@V?$allocator@PAVCEventItem@@@std@@@std@@U?$less@H@2@V?$allocator@U?$pair@$$CBHPAV?$list@PAVCEventItem@@V?$allocator@PAVCEventItem@@@std@@@std@@@std@@@2@$0A@@std@@@std@@QAEXXZ ; std::_Tree<std::_Tmap_traits<int,std::list<CEventItem *,std::allocator<CEventItem *> > *,std::less<int>,std::allocator<std::pair<int const ,std::list<CEventItem *,std::allocator<CEventItem *> > *> >,0> >::const_iterator::_Dec
  00076	8b 54 24 18	 mov	 edx, DWORD PTR __Where$188985[esp+12]
$L196992:

; 499  : 
; 500  : 			if (this->comp(_Key(_Where._Mynode()), this->_Kfn(_Val)))

  0007a	8b 42 0c	 mov	 eax, DWORD PTR [edx+12]
  0007d	3b 45 00	 cmp	 eax, DWORD PTR [ebp]
  00080	7d 26		 jge	 SHORT $L188995

; 501  : 				return (_Pairib(_Insert(_Addleft, _Wherenode, _Val), true));

  00082	8b 4c 24 0c	 mov	 ecx, DWORD PTR __Addleft$[esp+16]
  00086	55		 push	 ebp
  00087	56		 push	 esi
  00088	51		 push	 ecx
  00089	8d 54 24 24	 lea	 edx, DWORD PTR $T196900[esp+24]
  0008d	52		 push	 edx
  0008e	8b cf		 mov	 ecx, edi
  00090	e8 00 00 00 00	 call	 ?_Insert@?$_Tree@V?$_Tmap_traits@HPAV?$list@PAVCEventItem@@V?$allocator@PAVCEventItem@@@std@@@std@@U?$less@H@2@V?$allocator@U?$pair@$$CBHPAV?$list@PAVCEventItem@@V?$allocator@PAVCEventItem@@@std@@@std@@@std@@@2@$0A@@std@@@std@@IAE?AViterator@12@_NPAU_Node@?$_Tree_nod@V?$_Tmap_traits@HPAV?$list@PAVCEventItem@@V?$allocator@PAVCEventItem@@@std@@@std@@U?$less@H@2@V?$allocator@U?$pair@$$CBHPAV?$list@PAVCEventItem@@V?$allocator@PAVCEventItem@@@std@@@std@@@std@@@2@$0A@@std@@@2@ABU?$pair@$$CBHPAV?$list@PAVCEventItem@@V?$allocator@PAVCEventItem@@@std@@@std@@@2@@Z ; std::_Tree<std::_Tmap_traits<int,std::list<CEventItem *,std::allocator<CEventItem *> > *,std::less<int>,std::allocator<std::pair<int const ,std::list<CEventItem *,std::allocator<CEventItem *> > *> >,0> >::_Insert
  00095	8b 08		 mov	 ecx, DWORD PTR [eax]
  00097	8b 44 24 14	 mov	 eax, DWORD PTR ___$ReturnUdt$[esp+12]
  0009b	5f		 pop	 edi
  0009c	5e		 pop	 esi
  0009d	89 08		 mov	 DWORD PTR [eax], ecx
  0009f	c6 40 04 01	 mov	 BYTE PTR [eax+4], 1
  000a3	5d		 pop	 ebp

; 504  : 			}
; 505  : 		}

  000a4	59		 pop	 ecx
  000a5	c2 08 00	 ret	 8
$L188995:

; 502  : 			else
; 503  : 				return (_Pairib(_Where, false));

  000a8	8b 44 24 14	 mov	 eax, DWORD PTR ___$ReturnUdt$[esp+12]
  000ac	5f		 pop	 edi
  000ad	5e		 pop	 esi
  000ae	c6 40 04 00	 mov	 BYTE PTR [eax+4], 0
  000b2	89 10		 mov	 DWORD PTR [eax], edx
  000b4	5d		 pop	 ebp

; 504  : 			}
; 505  : 		}

  000b5	59		 pop	 ecx
  000b6	c2 08 00	 ret	 8
?insert@?$_Tree@V?$_Tmap_traits@HPAV?$list@PAVCEventItem@@V?$allocator@PAVCEventItem@@@std@@@std@@U?$less@H@2@V?$allocator@U?$pair@$$CBHPAV?$list@PAVCEventItem@@V?$allocator@PAVCEventItem@@@std@@@std@@@std@@@2@$0A@@std@@@std@@QAE?AU?$pair@Viterator@?$_Tree@V?$_Tmap_traits@HPAV?$list@PAVCEventItem@@V?$allocator@PAVCEventItem@@@std@@@std@@U?$less@H@2@V?$allocator@U?$pair@$$CBHPAV?$list@PAVCEventItem@@V?$allocator@PAVCEventItem@@@std@@@std@@@std@@@2@$0A@@std@@@std@@_N@2@ABU?$pair@$$CBHPAV?$list@PAVCEventItem@@V?$allocator@PAVCEventItem@@@std@@@std@@@2@@Z ENDP ; std::_Tree<std::_Tmap_traits<int,std::list<CEventItem *,std::allocator<CEventItem *> > *,std::less<int>,std::allocator<std::pair<int const ,std::list<CEventItem *,std::allocator<CEventItem *> > *> >,0> >::insert
_TEXT	ENDS
PUBLIC	?_Insert@?$list@PAU_EVENT_GENERIC@@V?$allocator@PAU_EVENT_GENERIC@@@std@@@std@@QAEXViterator@12@ABQAU_EVENT_GENERIC@@@Z ; std::list<_EVENT_GENERIC *,std::allocator<_EVENT_GENERIC *> >::_Insert
; Function compile flags: /Ogty
; File c:\program files\microsoft visual studio .net 2003\vc7\include\list
;	COMDAT ?_Insert@?$list@PAU_EVENT_GENERIC@@V?$allocator@PAU_EVENT_GENERIC@@@std@@@std@@QAEXViterator@12@ABQAU_EVENT_GENERIC@@@Z
_TEXT	SEGMENT
__Where$ = 8						; size = 4
__Val$ = 12						; size = 4
?_Insert@?$list@PAU_EVENT_GENERIC@@V?$allocator@PAU_EVENT_GENERIC@@@std@@@std@@QAEXViterator@12@ABQAU_EVENT_GENERIC@@@Z PROC NEAR ; std::list<_EVENT_GENERIC *,std::allocator<_EVENT_GENERIC *> >::_Insert, COMDAT
; _this$ = ecx

; 522  : 		_Nodeptr _Pnode = _Where._Mynode();
; 523  : 		_Nodeptr _Newnode = _Buynode(_Pnode, _Prevnode(_Pnode), _Val);

  00000	8b 44 24 08	 mov	 eax, DWORD PTR __Val$[esp-4]
  00004	53		 push	 ebx
  00005	8b 5c 24 08	 mov	 ebx, DWORD PTR __Where$[esp]
  00009	56		 push	 esi
  0000a	57		 push	 edi
  0000b	8b f9		 mov	 edi, ecx
  0000d	8b 4b 04	 mov	 ecx, DWORD PTR [ebx+4]
  00010	50		 push	 eax
  00011	51		 push	 ecx
  00012	53		 push	 ebx
  00013	8b cf		 mov	 ecx, edi
  00015	e8 00 00 00 00	 call	 ?_Buynode@?$list@PAU_EVENT_GENERIC@@V?$allocator@PAU_EVENT_GENERIC@@@std@@@std@@IAEPAU_Node@?$_List_nod@PAU_EVENT_GENERIC@@V?$allocator@PAU_EVENT_GENERIC@@@std@@@2@PAU342@0ABQAU_EVENT_GENERIC@@@Z ; std::list<_EVENT_GENERIC *,std::allocator<_EVENT_GENERIC *> >::_Buynode

; 524  : 		_Incsize(1);

  0001a	6a 01		 push	 1
  0001c	8b cf		 mov	 ecx, edi
  0001e	8b f0		 mov	 esi, eax
  00020	e8 00 00 00 00	 call	 ?_Incsize@?$list@PAU_EVENT_GENERIC@@V?$allocator@PAU_EVENT_GENERIC@@@std@@@std@@IAEXI@Z ; std::list<_EVENT_GENERIC *,std::allocator<_EVENT_GENERIC *> >::_Incsize

; 525  : 		_Prevnode(_Pnode) = _Newnode;

  00025	89 73 04	 mov	 DWORD PTR [ebx+4], esi

; 526  : 		_Nextnode(_Prevnode(_Newnode)) = _Newnode;

  00028	8b 56 04	 mov	 edx, DWORD PTR [esi+4]
  0002b	5f		 pop	 edi
  0002c	89 32		 mov	 DWORD PTR [edx], esi
  0002e	5e		 pop	 esi
  0002f	5b		 pop	 ebx

; 527  : 		}

  00030	c2 08 00	 ret	 8
?_Insert@?$list@PAU_EVENT_GENERIC@@V?$allocator@PAU_EVENT_GENERIC@@@std@@@std@@QAEXViterator@12@ABQAU_EVENT_GENERIC@@@Z ENDP ; std::list<_EVENT_GENERIC *,std::allocator<_EVENT_GENERIC *> >::_Insert
_TEXT	ENDS
PUBLIC	?_Insert@?$list@PAVCEventItem@@V?$allocator@PAVCEventItem@@@std@@@std@@QAEXViterator@12@ABQAVCEventItem@@@Z ; std::list<CEventItem *,std::allocator<CEventItem *> >::_Insert
; Function compile flags: /Ogty
;	COMDAT ?_Insert@?$list@PAVCEventItem@@V?$allocator@PAVCEventItem@@@std@@@std@@QAEXViterator@12@ABQAVCEventItem@@@Z
_TEXT	SEGMENT
__Where$ = 8						; size = 4
__Val$ = 12						; size = 4
?_Insert@?$list@PAVCEventItem@@V?$allocator@PAVCEventItem@@@std@@@std@@QAEXViterator@12@ABQAVCEventItem@@@Z PROC NEAR ; std::list<CEventItem *,std::allocator<CEventItem *> >::_Insert, COMDAT
; _this$ = ecx

; 522  : 		_Nodeptr _Pnode = _Where._Mynode();
; 523  : 		_Nodeptr _Newnode = _Buynode(_Pnode, _Prevnode(_Pnode), _Val);

  00000	8b 44 24 08	 mov	 eax, DWORD PTR __Val$[esp-4]
  00004	53		 push	 ebx
  00005	8b 5c 24 08	 mov	 ebx, DWORD PTR __Where$[esp]
  00009	56		 push	 esi
  0000a	57		 push	 edi
  0000b	8b f9		 mov	 edi, ecx
  0000d	8b 4b 04	 mov	 ecx, DWORD PTR [ebx+4]
  00010	50		 push	 eax
  00011	51		 push	 ecx
  00012	53		 push	 ebx
  00013	8b cf		 mov	 ecx, edi
  00015	e8 00 00 00 00	 call	 ?_Buynode@?$list@PAVCEventItem@@V?$allocator@PAVCEventItem@@@std@@@std@@IAEPAU_Node@?$_List_nod@PAVCEventItem@@V?$allocator@PAVCEventItem@@@std@@@2@PAU342@0ABQAVCEventItem@@@Z ; std::list<CEventItem *,std::allocator<CEventItem *> >::_Buynode

; 524  : 		_Incsize(1);

  0001a	6a 01		 push	 1
  0001c	8b cf		 mov	 ecx, edi
  0001e	8b f0		 mov	 esi, eax
  00020	e8 00 00 00 00	 call	 ?_Incsize@?$list@PAVCEventItem@@V?$allocator@PAVCEventItem@@@std@@@std@@IAEXI@Z ; std::list<CEventItem *,std::allocator<CEventItem *> >::_Incsize

; 525  : 		_Prevnode(_Pnode) = _Newnode;

  00025	89 73 04	 mov	 DWORD PTR [ebx+4], esi

; 526  : 		_Nextnode(_Prevnode(_Newnode)) = _Newnode;

  00028	8b 56 04	 mov	 edx, DWORD PTR [esi+4]
  0002b	5f		 pop	 edi
  0002c	89 32		 mov	 DWORD PTR [edx], esi
  0002e	5e		 pop	 esi
  0002f	5b		 pop	 ebx

; 527  : 		}

  00030	c2 08 00	 ret	 8
?_Insert@?$list@PAVCEventItem@@V?$allocator@PAVCEventItem@@@std@@@std@@QAEXViterator@12@ABQAVCEventItem@@@Z ENDP ; std::list<CEventItem *,std::allocator<CEventItem *> >::_Insert
_TEXT	ENDS
PUBLIC	?erase@?$_Tree@V?$_Tmap_traits@HPAV?$list@PAVCEventItem@@V?$allocator@PAVCEventItem@@@std@@@std@@U?$less@H@2@V?$allocator@U?$pair@$$CBHPAV?$list@PAVCEventItem@@V?$allocator@PAVCEventItem@@@std@@@std@@@std@@@2@$0A@@std@@@std@@QAE?AViterator@12@V312@0@Z ; std::_Tree<std::_Tmap_traits<int,std::list<CEventItem *,std::allocator<CEventItem *> > *,std::less<int>,std::allocator<std::pair<int const ,std::list<CEventItem *,std::allocator<CEventItem *> > *> >,0> >::erase
; Function compile flags: /Ogty
; File c:\program files\microsoft visual studio .net 2003\vc7\include\xtree
;	COMDAT ?erase@?$_Tree@V?$_Tmap_traits@HPAV?$list@PAVCEventItem@@V?$allocator@PAVCEventItem@@@std@@@std@@U?$less@H@2@V?$allocator@U?$pair@$$CBHPAV?$list@PAVCEventItem@@V?$allocator@PAVCEventItem@@@std@@@std@@@std@@@2@$0A@@std@@@std@@QAE?AViterator@12@V312@0@Z
_TEXT	SEGMENT
___$ReturnUdt$ = 8					; size = 4
$T197067 = 12						; size = 4
__First$ = 12						; size = 4
__Last$ = 16						; size = 4
?erase@?$_Tree@V?$_Tmap_traits@HPAV?$list@PAVCEventItem@@V?$allocator@PAVCEventItem@@@std@@@std@@U?$less@H@2@V?$allocator@U?$pair@$$CBHPAV?$list@PAVCEventItem@@V?$allocator@PAVCEventItem@@@std@@@std@@@std@@@2@$0A@@std@@@std@@QAE?AViterator@12@V312@0@Z PROC NEAR ; std::_Tree<std::_Tmap_traits<int,std::list<CEventItem *,std::allocator<CEventItem *> > *,std::less<int>,std::allocator<std::pair<int const ,std::list<CEventItem *,std::allocator<CEventItem *> > *> >,0> >::erase, COMDAT
; _this$ = ecx

; 750  : 		{	// erase [_First, _Last)

  00000	53		 push	 ebx

; 751  : 		if (_First == begin() && _Last == end())

  00001	8b 5c 24 10	 mov	 ebx, DWORD PTR __Last$[esp]
  00005	56		 push	 esi
  00006	8b 74 24 10	 mov	 esi, DWORD PTR __First$[esp+4]
  0000a	57		 push	 edi
  0000b	8b f9		 mov	 edi, ecx
  0000d	8b 47 04	 mov	 eax, DWORD PTR [edi+4]
  00010	3b 30		 cmp	 esi, DWORD PTR [eax]
  00012	75 38		 jne	 SHORT $L197399
  00014	3b d8		 cmp	 ebx, eax
  00016	75 34		 jne	 SHORT $L197399

; 752  : 			{	// erase all
; 753  : 			clear();

  00018	8b 40 04	 mov	 eax, DWORD PTR [eax+4]
  0001b	50		 push	 eax
  0001c	8b cf		 mov	 ecx, edi
  0001e	e8 00 00 00 00	 call	 ?_Erase@?$_Tree@V?$_Tmap_traits@HPAV?$list@PAVCEventItem@@V?$allocator@PAVCEventItem@@@std@@@std@@U?$less@H@2@V?$allocator@U?$pair@$$CBHPAV?$list@PAVCEventItem@@V?$allocator@PAVCEventItem@@@std@@@std@@@std@@@2@$0A@@std@@@std@@IAEXPAU_Node@?$_Tree_nod@V?$_Tmap_traits@HPAV?$list@PAVCEventItem@@V?$allocator@PAVCEventItem@@@std@@@std@@U?$less@H@2@V?$allocator@U?$pair@$$CBHPAV?$list@PAVCEventItem@@V?$allocator@PAVCEventItem@@@std@@@std@@@std@@@2@$0A@@std@@@2@@Z ; std::_Tree<std::_Tmap_traits<int,std::list<CEventItem *,std::allocator<CEventItem *> > *,std::less<int>,std::allocator<std::pair<int const ,std::list<CEventItem *,std::allocator<CEventItem *> > *> >,0> >::_Erase
  00023	8b 47 04	 mov	 eax, DWORD PTR [edi+4]
  00026	89 40 04	 mov	 DWORD PTR [eax+4], eax
  00029	8b 47 04	 mov	 eax, DWORD PTR [edi+4]
  0002c	c7 47 08 00 00
	00 00		 mov	 DWORD PTR [edi+8], 0
  00033	89 00		 mov	 DWORD PTR [eax], eax
  00035	8b 47 04	 mov	 eax, DWORD PTR [edi+4]
  00038	89 40 08	 mov	 DWORD PTR [eax+8], eax

; 754  : 			return (begin());

  0003b	8b 4f 04	 mov	 ecx, DWORD PTR [edi+4]
  0003e	8b 11		 mov	 edx, DWORD PTR [ecx]
  00040	8b 44 24 10	 mov	 eax, DWORD PTR ___$ReturnUdt$[esp+8]
  00044	5f		 pop	 edi
  00045	5e		 pop	 esi
  00046	89 10		 mov	 DWORD PTR [eax], edx
  00048	5b		 pop	 ebx

; 761  : 			}
; 762  : 		}

  00049	c2 0c 00	 ret	 12			; 0000000cH
$L197399:

; 755  : 			}
; 756  : 		else
; 757  : 			{	// partial erase, one at a time
; 758  : 			while (_First != _Last)

  0004c	3b f3		 cmp	 esi, ebx
  0004e	74 5b		 je	 SHORT $L189347
$L189346:

; 759  : 				erase(_First++);

  00050	8a 46 15	 mov	 al, BYTE PTR [esi+21]
  00053	84 c0		 test	 al, al
  00055	8b ce		 mov	 ecx, esi
  00057	75 41		 jne	 SHORT $L197394
  00059	8b 46 08	 mov	 eax, DWORD PTR [esi+8]
  0005c	8a 50 15	 mov	 dl, BYTE PTR [eax+21]
  0005f	84 d2		 test	 dl, dl
  00061	75 1a		 jne	 SHORT $L197401
  00063	8b f0		 mov	 esi, eax
  00065	8b 06		 mov	 eax, DWORD PTR [esi]
  00067	8a 50 15	 mov	 dl, BYTE PTR [eax+21]
  0006a	84 d2		 test	 dl, dl
  0006c	75 2c		 jne	 SHORT $L197394
  0006e	8b ff		 npad	 2
$L197375:
  00070	8b f0		 mov	 esi, eax
  00072	8b 06		 mov	 eax, DWORD PTR [esi]
  00074	8a 50 15	 mov	 dl, BYTE PTR [eax+21]
  00077	84 d2		 test	 dl, dl
  00079	74 f5		 je	 SHORT $L197375
  0007b	eb 1d		 jmp	 SHORT $L197394
$L197401:
  0007d	8b 46 04	 mov	 eax, DWORD PTR [esi+4]
  00080	8a 50 15	 mov	 dl, BYTE PTR [eax+21]
  00083	84 d2		 test	 dl, dl
  00085	75 11		 jne	 SHORT $L197397
$L197396:
  00087	3b 70 08	 cmp	 esi, DWORD PTR [eax+8]
  0008a	75 0c		 jne	 SHORT $L197397
  0008c	8b f0		 mov	 esi, eax
  0008e	8b 40 04	 mov	 eax, DWORD PTR [eax+4]
  00091	8a 50 15	 mov	 dl, BYTE PTR [eax+21]
  00094	84 d2		 test	 dl, dl
  00096	74 ef		 je	 SHORT $L197396
$L197397:
  00098	8b f0		 mov	 esi, eax
$L197394:
  0009a	51		 push	 ecx
  0009b	8d 44 24 18	 lea	 eax, DWORD PTR $T197067[esp+12]
  0009f	50		 push	 eax
  000a0	8b cf		 mov	 ecx, edi
  000a2	e8 00 00 00 00	 call	 ?erase@?$_Tree@V?$_Tmap_traits@HPAV?$list@PAVCEventItem@@V?$allocator@PAVCEventItem@@@std@@@std@@U?$less@H@2@V?$allocator@U?$pair@$$CBHPAV?$list@PAVCEventItem@@V?$allocator@PAVCEventItem@@@std@@@std@@@std@@@2@$0A@@std@@@std@@QAE?AViterator@12@V312@@Z ; std::_Tree<std::_Tmap_traits<int,std::list<CEventItem *,std::allocator<CEventItem *> > *,std::less<int>,std::allocator<std::pair<int const ,std::list<CEventItem *,std::allocator<CEventItem *> > *> >,0> >::erase
  000a7	3b f3		 cmp	 esi, ebx
  000a9	75 a5		 jne	 SHORT $L189346
$L189347:

; 760  : 			return (_First);

  000ab	8b 44 24 10	 mov	 eax, DWORD PTR ___$ReturnUdt$[esp+8]
  000af	5f		 pop	 edi
  000b0	89 30		 mov	 DWORD PTR [eax], esi
  000b2	5e		 pop	 esi
  000b3	5b		 pop	 ebx

; 761  : 			}
; 762  : 		}

  000b4	c2 0c 00	 ret	 12			; 0000000cH
?erase@?$_Tree@V?$_Tmap_traits@HPAV?$list@PAVCEventItem@@V?$allocator@PAVCEventItem@@@std@@@std@@U?$less@H@2@V?$allocator@U?$pair@$$CBHPAV?$list@PAVCEventItem@@V?$allocator@PAVCEventItem@@@std@@@std@@@std@@@2@$0A@@std@@@std@@QAE?AViterator@12@V312@0@Z ENDP ; std::_Tree<std::_Tmap_traits<int,std::list<CEventItem *,std::allocator<CEventItem *> > *,std::less<int>,std::allocator<std::pair<int const ,std::list<CEventItem *,std::allocator<CEventItem *> > *> >,0> >::erase
_TEXT	ENDS
PUBLIC	?push_back@?$list@PAU_EVENT_GENERIC@@V?$allocator@PAU_EVENT_GENERIC@@@std@@@std@@QAEXABQAU_EVENT_GENERIC@@@Z ; std::list<_EVENT_GENERIC *,std::allocator<_EVENT_GENERIC *> >::push_back
; Function compile flags: /Ogty
; File c:\program files\microsoft visual studio .net 2003\vc7\include\list
;	COMDAT ?push_back@?$list@PAU_EVENT_GENERIC@@V?$allocator@PAU_EVENT_GENERIC@@@std@@@std@@QAEXABQAU_EVENT_GENERIC@@@Z
_TEXT	SEGMENT
__Val$ = 8						; size = 4
?push_back@?$list@PAU_EVENT_GENERIC@@V?$allocator@PAU_EVENT_GENERIC@@@std@@@std@@QAEXABQAU_EVENT_GENERIC@@@Z PROC NEAR ; std::list<_EVENT_GENERIC *,std::allocator<_EVENT_GENERIC *> >::push_back, COMDAT
; _this$ = ecx

; 481  : 		_Insert(end(), _Val);

  00000	8b 44 24 04	 mov	 eax, DWORD PTR __Val$[esp-4]
  00004	53		 push	 ebx
  00005	56		 push	 esi
  00006	57		 push	 edi
  00007	8b f1		 mov	 esi, ecx
  00009	8b 7e 04	 mov	 edi, DWORD PTR [esi+4]
  0000c	8b 4f 04	 mov	 ecx, DWORD PTR [edi+4]
  0000f	50		 push	 eax
  00010	51		 push	 ecx
  00011	57		 push	 edi
  00012	8b ce		 mov	 ecx, esi
  00014	e8 00 00 00 00	 call	 ?_Buynode@?$list@PAU_EVENT_GENERIC@@V?$allocator@PAU_EVENT_GENERIC@@@std@@@std@@IAEPAU_Node@?$_List_nod@PAU_EVENT_GENERIC@@V?$allocator@PAU_EVENT_GENERIC@@@std@@@2@PAU342@0ABQAU_EVENT_GENERIC@@@Z ; std::list<_EVENT_GENERIC *,std::allocator<_EVENT_GENERIC *> >::_Buynode
  00019	6a 01		 push	 1
  0001b	8b ce		 mov	 ecx, esi
  0001d	8b d8		 mov	 ebx, eax
  0001f	e8 00 00 00 00	 call	 ?_Incsize@?$list@PAU_EVENT_GENERIC@@V?$allocator@PAU_EVENT_GENERIC@@@std@@@std@@IAEXI@Z ; std::list<_EVENT_GENERIC *,std::allocator<_EVENT_GENERIC *> >::_Incsize
  00024	89 5f 04	 mov	 DWORD PTR [edi+4], ebx
  00027	8b 53 04	 mov	 edx, DWORD PTR [ebx+4]
  0002a	5f		 pop	 edi
  0002b	5e		 pop	 esi
  0002c	89 1a		 mov	 DWORD PTR [edx], ebx
  0002e	5b		 pop	 ebx

; 482  : 		}

  0002f	c2 04 00	 ret	 4
?push_back@?$list@PAU_EVENT_GENERIC@@V?$allocator@PAU_EVENT_GENERIC@@@std@@@std@@QAEXABQAU_EVENT_GENERIC@@@Z ENDP ; std::list<_EVENT_GENERIC *,std::allocator<_EVENT_GENERIC *> >::push_back
_TEXT	ENDS
PUBLIC	?push_back@?$list@PAVCEventItem@@V?$allocator@PAVCEventItem@@@std@@@std@@QAEXABQAVCEventItem@@@Z ; std::list<CEventItem *,std::allocator<CEventItem *> >::push_back
; Function compile flags: /Ogty
;	COMDAT ?push_back@?$list@PAVCEventItem@@V?$allocator@PAVCEventItem@@@std@@@std@@QAEXABQAVCEventItem@@@Z
_TEXT	SEGMENT
__Val$ = 8						; size = 4
?push_back@?$list@PAVCEventItem@@V?$allocator@PAVCEventItem@@@std@@@std@@QAEXABQAVCEventItem@@@Z PROC NEAR ; std::list<CEventItem *,std::allocator<CEventItem *> >::push_back, COMDAT
; _this$ = ecx

; 481  : 		_Insert(end(), _Val);

  00000	8b 44 24 04	 mov	 eax, DWORD PTR __Val$[esp-4]
  00004	53		 push	 ebx
  00005	56		 push	 esi
  00006	57		 push	 edi
  00007	8b f1		 mov	 esi, ecx
  00009	8b 7e 04	 mov	 edi, DWORD PTR [esi+4]
  0000c	8b 4f 04	 mov	 ecx, DWORD PTR [edi+4]
  0000f	50		 push	 eax
  00010	51		 push	 ecx
  00011	57		 push	 edi
  00012	8b ce		 mov	 ecx, esi
  00014	e8 00 00 00 00	 call	 ?_Buynode@?$list@PAVCEventItem@@V?$allocator@PAVCEventItem@@@std@@@std@@IAEPAU_Node@?$_List_nod@PAVCEventItem@@V?$allocator@PAVCEventItem@@@std@@@2@PAU342@0ABQAVCEventItem@@@Z ; std::list<CEventItem *,std::allocator<CEventItem *> >::_Buynode
  00019	6a 01		 push	 1
  0001b	8b ce		 mov	 ecx, esi
  0001d	8b d8		 mov	 ebx, eax
  0001f	e8 00 00 00 00	 call	 ?_Incsize@?$list@PAVCEventItem@@V?$allocator@PAVCEventItem@@@std@@@std@@IAEXI@Z ; std::list<CEventItem *,std::allocator<CEventItem *> >::_Incsize
  00024	89 5f 04	 mov	 DWORD PTR [edi+4], ebx
  00027	8b 53 04	 mov	 edx, DWORD PTR [ebx+4]
  0002a	5f		 pop	 edi
  0002b	5e		 pop	 esi
  0002c	89 1a		 mov	 DWORD PTR [edx], ebx
  0002e	5b		 pop	 ebx

; 482  : 		}

  0002f	c2 04 00	 ret	 4
?push_back@?$list@PAVCEventItem@@V?$allocator@PAVCEventItem@@@std@@@std@@QAEXABQAVCEventItem@@@Z ENDP ; std::list<CEventItem *,std::allocator<CEventItem *> >::push_back
_TEXT	ENDS
PUBLIC	?_Tidy@?$_Tree@V?$_Tmap_traits@HPAV?$list@PAVCEventItem@@V?$allocator@PAVCEventItem@@@std@@@std@@U?$less@H@2@V?$allocator@U?$pair@$$CBHPAV?$list@PAVCEventItem@@V?$allocator@PAVCEventItem@@@std@@@std@@@std@@@2@$0A@@std@@@std@@IAEXXZ ; std::_Tree<std::_Tmap_traits<int,std::list<CEventItem *,std::allocator<CEventItem *> > *,std::less<int>,std::allocator<std::pair<int const ,std::list<CEventItem *,std::allocator<CEventItem *> > *> >,0> >::_Tidy
; Function compile flags: /Ogty
; File c:\program files\microsoft visual studio .net 2003\vc7\include\xtree
;	COMDAT ?_Tidy@?$_Tree@V?$_Tmap_traits@HPAV?$list@PAVCEventItem@@V?$allocator@PAVCEventItem@@@std@@@std@@U?$less@H@2@V?$allocator@U?$pair@$$CBHPAV?$list@PAVCEventItem@@V?$allocator@PAVCEventItem@@@std@@@std@@@std@@@2@$0A@@std@@@std@@IAEXXZ
_TEXT	SEGMENT
$T197511 = -4						; size = 4
?_Tidy@?$_Tree@V?$_Tmap_traits@HPAV?$list@PAVCEventItem@@V?$allocator@PAVCEventItem@@@std@@@std@@U?$less@H@2@V?$allocator@U?$pair@$$CBHPAV?$list@PAVCEventItem@@V?$allocator@PAVCEventItem@@@std@@@std@@@std@@@2@$0A@@std@@@std@@IAEXXZ PROC NEAR ; std::_Tree<std::_Tmap_traits<int,std::list<CEventItem *,std::allocator<CEventItem *> > *,std::less<int>,std::allocator<std::pair<int const ,std::list<CEventItem *,std::allocator<CEventItem *> > *> >,0> >::_Tidy, COMDAT
; _this$ = ecx

; 1142 : 		{	// free all storage

  00000	51		 push	 ecx
  00001	56		 push	 esi
  00002	8b f1		 mov	 esi, ecx

; 1143 : 		erase(begin(), end());

  00004	8b 46 04	 mov	 eax, DWORD PTR [esi+4]
  00007	8b 08		 mov	 ecx, DWORD PTR [eax]
  00009	50		 push	 eax
  0000a	51		 push	 ecx
  0000b	8d 44 24 0c	 lea	 eax, DWORD PTR $T197511[esp+16]
  0000f	50		 push	 eax
  00010	8b ce		 mov	 ecx, esi
  00012	e8 00 00 00 00	 call	 ?erase@?$_Tree@V?$_Tmap_traits@HPAV?$list@PAVCEventItem@@V?$allocator@PAVCEventItem@@@std@@@std@@U?$less@H@2@V?$allocator@U?$pair@$$CBHPAV?$list@PAVCEventItem@@V?$allocator@PAVCEventItem@@@std@@@std@@@std@@@2@$0A@@std@@@std@@QAE?AViterator@12@V312@0@Z ; std::_Tree<std::_Tmap_traits<int,std::list<CEventItem *,std::allocator<CEventItem *> > *,std::less<int>,std::allocator<std::pair<int const ,std::list<CEventItem *,std::allocator<CEventItem *> > *> >,0> >::erase

; 1144 : 		this->_Alptr.destroy(&_Left(_Myhead));
; 1145 : 		this->_Alptr.destroy(&_Parent(_Myhead));
; 1146 : 		this->_Alptr.destroy(&_Right(_Myhead));
; 1147 : 		this->_Alnod.deallocate(_Myhead, 1);

  00017	8b 4e 04	 mov	 ecx, DWORD PTR [esi+4]
  0001a	51		 push	 ecx
  0001b	e8 00 00 00 00	 call	 ??3@YAXPAX@Z		; operator delete
  00020	83 c4 04	 add	 esp, 4

; 1148 : 		_Myhead = 0, _Mysize = 0;

  00023	33 c0		 xor	 eax, eax
  00025	89 46 04	 mov	 DWORD PTR [esi+4], eax
  00028	89 46 08	 mov	 DWORD PTR [esi+8], eax
  0002b	5e		 pop	 esi

; 1149 : 		}

  0002c	59		 pop	 ecx
  0002d	c3		 ret	 0
?_Tidy@?$_Tree@V?$_Tmap_traits@HPAV?$list@PAVCEventItem@@V?$allocator@PAVCEventItem@@@std@@@std@@U?$less@H@2@V?$allocator@U?$pair@$$CBHPAV?$list@PAVCEventItem@@V?$allocator@PAVCEventItem@@@std@@@std@@@std@@@2@$0A@@std@@@std@@IAEXXZ ENDP ; std::_Tree<std::_Tmap_traits<int,std::list<CEventItem *,std::allocator<CEventItem *> > *,std::less<int>,std::allocator<std::pair<int const ,std::list<CEventItem *,std::allocator<CEventItem *> > *> >,0> >::_Tidy
_TEXT	ENDS
PUBLIC	?AddItem@CEventGeneric@@QAEHHKHH@Z		; CEventGeneric::AddItem
;	COMDAT xdata$x
; File c:\program files\microsoft visual studio .net 2003\vc7\include\list
xdata$x	SEGMENT
$T197796 DD	0ffffffffH
	DD	FLAT:$L197584
$T197794 DD	019930520H
	DD	01H
	DD	FLAT:$T197796
	DD	2 DUP(00H)
	DD	2 DUP(00H)
; Function compile flags: /Ogty
; File c:\documents and settings\test\mes documents\source\virtuos_v17\build\program\_common\spevent.cpp
xdata$x	ENDS
;	COMDAT ?AddItem@CEventGeneric@@QAEHHKHH@Z
_TEXT	SEGMENT
$T197578 = -28						; size = 8
$T197575 = -28						; size = 4
_i$ = -28						; size = 4
$T197579 = -20						; size = 8
__$EHRec$ = -12						; size = 12
_pEventItem$ = 8					; size = 4
_nEvent$ = 8						; size = 4
_dwItemId$ = 12						; size = 4
_nMax$ = 16						; size = 4
_nNum$ = 20						; size = 4
?AddItem@CEventGeneric@@QAEHHKHH@Z PROC NEAR		; CEventGeneric::AddItem, COMDAT
; _this$ = ecx

; 333  : {

  00000	64 a1 00 00 00
	00		 mov	 eax, DWORD PTR fs:__except_list
  00006	6a ff		 push	 -1
  00008	68 00 00 00 00	 push	 __ehhandler$?AddItem@CEventGeneric@@QAEHHKHH@Z
  0000d	50		 push	 eax
  0000e	64 89 25 00 00
	00 00		 mov	 DWORD PTR fs:__except_list, esp
  00015	83 ec 10	 sub	 esp, 16			; 00000010H
  00018	55		 push	 ebp
  00019	56		 push	 esi
  0001a	57		 push	 edi
  0001b	8b f1		 mov	 esi, ecx

; 334  : 	list<CEventItem*>*	pList	= NULL;
; 335  : 	map<int, list<CEventItem*>*>::iterator i	= m_mapEventItemList.find( nEvent );

  0001d	8d 44 24 2c	 lea	 eax, DWORD PTR _nEvent$[esp+36]
  00021	50		 push	 eax
  00022	8d 4c 24 10	 lea	 ecx, DWORD PTR _i$[esp+44]
  00026	8d 7e 14	 lea	 edi, DWORD PTR [esi+20]
  00029	51		 push	 ecx
  0002a	8b cf		 mov	 ecx, edi
  0002c	e8 00 00 00 00	 call	 ?find@?$_Tree@V?$_Tmap_traits@HPAV?$list@PAVCEventItem@@V?$allocator@PAVCEventItem@@@std@@@std@@U?$less@H@2@V?$allocator@U?$pair@$$CBHPAV?$list@PAVCEventItem@@V?$allocator@PAVCEventItem@@@std@@@std@@@std@@@2@$0A@@std@@@std@@QAE?AViterator@12@ABH@Z ; std::_Tree<std::_Tmap_traits<int,std::list<CEventItem *,std::allocator<CEventItem *> > *,std::less<int>,std::allocator<std::pair<int const ,std::list<CEventItem *,std::allocator<CEventItem *> > *> >,0> >::find

; 336  : 	if( i == m_mapEventItemList.end() )

  00031	8b 76 18	 mov	 esi, DWORD PTR [esi+24]
  00034	8b 44 24 0c	 mov	 eax, DWORD PTR _i$[esp+40]
  00038	3b c6		 cmp	 eax, esi
  0003a	75 75		 jne	 SHORT $L188712

; 337  : 	{
; 338  : 		pList	= new list<CEventItem*>;

  0003c	6a 0c		 push	 12			; 0000000cH
  0003e	e8 00 00 00 00	 call	 ??2@YAPAXI@Z		; operator new
  00043	8b f0		 mov	 esi, eax
  00045	83 c4 04	 add	 esp, 4
  00048	89 74 24 0c	 mov	 DWORD PTR $T197575[esp+40], esi
  0004c	85 f6		 test	 esi, esi
  0004e	c7 44 24 24 00
	00 00 00	 mov	 DWORD PTR __$EHRec$[esp+48], 0
  00056	74 13		 je	 SHORT $L197576
  00058	8b ce		 mov	 ecx, esi
  0005a	e8 00 00 00 00	 call	 ?_Buynode@?$list@PAVCEventItem@@V?$allocator@PAVCEventItem@@@std@@@std@@IAEPAU_Node@?$_List_nod@PAVCEventItem@@V?$allocator@PAVCEventItem@@@std@@@2@XZ ; std::list<CEventItem *,std::allocator<CEventItem *> >::_Buynode
  0005f	89 46 04	 mov	 DWORD PTR [esi+4], eax
  00062	c7 46 08 00 00
	00 00		 mov	 DWORD PTR [esi+8], 0
  00069	eb 02		 jmp	 SHORT $L197577
$L197576:
  0006b	33 f6		 xor	 esi, esi
$L197577:

; 339  : 		bool bResult	= m_mapEventItemList.insert( map<int, list<CEventItem*>*>::value_type( nEvent, pList ) ).second;

  0006d	8b 54 24 2c	 mov	 edx, DWORD PTR _nEvent$[esp+36]
  00071	8d 44 24 0c	 lea	 eax, DWORD PTR $T197578[esp+40]
  00075	50		 push	 eax
  00076	8d 4c 24 18	 lea	 ecx, DWORD PTR $T197579[esp+44]
  0007a	51		 push	 ecx
  0007b	8b cf		 mov	 ecx, edi
  0007d	c7 44 24 2c ff
	ff ff ff	 mov	 DWORD PTR __$EHRec$[esp+56], -1
  00085	8b ee		 mov	 ebp, esi
  00087	89 54 24 14	 mov	 DWORD PTR $T197578[esp+48], edx
  0008b	89 74 24 18	 mov	 DWORD PTR $T197578[esp+52], esi
  0008f	e8 00 00 00 00	 call	 ?insert@?$_Tree@V?$_Tmap_traits@HPAV?$list@PAVCEventItem@@V?$allocator@PAVCEventItem@@@std@@@std@@U?$less@H@2@V?$allocator@U?$pair@$$CBHPAV?$list@PAVCEventItem@@V?$allocator@PAVCEventItem@@@std@@@std@@@std@@@2@$0A@@std@@@std@@QAE?AU?$pair@Viterator@?$_Tree@V?$_Tmap_traits@HPAV?$list@PAVCEventItem@@V?$allocator@PAVCEventItem@@@std@@@std@@U?$less@H@2@V?$allocator@U?$pair@$$CBHPAV?$list@PAVCEventItem@@V?$allocator@PAVCEventItem@@@std@@@std@@@std@@@2@$0A@@std@@@std@@_N@2@ABU?$pair@$$CBHPAV?$list@PAVCEventItem@@V?$allocator@PAVCEventItem@@@std@@@std@@@2@@Z ; std::_Tree<std::_Tmap_traits<int,std::list<CEventItem *,std::allocator<CEventItem *> > *,std::less<int>,std::allocator<std::pair<int const ,std::list<CEventItem *,std::allocator<CEventItem *> > *> >,0> >::insert

; 340  : 		if( !bResult )	// ?

  00094	8a 48 04	 mov	 cl, BYTE PTR [eax+4]
  00097	84 c9		 test	 cl, cl
  00099	75 19		 jne	 SHORT $L188750
  0009b	5f		 pop	 edi
  0009c	5e		 pop	 esi

; 341  : 			return FALSE;

  0009d	33 c0		 xor	 eax, eax
  0009f	5d		 pop	 ebp

; 349  : 	return TRUE;
; 350  : }

  000a0	8b 4c 24 10	 mov	 ecx, DWORD PTR __$EHRec$[esp+28]
  000a4	64 89 0d 00 00
	00 00		 mov	 DWORD PTR fs:__except_list, ecx
  000ab	83 c4 1c	 add	 esp, 28			; 0000001cH
  000ae	c2 10 00	 ret	 16			; 00000010H
$L188712:

; 342  : 	}
; 343  : 	else
; 344  : 	{
; 345  : 		pList	= i->second;

  000b1	8b 68 10	 mov	 ebp, DWORD PTR [eax+16]
$L188750:

; 346  : 	}
; 347  : 	CEventItem* pEventItem	= new CEventItem( dwItemId, nMax, nNum );

  000b4	6a 78		 push	 120			; 00000078H
  000b6	e8 00 00 00 00	 call	 ??2@YAPAXI@Z		; operator new
  000bb	83 c4 04	 add	 esp, 4
  000be	85 c0		 test	 eax, eax
  000c0	74 18		 je	 SHORT $L197582
  000c2	8b 54 24 38	 mov	 edx, DWORD PTR _nNum$[esp+36]
  000c6	8b 4c 24 34	 mov	 ecx, DWORD PTR _nMax$[esp+36]
  000ca	52		 push	 edx
  000cb	8b 54 24 34	 mov	 edx, DWORD PTR _dwItemId$[esp+40]
  000cf	51		 push	 ecx
  000d0	52		 push	 edx
  000d1	8b c8		 mov	 ecx, eax
  000d3	e8 00 00 00 00	 call	 ??0CEventItem@@QAE@KHH@Z ; CEventItem::CEventItem
  000d8	eb 02		 jmp	 SHORT $L197583
$L197582:
  000da	33 c0		 xor	 eax, eax
$L197583:

; 348  : 	pList->push_back( pEventItem );

  000dc	8b 75 04	 mov	 esi, DWORD PTR [ebp+4]
  000df	8b 4e 04	 mov	 ecx, DWORD PTR [esi+4]
  000e2	89 44 24 2c	 mov	 DWORD PTR _pEventItem$[esp+36], eax
  000e6	8d 44 24 2c	 lea	 eax, DWORD PTR _pEventItem$[esp+36]
  000ea	50		 push	 eax
  000eb	51		 push	 ecx
  000ec	56		 push	 esi
  000ed	8b cd		 mov	 ecx, ebp
  000ef	e8 00 00 00 00	 call	 ?_Buynode@?$list@PAVCEventItem@@V?$allocator@PAVCEventItem@@@std@@@std@@IAEPAU_Node@?$_List_nod@PAVCEventItem@@V?$allocator@PAVCEventItem@@@std@@@2@PAU342@0ABQAVCEventItem@@@Z ; std::list<CEventItem *,std::allocator<CEventItem *> >::_Buynode
  000f4	6a 01		 push	 1
  000f6	8b cd		 mov	 ecx, ebp
  000f8	8b f8		 mov	 edi, eax
  000fa	e8 00 00 00 00	 call	 ?_Incsize@?$list@PAVCEventItem@@V?$allocator@PAVCEventItem@@@std@@@std@@IAEXI@Z ; std::list<CEventItem *,std::allocator<CEventItem *> >::_Incsize

; 349  : 	return TRUE;
; 350  : }

  000ff	8b 4c 24 1c	 mov	 ecx, DWORD PTR __$EHRec$[esp+40]
  00103	89 7e 04	 mov	 DWORD PTR [esi+4], edi
  00106	8b 57 04	 mov	 edx, DWORD PTR [edi+4]
  00109	89 3a		 mov	 DWORD PTR [edx], edi
  0010b	5f		 pop	 edi
  0010c	5e		 pop	 esi
  0010d	b8 01 00 00 00	 mov	 eax, 1
  00112	5d		 pop	 ebp
  00113	64 89 0d 00 00
	00 00		 mov	 DWORD PTR fs:__except_list, ecx
  0011a	83 c4 1c	 add	 esp, 28			; 0000001cH
  0011d	c2 10 00	 ret	 16			; 00000010H
_TEXT	ENDS
;	COMDAT text$x
text$x	SEGMENT
$L197584:
  00000	8b 45 e4	 mov	 eax, DWORD PTR $T197575[ebp]
  00003	50		 push	 eax
  00004	e8 00 00 00 00	 call	 ??3@YAXPAX@Z		; operator delete
  00009	59		 pop	 ecx
  0000a	c3		 ret	 0
__ehhandler$?AddItem@CEventGeneric@@QAEHHKHH@Z:
  0000b	b8 00 00 00 00	 mov	 eax, OFFSET FLAT:$T197794
  00010	e9 00 00 00 00	 jmp	 ___CxxFrameHandler
text$x	ENDS
?AddItem@CEventGeneric@@QAEHHKHH@Z ENDP			; CEventGeneric::AddItem
PUBLIC	?Serialize@CEventGeneric@@QAEXAAVCAr@@@Z	; CEventGeneric::Serialize
;	COMDAT xdata$x
; File c:\program files\microsoft visual studio .net 2003\vc7\include\list
xdata$x	SEGMENT
$T198583 DD	0ffffffffH
	DD	FLAT:$L197819
$T198565 DD	019930520H
	DD	01H
	DD	FLAT:$T198583
	DD	2 DUP(00H)
	DD	2 DUP(00H)
; Function compile flags: /Ogty
; File c:\documents and settings\test\mes documents\source\virtuos_v17\build\program\_common\spevent.cpp
xdata$x	ENDS
;	COMDAT ?Serialize@CEventGeneric@@QAEXAAVCAr@@@Z
_TEXT	SEGMENT
tv386 = -40						; size = 4
_this$ = -40						; size = 4
tv734 = -36						; size = 4
_pEvent$188813 = -36					; size = 4
_pEventItem$188847 = -32				; size = 4
$T197812 = -28						; size = 8
$T197813 = -20						; size = 8
__$EHRec$ = -12						; size = 12
tv517 = 8						; size = 4
tv214 = 8						; size = 4
$T197809 = 8						; size = 4
_ar$ = 8						; size = 4
?Serialize@CEventGeneric@@QAEXAAVCAr@@@Z PROC NEAR	; CEventGeneric::Serialize, COMDAT
; _this$ = ecx

; 410  : {

  00000	6a ff		 push	 -1
  00002	68 00 00 00 00	 push	 __ehhandler$?Serialize@CEventGeneric@@QAEXAAVCAr@@@Z
  00007	64 a1 00 00 00
	00		 mov	 eax, DWORD PTR fs:__except_list
  0000d	50		 push	 eax
  0000e	64 89 25 00 00
	00 00		 mov	 DWORD PTR fs:__except_list, esp
  00015	83 ec 1c	 sub	 esp, 28			; 0000001cH
  00018	53		 push	 ebx
  00019	55		 push	 ebp
  0001a	56		 push	 esi

; 411  : 	if( ar.IsStoring() )

  0001b	8b 74 24 38	 mov	 esi, DWORD PTR _ar$[esp+48]
  0001f	33 c0		 xor	 eax, eax
  00021	8a 06		 mov	 al, BYTE PTR [esi]
  00023	8b e9		 mov	 ebp, ecx
  00025	57		 push	 edi
  00026	89 6c 24 10	 mov	 DWORD PTR _this$[esp+56], ebp
  0002a	f7 d0		 not	 eax
  0002c	a8 01		 test	 al, 1
  0002e	0f 84 09 01 00
	00		 je	 $L188770

; 412  : 	{
; 413  : 		ar << (int)m_lspEvent.size();

  00034	8b 7d 10	 mov	 edi, DWORD PTR [ebp+16]
  00037	bb 04 00 00 00	 mov	 ebx, 4
  0003c	53		 push	 ebx
  0003d	8b ce		 mov	 ecx, esi
  0003f	e8 00 00 00 00	 call	 ?CheckBuf@CAr@@QAEXI@Z	; CAr::CheckBuf
  00044	8b 4e 08	 mov	 ecx, DWORD PTR [esi+8]
  00047	89 39		 mov	 DWORD PTR [ecx], edi
  00049	01 5e 08	 add	 DWORD PTR [esi+8], ebx

; 414  : 		for( list<EVENT_GENERIC*>::iterator i = m_lspEvent.begin(); i != m_lspEvent.end(); ++i )

  0004c	8b 45 0c	 mov	 eax, DWORD PTR [ebp+12]
  0004f	8b 38		 mov	 edi, DWORD PTR [eax]
  00051	3b f8		 cmp	 edi, eax
  00053	74 14		 je	 SHORT $L188778
$L197872:

; 415  : 		{
; 416  : 			PEVENT_GENERIC pEvent	= *i;
; 417  : 			ar.Write( (const void*)pEvent, sizeof(EVENT_GENERIC) );

  00055	8b 57 08	 mov	 edx, DWORD PTR [edi+8]
  00058	6a 7c		 push	 124			; 0000007cH
  0005a	52		 push	 edx
  0005b	8b ce		 mov	 ecx, esi
  0005d	e8 00 00 00 00	 call	 ?Write@CAr@@QAEXPBXI@Z	; CAr::Write
  00062	8b 3f		 mov	 edi, DWORD PTR [edi]
  00064	3b 7d 0c	 cmp	 edi, DWORD PTR [ebp+12]
  00067	75 ec		 jne	 SHORT $L197872
$L188778:

; 418  : 		}
; 419  : 		ar << (int)m_mapEventItemList.size();

  00069	8b 7d 1c	 mov	 edi, DWORD PTR [ebp+28]
  0006c	53		 push	 ebx
  0006d	8b ce		 mov	 ecx, esi
  0006f	e8 00 00 00 00	 call	 ?CheckBuf@CAr@@QAEXI@Z	; CAr::CheckBuf
  00074	8b 46 08	 mov	 eax, DWORD PTR [esi+8]
  00077	89 38		 mov	 DWORD PTR [eax], edi
  00079	01 5e 08	 add	 DWORD PTR [esi+8], ebx

; 420  : 		for( map<int, list<CEventItem*>*>::iterator i2 = m_mapEventItemList.begin(); i2 != m_mapEventItemList.end(); ++i2 )

  0007c	8b 6d 18	 mov	 ebp, DWORD PTR [ebp+24]
  0007f	8b 7d 00	 mov	 edi, DWORD PTR [ebp]
  00082	3b fd		 cmp	 edi, ebp
  00084	0f 84 95 02 00
	00		 je	 $L188823
  0008a	eb 05		 jmp	 SHORT $L198102
$L198580:
  0008c	bb 04 00 00 00	 mov	 ebx, 4
$L198102:

; 421  : 		{
; 422  : 			ar << (int)i2->first;

  00091	8b 6f 0c	 mov	 ebp, DWORD PTR [edi+12]
  00094	53		 push	 ebx
  00095	8b ce		 mov	 ecx, esi
  00097	e8 00 00 00 00	 call	 ?CheckBuf@CAr@@QAEXI@Z	; CAr::CheckBuf
  0009c	8b 4e 08	 mov	 ecx, DWORD PTR [esi+8]
  0009f	89 29		 mov	 DWORD PTR [ecx], ebp
  000a1	01 5e 08	 add	 DWORD PTR [esi+8], ebx

; 423  : 			list<CEventItem*>* pList	= i2->second;

  000a4	8b 6f 10	 mov	 ebp, DWORD PTR [edi+16]

; 424  : 			ar << (int)pList->size();

  000a7	8b 5d 08	 mov	 ebx, DWORD PTR [ebp+8]
  000aa	6a 04		 push	 4
  000ac	8b ce		 mov	 ecx, esi
  000ae	e8 00 00 00 00	 call	 ?CheckBuf@CAr@@QAEXI@Z	; CAr::CheckBuf
  000b3	8b 56 08	 mov	 edx, DWORD PTR [esi+8]
  000b6	89 1a		 mov	 DWORD PTR [edx], ebx
  000b8	83 46 08 04	 add	 DWORD PTR [esi+8], 4

; 425  : 			for( list<CEventItem*>::iterator i3 = pList->begin(); i3 != pList->end(); ++i3 )

  000bc	8b 45 04	 mov	 eax, DWORD PTR [ebp+4]
  000bf	8b 18		 mov	 ebx, DWORD PTR [eax]
  000c1	3b d8		 cmp	 ebx, eax
  000c3	74 10		 je	 SHORT $L188793
$L198232:

; 426  : 			{
; 427  : 				CEventItem* pEventItem	= *i3;
; 428  : 				pEventItem->Serialize( ar );

  000c5	8b 4b 08	 mov	 ecx, DWORD PTR [ebx+8]
  000c8	56		 push	 esi
  000c9	e8 00 00 00 00	 call	 ?Serialize@CEventItem@@QAEXAAVCAr@@@Z ; CEventItem::Serialize
  000ce	8b 1b		 mov	 ebx, DWORD PTR [ebx]
  000d0	3b 5d 04	 cmp	 ebx, DWORD PTR [ebp+4]
  000d3	75 f0		 jne	 SHORT $L198232
$L188793:

; 420  : 		for( map<int, list<CEventItem*>*>::iterator i2 = m_mapEventItemList.begin(); i2 != m_mapEventItemList.end(); ++i2 )

  000d5	8a 47 15	 mov	 al, BYTE PTR [edi+21]
  000d8	84 c0		 test	 al, al
  000da	75 3f		 jne	 SHORT $L198097
  000dc	8b 47 08	 mov	 eax, DWORD PTR [edi+8]
  000df	8a 48 15	 mov	 cl, BYTE PTR [eax+21]
  000e2	84 c9		 test	 cl, cl
  000e4	75 18		 jne	 SHORT $L198570
  000e6	8b f8		 mov	 edi, eax
  000e8	8b 07		 mov	 eax, DWORD PTR [edi]
  000ea	8a 48 15	 mov	 cl, BYTE PTR [eax+21]
  000ed	84 c9		 test	 cl, cl
  000ef	75 2a		 jne	 SHORT $L198097
$L198078:
  000f1	8b f8		 mov	 edi, eax
  000f3	8b 07		 mov	 eax, DWORD PTR [edi]
  000f5	8a 48 15	 mov	 cl, BYTE PTR [eax+21]
  000f8	84 c9		 test	 cl, cl
  000fa	74 f5		 je	 SHORT $L198078
  000fc	eb 1d		 jmp	 SHORT $L198097
$L198570:
  000fe	8b 47 04	 mov	 eax, DWORD PTR [edi+4]
  00101	8a 48 15	 mov	 cl, BYTE PTR [eax+21]
  00104	84 c9		 test	 cl, cl
  00106	75 11		 jne	 SHORT $L198100
$L198099:
  00108	3b 78 08	 cmp	 edi, DWORD PTR [eax+8]
  0010b	75 0c		 jne	 SHORT $L198100
  0010d	8b f8		 mov	 edi, eax
  0010f	8b 40 04	 mov	 eax, DWORD PTR [eax+4]
  00112	8a 48 15	 mov	 cl, BYTE PTR [eax+21]
  00115	84 c9		 test	 cl, cl
  00117	74 ef		 je	 SHORT $L198099
$L198100:
  00119	8b f8		 mov	 edi, eax
$L198097:
  0011b	8b 44 24 10	 mov	 eax, DWORD PTR _this$[esp+56]
  0011f	3b 78 18	 cmp	 edi, DWORD PTR [eax+24]
  00122	0f 85 64 ff ff
	ff		 jne	 $L198580
  00128	5f		 pop	 edi
  00129	5e		 pop	 esi
  0012a	5d		 pop	 ebp
  0012b	5b		 pop	 ebx

; 462  : 			}
; 463  : 		}
; 464  : 	}
; 465  : }

  0012c	8b 4c 24 1c	 mov	 ecx, DWORD PTR __$EHRec$[esp+40]
  00130	64 89 0d 00 00
	00 00		 mov	 DWORD PTR fs:__except_list, ecx
  00137	83 c4 28	 add	 esp, 40			; 00000028H
  0013a	c2 04 00	 ret	 4
$L188770:

; 429  : 			}
; 430  : 		}
; 431  : 	}
; 432  : 	else
; 433  : 	{
; 434  : 		Clear( FALSE );

  0013d	33 ff		 xor	 edi, edi
  0013f	57		 push	 edi
  00140	8b cd		 mov	 ecx, ebp
  00142	e8 00 00 00 00	 call	 ?Clear@CEventGeneric@@QAEXH@Z ; CEventGeneric::Clear

; 435  : 		int nEventSize;
; 436  : 		ar >> nEventSize;

  00147	8b 46 08	 mov	 eax, DWORD PTR [esi+8]
  0014a	8b 56 0c	 mov	 edx, DWORD PTR [esi+12]
  0014d	8d 48 04	 lea	 ecx, DWORD PTR [eax+4]
  00150	3b ca		 cmp	 ecx, edx
  00152	77 07		 ja	 SHORT $L198281
  00154	8b 00		 mov	 eax, DWORD PTR [eax]
  00156	89 4e 08	 mov	 DWORD PTR [esi+8], ecx
  00159	eb 05		 jmp	 SHORT $L198282
$L198281:
  0015b	33 c0		 xor	 eax, eax
  0015d	89 56 08	 mov	 DWORD PTR [esi+8], edx
$L198282:

; 437  : 		for( int i = 0; i < nEventSize; i++ )

  00160	3b c7		 cmp	 eax, edi
  00162	0f 8e 78 00 00
	00		 jle	 $L188812
  00168	83 c5 08	 add	 ebp, 8
  0016b	89 44 24 3c	 mov	 DWORD PTR tv214[esp+52], eax
  0016f	eb 02		 jmp	 SHORT $L188810
$L198581:
  00171	33 ff		 xor	 edi, edi
$L188810:

; 438  : 		{
; 439  : 			PEVENT_GENERIC pEvent	= new EVENT_GENERIC;

  00173	6a 7c		 push	 124			; 0000007cH
  00175	e8 00 00 00 00	 call	 ??2@YAPAXI@Z		; operator new
  0017a	83 c4 04	 add	 esp, 4
  0017d	3b c7		 cmp	 eax, edi
  0017f	74 1c		 je	 SHORT $L197806
  00181	b9 00 00 80 3f	 mov	 ecx, 1065353216		; 3f800000H
  00186	89 38		 mov	 DWORD PTR [eax], edi
  00188	89 78 04	 mov	 DWORD PTR [eax+4], edi
  0018b	89 78 08	 mov	 DWORD PTR [eax+8], edi
  0018e	89 78 0c	 mov	 DWORD PTR [eax+12], edi
  00191	c6 40 18 00	 mov	 BYTE PTR [eax+24], 0
  00195	89 48 10	 mov	 DWORD PTR [eax+16], ecx
  00198	89 48 14	 mov	 DWORD PTR [eax+20], ecx
  0019b	eb 02		 jmp	 SHORT $L197807
$L197806:
  0019d	33 c0		 xor	 eax, eax
$L197807:

; 440  : 			ar.Read( (void*)pEvent, sizeof(EVENT_GENERIC) );

  0019f	6a 7c		 push	 124			; 0000007cH
  001a1	50		 push	 eax
  001a2	8b ce		 mov	 ecx, esi
  001a4	89 44 24 1c	 mov	 DWORD PTR _pEvent$188813[esp+64], eax
  001a8	e8 00 00 00 00	 call	 ?Read@CAr@@QAEXPAXI@Z	; CAr::Read

; 441  : 			m_lspEvent.push_back( pEvent );

  001ad	8b 7d 04	 mov	 edi, DWORD PTR [ebp+4]
  001b0	8b 57 04	 mov	 edx, DWORD PTR [edi+4]
  001b3	8d 4c 24 14	 lea	 ecx, DWORD PTR _pEvent$188813[esp+56]
  001b7	51		 push	 ecx
  001b8	52		 push	 edx
  001b9	57		 push	 edi
  001ba	8b cd		 mov	 ecx, ebp
  001bc	e8 00 00 00 00	 call	 ?_Buynode@?$list@PAU_EVENT_GENERIC@@V?$allocator@PAU_EVENT_GENERIC@@@std@@@std@@IAEPAU_Node@?$_List_nod@PAU_EVENT_GENERIC@@V?$allocator@PAU_EVENT_GENERIC@@@std@@@2@PAU342@0ABQAU_EVENT_GENERIC@@@Z ; std::list<_EVENT_GENERIC *,std::allocator<_EVENT_GENERIC *> >::_Buynode
  001c1	6a 01		 push	 1
  001c3	8b cd		 mov	 ecx, ebp
  001c5	8b d8		 mov	 ebx, eax
  001c7	e8 00 00 00 00	 call	 ?_Incsize@?$list@PAU_EVENT_GENERIC@@V?$allocator@PAU_EVENT_GENERIC@@@std@@@std@@IAEXI@Z ; std::list<_EVENT_GENERIC *,std::allocator<_EVENT_GENERIC *> >::_Incsize
  001cc	89 5f 04	 mov	 DWORD PTR [edi+4], ebx
  001cf	8b 43 04	 mov	 eax, DWORD PTR [ebx+4]
  001d2	89 18		 mov	 DWORD PTR [eax], ebx
  001d4	ff 4c 24 3c	 dec	 DWORD PTR tv214[esp+52]
  001d8	75 97		 jne	 SHORT $L198581
  001da	8b 6c 24 10	 mov	 ebp, DWORD PTR _this$[esp+56]
  001de	33 ff		 xor	 edi, edi
$L188812:

; 442  : 		}
; 443  : 		int nEventItemListSize;
; 444  : 		ar >> nEventItemListSize;

  001e0	8b 46 08	 mov	 eax, DWORD PTR [esi+8]
  001e3	8b 56 0c	 mov	 edx, DWORD PTR [esi+12]
  001e6	8d 48 04	 lea	 ecx, DWORD PTR [eax+4]
  001e9	3b ca		 cmp	 ecx, edx
  001eb	77 07		 ja	 SHORT $L198370
  001ed	8b 00		 mov	 eax, DWORD PTR [eax]
  001ef	89 4e 08	 mov	 DWORD PTR [esi+8], ecx
  001f2	eb 05		 jmp	 SHORT $L198371
$L198370:
  001f4	33 c0		 xor	 eax, eax
  001f6	89 56 08	 mov	 DWORD PTR [esi+8], edx
$L198371:

; 445  : 		for( i = 0; i < nEventItemListSize; i++ )

  001f9	3b c7		 cmp	 eax, edi
  001fb	0f 8e 1e 01 00
	00		 jle	 $L188823
  00201	83 c5 14	 add	 ebp, 20			; 00000014H
  00204	89 6c 24 14	 mov	 DWORD PTR tv734[esp+56], ebp
  00208	89 44 24 10	 mov	 DWORD PTR tv386[esp+56], eax
  0020c	8d 64 24 00	 npad	 4
$L188821:

; 446  : 		{
; 447  : 			int nEvent;
; 448  : 			ar >> nEvent;

  00210	8b 46 08	 mov	 eax, DWORD PTR [esi+8]
  00213	8b 56 0c	 mov	 edx, DWORD PTR [esi+12]
  00216	8d 48 04	 lea	 ecx, DWORD PTR [eax+4]
  00219	3b ca		 cmp	 ecx, edx
  0021b	77 07		 ja	 SHORT $L198382
  0021d	8b 28		 mov	 ebp, DWORD PTR [eax]
  0021f	89 4e 08	 mov	 DWORD PTR [esi+8], ecx
  00222	eb 05		 jmp	 SHORT $L198383
$L198382:
  00224	33 ed		 xor	 ebp, ebp
  00226	89 56 08	 mov	 DWORD PTR [esi+8], edx
$L198383:

; 449  : 			list<CEventItem*>* pList	= new list<CEventItem*>;

  00229	6a 0c		 push	 12			; 0000000cH
  0022b	e8 00 00 00 00	 call	 ??2@YAPAXI@Z		; operator new
  00230	8b d8		 mov	 ebx, eax
  00232	83 c4 04	 add	 esp, 4
  00235	89 5c 24 3c	 mov	 DWORD PTR $T197809[esp+52], ebx
  00239	3b df		 cmp	 ebx, edi
  0023b	89 7c 24 34	 mov	 DWORD PTR __$EHRec$[esp+64], edi
  0023f	74 0f		 je	 SHORT $L197810
  00241	8b cb		 mov	 ecx, ebx
  00243	e8 00 00 00 00	 call	 ?_Buynode@?$list@PAVCEventItem@@V?$allocator@PAVCEventItem@@@std@@@std@@IAEPAU_Node@?$_List_nod@PAVCEventItem@@V?$allocator@PAVCEventItem@@@std@@@2@XZ ; std::list<CEventItem *,std::allocator<CEventItem *> >::_Buynode
  00248	89 43 04	 mov	 DWORD PTR [ebx+4], eax
  0024b	89 7b 08	 mov	 DWORD PTR [ebx+8], edi
  0024e	eb 02		 jmp	 SHORT $L197811
$L197810:
  00250	33 db		 xor	 ebx, ebx
$L197811:

; 450  : 			bool bResult	= m_mapEventItemList.insert( map<int, list<CEventItem*>*>::value_type( nEvent, pList ) ).second;

  00252	8d 44 24 1c	 lea	 eax, DWORD PTR $T197812[esp+56]
  00256	50		 push	 eax
  00257	8d 4c 24 28	 lea	 ecx, DWORD PTR $T197813[esp+60]
  0025b	51		 push	 ecx
  0025c	8b 4c 24 1c	 mov	 ecx, DWORD PTR tv734[esp+64]
  00260	c7 44 24 3c ff
	ff ff ff	 mov	 DWORD PTR __$EHRec$[esp+72], -1
  00268	89 6c 24 24	 mov	 DWORD PTR $T197812[esp+64], ebp
  0026c	89 5c 24 28	 mov	 DWORD PTR $T197812[esp+68], ebx
  00270	e8 00 00 00 00	 call	 ?insert@?$_Tree@V?$_Tmap_traits@HPAV?$list@PAVCEventItem@@V?$allocator@PAVCEventItem@@@std@@@std@@U?$less@H@2@V?$allocator@U?$pair@$$CBHPAV?$list@PAVCEventItem@@V?$allocator@PAVCEventItem@@@std@@@std@@@std@@@2@$0A@@std@@@std@@QAE?AU?$pair@Viterator@?$_Tree@V?$_Tmap_traits@HPAV?$list@PAVCEventItem@@V?$allocator@PAVCEventItem@@@std@@@std@@U?$less@H@2@V?$allocator@U?$pair@$$CBHPAV?$list@PAVCEventItem@@V?$allocator@PAVCEventItem@@@std@@@std@@@std@@@2@$0A@@std@@@std@@_N@2@ABU?$pair@$$CBHPAV?$list@PAVCEventItem@@V?$allocator@PAVCEventItem@@@std@@@std@@@2@@Z ; std::_Tree<std::_Tmap_traits<int,std::list<CEventItem *,std::allocator<CEventItem *> > *,std::less<int>,std::allocator<std::pair<int const ,std::list<CEventItem *,std::allocator<CEventItem *> > *> >,0> >::insert

; 451  : 			if( !bResult )
; 452  : 			{
; 453  : 				//
; 454  : 			}
; 455  : 			int nEventItemSize;
; 456  : 			ar >> nEventItemSize;

  00275	8b 46 08	 mov	 eax, DWORD PTR [esi+8]
  00278	8b 56 0c	 mov	 edx, DWORD PTR [esi+12]
  0027b	8d 48 04	 lea	 ecx, DWORD PTR [eax+4]
  0027e	3b ca		 cmp	 ecx, edx
  00280	77 13		 ja	 SHORT $L198484
  00282	8b 00		 mov	 eax, DWORD PTR [eax]

; 457  : 			for( int j = 0; j < nEventItemSize; j++ )

  00284	3b c7		 cmp	 eax, edi
  00286	89 4e 08	 mov	 DWORD PTR [esi+8], ecx
  00289	0f 8e 86 00 00
	00		 jle	 $L188822
  0028f	89 44 24 3c	 mov	 DWORD PTR tv517[esp+52], eax
  00293	eb 0b		 jmp	 SHORT $L188844

; 451  : 			if( !bResult )
; 452  : 			{
; 453  : 				//
; 454  : 			}
; 455  : 			int nEventItemSize;
; 456  : 			ar >> nEventItemSize;

$L198484:
  00295	89 56 08	 mov	 DWORD PTR [esi+8], edx

; 457  : 			for( int j = 0; j < nEventItemSize; j++ )

  00298	e9 78 00 00 00	 jmp	 $L188822
$L198579:
  0029d	33 ff		 xor	 edi, edi
  0029f	90		 npad	 1
$L188844:

; 458  : 			{
; 459  : 				CEventItem* pEventItem	= new CEventItem;

  002a0	6a 78		 push	 120			; 00000078H
  002a2	e8 00 00 00 00	 call	 ??2@YAPAXI@Z		; operator new
  002a7	8b d0		 mov	 edx, eax
  002a9	83 c4 04	 add	 esp, 4
  002ac	3b d7		 cmp	 edx, edi
  002ae	74 25		 je	 SHORT $L197816
  002b0	89 7a 70	 mov	 DWORD PTR [edx+112], edi
  002b3	89 7a 04	 mov	 DWORD PTR [edx+4], edi
  002b6	89 7a 74	 mov	 DWORD PTR [edx+116], edi
  002b9	89 7a 68	 mov	 DWORD PTR [edx+104], edi
  002bc	89 7a 6c	 mov	 DWORD PTR [edx+108], edi
  002bf	b9 18 00 00 00	 mov	 ecx, 24			; 00000018H
  002c4	33 c0		 xor	 eax, eax
  002c6	8d 7a 08	 lea	 edi, DWORD PTR [edx+8]
  002c9	c7 02 00 00 00
	00		 mov	 DWORD PTR [edx], OFFSET FLAT:??_7CEventItem@@6B@
  002cf	f3 ab		 rep stosd
  002d1	8b ca		 mov	 ecx, edx
  002d3	eb 02		 jmp	 SHORT $L197817
$L197816:
  002d5	33 c9		 xor	 ecx, ecx
$L197817:

; 460  : 				pEventItem->Serialize( ar );

  002d7	56		 push	 esi
  002d8	89 4c 24 1c	 mov	 DWORD PTR _pEventItem$188847[esp+60], ecx
  002dc	e8 00 00 00 00	 call	 ?Serialize@CEventItem@@QAEXAAVCAr@@@Z ; CEventItem::Serialize

; 461  : 				pList->push_back( pEventItem );

  002e1	8b 7b 04	 mov	 edi, DWORD PTR [ebx+4]
  002e4	8b 47 04	 mov	 eax, DWORD PTR [edi+4]
  002e7	8d 54 24 18	 lea	 edx, DWORD PTR _pEventItem$188847[esp+56]
  002eb	52		 push	 edx
  002ec	50		 push	 eax
  002ed	57		 push	 edi
  002ee	8b cb		 mov	 ecx, ebx
  002f0	e8 00 00 00 00	 call	 ?_Buynode@?$list@PAVCEventItem@@V?$allocator@PAVCEventItem@@@std@@@std@@IAEPAU_Node@?$_List_nod@PAVCEventItem@@V?$allocator@PAVCEventItem@@@std@@@2@PAU342@0ABQAVCEventItem@@@Z ; std::list<CEventItem *,std::allocator<CEventItem *> >::_Buynode
  002f5	6a 01		 push	 1
  002f7	8b cb		 mov	 ecx, ebx
  002f9	8b e8		 mov	 ebp, eax
  002fb	e8 00 00 00 00	 call	 ?_Incsize@?$list@PAVCEventItem@@V?$allocator@PAVCEventItem@@@std@@@std@@IAEXI@Z ; std::list<CEventItem *,std::allocator<CEventItem *> >::_Incsize
  00300	8b 44 24 3c	 mov	 eax, DWORD PTR tv517[esp+52]
  00304	89 6f 04	 mov	 DWORD PTR [edi+4], ebp
  00307	8b 4d 04	 mov	 ecx, DWORD PTR [ebp+4]
  0030a	48		 dec	 eax
  0030b	89 29		 mov	 DWORD PTR [ecx], ebp
  0030d	89 44 24 3c	 mov	 DWORD PTR tv517[esp+52], eax
  00311	75 8a		 jne	 SHORT $L198579

; 457  : 			for( int j = 0; j < nEventItemSize; j++ )

  00313	33 ff		 xor	 edi, edi
$L188822:

; 445  : 		for( i = 0; i < nEventItemListSize; i++ )

  00315	ff 4c 24 10	 dec	 DWORD PTR tv386[esp+56]
  00319	0f 85 f1 fe ff
	ff		 jne	 $L188821
$L188823:

; 462  : 			}
; 463  : 		}
; 464  : 	}
; 465  : }

  0031f	8b 4c 24 2c	 mov	 ecx, DWORD PTR __$EHRec$[esp+56]
  00323	5f		 pop	 edi
  00324	5e		 pop	 esi
  00325	5d		 pop	 ebp
  00326	5b		 pop	 ebx
  00327	64 89 0d 00 00
	00 00		 mov	 DWORD PTR fs:__except_list, ecx
  0032e	83 c4 28	 add	 esp, 40			; 00000028H
  00331	c2 04 00	 ret	 4
_TEXT	ENDS
;	COMDAT text$x
text$x	SEGMENT
$L197819:
  00000	8b 45 04	 mov	 eax, DWORD PTR $T197809[ebp-4]
  00003	50		 push	 eax
  00004	e8 00 00 00 00	 call	 ??3@YAXPAX@Z		; operator delete
  00009	59		 pop	 ecx
  0000a	c3		 ret	 0
__ehhandler$?Serialize@CEventGeneric@@QAEXAAVCAr@@@Z:
  0000b	b8 00 00 00 00	 mov	 eax, OFFSET FLAT:$T198565
  00010	e9 00 00 00 00	 jmp	 ___CxxFrameHandler
text$x	ENDS
?Serialize@CEventGeneric@@QAEXAAVCAr@@@Z ENDP		; CEventGeneric::Serialize
PUBLIC	??1?$_Tree@V?$_Tmap_traits@HPAV?$list@PAVCEventItem@@V?$allocator@PAVCEventItem@@@std@@@std@@U?$less@H@2@V?$allocator@U?$pair@$$CBHPAV?$list@PAVCEventItem@@V?$allocator@PAVCEventItem@@@std@@@std@@@std@@@2@$0A@@std@@@std@@QAE@XZ ; std::_Tree<std::_Tmap_traits<int,std::list<CEventItem *,std::allocator<CEventItem *> > *,std::less<int>,std::allocator<std::pair<int const ,std::list<CEventItem *,std::allocator<CEventItem *> > *> >,0> >::~_Tree<std::_Tmap_traits<int,std::list<CEventItem *,std::allocator<CEventItem *> > *,std::less<int>,std::allocator<std::pair<int const ,std::list<CEventItem *,std::allocator<CEventItem *> > *> >,0> >
; Function compile flags: /Ogty
; File c:\program files\microsoft visual studio .net 2003\vc7\include\xtree
;	COMDAT ??1?$_Tree@V?$_Tmap_traits@HPAV?$list@PAVCEventItem@@V?$allocator@PAVCEventItem@@@std@@@std@@U?$less@H@2@V?$allocator@U?$pair@$$CBHPAV?$list@PAVCEventItem@@V?$allocator@PAVCEventItem@@@std@@@std@@@std@@@2@$0A@@std@@@std@@QAE@XZ
_TEXT	SEGMENT
$T198655 = -4						; size = 4
??1?$_Tree@V?$_Tmap_traits@HPAV?$list@PAVCEventItem@@V?$allocator@PAVCEventItem@@@std@@@std@@U?$less@H@2@V?$allocator@U?$pair@$$CBHPAV?$list@PAVCEventItem@@V?$allocator@PAVCEventItem@@@std@@@std@@@std@@@2@$0A@@std@@@std@@QAE@XZ PROC NEAR ; std::_Tree<std::_Tmap_traits<int,std::list<CEventItem *,std::allocator<CEventItem *> > *,std::less<int>,std::allocator<std::pair<int const ,std::list<CEventItem *,std::allocator<CEventItem *> > *> >,0> >::~_Tree<std::_Tmap_traits<int,std::list<CEventItem *,std::allocator<CEventItem *> > *,std::less<int>,std::allocator<std::pair<int const ,std::list<CEventItem *,std::allocator<CEventItem *> > *> >,0> >, COMDAT
; _this$ = ecx

; 391  : 		{	// destroy tree

  00000	51		 push	 ecx
  00001	56		 push	 esi
  00002	8b f1		 mov	 esi, ecx

; 392  : 		_Tidy();

  00004	8b 46 04	 mov	 eax, DWORD PTR [esi+4]
  00007	8b 08		 mov	 ecx, DWORD PTR [eax]
  00009	50		 push	 eax
  0000a	51		 push	 ecx
  0000b	8d 44 24 0c	 lea	 eax, DWORD PTR $T198655[esp+16]
  0000f	50		 push	 eax
  00010	8b ce		 mov	 ecx, esi
  00012	e8 00 00 00 00	 call	 ?erase@?$_Tree@V?$_Tmap_traits@HPAV?$list@PAVCEventItem@@V?$allocator@PAVCEventItem@@@std@@@std@@U?$less@H@2@V?$allocator@U?$pair@$$CBHPAV?$list@PAVCEventItem@@V?$allocator@PAVCEventItem@@@std@@@std@@@std@@@2@$0A@@std@@@std@@QAE?AViterator@12@V312@0@Z ; std::_Tree<std::_Tmap_traits<int,std::list<CEventItem *,std::allocator<CEventItem *> > *,std::less<int>,std::allocator<std::pair<int const ,std::list<CEventItem *,std::allocator<CEventItem *> > *> >,0> >::erase
  00017	8b 4e 04	 mov	 ecx, DWORD PTR [esi+4]
  0001a	51		 push	 ecx
  0001b	e8 00 00 00 00	 call	 ??3@YAXPAX@Z		; operator delete
  00020	83 c4 04	 add	 esp, 4
  00023	33 c0		 xor	 eax, eax
  00025	89 46 04	 mov	 DWORD PTR [esi+4], eax
  00028	89 46 08	 mov	 DWORD PTR [esi+8], eax
  0002b	5e		 pop	 esi

; 393  : 		}

  0002c	59		 pop	 ecx
  0002d	c3		 ret	 0
??1?$_Tree@V?$_Tmap_traits@HPAV?$list@PAVCEventItem@@V?$allocator@PAVCEventItem@@@std@@@std@@U?$less@H@2@V?$allocator@U?$pair@$$CBHPAV?$list@PAVCEventItem@@V?$allocator@PAVCEventItem@@@std@@@std@@@std@@@2@$0A@@std@@@std@@QAE@XZ ENDP ; std::_Tree<std::_Tmap_traits<int,std::list<CEventItem *,std::allocator<CEventItem *> > *,std::less<int>,std::allocator<std::pair<int const ,std::list<CEventItem *,std::allocator<CEventItem *> > *> >,0> >::~_Tree<std::_Tmap_traits<int,std::list<CEventItem *,std::allocator<CEventItem *> > *,std::less<int>,std::allocator<std::pair<int const ,std::list<CEventItem *,std::allocator<CEventItem *> > *> >,0> >
_TEXT	ENDS
PUBLIC	??1?$map@HPAV?$list@PAVCEventItem@@V?$allocator@PAVCEventItem@@@std@@@std@@U?$less@H@2@V?$allocator@U?$pair@$$CBHPAV?$list@PAVCEventItem@@V?$allocator@PAVCEventItem@@@std@@@std@@@std@@@2@@std@@QAE@XZ ; std::map<int,std::list<CEventItem *,std::allocator<CEventItem *> > *,std::less<int>,std::allocator<std::pair<int const ,std::list<CEventItem *,std::allocator<CEventItem *> > *> > >::~map<int,std::list<CEventItem *,std::allocator<CEventItem *> > *,std::less<int>,std::allocator<std::pair<int const ,std::list<CEventItem *,std::allocator<CEventItem *> > *> > >
; Function compile flags: /Ogty
;	COMDAT ??1?$map@HPAV?$list@PAVCEventItem@@V?$allocator@PAVCEventItem@@@std@@@std@@U?$less@H@2@V?$allocator@U?$pair@$$CBHPAV?$list@PAVCEventItem@@V?$allocator@PAVCEventItem@@@std@@@std@@@std@@@2@@std@@QAE@XZ
_TEXT	SEGMENT
$T198780 = -4						; size = 4
??1?$map@HPAV?$list@PAVCEventItem@@V?$allocator@PAVCEventItem@@@std@@@std@@U?$less@H@2@V?$allocator@U?$pair@$$CBHPAV?$list@PAVCEventItem@@V?$allocator@PAVCEventItem@@@std@@@std@@@std@@@2@@std@@QAE@XZ PROC NEAR ; std::map<int,std::list<CEventItem *,std::allocator<CEventItem *> > *,std::less<int>,std::allocator<std::pair<int const ,std::list<CEventItem *,std::allocator<CEventItem *> > *> > >::~map<int,std::list<CEventItem *,std::allocator<CEventItem *> > *,std::less<int>,std::allocator<std::pair<int const ,std::list<CEventItem *,std::allocator<CEventItem *> > *> > >, COMDAT
; _this$ = ecx
  00000	51		 push	 ecx
  00001	56		 push	 esi
  00002	8b f1		 mov	 esi, ecx
  00004	8b 46 04	 mov	 eax, DWORD PTR [esi+4]
  00007	8b 08		 mov	 ecx, DWORD PTR [eax]
  00009	50		 push	 eax
  0000a	51		 push	 ecx
  0000b	8d 44 24 0c	 lea	 eax, DWORD PTR $T198780[esp+16]
  0000f	50		 push	 eax
  00010	8b ce		 mov	 ecx, esi
  00012	e8 00 00 00 00	 call	 ?erase@?$_Tree@V?$_Tmap_traits@HPAV?$list@PAVCEventItem@@V?$allocator@PAVCEventItem@@@std@@@std@@U?$less@H@2@V?$allocator@U?$pair@$$CBHPAV?$list@PAVCEventItem@@V?$allocator@PAVCEventItem@@@std@@@std@@@std@@@2@$0A@@std@@@std@@QAE?AViterator@12@V312@0@Z ; std::_Tree<std::_Tmap_traits<int,std::list<CEventItem *,std::allocator<CEventItem *> > *,std::less<int>,std::allocator<std::pair<int const ,std::list<CEventItem *,std::allocator<CEventItem *> > *> >,0> >::erase
  00017	8b 4e 04	 mov	 ecx, DWORD PTR [esi+4]
  0001a	51		 push	 ecx
  0001b	e8 00 00 00 00	 call	 ??3@YAXPAX@Z		; operator delete
  00020	83 c4 04	 add	 esp, 4
  00023	33 c0		 xor	 eax, eax
  00025	89 46 04	 mov	 DWORD PTR [esi+4], eax
  00028	89 46 08	 mov	 DWORD PTR [esi+8], eax
  0002b	5e		 pop	 esi
  0002c	59		 pop	 ecx
  0002d	c3		 ret	 0
??1?$map@HPAV?$list@PAVCEventItem@@V?$allocator@PAVCEventItem@@@std@@@std@@U?$less@H@2@V?$allocator@U?$pair@$$CBHPAV?$list@PAVCEventItem@@V?$allocator@PAVCEventItem@@@std@@@std@@@std@@@2@@std@@QAE@XZ ENDP ; std::map<int,std::list<CEventItem *,std::allocator<CEventItem *> > *,std::less<int>,std::allocator<std::pair<int const ,std::list<CEventItem *,std::allocator<CEventItem *> > *> > >::~map<int,std::list<CEventItem *,std::allocator<CEventItem *> > *,std::less<int>,std::allocator<std::pair<int const ,std::list<CEventItem *,std::allocator<CEventItem *> > *> > >
_TEXT	ENDS
PUBLIC	??1CEventGeneric@@UAE@XZ			; CEventGeneric::~CEventGeneric
PUBLIC	??_7CEventGeneric@@6B@				; CEventGeneric::`vftable'
PUBLIC	??_GCEventGeneric@@UAEPAXI@Z			; CEventGeneric::`scalar deleting destructor'
EXTRN	??_ECEventGeneric@@UAEPAXI@Z:NEAR		; CEventGeneric::`vector deleting destructor'
;	COMDAT xdata$x
; File c:\program files\microsoft visual studio .net 2003\vc7\include\xmemory
xdata$x	SEGMENT
$T199006 DD	0ffffffffH
	DD	FLAT:$L198809
	DD	00H
	DD	FLAT:$L198810
$T199004 DD	019930520H
	DD	02H
	DD	FLAT:$T199006
	DD	2 DUP(00H)
	DD	2 DUP(00H)
xdata$x	ENDS
;	COMDAT ??_7CEventGeneric@@6B@
CONST	SEGMENT
??_7CEventGeneric@@6B@ DD FLAT:??_ECEventGeneric@@UAEPAXI@Z ; CEventGeneric::`vftable'
; Function compile flags: /Ogty
; File c:\documents and settings\test\mes documents\source\virtuos_v17\build\program\_common\spevent.cpp
CONST	ENDS
;	COMDAT ??1CEventGeneric@@UAE@XZ
_TEXT	SEGMENT
_this$ = -20						; size = 4
$T198942 = -16						; size = 4
__$EHRec$ = -12						; size = 12
??1CEventGeneric@@UAE@XZ PROC NEAR			; CEventGeneric::~CEventGeneric, COMDAT
; _this$ = ecx

; 154  : {

  00000	6a ff		 push	 -1
  00002	68 00 00 00 00	 push	 __ehhandler$??1CEventGeneric@@UAE@XZ
  00007	64 a1 00 00 00
	00		 mov	 eax, DWORD PTR fs:__except_list
  0000d	50		 push	 eax
  0000e	64 89 25 00 00
	00 00		 mov	 DWORD PTR fs:__except_list, esp
  00015	83 ec 08	 sub	 esp, 8
  00018	53		 push	 ebx
  00019	56		 push	 esi
  0001a	57		 push	 edi
  0001b	8b f9		 mov	 edi, ecx
  0001d	89 7c 24 0c	 mov	 DWORD PTR _this$[esp+32], edi
  00021	c7 07 00 00 00
	00		 mov	 DWORD PTR [edi], OFFSET FLAT:??_7CEventGeneric@@6B@

; 155  : 	Clear();	// clear all

  00027	6a 01		 push	 1
  00029	c7 44 24 20 01
	00 00 00	 mov	 DWORD PTR __$EHRec$[esp+44], 1
  00031	e8 00 00 00 00	 call	 ?Clear@CEventGeneric@@QAEXH@Z ; CEventGeneric::Clear

; 156  : }

  00036	8b 47 18	 mov	 eax, DWORD PTR [edi+24]
  00039	8b 08		 mov	 ecx, DWORD PTR [eax]
  0003b	8d 77 14	 lea	 esi, DWORD PTR [edi+20]
  0003e	50		 push	 eax
  0003f	51		 push	 ecx
  00040	8d 44 24 18	 lea	 eax, DWORD PTR $T198942[esp+40]
  00044	33 db		 xor	 ebx, ebx
  00046	50		 push	 eax
  00047	8b ce		 mov	 ecx, esi
  00049	88 5c 24 28	 mov	 BYTE PTR __$EHRec$[esp+52], bl
  0004d	e8 00 00 00 00	 call	 ?erase@?$_Tree@V?$_Tmap_traits@HPAV?$list@PAVCEventItem@@V?$allocator@PAVCEventItem@@@std@@@std@@U?$less@H@2@V?$allocator@U?$pair@$$CBHPAV?$list@PAVCEventItem@@V?$allocator@PAVCEventItem@@@std@@@std@@@std@@@2@$0A@@std@@@std@@QAE?AViterator@12@V312@0@Z ; std::_Tree<std::_Tmap_traits<int,std::list<CEventItem *,std::allocator<CEventItem *> > *,std::less<int>,std::allocator<std::pair<int const ,std::list<CEventItem *,std::allocator<CEventItem *> > *> >,0> >::erase
  00052	8b 4e 04	 mov	 ecx, DWORD PTR [esi+4]
  00055	51		 push	 ecx
  00056	e8 00 00 00 00	 call	 ??3@YAXPAX@Z		; operator delete
  0005b	89 5e 04	 mov	 DWORD PTR [esi+4], ebx
  0005e	89 5e 08	 mov	 DWORD PTR [esi+8], ebx
  00061	8d 77 08	 lea	 esi, DWORD PTR [edi+8]
  00064	83 c4 04	 add	 esp, 4
  00067	8b ce		 mov	 ecx, esi
  00069	e8 00 00 00 00	 call	 ?clear@?$list@PAU_EVENT_GENERIC@@V?$allocator@PAU_EVENT_GENERIC@@@std@@@std@@QAEXXZ ; std::list<_EVENT_GENERIC *,std::allocator<_EVENT_GENERIC *> >::clear
  0006e	8b 56 04	 mov	 edx, DWORD PTR [esi+4]
  00071	52		 push	 edx
  00072	e8 00 00 00 00	 call	 ??3@YAXPAX@Z		; operator delete
  00077	8b 4c 24 18	 mov	 ecx, DWORD PTR __$EHRec$[esp+36]
  0007b	83 c4 04	 add	 esp, 4
  0007e	89 5e 04	 mov	 DWORD PTR [esi+4], ebx
  00081	5f		 pop	 edi
  00082	5e		 pop	 esi
  00083	5b		 pop	 ebx
  00084	64 89 0d 00 00
	00 00		 mov	 DWORD PTR fs:__except_list, ecx
  0008b	83 c4 14	 add	 esp, 20			; 00000014H
  0008e	c3		 ret	 0
_TEXT	ENDS
;	COMDAT text$x
text$x	SEGMENT
$L198809:
  00000	8b 4d ec	 mov	 ecx, DWORD PTR _this$[ebp]
  00003	83 c1 08	 add	 ecx, 8
  00006	e9 00 00 00 00	 jmp	 ??1?$list@PAU_EVENT_GENERIC@@V?$allocator@PAU_EVENT_GENERIC@@@std@@@std@@QAE@XZ ; std::list<_EVENT_GENERIC *,std::allocator<_EVENT_GENERIC *> >::~list<_EVENT_GENERIC *,std::allocator<_EVENT_GENERIC *> >
$L198810:
  0000b	8b 4d ec	 mov	 ecx, DWORD PTR _this$[ebp]
  0000e	83 c1 14	 add	 ecx, 20			; 00000014H
  00011	e9 00 00 00 00	 jmp	 ??1?$map@HPAV?$list@PAVCEventItem@@V?$allocator@PAVCEventItem@@@std@@@std@@U?$less@H@2@V?$allocator@U?$pair@$$CBHPAV?$list@PAVCEventItem@@V?$allocator@PAVCEventItem@@@std@@@std@@@std@@@2@@std@@QAE@XZ
__ehhandler$??1CEventGeneric@@UAE@XZ:
  00016	b8 00 00 00 00	 mov	 eax, OFFSET FLAT:$T199004
  0001b	e9 00 00 00 00	 jmp	 ___CxxFrameHandler
text$x	ENDS
??1CEventGeneric@@UAE@XZ ENDP				; CEventGeneric::~CEventGeneric
PUBLIC	??_C@_05GCNIINAF@Event?$AA@			; `string'
PUBLIC	??_C@_05PABKJLOM@Title?$AA@			; `string'
PUBLIC	??_C@_01BJJEKLCA@?$CC?$AA@			; `string'
PUBLIC	??_C@_04OKOFBOPB@Time?$AA@			; `string'
PUBLIC	??_C@_04BGCMBJDA@Item?$AA@			; `string'
PUBLIC	??_C@_0L@DDJPBPFC@fExpFactor?$AA@		; `string'
PUBLIC	??_C@_0O@NDHJHAFN@fItemDropRate?$AA@		; `string'
PUBLIC	??_C@_05BEKPGMFA@Spawn?$AA@			; `string'
PUBLIC	?LoadScript@CEventGeneric@@QAEHPBD@Z		; CEventGeneric::LoadScript
PUBLIC	??_C@_00CNPNBAHC@?$AA@				; `string'
EXTRN	?GetFloat@CScanner@@QAEMH@Z:NEAR		; CScanner::GetFloat
EXTRN	?GetToken@CScript@@UAEHH@Z:NEAR			; CScript::GetToken
EXTRN	?GetLastFull@CScript@@QAEXXZ:NEAR		; CScript::GetLastFull
EXTRN	__imp__lstrcpyA@8:NEAR
EXTRN	?GetLanguage@@YAHXZ:NEAR			; GetLanguage
;	COMDAT xdata$x
; File c:\program files\microsoft visual studio .net 2003\vc7\atlmfc\include\cstringt.h
xdata$x	SEGMENT
$T199465 DD	0ffffffffH
	DD	FLAT:$L199019
	DD	00H
	DD	FLAT:$L199021
$T199444 DD	019930520H
	DD	02H
	DD	FLAT:$T199465
	DD	2 DUP(00H)
	DD	2 DUP(00H)
xdata$x	ENDS
;	COMDAT ??_C@_05GCNIINAF@Event?$AA@
CONST	SEGMENT
??_C@_05GCNIINAF@Event?$AA@ DB 'Event', 00H		; `string'
CONST	ENDS
;	COMDAT ??_C@_05PABKJLOM@Title?$AA@
CONST	SEGMENT
??_C@_05PABKJLOM@Title?$AA@ DB 'Title', 00H		; `string'
CONST	ENDS
;	COMDAT ??_C@_00CNPNBAHC@?$AA@
CONST	SEGMENT
??_C@_00CNPNBAHC@?$AA@ DB 00H				; `string'
CONST	ENDS
;	COMDAT ??_C@_01BJJEKLCA@?$CC?$AA@
CONST	SEGMENT
??_C@_01BJJEKLCA@?$CC?$AA@ DB '"', 00H			; `string'
CONST	ENDS
;	COMDAT ??_C@_04OKOFBOPB@Time?$AA@
CONST	SEGMENT
??_C@_04OKOFBOPB@Time?$AA@ DB 'Time', 00H		; `string'
CONST	ENDS
;	COMDAT ??_C@_04BGCMBJDA@Item?$AA@
CONST	SEGMENT
??_C@_04BGCMBJDA@Item?$AA@ DB 'Item', 00H		; `string'
CONST	ENDS
;	COMDAT ??_C@_0L@DDJPBPFC@fExpFactor?$AA@
CONST	SEGMENT
??_C@_0L@DDJPBPFC@fExpFactor?$AA@ DB 'fExpFactor', 00H	; `string'
CONST	ENDS
;	COMDAT ??_C@_0O@NDHJHAFN@fItemDropRate?$AA@
CONST	SEGMENT
??_C@_0O@NDHJHAFN@fItemDropRate?$AA@ DB 'fItemDropRate', 00H ; `string'
CONST	ENDS
;	COMDAT ??_C@_05BEKPGMFA@Spawn?$AA@
CONST	SEGMENT
??_C@_05BEKPGMFA@Spawn?$AA@ DB 'Spawn', 00H		; `string'
; Function compile flags: /Ogty
; File c:\documents and settings\test\mes documents\source\virtuos_v17\build\program\_common\spevent.cpp
CONST	ENDS
;	COMDAT ?LoadScript@CEventGeneric@@QAEHPBD@Z
_TEXT	SEGMENT
_token$188656 = -7864					; size = 4
$T199441 = -7860					; size = 4
_t$188668 = -7856					; size = 8
_pEvent$188642 = -7856					; size = 4
_atm$199343 = -7848					; size = 36
_atm$199335 = -7812					; size = 36
_s$ = -7776						; size = 7760
__$ArrayPad$ = -16					; size = 4
__$EHRec$ = -12						; size = 12
__$ReturnAddr$ = 4					; size = 4
_lpFilename$ = 8					; size = 4
?LoadScript@CEventGeneric@@QAEHPBD@Z PROC NEAR		; CEventGeneric::LoadScript, COMDAT
; _this$ = ecx

; 184  : {

  00000	6a ff		 push	 -1
  00002	68 00 00 00 00	 push	 __ehhandler$?LoadScript@CEventGeneric@@QAEHPBD@Z
  00007	64 a1 00 00 00
	00		 mov	 eax, DWORD PTR fs:__except_list
  0000d	50		 push	 eax
  0000e	b8 ac 1e 00 00	 mov	 eax, 7852		; 00001eacH
  00013	64 89 25 00 00
	00 00		 mov	 DWORD PTR fs:__except_list, esp
  0001a	e8 00 00 00 00	 call	 __chkstk
  0001f	a1 00 00 00 00	 mov	 eax, DWORD PTR ___security_cookie
  00024	33 c4		 xor	 eax, esp
  00026	56		 push	 esi
  00027	57		 push	 edi
  00028	8b bc 24 c4 1e
	00 00		 mov	 edi, DWORD PTR _lpFilename$[esp+7868]
  0002f	89 4c 24 0c	 mov	 DWORD PTR $T199441[esp+7872], ecx

; 185  : 	CScript s;

  00033	33 f6		 xor	 esi, esi
  00035	56		 push	 esi
  00036	8d 4c 24 64	 lea	 ecx, DWORD PTR _s$[esp+7876]
  0003a	89 84 24 b4 1e
	00 00		 mov	 DWORD PTR __$ArrayPad$[esp+7876], eax
  00041	e8 00 00 00 00	 call	 ??0CScript@@QAE@H@Z	; CScript::CScript

; 186  : 	if( s.Load( lpFilename ) == FALSE )

  00046	56		 push	 esi
  00047	6a 01		 push	 1
  00049	57		 push	 edi
  0004a	8d 4c 24 6c	 lea	 ecx, DWORD PTR _s$[esp+7884]
  0004e	89 b4 24 c8 1e
	00 00		 mov	 DWORD PTR __$EHRec$[esp+7892], esi
  00055	e8 00 00 00 00	 call	 ?Load@CScript@@QAEHPBDHH@Z ; CScript::Load
  0005a	85 c0		 test	 eax, eax

; 187  : 		return FALSE;

  0005c	8d 4c 24 60	 lea	 ecx, DWORD PTR _s$[esp+7872]
  00060	75 17		 jne	 SHORT $L188635
  00062	c7 84 24 bc 1e
	00 00 ff ff ff
	ff		 mov	 DWORD PTR __$EHRec$[esp+7880], -1
  0006d	e8 00 00 00 00	 call	 ??1CScript@@UAE@XZ	; CScript::~CScript
  00072	33 c0		 xor	 eax, eax
  00074	e9 ca 04 00 00	 jmp	 $L188633
$L188635:
  00079	53		 push	 ebx
  0007a	55		 push	 ebp

; 188  : 	s.GetToken();	// subject or FINISHED

  0007b	56		 push	 esi
  0007c	e8 00 00 00 00	 call	 ?GetToken@CScript@@UAEHH@Z ; CScript::GetToken

; 189  : 	
; 190  : //	int nEvent	= 500;
; 191  : 
; 192  : 	while( s.tok != FINISHED )

  00081	83 bc 24 94 08
	00 00 15	 cmp	 DWORD PTR _s$[esp+9972], 21 ; 00000015H
  00089	0f 84 99 04 00
	00		 je	 $L188639
  0008f	90		 npad	 1
$L188638:

; 193  : 	{
; 194  : 		if( s.Token == _T( "Event" ) )

  00090	8b 84 24 88 00
	00 00		 mov	 eax, DWORD PTR _s$[esp+7912]
  00097	68 00 00 00 00	 push	 OFFSET FLAT:??_C@_05GCNIINAF@Event?$AA@
  0009c	50		 push	 eax
  0009d	e8 00 00 00 00	 call	 __mbscmp
  000a2	83 c4 08	 add	 esp, 8
  000a5	85 c0		 test	 eax, eax
  000a7	0f 85 63 04 00
	00		 jne	 $L188649

; 195  : 		{
; 196  : 			PEVENT_GENERIC pEvent	= new EVENT_GENERIC;

  000ad	6a 7c		 push	 124			; 0000007cH
  000af	e8 00 00 00 00	 call	 ??2@YAPAXI@Z		; operator new
  000b4	83 c4 04	 add	 esp, 4
  000b7	3b c6		 cmp	 eax, esi
  000b9	74 1e		 je	 SHORT $L199015
  000bb	b9 00 00 80 3f	 mov	 ecx, 1065353216		; 3f800000H
  000c0	89 30		 mov	 DWORD PTR [eax], esi
  000c2	89 70 04	 mov	 DWORD PTR [eax+4], esi
  000c5	89 70 08	 mov	 DWORD PTR [eax+8], esi
  000c8	89 70 0c	 mov	 DWORD PTR [eax+12], esi
  000cb	c6 40 18 00	 mov	 BYTE PTR [eax+24], 0
  000cf	89 48 10	 mov	 DWORD PTR [eax+16], ecx
  000d2	89 48 14	 mov	 DWORD PTR [eax+20], ecx
  000d5	8b d8		 mov	 ebx, eax
  000d7	eb 02		 jmp	 SHORT $L199016
$L199015:
  000d9	33 db		 xor	 ebx, ebx
$L199016:

; 197  : 			pEvent->nId		= s.GetNumber();

  000db	56		 push	 esi
  000dc	8d 4c 24 6c	 lea	 ecx, DWORD PTR _s$[esp+7884]
  000e0	89 5c 24 1c	 mov	 DWORD PTR _pEvent$188642[esp+7884], ebx
  000e4	e8 00 00 00 00	 call	 ?GetNumber@CScanner@@QAEHH@Z ; CScanner::GetNumber

; 198  : //			pEvent->nId	= nEvent++;
; 199  : 			pEvent->nFlag	= 0x00000001 << ( pEvent->nId - 500 );
; 200  : 			m_lspEvent.push_back( pEvent );

  000e9	8b 74 24 14	 mov	 esi, DWORD PTR $T199441[esp+7880]
  000ed	8d 88 0c fe ff
	ff		 lea	 ecx, DWORD PTR [eax-500]
  000f3	ba 01 00 00 00	 mov	 edx, 1
  000f8	d3 e2		 shl	 edx, cl
  000fa	89 03		 mov	 DWORD PTR [ebx], eax
  000fc	83 c6 08	 add	 esi, 8
  000ff	8d 44 24 18	 lea	 eax, DWORD PTR _pEvent$188642[esp+7880]
  00103	89 53 04	 mov	 DWORD PTR [ebx+4], edx
  00106	8b 7e 04	 mov	 edi, DWORD PTR [esi+4]
  00109	8b 4f 04	 mov	 ecx, DWORD PTR [edi+4]
  0010c	50		 push	 eax
  0010d	51		 push	 ecx
  0010e	57		 push	 edi
  0010f	8b ce		 mov	 ecx, esi
  00111	e8 00 00 00 00	 call	 ?_Buynode@?$list@PAU_EVENT_GENERIC@@V?$allocator@PAU_EVENT_GENERIC@@@std@@@std@@IAEPAU_Node@?$_List_nod@PAU_EVENT_GENERIC@@V?$allocator@PAU_EVENT_GENERIC@@@std@@@2@PAU342@0ABQAU_EVENT_GENERIC@@@Z ; std::list<_EVENT_GENERIC *,std::allocator<_EVENT_GENERIC *> >::_Buynode
  00116	6a 01		 push	 1
  00118	8b ce		 mov	 ecx, esi
  0011a	8b e8		 mov	 ebp, eax
  0011c	e8 00 00 00 00	 call	 ?_Incsize@?$list@PAU_EVENT_GENERIC@@V?$allocator@PAU_EVENT_GENERIC@@@std@@@std@@IAEXI@Z ; std::list<_EVENT_GENERIC *,std::allocator<_EVENT_GENERIC *> >::_Incsize
  00121	89 6f 04	 mov	 DWORD PTR [edi+4], ebp
  00124	8b 45 04	 mov	 eax, DWORD PTR [ebp+4]

; 201  : 
; 202  : 			s.GetToken();	// {

  00127	6a 00		 push	 0
  00129	8d 4c 24 6c	 lea	 ecx, DWORD PTR _s$[esp+7884]
  0012d	89 28		 mov	 DWORD PTR [eax], ebp
  0012f	e8 00 00 00 00	 call	 ?GetToken@CScript@@UAEHH@Z ; CScript::GetToken

; 203  : 			s.GetToken();

  00134	6a 00		 push	 0
  00136	8d 4c 24 6c	 lea	 ecx, DWORD PTR _s$[esp+7884]
  0013a	e8 00 00 00 00	 call	 ?GetToken@CScript@@UAEHH@Z ; CScript::GetToken

; 204  : 			while( *s.token != '}' )

  0013f	8b 94 24 8c 00
	00 00		 mov	 edx, DWORD PTR _s$[esp+7916]
  00146	80 3a 7d	 cmp	 BYTE PTR [edx], 125	; 0000007dH
  00149	0f 84 bf 03 00
	00		 je	 $L199457
  0014f	90		 npad	 1
$L188648:

; 205  : 			{
; 206  : 				if( s.Token == _T( "Title" ) )

  00150	8b 84 24 88 00
	00 00		 mov	 eax, DWORD PTR _s$[esp+7912]
  00157	68 00 00 00 00	 push	 OFFSET FLAT:??_C@_05PABKJLOM@Title?$AA@
  0015c	50		 push	 eax
  0015d	e8 00 00 00 00	 call	 __mbscmp
  00162	83 c4 08	 add	 esp, 8
  00165	85 c0		 test	 eax, eax
  00167	0f 85 35 01 00
	00		 jne	 $L188650

; 207  : 				{
; 208  : 					s.GetToken();	// {

  0016d	50		 push	 eax
  0016e	8d 4c 24 6c	 lea	 ecx, DWORD PTR _s$[esp+7884]
  00172	e8 00 00 00 00	 call	 ?GetToken@CScript@@UAEHH@Z ; CScript::GetToken

; 209  : 					int nLang	= s.GetNumber();

  00177	6a 00		 push	 0
  00179	8d 4c 24 6c	 lea	 ecx, DWORD PTR _s$[esp+7884]
  0017d	e8 00 00 00 00	 call	 ?GetNumber@CScanner@@QAEHH@Z ; CScanner::GetNumber

; 210  : 					while( *s.token != '}' )

  00182	8b 8c 24 8c 00
	00 00		 mov	 ecx, DWORD PTR _s$[esp+7916]
  00189	8b f0		 mov	 esi, eax
  0018b	80 39 7d	 cmp	 BYTE PTR [ecx], 125	; 0000007dH
  0018e	0f 84 5f 03 00
	00		 je	 $L199456
$L188654:

; 211  : 					{
; 212  : 						s.GetLastFull();

  00194	8d 4c 24 68	 lea	 ecx, DWORD PTR _s$[esp+7880]
  00198	e8 00 00 00 00	 call	 ?GetLastFull@CScript@@QAEXXZ ; CScript::GetLastFull

; 213  : 						CString token	= s.token;

  0019d	8b 94 24 8c 00
	00 00		 mov	 edx, DWORD PTR _s$[esp+7916]
  001a4	52		 push	 edx
  001a5	8d 4c 24 14	 lea	 ecx, DWORD PTR _token$188656[esp+7884]
  001a9	e8 00 00 00 00	 call	 ??0?$CStringT@DV?$StrTraitMFC@DV?$ChTraitsCRT@D@ATL@@@@@ATL@@QAE@PBD@Z ; ATL::CStringT<char,StrTraitMFC<char,ATL::ChTraitsCRT<char> > >::CStringT<char,StrTraitMFC<char,ATL::ChTraitsCRT<char> > >

; 214  : 						token.Replace( "\"", "" );

  001ae	68 00 00 00 00	 push	 OFFSET FLAT:??_C@_00CNPNBAHC@?$AA@
  001b3	68 00 00 00 00	 push	 OFFSET FLAT:??_C@_01BJJEKLCA@?$CC?$AA@
  001b8	8d 4c 24 18	 lea	 ecx, DWORD PTR _token$188656[esp+7888]
  001bc	c6 84 24 cc 1e
	00 00 01	 mov	 BYTE PTR __$EHRec$[esp+7896], 1
  001c4	e8 00 00 00 00	 call	 ?Replace@?$CStringT@DV?$StrTraitMFC@DV?$ChTraitsCRT@D@ATL@@@@@ATL@@QAEHPBD0@Z ; ATL::CStringT<char,StrTraitMFC<char,ATL::ChTraitsCRT<char> > >::Replace

; 215  : 						if( nLang == ::GetLanguage() )

  001c9	e8 00 00 00 00	 call	 ?GetLanguage@@YAHXZ	; GetLanguage
  001ce	3b f0		 cmp	 esi, eax
  001d0	0f 85 84 00 00
	00		 jne	 $L199455

; 216  : 						{
; 217  : 							CString str		= token;

  001d6	8b 74 24 10	 mov	 esi, DWORD PTR _token$188656[esp+7880]
  001da	8b 4e f0	 mov	 ecx, DWORD PTR [esi-16]
  001dd	8b 01		 mov	 eax, DWORD PTR [ecx]
  001df	83 c6 f0	 add	 esi, -16		; fffffff0H
  001e2	ff 50 10	 call	 DWORD PTR [eax+16]
  001e5	8b 56 0c	 mov	 edx, DWORD PTR [esi+12]
  001e8	85 d2		 test	 edx, edx
  001ea	8d 4e 0c	 lea	 ecx, DWORD PTR [esi+12]
  001ed	7c 11		 jl	 SHORT $L199241
  001ef	3b 06		 cmp	 eax, DWORD PTR [esi]
  001f1	75 0d		 jne	 SHORT $L199241
  001f3	8b c6		 mov	 eax, esi
  001f5	ba 01 00 00 00	 mov	 edx, 1
  001fa	f0 0f c1 11	 lock	  xadd	 DWORD PTR [ecx], edx
  001fe	eb 32		 jmp	 SHORT $L199236
$L199241:
  00200	8b 4e 04	 mov	 ecx, DWORD PTR [esi+4]
  00203	8b 10		 mov	 edx, DWORD PTR [eax]
  00205	6a 01		 push	 1
  00207	51		 push	 ecx
  00208	8b c8		 mov	 ecx, eax
  0020a	ff 12		 call	 DWORD PTR [edx]
  0020c	85 c0		 test	 eax, eax
  0020e	0f 84 56 03 00
	00		 je	 $L199449
  00214	8b 56 04	 mov	 edx, DWORD PTR [esi+4]
  00217	89 50 04	 mov	 DWORD PTR [eax+4], edx
  0021a	8b 4e 04	 mov	 ecx, DWORD PTR [esi+4]
  0021d	41		 inc	 ecx
  0021e	8b d1		 mov	 edx, ecx
  00220	c1 e9 02	 shr	 ecx, 2
  00223	83 c6 10	 add	 esi, 16			; 00000010H
  00226	8d 78 10	 lea	 edi, DWORD PTR [eax+16]
  00229	f3 a5		 rep movsd
  0022b	8b ca		 mov	 ecx, edx
  0022d	83 e1 03	 and	 ecx, 3
  00230	f3 a4		 rep movsb
$L199236:
  00232	8d 70 10	 lea	 esi, DWORD PTR [eax+16]

; 218  : //							if( str.IsEmpty() )
; 219  : //								str	= "Empty";
; 220  : 							lstrcpy( pEvent->pszTitle, (LPCSTR)str );

  00235	56		 push	 esi
  00236	8d 43 18	 lea	 eax, DWORD PTR [ebx+24]
  00239	50		 push	 eax
  0023a	ff 15 00 00 00
	00		 call	 DWORD PTR __imp__lstrcpyA@8

; 221  : 						}

  00240	8d 46 f0	 lea	 eax, DWORD PTR [esi-16]
  00243	8d 48 0c	 lea	 ecx, DWORD PTR [eax+12]
  00246	83 ca ff	 or	 edx, -1
  00249	f0 0f c1 11	 lock	  xadd	 DWORD PTR [ecx], edx
  0024d	4a		 dec	 edx
  0024e	85 d2		 test	 edx, edx
  00250	7f 08		 jg	 SHORT $L199455
  00252	8b 08		 mov	 ecx, DWORD PTR [eax]
  00254	8b 11		 mov	 edx, DWORD PTR [ecx]
  00256	50		 push	 eax
  00257	ff 52 04	 call	 DWORD PTR [edx+4]
$L199455:

; 222  : 						nLang	= s.GetNumber();

  0025a	6a 00		 push	 0
  0025c	8d 4c 24 6c	 lea	 ecx, DWORD PTR _s$[esp+7884]
  00260	e8 00 00 00 00	 call	 ?GetNumber@CScanner@@QAEHH@Z ; CScanner::GetNumber
  00265	8b f0		 mov	 esi, eax

; 223  : 					}

  00267	8b 44 24 10	 mov	 eax, DWORD PTR _token$188656[esp+7880]
  0026b	83 c0 f0	 add	 eax, -16		; fffffff0H
  0026e	c6 84 24 c4 1e
	00 00 00	 mov	 BYTE PTR __$EHRec$[esp+7888], 0
  00276	8d 48 0c	 lea	 ecx, DWORD PTR [eax+12]
  00279	83 ca ff	 or	 edx, -1
  0027c	f0 0f c1 11	 lock	  xadd	 DWORD PTR [ecx], edx
  00280	4a		 dec	 edx
  00281	85 d2		 test	 edx, edx
  00283	7f 08		 jg	 SHORT $L199306
  00285	8b 08		 mov	 ecx, DWORD PTR [eax]
  00287	8b 11		 mov	 edx, DWORD PTR [ecx]
  00289	50		 push	 eax
  0028a	ff 52 04	 call	 DWORD PTR [edx+4]
$L199306:
  0028d	8b 84 24 8c 00
	00 00		 mov	 eax, DWORD PTR _s$[esp+7916]
  00294	80 38 7d	 cmp	 BYTE PTR [eax], 125	; 0000007dH
  00297	0f 85 f7 fe ff
	ff		 jne	 $L188654

; 224  : 				}
; 225  : 
; 226  : 				else if( s.Token == _T( "Time" ) )

  0029d	e9 51 02 00 00	 jmp	 $L199456
$L188650:
  002a2	8b 8c 24 88 00
	00 00		 mov	 ecx, DWORD PTR _s$[esp+7912]
  002a9	68 00 00 00 00	 push	 OFFSET FLAT:??_C@_04OKOFBOPB@Time?$AA@
  002ae	51		 push	 ecx
  002af	e8 00 00 00 00	 call	 __mbscmp
  002b4	83 c4 08	 add	 esp, 8
  002b7	85 c0		 test	 eax, eax
  002b9	0f 85 02 01 00
	00		 jne	 $L188662

; 227  : 				{
; 228  : #ifdef __DBSERVER
; 229  : 					s.GetToken();	// {

  002bf	50		 push	 eax
  002c0	8d 4c 24 6c	 lea	 ecx, DWORD PTR _s$[esp+7884]
  002c4	e8 00 00 00 00	 call	 ?GetToken@CScript@@UAEHH@Z ; CScript::GetToken

; 230  : 					int nYear	= s.GetNumber();

  002c9	6a 00		 push	 0
  002cb	8d 4c 24 6c	 lea	 ecx, DWORD PTR _s$[esp+7884]
  002cf	e8 00 00 00 00	 call	 ?GetNumber@CScanner@@QAEHH@Z ; CScanner::GetNumber

; 231  : 					int nMonth	= s.GetNumber();

  002d4	6a 00		 push	 0
  002d6	8d 4c 24 6c	 lea	 ecx, DWORD PTR _s$[esp+7884]
  002da	8b f0		 mov	 esi, eax
  002dc	e8 00 00 00 00	 call	 ?GetNumber@CScanner@@QAEHH@Z ; CScanner::GetNumber

; 232  : 					int nDay	= s.GetNumber();

  002e1	6a 00		 push	 0
  002e3	8d 4c 24 6c	 lea	 ecx, DWORD PTR _s$[esp+7884]
  002e7	8b f8		 mov	 edi, eax
  002e9	e8 00 00 00 00	 call	 ?GetNumber@CScanner@@QAEHH@Z ; CScanner::GetNumber
  002ee	8b e8		 mov	 ebp, eax

; 233  : 					int nHour	= s.GetNumber();
; 234  : 					CTime t	= CTime( nYear, nMonth, nDay, nHour, 0, 0 );

  002f0	33 c0		 xor	 eax, eax
  002f2	50		 push	 eax
  002f3	8d 4c 24 6c	 lea	 ecx, DWORD PTR _s$[esp+7884]
  002f7	89 44 24 48	 mov	 DWORD PTR _atm$199335[esp+7884], eax
  002fb	89 44 24 4c	 mov	 DWORD PTR _atm$199335[esp+7888], eax
  002ff	e8 00 00 00 00	 call	 ?GetNumber@CScanner@@QAEHH@Z ; CScanner::GetNumber
  00304	8d 54 24 44	 lea	 edx, DWORD PTR _atm$199335[esp+7880]
  00308	4f		 dec	 edi
  00309	81 c6 94 f8 ff
	ff		 add	 esi, -1900		; fffff894H
  0030f	52		 push	 edx
  00310	89 44 24 50	 mov	 DWORD PTR _atm$199335[esp+7892], eax
  00314	89 6c 24 54	 mov	 DWORD PTR _atm$199335[esp+7896], ebp
  00318	89 7c 24 58	 mov	 DWORD PTR _atm$199335[esp+7900], edi
  0031c	89 74 24 5c	 mov	 DWORD PTR _atm$199335[esp+7904], esi
  00320	c7 44 24 68 ff
	ff ff ff	 mov	 DWORD PTR _atm$199335[esp+7916], -1
  00328	e8 00 00 00 00	 call	 __mktime64
  0032d	8b c8		 mov	 ecx, eax
  0032f	23 ca		 and	 ecx, edx
  00331	83 c4 04	 add	 esp, 4
  00334	83 f9 ff	 cmp	 ecx, -1
  00337	0f 84 32 02 00
	00		 je	 $L199451

; 235  : 					pEvent->tStart	= (time_t)( t.GetTime() );
; 236  : 					nYear	= s.GetNumber();

  0033d	6a 00		 push	 0
  0033f	8d 4c 24 6c	 lea	 ecx, DWORD PTR _s$[esp+7884]
  00343	89 43 08	 mov	 DWORD PTR [ebx+8], eax
  00346	e8 00 00 00 00	 call	 ?GetNumber@CScanner@@QAEHH@Z ; CScanner::GetNumber

; 237  : 					nMonth	= s.GetNumber();

  0034b	6a 00		 push	 0
  0034d	8d 4c 24 6c	 lea	 ecx, DWORD PTR _s$[esp+7884]
  00351	8b f0		 mov	 esi, eax
  00353	e8 00 00 00 00	 call	 ?GetNumber@CScanner@@QAEHH@Z ; CScanner::GetNumber

; 238  : 					nDay	= s.GetNumber();

  00358	6a 00		 push	 0
  0035a	8d 4c 24 6c	 lea	 ecx, DWORD PTR _s$[esp+7884]
  0035e	8b f8		 mov	 edi, eax
  00360	e8 00 00 00 00	 call	 ?GetNumber@CScanner@@QAEHH@Z ; CScanner::GetNumber

; 239  : 					nHour	= s.GetNumber();

  00365	6a 00		 push	 0
  00367	8d 4c 24 6c	 lea	 ecx, DWORD PTR _s$[esp+7884]
  0036b	8b e8		 mov	 ebp, eax
  0036d	e8 00 00 00 00	 call	 ?GetNumber@CScanner@@QAEHH@Z ; CScanner::GetNumber

; 240  : 					t	= CTime( nYear, nMonth, nDay, nHour, 0, 0 );

  00372	33 c9		 xor	 ecx, ecx
  00374	8d 54 24 20	 lea	 edx, DWORD PTR _atm$199343[esp+7880]
  00378	4f		 dec	 edi
  00379	81 c6 94 f8 ff
	ff		 add	 esi, -1900		; fffff894H
  0037f	52		 push	 edx
  00380	89 4c 24 24	 mov	 DWORD PTR _atm$199343[esp+7884], ecx
  00384	89 4c 24 28	 mov	 DWORD PTR _atm$199343[esp+7888], ecx
  00388	89 44 24 2c	 mov	 DWORD PTR _atm$199343[esp+7892], eax
  0038c	89 6c 24 30	 mov	 DWORD PTR _atm$199343[esp+7896], ebp
  00390	89 7c 24 34	 mov	 DWORD PTR _atm$199343[esp+7900], edi
  00394	89 74 24 38	 mov	 DWORD PTR _atm$199343[esp+7904], esi
  00398	c7 44 24 44 ff
	ff ff ff	 mov	 DWORD PTR _atm$199343[esp+7916], -1
  003a0	e8 00 00 00 00	 call	 __mktime64
  003a5	8b c8		 mov	 ecx, eax
  003a7	23 ca		 and	 ecx, edx
  003a9	83 c4 04	 add	 esp, 4
  003ac	83 f9 ff	 cmp	 ecx, -1
  003af	0f 84 ba 01 00
	00		 je	 $L199451
  003b5	89 54 24 1c	 mov	 DWORD PTR _t$188668[esp+7884], edx

; 241  : 					pEvent->tEnd	= (time_t)( t.GetTime() );

  003b9	89 43 0c	 mov	 DWORD PTR [ebx+12], eax

; 242  : 					s.GetToken();	// }
; 243  : #else	// __DBSERVER
; 244  : 					s.GetToken();
; 245  : 					s.GetToken();
; 246  : 					s.GetToken();
; 247  : 					s.GetToken();
; 248  : 					s.GetToken();
; 249  : 					s.GetToken();
; 250  : 					s.GetToken();
; 251  : 					s.GetToken();
; 252  : 					s.GetToken();
; 253  : 					s.GetToken();
; 254  : #endif	// __DBSERVER
; 255  : 				}
; 256  : 				else if( s.Token == _T( "Item" ) )

  003bc	e9 27 01 00 00	 jmp	 $L199464
$L188662:
  003c1	8b 94 24 88 00
	00 00		 mov	 edx, DWORD PTR _s$[esp+7912]
  003c8	68 00 00 00 00	 push	 OFFSET FLAT:??_C@_04BGCMBJDA@Item?$AA@
  003cd	52		 push	 edx
  003ce	e8 00 00 00 00	 call	 __mbscmp
  003d3	83 c4 08	 add	 esp, 8
  003d6	85 c0		 test	 eax, eax
  003d8	75 6c		 jne	 SHORT $L188674

; 257  : 				{
; 258  : #ifdef __DBSERVER
; 259  : 					s.GetToken();	// {

  003da	50		 push	 eax
  003db	8d 4c 24 6c	 lea	 ecx, DWORD PTR _s$[esp+7884]
  003df	e8 00 00 00 00	 call	 ?GetToken@CScript@@UAEHH@Z ; CScript::GetToken

; 260  : 					DWORD dwItemId	= s.GetNumber();

  003e4	6a 00		 push	 0
  003e6	8d 4c 24 6c	 lea	 ecx, DWORD PTR _s$[esp+7884]
  003ea	e8 00 00 00 00	 call	 ?GetNumber@CScanner@@QAEHH@Z ; CScanner::GetNumber
  003ef	8b f0		 mov	 esi, eax

; 261  : 					while( *s.token != '}' )

  003f1	8b 84 24 8c 00
	00 00		 mov	 eax, DWORD PTR _s$[esp+7916]
  003f8	80 38 7d	 cmp	 BYTE PTR [eax], 125	; 0000007dH
  003fb	0f 84 f2 00 00
	00		 je	 $L199456
$L188678:

; 262  : 					{
; 263  : 						if( dwItemId == 0 )
; 264  : 						{
; 265  : 							//
; 266  : 						}
; 267  : 						int nMax	= s.GetNumber();

  00401	6a 00		 push	 0
  00403	8d 4c 24 6c	 lea	 ecx, DWORD PTR _s$[esp+7884]
  00407	e8 00 00 00 00	 call	 ?GetNumber@CScanner@@QAEHH@Z ; CScanner::GetNumber

; 268  : 						int nNum	= s.GetNumber();

  0040c	6a 00		 push	 0
  0040e	8d 4c 24 6c	 lea	 ecx, DWORD PTR _s$[esp+7884]
  00412	8b f8		 mov	 edi, eax
  00414	e8 00 00 00 00	 call	 ?GetNumber@CScanner@@QAEHH@Z ; CScanner::GetNumber

; 269  : 						if( FALSE == AddItem( pEvent->nId, dwItemId, nMax, nNum ) )

  00419	8b 0b		 mov	 ecx, DWORD PTR [ebx]
  0041b	50		 push	 eax
  0041c	57		 push	 edi
  0041d	56		 push	 esi
  0041e	51		 push	 ecx
  0041f	8b 4c 24 24	 mov	 ecx, DWORD PTR $T199441[esp+7896]
  00423	e8 00 00 00 00	 call	 ?AddItem@CEventGeneric@@QAEHHKHH@Z ; CEventGeneric::AddItem

; 270  : 						{
; 271  : 							//
; 272  : 						}
; 273  : 						dwItemId	= s.GetNumber();

  00428	6a 00		 push	 0
  0042a	8d 4c 24 6c	 lea	 ecx, DWORD PTR _s$[esp+7884]
  0042e	e8 00 00 00 00	 call	 ?GetNumber@CScanner@@QAEHH@Z ; CScanner::GetNumber
  00433	8b 94 24 8c 00
	00 00		 mov	 edx, DWORD PTR _s$[esp+7916]
  0043a	8b f0		 mov	 esi, eax
  0043c	80 3a 7d	 cmp	 BYTE PTR [edx], 125	; 0000007dH
  0043f	75 c0		 jne	 SHORT $L188678

; 274  : 					}
; 275  : #else	// __DBSERVER
; 276  : 					s.GetToken();
; 277  : 					s.GetToken();
; 278  : 					while( *s.token != '}' )
; 279  : 					{
; 280  : 						s.GetToken();
; 281  : 						s.GetToken();
; 282  : 						s.GetToken();
; 283  : 					}
; 284  : #endif	// __DBSERVER
; 285  : 				}
; 286  : 				else if( s.Token == _T( "fExpFactor" ) )

  00441	e9 ad 00 00 00	 jmp	 $L199456
$L188674:
  00446	8b 84 24 88 00
	00 00		 mov	 eax, DWORD PTR _s$[esp+7912]
  0044d	68 00 00 00 00	 push	 OFFSET FLAT:??_C@_0L@DDJPBPFC@fExpFactor?$AA@
  00452	50		 push	 eax
  00453	e8 00 00 00 00	 call	 __mbscmp
  00458	83 c4 08	 add	 esp, 8
  0045b	85 c0		 test	 eax, eax
  0045d	75 12		 jne	 SHORT $L188685

; 287  : 				{
; 288  : #ifdef __DBSERVER
; 289  : 					pEvent->fExpFactor	= s.GetFloat();

  0045f	50		 push	 eax
  00460	8d 4c 24 6c	 lea	 ecx, DWORD PTR _s$[esp+7884]
  00464	e8 00 00 00 00	 call	 ?GetFloat@CScanner@@QAEMH@Z ; CScanner::GetFloat
  00469	d9 5b 10	 fstp	 DWORD PTR [ebx+16]

; 290  : #else	// __DBSERVER
; 291  : 					s.GetToken();
; 292  : #endif	// __DBSERVER
; 293  : 				}
; 294  : #ifdef __ITEMDROPRATE
; 295  : 				else if( s.Token == _T( "fItemDropRate" ) )

  0046c	e9 82 00 00 00	 jmp	 $L199456
$L188685:
  00471	8b 8c 24 88 00
	00 00		 mov	 ecx, DWORD PTR _s$[esp+7912]
  00478	68 00 00 00 00	 push	 OFFSET FLAT:??_C@_0O@NDHJHAFN@fItemDropRate?$AA@
  0047d	51		 push	 ecx
  0047e	e8 00 00 00 00	 call	 __mbscmp
  00483	83 c4 08	 add	 esp, 8
  00486	85 c0		 test	 eax, eax
  00488	75 0f		 jne	 SHORT $L188688

; 296  : 				{
; 297  : #ifdef __DBSERVER
; 298  : 					pEvent->fItemDropRate = s.GetFloat();

  0048a	50		 push	 eax
  0048b	8d 4c 24 6c	 lea	 ecx, DWORD PTR _s$[esp+7884]
  0048f	e8 00 00 00 00	 call	 ?GetFloat@CScanner@@QAEMH@Z ; CScanner::GetFloat
  00494	d9 5b 14	 fstp	 DWORD PTR [ebx+20]

; 299  : #else	// __DBSERVER
; 300  : 					s.GetToken();
; 301  : #endif	// __DBSERVER
; 302  : 				}
; 303  : #endif // __ITEMDROPRATE
; 304  : 				else if( s.Token == _T( "Spawn" ) )

  00497	eb 5a		 jmp	 SHORT $L199456
$L188688:
  00499	8b 94 24 88 00
	00 00		 mov	 edx, DWORD PTR _s$[esp+7912]
  004a0	68 00 00 00 00	 push	 OFFSET FLAT:??_C@_05BEKPGMFA@Spawn?$AA@
  004a5	52		 push	 edx
  004a6	e8 00 00 00 00	 call	 __mbscmp
  004ab	83 c4 08	 add	 esp, 8
  004ae	85 c0		 test	 eax, eax
  004b0	75 41		 jne	 SHORT $L199456

; 305  : 				{
; 306  : #if defined(__WORLDSERVER ) && defined(__EVENT_0117)
; 307  : 					s.GetToken();	// {
; 308  : 					DWORD dwType	= s.GetNumber();
; 309  : 					DWORD dwIndex	= s.GetNumber();
; 310  : 					int nMax	= s.GetNumber();
; 311  : 					float fRatio	= s.GetFloat();
; 312  : 					DWORD dwInterval	= 86400000 / nMax;	// 86400000	= 1
; 313  : 					AddSpawn( pEvent->nId, dwType, dwIndex, nMax, fRatio, dwInterval );
; 314  : 					s.GetToken();	// }
; 315  : #else	// __WORLDSERVER
; 316  : 					s.GetToken();

  004b2	50		 push	 eax
  004b3	8d 4c 24 6c	 lea	 ecx, DWORD PTR _s$[esp+7884]
  004b7	e8 00 00 00 00	 call	 ?GetToken@CScript@@UAEHH@Z ; CScript::GetToken

; 317  : 					s.GetToken();

  004bc	6a 00		 push	 0
  004be	8d 4c 24 6c	 lea	 ecx, DWORD PTR _s$[esp+7884]
  004c2	e8 00 00 00 00	 call	 ?GetToken@CScript@@UAEHH@Z ; CScript::GetToken

; 318  : 					s.GetToken();

  004c7	6a 00		 push	 0
  004c9	8d 4c 24 6c	 lea	 ecx, DWORD PTR _s$[esp+7884]
  004cd	e8 00 00 00 00	 call	 ?GetToken@CScript@@UAEHH@Z ; CScript::GetToken

; 319  : 					s.GetToken();

  004d2	6a 00		 push	 0
  004d4	8d 4c 24 6c	 lea	 ecx, DWORD PTR _s$[esp+7884]
  004d8	e8 00 00 00 00	 call	 ?GetToken@CScript@@UAEHH@Z ; CScript::GetToken

; 320  : 					s.GetToken();

  004dd	6a 00		 push	 0
  004df	8d 4c 24 6c	 lea	 ecx, DWORD PTR _s$[esp+7884]
  004e3	e8 00 00 00 00	 call	 ?GetToken@CScript@@UAEHH@Z ; CScript::GetToken
$L199464:

; 321  : 					s.GetToken();

  004e8	8d 4c 24 68	 lea	 ecx, DWORD PTR _s$[esp+7880]
  004ec	6a 00		 push	 0
  004ee	e8 00 00 00 00	 call	 ?GetToken@CScript@@UAEHH@Z ; CScript::GetToken
$L199456:

; 322  : #endif	// __WORLDSERVER
; 323  : 				}
; 324  : 				s.GetToken();

  004f3	6a 00		 push	 0
  004f5	8d 4c 24 6c	 lea	 ecx, DWORD PTR _s$[esp+7884]
  004f9	e8 00 00 00 00	 call	 ?GetToken@CScript@@UAEHH@Z ; CScript::GetToken
  004fe	8b 84 24 8c 00
	00 00		 mov	 eax, DWORD PTR _s$[esp+7916]
  00505	80 38 7d	 cmp	 BYTE PTR [eax], 125	; 0000007dH
  00508	0f 85 42 fc ff
	ff		 jne	 $L188648
$L199457:

; 204  : 			while( *s.token != '}' )

  0050e	33 f6		 xor	 esi, esi
$L188649:

; 325  : 			}
; 326  : 		}
; 327  : 		s.GetToken();

  00510	56		 push	 esi
  00511	8d 4c 24 6c	 lea	 ecx, DWORD PTR _s$[esp+7884]
  00515	e8 00 00 00 00	 call	 ?GetToken@CScript@@UAEHH@Z ; CScript::GetToken
  0051a	83 bc 24 94 08
	00 00 15	 cmp	 DWORD PTR _s$[esp+9972], 21 ; 00000015H
  00522	0f 85 68 fb ff
	ff		 jne	 $L188638
$L188639:

; 328  : 	}
; 329  : 	return TRUE;

  00528	8d 4c 24 68	 lea	 ecx, DWORD PTR _s$[esp+7880]
  0052c	c7 84 24 c4 1e
	00 00 ff ff ff
	ff		 mov	 DWORD PTR __$EHRec$[esp+7888], -1
  00537	e8 00 00 00 00	 call	 ??1CScript@@UAE@XZ	; CScript::~CScript
  0053c	5d		 pop	 ebp
  0053d	b8 01 00 00 00	 mov	 eax, 1
  00542	5b		 pop	 ebx
$L188633:

; 330  : }

  00543	8b 8c 24 b4 1e
	00 00		 mov	 ecx, DWORD PTR __$EHRec$[esp+7872]
  0054a	5f		 pop	 edi
  0054b	64 89 0d 00 00
	00 00		 mov	 DWORD PTR fs:__except_list, ecx
  00552	8b 8c 24 ac 1e
	00 00		 mov	 ecx, DWORD PTR __$ArrayPad$[esp+7868]
  00559	5e		 pop	 esi
  0055a	33 cc		 xor	 ecx, esp
  0055c	e8 00 00 00 00	 call	 @__security_check_cookie@4
  00561	81 c4 b8 1e 00
	00		 add	 esp, 7864		; 00001eb8H
  00567	c2 04 00	 ret	 4
$L199449:

; 216  : 						{
; 217  : 							CString str		= token;

  0056a	e8 00 00 00 00	 call	 ?ThrowMemoryException@?$CSimpleStringT@D$0A@@ATL@@KAXXZ ; ATL::CSimpleStringT<char,0>::ThrowMemoryException
$L199451:

; 240  : 					t	= CTime( nYear, nMonth, nDay, nHour, 0, 0 );

  0056f	68 57 00 07 80	 push	 -2147024809		; 80070057H
  00574	e8 00 00 00 00	 call	 ?AtlThrow@ATL@@YGXJ@Z	; ATL::AtlThrow
$L199463:
  00579	cc		 int	 3
_TEXT	ENDS
;	COMDAT text$x
text$x	SEGMENT
$L199019:
  00000	8d 8d a0 e1 ff
	ff		 lea	 ecx, DWORD PTR _s$[ebp]
  00006	e9 00 00 00 00	 jmp	 ??1CScript@@UAE@XZ	; CScript::~CScript
$L199021:
  0000b	8d 8d 48 e1 ff
	ff		 lea	 ecx, DWORD PTR _token$188656[ebp]
  00011	e9 00 00 00 00	 jmp	 ??1?$CStringT@DV?$StrTraitMFC@DV?$ChTraitsCRT@D@ATL@@@@@ATL@@QAE@XZ ; ATL::CStringT<char,StrTraitMFC<char,ATL::ChTraitsCRT<char> > >::~CStringT<char,StrTraitMFC<char,ATL::ChTraitsCRT<char> > >
__ehhandler$?LoadScript@CEventGeneric@@QAEHPBD@Z:
  00016	b8 00 00 00 00	 mov	 eax, OFFSET FLAT:$T199444
  0001b	e9 00 00 00 00	 jmp	 ___CxxFrameHandler
text$x	ENDS
?LoadScript@CEventGeneric@@QAEHPBD@Z ENDP		; CEventGeneric::LoadScript
PUBLIC	??0?$map@HPAV?$list@PAVCEventItem@@V?$allocator@PAVCEventItem@@@std@@@std@@U?$less@H@2@V?$allocator@U?$pair@$$CBHPAV?$list@PAVCEventItem@@V?$allocator@PAVCEventItem@@@std@@@std@@@std@@@2@@std@@QAE@XZ ; std::map<int,std::list<CEventItem *,std::allocator<CEventItem *> > *,std::less<int>,std::allocator<std::pair<int const ,std::list<CEventItem *,std::allocator<CEventItem *> > *> > >::map<int,std::list<CEventItem *,std::allocator<CEventItem *> > *,std::less<int>,std::allocator<std::pair<int const ,std::list<CEventItem *,std::allocator<CEventItem *> > *> > >
; Function compile flags: /Ogty
; File c:\program files\microsoft visual studio .net 2003\vc7\include\map
;	COMDAT ??0?$map@HPAV?$list@PAVCEventItem@@V?$allocator@PAVCEventItem@@@std@@@std@@U?$less@H@2@V?$allocator@U?$pair@$$CBHPAV?$list@PAVCEventItem@@V?$allocator@PAVCEventItem@@@std@@@std@@@std@@@2@@std@@QAE@XZ
_TEXT	SEGMENT
??0?$map@HPAV?$list@PAVCEventItem@@V?$allocator@PAVCEventItem@@@std@@@std@@U?$less@H@2@V?$allocator@U?$pair@$$CBHPAV?$list@PAVCEventItem@@V?$allocator@PAVCEventItem@@@std@@@std@@@std@@@2@@std@@QAE@XZ PROC NEAR ; std::map<int,std::list<CEventItem *,std::allocator<CEventItem *> > *,std::less<int>,std::allocator<std::pair<int const ,std::list<CEventItem *,std::allocator<CEventItem *> > *> > >::map<int,std::list<CEventItem *,std::allocator<CEventItem *> > *,std::less<int>,std::allocator<std::pair<int const ,std::list<CEventItem *,std::allocator<CEventItem *> > *> > >, COMDAT
; _this$ = ecx

; 102  : 		{	// construct empty map from defaults

  00000	56		 push	 esi
  00001	8b f1		 mov	 esi, ecx
  00003	e8 00 00 00 00	 call	 ?_Buynode@?$_Tree@V?$_Tmap_traits@HPAV?$list@PAVCEventItem@@V?$allocator@PAVCEventItem@@@std@@@std@@U?$less@H@2@V?$allocator@U?$pair@$$CBHPAV?$list@PAVCEventItem@@V?$allocator@PAVCEventItem@@@std@@@std@@@std@@@2@$0A@@std@@@std@@IAEPAU_Node@?$_Tree_nod@V?$_Tmap_traits@HPAV?$list@PAVCEventItem@@V?$allocator@PAVCEventItem@@@std@@@std@@U?$less@H@2@V?$allocator@U?$pair@$$CBHPAV?$list@PAVCEventItem@@V?$allocator@PAVCEventItem@@@std@@@std@@@std@@@2@$0A@@std@@@2@XZ ; std::_Tree<std::_Tmap_traits<int,std::list<CEventItem *,std::allocator<CEventItem *> > *,std::less<int>,std::allocator<std::pair<int const ,std::list<CEventItem *,std::allocator<CEventItem *> > *> >,0> >::_Buynode
  00008	89 46 04	 mov	 DWORD PTR [esi+4], eax
  0000b	c6 40 15 01	 mov	 BYTE PTR [eax+21], 1
  0000f	8b 46 04	 mov	 eax, DWORD PTR [esi+4]
  00012	89 40 04	 mov	 DWORD PTR [eax+4], eax
  00015	8b 46 04	 mov	 eax, DWORD PTR [esi+4]
  00018	89 00		 mov	 DWORD PTR [eax], eax
  0001a	8b 46 04	 mov	 eax, DWORD PTR [esi+4]
  0001d	89 40 08	 mov	 DWORD PTR [eax+8], eax
  00020	c7 46 08 00 00
	00 00		 mov	 DWORD PTR [esi+8], 0

; 103  : 		}

  00027	8b c6		 mov	 eax, esi
  00029	5e		 pop	 esi
  0002a	c3		 ret	 0
??0?$map@HPAV?$list@PAVCEventItem@@V?$allocator@PAVCEventItem@@@std@@@std@@U?$less@H@2@V?$allocator@U?$pair@$$CBHPAV?$list@PAVCEventItem@@V?$allocator@PAVCEventItem@@@std@@@std@@@std@@@2@@std@@QAE@XZ ENDP ; std::map<int,std::list<CEventItem *,std::allocator<CEventItem *> > *,std::less<int>,std::allocator<std::pair<int const ,std::list<CEventItem *,std::allocator<CEventItem *> > *> > >::map<int,std::list<CEventItem *,std::allocator<CEventItem *> > *,std::less<int>,std::allocator<std::pair<int const ,std::list<CEventItem *,std::allocator<CEventItem *> > *> > >
_TEXT	ENDS
PUBLIC	??0CEventGeneric@@QAE@XZ			; CEventGeneric::CEventGeneric
;	COMDAT xdata$x
; File c:\program files\microsoft visual studio .net 2003\vc7\include\xtree
xdata$x	SEGMENT
$T199944 DD	0ffffffffH
	DD	FLAT:$L199637
$T199942 DD	019930520H
	DD	01H
	DD	FLAT:$T199944
	DD	2 DUP(00H)
	DD	2 DUP(00H)
; Function compile flags: /Ogty
; File c:\documents and settings\test\mes documents\source\virtuos_v17\build\program\_common\spevent.cpp
xdata$x	ENDS
;	COMDAT ??0CEventGeneric@@QAE@XZ
_TEXT	SEGMENT
_this$ = -16						; size = 4
__$EHRec$ = -12						; size = 12
??0CEventGeneric@@QAE@XZ PROC NEAR			; CEventGeneric::CEventGeneric, COMDAT
; _this$ = ecx

; 149  : {

  00000	6a ff		 push	 -1
  00002	68 00 00 00 00	 push	 __ehhandler$??0CEventGeneric@@QAE@XZ
  00007	64 a1 00 00 00
	00		 mov	 eax, DWORD PTR fs:__except_list
  0000d	50		 push	 eax
  0000e	64 89 25 00 00
	00 00		 mov	 DWORD PTR fs:__except_list, esp
  00015	51		 push	 ecx
  00016	53		 push	 ebx
  00017	56		 push	 esi
  00018	57		 push	 edi
  00019	8b f9		 mov	 edi, ecx
  0001b	8d 77 08	 lea	 esi, DWORD PTR [edi+8]
  0001e	8b ce		 mov	 ecx, esi
  00020	89 7c 24 0c	 mov	 DWORD PTR _this$[esp+28], edi
  00024	c7 07 00 00 00
	00		 mov	 DWORD PTR [edi], OFFSET FLAT:??_7CEventGeneric@@6B@
  0002a	e8 00 00 00 00	 call	 ?_Buynode@?$list@PAU_EVENT_GENERIC@@V?$allocator@PAU_EVENT_GENERIC@@@std@@@std@@IAEPAU_Node@?$_List_nod@PAU_EVENT_GENERIC@@V?$allocator@PAU_EVENT_GENERIC@@@std@@@2@XZ ; std::list<_EVENT_GENERIC *,std::allocator<_EVENT_GENERIC *> >::_Buynode
  0002f	33 db		 xor	 ebx, ebx
  00031	89 46 04	 mov	 DWORD PTR [esi+4], eax
  00034	89 5e 08	 mov	 DWORD PTR [esi+8], ebx
  00037	8d 77 14	 lea	 esi, DWORD PTR [edi+20]
  0003a	8b ce		 mov	 ecx, esi
  0003c	89 5c 24 18	 mov	 DWORD PTR __$EHRec$[esp+36], ebx
  00040	e8 00 00 00 00	 call	 ?_Buynode@?$_Tree@V?$_Tmap_traits@HPAV?$list@PAVCEventItem@@V?$allocator@PAVCEventItem@@@std@@@std@@U?$less@H@2@V?$allocator@U?$pair@$$CBHPAV?$list@PAVCEventItem@@V?$allocator@PAVCEventItem@@@std@@@std@@@std@@@2@$0A@@std@@@std@@IAEPAU_Node@?$_Tree_nod@V?$_Tmap_traits@HPAV?$list@PAVCEventItem@@V?$allocator@PAVCEventItem@@@std@@@std@@U?$less@H@2@V?$allocator@U?$pair@$$CBHPAV?$list@PAVCEventItem@@V?$allocator@PAVCEventItem@@@std@@@std@@@std@@@2@$0A@@std@@@2@XZ ; std::_Tree<std::_Tmap_traits<int,std::list<CEventItem *,std::allocator<CEventItem *> > *,std::less<int>,std::allocator<std::pair<int const ,std::list<CEventItem *,std::allocator<CEventItem *> > *> >,0> >::_Buynode

; 150  : 	m_dwFlag	= 0;
; 151  : }

  00045	8b 4c 24 10	 mov	 ecx, DWORD PTR __$EHRec$[esp+28]
  00049	89 46 04	 mov	 DWORD PTR [esi+4], eax
  0004c	c6 40 15 01	 mov	 BYTE PTR [eax+21], 1
  00050	8b 46 04	 mov	 eax, DWORD PTR [esi+4]
  00053	89 40 04	 mov	 DWORD PTR [eax+4], eax
  00056	8b 46 04	 mov	 eax, DWORD PTR [esi+4]
  00059	89 00		 mov	 DWORD PTR [eax], eax
  0005b	8b 46 04	 mov	 eax, DWORD PTR [esi+4]
  0005e	89 40 08	 mov	 DWORD PTR [eax+8], eax
  00061	89 5e 08	 mov	 DWORD PTR [esi+8], ebx
  00064	89 5f 04	 mov	 DWORD PTR [edi+4], ebx
  00067	8b c7		 mov	 eax, edi
  00069	5f		 pop	 edi
  0006a	5e		 pop	 esi
  0006b	5b		 pop	 ebx
  0006c	64 89 0d 00 00
	00 00		 mov	 DWORD PTR fs:__except_list, ecx
  00073	83 c4 10	 add	 esp, 16			; 00000010H
  00076	c3		 ret	 0
_TEXT	ENDS
;	COMDAT text$x
text$x	SEGMENT
$L199637:
  00000	8b 4d f0	 mov	 ecx, DWORD PTR _this$[ebp]
  00003	83 c1 08	 add	 ecx, 8
  00006	e9 00 00 00 00	 jmp	 ??1?$list@PAU_EVENT_GENERIC@@V?$allocator@PAU_EVENT_GENERIC@@@std@@@std@@QAE@XZ ; std::list<_EVENT_GENERIC *,std::allocator<_EVENT_GENERIC *> >::~list<_EVENT_GENERIC *,std::allocator<_EVENT_GENERIC *> >
__ehhandler$??0CEventGeneric@@QAE@XZ:
  0000b	b8 00 00 00 00	 mov	 eax, OFFSET FLAT:$T199942
  00010	e9 00 00 00 00	 jmp	 ___CxxFrameHandler
text$x	ENDS
??0CEventGeneric@@QAE@XZ ENDP				; CEventGeneric::CEventGeneric
; Function compile flags: /Ogty
;	COMDAT ??_GCEventGeneric@@UAEPAXI@Z
_TEXT	SEGMENT
___flags$ = 8						; size = 4
??_GCEventGeneric@@UAEPAXI@Z PROC NEAR			; CEventGeneric::`scalar deleting destructor', COMDAT
; _this$ = ecx
  00000	56		 push	 esi
  00001	8b f1		 mov	 esi, ecx
  00003	e8 00 00 00 00	 call	 ??1CEventGeneric@@UAE@XZ ; CEventGeneric::~CEventGeneric
  00008	f6 44 24 08 01	 test	 BYTE PTR ___flags$[esp], 1
  0000d	74 09		 je	 SHORT $L199949
  0000f	56		 push	 esi
  00010	e8 00 00 00 00	 call	 ??3@YAXPAX@Z		; operator delete
  00015	83 c4 04	 add	 esp, 4
$L199949:
  00018	8b c6		 mov	 eax, esi
  0001a	5e		 pop	 esi
  0001b	c2 04 00	 ret	 4
??_GCEventGeneric@@UAEPAXI@Z ENDP			; CEventGeneric::`scalar deleting destructor'
_TEXT	ENDS
PUBLIC	?GetInstance@CEventGeneric@@SAPAV1@XZ		; CEventGeneric::GetInstance
;	COMDAT ?sEventGeneric@?1??GetInstance@CEventGeneric@@SAPAV2@XZ@4V2@A
_BSS	SEGMENT
?sEventGeneric@?1??GetInstance@CEventGeneric@@SAPAV2@XZ@4V2@A DB 020H DUP (?) ; `CEventGeneric::GetInstance'::`2'::sEventGeneric
_BSS	ENDS
;	COMDAT ?$S3@?1??GetInstance@CEventGeneric@@SAPAV2@XZ@4IA
_BSS	SEGMENT
?$S3@?1??GetInstance@CEventGeneric@@SAPAV2@XZ@4IA DD 01H DUP (?) ; `CEventGeneric::GetInstance'::`2'::$S3
_BSS	ENDS
;	COMDAT xdata$x
xdata$x	SEGMENT
$T199957 DD	0ffffffffH
	DD	FLAT:$L199952
$T199954 DD	019930520H
	DD	01H
	DD	FLAT:$T199957
	DD	2 DUP(00H)
	DD	2 DUP(00H)
; Function compile flags: /Ogty
xdata$x	ENDS
;	COMDAT ?GetInstance@CEventGeneric@@SAPAV1@XZ
_TEXT	SEGMENT
__$EHRec$ = -12						; size = 12
?GetInstance@CEventGeneric@@SAPAV1@XZ PROC NEAR		; CEventGeneric::GetInstance, COMDAT

; 353  : {

  00000	64 a1 00 00 00
	00		 mov	 eax, DWORD PTR fs:__except_list

; 354  : 	static CEventGeneric	sEventGeneric;

  00006	8a 0d 00 00 00
	00		 mov	 cl, BYTE PTR ?$S3@?1??GetInstance@CEventGeneric@@SAPAV2@XZ@4IA
  0000c	6a ff		 push	 -1
  0000e	68 00 00 00 00	 push	 __ehhandler$?GetInstance@CEventGeneric@@SAPAV1@XZ
  00013	50		 push	 eax
  00014	b8 01 00 00 00	 mov	 eax, 1
  00019	84 c8		 test	 cl, al
  0001b	64 89 25 00 00
	00 00		 mov	 DWORD PTR fs:__except_list, esp
  00022	75 25		 jne	 SHORT $L199955
  00024	09 05 00 00 00
	00		 or	 DWORD PTR ?$S3@?1??GetInstance@CEventGeneric@@SAPAV2@XZ@4IA, eax
  0002a	b9 00 00 00 00	 mov	 ecx, OFFSET FLAT:?sEventGeneric@?1??GetInstance@CEventGeneric@@SAPAV2@XZ@4V2@A
  0002f	c7 44 24 08 00
	00 00 00	 mov	 DWORD PTR __$EHRec$[esp+20], 0
  00037	e8 00 00 00 00	 call	 ??0CEventGeneric@@QAE@XZ ; CEventGeneric::CEventGeneric
  0003c	68 00 00 00 00	 push	 OFFSET FLAT:_$E4
  00041	e8 00 00 00 00	 call	 _atexit
  00046	83 c4 04	 add	 esp, 4
$L199955:

; 355  : 	return &sEventGeneric;
; 356  : }

  00049	8b 0c 24	 mov	 ecx, DWORD PTR __$EHRec$[esp+12]
  0004c	b8 00 00 00 00	 mov	 eax, OFFSET FLAT:?sEventGeneric@?1??GetInstance@CEventGeneric@@SAPAV2@XZ@4V2@A
  00051	64 89 0d 00 00
	00 00		 mov	 DWORD PTR fs:__except_list, ecx
  00058	83 c4 0c	 add	 esp, 12			; 0000000cH
  0005b	c3		 ret	 0
_TEXT	ENDS
;	COMDAT text$x
text$x	SEGMENT
$L199952:
  00000	a1 00 00 00 00	 mov	 eax, DWORD PTR ?$S3@?1??GetInstance@CEventGeneric@@SAPAV2@XZ@4IA
  00005	83 e0 fe	 and	 eax, -2			; fffffffeH
  00008	a3 00 00 00 00	 mov	 DWORD PTR ?$S3@?1??GetInstance@CEventGeneric@@SAPAV2@XZ@4IA, eax
  0000d	c3		 ret	 0
__ehhandler$?GetInstance@CEventGeneric@@SAPAV1@XZ:
  0000e	b8 00 00 00 00	 mov	 eax, OFFSET FLAT:$T199954
  00013	e9 00 00 00 00	 jmp	 ___CxxFrameHandler
text$x	ENDS
?GetInstance@CEventGeneric@@SAPAV1@XZ ENDP		; CEventGeneric::GetInstance
; Function compile flags: /Ogty
;	COMDAT _$E2
text$yd	SEGMENT
_$E2	PROC NEAR					; COMDAT
  00000	b9 00 00 00 00	 mov	 ecx, OFFSET FLAT:?sXMasEvent@?1??GetInstance@CXMasEvent@@SAPAV2@XZ@4V2@A
  00005	e9 00 00 00 00	 jmp	 ??1CXMasEvent@@UAE@XZ	; CXMasEvent::~CXMasEvent
_$E2	ENDP
; Function compile flags: /Ogty
text$yd	ENDS
;	COMDAT _$E4
text$yd	SEGMENT
_$E4	PROC NEAR					; COMDAT
  00000	b9 00 00 00 00	 mov	 ecx, OFFSET FLAT:?sEventGeneric@?1??GetInstance@CEventGeneric@@SAPAV2@XZ@4V2@A
  00005	e9 00 00 00 00	 jmp	 ??1CEventGeneric@@UAE@XZ ; CEventGeneric::~CEventGeneric
_$E4	ENDP
text$yd	ENDS
END
