; Listing generated by Microsoft (R) Optimizing Compiler Version 13.10.6030 

	TITLE	\Documents and Settings\test\Mes documents\Source\Virtuos_v17\Build\Program\_Common\Tax.cpp
	.386P
include listing.inc
if @Version gt 510
.model FLAT
else
_TEXT	SEGMENT PARA USE32 PUBLIC 'CODE'
_TEXT	ENDS
_DATA	SEGMENT DWORD USE32 PUBLIC 'DATA'
_DATA	ENDS
CONST	SEGMENT DWORD USE32 PUBLIC 'CONST'
CONST	ENDS
_BSS	SEGMENT DWORD USE32 PUBLIC 'BSS'
_BSS	ENDS
$$SYMBOLS	SEGMENT BYTE USE32 'DEBSYM'
$$SYMBOLS	ENDS
_TLS	SEGMENT DWORD USE32 PUBLIC 'TLS'
_TLS	ENDS
;	COMDAT ??_C@_0BC@MOGJFHKK@tr1?3?3bad_weak_ptr?$AA@
CONST	SEGMENT DWORD USE32 PUBLIC 'CONST'
CONST	ENDS
;	COMDAT ??_C@_0BD@IOHNFIBA@SetLOD?5?3?5lv?$DN?$CFd?0?5?$CFs?$AA@
CONST	SEGMENT DWORD USE32 PUBLIC 'CONST'
CONST	ENDS
;	COMDAT ??_C@_02PCIJFNDE@?$AN?6?$AA@
CONST	SEGMENT DWORD USE32 PUBLIC 'CONST'
CONST	ENDS
;	COMDAT ??_C@_01DNKMNLPK@?$HM?$AA@
CONST	SEGMENT DWORD USE32 PUBLIC 'CONST'
CONST	ENDS
;	COMDAT ??_C@_0DB@BEDINLHB@RANKING?4RANKING_DBF?4dbo?4RANKING_@
CONST	SEGMENT DWORD USE32 PUBLIC 'CONST'
CONST	ENDS
;	COMDAT ??_C@_0CN@HNMEKJGP@CDbManager?3?3UpdateGuildRanking?$LP?$KB@
CONST	SEGMENT DWORD USE32 PUBLIC 'CONST'
CONST	ENDS
;	COMDAT ??_C@_08LJMBJH@m_dwLogo?$AA@
CONST	SEGMENT DWORD USE32 PUBLIC 'CONST'
CONST	ENDS
;	COMDAT ??_C@_09NKFNPOPN@m_szGuild?$AA@
CONST	SEGMENT DWORD USE32 PUBLIC 'CONST'
CONST	ENDS
;	COMDAT ??_C@_08HDDJDJAG@m_szName?$AA@
CONST	SEGMENT DWORD USE32 PUBLIC 'CONST'
CONST	ENDS
;	COMDAT ??_C@_06LJIKPPDH@m_nWin?$AA@
CONST	SEGMENT DWORD USE32 PUBLIC 'CONST'
CONST	ENDS
;	COMDAT ??_C@_07IGCLHJHO@m_nLose?$AA@
CONST	SEGMENT DWORD USE32 PUBLIC 'CONST'
CONST	ENDS
;	COMDAT ??_C@_0N@BBOGLCAO@m_nSurrender?$AA@
CONST	SEGMENT DWORD USE32 PUBLIC 'CONST'
CONST	ENDS
;	COMDAT ??_C@_0L@EKKIFFNL@m_AvgLevel?$AA@
CONST	SEGMENT DWORD USE32 PUBLIC 'CONST'
CONST	ENDS
;	COMDAT ??_C@_0M@EMHJODPK@m_nWinPoint?$AA@
CONST	SEGMENT DWORD USE32 PUBLIC 'CONST'
CONST	ENDS
;	COMDAT ??_C@_0BG@CJGBCKAI@MAKE_RANKING_STR?5?8?$CFd?8?$AA@
CONST	SEGMENT DWORD USE32 PUBLIC 'CONST'
CONST	ENDS
;	COMDAT ??_C@_0CG@IPKIBOKB@CDbManager?3?3RankingDBUpdate?5?$CI?$CFs?$CJ@
CONST	SEGMENT DWORD USE32 PUBLIC 'CONST'
CONST	ENDS
;	COMDAT ??_C@_0CG@PBPHIFHD@CTax?5?9?5m_Controller?4CreateDbHand@
CONST	SEGMENT DWORD USE32 PUBLIC 'CONST'
CONST	ENDS
;	COMDAT ??_C@_0CI@EGGDFMCC@CTax?3?3GetTaxInfo?$CI?$CJ?5?9?5?$MA?$NP?$LI?x?$LF?H?5?$LE?k?$LH?z@
CONST	SEGMENT DWORD USE32 PUBLIC 'CONST'
CONST	ENDS
;	COMDAT ??_C@_07KANMDMNE@Tax?4lua?$AA@
CONST	SEGMENT DWORD USE32 PUBLIC 'CONST'
CONST	ENDS
;	COMDAT ??_C@_0BH@GCMNILJK@Tax?4lua?5Run?5Failed?5?$CB?$CB?$CB?$AA@
CONST	SEGMENT DWORD USE32 PUBLIC 'CONST'
CONST	ENDS
;	COMDAT ??_C@_0L@KBBAAJBF@MinTaxRate?$AA@
CONST	SEGMENT DWORD USE32 PUBLIC 'CONST'
CONST	ENDS
;	COMDAT ??_C@_0L@GNBNHCBK@MaxTaxRate?$AA@
CONST	SEGMENT DWORD USE32 PUBLIC 'CONST'
CONST	ENDS
;	COMDAT ??_C@_0BC@HLGHAKHH@TaxSecretRoomRate?$AA@
CONST	SEGMENT DWORD USE32 PUBLIC 'CONST'
CONST	ENDS
;	COMDAT ??_C@_0M@JMFHEJJO@TaxLordRate?$AA@
CONST	SEGMENT DWORD USE32 PUBLIC 'CONST'
CONST	ENDS
;	COMDAT ??_C@_0BI@LJACBDPE@AdmissionSecretRoomRate?$AA@
CONST	SEGMENT DWORD USE32 PUBLIC 'CONST'
CONST	ENDS
;	COMDAT ??_C@_0BC@LCJMAADJ@AdmissionLordRate?$AA@
CONST	SEGMENT DWORD USE32 PUBLIC 'CONST'
CONST	ENDS
;	COMDAT ??_C@_0M@FELENEOA@DBSaveCount?$AA@
CONST	SEGMENT DWORD USE32 PUBLIC 'CONST'
CONST	ENDS
;	COMDAT ??_C@_0BE@DCFJJNKF@tOccupationShopItem?$AA@
CONST	SEGMENT DWORD USE32 PUBLIC 'CONST'
CONST	ENDS
;	COMDAT ??_C@_0BA@LNDBAGIB@CheckChangeTime?$AA@
CONST	SEGMENT DWORD USE32 PUBLIC 'CONST'
CONST	ENDS
;	COMDAT ??_C@_0N@JMAFDKBD@CheckPayTime?$AA@
CONST	SEGMENT DWORD USE32 PUBLIC 'CONST'
CONST	ENDS
;	COMDAT ??_C@_0DF@PKLOAGED@TAX_INFO_STR?5?8S3?8?0?5?8?$CF02d?8?0?50?0?50?0@
CONST	SEGMENT DWORD USE32 PUBLIC 'CONST'
CONST	ENDS
;	COMDAT ??_C@_0L@FONFFEJF@m_idPlayer?$AA@
CONST	SEGMENT DWORD USE32 PUBLIC 'CONST'
CONST	ENDS
;	COMDAT ??_C@_0FM@HFNCOCNE@?2Documents?5and?5Settings?2test?2Mes@
CONST	SEGMENT DWORD USE32 PUBLIC 'CONST'
CONST	ENDS
;	COMDAT ??_C@_0DC@HDFAFDC@TAX_INFO_STR?5?8S1?8?0?5?8?$CF02d?8?0?50?0?50?0@
CONST	SEGMENT DWORD USE32 PUBLIC 'CONST'
CONST	ENDS
;	COMDAT ??_C@_06DJGFEEME@nTimes?$AA@
CONST	SEGMENT DWORD USE32 PUBLIC 'CONST'
CONST	ENDS
;	COMDAT ??_C@_0L@MDNPPPLJ@GetNowDate?$AA@
CONST	SEGMENT DWORD USE32 PUBLIC 'CONST'
CONST	ENDS
;	COMDAT ??_C@_0DE@DAPHDHAC@TAX_INFO_STR?5?8S2?8?0?5?8?$CF02d?8?0?5?$CFd?0?5?$CF@
CONST	SEGMENT DWORD USE32 PUBLIC 'CONST'
CONST	ENDS
;	COMDAT ??_C@_04EINJHNAE@dwID?$AA@
CONST	SEGMENT DWORD USE32 PUBLIC 'CONST'
CONST	ENDS
;	COMDAT ??_C@_08DEEAJDDG@dwNextID?$AA@
CONST	SEGMENT DWORD USE32 PUBLIC 'CONST'
CONST	ENDS
;	COMDAT ??_C@_0M@KKHJELKN@bSetTaxRate?$AA@
CONST	SEGMENT DWORD USE32 PUBLIC 'CONST'
CONST	ENDS
;	COMDAT ??_C@_0M@HHPEIMLI@change_time?$AA@
CONST	SEGMENT DWORD USE32 PUBLIC 'CONST'
CONST	ENDS
;	COMDAT ??_C@_0DG@HDJLKLGO@TAX_DETAIL_STR?5?8S2?8?0?5?8?$CF02d?8?0?5?$CFd?0@
CONST	SEGMENT DWORD USE32 PUBLIC 'CONST'
CONST	ENDS
;	COMDAT ??_C@_08LMFOBNPO@nTaxKind?$AA@
CONST	SEGMENT DWORD USE32 PUBLIC 'CONST'
CONST	ENDS
;	COMDAT ??_C@_0ED@KONCKI@LoadTaxInfo?$CI?$CJ?5?9?5taxDetail?5is?5wro@
CONST	SEGMENT DWORD USE32 PUBLIC 'CONST'
CONST	ENDS
;	COMDAT ??_C@_08BMLANHAF@nTaxRate?$AA@
CONST	SEGMENT DWORD USE32 PUBLIC 'CONST'
CONST	ENDS
;	COMDAT ??_C@_09PIHGBPHB@nTaxCount?$AA@
CONST	SEGMENT DWORD USE32 PUBLIC 'CONST'
CONST	ENDS
;	COMDAT ??_C@_08FPEBHLEN@nTaxGold?$AA@
CONST	SEGMENT DWORD USE32 PUBLIC 'CONST'
CONST	ENDS
;	COMDAT ??_C@_09BPDBKDAC@nTaxPerin?$AA@
CONST	SEGMENT DWORD USE32 PUBLIC 'CONST'
CONST	ENDS
;	COMDAT ??_C@_0N@CFHJAANA@nNextTaxRate?$AA@
CONST	SEGMENT DWORD USE32 PUBLIC 'CONST'
CONST	ENDS
;	COMDAT ??_C@_0DM@IEFKIIDM@TAX_INFO_STR?5?8I1?8?0?5?8?$CF02d?8?0?5?$CFd?0?5?$CF@
CONST	SEGMENT DWORD USE32 PUBLIC 'CONST'
CONST	ENDS
;	COMDAT ??_C@_0DM@PFLMCPAK@TAX_DETAIL_STR?5?8I1?8?0?5?8?$CF02d?8?0?5?$CFd?0@
CONST	SEGMENT DWORD USE32 PUBLIC 'CONST'
CONST	ENDS
;	COMDAT ??_C@_0DA@LBKMKMAC@UpdateToDB?$CI?$CJ?5?9?5taxInfo?5is?5NULL?0?5@
CONST	SEGMENT DWORD USE32 PUBLIC 'CONST'
CONST	ENDS
;	COMDAT ??_C@_0DL@EDBIPHKJ@TAX_INFO_STR?5?8U1?8?0?5?8?$CF02d?8?0?5?$CFd?0?5?$CF@
CONST	SEGMENT DWORD USE32 PUBLIC 'CONST'
CONST	ENDS
;	COMDAT ??_C@_0DM@BIDMIHDA@TAX_DETAIL_STR?5?8U1?8?0?5?8?$CF02d?8?0?5?$CFd?0@
CONST	SEGMENT DWORD USE32 PUBLIC 'CONST'
CONST	ENDS
text$yd	SEGMENT PARA USE32 PUBLIC 'CODE'
text$yd	ENDS
xdata$x	SEGMENT DWORD USE32 PUBLIC 'CONST'
xdata$x	ENDS
;	COMDAT ?GetQueryObject@CDbController@@QAEPAVCQuery@@XZ
_TEXT	SEGMENT PARA USE32 PUBLIC 'CODE'
_TEXT	ENDS
;	COMDAT ??0__TAXDETAIL@@QAE@XZ
_TEXT	SEGMENT PARA USE32 PUBLIC 'CODE'
_TEXT	ENDS
;	COMDAT ??0__TAXINFO@@QAE@XZ
_TEXT	SEGMENT PARA USE32 PUBLIC 'CODE'
_TEXT	ENDS
;	COMDAT ??1?$map@EPAU__TAXDETAIL@@U?$less@E@std@@V?$allocator@U?$pair@$$CBEPAU__TAXDETAIL@@@std@@@3@@std@@QAE@XZ
_TEXT	SEGMENT PARA USE32 PUBLIC 'CODE'
_TEXT	ENDS
;	COMDAT ?what@bad_weak_ptr@boost@@UBEPBDXZ
_TEXT	SEGMENT PARA USE32 PUBLIC 'CODE'
_TEXT	ENDS
;	COMDAT ??1sp_counted_base@detail@boost@@UAE@XZ
_TEXT	SEGMENT PARA USE32 PUBLIC 'CODE'
_TEXT	ENDS
;	COMDAT ?destroy@sp_counted_base@detail@boost@@UAEXXZ
_TEXT	SEGMENT PARA USE32 PUBLIC 'CODE'
_TEXT	ENDS
;	COMDAT ?add_ref_copy@sp_counted_base@detail@boost@@QAEXXZ
_TEXT	SEGMENT PARA USE32 PUBLIC 'CODE'
_TEXT	ENDS
;	COMDAT ?add_ref_lock@sp_counted_base@detail@boost@@QAE_NXZ
_TEXT	SEGMENT PARA USE32 PUBLIC 'CODE'
_TEXT	ENDS
;	COMDAT ?release@sp_counted_base@detail@boost@@QAEXXZ
_TEXT	SEGMENT PARA USE32 PUBLIC 'CODE'
_TEXT	ENDS
;	COMDAT ?weak_add_ref@sp_counted_base@detail@boost@@QAEXXZ
_TEXT	SEGMENT PARA USE32 PUBLIC 'CODE'
_TEXT	ENDS
;	COMDAT ?weak_release@sp_counted_base@detail@boost@@QAEXXZ
_TEXT	SEGMENT PARA USE32 PUBLIC 'CODE'
_TEXT	ENDS
;	COMDAT ?use_count@sp_counted_base@detail@boost@@QBEJXZ
_TEXT	SEGMENT PARA USE32 PUBLIC 'CODE'
_TEXT	ENDS
;	COMDAT ??_Gsp_counted_base@detail@boost@@UAEPAXI@Z
_TEXT	SEGMENT PARA USE32 PUBLIC 'CODE'
_TEXT	ENDS
;	COMDAT ?use_count@shared_count@detail@boost@@QBEJXZ
_TEXT	SEGMENT PARA USE32 PUBLIC 'CODE'
_TEXT	ENDS
;	COMDAT ??0bad_weak_ptr@boost@@QAE@XZ
_TEXT	SEGMENT PARA USE32 PUBLIC 'CODE'
_TEXT	ENDS
;	COMDAT ??1bad_weak_ptr@boost@@UAE@XZ
_TEXT	SEGMENT PARA USE32 PUBLIC 'CODE'
_TEXT	ENDS
;	COMDAT ??_Gbad_weak_ptr@boost@@UAEPAXI@Z
_TEXT	SEGMENT PARA USE32 PUBLIC 'CODE'
_TEXT	ENDS
;	COMDAT ?GetCooltime@CLordSkillComponent@@QAEHXZ
_TEXT	SEGMENT PARA USE32 PUBLIC 'CODE'
_TEXT	ENDS
;	COMDAT ?SetTick@CLordSkillComponent@@QAEXH@Z
_TEXT	SEGMENT PARA USE32 PUBLIC 'CODE'
_TEXT	ENDS
;	COMDAT ??1CLordSkillComponentExecutable@@UAE@XZ
_TEXT	SEGMENT PARA USE32 PUBLIC 'CODE'
_TEXT	ENDS
;	COMDAT ?Use@CLordSkillComponentExecutable@@IAEXXZ
_TEXT	SEGMENT PARA USE32 PUBLIC 'CODE'
_TEXT	ENDS
;	COMDAT ?Execute@CLordSkillComponentExecutable@@UAEXKKPAX@Z
_TEXT	SEGMENT PARA USE32 PUBLIC 'CODE'
_TEXT	ENDS
;	COMDAT ??_GCLordSkillComponentExecutable@@UAEPAXI@Z
_TEXT	SEGMENT PARA USE32 PUBLIC 'CODE'
_TEXT	ENDS
;	COMDAT ?GetDeposit@CCandidate@@QBE_JXZ
_TEXT	SEGMENT PARA USE32 PUBLIC 'CODE'
_TEXT	ENDS
;	COMDAT ?GetVote@CCandidate@@QAEHXZ
_TEXT	SEGMENT PARA USE32 PUBLIC 'CODE'
_TEXT	ENDS
;	COMDAT ?GetCreate@CCandidate@@QAEJXZ
_TEXT	SEGMENT PARA USE32 PUBLIC 'CODE'
_TEXT	ENDS
;	COMDAT ?GetState@IElection@@QAE?AW4ELECTION_STATE@1@XZ
_TEXT	SEGMENT PARA USE32 PUBLIC 'CODE'
_TEXT	ENDS
;	COMDAT ?Get@CLord@@QAEKXZ
_TEXT	SEGMENT PARA USE32 PUBLIC 'CODE'
_TEXT	ENDS
;	COMDAT ?GetElection@CLord@@QAEPAVIElection@@XZ
_TEXT	SEGMENT PARA USE32 PUBLIC 'CODE'
_TEXT	ENDS
;	COMDAT ??0_GUILDQUEST@@QAE@XZ
_TEXT	SEGMENT PARA USE32 PUBLIC 'CODE'
_TEXT	ENDS
;	COMDAT ??0CTax@@QAE@XZ
_TEXT	SEGMENT PARA USE32 PUBLIC 'CODE'
_TEXT	ENDS
;	COMDAT ??1?$map@EPAU__TAXINFO@@U?$less@E@std@@V?$allocator@U?$pair@$$CBEPAU__TAXINFO@@@std@@@3@@std@@QAE@XZ
_TEXT	SEGMENT PARA USE32 PUBLIC 'CODE'
_TEXT	ENDS
;	COMDAT ??1CTax@@QAE@XZ
_TEXT	SEGMENT PARA USE32 PUBLIC 'CODE'
_TEXT	ENDS
;	COMDAT ??_G__TAXINFO@@QAEPAXI@Z
_TEXT	SEGMENT PARA USE32 PUBLIC 'CODE'
_TEXT	ENDS
;	COMDAT ??1__TAXINFO@@QAE@XZ
_TEXT	SEGMENT PARA USE32 PUBLIC 'CODE'
_TEXT	ENDS
;	COMDAT ?GetInstance@CTax@@SAPAV1@XZ
_TEXT	SEGMENT PARA USE32 PUBLIC 'CODE'
_TEXT	ENDS
;	COMDAT _$E2
text$yd	SEGMENT PARA USE32 PUBLIC 'CODE'
text$yd	ENDS
;	COMDAT ?GetTaxInfo@CTax@@QAEPAU__TAXINFO@@E@Z
_TEXT	SEGMENT PARA USE32 PUBLIC 'CODE'
_TEXT	ENDS
;	COMDAT ?LoadScript@CTax@@QAEXXZ
_TEXT	SEGMENT PARA USE32 PUBLIC 'CODE'
_TEXT	ENDS
;	COMDAT ?CheckChangeTime@CTax@@QAEXHH@Z
_TEXT	SEGMENT PARA USE32 PUBLIC 'CODE'
_TEXT	ENDS
;	COMDAT ?SetChangeNextTax@CTax@@QAEXXZ
_TEXT	SEGMENT PARA USE32 PUBLIC 'CODE'
_TEXT	ENDS
;	COMDAT ?CheckPayTime@CTax@@QAEHXZ
_TEXT	SEGMENT PARA USE32 PUBLIC 'CODE'
_TEXT	ENDS
;	COMDAT ?GetEarningRate@CTax@@QAEMEE@Z
_TEXT	SEGMENT PARA USE32 PUBLIC 'CODE'
_TEXT	ENDS
;	COMDAT ?LoadTaxInfo@CTax@@QAEXK@Z
_TEXT	SEGMENT PARA USE32 PUBLIC 'CODE'
_TEXT	ENDS
;	COMDAT ?SetNextSecretRoomGuild@CTax@@QAEXEK@Z
_TEXT	SEGMENT PARA USE32 PUBLIC 'CODE'
_TEXT	ENDS
;	COMDAT ?SetNextLord@CTax@@QAEXK@Z
_TEXT	SEGMENT PARA USE32 PUBLIC 'CODE'
_TEXT	ENDS
;	COMDAT ?SetNextTaxRate@CTax@@QAEXEHH@Z
_TEXT	SEGMENT PARA USE32 PUBLIC 'CODE'
_TEXT	ENDS
;	COMDAT ?SetApplyTaxRateNow@CTax@@QAEXXZ
_TEXT	SEGMENT PARA USE32 PUBLIC 'CODE'
_TEXT	ENDS
;	COMDAT ?Serialize@CTax@@QAEXAAVCAr@@@Z
_TEXT	SEGMENT PARA USE32 PUBLIC 'CODE'
_TEXT	ENDS
;	COMDAT ?AddTax@CTax@@QAEHEHE@Z
_TEXT	SEGMENT PARA USE32 PUBLIC 'CODE'
_TEXT	ENDS
;	COMDAT ??0CTaxDBController@@QAE@XZ
_TEXT	SEGMENT PARA USE32 PUBLIC 'CODE'
_TEXT	ENDS
;	COMDAT ??_GCTaxDBController@@UAEPAXI@Z
_TEXT	SEGMENT PARA USE32 PUBLIC 'CODE'
_TEXT	ENDS
;	COMDAT ??1CTaxDBController@@UAE@XZ
_TEXT	SEGMENT PARA USE32 PUBLIC 'CODE'
_TEXT	ENDS
;	COMDAT ?Handler@CTaxDBController@@UAEXPAUtagDB_OVERLAPPED_PLUS@@K@Z
_TEXT	SEGMENT PARA USE32 PUBLIC 'CODE'
_TEXT	ENDS
;	COMDAT ?OnTimer@CTaxDBController@@UAEXXZ
_TEXT	SEGMENT PARA USE32 PUBLIC 'CODE'
_TEXT	ENDS
;	COMDAT ?PayTaxToPost@CTaxDBController@@AAEXXZ
_TEXT	SEGMENT PARA USE32 PUBLIC 'CODE'
_TEXT	ENDS
;	COMDAT ?LoadTaxInfo@CTaxDBController@@AAEXXZ
_TEXT	SEGMENT PARA USE32 PUBLIC 'CODE'
_TEXT	ENDS
;	COMDAT ?InsertToDB@CTaxDBController@@AAEXXZ
_TEXT	SEGMENT PARA USE32 PUBLIC 'CODE'
_TEXT	ENDS
;	COMDAT ?UpdateToDB@CTaxDBController@@AAEXE@Z
_TEXT	SEGMENT PARA USE32 PUBLIC 'CODE'
_TEXT	ENDS
;	COMDAT ?UpdateAllToDB@CTaxDBController@@AAEXXZ
_TEXT	SEGMENT PARA USE32 PUBLIC 'CODE'
_TEXT	ENDS
;	COMDAT ?Replace@?$CStringT@DV?$StrTraitMFC@DV?$ChTraitsCRT@D@ATL@@@@@ATL@@QAEHPBD0@Z
_TEXT	SEGMENT PARA USE32 PUBLIC 'CODE'
_TEXT	ENDS
;	COMDAT ??0?$basic_string@DU?$char_traits@D@std@@V?$allocator@D@2@@std@@QAE@XZ
_TEXT	SEGMENT PARA USE32 PUBLIC 'CODE'
_TEXT	ENDS
;	COMDAT ?compare@?$basic_string@DU?$char_traits@D@std@@V?$allocator@D@2@@std@@QBEHABV12@@Z
_TEXT	SEGMENT PARA USE32 PUBLIC 'CODE'
_TEXT	ENDS
;	COMDAT ?push_back@?$vector@KV?$allocator@K@std@@@std@@QAEXABK@Z
_TEXT	SEGMENT PARA USE32 PUBLIC 'CODE'
_TEXT	ENDS
;	COMDAT ?clear@?$vector@KV?$allocator@K@std@@@std@@QAEXXZ
_TEXT	SEGMENT PARA USE32 PUBLIC 'CODE'
_TEXT	ENDS
;	COMDAT ??0?$map@EPAU__TAXDETAIL@@U?$less@E@std@@V?$allocator@U?$pair@$$CBEPAU__TAXDETAIL@@@std@@@3@@std@@QAE@XZ
_TEXT	SEGMENT PARA USE32 PUBLIC 'CODE'
_TEXT	ENDS
;	COMDAT ??1?$_Tree@V?$_Tmap_traits@EPAU__TAXDETAIL@@U?$less@E@std@@V?$allocator@U?$pair@$$CBEPAU__TAXDETAIL@@@std@@@3@$0A@@std@@@std@@QAE@XZ
_TEXT	SEGMENT PARA USE32 PUBLIC 'CODE'
_TEXT	ENDS
;	COMDAT ?begin@?$_Tree@V?$_Tmap_traits@EPAU__TAXDETAIL@@U?$less@E@std@@V?$allocator@U?$pair@$$CBEPAU__TAXDETAIL@@@std@@@3@$0A@@std@@@std@@QAE?AViterator@12@XZ
_TEXT	SEGMENT PARA USE32 PUBLIC 'CODE'
_TEXT	ENDS
;	COMDAT ?end@?$_Tree@V?$_Tmap_traits@EPAU__TAXDETAIL@@U?$less@E@std@@V?$allocator@U?$pair@$$CBEPAU__TAXDETAIL@@@std@@@3@$0A@@std@@@std@@QAE?AViterator@12@XZ
_TEXT	SEGMENT PARA USE32 PUBLIC 'CODE'
_TEXT	ENDS
;	COMDAT ?size@?$_Tree@V?$_Tmap_traits@EPAU__TAXDETAIL@@U?$less@E@std@@V?$allocator@U?$pair@$$CBEPAU__TAXDETAIL@@@std@@@3@$0A@@std@@@std@@QBEIXZ
_TEXT	SEGMENT PARA USE32 PUBLIC 'CODE'
_TEXT	ENDS
;	COMDAT ?insert@?$_Tree@V?$_Tmap_traits@EPAU__TAXDETAIL@@U?$less@E@std@@V?$allocator@U?$pair@$$CBEPAU__TAXDETAIL@@@std@@@3@$0A@@std@@@std@@QAE?AU?$pair@Viterator@?$_Tree@V?$_Tmap_traits@EPAU__TAXDETAIL@@U?$less@E@std@@V?$allocator@U?$pair@$$CBEPAU__TAXDETAIL@@@std@@@3@$0A@@std@@@std@@_N@2@ABU?$pair@$$CBEPAU__TAXDETAIL@@@2@@Z
_TEXT	SEGMENT PARA USE32 PUBLIC 'CODE'
_TEXT	ENDS
;	COMDAT ?find@?$_Tree@V?$_Tmap_traits@EPAU__TAXDETAIL@@U?$less@E@std@@V?$allocator@U?$pair@$$CBEPAU__TAXDETAIL@@@std@@@3@$0A@@std@@@std@@QAE?AViterator@12@ABE@Z
_TEXT	SEGMENT PARA USE32 PUBLIC 'CODE'
_TEXT	ENDS
;	COMDAT ??Citerator@?$_Tree@V?$_Tmap_traits@EPAU__TAXDETAIL@@U?$less@E@std@@V?$allocator@U?$pair@$$CBEPAU__TAXDETAIL@@@std@@@3@$0A@@std@@@std@@QBEPAU?$pair@$$CBEPAU__TAXDETAIL@@@2@XZ
_TEXT	SEGMENT PARA USE32 PUBLIC 'CODE'
_TEXT	ENDS
;	COMDAT ??Eiterator@?$_Tree@V?$_Tmap_traits@EPAU__TAXDETAIL@@U?$less@E@std@@V?$allocator@U?$pair@$$CBEPAU__TAXDETAIL@@@std@@@3@$0A@@std@@@std@@QAE?AV012@H@Z
_TEXT	SEGMENT PARA USE32 PUBLIC 'CODE'
_TEXT	ENDS
;	COMDAT ??8const_iterator@?$_Tree@V?$_Tmap_traits@EPAU__TAXDETAIL@@U?$less@E@std@@V?$allocator@U?$pair@$$CBEPAU__TAXDETAIL@@@std@@@3@$0A@@std@@@std@@QBE_NABV012@@Z
_TEXT	SEGMENT PARA USE32 PUBLIC 'CODE'
_TEXT	ENDS
;	COMDAT ??9const_iterator@?$_Tree@V?$_Tmap_traits@EPAU__TAXDETAIL@@U?$less@E@std@@V?$allocator@U?$pair@$$CBEPAU__TAXDETAIL@@@std@@@3@$0A@@std@@@std@@QBE_NABV012@@Z
_TEXT	SEGMENT PARA USE32 PUBLIC 'CODE'
_TEXT	ENDS
;	COMDAT ??0?$map@EPAU__TAXINFO@@U?$less@E@std@@V?$allocator@U?$pair@$$CBEPAU__TAXINFO@@@std@@@3@@std@@QAE@XZ
_TEXT	SEGMENT PARA USE32 PUBLIC 'CODE'
_TEXT	ENDS
;	COMDAT ??1?$_Tree@V?$_Tmap_traits@EPAU__TAXINFO@@U?$less@E@std@@V?$allocator@U?$pair@$$CBEPAU__TAXINFO@@@std@@@3@$0A@@std@@@std@@QAE@XZ
_TEXT	SEGMENT PARA USE32 PUBLIC 'CODE'
_TEXT	ENDS
;	COMDAT ?begin@?$_Tree@V?$_Tmap_traits@EPAU__TAXINFO@@U?$less@E@std@@V?$allocator@U?$pair@$$CBEPAU__TAXINFO@@@std@@@3@$0A@@std@@@std@@QAE?AViterator@12@XZ
_TEXT	SEGMENT PARA USE32 PUBLIC 'CODE'
_TEXT	ENDS
;	COMDAT ?end@?$_Tree@V?$_Tmap_traits@EPAU__TAXINFO@@U?$less@E@std@@V?$allocator@U?$pair@$$CBEPAU__TAXINFO@@@std@@@3@$0A@@std@@@std@@QAE?AViterator@12@XZ
_TEXT	SEGMENT PARA USE32 PUBLIC 'CODE'
_TEXT	ENDS
;	COMDAT ?size@?$_Tree@V?$_Tmap_traits@EPAU__TAXINFO@@U?$less@E@std@@V?$allocator@U?$pair@$$CBEPAU__TAXINFO@@@std@@@3@$0A@@std@@@std@@QBEIXZ
_TEXT	SEGMENT PARA USE32 PUBLIC 'CODE'
_TEXT	ENDS
;	COMDAT ?insert@?$_Tree@V?$_Tmap_traits@EPAU__TAXINFO@@U?$less@E@std@@V?$allocator@U?$pair@$$CBEPAU__TAXINFO@@@std@@@3@$0A@@std@@@std@@QAE?AU?$pair@Viterator@?$_Tree@V?$_Tmap_traits@EPAU__TAXINFO@@U?$less@E@std@@V?$allocator@U?$pair@$$CBEPAU__TAXINFO@@@std@@@3@$0A@@std@@@std@@_N@2@ABU?$pair@$$CBEPAU__TAXINFO@@@2@@Z
_TEXT	SEGMENT PARA USE32 PUBLIC 'CODE'
_TEXT	ENDS
;	COMDAT ?clear@?$_Tree@V?$_Tmap_traits@EPAU__TAXINFO@@U?$less@E@std@@V?$allocator@U?$pair@$$CBEPAU__TAXINFO@@@std@@@3@$0A@@std@@@std@@QAEXXZ
_TEXT	SEGMENT PARA USE32 PUBLIC 'CODE'
_TEXT	ENDS
;	COMDAT ?find@?$_Tree@V?$_Tmap_traits@EPAU__TAXINFO@@U?$less@E@std@@V?$allocator@U?$pair@$$CBEPAU__TAXINFO@@@std@@@3@$0A@@std@@@std@@QAE?AViterator@12@ABE@Z
_TEXT	SEGMENT PARA USE32 PUBLIC 'CODE'
_TEXT	ENDS
;	COMDAT ??R?$less@PAVsp_counted_base@detail@boost@@@std@@QBE_NABQAVsp_counted_base@detail@boost@@0@Z
_TEXT	SEGMENT PARA USE32 PUBLIC 'CODE'
_TEXT	ENDS
;	COMDAT ?size@?$vector@PAVCLordSkillComponentExecutable@@V?$allocator@PAVCLordSkillComponentExecutable@@@std@@@std@@QBEIXZ
_TEXT	SEGMENT PARA USE32 PUBLIC 'CODE'
_TEXT	ENDS
;	COMDAT ?size@?$vector@V?$shared_ptr@VCCandidate@@@boost@@V?$allocator@V?$shared_ptr@VCCandidate@@@boost@@@std@@@std@@QBEIXZ
_TEXT	SEGMENT PARA USE32 PUBLIC 'CODE'
_TEXT	ENDS
;	COMDAT ??0?$vector@MV?$allocator@M@std@@@std@@QAE@XZ
_TEXT	SEGMENT PARA USE32 PUBLIC 'CODE'
_TEXT	ENDS
;	COMDAT ??1?$vector@MV?$allocator@M@std@@@std@@QAE@XZ
_TEXT	SEGMENT PARA USE32 PUBLIC 'CODE'
_TEXT	ENDS
;	COMDAT ??0?$vector@HV?$allocator@H@std@@@std@@QAE@XZ
_TEXT	SEGMENT PARA USE32 PUBLIC 'CODE'
_TEXT	ENDS
;	COMDAT ??1?$vector@HV?$allocator@H@std@@@std@@QAE@XZ
_TEXT	SEGMENT PARA USE32 PUBLIC 'CODE'
_TEXT	ENDS
;	COMDAT ??C?$shared_ptr@VCCandidate@@@boost@@QBEPAVCCandidate@@XZ
_TEXT	SEGMENT PARA USE32 PUBLIC 'CODE'
_TEXT	ENDS
;	COMDAT ?size@?$vector@PAVCLEComponent@@V?$allocator@PAVCLEComponent@@@std@@@std@@QBEIXZ
_TEXT	SEGMENT PARA USE32 PUBLIC 'CODE'
_TEXT	ENDS
;	COMDAT ?size@?$vector@U?$pair@M_J@std@@V?$allocator@U?$pair@M_J@std@@@2@@std@@QBEIXZ
_TEXT	SEGMENT PARA USE32 PUBLIC 'CODE'
_TEXT	ENDS
;	COMDAT ?size@?$_Tree@V?$_Tmap_traits@KPAU_PlayerData@@U?$less@K@std@@V?$allocator@U?$pair@$$CBKPAU_PlayerData@@@std@@@3@$0A@@std@@@std@@QBEIXZ
_TEXT	SEGMENT PARA USE32 PUBLIC 'CODE'
_TEXT	ENDS
;	COMDAT ?end@?$_Tree@V?$_Tmap_traits@KP8CDPTrans@@AEXAAVCAr@@KKKPAEK@ZU?$less@K@std@@V?$allocator@U?$pair@$$CBKP8CDPTrans@@AEXAAVCAr@@KKKPAEK@Z@std@@@4@$0A@@std@@@std@@QAE?AViterator@12@XZ
_TEXT	SEGMENT PARA USE32 PUBLIC 'CODE'
_TEXT	ENDS
;	COMDAT ?find@?$_Tree@V?$_Tmap_traits@KP8CDPTrans@@AEXAAVCAr@@KKKPAEK@ZU?$less@K@std@@V?$allocator@U?$pair@$$CBKP8CDPTrans@@AEXAAVCAr@@KKKPAEK@Z@std@@@4@$0A@@std@@@std@@QAE?AViterator@12@ABK@Z
_TEXT	SEGMENT PARA USE32 PUBLIC 'CODE'
_TEXT	ENDS
;	COMDAT ??Citerator@?$_Tree@V?$_Tmap_traits@KP8CDPTrans@@AEXAAVCAr@@KKKPAEK@ZU?$less@K@std@@V?$allocator@U?$pair@$$CBKP8CDPTrans@@AEXAAVCAr@@KKKPAEK@Z@std@@@4@$0A@@std@@@std@@QBEPAU?$pair@$$CBKP8CDPTrans@@AEXAAVCAr@@KKKPAEK@Z@2@XZ
_TEXT	SEGMENT PARA USE32 PUBLIC 'CODE'
_TEXT	ENDS
;	COMDAT ??9const_iterator@?$_Tree@V?$_Tmap_traits@KP8CDPTrans@@AEXAAVCAr@@KKKPAEK@ZU?$less@K@std@@V?$allocator@U?$pair@$$CBKP8CDPTrans@@AEXAAVCAr@@KKKPAEK@Z@std@@@4@$0A@@std@@@std@@QBE_NABV012@@Z
_TEXT	SEGMENT PARA USE32 PUBLIC 'CODE'
_TEXT	ENDS
;	COMDAT ?Alloc@?$MemPooler@VCGuildMember@@@@QAEPAVCGuildMember@@XZ
_TEXT	SEGMENT PARA USE32 PUBLIC 'CODE'
_TEXT	ENDS
;	COMDAT ?Free@?$MemPooler@VCGuildMember@@@@QAEHPAVCGuildMember@@@Z
_TEXT	SEGMENT PARA USE32 PUBLIC 'CODE'
_TEXT	ENDS
;	COMDAT ?size@?$_Tree@V?$_Tmap_traits@KPAVCGuildMember@@U?$less@K@std@@V?$allocator@U?$pair@$$CBKPAVCGuildMember@@@std@@@3@$0A@@std@@@std@@QBEIXZ
_TEXT	SEGMENT PARA USE32 PUBLIC 'CODE'
_TEXT	ENDS
;	COMDAT ?Alloc@?$MemPooler@VCGuild@@@@QAEPAVCGuild@@XZ
_TEXT	SEGMENT PARA USE32 PUBLIC 'CODE'
_TEXT	ENDS
;	COMDAT ?Free@?$MemPooler@VCGuild@@@@QAEHPAVCGuild@@@Z
_TEXT	SEGMENT PARA USE32 PUBLIC 'CODE'
_TEXT	ENDS
;	COMDAT ?size@?$_Tree@V?$_Tmap_traits@KPAVCGuild@@U?$less@K@std@@V?$allocator@U?$pair@$$CBKPAVCGuild@@@std@@@3@$0A@@std@@@std@@QBEIXZ
_TEXT	SEGMENT PARA USE32 PUBLIC 'CODE'
_TEXT	ENDS
;	COMDAT ??Citerator@?$_Tree@V?$_Tmap_traits@EPAU__TAXINFO@@U?$less@E@std@@V?$allocator@U?$pair@$$CBEPAU__TAXINFO@@@std@@@3@$0A@@std@@@std@@QBEPAU?$pair@$$CBEPAU__TAXINFO@@@2@XZ
_TEXT	SEGMENT PARA USE32 PUBLIC 'CODE'
_TEXT	ENDS
;	COMDAT ??Eiterator@?$_Tree@V?$_Tmap_traits@EPAU__TAXINFO@@U?$less@E@std@@V?$allocator@U?$pair@$$CBEPAU__TAXINFO@@@std@@@3@$0A@@std@@@std@@QAE?AV012@H@Z
_TEXT	SEGMENT PARA USE32 PUBLIC 'CODE'
_TEXT	ENDS
;	COMDAT ??9const_iterator@?$_Tree@V?$_Tmap_traits@EPAU__TAXINFO@@U?$less@E@std@@V?$allocator@U?$pair@$$CBEPAU__TAXINFO@@@std@@@3@$0A@@std@@@std@@QBE_NABV012@@Z
_TEXT	SEGMENT PARA USE32 PUBLIC 'CODE'
_TEXT	ENDS
;	COMDAT ?StringFindString@?$ChTraitsCRT@D@ATL@@SAPADPADPBD@Z
_TEXT	SEGMENT PARA USE32 PUBLIC 'CODE'
_TEXT	ENDS
;	COMDAT ?SafeStringLen@?$ChTraitsCRT@D@ATL@@SAHPBD@Z
_TEXT	SEGMENT PARA USE32 PUBLIC 'CODE'
_TEXT	ENDS
;	COMDAT ?compare@?$basic_string@DU?$char_traits@D@std@@V?$allocator@D@2@@std@@QBEHIIPBDI@Z
_TEXT	SEGMENT PARA USE32 PUBLIC 'CODE'
_TEXT	ENDS
;	COMDAT ??R?$less@E@std@@QBE_NABE0@Z
_TEXT	SEGMENT PARA USE32 PUBLIC 'CODE'
_TEXT	ENDS
;	COMDAT ?capacity@?$vector@KV?$allocator@K@std@@@std@@QBEIXZ
_TEXT	SEGMENT PARA USE32 PUBLIC 'CODE'
_TEXT	ENDS
;	COMDAT ?end@?$vector@KV?$allocator@K@std@@@std@@QAE?AViterator@12@XZ
_TEXT	SEGMENT PARA USE32 PUBLIC 'CODE'
_TEXT	ENDS
;	COMDAT ?size@?$vector@KV?$allocator@K@std@@@std@@QBEIXZ
_TEXT	SEGMENT PARA USE32 PUBLIC 'CODE'
_TEXT	ENDS
;	COMDAT ?insert@?$vector@KV?$allocator@K@std@@@std@@QAE?AViterator@12@V312@ABK@Z
_TEXT	SEGMENT PARA USE32 PUBLIC 'CODE'
_TEXT	ENDS
;	COMDAT ?_Ufill@?$vector@KV?$allocator@K@std@@@std@@IAEPAKPAKIABK@Z
_TEXT	SEGMENT PARA USE32 PUBLIC 'CODE'
_TEXT	ENDS
;	COMDAT ??0?$allocator@H@std@@QAE@XZ
_TEXT	SEGMENT PARA USE32 PUBLIC 'CODE'
_TEXT	ENDS
;	COMDAT ?_Isnil@?$_Tree@V?$_Tmap_traits@EPAU__TAXDETAIL@@U?$less@E@std@@V?$allocator@U?$pair@$$CBEPAU__TAXDETAIL@@@std@@@3@$0A@@std@@@std@@KAAADPAU_Node@?$_Tree_nod@V?$_Tmap_traits@EPAU__TAXDETAIL@@U?$less@E@std@@V?$allocator@U?$pair@$$CBEPAU__TAXDETAIL@@@std@@@3@$0A@@std@@@2@@Z
_TEXT	SEGMENT PARA USE32 PUBLIC 'CODE'
_TEXT	ENDS
;	COMDAT ?_Key@?$_Tree@V?$_Tmap_traits@EPAU__TAXDETAIL@@U?$less@E@std@@V?$allocator@U?$pair@$$CBEPAU__TAXDETAIL@@@std@@@3@$0A@@std@@@std@@KAABEPAU_Node@?$_Tree_nod@V?$_Tmap_traits@EPAU__TAXDETAIL@@U?$less@E@std@@V?$allocator@U?$pair@$$CBEPAU__TAXDETAIL@@@std@@@3@$0A@@std@@@2@@Z
_TEXT	SEGMENT PARA USE32 PUBLIC 'CODE'
_TEXT	ENDS
;	COMDAT ?_Left@?$_Tree@V?$_Tmap_traits@EPAU__TAXDETAIL@@U?$less@E@std@@V?$allocator@U?$pair@$$CBEPAU__TAXDETAIL@@@std@@@3@$0A@@std@@@std@@KAAAPAU_Node@?$_Tree_nod@V?$_Tmap_traits@EPAU__TAXDETAIL@@U?$less@E@std@@V?$allocator@U?$pair@$$CBEPAU__TAXDETAIL@@@std@@@3@$0A@@std@@@2@PAU342@@Z
_TEXT	SEGMENT PARA USE32 PUBLIC 'CODE'
_TEXT	ENDS
;	COMDAT ?_Right@?$_Tree@V?$_Tmap_traits@EPAU__TAXDETAIL@@U?$less@E@std@@V?$allocator@U?$pair@$$CBEPAU__TAXDETAIL@@@std@@@3@$0A@@std@@@std@@KAAAPAU_Node@?$_Tree_nod@V?$_Tmap_traits@EPAU__TAXDETAIL@@U?$less@E@std@@V?$allocator@U?$pair@$$CBEPAU__TAXDETAIL@@@std@@@3@$0A@@std@@@2@PAU342@@Z
_TEXT	SEGMENT PARA USE32 PUBLIC 'CODE'
_TEXT	ENDS
;	COMDAT ??0?$_Tree@V?$_Tmap_traits@EPAU__TAXDETAIL@@U?$less@E@std@@V?$allocator@U?$pair@$$CBEPAU__TAXDETAIL@@@std@@@3@$0A@@std@@@std@@QAE@ABU?$less@E@1@ABV?$allocator@U?$pair@$$CBEPAU__TAXDETAIL@@@std@@@1@@Z
_TEXT	SEGMENT PARA USE32 PUBLIC 'CODE'
_TEXT	ENDS
;	COMDAT ?lower_bound@?$_Tree@V?$_Tmap_traits@EPAU__TAXDETAIL@@U?$less@E@std@@V?$allocator@U?$pair@$$CBEPAU__TAXDETAIL@@@std@@@3@$0A@@std@@@std@@QAE?AViterator@12@ABE@Z
_TEXT	SEGMENT PARA USE32 PUBLIC 'CODE'
_TEXT	ENDS
;	COMDAT ?_Insert@?$_Tree@V?$_Tmap_traits@EPAU__TAXDETAIL@@U?$less@E@std@@V?$allocator@U?$pair@$$CBEPAU__TAXDETAIL@@@std@@@3@$0A@@std@@@std@@IAE?AViterator@12@_NPAU_Node@?$_Tree_nod@V?$_Tmap_traits@EPAU__TAXDETAIL@@U?$less@E@std@@V?$allocator@U?$pair@$$CBEPAU__TAXDETAIL@@@std@@@3@$0A@@std@@@2@ABU?$pair@$$CBEPAU__TAXDETAIL@@@2@@Z
_TEXT	SEGMENT PARA USE32 PUBLIC 'CODE'
_TEXT	ENDS
;	COMDAT ?_Lmost@?$_Tree@V?$_Tmap_traits@EPAU__TAXDETAIL@@U?$less@E@std@@V?$allocator@U?$pair@$$CBEPAU__TAXDETAIL@@@std@@@3@$0A@@std@@@std@@IAEAAPAU_Node@?$_Tree_nod@V?$_Tmap_traits@EPAU__TAXDETAIL@@U?$less@E@std@@V?$allocator@U?$pair@$$CBEPAU__TAXDETAIL@@@std@@@3@$0A@@std@@@2@XZ
_TEXT	SEGMENT PARA USE32 PUBLIC 'CODE'
_TEXT	ENDS
;	COMDAT ?_Root@?$_Tree@V?$_Tmap_traits@EPAU__TAXDETAIL@@U?$less@E@std@@V?$allocator@U?$pair@$$CBEPAU__TAXDETAIL@@@std@@@3@$0A@@std@@@std@@IAEAAPAU_Node@?$_Tree_nod@V?$_Tmap_traits@EPAU__TAXDETAIL@@U?$less@E@std@@V?$allocator@U?$pair@$$CBEPAU__TAXDETAIL@@@std@@@3@$0A@@std@@@2@XZ
_TEXT	SEGMENT PARA USE32 PUBLIC 'CODE'
_TEXT	ENDS
;	COMDAT ?_Tidy@?$_Tree@V?$_Tmap_traits@EPAU__TAXDETAIL@@U?$less@E@std@@V?$allocator@U?$pair@$$CBEPAU__TAXDETAIL@@@std@@@3@$0A@@std@@@std@@IAEXXZ
_TEXT	SEGMENT PARA USE32 PUBLIC 'CODE'
_TEXT	ENDS
;	COMDAT ?_Kfn@?$_Tmap_traits@EPAU__TAXDETAIL@@U?$less@E@std@@V?$allocator@U?$pair@$$CBEPAU__TAXDETAIL@@@std@@@3@$0A@@std@@SAABEABU?$pair@$$CBEPAU__TAXDETAIL@@@2@@Z
_TEXT	SEGMENT PARA USE32 PUBLIC 'CODE'
_TEXT	ENDS
;	COMDAT ??0?$allocator@U?$pair@$$CBEPAU__TAXDETAIL@@@std@@@std@@QAE@XZ
_TEXT	SEGMENT PARA USE32 PUBLIC 'CODE'
_TEXT	ENDS
;	COMDAT ??0?$pair@Viterator@?$_Tree@V?$_Tmap_traits@EPAU__TAXDETAIL@@U?$less@E@std@@V?$allocator@U?$pair@$$CBEPAU__TAXDETAIL@@@std@@@3@$0A@@std@@@std@@_N@std@@QAE@ABViterator@?$_Tree@V?$_Tmap_traits@EPAU__TAXDETAIL@@U?$less@E@std@@V?$allocator@U?$pair@$$CBEPAU__TAXDETAIL@@@std@@@3@$0A@@std@@@1@AB_N@Z
_TEXT	SEGMENT PARA USE32 PUBLIC 'CODE'
_TEXT	ENDS
;	COMDAT ??0iterator@?$_Tree@V?$_Tmap_traits@EPAU__TAXDETAIL@@U?$less@E@std@@V?$allocator@U?$pair@$$CBEPAU__TAXDETAIL@@@std@@@3@$0A@@std@@@std@@QAE@PAU_Node@?$_Tree_nod@V?$_Tmap_traits@EPAU__TAXDETAIL@@U?$less@E@std@@V?$allocator@U?$pair@$$CBEPAU__TAXDETAIL@@@std@@@3@$0A@@std@@@2@@Z
_TEXT	SEGMENT PARA USE32 PUBLIC 'CODE'
_TEXT	ENDS
;	COMDAT ??Diterator@?$_Tree@V?$_Tmap_traits@EPAU__TAXDETAIL@@U?$less@E@std@@V?$allocator@U?$pair@$$CBEPAU__TAXDETAIL@@@std@@@3@$0A@@std@@@std@@QBEAAU?$pair@$$CBEPAU__TAXDETAIL@@@2@XZ
_TEXT	SEGMENT PARA USE32 PUBLIC 'CODE'
_TEXT	ENDS
;	COMDAT ??Eiterator@?$_Tree@V?$_Tmap_traits@EPAU__TAXDETAIL@@U?$less@E@std@@V?$allocator@U?$pair@$$CBEPAU__TAXDETAIL@@@std@@@3@$0A@@std@@@std@@QAEAAV012@XZ
_TEXT	SEGMENT PARA USE32 PUBLIC 'CODE'
_TEXT	ENDS
;	COMDAT ??Fiterator@?$_Tree@V?$_Tmap_traits@EPAU__TAXDETAIL@@U?$less@E@std@@V?$allocator@U?$pair@$$CBEPAU__TAXDETAIL@@@std@@@3@$0A@@std@@@std@@QAEAAV012@XZ
_TEXT	SEGMENT PARA USE32 PUBLIC 'CODE'
_TEXT	ENDS
;	COMDAT ?_Mynode@const_iterator@?$_Tree@V?$_Tmap_traits@EPAU__TAXDETAIL@@U?$less@E@std@@V?$allocator@U?$pair@$$CBEPAU__TAXDETAIL@@@std@@@3@$0A@@std@@@std@@QBEPAU_Node@?$_Tree_nod@V?$_Tmap_traits@EPAU__TAXDETAIL@@U?$less@E@std@@V?$allocator@U?$pair@$$CBEPAU__TAXDETAIL@@@std@@@3@$0A@@std@@@3@XZ
_TEXT	SEGMENT PARA USE32 PUBLIC 'CODE'
_TEXT	ENDS
;	COMDAT ?_Isnil@?$_Tree@V?$_Tmap_traits@EPAU__TAXINFO@@U?$less@E@std@@V?$allocator@U?$pair@$$CBEPAU__TAXINFO@@@std@@@3@$0A@@std@@@std@@KAAADPAU_Node@?$_Tree_nod@V?$_Tmap_traits@EPAU__TAXINFO@@U?$less@E@std@@V?$allocator@U?$pair@$$CBEPAU__TAXINFO@@@std@@@3@$0A@@std@@@2@@Z
_TEXT	SEGMENT PARA USE32 PUBLIC 'CODE'
_TEXT	ENDS
;	COMDAT ?_Key@?$_Tree@V?$_Tmap_traits@EPAU__TAXINFO@@U?$less@E@std@@V?$allocator@U?$pair@$$CBEPAU__TAXINFO@@@std@@@3@$0A@@std@@@std@@KAABEPAU_Node@?$_Tree_nod@V?$_Tmap_traits@EPAU__TAXINFO@@U?$less@E@std@@V?$allocator@U?$pair@$$CBEPAU__TAXINFO@@@std@@@3@$0A@@std@@@2@@Z
_TEXT	SEGMENT PARA USE32 PUBLIC 'CODE'
_TEXT	ENDS
;	COMDAT ?_Left@?$_Tree@V?$_Tmap_traits@EPAU__TAXINFO@@U?$less@E@std@@V?$allocator@U?$pair@$$CBEPAU__TAXINFO@@@std@@@3@$0A@@std@@@std@@KAAAPAU_Node@?$_Tree_nod@V?$_Tmap_traits@EPAU__TAXINFO@@U?$less@E@std@@V?$allocator@U?$pair@$$CBEPAU__TAXINFO@@@std@@@3@$0A@@std@@@2@PAU342@@Z
_TEXT	SEGMENT PARA USE32 PUBLIC 'CODE'
_TEXT	ENDS
;	COMDAT ?_Right@?$_Tree@V?$_Tmap_traits@EPAU__TAXINFO@@U?$less@E@std@@V?$allocator@U?$pair@$$CBEPAU__TAXINFO@@@std@@@3@$0A@@std@@@std@@KAAAPAU_Node@?$_Tree_nod@V?$_Tmap_traits@EPAU__TAXINFO@@U?$less@E@std@@V?$allocator@U?$pair@$$CBEPAU__TAXINFO@@@std@@@3@$0A@@std@@@2@PAU342@@Z
_TEXT	SEGMENT PARA USE32 PUBLIC 'CODE'
_TEXT	ENDS
;	COMDAT ??0?$_Tree@V?$_Tmap_traits@EPAU__TAXINFO@@U?$less@E@std@@V?$allocator@U?$pair@$$CBEPAU__TAXINFO@@@std@@@3@$0A@@std@@@std@@QAE@ABU?$less@E@1@ABV?$allocator@U?$pair@$$CBEPAU__TAXINFO@@@std@@@1@@Z
_TEXT	SEGMENT PARA USE32 PUBLIC 'CODE'
_TEXT	ENDS
;	COMDAT ?lower_bound@?$_Tree@V?$_Tmap_traits@EPAU__TAXINFO@@U?$less@E@std@@V?$allocator@U?$pair@$$CBEPAU__TAXINFO@@@std@@@3@$0A@@std@@@std@@QAE?AViterator@12@ABE@Z
_TEXT	SEGMENT PARA USE32 PUBLIC 'CODE'
_TEXT	ENDS
;	COMDAT ?_Erase@?$_Tree@V?$_Tmap_traits@EPAU__TAXINFO@@U?$less@E@std@@V?$allocator@U?$pair@$$CBEPAU__TAXINFO@@@std@@@3@$0A@@std@@@std@@IAEXPAU_Node@?$_Tree_nod@V?$_Tmap_traits@EPAU__TAXINFO@@U?$less@E@std@@V?$allocator@U?$pair@$$CBEPAU__TAXINFO@@@std@@@3@$0A@@std@@@2@@Z
_TEXT	SEGMENT PARA USE32 PUBLIC 'CODE'
_TEXT	ENDS
;	COMDAT ?_Insert@?$_Tree@V?$_Tmap_traits@EPAU__TAXINFO@@U?$less@E@std@@V?$allocator@U?$pair@$$CBEPAU__TAXINFO@@@std@@@3@$0A@@std@@@std@@IAE?AViterator@12@_NPAU_Node@?$_Tree_nod@V?$_Tmap_traits@EPAU__TAXINFO@@U?$less@E@std@@V?$allocator@U?$pair@$$CBEPAU__TAXINFO@@@std@@@3@$0A@@std@@@2@ABU?$pair@$$CBEPAU__TAXINFO@@@2@@Z
_TEXT	SEGMENT PARA USE32 PUBLIC 'CODE'
_TEXT	ENDS
;	COMDAT ?_Lmost@?$_Tree@V?$_Tmap_traits@EPAU__TAXINFO@@U?$less@E@std@@V?$allocator@U?$pair@$$CBEPAU__TAXINFO@@@std@@@3@$0A@@std@@@std@@IAEAAPAU_Node@?$_Tree_nod@V?$_Tmap_traits@EPAU__TAXINFO@@U?$less@E@std@@V?$allocator@U?$pair@$$CBEPAU__TAXINFO@@@std@@@3@$0A@@std@@@2@XZ
_TEXT	SEGMENT PARA USE32 PUBLIC 'CODE'
_TEXT	ENDS
;	COMDAT ?_Rmost@?$_Tree@V?$_Tmap_traits@EPAU__TAXINFO@@U?$less@E@std@@V?$allocator@U?$pair@$$CBEPAU__TAXINFO@@@std@@@3@$0A@@std@@@std@@IAEAAPAU_Node@?$_Tree_nod@V?$_Tmap_traits@EPAU__TAXINFO@@U?$less@E@std@@V?$allocator@U?$pair@$$CBEPAU__TAXINFO@@@std@@@3@$0A@@std@@@2@XZ
_TEXT	SEGMENT PARA USE32 PUBLIC 'CODE'
_TEXT	ENDS
;	COMDAT ?_Root@?$_Tree@V?$_Tmap_traits@EPAU__TAXINFO@@U?$less@E@std@@V?$allocator@U?$pair@$$CBEPAU__TAXINFO@@@std@@@3@$0A@@std@@@std@@IAEAAPAU_Node@?$_Tree_nod@V?$_Tmap_traits@EPAU__TAXINFO@@U?$less@E@std@@V?$allocator@U?$pair@$$CBEPAU__TAXINFO@@@std@@@3@$0A@@std@@@2@XZ
_TEXT	SEGMENT PARA USE32 PUBLIC 'CODE'
_TEXT	ENDS
;	COMDAT ?_Tidy@?$_Tree@V?$_Tmap_traits@EPAU__TAXINFO@@U?$less@E@std@@V?$allocator@U?$pair@$$CBEPAU__TAXINFO@@@std@@@3@$0A@@std@@@std@@IAEXXZ
_TEXT	SEGMENT PARA USE32 PUBLIC 'CODE'
_TEXT	ENDS
;	COMDAT ?_Kfn@?$_Tmap_traits@EPAU__TAXINFO@@U?$less@E@std@@V?$allocator@U?$pair@$$CBEPAU__TAXINFO@@@std@@@3@$0A@@std@@SAABEABU?$pair@$$CBEPAU__TAXINFO@@@2@@Z
_TEXT	SEGMENT PARA USE32 PUBLIC 'CODE'
_TEXT	ENDS
;	COMDAT ??0?$allocator@U?$pair@$$CBEPAU__TAXINFO@@@std@@@std@@QAE@XZ
_TEXT	SEGMENT PARA USE32 PUBLIC 'CODE'
_TEXT	ENDS
;	COMDAT ?_Buy@?$vector@MV?$allocator@M@std@@@std@@IAE_NI@Z
_TEXT	SEGMENT PARA USE32 PUBLIC 'CODE'
_TEXT	ENDS
;	COMDAT ?_Tidy@?$vector@MV?$allocator@M@std@@@std@@IAEXXZ
_TEXT	SEGMENT PARA USE32 PUBLIC 'CODE'
_TEXT	ENDS
;	COMDAT ??0?$_Vector_val@MV?$allocator@M@std@@@std@@IAE@V?$allocator@M@1@@Z
_TEXT	SEGMENT PARA USE32 PUBLIC 'CODE'
_TEXT	ENDS
;	COMDAT ??0?$allocator@M@std@@QAE@XZ
_TEXT	SEGMENT PARA USE32 PUBLIC 'CODE'
_TEXT	ENDS
;	COMDAT ?_Buy@?$vector@HV?$allocator@H@std@@@std@@IAE_NI@Z
_TEXT	SEGMENT PARA USE32 PUBLIC 'CODE'
_TEXT	ENDS
;	COMDAT ?_Tidy@?$vector@HV?$allocator@H@std@@@std@@IAEXXZ
_TEXT	SEGMENT PARA USE32 PUBLIC 'CODE'
_TEXT	ENDS
;	COMDAT ??0?$_Vector_val@HV?$allocator@H@std@@@std@@IAE@V?$allocator@H@1@@Z
_TEXT	SEGMENT PARA USE32 PUBLIC 'CODE'
_TEXT	ENDS
;	COMDAT ?_Key@?$_Tree@V?$_Tmap_traits@KP8CDPTrans@@AEXAAVCAr@@KKKPAEK@ZU?$less@K@std@@V?$allocator@U?$pair@$$CBKP8CDPTrans@@AEXAAVCAr@@KKKPAEK@Z@std@@@4@$0A@@std@@@std@@KAABKPAU_Node@?$_Tree_nod@V?$_Tmap_traits@KP8CDPTrans@@AEXAAVCAr@@KKKPAEK@ZU?$less@K@std@@V?$allocator@U?$pair@$$CBKP8CDPTrans@@AEXAAVCAr@@KKKPAEK@Z@std@@@4@$0A@@std@@@2@@Z
_TEXT	SEGMENT PARA USE32 PUBLIC 'CODE'
_TEXT	ENDS
;	COMDAT ?lower_bound@?$_Tree@V?$_Tmap_traits@KP8CDPTrans@@AEXAAVCAr@@KKKPAEK@ZU?$less@K@std@@V?$allocator@U?$pair@$$CBKP8CDPTrans@@AEXAAVCAr@@KKKPAEK@Z@std@@@4@$0A@@std@@@std@@QAE?AViterator@12@ABK@Z
_TEXT	SEGMENT PARA USE32 PUBLIC 'CODE'
_TEXT	ENDS
;	COMDAT ??0iterator@?$_Tree@V?$_Tmap_traits@KP8CDPTrans@@AEXAAVCAr@@KKKPAEK@ZU?$less@K@std@@V?$allocator@U?$pair@$$CBKP8CDPTrans@@AEXAAVCAr@@KKKPAEK@Z@std@@@4@$0A@@std@@@std@@QAE@PAU_Node@?$_Tree_nod@V?$_Tmap_traits@KP8CDPTrans@@AEXAAVCAr@@KKKPAEK@ZU?$less@K@std@@V?$allocator@U?$pair@$$CBKP8CDPTrans@@AEXAAVCAr@@KKKPAEK@Z@std@@@4@$0A@@std@@@2@@Z
_TEXT	SEGMENT PARA USE32 PUBLIC 'CODE'
_TEXT	ENDS
;	COMDAT ??Diterator@?$_Tree@V?$_Tmap_traits@KP8CDPTrans@@AEXAAVCAr@@KKKPAEK@ZU?$less@K@std@@V?$allocator@U?$pair@$$CBKP8CDPTrans@@AEXAAVCAr@@KKKPAEK@Z@std@@@4@$0A@@std@@@std@@QBEAAU?$pair@$$CBKP8CDPTrans@@AEXAAVCAr@@KKKPAEK@Z@2@XZ
_TEXT	SEGMENT PARA USE32 PUBLIC 'CODE'
_TEXT	ENDS
;	COMDAT ??8const_iterator@?$_Tree@V?$_Tmap_traits@KP8CDPTrans@@AEXAAVCAr@@KKKPAEK@ZU?$less@K@std@@V?$allocator@U?$pair@$$CBKP8CDPTrans@@AEXAAVCAr@@KKKPAEK@Z@std@@@4@$0A@@std@@@std@@QBE_NABV012@@Z
_TEXT	SEGMENT PARA USE32 PUBLIC 'CODE'
_TEXT	ENDS
;	COMDAT ?_Mynode@const_iterator@?$_Tree@V?$_Tmap_traits@KP8CDPTrans@@AEXAAVCAr@@KKKPAEK@ZU?$less@K@std@@V?$allocator@U?$pair@$$CBKP8CDPTrans@@AEXAAVCAr@@KKKPAEK@Z@std@@@4@$0A@@std@@@std@@QBEPAU_Node@?$_Tree_nod@V?$_Tmap_traits@KP8CDPTrans@@AEXAAVCAr@@KKKPAEK@ZU?$less@K@std@@V?$allocator@U?$pair@$$CBKP8CDPTrans@@AEXAAVCAr@@KKKPAEK@Z@std@@@4@$0A@@std@@@3@XZ
_TEXT	SEGMENT PARA USE32 PUBLIC 'CODE'
_TEXT	ENDS
;	COMDAT ?Create@?$MemPooler@VCGuildMember@@@@IAEXXZ
_TEXT	SEGMENT PARA USE32 PUBLIC 'CODE'
_TEXT	ENDS
;	COMDAT ?Create@?$MemPooler@VCGuild@@@@IAEXXZ
_TEXT	SEGMENT PARA USE32 PUBLIC 'CODE'
_TEXT	ENDS
;	COMDAT ??0?$pair@Viterator@?$_Tree@V?$_Tmap_traits@EPAU__TAXINFO@@U?$less@E@std@@V?$allocator@U?$pair@$$CBEPAU__TAXINFO@@@std@@@3@$0A@@std@@@std@@_N@std@@QAE@ABViterator@?$_Tree@V?$_Tmap_traits@EPAU__TAXINFO@@U?$less@E@std@@V?$allocator@U?$pair@$$CBEPAU__TAXINFO@@@std@@@3@$0A@@std@@@1@AB_N@Z
_TEXT	SEGMENT PARA USE32 PUBLIC 'CODE'
_TEXT	ENDS
;	COMDAT ??0iterator@?$_Tree@V?$_Tmap_traits@EPAU__TAXINFO@@U?$less@E@std@@V?$allocator@U?$pair@$$CBEPAU__TAXINFO@@@std@@@3@$0A@@std@@@std@@QAE@PAU_Node@?$_Tree_nod@V?$_Tmap_traits@EPAU__TAXINFO@@U?$less@E@std@@V?$allocator@U?$pair@$$CBEPAU__TAXINFO@@@std@@@3@$0A@@std@@@2@@Z
_TEXT	SEGMENT PARA USE32 PUBLIC 'CODE'
_TEXT	ENDS
;	COMDAT ??Diterator@?$_Tree@V?$_Tmap_traits@EPAU__TAXINFO@@U?$less@E@std@@V?$allocator@U?$pair@$$CBEPAU__TAXINFO@@@std@@@3@$0A@@std@@@std@@QBEAAU?$pair@$$CBEPAU__TAXINFO@@@2@XZ
_TEXT	SEGMENT PARA USE32 PUBLIC 'CODE'
_TEXT	ENDS
;	COMDAT ??Eiterator@?$_Tree@V?$_Tmap_traits@EPAU__TAXINFO@@U?$less@E@std@@V?$allocator@U?$pair@$$CBEPAU__TAXINFO@@@std@@@3@$0A@@std@@@std@@QAEAAV012@XZ
_TEXT	SEGMENT PARA USE32 PUBLIC 'CODE'
_TEXT	ENDS
;	COMDAT ??Fiterator@?$_Tree@V?$_Tmap_traits@EPAU__TAXINFO@@U?$less@E@std@@V?$allocator@U?$pair@$$CBEPAU__TAXINFO@@@std@@@3@$0A@@std@@@std@@QAEAAV012@XZ
_TEXT	SEGMENT PARA USE32 PUBLIC 'CODE'
_TEXT	ENDS
;	COMDAT ??8const_iterator@?$_Tree@V?$_Tmap_traits@EPAU__TAXINFO@@U?$less@E@std@@V?$allocator@U?$pair@$$CBEPAU__TAXINFO@@@std@@@3@$0A@@std@@@std@@QBE_NABV012@@Z
_TEXT	SEGMENT PARA USE32 PUBLIC 'CODE'
_TEXT	ENDS
;	COMDAT ?_Mynode@const_iterator@?$_Tree@V?$_Tmap_traits@EPAU__TAXINFO@@U?$less@E@std@@V?$allocator@U?$pair@$$CBEPAU__TAXINFO@@@std@@@3@$0A@@std@@@std@@QBEPAU_Node@?$_Tree_nod@V?$_Tmap_traits@EPAU__TAXINFO@@U?$less@E@std@@V?$allocator@U?$pair@$$CBEPAU__TAXINFO@@@std@@@3@$0A@@std@@@3@XZ
_TEXT	SEGMENT PARA USE32 PUBLIC 'CODE'
_TEXT	ENDS
;	COMDAT ?begin@?$vector@KV?$allocator@K@std@@@std@@QAE?AViterator@12@XZ
_TEXT	SEGMENT PARA USE32 PUBLIC 'CODE'
_TEXT	ENDS
;	COMDAT ?_Insert_n@?$vector@KV?$allocator@K@std@@@std@@IAEXViterator@12@IABK@Z
_TEXT	SEGMENT PARA USE32 PUBLIC 'CODE'
_TEXT	ENDS
;	COMDAT ??0?$allocator@H@std@@QAE@ABV01@@Z
_TEXT	SEGMENT PARA USE32 PUBLIC 'CODE'
_TEXT	ENDS
;	COMDAT ?deallocate@?$allocator@H@std@@QAEXPAHI@Z
_TEXT	SEGMENT PARA USE32 PUBLIC 'CODE'
_TEXT	ENDS
;	COMDAT ?allocate@?$allocator@H@std@@QAEPAHI@Z
_TEXT	SEGMENT PARA USE32 PUBLIC 'CODE'
_TEXT	ENDS
;	COMDAT ?_Color@?$_Tree@V?$_Tmap_traits@EPAU__TAXDETAIL@@U?$less@E@std@@V?$allocator@U?$pair@$$CBEPAU__TAXDETAIL@@@std@@@3@$0A@@std@@@std@@KAAADPAU_Node@?$_Tree_nod@V?$_Tmap_traits@EPAU__TAXDETAIL@@U?$less@E@std@@V?$allocator@U?$pair@$$CBEPAU__TAXDETAIL@@@std@@@3@$0A@@std@@@2@@Z
_TEXT	SEGMENT PARA USE32 PUBLIC 'CODE'
_TEXT	ENDS
;	COMDAT ?_Parent@?$_Tree@V?$_Tmap_traits@EPAU__TAXDETAIL@@U?$less@E@std@@V?$allocator@U?$pair@$$CBEPAU__TAXDETAIL@@@std@@@3@$0A@@std@@@std@@KAAAPAU_Node@?$_Tree_nod@V?$_Tmap_traits@EPAU__TAXDETAIL@@U?$less@E@std@@V?$allocator@U?$pair@$$CBEPAU__TAXDETAIL@@@std@@@3@$0A@@std@@@2@PAU342@@Z
_TEXT	SEGMENT PARA USE32 PUBLIC 'CODE'
_TEXT	ENDS
;	COMDAT ?_Myval@?$_Tree@V?$_Tmap_traits@EPAU__TAXDETAIL@@U?$less@E@std@@V?$allocator@U?$pair@$$CBEPAU__TAXDETAIL@@@std@@@3@$0A@@std@@@std@@KAAAU?$pair@$$CBEPAU__TAXDETAIL@@@2@PAU_Node@?$_Tree_nod@V?$_Tmap_traits@EPAU__TAXDETAIL@@U?$less@E@std@@V?$allocator@U?$pair@$$CBEPAU__TAXDETAIL@@@std@@@3@$0A@@std@@@2@@Z
_TEXT	SEGMENT PARA USE32 PUBLIC 'CODE'
_TEXT	ENDS
;	COMDAT ?max_size@?$_Tree@V?$_Tmap_traits@EPAU__TAXDETAIL@@U?$less@E@std@@V?$allocator@U?$pair@$$CBEPAU__TAXDETAIL@@@std@@@3@$0A@@std@@@std@@QBEIXZ
_TEXT	SEGMENT PARA USE32 PUBLIC 'CODE'
_TEXT	ENDS
;	COMDAT ?erase@?$_Tree@V?$_Tmap_traits@EPAU__TAXDETAIL@@U?$less@E@std@@V?$allocator@U?$pair@$$CBEPAU__TAXDETAIL@@@std@@@3@$0A@@std@@@std@@QAE?AViterator@12@V312@0@Z
_TEXT	SEGMENT PARA USE32 PUBLIC 'CODE'
_TEXT	ENDS
;	COMDAT ?_Init@?$_Tree@V?$_Tmap_traits@EPAU__TAXDETAIL@@U?$less@E@std@@V?$allocator@U?$pair@$$CBEPAU__TAXDETAIL@@@std@@@3@$0A@@std@@@std@@IAEXXZ
_TEXT	SEGMENT PARA USE32 PUBLIC 'CODE'
_TEXT	ENDS
;	COMDAT ?_Lbound@?$_Tree@V?$_Tmap_traits@EPAU__TAXDETAIL@@U?$less@E@std@@V?$allocator@U?$pair@$$CBEPAU__TAXDETAIL@@@std@@@3@$0A@@std@@@std@@IBEPAU_Node@?$_Tree_nod@V?$_Tmap_traits@EPAU__TAXDETAIL@@U?$less@E@std@@V?$allocator@U?$pair@$$CBEPAU__TAXDETAIL@@@std@@@3@$0A@@std@@@2@ABE@Z
_TEXT	SEGMENT PARA USE32 PUBLIC 'CODE'
_TEXT	ENDS
;	COMDAT ?_Lrotate@?$_Tree@V?$_Tmap_traits@EPAU__TAXDETAIL@@U?$less@E@std@@V?$allocator@U?$pair@$$CBEPAU__TAXDETAIL@@@std@@@3@$0A@@std@@@std@@IAEXPAU_Node@?$_Tree_nod@V?$_Tmap_traits@EPAU__TAXDETAIL@@U?$less@E@std@@V?$allocator@U?$pair@$$CBEPAU__TAXDETAIL@@@std@@@3@$0A@@std@@@2@@Z
_TEXT	SEGMENT PARA USE32 PUBLIC 'CODE'
_TEXT	ENDS
;	COMDAT ?_Rmost@?$_Tree@V?$_Tmap_traits@EPAU__TAXDETAIL@@U?$less@E@std@@V?$allocator@U?$pair@$$CBEPAU__TAXDETAIL@@@std@@@3@$0A@@std@@@std@@IAEAAPAU_Node@?$_Tree_nod@V?$_Tmap_traits@EPAU__TAXDETAIL@@U?$less@E@std@@V?$allocator@U?$pair@$$CBEPAU__TAXDETAIL@@@std@@@3@$0A@@std@@@2@XZ
_TEXT	SEGMENT PARA USE32 PUBLIC 'CODE'
_TEXT	ENDS
;	COMDAT ?_Rrotate@?$_Tree@V?$_Tmap_traits@EPAU__TAXDETAIL@@U?$less@E@std@@V?$allocator@U?$pair@$$CBEPAU__TAXDETAIL@@@std@@@3@$0A@@std@@@std@@IAEXPAU_Node@?$_Tree_nod@V?$_Tmap_traits@EPAU__TAXDETAIL@@U?$less@E@std@@V?$allocator@U?$pair@$$CBEPAU__TAXDETAIL@@@std@@@3@$0A@@std@@@2@@Z
_TEXT	SEGMENT PARA USE32 PUBLIC 'CODE'
_TEXT	ENDS
;	COMDAT ?_Buynode@?$_Tree@V?$_Tmap_traits@EPAU__TAXDETAIL@@U?$less@E@std@@V?$allocator@U?$pair@$$CBEPAU__TAXDETAIL@@@std@@@3@$0A@@std@@@std@@IAEPAU_Node@?$_Tree_nod@V?$_Tmap_traits@EPAU__TAXDETAIL@@U?$less@E@std@@V?$allocator@U?$pair@$$CBEPAU__TAXDETAIL@@@std@@@3@$0A@@std@@@2@PAU342@00ABU?$pair@$$CBEPAU__TAXDETAIL@@@2@D@Z
_TEXT	SEGMENT PARA USE32 PUBLIC 'CODE'
_TEXT	ENDS
;	COMDAT ??0?$_Tree_val@V?$_Tmap_traits@EPAU__TAXDETAIL@@U?$less@E@std@@V?$allocator@U?$pair@$$CBEPAU__TAXDETAIL@@@std@@@3@$0A@@std@@@std@@IAE@ABU?$less@E@1@V?$allocator@U?$pair@$$CBEPAU__TAXDETAIL@@@std@@@1@@Z
_TEXT	SEGMENT PARA USE32 PUBLIC 'CODE'
_TEXT	ENDS
;	COMDAT ??0?$allocator@U?$pair@$$CBEPAU__TAXDETAIL@@@std@@@std@@QAE@ABV01@@Z
_TEXT	SEGMENT PARA USE32 PUBLIC 'CODE'
_TEXT	ENDS
;	COMDAT ?deallocate@?$allocator@U_Node@?$_Tree_nod@V?$_Tmap_traits@EPAU__TAXDETAIL@@U?$less@E@std@@V?$allocator@U?$pair@$$CBEPAU__TAXDETAIL@@@std@@@3@$0A@@std@@@std@@@std@@QAEXPAU_Node@?$_Tree_nod@V?$_Tmap_traits@EPAU__TAXDETAIL@@U?$less@E@std@@V?$allocator@U?$pair@$$CBEPAU__TAXDETAIL@@@std@@@3@$0A@@std@@@2@I@Z
_TEXT	SEGMENT PARA USE32 PUBLIC 'CODE'
_TEXT	ENDS
;	COMDAT ?destroy@?$allocator@PAU_Node@?$_Tree_nod@V?$_Tmap_traits@EPAU__TAXDETAIL@@U?$less@E@std@@V?$allocator@U?$pair@$$CBEPAU__TAXDETAIL@@@std@@@3@$0A@@std@@@std@@@std@@QAEXPAPAU_Node@?$_Tree_nod@V?$_Tmap_traits@EPAU__TAXDETAIL@@U?$less@E@std@@V?$allocator@U?$pair@$$CBEPAU__TAXDETAIL@@@std@@@3@$0A@@std@@@2@@Z
_TEXT	SEGMENT PARA USE32 PUBLIC 'CODE'
_TEXT	ENDS
;	COMDAT ??0const_iterator@?$_Tree@V?$_Tmap_traits@EPAU__TAXDETAIL@@U?$less@E@std@@V?$allocator@U?$pair@$$CBEPAU__TAXDETAIL@@@std@@@3@$0A@@std@@@std@@QAE@PAU_Node@?$_Tree_nod@V?$_Tmap_traits@EPAU__TAXDETAIL@@U?$less@E@std@@V?$allocator@U?$pair@$$CBEPAU__TAXDETAIL@@@std@@@3@$0A@@std@@@2@@Z
_TEXT	SEGMENT PARA USE32 PUBLIC 'CODE'
_TEXT	ENDS
;	COMDAT ??Dconst_iterator@?$_Tree@V?$_Tmap_traits@EPAU__TAXDETAIL@@U?$less@E@std@@V?$allocator@U?$pair@$$CBEPAU__TAXDETAIL@@@std@@@3@$0A@@std@@@std@@QBEABU?$pair@$$CBEPAU__TAXDETAIL@@@2@XZ
_TEXT	SEGMENT PARA USE32 PUBLIC 'CODE'
_TEXT	ENDS
;	COMDAT ??Econst_iterator@?$_Tree@V?$_Tmap_traits@EPAU__TAXDETAIL@@U?$less@E@std@@V?$allocator@U?$pair@$$CBEPAU__TAXDETAIL@@@std@@@3@$0A@@std@@@std@@QAEAAV012@XZ
_TEXT	SEGMENT PARA USE32 PUBLIC 'CODE'
_TEXT	ENDS
;	COMDAT ??Fconst_iterator@?$_Tree@V?$_Tmap_traits@EPAU__TAXDETAIL@@U?$less@E@std@@V?$allocator@U?$pair@$$CBEPAU__TAXDETAIL@@@std@@@3@$0A@@std@@@std@@QAEAAV012@XZ
_TEXT	SEGMENT PARA USE32 PUBLIC 'CODE'
_TEXT	ENDS
;	COMDAT ?_Color@?$_Tree@V?$_Tmap_traits@EPAU__TAXINFO@@U?$less@E@std@@V?$allocator@U?$pair@$$CBEPAU__TAXINFO@@@std@@@3@$0A@@std@@@std@@KAAADPAU_Node@?$_Tree_nod@V?$_Tmap_traits@EPAU__TAXINFO@@U?$less@E@std@@V?$allocator@U?$pair@$$CBEPAU__TAXINFO@@@std@@@3@$0A@@std@@@2@@Z
_TEXT	SEGMENT PARA USE32 PUBLIC 'CODE'
_TEXT	ENDS
;	COMDAT ?_Parent@?$_Tree@V?$_Tmap_traits@EPAU__TAXINFO@@U?$less@E@std@@V?$allocator@U?$pair@$$CBEPAU__TAXINFO@@@std@@@3@$0A@@std@@@std@@KAAAPAU_Node@?$_Tree_nod@V?$_Tmap_traits@EPAU__TAXINFO@@U?$less@E@std@@V?$allocator@U?$pair@$$CBEPAU__TAXINFO@@@std@@@3@$0A@@std@@@2@PAU342@@Z
_TEXT	SEGMENT PARA USE32 PUBLIC 'CODE'
_TEXT	ENDS
;	COMDAT ?_Myval@?$_Tree@V?$_Tmap_traits@EPAU__TAXINFO@@U?$less@E@std@@V?$allocator@U?$pair@$$CBEPAU__TAXINFO@@@std@@@3@$0A@@std@@@std@@KAAAU?$pair@$$CBEPAU__TAXINFO@@@2@PAU_Node@?$_Tree_nod@V?$_Tmap_traits@EPAU__TAXINFO@@U?$less@E@std@@V?$allocator@U?$pair@$$CBEPAU__TAXINFO@@@std@@@3@$0A@@std@@@2@@Z
_TEXT	SEGMENT PARA USE32 PUBLIC 'CODE'
_TEXT	ENDS
;	COMDAT ?max_size@?$_Tree@V?$_Tmap_traits@EPAU__TAXINFO@@U?$less@E@std@@V?$allocator@U?$pair@$$CBEPAU__TAXINFO@@@std@@@3@$0A@@std@@@std@@QBEIXZ
_TEXT	SEGMENT PARA USE32 PUBLIC 'CODE'
_TEXT	ENDS
;	COMDAT ?erase@?$_Tree@V?$_Tmap_traits@EPAU__TAXINFO@@U?$less@E@std@@V?$allocator@U?$pair@$$CBEPAU__TAXINFO@@@std@@@3@$0A@@std@@@std@@QAE?AViterator@12@V312@0@Z
_TEXT	SEGMENT PARA USE32 PUBLIC 'CODE'
_TEXT	ENDS
;	COMDAT ?_Init@?$_Tree@V?$_Tmap_traits@EPAU__TAXINFO@@U?$less@E@std@@V?$allocator@U?$pair@$$CBEPAU__TAXINFO@@@std@@@3@$0A@@std@@@std@@IAEXXZ
_TEXT	SEGMENT PARA USE32 PUBLIC 'CODE'
_TEXT	ENDS
;	COMDAT ?_Lbound@?$_Tree@V?$_Tmap_traits@EPAU__TAXINFO@@U?$less@E@std@@V?$allocator@U?$pair@$$CBEPAU__TAXINFO@@@std@@@3@$0A@@std@@@std@@IBEPAU_Node@?$_Tree_nod@V?$_Tmap_traits@EPAU__TAXINFO@@U?$less@E@std@@V?$allocator@U?$pair@$$CBEPAU__TAXINFO@@@std@@@3@$0A@@std@@@2@ABE@Z
_TEXT	SEGMENT PARA USE32 PUBLIC 'CODE'
_TEXT	ENDS
;	COMDAT ?_Lrotate@?$_Tree@V?$_Tmap_traits@EPAU__TAXINFO@@U?$less@E@std@@V?$allocator@U?$pair@$$CBEPAU__TAXINFO@@@std@@@3@$0A@@std@@@std@@IAEXPAU_Node@?$_Tree_nod@V?$_Tmap_traits@EPAU__TAXINFO@@U?$less@E@std@@V?$allocator@U?$pair@$$CBEPAU__TAXINFO@@@std@@@3@$0A@@std@@@2@@Z
_TEXT	SEGMENT PARA USE32 PUBLIC 'CODE'
_TEXT	ENDS
;	COMDAT ?_Rrotate@?$_Tree@V?$_Tmap_traits@EPAU__TAXINFO@@U?$less@E@std@@V?$allocator@U?$pair@$$CBEPAU__TAXINFO@@@std@@@3@$0A@@std@@@std@@IAEXPAU_Node@?$_Tree_nod@V?$_Tmap_traits@EPAU__TAXINFO@@U?$less@E@std@@V?$allocator@U?$pair@$$CBEPAU__TAXINFO@@@std@@@3@$0A@@std@@@2@@Z
_TEXT	SEGMENT PARA USE32 PUBLIC 'CODE'
_TEXT	ENDS
;	COMDAT ?_Buynode@?$_Tree@V?$_Tmap_traits@EPAU__TAXINFO@@U?$less@E@std@@V?$allocator@U?$pair@$$CBEPAU__TAXINFO@@@std@@@3@$0A@@std@@@std@@IAEPAU_Node@?$_Tree_nod@V?$_Tmap_traits@EPAU__TAXINFO@@U?$less@E@std@@V?$allocator@U?$pair@$$CBEPAU__TAXINFO@@@std@@@3@$0A@@std@@@2@PAU342@00ABU?$pair@$$CBEPAU__TAXINFO@@@2@D@Z
_TEXT	SEGMENT PARA USE32 PUBLIC 'CODE'
_TEXT	ENDS
;	COMDAT ??0?$_Tree_val@V?$_Tmap_traits@EPAU__TAXINFO@@U?$less@E@std@@V?$allocator@U?$pair@$$CBEPAU__TAXINFO@@@std@@@3@$0A@@std@@@std@@IAE@ABU?$less@E@1@V?$allocator@U?$pair@$$CBEPAU__TAXINFO@@@std@@@1@@Z
_TEXT	SEGMENT PARA USE32 PUBLIC 'CODE'
_TEXT	ENDS
;	COMDAT ??0?$allocator@U?$pair@$$CBEPAU__TAXINFO@@@std@@@std@@QAE@ABV01@@Z
_TEXT	SEGMENT PARA USE32 PUBLIC 'CODE'
_TEXT	ENDS
;	COMDAT ?deallocate@?$allocator@U_Node@?$_Tree_nod@V?$_Tmap_traits@EPAU__TAXINFO@@U?$less@E@std@@V?$allocator@U?$pair@$$CBEPAU__TAXINFO@@@std@@@3@$0A@@std@@@std@@@std@@QAEXPAU_Node@?$_Tree_nod@V?$_Tmap_traits@EPAU__TAXINFO@@U?$less@E@std@@V?$allocator@U?$pair@$$CBEPAU__TAXINFO@@@std@@@3@$0A@@std@@@2@I@Z
_TEXT	SEGMENT PARA USE32 PUBLIC 'CODE'
_TEXT	ENDS
;	COMDAT ?destroy@?$allocator@U_Node@?$_Tree_nod@V?$_Tmap_traits@EPAU__TAXINFO@@U?$less@E@std@@V?$allocator@U?$pair@$$CBEPAU__TAXINFO@@@std@@@3@$0A@@std@@@std@@@std@@QAEXPAU_Node@?$_Tree_nod@V?$_Tmap_traits@EPAU__TAXINFO@@U?$less@E@std@@V?$allocator@U?$pair@$$CBEPAU__TAXINFO@@@std@@@3@$0A@@std@@@2@@Z
_TEXT	SEGMENT PARA USE32 PUBLIC 'CODE'
_TEXT	ENDS
;	COMDAT ?destroy@?$allocator@PAU_Node@?$_Tree_nod@V?$_Tmap_traits@EPAU__TAXINFO@@U?$less@E@std@@V?$allocator@U?$pair@$$CBEPAU__TAXINFO@@@std@@@3@$0A@@std@@@std@@@std@@QAEXPAPAU_Node@?$_Tree_nod@V?$_Tmap_traits@EPAU__TAXINFO@@U?$less@E@std@@V?$allocator@U?$pair@$$CBEPAU__TAXINFO@@@std@@@3@$0A@@std@@@2@@Z
_TEXT	SEGMENT PARA USE32 PUBLIC 'CODE'
_TEXT	ENDS
;	COMDAT ?max_size@?$vector@MV?$allocator@M@std@@@std@@QBEIXZ
_TEXT	SEGMENT PARA USE32 PUBLIC 'CODE'
_TEXT	ENDS
;	COMDAT ?_Destroy@?$vector@MV?$allocator@M@std@@@std@@IAEXPAM0@Z
_TEXT	SEGMENT PARA USE32 PUBLIC 'CODE'
_TEXT	ENDS
;	COMDAT ?_Xlen@?$vector@MV?$allocator@M@std@@@std@@IBEXXZ
_TEXT	SEGMENT PARA USE32 PUBLIC 'CODE'
_TEXT	ENDS
;	COMDAT ??0?$allocator@M@std@@QAE@ABV01@@Z
_TEXT	SEGMENT PARA USE32 PUBLIC 'CODE'
_TEXT	ENDS
;	COMDAT ?deallocate@?$allocator@M@std@@QAEXPAMI@Z
_TEXT	SEGMENT PARA USE32 PUBLIC 'CODE'
_TEXT	ENDS
;	COMDAT ?allocate@?$allocator@M@std@@QAEPAMI@Z
_TEXT	SEGMENT PARA USE32 PUBLIC 'CODE'
_TEXT	ENDS
;	COMDAT ?max_size@?$vector@HV?$allocator@H@std@@@std@@QBEIXZ
_TEXT	SEGMENT PARA USE32 PUBLIC 'CODE'
_TEXT	ENDS
;	COMDAT ?_Destroy@?$vector@HV?$allocator@H@std@@@std@@IAEXPAH0@Z
_TEXT	SEGMENT PARA USE32 PUBLIC 'CODE'
_TEXT	ENDS
;	COMDAT ?_Xlen@?$vector@HV?$allocator@H@std@@@std@@IBEXXZ
_TEXT	SEGMENT PARA USE32 PUBLIC 'CODE'
_TEXT	ENDS
;	COMDAT ?_Myval@?$_Tree@V?$_Tmap_traits@KP8CDPTrans@@AEXAAVCAr@@KKKPAEK@ZU?$less@K@std@@V?$allocator@U?$pair@$$CBKP8CDPTrans@@AEXAAVCAr@@KKKPAEK@Z@std@@@4@$0A@@std@@@std@@KAAAU?$pair@$$CBKP8CDPTrans@@AEXAAVCAr@@KKKPAEK@Z@2@PAU_Node@?$_Tree_nod@V?$_Tmap_traits@KP8CDPTrans@@AEXAAVCAr@@KKKPAEK@ZU?$less@K@std@@V?$allocator@U?$pair@$$CBKP8CDPTrans@@AEXAAVCAr@@KKKPAEK@Z@std@@@4@$0A@@std@@@2@@Z
_TEXT	SEGMENT PARA USE32 PUBLIC 'CODE'
_TEXT	ENDS
;	COMDAT ?_Lbound@?$_Tree@V?$_Tmap_traits@KP8CDPTrans@@AEXAAVCAr@@KKKPAEK@ZU?$less@K@std@@V?$allocator@U?$pair@$$CBKP8CDPTrans@@AEXAAVCAr@@KKKPAEK@Z@std@@@4@$0A@@std@@@std@@IBEPAU_Node@?$_Tree_nod@V?$_Tmap_traits@KP8CDPTrans@@AEXAAVCAr@@KKKPAEK@ZU?$less@K@std@@V?$allocator@U?$pair@$$CBKP8CDPTrans@@AEXAAVCAr@@KKKPAEK@Z@std@@@4@$0A@@std@@@2@ABK@Z
_TEXT	SEGMENT PARA USE32 PUBLIC 'CODE'
_TEXT	ENDS
;	COMDAT ?_Kfn@?$_Tmap_traits@KP8CDPTrans@@AEXAAVCAr@@KKKPAEK@ZU?$less@K@std@@V?$allocator@U?$pair@$$CBKP8CDPTrans@@AEXAAVCAr@@KKKPAEK@Z@std@@@4@$0A@@std@@SAABKABU?$pair@$$CBKP8CDPTrans@@AEXAAVCAr@@KKKPAEK@Z@2@@Z
_TEXT	SEGMENT PARA USE32 PUBLIC 'CODE'
_TEXT	ENDS
;	COMDAT ??0const_iterator@?$_Tree@V?$_Tmap_traits@KP8CDPTrans@@AEXAAVCAr@@KKKPAEK@ZU?$less@K@std@@V?$allocator@U?$pair@$$CBKP8CDPTrans@@AEXAAVCAr@@KKKPAEK@Z@std@@@4@$0A@@std@@@std@@QAE@PAU_Node@?$_Tree_nod@V?$_Tmap_traits@KP8CDPTrans@@AEXAAVCAr@@KKKPAEK@ZU?$less@K@std@@V?$allocator@U?$pair@$$CBKP8CDPTrans@@AEXAAVCAr@@KKKPAEK@Z@std@@@4@$0A@@std@@@2@@Z
_TEXT	SEGMENT PARA USE32 PUBLIC 'CODE'
_TEXT	ENDS
;	COMDAT ??Dconst_iterator@?$_Tree@V?$_Tmap_traits@KP8CDPTrans@@AEXAAVCAr@@KKKPAEK@ZU?$less@K@std@@V?$allocator@U?$pair@$$CBKP8CDPTrans@@AEXAAVCAr@@KKKPAEK@Z@std@@@4@$0A@@std@@@std@@QBEABU?$pair@$$CBKP8CDPTrans@@AEXAAVCAr@@KKKPAEK@Z@2@XZ
_TEXT	SEGMENT PARA USE32 PUBLIC 'CODE'
_TEXT	ENDS
;	COMDAT ??0const_iterator@?$_Tree@V?$_Tmap_traits@EPAU__TAXINFO@@U?$less@E@std@@V?$allocator@U?$pair@$$CBEPAU__TAXINFO@@@std@@@3@$0A@@std@@@std@@QAE@PAU_Node@?$_Tree_nod@V?$_Tmap_traits@EPAU__TAXINFO@@U?$less@E@std@@V?$allocator@U?$pair@$$CBEPAU__TAXINFO@@@std@@@3@$0A@@std@@@2@@Z
_TEXT	SEGMENT PARA USE32 PUBLIC 'CODE'
_TEXT	ENDS
;	COMDAT ??Dconst_iterator@?$_Tree@V?$_Tmap_traits@EPAU__TAXINFO@@U?$less@E@std@@V?$allocator@U?$pair@$$CBEPAU__TAXINFO@@@std@@@3@$0A@@std@@@std@@QBEABU?$pair@$$CBEPAU__TAXINFO@@@2@XZ
_TEXT	SEGMENT PARA USE32 PUBLIC 'CODE'
_TEXT	ENDS
;	COMDAT ??Econst_iterator@?$_Tree@V?$_Tmap_traits@EPAU__TAXINFO@@U?$less@E@std@@V?$allocator@U?$pair@$$CBEPAU__TAXINFO@@@std@@@3@$0A@@std@@@std@@QAEAAV012@XZ
_TEXT	SEGMENT PARA USE32 PUBLIC 'CODE'
_TEXT	ENDS
;	COMDAT ??Fconst_iterator@?$_Tree@V?$_Tmap_traits@EPAU__TAXINFO@@U?$less@E@std@@V?$allocator@U?$pair@$$CBEPAU__TAXINFO@@@std@@@3@$0A@@std@@@std@@QAEAAV012@XZ
_TEXT	SEGMENT PARA USE32 PUBLIC 'CODE'
_TEXT	ENDS
;	COMDAT ??0iterator@?$vector@KV?$allocator@K@std@@@std@@QAE@PAK@Z
_TEXT	SEGMENT PARA USE32 PUBLIC 'CODE'
_TEXT	ENDS
;	COMDAT ??Hiterator@?$vector@KV?$allocator@K@std@@@std@@QBE?AV012@H@Z
_TEXT	SEGMENT PARA USE32 PUBLIC 'CODE'
_TEXT	ENDS
;	COMDAT ??Giterator@?$vector@KV?$allocator@K@std@@@std@@QBEHABVconst_iterator@12@@Z
_TEXT	SEGMENT PARA USE32 PUBLIC 'CODE'
_TEXT	ENDS
;	COMDAT ?max_size@?$allocator@H@std@@QBEIXZ
_TEXT	SEGMENT PARA USE32 PUBLIC 'CODE'
_TEXT	ENDS
;	COMDAT ?erase@?$_Tree@V?$_Tmap_traits@EPAU__TAXDETAIL@@U?$less@E@std@@V?$allocator@U?$pair@$$CBEPAU__TAXDETAIL@@@std@@@3@$0A@@std@@@std@@QAE?AViterator@12@V312@@Z
_TEXT	SEGMENT PARA USE32 PUBLIC 'CODE'
_TEXT	ENDS
;	COMDAT ?clear@?$_Tree@V?$_Tmap_traits@EPAU__TAXDETAIL@@U?$less@E@std@@V?$allocator@U?$pair@$$CBEPAU__TAXDETAIL@@@std@@@3@$0A@@std@@@std@@QAEXXZ
_TEXT	SEGMENT PARA USE32 PUBLIC 'CODE'
_TEXT	ENDS
;	COMDAT ?_Root@?$_Tree@V?$_Tmap_traits@EPAU__TAXDETAIL@@U?$less@E@std@@V?$allocator@U?$pair@$$CBEPAU__TAXDETAIL@@@std@@@3@$0A@@std@@@std@@IBEAAPAU_Node@?$_Tree_nod@V?$_Tmap_traits@EPAU__TAXDETAIL@@U?$less@E@std@@V?$allocator@U?$pair@$$CBEPAU__TAXDETAIL@@@std@@@3@$0A@@std@@@2@XZ
_TEXT	SEGMENT PARA USE32 PUBLIC 'CODE'
_TEXT	ENDS
;	COMDAT ?_Buynode@?$_Tree@V?$_Tmap_traits@EPAU__TAXDETAIL@@U?$less@E@std@@V?$allocator@U?$pair@$$CBEPAU__TAXDETAIL@@@std@@@3@$0A@@std@@@std@@IAEPAU_Node@?$_Tree_nod@V?$_Tmap_traits@EPAU__TAXDETAIL@@U?$less@E@std@@V?$allocator@U?$pair@$$CBEPAU__TAXDETAIL@@@std@@@3@$0A@@std@@@2@XZ
_TEXT	SEGMENT PARA USE32 PUBLIC 'CODE'
_TEXT	ENDS
;	COMDAT ??0?$_Tree_ptr@V?$_Tmap_traits@EPAU__TAXDETAIL@@U?$less@E@std@@V?$allocator@U?$pair@$$CBEPAU__TAXDETAIL@@@std@@@3@$0A@@std@@@std@@IAE@ABU?$less@E@1@V?$allocator@U?$pair@$$CBEPAU__TAXDETAIL@@@std@@@1@@Z
_TEXT	SEGMENT PARA USE32 PUBLIC 'CODE'
_TEXT	ENDS
;	COMDAT ?max_size@?$allocator@U?$pair@$$CBEPAU__TAXDETAIL@@@std@@@std@@QBEIXZ
_TEXT	SEGMENT PARA USE32 PUBLIC 'CODE'
_TEXT	ENDS
;	COMDAT ?allocate@?$allocator@U_Node@?$_Tree_nod@V?$_Tmap_traits@EPAU__TAXDETAIL@@U?$less@E@std@@V?$allocator@U?$pair@$$CBEPAU__TAXDETAIL@@@std@@@3@$0A@@std@@@std@@@std@@QAEPAU_Node@?$_Tree_nod@V?$_Tmap_traits@EPAU__TAXDETAIL@@U?$less@E@std@@V?$allocator@U?$pair@$$CBEPAU__TAXDETAIL@@@std@@@3@$0A@@std@@@2@I@Z
_TEXT	SEGMENT PARA USE32 PUBLIC 'CODE'
_TEXT	ENDS
;	COMDAT ?_Dec@const_iterator@?$_Tree@V?$_Tmap_traits@EPAU__TAXDETAIL@@U?$less@E@std@@V?$allocator@U?$pair@$$CBEPAU__TAXDETAIL@@@std@@@3@$0A@@std@@@std@@QAEXXZ
_TEXT	SEGMENT PARA USE32 PUBLIC 'CODE'
_TEXT	ENDS
;	COMDAT ?_Inc@const_iterator@?$_Tree@V?$_Tmap_traits@EPAU__TAXDETAIL@@U?$less@E@std@@V?$allocator@U?$pair@$$CBEPAU__TAXDETAIL@@@std@@@3@$0A@@std@@@std@@QAEXXZ
_TEXT	SEGMENT PARA USE32 PUBLIC 'CODE'
_TEXT	ENDS
;	COMDAT ?erase@?$_Tree@V?$_Tmap_traits@EPAU__TAXINFO@@U?$less@E@std@@V?$allocator@U?$pair@$$CBEPAU__TAXINFO@@@std@@@3@$0A@@std@@@std@@QAE?AViterator@12@V312@@Z
_TEXT	SEGMENT PARA USE32 PUBLIC 'CODE'
_TEXT	ENDS
;	COMDAT ?_Root@?$_Tree@V?$_Tmap_traits@EPAU__TAXINFO@@U?$less@E@std@@V?$allocator@U?$pair@$$CBEPAU__TAXINFO@@@std@@@3@$0A@@std@@@std@@IBEAAPAU_Node@?$_Tree_nod@V?$_Tmap_traits@EPAU__TAXINFO@@U?$less@E@std@@V?$allocator@U?$pair@$$CBEPAU__TAXINFO@@@std@@@3@$0A@@std@@@2@XZ
_TEXT	SEGMENT PARA USE32 PUBLIC 'CODE'
_TEXT	ENDS
;	COMDAT ?_Buynode@?$_Tree@V?$_Tmap_traits@EPAU__TAXINFO@@U?$less@E@std@@V?$allocator@U?$pair@$$CBEPAU__TAXINFO@@@std@@@3@$0A@@std@@@std@@IAEPAU_Node@?$_Tree_nod@V?$_Tmap_traits@EPAU__TAXINFO@@U?$less@E@std@@V?$allocator@U?$pair@$$CBEPAU__TAXINFO@@@std@@@3@$0A@@std@@@2@XZ
_TEXT	SEGMENT PARA USE32 PUBLIC 'CODE'
_TEXT	ENDS
;	COMDAT ??0?$_Tree_ptr@V?$_Tmap_traits@EPAU__TAXINFO@@U?$less@E@std@@V?$allocator@U?$pair@$$CBEPAU__TAXINFO@@@std@@@3@$0A@@std@@@std@@IAE@ABU?$less@E@1@V?$allocator@U?$pair@$$CBEPAU__TAXINFO@@@std@@@1@@Z
_TEXT	SEGMENT PARA USE32 PUBLIC 'CODE'
_TEXT	ENDS
;	COMDAT ?max_size@?$allocator@U?$pair@$$CBEPAU__TAXINFO@@@std@@@std@@QBEIXZ
_TEXT	SEGMENT PARA USE32 PUBLIC 'CODE'
_TEXT	ENDS
;	COMDAT ?allocate@?$allocator@U_Node@?$_Tree_nod@V?$_Tmap_traits@EPAU__TAXINFO@@U?$less@E@std@@V?$allocator@U?$pair@$$CBEPAU__TAXINFO@@@std@@@3@$0A@@std@@@std@@@std@@QAEPAU_Node@?$_Tree_nod@V?$_Tmap_traits@EPAU__TAXINFO@@U?$less@E@std@@V?$allocator@U?$pair@$$CBEPAU__TAXINFO@@@std@@@3@$0A@@std@@@2@I@Z
_TEXT	SEGMENT PARA USE32 PUBLIC 'CODE'
_TEXT	ENDS
;	COMDAT ?max_size@?$allocator@M@std@@QBEIXZ
_TEXT	SEGMENT PARA USE32 PUBLIC 'CODE'
_TEXT	ENDS
;	COMDAT ?_Isnil@?$_Tree@V?$_Tmap_traits@KP8CDPTrans@@AEXAAVCAr@@KKKPAEK@ZU?$less@K@std@@V?$allocator@U?$pair@$$CBKP8CDPTrans@@AEXAAVCAr@@KKKPAEK@Z@std@@@4@$0A@@std@@@std@@KAAADPAU_Node@?$_Tree_nod@V?$_Tmap_traits@KP8CDPTrans@@AEXAAVCAr@@KKKPAEK@ZU?$less@K@std@@V?$allocator@U?$pair@$$CBKP8CDPTrans@@AEXAAVCAr@@KKKPAEK@Z@std@@@4@$0A@@std@@@2@@Z
_TEXT	SEGMENT PARA USE32 PUBLIC 'CODE'
_TEXT	ENDS
;	COMDAT ?_Left@?$_Tree@V?$_Tmap_traits@KP8CDPTrans@@AEXAAVCAr@@KKKPAEK@ZU?$less@K@std@@V?$allocator@U?$pair@$$CBKP8CDPTrans@@AEXAAVCAr@@KKKPAEK@Z@std@@@4@$0A@@std@@@std@@KAAAPAU_Node@?$_Tree_nod@V?$_Tmap_traits@KP8CDPTrans@@AEXAAVCAr@@KKKPAEK@ZU?$less@K@std@@V?$allocator@U?$pair@$$CBKP8CDPTrans@@AEXAAVCAr@@KKKPAEK@Z@std@@@4@$0A@@std@@@2@PAU342@@Z
_TEXT	SEGMENT PARA USE32 PUBLIC 'CODE'
_TEXT	ENDS
;	COMDAT ?_Right@?$_Tree@V?$_Tmap_traits@KP8CDPTrans@@AEXAAVCAr@@KKKPAEK@ZU?$less@K@std@@V?$allocator@U?$pair@$$CBKP8CDPTrans@@AEXAAVCAr@@KKKPAEK@Z@std@@@4@$0A@@std@@@std@@KAAAPAU_Node@?$_Tree_nod@V?$_Tmap_traits@KP8CDPTrans@@AEXAAVCAr@@KKKPAEK@ZU?$less@K@std@@V?$allocator@U?$pair@$$CBKP8CDPTrans@@AEXAAVCAr@@KKKPAEK@Z@std@@@4@$0A@@std@@@2@PAU342@@Z
_TEXT	SEGMENT PARA USE32 PUBLIC 'CODE'
_TEXT	ENDS
;	COMDAT ?_Root@?$_Tree@V?$_Tmap_traits@KP8CDPTrans@@AEXAAVCAr@@KKKPAEK@ZU?$less@K@std@@V?$allocator@U?$pair@$$CBKP8CDPTrans@@AEXAAVCAr@@KKKPAEK@Z@std@@@4@$0A@@std@@@std@@IBEAAPAU_Node@?$_Tree_nod@V?$_Tmap_traits@KP8CDPTrans@@AEXAAVCAr@@KKKPAEK@ZU?$less@K@std@@V?$allocator@U?$pair@$$CBKP8CDPTrans@@AEXAAVCAr@@KKKPAEK@Z@std@@@4@$0A@@std@@@2@XZ
_TEXT	SEGMENT PARA USE32 PUBLIC 'CODE'
_TEXT	ENDS
;	COMDAT ?_Dec@const_iterator@?$_Tree@V?$_Tmap_traits@EPAU__TAXINFO@@U?$less@E@std@@V?$allocator@U?$pair@$$CBEPAU__TAXINFO@@@std@@@3@$0A@@std@@@std@@QAEXXZ
_TEXT	SEGMENT PARA USE32 PUBLIC 'CODE'
_TEXT	ENDS
;	COMDAT ?_Inc@const_iterator@?$_Tree@V?$_Tmap_traits@EPAU__TAXINFO@@U?$less@E@std@@V?$allocator@U?$pair@$$CBEPAU__TAXINFO@@@std@@@3@$0A@@std@@@std@@QAEXXZ
_TEXT	SEGMENT PARA USE32 PUBLIC 'CODE'
_TEXT	ENDS
;	COMDAT ??Yiterator@?$vector@KV?$allocator@K@std@@@std@@QAEAAV012@H@Z
_TEXT	SEGMENT PARA USE32 PUBLIC 'CODE'
_TEXT	ENDS
;	COMDAT ??0const_iterator@?$vector@KV?$allocator@K@std@@@std@@QAE@PAK@Z
_TEXT	SEGMENT PARA USE32 PUBLIC 'CODE'
_TEXT	ENDS
;	COMDAT ??Gconst_iterator@?$vector@KV?$allocator@K@std@@@std@@QBEHABV012@@Z
_TEXT	SEGMENT PARA USE32 PUBLIC 'CODE'
_TEXT	ENDS
;	COMDAT ??0_Node@?$_Tree_nod@V?$_Tmap_traits@EPAU__TAXDETAIL@@U?$less@E@std@@V?$allocator@U?$pair@$$CBEPAU__TAXDETAIL@@@std@@@3@$0A@@std@@@std@@QAE@PAU012@00ABU?$pair@$$CBEPAU__TAXDETAIL@@@2@D@Z
_TEXT	SEGMENT PARA USE32 PUBLIC 'CODE'
_TEXT	ENDS
;	COMDAT ??0_Node@?$_Tree_nod@V?$_Tmap_traits@EPAU__TAXINFO@@U?$less@E@std@@V?$allocator@U?$pair@$$CBEPAU__TAXINFO@@@std@@@3@$0A@@std@@@std@@QAE@PAU012@00ABU?$pair@$$CBEPAU__TAXINFO@@@2@D@Z
_TEXT	SEGMENT PARA USE32 PUBLIC 'CODE'
_TEXT	ENDS
;	COMDAT ?_Erase@?$_Tree@V?$_Tmap_traits@EPAU__TAXDETAIL@@U?$less@E@std@@V?$allocator@U?$pair@$$CBEPAU__TAXDETAIL@@@std@@@3@$0A@@std@@@std@@IAEXPAU_Node@?$_Tree_nod@V?$_Tmap_traits@EPAU__TAXDETAIL@@U?$less@E@std@@V?$allocator@U?$pair@$$CBEPAU__TAXDETAIL@@@std@@@3@$0A@@std@@@2@@Z
_TEXT	SEGMENT PARA USE32 PUBLIC 'CODE'
_TEXT	ENDS
;	COMDAT ?_Max@?$_Tree@V?$_Tmap_traits@EPAU__TAXDETAIL@@U?$less@E@std@@V?$allocator@U?$pair@$$CBEPAU__TAXDETAIL@@@std@@@3@$0A@@std@@@std@@KAPAU_Node@?$_Tree_nod@V?$_Tmap_traits@EPAU__TAXDETAIL@@U?$less@E@std@@V?$allocator@U?$pair@$$CBEPAU__TAXDETAIL@@@std@@@3@$0A@@std@@@2@PAU342@@Z
_TEXT	SEGMENT PARA USE32 PUBLIC 'CODE'
_TEXT	ENDS
;	COMDAT ?_Min@?$_Tree@V?$_Tmap_traits@EPAU__TAXDETAIL@@U?$less@E@std@@V?$allocator@U?$pair@$$CBEPAU__TAXDETAIL@@@std@@@3@$0A@@std@@@std@@KAPAU_Node@?$_Tree_nod@V?$_Tmap_traits@EPAU__TAXDETAIL@@U?$less@E@std@@V?$allocator@U?$pair@$$CBEPAU__TAXDETAIL@@@std@@@3@$0A@@std@@@2@PAU342@@Z
_TEXT	SEGMENT PARA USE32 PUBLIC 'CODE'
_TEXT	ENDS
;	COMDAT ??0?$_Tree_nod@V?$_Tmap_traits@EPAU__TAXDETAIL@@U?$less@E@std@@V?$allocator@U?$pair@$$CBEPAU__TAXDETAIL@@@std@@@3@$0A@@std@@@std@@IAE@ABU?$less@E@1@V?$allocator@U?$pair@$$CBEPAU__TAXDETAIL@@@std@@@1@@Z
_TEXT	SEGMENT PARA USE32 PUBLIC 'CODE'
_TEXT	ENDS
;	COMDAT ?destroy@?$allocator@U_Node@?$_Tree_nod@V?$_Tmap_traits@EPAU__TAXDETAIL@@U?$less@E@std@@V?$allocator@U?$pair@$$CBEPAU__TAXDETAIL@@@std@@@3@$0A@@std@@@std@@@std@@QAEXPAU_Node@?$_Tree_nod@V?$_Tmap_traits@EPAU__TAXDETAIL@@U?$less@E@std@@V?$allocator@U?$pair@$$CBEPAU__TAXDETAIL@@@std@@@3@$0A@@std@@@2@@Z
_TEXT	SEGMENT PARA USE32 PUBLIC 'CODE'
_TEXT	ENDS
;	COMDAT ?construct@?$allocator@PAU_Node@?$_Tree_nod@V?$_Tmap_traits@EPAU__TAXDETAIL@@U?$less@E@std@@V?$allocator@U?$pair@$$CBEPAU__TAXDETAIL@@@std@@@3@$0A@@std@@@std@@@std@@QAEXPAPAU_Node@?$_Tree_nod@V?$_Tmap_traits@EPAU__TAXDETAIL@@U?$less@E@std@@V?$allocator@U?$pair@$$CBEPAU__TAXDETAIL@@@std@@@3@$0A@@std@@@2@ABQAU342@@Z
_TEXT	SEGMENT PARA USE32 PUBLIC 'CODE'
_TEXT	ENDS
;	COMDAT ?_Max@?$_Tree@V?$_Tmap_traits@EPAU__TAXINFO@@U?$less@E@std@@V?$allocator@U?$pair@$$CBEPAU__TAXINFO@@@std@@@3@$0A@@std@@@std@@KAPAU_Node@?$_Tree_nod@V?$_Tmap_traits@EPAU__TAXINFO@@U?$less@E@std@@V?$allocator@U?$pair@$$CBEPAU__TAXINFO@@@std@@@3@$0A@@std@@@2@PAU342@@Z
_TEXT	SEGMENT PARA USE32 PUBLIC 'CODE'
_TEXT	ENDS
;	COMDAT ?_Min@?$_Tree@V?$_Tmap_traits@EPAU__TAXINFO@@U?$less@E@std@@V?$allocator@U?$pair@$$CBEPAU__TAXINFO@@@std@@@3@$0A@@std@@@std@@KAPAU_Node@?$_Tree_nod@V?$_Tmap_traits@EPAU__TAXINFO@@U?$less@E@std@@V?$allocator@U?$pair@$$CBEPAU__TAXINFO@@@std@@@3@$0A@@std@@@2@PAU342@@Z
_TEXT	SEGMENT PARA USE32 PUBLIC 'CODE'
_TEXT	ENDS
;	COMDAT ??0?$_Tree_nod@V?$_Tmap_traits@EPAU__TAXINFO@@U?$less@E@std@@V?$allocator@U?$pair@$$CBEPAU__TAXINFO@@@std@@@3@$0A@@std@@@std@@IAE@ABU?$less@E@1@V?$allocator@U?$pair@$$CBEPAU__TAXINFO@@@std@@@1@@Z
_TEXT	SEGMENT PARA USE32 PUBLIC 'CODE'
_TEXT	ENDS
;	COMDAT ?construct@?$allocator@PAU_Node@?$_Tree_nod@V?$_Tmap_traits@EPAU__TAXINFO@@U?$less@E@std@@V?$allocator@U?$pair@$$CBEPAU__TAXINFO@@@std@@@3@$0A@@std@@@std@@@std@@QAEXPAPAU_Node@?$_Tree_nod@V?$_Tmap_traits@EPAU__TAXINFO@@U?$less@E@std@@V?$allocator@U?$pair@$$CBEPAU__TAXINFO@@@std@@@3@$0A@@std@@@2@ABQAU342@@Z
_TEXT	SEGMENT PARA USE32 PUBLIC 'CODE'
_TEXT	ENDS
;	COMDAT ?_Parent@?$_Tree@V?$_Tmap_traits@KP8CDPTrans@@AEXAAVCAr@@KKKPAEK@ZU?$less@K@std@@V?$allocator@U?$pair@$$CBKP8CDPTrans@@AEXAAVCAr@@KKKPAEK@Z@std@@@4@$0A@@std@@@std@@KAAAPAU_Node@?$_Tree_nod@V?$_Tmap_traits@KP8CDPTrans@@AEXAAVCAr@@KKKPAEK@ZU?$less@K@std@@V?$allocator@U?$pair@$$CBKP8CDPTrans@@AEXAAVCAr@@KKKPAEK@Z@std@@@4@$0A@@std@@@2@PAU342@@Z
_TEXT	SEGMENT PARA USE32 PUBLIC 'CODE'
_TEXT	ENDS
;	COMDAT ??0?$_Tmap_traits@EPAU__TAXDETAIL@@U?$less@E@std@@V?$allocator@U?$pair@$$CBEPAU__TAXDETAIL@@@std@@@3@$0A@@std@@QAE@U?$less@E@1@@Z
_TEXT	SEGMENT PARA USE32 PUBLIC 'CODE'
_TEXT	ENDS
;	COMDAT ??0?$_Tmap_traits@EPAU__TAXINFO@@U?$less@E@std@@V?$allocator@U?$pair@$$CBEPAU__TAXINFO@@@std@@@3@$0A@@std@@QAE@U?$less@E@1@@Z
_TEXT	SEGMENT PARA USE32 PUBLIC 'CODE'
_TEXT	ENDS
;	COMDAT ??$_Iter_cat@Viterator@?$_Tree@V?$_Tmap_traits@KU_Friend@@U?$less@K@std@@V?$allocator@U?$pair@$$CBKU_Friend@@@std@@@3@$0A@@std@@@std@@@std@@YA?AUbidirectional_iterator_tag@0@ABViterator@?$_Tree@V?$_Tmap_traits@KU_Friend@@U?$less@K@std@@V?$allocator@U?$pair@$$CBKU_Friend@@@std@@@3@$0A@@std@@@0@@Z
_TEXT	SEGMENT PARA USE32 PUBLIC 'CODE'
_TEXT	ENDS
;	COMDAT ??$_Distance2@Viterator@?$_Tree@V?$_Tmap_traits@KU_Friend@@U?$less@K@std@@V?$allocator@U?$pair@$$CBKU_Friend@@@std@@@3@$0A@@std@@@std@@I@std@@YAXViterator@?$_Tree@V?$_Tmap_traits@KU_Friend@@U?$less@K@std@@V?$allocator@U?$pair@$$CBKU_Friend@@@std@@@3@$0A@@std@@@0@0AAIUbidirectional_iterator_tag@0@@Z
_TEXT	SEGMENT PARA USE32 PUBLIC 'CODE'
_TEXT	ENDS
;	COMDAT ??$_Copy_opt@PAJPAJ@std@@YAPAJPAJ00U_Scalar_ptr_iterator_tag@0@@Z
_TEXT	SEGMENT PARA USE32 PUBLIC 'CODE'
_TEXT	ENDS
;	COMDAT ??$_Uninitialized_copy@PAJPAJV?$allocator@J@std@@@std@@YAPAJPAJ00AAV?$allocator@J@0@@Z
_TEXT	SEGMENT PARA USE32 PUBLIC 'CODE'
_TEXT	ENDS
;	COMDAT ??$_Copy_backward_opt@PAJPAJ@std@@YAPAJPAJ00U_Scalar_ptr_iterator_tag@0@@Z
_TEXT	SEGMENT PARA USE32 PUBLIC 'CODE'
_TEXT	ENDS
;	COMDAT ??$_Ptr_cat@PAUtagDROPITEM@@PAU1@@std@@YA?AU_Nonscalar_ptr_iterator_tag@0@AAPAUtagDROPITEM@@0@Z
_TEXT	SEGMENT PARA USE32 PUBLIC 'CODE'
_TEXT	ENDS
;	COMDAT ??$_Destroy_range@UtagDROPITEM@@V?$allocator@UtagDROPITEM@@@std@@@std@@YAXPAUtagDROPITEM@@0AAV?$allocator@UtagDROPITEM@@@0@U_Nonscalar_ptr_iterator_tag@0@@Z
_TEXT	SEGMENT PARA USE32 PUBLIC 'CODE'
_TEXT	ENDS
;	COMDAT ??$_Destroy_range@KV?$allocator@K@std@@@std@@YAXPAK0AAV?$allocator@K@0@U_Scalar_ptr_iterator_tag@0@@Z
_TEXT	SEGMENT PARA USE32 PUBLIC 'CODE'
_TEXT	ENDS
;	COMDAT ??$_Destroy_range@JV?$allocator@J@std@@@std@@YAXPAJ0AAV?$allocator@J@0@U_Scalar_ptr_iterator_tag@0@@Z
_TEXT	SEGMENT PARA USE32 PUBLIC 'CODE'
_TEXT	ENDS
;	COMDAT ??$_Uninit_fill_n@JIJ@std@@YAXPAJIABJAAV?$allocator@J@0@U_Scalar_ptr_iterator_tag@0@@Z
_TEXT	SEGMENT PARA USE32 PUBLIC 'CODE'
_TEXT	ENDS
;	COMDAT ??$make_pair@EPAU__TAXDETAIL@@@std@@YA?AU?$pair@EPAU__TAXDETAIL@@@0@EPAU__TAXDETAIL@@@Z
_TEXT	SEGMENT PARA USE32 PUBLIC 'CODE'
_TEXT	ENDS
;	COMDAT ??$?0EPAU__TAXDETAIL@@@?$pair@$$CBEPAU__TAXDETAIL@@@std@@QAE@ABU?$pair@EPAU__TAXDETAIL@@@1@@Z
_TEXT	SEGMENT PARA USE32 PUBLIC 'CODE'
_TEXT	ENDS
;	COMDAT ??$throw_exception@Vbad_weak_ptr@boost@@@boost@@YAXABVbad_weak_ptr@0@@Z
_TEXT	SEGMENT PARA USE32 PUBLIC 'CODE'
_TEXT	ENDS
;	COMDAT ??$make_pair@HPAU__TAXINFO@@@std@@YA?AU?$pair@HPAU__TAXINFO@@@0@HPAU__TAXINFO@@@Z
_TEXT	SEGMENT PARA USE32 PUBLIC 'CODE'
_TEXT	ENDS
;	COMDAT ??$?0HPAU__TAXINFO@@@?$pair@$$CBEPAU__TAXINFO@@@std@@QAE@ABU?$pair@HPAU__TAXINFO@@@1@@Z
_TEXT	SEGMENT PARA USE32 PUBLIC 'CODE'
_TEXT	ENDS
;	COMDAT ??$_Uninitialized_fill_n@PAKIKV?$allocator@K@std@@@std@@YAXPAKIABKAAV?$allocator@K@0@@Z
_TEXT	SEGMENT PARA USE32 PUBLIC 'CODE'
_TEXT	ENDS
;	COMDAT ??$_Ucopy@PAK@?$vector@KV?$allocator@K@std@@@std@@IAEPAKPAK00@Z
_TEXT	SEGMENT PARA USE32 PUBLIC 'CODE'
_TEXT	ENDS
;	COMDAT ??$fill@PAKK@std@@YAXPAK0ABK@Z
_TEXT	SEGMENT PARA USE32 PUBLIC 'CODE'
_TEXT	ENDS
;	COMDAT ??$copy_backward@PAKPAK@std@@YAPAKPAK00@Z
_TEXT	SEGMENT PARA USE32 PUBLIC 'CODE'
_TEXT	ENDS
;	COMDAT ??$_Allocate@H@std@@YAPAHIPAH@Z
_TEXT	SEGMENT PARA USE32 PUBLIC 'CODE'
_TEXT	ENDS
;	COMDAT ??$_Destroy@PAU_Node@?$_Tree_nod@V?$_Tmap_traits@EPAU__TAXDETAIL@@U?$less@E@std@@V?$allocator@U?$pair@$$CBEPAU__TAXDETAIL@@@std@@@3@$0A@@std@@@std@@@std@@YAXPAPAU_Node@?$_Tree_nod@V?$_Tmap_traits@EPAU__TAXDETAIL@@U?$less@E@std@@V?$allocator@U?$pair@$$CBEPAU__TAXDETAIL@@@std@@@3@$0A@@std@@@0@@Z
_TEXT	SEGMENT PARA USE32 PUBLIC 'CODE'
_TEXT	ENDS
;	COMDAT ??$_Destroy@U_Node@?$_Tree_nod@V?$_Tmap_traits@EPAU__TAXINFO@@U?$less@E@std@@V?$allocator@U?$pair@$$CBEPAU__TAXINFO@@@std@@@3@$0A@@std@@@std@@@std@@YAXPAU_Node@?$_Tree_nod@V?$_Tmap_traits@EPAU__TAXINFO@@U?$less@E@std@@V?$allocator@U?$pair@$$CBEPAU__TAXINFO@@@std@@@3@$0A@@std@@@0@@Z
_TEXT	SEGMENT PARA USE32 PUBLIC 'CODE'
_TEXT	ENDS
;	COMDAT ??$_Destroy@PAU_Node@?$_Tree_nod@V?$_Tmap_traits@EPAU__TAXINFO@@U?$less@E@std@@V?$allocator@U?$pair@$$CBEPAU__TAXINFO@@@std@@@3@$0A@@std@@@std@@@std@@YAXPAPAU_Node@?$_Tree_nod@V?$_Tmap_traits@EPAU__TAXINFO@@U?$less@E@std@@V?$allocator@U?$pair@$$CBEPAU__TAXINFO@@@std@@@3@$0A@@std@@@0@@Z
_TEXT	SEGMENT PARA USE32 PUBLIC 'CODE'
_TEXT	ENDS
;	COMDAT ??$_Destroy_range@MV?$allocator@M@std@@@std@@YAXPAM0AAV?$allocator@M@0@@Z
_TEXT	SEGMENT PARA USE32 PUBLIC 'CODE'
_TEXT	ENDS
;	COMDAT ??$_Allocate@M@std@@YAPAMIPAM@Z
_TEXT	SEGMENT PARA USE32 PUBLIC 'CODE'
_TEXT	ENDS
;	COMDAT ??$_Destroy_range@HV?$allocator@H@std@@@std@@YAXPAH0AAV?$allocator@H@0@@Z
_TEXT	SEGMENT PARA USE32 PUBLIC 'CODE'
_TEXT	ENDS
;	COMDAT ??$?0U?$pair@$$CBEPAU__TAXDETAIL@@@std@@@?$allocator@PAU_Node@?$_Tree_nod@V?$_Tmap_traits@EPAU__TAXDETAIL@@U?$less@E@std@@V?$allocator@U?$pair@$$CBEPAU__TAXDETAIL@@@std@@@3@$0A@@std@@@std@@@std@@QAE@ABV?$allocator@U?$pair@$$CBEPAU__TAXDETAIL@@@std@@@1@@Z
_TEXT	SEGMENT PARA USE32 PUBLIC 'CODE'
_TEXT	ENDS
;	COMDAT ??$_Allocate@U_Node@?$_Tree_nod@V?$_Tmap_traits@EPAU__TAXDETAIL@@U?$less@E@std@@V?$allocator@U?$pair@$$CBEPAU__TAXDETAIL@@@std@@@3@$0A@@std@@@std@@@std@@YAPAU_Node@?$_Tree_nod@V?$_Tmap_traits@EPAU__TAXDETAIL@@U?$less@E@std@@V?$allocator@U?$pair@$$CBEPAU__TAXDETAIL@@@std@@@3@$0A@@std@@@0@IPAU120@@Z
_TEXT	SEGMENT PARA USE32 PUBLIC 'CODE'
_TEXT	ENDS
;	COMDAT ??$?0U?$pair@$$CBEPAU__TAXINFO@@@std@@@?$allocator@PAU_Node@?$_Tree_nod@V?$_Tmap_traits@EPAU__TAXINFO@@U?$less@E@std@@V?$allocator@U?$pair@$$CBEPAU__TAXINFO@@@std@@@3@$0A@@std@@@std@@@std@@QAE@ABV?$allocator@U?$pair@$$CBEPAU__TAXINFO@@@std@@@1@@Z
_TEXT	SEGMENT PARA USE32 PUBLIC 'CODE'
_TEXT	ENDS
;	COMDAT ??$_Allocate@U_Node@?$_Tree_nod@V?$_Tmap_traits@EPAU__TAXINFO@@U?$less@E@std@@V?$allocator@U?$pair@$$CBEPAU__TAXINFO@@@std@@@3@$0A@@std@@@std@@@std@@YAPAU_Node@?$_Tree_nod@V?$_Tmap_traits@EPAU__TAXINFO@@U?$less@E@std@@V?$allocator@U?$pair@$$CBEPAU__TAXINFO@@@std@@@3@$0A@@std@@@0@IPAU120@@Z
_TEXT	SEGMENT PARA USE32 PUBLIC 'CODE'
_TEXT	ENDS
;	COMDAT ??$?0U?$pair@$$CBEPAU__TAXDETAIL@@@std@@@?$allocator@U_Node@?$_Tree_nod@V?$_Tmap_traits@EPAU__TAXDETAIL@@U?$less@E@std@@V?$allocator@U?$pair@$$CBEPAU__TAXDETAIL@@@std@@@3@$0A@@std@@@std@@@std@@QAE@ABV?$allocator@U?$pair@$$CBEPAU__TAXDETAIL@@@std@@@1@@Z
_TEXT	SEGMENT PARA USE32 PUBLIC 'CODE'
_TEXT	ENDS
;	COMDAT ??$_Destroy@U_Node@?$_Tree_nod@V?$_Tmap_traits@EPAU__TAXDETAIL@@U?$less@E@std@@V?$allocator@U?$pair@$$CBEPAU__TAXDETAIL@@@std@@@3@$0A@@std@@@std@@@std@@YAXPAU_Node@?$_Tree_nod@V?$_Tmap_traits@EPAU__TAXDETAIL@@U?$less@E@std@@V?$allocator@U?$pair@$$CBEPAU__TAXDETAIL@@@std@@@3@$0A@@std@@@0@@Z
_TEXT	SEGMENT PARA USE32 PUBLIC 'CODE'
_TEXT	ENDS
;	COMDAT ??$_Construct@PAU_Node@?$_Tree_nod@V?$_Tmap_traits@EPAU__TAXDETAIL@@U?$less@E@std@@V?$allocator@U?$pair@$$CBEPAU__TAXDETAIL@@@std@@@3@$0A@@std@@@std@@PAU123@@std@@YAXPAPAU_Node@?$_Tree_nod@V?$_Tmap_traits@EPAU__TAXDETAIL@@U?$less@E@std@@V?$allocator@U?$pair@$$CBEPAU__TAXDETAIL@@@std@@@3@$0A@@std@@@0@ABQAU120@@Z
_TEXT	SEGMENT PARA USE32 PUBLIC 'CODE'
_TEXT	ENDS
;	COMDAT ??$?0U?$pair@$$CBEPAU__TAXINFO@@@std@@@?$allocator@U_Node@?$_Tree_nod@V?$_Tmap_traits@EPAU__TAXINFO@@U?$less@E@std@@V?$allocator@U?$pair@$$CBEPAU__TAXINFO@@@std@@@3@$0A@@std@@@std@@@std@@QAE@ABV?$allocator@U?$pair@$$CBEPAU__TAXINFO@@@std@@@1@@Z
_TEXT	SEGMENT PARA USE32 PUBLIC 'CODE'
_TEXT	ENDS
;	COMDAT ??$_Construct@PAU_Node@?$_Tree_nod@V?$_Tmap_traits@EPAU__TAXINFO@@U?$less@E@std@@V?$allocator@U?$pair@$$CBEPAU__TAXINFO@@@std@@@3@$0A@@std@@@std@@PAU123@@std@@YAXPAPAU_Node@?$_Tree_nod@V?$_Tmap_traits@EPAU__TAXINFO@@U?$less@E@std@@V?$allocator@U?$pair@$$CBEPAU__TAXINFO@@@std@@@3@$0A@@std@@@0@ABQAU120@@Z
_TEXT	SEGMENT PARA USE32 PUBLIC 'CODE'
_TEXT	ENDS
;	COMDAT ??0bad_weak_ptr@boost@@QAE@ABV01@@Z
_TEXT	SEGMENT PARA USE32 PUBLIC 'CODE'
_TEXT	ENDS
;	COMDAT ?destroy@?$allocator@UtagDROPITEM@@@std@@QAEXPAUtagDROPITEM@@@Z
_TEXT	SEGMENT PARA USE32 PUBLIC 'CODE'
_TEXT	ENDS
;	COMDAT ??0?$pair@EPAU__TAXDETAIL@@@std@@QAE@ABEABQAU__TAXDETAIL@@@Z
_TEXT	SEGMENT PARA USE32 PUBLIC 'CODE'
_TEXT	ENDS
;	COMDAT ??0?$pair@HPAU__TAXINFO@@@std@@QAE@ABHABQAU__TAXINFO@@@Z
_TEXT	SEGMENT PARA USE32 PUBLIC 'CODE'
_TEXT	ENDS
;	COMDAT ??$_Uninit_copy@JJ@std@@YAPAJPAJ00AAV?$allocator@J@0@U_Scalar_ptr_iterator_tag@0@@Z
_TEXT	SEGMENT PARA USE32 PUBLIC 'CODE'
_TEXT	ENDS
;	COMDAT ??$fill_n@PAJIJ@std@@YAXPAJIABJ@Z
_TEXT	SEGMENT PARA USE32 PUBLIC 'CODE'
_TEXT	ENDS
;	COMDAT ??$_Uninit_fill_n@KIK@std@@YAXPAKIABKAAV?$allocator@K@0@U_Scalar_ptr_iterator_tag@0@@Z
_TEXT	SEGMENT PARA USE32 PUBLIC 'CODE'
_TEXT	ENDS
;	COMDAT ??$_Uninitialized_copy@PAKPAKV?$allocator@K@std@@@std@@YAPAKPAK00AAV?$allocator@K@0@@Z
_TEXT	SEGMENT PARA USE32 PUBLIC 'CODE'
_TEXT	ENDS
;	COMDAT ??$_Copy_backward_opt@PAKPAK@std@@YAPAKPAK00U_Scalar_ptr_iterator_tag@0@@Z
_TEXT	SEGMENT PARA USE32 PUBLIC 'CODE'
_TEXT	ENDS
;	COMDAT ??$_Destroy_range@MV?$allocator@M@std@@@std@@YAXPAM0AAV?$allocator@M@0@U_Scalar_ptr_iterator_tag@0@@Z
_TEXT	SEGMENT PARA USE32 PUBLIC 'CODE'
_TEXT	ENDS
;	COMDAT ??$_Destroy_range@HV?$allocator@H@std@@@std@@YAXPAH0AAV?$allocator@H@0@U_Scalar_ptr_iterator_tag@0@@Z
_TEXT	SEGMENT PARA USE32 PUBLIC 'CODE'
_TEXT	ENDS
;	COMDAT ??$_Destroy@UtagDROPITEM@@@std@@YAXPAUtagDROPITEM@@@Z
_TEXT	SEGMENT PARA USE32 PUBLIC 'CODE'
_TEXT	ENDS
;	COMDAT ??$fill_n@PAKIK@std@@YAXPAKIABK@Z
_TEXT	SEGMENT PARA USE32 PUBLIC 'CODE'
_TEXT	ENDS
;	COMDAT ??$_Uninit_copy@KK@std@@YAPAKPAK00AAV?$allocator@K@0@U_Scalar_ptr_iterator_tag@0@@Z
_TEXT	SEGMENT PARA USE32 PUBLIC 'CODE'
_TEXT	ENDS
;	COMDAT ?_Ptr_cat@std@@YA?AU_Scalar_ptr_iterator_tag@1@PAH0@Z
_TEXT	SEGMENT PARA USE32 PUBLIC 'CODE'
_TEXT	ENDS
;	COMDAT ?_Ptr_cat@std@@YA?AU_Scalar_ptr_iterator_tag@1@PAM0@Z
_TEXT	SEGMENT PARA USE32 PUBLIC 'CODE'
_TEXT	ENDS
;	COMDAT ?_Ptr_cat@std@@YA?AU_Scalar_ptr_iterator_tag@1@PAK0@Z
_TEXT	SEGMENT PARA USE32 PUBLIC 'CODE'
_TEXT	ENDS
;	COMDAT __CTA2?AVbad_weak_ptr@boost@@
xdata$x	SEGMENT DWORD USE32 PUBLIC 'CONST'
xdata$x	ENDS
;	COMDAT __CT??_R0?AVexception@@@8??0exception@@QAE@ABV0@@Z12
xdata$x	SEGMENT DWORD USE32 PUBLIC 'CONST'
xdata$x	ENDS
;	COMDAT ??_R0?AVexception@@@8
_DATA	SEGMENT DWORD USE32 PUBLIC 'DATA'
_DATA	ENDS
;	COMDAT __CT??_R0?AVbad_weak_ptr@boost@@@8??0bad_weak_ptr@boost@@QAE@ABV01@@Z12
xdata$x	SEGMENT DWORD USE32 PUBLIC 'CONST'
xdata$x	ENDS
;	COMDAT ??_R0?AVbad_weak_ptr@boost@@@8
_DATA	SEGMENT DWORD USE32 PUBLIC 'DATA'
_DATA	ENDS
;	COMDAT __TI2?AVbad_weak_ptr@boost@@
xdata$x	SEGMENT DWORD USE32 PUBLIC 'CONST'
xdata$x	ENDS
;	COMDAT ?_Ptr_cat@std@@YA?AU_Scalar_ptr_iterator_tag@1@PAJ0@Z
_TEXT	SEGMENT PARA USE32 PUBLIC 'CODE'
_TEXT	ENDS
;	COMDAT ??9const_iterator@?$_Tree@V?$_Tmap_traits@KU_Friend@@U?$less@K@std@@V?$allocator@U?$pair@$$CBKU_Friend@@@std@@@3@$0A@@std@@@std@@QBE_NABV012@@Z
_TEXT	SEGMENT PARA USE32 PUBLIC 'CODE'
_TEXT	ENDS
;	COMDAT ??8const_iterator@?$_Tree@V?$_Tmap_traits@KU_Friend@@U?$less@K@std@@V?$allocator@U?$pair@$$CBKU_Friend@@@std@@@3@$0A@@std@@@std@@QBE_NABV012@@Z
_TEXT	SEGMENT PARA USE32 PUBLIC 'CODE'
_TEXT	ENDS
;	COMDAT ??Eiterator@?$_Tree@V?$_Tmap_traits@KU_Friend@@U?$less@K@std@@V?$allocator@U?$pair@$$CBKU_Friend@@@std@@@3@$0A@@std@@@std@@QAEAAV012@XZ
_TEXT	SEGMENT PARA USE32 PUBLIC 'CODE'
_TEXT	ENDS
;	COMDAT ??Econst_iterator@?$_Tree@V?$_Tmap_traits@KU_Friend@@U?$less@K@std@@V?$allocator@U?$pair@$$CBKU_Friend@@@std@@@3@$0A@@std@@@std@@QAEAAV012@XZ
_TEXT	SEGMENT PARA USE32 PUBLIC 'CODE'
_TEXT	ENDS
;	COMDAT ?_Inc@const_iterator@?$_Tree@V?$_Tmap_traits@KU_Friend@@U?$less@K@std@@V?$allocator@U?$pair@$$CBKU_Friend@@@std@@@3@$0A@@std@@@std@@QAEXXZ
_TEXT	SEGMENT PARA USE32 PUBLIC 'CODE'
_TEXT	ENDS
;	COMDAT ?_Min@?$_Tree@V?$_Tmap_traits@KU_Friend@@U?$less@K@std@@V?$allocator@U?$pair@$$CBKU_Friend@@@std@@@3@$0A@@std@@@std@@KAPAU_Node@?$_Tree_nod@V?$_Tmap_traits@KU_Friend@@U?$less@K@std@@V?$allocator@U?$pair@$$CBKU_Friend@@@std@@@3@$0A@@std@@@2@PAU342@@Z
_TEXT	SEGMENT PARA USE32 PUBLIC 'CODE'
_TEXT	ENDS
;	COMDAT ?_Left@?$_Tree@V?$_Tmap_traits@KU_Friend@@U?$less@K@std@@V?$allocator@U?$pair@$$CBKU_Friend@@@std@@@3@$0A@@std@@@std@@KAAAPAU_Node@?$_Tree_nod@V?$_Tmap_traits@KU_Friend@@U?$less@K@std@@V?$allocator@U?$pair@$$CBKU_Friend@@@std@@@3@$0A@@std@@@2@PAU342@@Z
_TEXT	SEGMENT PARA USE32 PUBLIC 'CODE'
_TEXT	ENDS
;	COMDAT ?_Isnil@?$_Tree@V?$_Tmap_traits@KU_Friend@@U?$less@K@std@@V?$allocator@U?$pair@$$CBKU_Friend@@@std@@@3@$0A@@std@@@std@@KAAADPAU_Node@?$_Tree_nod@V?$_Tmap_traits@KU_Friend@@U?$less@K@std@@V?$allocator@U?$pair@$$CBKU_Friend@@@std@@@3@$0A@@std@@@2@@Z
_TEXT	SEGMENT PARA USE32 PUBLIC 'CODE'
_TEXT	ENDS
;	COMDAT ?_Parent@?$_Tree@V?$_Tmap_traits@KU_Friend@@U?$less@K@std@@V?$allocator@U?$pair@$$CBKU_Friend@@@std@@@3@$0A@@std@@@std@@KAAAPAU_Node@?$_Tree_nod@V?$_Tmap_traits@KU_Friend@@U?$less@K@std@@V?$allocator@U?$pair@$$CBKU_Friend@@@std@@@3@$0A@@std@@@2@PAU342@@Z
_TEXT	SEGMENT PARA USE32 PUBLIC 'CODE'
_TEXT	ENDS
;	COMDAT ?_Right@?$_Tree@V?$_Tmap_traits@KU_Friend@@U?$less@K@std@@V?$allocator@U?$pair@$$CBKU_Friend@@@std@@@3@$0A@@std@@@std@@KAAAPAU_Node@?$_Tree_nod@V?$_Tmap_traits@KU_Friend@@U?$less@K@std@@V?$allocator@U?$pair@$$CBKU_Friend@@@std@@@3@$0A@@std@@@2@PAU342@@Z
_TEXT	SEGMENT PARA USE32 PUBLIC 'CODE'
_TEXT	ENDS
;	COMDAT ?_Psave@?$_Facetptr@V?$ctype@G@std@@@std@@2PBVfacet@locale@2@B
_DATA	SEGMENT DWORD USE32 PUBLIC 'DATA'
_DATA	ENDS
;	COMDAT ?_Psave@?$_Facetptr@V?$ctype@D@std@@@std@@2PBVfacet@locale@2@B
_DATA	SEGMENT DWORD USE32 PUBLIC 'DATA'
_DATA	ENDS
;	COMDAT ??$swap@D@std@@YAXAAD0@Z
_TEXT	SEGMENT PARA USE32 PUBLIC 'CODE'
_TEXT	ENDS
;	COMDAT __TI3?AVout_of_range@std@@
xdata$x	SEGMENT DWORD USE32 PUBLIC 'CONST'
xdata$x	ENDS
;	COMDAT ??1out_of_range@std@@UAE@XZ
_TEXT	SEGMENT PARA USE32 PUBLIC 'CODE'
_TEXT	ENDS
;	COMDAT ??_7out_of_range@std@@6B@
CONST	SEGMENT DWORD USE32 PUBLIC 'CONST'
CONST	ENDS
;	COMDAT ??_Gout_of_range@std@@UAEPAXI@Z
_TEXT	SEGMENT PARA USE32 PUBLIC 'CODE'
_TEXT	ENDS
;	COMDAT ?what@logic_error@std@@UBEPBDXZ
_TEXT	SEGMENT PARA USE32 PUBLIC 'CODE'
_TEXT	ENDS
;	COMDAT ??1logic_error@std@@UAE@XZ
_TEXT	SEGMENT PARA USE32 PUBLIC 'CODE'
_TEXT	ENDS
;	COMDAT ??_7logic_error@std@@6B@
CONST	SEGMENT DWORD USE32 PUBLIC 'CONST'
CONST	ENDS
;	COMDAT ??_Glogic_error@std@@UAEPAXI@Z
_TEXT	SEGMENT PARA USE32 PUBLIC 'CODE'
_TEXT	ENDS
;	COMDAT __CTA3?AVout_of_range@std@@
xdata$x	SEGMENT DWORD USE32 PUBLIC 'CONST'
xdata$x	ENDS
;	COMDAT __CT??_R0?AVout_of_range@std@@@8??0out_of_range@std@@QAE@ABV01@@Z40
xdata$x	SEGMENT DWORD USE32 PUBLIC 'CONST'
xdata$x	ENDS
;	COMDAT ??_R0?AVout_of_range@std@@@8
_DATA	SEGMENT DWORD USE32 PUBLIC 'DATA'
_DATA	ENDS
;	COMDAT ??0out_of_range@std@@QAE@ABV01@@Z
_TEXT	SEGMENT PARA USE32 PUBLIC 'CODE'
_TEXT	ENDS
;	COMDAT ??0logic_error@std@@QAE@ABV01@@Z
_TEXT	SEGMENT PARA USE32 PUBLIC 'CODE'
_TEXT	ENDS
;	COMDAT ??0?$basic_string@DU?$char_traits@D@std@@V?$allocator@D@2@@std@@QAE@ABV01@@Z
_TEXT	SEGMENT PARA USE32 PUBLIC 'CODE'
_TEXT	ENDS
;	COMDAT ??0?$allocator@D@std@@QAE@ABV01@@Z
_TEXT	SEGMENT PARA USE32 PUBLIC 'CODE'
_TEXT	ENDS
;	COMDAT ?assign@?$basic_string@DU?$char_traits@D@std@@V?$allocator@D@2@@std@@QAEAAV12@ABV12@II@Z
_TEXT	SEGMENT PARA USE32 PUBLIC 'CODE'
_TEXT	ENDS
;	COMDAT ?erase@?$basic_string@DU?$char_traits@D@std@@V?$allocator@D@2@@std@@QAEAAV12@II@Z
_TEXT	SEGMENT PARA USE32 PUBLIC 'CODE'
_TEXT	ENDS
;	COMDAT ?move@?$char_traits@D@std@@SAPADPADPBDI@Z
_TEXT	SEGMENT PARA USE32 PUBLIC 'CODE'
_TEXT	ENDS
;	COMDAT ?_Grow@?$basic_string@DU?$char_traits@D@std@@V?$allocator@D@2@@std@@IAE_NI_N@Z
_TEXT	SEGMENT PARA USE32 PUBLIC 'CODE'
_TEXT	ENDS
;	COMDAT ?max_size@?$basic_string@DU?$char_traits@D@std@@V?$allocator@D@2@@std@@QBEIXZ
_TEXT	SEGMENT PARA USE32 PUBLIC 'CODE'
_TEXT	ENDS
;	COMDAT ?max_size@?$allocator@D@std@@QBEIXZ
_TEXT	SEGMENT PARA USE32 PUBLIC 'CODE'
_TEXT	ENDS
;	COMDAT ?_Copy@?$basic_string@DU?$char_traits@D@std@@V?$allocator@D@2@@std@@IAEXII@Z
_TEXT	SEGMENT PARA USE32 PUBLIC 'CODE'
_TEXT	ENDS
;	COMDAT ?allocate@?$allocator@D@std@@QAEPADI@Z
_TEXT	SEGMENT PARA USE32 PUBLIC 'CODE'
_TEXT	ENDS
;	COMDAT ??$_Allocate@D@std@@YAPADIPAD@Z
_TEXT	SEGMENT PARA USE32 PUBLIC 'CODE'
_TEXT	ENDS
;	COMDAT ?copy@?$char_traits@D@std@@SAPADPADPBDI@Z
_TEXT	SEGMENT PARA USE32 PUBLIC 'CODE'
_TEXT	ENDS
;	COMDAT ?_Myptr@?$basic_string@DU?$char_traits@D@std@@V?$allocator@D@2@@std@@QAEPADXZ
_TEXT	SEGMENT PARA USE32 PUBLIC 'CODE'
_TEXT	ENDS
;	COMDAT ?_Eos@?$basic_string@DU?$char_traits@D@std@@V?$allocator@D@2@@std@@IAEXI@Z
_TEXT	SEGMENT PARA USE32 PUBLIC 'CODE'
_TEXT	ENDS
;	COMDAT ?assign@?$char_traits@D@std@@SAXAADABD@Z
_TEXT	SEGMENT PARA USE32 PUBLIC 'CODE'
_TEXT	ENDS
;	COMDAT ?npos@?$basic_string@DU?$char_traits@D@std@@V?$allocator@D@2@@std@@2IB
CONST	SEGMENT DWORD USE32 PUBLIC 'CONST'
CONST	ENDS
;	COMDAT __CT??_R0?AVlogic_error@std@@@8??0logic_error@std@@QAE@ABV01@@Z40
xdata$x	SEGMENT DWORD USE32 PUBLIC 'CONST'
xdata$x	ENDS
;	COMDAT ??_R0?AVlogic_error@std@@@8
_DATA	SEGMENT DWORD USE32 PUBLIC 'DATA'
_DATA	ENDS
;	COMDAT ??_C@_0BM@PAPJHAGI@invalid?5map?1set?$DMT?$DO?5iterator?$AA@
CONST	SEGMENT DWORD USE32 PUBLIC 'CONST'
CONST	ENDS
;	COMDAT ??0out_of_range@std@@QAE@ABV?$basic_string@DU?$char_traits@D@std@@V?$allocator@D@2@@1@@Z
_TEXT	SEGMENT PARA USE32 PUBLIC 'CODE'
_TEXT	ENDS
;	COMDAT ??0logic_error@std@@QAE@ABV?$basic_string@DU?$char_traits@D@std@@V?$allocator@D@2@@1@@Z
_TEXT	SEGMENT PARA USE32 PUBLIC 'CODE'
_TEXT	ENDS
;	COMDAT ??_C@_0BD@OLBABOEK@vector?$DMT?$DO?5too?5long?$AA@
CONST	SEGMENT DWORD USE32 PUBLIC 'CONST'
CONST	ENDS
;	COMDAT ??3@YAXPAX0@Z
_TEXT	SEGMENT PARA USE32 PUBLIC 'CODE'
_TEXT	ENDS
;	COMDAT ??2@YAPAXIPAX@Z
_TEXT	SEGMENT PARA USE32 PUBLIC 'CODE'
_TEXT	ENDS
;	COMDAT ?deallocate@?$allocator@K@std@@QAEXPAKI@Z
_TEXT	SEGMENT PARA USE32 PUBLIC 'CODE'
_TEXT	ENDS
;	COMDAT ?_Destroy@?$vector@KV?$allocator@K@std@@@std@@IAEXPAK0@Z
_TEXT	SEGMENT PARA USE32 PUBLIC 'CODE'
_TEXT	ENDS
;	COMDAT ??$_Destroy_range@KV?$allocator@K@std@@@std@@YAXPAK0AAV?$allocator@K@0@@Z
_TEXT	SEGMENT PARA USE32 PUBLIC 'CODE'
_TEXT	ENDS
;	COMDAT ?allocate@?$allocator@K@std@@QAEPAKI@Z
_TEXT	SEGMENT PARA USE32 PUBLIC 'CODE'
_TEXT	ENDS
;	COMDAT ??$_Allocate@K@std@@YAPAKIPAK@Z
_TEXT	SEGMENT PARA USE32 PUBLIC 'CODE'
_TEXT	ENDS
;	COMDAT ?_Xlen@?$vector@KV?$allocator@K@std@@@std@@IBEXXZ
_TEXT	SEGMENT PARA USE32 PUBLIC 'CODE'
_TEXT	ENDS
;	COMDAT ?max_size@?$vector@KV?$allocator@K@std@@@std@@QBEIXZ
_TEXT	SEGMENT PARA USE32 PUBLIC 'CODE'
_TEXT	ENDS
;	COMDAT ?max_size@?$allocator@K@std@@QBEIXZ
_TEXT	SEGMENT PARA USE32 PUBLIC 'CODE'
_TEXT	ENDS
;	COMDAT ?push_back@?$list@PAXV?$allocator@PAX@std@@@std@@QAEXABQAX@Z
_TEXT	SEGMENT PARA USE32 PUBLIC 'CODE'
_TEXT	ENDS
;	COMDAT ?_Insert@?$list@PAXV?$allocator@PAX@std@@@std@@QAEXViterator@12@ABQAX@Z
_TEXT	SEGMENT PARA USE32 PUBLIC 'CODE'
_TEXT	ENDS
;	COMDAT ?_Mynode@const_iterator@?$list@PAXV?$allocator@PAX@std@@@std@@QBEPAU_Node@?$_List_nod@PAXV?$allocator@PAX@std@@@3@XZ
_TEXT	SEGMENT PARA USE32 PUBLIC 'CODE'
_TEXT	ENDS
;	COMDAT ?_Buynode@?$list@PAXV?$allocator@PAX@std@@@std@@IAEPAU_Node@?$_List_nod@PAXV?$allocator@PAX@std@@@2@PAU342@0ABQAX@Z
_TEXT	SEGMENT PARA USE32 PUBLIC 'CODE'
_TEXT	ENDS
;	COMDAT ?allocate@?$allocator@U_Node@?$_List_nod@PAXV?$allocator@PAX@std@@@std@@@std@@QAEPAU_Node@?$_List_nod@PAXV?$allocator@PAX@std@@@2@I@Z
_TEXT	SEGMENT PARA USE32 PUBLIC 'CODE'
_TEXT	ENDS
;	COMDAT ??$_Allocate@U_Node@?$_List_nod@PAXV?$allocator@PAX@std@@@std@@@std@@YAPAU_Node@?$_List_nod@PAXV?$allocator@PAX@std@@@0@IPAU120@@Z
_TEXT	SEGMENT PARA USE32 PUBLIC 'CODE'
_TEXT	ENDS
;	COMDAT ??0_Node@?$_List_nod@PAXV?$allocator@PAX@std@@@std@@QAE@PAU012@0ABQAX@Z
_TEXT	SEGMENT PARA USE32 PUBLIC 'CODE'
_TEXT	ENDS
;	COMDAT ?deallocate@?$allocator@U_Node@?$_List_nod@PAXV?$allocator@PAX@std@@@std@@@std@@QAEXPAU_Node@?$_List_nod@PAXV?$allocator@PAX@std@@@2@I@Z
_TEXT	SEGMENT PARA USE32 PUBLIC 'CODE'
_TEXT	ENDS
;	COMDAT ?_Incsize@?$list@PAXV?$allocator@PAX@std@@@std@@IAEXI@Z
_TEXT	SEGMENT PARA USE32 PUBLIC 'CODE'
_TEXT	ENDS
;	COMDAT ?max_size@?$list@PAXV?$allocator@PAX@std@@@std@@QBEIXZ
_TEXT	SEGMENT PARA USE32 PUBLIC 'CODE'
_TEXT	ENDS
;	COMDAT ?max_size@?$allocator@PAX@std@@QBEIXZ
_TEXT	SEGMENT PARA USE32 PUBLIC 'CODE'
_TEXT	ENDS
;	COMDAT ??_C@_0BB@MOGOBHAF@list?$DMT?$DO?5too?5long?$AA@
CONST	SEGMENT DWORD USE32 PUBLIC 'CONST'
CONST	ENDS
;	COMDAT ?_Nextnode@?$list@PAXV?$allocator@PAX@std@@@std@@KAAAPAU_Node@?$_List_nod@PAXV?$allocator@PAX@std@@@2@PAU342@@Z
_TEXT	SEGMENT PARA USE32 PUBLIC 'CODE'
_TEXT	ENDS
;	COMDAT ?_Prevnode@?$list@PAXV?$allocator@PAX@std@@@std@@KAAAPAU_Node@?$_List_nod@PAXV?$allocator@PAX@std@@@2@PAU342@@Z
_TEXT	SEGMENT PARA USE32 PUBLIC 'CODE'
_TEXT	ENDS
;	COMDAT ?end@?$list@PAXV?$allocator@PAX@std@@@std@@QAE?AViterator@12@XZ
_TEXT	SEGMENT PARA USE32 PUBLIC 'CODE'
_TEXT	ENDS
;	COMDAT ??0iterator@?$list@PAXV?$allocator@PAX@std@@@std@@QAE@PAU_Node@?$_List_nod@PAXV?$allocator@PAX@std@@@2@@Z
_TEXT	SEGMENT PARA USE32 PUBLIC 'CODE'
_TEXT	ENDS
;	COMDAT ??0const_iterator@?$list@PAXV?$allocator@PAX@std@@@std@@QAE@PAU_Node@?$_List_nod@PAXV?$allocator@PAX@std@@@2@@Z
_TEXT	SEGMENT PARA USE32 PUBLIC 'CODE'
_TEXT	ENDS
;	COMDAT ??_C@_09PKKCPLIP@bad?5alloc?$AA@
CONST	SEGMENT DWORD USE32 PUBLIC 'CONST'
CONST	ENDS
;	COMDAT __TI3?AVlength_error@std@@
xdata$x	SEGMENT DWORD USE32 PUBLIC 'CONST'
xdata$x	ENDS
;	COMDAT ??1length_error@std@@UAE@XZ
_TEXT	SEGMENT PARA USE32 PUBLIC 'CODE'
_TEXT	ENDS
;	COMDAT ??_7length_error@std@@6B@
CONST	SEGMENT DWORD USE32 PUBLIC 'CONST'
CONST	ENDS
;	COMDAT ??_Glength_error@std@@UAEPAXI@Z
_TEXT	SEGMENT PARA USE32 PUBLIC 'CODE'
_TEXT	ENDS
;	COMDAT __CTA3?AVlength_error@std@@
xdata$x	SEGMENT DWORD USE32 PUBLIC 'CONST'
xdata$x	ENDS
;	COMDAT __CT??_R0?AVlength_error@std@@@8??0length_error@std@@QAE@ABV01@@Z40
xdata$x	SEGMENT DWORD USE32 PUBLIC 'CONST'
xdata$x	ENDS
;	COMDAT ??_R0?AVlength_error@std@@@8
_DATA	SEGMENT DWORD USE32 PUBLIC 'DATA'
_DATA	ENDS
;	COMDAT ??0length_error@std@@QAE@ABV01@@Z
_TEXT	SEGMENT PARA USE32 PUBLIC 'CODE'
_TEXT	ENDS
;	COMDAT ??_C@_0BE@JONHPENG@map?1set?$DMT?$DO?5too?5long?$AA@
CONST	SEGMENT DWORD USE32 PUBLIC 'CONST'
CONST	ENDS
;	COMDAT ??0?$basic_string@DU?$char_traits@D@std@@V?$allocator@D@2@@std@@QAE@PBD@Z
_TEXT	SEGMENT PARA USE32 PUBLIC 'CODE'
_TEXT	ENDS
;	COMDAT ?assign@?$basic_string@DU?$char_traits@D@std@@V?$allocator@D@2@@std@@QAEAAV12@PBD@Z
_TEXT	SEGMENT PARA USE32 PUBLIC 'CODE'
_TEXT	ENDS
;	COMDAT ?assign@?$basic_string@DU?$char_traits@D@std@@V?$allocator@D@2@@std@@QAEAAV12@PBDI@Z
_TEXT	SEGMENT PARA USE32 PUBLIC 'CODE'
_TEXT	ENDS
;	COMDAT ?_Inside@?$basic_string@DU?$char_traits@D@std@@V?$allocator@D@2@@std@@IAE_NPBD@Z
_TEXT	SEGMENT PARA USE32 PUBLIC 'CODE'
_TEXT	ENDS
;	COMDAT ?length@?$char_traits@D@std@@SAIPBD@Z
_TEXT	SEGMENT PARA USE32 PUBLIC 'CODE'
_TEXT	ENDS
;	COMDAT ??0length_error@std@@QAE@ABV?$basic_string@DU?$char_traits@D@std@@V?$allocator@D@2@@1@@Z
_TEXT	SEGMENT PARA USE32 PUBLIC 'CODE'
_TEXT	ENDS
;	COMDAT ?compare@?$char_traits@D@std@@SAHPBD0I@Z
_TEXT	SEGMENT PARA USE32 PUBLIC 'CODE'
_TEXT	ENDS
;	COMDAT ??R?$less@K@std@@QBE_NABK0@Z
_TEXT	SEGMENT PARA USE32 PUBLIC 'CODE'
_TEXT	ENDS
;	COMDAT ?_Tidy@?$vector@KV?$allocator@K@std@@@std@@IAEXXZ
_TEXT	SEGMENT PARA USE32 PUBLIC 'CODE'
_TEXT	ENDS
;	COMDAT ?_Myptr@?$basic_string@DU?$char_traits@D@std@@V?$allocator@D@2@@std@@QBEPBDXZ
_TEXT	SEGMENT PARA USE32 PUBLIC 'CODE'
_TEXT	ENDS
;	COMDAT ?size@?$basic_string@DU?$char_traits@D@std@@V?$allocator@D@2@@std@@QBEIXZ
_TEXT	SEGMENT PARA USE32 PUBLIC 'CODE'
_TEXT	ENDS
;	COMDAT ?_Tidy@?$basic_string@DU?$char_traits@D@std@@V?$allocator@D@2@@std@@IAEX_NI@Z
_TEXT	SEGMENT PARA USE32 PUBLIC 'CODE'
_TEXT	ENDS
;	COMDAT ?deallocate@?$allocator@D@std@@QAEXPADI@Z
_TEXT	SEGMENT PARA USE32 PUBLIC 'CODE'
_TEXT	ENDS
;	COMDAT ??0?$allocator@D@std@@QAE@XZ
_TEXT	SEGMENT PARA USE32 PUBLIC 'CODE'
_TEXT	ENDS
;	COMDAT ??0?$_String_val@DV?$allocator@D@std@@@std@@IAE@V?$allocator@D@1@@Z
_TEXT	SEGMENT PARA USE32 PUBLIC 'CODE'
_TEXT	ENDS
;	COMDAT ?ReleaseBufferSetLength@?$CSimpleStringT@D$0A@@ATL@@QAEXH@Z
_TEXT	SEGMENT PARA USE32 PUBLIC 'CODE'
_TEXT	ENDS
;	COMDAT ?SetLength@?$CSimpleStringT@D$0A@@ATL@@AAEXH@Z
_TEXT	SEGMENT PARA USE32 PUBLIC 'CODE'
_TEXT	ENDS
;	COMDAT ?AtlThrow@ATL@@YGXJ@Z
_TEXT	SEGMENT PARA USE32 PUBLIC 'CODE'
_TEXT	ENDS
;	COMDAT ?GetData@?$CSimpleStringT@D$0A@@ATL@@ABEPAUCStringData@2@XZ
_TEXT	SEGMENT PARA USE32 PUBLIC 'CODE'
_TEXT	ENDS
;	COMDAT ?GetBuffer@?$CSimpleStringT@D$0A@@ATL@@QAEPADH@Z
_TEXT	SEGMENT PARA USE32 PUBLIC 'CODE'
_TEXT	ENDS
;	COMDAT ?PrepareWrite@?$CSimpleStringT@D$0A@@ATL@@AAEPADH@Z
_TEXT	SEGMENT PARA USE32 PUBLIC 'CODE'
_TEXT	ENDS
;	COMDAT ?PrepareWrite2@?$CSimpleStringT@D$0A@@ATL@@AAEXH@Z
_TEXT	SEGMENT PARA USE32 PUBLIC 'CODE'
_TEXT	ENDS
;	COMDAT ?IsShared@CStringData@ATL@@QBE_NXZ
_TEXT	SEGMENT PARA USE32 PUBLIC 'CODE'
_TEXT	ENDS
;	COMDAT ?Fork@?$CSimpleStringT@D$0A@@ATL@@AAEXH@Z
_TEXT	SEGMENT PARA USE32 PUBLIC 'CODE'
_TEXT	ENDS
;	COMDAT ?ThrowMemoryException@?$CSimpleStringT@D$0A@@ATL@@KAXXZ
_TEXT	SEGMENT PARA USE32 PUBLIC 'CODE'
_TEXT	ENDS
;	COMDAT ?CopyChars@?$CSimpleStringT@D$0A@@ATL@@SAXPADPBDH@Z
_TEXT	SEGMENT PARA USE32 PUBLIC 'CODE'
_TEXT	ENDS
;	COMDAT ?data@CStringData@ATL@@QAEPAXXZ
_TEXT	SEGMENT PARA USE32 PUBLIC 'CODE'
_TEXT	ENDS
;	COMDAT ?Release@CStringData@ATL@@QAEXXZ
_TEXT	SEGMENT PARA USE32 PUBLIC 'CODE'
_TEXT	ENDS
;	COMDAT ?Attach@?$CSimpleStringT@D$0A@@ATL@@AAEXPAUCStringData@2@@Z
_TEXT	SEGMENT PARA USE32 PUBLIC 'CODE'
_TEXT	ENDS
;	COMDAT ?Reallocate@?$CSimpleStringT@D$0A@@ATL@@AAEXH@Z
_TEXT	SEGMENT PARA USE32 PUBLIC 'CODE'
_TEXT	ENDS
;	COMDAT ?StringFindString@?$ChTraitsCRT@D@ATL@@SAPBDPBD0@Z
_TEXT	SEGMENT PARA USE32 PUBLIC 'CODE'
_TEXT	ENDS
;	COMDAT ?GetLength@?$CSimpleStringT@D$0A@@ATL@@QBEHXZ
_TEXT	SEGMENT PARA USE32 PUBLIC 'CODE'
_TEXT	ENDS
;	COMDAT ?GetString@?$CSimpleStringT@D$0A@@ATL@@QBEPBDXZ
_TEXT	SEGMENT PARA USE32 PUBLIC 'CODE'
_TEXT	ENDS
;	COMDAT ?xRand@@YAKXZ
_TEXT	SEGMENT PARA USE32 PUBLIC 'CODE'
_TEXT	ENDS
;	COMDAT ?SetSerialNumber@CItemBase@@QAEXK@Z
_TEXT	SEGMENT PARA USE32 PUBLIC 'CODE'
_TEXT	ENDS
;	COMDAT ?GetYear@CTime@ATL@@QBEHXZ
_TEXT	SEGMENT PARA USE32 PUBLIC 'CODE'
_TEXT	ENDS
;	COMDAT ?GetLocalTm@CTime@ATL@@QBEPAUtm@@PAU3@@Z
_TEXT	SEGMENT PARA USE32 PUBLIC 'CODE'
_TEXT	ENDS
;	COMDAT ?GetMonth@CTime@ATL@@QBEHXZ
_TEXT	SEGMENT PARA USE32 PUBLIC 'CODE'
_TEXT	ENDS
;	COMDAT ?GetDay@CTime@ATL@@QBEHXZ
_TEXT	SEGMENT PARA USE32 PUBLIC 'CODE'
_TEXT	ENDS
;	COMDAT ??GCTime@ATL@@QBE?AV01@VCTimeSpan@1@@Z
_TEXT	SEGMENT PARA USE32 PUBLIC 'CODE'
_TEXT	ENDS
;	COMDAT ??0CTime@ATL@@QAE@_J@Z
_TEXT	SEGMENT PARA USE32 PUBLIC 'CODE'
_TEXT	ENDS
;	COMDAT ?GetTimeSpan@CTimeSpan@ATL@@QBE_JXZ
_TEXT	SEGMENT PARA USE32 PUBLIC 'CODE'
_TEXT	ENDS
;	COMDAT ?GetText@CProject@@QAEPBDK@Z
_TEXT	SEGMENT PARA USE32 PUBLIC 'CODE'
_TEXT	ENDS
;	COMDAT ??_C@_00CNPNBAHC@?$AA@
CONST	SEGMENT DWORD USE32 PUBLIC 'CONST'
CONST	ENDS
;	COMDAT ?GetAt@?$CFixedArray@UtagColorText@@@@QAEPAUtagColorText@@K@Z
_TEXT	SEGMENT PARA USE32 PUBLIC 'CODE'
_TEXT	ENDS
;	COMDAT ??1?$CStringT@DV?$StrTraitMFC@DV?$ChTraitsCRT@D@ATL@@@@@ATL@@QAE@XZ
_TEXT	SEGMENT PARA USE32 PUBLIC 'CODE'
_TEXT	ENDS
;	COMDAT ??1?$CSimpleStringT@D$0A@@ATL@@QAE@XZ
_TEXT	SEGMENT PARA USE32 PUBLIC 'CODE'
_TEXT	ENDS
;	COMDAT ??_C@_09GBAEEKDE@?$CFs?0?5?$CFd?7?$CFs?$AA@
CONST	SEGMENT DWORD USE32 PUBLIC 'CONST'
CONST	ENDS
;	COMDAT ??_7CTaxDBController@@6B@
CONST	SEGMENT DWORD USE32 PUBLIC 'CONST'
CONST	ENDS
;	COMDAT ??5CAr@@QAEAAV0@AAE@Z
_TEXT	SEGMENT PARA USE32 PUBLIC 'CODE'
_TEXT	ENDS
;	COMDAT ??6CAr@@QAEAAV0@E@Z
_TEXT	SEGMENT PARA USE32 PUBLIC 'CODE'
_TEXT	ENDS
;	COMDAT ??6CAr@@QAEAAV0@I@Z
_TEXT	SEGMENT PARA USE32 PUBLIC 'CODE'
_TEXT	ENDS
;	COMDAT ??4?$basic_string@DU?$char_traits@D@std@@V?$allocator@D@2@@std@@QAEAAV01@PBD@Z
_TEXT	SEGMENT PARA USE32 PUBLIC 'CODE'
_TEXT	ENDS
;	COMDAT ?ToBool@CLuaBase@@QAEHH@Z
_TEXT	SEGMENT PARA USE32 PUBLIC 'CODE'
_TEXT	ENDS
;	COMDAT ?c_str@?$basic_string@DU?$char_traits@D@std@@V?$allocator@D@2@@std@@QBEPBDXZ
_TEXT	SEGMENT PARA USE32 PUBLIC 'CODE'
_TEXT	ENDS
;	COMDAT ?PushString@CLuaBase@@QAEXPBD@Z
_TEXT	SEGMENT PARA USE32 PUBLIC 'CODE'
_TEXT	ENDS
;	COMDAT ?ToString@CLuaBase@@QAEPBDH@Z
_TEXT	SEGMENT PARA USE32 PUBLIC 'CODE'
_TEXT	ENDS
;	COMDAT ?TableLoop@CLuaBase@@QAEHH@Z
_TEXT	SEGMENT PARA USE32 PUBLIC 'CODE'
_TEXT	ENDS
;	COMDAT ?PushNil@CLuaBase@@QAEXXZ
_TEXT	SEGMENT PARA USE32 PUBLIC 'CODE'
_TEXT	ENDS
;	COMDAT ?GetGloabal@CLuaBase@@QAEXPAD@Z
_TEXT	SEGMENT PARA USE32 PUBLIC 'CODE'
_TEXT	ENDS
;	COMDAT ?sTax@?1??GetInstance@CTax@@SAPAV2@XZ@4V2@A
_BSS	SEGMENT DWORD USE32 PUBLIC 'BSS'
_BSS	ENDS
;	COMDAT ?$S1@?1??GetInstance@CTax@@SAPAV2@XZ@4IA
_BSS	SEGMENT DWORD USE32 PUBLIC 'BSS'
_BSS	ENDS
;	COMDAT ??1?$vector@KV?$allocator@K@std@@@std@@QAE@XZ
_TEXT	SEGMENT PARA USE32 PUBLIC 'CODE'
_TEXT	ENDS
;	COMDAT ??0?$vector@KV?$allocator@K@std@@@std@@QAE@XZ
_TEXT	SEGMENT PARA USE32 PUBLIC 'CODE'
_TEXT	ENDS
;	COMDAT ??0?$_Vector_val@KV?$allocator@K@std@@@std@@IAE@V?$allocator@K@1@@Z
_TEXT	SEGMENT PARA USE32 PUBLIC 'CODE'
_TEXT	ENDS
;	COMDAT ??0?$allocator@K@std@@QAE@ABV01@@Z
_TEXT	SEGMENT PARA USE32 PUBLIC 'CODE'
_TEXT	ENDS
;	COMDAT ??0?$allocator@K@std@@QAE@XZ
_TEXT	SEGMENT PARA USE32 PUBLIC 'CODE'
_TEXT	ENDS
;	COMDAT ?_Buy@?$vector@KV?$allocator@K@std@@@std@@IAE_NI@Z
_TEXT	SEGMENT PARA USE32 PUBLIC 'CODE'
_TEXT	ENDS
;	COMDAT ??1?$basic_string@DU?$char_traits@D@std@@V?$allocator@D@2@@std@@QAE@XZ
_TEXT	SEGMENT PARA USE32 PUBLIC 'CODE'
_TEXT	ENDS
;	COMDAT ?Leave@CMclCritSec@@QAEXXZ
_TEXT	SEGMENT PARA USE32 PUBLIC 'CODE'
_TEXT	ENDS
;	COMDAT ?Enter@CMclCritSec@@QAEXXZ
_TEXT	SEGMENT PARA USE32 PUBLIC 'CODE'
_TEXT	ENDS
;	COMDAT ??0CTime@ATL@@QAE@XZ
_TEXT	SEGMENT PARA USE32 PUBLIC 'CODE'
_TEXT	ENDS
;	COMDAT ??1CMclCritSec@@UAE@XZ
_TEXT	SEGMENT PARA USE32 PUBLIC 'CODE'
_TEXT	ENDS
;	COMDAT ??_7CMclCritSec@@6B@
CONST	SEGMENT DWORD USE32 PUBLIC 'CONST'
CONST	ENDS
;	COMDAT ??_GCMclCritSec@@UAEPAXI@Z
_TEXT	SEGMENT PARA USE32 PUBLIC 'CODE'
_TEXT	ENDS
;	COMDAT ??0CMclCritSec@@QAE@XZ
_TEXT	SEGMENT PARA USE32 PUBLIC 'CODE'
_TEXT	ENDS
;	COMDAT ??0D3DXVECTOR3@@QAE@XZ
_TEXT	SEGMENT PARA USE32 PUBLIC 'CODE'
_TEXT	ENDS
;	COMDAT ??4?$CStringT@DV?$StrTraitMFC@DV?$ChTraitsCRT@D@ATL@@@@@ATL@@QAEAAV01@PBD@Z
_TEXT	SEGMENT PARA USE32 PUBLIC 'CODE'
_TEXT	ENDS
;	COMDAT ??4?$CSimpleStringT@D$0A@@ATL@@QAEAAV01@PBD@Z
_TEXT	SEGMENT PARA USE32 PUBLIC 'CODE'
_TEXT	ENDS
;	COMDAT ?SetString@?$CSimpleStringT@D$0A@@ATL@@QAEXPBD@Z
_TEXT	SEGMENT PARA USE32 PUBLIC 'CODE'
_TEXT	ENDS
;	COMDAT ?SetString@?$CSimpleStringT@D$0A@@ATL@@QAEXPBDH@Z
_TEXT	SEGMENT PARA USE32 PUBLIC 'CODE'
_TEXT	ENDS
;	COMDAT ?Empty@?$CSimpleStringT@D$0A@@ATL@@QAEXXZ
_TEXT	SEGMENT PARA USE32 PUBLIC 'CODE'
_TEXT	ENDS
;	COMDAT ?IsLocked@CStringData@ATL@@QBE_NXZ
_TEXT	SEGMENT PARA USE32 PUBLIC 'CODE'
_TEXT	ENDS
;	COMDAT ?CopyCharsOverlapped@?$CSimpleStringT@D$0A@@ATL@@SAXPADPBDH@Z
_TEXT	SEGMENT PARA USE32 PUBLIC 'CODE'
_TEXT	ENDS
;	COMDAT ?StringLength@?$CSimpleStringT@D$0A@@ATL@@SAHPBD@Z
_TEXT	SEGMENT PARA USE32 PUBLIC 'CODE'
_TEXT	ENDS
;	COMDAT ??B?$CSimpleStringT@D$0A@@ATL@@QBEPBDXZ
_TEXT	SEGMENT PARA USE32 PUBLIC 'CODE'
_TEXT	ENDS
;	COMDAT ??5@YAAAVCAr@@AAV0@AAUD3DXVECTOR3@@@Z
_TEXT	SEGMENT PARA USE32 PUBLIC 'CODE'
_TEXT	ENDS
;	COMDAT ??5CAr@@QAEAAV0@AAM@Z
_TEXT	SEGMENT PARA USE32 PUBLIC 'CODE'
_TEXT	ENDS
;	COMDAT ??5CAr@@QAEAAV0@AAK@Z
_TEXT	SEGMENT PARA USE32 PUBLIC 'CODE'
_TEXT	ENDS
;	COMDAT ??5CAr@@QAEAAV0@AAJ@Z
_TEXT	SEGMENT PARA USE32 PUBLIC 'CODE'
_TEXT	ENDS
;	COMDAT ?time_null@@YAJXZ
_TEXT	SEGMENT PARA USE32 PUBLIC 'CODE'
_TEXT	ENDS
;	COMDAT ??6CAr@@QAEAAV0@K@Z
_TEXT	SEGMENT PARA USE32 PUBLIC 'CODE'
_TEXT	ENDS
;	COMDAT ??6CAr@@QAEAAV0@J@Z
_TEXT	SEGMENT PARA USE32 PUBLIC 'CODE'
_TEXT	ENDS
;	COMDAT ??6@YAAAVCAr@@AAV0@UD3DXVECTOR3@@@Z
_TEXT	SEGMENT PARA USE32 PUBLIC 'CODE'
_TEXT	ENDS
;	COMDAT ??6CAr@@QAEAAV0@M@Z
_TEXT	SEGMENT PARA USE32 PUBLIC 'CODE'
_TEXT	ENDS
;	COMDAT ?IsStoring@CAr@@QBEHXZ
_TEXT	SEGMENT PARA USE32 PUBLIC 'CODE'
_TEXT	ENDS
;	COMDAT ?GetTime@CTime@ATL@@QBE_JXZ
_TEXT	SEGMENT PARA USE32 PUBLIC 'CODE'
_TEXT	ENDS
;	COMDAT ??0CTimeSpan@ATL@@QAE@JHHH@Z
_TEXT	SEGMENT PARA USE32 PUBLIC 'CODE'
_TEXT	ENDS
;	COMDAT ?GetTickCount@CTime@ATL@@SG?AV12@XZ
_TEXT	SEGMENT PARA USE32 PUBLIC 'CODE'
_TEXT	ENDS
;	COMDAT ??HCTime@ATL@@QBE?AV01@VCTimeSpan@1@@Z
_TEXT	SEGMENT PARA USE32 PUBLIC 'CODE'
_TEXT	ENDS
;	COMDAT ?GetItemProp@CProject@@QAEPAUItemProp@@H@Z
_TEXT	SEGMENT PARA USE32 PUBLIC 'CODE'
_TEXT	ENDS
;	COMDAT ?GetAt@?$CFixedArray@UItemProp@@@@QAEPAUItemProp@@K@Z
_TEXT	SEGMENT PARA USE32 PUBLIC 'CODE'
_TEXT	ENDS
;	COMDAT ??0D3DXVECTOR3@@QAE@MMM@Z
_TEXT	SEGMENT PARA USE32 PUBLIC 'CODE'
_TEXT	ENDS
;	COMDAT ??5CAr@@QAEAAV0@AAH@Z
_TEXT	SEGMENT PARA USE32 PUBLIC 'CODE'
_TEXT	ENDS
;	COMDAT ??6CAr@@QAEAAV0@H@Z
_TEXT	SEGMENT PARA USE32 PUBLIC 'CODE'
_TEXT	ENDS
;	COMDAT ??_7CLordSkillComponentExecutable@@6B@
CONST	SEGMENT DWORD USE32 PUBLIC 'CONST'
CONST	ENDS
;	COMDAT ??_7bad_weak_ptr@boost@@6B@
CONST	SEGMENT DWORD USE32 PUBLIC 'CONST'
CONST	ENDS
;	COMDAT ??_7sp_counted_base@detail@boost@@6B@
CONST	SEGMENT DWORD USE32 PUBLIC 'CONST'
CONST	ENDS
sxdata	SEGMENT DWORD USE32 'SXDATA'
sxdata	ENDS
FLAT	GROUP _DATA, CONST, _BSS
	ASSUME	CS: FLAT, DS: FLAT, SS: FLAT
endif

INCLUDELIB LIBCMT
INCLUDELIB OLDNAMES

PUBLIC	?GetQueryObject@CDbController@@QAEPAVCQuery@@XZ	; CDbController::GetQueryObject
; Function compile flags: /Ogty
; File c:\documents and settings\test\mes documents\source\virtuos_v17\build\program\databaseserver\dbcontroller.h
;	COMDAT ?GetQueryObject@CDbController@@QAEPAVCQuery@@XZ
_TEXT	SEGMENT
?GetQueryObject@CDbController@@QAEPAVCQuery@@XZ PROC NEAR ; CDbController::GetQueryObject, COMDAT
; _this$ = ecx

; 20   : 	CQuery*	GetQueryObject( void )	{	return m_pQuery;	}

  00000	8b 41 0c	 mov	 eax, DWORD PTR [ecx+12]
  00003	c3		 ret	 0
?GetQueryObject@CDbController@@QAEPAVCQuery@@XZ ENDP	; CDbController::GetQueryObject
_TEXT	ENDS
PUBLIC	??0__TAXDETAIL@@QAE@XZ				; __TAXDETAIL::__TAXDETAIL
; Function compile flags: /Ogty
; File c:\documents and settings\test\mes documents\source\virtuos_v17\build\program\_common\tax.h
;	COMDAT ??0__TAXDETAIL@@QAE@XZ
_TEXT	SEGMENT
??0__TAXDETAIL@@QAE@XZ PROC NEAR			; __TAXDETAIL::__TAXDETAIL, COMDAT
; _this$ = ecx

; 53   : 	__TAXDETAIL()

  00000	8b c1		 mov	 eax, ecx

; 54   : 	{
; 55   : 		nTaxRate = 0;

  00002	33 c9		 xor	 ecx, ecx
  00004	89 08		 mov	 DWORD PTR [eax], ecx

; 56   : #ifdef __DBSERVER
; 57   : 		nTaxCount = 0;

  00006	89 48 04	 mov	 DWORD PTR [eax+4], ecx

; 58   : 		nTaxGold = 0;

  00009	89 48 08	 mov	 DWORD PTR [eax+8], ecx

; 59   : 		nTaxPerin = 0;

  0000c	89 48 0c	 mov	 DWORD PTR [eax+12], ecx

; 60   : 		nNextTaxRate = 0;

  0000f	89 48 10	 mov	 DWORD PTR [eax+16], ecx

; 61   : #endif // __DBSERVER
; 62   : 	}

  00012	c3		 ret	 0
??0__TAXDETAIL@@QAE@XZ ENDP				; __TAXDETAIL::__TAXDETAIL
_TEXT	ENDS
PUBLIC	??2@YAPAXIPAX@Z					; operator new
; Function compile flags: /Ogty
; File c:\program files\microsoft visual studio .net 2003\vc7\include\new.h
;	COMDAT ??2@YAPAXIPAX@Z
_TEXT	SEGMENT
___formal$ = 8						; size = 4
__P$ = 12						; size = 4
??2@YAPAXIPAX@Z PROC NEAR				; operator new, COMDAT

; 109  :         {return (_P); }

  00000	8b 44 24 08	 mov	 eax, DWORD PTR __P$[esp-4]
  00004	c3		 ret	 0
??2@YAPAXIPAX@Z ENDP					; operator new
_TEXT	ENDS
PUBLIC	??3@YAXPAX0@Z					; operator delete
; Function compile flags: /Ogty
;	COMDAT ??3@YAXPAX0@Z
_TEXT	SEGMENT
___formal$ = 8						; size = 4
___formal$ = 12						; size = 4
??3@YAXPAX0@Z PROC NEAR					; operator delete, COMDAT

; 112  :         {return; }

  00000	c3		 ret	 0
??3@YAXPAX0@Z ENDP					; operator delete
_TEXT	ENDS
PUBLIC	?GetState@IElection@@QAE?AW4ELECTION_STATE@1@XZ	; IElection::GetState
; Function compile flags: /Ogty
; File c:\documents and settings\test\mes documents\source\virtuos_v17\build\program\_common\lord.h
;	COMDAT ?GetState@IElection@@QAE?AW4ELECTION_STATE@1@XZ
_TEXT	SEGMENT
?GetState@IElection@@QAE?AW4ELECTION_STATE@1@XZ PROC NEAR ; IElection::GetState, COMDAT
; _this$ = ecx

; 73   : 	ELECTION_STATE	GetState( void )	{	return m_eState;	}

  00000	8b 41 10	 mov	 eax, DWORD PTR [ecx+16]
  00003	c3		 ret	 0
?GetState@IElection@@QAE?AW4ELECTION_STATE@1@XZ ENDP	; IElection::GetState
_TEXT	ENDS
PUBLIC	?Get@CLord@@QAEKXZ				; CLord::Get
; Function compile flags: /Ogty
;	COMDAT ?Get@CLord@@QAEKXZ
_TEXT	SEGMENT
?Get@CLord@@QAEKXZ PROC NEAR				; CLord::Get, COMDAT
; _this$ = ecx

; 255  : 	u_long	Get( void )		{	return m_idPlayer;	}

  00000	8b 41 04	 mov	 eax, DWORD PTR [ecx+4]
  00003	c3		 ret	 0
?Get@CLord@@QAEKXZ ENDP					; CLord::Get
_TEXT	ENDS
PUBLIC	?GetElection@CLord@@QAEPAVIElection@@XZ		; CLord::GetElection
; Function compile flags: /Ogty
;	COMDAT ?GetElection@CLord@@QAEPAVIElection@@XZ
_TEXT	SEGMENT
?GetElection@CLord@@QAEPAVIElection@@XZ PROC NEAR	; CLord::GetElection, COMDAT
; _this$ = ecx

; 260  : 	IElection*	GetElection( void )		{	return m_pElection;		}

  00000	8b 41 08	 mov	 eax, DWORD PTR [ecx+8]
  00003	c3		 ret	 0
?GetElection@CLord@@QAEPAVIElection@@XZ ENDP		; CLord::GetElection
_TEXT	ENDS
PUBLIC	?Release@CStringData@ATL@@QAEXXZ		; ATL::CStringData::Release
; Function compile flags: /Ogty
; File c:\program files\microsoft visual studio .net 2003\vc7\atlmfc\include\atlsimpstr.h
;	COMDAT ?Release@CStringData@ATL@@QAEXXZ
_TEXT	SEGMENT
?Release@CStringData@ATL@@QAEXXZ PROC NEAR		; ATL::CStringData::Release, COMDAT
; _this$ = ecx

; 93   : 		ATLASSERT( nRefs != 0 );
; 94   : 
; 95   : 		if( _InterlockedDecrement( &nRefs ) <= 0 )

  00000	8d 41 0c	 lea	 eax, DWORD PTR [ecx+12]
  00003	83 ca ff	 or	 edx, -1
  00006	f0 0f c1 10	 lock	  xadd	 DWORD PTR [eax], edx
  0000a	4a		 dec	 edx
  0000b	85 d2		 test	 edx, edx
  0000d	7f 0a		 jg	 SHORT $L39883

; 96   : 		{
; 97   : 			pStringMgr->Free( this );

  0000f	8b 01		 mov	 eax, DWORD PTR [ecx]
  00011	8b 10		 mov	 edx, DWORD PTR [eax]
  00013	51		 push	 ecx
  00014	8b c8		 mov	 ecx, eax
  00016	ff 52 04	 call	 DWORD PTR [edx+4]
$L39883:

; 98   : 		}
; 99   : 	}

  00019	c3		 ret	 0
?Release@CStringData@ATL@@QAEXXZ ENDP			; ATL::CStringData::Release
_TEXT	ENDS
PUBLIC	__real@3c23d70b
PUBLIC	?GetEarningRate@CTax@@QAEMEE@Z			; CTax::GetEarningRate
EXTRN	__fltused:NEAR
;	COMDAT __real@3c23d70b
; File c:\documents and settings\test\mes documents\source\virtuos_v17\build\program\_common\tax.cpp
CONST	SEGMENT
__real@3c23d70b DD 03c23d70br			; 0.01
; Function compile flags: /Ogty
CONST	ENDS
;	COMDAT ?GetEarningRate@CTax@@QAEMEE@Z
_TEXT	SEGMENT
_nEarningRate$ = 8					; size = 4
_nCont$ = 8						; size = 1
_nTaxKind$ = 12						; size = 1
?GetEarningRate@CTax@@QAEMEE@Z PROC NEAR		; CTax::GetEarningRate, COMDAT
; _this$ = ecx

; 292  : 	int nEarningRate = 0;
; 293  : 	switch( nTaxKind )

  00000	0f b6 44 24 08	 movzx	 eax, BYTE PTR _nTaxKind$[esp-4]
  00005	83 e8 02	 sub	 eax, 2

; 300  : 		break;
; 301  : 
; 302  : 	default :
; 303  : 		if( nCont == CONT_ALL )		//  

  00008	8a 44 24 04	 mov	 al, BYTE PTR _nCont$[esp-4]
  0000c	74 2c		 je	 SHORT $L208389
  0000e	3c ff		 cmp	 al, 255			; 000000ffH
  00010	75 14		 jne	 SHORT $L208393

; 304  : 			nEarningRate = m_nTaxLordRate;

  00012	8b 41 18	 mov	 eax, DWORD PTR [ecx+24]
  00015	89 44 24 04	 mov	 DWORD PTR _nEarningRate$[esp-4], eax

; 307  : 		break;
; 308  : 	}
; 309  : 
; 310  : 	return static_cast<float>(nEarningRate) * 0.1f * 0.1f;

  00019	db 44 24 04	 fild	 DWORD PTR _nEarningRate$[esp-4]
  0001d	d8 0d 00 00 00
	00		 fmul	 DWORD PTR __real@3c23d70b

; 311  : }

  00023	c2 08 00	 ret	 8
$L208393:

; 305  : 		else
; 306  : 			nEarningRate = m_nTaxSecretRoomRate;

  00026	8b 49 14	 mov	 ecx, DWORD PTR [ecx+20]
  00029	89 4c 24 04	 mov	 DWORD PTR _nEarningRate$[esp-4], ecx

; 307  : 		break;
; 308  : 	}
; 309  : 
; 310  : 	return static_cast<float>(nEarningRate) * 0.1f * 0.1f;

  0002d	db 44 24 04	 fild	 DWORD PTR _nEarningRate$[esp-4]
  00031	d8 0d 00 00 00
	00		 fmul	 DWORD PTR __real@3c23d70b

; 311  : }

  00037	c2 08 00	 ret	 8
$L208389:

; 294  : 	{
; 295  : 	case TAX_ADMISSION :	// 
; 296  : 		if( nCont == CONT_ALL )		//  

  0003a	3c ff		 cmp	 al, 255			; 000000ffH
  0003c	75 14		 jne	 SHORT $L208390

; 297  : 			nEarningRate = m_nAdmissionLordRate;

  0003e	8b 51 20	 mov	 edx, DWORD PTR [ecx+32]
  00041	89 54 24 04	 mov	 DWORD PTR _nEarningRate$[esp-4], edx

; 307  : 		break;
; 308  : 	}
; 309  : 
; 310  : 	return static_cast<float>(nEarningRate) * 0.1f * 0.1f;

  00045	db 44 24 04	 fild	 DWORD PTR _nEarningRate$[esp-4]
  00049	d8 0d 00 00 00
	00		 fmul	 DWORD PTR __real@3c23d70b

; 311  : }

  0004f	c2 08 00	 ret	 8
$L208390:

; 298  : 		else
; 299  : 			nEarningRate = m_nAdmissionSecretRoomRate;

  00052	8b 41 1c	 mov	 eax, DWORD PTR [ecx+28]
  00055	89 44 24 04	 mov	 DWORD PTR _nEarningRate$[esp-4], eax

; 307  : 		break;
; 308  : 	}
; 309  : 
; 310  : 	return static_cast<float>(nEarningRate) * 0.1f * 0.1f;

  00059	db 44 24 04	 fild	 DWORD PTR _nEarningRate$[esp-4]
  0005d	d8 0d 00 00 00
	00		 fmul	 DWORD PTR __real@3c23d70b

; 311  : }

  00063	c2 08 00	 ret	 8
?GetEarningRate@CTax@@QAEMEE@Z ENDP			; CTax::GetEarningRate
_TEXT	ENDS
PUBLIC	?LoadTaxInfo@CTax@@QAEXK@Z			; CTax::LoadTaxInfo
EXTRN	?PostRequest@CDbController@@QAEHHPAEHK@Z:NEAR	; CDbController::PostRequest
; Function compile flags: /Ogty
;	COMDAT ?LoadTaxInfo@CTax@@QAEXK@Z
_TEXT	SEGMENT
_dpId$ = 8						; size = 4
?LoadTaxInfo@CTax@@QAEXK@Z PROC NEAR			; CTax::LoadTaxInfo, COMDAT
; _this$ = ecx

; 315  : 	m_taxDBController.PostRequest( QUERY_TAX_LOAD, 0, 0, dpId );

  00000	8b 44 24 04	 mov	 eax, DWORD PTR _dpId$[esp-4]
  00004	50		 push	 eax
  00005	6a 00		 push	 0
  00007	6a 00		 push	 0
  00009	6a 00		 push	 0
  0000b	83 c1 30	 add	 ecx, 48			; 00000030H
  0000e	e8 00 00 00 00	 call	 ?PostRequest@CDbController@@QAEHHPAEHK@Z ; CDbController::PostRequest

; 316  : }

  00013	c2 04 00	 ret	 4
?LoadTaxInfo@CTax@@QAEXK@Z ENDP				; CTax::LoadTaxInfo
_TEXT	ENDS
PUBLIC	??0CTaxDBController@@QAE@XZ			; CTaxDBController::CTaxDBController
PUBLIC	?Handler@CTaxDBController@@UAEXPAUtagDB_OVERLAPPED_PLUS@@K@Z ; CTaxDBController::Handler
PUBLIC	?OnTimer@CTaxDBController@@UAEXXZ		; CTaxDBController::OnTimer
PUBLIC	??_7CTaxDBController@@6B@			; CTaxDBController::`vftable'
PUBLIC	??_GCTaxDBController@@UAEPAXI@Z			; CTaxDBController::`scalar deleting destructor'
EXTRN	??_ECTaxDBController@@UAEPAXI@Z:NEAR		; CTaxDBController::`vector deleting destructor'
EXTRN	??0CDbController@@QAE@XZ:NEAR			; CDbController::CDbController
;	COMDAT ??_7CTaxDBController@@6B@
CONST	SEGMENT
??_7CTaxDBController@@6B@ DD FLAT:??_ECTaxDBController@@UAEPAXI@Z ; CTaxDBController::`vftable'
	DD	FLAT:?Handler@CTaxDBController@@UAEXPAUtagDB_OVERLAPPED_PLUS@@K@Z
	DD	FLAT:?OnTimer@CTaxDBController@@UAEXXZ
; Function compile flags: /Ogty
CONST	ENDS
;	COMDAT ??0CTaxDBController@@QAE@XZ
_TEXT	SEGMENT
??0CTaxDBController@@QAE@XZ PROC NEAR			; CTaxDBController::CTaxDBController, COMDAT
; _this$ = ecx

; 550  : {

  00000	56		 push	 esi
  00001	8b f1		 mov	 esi, ecx
  00003	e8 00 00 00 00	 call	 ??0CDbController@@QAE@XZ ; CDbController::CDbController
  00008	33 c0		 xor	 eax, eax
  0000a	89 46 14	 mov	 DWORD PTR [esi+20], eax
  0000d	89 46 18	 mov	 DWORD PTR [esi+24], eax
  00010	c7 06 00 00 00
	00		 mov	 DWORD PTR [esi], OFFSET FLAT:??_7CTaxDBController@@6B@

; 551  : }

  00016	8b c6		 mov	 eax, esi
  00018	5e		 pop	 esi
  00019	c3		 ret	 0
??0CTaxDBController@@QAE@XZ ENDP			; CTaxDBController::CTaxDBController
_TEXT	ENDS
PUBLIC	??1CTaxDBController@@UAE@XZ			; CTaxDBController::~CTaxDBController
EXTRN	??1CDbController@@UAE@XZ:NEAR			; CDbController::~CDbController
; Function compile flags: /Ogty
;	COMDAT ??1CTaxDBController@@UAE@XZ
_TEXT	SEGMENT
??1CTaxDBController@@UAE@XZ PROC NEAR			; CTaxDBController::~CTaxDBController, COMDAT
; _this$ = ecx

; 554  : {

  00000	c7 01 00 00 00
	00		 mov	 DWORD PTR [ecx], OFFSET FLAT:??_7CTaxDBController@@6B@

; 555  : }

  00006	e9 00 00 00 00	 jmp	 ??1CDbController@@UAE@XZ ; CDbController::~CDbController
??1CTaxDBController@@UAE@XZ ENDP			; CTaxDBController::~CTaxDBController
_TEXT	ENDS
PUBLIC	??0CTimeSpan@ATL@@QAE@JHHH@Z			; ATL::CTimeSpan::CTimeSpan
EXTRN	__allmul:NEAR
; Function compile flags: /Ogty
; File c:\program files\microsoft visual studio .net 2003\vc7\atlmfc\include\atltime.inl
;	COMDAT ??0CTimeSpan@ATL@@QAE@JHHH@Z
_TEXT	SEGMENT
_lDays$ = 8						; size = 4
_nHours$ = 12						; size = 4
_nMins$ = 16						; size = 4
_nSecs$ = 20						; size = 4
??0CTimeSpan@ATL@@QAE@JHHH@Z PROC NEAR			; ATL::CTimeSpan::CTimeSpan, COMDAT
; _this$ = ecx

; 38   :  	m_timeSpan = nSecs + 60* (nMins + 60* (nHours + __int64(24) * lDays));

  00000	8b 44 24 04	 mov	 eax, DWORD PTR _lDays$[esp-4]
  00004	56		 push	 esi
  00005	57		 push	 edi
  00006	6a 00		 push	 0
  00008	99		 cdq
  00009	6a 18		 push	 24			; 00000018H
  0000b	52		 push	 edx
  0000c	50		 push	 eax
  0000d	8b f1		 mov	 esi, ecx
  0000f	e8 00 00 00 00	 call	 __allmul
  00014	8b c8		 mov	 ecx, eax
  00016	8b 44 24 10	 mov	 eax, DWORD PTR _nHours$[esp+4]
  0001a	8b fa		 mov	 edi, edx
  0001c	99		 cdq
  0001d	6a 00		 push	 0
  0001f	03 c8		 add	 ecx, eax
  00021	6a 3c		 push	 60			; 0000003cH
  00023	13 fa		 adc	 edi, edx
  00025	57		 push	 edi
  00026	51		 push	 ecx
  00027	e8 00 00 00 00	 call	 __allmul
  0002c	8b c8		 mov	 ecx, eax
  0002e	8b 44 24 14	 mov	 eax, DWORD PTR _nMins$[esp+4]
  00032	8b fa		 mov	 edi, edx
  00034	99		 cdq
  00035	6a 00		 push	 0
  00037	03 c8		 add	 ecx, eax
  00039	6a 3c		 push	 60			; 0000003cH
  0003b	13 fa		 adc	 edi, edx
  0003d	57		 push	 edi
  0003e	51		 push	 ecx
  0003f	e8 00 00 00 00	 call	 __allmul
  00044	8b c8		 mov	 ecx, eax
  00046	8b 44 24 18	 mov	 eax, DWORD PTR _nSecs$[esp+4]
  0004a	8b fa		 mov	 edi, edx
  0004c	99		 cdq
  0004d	03 c8		 add	 ecx, eax
  0004f	13 fa		 adc	 edi, edx
  00051	89 7e 04	 mov	 DWORD PTR [esi+4], edi
  00054	5f		 pop	 edi
  00055	89 0e		 mov	 DWORD PTR [esi], ecx

; 39   : }

  00057	8b c6		 mov	 eax, esi
  00059	5e		 pop	 esi
  0005a	c2 10 00	 ret	 16			; 00000010H
??0CTimeSpan@ATL@@QAE@JHHH@Z ENDP			; ATL::CTimeSpan::CTimeSpan
_TEXT	ENDS
PUBLIC	?GetTimeSpan@CTimeSpan@ATL@@QBE_JXZ		; ATL::CTimeSpan::GetTimeSpan
; Function compile flags: /Ogty
;	COMDAT ?GetTimeSpan@CTimeSpan@ATL@@QBE_JXZ
_TEXT	SEGMENT
?GetTimeSpan@CTimeSpan@ATL@@QBE_JXZ PROC NEAR		; ATL::CTimeSpan::GetTimeSpan, COMDAT
; _this$ = ecx

; 78   : 	return( m_timeSpan );

  00000	8b 01		 mov	 eax, DWORD PTR [ecx]
  00002	8b 51 04	 mov	 edx, DWORD PTR [ecx+4]

; 79   : }

  00005	c3		 ret	 0
?GetTimeSpan@CTimeSpan@ATL@@QBE_JXZ ENDP		; ATL::CTimeSpan::GetTimeSpan
_TEXT	ENDS
PUBLIC	??0CTime@ATL@@QAE@_J@Z				; ATL::CTime::CTime
; Function compile flags: /Ogty
;	COMDAT ??0CTime@ATL@@QAE@_J@Z
_TEXT	SEGMENT
_time$ = 8						; size = 8
??0CTime@ATL@@QAE@_J@Z PROC NEAR			; ATL::CTime::CTime, COMDAT
; _this$ = ecx

; 167  : {

  00000	8b 54 24 08	 mov	 edx, DWORD PTR _time$[esp]
  00004	8b c1		 mov	 eax, ecx
  00006	8b 4c 24 04	 mov	 ecx, DWORD PTR _time$[esp-4]
  0000a	89 08		 mov	 DWORD PTR [eax], ecx
  0000c	89 50 04	 mov	 DWORD PTR [eax+4], edx

; 168  : }

  0000f	c2 08 00	 ret	 8
??0CTime@ATL@@QAE@_J@Z ENDP				; ATL::CTime::CTime
_TEXT	ENDS
PUBLIC	??GCTime@ATL@@QBE?AV01@VCTimeSpan@1@@Z		; ATL::CTime::operator-
; Function compile flags: /Ogty
;	COMDAT ??GCTime@ATL@@QBE?AV01@VCTimeSpan@1@@Z
_TEXT	SEGMENT
___$ReturnUdt$ = 8					; size = 4
_span$ = 12						; size = 8
??GCTime@ATL@@QBE?AV01@VCTimeSpan@1@@Z PROC NEAR	; ATL::CTime::operator-, COMDAT
; _this$ = ecx

; 281  : 	return( CTime( m_time-span.GetTimeSpan() ) );

  00000	8b 11		 mov	 edx, DWORD PTR [ecx]
  00002	8b 44 24 08	 mov	 eax, DWORD PTR _span$[esp-4]
  00006	8b 49 04	 mov	 ecx, DWORD PTR [ecx+4]
  00009	2b d0		 sub	 edx, eax
  0000b	1b 4c 24 0c	 sbb	 ecx, DWORD PTR _span$[esp]
  0000f	8b 44 24 04	 mov	 eax, DWORD PTR ___$ReturnUdt$[esp-4]
  00013	89 10		 mov	 DWORD PTR [eax], edx
  00015	89 48 04	 mov	 DWORD PTR [eax+4], ecx

; 282  : }

  00018	c2 0c 00	 ret	 12			; 0000000cH
??GCTime@ATL@@QBE?AV01@VCTimeSpan@1@@Z ENDP		; ATL::CTime::operator-
_TEXT	ENDS
PUBLIC	?GetLocalTm@CTime@ATL@@QBEPAUtm@@PAU3@@Z	; ATL::CTime::GetLocalTm
EXTRN	__localtime64:NEAR
; Function compile flags: /Ogty
;	COMDAT ?GetLocalTm@CTime@ATL@@QBEPAUtm@@PAU3@@Z
_TEXT	SEGMENT
_ptm$ = 8						; size = 4
?GetLocalTm@CTime@ATL@@QBEPAUtm@@PAU3@@Z PROC NEAR	; ATL::CTime::GetLocalTm, COMDAT
; _this$ = ecx

; 338  : {

  00000	53		 push	 ebx

; 339  : 	if (ptm != NULL)

  00001	8b 5c 24 08	 mov	 ebx, DWORD PTR _ptm$[esp]

; 340  : 	{
; 341  : 		struct tm* ptmTemp = _localtime64(&m_time);

  00005	51		 push	 ecx
  00006	e8 00 00 00 00	 call	 __localtime64
  0000b	83 c4 04	 add	 esp, 4
  0000e	85 db		 test	 ebx, ebx
  00010	74 19		 je	 SHORT $L42719

; 342  : 		if (ptmTemp == NULL)

  00012	85 c0		 test	 eax, eax
  00014	75 04		 jne	 SHORT $L42718
  00016	5b		 pop	 ebx

; 347  : 	}
; 348  : 	else
; 349  : 		return _localtime64(&m_time);
; 350  : }

  00017	c2 04 00	 ret	 4
$L42718:
  0001a	56		 push	 esi
  0001b	57		 push	 edi

; 343  : 			return NULL;    // indicates the m_time was not initialized!
; 344  : 
; 345  : 		*ptm = *ptmTemp;

  0001c	8b f0		 mov	 esi, eax
  0001e	b9 09 00 00 00	 mov	 ecx, 9
  00023	8b fb		 mov	 edi, ebx
  00025	f3 a5		 rep movsd
  00027	5f		 pop	 edi

; 346  : 		return ptm;

  00028	8b c3		 mov	 eax, ebx
  0002a	5e		 pop	 esi
$L42719:
  0002b	5b		 pop	 ebx

; 347  : 	}
; 348  : 	else
; 349  : 		return _localtime64(&m_time);
; 350  : }

  0002c	c2 04 00	 ret	 4
?GetLocalTm@CTime@ATL@@QBEPAUtm@@PAU3@@Z ENDP		; ATL::CTime::GetLocalTm
_TEXT	ENDS
PUBLIC	?GetYear@CTime@ATL@@QBEHXZ			; ATL::CTime::GetYear
; Function compile flags: /Ogty
;	COMDAT ?GetYear@CTime@ATL@@QBEHXZ
_TEXT	SEGMENT
?GetYear@CTime@ATL@@QBEHXZ PROC NEAR			; ATL::CTime::GetYear, COMDAT
; _this$ = ecx

; 377  : 	struct tm * ptm;
; 378  : 	ptm = GetLocalTm();

  00000	51		 push	 ecx
  00001	e8 00 00 00 00	 call	 __localtime64
  00006	83 c4 04	 add	 esp, 4

; 379  : 	return ptm ? (ptm->tm_year) + 1900 : 0 ; 

  00009	85 c0		 test	 eax, eax
  0000b	74 09		 je	 SHORT $L211096
  0000d	8b 40 14	 mov	 eax, DWORD PTR [eax+20]
  00010	05 6c 07 00 00	 add	 eax, 1900		; 0000076cH

; 380  : }

  00015	c3		 ret	 0
$L211096:

; 379  : 	return ptm ? (ptm->tm_year) + 1900 : 0 ; 

  00016	33 c0		 xor	 eax, eax

; 380  : }

  00018	c3		 ret	 0
?GetYear@CTime@ATL@@QBEHXZ ENDP				; ATL::CTime::GetYear
_TEXT	ENDS
PUBLIC	?GetMonth@CTime@ATL@@QBEHXZ			; ATL::CTime::GetMonth
; Function compile flags: /Ogty
;	COMDAT ?GetMonth@CTime@ATL@@QBEHXZ
_TEXT	SEGMENT
?GetMonth@CTime@ATL@@QBEHXZ PROC NEAR			; ATL::CTime::GetMonth, COMDAT
; _this$ = ecx

; 384  : 	struct tm * ptm;
; 385  : 	ptm = GetLocalTm();

  00000	51		 push	 ecx
  00001	e8 00 00 00 00	 call	 __localtime64
  00006	83 c4 04	 add	 esp, 4

; 386  : 	return ptm ? ptm->tm_mon + 1 : 0;

  00009	85 c0		 test	 eax, eax
  0000b	74 05		 je	 SHORT $L211108
  0000d	8b 40 10	 mov	 eax, DWORD PTR [eax+16]
  00010	40		 inc	 eax

; 387  : }

  00011	c3		 ret	 0
$L211108:

; 386  : 	return ptm ? ptm->tm_mon + 1 : 0;

  00012	33 c0		 xor	 eax, eax

; 387  : }

  00014	c3		 ret	 0
?GetMonth@CTime@ATL@@QBEHXZ ENDP			; ATL::CTime::GetMonth
_TEXT	ENDS
PUBLIC	?GetDay@CTime@ATL@@QBEHXZ			; ATL::CTime::GetDay
; Function compile flags: /Ogty
;	COMDAT ?GetDay@CTime@ATL@@QBEHXZ
_TEXT	SEGMENT
?GetDay@CTime@ATL@@QBEHXZ PROC NEAR			; ATL::CTime::GetDay, COMDAT
; _this$ = ecx

; 391  : 	struct tm * ptm;
; 392  : 	ptm = GetLocalTm();

  00000	51		 push	 ecx
  00001	e8 00 00 00 00	 call	 __localtime64
  00006	83 c4 04	 add	 esp, 4

; 393  : 	return ptm ? ptm->tm_mday : 0 ; 

  00009	85 c0		 test	 eax, eax
  0000b	74 04		 je	 SHORT $L211120
  0000d	8b 40 0c	 mov	 eax, DWORD PTR [eax+12]

; 394  : }

  00010	c3		 ret	 0
$L211120:

; 393  : 	return ptm ? ptm->tm_mday : 0 ; 

  00011	33 c0		 xor	 eax, eax

; 394  : }

  00013	c3		 ret	 0
?GetDay@CTime@ATL@@QBEHXZ ENDP				; ATL::CTime::GetDay
_TEXT	ENDS
PUBLIC	?size@?$_Tree@V?$_Tmap_traits@EPAU__TAXDETAIL@@U?$less@E@std@@V?$allocator@U?$pair@$$CBEPAU__TAXDETAIL@@@std@@@3@$0A@@std@@@std@@QBEIXZ ; std::_Tree<std::_Tmap_traits<unsigned char,__TAXDETAIL *,std::less<unsigned char>,std::allocator<std::pair<unsigned char const ,__TAXDETAIL *> >,0> >::size
; Function compile flags: /Ogty
; File c:\program files\microsoft visual studio .net 2003\vc7\include\xtree
;	COMDAT ?size@?$_Tree@V?$_Tmap_traits@EPAU__TAXDETAIL@@U?$less@E@std@@V?$allocator@U?$pair@$$CBEPAU__TAXDETAIL@@@std@@@3@$0A@@std@@@std@@QBEIXZ
_TEXT	SEGMENT
?size@?$_Tree@V?$_Tmap_traits@EPAU__TAXDETAIL@@U?$less@E@std@@V?$allocator@U?$pair@$$CBEPAU__TAXDETAIL@@@std@@@3@$0A@@std@@@std@@QBEIXZ PROC NEAR ; std::_Tree<std::_Tmap_traits<unsigned char,__TAXDETAIL *,std::less<unsigned char>,std::allocator<std::pair<unsigned char const ,__TAXDETAIL *> >,0> >::size, COMDAT
; _this$ = ecx

; 448  : 		return (_Mysize);

  00000	8b 41 08	 mov	 eax, DWORD PTR [ecx+8]

; 449  : 		}

  00003	c3		 ret	 0
?size@?$_Tree@V?$_Tmap_traits@EPAU__TAXDETAIL@@U?$less@E@std@@V?$allocator@U?$pair@$$CBEPAU__TAXDETAIL@@@std@@@3@$0A@@std@@@std@@QBEIXZ ENDP ; std::_Tree<std::_Tmap_traits<unsigned char,__TAXDETAIL *,std::less<unsigned char>,std::allocator<std::pair<unsigned char const ,__TAXDETAIL *> >,0> >::size
_TEXT	ENDS
PUBLIC	??8const_iterator@?$_Tree@V?$_Tmap_traits@EPAU__TAXDETAIL@@U?$less@E@std@@V?$allocator@U?$pair@$$CBEPAU__TAXDETAIL@@@std@@@3@$0A@@std@@@std@@QBE_NABV012@@Z ; std::_Tree<std::_Tmap_traits<unsigned char,__TAXDETAIL *,std::less<unsigned char>,std::allocator<std::pair<unsigned char const ,__TAXDETAIL *> >,0> >::const_iterator::operator==
; Function compile flags: /Ogty
;	COMDAT ??8const_iterator@?$_Tree@V?$_Tmap_traits@EPAU__TAXDETAIL@@U?$less@E@std@@V?$allocator@U?$pair@$$CBEPAU__TAXDETAIL@@@std@@@3@$0A@@std@@@std@@QBE_NABV012@@Z
_TEXT	SEGMENT
__Right$ = 8						; size = 4
??8const_iterator@?$_Tree@V?$_Tmap_traits@EPAU__TAXDETAIL@@U?$less@E@std@@V?$allocator@U?$pair@$$CBEPAU__TAXDETAIL@@@std@@@3@$0A@@std@@@std@@QBE_NABV012@@Z PROC NEAR ; std::_Tree<std::_Tmap_traits<unsigned char,__TAXDETAIL *,std::less<unsigned char>,std::allocator<std::pair<unsigned char const ,__TAXDETAIL *> >,0> >::const_iterator::operator==, COMDAT
; _this$ = ecx

; 241  : 			return (_Ptr == _Right._Ptr);

  00000	8b 01		 mov	 eax, DWORD PTR [ecx]
  00002	8b 4c 24 04	 mov	 ecx, DWORD PTR __Right$[esp-4]
  00006	2b 01		 sub	 eax, DWORD PTR [ecx]
  00008	f7 d8		 neg	 eax
  0000a	1b c0		 sbb	 eax, eax
  0000c	40		 inc	 eax

; 242  : 			}

  0000d	c2 04 00	 ret	 4
??8const_iterator@?$_Tree@V?$_Tmap_traits@EPAU__TAXDETAIL@@U?$less@E@std@@V?$allocator@U?$pair@$$CBEPAU__TAXDETAIL@@@std@@@3@$0A@@std@@@std@@QBE_NABV012@@Z ENDP ; std::_Tree<std::_Tmap_traits<unsigned char,__TAXDETAIL *,std::less<unsigned char>,std::allocator<std::pair<unsigned char const ,__TAXDETAIL *> >,0> >::const_iterator::operator==
_TEXT	ENDS
PUBLIC	??9const_iterator@?$_Tree@V?$_Tmap_traits@EPAU__TAXDETAIL@@U?$less@E@std@@V?$allocator@U?$pair@$$CBEPAU__TAXDETAIL@@@std@@@3@$0A@@std@@@std@@QBE_NABV012@@Z ; std::_Tree<std::_Tmap_traits<unsigned char,__TAXDETAIL *,std::less<unsigned char>,std::allocator<std::pair<unsigned char const ,__TAXDETAIL *> >,0> >::const_iterator::operator!=
; Function compile flags: /Ogty
;	COMDAT ??9const_iterator@?$_Tree@V?$_Tmap_traits@EPAU__TAXDETAIL@@U?$less@E@std@@V?$allocator@U?$pair@$$CBEPAU__TAXDETAIL@@@std@@@3@$0A@@std@@@std@@QBE_NABV012@@Z
_TEXT	SEGMENT
__Right$ = 8						; size = 4
??9const_iterator@?$_Tree@V?$_Tmap_traits@EPAU__TAXDETAIL@@U?$less@E@std@@V?$allocator@U?$pair@$$CBEPAU__TAXDETAIL@@@std@@@3@$0A@@std@@@std@@QBE_NABV012@@Z PROC NEAR ; std::_Tree<std::_Tmap_traits<unsigned char,__TAXDETAIL *,std::less<unsigned char>,std::allocator<std::pair<unsigned char const ,__TAXDETAIL *> >,0> >::const_iterator::operator!=, COMDAT
; _this$ = ecx

; 246  : 			return (!(*this == _Right));

  00000	8b 01		 mov	 eax, DWORD PTR [ecx]
  00002	8b 54 24 04	 mov	 edx, DWORD PTR __Right$[esp-4]
  00006	56		 push	 esi
  00007	8b 32		 mov	 esi, DWORD PTR [edx]
  00009	33 c9		 xor	 ecx, ecx
  0000b	3b c6		 cmp	 eax, esi
  0000d	0f 95 c1	 setne	 cl
  00010	8a c1		 mov	 al, cl
  00012	5e		 pop	 esi

; 247  : 			}

  00013	c2 04 00	 ret	 4
??9const_iterator@?$_Tree@V?$_Tmap_traits@EPAU__TAXDETAIL@@U?$less@E@std@@V?$allocator@U?$pair@$$CBEPAU__TAXDETAIL@@@std@@@3@$0A@@std@@@std@@QBE_NABV012@@Z ENDP ; std::_Tree<std::_Tmap_traits<unsigned char,__TAXDETAIL *,std::less<unsigned char>,std::allocator<std::pair<unsigned char const ,__TAXDETAIL *> >,0> >::const_iterator::operator!=
_TEXT	ENDS
PUBLIC	?size@?$_Tree@V?$_Tmap_traits@EPAU__TAXINFO@@U?$less@E@std@@V?$allocator@U?$pair@$$CBEPAU__TAXINFO@@@std@@@3@$0A@@std@@@std@@QBEIXZ ; std::_Tree<std::_Tmap_traits<unsigned char,__TAXINFO *,std::less<unsigned char>,std::allocator<std::pair<unsigned char const ,__TAXINFO *> >,0> >::size
; Function compile flags: /Ogty
;	COMDAT ?size@?$_Tree@V?$_Tmap_traits@EPAU__TAXINFO@@U?$less@E@std@@V?$allocator@U?$pair@$$CBEPAU__TAXINFO@@@std@@@3@$0A@@std@@@std@@QBEIXZ
_TEXT	SEGMENT
?size@?$_Tree@V?$_Tmap_traits@EPAU__TAXINFO@@U?$less@E@std@@V?$allocator@U?$pair@$$CBEPAU__TAXINFO@@@std@@@3@$0A@@std@@@std@@QBEIXZ PROC NEAR ; std::_Tree<std::_Tmap_traits<unsigned char,__TAXINFO *,std::less<unsigned char>,std::allocator<std::pair<unsigned char const ,__TAXINFO *> >,0> >::size, COMDAT
; _this$ = ecx

; 448  : 		return (_Mysize);

  00000	8b 41 08	 mov	 eax, DWORD PTR [ecx+8]

; 449  : 		}

  00003	c3		 ret	 0
?size@?$_Tree@V?$_Tmap_traits@EPAU__TAXINFO@@U?$less@E@std@@V?$allocator@U?$pair@$$CBEPAU__TAXINFO@@@std@@@3@$0A@@std@@@std@@QBEIXZ ENDP ; std::_Tree<std::_Tmap_traits<unsigned char,__TAXINFO *,std::less<unsigned char>,std::allocator<std::pair<unsigned char const ,__TAXINFO *> >,0> >::size
_TEXT	ENDS
PUBLIC	??R?$less@E@std@@QBE_NABE0@Z			; std::less<unsigned char>::operator()
; Function compile flags: /Ogty
; File c:\program files\microsoft visual studio .net 2003\vc7\include\functional
;	COMDAT ??R?$less@E@std@@QBE_NABE0@Z
_TEXT	SEGMENT
__Left$ = 8						; size = 4
__Right$ = 12						; size = 4
??R?$less@E@std@@QBE_NABE0@Z PROC NEAR			; std::less<unsigned char>::operator(), COMDAT
; _this$ = ecx

; 139  : 		return (_Left < _Right);

  00000	8b 44 24 04	 mov	 eax, DWORD PTR __Left$[esp-4]
  00004	8a 08		 mov	 cl, BYTE PTR [eax]
  00006	8b 54 24 08	 mov	 edx, DWORD PTR __Right$[esp-4]
  0000a	33 c0		 xor	 eax, eax
  0000c	3a 0a		 cmp	 cl, BYTE PTR [edx]
  0000e	1b c0		 sbb	 eax, eax
  00010	f7 d8		 neg	 eax

; 140  : 		}

  00012	c2 08 00	 ret	 8
??R?$less@E@std@@QBE_NABE0@Z ENDP			; std::less<unsigned char>::operator()
_TEXT	ENDS
PUBLIC	?capacity@?$vector@KV?$allocator@K@std@@@std@@QBEIXZ ; std::vector<unsigned long,std::allocator<unsigned long> >::capacity
; Function compile flags: /Ogty
; File c:\program files\microsoft visual studio .net 2003\vc7\include\vector
;	COMDAT ?capacity@?$vector@KV?$allocator@K@std@@@std@@QBEIXZ
_TEXT	SEGMENT
?capacity@?$vector@KV?$allocator@K@std@@@std@@QBEIXZ PROC NEAR ; std::vector<unsigned long,std::allocator<unsigned long> >::capacity, COMDAT
; _this$ = ecx

; 458  : 		return (_Myfirst == 0 ? 0 : _Myend - _Myfirst);

  00000	8b 51 04	 mov	 edx, DWORD PTR [ecx+4]
  00003	85 d2		 test	 edx, edx
  00005	75 03		 jne	 SHORT $L211145
  00007	33 c0		 xor	 eax, eax

; 459  : 		}

  00009	c3		 ret	 0
$L211145:

; 458  : 		return (_Myfirst == 0 ? 0 : _Myend - _Myfirst);

  0000a	8b 41 0c	 mov	 eax, DWORD PTR [ecx+12]
  0000d	2b c2		 sub	 eax, edx
  0000f	c1 f8 02	 sar	 eax, 2

; 459  : 		}

  00012	c3		 ret	 0
?capacity@?$vector@KV?$allocator@K@std@@@std@@QBEIXZ ENDP ; std::vector<unsigned long,std::allocator<unsigned long> >::capacity
_TEXT	ENDS
PUBLIC	?size@?$vector@KV?$allocator@K@std@@@std@@QBEIXZ ; std::vector<unsigned long,std::allocator<unsigned long> >::size
; Function compile flags: /Ogty
;	COMDAT ?size@?$vector@KV?$allocator@K@std@@@std@@QBEIXZ
_TEXT	SEGMENT
?size@?$vector@KV?$allocator@K@std@@@std@@QBEIXZ PROC NEAR ; std::vector<unsigned long,std::allocator<unsigned long> >::size, COMDAT
; _this$ = ecx

; 516  : 		return (_Myfirst == 0 ? 0 : _Mylast - _Myfirst);

  00000	8b 51 04	 mov	 edx, DWORD PTR [ecx+4]
  00003	85 d2		 test	 edx, edx
  00005	75 03		 jne	 SHORT $L211149
  00007	33 c0		 xor	 eax, eax

; 517  : 		}

  00009	c3		 ret	 0
$L211149:

; 516  : 		return (_Myfirst == 0 ? 0 : _Mylast - _Myfirst);

  0000a	8b 41 08	 mov	 eax, DWORD PTR [ecx+8]
  0000d	2b c2		 sub	 eax, edx
  0000f	c1 f8 02	 sar	 eax, 2

; 517  : 		}

  00012	c3		 ret	 0
?size@?$vector@KV?$allocator@K@std@@@std@@QBEIXZ ENDP	; std::vector<unsigned long,std::allocator<unsigned long> >::size
_TEXT	ENDS
PUBLIC	?_Isnil@?$_Tree@V?$_Tmap_traits@EPAU__TAXDETAIL@@U?$less@E@std@@V?$allocator@U?$pair@$$CBEPAU__TAXDETAIL@@@std@@@3@$0A@@std@@@std@@KAAADPAU_Node@?$_Tree_nod@V?$_Tmap_traits@EPAU__TAXDETAIL@@U?$less@E@std@@V?$allocator@U?$pair@$$CBEPAU__TAXDETAIL@@@std@@@3@$0A@@std@@@2@@Z ; std::_Tree<std::_Tmap_traits<unsigned char,__TAXDETAIL *,std::less<unsigned char>,std::allocator<std::pair<unsigned char const ,__TAXDETAIL *> >,0> >::_Isnil
; Function compile flags: /Ogty
; File c:\program files\microsoft visual studio .net 2003\vc7\include\xtree
;	COMDAT ?_Isnil@?$_Tree@V?$_Tmap_traits@EPAU__TAXDETAIL@@U?$less@E@std@@V?$allocator@U?$pair@$$CBEPAU__TAXDETAIL@@@std@@@3@$0A@@std@@@std@@KAAADPAU_Node@?$_Tree_nod@V?$_Tmap_traits@EPAU__TAXDETAIL@@U?$less@E@std@@V?$allocator@U?$pair@$$CBEPAU__TAXDETAIL@@@std@@@3@$0A@@std@@@2@@Z
_TEXT	SEGMENT
__Pnode$ = 8						; size = 4
?_Isnil@?$_Tree@V?$_Tmap_traits@EPAU__TAXDETAIL@@U?$less@E@std@@V?$allocator@U?$pair@$$CBEPAU__TAXDETAIL@@@std@@@3@$0A@@std@@@std@@KAAADPAU_Node@?$_Tree_nod@V?$_Tmap_traits@EPAU__TAXDETAIL@@U?$less@E@std@@V?$allocator@U?$pair@$$CBEPAU__TAXDETAIL@@@std@@@3@$0A@@std@@@2@@Z PROC NEAR ; std::_Tree<std::_Tmap_traits<unsigned char,__TAXDETAIL *,std::less<unsigned char>,std::allocator<std::pair<unsigned char const ,__TAXDETAIL *> >,0> >::_Isnil, COMDAT

; 137  : 		return ((_Charref)(*_Pnode)._Isnil);

  00000	8b 44 24 04	 mov	 eax, DWORD PTR __Pnode$[esp-4]
  00004	83 c0 15	 add	 eax, 21			; 00000015H

; 138  : 		}

  00007	c3		 ret	 0
?_Isnil@?$_Tree@V?$_Tmap_traits@EPAU__TAXDETAIL@@U?$less@E@std@@V?$allocator@U?$pair@$$CBEPAU__TAXDETAIL@@@std@@@3@$0A@@std@@@std@@KAAADPAU_Node@?$_Tree_nod@V?$_Tmap_traits@EPAU__TAXDETAIL@@U?$less@E@std@@V?$allocator@U?$pair@$$CBEPAU__TAXDETAIL@@@std@@@3@$0A@@std@@@2@@Z ENDP ; std::_Tree<std::_Tmap_traits<unsigned char,__TAXDETAIL *,std::less<unsigned char>,std::allocator<std::pair<unsigned char const ,__TAXDETAIL *> >,0> >::_Isnil
_TEXT	ENDS
PUBLIC	?_Left@?$_Tree@V?$_Tmap_traits@EPAU__TAXDETAIL@@U?$less@E@std@@V?$allocator@U?$pair@$$CBEPAU__TAXDETAIL@@@std@@@3@$0A@@std@@@std@@KAAAPAU_Node@?$_Tree_nod@V?$_Tmap_traits@EPAU__TAXDETAIL@@U?$less@E@std@@V?$allocator@U?$pair@$$CBEPAU__TAXDETAIL@@@std@@@3@$0A@@std@@@2@PAU342@@Z ; std::_Tree<std::_Tmap_traits<unsigned char,__TAXDETAIL *,std::less<unsigned char>,std::allocator<std::pair<unsigned char const ,__TAXDETAIL *> >,0> >::_Left
; Function compile flags: /Ogty
;	COMDAT ?_Left@?$_Tree@V?$_Tmap_traits@EPAU__TAXDETAIL@@U?$less@E@std@@V?$allocator@U?$pair@$$CBEPAU__TAXDETAIL@@@std@@@3@$0A@@std@@@std@@KAAAPAU_Node@?$_Tree_nod@V?$_Tmap_traits@EPAU__TAXDETAIL@@U?$less@E@std@@V?$allocator@U?$pair@$$CBEPAU__TAXDETAIL@@@std@@@3@$0A@@std@@@2@PAU342@@Z
_TEXT	SEGMENT
__Pnode$ = 8						; size = 4
?_Left@?$_Tree@V?$_Tmap_traits@EPAU__TAXDETAIL@@U?$less@E@std@@V?$allocator@U?$pair@$$CBEPAU__TAXDETAIL@@@std@@@3@$0A@@std@@@std@@KAAAPAU_Node@?$_Tree_nod@V?$_Tmap_traits@EPAU__TAXDETAIL@@U?$less@E@std@@V?$allocator@U?$pair@$$CBEPAU__TAXDETAIL@@@std@@@3@$0A@@std@@@2@PAU342@@Z PROC NEAR ; std::_Tree<std::_Tmap_traits<unsigned char,__TAXDETAIL *,std::less<unsigned char>,std::allocator<std::pair<unsigned char const ,__TAXDETAIL *> >,0> >::_Left, COMDAT

; 147  : 		return ((_Nodepref)(*_Pnode)._Left);

  00000	8b 44 24 04	 mov	 eax, DWORD PTR __Pnode$[esp-4]

; 148  : 		}

  00004	c3		 ret	 0
?_Left@?$_Tree@V?$_Tmap_traits@EPAU__TAXDETAIL@@U?$less@E@std@@V?$allocator@U?$pair@$$CBEPAU__TAXDETAIL@@@std@@@3@$0A@@std@@@std@@KAAAPAU_Node@?$_Tree_nod@V?$_Tmap_traits@EPAU__TAXDETAIL@@U?$less@E@std@@V?$allocator@U?$pair@$$CBEPAU__TAXDETAIL@@@std@@@3@$0A@@std@@@2@PAU342@@Z ENDP ; std::_Tree<std::_Tmap_traits<unsigned char,__TAXDETAIL *,std::less<unsigned char>,std::allocator<std::pair<unsigned char const ,__TAXDETAIL *> >,0> >::_Left
_TEXT	ENDS
PUBLIC	?_Right@?$_Tree@V?$_Tmap_traits@EPAU__TAXDETAIL@@U?$less@E@std@@V?$allocator@U?$pair@$$CBEPAU__TAXDETAIL@@@std@@@3@$0A@@std@@@std@@KAAAPAU_Node@?$_Tree_nod@V?$_Tmap_traits@EPAU__TAXDETAIL@@U?$less@E@std@@V?$allocator@U?$pair@$$CBEPAU__TAXDETAIL@@@std@@@3@$0A@@std@@@2@PAU342@@Z ; std::_Tree<std::_Tmap_traits<unsigned char,__TAXDETAIL *,std::less<unsigned char>,std::allocator<std::pair<unsigned char const ,__TAXDETAIL *> >,0> >::_Right
; Function compile flags: /Ogty
;	COMDAT ?_Right@?$_Tree@V?$_Tmap_traits@EPAU__TAXDETAIL@@U?$less@E@std@@V?$allocator@U?$pair@$$CBEPAU__TAXDETAIL@@@std@@@3@$0A@@std@@@std@@KAAAPAU_Node@?$_Tree_nod@V?$_Tmap_traits@EPAU__TAXDETAIL@@U?$less@E@std@@V?$allocator@U?$pair@$$CBEPAU__TAXDETAIL@@@std@@@3@$0A@@std@@@2@PAU342@@Z
_TEXT	SEGMENT
__Pnode$ = 8						; size = 4
?_Right@?$_Tree@V?$_Tmap_traits@EPAU__TAXDETAIL@@U?$less@E@std@@V?$allocator@U?$pair@$$CBEPAU__TAXDETAIL@@@std@@@3@$0A@@std@@@std@@KAAAPAU_Node@?$_Tree_nod@V?$_Tmap_traits@EPAU__TAXDETAIL@@U?$less@E@std@@V?$allocator@U?$pair@$$CBEPAU__TAXDETAIL@@@std@@@3@$0A@@std@@@2@PAU342@@Z PROC NEAR ; std::_Tree<std::_Tmap_traits<unsigned char,__TAXDETAIL *,std::less<unsigned char>,std::allocator<std::pair<unsigned char const ,__TAXDETAIL *> >,0> >::_Right, COMDAT

; 157  : 		return ((_Nodepref)(*_Pnode)._Right);

  00000	8b 44 24 04	 mov	 eax, DWORD PTR __Pnode$[esp-4]
  00004	83 c0 08	 add	 eax, 8

; 158  : 		}

  00007	c3		 ret	 0
?_Right@?$_Tree@V?$_Tmap_traits@EPAU__TAXDETAIL@@U?$less@E@std@@V?$allocator@U?$pair@$$CBEPAU__TAXDETAIL@@@std@@@3@$0A@@std@@@std@@KAAAPAU_Node@?$_Tree_nod@V?$_Tmap_traits@EPAU__TAXDETAIL@@U?$less@E@std@@V?$allocator@U?$pair@$$CBEPAU__TAXDETAIL@@@std@@@3@$0A@@std@@@2@PAU342@@Z ENDP ; std::_Tree<std::_Tmap_traits<unsigned char,__TAXDETAIL *,std::less<unsigned char>,std::allocator<std::pair<unsigned char const ,__TAXDETAIL *> >,0> >::_Right
_TEXT	ENDS
PUBLIC	?_Lmost@?$_Tree@V?$_Tmap_traits@EPAU__TAXDETAIL@@U?$less@E@std@@V?$allocator@U?$pair@$$CBEPAU__TAXDETAIL@@@std@@@3@$0A@@std@@@std@@IAEAAPAU_Node@?$_Tree_nod@V?$_Tmap_traits@EPAU__TAXDETAIL@@U?$less@E@std@@V?$allocator@U?$pair@$$CBEPAU__TAXDETAIL@@@std@@@3@$0A@@std@@@2@XZ ; std::_Tree<std::_Tmap_traits<unsigned char,__TAXDETAIL *,std::less<unsigned char>,std::allocator<std::pair<unsigned char const ,__TAXDETAIL *> >,0> >::_Lmost
; Function compile flags: /Ogty
;	COMDAT ?_Lmost@?$_Tree@V?$_Tmap_traits@EPAU__TAXDETAIL@@U?$less@E@std@@V?$allocator@U?$pair@$$CBEPAU__TAXDETAIL@@@std@@@3@$0A@@std@@@std@@IAEAAPAU_Node@?$_Tree_nod@V?$_Tmap_traits@EPAU__TAXDETAIL@@U?$less@E@std@@V?$allocator@U?$pair@$$CBEPAU__TAXDETAIL@@@std@@@3@$0A@@std@@@2@XZ
_TEXT	SEGMENT
?_Lmost@?$_Tree@V?$_Tmap_traits@EPAU__TAXDETAIL@@U?$less@E@std@@V?$allocator@U?$pair@$$CBEPAU__TAXDETAIL@@@std@@@3@$0A@@std@@@std@@IAEAAPAU_Node@?$_Tree_nod@V?$_Tmap_traits@EPAU__TAXDETAIL@@U?$less@E@std@@V?$allocator@U?$pair@$$CBEPAU__TAXDETAIL@@@std@@@3@$0A@@std@@@2@XZ PROC NEAR ; std::_Tree<std::_Tmap_traits<unsigned char,__TAXDETAIL *,std::less<unsigned char>,std::allocator<std::pair<unsigned char const ,__TAXDETAIL *> >,0> >::_Lmost, COMDAT
; _this$ = ecx

; 1005 : 		return (_Left(_Myhead));

  00000	8b 41 04	 mov	 eax, DWORD PTR [ecx+4]

; 1006 : 		}

  00003	c3		 ret	 0
?_Lmost@?$_Tree@V?$_Tmap_traits@EPAU__TAXDETAIL@@U?$less@E@std@@V?$allocator@U?$pair@$$CBEPAU__TAXDETAIL@@@std@@@3@$0A@@std@@@std@@IAEAAPAU_Node@?$_Tree_nod@V?$_Tmap_traits@EPAU__TAXDETAIL@@U?$less@E@std@@V?$allocator@U?$pair@$$CBEPAU__TAXDETAIL@@@std@@@3@$0A@@std@@@2@XZ ENDP ; std::_Tree<std::_Tmap_traits<unsigned char,__TAXDETAIL *,std::less<unsigned char>,std::allocator<std::pair<unsigned char const ,__TAXDETAIL *> >,0> >::_Lmost
_TEXT	ENDS
PUBLIC	?_Kfn@?$_Tmap_traits@EPAU__TAXDETAIL@@U?$less@E@std@@V?$allocator@U?$pair@$$CBEPAU__TAXDETAIL@@@std@@@3@$0A@@std@@SAABEABU?$pair@$$CBEPAU__TAXDETAIL@@@2@@Z ; std::_Tmap_traits<unsigned char,__TAXDETAIL *,std::less<unsigned char>,std::allocator<std::pair<unsigned char const ,__TAXDETAIL *> >,0>::_Kfn
; Function compile flags: /Ogty
; File c:\program files\microsoft visual studio .net 2003\vc7\include\map
;	COMDAT ?_Kfn@?$_Tmap_traits@EPAU__TAXDETAIL@@U?$less@E@std@@V?$allocator@U?$pair@$$CBEPAU__TAXDETAIL@@@std@@@3@$0A@@std@@SAABEABU?$pair@$$CBEPAU__TAXDETAIL@@@2@@Z
_TEXT	SEGMENT
__Val$ = 8						; size = 4
?_Kfn@?$_Tmap_traits@EPAU__TAXDETAIL@@U?$less@E@std@@V?$allocator@U?$pair@$$CBEPAU__TAXDETAIL@@@std@@@3@$0A@@std@@SAABEABU?$pair@$$CBEPAU__TAXDETAIL@@@2@@Z PROC NEAR ; std::_Tmap_traits<unsigned char,__TAXDETAIL *,std::less<unsigned char>,std::allocator<std::pair<unsigned char const ,__TAXDETAIL *> >,0>::_Kfn, COMDAT

; 64   : 		return (_Val.first);

  00000	8b 44 24 04	 mov	 eax, DWORD PTR __Val$[esp-4]

; 65   : 		}

  00004	c3		 ret	 0
?_Kfn@?$_Tmap_traits@EPAU__TAXDETAIL@@U?$less@E@std@@V?$allocator@U?$pair@$$CBEPAU__TAXDETAIL@@@std@@@3@$0A@@std@@SAABEABU?$pair@$$CBEPAU__TAXDETAIL@@@2@@Z ENDP ; std::_Tmap_traits<unsigned char,__TAXDETAIL *,std::less<unsigned char>,std::allocator<std::pair<unsigned char const ,__TAXDETAIL *> >,0>::_Kfn
_TEXT	ENDS
PUBLIC	??0?$allocator@U?$pair@$$CBEPAU__TAXDETAIL@@@std@@@std@@QAE@XZ ; std::allocator<std::pair<unsigned char const ,__TAXDETAIL *> >::allocator<std::pair<unsigned char const ,__TAXDETAIL *> >
; Function compile flags: /Ogty
; File c:\program files\microsoft visual studio .net 2003\vc7\include\xmemory
;	COMDAT ??0?$allocator@U?$pair@$$CBEPAU__TAXDETAIL@@@std@@@std@@QAE@XZ
_TEXT	SEGMENT
??0?$allocator@U?$pair@$$CBEPAU__TAXDETAIL@@@std@@@std@@QAE@XZ PROC NEAR ; std::allocator<std::pair<unsigned char const ,__TAXDETAIL *> >::allocator<std::pair<unsigned char const ,__TAXDETAIL *> >, COMDAT
; _this$ = ecx

; 111  : 	allocator()

  00000	8b c1		 mov	 eax, ecx

; 112  : 		{	// construct default allocator (do nothing)
; 113  : 		}

  00002	c3		 ret	 0
??0?$allocator@U?$pair@$$CBEPAU__TAXDETAIL@@@std@@@std@@QAE@XZ ENDP ; std::allocator<std::pair<unsigned char const ,__TAXDETAIL *> >::allocator<std::pair<unsigned char const ,__TAXDETAIL *> >
_TEXT	ENDS
PUBLIC	??0?$pair@Viterator@?$_Tree@V?$_Tmap_traits@EPAU__TAXDETAIL@@U?$less@E@std@@V?$allocator@U?$pair@$$CBEPAU__TAXDETAIL@@@std@@@3@$0A@@std@@@std@@_N@std@@QAE@ABViterator@?$_Tree@V?$_Tmap_traits@EPAU__TAXDETAIL@@U?$less@E@std@@V?$allocator@U?$pair@$$CBEPAU__TAXDETAIL@@@std@@@3@$0A@@std@@@1@AB_N@Z ; std::pair<std::_Tree<std::_Tmap_traits<unsigned char,__TAXDETAIL *,std::less<unsigned char>,std::allocator<std::pair<unsigned char const ,__TAXDETAIL *> >,0> >::iterator,bool>::pair<std::_Tree<std::_Tmap_traits<unsigned char,__TAXDETAIL *,std::less<unsigned char>,std::allocator<std::pair<unsigned char const ,__TAXDETAIL *> >,0> >::iterator,bool>
; Function compile flags: /Ogty
; File c:\program files\microsoft visual studio .net 2003\vc7\include\utility
;	COMDAT ??0?$pair@Viterator@?$_Tree@V?$_Tmap_traits@EPAU__TAXDETAIL@@U?$less@E@std@@V?$allocator@U?$pair@$$CBEPAU__TAXDETAIL@@@std@@@3@$0A@@std@@@std@@_N@std@@QAE@ABViterator@?$_Tree@V?$_Tmap_traits@EPAU__TAXDETAIL@@U?$less@E@std@@V?$allocator@U?$pair@$$CBEPAU__TAXDETAIL@@@std@@@3@$0A@@std@@@1@AB_N@Z
_TEXT	SEGMENT
__Val1$ = 8						; size = 4
__Val2$ = 12						; size = 4
??0?$pair@Viterator@?$_Tree@V?$_Tmap_traits@EPAU__TAXDETAIL@@U?$less@E@std@@V?$allocator@U?$pair@$$CBEPAU__TAXDETAIL@@@std@@@3@$0A@@std@@@std@@_N@std@@QAE@ABViterator@?$_Tree@V?$_Tmap_traits@EPAU__TAXDETAIL@@U?$less@E@std@@V?$allocator@U?$pair@$$CBEPAU__TAXDETAIL@@@std@@@3@$0A@@std@@@1@AB_N@Z PROC NEAR ; std::pair<std::_Tree<std::_Tmap_traits<unsigned char,__TAXDETAIL *,std::less<unsigned char>,std::allocator<std::pair<unsigned char const ,__TAXDETAIL *> >,0> >::iterator,bool>::pair<std::_Tree<std::_Tmap_traits<unsigned char,__TAXDETAIL *,std::less<unsigned char>,std::allocator<std::pair<unsigned char const ,__TAXDETAIL *> >,0> >::iterator,bool>, COMDAT
; _this$ = ecx

; 34   : 		{	// construct from specified values

  00000	8b c1		 mov	 eax, ecx
  00002	8b 4c 24 04	 mov	 ecx, DWORD PTR __Val1$[esp-4]
  00006	8b 11		 mov	 edx, DWORD PTR [ecx]
  00008	8b 4c 24 08	 mov	 ecx, DWORD PTR __Val2$[esp-4]
  0000c	89 10		 mov	 DWORD PTR [eax], edx
  0000e	8a 11		 mov	 dl, BYTE PTR [ecx]
  00010	88 50 04	 mov	 BYTE PTR [eax+4], dl

; 35   : 		}

  00013	c2 08 00	 ret	 8
??0?$pair@Viterator@?$_Tree@V?$_Tmap_traits@EPAU__TAXDETAIL@@U?$less@E@std@@V?$allocator@U?$pair@$$CBEPAU__TAXDETAIL@@@std@@@3@$0A@@std@@@std@@_N@std@@QAE@ABViterator@?$_Tree@V?$_Tmap_traits@EPAU__TAXDETAIL@@U?$less@E@std@@V?$allocator@U?$pair@$$CBEPAU__TAXDETAIL@@@std@@@3@$0A@@std@@@1@AB_N@Z ENDP ; std::pair<std::_Tree<std::_Tmap_traits<unsigned char,__TAXDETAIL *,std::less<unsigned char>,std::allocator<std::pair<unsigned char const ,__TAXDETAIL *> >,0> >::iterator,bool>::pair<std::_Tree<std::_Tmap_traits<unsigned char,__TAXDETAIL *,std::less<unsigned char>,std::allocator<std::pair<unsigned char const ,__TAXDETAIL *> >,0> >::iterator,bool>
_TEXT	ENDS
PUBLIC	?_Mynode@const_iterator@?$_Tree@V?$_Tmap_traits@EPAU__TAXDETAIL@@U?$less@E@std@@V?$allocator@U?$pair@$$CBEPAU__TAXDETAIL@@@std@@@3@$0A@@std@@@std@@QBEPAU_Node@?$_Tree_nod@V?$_Tmap_traits@EPAU__TAXDETAIL@@U?$less@E@std@@V?$allocator@U?$pair@$$CBEPAU__TAXDETAIL@@@std@@@3@$0A@@std@@@3@XZ ; std::_Tree<std::_Tmap_traits<unsigned char,__TAXDETAIL *,std::less<unsigned char>,std::allocator<std::pair<unsigned char const ,__TAXDETAIL *> >,0> >::const_iterator::_Mynode
; Function compile flags: /Ogty
; File c:\program files\microsoft visual studio .net 2003\vc7\include\xtree
;	COMDAT ?_Mynode@const_iterator@?$_Tree@V?$_Tmap_traits@EPAU__TAXDETAIL@@U?$less@E@std@@V?$allocator@U?$pair@$$CBEPAU__TAXDETAIL@@@std@@@3@$0A@@std@@@std@@QBEPAU_Node@?$_Tree_nod@V?$_Tmap_traits@EPAU__TAXDETAIL@@U?$less@E@std@@V?$allocator@U?$pair@$$CBEPAU__TAXDETAIL@@@std@@@3@$0A@@std@@@3@XZ
_TEXT	SEGMENT
?_Mynode@const_iterator@?$_Tree@V?$_Tmap_traits@EPAU__TAXDETAIL@@U?$less@E@std@@V?$allocator@U?$pair@$$CBEPAU__TAXDETAIL@@@std@@@3@$0A@@std@@@std@@QBEPAU_Node@?$_Tree_nod@V?$_Tmap_traits@EPAU__TAXDETAIL@@U?$less@E@std@@V?$allocator@U?$pair@$$CBEPAU__TAXDETAIL@@@std@@@3@$0A@@std@@@3@XZ PROC NEAR ; std::_Tree<std::_Tmap_traits<unsigned char,__TAXDETAIL *,std::less<unsigned char>,std::allocator<std::pair<unsigned char const ,__TAXDETAIL *> >,0> >::const_iterator::_Mynode, COMDAT
; _this$ = ecx

; 284  : 			return (_Ptr);

  00000	8b 01		 mov	 eax, DWORD PTR [ecx]

; 285  : 			}

  00002	c3		 ret	 0
?_Mynode@const_iterator@?$_Tree@V?$_Tmap_traits@EPAU__TAXDETAIL@@U?$less@E@std@@V?$allocator@U?$pair@$$CBEPAU__TAXDETAIL@@@std@@@3@$0A@@std@@@std@@QBEPAU_Node@?$_Tree_nod@V?$_Tmap_traits@EPAU__TAXDETAIL@@U?$less@E@std@@V?$allocator@U?$pair@$$CBEPAU__TAXDETAIL@@@std@@@3@$0A@@std@@@3@XZ ENDP ; std::_Tree<std::_Tmap_traits<unsigned char,__TAXDETAIL *,std::less<unsigned char>,std::allocator<std::pair<unsigned char const ,__TAXDETAIL *> >,0> >::const_iterator::_Mynode
_TEXT	ENDS
PUBLIC	?_Isnil@?$_Tree@V?$_Tmap_traits@EPAU__TAXINFO@@U?$less@E@std@@V?$allocator@U?$pair@$$CBEPAU__TAXINFO@@@std@@@3@$0A@@std@@@std@@KAAADPAU_Node@?$_Tree_nod@V?$_Tmap_traits@EPAU__TAXINFO@@U?$less@E@std@@V?$allocator@U?$pair@$$CBEPAU__TAXINFO@@@std@@@3@$0A@@std@@@2@@Z ; std::_Tree<std::_Tmap_traits<unsigned char,__TAXINFO *,std::less<unsigned char>,std::allocator<std::pair<unsigned char const ,__TAXINFO *> >,0> >::_Isnil
; Function compile flags: /Ogty
;	COMDAT ?_Isnil@?$_Tree@V?$_Tmap_traits@EPAU__TAXINFO@@U?$less@E@std@@V?$allocator@U?$pair@$$CBEPAU__TAXINFO@@@std@@@3@$0A@@std@@@std@@KAAADPAU_Node@?$_Tree_nod@V?$_Tmap_traits@EPAU__TAXINFO@@U?$less@E@std@@V?$allocator@U?$pair@$$CBEPAU__TAXINFO@@@std@@@3@$0A@@std@@@2@@Z
_TEXT	SEGMENT
__Pnode$ = 8						; size = 4
?_Isnil@?$_Tree@V?$_Tmap_traits@EPAU__TAXINFO@@U?$less@E@std@@V?$allocator@U?$pair@$$CBEPAU__TAXINFO@@@std@@@3@$0A@@std@@@std@@KAAADPAU_Node@?$_Tree_nod@V?$_Tmap_traits@EPAU__TAXINFO@@U?$less@E@std@@V?$allocator@U?$pair@$$CBEPAU__TAXINFO@@@std@@@3@$0A@@std@@@2@@Z PROC NEAR ; std::_Tree<std::_Tmap_traits<unsigned char,__TAXINFO *,std::less<unsigned char>,std::allocator<std::pair<unsigned char const ,__TAXINFO *> >,0> >::_Isnil, COMDAT

; 137  : 		return ((_Charref)(*_Pnode)._Isnil);

  00000	8b 44 24 04	 mov	 eax, DWORD PTR __Pnode$[esp-4]
  00004	83 c0 15	 add	 eax, 21			; 00000015H

; 138  : 		}

  00007	c3		 ret	 0
?_Isnil@?$_Tree@V?$_Tmap_traits@EPAU__TAXINFO@@U?$less@E@std@@V?$allocator@U?$pair@$$CBEPAU__TAXINFO@@@std@@@3@$0A@@std@@@std@@KAAADPAU_Node@?$_Tree_nod@V?$_Tmap_traits@EPAU__TAXINFO@@U?$less@E@std@@V?$allocator@U?$pair@$$CBEPAU__TAXINFO@@@std@@@3@$0A@@std@@@2@@Z ENDP ; std::_Tree<std::_Tmap_traits<unsigned char,__TAXINFO *,std::less<unsigned char>,std::allocator<std::pair<unsigned char const ,__TAXINFO *> >,0> >::_Isnil
_TEXT	ENDS
PUBLIC	?_Left@?$_Tree@V?$_Tmap_traits@EPAU__TAXINFO@@U?$less@E@std@@V?$allocator@U?$pair@$$CBEPAU__TAXINFO@@@std@@@3@$0A@@std@@@std@@KAAAPAU_Node@?$_Tree_nod@V?$_Tmap_traits@EPAU__TAXINFO@@U?$less@E@std@@V?$allocator@U?$pair@$$CBEPAU__TAXINFO@@@std@@@3@$0A@@std@@@2@PAU342@@Z ; std::_Tree<std::_Tmap_traits<unsigned char,__TAXINFO *,std::less<unsigned char>,std::allocator<std::pair<unsigned char const ,__TAXINFO *> >,0> >::_Left
; Function compile flags: /Ogty
;	COMDAT ?_Left@?$_Tree@V?$_Tmap_traits@EPAU__TAXINFO@@U?$less@E@std@@V?$allocator@U?$pair@$$CBEPAU__TAXINFO@@@std@@@3@$0A@@std@@@std@@KAAAPAU_Node@?$_Tree_nod@V?$_Tmap_traits@EPAU__TAXINFO@@U?$less@E@std@@V?$allocator@U?$pair@$$CBEPAU__TAXINFO@@@std@@@3@$0A@@std@@@2@PAU342@@Z
_TEXT	SEGMENT
__Pnode$ = 8						; size = 4
?_Left@?$_Tree@V?$_Tmap_traits@EPAU__TAXINFO@@U?$less@E@std@@V?$allocator@U?$pair@$$CBEPAU__TAXINFO@@@std@@@3@$0A@@std@@@std@@KAAAPAU_Node@?$_Tree_nod@V?$_Tmap_traits@EPAU__TAXINFO@@U?$less@E@std@@V?$allocator@U?$pair@$$CBEPAU__TAXINFO@@@std@@@3@$0A@@std@@@2@PAU342@@Z PROC NEAR ; std::_Tree<std::_Tmap_traits<unsigned char,__TAXINFO *,std::less<unsigned char>,std::allocator<std::pair<unsigned char const ,__TAXINFO *> >,0> >::_Left, COMDAT

; 147  : 		return ((_Nodepref)(*_Pnode)._Left);

  00000	8b 44 24 04	 mov	 eax, DWORD PTR __Pnode$[esp-4]

; 148  : 		}

  00004	c3		 ret	 0
?_Left@?$_Tree@V?$_Tmap_traits@EPAU__TAXINFO@@U?$less@E@std@@V?$allocator@U?$pair@$$CBEPAU__TAXINFO@@@std@@@3@$0A@@std@@@std@@KAAAPAU_Node@?$_Tree_nod@V?$_Tmap_traits@EPAU__TAXINFO@@U?$less@E@std@@V?$allocator@U?$pair@$$CBEPAU__TAXINFO@@@std@@@3@$0A@@std@@@2@PAU342@@Z ENDP ; std::_Tree<std::_Tmap_traits<unsigned char,__TAXINFO *,std::less<unsigned char>,std::allocator<std::pair<unsigned char const ,__TAXINFO *> >,0> >::_Left
_TEXT	ENDS
PUBLIC	?_Right@?$_Tree@V?$_Tmap_traits@EPAU__TAXINFO@@U?$less@E@std@@V?$allocator@U?$pair@$$CBEPAU__TAXINFO@@@std@@@3@$0A@@std@@@std@@KAAAPAU_Node@?$_Tree_nod@V?$_Tmap_traits@EPAU__TAXINFO@@U?$less@E@std@@V?$allocator@U?$pair@$$CBEPAU__TAXINFO@@@std@@@3@$0A@@std@@@2@PAU342@@Z ; std::_Tree<std::_Tmap_traits<unsigned char,__TAXINFO *,std::less<unsigned char>,std::allocator<std::pair<unsigned char const ,__TAXINFO *> >,0> >::_Right
; Function compile flags: /Ogty
;	COMDAT ?_Right@?$_Tree@V?$_Tmap_traits@EPAU__TAXINFO@@U?$less@E@std@@V?$allocator@U?$pair@$$CBEPAU__TAXINFO@@@std@@@3@$0A@@std@@@std@@KAAAPAU_Node@?$_Tree_nod@V?$_Tmap_traits@EPAU__TAXINFO@@U?$less@E@std@@V?$allocator@U?$pair@$$CBEPAU__TAXINFO@@@std@@@3@$0A@@std@@@2@PAU342@@Z
_TEXT	SEGMENT
__Pnode$ = 8						; size = 4
?_Right@?$_Tree@V?$_Tmap_traits@EPAU__TAXINFO@@U?$less@E@std@@V?$allocator@U?$pair@$$CBEPAU__TAXINFO@@@std@@@3@$0A@@std@@@std@@KAAAPAU_Node@?$_Tree_nod@V?$_Tmap_traits@EPAU__TAXINFO@@U?$less@E@std@@V?$allocator@U?$pair@$$CBEPAU__TAXINFO@@@std@@@3@$0A@@std@@@2@PAU342@@Z PROC NEAR ; std::_Tree<std::_Tmap_traits<unsigned char,__TAXINFO *,std::less<unsigned char>,std::allocator<std::pair<unsigned char const ,__TAXINFO *> >,0> >::_Right, COMDAT

; 157  : 		return ((_Nodepref)(*_Pnode)._Right);

  00000	8b 44 24 04	 mov	 eax, DWORD PTR __Pnode$[esp-4]
  00004	83 c0 08	 add	 eax, 8

; 158  : 		}

  00007	c3		 ret	 0
?_Right@?$_Tree@V?$_Tmap_traits@EPAU__TAXINFO@@U?$less@E@std@@V?$allocator@U?$pair@$$CBEPAU__TAXINFO@@@std@@@3@$0A@@std@@@std@@KAAAPAU_Node@?$_Tree_nod@V?$_Tmap_traits@EPAU__TAXINFO@@U?$less@E@std@@V?$allocator@U?$pair@$$CBEPAU__TAXINFO@@@std@@@3@$0A@@std@@@2@PAU342@@Z ENDP ; std::_Tree<std::_Tmap_traits<unsigned char,__TAXINFO *,std::less<unsigned char>,std::allocator<std::pair<unsigned char const ,__TAXINFO *> >,0> >::_Right
_TEXT	ENDS
PUBLIC	?_Lmost@?$_Tree@V?$_Tmap_traits@EPAU__TAXINFO@@U?$less@E@std@@V?$allocator@U?$pair@$$CBEPAU__TAXINFO@@@std@@@3@$0A@@std@@@std@@IAEAAPAU_Node@?$_Tree_nod@V?$_Tmap_traits@EPAU__TAXINFO@@U?$less@E@std@@V?$allocator@U?$pair@$$CBEPAU__TAXINFO@@@std@@@3@$0A@@std@@@2@XZ ; std::_Tree<std::_Tmap_traits<unsigned char,__TAXINFO *,std::less<unsigned char>,std::allocator<std::pair<unsigned char const ,__TAXINFO *> >,0> >::_Lmost
; Function compile flags: /Ogty
;	COMDAT ?_Lmost@?$_Tree@V?$_Tmap_traits@EPAU__TAXINFO@@U?$less@E@std@@V?$allocator@U?$pair@$$CBEPAU__TAXINFO@@@std@@@3@$0A@@std@@@std@@IAEAAPAU_Node@?$_Tree_nod@V?$_Tmap_traits@EPAU__TAXINFO@@U?$less@E@std@@V?$allocator@U?$pair@$$CBEPAU__TAXINFO@@@std@@@3@$0A@@std@@@2@XZ
_TEXT	SEGMENT
?_Lmost@?$_Tree@V?$_Tmap_traits@EPAU__TAXINFO@@U?$less@E@std@@V?$allocator@U?$pair@$$CBEPAU__TAXINFO@@@std@@@3@$0A@@std@@@std@@IAEAAPAU_Node@?$_Tree_nod@V?$_Tmap_traits@EPAU__TAXINFO@@U?$less@E@std@@V?$allocator@U?$pair@$$CBEPAU__TAXINFO@@@std@@@3@$0A@@std@@@2@XZ PROC NEAR ; std::_Tree<std::_Tmap_traits<unsigned char,__TAXINFO *,std::less<unsigned char>,std::allocator<std::pair<unsigned char const ,__TAXINFO *> >,0> >::_Lmost, COMDAT
; _this$ = ecx

; 1005 : 		return (_Left(_Myhead));

  00000	8b 41 04	 mov	 eax, DWORD PTR [ecx+4]

; 1006 : 		}

  00003	c3		 ret	 0
?_Lmost@?$_Tree@V?$_Tmap_traits@EPAU__TAXINFO@@U?$less@E@std@@V?$allocator@U?$pair@$$CBEPAU__TAXINFO@@@std@@@3@$0A@@std@@@std@@IAEAAPAU_Node@?$_Tree_nod@V?$_Tmap_traits@EPAU__TAXINFO@@U?$less@E@std@@V?$allocator@U?$pair@$$CBEPAU__TAXINFO@@@std@@@3@$0A@@std@@@2@XZ ENDP ; std::_Tree<std::_Tmap_traits<unsigned char,__TAXINFO *,std::less<unsigned char>,std::allocator<std::pair<unsigned char const ,__TAXINFO *> >,0> >::_Lmost
_TEXT	ENDS
PUBLIC	?_Rmost@?$_Tree@V?$_Tmap_traits@EPAU__TAXINFO@@U?$less@E@std@@V?$allocator@U?$pair@$$CBEPAU__TAXINFO@@@std@@@3@$0A@@std@@@std@@IAEAAPAU_Node@?$_Tree_nod@V?$_Tmap_traits@EPAU__TAXINFO@@U?$less@E@std@@V?$allocator@U?$pair@$$CBEPAU__TAXINFO@@@std@@@3@$0A@@std@@@2@XZ ; std::_Tree<std::_Tmap_traits<unsigned char,__TAXINFO *,std::less<unsigned char>,std::allocator<std::pair<unsigned char const ,__TAXINFO *> >,0> >::_Rmost
; Function compile flags: /Ogty
;	COMDAT ?_Rmost@?$_Tree@V?$_Tmap_traits@EPAU__TAXINFO@@U?$less@E@std@@V?$allocator@U?$pair@$$CBEPAU__TAXINFO@@@std@@@3@$0A@@std@@@std@@IAEAAPAU_Node@?$_Tree_nod@V?$_Tmap_traits@EPAU__TAXINFO@@U?$less@E@std@@V?$allocator@U?$pair@$$CBEPAU__TAXINFO@@@std@@@3@$0A@@std@@@2@XZ
_TEXT	SEGMENT
?_Rmost@?$_Tree@V?$_Tmap_traits@EPAU__TAXINFO@@U?$less@E@std@@V?$allocator@U?$pair@$$CBEPAU__TAXINFO@@@std@@@3@$0A@@std@@@std@@IAEAAPAU_Node@?$_Tree_nod@V?$_Tmap_traits@EPAU__TAXINFO@@U?$less@E@std@@V?$allocator@U?$pair@$$CBEPAU__TAXINFO@@@std@@@3@$0A@@std@@@2@XZ PROC NEAR ; std::_Tree<std::_Tmap_traits<unsigned char,__TAXINFO *,std::less<unsigned char>,std::allocator<std::pair<unsigned char const ,__TAXINFO *> >,0> >::_Rmost, COMDAT
; _this$ = ecx

; 1049 : 		return (_Right(_Myhead));

  00000	8b 41 04	 mov	 eax, DWORD PTR [ecx+4]
  00003	83 c0 08	 add	 eax, 8

; 1050 : 		}

  00006	c3		 ret	 0
?_Rmost@?$_Tree@V?$_Tmap_traits@EPAU__TAXINFO@@U?$less@E@std@@V?$allocator@U?$pair@$$CBEPAU__TAXINFO@@@std@@@3@$0A@@std@@@std@@IAEAAPAU_Node@?$_Tree_nod@V?$_Tmap_traits@EPAU__TAXINFO@@U?$less@E@std@@V?$allocator@U?$pair@$$CBEPAU__TAXINFO@@@std@@@3@$0A@@std@@@2@XZ ENDP ; std::_Tree<std::_Tmap_traits<unsigned char,__TAXINFO *,std::less<unsigned char>,std::allocator<std::pair<unsigned char const ,__TAXINFO *> >,0> >::_Rmost
_TEXT	ENDS
PUBLIC	?_Kfn@?$_Tmap_traits@EPAU__TAXINFO@@U?$less@E@std@@V?$allocator@U?$pair@$$CBEPAU__TAXINFO@@@std@@@3@$0A@@std@@SAABEABU?$pair@$$CBEPAU__TAXINFO@@@2@@Z ; std::_Tmap_traits<unsigned char,__TAXINFO *,std::less<unsigned char>,std::allocator<std::pair<unsigned char const ,__TAXINFO *> >,0>::_Kfn
; Function compile flags: /Ogty
; File c:\program files\microsoft visual studio .net 2003\vc7\include\map
;	COMDAT ?_Kfn@?$_Tmap_traits@EPAU__TAXINFO@@U?$less@E@std@@V?$allocator@U?$pair@$$CBEPAU__TAXINFO@@@std@@@3@$0A@@std@@SAABEABU?$pair@$$CBEPAU__TAXINFO@@@2@@Z
_TEXT	SEGMENT
__Val$ = 8						; size = 4
?_Kfn@?$_Tmap_traits@EPAU__TAXINFO@@U?$less@E@std@@V?$allocator@U?$pair@$$CBEPAU__TAXINFO@@@std@@@3@$0A@@std@@SAABEABU?$pair@$$CBEPAU__TAXINFO@@@2@@Z PROC NEAR ; std::_Tmap_traits<unsigned char,__TAXINFO *,std::less<unsigned char>,std::allocator<std::pair<unsigned char const ,__TAXINFO *> >,0>::_Kfn, COMDAT

; 64   : 		return (_Val.first);

  00000	8b 44 24 04	 mov	 eax, DWORD PTR __Val$[esp-4]

; 65   : 		}

  00004	c3		 ret	 0
?_Kfn@?$_Tmap_traits@EPAU__TAXINFO@@U?$less@E@std@@V?$allocator@U?$pair@$$CBEPAU__TAXINFO@@@std@@@3@$0A@@std@@SAABEABU?$pair@$$CBEPAU__TAXINFO@@@2@@Z ENDP ; std::_Tmap_traits<unsigned char,__TAXINFO *,std::less<unsigned char>,std::allocator<std::pair<unsigned char const ,__TAXINFO *> >,0>::_Kfn
_TEXT	ENDS
PUBLIC	??0?$allocator@U?$pair@$$CBEPAU__TAXINFO@@@std@@@std@@QAE@XZ ; std::allocator<std::pair<unsigned char const ,__TAXINFO *> >::allocator<std::pair<unsigned char const ,__TAXINFO *> >
; Function compile flags: /Ogty
; File c:\program files\microsoft visual studio .net 2003\vc7\include\xmemory
;	COMDAT ??0?$allocator@U?$pair@$$CBEPAU__TAXINFO@@@std@@@std@@QAE@XZ
_TEXT	SEGMENT
??0?$allocator@U?$pair@$$CBEPAU__TAXINFO@@@std@@@std@@QAE@XZ PROC NEAR ; std::allocator<std::pair<unsigned char const ,__TAXINFO *> >::allocator<std::pair<unsigned char const ,__TAXINFO *> >, COMDAT
; _this$ = ecx

; 111  : 	allocator()

  00000	8b c1		 mov	 eax, ecx

; 112  : 		{	// construct default allocator (do nothing)
; 113  : 		}

  00002	c3		 ret	 0
??0?$allocator@U?$pair@$$CBEPAU__TAXINFO@@@std@@@std@@QAE@XZ ENDP ; std::allocator<std::pair<unsigned char const ,__TAXINFO *> >::allocator<std::pair<unsigned char const ,__TAXINFO *> >
_TEXT	ENDS
PUBLIC	??0?$pair@Viterator@?$_Tree@V?$_Tmap_traits@EPAU__TAXINFO@@U?$less@E@std@@V?$allocator@U?$pair@$$CBEPAU__TAXINFO@@@std@@@3@$0A@@std@@@std@@_N@std@@QAE@ABViterator@?$_Tree@V?$_Tmap_traits@EPAU__TAXINFO@@U?$less@E@std@@V?$allocator@U?$pair@$$CBEPAU__TAXINFO@@@std@@@3@$0A@@std@@@1@AB_N@Z ; std::pair<std::_Tree<std::_Tmap_traits<unsigned char,__TAXINFO *,std::less<unsigned char>,std::allocator<std::pair<unsigned char const ,__TAXINFO *> >,0> >::iterator,bool>::pair<std::_Tree<std::_Tmap_traits<unsigned char,__TAXINFO *,std::less<unsigned char>,std::allocator<std::pair<unsigned char const ,__TAXINFO *> >,0> >::iterator,bool>
; Function compile flags: /Ogty
; File c:\program files\microsoft visual studio .net 2003\vc7\include\utility
;	COMDAT ??0?$pair@Viterator@?$_Tree@V?$_Tmap_traits@EPAU__TAXINFO@@U?$less@E@std@@V?$allocator@U?$pair@$$CBEPAU__TAXINFO@@@std@@@3@$0A@@std@@@std@@_N@std@@QAE@ABViterator@?$_Tree@V?$_Tmap_traits@EPAU__TAXINFO@@U?$less@E@std@@V?$allocator@U?$pair@$$CBEPAU__TAXINFO@@@std@@@3@$0A@@std@@@1@AB_N@Z
_TEXT	SEGMENT
__Val1$ = 8						; size = 4
__Val2$ = 12						; size = 4
??0?$pair@Viterator@?$_Tree@V?$_Tmap_traits@EPAU__TAXINFO@@U?$less@E@std@@V?$allocator@U?$pair@$$CBEPAU__TAXINFO@@@std@@@3@$0A@@std@@@std@@_N@std@@QAE@ABViterator@?$_Tree@V?$_Tmap_traits@EPAU__TAXINFO@@U?$less@E@std@@V?$allocator@U?$pair@$$CBEPAU__TAXINFO@@@std@@@3@$0A@@std@@@1@AB_N@Z PROC NEAR ; std::pair<std::_Tree<std::_Tmap_traits<unsigned char,__TAXINFO *,std::less<unsigned char>,std::allocator<std::pair<unsigned char const ,__TAXINFO *> >,0> >::iterator,bool>::pair<std::_Tree<std::_Tmap_traits<unsigned char,__TAXINFO *,std::less<unsigned char>,std::allocator<std::pair<unsigned char const ,__TAXINFO *> >,0> >::iterator,bool>, COMDAT
; _this$ = ecx

; 34   : 		{	// construct from specified values

  00000	8b c1		 mov	 eax, ecx
  00002	8b 4c 24 04	 mov	 ecx, DWORD PTR __Val1$[esp-4]
  00006	8b 11		 mov	 edx, DWORD PTR [ecx]
  00008	8b 4c 24 08	 mov	 ecx, DWORD PTR __Val2$[esp-4]
  0000c	89 10		 mov	 DWORD PTR [eax], edx
  0000e	8a 11		 mov	 dl, BYTE PTR [ecx]
  00010	88 50 04	 mov	 BYTE PTR [eax+4], dl

; 35   : 		}

  00013	c2 08 00	 ret	 8
??0?$pair@Viterator@?$_Tree@V?$_Tmap_traits@EPAU__TAXINFO@@U?$less@E@std@@V?$allocator@U?$pair@$$CBEPAU__TAXINFO@@@std@@@3@$0A@@std@@@std@@_N@std@@QAE@ABViterator@?$_Tree@V?$_Tmap_traits@EPAU__TAXINFO@@U?$less@E@std@@V?$allocator@U?$pair@$$CBEPAU__TAXINFO@@@std@@@3@$0A@@std@@@1@AB_N@Z ENDP ; std::pair<std::_Tree<std::_Tmap_traits<unsigned char,__TAXINFO *,std::less<unsigned char>,std::allocator<std::pair<unsigned char const ,__TAXINFO *> >,0> >::iterator,bool>::pair<std::_Tree<std::_Tmap_traits<unsigned char,__TAXINFO *,std::less<unsigned char>,std::allocator<std::pair<unsigned char const ,__TAXINFO *> >,0> >::iterator,bool>
_TEXT	ENDS
PUBLIC	??8const_iterator@?$_Tree@V?$_Tmap_traits@EPAU__TAXINFO@@U?$less@E@std@@V?$allocator@U?$pair@$$CBEPAU__TAXINFO@@@std@@@3@$0A@@std@@@std@@QBE_NABV012@@Z ; std::_Tree<std::_Tmap_traits<unsigned char,__TAXINFO *,std::less<unsigned char>,std::allocator<std::pair<unsigned char const ,__TAXINFO *> >,0> >::const_iterator::operator==
; Function compile flags: /Ogty
; File c:\program files\microsoft visual studio .net 2003\vc7\include\xtree
;	COMDAT ??8const_iterator@?$_Tree@V?$_Tmap_traits@EPAU__TAXINFO@@U?$less@E@std@@V?$allocator@U?$pair@$$CBEPAU__TAXINFO@@@std@@@3@$0A@@std@@@std@@QBE_NABV012@@Z
_TEXT	SEGMENT
__Right$ = 8						; size = 4
??8const_iterator@?$_Tree@V?$_Tmap_traits@EPAU__TAXINFO@@U?$less@E@std@@V?$allocator@U?$pair@$$CBEPAU__TAXINFO@@@std@@@3@$0A@@std@@@std@@QBE_NABV012@@Z PROC NEAR ; std::_Tree<std::_Tmap_traits<unsigned char,__TAXINFO *,std::less<unsigned char>,std::allocator<std::pair<unsigned char const ,__TAXINFO *> >,0> >::const_iterator::operator==, COMDAT
; _this$ = ecx

; 241  : 			return (_Ptr == _Right._Ptr);

  00000	8b 01		 mov	 eax, DWORD PTR [ecx]
  00002	8b 4c 24 04	 mov	 ecx, DWORD PTR __Right$[esp-4]
  00006	2b 01		 sub	 eax, DWORD PTR [ecx]
  00008	f7 d8		 neg	 eax
  0000a	1b c0		 sbb	 eax, eax
  0000c	40		 inc	 eax

; 242  : 			}

  0000d	c2 04 00	 ret	 4
??8const_iterator@?$_Tree@V?$_Tmap_traits@EPAU__TAXINFO@@U?$less@E@std@@V?$allocator@U?$pair@$$CBEPAU__TAXINFO@@@std@@@3@$0A@@std@@@std@@QBE_NABV012@@Z ENDP ; std::_Tree<std::_Tmap_traits<unsigned char,__TAXINFO *,std::less<unsigned char>,std::allocator<std::pair<unsigned char const ,__TAXINFO *> >,0> >::const_iterator::operator==
_TEXT	ENDS
PUBLIC	?_Mynode@const_iterator@?$_Tree@V?$_Tmap_traits@EPAU__TAXINFO@@U?$less@E@std@@V?$allocator@U?$pair@$$CBEPAU__TAXINFO@@@std@@@3@$0A@@std@@@std@@QBEPAU_Node@?$_Tree_nod@V?$_Tmap_traits@EPAU__TAXINFO@@U?$less@E@std@@V?$allocator@U?$pair@$$CBEPAU__TAXINFO@@@std@@@3@$0A@@std@@@3@XZ ; std::_Tree<std::_Tmap_traits<unsigned char,__TAXINFO *,std::less<unsigned char>,std::allocator<std::pair<unsigned char const ,__TAXINFO *> >,0> >::const_iterator::_Mynode
; Function compile flags: /Ogty
;	COMDAT ?_Mynode@const_iterator@?$_Tree@V?$_Tmap_traits@EPAU__TAXINFO@@U?$less@E@std@@V?$allocator@U?$pair@$$CBEPAU__TAXINFO@@@std@@@3@$0A@@std@@@std@@QBEPAU_Node@?$_Tree_nod@V?$_Tmap_traits@EPAU__TAXINFO@@U?$less@E@std@@V?$allocator@U?$pair@$$CBEPAU__TAXINFO@@@std@@@3@$0A@@std@@@3@XZ
_TEXT	SEGMENT
?_Mynode@const_iterator@?$_Tree@V?$_Tmap_traits@EPAU__TAXINFO@@U?$less@E@std@@V?$allocator@U?$pair@$$CBEPAU__TAXINFO@@@std@@@3@$0A@@std@@@std@@QBEPAU_Node@?$_Tree_nod@V?$_Tmap_traits@EPAU__TAXINFO@@U?$less@E@std@@V?$allocator@U?$pair@$$CBEPAU__TAXINFO@@@std@@@3@$0A@@std@@@3@XZ PROC NEAR ; std::_Tree<std::_Tmap_traits<unsigned char,__TAXINFO *,std::less<unsigned char>,std::allocator<std::pair<unsigned char const ,__TAXINFO *> >,0> >::const_iterator::_Mynode, COMDAT
; _this$ = ecx

; 284  : 			return (_Ptr);

  00000	8b 01		 mov	 eax, DWORD PTR [ecx]

; 285  : 			}

  00002	c3		 ret	 0
?_Mynode@const_iterator@?$_Tree@V?$_Tmap_traits@EPAU__TAXINFO@@U?$less@E@std@@V?$allocator@U?$pair@$$CBEPAU__TAXINFO@@@std@@@3@$0A@@std@@@std@@QBEPAU_Node@?$_Tree_nod@V?$_Tmap_traits@EPAU__TAXINFO@@U?$less@E@std@@V?$allocator@U?$pair@$$CBEPAU__TAXINFO@@@std@@@3@$0A@@std@@@3@XZ ENDP ; std::_Tree<std::_Tmap_traits<unsigned char,__TAXINFO *,std::less<unsigned char>,std::allocator<std::pair<unsigned char const ,__TAXINFO *> >,0> >::const_iterator::_Mynode
_TEXT	ENDS
PUBLIC	?_Color@?$_Tree@V?$_Tmap_traits@EPAU__TAXDETAIL@@U?$less@E@std@@V?$allocator@U?$pair@$$CBEPAU__TAXDETAIL@@@std@@@3@$0A@@std@@@std@@KAAADPAU_Node@?$_Tree_nod@V?$_Tmap_traits@EPAU__TAXDETAIL@@U?$less@E@std@@V?$allocator@U?$pair@$$CBEPAU__TAXDETAIL@@@std@@@3@$0A@@std@@@2@@Z ; std::_Tree<std::_Tmap_traits<unsigned char,__TAXDETAIL *,std::less<unsigned char>,std::allocator<std::pair<unsigned char const ,__TAXDETAIL *> >,0> >::_Color
; Function compile flags: /Ogty
;	COMDAT ?_Color@?$_Tree@V?$_Tmap_traits@EPAU__TAXDETAIL@@U?$less@E@std@@V?$allocator@U?$pair@$$CBEPAU__TAXDETAIL@@@std@@@3@$0A@@std@@@std@@KAAADPAU_Node@?$_Tree_nod@V?$_Tmap_traits@EPAU__TAXDETAIL@@U?$less@E@std@@V?$allocator@U?$pair@$$CBEPAU__TAXDETAIL@@@std@@@3@$0A@@std@@@2@@Z
_TEXT	SEGMENT
__Pnode$ = 8						; size = 4
?_Color@?$_Tree@V?$_Tmap_traits@EPAU__TAXDETAIL@@U?$less@E@std@@V?$allocator@U?$pair@$$CBEPAU__TAXDETAIL@@@std@@@3@$0A@@std@@@std@@KAAADPAU_Node@?$_Tree_nod@V?$_Tmap_traits@EPAU__TAXDETAIL@@U?$less@E@std@@V?$allocator@U?$pair@$$CBEPAU__TAXDETAIL@@@std@@@3@$0A@@std@@@2@@Z PROC NEAR ; std::_Tree<std::_Tmap_traits<unsigned char,__TAXDETAIL *,std::less<unsigned char>,std::allocator<std::pair<unsigned char const ,__TAXDETAIL *> >,0> >::_Color, COMDAT

; 132  : 		return ((_Charref)(*_Pnode)._Color);

  00000	8b 44 24 04	 mov	 eax, DWORD PTR __Pnode$[esp-4]
  00004	83 c0 14	 add	 eax, 20			; 00000014H

; 133  : 		}

  00007	c3		 ret	 0
?_Color@?$_Tree@V?$_Tmap_traits@EPAU__TAXDETAIL@@U?$less@E@std@@V?$allocator@U?$pair@$$CBEPAU__TAXDETAIL@@@std@@@3@$0A@@std@@@std@@KAAADPAU_Node@?$_Tree_nod@V?$_Tmap_traits@EPAU__TAXDETAIL@@U?$less@E@std@@V?$allocator@U?$pair@$$CBEPAU__TAXDETAIL@@@std@@@3@$0A@@std@@@2@@Z ENDP ; std::_Tree<std::_Tmap_traits<unsigned char,__TAXDETAIL *,std::less<unsigned char>,std::allocator<std::pair<unsigned char const ,__TAXDETAIL *> >,0> >::_Color
_TEXT	ENDS
PUBLIC	?_Parent@?$_Tree@V?$_Tmap_traits@EPAU__TAXDETAIL@@U?$less@E@std@@V?$allocator@U?$pair@$$CBEPAU__TAXDETAIL@@@std@@@3@$0A@@std@@@std@@KAAAPAU_Node@?$_Tree_nod@V?$_Tmap_traits@EPAU__TAXDETAIL@@U?$less@E@std@@V?$allocator@U?$pair@$$CBEPAU__TAXDETAIL@@@std@@@3@$0A@@std@@@2@PAU342@@Z ; std::_Tree<std::_Tmap_traits<unsigned char,__TAXDETAIL *,std::less<unsigned char>,std::allocator<std::pair<unsigned char const ,__TAXDETAIL *> >,0> >::_Parent
; Function compile flags: /Ogty
;	COMDAT ?_Parent@?$_Tree@V?$_Tmap_traits@EPAU__TAXDETAIL@@U?$less@E@std@@V?$allocator@U?$pair@$$CBEPAU__TAXDETAIL@@@std@@@3@$0A@@std@@@std@@KAAAPAU_Node@?$_Tree_nod@V?$_Tmap_traits@EPAU__TAXDETAIL@@U?$less@E@std@@V?$allocator@U?$pair@$$CBEPAU__TAXDETAIL@@@std@@@3@$0A@@std@@@2@PAU342@@Z
_TEXT	SEGMENT
__Pnode$ = 8						; size = 4
?_Parent@?$_Tree@V?$_Tmap_traits@EPAU__TAXDETAIL@@U?$less@E@std@@V?$allocator@U?$pair@$$CBEPAU__TAXDETAIL@@@std@@@3@$0A@@std@@@std@@KAAAPAU_Node@?$_Tree_nod@V?$_Tmap_traits@EPAU__TAXDETAIL@@U?$less@E@std@@V?$allocator@U?$pair@$$CBEPAU__TAXDETAIL@@@std@@@3@$0A@@std@@@2@PAU342@@Z PROC NEAR ; std::_Tree<std::_Tmap_traits<unsigned char,__TAXDETAIL *,std::less<unsigned char>,std::allocator<std::pair<unsigned char const ,__TAXDETAIL *> >,0> >::_Parent, COMDAT

; 152  : 		return ((_Nodepref)(*_Pnode)._Parent);

  00000	8b 44 24 04	 mov	 eax, DWORD PTR __Pnode$[esp-4]
  00004	83 c0 04	 add	 eax, 4

; 153  : 		}

  00007	c3		 ret	 0
?_Parent@?$_Tree@V?$_Tmap_traits@EPAU__TAXDETAIL@@U?$less@E@std@@V?$allocator@U?$pair@$$CBEPAU__TAXDETAIL@@@std@@@3@$0A@@std@@@std@@KAAAPAU_Node@?$_Tree_nod@V?$_Tmap_traits@EPAU__TAXDETAIL@@U?$less@E@std@@V?$allocator@U?$pair@$$CBEPAU__TAXDETAIL@@@std@@@3@$0A@@std@@@2@PAU342@@Z ENDP ; std::_Tree<std::_Tmap_traits<unsigned char,__TAXDETAIL *,std::less<unsigned char>,std::allocator<std::pair<unsigned char const ,__TAXDETAIL *> >,0> >::_Parent
_TEXT	ENDS
PUBLIC	?_Myval@?$_Tree@V?$_Tmap_traits@EPAU__TAXDETAIL@@U?$less@E@std@@V?$allocator@U?$pair@$$CBEPAU__TAXDETAIL@@@std@@@3@$0A@@std@@@std@@KAAAU?$pair@$$CBEPAU__TAXDETAIL@@@2@PAU_Node@?$_Tree_nod@V?$_Tmap_traits@EPAU__TAXDETAIL@@U?$less@E@std@@V?$allocator@U?$pair@$$CBEPAU__TAXDETAIL@@@std@@@3@$0A@@std@@@2@@Z ; std::_Tree<std::_Tmap_traits<unsigned char,__TAXDETAIL *,std::less<unsigned char>,std::allocator<std::pair<unsigned char const ,__TAXDETAIL *> >,0> >::_Myval
; Function compile flags: /Ogty
;	COMDAT ?_Myval@?$_Tree@V?$_Tmap_traits@EPAU__TAXDETAIL@@U?$less@E@std@@V?$allocator@U?$pair@$$CBEPAU__TAXDETAIL@@@std@@@3@$0A@@std@@@std@@KAAAU?$pair@$$CBEPAU__TAXDETAIL@@@2@PAU_Node@?$_Tree_nod@V?$_Tmap_traits@EPAU__TAXDETAIL@@U?$less@E@std@@V?$allocator@U?$pair@$$CBEPAU__TAXDETAIL@@@std@@@3@$0A@@std@@@2@@Z
_TEXT	SEGMENT
__Pnode$ = 8						; size = 4
?_Myval@?$_Tree@V?$_Tmap_traits@EPAU__TAXDETAIL@@U?$less@E@std@@V?$allocator@U?$pair@$$CBEPAU__TAXDETAIL@@@std@@@3@$0A@@std@@@std@@KAAAU?$pair@$$CBEPAU__TAXDETAIL@@@2@PAU_Node@?$_Tree_nod@V?$_Tmap_traits@EPAU__TAXDETAIL@@U?$less@E@std@@V?$allocator@U?$pair@$$CBEPAU__TAXDETAIL@@@std@@@3@$0A@@std@@@2@@Z PROC NEAR ; std::_Tree<std::_Tmap_traits<unsigned char,__TAXDETAIL *,std::less<unsigned char>,std::allocator<std::pair<unsigned char const ,__TAXDETAIL *> >,0> >::_Myval, COMDAT

; 162  : 		return ((_Vref)(*_Pnode)._Myval);

  00000	8b 44 24 04	 mov	 eax, DWORD PTR __Pnode$[esp-4]
  00004	83 c0 0c	 add	 eax, 12			; 0000000cH

; 163  : 		}

  00007	c3		 ret	 0
?_Myval@?$_Tree@V?$_Tmap_traits@EPAU__TAXDETAIL@@U?$less@E@std@@V?$allocator@U?$pair@$$CBEPAU__TAXDETAIL@@@std@@@3@$0A@@std@@@std@@KAAAU?$pair@$$CBEPAU__TAXDETAIL@@@2@PAU_Node@?$_Tree_nod@V?$_Tmap_traits@EPAU__TAXDETAIL@@U?$less@E@std@@V?$allocator@U?$pair@$$CBEPAU__TAXDETAIL@@@std@@@3@$0A@@std@@@2@@Z ENDP ; std::_Tree<std::_Tmap_traits<unsigned char,__TAXDETAIL *,std::less<unsigned char>,std::allocator<std::pair<unsigned char const ,__TAXDETAIL *> >,0> >::_Myval
_TEXT	ENDS
PUBLIC	?_Rmost@?$_Tree@V?$_Tmap_traits@EPAU__TAXDETAIL@@U?$less@E@std@@V?$allocator@U?$pair@$$CBEPAU__TAXDETAIL@@@std@@@3@$0A@@std@@@std@@IAEAAPAU_Node@?$_Tree_nod@V?$_Tmap_traits@EPAU__TAXDETAIL@@U?$less@E@std@@V?$allocator@U?$pair@$$CBEPAU__TAXDETAIL@@@std@@@3@$0A@@std@@@2@XZ ; std::_Tree<std::_Tmap_traits<unsigned char,__TAXDETAIL *,std::less<unsigned char>,std::allocator<std::pair<unsigned char const ,__TAXDETAIL *> >,0> >::_Rmost
; Function compile flags: /Ogty
;	COMDAT ?_Rmost@?$_Tree@V?$_Tmap_traits@EPAU__TAXDETAIL@@U?$less@E@std@@V?$allocator@U?$pair@$$CBEPAU__TAXDETAIL@@@std@@@3@$0A@@std@@@std@@IAEAAPAU_Node@?$_Tree_nod@V?$_Tmap_traits@EPAU__TAXDETAIL@@U?$less@E@std@@V?$allocator@U?$pair@$$CBEPAU__TAXDETAIL@@@std@@@3@$0A@@std@@@2@XZ
_TEXT	SEGMENT
?_Rmost@?$_Tree@V?$_Tmap_traits@EPAU__TAXDETAIL@@U?$less@E@std@@V?$allocator@U?$pair@$$CBEPAU__TAXDETAIL@@@std@@@3@$0A@@std@@@std@@IAEAAPAU_Node@?$_Tree_nod@V?$_Tmap_traits@EPAU__TAXDETAIL@@U?$less@E@std@@V?$allocator@U?$pair@$$CBEPAU__TAXDETAIL@@@std@@@3@$0A@@std@@@2@XZ PROC NEAR ; std::_Tree<std::_Tmap_traits<unsigned char,__TAXDETAIL *,std::less<unsigned char>,std::allocator<std::pair<unsigned char const ,__TAXDETAIL *> >,0> >::_Rmost, COMDAT
; _this$ = ecx

; 1049 : 		return (_Right(_Myhead));

  00000	8b 41 04	 mov	 eax, DWORD PTR [ecx+4]
  00003	83 c0 08	 add	 eax, 8

; 1050 : 		}

  00006	c3		 ret	 0
?_Rmost@?$_Tree@V?$_Tmap_traits@EPAU__TAXDETAIL@@U?$less@E@std@@V?$allocator@U?$pair@$$CBEPAU__TAXDETAIL@@@std@@@3@$0A@@std@@@std@@IAEAAPAU_Node@?$_Tree_nod@V?$_Tmap_traits@EPAU__TAXDETAIL@@U?$less@E@std@@V?$allocator@U?$pair@$$CBEPAU__TAXDETAIL@@@std@@@3@$0A@@std@@@2@XZ ENDP ; std::_Tree<std::_Tmap_traits<unsigned char,__TAXDETAIL *,std::less<unsigned char>,std::allocator<std::pair<unsigned char const ,__TAXDETAIL *> >,0> >::_Rmost
_TEXT	ENDS
PUBLIC	??0?$allocator@U?$pair@$$CBEPAU__TAXDETAIL@@@std@@@std@@QAE@ABV01@@Z ; std::allocator<std::pair<unsigned char const ,__TAXDETAIL *> >::allocator<std::pair<unsigned char const ,__TAXDETAIL *> >
; Function compile flags: /Ogty
; File c:\program files\microsoft visual studio .net 2003\vc7\include\xmemory
;	COMDAT ??0?$allocator@U?$pair@$$CBEPAU__TAXDETAIL@@@std@@@std@@QAE@ABV01@@Z
_TEXT	SEGMENT
___formal$ = 8						; size = 4
??0?$allocator@U?$pair@$$CBEPAU__TAXDETAIL@@@std@@@std@@QAE@ABV01@@Z PROC NEAR ; std::allocator<std::pair<unsigned char const ,__TAXDETAIL *> >::allocator<std::pair<unsigned char const ,__TAXDETAIL *> >, COMDAT
; _this$ = ecx

; 115  : 	allocator(const allocator<_Ty>&)

  00000	8b c1		 mov	 eax, ecx

; 116  : 		{	// construct by copying (do nothing)
; 117  : 		}

  00002	c2 04 00	 ret	 4
??0?$allocator@U?$pair@$$CBEPAU__TAXDETAIL@@@std@@@std@@QAE@ABV01@@Z ENDP ; std::allocator<std::pair<unsigned char const ,__TAXDETAIL *> >::allocator<std::pair<unsigned char const ,__TAXDETAIL *> >
_TEXT	ENDS
PUBLIC	?deallocate@?$allocator@U_Node@?$_Tree_nod@V?$_Tmap_traits@EPAU__TAXDETAIL@@U?$less@E@std@@V?$allocator@U?$pair@$$CBEPAU__TAXDETAIL@@@std@@@3@$0A@@std@@@std@@@std@@QAEXPAU_Node@?$_Tree_nod@V?$_Tmap_traits@EPAU__TAXDETAIL@@U?$less@E@std@@V?$allocator@U?$pair@$$CBEPAU__TAXDETAIL@@@std@@@3@$0A@@std@@@2@I@Z ; std::allocator<std::_Tree_nod<std::_Tmap_traits<unsigned char,__TAXDETAIL *,std::less<unsigned char>,std::allocator<std::pair<unsigned char const ,__TAXDETAIL *> >,0> >::_Node>::deallocate
EXTRN	??3@YAXPAX@Z:NEAR				; operator delete
; Function compile flags: /Ogty
;	COMDAT ?deallocate@?$allocator@U_Node@?$_Tree_nod@V?$_Tmap_traits@EPAU__TAXDETAIL@@U?$less@E@std@@V?$allocator@U?$pair@$$CBEPAU__TAXDETAIL@@@std@@@3@$0A@@std@@@std@@@std@@QAEXPAU_Node@?$_Tree_nod@V?$_Tmap_traits@EPAU__TAXDETAIL@@U?$less@E@std@@V?$allocator@U?$pair@$$CBEPAU__TAXDETAIL@@@std@@@3@$0A@@std@@@2@I@Z
_TEXT	SEGMENT
__Ptr$ = 8						; size = 4
___formal$ = 12						; size = 4
?deallocate@?$allocator@U_Node@?$_Tree_nod@V?$_Tmap_traits@EPAU__TAXDETAIL@@U?$less@E@std@@V?$allocator@U?$pair@$$CBEPAU__TAXDETAIL@@@std@@@3@$0A@@std@@@std@@@std@@QAEXPAU_Node@?$_Tree_nod@V?$_Tmap_traits@EPAU__TAXDETAIL@@U?$less@E@std@@V?$allocator@U?$pair@$$CBEPAU__TAXDETAIL@@@std@@@3@$0A@@std@@@2@I@Z PROC NEAR ; std::allocator<std::_Tree_nod<std::_Tmap_traits<unsigned char,__TAXDETAIL *,std::less<unsigned char>,std::allocator<std::pair<unsigned char const ,__TAXDETAIL *> >,0> >::_Node>::deallocate, COMDAT
; _this$ = ecx

; 132  : 		operator delete(_Ptr);

  00000	8b 44 24 04	 mov	 eax, DWORD PTR __Ptr$[esp-4]
  00004	50		 push	 eax
  00005	e8 00 00 00 00	 call	 ??3@YAXPAX@Z		; operator delete
  0000a	59		 pop	 ecx

; 133  : 		}

  0000b	c2 08 00	 ret	 8
?deallocate@?$allocator@U_Node@?$_Tree_nod@V?$_Tmap_traits@EPAU__TAXDETAIL@@U?$less@E@std@@V?$allocator@U?$pair@$$CBEPAU__TAXDETAIL@@@std@@@3@$0A@@std@@@std@@@std@@QAEXPAU_Node@?$_Tree_nod@V?$_Tmap_traits@EPAU__TAXDETAIL@@U?$less@E@std@@V?$allocator@U?$pair@$$CBEPAU__TAXDETAIL@@@std@@@3@$0A@@std@@@2@I@Z ENDP ; std::allocator<std::_Tree_nod<std::_Tmap_traits<unsigned char,__TAXDETAIL *,std::less<unsigned char>,std::allocator<std::pair<unsigned char const ,__TAXDETAIL *> >,0> >::_Node>::deallocate
_TEXT	ENDS
PUBLIC	??0const_iterator@?$_Tree@V?$_Tmap_traits@EPAU__TAXDETAIL@@U?$less@E@std@@V?$allocator@U?$pair@$$CBEPAU__TAXDETAIL@@@std@@@3@$0A@@std@@@std@@QAE@PAU_Node@?$_Tree_nod@V?$_Tmap_traits@EPAU__TAXDETAIL@@U?$less@E@std@@V?$allocator@U?$pair@$$CBEPAU__TAXDETAIL@@@std@@@3@$0A@@std@@@2@@Z ; std::_Tree<std::_Tmap_traits<unsigned char,__TAXDETAIL *,std::less<unsigned char>,std::allocator<std::pair<unsigned char const ,__TAXDETAIL *> >,0> >::const_iterator::const_iterator
; Function compile flags: /Ogty
; File c:\program files\microsoft visual studio .net 2003\vc7\include\xtree
;	COMDAT ??0const_iterator@?$_Tree@V?$_Tmap_traits@EPAU__TAXDETAIL@@U?$less@E@std@@V?$allocator@U?$pair@$$CBEPAU__TAXDETAIL@@@std@@@3@$0A@@std@@@std@@QAE@PAU_Node@?$_Tree_nod@V?$_Tmap_traits@EPAU__TAXDETAIL@@U?$less@E@std@@V?$allocator@U?$pair@$$CBEPAU__TAXDETAIL@@@std@@@3@$0A@@std@@@2@@Z
_TEXT	SEGMENT
__Pnode$ = 8						; size = 4
??0const_iterator@?$_Tree@V?$_Tmap_traits@EPAU__TAXDETAIL@@U?$less@E@std@@V?$allocator@U?$pair@$$CBEPAU__TAXDETAIL@@@std@@@3@$0A@@std@@@std@@QAE@PAU_Node@?$_Tree_nod@V?$_Tmap_traits@EPAU__TAXDETAIL@@U?$less@E@std@@V?$allocator@U?$pair@$$CBEPAU__TAXDETAIL@@@std@@@3@$0A@@std@@@2@@Z PROC NEAR ; std::_Tree<std::_Tmap_traits<unsigned char,__TAXDETAIL *,std::less<unsigned char>,std::allocator<std::pair<unsigned char const ,__TAXDETAIL *> >,0> >::const_iterator::const_iterator, COMDAT
; _this$ = ecx

; 200  : 			{	// construct with node pointer _Pnode

  00000	8b c1		 mov	 eax, ecx
  00002	8b 4c 24 04	 mov	 ecx, DWORD PTR __Pnode$[esp-4]
  00006	89 08		 mov	 DWORD PTR [eax], ecx

; 201  : 			}

  00008	c2 04 00	 ret	 4
??0const_iterator@?$_Tree@V?$_Tmap_traits@EPAU__TAXDETAIL@@U?$less@E@std@@V?$allocator@U?$pair@$$CBEPAU__TAXDETAIL@@@std@@@3@$0A@@std@@@std@@QAE@PAU_Node@?$_Tree_nod@V?$_Tmap_traits@EPAU__TAXDETAIL@@U?$less@E@std@@V?$allocator@U?$pair@$$CBEPAU__TAXDETAIL@@@std@@@3@$0A@@std@@@2@@Z ENDP ; std::_Tree<std::_Tmap_traits<unsigned char,__TAXDETAIL *,std::less<unsigned char>,std::allocator<std::pair<unsigned char const ,__TAXDETAIL *> >,0> >::const_iterator::const_iterator
_TEXT	ENDS
PUBLIC	??Dconst_iterator@?$_Tree@V?$_Tmap_traits@EPAU__TAXDETAIL@@U?$less@E@std@@V?$allocator@U?$pair@$$CBEPAU__TAXDETAIL@@@std@@@3@$0A@@std@@@std@@QBEABU?$pair@$$CBEPAU__TAXDETAIL@@@2@XZ ; std::_Tree<std::_Tmap_traits<unsigned char,__TAXDETAIL *,std::less<unsigned char>,std::allocator<std::pair<unsigned char const ,__TAXDETAIL *> >,0> >::const_iterator::operator*
; Function compile flags: /Ogty
;	COMDAT ??Dconst_iterator@?$_Tree@V?$_Tmap_traits@EPAU__TAXDETAIL@@U?$less@E@std@@V?$allocator@U?$pair@$$CBEPAU__TAXDETAIL@@@std@@@3@$0A@@std@@@std@@QBEABU?$pair@$$CBEPAU__TAXDETAIL@@@2@XZ
_TEXT	SEGMENT
??Dconst_iterator@?$_Tree@V?$_Tmap_traits@EPAU__TAXDETAIL@@U?$less@E@std@@V?$allocator@U?$pair@$$CBEPAU__TAXDETAIL@@@std@@@3@$0A@@std@@@std@@QBEABU?$pair@$$CBEPAU__TAXDETAIL@@@2@XZ PROC NEAR ; std::_Tree<std::_Tmap_traits<unsigned char,__TAXDETAIL *,std::less<unsigned char>,std::allocator<std::pair<unsigned char const ,__TAXDETAIL *> >,0> >::const_iterator::operator*, COMDAT
; _this$ = ecx

; 205  : 			return (_Myval(_Ptr));

  00000	8b 01		 mov	 eax, DWORD PTR [ecx]
  00002	83 c0 0c	 add	 eax, 12			; 0000000cH

; 206  : 			}

  00005	c3		 ret	 0
??Dconst_iterator@?$_Tree@V?$_Tmap_traits@EPAU__TAXDETAIL@@U?$less@E@std@@V?$allocator@U?$pair@$$CBEPAU__TAXDETAIL@@@std@@@3@$0A@@std@@@std@@QBEABU?$pair@$$CBEPAU__TAXDETAIL@@@2@XZ ENDP ; std::_Tree<std::_Tmap_traits<unsigned char,__TAXDETAIL *,std::less<unsigned char>,std::allocator<std::pair<unsigned char const ,__TAXDETAIL *> >,0> >::const_iterator::operator*
_TEXT	ENDS
PUBLIC	?_Color@?$_Tree@V?$_Tmap_traits@EPAU__TAXINFO@@U?$less@E@std@@V?$allocator@U?$pair@$$CBEPAU__TAXINFO@@@std@@@3@$0A@@std@@@std@@KAAADPAU_Node@?$_Tree_nod@V?$_Tmap_traits@EPAU__TAXINFO@@U?$less@E@std@@V?$allocator@U?$pair@$$CBEPAU__TAXINFO@@@std@@@3@$0A@@std@@@2@@Z ; std::_Tree<std::_Tmap_traits<unsigned char,__TAXINFO *,std::less<unsigned char>,std::allocator<std::pair<unsigned char const ,__TAXINFO *> >,0> >::_Color
; Function compile flags: /Ogty
;	COMDAT ?_Color@?$_Tree@V?$_Tmap_traits@EPAU__TAXINFO@@U?$less@E@std@@V?$allocator@U?$pair@$$CBEPAU__TAXINFO@@@std@@@3@$0A@@std@@@std@@KAAADPAU_Node@?$_Tree_nod@V?$_Tmap_traits@EPAU__TAXINFO@@U?$less@E@std@@V?$allocator@U?$pair@$$CBEPAU__TAXINFO@@@std@@@3@$0A@@std@@@2@@Z
_TEXT	SEGMENT
__Pnode$ = 8						; size = 4
?_Color@?$_Tree@V?$_Tmap_traits@EPAU__TAXINFO@@U?$less@E@std@@V?$allocator@U?$pair@$$CBEPAU__TAXINFO@@@std@@@3@$0A@@std@@@std@@KAAADPAU_Node@?$_Tree_nod@V?$_Tmap_traits@EPAU__TAXINFO@@U?$less@E@std@@V?$allocator@U?$pair@$$CBEPAU__TAXINFO@@@std@@@3@$0A@@std@@@2@@Z PROC NEAR ; std::_Tree<std::_Tmap_traits<unsigned char,__TAXINFO *,std::less<unsigned char>,std::allocator<std::pair<unsigned char const ,__TAXINFO *> >,0> >::_Color, COMDAT

; 132  : 		return ((_Charref)(*_Pnode)._Color);

  00000	8b 44 24 04	 mov	 eax, DWORD PTR __Pnode$[esp-4]
  00004	83 c0 14	 add	 eax, 20			; 00000014H

; 133  : 		}

  00007	c3		 ret	 0
?_Color@?$_Tree@V?$_Tmap_traits@EPAU__TAXINFO@@U?$less@E@std@@V?$allocator@U?$pair@$$CBEPAU__TAXINFO@@@std@@@3@$0A@@std@@@std@@KAAADPAU_Node@?$_Tree_nod@V?$_Tmap_traits@EPAU__TAXINFO@@U?$less@E@std@@V?$allocator@U?$pair@$$CBEPAU__TAXINFO@@@std@@@3@$0A@@std@@@2@@Z ENDP ; std::_Tree<std::_Tmap_traits<unsigned char,__TAXINFO *,std::less<unsigned char>,std::allocator<std::pair<unsigned char const ,__TAXINFO *> >,0> >::_Color
_TEXT	ENDS
PUBLIC	?_Parent@?$_Tree@V?$_Tmap_traits@EPAU__TAXINFO@@U?$less@E@std@@V?$allocator@U?$pair@$$CBEPAU__TAXINFO@@@std@@@3@$0A@@std@@@std@@KAAAPAU_Node@?$_Tree_nod@V?$_Tmap_traits@EPAU__TAXINFO@@U?$less@E@std@@V?$allocator@U?$pair@$$CBEPAU__TAXINFO@@@std@@@3@$0A@@std@@@2@PAU342@@Z ; std::_Tree<std::_Tmap_traits<unsigned char,__TAXINFO *,std::less<unsigned char>,std::allocator<std::pair<unsigned char const ,__TAXINFO *> >,0> >::_Parent
; Function compile flags: /Ogty
;	COMDAT ?_Parent@?$_Tree@V?$_Tmap_traits@EPAU__TAXINFO@@U?$less@E@std@@V?$allocator@U?$pair@$$CBEPAU__TAXINFO@@@std@@@3@$0A@@std@@@std@@KAAAPAU_Node@?$_Tree_nod@V?$_Tmap_traits@EPAU__TAXINFO@@U?$less@E@std@@V?$allocator@U?$pair@$$CBEPAU__TAXINFO@@@std@@@3@$0A@@std@@@2@PAU342@@Z
_TEXT	SEGMENT
__Pnode$ = 8						; size = 4
?_Parent@?$_Tree@V?$_Tmap_traits@EPAU__TAXINFO@@U?$less@E@std@@V?$allocator@U?$pair@$$CBEPAU__TAXINFO@@@std@@@3@$0A@@std@@@std@@KAAAPAU_Node@?$_Tree_nod@V?$_Tmap_traits@EPAU__TAXINFO@@U?$less@E@std@@V?$allocator@U?$pair@$$CBEPAU__TAXINFO@@@std@@@3@$0A@@std@@@2@PAU342@@Z PROC NEAR ; std::_Tree<std::_Tmap_traits<unsigned char,__TAXINFO *,std::less<unsigned char>,std::allocator<std::pair<unsigned char const ,__TAXINFO *> >,0> >::_Parent, COMDAT

; 152  : 		return ((_Nodepref)(*_Pnode)._Parent);

  00000	8b 44 24 04	 mov	 eax, DWORD PTR __Pnode$[esp-4]
  00004	83 c0 04	 add	 eax, 4

; 153  : 		}

  00007	c3		 ret	 0
?_Parent@?$_Tree@V?$_Tmap_traits@EPAU__TAXINFO@@U?$less@E@std@@V?$allocator@U?$pair@$$CBEPAU__TAXINFO@@@std@@@3@$0A@@std@@@std@@KAAAPAU_Node@?$_Tree_nod@V?$_Tmap_traits@EPAU__TAXINFO@@U?$less@E@std@@V?$allocator@U?$pair@$$CBEPAU__TAXINFO@@@std@@@3@$0A@@std@@@2@PAU342@@Z ENDP ; std::_Tree<std::_Tmap_traits<unsigned char,__TAXINFO *,std::less<unsigned char>,std::allocator<std::pair<unsigned char const ,__TAXINFO *> >,0> >::_Parent
_TEXT	ENDS
PUBLIC	?_Myval@?$_Tree@V?$_Tmap_traits@EPAU__TAXINFO@@U?$less@E@std@@V?$allocator@U?$pair@$$CBEPAU__TAXINFO@@@std@@@3@$0A@@std@@@std@@KAAAU?$pair@$$CBEPAU__TAXINFO@@@2@PAU_Node@?$_Tree_nod@V?$_Tmap_traits@EPAU__TAXINFO@@U?$less@E@std@@V?$allocator@U?$pair@$$CBEPAU__TAXINFO@@@std@@@3@$0A@@std@@@2@@Z ; std::_Tree<std::_Tmap_traits<unsigned char,__TAXINFO *,std::less<unsigned char>,std::allocator<std::pair<unsigned char const ,__TAXINFO *> >,0> >::_Myval
; Function compile flags: /Ogty
;	COMDAT ?_Myval@?$_Tree@V?$_Tmap_traits@EPAU__TAXINFO@@U?$less@E@std@@V?$allocator@U?$pair@$$CBEPAU__TAXINFO@@@std@@@3@$0A@@std@@@std@@KAAAU?$pair@$$CBEPAU__TAXINFO@@@2@PAU_Node@?$_Tree_nod@V?$_Tmap_traits@EPAU__TAXINFO@@U?$less@E@std@@V?$allocator@U?$pair@$$CBEPAU__TAXINFO@@@std@@@3@$0A@@std@@@2@@Z
_TEXT	SEGMENT
__Pnode$ = 8						; size = 4
?_Myval@?$_Tree@V?$_Tmap_traits@EPAU__TAXINFO@@U?$less@E@std@@V?$allocator@U?$pair@$$CBEPAU__TAXINFO@@@std@@@3@$0A@@std@@@std@@KAAAU?$pair@$$CBEPAU__TAXINFO@@@2@PAU_Node@?$_Tree_nod@V?$_Tmap_traits@EPAU__TAXINFO@@U?$less@E@std@@V?$allocator@U?$pair@$$CBEPAU__TAXINFO@@@std@@@3@$0A@@std@@@2@@Z PROC NEAR ; std::_Tree<std::_Tmap_traits<unsigned char,__TAXINFO *,std::less<unsigned char>,std::allocator<std::pair<unsigned char const ,__TAXINFO *> >,0> >::_Myval, COMDAT

; 162  : 		return ((_Vref)(*_Pnode)._Myval);

  00000	8b 44 24 04	 mov	 eax, DWORD PTR __Pnode$[esp-4]
  00004	83 c0 0c	 add	 eax, 12			; 0000000cH

; 163  : 		}

  00007	c3		 ret	 0
?_Myval@?$_Tree@V?$_Tmap_traits@EPAU__TAXINFO@@U?$less@E@std@@V?$allocator@U?$pair@$$CBEPAU__TAXINFO@@@std@@@3@$0A@@std@@@std@@KAAAU?$pair@$$CBEPAU__TAXINFO@@@2@PAU_Node@?$_Tree_nod@V?$_Tmap_traits@EPAU__TAXINFO@@U?$less@E@std@@V?$allocator@U?$pair@$$CBEPAU__TAXINFO@@@std@@@3@$0A@@std@@@2@@Z ENDP ; std::_Tree<std::_Tmap_traits<unsigned char,__TAXINFO *,std::less<unsigned char>,std::allocator<std::pair<unsigned char const ,__TAXINFO *> >,0> >::_Myval
_TEXT	ENDS
PUBLIC	??0?$allocator@U?$pair@$$CBEPAU__TAXINFO@@@std@@@std@@QAE@ABV01@@Z ; std::allocator<std::pair<unsigned char const ,__TAXINFO *> >::allocator<std::pair<unsigned char const ,__TAXINFO *> >
; Function compile flags: /Ogty
; File c:\program files\microsoft visual studio .net 2003\vc7\include\xmemory
;	COMDAT ??0?$allocator@U?$pair@$$CBEPAU__TAXINFO@@@std@@@std@@QAE@ABV01@@Z
_TEXT	SEGMENT
___formal$ = 8						; size = 4
??0?$allocator@U?$pair@$$CBEPAU__TAXINFO@@@std@@@std@@QAE@ABV01@@Z PROC NEAR ; std::allocator<std::pair<unsigned char const ,__TAXINFO *> >::allocator<std::pair<unsigned char const ,__TAXINFO *> >, COMDAT
; _this$ = ecx

; 115  : 	allocator(const allocator<_Ty>&)

  00000	8b c1		 mov	 eax, ecx

; 116  : 		{	// construct by copying (do nothing)
; 117  : 		}

  00002	c2 04 00	 ret	 4
??0?$allocator@U?$pair@$$CBEPAU__TAXINFO@@@std@@@std@@QAE@ABV01@@Z ENDP ; std::allocator<std::pair<unsigned char const ,__TAXINFO *> >::allocator<std::pair<unsigned char const ,__TAXINFO *> >
_TEXT	ENDS
PUBLIC	?deallocate@?$allocator@U_Node@?$_Tree_nod@V?$_Tmap_traits@EPAU__TAXINFO@@U?$less@E@std@@V?$allocator@U?$pair@$$CBEPAU__TAXINFO@@@std@@@3@$0A@@std@@@std@@@std@@QAEXPAU_Node@?$_Tree_nod@V?$_Tmap_traits@EPAU__TAXINFO@@U?$less@E@std@@V?$allocator@U?$pair@$$CBEPAU__TAXINFO@@@std@@@3@$0A@@std@@@2@I@Z ; std::allocator<std::_Tree_nod<std::_Tmap_traits<unsigned char,__TAXINFO *,std::less<unsigned char>,std::allocator<std::pair<unsigned char const ,__TAXINFO *> >,0> >::_Node>::deallocate
; Function compile flags: /Ogty
;	COMDAT ?deallocate@?$allocator@U_Node@?$_Tree_nod@V?$_Tmap_traits@EPAU__TAXINFO@@U?$less@E@std@@V?$allocator@U?$pair@$$CBEPAU__TAXINFO@@@std@@@3@$0A@@std@@@std@@@std@@QAEXPAU_Node@?$_Tree_nod@V?$_Tmap_traits@EPAU__TAXINFO@@U?$less@E@std@@V?$allocator@U?$pair@$$CBEPAU__TAXINFO@@@std@@@3@$0A@@std@@@2@I@Z
_TEXT	SEGMENT
__Ptr$ = 8						; size = 4
___formal$ = 12						; size = 4
?deallocate@?$allocator@U_Node@?$_Tree_nod@V?$_Tmap_traits@EPAU__TAXINFO@@U?$less@E@std@@V?$allocator@U?$pair@$$CBEPAU__TAXINFO@@@std@@@3@$0A@@std@@@std@@@std@@QAEXPAU_Node@?$_Tree_nod@V?$_Tmap_traits@EPAU__TAXINFO@@U?$less@E@std@@V?$allocator@U?$pair@$$CBEPAU__TAXINFO@@@std@@@3@$0A@@std@@@2@I@Z PROC NEAR ; std::allocator<std::_Tree_nod<std::_Tmap_traits<unsigned char,__TAXINFO *,std::less<unsigned char>,std::allocator<std::pair<unsigned char const ,__TAXINFO *> >,0> >::_Node>::deallocate, COMDAT
; _this$ = ecx

; 132  : 		operator delete(_Ptr);

  00000	8b 44 24 04	 mov	 eax, DWORD PTR __Ptr$[esp-4]
  00004	50		 push	 eax
  00005	e8 00 00 00 00	 call	 ??3@YAXPAX@Z		; operator delete
  0000a	59		 pop	 ecx

; 133  : 		}

  0000b	c2 08 00	 ret	 8
?deallocate@?$allocator@U_Node@?$_Tree_nod@V?$_Tmap_traits@EPAU__TAXINFO@@U?$less@E@std@@V?$allocator@U?$pair@$$CBEPAU__TAXINFO@@@std@@@3@$0A@@std@@@std@@@std@@QAEXPAU_Node@?$_Tree_nod@V?$_Tmap_traits@EPAU__TAXINFO@@U?$less@E@std@@V?$allocator@U?$pair@$$CBEPAU__TAXINFO@@@std@@@3@$0A@@std@@@2@I@Z ENDP ; std::allocator<std::_Tree_nod<std::_Tmap_traits<unsigned char,__TAXINFO *,std::less<unsigned char>,std::allocator<std::pair<unsigned char const ,__TAXINFO *> >,0> >::_Node>::deallocate
_TEXT	ENDS
PUBLIC	??0const_iterator@?$_Tree@V?$_Tmap_traits@EPAU__TAXINFO@@U?$less@E@std@@V?$allocator@U?$pair@$$CBEPAU__TAXINFO@@@std@@@3@$0A@@std@@@std@@QAE@PAU_Node@?$_Tree_nod@V?$_Tmap_traits@EPAU__TAXINFO@@U?$less@E@std@@V?$allocator@U?$pair@$$CBEPAU__TAXINFO@@@std@@@3@$0A@@std@@@2@@Z ; std::_Tree<std::_Tmap_traits<unsigned char,__TAXINFO *,std::less<unsigned char>,std::allocator<std::pair<unsigned char const ,__TAXINFO *> >,0> >::const_iterator::const_iterator
; Function compile flags: /Ogty
; File c:\program files\microsoft visual studio .net 2003\vc7\include\xtree
;	COMDAT ??0const_iterator@?$_Tree@V?$_Tmap_traits@EPAU__TAXINFO@@U?$less@E@std@@V?$allocator@U?$pair@$$CBEPAU__TAXINFO@@@std@@@3@$0A@@std@@@std@@QAE@PAU_Node@?$_Tree_nod@V?$_Tmap_traits@EPAU__TAXINFO@@U?$less@E@std@@V?$allocator@U?$pair@$$CBEPAU__TAXINFO@@@std@@@3@$0A@@std@@@2@@Z
_TEXT	SEGMENT
__Pnode$ = 8						; size = 4
??0const_iterator@?$_Tree@V?$_Tmap_traits@EPAU__TAXINFO@@U?$less@E@std@@V?$allocator@U?$pair@$$CBEPAU__TAXINFO@@@std@@@3@$0A@@std@@@std@@QAE@PAU_Node@?$_Tree_nod@V?$_Tmap_traits@EPAU__TAXINFO@@U?$less@E@std@@V?$allocator@U?$pair@$$CBEPAU__TAXINFO@@@std@@@3@$0A@@std@@@2@@Z PROC NEAR ; std::_Tree<std::_Tmap_traits<unsigned char,__TAXINFO *,std::less<unsigned char>,std::allocator<std::pair<unsigned char const ,__TAXINFO *> >,0> >::const_iterator::const_iterator, COMDAT
; _this$ = ecx

; 200  : 			{	// construct with node pointer _Pnode

  00000	8b c1		 mov	 eax, ecx
  00002	8b 4c 24 04	 mov	 ecx, DWORD PTR __Pnode$[esp-4]
  00006	89 08		 mov	 DWORD PTR [eax], ecx

; 201  : 			}

  00008	c2 04 00	 ret	 4
??0const_iterator@?$_Tree@V?$_Tmap_traits@EPAU__TAXINFO@@U?$less@E@std@@V?$allocator@U?$pair@$$CBEPAU__TAXINFO@@@std@@@3@$0A@@std@@@std@@QAE@PAU_Node@?$_Tree_nod@V?$_Tmap_traits@EPAU__TAXINFO@@U?$less@E@std@@V?$allocator@U?$pair@$$CBEPAU__TAXINFO@@@std@@@3@$0A@@std@@@2@@Z ENDP ; std::_Tree<std::_Tmap_traits<unsigned char,__TAXINFO *,std::less<unsigned char>,std::allocator<std::pair<unsigned char const ,__TAXINFO *> >,0> >::const_iterator::const_iterator
_TEXT	ENDS
PUBLIC	??Dconst_iterator@?$_Tree@V?$_Tmap_traits@EPAU__TAXINFO@@U?$less@E@std@@V?$allocator@U?$pair@$$CBEPAU__TAXINFO@@@std@@@3@$0A@@std@@@std@@QBEABU?$pair@$$CBEPAU__TAXINFO@@@2@XZ ; std::_Tree<std::_Tmap_traits<unsigned char,__TAXINFO *,std::less<unsigned char>,std::allocator<std::pair<unsigned char const ,__TAXINFO *> >,0> >::const_iterator::operator*
; Function compile flags: /Ogty
;	COMDAT ??Dconst_iterator@?$_Tree@V?$_Tmap_traits@EPAU__TAXINFO@@U?$less@E@std@@V?$allocator@U?$pair@$$CBEPAU__TAXINFO@@@std@@@3@$0A@@std@@@std@@QBEABU?$pair@$$CBEPAU__TAXINFO@@@2@XZ
_TEXT	SEGMENT
??Dconst_iterator@?$_Tree@V?$_Tmap_traits@EPAU__TAXINFO@@U?$less@E@std@@V?$allocator@U?$pair@$$CBEPAU__TAXINFO@@@std@@@3@$0A@@std@@@std@@QBEABU?$pair@$$CBEPAU__TAXINFO@@@2@XZ PROC NEAR ; std::_Tree<std::_Tmap_traits<unsigned char,__TAXINFO *,std::less<unsigned char>,std::allocator<std::pair<unsigned char const ,__TAXINFO *> >,0> >::const_iterator::operator*, COMDAT
; _this$ = ecx

; 205  : 			return (_Myval(_Ptr));

  00000	8b 01		 mov	 eax, DWORD PTR [ecx]
  00002	83 c0 0c	 add	 eax, 12			; 0000000cH

; 206  : 			}

  00005	c3		 ret	 0
??Dconst_iterator@?$_Tree@V?$_Tmap_traits@EPAU__TAXINFO@@U?$less@E@std@@V?$allocator@U?$pair@$$CBEPAU__TAXINFO@@@std@@@3@$0A@@std@@@std@@QBEABU?$pair@$$CBEPAU__TAXINFO@@@2@XZ ENDP ; std::_Tree<std::_Tmap_traits<unsigned char,__TAXINFO *,std::less<unsigned char>,std::allocator<std::pair<unsigned char const ,__TAXINFO *> >,0> >::const_iterator::operator*
_TEXT	ENDS
PUBLIC	?_Root@?$_Tree@V?$_Tmap_traits@EPAU__TAXDETAIL@@U?$less@E@std@@V?$allocator@U?$pair@$$CBEPAU__TAXDETAIL@@@std@@@3@$0A@@std@@@std@@IBEAAPAU_Node@?$_Tree_nod@V?$_Tmap_traits@EPAU__TAXDETAIL@@U?$less@E@std@@V?$allocator@U?$pair@$$CBEPAU__TAXDETAIL@@@std@@@3@$0A@@std@@@2@XZ ; std::_Tree<std::_Tmap_traits<unsigned char,__TAXDETAIL *,std::less<unsigned char>,std::allocator<std::pair<unsigned char const ,__TAXDETAIL *> >,0> >::_Root
; Function compile flags: /Ogty
;	COMDAT ?_Root@?$_Tree@V?$_Tmap_traits@EPAU__TAXDETAIL@@U?$less@E@std@@V?$allocator@U?$pair@$$CBEPAU__TAXDETAIL@@@std@@@3@$0A@@std@@@std@@IBEAAPAU_Node@?$_Tree_nod@V?$_Tmap_traits@EPAU__TAXDETAIL@@U?$less@E@std@@V?$allocator@U?$pair@$$CBEPAU__TAXDETAIL@@@std@@@3@$0A@@std@@@2@XZ
_TEXT	SEGMENT
?_Root@?$_Tree@V?$_Tmap_traits@EPAU__TAXDETAIL@@U?$less@E@std@@V?$allocator@U?$pair@$$CBEPAU__TAXDETAIL@@@std@@@3@$0A@@std@@@std@@IBEAAPAU_Node@?$_Tree_nod@V?$_Tmap_traits@EPAU__TAXDETAIL@@U?$less@E@std@@V?$allocator@U?$pair@$$CBEPAU__TAXDETAIL@@@std@@@3@$0A@@std@@@2@XZ PROC NEAR ; std::_Tree<std::_Tmap_traits<unsigned char,__TAXDETAIL *,std::less<unsigned char>,std::allocator<std::pair<unsigned char const ,__TAXDETAIL *> >,0> >::_Root, COMDAT
; _this$ = ecx

; 1064 : 		return (_Parent(_Myhead));

  00000	8b 41 04	 mov	 eax, DWORD PTR [ecx+4]
  00003	83 c0 04	 add	 eax, 4

; 1065 : 		}

  00006	c3		 ret	 0
?_Root@?$_Tree@V?$_Tmap_traits@EPAU__TAXDETAIL@@U?$less@E@std@@V?$allocator@U?$pair@$$CBEPAU__TAXDETAIL@@@std@@@3@$0A@@std@@@std@@IBEAAPAU_Node@?$_Tree_nod@V?$_Tmap_traits@EPAU__TAXDETAIL@@U?$less@E@std@@V?$allocator@U?$pair@$$CBEPAU__TAXDETAIL@@@std@@@3@$0A@@std@@@2@XZ ENDP ; std::_Tree<std::_Tmap_traits<unsigned char,__TAXDETAIL *,std::less<unsigned char>,std::allocator<std::pair<unsigned char const ,__TAXDETAIL *> >,0> >::_Root
_TEXT	ENDS
PUBLIC	?max_size@?$allocator@U?$pair@$$CBEPAU__TAXDETAIL@@@std@@@std@@QBEIXZ ; std::allocator<std::pair<unsigned char const ,__TAXDETAIL *> >::max_size
; Function compile flags: /Ogty
; File c:\program files\microsoft visual studio .net 2003\vc7\include\xmemory
;	COMDAT ?max_size@?$allocator@U?$pair@$$CBEPAU__TAXDETAIL@@@std@@@std@@QBEIXZ
_TEXT	SEGMENT
?max_size@?$allocator@U?$pair@$$CBEPAU__TAXDETAIL@@@std@@@std@@QBEIXZ PROC NEAR ; std::allocator<std::pair<unsigned char const ,__TAXDETAIL *> >::max_size, COMDAT
; _this$ = ecx

; 157  : 		_SIZT _Count = (_SIZT)(-1) / sizeof (_Ty);
; 158  : 		return (0 < _Count ? _Count : 1);

  00000	b8 ff ff ff 1f	 mov	 eax, 536870911		; 1fffffffH

; 159  : 		}

  00005	c3		 ret	 0
?max_size@?$allocator@U?$pair@$$CBEPAU__TAXDETAIL@@@std@@@std@@QBEIXZ ENDP ; std::allocator<std::pair<unsigned char const ,__TAXDETAIL *> >::max_size
_TEXT	ENDS
PUBLIC	?_Root@?$_Tree@V?$_Tmap_traits@EPAU__TAXINFO@@U?$less@E@std@@V?$allocator@U?$pair@$$CBEPAU__TAXINFO@@@std@@@3@$0A@@std@@@std@@IBEAAPAU_Node@?$_Tree_nod@V?$_Tmap_traits@EPAU__TAXINFO@@U?$less@E@std@@V?$allocator@U?$pair@$$CBEPAU__TAXINFO@@@std@@@3@$0A@@std@@@2@XZ ; std::_Tree<std::_Tmap_traits<unsigned char,__TAXINFO *,std::less<unsigned char>,std::allocator<std::pair<unsigned char const ,__TAXINFO *> >,0> >::_Root
; Function compile flags: /Ogty
; File c:\program files\microsoft visual studio .net 2003\vc7\include\xtree
;	COMDAT ?_Root@?$_Tree@V?$_Tmap_traits@EPAU__TAXINFO@@U?$less@E@std@@V?$allocator@U?$pair@$$CBEPAU__TAXINFO@@@std@@@3@$0A@@std@@@std@@IBEAAPAU_Node@?$_Tree_nod@V?$_Tmap_traits@EPAU__TAXINFO@@U?$less@E@std@@V?$allocator@U?$pair@$$CBEPAU__TAXINFO@@@std@@@3@$0A@@std@@@2@XZ
_TEXT	SEGMENT
?_Root@?$_Tree@V?$_Tmap_traits@EPAU__TAXINFO@@U?$less@E@std@@V?$allocator@U?$pair@$$CBEPAU__TAXINFO@@@std@@@3@$0A@@std@@@std@@IBEAAPAU_Node@?$_Tree_nod@V?$_Tmap_traits@EPAU__TAXINFO@@U?$less@E@std@@V?$allocator@U?$pair@$$CBEPAU__TAXINFO@@@std@@@3@$0A@@std@@@2@XZ PROC NEAR ; std::_Tree<std::_Tmap_traits<unsigned char,__TAXINFO *,std::less<unsigned char>,std::allocator<std::pair<unsigned char const ,__TAXINFO *> >,0> >::_Root, COMDAT
; _this$ = ecx

; 1064 : 		return (_Parent(_Myhead));

  00000	8b 41 04	 mov	 eax, DWORD PTR [ecx+4]
  00003	83 c0 04	 add	 eax, 4

; 1065 : 		}

  00006	c3		 ret	 0
?_Root@?$_Tree@V?$_Tmap_traits@EPAU__TAXINFO@@U?$less@E@std@@V?$allocator@U?$pair@$$CBEPAU__TAXINFO@@@std@@@3@$0A@@std@@@std@@IBEAAPAU_Node@?$_Tree_nod@V?$_Tmap_traits@EPAU__TAXINFO@@U?$less@E@std@@V?$allocator@U?$pair@$$CBEPAU__TAXINFO@@@std@@@3@$0A@@std@@@2@XZ ENDP ; std::_Tree<std::_Tmap_traits<unsigned char,__TAXINFO *,std::less<unsigned char>,std::allocator<std::pair<unsigned char const ,__TAXINFO *> >,0> >::_Root
_TEXT	ENDS
PUBLIC	?max_size@?$allocator@U?$pair@$$CBEPAU__TAXINFO@@@std@@@std@@QBEIXZ ; std::allocator<std::pair<unsigned char const ,__TAXINFO *> >::max_size
; Function compile flags: /Ogty
; File c:\program files\microsoft visual studio .net 2003\vc7\include\xmemory
;	COMDAT ?max_size@?$allocator@U?$pair@$$CBEPAU__TAXINFO@@@std@@@std@@QBEIXZ
_TEXT	SEGMENT
?max_size@?$allocator@U?$pair@$$CBEPAU__TAXINFO@@@std@@@std@@QBEIXZ PROC NEAR ; std::allocator<std::pair<unsigned char const ,__TAXINFO *> >::max_size, COMDAT
; _this$ = ecx

; 157  : 		_SIZT _Count = (_SIZT)(-1) / sizeof (_Ty);
; 158  : 		return (0 < _Count ? _Count : 1);

  00000	b8 ff ff ff 1f	 mov	 eax, 536870911		; 1fffffffH

; 159  : 		}

  00005	c3		 ret	 0
?max_size@?$allocator@U?$pair@$$CBEPAU__TAXINFO@@@std@@@std@@QBEIXZ ENDP ; std::allocator<std::pair<unsigned char const ,__TAXINFO *> >::max_size
_TEXT	ENDS
PUBLIC	??Yiterator@?$vector@KV?$allocator@K@std@@@std@@QAEAAV012@H@Z ; std::vector<unsigned long,std::allocator<unsigned long> >::iterator::operator+=
; Function compile flags: /Ogty
; File c:\program files\microsoft visual studio .net 2003\vc7\include\vector
;	COMDAT ??Yiterator@?$vector@KV?$allocator@K@std@@@std@@QAEAAV012@H@Z
_TEXT	SEGMENT
__Off$ = 8						; size = 4
??Yiterator@?$vector@KV?$allocator@K@std@@@std@@QAEAAV012@H@Z PROC NEAR ; std::vector<unsigned long,std::allocator<unsigned long> >::iterator::operator+=, COMDAT
; _this$ = ecx

; 255  : 			{	// increment by integer

  00000	8b c1		 mov	 eax, ecx

; 256  : 			this->_Myptr += _Off;

  00002	8b 4c 24 04	 mov	 ecx, DWORD PTR __Off$[esp-4]
  00006	8d 14 8d 00 00
	00 00		 lea	 edx, DWORD PTR [ecx*4]
  0000d	01 10		 add	 DWORD PTR [eax], edx

; 257  : 			return (*this);
; 258  : 			}

  0000f	c2 04 00	 ret	 4
??Yiterator@?$vector@KV?$allocator@K@std@@@std@@QAEAAV012@H@Z ENDP ; std::vector<unsigned long,std::allocator<unsigned long> >::iterator::operator+=
_TEXT	ENDS
PUBLIC	??0const_iterator@?$vector@KV?$allocator@K@std@@@std@@QAE@PAK@Z ; std::vector<unsigned long,std::allocator<unsigned long> >::const_iterator::const_iterator
; Function compile flags: /Ogty
;	COMDAT ??0const_iterator@?$vector@KV?$allocator@K@std@@@std@@QAE@PAK@Z
_TEXT	SEGMENT
__Ptr$ = 8						; size = 4
??0const_iterator@?$vector@KV?$allocator@K@std@@@std@@QAE@PAK@Z PROC NEAR ; std::vector<unsigned long,std::allocator<unsigned long> >::const_iterator::const_iterator, COMDAT
; _this$ = ecx

; 73   : 		const_iterator(_Tptr _Ptr)

  00000	8b c1		 mov	 eax, ecx

; 74   : 			{	// construct with pointer _Ptr
; 75   : 			_Myptr = _Ptr;

  00002	8b 4c 24 04	 mov	 ecx, DWORD PTR __Ptr$[esp-4]
  00006	89 08		 mov	 DWORD PTR [eax], ecx

; 76   : 			}

  00008	c2 04 00	 ret	 4
??0const_iterator@?$vector@KV?$allocator@K@std@@@std@@QAE@PAK@Z ENDP ; std::vector<unsigned long,std::allocator<unsigned long> >::const_iterator::const_iterator
_TEXT	ENDS
PUBLIC	??Gconst_iterator@?$vector@KV?$allocator@K@std@@@std@@QBEHABV012@@Z ; std::vector<unsigned long,std::allocator<unsigned long> >::const_iterator::operator-
; Function compile flags: /Ogty
;	COMDAT ??Gconst_iterator@?$vector@KV?$allocator@K@std@@@std@@QBEHABV012@@Z
_TEXT	SEGMENT
__Right$ = 8						; size = 4
??Gconst_iterator@?$vector@KV?$allocator@K@std@@@std@@QBEHABV012@@Z PROC NEAR ; std::vector<unsigned long,std::allocator<unsigned long> >::const_iterator::operator-, COMDAT
; _this$ = ecx

; 141  : 
; 142  : 
; 143  : 			return (_Myptr - _Right._Myptr);

  00000	8b 01		 mov	 eax, DWORD PTR [ecx]
  00002	8b 4c 24 04	 mov	 ecx, DWORD PTR __Right$[esp-4]
  00006	2b 01		 sub	 eax, DWORD PTR [ecx]
  00008	c1 f8 02	 sar	 eax, 2

; 144  : 			}

  0000b	c2 04 00	 ret	 4
??Gconst_iterator@?$vector@KV?$allocator@K@std@@@std@@QBEHABV012@@Z ENDP ; std::vector<unsigned long,std::allocator<unsigned long> >::const_iterator::operator-
_TEXT	ENDS
PUBLIC	??0_Node@?$_Tree_nod@V?$_Tmap_traits@EPAU__TAXDETAIL@@U?$less@E@std@@V?$allocator@U?$pair@$$CBEPAU__TAXDETAIL@@@std@@@3@$0A@@std@@@std@@QAE@PAU012@00ABU?$pair@$$CBEPAU__TAXDETAIL@@@2@D@Z ; std::_Tree_nod<std::_Tmap_traits<unsigned char,__TAXDETAIL *,std::less<unsigned char>,std::allocator<std::pair<unsigned char const ,__TAXDETAIL *> >,0> >::_Node::_Node
; Function compile flags: /Ogty
; File c:\program files\microsoft visual studio .net 2003\vc7\include\xtree
;	COMDAT ??0_Node@?$_Tree_nod@V?$_Tmap_traits@EPAU__TAXDETAIL@@U?$less@E@std@@V?$allocator@U?$pair@$$CBEPAU__TAXDETAIL@@@std@@@3@$0A@@std@@@std@@QAE@PAU012@00ABU?$pair@$$CBEPAU__TAXDETAIL@@@2@D@Z
_TEXT	SEGMENT
__Larg$ = 8						; size = 4
__Parg$ = 12						; size = 4
__Rarg$ = 16						; size = 4
__Val$ = 20						; size = 4
__Carg$ = 24						; size = 1
??0_Node@?$_Tree_nod@V?$_Tmap_traits@EPAU__TAXDETAIL@@U?$less@E@std@@V?$allocator@U?$pair@$$CBEPAU__TAXDETAIL@@@std@@@3@$0A@@std@@@std@@QAE@PAU012@00ABU?$pair@$$CBEPAU__TAXDETAIL@@@2@D@Z PROC NEAR ; std::_Tree_nod<std::_Tmap_traits<unsigned char,__TAXDETAIL *,std::less<unsigned char>,std::allocator<std::pair<unsigned char const ,__TAXDETAIL *> >,0> >::_Node::_Node, COMDAT
; _this$ = ecx

; 40   : 			{	// construct a node with value

  00000	8b 54 24 08	 mov	 edx, DWORD PTR __Parg$[esp-4]
  00004	8b c1		 mov	 eax, ecx
  00006	8b 4c 24 04	 mov	 ecx, DWORD PTR __Larg$[esp-4]
  0000a	89 08		 mov	 DWORD PTR [eax], ecx
  0000c	8b 4c 24 0c	 mov	 ecx, DWORD PTR __Rarg$[esp-4]
  00010	89 48 08	 mov	 DWORD PTR [eax+8], ecx
  00013	8b 4c 24 10	 mov	 ecx, DWORD PTR __Val$[esp-4]
  00017	89 50 04	 mov	 DWORD PTR [eax+4], edx
  0001a	8b 11		 mov	 edx, DWORD PTR [ecx]
  0001c	89 50 0c	 mov	 DWORD PTR [eax+12], edx
  0001f	8b 49 04	 mov	 ecx, DWORD PTR [ecx+4]
  00022	8a 54 24 14	 mov	 dl, BYTE PTR __Carg$[esp-4]
  00026	89 48 10	 mov	 DWORD PTR [eax+16], ecx
  00029	88 50 14	 mov	 BYTE PTR [eax+20], dl
  0002c	c6 40 15 00	 mov	 BYTE PTR [eax+21], 0

; 41   : 			}

  00030	c2 14 00	 ret	 20			; 00000014H
??0_Node@?$_Tree_nod@V?$_Tmap_traits@EPAU__TAXDETAIL@@U?$less@E@std@@V?$allocator@U?$pair@$$CBEPAU__TAXDETAIL@@@std@@@3@$0A@@std@@@std@@QAE@PAU012@00ABU?$pair@$$CBEPAU__TAXDETAIL@@@2@D@Z ENDP ; std::_Tree_nod<std::_Tmap_traits<unsigned char,__TAXDETAIL *,std::less<unsigned char>,std::allocator<std::pair<unsigned char const ,__TAXDETAIL *> >,0> >::_Node::_Node
_TEXT	ENDS
PUBLIC	??0_Node@?$_Tree_nod@V?$_Tmap_traits@EPAU__TAXINFO@@U?$less@E@std@@V?$allocator@U?$pair@$$CBEPAU__TAXINFO@@@std@@@3@$0A@@std@@@std@@QAE@PAU012@00ABU?$pair@$$CBEPAU__TAXINFO@@@2@D@Z ; std::_Tree_nod<std::_Tmap_traits<unsigned char,__TAXINFO *,std::less<unsigned char>,std::allocator<std::pair<unsigned char const ,__TAXINFO *> >,0> >::_Node::_Node
; Function compile flags: /Ogty
;	COMDAT ??0_Node@?$_Tree_nod@V?$_Tmap_traits@EPAU__TAXINFO@@U?$less@E@std@@V?$allocator@U?$pair@$$CBEPAU__TAXINFO@@@std@@@3@$0A@@std@@@std@@QAE@PAU012@00ABU?$pair@$$CBEPAU__TAXINFO@@@2@D@Z
_TEXT	SEGMENT
__Larg$ = 8						; size = 4
__Parg$ = 12						; size = 4
__Rarg$ = 16						; size = 4
__Val$ = 20						; size = 4
__Carg$ = 24						; size = 1
??0_Node@?$_Tree_nod@V?$_Tmap_traits@EPAU__TAXINFO@@U?$less@E@std@@V?$allocator@U?$pair@$$CBEPAU__TAXINFO@@@std@@@3@$0A@@std@@@std@@QAE@PAU012@00ABU?$pair@$$CBEPAU__TAXINFO@@@2@D@Z PROC NEAR ; std::_Tree_nod<std::_Tmap_traits<unsigned char,__TAXINFO *,std::less<unsigned char>,std::allocator<std::pair<unsigned char const ,__TAXINFO *> >,0> >::_Node::_Node, COMDAT
; _this$ = ecx

; 40   : 			{	// construct a node with value

  00000	8b 54 24 08	 mov	 edx, DWORD PTR __Parg$[esp-4]
  00004	8b c1		 mov	 eax, ecx
  00006	8b 4c 24 04	 mov	 ecx, DWORD PTR __Larg$[esp-4]
  0000a	89 08		 mov	 DWORD PTR [eax], ecx
  0000c	8b 4c 24 0c	 mov	 ecx, DWORD PTR __Rarg$[esp-4]
  00010	89 48 08	 mov	 DWORD PTR [eax+8], ecx
  00013	8b 4c 24 10	 mov	 ecx, DWORD PTR __Val$[esp-4]
  00017	89 50 04	 mov	 DWORD PTR [eax+4], edx
  0001a	8b 11		 mov	 edx, DWORD PTR [ecx]
  0001c	89 50 0c	 mov	 DWORD PTR [eax+12], edx
  0001f	8b 49 04	 mov	 ecx, DWORD PTR [ecx+4]
  00022	8a 54 24 14	 mov	 dl, BYTE PTR __Carg$[esp-4]
  00026	89 48 10	 mov	 DWORD PTR [eax+16], ecx
  00029	88 50 14	 mov	 BYTE PTR [eax+20], dl
  0002c	c6 40 15 00	 mov	 BYTE PTR [eax+21], 0

; 41   : 			}

  00030	c2 14 00	 ret	 20			; 00000014H
??0_Node@?$_Tree_nod@V?$_Tmap_traits@EPAU__TAXINFO@@U?$less@E@std@@V?$allocator@U?$pair@$$CBEPAU__TAXINFO@@@std@@@3@$0A@@std@@@std@@QAE@PAU012@00ABU?$pair@$$CBEPAU__TAXINFO@@@2@D@Z ENDP ; std::_Tree_nod<std::_Tmap_traits<unsigned char,__TAXINFO *,std::less<unsigned char>,std::allocator<std::pair<unsigned char const ,__TAXINFO *> >,0> >::_Node::_Node
_TEXT	ENDS
PUBLIC	?_Max@?$_Tree@V?$_Tmap_traits@EPAU__TAXDETAIL@@U?$less@E@std@@V?$allocator@U?$pair@$$CBEPAU__TAXDETAIL@@@std@@@3@$0A@@std@@@std@@KAPAU_Node@?$_Tree_nod@V?$_Tmap_traits@EPAU__TAXDETAIL@@U?$less@E@std@@V?$allocator@U?$pair@$$CBEPAU__TAXDETAIL@@@std@@@3@$0A@@std@@@2@PAU342@@Z ; std::_Tree<std::_Tmap_traits<unsigned char,__TAXDETAIL *,std::less<unsigned char>,std::allocator<std::pair<unsigned char const ,__TAXDETAIL *> >,0> >::_Max
; Function compile flags: /Ogty
;	COMDAT ?_Max@?$_Tree@V?$_Tmap_traits@EPAU__TAXDETAIL@@U?$less@E@std@@V?$allocator@U?$pair@$$CBEPAU__TAXDETAIL@@@std@@@3@$0A@@std@@@std@@KAPAU_Node@?$_Tree_nod@V?$_Tmap_traits@EPAU__TAXDETAIL@@U?$less@E@std@@V?$allocator@U?$pair@$$CBEPAU__TAXDETAIL@@@std@@@3@$0A@@std@@@2@PAU342@@Z
_TEXT	SEGMENT
__Pnode$ = 8						; size = 4
?_Max@?$_Tree@V?$_Tmap_traits@EPAU__TAXDETAIL@@U?$less@E@std@@V?$allocator@U?$pair@$$CBEPAU__TAXDETAIL@@@std@@@3@$0A@@std@@@std@@KAPAU_Node@?$_Tree_nod@V?$_Tmap_traits@EPAU__TAXDETAIL@@U?$less@E@std@@V?$allocator@U?$pair@$$CBEPAU__TAXDETAIL@@@std@@@3@$0A@@std@@@2@PAU342@@Z PROC NEAR ; std::_Tree<std::_Tmap_traits<unsigned char,__TAXDETAIL *,std::less<unsigned char>,std::allocator<std::pair<unsigned char const ,__TAXDETAIL *> >,0> >::_Max, COMDAT

; 1035 : 		while (!_Isnil(_Right(_Pnode)))

  00000	8b 44 24 04	 mov	 eax, DWORD PTR __Pnode$[esp-4]
  00004	8b 48 08	 mov	 ecx, DWORD PTR [eax+8]
  00007	8a 51 15	 mov	 dl, BYTE PTR [ecx+21]
  0000a	84 d2		 test	 dl, dl
  0000c	75 0e		 jne	 SHORT $L210013
  0000e	8b ff		 npad	 2
$L210012:

; 1036 : 			_Pnode = _Right(_Pnode);

  00010	8b c1		 mov	 eax, ecx
  00012	8b 48 08	 mov	 ecx, DWORD PTR [eax+8]
  00015	8a 51 15	 mov	 dl, BYTE PTR [ecx+21]
  00018	84 d2		 test	 dl, dl
  0001a	74 f4		 je	 SHORT $L210012
$L210013:

; 1037 : 		return (_Pnode);
; 1038 : 		}

  0001c	c3		 ret	 0
?_Max@?$_Tree@V?$_Tmap_traits@EPAU__TAXDETAIL@@U?$less@E@std@@V?$allocator@U?$pair@$$CBEPAU__TAXDETAIL@@@std@@@3@$0A@@std@@@std@@KAPAU_Node@?$_Tree_nod@V?$_Tmap_traits@EPAU__TAXDETAIL@@U?$less@E@std@@V?$allocator@U?$pair@$$CBEPAU__TAXDETAIL@@@std@@@3@$0A@@std@@@2@PAU342@@Z ENDP ; std::_Tree<std::_Tmap_traits<unsigned char,__TAXDETAIL *,std::less<unsigned char>,std::allocator<std::pair<unsigned char const ,__TAXDETAIL *> >,0> >::_Max
_TEXT	ENDS
PUBLIC	?_Min@?$_Tree@V?$_Tmap_traits@EPAU__TAXDETAIL@@U?$less@E@std@@V?$allocator@U?$pair@$$CBEPAU__TAXDETAIL@@@std@@@3@$0A@@std@@@std@@KAPAU_Node@?$_Tree_nod@V?$_Tmap_traits@EPAU__TAXDETAIL@@U?$less@E@std@@V?$allocator@U?$pair@$$CBEPAU__TAXDETAIL@@@std@@@3@$0A@@std@@@2@PAU342@@Z ; std::_Tree<std::_Tmap_traits<unsigned char,__TAXDETAIL *,std::less<unsigned char>,std::allocator<std::pair<unsigned char const ,__TAXDETAIL *> >,0> >::_Min
; Function compile flags: /Ogty
;	COMDAT ?_Min@?$_Tree@V?$_Tmap_traits@EPAU__TAXDETAIL@@U?$less@E@std@@V?$allocator@U?$pair@$$CBEPAU__TAXDETAIL@@@std@@@3@$0A@@std@@@std@@KAPAU_Node@?$_Tree_nod@V?$_Tmap_traits@EPAU__TAXDETAIL@@U?$less@E@std@@V?$allocator@U?$pair@$$CBEPAU__TAXDETAIL@@@std@@@3@$0A@@std@@@2@PAU342@@Z
_TEXT	SEGMENT
__Pnode$ = 8						; size = 4
?_Min@?$_Tree@V?$_Tmap_traits@EPAU__TAXDETAIL@@U?$less@E@std@@V?$allocator@U?$pair@$$CBEPAU__TAXDETAIL@@@std@@@3@$0A@@std@@@std@@KAPAU_Node@?$_Tree_nod@V?$_Tmap_traits@EPAU__TAXDETAIL@@U?$less@E@std@@V?$allocator@U?$pair@$$CBEPAU__TAXDETAIL@@@std@@@3@$0A@@std@@@2@PAU342@@Z PROC NEAR ; std::_Tree<std::_Tmap_traits<unsigned char,__TAXDETAIL *,std::less<unsigned char>,std::allocator<std::pair<unsigned char const ,__TAXDETAIL *> >,0> >::_Min, COMDAT

; 1042 : 		while (!_Isnil(_Left(_Pnode)))

  00000	8b 44 24 04	 mov	 eax, DWORD PTR __Pnode$[esp-4]
  00004	8b 08		 mov	 ecx, DWORD PTR [eax]
  00006	8a 51 15	 mov	 dl, BYTE PTR [ecx+21]
  00009	84 d2		 test	 dl, dl
  0000b	75 0e		 jne	 SHORT $L210017
  0000d	8d 49 00	 npad	 3
$L210016:

; 1043 : 			_Pnode = _Left(_Pnode);

  00010	8b c1		 mov	 eax, ecx
  00012	8b 08		 mov	 ecx, DWORD PTR [eax]
  00014	8a 51 15	 mov	 dl, BYTE PTR [ecx+21]
  00017	84 d2		 test	 dl, dl
  00019	74 f5		 je	 SHORT $L210016
$L210017:

; 1044 : 		return (_Pnode);
; 1045 : 		}

  0001b	c3		 ret	 0
?_Min@?$_Tree@V?$_Tmap_traits@EPAU__TAXDETAIL@@U?$less@E@std@@V?$allocator@U?$pair@$$CBEPAU__TAXDETAIL@@@std@@@3@$0A@@std@@@std@@KAPAU_Node@?$_Tree_nod@V?$_Tmap_traits@EPAU__TAXDETAIL@@U?$less@E@std@@V?$allocator@U?$pair@$$CBEPAU__TAXDETAIL@@@std@@@3@$0A@@std@@@2@PAU342@@Z ENDP ; std::_Tree<std::_Tmap_traits<unsigned char,__TAXDETAIL *,std::less<unsigned char>,std::allocator<std::pair<unsigned char const ,__TAXDETAIL *> >,0> >::_Min
_TEXT	ENDS
PUBLIC	?_Max@?$_Tree@V?$_Tmap_traits@EPAU__TAXINFO@@U?$less@E@std@@V?$allocator@U?$pair@$$CBEPAU__TAXINFO@@@std@@@3@$0A@@std@@@std@@KAPAU_Node@?$_Tree_nod@V?$_Tmap_traits@EPAU__TAXINFO@@U?$less@E@std@@V?$allocator@U?$pair@$$CBEPAU__TAXINFO@@@std@@@3@$0A@@std@@@2@PAU342@@Z ; std::_Tree<std::_Tmap_traits<unsigned char,__TAXINFO *,std::less<unsigned char>,std::allocator<std::pair<unsigned char const ,__TAXINFO *> >,0> >::_Max
; Function compile flags: /Ogty
;	COMDAT ?_Max@?$_Tree@V?$_Tmap_traits@EPAU__TAXINFO@@U?$less@E@std@@V?$allocator@U?$pair@$$CBEPAU__TAXINFO@@@std@@@3@$0A@@std@@@std@@KAPAU_Node@?$_Tree_nod@V?$_Tmap_traits@EPAU__TAXINFO@@U?$less@E@std@@V?$allocator@U?$pair@$$CBEPAU__TAXINFO@@@std@@@3@$0A@@std@@@2@PAU342@@Z
_TEXT	SEGMENT
__Pnode$ = 8						; size = 4
?_Max@?$_Tree@V?$_Tmap_traits@EPAU__TAXINFO@@U?$less@E@std@@V?$allocator@U?$pair@$$CBEPAU__TAXINFO@@@std@@@3@$0A@@std@@@std@@KAPAU_Node@?$_Tree_nod@V?$_Tmap_traits@EPAU__TAXINFO@@U?$less@E@std@@V?$allocator@U?$pair@$$CBEPAU__TAXINFO@@@std@@@3@$0A@@std@@@2@PAU342@@Z PROC NEAR ; std::_Tree<std::_Tmap_traits<unsigned char,__TAXINFO *,std::less<unsigned char>,std::allocator<std::pair<unsigned char const ,__TAXINFO *> >,0> >::_Max, COMDAT

; 1035 : 		while (!_Isnil(_Right(_Pnode)))

  00000	8b 44 24 04	 mov	 eax, DWORD PTR __Pnode$[esp-4]
  00004	8b 48 08	 mov	 ecx, DWORD PTR [eax+8]
  00007	8a 51 15	 mov	 dl, BYTE PTR [ecx+21]
  0000a	84 d2		 test	 dl, dl
  0000c	75 0e		 jne	 SHORT $L210040
  0000e	8b ff		 npad	 2
$L210039:

; 1036 : 			_Pnode = _Right(_Pnode);

  00010	8b c1		 mov	 eax, ecx
  00012	8b 48 08	 mov	 ecx, DWORD PTR [eax+8]
  00015	8a 51 15	 mov	 dl, BYTE PTR [ecx+21]
  00018	84 d2		 test	 dl, dl
  0001a	74 f4		 je	 SHORT $L210039
$L210040:

; 1037 : 		return (_Pnode);
; 1038 : 		}

  0001c	c3		 ret	 0
?_Max@?$_Tree@V?$_Tmap_traits@EPAU__TAXINFO@@U?$less@E@std@@V?$allocator@U?$pair@$$CBEPAU__TAXINFO@@@std@@@3@$0A@@std@@@std@@KAPAU_Node@?$_Tree_nod@V?$_Tmap_traits@EPAU__TAXINFO@@U?$less@E@std@@V?$allocator@U?$pair@$$CBEPAU__TAXINFO@@@std@@@3@$0A@@std@@@2@PAU342@@Z ENDP ; std::_Tree<std::_Tmap_traits<unsigned char,__TAXINFO *,std::less<unsigned char>,std::allocator<std::pair<unsigned char const ,__TAXINFO *> >,0> >::_Max
_TEXT	ENDS
PUBLIC	?_Min@?$_Tree@V?$_Tmap_traits@EPAU__TAXINFO@@U?$less@E@std@@V?$allocator@U?$pair@$$CBEPAU__TAXINFO@@@std@@@3@$0A@@std@@@std@@KAPAU_Node@?$_Tree_nod@V?$_Tmap_traits@EPAU__TAXINFO@@U?$less@E@std@@V?$allocator@U?$pair@$$CBEPAU__TAXINFO@@@std@@@3@$0A@@std@@@2@PAU342@@Z ; std::_Tree<std::_Tmap_traits<unsigned char,__TAXINFO *,std::less<unsigned char>,std::allocator<std::pair<unsigned char const ,__TAXINFO *> >,0> >::_Min
; Function compile flags: /Ogty
;	COMDAT ?_Min@?$_Tree@V?$_Tmap_traits@EPAU__TAXINFO@@U?$less@E@std@@V?$allocator@U?$pair@$$CBEPAU__TAXINFO@@@std@@@3@$0A@@std@@@std@@KAPAU_Node@?$_Tree_nod@V?$_Tmap_traits@EPAU__TAXINFO@@U?$less@E@std@@V?$allocator@U?$pair@$$CBEPAU__TAXINFO@@@std@@@3@$0A@@std@@@2@PAU342@@Z
_TEXT	SEGMENT
__Pnode$ = 8						; size = 4
?_Min@?$_Tree@V?$_Tmap_traits@EPAU__TAXINFO@@U?$less@E@std@@V?$allocator@U?$pair@$$CBEPAU__TAXINFO@@@std@@@3@$0A@@std@@@std@@KAPAU_Node@?$_Tree_nod@V?$_Tmap_traits@EPAU__TAXINFO@@U?$less@E@std@@V?$allocator@U?$pair@$$CBEPAU__TAXINFO@@@std@@@3@$0A@@std@@@2@PAU342@@Z PROC NEAR ; std::_Tree<std::_Tmap_traits<unsigned char,__TAXINFO *,std::less<unsigned char>,std::allocator<std::pair<unsigned char const ,__TAXINFO *> >,0> >::_Min, COMDAT

; 1042 : 		while (!_Isnil(_Left(_Pnode)))

  00000	8b 44 24 04	 mov	 eax, DWORD PTR __Pnode$[esp-4]
  00004	8b 08		 mov	 ecx, DWORD PTR [eax]
  00006	8a 51 15	 mov	 dl, BYTE PTR [ecx+21]
  00009	84 d2		 test	 dl, dl
  0000b	75 0e		 jne	 SHORT $L210044
  0000d	8d 49 00	 npad	 3
$L210043:

; 1043 : 			_Pnode = _Left(_Pnode);

  00010	8b c1		 mov	 eax, ecx
  00012	8b 08		 mov	 ecx, DWORD PTR [eax]
  00014	8a 51 15	 mov	 dl, BYTE PTR [ecx+21]
  00017	84 d2		 test	 dl, dl
  00019	74 f5		 je	 SHORT $L210043
$L210044:

; 1044 : 		return (_Pnode);
; 1045 : 		}

  0001b	c3		 ret	 0
?_Min@?$_Tree@V?$_Tmap_traits@EPAU__TAXINFO@@U?$less@E@std@@V?$allocator@U?$pair@$$CBEPAU__TAXINFO@@@std@@@3@$0A@@std@@@std@@KAPAU_Node@?$_Tree_nod@V?$_Tmap_traits@EPAU__TAXINFO@@U?$less@E@std@@V?$allocator@U?$pair@$$CBEPAU__TAXINFO@@@std@@@3@$0A@@std@@@2@PAU342@@Z ENDP ; std::_Tree<std::_Tmap_traits<unsigned char,__TAXINFO *,std::less<unsigned char>,std::allocator<std::pair<unsigned char const ,__TAXINFO *> >,0> >::_Min
_TEXT	ENDS
PUBLIC	??0?$_Tmap_traits@EPAU__TAXDETAIL@@U?$less@E@std@@V?$allocator@U?$pair@$$CBEPAU__TAXDETAIL@@@std@@@3@$0A@@std@@QAE@U?$less@E@1@@Z ; std::_Tmap_traits<unsigned char,__TAXDETAIL *,std::less<unsigned char>,std::allocator<std::pair<unsigned char const ,__TAXDETAIL *> >,0>::_Tmap_traits<unsigned char,__TAXDETAIL *,std::less<unsigned char>,std::allocator<std::pair<unsigned char const ,__TAXDETAIL *> >,0>
; Function compile flags: /Ogty
; File c:\program files\microsoft visual studio .net 2003\vc7\include\map
;	COMDAT ??0?$_Tmap_traits@EPAU__TAXDETAIL@@U?$less@E@std@@V?$allocator@U?$pair@$$CBEPAU__TAXDETAIL@@@std@@@3@$0A@@std@@QAE@U?$less@E@1@@Z
_TEXT	SEGMENT
__Parg$ = 8						; size = 1
??0?$_Tmap_traits@EPAU__TAXDETAIL@@U?$less@E@std@@V?$allocator@U?$pair@$$CBEPAU__TAXDETAIL@@@std@@@3@$0A@@std@@QAE@U?$less@E@1@@Z PROC NEAR ; std::_Tmap_traits<unsigned char,__TAXDETAIL *,std::less<unsigned char>,std::allocator<std::pair<unsigned char const ,__TAXDETAIL *> >,0>::_Tmap_traits<unsigned char,__TAXDETAIL *,std::less<unsigned char>,std::allocator<std::pair<unsigned char const ,__TAXDETAIL *> >,0>, COMDAT
; _this$ = ecx

; 38   : 		{	// construct with specified comparator

  00000	8b c1		 mov	 eax, ecx

; 39   : 		}

  00002	c2 04 00	 ret	 4
??0?$_Tmap_traits@EPAU__TAXDETAIL@@U?$less@E@std@@V?$allocator@U?$pair@$$CBEPAU__TAXDETAIL@@@std@@@3@$0A@@std@@QAE@U?$less@E@1@@Z ENDP ; std::_Tmap_traits<unsigned char,__TAXDETAIL *,std::less<unsigned char>,std::allocator<std::pair<unsigned char const ,__TAXDETAIL *> >,0>::_Tmap_traits<unsigned char,__TAXDETAIL *,std::less<unsigned char>,std::allocator<std::pair<unsigned char const ,__TAXDETAIL *> >,0>
_TEXT	ENDS
PUBLIC	??0?$_Tmap_traits@EPAU__TAXINFO@@U?$less@E@std@@V?$allocator@U?$pair@$$CBEPAU__TAXINFO@@@std@@@3@$0A@@std@@QAE@U?$less@E@1@@Z ; std::_Tmap_traits<unsigned char,__TAXINFO *,std::less<unsigned char>,std::allocator<std::pair<unsigned char const ,__TAXINFO *> >,0>::_Tmap_traits<unsigned char,__TAXINFO *,std::less<unsigned char>,std::allocator<std::pair<unsigned char const ,__TAXINFO *> >,0>
; Function compile flags: /Ogty
;	COMDAT ??0?$_Tmap_traits@EPAU__TAXINFO@@U?$less@E@std@@V?$allocator@U?$pair@$$CBEPAU__TAXINFO@@@std@@@3@$0A@@std@@QAE@U?$less@E@1@@Z
_TEXT	SEGMENT
__Parg$ = 8						; size = 1
??0?$_Tmap_traits@EPAU__TAXINFO@@U?$less@E@std@@V?$allocator@U?$pair@$$CBEPAU__TAXINFO@@@std@@@3@$0A@@std@@QAE@U?$less@E@1@@Z PROC NEAR ; std::_Tmap_traits<unsigned char,__TAXINFO *,std::less<unsigned char>,std::allocator<std::pair<unsigned char const ,__TAXINFO *> >,0>::_Tmap_traits<unsigned char,__TAXINFO *,std::less<unsigned char>,std::allocator<std::pair<unsigned char const ,__TAXINFO *> >,0>, COMDAT
; _this$ = ecx

; 38   : 		{	// construct with specified comparator

  00000	8b c1		 mov	 eax, ecx

; 39   : 		}

  00002	c2 04 00	 ret	 4
??0?$_Tmap_traits@EPAU__TAXINFO@@U?$less@E@std@@V?$allocator@U?$pair@$$CBEPAU__TAXINFO@@@std@@@3@$0A@@std@@QAE@U?$less@E@1@@Z ENDP ; std::_Tmap_traits<unsigned char,__TAXINFO *,std::less<unsigned char>,std::allocator<std::pair<unsigned char const ,__TAXINFO *> >,0>::_Tmap_traits<unsigned char,__TAXINFO *,std::less<unsigned char>,std::allocator<std::pair<unsigned char const ,__TAXINFO *> >,0>
_TEXT	ENDS
PUBLIC	??$_Destroy_range@KV?$allocator@K@std@@@std@@YAXPAK0AAV?$allocator@K@0@U_Scalar_ptr_iterator_tag@0@@Z ; std::_Destroy_range<unsigned long,std::allocator<unsigned long> >
; Function compile flags: /Ogty
; File c:\program files\microsoft visual studio .net 2003\vc7\include\xmemory
;	COMDAT ??$_Destroy_range@KV?$allocator@K@std@@@std@@YAXPAK0AAV?$allocator@K@0@U_Scalar_ptr_iterator_tag@0@@Z
_TEXT	SEGMENT
__First$ = 8						; size = 4
__Last$ = 12						; size = 4
__Al$ = 16						; size = 4
___formal$ = 20						; size = 1
??$_Destroy_range@KV?$allocator@K@std@@@std@@YAXPAK0AAV?$allocator@K@0@U_Scalar_ptr_iterator_tag@0@@Z PROC NEAR ; std::_Destroy_range<unsigned long,std::allocator<unsigned long> >, COMDAT

; 234  : 	}

  00000	c3		 ret	 0
??$_Destroy_range@KV?$allocator@K@std@@@std@@YAXPAK0AAV?$allocator@K@0@U_Scalar_ptr_iterator_tag@0@@Z ENDP ; std::_Destroy_range<unsigned long,std::allocator<unsigned long> >
_TEXT	ENDS
PUBLIC	??$?0EPAU__TAXDETAIL@@@?$pair@$$CBEPAU__TAXDETAIL@@@std@@QAE@ABU?$pair@EPAU__TAXDETAIL@@@1@@Z ; std::pair<unsigned char const ,__TAXDETAIL *>::pair<unsigned char const ,__TAXDETAIL *><unsigned char,__TAXDETAIL *>
; Function compile flags: /Ogty
; File c:\program files\microsoft visual studio .net 2003\vc7\include\utility
;	COMDAT ??$?0EPAU__TAXDETAIL@@@?$pair@$$CBEPAU__TAXDETAIL@@@std@@QAE@ABU?$pair@EPAU__TAXDETAIL@@@1@@Z
_TEXT	SEGMENT
__Right$ = 8						; size = 4
??$?0EPAU__TAXDETAIL@@@?$pair@$$CBEPAU__TAXDETAIL@@@std@@QAE@ABU?$pair@EPAU__TAXDETAIL@@@1@@Z PROC NEAR ; std::pair<unsigned char const ,__TAXDETAIL *>::pair<unsigned char const ,__TAXDETAIL *><unsigned char,__TAXDETAIL *>, COMDAT
; _this$ = ecx

; 41   : 		{	// construct from compatible pair

  00000	8b c1		 mov	 eax, ecx
  00002	8b 4c 24 04	 mov	 ecx, DWORD PTR __Right$[esp-4]
  00006	8a 11		 mov	 dl, BYTE PTR [ecx]
  00008	88 10		 mov	 BYTE PTR [eax], dl
  0000a	8b 49 04	 mov	 ecx, DWORD PTR [ecx+4]
  0000d	89 48 04	 mov	 DWORD PTR [eax+4], ecx

; 42   : 		}

  00010	c2 04 00	 ret	 4
??$?0EPAU__TAXDETAIL@@@?$pair@$$CBEPAU__TAXDETAIL@@@std@@QAE@ABU?$pair@EPAU__TAXDETAIL@@@1@@Z ENDP ; std::pair<unsigned char const ,__TAXDETAIL *>::pair<unsigned char const ,__TAXDETAIL *><unsigned char,__TAXDETAIL *>
_TEXT	ENDS
PUBLIC	??$?0HPAU__TAXINFO@@@?$pair@$$CBEPAU__TAXINFO@@@std@@QAE@ABU?$pair@HPAU__TAXINFO@@@1@@Z ; std::pair<unsigned char const ,__TAXINFO *>::pair<unsigned char const ,__TAXINFO *><int,__TAXINFO *>
; Function compile flags: /Ogty
;	COMDAT ??$?0HPAU__TAXINFO@@@?$pair@$$CBEPAU__TAXINFO@@@std@@QAE@ABU?$pair@HPAU__TAXINFO@@@1@@Z
_TEXT	SEGMENT
__Right$ = 8						; size = 4
??$?0HPAU__TAXINFO@@@?$pair@$$CBEPAU__TAXINFO@@@std@@QAE@ABU?$pair@HPAU__TAXINFO@@@1@@Z PROC NEAR ; std::pair<unsigned char const ,__TAXINFO *>::pair<unsigned char const ,__TAXINFO *><int,__TAXINFO *>, COMDAT
; _this$ = ecx

; 41   : 		{	// construct from compatible pair

  00000	8b c1		 mov	 eax, ecx
  00002	8b 4c 24 04	 mov	 ecx, DWORD PTR __Right$[esp-4]
  00006	8a 11		 mov	 dl, BYTE PTR [ecx]
  00008	88 10		 mov	 BYTE PTR [eax], dl
  0000a	8b 49 04	 mov	 ecx, DWORD PTR [ecx+4]
  0000d	89 48 04	 mov	 DWORD PTR [eax+4], ecx

; 42   : 		}

  00010	c2 04 00	 ret	 4
??$?0HPAU__TAXINFO@@@?$pair@$$CBEPAU__TAXINFO@@@std@@QAE@ABU?$pair@HPAU__TAXINFO@@@1@@Z ENDP ; std::pair<unsigned char const ,__TAXINFO *>::pair<unsigned char const ,__TAXINFO *><int,__TAXINFO *>
_TEXT	ENDS
PUBLIC	??$fill@PAKK@std@@YAXPAK0ABK@Z			; std::fill<unsigned long *,unsigned long>
; Function compile flags: /Ogty
; File c:\program files\microsoft visual studio .net 2003\vc7\include\xutility
;	COMDAT ??$fill@PAKK@std@@YAXPAK0ABK@Z
_TEXT	SEGMENT
__First$ = 8						; size = 4
__Last$ = 12						; size = 4
__Val$ = 16						; size = 4
??$fill@PAKK@std@@YAXPAK0ABK@Z PROC NEAR		; std::fill<unsigned long *,unsigned long>, COMDAT

; 1135 : 	for (; _First != _Last; ++_First)

  00000	8b 44 24 04	 mov	 eax, DWORD PTR __First$[esp-4]
  00004	8b 4c 24 08	 mov	 ecx, DWORD PTR __Last$[esp-4]
  00008	3b c1		 cmp	 eax, ecx
  0000a	74 11		 je	 SHORT $L210270
  0000c	8b 54 24 0c	 mov	 edx, DWORD PTR __Val$[esp-4]
  00010	56		 push	 esi
$L210268:

; 1136 : 		*_First = _Val;

  00011	8b 32		 mov	 esi, DWORD PTR [edx]
  00013	89 30		 mov	 DWORD PTR [eax], esi
  00015	83 c0 04	 add	 eax, 4
  00018	3b c1		 cmp	 eax, ecx
  0001a	75 f5		 jne	 SHORT $L210268
  0001c	5e		 pop	 esi
$L210270:

; 1137 : 	}

  0001d	c3		 ret	 0
??$fill@PAKK@std@@YAXPAK0ABK@Z ENDP			; std::fill<unsigned long *,unsigned long>
_TEXT	ENDS
PUBLIC	??$_Destroy@PAU_Node@?$_Tree_nod@V?$_Tmap_traits@EPAU__TAXDETAIL@@U?$less@E@std@@V?$allocator@U?$pair@$$CBEPAU__TAXDETAIL@@@std@@@3@$0A@@std@@@std@@@std@@YAXPAPAU_Node@?$_Tree_nod@V?$_Tmap_traits@EPAU__TAXDETAIL@@U?$less@E@std@@V?$allocator@U?$pair@$$CBEPAU__TAXDETAIL@@@std@@@3@$0A@@std@@@0@@Z ; std::_Destroy<std::_Tree_nod<std::_Tmap_traits<unsigned char,__TAXDETAIL *,std::less<unsigned char>,std::allocator<std::pair<unsigned char const ,__TAXDETAIL *> >,0> >::_Node *>
; Function compile flags: /Ogty
; File c:\program files\microsoft visual studio .net 2003\vc7\include\xmemory
;	COMDAT ??$_Destroy@PAU_Node@?$_Tree_nod@V?$_Tmap_traits@EPAU__TAXDETAIL@@U?$less@E@std@@V?$allocator@U?$pair@$$CBEPAU__TAXDETAIL@@@std@@@3@$0A@@std@@@std@@@std@@YAXPAPAU_Node@?$_Tree_nod@V?$_Tmap_traits@EPAU__TAXDETAIL@@U?$less@E@std@@V?$allocator@U?$pair@$$CBEPAU__TAXDETAIL@@@std@@@3@$0A@@std@@@0@@Z
_TEXT	SEGMENT
__Ptr$ = 8						; size = 4
??$_Destroy@PAU_Node@?$_Tree_nod@V?$_Tmap_traits@EPAU__TAXDETAIL@@U?$less@E@std@@V?$allocator@U?$pair@$$CBEPAU__TAXDETAIL@@@std@@@3@$0A@@std@@@std@@@std@@YAXPAPAU_Node@?$_Tree_nod@V?$_Tmap_traits@EPAU__TAXDETAIL@@U?$less@E@std@@V?$allocator@U?$pair@$$CBEPAU__TAXDETAIL@@@std@@@3@$0A@@std@@@0@@Z PROC NEAR ; std::_Destroy<std::_Tree_nod<std::_Tmap_traits<unsigned char,__TAXDETAIL *,std::less<unsigned char>,std::allocator<std::pair<unsigned char const ,__TAXDETAIL *> >,0> >::_Node *>, COMDAT

; 49   : 	_DESTRUCTOR(_Ty, _Ptr);
; 50   : 	}

  00000	c3		 ret	 0
??$_Destroy@PAU_Node@?$_Tree_nod@V?$_Tmap_traits@EPAU__TAXDETAIL@@U?$less@E@std@@V?$allocator@U?$pair@$$CBEPAU__TAXDETAIL@@@std@@@3@$0A@@std@@@std@@@std@@YAXPAPAU_Node@?$_Tree_nod@V?$_Tmap_traits@EPAU__TAXDETAIL@@U?$less@E@std@@V?$allocator@U?$pair@$$CBEPAU__TAXDETAIL@@@std@@@3@$0A@@std@@@0@@Z ENDP ; std::_Destroy<std::_Tree_nod<std::_Tmap_traits<unsigned char,__TAXDETAIL *,std::less<unsigned char>,std::allocator<std::pair<unsigned char const ,__TAXDETAIL *> >,0> >::_Node *>
_TEXT	ENDS
PUBLIC	??$_Destroy@U_Node@?$_Tree_nod@V?$_Tmap_traits@EPAU__TAXINFO@@U?$less@E@std@@V?$allocator@U?$pair@$$CBEPAU__TAXINFO@@@std@@@3@$0A@@std@@@std@@@std@@YAXPAU_Node@?$_Tree_nod@V?$_Tmap_traits@EPAU__TAXINFO@@U?$less@E@std@@V?$allocator@U?$pair@$$CBEPAU__TAXINFO@@@std@@@3@$0A@@std@@@0@@Z ; std::_Destroy<std::_Tree_nod<std::_Tmap_traits<unsigned char,__TAXINFO *,std::less<unsigned char>,std::allocator<std::pair<unsigned char const ,__TAXINFO *> >,0> >::_Node>
; Function compile flags: /Ogty
;	COMDAT ??$_Destroy@U_Node@?$_Tree_nod@V?$_Tmap_traits@EPAU__TAXINFO@@U?$less@E@std@@V?$allocator@U?$pair@$$CBEPAU__TAXINFO@@@std@@@3@$0A@@std@@@std@@@std@@YAXPAU_Node@?$_Tree_nod@V?$_Tmap_traits@EPAU__TAXINFO@@U?$less@E@std@@V?$allocator@U?$pair@$$CBEPAU__TAXINFO@@@std@@@3@$0A@@std@@@0@@Z
_TEXT	SEGMENT
__Ptr$ = 8						; size = 4
??$_Destroy@U_Node@?$_Tree_nod@V?$_Tmap_traits@EPAU__TAXINFO@@U?$less@E@std@@V?$allocator@U?$pair@$$CBEPAU__TAXINFO@@@std@@@3@$0A@@std@@@std@@@std@@YAXPAU_Node@?$_Tree_nod@V?$_Tmap_traits@EPAU__TAXINFO@@U?$less@E@std@@V?$allocator@U?$pair@$$CBEPAU__TAXINFO@@@std@@@3@$0A@@std@@@0@@Z PROC NEAR ; std::_Destroy<std::_Tree_nod<std::_Tmap_traits<unsigned char,__TAXINFO *,std::less<unsigned char>,std::allocator<std::pair<unsigned char const ,__TAXINFO *> >,0> >::_Node>, COMDAT

; 49   : 	_DESTRUCTOR(_Ty, _Ptr);
; 50   : 	}

  00000	c3		 ret	 0
??$_Destroy@U_Node@?$_Tree_nod@V?$_Tmap_traits@EPAU__TAXINFO@@U?$less@E@std@@V?$allocator@U?$pair@$$CBEPAU__TAXINFO@@@std@@@3@$0A@@std@@@std@@@std@@YAXPAU_Node@?$_Tree_nod@V?$_Tmap_traits@EPAU__TAXINFO@@U?$less@E@std@@V?$allocator@U?$pair@$$CBEPAU__TAXINFO@@@std@@@3@$0A@@std@@@0@@Z ENDP ; std::_Destroy<std::_Tree_nod<std::_Tmap_traits<unsigned char,__TAXINFO *,std::less<unsigned char>,std::allocator<std::pair<unsigned char const ,__TAXINFO *> >,0> >::_Node>
_TEXT	ENDS
PUBLIC	??$_Destroy@PAU_Node@?$_Tree_nod@V?$_Tmap_traits@EPAU__TAXINFO@@U?$less@E@std@@V?$allocator@U?$pair@$$CBEPAU__TAXINFO@@@std@@@3@$0A@@std@@@std@@@std@@YAXPAPAU_Node@?$_Tree_nod@V?$_Tmap_traits@EPAU__TAXINFO@@U?$less@E@std@@V?$allocator@U?$pair@$$CBEPAU__TAXINFO@@@std@@@3@$0A@@std@@@0@@Z ; std::_Destroy<std::_Tree_nod<std::_Tmap_traits<unsigned char,__TAXINFO *,std::less<unsigned char>,std::allocator<std::pair<unsigned char const ,__TAXINFO *> >,0> >::_Node *>
; Function compile flags: /Ogty
;	COMDAT ??$_Destroy@PAU_Node@?$_Tree_nod@V?$_Tmap_traits@EPAU__TAXINFO@@U?$less@E@std@@V?$allocator@U?$pair@$$CBEPAU__TAXINFO@@@std@@@3@$0A@@std@@@std@@@std@@YAXPAPAU_Node@?$_Tree_nod@V?$_Tmap_traits@EPAU__TAXINFO@@U?$less@E@std@@V?$allocator@U?$pair@$$CBEPAU__TAXINFO@@@std@@@3@$0A@@std@@@0@@Z
_TEXT	SEGMENT
__Ptr$ = 8						; size = 4
??$_Destroy@PAU_Node@?$_Tree_nod@V?$_Tmap_traits@EPAU__TAXINFO@@U?$less@E@std@@V?$allocator@U?$pair@$$CBEPAU__TAXINFO@@@std@@@3@$0A@@std@@@std@@@std@@YAXPAPAU_Node@?$_Tree_nod@V?$_Tmap_traits@EPAU__TAXINFO@@U?$less@E@std@@V?$allocator@U?$pair@$$CBEPAU__TAXINFO@@@std@@@3@$0A@@std@@@0@@Z PROC NEAR ; std::_Destroy<std::_Tree_nod<std::_Tmap_traits<unsigned char,__TAXINFO *,std::less<unsigned char>,std::allocator<std::pair<unsigned char const ,__TAXINFO *> >,0> >::_Node *>, COMDAT

; 49   : 	_DESTRUCTOR(_Ty, _Ptr);
; 50   : 	}

  00000	c3		 ret	 0
??$_Destroy@PAU_Node@?$_Tree_nod@V?$_Tmap_traits@EPAU__TAXINFO@@U?$less@E@std@@V?$allocator@U?$pair@$$CBEPAU__TAXINFO@@@std@@@3@$0A@@std@@@std@@@std@@YAXPAPAU_Node@?$_Tree_nod@V?$_Tmap_traits@EPAU__TAXINFO@@U?$less@E@std@@V?$allocator@U?$pair@$$CBEPAU__TAXINFO@@@std@@@3@$0A@@std@@@0@@Z ENDP ; std::_Destroy<std::_Tree_nod<std::_Tmap_traits<unsigned char,__TAXINFO *,std::less<unsigned char>,std::allocator<std::pair<unsigned char const ,__TAXINFO *> >,0> >::_Node *>
_TEXT	ENDS
PUBLIC	??$?0U?$pair@$$CBEPAU__TAXDETAIL@@@std@@@?$allocator@PAU_Node@?$_Tree_nod@V?$_Tmap_traits@EPAU__TAXDETAIL@@U?$less@E@std@@V?$allocator@U?$pair@$$CBEPAU__TAXDETAIL@@@std@@@3@$0A@@std@@@std@@@std@@QAE@ABV?$allocator@U?$pair@$$CBEPAU__TAXDETAIL@@@std@@@1@@Z ; std::allocator<std::_Tree_nod<std::_Tmap_traits<unsigned char,__TAXDETAIL *,std::less<unsigned char>,std::allocator<std::pair<unsigned char const ,__TAXDETAIL *> >,0> >::_Node *>::allocator<std::_Tree_nod<std::_Tmap_traits<unsigned char,__TAXDETAIL *,std::less<unsigned char>,std::allocator<std::pair<unsigned char const ,__TAXDETAIL *> >,0> >::_Node *><std::pair<unsigned char const ,__TAXDETAIL *> >
; Function compile flags: /Ogty
;	COMDAT ??$?0U?$pair@$$CBEPAU__TAXDETAIL@@@std@@@?$allocator@PAU_Node@?$_Tree_nod@V?$_Tmap_traits@EPAU__TAXDETAIL@@U?$less@E@std@@V?$allocator@U?$pair@$$CBEPAU__TAXDETAIL@@@std@@@3@$0A@@std@@@std@@@std@@QAE@ABV?$allocator@U?$pair@$$CBEPAU__TAXDETAIL@@@std@@@1@@Z
_TEXT	SEGMENT
___formal$ = 8						; size = 4
??$?0U?$pair@$$CBEPAU__TAXDETAIL@@@std@@@?$allocator@PAU_Node@?$_Tree_nod@V?$_Tmap_traits@EPAU__TAXDETAIL@@U?$less@E@std@@V?$allocator@U?$pair@$$CBEPAU__TAXDETAIL@@@std@@@3@$0A@@std@@@std@@@std@@QAE@ABV?$allocator@U?$pair@$$CBEPAU__TAXDETAIL@@@std@@@1@@Z PROC NEAR ; std::allocator<std::_Tree_nod<std::_Tmap_traits<unsigned char,__TAXDETAIL *,std::less<unsigned char>,std::allocator<std::pair<unsigned char const ,__TAXDETAIL *> >,0> >::_Node *>::allocator<std::_Tree_nod<std::_Tmap_traits<unsigned char,__TAXDETAIL *,std::less<unsigned char>,std::allocator<std::pair<unsigned char const ,__TAXDETAIL *> >,0> >::_Node *><std::pair<unsigned char const ,__TAXDETAIL *> >, COMDAT
; _this$ = ecx

; 120  : 		allocator(const allocator<_Other>&)

  00000	8b c1		 mov	 eax, ecx

; 121  : 		{	// construct from a related allocator (do nothing)
; 122  : 		}

  00002	c2 04 00	 ret	 4
??$?0U?$pair@$$CBEPAU__TAXDETAIL@@@std@@@?$allocator@PAU_Node@?$_Tree_nod@V?$_Tmap_traits@EPAU__TAXDETAIL@@U?$less@E@std@@V?$allocator@U?$pair@$$CBEPAU__TAXDETAIL@@@std@@@3@$0A@@std@@@std@@@std@@QAE@ABV?$allocator@U?$pair@$$CBEPAU__TAXDETAIL@@@std@@@1@@Z ENDP ; std::allocator<std::_Tree_nod<std::_Tmap_traits<unsigned char,__TAXDETAIL *,std::less<unsigned char>,std::allocator<std::pair<unsigned char const ,__TAXDETAIL *> >,0> >::_Node *>::allocator<std::_Tree_nod<std::_Tmap_traits<unsigned char,__TAXDETAIL *,std::less<unsigned char>,std::allocator<std::pair<unsigned char const ,__TAXDETAIL *> >,0> >::_Node *><std::pair<unsigned char const ,__TAXDETAIL *> >
_TEXT	ENDS
PUBLIC	??$_Allocate@U_Node@?$_Tree_nod@V?$_Tmap_traits@EPAU__TAXDETAIL@@U?$less@E@std@@V?$allocator@U?$pair@$$CBEPAU__TAXDETAIL@@@std@@@3@$0A@@std@@@std@@@std@@YAPAU_Node@?$_Tree_nod@V?$_Tmap_traits@EPAU__TAXDETAIL@@U?$less@E@std@@V?$allocator@U?$pair@$$CBEPAU__TAXDETAIL@@@std@@@3@$0A@@std@@@0@IPAU120@@Z ; std::_Allocate<std::_Tree_nod<std::_Tmap_traits<unsigned char,__TAXDETAIL *,std::less<unsigned char>,std::allocator<std::pair<unsigned char const ,__TAXDETAIL *> >,0> >::_Node>
EXTRN	??2@YAPAXI@Z:NEAR				; operator new
; Function compile flags: /Ogty
;	COMDAT ??$_Allocate@U_Node@?$_Tree_nod@V?$_Tmap_traits@EPAU__TAXDETAIL@@U?$less@E@std@@V?$allocator@U?$pair@$$CBEPAU__TAXDETAIL@@@std@@@3@$0A@@std@@@std@@@std@@YAPAU_Node@?$_Tree_nod@V?$_Tmap_traits@EPAU__TAXDETAIL@@U?$less@E@std@@V?$allocator@U?$pair@$$CBEPAU__TAXDETAIL@@@std@@@3@$0A@@std@@@0@IPAU120@@Z
_TEXT	SEGMENT
__Count$ = 8						; size = 4
___formal$ = 12						; size = 4
??$_Allocate@U_Node@?$_Tree_nod@V?$_Tmap_traits@EPAU__TAXDETAIL@@U?$less@E@std@@V?$allocator@U?$pair@$$CBEPAU__TAXDETAIL@@@std@@@3@$0A@@std@@@std@@@std@@YAPAU_Node@?$_Tree_nod@V?$_Tmap_traits@EPAU__TAXDETAIL@@U?$less@E@std@@V?$allocator@U?$pair@$$CBEPAU__TAXDETAIL@@@std@@@3@$0A@@std@@@0@IPAU120@@Z PROC NEAR ; std::_Allocate<std::_Tree_nod<std::_Tmap_traits<unsigned char,__TAXDETAIL *,std::less<unsigned char>,std::allocator<std::pair<unsigned char const ,__TAXDETAIL *> >,0> >::_Node>, COMDAT

; 34   : 	return ((_Ty _FARQ *)operator new(_Count * sizeof (_Ty)));

  00000	8b 44 24 04	 mov	 eax, DWORD PTR __Count$[esp-4]
  00004	8d 04 40	 lea	 eax, DWORD PTR [eax+eax*2]
  00007	c1 e0 03	 shl	 eax, 3
  0000a	50		 push	 eax
  0000b	e8 00 00 00 00	 call	 ??2@YAPAXI@Z		; operator new
  00010	83 c4 04	 add	 esp, 4

; 35   : 	}

  00013	c3		 ret	 0
??$_Allocate@U_Node@?$_Tree_nod@V?$_Tmap_traits@EPAU__TAXDETAIL@@U?$less@E@std@@V?$allocator@U?$pair@$$CBEPAU__TAXDETAIL@@@std@@@3@$0A@@std@@@std@@@std@@YAPAU_Node@?$_Tree_nod@V?$_Tmap_traits@EPAU__TAXDETAIL@@U?$less@E@std@@V?$allocator@U?$pair@$$CBEPAU__TAXDETAIL@@@std@@@3@$0A@@std@@@0@IPAU120@@Z ENDP ; std::_Allocate<std::_Tree_nod<std::_Tmap_traits<unsigned char,__TAXDETAIL *,std::less<unsigned char>,std::allocator<std::pair<unsigned char const ,__TAXDETAIL *> >,0> >::_Node>
_TEXT	ENDS
PUBLIC	??$?0U?$pair@$$CBEPAU__TAXINFO@@@std@@@?$allocator@PAU_Node@?$_Tree_nod@V?$_Tmap_traits@EPAU__TAXINFO@@U?$less@E@std@@V?$allocator@U?$pair@$$CBEPAU__TAXINFO@@@std@@@3@$0A@@std@@@std@@@std@@QAE@ABV?$allocator@U?$pair@$$CBEPAU__TAXINFO@@@std@@@1@@Z ; std::allocator<std::_Tree_nod<std::_Tmap_traits<unsigned char,__TAXINFO *,std::less<unsigned char>,std::allocator<std::pair<unsigned char const ,__TAXINFO *> >,0> >::_Node *>::allocator<std::_Tree_nod<std::_Tmap_traits<unsigned char,__TAXINFO *,std::less<unsigned char>,std::allocator<std::pair<unsigned char const ,__TAXINFO *> >,0> >::_Node *><std::pair<unsigned char const ,__TAXINFO *> >
; Function compile flags: /Ogty
;	COMDAT ??$?0U?$pair@$$CBEPAU__TAXINFO@@@std@@@?$allocator@PAU_Node@?$_Tree_nod@V?$_Tmap_traits@EPAU__TAXINFO@@U?$less@E@std@@V?$allocator@U?$pair@$$CBEPAU__TAXINFO@@@std@@@3@$0A@@std@@@std@@@std@@QAE@ABV?$allocator@U?$pair@$$CBEPAU__TAXINFO@@@std@@@1@@Z
_TEXT	SEGMENT
___formal$ = 8						; size = 4
??$?0U?$pair@$$CBEPAU__TAXINFO@@@std@@@?$allocator@PAU_Node@?$_Tree_nod@V?$_Tmap_traits@EPAU__TAXINFO@@U?$less@E@std@@V?$allocator@U?$pair@$$CBEPAU__TAXINFO@@@std@@@3@$0A@@std@@@std@@@std@@QAE@ABV?$allocator@U?$pair@$$CBEPAU__TAXINFO@@@std@@@1@@Z PROC NEAR ; std::allocator<std::_Tree_nod<std::_Tmap_traits<unsigned char,__TAXINFO *,std::less<unsigned char>,std::allocator<std::pair<unsigned char const ,__TAXINFO *> >,0> >::_Node *>::allocator<std::_Tree_nod<std::_Tmap_traits<unsigned char,__TAXINFO *,std::less<unsigned char>,std::allocator<std::pair<unsigned char const ,__TAXINFO *> >,0> >::_Node *><std::pair<unsigned char const ,__TAXINFO *> >, COMDAT
; _this$ = ecx

; 120  : 		allocator(const allocator<_Other>&)

  00000	8b c1		 mov	 eax, ecx

; 121  : 		{	// construct from a related allocator (do nothing)
; 122  : 		}

  00002	c2 04 00	 ret	 4
??$?0U?$pair@$$CBEPAU__TAXINFO@@@std@@@?$allocator@PAU_Node@?$_Tree_nod@V?$_Tmap_traits@EPAU__TAXINFO@@U?$less@E@std@@V?$allocator@U?$pair@$$CBEPAU__TAXINFO@@@std@@@3@$0A@@std@@@std@@@std@@QAE@ABV?$allocator@U?$pair@$$CBEPAU__TAXINFO@@@std@@@1@@Z ENDP ; std::allocator<std::_Tree_nod<std::_Tmap_traits<unsigned char,__TAXINFO *,std::less<unsigned char>,std::allocator<std::pair<unsigned char const ,__TAXINFO *> >,0> >::_Node *>::allocator<std::_Tree_nod<std::_Tmap_traits<unsigned char,__TAXINFO *,std::less<unsigned char>,std::allocator<std::pair<unsigned char const ,__TAXINFO *> >,0> >::_Node *><std::pair<unsigned char const ,__TAXINFO *> >
_TEXT	ENDS
PUBLIC	??$_Allocate@U_Node@?$_Tree_nod@V?$_Tmap_traits@EPAU__TAXINFO@@U?$less@E@std@@V?$allocator@U?$pair@$$CBEPAU__TAXINFO@@@std@@@3@$0A@@std@@@std@@@std@@YAPAU_Node@?$_Tree_nod@V?$_Tmap_traits@EPAU__TAXINFO@@U?$less@E@std@@V?$allocator@U?$pair@$$CBEPAU__TAXINFO@@@std@@@3@$0A@@std@@@0@IPAU120@@Z ; std::_Allocate<std::_Tree_nod<std::_Tmap_traits<unsigned char,__TAXINFO *,std::less<unsigned char>,std::allocator<std::pair<unsigned char const ,__TAXINFO *> >,0> >::_Node>
; Function compile flags: /Ogty
;	COMDAT ??$_Allocate@U_Node@?$_Tree_nod@V?$_Tmap_traits@EPAU__TAXINFO@@U?$less@E@std@@V?$allocator@U?$pair@$$CBEPAU__TAXINFO@@@std@@@3@$0A@@std@@@std@@@std@@YAPAU_Node@?$_Tree_nod@V?$_Tmap_traits@EPAU__TAXINFO@@U?$less@E@std@@V?$allocator@U?$pair@$$CBEPAU__TAXINFO@@@std@@@3@$0A@@std@@@0@IPAU120@@Z
_TEXT	SEGMENT
__Count$ = 8						; size = 4
___formal$ = 12						; size = 4
??$_Allocate@U_Node@?$_Tree_nod@V?$_Tmap_traits@EPAU__TAXINFO@@U?$less@E@std@@V?$allocator@U?$pair@$$CBEPAU__TAXINFO@@@std@@@3@$0A@@std@@@std@@@std@@YAPAU_Node@?$_Tree_nod@V?$_Tmap_traits@EPAU__TAXINFO@@U?$less@E@std@@V?$allocator@U?$pair@$$CBEPAU__TAXINFO@@@std@@@3@$0A@@std@@@0@IPAU120@@Z PROC NEAR ; std::_Allocate<std::_Tree_nod<std::_Tmap_traits<unsigned char,__TAXINFO *,std::less<unsigned char>,std::allocator<std::pair<unsigned char const ,__TAXINFO *> >,0> >::_Node>, COMDAT

; 34   : 	return ((_Ty _FARQ *)operator new(_Count * sizeof (_Ty)));

  00000	8b 44 24 04	 mov	 eax, DWORD PTR __Count$[esp-4]
  00004	8d 04 40	 lea	 eax, DWORD PTR [eax+eax*2]
  00007	c1 e0 03	 shl	 eax, 3
  0000a	50		 push	 eax
  0000b	e8 00 00 00 00	 call	 ??2@YAPAXI@Z		; operator new
  00010	83 c4 04	 add	 esp, 4

; 35   : 	}

  00013	c3		 ret	 0
??$_Allocate@U_Node@?$_Tree_nod@V?$_Tmap_traits@EPAU__TAXINFO@@U?$less@E@std@@V?$allocator@U?$pair@$$CBEPAU__TAXINFO@@@std@@@3@$0A@@std@@@std@@@std@@YAPAU_Node@?$_Tree_nod@V?$_Tmap_traits@EPAU__TAXINFO@@U?$less@E@std@@V?$allocator@U?$pair@$$CBEPAU__TAXINFO@@@std@@@3@$0A@@std@@@0@IPAU120@@Z ENDP ; std::_Allocate<std::_Tree_nod<std::_Tmap_traits<unsigned char,__TAXINFO *,std::less<unsigned char>,std::allocator<std::pair<unsigned char const ,__TAXINFO *> >,0> >::_Node>
_TEXT	ENDS
PUBLIC	??$?0U?$pair@$$CBEPAU__TAXDETAIL@@@std@@@?$allocator@U_Node@?$_Tree_nod@V?$_Tmap_traits@EPAU__TAXDETAIL@@U?$less@E@std@@V?$allocator@U?$pair@$$CBEPAU__TAXDETAIL@@@std@@@3@$0A@@std@@@std@@@std@@QAE@ABV?$allocator@U?$pair@$$CBEPAU__TAXDETAIL@@@std@@@1@@Z ; std::allocator<std::_Tree_nod<std::_Tmap_traits<unsigned char,__TAXDETAIL *,std::less<unsigned char>,std::allocator<std::pair<unsigned char const ,__TAXDETAIL *> >,0> >::_Node>::allocator<std::_Tree_nod<std::_Tmap_traits<unsigned char,__TAXDETAIL *,std::less<unsigned char>,std::allocator<std::pair<unsigned char const ,__TAXDETAIL *> >,0> >::_Node><std::pair<unsigned char const ,__TAXDETAIL *> >
; Function compile flags: /Ogty
;	COMDAT ??$?0U?$pair@$$CBEPAU__TAXDETAIL@@@std@@@?$allocator@U_Node@?$_Tree_nod@V?$_Tmap_traits@EPAU__TAXDETAIL@@U?$less@E@std@@V?$allocator@U?$pair@$$CBEPAU__TAXDETAIL@@@std@@@3@$0A@@std@@@std@@@std@@QAE@ABV?$allocator@U?$pair@$$CBEPAU__TAXDETAIL@@@std@@@1@@Z
_TEXT	SEGMENT
___formal$ = 8						; size = 4
??$?0U?$pair@$$CBEPAU__TAXDETAIL@@@std@@@?$allocator@U_Node@?$_Tree_nod@V?$_Tmap_traits@EPAU__TAXDETAIL@@U?$less@E@std@@V?$allocator@U?$pair@$$CBEPAU__TAXDETAIL@@@std@@@3@$0A@@std@@@std@@@std@@QAE@ABV?$allocator@U?$pair@$$CBEPAU__TAXDETAIL@@@std@@@1@@Z PROC NEAR ; std::allocator<std::_Tree_nod<std::_Tmap_traits<unsigned char,__TAXDETAIL *,std::less<unsigned char>,std::allocator<std::pair<unsigned char const ,__TAXDETAIL *> >,0> >::_Node>::allocator<std::_Tree_nod<std::_Tmap_traits<unsigned char,__TAXDETAIL *,std::less<unsigned char>,std::allocator<std::pair<unsigned char const ,__TAXDETAIL *> >,0> >::_Node><std::pair<unsigned char const ,__TAXDETAIL *> >, COMDAT
; _this$ = ecx

; 120  : 		allocator(const allocator<_Other>&)

  00000	8b c1		 mov	 eax, ecx

; 121  : 		{	// construct from a related allocator (do nothing)
; 122  : 		}

  00002	c2 04 00	 ret	 4
??$?0U?$pair@$$CBEPAU__TAXDETAIL@@@std@@@?$allocator@U_Node@?$_Tree_nod@V?$_Tmap_traits@EPAU__TAXDETAIL@@U?$less@E@std@@V?$allocator@U?$pair@$$CBEPAU__TAXDETAIL@@@std@@@3@$0A@@std@@@std@@@std@@QAE@ABV?$allocator@U?$pair@$$CBEPAU__TAXDETAIL@@@std@@@1@@Z ENDP ; std::allocator<std::_Tree_nod<std::_Tmap_traits<unsigned char,__TAXDETAIL *,std::less<unsigned char>,std::allocator<std::pair<unsigned char const ,__TAXDETAIL *> >,0> >::_Node>::allocator<std::_Tree_nod<std::_Tmap_traits<unsigned char,__TAXDETAIL *,std::less<unsigned char>,std::allocator<std::pair<unsigned char const ,__TAXDETAIL *> >,0> >::_Node><std::pair<unsigned char const ,__TAXDETAIL *> >
_TEXT	ENDS
PUBLIC	??$_Destroy@U_Node@?$_Tree_nod@V?$_Tmap_traits@EPAU__TAXDETAIL@@U?$less@E@std@@V?$allocator@U?$pair@$$CBEPAU__TAXDETAIL@@@std@@@3@$0A@@std@@@std@@@std@@YAXPAU_Node@?$_Tree_nod@V?$_Tmap_traits@EPAU__TAXDETAIL@@U?$less@E@std@@V?$allocator@U?$pair@$$CBEPAU__TAXDETAIL@@@std@@@3@$0A@@std@@@0@@Z ; std::_Destroy<std::_Tree_nod<std::_Tmap_traits<unsigned char,__TAXDETAIL *,std::less<unsigned char>,std::allocator<std::pair<unsigned char const ,__TAXDETAIL *> >,0> >::_Node>
; Function compile flags: /Ogty
;	COMDAT ??$_Destroy@U_Node@?$_Tree_nod@V?$_Tmap_traits@EPAU__TAXDETAIL@@U?$less@E@std@@V?$allocator@U?$pair@$$CBEPAU__TAXDETAIL@@@std@@@3@$0A@@std@@@std@@@std@@YAXPAU_Node@?$_Tree_nod@V?$_Tmap_traits@EPAU__TAXDETAIL@@U?$less@E@std@@V?$allocator@U?$pair@$$CBEPAU__TAXDETAIL@@@std@@@3@$0A@@std@@@0@@Z
_TEXT	SEGMENT
__Ptr$ = 8						; size = 4
??$_Destroy@U_Node@?$_Tree_nod@V?$_Tmap_traits@EPAU__TAXDETAIL@@U?$less@E@std@@V?$allocator@U?$pair@$$CBEPAU__TAXDETAIL@@@std@@@3@$0A@@std@@@std@@@std@@YAXPAU_Node@?$_Tree_nod@V?$_Tmap_traits@EPAU__TAXDETAIL@@U?$less@E@std@@V?$allocator@U?$pair@$$CBEPAU__TAXDETAIL@@@std@@@3@$0A@@std@@@0@@Z PROC NEAR ; std::_Destroy<std::_Tree_nod<std::_Tmap_traits<unsigned char,__TAXDETAIL *,std::less<unsigned char>,std::allocator<std::pair<unsigned char const ,__TAXDETAIL *> >,0> >::_Node>, COMDAT

; 49   : 	_DESTRUCTOR(_Ty, _Ptr);
; 50   : 	}

  00000	c3		 ret	 0
??$_Destroy@U_Node@?$_Tree_nod@V?$_Tmap_traits@EPAU__TAXDETAIL@@U?$less@E@std@@V?$allocator@U?$pair@$$CBEPAU__TAXDETAIL@@@std@@@3@$0A@@std@@@std@@@std@@YAXPAU_Node@?$_Tree_nod@V?$_Tmap_traits@EPAU__TAXDETAIL@@U?$less@E@std@@V?$allocator@U?$pair@$$CBEPAU__TAXDETAIL@@@std@@@3@$0A@@std@@@0@@Z ENDP ; std::_Destroy<std::_Tree_nod<std::_Tmap_traits<unsigned char,__TAXDETAIL *,std::less<unsigned char>,std::allocator<std::pair<unsigned char const ,__TAXDETAIL *> >,0> >::_Node>
_TEXT	ENDS
PUBLIC	??$_Construct@PAU_Node@?$_Tree_nod@V?$_Tmap_traits@EPAU__TAXDETAIL@@U?$less@E@std@@V?$allocator@U?$pair@$$CBEPAU__TAXDETAIL@@@std@@@3@$0A@@std@@@std@@PAU123@@std@@YAXPAPAU_Node@?$_Tree_nod@V?$_Tmap_traits@EPAU__TAXDETAIL@@U?$less@E@std@@V?$allocator@U?$pair@$$CBEPAU__TAXDETAIL@@@std@@@3@$0A@@std@@@0@ABQAU120@@Z ; std::_Construct<std::_Tree_nod<std::_Tmap_traits<unsigned char,__TAXDETAIL *,std::less<unsigned char>,std::allocator<std::pair<unsigned char const ,__TAXDETAIL *> >,0> >::_Node *,std::_Tree_nod<std::_Tmap_traits<unsigned char,__TAXDETAIL *,std::less<unsigned char>,std::allocator<std::pair<unsigned char const ,__TAXDETAIL *> >,0> >::_Node *>
; Function compile flags: /Ogty
;	COMDAT ??$_Construct@PAU_Node@?$_Tree_nod@V?$_Tmap_traits@EPAU__TAXDETAIL@@U?$less@E@std@@V?$allocator@U?$pair@$$CBEPAU__TAXDETAIL@@@std@@@3@$0A@@std@@@std@@PAU123@@std@@YAXPAPAU_Node@?$_Tree_nod@V?$_Tmap_traits@EPAU__TAXDETAIL@@U?$less@E@std@@V?$allocator@U?$pair@$$CBEPAU__TAXDETAIL@@@std@@@3@$0A@@std@@@0@ABQAU120@@Z
_TEXT	SEGMENT
__Ptr$ = 8						; size = 4
__Val$ = 12						; size = 4
??$_Construct@PAU_Node@?$_Tree_nod@V?$_Tmap_traits@EPAU__TAXDETAIL@@U?$less@E@std@@V?$allocator@U?$pair@$$CBEPAU__TAXDETAIL@@@std@@@3@$0A@@std@@@std@@PAU123@@std@@YAXPAPAU_Node@?$_Tree_nod@V?$_Tmap_traits@EPAU__TAXDETAIL@@U?$less@E@std@@V?$allocator@U?$pair@$$CBEPAU__TAXDETAIL@@@std@@@3@$0A@@std@@@0@ABQAU120@@Z PROC NEAR ; std::_Construct<std::_Tree_nod<std::_Tmap_traits<unsigned char,__TAXDETAIL *,std::less<unsigned char>,std::allocator<std::pair<unsigned char const ,__TAXDETAIL *> >,0> >::_Node *,std::_Tree_nod<std::_Tmap_traits<unsigned char,__TAXDETAIL *,std::less<unsigned char>,std::allocator<std::pair<unsigned char const ,__TAXDETAIL *> >,0> >::_Node *>, COMDAT

; 42   : 	new ((void _FARQ *)_Ptr) _T1(_Val);

  00000	8b 44 24 04	 mov	 eax, DWORD PTR __Ptr$[esp-4]
  00004	85 c0		 test	 eax, eax
  00006	74 08		 je	 SHORT $L211356
  00008	8b 4c 24 08	 mov	 ecx, DWORD PTR __Val$[esp-4]
  0000c	8b 11		 mov	 edx, DWORD PTR [ecx]
  0000e	89 10		 mov	 DWORD PTR [eax], edx
$L211356:

; 43   : 	}

  00010	c3		 ret	 0
??$_Construct@PAU_Node@?$_Tree_nod@V?$_Tmap_traits@EPAU__TAXDETAIL@@U?$less@E@std@@V?$allocator@U?$pair@$$CBEPAU__TAXDETAIL@@@std@@@3@$0A@@std@@@std@@PAU123@@std@@YAXPAPAU_Node@?$_Tree_nod@V?$_Tmap_traits@EPAU__TAXDETAIL@@U?$less@E@std@@V?$allocator@U?$pair@$$CBEPAU__TAXDETAIL@@@std@@@3@$0A@@std@@@0@ABQAU120@@Z ENDP ; std::_Construct<std::_Tree_nod<std::_Tmap_traits<unsigned char,__TAXDETAIL *,std::less<unsigned char>,std::allocator<std::pair<unsigned char const ,__TAXDETAIL *> >,0> >::_Node *,std::_Tree_nod<std::_Tmap_traits<unsigned char,__TAXDETAIL *,std::less<unsigned char>,std::allocator<std::pair<unsigned char const ,__TAXDETAIL *> >,0> >::_Node *>
_TEXT	ENDS
PUBLIC	??$?0U?$pair@$$CBEPAU__TAXINFO@@@std@@@?$allocator@U_Node@?$_Tree_nod@V?$_Tmap_traits@EPAU__TAXINFO@@U?$less@E@std@@V?$allocator@U?$pair@$$CBEPAU__TAXINFO@@@std@@@3@$0A@@std@@@std@@@std@@QAE@ABV?$allocator@U?$pair@$$CBEPAU__TAXINFO@@@std@@@1@@Z ; std::allocator<std::_Tree_nod<std::_Tmap_traits<unsigned char,__TAXINFO *,std::less<unsigned char>,std::allocator<std::pair<unsigned char const ,__TAXINFO *> >,0> >::_Node>::allocator<std::_Tree_nod<std::_Tmap_traits<unsigned char,__TAXINFO *,std::less<unsigned char>,std::allocator<std::pair<unsigned char const ,__TAXINFO *> >,0> >::_Node><std::pair<unsigned char const ,__TAXINFO *> >
; Function compile flags: /Ogty
;	COMDAT ??$?0U?$pair@$$CBEPAU__TAXINFO@@@std@@@?$allocator@U_Node@?$_Tree_nod@V?$_Tmap_traits@EPAU__TAXINFO@@U?$less@E@std@@V?$allocator@U?$pair@$$CBEPAU__TAXINFO@@@std@@@3@$0A@@std@@@std@@@std@@QAE@ABV?$allocator@U?$pair@$$CBEPAU__TAXINFO@@@std@@@1@@Z
_TEXT	SEGMENT
___formal$ = 8						; size = 4
??$?0U?$pair@$$CBEPAU__TAXINFO@@@std@@@?$allocator@U_Node@?$_Tree_nod@V?$_Tmap_traits@EPAU__TAXINFO@@U?$less@E@std@@V?$allocator@U?$pair@$$CBEPAU__TAXINFO@@@std@@@3@$0A@@std@@@std@@@std@@QAE@ABV?$allocator@U?$pair@$$CBEPAU__TAXINFO@@@std@@@1@@Z PROC NEAR ; std::allocator<std::_Tree_nod<std::_Tmap_traits<unsigned char,__TAXINFO *,std::less<unsigned char>,std::allocator<std::pair<unsigned char const ,__TAXINFO *> >,0> >::_Node>::allocator<std::_Tree_nod<std::_Tmap_traits<unsigned char,__TAXINFO *,std::less<unsigned char>,std::allocator<std::pair<unsigned char const ,__TAXINFO *> >,0> >::_Node><std::pair<unsigned char const ,__TAXINFO *> >, COMDAT
; _this$ = ecx

; 120  : 		allocator(const allocator<_Other>&)

  00000	8b c1		 mov	 eax, ecx

; 121  : 		{	// construct from a related allocator (do nothing)
; 122  : 		}

  00002	c2 04 00	 ret	 4
??$?0U?$pair@$$CBEPAU__TAXINFO@@@std@@@?$allocator@U_Node@?$_Tree_nod@V?$_Tmap_traits@EPAU__TAXINFO@@U?$less@E@std@@V?$allocator@U?$pair@$$CBEPAU__TAXINFO@@@std@@@3@$0A@@std@@@std@@@std@@QAE@ABV?$allocator@U?$pair@$$CBEPAU__TAXINFO@@@std@@@1@@Z ENDP ; std::allocator<std::_Tree_nod<std::_Tmap_traits<unsigned char,__TAXINFO *,std::less<unsigned char>,std::allocator<std::pair<unsigned char const ,__TAXINFO *> >,0> >::_Node>::allocator<std::_Tree_nod<std::_Tmap_traits<unsigned char,__TAXINFO *,std::less<unsigned char>,std::allocator<std::pair<unsigned char const ,__TAXINFO *> >,0> >::_Node><std::pair<unsigned char const ,__TAXINFO *> >
_TEXT	ENDS
PUBLIC	??$_Construct@PAU_Node@?$_Tree_nod@V?$_Tmap_traits@EPAU__TAXINFO@@U?$less@E@std@@V?$allocator@U?$pair@$$CBEPAU__TAXINFO@@@std@@@3@$0A@@std@@@std@@PAU123@@std@@YAXPAPAU_Node@?$_Tree_nod@V?$_Tmap_traits@EPAU__TAXINFO@@U?$less@E@std@@V?$allocator@U?$pair@$$CBEPAU__TAXINFO@@@std@@@3@$0A@@std@@@0@ABQAU120@@Z ; std::_Construct<std::_Tree_nod<std::_Tmap_traits<unsigned char,__TAXINFO *,std::less<unsigned char>,std::allocator<std::pair<unsigned char const ,__TAXINFO *> >,0> >::_Node *,std::_Tree_nod<std::_Tmap_traits<unsigned char,__TAXINFO *,std::less<unsigned char>,std::allocator<std::pair<unsigned char const ,__TAXINFO *> >,0> >::_Node *>
; Function compile flags: /Ogty
;	COMDAT ??$_Construct@PAU_Node@?$_Tree_nod@V?$_Tmap_traits@EPAU__TAXINFO@@U?$less@E@std@@V?$allocator@U?$pair@$$CBEPAU__TAXINFO@@@std@@@3@$0A@@std@@@std@@PAU123@@std@@YAXPAPAU_Node@?$_Tree_nod@V?$_Tmap_traits@EPAU__TAXINFO@@U?$less@E@std@@V?$allocator@U?$pair@$$CBEPAU__TAXINFO@@@std@@@3@$0A@@std@@@0@ABQAU120@@Z
_TEXT	SEGMENT
__Ptr$ = 8						; size = 4
__Val$ = 12						; size = 4
??$_Construct@PAU_Node@?$_Tree_nod@V?$_Tmap_traits@EPAU__TAXINFO@@U?$less@E@std@@V?$allocator@U?$pair@$$CBEPAU__TAXINFO@@@std@@@3@$0A@@std@@@std@@PAU123@@std@@YAXPAPAU_Node@?$_Tree_nod@V?$_Tmap_traits@EPAU__TAXINFO@@U?$less@E@std@@V?$allocator@U?$pair@$$CBEPAU__TAXINFO@@@std@@@3@$0A@@std@@@0@ABQAU120@@Z PROC NEAR ; std::_Construct<std::_Tree_nod<std::_Tmap_traits<unsigned char,__TAXINFO *,std::less<unsigned char>,std::allocator<std::pair<unsigned char const ,__TAXINFO *> >,0> >::_Node *,std::_Tree_nod<std::_Tmap_traits<unsigned char,__TAXINFO *,std::less<unsigned char>,std::allocator<std::pair<unsigned char const ,__TAXINFO *> >,0> >::_Node *>, COMDAT

; 42   : 	new ((void _FARQ *)_Ptr) _T1(_Val);

  00000	8b 44 24 04	 mov	 eax, DWORD PTR __Ptr$[esp-4]
  00004	85 c0		 test	 eax, eax
  00006	74 08		 je	 SHORT $L211366
  00008	8b 4c 24 08	 mov	 ecx, DWORD PTR __Val$[esp-4]
  0000c	8b 11		 mov	 edx, DWORD PTR [ecx]
  0000e	89 10		 mov	 DWORD PTR [eax], edx
$L211366:

; 43   : 	}

  00010	c3		 ret	 0
??$_Construct@PAU_Node@?$_Tree_nod@V?$_Tmap_traits@EPAU__TAXINFO@@U?$less@E@std@@V?$allocator@U?$pair@$$CBEPAU__TAXINFO@@@std@@@3@$0A@@std@@@std@@PAU123@@std@@YAXPAPAU_Node@?$_Tree_nod@V?$_Tmap_traits@EPAU__TAXINFO@@U?$less@E@std@@V?$allocator@U?$pair@$$CBEPAU__TAXINFO@@@std@@@3@$0A@@std@@@0@ABQAU120@@Z ENDP ; std::_Construct<std::_Tree_nod<std::_Tmap_traits<unsigned char,__TAXINFO *,std::less<unsigned char>,std::allocator<std::pair<unsigned char const ,__TAXINFO *> >,0> >::_Node *,std::_Tree_nod<std::_Tmap_traits<unsigned char,__TAXINFO *,std::less<unsigned char>,std::allocator<std::pair<unsigned char const ,__TAXINFO *> >,0> >::_Node *>
_TEXT	ENDS
PUBLIC	??0?$pair@EPAU__TAXDETAIL@@@std@@QAE@ABEABQAU__TAXDETAIL@@@Z ; std::pair<unsigned char,__TAXDETAIL *>::pair<unsigned char,__TAXDETAIL *>
; Function compile flags: /Ogty
; File c:\program files\microsoft visual studio .net 2003\vc7\include\utility
;	COMDAT ??0?$pair@EPAU__TAXDETAIL@@@std@@QAE@ABEABQAU__TAXDETAIL@@@Z
_TEXT	SEGMENT
__Val1$ = 8						; size = 4
__Val2$ = 12						; size = 4
??0?$pair@EPAU__TAXDETAIL@@@std@@QAE@ABEABQAU__TAXDETAIL@@@Z PROC NEAR ; std::pair<unsigned char,__TAXDETAIL *>::pair<unsigned char,__TAXDETAIL *>, COMDAT
; _this$ = ecx

; 34   : 		{	// construct from specified values

  00000	8b c1		 mov	 eax, ecx
  00002	8b 4c 24 04	 mov	 ecx, DWORD PTR __Val1$[esp-4]
  00006	8a 11		 mov	 dl, BYTE PTR [ecx]
  00008	8b 4c 24 08	 mov	 ecx, DWORD PTR __Val2$[esp-4]
  0000c	88 10		 mov	 BYTE PTR [eax], dl
  0000e	8b 11		 mov	 edx, DWORD PTR [ecx]
  00010	89 50 04	 mov	 DWORD PTR [eax+4], edx

; 35   : 		}

  00013	c2 08 00	 ret	 8
??0?$pair@EPAU__TAXDETAIL@@@std@@QAE@ABEABQAU__TAXDETAIL@@@Z ENDP ; std::pair<unsigned char,__TAXDETAIL *>::pair<unsigned char,__TAXDETAIL *>
_TEXT	ENDS
PUBLIC	??0?$pair@HPAU__TAXINFO@@@std@@QAE@ABHABQAU__TAXINFO@@@Z ; std::pair<int,__TAXINFO *>::pair<int,__TAXINFO *>
; Function compile flags: /Ogty
;	COMDAT ??0?$pair@HPAU__TAXINFO@@@std@@QAE@ABHABQAU__TAXINFO@@@Z
_TEXT	SEGMENT
__Val1$ = 8						; size = 4
__Val2$ = 12						; size = 4
??0?$pair@HPAU__TAXINFO@@@std@@QAE@ABHABQAU__TAXINFO@@@Z PROC NEAR ; std::pair<int,__TAXINFO *>::pair<int,__TAXINFO *>, COMDAT
; _this$ = ecx

; 34   : 		{	// construct from specified values

  00000	8b c1		 mov	 eax, ecx
  00002	8b 4c 24 04	 mov	 ecx, DWORD PTR __Val1$[esp-4]
  00006	8b 11		 mov	 edx, DWORD PTR [ecx]
  00008	8b 4c 24 08	 mov	 ecx, DWORD PTR __Val2$[esp-4]
  0000c	89 10		 mov	 DWORD PTR [eax], edx
  0000e	8b 11		 mov	 edx, DWORD PTR [ecx]
  00010	89 50 04	 mov	 DWORD PTR [eax+4], edx

; 35   : 		}

  00013	c2 08 00	 ret	 8
??0?$pair@HPAU__TAXINFO@@@std@@QAE@ABHABQAU__TAXINFO@@@Z ENDP ; std::pair<int,__TAXINFO *>::pair<int,__TAXINFO *>
_TEXT	ENDS
PUBLIC	??$_Copy_backward_opt@PAKPAK@std@@YAPAKPAK00U_Scalar_ptr_iterator_tag@0@@Z ; std::_Copy_backward_opt<unsigned long *,unsigned long *>
EXTRN	_memmove:NEAR
; Function compile flags: /Ogty
; File c:\program files\microsoft visual studio .net 2003\vc7\include\xutility
;	COMDAT ??$_Copy_backward_opt@PAKPAK@std@@YAPAKPAK00U_Scalar_ptr_iterator_tag@0@@Z
_TEXT	SEGMENT
__First$ = 8						; size = 4
__Last$ = 12						; size = 4
__Dest$ = 16						; size = 4
___formal$ = 20						; size = 1
??$_Copy_backward_opt@PAKPAK@std@@YAPAKPAK00U_Scalar_ptr_iterator_tag@0@@Z PROC NEAR ; std::_Copy_backward_opt<unsigned long *,unsigned long *>, COMDAT

; 1059 : 	ptrdiff_t _Off = _Last - _First;	// NB: non-overlapping move

  00000	8b 4c 24 04	 mov	 ecx, DWORD PTR __First$[esp-4]
  00004	8b 44 24 08	 mov	 eax, DWORD PTR __Last$[esp-4]
  00008	2b c1		 sub	 eax, ecx
  0000a	c1 f8 02	 sar	 eax, 2

; 1060 : 	return ((_OutIt)memmove(&*_Dest - _Off, &*_First,
; 1061 : 		_Off * sizeof (*_First)));

  0000d	c1 e0 02	 shl	 eax, 2
  00010	50		 push	 eax
  00011	51		 push	 ecx
  00012	8b 4c 24 14	 mov	 ecx, DWORD PTR __Dest$[esp+4]
  00016	2b c8		 sub	 ecx, eax
  00018	51		 push	 ecx
  00019	e8 00 00 00 00	 call	 _memmove
  0001e	83 c4 0c	 add	 esp, 12			; 0000000cH

; 1062 : 	}

  00021	c3		 ret	 0
??$_Copy_backward_opt@PAKPAK@std@@YAPAKPAK00U_Scalar_ptr_iterator_tag@0@@Z ENDP ; std::_Copy_backward_opt<unsigned long *,unsigned long *>
_TEXT	ENDS
PUBLIC	??$fill_n@PAKIK@std@@YAXPAKIABK@Z		; std::fill_n<unsigned long *,unsigned int,unsigned long>
; Function compile flags: /Ogty
;	COMDAT ??$fill_n@PAKIK@std@@YAXPAKIABK@Z
_TEXT	SEGMENT
__First$ = 8						; size = 4
__Count$ = 12						; size = 4
__Val$ = 16						; size = 4
??$fill_n@PAKIK@std@@YAXPAKIABK@Z PROC NEAR		; std::fill_n<unsigned long *,unsigned int,unsigned long>, COMDAT

; 1160 : 	for (; 0 < _Count; --_Count, ++_First)

  00000	8b 4c 24 08	 mov	 ecx, DWORD PTR __Count$[esp-4]
  00004	85 c9		 test	 ecx, ecx
  00006	76 14		 jbe	 SHORT $L210448
  00008	8b 54 24 0c	 mov	 edx, DWORD PTR __Val$[esp-4]
  0000c	8b 44 24 04	 mov	 eax, DWORD PTR __First$[esp-4]
  00010	56		 push	 esi
$L210446:

; 1161 : 		*_First = _Val;

  00011	8b 32		 mov	 esi, DWORD PTR [edx]
  00013	89 30		 mov	 DWORD PTR [eax], esi
  00015	83 c0 04	 add	 eax, 4
  00018	49		 dec	 ecx
  00019	75 f6		 jne	 SHORT $L210446
  0001b	5e		 pop	 esi
$L210448:

; 1162 : 	}

  0001c	c3		 ret	 0
??$fill_n@PAKIK@std@@YAXPAKIABK@Z ENDP			; std::fill_n<unsigned long *,unsigned int,unsigned long>
_TEXT	ENDS
PUBLIC	??$_Uninit_copy@KK@std@@YAPAKPAK00AAV?$allocator@K@0@U_Scalar_ptr_iterator_tag@0@@Z ; std::_Uninit_copy<unsigned long,unsigned long>
; Function compile flags: /Ogty
; File c:\program files\microsoft visual studio .net 2003\vc7\include\memory
;	COMDAT ??$_Uninit_copy@KK@std@@YAPAKPAK00AAV?$allocator@K@0@U_Scalar_ptr_iterator_tag@0@@Z
_TEXT	SEGMENT
__First$ = 8						; size = 4
__Last$ = 12						; size = 4
__Dest$ = 16						; size = 4
___formal$ = 20						; size = 4
___formal$ = 24						; size = 1
??$_Uninit_copy@KK@std@@YAPAKPAK00AAV?$allocator@K@0@U_Scalar_ptr_iterator_tag@0@@Z PROC NEAR ; std::_Uninit_copy<unsigned long,unsigned long>, COMDAT

; 106  : 	size_t _Count = (size_t)(_Last - _First);

  00000	8b 4c 24 04	 mov	 ecx, DWORD PTR __First$[esp-4]
  00004	8b 44 24 08	 mov	 eax, DWORD PTR __Last$[esp-4]
  00008	2b c1		 sub	 eax, ecx
  0000a	56		 push	 esi
  0000b	c1 f8 02	 sar	 eax, 2

; 107  : 	return ((_Ty2 *)memmove(&*_Dest, &*_First,
; 108  : 		_Count * sizeof (*_First)) + _Count);	// NB: non-overlapping move

  0000e	8d 34 85 00 00
	00 00		 lea	 esi, DWORD PTR [eax*4]
  00015	8b 44 24 10	 mov	 eax, DWORD PTR __Dest$[esp]
  00019	56		 push	 esi
  0001a	51		 push	 ecx
  0001b	50		 push	 eax
  0001c	e8 00 00 00 00	 call	 _memmove
  00021	83 c4 0c	 add	 esp, 12			; 0000000cH
  00024	03 c6		 add	 eax, esi
  00026	5e		 pop	 esi

; 109  : 	}

  00027	c3		 ret	 0
??$_Uninit_copy@KK@std@@YAPAKPAK00AAV?$allocator@K@0@U_Scalar_ptr_iterator_tag@0@@Z ENDP ; std::_Uninit_copy<unsigned long,unsigned long>
_TEXT	ENDS
PUBLIC	?assign@?$char_traits@D@std@@SAXAADABD@Z	; std::char_traits<char>::assign
; Function compile flags: /Ogty
; File c:\program files\microsoft visual studio .net 2003\vc7\include\iosfwd
;	COMDAT ?assign@?$char_traits@D@std@@SAXAADABD@Z
_TEXT	SEGMENT
__Left$ = 8						; size = 4
__Right$ = 12						; size = 4
?assign@?$char_traits@D@std@@SAXAADABD@Z PROC NEAR	; std::char_traits<char>::assign, COMDAT

; 331  : 		_Left = _Right;

  00000	8b 44 24 08	 mov	 eax, DWORD PTR __Right$[esp-4]
  00004	8a 08		 mov	 cl, BYTE PTR [eax]
  00006	8b 54 24 04	 mov	 edx, DWORD PTR __Left$[esp-4]
  0000a	88 0a		 mov	 BYTE PTR [edx], cl

; 332  : 		}

  0000c	c3		 ret	 0
?assign@?$char_traits@D@std@@SAXAADABD@Z ENDP		; std::char_traits<char>::assign
_TEXT	ENDS
PUBLIC	?length@?$char_traits@D@std@@SAIPBD@Z		; std::char_traits<char>::length
; Function compile flags: /Ogty
;	COMDAT ?length@?$char_traits@D@std@@SAIPBD@Z
_TEXT	SEGMENT
__First$ = 8						; size = 4
?length@?$char_traits@D@std@@SAIPBD@Z PROC NEAR		; std::char_traits<char>::length, COMDAT

; 352  : 		return (::strlen(_First));

  00000	8b 44 24 04	 mov	 eax, DWORD PTR __First$[esp-4]
  00004	8d 50 01	 lea	 edx, DWORD PTR [eax+1]
$L211387:
  00007	8a 08		 mov	 cl, BYTE PTR [eax]
  00009	40		 inc	 eax
  0000a	84 c9		 test	 cl, cl
  0000c	75 f9		 jne	 SHORT $L211387
  0000e	2b c2		 sub	 eax, edx

; 353  : 		}

  00010	c3		 ret	 0
?length@?$char_traits@D@std@@SAIPBD@Z ENDP		; std::char_traits<char>::length
_TEXT	ENDS
PUBLIC	?copy@?$char_traits@D@std@@SAPADPADPBDI@Z	; std::char_traits<char>::copy
; Function compile flags: /Ogty
;	COMDAT ?copy@?$char_traits@D@std@@SAPADPADPBDI@Z
_TEXT	SEGMENT
__First1$ = 8						; size = 4
__First2$ = 12						; size = 4
__Count$ = 16						; size = 4
?copy@?$char_traits@D@std@@SAPADPADPBDI@Z PROC NEAR	; std::char_traits<char>::copy, COMDAT

; 358  : 		return ((_Elem *)::memcpy(_First1, _First2, _Count));

  00000	8b 4c 24 0c	 mov	 ecx, DWORD PTR __Count$[esp-4]
  00004	56		 push	 esi
  00005	8b 74 24 0c	 mov	 esi, DWORD PTR __First2$[esp]
  00009	57		 push	 edi
  0000a	8b 7c 24 0c	 mov	 edi, DWORD PTR __First1$[esp+4]
  0000e	8b c1		 mov	 eax, ecx
  00010	8b d7		 mov	 edx, edi
  00012	c1 e9 02	 shr	 ecx, 2
  00015	f3 a5		 rep movsd
  00017	8b c8		 mov	 ecx, eax
  00019	83 e1 03	 and	 ecx, 3
  0001c	f3 a4		 rep movsb
  0001e	5f		 pop	 edi
  0001f	8b c2		 mov	 eax, edx
  00021	5e		 pop	 esi

; 359  : 		}

  00022	c3		 ret	 0
?copy@?$char_traits@D@std@@SAPADPADPBDI@Z ENDP		; std::char_traits<char>::copy
_TEXT	ENDS
PUBLIC	?move@?$char_traits@D@std@@SAPADPADPBDI@Z	; std::char_traits<char>::move
; Function compile flags: /Ogty
;	COMDAT ?move@?$char_traits@D@std@@SAPADPADPBDI@Z
_TEXT	SEGMENT
__First1$ = 8						; size = 4
__First2$ = 12						; size = 4
__Count$ = 16						; size = 4
?move@?$char_traits@D@std@@SAPADPADPBDI@Z PROC NEAR	; std::char_traits<char>::move, COMDAT

; 370  : 		return ((_Elem *)::memmove(_First1, _First2, _Count));

  00000	e9 00 00 00 00	 jmp	 _memmove
?move@?$char_traits@D@std@@SAPADPADPBDI@Z ENDP		; std::char_traits<char>::move
_TEXT	ENDS
PUBLIC	?_Ptr_cat@std@@YA?AU_Scalar_ptr_iterator_tag@1@PAK0@Z ; std::_Ptr_cat
; Function compile flags: /Ogty
; File c:\program files\microsoft visual studio .net 2003\vc7\include\xutility
;	COMDAT ?_Ptr_cat@std@@YA?AU_Scalar_ptr_iterator_tag@1@PAK0@Z
_TEXT	SEGMENT
__Cat$ = -1						; size = 1
___formal$ = 8						; size = 4
___formal$ = 12						; size = 4
?_Ptr_cat@std@@YA?AU_Scalar_ptr_iterator_tag@1@PAK0@Z PROC NEAR ; std::_Ptr_cat, COMDAT

; 371  : 	{	// return pointer category from pointer to unsigned long arguments

  00000	51		 push	 ecx

; 372  : 	_Scalar_ptr_iterator_tag _Cat;
; 373  : 	return (_Cat);

  00001	8a 44 24 03	 mov	 al, BYTE PTR __Cat$[esp+4]

; 374  : 	}

  00005	59		 pop	 ecx
  00006	c3		 ret	 0
?_Ptr_cat@std@@YA?AU_Scalar_ptr_iterator_tag@1@PAK0@Z ENDP ; std::_Ptr_cat
_TEXT	ENDS
PUBLIC	?time_null@@YAJXZ				; time_null
EXTRN	_time:NEAR
; Function compile flags: /Ogty
; File c:\documents and settings\test\mes documents\source\virtuos_v17\build\program\_network\cmnhdr.h
;	COMDAT ?time_null@@YAJXZ
_TEXT	SEGMENT
?time_null@@YAJXZ PROC NEAR				; time_null, COMDAT

; 702  : #if defined(__WORLDSERVER) || defined(__CLIENT)
; 703  : 	return	g_tCurrent;
; 704  : #else	//
; 705  : 	return time( NULL );

  00000	6a 00		 push	 0
  00002	e8 00 00 00 00	 call	 _time
  00007	83 c4 04	 add	 esp, 4

; 706  : #endif	//
; 707  : }

  0000a	c3		 ret	 0
?time_null@@YAJXZ ENDP					; time_null
_TEXT	ENDS
PUBLIC	?xRand@@YAKXZ					; xRand
EXTRN	?g_next@@3KA:DWORD				; g_next
; Function compile flags: /Ogty
; File c:\documents and settings\test\mes documents\source\virtuos_v17\build\program\_common\xutil.h
;	COMDAT ?xRand@@YAKXZ
_TEXT	SEGMENT
?xRand@@YAKXZ PROC NEAR					; xRand, COMDAT

; 16   : 	g_next = g_next * 1103515245 + 12345;// + nRandomSeed[ i++ ];

  00000	a1 00 00 00 00	 mov	 eax, DWORD PTR ?g_next@@3KA ; g_next
  00005	69 c0 6d 4e c6
	41		 imul	 eax, 1103515245		; 41c64e6dH
  0000b	05 39 30 00 00	 add	 eax, 12345		; 00003039H
  00010	a3 00 00 00 00	 mov	 DWORD PTR ?g_next@@3KA, eax ; g_next

; 17   : 	return g_next;	//   .
; 18   : }

  00015	c3		 ret	 0
?xRand@@YAKXZ ENDP					; xRand
_TEXT	ENDS
PUBLIC	?PushString@CLuaBase@@QAEXPBD@Z			; CLuaBase::PushString
EXTRN	_lua_pushstring:NEAR
; Function compile flags: /Ogty
; File c:\documents and settings\test\mes documents\source\virtuos_v17\build\program\_common\luabase.h
;	COMDAT ?PushString@CLuaBase@@QAEXPBD@Z
_TEXT	SEGMENT
_szValue$ = 8						; size = 4
?PushString@CLuaBase@@QAEXPBD@Z PROC NEAR		; CLuaBase::PushString, COMDAT
; _this$ = ecx

; 37   : 	void		PushString( const char* szValue )			{  lua_pushstring( m_pLuaState, szValue );  }

  00000	8b 44 24 04	 mov	 eax, DWORD PTR _szValue$[esp-4]
  00004	8b 49 04	 mov	 ecx, DWORD PTR [ecx+4]
  00007	50		 push	 eax
  00008	51		 push	 ecx
  00009	e8 00 00 00 00	 call	 _lua_pushstring
  0000e	83 c4 08	 add	 esp, 8
  00011	c2 04 00	 ret	 4
?PushString@CLuaBase@@QAEXPBD@Z ENDP			; CLuaBase::PushString
_TEXT	ENDS
PUBLIC	?PushNil@CLuaBase@@QAEXXZ			; CLuaBase::PushNil
EXTRN	_lua_pushnil:NEAR
; Function compile flags: /Ogty
;	COMDAT ?PushNil@CLuaBase@@QAEXXZ
_TEXT	SEGMENT
?PushNil@CLuaBase@@QAEXXZ PROC NEAR			; CLuaBase::PushNil, COMDAT
; _this$ = ecx

; 40   : 	void		PushNil()									{  lua_pushnil( m_pLuaState );  }

  00000	8b 41 04	 mov	 eax, DWORD PTR [ecx+4]
  00003	50		 push	 eax
  00004	e8 00 00 00 00	 call	 _lua_pushnil
  00009	59		 pop	 ecx
  0000a	c3		 ret	 0
?PushNil@CLuaBase@@QAEXXZ ENDP				; CLuaBase::PushNil
_TEXT	ENDS
PUBLIC	?ToString@CLuaBase@@QAEPBDH@Z			; CLuaBase::ToString
EXTRN	_lua_tolstring:NEAR
; Function compile flags: /Ogty
;	COMDAT ?ToString@CLuaBase@@QAEPBDH@Z
_TEXT	SEGMENT
_nStackPos$ = 8						; size = 4
?ToString@CLuaBase@@QAEPBDH@Z PROC NEAR			; CLuaBase::ToString, COMDAT
; _this$ = ecx

; 44   : 	const char*	ToString( int nStackPos )					{  return lua_tostring( m_pLuaState, nStackPos );  }

  00000	8b 44 24 04	 mov	 eax, DWORD PTR _nStackPos$[esp-4]
  00004	8b 49 04	 mov	 ecx, DWORD PTR [ecx+4]
  00007	6a 00		 push	 0
  00009	50		 push	 eax
  0000a	51		 push	 ecx
  0000b	e8 00 00 00 00	 call	 _lua_tolstring
  00010	83 c4 0c	 add	 esp, 12			; 0000000cH
  00013	c2 04 00	 ret	 4
?ToString@CLuaBase@@QAEPBDH@Z ENDP			; CLuaBase::ToString
_TEXT	ENDS
PUBLIC	?ToBool@CLuaBase@@QAEHH@Z			; CLuaBase::ToBool
EXTRN	_lua_toboolean:NEAR
; Function compile flags: /Ogty
;	COMDAT ?ToBool@CLuaBase@@QAEHH@Z
_TEXT	SEGMENT
_nStackPos$ = 8						; size = 4
?ToBool@CLuaBase@@QAEHH@Z PROC NEAR			; CLuaBase::ToBool, COMDAT
; _this$ = ecx

; 45   : 	BOOL		ToBool( int nStackPos )						{  return static_cast<BOOL>( lua_toboolean( m_pLuaState, nStackPos ) );  }

  00000	8b 44 24 04	 mov	 eax, DWORD PTR _nStackPos$[esp-4]
  00004	8b 49 04	 mov	 ecx, DWORD PTR [ecx+4]
  00007	50		 push	 eax
  00008	51		 push	 ecx
  00009	e8 00 00 00 00	 call	 _lua_toboolean
  0000e	83 c4 08	 add	 esp, 8
  00011	c2 04 00	 ret	 4
?ToBool@CLuaBase@@QAEHH@Z ENDP				; CLuaBase::ToBool
_TEXT	ENDS
PUBLIC	?TableLoop@CLuaBase@@QAEHH@Z			; CLuaBase::TableLoop
EXTRN	_lua_next:NEAR
; Function compile flags: /Ogty
;	COMDAT ?TableLoop@CLuaBase@@QAEHH@Z
_TEXT	SEGMENT
_nStackPos$ = 8						; size = 4
?TableLoop@CLuaBase@@QAEHH@Z PROC NEAR			; CLuaBase::TableLoop, COMDAT
; _this$ = ecx

; 46   : 	int			TableLoop( int nStackPos )					{  return lua_next( m_pLuaState, nStackPos );  }	

  00000	8b 44 24 04	 mov	 eax, DWORD PTR _nStackPos$[esp-4]
  00004	8b 49 04	 mov	 ecx, DWORD PTR [ecx+4]
  00007	50		 push	 eax
  00008	51		 push	 ecx
  00009	e8 00 00 00 00	 call	 _lua_next
  0000e	83 c4 08	 add	 esp, 8
  00011	c2 04 00	 ret	 4
?TableLoop@CLuaBase@@QAEHH@Z ENDP			; CLuaBase::TableLoop
_TEXT	ENDS
PUBLIC	?GetGloabal@CLuaBase@@QAEXPAD@Z			; CLuaBase::GetGloabal
EXTRN	_lua_getfield:NEAR
; Function compile flags: /Ogty
;	COMDAT ?GetGloabal@CLuaBase@@QAEXPAD@Z
_TEXT	SEGMENT
_szName$ = 8						; size = 4
?GetGloabal@CLuaBase@@QAEXPAD@Z PROC NEAR		; CLuaBase::GetGloabal, COMDAT
; _this$ = ecx

; 47   : 	void		GetGloabal( char* szName )					{  lua_getglobal( m_pLuaState, szName );  }

  00000	8b 44 24 04	 mov	 eax, DWORD PTR _szName$[esp-4]
  00004	8b 49 04	 mov	 ecx, DWORD PTR [ecx+4]
  00007	50		 push	 eax
  00008	68 ee d8 ff ff	 push	 -10002			; ffffd8eeH
  0000d	51		 push	 ecx
  0000e	e8 00 00 00 00	 call	 _lua_getfield
  00013	83 c4 0c	 add	 esp, 12			; 0000000cH
  00016	c2 04 00	 ret	 4
?GetGloabal@CLuaBase@@QAEXPAD@Z ENDP			; CLuaBase::GetGloabal
_TEXT	ENDS
PUBLIC	?IsStoring@CAr@@QBEHXZ				; CAr::IsStoring
; Function compile flags: /Ogty
; File c:\documents and settings\test\mes documents\source\virtuos_v17\build\program\_network\misc\include\ar.h
;	COMDAT ?IsStoring@CAr@@QBEHXZ
_TEXT	SEGMENT
?IsStoring@CAr@@QBEHXZ PROC NEAR			; CAr::IsStoring, COMDAT
; _this$ = ecx

; 96   : 	{ return (m_nMode & CAr::load) == 0; }

  00000	33 c0		 xor	 eax, eax
  00002	8a 01		 mov	 al, BYTE PTR [ecx]
  00004	f7 d0		 not	 eax
  00006	83 e0 01	 and	 eax, 1
  00009	c3		 ret	 0
?IsStoring@CAr@@QBEHXZ ENDP				; CAr::IsStoring
_TEXT	ENDS
PUBLIC	??6CAr@@QAEAAV0@E@Z				; CAr::operator<<
EXTRN	?CheckBuf@CAr@@QAEXI@Z:NEAR			; CAr::CheckBuf
; Function compile flags: /Ogty
;	COMDAT ??6CAr@@QAEAAV0@E@Z
_TEXT	SEGMENT
_by$ = 8						; size = 1
??6CAr@@QAEAAV0@E@Z PROC NEAR				; CAr::operator<<, COMDAT
; _this$ = ecx

; 107  : 	{ CheckBuf( sizeof(BYTE) );

  00000	56		 push	 esi
  00001	6a 01		 push	 1
  00003	8b f1		 mov	 esi, ecx
  00005	e8 00 00 00 00	 call	 ?CheckBuf@CAr@@QAEXI@Z	; CAr::CheckBuf

; 108  : 		*(UNALIGNED BYTE*)m_lpBufCur = by; m_lpBufCur += sizeof(BYTE); return *this; }

  0000a	8b 46 08	 mov	 eax, DWORD PTR [esi+8]
  0000d	8a 4c 24 08	 mov	 cl, BYTE PTR _by$[esp]
  00011	88 08		 mov	 BYTE PTR [eax], cl
  00013	ff 46 08	 inc	 DWORD PTR [esi+8]
  00016	8b c6		 mov	 eax, esi
  00018	5e		 pop	 esi
  00019	c2 04 00	 ret	 4
??6CAr@@QAEAAV0@E@Z ENDP				; CAr::operator<<
_TEXT	ENDS
PUBLIC	??6CAr@@QAEAAV0@J@Z				; CAr::operator<<
; Function compile flags: /Ogty
;	COMDAT ??6CAr@@QAEAAV0@J@Z
_TEXT	SEGMENT
_l$ = 8							; size = 4
??6CAr@@QAEAAV0@J@Z PROC NEAR				; CAr::operator<<, COMDAT
; _this$ = ecx

; 113  : 	{ CheckBuf( sizeof(LONG) );

  00000	56		 push	 esi
  00001	6a 04		 push	 4
  00003	8b f1		 mov	 esi, ecx
  00005	e8 00 00 00 00	 call	 ?CheckBuf@CAr@@QAEXI@Z	; CAr::CheckBuf

; 114  : 		*(UNALIGNED LONG*)m_lpBufCur = l; m_lpBufCur += sizeof(LONG); return *this; }

  0000a	8b 46 08	 mov	 eax, DWORD PTR [esi+8]
  0000d	8b 4c 24 08	 mov	 ecx, DWORD PTR _l$[esp]
  00011	89 08		 mov	 DWORD PTR [eax], ecx
  00013	83 46 08 04	 add	 DWORD PTR [esi+8], 4
  00017	8b c6		 mov	 eax, esi
  00019	5e		 pop	 esi
  0001a	c2 04 00	 ret	 4
??6CAr@@QAEAAV0@J@Z ENDP				; CAr::operator<<
_TEXT	ENDS
PUBLIC	??6CAr@@QAEAAV0@K@Z				; CAr::operator<<
; Function compile flags: /Ogty
;	COMDAT ??6CAr@@QAEAAV0@K@Z
_TEXT	SEGMENT
_dw$ = 8						; size = 4
??6CAr@@QAEAAV0@K@Z PROC NEAR				; CAr::operator<<, COMDAT
; _this$ = ecx

; 116  : 	{ CheckBuf( sizeof(DWORD) );

  00000	56		 push	 esi
  00001	6a 04		 push	 4
  00003	8b f1		 mov	 esi, ecx
  00005	e8 00 00 00 00	 call	 ?CheckBuf@CAr@@QAEXI@Z	; CAr::CheckBuf

; 117  : 		*(UNALIGNED DWORD*)m_lpBufCur = dw; m_lpBufCur += sizeof(DWORD); return *this; }

  0000a	8b 46 08	 mov	 eax, DWORD PTR [esi+8]
  0000d	8b 4c 24 08	 mov	 ecx, DWORD PTR _dw$[esp]
  00011	89 08		 mov	 DWORD PTR [eax], ecx
  00013	83 46 08 04	 add	 DWORD PTR [esi+8], 4
  00017	8b c6		 mov	 eax, esi
  00019	5e		 pop	 esi
  0001a	c2 04 00	 ret	 4
??6CAr@@QAEAAV0@K@Z ENDP				; CAr::operator<<
_TEXT	ENDS
PUBLIC	??5CAr@@QAEAAV0@AAE@Z				; CAr::operator>>
; Function compile flags: /Ogty
;	COMDAT ??5CAr@@QAEAAV0@AAE@Z
_TEXT	SEGMENT
_by$ = 8						; size = 4
??5CAr@@QAEAAV0@AAE@Z PROC NEAR				; CAr::operator>>, COMDAT
; _this$ = ecx

; 142  : 	{	CAR_SAFE_READ( BYTE, by );	}

  00000	8b c1		 mov	 eax, ecx
  00002	8b 48 08	 mov	 ecx, DWORD PTR [eax+8]
  00005	56		 push	 esi
  00006	8b 70 0c	 mov	 esi, DWORD PTR [eax+12]
  00009	8d 51 01	 lea	 edx, DWORD PTR [ecx+1]
  0000c	3b d6		 cmp	 edx, esi
  0000e	5e		 pop	 esi
  0000f	77 0e		 ja	 SHORT $L162848
  00011	8a 09		 mov	 cl, BYTE PTR [ecx]
  00013	8b 54 24 04	 mov	 edx, DWORD PTR _by$[esp-4]
  00017	88 0a		 mov	 BYTE PTR [edx], cl
  00019	ff 40 08	 inc	 DWORD PTR [eax+8]
  0001c	c2 04 00	 ret	 4
$L162848:
  0001f	8b 4c 24 04	 mov	 ecx, DWORD PTR _by$[esp-4]
  00023	c6 01 00	 mov	 BYTE PTR [ecx], 0
  00026	8b 50 0c	 mov	 edx, DWORD PTR [eax+12]
  00029	89 50 08	 mov	 DWORD PTR [eax+8], edx
  0002c	c2 04 00	 ret	 4
??5CAr@@QAEAAV0@AAE@Z ENDP				; CAr::operator>>
_TEXT	ENDS
PUBLIC	??5CAr@@QAEAAV0@AAK@Z				; CAr::operator>>
; Function compile flags: /Ogty
;	COMDAT ??5CAr@@QAEAAV0@AAK@Z
_TEXT	SEGMENT
_dw$ = 8						; size = 4
??5CAr@@QAEAAV0@AAK@Z PROC NEAR				; CAr::operator>>, COMDAT
; _this$ = ecx

; 146  : 	{	CAR_SAFE_READ( DWORD, dw );	}

  00000	8b c1		 mov	 eax, ecx
  00002	8b 48 08	 mov	 ecx, DWORD PTR [eax+8]
  00005	56		 push	 esi
  00006	8b 70 0c	 mov	 esi, DWORD PTR [eax+12]
  00009	8d 51 04	 lea	 edx, DWORD PTR [ecx+4]
  0000c	3b d6		 cmp	 edx, esi
  0000e	5e		 pop	 esi
  0000f	77 0f		 ja	 SHORT $L162868
  00011	8b 09		 mov	 ecx, DWORD PTR [ecx]
  00013	8b 54 24 04	 mov	 edx, DWORD PTR _dw$[esp-4]
  00017	89 0a		 mov	 DWORD PTR [edx], ecx
  00019	83 40 08 04	 add	 DWORD PTR [eax+8], 4
  0001d	c2 04 00	 ret	 4
$L162868:
  00020	8b 4c 24 04	 mov	 ecx, DWORD PTR _dw$[esp-4]
  00024	c7 01 00 00 00
	00		 mov	 DWORD PTR [ecx], 0
  0002a	8b 50 0c	 mov	 edx, DWORD PTR [eax+12]
  0002d	89 50 08	 mov	 DWORD PTR [eax+8], edx
  00030	c2 04 00	 ret	 4
??5CAr@@QAEAAV0@AAK@Z ENDP				; CAr::operator>>
_TEXT	ENDS
PUBLIC	??5CAr@@QAEAAV0@AAJ@Z				; CAr::operator>>
; Function compile flags: /Ogty
;	COMDAT ??5CAr@@QAEAAV0@AAJ@Z
_TEXT	SEGMENT
_l$ = 8							; size = 4
??5CAr@@QAEAAV0@AAJ@Z PROC NEAR				; CAr::operator>>, COMDAT
; _this$ = ecx

; 152  : 	{	CAR_SAFE_READ( LONG, l );	}

  00000	8b c1		 mov	 eax, ecx
  00002	8b 48 08	 mov	 ecx, DWORD PTR [eax+8]
  00005	56		 push	 esi
  00006	8b 70 0c	 mov	 esi, DWORD PTR [eax+12]
  00009	8d 51 04	 lea	 edx, DWORD PTR [ecx+4]
  0000c	3b d6		 cmp	 edx, esi
  0000e	5e		 pop	 esi
  0000f	77 0f		 ja	 SHORT $L162898
  00011	8b 09		 mov	 ecx, DWORD PTR [ecx]
  00013	8b 54 24 04	 mov	 edx, DWORD PTR _l$[esp-4]
  00017	89 0a		 mov	 DWORD PTR [edx], ecx
  00019	83 40 08 04	 add	 DWORD PTR [eax+8], 4
  0001d	c2 04 00	 ret	 4
$L162898:
  00020	8b 4c 24 04	 mov	 ecx, DWORD PTR _l$[esp-4]
  00024	c7 01 00 00 00
	00		 mov	 DWORD PTR [ecx], 0
  0002a	8b 50 0c	 mov	 edx, DWORD PTR [eax+12]
  0002d	89 50 08	 mov	 DWORD PTR [eax+8], edx
  00030	c2 04 00	 ret	 4
??5CAr@@QAEAAV0@AAJ@Z ENDP				; CAr::operator>>
_TEXT	ENDS
PUBLIC	?SetSerialNumber@CItemBase@@QAEXK@Z		; CItemBase::SetSerialNumber
; Function compile flags: /Ogty
; File c:\documents and settings\test\mes documents\source\virtuos_v17\build\program\_network\objects\obj.h
;	COMDAT ?SetSerialNumber@CItemBase@@QAEXK@Z
_TEXT	SEGMENT
_liSerialNumber$ = 8					; size = 4
?SetSerialNumber@CItemBase@@QAEXK@Z PROC NEAR		; CItemBase::SetSerialNumber, COMDAT
; _this$ = ecx

; 143  : 	void	SetSerialNumber( SERIALNUMBER liSerialNumber )	{	m_liSerialNumber	= liSerialNumber;	}

  00000	8b 44 24 04	 mov	 eax, DWORD PTR _liSerialNumber$[esp-4]
  00004	89 41 30	 mov	 DWORD PTR [ecx+48], eax
  00007	c2 04 00	 ret	 4
?SetSerialNumber@CItemBase@@QAEXK@Z ENDP		; CItemBase::SetSerialNumber
_TEXT	ENDS
PUBLIC	?size@?$basic_string@DU?$char_traits@D@std@@V?$allocator@D@2@@std@@QBEIXZ ; std::basic_string<char,std::char_traits<char>,std::allocator<char> >::size
; Function compile flags: /Ogty
; File c:\program files\microsoft visual studio .net 2003\vc7\include\xstring
;	COMDAT ?size@?$basic_string@DU?$char_traits@D@std@@V?$allocator@D@2@@std@@QBEIXZ
_TEXT	SEGMENT
?size@?$basic_string@DU?$char_traits@D@std@@V?$allocator@D@2@@std@@QBEIXZ PROC NEAR ; std::basic_string<char,std::char_traits<char>,std::allocator<char> >::size, COMDAT
; _this$ = ecx

; 1109 : 		return (_Mysize);

  00000	8b 41 14	 mov	 eax, DWORD PTR [ecx+20]

; 1110 : 		}

  00003	c3		 ret	 0
?size@?$basic_string@DU?$char_traits@D@std@@V?$allocator@D@2@@std@@QBEIXZ ENDP ; std::basic_string<char,std::char_traits<char>,std::allocator<char> >::size
_TEXT	ENDS
PUBLIC	?GetData@?$CSimpleStringT@D$0A@@ATL@@ABEPAUCStringData@2@XZ ; ATL::CSimpleStringT<char,0>::GetData
; Function compile flags: /Ogty
; File c:\program files\microsoft visual studio .net 2003\vc7\atlmfc\include\atlsimpstr.h
;	COMDAT ?GetData@?$CSimpleStringT@D$0A@@ATL@@ABEPAUCStringData@2@XZ
_TEXT	SEGMENT
?GetData@?$CSimpleStringT@D$0A@@ATL@@ABEPAUCStringData@2@XZ PROC NEAR ; ATL::CSimpleStringT<char,0>::GetData, COMDAT
; _this$ = ecx

; 731  : 		return( reinterpret_cast< CStringData* >( m_pszData )-1 );

  00000	8b 01		 mov	 eax, DWORD PTR [ecx]
  00002	83 e8 10	 sub	 eax, 16			; 00000010H

; 732  : 	}

  00005	c3		 ret	 0
?GetData@?$CSimpleStringT@D$0A@@ATL@@ABEPAUCStringData@2@XZ ENDP ; ATL::CSimpleStringT<char,0>::GetData
_TEXT	ENDS
PUBLIC	?_Myptr@?$basic_string@DU?$char_traits@D@std@@V?$allocator@D@2@@std@@QBEPBDXZ ; std::basic_string<char,std::char_traits<char>,std::allocator<char> >::_Myptr
; Function compile flags: /Ogty
; File c:\program files\microsoft visual studio .net 2003\vc7\include\xstring
;	COMDAT ?_Myptr@?$basic_string@DU?$char_traits@D@std@@V?$allocator@D@2@@std@@QBEPBDXZ
_TEXT	SEGMENT
?_Myptr@?$basic_string@DU?$char_traits@D@std@@V?$allocator@D@2@@std@@QBEPBDXZ PROC NEAR ; std::basic_string<char,std::char_traits<char>,std::allocator<char> >::_Myptr, COMDAT
; _this$ = ecx

; 1537 : 		return (_BUF_SIZE <= _Myres ? _Bx._Ptr : _Bx._Buf);

  00000	83 79 18 10	 cmp	 DWORD PTR [ecx+24], 16	; 00000010H
  00004	72 04		 jb	 SHORT $L211433
  00006	8b 41 04	 mov	 eax, DWORD PTR [ecx+4]

; 1538 : 		}

  00009	c3		 ret	 0
$L211433:

; 1537 : 		return (_BUF_SIZE <= _Myres ? _Bx._Ptr : _Bx._Buf);

  0000a	8d 41 04	 lea	 eax, DWORD PTR [ecx+4]

; 1538 : 		}

  0000d	c3		 ret	 0
?_Myptr@?$basic_string@DU?$char_traits@D@std@@V?$allocator@D@2@@std@@QBEPBDXZ ENDP ; std::basic_string<char,std::char_traits<char>,std::allocator<char> >::_Myptr
_TEXT	ENDS
PUBLIC	??0?$allocator@D@std@@QAE@XZ			; std::allocator<char>::allocator<char>
; Function compile flags: /Ogty
; File c:\program files\microsoft visual studio .net 2003\vc7\include\xmemory
;	COMDAT ??0?$allocator@D@std@@QAE@XZ
_TEXT	SEGMENT
??0?$allocator@D@std@@QAE@XZ PROC NEAR			; std::allocator<char>::allocator<char>, COMDAT
; _this$ = ecx

; 111  : 	allocator()

  00000	8b c1		 mov	 eax, ecx

; 112  : 		{	// construct default allocator (do nothing)
; 113  : 		}

  00002	c3		 ret	 0
??0?$allocator@D@std@@QAE@XZ ENDP			; std::allocator<char>::allocator<char>
_TEXT	ENDS
PUBLIC	??0?$allocator@D@std@@QAE@ABV01@@Z		; std::allocator<char>::allocator<char>
; Function compile flags: /Ogty
;	COMDAT ??0?$allocator@D@std@@QAE@ABV01@@Z
_TEXT	SEGMENT
___formal$ = 8						; size = 4
??0?$allocator@D@std@@QAE@ABV01@@Z PROC NEAR		; std::allocator<char>::allocator<char>, COMDAT
; _this$ = ecx

; 115  : 	allocator(const allocator<_Ty>&)

  00000	8b c1		 mov	 eax, ecx

; 116  : 		{	// construct by copying (do nothing)
; 117  : 		}

  00002	c2 04 00	 ret	 4
??0?$allocator@D@std@@QAE@ABV01@@Z ENDP			; std::allocator<char>::allocator<char>
_TEXT	ENDS
PUBLIC	??0?$allocator@K@std@@QAE@XZ			; std::allocator<unsigned long>::allocator<unsigned long>
; Function compile flags: /Ogty
;	COMDAT ??0?$allocator@K@std@@QAE@XZ
_TEXT	SEGMENT
??0?$allocator@K@std@@QAE@XZ PROC NEAR			; std::allocator<unsigned long>::allocator<unsigned long>, COMDAT
; _this$ = ecx

; 111  : 	allocator()

  00000	8b c1		 mov	 eax, ecx

; 112  : 		{	// construct default allocator (do nothing)
; 113  : 		}

  00002	c3		 ret	 0
??0?$allocator@K@std@@QAE@XZ ENDP			; std::allocator<unsigned long>::allocator<unsigned long>
_TEXT	ENDS
PUBLIC	?_Myptr@?$basic_string@DU?$char_traits@D@std@@V?$allocator@D@2@@std@@QAEPADXZ ; std::basic_string<char,std::char_traits<char>,std::allocator<char> >::_Myptr
; Function compile flags: /Ogty
; File c:\program files\microsoft visual studio .net 2003\vc7\include\xstring
;	COMDAT ?_Myptr@?$basic_string@DU?$char_traits@D@std@@V?$allocator@D@2@@std@@QAEPADXZ
_TEXT	SEGMENT
?_Myptr@?$basic_string@DU?$char_traits@D@std@@V?$allocator@D@2@@std@@QAEPADXZ PROC NEAR ; std::basic_string<char,std::char_traits<char>,std::allocator<char> >::_Myptr, COMDAT
; _this$ = ecx

; 1532 : 		return (_BUF_SIZE <= _Myres ? _Bx._Ptr : _Bx._Buf);

  00000	83 79 18 10	 cmp	 DWORD PTR [ecx+24], 16	; 00000010H
  00004	72 04		 jb	 SHORT $L211443
  00006	8b 41 04	 mov	 eax, DWORD PTR [ecx+4]

; 1533 : 		}

  00009	c3		 ret	 0
$L211443:

; 1532 : 		return (_BUF_SIZE <= _Myres ? _Bx._Ptr : _Bx._Buf);

  0000a	8d 41 04	 lea	 eax, DWORD PTR [ecx+4]

; 1533 : 		}

  0000d	c3		 ret	 0
?_Myptr@?$basic_string@DU?$char_traits@D@std@@V?$allocator@D@2@@std@@QAEPADXZ ENDP ; std::basic_string<char,std::char_traits<char>,std::allocator<char> >::_Myptr
_TEXT	ENDS
PUBLIC	?deallocate@?$allocator@D@std@@QAEXPADI@Z	; std::allocator<char>::deallocate
; Function compile flags: /Ogty
; File c:\program files\microsoft visual studio .net 2003\vc7\include\xmemory
;	COMDAT ?deallocate@?$allocator@D@std@@QAEXPADI@Z
_TEXT	SEGMENT
__Ptr$ = 8						; size = 4
___formal$ = 12						; size = 4
?deallocate@?$allocator@D@std@@QAEXPADI@Z PROC NEAR	; std::allocator<char>::deallocate, COMDAT
; _this$ = ecx

; 132  : 		operator delete(_Ptr);

  00000	8b 44 24 04	 mov	 eax, DWORD PTR __Ptr$[esp-4]
  00004	50		 push	 eax
  00005	e8 00 00 00 00	 call	 ??3@YAXPAX@Z		; operator delete
  0000a	59		 pop	 ecx

; 133  : 		}

  0000b	c2 08 00	 ret	 8
?deallocate@?$allocator@D@std@@QAEXPADI@Z ENDP		; std::allocator<char>::deallocate
_TEXT	ENDS
PUBLIC	??0?$allocator@K@std@@QAE@ABV01@@Z		; std::allocator<unsigned long>::allocator<unsigned long>
; Function compile flags: /Ogty
;	COMDAT ??0?$allocator@K@std@@QAE@ABV01@@Z
_TEXT	SEGMENT
___formal$ = 8						; size = 4
??0?$allocator@K@std@@QAE@ABV01@@Z PROC NEAR		; std::allocator<unsigned long>::allocator<unsigned long>, COMDAT
; _this$ = ecx

; 115  : 	allocator(const allocator<_Ty>&)

  00000	8b c1		 mov	 eax, ecx

; 116  : 		{	// construct by copying (do nothing)
; 117  : 		}

  00002	c2 04 00	 ret	 4
??0?$allocator@K@std@@QAE@ABV01@@Z ENDP			; std::allocator<unsigned long>::allocator<unsigned long>
_TEXT	ENDS
PUBLIC	?deallocate@?$allocator@K@std@@QAEXPAKI@Z	; std::allocator<unsigned long>::deallocate
; Function compile flags: /Ogty
;	COMDAT ?deallocate@?$allocator@K@std@@QAEXPAKI@Z
_TEXT	SEGMENT
__Ptr$ = 8						; size = 4
___formal$ = 12						; size = 4
?deallocate@?$allocator@K@std@@QAEXPAKI@Z PROC NEAR	; std::allocator<unsigned long>::deallocate, COMDAT
; _this$ = ecx

; 132  : 		operator delete(_Ptr);

  00000	8b 44 24 04	 mov	 eax, DWORD PTR __Ptr$[esp-4]
  00004	50		 push	 eax
  00005	e8 00 00 00 00	 call	 ??3@YAXPAX@Z		; operator delete
  0000a	59		 pop	 ecx

; 133  : 		}

  0000b	c2 08 00	 ret	 8
?deallocate@?$allocator@K@std@@QAEXPAKI@Z ENDP		; std::allocator<unsigned long>::deallocate
_TEXT	ENDS
PUBLIC	?_Inside@?$basic_string@DU?$char_traits@D@std@@V?$allocator@D@2@@std@@IAE_NPBD@Z ; std::basic_string<char,std::char_traits<char>,std::allocator<char> >::_Inside
; Function compile flags: /Ogty
; File c:\program files\microsoft visual studio .net 2003\vc7\include\xstring
;	COMDAT ?_Inside@?$basic_string@DU?$char_traits@D@std@@V?$allocator@D@2@@std@@IAE_NPBD@Z
_TEXT	SEGMENT
__Ptr$ = 8						; size = 4
?_Inside@?$basic_string@DU?$char_traits@D@std@@V?$allocator@D@2@@std@@IAE_NPBD@Z PROC NEAR ; std::basic_string<char,std::char_traits<char>,std::allocator<char> >::_Inside, COMDAT
; _this$ = ecx

; 1494 : 		{	// test if _Ptr points inside string

  00000	56		 push	 esi

; 1495 : 		if (_Ptr < _Myptr() || _Myptr() + _Mysize <= _Ptr)

  00001	8b 71 18	 mov	 esi, DWORD PTR [ecx+24]
  00004	83 fe 10	 cmp	 esi, 16			; 00000010H
  00007	57		 push	 edi
  00008	8d 41 04	 lea	 eax, DWORD PTR [ecx+4]
  0000b	72 04		 jb	 SHORT $L211457
  0000d	8b 10		 mov	 edx, DWORD PTR [eax]
  0000f	eb 02		 jmp	 SHORT $L211458
$L211457:
  00011	8b d0		 mov	 edx, eax
$L211458:
  00013	8b 7c 24 0c	 mov	 edi, DWORD PTR __Ptr$[esp+4]
  00017	3b fa		 cmp	 edi, edx
  00019	72 17		 jb	 SHORT $L185560
  0001b	83 fe 10	 cmp	 esi, 16			; 00000010H
  0001e	72 02		 jb	 SHORT $L211465
  00020	8b 00		 mov	 eax, DWORD PTR [eax]
$L211465:
  00022	8b 49 14	 mov	 ecx, DWORD PTR [ecx+20]
  00025	03 c8		 add	 ecx, eax
  00027	3b cf		 cmp	 ecx, edi
  00029	76 07		 jbe	 SHORT $L185560
  0002b	5f		 pop	 edi

; 1497 : 		else
; 1498 : 			return (true);

  0002c	b0 01		 mov	 al, 1
  0002e	5e		 pop	 esi

; 1499 : 		}

  0002f	c2 04 00	 ret	 4
$L185560:
  00032	5f		 pop	 edi

; 1496 : 			return (false);	// don't ask

  00033	32 c0		 xor	 al, al
  00035	5e		 pop	 esi

; 1499 : 		}

  00036	c2 04 00	 ret	 4
?_Inside@?$basic_string@DU?$char_traits@D@std@@V?$allocator@D@2@@std@@IAE_NPBD@Z ENDP ; std::basic_string<char,std::char_traits<char>,std::allocator<char> >::_Inside
_TEXT	ENDS
PUBLIC	?max_size@?$allocator@K@std@@QBEIXZ		; std::allocator<unsigned long>::max_size
; Function compile flags: /Ogty
; File c:\program files\microsoft visual studio .net 2003\vc7\include\xmemory
;	COMDAT ?max_size@?$allocator@K@std@@QBEIXZ
_TEXT	SEGMENT
?max_size@?$allocator@K@std@@QBEIXZ PROC NEAR		; std::allocator<unsigned long>::max_size, COMDAT
; _this$ = ecx

; 157  : 		_SIZT _Count = (_SIZT)(-1) / sizeof (_Ty);
; 158  : 		return (0 < _Count ? _Count : 1);

  00000	b8 ff ff ff 3f	 mov	 eax, 1073741823		; 3fffffffH

; 159  : 		}

  00005	c3		 ret	 0
?max_size@?$allocator@K@std@@QBEIXZ ENDP		; std::allocator<unsigned long>::max_size
_TEXT	ENDS
PUBLIC	?max_size@?$allocator@D@std@@QBEIXZ		; std::allocator<char>::max_size
; Function compile flags: /Ogty
;	COMDAT ?max_size@?$allocator@D@std@@QBEIXZ
_TEXT	SEGMENT
?max_size@?$allocator@D@std@@QBEIXZ PROC NEAR		; std::allocator<char>::max_size, COMDAT
; _this$ = ecx

; 157  : 		_SIZT _Count = (_SIZT)(-1) / sizeof (_Ty);
; 158  : 		return (0 < _Count ? _Count : 1);

  00000	83 c8 ff	 or	 eax, -1

; 159  : 		}

  00003	c3		 ret	 0
?max_size@?$allocator@D@std@@QBEIXZ ENDP		; std::allocator<char>::max_size
_TEXT	ENDS
PUBLIC	?GetAt@?$CFixedArray@UtagColorText@@@@QAEPAUtagColorText@@K@Z ; CFixedArray<tagColorText>::GetAt
; Function compile flags: /Ogty
; File c:\documents and settings\test\mes documents\source\virtuos_v17\build\program\_common\data.h
;	COMDAT ?GetAt@?$CFixedArray@UtagColorText@@@@QAEPAUtagColorText@@K@Z
_TEXT	SEGMENT
_dwIndex$ = 8						; size = 4
?GetAt@?$CFixedArray@UtagColorText@@@@QAEPAUtagColorText@@K@Z PROC NEAR ; CFixedArray<tagColorText>::GetAt, COMDAT
; _this$ = ecx

; 270  : 	if( dwIndex >= (DWORD)m_nMaxIndex )

  00000	8b 44 24 04	 mov	 eax, DWORD PTR _dwIndex$[esp-4]
  00004	3b 41 18	 cmp	 eax, DWORD PTR [ecx+24]
  00007	72 05		 jb	 SHORT $L186299

; 271  : 		return NULL;

  00009	33 c0		 xor	 eax, eax

; 273  : }

  0000b	c2 04 00	 ret	 4
$L186299:

; 272  : 	return (T*) m_apOffset[ dwIndex ];

  0000e	8b 49 08	 mov	 ecx, DWORD PTR [ecx+8]
  00011	8b 04 81	 mov	 eax, DWORD PTR [ecx+eax*4]

; 273  : }

  00014	c2 04 00	 ret	 4
?GetAt@?$CFixedArray@UtagColorText@@@@QAEPAUtagColorText@@K@Z ENDP ; CFixedArray<tagColorText>::GetAt
_TEXT	ENDS
PUBLIC	??$_Destroy_range@KV?$allocator@K@std@@@std@@YAXPAK0AAV?$allocator@K@0@@Z ; std::_Destroy_range<unsigned long,std::allocator<unsigned long> >
; Function compile flags: /Ogty
; File c:\program files\microsoft visual studio .net 2003\vc7\include\xmemory
;	COMDAT ??$_Destroy_range@KV?$allocator@K@std@@@std@@YAXPAK0AAV?$allocator@K@0@@Z
_TEXT	SEGMENT
__First$ = 8						; size = 4
__Last$ = 12						; size = 4
__Al$ = 16						; size = 4
??$_Destroy_range@KV?$allocator@K@std@@@std@@YAXPAK0AAV?$allocator@K@0@@Z PROC NEAR ; std::_Destroy_range<unsigned long,std::allocator<unsigned long> >, COMDAT

; 217  : 	_Destroy_range(_First, _Last, _Al, _Ptr_cat(_First, _Last));
; 218  : 	}

  00000	c3		 ret	 0
??$_Destroy_range@KV?$allocator@K@std@@@std@@YAXPAK0AAV?$allocator@K@0@@Z ENDP ; std::_Destroy_range<unsigned long,std::allocator<unsigned long> >
_TEXT	ENDS
PUBLIC	??$_Allocate@K@std@@YAPAKIPAK@Z			; std::_Allocate<unsigned long>
; Function compile flags: /Ogty
;	COMDAT ??$_Allocate@K@std@@YAPAKIPAK@Z
_TEXT	SEGMENT
__Count$ = 8						; size = 4
___formal$ = 12						; size = 4
??$_Allocate@K@std@@YAPAKIPAK@Z PROC NEAR		; std::_Allocate<unsigned long>, COMDAT

; 34   : 	return ((_Ty _FARQ *)operator new(_Count * sizeof (_Ty)));

  00000	8b 44 24 04	 mov	 eax, DWORD PTR __Count$[esp-4]
  00004	8d 0c 85 00 00
	00 00		 lea	 ecx, DWORD PTR [eax*4]
  0000b	51		 push	 ecx
  0000c	e8 00 00 00 00	 call	 ??2@YAPAXI@Z		; operator new
  00011	83 c4 04	 add	 esp, 4

; 35   : 	}

  00014	c3		 ret	 0
??$_Allocate@K@std@@YAPAKIPAK@Z ENDP			; std::_Allocate<unsigned long>
_TEXT	ENDS
PUBLIC	??$swap@D@std@@YAXAAD0@Z			; std::swap<char>
; Function compile flags: /Ogty
; File c:\program files\microsoft visual studio .net 2003\vc7\include\utility
;	COMDAT ??$swap@D@std@@YAXAAD0@Z
_TEXT	SEGMENT
__Left$ = 8						; size = 4
__Right$ = 12						; size = 4
??$swap@D@std@@YAXAAD0@Z PROC NEAR			; std::swap<char>, COMDAT

; 15   : 	_Ty _Tmp = _Left;

  00000	8b 44 24 04	 mov	 eax, DWORD PTR __Left$[esp-4]
  00004	8a 08		 mov	 cl, BYTE PTR [eax]
  00006	56		 push	 esi

; 16   : 	_Left = _Right, _Right = _Tmp;

  00007	8b 74 24 0c	 mov	 esi, DWORD PTR __Right$[esp]
  0000b	8a 16		 mov	 dl, BYTE PTR [esi]
  0000d	88 10		 mov	 BYTE PTR [eax], dl
  0000f	88 0e		 mov	 BYTE PTR [esi], cl
  00011	5e		 pop	 esi

; 17   : 	}

  00012	c3		 ret	 0
??$swap@D@std@@YAXAAD0@Z ENDP				; std::swap<char>
_TEXT	ENDS
PUBLIC	??$_Allocate@D@std@@YAPADIPAD@Z			; std::_Allocate<char>
; Function compile flags: /Ogty
; File c:\program files\microsoft visual studio .net 2003\vc7\include\xmemory
;	COMDAT ??$_Allocate@D@std@@YAPADIPAD@Z
_TEXT	SEGMENT
__Count$ = 8						; size = 4
___formal$ = 12						; size = 4
??$_Allocate@D@std@@YAPADIPAD@Z PROC NEAR		; std::_Allocate<char>, COMDAT

; 34   : 	return ((_Ty _FARQ *)operator new(_Count * sizeof (_Ty)));

  00000	8b 44 24 04	 mov	 eax, DWORD PTR __Count$[esp-4]
  00004	50		 push	 eax
  00005	e8 00 00 00 00	 call	 ??2@YAPAXI@Z		; operator new
  0000a	83 c4 04	 add	 esp, 4

; 35   : 	}

  0000d	c3		 ret	 0
??$_Allocate@D@std@@YAPADIPAD@Z ENDP			; std::_Allocate<char>
_TEXT	ENDS
PUBLIC	?CheckPayTime@CTax@@QAEHXZ			; CTax::CheckPayTime
PUBLIC	??_C@_0N@JMAFDKBD@CheckPayTime?$AA@		; `string'
EXTRN	?Pop@CLuaBase@@QAEXH@Z:NEAR			; CLuaBase::Pop
EXTRN	?GetLuaFunction@CLuaBase@@QAEHPAD@Z:NEAR	; CLuaBase::GetLuaFunction
EXTRN	?CallLuaFunction@CLuaBase@@QAEXHH@Z:NEAR	; CLuaBase::CallLuaFunction
;	COMDAT ??_C@_0N@JMAFDKBD@CheckPayTime?$AA@
; File c:\documents and settings\test\mes documents\source\virtuos_v17\build\program\_common\luabase.h
CONST	SEGMENT
??_C@_0N@JMAFDKBD@CheckPayTime?$AA@ DB 'CheckPayTime', 00H ; `string'
; Function compile flags: /Ogty
; File c:\documents and settings\test\mes documents\source\virtuos_v17\build\program\_common\tax.cpp
CONST	ENDS
;	COMDAT ?CheckPayTime@CTax@@QAEHXZ
_TEXT	SEGMENT
?CheckPayTime@CTax@@QAEHXZ PROC NEAR			; CTax::CheckPayTime, COMDAT
; _this$ = ecx

; 271  : {

  00000	53		 push	 ebx
  00001	56		 push	 esi
  00002	8b f1		 mov	 esi, ecx
  00004	57		 push	 edi

; 272  : 	//   -	  ":"   .(      )
; 273  : 	//					         .
; 274  : 	//					    bPay  FALSE   .
; 275  : 	BOOL bPay = FALSE;
; 276  : 	if( m_Lua.GetLuaFunction( "CheckPayTime" ) )

  00005	8d 7e 28	 lea	 edi, DWORD PTR [esi+40]
  00008	68 00 00 00 00	 push	 OFFSET FLAT:??_C@_0N@JMAFDKBD@CheckPayTime?$AA@
  0000d	8b cf		 mov	 ecx, edi
  0000f	33 db		 xor	 ebx, ebx
  00011	e8 00 00 00 00	 call	 ?GetLuaFunction@CLuaBase@@QAEHPAD@Z ; CLuaBase::GetLuaFunction
  00016	85 c0		 test	 eax, eax
  00018	74 30		 je	 SHORT $L208377

; 277  : 	{
; 278  : 		m_Lua.CallLuaFunction( 0, 1 );

  0001a	6a 01		 push	 1
  0001c	53		 push	 ebx
  0001d	8b cf		 mov	 ecx, edi
  0001f	e8 00 00 00 00	 call	 ?CallLuaFunction@CLuaBase@@QAEXHH@Z ; CLuaBase::CallLuaFunction

; 279  : 		if( m_Lua.ToBool( -1 ) )

  00024	8b 46 2c	 mov	 eax, DWORD PTR [esi+44]
  00027	6a ff		 push	 -1
  00029	50		 push	 eax
  0002a	e8 00 00 00 00	 call	 _lua_toboolean
  0002f	83 c4 08	 add	 esp, 8
  00032	85 c0		 test	 eax, eax
  00034	74 14		 je	 SHORT $L208377

; 280  : 		{
; 281  : 			bPay = TRUE;
; 282  : 			m_taxDBController.PostRequest( QUERY_TAX_PAY, 0, 0, 0 );

  00036	6a 00		 push	 0
  00038	6a 00		 push	 0
  0003a	6a 00		 push	 0
  0003c	bb 01 00 00 00	 mov	 ebx, 1
  00041	53		 push	 ebx
  00042	8d 4e 30	 lea	 ecx, DWORD PTR [esi+48]
  00045	e8 00 00 00 00	 call	 ?PostRequest@CDbController@@QAEHHPAEHK@Z ; CDbController::PostRequest
$L208377:

; 283  : 		}
; 284  : 	}
; 285  : 	m_Lua.Pop(0);

  0004a	6a 00		 push	 0
  0004c	8b cf		 mov	 ecx, edi
  0004e	e8 00 00 00 00	 call	 ?Pop@CLuaBase@@QAEXH@Z	; CLuaBase::Pop
  00053	5f		 pop	 edi
  00054	5e		 pop	 esi

; 286  : 
; 287  : 	return bPay;

  00055	8b c3		 mov	 eax, ebx
  00057	5b		 pop	 ebx

; 288  : }

  00058	c3		 ret	 0
?CheckPayTime@CTax@@QAEHXZ ENDP				; CTax::CheckPayTime
; Function compile flags: /Ogty
_TEXT	ENDS
;	COMDAT ??_GCTaxDBController@@UAEPAXI@Z
_TEXT	SEGMENT
___flags$ = 8						; size = 4
??_GCTaxDBController@@UAEPAXI@Z PROC NEAR		; CTaxDBController::`scalar deleting destructor', COMDAT
; _this$ = ecx
  00000	56		 push	 esi
  00001	8b f1		 mov	 esi, ecx
  00003	e8 00 00 00 00	 call	 ??1CTaxDBController@@UAE@XZ ; CTaxDBController::~CTaxDBController
  00008	f6 44 24 08 01	 test	 BYTE PTR ___flags$[esp], 1
  0000d	74 09		 je	 SHORT $L211500
  0000f	56		 push	 esi
  00010	e8 00 00 00 00	 call	 ??3@YAXPAX@Z		; operator delete
  00015	83 c4 04	 add	 esp, 4
$L211500:
  00018	8b c6		 mov	 eax, esi
  0001a	5e		 pop	 esi
  0001b	c2 04 00	 ret	 4
??_GCTaxDBController@@UAEPAXI@Z ENDP			; CTaxDBController::`scalar deleting destructor'
_TEXT	ENDS
PUBLIC	?GetTickCount@CTime@ATL@@SG?AV12@XZ		; ATL::CTime::GetTickCount
EXTRN	__time64:NEAR
; Function compile flags: /Ogty
; File c:\program files\microsoft visual studio .net 2003\vc7\atlmfc\include\atltime.inl
;	COMDAT ?GetTickCount@CTime@ATL@@SG?AV12@XZ
_TEXT	SEGMENT
___$ReturnUdt$ = 8					; size = 4
?GetTickCount@CTime@ATL@@SG?AV12@XZ PROC NEAR		; ATL::CTime::GetTickCount, COMDAT

; 139  : 	return( CTime( ::_time64( NULL ) ) );

  00000	6a 00		 push	 0
  00002	e8 00 00 00 00	 call	 __time64
  00007	8b 4c 24 08	 mov	 ecx, DWORD PTR ___$ReturnUdt$[esp]
  0000b	89 01		 mov	 DWORD PTR [ecx], eax
  0000d	83 c4 04	 add	 esp, 4
  00010	89 51 04	 mov	 DWORD PTR [ecx+4], edx
  00013	8b c1		 mov	 eax, ecx

; 140  : }

  00015	c2 04 00	 ret	 4
?GetTickCount@CTime@ATL@@SG?AV12@XZ ENDP		; ATL::CTime::GetTickCount
_TEXT	ENDS
PUBLIC	??9const_iterator@?$_Tree@V?$_Tmap_traits@EPAU__TAXINFO@@U?$less@E@std@@V?$allocator@U?$pair@$$CBEPAU__TAXINFO@@@std@@@3@$0A@@std@@@std@@QBE_NABV012@@Z ; std::_Tree<std::_Tmap_traits<unsigned char,__TAXINFO *,std::less<unsigned char>,std::allocator<std::pair<unsigned char const ,__TAXINFO *> >,0> >::const_iterator::operator!=
; Function compile flags: /Ogty
; File c:\program files\microsoft visual studio .net 2003\vc7\include\xtree
;	COMDAT ??9const_iterator@?$_Tree@V?$_Tmap_traits@EPAU__TAXINFO@@U?$less@E@std@@V?$allocator@U?$pair@$$CBEPAU__TAXINFO@@@std@@@3@$0A@@std@@@std@@QBE_NABV012@@Z
_TEXT	SEGMENT
__Right$ = 8						; size = 4
??9const_iterator@?$_Tree@V?$_Tmap_traits@EPAU__TAXINFO@@U?$less@E@std@@V?$allocator@U?$pair@$$CBEPAU__TAXINFO@@@std@@@3@$0A@@std@@@std@@QBE_NABV012@@Z PROC NEAR ; std::_Tree<std::_Tmap_traits<unsigned char,__TAXINFO *,std::less<unsigned char>,std::allocator<std::pair<unsigned char const ,__TAXINFO *> >,0> >::const_iterator::operator!=, COMDAT
; _this$ = ecx

; 246  : 			return (!(*this == _Right));

  00000	8b 01		 mov	 eax, DWORD PTR [ecx]
  00002	8b 54 24 04	 mov	 edx, DWORD PTR __Right$[esp-4]
  00006	56		 push	 esi
  00007	8b 32		 mov	 esi, DWORD PTR [edx]
  00009	33 c9		 xor	 ecx, ecx
  0000b	3b c6		 cmp	 eax, esi
  0000d	0f 95 c1	 setne	 cl
  00010	8a c1		 mov	 al, cl
  00012	5e		 pop	 esi

; 247  : 			}

  00013	c2 04 00	 ret	 4
??9const_iterator@?$_Tree@V?$_Tmap_traits@EPAU__TAXINFO@@U?$less@E@std@@V?$allocator@U?$pair@$$CBEPAU__TAXINFO@@@std@@@3@$0A@@std@@@std@@QBE_NABV012@@Z ENDP ; std::_Tree<std::_Tmap_traits<unsigned char,__TAXINFO *,std::less<unsigned char>,std::allocator<std::pair<unsigned char const ,__TAXINFO *> >,0> >::const_iterator::operator!=
_TEXT	ENDS
PUBLIC	?_Key@?$_Tree@V?$_Tmap_traits@EPAU__TAXDETAIL@@U?$less@E@std@@V?$allocator@U?$pair@$$CBEPAU__TAXDETAIL@@@std@@@3@$0A@@std@@@std@@KAABEPAU_Node@?$_Tree_nod@V?$_Tmap_traits@EPAU__TAXDETAIL@@U?$less@E@std@@V?$allocator@U?$pair@$$CBEPAU__TAXDETAIL@@@std@@@3@$0A@@std@@@2@@Z ; std::_Tree<std::_Tmap_traits<unsigned char,__TAXDETAIL *,std::less<unsigned char>,std::allocator<std::pair<unsigned char const ,__TAXDETAIL *> >,0> >::_Key
; Function compile flags: /Ogty
;	COMDAT ?_Key@?$_Tree@V?$_Tmap_traits@EPAU__TAXDETAIL@@U?$less@E@std@@V?$allocator@U?$pair@$$CBEPAU__TAXDETAIL@@@std@@@3@$0A@@std@@@std@@KAABEPAU_Node@?$_Tree_nod@V?$_Tmap_traits@EPAU__TAXDETAIL@@U?$less@E@std@@V?$allocator@U?$pair@$$CBEPAU__TAXDETAIL@@@std@@@3@$0A@@std@@@2@@Z
_TEXT	SEGMENT
__Pnode$ = 8						; size = 4
?_Key@?$_Tree@V?$_Tmap_traits@EPAU__TAXDETAIL@@U?$less@E@std@@V?$allocator@U?$pair@$$CBEPAU__TAXDETAIL@@@std@@@3@$0A@@std@@@std@@KAABEPAU_Node@?$_Tree_nod@V?$_Tmap_traits@EPAU__TAXDETAIL@@U?$less@E@std@@V?$allocator@U?$pair@$$CBEPAU__TAXDETAIL@@@std@@@3@$0A@@std@@@2@@Z PROC NEAR ; std::_Tree<std::_Tmap_traits<unsigned char,__TAXDETAIL *,std::less<unsigned char>,std::allocator<std::pair<unsigned char const ,__TAXDETAIL *> >,0> >::_Key, COMDAT

; 142  : 		return (_Mybase::_Kfn(_Myval(_Pnode)));

  00000	8b 44 24 04	 mov	 eax, DWORD PTR __Pnode$[esp-4]
  00004	83 c0 0c	 add	 eax, 12			; 0000000cH

; 143  : 		}

  00007	c3		 ret	 0
?_Key@?$_Tree@V?$_Tmap_traits@EPAU__TAXDETAIL@@U?$less@E@std@@V?$allocator@U?$pair@$$CBEPAU__TAXDETAIL@@@std@@@3@$0A@@std@@@std@@KAABEPAU_Node@?$_Tree_nod@V?$_Tmap_traits@EPAU__TAXDETAIL@@U?$less@E@std@@V?$allocator@U?$pair@$$CBEPAU__TAXDETAIL@@@std@@@3@$0A@@std@@@2@@Z ENDP ; std::_Tree<std::_Tmap_traits<unsigned char,__TAXDETAIL *,std::less<unsigned char>,std::allocator<std::pair<unsigned char const ,__TAXDETAIL *> >,0> >::_Key
_TEXT	ENDS
PUBLIC	?_Root@?$_Tree@V?$_Tmap_traits@EPAU__TAXDETAIL@@U?$less@E@std@@V?$allocator@U?$pair@$$CBEPAU__TAXDETAIL@@@std@@@3@$0A@@std@@@std@@IAEAAPAU_Node@?$_Tree_nod@V?$_Tmap_traits@EPAU__TAXDETAIL@@U?$less@E@std@@V?$allocator@U?$pair@$$CBEPAU__TAXDETAIL@@@std@@@3@$0A@@std@@@2@XZ ; std::_Tree<std::_Tmap_traits<unsigned char,__TAXDETAIL *,std::less<unsigned char>,std::allocator<std::pair<unsigned char const ,__TAXDETAIL *> >,0> >::_Root
; Function compile flags: /Ogty
;	COMDAT ?_Root@?$_Tree@V?$_Tmap_traits@EPAU__TAXDETAIL@@U?$less@E@std@@V?$allocator@U?$pair@$$CBEPAU__TAXDETAIL@@@std@@@3@$0A@@std@@@std@@IAEAAPAU_Node@?$_Tree_nod@V?$_Tmap_traits@EPAU__TAXDETAIL@@U?$less@E@std@@V?$allocator@U?$pair@$$CBEPAU__TAXDETAIL@@@std@@@3@$0A@@std@@@2@XZ
_TEXT	SEGMENT
?_Root@?$_Tree@V?$_Tmap_traits@EPAU__TAXDETAIL@@U?$less@E@std@@V?$allocator@U?$pair@$$CBEPAU__TAXDETAIL@@@std@@@3@$0A@@std@@@std@@IAEAAPAU_Node@?$_Tree_nod@V?$_Tmap_traits@EPAU__TAXDETAIL@@U?$less@E@std@@V?$allocator@U?$pair@$$CBEPAU__TAXDETAIL@@@std@@@3@$0A@@std@@@2@XZ PROC NEAR ; std::_Tree<std::_Tmap_traits<unsigned char,__TAXDETAIL *,std::less<unsigned char>,std::allocator<std::pair<unsigned char const ,__TAXDETAIL *> >,0> >::_Root, COMDAT
; _this$ = ecx

; 1059 : 		return (_Parent(_Myhead));

  00000	8b 41 04	 mov	 eax, DWORD PTR [ecx+4]
  00003	83 c0 04	 add	 eax, 4

; 1060 : 		}

  00006	c3		 ret	 0
?_Root@?$_Tree@V?$_Tmap_traits@EPAU__TAXDETAIL@@U?$less@E@std@@V?$allocator@U?$pair@$$CBEPAU__TAXDETAIL@@@std@@@3@$0A@@std@@@std@@IAEAAPAU_Node@?$_Tree_nod@V?$_Tmap_traits@EPAU__TAXDETAIL@@U?$less@E@std@@V?$allocator@U?$pair@$$CBEPAU__TAXDETAIL@@@std@@@3@$0A@@std@@@2@XZ ENDP ; std::_Tree<std::_Tmap_traits<unsigned char,__TAXDETAIL *,std::less<unsigned char>,std::allocator<std::pair<unsigned char const ,__TAXDETAIL *> >,0> >::_Root
_TEXT	ENDS
PUBLIC	??0iterator@?$_Tree@V?$_Tmap_traits@EPAU__TAXDETAIL@@U?$less@E@std@@V?$allocator@U?$pair@$$CBEPAU__TAXDETAIL@@@std@@@3@$0A@@std@@@std@@QAE@PAU_Node@?$_Tree_nod@V?$_Tmap_traits@EPAU__TAXDETAIL@@U?$less@E@std@@V?$allocator@U?$pair@$$CBEPAU__TAXDETAIL@@@std@@@3@$0A@@std@@@2@@Z ; std::_Tree<std::_Tmap_traits<unsigned char,__TAXDETAIL *,std::less<unsigned char>,std::allocator<std::pair<unsigned char const ,__TAXDETAIL *> >,0> >::iterator::iterator
; Function compile flags: /Ogty
;	COMDAT ??0iterator@?$_Tree@V?$_Tmap_traits@EPAU__TAXDETAIL@@U?$less@E@std@@V?$allocator@U?$pair@$$CBEPAU__TAXDETAIL@@@std@@@3@$0A@@std@@@std@@QAE@PAU_Node@?$_Tree_nod@V?$_Tmap_traits@EPAU__TAXDETAIL@@U?$less@E@std@@V?$allocator@U?$pair@$$CBEPAU__TAXDETAIL@@@std@@@3@$0A@@std@@@2@@Z
_TEXT	SEGMENT
__Pnode$ = 8						; size = 4
??0iterator@?$_Tree@V?$_Tmap_traits@EPAU__TAXDETAIL@@U?$less@E@std@@V?$allocator@U?$pair@$$CBEPAU__TAXDETAIL@@@std@@@3@$0A@@std@@@std@@QAE@PAU_Node@?$_Tree_nod@V?$_Tmap_traits@EPAU__TAXDETAIL@@U?$less@E@std@@V?$allocator@U?$pair@$$CBEPAU__TAXDETAIL@@@std@@@3@$0A@@std@@@2@@Z PROC NEAR ; std::_Tree<std::_Tmap_traits<unsigned char,__TAXDETAIL *,std::less<unsigned char>,std::allocator<std::pair<unsigned char const ,__TAXDETAIL *> >,0> >::iterator::iterator, COMDAT
; _this$ = ecx

; 312  : 			{	// construct with node pointer _Pnode

  00000	8b c1		 mov	 eax, ecx
  00002	8b 4c 24 04	 mov	 ecx, DWORD PTR __Pnode$[esp-4]
  00006	89 08		 mov	 DWORD PTR [eax], ecx

; 313  : 			}

  00008	c2 04 00	 ret	 4
??0iterator@?$_Tree@V?$_Tmap_traits@EPAU__TAXDETAIL@@U?$less@E@std@@V?$allocator@U?$pair@$$CBEPAU__TAXDETAIL@@@std@@@3@$0A@@std@@@std@@QAE@PAU_Node@?$_Tree_nod@V?$_Tmap_traits@EPAU__TAXDETAIL@@U?$less@E@std@@V?$allocator@U?$pair@$$CBEPAU__TAXDETAIL@@@std@@@3@$0A@@std@@@2@@Z ENDP ; std::_Tree<std::_Tmap_traits<unsigned char,__TAXDETAIL *,std::less<unsigned char>,std::allocator<std::pair<unsigned char const ,__TAXDETAIL *> >,0> >::iterator::iterator
_TEXT	ENDS
PUBLIC	??Diterator@?$_Tree@V?$_Tmap_traits@EPAU__TAXDETAIL@@U?$less@E@std@@V?$allocator@U?$pair@$$CBEPAU__TAXDETAIL@@@std@@@3@$0A@@std@@@std@@QBEAAU?$pair@$$CBEPAU__TAXDETAIL@@@2@XZ ; std::_Tree<std::_Tmap_traits<unsigned char,__TAXDETAIL *,std::less<unsigned char>,std::allocator<std::pair<unsigned char const ,__TAXDETAIL *> >,0> >::iterator::operator*
; Function compile flags: /Ogty
;	COMDAT ??Diterator@?$_Tree@V?$_Tmap_traits@EPAU__TAXDETAIL@@U?$less@E@std@@V?$allocator@U?$pair@$$CBEPAU__TAXDETAIL@@@std@@@3@$0A@@std@@@std@@QBEAAU?$pair@$$CBEPAU__TAXDETAIL@@@2@XZ
_TEXT	SEGMENT
??Diterator@?$_Tree@V?$_Tmap_traits@EPAU__TAXDETAIL@@U?$less@E@std@@V?$allocator@U?$pair@$$CBEPAU__TAXDETAIL@@@std@@@3@$0A@@std@@@std@@QBEAAU?$pair@$$CBEPAU__TAXDETAIL@@@2@XZ PROC NEAR ; std::_Tree<std::_Tmap_traits<unsigned char,__TAXDETAIL *,std::less<unsigned char>,std::allocator<std::pair<unsigned char const ,__TAXDETAIL *> >,0> >::iterator::operator*, COMDAT
; _this$ = ecx

; 317  : 			return ((reference)**(const_iterator *)this);

  00000	8b 01		 mov	 eax, DWORD PTR [ecx]
  00002	83 c0 0c	 add	 eax, 12			; 0000000cH

; 318  : 			}

  00005	c3		 ret	 0
??Diterator@?$_Tree@V?$_Tmap_traits@EPAU__TAXDETAIL@@U?$less@E@std@@V?$allocator@U?$pair@$$CBEPAU__TAXDETAIL@@@std@@@3@$0A@@std@@@std@@QBEAAU?$pair@$$CBEPAU__TAXDETAIL@@@2@XZ ENDP ; std::_Tree<std::_Tmap_traits<unsigned char,__TAXDETAIL *,std::less<unsigned char>,std::allocator<std::pair<unsigned char const ,__TAXDETAIL *> >,0> >::iterator::operator*
_TEXT	ENDS
PUBLIC	?_Key@?$_Tree@V?$_Tmap_traits@EPAU__TAXINFO@@U?$less@E@std@@V?$allocator@U?$pair@$$CBEPAU__TAXINFO@@@std@@@3@$0A@@std@@@std@@KAABEPAU_Node@?$_Tree_nod@V?$_Tmap_traits@EPAU__TAXINFO@@U?$less@E@std@@V?$allocator@U?$pair@$$CBEPAU__TAXINFO@@@std@@@3@$0A@@std@@@2@@Z ; std::_Tree<std::_Tmap_traits<unsigned char,__TAXINFO *,std::less<unsigned char>,std::allocator<std::pair<unsigned char const ,__TAXINFO *> >,0> >::_Key
; Function compile flags: /Ogty
;	COMDAT ?_Key@?$_Tree@V?$_Tmap_traits@EPAU__TAXINFO@@U?$less@E@std@@V?$allocator@U?$pair@$$CBEPAU__TAXINFO@@@std@@@3@$0A@@std@@@std@@KAABEPAU_Node@?$_Tree_nod@V?$_Tmap_traits@EPAU__TAXINFO@@U?$less@E@std@@V?$allocator@U?$pair@$$CBEPAU__TAXINFO@@@std@@@3@$0A@@std@@@2@@Z
_TEXT	SEGMENT
__Pnode$ = 8						; size = 4
?_Key@?$_Tree@V?$_Tmap_traits@EPAU__TAXINFO@@U?$less@E@std@@V?$allocator@U?$pair@$$CBEPAU__TAXINFO@@@std@@@3@$0A@@std@@@std@@KAABEPAU_Node@?$_Tree_nod@V?$_Tmap_traits@EPAU__TAXINFO@@U?$less@E@std@@V?$allocator@U?$pair@$$CBEPAU__TAXINFO@@@std@@@3@$0A@@std@@@2@@Z PROC NEAR ; std::_Tree<std::_Tmap_traits<unsigned char,__TAXINFO *,std::less<unsigned char>,std::allocator<std::pair<unsigned char const ,__TAXINFO *> >,0> >::_Key, COMDAT

; 142  : 		return (_Mybase::_Kfn(_Myval(_Pnode)));

  00000	8b 44 24 04	 mov	 eax, DWORD PTR __Pnode$[esp-4]
  00004	83 c0 0c	 add	 eax, 12			; 0000000cH

; 143  : 		}

  00007	c3		 ret	 0
?_Key@?$_Tree@V?$_Tmap_traits@EPAU__TAXINFO@@U?$less@E@std@@V?$allocator@U?$pair@$$CBEPAU__TAXINFO@@@std@@@3@$0A@@std@@@std@@KAABEPAU_Node@?$_Tree_nod@V?$_Tmap_traits@EPAU__TAXINFO@@U?$less@E@std@@V?$allocator@U?$pair@$$CBEPAU__TAXINFO@@@std@@@3@$0A@@std@@@2@@Z ENDP ; std::_Tree<std::_Tmap_traits<unsigned char,__TAXINFO *,std::less<unsigned char>,std::allocator<std::pair<unsigned char const ,__TAXINFO *> >,0> >::_Key
_TEXT	ENDS
PUBLIC	?_Root@?$_Tree@V?$_Tmap_traits@EPAU__TAXINFO@@U?$less@E@std@@V?$allocator@U?$pair@$$CBEPAU__TAXINFO@@@std@@@3@$0A@@std@@@std@@IAEAAPAU_Node@?$_Tree_nod@V?$_Tmap_traits@EPAU__TAXINFO@@U?$less@E@std@@V?$allocator@U?$pair@$$CBEPAU__TAXINFO@@@std@@@3@$0A@@std@@@2@XZ ; std::_Tree<std::_Tmap_traits<unsigned char,__TAXINFO *,std::less<unsigned char>,std::allocator<std::pair<unsigned char const ,__TAXINFO *> >,0> >::_Root
; Function compile flags: /Ogty
;	COMDAT ?_Root@?$_Tree@V?$_Tmap_traits@EPAU__TAXINFO@@U?$less@E@std@@V?$allocator@U?$pair@$$CBEPAU__TAXINFO@@@std@@@3@$0A@@std@@@std@@IAEAAPAU_Node@?$_Tree_nod@V?$_Tmap_traits@EPAU__TAXINFO@@U?$less@E@std@@V?$allocator@U?$pair@$$CBEPAU__TAXINFO@@@std@@@3@$0A@@std@@@2@XZ
_TEXT	SEGMENT
?_Root@?$_Tree@V?$_Tmap_traits@EPAU__TAXINFO@@U?$less@E@std@@V?$allocator@U?$pair@$$CBEPAU__TAXINFO@@@std@@@3@$0A@@std@@@std@@IAEAAPAU_Node@?$_Tree_nod@V?$_Tmap_traits@EPAU__TAXINFO@@U?$less@E@std@@V?$allocator@U?$pair@$$CBEPAU__TAXINFO@@@std@@@3@$0A@@std@@@2@XZ PROC NEAR ; std::_Tree<std::_Tmap_traits<unsigned char,__TAXINFO *,std::less<unsigned char>,std::allocator<std::pair<unsigned char const ,__TAXINFO *> >,0> >::_Root, COMDAT
; _this$ = ecx

; 1059 : 		return (_Parent(_Myhead));

  00000	8b 41 04	 mov	 eax, DWORD PTR [ecx+4]
  00003	83 c0 04	 add	 eax, 4

; 1060 : 		}

  00006	c3		 ret	 0
?_Root@?$_Tree@V?$_Tmap_traits@EPAU__TAXINFO@@U?$less@E@std@@V?$allocator@U?$pair@$$CBEPAU__TAXINFO@@@std@@@3@$0A@@std@@@std@@IAEAAPAU_Node@?$_Tree_nod@V?$_Tmap_traits@EPAU__TAXINFO@@U?$less@E@std@@V?$allocator@U?$pair@$$CBEPAU__TAXINFO@@@std@@@3@$0A@@std@@@2@XZ ENDP ; std::_Tree<std::_Tmap_traits<unsigned char,__TAXINFO *,std::less<unsigned char>,std::allocator<std::pair<unsigned char const ,__TAXINFO *> >,0> >::_Root
_TEXT	ENDS
PUBLIC	??0iterator@?$_Tree@V?$_Tmap_traits@EPAU__TAXINFO@@U?$less@E@std@@V?$allocator@U?$pair@$$CBEPAU__TAXINFO@@@std@@@3@$0A@@std@@@std@@QAE@PAU_Node@?$_Tree_nod@V?$_Tmap_traits@EPAU__TAXINFO@@U?$less@E@std@@V?$allocator@U?$pair@$$CBEPAU__TAXINFO@@@std@@@3@$0A@@std@@@2@@Z ; std::_Tree<std::_Tmap_traits<unsigned char,__TAXINFO *,std::less<unsigned char>,std::allocator<std::pair<unsigned char const ,__TAXINFO *> >,0> >::iterator::iterator
; Function compile flags: /Ogty
;	COMDAT ??0iterator@?$_Tree@V?$_Tmap_traits@EPAU__TAXINFO@@U?$less@E@std@@V?$allocator@U?$pair@$$CBEPAU__TAXINFO@@@std@@@3@$0A@@std@@@std@@QAE@PAU_Node@?$_Tree_nod@V?$_Tmap_traits@EPAU__TAXINFO@@U?$less@E@std@@V?$allocator@U?$pair@$$CBEPAU__TAXINFO@@@std@@@3@$0A@@std@@@2@@Z
_TEXT	SEGMENT
__Pnode$ = 8						; size = 4
??0iterator@?$_Tree@V?$_Tmap_traits@EPAU__TAXINFO@@U?$less@E@std@@V?$allocator@U?$pair@$$CBEPAU__TAXINFO@@@std@@@3@$0A@@std@@@std@@QAE@PAU_Node@?$_Tree_nod@V?$_Tmap_traits@EPAU__TAXINFO@@U?$less@E@std@@V?$allocator@U?$pair@$$CBEPAU__TAXINFO@@@std@@@3@$0A@@std@@@2@@Z PROC NEAR ; std::_Tree<std::_Tmap_traits<unsigned char,__TAXINFO *,std::less<unsigned char>,std::allocator<std::pair<unsigned char const ,__TAXINFO *> >,0> >::iterator::iterator, COMDAT
; _this$ = ecx

; 312  : 			{	// construct with node pointer _Pnode

  00000	8b c1		 mov	 eax, ecx
  00002	8b 4c 24 04	 mov	 ecx, DWORD PTR __Pnode$[esp-4]
  00006	89 08		 mov	 DWORD PTR [eax], ecx

; 313  : 			}

  00008	c2 04 00	 ret	 4
??0iterator@?$_Tree@V?$_Tmap_traits@EPAU__TAXINFO@@U?$less@E@std@@V?$allocator@U?$pair@$$CBEPAU__TAXINFO@@@std@@@3@$0A@@std@@@std@@QAE@PAU_Node@?$_Tree_nod@V?$_Tmap_traits@EPAU__TAXINFO@@U?$less@E@std@@V?$allocator@U?$pair@$$CBEPAU__TAXINFO@@@std@@@3@$0A@@std@@@2@@Z ENDP ; std::_Tree<std::_Tmap_traits<unsigned char,__TAXINFO *,std::less<unsigned char>,std::allocator<std::pair<unsigned char const ,__TAXINFO *> >,0> >::iterator::iterator
_TEXT	ENDS
PUBLIC	??Diterator@?$_Tree@V?$_Tmap_traits@EPAU__TAXINFO@@U?$less@E@std@@V?$allocator@U?$pair@$$CBEPAU__TAXINFO@@@std@@@3@$0A@@std@@@std@@QBEAAU?$pair@$$CBEPAU__TAXINFO@@@2@XZ ; std::_Tree<std::_Tmap_traits<unsigned char,__TAXINFO *,std::less<unsigned char>,std::allocator<std::pair<unsigned char const ,__TAXINFO *> >,0> >::iterator::operator*
; Function compile flags: /Ogty
;	COMDAT ??Diterator@?$_Tree@V?$_Tmap_traits@EPAU__TAXINFO@@U?$less@E@std@@V?$allocator@U?$pair@$$CBEPAU__TAXINFO@@@std@@@3@$0A@@std@@@std@@QBEAAU?$pair@$$CBEPAU__TAXINFO@@@2@XZ
_TEXT	SEGMENT
??Diterator@?$_Tree@V?$_Tmap_traits@EPAU__TAXINFO@@U?$less@E@std@@V?$allocator@U?$pair@$$CBEPAU__TAXINFO@@@std@@@3@$0A@@std@@@std@@QBEAAU?$pair@$$CBEPAU__TAXINFO@@@2@XZ PROC NEAR ; std::_Tree<std::_Tmap_traits<unsigned char,__TAXINFO *,std::less<unsigned char>,std::allocator<std::pair<unsigned char const ,__TAXINFO *> >,0> >::iterator::operator*, COMDAT
; _this$ = ecx

; 317  : 			return ((reference)**(const_iterator *)this);

  00000	8b 01		 mov	 eax, DWORD PTR [ecx]
  00002	83 c0 0c	 add	 eax, 12			; 0000000cH

; 318  : 			}

  00005	c3		 ret	 0
??Diterator@?$_Tree@V?$_Tmap_traits@EPAU__TAXINFO@@U?$less@E@std@@V?$allocator@U?$pair@$$CBEPAU__TAXINFO@@@std@@@3@$0A@@std@@@std@@QBEAAU?$pair@$$CBEPAU__TAXINFO@@@2@XZ ENDP ; std::_Tree<std::_Tmap_traits<unsigned char,__TAXINFO *,std::less<unsigned char>,std::allocator<std::pair<unsigned char const ,__TAXINFO *> >,0> >::iterator::operator*
_TEXT	ENDS
PUBLIC	?max_size@?$_Tree@V?$_Tmap_traits@EPAU__TAXDETAIL@@U?$less@E@std@@V?$allocator@U?$pair@$$CBEPAU__TAXDETAIL@@@std@@@3@$0A@@std@@@std@@QBEIXZ ; std::_Tree<std::_Tmap_traits<unsigned char,__TAXDETAIL *,std::less<unsigned char>,std::allocator<std::pair<unsigned char const ,__TAXDETAIL *> >,0> >::max_size
; Function compile flags: /Ogty
;	COMDAT ?max_size@?$_Tree@V?$_Tmap_traits@EPAU__TAXDETAIL@@U?$less@E@std@@V?$allocator@U?$pair@$$CBEPAU__TAXDETAIL@@@std@@@3@$0A@@std@@@std@@QBEIXZ
_TEXT	SEGMENT
?max_size@?$_Tree@V?$_Tmap_traits@EPAU__TAXDETAIL@@U?$less@E@std@@V?$allocator@U?$pair@$$CBEPAU__TAXDETAIL@@@std@@@3@$0A@@std@@@std@@QBEIXZ PROC NEAR ; std::_Tree<std::_Tmap_traits<unsigned char,__TAXDETAIL *,std::less<unsigned char>,std::allocator<std::pair<unsigned char const ,__TAXDETAIL *> >,0> >::max_size, COMDAT
; _this$ = ecx

; 453  : 		return (this->_Alval.max_size());

  00000	b8 ff ff ff 1f	 mov	 eax, 536870911		; 1fffffffH

; 454  : 		}

  00005	c3		 ret	 0
?max_size@?$_Tree@V?$_Tmap_traits@EPAU__TAXDETAIL@@U?$less@E@std@@V?$allocator@U?$pair@$$CBEPAU__TAXDETAIL@@@std@@@3@$0A@@std@@@std@@QBEIXZ ENDP ; std::_Tree<std::_Tmap_traits<unsigned char,__TAXDETAIL *,std::less<unsigned char>,std::allocator<std::pair<unsigned char const ,__TAXDETAIL *> >,0> >::max_size
_TEXT	ENDS
PUBLIC	?_Lbound@?$_Tree@V?$_Tmap_traits@EPAU__TAXDETAIL@@U?$less@E@std@@V?$allocator@U?$pair@$$CBEPAU__TAXDETAIL@@@std@@@3@$0A@@std@@@std@@IBEPAU_Node@?$_Tree_nod@V?$_Tmap_traits@EPAU__TAXDETAIL@@U?$less@E@std@@V?$allocator@U?$pair@$$CBEPAU__TAXDETAIL@@@std@@@3@$0A@@std@@@2@ABE@Z ; std::_Tree<std::_Tmap_traits<unsigned char,__TAXDETAIL *,std::less<unsigned char>,std::allocator<std::pair<unsigned char const ,__TAXDETAIL *> >,0> >::_Lbound
; Function compile flags: /Ogty
;	COMDAT ?_Lbound@?$_Tree@V?$_Tmap_traits@EPAU__TAXDETAIL@@U?$less@E@std@@V?$allocator@U?$pair@$$CBEPAU__TAXDETAIL@@@std@@@3@$0A@@std@@@std@@IBEPAU_Node@?$_Tree_nod@V?$_Tmap_traits@EPAU__TAXDETAIL@@U?$less@E@std@@V?$allocator@U?$pair@$$CBEPAU__TAXDETAIL@@@std@@@3@$0A@@std@@@2@ABE@Z
_TEXT	SEGMENT
__Keyval$ = 8						; size = 4
?_Lbound@?$_Tree@V?$_Tmap_traits@EPAU__TAXDETAIL@@U?$less@E@std@@V?$allocator@U?$pair@$$CBEPAU__TAXDETAIL@@@std@@@3@$0A@@std@@@std@@IBEPAU_Node@?$_Tree_nod@V?$_Tmap_traits@EPAU__TAXDETAIL@@U?$less@E@std@@V?$allocator@U?$pair@$$CBEPAU__TAXDETAIL@@@std@@@3@$0A@@std@@@2@ABE@Z PROC NEAR ; std::_Tree<std::_Tmap_traits<unsigned char,__TAXDETAIL *,std::less<unsigned char>,std::allocator<std::pair<unsigned char const ,__TAXDETAIL *> >,0> >::_Lbound, COMDAT
; _this$ = ecx

; 988  : 		_Nodeptr _Pnode = _Root();

  00000	8b 41 04	 mov	 eax, DWORD PTR [ecx+4]
  00003	8b 48 04	 mov	 ecx, DWORD PTR [eax+4]

; 989  : 		_Nodeptr _Wherenode = _Myhead;	// end() if search fails
; 990  : 
; 991  : 		while (!_Isnil(_Pnode))

  00006	8a 51 15	 mov	 dl, BYTE PTR [ecx+21]
  00009	84 d2		 test	 dl, dl
  0000b	75 1d		 jne	 SHORT $L209542
  0000d	8b 54 24 04	 mov	 edx, DWORD PTR __Keyval$[esp-4]
  00011	8a 12		 mov	 dl, BYTE PTR [edx]
  00013	53		 push	 ebx
$L209541:

; 992  : 			if (this->comp(_Key(_Pnode), _Keyval))

  00014	38 51 0c	 cmp	 BYTE PTR [ecx+12], dl
  00017	73 05		 jae	 SHORT $L209543

; 993  : 				_Pnode = _Right(_Pnode);	// descend right subtree

  00019	8b 49 08	 mov	 ecx, DWORD PTR [ecx+8]

; 994  : 			else

  0001c	eb 04		 jmp	 SHORT $L209544
$L209543:

; 995  : 				{	// _Pnode not less than _Keyval, remember it
; 996  : 				_Wherenode = _Pnode;

  0001e	8b c1		 mov	 eax, ecx

; 997  : 				_Pnode = _Left(_Pnode);	// descend left subtree

  00020	8b 09		 mov	 ecx, DWORD PTR [ecx]
$L209544:
  00022	8a 59 15	 mov	 bl, BYTE PTR [ecx+21]
  00025	84 db		 test	 bl, bl
  00027	74 eb		 je	 SHORT $L209541
  00029	5b		 pop	 ebx
$L209542:

; 998  : 				}
; 999  : 
; 1000 : 		return (_Wherenode);	// return best remembered candidate
; 1001 : 		}

  0002a	c2 04 00	 ret	 4
?_Lbound@?$_Tree@V?$_Tmap_traits@EPAU__TAXDETAIL@@U?$less@E@std@@V?$allocator@U?$pair@$$CBEPAU__TAXDETAIL@@@std@@@3@$0A@@std@@@std@@IBEPAU_Node@?$_Tree_nod@V?$_Tmap_traits@EPAU__TAXDETAIL@@U?$less@E@std@@V?$allocator@U?$pair@$$CBEPAU__TAXDETAIL@@@std@@@3@$0A@@std@@@2@ABE@Z ENDP ; std::_Tree<std::_Tmap_traits<unsigned char,__TAXDETAIL *,std::less<unsigned char>,std::allocator<std::pair<unsigned char const ,__TAXDETAIL *> >,0> >::_Lbound
_TEXT	ENDS
PUBLIC	?_Lrotate@?$_Tree@V?$_Tmap_traits@EPAU__TAXDETAIL@@U?$less@E@std@@V?$allocator@U?$pair@$$CBEPAU__TAXDETAIL@@@std@@@3@$0A@@std@@@std@@IAEXPAU_Node@?$_Tree_nod@V?$_Tmap_traits@EPAU__TAXDETAIL@@U?$less@E@std@@V?$allocator@U?$pair@$$CBEPAU__TAXDETAIL@@@std@@@3@$0A@@std@@@2@@Z ; std::_Tree<std::_Tmap_traits<unsigned char,__TAXDETAIL *,std::less<unsigned char>,std::allocator<std::pair<unsigned char const ,__TAXDETAIL *> >,0> >::_Lrotate
; Function compile flags: /Ogty
;	COMDAT ?_Lrotate@?$_Tree@V?$_Tmap_traits@EPAU__TAXDETAIL@@U?$less@E@std@@V?$allocator@U?$pair@$$CBEPAU__TAXDETAIL@@@std@@@3@$0A@@std@@@std@@IAEXPAU_Node@?$_Tree_nod@V?$_Tmap_traits@EPAU__TAXDETAIL@@U?$less@E@std@@V?$allocator@U?$pair@$$CBEPAU__TAXDETAIL@@@std@@@3@$0A@@std@@@2@@Z
_TEXT	SEGMENT
__Wherenode$ = 8					; size = 4
?_Lrotate@?$_Tree@V?$_Tmap_traits@EPAU__TAXDETAIL@@U?$less@E@std@@V?$allocator@U?$pair@$$CBEPAU__TAXDETAIL@@@std@@@3@$0A@@std@@@std@@IAEXPAU_Node@?$_Tree_nod@V?$_Tmap_traits@EPAU__TAXDETAIL@@U?$less@E@std@@V?$allocator@U?$pair@$$CBEPAU__TAXDETAIL@@@std@@@3@$0A@@std@@@2@@Z PROC NEAR ; std::_Tree<std::_Tmap_traits<unsigned char,__TAXDETAIL *,std::less<unsigned char>,std::allocator<std::pair<unsigned char const ,__TAXDETAIL *> >,0> >::_Lrotate, COMDAT
; _this$ = ecx

; 1015 : 		_Nodeptr _Pnode = _Right(_Wherenode);

  00000	8b 54 24 04	 mov	 edx, DWORD PTR __Wherenode$[esp-4]
  00004	8b 42 08	 mov	 eax, DWORD PTR [edx+8]
  00007	53		 push	 ebx
  00008	56		 push	 esi

; 1016 : 		_Right(_Wherenode) = _Left(_Pnode);

  00009	8b 30		 mov	 esi, DWORD PTR [eax]
  0000b	89 72 08	 mov	 DWORD PTR [edx+8], esi

; 1017 : 
; 1018 : 		if (!_Isnil(_Left(_Pnode)))

  0000e	8b 30		 mov	 esi, DWORD PTR [eax]
  00010	8a 5e 15	 mov	 bl, BYTE PTR [esi+21]
  00013	84 db		 test	 bl, bl
  00015	75 03		 jne	 SHORT $L209548

; 1019 : 			_Parent(_Left(_Pnode)) = _Wherenode;

  00017	89 56 04	 mov	 DWORD PTR [esi+4], edx
$L209548:

; 1020 : 		_Parent(_Pnode) = _Parent(_Wherenode);

  0001a	8b 72 04	 mov	 esi, DWORD PTR [edx+4]
  0001d	89 70 04	 mov	 DWORD PTR [eax+4], esi

; 1021 : 
; 1022 : 		if (_Wherenode == _Root())

  00020	8b 49 04	 mov	 ecx, DWORD PTR [ecx+4]
  00023	3b 51 04	 cmp	 edx, DWORD PTR [ecx+4]
  00026	75 0d		 jne	 SHORT $L209549

; 1023 : 			_Root() = _Pnode;

  00028	89 41 04	 mov	 DWORD PTR [ecx+4], eax
  0002b	5e		 pop	 esi

; 1028 : 
; 1029 : 		_Left(_Pnode) = _Wherenode;

  0002c	89 10		 mov	 DWORD PTR [eax], edx

; 1030 : 		_Parent(_Wherenode) = _Pnode;

  0002e	89 42 04	 mov	 DWORD PTR [edx+4], eax
  00031	5b		 pop	 ebx

; 1031 : 		}

  00032	c2 04 00	 ret	 4
$L209549:

; 1024 : 		else if (_Wherenode == _Left(_Parent(_Wherenode)))

  00035	8b 4a 04	 mov	 ecx, DWORD PTR [edx+4]
  00038	3b 11		 cmp	 edx, DWORD PTR [ecx]
  0003a	75 0c		 jne	 SHORT $L209551

; 1025 : 			_Left(_Parent(_Wherenode)) = _Pnode;

  0003c	89 01		 mov	 DWORD PTR [ecx], eax
  0003e	5e		 pop	 esi

; 1028 : 
; 1029 : 		_Left(_Pnode) = _Wherenode;

  0003f	89 10		 mov	 DWORD PTR [eax], edx

; 1030 : 		_Parent(_Wherenode) = _Pnode;

  00041	89 42 04	 mov	 DWORD PTR [edx+4], eax
  00044	5b		 pop	 ebx

; 1031 : 		}

  00045	c2 04 00	 ret	 4
$L209551:

; 1026 : 		else
; 1027 : 			_Right(_Parent(_Wherenode)) = _Pnode;

  00048	89 41 08	 mov	 DWORD PTR [ecx+8], eax
  0004b	5e		 pop	 esi

; 1028 : 
; 1029 : 		_Left(_Pnode) = _Wherenode;

  0004c	89 10		 mov	 DWORD PTR [eax], edx

; 1030 : 		_Parent(_Wherenode) = _Pnode;

  0004e	89 42 04	 mov	 DWORD PTR [edx+4], eax
  00051	5b		 pop	 ebx

; 1031 : 		}

  00052	c2 04 00	 ret	 4
?_Lrotate@?$_Tree@V?$_Tmap_traits@EPAU__TAXDETAIL@@U?$less@E@std@@V?$allocator@U?$pair@$$CBEPAU__TAXDETAIL@@@std@@@3@$0A@@std@@@std@@IAEXPAU_Node@?$_Tree_nod@V?$_Tmap_traits@EPAU__TAXDETAIL@@U?$less@E@std@@V?$allocator@U?$pair@$$CBEPAU__TAXDETAIL@@@std@@@3@$0A@@std@@@2@@Z ENDP ; std::_Tree<std::_Tmap_traits<unsigned char,__TAXDETAIL *,std::less<unsigned char>,std::allocator<std::pair<unsigned char const ,__TAXDETAIL *> >,0> >::_Lrotate
_TEXT	ENDS
PUBLIC	?_Rrotate@?$_Tree@V?$_Tmap_traits@EPAU__TAXDETAIL@@U?$less@E@std@@V?$allocator@U?$pair@$$CBEPAU__TAXDETAIL@@@std@@@3@$0A@@std@@@std@@IAEXPAU_Node@?$_Tree_nod@V?$_Tmap_traits@EPAU__TAXDETAIL@@U?$less@E@std@@V?$allocator@U?$pair@$$CBEPAU__TAXDETAIL@@@std@@@3@$0A@@std@@@2@@Z ; std::_Tree<std::_Tmap_traits<unsigned char,__TAXDETAIL *,std::less<unsigned char>,std::allocator<std::pair<unsigned char const ,__TAXDETAIL *> >,0> >::_Rrotate
; Function compile flags: /Ogty
;	COMDAT ?_Rrotate@?$_Tree@V?$_Tmap_traits@EPAU__TAXDETAIL@@U?$less@E@std@@V?$allocator@U?$pair@$$CBEPAU__TAXDETAIL@@@std@@@3@$0A@@std@@@std@@IAEXPAU_Node@?$_Tree_nod@V?$_Tmap_traits@EPAU__TAXDETAIL@@U?$less@E@std@@V?$allocator@U?$pair@$$CBEPAU__TAXDETAIL@@@std@@@3@$0A@@std@@@2@@Z
_TEXT	SEGMENT
__Wherenode$ = 8					; size = 4
?_Rrotate@?$_Tree@V?$_Tmap_traits@EPAU__TAXDETAIL@@U?$less@E@std@@V?$allocator@U?$pair@$$CBEPAU__TAXDETAIL@@@std@@@3@$0A@@std@@@std@@IAEXPAU_Node@?$_Tree_nod@V?$_Tmap_traits@EPAU__TAXDETAIL@@U?$less@E@std@@V?$allocator@U?$pair@$$CBEPAU__TAXDETAIL@@@std@@@3@$0A@@std@@@2@@Z PROC NEAR ; std::_Tree<std::_Tmap_traits<unsigned char,__TAXDETAIL *,std::less<unsigned char>,std::allocator<std::pair<unsigned char const ,__TAXDETAIL *> >,0> >::_Rrotate, COMDAT
; _this$ = ecx

; 1069 : 		_Nodeptr _Pnode = _Left(_Wherenode);

  00000	8b 54 24 04	 mov	 edx, DWORD PTR __Wherenode$[esp-4]
  00004	8b 02		 mov	 eax, DWORD PTR [edx]
  00006	53		 push	 ebx
  00007	56		 push	 esi

; 1070 : 		_Left(_Wherenode) = _Right(_Pnode);

  00008	8b 70 08	 mov	 esi, DWORD PTR [eax+8]
  0000b	89 32		 mov	 DWORD PTR [edx], esi

; 1071 : 
; 1072 : 		if (!_Isnil(_Right(_Pnode)))

  0000d	8b 70 08	 mov	 esi, DWORD PTR [eax+8]
  00010	8a 5e 15	 mov	 bl, BYTE PTR [esi+21]
  00013	84 db		 test	 bl, bl
  00015	75 03		 jne	 SHORT $L209558

; 1073 : 			_Parent(_Right(_Pnode)) = _Wherenode;

  00017	89 56 04	 mov	 DWORD PTR [esi+4], edx
$L209558:

; 1074 : 		_Parent(_Pnode) = _Parent(_Wherenode);

  0001a	8b 72 04	 mov	 esi, DWORD PTR [edx+4]
  0001d	89 70 04	 mov	 DWORD PTR [eax+4], esi

; 1075 : 
; 1076 : 		if (_Wherenode == _Root())

  00020	8b 49 04	 mov	 ecx, DWORD PTR [ecx+4]
  00023	3b 51 04	 cmp	 edx, DWORD PTR [ecx+4]
  00026	75 0e		 jne	 SHORT $L209559

; 1077 : 			_Root() = _Pnode;

  00028	89 41 04	 mov	 DWORD PTR [ecx+4], eax
  0002b	5e		 pop	 esi

; 1082 : 
; 1083 : 		_Right(_Pnode) = _Wherenode;

  0002c	89 50 08	 mov	 DWORD PTR [eax+8], edx

; 1084 : 		_Parent(_Wherenode) = _Pnode;

  0002f	89 42 04	 mov	 DWORD PTR [edx+4], eax
  00032	5b		 pop	 ebx

; 1085 : 		}

  00033	c2 04 00	 ret	 4
$L209559:

; 1078 : 		else if (_Wherenode == _Right(_Parent(_Wherenode)))

  00036	8b 4a 04	 mov	 ecx, DWORD PTR [edx+4]
  00039	3b 51 08	 cmp	 edx, DWORD PTR [ecx+8]
  0003c	75 0e		 jne	 SHORT $L209561

; 1079 : 			_Right(_Parent(_Wherenode)) = _Pnode;

  0003e	89 41 08	 mov	 DWORD PTR [ecx+8], eax
  00041	5e		 pop	 esi

; 1082 : 
; 1083 : 		_Right(_Pnode) = _Wherenode;

  00042	89 50 08	 mov	 DWORD PTR [eax+8], edx

; 1084 : 		_Parent(_Wherenode) = _Pnode;

  00045	89 42 04	 mov	 DWORD PTR [edx+4], eax
  00048	5b		 pop	 ebx

; 1085 : 		}

  00049	c2 04 00	 ret	 4
$L209561:

; 1080 : 		else
; 1081 : 			_Left(_Parent(_Wherenode)) = _Pnode;

  0004c	89 01		 mov	 DWORD PTR [ecx], eax
  0004e	5e		 pop	 esi

; 1082 : 
; 1083 : 		_Right(_Pnode) = _Wherenode;

  0004f	89 50 08	 mov	 DWORD PTR [eax+8], edx

; 1084 : 		_Parent(_Wherenode) = _Pnode;

  00052	89 42 04	 mov	 DWORD PTR [edx+4], eax
  00055	5b		 pop	 ebx

; 1085 : 		}

  00056	c2 04 00	 ret	 4
?_Rrotate@?$_Tree@V?$_Tmap_traits@EPAU__TAXDETAIL@@U?$less@E@std@@V?$allocator@U?$pair@$$CBEPAU__TAXDETAIL@@@std@@@3@$0A@@std@@@std@@IAEXPAU_Node@?$_Tree_nod@V?$_Tmap_traits@EPAU__TAXDETAIL@@U?$less@E@std@@V?$allocator@U?$pair@$$CBEPAU__TAXDETAIL@@@std@@@3@$0A@@std@@@2@@Z ENDP ; std::_Tree<std::_Tmap_traits<unsigned char,__TAXDETAIL *,std::less<unsigned char>,std::allocator<std::pair<unsigned char const ,__TAXDETAIL *> >,0> >::_Rrotate
_TEXT	ENDS
PUBLIC	?destroy@?$allocator@PAU_Node@?$_Tree_nod@V?$_Tmap_traits@EPAU__TAXDETAIL@@U?$less@E@std@@V?$allocator@U?$pair@$$CBEPAU__TAXDETAIL@@@std@@@3@$0A@@std@@@std@@@std@@QAEXPAPAU_Node@?$_Tree_nod@V?$_Tmap_traits@EPAU__TAXDETAIL@@U?$less@E@std@@V?$allocator@U?$pair@$$CBEPAU__TAXDETAIL@@@std@@@3@$0A@@std@@@2@@Z ; std::allocator<std::_Tree_nod<std::_Tmap_traits<unsigned char,__TAXDETAIL *,std::less<unsigned char>,std::allocator<std::pair<unsigned char const ,__TAXDETAIL *> >,0> >::_Node *>::destroy
; Function compile flags: /Ogty
; File c:\program files\microsoft visual studio .net 2003\vc7\include\xmemory
;	COMDAT ?destroy@?$allocator@PAU_Node@?$_Tree_nod@V?$_Tmap_traits@EPAU__TAXDETAIL@@U?$less@E@std@@V?$allocator@U?$pair@$$CBEPAU__TAXDETAIL@@@std@@@3@$0A@@std@@@std@@@std@@QAEXPAPAU_Node@?$_Tree_nod@V?$_Tmap_traits@EPAU__TAXDETAIL@@U?$less@E@std@@V?$allocator@U?$pair@$$CBEPAU__TAXDETAIL@@@std@@@3@$0A@@std@@@2@@Z
_TEXT	SEGMENT
__Ptr$ = 8						; size = 4
?destroy@?$allocator@PAU_Node@?$_Tree_nod@V?$_Tmap_traits@EPAU__TAXDETAIL@@U?$less@E@std@@V?$allocator@U?$pair@$$CBEPAU__TAXDETAIL@@@std@@@3@$0A@@std@@@std@@@std@@QAEXPAPAU_Node@?$_Tree_nod@V?$_Tmap_traits@EPAU__TAXDETAIL@@U?$less@E@std@@V?$allocator@U?$pair@$$CBEPAU__TAXDETAIL@@@std@@@3@$0A@@std@@@2@@Z PROC NEAR ; std::allocator<std::_Tree_nod<std::_Tmap_traits<unsigned char,__TAXDETAIL *,std::less<unsigned char>,std::allocator<std::pair<unsigned char const ,__TAXDETAIL *> >,0> >::_Node *>::destroy, COMDAT
; _this$ = ecx

; 152  : 		_Destroy(_Ptr);
; 153  : 		}

  00000	c2 04 00	 ret	 4
?destroy@?$allocator@PAU_Node@?$_Tree_nod@V?$_Tmap_traits@EPAU__TAXDETAIL@@U?$less@E@std@@V?$allocator@U?$pair@$$CBEPAU__TAXDETAIL@@@std@@@3@$0A@@std@@@std@@@std@@QAEXPAPAU_Node@?$_Tree_nod@V?$_Tmap_traits@EPAU__TAXDETAIL@@U?$less@E@std@@V?$allocator@U?$pair@$$CBEPAU__TAXDETAIL@@@std@@@3@$0A@@std@@@2@@Z ENDP ; std::allocator<std::_Tree_nod<std::_Tmap_traits<unsigned char,__TAXDETAIL *,std::less<unsigned char>,std::allocator<std::pair<unsigned char const ,__TAXDETAIL *> >,0> >::_Node *>::destroy
_TEXT	ENDS
PUBLIC	?max_size@?$_Tree@V?$_Tmap_traits@EPAU__TAXINFO@@U?$less@E@std@@V?$allocator@U?$pair@$$CBEPAU__TAXINFO@@@std@@@3@$0A@@std@@@std@@QBEIXZ ; std::_Tree<std::_Tmap_traits<unsigned char,__TAXINFO *,std::less<unsigned char>,std::allocator<std::pair<unsigned char const ,__TAXINFO *> >,0> >::max_size
; Function compile flags: /Ogty
; File c:\program files\microsoft visual studio .net 2003\vc7\include\xtree
;	COMDAT ?max_size@?$_Tree@V?$_Tmap_traits@EPAU__TAXINFO@@U?$less@E@std@@V?$allocator@U?$pair@$$CBEPAU__TAXINFO@@@std@@@3@$0A@@std@@@std@@QBEIXZ
_TEXT	SEGMENT
?max_size@?$_Tree@V?$_Tmap_traits@EPAU__TAXINFO@@U?$less@E@std@@V?$allocator@U?$pair@$$CBEPAU__TAXINFO@@@std@@@3@$0A@@std@@@std@@QBEIXZ PROC NEAR ; std::_Tree<std::_Tmap_traits<unsigned char,__TAXINFO *,std::less<unsigned char>,std::allocator<std::pair<unsigned char const ,__TAXINFO *> >,0> >::max_size, COMDAT
; _this$ = ecx

; 453  : 		return (this->_Alval.max_size());

  00000	b8 ff ff ff 1f	 mov	 eax, 536870911		; 1fffffffH

; 454  : 		}

  00005	c3		 ret	 0
?max_size@?$_Tree@V?$_Tmap_traits@EPAU__TAXINFO@@U?$less@E@std@@V?$allocator@U?$pair@$$CBEPAU__TAXINFO@@@std@@@3@$0A@@std@@@std@@QBEIXZ ENDP ; std::_Tree<std::_Tmap_traits<unsigned char,__TAXINFO *,std::less<unsigned char>,std::allocator<std::pair<unsigned char const ,__TAXINFO *> >,0> >::max_size
_TEXT	ENDS
PUBLIC	?_Lbound@?$_Tree@V?$_Tmap_traits@EPAU__TAXINFO@@U?$less@E@std@@V?$allocator@U?$pair@$$CBEPAU__TAXINFO@@@std@@@3@$0A@@std@@@std@@IBEPAU_Node@?$_Tree_nod@V?$_Tmap_traits@EPAU__TAXINFO@@U?$less@E@std@@V?$allocator@U?$pair@$$CBEPAU__TAXINFO@@@std@@@3@$0A@@std@@@2@ABE@Z ; std::_Tree<std::_Tmap_traits<unsigned char,__TAXINFO *,std::less<unsigned char>,std::allocator<std::pair<unsigned char const ,__TAXINFO *> >,0> >::_Lbound
; Function compile flags: /Ogty
;	COMDAT ?_Lbound@?$_Tree@V?$_Tmap_traits@EPAU__TAXINFO@@U?$less@E@std@@V?$allocator@U?$pair@$$CBEPAU__TAXINFO@@@std@@@3@$0A@@std@@@std@@IBEPAU_Node@?$_Tree_nod@V?$_Tmap_traits@EPAU__TAXINFO@@U?$less@E@std@@V?$allocator@U?$pair@$$CBEPAU__TAXINFO@@@std@@@3@$0A@@std@@@2@ABE@Z
_TEXT	SEGMENT
__Keyval$ = 8						; size = 4
?_Lbound@?$_Tree@V?$_Tmap_traits@EPAU__TAXINFO@@U?$less@E@std@@V?$allocator@U?$pair@$$CBEPAU__TAXINFO@@@std@@@3@$0A@@std@@@std@@IBEPAU_Node@?$_Tree_nod@V?$_Tmap_traits@EPAU__TAXINFO@@U?$less@E@std@@V?$allocator@U?$pair@$$CBEPAU__TAXINFO@@@std@@@3@$0A@@std@@@2@ABE@Z PROC NEAR ; std::_Tree<std::_Tmap_traits<unsigned char,__TAXINFO *,std::less<unsigned char>,std::allocator<std::pair<unsigned char const ,__TAXINFO *> >,0> >::_Lbound, COMDAT
; _this$ = ecx

; 988  : 		_Nodeptr _Pnode = _Root();

  00000	8b 41 04	 mov	 eax, DWORD PTR [ecx+4]
  00003	8b 48 04	 mov	 ecx, DWORD PTR [eax+4]

; 989  : 		_Nodeptr _Wherenode = _Myhead;	// end() if search fails
; 990  : 
; 991  : 		while (!_Isnil(_Pnode))

  00006	8a 51 15	 mov	 dl, BYTE PTR [ecx+21]
  00009	84 d2		 test	 dl, dl
  0000b	75 1d		 jne	 SHORT $L209622
  0000d	8b 54 24 04	 mov	 edx, DWORD PTR __Keyval$[esp-4]
  00011	8a 12		 mov	 dl, BYTE PTR [edx]
  00013	53		 push	 ebx
$L209621:

; 992  : 			if (this->comp(_Key(_Pnode), _Keyval))

  00014	38 51 0c	 cmp	 BYTE PTR [ecx+12], dl
  00017	73 05		 jae	 SHORT $L209623

; 993  : 				_Pnode = _Right(_Pnode);	// descend right subtree

  00019	8b 49 08	 mov	 ecx, DWORD PTR [ecx+8]

; 994  : 			else

  0001c	eb 04		 jmp	 SHORT $L209624
$L209623:

; 995  : 				{	// _Pnode not less than _Keyval, remember it
; 996  : 				_Wherenode = _Pnode;

  0001e	8b c1		 mov	 eax, ecx

; 997  : 				_Pnode = _Left(_Pnode);	// descend left subtree

  00020	8b 09		 mov	 ecx, DWORD PTR [ecx]
$L209624:
  00022	8a 59 15	 mov	 bl, BYTE PTR [ecx+21]
  00025	84 db		 test	 bl, bl
  00027	74 eb		 je	 SHORT $L209621
  00029	5b		 pop	 ebx
$L209622:

; 998  : 				}
; 999  : 
; 1000 : 		return (_Wherenode);	// return best remembered candidate
; 1001 : 		}

  0002a	c2 04 00	 ret	 4
?_Lbound@?$_Tree@V?$_Tmap_traits@EPAU__TAXINFO@@U?$less@E@std@@V?$allocator@U?$pair@$$CBEPAU__TAXINFO@@@std@@@3@$0A@@std@@@std@@IBEPAU_Node@?$_Tree_nod@V?$_Tmap_traits@EPAU__TAXINFO@@U?$less@E@std@@V?$allocator@U?$pair@$$CBEPAU__TAXINFO@@@std@@@3@$0A@@std@@@2@ABE@Z ENDP ; std::_Tree<std::_Tmap_traits<unsigned char,__TAXINFO *,std::less<unsigned char>,std::allocator<std::pair<unsigned char const ,__TAXINFO *> >,0> >::_Lbound
_TEXT	ENDS
PUBLIC	?_Lrotate@?$_Tree@V?$_Tmap_traits@EPAU__TAXINFO@@U?$less@E@std@@V?$allocator@U?$pair@$$CBEPAU__TAXINFO@@@std@@@3@$0A@@std@@@std@@IAEXPAU_Node@?$_Tree_nod@V?$_Tmap_traits@EPAU__TAXINFO@@U?$less@E@std@@V?$allocator@U?$pair@$$CBEPAU__TAXINFO@@@std@@@3@$0A@@std@@@2@@Z ; std::_Tree<std::_Tmap_traits<unsigned char,__TAXINFO *,std::less<unsigned char>,std::allocator<std::pair<unsigned char const ,__TAXINFO *> >,0> >::_Lrotate
; Function compile flags: /Ogty
;	COMDAT ?_Lrotate@?$_Tree@V?$_Tmap_traits@EPAU__TAXINFO@@U?$less@E@std@@V?$allocator@U?$pair@$$CBEPAU__TAXINFO@@@std@@@3@$0A@@std@@@std@@IAEXPAU_Node@?$_Tree_nod@V?$_Tmap_traits@EPAU__TAXINFO@@U?$less@E@std@@V?$allocator@U?$pair@$$CBEPAU__TAXINFO@@@std@@@3@$0A@@std@@@2@@Z
_TEXT	SEGMENT
__Wherenode$ = 8					; size = 4
?_Lrotate@?$_Tree@V?$_Tmap_traits@EPAU__TAXINFO@@U?$less@E@std@@V?$allocator@U?$pair@$$CBEPAU__TAXINFO@@@std@@@3@$0A@@std@@@std@@IAEXPAU_Node@?$_Tree_nod@V?$_Tmap_traits@EPAU__TAXINFO@@U?$less@E@std@@V?$allocator@U?$pair@$$CBEPAU__TAXINFO@@@std@@@3@$0A@@std@@@2@@Z PROC NEAR ; std::_Tree<std::_Tmap_traits<unsigned char,__TAXINFO *,std::less<unsigned char>,std::allocator<std::pair<unsigned char const ,__TAXINFO *> >,0> >::_Lrotate, COMDAT
; _this$ = ecx

; 1015 : 		_Nodeptr _Pnode = _Right(_Wherenode);

  00000	8b 54 24 04	 mov	 edx, DWORD PTR __Wherenode$[esp-4]
  00004	8b 42 08	 mov	 eax, DWORD PTR [edx+8]
  00007	53		 push	 ebx
  00008	56		 push	 esi

; 1016 : 		_Right(_Wherenode) = _Left(_Pnode);

  00009	8b 30		 mov	 esi, DWORD PTR [eax]
  0000b	89 72 08	 mov	 DWORD PTR [edx+8], esi

; 1017 : 
; 1018 : 		if (!_Isnil(_Left(_Pnode)))

  0000e	8b 30		 mov	 esi, DWORD PTR [eax]
  00010	8a 5e 15	 mov	 bl, BYTE PTR [esi+21]
  00013	84 db		 test	 bl, bl
  00015	75 03		 jne	 SHORT $L209628

; 1019 : 			_Parent(_Left(_Pnode)) = _Wherenode;

  00017	89 56 04	 mov	 DWORD PTR [esi+4], edx
$L209628:

; 1020 : 		_Parent(_Pnode) = _Parent(_Wherenode);

  0001a	8b 72 04	 mov	 esi, DWORD PTR [edx+4]
  0001d	89 70 04	 mov	 DWORD PTR [eax+4], esi

; 1021 : 
; 1022 : 		if (_Wherenode == _Root())

  00020	8b 49 04	 mov	 ecx, DWORD PTR [ecx+4]
  00023	3b 51 04	 cmp	 edx, DWORD PTR [ecx+4]
  00026	75 0d		 jne	 SHORT $L209629

; 1023 : 			_Root() = _Pnode;

  00028	89 41 04	 mov	 DWORD PTR [ecx+4], eax
  0002b	5e		 pop	 esi

; 1028 : 
; 1029 : 		_Left(_Pnode) = _Wherenode;

  0002c	89 10		 mov	 DWORD PTR [eax], edx

; 1030 : 		_Parent(_Wherenode) = _Pnode;

  0002e	89 42 04	 mov	 DWORD PTR [edx+4], eax
  00031	5b		 pop	 ebx

; 1031 : 		}

  00032	c2 04 00	 ret	 4
$L209629:

; 1024 : 		else if (_Wherenode == _Left(_Parent(_Wherenode)))

  00035	8b 4a 04	 mov	 ecx, DWORD PTR [edx+4]
  00038	3b 11		 cmp	 edx, DWORD PTR [ecx]
  0003a	75 0c		 jne	 SHORT $L209631

; 1025 : 			_Left(_Parent(_Wherenode)) = _Pnode;

  0003c	89 01		 mov	 DWORD PTR [ecx], eax
  0003e	5e		 pop	 esi

; 1028 : 
; 1029 : 		_Left(_Pnode) = _Wherenode;

  0003f	89 10		 mov	 DWORD PTR [eax], edx

; 1030 : 		_Parent(_Wherenode) = _Pnode;

  00041	89 42 04	 mov	 DWORD PTR [edx+4], eax
  00044	5b		 pop	 ebx

; 1031 : 		}

  00045	c2 04 00	 ret	 4
$L209631:

; 1026 : 		else
; 1027 : 			_Right(_Parent(_Wherenode)) = _Pnode;

  00048	89 41 08	 mov	 DWORD PTR [ecx+8], eax
  0004b	5e		 pop	 esi

; 1028 : 
; 1029 : 		_Left(_Pnode) = _Wherenode;

  0004c	89 10		 mov	 DWORD PTR [eax], edx

; 1030 : 		_Parent(_Wherenode) = _Pnode;

  0004e	89 42 04	 mov	 DWORD PTR [edx+4], eax
  00051	5b		 pop	 ebx

; 1031 : 		}

  00052	c2 04 00	 ret	 4
?_Lrotate@?$_Tree@V?$_Tmap_traits@EPAU__TAXINFO@@U?$less@E@std@@V?$allocator@U?$pair@$$CBEPAU__TAXINFO@@@std@@@3@$0A@@std@@@std@@IAEXPAU_Node@?$_Tree_nod@V?$_Tmap_traits@EPAU__TAXINFO@@U?$less@E@std@@V?$allocator@U?$pair@$$CBEPAU__TAXINFO@@@std@@@3@$0A@@std@@@2@@Z ENDP ; std::_Tree<std::_Tmap_traits<unsigned char,__TAXINFO *,std::less<unsigned char>,std::allocator<std::pair<unsigned char const ,__TAXINFO *> >,0> >::_Lrotate
_TEXT	ENDS
PUBLIC	?_Rrotate@?$_Tree@V?$_Tmap_traits@EPAU__TAXINFO@@U?$less@E@std@@V?$allocator@U?$pair@$$CBEPAU__TAXINFO@@@std@@@3@$0A@@std@@@std@@IAEXPAU_Node@?$_Tree_nod@V?$_Tmap_traits@EPAU__TAXINFO@@U?$less@E@std@@V?$allocator@U?$pair@$$CBEPAU__TAXINFO@@@std@@@3@$0A@@std@@@2@@Z ; std::_Tree<std::_Tmap_traits<unsigned char,__TAXINFO *,std::less<unsigned char>,std::allocator<std::pair<unsigned char const ,__TAXINFO *> >,0> >::_Rrotate
; Function compile flags: /Ogty
;	COMDAT ?_Rrotate@?$_Tree@V?$_Tmap_traits@EPAU__TAXINFO@@U?$less@E@std@@V?$allocator@U?$pair@$$CBEPAU__TAXINFO@@@std@@@3@$0A@@std@@@std@@IAEXPAU_Node@?$_Tree_nod@V?$_Tmap_traits@EPAU__TAXINFO@@U?$less@E@std@@V?$allocator@U?$pair@$$CBEPAU__TAXINFO@@@std@@@3@$0A@@std@@@2@@Z
_TEXT	SEGMENT
__Wherenode$ = 8					; size = 4
?_Rrotate@?$_Tree@V?$_Tmap_traits@EPAU__TAXINFO@@U?$less@E@std@@V?$allocator@U?$pair@$$CBEPAU__TAXINFO@@@std@@@3@$0A@@std@@@std@@IAEXPAU_Node@?$_Tree_nod@V?$_Tmap_traits@EPAU__TAXINFO@@U?$less@E@std@@V?$allocator@U?$pair@$$CBEPAU__TAXINFO@@@std@@@3@$0A@@std@@@2@@Z PROC NEAR ; std::_Tree<std::_Tmap_traits<unsigned char,__TAXINFO *,std::less<unsigned char>,std::allocator<std::pair<unsigned char const ,__TAXINFO *> >,0> >::_Rrotate, COMDAT
; _this$ = ecx

; 1069 : 		_Nodeptr _Pnode = _Left(_Wherenode);

  00000	8b 54 24 04	 mov	 edx, DWORD PTR __Wherenode$[esp-4]
  00004	8b 02		 mov	 eax, DWORD PTR [edx]
  00006	53		 push	 ebx
  00007	56		 push	 esi

; 1070 : 		_Left(_Wherenode) = _Right(_Pnode);

  00008	8b 70 08	 mov	 esi, DWORD PTR [eax+8]
  0000b	89 32		 mov	 DWORD PTR [edx], esi

; 1071 : 
; 1072 : 		if (!_Isnil(_Right(_Pnode)))

  0000d	8b 70 08	 mov	 esi, DWORD PTR [eax+8]
  00010	8a 5e 15	 mov	 bl, BYTE PTR [esi+21]
  00013	84 db		 test	 bl, bl
  00015	75 03		 jne	 SHORT $L209636

; 1073 : 			_Parent(_Right(_Pnode)) = _Wherenode;

  00017	89 56 04	 mov	 DWORD PTR [esi+4], edx
$L209636:

; 1074 : 		_Parent(_Pnode) = _Parent(_Wherenode);

  0001a	8b 72 04	 mov	 esi, DWORD PTR [edx+4]
  0001d	89 70 04	 mov	 DWORD PTR [eax+4], esi

; 1075 : 
; 1076 : 		if (_Wherenode == _Root())

  00020	8b 49 04	 mov	 ecx, DWORD PTR [ecx+4]
  00023	3b 51 04	 cmp	 edx, DWORD PTR [ecx+4]
  00026	75 0e		 jne	 SHORT $L209637

; 1077 : 			_Root() = _Pnode;

  00028	89 41 04	 mov	 DWORD PTR [ecx+4], eax
  0002b	5e		 pop	 esi

; 1082 : 
; 1083 : 		_Right(_Pnode) = _Wherenode;

  0002c	89 50 08	 mov	 DWORD PTR [eax+8], edx

; 1084 : 		_Parent(_Wherenode) = _Pnode;

  0002f	89 42 04	 mov	 DWORD PTR [edx+4], eax
  00032	5b		 pop	 ebx

; 1085 : 		}

  00033	c2 04 00	 ret	 4
$L209637:

; 1078 : 		else if (_Wherenode == _Right(_Parent(_Wherenode)))

  00036	8b 4a 04	 mov	 ecx, DWORD PTR [edx+4]
  00039	3b 51 08	 cmp	 edx, DWORD PTR [ecx+8]
  0003c	75 0e		 jne	 SHORT $L209639

; 1079 : 			_Right(_Parent(_Wherenode)) = _Pnode;

  0003e	89 41 08	 mov	 DWORD PTR [ecx+8], eax
  00041	5e		 pop	 esi

; 1082 : 
; 1083 : 		_Right(_Pnode) = _Wherenode;

  00042	89 50 08	 mov	 DWORD PTR [eax+8], edx

; 1084 : 		_Parent(_Wherenode) = _Pnode;

  00045	89 42 04	 mov	 DWORD PTR [edx+4], eax
  00048	5b		 pop	 ebx

; 1085 : 		}

  00049	c2 04 00	 ret	 4
$L209639:

; 1080 : 		else
; 1081 : 			_Left(_Parent(_Wherenode)) = _Pnode;

  0004c	89 01		 mov	 DWORD PTR [ecx], eax
  0004e	5e		 pop	 esi

; 1082 : 
; 1083 : 		_Right(_Pnode) = _Wherenode;

  0004f	89 50 08	 mov	 DWORD PTR [eax+8], edx

; 1084 : 		_Parent(_Wherenode) = _Pnode;

  00052	89 42 04	 mov	 DWORD PTR [edx+4], eax
  00055	5b		 pop	 ebx

; 1085 : 		}

  00056	c2 04 00	 ret	 4
?_Rrotate@?$_Tree@V?$_Tmap_traits@EPAU__TAXINFO@@U?$less@E@std@@V?$allocator@U?$pair@$$CBEPAU__TAXINFO@@@std@@@3@$0A@@std@@@std@@IAEXPAU_Node@?$_Tree_nod@V?$_Tmap_traits@EPAU__TAXINFO@@U?$less@E@std@@V?$allocator@U?$pair@$$CBEPAU__TAXINFO@@@std@@@3@$0A@@std@@@2@@Z ENDP ; std::_Tree<std::_Tmap_traits<unsigned char,__TAXINFO *,std::less<unsigned char>,std::allocator<std::pair<unsigned char const ,__TAXINFO *> >,0> >::_Rrotate
_TEXT	ENDS
PUBLIC	?destroy@?$allocator@U_Node@?$_Tree_nod@V?$_Tmap_traits@EPAU__TAXINFO@@U?$less@E@std@@V?$allocator@U?$pair@$$CBEPAU__TAXINFO@@@std@@@3@$0A@@std@@@std@@@std@@QAEXPAU_Node@?$_Tree_nod@V?$_Tmap_traits@EPAU__TAXINFO@@U?$less@E@std@@V?$allocator@U?$pair@$$CBEPAU__TAXINFO@@@std@@@3@$0A@@std@@@2@@Z ; std::allocator<std::_Tree_nod<std::_Tmap_traits<unsigned char,__TAXINFO *,std::less<unsigned char>,std::allocator<std::pair<unsigned char const ,__TAXINFO *> >,0> >::_Node>::destroy
; Function compile flags: /Ogty
; File c:\program files\microsoft visual studio .net 2003\vc7\include\xmemory
;	COMDAT ?destroy@?$allocator@U_Node@?$_Tree_nod@V?$_Tmap_traits@EPAU__TAXINFO@@U?$less@E@std@@V?$allocator@U?$pair@$$CBEPAU__TAXINFO@@@std@@@3@$0A@@std@@@std@@@std@@QAEXPAU_Node@?$_Tree_nod@V?$_Tmap_traits@EPAU__TAXINFO@@U?$less@E@std@@V?$allocator@U?$pair@$$CBEPAU__TAXINFO@@@std@@@3@$0A@@std@@@2@@Z
_TEXT	SEGMENT
__Ptr$ = 8						; size = 4
?destroy@?$allocator@U_Node@?$_Tree_nod@V?$_Tmap_traits@EPAU__TAXINFO@@U?$less@E@std@@V?$allocator@U?$pair@$$CBEPAU__TAXINFO@@@std@@@3@$0A@@std@@@std@@@std@@QAEXPAU_Node@?$_Tree_nod@V?$_Tmap_traits@EPAU__TAXINFO@@U?$less@E@std@@V?$allocator@U?$pair@$$CBEPAU__TAXINFO@@@std@@@3@$0A@@std@@@2@@Z PROC NEAR ; std::allocator<std::_Tree_nod<std::_Tmap_traits<unsigned char,__TAXINFO *,std::less<unsigned char>,std::allocator<std::pair<unsigned char const ,__TAXINFO *> >,0> >::_Node>::destroy, COMDAT
; _this$ = ecx

; 152  : 		_Destroy(_Ptr);
; 153  : 		}

  00000	c2 04 00	 ret	 4
?destroy@?$allocator@U_Node@?$_Tree_nod@V?$_Tmap_traits@EPAU__TAXINFO@@U?$less@E@std@@V?$allocator@U?$pair@$$CBEPAU__TAXINFO@@@std@@@3@$0A@@std@@@std@@@std@@QAEXPAU_Node@?$_Tree_nod@V?$_Tmap_traits@EPAU__TAXINFO@@U?$less@E@std@@V?$allocator@U?$pair@$$CBEPAU__TAXINFO@@@std@@@3@$0A@@std@@@2@@Z ENDP ; std::allocator<std::_Tree_nod<std::_Tmap_traits<unsigned char,__TAXINFO *,std::less<unsigned char>,std::allocator<std::pair<unsigned char const ,__TAXINFO *> >,0> >::_Node>::destroy
_TEXT	ENDS
PUBLIC	?destroy@?$allocator@PAU_Node@?$_Tree_nod@V?$_Tmap_traits@EPAU__TAXINFO@@U?$less@E@std@@V?$allocator@U?$pair@$$CBEPAU__TAXINFO@@@std@@@3@$0A@@std@@@std@@@std@@QAEXPAPAU_Node@?$_Tree_nod@V?$_Tmap_traits@EPAU__TAXINFO@@U?$less@E@std@@V?$allocator@U?$pair@$$CBEPAU__TAXINFO@@@std@@@3@$0A@@std@@@2@@Z ; std::allocator<std::_Tree_nod<std::_Tmap_traits<unsigned char,__TAXINFO *,std::less<unsigned char>,std::allocator<std::pair<unsigned char const ,__TAXINFO *> >,0> >::_Node *>::destroy
; Function compile flags: /Ogty
;	COMDAT ?destroy@?$allocator@PAU_Node@?$_Tree_nod@V?$_Tmap_traits@EPAU__TAXINFO@@U?$less@E@std@@V?$allocator@U?$pair@$$CBEPAU__TAXINFO@@@std@@@3@$0A@@std@@@std@@@std@@QAEXPAPAU_Node@?$_Tree_nod@V?$_Tmap_traits@EPAU__TAXINFO@@U?$less@E@std@@V?$allocator@U?$pair@$$CBEPAU__TAXINFO@@@std@@@3@$0A@@std@@@2@@Z
_TEXT	SEGMENT
__Ptr$ = 8						; size = 4
?destroy@?$allocator@PAU_Node@?$_Tree_nod@V?$_Tmap_traits@EPAU__TAXINFO@@U?$less@E@std@@V?$allocator@U?$pair@$$CBEPAU__TAXINFO@@@std@@@3@$0A@@std@@@std@@@std@@QAEXPAPAU_Node@?$_Tree_nod@V?$_Tmap_traits@EPAU__TAXINFO@@U?$less@E@std@@V?$allocator@U?$pair@$$CBEPAU__TAXINFO@@@std@@@3@$0A@@std@@@2@@Z PROC NEAR ; std::allocator<std::_Tree_nod<std::_Tmap_traits<unsigned char,__TAXINFO *,std::less<unsigned char>,std::allocator<std::pair<unsigned char const ,__TAXINFO *> >,0> >::_Node *>::destroy, COMDAT
; _this$ = ecx

; 152  : 		_Destroy(_Ptr);
; 153  : 		}

  00000	c2 04 00	 ret	 4
?destroy@?$allocator@PAU_Node@?$_Tree_nod@V?$_Tmap_traits@EPAU__TAXINFO@@U?$less@E@std@@V?$allocator@U?$pair@$$CBEPAU__TAXINFO@@@std@@@3@$0A@@std@@@std@@@std@@QAEXPAPAU_Node@?$_Tree_nod@V?$_Tmap_traits@EPAU__TAXINFO@@U?$less@E@std@@V?$allocator@U?$pair@$$CBEPAU__TAXINFO@@@std@@@3@$0A@@std@@@2@@Z ENDP ; std::allocator<std::_Tree_nod<std::_Tmap_traits<unsigned char,__TAXINFO *,std::less<unsigned char>,std::allocator<std::pair<unsigned char const ,__TAXINFO *> >,0> >::_Node *>::destroy
_TEXT	ENDS
PUBLIC	??0iterator@?$vector@KV?$allocator@K@std@@@std@@QAE@PAK@Z ; std::vector<unsigned long,std::allocator<unsigned long> >::iterator::iterator
; Function compile flags: /Ogty
; File c:\program files\microsoft visual studio .net 2003\vc7\include\vector
;	COMDAT ??0iterator@?$vector@KV?$allocator@K@std@@@std@@QAE@PAK@Z
_TEXT	SEGMENT
__Ptr$ = 8						; size = 4
??0iterator@?$vector@KV?$allocator@K@std@@@std@@QAE@PAK@Z PROC NEAR ; std::vector<unsigned long,std::allocator<unsigned long> >::iterator::iterator, COMDAT
; _this$ = ecx

; 215  : 			{	// construct with pointer _Ptr

  00000	8b c1		 mov	 eax, ecx
  00002	8b 4c 24 04	 mov	 ecx, DWORD PTR __Ptr$[esp-4]
  00006	89 08		 mov	 DWORD PTR [eax], ecx

; 216  : 			}

  00008	c2 04 00	 ret	 4
??0iterator@?$vector@KV?$allocator@K@std@@@std@@QAE@PAK@Z ENDP ; std::vector<unsigned long,std::allocator<unsigned long> >::iterator::iterator
_TEXT	ENDS
PUBLIC	??Hiterator@?$vector@KV?$allocator@K@std@@@std@@QBE?AV012@H@Z ; std::vector<unsigned long,std::allocator<unsigned long> >::iterator::operator+
; Function compile flags: /Ogty
;	COMDAT ??Hiterator@?$vector@KV?$allocator@K@std@@@std@@QBE?AV012@H@Z
_TEXT	SEGMENT
___$ReturnUdt$ = 8					; size = 4
__Off$ = 12						; size = 4
??Hiterator@?$vector@KV?$allocator@K@std@@@std@@QBE?AV012@H@Z PROC NEAR ; std::vector<unsigned long,std::allocator<unsigned long> >::iterator::operator+, COMDAT
; _this$ = ecx

; 262  : 			iterator _Tmp = *this;
; 263  : 			return (_Tmp += _Off);

  00000	8b 01		 mov	 eax, DWORD PTR [ecx]
  00002	8b 4c 24 08	 mov	 ecx, DWORD PTR __Off$[esp-4]
  00006	8d 14 88	 lea	 edx, DWORD PTR [eax+ecx*4]
  00009	8b 44 24 04	 mov	 eax, DWORD PTR ___$ReturnUdt$[esp-4]
  0000d	89 10		 mov	 DWORD PTR [eax], edx

; 264  : 			}

  0000f	c2 08 00	 ret	 8
??Hiterator@?$vector@KV?$allocator@K@std@@@std@@QBE?AV012@H@Z ENDP ; std::vector<unsigned long,std::allocator<unsigned long> >::iterator::operator+
_TEXT	ENDS
PUBLIC	??Giterator@?$vector@KV?$allocator@K@std@@@std@@QBEHABVconst_iterator@12@@Z ; std::vector<unsigned long,std::allocator<unsigned long> >::iterator::operator-
; Function compile flags: /Ogty
;	COMDAT ??Giterator@?$vector@KV?$allocator@K@std@@@std@@QBEHABVconst_iterator@12@@Z
_TEXT	SEGMENT
__Right$ = 8						; size = 4
??Giterator@?$vector@KV?$allocator@K@std@@@std@@QBEHABVconst_iterator@12@@Z PROC NEAR ; std::vector<unsigned long,std::allocator<unsigned long> >::iterator::operator-, COMDAT
; _this$ = ecx

; 279  : 			return ((const_iterator)*this - _Right);

  00000	8b 01		 mov	 eax, DWORD PTR [ecx]
  00002	8b 4c 24 04	 mov	 ecx, DWORD PTR __Right$[esp-4]
  00006	2b 01		 sub	 eax, DWORD PTR [ecx]
  00008	c1 f8 02	 sar	 eax, 2

; 280  : 			}

  0000b	c2 04 00	 ret	 4
??Giterator@?$vector@KV?$allocator@K@std@@@std@@QBEHABVconst_iterator@12@@Z ENDP ; std::vector<unsigned long,std::allocator<unsigned long> >::iterator::operator-
_TEXT	ENDS
PUBLIC	?allocate@?$allocator@U_Node@?$_Tree_nod@V?$_Tmap_traits@EPAU__TAXDETAIL@@U?$less@E@std@@V?$allocator@U?$pair@$$CBEPAU__TAXDETAIL@@@std@@@3@$0A@@std@@@std@@@std@@QAEPAU_Node@?$_Tree_nod@V?$_Tmap_traits@EPAU__TAXDETAIL@@U?$less@E@std@@V?$allocator@U?$pair@$$CBEPAU__TAXDETAIL@@@std@@@3@$0A@@std@@@2@I@Z ; std::allocator<std::_Tree_nod<std::_Tmap_traits<unsigned char,__TAXDETAIL *,std::less<unsigned char>,std::allocator<std::pair<unsigned char const ,__TAXDETAIL *> >,0> >::_Node>::allocate
; Function compile flags: /Ogty
; File c:\program files\microsoft visual studio .net 2003\vc7\include\xmemory
;	COMDAT ?allocate@?$allocator@U_Node@?$_Tree_nod@V?$_Tmap_traits@EPAU__TAXDETAIL@@U?$less@E@std@@V?$allocator@U?$pair@$$CBEPAU__TAXDETAIL@@@std@@@3@$0A@@std@@@std@@@std@@QAEPAU_Node@?$_Tree_nod@V?$_Tmap_traits@EPAU__TAXDETAIL@@U?$less@E@std@@V?$allocator@U?$pair@$$CBEPAU__TAXDETAIL@@@std@@@3@$0A@@std@@@2@I@Z
_TEXT	SEGMENT
__Count$ = 8						; size = 4
?allocate@?$allocator@U_Node@?$_Tree_nod@V?$_Tmap_traits@EPAU__TAXDETAIL@@U?$less@E@std@@V?$allocator@U?$pair@$$CBEPAU__TAXDETAIL@@@std@@@3@$0A@@std@@@std@@@std@@QAEPAU_Node@?$_Tree_nod@V?$_Tmap_traits@EPAU__TAXDETAIL@@U?$less@E@std@@V?$allocator@U?$pair@$$CBEPAU__TAXDETAIL@@@std@@@3@$0A@@std@@@2@I@Z PROC NEAR ; std::allocator<std::_Tree_nod<std::_Tmap_traits<unsigned char,__TAXDETAIL *,std::less<unsigned char>,std::allocator<std::pair<unsigned char const ,__TAXDETAIL *> >,0> >::_Node>::allocate, COMDAT
; _this$ = ecx

; 137  : 		return (_Allocate(_Count, (pointer)0));

  00000	8b 44 24 04	 mov	 eax, DWORD PTR __Count$[esp-4]
  00004	8d 04 40	 lea	 eax, DWORD PTR [eax+eax*2]
  00007	c1 e0 03	 shl	 eax, 3
  0000a	50		 push	 eax
  0000b	e8 00 00 00 00	 call	 ??2@YAPAXI@Z		; operator new
  00010	83 c4 04	 add	 esp, 4

; 138  : 		}

  00013	c2 04 00	 ret	 4
?allocate@?$allocator@U_Node@?$_Tree_nod@V?$_Tmap_traits@EPAU__TAXDETAIL@@U?$less@E@std@@V?$allocator@U?$pair@$$CBEPAU__TAXDETAIL@@@std@@@3@$0A@@std@@@std@@@std@@QAEPAU_Node@?$_Tree_nod@V?$_Tmap_traits@EPAU__TAXDETAIL@@U?$less@E@std@@V?$allocator@U?$pair@$$CBEPAU__TAXDETAIL@@@std@@@3@$0A@@std@@@2@I@Z ENDP ; std::allocator<std::_Tree_nod<std::_Tmap_traits<unsigned char,__TAXDETAIL *,std::less<unsigned char>,std::allocator<std::pair<unsigned char const ,__TAXDETAIL *> >,0> >::_Node>::allocate
_TEXT	ENDS
PUBLIC	?_Dec@const_iterator@?$_Tree@V?$_Tmap_traits@EPAU__TAXDETAIL@@U?$less@E@std@@V?$allocator@U?$pair@$$CBEPAU__TAXDETAIL@@@std@@@3@$0A@@std@@@std@@QAEXXZ ; std::_Tree<std::_Tmap_traits<unsigned char,__TAXDETAIL *,std::less<unsigned char>,std::allocator<std::pair<unsigned char const ,__TAXDETAIL *> >,0> >::const_iterator::_Dec
; Function compile flags: /Ogty
; File c:\program files\microsoft visual studio .net 2003\vc7\include\xtree
;	COMDAT ?_Dec@const_iterator@?$_Tree@V?$_Tmap_traits@EPAU__TAXDETAIL@@U?$less@E@std@@V?$allocator@U?$pair@$$CBEPAU__TAXDETAIL@@@std@@@3@$0A@@std@@@std@@QAEXXZ
_TEXT	SEGMENT
?_Dec@const_iterator@?$_Tree@V?$_Tmap_traits@EPAU__TAXDETAIL@@U?$less@E@std@@V?$allocator@U?$pair@$$CBEPAU__TAXDETAIL@@@std@@@3@$0A@@std@@@std@@QAEXXZ PROC NEAR ; std::_Tree<std::_Tmap_traits<unsigned char,__TAXDETAIL *,std::less<unsigned char>,std::allocator<std::pair<unsigned char const ,__TAXDETAIL *> >,0> >::const_iterator::_Dec, COMDAT
; _this$ = ecx

; 251  : 			if (_Isnil(_Ptr))

  00000	8b 01		 mov	 eax, DWORD PTR [ecx]
  00002	8a 50 15	 mov	 dl, BYTE PTR [eax+21]
  00005	84 d2		 test	 dl, dl
  00007	74 06		 je	 SHORT $L209852

; 252  : 				_Ptr = _Right(_Ptr);	// end() ==> rightmost

  00009	8b 40 08	 mov	 eax, DWORD PTR [eax+8]
  0000c	89 01		 mov	 DWORD PTR [ecx], eax

; 263  : 				}
; 264  : 			}

  0000e	c3		 ret	 0
$L209852:

; 253  : 			else if (!_Isnil(_Left(_Ptr)))

  0000f	8b 10		 mov	 edx, DWORD PTR [eax]
  00011	53		 push	 ebx
  00012	8a 5a 15	 mov	 bl, BYTE PTR [edx+21]
  00015	84 db		 test	 bl, bl
  00017	75 1a		 jne	 SHORT $L212037

; 254  : 				_Ptr = _Max(_Left(_Ptr));	// ==> largest of left subtree

  00019	8b 42 08	 mov	 eax, DWORD PTR [edx+8]
  0001c	8a 58 15	 mov	 bl, BYTE PTR [eax+21]
  0001f	84 db		 test	 bl, bl
  00021	75 0c		 jne	 SHORT $L212022
$L212021:
  00023	8b d0		 mov	 edx, eax
  00025	8b 42 08	 mov	 eax, DWORD PTR [edx+8]
  00028	8a 58 15	 mov	 bl, BYTE PTR [eax+21]
  0002b	84 db		 test	 bl, bl
  0002d	74 f4		 je	 SHORT $L212021
$L212022:
  0002f	89 11		 mov	 DWORD PTR [ecx], edx
  00031	5b		 pop	 ebx

; 263  : 				}
; 264  : 			}

  00032	c3		 ret	 0
$L212037:

; 255  : 			else
; 256  : 				{	// climb looking for left subtree
; 257  : 				_Nodeptr _Pnode;
; 258  : 				while (!_Isnil(_Pnode = _Parent(_Ptr))
; 259  : 					&& _Ptr == _Left(_Pnode))

  00033	8b 40 04	 mov	 eax, DWORD PTR [eax+4]
  00036	8a 50 15	 mov	 dl, BYTE PTR [eax+21]
  00039	84 d2		 test	 dl, dl
  0003b	75 1e		 jne	 SHORT $L212040
  0003d	8d 49 00	 npad	 3
$L209858:
  00040	8b 11		 mov	 edx, DWORD PTR [ecx]
  00042	3b 10		 cmp	 edx, DWORD PTR [eax]
  00044	75 0c		 jne	 SHORT $L209859

; 260  : 					_Ptr = _Pnode;	// ==> parent while left subtree

  00046	89 01		 mov	 DWORD PTR [ecx], eax
  00048	8b 40 04	 mov	 eax, DWORD PTR [eax+4]
  0004b	8a 50 15	 mov	 dl, BYTE PTR [eax+21]
  0004e	84 d2		 test	 dl, dl
  00050	74 ee		 je	 SHORT $L209858
$L209859:

; 261  : 				if (!_Isnil(_Pnode))

  00052	8a 50 15	 mov	 dl, BYTE PTR [eax+21]
  00055	84 d2		 test	 dl, dl
  00057	75 02		 jne	 SHORT $L212040

; 262  : 					_Ptr = _Pnode;	// ==> parent if not head

  00059	89 01		 mov	 DWORD PTR [ecx], eax
$L212040:
  0005b	5b		 pop	 ebx

; 263  : 				}
; 264  : 			}

  0005c	c3		 ret	 0
?_Dec@const_iterator@?$_Tree@V?$_Tmap_traits@EPAU__TAXDETAIL@@U?$less@E@std@@V?$allocator@U?$pair@$$CBEPAU__TAXDETAIL@@@std@@@3@$0A@@std@@@std@@QAEXXZ ENDP ; std::_Tree<std::_Tmap_traits<unsigned char,__TAXDETAIL *,std::less<unsigned char>,std::allocator<std::pair<unsigned char const ,__TAXDETAIL *> >,0> >::const_iterator::_Dec
_TEXT	ENDS
PUBLIC	?_Inc@const_iterator@?$_Tree@V?$_Tmap_traits@EPAU__TAXDETAIL@@U?$less@E@std@@V?$allocator@U?$pair@$$CBEPAU__TAXDETAIL@@@std@@@3@$0A@@std@@@std@@QAEXXZ ; std::_Tree<std::_Tmap_traits<unsigned char,__TAXDETAIL *,std::less<unsigned char>,std::allocator<std::pair<unsigned char const ,__TAXDETAIL *> >,0> >::const_iterator::_Inc
; Function compile flags: /Ogty
;	COMDAT ?_Inc@const_iterator@?$_Tree@V?$_Tmap_traits@EPAU__TAXDETAIL@@U?$less@E@std@@V?$allocator@U?$pair@$$CBEPAU__TAXDETAIL@@@std@@@3@$0A@@std@@@std@@QAEXXZ
_TEXT	SEGMENT
?_Inc@const_iterator@?$_Tree@V?$_Tmap_traits@EPAU__TAXDETAIL@@U?$less@E@std@@V?$allocator@U?$pair@$$CBEPAU__TAXDETAIL@@@std@@@3@$0A@@std@@@std@@QAEXXZ PROC NEAR ; std::_Tree<std::_Tmap_traits<unsigned char,__TAXDETAIL *,std::less<unsigned char>,std::allocator<std::pair<unsigned char const ,__TAXDETAIL *> >,0> >::const_iterator::_Inc, COMDAT
; _this$ = ecx

; 268  : 			if (_Isnil(_Ptr))

  00000	8b 01		 mov	 eax, DWORD PTR [ecx]
  00002	8a 50 15	 mov	 dl, BYTE PTR [eax+21]
  00005	84 d2		 test	 dl, dl
  00007	75 4d		 jne	 SHORT $L209866

; 269  : 				;	// end() shouldn't be incremented, don't move
; 270  : 			else if (!_Isnil(_Right(_Ptr)))

  00009	8b 50 08	 mov	 edx, DWORD PTR [eax+8]
  0000c	53		 push	 ebx
  0000d	8a 5a 15	 mov	 bl, BYTE PTR [edx+21]
  00010	84 db		 test	 bl, bl
  00012	75 1b		 jne	 SHORT $L212087

; 271  : 				_Ptr = _Min(_Right(_Ptr));	// ==> smallest of right subtree

  00014	8b 02		 mov	 eax, DWORD PTR [edx]
  00016	8a 58 15	 mov	 bl, BYTE PTR [eax+21]
  00019	84 db		 test	 bl, bl
  0001b	75 0e		 jne	 SHORT $L212075
  0001d	8d 49 00	 npad	 3
$L212073:
  00020	8b d0		 mov	 edx, eax
  00022	8b 02		 mov	 eax, DWORD PTR [edx]
  00024	8a 58 15	 mov	 bl, BYTE PTR [eax+21]
  00027	84 db		 test	 bl, bl
  00029	74 f5		 je	 SHORT $L212073
$L212075:
  0002b	89 11		 mov	 DWORD PTR [ecx], edx
  0002d	5b		 pop	 ebx

; 279  : 				}
; 280  : 			}

  0002e	c3		 ret	 0
$L212087:

; 272  : 			else
; 273  : 				{	// climb looking for right subtree
; 274  : 				_Nodeptr _Pnode;
; 275  : 				while (!_Isnil(_Pnode = _Parent(_Ptr))
; 276  : 					&& _Ptr == _Right(_Pnode))

  0002f	8b 40 04	 mov	 eax, DWORD PTR [eax+4]
  00032	8a 50 15	 mov	 dl, BYTE PTR [eax+21]
  00035	84 d2		 test	 dl, dl
  00037	75 1a		 jne	 SHORT $L209870
  00039	8d a4 24 00 00
	00 00		 npad	 7
$L209869:
  00040	8b 11		 mov	 edx, DWORD PTR [ecx]
  00042	3b 50 08	 cmp	 edx, DWORD PTR [eax+8]
  00045	75 0c		 jne	 SHORT $L209870

; 277  : 					_Ptr = _Pnode;	// ==> parent while right subtree

  00047	89 01		 mov	 DWORD PTR [ecx], eax
  00049	8b 40 04	 mov	 eax, DWORD PTR [eax+4]
  0004c	8a 50 15	 mov	 dl, BYTE PTR [eax+21]
  0004f	84 d2		 test	 dl, dl
  00051	74 ed		 je	 SHORT $L209869
$L209870:

; 278  : 				_Ptr = _Pnode;	// ==> parent (head if end())

  00053	89 01		 mov	 DWORD PTR [ecx], eax
  00055	5b		 pop	 ebx
$L209866:

; 279  : 				}
; 280  : 			}

  00056	c3		 ret	 0
?_Inc@const_iterator@?$_Tree@V?$_Tmap_traits@EPAU__TAXDETAIL@@U?$less@E@std@@V?$allocator@U?$pair@$$CBEPAU__TAXDETAIL@@@std@@@3@$0A@@std@@@std@@QAEXXZ ENDP ; std::_Tree<std::_Tmap_traits<unsigned char,__TAXDETAIL *,std::less<unsigned char>,std::allocator<std::pair<unsigned char const ,__TAXDETAIL *> >,0> >::const_iterator::_Inc
_TEXT	ENDS
PUBLIC	?allocate@?$allocator@U_Node@?$_Tree_nod@V?$_Tmap_traits@EPAU__TAXINFO@@U?$less@E@std@@V?$allocator@U?$pair@$$CBEPAU__TAXINFO@@@std@@@3@$0A@@std@@@std@@@std@@QAEPAU_Node@?$_Tree_nod@V?$_Tmap_traits@EPAU__TAXINFO@@U?$less@E@std@@V?$allocator@U?$pair@$$CBEPAU__TAXINFO@@@std@@@3@$0A@@std@@@2@I@Z ; std::allocator<std::_Tree_nod<std::_Tmap_traits<unsigned char,__TAXINFO *,std::less<unsigned char>,std::allocator<std::pair<unsigned char const ,__TAXINFO *> >,0> >::_Node>::allocate
; Function compile flags: /Ogty
; File c:\program files\microsoft visual studio .net 2003\vc7\include\xmemory
;	COMDAT ?allocate@?$allocator@U_Node@?$_Tree_nod@V?$_Tmap_traits@EPAU__TAXINFO@@U?$less@E@std@@V?$allocator@U?$pair@$$CBEPAU__TAXINFO@@@std@@@3@$0A@@std@@@std@@@std@@QAEPAU_Node@?$_Tree_nod@V?$_Tmap_traits@EPAU__TAXINFO@@U?$less@E@std@@V?$allocator@U?$pair@$$CBEPAU__TAXINFO@@@std@@@3@$0A@@std@@@2@I@Z
_TEXT	SEGMENT
__Count$ = 8						; size = 4
?allocate@?$allocator@U_Node@?$_Tree_nod@V?$_Tmap_traits@EPAU__TAXINFO@@U?$less@E@std@@V?$allocator@U?$pair@$$CBEPAU__TAXINFO@@@std@@@3@$0A@@std@@@std@@@std@@QAEPAU_Node@?$_Tree_nod@V?$_Tmap_traits@EPAU__TAXINFO@@U?$less@E@std@@V?$allocator@U?$pair@$$CBEPAU__TAXINFO@@@std@@@3@$0A@@std@@@2@I@Z PROC NEAR ; std::allocator<std::_Tree_nod<std::_Tmap_traits<unsigned char,__TAXINFO *,std::less<unsigned char>,std::allocator<std::pair<unsigned char const ,__TAXINFO *> >,0> >::_Node>::allocate, COMDAT
; _this$ = ecx

; 137  : 		return (_Allocate(_Count, (pointer)0));

  00000	8b 44 24 04	 mov	 eax, DWORD PTR __Count$[esp-4]
  00004	8d 04 40	 lea	 eax, DWORD PTR [eax+eax*2]
  00007	c1 e0 03	 shl	 eax, 3
  0000a	50		 push	 eax
  0000b	e8 00 00 00 00	 call	 ??2@YAPAXI@Z		; operator new
  00010	83 c4 04	 add	 esp, 4

; 138  : 		}

  00013	c2 04 00	 ret	 4
?allocate@?$allocator@U_Node@?$_Tree_nod@V?$_Tmap_traits@EPAU__TAXINFO@@U?$less@E@std@@V?$allocator@U?$pair@$$CBEPAU__TAXINFO@@@std@@@3@$0A@@std@@@std@@@std@@QAEPAU_Node@?$_Tree_nod@V?$_Tmap_traits@EPAU__TAXINFO@@U?$less@E@std@@V?$allocator@U?$pair@$$CBEPAU__TAXINFO@@@std@@@3@$0A@@std@@@2@I@Z ENDP ; std::allocator<std::_Tree_nod<std::_Tmap_traits<unsigned char,__TAXINFO *,std::less<unsigned char>,std::allocator<std::pair<unsigned char const ,__TAXINFO *> >,0> >::_Node>::allocate
_TEXT	ENDS
PUBLIC	?_Dec@const_iterator@?$_Tree@V?$_Tmap_traits@EPAU__TAXINFO@@U?$less@E@std@@V?$allocator@U?$pair@$$CBEPAU__TAXINFO@@@std@@@3@$0A@@std@@@std@@QAEXXZ ; std::_Tree<std::_Tmap_traits<unsigned char,__TAXINFO *,std::less<unsigned char>,std::allocator<std::pair<unsigned char const ,__TAXINFO *> >,0> >::const_iterator::_Dec
; Function compile flags: /Ogty
; File c:\program files\microsoft visual studio .net 2003\vc7\include\xtree
;	COMDAT ?_Dec@const_iterator@?$_Tree@V?$_Tmap_traits@EPAU__TAXINFO@@U?$less@E@std@@V?$allocator@U?$pair@$$CBEPAU__TAXINFO@@@std@@@3@$0A@@std@@@std@@QAEXXZ
_TEXT	SEGMENT
?_Dec@const_iterator@?$_Tree@V?$_Tmap_traits@EPAU__TAXINFO@@U?$less@E@std@@V?$allocator@U?$pair@$$CBEPAU__TAXINFO@@@std@@@3@$0A@@std@@@std@@QAEXXZ PROC NEAR ; std::_Tree<std::_Tmap_traits<unsigned char,__TAXINFO *,std::less<unsigned char>,std::allocator<std::pair<unsigned char const ,__TAXINFO *> >,0> >::const_iterator::_Dec, COMDAT
; _this$ = ecx

; 251  : 			if (_Isnil(_Ptr))

  00000	8b 01		 mov	 eax, DWORD PTR [ecx]
  00002	8a 50 15	 mov	 dl, BYTE PTR [eax+21]
  00005	84 d2		 test	 dl, dl
  00007	74 06		 je	 SHORT $L209967

; 252  : 				_Ptr = _Right(_Ptr);	// end() ==> rightmost

  00009	8b 40 08	 mov	 eax, DWORD PTR [eax+8]
  0000c	89 01		 mov	 DWORD PTR [ecx], eax

; 263  : 				}
; 264  : 			}

  0000e	c3		 ret	 0
$L209967:

; 253  : 			else if (!_Isnil(_Left(_Ptr)))

  0000f	8b 10		 mov	 edx, DWORD PTR [eax]
  00011	53		 push	 ebx
  00012	8a 5a 15	 mov	 bl, BYTE PTR [edx+21]
  00015	84 db		 test	 bl, bl
  00017	75 1a		 jne	 SHORT $L212149

; 254  : 				_Ptr = _Max(_Left(_Ptr));	// ==> largest of left subtree

  00019	8b 42 08	 mov	 eax, DWORD PTR [edx+8]
  0001c	8a 58 15	 mov	 bl, BYTE PTR [eax+21]
  0001f	84 db		 test	 bl, bl
  00021	75 0c		 jne	 SHORT $L212127
$L212126:
  00023	8b d0		 mov	 edx, eax
  00025	8b 42 08	 mov	 eax, DWORD PTR [edx+8]
  00028	8a 58 15	 mov	 bl, BYTE PTR [eax+21]
  0002b	84 db		 test	 bl, bl
  0002d	74 f4		 je	 SHORT $L212126
$L212127:
  0002f	89 11		 mov	 DWORD PTR [ecx], edx
  00031	5b		 pop	 ebx

; 263  : 				}
; 264  : 			}

  00032	c3		 ret	 0
$L212149:

; 255  : 			else
; 256  : 				{	// climb looking for left subtree
; 257  : 				_Nodeptr _Pnode;
; 258  : 				while (!_Isnil(_Pnode = _Parent(_Ptr))
; 259  : 					&& _Ptr == _Left(_Pnode))

  00033	8b 40 04	 mov	 eax, DWORD PTR [eax+4]
  00036	8a 50 15	 mov	 dl, BYTE PTR [eax+21]
  00039	84 d2		 test	 dl, dl
  0003b	75 1e		 jne	 SHORT $L212152
  0003d	8d 49 00	 npad	 3
$L209973:
  00040	8b 11		 mov	 edx, DWORD PTR [ecx]
  00042	3b 10		 cmp	 edx, DWORD PTR [eax]
  00044	75 0c		 jne	 SHORT $L209974

; 260  : 					_Ptr = _Pnode;	// ==> parent while left subtree

  00046	89 01		 mov	 DWORD PTR [ecx], eax
  00048	8b 40 04	 mov	 eax, DWORD PTR [eax+4]
  0004b	8a 50 15	 mov	 dl, BYTE PTR [eax+21]
  0004e	84 d2		 test	 dl, dl
  00050	74 ee		 je	 SHORT $L209973
$L209974:

; 261  : 				if (!_Isnil(_Pnode))

  00052	8a 50 15	 mov	 dl, BYTE PTR [eax+21]
  00055	84 d2		 test	 dl, dl
  00057	75 02		 jne	 SHORT $L212152

; 262  : 					_Ptr = _Pnode;	// ==> parent if not head

  00059	89 01		 mov	 DWORD PTR [ecx], eax
$L212152:
  0005b	5b		 pop	 ebx

; 263  : 				}
; 264  : 			}

  0005c	c3		 ret	 0
?_Dec@const_iterator@?$_Tree@V?$_Tmap_traits@EPAU__TAXINFO@@U?$less@E@std@@V?$allocator@U?$pair@$$CBEPAU__TAXINFO@@@std@@@3@$0A@@std@@@std@@QAEXXZ ENDP ; std::_Tree<std::_Tmap_traits<unsigned char,__TAXINFO *,std::less<unsigned char>,std::allocator<std::pair<unsigned char const ,__TAXINFO *> >,0> >::const_iterator::_Dec
_TEXT	ENDS
PUBLIC	?_Inc@const_iterator@?$_Tree@V?$_Tmap_traits@EPAU__TAXINFO@@U?$less@E@std@@V?$allocator@U?$pair@$$CBEPAU__TAXINFO@@@std@@@3@$0A@@std@@@std@@QAEXXZ ; std::_Tree<std::_Tmap_traits<unsigned char,__TAXINFO *,std::less<unsigned char>,std::allocator<std::pair<unsigned char const ,__TAXINFO *> >,0> >::const_iterator::_Inc
; Function compile flags: /Ogty
;	COMDAT ?_Inc@const_iterator@?$_Tree@V?$_Tmap_traits@EPAU__TAXINFO@@U?$less@E@std@@V?$allocator@U?$pair@$$CBEPAU__TAXINFO@@@std@@@3@$0A@@std@@@std@@QAEXXZ
_TEXT	SEGMENT
?_Inc@const_iterator@?$_Tree@V?$_Tmap_traits@EPAU__TAXINFO@@U?$less@E@std@@V?$allocator@U?$pair@$$CBEPAU__TAXINFO@@@std@@@3@$0A@@std@@@std@@QAEXXZ PROC NEAR ; std::_Tree<std::_Tmap_traits<unsigned char,__TAXINFO *,std::less<unsigned char>,std::allocator<std::pair<unsigned char const ,__TAXINFO *> >,0> >::const_iterator::_Inc, COMDAT
; _this$ = ecx

; 268  : 			if (_Isnil(_Ptr))

  00000	8b 01		 mov	 eax, DWORD PTR [ecx]
  00002	8a 50 15	 mov	 dl, BYTE PTR [eax+21]
  00005	84 d2		 test	 dl, dl
  00007	75 4d		 jne	 SHORT $L209981

; 269  : 				;	// end() shouldn't be incremented, don't move
; 270  : 			else if (!_Isnil(_Right(_Ptr)))

  00009	8b 50 08	 mov	 edx, DWORD PTR [eax+8]
  0000c	53		 push	 ebx
  0000d	8a 5a 15	 mov	 bl, BYTE PTR [edx+21]
  00010	84 db		 test	 bl, bl
  00012	75 1b		 jne	 SHORT $L212199

; 271  : 				_Ptr = _Min(_Right(_Ptr));	// ==> smallest of right subtree

  00014	8b 02		 mov	 eax, DWORD PTR [edx]
  00016	8a 58 15	 mov	 bl, BYTE PTR [eax+21]
  00019	84 db		 test	 bl, bl
  0001b	75 0e		 jne	 SHORT $L212180
  0001d	8d 49 00	 npad	 3
$L212179:
  00020	8b d0		 mov	 edx, eax
  00022	8b 02		 mov	 eax, DWORD PTR [edx]
  00024	8a 58 15	 mov	 bl, BYTE PTR [eax+21]
  00027	84 db		 test	 bl, bl
  00029	74 f5		 je	 SHORT $L212179
$L212180:
  0002b	89 11		 mov	 DWORD PTR [ecx], edx
  0002d	5b		 pop	 ebx

; 279  : 				}
; 280  : 			}

  0002e	c3		 ret	 0
$L212199:

; 272  : 			else
; 273  : 				{	// climb looking for right subtree
; 274  : 				_Nodeptr _Pnode;
; 275  : 				while (!_Isnil(_Pnode = _Parent(_Ptr))
; 276  : 					&& _Ptr == _Right(_Pnode))

  0002f	8b 40 04	 mov	 eax, DWORD PTR [eax+4]
  00032	8a 50 15	 mov	 dl, BYTE PTR [eax+21]
  00035	84 d2		 test	 dl, dl
  00037	75 1a		 jne	 SHORT $L209985
  00039	8d a4 24 00 00
	00 00		 npad	 7
$L209984:
  00040	8b 11		 mov	 edx, DWORD PTR [ecx]
  00042	3b 50 08	 cmp	 edx, DWORD PTR [eax+8]
  00045	75 0c		 jne	 SHORT $L209985

; 277  : 					_Ptr = _Pnode;	// ==> parent while right subtree

  00047	89 01		 mov	 DWORD PTR [ecx], eax
  00049	8b 40 04	 mov	 eax, DWORD PTR [eax+4]
  0004c	8a 50 15	 mov	 dl, BYTE PTR [eax+21]
  0004f	84 d2		 test	 dl, dl
  00051	74 ed		 je	 SHORT $L209984
$L209985:

; 278  : 				_Ptr = _Pnode;	// ==> parent (head if end())

  00053	89 01		 mov	 DWORD PTR [ecx], eax
  00055	5b		 pop	 ebx
$L209981:

; 279  : 				}
; 280  : 			}

  00056	c3		 ret	 0
?_Inc@const_iterator@?$_Tree@V?$_Tmap_traits@EPAU__TAXINFO@@U?$less@E@std@@V?$allocator@U?$pair@$$CBEPAU__TAXINFO@@@std@@@3@$0A@@std@@@std@@QAEXXZ ENDP ; std::_Tree<std::_Tmap_traits<unsigned char,__TAXINFO *,std::less<unsigned char>,std::allocator<std::pair<unsigned char const ,__TAXINFO *> >,0> >::const_iterator::_Inc
_TEXT	ENDS
PUBLIC	??0?$_Tree_nod@V?$_Tmap_traits@EPAU__TAXDETAIL@@U?$less@E@std@@V?$allocator@U?$pair@$$CBEPAU__TAXDETAIL@@@std@@@3@$0A@@std@@@std@@IAE@ABU?$less@E@1@V?$allocator@U?$pair@$$CBEPAU__TAXDETAIL@@@std@@@1@@Z ; std::_Tree_nod<std::_Tmap_traits<unsigned char,__TAXDETAIL *,std::less<unsigned char>,std::allocator<std::pair<unsigned char const ,__TAXDETAIL *> >,0> >::_Tree_nod<std::_Tmap_traits<unsigned char,__TAXDETAIL *,std::less<unsigned char>,std::allocator<std::pair<unsigned char const ,__TAXDETAIL *> >,0> >
; Function compile flags: /Ogty
;	COMDAT ??0?$_Tree_nod@V?$_Tmap_traits@EPAU__TAXDETAIL@@U?$less@E@std@@V?$allocator@U?$pair@$$CBEPAU__TAXDETAIL@@@std@@@3@$0A@@std@@@std@@IAE@ABU?$less@E@1@V?$allocator@U?$pair@$$CBEPAU__TAXDETAIL@@@std@@@1@@Z
_TEXT	SEGMENT
__Parg$ = 8						; size = 4
__Al$ = 12						; size = 1
??0?$_Tree_nod@V?$_Tmap_traits@EPAU__TAXDETAIL@@U?$less@E@std@@V?$allocator@U?$pair@$$CBEPAU__TAXDETAIL@@@std@@@3@$0A@@std@@@std@@IAE@ABU?$less@E@1@V?$allocator@U?$pair@$$CBEPAU__TAXDETAIL@@@std@@@1@@Z PROC NEAR ; std::_Tree_nod<std::_Tmap_traits<unsigned char,__TAXDETAIL *,std::less<unsigned char>,std::allocator<std::pair<unsigned char const ,__TAXDETAIL *> >,0> >::_Tree_nod<std::_Tmap_traits<unsigned char,__TAXDETAIL *,std::less<unsigned char>,std::allocator<std::pair<unsigned char const ,__TAXDETAIL *> >,0> >, COMDAT
; _this$ = ecx

; 54   : 		{	// construct traits from _Parg and allocator from _Al

  00000	8b c1		 mov	 eax, ecx

; 55   : 		}

  00002	c2 08 00	 ret	 8
??0?$_Tree_nod@V?$_Tmap_traits@EPAU__TAXDETAIL@@U?$less@E@std@@V?$allocator@U?$pair@$$CBEPAU__TAXDETAIL@@@std@@@3@$0A@@std@@@std@@IAE@ABU?$less@E@1@V?$allocator@U?$pair@$$CBEPAU__TAXDETAIL@@@std@@@1@@Z ENDP ; std::_Tree_nod<std::_Tmap_traits<unsigned char,__TAXDETAIL *,std::less<unsigned char>,std::allocator<std::pair<unsigned char const ,__TAXDETAIL *> >,0> >::_Tree_nod<std::_Tmap_traits<unsigned char,__TAXDETAIL *,std::less<unsigned char>,std::allocator<std::pair<unsigned char const ,__TAXDETAIL *> >,0> >
_TEXT	ENDS
PUBLIC	?destroy@?$allocator@U_Node@?$_Tree_nod@V?$_Tmap_traits@EPAU__TAXDETAIL@@U?$less@E@std@@V?$allocator@U?$pair@$$CBEPAU__TAXDETAIL@@@std@@@3@$0A@@std@@@std@@@std@@QAEXPAU_Node@?$_Tree_nod@V?$_Tmap_traits@EPAU__TAXDETAIL@@U?$less@E@std@@V?$allocator@U?$pair@$$CBEPAU__TAXDETAIL@@@std@@@3@$0A@@std@@@2@@Z ; std::allocator<std::_Tree_nod<std::_Tmap_traits<unsigned char,__TAXDETAIL *,std::less<unsigned char>,std::allocator<std::pair<unsigned char const ,__TAXDETAIL *> >,0> >::_Node>::destroy
; Function compile flags: /Ogty
; File c:\program files\microsoft visual studio .net 2003\vc7\include\xmemory
;	COMDAT ?destroy@?$allocator@U_Node@?$_Tree_nod@V?$_Tmap_traits@EPAU__TAXDETAIL@@U?$less@E@std@@V?$allocator@U?$pair@$$CBEPAU__TAXDETAIL@@@std@@@3@$0A@@std@@@std@@@std@@QAEXPAU_Node@?$_Tree_nod@V?$_Tmap_traits@EPAU__TAXDETAIL@@U?$less@E@std@@V?$allocator@U?$pair@$$CBEPAU__TAXDETAIL@@@std@@@3@$0A@@std@@@2@@Z
_TEXT	SEGMENT
__Ptr$ = 8						; size = 4
?destroy@?$allocator@U_Node@?$_Tree_nod@V?$_Tmap_traits@EPAU__TAXDETAIL@@U?$less@E@std@@V?$allocator@U?$pair@$$CBEPAU__TAXDETAIL@@@std@@@3@$0A@@std@@@std@@@std@@QAEXPAU_Node@?$_Tree_nod@V?$_Tmap_traits@EPAU__TAXDETAIL@@U?$less@E@std@@V?$allocator@U?$pair@$$CBEPAU__TAXDETAIL@@@std@@@3@$0A@@std@@@2@@Z PROC NEAR ; std::allocator<std::_Tree_nod<std::_Tmap_traits<unsigned char,__TAXDETAIL *,std::less<unsigned char>,std::allocator<std::pair<unsigned char const ,__TAXDETAIL *> >,0> >::_Node>::destroy, COMDAT
; _this$ = ecx

; 152  : 		_Destroy(_Ptr);
; 153  : 		}

  00000	c2 04 00	 ret	 4
?destroy@?$allocator@U_Node@?$_Tree_nod@V?$_Tmap_traits@EPAU__TAXDETAIL@@U?$less@E@std@@V?$allocator@U?$pair@$$CBEPAU__TAXDETAIL@@@std@@@3@$0A@@std@@@std@@@std@@QAEXPAU_Node@?$_Tree_nod@V?$_Tmap_traits@EPAU__TAXDETAIL@@U?$less@E@std@@V?$allocator@U?$pair@$$CBEPAU__TAXDETAIL@@@std@@@3@$0A@@std@@@2@@Z ENDP ; std::allocator<std::_Tree_nod<std::_Tmap_traits<unsigned char,__TAXDETAIL *,std::less<unsigned char>,std::allocator<std::pair<unsigned char const ,__TAXDETAIL *> >,0> >::_Node>::destroy
_TEXT	ENDS
PUBLIC	?construct@?$allocator@PAU_Node@?$_Tree_nod@V?$_Tmap_traits@EPAU__TAXDETAIL@@U?$less@E@std@@V?$allocator@U?$pair@$$CBEPAU__TAXDETAIL@@@std@@@3@$0A@@std@@@std@@@std@@QAEXPAPAU_Node@?$_Tree_nod@V?$_Tmap_traits@EPAU__TAXDETAIL@@U?$less@E@std@@V?$allocator@U?$pair@$$CBEPAU__TAXDETAIL@@@std@@@3@$0A@@std@@@2@ABQAU342@@Z ; std::allocator<std::_Tree_nod<std::_Tmap_traits<unsigned char,__TAXDETAIL *,std::less<unsigned char>,std::allocator<std::pair<unsigned char const ,__TAXDETAIL *> >,0> >::_Node *>::construct
; Function compile flags: /Ogty
;	COMDAT ?construct@?$allocator@PAU_Node@?$_Tree_nod@V?$_Tmap_traits@EPAU__TAXDETAIL@@U?$less@E@std@@V?$allocator@U?$pair@$$CBEPAU__TAXDETAIL@@@std@@@3@$0A@@std@@@std@@@std@@QAEXPAPAU_Node@?$_Tree_nod@V?$_Tmap_traits@EPAU__TAXDETAIL@@U?$less@E@std@@V?$allocator@U?$pair@$$CBEPAU__TAXDETAIL@@@std@@@3@$0A@@std@@@2@ABQAU342@@Z
_TEXT	SEGMENT
__Ptr$ = 8						; size = 4
__Val$ = 12						; size = 4
?construct@?$allocator@PAU_Node@?$_Tree_nod@V?$_Tmap_traits@EPAU__TAXDETAIL@@U?$less@E@std@@V?$allocator@U?$pair@$$CBEPAU__TAXDETAIL@@@std@@@3@$0A@@std@@@std@@@std@@QAEXPAPAU_Node@?$_Tree_nod@V?$_Tmap_traits@EPAU__TAXDETAIL@@U?$less@E@std@@V?$allocator@U?$pair@$$CBEPAU__TAXDETAIL@@@std@@@3@$0A@@std@@@2@ABQAU342@@Z PROC NEAR ; std::allocator<std::_Tree_nod<std::_Tmap_traits<unsigned char,__TAXDETAIL *,std::less<unsigned char>,std::allocator<std::pair<unsigned char const ,__TAXDETAIL *> >,0> >::_Node *>::construct, COMDAT
; _this$ = ecx

; 147  : 		_Construct(_Ptr, _Val);

  00000	8b 44 24 04	 mov	 eax, DWORD PTR __Ptr$[esp-4]
  00004	85 c0		 test	 eax, eax
  00006	74 08		 je	 SHORT $L212227
  00008	8b 4c 24 08	 mov	 ecx, DWORD PTR __Val$[esp-4]
  0000c	8b 11		 mov	 edx, DWORD PTR [ecx]
  0000e	89 10		 mov	 DWORD PTR [eax], edx
$L212227:

; 148  : 		}

  00010	c2 08 00	 ret	 8
?construct@?$allocator@PAU_Node@?$_Tree_nod@V?$_Tmap_traits@EPAU__TAXDETAIL@@U?$less@E@std@@V?$allocator@U?$pair@$$CBEPAU__TAXDETAIL@@@std@@@3@$0A@@std@@@std@@@std@@QAEXPAPAU_Node@?$_Tree_nod@V?$_Tmap_traits@EPAU__TAXDETAIL@@U?$less@E@std@@V?$allocator@U?$pair@$$CBEPAU__TAXDETAIL@@@std@@@3@$0A@@std@@@2@ABQAU342@@Z ENDP ; std::allocator<std::_Tree_nod<std::_Tmap_traits<unsigned char,__TAXDETAIL *,std::less<unsigned char>,std::allocator<std::pair<unsigned char const ,__TAXDETAIL *> >,0> >::_Node *>::construct
_TEXT	ENDS
PUBLIC	??0?$_Tree_nod@V?$_Tmap_traits@EPAU__TAXINFO@@U?$less@E@std@@V?$allocator@U?$pair@$$CBEPAU__TAXINFO@@@std@@@3@$0A@@std@@@std@@IAE@ABU?$less@E@1@V?$allocator@U?$pair@$$CBEPAU__TAXINFO@@@std@@@1@@Z ; std::_Tree_nod<std::_Tmap_traits<unsigned char,__TAXINFO *,std::less<unsigned char>,std::allocator<std::pair<unsigned char const ,__TAXINFO *> >,0> >::_Tree_nod<std::_Tmap_traits<unsigned char,__TAXINFO *,std::less<unsigned char>,std::allocator<std::pair<unsigned char const ,__TAXINFO *> >,0> >
; Function compile flags: /Ogty
; File c:\program files\microsoft visual studio .net 2003\vc7\include\xtree
;	COMDAT ??0?$_Tree_nod@V?$_Tmap_traits@EPAU__TAXINFO@@U?$less@E@std@@V?$allocator@U?$pair@$$CBEPAU__TAXINFO@@@std@@@3@$0A@@std@@@std@@IAE@ABU?$less@E@1@V?$allocator@U?$pair@$$CBEPAU__TAXINFO@@@std@@@1@@Z
_TEXT	SEGMENT
__Parg$ = 8						; size = 4
__Al$ = 12						; size = 1
??0?$_Tree_nod@V?$_Tmap_traits@EPAU__TAXINFO@@U?$less@E@std@@V?$allocator@U?$pair@$$CBEPAU__TAXINFO@@@std@@@3@$0A@@std@@@std@@IAE@ABU?$less@E@1@V?$allocator@U?$pair@$$CBEPAU__TAXINFO@@@std@@@1@@Z PROC NEAR ; std::_Tree_nod<std::_Tmap_traits<unsigned char,__TAXINFO *,std::less<unsigned char>,std::allocator<std::pair<unsigned char const ,__TAXINFO *> >,0> >::_Tree_nod<std::_Tmap_traits<unsigned char,__TAXINFO *,std::less<unsigned char>,std::allocator<std::pair<unsigned char const ,__TAXINFO *> >,0> >, COMDAT
; _this$ = ecx

; 54   : 		{	// construct traits from _Parg and allocator from _Al

  00000	8b c1		 mov	 eax, ecx

; 55   : 		}

  00002	c2 08 00	 ret	 8
??0?$_Tree_nod@V?$_Tmap_traits@EPAU__TAXINFO@@U?$less@E@std@@V?$allocator@U?$pair@$$CBEPAU__TAXINFO@@@std@@@3@$0A@@std@@@std@@IAE@ABU?$less@E@1@V?$allocator@U?$pair@$$CBEPAU__TAXINFO@@@std@@@1@@Z ENDP ; std::_Tree_nod<std::_Tmap_traits<unsigned char,__TAXINFO *,std::less<unsigned char>,std::allocator<std::pair<unsigned char const ,__TAXINFO *> >,0> >::_Tree_nod<std::_Tmap_traits<unsigned char,__TAXINFO *,std::less<unsigned char>,std::allocator<std::pair<unsigned char const ,__TAXINFO *> >,0> >
_TEXT	ENDS
PUBLIC	?construct@?$allocator@PAU_Node@?$_Tree_nod@V?$_Tmap_traits@EPAU__TAXINFO@@U?$less@E@std@@V?$allocator@U?$pair@$$CBEPAU__TAXINFO@@@std@@@3@$0A@@std@@@std@@@std@@QAEXPAPAU_Node@?$_Tree_nod@V?$_Tmap_traits@EPAU__TAXINFO@@U?$less@E@std@@V?$allocator@U?$pair@$$CBEPAU__TAXINFO@@@std@@@3@$0A@@std@@@2@ABQAU342@@Z ; std::allocator<std::_Tree_nod<std::_Tmap_traits<unsigned char,__TAXINFO *,std::less<unsigned char>,std::allocator<std::pair<unsigned char const ,__TAXINFO *> >,0> >::_Node *>::construct
; Function compile flags: /Ogty
; File c:\program files\microsoft visual studio .net 2003\vc7\include\xmemory
;	COMDAT ?construct@?$allocator@PAU_Node@?$_Tree_nod@V?$_Tmap_traits@EPAU__TAXINFO@@U?$less@E@std@@V?$allocator@U?$pair@$$CBEPAU__TAXINFO@@@std@@@3@$0A@@std@@@std@@@std@@QAEXPAPAU_Node@?$_Tree_nod@V?$_Tmap_traits@EPAU__TAXINFO@@U?$less@E@std@@V?$allocator@U?$pair@$$CBEPAU__TAXINFO@@@std@@@3@$0A@@std@@@2@ABQAU342@@Z
_TEXT	SEGMENT
__Ptr$ = 8						; size = 4
__Val$ = 12						; size = 4
?construct@?$allocator@PAU_Node@?$_Tree_nod@V?$_Tmap_traits@EPAU__TAXINFO@@U?$less@E@std@@V?$allocator@U?$pair@$$CBEPAU__TAXINFO@@@std@@@3@$0A@@std@@@std@@@std@@QAEXPAPAU_Node@?$_Tree_nod@V?$_Tmap_traits@EPAU__TAXINFO@@U?$less@E@std@@V?$allocator@U?$pair@$$CBEPAU__TAXINFO@@@std@@@3@$0A@@std@@@2@ABQAU342@@Z PROC NEAR ; std::allocator<std::_Tree_nod<std::_Tmap_traits<unsigned char,__TAXINFO *,std::less<unsigned char>,std::allocator<std::pair<unsigned char const ,__TAXINFO *> >,0> >::_Node *>::construct, COMDAT
; _this$ = ecx

; 147  : 		_Construct(_Ptr, _Val);

  00000	8b 44 24 04	 mov	 eax, DWORD PTR __Ptr$[esp-4]
  00004	85 c0		 test	 eax, eax
  00006	74 08		 je	 SHORT $L212251
  00008	8b 4c 24 08	 mov	 ecx, DWORD PTR __Val$[esp-4]
  0000c	8b 11		 mov	 edx, DWORD PTR [ecx]
  0000e	89 10		 mov	 DWORD PTR [eax], edx
$L212251:

; 148  : 		}

  00010	c2 08 00	 ret	 8
?construct@?$allocator@PAU_Node@?$_Tree_nod@V?$_Tmap_traits@EPAU__TAXINFO@@U?$less@E@std@@V?$allocator@U?$pair@$$CBEPAU__TAXINFO@@@std@@@3@$0A@@std@@@std@@@std@@QAEXPAPAU_Node@?$_Tree_nod@V?$_Tmap_traits@EPAU__TAXINFO@@U?$less@E@std@@V?$allocator@U?$pair@$$CBEPAU__TAXINFO@@@std@@@3@$0A@@std@@@2@ABQAU342@@Z ENDP ; std::allocator<std::_Tree_nod<std::_Tmap_traits<unsigned char,__TAXINFO *,std::less<unsigned char>,std::allocator<std::pair<unsigned char const ,__TAXINFO *> >,0> >::_Node *>::construct
_TEXT	ENDS
PUBLIC	??$make_pair@EPAU__TAXDETAIL@@@std@@YA?AU?$pair@EPAU__TAXDETAIL@@@0@EPAU__TAXDETAIL@@@Z ; std::make_pair<unsigned char,__TAXDETAIL *>
; Function compile flags: /Ogty
; File c:\program files\microsoft visual studio .net 2003\vc7\include\utility
;	COMDAT ??$make_pair@EPAU__TAXDETAIL@@@std@@YA?AU?$pair@EPAU__TAXDETAIL@@@0@EPAU__TAXDETAIL@@@Z
_TEXT	SEGMENT
___$ReturnUdt$ = 8					; size = 4
__Val1$ = 12						; size = 1
__Val2$ = 16						; size = 4
??$make_pair@EPAU__TAXDETAIL@@@std@@YA?AU?$pair@EPAU__TAXDETAIL@@@0@EPAU__TAXDETAIL@@@Z PROC NEAR ; std::make_pair<unsigned char,__TAXDETAIL *>, COMDAT

; 108  : 	return (pair<_Ty1, _Ty2>(_Val1, _Val2));

  00000	8b 44 24 04	 mov	 eax, DWORD PTR ___$ReturnUdt$[esp-4]
  00004	8a 4c 24 08	 mov	 cl, BYTE PTR __Val1$[esp-4]
  00008	8b 54 24 0c	 mov	 edx, DWORD PTR __Val2$[esp-4]
  0000c	88 08		 mov	 BYTE PTR [eax], cl
  0000e	89 50 04	 mov	 DWORD PTR [eax+4], edx

; 109  : 	}

  00011	c3		 ret	 0
??$make_pair@EPAU__TAXDETAIL@@@std@@YA?AU?$pair@EPAU__TAXDETAIL@@@0@EPAU__TAXDETAIL@@@Z ENDP ; std::make_pair<unsigned char,__TAXDETAIL *>
_TEXT	ENDS
PUBLIC	??$make_pair@HPAU__TAXINFO@@@std@@YA?AU?$pair@HPAU__TAXINFO@@@0@HPAU__TAXINFO@@@Z ; std::make_pair<int,__TAXINFO *>
; Function compile flags: /Ogty
;	COMDAT ??$make_pair@HPAU__TAXINFO@@@std@@YA?AU?$pair@HPAU__TAXINFO@@@0@HPAU__TAXINFO@@@Z
_TEXT	SEGMENT
___$ReturnUdt$ = 8					; size = 4
__Val1$ = 12						; size = 4
__Val2$ = 16						; size = 4
??$make_pair@HPAU__TAXINFO@@@std@@YA?AU?$pair@HPAU__TAXINFO@@@0@HPAU__TAXINFO@@@Z PROC NEAR ; std::make_pair<int,__TAXINFO *>, COMDAT

; 108  : 	return (pair<_Ty1, _Ty2>(_Val1, _Val2));

  00000	8b 44 24 04	 mov	 eax, DWORD PTR ___$ReturnUdt$[esp-4]
  00004	8b 4c 24 08	 mov	 ecx, DWORD PTR __Val1$[esp-4]
  00008	8b 54 24 0c	 mov	 edx, DWORD PTR __Val2$[esp-4]
  0000c	89 08		 mov	 DWORD PTR [eax], ecx
  0000e	89 50 04	 mov	 DWORD PTR [eax+4], edx

; 109  : 	}

  00011	c3		 ret	 0
??$make_pair@HPAU__TAXINFO@@@std@@YA?AU?$pair@HPAU__TAXINFO@@@0@HPAU__TAXINFO@@@Z ENDP ; std::make_pair<int,__TAXINFO *>
_TEXT	ENDS
PUBLIC	??$copy_backward@PAKPAK@std@@YAPAKPAK00@Z	; std::copy_backward<unsigned long *,unsigned long *>
; Function compile flags: /Ogty
; File c:\program files\microsoft visual studio .net 2003\vc7\include\xutility
;	COMDAT ??$copy_backward@PAKPAK@std@@YAPAKPAK00@Z
_TEXT	SEGMENT
__First$ = 8						; size = 4
__Last$ = 12						; size = 4
__Dest$ = 16						; size = 4
??$copy_backward@PAKPAK@std@@YAPAKPAK00@Z PROC NEAR	; std::copy_backward<unsigned long *,unsigned long *>, COMDAT

; 1068 : 	return (_Copy_backward_opt(_First, _Last, _Dest,
; 1069 : 		_Ptr_cat(_First, _Dest)));

  00000	8b 4c 24 04	 mov	 ecx, DWORD PTR __First$[esp-4]
  00004	8b 44 24 08	 mov	 eax, DWORD PTR __Last$[esp-4]
  00008	2b c1		 sub	 eax, ecx
  0000a	c1 f8 02	 sar	 eax, 2
  0000d	c1 e0 02	 shl	 eax, 2
  00010	50		 push	 eax
  00011	51		 push	 ecx
  00012	8b 4c 24 14	 mov	 ecx, DWORD PTR __Dest$[esp+4]
  00016	2b c8		 sub	 ecx, eax
  00018	51		 push	 ecx
  00019	e8 00 00 00 00	 call	 _memmove
  0001e	83 c4 0c	 add	 esp, 12			; 0000000cH

; 1070 : 	}

  00021	c3		 ret	 0
??$copy_backward@PAKPAK@std@@YAPAKPAK00@Z ENDP		; std::copy_backward<unsigned long *,unsigned long *>
_TEXT	ENDS
PUBLIC	??$_Uninit_fill_n@KIK@std@@YAXPAKIABKAAV?$allocator@K@0@U_Scalar_ptr_iterator_tag@0@@Z ; std::_Uninit_fill_n<unsigned long,unsigned int,unsigned long>
; Function compile flags: /Ogty
; File c:\program files\microsoft visual studio .net 2003\vc7\include\memory
;	COMDAT ??$_Uninit_fill_n@KIK@std@@YAXPAKIABKAAV?$allocator@K@0@U_Scalar_ptr_iterator_tag@0@@Z
_TEXT	SEGMENT
__First$ = 8						; size = 4
__Count$ = 12						; size = 4
__Val$ = 16						; size = 4
___formal$ = 20						; size = 4
___formal$ = 24						; size = 1
??$_Uninit_fill_n@KIK@std@@YAXPAKIABKAAV?$allocator@K@0@U_Scalar_ptr_iterator_tag@0@@Z PROC NEAR ; std::_Uninit_fill_n<unsigned long,unsigned int,unsigned long>, COMDAT

; 237  : 	fill_n(_First, _Count, _Val);

  00000	8b 4c 24 08	 mov	 ecx, DWORD PTR __Count$[esp-4]
  00004	85 c9		 test	 ecx, ecx
  00006	8b 44 24 04	 mov	 eax, DWORD PTR __First$[esp-4]
  0000a	76 10		 jbe	 SHORT $L212284
  0000c	8b 54 24 0c	 mov	 edx, DWORD PTR __Val$[esp-4]
  00010	56		 push	 esi
$L212282:
  00011	8b 32		 mov	 esi, DWORD PTR [edx]
  00013	89 30		 mov	 DWORD PTR [eax], esi
  00015	83 c0 04	 add	 eax, 4
  00018	49		 dec	 ecx
  00019	75 f6		 jne	 SHORT $L212282
  0001b	5e		 pop	 esi
$L212284:

; 238  : 	}

  0001c	c3		 ret	 0
??$_Uninit_fill_n@KIK@std@@YAXPAKIABKAAV?$allocator@K@0@U_Scalar_ptr_iterator_tag@0@@Z ENDP ; std::_Uninit_fill_n<unsigned long,unsigned int,unsigned long>
_TEXT	ENDS
PUBLIC	??$_Uninitialized_copy@PAKPAKV?$allocator@K@std@@@std@@YAPAKPAK00AAV?$allocator@K@0@@Z ; std::_Uninitialized_copy<unsigned long *,unsigned long *,std::allocator<unsigned long> >
; Function compile flags: /Ogty
;	COMDAT ??$_Uninitialized_copy@PAKPAKV?$allocator@K@std@@@std@@YAPAKPAK00AAV?$allocator@K@0@@Z
_TEXT	SEGMENT
__First$ = 8						; size = 4
__Last$ = 12						; size = 4
__Dest$ = 16						; size = 4
__Al$ = 20						; size = 4
??$_Uninitialized_copy@PAKPAKV?$allocator@K@std@@@std@@YAPAKPAK00AAV?$allocator@K@0@@Z PROC NEAR ; std::_Uninitialized_copy<unsigned long *,unsigned long *,std::allocator<unsigned long> >, COMDAT

; 127  : 	return (_Uninit_copy(_First, _Last, _Dest, _Al,
; 128  : 		_Ptr_cat(_First, _Dest)));

  00000	8b 4c 24 04	 mov	 ecx, DWORD PTR __First$[esp-4]
  00004	8b 44 24 08	 mov	 eax, DWORD PTR __Last$[esp-4]
  00008	2b c1		 sub	 eax, ecx
  0000a	56		 push	 esi
  0000b	c1 f8 02	 sar	 eax, 2
  0000e	8d 34 85 00 00
	00 00		 lea	 esi, DWORD PTR [eax*4]
  00015	8b 44 24 10	 mov	 eax, DWORD PTR __Dest$[esp]
  00019	56		 push	 esi
  0001a	51		 push	 ecx
  0001b	50		 push	 eax
  0001c	e8 00 00 00 00	 call	 _memmove
  00021	83 c4 0c	 add	 esp, 12			; 0000000cH
  00024	03 c6		 add	 eax, esi
  00026	5e		 pop	 esi

; 129  : 	}

  00027	c3		 ret	 0
??$_Uninitialized_copy@PAKPAKV?$allocator@K@std@@@std@@YAPAKPAK00AAV?$allocator@K@0@@Z ENDP ; std::_Uninitialized_copy<unsigned long *,unsigned long *,std::allocator<unsigned long> >
_TEXT	ENDS
PUBLIC	?GetText@CProject@@QAEPBDK@Z			; CProject::GetText
PUBLIC	??_C@_00CNPNBAHC@?$AA@				; `string'
;	COMDAT ??_C@_00CNPNBAHC@?$AA@
; File c:\documents and settings\test\mes documents\source\virtuos_v17\build\program\_common\data.h
CONST	SEGMENT
??_C@_00CNPNBAHC@?$AA@ DB 00H				; `string'
; Function compile flags: /Ogty
; File c:\documents and settings\test\mes documents\source\virtuos_v17\build\program\databaseserver\project.h
CONST	ENDS
;	COMDAT ?GetText@CProject@@QAEPBDK@Z
_TEXT	SEGMENT
_dwIndex$ = 8						; size = 4
?GetText@CProject@@QAEPBDK@Z PROC NEAR			; CProject::GetText, COMDAT
; _this$ = ecx

; 184  : 		if( m_colorText.GetAt( dwIndex ) == NULL )

  00000	8b 44 24 04	 mov	 eax, DWORD PTR _dwIndex$[esp-4]
  00004	3b 41 7c	 cmp	 eax, DWORD PTR [ecx+124]
  00007	73 0a		 jae	 SHORT $L212314
  00009	8b 51 6c	 mov	 edx, DWORD PTR [ecx+108]
  0000c	8b 14 82	 mov	 edx, DWORD PTR [edx+eax*4]
  0000f	85 d2		 test	 edx, edx
  00011	75 08		 jne	 SHORT $L156726
$L212314:

; 185  : 			return "";

  00013	b8 00 00 00 00	 mov	 eax, OFFSET FLAT:??_C@_00CNPNBAHC@?$AA@

; 187  : 	}

  00018	c2 04 00	 ret	 4
$L156726:

; 186  : 		return m_colorText.GetAt( dwIndex )->lpszData; 

  0001b	3b 41 7c	 cmp	 eax, DWORD PTR [ecx+124]
  0001e	72 08		 jb	 SHORT $L212311
  00020	33 c0		 xor	 eax, eax
  00022	8b 40 04	 mov	 eax, DWORD PTR [eax+4]

; 187  : 	}

  00025	c2 04 00	 ret	 4

; 186  : 		return m_colorText.GetAt( dwIndex )->lpszData; 

$L212311:
  00028	8b 49 6c	 mov	 ecx, DWORD PTR [ecx+108]
  0002b	8b 04 81	 mov	 eax, DWORD PTR [ecx+eax*4]
  0002e	8b 40 04	 mov	 eax, DWORD PTR [eax+4]

; 187  : 	}

  00031	c2 04 00	 ret	 4
?GetText@CProject@@QAEPBDK@Z ENDP			; CProject::GetText
_TEXT	ENDS
PUBLIC	??6CAr@@QAEAAV0@H@Z				; CAr::operator<<
; Function compile flags: /Ogty
; File c:\documents and settings\test\mes documents\source\virtuos_v17\build\program\_network\misc\include\ar.h
;	COMDAT ??6CAr@@QAEAAV0@H@Z
_TEXT	SEGMENT
_i$ = 8							; size = 4
??6CAr@@QAEAAV0@H@Z PROC NEAR				; CAr::operator<<, COMDAT
; _this$ = ecx

; 99   : 	{ return CAr::operator<<((LONG)i); }

  00000	56		 push	 esi
  00001	6a 04		 push	 4
  00003	8b f1		 mov	 esi, ecx
  00005	e8 00 00 00 00	 call	 ?CheckBuf@CAr@@QAEXI@Z	; CAr::CheckBuf
  0000a	8b 46 08	 mov	 eax, DWORD PTR [esi+8]
  0000d	8b 4c 24 08	 mov	 ecx, DWORD PTR _i$[esp]
  00011	89 08		 mov	 DWORD PTR [eax], ecx
  00013	83 46 08 04	 add	 DWORD PTR [esi+8], 4
  00017	8b c6		 mov	 eax, esi
  00019	5e		 pop	 esi
  0001a	c2 04 00	 ret	 4
??6CAr@@QAEAAV0@H@Z ENDP				; CAr::operator<<
_TEXT	ENDS
PUBLIC	??6CAr@@QAEAAV0@I@Z				; CAr::operator<<
; Function compile flags: /Ogty
;	COMDAT ??6CAr@@QAEAAV0@I@Z
_TEXT	SEGMENT
_u$ = 8							; size = 4
??6CAr@@QAEAAV0@I@Z PROC NEAR				; CAr::operator<<, COMDAT
; _this$ = ecx

; 101  : 	{ return CAr::operator<<((LONG)u); }

  00000	56		 push	 esi
  00001	6a 04		 push	 4
  00003	8b f1		 mov	 esi, ecx
  00005	e8 00 00 00 00	 call	 ?CheckBuf@CAr@@QAEXI@Z	; CAr::CheckBuf
  0000a	8b 46 08	 mov	 eax, DWORD PTR [esi+8]
  0000d	8b 4c 24 08	 mov	 ecx, DWORD PTR _u$[esp]
  00011	89 08		 mov	 DWORD PTR [eax], ecx
  00013	83 46 08 04	 add	 DWORD PTR [esi+8], 4
  00017	8b c6		 mov	 eax, esi
  00019	5e		 pop	 esi
  0001a	c2 04 00	 ret	 4
??6CAr@@QAEAAV0@I@Z ENDP				; CAr::operator<<
_TEXT	ENDS
PUBLIC	??5CAr@@QAEAAV0@AAH@Z				; CAr::operator>>
; Function compile flags: /Ogty
;	COMDAT ??5CAr@@QAEAAV0@AAH@Z
_TEXT	SEGMENT
_i$ = 8							; size = 4
??5CAr@@QAEAAV0@AAH@Z PROC NEAR				; CAr::operator>>, COMDAT
; _this$ = ecx

; 126  : 	{ return CAr::operator>>((LONG&)i); }

  00000	8b c1		 mov	 eax, ecx
  00002	8b 48 08	 mov	 ecx, DWORD PTR [eax+8]
  00005	56		 push	 esi
  00006	8b 70 0c	 mov	 esi, DWORD PTR [eax+12]
  00009	8d 51 04	 lea	 edx, DWORD PTR [ecx+4]
  0000c	3b d6		 cmp	 edx, esi
  0000e	5e		 pop	 esi
  0000f	77 0f		 ja	 SHORT $L212329
  00011	8b 09		 mov	 ecx, DWORD PTR [ecx]
  00013	8b 54 24 04	 mov	 edx, DWORD PTR _i$[esp-4]
  00017	89 0a		 mov	 DWORD PTR [edx], ecx
  00019	83 40 08 04	 add	 DWORD PTR [eax+8], 4
  0001d	c2 04 00	 ret	 4
$L212329:
  00020	8b 4c 24 04	 mov	 ecx, DWORD PTR _i$[esp-4]
  00024	c7 01 00 00 00
	00		 mov	 DWORD PTR [ecx], 0
  0002a	8b 50 0c	 mov	 edx, DWORD PTR [eax+12]
  0002d	89 50 08	 mov	 DWORD PTR [eax+8], edx
  00030	c2 04 00	 ret	 4
??5CAr@@QAEAAV0@AAH@Z ENDP				; CAr::operator>>
_TEXT	ENDS
PUBLIC	?c_str@?$basic_string@DU?$char_traits@D@std@@V?$allocator@D@2@@std@@QBEPBDXZ ; std::basic_string<char,std::char_traits<char>,std::allocator<char> >::c_str
; Function compile flags: /Ogty
; File c:\program files\microsoft visual studio .net 2003\vc7\include\xstring
;	COMDAT ?c_str@?$basic_string@DU?$char_traits@D@std@@V?$allocator@D@2@@std@@QBEPBDXZ
_TEXT	SEGMENT
?c_str@?$basic_string@DU?$char_traits@D@std@@V?$allocator@D@2@@std@@QBEPBDXZ PROC NEAR ; std::basic_string<char,std::char_traits<char>,std::allocator<char> >::c_str, COMDAT
; _this$ = ecx

; 1094 : 		return (_Myptr());

  00000	83 79 18 10	 cmp	 DWORD PTR [ecx+24], 16	; 00000010H
  00004	72 04		 jb	 SHORT $L212339
  00006	8b 41 04	 mov	 eax, DWORD PTR [ecx+4]

; 1095 : 		}

  00009	c3		 ret	 0

; 1094 : 		return (_Myptr());

$L212339:
  0000a	8d 41 04	 lea	 eax, DWORD PTR [ecx+4]

; 1095 : 		}

  0000d	c3		 ret	 0
?c_str@?$basic_string@DU?$char_traits@D@std@@V?$allocator@D@2@@std@@QBEPBDXZ ENDP ; std::basic_string<char,std::char_traits<char>,std::allocator<char> >::c_str
_TEXT	ENDS
PUBLIC	??1?$CSimpleStringT@D$0A@@ATL@@QAE@XZ		; ATL::CSimpleStringT<char,0>::~CSimpleStringT<char,0>
; Function compile flags: /Ogty
; File c:\program files\microsoft visual studio .net 2003\vc7\atlmfc\include\atlsimpstr.h
;	COMDAT ??1?$CSimpleStringT@D$0A@@ATL@@QAE@XZ
_TEXT	SEGMENT
??1?$CSimpleStringT@D$0A@@ATL@@QAE@XZ PROC NEAR		; ATL::CSimpleStringT<char,0>::~CSimpleStringT<char,0>, COMDAT
; _this$ = ecx

; 263  : 		CStringData* pData = GetData();

  00000	8b 01		 mov	 eax, DWORD PTR [ecx]
  00002	83 e8 10	 sub	 eax, 16			; 00000010H

; 264  : 		pData->Release();

  00005	8d 48 0c	 lea	 ecx, DWORD PTR [eax+12]
  00008	83 ca ff	 or	 edx, -1
  0000b	f0 0f c1 11	 lock	  xadd	 DWORD PTR [ecx], edx
  0000f	4a		 dec	 edx
  00010	85 d2		 test	 edx, edx
  00012	7f 08		 jg	 SHORT $L212349
  00014	8b 08		 mov	 ecx, DWORD PTR [eax]
  00016	8b 11		 mov	 edx, DWORD PTR [ecx]
  00018	50		 push	 eax
  00019	ff 52 04	 call	 DWORD PTR [edx+4]
$L212349:

; 265  : 	}

  0001c	c3		 ret	 0
??1?$CSimpleStringT@D$0A@@ATL@@QAE@XZ ENDP		; ATL::CSimpleStringT<char,0>::~CSimpleStringT<char,0>
_TEXT	ENDS
PUBLIC	??0?$_String_val@DV?$allocator@D@std@@@std@@IAE@V?$allocator@D@1@@Z ; std::_String_val<char,std::allocator<char> >::_String_val<char,std::allocator<char> >
; Function compile flags: /Ogty
; File c:\program files\microsoft visual studio .net 2003\vc7\include\xstring
;	COMDAT ??0?$_String_val@DV?$allocator@D@std@@@std@@IAE@V?$allocator@D@1@@Z
_TEXT	SEGMENT
__Al$ = 8						; size = 1
??0?$_String_val@DV?$allocator@D@std@@@std@@IAE@V?$allocator@D@1@@Z PROC NEAR ; std::_String_val<char,std::allocator<char> >::_String_val<char,std::allocator<char> >, COMDAT
; _this$ = ecx

; 34   : 		{	// construct allocator from _Al

  00000	8b c1		 mov	 eax, ecx

; 35   : 		}

  00002	c2 04 00	 ret	 4
??0?$_String_val@DV?$allocator@D@std@@@std@@IAE@V?$allocator@D@1@@Z ENDP ; std::_String_val<char,std::allocator<char> >::_String_val<char,std::allocator<char> >
_TEXT	ENDS
PUBLIC	??0?$_Vector_val@KV?$allocator@K@std@@@std@@IAE@V?$allocator@K@1@@Z ; std::_Vector_val<unsigned long,std::allocator<unsigned long> >::_Vector_val<unsigned long,std::allocator<unsigned long> >
; Function compile flags: /Ogty
; File c:\program files\microsoft visual studio .net 2003\vc7\include\vector
;	COMDAT ??0?$_Vector_val@KV?$allocator@K@std@@@std@@IAE@V?$allocator@K@1@@Z
_TEXT	SEGMENT
__Al$ = 8						; size = 1
??0?$_Vector_val@KV?$allocator@K@std@@@std@@IAE@V?$allocator@K@1@@Z PROC NEAR ; std::_Vector_val<unsigned long,std::allocator<unsigned long> >::_Vector_val<unsigned long,std::allocator<unsigned long> >, COMDAT
; _this$ = ecx

; 21   : 		{	// construct allocator from _Al

  00000	8b c1		 mov	 eax, ecx

; 22   : 		}

  00002	c2 04 00	 ret	 4
??0?$_Vector_val@KV?$allocator@K@std@@@std@@IAE@V?$allocator@K@1@@Z ENDP ; std::_Vector_val<unsigned long,std::allocator<unsigned long> >::_Vector_val<unsigned long,std::allocator<unsigned long> >
_TEXT	ENDS
PUBLIC	?_Eos@?$basic_string@DU?$char_traits@D@std@@V?$allocator@D@2@@std@@IAEXI@Z ; std::basic_string<char,std::char_traits<char>,std::allocator<char> >::_Eos
; Function compile flags: /Ogty
; File c:\program files\microsoft visual studio .net 2003\vc7\include\xstring
;	COMDAT ?_Eos@?$basic_string@DU?$char_traits@D@std@@V?$allocator@D@2@@std@@IAEXI@Z
_TEXT	SEGMENT
__Newsize$ = 8						; size = 4
?_Eos@?$basic_string@DU?$char_traits@D@std@@V?$allocator@D@2@@std@@IAEXI@Z PROC NEAR ; std::basic_string<char,std::char_traits<char>,std::allocator<char> >::_Eos, COMDAT
; _this$ = ecx

; 1475 : 		_Traits::assign(_Myptr()[_Mysize = _Newsize], _Elem());

  00000	83 79 18 10	 cmp	 DWORD PTR [ecx+24], 16	; 00000010H
  00004	8b 44 24 04	 mov	 eax, DWORD PTR __Newsize$[esp-4]
  00008	89 41 14	 mov	 DWORD PTR [ecx+20], eax
  0000b	72 0a		 jb	 SHORT $L212367
  0000d	8b 49 04	 mov	 ecx, DWORD PTR [ecx+4]
  00010	c6 04 01 00	 mov	 BYTE PTR [ecx+eax], 0

; 1476 : 		}

  00014	c2 04 00	 ret	 4

; 1475 : 		_Traits::assign(_Myptr()[_Mysize = _Newsize], _Elem());

$L212367:
  00017	c6 44 01 04 00	 mov	 BYTE PTR [ecx+eax+4], 0

; 1476 : 		}

  0001c	c2 04 00	 ret	 4
?_Eos@?$basic_string@DU?$char_traits@D@std@@V?$allocator@D@2@@std@@IAEXI@Z ENDP ; std::basic_string<char,std::char_traits<char>,std::allocator<char> >::_Eos
_TEXT	ENDS
PUBLIC	?max_size@?$vector@KV?$allocator@K@std@@@std@@QBEIXZ ; std::vector<unsigned long,std::allocator<unsigned long> >::max_size
; Function compile flags: /Ogty
; File c:\program files\microsoft visual studio .net 2003\vc7\include\vector
;	COMDAT ?max_size@?$vector@KV?$allocator@K@std@@@std@@QBEIXZ
_TEXT	SEGMENT
?max_size@?$vector@KV?$allocator@K@std@@@std@@QBEIXZ PROC NEAR ; std::vector<unsigned long,std::allocator<unsigned long> >::max_size, COMDAT
; _this$ = ecx

; 521  : 		return (this->_Alval.max_size());

  00000	b8 ff ff ff 3f	 mov	 eax, 1073741823		; 3fffffffH

; 522  : 		}

  00005	c3		 ret	 0
?max_size@?$vector@KV?$allocator@K@std@@@std@@QBEIXZ ENDP ; std::vector<unsigned long,std::allocator<unsigned long> >::max_size
_TEXT	ENDS
PUBLIC	?_Destroy@?$vector@KV?$allocator@K@std@@@std@@IAEXPAK0@Z ; std::vector<unsigned long,std::allocator<unsigned long> >::_Destroy
; Function compile flags: /Ogty
;	COMDAT ?_Destroy@?$vector@KV?$allocator@K@std@@@std@@IAEXPAK0@Z
_TEXT	SEGMENT
__First$ = 8						; size = 4
__Last$ = 12						; size = 4
?_Destroy@?$vector@KV?$allocator@K@std@@@std@@IAEXPAK0@Z PROC NEAR ; std::vector<unsigned long,std::allocator<unsigned long> >::_Destroy, COMDAT
; _this$ = ecx

; 787  : 		_Destroy_range(_First, _Last, this->_Alval);
; 788  : 		}

  00000	c2 08 00	 ret	 8
?_Destroy@?$vector@KV?$allocator@K@std@@@std@@IAEXPAK0@Z ENDP ; std::vector<unsigned long,std::allocator<unsigned long> >::_Destroy
_TEXT	ENDS
PUBLIC	?allocate@?$allocator@K@std@@QAEPAKI@Z		; std::allocator<unsigned long>::allocate
; Function compile flags: /Ogty
; File c:\program files\microsoft visual studio .net 2003\vc7\include\xmemory
;	COMDAT ?allocate@?$allocator@K@std@@QAEPAKI@Z
_TEXT	SEGMENT
__Count$ = 8						; size = 4
?allocate@?$allocator@K@std@@QAEPAKI@Z PROC NEAR	; std::allocator<unsigned long>::allocate, COMDAT
; _this$ = ecx

; 137  : 		return (_Allocate(_Count, (pointer)0));

  00000	8b 44 24 04	 mov	 eax, DWORD PTR __Count$[esp-4]
  00004	8d 0c 85 00 00
	00 00		 lea	 ecx, DWORD PTR [eax*4]
  0000b	51		 push	 ecx
  0000c	e8 00 00 00 00	 call	 ??2@YAPAXI@Z		; operator new
  00011	83 c4 04	 add	 esp, 4

; 138  : 		}

  00014	c2 04 00	 ret	 4
?allocate@?$allocator@K@std@@QAEPAKI@Z ENDP		; std::allocator<unsigned long>::allocate
_TEXT	ENDS
PUBLIC	?max_size@?$basic_string@DU?$char_traits@D@std@@V?$allocator@D@2@@std@@QBEIXZ ; std::basic_string<char,std::char_traits<char>,std::allocator<char> >::max_size
; Function compile flags: /Ogty
; File c:\program files\microsoft visual studio .net 2003\vc7\include\xstring
;	COMDAT ?max_size@?$basic_string@DU?$char_traits@D@std@@V?$allocator@D@2@@std@@QBEIXZ
_TEXT	SEGMENT
?max_size@?$basic_string@DU?$char_traits@D@std@@V?$allocator@D@2@@std@@QBEIXZ PROC NEAR ; std::basic_string<char,std::char_traits<char>,std::allocator<char> >::max_size, COMDAT
; _this$ = ecx

; 1114 : 		size_type _Num = _Mybase::_Alval.max_size();
; 1115 : 		return (_Num <= 1 ? 1 : _Num - 1);

  00000	b8 fe ff ff ff	 mov	 eax, -2			; fffffffeH

; 1116 : 		}

  00005	c3		 ret	 0
?max_size@?$basic_string@DU?$char_traits@D@std@@V?$allocator@D@2@@std@@QBEIXZ ENDP ; std::basic_string<char,std::char_traits<char>,std::allocator<char> >::max_size
_TEXT	ENDS
PUBLIC	?allocate@?$allocator@D@std@@QAEPADI@Z		; std::allocator<char>::allocate
; Function compile flags: /Ogty
; File c:\program files\microsoft visual studio .net 2003\vc7\include\xmemory
;	COMDAT ?allocate@?$allocator@D@std@@QAEPADI@Z
_TEXT	SEGMENT
__Count$ = 8						; size = 4
?allocate@?$allocator@D@std@@QAEPADI@Z PROC NEAR	; std::allocator<char>::allocate, COMDAT
; _this$ = ecx

; 137  : 		return (_Allocate(_Count, (pointer)0));

  00000	8b 44 24 04	 mov	 eax, DWORD PTR __Count$[esp-4]
  00004	50		 push	 eax
  00005	e8 00 00 00 00	 call	 ??2@YAPAXI@Z		; operator new
  0000a	83 c4 04	 add	 esp, 4

; 138  : 		}

  0000d	c2 04 00	 ret	 4
?allocate@?$allocator@D@std@@QAEPADI@Z ENDP		; std::allocator<char>::allocate
_TEXT	ENDS
PUBLIC	?begin@?$_Tree@V?$_Tmap_traits@EPAU__TAXDETAIL@@U?$less@E@std@@V?$allocator@U?$pair@$$CBEPAU__TAXDETAIL@@@std@@@3@$0A@@std@@@std@@QAE?AViterator@12@XZ ; std::_Tree<std::_Tmap_traits<unsigned char,__TAXDETAIL *,std::less<unsigned char>,std::allocator<std::pair<unsigned char const ,__TAXDETAIL *> >,0> >::begin
; Function compile flags: /Ogty
; File c:\program files\microsoft visual studio .net 2003\vc7\include\xtree
;	COMDAT ?begin@?$_Tree@V?$_Tmap_traits@EPAU__TAXDETAIL@@U?$less@E@std@@V?$allocator@U?$pair@$$CBEPAU__TAXDETAIL@@@std@@@3@$0A@@std@@@std@@QAE?AViterator@12@XZ
_TEXT	SEGMENT
___$ReturnUdt$ = 8					; size = 4
?begin@?$_Tree@V?$_Tmap_traits@EPAU__TAXDETAIL@@U?$less@E@std@@V?$allocator@U?$pair@$$CBEPAU__TAXDETAIL@@@std@@@3@$0A@@std@@@std@@QAE?AViterator@12@XZ PROC NEAR ; std::_Tree<std::_Tmap_traits<unsigned char,__TAXDETAIL *,std::less<unsigned char>,std::allocator<std::pair<unsigned char const ,__TAXDETAIL *> >,0> >::begin, COMDAT
; _this$ = ecx

; 408  : 		return (_TREE_ITERATOR(_Lmost()));

  00000	8b 41 04	 mov	 eax, DWORD PTR [ecx+4]
  00003	8b 08		 mov	 ecx, DWORD PTR [eax]
  00005	8b 44 24 04	 mov	 eax, DWORD PTR ___$ReturnUdt$[esp-4]
  00009	89 08		 mov	 DWORD PTR [eax], ecx

; 409  : 		}

  0000b	c2 04 00	 ret	 4
?begin@?$_Tree@V?$_Tmap_traits@EPAU__TAXDETAIL@@U?$less@E@std@@V?$allocator@U?$pair@$$CBEPAU__TAXDETAIL@@@std@@@3@$0A@@std@@@std@@QAE?AViterator@12@XZ ENDP ; std::_Tree<std::_Tmap_traits<unsigned char,__TAXDETAIL *,std::less<unsigned char>,std::allocator<std::pair<unsigned char const ,__TAXDETAIL *> >,0> >::begin
_TEXT	ENDS
PUBLIC	?end@?$_Tree@V?$_Tmap_traits@EPAU__TAXDETAIL@@U?$less@E@std@@V?$allocator@U?$pair@$$CBEPAU__TAXDETAIL@@@std@@@3@$0A@@std@@@std@@QAE?AViterator@12@XZ ; std::_Tree<std::_Tmap_traits<unsigned char,__TAXDETAIL *,std::less<unsigned char>,std::allocator<std::pair<unsigned char const ,__TAXDETAIL *> >,0> >::end
; Function compile flags: /Ogty
;	COMDAT ?end@?$_Tree@V?$_Tmap_traits@EPAU__TAXDETAIL@@U?$less@E@std@@V?$allocator@U?$pair@$$CBEPAU__TAXDETAIL@@@std@@@3@$0A@@std@@@std@@QAE?AViterator@12@XZ
_TEXT	SEGMENT
___$ReturnUdt$ = 8					; size = 4
?end@?$_Tree@V?$_Tmap_traits@EPAU__TAXDETAIL@@U?$less@E@std@@V?$allocator@U?$pair@$$CBEPAU__TAXDETAIL@@@std@@@3@$0A@@std@@@std@@QAE?AViterator@12@XZ PROC NEAR ; std::_Tree<std::_Tmap_traits<unsigned char,__TAXDETAIL *,std::less<unsigned char>,std::allocator<std::pair<unsigned char const ,__TAXDETAIL *> >,0> >::end, COMDAT
; _this$ = ecx

; 418  : 		return (_TREE_ITERATOR(_Myhead));

  00000	8b 49 04	 mov	 ecx, DWORD PTR [ecx+4]
  00003	8b 44 24 04	 mov	 eax, DWORD PTR ___$ReturnUdt$[esp-4]
  00007	89 08		 mov	 DWORD PTR [eax], ecx

; 419  : 		}

  00009	c2 04 00	 ret	 4
?end@?$_Tree@V?$_Tmap_traits@EPAU__TAXDETAIL@@U?$less@E@std@@V?$allocator@U?$pair@$$CBEPAU__TAXDETAIL@@@std@@@3@$0A@@std@@@std@@QAE?AViterator@12@XZ ENDP ; std::_Tree<std::_Tmap_traits<unsigned char,__TAXDETAIL *,std::less<unsigned char>,std::allocator<std::pair<unsigned char const ,__TAXDETAIL *> >,0> >::end
_TEXT	ENDS
PUBLIC	??Citerator@?$_Tree@V?$_Tmap_traits@EPAU__TAXDETAIL@@U?$less@E@std@@V?$allocator@U?$pair@$$CBEPAU__TAXDETAIL@@@std@@@3@$0A@@std@@@std@@QBEPAU?$pair@$$CBEPAU__TAXDETAIL@@@2@XZ ; std::_Tree<std::_Tmap_traits<unsigned char,__TAXDETAIL *,std::less<unsigned char>,std::allocator<std::pair<unsigned char const ,__TAXDETAIL *> >,0> >::iterator::operator->
; Function compile flags: /Ogty
;	COMDAT ??Citerator@?$_Tree@V?$_Tmap_traits@EPAU__TAXDETAIL@@U?$less@E@std@@V?$allocator@U?$pair@$$CBEPAU__TAXDETAIL@@@std@@@3@$0A@@std@@@std@@QBEPAU?$pair@$$CBEPAU__TAXDETAIL@@@2@XZ
_TEXT	SEGMENT
??Citerator@?$_Tree@V?$_Tmap_traits@EPAU__TAXDETAIL@@U?$less@E@std@@V?$allocator@U?$pair@$$CBEPAU__TAXDETAIL@@@std@@@3@$0A@@std@@@std@@QBEPAU?$pair@$$CBEPAU__TAXDETAIL@@@2@XZ PROC NEAR ; std::_Tree<std::_Tmap_traits<unsigned char,__TAXDETAIL *,std::less<unsigned char>,std::allocator<std::pair<unsigned char const ,__TAXDETAIL *> >,0> >::iterator::operator->, COMDAT
; _this$ = ecx

; 322  : 			return (&**this);

  00000	8b 01		 mov	 eax, DWORD PTR [ecx]
  00002	83 c0 0c	 add	 eax, 12			; 0000000cH

; 323  : 			}

  00005	c3		 ret	 0
??Citerator@?$_Tree@V?$_Tmap_traits@EPAU__TAXDETAIL@@U?$less@E@std@@V?$allocator@U?$pair@$$CBEPAU__TAXDETAIL@@@std@@@3@$0A@@std@@@std@@QBEPAU?$pair@$$CBEPAU__TAXDETAIL@@@2@XZ ENDP ; std::_Tree<std::_Tmap_traits<unsigned char,__TAXDETAIL *,std::less<unsigned char>,std::allocator<std::pair<unsigned char const ,__TAXDETAIL *> >,0> >::iterator::operator->
_TEXT	ENDS
PUBLIC	?begin@?$_Tree@V?$_Tmap_traits@EPAU__TAXINFO@@U?$less@E@std@@V?$allocator@U?$pair@$$CBEPAU__TAXINFO@@@std@@@3@$0A@@std@@@std@@QAE?AViterator@12@XZ ; std::_Tree<std::_Tmap_traits<unsigned char,__TAXINFO *,std::less<unsigned char>,std::allocator<std::pair<unsigned char const ,__TAXINFO *> >,0> >::begin
; Function compile flags: /Ogty
;	COMDAT ?begin@?$_Tree@V?$_Tmap_traits@EPAU__TAXINFO@@U?$less@E@std@@V?$allocator@U?$pair@$$CBEPAU__TAXINFO@@@std@@@3@$0A@@std@@@std@@QAE?AViterator@12@XZ
_TEXT	SEGMENT
___$ReturnUdt$ = 8					; size = 4
?begin@?$_Tree@V?$_Tmap_traits@EPAU__TAXINFO@@U?$less@E@std@@V?$allocator@U?$pair@$$CBEPAU__TAXINFO@@@std@@@3@$0A@@std@@@std@@QAE?AViterator@12@XZ PROC NEAR ; std::_Tree<std::_Tmap_traits<unsigned char,__TAXINFO *,std::less<unsigned char>,std::allocator<std::pair<unsigned char const ,__TAXINFO *> >,0> >::begin, COMDAT
; _this$ = ecx

; 408  : 		return (_TREE_ITERATOR(_Lmost()));

  00000	8b 41 04	 mov	 eax, DWORD PTR [ecx+4]
  00003	8b 08		 mov	 ecx, DWORD PTR [eax]
  00005	8b 44 24 04	 mov	 eax, DWORD PTR ___$ReturnUdt$[esp-4]
  00009	89 08		 mov	 DWORD PTR [eax], ecx

; 409  : 		}

  0000b	c2 04 00	 ret	 4
?begin@?$_Tree@V?$_Tmap_traits@EPAU__TAXINFO@@U?$less@E@std@@V?$allocator@U?$pair@$$CBEPAU__TAXINFO@@@std@@@3@$0A@@std@@@std@@QAE?AViterator@12@XZ ENDP ; std::_Tree<std::_Tmap_traits<unsigned char,__TAXINFO *,std::less<unsigned char>,std::allocator<std::pair<unsigned char const ,__TAXINFO *> >,0> >::begin
_TEXT	ENDS
PUBLIC	?end@?$_Tree@V?$_Tmap_traits@EPAU__TAXINFO@@U?$less@E@std@@V?$allocator@U?$pair@$$CBEPAU__TAXINFO@@@std@@@3@$0A@@std@@@std@@QAE?AViterator@12@XZ ; std::_Tree<std::_Tmap_traits<unsigned char,__TAXINFO *,std::less<unsigned char>,std::allocator<std::pair<unsigned char const ,__TAXINFO *> >,0> >::end
; Function compile flags: /Ogty
;	COMDAT ?end@?$_Tree@V?$_Tmap_traits@EPAU__TAXINFO@@U?$less@E@std@@V?$allocator@U?$pair@$$CBEPAU__TAXINFO@@@std@@@3@$0A@@std@@@std@@QAE?AViterator@12@XZ
_TEXT	SEGMENT
___$ReturnUdt$ = 8					; size = 4
?end@?$_Tree@V?$_Tmap_traits@EPAU__TAXINFO@@U?$less@E@std@@V?$allocator@U?$pair@$$CBEPAU__TAXINFO@@@std@@@3@$0A@@std@@@std@@QAE?AViterator@12@XZ PROC NEAR ; std::_Tree<std::_Tmap_traits<unsigned char,__TAXINFO *,std::less<unsigned char>,std::allocator<std::pair<unsigned char const ,__TAXINFO *> >,0> >::end, COMDAT
; _this$ = ecx

; 418  : 		return (_TREE_ITERATOR(_Myhead));

  00000	8b 49 04	 mov	 ecx, DWORD PTR [ecx+4]
  00003	8b 44 24 04	 mov	 eax, DWORD PTR ___$ReturnUdt$[esp-4]
  00007	89 08		 mov	 DWORD PTR [eax], ecx

; 419  : 		}

  00009	c2 04 00	 ret	 4
?end@?$_Tree@V?$_Tmap_traits@EPAU__TAXINFO@@U?$less@E@std@@V?$allocator@U?$pair@$$CBEPAU__TAXINFO@@@std@@@3@$0A@@std@@@std@@QAE?AViterator@12@XZ ENDP ; std::_Tree<std::_Tmap_traits<unsigned char,__TAXINFO *,std::less<unsigned char>,std::allocator<std::pair<unsigned char const ,__TAXINFO *> >,0> >::end
_TEXT	ENDS
PUBLIC	??Citerator@?$_Tree@V?$_Tmap_traits@EPAU__TAXINFO@@U?$less@E@std@@V?$allocator@U?$pair@$$CBEPAU__TAXINFO@@@std@@@3@$0A@@std@@@std@@QBEPAU?$pair@$$CBEPAU__TAXINFO@@@2@XZ ; std::_Tree<std::_Tmap_traits<unsigned char,__TAXINFO *,std::less<unsigned char>,std::allocator<std::pair<unsigned char const ,__TAXINFO *> >,0> >::iterator::operator->
; Function compile flags: /Ogty
;	COMDAT ??Citerator@?$_Tree@V?$_Tmap_traits@EPAU__TAXINFO@@U?$less@E@std@@V?$allocator@U?$pair@$$CBEPAU__TAXINFO@@@std@@@3@$0A@@std@@@std@@QBEPAU?$pair@$$CBEPAU__TAXINFO@@@2@XZ
_TEXT	SEGMENT
??Citerator@?$_Tree@V?$_Tmap_traits@EPAU__TAXINFO@@U?$less@E@std@@V?$allocator@U?$pair@$$CBEPAU__TAXINFO@@@std@@@3@$0A@@std@@@std@@QBEPAU?$pair@$$CBEPAU__TAXINFO@@@2@XZ PROC NEAR ; std::_Tree<std::_Tmap_traits<unsigned char,__TAXINFO *,std::less<unsigned char>,std::allocator<std::pair<unsigned char const ,__TAXINFO *> >,0> >::iterator::operator->, COMDAT
; _this$ = ecx

; 322  : 			return (&**this);

  00000	8b 01		 mov	 eax, DWORD PTR [ecx]
  00002	83 c0 0c	 add	 eax, 12			; 0000000cH

; 323  : 			}

  00005	c3		 ret	 0
??Citerator@?$_Tree@V?$_Tmap_traits@EPAU__TAXINFO@@U?$less@E@std@@V?$allocator@U?$pair@$$CBEPAU__TAXINFO@@@std@@@3@$0A@@std@@@std@@QBEPAU?$pair@$$CBEPAU__TAXINFO@@@2@XZ ENDP ; std::_Tree<std::_Tmap_traits<unsigned char,__TAXINFO *,std::less<unsigned char>,std::allocator<std::pair<unsigned char const ,__TAXINFO *> >,0> >::iterator::operator->
_TEXT	ENDS
PUBLIC	?end@?$vector@KV?$allocator@K@std@@@std@@QAE?AViterator@12@XZ ; std::vector<unsigned long,std::allocator<unsigned long> >::end
; Function compile flags: /Ogty
; File c:\program files\microsoft visual studio .net 2003\vc7\include\vector
;	COMDAT ?end@?$vector@KV?$allocator@K@std@@@std@@QAE?AViterator@12@XZ
_TEXT	SEGMENT
___$ReturnUdt$ = 8					; size = 4
?end@?$vector@KV?$allocator@K@std@@@std@@QAE?AViterator@12@XZ PROC NEAR ; std::vector<unsigned long,std::allocator<unsigned long> >::end, COMDAT
; _this$ = ecx

; 473  : 		return (iterator(_Mylast));

  00000	8b 49 08	 mov	 ecx, DWORD PTR [ecx+8]
  00003	8b 44 24 04	 mov	 eax, DWORD PTR ___$ReturnUdt$[esp-4]
  00007	89 08		 mov	 DWORD PTR [eax], ecx

; 474  : 		}

  00009	c2 04 00	 ret	 4
?end@?$vector@KV?$allocator@K@std@@@std@@QAE?AViterator@12@XZ ENDP ; std::vector<unsigned long,std::allocator<unsigned long> >::end
_TEXT	ENDS
PUBLIC	?lower_bound@?$_Tree@V?$_Tmap_traits@EPAU__TAXDETAIL@@U?$less@E@std@@V?$allocator@U?$pair@$$CBEPAU__TAXDETAIL@@@std@@@3@$0A@@std@@@std@@QAE?AViterator@12@ABE@Z ; std::_Tree<std::_Tmap_traits<unsigned char,__TAXDETAIL *,std::less<unsigned char>,std::allocator<std::pair<unsigned char const ,__TAXDETAIL *> >,0> >::lower_bound
; Function compile flags: /Ogty
; File c:\program files\microsoft visual studio .net 2003\vc7\include\xtree
;	COMDAT ?lower_bound@?$_Tree@V?$_Tmap_traits@EPAU__TAXDETAIL@@U?$less@E@std@@V?$allocator@U?$pair@$$CBEPAU__TAXDETAIL@@@std@@@3@$0A@@std@@@std@@QAE?AViterator@12@ABE@Z
_TEXT	SEGMENT
___$ReturnUdt$ = 8					; size = 4
__Keyval$ = 12						; size = 4
?lower_bound@?$_Tree@V?$_Tmap_traits@EPAU__TAXDETAIL@@U?$less@E@std@@V?$allocator@U?$pair@$$CBEPAU__TAXDETAIL@@@std@@@3@$0A@@std@@@std@@QAE?AViterator@12@ABE@Z PROC NEAR ; std::_Tree<std::_Tmap_traits<unsigned char,__TAXDETAIL *,std::less<unsigned char>,std::allocator<std::pair<unsigned char const ,__TAXDETAIL *> >,0> >::lower_bound, COMDAT
; _this$ = ecx

; 810  : 		return (_TREE_ITERATOR(_Lbound(_Keyval)));

  00000	8b 49 04	 mov	 ecx, DWORD PTR [ecx+4]
  00003	8b 41 04	 mov	 eax, DWORD PTR [ecx+4]
  00006	8a 50 15	 mov	 dl, BYTE PTR [eax+21]
  00009	84 d2		 test	 dl, dl
  0000b	75 1d		 jne	 SHORT $L212585
  0000d	8b 54 24 08	 mov	 edx, DWORD PTR __Keyval$[esp-4]
  00011	8a 12		 mov	 dl, BYTE PTR [edx]
  00013	53		 push	 ebx
$L212572:
  00014	38 50 0c	 cmp	 BYTE PTR [eax+12], dl
  00017	73 05		 jae	 SHORT $L212574
  00019	8b 40 08	 mov	 eax, DWORD PTR [eax+8]
  0001c	eb 04		 jmp	 SHORT $L212575
$L212574:
  0001e	8b c8		 mov	 ecx, eax
  00020	8b 00		 mov	 eax, DWORD PTR [eax]
$L212575:
  00022	8a 58 15	 mov	 bl, BYTE PTR [eax+21]
  00025	84 db		 test	 bl, bl
  00027	74 eb		 je	 SHORT $L212572
  00029	5b		 pop	 ebx
$L212585:
  0002a	8b 44 24 04	 mov	 eax, DWORD PTR ___$ReturnUdt$[esp-4]
  0002e	89 08		 mov	 DWORD PTR [eax], ecx

; 811  : 		}

  00030	c2 08 00	 ret	 8
?lower_bound@?$_Tree@V?$_Tmap_traits@EPAU__TAXDETAIL@@U?$less@E@std@@V?$allocator@U?$pair@$$CBEPAU__TAXDETAIL@@@std@@@3@$0A@@std@@@std@@QAE?AViterator@12@ABE@Z ENDP ; std::_Tree<std::_Tmap_traits<unsigned char,__TAXDETAIL *,std::less<unsigned char>,std::allocator<std::pair<unsigned char const ,__TAXDETAIL *> >,0> >::lower_bound
_TEXT	ENDS
PUBLIC	?lower_bound@?$_Tree@V?$_Tmap_traits@EPAU__TAXINFO@@U?$less@E@std@@V?$allocator@U?$pair@$$CBEPAU__TAXINFO@@@std@@@3@$0A@@std@@@std@@QAE?AViterator@12@ABE@Z ; std::_Tree<std::_Tmap_traits<unsigned char,__TAXINFO *,std::less<unsigned char>,std::allocator<std::pair<unsigned char const ,__TAXINFO *> >,0> >::lower_bound
; Function compile flags: /Ogty
;	COMDAT ?lower_bound@?$_Tree@V?$_Tmap_traits@EPAU__TAXINFO@@U?$less@E@std@@V?$allocator@U?$pair@$$CBEPAU__TAXINFO@@@std@@@3@$0A@@std@@@std@@QAE?AViterator@12@ABE@Z
_TEXT	SEGMENT
___$ReturnUdt$ = 8					; size = 4
__Keyval$ = 12						; size = 4
?lower_bound@?$_Tree@V?$_Tmap_traits@EPAU__TAXINFO@@U?$less@E@std@@V?$allocator@U?$pair@$$CBEPAU__TAXINFO@@@std@@@3@$0A@@std@@@std@@QAE?AViterator@12@ABE@Z PROC NEAR ; std::_Tree<std::_Tmap_traits<unsigned char,__TAXINFO *,std::less<unsigned char>,std::allocator<std::pair<unsigned char const ,__TAXINFO *> >,0> >::lower_bound, COMDAT
; _this$ = ecx

; 810  : 		return (_TREE_ITERATOR(_Lbound(_Keyval)));

  00000	8b 49 04	 mov	 ecx, DWORD PTR [ecx+4]
  00003	8b 41 04	 mov	 eax, DWORD PTR [ecx+4]
  00006	8a 50 15	 mov	 dl, BYTE PTR [eax+21]
  00009	84 d2		 test	 dl, dl
  0000b	75 1d		 jne	 SHORT $L212657
  0000d	8b 54 24 08	 mov	 edx, DWORD PTR __Keyval$[esp-4]
  00011	8a 12		 mov	 dl, BYTE PTR [edx]
  00013	53		 push	 ebx
$L212644:
  00014	38 50 0c	 cmp	 BYTE PTR [eax+12], dl
  00017	73 05		 jae	 SHORT $L212646
  00019	8b 40 08	 mov	 eax, DWORD PTR [eax+8]
  0001c	eb 04		 jmp	 SHORT $L212647
$L212646:
  0001e	8b c8		 mov	 ecx, eax
  00020	8b 00		 mov	 eax, DWORD PTR [eax]
$L212647:
  00022	8a 58 15	 mov	 bl, BYTE PTR [eax+21]
  00025	84 db		 test	 bl, bl
  00027	74 eb		 je	 SHORT $L212644
  00029	5b		 pop	 ebx
$L212657:
  0002a	8b 44 24 04	 mov	 eax, DWORD PTR ___$ReturnUdt$[esp-4]
  0002e	89 08		 mov	 DWORD PTR [eax], ecx

; 811  : 		}

  00030	c2 08 00	 ret	 8
?lower_bound@?$_Tree@V?$_Tmap_traits@EPAU__TAXINFO@@U?$less@E@std@@V?$allocator@U?$pair@$$CBEPAU__TAXINFO@@@std@@@3@$0A@@std@@@std@@QAE?AViterator@12@ABE@Z ENDP ; std::_Tree<std::_Tmap_traits<unsigned char,__TAXINFO *,std::less<unsigned char>,std::allocator<std::pair<unsigned char const ,__TAXINFO *> >,0> >::lower_bound
_TEXT	ENDS
PUBLIC	?_Erase@?$_Tree@V?$_Tmap_traits@EPAU__TAXINFO@@U?$less@E@std@@V?$allocator@U?$pair@$$CBEPAU__TAXINFO@@@std@@@3@$0A@@std@@@std@@IAEXPAU_Node@?$_Tree_nod@V?$_Tmap_traits@EPAU__TAXINFO@@U?$less@E@std@@V?$allocator@U?$pair@$$CBEPAU__TAXINFO@@@std@@@3@$0A@@std@@@2@@Z ; std::_Tree<std::_Tmap_traits<unsigned char,__TAXINFO *,std::less<unsigned char>,std::allocator<std::pair<unsigned char const ,__TAXINFO *> >,0> >::_Erase
; Function compile flags: /Ogty
;	COMDAT ?_Erase@?$_Tree@V?$_Tmap_traits@EPAU__TAXINFO@@U?$less@E@std@@V?$allocator@U?$pair@$$CBEPAU__TAXINFO@@@std@@@3@$0A@@std@@@std@@IAEXPAU_Node@?$_Tree_nod@V?$_Tmap_traits@EPAU__TAXINFO@@U?$less@E@std@@V?$allocator@U?$pair@$$CBEPAU__TAXINFO@@@std@@@3@$0A@@std@@@2@@Z
_TEXT	SEGMENT
__Rootnode$ = 8						; size = 4
?_Erase@?$_Tree@V?$_Tmap_traits@EPAU__TAXINFO@@U?$less@E@std@@V?$allocator@U?$pair@$$CBEPAU__TAXINFO@@@std@@@3@$0A@@std@@@std@@IAEXPAU_Node@?$_Tree_nod@V?$_Tmap_traits@EPAU__TAXINFO@@U?$less@E@std@@V?$allocator@U?$pair@$$CBEPAU__TAXINFO@@@std@@@3@$0A@@std@@@2@@Z PROC NEAR ; std::_Tree<std::_Tmap_traits<unsigned char,__TAXINFO *,std::less<unsigned char>,std::allocator<std::pair<unsigned char const ,__TAXINFO *> >,0> >::_Erase, COMDAT
; _this$ = ecx

; 890  : 		{	// free entire subtree, recursively

  00000	53		 push	 ebx
  00001	56		 push	 esi
  00002	57		 push	 edi

; 891  : 		for (_Nodeptr _Pnode = _Rootnode; !_Isnil(_Pnode); _Rootnode = _Pnode)

  00003	8b 7c 24 10	 mov	 edi, DWORD PTR __Rootnode$[esp+8]
  00007	8a 47 15	 mov	 al, BYTE PTR [edi+21]
  0000a	84 c0		 test	 al, al
  0000c	8b d9		 mov	 ebx, ecx
  0000e	8b f7		 mov	 esi, edi
  00010	75 1f		 jne	 SHORT $L209327
$L209325:

; 892  : 			{	// free subtrees, then node
; 893  : 			_Erase(_Right(_Pnode));

  00012	8b 46 08	 mov	 eax, DWORD PTR [esi+8]
  00015	50		 push	 eax
  00016	8b cb		 mov	 ecx, ebx
  00018	e8 00 00 00 00	 call	 ?_Erase@?$_Tree@V?$_Tmap_traits@EPAU__TAXINFO@@U?$less@E@std@@V?$allocator@U?$pair@$$CBEPAU__TAXINFO@@@std@@@3@$0A@@std@@@std@@IAEXPAU_Node@?$_Tree_nod@V?$_Tmap_traits@EPAU__TAXINFO@@U?$less@E@std@@V?$allocator@U?$pair@$$CBEPAU__TAXINFO@@@std@@@3@$0A@@std@@@2@@Z ; std::_Tree<std::_Tmap_traits<unsigned char,__TAXINFO *,std::less<unsigned char>,std::allocator<std::pair<unsigned char const ,__TAXINFO *> >,0> >::_Erase

; 894  : 			_Pnode = _Left(_Pnode);

  0001d	8b 36		 mov	 esi, DWORD PTR [esi]

; 895  : 			this->_Alnod.destroy(_Rootnode);	// destroy, free erased node
; 896  : 			this->_Alnod.deallocate(_Rootnode, 1);

  0001f	57		 push	 edi
  00020	e8 00 00 00 00	 call	 ??3@YAXPAX@Z		; operator delete
  00025	8a 46 15	 mov	 al, BYTE PTR [esi+21]
  00028	83 c4 04	 add	 esp, 4
  0002b	84 c0		 test	 al, al
  0002d	8b fe		 mov	 edi, esi
  0002f	74 e1		 je	 SHORT $L209325
$L209327:
  00031	5f		 pop	 edi
  00032	5e		 pop	 esi
  00033	5b		 pop	 ebx

; 897  : 			}
; 898  : 		}

  00034	c2 04 00	 ret	 4
?_Erase@?$_Tree@V?$_Tmap_traits@EPAU__TAXINFO@@U?$less@E@std@@V?$allocator@U?$pair@$$CBEPAU__TAXINFO@@@std@@@3@$0A@@std@@@std@@IAEXPAU_Node@?$_Tree_nod@V?$_Tmap_traits@EPAU__TAXINFO@@U?$less@E@std@@V?$allocator@U?$pair@$$CBEPAU__TAXINFO@@@std@@@3@$0A@@std@@@2@@Z ENDP ; std::_Tree<std::_Tmap_traits<unsigned char,__TAXINFO *,std::less<unsigned char>,std::allocator<std::pair<unsigned char const ,__TAXINFO *> >,0> >::_Erase
_TEXT	ENDS
PUBLIC	?begin@?$vector@KV?$allocator@K@std@@@std@@QAE?AViterator@12@XZ ; std::vector<unsigned long,std::allocator<unsigned long> >::begin
; Function compile flags: /Ogty
; File c:\program files\microsoft visual studio .net 2003\vc7\include\vector
;	COMDAT ?begin@?$vector@KV?$allocator@K@std@@@std@@QAE?AViterator@12@XZ
_TEXT	SEGMENT
___$ReturnUdt$ = 8					; size = 4
?begin@?$vector@KV?$allocator@K@std@@@std@@QAE?AViterator@12@XZ PROC NEAR ; std::vector<unsigned long,std::allocator<unsigned long> >::begin, COMDAT
; _this$ = ecx

; 463  : 		return (iterator(_Myfirst));

  00000	8b 49 04	 mov	 ecx, DWORD PTR [ecx+4]
  00003	8b 44 24 04	 mov	 eax, DWORD PTR ___$ReturnUdt$[esp-4]
  00007	89 08		 mov	 DWORD PTR [eax], ecx

; 464  : 		}

  00009	c2 04 00	 ret	 4
?begin@?$vector@KV?$allocator@K@std@@@std@@QAE?AViterator@12@XZ ENDP ; std::vector<unsigned long,std::allocator<unsigned long> >::begin
_TEXT	ENDS
PUBLIC	?_Buynode@?$_Tree@V?$_Tmap_traits@EPAU__TAXDETAIL@@U?$less@E@std@@V?$allocator@U?$pair@$$CBEPAU__TAXDETAIL@@@std@@@3@$0A@@std@@@std@@IAEPAU_Node@?$_Tree_nod@V?$_Tmap_traits@EPAU__TAXDETAIL@@U?$less@E@std@@V?$allocator@U?$pair@$$CBEPAU__TAXDETAIL@@@std@@@3@$0A@@std@@@2@PAU342@00ABU?$pair@$$CBEPAU__TAXDETAIL@@@2@D@Z ; std::_Tree<std::_Tmap_traits<unsigned char,__TAXDETAIL *,std::less<unsigned char>,std::allocator<std::pair<unsigned char const ,__TAXDETAIL *> >,0> >::_Buynode
EXTRN	__CxxThrowException@8:NEAR
; Function compile flags: /Ogty
; File c:\program files\microsoft visual studio .net 2003\vc7\include\xtree
;	COMDAT ?_Buynode@?$_Tree@V?$_Tmap_traits@EPAU__TAXDETAIL@@U?$less@E@std@@V?$allocator@U?$pair@$$CBEPAU__TAXDETAIL@@@std@@@3@$0A@@std@@@std@@IAEPAU_Node@?$_Tree_nod@V?$_Tmap_traits@EPAU__TAXDETAIL@@U?$less@E@std@@V?$allocator@U?$pair@$$CBEPAU__TAXDETAIL@@@std@@@3@$0A@@std@@@2@PAU342@00ABU?$pair@$$CBEPAU__TAXDETAIL@@@2@D@Z
_TEXT	SEGMENT
__Larg$ = 8						; size = 4
__Parg$ = 12						; size = 4
__Rarg$ = 16						; size = 4
__Val$ = 20						; size = 4
__Carg$ = 24						; size = 1
?_Buynode@?$_Tree@V?$_Tmap_traits@EPAU__TAXDETAIL@@U?$less@E@std@@V?$allocator@U?$pair@$$CBEPAU__TAXDETAIL@@@std@@@3@$0A@@std@@@std@@IAEPAU_Node@?$_Tree_nod@V?$_Tmap_traits@EPAU__TAXDETAIL@@U?$less@E@std@@V?$allocator@U?$pair@$$CBEPAU__TAXDETAIL@@@std@@@3@$0A@@std@@@2@PAU342@00ABU?$pair@$$CBEPAU__TAXDETAIL@@@2@D@Z PROC NEAR ; std::_Tree<std::_Tmap_traits<unsigned char,__TAXDETAIL *,std::less<unsigned char>,std::allocator<std::pair<unsigned char const ,__TAXDETAIL *> >,0> >::_Buynode, COMDAT
; _this$ = ecx

; 1131 : 		_Nodeptr _Wherenode = this->_Alnod.allocate(1);

  00000	6a 18		 push	 24			; 00000018H
  00002	e8 00 00 00 00	 call	 ??2@YAPAXI@Z		; operator new
  00007	83 c4 04	 add	 esp, 4

; 1132 : 		_TRY_BEGIN
; 1133 : 		new (_Wherenode) _Node(_Larg, _Parg, _Rarg, _Val, _Carg);

  0000a	85 c0		 test	 eax, eax
  0000c	74 2e		 je	 SHORT $L212689
  0000e	8b 4c 24 04	 mov	 ecx, DWORD PTR __Larg$[esp-4]
  00012	8b 54 24 08	 mov	 edx, DWORD PTR __Parg$[esp-4]
  00016	89 08		 mov	 DWORD PTR [eax], ecx
  00018	8b 4c 24 0c	 mov	 ecx, DWORD PTR __Rarg$[esp-4]
  0001c	89 48 08	 mov	 DWORD PTR [eax+8], ecx
  0001f	8b 4c 24 10	 mov	 ecx, DWORD PTR __Val$[esp-4]
  00023	89 50 04	 mov	 DWORD PTR [eax+4], edx
  00026	8b 11		 mov	 edx, DWORD PTR [ecx]
  00028	89 50 0c	 mov	 DWORD PTR [eax+12], edx
  0002b	8b 49 04	 mov	 ecx, DWORD PTR [ecx+4]
  0002e	8a 54 24 14	 mov	 dl, BYTE PTR __Carg$[esp-4]
  00032	89 48 10	 mov	 DWORD PTR [eax+16], ecx
  00035	88 50 14	 mov	 BYTE PTR [eax+20], dl
  00038	c6 40 15 00	 mov	 BYTE PTR [eax+21], 0
$L212689:

; 1134 : 		_CATCH_ALL
; 1135 : 		this->_Alnod.deallocate(_Wherenode, 1);
; 1136 : 		_RERAISE;
; 1137 : 		_CATCH_END
; 1138 : 		return (_Wherenode);
; 1139 : 		}

  0003c	c2 14 00	 ret	 20			; 00000014H
?_Buynode@?$_Tree@V?$_Tmap_traits@EPAU__TAXDETAIL@@U?$less@E@std@@V?$allocator@U?$pair@$$CBEPAU__TAXDETAIL@@@std@@@3@$0A@@std@@@std@@IAEPAU_Node@?$_Tree_nod@V?$_Tmap_traits@EPAU__TAXDETAIL@@U?$less@E@std@@V?$allocator@U?$pair@$$CBEPAU__TAXDETAIL@@@std@@@3@$0A@@std@@@2@PAU342@00ABU?$pair@$$CBEPAU__TAXDETAIL@@@2@D@Z ENDP ; std::_Tree<std::_Tmap_traits<unsigned char,__TAXDETAIL *,std::less<unsigned char>,std::allocator<std::pair<unsigned char const ,__TAXDETAIL *> >,0> >::_Buynode
_TEXT	ENDS
PUBLIC	??Econst_iterator@?$_Tree@V?$_Tmap_traits@EPAU__TAXDETAIL@@U?$less@E@std@@V?$allocator@U?$pair@$$CBEPAU__TAXDETAIL@@@std@@@3@$0A@@std@@@std@@QAEAAV012@XZ ; std::_Tree<std::_Tmap_traits<unsigned char,__TAXDETAIL *,std::less<unsigned char>,std::allocator<std::pair<unsigned char const ,__TAXDETAIL *> >,0> >::const_iterator::operator++
; Function compile flags: /Ogty
;	COMDAT ??Econst_iterator@?$_Tree@V?$_Tmap_traits@EPAU__TAXDETAIL@@U?$less@E@std@@V?$allocator@U?$pair@$$CBEPAU__TAXDETAIL@@@std@@@3@$0A@@std@@@std@@QAEAAV012@XZ
_TEXT	SEGMENT
??Econst_iterator@?$_Tree@V?$_Tmap_traits@EPAU__TAXDETAIL@@U?$less@E@std@@V?$allocator@U?$pair@$$CBEPAU__TAXDETAIL@@@std@@@3@$0A@@std@@@std@@QAEAAV012@XZ PROC NEAR ; std::_Tree<std::_Tmap_traits<unsigned char,__TAXDETAIL *,std::less<unsigned char>,std::allocator<std::pair<unsigned char const ,__TAXDETAIL *> >,0> >::const_iterator::operator++, COMDAT
; _this$ = ecx

; 214  : 			{	// preincrement

  00000	56		 push	 esi
  00001	8b f1		 mov	 esi, ecx

; 215  : 			_Inc();

  00003	e8 00 00 00 00	 call	 ?_Inc@const_iterator@?$_Tree@V?$_Tmap_traits@EPAU__TAXDETAIL@@U?$less@E@std@@V?$allocator@U?$pair@$$CBEPAU__TAXDETAIL@@@std@@@3@$0A@@std@@@std@@QAEXXZ ; std::_Tree<std::_Tmap_traits<unsigned char,__TAXDETAIL *,std::less<unsigned char>,std::allocator<std::pair<unsigned char const ,__TAXDETAIL *> >,0> >::const_iterator::_Inc

; 216  : 			return (*this);

  00008	8b c6		 mov	 eax, esi
  0000a	5e		 pop	 esi

; 217  : 			}

  0000b	c3		 ret	 0
??Econst_iterator@?$_Tree@V?$_Tmap_traits@EPAU__TAXDETAIL@@U?$less@E@std@@V?$allocator@U?$pair@$$CBEPAU__TAXDETAIL@@@std@@@3@$0A@@std@@@std@@QAEAAV012@XZ ENDP ; std::_Tree<std::_Tmap_traits<unsigned char,__TAXDETAIL *,std::less<unsigned char>,std::allocator<std::pair<unsigned char const ,__TAXDETAIL *> >,0> >::const_iterator::operator++
_TEXT	ENDS
PUBLIC	??Fconst_iterator@?$_Tree@V?$_Tmap_traits@EPAU__TAXDETAIL@@U?$less@E@std@@V?$allocator@U?$pair@$$CBEPAU__TAXDETAIL@@@std@@@3@$0A@@std@@@std@@QAEAAV012@XZ ; std::_Tree<std::_Tmap_traits<unsigned char,__TAXDETAIL *,std::less<unsigned char>,std::allocator<std::pair<unsigned char const ,__TAXDETAIL *> >,0> >::const_iterator::operator--
; Function compile flags: /Ogty
;	COMDAT ??Fconst_iterator@?$_Tree@V?$_Tmap_traits@EPAU__TAXDETAIL@@U?$less@E@std@@V?$allocator@U?$pair@$$CBEPAU__TAXDETAIL@@@std@@@3@$0A@@std@@@std@@QAEAAV012@XZ
_TEXT	SEGMENT
??Fconst_iterator@?$_Tree@V?$_Tmap_traits@EPAU__TAXDETAIL@@U?$less@E@std@@V?$allocator@U?$pair@$$CBEPAU__TAXDETAIL@@@std@@@3@$0A@@std@@@std@@QAEAAV012@XZ PROC NEAR ; std::_Tree<std::_Tmap_traits<unsigned char,__TAXDETAIL *,std::less<unsigned char>,std::allocator<std::pair<unsigned char const ,__TAXDETAIL *> >,0> >::const_iterator::operator--, COMDAT
; _this$ = ecx

; 227  : 			{	// predecrement

  00000	56		 push	 esi
  00001	8b f1		 mov	 esi, ecx

; 228  : 			_Dec();

  00003	e8 00 00 00 00	 call	 ?_Dec@const_iterator@?$_Tree@V?$_Tmap_traits@EPAU__TAXDETAIL@@U?$less@E@std@@V?$allocator@U?$pair@$$CBEPAU__TAXDETAIL@@@std@@@3@$0A@@std@@@std@@QAEXXZ ; std::_Tree<std::_Tmap_traits<unsigned char,__TAXDETAIL *,std::less<unsigned char>,std::allocator<std::pair<unsigned char const ,__TAXDETAIL *> >,0> >::const_iterator::_Dec

; 229  : 			return (*this);

  00008	8b c6		 mov	 eax, esi
  0000a	5e		 pop	 esi

; 230  : 			}

  0000b	c3		 ret	 0
??Fconst_iterator@?$_Tree@V?$_Tmap_traits@EPAU__TAXDETAIL@@U?$less@E@std@@V?$allocator@U?$pair@$$CBEPAU__TAXDETAIL@@@std@@@3@$0A@@std@@@std@@QAEAAV012@XZ ENDP ; std::_Tree<std::_Tmap_traits<unsigned char,__TAXDETAIL *,std::less<unsigned char>,std::allocator<std::pair<unsigned char const ,__TAXDETAIL *> >,0> >::const_iterator::operator--
_TEXT	ENDS
PUBLIC	?_Buynode@?$_Tree@V?$_Tmap_traits@EPAU__TAXINFO@@U?$less@E@std@@V?$allocator@U?$pair@$$CBEPAU__TAXINFO@@@std@@@3@$0A@@std@@@std@@IAEPAU_Node@?$_Tree_nod@V?$_Tmap_traits@EPAU__TAXINFO@@U?$less@E@std@@V?$allocator@U?$pair@$$CBEPAU__TAXINFO@@@std@@@3@$0A@@std@@@2@PAU342@00ABU?$pair@$$CBEPAU__TAXINFO@@@2@D@Z ; std::_Tree<std::_Tmap_traits<unsigned char,__TAXINFO *,std::less<unsigned char>,std::allocator<std::pair<unsigned char const ,__TAXINFO *> >,0> >::_Buynode
; Function compile flags: /Ogty
;	COMDAT ?_Buynode@?$_Tree@V?$_Tmap_traits@EPAU__TAXINFO@@U?$less@E@std@@V?$allocator@U?$pair@$$CBEPAU__TAXINFO@@@std@@@3@$0A@@std@@@std@@IAEPAU_Node@?$_Tree_nod@V?$_Tmap_traits@EPAU__TAXINFO@@U?$less@E@std@@V?$allocator@U?$pair@$$CBEPAU__TAXINFO@@@std@@@3@$0A@@std@@@2@PAU342@00ABU?$pair@$$CBEPAU__TAXINFO@@@2@D@Z
_TEXT	SEGMENT
__Larg$ = 8						; size = 4
__Parg$ = 12						; size = 4
__Rarg$ = 16						; size = 4
__Val$ = 20						; size = 4
__Carg$ = 24						; size = 1
?_Buynode@?$_Tree@V?$_Tmap_traits@EPAU__TAXINFO@@U?$less@E@std@@V?$allocator@U?$pair@$$CBEPAU__TAXINFO@@@std@@@3@$0A@@std@@@std@@IAEPAU_Node@?$_Tree_nod@V?$_Tmap_traits@EPAU__TAXINFO@@U?$less@E@std@@V?$allocator@U?$pair@$$CBEPAU__TAXINFO@@@std@@@3@$0A@@std@@@2@PAU342@00ABU?$pair@$$CBEPAU__TAXINFO@@@2@D@Z PROC NEAR ; std::_Tree<std::_Tmap_traits<unsigned char,__TAXINFO *,std::less<unsigned char>,std::allocator<std::pair<unsigned char const ,__TAXINFO *> >,0> >::_Buynode, COMDAT
; _this$ = ecx

; 1131 : 		_Nodeptr _Wherenode = this->_Alnod.allocate(1);

  00000	6a 18		 push	 24			; 00000018H
  00002	e8 00 00 00 00	 call	 ??2@YAPAXI@Z		; operator new
  00007	83 c4 04	 add	 esp, 4

; 1132 : 		_TRY_BEGIN
; 1133 : 		new (_Wherenode) _Node(_Larg, _Parg, _Rarg, _Val, _Carg);

  0000a	85 c0		 test	 eax, eax
  0000c	74 2e		 je	 SHORT $L212725
  0000e	8b 4c 24 04	 mov	 ecx, DWORD PTR __Larg$[esp-4]
  00012	8b 54 24 08	 mov	 edx, DWORD PTR __Parg$[esp-4]
  00016	89 08		 mov	 DWORD PTR [eax], ecx
  00018	8b 4c 24 0c	 mov	 ecx, DWORD PTR __Rarg$[esp-4]
  0001c	89 48 08	 mov	 DWORD PTR [eax+8], ecx
  0001f	8b 4c 24 10	 mov	 ecx, DWORD PTR __Val$[esp-4]
  00023	89 50 04	 mov	 DWORD PTR [eax+4], edx
  00026	8b 11		 mov	 edx, DWORD PTR [ecx]
  00028	89 50 0c	 mov	 DWORD PTR [eax+12], edx
  0002b	8b 49 04	 mov	 ecx, DWORD PTR [ecx+4]
  0002e	8a 54 24 14	 mov	 dl, BYTE PTR __Carg$[esp-4]
  00032	89 48 10	 mov	 DWORD PTR [eax+16], ecx
  00035	88 50 14	 mov	 BYTE PTR [eax+20], dl
  00038	c6 40 15 00	 mov	 BYTE PTR [eax+21], 0
$L212725:

; 1134 : 		_CATCH_ALL
; 1135 : 		this->_Alnod.deallocate(_Wherenode, 1);
; 1136 : 		_RERAISE;
; 1137 : 		_CATCH_END
; 1138 : 		return (_Wherenode);
; 1139 : 		}

  0003c	c2 14 00	 ret	 20			; 00000014H
?_Buynode@?$_Tree@V?$_Tmap_traits@EPAU__TAXINFO@@U?$less@E@std@@V?$allocator@U?$pair@$$CBEPAU__TAXINFO@@@std@@@3@$0A@@std@@@std@@IAEPAU_Node@?$_Tree_nod@V?$_Tmap_traits@EPAU__TAXINFO@@U?$less@E@std@@V?$allocator@U?$pair@$$CBEPAU__TAXINFO@@@std@@@3@$0A@@std@@@2@PAU342@00ABU?$pair@$$CBEPAU__TAXINFO@@@2@D@Z ENDP ; std::_Tree<std::_Tmap_traits<unsigned char,__TAXINFO *,std::less<unsigned char>,std::allocator<std::pair<unsigned char const ,__TAXINFO *> >,0> >::_Buynode
_TEXT	ENDS
PUBLIC	??Econst_iterator@?$_Tree@V?$_Tmap_traits@EPAU__TAXINFO@@U?$less@E@std@@V?$allocator@U?$pair@$$CBEPAU__TAXINFO@@@std@@@3@$0A@@std@@@std@@QAEAAV012@XZ ; std::_Tree<std::_Tmap_traits<unsigned char,__TAXINFO *,std::less<unsigned char>,std::allocator<std::pair<unsigned char const ,__TAXINFO *> >,0> >::const_iterator::operator++
; Function compile flags: /Ogty
;	COMDAT ??Econst_iterator@?$_Tree@V?$_Tmap_traits@EPAU__TAXINFO@@U?$less@E@std@@V?$allocator@U?$pair@$$CBEPAU__TAXINFO@@@std@@@3@$0A@@std@@@std@@QAEAAV012@XZ
_TEXT	SEGMENT
??Econst_iterator@?$_Tree@V?$_Tmap_traits@EPAU__TAXINFO@@U?$less@E@std@@V?$allocator@U?$pair@$$CBEPAU__TAXINFO@@@std@@@3@$0A@@std@@@std@@QAEAAV012@XZ PROC NEAR ; std::_Tree<std::_Tmap_traits<unsigned char,__TAXINFO *,std::less<unsigned char>,std::allocator<std::pair<unsigned char const ,__TAXINFO *> >,0> >::const_iterator::operator++, COMDAT
; _this$ = ecx

; 214  : 			{	// preincrement

  00000	56		 push	 esi
  00001	8b f1		 mov	 esi, ecx

; 215  : 			_Inc();

  00003	e8 00 00 00 00	 call	 ?_Inc@const_iterator@?$_Tree@V?$_Tmap_traits@EPAU__TAXINFO@@U?$less@E@std@@V?$allocator@U?$pair@$$CBEPAU__TAXINFO@@@std@@@3@$0A@@std@@@std@@QAEXXZ ; std::_Tree<std::_Tmap_traits<unsigned char,__TAXINFO *,std::less<unsigned char>,std::allocator<std::pair<unsigned char const ,__TAXINFO *> >,0> >::const_iterator::_Inc

; 216  : 			return (*this);

  00008	8b c6		 mov	 eax, esi
  0000a	5e		 pop	 esi

; 217  : 			}

  0000b	c3		 ret	 0
??Econst_iterator@?$_Tree@V?$_Tmap_traits@EPAU__TAXINFO@@U?$less@E@std@@V?$allocator@U?$pair@$$CBEPAU__TAXINFO@@@std@@@3@$0A@@std@@@std@@QAEAAV012@XZ ENDP ; std::_Tree<std::_Tmap_traits<unsigned char,__TAXINFO *,std::less<unsigned char>,std::allocator<std::pair<unsigned char const ,__TAXINFO *> >,0> >::const_iterator::operator++
_TEXT	ENDS
PUBLIC	??Fconst_iterator@?$_Tree@V?$_Tmap_traits@EPAU__TAXINFO@@U?$less@E@std@@V?$allocator@U?$pair@$$CBEPAU__TAXINFO@@@std@@@3@$0A@@std@@@std@@QAEAAV012@XZ ; std::_Tree<std::_Tmap_traits<unsigned char,__TAXINFO *,std::less<unsigned char>,std::allocator<std::pair<unsigned char const ,__TAXINFO *> >,0> >::const_iterator::operator--
; Function compile flags: /Ogty
;	COMDAT ??Fconst_iterator@?$_Tree@V?$_Tmap_traits@EPAU__TAXINFO@@U?$less@E@std@@V?$allocator@U?$pair@$$CBEPAU__TAXINFO@@@std@@@3@$0A@@std@@@std@@QAEAAV012@XZ
_TEXT	SEGMENT
??Fconst_iterator@?$_Tree@V?$_Tmap_traits@EPAU__TAXINFO@@U?$less@E@std@@V?$allocator@U?$pair@$$CBEPAU__TAXINFO@@@std@@@3@$0A@@std@@@std@@QAEAAV012@XZ PROC NEAR ; std::_Tree<std::_Tmap_traits<unsigned char,__TAXINFO *,std::less<unsigned char>,std::allocator<std::pair<unsigned char const ,__TAXINFO *> >,0> >::const_iterator::operator--, COMDAT
; _this$ = ecx

; 227  : 			{	// predecrement

  00000	56		 push	 esi
  00001	8b f1		 mov	 esi, ecx

; 228  : 			_Dec();

  00003	e8 00 00 00 00	 call	 ?_Dec@const_iterator@?$_Tree@V?$_Tmap_traits@EPAU__TAXINFO@@U?$less@E@std@@V?$allocator@U?$pair@$$CBEPAU__TAXINFO@@@std@@@3@$0A@@std@@@std@@QAEXXZ ; std::_Tree<std::_Tmap_traits<unsigned char,__TAXINFO *,std::less<unsigned char>,std::allocator<std::pair<unsigned char const ,__TAXINFO *> >,0> >::const_iterator::_Dec

; 229  : 			return (*this);

  00008	8b c6		 mov	 eax, esi
  0000a	5e		 pop	 esi

; 230  : 			}

  0000b	c3		 ret	 0
??Fconst_iterator@?$_Tree@V?$_Tmap_traits@EPAU__TAXINFO@@U?$less@E@std@@V?$allocator@U?$pair@$$CBEPAU__TAXINFO@@@std@@@3@$0A@@std@@@std@@QAEAAV012@XZ ENDP ; std::_Tree<std::_Tmap_traits<unsigned char,__TAXINFO *,std::less<unsigned char>,std::allocator<std::pair<unsigned char const ,__TAXINFO *> >,0> >::const_iterator::operator--
_TEXT	ENDS
PUBLIC	?_Buynode@?$_Tree@V?$_Tmap_traits@EPAU__TAXDETAIL@@U?$less@E@std@@V?$allocator@U?$pair@$$CBEPAU__TAXDETAIL@@@std@@@3@$0A@@std@@@std@@IAEPAU_Node@?$_Tree_nod@V?$_Tmap_traits@EPAU__TAXDETAIL@@U?$less@E@std@@V?$allocator@U?$pair@$$CBEPAU__TAXDETAIL@@@std@@@3@$0A@@std@@@2@XZ ; std::_Tree<std::_Tmap_traits<unsigned char,__TAXDETAIL *,std::less<unsigned char>,std::allocator<std::pair<unsigned char const ,__TAXDETAIL *> >,0> >::_Buynode
; Function compile flags: /Ogty
;	COMDAT ?_Buynode@?$_Tree@V?$_Tmap_traits@EPAU__TAXDETAIL@@U?$less@E@std@@V?$allocator@U?$pair@$$CBEPAU__TAXDETAIL@@@std@@@3@$0A@@std@@@std@@IAEPAU_Node@?$_Tree_nod@V?$_Tmap_traits@EPAU__TAXDETAIL@@U?$less@E@std@@V?$allocator@U?$pair@$$CBEPAU__TAXDETAIL@@@std@@@3@$0A@@std@@@2@XZ
_TEXT	SEGMENT
?_Buynode@?$_Tree@V?$_Tmap_traits@EPAU__TAXDETAIL@@U?$less@E@std@@V?$allocator@U?$pair@$$CBEPAU__TAXDETAIL@@@std@@@3@$0A@@std@@@std@@IAEPAU_Node@?$_Tree_nod@V?$_Tmap_traits@EPAU__TAXDETAIL@@U?$less@E@std@@V?$allocator@U?$pair@$$CBEPAU__TAXDETAIL@@@std@@@3@$0A@@std@@@2@XZ PROC NEAR ; std::_Tree<std::_Tmap_traits<unsigned char,__TAXDETAIL *,std::less<unsigned char>,std::allocator<std::pair<unsigned char const ,__TAXDETAIL *> >,0> >::_Buynode, COMDAT
; _this$ = ecx

; 1106 : 		_Nodeptr _Wherenode = this->_Alnod.allocate(1);

  00000	6a 18		 push	 24			; 00000018H
  00002	e8 00 00 00 00	 call	 ??2@YAPAXI@Z		; operator new
  00007	83 c4 04	 add	 esp, 4

; 1107 : 		int _Linkcnt = 0;
; 1108 : 
; 1109 : 		_TRY_BEGIN
; 1110 : 		this->_Alptr.construct(&_Left(_Wherenode), 0);

  0000a	85 c0		 test	 eax, eax
  0000c	74 06		 je	 SHORT $L212792
  0000e	c7 00 00 00 00
	00		 mov	 DWORD PTR [eax], 0
$L212792:

; 1111 : 		++_Linkcnt;
; 1112 : 		this->_Alptr.construct(&_Parent(_Wherenode), 0);

  00014	8d 48 04	 lea	 ecx, DWORD PTR [eax+4]
  00017	85 c9		 test	 ecx, ecx
  00019	74 06		 je	 SHORT $L212819
  0001b	c7 01 00 00 00
	00		 mov	 DWORD PTR [ecx], 0
$L212819:

; 1113 : 		++_Linkcnt;
; 1114 : 		this->_Alptr.construct(&_Right(_Wherenode), 0);

  00021	8d 48 08	 lea	 ecx, DWORD PTR [eax+8]
  00024	85 c9		 test	 ecx, ecx
  00026	74 06		 je	 SHORT $L212846
  00028	c7 01 00 00 00
	00		 mov	 DWORD PTR [ecx], 0
$L212846:

; 1115 : 		_CATCH_ALL
; 1116 : 		if (1 < _Linkcnt)
; 1117 : 			this->_Alptr.destroy(&_Parent(_Wherenode));
; 1118 : 		if (0 < _Linkcnt)
; 1119 : 			this->_Alptr.destroy(&_Left(_Wherenode));
; 1120 : 		this->_Alnod.deallocate(_Wherenode, 1);
; 1121 : 		_RERAISE;
; 1122 : 		_CATCH_END
; 1123 : 		_Color(_Wherenode) = _Black;

  0002e	c6 40 14 01	 mov	 BYTE PTR [eax+20], 1

; 1124 : 		_Isnil(_Wherenode) = false;

  00032	c6 40 15 00	 mov	 BYTE PTR [eax+21], 0

; 1125 : 		return (_Wherenode);
; 1126 : 		}

  00036	c3		 ret	 0
?_Buynode@?$_Tree@V?$_Tmap_traits@EPAU__TAXDETAIL@@U?$less@E@std@@V?$allocator@U?$pair@$$CBEPAU__TAXDETAIL@@@std@@@3@$0A@@std@@@std@@IAEPAU_Node@?$_Tree_nod@V?$_Tmap_traits@EPAU__TAXDETAIL@@U?$less@E@std@@V?$allocator@U?$pair@$$CBEPAU__TAXDETAIL@@@std@@@3@$0A@@std@@@2@XZ ENDP ; std::_Tree<std::_Tmap_traits<unsigned char,__TAXDETAIL *,std::less<unsigned char>,std::allocator<std::pair<unsigned char const ,__TAXDETAIL *> >,0> >::_Buynode
_TEXT	ENDS
PUBLIC	??0?$_Tree_ptr@V?$_Tmap_traits@EPAU__TAXDETAIL@@U?$less@E@std@@V?$allocator@U?$pair@$$CBEPAU__TAXDETAIL@@@std@@@3@$0A@@std@@@std@@IAE@ABU?$less@E@1@V?$allocator@U?$pair@$$CBEPAU__TAXDETAIL@@@std@@@1@@Z ; std::_Tree_ptr<std::_Tmap_traits<unsigned char,__TAXDETAIL *,std::less<unsigned char>,std::allocator<std::pair<unsigned char const ,__TAXDETAIL *> >,0> >::_Tree_ptr<std::_Tmap_traits<unsigned char,__TAXDETAIL *,std::less<unsigned char>,std::allocator<std::pair<unsigned char const ,__TAXDETAIL *> >,0> >
; Function compile flags: /Ogty
;	COMDAT ??0?$_Tree_ptr@V?$_Tmap_traits@EPAU__TAXDETAIL@@U?$less@E@std@@V?$allocator@U?$pair@$$CBEPAU__TAXDETAIL@@@std@@@3@$0A@@std@@@std@@IAE@ABU?$less@E@1@V?$allocator@U?$pair@$$CBEPAU__TAXDETAIL@@@std@@@1@@Z
_TEXT	SEGMENT
__Parg$ = 8						; size = 4
__Al$ = 12						; size = 1
??0?$_Tree_ptr@V?$_Tmap_traits@EPAU__TAXDETAIL@@U?$less@E@std@@V?$allocator@U?$pair@$$CBEPAU__TAXDETAIL@@@std@@@3@$0A@@std@@@std@@IAE@ABU?$less@E@1@V?$allocator@U?$pair@$$CBEPAU__TAXDETAIL@@@std@@@1@@Z PROC NEAR ; std::_Tree_ptr<std::_Tmap_traits<unsigned char,__TAXDETAIL *,std::less<unsigned char>,std::allocator<std::pair<unsigned char const ,__TAXDETAIL *> >,0> >::_Tree_ptr<std::_Tmap_traits<unsigned char,__TAXDETAIL *,std::less<unsigned char>,std::allocator<std::pair<unsigned char const ,__TAXDETAIL *> >,0> >, COMDAT
; _this$ = ecx

; 76   : 		{	// construct base, and allocator from _Al

  00000	8b c1		 mov	 eax, ecx

; 77   : 		}

  00002	c2 08 00	 ret	 8
??0?$_Tree_ptr@V?$_Tmap_traits@EPAU__TAXDETAIL@@U?$less@E@std@@V?$allocator@U?$pair@$$CBEPAU__TAXDETAIL@@@std@@@3@$0A@@std@@@std@@IAE@ABU?$less@E@1@V?$allocator@U?$pair@$$CBEPAU__TAXDETAIL@@@std@@@1@@Z ENDP ; std::_Tree_ptr<std::_Tmap_traits<unsigned char,__TAXDETAIL *,std::less<unsigned char>,std::allocator<std::pair<unsigned char const ,__TAXDETAIL *> >,0> >::_Tree_ptr<std::_Tmap_traits<unsigned char,__TAXDETAIL *,std::less<unsigned char>,std::allocator<std::pair<unsigned char const ,__TAXDETAIL *> >,0> >
_TEXT	ENDS
PUBLIC	?_Buynode@?$_Tree@V?$_Tmap_traits@EPAU__TAXINFO@@U?$less@E@std@@V?$allocator@U?$pair@$$CBEPAU__TAXINFO@@@std@@@3@$0A@@std@@@std@@IAEPAU_Node@?$_Tree_nod@V?$_Tmap_traits@EPAU__TAXINFO@@U?$less@E@std@@V?$allocator@U?$pair@$$CBEPAU__TAXINFO@@@std@@@3@$0A@@std@@@2@XZ ; std::_Tree<std::_Tmap_traits<unsigned char,__TAXINFO *,std::less<unsigned char>,std::allocator<std::pair<unsigned char const ,__TAXINFO *> >,0> >::_Buynode
; Function compile flags: /Ogty
;	COMDAT ?_Buynode@?$_Tree@V?$_Tmap_traits@EPAU__TAXINFO@@U?$less@E@std@@V?$allocator@U?$pair@$$CBEPAU__TAXINFO@@@std@@@3@$0A@@std@@@std@@IAEPAU_Node@?$_Tree_nod@V?$_Tmap_traits@EPAU__TAXINFO@@U?$less@E@std@@V?$allocator@U?$pair@$$CBEPAU__TAXINFO@@@std@@@3@$0A@@std@@@2@XZ
_TEXT	SEGMENT
?_Buynode@?$_Tree@V?$_Tmap_traits@EPAU__TAXINFO@@U?$less@E@std@@V?$allocator@U?$pair@$$CBEPAU__TAXINFO@@@std@@@3@$0A@@std@@@std@@IAEPAU_Node@?$_Tree_nod@V?$_Tmap_traits@EPAU__TAXINFO@@U?$less@E@std@@V?$allocator@U?$pair@$$CBEPAU__TAXINFO@@@std@@@3@$0A@@std@@@2@XZ PROC NEAR ; std::_Tree<std::_Tmap_traits<unsigned char,__TAXINFO *,std::less<unsigned char>,std::allocator<std::pair<unsigned char const ,__TAXINFO *> >,0> >::_Buynode, COMDAT
; _this$ = ecx

; 1106 : 		_Nodeptr _Wherenode = this->_Alnod.allocate(1);

  00000	6a 18		 push	 24			; 00000018H
  00002	e8 00 00 00 00	 call	 ??2@YAPAXI@Z		; operator new
  00007	83 c4 04	 add	 esp, 4

; 1107 : 		int _Linkcnt = 0;
; 1108 : 
; 1109 : 		_TRY_BEGIN
; 1110 : 		this->_Alptr.construct(&_Left(_Wherenode), 0);

  0000a	85 c0		 test	 eax, eax
  0000c	74 06		 je	 SHORT $L212929
  0000e	c7 00 00 00 00
	00		 mov	 DWORD PTR [eax], 0
$L212929:

; 1111 : 		++_Linkcnt;
; 1112 : 		this->_Alptr.construct(&_Parent(_Wherenode), 0);

  00014	8d 48 04	 lea	 ecx, DWORD PTR [eax+4]
  00017	85 c9		 test	 ecx, ecx
  00019	74 06		 je	 SHORT $L212956
  0001b	c7 01 00 00 00
	00		 mov	 DWORD PTR [ecx], 0
$L212956:

; 1113 : 		++_Linkcnt;
; 1114 : 		this->_Alptr.construct(&_Right(_Wherenode), 0);

  00021	8d 48 08	 lea	 ecx, DWORD PTR [eax+8]
  00024	85 c9		 test	 ecx, ecx
  00026	74 06		 je	 SHORT $L212983
  00028	c7 01 00 00 00
	00		 mov	 DWORD PTR [ecx], 0
$L212983:

; 1115 : 		_CATCH_ALL
; 1116 : 		if (1 < _Linkcnt)
; 1117 : 			this->_Alptr.destroy(&_Parent(_Wherenode));
; 1118 : 		if (0 < _Linkcnt)
; 1119 : 			this->_Alptr.destroy(&_Left(_Wherenode));
; 1120 : 		this->_Alnod.deallocate(_Wherenode, 1);
; 1121 : 		_RERAISE;
; 1122 : 		_CATCH_END
; 1123 : 		_Color(_Wherenode) = _Black;

  0002e	c6 40 14 01	 mov	 BYTE PTR [eax+20], 1

; 1124 : 		_Isnil(_Wherenode) = false;

  00032	c6 40 15 00	 mov	 BYTE PTR [eax+21], 0

; 1125 : 		return (_Wherenode);
; 1126 : 		}

  00036	c3		 ret	 0
?_Buynode@?$_Tree@V?$_Tmap_traits@EPAU__TAXINFO@@U?$less@E@std@@V?$allocator@U?$pair@$$CBEPAU__TAXINFO@@@std@@@3@$0A@@std@@@std@@IAEPAU_Node@?$_Tree_nod@V?$_Tmap_traits@EPAU__TAXINFO@@U?$less@E@std@@V?$allocator@U?$pair@$$CBEPAU__TAXINFO@@@std@@@3@$0A@@std@@@2@XZ ENDP ; std::_Tree<std::_Tmap_traits<unsigned char,__TAXINFO *,std::less<unsigned char>,std::allocator<std::pair<unsigned char const ,__TAXINFO *> >,0> >::_Buynode
_TEXT	ENDS
PUBLIC	??0?$_Tree_ptr@V?$_Tmap_traits@EPAU__TAXINFO@@U?$less@E@std@@V?$allocator@U?$pair@$$CBEPAU__TAXINFO@@@std@@@3@$0A@@std@@@std@@IAE@ABU?$less@E@1@V?$allocator@U?$pair@$$CBEPAU__TAXINFO@@@std@@@1@@Z ; std::_Tree_ptr<std::_Tmap_traits<unsigned char,__TAXINFO *,std::less<unsigned char>,std::allocator<std::pair<unsigned char const ,__TAXINFO *> >,0> >::_Tree_ptr<std::_Tmap_traits<unsigned char,__TAXINFO *,std::less<unsigned char>,std::allocator<std::pair<unsigned char const ,__TAXINFO *> >,0> >
; Function compile flags: /Ogty
;	COMDAT ??0?$_Tree_ptr@V?$_Tmap_traits@EPAU__TAXINFO@@U?$less@E@std@@V?$allocator@U?$pair@$$CBEPAU__TAXINFO@@@std@@@3@$0A@@std@@@std@@IAE@ABU?$less@E@1@V?$allocator@U?$pair@$$CBEPAU__TAXINFO@@@std@@@1@@Z
_TEXT	SEGMENT
__Parg$ = 8						; size = 4
__Al$ = 12						; size = 1
??0?$_Tree_ptr@V?$_Tmap_traits@EPAU__TAXINFO@@U?$less@E@std@@V?$allocator@U?$pair@$$CBEPAU__TAXINFO@@@std@@@3@$0A@@std@@@std@@IAE@ABU?$less@E@1@V?$allocator@U?$pair@$$CBEPAU__TAXINFO@@@std@@@1@@Z PROC NEAR ; std::_Tree_ptr<std::_Tmap_traits<unsigned char,__TAXINFO *,std::less<unsigned char>,std::allocator<std::pair<unsigned char const ,__TAXINFO *> >,0> >::_Tree_ptr<std::_Tmap_traits<unsigned char,__TAXINFO *,std::less<unsigned char>,std::allocator<std::pair<unsigned char const ,__TAXINFO *> >,0> >, COMDAT
; _this$ = ecx

; 76   : 		{	// construct base, and allocator from _Al

  00000	8b c1		 mov	 eax, ecx

; 77   : 		}

  00002	c2 08 00	 ret	 8
??0?$_Tree_ptr@V?$_Tmap_traits@EPAU__TAXINFO@@U?$less@E@std@@V?$allocator@U?$pair@$$CBEPAU__TAXINFO@@@std@@@3@$0A@@std@@@std@@IAE@ABU?$less@E@1@V?$allocator@U?$pair@$$CBEPAU__TAXINFO@@@std@@@1@@Z ENDP ; std::_Tree_ptr<std::_Tmap_traits<unsigned char,__TAXINFO *,std::less<unsigned char>,std::allocator<std::pair<unsigned char const ,__TAXINFO *> >,0> >::_Tree_ptr<std::_Tmap_traits<unsigned char,__TAXINFO *,std::less<unsigned char>,std::allocator<std::pair<unsigned char const ,__TAXINFO *> >,0> >
_TEXT	ENDS
PUBLIC	?_Erase@?$_Tree@V?$_Tmap_traits@EPAU__TAXDETAIL@@U?$less@E@std@@V?$allocator@U?$pair@$$CBEPAU__TAXDETAIL@@@std@@@3@$0A@@std@@@std@@IAEXPAU_Node@?$_Tree_nod@V?$_Tmap_traits@EPAU__TAXDETAIL@@U?$less@E@std@@V?$allocator@U?$pair@$$CBEPAU__TAXDETAIL@@@std@@@3@$0A@@std@@@2@@Z ; std::_Tree<std::_Tmap_traits<unsigned char,__TAXDETAIL *,std::less<unsigned char>,std::allocator<std::pair<unsigned char const ,__TAXDETAIL *> >,0> >::_Erase
; Function compile flags: /Ogty
;	COMDAT ?_Erase@?$_Tree@V?$_Tmap_traits@EPAU__TAXDETAIL@@U?$less@E@std@@V?$allocator@U?$pair@$$CBEPAU__TAXDETAIL@@@std@@@3@$0A@@std@@@std@@IAEXPAU_Node@?$_Tree_nod@V?$_Tmap_traits@EPAU__TAXDETAIL@@U?$less@E@std@@V?$allocator@U?$pair@$$CBEPAU__TAXDETAIL@@@std@@@3@$0A@@std@@@2@@Z
_TEXT	SEGMENT
__Rootnode$ = 8						; size = 4
?_Erase@?$_Tree@V?$_Tmap_traits@EPAU__TAXDETAIL@@U?$less@E@std@@V?$allocator@U?$pair@$$CBEPAU__TAXDETAIL@@@std@@@3@$0A@@std@@@std@@IAEXPAU_Node@?$_Tree_nod@V?$_Tmap_traits@EPAU__TAXDETAIL@@U?$less@E@std@@V?$allocator@U?$pair@$$CBEPAU__TAXDETAIL@@@std@@@3@$0A@@std@@@2@@Z PROC NEAR ; std::_Tree<std::_Tmap_traits<unsigned char,__TAXDETAIL *,std::less<unsigned char>,std::allocator<std::pair<unsigned char const ,__TAXDETAIL *> >,0> >::_Erase, COMDAT
; _this$ = ecx

; 890  : 		{	// free entire subtree, recursively

  00000	53		 push	 ebx
  00001	56		 push	 esi
  00002	57		 push	 edi

; 891  : 		for (_Nodeptr _Pnode = _Rootnode; !_Isnil(_Pnode); _Rootnode = _Pnode)

  00003	8b 7c 24 10	 mov	 edi, DWORD PTR __Rootnode$[esp+8]
  00007	8a 47 15	 mov	 al, BYTE PTR [edi+21]
  0000a	84 c0		 test	 al, al
  0000c	8b d9		 mov	 ebx, ecx
  0000e	8b f7		 mov	 esi, edi
  00010	75 1f		 jne	 SHORT $L210009
$L210007:

; 892  : 			{	// free subtrees, then node
; 893  : 			_Erase(_Right(_Pnode));

  00012	8b 46 08	 mov	 eax, DWORD PTR [esi+8]
  00015	50		 push	 eax
  00016	8b cb		 mov	 ecx, ebx
  00018	e8 00 00 00 00	 call	 ?_Erase@?$_Tree@V?$_Tmap_traits@EPAU__TAXDETAIL@@U?$less@E@std@@V?$allocator@U?$pair@$$CBEPAU__TAXDETAIL@@@std@@@3@$0A@@std@@@std@@IAEXPAU_Node@?$_Tree_nod@V?$_Tmap_traits@EPAU__TAXDETAIL@@U?$less@E@std@@V?$allocator@U?$pair@$$CBEPAU__TAXDETAIL@@@std@@@3@$0A@@std@@@2@@Z ; std::_Tree<std::_Tmap_traits<unsigned char,__TAXDETAIL *,std::less<unsigned char>,std::allocator<std::pair<unsigned char const ,__TAXDETAIL *> >,0> >::_Erase

; 894  : 			_Pnode = _Left(_Pnode);

  0001d	8b 36		 mov	 esi, DWORD PTR [esi]

; 895  : 			this->_Alnod.destroy(_Rootnode);	// destroy, free erased node
; 896  : 			this->_Alnod.deallocate(_Rootnode, 1);

  0001f	57		 push	 edi
  00020	e8 00 00 00 00	 call	 ??3@YAXPAX@Z		; operator delete
  00025	8a 46 15	 mov	 al, BYTE PTR [esi+21]
  00028	83 c4 04	 add	 esp, 4
  0002b	84 c0		 test	 al, al
  0002d	8b fe		 mov	 edi, esi
  0002f	74 e1		 je	 SHORT $L210007
$L210009:
  00031	5f		 pop	 edi
  00032	5e		 pop	 esi
  00033	5b		 pop	 ebx

; 897  : 			}
; 898  : 		}

  00034	c2 04 00	 ret	 4
?_Erase@?$_Tree@V?$_Tmap_traits@EPAU__TAXDETAIL@@U?$less@E@std@@V?$allocator@U?$pair@$$CBEPAU__TAXDETAIL@@@std@@@3@$0A@@std@@@std@@IAEXPAU_Node@?$_Tree_nod@V?$_Tmap_traits@EPAU__TAXDETAIL@@U?$less@E@std@@V?$allocator@U?$pair@$$CBEPAU__TAXDETAIL@@@std@@@3@$0A@@std@@@2@@Z ENDP ; std::_Tree<std::_Tmap_traits<unsigned char,__TAXDETAIL *,std::less<unsigned char>,std::allocator<std::pair<unsigned char const ,__TAXDETAIL *> >,0> >::_Erase
_TEXT	ENDS
PUBLIC	??$_Uninitialized_fill_n@PAKIKV?$allocator@K@std@@@std@@YAXPAKIABKAAV?$allocator@K@0@@Z ; std::_Uninitialized_fill_n<unsigned long *,unsigned int,unsigned long,std::allocator<unsigned long> >
; Function compile flags: /Ogty
; File c:\program files\microsoft visual studio .net 2003\vc7\include\memory
;	COMDAT ??$_Uninitialized_fill_n@PAKIKV?$allocator@K@std@@@std@@YAXPAKIABKAAV?$allocator@K@0@@Z
_TEXT	SEGMENT
__First$ = 8						; size = 4
__Count$ = 12						; size = 4
__Val$ = 16						; size = 4
__Al$ = 20						; size = 4
??$_Uninitialized_fill_n@PAKIKV?$allocator@K@std@@@std@@YAXPAKIABKAAV?$allocator@K@0@@Z PROC NEAR ; std::_Uninitialized_fill_n<unsigned long *,unsigned int,unsigned long,std::allocator<unsigned long> >, COMDAT

; 256  : 	_Uninit_fill_n(_First, _Count, _Val, _Al,
; 257  : 		_Ptr_cat(_First, _First));

  00000	8b 4c 24 08	 mov	 ecx, DWORD PTR __Count$[esp-4]
  00004	85 c9		 test	 ecx, ecx
  00006	8b 44 24 04	 mov	 eax, DWORD PTR __First$[esp-4]
  0000a	76 10		 jbe	 SHORT $L213065
  0000c	8b 54 24 0c	 mov	 edx, DWORD PTR __Val$[esp-4]
  00010	56		 push	 esi
$L213063:
  00011	8b 32		 mov	 esi, DWORD PTR [edx]
  00013	89 30		 mov	 DWORD PTR [eax], esi
  00015	83 c0 04	 add	 eax, 4
  00018	49		 dec	 ecx
  00019	75 f6		 jne	 SHORT $L213063
  0001b	5e		 pop	 esi
$L213065:

; 258  : 	}

  0001c	c3		 ret	 0
??$_Uninitialized_fill_n@PAKIKV?$allocator@K@std@@@std@@YAXPAKIABKAAV?$allocator@K@0@@Z ENDP ; std::_Uninitialized_fill_n<unsigned long *,unsigned int,unsigned long,std::allocator<unsigned long> >
_TEXT	ENDS
PUBLIC	??$_Ucopy@PAK@?$vector@KV?$allocator@K@std@@@std@@IAEPAKPAK00@Z ; std::vector<unsigned long,std::allocator<unsigned long> >::_Ucopy<unsigned long *>
; Function compile flags: /Ogty
; File c:\program files\microsoft visual studio .net 2003\vc7\include\vector
;	COMDAT ??$_Ucopy@PAK@?$vector@KV?$allocator@K@std@@@std@@IAEPAKPAK00@Z
_TEXT	SEGMENT
__First$ = 8						; size = 4
__Last$ = 12						; size = 4
__Ptr$ = 16						; size = 4
??$_Ucopy@PAK@?$vector@KV?$allocator@K@std@@@std@@IAEPAKPAK00@Z PROC NEAR ; std::vector<unsigned long,std::allocator<unsigned long> >::_Ucopy<unsigned long *>, COMDAT
; _this$ = ecx

; 802  : 		{	// copy initializing [_First, _Last), using allocator
; 803  : 		return (_Uninitialized_copy(_First, _Last,
; 804  : 			_Ptr, this->_Alval));

  00000	8b 4c 24 04	 mov	 ecx, DWORD PTR __First$[esp-4]
  00004	8b 44 24 08	 mov	 eax, DWORD PTR __Last$[esp-4]
  00008	2b c1		 sub	 eax, ecx
  0000a	56		 push	 esi
  0000b	c1 f8 02	 sar	 eax, 2
  0000e	8d 34 85 00 00
	00 00		 lea	 esi, DWORD PTR [eax*4]
  00015	8b 44 24 10	 mov	 eax, DWORD PTR __Ptr$[esp]
  00019	56		 push	 esi
  0001a	51		 push	 ecx
  0001b	50		 push	 eax
  0001c	e8 00 00 00 00	 call	 _memmove
  00021	83 c4 0c	 add	 esp, 12			; 0000000cH
  00024	03 c6		 add	 eax, esi
  00026	5e		 pop	 esi

; 805  : 		}

  00027	c2 0c 00	 ret	 12			; 0000000cH
??$_Ucopy@PAK@?$vector@KV?$allocator@K@std@@@std@@IAEPAKPAK00@Z ENDP ; std::vector<unsigned long,std::allocator<unsigned long> >::_Ucopy<unsigned long *>
_TEXT	ENDS
PUBLIC	??1?$CStringT@DV?$StrTraitMFC@DV?$ChTraitsCRT@D@ATL@@@@@ATL@@QAE@XZ ; ATL::CStringT<char,StrTraitMFC<char,ATL::ChTraitsCRT<char> > >::~CStringT<char,StrTraitMFC<char,ATL::ChTraitsCRT<char> > >
; Function compile flags: /Ogty
; File c:\program files\microsoft visual studio .net 2003\vc7\atlmfc\include\cstringt.h
;	COMDAT ??1?$CStringT@DV?$StrTraitMFC@DV?$ChTraitsCRT@D@ATL@@@@@ATL@@QAE@XZ
_TEXT	SEGMENT
??1?$CStringT@DV?$StrTraitMFC@DV?$ChTraitsCRT@D@ATL@@@@@ATL@@QAE@XZ PROC NEAR ; ATL::CStringT<char,StrTraitMFC<char,ATL::ChTraitsCRT<char> > >::~CStringT<char,StrTraitMFC<char,ATL::ChTraitsCRT<char> > >, COMDAT
; _this$ = ecx

; 963  : 	}

  00000	8b 01		 mov	 eax, DWORD PTR [ecx]
  00002	83 e8 10	 sub	 eax, 16			; 00000010H
  00005	8d 48 0c	 lea	 ecx, DWORD PTR [eax+12]
  00008	83 ca ff	 or	 edx, -1
  0000b	f0 0f c1 11	 lock	  xadd	 DWORD PTR [ecx], edx
  0000f	4a		 dec	 edx
  00010	85 d2		 test	 edx, edx
  00012	7f 08		 jg	 SHORT $L213105
  00014	8b 08		 mov	 ecx, DWORD PTR [eax]
  00016	8b 11		 mov	 edx, DWORD PTR [ecx]
  00018	50		 push	 eax
  00019	ff 52 04	 call	 DWORD PTR [edx+4]
$L213105:
  0001c	c3		 ret	 0
??1?$CStringT@DV?$StrTraitMFC@DV?$ChTraitsCRT@D@ATL@@@@@ATL@@QAE@XZ ENDP ; ATL::CStringT<char,StrTraitMFC<char,ATL::ChTraitsCRT<char> > >::~CStringT<char,StrTraitMFC<char,ATL::ChTraitsCRT<char> > >
_TEXT	ENDS
PUBLIC	?_Tidy@?$basic_string@DU?$char_traits@D@std@@V?$allocator@D@2@@std@@IAEX_NI@Z ; std::basic_string<char,std::char_traits<char>,std::allocator<char> >::_Tidy
; Function compile flags: /Ogty
; File c:\program files\microsoft visual studio .net 2003\vc7\include\xstring
;	COMDAT ?_Tidy@?$basic_string@DU?$char_traits@D@std@@V?$allocator@D@2@@std@@IAEX_NI@Z
_TEXT	SEGMENT
__Built$ = 8						; size = 1
__Newsize$ = 12						; size = 4
?_Tidy@?$basic_string@DU?$char_traits@D@std@@V?$allocator@D@2@@std@@IAEX_NI@Z PROC NEAR ; std::basic_string<char,std::char_traits<char>,std::allocator<char> >::_Tidy, COMDAT
; _this$ = ecx

; 1510 : 		if (!_Built)

  00000	8a 44 24 04	 mov	 al, BYTE PTR __Built$[esp-4]
  00004	84 c0		 test	 al, al
  00006	53		 push	 ebx
  00007	55		 push	 ebp
  00008	8b 6c 24 10	 mov	 ebp, DWORD PTR __Newsize$[esp+4]
  0000c	8b d9		 mov	 ebx, ecx
  0000e	74 2f		 je	 SHORT $L213115

; 1511 : 			;
; 1512 : 		else if (_BUF_SIZE <= _Myres)

  00010	83 7b 18 10	 cmp	 DWORD PTR [ebx+24], 16	; 00000010H
  00014	72 29		 jb	 SHORT $L213115

; 1513 : 			{	// copy any leftovers to small buffer and deallocate
; 1514 : 			_Elem *_Ptr = _Bx._Ptr;
; 1515 : 			if (0 < _Newsize)

  00016	85 ed		 test	 ebp, ebp
  00018	8b 43 04	 mov	 eax, DWORD PTR [ebx+4]
  0001b	57		 push	 edi
  0001c	8d 7b 04	 lea	 edi, DWORD PTR [ebx+4]
  0001f	76 14		 jbe	 SHORT $L213112
  00021	56		 push	 esi

; 1516 : 				_Traits::copy(_Bx._Buf, _Ptr, _Newsize);

  00022	8b cd		 mov	 ecx, ebp
  00024	8b d1		 mov	 edx, ecx
  00026	c1 e9 02	 shr	 ecx, 2
  00029	8b f0		 mov	 esi, eax
  0002b	f3 a5		 rep movsd
  0002d	8b ca		 mov	 ecx, edx
  0002f	83 e1 03	 and	 ecx, 3
  00032	f3 a4		 rep movsb
  00034	5e		 pop	 esi
$L213112:

; 1517 : 			_Mybase::_Alval.deallocate(_Ptr, _Myres + 1);

  00035	50		 push	 eax
  00036	e8 00 00 00 00	 call	 ??3@YAXPAX@Z		; operator delete
  0003b	83 c4 04	 add	 esp, 4
  0003e	5f		 pop	 edi
$L213115:

; 1518 : 			}
; 1519 : 		_Myres = _BUF_SIZE - 1;
; 1520 : 		_Eos(_Newsize);

  0003f	89 6b 14	 mov	 DWORD PTR [ebx+20], ebp
  00042	c7 43 18 0f 00
	00 00		 mov	 DWORD PTR [ebx+24], 15	; 0000000fH
  00049	c6 44 2b 04 00	 mov	 BYTE PTR [ebx+ebp+4], 0
  0004e	5d		 pop	 ebp
  0004f	5b		 pop	 ebx

; 1521 : 		}

  00050	c2 08 00	 ret	 8
?_Tidy@?$basic_string@DU?$char_traits@D@std@@V?$allocator@D@2@@std@@IAEX_NI@Z ENDP ; std::basic_string<char,std::char_traits<char>,std::allocator<char> >::_Tidy
_TEXT	ENDS
PUBLIC	?_Tidy@?$vector@KV?$allocator@K@std@@@std@@IAEXXZ ; std::vector<unsigned long,std::allocator<unsigned long> >::_Tidy
; Function compile flags: /Ogty
; File c:\program files\microsoft visual studio .net 2003\vc7\include\vector
;	COMDAT ?_Tidy@?$vector@KV?$allocator@K@std@@@std@@IAEXXZ
_TEXT	SEGMENT
?_Tidy@?$vector@KV?$allocator@K@std@@@std@@IAEXXZ PROC NEAR ; std::vector<unsigned long,std::allocator<unsigned long> >::_Tidy, COMDAT
; _this$ = ecx

; 791  : 		{	// free all storage

  00000	56		 push	 esi
  00001	8b f1		 mov	 esi, ecx

; 792  : 		if (_Myfirst != 0)

  00003	8b 46 04	 mov	 eax, DWORD PTR [esi+4]
  00006	85 c0		 test	 eax, eax
  00008	74 09		 je	 SHORT $L213142

; 793  : 			{	// something to free, destroy and deallocate it
; 794  : 			_Destroy(_Myfirst, _Mylast);
; 795  : 			this->_Alval.deallocate(_Myfirst, _Myend - _Myfirst);

  0000a	50		 push	 eax
  0000b	e8 00 00 00 00	 call	 ??3@YAXPAX@Z		; operator delete
  00010	83 c4 04	 add	 esp, 4
$L213142:

; 796  : 			}
; 797  : 		_Myfirst = 0, _Mylast = 0, _Myend = 0;

  00013	c7 46 04 00 00
	00 00		 mov	 DWORD PTR [esi+4], 0
  0001a	c7 46 08 00 00
	00 00		 mov	 DWORD PTR [esi+8], 0
  00021	c7 46 0c 00 00
	00 00		 mov	 DWORD PTR [esi+12], 0
  00028	5e		 pop	 esi

; 798  : 		}

  00029	c3		 ret	 0
?_Tidy@?$vector@KV?$allocator@K@std@@@std@@IAEXXZ ENDP	; std::vector<unsigned long,std::allocator<unsigned long> >::_Tidy
_TEXT	ENDS
PUBLIC	?erase@?$basic_string@DU?$char_traits@D@std@@V?$allocator@D@2@@std@@QAEAAV12@II@Z ; std::basic_string<char,std::char_traits<char>,std::allocator<char> >::erase
EXTRN	?_Xran@_String_base@std@@QBEXXZ:NEAR		; std::_String_base::_Xran
; Function compile flags: /Ogty
; File c:\program files\microsoft visual studio .net 2003\vc7\include\xstring
;	COMDAT ?erase@?$basic_string@DU?$char_traits@D@std@@V?$allocator@D@2@@std@@QAEAAV12@II@Z
_TEXT	SEGMENT
__Off$ = 8						; size = 4
__Count$ = 12						; size = 4
?erase@?$basic_string@DU?$char_traits@D@std@@V?$allocator@D@2@@std@@QAEAAV12@II@Z PROC NEAR ; std::basic_string<char,std::char_traits<char>,std::allocator<char> >::erase, COMDAT
; _this$ = ecx

; 792  : 		{	// erase elements [_Off, _Off + _Count)

  00000	55		 push	 ebp

; 793  : 		if (_Mysize < _Off)

  00001	8b 6c 24 08	 mov	 ebp, DWORD PTR __Off$[esp]
  00005	56		 push	 esi
  00006	8b f1		 mov	 esi, ecx
  00008	39 6e 14	 cmp	 DWORD PTR [esi+20], ebp
  0000b	57		 push	 edi
  0000c	73 05		 jae	 SHORT $L184993

; 794  : 			_String_base::_Xran();	// _Off off end

  0000e	e8 00 00 00 00	 call	 ?_Xran@_String_base@std@@QBEXXZ ; std::_String_base::_Xran
$L184993:

; 795  : 		if (_Mysize - _Off < _Count)

  00013	8b 46 14	 mov	 eax, DWORD PTR [esi+20]
  00016	8b 7c 24 14	 mov	 edi, DWORD PTR __Count$[esp+8]
  0001a	2b c5		 sub	 eax, ebp
  0001c	3b c7		 cmp	 eax, edi
  0001e	73 02		 jae	 SHORT $L184994

; 796  : 			_Count = _Mysize - _Off;	// trim _Count

  00020	8b f8		 mov	 edi, eax
$L184994:

; 797  : 		if (0 < _Count)

  00022	85 ff		 test	 edi, edi
  00024	76 47		 jbe	 SHORT $L213186

; 798  : 			{	// move elements down
; 799  : 			_Traits::move(_Myptr() + _Off, _Myptr() + _Off + _Count,
; 800  : 				_Mysize - _Off - _Count);

  00026	8b 4e 18	 mov	 ecx, DWORD PTR [esi+24]
  00029	83 f9 10	 cmp	 ecx, 16			; 00000010H
  0002c	53		 push	 ebx
  0002d	8d 5e 04	 lea	 ebx, DWORD PTR [esi+4]
  00030	72 04		 jb	 SHORT $L213151
  00032	8b 13		 mov	 edx, DWORD PTR [ebx]
  00034	eb 02		 jmp	 SHORT $L213152
$L213151:
  00036	8b d3		 mov	 edx, ebx
$L213152:
  00038	83 f9 10	 cmp	 ecx, 16			; 00000010H
  0003b	72 04		 jb	 SHORT $L213158
  0003d	8b 0b		 mov	 ecx, DWORD PTR [ebx]
  0003f	eb 02		 jmp	 SHORT $L213159
$L213158:
  00041	8b cb		 mov	 ecx, ebx
$L213159:
  00043	2b c7		 sub	 eax, edi

; 803  : 			}
; 804  : 		return (*this);

  00045	03 d5		 add	 edx, ebp
  00047	50		 push	 eax
  00048	03 d7		 add	 edx, edi
  0004a	52		 push	 edx
  0004b	03 cd		 add	 ecx, ebp
  0004d	51		 push	 ecx
  0004e	e8 00 00 00 00	 call	 _memmove
  00053	8b 46 14	 mov	 eax, DWORD PTR [esi+20]
  00056	8b 4e 18	 mov	 ecx, DWORD PTR [esi+24]
  00059	2b c7		 sub	 eax, edi
  0005b	83 c4 0c	 add	 esp, 12			; 0000000cH
  0005e	83 f9 10	 cmp	 ecx, 16			; 00000010H
  00061	89 46 14	 mov	 DWORD PTR [esi+20], eax
  00064	72 02		 jb	 SHORT $L213181

; 801  : 			size_type _Newsize = _Mysize - _Count;
; 802  : 			_Eos(_Newsize);

  00066	8b 1b		 mov	 ebx, DWORD PTR [ebx]
$L213181:
  00068	c6 04 03 00	 mov	 BYTE PTR [ebx+eax], 0
  0006c	5b		 pop	 ebx
$L213186:
  0006d	5f		 pop	 edi

; 803  : 			}
; 804  : 		return (*this);

  0006e	8b c6		 mov	 eax, esi
  00070	5e		 pop	 esi
  00071	5d		 pop	 ebp

; 805  : 		}

  00072	c2 08 00	 ret	 8
?erase@?$basic_string@DU?$char_traits@D@std@@V?$allocator@D@2@@std@@QAEAAV12@II@Z ENDP ; std::basic_string<char,std::char_traits<char>,std::allocator<char> >::erase
_TEXT	ENDS
PUBLIC	?_Copy@?$basic_string@DU?$char_traits@D@std@@V?$allocator@D@2@@std@@IAEXII@Z ; std::basic_string<char,std::char_traits<char>,std::allocator<char> >::_Copy
EXTRN	__except_list:DWORD
EXTRN	___CxxFrameHandler:NEAR
;	COMDAT xdata$x
; File c:\program files\microsoft visual studio .net 2003\vc7\include\iosfwd
xdata$x	SEGMENT
$T213390 DD	0ffffffffH
	DD	00H
	DD	0ffffffffH
	DD	00H
	DD	01H
	DD	00H
	DD	01H
	DD	00H
$T213392 DD	00H
	DD	00H
	DD	00H
	DD	FLAT:$L213192
$T213393 DD	00H
	DD	00H
	DD	00H
	DD	FLAT:$L213190
$T213391 DD	02H
	DD	02H
	DD	03H
	DD	01H
	DD	FLAT:$T213392
	DD	00H
	DD	00H
	DD	03H
	DD	01H
	DD	FLAT:$T213393
$T213384 DD	019930520H
	DD	04H
	DD	FLAT:$T213390
	DD	02H
	DD	FLAT:$T213391
	DD	2 DUP(00H)
; Function compile flags: /Ogty
; File c:\program files\microsoft visual studio .net 2003\vc7\include\xstring
xdata$x	ENDS
;	COMDAT ?_Copy@?$basic_string@DU?$char_traits@D@std@@V?$allocator@D@2@@std@@IAEXII@Z
_TEXT	SEGMENT
__Newres$ = -24						; size = 4
_this$ = -20						; size = 4
__$EHRec$ = -16						; size = 16
__Ptr$ = 8						; size = 4
__Newsize$ = 8						; size = 4
__Oldlen$ = 12						; size = 4
?_Copy@?$basic_string@DU?$char_traits@D@std@@V?$allocator@D@2@@std@@IAEXII@Z PROC NEAR ; std::basic_string<char,std::char_traits<char>,std::allocator<char> >::_Copy, COMDAT
; _this$ = ecx

; 1444 : 		{	// copy _Oldlen elements to newly allocated buffer

  00000	55		 push	 ebp
  00001	8b ec		 mov	 ebp, esp
  00003	6a ff		 push	 -1
  00005	68 00 00 00 00	 push	 __ehhandler$?_Copy@?$basic_string@DU?$char_traits@D@std@@V?$allocator@D@2@@std@@IAEXII@Z
  0000a	64 a1 00 00 00
	00		 mov	 eax, DWORD PTR fs:__except_list
  00010	50		 push	 eax
  00011	64 89 25 00 00
	00 00		 mov	 DWORD PTR fs:__except_list, esp
  00018	83 ec 0c	 sub	 esp, 12			; 0000000cH

; 1445 : 		size_type _Newres = _Newsize | _ALLOC_MASK;

  0001b	8b 45 08	 mov	 eax, DWORD PTR __Newsize$[ebp]
  0001e	53		 push	 ebx
  0001f	56		 push	 esi
  00020	8b d8		 mov	 ebx, eax
  00022	83 cb 0f	 or	 ebx, 15			; 0000000fH

; 1446 : 		if (max_size() < _Newres)

  00025	83 fb fe	 cmp	 ebx, -2			; fffffffeH
  00028	57		 push	 edi
  00029	8b f1		 mov	 esi, ecx
  0002b	89 65 f0	 mov	 DWORD PTR __$EHRec$[ebp], esp
  0002e	89 75 ec	 mov	 DWORD PTR _this$[ebp], esi
  00031	76 04		 jbe	 SHORT $L185550

; 1447 : 			_Newres = _Newsize;	// undo roundup if too big

  00033	8b d8		 mov	 ebx, eax

; 1448 : 		else if (_Newres / 3 < _Myres / 2

  00035	eb 22		 jmp	 SHORT $L185552
$L185550:

; 1449 : 			&& _Myres <= max_size() - _Myres / 2)

  00037	8b 7e 18	 mov	 edi, DWORD PTR [esi+24]
  0003a	b8 ab aa aa aa	 mov	 eax, -1431655765	; aaaaaaabH
  0003f	f7 e3		 mul	 ebx
  00041	8b cf		 mov	 ecx, edi
  00043	d1 e9		 shr	 ecx, 1
  00045	d1 ea		 shr	 edx, 1
  00047	3b d1		 cmp	 edx, ecx
  00049	73 0e		 jae	 SHORT $L185552
  0004b	b8 fe ff ff ff	 mov	 eax, -2			; fffffffeH
  00050	2b c1		 sub	 eax, ecx
  00052	3b f8		 cmp	 edi, eax
  00054	77 03		 ja	 SHORT $L185552

; 1450 : 			_Newres = _Myres + _Myres / 2;	// grow exponentially if possible

  00056	8d 1c 39	 lea	 ebx, DWORD PTR [ecx+edi]
$L185552:

; 1451 : 		_Elem *_Ptr;
; 1452 : 
; 1453 : 		_TRY_BEGIN
; 1454 : 			_Ptr = _Mybase::_Alval.allocate(_Newres + 1);

  00059	8d 4b 01	 lea	 ecx, DWORD PTR [ebx+1]
  0005c	51		 push	 ecx
  0005d	c7 45 fc 00 00
	00 00		 mov	 DWORD PTR __$EHRec$[ebp+12], 0
  00064	e8 00 00 00 00	 call	 ??2@YAPAXI@Z		; operator new
  00069	8b d0		 mov	 edx, eax
  0006b	83 c4 04	 add	 esp, 4
  0006e	89 55 08	 mov	 DWORD PTR __Ptr$[ebp], edx
  00071	eb 29		 jmp	 SHORT $L185554
$L213190:

; 1455 : 		_CATCH_ALL
; 1456 : 			_Newres = _Newsize;	// allocation failed, undo roundup and retry

  00073	8b 45 08	 mov	 eax, DWORD PTR __Newsize$[ebp]
  00076	89 45 e8	 mov	 DWORD PTR __Newres$[ebp], eax

; 1457 : 			_TRY_BEGIN
; 1458 : 				_Ptr = _Mybase::_Alval.allocate(_Newres + 1);

  00079	40		 inc	 eax
  0007a	89 65 f0	 mov	 DWORD PTR __$EHRec$[ebp], esp
  0007d	50		 push	 eax
  0007e	c6 45 fc 02	 mov	 BYTE PTR __$EHRec$[ebp+12], 2
  00082	e8 00 00 00 00	 call	 ??2@YAPAXI@Z		; operator new
  00087	89 45 08	 mov	 DWORD PTR __Ptr$[ebp], eax
  0008a	83 c4 04	 add	 esp, 4

; 1462 : 			_CATCH_END
; 1463 : 		_CATCH_END

  0008d	b8 00 00 00 00	 mov	 eax, $L213385
  00092	c3		 ret	 0
$L213385:
  00093	8b 5d e8	 mov	 ebx, DWORD PTR __Newres$[ebp]
  00096	8b 75 ec	 mov	 esi, DWORD PTR _this$[ebp]
  00099	8b 55 08	 mov	 edx, DWORD PTR __Ptr$[ebp]
$L185554:

; 1464 : 
; 1465 : 		if (0 < _Oldlen)

  0009c	8b 4d 0c	 mov	 ecx, DWORD PTR __Oldlen$[ebp]
  0009f	85 c9		 test	 ecx, ecx
  000a1	76 24		 jbe	 SHORT $L213310

; 1466 : 			_Traits::copy(_Ptr, _Myptr(), _Oldlen);	// copy existing elements

  000a3	83 7e 18 10	 cmp	 DWORD PTR [esi+24], 16	; 00000010H
  000a7	72 05		 jb	 SHORT $L213305
  000a9	8b 76 04	 mov	 esi, DWORD PTR [esi+4]
  000ac	eb 03		 jmp	 SHORT $L213306
$L213305:
  000ae	83 c6 04	 add	 esi, 4
$L213306:
  000b1	8b c1		 mov	 eax, ecx
  000b3	c1 e9 02	 shr	 ecx, 2
  000b6	8b fa		 mov	 edi, edx
  000b8	f3 a5		 rep movsd
  000ba	8b c8		 mov	 ecx, eax
  000bc	83 e1 03	 and	 ecx, 3
  000bf	f3 a4		 rep movsb
  000c1	8b 75 ec	 mov	 esi, DWORD PTR _this$[ebp]
  000c4	8b 4d 0c	 mov	 ecx, DWORD PTR __Oldlen$[ebp]
$L213310:

; 1467 : 		_Tidy(true);

  000c7	83 7e 18 10	 cmp	 DWORD PTR [esi+24], 16	; 00000010H
  000cb	72 12		 jb	 SHORT $L213352
  000cd	8b 4e 04	 mov	 ecx, DWORD PTR [esi+4]
  000d0	51		 push	 ecx
  000d1	e8 00 00 00 00	 call	 ??3@YAXPAX@Z		; operator delete
  000d6	8b 55 08	 mov	 edx, DWORD PTR __Ptr$[ebp]
  000d9	8b 4d 0c	 mov	 ecx, DWORD PTR __Oldlen$[ebp]
  000dc	83 c4 04	 add	 esp, 4
$L213352:

; 1468 : 		_Bx._Ptr = _Ptr;
; 1469 : 		_Myres = _Newres;
; 1470 : 		_Eos(_Oldlen);

  000df	83 fb 10	 cmp	 ebx, 16			; 00000010H
  000e2	8d 46 04	 lea	 eax, DWORD PTR [esi+4]
  000e5	c6 00 00	 mov	 BYTE PTR [eax], 0
  000e8	89 10		 mov	 DWORD PTR [eax], edx
  000ea	89 5e 18	 mov	 DWORD PTR [esi+24], ebx
  000ed	89 4e 14	 mov	 DWORD PTR [esi+20], ecx
  000f0	72 02		 jb	 SHORT $L213378
  000f2	8b c2		 mov	 eax, edx
$L213378:

; 1471 : 		}

  000f4	5f		 pop	 edi
  000f5	c6 04 08 00	 mov	 BYTE PTR [eax+ecx], 0
  000f9	8b 4d f4	 mov	 ecx, DWORD PTR __$EHRec$[ebp+4]
  000fc	5e		 pop	 esi
  000fd	64 89 0d 00 00
	00 00		 mov	 DWORD PTR fs:__except_list, ecx
  00104	5b		 pop	 ebx
  00105	8b e5		 mov	 esp, ebp
  00107	5d		 pop	 ebp
  00108	c2 08 00	 ret	 8
$L213192:

; 1459 : 			_CATCH_ALL
; 1460 : 			_Tidy(true);	// failed again, discard storage and reraise

  0010b	8b 75 ec	 mov	 esi, DWORD PTR _this$[ebp]
  0010e	83 7e 18 10	 cmp	 DWORD PTR [esi+24], 16	; 00000010H
  00112	72 0c		 jb	 SHORT $L213291
  00114	8b 56 04	 mov	 edx, DWORD PTR [esi+4]
  00117	52		 push	 edx
  00118	e8 00 00 00 00	 call	 ??3@YAXPAX@Z		; operator delete
  0011d	83 c4 04	 add	 esp, 4
$L213291:

; 1461 : 			_RERAISE;

  00120	6a 00		 push	 0
  00122	c7 46 18 0f 00
	00 00		 mov	 DWORD PTR [esi+24], 15	; 0000000fH
  00129	c7 46 14 00 00
	00 00		 mov	 DWORD PTR [esi+20], 0
  00130	6a 00		 push	 0
  00132	c6 46 04 00	 mov	 BYTE PTR [esi+4], 0
  00136	e8 00 00 00 00	 call	 __CxxThrowException@8
$L213389:
  0013b	cc		 int	 3
_TEXT	ENDS
;	COMDAT text$x
text$x	SEGMENT
__ehhandler$?_Copy@?$basic_string@DU?$char_traits@D@std@@V?$allocator@D@2@@std@@IAEXII@Z:
  00000	b8 00 00 00 00	 mov	 eax, OFFSET FLAT:$T213384
  00005	e9 00 00 00 00	 jmp	 ___CxxFrameHandler
text$x	ENDS
?_Copy@?$basic_string@DU?$char_traits@D@std@@V?$allocator@D@2@@std@@IAEXII@Z ENDP ; std::basic_string<char,std::char_traits<char>,std::allocator<char> >::_Copy
PUBLIC	??0?$basic_string@DU?$char_traits@D@std@@V?$allocator@D@2@@std@@QAE@XZ ; std::basic_string<char,std::char_traits<char>,std::allocator<char> >::basic_string<char,std::char_traits<char>,std::allocator<char> >
; Function compile flags: /Ogty
;	COMDAT ??0?$basic_string@DU?$char_traits@D@std@@V?$allocator@D@2@@std@@QAE@XZ
_TEXT	SEGMENT
??0?$basic_string@DU?$char_traits@D@std@@V?$allocator@D@2@@std@@QAE@XZ PROC NEAR ; std::basic_string<char,std::char_traits<char>,std::allocator<char> >::basic_string<char,std::char_traits<char>,std::allocator<char> >, COMDAT
; _this$ = ecx

; 311  : 		{	// construct empty string

  00000	8b c1		 mov	 eax, ecx

; 312  : 		_Tidy();

  00002	33 c9		 xor	 ecx, ecx
  00004	c7 40 18 0f 00
	00 00		 mov	 DWORD PTR [eax+24], 15	; 0000000fH
  0000b	89 48 14	 mov	 DWORD PTR [eax+20], ecx
  0000e	88 48 04	 mov	 BYTE PTR [eax+4], cl

; 313  : 		}

  00011	c3		 ret	 0
??0?$basic_string@DU?$char_traits@D@std@@V?$allocator@D@2@@std@@QAE@XZ ENDP ; std::basic_string<char,std::char_traits<char>,std::allocator<char> >::basic_string<char,std::char_traits<char>,std::allocator<char> >
_TEXT	ENDS
PUBLIC	?clear@?$vector@KV?$allocator@K@std@@@std@@QAEXXZ ; std::vector<unsigned long,std::allocator<unsigned long> >::clear
; Function compile flags: /Ogty
; File c:\program files\microsoft visual studio .net 2003\vc7\include\vector
;	COMDAT ?clear@?$vector@KV?$allocator@K@std@@@std@@QAEXXZ
_TEXT	SEGMENT
?clear@?$vector@KV?$allocator@K@std@@@std@@QAEXXZ PROC NEAR ; std::vector<unsigned long,std::allocator<unsigned long> >::clear, COMDAT
; _this$ = ecx

; 743  : 		{	// erase all

  00000	56		 push	 esi
  00001	8b f1		 mov	 esi, ecx

; 744  : 		_Tidy();

  00003	8b 46 04	 mov	 eax, DWORD PTR [esi+4]
  00006	85 c0		 test	 eax, eax
  00008	74 09		 je	 SHORT $L213474
  0000a	50		 push	 eax
  0000b	e8 00 00 00 00	 call	 ??3@YAXPAX@Z		; operator delete
  00010	83 c4 04	 add	 esp, 4
$L213474:
  00013	c7 46 04 00 00
	00 00		 mov	 DWORD PTR [esi+4], 0
  0001a	c7 46 08 00 00
	00 00		 mov	 DWORD PTR [esi+8], 0
  00021	c7 46 0c 00 00
	00 00		 mov	 DWORD PTR [esi+12], 0
  00028	5e		 pop	 esi

; 745  : 		}

  00029	c3		 ret	 0
?clear@?$vector@KV?$allocator@K@std@@@std@@QAEXXZ ENDP	; std::vector<unsigned long,std::allocator<unsigned long> >::clear
_TEXT	ENDS
PUBLIC	?find@?$_Tree@V?$_Tmap_traits@EPAU__TAXDETAIL@@U?$less@E@std@@V?$allocator@U?$pair@$$CBEPAU__TAXDETAIL@@@std@@@3@$0A@@std@@@std@@QAE?AViterator@12@ABE@Z ; std::_Tree<std::_Tmap_traits<unsigned char,__TAXDETAIL *,std::less<unsigned char>,std::allocator<std::pair<unsigned char const ,__TAXDETAIL *> >,0> >::find
; Function compile flags: /Ogty
; File c:\program files\microsoft visual studio .net 2003\vc7\include\xtree
;	COMDAT ?find@?$_Tree@V?$_Tmap_traits@EPAU__TAXDETAIL@@U?$less@E@std@@V?$allocator@U?$pair@$$CBEPAU__TAXDETAIL@@@std@@@3@$0A@@std@@@std@@QAE?AViterator@12@ABE@Z
_TEXT	SEGMENT
$T213480 = -4						; size = 4
___$ReturnUdt$ = 8					; size = 4
__Where$ = 12						; size = 4
__Keyval$ = 12						; size = 4
?find@?$_Tree@V?$_Tmap_traits@EPAU__TAXDETAIL@@U?$less@E@std@@V?$allocator@U?$pair@$$CBEPAU__TAXDETAIL@@@std@@@3@$0A@@std@@@std@@QAE?AViterator@12@ABE@Z PROC NEAR ; std::_Tree<std::_Tmap_traits<unsigned char,__TAXDETAIL *,std::less<unsigned char>,std::allocator<std::pair<unsigned char const ,__TAXDETAIL *> >,0> >::find, COMDAT
; _this$ = ecx

; 787  : 		{	// find an element in mutable sequence that matches _Keyval

  00000	51		 push	 ecx
  00001	53		 push	 ebx
  00002	56		 push	 esi
  00003	8b f1		 mov	 esi, ecx

; 788  : 		iterator _Where = lower_bound(_Keyval);

  00005	8b 56 04	 mov	 edx, DWORD PTR [esi+4]
  00008	8b 42 04	 mov	 eax, DWORD PTR [edx+4]
  0000b	8a 48 15	 mov	 cl, BYTE PTR [eax+21]
  0000e	84 c9		 test	 cl, cl
  00010	57		 push	 edi
  00011	8b 7c 24 18	 mov	 edi, DWORD PTR __Keyval$[esp+12]
  00015	75 1e		 jne	 SHORT $L213576
  00017	8a 0f		 mov	 cl, BYTE PTR [edi]
  00019	8d a4 24 00 00
	00 00		 npad	 7
$L213575:
  00020	38 48 0c	 cmp	 BYTE PTR [eax+12], cl
  00023	73 05		 jae	 SHORT $L213577
  00025	8b 40 08	 mov	 eax, DWORD PTR [eax+8]
  00028	eb 04		 jmp	 SHORT $L213578
$L213577:
  0002a	8b d0		 mov	 edx, eax
  0002c	8b 00		 mov	 eax, DWORD PTR [eax]
$L213578:
  0002e	8a 58 15	 mov	 bl, BYTE PTR [eax+21]
  00031	84 db		 test	 bl, bl
  00033	74 eb		 je	 SHORT $L213575
$L213576:

; 789  : 		return (_Where == end() || this->comp(_Keyval, _Key(_Where._Mynode()))
; 790  : 			? end() : _Where);

  00035	8b 46 04	 mov	 eax, DWORD PTR [esi+4]
  00038	3b d0		 cmp	 edx, eax
  0003a	89 54 24 18	 mov	 DWORD PTR __Where$[esp+12], edx
  0003e	74 1a		 je	 SHORT $L213479
  00040	8a 0f		 mov	 cl, BYTE PTR [edi]
  00042	3a 4a 0c	 cmp	 cl, BYTE PTR [edx+12]
  00045	72 13		 jb	 SHORT $L213479
  00047	8d 44 24 18	 lea	 eax, DWORD PTR __Where$[esp+12]
  0004b	8b 10		 mov	 edx, DWORD PTR [eax]
  0004d	8b 44 24 14	 mov	 eax, DWORD PTR ___$ReturnUdt$[esp+12]
  00051	5f		 pop	 edi
  00052	5e		 pop	 esi
  00053	89 10		 mov	 DWORD PTR [eax], edx
  00055	5b		 pop	 ebx

; 791  : 		}

  00056	59		 pop	 ecx
  00057	c2 08 00	 ret	 8
$L213479:

; 789  : 		return (_Where == end() || this->comp(_Keyval, _Key(_Where._Mynode()))
; 790  : 			? end() : _Where);

  0005a	89 44 24 0c	 mov	 DWORD PTR $T213480[esp+16], eax
  0005e	8d 44 24 0c	 lea	 eax, DWORD PTR $T213480[esp+16]
  00062	8b 10		 mov	 edx, DWORD PTR [eax]
  00064	8b 44 24 14	 mov	 eax, DWORD PTR ___$ReturnUdt$[esp+12]
  00068	5f		 pop	 edi
  00069	5e		 pop	 esi
  0006a	89 10		 mov	 DWORD PTR [eax], edx
  0006c	5b		 pop	 ebx

; 791  : 		}

  0006d	59		 pop	 ecx
  0006e	c2 08 00	 ret	 8
?find@?$_Tree@V?$_Tmap_traits@EPAU__TAXDETAIL@@U?$less@E@std@@V?$allocator@U?$pair@$$CBEPAU__TAXDETAIL@@@std@@@3@$0A@@std@@@std@@QAE?AViterator@12@ABE@Z ENDP ; std::_Tree<std::_Tmap_traits<unsigned char,__TAXDETAIL *,std::less<unsigned char>,std::allocator<std::pair<unsigned char const ,__TAXDETAIL *> >,0> >::find
_TEXT	ENDS
PUBLIC	?clear@?$_Tree@V?$_Tmap_traits@EPAU__TAXINFO@@U?$less@E@std@@V?$allocator@U?$pair@$$CBEPAU__TAXINFO@@@std@@@3@$0A@@std@@@std@@QAEXXZ ; std::_Tree<std::_Tmap_traits<unsigned char,__TAXINFO *,std::less<unsigned char>,std::allocator<std::pair<unsigned char const ,__TAXINFO *> >,0> >::clear
; Function compile flags: /Ogty
;	COMDAT ?clear@?$_Tree@V?$_Tmap_traits@EPAU__TAXINFO@@U?$less@E@std@@V?$allocator@U?$pair@$$CBEPAU__TAXINFO@@@std@@@3@$0A@@std@@@std@@QAEXXZ
_TEXT	SEGMENT
?clear@?$_Tree@V?$_Tmap_traits@EPAU__TAXINFO@@U?$less@E@std@@V?$allocator@U?$pair@$$CBEPAU__TAXINFO@@@std@@@3@$0A@@std@@@std@@QAEXXZ PROC NEAR ; std::_Tree<std::_Tmap_traits<unsigned char,__TAXINFO *,std::less<unsigned char>,std::allocator<std::pair<unsigned char const ,__TAXINFO *> >,0> >::clear, COMDAT
; _this$ = ecx

; 780  : 		{	// erase all

  00000	56		 push	 esi
  00001	8b f1		 mov	 esi, ecx

; 781  : 		_Erase(_Root());

  00003	8b 46 04	 mov	 eax, DWORD PTR [esi+4]
  00006	8b 48 04	 mov	 ecx, DWORD PTR [eax+4]
  00009	51		 push	 ecx
  0000a	8b ce		 mov	 ecx, esi
  0000c	e8 00 00 00 00	 call	 ?_Erase@?$_Tree@V?$_Tmap_traits@EPAU__TAXINFO@@U?$less@E@std@@V?$allocator@U?$pair@$$CBEPAU__TAXINFO@@@std@@@3@$0A@@std@@@std@@IAEXPAU_Node@?$_Tree_nod@V?$_Tmap_traits@EPAU__TAXINFO@@U?$less@E@std@@V?$allocator@U?$pair@$$CBEPAU__TAXINFO@@@std@@@3@$0A@@std@@@2@@Z ; std::_Tree<std::_Tmap_traits<unsigned char,__TAXINFO *,std::less<unsigned char>,std::allocator<std::pair<unsigned char const ,__TAXINFO *> >,0> >::_Erase

; 782  : 		_Root() = _Myhead, _Mysize = 0;

  00011	8b 46 04	 mov	 eax, DWORD PTR [esi+4]
  00014	89 40 04	 mov	 DWORD PTR [eax+4], eax

; 783  : 		_Lmost() = _Myhead, _Rmost() = _Myhead;

  00017	8b 46 04	 mov	 eax, DWORD PTR [esi+4]
  0001a	c7 46 08 00 00
	00 00		 mov	 DWORD PTR [esi+8], 0
  00021	89 00		 mov	 DWORD PTR [eax], eax
  00023	8b 76 04	 mov	 esi, DWORD PTR [esi+4]
  00026	89 76 08	 mov	 DWORD PTR [esi+8], esi
  00029	5e		 pop	 esi

; 784  : 		}

  0002a	c3		 ret	 0
?clear@?$_Tree@V?$_Tmap_traits@EPAU__TAXINFO@@U?$less@E@std@@V?$allocator@U?$pair@$$CBEPAU__TAXINFO@@@std@@@3@$0A@@std@@@std@@QAEXXZ ENDP ; std::_Tree<std::_Tmap_traits<unsigned char,__TAXINFO *,std::less<unsigned char>,std::allocator<std::pair<unsigned char const ,__TAXINFO *> >,0> >::clear
_TEXT	ENDS
PUBLIC	?find@?$_Tree@V?$_Tmap_traits@EPAU__TAXINFO@@U?$less@E@std@@V?$allocator@U?$pair@$$CBEPAU__TAXINFO@@@std@@@3@$0A@@std@@@std@@QAE?AViterator@12@ABE@Z ; std::_Tree<std::_Tmap_traits<unsigned char,__TAXINFO *,std::less<unsigned char>,std::allocator<std::pair<unsigned char const ,__TAXINFO *> >,0> >::find
; Function compile flags: /Ogty
;	COMDAT ?find@?$_Tree@V?$_Tmap_traits@EPAU__TAXINFO@@U?$less@E@std@@V?$allocator@U?$pair@$$CBEPAU__TAXINFO@@@std@@@3@$0A@@std@@@std@@QAE?AViterator@12@ABE@Z
_TEXT	SEGMENT
$T213678 = -4						; size = 4
___$ReturnUdt$ = 8					; size = 4
__Where$ = 12						; size = 4
__Keyval$ = 12						; size = 4
?find@?$_Tree@V?$_Tmap_traits@EPAU__TAXINFO@@U?$less@E@std@@V?$allocator@U?$pair@$$CBEPAU__TAXINFO@@@std@@@3@$0A@@std@@@std@@QAE?AViterator@12@ABE@Z PROC NEAR ; std::_Tree<std::_Tmap_traits<unsigned char,__TAXINFO *,std::less<unsigned char>,std::allocator<std::pair<unsigned char const ,__TAXINFO *> >,0> >::find, COMDAT
; _this$ = ecx

; 787  : 		{	// find an element in mutable sequence that matches _Keyval

  00000	51		 push	 ecx
  00001	53		 push	 ebx
  00002	56		 push	 esi
  00003	8b f1		 mov	 esi, ecx

; 788  : 		iterator _Where = lower_bound(_Keyval);

  00005	8b 56 04	 mov	 edx, DWORD PTR [esi+4]
  00008	8b 42 04	 mov	 eax, DWORD PTR [edx+4]
  0000b	8a 48 15	 mov	 cl, BYTE PTR [eax+21]
  0000e	84 c9		 test	 cl, cl
  00010	57		 push	 edi
  00011	8b 7c 24 18	 mov	 edi, DWORD PTR __Keyval$[esp+12]
  00015	75 1e		 jne	 SHORT $L213774
  00017	8a 0f		 mov	 cl, BYTE PTR [edi]
  00019	8d a4 24 00 00
	00 00		 npad	 7
$L213773:
  00020	38 48 0c	 cmp	 BYTE PTR [eax+12], cl
  00023	73 05		 jae	 SHORT $L213775
  00025	8b 40 08	 mov	 eax, DWORD PTR [eax+8]
  00028	eb 04		 jmp	 SHORT $L213776
$L213775:
  0002a	8b d0		 mov	 edx, eax
  0002c	8b 00		 mov	 eax, DWORD PTR [eax]
$L213776:
  0002e	8a 58 15	 mov	 bl, BYTE PTR [eax+21]
  00031	84 db		 test	 bl, bl
  00033	74 eb		 je	 SHORT $L213773
$L213774:

; 789  : 		return (_Where == end() || this->comp(_Keyval, _Key(_Where._Mynode()))
; 790  : 			? end() : _Where);

  00035	8b 46 04	 mov	 eax, DWORD PTR [esi+4]
  00038	3b d0		 cmp	 edx, eax
  0003a	89 54 24 18	 mov	 DWORD PTR __Where$[esp+12], edx
  0003e	74 1a		 je	 SHORT $L213677
  00040	8a 0f		 mov	 cl, BYTE PTR [edi]
  00042	3a 4a 0c	 cmp	 cl, BYTE PTR [edx+12]
  00045	72 13		 jb	 SHORT $L213677
  00047	8d 44 24 18	 lea	 eax, DWORD PTR __Where$[esp+12]
  0004b	8b 10		 mov	 edx, DWORD PTR [eax]
  0004d	8b 44 24 14	 mov	 eax, DWORD PTR ___$ReturnUdt$[esp+12]
  00051	5f		 pop	 edi
  00052	5e		 pop	 esi
  00053	89 10		 mov	 DWORD PTR [eax], edx
  00055	5b		 pop	 ebx

; 791  : 		}

  00056	59		 pop	 ecx
  00057	c2 08 00	 ret	 8
$L213677:

; 789  : 		return (_Where == end() || this->comp(_Keyval, _Key(_Where._Mynode()))
; 790  : 			? end() : _Where);

  0005a	89 44 24 0c	 mov	 DWORD PTR $T213678[esp+16], eax
  0005e	8d 44 24 0c	 lea	 eax, DWORD PTR $T213678[esp+16]
  00062	8b 10		 mov	 edx, DWORD PTR [eax]
  00064	8b 44 24 14	 mov	 eax, DWORD PTR ___$ReturnUdt$[esp+12]
  00068	5f		 pop	 edi
  00069	5e		 pop	 esi
  0006a	89 10		 mov	 DWORD PTR [eax], edx
  0006c	5b		 pop	 ebx

; 791  : 		}

  0006d	59		 pop	 ecx
  0006e	c2 08 00	 ret	 8
?find@?$_Tree@V?$_Tmap_traits@EPAU__TAXINFO@@U?$less@E@std@@V?$allocator@U?$pair@$$CBEPAU__TAXINFO@@@std@@@3@$0A@@std@@@std@@QAE?AViterator@12@ABE@Z ENDP ; std::_Tree<std::_Tmap_traits<unsigned char,__TAXINFO *,std::less<unsigned char>,std::allocator<std::pair<unsigned char const ,__TAXINFO *> >,0> >::find
_TEXT	ENDS
PUBLIC	?_Ufill@?$vector@KV?$allocator@K@std@@@std@@IAEPAKPAKIABK@Z ; std::vector<unsigned long,std::allocator<unsigned long> >::_Ufill
; Function compile flags: /Ogty
; File c:\program files\microsoft visual studio .net 2003\vc7\include\vector
;	COMDAT ?_Ufill@?$vector@KV?$allocator@K@std@@@std@@IAEPAKPAKIABK@Z
_TEXT	SEGMENT
__Ptr$ = 8						; size = 4
__Count$ = 12						; size = 4
__Val$ = 16						; size = 4
?_Ufill@?$vector@KV?$allocator@K@std@@@std@@IAEPAKPAKIABK@Z PROC NEAR ; std::vector<unsigned long,std::allocator<unsigned long> >::_Ufill, COMDAT
; _this$ = ecx

; 877  : 		{	// copy initializing _Count * _Val, using allocator

  00000	56		 push	 esi

; 878  : 		_Uninitialized_fill_n(_Ptr, _Count, _Val, this->_Alval);

  00001	8b 74 24 0c	 mov	 esi, DWORD PTR __Count$[esp]
  00005	85 f6		 test	 esi, esi
  00007	57		 push	 edi
  00008	8b 7c 24 0c	 mov	 edi, DWORD PTR __Ptr$[esp+4]
  0000c	8b c7		 mov	 eax, edi
  0000e	76 12		 jbe	 SHORT $L213875
  00010	8b 54 24 14	 mov	 edx, DWORD PTR __Val$[esp+4]
  00014	8b ce		 mov	 ecx, esi
  00016	53		 push	 ebx
$L213869:
  00017	8b 1a		 mov	 ebx, DWORD PTR [edx]
  00019	89 18		 mov	 DWORD PTR [eax], ebx
  0001b	83 c0 04	 add	 eax, 4
  0001e	49		 dec	 ecx
  0001f	75 f6		 jne	 SHORT $L213869
  00021	5b		 pop	 ebx
$L213875:

; 879  : 		return (_Ptr + _Count);

  00022	8d 04 b7	 lea	 eax, DWORD PTR [edi+esi*4]
  00025	5f		 pop	 edi
  00026	5e		 pop	 esi

; 880  : 		}

  00027	c2 0c 00	 ret	 12			; 0000000cH
?_Ufill@?$vector@KV?$allocator@K@std@@@std@@IAEPAKPAKIABK@Z ENDP ; std::vector<unsigned long,std::allocator<unsigned long> >::_Ufill
_TEXT	ENDS
PUBLIC	??Eiterator@?$_Tree@V?$_Tmap_traits@EPAU__TAXDETAIL@@U?$less@E@std@@V?$allocator@U?$pair@$$CBEPAU__TAXDETAIL@@@std@@@3@$0A@@std@@@std@@QAEAAV012@XZ ; std::_Tree<std::_Tmap_traits<unsigned char,__TAXDETAIL *,std::less<unsigned char>,std::allocator<std::pair<unsigned char const ,__TAXDETAIL *> >,0> >::iterator::operator++
; Function compile flags: /Ogty
; File c:\program files\microsoft visual studio .net 2003\vc7\include\xtree
;	COMDAT ??Eiterator@?$_Tree@V?$_Tmap_traits@EPAU__TAXDETAIL@@U?$less@E@std@@V?$allocator@U?$pair@$$CBEPAU__TAXDETAIL@@@std@@@3@$0A@@std@@@std@@QAEAAV012@XZ
_TEXT	SEGMENT
??Eiterator@?$_Tree@V?$_Tmap_traits@EPAU__TAXDETAIL@@U?$less@E@std@@V?$allocator@U?$pair@$$CBEPAU__TAXDETAIL@@@std@@@3@$0A@@std@@@std@@QAEAAV012@XZ PROC NEAR ; std::_Tree<std::_Tmap_traits<unsigned char,__TAXDETAIL *,std::less<unsigned char>,std::allocator<std::pair<unsigned char const ,__TAXDETAIL *> >,0> >::iterator::operator++, COMDAT
; _this$ = ecx

; 326  : 			{	// preincrement

  00000	56		 push	 esi
  00001	8b f1		 mov	 esi, ecx

; 327  : 			++(*(const_iterator *)this);

  00003	e8 00 00 00 00	 call	 ?_Inc@const_iterator@?$_Tree@V?$_Tmap_traits@EPAU__TAXDETAIL@@U?$less@E@std@@V?$allocator@U?$pair@$$CBEPAU__TAXDETAIL@@@std@@@3@$0A@@std@@@std@@QAEXXZ ; std::_Tree<std::_Tmap_traits<unsigned char,__TAXDETAIL *,std::less<unsigned char>,std::allocator<std::pair<unsigned char const ,__TAXDETAIL *> >,0> >::const_iterator::_Inc

; 328  : 			return (*this);

  00008	8b c6		 mov	 eax, esi
  0000a	5e		 pop	 esi

; 329  : 			}

  0000b	c3		 ret	 0
??Eiterator@?$_Tree@V?$_Tmap_traits@EPAU__TAXDETAIL@@U?$less@E@std@@V?$allocator@U?$pair@$$CBEPAU__TAXDETAIL@@@std@@@3@$0A@@std@@@std@@QAEAAV012@XZ ENDP ; std::_Tree<std::_Tmap_traits<unsigned char,__TAXDETAIL *,std::less<unsigned char>,std::allocator<std::pair<unsigned char const ,__TAXDETAIL *> >,0> >::iterator::operator++
_TEXT	ENDS
PUBLIC	??Fiterator@?$_Tree@V?$_Tmap_traits@EPAU__TAXDETAIL@@U?$less@E@std@@V?$allocator@U?$pair@$$CBEPAU__TAXDETAIL@@@std@@@3@$0A@@std@@@std@@QAEAAV012@XZ ; std::_Tree<std::_Tmap_traits<unsigned char,__TAXDETAIL *,std::less<unsigned char>,std::allocator<std::pair<unsigned char const ,__TAXDETAIL *> >,0> >::iterator::operator--
; Function compile flags: /Ogty
;	COMDAT ??Fiterator@?$_Tree@V?$_Tmap_traits@EPAU__TAXDETAIL@@U?$less@E@std@@V?$allocator@U?$pair@$$CBEPAU__TAXDETAIL@@@std@@@3@$0A@@std@@@std@@QAEAAV012@XZ
_TEXT	SEGMENT
??Fiterator@?$_Tree@V?$_Tmap_traits@EPAU__TAXDETAIL@@U?$less@E@std@@V?$allocator@U?$pair@$$CBEPAU__TAXDETAIL@@@std@@@3@$0A@@std@@@std@@QAEAAV012@XZ PROC NEAR ; std::_Tree<std::_Tmap_traits<unsigned char,__TAXDETAIL *,std::less<unsigned char>,std::allocator<std::pair<unsigned char const ,__TAXDETAIL *> >,0> >::iterator::operator--, COMDAT
; _this$ = ecx

; 339  : 			{	// predecrement

  00000	56		 push	 esi
  00001	8b f1		 mov	 esi, ecx

; 340  : 			--(*(const_iterator *)this);

  00003	e8 00 00 00 00	 call	 ?_Dec@const_iterator@?$_Tree@V?$_Tmap_traits@EPAU__TAXDETAIL@@U?$less@E@std@@V?$allocator@U?$pair@$$CBEPAU__TAXDETAIL@@@std@@@3@$0A@@std@@@std@@QAEXXZ ; std::_Tree<std::_Tmap_traits<unsigned char,__TAXDETAIL *,std::less<unsigned char>,std::allocator<std::pair<unsigned char const ,__TAXDETAIL *> >,0> >::const_iterator::_Dec

; 341  : 			return (*this);

  00008	8b c6		 mov	 eax, esi
  0000a	5e		 pop	 esi

; 342  : 			}

  0000b	c3		 ret	 0
??Fiterator@?$_Tree@V?$_Tmap_traits@EPAU__TAXDETAIL@@U?$less@E@std@@V?$allocator@U?$pair@$$CBEPAU__TAXDETAIL@@@std@@@3@$0A@@std@@@std@@QAEAAV012@XZ ENDP ; std::_Tree<std::_Tmap_traits<unsigned char,__TAXDETAIL *,std::less<unsigned char>,std::allocator<std::pair<unsigned char const ,__TAXDETAIL *> >,0> >::iterator::operator--
_TEXT	ENDS
PUBLIC	??Eiterator@?$_Tree@V?$_Tmap_traits@EPAU__TAXINFO@@U?$less@E@std@@V?$allocator@U?$pair@$$CBEPAU__TAXINFO@@@std@@@3@$0A@@std@@@std@@QAEAAV012@XZ ; std::_Tree<std::_Tmap_traits<unsigned char,__TAXINFO *,std::less<unsigned char>,std::allocator<std::pair<unsigned char const ,__TAXINFO *> >,0> >::iterator::operator++
; Function compile flags: /Ogty
;	COMDAT ??Eiterator@?$_Tree@V?$_Tmap_traits@EPAU__TAXINFO@@U?$less@E@std@@V?$allocator@U?$pair@$$CBEPAU__TAXINFO@@@std@@@3@$0A@@std@@@std@@QAEAAV012@XZ
_TEXT	SEGMENT
??Eiterator@?$_Tree@V?$_Tmap_traits@EPAU__TAXINFO@@U?$less@E@std@@V?$allocator@U?$pair@$$CBEPAU__TAXINFO@@@std@@@3@$0A@@std@@@std@@QAEAAV012@XZ PROC NEAR ; std::_Tree<std::_Tmap_traits<unsigned char,__TAXINFO *,std::less<unsigned char>,std::allocator<std::pair<unsigned char const ,__TAXINFO *> >,0> >::iterator::operator++, COMDAT
; _this$ = ecx

; 326  : 			{	// preincrement

  00000	56		 push	 esi
  00001	8b f1		 mov	 esi, ecx

; 327  : 			++(*(const_iterator *)this);

  00003	e8 00 00 00 00	 call	 ?_Inc@const_iterator@?$_Tree@V?$_Tmap_traits@EPAU__TAXINFO@@U?$less@E@std@@V?$allocator@U?$pair@$$CBEPAU__TAXINFO@@@std@@@3@$0A@@std@@@std@@QAEXXZ ; std::_Tree<std::_Tmap_traits<unsigned char,__TAXINFO *,std::less<unsigned char>,std::allocator<std::pair<unsigned char const ,__TAXINFO *> >,0> >::const_iterator::_Inc

; 328  : 			return (*this);

  00008	8b c6		 mov	 eax, esi
  0000a	5e		 pop	 esi

; 329  : 			}

  0000b	c3		 ret	 0
??Eiterator@?$_Tree@V?$_Tmap_traits@EPAU__TAXINFO@@U?$less@E@std@@V?$allocator@U?$pair@$$CBEPAU__TAXINFO@@@std@@@3@$0A@@std@@@std@@QAEAAV012@XZ ENDP ; std::_Tree<std::_Tmap_traits<unsigned char,__TAXINFO *,std::less<unsigned char>,std::allocator<std::pair<unsigned char const ,__TAXINFO *> >,0> >::iterator::operator++
_TEXT	ENDS
PUBLIC	??Fiterator@?$_Tree@V?$_Tmap_traits@EPAU__TAXINFO@@U?$less@E@std@@V?$allocator@U?$pair@$$CBEPAU__TAXINFO@@@std@@@3@$0A@@std@@@std@@QAEAAV012@XZ ; std::_Tree<std::_Tmap_traits<unsigned char,__TAXINFO *,std::less<unsigned char>,std::allocator<std::pair<unsigned char const ,__TAXINFO *> >,0> >::iterator::operator--
; Function compile flags: /Ogty
;	COMDAT ??Fiterator@?$_Tree@V?$_Tmap_traits@EPAU__TAXINFO@@U?$less@E@std@@V?$allocator@U?$pair@$$CBEPAU__TAXINFO@@@std@@@3@$0A@@std@@@std@@QAEAAV012@XZ
_TEXT	SEGMENT
??Fiterator@?$_Tree@V?$_Tmap_traits@EPAU__TAXINFO@@U?$less@E@std@@V?$allocator@U?$pair@$$CBEPAU__TAXINFO@@@std@@@3@$0A@@std@@@std@@QAEAAV012@XZ PROC NEAR ; std::_Tree<std::_Tmap_traits<unsigned char,__TAXINFO *,std::less<unsigned char>,std::allocator<std::pair<unsigned char const ,__TAXINFO *> >,0> >::iterator::operator--, COMDAT
; _this$ = ecx

; 339  : 			{	// predecrement

  00000	56		 push	 esi
  00001	8b f1		 mov	 esi, ecx

; 340  : 			--(*(const_iterator *)this);

  00003	e8 00 00 00 00	 call	 ?_Dec@const_iterator@?$_Tree@V?$_Tmap_traits@EPAU__TAXINFO@@U?$less@E@std@@V?$allocator@U?$pair@$$CBEPAU__TAXINFO@@@std@@@3@$0A@@std@@@std@@QAEXXZ ; std::_Tree<std::_Tmap_traits<unsigned char,__TAXINFO *,std::less<unsigned char>,std::allocator<std::pair<unsigned char const ,__TAXINFO *> >,0> >::const_iterator::_Dec

; 341  : 			return (*this);

  00008	8b c6		 mov	 eax, esi
  0000a	5e		 pop	 esi

; 342  : 			}

  0000b	c3		 ret	 0
??Fiterator@?$_Tree@V?$_Tmap_traits@EPAU__TAXINFO@@U?$less@E@std@@V?$allocator@U?$pair@$$CBEPAU__TAXINFO@@@std@@@3@$0A@@std@@@std@@QAEAAV012@XZ ENDP ; std::_Tree<std::_Tmap_traits<unsigned char,__TAXINFO *,std::less<unsigned char>,std::allocator<std::pair<unsigned char const ,__TAXINFO *> >,0> >::iterator::operator--
_TEXT	ENDS
PUBLIC	?_Init@?$_Tree@V?$_Tmap_traits@EPAU__TAXDETAIL@@U?$less@E@std@@V?$allocator@U?$pair@$$CBEPAU__TAXDETAIL@@@std@@@3@$0A@@std@@@std@@IAEXXZ ; std::_Tree<std::_Tmap_traits<unsigned char,__TAXDETAIL *,std::less<unsigned char>,std::allocator<std::pair<unsigned char const ,__TAXDETAIL *> >,0> >::_Init
; Function compile flags: /Ogty
;	COMDAT ?_Init@?$_Tree@V?$_Tmap_traits@EPAU__TAXDETAIL@@U?$less@E@std@@V?$allocator@U?$pair@$$CBEPAU__TAXDETAIL@@@std@@@3@$0A@@std@@@std@@IAEXXZ
_TEXT	SEGMENT
?_Init@?$_Tree@V?$_Tmap_traits@EPAU__TAXDETAIL@@U?$less@E@std@@V?$allocator@U?$pair@$$CBEPAU__TAXDETAIL@@@std@@@3@$0A@@std@@@std@@IAEXXZ PROC NEAR ; std::_Tree<std::_Tmap_traits<unsigned char,__TAXDETAIL *,std::less<unsigned char>,std::allocator<std::pair<unsigned char const ,__TAXDETAIL *> >,0> >::_Init, COMDAT
; _this$ = ecx

; 901  : 		{	// create head/nil node and make tree empty

  00000	56		 push	 esi
  00001	8b f1		 mov	 esi, ecx

; 902  : 		_Myhead = _Buynode();

  00003	e8 00 00 00 00	 call	 ?_Buynode@?$_Tree@V?$_Tmap_traits@EPAU__TAXDETAIL@@U?$less@E@std@@V?$allocator@U?$pair@$$CBEPAU__TAXDETAIL@@@std@@@3@$0A@@std@@@std@@IAEPAU_Node@?$_Tree_nod@V?$_Tmap_traits@EPAU__TAXDETAIL@@U?$less@E@std@@V?$allocator@U?$pair@$$CBEPAU__TAXDETAIL@@@std@@@3@$0A@@std@@@2@XZ ; std::_Tree<std::_Tmap_traits<unsigned char,__TAXDETAIL *,std::less<unsigned char>,std::allocator<std::pair<unsigned char const ,__TAXDETAIL *> >,0> >::_Buynode
  00008	89 46 04	 mov	 DWORD PTR [esi+4], eax

; 903  : 		_Isnil(_Myhead) = true;

  0000b	c6 40 15 01	 mov	 BYTE PTR [eax+21], 1

; 904  : 		_Root() = _Myhead;

  0000f	8b 46 04	 mov	 eax, DWORD PTR [esi+4]
  00012	89 40 04	 mov	 DWORD PTR [eax+4], eax

; 905  : 		_Lmost() = _Myhead, _Rmost() = _Myhead;

  00015	8b 46 04	 mov	 eax, DWORD PTR [esi+4]
  00018	89 00		 mov	 DWORD PTR [eax], eax
  0001a	8b 46 04	 mov	 eax, DWORD PTR [esi+4]
  0001d	89 40 08	 mov	 DWORD PTR [eax+8], eax

; 906  : 		_Mysize = 0;

  00020	c7 46 08 00 00
	00 00		 mov	 DWORD PTR [esi+8], 0
  00027	5e		 pop	 esi

; 907  : 		}

  00028	c3		 ret	 0
?_Init@?$_Tree@V?$_Tmap_traits@EPAU__TAXDETAIL@@U?$less@E@std@@V?$allocator@U?$pair@$$CBEPAU__TAXDETAIL@@@std@@@3@$0A@@std@@@std@@IAEXXZ ENDP ; std::_Tree<std::_Tmap_traits<unsigned char,__TAXDETAIL *,std::less<unsigned char>,std::allocator<std::pair<unsigned char const ,__TAXDETAIL *> >,0> >::_Init
_TEXT	ENDS
PUBLIC	??0?$_Tree_val@V?$_Tmap_traits@EPAU__TAXDETAIL@@U?$less@E@std@@V?$allocator@U?$pair@$$CBEPAU__TAXDETAIL@@@std@@@3@$0A@@std@@@std@@IAE@ABU?$less@E@1@V?$allocator@U?$pair@$$CBEPAU__TAXDETAIL@@@std@@@1@@Z ; std::_Tree_val<std::_Tmap_traits<unsigned char,__TAXDETAIL *,std::less<unsigned char>,std::allocator<std::pair<unsigned char const ,__TAXDETAIL *> >,0> >::_Tree_val<std::_Tmap_traits<unsigned char,__TAXDETAIL *,std::less<unsigned char>,std::allocator<std::pair<unsigned char const ,__TAXDETAIL *> >,0> >
; Function compile flags: /Ogty
;	COMDAT ??0?$_Tree_val@V?$_Tmap_traits@EPAU__TAXDETAIL@@U?$less@E@std@@V?$allocator@U?$pair@$$CBEPAU__TAXDETAIL@@@std@@@3@$0A@@std@@@std@@IAE@ABU?$less@E@1@V?$allocator@U?$pair@$$CBEPAU__TAXDETAIL@@@std@@@1@@Z
_TEXT	SEGMENT
__Parg$ = 8						; size = 4
__Al$ = 12						; size = 1
??0?$_Tree_val@V?$_Tmap_traits@EPAU__TAXDETAIL@@U?$less@E@std@@V?$allocator@U?$pair@$$CBEPAU__TAXDETAIL@@@std@@@3@$0A@@std@@@std@@IAE@ABU?$less@E@1@V?$allocator@U?$pair@$$CBEPAU__TAXDETAIL@@@std@@@1@@Z PROC NEAR ; std::_Tree_val<std::_Tmap_traits<unsigned char,__TAXDETAIL *,std::less<unsigned char>,std::allocator<std::pair<unsigned char const ,__TAXDETAIL *> >,0> >::_Tree_val<std::_Tmap_traits<unsigned char,__TAXDETAIL *,std::less<unsigned char>,std::allocator<std::pair<unsigned char const ,__TAXDETAIL *> >,0> >, COMDAT
; _this$ = ecx

; 95   : 		{	// construct base, and allocator from _Al

  00000	8b c1		 mov	 eax, ecx

; 96   : 		}

  00002	c2 08 00	 ret	 8
??0?$_Tree_val@V?$_Tmap_traits@EPAU__TAXDETAIL@@U?$less@E@std@@V?$allocator@U?$pair@$$CBEPAU__TAXDETAIL@@@std@@@3@$0A@@std@@@std@@IAE@ABU?$less@E@1@V?$allocator@U?$pair@$$CBEPAU__TAXDETAIL@@@std@@@1@@Z ENDP ; std::_Tree_val<std::_Tmap_traits<unsigned char,__TAXDETAIL *,std::less<unsigned char>,std::allocator<std::pair<unsigned char const ,__TAXDETAIL *> >,0> >::_Tree_val<std::_Tmap_traits<unsigned char,__TAXDETAIL *,std::less<unsigned char>,std::allocator<std::pair<unsigned char const ,__TAXDETAIL *> >,0> >
_TEXT	ENDS
PUBLIC	?_Init@?$_Tree@V?$_Tmap_traits@EPAU__TAXINFO@@U?$less@E@std@@V?$allocator@U?$pair@$$CBEPAU__TAXINFO@@@std@@@3@$0A@@std@@@std@@IAEXXZ ; std::_Tree<std::_Tmap_traits<unsigned char,__TAXINFO *,std::less<unsigned char>,std::allocator<std::pair<unsigned char const ,__TAXINFO *> >,0> >::_Init
; Function compile flags: /Ogty
;	COMDAT ?_Init@?$_Tree@V?$_Tmap_traits@EPAU__TAXINFO@@U?$less@E@std@@V?$allocator@U?$pair@$$CBEPAU__TAXINFO@@@std@@@3@$0A@@std@@@std@@IAEXXZ
_TEXT	SEGMENT
?_Init@?$_Tree@V?$_Tmap_traits@EPAU__TAXINFO@@U?$less@E@std@@V?$allocator@U?$pair@$$CBEPAU__TAXINFO@@@std@@@3@$0A@@std@@@std@@IAEXXZ PROC NEAR ; std::_Tree<std::_Tmap_traits<unsigned char,__TAXINFO *,std::less<unsigned char>,std::allocator<std::pair<unsigned char const ,__TAXINFO *> >,0> >::_Init, COMDAT
; _this$ = ecx

; 901  : 		{	// create head/nil node and make tree empty

  00000	56		 push	 esi
  00001	8b f1		 mov	 esi, ecx

; 902  : 		_Myhead = _Buynode();

  00003	e8 00 00 00 00	 call	 ?_Buynode@?$_Tree@V?$_Tmap_traits@EPAU__TAXINFO@@U?$less@E@std@@V?$allocator@U?$pair@$$CBEPAU__TAXINFO@@@std@@@3@$0A@@std@@@std@@IAEPAU_Node@?$_Tree_nod@V?$_Tmap_traits@EPAU__TAXINFO@@U?$less@E@std@@V?$allocator@U?$pair@$$CBEPAU__TAXINFO@@@std@@@3@$0A@@std@@@2@XZ ; std::_Tree<std::_Tmap_traits<unsigned char,__TAXINFO *,std::less<unsigned char>,std::allocator<std::pair<unsigned char const ,__TAXINFO *> >,0> >::_Buynode
  00008	89 46 04	 mov	 DWORD PTR [esi+4], eax

; 903  : 		_Isnil(_Myhead) = true;

  0000b	c6 40 15 01	 mov	 BYTE PTR [eax+21], 1

; 904  : 		_Root() = _Myhead;

  0000f	8b 46 04	 mov	 eax, DWORD PTR [esi+4]
  00012	89 40 04	 mov	 DWORD PTR [eax+4], eax

; 905  : 		_Lmost() = _Myhead, _Rmost() = _Myhead;

  00015	8b 46 04	 mov	 eax, DWORD PTR [esi+4]
  00018	89 00		 mov	 DWORD PTR [eax], eax
  0001a	8b 46 04	 mov	 eax, DWORD PTR [esi+4]
  0001d	89 40 08	 mov	 DWORD PTR [eax+8], eax

; 906  : 		_Mysize = 0;

  00020	c7 46 08 00 00
	00 00		 mov	 DWORD PTR [esi+8], 0
  00027	5e		 pop	 esi

; 907  : 		}

  00028	c3		 ret	 0
?_Init@?$_Tree@V?$_Tmap_traits@EPAU__TAXINFO@@U?$less@E@std@@V?$allocator@U?$pair@$$CBEPAU__TAXINFO@@@std@@@3@$0A@@std@@@std@@IAEXXZ ENDP ; std::_Tree<std::_Tmap_traits<unsigned char,__TAXINFO *,std::less<unsigned char>,std::allocator<std::pair<unsigned char const ,__TAXINFO *> >,0> >::_Init
_TEXT	ENDS
PUBLIC	??0?$_Tree_val@V?$_Tmap_traits@EPAU__TAXINFO@@U?$less@E@std@@V?$allocator@U?$pair@$$CBEPAU__TAXINFO@@@std@@@3@$0A@@std@@@std@@IAE@ABU?$less@E@1@V?$allocator@U?$pair@$$CBEPAU__TAXINFO@@@std@@@1@@Z ; std::_Tree_val<std::_Tmap_traits<unsigned char,__TAXINFO *,std::less<unsigned char>,std::allocator<std::pair<unsigned char const ,__TAXINFO *> >,0> >::_Tree_val<std::_Tmap_traits<unsigned char,__TAXINFO *,std::less<unsigned char>,std::allocator<std::pair<unsigned char const ,__TAXINFO *> >,0> >
; Function compile flags: /Ogty
;	COMDAT ??0?$_Tree_val@V?$_Tmap_traits@EPAU__TAXINFO@@U?$less@E@std@@V?$allocator@U?$pair@$$CBEPAU__TAXINFO@@@std@@@3@$0A@@std@@@std@@IAE@ABU?$less@E@1@V?$allocator@U?$pair@$$CBEPAU__TAXINFO@@@std@@@1@@Z
_TEXT	SEGMENT
__Parg$ = 8						; size = 4
__Al$ = 12						; size = 1
??0?$_Tree_val@V?$_Tmap_traits@EPAU__TAXINFO@@U?$less@E@std@@V?$allocator@U?$pair@$$CBEPAU__TAXINFO@@@std@@@3@$0A@@std@@@std@@IAE@ABU?$less@E@1@V?$allocator@U?$pair@$$CBEPAU__TAXINFO@@@std@@@1@@Z PROC NEAR ; std::_Tree_val<std::_Tmap_traits<unsigned char,__TAXINFO *,std::less<unsigned char>,std::allocator<std::pair<unsigned char const ,__TAXINFO *> >,0> >::_Tree_val<std::_Tmap_traits<unsigned char,__TAXINFO *,std::less<unsigned char>,std::allocator<std::pair<unsigned char const ,__TAXINFO *> >,0> >, COMDAT
; _this$ = ecx

; 95   : 		{	// construct base, and allocator from _Al

  00000	8b c1		 mov	 eax, ecx

; 96   : 		}

  00002	c2 08 00	 ret	 8
??0?$_Tree_val@V?$_Tmap_traits@EPAU__TAXINFO@@U?$less@E@std@@V?$allocator@U?$pair@$$CBEPAU__TAXINFO@@@std@@@3@$0A@@std@@@std@@IAE@ABU?$less@E@1@V?$allocator@U?$pair@$$CBEPAU__TAXINFO@@@std@@@1@@Z ENDP ; std::_Tree_val<std::_Tmap_traits<unsigned char,__TAXINFO *,std::less<unsigned char>,std::allocator<std::pair<unsigned char const ,__TAXINFO *> >,0> >::_Tree_val<std::_Tmap_traits<unsigned char,__TAXINFO *,std::less<unsigned char>,std::allocator<std::pair<unsigned char const ,__TAXINFO *> >,0> >
_TEXT	ENDS
PUBLIC	?clear@?$_Tree@V?$_Tmap_traits@EPAU__TAXDETAIL@@U?$less@E@std@@V?$allocator@U?$pair@$$CBEPAU__TAXDETAIL@@@std@@@3@$0A@@std@@@std@@QAEXXZ ; std::_Tree<std::_Tmap_traits<unsigned char,__TAXDETAIL *,std::less<unsigned char>,std::allocator<std::pair<unsigned char const ,__TAXDETAIL *> >,0> >::clear
; Function compile flags: /Ogty
;	COMDAT ?clear@?$_Tree@V?$_Tmap_traits@EPAU__TAXDETAIL@@U?$less@E@std@@V?$allocator@U?$pair@$$CBEPAU__TAXDETAIL@@@std@@@3@$0A@@std@@@std@@QAEXXZ
_TEXT	SEGMENT
?clear@?$_Tree@V?$_Tmap_traits@EPAU__TAXDETAIL@@U?$less@E@std@@V?$allocator@U?$pair@$$CBEPAU__TAXDETAIL@@@std@@@3@$0A@@std@@@std@@QAEXXZ PROC NEAR ; std::_Tree<std::_Tmap_traits<unsigned char,__TAXDETAIL *,std::less<unsigned char>,std::allocator<std::pair<unsigned char const ,__TAXDETAIL *> >,0> >::clear, COMDAT
; _this$ = ecx

; 780  : 		{	// erase all

  00000	56		 push	 esi
  00001	8b f1		 mov	 esi, ecx

; 781  : 		_Erase(_Root());

  00003	8b 46 04	 mov	 eax, DWORD PTR [esi+4]
  00006	8b 48 04	 mov	 ecx, DWORD PTR [eax+4]
  00009	51		 push	 ecx
  0000a	8b ce		 mov	 ecx, esi
  0000c	e8 00 00 00 00	 call	 ?_Erase@?$_Tree@V?$_Tmap_traits@EPAU__TAXDETAIL@@U?$less@E@std@@V?$allocator@U?$pair@$$CBEPAU__TAXDETAIL@@@std@@@3@$0A@@std@@@std@@IAEXPAU_Node@?$_Tree_nod@V?$_Tmap_traits@EPAU__TAXDETAIL@@U?$less@E@std@@V?$allocator@U?$pair@$$CBEPAU__TAXDETAIL@@@std@@@3@$0A@@std@@@2@@Z ; std::_Tree<std::_Tmap_traits<unsigned char,__TAXDETAIL *,std::less<unsigned char>,std::allocator<std::pair<unsigned char const ,__TAXDETAIL *> >,0> >::_Erase

; 782  : 		_Root() = _Myhead, _Mysize = 0;

  00011	8b 46 04	 mov	 eax, DWORD PTR [esi+4]
  00014	89 40 04	 mov	 DWORD PTR [eax+4], eax

; 783  : 		_Lmost() = _Myhead, _Rmost() = _Myhead;

  00017	8b 46 04	 mov	 eax, DWORD PTR [esi+4]
  0001a	c7 46 08 00 00
	00 00		 mov	 DWORD PTR [esi+8], 0
  00021	89 00		 mov	 DWORD PTR [eax], eax
  00023	8b 76 04	 mov	 esi, DWORD PTR [esi+4]
  00026	89 76 08	 mov	 DWORD PTR [esi+8], esi
  00029	5e		 pop	 esi

; 784  : 		}

  0002a	c3		 ret	 0
?clear@?$_Tree@V?$_Tmap_traits@EPAU__TAXDETAIL@@U?$less@E@std@@V?$allocator@U?$pair@$$CBEPAU__TAXDETAIL@@@std@@@3@$0A@@std@@@std@@QAEXXZ ENDP ; std::_Tree<std::_Tmap_traits<unsigned char,__TAXDETAIL *,std::less<unsigned char>,std::allocator<std::pair<unsigned char const ,__TAXDETAIL *> >,0> >::clear
_TEXT	ENDS
PUBLIC	??1?$basic_string@DU?$char_traits@D@std@@V?$allocator@D@2@@std@@QAE@XZ ; std::basic_string<char,std::char_traits<char>,std::allocator<char> >::~basic_string<char,std::char_traits<char>,std::allocator<char> >
; Function compile flags: /Ogty
; File c:\program files\microsoft visual studio .net 2003\vc7\include\xstring
;	COMDAT ??1?$basic_string@DU?$char_traits@D@std@@V?$allocator@D@2@@std@@QAE@XZ
_TEXT	SEGMENT
??1?$basic_string@DU?$char_traits@D@std@@V?$allocator@D@2@@std@@QAE@XZ PROC NEAR ; std::basic_string<char,std::char_traits<char>,std::allocator<char> >::~basic_string<char,std::char_traits<char>,std::allocator<char> >, COMDAT
; _this$ = ecx

; 456  : 		{	// destroy the string

  00000	56		 push	 esi
  00001	8b f1		 mov	 esi, ecx

; 457  : 		_Tidy(true);

  00003	83 7e 18 10	 cmp	 DWORD PTR [esi+24], 16	; 00000010H
  00007	72 0c		 jb	 SHORT $L214121
  00009	8b 46 04	 mov	 eax, DWORD PTR [esi+4]
  0000c	50		 push	 eax
  0000d	e8 00 00 00 00	 call	 ??3@YAXPAX@Z		; operator delete
  00012	83 c4 04	 add	 esp, 4
$L214121:
  00015	33 c0		 xor	 eax, eax
  00017	c7 46 18 0f 00
	00 00		 mov	 DWORD PTR [esi+24], 15	; 0000000fH
  0001e	89 46 14	 mov	 DWORD PTR [esi+20], eax
  00021	88 46 04	 mov	 BYTE PTR [esi+4], al
  00024	5e		 pop	 esi

; 458  : 		}

  00025	c3		 ret	 0
??1?$basic_string@DU?$char_traits@D@std@@V?$allocator@D@2@@std@@QAE@XZ ENDP ; std::basic_string<char,std::char_traits<char>,std::allocator<char> >::~basic_string<char,std::char_traits<char>,std::allocator<char> >
_TEXT	ENDS
PUBLIC	??1?$vector@KV?$allocator@K@std@@@std@@QAE@XZ	; std::vector<unsigned long,std::allocator<unsigned long> >::~vector<unsigned long,std::allocator<unsigned long> >
; Function compile flags: /Ogty
; File c:\program files\microsoft visual studio .net 2003\vc7\include\vector
;	COMDAT ??1?$vector@KV?$allocator@K@std@@@std@@QAE@XZ
_TEXT	SEGMENT
??1?$vector@KV?$allocator@K@std@@@std@@QAE@XZ PROC NEAR	; std::vector<unsigned long,std::allocator<unsigned long> >::~vector<unsigned long,std::allocator<unsigned long> >, COMDAT
; _this$ = ecx

; 387  : 		{	// destroy the object

  00000	56		 push	 esi
  00001	8b f1		 mov	 esi, ecx

; 388  : 		_Tidy();

  00003	8b 46 04	 mov	 eax, DWORD PTR [esi+4]
  00006	85 c0		 test	 eax, eax
  00008	74 09		 je	 SHORT $L214147
  0000a	50		 push	 eax
  0000b	e8 00 00 00 00	 call	 ??3@YAXPAX@Z		; operator delete
  00010	83 c4 04	 add	 esp, 4
$L214147:
  00013	c7 46 04 00 00
	00 00		 mov	 DWORD PTR [esi+4], 0
  0001a	c7 46 08 00 00
	00 00		 mov	 DWORD PTR [esi+8], 0
  00021	c7 46 0c 00 00
	00 00		 mov	 DWORD PTR [esi+12], 0
  00028	5e		 pop	 esi

; 389  : 		}

  00029	c3		 ret	 0
??1?$vector@KV?$allocator@K@std@@@std@@QAE@XZ ENDP	; std::vector<unsigned long,std::allocator<unsigned long> >::~vector<unsigned long,std::allocator<unsigned long> >
_TEXT	ENDS
PUBLIC	?_Grow@?$basic_string@DU?$char_traits@D@std@@V?$allocator@D@2@@std@@IAE_NI_N@Z ; std::basic_string<char,std::char_traits<char>,std::allocator<char> >::_Grow
EXTRN	?_Xlen@_String_base@std@@QBEXXZ:NEAR		; std::_String_base::_Xlen
; Function compile flags: /Ogty
; File c:\program files\microsoft visual studio .net 2003\vc7\include\xstring
;	COMDAT ?_Grow@?$basic_string@DU?$char_traits@D@std@@V?$allocator@D@2@@std@@IAE_NI_N@Z
_TEXT	SEGMENT
__Newsize$ = 8						; size = 4
__Trim$ = 12						; size = 1
?_Grow@?$basic_string@DU?$char_traits@D@std@@V?$allocator@D@2@@std@@IAE_NI_N@Z PROC NEAR ; std::basic_string<char,std::char_traits<char>,std::allocator<char> >::_Grow, COMDAT
; _this$ = ecx

; 1480 : 		{	// ensure buffer is big enough, trim to size if _Trim is true

  00000	55		 push	 ebp
  00001	56		 push	 esi

; 1481 : 		if (max_size() < _Newsize)

  00002	8b 74 24 0c	 mov	 esi, DWORD PTR __Newsize$[esp+4]
  00006	83 fe fe	 cmp	 esi, -2			; fffffffeH
  00009	8b e9		 mov	 ebp, ecx
  0000b	76 05		 jbe	 SHORT $L185002

; 1482 : 			_String_base::_Xlen();	// result too long

  0000d	e8 00 00 00 00	 call	 ?_Xlen@_String_base@std@@QBEXXZ ; std::_String_base::_Xlen
$L185002:

; 1483 : 		if (_Myres < _Newsize)

  00012	8b 45 18	 mov	 eax, DWORD PTR [ebp+24]
  00015	3b c6		 cmp	 eax, esi
  00017	73 19		 jae	 SHORT $L185003

; 1484 : 			_Copy(_Newsize, _Mysize);	// reallocate to grow

  00019	8b 45 14	 mov	 eax, DWORD PTR [ebp+20]
  0001c	50		 push	 eax
  0001d	56		 push	 esi
  0001e	8b cd		 mov	 ecx, ebp
  00020	e8 00 00 00 00	 call	 ?_Copy@?$basic_string@DU?$char_traits@D@std@@V?$allocator@D@2@@std@@IAEXII@Z ; std::basic_string<char,std::char_traits<char>,std::allocator<char> >::_Copy

; 1490 : 		return (0 < _Newsize);	// return true only if more work to do

  00025	33 c0		 xor	 eax, eax
  00027	3b c6		 cmp	 eax, esi
  00029	1b c0		 sbb	 eax, eax
  0002b	5e		 pop	 esi
  0002c	f7 d8		 neg	 eax
  0002e	5d		 pop	 ebp

; 1491 : 		}

  0002f	c2 08 00	 ret	 8
$L185003:

; 1485 : 		else if (_Trim && _Newsize < _BUF_SIZE)

  00032	8a 4c 24 10	 mov	 cl, BYTE PTR __Trim$[esp+4]
  00036	84 c9		 test	 cl, cl
  00038	74 5c		 je	 SHORT $L185005
  0003a	83 fe 10	 cmp	 esi, 16			; 00000010H
  0003d	73 57		 jae	 SHORT $L185005
  0003f	53		 push	 ebx

; 1486 : 			_Tidy(true,	// copy and deallocate if trimming to small string
; 1487 : 				_Newsize < _Mysize ? _Newsize : _Mysize);

  00040	8b 5d 14	 mov	 ebx, DWORD PTR [ebp+20]
  00043	3b f3		 cmp	 esi, ebx
  00045	73 02		 jae	 SHORT $L214153
  00047	8b de		 mov	 ebx, esi
$L214153:
  00049	83 f8 10	 cmp	 eax, 16			; 00000010H
  0004c	72 2b		 jb	 SHORT $L214214
  0004e	85 db		 test	 ebx, ebx
  00050	8b 45 04	 mov	 eax, DWORD PTR [ebp+4]
  00053	57		 push	 edi
  00054	8d 7d 04	 lea	 edi, DWORD PTR [ebp+4]
  00057	76 16		 jbe	 SHORT $L214212
  00059	8b cb		 mov	 ecx, ebx
  0005b	8b d1		 mov	 edx, ecx
  0005d	c1 e9 02	 shr	 ecx, 2
  00060	8b f0		 mov	 esi, eax
  00062	f3 a5		 rep movsd
  00064	8b ca		 mov	 ecx, edx
  00066	83 e1 03	 and	 ecx, 3
  00069	f3 a4		 rep movsb
  0006b	8b 74 24 14	 mov	 esi, DWORD PTR __Newsize$[esp+12]
$L214212:
  0006f	50		 push	 eax
  00070	e8 00 00 00 00	 call	 ??3@YAXPAX@Z		; operator delete
  00075	83 c4 04	 add	 esp, 4
  00078	5f		 pop	 edi
$L214214:
  00079	89 5d 14	 mov	 DWORD PTR [ebp+20], ebx

; 1490 : 		return (0 < _Newsize);	// return true only if more work to do

  0007c	33 c0		 xor	 eax, eax
  0007e	c7 45 18 0f 00
	00 00		 mov	 DWORD PTR [ebp+24], 15	; 0000000fH
  00085	c6 44 2b 04 00	 mov	 BYTE PTR [ebx+ebp+4], 0
  0008a	3b c6		 cmp	 eax, esi
  0008c	5b		 pop	 ebx
  0008d	1b c0		 sbb	 eax, eax
  0008f	5e		 pop	 esi
  00090	f7 d8		 neg	 eax
  00092	5d		 pop	 ebp

; 1491 : 		}

  00093	c2 08 00	 ret	 8
$L185005:

; 1488 : 		else if (_Newsize == 0)

  00096	85 f6		 test	 esi, esi
  00098	75 23		 jne	 SHORT $L214244

; 1489 : 			_Eos(0);	// new size is zero, just null terminate

  0009a	83 f8 10	 cmp	 eax, 16			; 00000010H
  0009d	89 75 14	 mov	 DWORD PTR [ebp+20], esi
  000a0	72 14		 jb	 SHORT $L214240
  000a2	8b 6d 04	 mov	 ebp, DWORD PTR [ebp+4]

; 1490 : 		return (0 < _Newsize);	// return true only if more work to do

  000a5	33 c0		 xor	 eax, eax
  000a7	3b c6		 cmp	 eax, esi
  000a9	1b c0		 sbb	 eax, eax
  000ab	5e		 pop	 esi
  000ac	c6 45 00 00	 mov	 BYTE PTR [ebp], 0
  000b0	f7 d8		 neg	 eax
  000b2	5d		 pop	 ebp

; 1491 : 		}

  000b3	c2 08 00	 ret	 8

; 1489 : 			_Eos(0);	// new size is zero, just null terminate

$L214240:
  000b6	83 c5 04	 add	 ebp, 4
  000b9	c6 45 00 00	 mov	 BYTE PTR [ebp], 0
$L214244:

; 1490 : 		return (0 < _Newsize);	// return true only if more work to do

  000bd	33 c0		 xor	 eax, eax
  000bf	3b c6		 cmp	 eax, esi
  000c1	1b c0		 sbb	 eax, eax
  000c3	5e		 pop	 esi
  000c4	f7 d8		 neg	 eax
  000c6	5d		 pop	 ebp

; 1491 : 		}

  000c7	c2 08 00	 ret	 8
?_Grow@?$basic_string@DU?$char_traits@D@std@@V?$allocator@D@2@@std@@IAE_NI_N@Z ENDP ; std::basic_string<char,std::char_traits<char>,std::allocator<char> >::_Grow
_TEXT	ENDS
PUBLIC	??_C@_0CI@EGGDFMCC@CTax?3?3GetTaxInfo?$CI?$CJ?5?9?5?$MA?$NP?$LI?x?$LF?H?5?$LE?k?$LH?z@ ; `string'
PUBLIC	?GetTaxInfo@CTax@@QAEPAU__TAXINFO@@E@Z		; CTax::GetTaxInfo
EXTRN	?Error@@YAPBDPBDZZ:NEAR				; Error
;	COMDAT ??_C@_0CI@EGGDFMCC@CTax?3?3GetTaxInfo?$CI?$CJ?5?9?5?$MA?$NP?$LI?x?$LF?H?5?$LE?k?$LH?z@
; File c:\program files\microsoft visual studio .net 2003\vc7\include\xtree
CONST	SEGMENT
??_C@_0CI@EGGDFMCC@CTax?3?3GetTaxInfo?$CI?$CJ?5?9?5?$MA?$NP?$LI?x?$LF?H?5?$LE?k?$LH?z@ DB 'C'
	DB	'Tax::GetTaxInfo() - ', 0c0H, 0dfH, 0b8H, 0f8H, 0b5H, 0c8H, ' '
	DB	0b4H, 0ebH, 0b7H, 0faH, 0c1H, 0a4H, 0baH, 0b8H, ' %x', 00H ; `string'
; Function compile flags: /Ogty
; File c:\documents and settings\test\mes documents\source\virtuos_v17\build\program\_common\tax.cpp
CONST	ENDS
;	COMDAT ?GetTaxInfo@CTax@@QAEPAU__TAXINFO@@E@Z
_TEXT	SEGMENT
$T214251 = -4						; size = 4
$T214249 = -4						; size = 4
_nContinent$ = 8					; size = 1
?GetTaxInfo@CTax@@QAEPAU__TAXINFO@@E@Z PROC NEAR	; CTax::GetTaxInfo, COMDAT
; _this$ = ecx

; 84   : {

  00000	51		 push	 ecx
  00001	56		 push	 esi
  00002	57		 push	 edi
  00003	8b f1		 mov	 esi, ecx

; 85   : 	if( m_mapTaxInfo.find( nContinent ) != m_mapTaxInfo.end() )

  00005	8d 44 24 10	 lea	 eax, DWORD PTR _nContinent$[esp+8]
  00009	50		 push	 eax
  0000a	8d 4c 24 0c	 lea	 ecx, DWORD PTR $T214249[esp+16]
  0000e	8d 7e 08	 lea	 edi, DWORD PTR [esi+8]
  00011	51		 push	 ecx
  00012	8b cf		 mov	 ecx, edi
  00014	e8 00 00 00 00	 call	 ?find@?$_Tree@V?$_Tmap_traits@EPAU__TAXINFO@@U?$less@E@std@@V?$allocator@U?$pair@$$CBEPAU__TAXINFO@@@std@@@3@$0A@@std@@@std@@QAE?AViterator@12@ABE@Z ; std::_Tree<std::_Tmap_traits<unsigned char,__TAXINFO *,std::less<unsigned char>,std::allocator<std::pair<unsigned char const ,__TAXINFO *> >,0> >::find
  00019	8b 10		 mov	 edx, DWORD PTR [eax]
  0001b	3b 56 0c	 cmp	 edx, DWORD PTR [esi+12]
  0001e	74 1c		 je	 SHORT $L208287

; 86   : 		return m_mapTaxInfo.find( nContinent )->second;

  00020	8d 44 24 10	 lea	 eax, DWORD PTR _nContinent$[esp+8]
  00024	50		 push	 eax
  00025	8d 4c 24 0c	 lea	 ecx, DWORD PTR $T214251[esp+16]
  00029	51		 push	 ecx
  0002a	8b cf		 mov	 ecx, edi
  0002c	e8 00 00 00 00	 call	 ?find@?$_Tree@V?$_Tmap_traits@EPAU__TAXINFO@@U?$less@E@std@@V?$allocator@U?$pair@$$CBEPAU__TAXINFO@@@std@@@3@$0A@@std@@@std@@QAE?AViterator@12@ABE@Z ; std::_Tree<std::_Tmap_traits<unsigned char,__TAXINFO *,std::less<unsigned char>,std::allocator<std::pair<unsigned char const ,__TAXINFO *> >,0> >::find
  00031	8b 10		 mov	 edx, DWORD PTR [eax]
  00033	8b 42 10	 mov	 eax, DWORD PTR [edx+16]
  00036	5f		 pop	 edi
  00037	5e		 pop	 esi

; 93   : }

  00038	59		 pop	 ecx
  00039	c2 04 00	 ret	 4
$L208287:

; 87   : #ifndef __CLIENT
; 88   : 	else
; 89   : 		Error( "CTax::GetTaxInfo() -   %x", nContinent );

  0003c	0f b6 44 24 10	 movzx	 eax, BYTE PTR _nContinent$[esp+8]
  00041	50		 push	 eax
  00042	68 00 00 00 00	 push	 OFFSET FLAT:??_C@_0CI@EGGDFMCC@CTax?3?3GetTaxInfo?$CI?$CJ?5?9?5?$MA?$NP?$LI?x?$LF?H?5?$LE?k?$LH?z@
  00047	e8 00 00 00 00	 call	 ?Error@@YAPBDPBDZZ	; Error
  0004c	83 c4 08	 add	 esp, 8
  0004f	5f		 pop	 edi

; 90   : #endif // __CLIENT
; 91   : 
; 92   : 	return NULL;

  00050	33 c0		 xor	 eax, eax
  00052	5e		 pop	 esi

; 93   : }

  00053	59		 pop	 ecx
  00054	c2 04 00	 ret	 4
?GetTaxInfo@CTax@@QAEPAU__TAXINFO@@E@Z ENDP		; CTax::GetTaxInfo
_TEXT	ENDS
PUBLIC	?SetNextTaxRate@CTax@@QAEXEHH@Z			; CTax::SetNextTaxRate
; Function compile flags: /Ogty
;	COMDAT ?SetNextTaxRate@CTax@@QAEXEHH@Z
_TEXT	SEGMENT
$T214305 = -4						; size = 4
_nCont$ = 8						; size = 1
$T214306 = 8						; size = 1
$T214304 = 8						; size = 1
$T214307 = 12						; size = 4
_nSalesTaxRate$ = 12					; size = 4
_nPurchaseTaxRate$ = 16					; size = 4
?SetNextTaxRate@CTax@@QAEXEHH@Z PROC NEAR		; CTax::SetNextTaxRate, COMDAT
; _this$ = ecx

; 361  : {

  00000	51		 push	 ecx

; 362  : #ifdef __WORLDSERVER
; 363  : 	if( nSalesTaxRate < m_nMinTaxRate || nSalesTaxRate > m_nMaxTaxRate
; 364  : 		|| nPurchaseTaxRate < m_nMinTaxRate || nPurchaseTaxRate > m_nMaxTaxRate )
; 365  : 		return;	// ,     ...
; 366  : 
; 367  : 	g_dpDBClient.SendTaxRate( nCont, nSalesTaxRate, nPurchaseTaxRate );
; 368  : #endif // __WORLDSERVER
; 369  : #ifdef __DBSERVER
; 370  : 	__TAXINFO* taxInfo = GetTaxInfo( nCont );

  00001	8b 44 24 08	 mov	 eax, DWORD PTR _nCont$[esp]
  00005	50		 push	 eax
  00006	e8 00 00 00 00	 call	 ?GetTaxInfo@CTax@@QAEPAU__TAXINFO@@E@Z ; CTax::GetTaxInfo

; 371  : 	if( !taxInfo )

  0000b	85 c0		 test	 eax, eax
  0000d	74 50		 je	 SHORT $L208434
  0000f	56		 push	 esi

; 372  : 		return;
; 373  : 	
; 374  : 	taxInfo->bSetTaxRate = TRUE;
; 375  : 	taxInfo->mapTaxDetail.find( TAX_SALES )->second->nNextTaxRate = nSalesTaxRate;

  00010	8d 4c 24 0c	 lea	 ecx, DWORD PTR $T214304[esp+4]
  00014	51		 push	 ecx
  00015	8d 70 08	 lea	 esi, DWORD PTR [eax+8]
  00018	8d 54 24 08	 lea	 edx, DWORD PTR $T214305[esp+12]
  0001c	52		 push	 edx
  0001d	8b ce		 mov	 ecx, esi
  0001f	c7 40 04 01 00
	00 00		 mov	 DWORD PTR [eax+4], 1
  00026	c6 44 24 14 00	 mov	 BYTE PTR $T214304[esp+12], 0
  0002b	e8 00 00 00 00	 call	 ?find@?$_Tree@V?$_Tmap_traits@EPAU__TAXDETAIL@@U?$less@E@std@@V?$allocator@U?$pair@$$CBEPAU__TAXDETAIL@@@std@@@3@$0A@@std@@@std@@QAE?AViterator@12@ABE@Z ; std::_Tree<std::_Tmap_traits<unsigned char,__TAXDETAIL *,std::less<unsigned char>,std::allocator<std::pair<unsigned char const ,__TAXDETAIL *> >,0> >::find
  00030	8b 00		 mov	 eax, DWORD PTR [eax]
  00032	8b 48 10	 mov	 ecx, DWORD PTR [eax+16]
  00035	8b 54 24 10	 mov	 edx, DWORD PTR _nSalesTaxRate$[esp+4]
  00039	89 51 10	 mov	 DWORD PTR [ecx+16], edx

; 376  : 	taxInfo->mapTaxDetail.find( TAX_PURCHASE )->second->nNextTaxRate = nPurchaseTaxRate;

  0003c	8d 44 24 0c	 lea	 eax, DWORD PTR $T214306[esp+4]
  00040	50		 push	 eax
  00041	8d 4c 24 14	 lea	 ecx, DWORD PTR $T214307[esp+8]
  00045	51		 push	 ecx
  00046	8b ce		 mov	 ecx, esi
  00048	c6 44 24 14 01	 mov	 BYTE PTR $T214306[esp+12], 1
  0004d	e8 00 00 00 00	 call	 ?find@?$_Tree@V?$_Tmap_traits@EPAU__TAXDETAIL@@U?$less@E@std@@V?$allocator@U?$pair@$$CBEPAU__TAXDETAIL@@@std@@@3@$0A@@std@@@std@@QAE?AViterator@12@ABE@Z ; std::_Tree<std::_Tmap_traits<unsigned char,__TAXDETAIL *,std::less<unsigned char>,std::allocator<std::pair<unsigned char const ,__TAXDETAIL *> >,0> >::find
  00052	8b 10		 mov	 edx, DWORD PTR [eax]
  00054	8b 42 10	 mov	 eax, DWORD PTR [edx+16]
  00057	8b 4c 24 14	 mov	 ecx, DWORD PTR _nPurchaseTaxRate$[esp+4]
  0005b	89 48 10	 mov	 DWORD PTR [eax+16], ecx
  0005e	5e		 pop	 esi
$L208434:

; 377  : #endif // __DBSERVER
; 378  : }

  0005f	59		 pop	 ecx
  00060	c2 0c 00	 ret	 12			; 0000000cH
?SetNextTaxRate@CTax@@QAEXEHH@Z ENDP			; CTax::SetNextTaxRate
_TEXT	ENDS
PUBLIC	??Eiterator@?$_Tree@V?$_Tmap_traits@EPAU__TAXDETAIL@@U?$less@E@std@@V?$allocator@U?$pair@$$CBEPAU__TAXDETAIL@@@std@@@3@$0A@@std@@@std@@QAE?AV012@H@Z ; std::_Tree<std::_Tmap_traits<unsigned char,__TAXDETAIL *,std::less<unsigned char>,std::allocator<std::pair<unsigned char const ,__TAXDETAIL *> >,0> >::iterator::operator++
; Function compile flags: /Ogty
; File c:\program files\microsoft visual studio .net 2003\vc7\include\xtree
;	COMDAT ??Eiterator@?$_Tree@V?$_Tmap_traits@EPAU__TAXDETAIL@@U?$less@E@std@@V?$allocator@U?$pair@$$CBEPAU__TAXDETAIL@@@std@@@3@$0A@@std@@@std@@QAE?AV012@H@Z
_TEXT	SEGMENT
___$ReturnUdt$ = 8					; size = 4
___formal$ = 12						; size = 4
??Eiterator@?$_Tree@V?$_Tmap_traits@EPAU__TAXDETAIL@@U?$less@E@std@@V?$allocator@U?$pair@$$CBEPAU__TAXDETAIL@@@std@@@3@$0A@@std@@@std@@QAE?AV012@H@Z PROC NEAR ; std::_Tree<std::_Tmap_traits<unsigned char,__TAXDETAIL *,std::less<unsigned char>,std::allocator<std::pair<unsigned char const ,__TAXDETAIL *> >,0> >::iterator::operator++, COMDAT
; _this$ = ecx

; 332  : 			{	// postincrement

  00000	56		 push	 esi

; 333  : 			iterator _Tmp = *this;

  00001	8b 31		 mov	 esi, DWORD PTR [ecx]

; 334  : 			++*this;

  00003	e8 00 00 00 00	 call	 ?_Inc@const_iterator@?$_Tree@V?$_Tmap_traits@EPAU__TAXDETAIL@@U?$less@E@std@@V?$allocator@U?$pair@$$CBEPAU__TAXDETAIL@@@std@@@3@$0A@@std@@@std@@QAEXXZ ; std::_Tree<std::_Tmap_traits<unsigned char,__TAXDETAIL *,std::less<unsigned char>,std::allocator<std::pair<unsigned char const ,__TAXDETAIL *> >,0> >::const_iterator::_Inc

; 335  : 			return (_Tmp);

  00008	8b 44 24 08	 mov	 eax, DWORD PTR ___$ReturnUdt$[esp]
  0000c	89 30		 mov	 DWORD PTR [eax], esi
  0000e	5e		 pop	 esi

; 336  : 			}

  0000f	c2 08 00	 ret	 8
??Eiterator@?$_Tree@V?$_Tmap_traits@EPAU__TAXDETAIL@@U?$less@E@std@@V?$allocator@U?$pair@$$CBEPAU__TAXDETAIL@@@std@@@3@$0A@@std@@@std@@QAE?AV012@H@Z ENDP ; std::_Tree<std::_Tmap_traits<unsigned char,__TAXDETAIL *,std::less<unsigned char>,std::allocator<std::pair<unsigned char const ,__TAXDETAIL *> >,0> >::iterator::operator++
_TEXT	ENDS
PUBLIC	??Eiterator@?$_Tree@V?$_Tmap_traits@EPAU__TAXINFO@@U?$less@E@std@@V?$allocator@U?$pair@$$CBEPAU__TAXINFO@@@std@@@3@$0A@@std@@@std@@QAE?AV012@H@Z ; std::_Tree<std::_Tmap_traits<unsigned char,__TAXINFO *,std::less<unsigned char>,std::allocator<std::pair<unsigned char const ,__TAXINFO *> >,0> >::iterator::operator++
; Function compile flags: /Ogty
;	COMDAT ??Eiterator@?$_Tree@V?$_Tmap_traits@EPAU__TAXINFO@@U?$less@E@std@@V?$allocator@U?$pair@$$CBEPAU__TAXINFO@@@std@@@3@$0A@@std@@@std@@QAE?AV012@H@Z
_TEXT	SEGMENT
___$ReturnUdt$ = 8					; size = 4
___formal$ = 12						; size = 4
??Eiterator@?$_Tree@V?$_Tmap_traits@EPAU__TAXINFO@@U?$less@E@std@@V?$allocator@U?$pair@$$CBEPAU__TAXINFO@@@std@@@3@$0A@@std@@@std@@QAE?AV012@H@Z PROC NEAR ; std::_Tree<std::_Tmap_traits<unsigned char,__TAXINFO *,std::less<unsigned char>,std::allocator<std::pair<unsigned char const ,__TAXINFO *> >,0> >::iterator::operator++, COMDAT
; _this$ = ecx

; 332  : 			{	// postincrement

  00000	56		 push	 esi

; 333  : 			iterator _Tmp = *this;

  00001	8b 31		 mov	 esi, DWORD PTR [ecx]

; 334  : 			++*this;

  00003	e8 00 00 00 00	 call	 ?_Inc@const_iterator@?$_Tree@V?$_Tmap_traits@EPAU__TAXINFO@@U?$less@E@std@@V?$allocator@U?$pair@$$CBEPAU__TAXINFO@@@std@@@3@$0A@@std@@@std@@QAEXXZ ; std::_Tree<std::_Tmap_traits<unsigned char,__TAXINFO *,std::less<unsigned char>,std::allocator<std::pair<unsigned char const ,__TAXINFO *> >,0> >::const_iterator::_Inc

; 335  : 			return (_Tmp);

  00008	8b 44 24 08	 mov	 eax, DWORD PTR ___$ReturnUdt$[esp]
  0000c	89 30		 mov	 DWORD PTR [eax], esi
  0000e	5e		 pop	 esi

; 336  : 			}

  0000f	c2 08 00	 ret	 8
??Eiterator@?$_Tree@V?$_Tmap_traits@EPAU__TAXINFO@@U?$less@E@std@@V?$allocator@U?$pair@$$CBEPAU__TAXINFO@@@std@@@3@$0A@@std@@@std@@QAE?AV012@H@Z ENDP ; std::_Tree<std::_Tmap_traits<unsigned char,__TAXINFO *,std::less<unsigned char>,std::allocator<std::pair<unsigned char const ,__TAXINFO *> >,0> >::iterator::operator++
_TEXT	ENDS
PUBLIC	??0?$_Tree@V?$_Tmap_traits@EPAU__TAXDETAIL@@U?$less@E@std@@V?$allocator@U?$pair@$$CBEPAU__TAXDETAIL@@@std@@@3@$0A@@std@@@std@@QAE@ABU?$less@E@1@ABV?$allocator@U?$pair@$$CBEPAU__TAXDETAIL@@@std@@@1@@Z ; std::_Tree<std::_Tmap_traits<unsigned char,__TAXDETAIL *,std::less<unsigned char>,std::allocator<std::pair<unsigned char const ,__TAXDETAIL *> >,0> >::_Tree<std::_Tmap_traits<unsigned char,__TAXDETAIL *,std::less<unsigned char>,std::allocator<std::pair<unsigned char const ,__TAXDETAIL *> >,0> >
; Function compile flags: /Ogty
;	COMDAT ??0?$_Tree@V?$_Tmap_traits@EPAU__TAXDETAIL@@U?$less@E@std@@V?$allocator@U?$pair@$$CBEPAU__TAXDETAIL@@@std@@@3@$0A@@std@@@std@@QAE@ABU?$less@E@1@ABV?$allocator@U?$pair@$$CBEPAU__TAXDETAIL@@@std@@@1@@Z
_TEXT	SEGMENT
__Parg$ = 8						; size = 4
__Al$ = 12						; size = 4
??0?$_Tree@V?$_Tmap_traits@EPAU__TAXDETAIL@@U?$less@E@std@@V?$allocator@U?$pair@$$CBEPAU__TAXDETAIL@@@std@@@3@$0A@@std@@@std@@QAE@ABU?$less@E@1@ABV?$allocator@U?$pair@$$CBEPAU__TAXDETAIL@@@std@@@1@@Z PROC NEAR ; std::_Tree<std::_Tmap_traits<unsigned char,__TAXDETAIL *,std::less<unsigned char>,std::allocator<std::pair<unsigned char const ,__TAXDETAIL *> >,0> >::_Tree<std::_Tmap_traits<unsigned char,__TAXDETAIL *,std::less<unsigned char>,std::allocator<std::pair<unsigned char const ,__TAXDETAIL *> >,0> >, COMDAT
; _this$ = ecx

; 361  : 		{	// construct empty tree

  00000	56		 push	 esi
  00001	8b f1		 mov	 esi, ecx

; 362  : 		_Init();

  00003	e8 00 00 00 00	 call	 ?_Buynode@?$_Tree@V?$_Tmap_traits@EPAU__TAXDETAIL@@U?$less@E@std@@V?$allocator@U?$pair@$$CBEPAU__TAXDETAIL@@@std@@@3@$0A@@std@@@std@@IAEPAU_Node@?$_Tree_nod@V?$_Tmap_traits@EPAU__TAXDETAIL@@U?$less@E@std@@V?$allocator@U?$pair@$$CBEPAU__TAXDETAIL@@@std@@@3@$0A@@std@@@2@XZ ; std::_Tree<std::_Tmap_traits<unsigned char,__TAXDETAIL *,std::less<unsigned char>,std::allocator<std::pair<unsigned char const ,__TAXDETAIL *> >,0> >::_Buynode
  00008	89 46 04	 mov	 DWORD PTR [esi+4], eax
  0000b	c6 40 15 01	 mov	 BYTE PTR [eax+21], 1
  0000f	8b 46 04	 mov	 eax, DWORD PTR [esi+4]
  00012	89 40 04	 mov	 DWORD PTR [eax+4], eax
  00015	8b 46 04	 mov	 eax, DWORD PTR [esi+4]
  00018	89 00		 mov	 DWORD PTR [eax], eax
  0001a	8b 46 04	 mov	 eax, DWORD PTR [esi+4]
  0001d	89 40 08	 mov	 DWORD PTR [eax+8], eax
  00020	c7 46 08 00 00
	00 00		 mov	 DWORD PTR [esi+8], 0

; 363  : 		}

  00027	8b c6		 mov	 eax, esi
  00029	5e		 pop	 esi
  0002a	c2 08 00	 ret	 8
??0?$_Tree@V?$_Tmap_traits@EPAU__TAXDETAIL@@U?$less@E@std@@V?$allocator@U?$pair@$$CBEPAU__TAXDETAIL@@@std@@@3@$0A@@std@@@std@@QAE@ABU?$less@E@1@ABV?$allocator@U?$pair@$$CBEPAU__TAXDETAIL@@@std@@@1@@Z ENDP ; std::_Tree<std::_Tmap_traits<unsigned char,__TAXDETAIL *,std::less<unsigned char>,std::allocator<std::pair<unsigned char const ,__TAXDETAIL *> >,0> >::_Tree<std::_Tmap_traits<unsigned char,__TAXDETAIL *,std::less<unsigned char>,std::allocator<std::pair<unsigned char const ,__TAXDETAIL *> >,0> >
_TEXT	ENDS
PUBLIC	??0?$_Tree@V?$_Tmap_traits@EPAU__TAXINFO@@U?$less@E@std@@V?$allocator@U?$pair@$$CBEPAU__TAXINFO@@@std@@@3@$0A@@std@@@std@@QAE@ABU?$less@E@1@ABV?$allocator@U?$pair@$$CBEPAU__TAXINFO@@@std@@@1@@Z ; std::_Tree<std::_Tmap_traits<unsigned char,__TAXINFO *,std::less<unsigned char>,std::allocator<std::pair<unsigned char const ,__TAXINFO *> >,0> >::_Tree<std::_Tmap_traits<unsigned char,__TAXINFO *,std::less<unsigned char>,std::allocator<std::pair<unsigned char const ,__TAXINFO *> >,0> >
; Function compile flags: /Ogty
;	COMDAT ??0?$_Tree@V?$_Tmap_traits@EPAU__TAXINFO@@U?$less@E@std@@V?$allocator@U?$pair@$$CBEPAU__TAXINFO@@@std@@@3@$0A@@std@@@std@@QAE@ABU?$less@E@1@ABV?$allocator@U?$pair@$$CBEPAU__TAXINFO@@@std@@@1@@Z
_TEXT	SEGMENT
__Parg$ = 8						; size = 4
__Al$ = 12						; size = 4
??0?$_Tree@V?$_Tmap_traits@EPAU__TAXINFO@@U?$less@E@std@@V?$allocator@U?$pair@$$CBEPAU__TAXINFO@@@std@@@3@$0A@@std@@@std@@QAE@ABU?$less@E@1@ABV?$allocator@U?$pair@$$CBEPAU__TAXINFO@@@std@@@1@@Z PROC NEAR ; std::_Tree<std::_Tmap_traits<unsigned char,__TAXINFO *,std::less<unsigned char>,std::allocator<std::pair<unsigned char const ,__TAXINFO *> >,0> >::_Tree<std::_Tmap_traits<unsigned char,__TAXINFO *,std::less<unsigned char>,std::allocator<std::pair<unsigned char const ,__TAXINFO *> >,0> >, COMDAT
; _this$ = ecx

; 361  : 		{	// construct empty tree

  00000	56		 push	 esi
  00001	8b f1		 mov	 esi, ecx

; 362  : 		_Init();

  00003	e8 00 00 00 00	 call	 ?_Buynode@?$_Tree@V?$_Tmap_traits@EPAU__TAXINFO@@U?$less@E@std@@V?$allocator@U?$pair@$$CBEPAU__TAXINFO@@@std@@@3@$0A@@std@@@std@@IAEPAU_Node@?$_Tree_nod@V?$_Tmap_traits@EPAU__TAXINFO@@U?$less@E@std@@V?$allocator@U?$pair@$$CBEPAU__TAXINFO@@@std@@@3@$0A@@std@@@2@XZ ; std::_Tree<std::_Tmap_traits<unsigned char,__TAXINFO *,std::less<unsigned char>,std::allocator<std::pair<unsigned char const ,__TAXINFO *> >,0> >::_Buynode
  00008	89 46 04	 mov	 DWORD PTR [esi+4], eax
  0000b	c6 40 15 01	 mov	 BYTE PTR [eax+21], 1
  0000f	8b 46 04	 mov	 eax, DWORD PTR [esi+4]
  00012	89 40 04	 mov	 DWORD PTR [eax+4], eax
  00015	8b 46 04	 mov	 eax, DWORD PTR [esi+4]
  00018	89 00		 mov	 DWORD PTR [eax], eax
  0001a	8b 46 04	 mov	 eax, DWORD PTR [esi+4]
  0001d	89 40 08	 mov	 DWORD PTR [eax+8], eax
  00020	c7 46 08 00 00
	00 00		 mov	 DWORD PTR [esi+8], 0

; 363  : 		}

  00027	8b c6		 mov	 eax, esi
  00029	5e		 pop	 esi
  0002a	c2 08 00	 ret	 8
??0?$_Tree@V?$_Tmap_traits@EPAU__TAXINFO@@U?$less@E@std@@V?$allocator@U?$pair@$$CBEPAU__TAXINFO@@@std@@@3@$0A@@std@@@std@@QAE@ABU?$less@E@1@ABV?$allocator@U?$pair@$$CBEPAU__TAXINFO@@@std@@@1@@Z ENDP ; std::_Tree<std::_Tmap_traits<unsigned char,__TAXINFO *,std::less<unsigned char>,std::allocator<std::pair<unsigned char const ,__TAXINFO *> >,0> >::_Tree<std::_Tmap_traits<unsigned char,__TAXINFO *,std::less<unsigned char>,std::allocator<std::pair<unsigned char const ,__TAXINFO *> >,0> >
_TEXT	ENDS
PUBLIC	??_7logic_error@std@@6B@			; std::logic_error::`vftable'
PUBLIC	??_Glogic_error@std@@UAEPAXI@Z			; std::logic_error::`scalar deleting destructor'
PUBLIC	??1logic_error@std@@UAE@XZ			; std::logic_error::~logic_error
PUBLIC	?what@logic_error@std@@UBEPBDXZ			; std::logic_error::what
EXTRN	??_Elogic_error@std@@UAEPAXI@Z:NEAR		; std::logic_error::`vector deleting destructor'
EXTRN	??1exception@@UAE@XZ:NEAR			; exception::~exception
;	COMDAT ??_7logic_error@std@@6B@
; File c:\program files\microsoft visual studio .net 2003\vc7\include\iosfwd
CONST	SEGMENT
??_7logic_error@std@@6B@ DD FLAT:??_Elogic_error@std@@UAEPAXI@Z ; std::logic_error::`vftable'
	DD	FLAT:?what@logic_error@std@@UBEPBDXZ
; Function compile flags: /Ogty
; File c:\program files\microsoft visual studio .net 2003\vc7\include\stdexcept
CONST	ENDS
;	COMDAT ??1logic_error@std@@UAE@XZ
_TEXT	SEGMENT
??1logic_error@std@@UAE@XZ PROC NEAR			; std::logic_error::~logic_error, COMDAT
; _this$ = ecx

; 23   : 		{}	// destroy the object

  00000	56		 push	 esi
  00001	8b f1		 mov	 esi, ecx
  00003	c7 06 00 00 00
	00		 mov	 DWORD PTR [esi], OFFSET FLAT:??_7logic_error@std@@6B@
  00009	83 7e 24 10	 cmp	 DWORD PTR [esi+36], 16	; 00000010H
  0000d	72 0c		 jb	 SHORT $L214682
  0000f	8b 46 10	 mov	 eax, DWORD PTR [esi+16]
  00012	50		 push	 eax
  00013	e8 00 00 00 00	 call	 ??3@YAXPAX@Z		; operator delete
  00018	83 c4 04	 add	 esp, 4
$L214682:
  0001b	33 c0		 xor	 eax, eax
  0001d	c7 46 24 0f 00
	00 00		 mov	 DWORD PTR [esi+36], 15	; 0000000fH
  00024	89 46 20	 mov	 DWORD PTR [esi+32], eax
  00027	88 46 10	 mov	 BYTE PTR [esi+16], al
  0002a	8b ce		 mov	 ecx, esi
  0002c	5e		 pop	 esi
  0002d	e9 00 00 00 00	 jmp	 ??1exception@@UAE@XZ	; exception::~exception
??1logic_error@std@@UAE@XZ ENDP				; std::logic_error::~logic_error
; Function compile flags: /Ogty
_TEXT	ENDS
;	COMDAT ?what@logic_error@std@@UBEPBDXZ
_TEXT	SEGMENT
?what@logic_error@std@@UBEPBDXZ PROC NEAR		; std::logic_error::what, COMDAT
; _this$ = ecx

; 27   : 		return (_Str.c_str());

  00000	83 79 24 10	 cmp	 DWORD PTR [ecx+36], 16	; 00000010H
  00004	72 04		 jb	 SHORT $L214708
  00006	8b 41 10	 mov	 eax, DWORD PTR [ecx+16]

; 28   : 		}

  00009	c3		 ret	 0

; 27   : 		return (_Str.c_str());

$L214708:
  0000a	8d 41 10	 lea	 eax, DWORD PTR [ecx+16]

; 28   : 		}

  0000d	c3		 ret	 0
?what@logic_error@std@@UBEPBDXZ ENDP			; std::logic_error::what
; Function compile flags: /Ogty
_TEXT	ENDS
;	COMDAT ??_Glogic_error@std@@UAEPAXI@Z
_TEXT	SEGMENT
___flags$ = 8						; size = 4
??_Glogic_error@std@@UAEPAXI@Z PROC NEAR		; std::logic_error::`scalar deleting destructor', COMDAT
; _this$ = ecx
  00000	56		 push	 esi
  00001	8b f1		 mov	 esi, ecx
  00003	e8 00 00 00 00	 call	 ??1logic_error@std@@UAE@XZ ; std::logic_error::~logic_error
  00008	f6 44 24 08 01	 test	 BYTE PTR ___flags$[esp], 1
  0000d	74 09		 je	 SHORT $L214714
  0000f	56		 push	 esi
  00010	e8 00 00 00 00	 call	 ??3@YAXPAX@Z		; operator delete
  00015	83 c4 04	 add	 esp, 4
$L214714:
  00018	8b c6		 mov	 eax, esi
  0001a	5e		 pop	 esi
  0001b	c2 04 00	 ret	 4
??_Glogic_error@std@@UAEPAXI@Z ENDP			; std::logic_error::`scalar deleting destructor'
_TEXT	ENDS
PUBLIC	?assign@?$basic_string@DU?$char_traits@D@std@@V?$allocator@D@2@@std@@QAEAAV12@ABV12@II@Z ; std::basic_string<char,std::char_traits<char>,std::allocator<char> >::assign
; Function compile flags: /Ogty
; File c:\program files\microsoft visual studio .net 2003\vc7\include\xstring
;	COMDAT ?assign@?$basic_string@DU?$char_traits@D@std@@V?$allocator@D@2@@std@@QAEAAV12@ABV12@II@Z
_TEXT	SEGMENT
__Right$ = 8						; size = 4
__Roff$ = 12						; size = 4
__Count$ = 16						; size = 4
?assign@?$basic_string@DU?$char_traits@D@std@@V?$allocator@D@2@@std@@QAEAAV12@ABV12@II@Z PROC NEAR ; std::basic_string<char,std::char_traits<char>,std::allocator<char> >::assign, COMDAT
; _this$ = ecx

; 590  : 		{	// assign _Right [_Roff, _Roff + _Count)

  00000	53		 push	 ebx
  00001	55		 push	 ebp
  00002	56		 push	 esi

; 591  : 		if (_Right.size() < _Roff)

  00003	8b 74 24 14	 mov	 esi, DWORD PTR __Roff$[esp+8]
  00007	57		 push	 edi
  00008	8b 7c 24 14	 mov	 edi, DWORD PTR __Right$[esp+12]
  0000c	39 77 14	 cmp	 DWORD PTR [edi+20], esi
  0000f	8b d9		 mov	 ebx, ecx
  00011	73 05		 jae	 SHORT $L184271

; 592  : 			_String_base::_Xran();	// _Roff off end

  00013	e8 00 00 00 00	 call	 ?_Xran@_String_base@std@@QBEXXZ ; std::_String_base::_Xran
$L184271:

; 593  : 		size_type _Num = _Right.size() - _Roff;

  00018	8b 6f 14	 mov	 ebp, DWORD PTR [edi+20]

; 594  : 		if (_Count < _Num)

  0001b	8b 44 24 1c	 mov	 eax, DWORD PTR __Count$[esp+12]
  0001f	2b ee		 sub	 ebp, esi
  00021	3b c5		 cmp	 eax, ebp
  00023	73 02		 jae	 SHORT $L184273

; 595  : 			_Num = _Count;	// trim _Num to size

  00025	8b e8		 mov	 ebp, eax
$L184273:

; 596  : 
; 597  : 		if (this == &_Right)

  00027	3b df		 cmp	 ebx, edi
  00029	75 1f		 jne	 SHORT $L184274

; 598  : 			erase((size_type)(_Roff + _Num)), erase(0, _Roff);	// substring

  0002b	6a ff		 push	 -1
  0002d	03 ee		 add	 ebp, esi
  0002f	55		 push	 ebp
  00030	8b cb		 mov	 ecx, ebx
  00032	e8 00 00 00 00	 call	 ?erase@?$basic_string@DU?$char_traits@D@std@@V?$allocator@D@2@@std@@QAEAAV12@II@Z ; std::basic_string<char,std::char_traits<char>,std::allocator<char> >::erase
  00037	56		 push	 esi
  00038	6a 00		 push	 0
  0003a	8b cb		 mov	 ecx, ebx
  0003c	e8 00 00 00 00	 call	 ?erase@?$basic_string@DU?$char_traits@D@std@@V?$allocator@D@2@@std@@QAEAAV12@II@Z ; std::basic_string<char,std::char_traits<char>,std::allocator<char> >::erase
  00041	5f		 pop	 edi
  00042	5e		 pop	 esi
  00043	5d		 pop	 ebp

; 603  : 			}
; 604  : 		return (*this);

  00044	8b c3		 mov	 eax, ebx
  00046	5b		 pop	 ebx

; 605  : 		}

  00047	c2 0c 00	 ret	 12			; 0000000cH
$L184274:

; 599  : 		else if (_Grow(_Num))

  0004a	83 fd fe	 cmp	 ebp, -2			; fffffffeH
  0004d	76 07		 jbe	 SHORT $L214822
  0004f	8b cb		 mov	 ecx, ebx
  00051	e8 00 00 00 00	 call	 ?_Xlen@_String_base@std@@QBEXXZ ; std::_String_base::_Xlen
$L214822:
  00056	8b 43 18	 mov	 eax, DWORD PTR [ebx+24]
  00059	3b c5		 cmp	 eax, ebp
  0005b	73 21		 jae	 SHORT $L214823
  0005d	8b 43 14	 mov	 eax, DWORD PTR [ebx+20]
  00060	50		 push	 eax
  00061	55		 push	 ebp
  00062	8b cb		 mov	 ecx, ebx
  00064	e8 00 00 00 00	 call	 ?_Copy@?$basic_string@DU?$char_traits@D@std@@V?$allocator@D@2@@std@@IAEXII@Z ; std::basic_string<char,std::char_traits<char>,std::allocator<char> >::_Copy
  00069	85 ed		 test	 ebp, ebp
$L214910:
  0006b	76 6d		 jbe	 SHORT $L214909

; 600  : 			{	// make room and assign new stuff
; 601  : 			_Traits::copy(_Myptr(), _Right._Myptr() + _Roff, _Num);

  0006d	8b 4f 18	 mov	 ecx, DWORD PTR [edi+24]
  00070	b8 10 00 00 00	 mov	 eax, 16			; 00000010H
  00075	3b c8		 cmp	 ecx, eax
  00077	72 2f		 jb	 SHORT $L214875
  00079	8b 57 04	 mov	 edx, DWORD PTR [edi+4]
  0007c	eb 2d		 jmp	 SHORT $L214876

; 599  : 		else if (_Grow(_Num))

$L214823:
  0007e	85 ed		 test	 ebp, ebp
  00080	75 e9		 jne	 SHORT $L214910
  00082	83 f8 10	 cmp	 eax, 16			; 00000010H
  00085	89 6b 14	 mov	 DWORD PTR [ebx+20], ebp
  00088	72 0f		 jb	 SHORT $L214866
  0008a	8b 43 04	 mov	 eax, DWORD PTR [ebx+4]
  0008d	5f		 pop	 edi
  0008e	5e		 pop	 esi
  0008f	c6 00 00	 mov	 BYTE PTR [eax], 0
  00092	5d		 pop	 ebp

; 603  : 			}
; 604  : 		return (*this);

  00093	8b c3		 mov	 eax, ebx
  00095	5b		 pop	 ebx

; 605  : 		}

  00096	c2 0c 00	 ret	 12			; 0000000cH

; 599  : 		else if (_Grow(_Num))

$L214866:
  00099	5f		 pop	 edi
  0009a	8d 43 04	 lea	 eax, DWORD PTR [ebx+4]
  0009d	5e		 pop	 esi
  0009e	c6 00 00	 mov	 BYTE PTR [eax], 0
  000a1	5d		 pop	 ebp

; 603  : 			}
; 604  : 		return (*this);

  000a2	8b c3		 mov	 eax, ebx
  000a4	5b		 pop	 ebx

; 605  : 		}

  000a5	c2 0c 00	 ret	 12			; 0000000cH

; 600  : 			{	// make room and assign new stuff
; 601  : 			_Traits::copy(_Myptr(), _Right._Myptr() + _Roff, _Num);

$L214875:
  000a8	8d 57 04	 lea	 edx, DWORD PTR [edi+4]
$L214876:
  000ab	39 43 18	 cmp	 DWORD PTR [ebx+24], eax
  000ae	8d 43 04	 lea	 eax, DWORD PTR [ebx+4]
  000b1	72 04		 jb	 SHORT $L214882
  000b3	8b 38		 mov	 edi, DWORD PTR [eax]
  000b5	eb 02		 jmp	 SHORT $L214883
$L214882:
  000b7	8b f8		 mov	 edi, eax
$L214883:
  000b9	03 f2		 add	 esi, edx
  000bb	8b cd		 mov	 ecx, ebp
  000bd	8b d1		 mov	 edx, ecx
  000bf	c1 e9 02	 shr	 ecx, 2
  000c2	f3 a5		 rep movsd
  000c4	8b ca		 mov	 ecx, edx
  000c6	83 e1 03	 and	 ecx, 3
  000c9	f3 a4		 rep movsb

; 602  : 			_Eos(_Num);

  000cb	83 7b 18 10	 cmp	 DWORD PTR [ebx+24], 16	; 00000010H
  000cf	89 6b 14	 mov	 DWORD PTR [ebx+20], ebp
  000d2	72 02		 jb	 SHORT $L214906
  000d4	8b 00		 mov	 eax, DWORD PTR [eax]
$L214906:
  000d6	c6 04 28 00	 mov	 BYTE PTR [eax+ebp], 0
$L214909:
  000da	5f		 pop	 edi
  000db	5e		 pop	 esi
  000dc	5d		 pop	 ebp

; 603  : 			}
; 604  : 		return (*this);

  000dd	8b c3		 mov	 eax, ebx
  000df	5b		 pop	 ebx

; 605  : 		}

  000e0	c2 0c 00	 ret	 12			; 0000000cH
?assign@?$basic_string@DU?$char_traits@D@std@@V?$allocator@D@2@@std@@QAEAAV12@ABV12@II@Z ENDP ; std::basic_string<char,std::char_traits<char>,std::allocator<char> >::assign
_TEXT	ENDS
PUBLIC	?assign@?$basic_string@DU?$char_traits@D@std@@V?$allocator@D@2@@std@@QAEAAV12@PBDI@Z ; std::basic_string<char,std::char_traits<char>,std::allocator<char> >::assign
; Function compile flags: /Ogty
;	COMDAT ?assign@?$basic_string@DU?$char_traits@D@std@@V?$allocator@D@2@@std@@QAEAAV12@PBDI@Z
_TEXT	SEGMENT
__Ptr$ = 8						; size = 4
__Num$ = 12						; size = 4
?assign@?$basic_string@DU?$char_traits@D@std@@V?$allocator@D@2@@std@@QAEAAV12@PBDI@Z PROC NEAR ; std::basic_string<char,std::char_traits<char>,std::allocator<char> >::assign, COMDAT
; _this$ = ecx

; 608  : 		{	// assign [_Ptr, _Ptr + _Num)

  00000	53		 push	 ebx
  00001	8b d9		 mov	 ebx, ecx

; 609  : 		if (_Inside(_Ptr))

  00003	8b 53 18	 mov	 edx, DWORD PTR [ebx+24]
  00006	83 fa 10	 cmp	 edx, 16			; 00000010H
  00009	56		 push	 esi
  0000a	57		 push	 edi
  0000b	72 05		 jb	 SHORT $L214935
  0000d	8b 43 04	 mov	 eax, DWORD PTR [ebx+4]
  00010	eb 03		 jmp	 SHORT $L214936
$L214935:
  00012	8d 43 04	 lea	 eax, DWORD PTR [ebx+4]
$L214936:
  00015	8b 74 24 10	 mov	 esi, DWORD PTR __Ptr$[esp+8]
  00019	3b f0		 cmp	 esi, eax
  0001b	72 34		 jb	 SHORT $L184989
  0001d	83 fa 10	 cmp	 edx, 16			; 00000010H
  00020	8d 43 04	 lea	 eax, DWORD PTR [ebx+4]
  00023	72 04		 jb	 SHORT $L214939
  00025	8b 08		 mov	 ecx, DWORD PTR [eax]
  00027	eb 02		 jmp	 SHORT $L214940
$L214939:
  00029	8b c8		 mov	 ecx, eax
$L214940:
  0002b	8b 7b 14	 mov	 edi, DWORD PTR [ebx+20]
  0002e	03 f9		 add	 edi, ecx
  00030	3b fe		 cmp	 edi, esi
  00032	76 1d		 jbe	 SHORT $L184989

; 610  : 			return (assign(*this, _Ptr - _Myptr(), _Num));	// substring

  00034	83 fa 10	 cmp	 edx, 16			; 00000010H
  00037	72 02		 jb	 SHORT $L214948
  00039	8b 00		 mov	 eax, DWORD PTR [eax]
$L214948:
  0003b	8b 4c 24 14	 mov	 ecx, DWORD PTR __Num$[esp+8]
  0003f	51		 push	 ecx
  00040	2b f0		 sub	 esi, eax
  00042	56		 push	 esi
  00043	53		 push	 ebx
  00044	8b cb		 mov	 ecx, ebx
  00046	e8 00 00 00 00	 call	 ?assign@?$basic_string@DU?$char_traits@D@std@@V?$allocator@D@2@@std@@QAEAAV12@ABV12@II@Z ; std::basic_string<char,std::char_traits<char>,std::allocator<char> >::assign
  0004b	5f		 pop	 edi
  0004c	5e		 pop	 esi
  0004d	5b		 pop	 ebx

; 618  : 		}

  0004e	c2 08 00	 ret	 8
$L184989:
  00051	55		 push	 ebp

; 611  : 
; 612  : 		if (_Grow(_Num))

  00052	8b 6c 24 18	 mov	 ebp, DWORD PTR __Num$[esp+12]
  00056	83 fd fe	 cmp	 ebp, -2			; fffffffeH
  00059	76 07		 jbe	 SHORT $L215050
  0005b	8b cb		 mov	 ecx, ebx
  0005d	e8 00 00 00 00	 call	 ?_Xlen@_String_base@std@@QBEXXZ ; std::_String_base::_Xlen
$L215050:
  00062	8b 43 18	 mov	 eax, DWORD PTR [ebx+24]
  00065	3b c5		 cmp	 eax, ebp
  00067	73 1b		 jae	 SHORT $L215051
  00069	8b 53 14	 mov	 edx, DWORD PTR [ebx+20]
  0006c	52		 push	 edx
  0006d	55		 push	 ebp
  0006e	8b cb		 mov	 ecx, ebx
  00070	e8 00 00 00 00	 call	 ?_Copy@?$basic_string@DU?$char_traits@D@std@@V?$allocator@D@2@@std@@IAEXII@Z ; std::basic_string<char,std::char_traits<char>,std::allocator<char> >::_Copy
  00075	85 ed		 test	 ebp, ebp
$L215127:
  00077	76 68		 jbe	 SHORT $L215124

; 613  : 			{	// make room and assign new stuff
; 614  : 			_Traits::copy(_Myptr(), _Ptr, _Num);

  00079	83 7b 18 10	 cmp	 DWORD PTR [ebx+24], 16	; 00000010H
  0007d	72 2f		 jb	 SHORT $L215098
  0007f	8b 7b 04	 mov	 edi, DWORD PTR [ebx+4]
  00082	eb 2d		 jmp	 SHORT $L215099

; 611  : 
; 612  : 		if (_Grow(_Num))

$L215051:
  00084	85 ed		 test	 ebp, ebp
  00086	75 ef		 jne	 SHORT $L215127
  00088	83 f8 10	 cmp	 eax, 16			; 00000010H
  0008b	89 6b 14	 mov	 DWORD PTR [ebx+20], ebp
  0008e	72 0f		 jb	 SHORT $L215045
  00090	8b 43 04	 mov	 eax, DWORD PTR [ebx+4]
  00093	5d		 pop	 ebp
  00094	5f		 pop	 edi
  00095	c6 00 00	 mov	 BYTE PTR [eax], 0
  00098	5e		 pop	 esi

; 616  : 			}
; 617  : 		return (*this);

  00099	8b c3		 mov	 eax, ebx
  0009b	5b		 pop	 ebx

; 618  : 		}

  0009c	c2 08 00	 ret	 8

; 611  : 
; 612  : 		if (_Grow(_Num))

$L215045:
  0009f	5d		 pop	 ebp
  000a0	8d 43 04	 lea	 eax, DWORD PTR [ebx+4]
  000a3	5f		 pop	 edi
  000a4	c6 00 00	 mov	 BYTE PTR [eax], 0
  000a7	5e		 pop	 esi

; 616  : 			}
; 617  : 		return (*this);

  000a8	8b c3		 mov	 eax, ebx
  000aa	5b		 pop	 ebx

; 618  : 		}

  000ab	c2 08 00	 ret	 8

; 613  : 			{	// make room and assign new stuff
; 614  : 			_Traits::copy(_Myptr(), _Ptr, _Num);

$L215098:
  000ae	8d 7b 04	 lea	 edi, DWORD PTR [ebx+4]
$L215099:
  000b1	8b cd		 mov	 ecx, ebp
  000b3	8b c1		 mov	 eax, ecx
  000b5	c1 e9 02	 shr	 ecx, 2
  000b8	f3 a5		 rep movsd
  000ba	8b c8		 mov	 ecx, eax
  000bc	83 e1 03	 and	 ecx, 3
  000bf	f3 a4		 rep movsb

; 615  : 			_Eos(_Num);

  000c1	83 7b 18 10	 cmp	 DWORD PTR [ebx+24], 16	; 00000010H
  000c5	89 6b 14	 mov	 DWORD PTR [ebx+20], ebp
  000c8	72 10		 jb	 SHORT $L215120
  000ca	8b 43 04	 mov	 eax, DWORD PTR [ebx+4]
  000cd	c6 04 28 00	 mov	 BYTE PTR [eax+ebp], 0
  000d1	5d		 pop	 ebp
  000d2	5f		 pop	 edi
  000d3	5e		 pop	 esi

; 616  : 			}
; 617  : 		return (*this);

  000d4	8b c3		 mov	 eax, ebx
  000d6	5b		 pop	 ebx

; 618  : 		}

  000d7	c2 08 00	 ret	 8

; 615  : 			_Eos(_Num);

$L215120:
  000da	8d 43 04	 lea	 eax, DWORD PTR [ebx+4]
  000dd	c6 04 28 00	 mov	 BYTE PTR [eax+ebp], 0
$L215124:
  000e1	5d		 pop	 ebp
  000e2	5f		 pop	 edi
  000e3	5e		 pop	 esi

; 616  : 			}
; 617  : 		return (*this);

  000e4	8b c3		 mov	 eax, ebx
  000e6	5b		 pop	 ebx

; 618  : 		}

  000e7	c2 08 00	 ret	 8
?assign@?$basic_string@DU?$char_traits@D@std@@V?$allocator@D@2@@std@@QAEAAV12@PBDI@Z ENDP ; std::basic_string<char,std::char_traits<char>,std::allocator<char> >::assign
_TEXT	ENDS
PUBLIC	?SetChangeNextTax@CTax@@QAEXXZ			; CTax::SetChangeNextTax
; Function compile flags: /Ogty
; File c:\documents and settings\test\mes documents\source\virtuos_v17\build\program\_common\tax.cpp
;	COMDAT ?SetChangeNextTax@CTax@@QAEXXZ
_TEXT	SEGMENT
$T215136 = -34						; size = 1
$T215134 = -34						; size = 1
$T215142 = -33						; size = 1
$T215140 = -33						; size = 1
$T215138 = -33						; size = 1
$T215132 = -33						; size = 1
_it$208333 = -32					; size = 4
_this$ = -28						; size = 4
$T215135 = -24						; size = 4
$T215133 = -20						; size = 4
$T215139 = -16						; size = 4
$T215137 = -12						; size = 4
$T215141 = -8						; size = 4
$T215143 = -4						; size = 4
?SetChangeNextTax@CTax@@QAEXXZ PROC NEAR		; CTax::SetChangeNextTax, COMDAT
; _this$ = ecx

; 232  : {

  00000	83 ec 24	 sub	 esp, 36			; 00000024H

; 233  : 	//  (CONT_) (CONT_ALL)  .
; 234  : 	for( TAXINFOMAP::iterator it=m_mapTaxInfo.begin(); it!=m_mapTaxInfo.end(); it++ )

  00003	8b 41 0c	 mov	 eax, DWORD PTR [ecx+12]
  00006	57		 push	 edi
  00007	8b 38		 mov	 edi, DWORD PTR [eax]
  00009	3b f8		 cmp	 edi, eax
  0000b	89 4c 24 0c	 mov	 DWORD PTR _this$[esp+40], ecx
  0000f	89 7c 24 08	 mov	 DWORD PTR _it$208333[esp+40], edi
  00013	0f 84 c0 01 00
	00		 je	 $L208339
  00019	53		 push	 ebx
  0001a	55		 push	 ebp
  0001b	56		 push	 esi
  0001c	33 db		 xor	 ebx, ebx
  0001e	8b ff		 npad	 2
$L215340:

; 235  : 	{
; 236  : 		__TAXINFO* taxInfo = it->second;

  00020	8b 6f 10	 mov	 ebp, DWORD PTR [edi+16]

; 237  : 		taxInfo->dwId = taxInfo->dwNextId;

  00023	8b 45 14	 mov	 eax, DWORD PTR [ebp+20]
  00026	89 45 00	 mov	 DWORD PTR [ebp], eax

; 238  : 		taxInfo->dwNextId = NULL_ID; //   
; 239  : 		
; 240  : 		if( taxInfo->bSetTaxRate )

  00029	39 5d 04	 cmp	 DWORD PTR [ebp+4], ebx
  0002c	c7 45 14 ff ff
	ff ff		 mov	 DWORD PTR [ebp+20], -1
  00033	0f 84 8d 00 00
	00		 je	 $L208341

; 241  : 		{
; 242  : 			if( it->first != CONT_ALL )		//   .

  00039	80 7f 0c ff	 cmp	 BYTE PTR [edi+12], 255	; 000000ffH
  0003d	0f 84 d8 00 00
	00		 je	 $L208356

; 243  : 			{
; 244  : 				taxInfo->mapTaxDetail.find( TAX_SALES )->second->nTaxRate = taxInfo->mapTaxDetail.find( TAX_SALES )->second->nNextTaxRate;

  00043	8d 4c 24 12	 lea	 ecx, DWORD PTR $T215134[esp+52]
  00047	51		 push	 ecx
  00048	8d 54 24 20	 lea	 edx, DWORD PTR $T215135[esp+56]
  0004c	8d 75 08	 lea	 esi, DWORD PTR [ebp+8]
  0004f	52		 push	 edx
  00050	8b ce		 mov	 ecx, esi
  00052	88 5c 24 1a	 mov	 BYTE PTR $T215134[esp+60], bl
  00056	88 5c 24 1b	 mov	 BYTE PTR $T215132[esp+60], bl
  0005a	e8 00 00 00 00	 call	 ?find@?$_Tree@V?$_Tmap_traits@EPAU__TAXDETAIL@@U?$less@E@std@@V?$allocator@U?$pair@$$CBEPAU__TAXDETAIL@@@std@@@3@$0A@@std@@@std@@QAE?AViterator@12@ABE@Z ; std::_Tree<std::_Tmap_traits<unsigned char,__TAXDETAIL *,std::less<unsigned char>,std::allocator<std::pair<unsigned char const ,__TAXDETAIL *> >,0> >::find
  0005f	8b 38		 mov	 edi, DWORD PTR [eax]
  00061	8d 44 24 13	 lea	 eax, DWORD PTR $T215132[esp+52]
  00065	50		 push	 eax
  00066	8d 4c 24 24	 lea	 ecx, DWORD PTR $T215133[esp+56]
  0006a	51		 push	 ecx
  0006b	8b ce		 mov	 ecx, esi
  0006d	83 c7 0c	 add	 edi, 12			; 0000000cH
  00070	e8 00 00 00 00	 call	 ?find@?$_Tree@V?$_Tmap_traits@EPAU__TAXDETAIL@@U?$less@E@std@@V?$allocator@U?$pair@$$CBEPAU__TAXDETAIL@@@std@@@3@$0A@@std@@@std@@QAE?AViterator@12@ABE@Z ; std::_Tree<std::_Tmap_traits<unsigned char,__TAXDETAIL *,std::less<unsigned char>,std::allocator<std::pair<unsigned char const ,__TAXDETAIL *> >,0> >::find
  00075	8b 00		 mov	 eax, DWORD PTR [eax]
  00077	8b 57 04	 mov	 edx, DWORD PTR [edi+4]
  0007a	8b 48 10	 mov	 ecx, DWORD PTR [eax+16]
  0007d	8b 52 10	 mov	 edx, DWORD PTR [edx+16]
  00080	89 11		 mov	 DWORD PTR [ecx], edx

; 245  : 				taxInfo->mapTaxDetail.find( TAX_PURCHASE )->second->nTaxRate = taxInfo->mapTaxDetail.find( TAX_PURCHASE )->second->nNextTaxRate;

  00082	8d 44 24 13	 lea	 eax, DWORD PTR $T215138[esp+52]
  00086	50		 push	 eax
  00087	8d 4c 24 28	 lea	 ecx, DWORD PTR $T215139[esp+56]
  0008b	51		 push	 ecx
  0008c	8b ce		 mov	 ecx, esi
  0008e	c6 44 24 1b 01	 mov	 BYTE PTR $T215138[esp+60], 1
  00093	c6 44 24 1a 01	 mov	 BYTE PTR $T215136[esp+60], 1
  00098	e8 00 00 00 00	 call	 ?find@?$_Tree@V?$_Tmap_traits@EPAU__TAXDETAIL@@U?$less@E@std@@V?$allocator@U?$pair@$$CBEPAU__TAXDETAIL@@@std@@@3@$0A@@std@@@std@@QAE?AViterator@12@ABE@Z ; std::_Tree<std::_Tmap_traits<unsigned char,__TAXDETAIL *,std::less<unsigned char>,std::allocator<std::pair<unsigned char const ,__TAXDETAIL *> >,0> >::find
  0009d	8b 38		 mov	 edi, DWORD PTR [eax]
  0009f	8d 54 24 12	 lea	 edx, DWORD PTR $T215136[esp+52]
  000a3	52		 push	 edx
  000a4	8d 44 24 2c	 lea	 eax, DWORD PTR $T215137[esp+56]
  000a8	50		 push	 eax
  000a9	8b ce		 mov	 ecx, esi
  000ab	83 c7 0c	 add	 edi, 12			; 0000000cH
  000ae	e8 00 00 00 00	 call	 ?find@?$_Tree@V?$_Tmap_traits@EPAU__TAXDETAIL@@U?$less@E@std@@V?$allocator@U?$pair@$$CBEPAU__TAXDETAIL@@@std@@@3@$0A@@std@@@std@@QAE?AViterator@12@ABE@Z ; std::_Tree<std::_Tmap_traits<unsigned char,__TAXDETAIL *,std::less<unsigned char>,std::allocator<std::pair<unsigned char const ,__TAXDETAIL *> >,0> >::find
  000b3	8b 4f 04	 mov	 ecx, DWORD PTR [edi+4]
  000b6	8b 10		 mov	 edx, DWORD PTR [eax]
  000b8	8b 42 10	 mov	 eax, DWORD PTR [edx+16]
  000bb	8b 49 10	 mov	 ecx, DWORD PTR [ecx+16]

; 246  : 			}
; 247  : 		}
; 248  : 		else	//        

  000be	8b 7c 24 14	 mov	 edi, DWORD PTR _it$208333[esp+52]
  000c2	89 08		 mov	 DWORD PTR [eax], ecx
  000c4	eb 55		 jmp	 SHORT $L208356
$L208341:

; 249  : 		{
; 250  : 			taxInfo->bSetTaxRate = TRUE;	//        .

  000c6	c7 45 04 01 00
	00 00		 mov	 DWORD PTR [ebp+4], 1

; 251  : 			if( it->first != CONT_ALL )		//   .

  000cd	80 7f 0c ff	 cmp	 BYTE PTR [edi+12], 255	; 000000ffH
  000d1	74 48		 je	 SHORT $L208356

; 252  : 			{
; 253  : 				taxInfo->mapTaxDetail.find( TAX_SALES )->second->nTaxRate = m_nMinTaxRate;

  000d3	8d 54 24 13	 lea	 edx, DWORD PTR $T215140[esp+52]
  000d7	52		 push	 edx
  000d8	8d 44 24 30	 lea	 eax, DWORD PTR $T215141[esp+56]
  000dc	8d 75 08	 lea	 esi, DWORD PTR [ebp+8]
  000df	50		 push	 eax
  000e0	8b ce		 mov	 ecx, esi
  000e2	88 5c 24 1b	 mov	 BYTE PTR $T215140[esp+60], bl
  000e6	e8 00 00 00 00	 call	 ?find@?$_Tree@V?$_Tmap_traits@EPAU__TAXDETAIL@@U?$less@E@std@@V?$allocator@U?$pair@$$CBEPAU__TAXDETAIL@@@std@@@3@$0A@@std@@@std@@QAE?AViterator@12@ABE@Z ; std::_Tree<std::_Tmap_traits<unsigned char,__TAXDETAIL *,std::less<unsigned char>,std::allocator<std::pair<unsigned char const ,__TAXDETAIL *> >,0> >::find
  000eb	8b 08		 mov	 ecx, DWORD PTR [eax]
  000ed	8b 51 10	 mov	 edx, DWORD PTR [ecx+16]
  000f0	8b 44 24 18	 mov	 eax, DWORD PTR _this$[esp+52]
  000f4	8b 08		 mov	 ecx, DWORD PTR [eax]
  000f6	89 0a		 mov	 DWORD PTR [edx], ecx

; 254  : 				taxInfo->mapTaxDetail.find( TAX_PURCHASE )->second->nTaxRate = m_nMinTaxRate;

  000f8	8d 54 24 13	 lea	 edx, DWORD PTR $T215142[esp+52]
  000fc	52		 push	 edx
  000fd	8d 44 24 34	 lea	 eax, DWORD PTR $T215143[esp+56]
  00101	50		 push	 eax
  00102	8b ce		 mov	 ecx, esi
  00104	c6 44 24 1b 01	 mov	 BYTE PTR $T215142[esp+60], 1
  00109	e8 00 00 00 00	 call	 ?find@?$_Tree@V?$_Tmap_traits@EPAU__TAXDETAIL@@U?$less@E@std@@V?$allocator@U?$pair@$$CBEPAU__TAXDETAIL@@@std@@@3@$0A@@std@@@std@@QAE?AViterator@12@ABE@Z ; std::_Tree<std::_Tmap_traits<unsigned char,__TAXDETAIL *,std::less<unsigned char>,std::allocator<std::pair<unsigned char const ,__TAXDETAIL *> >,0> >::find
  0010e	8b 08		 mov	 ecx, DWORD PTR [eax]
  00110	8b 51 10	 mov	 edx, DWORD PTR [ecx+16]
  00113	8b 44 24 18	 mov	 eax, DWORD PTR _this$[esp+52]
  00117	8b 08		 mov	 ecx, DWORD PTR [eax]
  00119	89 0a		 mov	 DWORD PTR [edx], ecx
$L208356:

; 255  : 			}
; 256  : 		}
; 257  : 		
; 258  : 		//    .
; 259  : 		for( TAXDETAILMAP::iterator it2=taxInfo->mapTaxDetail.begin(); it2!=taxInfo->mapTaxDetail.end(); it2++ )

  0011b	8b 45 0c	 mov	 eax, DWORD PTR [ebp+12]
  0011e	8b 08		 mov	 ecx, DWORD PTR [eax]
  00120	3b c8		 cmp	 ecx, eax
  00122	74 55		 je	 SHORT $L208338
$L215794:

; 260  : 		{
; 261  : 			__TAXDETAIL* taxDetail = it2->second;

  00124	8b 41 10	 mov	 eax, DWORD PTR [ecx+16]

; 262  : 			taxDetail->nNextTaxRate = 0;

  00127	89 58 10	 mov	 DWORD PTR [eax+16], ebx

; 263  : 			taxDetail->nTaxCount = 0;

  0012a	89 58 04	 mov	 DWORD PTR [eax+4], ebx

; 264  : 			taxDetail->nTaxPerin = 0;

  0012d	89 58 0c	 mov	 DWORD PTR [eax+12], ebx

; 265  : 			taxDetail->nTaxGold = 0;

  00130	89 58 08	 mov	 DWORD PTR [eax+8], ebx
  00133	38 59 15	 cmp	 BYTE PTR [ecx+21], bl
  00136	75 3c		 jne	 SHORT $L215829
  00138	8b 41 08	 mov	 eax, DWORD PTR [ecx+8]
  0013b	38 58 15	 cmp	 BYTE PTR [eax+21], bl
  0013e	75 1b		 jne	 SHORT $L215885
  00140	8b c8		 mov	 ecx, eax
  00142	8b 01		 mov	 eax, DWORD PTR [ecx]
  00144	38 58 15	 cmp	 BYTE PTR [eax+21], bl
  00147	75 2b		 jne	 SHORT $L215829
  00149	8d a4 24 00 00
	00 00		 npad	 7

; 255  : 			}
; 256  : 		}
; 257  : 		
; 258  : 		//    .
; 259  : 		for( TAXDETAILMAP::iterator it2=taxInfo->mapTaxDetail.begin(); it2!=taxInfo->mapTaxDetail.end(); it2++ )

$L215810:
  00150	8b c8		 mov	 ecx, eax
  00152	8b 01		 mov	 eax, DWORD PTR [ecx]
  00154	38 58 15	 cmp	 BYTE PTR [eax+21], bl
  00157	74 f7		 je	 SHORT $L215810
  00159	eb 19		 jmp	 SHORT $L215829
$L215885:
  0015b	8b 41 04	 mov	 eax, DWORD PTR [ecx+4]
  0015e	38 58 15	 cmp	 BYTE PTR [eax+21], bl
  00161	75 0f		 jne	 SHORT $L215832
$L215831:
  00163	3b 48 08	 cmp	 ecx, DWORD PTR [eax+8]
  00166	75 0a		 jne	 SHORT $L215832
  00168	8b c8		 mov	 ecx, eax
  0016a	8b 40 04	 mov	 eax, DWORD PTR [eax+4]
  0016d	38 58 15	 cmp	 BYTE PTR [eax+21], bl
  00170	74 f1		 je	 SHORT $L215831
$L215832:
  00172	8b c8		 mov	 ecx, eax
$L215829:
  00174	3b 4d 0c	 cmp	 ecx, DWORD PTR [ebp+12]
  00177	75 ab		 jne	 SHORT $L215794
$L208338:

; 233  : 	//  (CONT_) (CONT_ALL)  .
; 234  : 	for( TAXINFOMAP::iterator it=m_mapTaxInfo.begin(); it!=m_mapTaxInfo.end(); it++ )

  00179	38 5f 15	 cmp	 BYTE PTR [edi+21], bl
  0017c	75 4b		 jne	 SHORT $L215333
  0017e	8b 4f 08	 mov	 ecx, DWORD PTR [edi+8]
  00181	38 59 15	 cmp	 BYTE PTR [ecx+21], bl
  00184	75 19		 jne	 SHORT $L215887
  00186	8b 01		 mov	 eax, DWORD PTR [ecx]
  00188	38 58 15	 cmp	 BYTE PTR [eax+21], bl
  0018b	75 0c		 jne	 SHORT $L215350
  0018d	8d 49 00	 npad	 3
$L215349:
  00190	8b c8		 mov	 ecx, eax
  00192	8b 01		 mov	 eax, DWORD PTR [ecx]
  00194	38 58 15	 cmp	 BYTE PTR [eax+21], bl
  00197	74 f7		 je	 SHORT $L215349
$L215350:
  00199	89 4c 24 14	 mov	 DWORD PTR _it$208333[esp+52], ecx
  0019d	eb 26		 jmp	 SHORT $L215895
$L215887:
  0019f	8b 47 04	 mov	 eax, DWORD PTR [edi+4]
  001a2	38 58 15	 cmp	 BYTE PTR [eax+21], bl
  001a5	75 1a		 jne	 SHORT $L215336
  001a7	eb 07		 jmp	 SHORT $L215335
$L215894:
  001a9	8b 7c 24 14	 mov	 edi, DWORD PTR _it$208333[esp+52]
  001ad	8d 49 00	 npad	 3
$L215335:
  001b0	3b 78 08	 cmp	 edi, DWORD PTR [eax+8]
  001b3	75 0c		 jne	 SHORT $L215336
  001b5	89 44 24 14	 mov	 DWORD PTR _it$208333[esp+52], eax
  001b9	8b 40 04	 mov	 eax, DWORD PTR [eax+4]
  001bc	38 58 15	 cmp	 BYTE PTR [eax+21], bl
  001bf	74 e8		 je	 SHORT $L215894
$L215336:
  001c1	89 44 24 14	 mov	 DWORD PTR _it$208333[esp+52], eax
$L215895:
  001c5	8b 7c 24 14	 mov	 edi, DWORD PTR _it$208333[esp+52]
$L215333:
  001c9	8b 54 24 18	 mov	 edx, DWORD PTR _this$[esp+52]
  001cd	3b 7a 0c	 cmp	 edi, DWORD PTR [edx+12]
  001d0	0f 85 4a fe ff
	ff		 jne	 $L215340
  001d6	5e		 pop	 esi
  001d7	5d		 pop	 ebp
  001d8	5b		 pop	 ebx
$L208339:
  001d9	5f		 pop	 edi

; 266  : 		}
; 267  : 	}
; 268  : }

  001da	83 c4 24	 add	 esp, 36			; 00000024H
  001dd	c3		 ret	 0
?SetChangeNextTax@CTax@@QAEXXZ ENDP			; CTax::SetChangeNextTax
_TEXT	ENDS
PUBLIC	?SetNextSecretRoomGuild@CTax@@QAEXEK@Z		; CTax::SetNextSecretRoomGuild
; Function compile flags: /Ogty
;	COMDAT ?SetNextSecretRoomGuild@CTax@@QAEXEK@Z
_TEXT	SEGMENT
_nCont$ = 8						; size = 1
_it$208409 = 8						; size = 4
_dwGuildId$ = 12					; size = 4
?SetNextSecretRoomGuild@CTax@@QAEXEK@Z PROC NEAR	; CTax::SetNextSecretRoomGuild, COMDAT
; _this$ = ecx

; 321  : #ifdef __WORLDSERVER
; 322  : 	g_dpDBClient.SendSecretRoomWinGuild( nCont, dwGuildId );
; 323  : #endif // __WORLDSERVER
; 324  : 
; 325  : #ifdef __DBSERVER
; 326  : 	__TAXINFO* taxInfo = GetTaxInfo( nCont );

  00000	8b 44 24 04	 mov	 eax, DWORD PTR _nCont$[esp-4]
  00004	56		 push	 esi
  00005	50		 push	 eax
  00006	e8 00 00 00 00	 call	 ?GetTaxInfo@CTax@@QAEPAU__TAXINFO@@E@Z ; CTax::GetTaxInfo
  0000b	8b f0		 mov	 esi, eax

; 327  : 	if( !taxInfo )

  0000d	85 f6		 test	 esi, esi
  0000f	74 3b		 je	 SHORT $L208415

; 328  : 		return;
; 329  : 
; 330  : 	if( dwGuildId == NULL_ID )	//       .

  00011	8b 44 24 0c	 mov	 eax, DWORD PTR _dwGuildId$[esp]
  00015	33 c9		 xor	 ecx, ecx
  00017	83 f8 ff	 cmp	 eax, -1
  0001a	0f 94 c1	 sete	 cl

; 331  : 		taxInfo->bSetTaxRate = TRUE;
; 332  : 	else
; 333  : 		taxInfo->bSetTaxRate = FALSE;
; 334  : 	//  ID   
; 335  : 	taxInfo->dwNextId = dwGuildId;

  0001d	89 46 14	 mov	 DWORD PTR [esi+20], eax
  00020	89 4e 04	 mov	 DWORD PTR [esi+4], ecx

; 336  : 	for( TAXDETAILMAP::iterator it=taxInfo->mapTaxDetail.begin(); it!=taxInfo->mapTaxDetail.end(); it++ )

  00023	8b 4e 0c	 mov	 ecx, DWORD PTR [esi+12]
  00026	8b 01		 mov	 eax, DWORD PTR [ecx]
  00028	3b c1		 cmp	 eax, ecx
  0002a	89 44 24 08	 mov	 DWORD PTR _it$208409[esp], eax
  0002e	74 1c		 je	 SHORT $L208415
$L215938:

; 337  : 		it->second->nNextTaxRate = 0;

  00030	8b 50 10	 mov	 edx, DWORD PTR [eax+16]
  00033	8d 4c 24 08	 lea	 ecx, DWORD PTR _it$208409[esp]
  00037	c7 42 10 00 00
	00 00		 mov	 DWORD PTR [edx+16], 0
  0003e	e8 00 00 00 00	 call	 ?_Inc@const_iterator@?$_Tree@V?$_Tmap_traits@EPAU__TAXDETAIL@@U?$less@E@std@@V?$allocator@U?$pair@$$CBEPAU__TAXDETAIL@@@std@@@3@$0A@@std@@@std@@QAEXXZ ; std::_Tree<std::_Tmap_traits<unsigned char,__TAXDETAIL *,std::less<unsigned char>,std::allocator<std::pair<unsigned char const ,__TAXDETAIL *> >,0> >::const_iterator::_Inc
  00043	8b 44 24 08	 mov	 eax, DWORD PTR _it$208409[esp]
  00047	3b 46 0c	 cmp	 eax, DWORD PTR [esi+12]
  0004a	75 e4		 jne	 SHORT $L215938
$L208415:
  0004c	5e		 pop	 esi

; 338  : #endif // __DBSERVER
; 339  : }

  0004d	c2 08 00	 ret	 8
?SetNextSecretRoomGuild@CTax@@QAEXEK@Z ENDP		; CTax::SetNextSecretRoomGuild
_TEXT	ENDS
PUBLIC	?SetNextLord@CTax@@QAEXK@Z			; CTax::SetNextLord
; Function compile flags: /Ogty
;	COMDAT ?SetNextLord@CTax@@QAEXK@Z
_TEXT	SEGMENT
_it$208422 = 8						; size = 4
_dwIdPlayer$ = 8					; size = 4
?SetNextLord@CTax@@QAEXK@Z PROC NEAR			; CTax::SetNextLord, COMDAT
; _this$ = ecx

; 342  : {

  00000	56		 push	 esi

; 343  : #ifdef __WORLDSERVER
; 344  : 	g_dpDBClient.SendLord( dwIdPlayer );
; 345  : #endif // __WORLDSERVER
; 346  : 
; 347  : #ifdef __DBSERVER
; 348  : 	__TAXINFO* taxInfo = GetTaxInfo( CONT_ALL );

  00001	68 ff 00 00 00	 push	 255			; 000000ffH
  00006	e8 00 00 00 00	 call	 ?GetTaxInfo@CTax@@QAEPAU__TAXINFO@@E@Z ; CTax::GetTaxInfo
  0000b	8b f0		 mov	 esi, eax

; 349  : 	if( !taxInfo )

  0000d	85 f6		 test	 esi, esi
  0000f	74 3b		 je	 SHORT $L208428

; 350  : 		return;
; 351  : 	
; 352  : 	taxInfo->bSetTaxRate = TRUE;
; 353  : 	//  ID   
; 354  : 	taxInfo->dwNextId = dwIdPlayer;

  00011	8b 44 24 08	 mov	 eax, DWORD PTR _dwIdPlayer$[esp]

; 355  : 	for( TAXDETAILMAP::iterator it=taxInfo->mapTaxDetail.begin(); it!=taxInfo->mapTaxDetail.end(); it++ )

  00015	8b 4e 0c	 mov	 ecx, DWORD PTR [esi+12]
  00018	c7 46 04 01 00
	00 00		 mov	 DWORD PTR [esi+4], 1
  0001f	89 46 14	 mov	 DWORD PTR [esi+20], eax
  00022	8b 01		 mov	 eax, DWORD PTR [ecx]
  00024	3b c1		 cmp	 eax, ecx
  00026	89 44 24 08	 mov	 DWORD PTR _it$208422[esp], eax
  0002a	74 20		 je	 SHORT $L208428
  0002c	8d 64 24 00	 npad	 4
$L216037:

; 356  : 		it->second->nNextTaxRate = 0; //     ...

  00030	8b 48 10	 mov	 ecx, DWORD PTR [eax+16]
  00033	c7 41 10 00 00
	00 00		 mov	 DWORD PTR [ecx+16], 0
  0003a	8d 4c 24 08	 lea	 ecx, DWORD PTR _it$208422[esp]
  0003e	e8 00 00 00 00	 call	 ?_Inc@const_iterator@?$_Tree@V?$_Tmap_traits@EPAU__TAXDETAIL@@U?$less@E@std@@V?$allocator@U?$pair@$$CBEPAU__TAXDETAIL@@@std@@@3@$0A@@std@@@std@@QAEXXZ ; std::_Tree<std::_Tmap_traits<unsigned char,__TAXDETAIL *,std::less<unsigned char>,std::allocator<std::pair<unsigned char const ,__TAXDETAIL *> >,0> >::const_iterator::_Inc
  00043	8b 44 24 08	 mov	 eax, DWORD PTR _it$208422[esp]
  00047	3b 46 0c	 cmp	 eax, DWORD PTR [esi+12]
  0004a	75 e4		 jne	 SHORT $L216037
$L208428:
  0004c	5e		 pop	 esi

; 357  : #endif // __DBSERVER
; 358  : }

  0004d	c2 04 00	 ret	 4
?SetNextLord@CTax@@QAEXK@Z ENDP				; CTax::SetNextLord
_TEXT	ENDS
PUBLIC	?Serialize@CTax@@QAEXAAVCAr@@@Z			; CTax::Serialize
; Function compile flags: /Ogty
;	COMDAT ?Serialize@CTax@@QAEXAAVCAr@@@Z
_TEXT	SEGMENT
tv182 = -20						; size = 4
_it$208451 = -20					; size = 4
_this$ = -16						; size = 4
$T216821 = -12						; size = 4
$T216823 = -8						; size = 4
$T216100 = -4						; size = 4
$T216842 = 8						; size = 1
$T216736 = 8						; size = 1
$T216411 = 8						; size = 1
_nTaxKind$208471 = 8					; size = 1
_ar$ = 8						; size = 4
?Serialize@CTax@@QAEXAAVCAr@@@Z PROC NEAR		; CTax::Serialize, COMDAT
; _this$ = ecx

; 392  : {

  00000	83 ec 14	 sub	 esp, 20			; 00000014H
  00003	53		 push	 ebx
  00004	55		 push	 ebp
  00005	56		 push	 esi

; 393  : 	if( ar.IsStoring() )

  00006	8b 74 24 24	 mov	 esi, DWORD PTR _ar$[esp+28]
  0000a	33 c0		 xor	 eax, eax
  0000c	8a 06		 mov	 al, BYTE PTR [esi]
  0000e	8b e9		 mov	 ebp, ecx
  00010	57		 push	 edi
  00011	89 6c 24 14	 mov	 DWORD PTR _this$[esp+36], ebp
  00015	f7 d0		 not	 eax
  00017	a8 01		 test	 al, 1
  00019	0f 84 a4 01 00
	00		 je	 $L208450

; 394  : 	{
; 395  : 		ar << m_mapTaxInfo.size();

  0001f	8b 7d 10	 mov	 edi, DWORD PTR [ebp+16]
  00022	6a 04		 push	 4
  00024	8b ce		 mov	 ecx, esi
  00026	e8 00 00 00 00	 call	 ?CheckBuf@CAr@@QAEXI@Z	; CAr::CheckBuf
  0002b	8b 4e 08	 mov	 ecx, DWORD PTR [esi+8]
  0002e	89 39		 mov	 DWORD PTR [ecx], edi
  00030	83 46 08 04	 add	 DWORD PTR [esi+8], 4

; 396  : 		for( TAXINFOMAP::iterator it=m_mapTaxInfo.begin(); it!=m_mapTaxInfo.end(); it++ )

  00034	8b 45 0c	 mov	 eax, DWORD PTR [ebp+12]
  00037	8b 18		 mov	 ebx, DWORD PTR [eax]
  00039	3b d8		 cmp	 ebx, eax
  0003b	89 5c 24 10	 mov	 DWORD PTR _it$208451[esp+36], ebx
  0003f	0f 84 b8 02 00
	00		 je	 $L208475
$L216919:

; 397  : 		{
; 398  : 			__TAXINFO* taxInfo = it->second;
; 399  : 			ar << it->first;

  00045	8a 53 0c	 mov	 dl, BYTE PTR [ebx+12]
  00048	8b 6b 10	 mov	 ebp, DWORD PTR [ebx+16]
  0004b	6a 01		 push	 1
  0004d	8b ce		 mov	 ecx, esi
  0004f	88 54 24 2c	 mov	 BYTE PTR $T216411[esp+36], dl
  00053	e8 00 00 00 00	 call	 ?CheckBuf@CAr@@QAEXI@Z	; CAr::CheckBuf
  00058	8b 46 08	 mov	 eax, DWORD PTR [esi+8]
  0005b	8a 4c 24 28	 mov	 cl, BYTE PTR $T216411[esp+32]
  0005f	88 08		 mov	 BYTE PTR [eax], cl
  00061	ff 46 08	 inc	 DWORD PTR [esi+8]

; 400  : 
; 401  : 			ar << taxInfo->dwId;

  00064	8b 7d 00	 mov	 edi, DWORD PTR [ebp]
  00067	6a 04		 push	 4
  00069	8b ce		 mov	 ecx, esi
  0006b	e8 00 00 00 00	 call	 ?CheckBuf@CAr@@QAEXI@Z	; CAr::CheckBuf
  00070	8b 56 08	 mov	 edx, DWORD PTR [esi+8]
  00073	89 3a		 mov	 DWORD PTR [edx], edi
  00075	83 46 08 04	 add	 DWORD PTR [esi+8], 4

; 402  : #ifdef __DBSERVER
; 403  : 			ar << taxInfo->bSetTaxRate;

  00079	8b 7d 04	 mov	 edi, DWORD PTR [ebp+4]
  0007c	6a 04		 push	 4
  0007e	8b ce		 mov	 ecx, esi
  00080	e8 00 00 00 00	 call	 ?CheckBuf@CAr@@QAEXI@Z	; CAr::CheckBuf
  00085	8b 46 08	 mov	 eax, DWORD PTR [esi+8]
  00088	89 38		 mov	 DWORD PTR [eax], edi
  0008a	83 46 08 04	 add	 DWORD PTR [esi+8], 4

; 404  : 			ar << taxInfo->dwNextId;

  0008e	8b 7d 14	 mov	 edi, DWORD PTR [ebp+20]
  00091	6a 04		 push	 4
  00093	8b ce		 mov	 ecx, esi
  00095	e8 00 00 00 00	 call	 ?CheckBuf@CAr@@QAEXI@Z	; CAr::CheckBuf
  0009a	8b 4e 08	 mov	 ecx, DWORD PTR [esi+8]
  0009d	89 39		 mov	 DWORD PTR [ecx], edi
  0009f	83 46 08 04	 add	 DWORD PTR [esi+8], 4

; 405  : #endif // __DBSERVER
; 406  : 			ar << taxInfo->mapTaxDetail.size();

  000a3	8b 7d 10	 mov	 edi, DWORD PTR [ebp+16]
  000a6	6a 04		 push	 4
  000a8	8b ce		 mov	 ecx, esi
  000aa	e8 00 00 00 00	 call	 ?CheckBuf@CAr@@QAEXI@Z	; CAr::CheckBuf
  000af	8b 56 08	 mov	 edx, DWORD PTR [esi+8]
  000b2	89 3a		 mov	 DWORD PTR [edx], edi
  000b4	83 46 08 04	 add	 DWORD PTR [esi+8], 4

; 407  : 			for( TAXDETAILMAP::iterator it2=taxInfo->mapTaxDetail.begin(); it2!=taxInfo->mapTaxDetail.end(); it2++ )

  000b8	8b 45 0c	 mov	 eax, DWORD PTR [ebp+12]
  000bb	8b 38		 mov	 edi, DWORD PTR [eax]
  000bd	3b f8		 cmp	 edi, eax
  000bf	0f 84 8b 00 00
	00		 je	 $L208456
$L216621:

; 408  : 			{
; 409  : 				__TAXDETAIL* taxDetail = it2->second;
; 410  : 				ar << it2->first;

  000c5	8a 47 0c	 mov	 al, BYTE PTR [edi+12]
  000c8	8b 5f 10	 mov	 ebx, DWORD PTR [edi+16]
  000cb	6a 01		 push	 1
  000cd	8b ce		 mov	 ecx, esi
  000cf	88 44 24 2c	 mov	 BYTE PTR $T216736[esp+36], al
  000d3	e8 00 00 00 00	 call	 ?CheckBuf@CAr@@QAEXI@Z	; CAr::CheckBuf
  000d8	8b 4e 08	 mov	 ecx, DWORD PTR [esi+8]
  000db	8a 54 24 28	 mov	 dl, BYTE PTR $T216736[esp+32]
  000df	88 11		 mov	 BYTE PTR [ecx], dl
  000e1	ff 46 08	 inc	 DWORD PTR [esi+8]

; 411  : 
; 412  : 				ar << taxDetail->nTaxRate;

  000e4	8b 1b		 mov	 ebx, DWORD PTR [ebx]
  000e6	6a 04		 push	 4
  000e8	8b ce		 mov	 ecx, esi
  000ea	e8 00 00 00 00	 call	 ?CheckBuf@CAr@@QAEXI@Z	; CAr::CheckBuf
  000ef	8b 46 08	 mov	 eax, DWORD PTR [esi+8]
  000f2	89 18		 mov	 DWORD PTR [eax], ebx
  000f4	83 46 08 04	 add	 DWORD PTR [esi+8], 4
  000f8	8a 47 15	 mov	 al, BYTE PTR [edi+21]
  000fb	84 c0		 test	 al, al
  000fd	75 44		 jne	 SHORT $L216656
  000ff	8b 47 08	 mov	 eax, DWORD PTR [edi+8]
  00102	8a 48 15	 mov	 cl, BYTE PTR [eax+21]
  00105	84 c9		 test	 cl, cl
  00107	75 18		 jne	 SHORT $L216905
  00109	8b f8		 mov	 edi, eax
  0010b	8b 07		 mov	 eax, DWORD PTR [edi]
  0010d	8a 48 15	 mov	 cl, BYTE PTR [eax+21]
  00110	84 c9		 test	 cl, cl
  00112	75 2f		 jne	 SHORT $L216656

; 407  : 			for( TAXDETAILMAP::iterator it2=taxInfo->mapTaxDetail.begin(); it2!=taxInfo->mapTaxDetail.end(); it2++ )

$L216637:
  00114	8b f8		 mov	 edi, eax
  00116	8b 07		 mov	 eax, DWORD PTR [edi]
  00118	8a 48 15	 mov	 cl, BYTE PTR [eax+21]
  0011b	84 c9		 test	 cl, cl
  0011d	74 f5		 je	 SHORT $L216637
  0011f	eb 22		 jmp	 SHORT $L216656
$L216905:
  00121	8b 47 04	 mov	 eax, DWORD PTR [edi+4]
  00124	8a 48 15	 mov	 cl, BYTE PTR [eax+21]
  00127	84 c9		 test	 cl, cl
  00129	75 16		 jne	 SHORT $L216659
  0012b	eb 03 8d 49 00	 npad	 5
$L216658:
  00130	3b 78 08	 cmp	 edi, DWORD PTR [eax+8]
  00133	75 0c		 jne	 SHORT $L216659
  00135	8b f8		 mov	 edi, eax
  00137	8b 40 04	 mov	 eax, DWORD PTR [eax+4]
  0013a	8a 48 15	 mov	 cl, BYTE PTR [eax+21]
  0013d	84 c9		 test	 cl, cl
  0013f	74 ef		 je	 SHORT $L216658
$L216659:
  00141	8b f8		 mov	 edi, eax
$L216656:
  00143	3b 7d 0c	 cmp	 edi, DWORD PTR [ebp+12]
  00146	0f 85 79 ff ff
	ff		 jne	 $L216621
  0014c	8b 5c 24 10	 mov	 ebx, DWORD PTR _it$208451[esp+36]
$L208456:

; 396  : 		for( TAXINFOMAP::iterator it=m_mapTaxInfo.begin(); it!=m_mapTaxInfo.end(); it++ )

  00150	8a 43 15	 mov	 al, BYTE PTR [ebx+21]
  00153	84 c0		 test	 al, al
  00155	75 55		 jne	 SHORT $L216303
  00157	8b 4b 08	 mov	 ecx, DWORD PTR [ebx+8]
  0015a	8a 41 15	 mov	 al, BYTE PTR [ecx+21]
  0015d	84 c0		 test	 al, al
  0015f	75 20		 jne	 SHORT $L216907
  00161	8b 01		 mov	 eax, DWORD PTR [ecx]
  00163	8a 50 15	 mov	 dl, BYTE PTR [eax+21]
  00166	84 d2		 test	 dl, dl
  00168	75 11		 jne	 SHORT $L216325
  0016a	8d 9b 00 00 00
	00		 npad	 6
$L216324:
  00170	8b c8		 mov	 ecx, eax
  00172	8b 01		 mov	 eax, DWORD PTR [ecx]
  00174	8a 50 15	 mov	 dl, BYTE PTR [eax+21]
  00177	84 d2		 test	 dl, dl
  00179	74 f5		 je	 SHORT $L216324
$L216325:
  0017b	89 4c 24 10	 mov	 DWORD PTR _it$208451[esp+36], ecx
  0017f	eb 27		 jmp	 SHORT $L216920
$L216907:
  00181	8b 43 04	 mov	 eax, DWORD PTR [ebx+4]
  00184	8a 48 15	 mov	 cl, BYTE PTR [eax+21]
  00187	84 c9		 test	 cl, cl
  00189	75 19		 jne	 SHORT $L216306
  0018b	eb 04		 jmp	 SHORT $L216305
$L216918:
  0018d	8b 5c 24 10	 mov	 ebx, DWORD PTR _it$208451[esp+36]
$L216305:
  00191	3b 58 08	 cmp	 ebx, DWORD PTR [eax+8]
  00194	75 0e		 jne	 SHORT $L216306
  00196	89 44 24 10	 mov	 DWORD PTR _it$208451[esp+36], eax
  0019a	8b 40 04	 mov	 eax, DWORD PTR [eax+4]
  0019d	8a 48 15	 mov	 cl, BYTE PTR [eax+21]
  001a0	84 c9		 test	 cl, cl
  001a2	74 e9		 je	 SHORT $L216918
$L216306:
  001a4	89 44 24 10	 mov	 DWORD PTR _it$208451[esp+36], eax
$L216920:
  001a8	8b 5c 24 10	 mov	 ebx, DWORD PTR _it$208451[esp+36]
$L216303:
  001ac	8b 4c 24 14	 mov	 ecx, DWORD PTR _this$[esp+36]
  001b0	3b 59 0c	 cmp	 ebx, DWORD PTR [ecx+12]
  001b3	0f 85 8c fe ff
	ff		 jne	 $L216919
  001b9	5f		 pop	 edi
  001ba	5e		 pop	 esi
  001bb	5d		 pop	 ebp
  001bc	5b		 pop	 ebx

; 438  : 			}
; 439  : 		}
; 440  : 	}
; 441  : }

  001bd	83 c4 14	 add	 esp, 20			; 00000014H
  001c0	c2 04 00	 ret	 4
$L208450:

; 413  : 			}
; 414  : 		}
; 415  : 	}
; 416  : 	else
; 417  : 	{
; 418  : 		int nSize, nSize2;
; 419  : 		BYTE nCont, nTaxKind;
; 420  : 				
; 421  : 		ar >> nSize;

  001c3	8b 46 08	 mov	 eax, DWORD PTR [esi+8]
  001c6	8b 56 0c	 mov	 edx, DWORD PTR [esi+12]
  001c9	8d 48 04	 lea	 ecx, DWORD PTR [eax+4]
  001cc	3b ca		 cmp	 ecx, edx
  001ce	77 07		 ja	 SHORT $L216755
  001d0	8b 00		 mov	 eax, DWORD PTR [eax]
  001d2	89 4e 08	 mov	 DWORD PTR [esi+8], ecx
  001d5	eb 05		 jmp	 SHORT $L216756
$L216755:
  001d7	33 c0		 xor	 eax, eax
  001d9	89 56 08	 mov	 DWORD PTR [esi+8], edx
$L216756:

; 422  : 		for( int i=0; i<nSize; i++ )

  001dc	85 c0		 test	 eax, eax
  001de	0f 8e 19 01 00
	00		 jle	 $L208475
  001e4	89 44 24 10	 mov	 DWORD PTR tv182[esp+36], eax
  001e8	eb 06 8d 9b 00
	00 00 00	 npad	 8
$L208473:

; 423  : 		{
; 424  : 			ar >> nCont;

  001f0	8b 46 08	 mov	 eax, DWORD PTR [esi+8]
  001f3	8b 56 0c	 mov	 edx, DWORD PTR [esi+12]
  001f6	8d 48 01	 lea	 ecx, DWORD PTR [eax+1]
  001f9	3b ca		 cmp	 ecx, edx
  001fb	77 07		 ja	 SHORT $L216760
  001fd	8a 18		 mov	 bl, BYTE PTR [eax]
  001ff	89 4e 08	 mov	 DWORD PTR [esi+8], ecx
  00202	eb 05		 jmp	 SHORT $L216761
$L216760:
  00204	32 db		 xor	 bl, bl
  00206	89 56 08	 mov	 DWORD PTR [esi+8], edx
$L216761:

; 425  : 			__TAXINFO* taxInfo = GetTaxInfo( nCont );

  00209	8d 54 24 28	 lea	 edx, DWORD PTR $T216842[esp+32]
  0020d	52		 push	 edx
  0020e	8d 44 24 1c	 lea	 eax, DWORD PTR $T216821[esp+40]
  00212	8d 7d 08	 lea	 edi, DWORD PTR [ebp+8]
  00215	50		 push	 eax
  00216	8b cf		 mov	 ecx, edi
  00218	88 5c 24 30	 mov	 BYTE PTR $T216842[esp+40], bl
  0021c	e8 00 00 00 00	 call	 ?find@?$_Tree@V?$_Tmap_traits@EPAU__TAXINFO@@U?$less@E@std@@V?$allocator@U?$pair@$$CBEPAU__TAXINFO@@@std@@@3@$0A@@std@@@std@@QAE?AViterator@12@ABE@Z ; std::_Tree<std::_Tmap_traits<unsigned char,__TAXINFO *,std::less<unsigned char>,std::allocator<std::pair<unsigned char const ,__TAXINFO *> >,0> >::find
  00221	8b 08		 mov	 ecx, DWORD PTR [eax]
  00223	3b 4d 0c	 cmp	 ecx, DWORD PTR [ebp+12]
  00226	74 18		 je	 SHORT $L216818
  00228	8d 54 24 28	 lea	 edx, DWORD PTR $T216842[esp+32]
  0022c	52		 push	 edx
  0022d	8d 44 24 20	 lea	 eax, DWORD PTR $T216823[esp+40]
  00231	50		 push	 eax
  00232	8b cf		 mov	 ecx, edi
  00234	e8 00 00 00 00	 call	 ?find@?$_Tree@V?$_Tmap_traits@EPAU__TAXINFO@@U?$less@E@std@@V?$allocator@U?$pair@$$CBEPAU__TAXINFO@@@std@@@3@$0A@@std@@@std@@QAE?AViterator@12@ABE@Z ; std::_Tree<std::_Tmap_traits<unsigned char,__TAXINFO *,std::less<unsigned char>,std::allocator<std::pair<unsigned char const ,__TAXINFO *> >,0> >::find
  00239	8b 08		 mov	 ecx, DWORD PTR [eax]
  0023b	8b 51 10	 mov	 edx, DWORD PTR [ecx+16]
  0023e	eb 13		 jmp	 SHORT $L216817
$L216818:
  00240	0f b6 d3	 movzx	 edx, bl
  00243	52		 push	 edx
  00244	68 00 00 00 00	 push	 OFFSET FLAT:??_C@_0CI@EGGDFMCC@CTax?3?3GetTaxInfo?$CI?$CJ?5?9?5?$MA?$NP?$LI?x?$LF?H?5?$LE?k?$LH?z@
  00249	e8 00 00 00 00	 call	 ?Error@@YAPBDPBDZZ	; Error
  0024e	83 c4 08	 add	 esp, 8
  00251	33 d2		 xor	 edx, edx
$L216817:

; 426  : 			ar >> taxInfo->dwId;

  00253	8b 46 08	 mov	 eax, DWORD PTR [esi+8]
  00256	8b 7e 0c	 mov	 edi, DWORD PTR [esi+12]
  00259	8d 48 04	 lea	 ecx, DWORD PTR [eax+4]
  0025c	3b cf		 cmp	 ecx, edi
  0025e	77 0a		 ja	 SHORT $L216845
  00260	8b 00		 mov	 eax, DWORD PTR [eax]
  00262	89 02		 mov	 DWORD PTR [edx], eax
  00264	83 46 08 04	 add	 DWORD PTR [esi+8], 4
  00268	eb 0c		 jmp	 SHORT $L216846
$L216845:
  0026a	c7 02 00 00 00
	00		 mov	 DWORD PTR [edx], 0
  00270	8b 4e 0c	 mov	 ecx, DWORD PTR [esi+12]
  00273	89 4e 08	 mov	 DWORD PTR [esi+8], ecx
$L216846:

; 427  : #ifdef __WORLDSERVER
; 428  : 			ar >> taxInfo->bSetTaxRate;
; 429  : 			ar >> taxInfo->dwNextId;
; 430  : #endif // __WORLDSERVER
; 431  : 			ar >> nSize2;

  00276	8b 46 08	 mov	 eax, DWORD PTR [esi+8]
  00279	8b 7e 0c	 mov	 edi, DWORD PTR [esi+12]
  0027c	8d 48 04	 lea	 ecx, DWORD PTR [eax+4]
  0027f	3b cf		 cmp	 ecx, edi
  00281	77 26		 ja	 SHORT $L216857
  00283	8b 00		 mov	 eax, DWORD PTR [eax]

; 432  : 			for( int j=0; j<nSize2; j++ )

  00285	85 c0		 test	 eax, eax
  00287	89 4e 08	 mov	 DWORD PTR [esi+8], ecx
  0028a	7e 67		 jle	 SHORT $L208474
  0028c	8d 5a 08	 lea	 ebx, DWORD PTR [edx+8]
  0028f	8b e8		 mov	 ebp, eax
$L208478:

; 433  : 			{
; 434  : 				ar >> nTaxKind;

  00291	8b 46 08	 mov	 eax, DWORD PTR [esi+8]
  00294	8b 7e 0c	 mov	 edi, DWORD PTR [esi+12]
  00297	8d 48 01	 lea	 ecx, DWORD PTR [eax+1]
  0029a	3b cf		 cmp	 ecx, edi
  0029c	77 10		 ja	 SHORT $L216862
  0029e	8a 10		 mov	 dl, BYTE PTR [eax]
  002a0	88 54 24 28	 mov	 BYTE PTR _nTaxKind$208471[esp+32], dl
  002a4	89 4e 08	 mov	 DWORD PTR [esi+8], ecx
  002a7	eb 0d		 jmp	 SHORT $L216863

; 427  : #ifdef __WORLDSERVER
; 428  : 			ar >> taxInfo->bSetTaxRate;
; 429  : 			ar >> taxInfo->dwNextId;
; 430  : #endif // __WORLDSERVER
; 431  : 			ar >> nSize2;

$L216857:
  002a9	89 7e 08	 mov	 DWORD PTR [esi+8], edi

; 432  : 			for( int j=0; j<nSize2; j++ )

  002ac	eb 45		 jmp	 SHORT $L208474

; 433  : 			{
; 434  : 				ar >> nTaxKind;

$L216862:
  002ae	c6 44 24 28 00	 mov	 BYTE PTR _nTaxKind$208471[esp+32], 0
  002b3	89 7e 08	 mov	 DWORD PTR [esi+8], edi
$L216863:

; 435  : 				__TAXDETAIL* taxDetail = taxInfo->mapTaxDetail.find( nTaxKind )->second;

  002b6	8d 44 24 28	 lea	 eax, DWORD PTR _nTaxKind$208471[esp+32]
  002ba	50		 push	 eax
  002bb	8d 4c 24 24	 lea	 ecx, DWORD PTR $T216100[esp+40]
  002bf	51		 push	 ecx
  002c0	8b cb		 mov	 ecx, ebx
  002c2	e8 00 00 00 00	 call	 ?find@?$_Tree@V?$_Tmap_traits@EPAU__TAXDETAIL@@U?$less@E@std@@V?$allocator@U?$pair@$$CBEPAU__TAXDETAIL@@@std@@@3@$0A@@std@@@std@@QAE?AViterator@12@ABE@Z ; std::_Tree<std::_Tmap_traits<unsigned char,__TAXDETAIL *,std::less<unsigned char>,std::allocator<std::pair<unsigned char const ,__TAXDETAIL *> >,0> >::find
  002c7	8b 10		 mov	 edx, DWORD PTR [eax]

; 436  : 			
; 437  : 				ar >> taxDetail->nTaxRate;

  002c9	8b 46 08	 mov	 eax, DWORD PTR [esi+8]
  002cc	8b 4a 10	 mov	 ecx, DWORD PTR [edx+16]
  002cf	8d 50 04	 lea	 edx, DWORD PTR [eax+4]
  002d2	3b d7		 cmp	 edx, edi
  002d4	77 0a		 ja	 SHORT $L216899
  002d6	8b 00		 mov	 eax, DWORD PTR [eax]
  002d8	89 01		 mov	 DWORD PTR [ecx], eax
  002da	83 46 08 04	 add	 DWORD PTR [esi+8], 4
  002de	eb 0c		 jmp	 SHORT $L208479
$L216899:
  002e0	c7 01 00 00 00
	00		 mov	 DWORD PTR [ecx], 0
  002e6	8b 4e 0c	 mov	 ecx, DWORD PTR [esi+12]
  002e9	89 4e 08	 mov	 DWORD PTR [esi+8], ecx
$L208479:

; 432  : 			for( int j=0; j<nSize2; j++ )

  002ec	4d		 dec	 ebp
  002ed	75 a2		 jne	 SHORT $L208478
  002ef	8b 6c 24 14	 mov	 ebp, DWORD PTR _this$[esp+36]
$L208474:

; 422  : 		for( int i=0; i<nSize; i++ )

  002f3	ff 4c 24 10	 dec	 DWORD PTR tv182[esp+36]
  002f7	0f 85 f3 fe ff
	ff		 jne	 $L208473
$L208475:
  002fd	5f		 pop	 edi
  002fe	5e		 pop	 esi
  002ff	5d		 pop	 ebp
  00300	5b		 pop	 ebx

; 438  : 			}
; 439  : 		}
; 440  : 	}
; 441  : }

  00301	83 c4 14	 add	 esp, 20			; 00000014H
  00304	c2 04 00	 ret	 4
?Serialize@CTax@@QAEXAAVCAr@@@Z ENDP			; CTax::Serialize
_TEXT	ENDS
PUBLIC	?AddTax@CTax@@QAEHEHE@Z				; CTax::AddTax
EXTRN	__ftol2:NEAR
; Function compile flags: /Ogty
;	COMDAT ?AddTax@CTax@@QAEHEHE@Z
_TEXT	SEGMENT
$T217149 = -28						; size = 1
_it$208490 = -24					; size = 4
_bUpdateToDB$ = -20					; size = 4
$T217142 = -16						; size = 4
$T217144 = -12						; size = 4
$T216925 = -8						; size = 4
$T216927 = -4						; size = 4
_nCont$ = 8						; size = 1
_nTax$ = 12						; size = 4
_nTaxKind$ = 16						; size = 1
?AddTax@CTax@@QAEHEHE@Z PROC NEAR			; CTax::AddTax, COMDAT
; _this$ = ecx

; 444  : {

  00000	83 ec 1c	 sub	 esp, 28			; 0000001cH
  00003	55		 push	 ebp
  00004	8b e9		 mov	 ebp, ecx
  00006	56		 push	 esi

; 445  : 	BOOL bUpdateToDB = FALSE;
; 446  : #ifdef __WORLDSERVER
; 447  : 	g_dpDBClient.SendAddTax( nCont, nTax, nTaxKind );
; 448  : #endif // __WORLDSERVER
; 449  : 
; 450  : #ifdef __DBSERVER
; 451  : 	for( TAXINFOMAP::iterator it=m_mapTaxInfo.begin(); it!=m_mapTaxInfo.end(); it++ )

  00007	8b 75 0c	 mov	 esi, DWORD PTR [ebp+12]
  0000a	8b 06		 mov	 eax, DWORD PTR [esi]
  0000c	33 c9		 xor	 ecx, ecx
  0000e	3b c6		 cmp	 eax, esi
  00010	89 4c 24 10	 mov	 DWORD PTR _bUpdateToDB$[esp+36], ecx
  00014	89 44 24 0c	 mov	 DWORD PTR _it$208490[esp+36], eax
  00018	0f 84 1e 01 00
	00		 je	 $L217198
  0001e	53		 push	 ebx
  0001f	57		 push	 edi
$L216966:

; 452  : 	{
; 453  : #if __VER >= 15 // __USING_CONTINENT_DATA
; 454  : 		if( it->first == CONT_ALL || it->first == nCont )

  00020	8a 40 0c	 mov	 al, BYTE PTR [eax+12]
  00023	3c ff		 cmp	 al, 255			; 000000ffH
  00025	74 0a		 je	 SHORT $L208498
  00027	3a 44 24 30	 cmp	 al, BYTE PTR _nCont$[esp+40]
  0002b	0f 85 d2 00 00
	00		 jne	 $L208495
$L208498:

; 455  : #else // __USING_CONTINENT_DATA
; 456  : 		if( it->first & nCont )
; 457  : #endif // __USING_CONTINENT_DATA
; 458  : 		{
; 459  : 			__TAXINFO* taxInfo = GetTaxInfo( it->first );

  00031	8a d8		 mov	 bl, al
  00033	8d 44 24 10	 lea	 eax, DWORD PTR $T217149[esp+44]
  00037	50		 push	 eax
  00038	8d 4c 24 20	 lea	 ecx, DWORD PTR $T217142[esp+48]
  0003c	8d 7d 08	 lea	 edi, DWORD PTR [ebp+8]
  0003f	51		 push	 ecx
  00040	8b cf		 mov	 ecx, edi
  00042	88 5c 24 18	 mov	 BYTE PTR $T217149[esp+52], bl
  00046	e8 00 00 00 00	 call	 ?find@?$_Tree@V?$_Tmap_traits@EPAU__TAXINFO@@U?$less@E@std@@V?$allocator@U?$pair@$$CBEPAU__TAXINFO@@@std@@@3@$0A@@std@@@std@@QAE?AViterator@12@ABE@Z ; std::_Tree<std::_Tmap_traits<unsigned char,__TAXINFO *,std::less<unsigned char>,std::allocator<std::pair<unsigned char const ,__TAXINFO *> >,0> >::find
  0004b	39 30		 cmp	 DWORD PTR [eax], esi
  0004d	0f 84 d6 00 00
	00		 je	 $L217139
  00053	8d 54 24 10	 lea	 edx, DWORD PTR $T217149[esp+44]
  00057	52		 push	 edx
  00058	8d 44 24 24	 lea	 eax, DWORD PTR $T217144[esp+48]
  0005c	50		 push	 eax
  0005d	8b cf		 mov	 ecx, edi
  0005f	e8 00 00 00 00	 call	 ?find@?$_Tree@V?$_Tmap_traits@EPAU__TAXINFO@@U?$less@E@std@@V?$allocator@U?$pair@$$CBEPAU__TAXINFO@@@std@@@3@$0A@@std@@@std@@QAE?AViterator@12@ABE@Z ; std::_Tree<std::_Tmap_traits<unsigned char,__TAXINFO *,std::less<unsigned char>,std::allocator<std::pair<unsigned char const ,__TAXINFO *> >,0> >::find
  00064	8b 08		 mov	 ecx, DWORD PTR [eax]
  00066	8b 71 10	 mov	 esi, DWORD PTR [ecx+16]

; 460  : 			if( !taxInfo || taxInfo->dwId == NULL_ID )

  00069	85 f6		 test	 esi, esi
  0006b	0f 84 92 00 00
	00		 je	 $L208495
  00071	83 3e ff	 cmp	 DWORD PTR [esi], -1
  00074	0f 84 89 00 00
	00		 je	 $L208495

; 461  : 				continue;
; 462  : 			if( taxInfo->mapTaxDetail.find( nTaxKind ) == taxInfo->mapTaxDetail.end() )

  0007a	8d 44 24 38	 lea	 eax, DWORD PTR _nTaxKind$[esp+40]
  0007e	50		 push	 eax
  0007f	8d 4c 24 28	 lea	 ecx, DWORD PTR $T216925[esp+48]
  00083	8d 7e 08	 lea	 edi, DWORD PTR [esi+8]
  00086	51		 push	 ecx
  00087	8b cf		 mov	 ecx, edi
  00089	e8 00 00 00 00	 call	 ?find@?$_Tree@V?$_Tmap_traits@EPAU__TAXDETAIL@@U?$less@E@std@@V?$allocator@U?$pair@$$CBEPAU__TAXDETAIL@@@std@@@3@$0A@@std@@@std@@QAE?AViterator@12@ABE@Z ; std::_Tree<std::_Tmap_traits<unsigned char,__TAXDETAIL *,std::less<unsigned char>,std::allocator<std::pair<unsigned char const ,__TAXDETAIL *> >,0> >::find
  0008e	8b 10		 mov	 edx, DWORD PTR [eax]
  00090	3b 56 0c	 cmp	 edx, DWORD PTR [esi+12]
  00093	74 6e		 je	 SHORT $L208495

; 463  : 				continue;
; 464  : 
; 465  : 			__TAXDETAIL* taxDetail = taxInfo->mapTaxDetail.find( nTaxKind )->second;

  00095	8d 44 24 38	 lea	 eax, DWORD PTR _nTaxKind$[esp+40]
  00099	50		 push	 eax
  0009a	8d 4c 24 2c	 lea	 ecx, DWORD PTR $T216927[esp+48]
  0009e	51		 push	 ecx
  0009f	8b cf		 mov	 ecx, edi
  000a1	e8 00 00 00 00	 call	 ?find@?$_Tree@V?$_Tmap_traits@EPAU__TAXDETAIL@@U?$less@E@std@@V?$allocator@U?$pair@$$CBEPAU__TAXDETAIL@@@std@@@3@$0A@@std@@@std@@QAE?AViterator@12@ABE@Z ; std::_Tree<std::_Tmap_traits<unsigned char,__TAXDETAIL *,std::less<unsigned char>,std::allocator<std::pair<unsigned char const ,__TAXDETAIL *> >,0> >::find
  000a6	8b 10		 mov	 edx, DWORD PTR [eax]
  000a8	8b 72 10	 mov	 esi, DWORD PTR [edx+16]

; 466  : 			if( taxDetail )

  000ab	85 f6		 test	 esi, esi
  000ad	74 54		 je	 SHORT $L208495

; 467  : 			{
; 468  : 				taxDetail->nTaxCount++;
; 469  : 				taxDetail->nTaxGold += static_cast<int>( static_cast<float>(nTax) * GetEarningRate( nCont, nTaxKind ) );

  000af	8b 44 24 38	 mov	 eax, DWORD PTR _nTaxKind$[esp+40]
  000b3	8b 56 04	 mov	 edx, DWORD PTR [esi+4]
  000b6	8b 4c 24 30	 mov	 ecx, DWORD PTR _nCont$[esp+40]
  000ba	50		 push	 eax
  000bb	42		 inc	 edx
  000bc	51		 push	 ecx
  000bd	8b cd		 mov	 ecx, ebp
  000bf	89 56 04	 mov	 DWORD PTR [esi+4], edx
  000c2	8b fa		 mov	 edi, edx
  000c4	e8 00 00 00 00	 call	 ?GetEarningRate@CTax@@QAEMEE@Z ; CTax::GetEarningRate
  000c9	da 4c 24 34	 fimul	 DWORD PTR _nTax$[esp+40]
  000cd	e8 00 00 00 00	 call	 __ftol2
  000d2	8b 56 08	 mov	 edx, DWORD PTR [esi+8]
  000d5	03 d0		 add	 edx, eax
  000d7	8b c2		 mov	 eax, edx

; 470  : 				int nTaxTemp = taxDetail->nTaxGold;
; 471  : 				if( nTaxTemp >= 100000000 )

  000d9	3d 00 e1 f5 05	 cmp	 eax, 100000000		; 05f5e100H
  000de	89 56 08	 mov	 DWORD PTR [esi+8], edx
  000e1	7c 0e		 jl	 SHORT $L208511

; 472  : 				{
; 473  : 					taxDetail->nTaxPerin += nTaxTemp/PERIN_VALUE;

  000e3	99		 cdq
  000e4	b9 00 e1 f5 05	 mov	 ecx, 100000000		; 05f5e100H
  000e9	f7 f9		 idiv	 ecx
  000eb	01 46 0c	 add	 DWORD PTR [esi+12], eax

; 474  : 					taxDetail->nTaxGold = nTaxTemp%PERIN_VALUE;

  000ee	89 56 08	 mov	 DWORD PTR [esi+8], edx
$L208511:

; 475  : 				}
; 476  : 				// m_nDBSaveCount   DB  .
; 477  : 				if( (taxDetail->nTaxCount % m_nDBSaveCount) == 0 )

  000f1	8b c7		 mov	 eax, edi
  000f3	99		 cdq
  000f4	f7 7d 24	 idiv	 DWORD PTR [ebp+36]
  000f7	85 d2		 test	 edx, edx
  000f9	75 08		 jne	 SHORT $L208495

; 478  : 					bUpdateToDB = TRUE;

  000fb	c7 44 24 18 01
	00 00 00	 mov	 DWORD PTR _bUpdateToDB$[esp+44], 1
$L208495:

; 445  : 	BOOL bUpdateToDB = FALSE;
; 446  : #ifdef __WORLDSERVER
; 447  : 	g_dpDBClient.SendAddTax( nCont, nTax, nTaxKind );
; 448  : #endif // __WORLDSERVER
; 449  : 
; 450  : #ifdef __DBSERVER
; 451  : 	for( TAXINFOMAP::iterator it=m_mapTaxInfo.begin(); it!=m_mapTaxInfo.end(); it++ )

  00103	8d 4c 24 14	 lea	 ecx, DWORD PTR _it$208490[esp+44]
  00107	e8 00 00 00 00	 call	 ?_Inc@const_iterator@?$_Tree@V?$_Tmap_traits@EPAU__TAXINFO@@U?$less@E@std@@V?$allocator@U?$pair@$$CBEPAU__TAXINFO@@@std@@@3@$0A@@std@@@std@@QAEXXZ ; std::_Tree<std::_Tmap_traits<unsigned char,__TAXINFO *,std::less<unsigned char>,std::allocator<std::pair<unsigned char const ,__TAXINFO *> >,0> >::const_iterator::_Inc
  0010c	8b 75 0c	 mov	 esi, DWORD PTR [ebp+12]
  0010f	8b 44 24 14	 mov	 eax, DWORD PTR _it$208490[esp+44]
  00113	3b c6		 cmp	 eax, esi
  00115	0f 85 05 ff ff
	ff		 jne	 $L216966

; 479  : 			}
; 480  : 		}
; 481  : 	}
; 482  : #endif // __DBSERVER
; 483  : 	return bUpdateToDB;

  0011b	8b 44 24 18	 mov	 eax, DWORD PTR _bUpdateToDB$[esp+44]
  0011f	5f		 pop	 edi
  00120	5b		 pop	 ebx
  00121	5e		 pop	 esi
  00122	5d		 pop	 ebp

; 484  : }

  00123	83 c4 1c	 add	 esp, 28			; 0000001cH
  00126	c2 0c 00	 ret	 12			; 0000000cH

; 455  : #else // __USING_CONTINENT_DATA
; 456  : 		if( it->first & nCont )
; 457  : #endif // __USING_CONTINENT_DATA
; 458  : 		{
; 459  : 			__TAXINFO* taxInfo = GetTaxInfo( it->first );

$L217139:
  00129	0f b6 d3	 movzx	 edx, bl
  0012c	52		 push	 edx
  0012d	68 00 00 00 00	 push	 OFFSET FLAT:??_C@_0CI@EGGDFMCC@CTax?3?3GetTaxInfo?$CI?$CJ?5?9?5?$MA?$NP?$LI?x?$LF?H?5?$LE?k?$LH?z@
  00132	e8 00 00 00 00	 call	 ?Error@@YAPBDPBDZZ	; Error
  00137	83 c4 08	 add	 esp, 8

; 460  : 			if( !taxInfo || taxInfo->dwId == NULL_ID )

  0013a	eb c7		 jmp	 SHORT $L208495
$L217198:
  0013c	5e		 pop	 esi

; 479  : 			}
; 480  : 		}
; 481  : 	}
; 482  : #endif // __DBSERVER
; 483  : 	return bUpdateToDB;

  0013d	8b c1		 mov	 eax, ecx
  0013f	5d		 pop	 ebp

; 484  : }

  00140	83 c4 1c	 add	 esp, 28			; 0000001cH
  00143	c2 0c 00	 ret	 12			; 0000000cH
?AddTax@CTax@@QAEHEHE@Z ENDP				; CTax::AddTax
_TEXT	ENDS
PUBLIC	??0?$basic_string@DU?$char_traits@D@std@@V?$allocator@D@2@@std@@QAE@ABV01@@Z ; std::basic_string<char,std::char_traits<char>,std::allocator<char> >::basic_string<char,std::char_traits<char>,std::allocator<char> >
; Function compile flags: /Ogty
; File c:\program files\microsoft visual studio .net 2003\vc7\include\xstring
;	COMDAT ??0?$basic_string@DU?$char_traits@D@std@@V?$allocator@D@2@@std@@QAE@ABV01@@Z
_TEXT	SEGMENT
__Right$ = 8						; size = 4
??0?$basic_string@DU?$char_traits@D@std@@V?$allocator@D@2@@std@@QAE@ABV01@@Z PROC NEAR ; std::basic_string<char,std::char_traits<char>,std::allocator<char> >::basic_string<char,std::char_traits<char>,std::allocator<char> >, COMDAT
; _this$ = ecx

; 323  : 		{	// construct by copying _Right

  00000	56		 push	 esi

; 324  : 		_Tidy();

  00001	33 c0		 xor	 eax, eax
  00003	8b f1		 mov	 esi, ecx

; 325  : 		assign(_Right, 0, npos);

  00005	6a ff		 push	 -1
  00007	89 46 14	 mov	 DWORD PTR [esi+20], eax
  0000a	c7 46 18 0f 00
	00 00		 mov	 DWORD PTR [esi+24], 15	; 0000000fH
  00011	50		 push	 eax
  00012	88 46 04	 mov	 BYTE PTR [esi+4], al
  00015	8b 44 24 10	 mov	 eax, DWORD PTR __Right$[esp+8]
  00019	50		 push	 eax
  0001a	e8 00 00 00 00	 call	 ?assign@?$basic_string@DU?$char_traits@D@std@@V?$allocator@D@2@@std@@QAEAAV12@ABV12@II@Z ; std::basic_string<char,std::char_traits<char>,std::allocator<char> >::assign

; 326  : 		}

  0001f	8b c6		 mov	 eax, esi
  00021	5e		 pop	 esi
  00022	c2 04 00	 ret	 4
??0?$basic_string@DU?$char_traits@D@std@@V?$allocator@D@2@@std@@QAE@ABV01@@Z ENDP ; std::basic_string<char,std::char_traits<char>,std::allocator<char> >::basic_string<char,std::char_traits<char>,std::allocator<char> >
_TEXT	ENDS
PUBLIC	?assign@?$basic_string@DU?$char_traits@D@std@@V?$allocator@D@2@@std@@QAEAAV12@PBD@Z ; std::basic_string<char,std::char_traits<char>,std::allocator<char> >::assign
; Function compile flags: /Ogty
;	COMDAT ?assign@?$basic_string@DU?$char_traits@D@std@@V?$allocator@D@2@@std@@QAEAAV12@PBD@Z
_TEXT	SEGMENT
__Ptr$ = 8						; size = 4
?assign@?$basic_string@DU?$char_traits@D@std@@V?$allocator@D@2@@std@@QAEAAV12@PBD@Z PROC NEAR ; std::basic_string<char,std::char_traits<char>,std::allocator<char> >::assign, COMDAT
; _this$ = ecx

; 621  : 		{	// assign [_Ptr, <null>)

  00000	56		 push	 esi

; 622  : 		return (assign(_Ptr, _Traits::length(_Ptr)));

  00001	8b 74 24 08	 mov	 esi, DWORD PTR __Ptr$[esp]
  00005	8b c6		 mov	 eax, esi
  00007	57		 push	 edi
  00008	8d 78 01	 lea	 edi, DWORD PTR [eax+1]
  0000b	eb 03 8d 49 00	 npad	 5
$L217271:
  00010	8a 10		 mov	 dl, BYTE PTR [eax]
  00012	40		 inc	 eax
  00013	84 d2		 test	 dl, dl
  00015	75 f9		 jne	 SHORT $L217271
  00017	2b c7		 sub	 eax, edi
  00019	50		 push	 eax
  0001a	56		 push	 esi
  0001b	e8 00 00 00 00	 call	 ?assign@?$basic_string@DU?$char_traits@D@std@@V?$allocator@D@2@@std@@QAEAAV12@PBDI@Z ; std::basic_string<char,std::char_traits<char>,std::allocator<char> >::assign
  00020	5f		 pop	 edi
  00021	5e		 pop	 esi

; 623  : 		}

  00022	c2 04 00	 ret	 4
?assign@?$basic_string@DU?$char_traits@D@std@@V?$allocator@D@2@@std@@QAEAAV12@PBD@Z ENDP ; std::basic_string<char,std::char_traits<char>,std::allocator<char> >::assign
_TEXT	ENDS
PUBLIC	??0logic_error@std@@QAE@ABV?$basic_string@DU?$char_traits@D@std@@V?$allocator@D@2@@1@@Z ; std::logic_error::logic_error
EXTRN	??0exception@@QAE@XZ:NEAR			; exception::exception
;	COMDAT xdata$x
; File c:\program files\microsoft visual studio .net 2003\vc7\include\iosfwd
xdata$x	SEGMENT
$T217374 DD	0ffffffffH
	DD	FLAT:$L217274
$T217372 DD	019930520H
	DD	01H
	DD	FLAT:$T217374
	DD	2 DUP(00H)
	DD	2 DUP(00H)
; Function compile flags: /Ogty
; File c:\program files\microsoft visual studio .net 2003\vc7\include\stdexcept
xdata$x	ENDS
;	COMDAT ??0logic_error@std@@QAE@ABV?$basic_string@DU?$char_traits@D@std@@V?$allocator@D@2@@1@@Z
_TEXT	SEGMENT
_this$ = -16						; size = 4
__$EHRec$ = -12						; size = 12
__Message$ = 8						; size = 4
??0logic_error@std@@QAE@ABV?$basic_string@DU?$char_traits@D@std@@V?$allocator@D@2@@1@@Z PROC NEAR ; std::logic_error::logic_error, COMDAT
; _this$ = ecx

; 19   : 		{	// construct from message string

  00000	6a ff		 push	 -1
  00002	68 00 00 00 00	 push	 __ehhandler$??0logic_error@std@@QAE@ABV?$basic_string@DU?$char_traits@D@std@@V?$allocator@D@2@@1@@Z
  00007	64 a1 00 00 00
	00		 mov	 eax, DWORD PTR fs:__except_list
  0000d	50		 push	 eax
  0000e	64 89 25 00 00
	00 00		 mov	 DWORD PTR fs:__except_list, esp
  00015	51		 push	 ecx
  00016	56		 push	 esi
  00017	8b f1		 mov	 esi, ecx
  00019	89 74 24 04	 mov	 DWORD PTR _this$[esp+20], esi
  0001d	e8 00 00 00 00	 call	 ??0exception@@QAE@XZ	; exception::exception
  00022	33 c0		 xor	 eax, eax
  00024	8d 4e 0c	 lea	 ecx, DWORD PTR [esi+12]
  00027	c7 06 00 00 00
	00		 mov	 DWORD PTR [esi], OFFSET FLAT:??_7logic_error@std@@6B@
  0002d	6a ff		 push	 -1
  0002f	89 41 14	 mov	 DWORD PTR [ecx+20], eax
  00032	c7 41 18 0f 00
	00 00		 mov	 DWORD PTR [ecx+24], 15	; 0000000fH
  00039	50		 push	 eax
  0003a	89 44 24 18	 mov	 DWORD PTR __$EHRec$[esp+36], eax
  0003e	88 41 04	 mov	 BYTE PTR [ecx+4], al
  00041	8b 44 24 20	 mov	 eax, DWORD PTR __Message$[esp+24]
  00045	50		 push	 eax
  00046	e8 00 00 00 00	 call	 ?assign@?$basic_string@DU?$char_traits@D@std@@V?$allocator@D@2@@std@@QAEAAV12@ABV12@II@Z ; std::basic_string<char,std::char_traits<char>,std::allocator<char> >::assign

; 20   : 		}

  0004b	8b 4c 24 08	 mov	 ecx, DWORD PTR __$EHRec$[esp+20]
  0004f	8b c6		 mov	 eax, esi
  00051	5e		 pop	 esi
  00052	64 89 0d 00 00
	00 00		 mov	 DWORD PTR fs:__except_list, ecx
  00059	83 c4 10	 add	 esp, 16			; 00000010H
  0005c	c2 04 00	 ret	 4
_TEXT	ENDS
;	COMDAT text$x
text$x	SEGMENT
$L217274:
  00000	8b 4d f0	 mov	 ecx, DWORD PTR _this$[ebp]
  00003	e9 00 00 00 00	 jmp	 ??1exception@@UAE@XZ	; exception::~exception
__ehhandler$??0logic_error@std@@QAE@ABV?$basic_string@DU?$char_traits@D@std@@V?$allocator@D@2@@1@@Z:
  00008	b8 00 00 00 00	 mov	 eax, OFFSET FLAT:$T217372
  0000d	e9 00 00 00 00	 jmp	 ___CxxFrameHandler
text$x	ENDS
??0logic_error@std@@QAE@ABV?$basic_string@DU?$char_traits@D@std@@V?$allocator@D@2@@1@@Z ENDP ; std::logic_error::logic_error
PUBLIC	??0length_error@std@@QAE@ABV?$basic_string@DU?$char_traits@D@std@@V?$allocator@D@2@@1@@Z ; std::length_error::length_error
PUBLIC	??_7length_error@std@@6B@			; std::length_error::`vftable'
PUBLIC	??_Glength_error@std@@UAEPAXI@Z			; std::length_error::`scalar deleting destructor'
EXTRN	??_Elength_error@std@@UAEPAXI@Z:NEAR		; std::length_error::`vector deleting destructor'
;	COMDAT ??_7length_error@std@@6B@
CONST	SEGMENT
??_7length_error@std@@6B@ DD FLAT:??_Elength_error@std@@UAEPAXI@Z ; std::length_error::`vftable'
	DD	FLAT:?what@logic_error@std@@UBEPBDXZ
; Function compile flags: /Ogty
CONST	ENDS
;	COMDAT ??0length_error@std@@QAE@ABV?$basic_string@DU?$char_traits@D@std@@V?$allocator@D@2@@1@@Z
_TEXT	SEGMENT
__Message$ = 8						; size = 4
??0length_error@std@@QAE@ABV?$basic_string@DU?$char_traits@D@std@@V?$allocator@D@2@@1@@Z PROC NEAR ; std::length_error::length_error, COMDAT
; _this$ = ecx

; 95   : 		{	// construct from message string

  00000	8b 44 24 04	 mov	 eax, DWORD PTR __Message$[esp-4]
  00004	56		 push	 esi
  00005	50		 push	 eax
  00006	8b f1		 mov	 esi, ecx
  00008	e8 00 00 00 00	 call	 ??0logic_error@std@@QAE@ABV?$basic_string@DU?$char_traits@D@std@@V?$allocator@D@2@@1@@Z ; std::logic_error::logic_error
  0000d	c7 06 00 00 00
	00		 mov	 DWORD PTR [esi], OFFSET FLAT:??_7length_error@std@@6B@

; 96   : 		}

  00013	8b c6		 mov	 eax, esi
  00015	5e		 pop	 esi
  00016	c2 04 00	 ret	 4
??0length_error@std@@QAE@ABV?$basic_string@DU?$char_traits@D@std@@V?$allocator@D@2@@1@@Z ENDP ; std::length_error::length_error
_TEXT	ENDS
PUBLIC	??1length_error@std@@UAE@XZ			; std::length_error::~length_error
; Function compile flags: /Ogty
;	COMDAT ??_Glength_error@std@@UAEPAXI@Z
_TEXT	SEGMENT
___flags$ = 8						; size = 4
??_Glength_error@std@@UAEPAXI@Z PROC NEAR		; std::length_error::`scalar deleting destructor', COMDAT
; _this$ = ecx
  00000	56		 push	 esi
  00001	8b f1		 mov	 esi, ecx
  00003	e8 00 00 00 00	 call	 ??1length_error@std@@UAE@XZ ; std::length_error::~length_error
  00008	f6 44 24 08 01	 test	 BYTE PTR ___flags$[esp], 1
  0000d	74 09		 je	 SHORT $L217382
  0000f	56		 push	 esi
  00010	e8 00 00 00 00	 call	 ??3@YAXPAX@Z		; operator delete
  00015	83 c4 04	 add	 esp, 4
$L217382:
  00018	8b c6		 mov	 eax, esi
  0001a	5e		 pop	 esi
  0001b	c2 04 00	 ret	 4
??_Glength_error@std@@UAEPAXI@Z ENDP			; std::length_error::`scalar deleting destructor'
; Function compile flags: /Ogty
_TEXT	ENDS
;	COMDAT ??1length_error@std@@UAE@XZ
_TEXT	SEGMENT
??1length_error@std@@UAE@XZ PROC NEAR			; std::length_error::~length_error, COMDAT
; _this$ = ecx

; 99   : 		{}	// destroy the object

  00000	56		 push	 esi
  00001	8b f1		 mov	 esi, ecx
  00003	c7 06 00 00 00
	00		 mov	 DWORD PTR [esi], OFFSET FLAT:??_7logic_error@std@@6B@
  00009	83 7e 24 10	 cmp	 DWORD PTR [esi+36], 16	; 00000010H
  0000d	72 0c		 jb	 SHORT $L217476
  0000f	8b 46 10	 mov	 eax, DWORD PTR [esi+16]
  00012	50		 push	 eax
  00013	e8 00 00 00 00	 call	 ??3@YAXPAX@Z		; operator delete
  00018	83 c4 04	 add	 esp, 4
$L217476:
  0001b	33 c0		 xor	 eax, eax
  0001d	c7 46 24 0f 00
	00 00		 mov	 DWORD PTR [esi+36], 15	; 0000000fH
  00024	89 46 20	 mov	 DWORD PTR [esi+32], eax
  00027	88 46 10	 mov	 BYTE PTR [esi+16], al
  0002a	8b ce		 mov	 ecx, esi
  0002c	5e		 pop	 esi
  0002d	e9 00 00 00 00	 jmp	 ??1exception@@UAE@XZ	; exception::~exception
??1length_error@std@@UAE@XZ ENDP			; std::length_error::~length_error
_TEXT	ENDS
PUBLIC	??0out_of_range@std@@QAE@ABV?$basic_string@DU?$char_traits@D@std@@V?$allocator@D@2@@1@@Z ; std::out_of_range::out_of_range
PUBLIC	??_7out_of_range@std@@6B@			; std::out_of_range::`vftable'
PUBLIC	??_Gout_of_range@std@@UAEPAXI@Z			; std::out_of_range::`scalar deleting destructor'
EXTRN	??_Eout_of_range@std@@UAEPAXI@Z:NEAR		; std::out_of_range::`vector deleting destructor'
;	COMDAT ??_7out_of_range@std@@6B@
CONST	SEGMENT
??_7out_of_range@std@@6B@ DD FLAT:??_Eout_of_range@std@@UAEPAXI@Z ; std::out_of_range::`vftable'
	DD	FLAT:?what@logic_error@std@@UBEPBDXZ
; Function compile flags: /Ogty
CONST	ENDS
;	COMDAT ??0out_of_range@std@@QAE@ABV?$basic_string@DU?$char_traits@D@std@@V?$allocator@D@2@@1@@Z
_TEXT	SEGMENT
__Message$ = 8						; size = 4
??0out_of_range@std@@QAE@ABV?$basic_string@DU?$char_traits@D@std@@V?$allocator@D@2@@1@@Z PROC NEAR ; std::out_of_range::out_of_range, COMDAT
; _this$ = ecx

; 118  : 		{	// construct from message string

  00000	8b 44 24 04	 mov	 eax, DWORD PTR __Message$[esp-4]
  00004	56		 push	 esi
  00005	50		 push	 eax
  00006	8b f1		 mov	 esi, ecx
  00008	e8 00 00 00 00	 call	 ??0logic_error@std@@QAE@ABV?$basic_string@DU?$char_traits@D@std@@V?$allocator@D@2@@1@@Z ; std::logic_error::logic_error
  0000d	c7 06 00 00 00
	00		 mov	 DWORD PTR [esi], OFFSET FLAT:??_7out_of_range@std@@6B@

; 119  : 		}

  00013	8b c6		 mov	 eax, esi
  00015	5e		 pop	 esi
  00016	c2 04 00	 ret	 4
??0out_of_range@std@@QAE@ABV?$basic_string@DU?$char_traits@D@std@@V?$allocator@D@2@@1@@Z ENDP ; std::out_of_range::out_of_range
_TEXT	ENDS
PUBLIC	??1out_of_range@std@@UAE@XZ			; std::out_of_range::~out_of_range
; Function compile flags: /Ogty
;	COMDAT ??_Gout_of_range@std@@UAEPAXI@Z
_TEXT	SEGMENT
___flags$ = 8						; size = 4
??_Gout_of_range@std@@UAEPAXI@Z PROC NEAR		; std::out_of_range::`scalar deleting destructor', COMDAT
; _this$ = ecx
  00000	56		 push	 esi
  00001	8b f1		 mov	 esi, ecx
  00003	e8 00 00 00 00	 call	 ??1out_of_range@std@@UAE@XZ ; std::out_of_range::~out_of_range
  00008	f6 44 24 08 01	 test	 BYTE PTR ___flags$[esp], 1
  0000d	74 09		 je	 SHORT $L217493
  0000f	56		 push	 esi
  00010	e8 00 00 00 00	 call	 ??3@YAXPAX@Z		; operator delete
  00015	83 c4 04	 add	 esp, 4
$L217493:
  00018	8b c6		 mov	 eax, esi
  0001a	5e		 pop	 esi
  0001b	c2 04 00	 ret	 4
??_Gout_of_range@std@@UAEPAXI@Z ENDP			; std::out_of_range::`scalar deleting destructor'
; Function compile flags: /Ogty
_TEXT	ENDS
;	COMDAT ??1out_of_range@std@@UAE@XZ
_TEXT	SEGMENT
??1out_of_range@std@@UAE@XZ PROC NEAR			; std::out_of_range::~out_of_range, COMDAT
; _this$ = ecx

; 122  : 		{}	// destroy the object

  00000	56		 push	 esi
  00001	8b f1		 mov	 esi, ecx
  00003	c7 06 00 00 00
	00		 mov	 DWORD PTR [esi], OFFSET FLAT:??_7logic_error@std@@6B@
  00009	83 7e 24 10	 cmp	 DWORD PTR [esi+36], 16	; 00000010H
  0000d	72 0c		 jb	 SHORT $L217587
  0000f	8b 46 10	 mov	 eax, DWORD PTR [esi+16]
  00012	50		 push	 eax
  00013	e8 00 00 00 00	 call	 ??3@YAXPAX@Z		; operator delete
  00018	83 c4 04	 add	 esp, 4
$L217587:
  0001b	33 c0		 xor	 eax, eax
  0001d	c7 46 24 0f 00
	00 00		 mov	 DWORD PTR [esi+36], 15	; 0000000fH
  00024	89 46 20	 mov	 DWORD PTR [esi+32], eax
  00027	88 46 10	 mov	 BYTE PTR [esi+16], al
  0002a	8b ce		 mov	 ecx, esi
  0002c	5e		 pop	 esi
  0002d	e9 00 00 00 00	 jmp	 ??1exception@@UAE@XZ	; exception::~exception
??1out_of_range@std@@UAE@XZ ENDP			; std::out_of_range::~out_of_range
_TEXT	ENDS
PUBLIC	??0?$basic_string@DU?$char_traits@D@std@@V?$allocator@D@2@@std@@QAE@PBD@Z ; std::basic_string<char,std::char_traits<char>,std::allocator<char> >::basic_string<char,std::char_traits<char>,std::allocator<char> >
; Function compile flags: /Ogty
; File c:\program files\microsoft visual studio .net 2003\vc7\include\xstring
;	COMDAT ??0?$basic_string@DU?$char_traits@D@std@@V?$allocator@D@2@@std@@QAE@PBD@Z
_TEXT	SEGMENT
__Ptr$ = 8						; size = 4
??0?$basic_string@DU?$char_traits@D@std@@V?$allocator@D@2@@std@@QAE@PBD@Z PROC NEAR ; std::basic_string<char,std::char_traits<char>,std::allocator<char> >::basic_string<char,std::char_traits<char>,std::allocator<char> >, COMDAT
; _this$ = ecx

; 361  : 		_Tidy();
; 362  : 		assign(_Ptr);

  00000	8b 54 24 04	 mov	 edx, DWORD PTR __Ptr$[esp-4]
  00004	56		 push	 esi
  00005	8b f1		 mov	 esi, ecx
  00007	8b c2		 mov	 eax, edx
  00009	57		 push	 edi
  0000a	c7 46 18 0f 00
	00 00		 mov	 DWORD PTR [esi+24], 15	; 0000000fH
  00011	c7 46 14 00 00
	00 00		 mov	 DWORD PTR [esi+20], 0
  00018	c6 46 04 00	 mov	 BYTE PTR [esi+4], 0
  0001c	8d 78 01	 lea	 edi, DWORD PTR [eax+1]
  0001f	90		 npad	 1
$L217673:
  00020	8a 08		 mov	 cl, BYTE PTR [eax]
  00022	40		 inc	 eax
  00023	84 c9		 test	 cl, cl
  00025	75 f9		 jne	 SHORT $L217673
  00027	2b c7		 sub	 eax, edi
  00029	50		 push	 eax
  0002a	52		 push	 edx
  0002b	8b ce		 mov	 ecx, esi
  0002d	e8 00 00 00 00	 call	 ?assign@?$basic_string@DU?$char_traits@D@std@@V?$allocator@D@2@@std@@QAEAAV12@PBDI@Z ; std::basic_string<char,std::char_traits<char>,std::allocator<char> >::assign
  00032	5f		 pop	 edi

; 363  : 		}

  00033	8b c6		 mov	 eax, esi
  00035	5e		 pop	 esi
  00036	c2 04 00	 ret	 4
??0?$basic_string@DU?$char_traits@D@std@@V?$allocator@D@2@@std@@QAE@PBD@Z ENDP ; std::basic_string<char,std::char_traits<char>,std::allocator<char> >::basic_string<char,std::char_traits<char>,std::allocator<char> >
_TEXT	ENDS
PUBLIC	??4?$basic_string@DU?$char_traits@D@std@@V?$allocator@D@2@@std@@QAEAAV01@PBD@Z ; std::basic_string<char,std::char_traits<char>,std::allocator<char> >::operator=
; Function compile flags: /Ogty
;	COMDAT ??4?$basic_string@DU?$char_traits@D@std@@V?$allocator@D@2@@std@@QAEAAV01@PBD@Z
_TEXT	SEGMENT
__Ptr$ = 8						; size = 4
??4?$basic_string@DU?$char_traits@D@std@@V?$allocator@D@2@@std@@QAEAAV01@PBD@Z PROC NEAR ; std::basic_string<char,std::char_traits<char>,std::allocator<char> >::operator=, COMDAT
; _this$ = ecx

; 471  : 		{	// assign [_Ptr, <null>)

  00000	56		 push	 esi

; 472  : 		return (assign(_Ptr));

  00001	8b 74 24 08	 mov	 esi, DWORD PTR __Ptr$[esp]
  00005	8b c6		 mov	 eax, esi
  00007	57		 push	 edi
  00008	8d 78 01	 lea	 edi, DWORD PTR [eax+1]
  0000b	eb 03 8d 49 00	 npad	 5
$L217684:
  00010	8a 10		 mov	 dl, BYTE PTR [eax]
  00012	40		 inc	 eax
  00013	84 d2		 test	 dl, dl
  00015	75 f9		 jne	 SHORT $L217684
  00017	2b c7		 sub	 eax, edi
  00019	50		 push	 eax
  0001a	56		 push	 esi
  0001b	e8 00 00 00 00	 call	 ?assign@?$basic_string@DU?$char_traits@D@std@@V?$allocator@D@2@@std@@QAEAAV12@PBDI@Z ; std::basic_string<char,std::char_traits<char>,std::allocator<char> >::assign
  00020	5f		 pop	 edi
  00021	5e		 pop	 esi

; 473  : 		}

  00022	c2 04 00	 ret	 4
??4?$basic_string@DU?$char_traits@D@std@@V?$allocator@D@2@@std@@QAEAAV01@PBD@Z ENDP ; std::basic_string<char,std::char_traits<char>,std::allocator<char> >::operator=
_TEXT	ENDS
PUBLIC	??_R0?AVlogic_error@std@@@8			; std::logic_error `RTTI Type Descriptor'
PUBLIC	__CT??_R0?AVlogic_error@std@@@8??0logic_error@std@@QAE@ABV01@@Z40
PUBLIC	??_R0?AVexception@@@8				; exception `RTTI Type Descriptor'
PUBLIC	__CT??_R0?AVexception@@@8??0exception@@QAE@ABV0@@Z12
PUBLIC	??0logic_error@std@@QAE@ABV01@@Z		; std::logic_error::logic_error
PUBLIC	??0length_error@std@@QAE@ABV01@@Z		; std::length_error::length_error
PUBLIC	__TI3?AVlength_error@std@@
PUBLIC	__CTA3?AVlength_error@std@@
PUBLIC	??_R0?AVlength_error@std@@@8			; std::length_error `RTTI Type Descriptor'
PUBLIC	__CT??_R0?AVlength_error@std@@@8??0length_error@std@@QAE@ABV01@@Z40
PUBLIC	??_C@_0BD@OLBABOEK@vector?$DMT?$DO?5too?5long?$AA@ ; `string'
PUBLIC	?_Xlen@?$vector@KV?$allocator@K@std@@@std@@IBEXXZ ; std::vector<unsigned long,std::allocator<unsigned long> >::_Xlen
EXTRN	??0exception@@QAE@ABV0@@Z:NEAR			; exception::exception
EXTRN	??_7type_info@@6B@:DWORD			; type_info::`vftable'
;	COMDAT xdata$x
; File c:\program files\microsoft visual studio .net 2003\vc7\include\stdexcept
xdata$x	SEGMENT
$T217804 DD	0ffffffffH
	DD	FLAT:$L217689
$T217801 DD	019930520H
	DD	01H
	DD	FLAT:$T217804
	DD	2 DUP(00H)
	DD	2 DUP(00H)
xdata$x	ENDS
;	COMDAT ??_C@_0BD@OLBABOEK@vector?$DMT?$DO?5too?5long?$AA@
CONST	SEGMENT
??_C@_0BD@OLBABOEK@vector?$DMT?$DO?5too?5long?$AA@ DB 'vector<T> too long'
	DB	00H						; `string'
CONST	ENDS
;	COMDAT __TI3?AVlength_error@std@@
xdata$x	SEGMENT
__TI3?AVlength_error@std@@ DD 00H
	DD	FLAT:??1length_error@std@@UAE@XZ
	DD	00H
	DD	FLAT:__CTA3?AVlength_error@std@@
xdata$x	ENDS
;	COMDAT __CTA3?AVlength_error@std@@
xdata$x	SEGMENT
__CTA3?AVlength_error@std@@ DD 03H
	DD	FLAT:__CT??_R0?AVlength_error@std@@@8??0length_error@std@@QAE@ABV01@@Z40
	DD	FLAT:__CT??_R0?AVlogic_error@std@@@8??0logic_error@std@@QAE@ABV01@@Z40
	DD	FLAT:__CT??_R0?AVexception@@@8??0exception@@QAE@ABV0@@Z12
xdata$x	ENDS
;	COMDAT __CT??_R0?AVlength_error@std@@@8??0length_error@std@@QAE@ABV01@@Z40
xdata$x	SEGMENT
__CT??_R0?AVlength_error@std@@@8??0length_error@std@@QAE@ABV01@@Z40 DD 00H
	DD	FLAT:??_R0?AVlength_error@std@@@8
	DD	00H
	DD	0ffffffffH
	ORG $+4
	DD	028H
	DD	FLAT:??0length_error@std@@QAE@ABV01@@Z
xdata$x	ENDS
;	COMDAT ??_R0?AVlength_error@std@@@8
_DATA	SEGMENT
??_R0?AVlength_error@std@@@8 DD FLAT:??_7type_info@@6B@	; std::length_error `RTTI Type Descriptor'
	DD	00H
	DB	'.?AVlength_error@std@@', 00H
_DATA	ENDS
;	COMDAT __CT??_R0?AVlogic_error@std@@@8??0logic_error@std@@QAE@ABV01@@Z40
xdata$x	SEGMENT
__CT??_R0?AVlogic_error@std@@@8??0logic_error@std@@QAE@ABV01@@Z40 DD 00H
	DD	FLAT:??_R0?AVlogic_error@std@@@8
	DD	00H
	DD	0ffffffffH
	ORG $+4
	DD	028H
	DD	FLAT:??0logic_error@std@@QAE@ABV01@@Z
xdata$x	ENDS
;	COMDAT ??_R0?AVlogic_error@std@@@8
_DATA	SEGMENT
??_R0?AVlogic_error@std@@@8 DD FLAT:??_7type_info@@6B@	; std::logic_error `RTTI Type Descriptor'
	DD	00H
	DB	'.?AVlogic_error@std@@', 00H
_DATA	ENDS
;	COMDAT __CT??_R0?AVexception@@@8??0exception@@QAE@ABV0@@Z12
xdata$x	SEGMENT
__CT??_R0?AVexception@@@8??0exception@@QAE@ABV0@@Z12 DD 00H
	DD	FLAT:??_R0?AVexception@@@8
	DD	00H
	DD	0ffffffffH
	ORG $+4
	DD	0cH
	DD	FLAT:??0exception@@QAE@ABV0@@Z
xdata$x	ENDS
;	COMDAT ??_R0?AVexception@@@8
_DATA	SEGMENT
??_R0?AVexception@@@8 DD FLAT:??_7type_info@@6B@	; exception `RTTI Type Descriptor'
	DD	00H
	DB	'.?AVexception@@', 00H
; Function compile flags: /Ogty
; File c:\program files\microsoft visual studio .net 2003\vc7\include\vector
_DATA	ENDS
;	COMDAT ?_Xlen@?$vector@KV?$allocator@K@std@@@std@@IBEXXZ
_TEXT	SEGMENT
$T217688 = -80						; size = 28
$T217687 = -52						; size = 40
__$EHRec$ = -12						; size = 12
?_Xlen@?$vector@KV?$allocator@K@std@@@std@@IBEXXZ PROC NEAR ; std::vector<unsigned long,std::allocator<unsigned long> >::_Xlen, COMDAT
; _this$ = ecx

; 883  : 		{	// report a length_error

  00000	6a ff		 push	 -1
  00002	68 00 00 00 00	 push	 __ehhandler$?_Xlen@?$vector@KV?$allocator@K@std@@@std@@IBEXXZ
  00007	64 a1 00 00 00
	00		 mov	 eax, DWORD PTR fs:__except_list
  0000d	50		 push	 eax
  0000e	64 89 25 00 00
	00 00		 mov	 DWORD PTR fs:__except_list, esp
  00015	83 ec 44	 sub	 esp, 68			; 00000044H

; 884  : 		_THROW(length_error, "vector<T> too long");

  00018	6a 12		 push	 18			; 00000012H
  0001a	68 00 00 00 00	 push	 OFFSET FLAT:??_C@_0BD@OLBABOEK@vector?$DMT?$DO?5too?5long?$AA@
  0001f	8d 4c 24 08	 lea	 ecx, DWORD PTR $T217688[esp+88]
  00023	c7 44 24 20 0f
	00 00 00	 mov	 DWORD PTR $T217688[esp+112], 15 ; 0000000fH
  0002b	c7 44 24 1c 00
	00 00 00	 mov	 DWORD PTR $T217688[esp+108], 0
  00033	c6 44 24 0c 00	 mov	 BYTE PTR $T217688[esp+92], 0
  00038	e8 00 00 00 00	 call	 ?assign@?$basic_string@DU?$char_traits@D@std@@V?$allocator@D@2@@std@@QAEAAV12@PBDI@Z ; std::basic_string<char,std::char_traits<char>,std::allocator<char> >::assign
  0003d	8d 04 24	 lea	 eax, DWORD PTR $T217688[esp+80]
  00040	50		 push	 eax
  00041	8d 4c 24 20	 lea	 ecx, DWORD PTR $T217687[esp+84]
  00045	c7 44 24 50 00
	00 00 00	 mov	 DWORD PTR __$EHRec$[esp+92], 0
  0004d	e8 00 00 00 00	 call	 ??0logic_error@std@@QAE@ABV?$basic_string@DU?$char_traits@D@std@@V?$allocator@D@2@@1@@Z ; std::logic_error::logic_error
  00052	68 00 00 00 00	 push	 OFFSET FLAT:__TI3?AVlength_error@std@@
  00057	8d 4c 24 20	 lea	 ecx, DWORD PTR $T217687[esp+84]
  0005b	51		 push	 ecx
  0005c	c7 44 24 24 00
	00 00 00	 mov	 DWORD PTR $T217687[esp+88], OFFSET FLAT:??_7length_error@std@@6B@
  00064	e8 00 00 00 00	 call	 __CxxThrowException@8
$L217803:
  00069	cc		 int	 3
_TEXT	ENDS
;	COMDAT text$x
text$x	SEGMENT
$L217689:
  00000	8d 4d b0	 lea	 ecx, DWORD PTR $T217688[ebp]
  00003	e9 00 00 00 00	 jmp	 ??1?$basic_string@DU?$char_traits@D@std@@V?$allocator@D@2@@std@@QAE@XZ ; std::basic_string<char,std::char_traits<char>,std::allocator<char> >::~basic_string<char,std::char_traits<char>,std::allocator<char> >
__ehhandler$?_Xlen@?$vector@KV?$allocator@K@std@@@std@@IBEXXZ:
  00008	b8 00 00 00 00	 mov	 eax, OFFSET FLAT:$T217801
  0000d	e9 00 00 00 00	 jmp	 ___CxxFrameHandler
text$x	ENDS
?_Xlen@?$vector@KV?$allocator@K@std@@@std@@IBEXXZ ENDP	; std::vector<unsigned long,std::allocator<unsigned long> >::_Xlen
;	COMDAT xdata$x
xdata$x	SEGMENT
$T217909 DD	0ffffffffH
	DD	FLAT:$L217809
$T217907 DD	019930520H
	DD	01H
	DD	FLAT:$T217909
	DD	2 DUP(00H)
	DD	2 DUP(00H)
; Function compile flags: /Ogty
xdata$x	ENDS
;	COMDAT ??0logic_error@std@@QAE@ABV01@@Z
_TEXT	SEGMENT
_this$ = -16						; size = 4
__$EHRec$ = -12						; size = 12
___that$ = 8						; size = 4
??0logic_error@std@@QAE@ABV01@@Z PROC NEAR		; std::logic_error::logic_error, COMDAT
; _this$ = ecx
  00000	6a ff		 push	 -1
  00002	68 00 00 00 00	 push	 __ehhandler$??0logic_error@std@@QAE@ABV01@@Z
  00007	64 a1 00 00 00
	00		 mov	 eax, DWORD PTR fs:__except_list
  0000d	50		 push	 eax
  0000e	64 89 25 00 00
	00 00		 mov	 DWORD PTR fs:__except_list, esp
  00015	51		 push	 ecx
  00016	56		 push	 esi
  00017	57		 push	 edi
  00018	8b 7c 24 1c	 mov	 edi, DWORD PTR ___that$[esp+20]
  0001c	8b f1		 mov	 esi, ecx
  0001e	57		 push	 edi
  0001f	89 74 24 0c	 mov	 DWORD PTR _this$[esp+28], esi
  00023	e8 00 00 00 00	 call	 ??0exception@@QAE@ABV0@@Z ; exception::exception
  00028	33 c0		 xor	 eax, eax
  0002a	6a ff		 push	 -1
  0002c	8d 4e 0c	 lea	 ecx, DWORD PTR [esi+12]
  0002f	c7 06 00 00 00
	00		 mov	 DWORD PTR [esi], OFFSET FLAT:??_7logic_error@std@@6B@
  00035	50		 push	 eax
  00036	83 c7 0c	 add	 edi, 12			; 0000000cH
  00039	c7 41 18 0f 00
	00 00		 mov	 DWORD PTR [ecx+24], 15	; 0000000fH
  00040	89 41 14	 mov	 DWORD PTR [ecx+20], eax
  00043	57		 push	 edi
  00044	89 44 24 20	 mov	 DWORD PTR __$EHRec$[esp+44], eax
  00048	88 41 04	 mov	 BYTE PTR [ecx+4], al
  0004b	e8 00 00 00 00	 call	 ?assign@?$basic_string@DU?$char_traits@D@std@@V?$allocator@D@2@@std@@QAEAAV12@ABV12@II@Z ; std::basic_string<char,std::char_traits<char>,std::allocator<char> >::assign
  00050	8b 4c 24 0c	 mov	 ecx, DWORD PTR __$EHRec$[esp+24]
  00054	5f		 pop	 edi
  00055	8b c6		 mov	 eax, esi
  00057	5e		 pop	 esi
  00058	64 89 0d 00 00
	00 00		 mov	 DWORD PTR fs:__except_list, ecx
  0005f	83 c4 10	 add	 esp, 16			; 00000010H
  00062	c2 04 00	 ret	 4
_TEXT	ENDS
;	COMDAT text$x
text$x	SEGMENT
$L217809:
  00000	8b 4d f0	 mov	 ecx, DWORD PTR _this$[ebp]
  00003	e9 00 00 00 00	 jmp	 ??1exception@@UAE@XZ	; exception::~exception
__ehhandler$??0logic_error@std@@QAE@ABV01@@Z:
  00008	b8 00 00 00 00	 mov	 eax, OFFSET FLAT:$T217907
  0000d	e9 00 00 00 00	 jmp	 ___CxxFrameHandler
text$x	ENDS
??0logic_error@std@@QAE@ABV01@@Z ENDP			; std::logic_error::logic_error
; Function compile flags: /Ogty
;	COMDAT ??0length_error@std@@QAE@ABV01@@Z
_TEXT	SEGMENT
___that$ = 8						; size = 4
??0length_error@std@@QAE@ABV01@@Z PROC NEAR		; std::length_error::length_error, COMDAT
; _this$ = ecx
  00000	8b 44 24 04	 mov	 eax, DWORD PTR ___that$[esp-4]
  00004	56		 push	 esi
  00005	50		 push	 eax
  00006	8b f1		 mov	 esi, ecx
  00008	e8 00 00 00 00	 call	 ??0logic_error@std@@QAE@ABV01@@Z
  0000d	c7 06 00 00 00
	00		 mov	 DWORD PTR [esi], OFFSET FLAT:??_7length_error@std@@6B@
  00013	8b c6		 mov	 eax, esi
  00015	5e		 pop	 esi
  00016	c2 04 00	 ret	 4
??0length_error@std@@QAE@ABV01@@Z ENDP			; std::length_error::length_error
_TEXT	ENDS
PUBLIC	??_C@_0BA@LNDBAGIB@CheckChangeTime?$AA@		; `string'
PUBLIC	?CheckChangeTime@CTax@@QAEXHH@Z			; CTax::CheckChangeTime
EXTRN	?Instance@CTLord@@SAPAV1@XZ:NEAR		; CTLord::Instance
;	COMDAT ??_C@_0BA@LNDBAGIB@CheckChangeTime?$AA@
; File c:\program files\microsoft visual studio .net 2003\vc7\include\iosfwd
CONST	SEGMENT
??_C@_0BA@LNDBAGIB@CheckChangeTime?$AA@ DB 'CheckChangeTime', 00H ; `string'
; Function compile flags: /Ogty
; File c:\documents and settings\test\mes documents\source\virtuos_v17\build\program\_common\tax.cpp
CONST	ENDS
;	COMDAT ?CheckChangeTime@CTax@@QAEXHH@Z
_TEXT	SEGMENT
_bPay$ = 8						; size = 4
_bGameMaster$ = 12					; size = 4
?CheckChangeTime@CTax@@QAEXHH@Z PROC NEAR		; CTax::CheckChangeTime, COMDAT
; _this$ = ecx

; 200  : {

  00000	56		 push	 esi
  00001	8b f1		 mov	 esi, ecx

; 201  : 	//      .
; 202  : 	// bPay FALSE     .
; 203  : 	// bGameMaster  FALSE GM        .
; 204  : 	
; 205  : 	//   (2 )...
; 206  : 	IElection* pElection	= CTLord::Instance()->GetElection();

  00003	e8 00 00 00 00	 call	 ?Instance@CTLord@@SAPAV1@XZ ; CTLord::Instance

; 207  : 	if( pElection->GetState() == IElection::ELECTION_STATE::eVote ) //  

  00008	8b 40 08	 mov	 eax, DWORD PTR [eax+8]
  0000b	83 78 10 02	 cmp	 DWORD PTR [eax+16], 2
  0000f	0f 84 d8 00 00
	00		 je	 $L208322
  00015	55		 push	 ebp

; 208  : 		return;	//       TimeOut  .
; 209  : 	
; 210  : 	if( m_Lua.GetLuaFunction( "CheckChangeTime" ) )

  00016	8d 6e 28	 lea	 ebp, DWORD PTR [esi+40]
  00019	68 00 00 00 00	 push	 OFFSET FLAT:??_C@_0BA@LNDBAGIB@CheckChangeTime?$AA@
  0001e	8b cd		 mov	 ecx, ebp
  00020	e8 00 00 00 00	 call	 ?GetLuaFunction@CLuaBase@@QAEHPAD@Z ; CLuaBase::GetLuaFunction
  00025	85 c0		 test	 eax, eax
  00027	0f 84 b6 00 00
	00		 je	 $L217973

; 211  : 	{
; 212  : 		m_Lua.PushString( m_strChangedDate.c_str() );

  0002d	8b 46 64	 mov	 eax, DWORD PTR [esi+100]
  00030	83 f8 10	 cmp	 eax, 16			; 00000010H
  00033	53		 push	 ebx
  00034	8d 5e 4c	 lea	 ebx, DWORD PTR [esi+76]
  00037	72 05		 jb	 SHORT $L217936
  00039	8b 43 04	 mov	 eax, DWORD PTR [ebx+4]
  0003c	eb 03		 jmp	 SHORT $L217937
$L217936:
  0003e	8d 43 04	 lea	 eax, DWORD PTR [ebx+4]
$L217937:
  00041	8b 4e 2c	 mov	 ecx, DWORD PTR [esi+44]
  00044	50		 push	 eax
  00045	51		 push	 ecx
  00046	e8 00 00 00 00	 call	 _lua_pushstring
  0004b	83 c4 08	 add	 esp, 8

; 213  : 		m_Lua.CallLuaFunction( 1, 2 );

  0004e	6a 02		 push	 2
  00050	6a 01		 push	 1
  00052	8b cd		 mov	 ecx, ebp
  00054	e8 00 00 00 00	 call	 ?CallLuaFunction@CLuaBase@@QAEXHH@Z ; CLuaBase::CallLuaFunction

; 214  : 		if( m_Lua.ToBool( -2 ) || bGameMaster )		//   ...

  00059	8b 56 2c	 mov	 edx, DWORD PTR [esi+44]
  0005c	6a fe		 push	 -2			; fffffffeH
  0005e	52		 push	 edx
  0005f	e8 00 00 00 00	 call	 _lua_toboolean
  00064	83 c4 08	 add	 esp, 8
  00067	85 c0		 test	 eax, eax
  00069	75 08		 jne	 SHORT $L217972
  0006b	8b 44 24 14	 mov	 eax, DWORD PTR _bGameMaster$[esp+8]
  0006f	85 c0		 test	 eax, eax
  00071	74 6f		 je	 SHORT $L217974
$L217972:

; 215  : 		{
; 216  : 			//        .
; 217  : 			if( !bPay )

  00073	8b 44 24 10	 mov	 eax, DWORD PTR _bPay$[esp+8]
  00077	85 c0		 test	 eax, eax
  00079	75 10		 jne	 SHORT $L208329

; 218  : 				m_taxDBController.PostRequest( QUERY_TAX_PAY, 0, 0, 0 );

  0007b	6a 00		 push	 0
  0007d	6a 00		 push	 0
  0007f	6a 00		 push	 0
  00081	6a 01		 push	 1
  00083	8d 4e 30	 lea	 ecx, DWORD PTR [esi+48]
  00086	e8 00 00 00 00	 call	 ?PostRequest@CDbController@@QAEHHPAEHK@Z ; CDbController::PostRequest
$L208329:
  0008b	57		 push	 edi

; 219  : 
; 220  : 			//      .
; 221  : 			m_taxDBController.PostRequest( QUERY_TAX_SETNEXT_LORD, 0, 0, CTLord::Instance()->Get() );			

  0008c	e8 00 00 00 00	 call	 ?Instance@CTLord@@SAPAV1@XZ ; CTLord::Instance
  00091	8b 40 04	 mov	 eax, DWORD PTR [eax+4]
  00094	50		 push	 eax
  00095	6a 00		 push	 0
  00097	6a 00		 push	 0
  00099	8d 7e 30	 lea	 edi, DWORD PTR [esi+48]
  0009c	6a 04		 push	 4
  0009e	8b cf		 mov	 ecx, edi
  000a0	e8 00 00 00 00	 call	 ?PostRequest@CDbController@@QAEHHPAEHK@Z ; CDbController::PostRequest

; 222  : 			
; 223  : 			//        .
; 224  : 			m_strChangedDate = m_Lua.ToString( -1 );

  000a5	8b 4e 2c	 mov	 ecx, DWORD PTR [esi+44]
  000a8	6a 00		 push	 0
  000aa	6a ff		 push	 -1
  000ac	51		 push	 ecx
  000ad	e8 00 00 00 00	 call	 _lua_tolstring
  000b2	8b c8		 mov	 ecx, eax
  000b4	83 c4 0c	 add	 esp, 12			; 0000000cH
  000b7	8d 71 01	 lea	 esi, DWORD PTR [ecx+1]
  000ba	8d 9b 00 00 00
	00		 npad	 6
$L217971:
  000c0	8a 11		 mov	 dl, BYTE PTR [ecx]
  000c2	41		 inc	 ecx
  000c3	84 d2		 test	 dl, dl
  000c5	75 f9		 jne	 SHORT $L217971
  000c7	2b ce		 sub	 ecx, esi
  000c9	51		 push	 ecx
  000ca	50		 push	 eax
  000cb	8b cb		 mov	 ecx, ebx
  000cd	e8 00 00 00 00	 call	 ?assign@?$basic_string@DU?$char_traits@D@std@@V?$allocator@D@2@@std@@QAEAAV12@PBDI@Z ; std::basic_string<char,std::char_traits<char>,std::allocator<char> >::assign

; 225  : 			m_taxDBController.PostRequest( QUERY_TAX_CHANGENEXT, 0, 0, 0 );

  000d2	6a 00		 push	 0
  000d4	6a 00		 push	 0
  000d6	6a 00		 push	 0
  000d8	6a 02		 push	 2
  000da	8b cf		 mov	 ecx, edi
  000dc	e8 00 00 00 00	 call	 ?PostRequest@CDbController@@QAEHHPAEHK@Z ; CDbController::PostRequest
  000e1	5f		 pop	 edi
$L217974:
  000e2	5b		 pop	 ebx
$L217973:

; 226  : 		}
; 227  : 	}
; 228  : 	m_Lua.Pop(0);

  000e3	6a 00		 push	 0
  000e5	8b cd		 mov	 ecx, ebp
  000e7	e8 00 00 00 00	 call	 ?Pop@CLuaBase@@QAEXH@Z	; CLuaBase::Pop
  000ec	5d		 pop	 ebp
$L208322:
  000ed	5e		 pop	 esi

; 229  : }

  000ee	c2 08 00	 ret	 8
?CheckChangeTime@CTax@@QAEXHH@Z ENDP			; CTax::CheckChangeTime
_TEXT	ENDS
PUBLIC	?SetApplyTaxRateNow@CTax@@QAEXXZ		; CTax::SetApplyTaxRateNow
; Function compile flags: /Ogty
;	COMDAT ?SetApplyTaxRateNow@CTax@@QAEXXZ
_TEXT	SEGMENT
?SetApplyTaxRateNow@CTax@@QAEXXZ PROC NEAR		; CTax::SetApplyTaxRateNow, COMDAT
; _this$ = ecx

; 382  : #ifdef __WORLDSERVER
; 383  : 	g_dpDBClient.SendApplyTaxRateNow();
; 384  : #endif // __WORLDSERVER
; 385  : #ifdef __DBSERVER
; 386  : 	//m_taxDBController.PostRequest( QUERY_TAX_CHANGENEXT, 0, 0, 0 );
; 387  : 	CheckChangeTime( FALSE, TRUE );	// FALSE -  , TRUE - GM   .

  00000	6a 01		 push	 1
  00002	6a 00		 push	 0
  00004	e8 00 00 00 00	 call	 ?CheckChangeTime@CTax@@QAEXHH@Z ; CTax::CheckChangeTime

; 388  : #endif // __DBSERVER
; 389  : }

  00009	c3		 ret	 0
?SetApplyTaxRateNow@CTax@@QAEXXZ ENDP			; CTax::SetApplyTaxRateNow
_TEXT	ENDS
PUBLIC	??_C@_0BE@JONHPENG@map?1set?$DMT?$DO?5too?5long?$AA@ ; `string'
PUBLIC	?_Insert@?$_Tree@V?$_Tmap_traits@EPAU__TAXDETAIL@@U?$less@E@std@@V?$allocator@U?$pair@$$CBEPAU__TAXDETAIL@@@std@@@3@$0A@@std@@@std@@IAE?AViterator@12@_NPAU_Node@?$_Tree_nod@V?$_Tmap_traits@EPAU__TAXDETAIL@@U?$less@E@std@@V?$allocator@U?$pair@$$CBEPAU__TAXDETAIL@@@std@@@3@$0A@@std@@@2@ABU?$pair@$$CBEPAU__TAXDETAIL@@@2@@Z ; std::_Tree<std::_Tmap_traits<unsigned char,__TAXDETAIL *,std::less<unsigned char>,std::allocator<std::pair<unsigned char const ,__TAXDETAIL *> >,0> >::_Insert
;	COMDAT xdata$x
; File c:\program files\microsoft visual studio .net 2003\vc7\include\xtree
xdata$x	SEGMENT
$T218351 DD	0ffffffffH
	DD	FLAT:$L217981
$T218346 DD	019930520H
	DD	01H
	DD	FLAT:$T218351
	DD	2 DUP(00H)
	DD	2 DUP(00H)
xdata$x	ENDS
;	COMDAT ??_C@_0BE@JONHPENG@map?1set?$DMT?$DO?5too?5long?$AA@
CONST	SEGMENT
??_C@_0BE@JONHPENG@map?1set?$DMT?$DO?5too?5long?$AA@ DB 'map/set<T> too l'
	DB	'ong', 00H					; `string'
; Function compile flags: /Ogty
CONST	ENDS
;	COMDAT ?_Insert@?$_Tree@V?$_Tmap_traits@EPAU__TAXDETAIL@@U?$less@E@std@@V?$allocator@U?$pair@$$CBEPAU__TAXDETAIL@@@std@@@3@$0A@@std@@@std@@IAE?AViterator@12@_NPAU_Node@?$_Tree_nod@V?$_Tmap_traits@EPAU__TAXDETAIL@@U?$less@E@std@@V?$allocator@U?$pair@$$CBEPAU__TAXDETAIL@@@std@@@3@$0A@@std@@@2@ABU?$pair@$$CBEPAU__TAXDETAIL@@@2@@Z
_TEXT	SEGMENT
$T217980 = -80						; size = 28
$T217979 = -52						; size = 40
__$EHRec$ = -12						; size = 12
___$ReturnUdt$ = 8					; size = 4
__Addleft$ = 12						; size = 1
__Wherenode$ = 16					; size = 4
__Newnode$ = 20						; size = 4
__Val$ = 20						; size = 4
?_Insert@?$_Tree@V?$_Tmap_traits@EPAU__TAXDETAIL@@U?$less@E@std@@V?$allocator@U?$pair@$$CBEPAU__TAXDETAIL@@@std@@@3@$0A@@std@@@std@@IAE?AViterator@12@_NPAU_Node@?$_Tree_nod@V?$_Tmap_traits@EPAU__TAXDETAIL@@U?$less@E@std@@V?$allocator@U?$pair@$$CBEPAU__TAXDETAIL@@@std@@@3@$0A@@std@@@2@ABU?$pair@$$CBEPAU__TAXDETAIL@@@2@@Z PROC NEAR ; std::_Tree<std::_Tmap_traits<unsigned char,__TAXDETAIL *,std::less<unsigned char>,std::allocator<std::pair<unsigned char const ,__TAXDETAIL *> >,0> >::_Insert, COMDAT
; _this$ = ecx

; 911  : 		{	// add node with value next to _Wherenode, to left if _Addnode

  00000	64 a1 00 00 00
	00		 mov	 eax, DWORD PTR fs:__except_list
  00006	6a ff		 push	 -1
  00008	68 00 00 00 00	 push	 __ehhandler$?_Insert@?$_Tree@V?$_Tmap_traits@EPAU__TAXDETAIL@@U?$less@E@std@@V?$allocator@U?$pair@$$CBEPAU__TAXDETAIL@@@std@@@3@$0A@@std@@@std@@IAE?AViterator@12@_NPAU_Node@?$_Tree_nod@V?$_Tmap_traits@EPAU__TAXDETAIL@@U?$less@E@std@@V?$allocator@U?$pair@$$CBEPAU__TAXDETAIL@@@std@@@3@$0A@@std@@@2@ABU?$pair@$$CBEPAU__TAXDETAIL@@@2@@Z
  0000d	50		 push	 eax
  0000e	64 89 25 00 00
	00 00		 mov	 DWORD PTR fs:__except_list, esp
  00015	83 ec 44	 sub	 esp, 68			; 00000044H
  00018	56		 push	 esi
  00019	57		 push	 edi
  0001a	8b f9		 mov	 edi, ecx

; 912  : 		if (max_size() - 1 <= _Mysize)

  0001c	81 7f 08 fe ff
	ff 1f		 cmp	 DWORD PTR [edi+8], 536870910 ; 1ffffffeH
  00023	72 4c		 jb	 SHORT $L209238

; 913  : 			_THROW(length_error, "map/set<T> too long");

  00025	6a 13		 push	 19			; 00000013H
  00027	33 f6		 xor	 esi, esi
  00029	68 00 00 00 00	 push	 OFFSET FLAT:??_C@_0BE@JONHPENG@map?1set?$DMT?$DO?5too?5long?$AA@
  0002e	8d 4c 24 10	 lea	 ecx, DWORD PTR $T217980[esp+96]
  00032	c7 44 24 28 0f
	00 00 00	 mov	 DWORD PTR $T217980[esp+120], 15 ; 0000000fH
  0003a	89 74 24 24	 mov	 DWORD PTR $T217980[esp+116], esi
  0003e	c6 44 24 14 00	 mov	 BYTE PTR $T217980[esp+100], 0
  00043	e8 00 00 00 00	 call	 ?assign@?$basic_string@DU?$char_traits@D@std@@V?$allocator@D@2@@std@@QAEAAV12@PBDI@Z ; std::basic_string<char,std::char_traits<char>,std::allocator<char> >::assign
  00048	8d 44 24 08	 lea	 eax, DWORD PTR $T217980[esp+88]
  0004c	50		 push	 eax
  0004d	8d 4c 24 28	 lea	 ecx, DWORD PTR $T217979[esp+92]
  00051	89 74 24 58	 mov	 DWORD PTR __$EHRec$[esp+100], esi
  00055	e8 00 00 00 00	 call	 ??0logic_error@std@@QAE@ABV?$basic_string@DU?$char_traits@D@std@@V?$allocator@D@2@@1@@Z ; std::logic_error::logic_error
  0005a	68 00 00 00 00	 push	 OFFSET FLAT:__TI3?AVlength_error@std@@
  0005f	8d 4c 24 28	 lea	 ecx, DWORD PTR $T217979[esp+92]
  00063	51		 push	 ecx
  00064	c7 44 24 2c 00
	00 00 00	 mov	 DWORD PTR $T217979[esp+96], OFFSET FLAT:??_7length_error@std@@6B@
  0006c	e8 00 00 00 00	 call	 __CxxThrowException@8
$L209238:

; 914  : 		_Nodeptr _Newnode = _Buynode(_Myhead, _Wherenode, _Myhead,
; 915  : 			_Val, _Red);

  00071	8b 54 24 68	 mov	 edx, DWORD PTR __Val$[esp+84]
  00075	8b 47 04	 mov	 eax, DWORD PTR [edi+4]
  00078	8b 74 24 64	 mov	 esi, DWORD PTR __Wherenode$[esp+84]
  0007c	53		 push	 ebx
  0007d	6a 00		 push	 0
  0007f	52		 push	 edx
  00080	50		 push	 eax
  00081	56		 push	 esi
  00082	50		 push	 eax
  00083	8b cf		 mov	 ecx, edi
  00085	e8 00 00 00 00	 call	 ?_Buynode@?$_Tree@V?$_Tmap_traits@EPAU__TAXDETAIL@@U?$less@E@std@@V?$allocator@U?$pair@$$CBEPAU__TAXDETAIL@@@std@@@3@$0A@@std@@@std@@IAEPAU_Node@?$_Tree_nod@V?$_Tmap_traits@EPAU__TAXDETAIL@@U?$less@E@std@@V?$allocator@U?$pair@$$CBEPAU__TAXDETAIL@@@std@@@3@$0A@@std@@@2@PAU342@00ABU?$pair@$$CBEPAU__TAXDETAIL@@@2@D@Z ; std::_Tree<std::_Tmap_traits<unsigned char,__TAXDETAIL *,std::less<unsigned char>,std::allocator<std::pair<unsigned char const ,__TAXDETAIL *> >,0> >::_Buynode

; 916  : 
; 917  : 		++_Mysize;

  0008a	8b 5f 08	 mov	 ebx, DWORD PTR [edi+8]
  0008d	8b c8		 mov	 ecx, eax

; 918  : 		if (_Wherenode == _Myhead)

  0008f	8b 47 04	 mov	 eax, DWORD PTR [edi+4]
  00092	43		 inc	 ebx
  00093	3b f0		 cmp	 esi, eax
  00095	89 4c 24 6c	 mov	 DWORD PTR __Newnode$[esp+88], ecx
  00099	89 5f 08	 mov	 DWORD PTR [edi+8], ebx
  0009c	75 10		 jne	 SHORT $L209243

; 919  : 			{	// first node in tree, just set head values
; 920  : 			_Root() = _Newnode;

  0009e	89 48 04	 mov	 DWORD PTR [eax+4], ecx

; 921  : 			_Lmost() = _Newnode, _Rmost() = _Newnode;

  000a1	8b 47 04	 mov	 eax, DWORD PTR [edi+4]
  000a4	89 08		 mov	 DWORD PTR [eax], ecx
  000a6	8b 57 04	 mov	 edx, DWORD PTR [edi+4]
  000a9	89 4a 08	 mov	 DWORD PTR [edx+8], ecx

; 922  : 			}
; 923  : 		else if (_Addleft)

  000ac	eb 23		 jmp	 SHORT $L209248
$L209243:
  000ae	8a 44 24 64	 mov	 al, BYTE PTR __Addleft$[esp+88]
  000b2	84 c0		 test	 al, al
  000b4	74 0d		 je	 SHORT $L209245

; 924  : 			{	// add to left of _Wherenode
; 925  : 			_Left(_Wherenode) = _Newnode;

  000b6	89 0e		 mov	 DWORD PTR [esi], ecx

; 926  : 			if (_Wherenode == _Lmost())

  000b8	8b 47 04	 mov	 eax, DWORD PTR [edi+4]
  000bb	3b 30		 cmp	 esi, DWORD PTR [eax]
  000bd	75 12		 jne	 SHORT $L209248

; 927  : 				_Lmost() = _Newnode;

  000bf	89 08		 mov	 DWORD PTR [eax], ecx

; 928  : 			}
; 929  : 		else

  000c1	eb 0e		 jmp	 SHORT $L209248
$L209245:

; 930  : 			{	// add to right of _Wherenode
; 931  : 			_Right(_Wherenode) = _Newnode;

  000c3	89 4e 08	 mov	 DWORD PTR [esi+8], ecx

; 932  : 			if (_Wherenode == _Rmost())

  000c6	8b 47 04	 mov	 eax, DWORD PTR [edi+4]
  000c9	3b 70 08	 cmp	 esi, DWORD PTR [eax+8]
  000cc	75 03		 jne	 SHORT $L209248

; 933  : 				_Rmost() = _Newnode;

  000ce	89 48 08	 mov	 DWORD PTR [eax+8], ecx
$L209248:

; 934  : 			}
; 935  : 
; 936  : 		for (_Nodeptr _Pnode = _Newnode; _Color(_Parent(_Pnode)) == _Red; )

  000d1	8b 51 04	 mov	 edx, DWORD PTR [ecx+4]
  000d4	80 7a 14 00	 cmp	 BYTE PTR [edx+20], 0
  000d8	8d 41 04	 lea	 eax, DWORD PTR [ecx+4]
  000db	8b f1		 mov	 esi, ecx
  000dd	b3 01		 mov	 bl, 1
  000df	0f 85 a5 00 00
	00		 jne	 $L209252
  000e5	55		 push	 ebp
$L209251:

; 937  : 			if (_Parent(_Pnode) == _Left(_Parent(_Parent(_Pnode))))

  000e6	8b 08		 mov	 ecx, DWORD PTR [eax]
  000e8	8b 69 04	 mov	 ebp, DWORD PTR [ecx+4]
  000eb	8b 55 00	 mov	 edx, DWORD PTR [ebp]
  000ee	3b ca		 cmp	 ecx, edx
  000f0	75 50		 jne	 SHORT $L209253

; 938  : 				{	// fixup red-red in left subtree
; 939  : 				_Wherenode = _Right(_Parent(_Parent(_Pnode)));

  000f2	8b 55 08	 mov	 edx, DWORD PTR [ebp+8]

; 940  : 				if (_Color(_Wherenode) == _Red)

  000f5	80 7a 14 00	 cmp	 BYTE PTR [edx+20], 0
  000f9	75 18		 jne	 SHORT $L209254
$L218350:

; 941  : 					{	// parent has two red children, blacken both
; 942  : 					_Color(_Parent(_Pnode)) = _Black;

  000fb	8b 08		 mov	 ecx, DWORD PTR [eax]
  000fd	88 59 14	 mov	 BYTE PTR [ecx+20], bl

; 943  : 					_Color(_Wherenode) = _Black;

  00100	88 5a 14	 mov	 BYTE PTR [edx+20], bl

; 944  : 					_Color(_Parent(_Parent(_Pnode))) = _Red;

  00103	8b 10		 mov	 edx, DWORD PTR [eax]
  00105	8b 4a 04	 mov	 ecx, DWORD PTR [edx+4]
  00108	c6 41 14 00	 mov	 BYTE PTR [ecx+20], 0

; 945  : 					_Pnode = _Parent(_Parent(_Pnode));

  0010c	8b 10		 mov	 edx, DWORD PTR [eax]
  0010e	8b 72 04	 mov	 esi, DWORD PTR [edx+4]

; 946  : 					}
; 947  : 				else

  00111	eb 61		 jmp	 SHORT $L209259
$L209254:

; 948  : 					{	// parent has red and black children
; 949  : 					if (_Pnode == _Right(_Parent(_Pnode)))

  00113	3b 71 08	 cmp	 esi, DWORD PTR [ecx+8]
  00116	75 0a		 jne	 SHORT $L209256

; 950  : 						{	// rotate right child to left
; 951  : 						_Pnode = _Parent(_Pnode);

  00118	8b f1		 mov	 esi, ecx

; 952  : 						_Lrotate(_Pnode);

  0011a	56		 push	 esi
  0011b	8b cf		 mov	 ecx, edi
  0011d	e8 00 00 00 00	 call	 ?_Lrotate@?$_Tree@V?$_Tmap_traits@EPAU__TAXDETAIL@@U?$less@E@std@@V?$allocator@U?$pair@$$CBEPAU__TAXDETAIL@@@std@@@3@$0A@@std@@@std@@IAEXPAU_Node@?$_Tree_nod@V?$_Tmap_traits@EPAU__TAXDETAIL@@U?$less@E@std@@V?$allocator@U?$pair@$$CBEPAU__TAXDETAIL@@@std@@@3@$0A@@std@@@2@@Z ; std::_Tree<std::_Tmap_traits<unsigned char,__TAXDETAIL *,std::less<unsigned char>,std::allocator<std::pair<unsigned char const ,__TAXDETAIL *> >,0> >::_Lrotate
$L209256:

; 953  : 						}
; 954  : 					_Color(_Parent(_Pnode)) = _Black;	// propagate red up

  00122	8b 46 04	 mov	 eax, DWORD PTR [esi+4]
  00125	88 58 14	 mov	 BYTE PTR [eax+20], bl

; 955  : 					_Color(_Parent(_Parent(_Pnode))) = _Red;

  00128	8b 4e 04	 mov	 ecx, DWORD PTR [esi+4]
  0012b	8b 51 04	 mov	 edx, DWORD PTR [ecx+4]
  0012e	c6 42 14 00	 mov	 BYTE PTR [edx+20], 0

; 956  : 					_Rrotate(_Parent(_Parent(_Pnode)));

  00132	8b 46 04	 mov	 eax, DWORD PTR [esi+4]
  00135	8b 48 04	 mov	 ecx, DWORD PTR [eax+4]
  00138	51		 push	 ecx
  00139	8b cf		 mov	 ecx, edi
  0013b	e8 00 00 00 00	 call	 ?_Rrotate@?$_Tree@V?$_Tmap_traits@EPAU__TAXDETAIL@@U?$less@E@std@@V?$allocator@U?$pair@$$CBEPAU__TAXDETAIL@@@std@@@3@$0A@@std@@@std@@IAEXPAU_Node@?$_Tree_nod@V?$_Tmap_traits@EPAU__TAXDETAIL@@U?$less@E@std@@V?$allocator@U?$pair@$$CBEPAU__TAXDETAIL@@@std@@@3@$0A@@std@@@2@@Z ; std::_Tree<std::_Tmap_traits<unsigned char,__TAXDETAIL *,std::less<unsigned char>,std::allocator<std::pair<unsigned char const ,__TAXDETAIL *> >,0> >::_Rrotate

; 957  : 					}
; 958  : 				}
; 959  : 			else

  00140	eb 32		 jmp	 SHORT $L209259
$L209253:

; 960  : 				{	// fixup red-red in right subtree
; 961  : 				_Wherenode = _Left(_Parent(_Parent(_Pnode)));
; 962  : 				if (_Color(_Wherenode) == _Red)

  00142	80 7a 14 00	 cmp	 BYTE PTR [edx+20], 0

; 963  : 					{	// parent has two red children, blacken both
; 964  : 					_Color(_Parent(_Pnode)) = _Black;
; 965  : 					_Color(_Wherenode) = _Black;
; 966  : 					_Color(_Parent(_Parent(_Pnode))) = _Red;
; 967  : 					_Pnode = _Parent(_Parent(_Pnode));
; 968  : 					}
; 969  : 				else

  00146	74 b3		 je	 SHORT $L218350

; 970  : 					{	// parent has red and black children
; 971  : 					if (_Pnode == _Left(_Parent(_Pnode)))

  00148	3b 31		 cmp	 esi, DWORD PTR [ecx]
  0014a	75 0a		 jne	 SHORT $L209260

; 972  : 						{	// rotate left child to right
; 973  : 						_Pnode = _Parent(_Pnode);

  0014c	8b f1		 mov	 esi, ecx

; 974  : 						_Rrotate(_Pnode);

  0014e	56		 push	 esi
  0014f	8b cf		 mov	 ecx, edi
  00151	e8 00 00 00 00	 call	 ?_Rrotate@?$_Tree@V?$_Tmap_traits@EPAU__TAXDETAIL@@U?$less@E@std@@V?$allocator@U?$pair@$$CBEPAU__TAXDETAIL@@@std@@@3@$0A@@std@@@std@@IAEXPAU_Node@?$_Tree_nod@V?$_Tmap_traits@EPAU__TAXDETAIL@@U?$less@E@std@@V?$allocator@U?$pair@$$CBEPAU__TAXDETAIL@@@std@@@3@$0A@@std@@@2@@Z ; std::_Tree<std::_Tmap_traits<unsigned char,__TAXDETAIL *,std::less<unsigned char>,std::allocator<std::pair<unsigned char const ,__TAXDETAIL *> >,0> >::_Rrotate
$L209260:

; 975  : 						}
; 976  : 					_Color(_Parent(_Pnode)) = _Black;	// propagate red up

  00156	8b 46 04	 mov	 eax, DWORD PTR [esi+4]
  00159	88 58 14	 mov	 BYTE PTR [eax+20], bl

; 977  : 					_Color(_Parent(_Parent(_Pnode))) = _Red;

  0015c	8b 4e 04	 mov	 ecx, DWORD PTR [esi+4]
  0015f	8b 51 04	 mov	 edx, DWORD PTR [ecx+4]
  00162	c6 42 14 00	 mov	 BYTE PTR [edx+20], 0

; 978  : 					_Lrotate(_Parent(_Parent(_Pnode)));

  00166	8b 46 04	 mov	 eax, DWORD PTR [esi+4]
  00169	8b 48 04	 mov	 ecx, DWORD PTR [eax+4]
  0016c	51		 push	 ecx
  0016d	8b cf		 mov	 ecx, edi
  0016f	e8 00 00 00 00	 call	 ?_Lrotate@?$_Tree@V?$_Tmap_traits@EPAU__TAXDETAIL@@U?$less@E@std@@V?$allocator@U?$pair@$$CBEPAU__TAXDETAIL@@@std@@@3@$0A@@std@@@std@@IAEXPAU_Node@?$_Tree_nod@V?$_Tmap_traits@EPAU__TAXDETAIL@@U?$less@E@std@@V?$allocator@U?$pair@$$CBEPAU__TAXDETAIL@@@std@@@3@$0A@@std@@@2@@Z ; std::_Tree<std::_Tmap_traits<unsigned char,__TAXDETAIL *,std::less<unsigned char>,std::allocator<std::pair<unsigned char const ,__TAXDETAIL *> >,0> >::_Lrotate
$L209259:
  00174	8b 56 04	 mov	 edx, DWORD PTR [esi+4]
  00177	8a 4a 14	 mov	 cl, BYTE PTR [edx+20]
  0017a	84 c9		 test	 cl, cl
  0017c	8d 46 04	 lea	 eax, DWORD PTR [esi+4]
  0017f	0f 84 61 ff ff
	ff		 je	 $L209251
  00185	8b 4c 24 70	 mov	 ecx, DWORD PTR __Newnode$[esp+92]
  00189	5d		 pop	 ebp
$L209252:

; 979  : 					}
; 980  : 				}
; 981  : 
; 982  : 		_Color(_Root()) = _Black;	// root is always black

  0018a	8b 47 04	 mov	 eax, DWORD PTR [edi+4]
  0018d	8b 50 04	 mov	 edx, DWORD PTR [eax+4]

; 983  : 		return (_TREE_ITERATOR(_Newnode));

  00190	8b 44 24 60	 mov	 eax, DWORD PTR ___$ReturnUdt$[esp+88]
  00194	88 5a 14	 mov	 BYTE PTR [edx+20], bl
  00197	5b		 pop	 ebx
  00198	89 08		 mov	 DWORD PTR [eax], ecx

; 984  : 		}

  0019a	8b 4c 24 4c	 mov	 ecx, DWORD PTR __$EHRec$[esp+88]
  0019e	5f		 pop	 edi
  0019f	5e		 pop	 esi
  001a0	64 89 0d 00 00
	00 00		 mov	 DWORD PTR fs:__except_list, ecx
  001a7	83 c4 50	 add	 esp, 80			; 00000050H
  001aa	c2 10 00	 ret	 16			; 00000010H
$L218349:
_TEXT	ENDS
;	COMDAT text$x
text$x	SEGMENT
$L217981:
  00000	8d 4d b0	 lea	 ecx, DWORD PTR $T217980[ebp]
  00003	e9 00 00 00 00	 jmp	 ??1?$basic_string@DU?$char_traits@D@std@@V?$allocator@D@2@@std@@QAE@XZ ; std::basic_string<char,std::char_traits<char>,std::allocator<char> >::~basic_string<char,std::char_traits<char>,std::allocator<char> >
__ehhandler$?_Insert@?$_Tree@V?$_Tmap_traits@EPAU__TAXDETAIL@@U?$less@E@std@@V?$allocator@U?$pair@$$CBEPAU__TAXDETAIL@@@std@@@3@$0A@@std@@@std@@IAE?AViterator@12@_NPAU_Node@?$_Tree_nod@V?$_Tmap_traits@EPAU__TAXDETAIL@@U?$less@E@std@@V?$allocator@U?$pair@$$CBEPAU__TAXDETAIL@@@std@@@3@$0A@@std@@@2@ABU?$pair@$$CBEPAU__TAXDETAIL@@@2@@Z:
  00008	b8 00 00 00 00	 mov	 eax, OFFSET FLAT:$T218346
  0000d	e9 00 00 00 00	 jmp	 ___CxxFrameHandler
text$x	ENDS
?_Insert@?$_Tree@V?$_Tmap_traits@EPAU__TAXDETAIL@@U?$less@E@std@@V?$allocator@U?$pair@$$CBEPAU__TAXDETAIL@@@std@@@3@$0A@@std@@@std@@IAE?AViterator@12@_NPAU_Node@?$_Tree_nod@V?$_Tmap_traits@EPAU__TAXDETAIL@@U?$less@E@std@@V?$allocator@U?$pair@$$CBEPAU__TAXDETAIL@@@std@@@3@$0A@@std@@@2@ABU?$pair@$$CBEPAU__TAXDETAIL@@@2@@Z ENDP ; std::_Tree<std::_Tmap_traits<unsigned char,__TAXDETAIL *,std::less<unsigned char>,std::allocator<std::pair<unsigned char const ,__TAXDETAIL *> >,0> >::_Insert
PUBLIC	?_Insert@?$_Tree@V?$_Tmap_traits@EPAU__TAXINFO@@U?$less@E@std@@V?$allocator@U?$pair@$$CBEPAU__TAXINFO@@@std@@@3@$0A@@std@@@std@@IAE?AViterator@12@_NPAU_Node@?$_Tree_nod@V?$_Tmap_traits@EPAU__TAXINFO@@U?$less@E@std@@V?$allocator@U?$pair@$$CBEPAU__TAXINFO@@@std@@@3@$0A@@std@@@2@ABU?$pair@$$CBEPAU__TAXINFO@@@2@@Z ; std::_Tree<std::_Tmap_traits<unsigned char,__TAXINFO *,std::less<unsigned char>,std::allocator<std::pair<unsigned char const ,__TAXINFO *> >,0> >::_Insert
;	COMDAT xdata$x
xdata$x	SEGMENT
$T218728 DD	0ffffffffH
	DD	FLAT:$L218358
$T218723 DD	019930520H
	DD	01H
	DD	FLAT:$T218728
	DD	2 DUP(00H)
	DD	2 DUP(00H)
; Function compile flags: /Ogty
xdata$x	ENDS
;	COMDAT ?_Insert@?$_Tree@V?$_Tmap_traits@EPAU__TAXINFO@@U?$less@E@std@@V?$allocator@U?$pair@$$CBEPAU__TAXINFO@@@std@@@3@$0A@@std@@@std@@IAE?AViterator@12@_NPAU_Node@?$_Tree_nod@V?$_Tmap_traits@EPAU__TAXINFO@@U?$less@E@std@@V?$allocator@U?$pair@$$CBEPAU__TAXINFO@@@std@@@3@$0A@@std@@@2@ABU?$pair@$$CBEPAU__TAXINFO@@@2@@Z
_TEXT	SEGMENT
$T218357 = -80						; size = 28
$T218356 = -52						; size = 40
__$EHRec$ = -12						; size = 12
___$ReturnUdt$ = 8					; size = 4
__Addleft$ = 12						; size = 1
__Wherenode$ = 16					; size = 4
__Newnode$ = 20						; size = 4
__Val$ = 20						; size = 4
?_Insert@?$_Tree@V?$_Tmap_traits@EPAU__TAXINFO@@U?$less@E@std@@V?$allocator@U?$pair@$$CBEPAU__TAXINFO@@@std@@@3@$0A@@std@@@std@@IAE?AViterator@12@_NPAU_Node@?$_Tree_nod@V?$_Tmap_traits@EPAU__TAXINFO@@U?$less@E@std@@V?$allocator@U?$pair@$$CBEPAU__TAXINFO@@@std@@@3@$0A@@std@@@2@ABU?$pair@$$CBEPAU__TAXINFO@@@2@@Z PROC NEAR ; std::_Tree<std::_Tmap_traits<unsigned char,__TAXINFO *,std::less<unsigned char>,std::allocator<std::pair<unsigned char const ,__TAXINFO *> >,0> >::_Insert, COMDAT
; _this$ = ecx

; 911  : 		{	// add node with value next to _Wherenode, to left if _Addnode

  00000	64 a1 00 00 00
	00		 mov	 eax, DWORD PTR fs:__except_list
  00006	6a ff		 push	 -1
  00008	68 00 00 00 00	 push	 __ehhandler$?_Insert@?$_Tree@V?$_Tmap_traits@EPAU__TAXINFO@@U?$less@E@std@@V?$allocator@U?$pair@$$CBEPAU__TAXINFO@@@std@@@3@$0A@@std@@@std@@IAE?AViterator@12@_NPAU_Node@?$_Tree_nod@V?$_Tmap_traits@EPAU__TAXINFO@@U?$less@E@std@@V?$allocator@U?$pair@$$CBEPAU__TAXINFO@@@std@@@3@$0A@@std@@@2@ABU?$pair@$$CBEPAU__TAXINFO@@@2@@Z
  0000d	50		 push	 eax
  0000e	64 89 25 00 00
	00 00		 mov	 DWORD PTR fs:__except_list, esp
  00015	83 ec 44	 sub	 esp, 68			; 00000044H
  00018	56		 push	 esi
  00019	57		 push	 edi
  0001a	8b f9		 mov	 edi, ecx

; 912  : 		if (max_size() - 1 <= _Mysize)

  0001c	81 7f 08 fe ff
	ff 1f		 cmp	 DWORD PTR [edi+8], 536870910 ; 1ffffffeH
  00023	72 4c		 jb	 SHORT $L209331

; 913  : 			_THROW(length_error, "map/set<T> too long");

  00025	6a 13		 push	 19			; 00000013H
  00027	33 f6		 xor	 esi, esi
  00029	68 00 00 00 00	 push	 OFFSET FLAT:??_C@_0BE@JONHPENG@map?1set?$DMT?$DO?5too?5long?$AA@
  0002e	8d 4c 24 10	 lea	 ecx, DWORD PTR $T218357[esp+96]
  00032	c7 44 24 28 0f
	00 00 00	 mov	 DWORD PTR $T218357[esp+120], 15 ; 0000000fH
  0003a	89 74 24 24	 mov	 DWORD PTR $T218357[esp+116], esi
  0003e	c6 44 24 14 00	 mov	 BYTE PTR $T218357[esp+100], 0
  00043	e8 00 00 00 00	 call	 ?assign@?$basic_string@DU?$char_traits@D@std@@V?$allocator@D@2@@std@@QAEAAV12@PBDI@Z ; std::basic_string<char,std::char_traits<char>,std::allocator<char> >::assign
  00048	8d 44 24 08	 lea	 eax, DWORD PTR $T218357[esp+88]
  0004c	50		 push	 eax
  0004d	8d 4c 24 28	 lea	 ecx, DWORD PTR $T218356[esp+92]
  00051	89 74 24 58	 mov	 DWORD PTR __$EHRec$[esp+100], esi
  00055	e8 00 00 00 00	 call	 ??0logic_error@std@@QAE@ABV?$basic_string@DU?$char_traits@D@std@@V?$allocator@D@2@@1@@Z ; std::logic_error::logic_error
  0005a	68 00 00 00 00	 push	 OFFSET FLAT:__TI3?AVlength_error@std@@
  0005f	8d 4c 24 28	 lea	 ecx, DWORD PTR $T218356[esp+92]
  00063	51		 push	 ecx
  00064	c7 44 24 2c 00
	00 00 00	 mov	 DWORD PTR $T218356[esp+96], OFFSET FLAT:??_7length_error@std@@6B@
  0006c	e8 00 00 00 00	 call	 __CxxThrowException@8
$L209331:

; 914  : 		_Nodeptr _Newnode = _Buynode(_Myhead, _Wherenode, _Myhead,
; 915  : 			_Val, _Red);

  00071	8b 54 24 68	 mov	 edx, DWORD PTR __Val$[esp+84]
  00075	8b 47 04	 mov	 eax, DWORD PTR [edi+4]
  00078	8b 74 24 64	 mov	 esi, DWORD PTR __Wherenode$[esp+84]
  0007c	53		 push	 ebx
  0007d	6a 00		 push	 0
  0007f	52		 push	 edx
  00080	50		 push	 eax
  00081	56		 push	 esi
  00082	50		 push	 eax
  00083	8b cf		 mov	 ecx, edi
  00085	e8 00 00 00 00	 call	 ?_Buynode@?$_Tree@V?$_Tmap_traits@EPAU__TAXINFO@@U?$less@E@std@@V?$allocator@U?$pair@$$CBEPAU__TAXINFO@@@std@@@3@$0A@@std@@@std@@IAEPAU_Node@?$_Tree_nod@V?$_Tmap_traits@EPAU__TAXINFO@@U?$less@E@std@@V?$allocator@U?$pair@$$CBEPAU__TAXINFO@@@std@@@3@$0A@@std@@@2@PAU342@00ABU?$pair@$$CBEPAU__TAXINFO@@@2@D@Z ; std::_Tree<std::_Tmap_traits<unsigned char,__TAXINFO *,std::less<unsigned char>,std::allocator<std::pair<unsigned char const ,__TAXINFO *> >,0> >::_Buynode

; 916  : 
; 917  : 		++_Mysize;

  0008a	8b 5f 08	 mov	 ebx, DWORD PTR [edi+8]
  0008d	8b c8		 mov	 ecx, eax

; 918  : 		if (_Wherenode == _Myhead)

  0008f	8b 47 04	 mov	 eax, DWORD PTR [edi+4]
  00092	43		 inc	 ebx
  00093	3b f0		 cmp	 esi, eax
  00095	89 4c 24 6c	 mov	 DWORD PTR __Newnode$[esp+88], ecx
  00099	89 5f 08	 mov	 DWORD PTR [edi+8], ebx
  0009c	75 10		 jne	 SHORT $L209336

; 919  : 			{	// first node in tree, just set head values
; 920  : 			_Root() = _Newnode;

  0009e	89 48 04	 mov	 DWORD PTR [eax+4], ecx

; 921  : 			_Lmost() = _Newnode, _Rmost() = _Newnode;

  000a1	8b 47 04	 mov	 eax, DWORD PTR [edi+4]
  000a4	89 08		 mov	 DWORD PTR [eax], ecx
  000a6	8b 57 04	 mov	 edx, DWORD PTR [edi+4]
  000a9	89 4a 08	 mov	 DWORD PTR [edx+8], ecx

; 922  : 			}
; 923  : 		else if (_Addleft)

  000ac	eb 23		 jmp	 SHORT $L209341
$L209336:
  000ae	8a 44 24 64	 mov	 al, BYTE PTR __Addleft$[esp+88]
  000b2	84 c0		 test	 al, al
  000b4	74 0d		 je	 SHORT $L209338

; 924  : 			{	// add to left of _Wherenode
; 925  : 			_Left(_Wherenode) = _Newnode;

  000b6	89 0e		 mov	 DWORD PTR [esi], ecx

; 926  : 			if (_Wherenode == _Lmost())

  000b8	8b 47 04	 mov	 eax, DWORD PTR [edi+4]
  000bb	3b 30		 cmp	 esi, DWORD PTR [eax]
  000bd	75 12		 jne	 SHORT $L209341

; 927  : 				_Lmost() = _Newnode;

  000bf	89 08		 mov	 DWORD PTR [eax], ecx

; 928  : 			}
; 929  : 		else

  000c1	eb 0e		 jmp	 SHORT $L209341
$L209338:

; 930  : 			{	// add to right of _Wherenode
; 931  : 			_Right(_Wherenode) = _Newnode;

  000c3	89 4e 08	 mov	 DWORD PTR [esi+8], ecx

; 932  : 			if (_Wherenode == _Rmost())

  000c6	8b 47 04	 mov	 eax, DWORD PTR [edi+4]
  000c9	3b 70 08	 cmp	 esi, DWORD PTR [eax+8]
  000cc	75 03		 jne	 SHORT $L209341

; 933  : 				_Rmost() = _Newnode;

  000ce	89 48 08	 mov	 DWORD PTR [eax+8], ecx
$L209341:

; 934  : 			}
; 935  : 
; 936  : 		for (_Nodeptr _Pnode = _Newnode; _Color(_Parent(_Pnode)) == _Red; )

  000d1	8b 51 04	 mov	 edx, DWORD PTR [ecx+4]
  000d4	80 7a 14 00	 cmp	 BYTE PTR [edx+20], 0
  000d8	8d 41 04	 lea	 eax, DWORD PTR [ecx+4]
  000db	8b f1		 mov	 esi, ecx
  000dd	b3 01		 mov	 bl, 1
  000df	0f 85 a5 00 00
	00		 jne	 $L209345
  000e5	55		 push	 ebp
$L209344:

; 937  : 			if (_Parent(_Pnode) == _Left(_Parent(_Parent(_Pnode))))

  000e6	8b 08		 mov	 ecx, DWORD PTR [eax]
  000e8	8b 69 04	 mov	 ebp, DWORD PTR [ecx+4]
  000eb	8b 55 00	 mov	 edx, DWORD PTR [ebp]
  000ee	3b ca		 cmp	 ecx, edx
  000f0	75 50		 jne	 SHORT $L209346

; 938  : 				{	// fixup red-red in left subtree
; 939  : 				_Wherenode = _Right(_Parent(_Parent(_Pnode)));

  000f2	8b 55 08	 mov	 edx, DWORD PTR [ebp+8]

; 940  : 				if (_Color(_Wherenode) == _Red)

  000f5	80 7a 14 00	 cmp	 BYTE PTR [edx+20], 0
  000f9	75 18		 jne	 SHORT $L209347
$L218727:

; 941  : 					{	// parent has two red children, blacken both
; 942  : 					_Color(_Parent(_Pnode)) = _Black;

  000fb	8b 08		 mov	 ecx, DWORD PTR [eax]
  000fd	88 59 14	 mov	 BYTE PTR [ecx+20], bl

; 943  : 					_Color(_Wherenode) = _Black;

  00100	88 5a 14	 mov	 BYTE PTR [edx+20], bl

; 944  : 					_Color(_Parent(_Parent(_Pnode))) = _Red;

  00103	8b 10		 mov	 edx, DWORD PTR [eax]
  00105	8b 4a 04	 mov	 ecx, DWORD PTR [edx+4]
  00108	c6 41 14 00	 mov	 BYTE PTR [ecx+20], 0

; 945  : 					_Pnode = _Parent(_Parent(_Pnode));

  0010c	8b 10		 mov	 edx, DWORD PTR [eax]
  0010e	8b 72 04	 mov	 esi, DWORD PTR [edx+4]

; 946  : 					}
; 947  : 				else

  00111	eb 61		 jmp	 SHORT $L209352
$L209347:

; 948  : 					{	// parent has red and black children
; 949  : 					if (_Pnode == _Right(_Parent(_Pnode)))

  00113	3b 71 08	 cmp	 esi, DWORD PTR [ecx+8]
  00116	75 0a		 jne	 SHORT $L209349

; 950  : 						{	// rotate right child to left
; 951  : 						_Pnode = _Parent(_Pnode);

  00118	8b f1		 mov	 esi, ecx

; 952  : 						_Lrotate(_Pnode);

  0011a	56		 push	 esi
  0011b	8b cf		 mov	 ecx, edi
  0011d	e8 00 00 00 00	 call	 ?_Lrotate@?$_Tree@V?$_Tmap_traits@EPAU__TAXINFO@@U?$less@E@std@@V?$allocator@U?$pair@$$CBEPAU__TAXINFO@@@std@@@3@$0A@@std@@@std@@IAEXPAU_Node@?$_Tree_nod@V?$_Tmap_traits@EPAU__TAXINFO@@U?$less@E@std@@V?$allocator@U?$pair@$$CBEPAU__TAXINFO@@@std@@@3@$0A@@std@@@2@@Z ; std::_Tree<std::_Tmap_traits<unsigned char,__TAXINFO *,std::less<unsigned char>,std::allocator<std::pair<unsigned char const ,__TAXINFO *> >,0> >::_Lrotate
$L209349:

; 953  : 						}
; 954  : 					_Color(_Parent(_Pnode)) = _Black;	// propagate red up

  00122	8b 46 04	 mov	 eax, DWORD PTR [esi+4]
  00125	88 58 14	 mov	 BYTE PTR [eax+20], bl

; 955  : 					_Color(_Parent(_Parent(_Pnode))) = _Red;

  00128	8b 4e 04	 mov	 ecx, DWORD PTR [esi+4]
  0012b	8b 51 04	 mov	 edx, DWORD PTR [ecx+4]
  0012e	c6 42 14 00	 mov	 BYTE PTR [edx+20], 0

; 956  : 					_Rrotate(_Parent(_Parent(_Pnode)));

  00132	8b 46 04	 mov	 eax, DWORD PTR [esi+4]
  00135	8b 48 04	 mov	 ecx, DWORD PTR [eax+4]
  00138	51		 push	 ecx
  00139	8b cf		 mov	 ecx, edi
  0013b	e8 00 00 00 00	 call	 ?_Rrotate@?$_Tree@V?$_Tmap_traits@EPAU__TAXINFO@@U?$less@E@std@@V?$allocator@U?$pair@$$CBEPAU__TAXINFO@@@std@@@3@$0A@@std@@@std@@IAEXPAU_Node@?$_Tree_nod@V?$_Tmap_traits@EPAU__TAXINFO@@U?$less@E@std@@V?$allocator@U?$pair@$$CBEPAU__TAXINFO@@@std@@@3@$0A@@std@@@2@@Z ; std::_Tree<std::_Tmap_traits<unsigned char,__TAXINFO *,std::less<unsigned char>,std::allocator<std::pair<unsigned char const ,__TAXINFO *> >,0> >::_Rrotate

; 957  : 					}
; 958  : 				}
; 959  : 			else

  00140	eb 32		 jmp	 SHORT $L209352
$L209346:

; 960  : 				{	// fixup red-red in right subtree
; 961  : 				_Wherenode = _Left(_Parent(_Parent(_Pnode)));
; 962  : 				if (_Color(_Wherenode) == _Red)

  00142	80 7a 14 00	 cmp	 BYTE PTR [edx+20], 0

; 963  : 					{	// parent has two red children, blacken both
; 964  : 					_Color(_Parent(_Pnode)) = _Black;
; 965  : 					_Color(_Wherenode) = _Black;
; 966  : 					_Color(_Parent(_Parent(_Pnode))) = _Red;
; 967  : 					_Pnode = _Parent(_Parent(_Pnode));
; 968  : 					}
; 969  : 				else

  00146	74 b3		 je	 SHORT $L218727

; 970  : 					{	// parent has red and black children
; 971  : 					if (_Pnode == _Left(_Parent(_Pnode)))

  00148	3b 31		 cmp	 esi, DWORD PTR [ecx]
  0014a	75 0a		 jne	 SHORT $L209353

; 972  : 						{	// rotate left child to right
; 973  : 						_Pnode = _Parent(_Pnode);

  0014c	8b f1		 mov	 esi, ecx

; 974  : 						_Rrotate(_Pnode);

  0014e	56		 push	 esi
  0014f	8b cf		 mov	 ecx, edi
  00151	e8 00 00 00 00	 call	 ?_Rrotate@?$_Tree@V?$_Tmap_traits@EPAU__TAXINFO@@U?$less@E@std@@V?$allocator@U?$pair@$$CBEPAU__TAXINFO@@@std@@@3@$0A@@std@@@std@@IAEXPAU_Node@?$_Tree_nod@V?$_Tmap_traits@EPAU__TAXINFO@@U?$less@E@std@@V?$allocator@U?$pair@$$CBEPAU__TAXINFO@@@std@@@3@$0A@@std@@@2@@Z ; std::_Tree<std::_Tmap_traits<unsigned char,__TAXINFO *,std::less<unsigned char>,std::allocator<std::pair<unsigned char const ,__TAXINFO *> >,0> >::_Rrotate
$L209353:

; 975  : 						}
; 976  : 					_Color(_Parent(_Pnode)) = _Black;	// propagate red up

  00156	8b 46 04	 mov	 eax, DWORD PTR [esi+4]
  00159	88 58 14	 mov	 BYTE PTR [eax+20], bl

; 977  : 					_Color(_Parent(_Parent(_Pnode))) = _Red;

  0015c	8b 4e 04	 mov	 ecx, DWORD PTR [esi+4]
  0015f	8b 51 04	 mov	 edx, DWORD PTR [ecx+4]
  00162	c6 42 14 00	 mov	 BYTE PTR [edx+20], 0

; 978  : 					_Lrotate(_Parent(_Parent(_Pnode)));

  00166	8b 46 04	 mov	 eax, DWORD PTR [esi+4]
  00169	8b 48 04	 mov	 ecx, DWORD PTR [eax+4]
  0016c	51		 push	 ecx
  0016d	8b cf		 mov	 ecx, edi
  0016f	e8 00 00 00 00	 call	 ?_Lrotate@?$_Tree@V?$_Tmap_traits@EPAU__TAXINFO@@U?$less@E@std@@V?$allocator@U?$pair@$$CBEPAU__TAXINFO@@@std@@@3@$0A@@std@@@std@@IAEXPAU_Node@?$_Tree_nod@V?$_Tmap_traits@EPAU__TAXINFO@@U?$less@E@std@@V?$allocator@U?$pair@$$CBEPAU__TAXINFO@@@std@@@3@$0A@@std@@@2@@Z ; std::_Tree<std::_Tmap_traits<unsigned char,__TAXINFO *,std::less<unsigned char>,std::allocator<std::pair<unsigned char const ,__TAXINFO *> >,0> >::_Lrotate
$L209352:
  00174	8b 56 04	 mov	 edx, DWORD PTR [esi+4]
  00177	8a 4a 14	 mov	 cl, BYTE PTR [edx+20]
  0017a	84 c9		 test	 cl, cl
  0017c	8d 46 04	 lea	 eax, DWORD PTR [esi+4]
  0017f	0f 84 61 ff ff
	ff		 je	 $L209344
  00185	8b 4c 24 70	 mov	 ecx, DWORD PTR __Newnode$[esp+92]
  00189	5d		 pop	 ebp
$L209345:

; 979  : 					}
; 980  : 				}
; 981  : 
; 982  : 		_Color(_Root()) = _Black;	// root is always black

  0018a	8b 47 04	 mov	 eax, DWORD PTR [edi+4]
  0018d	8b 50 04	 mov	 edx, DWORD PTR [eax+4]

; 983  : 		return (_TREE_ITERATOR(_Newnode));

  00190	8b 44 24 60	 mov	 eax, DWORD PTR ___$ReturnUdt$[esp+88]
  00194	88 5a 14	 mov	 BYTE PTR [edx+20], bl
  00197	5b		 pop	 ebx
  00198	89 08		 mov	 DWORD PTR [eax], ecx

; 984  : 		}

  0019a	8b 4c 24 4c	 mov	 ecx, DWORD PTR __$EHRec$[esp+88]
  0019e	5f		 pop	 edi
  0019f	5e		 pop	 esi
  001a0	64 89 0d 00 00
	00 00		 mov	 DWORD PTR fs:__except_list, ecx
  001a7	83 c4 50	 add	 esp, 80			; 00000050H
  001aa	c2 10 00	 ret	 16			; 00000010H
$L218726:
_TEXT	ENDS
;	COMDAT text$x
text$x	SEGMENT
$L218358:
  00000	8d 4d b0	 lea	 ecx, DWORD PTR $T218357[ebp]
  00003	e9 00 00 00 00	 jmp	 ??1?$basic_string@DU?$char_traits@D@std@@V?$allocator@D@2@@std@@QAE@XZ ; std::basic_string<char,std::char_traits<char>,std::allocator<char> >::~basic_string<char,std::char_traits<char>,std::allocator<char> >
__ehhandler$?_Insert@?$_Tree@V?$_Tmap_traits@EPAU__TAXINFO@@U?$less@E@std@@V?$allocator@U?$pair@$$CBEPAU__TAXINFO@@@std@@@3@$0A@@std@@@std@@IAE?AViterator@12@_NPAU_Node@?$_Tree_nod@V?$_Tmap_traits@EPAU__TAXINFO@@U?$less@E@std@@V?$allocator@U?$pair@$$CBEPAU__TAXINFO@@@std@@@3@$0A@@std@@@2@ABU?$pair@$$CBEPAU__TAXINFO@@@2@@Z:
  00008	b8 00 00 00 00	 mov	 eax, OFFSET FLAT:$T218723
  0000d	e9 00 00 00 00	 jmp	 ___CxxFrameHandler
text$x	ENDS
?_Insert@?$_Tree@V?$_Tmap_traits@EPAU__TAXINFO@@U?$less@E@std@@V?$allocator@U?$pair@$$CBEPAU__TAXINFO@@@std@@@3@$0A@@std@@@std@@IAE?AViterator@12@_NPAU_Node@?$_Tree_nod@V?$_Tmap_traits@EPAU__TAXINFO@@U?$less@E@std@@V?$allocator@U?$pair@$$CBEPAU__TAXINFO@@@std@@@3@$0A@@std@@@2@ABU?$pair@$$CBEPAU__TAXINFO@@@2@@Z ENDP ; std::_Tree<std::_Tmap_traits<unsigned char,__TAXINFO *,std::less<unsigned char>,std::allocator<std::pair<unsigned char const ,__TAXINFO *> >,0> >::_Insert
PUBLIC	?_Insert_n@?$vector@KV?$allocator@K@std@@@std@@IAEXViterator@12@IABK@Z ; std::vector<unsigned long,std::allocator<unsigned long> >::_Insert_n
; Function compile flags: /Ogty
; File c:\program files\microsoft visual studio .net 2003\vc7\include\vector
;	COMDAT ?_Insert_n@?$vector@KV?$allocator@K@std@@@std@@IAEXViterator@12@IABK@Z
_TEXT	SEGMENT
__Newvec$209472 = -4					; size = 4
tv393 = 8						; size = 4
__Where$ = 8						; size = 4
tv382 = 12						; size = 4
__Count$ = 12						; size = 4
__Tmp$ = 16						; size = 4
__Val$ = 16						; size = 4
?_Insert_n@?$vector@KV?$allocator@K@std@@@std@@IAEXViterator@12@IABK@Z PROC NEAR ; std::vector<unsigned long,std::allocator<unsigned long> >::_Insert_n, COMDAT
; _this$ = ecx

; 809  : 		{	// insert _Count * _Val at _Where

  00000	51		 push	 ecx

; 810  : 		_Ty _Tmp = _Val;	// in case _Val is in sequence

  00001	8b 44 24 10	 mov	 eax, DWORD PTR __Val$[esp]
  00005	56		 push	 esi
  00006	8b f1		 mov	 esi, ecx

; 811  : 		size_type _Capacity = capacity();

  00008	8b 56 04	 mov	 edx, DWORD PTR [esi+4]
  0000b	85 d2		 test	 edx, edx
  0000d	8b 08		 mov	 ecx, DWORD PTR [eax]
  0000f	57		 push	 edi
  00010	89 4c 24 18	 mov	 DWORD PTR __Tmp$[esp+8], ecx
  00014	75 04		 jne	 SHORT $L218744
  00016	33 c0		 xor	 eax, eax
  00018	eb 08		 jmp	 SHORT $L218745
$L218744:
  0001a	8b 46 0c	 mov	 eax, DWORD PTR [esi+12]
  0001d	2b c2		 sub	 eax, edx
  0001f	c1 f8 02	 sar	 eax, 2
$L218745:

; 812  : 
; 813  : 		if (_Count == 0)

  00022	8b 7c 24 14	 mov	 edi, DWORD PTR __Count$[esp+8]
  00026	85 ff		 test	 edi, edi
  00028	0f 84 ac 01 00
	00		 je	 $L209492

; 814  : 			;
; 815  : 		else if (max_size() - size() < _Count)

  0002e	85 d2		 test	 edx, edx
  00030	75 04		 jne	 SHORT $L218767
  00032	33 c9		 xor	 ecx, ecx
  00034	eb 08		 jmp	 SHORT $L218768
$L218767:
  00036	8b 4e 08	 mov	 ecx, DWORD PTR [esi+8]
  00039	2b ca		 sub	 ecx, edx
  0003b	c1 f9 02	 sar	 ecx, 2
$L218768:
  0003e	53		 push	 ebx
  0003f	bb ff ff ff 3f	 mov	 ebx, 1073741823		; 3fffffffH
  00044	2b d9		 sub	 ebx, ecx
  00046	3b df		 cmp	 ebx, edi
  00048	73 07		 jae	 SHORT $L209468

; 816  : 			_Xlen();	// result too long

  0004a	8b ce		 mov	 ecx, esi
  0004c	e8 00 00 00 00	 call	 ?_Xlen@?$vector@KV?$allocator@K@std@@@std@@IBEXXZ ; std::vector<unsigned long,std::allocator<unsigned long> >::_Xlen
$L209468:

; 817  : 		else if (_Capacity < size() + _Count)

  00051	85 d2		 test	 edx, edx
  00053	75 04		 jne	 SHORT $L218774
  00055	33 c9		 xor	 ecx, ecx
  00057	eb 08		 jmp	 SHORT $L218775
$L218774:
  00059	8b 4e 08	 mov	 ecx, DWORD PTR [esi+8]
  0005c	2b ca		 sub	 ecx, edx
  0005e	c1 f9 02	 sar	 ecx, 2
$L218775:
  00061	03 cf		 add	 ecx, edi
  00063	3b c1		 cmp	 eax, ecx
  00065	55		 push	 ebp
  00066	0f 83 d6 00 00
	00		 jae	 $L209470

; 818  : 			{	// not enough room, reallocate
; 819  : 			_Capacity = max_size() - _Capacity / 2 < _Capacity
; 820  : 				? 0 : _Capacity + _Capacity / 2;	// try to grow by 50%

  0006c	8b c8		 mov	 ecx, eax
  0006e	d1 e9		 shr	 ecx, 1
  00070	bb ff ff ff 3f	 mov	 ebx, 1073741823		; 3fffffffH
  00075	2b d9		 sub	 ebx, ecx
  00077	3b d8		 cmp	 ebx, eax
  00079	73 04		 jae	 SHORT $L218733
  0007b	33 c0		 xor	 eax, eax
  0007d	eb 02		 jmp	 SHORT $L218734
$L218733:
  0007f	03 c1		 add	 eax, ecx
$L218734:

; 821  : 			if (_Capacity < size() + _Count)

  00081	85 d2		 test	 edx, edx
  00083	75 04		 jne	 SHORT $L218797
  00085	33 c9		 xor	 ecx, ecx
  00087	eb 08		 jmp	 SHORT $L218798
$L218797:
  00089	8b 4e 08	 mov	 ecx, DWORD PTR [esi+8]
  0008c	2b ca		 sub	 ecx, edx
  0008e	c1 f9 02	 sar	 ecx, 2
$L218798:
  00091	03 cf		 add	 ecx, edi
  00093	3b c1		 cmp	 eax, ecx
  00095	73 12		 jae	 SHORT $L209471

; 822  : 				_Capacity = size() + _Count;

  00097	85 d2		 test	 edx, edx
  00099	75 04		 jne	 SHORT $L218804
  0009b	33 c0		 xor	 eax, eax
  0009d	eb 08		 jmp	 SHORT $L218805
$L218804:
  0009f	8b 46 08	 mov	 eax, DWORD PTR [esi+8]
  000a2	2b c2		 sub	 eax, edx
  000a4	c1 f8 02	 sar	 eax, 2
$L218805:
  000a7	03 c7		 add	 eax, edi
$L209471:

; 823  : 			pointer _Newvec = this->_Alval.allocate(_Capacity);

  000a9	c1 e0 02	 shl	 eax, 2
  000ac	50		 push	 eax
  000ad	89 44 24 20	 mov	 DWORD PTR tv382[esp+20], eax
  000b1	e8 00 00 00 00	 call	 ??2@YAPAXI@Z		; operator new

; 824  : 			pointer _Ptr = _Newvec;
; 825  : 
; 826  : 			_TRY_BEGIN
; 827  : 			_Ptr = _Ucopy(_Myfirst, _ITER_BASE(_Where),
; 828  : 				_Newvec);	// copy prefix

  000b6	8b 4e 04	 mov	 ecx, DWORD PTR [esi+4]
  000b9	8b 5c 24 1c	 mov	 ebx, DWORD PTR __Where$[esp+20]
  000bd	8b d0		 mov	 edx, eax
  000bf	8b c3		 mov	 eax, ebx
  000c1	2b c1		 sub	 eax, ecx
  000c3	c1 f8 02	 sar	 eax, 2
  000c6	8d 2c 85 00 00
	00 00		 lea	 ebp, DWORD PTR [eax*4]
  000cd	55		 push	 ebp
  000ce	51		 push	 ecx
  000cf	52		 push	 edx
  000d0	89 54 24 20	 mov	 DWORD PTR __Newvec$209472[esp+36], edx
  000d4	e8 00 00 00 00	 call	 _memmove
  000d9	83 c4 10	 add	 esp, 16			; 00000010H

; 829  : 			_Ptr = _Ufill(_Ptr, _Count, _Tmp);	// add new stuff

  000dc	8d 54 24 20	 lea	 edx, DWORD PTR __Tmp$[esp+16]
  000e0	52		 push	 edx
  000e1	03 c5		 add	 eax, ebp
  000e3	57		 push	 edi
  000e4	50		 push	 eax
  000e5	8b ce		 mov	 ecx, esi
  000e7	e8 00 00 00 00	 call	 ?_Ufill@?$vector@KV?$allocator@K@std@@@std@@IAEPAKPAKIABK@Z ; std::vector<unsigned long,std::allocator<unsigned long> >::_Ufill

; 830  : 			_Ucopy(_ITER_BASE(_Where), _Mylast, _Ptr);	// copy suffix

  000ec	8b 4e 08	 mov	 ecx, DWORD PTR [esi+8]
  000ef	2b cb		 sub	 ecx, ebx
  000f1	c1 f9 02	 sar	 ecx, 2
  000f4	c1 e1 02	 shl	 ecx, 2
  000f7	51		 push	 ecx
  000f8	53		 push	 ebx
  000f9	50		 push	 eax
  000fa	e8 00 00 00 00	 call	 _memmove

; 831  : 			_CATCH_ALL
; 832  : 			_Destroy(_Newvec, _Ptr);
; 833  : 			this->_Alval.deallocate(_Newvec, _Capacity);
; 834  : 			_RERAISE;
; 835  : 			_CATCH_END
; 836  : 
; 837  : 			_Count += size();

  000ff	8b 46 04	 mov	 eax, DWORD PTR [esi+4]
  00102	83 c4 0c	 add	 esp, 12			; 0000000cH
  00105	85 c0		 test	 eax, eax
  00107	75 04		 jne	 SHORT $L218886
  00109	33 c9		 xor	 ecx, ecx
  0010b	eb 08		 jmp	 SHORT $L218887
$L218886:
  0010d	8b 4e 08	 mov	 ecx, DWORD PTR [esi+8]
  00110	2b c8		 sub	 ecx, eax
  00112	c1 f9 02	 sar	 ecx, 2
$L218887:
  00115	03 f9		 add	 edi, ecx

; 838  : 			if (_Myfirst != 0)

  00117	85 c0		 test	 eax, eax
  00119	74 09		 je	 SHORT $L218889

; 839  : 				{	// destroy and deallocate old array
; 840  : 				_Destroy(_Myfirst, _Mylast);
; 841  : 				this->_Alval.deallocate(_Myfirst, _Myend - _Myfirst);

  0011b	50		 push	 eax
  0011c	e8 00 00 00 00	 call	 ??3@YAXPAX@Z		; operator delete
  00121	83 c4 04	 add	 esp, 4
$L218889:

; 842  : 				}
; 843  : 			_Myend = _Newvec + _Capacity;

  00124	8b 44 24 10	 mov	 eax, DWORD PTR __Newvec$209472[esp+20]
  00128	8b 54 24 1c	 mov	 edx, DWORD PTR tv382[esp+16]
  0012c	5d		 pop	 ebp
  0012d	5b		 pop	 ebx

; 844  : 			_Mylast = _Newvec + _Count;

  0012e	8d 0c b8	 lea	 ecx, DWORD PTR [eax+edi*4]
  00131	03 d0		 add	 edx, eax
  00133	5f		 pop	 edi
  00134	89 56 0c	 mov	 DWORD PTR [esi+12], edx
  00137	89 4e 08	 mov	 DWORD PTR [esi+8], ecx

; 845  : 			_Myfirst = _Newvec;

  0013a	89 46 04	 mov	 DWORD PTR [esi+4], eax
  0013d	5e		 pop	 esi

; 873  : 			}
; 874  : 		}

  0013e	59		 pop	 ecx
  0013f	c2 0c 00	 ret	 12			; 0000000cH
$L209470:

; 846  : 			}
; 847  : 		else if ((size_type)(_Mylast - _ITER_BASE(_Where)) < _Count)

  00142	8b 6e 08	 mov	 ebp, DWORD PTR [esi+8]
  00145	8b 5c 24 18	 mov	 ebx, DWORD PTR __Where$[esp+16]
  00149	8b d5		 mov	 edx, ebp
  0014b	2b d3		 sub	 edx, ebx
  0014d	c1 fa 02	 sar	 edx, 2
  00150	3b d7		 cmp	 edx, edi

; 848  : 			{	// new stuff spills off end
; 849  : 			_Ucopy(_ITER_BASE(_Where), _Mylast,
; 850  : 				_ITER_BASE(_Where) + _Count);	// copy suffix

  00152	8d 04 bd 00 00
	00 00		 lea	 eax, DWORD PTR [edi*4]
  00159	8b ce		 mov	 ecx, esi
  0015b	89 44 24 18	 mov	 DWORD PTR tv393[esp+16], eax
  0015f	73 4b		 jae	 SHORT $L209483
  00161	03 c3		 add	 eax, ebx
  00163	50		 push	 eax
  00164	55		 push	 ebp
  00165	53		 push	 ebx
  00166	e8 00 00 00 00	 call	 ??$_Ucopy@PAK@?$vector@KV?$allocator@K@std@@@std@@IAEPAKPAK00@Z ; std::vector<unsigned long,std::allocator<unsigned long> >::_Ucopy<unsigned long *>

; 851  : 
; 852  : 			_TRY_BEGIN
; 853  : 			_Ufill(_Mylast, _Count - (_Mylast - _ITER_BASE(_Where)),
; 854  : 				_Tmp);	// insert new stuff off end

  0016b	8b 46 08	 mov	 eax, DWORD PTR [esi+8]
  0016e	8b d0		 mov	 edx, eax
  00170	2b d3		 sub	 edx, ebx
  00172	8d 4c 24 20	 lea	 ecx, DWORD PTR __Tmp$[esp+16]
  00176	51		 push	 ecx
  00177	c1 fa 02	 sar	 edx, 2
  0017a	2b fa		 sub	 edi, edx
  0017c	57		 push	 edi
  0017d	50		 push	 eax
  0017e	8b ce		 mov	 ecx, esi
  00180	e8 00 00 00 00	 call	 ?_Ufill@?$vector@KV?$allocator@K@std@@@std@@IAEPAKPAKIABK@Z ; std::vector<unsigned long,std::allocator<unsigned long> >::_Ufill

; 855  : 			_CATCH_ALL
; 856  : 			_Destroy(_ITER_BASE(_Where) + _Count, _Mylast + _Count);
; 857  : 			_RERAISE;
; 858  : 			_CATCH_END
; 859  : 
; 860  : 			_Mylast += _Count;

  00185	8b 4e 08	 mov	 ecx, DWORD PTR [esi+8]
  00188	8b 44 24 18	 mov	 eax, DWORD PTR tv393[esp+16]
  0018c	03 c8		 add	 ecx, eax
  0018e	89 4e 08	 mov	 DWORD PTR [esi+8], ecx
  00191	8b f1		 mov	 esi, ecx

; 861  : 			fill(_ITER_BASE(_Where), _Mylast - _Count,
; 862  : 				_Tmp);	// insert up to old end

  00193	8d 4c 24 20	 lea	 ecx, DWORD PTR __Tmp$[esp+16]
  00197	51		 push	 ecx
  00198	2b f0		 sub	 esi, eax
  0019a	56		 push	 esi
  0019b	53		 push	 ebx
  0019c	e8 00 00 00 00	 call	 ??$fill@PAKK@std@@YAXPAK0ABK@Z ; std::fill<unsigned long *,unsigned long>
  001a1	83 c4 0c	 add	 esp, 12			; 0000000cH
  001a4	5d		 pop	 ebp
  001a5	5b		 pop	 ebx
  001a6	5f		 pop	 edi
  001a7	5e		 pop	 esi

; 873  : 			}
; 874  : 		}

  001a8	59		 pop	 ecx
  001a9	c2 0c 00	 ret	 12			; 0000000cH
$L209483:

; 863  : 			}
; 864  : 		else
; 865  : 			{	// new stuff can all be assigned
; 866  : 			pointer _Oldend = _Mylast;
; 867  : 			_Mylast = _Ucopy(_Oldend - _Count, _Oldend,
; 868  : 				_Mylast);	// copy suffix

  001ac	55		 push	 ebp
  001ad	8b fd		 mov	 edi, ebp
  001af	2b f8		 sub	 edi, eax
  001b1	55		 push	 ebp
  001b2	57		 push	 edi
  001b3	e8 00 00 00 00	 call	 ??$_Ucopy@PAK@?$vector@KV?$allocator@K@std@@@std@@IAEPAKPAK00@Z ; std::vector<unsigned long,std::allocator<unsigned long> >::_Ucopy<unsigned long *>

; 869  : 			copy_backward(_ITER_BASE(_Where), _Oldend - _Count,
; 870  : 				_Oldend);	// copy hole

  001b8	55		 push	 ebp
  001b9	57		 push	 edi
  001ba	53		 push	 ebx
  001bb	89 46 08	 mov	 DWORD PTR [esi+8], eax
  001be	e8 00 00 00 00	 call	 ??$copy_backward@PAKPAK@std@@YAPAKPAK00@Z ; std::copy_backward<unsigned long *,unsigned long *>

; 871  : 			fill(_ITER_BASE(_Where), _ITER_BASE(_Where) + _Count,
; 872  : 				_Tmp);	// insert into hole

  001c3	8b 44 24 24	 mov	 eax, DWORD PTR tv393[esp+28]
  001c7	8d 54 24 2c	 lea	 edx, DWORD PTR __Tmp$[esp+28]
  001cb	52		 push	 edx
  001cc	03 c3		 add	 eax, ebx
  001ce	50		 push	 eax
  001cf	53		 push	 ebx
  001d0	e8 00 00 00 00	 call	 ??$fill@PAKK@std@@YAXPAK0ABK@Z ; std::fill<unsigned long *,unsigned long>
  001d5	83 c4 18	 add	 esp, 24			; 00000018H
  001d8	5d		 pop	 ebp
  001d9	5b		 pop	 ebx
$L209492:
  001da	5f		 pop	 edi
  001db	5e		 pop	 esi

; 873  : 			}
; 874  : 		}

  001dc	59		 pop	 ecx
  001dd	c2 0c 00	 ret	 12			; 0000000cH
$L218897:
?_Insert_n@?$vector@KV?$allocator@K@std@@@std@@IAEXViterator@12@IABK@Z ENDP ; std::vector<unsigned long,std::allocator<unsigned long> >::_Insert_n
_TEXT	ENDS
PUBLIC	??_C@_0BM@PAPJHAGI@invalid?5map?1set?$DMT?$DO?5iterator?$AA@ ; `string'
PUBLIC	__TI3?AVout_of_range@std@@
PUBLIC	__CTA3?AVout_of_range@std@@
PUBLIC	??_R0?AVout_of_range@std@@@8			; std::out_of_range `RTTI Type Descriptor'
PUBLIC	__CT??_R0?AVout_of_range@std@@@8??0out_of_range@std@@QAE@ABV01@@Z40
PUBLIC	??0out_of_range@std@@QAE@ABV01@@Z		; std::out_of_range::out_of_range
PUBLIC	?erase@?$_Tree@V?$_Tmap_traits@EPAU__TAXDETAIL@@U?$less@E@std@@V?$allocator@U?$pair@$$CBEPAU__TAXDETAIL@@@std@@@3@$0A@@std@@@std@@QAE?AViterator@12@V312@@Z ; std::_Tree<std::_Tmap_traits<unsigned char,__TAXDETAIL *,std::less<unsigned char>,std::allocator<std::pair<unsigned char const ,__TAXDETAIL *> >,0> >::erase
;	COMDAT xdata$x
; File c:\program files\microsoft visual studio .net 2003\vc7\include\xmemory
xdata$x	SEGMENT
$T219392 DD	0ffffffffH
	DD	FLAT:$L218906
$T219384 DD	019930520H
	DD	01H
	DD	FLAT:$T219392
	DD	2 DUP(00H)
	DD	2 DUP(00H)
xdata$x	ENDS
;	COMDAT ??_C@_0BM@PAPJHAGI@invalid?5map?1set?$DMT?$DO?5iterator?$AA@
CONST	SEGMENT
??_C@_0BM@PAPJHAGI@invalid?5map?1set?$DMT?$DO?5iterator?$AA@ DB 'invalid '
	DB	'map/set<T> iterator', 00H			; `string'
CONST	ENDS
;	COMDAT __TI3?AVout_of_range@std@@
xdata$x	SEGMENT
__TI3?AVout_of_range@std@@ DD 00H
	DD	FLAT:??1out_of_range@std@@UAE@XZ
	DD	00H
	DD	FLAT:__CTA3?AVout_of_range@std@@
xdata$x	ENDS
;	COMDAT __CTA3?AVout_of_range@std@@
xdata$x	SEGMENT
__CTA3?AVout_of_range@std@@ DD 03H
	DD	FLAT:__CT??_R0?AVout_of_range@std@@@8??0out_of_range@std@@QAE@ABV01@@Z40
	DD	FLAT:__CT??_R0?AVlogic_error@std@@@8??0logic_error@std@@QAE@ABV01@@Z40
	DD	FLAT:__CT??_R0?AVexception@@@8??0exception@@QAE@ABV0@@Z12
xdata$x	ENDS
;	COMDAT __CT??_R0?AVout_of_range@std@@@8??0out_of_range@std@@QAE@ABV01@@Z40
xdata$x	SEGMENT
__CT??_R0?AVout_of_range@std@@@8??0out_of_range@std@@QAE@ABV01@@Z40 DD 00H
	DD	FLAT:??_R0?AVout_of_range@std@@@8
	DD	00H
	DD	0ffffffffH
	ORG $+4
	DD	028H
	DD	FLAT:??0out_of_range@std@@QAE@ABV01@@Z
xdata$x	ENDS
;	COMDAT ??_R0?AVout_of_range@std@@@8
_DATA	SEGMENT
??_R0?AVout_of_range@std@@@8 DD FLAT:??_7type_info@@6B@	; std::out_of_range `RTTI Type Descriptor'
	DD	00H
	DB	'.?AVout_of_range@std@@', 00H
; Function compile flags: /Ogty
; File c:\program files\microsoft visual studio .net 2003\vc7\include\xtree
_DATA	ENDS
;	COMDAT ?erase@?$_Tree@V?$_Tmap_traits@EPAU__TAXDETAIL@@U?$less@E@std@@V?$allocator@U?$pair@$$CBEPAU__TAXDETAIL@@@std@@@3@$0A@@std@@@std@@QAE?AViterator@12@V312@@Z
_TEXT	SEGMENT
__Erasednode$ = -84					; size = 4
$T218901 = -80						; size = 28
$T218900 = -52						; size = 40
__$EHRec$ = -12						; size = 12
___$ReturnUdt$ = 8					; size = 4
__Where$ = 12						; size = 4
?erase@?$_Tree@V?$_Tmap_traits@EPAU__TAXDETAIL@@U?$less@E@std@@V?$allocator@U?$pair@$$CBEPAU__TAXDETAIL@@@std@@@3@$0A@@std@@@std@@QAE?AViterator@12@V312@@Z PROC NEAR ; std::_Tree<std::_Tmap_traits<unsigned char,__TAXDETAIL *,std::less<unsigned char>,std::allocator<std::pair<unsigned char const ,__TAXDETAIL *> >,0> >::erase, COMDAT
; _this$ = ecx

; 590  : 		{	// erase element at _Where

  00000	64 a1 00 00 00
	00		 mov	 eax, DWORD PTR fs:__except_list
  00006	6a ff		 push	 -1
  00008	68 00 00 00 00	 push	 __ehhandler$?erase@?$_Tree@V?$_Tmap_traits@EPAU__TAXDETAIL@@U?$less@E@std@@V?$allocator@U?$pair@$$CBEPAU__TAXDETAIL@@@std@@@3@$0A@@std@@@std@@QAE?AViterator@12@V312@@Z
  0000d	50		 push	 eax

; 591  : 		if (_Isnil(_Where._Mynode()))

  0000e	8b 44 24 14	 mov	 eax, DWORD PTR __Where$[esp+8]
  00012	64 89 25 00 00
	00 00		 mov	 DWORD PTR fs:__except_list, esp
  00019	83 ec 48	 sub	 esp, 72			; 00000048H
  0001c	55		 push	 ebp
  0001d	8b e9		 mov	 ebp, ecx
  0001f	8a 48 15	 mov	 cl, BYTE PTR [eax+21]
  00022	84 c9		 test	 cl, cl
  00024	56		 push	 esi
  00025	74 4c		 je	 SHORT $L209770

; 592  : 			_THROW(out_of_range, "invalid map/set<T> iterator");

  00027	6a 1b		 push	 27			; 0000001bH
  00029	33 f6		 xor	 esi, esi
  0002b	68 00 00 00 00	 push	 OFFSET FLAT:??_C@_0BM@PAPJHAGI@invalid?5map?1set?$DMT?$DO?5iterator?$AA@
  00030	8d 4c 24 14	 lea	 ecx, DWORD PTR $T218901[esp+100]
  00034	c7 44 24 2c 0f
	00 00 00	 mov	 DWORD PTR $T218901[esp+124], 15 ; 0000000fH
  0003c	89 74 24 28	 mov	 DWORD PTR $T218901[esp+120], esi
  00040	c6 44 24 18 00	 mov	 BYTE PTR $T218901[esp+104], 0
  00045	e8 00 00 00 00	 call	 ?assign@?$basic_string@DU?$char_traits@D@std@@V?$allocator@D@2@@std@@QAEAAV12@PBDI@Z ; std::basic_string<char,std::char_traits<char>,std::allocator<char> >::assign
  0004a	8d 44 24 0c	 lea	 eax, DWORD PTR $T218901[esp+92]
  0004e	50		 push	 eax
  0004f	8d 4c 24 2c	 lea	 ecx, DWORD PTR $T218900[esp+96]
  00053	89 74 24 5c	 mov	 DWORD PTR __$EHRec$[esp+104], esi
  00057	e8 00 00 00 00	 call	 ??0logic_error@std@@QAE@ABV?$basic_string@DU?$char_traits@D@std@@V?$allocator@D@2@@1@@Z ; std::logic_error::logic_error
  0005c	68 00 00 00 00	 push	 OFFSET FLAT:__TI3?AVout_of_range@std@@
  00061	8d 4c 24 2c	 lea	 ecx, DWORD PTR $T218900[esp+96]
  00065	51		 push	 ecx
  00066	c7 44 24 30 00
	00 00 00	 mov	 DWORD PTR $T218900[esp+100], OFFSET FLAT:??_7out_of_range@std@@6B@
  0006e	e8 00 00 00 00	 call	 __CxxThrowException@8
$L209770:
  00073	53		 push	 ebx

; 593  : 		_Nodeptr _Erasednode = _Where._Mynode();	// node to erase

  00074	8b d8		 mov	 ebx, eax
  00076	57		 push	 edi

; 594  : 		++_Where;	// save successor iterator for return

  00077	8d 4c 24 6c	 lea	 ecx, DWORD PTR __Where$[esp+96]
  0007b	89 5c 24 10	 mov	 DWORD PTR __Erasednode$[esp+100], ebx
  0007f	e8 00 00 00 00	 call	 ?_Inc@const_iterator@?$_Tree@V?$_Tmap_traits@EPAU__TAXDETAIL@@U?$less@E@std@@V?$allocator@U?$pair@$$CBEPAU__TAXDETAIL@@@std@@@3@$0A@@std@@@std@@QAEXXZ ; std::_Tree<std::_Tmap_traits<unsigned char,__TAXDETAIL *,std::less<unsigned char>,std::allocator<std::pair<unsigned char const ,__TAXDETAIL *> >,0> >::const_iterator::_Inc

; 595  : 
; 596  : 		_Nodeptr _Fixnode;	// the node to recolor as needed
; 597  : 		_Nodeptr _Fixnodeparent;	// parent of _Fixnode (which may be nil)
; 598  : 		_Nodeptr _Pnode = _Erasednode;
; 599  : 
; 600  : 		if (_Isnil(_Left(_Pnode)))

  00084	8b 03		 mov	 eax, DWORD PTR [ebx]
  00086	8a 48 15	 mov	 cl, BYTE PTR [eax+21]
  00089	84 c9		 test	 cl, cl
  0008b	74 05		 je	 SHORT $L209778

; 601  : 			_Fixnode = _Right(_Pnode);	// must stitch up right subtree

  0008d	8b 7b 08	 mov	 edi, DWORD PTR [ebx+8]

; 602  : 		else if (_Isnil(_Right(_Pnode)))

  00090	eb 19		 jmp	 SHORT $L219387
$L209778:
  00092	8b 53 08	 mov	 edx, DWORD PTR [ebx+8]
  00095	8a 4a 15	 mov	 cl, BYTE PTR [edx+21]
  00098	84 c9		 test	 cl, cl
  0009a	74 04		 je	 SHORT $L209780

; 603  : 			_Fixnode = _Left(_Pnode);	// must stitch up left subtree

  0009c	8b f8		 mov	 edi, eax

; 604  : 		else

  0009e	eb 0b		 jmp	 SHORT $L219387
$L209780:

; 605  : 			{	// two subtrees, must lift successor node to replace erased
; 606  : 			_Pnode = _Where._Mynode();	// _Pnode is successor node
; 607  : 			_Fixnode = _Right(_Pnode);	// _Fixnode is its only subtree

  000a0	8b 4c 24 6c	 mov	 ecx, DWORD PTR __Where$[esp+96]

; 608  : 			}
; 609  : 
; 610  : 		if (_Pnode == _Erasednode)

  000a4	3b cb		 cmp	 ecx, ebx
  000a6	8b 79 08	 mov	 edi, DWORD PTR [ecx+8]
  000a9	75 6e		 jne	 SHORT $L209782
$L219387:

; 611  : 			{	// at most one subtree, relink it
; 612  : 			_Fixnodeparent = _Parent(_Erasednode);
; 613  : 			if (!_Isnil(_Fixnode))

  000ab	8a 47 15	 mov	 al, BYTE PTR [edi+21]
  000ae	84 c0		 test	 al, al
  000b0	8b 73 04	 mov	 esi, DWORD PTR [ebx+4]
  000b3	75 03		 jne	 SHORT $L209783

; 614  : 				_Parent(_Fixnode) = _Fixnodeparent;	// link up

  000b5	89 77 04	 mov	 DWORD PTR [edi+4], esi
$L209783:

; 615  : 
; 616  : 			if (_Root() == _Erasednode)

  000b8	8b 45 04	 mov	 eax, DWORD PTR [ebp+4]
  000bb	39 58 04	 cmp	 DWORD PTR [eax+4], ebx
  000be	75 05		 jne	 SHORT $L209784

; 617  : 				_Root() = _Fixnode;	// link down from root

  000c0	89 78 04	 mov	 DWORD PTR [eax+4], edi

; 618  : 			else if (_Left(_Fixnodeparent) == _Erasednode)

  000c3	eb 0b		 jmp	 SHORT $L209787
$L209784:
  000c5	39 1e		 cmp	 DWORD PTR [esi], ebx
  000c7	75 04		 jne	 SHORT $L209786

; 619  : 				_Left(_Fixnodeparent) = _Fixnode;	// link down to left

  000c9	89 3e		 mov	 DWORD PTR [esi], edi

; 620  : 			else

  000cb	eb 03		 jmp	 SHORT $L209787
$L209786:

; 621  : 				_Right(_Fixnodeparent) = _Fixnode;	// link down to right

  000cd	89 7e 08	 mov	 DWORD PTR [esi+8], edi
$L209787:

; 622  : 
; 623  : 			if (_Lmost() == _Erasednode)

  000d0	8b 5d 04	 mov	 ebx, DWORD PTR [ebp+4]
  000d3	8b 03		 mov	 eax, DWORD PTR [ebx]
  000d5	3b 44 24 10	 cmp	 eax, DWORD PTR __Erasednode$[esp+100]
  000d9	75 16		 jne	 SHORT $L209788

; 624  : 				_Lmost() = _Isnil(_Fixnode)
; 625  : 					? _Fixnodeparent	// smallest is parent of erased node
; 626  : 					: _Min(_Fixnode);	// smallest in relinked subtree

  000db	8a 47 15	 mov	 al, BYTE PTR [edi+21]
  000de	84 c0		 test	 al, al
  000e0	74 04		 je	 SHORT $L218902
  000e2	8b c6		 mov	 eax, esi
  000e4	eb 09		 jmp	 SHORT $L218903
$L218902:
  000e6	57		 push	 edi
  000e7	e8 00 00 00 00	 call	 ?_Min@?$_Tree@V?$_Tmap_traits@EPAU__TAXDETAIL@@U?$less@E@std@@V?$allocator@U?$pair@$$CBEPAU__TAXDETAIL@@@std@@@3@$0A@@std@@@std@@KAPAU_Node@?$_Tree_nod@V?$_Tmap_traits@EPAU__TAXDETAIL@@U?$less@E@std@@V?$allocator@U?$pair@$$CBEPAU__TAXDETAIL@@@std@@@3@$0A@@std@@@2@PAU342@@Z ; std::_Tree<std::_Tmap_traits<unsigned char,__TAXDETAIL *,std::less<unsigned char>,std::allocator<std::pair<unsigned char const ,__TAXDETAIL *> >,0> >::_Min
  000ec	83 c4 04	 add	 esp, 4
$L218903:
  000ef	89 03		 mov	 DWORD PTR [ebx], eax
$L209788:

; 627  : 
; 628  : 			if (_Rmost() == _Erasednode)

  000f1	8b 5d 04	 mov	 ebx, DWORD PTR [ebp+4]
  000f4	8b 4c 24 10	 mov	 ecx, DWORD PTR __Erasednode$[esp+100]
  000f8	39 4b 08	 cmp	 DWORD PTR [ebx+8], ecx
  000fb	75 74		 jne	 SHORT $L219221

; 629  : 				_Rmost() = _Isnil(_Fixnode)
; 630  : 					? _Fixnodeparent	// largest is parent of erased node
; 631  : 					: _Max(_Fixnode);	// largest in relinked subtree

  000fd	8a 47 15	 mov	 al, BYTE PTR [edi+21]
  00100	84 c0		 test	 al, al
  00102	74 07		 je	 SHORT $L218904
  00104	8b c6		 mov	 eax, esi
  00106	89 43 08	 mov	 DWORD PTR [ebx+8], eax

; 632  : 			}
; 633  : 		else

  00109	eb 66		 jmp	 SHORT $L219221
$L218904:

; 629  : 				_Rmost() = _Isnil(_Fixnode)
; 630  : 					? _Fixnodeparent	// largest is parent of erased node
; 631  : 					: _Max(_Fixnode);	// largest in relinked subtree

  0010b	57		 push	 edi
  0010c	e8 00 00 00 00	 call	 ?_Max@?$_Tree@V?$_Tmap_traits@EPAU__TAXDETAIL@@U?$less@E@std@@V?$allocator@U?$pair@$$CBEPAU__TAXDETAIL@@@std@@@3@$0A@@std@@@std@@KAPAU_Node@?$_Tree_nod@V?$_Tmap_traits@EPAU__TAXDETAIL@@U?$less@E@std@@V?$allocator@U?$pair@$$CBEPAU__TAXDETAIL@@@std@@@3@$0A@@std@@@2@PAU342@@Z ; std::_Tree<std::_Tmap_traits<unsigned char,__TAXDETAIL *,std::less<unsigned char>,std::allocator<std::pair<unsigned char const ,__TAXDETAIL *> >,0> >::_Max
  00111	83 c4 04	 add	 esp, 4
  00114	89 43 08	 mov	 DWORD PTR [ebx+8], eax

; 632  : 			}
; 633  : 		else

  00117	eb 58		 jmp	 SHORT $L219221
$L209782:

; 634  : 			{	// erased has two subtrees, _Pnode is successor to erased
; 635  : 			_Parent(_Left(_Erasednode)) = _Pnode;	// link left up

  00119	89 48 04	 mov	 DWORD PTR [eax+4], ecx

; 636  : 			_Left(_Pnode) = _Left(_Erasednode);	// link successor down

  0011c	8b 13		 mov	 edx, DWORD PTR [ebx]
  0011e	89 11		 mov	 DWORD PTR [ecx], edx

; 637  : 
; 638  : 			if (_Pnode == _Right(_Erasednode))

  00120	3b 4b 08	 cmp	 ecx, DWORD PTR [ebx+8]
  00123	75 04		 jne	 SHORT $L209791

; 639  : 				_Fixnodeparent = _Pnode;	// successor is next to erased

  00125	8b f1		 mov	 esi, ecx

; 640  : 			else

  00127	eb 1b		 jmp	 SHORT $L209792
$L209791:

; 641  : 				{	// successor further down, link in place of erased
; 642  : 				_Fixnodeparent = _Parent(_Pnode);	// parent is successor's
; 643  : 				if (!_Isnil(_Fixnode))

  00129	8a 47 15	 mov	 al, BYTE PTR [edi+21]
  0012c	84 c0		 test	 al, al
  0012e	8b 71 04	 mov	 esi, DWORD PTR [ecx+4]
  00131	75 03		 jne	 SHORT $L209793

; 644  : 					_Parent(_Fixnode) = _Fixnodeparent;	// link fix up

  00133	89 77 04	 mov	 DWORD PTR [edi+4], esi
$L209793:

; 645  : 				_Left(_Fixnodeparent) = _Fixnode;	// link fix down

  00136	89 3e		 mov	 DWORD PTR [esi], edi

; 646  : 				_Right(_Pnode) = _Right(_Erasednode);	// link successor down

  00138	8b 43 08	 mov	 eax, DWORD PTR [ebx+8]
  0013b	89 41 08	 mov	 DWORD PTR [ecx+8], eax

; 647  : 				_Parent(_Right(_Erasednode)) = _Pnode;	// link right up

  0013e	8b 53 08	 mov	 edx, DWORD PTR [ebx+8]
  00141	89 4a 04	 mov	 DWORD PTR [edx+4], ecx
$L209792:

; 648  : 				}
; 649  : 
; 650  : 			if (_Root() == _Erasednode)

  00144	8b 45 04	 mov	 eax, DWORD PTR [ebp+4]
  00147	39 58 04	 cmp	 DWORD PTR [eax+4], ebx
  0014a	75 05		 jne	 SHORT $L209794

; 651  : 				_Root() = _Pnode;	// link down from root

  0014c	89 48 04	 mov	 DWORD PTR [eax+4], ecx

; 652  : 			else if (_Left(_Parent(_Erasednode)) == _Erasednode)

  0014f	eb 0e		 jmp	 SHORT $L209797
$L209794:
  00151	8b 43 04	 mov	 eax, DWORD PTR [ebx+4]
  00154	39 18		 cmp	 DWORD PTR [eax], ebx
  00156	75 04		 jne	 SHORT $L209796

; 653  : 				_Left(_Parent(_Erasednode)) = _Pnode;	// link down to left

  00158	89 08		 mov	 DWORD PTR [eax], ecx

; 654  : 			else

  0015a	eb 03		 jmp	 SHORT $L209797
$L209796:

; 655  : 				_Right(_Parent(_Erasednode)) = _Pnode;	// link down to right

  0015c	89 48 08	 mov	 DWORD PTR [eax+8], ecx
$L209797:

; 656  : 
; 657  : 			_Parent(_Pnode) = _Parent(_Erasednode);	// link successor up

  0015f	8b 43 04	 mov	 eax, DWORD PTR [ebx+4]
  00162	89 41 04	 mov	 DWORD PTR [ecx+4], eax

; 658  : 			std::swap(_Color(_Pnode), _Color(_Erasednode));	// recolor it

  00165	8a 53 14	 mov	 dl, BYTE PTR [ebx+20]
  00168	8a 41 14	 mov	 al, BYTE PTR [ecx+20]
  0016b	88 51 14	 mov	 BYTE PTR [ecx+20], dl
  0016e	88 43 14	 mov	 BYTE PTR [ebx+20], al
$L219221:

; 659  : 			}
; 660  : 
; 661  : 		if (_Color(_Erasednode) == _Black)

  00171	8b 44 24 10	 mov	 eax, DWORD PTR __Erasednode$[esp+100]
  00175	8a 48 14	 mov	 cl, BYTE PTR [eax+20]
  00178	b3 01		 mov	 bl, 1
  0017a	3a cb		 cmp	 cl, bl
  0017c	0f 85 ff 00 00
	00		 jne	 $L209798

; 662  : 			{	// erasing black link, must recolor/rebalance tree
; 663  : 			for (; _Fixnode != _Root() && _Color(_Fixnode) == _Black;
; 664  : 				_Fixnodeparent = _Parent(_Fixnode))

  00182	8b 4d 04	 mov	 ecx, DWORD PTR [ebp+4]
  00185	3b 79 04	 cmp	 edi, DWORD PTR [ecx+4]
  00188	0f 84 f0 00 00
	00		 je	 $L209801
  0018e	8b ff		 npad	 2
$L209799:
  00190	38 5f 14	 cmp	 BYTE PTR [edi+20], bl
  00193	0f 85 e5 00 00
	00		 jne	 $L209801

; 665  : 				if (_Fixnode == _Left(_Fixnodeparent))

  00199	8b 06		 mov	 eax, DWORD PTR [esi]
  0019b	3b f8		 cmp	 edi, eax
  0019d	75 67		 jne	 SHORT $L209802

; 666  : 					{	// fixup left subtree
; 667  : 					_Pnode = _Right(_Fixnodeparent);

  0019f	8b 46 08	 mov	 eax, DWORD PTR [esi+8]

; 668  : 					if (_Color(_Pnode) == _Red)

  001a2	8a 48 14	 mov	 cl, BYTE PTR [eax+20]
  001a5	84 c9		 test	 cl, cl
  001a7	75 12		 jne	 SHORT $L209803

; 669  : 						{	// rotate red up from right subtree
; 670  : 						_Color(_Pnode) = _Black;

  001a9	88 58 14	 mov	 BYTE PTR [eax+20], bl

; 671  : 						_Color(_Fixnodeparent) = _Red;
; 672  : 						_Lrotate(_Fixnodeparent);

  001ac	56		 push	 esi
  001ad	8b cd		 mov	 ecx, ebp
  001af	c6 46 14 00	 mov	 BYTE PTR [esi+20], 0
  001b3	e8 00 00 00 00	 call	 ?_Lrotate@?$_Tree@V?$_Tmap_traits@EPAU__TAXDETAIL@@U?$less@E@std@@V?$allocator@U?$pair@$$CBEPAU__TAXDETAIL@@@std@@@3@$0A@@std@@@std@@IAEXPAU_Node@?$_Tree_nod@V?$_Tmap_traits@EPAU__TAXDETAIL@@U?$less@E@std@@V?$allocator@U?$pair@$$CBEPAU__TAXDETAIL@@@std@@@3@$0A@@std@@@2@@Z ; std::_Tree<std::_Tmap_traits<unsigned char,__TAXDETAIL *,std::less<unsigned char>,std::allocator<std::pair<unsigned char const ,__TAXDETAIL *> >,0> >::_Lrotate

; 673  : 						_Pnode = _Right(_Fixnodeparent);

  001b8	8b 46 08	 mov	 eax, DWORD PTR [esi+8]
$L209803:

; 674  : 						}
; 675  : 
; 676  : 					if (_Isnil(_Pnode))

  001bb	8a 48 15	 mov	 cl, BYTE PTR [eax+21]
  001be	84 c9		 test	 cl, cl

; 677  : 						_Fixnode = _Fixnodeparent;	// shouldn't happen
; 678  : 					else if (_Color(_Left(_Pnode)) == _Black

  001c0	75 76		 jne	 SHORT $L219390

; 679  : 						&& _Color(_Right(_Pnode)) == _Black)

  001c2	8b 10		 mov	 edx, DWORD PTR [eax]
  001c4	38 5a 14	 cmp	 BYTE PTR [edx+20], bl
  001c7	75 08		 jne	 SHORT $L209806
  001c9	8b 48 08	 mov	 ecx, DWORD PTR [eax+8]
  001cc	38 59 14	 cmp	 BYTE PTR [ecx+20], bl
  001cf	74 63		 je	 SHORT $L219391
$L209806:

; 680  : 						{	// redden right subtree with black children
; 681  : 						_Color(_Pnode) = _Red;
; 682  : 						_Fixnode = _Fixnodeparent;
; 683  : 						}
; 684  : 					else
; 685  : 						{	// must rearrange right subtree
; 686  : 						if (_Color(_Right(_Pnode)) == _Black)

  001d1	8b 48 08	 mov	 ecx, DWORD PTR [eax+8]
  001d4	38 59 14	 cmp	 BYTE PTR [ecx+20], bl
  001d7	75 14		 jne	 SHORT $L209808

; 687  : 							{	// rotate red up from left sub-subtree
; 688  : 							_Color(_Left(_Pnode)) = _Black;

  001d9	8b 10		 mov	 edx, DWORD PTR [eax]
  001db	88 5a 14	 mov	 BYTE PTR [edx+20], bl

; 689  : 							_Color(_Pnode) = _Red;
; 690  : 							_Rrotate(_Pnode);

  001de	50		 push	 eax
  001df	8b cd		 mov	 ecx, ebp
  001e1	c6 40 14 00	 mov	 BYTE PTR [eax+20], 0
  001e5	e8 00 00 00 00	 call	 ?_Rrotate@?$_Tree@V?$_Tmap_traits@EPAU__TAXDETAIL@@U?$less@E@std@@V?$allocator@U?$pair@$$CBEPAU__TAXDETAIL@@@std@@@3@$0A@@std@@@std@@IAEXPAU_Node@?$_Tree_nod@V?$_Tmap_traits@EPAU__TAXDETAIL@@U?$less@E@std@@V?$allocator@U?$pair@$$CBEPAU__TAXDETAIL@@@std@@@3@$0A@@std@@@2@@Z ; std::_Tree<std::_Tmap_traits<unsigned char,__TAXDETAIL *,std::less<unsigned char>,std::allocator<std::pair<unsigned char const ,__TAXDETAIL *> >,0> >::_Rrotate

; 691  : 							_Pnode = _Right(_Fixnodeparent);

  001ea	8b 46 08	 mov	 eax, DWORD PTR [esi+8]
$L209808:

; 692  : 							}
; 693  : 
; 694  : 						_Color(_Pnode) = _Color(_Fixnodeparent);

  001ed	8a 4e 14	 mov	 cl, BYTE PTR [esi+20]
  001f0	88 48 14	 mov	 BYTE PTR [eax+20], cl

; 695  : 						_Color(_Fixnodeparent) = _Black;

  001f3	88 5e 14	 mov	 BYTE PTR [esi+20], bl

; 696  : 						_Color(_Right(_Pnode)) = _Black;

  001f6	8b 50 08	 mov	 edx, DWORD PTR [eax+8]

; 697  : 						_Lrotate(_Fixnodeparent);

  001f9	56		 push	 esi
  001fa	8b cd		 mov	 ecx, ebp
  001fc	88 5a 14	 mov	 BYTE PTR [edx+20], bl
  001ff	e8 00 00 00 00	 call	 ?_Lrotate@?$_Tree@V?$_Tmap_traits@EPAU__TAXDETAIL@@U?$less@E@std@@V?$allocator@U?$pair@$$CBEPAU__TAXDETAIL@@@std@@@3@$0A@@std@@@std@@IAEXPAU_Node@?$_Tree_nod@V?$_Tmap_traits@EPAU__TAXDETAIL@@U?$less@E@std@@V?$allocator@U?$pair@$$CBEPAU__TAXDETAIL@@@std@@@3@$0A@@std@@@2@@Z ; std::_Tree<std::_Tmap_traits<unsigned char,__TAXDETAIL *,std::less<unsigned char>,std::allocator<std::pair<unsigned char const ,__TAXDETAIL *> >,0> >::_Lrotate

; 698  : 						break;	// tree now recolored/rebalanced

  00204	eb 78		 jmp	 SHORT $L209801
$L209802:

; 699  : 						}
; 700  : 					}
; 701  : 				else
; 702  : 					{	// fixup right subtree
; 703  : 					_Pnode = _Left(_Fixnodeparent);
; 704  : 					if (_Color(_Pnode) == _Red)

  00206	8a 48 14	 mov	 cl, BYTE PTR [eax+20]
  00209	84 c9		 test	 cl, cl
  0020b	75 11		 jne	 SHORT $L209810

; 705  : 						{	// rotate red up from left subtree
; 706  : 						_Color(_Pnode) = _Black;

  0020d	88 58 14	 mov	 BYTE PTR [eax+20], bl

; 707  : 						_Color(_Fixnodeparent) = _Red;
; 708  : 						_Rrotate(_Fixnodeparent);

  00210	56		 push	 esi
  00211	8b cd		 mov	 ecx, ebp
  00213	c6 46 14 00	 mov	 BYTE PTR [esi+20], 0
  00217	e8 00 00 00 00	 call	 ?_Rrotate@?$_Tree@V?$_Tmap_traits@EPAU__TAXDETAIL@@U?$less@E@std@@V?$allocator@U?$pair@$$CBEPAU__TAXDETAIL@@@std@@@3@$0A@@std@@@std@@IAEXPAU_Node@?$_Tree_nod@V?$_Tmap_traits@EPAU__TAXDETAIL@@U?$less@E@std@@V?$allocator@U?$pair@$$CBEPAU__TAXDETAIL@@@std@@@3@$0A@@std@@@2@@Z ; std::_Tree<std::_Tmap_traits<unsigned char,__TAXDETAIL *,std::less<unsigned char>,std::allocator<std::pair<unsigned char const ,__TAXDETAIL *> >,0> >::_Rrotate

; 709  : 						_Pnode = _Left(_Fixnodeparent);

  0021c	8b 06		 mov	 eax, DWORD PTR [esi]
$L209810:

; 710  : 						}
; 711  : 					if (_Isnil(_Pnode))

  0021e	8a 48 15	 mov	 cl, BYTE PTR [eax+21]
  00221	84 c9		 test	 cl, cl

; 712  : 						_Fixnode = _Fixnodeparent;	// shouldn't happen
; 713  : 					else if (_Color(_Right(_Pnode)) == _Black

  00223	75 13		 jne	 SHORT $L219390

; 714  : 						&& _Color(_Left(_Pnode)) == _Black)

  00225	8b 50 08	 mov	 edx, DWORD PTR [eax+8]
  00228	38 5a 14	 cmp	 BYTE PTR [edx+20], bl
  0022b	75 20		 jne	 SHORT $L209813
  0022d	8b 08		 mov	 ecx, DWORD PTR [eax]
  0022f	38 59 14	 cmp	 BYTE PTR [ecx+20], bl
  00232	75 19		 jne	 SHORT $L209813
$L219391:

; 715  : 						{	// redden left subtree with black children
; 716  : 						_Color(_Pnode) = _Red;

  00234	c6 40 14 00	 mov	 BYTE PTR [eax+20], 0
$L219390:

; 662  : 			{	// erasing black link, must recolor/rebalance tree
; 663  : 			for (; _Fixnode != _Root() && _Color(_Fixnode) == _Black;
; 664  : 				_Fixnodeparent = _Parent(_Fixnode))

  00238	8b 55 04	 mov	 edx, DWORD PTR [ebp+4]
  0023b	8b 42 04	 mov	 eax, DWORD PTR [edx+4]

; 717  : 						_Fixnode = _Fixnodeparent;

  0023e	8b fe		 mov	 edi, esi
  00240	3b f8		 cmp	 edi, eax
  00242	8b 76 04	 mov	 esi, DWORD PTR [esi+4]
  00245	0f 85 45 ff ff
	ff		 jne	 $L209799

; 662  : 			{	// erasing black link, must recolor/rebalance tree
; 663  : 			for (; _Fixnode != _Root() && _Color(_Fixnode) == _Black;
; 664  : 				_Fixnodeparent = _Parent(_Fixnode))

  0024b	eb 31		 jmp	 SHORT $L209801
$L209813:

; 718  : 						}
; 719  : 					else
; 720  : 						{	// must rearrange left subtree
; 721  : 						if (_Color(_Left(_Pnode)) == _Black)

  0024d	8b 08		 mov	 ecx, DWORD PTR [eax]
  0024f	38 59 14	 cmp	 BYTE PTR [ecx+20], bl
  00252	75 14		 jne	 SHORT $L209815

; 722  : 							{	// rotate red up from right sub-subtree
; 723  : 							_Color(_Right(_Pnode)) = _Black;

  00254	8b 50 08	 mov	 edx, DWORD PTR [eax+8]
  00257	88 5a 14	 mov	 BYTE PTR [edx+20], bl

; 724  : 							_Color(_Pnode) = _Red;
; 725  : 							_Lrotate(_Pnode);

  0025a	50		 push	 eax
  0025b	8b cd		 mov	 ecx, ebp
  0025d	c6 40 14 00	 mov	 BYTE PTR [eax+20], 0
  00261	e8 00 00 00 00	 call	 ?_Lrotate@?$_Tree@V?$_Tmap_traits@EPAU__TAXDETAIL@@U?$less@E@std@@V?$allocator@U?$pair@$$CBEPAU__TAXDETAIL@@@std@@@3@$0A@@std@@@std@@IAEXPAU_Node@?$_Tree_nod@V?$_Tmap_traits@EPAU__TAXDETAIL@@U?$less@E@std@@V?$allocator@U?$pair@$$CBEPAU__TAXDETAIL@@@std@@@3@$0A@@std@@@2@@Z ; std::_Tree<std::_Tmap_traits<unsigned char,__TAXDETAIL *,std::less<unsigned char>,std::allocator<std::pair<unsigned char const ,__TAXDETAIL *> >,0> >::_Lrotate

; 726  : 							_Pnode = _Left(_Fixnodeparent);

  00266	8b 06		 mov	 eax, DWORD PTR [esi]
$L209815:

; 727  : 							}
; 728  : 
; 729  : 						_Color(_Pnode) = _Color(_Fixnodeparent);

  00268	8a 4e 14	 mov	 cl, BYTE PTR [esi+20]
  0026b	88 48 14	 mov	 BYTE PTR [eax+20], cl

; 730  : 						_Color(_Fixnodeparent) = _Black;

  0026e	88 5e 14	 mov	 BYTE PTR [esi+20], bl

; 731  : 						_Color(_Left(_Pnode)) = _Black;

  00271	8b 10		 mov	 edx, DWORD PTR [eax]

; 732  : 						_Rrotate(_Fixnodeparent);

  00273	56		 push	 esi
  00274	8b cd		 mov	 ecx, ebp
  00276	88 5a 14	 mov	 BYTE PTR [edx+20], bl
  00279	e8 00 00 00 00	 call	 ?_Rrotate@?$_Tree@V?$_Tmap_traits@EPAU__TAXDETAIL@@U?$less@E@std@@V?$allocator@U?$pair@$$CBEPAU__TAXDETAIL@@@std@@@3@$0A@@std@@@std@@IAEXPAU_Node@?$_Tree_nod@V?$_Tmap_traits@EPAU__TAXDETAIL@@U?$less@E@std@@V?$allocator@U?$pair@$$CBEPAU__TAXDETAIL@@@std@@@3@$0A@@std@@@2@@Z ; std::_Tree<std::_Tmap_traits<unsigned char,__TAXDETAIL *,std::less<unsigned char>,std::allocator<std::pair<unsigned char const ,__TAXDETAIL *> >,0> >::_Rrotate
$L209801:

; 733  : 						break;	// tree now recolored/rebalanced
; 734  : 						}
; 735  : 					}
; 736  : 
; 737  : 			_Color(_Fixnode) = _Black;	// ensure stopping node is black

  0027e	88 5f 14	 mov	 BYTE PTR [edi+20], bl
$L209798:

; 738  : 			}
; 739  : 
; 740  : 		this->_Alnod.destroy(_Erasednode);	// destroy, free erased node
; 741  : 		this->_Alnod.deallocate(_Erasednode, 1);

  00281	8b 44 24 10	 mov	 eax, DWORD PTR __Erasednode$[esp+100]
  00285	50		 push	 eax
  00286	e8 00 00 00 00	 call	 ??3@YAXPAX@Z		; operator delete

; 742  : 
; 743  : 		if (0 < _Mysize)

  0028b	8b 45 08	 mov	 eax, DWORD PTR [ebp+8]
  0028e	83 c4 04	 add	 esp, 4
  00291	85 c0		 test	 eax, eax
  00293	5f		 pop	 edi
  00294	5b		 pop	 ebx
  00295	76 04		 jbe	 SHORT $L209816

; 744  : 			--_Mysize;

  00297	48		 dec	 eax
  00298	89 45 08	 mov	 DWORD PTR [ebp+8], eax
$L209816:

; 745  : 
; 746  : 		return (_Where);	// return successor iterator

  0029b	8b 4c 24 64	 mov	 ecx, DWORD PTR __Where$[esp+88]
  0029f	8b 44 24 60	 mov	 eax, DWORD PTR ___$ReturnUdt$[esp+88]
  002a3	89 08		 mov	 DWORD PTR [eax], ecx

; 747  : 		}

  002a5	8b 4c 24 50	 mov	 ecx, DWORD PTR __$EHRec$[esp+92]
  002a9	5e		 pop	 esi
  002aa	5d		 pop	 ebp
  002ab	64 89 0d 00 00
	00 00		 mov	 DWORD PTR fs:__except_list, ecx
  002b2	83 c4 54	 add	 esp, 84			; 00000054H
  002b5	c2 08 00	 ret	 8
$L219389:
_TEXT	ENDS
;	COMDAT text$x
text$x	SEGMENT
$L218906:
  00000	8d 4d b0	 lea	 ecx, DWORD PTR $T218901[ebp]
  00003	e9 00 00 00 00	 jmp	 ??1?$basic_string@DU?$char_traits@D@std@@V?$allocator@D@2@@std@@QAE@XZ ; std::basic_string<char,std::char_traits<char>,std::allocator<char> >::~basic_string<char,std::char_traits<char>,std::allocator<char> >
__ehhandler$?erase@?$_Tree@V?$_Tmap_traits@EPAU__TAXDETAIL@@U?$less@E@std@@V?$allocator@U?$pair@$$CBEPAU__TAXDETAIL@@@std@@@3@$0A@@std@@@std@@QAE?AViterator@12@V312@@Z:
  00008	b8 00 00 00 00	 mov	 eax, OFFSET FLAT:$T219384
  0000d	e9 00 00 00 00	 jmp	 ___CxxFrameHandler
text$x	ENDS
?erase@?$_Tree@V?$_Tmap_traits@EPAU__TAXDETAIL@@U?$less@E@std@@V?$allocator@U?$pair@$$CBEPAU__TAXDETAIL@@@std@@@3@$0A@@std@@@std@@QAE?AViterator@12@V312@@Z ENDP ; std::_Tree<std::_Tmap_traits<unsigned char,__TAXDETAIL *,std::less<unsigned char>,std::allocator<std::pair<unsigned char const ,__TAXDETAIL *> >,0> >::erase
; Function compile flags: /Ogty
;	COMDAT ??0out_of_range@std@@QAE@ABV01@@Z
_TEXT	SEGMENT
___that$ = 8						; size = 4
??0out_of_range@std@@QAE@ABV01@@Z PROC NEAR		; std::out_of_range::out_of_range, COMDAT
; _this$ = ecx
  00000	8b 44 24 04	 mov	 eax, DWORD PTR ___that$[esp-4]
  00004	56		 push	 esi
  00005	50		 push	 eax
  00006	8b f1		 mov	 esi, ecx
  00008	e8 00 00 00 00	 call	 ??0logic_error@std@@QAE@ABV01@@Z
  0000d	c7 06 00 00 00
	00		 mov	 DWORD PTR [esi], OFFSET FLAT:??_7out_of_range@std@@6B@
  00013	8b c6		 mov	 eax, esi
  00015	5e		 pop	 esi
  00016	c2 04 00	 ret	 4
??0out_of_range@std@@QAE@ABV01@@Z ENDP			; std::out_of_range::out_of_range
_TEXT	ENDS
PUBLIC	?erase@?$_Tree@V?$_Tmap_traits@EPAU__TAXINFO@@U?$less@E@std@@V?$allocator@U?$pair@$$CBEPAU__TAXINFO@@@std@@@3@$0A@@std@@@std@@QAE?AViterator@12@V312@@Z ; std::_Tree<std::_Tmap_traits<unsigned char,__TAXINFO *,std::less<unsigned char>,std::allocator<std::pair<unsigned char const ,__TAXINFO *> >,0> >::erase
;	COMDAT xdata$x
; File c:\program files\microsoft visual studio .net 2003\vc7\include\xmemory
xdata$x	SEGMENT
$T219892 DD	0ffffffffH
	DD	FLAT:$L219406
$T219884 DD	019930520H
	DD	01H
	DD	FLAT:$T219892
	DD	2 DUP(00H)
	DD	2 DUP(00H)
; Function compile flags: /Ogty
; File c:\program files\microsoft visual studio .net 2003\vc7\include\xtree
xdata$x	ENDS
;	COMDAT ?erase@?$_Tree@V?$_Tmap_traits@EPAU__TAXINFO@@U?$less@E@std@@V?$allocator@U?$pair@$$CBEPAU__TAXINFO@@@std@@@3@$0A@@std@@@std@@QAE?AViterator@12@V312@@Z
_TEXT	SEGMENT
__Erasednode$ = -84					; size = 4
$T219401 = -80						; size = 28
$T219400 = -52						; size = 40
__$EHRec$ = -12						; size = 12
___$ReturnUdt$ = 8					; size = 4
__Where$ = 12						; size = 4
?erase@?$_Tree@V?$_Tmap_traits@EPAU__TAXINFO@@U?$less@E@std@@V?$allocator@U?$pair@$$CBEPAU__TAXINFO@@@std@@@3@$0A@@std@@@std@@QAE?AViterator@12@V312@@Z PROC NEAR ; std::_Tree<std::_Tmap_traits<unsigned char,__TAXINFO *,std::less<unsigned char>,std::allocator<std::pair<unsigned char const ,__TAXINFO *> >,0> >::erase, COMDAT
; _this$ = ecx

; 590  : 		{	// erase element at _Where

  00000	64 a1 00 00 00
	00		 mov	 eax, DWORD PTR fs:__except_list
  00006	6a ff		 push	 -1
  00008	68 00 00 00 00	 push	 __ehhandler$?erase@?$_Tree@V?$_Tmap_traits@EPAU__TAXINFO@@U?$less@E@std@@V?$allocator@U?$pair@$$CBEPAU__TAXINFO@@@std@@@3@$0A@@std@@@std@@QAE?AViterator@12@V312@@Z
  0000d	50		 push	 eax

; 591  : 		if (_Isnil(_Where._Mynode()))

  0000e	8b 44 24 14	 mov	 eax, DWORD PTR __Where$[esp+8]
  00012	64 89 25 00 00
	00 00		 mov	 DWORD PTR fs:__except_list, esp
  00019	83 ec 48	 sub	 esp, 72			; 00000048H
  0001c	55		 push	 ebp
  0001d	8b e9		 mov	 ebp, ecx
  0001f	8a 48 15	 mov	 cl, BYTE PTR [eax+21]
  00022	84 c9		 test	 cl, cl
  00024	56		 push	 esi
  00025	74 4c		 je	 SHORT $L209874

; 592  : 			_THROW(out_of_range, "invalid map/set<T> iterator");

  00027	6a 1b		 push	 27			; 0000001bH
  00029	33 f6		 xor	 esi, esi
  0002b	68 00 00 00 00	 push	 OFFSET FLAT:??_C@_0BM@PAPJHAGI@invalid?5map?1set?$DMT?$DO?5iterator?$AA@
  00030	8d 4c 24 14	 lea	 ecx, DWORD PTR $T219401[esp+100]
  00034	c7 44 24 2c 0f
	00 00 00	 mov	 DWORD PTR $T219401[esp+124], 15 ; 0000000fH
  0003c	89 74 24 28	 mov	 DWORD PTR $T219401[esp+120], esi
  00040	c6 44 24 18 00	 mov	 BYTE PTR $T219401[esp+104], 0
  00045	e8 00 00 00 00	 call	 ?assign@?$basic_string@DU?$char_traits@D@std@@V?$allocator@D@2@@std@@QAEAAV12@PBDI@Z ; std::basic_string<char,std::char_traits<char>,std::allocator<char> >::assign
  0004a	8d 44 24 0c	 lea	 eax, DWORD PTR $T219401[esp+92]
  0004e	50		 push	 eax
  0004f	8d 4c 24 2c	 lea	 ecx, DWORD PTR $T219400[esp+96]
  00053	89 74 24 5c	 mov	 DWORD PTR __$EHRec$[esp+104], esi
  00057	e8 00 00 00 00	 call	 ??0logic_error@std@@QAE@ABV?$basic_string@DU?$char_traits@D@std@@V?$allocator@D@2@@1@@Z ; std::logic_error::logic_error
  0005c	68 00 00 00 00	 push	 OFFSET FLAT:__TI3?AVout_of_range@std@@
  00061	8d 4c 24 2c	 lea	 ecx, DWORD PTR $T219400[esp+96]
  00065	51		 push	 ecx
  00066	c7 44 24 30 00
	00 00 00	 mov	 DWORD PTR $T219400[esp+100], OFFSET FLAT:??_7out_of_range@std@@6B@
  0006e	e8 00 00 00 00	 call	 __CxxThrowException@8
$L209874:
  00073	53		 push	 ebx

; 593  : 		_Nodeptr _Erasednode = _Where._Mynode();	// node to erase

  00074	8b d8		 mov	 ebx, eax
  00076	57		 push	 edi

; 594  : 		++_Where;	// save successor iterator for return

  00077	8d 4c 24 6c	 lea	 ecx, DWORD PTR __Where$[esp+96]
  0007b	89 5c 24 10	 mov	 DWORD PTR __Erasednode$[esp+100], ebx
  0007f	e8 00 00 00 00	 call	 ?_Inc@const_iterator@?$_Tree@V?$_Tmap_traits@EPAU__TAXINFO@@U?$less@E@std@@V?$allocator@U?$pair@$$CBEPAU__TAXINFO@@@std@@@3@$0A@@std@@@std@@QAEXXZ ; std::_Tree<std::_Tmap_traits<unsigned char,__TAXINFO *,std::less<unsigned char>,std::allocator<std::pair<unsigned char const ,__TAXINFO *> >,0> >::const_iterator::_Inc

; 595  : 
; 596  : 		_Nodeptr _Fixnode;	// the node to recolor as needed
; 597  : 		_Nodeptr _Fixnodeparent;	// parent of _Fixnode (which may be nil)
; 598  : 		_Nodeptr _Pnode = _Erasednode;
; 599  : 
; 600  : 		if (_Isnil(_Left(_Pnode)))

  00084	8b 03		 mov	 eax, DWORD PTR [ebx]
  00086	8a 48 15	 mov	 cl, BYTE PTR [eax+21]
  00089	84 c9		 test	 cl, cl
  0008b	74 05		 je	 SHORT $L209882

; 601  : 			_Fixnode = _Right(_Pnode);	// must stitch up right subtree

  0008d	8b 7b 08	 mov	 edi, DWORD PTR [ebx+8]

; 602  : 		else if (_Isnil(_Right(_Pnode)))

  00090	eb 19		 jmp	 SHORT $L219887
$L209882:
  00092	8b 53 08	 mov	 edx, DWORD PTR [ebx+8]
  00095	8a 4a 15	 mov	 cl, BYTE PTR [edx+21]
  00098	84 c9		 test	 cl, cl
  0009a	74 04		 je	 SHORT $L209884

; 603  : 			_Fixnode = _Left(_Pnode);	// must stitch up left subtree

  0009c	8b f8		 mov	 edi, eax

; 604  : 		else

  0009e	eb 0b		 jmp	 SHORT $L219887
$L209884:

; 605  : 			{	// two subtrees, must lift successor node to replace erased
; 606  : 			_Pnode = _Where._Mynode();	// _Pnode is successor node
; 607  : 			_Fixnode = _Right(_Pnode);	// _Fixnode is its only subtree

  000a0	8b 4c 24 6c	 mov	 ecx, DWORD PTR __Where$[esp+96]

; 608  : 			}
; 609  : 
; 610  : 		if (_Pnode == _Erasednode)

  000a4	3b cb		 cmp	 ecx, ebx
  000a6	8b 79 08	 mov	 edi, DWORD PTR [ecx+8]
  000a9	75 6e		 jne	 SHORT $L209886
$L219887:

; 611  : 			{	// at most one subtree, relink it
; 612  : 			_Fixnodeparent = _Parent(_Erasednode);
; 613  : 			if (!_Isnil(_Fixnode))

  000ab	8a 47 15	 mov	 al, BYTE PTR [edi+21]
  000ae	84 c0		 test	 al, al
  000b0	8b 73 04	 mov	 esi, DWORD PTR [ebx+4]
  000b3	75 03		 jne	 SHORT $L209887

; 614  : 				_Parent(_Fixnode) = _Fixnodeparent;	// link up

  000b5	89 77 04	 mov	 DWORD PTR [edi+4], esi
$L209887:

; 615  : 
; 616  : 			if (_Root() == _Erasednode)

  000b8	8b 45 04	 mov	 eax, DWORD PTR [ebp+4]
  000bb	39 58 04	 cmp	 DWORD PTR [eax+4], ebx
  000be	75 05		 jne	 SHORT $L209888

; 617  : 				_Root() = _Fixnode;	// link down from root

  000c0	89 78 04	 mov	 DWORD PTR [eax+4], edi

; 618  : 			else if (_Left(_Fixnodeparent) == _Erasednode)

  000c3	eb 0b		 jmp	 SHORT $L209891
$L209888:
  000c5	39 1e		 cmp	 DWORD PTR [esi], ebx
  000c7	75 04		 jne	 SHORT $L209890

; 619  : 				_Left(_Fixnodeparent) = _Fixnode;	// link down to left

  000c9	89 3e		 mov	 DWORD PTR [esi], edi

; 620  : 			else

  000cb	eb 03		 jmp	 SHORT $L209891
$L209890:

; 621  : 				_Right(_Fixnodeparent) = _Fixnode;	// link down to right

  000cd	89 7e 08	 mov	 DWORD PTR [esi+8], edi
$L209891:

; 622  : 
; 623  : 			if (_Lmost() == _Erasednode)

  000d0	8b 5d 04	 mov	 ebx, DWORD PTR [ebp+4]
  000d3	8b 03		 mov	 eax, DWORD PTR [ebx]
  000d5	3b 44 24 10	 cmp	 eax, DWORD PTR __Erasednode$[esp+100]
  000d9	75 16		 jne	 SHORT $L209892

; 624  : 				_Lmost() = _Isnil(_Fixnode)
; 625  : 					? _Fixnodeparent	// smallest is parent of erased node
; 626  : 					: _Min(_Fixnode);	// smallest in relinked subtree

  000db	8a 47 15	 mov	 al, BYTE PTR [edi+21]
  000de	84 c0		 test	 al, al
  000e0	74 04		 je	 SHORT $L219402
  000e2	8b c6		 mov	 eax, esi
  000e4	eb 09		 jmp	 SHORT $L219403
$L219402:
  000e6	57		 push	 edi
  000e7	e8 00 00 00 00	 call	 ?_Min@?$_Tree@V?$_Tmap_traits@EPAU__TAXINFO@@U?$less@E@std@@V?$allocator@U?$pair@$$CBEPAU__TAXINFO@@@std@@@3@$0A@@std@@@std@@KAPAU_Node@?$_Tree_nod@V?$_Tmap_traits@EPAU__TAXINFO@@U?$less@E@std@@V?$allocator@U?$pair@$$CBEPAU__TAXINFO@@@std@@@3@$0A@@std@@@2@PAU342@@Z ; std::_Tree<std::_Tmap_traits<unsigned char,__TAXINFO *,std::less<unsigned char>,std::allocator<std::pair<unsigned char const ,__TAXINFO *> >,0> >::_Min
  000ec	83 c4 04	 add	 esp, 4
$L219403:
  000ef	89 03		 mov	 DWORD PTR [ebx], eax
$L209892:

; 627  : 
; 628  : 			if (_Rmost() == _Erasednode)

  000f1	8b 5d 04	 mov	 ebx, DWORD PTR [ebp+4]
  000f4	8b 4c 24 10	 mov	 ecx, DWORD PTR __Erasednode$[esp+100]
  000f8	39 4b 08	 cmp	 DWORD PTR [ebx+8], ecx
  000fb	75 74		 jne	 SHORT $L219720

; 629  : 				_Rmost() = _Isnil(_Fixnode)
; 630  : 					? _Fixnodeparent	// largest is parent of erased node
; 631  : 					: _Max(_Fixnode);	// largest in relinked subtree

  000fd	8a 47 15	 mov	 al, BYTE PTR [edi+21]
  00100	84 c0		 test	 al, al
  00102	74 07		 je	 SHORT $L219404
  00104	8b c6		 mov	 eax, esi
  00106	89 43 08	 mov	 DWORD PTR [ebx+8], eax

; 632  : 			}
; 633  : 		else

  00109	eb 66		 jmp	 SHORT $L219720
$L219404:

; 629  : 				_Rmost() = _Isnil(_Fixnode)
; 630  : 					? _Fixnodeparent	// largest is parent of erased node
; 631  : 					: _Max(_Fixnode);	// largest in relinked subtree

  0010b	57		 push	 edi
  0010c	e8 00 00 00 00	 call	 ?_Max@?$_Tree@V?$_Tmap_traits@EPAU__TAXINFO@@U?$less@E@std@@V?$allocator@U?$pair@$$CBEPAU__TAXINFO@@@std@@@3@$0A@@std@@@std@@KAPAU_Node@?$_Tree_nod@V?$_Tmap_traits@EPAU__TAXINFO@@U?$less@E@std@@V?$allocator@U?$pair@$$CBEPAU__TAXINFO@@@std@@@3@$0A@@std@@@2@PAU342@@Z ; std::_Tree<std::_Tmap_traits<unsigned char,__TAXINFO *,std::less<unsigned char>,std::allocator<std::pair<unsigned char const ,__TAXINFO *> >,0> >::_Max
  00111	83 c4 04	 add	 esp, 4
  00114	89 43 08	 mov	 DWORD PTR [ebx+8], eax

; 632  : 			}
; 633  : 		else

  00117	eb 58		 jmp	 SHORT $L219720
$L209886:

; 634  : 			{	// erased has two subtrees, _Pnode is successor to erased
; 635  : 			_Parent(_Left(_Erasednode)) = _Pnode;	// link left up

  00119	89 48 04	 mov	 DWORD PTR [eax+4], ecx

; 636  : 			_Left(_Pnode) = _Left(_Erasednode);	// link successor down

  0011c	8b 13		 mov	 edx, DWORD PTR [ebx]
  0011e	89 11		 mov	 DWORD PTR [ecx], edx

; 637  : 
; 638  : 			if (_Pnode == _Right(_Erasednode))

  00120	3b 4b 08	 cmp	 ecx, DWORD PTR [ebx+8]
  00123	75 04		 jne	 SHORT $L209895

; 639  : 				_Fixnodeparent = _Pnode;	// successor is next to erased

  00125	8b f1		 mov	 esi, ecx

; 640  : 			else

  00127	eb 1b		 jmp	 SHORT $L209896
$L209895:

; 641  : 				{	// successor further down, link in place of erased
; 642  : 				_Fixnodeparent = _Parent(_Pnode);	// parent is successor's
; 643  : 				if (!_Isnil(_Fixnode))

  00129	8a 47 15	 mov	 al, BYTE PTR [edi+21]
  0012c	84 c0		 test	 al, al
  0012e	8b 71 04	 mov	 esi, DWORD PTR [ecx+4]
  00131	75 03		 jne	 SHORT $L209897

; 644  : 					_Parent(_Fixnode) = _Fixnodeparent;	// link fix up

  00133	89 77 04	 mov	 DWORD PTR [edi+4], esi
$L209897:

; 645  : 				_Left(_Fixnodeparent) = _Fixnode;	// link fix down

  00136	89 3e		 mov	 DWORD PTR [esi], edi

; 646  : 				_Right(_Pnode) = _Right(_Erasednode);	// link successor down

  00138	8b 43 08	 mov	 eax, DWORD PTR [ebx+8]
  0013b	89 41 08	 mov	 DWORD PTR [ecx+8], eax

; 647  : 				_Parent(_Right(_Erasednode)) = _Pnode;	// link right up

  0013e	8b 53 08	 mov	 edx, DWORD PTR [ebx+8]
  00141	89 4a 04	 mov	 DWORD PTR [edx+4], ecx
$L209896:

; 648  : 				}
; 649  : 
; 650  : 			if (_Root() == _Erasednode)

  00144	8b 45 04	 mov	 eax, DWORD PTR [ebp+4]
  00147	39 58 04	 cmp	 DWORD PTR [eax+4], ebx
  0014a	75 05		 jne	 SHORT $L209898

; 651  : 				_Root() = _Pnode;	// link down from root

  0014c	89 48 04	 mov	 DWORD PTR [eax+4], ecx

; 652  : 			else if (_Left(_Parent(_Erasednode)) == _Erasednode)

  0014f	eb 0e		 jmp	 SHORT $L209901
$L209898:
  00151	8b 43 04	 mov	 eax, DWORD PTR [ebx+4]
  00154	39 18		 cmp	 DWORD PTR [eax], ebx
  00156	75 04		 jne	 SHORT $L209900

; 653  : 				_Left(_Parent(_Erasednode)) = _Pnode;	// link down to left

  00158	89 08		 mov	 DWORD PTR [eax], ecx

; 654  : 			else

  0015a	eb 03		 jmp	 SHORT $L209901
$L209900:

; 655  : 				_Right(_Parent(_Erasednode)) = _Pnode;	// link down to right

  0015c	89 48 08	 mov	 DWORD PTR [eax+8], ecx
$L209901:

; 656  : 
; 657  : 			_Parent(_Pnode) = _Parent(_Erasednode);	// link successor up

  0015f	8b 43 04	 mov	 eax, DWORD PTR [ebx+4]
  00162	89 41 04	 mov	 DWORD PTR [ecx+4], eax

; 658  : 			std::swap(_Color(_Pnode), _Color(_Erasednode));	// recolor it

  00165	8a 53 14	 mov	 dl, BYTE PTR [ebx+20]
  00168	8a 41 14	 mov	 al, BYTE PTR [ecx+20]
  0016b	88 51 14	 mov	 BYTE PTR [ecx+20], dl
  0016e	88 43 14	 mov	 BYTE PTR [ebx+20], al
$L219720:

; 659  : 			}
; 660  : 
; 661  : 		if (_Color(_Erasednode) == _Black)

  00171	8b 44 24 10	 mov	 eax, DWORD PTR __Erasednode$[esp+100]
  00175	8a 48 14	 mov	 cl, BYTE PTR [eax+20]
  00178	b3 01		 mov	 bl, 1
  0017a	3a cb		 cmp	 cl, bl
  0017c	0f 85 ff 00 00
	00		 jne	 $L209902

; 662  : 			{	// erasing black link, must recolor/rebalance tree
; 663  : 			for (; _Fixnode != _Root() && _Color(_Fixnode) == _Black;
; 664  : 				_Fixnodeparent = _Parent(_Fixnode))

  00182	8b 4d 04	 mov	 ecx, DWORD PTR [ebp+4]
  00185	3b 79 04	 cmp	 edi, DWORD PTR [ecx+4]
  00188	0f 84 f0 00 00
	00		 je	 $L209905
  0018e	8b ff		 npad	 2
$L209903:
  00190	38 5f 14	 cmp	 BYTE PTR [edi+20], bl
  00193	0f 85 e5 00 00
	00		 jne	 $L209905

; 665  : 				if (_Fixnode == _Left(_Fixnodeparent))

  00199	8b 06		 mov	 eax, DWORD PTR [esi]
  0019b	3b f8		 cmp	 edi, eax
  0019d	75 67		 jne	 SHORT $L209906

; 666  : 					{	// fixup left subtree
; 667  : 					_Pnode = _Right(_Fixnodeparent);

  0019f	8b 46 08	 mov	 eax, DWORD PTR [esi+8]

; 668  : 					if (_Color(_Pnode) == _Red)

  001a2	8a 48 14	 mov	 cl, BYTE PTR [eax+20]
  001a5	84 c9		 test	 cl, cl
  001a7	75 12		 jne	 SHORT $L209907

; 669  : 						{	// rotate red up from right subtree
; 670  : 						_Color(_Pnode) = _Black;

  001a9	88 58 14	 mov	 BYTE PTR [eax+20], bl

; 671  : 						_Color(_Fixnodeparent) = _Red;
; 672  : 						_Lrotate(_Fixnodeparent);

  001ac	56		 push	 esi
  001ad	8b cd		 mov	 ecx, ebp
  001af	c6 46 14 00	 mov	 BYTE PTR [esi+20], 0
  001b3	e8 00 00 00 00	 call	 ?_Lrotate@?$_Tree@V?$_Tmap_traits@EPAU__TAXINFO@@U?$less@E@std@@V?$allocator@U?$pair@$$CBEPAU__TAXINFO@@@std@@@3@$0A@@std@@@std@@IAEXPAU_Node@?$_Tree_nod@V?$_Tmap_traits@EPAU__TAXINFO@@U?$less@E@std@@V?$allocator@U?$pair@$$CBEPAU__TAXINFO@@@std@@@3@$0A@@std@@@2@@Z ; std::_Tree<std::_Tmap_traits<unsigned char,__TAXINFO *,std::less<unsigned char>,std::allocator<std::pair<unsigned char const ,__TAXINFO *> >,0> >::_Lrotate

; 673  : 						_Pnode = _Right(_Fixnodeparent);

  001b8	8b 46 08	 mov	 eax, DWORD PTR [esi+8]
$L209907:

; 674  : 						}
; 675  : 
; 676  : 					if (_Isnil(_Pnode))

  001bb	8a 48 15	 mov	 cl, BYTE PTR [eax+21]
  001be	84 c9		 test	 cl, cl

; 677  : 						_Fixnode = _Fixnodeparent;	// shouldn't happen
; 678  : 					else if (_Color(_Left(_Pnode)) == _Black

  001c0	75 76		 jne	 SHORT $L219890

; 679  : 						&& _Color(_Right(_Pnode)) == _Black)

  001c2	8b 10		 mov	 edx, DWORD PTR [eax]
  001c4	38 5a 14	 cmp	 BYTE PTR [edx+20], bl
  001c7	75 08		 jne	 SHORT $L209910
  001c9	8b 48 08	 mov	 ecx, DWORD PTR [eax+8]
  001cc	38 59 14	 cmp	 BYTE PTR [ecx+20], bl
  001cf	74 63		 je	 SHORT $L219891
$L209910:

; 680  : 						{	// redden right subtree with black children
; 681  : 						_Color(_Pnode) = _Red;
; 682  : 						_Fixnode = _Fixnodeparent;
; 683  : 						}
; 684  : 					else
; 685  : 						{	// must rearrange right subtree
; 686  : 						if (_Color(_Right(_Pnode)) == _Black)

  001d1	8b 48 08	 mov	 ecx, DWORD PTR [eax+8]
  001d4	38 59 14	 cmp	 BYTE PTR [ecx+20], bl
  001d7	75 14		 jne	 SHORT $L209912

; 687  : 							{	// rotate red up from left sub-subtree
; 688  : 							_Color(_Left(_Pnode)) = _Black;

  001d9	8b 10		 mov	 edx, DWORD PTR [eax]
  001db	88 5a 14	 mov	 BYTE PTR [edx+20], bl

; 689  : 							_Color(_Pnode) = _Red;
; 690  : 							_Rrotate(_Pnode);

  001de	50		 push	 eax
  001df	8b cd		 mov	 ecx, ebp
  001e1	c6 40 14 00	 mov	 BYTE PTR [eax+20], 0
  001e5	e8 00 00 00 00	 call	 ?_Rrotate@?$_Tree@V?$_Tmap_traits@EPAU__TAXINFO@@U?$less@E@std@@V?$allocator@U?$pair@$$CBEPAU__TAXINFO@@@std@@@3@$0A@@std@@@std@@IAEXPAU_Node@?$_Tree_nod@V?$_Tmap_traits@EPAU__TAXINFO@@U?$less@E@std@@V?$allocator@U?$pair@$$CBEPAU__TAXINFO@@@std@@@3@$0A@@std@@@2@@Z ; std::_Tree<std::_Tmap_traits<unsigned char,__TAXINFO *,std::less<unsigned char>,std::allocator<std::pair<unsigned char const ,__TAXINFO *> >,0> >::_Rrotate

; 691  : 							_Pnode = _Right(_Fixnodeparent);

  001ea	8b 46 08	 mov	 eax, DWORD PTR [esi+8]
$L209912:

; 692  : 							}
; 693  : 
; 694  : 						_Color(_Pnode) = _Color(_Fixnodeparent);

  001ed	8a 4e 14	 mov	 cl, BYTE PTR [esi+20]
  001f0	88 48 14	 mov	 BYTE PTR [eax+20], cl

; 695  : 						_Color(_Fixnodeparent) = _Black;

  001f3	88 5e 14	 mov	 BYTE PTR [esi+20], bl

; 696  : 						_Color(_Right(_Pnode)) = _Black;

  001f6	8b 50 08	 mov	 edx, DWORD PTR [eax+8]

; 697  : 						_Lrotate(_Fixnodeparent);

  001f9	56		 push	 esi
  001fa	8b cd		 mov	 ecx, ebp
  001fc	88 5a 14	 mov	 BYTE PTR [edx+20], bl
  001ff	e8 00 00 00 00	 call	 ?_Lrotate@?$_Tree@V?$_Tmap_traits@EPAU__TAXINFO@@U?$less@E@std@@V?$allocator@U?$pair@$$CBEPAU__TAXINFO@@@std@@@3@$0A@@std@@@std@@IAEXPAU_Node@?$_Tree_nod@V?$_Tmap_traits@EPAU__TAXINFO@@U?$less@E@std@@V?$allocator@U?$pair@$$CBEPAU__TAXINFO@@@std@@@3@$0A@@std@@@2@@Z ; std::_Tree<std::_Tmap_traits<unsigned char,__TAXINFO *,std::less<unsigned char>,std::allocator<std::pair<unsigned char const ,__TAXINFO *> >,0> >::_Lrotate

; 698  : 						break;	// tree now recolored/rebalanced

  00204	eb 78		 jmp	 SHORT $L209905
$L209906:

; 699  : 						}
; 700  : 					}
; 701  : 				else
; 702  : 					{	// fixup right subtree
; 703  : 					_Pnode = _Left(_Fixnodeparent);
; 704  : 					if (_Color(_Pnode) == _Red)

  00206	8a 48 14	 mov	 cl, BYTE PTR [eax+20]
  00209	84 c9		 test	 cl, cl
  0020b	75 11		 jne	 SHORT $L209914

; 705  : 						{	// rotate red up from left subtree
; 706  : 						_Color(_Pnode) = _Black;

  0020d	88 58 14	 mov	 BYTE PTR [eax+20], bl

; 707  : 						_Color(_Fixnodeparent) = _Red;
; 708  : 						_Rrotate(_Fixnodeparent);

  00210	56		 push	 esi
  00211	8b cd		 mov	 ecx, ebp
  00213	c6 46 14 00	 mov	 BYTE PTR [esi+20], 0
  00217	e8 00 00 00 00	 call	 ?_Rrotate@?$_Tree@V?$_Tmap_traits@EPAU__TAXINFO@@U?$less@E@std@@V?$allocator@U?$pair@$$CBEPAU__TAXINFO@@@std@@@3@$0A@@std@@@std@@IAEXPAU_Node@?$_Tree_nod@V?$_Tmap_traits@EPAU__TAXINFO@@U?$less@E@std@@V?$allocator@U?$pair@$$CBEPAU__TAXINFO@@@std@@@3@$0A@@std@@@2@@Z ; std::_Tree<std::_Tmap_traits<unsigned char,__TAXINFO *,std::less<unsigned char>,std::allocator<std::pair<unsigned char const ,__TAXINFO *> >,0> >::_Rrotate

; 709  : 						_Pnode = _Left(_Fixnodeparent);

  0021c	8b 06		 mov	 eax, DWORD PTR [esi]
$L209914:

; 710  : 						}
; 711  : 					if (_Isnil(_Pnode))

  0021e	8a 48 15	 mov	 cl, BYTE PTR [eax+21]
  00221	84 c9		 test	 cl, cl

; 712  : 						_Fixnode = _Fixnodeparent;	// shouldn't happen
; 713  : 					else if (_Color(_Right(_Pnode)) == _Black

  00223	75 13		 jne	 SHORT $L219890

; 714  : 						&& _Color(_Left(_Pnode)) == _Black)

  00225	8b 50 08	 mov	 edx, DWORD PTR [eax+8]
  00228	38 5a 14	 cmp	 BYTE PTR [edx+20], bl
  0022b	75 20		 jne	 SHORT $L209917
  0022d	8b 08		 mov	 ecx, DWORD PTR [eax]
  0022f	38 59 14	 cmp	 BYTE PTR [ecx+20], bl
  00232	75 19		 jne	 SHORT $L209917
$L219891:

; 715  : 						{	// redden left subtree with black children
; 716  : 						_Color(_Pnode) = _Red;

  00234	c6 40 14 00	 mov	 BYTE PTR [eax+20], 0
$L219890:

; 662  : 			{	// erasing black link, must recolor/rebalance tree
; 663  : 			for (; _Fixnode != _Root() && _Color(_Fixnode) == _Black;
; 664  : 				_Fixnodeparent = _Parent(_Fixnode))

  00238	8b 55 04	 mov	 edx, DWORD PTR [ebp+4]
  0023b	8b 42 04	 mov	 eax, DWORD PTR [edx+4]

; 717  : 						_Fixnode = _Fixnodeparent;

  0023e	8b fe		 mov	 edi, esi
  00240	3b f8		 cmp	 edi, eax
  00242	8b 76 04	 mov	 esi, DWORD PTR [esi+4]
  00245	0f 85 45 ff ff
	ff		 jne	 $L209903

; 662  : 			{	// erasing black link, must recolor/rebalance tree
; 663  : 			for (; _Fixnode != _Root() && _Color(_Fixnode) == _Black;
; 664  : 				_Fixnodeparent = _Parent(_Fixnode))

  0024b	eb 31		 jmp	 SHORT $L209905
$L209917:

; 718  : 						}
; 719  : 					else
; 720  : 						{	// must rearrange left subtree
; 721  : 						if (_Color(_Left(_Pnode)) == _Black)

  0024d	8b 08		 mov	 ecx, DWORD PTR [eax]
  0024f	38 59 14	 cmp	 BYTE PTR [ecx+20], bl
  00252	75 14		 jne	 SHORT $L209919

; 722  : 							{	// rotate red up from right sub-subtree
; 723  : 							_Color(_Right(_Pnode)) = _Black;

  00254	8b 50 08	 mov	 edx, DWORD PTR [eax+8]
  00257	88 5a 14	 mov	 BYTE PTR [edx+20], bl

; 724  : 							_Color(_Pnode) = _Red;
; 725  : 							_Lrotate(_Pnode);

  0025a	50		 push	 eax
  0025b	8b cd		 mov	 ecx, ebp
  0025d	c6 40 14 00	 mov	 BYTE PTR [eax+20], 0
  00261	e8 00 00 00 00	 call	 ?_Lrotate@?$_Tree@V?$_Tmap_traits@EPAU__TAXINFO@@U?$less@E@std@@V?$allocator@U?$pair@$$CBEPAU__TAXINFO@@@std@@@3@$0A@@std@@@std@@IAEXPAU_Node@?$_Tree_nod@V?$_Tmap_traits@EPAU__TAXINFO@@U?$less@E@std@@V?$allocator@U?$pair@$$CBEPAU__TAXINFO@@@std@@@3@$0A@@std@@@2@@Z ; std::_Tree<std::_Tmap_traits<unsigned char,__TAXINFO *,std::less<unsigned char>,std::allocator<std::pair<unsigned char const ,__TAXINFO *> >,0> >::_Lrotate

; 726  : 							_Pnode = _Left(_Fixnodeparent);

  00266	8b 06		 mov	 eax, DWORD PTR [esi]
$L209919:

; 727  : 							}
; 728  : 
; 729  : 						_Color(_Pnode) = _Color(_Fixnodeparent);

  00268	8a 4e 14	 mov	 cl, BYTE PTR [esi+20]
  0026b	88 48 14	 mov	 BYTE PTR [eax+20], cl

; 730  : 						_Color(_Fixnodeparent) = _Black;

  0026e	88 5e 14	 mov	 BYTE PTR [esi+20], bl

; 731  : 						_Color(_Left(_Pnode)) = _Black;

  00271	8b 10		 mov	 edx, DWORD PTR [eax]

; 732  : 						_Rrotate(_Fixnodeparent);

  00273	56		 push	 esi
  00274	8b cd		 mov	 ecx, ebp
  00276	88 5a 14	 mov	 BYTE PTR [edx+20], bl
  00279	e8 00 00 00 00	 call	 ?_Rrotate@?$_Tree@V?$_Tmap_traits@EPAU__TAXINFO@@U?$less@E@std@@V?$allocator@U?$pair@$$CBEPAU__TAXINFO@@@std@@@3@$0A@@std@@@std@@IAEXPAU_Node@?$_Tree_nod@V?$_Tmap_traits@EPAU__TAXINFO@@U?$less@E@std@@V?$allocator@U?$pair@$$CBEPAU__TAXINFO@@@std@@@3@$0A@@std@@@2@@Z ; std::_Tree<std::_Tmap_traits<unsigned char,__TAXINFO *,std::less<unsigned char>,std::allocator<std::pair<unsigned char const ,__TAXINFO *> >,0> >::_Rrotate
$L209905:

; 733  : 						break;	// tree now recolored/rebalanced
; 734  : 						}
; 735  : 					}
; 736  : 
; 737  : 			_Color(_Fixnode) = _Black;	// ensure stopping node is black

  0027e	88 5f 14	 mov	 BYTE PTR [edi+20], bl
$L209902:

; 738  : 			}
; 739  : 
; 740  : 		this->_Alnod.destroy(_Erasednode);	// destroy, free erased node
; 741  : 		this->_Alnod.deallocate(_Erasednode, 1);

  00281	8b 44 24 10	 mov	 eax, DWORD PTR __Erasednode$[esp+100]
  00285	50		 push	 eax
  00286	e8 00 00 00 00	 call	 ??3@YAXPAX@Z		; operator delete

; 742  : 
; 743  : 		if (0 < _Mysize)

  0028b	8b 45 08	 mov	 eax, DWORD PTR [ebp+8]
  0028e	83 c4 04	 add	 esp, 4
  00291	85 c0		 test	 eax, eax
  00293	5f		 pop	 edi
  00294	5b		 pop	 ebx
  00295	76 04		 jbe	 SHORT $L209920

; 744  : 			--_Mysize;

  00297	48		 dec	 eax
  00298	89 45 08	 mov	 DWORD PTR [ebp+8], eax
$L209920:

; 745  : 
; 746  : 		return (_Where);	// return successor iterator

  0029b	8b 4c 24 64	 mov	 ecx, DWORD PTR __Where$[esp+88]
  0029f	8b 44 24 60	 mov	 eax, DWORD PTR ___$ReturnUdt$[esp+88]
  002a3	89 08		 mov	 DWORD PTR [eax], ecx

; 747  : 		}

  002a5	8b 4c 24 50	 mov	 ecx, DWORD PTR __$EHRec$[esp+92]
  002a9	5e		 pop	 esi
  002aa	5d		 pop	 ebp
  002ab	64 89 0d 00 00
	00 00		 mov	 DWORD PTR fs:__except_list, ecx
  002b2	83 c4 54	 add	 esp, 84			; 00000054H
  002b5	c2 08 00	 ret	 8
$L219889:
_TEXT	ENDS
;	COMDAT text$x
text$x	SEGMENT
$L219406:
  00000	8d 4d b0	 lea	 ecx, DWORD PTR $T219401[ebp]
  00003	e9 00 00 00 00	 jmp	 ??1?$basic_string@DU?$char_traits@D@std@@V?$allocator@D@2@@std@@QAE@XZ ; std::basic_string<char,std::char_traits<char>,std::allocator<char> >::~basic_string<char,std::char_traits<char>,std::allocator<char> >
__ehhandler$?erase@?$_Tree@V?$_Tmap_traits@EPAU__TAXINFO@@U?$less@E@std@@V?$allocator@U?$pair@$$CBEPAU__TAXINFO@@@std@@@3@$0A@@std@@@std@@QAE?AViterator@12@V312@@Z:
  00008	b8 00 00 00 00	 mov	 eax, OFFSET FLAT:$T219884
  0000d	e9 00 00 00 00	 jmp	 ___CxxFrameHandler
text$x	ENDS
?erase@?$_Tree@V?$_Tmap_traits@EPAU__TAXINFO@@U?$less@E@std@@V?$allocator@U?$pair@$$CBEPAU__TAXINFO@@@std@@@3@$0A@@std@@@std@@QAE?AViterator@12@V312@@Z ENDP ; std::_Tree<std::_Tmap_traits<unsigned char,__TAXINFO *,std::less<unsigned char>,std::allocator<std::pair<unsigned char const ,__TAXINFO *> >,0> >::erase
PUBLIC	?_Buy@?$vector@KV?$allocator@K@std@@@std@@IAE_NI@Z ; std::vector<unsigned long,std::allocator<unsigned long> >::_Buy
; Function compile flags: /Ogty
; File c:\program files\microsoft visual studio .net 2003\vc7\include\vector
;	COMDAT ?_Buy@?$vector@KV?$allocator@K@std@@@std@@IAE_NI@Z
_TEXT	SEGMENT
__Capacity$ = 8						; size = 4
?_Buy@?$vector@KV?$allocator@K@std@@@std@@IAE_NI@Z PROC NEAR ; std::vector<unsigned long,std::allocator<unsigned long> >::_Buy, COMDAT
; _this$ = ecx

; 771  : 		_Myfirst = 0, _Mylast = 0, _Myend = 0;
; 772  : 		if (_Capacity == 0)

  00000	8b 44 24 04	 mov	 eax, DWORD PTR __Capacity$[esp-4]
  00004	56		 push	 esi
  00005	8b f1		 mov	 esi, ecx
  00007	33 c9		 xor	 ecx, ecx
  00009	3b c1		 cmp	 eax, ecx
  0000b	89 4e 04	 mov	 DWORD PTR [esi+4], ecx
  0000e	89 4e 08	 mov	 DWORD PTR [esi+8], ecx
  00011	89 4e 0c	 mov	 DWORD PTR [esi+12], ecx
  00014	75 06		 jne	 SHORT $L184542

; 773  : 			return (false);

  00016	32 c0		 xor	 al, al
  00018	5e		 pop	 esi

; 783  : 		}

  00019	c2 04 00	 ret	 4
$L184542:

; 774  : 		else if (max_size() < _Capacity)

  0001c	3d ff ff ff 3f	 cmp	 eax, 1073741823		; 3fffffffH
  00021	76 07		 jbe	 SHORT $L184544

; 775  : 			_Xlen();	// result too long

  00023	8b ce		 mov	 ecx, esi
  00025	e8 00 00 00 00	 call	 ?_Xlen@?$vector@KV?$allocator@K@std@@@std@@IBEXXZ ; std::vector<unsigned long,std::allocator<unsigned long> >::_Xlen
$L184544:
  0002a	57		 push	 edi

; 776  : 		else
; 777  : 			{	// nonempty array, allocate storage
; 778  : 			_Myfirst = this->_Alval.allocate(_Capacity);

  0002b	8d 3c 85 00 00
	00 00		 lea	 edi, DWORD PTR [eax*4]
  00032	57		 push	 edi
  00033	e8 00 00 00 00	 call	 ??2@YAPAXI@Z		; operator new

; 779  : 			_Mylast = _Myfirst;
; 780  : 			_Myend = _Myfirst + _Capacity;

  00038	03 f8		 add	 edi, eax
  0003a	83 c4 04	 add	 esp, 4
  0003d	89 7e 0c	 mov	 DWORD PTR [esi+12], edi
  00040	89 46 04	 mov	 DWORD PTR [esi+4], eax
  00043	89 46 08	 mov	 DWORD PTR [esi+8], eax
  00046	5f		 pop	 edi

; 781  : 			}
; 782  : 		return (true);

  00047	b0 01		 mov	 al, 1
  00049	5e		 pop	 esi

; 783  : 		}

  0004a	c2 04 00	 ret	 4
$L219921:
?_Buy@?$vector@KV?$allocator@K@std@@@std@@IAE_NI@Z ENDP	; std::vector<unsigned long,std::allocator<unsigned long> >::_Buy
_TEXT	ENDS
PUBLIC	?insert@?$_Tree@V?$_Tmap_traits@EPAU__TAXDETAIL@@U?$less@E@std@@V?$allocator@U?$pair@$$CBEPAU__TAXDETAIL@@@std@@@3@$0A@@std@@@std@@QAE?AU?$pair@Viterator@?$_Tree@V?$_Tmap_traits@EPAU__TAXDETAIL@@U?$less@E@std@@V?$allocator@U?$pair@$$CBEPAU__TAXDETAIL@@@std@@@3@$0A@@std@@@std@@_N@2@ABU?$pair@$$CBEPAU__TAXDETAIL@@@2@@Z ; std::_Tree<std::_Tmap_traits<unsigned char,__TAXDETAIL *,std::less<unsigned char>,std::allocator<std::pair<unsigned char const ,__TAXDETAIL *> >,0> >::insert
; Function compile flags: /Ogty
; File c:\program files\microsoft visual studio .net 2003\vc7\include\xtree
;	COMDAT ?insert@?$_Tree@V?$_Tmap_traits@EPAU__TAXDETAIL@@U?$less@E@std@@V?$allocator@U?$pair@$$CBEPAU__TAXDETAIL@@@std@@@3@$0A@@std@@@std@@QAE?AU?$pair@Viterator@?$_Tree@V?$_Tmap_traits@EPAU__TAXDETAIL@@U?$less@E@std@@V?$allocator@U?$pair@$$CBEPAU__TAXDETAIL@@@std@@@3@$0A@@std@@@std@@_N@2@ABU?$pair@$$CBEPAU__TAXDETAIL@@@2@@Z
_TEXT	SEGMENT
__Addleft$ = -4						; size = 1
___$ReturnUdt$ = 8					; size = 4
$T219932 = 12						; size = 4
$T219930 = 12						; size = 4
__Where$208942 = 12					; size = 4
__Val$ = 12						; size = 4
?insert@?$_Tree@V?$_Tmap_traits@EPAU__TAXDETAIL@@U?$less@E@std@@V?$allocator@U?$pair@$$CBEPAU__TAXDETAIL@@@std@@@3@$0A@@std@@@std@@QAE?AU?$pair@Viterator@?$_Tree@V?$_Tmap_traits@EPAU__TAXDETAIL@@U?$less@E@std@@V?$allocator@U?$pair@$$CBEPAU__TAXDETAIL@@@std@@@3@$0A@@std@@@std@@_N@2@ABU?$pair@$$CBEPAU__TAXDETAIL@@@2@@Z PROC NEAR ; std::_Tree<std::_Tmap_traits<unsigned char,__TAXDETAIL *,std::less<unsigned char>,std::allocator<std::pair<unsigned char const ,__TAXDETAIL *> >,0> >::insert, COMDAT
; _this$ = ecx

; 477  : 		{	// try to insert node with value _Val

  00000	51		 push	 ecx
  00001	55		 push	 ebp

; 478  : 		_Nodeptr _Trynode = _Root();
; 479  : 		_Nodeptr _Wherenode = _Myhead;
; 480  : 		bool _Addleft = true;	// add to left of head if tree empty
; 481  : 		while (!_Isnil(_Trynode))

  00002	8b 6c 24 10	 mov	 ebp, DWORD PTR __Val$[esp+4]
  00006	56		 push	 esi
  00007	57		 push	 edi
  00008	8b f9		 mov	 edi, ecx
  0000a	8b 77 04	 mov	 esi, DWORD PTR [edi+4]
  0000d	8b 46 04	 mov	 eax, DWORD PTR [esi+4]
  00010	8a 50 15	 mov	 dl, BYTE PTR [eax+21]
  00013	84 d2		 test	 dl, dl
  00015	b1 01		 mov	 cl, 1
  00017	88 4c 24 0c	 mov	 BYTE PTR __Addleft$[esp+16], cl
  0001b	75 20		 jne	 SHORT $L208931
  0001d	8a 55 00	 mov	 dl, BYTE PTR [ebp]
$L208930:

; 482  : 			{	// look for leaf to insert before (_Addleft) or after
; 483  : 			_Wherenode = _Trynode;
; 484  : 			_Addleft = this->comp(this->_Kfn(_Val), _Key(_Trynode));

  00020	3a 50 0c	 cmp	 dl, BYTE PTR [eax+12]
  00023	0f 92 c1	 setb	 cl

; 485  : 			_Trynode = _Addleft ? _Left(_Trynode) : _Right(_Trynode);

  00026	84 c9		 test	 cl, cl
  00028	8b f0		 mov	 esi, eax
  0002a	88 4c 24 0c	 mov	 BYTE PTR __Addleft$[esp+16], cl
  0002e	74 04		 je	 SHORT $L219924
  00030	8b 00		 mov	 eax, DWORD PTR [eax]
  00032	eb 03		 jmp	 SHORT $L219925
$L219924:
  00034	8b 40 08	 mov	 eax, DWORD PTR [eax+8]
$L219925:

; 478  : 		_Nodeptr _Trynode = _Root();
; 479  : 		_Nodeptr _Wherenode = _Myhead;
; 480  : 		bool _Addleft = true;	// add to left of head if tree empty
; 481  : 		while (!_Isnil(_Trynode))

  00037	80 78 15 00	 cmp	 BYTE PTR [eax+21], 0
  0003b	74 e3		 je	 SHORT $L208930
$L208931:

; 486  : 			}
; 487  : 
; 488  : 		if (this->_Multi)
; 489  : 			return (_Pairib(_Insert(_Addleft, _Wherenode, _Val), true));
; 490  : 		else
; 491  : 			{	// insert only if unique
; 492  : 			iterator _Where = _TREE_ITERATOR(_Wherenode);
; 493  : 			if (!_Addleft)

  0003d	84 c9		 test	 cl, cl
  0003f	8b d6		 mov	 edx, esi
  00041	89 54 24 18	 mov	 DWORD PTR __Where$208942[esp+12], edx
  00045	74 33		 je	 SHORT $L220024

; 494  : 				;	// need to test if insert after is okay
; 495  : 			else if (_Where == begin())

  00047	8b 47 04	 mov	 eax, DWORD PTR [edi+4]
  0004a	3b 30		 cmp	 esi, DWORD PTR [eax]

; 496  : 				return (_Pairib(_Insert(true, _Wherenode, _Val), true));

  0004c	8d 4c 24 18	 lea	 ecx, DWORD PTR $T219930[esp+12]
  00050	75 1f		 jne	 SHORT $L208947
  00052	55		 push	 ebp
  00053	56		 push	 esi
  00054	6a 01		 push	 1
  00056	51		 push	 ecx
  00057	8b cf		 mov	 ecx, edi
  00059	e8 00 00 00 00	 call	 ?_Insert@?$_Tree@V?$_Tmap_traits@EPAU__TAXDETAIL@@U?$less@E@std@@V?$allocator@U?$pair@$$CBEPAU__TAXDETAIL@@@std@@@3@$0A@@std@@@std@@IAE?AViterator@12@_NPAU_Node@?$_Tree_nod@V?$_Tmap_traits@EPAU__TAXDETAIL@@U?$less@E@std@@V?$allocator@U?$pair@$$CBEPAU__TAXDETAIL@@@std@@@3@$0A@@std@@@2@ABU?$pair@$$CBEPAU__TAXDETAIL@@@2@@Z ; std::_Tree<std::_Tmap_traits<unsigned char,__TAXDETAIL *,std::less<unsigned char>,std::allocator<std::pair<unsigned char const ,__TAXDETAIL *> >,0> >::_Insert
  0005e	8b 10		 mov	 edx, DWORD PTR [eax]
  00060	8b 44 24 14	 mov	 eax, DWORD PTR ___$ReturnUdt$[esp+12]
  00064	5f		 pop	 edi
  00065	5e		 pop	 esi
  00066	c6 40 04 01	 mov	 BYTE PTR [eax+4], 1

; 502  : 			else
; 503  : 				return (_Pairib(_Where, false));

  0006a	89 10		 mov	 DWORD PTR [eax], edx
  0006c	5d		 pop	 ebp

; 504  : 			}
; 505  : 		}

  0006d	59		 pop	 ecx
  0006e	c2 08 00	 ret	 8
$L208947:

; 497  : 			else
; 498  : 				--_Where;	// need to test if insert before is okay

  00071	e8 00 00 00 00	 call	 ?_Dec@const_iterator@?$_Tree@V?$_Tmap_traits@EPAU__TAXDETAIL@@U?$less@E@std@@V?$allocator@U?$pair@$$CBEPAU__TAXDETAIL@@@std@@@3@$0A@@std@@@std@@QAEXXZ ; std::_Tree<std::_Tmap_traits<unsigned char,__TAXDETAIL *,std::less<unsigned char>,std::allocator<std::pair<unsigned char const ,__TAXDETAIL *> >,0> >::const_iterator::_Dec
  00076	8b 54 24 18	 mov	 edx, DWORD PTR __Where$208942[esp+12]
$L220024:

; 499  : 
; 500  : 			if (this->comp(_Key(_Where._Mynode()), this->_Kfn(_Val)))

  0007a	8a 42 0c	 mov	 al, BYTE PTR [edx+12]
  0007d	3a 45 00	 cmp	 al, BYTE PTR [ebp]
  00080	73 26		 jae	 SHORT $L208952

; 501  : 				return (_Pairib(_Insert(_Addleft, _Wherenode, _Val), true));

  00082	8b 4c 24 0c	 mov	 ecx, DWORD PTR __Addleft$[esp+16]
  00086	55		 push	 ebp
  00087	56		 push	 esi
  00088	51		 push	 ecx
  00089	8d 54 24 24	 lea	 edx, DWORD PTR $T219932[esp+24]
  0008d	52		 push	 edx
  0008e	8b cf		 mov	 ecx, edi
  00090	e8 00 00 00 00	 call	 ?_Insert@?$_Tree@V?$_Tmap_traits@EPAU__TAXDETAIL@@U?$less@E@std@@V?$allocator@U?$pair@$$CBEPAU__TAXDETAIL@@@std@@@3@$0A@@std@@@std@@IAE?AViterator@12@_NPAU_Node@?$_Tree_nod@V?$_Tmap_traits@EPAU__TAXDETAIL@@U?$less@E@std@@V?$allocator@U?$pair@$$CBEPAU__TAXDETAIL@@@std@@@3@$0A@@std@@@2@ABU?$pair@$$CBEPAU__TAXDETAIL@@@2@@Z ; std::_Tree<std::_Tmap_traits<unsigned char,__TAXDETAIL *,std::less<unsigned char>,std::allocator<std::pair<unsigned char const ,__TAXDETAIL *> >,0> >::_Insert
  00095	8b 08		 mov	 ecx, DWORD PTR [eax]
  00097	8b 44 24 14	 mov	 eax, DWORD PTR ___$ReturnUdt$[esp+12]
  0009b	5f		 pop	 edi
  0009c	5e		 pop	 esi
  0009d	89 08		 mov	 DWORD PTR [eax], ecx
  0009f	c6 40 04 01	 mov	 BYTE PTR [eax+4], 1
  000a3	5d		 pop	 ebp

; 504  : 			}
; 505  : 		}

  000a4	59		 pop	 ecx
  000a5	c2 08 00	 ret	 8
$L208952:

; 502  : 			else
; 503  : 				return (_Pairib(_Where, false));

  000a8	8b 44 24 14	 mov	 eax, DWORD PTR ___$ReturnUdt$[esp+12]
  000ac	5f		 pop	 edi
  000ad	5e		 pop	 esi
  000ae	c6 40 04 00	 mov	 BYTE PTR [eax+4], 0
  000b2	89 10		 mov	 DWORD PTR [eax], edx
  000b4	5d		 pop	 ebp

; 504  : 			}
; 505  : 		}

  000b5	59		 pop	 ecx
  000b6	c2 08 00	 ret	 8
?insert@?$_Tree@V?$_Tmap_traits@EPAU__TAXDETAIL@@U?$less@E@std@@V?$allocator@U?$pair@$$CBEPAU__TAXDETAIL@@@std@@@3@$0A@@std@@@std@@QAE?AU?$pair@Viterator@?$_Tree@V?$_Tmap_traits@EPAU__TAXDETAIL@@U?$less@E@std@@V?$allocator@U?$pair@$$CBEPAU__TAXDETAIL@@@std@@@3@$0A@@std@@@std@@_N@2@ABU?$pair@$$CBEPAU__TAXDETAIL@@@2@@Z ENDP ; std::_Tree<std::_Tmap_traits<unsigned char,__TAXDETAIL *,std::less<unsigned char>,std::allocator<std::pair<unsigned char const ,__TAXDETAIL *> >,0> >::insert
_TEXT	ENDS
PUBLIC	?insert@?$_Tree@V?$_Tmap_traits@EPAU__TAXINFO@@U?$less@E@std@@V?$allocator@U?$pair@$$CBEPAU__TAXINFO@@@std@@@3@$0A@@std@@@std@@QAE?AU?$pair@Viterator@?$_Tree@V?$_Tmap_traits@EPAU__TAXINFO@@U?$less@E@std@@V?$allocator@U?$pair@$$CBEPAU__TAXINFO@@@std@@@3@$0A@@std@@@std@@_N@2@ABU?$pair@$$CBEPAU__TAXINFO@@@2@@Z ; std::_Tree<std::_Tmap_traits<unsigned char,__TAXINFO *,std::less<unsigned char>,std::allocator<std::pair<unsigned char const ,__TAXINFO *> >,0> >::insert
; Function compile flags: /Ogty
;	COMDAT ?insert@?$_Tree@V?$_Tmap_traits@EPAU__TAXINFO@@U?$less@E@std@@V?$allocator@U?$pair@$$CBEPAU__TAXINFO@@@std@@@3@$0A@@std@@@std@@QAE?AU?$pair@Viterator@?$_Tree@V?$_Tmap_traits@EPAU__TAXINFO@@U?$less@E@std@@V?$allocator@U?$pair@$$CBEPAU__TAXINFO@@@std@@@3@$0A@@std@@@std@@_N@2@ABU?$pair@$$CBEPAU__TAXINFO@@@2@@Z
_TEXT	SEGMENT
__Addleft$ = -4						; size = 1
___$ReturnUdt$ = 8					; size = 4
$T220068 = 12						; size = 4
$T220066 = 12						; size = 4
__Where$209011 = 12					; size = 4
__Val$ = 12						; size = 4
?insert@?$_Tree@V?$_Tmap_traits@EPAU__TAXINFO@@U?$less@E@std@@V?$allocator@U?$pair@$$CBEPAU__TAXINFO@@@std@@@3@$0A@@std@@@std@@QAE?AU?$pair@Viterator@?$_Tree@V?$_Tmap_traits@EPAU__TAXINFO@@U?$less@E@std@@V?$allocator@U?$pair@$$CBEPAU__TAXINFO@@@std@@@3@$0A@@std@@@std@@_N@2@ABU?$pair@$$CBEPAU__TAXINFO@@@2@@Z PROC NEAR ; std::_Tree<std::_Tmap_traits<unsigned char,__TAXINFO *,std::less<unsigned char>,std::allocator<std::pair<unsigned char const ,__TAXINFO *> >,0> >::insert, COMDAT
; _this$ = ecx

; 477  : 		{	// try to insert node with value _Val

  00000	51		 push	 ecx
  00001	55		 push	 ebp

; 478  : 		_Nodeptr _Trynode = _Root();
; 479  : 		_Nodeptr _Wherenode = _Myhead;
; 480  : 		bool _Addleft = true;	// add to left of head if tree empty
; 481  : 		while (!_Isnil(_Trynode))

  00002	8b 6c 24 10	 mov	 ebp, DWORD PTR __Val$[esp+4]
  00006	56		 push	 esi
  00007	57		 push	 edi
  00008	8b f9		 mov	 edi, ecx
  0000a	8b 77 04	 mov	 esi, DWORD PTR [edi+4]
  0000d	8b 46 04	 mov	 eax, DWORD PTR [esi+4]
  00010	8a 50 15	 mov	 dl, BYTE PTR [eax+21]
  00013	84 d2		 test	 dl, dl
  00015	b1 01		 mov	 cl, 1
  00017	88 4c 24 0c	 mov	 BYTE PTR __Addleft$[esp+16], cl
  0001b	75 20		 jne	 SHORT $L209001
  0001d	8a 55 00	 mov	 dl, BYTE PTR [ebp]
$L209000:

; 482  : 			{	// look for leaf to insert before (_Addleft) or after
; 483  : 			_Wherenode = _Trynode;
; 484  : 			_Addleft = this->comp(this->_Kfn(_Val), _Key(_Trynode));

  00020	3a 50 0c	 cmp	 dl, BYTE PTR [eax+12]
  00023	0f 92 c1	 setb	 cl

; 485  : 			_Trynode = _Addleft ? _Left(_Trynode) : _Right(_Trynode);

  00026	84 c9		 test	 cl, cl
  00028	8b f0		 mov	 esi, eax
  0002a	88 4c 24 0c	 mov	 BYTE PTR __Addleft$[esp+16], cl
  0002e	74 04		 je	 SHORT $L220060
  00030	8b 00		 mov	 eax, DWORD PTR [eax]
  00032	eb 03		 jmp	 SHORT $L220061
$L220060:
  00034	8b 40 08	 mov	 eax, DWORD PTR [eax+8]
$L220061:

; 478  : 		_Nodeptr _Trynode = _Root();
; 479  : 		_Nodeptr _Wherenode = _Myhead;
; 480  : 		bool _Addleft = true;	// add to left of head if tree empty
; 481  : 		while (!_Isnil(_Trynode))

  00037	80 78 15 00	 cmp	 BYTE PTR [eax+21], 0
  0003b	74 e3		 je	 SHORT $L209000
$L209001:

; 486  : 			}
; 487  : 
; 488  : 		if (this->_Multi)
; 489  : 			return (_Pairib(_Insert(_Addleft, _Wherenode, _Val), true));
; 490  : 		else
; 491  : 			{	// insert only if unique
; 492  : 			iterator _Where = _TREE_ITERATOR(_Wherenode);
; 493  : 			if (!_Addleft)

  0003d	84 c9		 test	 cl, cl
  0003f	8b d6		 mov	 edx, esi
  00041	89 54 24 18	 mov	 DWORD PTR __Where$209011[esp+12], edx
  00045	74 33		 je	 SHORT $L220160

; 494  : 				;	// need to test if insert after is okay
; 495  : 			else if (_Where == begin())

  00047	8b 47 04	 mov	 eax, DWORD PTR [edi+4]
  0004a	3b 30		 cmp	 esi, DWORD PTR [eax]

; 496  : 				return (_Pairib(_Insert(true, _Wherenode, _Val), true));

  0004c	8d 4c 24 18	 lea	 ecx, DWORD PTR $T220066[esp+12]
  00050	75 1f		 jne	 SHORT $L209016
  00052	55		 push	 ebp
  00053	56		 push	 esi
  00054	6a 01		 push	 1
  00056	51		 push	 ecx
  00057	8b cf		 mov	 ecx, edi
  00059	e8 00 00 00 00	 call	 ?_Insert@?$_Tree@V?$_Tmap_traits@EPAU__TAXINFO@@U?$less@E@std@@V?$allocator@U?$pair@$$CBEPAU__TAXINFO@@@std@@@3@$0A@@std@@@std@@IAE?AViterator@12@_NPAU_Node@?$_Tree_nod@V?$_Tmap_traits@EPAU__TAXINFO@@U?$less@E@std@@V?$allocator@U?$pair@$$CBEPAU__TAXINFO@@@std@@@3@$0A@@std@@@2@ABU?$pair@$$CBEPAU__TAXINFO@@@2@@Z ; std::_Tree<std::_Tmap_traits<unsigned char,__TAXINFO *,std::less<unsigned char>,std::allocator<std::pair<unsigned char const ,__TAXINFO *> >,0> >::_Insert
  0005e	8b 10		 mov	 edx, DWORD PTR [eax]
  00060	8b 44 24 14	 mov	 eax, DWORD PTR ___$ReturnUdt$[esp+12]
  00064	5f		 pop	 edi
  00065	5e		 pop	 esi
  00066	c6 40 04 01	 mov	 BYTE PTR [eax+4], 1

; 502  : 			else
; 503  : 				return (_Pairib(_Where, false));

  0006a	89 10		 mov	 DWORD PTR [eax], edx
  0006c	5d		 pop	 ebp

; 504  : 			}
; 505  : 		}

  0006d	59		 pop	 ecx
  0006e	c2 08 00	 ret	 8
$L209016:

; 497  : 			else
; 498  : 				--_Where;	// need to test if insert before is okay

  00071	e8 00 00 00 00	 call	 ?_Dec@const_iterator@?$_Tree@V?$_Tmap_traits@EPAU__TAXINFO@@U?$less@E@std@@V?$allocator@U?$pair@$$CBEPAU__TAXINFO@@@std@@@3@$0A@@std@@@std@@QAEXXZ ; std::_Tree<std::_Tmap_traits<unsigned char,__TAXINFO *,std::less<unsigned char>,std::allocator<std::pair<unsigned char const ,__TAXINFO *> >,0> >::const_iterator::_Dec
  00076	8b 54 24 18	 mov	 edx, DWORD PTR __Where$209011[esp+12]
$L220160:

; 499  : 
; 500  : 			if (this->comp(_Key(_Where._Mynode()), this->_Kfn(_Val)))

  0007a	8a 42 0c	 mov	 al, BYTE PTR [edx+12]
  0007d	3a 45 00	 cmp	 al, BYTE PTR [ebp]
  00080	73 26		 jae	 SHORT $L209021

; 501  : 				return (_Pairib(_Insert(_Addleft, _Wherenode, _Val), true));

  00082	8b 4c 24 0c	 mov	 ecx, DWORD PTR __Addleft$[esp+16]
  00086	55		 push	 ebp
  00087	56		 push	 esi
  00088	51		 push	 ecx
  00089	8d 54 24 24	 lea	 edx, DWORD PTR $T220068[esp+24]
  0008d	52		 push	 edx
  0008e	8b cf		 mov	 ecx, edi
  00090	e8 00 00 00 00	 call	 ?_Insert@?$_Tree@V?$_Tmap_traits@EPAU__TAXINFO@@U?$less@E@std@@V?$allocator@U?$pair@$$CBEPAU__TAXINFO@@@std@@@3@$0A@@std@@@std@@IAE?AViterator@12@_NPAU_Node@?$_Tree_nod@V?$_Tmap_traits@EPAU__TAXINFO@@U?$less@E@std@@V?$allocator@U?$pair@$$CBEPAU__TAXINFO@@@std@@@3@$0A@@std@@@2@ABU?$pair@$$CBEPAU__TAXINFO@@@2@@Z ; std::_Tree<std::_Tmap_traits<unsigned char,__TAXINFO *,std::less<unsigned char>,std::allocator<std::pair<unsigned char const ,__TAXINFO *> >,0> >::_Insert
  00095	8b 08		 mov	 ecx, DWORD PTR [eax]
  00097	8b 44 24 14	 mov	 eax, DWORD PTR ___$ReturnUdt$[esp+12]
  0009b	5f		 pop	 edi
  0009c	5e		 pop	 esi
  0009d	89 08		 mov	 DWORD PTR [eax], ecx
  0009f	c6 40 04 01	 mov	 BYTE PTR [eax+4], 1
  000a3	5d		 pop	 ebp

; 504  : 			}
; 505  : 		}

  000a4	59		 pop	 ecx
  000a5	c2 08 00	 ret	 8
$L209021:

; 502  : 			else
; 503  : 				return (_Pairib(_Where, false));

  000a8	8b 44 24 14	 mov	 eax, DWORD PTR ___$ReturnUdt$[esp+12]
  000ac	5f		 pop	 edi
  000ad	5e		 pop	 esi
  000ae	c6 40 04 00	 mov	 BYTE PTR [eax+4], 0
  000b2	89 10		 mov	 DWORD PTR [eax], edx
  000b4	5d		 pop	 ebp

; 504  : 			}
; 505  : 		}

  000b5	59		 pop	 ecx
  000b6	c2 08 00	 ret	 8
?insert@?$_Tree@V?$_Tmap_traits@EPAU__TAXINFO@@U?$less@E@std@@V?$allocator@U?$pair@$$CBEPAU__TAXINFO@@@std@@@3@$0A@@std@@@std@@QAE?AU?$pair@Viterator@?$_Tree@V?$_Tmap_traits@EPAU__TAXINFO@@U?$less@E@std@@V?$allocator@U?$pair@$$CBEPAU__TAXINFO@@@std@@@3@$0A@@std@@@std@@_N@2@ABU?$pair@$$CBEPAU__TAXINFO@@@2@@Z ENDP ; std::_Tree<std::_Tmap_traits<unsigned char,__TAXINFO *,std::less<unsigned char>,std::allocator<std::pair<unsigned char const ,__TAXINFO *> >,0> >::insert
_TEXT	ENDS
PUBLIC	?insert@?$vector@KV?$allocator@K@std@@@std@@QAE?AViterator@12@V312@ABK@Z ; std::vector<unsigned long,std::allocator<unsigned long> >::insert
; Function compile flags: /Ogty
; File c:\program files\microsoft visual studio .net 2003\vc7\include\vector
;	COMDAT ?insert@?$vector@KV?$allocator@K@std@@@std@@QAE?AViterator@12@V312@ABK@Z
_TEXT	SEGMENT
___$ReturnUdt$ = 8					; size = 4
__Where$ = 12						; size = 4
__Val$ = 16						; size = 4
?insert@?$vector@KV?$allocator@K@std@@@std@@QAE?AViterator@12@V312@ABK@Z PROC NEAR ; std::vector<unsigned long,std::allocator<unsigned long> >::insert, COMDAT
; _this$ = ecx

; 621  : 		size_type _Off = size() == 0 ? 0 : _Where - begin();

  00000	8b 54 24 08	 mov	 edx, DWORD PTR __Where$[esp-4]
  00004	56		 push	 esi
  00005	57		 push	 edi
  00006	8b f9		 mov	 edi, ecx
  00008	8b 4f 04	 mov	 ecx, DWORD PTR [edi+4]
  0000b	85 c9		 test	 ecx, ecx
  0000d	74 0c		 je	 SHORT $L220258
  0000f	8b 47 08	 mov	 eax, DWORD PTR [edi+8]
  00012	2b c1		 sub	 eax, ecx
  00014	c1 f8 02	 sar	 eax, 2
  00017	85 c0		 test	 eax, eax
  00019	75 04		 jne	 SHORT $L220197
$L220258:
  0001b	33 f6		 xor	 esi, esi
  0001d	eb 07		 jmp	 SHORT $L220198
$L220197:
  0001f	8b f2		 mov	 esi, edx
  00021	2b f1		 sub	 esi, ecx
  00023	c1 fe 02	 sar	 esi, 2
$L220198:

; 622  : 		_Insert_n(_Where, (size_type)1, _Val);

  00026	8b 44 24 14	 mov	 eax, DWORD PTR __Val$[esp+4]
  0002a	50		 push	 eax
  0002b	6a 01		 push	 1
  0002d	52		 push	 edx
  0002e	8b cf		 mov	 ecx, edi
  00030	e8 00 00 00 00	 call	 ?_Insert_n@?$vector@KV?$allocator@K@std@@@std@@IAEXViterator@12@IABK@Z ; std::vector<unsigned long,std::allocator<unsigned long> >::_Insert_n

; 623  : 		return (begin() + _Off);

  00035	8b 4f 04	 mov	 ecx, DWORD PTR [edi+4]
  00038	8b 44 24 0c	 mov	 eax, DWORD PTR ___$ReturnUdt$[esp+4]
  0003c	8d 14 b1	 lea	 edx, DWORD PTR [ecx+esi*4]
  0003f	5f		 pop	 edi
  00040	89 10		 mov	 DWORD PTR [eax], edx
  00042	5e		 pop	 esi

; 624  : 		}

  00043	c2 0c 00	 ret	 12			; 0000000cH
?insert@?$vector@KV?$allocator@K@std@@@std@@QAE?AViterator@12@V312@ABK@Z ENDP ; std::vector<unsigned long,std::allocator<unsigned long> >::insert
_TEXT	ENDS
PUBLIC	?erase@?$_Tree@V?$_Tmap_traits@EPAU__TAXDETAIL@@U?$less@E@std@@V?$allocator@U?$pair@$$CBEPAU__TAXDETAIL@@@std@@@3@$0A@@std@@@std@@QAE?AViterator@12@V312@0@Z ; std::_Tree<std::_Tmap_traits<unsigned char,__TAXDETAIL *,std::less<unsigned char>,std::allocator<std::pair<unsigned char const ,__TAXDETAIL *> >,0> >::erase
; Function compile flags: /Ogty
; File c:\program files\microsoft visual studio .net 2003\vc7\include\xtree
;	COMDAT ?erase@?$_Tree@V?$_Tmap_traits@EPAU__TAXDETAIL@@U?$less@E@std@@V?$allocator@U?$pair@$$CBEPAU__TAXDETAIL@@@std@@@3@$0A@@std@@@std@@QAE?AViterator@12@V312@0@Z
_TEXT	SEGMENT
___$ReturnUdt$ = 8					; size = 4
$T220264 = 12						; size = 4
__First$ = 12						; size = 4
__Last$ = 16						; size = 4
?erase@?$_Tree@V?$_Tmap_traits@EPAU__TAXDETAIL@@U?$less@E@std@@V?$allocator@U?$pair@$$CBEPAU__TAXDETAIL@@@std@@@3@$0A@@std@@@std@@QAE?AViterator@12@V312@0@Z PROC NEAR ; std::_Tree<std::_Tmap_traits<unsigned char,__TAXDETAIL *,std::less<unsigned char>,std::allocator<std::pair<unsigned char const ,__TAXDETAIL *> >,0> >::erase, COMDAT
; _this$ = ecx

; 750  : 		{	// erase [_First, _Last)

  00000	53		 push	 ebx

; 751  : 		if (_First == begin() && _Last == end())

  00001	8b 5c 24 10	 mov	 ebx, DWORD PTR __Last$[esp]
  00005	56		 push	 esi
  00006	8b 74 24 10	 mov	 esi, DWORD PTR __First$[esp+4]
  0000a	57		 push	 edi
  0000b	8b f9		 mov	 edi, ecx
  0000d	8b 47 04	 mov	 eax, DWORD PTR [edi+4]
  00010	3b 30		 cmp	 esi, DWORD PTR [eax]
  00012	75 38		 jne	 SHORT $L220596
  00014	3b d8		 cmp	 ebx, eax
  00016	75 34		 jne	 SHORT $L220596

; 752  : 			{	// erase all
; 753  : 			clear();

  00018	8b 40 04	 mov	 eax, DWORD PTR [eax+4]
  0001b	50		 push	 eax
  0001c	8b cf		 mov	 ecx, edi
  0001e	e8 00 00 00 00	 call	 ?_Erase@?$_Tree@V?$_Tmap_traits@EPAU__TAXDETAIL@@U?$less@E@std@@V?$allocator@U?$pair@$$CBEPAU__TAXDETAIL@@@std@@@3@$0A@@std@@@std@@IAEXPAU_Node@?$_Tree_nod@V?$_Tmap_traits@EPAU__TAXDETAIL@@U?$less@E@std@@V?$allocator@U?$pair@$$CBEPAU__TAXDETAIL@@@std@@@3@$0A@@std@@@2@@Z ; std::_Tree<std::_Tmap_traits<unsigned char,__TAXDETAIL *,std::less<unsigned char>,std::allocator<std::pair<unsigned char const ,__TAXDETAIL *> >,0> >::_Erase
  00023	8b 47 04	 mov	 eax, DWORD PTR [edi+4]
  00026	89 40 04	 mov	 DWORD PTR [eax+4], eax
  00029	8b 47 04	 mov	 eax, DWORD PTR [edi+4]
  0002c	c7 47 08 00 00
	00 00		 mov	 DWORD PTR [edi+8], 0
  00033	89 00		 mov	 DWORD PTR [eax], eax
  00035	8b 47 04	 mov	 eax, DWORD PTR [edi+4]
  00038	89 40 08	 mov	 DWORD PTR [eax+8], eax

; 754  : 			return (begin());

  0003b	8b 4f 04	 mov	 ecx, DWORD PTR [edi+4]
  0003e	8b 11		 mov	 edx, DWORD PTR [ecx]
  00040	8b 44 24 10	 mov	 eax, DWORD PTR ___$ReturnUdt$[esp+8]
  00044	5f		 pop	 edi
  00045	5e		 pop	 esi
  00046	89 10		 mov	 DWORD PTR [eax], edx
  00048	5b		 pop	 ebx

; 761  : 			}
; 762  : 		}

  00049	c2 0c 00	 ret	 12			; 0000000cH
$L220596:

; 755  : 			}
; 756  : 		else
; 757  : 			{	// partial erase, one at a time
; 758  : 			while (_First != _Last)

  0004c	3b f3		 cmp	 esi, ebx
  0004e	74 5b		 je	 SHORT $L209531
$L209530:

; 759  : 				erase(_First++);

  00050	8a 46 15	 mov	 al, BYTE PTR [esi+21]
  00053	84 c0		 test	 al, al
  00055	8b ce		 mov	 ecx, esi
  00057	75 41		 jne	 SHORT $L220590
  00059	8b 46 08	 mov	 eax, DWORD PTR [esi+8]
  0005c	8a 50 15	 mov	 dl, BYTE PTR [eax+21]
  0005f	84 d2		 test	 dl, dl
  00061	75 1a		 jne	 SHORT $L220598
  00063	8b f0		 mov	 esi, eax
  00065	8b 06		 mov	 eax, DWORD PTR [esi]
  00067	8a 50 15	 mov	 dl, BYTE PTR [eax+21]
  0006a	84 d2		 test	 dl, dl
  0006c	75 2c		 jne	 SHORT $L220590
  0006e	8b ff		 npad	 2
$L220571:
  00070	8b f0		 mov	 esi, eax
  00072	8b 06		 mov	 eax, DWORD PTR [esi]
  00074	8a 50 15	 mov	 dl, BYTE PTR [eax+21]
  00077	84 d2		 test	 dl, dl
  00079	74 f5		 je	 SHORT $L220571
  0007b	eb 1d		 jmp	 SHORT $L220590
$L220598:
  0007d	8b 46 04	 mov	 eax, DWORD PTR [esi+4]
  00080	8a 50 15	 mov	 dl, BYTE PTR [eax+21]
  00083	84 d2		 test	 dl, dl
  00085	75 11		 jne	 SHORT $L220593
$L220592:
  00087	3b 70 08	 cmp	 esi, DWORD PTR [eax+8]
  0008a	75 0c		 jne	 SHORT $L220593
  0008c	8b f0		 mov	 esi, eax
  0008e	8b 40 04	 mov	 eax, DWORD PTR [eax+4]
  00091	8a 50 15	 mov	 dl, BYTE PTR [eax+21]
  00094	84 d2		 test	 dl, dl
  00096	74 ef		 je	 SHORT $L220592
$L220593:
  00098	8b f0		 mov	 esi, eax
$L220590:
  0009a	51		 push	 ecx
  0009b	8d 44 24 18	 lea	 eax, DWORD PTR $T220264[esp+12]
  0009f	50		 push	 eax
  000a0	8b cf		 mov	 ecx, edi
  000a2	e8 00 00 00 00	 call	 ?erase@?$_Tree@V?$_Tmap_traits@EPAU__TAXDETAIL@@U?$less@E@std@@V?$allocator@U?$pair@$$CBEPAU__TAXDETAIL@@@std@@@3@$0A@@std@@@std@@QAE?AViterator@12@V312@@Z ; std::_Tree<std::_Tmap_traits<unsigned char,__TAXDETAIL *,std::less<unsigned char>,std::allocator<std::pair<unsigned char const ,__TAXDETAIL *> >,0> >::erase
  000a7	3b f3		 cmp	 esi, ebx
  000a9	75 a5		 jne	 SHORT $L209530
$L209531:

; 760  : 			return (_First);

  000ab	8b 44 24 10	 mov	 eax, DWORD PTR ___$ReturnUdt$[esp+8]
  000af	5f		 pop	 edi
  000b0	89 30		 mov	 DWORD PTR [eax], esi
  000b2	5e		 pop	 esi
  000b3	5b		 pop	 ebx

; 761  : 			}
; 762  : 		}

  000b4	c2 0c 00	 ret	 12			; 0000000cH
?erase@?$_Tree@V?$_Tmap_traits@EPAU__TAXDETAIL@@U?$less@E@std@@V?$allocator@U?$pair@$$CBEPAU__TAXDETAIL@@@std@@@3@$0A@@std@@@std@@QAE?AViterator@12@V312@0@Z ENDP ; std::_Tree<std::_Tmap_traits<unsigned char,__TAXDETAIL *,std::less<unsigned char>,std::allocator<std::pair<unsigned char const ,__TAXDETAIL *> >,0> >::erase
_TEXT	ENDS
PUBLIC	?erase@?$_Tree@V?$_Tmap_traits@EPAU__TAXINFO@@U?$less@E@std@@V?$allocator@U?$pair@$$CBEPAU__TAXINFO@@@std@@@3@$0A@@std@@@std@@QAE?AViterator@12@V312@0@Z ; std::_Tree<std::_Tmap_traits<unsigned char,__TAXINFO *,std::less<unsigned char>,std::allocator<std::pair<unsigned char const ,__TAXINFO *> >,0> >::erase
; Function compile flags: /Ogty
;	COMDAT ?erase@?$_Tree@V?$_Tmap_traits@EPAU__TAXINFO@@U?$less@E@std@@V?$allocator@U?$pair@$$CBEPAU__TAXINFO@@@std@@@3@$0A@@std@@@std@@QAE?AViterator@12@V312@0@Z
_TEXT	SEGMENT
___$ReturnUdt$ = 8					; size = 4
$T220607 = 12						; size = 4
__First$ = 12						; size = 4
__Last$ = 16						; size = 4
?erase@?$_Tree@V?$_Tmap_traits@EPAU__TAXINFO@@U?$less@E@std@@V?$allocator@U?$pair@$$CBEPAU__TAXINFO@@@std@@@3@$0A@@std@@@std@@QAE?AViterator@12@V312@0@Z PROC NEAR ; std::_Tree<std::_Tmap_traits<unsigned char,__TAXINFO *,std::less<unsigned char>,std::allocator<std::pair<unsigned char const ,__TAXINFO *> >,0> >::erase, COMDAT
; _this$ = ecx

; 750  : 		{	// erase [_First, _Last)

  00000	53		 push	 ebx

; 751  : 		if (_First == begin() && _Last == end())

  00001	8b 5c 24 10	 mov	 ebx, DWORD PTR __Last$[esp]
  00005	56		 push	 esi
  00006	8b 74 24 10	 mov	 esi, DWORD PTR __First$[esp+4]
  0000a	57		 push	 edi
  0000b	8b f9		 mov	 edi, ecx
  0000d	8b 47 04	 mov	 eax, DWORD PTR [edi+4]
  00010	3b 30		 cmp	 esi, DWORD PTR [eax]
  00012	75 38		 jne	 SHORT $L220939
  00014	3b d8		 cmp	 ebx, eax
  00016	75 34		 jne	 SHORT $L220939

; 752  : 			{	// erase all
; 753  : 			clear();

  00018	8b 40 04	 mov	 eax, DWORD PTR [eax+4]
  0001b	50		 push	 eax
  0001c	8b cf		 mov	 ecx, edi
  0001e	e8 00 00 00 00	 call	 ?_Erase@?$_Tree@V?$_Tmap_traits@EPAU__TAXINFO@@U?$less@E@std@@V?$allocator@U?$pair@$$CBEPAU__TAXINFO@@@std@@@3@$0A@@std@@@std@@IAEXPAU_Node@?$_Tree_nod@V?$_Tmap_traits@EPAU__TAXINFO@@U?$less@E@std@@V?$allocator@U?$pair@$$CBEPAU__TAXINFO@@@std@@@3@$0A@@std@@@2@@Z ; std::_Tree<std::_Tmap_traits<unsigned char,__TAXINFO *,std::less<unsigned char>,std::allocator<std::pair<unsigned char const ,__TAXINFO *> >,0> >::_Erase
  00023	8b 47 04	 mov	 eax, DWORD PTR [edi+4]
  00026	89 40 04	 mov	 DWORD PTR [eax+4], eax
  00029	8b 47 04	 mov	 eax, DWORD PTR [edi+4]
  0002c	c7 47 08 00 00
	00 00		 mov	 DWORD PTR [edi+8], 0
  00033	89 00		 mov	 DWORD PTR [eax], eax
  00035	8b 47 04	 mov	 eax, DWORD PTR [edi+4]
  00038	89 40 08	 mov	 DWORD PTR [eax+8], eax

; 754  : 			return (begin());

  0003b	8b 4f 04	 mov	 ecx, DWORD PTR [edi+4]
  0003e	8b 11		 mov	 edx, DWORD PTR [ecx]
  00040	8b 44 24 10	 mov	 eax, DWORD PTR ___$ReturnUdt$[esp+8]
  00044	5f		 pop	 edi
  00045	5e		 pop	 esi
  00046	89 10		 mov	 DWORD PTR [eax], edx
  00048	5b		 pop	 ebx

; 761  : 			}
; 762  : 		}

  00049	c2 0c 00	 ret	 12			; 0000000cH
$L220939:

; 755  : 			}
; 756  : 		else
; 757  : 			{	// partial erase, one at a time
; 758  : 			while (_First != _Last)

  0004c	3b f3		 cmp	 esi, ebx
  0004e	74 5b		 je	 SHORT $L209611
$L209610:

; 759  : 				erase(_First++);

  00050	8a 46 15	 mov	 al, BYTE PTR [esi+21]
  00053	84 c0		 test	 al, al
  00055	8b ce		 mov	 ecx, esi
  00057	75 41		 jne	 SHORT $L220909
  00059	8b 46 08	 mov	 eax, DWORD PTR [esi+8]
  0005c	8a 50 15	 mov	 dl, BYTE PTR [eax+21]
  0005f	84 d2		 test	 dl, dl
  00061	75 1a		 jne	 SHORT $L220941
  00063	8b f0		 mov	 esi, eax
  00065	8b 06		 mov	 eax, DWORD PTR [esi]
  00067	8a 50 15	 mov	 dl, BYTE PTR [eax+21]
  0006a	84 d2		 test	 dl, dl
  0006c	75 2c		 jne	 SHORT $L220909
  0006e	8b ff		 npad	 2
$L220923:
  00070	8b f0		 mov	 esi, eax
  00072	8b 06		 mov	 eax, DWORD PTR [esi]
  00074	8a 50 15	 mov	 dl, BYTE PTR [eax+21]
  00077	84 d2		 test	 dl, dl
  00079	74 f5		 je	 SHORT $L220923
  0007b	eb 1d		 jmp	 SHORT $L220909
$L220941:
  0007d	8b 46 04	 mov	 eax, DWORD PTR [esi+4]
  00080	8a 50 15	 mov	 dl, BYTE PTR [eax+21]
  00083	84 d2		 test	 dl, dl
  00085	75 11		 jne	 SHORT $L220912
$L220911:
  00087	3b 70 08	 cmp	 esi, DWORD PTR [eax+8]
  0008a	75 0c		 jne	 SHORT $L220912
  0008c	8b f0		 mov	 esi, eax
  0008e	8b 40 04	 mov	 eax, DWORD PTR [eax+4]
  00091	8a 50 15	 mov	 dl, BYTE PTR [eax+21]
  00094	84 d2		 test	 dl, dl
  00096	74 ef		 je	 SHORT $L220911
$L220912:
  00098	8b f0		 mov	 esi, eax
$L220909:
  0009a	51		 push	 ecx
  0009b	8d 44 24 18	 lea	 eax, DWORD PTR $T220607[esp+12]
  0009f	50		 push	 eax
  000a0	8b cf		 mov	 ecx, edi
  000a2	e8 00 00 00 00	 call	 ?erase@?$_Tree@V?$_Tmap_traits@EPAU__TAXINFO@@U?$less@E@std@@V?$allocator@U?$pair@$$CBEPAU__TAXINFO@@@std@@@3@$0A@@std@@@std@@QAE?AViterator@12@V312@@Z ; std::_Tree<std::_Tmap_traits<unsigned char,__TAXINFO *,std::less<unsigned char>,std::allocator<std::pair<unsigned char const ,__TAXINFO *> >,0> >::erase
  000a7	3b f3		 cmp	 esi, ebx
  000a9	75 a5		 jne	 SHORT $L209610
$L209611:

; 760  : 			return (_First);

  000ab	8b 44 24 10	 mov	 eax, DWORD PTR ___$ReturnUdt$[esp+8]
  000af	5f		 pop	 edi
  000b0	89 30		 mov	 DWORD PTR [eax], esi
  000b2	5e		 pop	 esi
  000b3	5b		 pop	 ebx

; 761  : 			}
; 762  : 		}

  000b4	c2 0c 00	 ret	 12			; 0000000cH
?erase@?$_Tree@V?$_Tmap_traits@EPAU__TAXINFO@@U?$less@E@std@@V?$allocator@U?$pair@$$CBEPAU__TAXINFO@@@std@@@3@$0A@@std@@@std@@QAE?AViterator@12@V312@0@Z ENDP ; std::_Tree<std::_Tmap_traits<unsigned char,__TAXINFO *,std::less<unsigned char>,std::allocator<std::pair<unsigned char const ,__TAXINFO *> >,0> >::erase
_TEXT	ENDS
PUBLIC	??0?$vector@KV?$allocator@K@std@@@std@@QAE@XZ	; std::vector<unsigned long,std::allocator<unsigned long> >::vector<unsigned long,std::allocator<unsigned long> >
; Function compile flags: /Ogty
; File c:\program files\microsoft visual studio .net 2003\vc7\include\vector
;	COMDAT ??0?$vector@KV?$allocator@K@std@@@std@@QAE@XZ
_TEXT	SEGMENT
??0?$vector@KV?$allocator@K@std@@@std@@QAE@XZ PROC NEAR	; std::vector<unsigned long,std::allocator<unsigned long> >::vector<unsigned long,std::allocator<unsigned long> >, COMDAT
; _this$ = ecx

; 299  : 		{	// construct empty vector

  00000	8b c1		 mov	 eax, ecx

; 300  : 		_Buy(0);

  00002	33 c9		 xor	 ecx, ecx
  00004	89 48 04	 mov	 DWORD PTR [eax+4], ecx
  00007	89 48 08	 mov	 DWORD PTR [eax+8], ecx
  0000a	89 48 0c	 mov	 DWORD PTR [eax+12], ecx

; 301  : 		}

  0000d	c3		 ret	 0
??0?$vector@KV?$allocator@K@std@@@std@@QAE@XZ ENDP	; std::vector<unsigned long,std::allocator<unsigned long> >::vector<unsigned long,std::allocator<unsigned long> >
_TEXT	ENDS
PUBLIC	?push_back@?$vector@KV?$allocator@K@std@@@std@@QAEXABK@Z ; std::vector<unsigned long,std::allocator<unsigned long> >::push_back
; Function compile flags: /Ogty
;	COMDAT ?push_back@?$vector@KV?$allocator@K@std@@@std@@QAEXABK@Z
_TEXT	SEGMENT
__Val$ = 8						; size = 4
?push_back@?$vector@KV?$allocator@K@std@@@std@@QAEXABK@Z PROC NEAR ; std::vector<unsigned long,std::allocator<unsigned long> >::push_back, COMDAT
; _this$ = ecx

; 579  : 		{	// insert element at end

  00000	56		 push	 esi

; 580  : 		if (size() < capacity())

  00001	8b 71 04	 mov	 esi, DWORD PTR [ecx+4]
  00004	85 f6		 test	 esi, esi
  00006	75 04		 jne	 SHORT $L221013
  00008	33 d2		 xor	 edx, edx
  0000a	eb 08		 jmp	 SHORT $L221014
$L221013:
  0000c	8b 51 08	 mov	 edx, DWORD PTR [ecx+8]
  0000f	2b d6		 sub	 edx, esi
  00011	c1 fa 02	 sar	 edx, 2
$L221014:
  00014	85 f6		 test	 esi, esi
  00016	74 21		 je	 SHORT $L208785
  00018	8b 41 0c	 mov	 eax, DWORD PTR [ecx+12]
  0001b	2b c6		 sub	 eax, esi
  0001d	c1 f8 02	 sar	 eax, 2
  00020	3b d0		 cmp	 edx, eax
  00022	73 15		 jae	 SHORT $L208785

; 581  : 			_Mylast = _Ufill(_Mylast, 1, _Val);

  00024	8b 41 08	 mov	 eax, DWORD PTR [ecx+8]
  00027	8b 54 24 08	 mov	 edx, DWORD PTR __Val$[esp]
  0002b	8b 12		 mov	 edx, DWORD PTR [edx]
  0002d	89 10		 mov	 DWORD PTR [eax], edx
  0002f	83 c0 04	 add	 eax, 4
  00032	89 41 08	 mov	 DWORD PTR [ecx+8], eax
  00035	5e		 pop	 esi

; 584  : 		}

  00036	c2 04 00	 ret	 4
$L208785:

; 582  : 		else
; 583  : 			insert(end(), _Val);

  00039	8b 54 24 08	 mov	 edx, DWORD PTR __Val$[esp]
  0003d	8b 41 08	 mov	 eax, DWORD PTR [ecx+8]
  00040	52		 push	 edx
  00041	6a 01		 push	 1
  00043	50		 push	 eax
  00044	e8 00 00 00 00	 call	 ?_Insert_n@?$vector@KV?$allocator@K@std@@@std@@IAEXViterator@12@IABK@Z ; std::vector<unsigned long,std::allocator<unsigned long> >::_Insert_n
  00049	5e		 pop	 esi

; 584  : 		}

  0004a	c2 04 00	 ret	 4
?push_back@?$vector@KV?$allocator@K@std@@@std@@QAEXABK@Z ENDP ; std::vector<unsigned long,std::allocator<unsigned long> >::push_back
_TEXT	ENDS
PUBLIC	?_Tidy@?$_Tree@V?$_Tmap_traits@EPAU__TAXDETAIL@@U?$less@E@std@@V?$allocator@U?$pair@$$CBEPAU__TAXDETAIL@@@std@@@3@$0A@@std@@@std@@IAEXXZ ; std::_Tree<std::_Tmap_traits<unsigned char,__TAXDETAIL *,std::less<unsigned char>,std::allocator<std::pair<unsigned char const ,__TAXDETAIL *> >,0> >::_Tidy
; Function compile flags: /Ogty
; File c:\program files\microsoft visual studio .net 2003\vc7\include\xtree
;	COMDAT ?_Tidy@?$_Tree@V?$_Tmap_traits@EPAU__TAXDETAIL@@U?$less@E@std@@V?$allocator@U?$pair@$$CBEPAU__TAXDETAIL@@@std@@@3@$0A@@std@@@std@@IAEXXZ
_TEXT	SEGMENT
$T221193 = -4						; size = 4
?_Tidy@?$_Tree@V?$_Tmap_traits@EPAU__TAXDETAIL@@U?$less@E@std@@V?$allocator@U?$pair@$$CBEPAU__TAXDETAIL@@@std@@@3@$0A@@std@@@std@@IAEXXZ PROC NEAR ; std::_Tree<std::_Tmap_traits<unsigned char,__TAXDETAIL *,std::less<unsigned char>,std::allocator<std::pair<unsigned char const ,__TAXDETAIL *> >,0> >::_Tidy, COMDAT
; _this$ = ecx

; 1142 : 		{	// free all storage

  00000	51		 push	 ecx
  00001	56		 push	 esi
  00002	8b f1		 mov	 esi, ecx

; 1143 : 		erase(begin(), end());

  00004	8b 46 04	 mov	 eax, DWORD PTR [esi+4]
  00007	8b 08		 mov	 ecx, DWORD PTR [eax]
  00009	50		 push	 eax
  0000a	51		 push	 ecx
  0000b	8d 44 24 0c	 lea	 eax, DWORD PTR $T221193[esp+16]
  0000f	50		 push	 eax
  00010	8b ce		 mov	 ecx, esi
  00012	e8 00 00 00 00	 call	 ?erase@?$_Tree@V?$_Tmap_traits@EPAU__TAXDETAIL@@U?$less@E@std@@V?$allocator@U?$pair@$$CBEPAU__TAXDETAIL@@@std@@@3@$0A@@std@@@std@@QAE?AViterator@12@V312@0@Z ; std::_Tree<std::_Tmap_traits<unsigned char,__TAXDETAIL *,std::less<unsigned char>,std::allocator<std::pair<unsigned char const ,__TAXDETAIL *> >,0> >::erase

; 1144 : 		this->_Alptr.destroy(&_Left(_Myhead));
; 1145 : 		this->_Alptr.destroy(&_Parent(_Myhead));
; 1146 : 		this->_Alptr.destroy(&_Right(_Myhead));
; 1147 : 		this->_Alnod.deallocate(_Myhead, 1);

  00017	8b 4e 04	 mov	 ecx, DWORD PTR [esi+4]
  0001a	51		 push	 ecx
  0001b	e8 00 00 00 00	 call	 ??3@YAXPAX@Z		; operator delete
  00020	83 c4 04	 add	 esp, 4

; 1148 : 		_Myhead = 0, _Mysize = 0;

  00023	33 c0		 xor	 eax, eax
  00025	89 46 04	 mov	 DWORD PTR [esi+4], eax
  00028	89 46 08	 mov	 DWORD PTR [esi+8], eax
  0002b	5e		 pop	 esi

; 1149 : 		}

  0002c	59		 pop	 ecx
  0002d	c3		 ret	 0
?_Tidy@?$_Tree@V?$_Tmap_traits@EPAU__TAXDETAIL@@U?$less@E@std@@V?$allocator@U?$pair@$$CBEPAU__TAXDETAIL@@@std@@@3@$0A@@std@@@std@@IAEXXZ ENDP ; std::_Tree<std::_Tmap_traits<unsigned char,__TAXDETAIL *,std::less<unsigned char>,std::allocator<std::pair<unsigned char const ,__TAXDETAIL *> >,0> >::_Tidy
_TEXT	ENDS
PUBLIC	?_Tidy@?$_Tree@V?$_Tmap_traits@EPAU__TAXINFO@@U?$less@E@std@@V?$allocator@U?$pair@$$CBEPAU__TAXINFO@@@std@@@3@$0A@@std@@@std@@IAEXXZ ; std::_Tree<std::_Tmap_traits<unsigned char,__TAXINFO *,std::less<unsigned char>,std::allocator<std::pair<unsigned char const ,__TAXINFO *> >,0> >::_Tidy
; Function compile flags: /Ogty
;	COMDAT ?_Tidy@?$_Tree@V?$_Tmap_traits@EPAU__TAXINFO@@U?$less@E@std@@V?$allocator@U?$pair@$$CBEPAU__TAXINFO@@@std@@@3@$0A@@std@@@std@@IAEXXZ
_TEXT	SEGMENT
$T221257 = -4						; size = 4
?_Tidy@?$_Tree@V?$_Tmap_traits@EPAU__TAXINFO@@U?$less@E@std@@V?$allocator@U?$pair@$$CBEPAU__TAXINFO@@@std@@@3@$0A@@std@@@std@@IAEXXZ PROC NEAR ; std::_Tree<std::_Tmap_traits<unsigned char,__TAXINFO *,std::less<unsigned char>,std::allocator<std::pair<unsigned char const ,__TAXINFO *> >,0> >::_Tidy, COMDAT
; _this$ = ecx

; 1142 : 		{	// free all storage

  00000	51		 push	 ecx
  00001	56		 push	 esi
  00002	8b f1		 mov	 esi, ecx

; 1143 : 		erase(begin(), end());

  00004	8b 46 04	 mov	 eax, DWORD PTR [esi+4]
  00007	8b 08		 mov	 ecx, DWORD PTR [eax]
  00009	50		 push	 eax
  0000a	51		 push	 ecx
  0000b	8d 44 24 0c	 lea	 eax, DWORD PTR $T221257[esp+16]
  0000f	50		 push	 eax
  00010	8b ce		 mov	 ecx, esi
  00012	e8 00 00 00 00	 call	 ?erase@?$_Tree@V?$_Tmap_traits@EPAU__TAXINFO@@U?$less@E@std@@V?$allocator@U?$pair@$$CBEPAU__TAXINFO@@@std@@@3@$0A@@std@@@std@@QAE?AViterator@12@V312@0@Z ; std::_Tree<std::_Tmap_traits<unsigned char,__TAXINFO *,std::less<unsigned char>,std::allocator<std::pair<unsigned char const ,__TAXINFO *> >,0> >::erase

; 1144 : 		this->_Alptr.destroy(&_Left(_Myhead));
; 1145 : 		this->_Alptr.destroy(&_Parent(_Myhead));
; 1146 : 		this->_Alptr.destroy(&_Right(_Myhead));
; 1147 : 		this->_Alnod.deallocate(_Myhead, 1);

  00017	8b 4e 04	 mov	 ecx, DWORD PTR [esi+4]
  0001a	51		 push	 ecx
  0001b	e8 00 00 00 00	 call	 ??3@YAXPAX@Z		; operator delete
  00020	83 c4 04	 add	 esp, 4

; 1148 : 		_Myhead = 0, _Mysize = 0;

  00023	33 c0		 xor	 eax, eax
  00025	89 46 04	 mov	 DWORD PTR [esi+4], eax
  00028	89 46 08	 mov	 DWORD PTR [esi+8], eax
  0002b	5e		 pop	 esi

; 1149 : 		}

  0002c	59		 pop	 ecx
  0002d	c3		 ret	 0
?_Tidy@?$_Tree@V?$_Tmap_traits@EPAU__TAXINFO@@U?$less@E@std@@V?$allocator@U?$pair@$$CBEPAU__TAXINFO@@@std@@@3@$0A@@std@@@std@@IAEXXZ ENDP ; std::_Tree<std::_Tmap_traits<unsigned char,__TAXINFO *,std::less<unsigned char>,std::allocator<std::pair<unsigned char const ,__TAXINFO *> >,0> >::_Tidy
_TEXT	ENDS
PUBLIC	??_C@_07KANMDMNE@Tax?4lua?$AA@			; `string'
PUBLIC	??_C@_0BH@GCMNILJK@Tax?4lua?5Run?5Failed?5?$CB?$CB?$CB?$AA@ ; `string'
PUBLIC	??_C@_0L@KBBAAJBF@MinTaxRate?$AA@		; `string'
PUBLIC	??_C@_0L@GNBNHCBK@MaxTaxRate?$AA@		; `string'
PUBLIC	??_C@_0BC@HLGHAKHH@TaxSecretRoomRate?$AA@	; `string'
PUBLIC	??_C@_0M@JMFHEJJO@TaxLordRate?$AA@		; `string'
PUBLIC	??_C@_0BI@LJACBDPE@AdmissionSecretRoomRate?$AA@	; `string'
PUBLIC	??_C@_0BC@LCJMAADJ@AdmissionLordRate?$AA@	; `string'
PUBLIC	??_C@_0M@FELENEOA@DBSaveCount?$AA@		; `string'
PUBLIC	??_C@_0BE@DCFJJNKF@tOccupationShopItem?$AA@	; `string'
PUBLIC	?LoadScript@CTax@@QAEXXZ			; CTax::LoadScript
EXTRN	?GetDefineNum@CScript@@SAHPBD@Z:NEAR		; CScript::GetDefineNum
EXTRN	?RunScript@CLuaBase@@QAEHPBD@Z:NEAR		; CLuaBase::RunScript
EXTRN	?GetGlobalNumber@CLuaBase@@QAENPAD@Z:NEAR	; CLuaBase::GetGlobalNumber
;	COMDAT ??_C@_07KANMDMNE@Tax?4lua?$AA@
; File c:\documents and settings\test\mes documents\source\virtuos_v17\build\program\_common\tax.cpp
CONST	SEGMENT
??_C@_07KANMDMNE@Tax?4lua?$AA@ DB 'Tax.lua', 00H	; `string'
CONST	ENDS
;	COMDAT ??_C@_0BH@GCMNILJK@Tax?4lua?5Run?5Failed?5?$CB?$CB?$CB?$AA@
CONST	SEGMENT
??_C@_0BH@GCMNILJK@Tax?4lua?5Run?5Failed?5?$CB?$CB?$CB?$AA@ DB 'Tax.lua R'
	DB	'un Failed !!!', 00H				; `string'
CONST	ENDS
;	COMDAT ??_C@_0L@KBBAAJBF@MinTaxRate?$AA@
CONST	SEGMENT
??_C@_0L@KBBAAJBF@MinTaxRate?$AA@ DB 'MinTaxRate', 00H	; `string'
CONST	ENDS
;	COMDAT ??_C@_0L@GNBNHCBK@MaxTaxRate?$AA@
CONST	SEGMENT
??_C@_0L@GNBNHCBK@MaxTaxRate?$AA@ DB 'MaxTaxRate', 00H	; `string'
CONST	ENDS
;	COMDAT ??_C@_0BC@HLGHAKHH@TaxSecretRoomRate?$AA@
CONST	SEGMENT
??_C@_0BC@HLGHAKHH@TaxSecretRoomRate?$AA@ DB 'TaxSecretRoomRate', 00H ; `string'
CONST	ENDS
;	COMDAT ??_C@_0M@JMFHEJJO@TaxLordRate?$AA@
CONST	SEGMENT
??_C@_0M@JMFHEJJO@TaxLordRate?$AA@ DB 'TaxLordRate', 00H ; `string'
CONST	ENDS
;	COMDAT ??_C@_0BI@LJACBDPE@AdmissionSecretRoomRate?$AA@
CONST	SEGMENT
??_C@_0BI@LJACBDPE@AdmissionSecretRoomRate?$AA@ DB 'AdmissionSecretRoomRa'
	DB	'te', 00H					; `string'
CONST	ENDS
;	COMDAT ??_C@_0BC@LCJMAADJ@AdmissionLordRate?$AA@
CONST	SEGMENT
??_C@_0BC@LCJMAADJ@AdmissionLordRate?$AA@ DB 'AdmissionLordRate', 00H ; `string'
CONST	ENDS
;	COMDAT ??_C@_0M@FELENEOA@DBSaveCount?$AA@
CONST	SEGMENT
??_C@_0M@FELENEOA@DBSaveCount?$AA@ DB 'DBSaveCount', 00H ; `string'
CONST	ENDS
;	COMDAT ??_C@_0BE@DCFJJNKF@tOccupationShopItem?$AA@
CONST	SEGMENT
??_C@_0BE@DCFJJNKF@tOccupationShopItem?$AA@ DB 'tOccupationShopItem', 00H ; `string'
; Function compile flags: /Ogty
CONST	ENDS
;	COMDAT ?LoadScript@CTax@@QAEXXZ
_TEXT	SEGMENT
$T221319 = -4						; size = 4
?LoadScript@CTax@@QAEXXZ PROC NEAR			; CTax::LoadScript, COMDAT
; _this$ = ecx

; 166  : {

  00000	51		 push	 ecx
  00001	55		 push	 ebp
  00002	56		 push	 esi
  00003	8b f1		 mov	 esi, ecx

; 167  : 	if( m_Lua.RunScript( "Tax.lua" ) != 0 )

  00005	8d 6e 28	 lea	 ebp, DWORD PTR [esi+40]
  00008	68 00 00 00 00	 push	 OFFSET FLAT:??_C@_07KANMDMNE@Tax?4lua?$AA@
  0000d	8b cd		 mov	 ecx, ebp
  0000f	e8 00 00 00 00	 call	 ?RunScript@CLuaBase@@QAEHPBD@Z ; CLuaBase::RunScript
  00014	85 c0		 test	 eax, eax
  00016	74 0d		 je	 SHORT $L208294

; 168  : 	{
; 169  : 		Error( "Tax.lua Run Failed !!!" );

  00018	68 00 00 00 00	 push	 OFFSET FLAT:??_C@_0BH@GCMNILJK@Tax?4lua?5Run?5Failed?5?$CB?$CB?$CB?$AA@
  0001d	e8 00 00 00 00	 call	 ?Error@@YAPBDPBDZZ	; Error
  00022	83 c4 04	 add	 esp, 4
$L208294:

; 170  : 		ASSERT(0);
; 171  : 	}
; 172  : 
; 173  : 	m_nMinTaxRate =					static_cast<int>( m_Lua.GetGlobalNumber( "MinTaxRate" ) );

  00025	68 00 00 00 00	 push	 OFFSET FLAT:??_C@_0L@KBBAAJBF@MinTaxRate?$AA@
  0002a	8b cd		 mov	 ecx, ebp
  0002c	e8 00 00 00 00	 call	 ?GetGlobalNumber@CLuaBase@@QAENPAD@Z ; CLuaBase::GetGlobalNumber
  00031	e8 00 00 00 00	 call	 __ftol2

; 174  : 	m_nMaxTaxRate =					static_cast<int>( m_Lua.GetGlobalNumber( "MaxTaxRate" ) );

  00036	68 00 00 00 00	 push	 OFFSET FLAT:??_C@_0L@GNBNHCBK@MaxTaxRate?$AA@
  0003b	8b cd		 mov	 ecx, ebp
  0003d	89 06		 mov	 DWORD PTR [esi], eax
  0003f	e8 00 00 00 00	 call	 ?GetGlobalNumber@CLuaBase@@QAENPAD@Z ; CLuaBase::GetGlobalNumber
  00044	e8 00 00 00 00	 call	 __ftol2

; 175  : 	m_nTaxSecretRoomRate =			static_cast<int>( m_Lua.GetGlobalNumber( "TaxSecretRoomRate" ) );

  00049	68 00 00 00 00	 push	 OFFSET FLAT:??_C@_0BC@HLGHAKHH@TaxSecretRoomRate?$AA@
  0004e	8b cd		 mov	 ecx, ebp
  00050	89 46 04	 mov	 DWORD PTR [esi+4], eax
  00053	e8 00 00 00 00	 call	 ?GetGlobalNumber@CLuaBase@@QAENPAD@Z ; CLuaBase::GetGlobalNumber
  00058	e8 00 00 00 00	 call	 __ftol2

; 176  : 	m_nTaxLordRate =				static_cast<int>( m_Lua.GetGlobalNumber( "TaxLordRate" ) );

  0005d	68 00 00 00 00	 push	 OFFSET FLAT:??_C@_0M@JMFHEJJO@TaxLordRate?$AA@
  00062	8b cd		 mov	 ecx, ebp
  00064	89 46 14	 mov	 DWORD PTR [esi+20], eax
  00067	e8 00 00 00 00	 call	 ?GetGlobalNumber@CLuaBase@@QAENPAD@Z ; CLuaBase::GetGlobalNumber
  0006c	e8 00 00 00 00	 call	 __ftol2

; 177  : 	m_nAdmissionSecretRoomRate =	static_cast<int>( m_Lua.GetGlobalNumber( "AdmissionSecretRoomRate" ) );

  00071	68 00 00 00 00	 push	 OFFSET FLAT:??_C@_0BI@LJACBDPE@AdmissionSecretRoomRate?$AA@
  00076	8b cd		 mov	 ecx, ebp
  00078	89 46 18	 mov	 DWORD PTR [esi+24], eax
  0007b	e8 00 00 00 00	 call	 ?GetGlobalNumber@CLuaBase@@QAENPAD@Z ; CLuaBase::GetGlobalNumber
  00080	e8 00 00 00 00	 call	 __ftol2

; 178  : 	m_nAdmissionLordRate =			static_cast<int>( m_Lua.GetGlobalNumber( "AdmissionLordRate" ) );

  00085	68 00 00 00 00	 push	 OFFSET FLAT:??_C@_0BC@LCJMAADJ@AdmissionLordRate?$AA@
  0008a	8b cd		 mov	 ecx, ebp
  0008c	89 46 1c	 mov	 DWORD PTR [esi+28], eax
  0008f	e8 00 00 00 00	 call	 ?GetGlobalNumber@CLuaBase@@QAENPAD@Z ; CLuaBase::GetGlobalNumber
  00094	e8 00 00 00 00	 call	 __ftol2

; 179  : 	m_nDBSaveCount =				static_cast<int>( m_Lua.GetGlobalNumber( "DBSaveCount" ) );

  00099	68 00 00 00 00	 push	 OFFSET FLAT:??_C@_0M@FELENEOA@DBSaveCount?$AA@
  0009e	8b cd		 mov	 ecx, ebp
  000a0	89 46 20	 mov	 DWORD PTR [esi+32], eax
  000a3	e8 00 00 00 00	 call	 ?GetGlobalNumber@CLuaBase@@QAENPAD@Z ; CLuaBase::GetGlobalNumber
  000a8	e8 00 00 00 00	 call	 __ftol2

; 180  : 	if( m_nDBSaveCount < 1 )

  000ad	83 f8 01	 cmp	 eax, 1
  000b0	89 46 24	 mov	 DWORD PTR [esi+36], eax
  000b3	7d 07		 jge	 SHORT $L208312

; 181  : 		m_nDBSaveCount = 1;

  000b5	c7 46 24 01 00
	00 00		 mov	 DWORD PTR [esi+36], 1
$L208312:

; 182  : // #ifndef __MAINSERVER
; 183  : // 	m_nDBSaveCount = 1;
; 184  : // #endif // __MAINSERVER
; 185  : 
; 186  : #ifdef __OCCUPATION_SHOPITEM
; 187  : 	m_Lua.GetGloabal( "tOccupationShopItem" );

  000bc	8b 46 2c	 mov	 eax, DWORD PTR [esi+44]
  000bf	68 00 00 00 00	 push	 OFFSET FLAT:??_C@_0BE@DCFJJNKF@tOccupationShopItem?$AA@
  000c4	68 ee d8 ff ff	 push	 -10002			; ffffd8eeH
  000c9	50		 push	 eax
  000ca	e8 00 00 00 00	 call	 _lua_getfield

; 188  : 	m_Lua.PushNil();

  000cf	8b 4e 2c	 mov	 ecx, DWORD PTR [esi+44]
  000d2	51		 push	 ecx
  000d3	e8 00 00 00 00	 call	 _lua_pushnil

; 189  : 	while( m_Lua.TableLoop( -2 ) )

  000d8	8b 56 2c	 mov	 edx, DWORD PTR [esi+44]
  000db	6a fe		 push	 -2			; fffffffeH
  000dd	52		 push	 edx
  000de	e8 00 00 00 00	 call	 _lua_next
  000e3	83 c4 18	 add	 esp, 24			; 00000018H
  000e6	85 c0		 test	 eax, eax
  000e8	74 7f		 je	 SHORT $L208316
  000ea	53		 push	 ebx
  000eb	57		 push	 edi
  000ec	8d 7e 68	 lea	 edi, DWORD PTR [esi+104]
  000ef	90		 npad	 1
$L208315:

; 190  : 	{
; 191  : 		m_vecdwOccupationShopItem.push_back( CScript::GetDefineNum( m_Lua.ToString( -1 ) ) );

  000f0	8b 46 2c	 mov	 eax, DWORD PTR [esi+44]
  000f3	6a 00		 push	 0
  000f5	6a ff		 push	 -1
  000f7	50		 push	 eax
  000f8	e8 00 00 00 00	 call	 _lua_tolstring
  000fd	50		 push	 eax
  000fe	e8 00 00 00 00	 call	 ?GetDefineNum@CScript@@SAHPBD@Z ; CScript::GetDefineNum
  00103	8b 4f 04	 mov	 ecx, DWORD PTR [edi+4]
  00106	83 c4 10	 add	 esp, 16			; 00000010H
  00109	85 c9		 test	 ecx, ecx
  0010b	89 44 24 10	 mov	 DWORD PTR $T221319[esp+20], eax
  0010f	75 04		 jne	 SHORT $L221519
  00111	33 db		 xor	 ebx, ebx
  00113	eb 08		 jmp	 SHORT $L221520
$L221519:
  00115	8b 5f 08	 mov	 ebx, DWORD PTR [edi+8]
  00118	2b d9		 sub	 ebx, ecx
  0011a	c1 fb 02	 sar	 ebx, 2
$L221520:
  0011d	85 c9		 test	 ecx, ecx
  0011f	74 19		 je	 SHORT $L221581
  00121	8b 57 0c	 mov	 edx, DWORD PTR [edi+12]
  00124	2b d1		 sub	 edx, ecx
  00126	c1 fa 02	 sar	 edx, 2
  00129	3b da		 cmp	 ebx, edx
  0012b	73 0d		 jae	 SHORT $L221581
  0012d	8b 4f 08	 mov	 ecx, DWORD PTR [edi+8]
  00130	89 01		 mov	 DWORD PTR [ecx], eax
  00132	83 c1 04	 add	 ecx, 4
  00135	89 4f 08	 mov	 DWORD PTR [edi+8], ecx
  00138	eb 12		 jmp	 SHORT $L221578
$L221581:
  0013a	8b 47 08	 mov	 eax, DWORD PTR [edi+8]
  0013d	8d 4c 24 10	 lea	 ecx, DWORD PTR $T221319[esp+20]
  00141	51		 push	 ecx
  00142	6a 01		 push	 1
  00144	50		 push	 eax
  00145	8b cf		 mov	 ecx, edi
  00147	e8 00 00 00 00	 call	 ?_Insert_n@?$vector@KV?$allocator@K@std@@@std@@IAEXViterator@12@IABK@Z ; std::vector<unsigned long,std::allocator<unsigned long> >::_Insert_n
$L221578:

; 192  : 		m_Lua.Pop( 1 );

  0014c	6a 01		 push	 1
  0014e	8b cd		 mov	 ecx, ebp
  00150	e8 00 00 00 00	 call	 ?Pop@CLuaBase@@QAEXH@Z	; CLuaBase::Pop
  00155	8b 56 2c	 mov	 edx, DWORD PTR [esi+44]
  00158	6a fe		 push	 -2			; fffffffeH
  0015a	52		 push	 edx
  0015b	e8 00 00 00 00	 call	 _lua_next
  00160	83 c4 08	 add	 esp, 8
  00163	85 c0		 test	 eax, eax
  00165	75 89		 jne	 SHORT $L208315
  00167	5f		 pop	 edi
  00168	5b		 pop	 ebx
$L208316:

; 193  : 	}
; 194  : #endif // __OCCUPATION_SHOPITEM
; 195  : 
; 196  : 	LoadTaxInfo( DPID_ALLPLAYERS );

  00169	6a 00		 push	 0
  0016b	6a 00		 push	 0
  0016d	6a 00		 push	 0
  0016f	6a 00		 push	 0
  00171	8d 4e 30	 lea	 ecx, DWORD PTR [esi+48]
  00174	e8 00 00 00 00	 call	 ?PostRequest@CDbController@@QAEHHPAEHK@Z ; CDbController::PostRequest
  00179	5e		 pop	 esi
  0017a	5d		 pop	 ebp

; 197  : }

  0017b	59		 pop	 ecx
  0017c	c3		 ret	 0
?LoadScript@CTax@@QAEXXZ ENDP				; CTax::LoadScript
_TEXT	ENDS
PUBLIC	??1?$_Tree@V?$_Tmap_traits@EPAU__TAXDETAIL@@U?$less@E@std@@V?$allocator@U?$pair@$$CBEPAU__TAXDETAIL@@@std@@@3@$0A@@std@@@std@@QAE@XZ ; std::_Tree<std::_Tmap_traits<unsigned char,__TAXDETAIL *,std::less<unsigned char>,std::allocator<std::pair<unsigned char const ,__TAXDETAIL *> >,0> >::~_Tree<std::_Tmap_traits<unsigned char,__TAXDETAIL *,std::less<unsigned char>,std::allocator<std::pair<unsigned char const ,__TAXDETAIL *> >,0> >
; Function compile flags: /Ogty
; File c:\program files\microsoft visual studio .net 2003\vc7\include\xtree
;	COMDAT ??1?$_Tree@V?$_Tmap_traits@EPAU__TAXDETAIL@@U?$less@E@std@@V?$allocator@U?$pair@$$CBEPAU__TAXDETAIL@@@std@@@3@$0A@@std@@@std@@QAE@XZ
_TEXT	SEGMENT
$T221660 = -4						; size = 4
??1?$_Tree@V?$_Tmap_traits@EPAU__TAXDETAIL@@U?$less@E@std@@V?$allocator@U?$pair@$$CBEPAU__TAXDETAIL@@@std@@@3@$0A@@std@@@std@@QAE@XZ PROC NEAR ; std::_Tree<std::_Tmap_traits<unsigned char,__TAXDETAIL *,std::less<unsigned char>,std::allocator<std::pair<unsigned char const ,__TAXDETAIL *> >,0> >::~_Tree<std::_Tmap_traits<unsigned char,__TAXDETAIL *,std::less<unsigned char>,std::allocator<std::pair<unsigned char const ,__TAXDETAIL *> >,0> >, COMDAT
; _this$ = ecx

; 391  : 		{	// destroy tree

  00000	51		 push	 ecx
  00001	56		 push	 esi
  00002	8b f1		 mov	 esi, ecx

; 392  : 		_Tidy();

  00004	8b 46 04	 mov	 eax, DWORD PTR [esi+4]
  00007	8b 08		 mov	 ecx, DWORD PTR [eax]
  00009	50		 push	 eax
  0000a	51		 push	 ecx
  0000b	8d 44 24 0c	 lea	 eax, DWORD PTR $T221660[esp+16]
  0000f	50		 push	 eax
  00010	8b ce		 mov	 ecx, esi
  00012	e8 00 00 00 00	 call	 ?erase@?$_Tree@V?$_Tmap_traits@EPAU__TAXDETAIL@@U?$less@E@std@@V?$allocator@U?$pair@$$CBEPAU__TAXDETAIL@@@std@@@3@$0A@@std@@@std@@QAE?AViterator@12@V312@0@Z ; std::_Tree<std::_Tmap_traits<unsigned char,__TAXDETAIL *,std::less<unsigned char>,std::allocator<std::pair<unsigned char const ,__TAXDETAIL *> >,0> >::erase
  00017	8b 4e 04	 mov	 ecx, DWORD PTR [esi+4]
  0001a	51		 push	 ecx
  0001b	e8 00 00 00 00	 call	 ??3@YAXPAX@Z		; operator delete
  00020	83 c4 04	 add	 esp, 4
  00023	33 c0		 xor	 eax, eax
  00025	89 46 04	 mov	 DWORD PTR [esi+4], eax
  00028	89 46 08	 mov	 DWORD PTR [esi+8], eax
  0002b	5e		 pop	 esi

; 393  : 		}

  0002c	59		 pop	 ecx
  0002d	c3		 ret	 0
??1?$_Tree@V?$_Tmap_traits@EPAU__TAXDETAIL@@U?$less@E@std@@V?$allocator@U?$pair@$$CBEPAU__TAXDETAIL@@@std@@@3@$0A@@std@@@std@@QAE@XZ ENDP ; std::_Tree<std::_Tmap_traits<unsigned char,__TAXDETAIL *,std::less<unsigned char>,std::allocator<std::pair<unsigned char const ,__TAXDETAIL *> >,0> >::~_Tree<std::_Tmap_traits<unsigned char,__TAXDETAIL *,std::less<unsigned char>,std::allocator<std::pair<unsigned char const ,__TAXDETAIL *> >,0> >
_TEXT	ENDS
PUBLIC	??1?$_Tree@V?$_Tmap_traits@EPAU__TAXINFO@@U?$less@E@std@@V?$allocator@U?$pair@$$CBEPAU__TAXINFO@@@std@@@3@$0A@@std@@@std@@QAE@XZ ; std::_Tree<std::_Tmap_traits<unsigned char,__TAXINFO *,std::less<unsigned char>,std::allocator<std::pair<unsigned char const ,__TAXINFO *> >,0> >::~_Tree<std::_Tmap_traits<unsigned char,__TAXINFO *,std::less<unsigned char>,std::allocator<std::pair<unsigned char const ,__TAXINFO *> >,0> >
; Function compile flags: /Ogty
;	COMDAT ??1?$_Tree@V?$_Tmap_traits@EPAU__TAXINFO@@U?$less@E@std@@V?$allocator@U?$pair@$$CBEPAU__TAXINFO@@@std@@@3@$0A@@std@@@std@@QAE@XZ
_TEXT	SEGMENT
$T221754 = -4						; size = 4
??1?$_Tree@V?$_Tmap_traits@EPAU__TAXINFO@@U?$less@E@std@@V?$allocator@U?$pair@$$CBEPAU__TAXINFO@@@std@@@3@$0A@@std@@@std@@QAE@XZ PROC NEAR ; std::_Tree<std::_Tmap_traits<unsigned char,__TAXINFO *,std::less<unsigned char>,std::allocator<std::pair<unsigned char const ,__TAXINFO *> >,0> >::~_Tree<std::_Tmap_traits<unsigned char,__TAXINFO *,std::less<unsigned char>,std::allocator<std::pair<unsigned char const ,__TAXINFO *> >,0> >, COMDAT
; _this$ = ecx

; 391  : 		{	// destroy tree

  00000	51		 push	 ecx
  00001	56		 push	 esi
  00002	8b f1		 mov	 esi, ecx

; 392  : 		_Tidy();

  00004	8b 46 04	 mov	 eax, DWORD PTR [esi+4]
  00007	8b 08		 mov	 ecx, DWORD PTR [eax]
  00009	50		 push	 eax
  0000a	51		 push	 ecx
  0000b	8d 44 24 0c	 lea	 eax, DWORD PTR $T221754[esp+16]
  0000f	50		 push	 eax
  00010	8b ce		 mov	 ecx, esi
  00012	e8 00 00 00 00	 call	 ?erase@?$_Tree@V?$_Tmap_traits@EPAU__TAXINFO@@U?$less@E@std@@V?$allocator@U?$pair@$$CBEPAU__TAXINFO@@@std@@@3@$0A@@std@@@std@@QAE?AViterator@12@V312@0@Z ; std::_Tree<std::_Tmap_traits<unsigned char,__TAXINFO *,std::less<unsigned char>,std::allocator<std::pair<unsigned char const ,__TAXINFO *> >,0> >::erase
  00017	8b 4e 04	 mov	 ecx, DWORD PTR [esi+4]
  0001a	51		 push	 ecx
  0001b	e8 00 00 00 00	 call	 ??3@YAXPAX@Z		; operator delete
  00020	83 c4 04	 add	 esp, 4
  00023	33 c0		 xor	 eax, eax
  00025	89 46 04	 mov	 DWORD PTR [esi+4], eax
  00028	89 46 08	 mov	 DWORD PTR [esi+8], eax
  0002b	5e		 pop	 esi

; 393  : 		}

  0002c	59		 pop	 ecx
  0002d	c3		 ret	 0
??1?$_Tree@V?$_Tmap_traits@EPAU__TAXINFO@@U?$less@E@std@@V?$allocator@U?$pair@$$CBEPAU__TAXINFO@@@std@@@3@$0A@@std@@@std@@QAE@XZ ENDP ; std::_Tree<std::_Tmap_traits<unsigned char,__TAXINFO *,std::less<unsigned char>,std::allocator<std::pair<unsigned char const ,__TAXINFO *> >,0> >::~_Tree<std::_Tmap_traits<unsigned char,__TAXINFO *,std::less<unsigned char>,std::allocator<std::pair<unsigned char const ,__TAXINFO *> >,0> >
_TEXT	ENDS
PUBLIC	??1?$map@EPAU__TAXDETAIL@@U?$less@E@std@@V?$allocator@U?$pair@$$CBEPAU__TAXDETAIL@@@std@@@3@@std@@QAE@XZ ; std::map<unsigned char,__TAXDETAIL *,std::less<unsigned char>,std::allocator<std::pair<unsigned char const ,__TAXDETAIL *> > >::~map<unsigned char,__TAXDETAIL *,std::less<unsigned char>,std::allocator<std::pair<unsigned char const ,__TAXDETAIL *> > >
; Function compile flags: /Ogty
;	COMDAT ??1?$map@EPAU__TAXDETAIL@@U?$less@E@std@@V?$allocator@U?$pair@$$CBEPAU__TAXDETAIL@@@std@@@3@@std@@QAE@XZ
_TEXT	SEGMENT
$T221881 = -4						; size = 4
??1?$map@EPAU__TAXDETAIL@@U?$less@E@std@@V?$allocator@U?$pair@$$CBEPAU__TAXDETAIL@@@std@@@3@@std@@QAE@XZ PROC NEAR ; std::map<unsigned char,__TAXDETAIL *,std::less<unsigned char>,std::allocator<std::pair<unsigned char const ,__TAXDETAIL *> > >::~map<unsigned char,__TAXDETAIL *,std::less<unsigned char>,std::allocator<std::pair<unsigned char const ,__TAXDETAIL *> > >, COMDAT
; _this$ = ecx
  00000	51		 push	 ecx
  00001	56		 push	 esi
  00002	8b f1		 mov	 esi, ecx
  00004	8b 46 04	 mov	 eax, DWORD PTR [esi+4]
  00007	8b 08		 mov	 ecx, DWORD PTR [eax]
  00009	50		 push	 eax
  0000a	51		 push	 ecx
  0000b	8d 44 24 0c	 lea	 eax, DWORD PTR $T221881[esp+16]
  0000f	50		 push	 eax
  00010	8b ce		 mov	 ecx, esi
  00012	e8 00 00 00 00	 call	 ?erase@?$_Tree@V?$_Tmap_traits@EPAU__TAXDETAIL@@U?$less@E@std@@V?$allocator@U?$pair@$$CBEPAU__TAXDETAIL@@@std@@@3@$0A@@std@@@std@@QAE?AViterator@12@V312@0@Z ; std::_Tree<std::_Tmap_traits<unsigned char,__TAXDETAIL *,std::less<unsigned char>,std::allocator<std::pair<unsigned char const ,__TAXDETAIL *> >,0> >::erase
  00017	8b 4e 04	 mov	 ecx, DWORD PTR [esi+4]
  0001a	51		 push	 ecx
  0001b	e8 00 00 00 00	 call	 ??3@YAXPAX@Z		; operator delete
  00020	83 c4 04	 add	 esp, 4
  00023	33 c0		 xor	 eax, eax
  00025	89 46 04	 mov	 DWORD PTR [esi+4], eax
  00028	89 46 08	 mov	 DWORD PTR [esi+8], eax
  0002b	5e		 pop	 esi
  0002c	59		 pop	 ecx
  0002d	c3		 ret	 0
??1?$map@EPAU__TAXDETAIL@@U?$less@E@std@@V?$allocator@U?$pair@$$CBEPAU__TAXDETAIL@@@std@@@3@@std@@QAE@XZ ENDP ; std::map<unsigned char,__TAXDETAIL *,std::less<unsigned char>,std::allocator<std::pair<unsigned char const ,__TAXDETAIL *> > >::~map<unsigned char,__TAXDETAIL *,std::less<unsigned char>,std::allocator<std::pair<unsigned char const ,__TAXDETAIL *> > >
_TEXT	ENDS
PUBLIC	??1?$map@EPAU__TAXINFO@@U?$less@E@std@@V?$allocator@U?$pair@$$CBEPAU__TAXINFO@@@std@@@3@@std@@QAE@XZ ; std::map<unsigned char,__TAXINFO *,std::less<unsigned char>,std::allocator<std::pair<unsigned char const ,__TAXINFO *> > >::~map<unsigned char,__TAXINFO *,std::less<unsigned char>,std::allocator<std::pair<unsigned char const ,__TAXINFO *> > >
; Function compile flags: /Ogty
;	COMDAT ??1?$map@EPAU__TAXINFO@@U?$less@E@std@@V?$allocator@U?$pair@$$CBEPAU__TAXINFO@@@std@@@3@@std@@QAE@XZ
_TEXT	SEGMENT
$T222008 = -4						; size = 4
??1?$map@EPAU__TAXINFO@@U?$less@E@std@@V?$allocator@U?$pair@$$CBEPAU__TAXINFO@@@std@@@3@@std@@QAE@XZ PROC NEAR ; std::map<unsigned char,__TAXINFO *,std::less<unsigned char>,std::allocator<std::pair<unsigned char const ,__TAXINFO *> > >::~map<unsigned char,__TAXINFO *,std::less<unsigned char>,std::allocator<std::pair<unsigned char const ,__TAXINFO *> > >, COMDAT
; _this$ = ecx
  00000	51		 push	 ecx
  00001	56		 push	 esi
  00002	8b f1		 mov	 esi, ecx
  00004	8b 46 04	 mov	 eax, DWORD PTR [esi+4]
  00007	8b 08		 mov	 ecx, DWORD PTR [eax]
  00009	50		 push	 eax
  0000a	51		 push	 ecx
  0000b	8d 44 24 0c	 lea	 eax, DWORD PTR $T222008[esp+16]
  0000f	50		 push	 eax
  00010	8b ce		 mov	 ecx, esi
  00012	e8 00 00 00 00	 call	 ?erase@?$_Tree@V?$_Tmap_traits@EPAU__TAXINFO@@U?$less@E@std@@V?$allocator@U?$pair@$$CBEPAU__TAXINFO@@@std@@@3@$0A@@std@@@std@@QAE?AViterator@12@V312@0@Z ; std::_Tree<std::_Tmap_traits<unsigned char,__TAXINFO *,std::less<unsigned char>,std::allocator<std::pair<unsigned char const ,__TAXINFO *> >,0> >::erase
  00017	8b 4e 04	 mov	 ecx, DWORD PTR [esi+4]
  0001a	51		 push	 ecx
  0001b	e8 00 00 00 00	 call	 ??3@YAXPAX@Z		; operator delete
  00020	83 c4 04	 add	 esp, 4
  00023	33 c0		 xor	 eax, eax
  00025	89 46 04	 mov	 DWORD PTR [esi+4], eax
  00028	89 46 08	 mov	 DWORD PTR [esi+8], eax
  0002b	5e		 pop	 esi
  0002c	59		 pop	 ecx
  0002d	c3		 ret	 0
??1?$map@EPAU__TAXINFO@@U?$less@E@std@@V?$allocator@U?$pair@$$CBEPAU__TAXINFO@@@std@@@3@@std@@QAE@XZ ENDP ; std::map<unsigned char,__TAXINFO *,std::less<unsigned char>,std::allocator<std::pair<unsigned char const ,__TAXINFO *> > >::~map<unsigned char,__TAXINFO *,std::less<unsigned char>,std::allocator<std::pair<unsigned char const ,__TAXINFO *> > >
_TEXT	ENDS
PUBLIC	??1__TAXINFO@@QAE@XZ				; __TAXINFO::~__TAXINFO
; Function compile flags: /Ogty
;	COMDAT ??1__TAXINFO@@QAE@XZ
_TEXT	SEGMENT
$T222169 = -4						; size = 4
??1__TAXINFO@@QAE@XZ PROC NEAR				; __TAXINFO::~__TAXINFO, COMDAT
; _this$ = ecx
  00000	51		 push	 ecx
  00001	8b 41 0c	 mov	 eax, DWORD PTR [ecx+12]
  00004	56		 push	 esi
  00005	8d 71 08	 lea	 esi, DWORD PTR [ecx+8]
  00008	8b 08		 mov	 ecx, DWORD PTR [eax]
  0000a	50		 push	 eax
  0000b	51		 push	 ecx
  0000c	8d 44 24 0c	 lea	 eax, DWORD PTR $T222169[esp+16]
  00010	50		 push	 eax
  00011	8b ce		 mov	 ecx, esi
  00013	e8 00 00 00 00	 call	 ?erase@?$_Tree@V?$_Tmap_traits@EPAU__TAXDETAIL@@U?$less@E@std@@V?$allocator@U?$pair@$$CBEPAU__TAXDETAIL@@@std@@@3@$0A@@std@@@std@@QAE?AViterator@12@V312@0@Z ; std::_Tree<std::_Tmap_traits<unsigned char,__TAXDETAIL *,std::less<unsigned char>,std::allocator<std::pair<unsigned char const ,__TAXDETAIL *> >,0> >::erase
  00018	8b 4e 04	 mov	 ecx, DWORD PTR [esi+4]
  0001b	51		 push	 ecx
  0001c	e8 00 00 00 00	 call	 ??3@YAXPAX@Z		; operator delete
  00021	83 c4 04	 add	 esp, 4
  00024	33 c0		 xor	 eax, eax
  00026	89 46 04	 mov	 DWORD PTR [esi+4], eax
  00029	89 46 08	 mov	 DWORD PTR [esi+8], eax
  0002c	5e		 pop	 esi
  0002d	59		 pop	 ecx
  0002e	c3		 ret	 0
??1__TAXINFO@@QAE@XZ ENDP				; __TAXINFO::~__TAXINFO
_TEXT	ENDS
PUBLIC	??0?$map@EPAU__TAXDETAIL@@U?$less@E@std@@V?$allocator@U?$pair@$$CBEPAU__TAXDETAIL@@@std@@@3@@std@@QAE@XZ ; std::map<unsigned char,__TAXDETAIL *,std::less<unsigned char>,std::allocator<std::pair<unsigned char const ,__TAXDETAIL *> > >::map<unsigned char,__TAXDETAIL *,std::less<unsigned char>,std::allocator<std::pair<unsigned char const ,__TAXDETAIL *> > >
; Function compile flags: /Ogty
; File c:\program files\microsoft visual studio .net 2003\vc7\include\map
;	COMDAT ??0?$map@EPAU__TAXDETAIL@@U?$less@E@std@@V?$allocator@U?$pair@$$CBEPAU__TAXDETAIL@@@std@@@3@@std@@QAE@XZ
_TEXT	SEGMENT
??0?$map@EPAU__TAXDETAIL@@U?$less@E@std@@V?$allocator@U?$pair@$$CBEPAU__TAXDETAIL@@@std@@@3@@std@@QAE@XZ PROC NEAR ; std::map<unsigned char,__TAXDETAIL *,std::less<unsigned char>,std::allocator<std::pair<unsigned char const ,__TAXDETAIL *> > >::map<unsigned char,__TAXDETAIL *,std::less<unsigned char>,std::allocator<std::pair<unsigned char const ,__TAXDETAIL *> > >, COMDAT
; _this$ = ecx

; 102  : 		{	// construct empty map from defaults

  00000	56		 push	 esi
  00001	8b f1		 mov	 esi, ecx
  00003	e8 00 00 00 00	 call	 ?_Buynode@?$_Tree@V?$_Tmap_traits@EPAU__TAXDETAIL@@U?$less@E@std@@V?$allocator@U?$pair@$$CBEPAU__TAXDETAIL@@@std@@@3@$0A@@std@@@std@@IAEPAU_Node@?$_Tree_nod@V?$_Tmap_traits@EPAU__TAXDETAIL@@U?$less@E@std@@V?$allocator@U?$pair@$$CBEPAU__TAXDETAIL@@@std@@@3@$0A@@std@@@2@XZ ; std::_Tree<std::_Tmap_traits<unsigned char,__TAXDETAIL *,std::less<unsigned char>,std::allocator<std::pair<unsigned char const ,__TAXDETAIL *> >,0> >::_Buynode
  00008	89 46 04	 mov	 DWORD PTR [esi+4], eax
  0000b	c6 40 15 01	 mov	 BYTE PTR [eax+21], 1
  0000f	8b 46 04	 mov	 eax, DWORD PTR [esi+4]
  00012	89 40 04	 mov	 DWORD PTR [eax+4], eax
  00015	8b 46 04	 mov	 eax, DWORD PTR [esi+4]
  00018	89 00		 mov	 DWORD PTR [eax], eax
  0001a	8b 46 04	 mov	 eax, DWORD PTR [esi+4]
  0001d	89 40 08	 mov	 DWORD PTR [eax+8], eax
  00020	c7 46 08 00 00
	00 00		 mov	 DWORD PTR [esi+8], 0

; 103  : 		}

  00027	8b c6		 mov	 eax, esi
  00029	5e		 pop	 esi
  0002a	c3		 ret	 0
??0?$map@EPAU__TAXDETAIL@@U?$less@E@std@@V?$allocator@U?$pair@$$CBEPAU__TAXDETAIL@@@std@@@3@@std@@QAE@XZ ENDP ; std::map<unsigned char,__TAXDETAIL *,std::less<unsigned char>,std::allocator<std::pair<unsigned char const ,__TAXDETAIL *> > >::map<unsigned char,__TAXDETAIL *,std::less<unsigned char>,std::allocator<std::pair<unsigned char const ,__TAXDETAIL *> > >
_TEXT	ENDS
PUBLIC	??0?$map@EPAU__TAXINFO@@U?$less@E@std@@V?$allocator@U?$pair@$$CBEPAU__TAXINFO@@@std@@@3@@std@@QAE@XZ ; std::map<unsigned char,__TAXINFO *,std::less<unsigned char>,std::allocator<std::pair<unsigned char const ,__TAXINFO *> > >::map<unsigned char,__TAXINFO *,std::less<unsigned char>,std::allocator<std::pair<unsigned char const ,__TAXINFO *> > >
; Function compile flags: /Ogty
;	COMDAT ??0?$map@EPAU__TAXINFO@@U?$less@E@std@@V?$allocator@U?$pair@$$CBEPAU__TAXINFO@@@std@@@3@@std@@QAE@XZ
_TEXT	SEGMENT
??0?$map@EPAU__TAXINFO@@U?$less@E@std@@V?$allocator@U?$pair@$$CBEPAU__TAXINFO@@@std@@@3@@std@@QAE@XZ PROC NEAR ; std::map<unsigned char,__TAXINFO *,std::less<unsigned char>,std::allocator<std::pair<unsigned char const ,__TAXINFO *> > >::map<unsigned char,__TAXINFO *,std::less<unsigned char>,std::allocator<std::pair<unsigned char const ,__TAXINFO *> > >, COMDAT
; _this$ = ecx

; 102  : 		{	// construct empty map from defaults

  00000	56		 push	 esi
  00001	8b f1		 mov	 esi, ecx
  00003	e8 00 00 00 00	 call	 ?_Buynode@?$_Tree@V?$_Tmap_traits@EPAU__TAXINFO@@U?$less@E@std@@V?$allocator@U?$pair@$$CBEPAU__TAXINFO@@@std@@@3@$0A@@std@@@std@@IAEPAU_Node@?$_Tree_nod@V?$_Tmap_traits@EPAU__TAXINFO@@U?$less@E@std@@V?$allocator@U?$pair@$$CBEPAU__TAXINFO@@@std@@@3@$0A@@std@@@2@XZ ; std::_Tree<std::_Tmap_traits<unsigned char,__TAXINFO *,std::less<unsigned char>,std::allocator<std::pair<unsigned char const ,__TAXINFO *> >,0> >::_Buynode
  00008	89 46 04	 mov	 DWORD PTR [esi+4], eax
  0000b	c6 40 15 01	 mov	 BYTE PTR [eax+21], 1
  0000f	8b 46 04	 mov	 eax, DWORD PTR [esi+4]
  00012	89 40 04	 mov	 DWORD PTR [eax+4], eax
  00015	8b 46 04	 mov	 eax, DWORD PTR [esi+4]
  00018	89 00		 mov	 DWORD PTR [eax], eax
  0001a	8b 46 04	 mov	 eax, DWORD PTR [esi+4]
  0001d	89 40 08	 mov	 DWORD PTR [eax+8], eax
  00020	c7 46 08 00 00
	00 00		 mov	 DWORD PTR [esi+8], 0

; 103  : 		}

  00027	8b c6		 mov	 eax, esi
  00029	5e		 pop	 esi
  0002a	c3		 ret	 0
??0?$map@EPAU__TAXINFO@@U?$less@E@std@@V?$allocator@U?$pair@$$CBEPAU__TAXINFO@@@std@@@3@@std@@QAE@XZ ENDP ; std::map<unsigned char,__TAXINFO *,std::less<unsigned char>,std::allocator<std::pair<unsigned char const ,__TAXINFO *> > >::map<unsigned char,__TAXINFO *,std::less<unsigned char>,std::allocator<std::pair<unsigned char const ,__TAXINFO *> > >
_TEXT	ENDS
PUBLIC	??0__TAXINFO@@QAE@XZ				; __TAXINFO::__TAXINFO
;	COMDAT xdata$x
; File c:\program files\microsoft visual studio .net 2003\vc7\include\utility
xdata$x	SEGMENT
$T222798 DD	0ffffffffH
	DD	FLAT:$L222546
$T222796 DD	019930520H
	DD	01H
	DD	FLAT:$T222798
	DD	2 DUP(00H)
	DD	2 DUP(00H)
; Function compile flags: /Ogty
; File c:\documents and settings\test\mes documents\source\virtuos_v17\build\program\_common\tax.h
xdata$x	ENDS
;	COMDAT ??0__TAXINFO@@QAE@XZ
_TEXT	SEGMENT
_this$ = -32						; size = 4
$T222539 = -28						; size = 8
$T222532 = -28						; size = 8
$T222545 = -20						; size = 8
$T222538 = -20						; size = 8
__$EHRec$ = -12						; size = 12
??0__TAXINFO@@QAE@XZ PROC NEAR				; __TAXINFO::__TAXINFO, COMDAT
; _this$ = ecx

; 72   : 	__TAXINFO()

  00000	6a ff		 push	 -1
  00002	68 00 00 00 00	 push	 __ehhandler$??0__TAXINFO@@QAE@XZ
  00007	64 a1 00 00 00
	00		 mov	 eax, DWORD PTR fs:__except_list
  0000d	50		 push	 eax
  0000e	64 89 25 00 00
	00 00		 mov	 DWORD PTR fs:__except_list, esp
  00015	83 ec 14	 sub	 esp, 20			; 00000014H
  00018	53		 push	 ebx
  00019	56		 push	 esi
  0001a	57		 push	 edi
  0001b	8b f9		 mov	 edi, ecx
  0001d	8d 77 08	 lea	 esi, DWORD PTR [edi+8]
  00020	8b ce		 mov	 ecx, esi
  00022	89 7c 24 0c	 mov	 DWORD PTR _this$[esp+44], edi
  00026	e8 00 00 00 00	 call	 ?_Buynode@?$_Tree@V?$_Tmap_traits@EPAU__TAXDETAIL@@U?$less@E@std@@V?$allocator@U?$pair@$$CBEPAU__TAXDETAIL@@@std@@@3@$0A@@std@@@std@@IAEPAU_Node@?$_Tree_nod@V?$_Tmap_traits@EPAU__TAXDETAIL@@U?$less@E@std@@V?$allocator@U?$pair@$$CBEPAU__TAXDETAIL@@@std@@@3@$0A@@std@@@2@XZ ; std::_Tree<std::_Tmap_traits<unsigned char,__TAXDETAIL *,std::less<unsigned char>,std::allocator<std::pair<unsigned char const ,__TAXDETAIL *> >,0> >::_Buynode
  0002b	89 46 04	 mov	 DWORD PTR [esi+4], eax
  0002e	c6 40 15 01	 mov	 BYTE PTR [eax+21], 1
  00032	8b 46 04	 mov	 eax, DWORD PTR [esi+4]
  00035	89 40 04	 mov	 DWORD PTR [eax+4], eax
  00038	8b 46 04	 mov	 eax, DWORD PTR [esi+4]
  0003b	89 00		 mov	 DWORD PTR [eax], eax
  0003d	8b 46 04	 mov	 eax, DWORD PTR [esi+4]
  00040	33 db		 xor	 ebx, ebx
  00042	89 40 08	 mov	 DWORD PTR [eax+8], eax
  00045	89 5e 08	 mov	 DWORD PTR [esi+8], ebx

; 73   : 	{
; 74   : 		dwId = NULL_ID;
; 75   : 		bSetTaxRate = TRUE;
; 76   : 		mapTaxDetail.insert( make_pair( TAX_SALES, new __TAXDETAIL ) );			//   

  00048	6a 14		 push	 20			; 00000014H
  0004a	89 5c 24 2c	 mov	 DWORD PTR __$EHRec$[esp+56], ebx
  0004e	c7 07 ff ff ff
	ff		 mov	 DWORD PTR [edi], -1
  00054	c7 47 04 01 00
	00 00		 mov	 DWORD PTR [edi+4], 1
  0005b	e8 00 00 00 00	 call	 ??2@YAPAXI@Z		; operator new
  00060	83 c4 04	 add	 esp, 4
  00063	3b c3		 cmp	 eax, ebx
  00065	74 10		 je	 SHORT $L222535
  00067	89 18		 mov	 DWORD PTR [eax], ebx
  00069	89 58 04	 mov	 DWORD PTR [eax+4], ebx
  0006c	89 58 08	 mov	 DWORD PTR [eax+8], ebx
  0006f	89 58 0c	 mov	 DWORD PTR [eax+12], ebx
  00072	89 58 10	 mov	 DWORD PTR [eax+16], ebx
  00075	eb 02		 jmp	 SHORT $L222536
$L222535:
  00077	33 c0		 xor	 eax, eax
$L222536:
  00079	89 44 24 14	 mov	 DWORD PTR $T222532[esp+48], eax
  0007d	8d 44 24 10	 lea	 eax, DWORD PTR $T222532[esp+44]
  00081	50		 push	 eax
  00082	8d 4c 24 1c	 lea	 ecx, DWORD PTR $T222538[esp+48]
  00086	51		 push	 ecx
  00087	8b ce		 mov	 ecx, esi
  00089	88 5c 24 18	 mov	 BYTE PTR $T222532[esp+52], bl
  0008d	e8 00 00 00 00	 call	 ?insert@?$_Tree@V?$_Tmap_traits@EPAU__TAXDETAIL@@U?$less@E@std@@V?$allocator@U?$pair@$$CBEPAU__TAXDETAIL@@@std@@@3@$0A@@std@@@std@@QAE?AU?$pair@Viterator@?$_Tree@V?$_Tmap_traits@EPAU__TAXDETAIL@@U?$less@E@std@@V?$allocator@U?$pair@$$CBEPAU__TAXDETAIL@@@std@@@3@$0A@@std@@@std@@_N@2@ABU?$pair@$$CBEPAU__TAXDETAIL@@@2@@Z ; std::_Tree<std::_Tmap_traits<unsigned char,__TAXDETAIL *,std::less<unsigned char>,std::allocator<std::pair<unsigned char const ,__TAXDETAIL *> >,0> >::insert

; 77   : 		mapTaxDetail.insert( make_pair( TAX_PURCHASE, new __TAXDETAIL ) );		//   

  00092	6a 14		 push	 20			; 00000014H
  00094	e8 00 00 00 00	 call	 ??2@YAPAXI@Z		; operator new
  00099	83 c4 04	 add	 esp, 4
  0009c	3b c3		 cmp	 eax, ebx
  0009e	74 10		 je	 SHORT $L222542
  000a0	89 18		 mov	 DWORD PTR [eax], ebx
  000a2	89 58 04	 mov	 DWORD PTR [eax+4], ebx
  000a5	89 58 08	 mov	 DWORD PTR [eax+8], ebx
  000a8	89 58 0c	 mov	 DWORD PTR [eax+12], ebx
  000ab	89 58 10	 mov	 DWORD PTR [eax+16], ebx
  000ae	eb 02		 jmp	 SHORT $L222543
$L222542:
  000b0	33 c0		 xor	 eax, eax
$L222543:
  000b2	8d 54 24 10	 lea	 edx, DWORD PTR $T222539[esp+44]
  000b6	89 44 24 14	 mov	 DWORD PTR $T222539[esp+48], eax
  000ba	52		 push	 edx
  000bb	8d 44 24 1c	 lea	 eax, DWORD PTR $T222545[esp+48]
  000bf	50		 push	 eax
  000c0	8b ce		 mov	 ecx, esi
  000c2	c6 44 24 18 01	 mov	 BYTE PTR $T222539[esp+52], 1
  000c7	e8 00 00 00 00	 call	 ?insert@?$_Tree@V?$_Tmap_traits@EPAU__TAXDETAIL@@U?$less@E@std@@V?$allocator@U?$pair@$$CBEPAU__TAXDETAIL@@@std@@@3@$0A@@std@@@std@@QAE?AU?$pair@Viterator@?$_Tree@V?$_Tmap_traits@EPAU__TAXDETAIL@@U?$less@E@std@@V?$allocator@U?$pair@$$CBEPAU__TAXDETAIL@@@std@@@3@$0A@@std@@@std@@_N@2@ABU?$pair@$$CBEPAU__TAXDETAIL@@@2@@Z ; std::_Tree<std::_Tmap_traits<unsigned char,__TAXDETAIL *,std::less<unsigned char>,std::allocator<std::pair<unsigned char const ,__TAXDETAIL *> >,0> >::insert

; 78   : 		dwNextId = NULL_ID;
; 79   : 	}

  000cc	8b 4c 24 20	 mov	 ecx, DWORD PTR __$EHRec$[esp+44]
  000d0	c7 47 14 ff ff
	ff ff		 mov	 DWORD PTR [edi+20], -1
  000d7	8b c7		 mov	 eax, edi
  000d9	5f		 pop	 edi
  000da	5e		 pop	 esi
  000db	5b		 pop	 ebx
  000dc	64 89 0d 00 00
	00 00		 mov	 DWORD PTR fs:__except_list, ecx
  000e3	83 c4 20	 add	 esp, 32			; 00000020H
  000e6	c3		 ret	 0
_TEXT	ENDS
;	COMDAT text$x
text$x	SEGMENT
$L222546:
  00000	8b 4d e0	 mov	 ecx, DWORD PTR _this$[ebp]
  00003	83 c1 08	 add	 ecx, 8
  00006	e9 00 00 00 00	 jmp	 ??1?$map@EPAU__TAXDETAIL@@U?$less@E@std@@V?$allocator@U?$pair@$$CBEPAU__TAXDETAIL@@@std@@@3@@std@@QAE@XZ
__ehhandler$??0__TAXINFO@@QAE@XZ:
  0000b	b8 00 00 00 00	 mov	 eax, OFFSET FLAT:$T222796
  00010	e9 00 00 00 00	 jmp	 ___CxxFrameHandler
text$x	ENDS
??0__TAXINFO@@QAE@XZ ENDP				; __TAXINFO::__TAXINFO
PUBLIC	??_C@_0CG@PBPHIFHD@CTax?5?9?5m_Controller?4CreateDbHand@ ; `string'
PUBLIC	??0CTax@@QAE@XZ					; CTax::CTax
EXTRN	??0CLuaBase@@QAE@XZ:NEAR			; CLuaBase::CLuaBase
EXTRN	??1CLuaBase@@UAE@XZ:NEAR			; CLuaBase::~CLuaBase
EXTRN	?CreateDbHandler@CDbController@@QAEHK@Z:NEAR	; CDbController::CreateDbHandler
;	COMDAT xdata$x
; File c:\program files\microsoft visual studio .net 2003\vc7\include\xtree
xdata$x	SEGMENT
$T223377 DD	0ffffffffH
	DD	FLAT:$L222842
	DD	00H
	DD	FLAT:$L222843
	DD	01H
	DD	FLAT:$L222844
	DD	02H
	DD	FLAT:$L222845
	DD	03H
	DD	FLAT:$L222846
	DD	04H
	DD	FLAT:$L222847
	DD	04H
	DD	FLAT:$L222849
	DD	04H
	DD	FLAT:$L222850
$T223374 DD	019930520H
	DD	08H
	DD	FLAT:$T223377
	DD	2 DUP(00H)
	DD	2 DUP(00H)
xdata$x	ENDS
;	COMDAT ??_C@_0CG@PBPHIFHD@CTax?5?9?5m_Controller?4CreateDbHand@
CONST	SEGMENT
??_C@_0CG@PBPHIFHD@CTax?5?9?5m_Controller?4CreateDbHand@ DB 'CTax - m_Con'
	DB	'troller.CreateDbHandler()', 00H		; `string'
; Function compile flags: /Ogty
; File c:\documents and settings\test\mes documents\source\virtuos_v17\build\program\_common\tax.cpp
CONST	ENDS
;	COMDAT ??0CTax@@QAE@XZ
_TEXT	SEGMENT
$T222833 = -41						; size = 1
$T222810 = -41						; size = 1
_this$ = -40						; size = 4
$T222834 = -36						; size = 4
$T222828 = -36						; size = 4
$T222821 = -36						; size = 4
$T222811 = -36						; size = 4
$T222805 = -36						; size = 4
$T222803 = -36						; size = 8
$T222835 = -28						; size = 8
$T222826 = -28						; size = 8
$T222819 = -28						; size = 8
$T222812 = -28						; size = 8
$T222809 = -28						; size = 8
$T222841 = -20						; size = 8
$T222832 = -20						; size = 8
$T222825 = -20						; size = 8
$T222818 = -20						; size = 8
__$EHRec$ = -12						; size = 12
??0CTax@@QAE@XZ PROC NEAR				; CTax::CTax, COMDAT
; _this$ = ecx

; 25   : {

  00000	6a ff		 push	 -1
  00002	68 00 00 00 00	 push	 __ehhandler$??0CTax@@QAE@XZ
  00007	64 a1 00 00 00
	00		 mov	 eax, DWORD PTR fs:__except_list
  0000d	50		 push	 eax
  0000e	64 89 25 00 00
	00 00		 mov	 DWORD PTR fs:__except_list, esp
  00015	83 ec 20	 sub	 esp, 32			; 00000020H
  00018	53		 push	 ebx
  00019	55		 push	 ebp
  0001a	56		 push	 esi
  0001b	8b f1		 mov	 esi, ecx
  0001d	57		 push	 edi
  0001e	8d 7e 08	 lea	 edi, DWORD PTR [esi+8]
  00021	8b cf		 mov	 ecx, edi
  00023	89 74 24 14	 mov	 DWORD PTR _this$[esp+60], esi
  00027	e8 00 00 00 00	 call	 ?_Buynode@?$_Tree@V?$_Tmap_traits@EPAU__TAXINFO@@U?$less@E@std@@V?$allocator@U?$pair@$$CBEPAU__TAXINFO@@@std@@@3@$0A@@std@@@std@@IAEPAU_Node@?$_Tree_nod@V?$_Tmap_traits@EPAU__TAXINFO@@U?$less@E@std@@V?$allocator@U?$pair@$$CBEPAU__TAXINFO@@@std@@@3@$0A@@std@@@2@XZ ; std::_Tree<std::_Tmap_traits<unsigned char,__TAXINFO *,std::less<unsigned char>,std::allocator<std::pair<unsigned char const ,__TAXINFO *> >,0> >::_Buynode
  0002c	89 47 04	 mov	 DWORD PTR [edi+4], eax
  0002f	c6 40 15 01	 mov	 BYTE PTR [eax+21], 1
  00033	8b 47 04	 mov	 eax, DWORD PTR [edi+4]
  00036	89 40 04	 mov	 DWORD PTR [eax+4], eax
  00039	8b 47 04	 mov	 eax, DWORD PTR [edi+4]
  0003c	89 00		 mov	 DWORD PTR [eax], eax
  0003e	8b 47 04	 mov	 eax, DWORD PTR [edi+4]
  00041	33 db		 xor	 ebx, ebx
  00043	89 40 08	 mov	 DWORD PTR [eax+8], eax
  00046	89 5f 08	 mov	 DWORD PTR [edi+8], ebx
  00049	8d 4e 28	 lea	 ecx, DWORD PTR [esi+40]
  0004c	89 5c 24 38	 mov	 DWORD PTR __$EHRec$[esp+68], ebx
  00050	e8 00 00 00 00	 call	 ??0CLuaBase@@QAE@XZ	; CLuaBase::CLuaBase
  00055	8d 6e 30	 lea	 ebp, DWORD PTR [esi+48]
  00058	8b cd		 mov	 ecx, ebp
  0005a	c6 44 24 38 01	 mov	 BYTE PTR __$EHRec$[esp+68], 1
  0005f	e8 00 00 00 00	 call	 ??0CDbController@@QAE@XZ ; CDbController::CDbController
  00064	c7 45 00 00 00
	00 00		 mov	 DWORD PTR [ebp], OFFSET FLAT:??_7CTaxDBController@@6B@
  0006b	89 5d 14	 mov	 DWORD PTR [ebp+20], ebx
  0006e	89 5d 18	 mov	 DWORD PTR [ebp+24], ebx
  00071	c7 46 64 0f 00
	00 00		 mov	 DWORD PTR [esi+100], 15	; 0000000fH
  00078	89 5e 60	 mov	 DWORD PTR [esi+96], ebx
  0007b	88 5e 50	 mov	 BYTE PTR [esi+80], bl
  0007e	89 5e 6c	 mov	 DWORD PTR [esi+108], ebx
  00081	89 5e 70	 mov	 DWORD PTR [esi+112], ebx
  00084	89 5e 74	 mov	 DWORD PTR [esi+116], ebx

; 26   : 	m_nMinTaxRate = 0;
; 27   : 	m_nMaxTaxRate = 0;
; 28   : 	
; 29   : 	m_mapTaxInfo.insert( make_pair(CONT_EAST, new __TAXINFO) );		//    -  

  00087	6a 18		 push	 24			; 00000018H
  00089	c6 44 24 3c 04	 mov	 BYTE PTR __$EHRec$[esp+72], 4
  0008e	89 1e		 mov	 DWORD PTR [esi], ebx
  00090	89 5e 04	 mov	 DWORD PTR [esi+4], ebx
  00093	e8 00 00 00 00	 call	 ??2@YAPAXI@Z		; operator new
  00098	83 c4 04	 add	 esp, 4
  0009b	89 44 24 18	 mov	 DWORD PTR $T222805[esp+60], eax
  0009f	3b c3		 cmp	 eax, ebx
  000a1	c6 44 24 38 05	 mov	 BYTE PTR __$EHRec$[esp+68], 5
  000a6	74 09		 je	 SHORT $L222806
  000a8	8b c8		 mov	 ecx, eax
  000aa	e8 00 00 00 00	 call	 ??0__TAXINFO@@QAE@XZ	; __TAXINFO::__TAXINFO
  000af	eb 02		 jmp	 SHORT $L222807
$L222806:
  000b1	33 c0		 xor	 eax, eax
$L222807:
  000b3	89 44 24 1c	 mov	 DWORD PTR $T222803[esp+64], eax
  000b7	8d 44 24 18	 lea	 eax, DWORD PTR $T222803[esp+60]
  000bb	50		 push	 eax
  000bc	8d 4c 24 24	 lea	 ecx, DWORD PTR $T222809[esp+64]
  000c0	51		 push	 ecx
  000c1	8b cf		 mov	 ecx, edi
  000c3	c6 44 24 40 04	 mov	 BYTE PTR __$EHRec$[esp+76], 4
  000c8	c6 44 24 20 0f	 mov	 BYTE PTR $T222803[esp+68], 15 ; 0000000fH
  000cd	e8 00 00 00 00	 call	 ?insert@?$_Tree@V?$_Tmap_traits@EPAU__TAXINFO@@U?$less@E@std@@V?$allocator@U?$pair@$$CBEPAU__TAXINFO@@@std@@@3@$0A@@std@@@std@@QAE?AU?$pair@Viterator@?$_Tree@V?$_Tmap_traits@EPAU__TAXINFO@@U?$less@E@std@@V?$allocator@U?$pair@$$CBEPAU__TAXINFO@@@std@@@3@$0A@@std@@@std@@_N@2@ABU?$pair@$$CBEPAU__TAXINFO@@@2@@Z ; std::_Tree<std::_Tmap_traits<unsigned char,__TAXINFO *,std::less<unsigned char>,std::allocator<std::pair<unsigned char const ,__TAXINFO *> >,0> >::insert

; 30   : 	m_mapTaxInfo.find( CONT_EAST )->second->mapTaxDetail.insert( make_pair( TAX_ADMISSION, new __TAXDETAIL ) ); 

  000d2	6a 14		 push	 20			; 00000014H
  000d4	e8 00 00 00 00	 call	 ??2@YAPAXI@Z		; operator new
  000d9	83 c4 04	 add	 esp, 4
  000dc	3b c3		 cmp	 eax, ebx
  000de	74 10		 je	 SHORT $L222815
  000e0	89 18		 mov	 DWORD PTR [eax], ebx
  000e2	89 58 04	 mov	 DWORD PTR [eax+4], ebx
  000e5	89 58 08	 mov	 DWORD PTR [eax+8], ebx
  000e8	89 58 0c	 mov	 DWORD PTR [eax+12], ebx
  000eb	89 58 10	 mov	 DWORD PTR [eax+16], ebx
  000ee	eb 02		 jmp	 SHORT $L222816
$L222815:
  000f0	33 c0		 xor	 eax, eax
$L222816:
  000f2	8d 54 24 13	 lea	 edx, DWORD PTR $T222810[esp+60]
  000f6	89 44 24 24	 mov	 DWORD PTR $T222812[esp+64], eax
  000fa	52		 push	 edx
  000fb	8d 44 24 1c	 lea	 eax, DWORD PTR $T222811[esp+64]
  000ff	50		 push	 eax
  00100	8b cf		 mov	 ecx, edi
  00102	c6 44 24 28 02	 mov	 BYTE PTR $T222812[esp+68], 2
  00107	c6 44 24 1b 0f	 mov	 BYTE PTR $T222810[esp+68], 15 ; 0000000fH
  0010c	e8 00 00 00 00	 call	 ?find@?$_Tree@V?$_Tmap_traits@EPAU__TAXINFO@@U?$less@E@std@@V?$allocator@U?$pair@$$CBEPAU__TAXINFO@@@std@@@3@$0A@@std@@@std@@QAE?AViterator@12@ABE@Z ; std::_Tree<std::_Tmap_traits<unsigned char,__TAXINFO *,std::less<unsigned char>,std::allocator<std::pair<unsigned char const ,__TAXINFO *> >,0> >::find
  00111	8b 00		 mov	 eax, DWORD PTR [eax]
  00113	8d 4c 24 20	 lea	 ecx, DWORD PTR $T222812[esp+60]
  00117	51		 push	 ecx
  00118	8b 48 10	 mov	 ecx, DWORD PTR [eax+16]
  0011b	8d 54 24 2c	 lea	 edx, DWORD PTR $T222818[esp+64]
  0011f	52		 push	 edx
  00120	83 c1 08	 add	 ecx, 8
  00123	e8 00 00 00 00	 call	 ?insert@?$_Tree@V?$_Tmap_traits@EPAU__TAXDETAIL@@U?$less@E@std@@V?$allocator@U?$pair@$$CBEPAU__TAXDETAIL@@@std@@@3@$0A@@std@@@std@@QAE?AU?$pair@Viterator@?$_Tree@V?$_Tmap_traits@EPAU__TAXDETAIL@@U?$less@E@std@@V?$allocator@U?$pair@$$CBEPAU__TAXDETAIL@@@std@@@3@$0A@@std@@@std@@_N@2@ABU?$pair@$$CBEPAU__TAXDETAIL@@@2@@Z ; std::_Tree<std::_Tmap_traits<unsigned char,__TAXDETAIL *,std::less<unsigned char>,std::allocator<std::pair<unsigned char const ,__TAXDETAIL *> >,0> >::insert

; 31   : 	m_mapTaxInfo.insert( make_pair(CONT_WEST, new __TAXINFO) );		//   

  00128	6a 18		 push	 24			; 00000018H
  0012a	e8 00 00 00 00	 call	 ??2@YAPAXI@Z		; operator new
  0012f	83 c4 04	 add	 esp, 4
  00132	89 44 24 18	 mov	 DWORD PTR $T222821[esp+60], eax
  00136	3b c3		 cmp	 eax, ebx
  00138	c6 44 24 38 06	 mov	 BYTE PTR __$EHRec$[esp+68], 6
  0013d	74 09		 je	 SHORT $L222822
  0013f	8b c8		 mov	 ecx, eax
  00141	e8 00 00 00 00	 call	 ??0__TAXINFO@@QAE@XZ	; __TAXINFO::__TAXINFO
  00146	eb 02		 jmp	 SHORT $L222823
$L222822:
  00148	33 c0		 xor	 eax, eax
$L222823:
  0014a	8d 4c 24 20	 lea	 ecx, DWORD PTR $T222819[esp+60]
  0014e	51		 push	 ecx
  0014f	8d 54 24 2c	 lea	 edx, DWORD PTR $T222825[esp+64]
  00153	52		 push	 edx
  00154	8b cf		 mov	 ecx, edi
  00156	c6 44 24 40 04	 mov	 BYTE PTR __$EHRec$[esp+76], 4
  0015b	c6 44 24 28 f0	 mov	 BYTE PTR $T222819[esp+68], 240 ; 000000f0H
  00160	89 44 24 2c	 mov	 DWORD PTR $T222819[esp+72], eax
  00164	e8 00 00 00 00	 call	 ?insert@?$_Tree@V?$_Tmap_traits@EPAU__TAXINFO@@U?$less@E@std@@V?$allocator@U?$pair@$$CBEPAU__TAXINFO@@@std@@@3@$0A@@std@@@std@@QAE?AU?$pair@Viterator@?$_Tree@V?$_Tmap_traits@EPAU__TAXINFO@@U?$less@E@std@@V?$allocator@U?$pair@$$CBEPAU__TAXINFO@@@std@@@3@$0A@@std@@@std@@_N@2@ABU?$pair@$$CBEPAU__TAXINFO@@@2@@Z ; std::_Tree<std::_Tmap_traits<unsigned char,__TAXINFO *,std::less<unsigned char>,std::allocator<std::pair<unsigned char const ,__TAXINFO *> >,0> >::insert

; 32   : 	m_mapTaxInfo.insert( make_pair(CONT_ALL, new __TAXINFO) );		//  -  

  00169	6a 18		 push	 24			; 00000018H
  0016b	e8 00 00 00 00	 call	 ??2@YAPAXI@Z		; operator new
  00170	83 c4 04	 add	 esp, 4
  00173	89 44 24 18	 mov	 DWORD PTR $T222828[esp+60], eax
  00177	3b c3		 cmp	 eax, ebx
  00179	c6 44 24 38 07	 mov	 BYTE PTR __$EHRec$[esp+68], 7
  0017e	74 09		 je	 SHORT $L222829
  00180	8b c8		 mov	 ecx, eax
  00182	e8 00 00 00 00	 call	 ??0__TAXINFO@@QAE@XZ	; __TAXINFO::__TAXINFO
  00187	eb 02		 jmp	 SHORT $L222830
$L222829:
  00189	33 c0		 xor	 eax, eax
$L222830:
  0018b	89 44 24 24	 mov	 DWORD PTR $T222826[esp+64], eax
  0018f	8d 44 24 20	 lea	 eax, DWORD PTR $T222826[esp+60]
  00193	50		 push	 eax
  00194	8d 4c 24 2c	 lea	 ecx, DWORD PTR $T222832[esp+64]
  00198	51		 push	 ecx
  00199	8b cf		 mov	 ecx, edi
  0019b	c6 44 24 40 04	 mov	 BYTE PTR __$EHRec$[esp+76], 4
  001a0	c6 44 24 28 ff	 mov	 BYTE PTR $T222826[esp+68], 255 ; 000000ffH
  001a5	e8 00 00 00 00	 call	 ?insert@?$_Tree@V?$_Tmap_traits@EPAU__TAXINFO@@U?$less@E@std@@V?$allocator@U?$pair@$$CBEPAU__TAXINFO@@@std@@@3@$0A@@std@@@std@@QAE?AU?$pair@Viterator@?$_Tree@V?$_Tmap_traits@EPAU__TAXINFO@@U?$less@E@std@@V?$allocator@U?$pair@$$CBEPAU__TAXINFO@@@std@@@3@$0A@@std@@@std@@_N@2@ABU?$pair@$$CBEPAU__TAXINFO@@@2@@Z ; std::_Tree<std::_Tmap_traits<unsigned char,__TAXINFO *,std::less<unsigned char>,std::allocator<std::pair<unsigned char const ,__TAXINFO *> >,0> >::insert

; 33   : 	m_mapTaxInfo.find( CONT_ALL )->second->mapTaxDetail.insert( make_pair( TAX_ADMISSION, new __TAXDETAIL ) );

  001aa	6a 14		 push	 20			; 00000014H
  001ac	e8 00 00 00 00	 call	 ??2@YAPAXI@Z		; operator new
  001b1	83 c4 04	 add	 esp, 4
  001b4	3b c3		 cmp	 eax, ebx
  001b6	74 10		 je	 SHORT $L222838
  001b8	89 18		 mov	 DWORD PTR [eax], ebx
  001ba	89 58 04	 mov	 DWORD PTR [eax+4], ebx
  001bd	89 58 08	 mov	 DWORD PTR [eax+8], ebx
  001c0	89 58 0c	 mov	 DWORD PTR [eax+12], ebx
  001c3	89 58 10	 mov	 DWORD PTR [eax+16], ebx
  001c6	eb 02		 jmp	 SHORT $L222839
$L222838:
  001c8	33 c0		 xor	 eax, eax
$L222839:
  001ca	8d 54 24 13	 lea	 edx, DWORD PTR $T222833[esp+60]
  001ce	89 44 24 24	 mov	 DWORD PTR $T222835[esp+64], eax
  001d2	52		 push	 edx
  001d3	8d 44 24 1c	 lea	 eax, DWORD PTR $T222834[esp+64]
  001d7	50		 push	 eax
  001d8	8b cf		 mov	 ecx, edi
  001da	c6 44 24 28 02	 mov	 BYTE PTR $T222835[esp+68], 2
  001df	c6 44 24 1b ff	 mov	 BYTE PTR $T222833[esp+68], 255 ; 000000ffH
  001e4	e8 00 00 00 00	 call	 ?find@?$_Tree@V?$_Tmap_traits@EPAU__TAXINFO@@U?$less@E@std@@V?$allocator@U?$pair@$$CBEPAU__TAXINFO@@@std@@@3@$0A@@std@@@std@@QAE?AViterator@12@ABE@Z ; std::_Tree<std::_Tmap_traits<unsigned char,__TAXINFO *,std::less<unsigned char>,std::allocator<std::pair<unsigned char const ,__TAXINFO *> >,0> >::find
  001e9	8b 00		 mov	 eax, DWORD PTR [eax]
  001eb	8d 4c 24 20	 lea	 ecx, DWORD PTR $T222835[esp+60]
  001ef	51		 push	 ecx
  001f0	8b 48 10	 mov	 ecx, DWORD PTR [eax+16]
  001f3	8d 54 24 2c	 lea	 edx, DWORD PTR $T222841[esp+64]
  001f7	52		 push	 edx
  001f8	83 c1 08	 add	 ecx, 8
  001fb	e8 00 00 00 00	 call	 ?insert@?$_Tree@V?$_Tmap_traits@EPAU__TAXDETAIL@@U?$less@E@std@@V?$allocator@U?$pair@$$CBEPAU__TAXDETAIL@@@std@@@3@$0A@@std@@@std@@QAE?AU?$pair@Viterator@?$_Tree@V?$_Tmap_traits@EPAU__TAXDETAIL@@U?$less@E@std@@V?$allocator@U?$pair@$$CBEPAU__TAXDETAIL@@@std@@@3@$0A@@std@@@std@@_N@2@ABU?$pair@$$CBEPAU__TAXDETAIL@@@2@@Z ; std::_Tree<std::_Tmap_traits<unsigned char,__TAXDETAIL *,std::less<unsigned char>,std::allocator<std::pair<unsigned char const ,__TAXDETAIL *> >,0> >::insert

; 34   : 
; 35   : #ifdef __DBSERVER
; 36   : 	m_nTaxSecretRoomRate = 0;
; 37   : 	m_nTaxLordRate = 0;
; 38   : 	m_nAdmissionSecretRoomRate = 0;
; 39   : 	m_nAdmissionLordRate = 0;
; 40   : 	m_nDBSaveCount = 1;
; 41   : //	m_strChangedDate.clear();
; 42   : 
; 43   : 	// DBController thread 
; 44   : 	if( !m_taxDBController.CreateDbHandler( MIN(1) ) )	// 1  OnTimer() call.

  00200	68 60 ea 00 00	 push	 60000			; 0000ea60H
  00205	8b cd		 mov	 ecx, ebp
  00207	89 5e 14	 mov	 DWORD PTR [esi+20], ebx
  0020a	89 5e 18	 mov	 DWORD PTR [esi+24], ebx
  0020d	89 5e 1c	 mov	 DWORD PTR [esi+28], ebx
  00210	89 5e 20	 mov	 DWORD PTR [esi+32], ebx
  00213	c7 46 24 01 00
	00 00		 mov	 DWORD PTR [esi+36], 1
  0021a	e8 00 00 00 00	 call	 ?CreateDbHandler@CDbController@@QAEHK@Z ; CDbController::CreateDbHandler
  0021f	85 c0		 test	 eax, eax
  00221	75 0d		 jne	 SHORT $L223375

; 45   : 		Error( "CTax - m_Controller.CreateDbHandler()" );

  00223	68 00 00 00 00	 push	 OFFSET FLAT:??_C@_0CG@PBPHIFHD@CTax?5?9?5m_Controller?4CreateDbHand@
  00228	e8 00 00 00 00	 call	 ?Error@@YAPBDPBDZZ	; Error
  0022d	83 c4 04	 add	 esp, 4
$L223375:

; 46   : #endif // __DBSERVER
; 47   : }

  00230	8b 4c 24 30	 mov	 ecx, DWORD PTR __$EHRec$[esp+60]
  00234	5f		 pop	 edi
  00235	8b c6		 mov	 eax, esi
  00237	5e		 pop	 esi
  00238	5d		 pop	 ebp
  00239	5b		 pop	 ebx
  0023a	64 89 0d 00 00
	00 00		 mov	 DWORD PTR fs:__except_list, ecx
  00241	83 c4 2c	 add	 esp, 44			; 0000002cH
  00244	c3		 ret	 0
_TEXT	ENDS
;	COMDAT text$x
text$x	SEGMENT
$L222842:
  00000	8b 4d d8	 mov	 ecx, DWORD PTR _this$[ebp]
  00003	83 c1 08	 add	 ecx, 8
  00006	e9 00 00 00 00	 jmp	 ??1?$map@EPAU__TAXINFO@@U?$less@E@std@@V?$allocator@U?$pair@$$CBEPAU__TAXINFO@@@std@@@3@@std@@QAE@XZ
$L222843:
  0000b	8b 4d d8	 mov	 ecx, DWORD PTR _this$[ebp]
  0000e	83 c1 28	 add	 ecx, 40			; 00000028H
  00011	e9 00 00 00 00	 jmp	 ??1CLuaBase@@UAE@XZ	; CLuaBase::~CLuaBase
$L222844:
  00016	8b 4d d8	 mov	 ecx, DWORD PTR _this$[ebp]
  00019	83 c1 30	 add	 ecx, 48			; 00000030H
  0001c	e9 00 00 00 00	 jmp	 ??1CTaxDBController@@UAE@XZ ; CTaxDBController::~CTaxDBController
$L222845:
  00021	8b 4d d8	 mov	 ecx, DWORD PTR _this$[ebp]
  00024	83 c1 4c	 add	 ecx, 76			; 0000004cH
  00027	e9 00 00 00 00	 jmp	 ??1?$basic_string@DU?$char_traits@D@std@@V?$allocator@D@2@@std@@QAE@XZ ; std::basic_string<char,std::char_traits<char>,std::allocator<char> >::~basic_string<char,std::char_traits<char>,std::allocator<char> >
$L222846:
  0002c	8b 4d d8	 mov	 ecx, DWORD PTR _this$[ebp]
  0002f	83 c1 68	 add	 ecx, 104		; 00000068H
  00032	e9 00 00 00 00	 jmp	 ??1?$vector@KV?$allocator@K@std@@@std@@QAE@XZ ; std::vector<unsigned long,std::allocator<unsigned long> >::~vector<unsigned long,std::allocator<unsigned long> >
$L222847:
  00037	8b 45 dc	 mov	 eax, DWORD PTR $T222805[ebp]
  0003a	50		 push	 eax
  0003b	e8 00 00 00 00	 call	 ??3@YAXPAX@Z		; operator delete
  00040	59		 pop	 ecx
  00041	c3		 ret	 0
$L222849:
  00042	8b 45 dc	 mov	 eax, DWORD PTR $T222821[ebp]
  00045	50		 push	 eax
  00046	e8 00 00 00 00	 call	 ??3@YAXPAX@Z		; operator delete
  0004b	59		 pop	 ecx
  0004c	c3		 ret	 0
$L222850:
  0004d	8b 45 dc	 mov	 eax, DWORD PTR $T222828[ebp]
  00050	50		 push	 eax
  00051	e8 00 00 00 00	 call	 ??3@YAXPAX@Z		; operator delete
  00056	59		 pop	 ecx
  00057	c3		 ret	 0
__ehhandler$??0CTax@@QAE@XZ:
  00058	b8 00 00 00 00	 mov	 eax, OFFSET FLAT:$T223374
  0005d	e9 00 00 00 00	 jmp	 ___CxxFrameHandler
text$x	ENDS
??0CTax@@QAE@XZ ENDP					; CTax::CTax
PUBLIC	??_G__TAXINFO@@QAEPAXI@Z			; __TAXINFO::`scalar deleting destructor'
; Function compile flags: /Ogty
;	COMDAT ??_G__TAXINFO@@QAEPAXI@Z
_TEXT	SEGMENT
___flags$ = 8						; size = 4
??_G__TAXINFO@@QAEPAXI@Z PROC NEAR			; __TAXINFO::`scalar deleting destructor', COMDAT
; _this$ = ecx
  00000	56		 push	 esi
  00001	8b f1		 mov	 esi, ecx
  00003	e8 00 00 00 00	 call	 ??1__TAXINFO@@QAE@XZ
  00008	f6 44 24 08 01	 test	 BYTE PTR ___flags$[esp], 1
  0000d	74 09		 je	 SHORT $L223382
  0000f	56		 push	 esi
  00010	e8 00 00 00 00	 call	 ??3@YAXPAX@Z		; operator delete
  00015	83 c4 04	 add	 esp, 4
$L223382:
  00018	8b c6		 mov	 eax, esi
  0001a	5e		 pop	 esi
  0001b	c2 04 00	 ret	 4
??_G__TAXINFO@@QAEPAXI@Z ENDP				; __TAXINFO::`scalar deleting destructor'
_TEXT	ENDS
PUBLIC	??1CTax@@QAE@XZ					; CTax::~CTax
EXTRN	?CloseDbHandler@CDbController@@QAEXXZ:NEAR	; CDbController::CloseDbHandler
;	COMDAT xdata$x
; File c:\program files\microsoft visual studio .net 2003\vc7\include\xmemory
xdata$x	SEGMENT
$T224562 DD	0ffffffffH
	DD	FLAT:$L223394
	DD	00H
	DD	FLAT:$L223395
	DD	01H
	DD	FLAT:$L223396
	DD	02H
	DD	FLAT:$L223397
	DD	03H
	DD	FLAT:$L223398
$T224546 DD	019930520H
	DD	05H
	DD	FLAT:$T224562
	DD	2 DUP(00H)
	DD	2 DUP(00H)
; Function compile flags: /Ogty
; File c:\documents and settings\test\mes documents\source\virtuos_v17\build\program\_common\tax.cpp
xdata$x	ENDS
;	COMDAT ??1CTax@@QAE@XZ
_TEXT	SEGMENT
_this$ = -20						; size = 4
$T224517 = -16						; size = 4
$T224145 = -16						; size = 4
__$EHRec$ = -12						; size = 12
??1CTax@@QAE@XZ PROC NEAR				; CTax::~CTax, COMDAT
; _this$ = ecx

; 50   : {

  00000	6a ff		 push	 -1
  00002	68 00 00 00 00	 push	 __ehhandler$??1CTax@@QAE@XZ
  00007	64 a1 00 00 00
	00		 mov	 eax, DWORD PTR fs:__except_list
  0000d	50		 push	 eax
  0000e	64 89 25 00 00
	00 00		 mov	 DWORD PTR fs:__except_list, esp
  00015	83 ec 08	 sub	 esp, 8
  00018	53		 push	 ebx
  00019	55		 push	 ebp
  0001a	56		 push	 esi
  0001b	8b d1		 mov	 edx, ecx
  0001d	57		 push	 edi
  0001e	89 54 24 10	 mov	 DWORD PTR _this$[esp+36], edx

; 51   : 	for( TAXINFOMAP::iterator it = m_mapTaxInfo.begin(); it!=m_mapTaxInfo.end(); it++ )

  00022	8b 42 0c	 mov	 eax, DWORD PTR [edx+12]
  00025	8b 28		 mov	 ebp, DWORD PTR [eax]
  00027	33 db		 xor	 ebx, ebx
  00029	3b e8		 cmp	 ebp, eax
  0002b	c7 44 24 20 04
	00 00 00	 mov	 DWORD PTR __$EHRec$[esp+44], 4
  00033	0f 84 e6 00 00
	00		 je	 $L208247
  00039	8d a4 24 00 00
	00 00		 npad	 7
$L223580:

; 52   : 	{
; 53   : 		__TAXINFO* taxInfo = it->second;

  00040	8b 7d 10	 mov	 edi, DWORD PTR [ebp+16]

; 54   : 		if( taxInfo )

  00043	3b fb		 cmp	 edi, ebx
  00045	0f 84 90 00 00
	00		 je	 $L208246

; 55   : 		{
; 56   : 			for( TAXDETAILMAP::iterator it2=taxInfo->mapTaxDetail.begin(); it2!=taxInfo->mapTaxDetail.end(); it2++ )

  0004b	8b 47 0c	 mov	 eax, DWORD PTR [edi+12]
  0004e	8b 30		 mov	 esi, DWORD PTR [eax]
  00050	3b f0		 cmp	 esi, eax
  00052	74 55		 je	 SHORT $L208256
$L223847:

; 57   : 			{
; 58   : 				__TAXDETAIL* taxDetail = it2->second;

  00054	8b 46 10	 mov	 eax, DWORD PTR [esi+16]

; 59   : 				if( taxDetail )

  00057	3b c3		 cmp	 eax, ebx
  00059	74 09		 je	 SHORT $L208255

; 60   : 					safe_delete( taxDetail );

  0005b	50		 push	 eax
  0005c	e8 00 00 00 00	 call	 ??3@YAXPAX@Z		; operator delete
  00061	83 c4 04	 add	 esp, 4
$L208255:
  00064	38 5e 15	 cmp	 BYTE PTR [esi+21], bl
  00067	75 3b		 jne	 SHORT $L223882
  00069	8b 46 08	 mov	 eax, DWORD PTR [esi+8]
  0006c	38 58 15	 cmp	 BYTE PTR [eax+21], bl
  0006f	75 1a		 jne	 SHORT $L224550
  00071	8b f0		 mov	 esi, eax
  00073	8b 06		 mov	 eax, DWORD PTR [esi]
  00075	38 58 15	 cmp	 BYTE PTR [eax+21], bl
  00078	75 2a		 jne	 SHORT $L223882
  0007a	8d 9b 00 00 00
	00		 npad	 6

; 55   : 		{
; 56   : 			for( TAXDETAILMAP::iterator it2=taxInfo->mapTaxDetail.begin(); it2!=taxInfo->mapTaxDetail.end(); it2++ )

$L223863:
  00080	8b f0		 mov	 esi, eax
  00082	8b 06		 mov	 eax, DWORD PTR [esi]
  00084	38 58 15	 cmp	 BYTE PTR [eax+21], bl
  00087	74 f7		 je	 SHORT $L223863
  00089	eb 19		 jmp	 SHORT $L223882
$L224550:
  0008b	8b 46 04	 mov	 eax, DWORD PTR [esi+4]
  0008e	38 58 15	 cmp	 BYTE PTR [eax+21], bl
  00091	75 0f		 jne	 SHORT $L223885
$L223884:
  00093	3b 70 08	 cmp	 esi, DWORD PTR [eax+8]
  00096	75 0a		 jne	 SHORT $L223885
  00098	8b f0		 mov	 esi, eax
  0009a	8b 40 04	 mov	 eax, DWORD PTR [eax+4]
  0009d	38 58 15	 cmp	 BYTE PTR [eax+21], bl
  000a0	74 f1		 je	 SHORT $L223884
$L223885:
  000a2	8b f0		 mov	 esi, eax
$L223882:
  000a4	3b 77 0c	 cmp	 esi, DWORD PTR [edi+12]
  000a7	75 ab		 jne	 SHORT $L223847
$L208256:

; 61   : 			}
; 62   : 			safe_delete( taxInfo );

  000a9	8b 47 0c	 mov	 eax, DWORD PTR [edi+12]
  000ac	8b 08		 mov	 ecx, DWORD PTR [eax]
  000ae	8d 77 08	 lea	 esi, DWORD PTR [edi+8]
  000b1	50		 push	 eax
  000b2	51		 push	 ecx
  000b3	8d 44 24 1c	 lea	 eax, DWORD PTR $T224145[esp+44]
  000b7	50		 push	 eax
  000b8	8b ce		 mov	 ecx, esi
  000ba	e8 00 00 00 00	 call	 ?erase@?$_Tree@V?$_Tmap_traits@EPAU__TAXDETAIL@@U?$less@E@std@@V?$allocator@U?$pair@$$CBEPAU__TAXDETAIL@@@std@@@3@$0A@@std@@@std@@QAE?AViterator@12@V312@0@Z ; std::_Tree<std::_Tmap_traits<unsigned char,__TAXDETAIL *,std::less<unsigned char>,std::allocator<std::pair<unsigned char const ,__TAXDETAIL *> >,0> >::erase
  000bf	8b 46 04	 mov	 eax, DWORD PTR [esi+4]
  000c2	50		 push	 eax
  000c3	e8 00 00 00 00	 call	 ??3@YAXPAX@Z		; operator delete
  000c8	57		 push	 edi
  000c9	89 5e 04	 mov	 DWORD PTR [esi+4], ebx
  000cc	89 5e 08	 mov	 DWORD PTR [esi+8], ebx
  000cf	e8 00 00 00 00	 call	 ??3@YAXPAX@Z		; operator delete
  000d4	8b 54 24 18	 mov	 edx, DWORD PTR _this$[esp+44]
  000d8	83 c4 08	 add	 esp, 8
$L208246:
  000db	38 5d 15	 cmp	 BYTE PTR [ebp+21], bl
  000de	75 36		 jne	 SHORT $L223588
  000e0	8b 4d 08	 mov	 ecx, DWORD PTR [ebp+8]
  000e3	38 59 15	 cmp	 BYTE PTR [ecx+21], bl
  000e6	75 15		 jne	 SHORT $L224552
  000e8	8b 01		 mov	 eax, DWORD PTR [ecx]
  000ea	38 58 15	 cmp	 BYTE PTR [eax+21], bl
  000ed	75 0a		 jne	 SHORT $L223603
  000ef	90		 npad	 1

; 51   : 	for( TAXINFOMAP::iterator it = m_mapTaxInfo.begin(); it!=m_mapTaxInfo.end(); it++ )

$L223602:
  000f0	8b c8		 mov	 ecx, eax
  000f2	8b 01		 mov	 eax, DWORD PTR [ecx]
  000f4	38 58 15	 cmp	 BYTE PTR [eax+21], bl
  000f7	74 f7		 je	 SHORT $L223602
$L223603:
  000f9	8b e9		 mov	 ebp, ecx
  000fb	eb 19		 jmp	 SHORT $L223588
$L224552:
  000fd	8b 45 04	 mov	 eax, DWORD PTR [ebp+4]
  00100	38 58 15	 cmp	 BYTE PTR [eax+21], bl
  00103	75 0f		 jne	 SHORT $L223591
$L223590:
  00105	3b 68 08	 cmp	 ebp, DWORD PTR [eax+8]
  00108	75 0a		 jne	 SHORT $L223591
  0010a	8b e8		 mov	 ebp, eax
  0010c	8b 40 04	 mov	 eax, DWORD PTR [eax+4]
  0010f	38 58 15	 cmp	 BYTE PTR [eax+21], bl
  00112	74 f1		 je	 SHORT $L223590
$L223591:
  00114	8b e8		 mov	 ebp, eax
$L223588:
  00116	3b 6a 0c	 cmp	 ebp, DWORD PTR [edx+12]
  00119	0f 85 21 ff ff
	ff		 jne	 $L223580
$L208247:

; 63   : 		}
; 64   : 	}
; 65   : 
; 66   : 	m_mapTaxInfo.clear();

  0011f	8b 4a 0c	 mov	 ecx, DWORD PTR [edx+12]
  00122	8b 69 04	 mov	 ebp, DWORD PTR [ecx+4]
  00125	38 5d 15	 cmp	 BYTE PTR [ebp+21], bl
  00128	8d 72 08	 lea	 esi, DWORD PTR [edx+8]
  0012b	8b fd		 mov	 edi, ebp
  0012d	75 24		 jne	 SHORT $L224243
  0012f	90		 npad	 1
$L224241:
  00130	8b 57 08	 mov	 edx, DWORD PTR [edi+8]
  00133	52		 push	 edx
  00134	8b ce		 mov	 ecx, esi
  00136	e8 00 00 00 00	 call	 ?_Erase@?$_Tree@V?$_Tmap_traits@EPAU__TAXINFO@@U?$less@E@std@@V?$allocator@U?$pair@$$CBEPAU__TAXINFO@@@std@@@3@$0A@@std@@@std@@IAEXPAU_Node@?$_Tree_nod@V?$_Tmap_traits@EPAU__TAXINFO@@U?$less@E@std@@V?$allocator@U?$pair@$$CBEPAU__TAXINFO@@@std@@@3@$0A@@std@@@2@@Z ; std::_Tree<std::_Tmap_traits<unsigned char,__TAXINFO *,std::less<unsigned char>,std::allocator<std::pair<unsigned char const ,__TAXINFO *> >,0> >::_Erase
  0013b	8b 3f		 mov	 edi, DWORD PTR [edi]
  0013d	55		 push	 ebp
  0013e	e8 00 00 00 00	 call	 ??3@YAXPAX@Z		; operator delete
  00143	8a 47 15	 mov	 al, BYTE PTR [edi+21]
  00146	83 c4 04	 add	 esp, 4
  00149	3a c3		 cmp	 al, bl
  0014b	8b ef		 mov	 ebp, edi
  0014d	74 e1		 je	 SHORT $L224241
  0014f	8b 54 24 10	 mov	 edx, DWORD PTR _this$[esp+36]
$L224243:
  00153	8b 46 04	 mov	 eax, DWORD PTR [esi+4]
  00156	89 40 04	 mov	 DWORD PTR [eax+4], eax
  00159	8b 46 04	 mov	 eax, DWORD PTR [esi+4]
  0015c	89 5e 08	 mov	 DWORD PTR [esi+8], ebx
  0015f	89 00		 mov	 DWORD PTR [eax], eax
  00161	8b 46 04	 mov	 eax, DWORD PTR [esi+4]

; 67   : 
; 68   : #ifdef __DBSERVER
; 69   : 	m_taxDBController.CloseDbHandler();

  00164	8d 7a 30	 lea	 edi, DWORD PTR [edx+48]
  00167	8b cf		 mov	 ecx, edi
  00169	89 40 08	 mov	 DWORD PTR [eax+8], eax
  0016c	e8 00 00 00 00	 call	 ?CloseDbHandler@CDbController@@QAEXXZ ; CDbController::CloseDbHandler

; 70   : #endif // __DBSERVER
; 71   : #ifdef __OCCUPATION_SHOPITEM
; 72   : 	m_vecdwOccupationShopItem.clear();

  00171	8b 6c 24 10	 mov	 ebp, DWORD PTR _this$[esp+36]
  00175	8b 45 6c	 mov	 eax, DWORD PTR [ebp+108]
  00178	3b c3		 cmp	 eax, ebx
  0017a	74 09		 je	 SHORT $L224282
  0017c	50		 push	 eax
  0017d	e8 00 00 00 00	 call	 ??3@YAXPAX@Z		; operator delete
  00182	83 c4 04	 add	 esp, 4
$L224282:

; 73   : #endif // __OCCUPATION_SHOPITEM
; 74   : }

  00185	8b c3		 mov	 eax, ebx
  00187	3b c3		 cmp	 eax, ebx
  00189	89 5d 6c	 mov	 DWORD PTR [ebp+108], ebx
  0018c	89 5d 70	 mov	 DWORD PTR [ebp+112], ebx
  0018f	89 5d 74	 mov	 DWORD PTR [ebp+116], ebx
  00192	74 09		 je	 SHORT $L224301
  00194	50		 push	 eax
  00195	e8 00 00 00 00	 call	 ??3@YAXPAX@Z		; operator delete
  0019a	83 c4 04	 add	 esp, 4
$L224301:
  0019d	89 5d 6c	 mov	 DWORD PTR [ebp+108], ebx
  001a0	89 5d 70	 mov	 DWORD PTR [ebp+112], ebx
  001a3	89 5d 74	 mov	 DWORD PTR [ebp+116], ebx
  001a6	83 7d 64 10	 cmp	 DWORD PTR [ebp+100], 16	; 00000010H
  001aa	72 0c		 jb	 SHORT $L224362
  001ac	8b 45 50	 mov	 eax, DWORD PTR [ebp+80]
  001af	50		 push	 eax
  001b0	e8 00 00 00 00	 call	 ??3@YAXPAX@Z		; operator delete
  001b5	83 c4 04	 add	 esp, 4
$L224362:
  001b8	c7 45 64 0f 00
	00 00		 mov	 DWORD PTR [ebp+100], 15	; 0000000fH
  001bf	89 5d 60	 mov	 DWORD PTR [ebp+96], ebx
  001c2	88 5d 50	 mov	 BYTE PTR [ebp+80], bl
  001c5	8b cf		 mov	 ecx, edi
  001c7	c6 44 24 20 01	 mov	 BYTE PTR __$EHRec$[esp+44], 1
  001cc	c7 07 00 00 00
	00		 mov	 DWORD PTR [edi], OFFSET FLAT:??_7CTaxDBController@@6B@
  001d2	e8 00 00 00 00	 call	 ??1CDbController@@UAE@XZ ; CDbController::~CDbController
  001d7	8d 4d 28	 lea	 ecx, DWORD PTR [ebp+40]
  001da	88 5c 24 20	 mov	 BYTE PTR __$EHRec$[esp+44], bl
  001de	e8 00 00 00 00	 call	 ??1CLuaBase@@UAE@XZ	; CLuaBase::~CLuaBase
  001e3	8b 46 04	 mov	 eax, DWORD PTR [esi+4]
  001e6	8b 08		 mov	 ecx, DWORD PTR [eax]
  001e8	50		 push	 eax
  001e9	51		 push	 ecx
  001ea	8d 44 24 1c	 lea	 eax, DWORD PTR $T224517[esp+44]
  001ee	50		 push	 eax
  001ef	8b ce		 mov	 ecx, esi
  001f1	c7 44 24 2c ff
	ff ff ff	 mov	 DWORD PTR __$EHRec$[esp+56], -1
  001f9	e8 00 00 00 00	 call	 ?erase@?$_Tree@V?$_Tmap_traits@EPAU__TAXINFO@@U?$less@E@std@@V?$allocator@U?$pair@$$CBEPAU__TAXINFO@@@std@@@3@$0A@@std@@@std@@QAE?AViterator@12@V312@0@Z ; std::_Tree<std::_Tmap_traits<unsigned char,__TAXINFO *,std::less<unsigned char>,std::allocator<std::pair<unsigned char const ,__TAXINFO *> >,0> >::erase
  001fe	8b 4e 04	 mov	 ecx, DWORD PTR [esi+4]
  00201	51		 push	 ecx
  00202	e8 00 00 00 00	 call	 ??3@YAXPAX@Z		; operator delete
  00207	8b 4c 24 1c	 mov	 ecx, DWORD PTR __$EHRec$[esp+40]
  0020b	83 c4 04	 add	 esp, 4
  0020e	5f		 pop	 edi
  0020f	89 5e 04	 mov	 DWORD PTR [esi+4], ebx
  00212	89 5e 08	 mov	 DWORD PTR [esi+8], ebx
  00215	5e		 pop	 esi
  00216	5d		 pop	 ebp
  00217	5b		 pop	 ebx
  00218	64 89 0d 00 00
	00 00		 mov	 DWORD PTR fs:__except_list, ecx
  0021f	83 c4 14	 add	 esp, 20			; 00000014H
  00222	c3		 ret	 0
_TEXT	ENDS
;	COMDAT text$x
text$x	SEGMENT
$L223394:
  00000	8b 4d ec	 mov	 ecx, DWORD PTR _this$[ebp]
  00003	83 c1 08	 add	 ecx, 8
  00006	e9 00 00 00 00	 jmp	 ??1?$map@EPAU__TAXINFO@@U?$less@E@std@@V?$allocator@U?$pair@$$CBEPAU__TAXINFO@@@std@@@3@@std@@QAE@XZ
$L223395:
  0000b	8b 4d ec	 mov	 ecx, DWORD PTR _this$[ebp]
  0000e	83 c1 28	 add	 ecx, 40			; 00000028H
  00011	e9 00 00 00 00	 jmp	 ??1CLuaBase@@UAE@XZ	; CLuaBase::~CLuaBase
$L223396:
  00016	8b 4d ec	 mov	 ecx, DWORD PTR _this$[ebp]
  00019	83 c1 30	 add	 ecx, 48			; 00000030H
  0001c	e9 00 00 00 00	 jmp	 ??1CTaxDBController@@UAE@XZ ; CTaxDBController::~CTaxDBController
$L223397:
  00021	8b 4d ec	 mov	 ecx, DWORD PTR _this$[ebp]
  00024	83 c1 4c	 add	 ecx, 76			; 0000004cH
  00027	e9 00 00 00 00	 jmp	 ??1?$basic_string@DU?$char_traits@D@std@@V?$allocator@D@2@@std@@QAE@XZ ; std::basic_string<char,std::char_traits<char>,std::allocator<char> >::~basic_string<char,std::char_traits<char>,std::allocator<char> >
$L223398:
  0002c	8b 4d ec	 mov	 ecx, DWORD PTR _this$[ebp]
  0002f	83 c1 68	 add	 ecx, 104		; 00000068H
  00032	e9 00 00 00 00	 jmp	 ??1?$vector@KV?$allocator@K@std@@@std@@QAE@XZ ; std::vector<unsigned long,std::allocator<unsigned long> >::~vector<unsigned long,std::allocator<unsigned long> >
__ehhandler$??1CTax@@QAE@XZ:
  00037	b8 00 00 00 00	 mov	 eax, OFFSET FLAT:$T224546
  0003c	e9 00 00 00 00	 jmp	 ___CxxFrameHandler
text$x	ENDS
??1CTax@@QAE@XZ ENDP					; CTax::~CTax
PUBLIC	?GetInstance@CTax@@SAPAV1@XZ			; CTax::GetInstance
EXTRN	_atexit:NEAR
;	COMDAT ?sTax@?1??GetInstance@CTax@@SAPAV2@XZ@4V2@A
_BSS	SEGMENT
?sTax@?1??GetInstance@CTax@@SAPAV2@XZ@4V2@A DB 078H DUP (?) ; `CTax::GetInstance'::`2'::sTax
_BSS	ENDS
;	COMDAT ?$S1@?1??GetInstance@CTax@@SAPAV2@XZ@4IA
_BSS	SEGMENT
?$S1@?1??GetInstance@CTax@@SAPAV2@XZ@4IA DD 01H DUP (?)	; `CTax::GetInstance'::`2'::$S1
_BSS	ENDS
;	COMDAT xdata$x
xdata$x	SEGMENT
$T224572 DD	0ffffffffH
	DD	FLAT:$L224567
$T224569 DD	019930520H
	DD	01H
	DD	FLAT:$T224572
	DD	2 DUP(00H)
	DD	2 DUP(00H)
; Function compile flags: /Ogty
xdata$x	ENDS
;	COMDAT ?GetInstance@CTax@@SAPAV1@XZ
_TEXT	SEGMENT
__$EHRec$ = -12						; size = 12
?GetInstance@CTax@@SAPAV1@XZ PROC NEAR			; CTax::GetInstance, COMDAT

; 78   : {

  00000	64 a1 00 00 00
	00		 mov	 eax, DWORD PTR fs:__except_list

; 79   : 	static CTax sTax;

  00006	8a 0d 00 00 00
	00		 mov	 cl, BYTE PTR ?$S1@?1??GetInstance@CTax@@SAPAV2@XZ@4IA
  0000c	6a ff		 push	 -1
  0000e	68 00 00 00 00	 push	 __ehhandler$?GetInstance@CTax@@SAPAV1@XZ
  00013	50		 push	 eax
  00014	b8 01 00 00 00	 mov	 eax, 1
  00019	84 c8		 test	 cl, al
  0001b	64 89 25 00 00
	00 00		 mov	 DWORD PTR fs:__except_list, esp
  00022	75 25		 jne	 SHORT $L224570
  00024	09 05 00 00 00
	00		 or	 DWORD PTR ?$S1@?1??GetInstance@CTax@@SAPAV2@XZ@4IA, eax
  0002a	b9 00 00 00 00	 mov	 ecx, OFFSET FLAT:?sTax@?1??GetInstance@CTax@@SAPAV2@XZ@4V2@A
  0002f	c7 44 24 08 00
	00 00 00	 mov	 DWORD PTR __$EHRec$[esp+20], 0
  00037	e8 00 00 00 00	 call	 ??0CTax@@QAE@XZ		; CTax::CTax
  0003c	68 00 00 00 00	 push	 OFFSET FLAT:_$E2
  00041	e8 00 00 00 00	 call	 _atexit
  00046	83 c4 04	 add	 esp, 4
$L224570:

; 80   : 	return &sTax;
; 81   : }

  00049	8b 0c 24	 mov	 ecx, DWORD PTR __$EHRec$[esp+12]
  0004c	b8 00 00 00 00	 mov	 eax, OFFSET FLAT:?sTax@?1??GetInstance@CTax@@SAPAV2@XZ@4V2@A
  00051	64 89 0d 00 00
	00 00		 mov	 DWORD PTR fs:__except_list, ecx
  00058	83 c4 0c	 add	 esp, 12			; 0000000cH
  0005b	c3		 ret	 0
_TEXT	ENDS
;	COMDAT text$x
text$x	SEGMENT
$L224567:
  00000	a1 00 00 00 00	 mov	 eax, DWORD PTR ?$S1@?1??GetInstance@CTax@@SAPAV2@XZ@4IA
  00005	83 e0 fe	 and	 eax, -2			; fffffffeH
  00008	a3 00 00 00 00	 mov	 DWORD PTR ?$S1@?1??GetInstance@CTax@@SAPAV2@XZ@4IA, eax
  0000d	c3		 ret	 0
__ehhandler$?GetInstance@CTax@@SAPAV1@XZ:
  0000e	b8 00 00 00 00	 mov	 eax, OFFSET FLAT:$T224569
  00013	e9 00 00 00 00	 jmp	 ___CxxFrameHandler
text$x	ENDS
?GetInstance@CTax@@SAPAV1@XZ ENDP			; CTax::GetInstance
; Function compile flags: /Ogty
;	COMDAT ?OnTimer@CTaxDBController@@UAEXXZ
_TEXT	SEGMENT
?OnTimer@CTaxDBController@@UAEXXZ PROC NEAR		; CTaxDBController::OnTimer, COMDAT
; _this$ = ecx

; 649  : 	BOOL bPay = CTax::GetInstance()->CheckPayTime();

  00000	e8 00 00 00 00	 call	 ?GetInstance@CTax@@SAPAV1@XZ ; CTax::GetInstance
  00005	8b c8		 mov	 ecx, eax
  00007	e8 00 00 00 00	 call	 ?CheckPayTime@CTax@@QAEHXZ ; CTax::CheckPayTime

; 650  : 	CTax::GetInstance()->CheckChangeTime( bPay );

  0000c	6a 00		 push	 0
  0000e	50		 push	 eax
  0000f	e8 00 00 00 00	 call	 ?GetInstance@CTax@@SAPAV1@XZ ; CTax::GetInstance
  00014	8b c8		 mov	 ecx, eax
  00016	e8 00 00 00 00	 call	 ?CheckChangeTime@CTax@@QAEXHH@Z ; CTax::CheckChangeTime

; 651  : }

  0001b	c3		 ret	 0
?OnTimer@CTaxDBController@@UAEXXZ ENDP			; CTaxDBController::OnTimer
_TEXT	ENDS
PUBLIC	?PayTaxToPost@CTaxDBController@@AAEXXZ		; CTaxDBController::PayTaxToPost
PUBLIC	??_C@_09GBAEEKDE@?$CFs?0?5?$CFd?7?$CFs?$AA@	; `string'
PUBLIC	??_C@_0DF@PKLOAGED@TAX_INFO_STR?5?8S3?8?0?5?8?$CF02d?8?0?50?0?50?0@ ; `string'
PUBLIC	??_C@_0L@FONFFEJF@m_idPlayer?$AA@		; `string'
PUBLIC	??_C@_0FM@HFNCOCNE@?2Documents?5and?5Settings?2test?2Mes@ ; `string'
EXTRN	??0CMail@@QAE@XZ:NEAR				; CMail::CMail
EXTRN	?g_appInfo@@3UAppInfo@@A:QWORD			; g_appInfo
EXTRN	?Exec@CQuery@@QAEHPBD@Z:NEAR			; CQuery::Exec
EXTRN	?Fetch@CQuery@@QAEHXZ:NEAR			; CQuery::Fetch
EXTRN	?WriteLog@@YAXPBDZZ:NEAR			; WriteLog
EXTRN	?GetInt@CQuery@@QAEHPAD@Z:NEAR			; CQuery::GetInt
EXTRN	?Post@post@@YAXKPAVCMail@@PAVCQuery@@@Z:NEAR	; post::Post
EXTRN	__chkstk:NEAR
EXTRN	___security_cookie:DWORD
EXTRN	@__security_check_cookie@4:NEAR
EXTRN	_sprintf:NEAR
EXTRN	?GetInstance@CContinent@@SAPAV1@XZ:NEAR		; CContinent::GetInstance
EXTRN	?GetContinentName@CContinent@@QAE?AV?$CStringT@DV?$StrTraitMFC@DV?$ChTraitsCRT@D@ATL@@@@@ATL@@E@Z:NEAR ; CContinent::GetContinentName
EXTRN	??0CItemElem@@QAE@XZ:NEAR			; CItemElem::CItemElem
EXTRN	?prj@@3VCProject@@A:BYTE			; prj
;	COMDAT xdata$x
; File c:\documents and settings\test\mes documents\source\virtuos_v17\build\program\_network\objects\obj.h
xdata$x	SEGMENT
$T225601 DD	0ffffffffH
	DD	FLAT:$L224599
	DD	0ffffffffH
	DD	FLAT:$L224603
$T225567 DD	019930520H
	DD	02H
	DD	FLAT:$T225601
	DD	2 DUP(00H)
	DD	2 DUP(00H)
xdata$x	ENDS
;	COMDAT ??_C@_0DF@PKLOAGED@TAX_INFO_STR?5?8S3?8?0?5?8?$CF02d?8?0?50?0?50?0@
CONST	SEGMENT
??_C@_0DF@PKLOAGED@TAX_INFO_STR?5?8S3?8?0?5?8?$CF02d?8?0?50?0?50?0@ DB 'T'
	DB	'AX_INFO_STR ''S3'', ''%02d'', 0, 0, ''%07d'', ''0'', 0, ''0'''
	DB	00H						; `string'
CONST	ENDS
;	COMDAT ??_C@_0L@FONFFEJF@m_idPlayer?$AA@
CONST	SEGMENT
??_C@_0L@FONFFEJF@m_idPlayer?$AA@ DB 'm_idPlayer', 00H	; `string'
CONST	ENDS
;	COMDAT ??_C@_0FM@HFNCOCNE@?2Documents?5and?5Settings?2test?2Mes@
CONST	SEGMENT
??_C@_0FM@HFNCOCNE@?2Documents?5and?5Settings?2test?2Mes@ DB '\Documents '
	DB	'and Settings\test\Mes documents\Source\Virtuos_v17\Build\Prog'
	DB	'ram\_Common\Tax.cpp', 00H			; `string'
CONST	ENDS
;	COMDAT ??_C@_09GBAEEKDE@?$CFs?0?5?$CFd?7?$CFs?$AA@
CONST	SEGMENT
??_C@_09GBAEEKDE@?$CFs?0?5?$CFd?7?$CFs?$AA@ DB '%s, %d', 09H, '%s', 00H ; `string'
; Function compile flags: /Ogty
; File c:\documents and settings\test\mes documents\source\virtuos_v17\build\program\_common\tax.cpp
CONST	ENDS
;	COMDAT ?PayTaxToPost@CTaxDBController@@AAEXXZ
_TEXT	SEGMENT
_it$208567 = -41140					; size = 4
_it2$208587 = -41136					; size = 4
_pQuery$ = -41132					; size = 4
_dwId$208575 = -41128					; size = 4
_cTime$208614 = -41124					; size = 8
$T224590 = -41116					; size = 4
_tax$ = -41112						; size = 4
$T224596 = -41108					; size = 4
$T224587 = -41108					; size = 4
_taxDetail$208594 = -41104				; size = 4
$T224591 = -41100					; size = 4
$T224592 = -41096					; size = 4
_taxInfo$208574 = -41092				; size = 4
_strDate$208613 = -41088				; size = 100
_szQuery$208577 = -40984				; size = 40960
__$ArrayPad$ = -20					; size = 4
__$EHRec$ = -12						; size = 12
__$ReturnAddr$ = 4					; size = 4
?PayTaxToPost@CTaxDBController@@AAEXXZ PROC NEAR	; CTaxDBController::PayTaxToPost, COMDAT
; _this$ = ecx

; 654  : {

  00000	55		 push	 ebp
  00001	8b ec		 mov	 ebp, esp
  00003	83 e4 f8	 and	 esp, -8			; fffffff8H
  00006	6a ff		 push	 -1
  00008	68 00 00 00 00	 push	 __ehhandler$?PayTaxToPost@CTaxDBController@@AAEXXZ
  0000d	64 a1 00 00 00
	00		 mov	 eax, DWORD PTR fs:__except_list
  00013	50		 push	 eax
  00014	64 89 25 00 00
	00 00		 mov	 DWORD PTR fs:__except_list, esp
  0001b	51		 push	 ecx
  0001c	b8 a4 a0 00 00	 mov	 eax, 41124		; 0000a0a4H
  00021	e8 00 00 00 00	 call	 __chkstk
  00026	a1 00 00 00 00	 mov	 eax, DWORD PTR ___security_cookie
  0002b	53		 push	 ebx
  0002c	56		 push	 esi
  0002d	33 c5		 xor	 eax, ebp
  0002f	57		 push	 edi
  00030	89 84 24 ac a0
	00 00		 mov	 DWORD PTR __$ArrayPad$[esp+41152], eax
  00037	8b f1		 mov	 esi, ecx

; 655  : 	CTax* tax = CTax::GetInstance();

  00039	e8 00 00 00 00	 call	 ?GetInstance@CTax@@SAPAV1@XZ ; CTax::GetInstance

; 656  : 	CQuery* pQuery = GetQueryObject();

  0003e	8b 4e 0c	 mov	 ecx, DWORD PTR [esi+12]
  00041	89 44 24 28	 mov	 DWORD PTR _tax$[esp+41152], eax

; 657  : 	for( TAXINFOMAP::iterator it=tax->m_mapTaxInfo.begin(); it!=tax->m_mapTaxInfo.end(); it++ )

  00045	8b 40 0c	 mov	 eax, DWORD PTR [eax+12]
  00048	8b 30		 mov	 esi, DWORD PTR [eax]
  0004a	3b f0		 cmp	 esi, eax
  0004c	89 4c 24 14	 mov	 DWORD PTR _pQuery$[esp+41152], ecx
  00050	89 74 24 0c	 mov	 DWORD PTR _it$208567[esp+41152], esi
  00054	0f 84 cf 04 00
	00		 je	 $L208573
  0005a	8d 9b 00 00 00
	00		 npad	 6
$L224787:

; 658  : 	{
; 659  : 		__TAXINFO* taxInfo = it->second;

  00060	8b 5e 10	 mov	 ebx, DWORD PTR [esi+16]

; 660  : 
; 661  : 		DWORD dwId = taxInfo->dwId;
; 662  : 
; 663  : 		if( ( it->first != CONT_ALL ) && ( dwId != NULL_ID ) )

  00063	80 7e 0c ff	 cmp	 BYTE PTR [esi+12], 255	; 000000ffH
  00067	8b 13		 mov	 edx, DWORD PTR [ebx]
  00069	89 5c 24 3c	 mov	 DWORD PTR _taxInfo$208574[esp+41152], ebx
  0006d	89 54 24 18	 mov	 DWORD PTR _dwId$208575[esp+41152], edx
  00071	0f 84 8e 00 00
	00		 je	 $L208584
  00077	83 fa ff	 cmp	 edx, -1
  0007a	0f 84 42 04 00
	00		 je	 $L208572

; 664  : 		{
; 665  : 			char szQuery[QUERY_SIZE] = {0,};

  00080	33 c0		 xor	 eax, eax
  00082	c6 84 24 a8 00
	00 00 00	 mov	 BYTE PTR _szQuery$208577[esp+41152], 0
  0008a	b9 ff 27 00 00	 mov	 ecx, 10239		; 000027ffH
  0008f	8d bc 24 a9 00
	00 00		 lea	 edi, DWORD PTR _szQuery$208577[esp+41153]
  00096	f3 ab		 rep stosd

; 666  : 			sprintf( szQuery, "TAX_INFO_STR 'S3', '%02d', 0, 0, '%07d', '0', 0, '0'", g_appInfo.dwSys, dwId );

  00098	52		 push	 edx
  00099	8b 15 00 00 00
	00		 mov	 edx, DWORD PTR ?g_appInfo@@3UAppInfo@@A
  0009f	66 ab		 stosw
  000a1	52		 push	 edx
  000a2	aa		 stosb
  000a3	8d 84 24 b0 00
	00 00		 lea	 eax, DWORD PTR _szQuery$208577[esp+41160]
  000aa	68 00 00 00 00	 push	 OFFSET FLAT:??_C@_0DF@PKLOAGED@TAX_INFO_STR?5?8S3?8?0?5?8?$CF02d?8?0?50?0?50?0@
  000af	50		 push	 eax
  000b0	e8 00 00 00 00	 call	 _sprintf

; 667  : 			if( pQuery->Exec( szQuery ) )

  000b5	8b 7c 24 24	 mov	 edi, DWORD PTR _pQuery$[esp+41168]
  000b9	83 c4 10	 add	 esp, 16			; 00000010H
  000bc	8d 8c 24 a8 00
	00 00		 lea	 ecx, DWORD PTR _szQuery$208577[esp+41152]
  000c3	51		 push	 ecx
  000c4	8b cf		 mov	 ecx, edi
  000c6	e8 00 00 00 00	 call	 ?Exec@CQuery@@QAEHPBD@Z	; CQuery::Exec
  000cb	85 c0		 test	 eax, eax
  000cd	74 52		 je	 SHORT $L208579

; 668  : 			{ 
; 669  : 				if( pQuery->Fetch() )

  000cf	8b cf		 mov	 ecx, edi
  000d1	e8 00 00 00 00	 call	 ?Fetch@CQuery@@QAEHXZ	; CQuery::Fetch
  000d6	85 c0		 test	 eax, eax
  000d8	0f 84 e4 03 00
	00		 je	 $L208572

; 670  : 					dwId = static_cast<DWORD>( pQuery->GetInt( "m_idPlayer" ) <= CQuery::CQUERYNULL ? NULL_ID : pQuery->GetInt( "m_idPlayer" ) );

  000de	68 00 00 00 00	 push	 OFFSET FLAT:??_C@_0L@FONFFEJF@m_idPlayer?$AA@
  000e3	8b cf		 mov	 ecx, edi
  000e5	e8 00 00 00 00	 call	 ?GetInt@CQuery@@QAEHPAD@Z ; CQuery::GetInt
  000ea	83 f8 9c	 cmp	 eax, -100		; ffffff9cH
  000ed	0f 8e cf 03 00
	00		 jle	 $L208572
  000f3	68 00 00 00 00	 push	 OFFSET FLAT:??_C@_0L@FONFFEJF@m_idPlayer?$AA@
  000f8	8b cf		 mov	 ecx, edi
  000fa	e8 00 00 00 00	 call	 ?GetInt@CQuery@@QAEHPAD@Z ; CQuery::GetInt
  000ff	89 44 24 18	 mov	 DWORD PTR _dwId$208575[esp+41152], eax

; 671  : 				else

  00103	8b d0		 mov	 edx, eax
$L208584:

; 677  : 				dwId = NULL_ID;
; 678  : 			}
; 679  : 		}
; 680  : 
; 681  : 		if( dwId == NULL_ID )

  00105	83 fa ff	 cmp	 edx, -1
  00108	0f 84 b4 03 00
	00		 je	 $L208572

; 682  : 			continue;
; 683  : 
; 684  : 		for( TAXDETAILMAP::iterator it2=taxInfo->mapTaxDetail.begin(); it2!=taxInfo->mapTaxDetail.end(); it2++ )

  0010e	8b 43 0c	 mov	 eax, DWORD PTR [ebx+12]
  00111	8b 38		 mov	 edi, DWORD PTR [eax]
  00113	3b f8		 cmp	 edi, eax
  00115	89 7c 24 10	 mov	 DWORD PTR _it2$208587[esp+41152], edi
  00119	0f 84 a3 03 00
	00		 je	 $L208572
  0011f	eb 2f		 jmp	 SHORT $L225079
$L208579:

; 672  : 					dwId = NULL_ID;
; 673  : 			}
; 674  : 			else
; 675  : 			{
; 676  : 				WriteLog( "%s, %d\t%s", __FILE__, __LINE__, szQuery );

  00121	8d 94 24 a8 00
	00 00		 lea	 edx, DWORD PTR _szQuery$208577[esp+41152]
  00128	52		 push	 edx
  00129	68 a4 02 00 00	 push	 676			; 000002a4H
  0012e	68 00 00 00 00	 push	 OFFSET FLAT:??_C@_0FM@HFNCOCNE@?2Documents?5and?5Settings?2test?2Mes@
  00133	68 00 00 00 00	 push	 OFFSET FLAT:??_C@_09GBAEEKDE@?$CFs?0?5?$CFd?7?$CFs?$AA@
  00138	e8 00 00 00 00	 call	 ?WriteLog@@YAXPBDZZ	; WriteLog
  0013d	83 c4 10	 add	 esp, 16			; 00000010H

; 677  : 				dwId = NULL_ID;
; 678  : 			}
; 679  : 		}
; 680  : 
; 681  : 		if( dwId == NULL_ID )

  00140	e9 7d 03 00 00	 jmp	 $L208572
$L225586:

; 682  : 			continue;
; 683  : 
; 684  : 		for( TAXDETAILMAP::iterator it2=taxInfo->mapTaxDetail.begin(); it2!=taxInfo->mapTaxDetail.end(); it2++ )

  00145	8b 7c 24 10	 mov	 edi, DWORD PTR _it2$208587[esp+41152]
  00149	8d a4 24 00 00
	00 00		 npad	 7
$L225079:

; 685  : 		{
; 686  : 			__TAXDETAIL* taxDetail = it2->second;

  00150	8b 5f 10	 mov	 ebx, DWORD PTR [edi+16]

; 687  : 
; 688  : 			CMail* pMail = new CMail;

  00153	68 40 01 00 00	 push	 320			; 00000140H
  00158	89 5c 24 34	 mov	 DWORD PTR _taxDetail$208594[esp+41156], ebx
  0015c	e8 00 00 00 00	 call	 ??2@YAPAXI@Z		; operator new
  00161	83 c4 04	 add	 esp, 4
  00164	89 44 24 2c	 mov	 DWORD PTR $T224587[esp+41152], eax
  00168	33 f6		 xor	 esi, esi
  0016a	3b c6		 cmp	 eax, esi
  0016c	89 b4 24 bc a0
	00 00		 mov	 DWORD PTR __$EHRec$[esp+41160], esi
  00173	74 09		 je	 SHORT $L224589
  00175	8b c8		 mov	 ecx, eax
  00177	e8 00 00 00 00	 call	 ??0CMail@@QAE@XZ	; CMail::CMail
  0017c	8b f0		 mov	 esi, eax
$L224589:

; 689  : 			pMail->m_tmCreate	= ::time_null();

  0017e	6a 00		 push	 0
  00180	c7 84 24 c0 a0
	00 00 ff ff ff
	ff		 mov	 DWORD PTR __$EHRec$[esp+41164], -1
  0018b	e8 00 00 00 00	 call	 _time
  00190	89 46 14	 mov	 DWORD PTR [esi+20], eax

; 690  : 			pMail->m_idSender	= 0;	//

  00193	c7 46 08 00 00
	00 00		 mov	 DWORD PTR [esi+8], 0

; 691  : 			pMail->m_nGold		= taxDetail->nTaxGold;

  0019a	8b 43 08	 mov	 eax, DWORD PTR [ebx+8]
  0019d	89 46 10	 mov	 DWORD PTR [esi+16], eax

; 692  : 			switch( it2->first )

  001a0	0f b6 47 0c	 movzx	 eax, BYTE PTR [edi+12]
  001a4	83 c4 04	 add	 esp, 4
  001a7	83 e8 00	 sub	 eax, 0
  001aa	0f 84 b5 00 00
	00		 je	 $L208605
  001b0	48		 dec	 eax
  001b1	74 5e		 je	 SHORT $L208608
  001b3	48		 dec	 eax
  001b4	0f 85 1a 01 00
	00		 jne	 $L225267

; 702  : 				case TAX_ADMISSION :
; 703  : 					sprintf( pMail->m_szTitle, prj.GetText(TID_GAME_TAX_PAY_ADMISSION_TITLE),
; 704  : 												CContinent::GetInstance()->GetContinentName(it->first) );

  001ba	8b 4c 24 0c	 mov	 ecx, DWORD PTR _it$208567[esp+41152]
  001be	33 d2		 xor	 edx, edx
  001c0	8a 51 0c	 mov	 dl, BYTE PTR [ecx+12]
  001c3	8d 44 24 38	 lea	 eax, DWORD PTR $T224592[esp+41152]
  001c7	52		 push	 edx
  001c8	50		 push	 eax
  001c9	e8 00 00 00 00	 call	 ?GetInstance@CContinent@@SAPAV1@XZ ; CContinent::GetInstance
  001ce	8b c8		 mov	 ecx, eax
  001d0	e8 00 00 00 00	 call	 ?GetContinentName@CContinent@@QAE?AV?$CStringT@DV?$StrTraitMFC@DV?$ChTraitsCRT@D@ATL@@@@@ATL@@E@Z ; CContinent::GetContinentName
  001d5	81 3d 7c 00 00
	00 b5 0e 00 00	 cmp	 DWORD PTR ?prj@@3VCProject@@A+124, 3765 ; 00000eb5H
  001df	76 10		 jbe	 SHORT $L225580
  001e1	8b 0d 6c 00 00
	00		 mov	 ecx, DWORD PTR ?prj@@3VCProject@@A+108
  001e7	8b 89 d4 3a 00
	00		 mov	 ecx, DWORD PTR [ecx+15060]
  001ed	85 c9		 test	 ecx, ecx
  001ef	75 07		 jne	 SHORT $L225383
$L225580:
  001f1	b9 00 00 00 00	 mov	 ecx, OFFSET FLAT:??_C@_00CNPNBAHC@?$AA@
  001f6	eb 03		 jmp	 SHORT $L225382
$L225383:
  001f8	8b 49 04	 mov	 ecx, DWORD PTR [ecx+4]
$L225382:
  001fb	8b 10		 mov	 edx, DWORD PTR [eax]
  001fd	52		 push	 edx
  001fe	51		 push	 ecx
  001ff	8d 46 19	 lea	 eax, DWORD PTR [esi+25]
  00202	50		 push	 eax
  00203	e8 00 00 00 00	 call	 _sprintf
  00208	8b 44 24 44	 mov	 eax, DWORD PTR $T224592[esp+41164]

; 705  : 					break;

  0020c	e9 a6 00 00 00	 jmp	 $L225598
$L208608:

; 697  : 					break;
; 698  : 				case TAX_PURCHASE :
; 699  : 					sprintf( pMail->m_szTitle, prj.GetText(TID_GAME_TAX_PAY_PURCHASE_TITLE),
; 700  : 												CContinent::GetInstance()->GetContinentName(it->first) );

  00211	8b 44 24 0c	 mov	 eax, DWORD PTR _it$208567[esp+41152]
  00215	33 c9		 xor	 ecx, ecx
  00217	8a 48 0c	 mov	 cl, BYTE PTR [eax+12]
  0021a	8d 54 24 34	 lea	 edx, DWORD PTR $T224591[esp+41152]
  0021e	51		 push	 ecx
  0021f	52		 push	 edx
  00220	e8 00 00 00 00	 call	 ?GetInstance@CContinent@@SAPAV1@XZ ; CContinent::GetInstance
  00225	8b c8		 mov	 ecx, eax
  00227	e8 00 00 00 00	 call	 ?GetContinentName@CContinent@@QAE?AV?$CStringT@DV?$StrTraitMFC@DV?$ChTraitsCRT@D@ATL@@@@@ATL@@E@Z ; CContinent::GetContinentName
  0022c	81 3d 7c 00 00
	00 b4 0e 00 00	 cmp	 DWORD PTR ?prj@@3VCProject@@A+124, 3764 ; 00000eb4H
  00236	76 10		 jbe	 SHORT $L225581
  00238	8b 0d 6c 00 00
	00		 mov	 ecx, DWORD PTR ?prj@@3VCProject@@A+108
  0023e	8b 89 d0 3a 00
	00		 mov	 ecx, DWORD PTR [ecx+15056]
  00244	85 c9		 test	 ecx, ecx
  00246	75 07		 jne	 SHORT $L225315
$L225581:
  00248	b9 00 00 00 00	 mov	 ecx, OFFSET FLAT:??_C@_00CNPNBAHC@?$AA@
  0024d	eb 03		 jmp	 SHORT $L225314
$L225315:
  0024f	8b 49 04	 mov	 ecx, DWORD PTR [ecx+4]
$L225314:
  00252	8b 10		 mov	 edx, DWORD PTR [eax]
  00254	52		 push	 edx
  00255	51		 push	 ecx
  00256	8d 46 19	 lea	 eax, DWORD PTR [esi+25]
  00259	50		 push	 eax
  0025a	e8 00 00 00 00	 call	 _sprintf
  0025f	8b 44 24 40	 mov	 eax, DWORD PTR $T224591[esp+41164]

; 701  : 					break;

  00263	eb 52		 jmp	 SHORT $L225598
$L208605:

; 693  : 			{
; 694  : 				case TAX_SALES :
; 695  : 					sprintf( pMail->m_szTitle, prj.GetText(TID_GAME_TAX_PAY_SALES_TITLE),
; 696  : 												CContinent::GetInstance()->GetContinentName(it->first) );

  00265	8b 44 24 0c	 mov	 eax, DWORD PTR _it$208567[esp+41152]
  00269	33 c9		 xor	 ecx, ecx
  0026b	8a 48 0c	 mov	 cl, BYTE PTR [eax+12]
  0026e	8d 54 24 24	 lea	 edx, DWORD PTR $T224590[esp+41152]
  00272	51		 push	 ecx
  00273	52		 push	 edx
  00274	e8 00 00 00 00	 call	 ?GetInstance@CContinent@@SAPAV1@XZ ; CContinent::GetInstance
  00279	8b c8		 mov	 ecx, eax
  0027b	e8 00 00 00 00	 call	 ?GetContinentName@CContinent@@QAE?AV?$CStringT@DV?$StrTraitMFC@DV?$ChTraitsCRT@D@ATL@@@@@ATL@@E@Z ; CContinent::GetContinentName
  00280	81 3d 7c 00 00
	00 b3 0e 00 00	 cmp	 DWORD PTR ?prj@@3VCProject@@A+124, 3763 ; 00000eb3H
  0028a	76 10		 jbe	 SHORT $L225582
  0028c	8b 0d 6c 00 00
	00		 mov	 ecx, DWORD PTR ?prj@@3VCProject@@A+108
  00292	8b 89 cc 3a 00
	00		 mov	 ecx, DWORD PTR [ecx+15052]
  00298	85 c9		 test	 ecx, ecx
  0029a	75 07		 jne	 SHORT $L225233
$L225582:
  0029c	b9 00 00 00 00	 mov	 ecx, OFFSET FLAT:??_C@_00CNPNBAHC@?$AA@
  002a1	eb 03		 jmp	 SHORT $L225232
$L225233:
  002a3	8b 49 04	 mov	 ecx, DWORD PTR [ecx+4]
$L225232:
  002a6	8b 10		 mov	 edx, DWORD PTR [eax]
  002a8	52		 push	 edx
  002a9	51		 push	 ecx
  002aa	8d 46 19	 lea	 eax, DWORD PTR [esi+25]
  002ad	50		 push	 eax
  002ae	e8 00 00 00 00	 call	 _sprintf
  002b3	8b 44 24 30	 mov	 eax, DWORD PTR $T224590[esp+41164]
$L225598:
  002b7	83 c0 f0	 add	 eax, -16		; fffffff0H
  002ba	83 c4 0c	 add	 esp, 12			; 0000000cH
  002bd	8d 48 0c	 lea	 ecx, DWORD PTR [eax+12]
  002c0	83 ca ff	 or	 edx, -1
  002c3	f0 0f c1 11	 lock	  xadd	 DWORD PTR [ecx], edx
  002c7	4a		 dec	 edx
  002c8	85 d2		 test	 edx, edx
  002ca	7f 08		 jg	 SHORT $L225267
  002cc	8b 08		 mov	 ecx, DWORD PTR [eax]
  002ce	8b 11		 mov	 edx, DWORD PTR [ecx]
  002d0	50		 push	 eax
  002d1	ff 52 04	 call	 DWORD PTR [edx+4]
$L225267:

; 706  : 			} // switch
; 707  : 			char strDate[100]={0,};

  002d4	c6 44 24 40 00	 mov	 BYTE PTR _strDate$208613[esp+41152], 0
  002d9	33 c0		 xor	 eax, eax
  002db	b9 18 00 00 00	 mov	 ecx, 24			; 00000018H
  002e0	8d 7c 24 41	 lea	 edi, DWORD PTR _strDate$208613[esp+41153]
  002e4	f3 ab		 rep stosd
  002e6	66 ab		 stosw

; 708  : 			CTime cTime = CTime::GetCurrentTime() - CTimeSpan( 1, 0, 0, 0 );

  002e8	6a 00		 push	 0
  002ea	aa		 stosb
  002eb	e8 00 00 00 00	 call	 __time64
  002f0	2d 80 51 01 00	 sub	 eax, 86400		; 00015180H
  002f5	89 44 24 20	 mov	 DWORD PTR _cTime$208614[esp+41156], eax

; 709  : 			sprintf( strDate, prj.GetText( TID_GAME_TAX_PAY_DATE ), cTime.GetYear(), cTime.GetMonth(), cTime.GetDay() );

  002f9	8d 44 24 20	 lea	 eax, DWORD PTR _cTime$208614[esp+41156]
  002fd	83 da 00	 sbb	 edx, 0
  00300	50		 push	 eax
  00301	89 54 24 28	 mov	 DWORD PTR _cTime$208614[esp+41164], edx
  00305	e8 00 00 00 00	 call	 __localtime64
  0030a	83 c4 08	 add	 esp, 8
  0030d	85 c0		 test	 eax, eax
  0030f	74 05		 je	 SHORT $L225457
  00311	8b 58 0c	 mov	 ebx, DWORD PTR [eax+12]
  00314	eb 02		 jmp	 SHORT $L225458
$L225457:
  00316	33 db		 xor	 ebx, ebx
$L225458:
  00318	8d 4c 24 1c	 lea	 ecx, DWORD PTR _cTime$208614[esp+41152]
  0031c	51		 push	 ecx
  0031d	e8 00 00 00 00	 call	 __localtime64
  00322	83 c4 04	 add	 esp, 4
  00325	85 c0		 test	 eax, eax
  00327	74 06		 je	 SHORT $L225479
  00329	8b 78 10	 mov	 edi, DWORD PTR [eax+16]
  0032c	47		 inc	 edi
  0032d	eb 02		 jmp	 SHORT $L225480
$L225479:
  0032f	33 ff		 xor	 edi, edi
$L225480:
  00331	8d 54 24 1c	 lea	 edx, DWORD PTR _cTime$208614[esp+41152]
  00335	52		 push	 edx
  00336	e8 00 00 00 00	 call	 __localtime64
  0033b	83 c4 04	 add	 esp, 4
  0033e	85 c0		 test	 eax, eax
  00340	74 0a		 je	 SHORT $L225501
  00342	8b 40 14	 mov	 eax, DWORD PTR [eax+20]
  00345	05 6c 07 00 00	 add	 eax, 1900		; 0000076cH
  0034a	eb 02		 jmp	 SHORT $L225502
$L225501:
  0034c	33 c0		 xor	 eax, eax
$L225502:
  0034e	81 3d 7c 00 00
	00 b6 0e 00 00	 cmp	 DWORD PTR ?prj@@3VCProject@@A+124, 3766 ; 00000eb6H
  00358	76 10		 jbe	 SHORT $L225583
  0035a	8b 0d 6c 00 00
	00		 mov	 ecx, DWORD PTR ?prj@@3VCProject@@A+108
  00360	8b 89 d8 3a 00
	00		 mov	 ecx, DWORD PTR [ecx+15064]
  00366	85 c9		 test	 ecx, ecx
  00368	75 07		 jne	 SHORT $L225525
$L225583:
  0036a	b9 00 00 00 00	 mov	 ecx, OFFSET FLAT:??_C@_00CNPNBAHC@?$AA@
  0036f	eb 03		 jmp	 SHORT $L225524
$L225525:
  00371	8b 49 04	 mov	 ecx, DWORD PTR [ecx+4]
$L225524:
  00374	53		 push	 ebx
  00375	57		 push	 edi
  00376	50		 push	 eax
  00377	51		 push	 ecx
  00378	8d 54 24 50	 lea	 edx, DWORD PTR _strDate$208613[esp+41168]
  0037c	52		 push	 edx
  0037d	e8 00 00 00 00	 call	 _sprintf

; 710  : 			sprintf( pMail->m_szText, prj.GetText( TID_GAME_TAX_PAY_INFO ), strDate, taxDetail->nTaxCount, taxDetail->nTaxPerin, taxDetail->nTaxGold );

  00382	a1 7c 00 00 00	 mov	 eax, DWORD PTR ?prj@@3VCProject@@A+124
  00387	83 c4 14	 add	 esp, 20			; 00000014H
  0038a	33 db		 xor	 ebx, ebx
  0038c	3d b7 0e 00 00	 cmp	 eax, 3767		; 00000eb7H
  00391	76 0f		 jbe	 SHORT $L225584
  00393	a1 6c 00 00 00	 mov	 eax, DWORD PTR ?prj@@3VCProject@@A+108
  00398	8b 80 dc 3a 00
	00		 mov	 eax, DWORD PTR [eax+15068]
  0039e	3b c3		 cmp	 eax, ebx
  003a0	75 07		 jne	 SHORT $L225548
$L225584:
  003a2	b8 00 00 00 00	 mov	 eax, OFFSET FLAT:??_C@_00CNPNBAHC@?$AA@
  003a7	eb 03		 jmp	 SHORT $L225547
$L225548:
  003a9	8b 40 04	 mov	 eax, DWORD PTR [eax+4]
$L225547:
  003ac	8b 7c 24 30	 mov	 edi, DWORD PTR _taxDetail$208594[esp+41152]
  003b0	8b 4f 08	 mov	 ecx, DWORD PTR [edi+8]
  003b3	8b 57 0c	 mov	 edx, DWORD PTR [edi+12]
  003b6	51		 push	 ecx
  003b7	8b 4f 04	 mov	 ecx, DWORD PTR [edi+4]
  003ba	52		 push	 edx
  003bb	51		 push	 ecx
  003bc	8d 54 24 4c	 lea	 edx, DWORD PTR _strDate$208613[esp+41164]
  003c0	52		 push	 edx
  003c1	50		 push	 eax
  003c2	8d 46 39	 lea	 eax, DWORD PTR [esi+57]
  003c5	50		 push	 eax
  003c6	e8 00 00 00 00	 call	 _sprintf

; 711  : 			if( taxDetail->nTaxPerin )

  003cb	8b 47 0c	 mov	 eax, DWORD PTR [edi+12]
  003ce	83 c4 18	 add	 esp, 24			; 00000018H
  003d1	3b c3		 cmp	 eax, ebx
  003d3	74 66		 je	 SHORT $L225562

; 712  : 			{
; 713  : 				pMail->m_pItemElem	= new CItemElem;

  003d5	68 a0 00 00 00	 push	 160			; 000000a0H
  003da	e8 00 00 00 00	 call	 ??2@YAPAXI@Z		; operator new
  003df	83 c4 04	 add	 esp, 4
  003e2	89 44 24 2c	 mov	 DWORD PTR $T224596[esp+41152], eax
  003e6	3b c3		 cmp	 eax, ebx
  003e8	c7 84 24 bc a0
	00 00 01 00 00
	00		 mov	 DWORD PTR __$EHRec$[esp+41160], 1
  003f3	74 09		 je	 SHORT $L224597
  003f5	8b c8		 mov	 ecx, eax
  003f7	e8 00 00 00 00	 call	 ??0CItemElem@@QAE@XZ	; CItemElem::CItemElem
  003fc	eb 02		 jmp	 SHORT $L224598
$L224597:
  003fe	33 c0		 xor	 eax, eax
$L224598:
  00400	89 46 0c	 mov	 DWORD PTR [esi+12], eax

; 714  : 				pMail->m_pItemElem->m_dwItemId	= II_SYS_SYS_SCR_PERIN;

  00403	c7 40 08 58 67
	00 00		 mov	 DWORD PTR [eax+8], 26456 ; 00006758H

; 715  : 				pMail->m_pItemElem->m_nItemNum	= static_cast<short>( taxDetail->nTaxPerin );

  0040a	8b 4e 0c	 mov	 ecx, DWORD PTR [esi+12]
  0040d	66 8b 57 0c	 mov	 dx, WORD PTR [edi+12]
  00411	66 89 51 72	 mov	 WORD PTR [ecx+114], dx

; 716  : 				pMail->m_pItemElem->SetSerialNumber( xRand() );

  00415	a1 00 00 00 00	 mov	 eax, DWORD PTR ?g_next@@3KA ; g_next
  0041a	69 c0 6d 4e c6
	41		 imul	 eax, 1103515245		; 41c64e6dH
  00420	05 39 30 00 00	 add	 eax, 12345		; 00003039H
  00425	a3 00 00 00 00	 mov	 DWORD PTR ?g_next@@3KA, eax ; g_next
  0042a	8b 4e 0c	 mov	 ecx, DWORD PTR [esi+12]
  0042d	c7 84 24 bc a0
	00 00 ff ff ff
	ff		 mov	 DWORD PTR __$EHRec$[esp+41160], -1
  00438	89 41 30	 mov	 DWORD PTR [ecx+48], eax
$L225562:

; 717  : 			}
; 718  : 
; 719  : 			post::Post( dwId, pMail, pQuery );

  0043b	8b 54 24 14	 mov	 edx, DWORD PTR _pQuery$[esp+41152]
  0043f	8b 44 24 18	 mov	 eax, DWORD PTR _dwId$208575[esp+41152]
  00443	52		 push	 edx
  00444	56		 push	 esi
  00445	50		 push	 eax
  00446	e8 00 00 00 00	 call	 ?Post@post@@YAXKPAVCMail@@PAVCQuery@@@Z ; post::Post
  0044b	8b 54 24 1c	 mov	 edx, DWORD PTR _it2$208587[esp+41164]

; 720  : 			
; 721  : 			taxDetail->nTaxCount = 0;

  0044f	89 5f 04	 mov	 DWORD PTR [edi+4], ebx

; 722  : 			taxDetail->nTaxGold = 0;

  00452	89 5f 08	 mov	 DWORD PTR [edi+8], ebx

; 723  : 			taxDetail->nTaxPerin = 0;

  00455	89 5f 0c	 mov	 DWORD PTR [edi+12], ebx
  00458	8a 42 15	 mov	 al, BYTE PTR [edx+21]
  0045b	83 c4 0c	 add	 esp, 12			; 0000000cH
  0045e	84 c0		 test	 al, al
  00460	75 4f		 jne	 SHORT $L225115
  00462	8b 4a 08	 mov	 ecx, DWORD PTR [edx+8]
  00465	8a 41 15	 mov	 al, BYTE PTR [ecx+21]
  00468	84 c0		 test	 al, al
  0046a	75 1a		 jne	 SHORT $L225571
  0046c	8b 01		 mov	 eax, DWORD PTR [ecx]
  0046e	8a 50 15	 mov	 dl, BYTE PTR [eax+21]
  00471	84 d2		 test	 dl, dl
  00473	75 0b		 jne	 SHORT $L225097

; 682  : 			continue;
; 683  : 
; 684  : 		for( TAXDETAILMAP::iterator it2=taxInfo->mapTaxDetail.begin(); it2!=taxInfo->mapTaxDetail.end(); it2++ )

$L225096:
  00475	8b c8		 mov	 ecx, eax
  00477	8b 01		 mov	 eax, DWORD PTR [ecx]
  00479	8a 50 15	 mov	 dl, BYTE PTR [eax+21]
  0047c	84 d2		 test	 dl, dl
  0047e	74 f5		 je	 SHORT $L225096
$L225097:
  00480	89 4c 24 10	 mov	 DWORD PTR _it2$208587[esp+41152], ecx
  00484	eb 27		 jmp	 SHORT $L225599
$L225571:
  00486	8b 42 04	 mov	 eax, DWORD PTR [edx+4]
  00489	8a 48 15	 mov	 cl, BYTE PTR [eax+21]
  0048c	84 c9		 test	 cl, cl
  0048e	75 19		 jne	 SHORT $L225118
  00490	eb 04		 jmp	 SHORT $L225117
$L225588:
  00492	8b 54 24 10	 mov	 edx, DWORD PTR _it2$208587[esp+41152]
$L225117:
  00496	3b 50 08	 cmp	 edx, DWORD PTR [eax+8]
  00499	75 0e		 jne	 SHORT $L225118
  0049b	89 44 24 10	 mov	 DWORD PTR _it2$208587[esp+41152], eax
  0049f	8b 40 04	 mov	 eax, DWORD PTR [eax+4]
  004a2	8a 48 15	 mov	 cl, BYTE PTR [eax+21]
  004a5	84 c9		 test	 cl, cl
  004a7	74 e9		 je	 SHORT $L225588
$L225118:
  004a9	89 44 24 10	 mov	 DWORD PTR _it2$208587[esp+41152], eax
$L225599:
  004ad	8b 54 24 10	 mov	 edx, DWORD PTR _it2$208587[esp+41152]
$L225115:
  004b1	8b 4c 24 3c	 mov	 ecx, DWORD PTR _taxInfo$208574[esp+41152]
  004b5	3b 51 0c	 cmp	 edx, DWORD PTR [ecx+12]
  004b8	0f 85 87 fc ff
	ff		 jne	 $L225586
  004be	8b 74 24 0c	 mov	 esi, DWORD PTR _it$208567[esp+41152]
$L208572:

; 657  : 	for( TAXINFOMAP::iterator it=tax->m_mapTaxInfo.begin(); it!=tax->m_mapTaxInfo.end(); it++ )

  004c2	8a 46 15	 mov	 al, BYTE PTR [esi+21]
  004c5	84 c0		 test	 al, al
  004c7	75 53		 jne	 SHORT $L224796
  004c9	8b 4e 08	 mov	 ecx, DWORD PTR [esi+8]
  004cc	8a 41 15	 mov	 al, BYTE PTR [ecx+21]
  004cf	84 c0		 test	 al, al
  004d1	75 1e		 jne	 SHORT $L225573
  004d3	8b 01		 mov	 eax, DWORD PTR [ecx]
  004d5	8a 50 15	 mov	 dl, BYTE PTR [eax+21]
  004d8	84 d2		 test	 dl, dl
  004da	75 0f		 jne	 SHORT $L224811
  004dc	8d 64 24 00	 npad	 4
$L224810:
  004e0	8b c8		 mov	 ecx, eax
  004e2	8b 01		 mov	 eax, DWORD PTR [ecx]
  004e4	8a 50 15	 mov	 dl, BYTE PTR [eax+21]
  004e7	84 d2		 test	 dl, dl
  004e9	74 f5		 je	 SHORT $L224810
$L224811:
  004eb	89 4c 24 0c	 mov	 DWORD PTR _it$208567[esp+41152], ecx
  004ef	eb 27		 jmp	 SHORT $L225600
$L225573:
  004f1	8b 46 04	 mov	 eax, DWORD PTR [esi+4]
  004f4	8a 48 15	 mov	 cl, BYTE PTR [eax+21]
  004f7	84 c9		 test	 cl, cl
  004f9	75 19		 jne	 SHORT $L224799
  004fb	eb 04		 jmp	 SHORT $L224798
$L225589:
  004fd	8b 74 24 0c	 mov	 esi, DWORD PTR _it$208567[esp+41152]
$L224798:
  00501	3b 70 08	 cmp	 esi, DWORD PTR [eax+8]
  00504	75 0e		 jne	 SHORT $L224799
  00506	89 44 24 0c	 mov	 DWORD PTR _it$208567[esp+41152], eax
  0050a	8b 40 04	 mov	 eax, DWORD PTR [eax+4]
  0050d	8a 48 15	 mov	 cl, BYTE PTR [eax+21]
  00510	84 c9		 test	 cl, cl
  00512	74 e9		 je	 SHORT $L225589
$L224799:
  00514	89 44 24 0c	 mov	 DWORD PTR _it$208567[esp+41152], eax
$L225600:
  00518	8b 74 24 0c	 mov	 esi, DWORD PTR _it$208567[esp+41152]
$L224796:
  0051c	8b 54 24 28	 mov	 edx, DWORD PTR _tax$[esp+41152]
  00520	3b 72 0c	 cmp	 esi, DWORD PTR [edx+12]
  00523	0f 85 37 fb ff
	ff		 jne	 $L224787
$L208573:

; 724  : 		} // for it2
; 725  : 	}	// for it
; 726  : }

  00529	8b 8c 24 b4 a0
	00 00		 mov	 ecx, DWORD PTR __$EHRec$[esp+41152]
  00530	64 89 0d 00 00
	00 00		 mov	 DWORD PTR fs:__except_list, ecx
  00537	8b 8c 24 ac a0
	00 00		 mov	 ecx, DWORD PTR __$ArrayPad$[esp+41152]
  0053e	5f		 pop	 edi
  0053f	5e		 pop	 esi
  00540	33 cd		 xor	 ecx, ebp
  00542	5b		 pop	 ebx
  00543	e8 00 00 00 00	 call	 @__security_check_cookie@4
  00548	8b e5		 mov	 esp, ebp
  0054a	5d		 pop	 ebp
  0054b	c3		 ret	 0
_TEXT	ENDS
;	COMDAT text$x
text$x	SEGMENT
$L224599:
  00000	8b 85 6c 5f ff
	ff		 mov	 eax, DWORD PTR $T224587[ebp]
  00006	50		 push	 eax
  00007	e8 00 00 00 00	 call	 ??3@YAXPAX@Z		; operator delete
  0000c	59		 pop	 ecx
  0000d	c3		 ret	 0
$L224603:
  0000e	8b 85 6c 5f ff
	ff		 mov	 eax, DWORD PTR $T224596[ebp]
  00014	50		 push	 eax
  00015	e8 00 00 00 00	 call	 ??3@YAXPAX@Z		; operator delete
  0001a	59		 pop	 ecx
  0001b	c3		 ret	 0
__ehhandler$?PayTaxToPost@CTaxDBController@@AAEXXZ:
  0001c	b8 00 00 00 00	 mov	 eax, OFFSET FLAT:$T225567
  00021	e9 00 00 00 00	 jmp	 ___CxxFrameHandler
text$x	ENDS
?PayTaxToPost@CTaxDBController@@AAEXXZ ENDP		; CTaxDBController::PayTaxToPost
PUBLIC	?InsertToDB@CTaxDBController@@AAEXXZ		; CTaxDBController::InsertToDB
PUBLIC	??_C@_0DM@IEFKIIDM@TAX_INFO_STR?5?8I1?8?0?5?8?$CF02d?8?0?5?$CFd?0?5?$CF@ ; `string'
PUBLIC	??_C@_0DM@PFLMCPAK@TAX_DETAIL_STR?5?8I1?8?0?5?8?$CF02d?8?0?5?$CFd?0@ ; `string'
;	COMDAT ??_C@_0DM@IEFKIIDM@TAX_INFO_STR?5?8I1?8?0?5?8?$CF02d?8?0?5?$CFd?0?5?$CF@
; File c:\program files\microsoft visual studio .net 2003\vc7\include\xtree
CONST	SEGMENT
??_C@_0DM@IEFKIIDM@TAX_INFO_STR?5?8I1?8?0?5?8?$CF02d?8?0?5?$CFd?0?5?$CF@ DB 'T'
	DB	'AX_INFO_STR ''I1'', ''%02d'', %d, %d, ''%07d'', ''%07d'', %d,'
	DB	' ''%s''', 00H				; `string'
CONST	ENDS
;	COMDAT ??_C@_0DM@PFLMCPAK@TAX_DETAIL_STR?5?8I1?8?0?5?8?$CF02d?8?0?5?$CFd?0@
CONST	SEGMENT
??_C@_0DM@PFLMCPAK@TAX_DETAIL_STR?5?8I1?8?0?5?8?$CF02d?8?0?5?$CFd?0@ DB 'T'
	DB	'AX_DETAIL_STR ''I1'', ''%02d'', %d, %d, %d, %d, %d, %d, %d, %'
	DB	'd', 00H					; `string'
; Function compile flags: /Ogty
; File c:\documents and settings\test\mes documents\source\virtuos_v17\build\program\_common\tax.cpp
CONST	ENDS
;	COMDAT ?InsertToDB@CTaxDBController@@AAEXXZ
_TEXT	SEGMENT
_it2$208700 = -40980					; size = 4
_pTax$ = -40976						; size = 4
_pQuery$ = -40972					; size = 4
_szQuery$ = -40968					; size = 40960
__$ArrayPad$ = -4					; size = 4
__$ReturnAddr$ = 4					; size = 4
?InsertToDB@CTaxDBController@@AAEXXZ PROC NEAR		; CTaxDBController::InsertToDB, COMDAT
; _this$ = ecx

; 801  : {

  00000	55		 push	 ebp
  00001	8b ec		 mov	 ebp, esp
  00003	83 e4 f8	 and	 esp, -8			; fffffff8H
  00006	b8 14 a0 00 00	 mov	 eax, 40980		; 0000a014H
  0000b	e8 00 00 00 00	 call	 __chkstk
  00010	a1 00 00 00 00	 mov	 eax, DWORD PTR ___security_cookie
  00015	33 c5		 xor	 eax, ebp
  00017	89 84 24 10 a0
	00 00		 mov	 DWORD PTR __$ArrayPad$[esp+40980], eax
  0001e	53		 push	 ebx
  0001f	8b d9		 mov	 ebx, ecx

; 802  : 	CQuery* pQuery = GetQueryObject();

  00021	8b 43 0c	 mov	 eax, DWORD PTR [ebx+12]

; 803  : 
; 804  : 	char szQuery[QUERY_SIZE] = {0,};
; 805  : 	
; 806  : 	m_nTimes++;

  00024	8b 53 14	 mov	 edx, DWORD PTR [ebx+20]
  00027	89 44 24 0c	 mov	 DWORD PTR _pQuery$[esp+40984], eax
  0002b	56		 push	 esi
  0002c	57		 push	 edi
  0002d	33 c0		 xor	 eax, eax
  0002f	c6 44 24 18 00	 mov	 BYTE PTR _szQuery$[esp+40992], 0
  00034	b9 ff 27 00 00	 mov	 ecx, 10239		; 000027ffH
  00039	8d 7c 24 19	 lea	 edi, DWORD PTR _szQuery$[esp+40993]
  0003d	f3 ab		 rep stosd
  0003f	66 ab		 stosw
  00041	42		 inc	 edx
  00042	aa		 stosb
  00043	89 53 14	 mov	 DWORD PTR [ebx+20], edx

; 807  : 	CTax* pTax = CTax::GetInstance();

  00046	e8 00 00 00 00	 call	 ?GetInstance@CTax@@SAPAV1@XZ ; CTax::GetInstance
  0004b	89 44 24 10	 mov	 DWORD PTR _pTax$[esp+40992], eax

; 808  : 	for( TAXINFOMAP::iterator it=pTax->m_mapTaxInfo.begin(); it!=pTax->m_mapTaxInfo.end(); it++ )

  0004f	8b 40 0c	 mov	 eax, DWORD PTR [eax+12]
  00052	8b 30		 mov	 esi, DWORD PTR [eax]
  00054	3b f0		 cmp	 esi, eax
  00056	0f 84 79 01 00
	00		 je	 $L208692
  0005c	8d 64 24 00	 npad	 4
$L225793:

; 809  : 	{
; 810  : 		__TAXINFO* taxInfo = it->second;

  00060	8b 7e 10	 mov	 edi, DWORD PTR [esi+16]

; 811  : 		DWORD dwTempId = 0, dwTempNextId = 0;
; 812  : 		if( taxInfo->dwId != NULL_ID ) dwTempId = taxInfo->dwId;

  00063	8b 07		 mov	 eax, DWORD PTR [edi]
  00065	33 d2		 xor	 edx, edx
  00067	33 c9		 xor	 ecx, ecx
  00069	83 f8 ff	 cmp	 eax, -1
  0006c	74 02		 je	 SHORT $L208696
  0006e	8b d0		 mov	 edx, eax
$L208696:

; 813  : 		if( taxInfo->dwNextId != NULL_ID ) dwTempNextId = taxInfo->dwNextId;

  00070	8b 47 14	 mov	 eax, DWORD PTR [edi+20]
  00073	83 f8 ff	 cmp	 eax, -1
  00076	74 02		 je	 SHORT $L208697
  00078	8b c8		 mov	 ecx, eax
$L208697:

; 814  : 		sprintf( szQuery, "TAX_INFO_STR 'I1', '%02d', %d, %d, '%07d', '%07d', %d, '%s'",
; 815  : 				g_appInfo.dwSys, m_nTimes, it->first, dwTempId, dwTempNextId, taxInfo->bSetTaxRate, pTax->m_strChangedDate.c_str() );

  0007a	8b 44 24 10	 mov	 eax, DWORD PTR _pTax$[esp+40992]
  0007e	83 78 64 10	 cmp	 DWORD PTR [eax+100], 16	; 00000010H
  00082	72 05		 jb	 SHORT $L225892
  00084	8b 40 50	 mov	 eax, DWORD PTR [eax+80]
  00087	eb 03		 jmp	 SHORT $L225893
$L225892:
  00089	83 c0 50	 add	 eax, 80			; 00000050H
$L225893:
  0008c	50		 push	 eax
  0008d	8b 47 04	 mov	 eax, DWORD PTR [edi+4]
  00090	50		 push	 eax
  00091	a1 00 00 00 00	 mov	 eax, DWORD PTR ?g_appInfo@@3UAppInfo@@A
  00096	51		 push	 ecx
  00097	0f b6 4e 0c	 movzx	 ecx, BYTE PTR [esi+12]
  0009b	52		 push	 edx
  0009c	8b 53 14	 mov	 edx, DWORD PTR [ebx+20]
  0009f	51		 push	 ecx
  000a0	52		 push	 edx
  000a1	50		 push	 eax
  000a2	8d 4c 24 34	 lea	 ecx, DWORD PTR _szQuery$[esp+41020]
  000a6	68 00 00 00 00	 push	 OFFSET FLAT:??_C@_0DM@IEFKIIDM@TAX_INFO_STR?5?8I1?8?0?5?8?$CF02d?8?0?5?$CFd?0?5?$CF@
  000ab	51		 push	 ecx
  000ac	e8 00 00 00 00	 call	 _sprintf

; 816  : 		if( pQuery->Exec( szQuery ) == FALSE )

  000b1	8b 4c 24 38	 mov	 ecx, DWORD PTR _pQuery$[esp+41028]
  000b5	83 c4 24	 add	 esp, 36			; 00000024H
  000b8	8d 54 24 18	 lea	 edx, DWORD PTR _szQuery$[esp+40992]
  000bc	52		 push	 edx
  000bd	e8 00 00 00 00	 call	 ?Exec@CQuery@@QAEHPBD@Z	; CQuery::Exec
  000c2	85 c0		 test	 eax, eax
  000c4	0f 84 e3 00 00
	00		 je	 $L226067

; 818  : 				
; 819  : 		for( TAXDETAILMAP::iterator it2=taxInfo->mapTaxDetail.begin(); it2!=taxInfo->mapTaxDetail.end(); it2++ )

  000ca	8b 47 0c	 mov	 eax, DWORD PTR [edi+12]
  000cd	8b 08		 mov	 ecx, DWORD PTR [eax]
  000cf	3b c8		 cmp	 ecx, eax
  000d1	89 4c 24 0c	 mov	 DWORD PTR _it2$208700[esp+40992], ecx
  000d5	74 6e		 je	 SHORT $L208691
  000d7	eb 07 8d a4 24
	00 00 00 00	 npad	 9
$L225958:

; 820  : 		{
; 821  : 			__TAXDETAIL* taxDetail = it2->second;

  000e0	8b 41 10	 mov	 eax, DWORD PTR [ecx+16]

; 822  : 			sprintf( szQuery, "TAX_DETAIL_STR 'I1', '%02d', %d, %d, %d, %d, %d, %d, %d, %d",
; 823  : 					g_appInfo.dwSys, m_nTimes, it->first, it2->first, taxDetail->nTaxRate, taxDetail->nTaxCount,
; 824  : 					taxDetail->nTaxGold, taxDetail->nTaxPerin, taxDetail->nNextTaxRate );

  000e3	8b 50 10	 mov	 edx, DWORD PTR [eax+16]
  000e6	0f b6 49 0c	 movzx	 ecx, BYTE PTR [ecx+12]
  000ea	52		 push	 edx
  000eb	8b 50 0c	 mov	 edx, DWORD PTR [eax+12]
  000ee	52		 push	 edx
  000ef	8b 50 08	 mov	 edx, DWORD PTR [eax+8]
  000f2	52		 push	 edx
  000f3	8b 50 04	 mov	 edx, DWORD PTR [eax+4]
  000f6	8b 00		 mov	 eax, DWORD PTR [eax]
  000f8	52		 push	 edx
  000f9	0f b6 56 0c	 movzx	 edx, BYTE PTR [esi+12]
  000fd	50		 push	 eax
  000fe	8b 43 14	 mov	 eax, DWORD PTR [ebx+20]
  00101	51		 push	 ecx
  00102	8b 0d 00 00 00
	00		 mov	 ecx, DWORD PTR ?g_appInfo@@3UAppInfo@@A
  00108	52		 push	 edx
  00109	50		 push	 eax
  0010a	51		 push	 ecx
  0010b	8d 54 24 3c	 lea	 edx, DWORD PTR _szQuery$[esp+41028]
  0010f	68 00 00 00 00	 push	 OFFSET FLAT:??_C@_0DM@PFLMCPAK@TAX_DETAIL_STR?5?8I1?8?0?5?8?$CF02d?8?0?5?$CFd?0@
  00114	52		 push	 edx
  00115	e8 00 00 00 00	 call	 _sprintf

; 825  : 			if( pQuery->Exec( szQuery ) == FALSE )

  0011a	8b 4c 24 40	 mov	 ecx, DWORD PTR _pQuery$[esp+41036]
  0011e	83 c4 2c	 add	 esp, 44			; 0000002cH
  00121	8d 44 24 18	 lea	 eax, DWORD PTR _szQuery$[esp+40992]
  00125	50		 push	 eax
  00126	e8 00 00 00 00	 call	 ?Exec@CQuery@@QAEHPBD@Z	; CQuery::Exec
  0012b	85 c0		 test	 eax, eax
  0012d	0f 84 86 00 00
	00		 je	 $L226066
  00133	8d 4c 24 0c	 lea	 ecx, DWORD PTR _it2$208700[esp+40992]
  00137	e8 00 00 00 00	 call	 ?_Inc@const_iterator@?$_Tree@V?$_Tmap_traits@EPAU__TAXDETAIL@@U?$less@E@std@@V?$allocator@U?$pair@$$CBEPAU__TAXDETAIL@@@std@@@3@$0A@@std@@@std@@QAEXXZ ; std::_Tree<std::_Tmap_traits<unsigned char,__TAXDETAIL *,std::less<unsigned char>,std::allocator<std::pair<unsigned char const ,__TAXDETAIL *> >,0> >::const_iterator::_Inc
  0013c	8b 4c 24 0c	 mov	 ecx, DWORD PTR _it2$208700[esp+40992]
  00140	3b 4f 0c	 cmp	 ecx, DWORD PTR [edi+12]
  00143	75 9b		 jne	 SHORT $L225958
$L208691:

; 808  : 	for( TAXINFOMAP::iterator it=pTax->m_mapTaxInfo.begin(); it!=pTax->m_mapTaxInfo.end(); it++ )

  00145	8a 46 15	 mov	 al, BYTE PTR [esi+21]
  00148	84 c0		 test	 al, al
  0014a	75 3f		 jne	 SHORT $L225802
  0014c	8b 46 08	 mov	 eax, DWORD PTR [esi+8]
  0014f	8a 48 15	 mov	 cl, BYTE PTR [eax+21]
  00152	84 c9		 test	 cl, cl
  00154	75 18		 jne	 SHORT $L226065
  00156	8b f0		 mov	 esi, eax
  00158	8b 06		 mov	 eax, DWORD PTR [esi]
  0015a	8a 48 15	 mov	 cl, BYTE PTR [eax+21]
  0015d	84 c9		 test	 cl, cl
  0015f	75 2a		 jne	 SHORT $L225802
$L225816:
  00161	8b f0		 mov	 esi, eax
  00163	8b 06		 mov	 eax, DWORD PTR [esi]
  00165	8a 48 15	 mov	 cl, BYTE PTR [eax+21]
  00168	84 c9		 test	 cl, cl
  0016a	74 f5		 je	 SHORT $L225816
  0016c	eb 1d		 jmp	 SHORT $L225802
$L226065:
  0016e	8b 46 04	 mov	 eax, DWORD PTR [esi+4]
  00171	8a 48 15	 mov	 cl, BYTE PTR [eax+21]
  00174	84 c9		 test	 cl, cl
  00176	75 11		 jne	 SHORT $L225805
$L225804:
  00178	3b 70 08	 cmp	 esi, DWORD PTR [eax+8]
  0017b	75 0c		 jne	 SHORT $L225805
  0017d	8b f0		 mov	 esi, eax
  0017f	8b 40 04	 mov	 eax, DWORD PTR [eax+4]
  00182	8a 48 15	 mov	 cl, BYTE PTR [eax+21]
  00185	84 c9		 test	 cl, cl
  00187	74 ef		 je	 SHORT $L225804
$L225805:
  00189	8b f0		 mov	 esi, eax
$L225802:
  0018b	8b 4c 24 10	 mov	 ecx, DWORD PTR _pTax$[esp+40992]
  0018f	3b 71 0c	 cmp	 esi, DWORD PTR [ecx+12]
  00192	0f 85 c8 fe ff
	ff		 jne	 $L225793

; 827  : 		}
; 828  : 	}
; 829  : }

  00198	5f		 pop	 edi
  00199	5e		 pop	 esi
  0019a	5b		 pop	 ebx
  0019b	8b 8c 24 10 a0
	00 00		 mov	 ecx, DWORD PTR __$ArrayPad$[esp+40980]
  001a2	33 cd		 xor	 ecx, ebp
  001a4	e8 00 00 00 00	 call	 @__security_check_cookie@4
  001a9	8b e5		 mov	 esp, ebp
  001ab	5d		 pop	 ebp
  001ac	c3		 ret	 0
$L226067:

; 817  : 		{ WriteLog( "%s, %d\t%s", __FILE__, __LINE__, szQuery ); return; }

  001ad	8d 54 24 18	 lea	 edx, DWORD PTR _szQuery$[esp+40992]
  001b1	52		 push	 edx
  001b2	68 31 03 00 00	 push	 817			; 00000331H
  001b7	eb 0a		 jmp	 SHORT $L226073
$L226066:

; 826  : 			{ WriteLog( "%s, %d\t%s", __FILE__, __LINE__, szQuery ); return; }

  001b9	8d 44 24 18	 lea	 eax, DWORD PTR _szQuery$[esp+40992]
  001bd	50		 push	 eax
  001be	68 3a 03 00 00	 push	 826			; 0000033aH
$L226073:
  001c3	68 00 00 00 00	 push	 OFFSET FLAT:??_C@_0FM@HFNCOCNE@?2Documents?5and?5Settings?2test?2Mes@
  001c8	68 00 00 00 00	 push	 OFFSET FLAT:??_C@_09GBAEEKDE@?$CFs?0?5?$CFd?7?$CFs?$AA@
  001cd	e8 00 00 00 00	 call	 ?WriteLog@@YAXPBDZZ	; WriteLog
  001d2	83 c4 10	 add	 esp, 16			; 00000010H
$L208692:

; 827  : 		}
; 828  : 	}
; 829  : }

  001d5	8b 8c 24 1c a0
	00 00		 mov	 ecx, DWORD PTR __$ArrayPad$[esp+40992]
  001dc	5f		 pop	 edi
  001dd	5e		 pop	 esi
  001de	33 cd		 xor	 ecx, ebp
  001e0	5b		 pop	 ebx
  001e1	e8 00 00 00 00	 call	 @__security_check_cookie@4
  001e6	8b e5		 mov	 esp, ebp
  001e8	5d		 pop	 ebp
  001e9	c3		 ret	 0
?InsertToDB@CTaxDBController@@AAEXXZ ENDP		; CTaxDBController::InsertToDB
_TEXT	ENDS
PUBLIC	?UpdateToDB@CTaxDBController@@AAEXE@Z		; CTaxDBController::UpdateToDB
PUBLIC	??_C@_0DA@LBKMKMAC@UpdateToDB?$CI?$CJ?5?9?5taxInfo?5is?5NULL?0?5@ ; `string'
PUBLIC	??_C@_0DL@EDBIPHKJ@TAX_INFO_STR?5?8U1?8?0?5?8?$CF02d?8?0?5?$CFd?0?5?$CF@ ; `string'
PUBLIC	??_C@_0DM@BIDMIHDA@TAX_DETAIL_STR?5?8U1?8?0?5?8?$CF02d?8?0?5?$CFd?0@ ; `string'
;	COMDAT ??_C@_0DA@LBKMKMAC@UpdateToDB?$CI?$CJ?5?9?5taxInfo?5is?5NULL?0?5@
; File c:\program files\microsoft visual studio .net 2003\vc7\include\xtree
CONST	SEGMENT
??_C@_0DA@LBKMKMAC@UpdateToDB?$CI?$CJ?5?9?5taxInfo?5is?5NULL?0?5@ DB 'Upd'
	DB	'ateToDB() - taxInfo is NULL, nContinent = %x', 00H ; `string'
CONST	ENDS
;	COMDAT ??_C@_0DL@EDBIPHKJ@TAX_INFO_STR?5?8U1?8?0?5?8?$CF02d?8?0?5?$CFd?0?5?$CF@
CONST	SEGMENT
??_C@_0DL@EDBIPHKJ@TAX_INFO_STR?5?8U1?8?0?5?8?$CF02d?8?0?5?$CFd?0?5?$CF@ DB 'T'
	DB	'AX_INFO_STR ''U1'', ''%02d'', %d, %d, ''%07d'', ''%07d'', %d,'
	DB	' ''0''', 00H				; `string'
CONST	ENDS
;	COMDAT ??_C@_0DM@BIDMIHDA@TAX_DETAIL_STR?5?8U1?8?0?5?8?$CF02d?8?0?5?$CFd?0@
CONST	SEGMENT
??_C@_0DM@BIDMIHDA@TAX_DETAIL_STR?5?8U1?8?0?5?8?$CF02d?8?0?5?$CFd?0@ DB 'T'
	DB	'AX_DETAIL_STR ''U1'', ''%02d'', %d, %d, %d, %d, %d, %d, %d, %'
	DB	'd', 00H					; `string'
; Function compile flags: /Ogty
; File c:\documents and settings\test\mes documents\source\virtuos_v17\build\program\_common\tax.cpp
CONST	ENDS
;	COMDAT ?UpdateToDB@CTaxDBController@@AAEXE@Z
_TEXT	SEGMENT
_it2$208725 = -40976					; size = 4
_pQuery$ = -40972					; size = 4
_szQuery$ = -40968					; size = 40960
__$ArrayPad$ = -4					; size = 4
__$ReturnAddr$ = 4					; size = 4
_nContinent$ = 8					; size = 1
?UpdateToDB@CTaxDBController@@AAEXE@Z PROC NEAR		; CTaxDBController::UpdateToDB, COMDAT
; _this$ = ecx

; 832  : {

  00000	55		 push	 ebp
  00001	8b ec		 mov	 ebp, esp
  00003	83 e4 f8	 and	 esp, -8			; fffffff8H
  00006	b8 14 a0 00 00	 mov	 eax, 40980		; 0000a014H
  0000b	e8 00 00 00 00	 call	 __chkstk
  00010	a1 00 00 00 00	 mov	 eax, DWORD PTR ___security_cookie
  00015	33 c5		 xor	 eax, ebp
  00017	53		 push	 ebx
  00018	8b d9		 mov	 ebx, ecx
  0001a	89 84 24 14 a0
	00 00		 mov	 DWORD PTR __$ArrayPad$[esp+40984], eax

; 833  : 	CQuery* pQuery = GetQueryObject();

  00021	8b 43 0c	 mov	 eax, DWORD PTR [ebx+12]
  00024	56		 push	 esi
  00025	57		 push	 edi
  00026	89 44 24 14	 mov	 DWORD PTR _pQuery$[esp+40992], eax

; 834  : 
; 835  : 	char szQuery[QUERY_SIZE] = {0,};

  0002a	c6 44 24 18 00	 mov	 BYTE PTR _szQuery$[esp+40992], 0
  0002f	33 c0		 xor	 eax, eax
  00031	b9 ff 27 00 00	 mov	 ecx, 10239		; 000027ffH
  00036	8d 7c 24 19	 lea	 edi, DWORD PTR _szQuery$[esp+40993]
  0003a	f3 ab		 rep stosd

; 836  : 
; 837  : 	__TAXINFO* taxInfo = CTax::GetInstance()->GetTaxInfo( nContinent );

  0003c	8b 4d 08	 mov	 ecx, DWORD PTR _nContinent$[ebp]
  0003f	66 ab		 stosw
  00041	51		 push	 ecx
  00042	aa		 stosb
  00043	e8 00 00 00 00	 call	 ?GetInstance@CTax@@SAPAV1@XZ ; CTax::GetInstance
  00048	8b c8		 mov	 ecx, eax
  0004a	e8 00 00 00 00	 call	 ?GetTaxInfo@CTax@@QAEPAU__TAXINFO@@E@Z ; CTax::GetTaxInfo
  0004f	8b f0		 mov	 esi, eax

; 838  : 	if( !taxInfo )

  00051	85 f6		 test	 esi, esi
  00053	75 29		 jne	 SHORT $L208717

; 839  : 	{
; 840  : 		WriteLog( "UpdateToDB() - taxInfo is NULL, nContinent = %x", nContinent );

  00055	0f b6 55 08	 movzx	 edx, BYTE PTR _nContinent$[ebp]
  00059	52		 push	 edx
  0005a	68 00 00 00 00	 push	 OFFSET FLAT:??_C@_0DA@LBKMKMAC@UpdateToDB?$CI?$CJ?5?9?5taxInfo?5is?5NULL?0?5@
  0005f	e8 00 00 00 00	 call	 ?WriteLog@@YAXPBDZZ	; WriteLog
  00064	83 c4 08	 add	 esp, 8

; 860  : 	}
; 861  : }

  00067	5f		 pop	 edi
  00068	5e		 pop	 esi
  00069	5b		 pop	 ebx
  0006a	8b 8c 24 10 a0
	00 00		 mov	 ecx, DWORD PTR __$ArrayPad$[esp+40980]
  00071	33 cd		 xor	 ecx, ebp
  00073	e8 00 00 00 00	 call	 @__security_check_cookie@4
  00078	8b e5		 mov	 esp, ebp
  0007a	5d		 pop	 ebp
  0007b	c2 04 00	 ret	 4
$L208717:

; 841  : 		return;
; 842  : 	}
; 843  : 
; 844  : 	DWORD dwTempId = 0, dwTempNextId = 0;
; 845  : 	if( taxInfo->dwId != NULL_ID ) dwTempId = taxInfo->dwId;

  0007e	8b 06		 mov	 eax, DWORD PTR [esi]
  00080	33 d2		 xor	 edx, edx
  00082	33 c9		 xor	 ecx, ecx
  00084	83 f8 ff	 cmp	 eax, -1
  00087	74 02		 je	 SHORT $L208721
  00089	8b d0		 mov	 edx, eax
$L208721:

; 846  : 	if( taxInfo->dwNextId != NULL_ID ) dwTempNextId = taxInfo->dwNextId;

  0008b	8b 46 14	 mov	 eax, DWORD PTR [esi+20]
  0008e	83 f8 ff	 cmp	 eax, -1
  00091	74 02		 je	 SHORT $L208722
  00093	8b c8		 mov	 ecx, eax
$L208722:

; 847  : 	sprintf( szQuery, "TAX_INFO_STR 'U1', '%02d', %d, %d, '%07d', '%07d', %d, '0'",
; 848  : 		g_appInfo.dwSys, m_nTimes, nContinent, dwTempId, dwTempNextId, taxInfo->bSetTaxRate );

  00095	8b 46 04	 mov	 eax, DWORD PTR [esi+4]
  00098	0f b6 7d 08	 movzx	 edi, BYTE PTR _nContinent$[ebp]
  0009c	50		 push	 eax
  0009d	51		 push	 ecx
  0009e	8b 4b 14	 mov	 ecx, DWORD PTR [ebx+20]
  000a1	52		 push	 edx
  000a2	8b 15 00 00 00
	00		 mov	 edx, DWORD PTR ?g_appInfo@@3UAppInfo@@A
  000a8	57		 push	 edi
  000a9	51		 push	 ecx
  000aa	52		 push	 edx
  000ab	8d 44 24 30	 lea	 eax, DWORD PTR _szQuery$[esp+41016]
  000af	68 00 00 00 00	 push	 OFFSET FLAT:??_C@_0DL@EDBIPHKJ@TAX_INFO_STR?5?8U1?8?0?5?8?$CF02d?8?0?5?$CFd?0?5?$CF@
  000b4	50		 push	 eax
  000b5	e8 00 00 00 00	 call	 _sprintf
  000ba	83 c4 20	 add	 esp, 32			; 00000020H

; 849  : 	if( pQuery->Exec( szQuery ) == FALSE )

  000bd	8d 4c 24 18	 lea	 ecx, DWORD PTR _szQuery$[esp+40992]
  000c1	51		 push	 ecx
  000c2	8b 4c 24 18	 mov	 ecx, DWORD PTR _pQuery$[esp+40996]
  000c6	e8 00 00 00 00	 call	 ?Exec@CQuery@@QAEHPBD@Z	; CQuery::Exec
  000cb	85 c0		 test	 eax, eax
  000cd	75 0f		 jne	 SHORT $L208724

; 850  : 	{ WriteLog( "%s, %d\t%s", __FILE__, __LINE__, szQuery ); return; }

  000cf	8d 54 24 18	 lea	 edx, DWORD PTR _szQuery$[esp+40992]
  000d3	52		 push	 edx
  000d4	68 52 03 00 00	 push	 850			; 00000352H
  000d9	e9 8f 00 00 00	 jmp	 $L226203
$L208724:

; 851  : 
; 852  : 	for( TAXDETAILMAP::iterator it2=taxInfo->mapTaxDetail.begin(); it2!=taxInfo->mapTaxDetail.end(); it2++ )

  000de	8b 46 0c	 mov	 eax, DWORD PTR [esi+12]
  000e1	8b 08		 mov	 ecx, DWORD PTR [eax]
  000e3	3b c8		 cmp	 ecx, eax
  000e5	89 4c 24 10	 mov	 DWORD PTR _it2$208725[esp+40992], ecx
  000e9	0f 84 90 00 00
	00		 je	 $L208731
  000ef	90		 npad	 1
$L226119:

; 853  : 	{
; 854  : 		__TAXDETAIL* taxDetail = it2->second;

  000f0	8b 41 10	 mov	 eax, DWORD PTR [ecx+16]

; 855  : 		sprintf( szQuery, "TAX_DETAIL_STR 'U1', '%02d', %d, %d, %d, %d, %d, %d, %d, %d",
; 856  : 			g_appInfo.dwSys, m_nTimes, nContinent, it2->first, taxDetail->nTaxRate, taxDetail->nTaxCount,
; 857  : 			taxDetail->nTaxGold, taxDetail->nTaxPerin, taxDetail->nNextTaxRate );

  000f3	8b 50 10	 mov	 edx, DWORD PTR [eax+16]
  000f6	0f b6 49 0c	 movzx	 ecx, BYTE PTR [ecx+12]
  000fa	52		 push	 edx
  000fb	8b 50 0c	 mov	 edx, DWORD PTR [eax+12]
  000fe	52		 push	 edx
  000ff	8b 50 08	 mov	 edx, DWORD PTR [eax+8]
  00102	52		 push	 edx
  00103	8b 50 04	 mov	 edx, DWORD PTR [eax+4]
  00106	8b 00		 mov	 eax, DWORD PTR [eax]
  00108	52		 push	 edx
  00109	8b 53 14	 mov	 edx, DWORD PTR [ebx+20]
  0010c	50		 push	 eax
  0010d	a1 00 00 00 00	 mov	 eax, DWORD PTR ?g_appInfo@@3UAppInfo@@A
  00112	51		 push	 ecx
  00113	57		 push	 edi
  00114	52		 push	 edx
  00115	50		 push	 eax
  00116	8d 4c 24 3c	 lea	 ecx, DWORD PTR _szQuery$[esp+41028]
  0011a	68 00 00 00 00	 push	 OFFSET FLAT:??_C@_0DM@BIDMIHDA@TAX_DETAIL_STR?5?8U1?8?0?5?8?$CF02d?8?0?5?$CFd?0@
  0011f	51		 push	 ecx
  00120	e8 00 00 00 00	 call	 _sprintf

; 858  : 		if( pQuery->Exec( szQuery ) == FALSE )

  00125	8b 4c 24 40	 mov	 ecx, DWORD PTR _pQuery$[esp+41036]
  00129	83 c4 2c	 add	 esp, 44			; 0000002cH
  0012c	8d 54 24 18	 lea	 edx, DWORD PTR _szQuery$[esp+40992]
  00130	52		 push	 edx
  00131	e8 00 00 00 00	 call	 ?Exec@CQuery@@QAEHPBD@Z	; CQuery::Exec
  00136	85 c0		 test	 eax, eax
  00138	74 29		 je	 SHORT $L226200
  0013a	8d 4c 24 10	 lea	 ecx, DWORD PTR _it2$208725[esp+40992]
  0013e	e8 00 00 00 00	 call	 ?_Inc@const_iterator@?$_Tree@V?$_Tmap_traits@EPAU__TAXDETAIL@@U?$less@E@std@@V?$allocator@U?$pair@$$CBEPAU__TAXDETAIL@@@std@@@3@$0A@@std@@@std@@QAEXXZ ; std::_Tree<std::_Tmap_traits<unsigned char,__TAXDETAIL *,std::less<unsigned char>,std::allocator<std::pair<unsigned char const ,__TAXDETAIL *> >,0> >::const_iterator::_Inc
  00143	8b 4c 24 10	 mov	 ecx, DWORD PTR _it2$208725[esp+40992]
  00147	3b 4e 0c	 cmp	 ecx, DWORD PTR [esi+12]
  0014a	75 a4		 jne	 SHORT $L226119

; 860  : 	}
; 861  : }

  0014c	5f		 pop	 edi
  0014d	5e		 pop	 esi
  0014e	5b		 pop	 ebx
  0014f	8b 8c 24 10 a0
	00 00		 mov	 ecx, DWORD PTR __$ArrayPad$[esp+40980]
  00156	33 cd		 xor	 ecx, ebp
  00158	e8 00 00 00 00	 call	 @__security_check_cookie@4
  0015d	8b e5		 mov	 esp, ebp
  0015f	5d		 pop	 ebp
  00160	c2 04 00	 ret	 4
$L226200:

; 859  : 		{ WriteLog( "%s, %d\t%s", __FILE__, __LINE__, szQuery ); return; }

  00163	8d 44 24 18	 lea	 eax, DWORD PTR _szQuery$[esp+40992]
  00167	50		 push	 eax
  00168	68 5b 03 00 00	 push	 859			; 0000035bH
$L226203:
  0016d	68 00 00 00 00	 push	 OFFSET FLAT:??_C@_0FM@HFNCOCNE@?2Documents?5and?5Settings?2test?2Mes@
  00172	68 00 00 00 00	 push	 OFFSET FLAT:??_C@_09GBAEEKDE@?$CFs?0?5?$CFd?7?$CFs?$AA@
  00177	e8 00 00 00 00	 call	 ?WriteLog@@YAXPBDZZ	; WriteLog
  0017c	83 c4 10	 add	 esp, 16			; 00000010H
$L208731:

; 860  : 	}
; 861  : }

  0017f	8b 8c 24 1c a0
	00 00		 mov	 ecx, DWORD PTR __$ArrayPad$[esp+40992]
  00186	5f		 pop	 edi
  00187	5e		 pop	 esi
  00188	33 cd		 xor	 ecx, ebp
  0018a	5b		 pop	 ebx
  0018b	e8 00 00 00 00	 call	 @__security_check_cookie@4
  00190	8b e5		 mov	 esp, ebp
  00192	5d		 pop	 ebp
  00193	c2 04 00	 ret	 4
?UpdateToDB@CTaxDBController@@AAEXE@Z ENDP		; CTaxDBController::UpdateToDB
_TEXT	ENDS
PUBLIC	?UpdateAllToDB@CTaxDBController@@AAEXXZ		; CTaxDBController::UpdateAllToDB
; Function compile flags: /Ogty
;	COMDAT ?UpdateAllToDB@CTaxDBController@@AAEXXZ
_TEXT	SEGMENT
_it$208739 = -4						; size = 4
?UpdateAllToDB@CTaxDBController@@AAEXXZ PROC NEAR	; CTaxDBController::UpdateAllToDB, COMDAT
; _this$ = ecx

; 864  : {

  00000	51		 push	 ecx
  00001	56		 push	 esi
  00002	57		 push	 edi
  00003	8b f9		 mov	 edi, ecx

; 865  : 	CTax* tax = CTax::GetInstance();

  00005	e8 00 00 00 00	 call	 ?GetInstance@CTax@@SAPAV1@XZ ; CTax::GetInstance
  0000a	8b f0		 mov	 esi, eax

; 866  : 	for( TAXINFOMAP::iterator it=tax->m_mapTaxInfo.begin(); it!=tax->m_mapTaxInfo.end(); it++ )

  0000c	8b 4e 0c	 mov	 ecx, DWORD PTR [esi+12]
  0000f	8b 01		 mov	 eax, DWORD PTR [ecx]
  00011	3b c1		 cmp	 eax, ecx
  00013	89 44 24 08	 mov	 DWORD PTR _it$208739[esp+12], eax
  00017	74 25		 je	 SHORT $L208745
  00019	8d a4 24 00 00
	00 00		 npad	 7
$L226245:

; 867  : 		UpdateToDB( it->first );

  00020	0f b6 40 0c	 movzx	 eax, BYTE PTR [eax+12]
  00024	50		 push	 eax
  00025	8b cf		 mov	 ecx, edi
  00027	e8 00 00 00 00	 call	 ?UpdateToDB@CTaxDBController@@AAEXE@Z ; CTaxDBController::UpdateToDB
  0002c	8d 4c 24 08	 lea	 ecx, DWORD PTR _it$208739[esp+12]
  00030	e8 00 00 00 00	 call	 ?_Inc@const_iterator@?$_Tree@V?$_Tmap_traits@EPAU__TAXINFO@@U?$less@E@std@@V?$allocator@U?$pair@$$CBEPAU__TAXINFO@@@std@@@3@$0A@@std@@@std@@QAEXXZ ; std::_Tree<std::_Tmap_traits<unsigned char,__TAXINFO *,std::less<unsigned char>,std::allocator<std::pair<unsigned char const ,__TAXINFO *> >,0> >::const_iterator::_Inc
  00035	8b 44 24 08	 mov	 eax, DWORD PTR _it$208739[esp+12]
  00039	3b 46 0c	 cmp	 eax, DWORD PTR [esi+12]
  0003c	75 e2		 jne	 SHORT $L226245
$L208745:
  0003e	5f		 pop	 edi
  0003f	5e		 pop	 esi

; 868  : }

  00040	59		 pop	 ecx
  00041	c3		 ret	 0
?UpdateAllToDB@CTaxDBController@@AAEXXZ ENDP		; CTaxDBController::UpdateAllToDB
_TEXT	ENDS
PUBLIC	?LoadTaxInfo@CTaxDBController@@AAEXXZ		; CTaxDBController::LoadTaxInfo
PUBLIC	??_C@_0DC@HDFAFDC@TAX_INFO_STR?5?8S1?8?0?5?8?$CF02d?8?0?50?0?50?0@ ; `string'
PUBLIC	??_C@_06DJGFEEME@nTimes?$AA@			; `string'
PUBLIC	??_C@_0L@MDNPPPLJ@GetNowDate?$AA@		; `string'
PUBLIC	??_C@_0DE@DAPHDHAC@TAX_INFO_STR?5?8S2?8?0?5?8?$CF02d?8?0?5?$CFd?0?5?$CF@ ; `string'
PUBLIC	??_C@_04EINJHNAE@dwID?$AA@			; `string'
PUBLIC	??_C@_08DEEAJDDG@dwNextID?$AA@			; `string'
PUBLIC	??_C@_0M@KKHJELKN@bSetTaxRate?$AA@		; `string'
PUBLIC	??_C@_0M@HHPEIMLI@change_time?$AA@		; `string'
PUBLIC	??_C@_0DG@HDJLKLGO@TAX_DETAIL_STR?5?8S2?8?0?5?8?$CF02d?8?0?5?$CFd?0@ ; `string'
PUBLIC	??_C@_08LMFOBNPO@nTaxKind?$AA@			; `string'
PUBLIC	??_C@_0ED@KONCKI@LoadTaxInfo?$CI?$CJ?5?9?5taxDetail?5is?5wro@ ; `string'
PUBLIC	??_C@_08BMLANHAF@nTaxRate?$AA@			; `string'
PUBLIC	??_C@_09PIHGBPHB@nTaxCount?$AA@			; `string'
PUBLIC	??_C@_08FPEBHLEN@nTaxGold?$AA@			; `string'
PUBLIC	??_C@_09BPDBKDAC@nTaxPerin?$AA@			; `string'
PUBLIC	??_C@_0N@CFHJAANA@nNextTaxRate?$AA@		; `string'
EXTRN	?GetStr@CQuery@@QAEXPAD0@Z:NEAR			; CQuery::GetStr
;	COMDAT ??_C@_0DC@HDFAFDC@TAX_INFO_STR?5?8S1?8?0?5?8?$CF02d?8?0?50?0?50?0@
; File c:\program files\microsoft visual studio .net 2003\vc7\include\xtree
CONST	SEGMENT
??_C@_0DC@HDFAFDC@TAX_INFO_STR?5?8S1?8?0?5?8?$CF02d?8?0?50?0?50?0@ DB 'TA'
	DB	'X_INFO_STR ''S1'', ''%02d'', 0, 0, ''0'', ''0'', 0, ''0''', 00H ; `string'
CONST	ENDS
;	COMDAT ??_C@_06DJGFEEME@nTimes?$AA@
CONST	SEGMENT
??_C@_06DJGFEEME@nTimes?$AA@ DB 'nTimes', 00H		; `string'
CONST	ENDS
;	COMDAT ??_C@_0L@MDNPPPLJ@GetNowDate?$AA@
CONST	SEGMENT
??_C@_0L@MDNPPPLJ@GetNowDate?$AA@ DB 'GetNowDate', 00H	; `string'
CONST	ENDS
;	COMDAT ??_C@_0DE@DAPHDHAC@TAX_INFO_STR?5?8S2?8?0?5?8?$CF02d?8?0?5?$CFd?0?5?$CF@
CONST	SEGMENT
??_C@_0DE@DAPHDHAC@TAX_INFO_STR?5?8S2?8?0?5?8?$CF02d?8?0?5?$CFd?0?5?$CF@ DB 'T'
	DB	'AX_INFO_STR ''S2'', ''%02d'', %d, %d, ''0'', ''0'', 0, ''0''', 00H ; `string'
CONST	ENDS
;	COMDAT ??_C@_04EINJHNAE@dwID?$AA@
CONST	SEGMENT
??_C@_04EINJHNAE@dwID?$AA@ DB 'dwID', 00H		; `string'
CONST	ENDS
;	COMDAT ??_C@_08DEEAJDDG@dwNextID?$AA@
CONST	SEGMENT
??_C@_08DEEAJDDG@dwNextID?$AA@ DB 'dwNextID', 00H	; `string'
CONST	ENDS
;	COMDAT ??_C@_0M@KKHJELKN@bSetTaxRate?$AA@
CONST	SEGMENT
??_C@_0M@KKHJELKN@bSetTaxRate?$AA@ DB 'bSetTaxRate', 00H ; `string'
CONST	ENDS
;	COMDAT ??_C@_0M@HHPEIMLI@change_time?$AA@
CONST	SEGMENT
??_C@_0M@HHPEIMLI@change_time?$AA@ DB 'change_time', 00H ; `string'
CONST	ENDS
;	COMDAT ??_C@_0DG@HDJLKLGO@TAX_DETAIL_STR?5?8S2?8?0?5?8?$CF02d?8?0?5?$CFd?0@
CONST	SEGMENT
??_C@_0DG@HDJLKLGO@TAX_DETAIL_STR?5?8S2?8?0?5?8?$CF02d?8?0?5?$CFd?0@ DB 'T'
	DB	'AX_DETAIL_STR ''S2'', ''%02d'', %d, %d, 0, 0, 0, 0, 0, 0', 00H ; `string'
CONST	ENDS
;	COMDAT ??_C@_08LMFOBNPO@nTaxKind?$AA@
CONST	SEGMENT
??_C@_08LMFOBNPO@nTaxKind?$AA@ DB 'nTaxKind', 00H	; `string'
CONST	ENDS
;	COMDAT ??_C@_08BMLANHAF@nTaxRate?$AA@
CONST	SEGMENT
??_C@_08BMLANHAF@nTaxRate?$AA@ DB 'nTaxRate', 00H	; `string'
CONST	ENDS
;	COMDAT ??_C@_09PIHGBPHB@nTaxCount?$AA@
CONST	SEGMENT
??_C@_09PIHGBPHB@nTaxCount?$AA@ DB 'nTaxCount', 00H	; `string'
CONST	ENDS
;	COMDAT ??_C@_08FPEBHLEN@nTaxGold?$AA@
CONST	SEGMENT
??_C@_08FPEBHLEN@nTaxGold?$AA@ DB 'nTaxGold', 00H	; `string'
CONST	ENDS
;	COMDAT ??_C@_09BPDBKDAC@nTaxPerin?$AA@
CONST	SEGMENT
??_C@_09BPDBKDAC@nTaxPerin?$AA@ DB 'nTaxPerin', 00H	; `string'
CONST	ENDS
;	COMDAT ??_C@_0N@CFHJAANA@nNextTaxRate?$AA@
CONST	SEGMENT
??_C@_0N@CFHJAANA@nNextTaxRate?$AA@ DB 'nNextTaxRate', 00H ; `string'
CONST	ENDS
;	COMDAT ??_C@_0ED@KONCKI@LoadTaxInfo?$CI?$CJ?5?9?5taxDetail?5is?5wro@
CONST	SEGMENT
??_C@_0ED@KONCKI@LoadTaxInfo?$CI?$CJ?5?9?5taxDetail?5is?5wro@ DB 'LoadTax'
	DB	'Info() - taxDetail is wrong, nContinent = %d, nTaxKind = %d', 00H ; `string'
; Function compile flags: /Ogty
; File c:\documents and settings\test\mes documents\source\virtuos_v17\build\program\_common\tax.cpp
CONST	ENDS
;	COMDAT ?LoadTaxInfo@CTaxDBController@@AAEXXZ
_TEXT	SEGMENT
_nTaxKind$208666 = -41010				; size = 1
_nContinent$208644 = -41009				; size = 1
$T226509 = -41008					; size = 4
_tax$ = -41004						; size = 4
_it$208637 = -41000					; size = 4
tv379 = -40996						; size = 4
$T226307 = -40992					; size = 4
$T226309 = -40988					; size = 4
_szDate$208659 = -40984					; size = 16
_szQuery$ = -40968					; size = 40960
__$ArrayPad$ = -4					; size = 4
__$ReturnAddr$ = 4					; size = 4
?LoadTaxInfo@CTaxDBController@@AAEXXZ PROC NEAR		; CTaxDBController::LoadTaxInfo, COMDAT
; _this$ = ecx

; 730  : {

  00000	55		 push	 ebp
  00001	8b ec		 mov	 ebp, esp
  00003	83 e4 f8	 and	 esp, -8			; fffffff8H
  00006	b8 34 a0 00 00	 mov	 eax, 41012		; 0000a034H
  0000b	e8 00 00 00 00	 call	 __chkstk
  00010	a1 00 00 00 00	 mov	 eax, DWORD PTR ___security_cookie
  00015	53		 push	 ebx
  00016	56		 push	 esi
  00017	33 c5		 xor	 eax, ebp
  00019	8b f1		 mov	 esi, ecx
  0001b	57		 push	 edi
  0001c	89 84 24 3c a0
	00 00		 mov	 DWORD PTR __$ArrayPad$[esp+41024], eax

; 731  : 	CTax* tax = CTax::GetInstance();

  00023	89 74 24 10	 mov	 DWORD PTR $T226509[esp+41024], esi
  00027	e8 00 00 00 00	 call	 ?GetInstance@CTax@@SAPAV1@XZ ; CTax::GetInstance

; 732  : 	CQuery* pQuery = GetQueryObject();

  0002c	8b 76 0c	 mov	 esi, DWORD PTR [esi+12]
  0002f	8b d8		 mov	 ebx, eax

; 733  : 
; 734  : 	char szQuery[QUERY_SIZE] = {0,};

  00031	33 c0		 xor	 eax, eax
  00033	c6 44 24 38 00	 mov	 BYTE PTR _szQuery$[esp+41024], 0
  00038	b9 ff 27 00 00	 mov	 ecx, 10239		; 000027ffH
  0003d	8d 7c 24 39	 lea	 edi, DWORD PTR _szQuery$[esp+41025]
  00041	f3 ab		 rep stosd
  00043	66 ab		 stosw
  00045	aa		 stosb

; 735  : 	//  
; 736  : 	sprintf( szQuery, "TAX_INFO_STR 'S1', '%02d', 0, 0, '0', '0', 0, '0'", g_appInfo.dwSys );

  00046	a1 00 00 00 00	 mov	 eax, DWORD PTR ?g_appInfo@@3UAppInfo@@A
  0004b	50		 push	 eax
  0004c	8d 4c 24 3c	 lea	 ecx, DWORD PTR _szQuery$[esp+41028]
  00050	68 00 00 00 00	 push	 OFFSET FLAT:??_C@_0DC@HDFAFDC@TAX_INFO_STR?5?8S1?8?0?5?8?$CF02d?8?0?50?0?50?0@
  00055	51		 push	 ecx
  00056	89 5c 24 20	 mov	 DWORD PTR _tax$[esp+41036], ebx
  0005a	e8 00 00 00 00	 call	 _sprintf
  0005f	83 c4 0c	 add	 esp, 12			; 0000000cH

; 737  : 	if( pQuery->Exec( szQuery ) == FALSE )

  00062	8d 54 24 38	 lea	 edx, DWORD PTR _szQuery$[esp+41024]
  00066	52		 push	 edx
  00067	8b ce		 mov	 ecx, esi
  00069	e8 00 00 00 00	 call	 ?Exec@CQuery@@QAEHPBD@Z	; CQuery::Exec
  0006e	85 c0		 test	 eax, eax
  00070	75 0f		 jne	 SHORT $L208631

; 738  : 	{ WriteLog( "%s, %d\t%s", __FILE__, __LINE__, szQuery ); return; }

  00072	8d 44 24 38	 lea	 eax, DWORD PTR _szQuery$[esp+41024]
  00076	50		 push	 eax
  00077	68 e2 02 00 00	 push	 738			; 000002e2H
  0007c	e9 d5 02 00 00	 jmp	 $L226524
$L208631:

; 739  : 	if( pQuery->Fetch() )

  00081	8b ce		 mov	 ecx, esi
  00083	e8 00 00 00 00	 call	 ?Fetch@CQuery@@QAEHXZ	; CQuery::Fetch
  00088	85 c0		 test	 eax, eax
  0008a	74 13		 je	 SHORT $L208632

; 740  : 		m_nTimes = pQuery->GetInt( "nTimes" );

  0008c	68 00 00 00 00	 push	 OFFSET FLAT:??_C@_06DJGFEEME@nTimes?$AA@
  00091	8b ce		 mov	 ecx, esi
  00093	e8 00 00 00 00	 call	 ?GetInt@CQuery@@QAEHPAD@Z ; CQuery::GetInt
  00098	8b 4c 24 10	 mov	 ecx, DWORD PTR $T226509[esp+41024]
  0009c	89 41 14	 mov	 DWORD PTR [ecx+20], eax
$L208632:

; 741  : 	
; 742  : 	if( m_nTimes <= 0 ) // DB   

  0009f	8b 54 24 10	 mov	 edx, DWORD PTR $T226509[esp+41024]
  000a3	8b 42 14	 mov	 eax, DWORD PTR [edx+20]
  000a6	85 c0		 test	 eax, eax
  000a8	7f 70		 jg	 SHORT $L208634

; 743  : 	{
; 744  : 		//   .
; 745  : 		if( tax->m_Lua.GetLuaFunction( "GetNowDate" ) )

  000aa	8d 7b 28	 lea	 edi, DWORD PTR [ebx+40]
  000ad	68 00 00 00 00	 push	 OFFSET FLAT:??_C@_0L@MDNPPPLJ@GetNowDate?$AA@
  000b2	8b cf		 mov	 ecx, edi
  000b4	e8 00 00 00 00	 call	 ?GetLuaFunction@CLuaBase@@QAEHPAD@Z ; CLuaBase::GetLuaFunction
  000b9	85 c0		 test	 eax, eax
  000bb	74 36		 je	 SHORT $L226330

; 746  : 		{
; 747  : 			tax->m_Lua.CallLuaFunction( 0, 1 );

  000bd	6a 01		 push	 1
  000bf	6a 00		 push	 0
  000c1	8b cf		 mov	 ecx, edi
  000c3	e8 00 00 00 00	 call	 ?CallLuaFunction@CLuaBase@@QAEXHH@Z ; CLuaBase::CallLuaFunction

; 748  : 			tax->m_strChangedDate = tax->m_Lua.ToString( -1 );

  000c8	8b 43 2c	 mov	 eax, DWORD PTR [ebx+44]
  000cb	6a 00		 push	 0
  000cd	6a ff		 push	 -1
  000cf	50		 push	 eax
  000d0	e8 00 00 00 00	 call	 _lua_tolstring
  000d5	8b f0		 mov	 esi, eax
  000d7	8b ce		 mov	 ecx, esi
  000d9	83 c4 0c	 add	 esp, 12			; 0000000cH
  000dc	8d 51 01	 lea	 edx, DWORD PTR [ecx+1]
  000df	90		 npad	 1
$L226518:
  000e0	8a 01		 mov	 al, BYTE PTR [ecx]
  000e2	41		 inc	 ecx
  000e3	84 c0		 test	 al, al
  000e5	75 f9		 jne	 SHORT $L226518
  000e7	2b ca		 sub	 ecx, edx
  000e9	51		 push	 ecx
  000ea	56		 push	 esi
  000eb	8d 4b 4c	 lea	 ecx, DWORD PTR [ebx+76]
  000ee	e8 00 00 00 00	 call	 ?assign@?$basic_string@DU?$char_traits@D@std@@V?$allocator@D@2@@std@@QAEAAV12@PBDI@Z ; std::basic_string<char,std::char_traits<char>,std::allocator<char> >::assign
$L226330:

; 749  : 		}
; 750  : 		tax->m_Lua.Pop(0);

  000f3	6a 00		 push	 0
  000f5	8b cf		 mov	 ecx, edi
  000f7	e8 00 00 00 00	 call	 ?Pop@CLuaBase@@QAEXH@Z	; CLuaBase::Pop

; 751  : 
; 752  : 		InsertToDB();	// dummy() insert .

  000fc	8b 4c 24 10	 mov	 ecx, DWORD PTR $T226509[esp+41024]
  00100	e8 00 00 00 00	 call	 ?InsertToDB@CTaxDBController@@AAEXXZ ; CTaxDBController::InsertToDB

; 795  : 		}
; 796  : 	}
; 797  : }

  00105	5f		 pop	 edi
  00106	5e		 pop	 esi
  00107	5b		 pop	 ebx
  00108	8b 8c 24 30 a0
	00 00		 mov	 ecx, DWORD PTR __$ArrayPad$[esp+41012]
  0010f	33 cd		 xor	 ecx, ebp
  00111	e8 00 00 00 00	 call	 @__security_check_cookie@4
  00116	8b e5		 mov	 esp, ebp
  00118	5d		 pop	 ebp
  00119	c3		 ret	 0
$L208634:

; 753  : 		return;
; 754  : 	}
; 755  : 
; 756  : 	for( TAXINFOMAP::iterator it=tax->m_mapTaxInfo.begin(); it!=tax->m_mapTaxInfo.end(); it++ )

  0011a	8b 5b 0c	 mov	 ebx, DWORD PTR [ebx+12]
  0011d	8b 03		 mov	 eax, DWORD PTR [ebx]
  0011f	3b c3		 cmp	 eax, ebx
  00121	89 44 24 18	 mov	 DWORD PTR _it$208637[esp+41024], eax
  00125	0f 84 6b 02 00
	00		 je	 $L208643
  0012b	eb 03 8d 49 00	 npad	 5
$L226375:

; 757  : 	{
; 758  : 		// DB  row   .
; 759  : 		BYTE nContinent = it->first;

  00130	8a 48 0c	 mov	 cl, BYTE PTR [eax+12]

; 760  : 		__TAXINFO* taxInfo = it->second;

  00133	8b 58 10	 mov	 ebx, DWORD PTR [eax+16]

; 761  : 		
; 762  : 		sprintf( szQuery, "TAX_INFO_STR 'S2', '%02d', %d, %d, '0', '0', 0, '0'", g_appInfo.dwSys, m_nTimes, nContinent );

  00136	a1 00 00 00 00	 mov	 eax, DWORD PTR ?g_appInfo@@3UAppInfo@@A
  0013b	0f b6 f9	 movzx	 edi, cl
  0013e	88 4c 24 0f	 mov	 BYTE PTR _nContinent$208644[esp+41024], cl
  00142	8b 4c 24 10	 mov	 ecx, DWORD PTR $T226509[esp+41024]
  00146	8b 51 14	 mov	 edx, DWORD PTR [ecx+20]
  00149	57		 push	 edi
  0014a	52		 push	 edx
  0014b	50		 push	 eax
  0014c	8d 4c 24 44	 lea	 ecx, DWORD PTR _szQuery$[esp+41036]
  00150	68 00 00 00 00	 push	 OFFSET FLAT:??_C@_0DE@DAPHDHAC@TAX_INFO_STR?5?8S2?8?0?5?8?$CF02d?8?0?5?$CFd?0?5?$CF@
  00155	51		 push	 ecx
  00156	89 7c 24 30	 mov	 DWORD PTR tv379[esp+41044], edi
  0015a	e8 00 00 00 00	 call	 _sprintf
  0015f	83 c4 14	 add	 esp, 20			; 00000014H

; 763  : 		if( pQuery->Exec( szQuery ) == FALSE )

  00162	8d 54 24 38	 lea	 edx, DWORD PTR _szQuery$[esp+41024]
  00166	52		 push	 edx
  00167	8b ce		 mov	 ecx, esi
  00169	e8 00 00 00 00	 call	 ?Exec@CQuery@@QAEHPBD@Z	; CQuery::Exec
  0016e	85 c0		 test	 eax, eax
  00170	0f 84 ca 01 00
	00		 je	 $L226514

; 765  : 		while( pQuery->Fetch() )

  00176	8b ce		 mov	 ecx, esi
  00178	e8 00 00 00 00	 call	 ?Fetch@CQuery@@QAEHXZ	; CQuery::Fetch
  0017d	85 c0		 test	 eax, eax
  0017f	0f 84 a9 00 00
	00		 je	 $L208650
  00185	8b 7c 24 14	 mov	 edi, DWORD PTR _tax$[esp+41024]
  00189	83 c7 4c	 add	 edi, 76			; 0000004cH
  0018c	8d 64 24 00	 npad	 4
$L208649:

; 766  : 		{
; 767  : 			taxInfo->dwId = static_cast<DWORD>( pQuery->GetInt( "dwID" ) );

  00190	68 00 00 00 00	 push	 OFFSET FLAT:??_C@_04EINJHNAE@dwID?$AA@
  00195	8b ce		 mov	 ecx, esi
  00197	e8 00 00 00 00	 call	 ?GetInt@CQuery@@QAEHPAD@Z ; CQuery::GetInt

; 768  : 			if( taxInfo->dwId == 0 ) taxInfo->dwId = NULL_ID;

  0019c	85 c0		 test	 eax, eax
  0019e	89 03		 mov	 DWORD PTR [ebx], eax
  001a0	75 06		 jne	 SHORT $L208653
  001a2	c7 03 ff ff ff
	ff		 mov	 DWORD PTR [ebx], -1
$L208653:

; 769  : 			taxInfo->dwNextId = static_cast<DWORD>( pQuery->GetInt( "dwNextID" ) );

  001a8	68 00 00 00 00	 push	 OFFSET FLAT:??_C@_08DEEAJDDG@dwNextID?$AA@
  001ad	8b ce		 mov	 ecx, esi
  001af	e8 00 00 00 00	 call	 ?GetInt@CQuery@@QAEHPAD@Z ; CQuery::GetInt

; 770  : 			if( taxInfo->dwNextId == 0 ) taxInfo->dwNextId = NULL_ID;

  001b4	85 c0		 test	 eax, eax
  001b6	89 43 14	 mov	 DWORD PTR [ebx+20], eax
  001b9	75 07		 jne	 SHORT $L208656
  001bb	c7 43 14 ff ff
	ff ff		 mov	 DWORD PTR [ebx+20], -1
$L208656:

; 771  : 			taxInfo->bSetTaxRate = static_cast<BOOL>( pQuery->GetInt( "bSetTaxRate" ) );

  001c2	68 00 00 00 00	 push	 OFFSET FLAT:??_C@_0M@KKHJELKN@bSetTaxRate?$AA@
  001c7	8b ce		 mov	 ecx, esi
  001c9	e8 00 00 00 00	 call	 ?GetInt@CQuery@@QAEHPAD@Z ; CQuery::GetInt
  001ce	89 43 04	 mov	 DWORD PTR [ebx+4], eax

; 772  : 			char szDate[16] = {0,}; pQuery->GetStr( "change_time", szDate );

  001d1	33 c0		 xor	 eax, eax
  001d3	89 44 24 29	 mov	 DWORD PTR _szDate$208659[esp+41025], eax
  001d7	89 44 24 2d	 mov	 DWORD PTR _szDate$208659[esp+41029], eax
  001db	8d 4c 24 28	 lea	 ecx, DWORD PTR _szDate$208659[esp+41024]
  001df	89 44 24 31	 mov	 DWORD PTR _szDate$208659[esp+41033], eax
  001e3	51		 push	 ecx
  001e4	66 89 44 24 39	 mov	 WORD PTR _szDate$208659[esp+41041], ax
  001e9	68 00 00 00 00	 push	 OFFSET FLAT:??_C@_0M@HHPEIMLI@change_time?$AA@
  001ee	8b ce		 mov	 ecx, esi
  001f0	c6 44 24 30 00	 mov	 BYTE PTR _szDate$208659[esp+41032], 0
  001f5	88 44 24 3f	 mov	 BYTE PTR _szDate$208659[esp+41047], al
  001f9	e8 00 00 00 00	 call	 ?GetStr@CQuery@@QAEXPAD0@Z ; CQuery::GetStr

; 773  : 			tax->m_strChangedDate = szDate;

  001fe	8d 44 24 28	 lea	 eax, DWORD PTR _szDate$208659[esp+41024]
  00202	8d 50 01	 lea	 edx, DWORD PTR [eax+1]
$L226519:
  00205	8a 08		 mov	 cl, BYTE PTR [eax]
  00207	40		 inc	 eax
  00208	84 c9		 test	 cl, cl
  0020a	75 f9		 jne	 SHORT $L226519
  0020c	2b c2		 sub	 eax, edx
  0020e	50		 push	 eax
  0020f	8d 54 24 2c	 lea	 edx, DWORD PTR _szDate$208659[esp+41028]
  00213	52		 push	 edx
  00214	8b cf		 mov	 ecx, edi
  00216	e8 00 00 00 00	 call	 ?assign@?$basic_string@DU?$char_traits@D@std@@V?$allocator@D@2@@std@@QAEAAV12@PBDI@Z ; std::basic_string<char,std::char_traits<char>,std::allocator<char> >::assign
  0021b	8b ce		 mov	 ecx, esi
  0021d	e8 00 00 00 00	 call	 ?Fetch@CQuery@@QAEHXZ	; CQuery::Fetch
  00222	85 c0		 test	 eax, eax
  00224	0f 85 66 ff ff
	ff		 jne	 $L208649

; 765  : 		while( pQuery->Fetch() )

  0022a	8b 7c 24 1c	 mov	 edi, DWORD PTR tv379[esp+41024]
$L208650:

; 774  : 		}
; 775  : 	
; 776  : 		//  
; 777  : 		sprintf( szQuery, "TAX_DETAIL_STR 'S2', '%02d', %d, %d, 0, 0, 0, 0, 0, 0", g_appInfo.dwSys, m_nTimes, nContinent );

  0022e	8b 44 24 10	 mov	 eax, DWORD PTR $T226509[esp+41024]
  00232	8b 48 14	 mov	 ecx, DWORD PTR [eax+20]
  00235	8b 15 00 00 00
	00		 mov	 edx, DWORD PTR ?g_appInfo@@3UAppInfo@@A
  0023b	57		 push	 edi
  0023c	51		 push	 ecx
  0023d	52		 push	 edx
  0023e	8d 44 24 44	 lea	 eax, DWORD PTR _szQuery$[esp+41036]
  00242	68 00 00 00 00	 push	 OFFSET FLAT:??_C@_0DG@HDJLKLGO@TAX_DETAIL_STR?5?8S2?8?0?5?8?$CF02d?8?0?5?$CFd?0@
  00247	50		 push	 eax
  00248	e8 00 00 00 00	 call	 _sprintf
  0024d	83 c4 14	 add	 esp, 20			; 00000014H

; 778  : 		if( pQuery->Exec( szQuery ) == FALSE )

  00250	8d 4c 24 38	 lea	 ecx, DWORD PTR _szQuery$[esp+41024]
  00254	51		 push	 ecx
  00255	8b ce		 mov	 ecx, esi
  00257	e8 00 00 00 00	 call	 ?Exec@CQuery@@QAEHPBD@Z	; CQuery::Exec
  0025c	85 c0		 test	 eax, eax
  0025e	0f 84 e8 00 00
	00		 je	 $L226515

; 780  : 		while( pQuery->Fetch() )

  00264	8b ce		 mov	 ecx, esi
  00266	e8 00 00 00 00	 call	 ?Fetch@CQuery@@QAEHXZ	; CQuery::Fetch
  0026b	85 c0		 test	 eax, eax
  0026d	0f 84 9e 00 00
	00		 je	 $L208642
$L208664:

; 781  : 		{
; 782  : 			BYTE nTaxKind = static_cast<BYTE>( pQuery->GetInt( "nTaxKind" ) );

  00273	68 00 00 00 00	 push	 OFFSET FLAT:??_C@_08LMFOBNPO@nTaxKind?$AA@
  00278	8b ce		 mov	 ecx, esi
  0027a	e8 00 00 00 00	 call	 ?GetInt@CQuery@@QAEHPAD@Z ; CQuery::GetInt

; 783  : 			if( taxInfo->mapTaxDetail.find(nTaxKind) == taxInfo->mapTaxDetail.end() )

  0027f	8d 54 24 0e	 lea	 edx, DWORD PTR _nTaxKind$208666[esp+41024]
  00283	88 44 24 0e	 mov	 BYTE PTR _nTaxKind$208666[esp+41024], al
  00287	52		 push	 edx
  00288	8d 44 24 24	 lea	 eax, DWORD PTR $T226307[esp+41028]
  0028c	8d 7b 08	 lea	 edi, DWORD PTR [ebx+8]
  0028f	50		 push	 eax
  00290	8b cf		 mov	 ecx, edi
  00292	e8 00 00 00 00	 call	 ?find@?$_Tree@V?$_Tmap_traits@EPAU__TAXDETAIL@@U?$less@E@std@@V?$allocator@U?$pair@$$CBEPAU__TAXDETAIL@@@std@@@3@$0A@@std@@@std@@QAE?AViterator@12@ABE@Z ; std::_Tree<std::_Tmap_traits<unsigned char,__TAXDETAIL *,std::less<unsigned char>,std::allocator<std::pair<unsigned char const ,__TAXDETAIL *> >,0> >::find
  00297	8b 08		 mov	 ecx, DWORD PTR [eax]
  00299	3b 4b 0c	 cmp	 ecx, DWORD PTR [ebx+12]
  0029c	0f 84 db 00 00
	00		 je	 $L226513

; 786  : 				return;
; 787  : 			}
; 788  : 
; 789  : 			__TAXDETAIL* taxDetail = taxInfo->mapTaxDetail.find(nTaxKind)->second;

  002a2	8d 54 24 0e	 lea	 edx, DWORD PTR _nTaxKind$208666[esp+41024]
  002a6	52		 push	 edx
  002a7	8d 44 24 28	 lea	 eax, DWORD PTR $T226309[esp+41028]
  002ab	50		 push	 eax
  002ac	8b cf		 mov	 ecx, edi
  002ae	e8 00 00 00 00	 call	 ?find@?$_Tree@V?$_Tmap_traits@EPAU__TAXDETAIL@@U?$less@E@std@@V?$allocator@U?$pair@$$CBEPAU__TAXDETAIL@@@std@@@3@$0A@@std@@@std@@QAE?AViterator@12@ABE@Z ; std::_Tree<std::_Tmap_traits<unsigned char,__TAXDETAIL *,std::less<unsigned char>,std::allocator<std::pair<unsigned char const ,__TAXDETAIL *> >,0> >::find
  002b3	8b 08		 mov	 ecx, DWORD PTR [eax]
  002b5	8b 79 10	 mov	 edi, DWORD PTR [ecx+16]

; 790  : 			taxDetail->nTaxRate = pQuery->GetInt( "nTaxRate" );

  002b8	68 00 00 00 00	 push	 OFFSET FLAT:??_C@_08BMLANHAF@nTaxRate?$AA@
  002bd	8b ce		 mov	 ecx, esi
  002bf	e8 00 00 00 00	 call	 ?GetInt@CQuery@@QAEHPAD@Z ; CQuery::GetInt

; 791  : 			taxDetail->nTaxCount = pQuery->GetInt( "nTaxCount" );

  002c4	68 00 00 00 00	 push	 OFFSET FLAT:??_C@_09PIHGBPHB@nTaxCount?$AA@
  002c9	8b ce		 mov	 ecx, esi
  002cb	89 07		 mov	 DWORD PTR [edi], eax
  002cd	e8 00 00 00 00	 call	 ?GetInt@CQuery@@QAEHPAD@Z ; CQuery::GetInt

; 792  : 			taxDetail->nTaxGold = pQuery->GetInt( "nTaxGold" );

  002d2	68 00 00 00 00	 push	 OFFSET FLAT:??_C@_08FPEBHLEN@nTaxGold?$AA@
  002d7	8b ce		 mov	 ecx, esi
  002d9	89 47 04	 mov	 DWORD PTR [edi+4], eax
  002dc	e8 00 00 00 00	 call	 ?GetInt@CQuery@@QAEHPAD@Z ; CQuery::GetInt

; 793  : 			taxDetail->nTaxPerin = pQuery->GetInt( "nTaxPerin" );

  002e1	68 00 00 00 00	 push	 OFFSET FLAT:??_C@_09BPDBKDAC@nTaxPerin?$AA@
  002e6	8b ce		 mov	 ecx, esi
  002e8	89 47 08	 mov	 DWORD PTR [edi+8], eax
  002eb	e8 00 00 00 00	 call	 ?GetInt@CQuery@@QAEHPAD@Z ; CQuery::GetInt

; 794  : 			taxDetail->nNextTaxRate = pQuery->GetInt( "nNextTaxRate" );

  002f0	68 00 00 00 00	 push	 OFFSET FLAT:??_C@_0N@CFHJAANA@nNextTaxRate?$AA@
  002f5	8b ce		 mov	 ecx, esi
  002f7	89 47 0c	 mov	 DWORD PTR [edi+12], eax
  002fa	e8 00 00 00 00	 call	 ?GetInt@CQuery@@QAEHPAD@Z ; CQuery::GetInt
  002ff	8b ce		 mov	 ecx, esi
  00301	89 47 10	 mov	 DWORD PTR [edi+16], eax
  00304	e8 00 00 00 00	 call	 ?Fetch@CQuery@@QAEHXZ	; CQuery::Fetch
  00309	85 c0		 test	 eax, eax
  0030b	0f 85 62 ff ff
	ff		 jne	 $L208664
$L208642:

; 753  : 		return;
; 754  : 	}
; 755  : 
; 756  : 	for( TAXINFOMAP::iterator it=tax->m_mapTaxInfo.begin(); it!=tax->m_mapTaxInfo.end(); it++ )

  00311	8d 4c 24 18	 lea	 ecx, DWORD PTR _it$208637[esp+41024]
  00315	e8 00 00 00 00	 call	 ?_Inc@const_iterator@?$_Tree@V?$_Tmap_traits@EPAU__TAXINFO@@U?$less@E@std@@V?$allocator@U?$pair@$$CBEPAU__TAXINFO@@@std@@@3@$0A@@std@@@std@@QAEXXZ ; std::_Tree<std::_Tmap_traits<unsigned char,__TAXINFO *,std::less<unsigned char>,std::allocator<std::pair<unsigned char const ,__TAXINFO *> >,0> >::const_iterator::_Inc
  0031a	8b 54 24 14	 mov	 edx, DWORD PTR _tax$[esp+41024]
  0031e	8b 44 24 18	 mov	 eax, DWORD PTR _it$208637[esp+41024]
  00322	3b 42 0c	 cmp	 eax, DWORD PTR [edx+12]
  00325	0f 85 05 fe ff
	ff		 jne	 $L226375

; 795  : 		}
; 796  : 	}
; 797  : }

  0032b	5f		 pop	 edi
  0032c	5e		 pop	 esi
  0032d	5b		 pop	 ebx
  0032e	8b 8c 24 30 a0
	00 00		 mov	 ecx, DWORD PTR __$ArrayPad$[esp+41012]
  00335	33 cd		 xor	 ecx, ebp
  00337	e8 00 00 00 00	 call	 @__security_check_cookie@4
  0033c	8b e5		 mov	 esp, ebp
  0033e	5d		 pop	 ebp
  0033f	c3		 ret	 0
$L226514:

; 764  : 		{ WriteLog( "%s, %d\t%s", __FILE__, __LINE__, szQuery ); return; }

  00340	8d 44 24 38	 lea	 eax, DWORD PTR _szQuery$[esp+41024]
  00344	50		 push	 eax
  00345	68 fc 02 00 00	 push	 764			; 000002fcH
  0034a	eb 0a		 jmp	 SHORT $L226524
$L226515:

; 779  : 		{ WriteLog( "%s, %d\t%s", __FILE__, __LINE__, szQuery ); return; }

  0034c	8d 4c 24 38	 lea	 ecx, DWORD PTR _szQuery$[esp+41024]
  00350	51		 push	 ecx
  00351	68 0b 03 00 00	 push	 779			; 0000030bH
$L226524:
  00356	68 00 00 00 00	 push	 OFFSET FLAT:??_C@_0FM@HFNCOCNE@?2Documents?5and?5Settings?2test?2Mes@
  0035b	68 00 00 00 00	 push	 OFFSET FLAT:??_C@_09GBAEEKDE@?$CFs?0?5?$CFd?7?$CFs?$AA@
  00360	e8 00 00 00 00	 call	 ?WriteLog@@YAXPBDZZ	; WriteLog
  00365	83 c4 10	 add	 esp, 16			; 00000010H

; 795  : 		}
; 796  : 	}
; 797  : }

  00368	5f		 pop	 edi
  00369	5e		 pop	 esi
  0036a	5b		 pop	 ebx
  0036b	8b 8c 24 30 a0
	00 00		 mov	 ecx, DWORD PTR __$ArrayPad$[esp+41012]
  00372	33 cd		 xor	 ecx, ebp
  00374	e8 00 00 00 00	 call	 @__security_check_cookie@4
  00379	8b e5		 mov	 esp, ebp
  0037b	5d		 pop	 ebp
  0037c	c3		 ret	 0
$L226513:

; 784  : 			{
; 785  : 				WriteLog( "LoadTaxInfo() - taxDetail is wrong, nContinent = %d, nTaxKind = %d", nContinent, nTaxKind );

  0037d	0f b6 54 24 0e	 movzx	 edx, BYTE PTR _nTaxKind$208666[esp+41024]
  00382	0f b6 44 24 0f	 movzx	 eax, BYTE PTR _nContinent$208644[esp+41024]
  00387	52		 push	 edx
  00388	50		 push	 eax
  00389	68 00 00 00 00	 push	 OFFSET FLAT:??_C@_0ED@KONCKI@LoadTaxInfo?$CI?$CJ?5?9?5taxDetail?5is?5wro@
  0038e	e8 00 00 00 00	 call	 ?WriteLog@@YAXPBDZZ	; WriteLog
  00393	83 c4 0c	 add	 esp, 12			; 0000000cH
$L208643:

; 795  : 		}
; 796  : 	}
; 797  : }

  00396	8b 8c 24 3c a0
	00 00		 mov	 ecx, DWORD PTR __$ArrayPad$[esp+41024]
  0039d	5f		 pop	 edi
  0039e	5e		 pop	 esi
  0039f	33 cd		 xor	 ecx, ebp
  003a1	5b		 pop	 ebx
  003a2	e8 00 00 00 00	 call	 @__security_check_cookie@4
  003a7	8b e5		 mov	 esp, ebp
  003a9	5d		 pop	 ebp
  003aa	c3		 ret	 0
?LoadTaxInfo@CTaxDBController@@AAEXXZ ENDP		; CTaxDBController::LoadTaxInfo
_TEXT	ENDS
EXTRN	?GetInstance@CDPTrans@@SAPAV1@XZ:NEAR		; CDPTrans::GetInstance
EXTRN	?SendTaxInfo@CDPTrans@@QAEXKHH@Z:NEAR		; CDPTrans::SendTaxInfo
EXTRN	??0CAr@@QAE@PAXI@Z:NEAR				; CAr::CAr
EXTRN	??1CAr@@QAE@XZ:NEAR				; CAr::~CAr
;	COMDAT xdata$x
xdata$x	SEGMENT
$T226541 DD	0ffffffffH
	DD	FLAT:$L226527
	DD	0ffffffffH
	DD	FLAT:$L226528
	DD	0ffffffffH
	DD	FLAT:$L226529
	DD	0ffffffffH
	DD	FLAT:$L226530
$T226534 DD	019930520H
	DD	04H
	DD	FLAT:$T226541
	DD	2 DUP(00H)
	DD	2 DUP(00H)
; Function compile flags: /Ogty
xdata$x	ENDS
;	COMDAT ?Handler@CTaxDBController@@UAEXPAUtagDB_OVERLAPPED_PLUS@@K@Z
_TEXT	SEGMENT
_nCont$208540 = -32836					; size = 1
_nTax$208556 = -32836					; size = 4
_nPurchaseTaxRate$208551 = -32836			; size = 4
_dwIdPlayer$208545 = -32836				; size = 4
_nCont$208554 = -32832					; size = 1
_nSalesTaxRate$208550 = -32832				; size = 4
_dwGuildId$208541 = -32832				; size = 4
_nTaxKind$208555 = -32828				; size = 1
_nCont$208549 = -32828					; size = 1
_ar$208548 = -32824					; size = 16404
_ar$208544 = -32824					; size = 16404
_ar$208539 = -32824					; size = 16404
_ar$208553 = -16420					; size = 16404
__$ArrayPad$ = -16					; size = 4
__$EHRec$ = -12						; size = 12
__$ReturnAddr$ = 4					; size = 4
_pov$ = 8						; size = 4
_dwCompletionKey$ = 12					; size = 4
?Handler@CTaxDBController@@UAEXPAUtagDB_OVERLAPPED_PLUS@@K@Z PROC NEAR ; CTaxDBController::Handler, COMDAT
; _this$ = ecx

; 558  : {

  00000	6a ff		 push	 -1
  00002	64 a1 00 00 00
	00		 mov	 eax, DWORD PTR fs:__except_list
  00008	68 00 00 00 00	 push	 __ehhandler$?Handler@CTaxDBController@@UAEXPAUtagDB_OVERLAPPED_PLUS@@K@Z
  0000d	50		 push	 eax
  0000e	b8 38 80 00 00	 mov	 eax, 32824		; 00008038H
  00013	64 89 25 00 00
	00 00		 mov	 DWORD PTR fs:__except_list, esp
  0001a	e8 00 00 00 00	 call	 __chkstk
  0001f	a1 00 00 00 00	 mov	 eax, DWORD PTR ___security_cookie
  00024	33 c4		 xor	 eax, esp
  00026	89 84 24 34 80
	00 00		 mov	 DWORD PTR __$ArrayPad$[esp+32836], eax
  0002d	8b 84 24 48 80
	00 00		 mov	 eax, DWORD PTR _pov$[esp+32832]
  00034	56		 push	 esi
  00035	8b f1		 mov	 esi, ecx

; 559  : 	switch( pov->nQueryMode )

  00037	8b 48 14	 mov	 ecx, DWORD PTR [eax+20]
  0003a	83 f9 06	 cmp	 ecx, 6
  0003d	0f 87 59 02 00
	00		 ja	 $L208531
  00043	57		 push	 edi
  00044	ff 24 8d 00 00
	00 00		 jmp	 DWORD PTR $L226540[ecx*4]
$L208534:

; 560  : 	{
; 561  : 		case QUERY_TAX_LOAD :
; 562  : 			{
; 563  : 				if( !m_bLoadTaxInfo )	// DB  ...

  0004b	8b 46 18	 mov	 eax, DWORD PTR [esi+24]
  0004e	85 c0		 test	 eax, eax
  00050	75 0e		 jne	 SHORT $L208535

; 564  : 				{
; 565  : 					LoadTaxInfo();

  00052	8b ce		 mov	 ecx, esi
  00054	e8 00 00 00 00	 call	 ?LoadTaxInfo@CTaxDBController@@AAEXXZ ; CTaxDBController::LoadTaxInfo

; 566  : 					m_bLoadTaxInfo = TRUE;

  00059	c7 46 18 01 00
	00 00		 mov	 DWORD PTR [esi+24], 1
$L208535:

; 567  : 				}
; 568  : 				CDPTrans::GetInstance()->SendTaxInfo( dwCompletionKey, TRUE );

  00060	8b 84 24 54 80
	00 00		 mov	 eax, DWORD PTR _dwCompletionKey$[esp+32840]
  00067	6a 00		 push	 0
  00069	6a 01		 push	 1
  0006b	50		 push	 eax
  0006c	e8 00 00 00 00	 call	 ?GetInstance@CDPTrans@@SAPAV1@XZ ; CDPTrans::GetInstance
  00071	8b c8		 mov	 ecx, eax
  00073	e8 00 00 00 00	 call	 ?SendTaxInfo@CDPTrans@@QAEXKHH@Z ; CDPTrans::SendTaxInfo

; 569  : 			}
; 570  : 			break;

  00078	e9 1e 02 00 00	 jmp	 $L226537
$L208536:

; 571  : 
; 572  : 		case QUERY_TAX_PAY :	
; 573  : 			{
; 574  : 				PayTaxToPost();

  0007d	8b ce		 mov	 ecx, esi
  0007f	e8 00 00 00 00	 call	 ?PayTaxToPost@CTaxDBController@@AAEXXZ ; CTaxDBController::PayTaxToPost

; 575  : 				UpdateAllToDB(); //     .

  00084	8b ce		 mov	 ecx, esi
  00086	e8 00 00 00 00	 call	 ?UpdateAllToDB@CTaxDBController@@AAEXXZ ; CTaxDBController::UpdateAllToDB

; 576  : 			}
; 577  : 			break;

  0008b	e9 0b 02 00 00	 jmp	 $L226537
$L208537:

; 578  : 		
; 579  : 		case QUERY_TAX_CHANGENEXT :
; 580  : 			{
; 581  : 				CTax::GetInstance()->SetChangeNextTax();

  00090	e8 00 00 00 00	 call	 ?GetInstance@CTax@@SAPAV1@XZ ; CTax::GetInstance
  00095	8b c8		 mov	 ecx, eax
  00097	e8 00 00 00 00	 call	 ?SetChangeNextTax@CTax@@QAEXXZ ; CTax::SetChangeNextTax

; 582  : 				CDPTrans::GetInstance()->SendTaxInfo( DPID_ALLPLAYERS, FALSE, TRUE ); // WorldServer 

  0009c	6a 01		 push	 1
  0009e	6a 00		 push	 0
  000a0	6a 00		 push	 0
  000a2	e8 00 00 00 00	 call	 ?GetInstance@CDPTrans@@SAPAV1@XZ ; CDPTrans::GetInstance
  000a7	8b c8		 mov	 ecx, eax
  000a9	e8 00 00 00 00	 call	 ?SendTaxInfo@CDPTrans@@QAEXKHH@Z ; CDPTrans::SendTaxInfo

; 583  : 				InsertToDB();		//   DB  

  000ae	8b ce		 mov	 ecx, esi
  000b0	e8 00 00 00 00	 call	 ?InsertToDB@CTaxDBController@@AAEXXZ ; CTaxDBController::InsertToDB

; 584  : 			}
; 585  : 			break;

  000b5	e9 e1 01 00 00	 jmp	 $L226537
$L208538:

; 586  : 
; 587  : 		
; 588  : 		case QUERY_TAX_SETNEXT_SECRETROOMWINGUILD :
; 589  : 			{
; 590  : 				CAr ar( pov->lpBuf, pov->uBufSize );

  000ba	8b 48 1c	 mov	 ecx, DWORD PTR [eax+28]
  000bd	8b 50 18	 mov	 edx, DWORD PTR [eax+24]
  000c0	51		 push	 ecx
  000c1	52		 push	 edx
  000c2	8d 4c 24 1c	 lea	 ecx, DWORD PTR _ar$208539[esp+32852]
  000c6	e8 00 00 00 00	 call	 ??0CAr@@QAE@PAXI@Z	; CAr::CAr

; 591  : 				BYTE nCont;
; 592  : 				DWORD dwGuildId;
; 593  : 				ar >> nCont >> dwGuildId;

  000cb	8d 44 24 0c	 lea	 eax, DWORD PTR _dwGuildId$208541[esp+32844]
  000cf	50		 push	 eax
  000d0	8d 4c 24 0c	 lea	 ecx, DWORD PTR _nCont$208540[esp+32848]
  000d4	51		 push	 ecx
  000d5	8d 4c 24 1c	 lea	 ecx, DWORD PTR _ar$208539[esp+32852]
  000d9	c7 84 24 50 80
	00 00 00 00 00
	00		 mov	 DWORD PTR __$EHRec$[esp+32860], 0
  000e4	e8 00 00 00 00	 call	 ??5CAr@@QAEAAV0@AAE@Z	; CAr::operator>>
  000e9	8b c8		 mov	 ecx, eax
  000eb	e8 00 00 00 00	 call	 ??5CAr@@QAEAAV0@AAK@Z	; CAr::operator>>

; 594  : 				CTax::GetInstance()->SetNextSecretRoomGuild( nCont, dwGuildId );

  000f0	8b 54 24 0c	 mov	 edx, DWORD PTR _dwGuildId$208541[esp+32844]
  000f4	8b 7c 24 08	 mov	 edi, DWORD PTR _nCont$208540[esp+32844]
  000f8	52		 push	 edx
  000f9	57		 push	 edi
  000fa	e8 00 00 00 00	 call	 ?GetInstance@CTax@@SAPAV1@XZ ; CTax::GetInstance
  000ff	8b c8		 mov	 ecx, eax
  00101	e8 00 00 00 00	 call	 ?SetNextSecretRoomGuild@CTax@@QAEXEK@Z ; CTax::SetNextSecretRoomGuild

; 595  : 				CDPTrans::GetInstance()->SendTaxInfo( DPID_ALLPLAYERS );
; 596  : 				UpdateToDB( nCont );
; 597  : 			}
; 598  : 			break;

  00106	e9 eb 00 00 00	 jmp	 $L226539
$L208542:

; 599  : 		
; 600  : 		case QUERY_TAX_SETNEXT_LORD :
; 601  : 			{
; 602  : 				if( dwCompletionKey == 0 )

  0010b	8b 8c 24 54 80
	00 00		 mov	 ecx, DWORD PTR _dwCompletionKey$[esp+32840]
  00112	85 c9		 test	 ecx, ecx
  00114	75 51		 jne	 SHORT $L208543

; 603  : 				{
; 604  : 					CAr ar( pov->lpBuf, pov->uBufSize );

  00116	8b 48 1c	 mov	 ecx, DWORD PTR [eax+28]
  00119	8b 50 18	 mov	 edx, DWORD PTR [eax+24]
  0011c	51		 push	 ecx
  0011d	52		 push	 edx
  0011e	8d 4c 24 1c	 lea	 ecx, DWORD PTR _ar$208544[esp+32852]
  00122	e8 00 00 00 00	 call	 ??0CAr@@QAE@PAXI@Z	; CAr::CAr

; 605  : 					DWORD dwIdPlayer;
; 606  : 					ar >> dwIdPlayer;

  00127	8d 44 24 08	 lea	 eax, DWORD PTR _dwIdPlayer$208545[esp+32844]
  0012b	50		 push	 eax
  0012c	8d 4c 24 18	 lea	 ecx, DWORD PTR _ar$208544[esp+32848]
  00130	c7 84 24 4c 80
	00 00 01 00 00
	00		 mov	 DWORD PTR __$EHRec$[esp+32856], 1
  0013b	e8 00 00 00 00	 call	 ??5CAr@@QAEAAV0@AAK@Z	; CAr::operator>>

; 607  : 					CTax::GetInstance()->SetNextLord( dwIdPlayer );

  00140	8b 4c 24 08	 mov	 ecx, DWORD PTR _dwIdPlayer$208545[esp+32844]
  00144	51		 push	 ecx
  00145	e8 00 00 00 00	 call	 ?GetInstance@CTax@@SAPAV1@XZ ; CTax::GetInstance
  0014a	8b c8		 mov	 ecx, eax
  0014c	e8 00 00 00 00	 call	 ?SetNextLord@CTax@@QAEXK@Z ; CTax::SetNextLord

; 608  : 				}

  00151	8d 4c 24 14	 lea	 ecx, DWORD PTR _ar$208544[esp+32844]
  00155	c7 84 24 48 80
	00 00 ff ff ff
	ff		 mov	 DWORD PTR __$EHRec$[esp+32852], -1
  00160	e8 00 00 00 00	 call	 ??1CAr@@QAE@XZ		; CAr::~CAr

; 609  : 				else

  00165	eb 0d		 jmp	 SHORT $L208546
$L208543:

; 610  : 					CTax::GetInstance()->SetNextLord( dwCompletionKey );

  00167	51		 push	 ecx
  00168	e8 00 00 00 00	 call	 ?GetInstance@CTax@@SAPAV1@XZ ; CTax::GetInstance
  0016d	8b c8		 mov	 ecx, eax
  0016f	e8 00 00 00 00	 call	 ?SetNextLord@CTax@@QAEXK@Z ; CTax::SetNextLord
$L208546:

; 611  : 
; 612  : 				CDPTrans::GetInstance()->SendTaxInfo( DPID_ALLPLAYERS );

  00174	6a 00		 push	 0
  00176	6a 00		 push	 0
  00178	6a 00		 push	 0
  0017a	e8 00 00 00 00	 call	 ?GetInstance@CDPTrans@@SAPAV1@XZ ; CDPTrans::GetInstance
  0017f	8b c8		 mov	 ecx, eax
  00181	e8 00 00 00 00	 call	 ?SendTaxInfo@CDPTrans@@QAEXKHH@Z ; CDPTrans::SendTaxInfo

; 613  : 				UpdateToDB( CONT_ALL );

  00186	68 ff 00 00 00	 push	 255			; 000000ffH
  0018b	8b ce		 mov	 ecx, esi
  0018d	e8 00 00 00 00	 call	 ?UpdateToDB@CTaxDBController@@AAEXE@Z ; CTaxDBController::UpdateToDB

; 614  : 			}
; 615  : 			break;

  00192	e9 04 01 00 00	 jmp	 $L226537
$L208547:

; 616  : 
; 617  : 		case QUERY_TAX_SETNEXT_TAXRATE :
; 618  : 			{
; 619  : 				CAr ar( pov->lpBuf, pov->uBufSize );

  00197	8b 50 1c	 mov	 edx, DWORD PTR [eax+28]
  0019a	8b 40 18	 mov	 eax, DWORD PTR [eax+24]
  0019d	52		 push	 edx
  0019e	50		 push	 eax
  0019f	8d 4c 24 1c	 lea	 ecx, DWORD PTR _ar$208548[esp+32852]
  001a3	e8 00 00 00 00	 call	 ??0CAr@@QAE@PAXI@Z	; CAr::CAr

; 620  : 				BYTE nCont;
; 621  : 				int nSalesTaxRate, nPurchaseTaxRate;
; 622  : 				ar >> nCont;

  001a8	8d 4c 24 10	 lea	 ecx, DWORD PTR _nCont$208549[esp+32844]
  001ac	51		 push	 ecx
  001ad	8d 4c 24 18	 lea	 ecx, DWORD PTR _ar$208548[esp+32848]
  001b1	c7 84 24 4c 80
	00 00 02 00 00
	00		 mov	 DWORD PTR __$EHRec$[esp+32856], 2
  001bc	e8 00 00 00 00	 call	 ??5CAr@@QAEAAV0@AAE@Z	; CAr::operator>>

; 623  : 				ar >> nSalesTaxRate >> nPurchaseTaxRate;

  001c1	8d 54 24 08	 lea	 edx, DWORD PTR _nPurchaseTaxRate$208551[esp+32844]
  001c5	52		 push	 edx
  001c6	8d 44 24 10	 lea	 eax, DWORD PTR _nSalesTaxRate$208550[esp+32848]
  001ca	50		 push	 eax
  001cb	8d 4c 24 1c	 lea	 ecx, DWORD PTR _ar$208548[esp+32852]
  001cf	e8 00 00 00 00	 call	 ??5CAr@@QAEAAV0@AAH@Z	; CAr::operator>>
  001d4	8b c8		 mov	 ecx, eax
  001d6	e8 00 00 00 00	 call	 ??5CAr@@QAEAAV0@AAH@Z	; CAr::operator>>

; 624  : 				CTax::GetInstance()->SetNextTaxRate( nCont, nSalesTaxRate, nPurchaseTaxRate );

  001db	8b 4c 24 08	 mov	 ecx, DWORD PTR _nPurchaseTaxRate$208551[esp+32844]
  001df	8b 54 24 0c	 mov	 edx, DWORD PTR _nSalesTaxRate$208550[esp+32844]
  001e3	8b 7c 24 10	 mov	 edi, DWORD PTR _nCont$208549[esp+32844]
  001e7	51		 push	 ecx
  001e8	52		 push	 edx
  001e9	57		 push	 edi
  001ea	e8 00 00 00 00	 call	 ?GetInstance@CTax@@SAPAV1@XZ ; CTax::GetInstance
  001ef	8b c8		 mov	 ecx, eax
  001f1	e8 00 00 00 00	 call	 ?SetNextTaxRate@CTax@@QAEXEHH@Z ; CTax::SetNextTaxRate
$L226539:

; 625  : 				CDPTrans::GetInstance()->SendTaxInfo( DPID_ALLPLAYERS );

  001f6	6a 00		 push	 0
  001f8	6a 00		 push	 0
  001fa	6a 00		 push	 0
  001fc	e8 00 00 00 00	 call	 ?GetInstance@CDPTrans@@SAPAV1@XZ ; CDPTrans::GetInstance
  00201	8b c8		 mov	 ecx, eax
  00203	e8 00 00 00 00	 call	 ?SendTaxInfo@CDPTrans@@QAEXKHH@Z ; CDPTrans::SendTaxInfo

; 626  : 				UpdateToDB( nCont );

  00208	57		 push	 edi
  00209	8b ce		 mov	 ecx, esi
  0020b	e8 00 00 00 00	 call	 ?UpdateToDB@CTaxDBController@@AAEXE@Z ; CTaxDBController::UpdateToDB

; 627  : 			}

  00210	8d 4c 24 14	 lea	 ecx, DWORD PTR _ar$208548[esp+32844]

; 628  : 			break;

  00214	eb 75		 jmp	 SHORT $L226538
$L208552:

; 629  : 
; 630  : 		case QUERY_TAX_ADDTAX :
; 631  : 			{
; 632  : 				CAr ar( pov->lpBuf, pov->uBufSize );

  00216	8b 48 1c	 mov	 ecx, DWORD PTR [eax+28]
  00219	8b 50 18	 mov	 edx, DWORD PTR [eax+24]
  0021c	51		 push	 ecx
  0021d	52		 push	 edx
  0021e	8d 8c 24 30 40
	00 00		 lea	 ecx, DWORD PTR _ar$208553[esp+32852]
  00225	e8 00 00 00 00	 call	 ??0CAr@@QAE@PAXI@Z	; CAr::CAr

; 633  : 				BYTE nCont, nTaxKind;
; 634  : 				int nTax;
; 635  : 				ar >> nCont >> nTax >> nTaxKind;

  0022a	8d 44 24 10	 lea	 eax, DWORD PTR _nTaxKind$208555[esp+32844]
  0022e	50		 push	 eax
  0022f	8d 4c 24 0c	 lea	 ecx, DWORD PTR _nTax$208556[esp+32848]
  00233	51		 push	 ecx
  00234	8d 54 24 14	 lea	 edx, DWORD PTR _nCont$208554[esp+32852]
  00238	52		 push	 edx
  00239	8d 8c 24 34 40
	00 00		 lea	 ecx, DWORD PTR _ar$208553[esp+32856]
  00240	c7 84 24 54 80
	00 00 03 00 00
	00		 mov	 DWORD PTR __$EHRec$[esp+32864], 3
  0024b	e8 00 00 00 00	 call	 ??5CAr@@QAEAAV0@AAE@Z	; CAr::operator>>
  00250	8b c8		 mov	 ecx, eax
  00252	e8 00 00 00 00	 call	 ??5CAr@@QAEAAV0@AAH@Z	; CAr::operator>>
  00257	8b c8		 mov	 ecx, eax
  00259	e8 00 00 00 00	 call	 ??5CAr@@QAEAAV0@AAE@Z	; CAr::operator>>

; 636  : 				if( CTax::GetInstance()->AddTax( nCont, nTax, nTaxKind ) )

  0025e	8b 44 24 10	 mov	 eax, DWORD PTR _nTaxKind$208555[esp+32844]
  00262	8b 4c 24 08	 mov	 ecx, DWORD PTR _nTax$208556[esp+32844]
  00266	8b 54 24 0c	 mov	 edx, DWORD PTR _nCont$208554[esp+32844]
  0026a	50		 push	 eax
  0026b	51		 push	 ecx
  0026c	52		 push	 edx
  0026d	e8 00 00 00 00	 call	 ?GetInstance@CTax@@SAPAV1@XZ ; CTax::GetInstance
  00272	8b c8		 mov	 ecx, eax
  00274	e8 00 00 00 00	 call	 ?AddTax@CTax@@QAEHEHE@Z	; CTax::AddTax
  00279	85 c0		 test	 eax, eax
  0027b	74 07		 je	 SHORT $L208557

; 637  : 				{
; 638  :  					//UpdateToDB( nCont );
; 639  :  					//UpdateToDB( CONT_ALL );
; 640  : 					UpdateAllToDB();

  0027d	8b ce		 mov	 ecx, esi
  0027f	e8 00 00 00 00	 call	 ?UpdateAllToDB@CTaxDBController@@AAEXXZ ; CTaxDBController::UpdateAllToDB
$L208557:

; 641  : 				}
; 642  : 			}

  00284	8d 8c 24 28 40
	00 00		 lea	 ecx, DWORD PTR _ar$208553[esp+32844]
$L226538:
  0028b	c7 84 24 48 80
	00 00 ff ff ff
	ff		 mov	 DWORD PTR __$EHRec$[esp+32852], -1
  00296	e8 00 00 00 00	 call	 ??1CAr@@QAE@XZ		; CAr::~CAr
$L226537:
  0029b	5f		 pop	 edi
$L208531:

; 643  : 			break;
; 644  : 	}	// switch
; 645  : }

  0029c	8b 8c 24 3c 80
	00 00		 mov	 ecx, DWORD PTR __$EHRec$[esp+32840]
  002a3	64 89 0d 00 00
	00 00		 mov	 DWORD PTR fs:__except_list, ecx
  002aa	8b 8c 24 38 80
	00 00		 mov	 ecx, DWORD PTR __$ArrayPad$[esp+32840]
  002b1	5e		 pop	 esi
  002b2	33 cc		 xor	 ecx, esp
  002b4	e8 00 00 00 00	 call	 @__security_check_cookie@4
  002b9	81 c4 44 80 00
	00		 add	 esp, 32836		; 00008044H
  002bf	c2 08 00	 ret	 8
  002c2	8b ff		 npad	 2
$L226540:
  002c4	00 00 00 00	 DD	 $L208534
  002c8	00 00 00 00	 DD	 $L208536
  002cc	00 00 00 00	 DD	 $L208537
  002d0	00 00 00 00	 DD	 $L208538
  002d4	00 00 00 00	 DD	 $L208542
  002d8	00 00 00 00	 DD	 $L208547
  002dc	00 00 00 00	 DD	 $L208552
_TEXT	ENDS
;	COMDAT text$x
text$x	SEGMENT
$L226527:
  00000	8d 8d c8 7f ff
	ff		 lea	 ecx, DWORD PTR _ar$208539[ebp]
  00006	e9 00 00 00 00	 jmp	 ??1CAr@@QAE@XZ		; CAr::~CAr
$L226528:
  0000b	8d 8d c8 7f ff
	ff		 lea	 ecx, DWORD PTR _ar$208544[ebp]
  00011	e9 00 00 00 00	 jmp	 ??1CAr@@QAE@XZ		; CAr::~CAr
$L226529:
  00016	8d 8d c8 7f ff
	ff		 lea	 ecx, DWORD PTR _ar$208548[ebp]
  0001c	e9 00 00 00 00	 jmp	 ??1CAr@@QAE@XZ		; CAr::~CAr
$L226530:
  00021	8d 8d dc bf ff
	ff		 lea	 ecx, DWORD PTR _ar$208553[ebp]
  00027	e9 00 00 00 00	 jmp	 ??1CAr@@QAE@XZ		; CAr::~CAr
__ehhandler$?Handler@CTaxDBController@@UAEXPAUtagDB_OVERLAPPED_PLUS@@K@Z:
  0002c	b8 00 00 00 00	 mov	 eax, OFFSET FLAT:$T226534
  00031	e9 00 00 00 00	 jmp	 ___CxxFrameHandler
text$x	ENDS
?Handler@CTaxDBController@@UAEXPAUtagDB_OVERLAPPED_PLUS@@K@Z ENDP ; CTaxDBController::Handler
; Function compile flags: /Ogty
;	COMDAT _$E2
text$yd	SEGMENT
_$E2	PROC NEAR					; COMDAT
  00000	b9 00 00 00 00	 mov	 ecx, OFFSET FLAT:?sTax@?1??GetInstance@CTax@@SAPAV2@XZ@4V2@A
  00005	e9 00 00 00 00	 jmp	 ??1CTax@@QAE@XZ		; CTax::~CTax
_$E2	ENDP
text$yd	ENDS
END
