; Listing generated by Microsoft (R) Optimizing Compiler Version 13.10.6030 

	TITLE	.\tlord.cpp
	.386P
include listing.inc
if @Version gt 510
.model FLAT
else
_TEXT	SEGMENT PARA USE32 PUBLIC 'CODE'
_TEXT	ENDS
_DATA	SEGMENT DWORD USE32 PUBLIC 'DATA'
_DATA	ENDS
CONST	SEGMENT DWORD USE32 PUBLIC 'CONST'
CONST	ENDS
_BSS	SEGMENT DWORD USE32 PUBLIC 'BSS'
_BSS	ENDS
$$SYMBOLS	SEGMENT BYTE USE32 'DEBSYM'
$$SYMBOLS	ENDS
_TLS	SEGMENT DWORD USE32 PUBLIC 'TLS'
_TLS	ENDS
;	COMDAT ??_C@_0BC@MOGJFHKK@tr1?3?3bad_weak_ptr?$AA@
CONST	SEGMENT DWORD USE32 PUBLIC 'CONST'
CONST	ENDS
;	COMDAT ??_C@_0BD@IOHNFIBA@SetLOD?5?3?5lv?$DN?$CFd?0?5?$CFs?$AA@
CONST	SEGMENT DWORD USE32 PUBLIC 'CONST'
CONST	ENDS
;	COMDAT ??_C@_02PCIJFNDE@?$AN?6?$AA@
CONST	SEGMENT DWORD USE32 PUBLIC 'CONST'
CONST	ENDS
;	COMDAT ??_C@_01DNKMNLPK@?$HM?$AA@
CONST	SEGMENT DWORD USE32 PUBLIC 'CONST'
CONST	ENDS
;	COMDAT ??_C@_0N@MMPBPIHN@election?4inc?$AA@
CONST	SEGMENT DWORD USE32 PUBLIC 'CONST'
CONST	ENDS
;	COMDAT ??_C@_0O@NKJDDJPP@lordevent?4inc?$AA@
CONST	SEGMENT DWORD USE32 PUBLIC 'CONST'
CONST	ENDS
;	COMDAT ??_C@_0O@DNECDNPA@lordskill?4txt?$AA@
CONST	SEGMENT DWORD USE32 PUBLIC 'CONST'
CONST	ENDS
;	COMDAT ??_C@_0BI@GMEIIJGO@CTLord?4CreateColleagues?$AA@
CONST	SEGMENT DWORD USE32 PUBLIC 'CONST'
CONST	ENDS
;	COMDAT ??_C@_0BC@MCPIBNBK@uspRestoreLord?5?$CFd?$AA@
CONST	SEGMENT DWORD USE32 PUBLIC 'CONST'
CONST	ENDS
;	COMDAT ??_C@_06EHHKCEHL@idLord?$AA@
CONST	SEGMENT DWORD USE32 PUBLIC 'CONST'
CONST	ENDS
;	COMDAT ??_C@_0DL@DADIAAPI@CTElection?3?3Initialize?$CI?$CJ?3?5LoadSc@
CONST	SEGMENT DWORD USE32 PUBLIC 'CONST'
CONST	ENDS
;	COMDAT ??_C@_08EMBNBNLN@property?$AA@
CONST	SEGMENT DWORD USE32 PUBLIC 'CONST'
CONST	ENDS
;	COMDAT ??_C@_0L@NLLMANDB@nDayOfWeek?$AA@
CONST	SEGMENT DWORD USE32 PUBLIC 'CONST'
CONST	ENDS
;	COMDAT ??_C@_05DIDGHFGE@nHour?$AA@
CONST	SEGMENT DWORD USE32 PUBLIC 'CONST'
CONST	ENDS
;	COMDAT ??_C@_0L@CKDBDEOG@tCandidacy?$AA@
CONST	SEGMENT DWORD USE32 PUBLIC 'CONST'
CONST	ENDS
;	COMDAT ??_C@_05EBOKJDNL@tVote?$AA@
CONST	SEGMENT DWORD USE32 PUBLIC 'CONST'
CONST	ENDS
;	COMDAT ??_C@_05NBICHHD@nDays?$AA@
CONST	SEGMENT DWORD USE32 PUBLIC 'CONST'
CONST	ENDS
;	COMDAT ??_C@_04HCCHHEEF@rate?$AA@
CONST	SEGMENT DWORD USE32 PUBLIC 'CONST'
CONST	ENDS
;	COMDAT ??_C@_0BD@FJBKFPAD@fRequirementFactor?$AA@
CONST	SEGMENT DWORD USE32 PUBLIC 'CONST'
CONST	ENDS
;	COMDAT ??_C@_04NHONDGDE@item?$AA@
CONST	SEGMENT DWORD USE32 PUBLIC 'CONST'
CONST	ENDS
;	COMDAT ??_C@_0N@BNMNAMM@?$CFY?$CFm?$CFd?$CFH?$CFM?$CFS?$AA@
CONST	SEGMENT DWORD USE32 PUBLIC 'CONST'
CONST	ENDS
;	COMDAT ??_C@_0BE@HLJDCBPH@CTElection?4stot?3?5?$CFs?$AA@
CONST	SEGMENT DWORD USE32 PUBLIC 'CONST'
CONST	ENDS
;	COMDAT ??_C@_0BG@KGCKLKHB@uspRestoreElection?5?$CFd?$AA@
CONST	SEGMENT DWORD USE32 PUBLIC 'CONST'
CONST	ENDS
;	COMDAT ??_C@_0L@NBMLJLBM@idElection?$AA@
CONST	SEGMENT DWORD USE32 PUBLIC 'CONST'
CONST	ENDS
;	COMDAT ??_C@_06PFLNLAJN@eState?$AA@
CONST	SEGMENT DWORD USE32 PUBLIC 'CONST'
CONST	ENDS
;	COMDAT ??_C@_0N@NOMIPDCI@nRequirement?$AA@
CONST	SEGMENT DWORD USE32 PUBLIC 'CONST'
CONST	ENDS
;	COMDAT ??_C@_07PJNBBDOG@szBegin?$AA@
CONST	SEGMENT DWORD USE32 PUBLIC 'CONST'
CONST	ENDS
;	COMDAT ??_C@_0BM@CHJPNMJK@uspRestoreCandidates?5?$CFd?0?5?$CFd?$AA@
CONST	SEGMENT DWORD USE32 PUBLIC 'CONST'
CONST	ENDS
;	COMDAT ??_C@_0CG@GCHADNNB@couldn?8t?5execute?5uspRestoreCandi@
CONST	SEGMENT DWORD USE32 PUBLIC 'CONST'
CONST	ENDS
;	COMDAT ??_C@_08EPHCN@idPlayer?$AA@
CONST	SEGMENT DWORD USE32 PUBLIC 'CONST'
CONST	ENDS
;	COMDAT ??_C@_08PIPANNIJ@iDeposit?$AA@
CONST	SEGMENT DWORD USE32 PUBLIC 'CONST'
CONST	ENDS
;	COMDAT ??_C@_08BCPGFKB@szPledge?$AA@
CONST	SEGMENT DWORD USE32 PUBLIC 'CONST'
CONST	ENDS
;	COMDAT ??_C@_05ODKHLCCG@nVote?$AA@
CONST	SEGMENT DWORD USE32 PUBLIC 'CONST'
CONST	ENDS
;	COMDAT ??_C@_07BIPEELOH@tCreate?$AA@
CONST	SEGMENT DWORD USE32 PUBLIC 'CONST'
CONST	ENDS
;	COMDAT ??_C@_0CB@FCFJFKNF@uspElectionInitialize?5?$CFd?0?5?$CFd?0?5?$CFs@
CONST	SEGMENT DWORD USE32 PUBLIC 'CONST'
CONST	ENDS
;	COMDAT ??_C@_0CH@LCMLFLCE@couldn?8t?5execute?5uspElectionInit@
CONST	SEGMENT DWORD USE32 PUBLIC 'CONST'
CONST	ENDS
;	COMDAT ??_C@_0CA@EFGOLAFI@CTElection?4DoTestBeginCandidacy?$AA@
CONST	SEGMENT DWORD USE32 PUBLIC 'CONST'
CONST	ENDS
;	COMDAT ??_C@_0BP@DDPAGKOB@uspElectionLeaveOut?5?$CFd?0?5?$CFd?0?5?$CFd?$AA@
CONST	SEGMENT DWORD USE32 PUBLIC 'CONST'
CONST	ENDS
;	COMDAT ??_C@_0CF@DMMBMGJN@couldn?8t?5execute?5uspElectionLeav@
CONST	SEGMENT DWORD USE32 PUBLIC 'CONST'
CONST	ENDS
;	COMDAT ??_C@_0BL@GDEBELLG@CTElection?4DoReturnDeposit?$AA@
CONST	SEGMENT DWORD USE32 PUBLIC 'CONST'
CONST	ENDS
;	COMDAT ??_C@_0BL@LMGPGHGD@CTElection?4DoTestBeginVote?$AA@
CONST	SEGMENT DWORD USE32 PUBLIC 'CONST'
CONST	ENDS
;	COMDAT ??_C@_0BJ@NBOADCDH@CTElection?4DoTestEndVote?$AA@
CONST	SEGMENT DWORD USE32 PUBLIC 'CONST'
CONST	ENDS
;	COMDAT ??_C@_0CN@IFFHNJAO@CTElection?4DoTestAddDeposit?3?5?$CF07@
CONST	SEGMENT DWORD USE32 PUBLIC 'CONST'
CONST	ENDS
;	COMDAT ??_C@_0CF@EBIGHEOA@CTElection?4DoTestSetPledge?3?5?$CF07d@
CONST	SEGMENT DWORD USE32 PUBLIC 'CONST'
CONST	ENDS
;	COMDAT ??_C@_0CF@GEOBODGJ@CTElection?4DoTestIncVote?3?5?$CF07d?0?5@
CONST	SEGMENT DWORD USE32 PUBLIC 'CONST'
CONST	ENDS
;	COMDAT ??_C@_0BE@PNIJDBCM@uspRestoreLEvent?5?$CFd?$AA@
CONST	SEGMENT DWORD USE32 PUBLIC 'CONST'
CONST	ENDS
;	COMDAT ??_C@_05DLOGCGOB@nTick?$AA@
CONST	SEGMENT DWORD USE32 PUBLIC 'CONST'
CONST	ENDS
;	COMDAT ??_C@_08NHMMOOHF@fEFactor?$AA@
CONST	SEGMENT DWORD USE32 PUBLIC 'CONST'
CONST	ENDS
;	COMDAT ??_C@_08IAGDPLDK@fIFactor?$AA@
CONST	SEGMENT DWORD USE32 PUBLIC 'CONST'
CONST	ENDS
;	COMDAT ??_C@_0CB@IFBIPCGL@uspElectionBeginCandidacy?5?$CFd?0?5?$CFd@
CONST	SEGMENT DWORD USE32 PUBLIC 'CONST'
CONST	ENDS
;	COMDAT ??_C@_0BM@CADCBIMM@uspElectionBeginVote?5?$CFd?0?5?$CFd?$AA@
CONST	SEGMENT DWORD USE32 PUBLIC 'CONST'
CONST	ENDS
;	COMDAT ??_C@_0CC@KFNJJIIE@uspElectionEndVote?5?$CFd?0?5?$CFd?0?5?$CFd?0?5?$CF@
CONST	SEGMENT DWORD USE32 PUBLIC 'CONST'
CONST	ENDS
;	COMDAT ??_C@_0CM@MKKLKFBM@uspElectionAddDeposit?5?$CFd?0?5?$CFd?0?5?$CFd@
CONST	SEGMENT DWORD USE32 PUBLIC 'CONST'
CONST	ENDS
;	COMDAT ??_C@_0CN@DFOIGMEI@?$HLcall?5uspElectionSetPledge?$CI?5?$CFd?0?5@
CONST	SEGMENT DWORD USE32 PUBLIC 'CONST'
CONST	ENDS
;	COMDAT ??_C@_0CC@MJFIHIPP@uspElectionIncVote?5?$CFd?0?5?$CFd?0?5?$CFd?0?5?$CF@
CONST	SEGMENT DWORD USE32 PUBLIC 'CONST'
CONST	ENDS
;	COMDAT ??_C@_07MGNKFCA@bResult?$AA@
CONST	SEGMENT DWORD USE32 PUBLIC 'CONST'
CONST	ENDS
;	COMDAT ??_C@_0CL@KGJPMKPI@uspAddLEComponent?5?$CFd?0?5?$CFd?0?5?$CFd?0?5?$CF3@
CONST	SEGMENT DWORD USE32 PUBLIC 'CONST'
CONST	ENDS
;	COMDAT ??_C@_0BH@NILKABO@uspInitializeLEvent?5?$CFd?$AA@
CONST	SEGMENT DWORD USE32 PUBLIC 'CONST'
CONST	ENDS
;	COMDAT ??_C@_0BM@PHMEBJEL@uspLordSkillTick?5?$CFd?0?5?$CFd?0?5?$CFd?$AA@
CONST	SEGMENT DWORD USE32 PUBLIC 'CONST'
CONST	ENDS
;	COMDAT ??_C@_0BM@INGAOOO@uspLordEventTick?5?$CFd?0?5?$CFd?0?5?$CFd?$AA@
CONST	SEGMENT DWORD USE32 PUBLIC 'CONST'
CONST	ENDS
;	COMDAT ??_C@_0BH@OCAHAJDB@uspRestoreLordSkill?5?$CFd?$AA@
CONST	SEGMENT DWORD USE32 PUBLIC 'CONST'
CONST	ENDS
;	COMDAT ??_C@_06BDEJIFFK@nSkill?$AA@
CONST	SEGMENT DWORD USE32 PUBLIC 'CONST'
CONST	ENDS
text$yd	SEGMENT PARA USE32 PUBLIC 'CODE'
text$yd	ENDS
xdata$x	SEGMENT DWORD USE32 PUBLIC 'CONST'
xdata$x	ENDS
;	COMDAT ?what@bad_weak_ptr@boost@@UBEPBDXZ
_TEXT	SEGMENT PARA USE32 PUBLIC 'CODE'
_TEXT	ENDS
;	COMDAT ??1sp_counted_base@detail@boost@@UAE@XZ
_TEXT	SEGMENT PARA USE32 PUBLIC 'CODE'
_TEXT	ENDS
;	COMDAT ?destroy@sp_counted_base@detail@boost@@UAEXXZ
_TEXT	SEGMENT PARA USE32 PUBLIC 'CODE'
_TEXT	ENDS
;	COMDAT ?add_ref_copy@sp_counted_base@detail@boost@@QAEXXZ
_TEXT	SEGMENT PARA USE32 PUBLIC 'CODE'
_TEXT	ENDS
;	COMDAT ?add_ref_lock@sp_counted_base@detail@boost@@QAE_NXZ
_TEXT	SEGMENT PARA USE32 PUBLIC 'CODE'
_TEXT	ENDS
;	COMDAT ?release@sp_counted_base@detail@boost@@QAEXXZ
_TEXT	SEGMENT PARA USE32 PUBLIC 'CODE'
_TEXT	ENDS
;	COMDAT ?weak_add_ref@sp_counted_base@detail@boost@@QAEXXZ
_TEXT	SEGMENT PARA USE32 PUBLIC 'CODE'
_TEXT	ENDS
;	COMDAT ?weak_release@sp_counted_base@detail@boost@@QAEXXZ
_TEXT	SEGMENT PARA USE32 PUBLIC 'CODE'
_TEXT	ENDS
;	COMDAT ?use_count@sp_counted_base@detail@boost@@QBEJXZ
_TEXT	SEGMENT PARA USE32 PUBLIC 'CODE'
_TEXT	ENDS
;	COMDAT ??_Gsp_counted_base@detail@boost@@UAEPAXI@Z
_TEXT	SEGMENT PARA USE32 PUBLIC 'CODE'
_TEXT	ENDS
;	COMDAT ?use_count@shared_count@detail@boost@@QBEJXZ
_TEXT	SEGMENT PARA USE32 PUBLIC 'CODE'
_TEXT	ENDS
;	COMDAT ??0bad_weak_ptr@boost@@QAE@XZ
_TEXT	SEGMENT PARA USE32 PUBLIC 'CODE'
_TEXT	ENDS
;	COMDAT ??1bad_weak_ptr@boost@@UAE@XZ
_TEXT	SEGMENT PARA USE32 PUBLIC 'CODE'
_TEXT	ENDS
;	COMDAT ??_Gbad_weak_ptr@boost@@UAEPAXI@Z
_TEXT	SEGMENT PARA USE32 PUBLIC 'CODE'
_TEXT	ENDS
;	COMDAT ?GetId@CLordSkillComponent@@QAEHXZ
_TEXT	SEGMENT PARA USE32 PUBLIC 'CODE'
_TEXT	ENDS
;	COMDAT ?GetCooltime@CLordSkillComponent@@QAEHXZ
_TEXT	SEGMENT PARA USE32 PUBLIC 'CODE'
_TEXT	ENDS
;	COMDAT ?GetTick@CLordSkillComponent@@QAEHXZ
_TEXT	SEGMENT PARA USE32 PUBLIC 'CODE'
_TEXT	ENDS
;	COMDAT ?SetTick@CLordSkillComponent@@QAEXH@Z
_TEXT	SEGMENT PARA USE32 PUBLIC 'CODE'
_TEXT	ENDS
;	COMDAT ??1CLordSkillComponentExecutable@@UAE@XZ
_TEXT	SEGMENT PARA USE32 PUBLIC 'CODE'
_TEXT	ENDS
;	COMDAT ?Use@CLordSkillComponentExecutable@@IAEXXZ
_TEXT	SEGMENT PARA USE32 PUBLIC 'CODE'
_TEXT	ENDS
;	COMDAT ?Execute@CLordSkillComponentExecutable@@UAEXKKPAX@Z
_TEXT	SEGMENT PARA USE32 PUBLIC 'CODE'
_TEXT	ENDS
;	COMDAT ??_GCLordSkillComponentExecutable@@UAEPAXI@Z
_TEXT	SEGMENT PARA USE32 PUBLIC 'CODE'
_TEXT	ENDS
;	COMDAT ?GetIdPlayer@CCandidate@@QAEKXZ
_TEXT	SEGMENT PARA USE32 PUBLIC 'CODE'
_TEXT	ENDS
;	COMDAT ?GetDeposit@CCandidate@@QBE_JXZ
_TEXT	SEGMENT PARA USE32 PUBLIC 'CODE'
_TEXT	ENDS
;	COMDAT ?GetVote@CCandidate@@QAEHXZ
_TEXT	SEGMENT PARA USE32 PUBLIC 'CODE'
_TEXT	ENDS
;	COMDAT ?GetCreate@CCandidate@@QAEJXZ
_TEXT	SEGMENT PARA USE32 PUBLIC 'CODE'
_TEXT	ENDS
;	COMDAT ?GetId@IElection@@QAEKXZ
_TEXT	SEGMENT PARA USE32 PUBLIC 'CODE'
_TEXT	ENDS
;	COMDAT ?SetState@IElection@@QAEXW4ELECTION_STATE@1@@Z
_TEXT	SEGMENT PARA USE32 PUBLIC 'CODE'
_TEXT	ENDS
;	COMDAT ?GetState@IElection@@QAE?AW4ELECTION_STATE@1@XZ
_TEXT	SEGMENT PARA USE32 PUBLIC 'CODE'
_TEXT	ENDS
;	COMDAT ?SetBegin@IElection@@QAEXJ@Z
_TEXT	SEGMENT PARA USE32 PUBLIC 'CODE'
_TEXT	ENDS
;	COMDAT ?GetBegin@IElection@@QAEJXZ
_TEXT	SEGMENT PARA USE32 PUBLIC 'CODE'
_TEXT	ENDS
;	COMDAT ?DoSetPlegeComplete@IElection@@MAEXXZ
_TEXT	SEGMENT PARA USE32 PUBLIC 'CODE'
_TEXT	ENDS
;	COMDAT ?DoIncVoteComplete@IElection@@MAEXXZ
_TEXT	SEGMENT PARA USE32 PUBLIC 'CODE'
_TEXT	ENDS
;	COMDAT ?DoEndVoteComplete@IElection@@MAEXXZ
_TEXT	SEGMENT PARA USE32 PUBLIC 'CODE'
_TEXT	ENDS
;	COMDAT ?SetRequirement@IElection@@QAEXH@Z
_TEXT	SEGMENT PARA USE32 PUBLIC 'CODE'
_TEXT	ENDS
;	COMDAT ?GetTick@CLEComponent@@QAEHXZ
_TEXT	SEGMENT PARA USE32 PUBLIC 'CODE'
_TEXT	ENDS
;	COMDAT ?GetIdPlayer@CLEComponent@@QAEKXZ
_TEXT	SEGMENT PARA USE32 PUBLIC 'CODE'
_TEXT	ENDS
;	COMDAT ?GetEFactor@CLEComponent@@QAEMXZ
_TEXT	SEGMENT PARA USE32 PUBLIC 'CODE'
_TEXT	ENDS
;	COMDAT ?GetIFactor@CLEComponent@@QAEMXZ
_TEXT	SEGMENT PARA USE32 PUBLIC 'CODE'
_TEXT	ENDS
;	COMDAT ?Set@CLord@@QAEXK@Z
_TEXT	SEGMENT PARA USE32 PUBLIC 'CODE'
_TEXT	ENDS
;	COMDAT ?GetElection@CLord@@QAEPAVIElection@@XZ
_TEXT	SEGMENT PARA USE32 PUBLIC 'CODE'
_TEXT	ENDS
;	COMDAT ?GetEvent@CLord@@QAEPAVILordEvent@@XZ
_TEXT	SEGMENT PARA USE32 PUBLIC 'CODE'
_TEXT	ENDS
;	COMDAT ?GetSkills@CLord@@QAEPAVCLordSkill@@XZ
_TEXT	SEGMENT PARA USE32 PUBLIC 'CODE'
_TEXT	ENDS
;	COMDAT ?GetQueryObject@CDbController@@QAEPAVCQuery@@XZ
_TEXT	SEGMENT PARA USE32 PUBLIC 'CODE'
_TEXT	ENDS
;	COMDAT ?GetController@CTLord@@UAEPAVCLController@@XZ
_TEXT	SEGMENT PARA USE32 PUBLIC 'CODE'
_TEXT	ENDS
;	COMDAT ??0_PostItemStruct@@QAE@XZ
_TEXT	SEGMENT PARA USE32 PUBLIC 'CODE'
_TEXT	ENDS
;	COMDAT ?IsRunable@CTElection@@QAEHXZ
_TEXT	SEGMENT PARA USE32 PUBLIC 'CODE'
_TEXT	ENDS
;	COMDAT ??0PostDeposit@@QAE@PAVCQuery@@@Z
_TEXT	SEGMENT PARA USE32 PUBLIC 'CODE'
_TEXT	ENDS
;	COMDAT ??0CTLord@@QAE@XZ
_TEXT	SEGMENT PARA USE32 PUBLIC 'CODE'
_TEXT	ENDS
;	COMDAT ??_GCTLord@@UAEPAXI@Z
_TEXT	SEGMENT PARA USE32 PUBLIC 'CODE'
_TEXT	ENDS
;	COMDAT ??1CTLord@@UAE@XZ
_TEXT	SEGMENT PARA USE32 PUBLIC 'CODE'
_TEXT	ENDS
;	COMDAT ?CreateColleagues@CTLord@@UAEXXZ
_TEXT	SEGMENT PARA USE32 PUBLIC 'CODE'
_TEXT	ENDS
;	COMDAT ?DestroyColleagues@CTLord@@UAEXXZ
_TEXT	SEGMENT PARA USE32 PUBLIC 'CODE'
_TEXT	ENDS
;	COMDAT ?Instance@CTLord@@SAPAV1@XZ
_TEXT	SEGMENT PARA USE32 PUBLIC 'CODE'
_TEXT	ENDS
;	COMDAT _$E2
text$yd	SEGMENT PARA USE32 PUBLIC 'CODE'
text$yd	ENDS
;	COMDAT ?PostRequest@CTLord@@QAEHHPAEHK@Z
_TEXT	SEGMENT PARA USE32 PUBLIC 'CODE'
_TEXT	ENDS
;	COMDAT ?Handler@CTLord@@QAEXPAUtagDB_OVERLAPPED_PLUS@@K@Z
_TEXT	SEGMENT PARA USE32 PUBLIC 'CODE'
_TEXT	ENDS
;	COMDAT ?OnTimer@CTLord@@QAEXXZ
_TEXT	SEGMENT PARA USE32 PUBLIC 'CODE'
_TEXT	ENDS
;	COMDAT ?RestoreAll@CTLord@@QAEHXZ
_TEXT	SEGMENT PARA USE32 PUBLIC 'CODE'
_TEXT	ENDS
;	COMDAT ?Restore@CTLord@@QAEHPAVCQuery@@@Z
_TEXT	SEGMENT PARA USE32 PUBLIC 'CODE'
_TEXT	ENDS
;	COMDAT ??0CTElection@@QAE@PAVCLord@@@Z
_TEXT	SEGMENT PARA USE32 PUBLIC 'CODE'
_TEXT	ENDS
;	COMDAT ??_GCTElection@@UAEPAXI@Z
_TEXT	SEGMENT PARA USE32 PUBLIC 'CODE'
_TEXT	ENDS
;	COMDAT ??1CTElection@@UAE@XZ
_TEXT	SEGMENT PARA USE32 PUBLIC 'CODE'
_TEXT	ENDS
;	COMDAT ?Initialize@CTElection@@QAEHPBD@Z
_TEXT	SEGMENT PARA USE32 PUBLIC 'CODE'
_TEXT	ENDS
;	COMDAT ?ReadIni@CTElection@@AAEHPBD@Z
_TEXT	SEGMENT PARA USE32 PUBLIC 'CODE'
_TEXT	ENDS
;	COMDAT ?ttos@CTElection@@SA?AV?$CStringT@DV?$StrTraitMFC@DV?$ChTraitsCRT@D@ATL@@@@@ATL@@J@Z
_TEXT	SEGMENT PARA USE32 PUBLIC 'CODE'
_TEXT	ENDS
;	COMDAT ?stot@CTElection@@SAJPBD@Z
_TEXT	SEGMENT PARA USE32 PUBLIC 'CODE'
_TEXT	ENDS
;	COMDAT ?Restore@CTElection@@QAEHPAVCQuery@@@Z
_TEXT	SEGMENT PARA USE32 PUBLIC 'CODE'
_TEXT	ENDS
;	COMDAT ?GetRetRate@CTElection@@QAEMK@Z
_TEXT	SEGMENT PARA USE32 PUBLIC 'CODE'
_TEXT	ENDS
;	COMDAT ?DoTestBeginCandidacy@CTElection@@MAEHXZ
_TEXT	SEGMENT PARA USE32 PUBLIC 'CODE'
_TEXT	ENDS
;	COMDAT ??RPostDeposit@@QBEXABV?$shared_ptr@VCCandidate@@@boost@@@Z
_TEXT	SEGMENT PARA USE32 PUBLIC 'CODE'
_TEXT	ENDS
;	COMDAT ?DoReturnDeposit@CTElection@@MAEXXZ
_TEXT	SEGMENT PARA USE32 PUBLIC 'CODE'
_TEXT	ENDS
;	COMDAT ?DoTestBeginVote@CTElection@@MAEHAAH@Z
_TEXT	SEGMENT PARA USE32 PUBLIC 'CODE'
_TEXT	ENDS
;	COMDAT ?DoTestEndVote@CTElection@@MAEHK@Z
_TEXT	SEGMENT PARA USE32 PUBLIC 'CODE'
_TEXT	ENDS
;	COMDAT ?PostDepositToAllCandidate@CTElection@@AAEXXZ
_TEXT	SEGMENT PARA USE32 PUBLIC 'CODE'
_TEXT	ENDS
;	COMDAT ?DoTestAddDeposit@CTElection@@MAEHK_JJ@Z
_TEXT	SEGMENT PARA USE32 PUBLIC 'CODE'
_TEXT	ENDS
;	COMDAT ?DoAddDepositComplete@CTElection@@MAEXK_JJ@Z
_TEXT	SEGMENT PARA USE32 PUBLIC 'CODE'
_TEXT	ENDS
;	COMDAT ?DoTestSetPledge@CTElection@@MAEHKPBD@Z
_TEXT	SEGMENT PARA USE32 PUBLIC 'CODE'
_TEXT	ENDS
;	COMDAT ?DoTestIncVote@CTElection@@MAEHKK@Z
_TEXT	SEGMENT PARA USE32 PUBLIC 'CODE'
_TEXT	ENDS
;	COMDAT ?PostLordItems@CTElection@@AAEXK@Z
_TEXT	SEGMENT PARA USE32 PUBLIC 'CODE'
_TEXT	ENDS
;	COMDAT ?PostItem@CTElection@@AAEXKAAU_PostItemStruct@@@Z
_TEXT	SEGMENT PARA USE32 PUBLIC 'CODE'
_TEXT	ENDS
;	COMDAT ?OnTimer@CTElection@@QAEXXZ
_TEXT	SEGMENT PARA USE32 PUBLIC 'CODE'
_TEXT	ENDS
;	COMDAT ??0CLEvent@@QAE@PAVCLord@@@Z
_TEXT	SEGMENT PARA USE32 PUBLIC 'CODE'
_TEXT	ENDS
;	COMDAT ??_GCLEvent@@UAEPAXI@Z
_TEXT	SEGMENT PARA USE32 PUBLIC 'CODE'
_TEXT	ENDS
;	COMDAT ??1CLEvent@@UAE@XZ
_TEXT	SEGMENT PARA USE32 PUBLIC 'CODE'
_TEXT	ENDS
;	COMDAT ?Restore@CLEvent@@QAEHPAVCQuery@@@Z
_TEXT	SEGMENT PARA USE32 PUBLIC 'CODE'
_TEXT	ENDS
;	COMDAT ?OnTimer@CLEvent@@QAEXXZ
_TEXT	SEGMENT PARA USE32 PUBLIC 'CODE'
_TEXT	ENDS
;	COMDAT ?DecrementAllComponentTick@CLEvent@@IAEHXZ
_TEXT	SEGMENT PARA USE32 PUBLIC 'CODE'
_TEXT	ENDS
;	COMDAT ?DoTestAddComponent@CLEvent@@MAEHPAVCLEComponent@@@Z
_TEXT	SEGMENT PARA USE32 PUBLIC 'CODE'
_TEXT	ENDS
;	COMDAT ?DoTestInitialize@CLEvent@@MAEHXZ
_TEXT	SEGMENT PARA USE32 PUBLIC 'CODE'
_TEXT	ENDS
;	COMDAT ??0CLController@@QAE@PAVCTLord@@@Z
_TEXT	SEGMENT PARA USE32 PUBLIC 'CODE'
_TEXT	ENDS
;	COMDAT ??_GCLController@@UAEPAXI@Z
_TEXT	SEGMENT PARA USE32 PUBLIC 'CODE'
_TEXT	ENDS
;	COMDAT ??1CLController@@UAE@XZ
_TEXT	SEGMENT PARA USE32 PUBLIC 'CODE'
_TEXT	ENDS
;	COMDAT ?Handler@CLController@@UAEXPAUtagDB_OVERLAPPED_PLUS@@K@Z
_TEXT	SEGMENT PARA USE32 PUBLIC 'CODE'
_TEXT	ENDS
;	COMDAT ?OnTimer@CLController@@UAEXXZ
_TEXT	SEGMENT PARA USE32 PUBLIC 'CODE'
_TEXT	ENDS
;	COMDAT ?Restore@CLController@@QAEHXZ
_TEXT	SEGMENT PARA USE32 PUBLIC 'CODE'
_TEXT	ENDS
;	COMDAT ??_GCQuery@@QAEPAXI@Z
_TEXT	SEGMENT PARA USE32 PUBLIC 'CODE'
_TEXT	ENDS
;	COMDAT ?BeginCandidacy@CLController@@QAEHXZ
_TEXT	SEGMENT PARA USE32 PUBLIC 'CODE'
_TEXT	ENDS
;	COMDAT ?BeginVote@CLController@@QAEHXZ
_TEXT	SEGMENT PARA USE32 PUBLIC 'CODE'
_TEXT	ENDS
;	COMDAT ?EndVote@CLController@@QAEHK@Z
_TEXT	SEGMENT PARA USE32 PUBLIC 'CODE'
_TEXT	ENDS
;	COMDAT ?AddDeposit@CLController@@QAEHK_JJ@Z
_TEXT	SEGMENT PARA USE32 PUBLIC 'CODE'
_TEXT	ENDS
;	COMDAT ?SetPledge@CLController@@QAEHKPBD@Z
_TEXT	SEGMENT PARA USE32 PUBLIC 'CODE'
_TEXT	ENDS
;	COMDAT ?IncVote@CLController@@QAEHKK@Z
_TEXT	SEGMENT PARA USE32 PUBLIC 'CODE'
_TEXT	ENDS
;	COMDAT ?AddLEComponent@CLController@@QAEHPAVCLEComponent@@@Z
_TEXT	SEGMENT PARA USE32 PUBLIC 'CODE'
_TEXT	ENDS
;	COMDAT ?InitializeLEvent@CLController@@QAEHXZ
_TEXT	SEGMENT PARA USE32 PUBLIC 'CODE'
_TEXT	ENDS
;	COMDAT ?UpdateLordSkillTick@CLController@@QAEHPAVCLordSkillComponent@@H@Z
_TEXT	SEGMENT PARA USE32 PUBLIC 'CODE'
_TEXT	ENDS
;	COMDAT ?UpdateLordEventTick@CLController@@QAEHPAVCLEComponent@@@Z
_TEXT	SEGMENT PARA USE32 PUBLIC 'CODE'
_TEXT	ENDS
;	COMDAT ??0CTLordSkill@@QAE@PAVCLord@@@Z
_TEXT	SEGMENT PARA USE32 PUBLIC 'CODE'
_TEXT	ENDS
;	COMDAT ??_GCTLordSkill@@UAEPAXI@Z
_TEXT	SEGMENT PARA USE32 PUBLIC 'CODE'
_TEXT	ENDS
;	COMDAT ??1CTLordSkill@@UAE@XZ
_TEXT	SEGMENT PARA USE32 PUBLIC 'CODE'
_TEXT	ENDS
;	COMDAT ?CreateSkillComponent@CTLordSkill@@UAEPAVCLordSkillComponentExecutable@@H@Z
_TEXT	SEGMENT PARA USE32 PUBLIC 'CODE'
_TEXT	ENDS
;	COMDAT ?Restore@CTLordSkill@@QAEHPAVCQuery@@@Z
_TEXT	SEGMENT PARA USE32 PUBLIC 'CODE'
_TEXT	ENDS
;	COMDAT ?OnTimer@CTLordSkill@@QAEXXZ
_TEXT	SEGMENT PARA USE32 PUBLIC 'CODE'
_TEXT	ENDS
;	COMDAT ?Replace@?$CStringT@DV?$StrTraitMFC@DV?$ChTraitsCRT@D@ATL@@@@@ATL@@QAEHPBD0@Z
_TEXT	SEGMENT PARA USE32 PUBLIC 'CODE'
_TEXT	ENDS
;	COMDAT ??8ATL@@YA_NABV?$CStringT@DV?$StrTraitMFC@DV?$ChTraitsCRT@D@ATL@@@@@0@PBD@Z
_TEXT	SEGMENT PARA USE32 PUBLIC 'CODE'
_TEXT	ENDS
;	COMDAT ?compare@?$basic_string@DU?$char_traits@D@std@@V?$allocator@D@2@@std@@QBEHABV12@@Z
_TEXT	SEGMENT PARA USE32 PUBLIC 'CODE'
_TEXT	ENDS
;	COMDAT ??R?$less@PAVsp_counted_base@detail@boost@@@std@@QBE_NABQAVsp_counted_base@detail@boost@@0@Z
_TEXT	SEGMENT PARA USE32 PUBLIC 'CODE'
_TEXT	ENDS
;	COMDAT ?begin@?$vector@PAVCLordSkillComponentExecutable@@V?$allocator@PAVCLordSkillComponentExecutable@@@std@@@std@@QAE?AViterator@12@XZ
_TEXT	SEGMENT PARA USE32 PUBLIC 'CODE'
_TEXT	ENDS
;	COMDAT ?end@?$vector@PAVCLordSkillComponentExecutable@@V?$allocator@PAVCLordSkillComponentExecutable@@@std@@@std@@QAE?AViterator@12@XZ
_TEXT	SEGMENT PARA USE32 PUBLIC 'CODE'
_TEXT	ENDS
;	COMDAT ?size@?$vector@PAVCLordSkillComponentExecutable@@V?$allocator@PAVCLordSkillComponentExecutable@@@std@@@std@@QBEIXZ
_TEXT	SEGMENT PARA USE32 PUBLIC 'CODE'
_TEXT	ENDS
;	COMDAT ?begin@?$vector@V?$shared_ptr@VCCandidate@@@boost@@V?$allocator@V?$shared_ptr@VCCandidate@@@boost@@@std@@@std@@QAE?AViterator@12@XZ
_TEXT	SEGMENT PARA USE32 PUBLIC 'CODE'
_TEXT	ENDS
;	COMDAT ?end@?$vector@V?$shared_ptr@VCCandidate@@@boost@@V?$allocator@V?$shared_ptr@VCCandidate@@@boost@@@std@@@std@@QAE?AViterator@12@XZ
_TEXT	SEGMENT PARA USE32 PUBLIC 'CODE'
_TEXT	ENDS
;	COMDAT ?size@?$vector@V?$shared_ptr@VCCandidate@@@boost@@V?$allocator@V?$shared_ptr@VCCandidate@@@boost@@@std@@@std@@QBEIXZ
_TEXT	SEGMENT PARA USE32 PUBLIC 'CODE'
_TEXT	ENDS
;	COMDAT ??0?$vector@MV?$allocator@M@std@@@std@@QAE@XZ
_TEXT	SEGMENT PARA USE32 PUBLIC 'CODE'
_TEXT	ENDS
;	COMDAT ??1?$vector@MV?$allocator@M@std@@@std@@QAE@XZ
_TEXT	SEGMENT PARA USE32 PUBLIC 'CODE'
_TEXT	ENDS
;	COMDAT ??A?$vector@MV?$allocator@M@std@@@std@@QAEAAMI@Z
_TEXT	SEGMENT PARA USE32 PUBLIC 'CODE'
_TEXT	ENDS
;	COMDAT ?push_back@?$vector@MV?$allocator@M@std@@@std@@QAEXABM@Z
_TEXT	SEGMENT PARA USE32 PUBLIC 'CODE'
_TEXT	ENDS
;	COMDAT ??0?$vector@HV?$allocator@H@std@@@std@@QAE@XZ
_TEXT	SEGMENT PARA USE32 PUBLIC 'CODE'
_TEXT	ENDS
;	COMDAT ??1?$vector@HV?$allocator@H@std@@@std@@QAE@XZ
_TEXT	SEGMENT PARA USE32 PUBLIC 'CODE'
_TEXT	ENDS
;	COMDAT ?begin@?$vector@HV?$allocator@H@std@@@std@@QAE?AViterator@12@XZ
_TEXT	SEGMENT PARA USE32 PUBLIC 'CODE'
_TEXT	ENDS
;	COMDAT ?end@?$vector@HV?$allocator@H@std@@@std@@QAE?AViterator@12@XZ
_TEXT	SEGMENT PARA USE32 PUBLIC 'CODE'
_TEXT	ENDS
;	COMDAT ?push_back@?$vector@HV?$allocator@H@std@@@std@@QAEXABH@Z
_TEXT	SEGMENT PARA USE32 PUBLIC 'CODE'
_TEXT	ENDS
;	COMDAT ??C?$shared_ptr@VCCandidate@@@boost@@QBEPAVCCandidate@@XZ
_TEXT	SEGMENT PARA USE32 PUBLIC 'CODE'
_TEXT	ENDS
;	COMDAT ?begin@?$vector@PAVCLEComponent@@V?$allocator@PAVCLEComponent@@@std@@@std@@QAE?AViterator@12@XZ
_TEXT	SEGMENT PARA USE32 PUBLIC 'CODE'
_TEXT	ENDS
;	COMDAT ?end@?$vector@PAVCLEComponent@@V?$allocator@PAVCLEComponent@@@std@@@std@@QAE?AViterator@12@XZ
_TEXT	SEGMENT PARA USE32 PUBLIC 'CODE'
_TEXT	ENDS
;	COMDAT ?size@?$vector@PAVCLEComponent@@V?$allocator@PAVCLEComponent@@@std@@@std@@QBEIXZ
_TEXT	SEGMENT PARA USE32 PUBLIC 'CODE'
_TEXT	ENDS
;	COMDAT ?size@?$vector@U?$pair@M_J@std@@V?$allocator@U?$pair@M_J@std@@@2@@std@@QBEIXZ
_TEXT	SEGMENT PARA USE32 PUBLIC 'CODE'
_TEXT	ENDS
;	COMDAT ?size@?$_Tree@V?$_Tmap_traits@KPAU_PlayerData@@U?$less@K@std@@V?$allocator@U?$pair@$$CBKPAU_PlayerData@@@std@@@3@$0A@@std@@@std@@QBEIXZ
_TEXT	SEGMENT PARA USE32 PUBLIC 'CODE'
_TEXT	ENDS
;	COMDAT ?end@?$_Tree@V?$_Tmap_traits@KP8CDPTrans@@AEXAAVCAr@@KKKPAEK@ZU?$less@K@std@@V?$allocator@U?$pair@$$CBKP8CDPTrans@@AEXAAVCAr@@KKKPAEK@Z@std@@@4@$0A@@std@@@std@@QAE?AViterator@12@XZ
_TEXT	SEGMENT PARA USE32 PUBLIC 'CODE'
_TEXT	ENDS
;	COMDAT ?find@?$_Tree@V?$_Tmap_traits@KP8CDPTrans@@AEXAAVCAr@@KKKPAEK@ZU?$less@K@std@@V?$allocator@U?$pair@$$CBKP8CDPTrans@@AEXAAVCAr@@KKKPAEK@Z@std@@@4@$0A@@std@@@std@@QAE?AViterator@12@ABK@Z
_TEXT	SEGMENT PARA USE32 PUBLIC 'CODE'
_TEXT	ENDS
;	COMDAT ??Citerator@?$_Tree@V?$_Tmap_traits@KP8CDPTrans@@AEXAAVCAr@@KKKPAEK@ZU?$less@K@std@@V?$allocator@U?$pair@$$CBKP8CDPTrans@@AEXAAVCAr@@KKKPAEK@Z@std@@@4@$0A@@std@@@std@@QBEPAU?$pair@$$CBKP8CDPTrans@@AEXAAVCAr@@KKKPAEK@Z@2@XZ
_TEXT	SEGMENT PARA USE32 PUBLIC 'CODE'
_TEXT	ENDS
;	COMDAT ??9const_iterator@?$_Tree@V?$_Tmap_traits@KP8CDPTrans@@AEXAAVCAr@@KKKPAEK@ZU?$less@K@std@@V?$allocator@U?$pair@$$CBKP8CDPTrans@@AEXAAVCAr@@KKKPAEK@Z@std@@@4@$0A@@std@@@std@@QBE_NABV012@@Z
_TEXT	SEGMENT PARA USE32 PUBLIC 'CODE'
_TEXT	ENDS
;	COMDAT ??Hiterator@?$vector@V?$shared_ptr@VCCandidate@@@boost@@V?$allocator@V?$shared_ptr@VCCandidate@@@boost@@@std@@@std@@QBE?AV012@H@Z
_TEXT	SEGMENT PARA USE32 PUBLIC 'CODE'
_TEXT	ENDS
;	COMDAT ??Diterator@?$vector@HV?$allocator@H@std@@@std@@QBEAAHXZ
_TEXT	SEGMENT PARA USE32 PUBLIC 'CODE'
_TEXT	ENDS
;	COMDAT ??Eiterator@?$vector@HV?$allocator@H@std@@@std@@QAEAAV012@XZ
_TEXT	SEGMENT PARA USE32 PUBLIC 'CODE'
_TEXT	ENDS
;	COMDAT ??9const_iterator@?$vector@HV?$allocator@H@std@@@std@@QBE_NABV012@@Z
_TEXT	SEGMENT PARA USE32 PUBLIC 'CODE'
_TEXT	ENDS
;	COMDAT ??Diterator@?$vector@PAVCLEComponent@@V?$allocator@PAVCLEComponent@@@std@@@std@@QBEAAPAVCLEComponent@@XZ
_TEXT	SEGMENT PARA USE32 PUBLIC 'CODE'
_TEXT	ENDS
;	COMDAT ??Eiterator@?$vector@PAVCLEComponent@@V?$allocator@PAVCLEComponent@@@std@@@std@@QAEAAV012@XZ
_TEXT	SEGMENT PARA USE32 PUBLIC 'CODE'
_TEXT	ENDS
;	COMDAT ??9const_iterator@?$vector@PAVCLEComponent@@V?$allocator@PAVCLEComponent@@@std@@@std@@QBE_NABV012@@Z
_TEXT	SEGMENT PARA USE32 PUBLIC 'CODE'
_TEXT	ENDS
;	COMDAT ??Diterator@?$vector@PAVCLordSkillComponentExecutable@@V?$allocator@PAVCLordSkillComponentExecutable@@@std@@@std@@QBEAAPAVCLordSkillComponentExecutable@@XZ
_TEXT	SEGMENT PARA USE32 PUBLIC 'CODE'
_TEXT	ENDS
;	COMDAT ??Eiterator@?$vector@PAVCLordSkillComponentExecutable@@V?$allocator@PAVCLordSkillComponentExecutable@@@std@@@std@@QAEAAV012@XZ
_TEXT	SEGMENT PARA USE32 PUBLIC 'CODE'
_TEXT	ENDS
;	COMDAT ??9const_iterator@?$vector@PAVCLordSkillComponentExecutable@@V?$allocator@PAVCLordSkillComponentExecutable@@@std@@@std@@QBE_NABV012@@Z
_TEXT	SEGMENT PARA USE32 PUBLIC 'CODE'
_TEXT	ENDS
;	COMDAT ?Compare@?$CStringT@DV?$StrTraitMFC@DV?$ChTraitsCRT@D@ATL@@@@@ATL@@QBEHPBD@Z
_TEXT	SEGMENT PARA USE32 PUBLIC 'CODE'
_TEXT	ENDS
;	COMDAT ?StringFindString@?$ChTraitsCRT@D@ATL@@SAPADPADPBD@Z
_TEXT	SEGMENT PARA USE32 PUBLIC 'CODE'
_TEXT	ENDS
;	COMDAT ?SafeStringLen@?$ChTraitsCRT@D@ATL@@SAHPBD@Z
_TEXT	SEGMENT PARA USE32 PUBLIC 'CODE'
_TEXT	ENDS
;	COMDAT ?compare@?$basic_string@DU?$char_traits@D@std@@V?$allocator@D@2@@std@@QBEHIIPBDI@Z
_TEXT	SEGMENT PARA USE32 PUBLIC 'CODE'
_TEXT	ENDS
;	COMDAT ??0?$allocator@H@std@@QAE@XZ
_TEXT	SEGMENT PARA USE32 PUBLIC 'CODE'
_TEXT	ENDS
;	COMDAT ?capacity@?$vector@MV?$allocator@M@std@@@std@@QBEIXZ
_TEXT	SEGMENT PARA USE32 PUBLIC 'CODE'
_TEXT	ENDS
;	COMDAT ?begin@?$vector@MV?$allocator@M@std@@@std@@QAE?AViterator@12@XZ
_TEXT	SEGMENT PARA USE32 PUBLIC 'CODE'
_TEXT	ENDS
;	COMDAT ?end@?$vector@MV?$allocator@M@std@@@std@@QAE?AViterator@12@XZ
_TEXT	SEGMENT PARA USE32 PUBLIC 'CODE'
_TEXT	ENDS
;	COMDAT ?size@?$vector@MV?$allocator@M@std@@@std@@QBEIXZ
_TEXT	SEGMENT PARA USE32 PUBLIC 'CODE'
_TEXT	ENDS
;	COMDAT ?insert@?$vector@MV?$allocator@M@std@@@std@@QAE?AViterator@12@V312@ABM@Z
_TEXT	SEGMENT PARA USE32 PUBLIC 'CODE'
_TEXT	ENDS
;	COMDAT ?_Buy@?$vector@MV?$allocator@M@std@@@std@@IAE_NI@Z
_TEXT	SEGMENT PARA USE32 PUBLIC 'CODE'
_TEXT	ENDS
;	COMDAT ?_Tidy@?$vector@MV?$allocator@M@std@@@std@@IAEXXZ
_TEXT	SEGMENT PARA USE32 PUBLIC 'CODE'
_TEXT	ENDS
;	COMDAT ?_Ufill@?$vector@MV?$allocator@M@std@@@std@@IAEPAMPAMIABM@Z
_TEXT	SEGMENT PARA USE32 PUBLIC 'CODE'
_TEXT	ENDS
;	COMDAT ??0?$_Vector_val@MV?$allocator@M@std@@@std@@IAE@V?$allocator@M@1@@Z
_TEXT	SEGMENT PARA USE32 PUBLIC 'CODE'
_TEXT	ENDS
;	COMDAT ??0?$allocator@M@std@@QAE@XZ
_TEXT	SEGMENT PARA USE32 PUBLIC 'CODE'
_TEXT	ENDS
;	COMDAT ?capacity@?$vector@HV?$allocator@H@std@@@std@@QBEIXZ
_TEXT	SEGMENT PARA USE32 PUBLIC 'CODE'
_TEXT	ENDS
;	COMDAT ?size@?$vector@HV?$allocator@H@std@@@std@@QBEIXZ
_TEXT	SEGMENT PARA USE32 PUBLIC 'CODE'
_TEXT	ENDS
;	COMDAT ?insert@?$vector@HV?$allocator@H@std@@@std@@QAE?AViterator@12@V312@ABH@Z
_TEXT	SEGMENT PARA USE32 PUBLIC 'CODE'
_TEXT	ENDS
;	COMDAT ?_Buy@?$vector@HV?$allocator@H@std@@@std@@IAE_NI@Z
_TEXT	SEGMENT PARA USE32 PUBLIC 'CODE'
_TEXT	ENDS
;	COMDAT ?_Tidy@?$vector@HV?$allocator@H@std@@@std@@IAEXXZ
_TEXT	SEGMENT PARA USE32 PUBLIC 'CODE'
_TEXT	ENDS
;	COMDAT ?_Ufill@?$vector@HV?$allocator@H@std@@@std@@IAEPAHPAHIABH@Z
_TEXT	SEGMENT PARA USE32 PUBLIC 'CODE'
_TEXT	ENDS
;	COMDAT ??0?$_Vector_val@HV?$allocator@H@std@@@std@@IAE@V?$allocator@H@1@@Z
_TEXT	SEGMENT PARA USE32 PUBLIC 'CODE'
_TEXT	ENDS
;	COMDAT ?_Key@?$_Tree@V?$_Tmap_traits@KP8CDPTrans@@AEXAAVCAr@@KKKPAEK@ZU?$less@K@std@@V?$allocator@U?$pair@$$CBKP8CDPTrans@@AEXAAVCAr@@KKKPAEK@Z@std@@@4@$0A@@std@@@std@@KAABKPAU_Node@?$_Tree_nod@V?$_Tmap_traits@KP8CDPTrans@@AEXAAVCAr@@KKKPAEK@ZU?$less@K@std@@V?$allocator@U?$pair@$$CBKP8CDPTrans@@AEXAAVCAr@@KKKPAEK@Z@std@@@4@$0A@@std@@@2@@Z
_TEXT	SEGMENT PARA USE32 PUBLIC 'CODE'
_TEXT	ENDS
;	COMDAT ?lower_bound@?$_Tree@V?$_Tmap_traits@KP8CDPTrans@@AEXAAVCAr@@KKKPAEK@ZU?$less@K@std@@V?$allocator@U?$pair@$$CBKP8CDPTrans@@AEXAAVCAr@@KKKPAEK@Z@std@@@4@$0A@@std@@@std@@QAE?AViterator@12@ABK@Z
_TEXT	SEGMENT PARA USE32 PUBLIC 'CODE'
_TEXT	ENDS
;	COMDAT ??0iterator@?$_Tree@V?$_Tmap_traits@KP8CDPTrans@@AEXAAVCAr@@KKKPAEK@ZU?$less@K@std@@V?$allocator@U?$pair@$$CBKP8CDPTrans@@AEXAAVCAr@@KKKPAEK@Z@std@@@4@$0A@@std@@@std@@QAE@PAU_Node@?$_Tree_nod@V?$_Tmap_traits@KP8CDPTrans@@AEXAAVCAr@@KKKPAEK@ZU?$less@K@std@@V?$allocator@U?$pair@$$CBKP8CDPTrans@@AEXAAVCAr@@KKKPAEK@Z@std@@@4@$0A@@std@@@2@@Z
_TEXT	SEGMENT PARA USE32 PUBLIC 'CODE'
_TEXT	ENDS
;	COMDAT ??Diterator@?$_Tree@V?$_Tmap_traits@KP8CDPTrans@@AEXAAVCAr@@KKKPAEK@ZU?$less@K@std@@V?$allocator@U?$pair@$$CBKP8CDPTrans@@AEXAAVCAr@@KKKPAEK@Z@std@@@4@$0A@@std@@@std@@QBEAAU?$pair@$$CBKP8CDPTrans@@AEXAAVCAr@@KKKPAEK@Z@2@XZ
_TEXT	SEGMENT PARA USE32 PUBLIC 'CODE'
_TEXT	ENDS
;	COMDAT ??8const_iterator@?$_Tree@V?$_Tmap_traits@KP8CDPTrans@@AEXAAVCAr@@KKKPAEK@ZU?$less@K@std@@V?$allocator@U?$pair@$$CBKP8CDPTrans@@AEXAAVCAr@@KKKPAEK@Z@std@@@4@$0A@@std@@@std@@QBE_NABV012@@Z
_TEXT	SEGMENT PARA USE32 PUBLIC 'CODE'
_TEXT	ENDS
;	COMDAT ?_Mynode@const_iterator@?$_Tree@V?$_Tmap_traits@KP8CDPTrans@@AEXAAVCAr@@KKKPAEK@ZU?$less@K@std@@V?$allocator@U?$pair@$$CBKP8CDPTrans@@AEXAAVCAr@@KKKPAEK@Z@std@@@4@$0A@@std@@@std@@QBEPAU_Node@?$_Tree_nod@V?$_Tmap_traits@KP8CDPTrans@@AEXAAVCAr@@KKKPAEK@ZU?$less@K@std@@V?$allocator@U?$pair@$$CBKP8CDPTrans@@AEXAAVCAr@@KKKPAEK@Z@std@@@4@$0A@@std@@@3@XZ
_TEXT	SEGMENT PARA USE32 PUBLIC 'CODE'
_TEXT	ENDS
;	COMDAT ??0iterator@?$vector@V?$shared_ptr@VCCandidate@@@boost@@V?$allocator@V?$shared_ptr@VCCandidate@@@boost@@@std@@@std@@QAE@PAV?$shared_ptr@VCCandidate@@@boost@@@Z
_TEXT	SEGMENT PARA USE32 PUBLIC 'CODE'
_TEXT	ENDS
;	COMDAT ??Yiterator@?$vector@V?$shared_ptr@VCCandidate@@@boost@@V?$allocator@V?$shared_ptr@VCCandidate@@@boost@@@std@@@std@@QAEAAV012@H@Z
_TEXT	SEGMENT PARA USE32 PUBLIC 'CODE'
_TEXT	ENDS
;	COMDAT ??0iterator@?$vector@HV?$allocator@H@std@@@std@@QAE@PAH@Z
_TEXT	SEGMENT PARA USE32 PUBLIC 'CODE'
_TEXT	ENDS
;	COMDAT ??Dconst_iterator@?$vector@HV?$allocator@H@std@@@std@@QBEABHXZ
_TEXT	SEGMENT PARA USE32 PUBLIC 'CODE'
_TEXT	ENDS
;	COMDAT ??8const_iterator@?$vector@HV?$allocator@H@std@@@std@@QBE_NABV012@@Z
_TEXT	SEGMENT PARA USE32 PUBLIC 'CODE'
_TEXT	ENDS
;	COMDAT ??0iterator@?$vector@PAVCLEComponent@@V?$allocator@PAVCLEComponent@@@std@@@std@@QAE@PAPAVCLEComponent@@@Z
_TEXT	SEGMENT PARA USE32 PUBLIC 'CODE'
_TEXT	ENDS
;	COMDAT ??Dconst_iterator@?$vector@PAVCLEComponent@@V?$allocator@PAVCLEComponent@@@std@@@std@@QBEABQAVCLEComponent@@XZ
_TEXT	SEGMENT PARA USE32 PUBLIC 'CODE'
_TEXT	ENDS
;	COMDAT ??8const_iterator@?$vector@PAVCLEComponent@@V?$allocator@PAVCLEComponent@@@std@@@std@@QBE_NABV012@@Z
_TEXT	SEGMENT PARA USE32 PUBLIC 'CODE'
_TEXT	ENDS
;	COMDAT ??0iterator@?$vector@PAVCLordSkillComponentExecutable@@V?$allocator@PAVCLordSkillComponentExecutable@@@std@@@std@@QAE@PAPAVCLordSkillComponentExecutable@@@Z
_TEXT	SEGMENT PARA USE32 PUBLIC 'CODE'
_TEXT	ENDS
;	COMDAT ??Dconst_iterator@?$vector@PAVCLordSkillComponentExecutable@@V?$allocator@PAVCLordSkillComponentExecutable@@@std@@@std@@QBEABQAVCLordSkillComponentExecutable@@XZ
_TEXT	SEGMENT PARA USE32 PUBLIC 'CODE'
_TEXT	ENDS
;	COMDAT ??8const_iterator@?$vector@PAVCLordSkillComponentExecutable@@V?$allocator@PAVCLordSkillComponentExecutable@@@std@@@std@@QBE_NABV012@@Z
_TEXT	SEGMENT PARA USE32 PUBLIC 'CODE'
_TEXT	ENDS
;	COMDAT ??Diterator@?$vector@MV?$allocator@M@std@@@std@@QBEAAMXZ
_TEXT	SEGMENT PARA USE32 PUBLIC 'CODE'
_TEXT	ENDS
;	COMDAT ??Hiterator@?$vector@MV?$allocator@M@std@@@std@@QBE?AV012@H@Z
_TEXT	SEGMENT PARA USE32 PUBLIC 'CODE'
_TEXT	ENDS
;	COMDAT ?StringCompare@?$ChTraitsCRT@D@ATL@@SAHPBD0@Z
_TEXT	SEGMENT PARA USE32 PUBLIC 'CODE'
_TEXT	ENDS
;	COMDAT ??0?$allocator@H@std@@QAE@ABV01@@Z
_TEXT	SEGMENT PARA USE32 PUBLIC 'CODE'
_TEXT	ENDS
;	COMDAT ?deallocate@?$allocator@H@std@@QAEXPAHI@Z
_TEXT	SEGMENT PARA USE32 PUBLIC 'CODE'
_TEXT	ENDS
;	COMDAT ?allocate@?$allocator@H@std@@QAEPAHI@Z
_TEXT	SEGMENT PARA USE32 PUBLIC 'CODE'
_TEXT	ENDS
;	COMDAT ?max_size@?$vector@MV?$allocator@M@std@@@std@@QBEIXZ
_TEXT	SEGMENT PARA USE32 PUBLIC 'CODE'
_TEXT	ENDS
;	COMDAT ?_Destroy@?$vector@MV?$allocator@M@std@@@std@@IAEXPAM0@Z
_TEXT	SEGMENT PARA USE32 PUBLIC 'CODE'
_TEXT	ENDS
;	COMDAT ?_Insert_n@?$vector@MV?$allocator@M@std@@@std@@IAEXViterator@12@IABM@Z
_TEXT	SEGMENT PARA USE32 PUBLIC 'CODE'
_TEXT	ENDS
;	COMDAT ?_Xlen@?$vector@MV?$allocator@M@std@@@std@@IBEXXZ
_TEXT	SEGMENT PARA USE32 PUBLIC 'CODE'
_TEXT	ENDS
;	COMDAT ??0?$allocator@M@std@@QAE@ABV01@@Z
_TEXT	SEGMENT PARA USE32 PUBLIC 'CODE'
_TEXT	ENDS
;	COMDAT ?deallocate@?$allocator@M@std@@QAEXPAMI@Z
_TEXT	SEGMENT PARA USE32 PUBLIC 'CODE'
_TEXT	ENDS
;	COMDAT ?allocate@?$allocator@M@std@@QAEPAMI@Z
_TEXT	SEGMENT PARA USE32 PUBLIC 'CODE'
_TEXT	ENDS
;	COMDAT ?max_size@?$vector@HV?$allocator@H@std@@@std@@QBEIXZ
_TEXT	SEGMENT PARA USE32 PUBLIC 'CODE'
_TEXT	ENDS
;	COMDAT ?_Destroy@?$vector@HV?$allocator@H@std@@@std@@IAEXPAH0@Z
_TEXT	SEGMENT PARA USE32 PUBLIC 'CODE'
_TEXT	ENDS
;	COMDAT ?_Insert_n@?$vector@HV?$allocator@H@std@@@std@@IAEXViterator@12@IABH@Z
_TEXT	SEGMENT PARA USE32 PUBLIC 'CODE'
_TEXT	ENDS
;	COMDAT ?_Xlen@?$vector@HV?$allocator@H@std@@@std@@IBEXXZ
_TEXT	SEGMENT PARA USE32 PUBLIC 'CODE'
_TEXT	ENDS
;	COMDAT ?_Myval@?$_Tree@V?$_Tmap_traits@KP8CDPTrans@@AEXAAVCAr@@KKKPAEK@ZU?$less@K@std@@V?$allocator@U?$pair@$$CBKP8CDPTrans@@AEXAAVCAr@@KKKPAEK@Z@std@@@4@$0A@@std@@@std@@KAAAU?$pair@$$CBKP8CDPTrans@@AEXAAVCAr@@KKKPAEK@Z@2@PAU_Node@?$_Tree_nod@V?$_Tmap_traits@KP8CDPTrans@@AEXAAVCAr@@KKKPAEK@ZU?$less@K@std@@V?$allocator@U?$pair@$$CBKP8CDPTrans@@AEXAAVCAr@@KKKPAEK@Z@std@@@4@$0A@@std@@@2@@Z
_TEXT	SEGMENT PARA USE32 PUBLIC 'CODE'
_TEXT	ENDS
;	COMDAT ?_Lbound@?$_Tree@V?$_Tmap_traits@KP8CDPTrans@@AEXAAVCAr@@KKKPAEK@ZU?$less@K@std@@V?$allocator@U?$pair@$$CBKP8CDPTrans@@AEXAAVCAr@@KKKPAEK@Z@std@@@4@$0A@@std@@@std@@IBEPAU_Node@?$_Tree_nod@V?$_Tmap_traits@KP8CDPTrans@@AEXAAVCAr@@KKKPAEK@ZU?$less@K@std@@V?$allocator@U?$pair@$$CBKP8CDPTrans@@AEXAAVCAr@@KKKPAEK@Z@std@@@4@$0A@@std@@@2@ABK@Z
_TEXT	SEGMENT PARA USE32 PUBLIC 'CODE'
_TEXT	ENDS
;	COMDAT ?_Kfn@?$_Tmap_traits@KP8CDPTrans@@AEXAAVCAr@@KKKPAEK@ZU?$less@K@std@@V?$allocator@U?$pair@$$CBKP8CDPTrans@@AEXAAVCAr@@KKKPAEK@Z@std@@@4@$0A@@std@@SAABKABU?$pair@$$CBKP8CDPTrans@@AEXAAVCAr@@KKKPAEK@Z@2@@Z
_TEXT	SEGMENT PARA USE32 PUBLIC 'CODE'
_TEXT	ENDS
;	COMDAT ??0const_iterator@?$_Tree@V?$_Tmap_traits@KP8CDPTrans@@AEXAAVCAr@@KKKPAEK@ZU?$less@K@std@@V?$allocator@U?$pair@$$CBKP8CDPTrans@@AEXAAVCAr@@KKKPAEK@Z@std@@@4@$0A@@std@@@std@@QAE@PAU_Node@?$_Tree_nod@V?$_Tmap_traits@KP8CDPTrans@@AEXAAVCAr@@KKKPAEK@ZU?$less@K@std@@V?$allocator@U?$pair@$$CBKP8CDPTrans@@AEXAAVCAr@@KKKPAEK@Z@std@@@4@$0A@@std@@@2@@Z
_TEXT	SEGMENT PARA USE32 PUBLIC 'CODE'
_TEXT	ENDS
;	COMDAT ??Dconst_iterator@?$_Tree@V?$_Tmap_traits@KP8CDPTrans@@AEXAAVCAr@@KKKPAEK@ZU?$less@K@std@@V?$allocator@U?$pair@$$CBKP8CDPTrans@@AEXAAVCAr@@KKKPAEK@Z@std@@@4@$0A@@std@@@std@@QBEABU?$pair@$$CBKP8CDPTrans@@AEXAAVCAr@@KKKPAEK@Z@2@XZ
_TEXT	SEGMENT PARA USE32 PUBLIC 'CODE'
_TEXT	ENDS
;	COMDAT ??0const_iterator@?$vector@V?$shared_ptr@VCCandidate@@@boost@@V?$allocator@V?$shared_ptr@VCCandidate@@@boost@@@std@@@std@@QAE@PAV?$shared_ptr@VCCandidate@@@boost@@@Z
_TEXT	SEGMENT PARA USE32 PUBLIC 'CODE'
_TEXT	ENDS
;	COMDAT ??Hiterator@?$vector@HV?$allocator@H@std@@@std@@QBE?AV012@H@Z
_TEXT	SEGMENT PARA USE32 PUBLIC 'CODE'
_TEXT	ENDS
;	COMDAT ??Giterator@?$vector@HV?$allocator@H@std@@@std@@QBEHABVconst_iterator@12@@Z
_TEXT	SEGMENT PARA USE32 PUBLIC 'CODE'
_TEXT	ENDS
;	COMDAT ??0const_iterator@?$vector@HV?$allocator@H@std@@@std@@QAE@PAH@Z
_TEXT	SEGMENT PARA USE32 PUBLIC 'CODE'
_TEXT	ENDS
;	COMDAT ??0const_iterator@?$vector@PAVCLEComponent@@V?$allocator@PAVCLEComponent@@@std@@@std@@QAE@PAPAVCLEComponent@@@Z
_TEXT	SEGMENT PARA USE32 PUBLIC 'CODE'
_TEXT	ENDS
;	COMDAT ??0const_iterator@?$vector@PAVCLordSkillComponentExecutable@@V?$allocator@PAVCLordSkillComponentExecutable@@@std@@@std@@QAE@PAPAVCLordSkillComponentExecutable@@@Z
_TEXT	SEGMENT PARA USE32 PUBLIC 'CODE'
_TEXT	ENDS
;	COMDAT ??0iterator@?$vector@MV?$allocator@M@std@@@std@@QAE@PAM@Z
_TEXT	SEGMENT PARA USE32 PUBLIC 'CODE'
_TEXT	ENDS
;	COMDAT ??Yiterator@?$vector@MV?$allocator@M@std@@@std@@QAEAAV012@H@Z
_TEXT	SEGMENT PARA USE32 PUBLIC 'CODE'
_TEXT	ENDS
;	COMDAT ??Giterator@?$vector@MV?$allocator@M@std@@@std@@QBEHABVconst_iterator@12@@Z
_TEXT	SEGMENT PARA USE32 PUBLIC 'CODE'
_TEXT	ENDS
;	COMDAT ??Dconst_iterator@?$vector@MV?$allocator@M@std@@@std@@QBEABMXZ
_TEXT	SEGMENT PARA USE32 PUBLIC 'CODE'
_TEXT	ENDS
;	COMDAT ?max_size@?$allocator@H@std@@QBEIXZ
_TEXT	SEGMENT PARA USE32 PUBLIC 'CODE'
_TEXT	ENDS
;	COMDAT ?max_size@?$allocator@M@std@@QBEIXZ
_TEXT	SEGMENT PARA USE32 PUBLIC 'CODE'
_TEXT	ENDS
;	COMDAT ?_Isnil@?$_Tree@V?$_Tmap_traits@KP8CDPTrans@@AEXAAVCAr@@KKKPAEK@ZU?$less@K@std@@V?$allocator@U?$pair@$$CBKP8CDPTrans@@AEXAAVCAr@@KKKPAEK@Z@std@@@4@$0A@@std@@@std@@KAAADPAU_Node@?$_Tree_nod@V?$_Tmap_traits@KP8CDPTrans@@AEXAAVCAr@@KKKPAEK@ZU?$less@K@std@@V?$allocator@U?$pair@$$CBKP8CDPTrans@@AEXAAVCAr@@KKKPAEK@Z@std@@@4@$0A@@std@@@2@@Z
_TEXT	SEGMENT PARA USE32 PUBLIC 'CODE'
_TEXT	ENDS
;	COMDAT ?_Left@?$_Tree@V?$_Tmap_traits@KP8CDPTrans@@AEXAAVCAr@@KKKPAEK@ZU?$less@K@std@@V?$allocator@U?$pair@$$CBKP8CDPTrans@@AEXAAVCAr@@KKKPAEK@Z@std@@@4@$0A@@std@@@std@@KAAAPAU_Node@?$_Tree_nod@V?$_Tmap_traits@KP8CDPTrans@@AEXAAVCAr@@KKKPAEK@ZU?$less@K@std@@V?$allocator@U?$pair@$$CBKP8CDPTrans@@AEXAAVCAr@@KKKPAEK@Z@std@@@4@$0A@@std@@@2@PAU342@@Z
_TEXT	SEGMENT PARA USE32 PUBLIC 'CODE'
_TEXT	ENDS
;	COMDAT ?_Right@?$_Tree@V?$_Tmap_traits@KP8CDPTrans@@AEXAAVCAr@@KKKPAEK@ZU?$less@K@std@@V?$allocator@U?$pair@$$CBKP8CDPTrans@@AEXAAVCAr@@KKKPAEK@Z@std@@@4@$0A@@std@@@std@@KAAAPAU_Node@?$_Tree_nod@V?$_Tmap_traits@KP8CDPTrans@@AEXAAVCAr@@KKKPAEK@ZU?$less@K@std@@V?$allocator@U?$pair@$$CBKP8CDPTrans@@AEXAAVCAr@@KKKPAEK@Z@std@@@4@$0A@@std@@@2@PAU342@@Z
_TEXT	SEGMENT PARA USE32 PUBLIC 'CODE'
_TEXT	ENDS
;	COMDAT ?_Root@?$_Tree@V?$_Tmap_traits@KP8CDPTrans@@AEXAAVCAr@@KKKPAEK@ZU?$less@K@std@@V?$allocator@U?$pair@$$CBKP8CDPTrans@@AEXAAVCAr@@KKKPAEK@Z@std@@@4@$0A@@std@@@std@@IBEAAPAU_Node@?$_Tree_nod@V?$_Tmap_traits@KP8CDPTrans@@AEXAAVCAr@@KKKPAEK@ZU?$less@K@std@@V?$allocator@U?$pair@$$CBKP8CDPTrans@@AEXAAVCAr@@KKKPAEK@Z@std@@@4@$0A@@std@@@2@XZ
_TEXT	SEGMENT PARA USE32 PUBLIC 'CODE'
_TEXT	ENDS
;	COMDAT ??Yiterator@?$vector@HV?$allocator@H@std@@@std@@QAEAAV012@H@Z
_TEXT	SEGMENT PARA USE32 PUBLIC 'CODE'
_TEXT	ENDS
;	COMDAT ??Gconst_iterator@?$vector@HV?$allocator@H@std@@@std@@QBEHABV012@@Z
_TEXT	SEGMENT PARA USE32 PUBLIC 'CODE'
_TEXT	ENDS
;	COMDAT ??0const_iterator@?$vector@MV?$allocator@M@std@@@std@@QAE@PAM@Z
_TEXT	SEGMENT PARA USE32 PUBLIC 'CODE'
_TEXT	ENDS
;	COMDAT ??Gconst_iterator@?$vector@MV?$allocator@M@std@@@std@@QBEHABV012@@Z
_TEXT	SEGMENT PARA USE32 PUBLIC 'CODE'
_TEXT	ENDS
;	COMDAT ?_Parent@?$_Tree@V?$_Tmap_traits@KP8CDPTrans@@AEXAAVCAr@@KKKPAEK@ZU?$less@K@std@@V?$allocator@U?$pair@$$CBKP8CDPTrans@@AEXAAVCAr@@KKKPAEK@Z@std@@@4@$0A@@std@@@std@@KAAAPAU_Node@?$_Tree_nod@V?$_Tmap_traits@KP8CDPTrans@@AEXAAVCAr@@KKKPAEK@ZU?$less@K@std@@V?$allocator@U?$pair@$$CBKP8CDPTrans@@AEXAAVCAr@@KKKPAEK@Z@std@@@4@$0A@@std@@@2@PAU342@@Z
_TEXT	SEGMENT PARA USE32 PUBLIC 'CODE'
_TEXT	ENDS
;	COMDAT ??$_Iter_cat@Viterator@?$_Tree@V?$_Tmap_traits@KU_Friend@@U?$less@K@std@@V?$allocator@U?$pair@$$CBKU_Friend@@@std@@@3@$0A@@std@@@std@@@std@@YA?AUbidirectional_iterator_tag@0@ABViterator@?$_Tree@V?$_Tmap_traits@KU_Friend@@U?$less@K@std@@V?$allocator@U?$pair@$$CBKU_Friend@@@std@@@3@$0A@@std@@@0@@Z
_TEXT	SEGMENT PARA USE32 PUBLIC 'CODE'
_TEXT	ENDS
;	COMDAT ??$_Distance2@Viterator@?$_Tree@V?$_Tmap_traits@KU_Friend@@U?$less@K@std@@V?$allocator@U?$pair@$$CBKU_Friend@@@std@@@3@$0A@@std@@@std@@I@std@@YAXViterator@?$_Tree@V?$_Tmap_traits@KU_Friend@@U?$less@K@std@@V?$allocator@U?$pair@$$CBKU_Friend@@@std@@@3@$0A@@std@@@0@0AAIUbidirectional_iterator_tag@0@@Z
_TEXT	SEGMENT PARA USE32 PUBLIC 'CODE'
_TEXT	ENDS
;	COMDAT ??$_Copy_opt@PAJPAJ@std@@YAPAJPAJ00U_Scalar_ptr_iterator_tag@0@@Z
_TEXT	SEGMENT PARA USE32 PUBLIC 'CODE'
_TEXT	ENDS
;	COMDAT ??$_Uninitialized_copy@PAJPAJV?$allocator@J@std@@@std@@YAPAJPAJ00AAV?$allocator@J@0@@Z
_TEXT	SEGMENT PARA USE32 PUBLIC 'CODE'
_TEXT	ENDS
;	COMDAT ??$_Copy_backward_opt@PAJPAJ@std@@YAPAJPAJ00U_Scalar_ptr_iterator_tag@0@@Z
_TEXT	SEGMENT PARA USE32 PUBLIC 'CODE'
_TEXT	ENDS
;	COMDAT ??$_Ptr_cat@PAUtagDROPITEM@@PAU1@@std@@YA?AU_Nonscalar_ptr_iterator_tag@0@AAPAUtagDROPITEM@@0@Z
_TEXT	SEGMENT PARA USE32 PUBLIC 'CODE'
_TEXT	ENDS
;	COMDAT ??$_Destroy_range@UtagDROPITEM@@V?$allocator@UtagDROPITEM@@@std@@@std@@YAXPAUtagDROPITEM@@0AAV?$allocator@UtagDROPITEM@@@0@U_Nonscalar_ptr_iterator_tag@0@@Z
_TEXT	SEGMENT PARA USE32 PUBLIC 'CODE'
_TEXT	ENDS
;	COMDAT ??$_Destroy_range@KV?$allocator@K@std@@@std@@YAXPAK0AAV?$allocator@K@0@U_Scalar_ptr_iterator_tag@0@@Z
_TEXT	SEGMENT PARA USE32 PUBLIC 'CODE'
_TEXT	ENDS
;	COMDAT ??$_Destroy_range@JV?$allocator@J@std@@@std@@YAXPAJ0AAV?$allocator@J@0@U_Scalar_ptr_iterator_tag@0@@Z
_TEXT	SEGMENT PARA USE32 PUBLIC 'CODE'
_TEXT	ENDS
;	COMDAT ??$_Uninit_fill_n@JIJ@std@@YAXPAJIABJAAV?$allocator@J@0@U_Scalar_ptr_iterator_tag@0@@Z
_TEXT	SEGMENT PARA USE32 PUBLIC 'CODE'
_TEXT	ENDS
;	COMDAT ??$throw_exception@Vbad_weak_ptr@boost@@@boost@@YAXABVbad_weak_ptr@0@@Z
_TEXT	SEGMENT PARA USE32 PUBLIC 'CODE'
_TEXT	ENDS
;	COMDAT ??$for_each@Viterator@?$vector@V?$shared_ptr@VCCandidate@@@boost@@V?$allocator@V?$shared_ptr@VCCandidate@@@boost@@@std@@@std@@UPostDeposit@@@std@@YA?AUPostDeposit@@Viterator@?$vector@V?$shared_ptr@VCCandidate@@@boost@@V?$allocator@V?$shared_ptr@VCCandidate@@@boost@@@std@@@0@0U1@@Z
_TEXT	SEGMENT PARA USE32 PUBLIC 'CODE'
_TEXT	ENDS
;	COMDAT ??$_Uninitialized_fill_n@PAMIMV?$allocator@M@std@@@std@@YAXPAMIABMAAV?$allocator@M@0@@Z
_TEXT	SEGMENT PARA USE32 PUBLIC 'CODE'
_TEXT	ENDS
;	COMDAT ??$_Uninitialized_fill_n@PAHIHV?$allocator@H@std@@@std@@YAXPAHIABHAAV?$allocator@H@0@@Z
_TEXT	SEGMENT PARA USE32 PUBLIC 'CODE'
_TEXT	ENDS
;	COMDAT ??$_Allocate@H@std@@YAPAHIPAH@Z
_TEXT	SEGMENT PARA USE32 PUBLIC 'CODE'
_TEXT	ENDS
;	COMDAT ??$_Destroy_range@MV?$allocator@M@std@@@std@@YAXPAM0AAV?$allocator@M@0@@Z
_TEXT	SEGMENT PARA USE32 PUBLIC 'CODE'
_TEXT	ENDS
;	COMDAT ??$_Ucopy@PAM@?$vector@MV?$allocator@M@std@@@std@@IAEPAMPAM00@Z
_TEXT	SEGMENT PARA USE32 PUBLIC 'CODE'
_TEXT	ENDS
;	COMDAT ??$fill@PAMM@std@@YAXPAM0ABM@Z
_TEXT	SEGMENT PARA USE32 PUBLIC 'CODE'
_TEXT	ENDS
;	COMDAT ??$copy_backward@PAMPAM@std@@YAPAMPAM00@Z
_TEXT	SEGMENT PARA USE32 PUBLIC 'CODE'
_TEXT	ENDS
;	COMDAT ??$_Allocate@M@std@@YAPAMIPAM@Z
_TEXT	SEGMENT PARA USE32 PUBLIC 'CODE'
_TEXT	ENDS
;	COMDAT ??$_Destroy_range@HV?$allocator@H@std@@@std@@YAXPAH0AAV?$allocator@H@0@@Z
_TEXT	SEGMENT PARA USE32 PUBLIC 'CODE'
_TEXT	ENDS
;	COMDAT ??$_Ucopy@PAH@?$vector@HV?$allocator@H@std@@@std@@IAEPAHPAH00@Z
_TEXT	SEGMENT PARA USE32 PUBLIC 'CODE'
_TEXT	ENDS
;	COMDAT ??$fill@PAHH@std@@YAXPAH0ABH@Z
_TEXT	SEGMENT PARA USE32 PUBLIC 'CODE'
_TEXT	ENDS
;	COMDAT ??$copy_backward@PAHPAH@std@@YAPAHPAH00@Z
_TEXT	SEGMENT PARA USE32 PUBLIC 'CODE'
_TEXT	ENDS
;	COMDAT ??0bad_weak_ptr@boost@@QAE@ABV01@@Z
_TEXT	SEGMENT PARA USE32 PUBLIC 'CODE'
_TEXT	ENDS
;	COMDAT ?destroy@?$allocator@UtagDROPITEM@@@std@@QAEXPAUtagDROPITEM@@@Z
_TEXT	SEGMENT PARA USE32 PUBLIC 'CODE'
_TEXT	ENDS
;	COMDAT ??Diterator@?$vector@V?$shared_ptr@VCCandidate@@@boost@@V?$allocator@V?$shared_ptr@VCCandidate@@@boost@@@std@@@std@@QBEAAV?$shared_ptr@VCCandidate@@@boost@@XZ
_TEXT	SEGMENT PARA USE32 PUBLIC 'CODE'
_TEXT	ENDS
;	COMDAT ??Eiterator@?$vector@V?$shared_ptr@VCCandidate@@@boost@@V?$allocator@V?$shared_ptr@VCCandidate@@@boost@@@std@@@std@@QAEAAV012@XZ
_TEXT	SEGMENT PARA USE32 PUBLIC 'CODE'
_TEXT	ENDS
;	COMDAT ??9const_iterator@?$vector@V?$shared_ptr@VCCandidate@@@boost@@V?$allocator@V?$shared_ptr@VCCandidate@@@boost@@@std@@@std@@QBE_NABV012@@Z
_TEXT	SEGMENT PARA USE32 PUBLIC 'CODE'
_TEXT	ENDS
;	COMDAT ??Dconst_iterator@?$vector@V?$shared_ptr@VCCandidate@@@boost@@V?$allocator@V?$shared_ptr@VCCandidate@@@boost@@@std@@@std@@QBEABV?$shared_ptr@VCCandidate@@@boost@@XZ
_TEXT	SEGMENT PARA USE32 PUBLIC 'CODE'
_TEXT	ENDS
;	COMDAT ??8const_iterator@?$vector@V?$shared_ptr@VCCandidate@@@boost@@V?$allocator@V?$shared_ptr@VCCandidate@@@boost@@@std@@@std@@QBE_NABV012@@Z
_TEXT	SEGMENT PARA USE32 PUBLIC 'CODE'
_TEXT	ENDS
;	COMDAT ??$_Uninit_copy@JJ@std@@YAPAJPAJ00AAV?$allocator@J@0@U_Scalar_ptr_iterator_tag@0@@Z
_TEXT	SEGMENT PARA USE32 PUBLIC 'CODE'
_TEXT	ENDS
;	COMDAT ??$fill_n@PAJIJ@std@@YAXPAJIABJ@Z
_TEXT	SEGMENT PARA USE32 PUBLIC 'CODE'
_TEXT	ENDS
;	COMDAT ??$_Uninit_fill_n@MIM@std@@YAXPAMIABMAAV?$allocator@M@0@U_Scalar_ptr_iterator_tag@0@@Z
_TEXT	SEGMENT PARA USE32 PUBLIC 'CODE'
_TEXT	ENDS
;	COMDAT ??$_Uninit_fill_n@HIH@std@@YAXPAHIABHAAV?$allocator@H@0@U_Scalar_ptr_iterator_tag@0@@Z
_TEXT	SEGMENT PARA USE32 PUBLIC 'CODE'
_TEXT	ENDS
;	COMDAT ??$_Destroy_range@MV?$allocator@M@std@@@std@@YAXPAM0AAV?$allocator@M@0@U_Scalar_ptr_iterator_tag@0@@Z
_TEXT	SEGMENT PARA USE32 PUBLIC 'CODE'
_TEXT	ENDS
;	COMDAT ??$_Uninitialized_copy@PAMPAMV?$allocator@M@std@@@std@@YAPAMPAM00AAV?$allocator@M@0@@Z
_TEXT	SEGMENT PARA USE32 PUBLIC 'CODE'
_TEXT	ENDS
;	COMDAT ??$_Copy_backward_opt@PAMPAM@std@@YAPAMPAM00U_Scalar_ptr_iterator_tag@0@@Z
_TEXT	SEGMENT PARA USE32 PUBLIC 'CODE'
_TEXT	ENDS
;	COMDAT ??$_Destroy_range@HV?$allocator@H@std@@@std@@YAXPAH0AAV?$allocator@H@0@U_Scalar_ptr_iterator_tag@0@@Z
_TEXT	SEGMENT PARA USE32 PUBLIC 'CODE'
_TEXT	ENDS
;	COMDAT ??$_Uninitialized_copy@PAHPAHV?$allocator@H@std@@@std@@YAPAHPAH00AAV?$allocator@H@0@@Z
_TEXT	SEGMENT PARA USE32 PUBLIC 'CODE'
_TEXT	ENDS
;	COMDAT ??$_Copy_backward_opt@PAHPAH@std@@YAPAHPAH00U_Scalar_ptr_iterator_tag@0@@Z
_TEXT	SEGMENT PARA USE32 PUBLIC 'CODE'
_TEXT	ENDS
;	COMDAT ??$_Destroy@UtagDROPITEM@@@std@@YAXPAUtagDROPITEM@@@Z
_TEXT	SEGMENT PARA USE32 PUBLIC 'CODE'
_TEXT	ENDS
;	COMDAT ??$fill_n@PAMIM@std@@YAXPAMIABM@Z
_TEXT	SEGMENT PARA USE32 PUBLIC 'CODE'
_TEXT	ENDS
;	COMDAT ??$fill_n@PAHIH@std@@YAXPAHIABH@Z
_TEXT	SEGMENT PARA USE32 PUBLIC 'CODE'
_TEXT	ENDS
;	COMDAT ??$_Uninit_copy@MM@std@@YAPAMPAM00AAV?$allocator@M@0@U_Scalar_ptr_iterator_tag@0@@Z
_TEXT	SEGMENT PARA USE32 PUBLIC 'CODE'
_TEXT	ENDS
;	COMDAT ??$_Uninit_copy@HH@std@@YAPAHPAH00AAV?$allocator@H@0@U_Scalar_ptr_iterator_tag@0@@Z
_TEXT	SEGMENT PARA USE32 PUBLIC 'CODE'
_TEXT	ENDS
;	COMDAT ?_Ptr_cat@std@@YA?AU_Scalar_ptr_iterator_tag@1@PAH0@Z
_TEXT	SEGMENT PARA USE32 PUBLIC 'CODE'
_TEXT	ENDS
;	COMDAT ?_Ptr_cat@std@@YA?AU_Scalar_ptr_iterator_tag@1@PAM0@Z
_TEXT	SEGMENT PARA USE32 PUBLIC 'CODE'
_TEXT	ENDS
;	COMDAT __CTA2?AVbad_weak_ptr@boost@@
xdata$x	SEGMENT DWORD USE32 PUBLIC 'CONST'
xdata$x	ENDS
;	COMDAT __CT??_R0?AVexception@@@8??0exception@@QAE@ABV0@@Z12
xdata$x	SEGMENT DWORD USE32 PUBLIC 'CONST'
xdata$x	ENDS
;	COMDAT ??_R0?AVexception@@@8
_DATA	SEGMENT DWORD USE32 PUBLIC 'DATA'
_DATA	ENDS
;	COMDAT __CT??_R0?AVbad_weak_ptr@boost@@@8??0bad_weak_ptr@boost@@QAE@ABV01@@Z12
xdata$x	SEGMENT DWORD USE32 PUBLIC 'CONST'
xdata$x	ENDS
;	COMDAT ??_R0?AVbad_weak_ptr@boost@@@8
_DATA	SEGMENT DWORD USE32 PUBLIC 'DATA'
_DATA	ENDS
;	COMDAT __TI2?AVbad_weak_ptr@boost@@
xdata$x	SEGMENT DWORD USE32 PUBLIC 'CONST'
xdata$x	ENDS
;	COMDAT ?_Ptr_cat@std@@YA?AU_Scalar_ptr_iterator_tag@1@PAJ0@Z
_TEXT	SEGMENT PARA USE32 PUBLIC 'CODE'
_TEXT	ENDS
;	COMDAT ??9const_iterator@?$_Tree@V?$_Tmap_traits@KU_Friend@@U?$less@K@std@@V?$allocator@U?$pair@$$CBKU_Friend@@@std@@@3@$0A@@std@@@std@@QBE_NABV012@@Z
_TEXT	SEGMENT PARA USE32 PUBLIC 'CODE'
_TEXT	ENDS
;	COMDAT ??8const_iterator@?$_Tree@V?$_Tmap_traits@KU_Friend@@U?$less@K@std@@V?$allocator@U?$pair@$$CBKU_Friend@@@std@@@3@$0A@@std@@@std@@QBE_NABV012@@Z
_TEXT	SEGMENT PARA USE32 PUBLIC 'CODE'
_TEXT	ENDS
;	COMDAT ??Eiterator@?$_Tree@V?$_Tmap_traits@KU_Friend@@U?$less@K@std@@V?$allocator@U?$pair@$$CBKU_Friend@@@std@@@3@$0A@@std@@@std@@QAEAAV012@XZ
_TEXT	SEGMENT PARA USE32 PUBLIC 'CODE'
_TEXT	ENDS
;	COMDAT ??Econst_iterator@?$_Tree@V?$_Tmap_traits@KU_Friend@@U?$less@K@std@@V?$allocator@U?$pair@$$CBKU_Friend@@@std@@@3@$0A@@std@@@std@@QAEAAV012@XZ
_TEXT	SEGMENT PARA USE32 PUBLIC 'CODE'
_TEXT	ENDS
;	COMDAT ?_Inc@const_iterator@?$_Tree@V?$_Tmap_traits@KU_Friend@@U?$less@K@std@@V?$allocator@U?$pair@$$CBKU_Friend@@@std@@@3@$0A@@std@@@std@@QAEXXZ
_TEXT	SEGMENT PARA USE32 PUBLIC 'CODE'
_TEXT	ENDS
;	COMDAT ?_Min@?$_Tree@V?$_Tmap_traits@KU_Friend@@U?$less@K@std@@V?$allocator@U?$pair@$$CBKU_Friend@@@std@@@3@$0A@@std@@@std@@KAPAU_Node@?$_Tree_nod@V?$_Tmap_traits@KU_Friend@@U?$less@K@std@@V?$allocator@U?$pair@$$CBKU_Friend@@@std@@@3@$0A@@std@@@2@PAU342@@Z
_TEXT	SEGMENT PARA USE32 PUBLIC 'CODE'
_TEXT	ENDS
;	COMDAT ?_Left@?$_Tree@V?$_Tmap_traits@KU_Friend@@U?$less@K@std@@V?$allocator@U?$pair@$$CBKU_Friend@@@std@@@3@$0A@@std@@@std@@KAAAPAU_Node@?$_Tree_nod@V?$_Tmap_traits@KU_Friend@@U?$less@K@std@@V?$allocator@U?$pair@$$CBKU_Friend@@@std@@@3@$0A@@std@@@2@PAU342@@Z
_TEXT	SEGMENT PARA USE32 PUBLIC 'CODE'
_TEXT	ENDS
;	COMDAT ?_Isnil@?$_Tree@V?$_Tmap_traits@KU_Friend@@U?$less@K@std@@V?$allocator@U?$pair@$$CBKU_Friend@@@std@@@3@$0A@@std@@@std@@KAAADPAU_Node@?$_Tree_nod@V?$_Tmap_traits@KU_Friend@@U?$less@K@std@@V?$allocator@U?$pair@$$CBKU_Friend@@@std@@@3@$0A@@std@@@2@@Z
_TEXT	SEGMENT PARA USE32 PUBLIC 'CODE'
_TEXT	ENDS
;	COMDAT ?_Parent@?$_Tree@V?$_Tmap_traits@KU_Friend@@U?$less@K@std@@V?$allocator@U?$pair@$$CBKU_Friend@@@std@@@3@$0A@@std@@@std@@KAAAPAU_Node@?$_Tree_nod@V?$_Tmap_traits@KU_Friend@@U?$less@K@std@@V?$allocator@U?$pair@$$CBKU_Friend@@@std@@@3@$0A@@std@@@2@PAU342@@Z
_TEXT	SEGMENT PARA USE32 PUBLIC 'CODE'
_TEXT	ENDS
;	COMDAT ?_Right@?$_Tree@V?$_Tmap_traits@KU_Friend@@U?$less@K@std@@V?$allocator@U?$pair@$$CBKU_Friend@@@std@@@3@$0A@@std@@@std@@KAAAPAU_Node@?$_Tree_nod@V?$_Tmap_traits@KU_Friend@@U?$less@K@std@@V?$allocator@U?$pair@$$CBKU_Friend@@@std@@@3@$0A@@std@@@2@PAU342@@Z
_TEXT	SEGMENT PARA USE32 PUBLIC 'CODE'
_TEXT	ENDS
;	COMDAT ?_Psave@?$_Facetptr@V?$ctype@G@std@@@std@@2PBVfacet@locale@2@B
_DATA	SEGMENT DWORD USE32 PUBLIC 'DATA'
_DATA	ENDS
;	COMDAT ?_Psave@?$_Facetptr@V?$ctype@D@std@@@std@@2PBVfacet@locale@2@B
_DATA	SEGMENT DWORD USE32 PUBLIC 'DATA'
_DATA	ENDS
;	COMDAT __TI3?AVlength_error@std@@
xdata$x	SEGMENT DWORD USE32 PUBLIC 'CONST'
xdata$x	ENDS
;	COMDAT ??1length_error@std@@UAE@XZ
_TEXT	SEGMENT PARA USE32 PUBLIC 'CODE'
_TEXT	ENDS
;	COMDAT ??_7length_error@std@@6B@
CONST	SEGMENT DWORD USE32 PUBLIC 'CONST'
CONST	ENDS
;	COMDAT ??_Glength_error@std@@UAEPAXI@Z
_TEXT	SEGMENT PARA USE32 PUBLIC 'CODE'
_TEXT	ENDS
;	COMDAT ?what@logic_error@std@@UBEPBDXZ
_TEXT	SEGMENT PARA USE32 PUBLIC 'CODE'
_TEXT	ENDS
;	COMDAT ?c_str@?$basic_string@DU?$char_traits@D@std@@V?$allocator@D@2@@std@@QBEPBDXZ
_TEXT	SEGMENT PARA USE32 PUBLIC 'CODE'
_TEXT	ENDS
;	COMDAT ??1logic_error@std@@UAE@XZ
_TEXT	SEGMENT PARA USE32 PUBLIC 'CODE'
_TEXT	ENDS
;	COMDAT ??_7logic_error@std@@6B@
CONST	SEGMENT DWORD USE32 PUBLIC 'CONST'
CONST	ENDS
;	COMDAT ??_Glogic_error@std@@UAEPAXI@Z
_TEXT	SEGMENT PARA USE32 PUBLIC 'CODE'
_TEXT	ENDS
;	COMDAT __CTA3?AVlength_error@std@@
xdata$x	SEGMENT DWORD USE32 PUBLIC 'CONST'
xdata$x	ENDS
;	COMDAT __CT??_R0?AVlength_error@std@@@8??0length_error@std@@QAE@ABV01@@Z40
xdata$x	SEGMENT DWORD USE32 PUBLIC 'CONST'
xdata$x	ENDS
;	COMDAT ??_R0?AVlength_error@std@@@8
_DATA	SEGMENT DWORD USE32 PUBLIC 'DATA'
_DATA	ENDS
;	COMDAT ??0length_error@std@@QAE@ABV01@@Z
_TEXT	SEGMENT PARA USE32 PUBLIC 'CODE'
_TEXT	ENDS
;	COMDAT ??0logic_error@std@@QAE@ABV01@@Z
_TEXT	SEGMENT PARA USE32 PUBLIC 'CODE'
_TEXT	ENDS
;	COMDAT ??0?$basic_string@DU?$char_traits@D@std@@V?$allocator@D@2@@std@@QAE@ABV01@@Z
_TEXT	SEGMENT PARA USE32 PUBLIC 'CODE'
_TEXT	ENDS
;	COMDAT ??0?$_String_val@DV?$allocator@D@std@@@std@@IAE@V?$allocator@D@1@@Z
_TEXT	SEGMENT PARA USE32 PUBLIC 'CODE'
_TEXT	ENDS
;	COMDAT ??0?$allocator@D@std@@QAE@ABV01@@Z
_TEXT	SEGMENT PARA USE32 PUBLIC 'CODE'
_TEXT	ENDS
;	COMDAT ?_Tidy@?$basic_string@DU?$char_traits@D@std@@V?$allocator@D@2@@std@@IAEX_NI@Z
_TEXT	SEGMENT PARA USE32 PUBLIC 'CODE'
_TEXT	ENDS
;	COMDAT ?copy@?$char_traits@D@std@@SAPADPADPBDI@Z
_TEXT	SEGMENT PARA USE32 PUBLIC 'CODE'
_TEXT	ENDS
;	COMDAT ?deallocate@?$allocator@D@std@@QAEXPADI@Z
_TEXT	SEGMENT PARA USE32 PUBLIC 'CODE'
_TEXT	ENDS
;	COMDAT ?_Eos@?$basic_string@DU?$char_traits@D@std@@V?$allocator@D@2@@std@@IAEXI@Z
_TEXT	SEGMENT PARA USE32 PUBLIC 'CODE'
_TEXT	ENDS
;	COMDAT ?assign@?$char_traits@D@std@@SAXAADABD@Z
_TEXT	SEGMENT PARA USE32 PUBLIC 'CODE'
_TEXT	ENDS
;	COMDAT ?_Myptr@?$basic_string@DU?$char_traits@D@std@@V?$allocator@D@2@@std@@QAEPADXZ
_TEXT	SEGMENT PARA USE32 PUBLIC 'CODE'
_TEXT	ENDS
;	COMDAT ?assign@?$basic_string@DU?$char_traits@D@std@@V?$allocator@D@2@@std@@QAEAAV12@ABV12@II@Z
_TEXT	SEGMENT PARA USE32 PUBLIC 'CODE'
_TEXT	ENDS
;	COMDAT ?erase@?$basic_string@DU?$char_traits@D@std@@V?$allocator@D@2@@std@@QAEAAV12@II@Z
_TEXT	SEGMENT PARA USE32 PUBLIC 'CODE'
_TEXT	ENDS
;	COMDAT ?move@?$char_traits@D@std@@SAPADPADPBDI@Z
_TEXT	SEGMENT PARA USE32 PUBLIC 'CODE'
_TEXT	ENDS
;	COMDAT ?_Grow@?$basic_string@DU?$char_traits@D@std@@V?$allocator@D@2@@std@@IAE_NI_N@Z
_TEXT	SEGMENT PARA USE32 PUBLIC 'CODE'
_TEXT	ENDS
;	COMDAT ?max_size@?$basic_string@DU?$char_traits@D@std@@V?$allocator@D@2@@std@@QBEIXZ
_TEXT	SEGMENT PARA USE32 PUBLIC 'CODE'
_TEXT	ENDS
;	COMDAT ?max_size@?$allocator@D@std@@QBEIXZ
_TEXT	SEGMENT PARA USE32 PUBLIC 'CODE'
_TEXT	ENDS
;	COMDAT ?_Copy@?$basic_string@DU?$char_traits@D@std@@V?$allocator@D@2@@std@@IAEXII@Z
_TEXT	SEGMENT PARA USE32 PUBLIC 'CODE'
_TEXT	ENDS
;	COMDAT ?allocate@?$allocator@D@std@@QAEPADI@Z
_TEXT	SEGMENT PARA USE32 PUBLIC 'CODE'
_TEXT	ENDS
;	COMDAT ??$_Allocate@D@std@@YAPADIPAD@Z
_TEXT	SEGMENT PARA USE32 PUBLIC 'CODE'
_TEXT	ENDS
;	COMDAT ?npos@?$basic_string@DU?$char_traits@D@std@@V?$allocator@D@2@@std@@2IB
CONST	SEGMENT DWORD USE32 PUBLIC 'CONST'
CONST	ENDS
;	COMDAT __CT??_R0?AVlogic_error@std@@@8??0logic_error@std@@QAE@ABV01@@Z40
xdata$x	SEGMENT DWORD USE32 PUBLIC 'CONST'
xdata$x	ENDS
;	COMDAT ??_R0?AVlogic_error@std@@@8
_DATA	SEGMENT DWORD USE32 PUBLIC 'DATA'
_DATA	ENDS
;	COMDAT ??1?$basic_string@DU?$char_traits@D@std@@V?$allocator@D@2@@std@@QAE@XZ
_TEXT	SEGMENT PARA USE32 PUBLIC 'CODE'
_TEXT	ENDS
;	COMDAT ??_C@_0BD@OLBABOEK@vector?$DMT?$DO?5too?5long?$AA@
CONST	SEGMENT DWORD USE32 PUBLIC 'CONST'
CONST	ENDS
;	COMDAT ??0?$basic_string@DU?$char_traits@D@std@@V?$allocator@D@2@@std@@QAE@PBD@Z
_TEXT	SEGMENT PARA USE32 PUBLIC 'CODE'
_TEXT	ENDS
;	COMDAT ??0?$allocator@D@std@@QAE@XZ
_TEXT	SEGMENT PARA USE32 PUBLIC 'CODE'
_TEXT	ENDS
;	COMDAT ?assign@?$basic_string@DU?$char_traits@D@std@@V?$allocator@D@2@@std@@QAEAAV12@PBD@Z
_TEXT	SEGMENT PARA USE32 PUBLIC 'CODE'
_TEXT	ENDS
;	COMDAT ?assign@?$basic_string@DU?$char_traits@D@std@@V?$allocator@D@2@@std@@QAEAAV12@PBDI@Z
_TEXT	SEGMENT PARA USE32 PUBLIC 'CODE'
_TEXT	ENDS
;	COMDAT ?_Inside@?$basic_string@DU?$char_traits@D@std@@V?$allocator@D@2@@std@@IAE_NPBD@Z
_TEXT	SEGMENT PARA USE32 PUBLIC 'CODE'
_TEXT	ENDS
;	COMDAT ?length@?$char_traits@D@std@@SAIPBD@Z
_TEXT	SEGMENT PARA USE32 PUBLIC 'CODE'
_TEXT	ENDS
;	COMDAT ??0length_error@std@@QAE@ABV?$basic_string@DU?$char_traits@D@std@@V?$allocator@D@2@@1@@Z
_TEXT	SEGMENT PARA USE32 PUBLIC 'CODE'
_TEXT	ENDS
;	COMDAT ??0logic_error@std@@QAE@ABV?$basic_string@DU?$char_traits@D@std@@V?$allocator@D@2@@1@@Z
_TEXT	SEGMENT PARA USE32 PUBLIC 'CODE'
_TEXT	ENDS
;	COMDAT ?compare@?$char_traits@D@std@@SAHPBD0I@Z
_TEXT	SEGMENT PARA USE32 PUBLIC 'CODE'
_TEXT	ENDS
;	COMDAT ??R?$less@K@std@@QBE_NABK0@Z
_TEXT	SEGMENT PARA USE32 PUBLIC 'CODE'
_TEXT	ENDS
;	COMDAT ?_Myptr@?$basic_string@DU?$char_traits@D@std@@V?$allocator@D@2@@std@@QBEPBDXZ
_TEXT	SEGMENT PARA USE32 PUBLIC 'CODE'
_TEXT	ENDS
;	COMDAT ?size@?$basic_string@DU?$char_traits@D@std@@V?$allocator@D@2@@std@@QBEIXZ
_TEXT	SEGMENT PARA USE32 PUBLIC 'CODE'
_TEXT	ENDS
;	COMDAT ?ReleaseBufferSetLength@?$CSimpleStringT@D$0A@@ATL@@QAEXH@Z
_TEXT	SEGMENT PARA USE32 PUBLIC 'CODE'
_TEXT	ENDS
;	COMDAT ?SetLength@?$CSimpleStringT@D$0A@@ATL@@AAEXH@Z
_TEXT	SEGMENT PARA USE32 PUBLIC 'CODE'
_TEXT	ENDS
;	COMDAT ?AtlThrow@ATL@@YGXJ@Z
_TEXT	SEGMENT PARA USE32 PUBLIC 'CODE'
_TEXT	ENDS
;	COMDAT ?GetData@?$CSimpleStringT@D$0A@@ATL@@ABEPAUCStringData@2@XZ
_TEXT	SEGMENT PARA USE32 PUBLIC 'CODE'
_TEXT	ENDS
;	COMDAT ?GetBuffer@?$CSimpleStringT@D$0A@@ATL@@QAEPADH@Z
_TEXT	SEGMENT PARA USE32 PUBLIC 'CODE'
_TEXT	ENDS
;	COMDAT ?PrepareWrite@?$CSimpleStringT@D$0A@@ATL@@AAEPADH@Z
_TEXT	SEGMENT PARA USE32 PUBLIC 'CODE'
_TEXT	ENDS
;	COMDAT ?PrepareWrite2@?$CSimpleStringT@D$0A@@ATL@@AAEXH@Z
_TEXT	SEGMENT PARA USE32 PUBLIC 'CODE'
_TEXT	ENDS
;	COMDAT ?IsShared@CStringData@ATL@@QBE_NXZ
_TEXT	SEGMENT PARA USE32 PUBLIC 'CODE'
_TEXT	ENDS
;	COMDAT ?Fork@?$CSimpleStringT@D$0A@@ATL@@AAEXH@Z
_TEXT	SEGMENT PARA USE32 PUBLIC 'CODE'
_TEXT	ENDS
;	COMDAT ?ThrowMemoryException@?$CSimpleStringT@D$0A@@ATL@@KAXXZ
_TEXT	SEGMENT PARA USE32 PUBLIC 'CODE'
_TEXT	ENDS
;	COMDAT ?CopyChars@?$CSimpleStringT@D$0A@@ATL@@SAXPADPBDH@Z
_TEXT	SEGMENT PARA USE32 PUBLIC 'CODE'
_TEXT	ENDS
;	COMDAT ?data@CStringData@ATL@@QAEPAXXZ
_TEXT	SEGMENT PARA USE32 PUBLIC 'CODE'
_TEXT	ENDS
;	COMDAT ?Release@CStringData@ATL@@QAEXXZ
_TEXT	SEGMENT PARA USE32 PUBLIC 'CODE'
_TEXT	ENDS
;	COMDAT ?Attach@?$CSimpleStringT@D$0A@@ATL@@AAEXPAUCStringData@2@@Z
_TEXT	SEGMENT PARA USE32 PUBLIC 'CODE'
_TEXT	ENDS
;	COMDAT ?Reallocate@?$CSimpleStringT@D$0A@@ATL@@AAEXH@Z
_TEXT	SEGMENT PARA USE32 PUBLIC 'CODE'
_TEXT	ENDS
;	COMDAT ?StringFindString@?$ChTraitsCRT@D@ATL@@SAPBDPBD0@Z
_TEXT	SEGMENT PARA USE32 PUBLIC 'CODE'
_TEXT	ENDS
;	COMDAT ?GetLength@?$CSimpleStringT@D$0A@@ATL@@QBEHXZ
_TEXT	SEGMENT PARA USE32 PUBLIC 'CODE'
_TEXT	ENDS
;	COMDAT ?GetString@?$CSimpleStringT@D$0A@@ATL@@QBEPBDXZ
_TEXT	SEGMENT PARA USE32 PUBLIC 'CODE'
_TEXT	ENDS
;	COMDAT ??_7CTLordSkill@@6B@
CONST	SEGMENT DWORD USE32 PUBLIC 'CONST'
CONST	ENDS
;	COMDAT ??_7CLController@@6B@
CONST	SEGMENT DWORD USE32 PUBLIC 'CONST'
CONST	ENDS
;	COMDAT ??_7CLEvent@@6B@
CONST	SEGMENT DWORD USE32 PUBLIC 'CONST'
CONST	ENDS
;	COMDAT ??1CMclAutoLock@@QAE@XZ
_TEXT	SEGMENT PARA USE32 PUBLIC 'CODE'
_TEXT	ENDS
;	COMDAT ?Leave@CMclCritSec@@QAEXXZ
_TEXT	SEGMENT PARA USE32 PUBLIC 'CODE'
_TEXT	ENDS
;	COMDAT ??0CMclAutoLock@@QAE@AAVCMclCritSec@@@Z
_TEXT	SEGMENT PARA USE32 PUBLIC 'CODE'
_TEXT	ENDS
;	COMDAT ?Enter@CMclCritSec@@QAEXXZ
_TEXT	SEGMENT PARA USE32 PUBLIC 'CODE'
_TEXT	ENDS
;	COMDAT ?xRand@@YAKXZ
_TEXT	SEGMENT PARA USE32 PUBLIC 'CODE'
_TEXT	ENDS
;	COMDAT ?SetSerialNumber@CItemBase@@QAEXK@Z
_TEXT	SEGMENT PARA USE32 PUBLIC 'CODE'
_TEXT	ENDS
;	COMDAT ?GetText@CProject@@QAEPBDK@Z
_TEXT	SEGMENT PARA USE32 PUBLIC 'CODE'
_TEXT	ENDS
;	COMDAT ??_C@_00CNPNBAHC@?$AA@
CONST	SEGMENT DWORD USE32 PUBLIC 'CONST'
CONST	ENDS
;	COMDAT ?GetAt@?$CFixedArray@UtagColorText@@@@QAEPAUtagColorText@@K@Z
_TEXT	SEGMENT PARA USE32 PUBLIC 'CODE'
_TEXT	ENDS
;	COMDAT ??0CTime@ATL@@QAE@HHHHHHH@Z
_TEXT	SEGMENT PARA USE32 PUBLIC 'CODE'
_TEXT	ENDS
;	COMDAT ??1?$CStringT@DV?$StrTraitMFC@DV?$ChTraitsCRT@D@ATL@@@@@ATL@@QAE@XZ
_TEXT	SEGMENT PARA USE32 PUBLIC 'CODE'
_TEXT	ENDS
;	COMDAT ??1?$CSimpleStringT@D$0A@@ATL@@QAE@XZ
_TEXT	SEGMENT PARA USE32 PUBLIC 'CODE'
_TEXT	ENDS
;	COMDAT ?Format@CTime@ATL@@QBE?AV?$CStringT@DV?$StrTraitMFC@DV?$ChTraitsCRT@D@ATL@@@@@2@PBD@Z
_TEXT	SEGMENT PARA USE32 PUBLIC 'CODE'
_TEXT	ENDS
;	COMDAT ??0?$CStringT@DV?$StrTraitMFC@DV?$ChTraitsCRT@D@ATL@@@@@ATL@@QAE@PBD@Z
_TEXT	SEGMENT PARA USE32 PUBLIC 'CODE'
_TEXT	ENDS
;	COMDAT ??0?$CSimpleStringT@D$0A@@ATL@@QAE@PAUIAtlStringMgr@1@@Z
_TEXT	SEGMENT PARA USE32 PUBLIC 'CODE'
_TEXT	ENDS
;	COMDAT ?GetDefaultManager@?$StrTraitMFC@DV?$ChTraitsCRT@D@ATL@@@@SAPAUIAtlStringMgr@ATL@@XZ
_TEXT	SEGMENT PARA USE32 PUBLIC 'CODE'
_TEXT	ENDS
;	COMDAT ?CheckImplicitLoad@?$CStringT@DV?$StrTraitMFC@DV?$ChTraitsCRT@D@ATL@@@@@ATL@@AAE_NPBX@Z
_TEXT	SEGMENT PARA USE32 PUBLIC 'CODE'
_TEXT	ENDS
;	COMDAT ?LoadStringA@?$CStringT@DV?$StrTraitMFC@DV?$ChTraitsCRT@D@ATL@@@@@ATL@@QAEHI@Z
_TEXT	SEGMENT PARA USE32 PUBLIC 'CODE'
_TEXT	ENDS
;	COMDAT ?FindStringResourceInstance@?$StrTraitMFC@DV?$ChTraitsCRT@D@ATL@@@@SAPAUHINSTANCE__@@I@Z
_TEXT	SEGMENT PARA USE32 PUBLIC 'CODE'
_TEXT	ENDS
;	COMDAT ?LoadStringA@?$CStringT@DV?$StrTraitMFC@DV?$ChTraitsCRT@D@ATL@@@@@ATL@@QAEHPAUHINSTANCE__@@I@Z
_TEXT	SEGMENT PARA USE32 PUBLIC 'CODE'
_TEXT	ENDS
;	COMDAT ?AtlGetStringResourceImage@ATL@@YAPBUATLSTRINGRESOURCEIMAGE@1@PAUHINSTANCE__@@I@Z
_TEXT	SEGMENT PARA USE32 PUBLIC 'CODE'
_TEXT	ENDS
;	COMDAT ?_AtlGetStringResourceImage@ATL@@YAPBUATLSTRINGRESOURCEIMAGE@1@PAUHINSTANCE__@@PAUHRSRC__@@I@Z
_TEXT	SEGMENT PARA USE32 PUBLIC 'CODE'
_TEXT	ENDS
;	COMDAT ?GetBaseTypeLength@?$ChTraitsCRT@D@ATL@@SAHPBGH@Z
_TEXT	SEGMENT PARA USE32 PUBLIC 'CODE'
_TEXT	ENDS
;	COMDAT ?_AtlGetConversionACP@ATL@@YGIXZ
_TEXT	SEGMENT PARA USE32 PUBLIC 'CODE'
_TEXT	ENDS
;	COMDAT ?g_pfnGetThreadACP@ATL@@3P6GIXZA
_DATA	SEGMENT DWORD USE32 PUBLIC 'DATA'
_DATA	ENDS
;	COMDAT ?_AtlGetThreadACPThunk@ATL@@YGIXZ
_TEXT	SEGMENT PARA USE32 PUBLIC 'CODE'
_TEXT	ENDS
;	COMDAT ?_AtlGetThreadACPReal@ATL@@YGIXZ
_TEXT	SEGMENT PARA USE32 PUBLIC 'CODE'
_TEXT	ENDS
;	COMDAT ?_AtlGetThreadACPFake@ATL@@YGIXZ
_TEXT	SEGMENT PARA USE32 PUBLIC 'CODE'
_TEXT	ENDS
;	COMDAT ?InterlockedExchangePointer@@YGPAXPAPAXPAX@Z
_TEXT	SEGMENT PARA USE32 PUBLIC 'CODE'
_TEXT	ENDS
;	COMDAT ?ConvertToBaseType@?$ChTraitsCRT@D@ATL@@SAXPADHPBGH@Z
_TEXT	SEGMENT PARA USE32 PUBLIC 'CODE'
_TEXT	ENDS
;	COMDAT ??0CTime@ATL@@QAE@_J@Z
_TEXT	SEGMENT PARA USE32 PUBLIC 'CODE'
_TEXT	ENDS
;	COMDAT ??_7CTElection@@6B@
CONST	SEGMENT DWORD USE32 PUBLIC 'CONST'
CONST	ENDS
;	COMDAT ??5@YAAAVCAr@@AAV0@AA_J@Z
_TEXT	SEGMENT PARA USE32 PUBLIC 'CODE'
_TEXT	ENDS
;	COMDAT ?sLord@?1??Instance@CTLord@@SAPAV2@XZ@4V2@A
_BSS	SEGMENT DWORD USE32 PUBLIC 'BSS'
_BSS	ENDS
;	COMDAT ?$S1@?1??Instance@CTLord@@SAPAV2@XZ@4IA
_BSS	SEGMENT DWORD USE32 PUBLIC 'BSS'
_BSS	ENDS
;	COMDAT ??_7CTLord@@6B@
CONST	SEGMENT DWORD USE32 PUBLIC 'CONST'
CONST	ENDS
;	COMDAT ??4?$CStringT@DV?$StrTraitMFC@DV?$ChTraitsCRT@D@ATL@@@@@ATL@@QAEAAV01@PBD@Z
_TEXT	SEGMENT PARA USE32 PUBLIC 'CODE'
_TEXT	ENDS
;	COMDAT ??4?$CSimpleStringT@D$0A@@ATL@@QAEAAV01@PBD@Z
_TEXT	SEGMENT PARA USE32 PUBLIC 'CODE'
_TEXT	ENDS
;	COMDAT ?SetString@?$CSimpleStringT@D$0A@@ATL@@QAEXPBD@Z
_TEXT	SEGMENT PARA USE32 PUBLIC 'CODE'
_TEXT	ENDS
;	COMDAT ?SetString@?$CSimpleStringT@D$0A@@ATL@@QAEXPBDH@Z
_TEXT	SEGMENT PARA USE32 PUBLIC 'CODE'
_TEXT	ENDS
;	COMDAT ?Empty@?$CSimpleStringT@D$0A@@ATL@@QAEXXZ
_TEXT	SEGMENT PARA USE32 PUBLIC 'CODE'
_TEXT	ENDS
;	COMDAT ?IsLocked@CStringData@ATL@@QBE_NXZ
_TEXT	SEGMENT PARA USE32 PUBLIC 'CODE'
_TEXT	ENDS
;	COMDAT ?CopyCharsOverlapped@?$CSimpleStringT@D$0A@@ATL@@SAXPADPBDH@Z
_TEXT	SEGMENT PARA USE32 PUBLIC 'CODE'
_TEXT	ENDS
;	COMDAT ?StringLength@?$CSimpleStringT@D$0A@@ATL@@SAHPBD@Z
_TEXT	SEGMENT PARA USE32 PUBLIC 'CODE'
_TEXT	ENDS
;	COMDAT ??B?$CSimpleStringT@D$0A@@ATL@@QBEPBDXZ
_TEXT	SEGMENT PARA USE32 PUBLIC 'CODE'
_TEXT	ENDS
;	COMDAT ??5@YAAAVCAr@@AAV0@AAUD3DXVECTOR3@@@Z
_TEXT	SEGMENT PARA USE32 PUBLIC 'CODE'
_TEXT	ENDS
;	COMDAT ??5CAr@@QAEAAV0@AAM@Z
_TEXT	SEGMENT PARA USE32 PUBLIC 'CODE'
_TEXT	ENDS
;	COMDAT ??5CAr@@QAEAAV0@AAK@Z
_TEXT	SEGMENT PARA USE32 PUBLIC 'CODE'
_TEXT	ENDS
;	COMDAT ??5CAr@@QAEAAV0@AAJ@Z
_TEXT	SEGMENT PARA USE32 PUBLIC 'CODE'
_TEXT	ENDS
;	COMDAT ?time_null@@YAJXZ
_TEXT	SEGMENT PARA USE32 PUBLIC 'CODE'
_TEXT	ENDS
;	COMDAT ??6CAr@@QAEAAV0@K@Z
_TEXT	SEGMENT PARA USE32 PUBLIC 'CODE'
_TEXT	ENDS
;	COMDAT ??6CAr@@QAEAAV0@J@Z
_TEXT	SEGMENT PARA USE32 PUBLIC 'CODE'
_TEXT	ENDS
;	COMDAT ??6@YAAAVCAr@@AAV0@UD3DXVECTOR3@@@Z
_TEXT	SEGMENT PARA USE32 PUBLIC 'CODE'
_TEXT	ENDS
;	COMDAT ??6CAr@@QAEAAV0@M@Z
_TEXT	SEGMENT PARA USE32 PUBLIC 'CODE'
_TEXT	ENDS
;	COMDAT ?IsStoring@CAr@@QBEHXZ
_TEXT	SEGMENT PARA USE32 PUBLIC 'CODE'
_TEXT	ENDS
;	COMDAT ?GetTime@CTime@ATL@@QBE_JXZ
_TEXT	SEGMENT PARA USE32 PUBLIC 'CODE'
_TEXT	ENDS
;	COMDAT ??0CTimeSpan@ATL@@QAE@JHHH@Z
_TEXT	SEGMENT PARA USE32 PUBLIC 'CODE'
_TEXT	ENDS
;	COMDAT ?GetTickCount@CTime@ATL@@SG?AV12@XZ
_TEXT	SEGMENT PARA USE32 PUBLIC 'CODE'
_TEXT	ENDS
;	COMDAT ??HCTime@ATL@@QBE?AV01@VCTimeSpan@1@@Z
_TEXT	SEGMENT PARA USE32 PUBLIC 'CODE'
_TEXT	ENDS
;	COMDAT ?GetTimeSpan@CTimeSpan@ATL@@QBE_JXZ
_TEXT	SEGMENT PARA USE32 PUBLIC 'CODE'
_TEXT	ENDS
;	COMDAT ?GetItemProp@CProject@@QAEPAUItemProp@@H@Z
_TEXT	SEGMENT PARA USE32 PUBLIC 'CODE'
_TEXT	ENDS
;	COMDAT ?GetAt@?$CFixedArray@UItemProp@@@@QAEPAUItemProp@@K@Z
_TEXT	SEGMENT PARA USE32 PUBLIC 'CODE'
_TEXT	ENDS
;	COMDAT ??0D3DXVECTOR3@@QAE@MMM@Z
_TEXT	SEGMENT PARA USE32 PUBLIC 'CODE'
_TEXT	ENDS
;	COMDAT ??5CAr@@QAEAAV0@AAH@Z
_TEXT	SEGMENT PARA USE32 PUBLIC 'CODE'
_TEXT	ENDS
;	COMDAT ??6CAr@@QAEAAV0@H@Z
_TEXT	SEGMENT PARA USE32 PUBLIC 'CODE'
_TEXT	ENDS
;	COMDAT ??_7CLordSkillComponentExecutable@@6B@
CONST	SEGMENT DWORD USE32 PUBLIC 'CONST'
CONST	ENDS
;	COMDAT ??_7bad_weak_ptr@boost@@6B@
CONST	SEGMENT DWORD USE32 PUBLIC 'CONST'
CONST	ENDS
;	COMDAT ??_7sp_counted_base@detail@boost@@6B@
CONST	SEGMENT DWORD USE32 PUBLIC 'CONST'
CONST	ENDS
sxdata	SEGMENT DWORD USE32 'SXDATA'
sxdata	ENDS
FLAT	GROUP _DATA, CONST, _BSS
	ASSUME	CS: FLAT, DS: FLAT, SS: FLAT
endif

INCLUDELIB LIBCMT
INCLUDELIB OLDNAMES

PUBLIC	?g_pfnGetThreadACP@ATL@@3P6GIXZA		; ATL::g_pfnGetThreadACP
PUBLIC	?_AtlGetThreadACPThunk@ATL@@YGIXZ		; ATL::_AtlGetThreadACPThunk
;	COMDAT ?g_pfnGetThreadACP@ATL@@3P6GIXZA
_DATA	SEGMENT
?g_pfnGetThreadACP@ATL@@3P6GIXZA DD FLAT:?_AtlGetThreadACPThunk@ATL@@YGIXZ ; ATL::g_pfnGetThreadACP
_DATA	ENDS
PUBLIC	?GetId@CLordSkillComponent@@QAEHXZ		; CLordSkillComponent::GetId
; Function compile flags: /Ogty
; File c:\documents and settings\test\mes documents\source\virtuos_v17\build\program\_common\lordskill.h
;	COMDAT ?GetId@CLordSkillComponent@@QAEHXZ
_TEXT	SEGMENT
?GetId@CLordSkillComponent@@QAEHXZ PROC NEAR		; CLordSkillComponent::GetId, COMDAT
; _this$ = ecx

; 22   : 	int		GetId( void )	{	return m_nId;	}

  00000	8b 41 04	 mov	 eax, DWORD PTR [ecx+4]
  00003	c3		 ret	 0
?GetId@CLordSkillComponent@@QAEHXZ ENDP			; CLordSkillComponent::GetId
_TEXT	ENDS
PUBLIC	?GetTick@CLordSkillComponent@@QAEHXZ		; CLordSkillComponent::GetTick
; Function compile flags: /Ogty
;	COMDAT ?GetTick@CLordSkillComponent@@QAEHXZ
_TEXT	SEGMENT
?GetTick@CLordSkillComponent@@QAEHXZ PROC NEAR		; CLordSkillComponent::GetTick, COMDAT
; _this$ = ecx

; 30   : 	int		GetTick( void )		{	return m_nTick;		};

  00000	8b 41 0c	 mov	 eax, DWORD PTR [ecx+12]
  00003	c3		 ret	 0
?GetTick@CLordSkillComponent@@QAEHXZ ENDP		; CLordSkillComponent::GetTick
_TEXT	ENDS
PUBLIC	?SetTick@CLordSkillComponent@@QAEXH@Z		; CLordSkillComponent::SetTick
; Function compile flags: /Ogty
;	COMDAT ?SetTick@CLordSkillComponent@@QAEXH@Z
_TEXT	SEGMENT
_nTick$ = 8						; size = 4
?SetTick@CLordSkillComponent@@QAEXH@Z PROC NEAR		; CLordSkillComponent::SetTick, COMDAT
; _this$ = ecx

; 31   : 	void	SetTick( int nTick )	{	m_nTick		= nTick;	}

  00000	8b 44 24 04	 mov	 eax, DWORD PTR _nTick$[esp-4]
  00004	89 41 0c	 mov	 DWORD PTR [ecx+12], eax
  00007	c2 04 00	 ret	 4
?SetTick@CLordSkillComponent@@QAEXH@Z ENDP		; CLordSkillComponent::SetTick
_TEXT	ENDS
PUBLIC	?GetIdPlayer@CCandidate@@QAEKXZ			; CCandidate::GetIdPlayer
; Function compile flags: /Ogty
; File c:\documents and settings\test\mes documents\source\virtuos_v17\build\program\_common\lord.h
;	COMDAT ?GetIdPlayer@CCandidate@@QAEKXZ
_TEXT	SEGMENT
?GetIdPlayer@CCandidate@@QAEKXZ PROC NEAR		; CCandidate::GetIdPlayer, COMDAT
; _this$ = ecx

; 32   : 	u_long	GetIdPlayer( void )		{	return m_idPlayer;		}

  00000	8b 01		 mov	 eax, DWORD PTR [ecx]
  00002	c3		 ret	 0
?GetIdPlayer@CCandidate@@QAEKXZ ENDP			; CCandidate::GetIdPlayer
_TEXT	ENDS
PUBLIC	?GetDeposit@CCandidate@@QBE_JXZ			; CCandidate::GetDeposit
; Function compile flags: /Ogty
;	COMDAT ?GetDeposit@CCandidate@@QBE_JXZ
_TEXT	SEGMENT
?GetDeposit@CCandidate@@QBE_JXZ PROC NEAR		; CCandidate::GetDeposit, COMDAT
; _this$ = ecx

; 34   : 	__int64		GetDeposit( void )	const	{	return m_iDeposit;	}

  00000	8b 41 08	 mov	 eax, DWORD PTR [ecx+8]
  00003	8b 51 0c	 mov	 edx, DWORD PTR [ecx+12]
  00006	c3		 ret	 0
?GetDeposit@CCandidate@@QBE_JXZ ENDP			; CCandidate::GetDeposit
_TEXT	ENDS
PUBLIC	?GetId@IElection@@QAEKXZ			; IElection::GetId
; Function compile flags: /Ogty
;	COMDAT ?GetId@IElection@@QAEKXZ
_TEXT	SEGMENT
?GetId@IElection@@QAEKXZ PROC NEAR			; IElection::GetId, COMDAT
; _this$ = ecx

; 66   : 	u_long	GetId( void )	{	return m_idElection;	}

  00000	8b 41 08	 mov	 eax, DWORD PTR [ecx+8]
  00003	c3		 ret	 0
?GetId@IElection@@QAEKXZ ENDP				; IElection::GetId
_TEXT	ENDS
PUBLIC	?SetState@IElection@@QAEXW4ELECTION_STATE@1@@Z	; IElection::SetState
; Function compile flags: /Ogty
;	COMDAT ?SetState@IElection@@QAEXW4ELECTION_STATE@1@@Z
_TEXT	SEGMENT
_eState$ = 8						; size = 4
?SetState@IElection@@QAEXW4ELECTION_STATE@1@@Z PROC NEAR ; IElection::SetState, COMDAT
; _this$ = ecx

; 72   : 	void	SetState( ELECTION_STATE eState )	{	m_eState	= eState;	}

  00000	8b 44 24 04	 mov	 eax, DWORD PTR _eState$[esp-4]
  00004	89 41 10	 mov	 DWORD PTR [ecx+16], eax
  00007	c2 04 00	 ret	 4
?SetState@IElection@@QAEXW4ELECTION_STATE@1@@Z ENDP	; IElection::SetState
_TEXT	ENDS
PUBLIC	?GetState@IElection@@QAE?AW4ELECTION_STATE@1@XZ	; IElection::GetState
; Function compile flags: /Ogty
;	COMDAT ?GetState@IElection@@QAE?AW4ELECTION_STATE@1@XZ
_TEXT	SEGMENT
?GetState@IElection@@QAE?AW4ELECTION_STATE@1@XZ PROC NEAR ; IElection::GetState, COMDAT
; _this$ = ecx

; 73   : 	ELECTION_STATE	GetState( void )	{	return m_eState;	}

  00000	8b 41 10	 mov	 eax, DWORD PTR [ecx+16]
  00003	c3		 ret	 0
?GetState@IElection@@QAE?AW4ELECTION_STATE@1@XZ ENDP	; IElection::GetState
_TEXT	ENDS
PUBLIC	?SetBegin@IElection@@QAEXJ@Z			; IElection::SetBegin
; Function compile flags: /Ogty
;	COMDAT ?SetBegin@IElection@@QAEXJ@Z
_TEXT	SEGMENT
_tBegin$ = 8						; size = 4
?SetBegin@IElection@@QAEXJ@Z PROC NEAR			; IElection::SetBegin, COMDAT
; _this$ = ecx

; 76   : 	void	SetBegin( time_t tBegin )	{	m_tBegin	= tBegin;	}

  00000	8b 44 24 04	 mov	 eax, DWORD PTR _tBegin$[esp-4]
  00004	89 41 24	 mov	 DWORD PTR [ecx+36], eax
  00007	c2 04 00	 ret	 4
?SetBegin@IElection@@QAEXJ@Z ENDP			; IElection::SetBegin
_TEXT	ENDS
PUBLIC	?GetBegin@IElection@@QAEJXZ			; IElection::GetBegin
; Function compile flags: /Ogty
;	COMDAT ?GetBegin@IElection@@QAEJXZ
_TEXT	SEGMENT
?GetBegin@IElection@@QAEJXZ PROC NEAR			; IElection::GetBegin, COMDAT
; _this$ = ecx

; 77   : 	time_t	GetBegin( void )	{	return m_tBegin;	}

  00000	8b 41 24	 mov	 eax, DWORD PTR [ecx+36]
  00003	c3		 ret	 0
?GetBegin@IElection@@QAEJXZ ENDP			; IElection::GetBegin
_TEXT	ENDS
PUBLIC	?SetRequirement@IElection@@QAEXH@Z		; IElection::SetRequirement
; Function compile flags: /Ogty
;	COMDAT ?SetRequirement@IElection@@QAEXH@Z
_TEXT	SEGMENT
_nRequirement$ = 8					; size = 4
?SetRequirement@IElection@@QAEXH@Z PROC NEAR		; IElection::SetRequirement, COMDAT
; _this$ = ecx

; 107  : 	void	SetRequirement( int nRequirement )	{	m_nRequirement	= nRequirement;		}

  00000	8b 44 24 04	 mov	 eax, DWORD PTR _nRequirement$[esp-4]
  00004	89 41 0c	 mov	 DWORD PTR [ecx+12], eax
  00007	c2 04 00	 ret	 4
?SetRequirement@IElection@@QAEXH@Z ENDP			; IElection::SetRequirement
_TEXT	ENDS
PUBLIC	?GetTick@CLEComponent@@QAEHXZ			; CLEComponent::GetTick
; Function compile flags: /Ogty
;	COMDAT ?GetTick@CLEComponent@@QAEHXZ
_TEXT	SEGMENT
?GetTick@CLEComponent@@QAEHXZ PROC NEAR			; CLEComponent::GetTick, COMDAT
; _this$ = ecx

; 174  : 	int		GetTick( void )		{	return nTick;	}

  00000	8b 41 04	 mov	 eax, DWORD PTR [ecx+4]
  00003	c3		 ret	 0
?GetTick@CLEComponent@@QAEHXZ ENDP			; CLEComponent::GetTick
_TEXT	ENDS
PUBLIC	?GetIdPlayer@CLEComponent@@QAEKXZ		; CLEComponent::GetIdPlayer
; Function compile flags: /Ogty
;	COMDAT ?GetIdPlayer@CLEComponent@@QAEKXZ
_TEXT	SEGMENT
?GetIdPlayer@CLEComponent@@QAEKXZ PROC NEAR		; CLEComponent::GetIdPlayer, COMDAT
; _this$ = ecx

; 176  : 	u_long	GetIdPlayer( void )	{	return idPlayer;	}

  00000	8b 41 08	 mov	 eax, DWORD PTR [ecx+8]
  00003	c3		 ret	 0
?GetIdPlayer@CLEComponent@@QAEKXZ ENDP			; CLEComponent::GetIdPlayer
_TEXT	ENDS
PUBLIC	?InterlockedExchangePointer@@YGPAXPAPAXPAX@Z	; InterlockedExchangePointer
EXTRN	__imp__InterlockedExchange@8:NEAR
; Function compile flags: /Ogty
; File c:\program files\microsoft visual studio .net 2003\vc7\atlmfc\include\atlconv.h
;	COMDAT ?InterlockedExchangePointer@@YGPAXPAPAXPAX@Z
_TEXT	SEGMENT
_pp$ = 8						; size = 4
_pNew$ = 12						; size = 4
?InterlockedExchangePointer@@YGPAXPAPAXPAX@Z PROC NEAR	; InterlockedExchangePointer, COMDAT

; 92   : 	return( reinterpret_cast<void*>(static_cast<LONG_PTR>(::InterlockedExchange(reinterpret_cast<LONG*>(pp), static_cast<LONG>(reinterpret_cast<LONG_PTR>(pNew))))) );

  00000	ff 25 00 00 00
	00		 jmp	 DWORD PTR __imp__InterlockedExchange@8
?InterlockedExchangePointer@@YGPAXPAPAXPAX@Z ENDP	; InterlockedExchangePointer
_TEXT	ENDS
PUBLIC	?GetEFactor@CLEComponent@@QAEMXZ		; CLEComponent::GetEFactor
EXTRN	__fltused:NEAR
; Function compile flags: /Ogty
; File c:\documents and settings\test\mes documents\source\virtuos_v17\build\program\_common\lord.h
;	COMDAT ?GetEFactor@CLEComponent@@QAEMXZ
_TEXT	SEGMENT
?GetEFactor@CLEComponent@@QAEMXZ PROC NEAR		; CLEComponent::GetEFactor, COMDAT
; _this$ = ecx

; 177  : 	float	GetEFactor( void )	{	return fEFactor;	}

  00000	d9 41 0c	 fld	 DWORD PTR [ecx+12]
  00003	c3		 ret	 0
?GetEFactor@CLEComponent@@QAEMXZ ENDP			; CLEComponent::GetEFactor
_TEXT	ENDS
PUBLIC	?_AtlGetThreadACPFake@ATL@@YGIXZ		; ATL::_AtlGetThreadACPFake
EXTRN	__imp__GetThreadLocale@0:NEAR
EXTRN	___security_cookie:DWORD
EXTRN	@__security_check_cookie@4:NEAR
EXTRN	__imp__GetACP@0:NEAR
EXTRN	__imp__GetLocaleInfoA@16:NEAR
; Function compile flags: /Ogty
; File c:\program files\microsoft visual studio .net 2003\vc7\atlmfc\include\atlconv.h
;	COMDAT ?_AtlGetThreadACPFake@ATL@@YGIXZ
_TEXT	SEGMENT
_szACP$ = -12						; size = 7
__$ArrayPad$ = -4					; size = 4
__$ReturnAddr$ = 4					; size = 4
?_AtlGetThreadACPFake@ATL@@YGIXZ PROC NEAR		; ATL::_AtlGetThreadACPFake, COMDAT

; 101  : {

  00000	83 ec 0c	 sub	 esp, 12			; 0000000cH
  00003	a1 00 00 00 00	 mov	 eax, DWORD PTR ___security_cookie
  00008	33 c4		 xor	 eax, esp
  0000a	56		 push	 esi
  0000b	89 44 24 0c	 mov	 DWORD PTR __$ArrayPad$[esp+16], eax

; 102  : 	UINT nACP = 0;

  0000f	33 f6		 xor	 esi, esi

; 103  : 
; 104  : 	LCID lcidThread = ::GetThreadLocale();

  00011	ff 15 00 00 00
	00		 call	 DWORD PTR __imp__GetThreadLocale@0

; 105  : 
; 106  : 	char szACP[7];
; 107  : 	// GetLocaleInfoA will fail for a Unicode-only LCID, but those are only supported on 
; 108  : 	// Windows 2000.  Since Windows 2000 supports CP_THREAD_ACP, this code path is never
; 109  : 	// executed on Windows 2000.
; 110  : 	if (::GetLocaleInfoA(lcidThread, LOCALE_IDEFAULTANSICODEPAGE, szACP, 7) != 0)

  00017	6a 07		 push	 7
  00019	8d 4c 24 08	 lea	 ecx, DWORD PTR _szACP$[esp+20]
  0001d	51		 push	 ecx
  0001e	68 04 10 00 00	 push	 4100			; 00001004H
  00023	50		 push	 eax
  00024	ff 15 00 00 00
	00		 call	 DWORD PTR __imp__GetLocaleInfoA@16
  0002a	85 c0		 test	 eax, eax
  0002c	74 27		 je	 SHORT $L206353

; 111  : 	{
; 112  : 		char* pch = szACP;
; 113  : 		while (*pch != '\0')

  0002e	8a 44 24 04	 mov	 al, BYTE PTR _szACP$[esp+16]
  00032	84 c0		 test	 al, al
  00034	8d 4c 24 04	 lea	 ecx, DWORD PTR _szACP$[esp+16]
  00038	74 1b		 je	 SHORT $L206353
  0003a	8d 9b 00 00 00
	00		 npad	 6
$L38554:

; 114  : 		{
; 115  : 			nACP *= 10;
; 116  : 			nACP += *pch++ - '0';

  00040	0f be c0	 movsx	 eax, al
  00043	8d 14 b6	 lea	 edx, DWORD PTR [esi+esi*4]
  00046	41		 inc	 ecx
  00047	8d 74 50 d0	 lea	 esi, DWORD PTR [eax+edx*2-48]
  0004b	8a 01		 mov	 al, BYTE PTR [ecx]
  0004d	84 c0		 test	 al, al
  0004f	75 ef		 jne	 SHORT $L38554

; 117  : 		}
; 118  : 	}
; 119  : 	// Use the Default ANSI Code Page if we were unable to get the thread ACP or if one does not exist.
; 120  : 	if (nACP == 0)

  00051	85 f6		 test	 esi, esi
  00053	75 16		 jne	 SHORT $L206354
$L206353:

; 121  : 		nACP = ::GetACP();

  00055	ff 15 00 00 00
	00		 call	 DWORD PTR __imp__GetACP@0
  0005b	5e		 pop	 esi

; 122  : 
; 123  : 	return nACP;
; 124  : }

  0005c	8b 4c 24 08	 mov	 ecx, DWORD PTR __$ArrayPad$[esp+12]
  00060	33 cc		 xor	 ecx, esp
  00062	e8 00 00 00 00	 call	 @__security_check_cookie@4
  00067	83 c4 0c	 add	 esp, 12			; 0000000cH
  0006a	c3		 ret	 0
$L206354:
  0006b	8b 4c 24 0c	 mov	 ecx, DWORD PTR __$ArrayPad$[esp+16]
  0006f	8b c6		 mov	 eax, esi
  00071	5e		 pop	 esi
  00072	33 cc		 xor	 ecx, esp
  00074	e8 00 00 00 00	 call	 @__security_check_cookie@4
  00079	83 c4 0c	 add	 esp, 12			; 0000000cH
  0007c	c3		 ret	 0
?_AtlGetThreadACPFake@ATL@@YGIXZ ENDP			; ATL::_AtlGetThreadACPFake
_TEXT	ENDS
PUBLIC	?GetIFactor@CLEComponent@@QAEMXZ		; CLEComponent::GetIFactor
; Function compile flags: /Ogty
; File c:\documents and settings\test\mes documents\source\virtuos_v17\build\program\_common\lord.h
;	COMDAT ?GetIFactor@CLEComponent@@QAEMXZ
_TEXT	SEGMENT
?GetIFactor@CLEComponent@@QAEMXZ PROC NEAR		; CLEComponent::GetIFactor, COMDAT
; _this$ = ecx

; 178  : 	float	GetIFactor( void )	{	return fIFactor;		}

  00000	d9 41 10	 fld	 DWORD PTR [ecx+16]
  00003	c3		 ret	 0
?GetIFactor@CLEComponent@@QAEMXZ ENDP			; CLEComponent::GetIFactor
_TEXT	ENDS
PUBLIC	?_AtlGetThreadACPReal@ATL@@YGIXZ		; ATL::_AtlGetThreadACPReal
; Function compile flags: /Ogty
; File c:\program files\microsoft visual studio .net 2003\vc7\atlmfc\include\atlconv.h
;	COMDAT ?_AtlGetThreadACPReal@ATL@@YGIXZ
_TEXT	SEGMENT
?_AtlGetThreadACPReal@ATL@@YGIXZ PROC NEAR		; ATL::_AtlGetThreadACPReal, COMDAT

; 128  : 	return( CP_THREAD_ACP );

  00000	b8 03 00 00 00	 mov	 eax, 3

; 129  : }

  00005	c3		 ret	 0
?_AtlGetThreadACPReal@ATL@@YGIXZ ENDP			; ATL::_AtlGetThreadACPReal
_TEXT	ENDS
EXTRN	__imp__GetVersionExA@4:NEAR
; Function compile flags: /Ogty
;	COMDAT ?_AtlGetThreadACPThunk@ATL@@YGIXZ
_TEXT	SEGMENT
_ver$ = -152						; size = 148
__$ArrayPad$ = -4					; size = 4
__$ReturnAddr$ = 4					; size = 4
?_AtlGetThreadACPThunk@ATL@@YGIXZ PROC NEAR		; ATL::_AtlGetThreadACPThunk, COMDAT

; 134  : {

  00000	81 ec 98 00 00
	00		 sub	 esp, 152		; 00000098H
  00006	a1 00 00 00 00	 mov	 eax, DWORD PTR ___security_cookie
  0000b	33 c4		 xor	 eax, esp
  0000d	89 84 24 94 00
	00 00		 mov	 DWORD PTR __$ArrayPad$[esp+152], eax

; 135  : 	OSVERSIONINFO ver;
; 136  : 	ATLGETTHREADACP pfnGetThreadACP;
; 137  : 
; 138  : 	ver.dwOSVersionInfoSize = sizeof( ver );
; 139  : 	::GetVersionEx( &ver );

  00014	8d 04 24	 lea	 eax, DWORD PTR _ver$[esp+152]
  00017	50		 push	 eax
  00018	c7 44 24 04 94
	00 00 00	 mov	 DWORD PTR _ver$[esp+156], 148 ; 00000094H
  00020	ff 15 00 00 00
	00		 call	 DWORD PTR __imp__GetVersionExA@4

; 140  : 	if( (ver.dwPlatformId == VER_PLATFORM_WIN32_NT) && (ver.dwMajorVersion >= 5) )

  00026	83 7c 24 10 02	 cmp	 DWORD PTR _ver$[esp+168], 2
  0002b	75 0c		 jne	 SHORT $L38564
  0002d	83 7c 24 04 05	 cmp	 DWORD PTR _ver$[esp+156], 5

; 141  : 	{
; 142  : 		// On Win2K, CP_THREAD_ACP is supported
; 143  : 		pfnGetThreadACP = _AtlGetThreadACPReal;

  00032	b8 00 00 00 00	 mov	 eax, OFFSET FLAT:?_AtlGetThreadACPReal@ATL@@YGIXZ ; ATL::_AtlGetThreadACPReal
  00037	73 05		 jae	 SHORT $L38565
$L38564:

; 144  : 	}
; 145  : 	else
; 146  : 	{
; 147  : 		pfnGetThreadACP = _AtlGetThreadACPFake;

  00039	b8 00 00 00 00	 mov	 eax, OFFSET FLAT:?_AtlGetThreadACPFake@ATL@@YGIXZ ; ATL::_AtlGetThreadACPFake
$L38565:

; 148  : 	}
; 149  : 	InterlockedExchangePointer( reinterpret_cast< void** >(&g_pfnGetThreadACP), pfnGetThreadACP );

  0003e	50		 push	 eax
  0003f	68 00 00 00 00	 push	 OFFSET FLAT:?g_pfnGetThreadACP@ATL@@3P6GIXZA ; ATL::g_pfnGetThreadACP
  00044	ff 15 00 00 00
	00		 call	 DWORD PTR __imp__InterlockedExchange@8

; 150  : 
; 151  : 	return( g_pfnGetThreadACP() );

  0004a	ff 15 00 00 00
	00		 call	 DWORD PTR ?g_pfnGetThreadACP@ATL@@3P6GIXZA ; ATL::g_pfnGetThreadACP

; 152  : }

  00050	8b 8c 24 94 00
	00 00		 mov	 ecx, DWORD PTR __$ArrayPad$[esp+152]
  00057	33 cc		 xor	 ecx, esp
  00059	e8 00 00 00 00	 call	 @__security_check_cookie@4
  0005e	81 c4 98 00 00
	00		 add	 esp, 152		; 00000098H
  00064	c3		 ret	 0
?_AtlGetThreadACPThunk@ATL@@YGIXZ ENDP			; ATL::_AtlGetThreadACPThunk
_TEXT	ENDS
PUBLIC	?Set@CLord@@QAEXK@Z				; CLord::Set
; Function compile flags: /Ogty
; File c:\documents and settings\test\mes documents\source\virtuos_v17\build\program\_common\lord.h
;	COMDAT ?Set@CLord@@QAEXK@Z
_TEXT	SEGMENT
_idPlayer$ = 8						; size = 4
?Set@CLord@@QAEXK@Z PROC NEAR				; CLord::Set, COMDAT
; _this$ = ecx

; 254  : 	void	Set( u_long idPlayer )	{	m_idPlayer	= idPlayer;	}

  00000	8b 44 24 04	 mov	 eax, DWORD PTR _idPlayer$[esp-4]
  00004	89 41 04	 mov	 DWORD PTR [ecx+4], eax
  00007	c2 04 00	 ret	 4
?Set@CLord@@QAEXK@Z ENDP				; CLord::Set
_TEXT	ENDS
PUBLIC	?_AtlGetConversionACP@ATL@@YGIXZ		; ATL::_AtlGetConversionACP
; Function compile flags: /Ogty
; File c:\program files\microsoft visual studio .net 2003\vc7\atlmfc\include\atlconv.h
;	COMDAT ?_AtlGetConversionACP@ATL@@YGIXZ
_TEXT	SEGMENT
?_AtlGetConversionACP@ATL@@YGIXZ PROC NEAR		; ATL::_AtlGetConversionACP, COMDAT

; 158  : 	return( g_pfnGetThreadACP() );

  00000	ff 25 00 00 00
	00		 jmp	 DWORD PTR ?g_pfnGetThreadACP@ATL@@3P6GIXZA ; ATL::g_pfnGetThreadACP
?_AtlGetConversionACP@ATL@@YGIXZ ENDP			; ATL::_AtlGetConversionACP
_TEXT	ENDS
PUBLIC	?GetElection@CLord@@QAEPAVIElection@@XZ		; CLord::GetElection
; Function compile flags: /Ogty
; File c:\documents and settings\test\mes documents\source\virtuos_v17\build\program\_common\lord.h
;	COMDAT ?GetElection@CLord@@QAEPAVIElection@@XZ
_TEXT	SEGMENT
?GetElection@CLord@@QAEPAVIElection@@XZ PROC NEAR	; CLord::GetElection, COMDAT
; _this$ = ecx

; 260  : 	IElection*	GetElection( void )		{	return m_pElection;		}

  00000	8b 41 08	 mov	 eax, DWORD PTR [ecx+8]
  00003	c3		 ret	 0
?GetElection@CLord@@QAEPAVIElection@@XZ ENDP		; CLord::GetElection
_TEXT	ENDS
PUBLIC	?GetEvent@CLord@@QAEPAVILordEvent@@XZ		; CLord::GetEvent
; Function compile flags: /Ogty
;	COMDAT ?GetEvent@CLord@@QAEPAVILordEvent@@XZ
_TEXT	SEGMENT
?GetEvent@CLord@@QAEPAVILordEvent@@XZ PROC NEAR		; CLord::GetEvent, COMDAT
; _this$ = ecx

; 261  : 	ILordEvent*	GetEvent( void )	{	return m_pEvent;	}

  00000	8b 41 0c	 mov	 eax, DWORD PTR [ecx+12]
  00003	c3		 ret	 0
?GetEvent@CLord@@QAEPAVILordEvent@@XZ ENDP		; CLord::GetEvent
_TEXT	ENDS
PUBLIC	?GetSkills@CLord@@QAEPAVCLordSkill@@XZ		; CLord::GetSkills
; Function compile flags: /Ogty
;	COMDAT ?GetSkills@CLord@@QAEPAVCLordSkill@@XZ
_TEXT	SEGMENT
?GetSkills@CLord@@QAEPAVCLordSkill@@XZ PROC NEAR	; CLord::GetSkills, COMDAT
; _this$ = ecx

; 262  : 	CLordSkill*		GetSkills( void )	{	return m_pSkills;	}

  00000	8b 41 10	 mov	 eax, DWORD PTR [ecx+16]
  00003	c3		 ret	 0
?GetSkills@CLord@@QAEPAVCLordSkill@@XZ ENDP		; CLord::GetSkills
_TEXT	ENDS
PUBLIC	?GetQueryObject@CDbController@@QAEPAVCQuery@@XZ	; CDbController::GetQueryObject
; Function compile flags: /Ogty
; File c:\documents and settings\test\mes documents\source\virtuos_v17\build\program\databaseserver\dbcontroller.h
;	COMDAT ?GetQueryObject@CDbController@@QAEPAVCQuery@@XZ
_TEXT	SEGMENT
?GetQueryObject@CDbController@@QAEPAVCQuery@@XZ PROC NEAR ; CDbController::GetQueryObject, COMDAT
; _this$ = ecx

; 20   : 	CQuery*	GetQueryObject( void )	{	return m_pQuery;	}

  00000	8b 41 0c	 mov	 eax, DWORD PTR [ecx+12]
  00003	c3		 ret	 0
?GetQueryObject@CDbController@@QAEPAVCQuery@@XZ ENDP	; CDbController::GetQueryObject
_TEXT	ENDS
PUBLIC	??0_PostItemStruct@@QAE@XZ			; _PostItemStruct::_PostItemStruct
; Function compile flags: /Ogty
; File c:\documents and settings\test\mes documents\source\virtuos_v17\build\program\databaseserver\tlord.h
;	COMDAT ??0_PostItemStruct@@QAE@XZ
_TEXT	SEGMENT
??0_PostItemStruct@@QAE@XZ PROC NEAR			; _PostItemStruct::_PostItemStruct, COMDAT
; _this$ = ecx

; 48   : 	{

  00000	8b c1		 mov	 eax, ecx
  00002	c7 00 00 00 00
	00		 mov	 DWORD PTR [eax], 0
  00008	c7 40 04 00 00
	00 00		 mov	 DWORD PTR [eax+4], 0

; 49   : 	}

  0000f	c3		 ret	 0
??0_PostItemStruct@@QAE@XZ ENDP				; _PostItemStruct::_PostItemStruct
_TEXT	ENDS
PUBLIC	?IsRunable@CTElection@@QAEHXZ			; CTElection::IsRunable
; Function compile flags: /Ogty
;	COMDAT ?IsRunable@CTElection@@QAEHXZ
_TEXT	SEGMENT
?IsRunable@CTElection@@QAEHXZ PROC NEAR			; CTElection::IsRunable, COMDAT
; _this$ = ecx

; 67   : 	BOOL	IsRunable( void )	{	return m_bRun;	}

  00000	8b 41 70	 mov	 eax, DWORD PTR [ecx+112]
  00003	c3		 ret	 0
?IsRunable@CTElection@@QAEHXZ ENDP			; CTElection::IsRunable
_TEXT	ENDS
PUBLIC	??0PostDeposit@@QAE@PAVCQuery@@@Z		; PostDeposit::PostDeposit
; Function compile flags: /Ogty
;	COMDAT ??0PostDeposit@@QAE@PAVCQuery@@@Z
_TEXT	SEGMENT
_pQuery$ = 8						; size = 4
??0PostDeposit@@QAE@PAVCQuery@@@Z PROC NEAR		; PostDeposit::PostDeposit, COMDAT
; _this$ = ecx

; 151  : 	PostDeposit( CQuery* pQuery )	{	m_pQuery	= pQuery;	}

  00000	8b c1		 mov	 eax, ecx
  00002	8b 4c 24 04	 mov	 ecx, DWORD PTR _pQuery$[esp-4]
  00006	89 08		 mov	 DWORD PTR [eax], ecx
  00008	c2 04 00	 ret	 4
??0PostDeposit@@QAE@PAVCQuery@@@Z ENDP			; PostDeposit::PostDeposit
_TEXT	ENDS
PUBLIC	?AtlThrow@ATL@@YGXJ@Z				; ATL::AtlThrow
EXTRN	?AfxThrowMemoryException@@YGXXZ:NEAR		; AfxThrowMemoryException
EXTRN	?AfxThrowOleException@@YGXJ@Z:NEAR		; AfxThrowOleException
; Function compile flags: /Ogty
; File c:\program files\microsoft visual studio .net 2003\vc7\atlmfc\include\atlexcept.h
;	COMDAT ?AtlThrow@ATL@@YGXJ@Z
_TEXT	SEGMENT
_hr$ = 8						; size = 4
?AtlThrow@ATL@@YGXJ@Z PROC NEAR				; ATL::AtlThrow, COMDAT

; 62   : 	ATLTRACE(atlTraceException, 0, _T("AtlThrow: hr = 0x%x\n"), hr );
; 63   : #ifdef _AFX
; 64   : 	if( hr == E_OUTOFMEMORY )

  00000	8b 44 24 04	 mov	 eax, DWORD PTR _hr$[esp-4]
  00004	3d 0e 00 07 80	 cmp	 eax, -2147024882	; 8007000eH
  00009	75 05		 jne	 SHORT $L39166

; 65   : 	{
; 66   : 		AfxThrowMemoryException();

  0000b	e8 00 00 00 00	 call	 ?AfxThrowMemoryException@@YGXXZ ; AfxThrowMemoryException
$L39166:

; 67   : 	}
; 68   : 	else
; 69   : 	{
; 70   : 		AfxThrowOleException( hr );

  00010	50		 push	 eax
  00011	e8 00 00 00 00	 call	 ?AfxThrowOleException@@YGXJ@Z ; AfxThrowOleException
$L206390:
  00016	cc		 int	 3
?AtlThrow@ATL@@YGXJ@Z ENDP				; ATL::AtlThrow
_TEXT	ENDS
PUBLIC	??0CTLord@@QAE@XZ				; CTLord::CTLord
PUBLIC	?CreateColleagues@CTLord@@UAEXXZ		; CTLord::CreateColleagues
PUBLIC	?DestroyColleagues@CTLord@@UAEXXZ		; CTLord::DestroyColleagues
PUBLIC	?GetController@CTLord@@UAEPAVCLController@@XZ	; CTLord::GetController
PUBLIC	??_7CTLord@@6B@					; CTLord::`vftable'
PUBLIC	??_GCTLord@@UAEPAXI@Z				; CTLord::`scalar deleting destructor'
EXTRN	??_ECTLord@@UAEPAXI@Z:NEAR			; CTLord::`vector deleting destructor'
EXTRN	??0CLord@@IAE@XZ:NEAR				; CLord::CLord
;	COMDAT ??_7CTLord@@6B@
; File c:\documents and settings\test\mes documents\source\virtuos_v17\build\program\databaseserver\tlord.cpp
CONST	SEGMENT
??_7CTLord@@6B@ DD FLAT:?CreateColleagues@CTLord@@UAEXXZ ; CTLord::`vftable'
	DD	FLAT:?DestroyColleagues@CTLord@@UAEXXZ
	DD	FLAT:?GetController@CTLord@@UAEPAVCLController@@XZ
	DD	FLAT:??_ECTLord@@UAEPAXI@Z
; Function compile flags: /Ogty
CONST	ENDS
;	COMDAT ??0CTLord@@QAE@XZ
_TEXT	SEGMENT
??0CTLord@@QAE@XZ PROC NEAR				; CTLord::CTLord, COMDAT
; _this$ = ecx

; 22   : {

  00000	56		 push	 esi
  00001	8b f1		 mov	 esi, ecx
  00003	e8 00 00 00 00	 call	 ??0CLord@@IAE@XZ	; CLord::CLord
  00008	c7 06 00 00 00
	00		 mov	 DWORD PTR [esi], OFFSET FLAT:??_7CTLord@@6B@
  0000e	c7 46 14 00 00
	00 00		 mov	 DWORD PTR [esi+20], 0

; 23   : }

  00015	8b c6		 mov	 eax, esi
  00017	5e		 pop	 esi
  00018	c3		 ret	 0
??0CTLord@@QAE@XZ ENDP					; CTLord::CTLord
; Function compile flags: /Ogty
; File c:\documents and settings\test\mes documents\source\virtuos_v17\build\program\databaseserver\tlord.h
_TEXT	ENDS
;	COMDAT ?GetController@CTLord@@UAEPAVCLController@@XZ
_TEXT	SEGMENT
?GetController@CTLord@@UAEPAVCLController@@XZ PROC NEAR	; CTLord::GetController, COMDAT
; _this$ = ecx

; 37   : 	virtual	CLController*	GetController( void )	{	return m_pController;	}

  00000	8b 41 14	 mov	 eax, DWORD PTR [ecx+20]
  00003	c3		 ret	 0
?GetController@CTLord@@UAEPAVCLController@@XZ ENDP	; CTLord::GetController
_TEXT	ENDS
PUBLIC	??1CTLord@@UAE@XZ				; CTLord::~CTLord
EXTRN	??1CLord@@QAE@XZ:NEAR				; CLord::~CLord
; Function compile flags: /Ogty
; File c:\documents and settings\test\mes documents\source\virtuos_v17\build\program\databaseserver\tlord.cpp
;	COMDAT ??1CTLord@@UAE@XZ
_TEXT	SEGMENT
??1CTLord@@UAE@XZ PROC NEAR				; CTLord::~CTLord, COMDAT
; _this$ = ecx

; 26   : {

  00000	c7 01 00 00 00
	00		 mov	 DWORD PTR [ecx], OFFSET FLAT:??_7CTLord@@6B@

; 27   : }

  00006	e9 00 00 00 00	 jmp	 ??1CLord@@QAE@XZ	; CLord::~CLord
??1CTLord@@UAE@XZ ENDP					; CTLord::~CTLord
_TEXT	ENDS
PUBLIC	?_AtlGetStringResourceImage@ATL@@YAPBUATLSTRINGRESOURCEIMAGE@1@PAUHINSTANCE__@@PAUHRSRC__@@I@Z ; ATL::_AtlGetStringResourceImage
EXTRN	__imp__LoadResource@8:NEAR
EXTRN	__imp__SizeofResource@8:NEAR
EXTRN	__imp__LockResource@4:NEAR
; Function compile flags: /Ogty
; File c:\program files\microsoft visual studio .net 2003\vc7\atlmfc\include\atlcore.h
;	COMDAT ?_AtlGetStringResourceImage@ATL@@YAPBUATLSTRINGRESOURCEIMAGE@1@PAUHINSTANCE__@@PAUHRSRC__@@I@Z
_TEXT	SEGMENT
_hInstance$ = 8						; size = 4
_hResource$ = 12					; size = 4
_id$ = 16						; size = 4
?_AtlGetStringResourceImage@ATL@@YAPBUATLSTRINGRESOURCEIMAGE@1@PAUHINSTANCE__@@PAUHRSRC__@@I@Z PROC NEAR ; ATL::_AtlGetStringResourceImage, COMDAT

; 239  : {

  00000	53		 push	 ebx

; 240  : 	const ATLSTRINGRESOURCEIMAGE* pImage;
; 241  : 	const ATLSTRINGRESOURCEIMAGE* pImageEnd;
; 242  : 	ULONG nResourceSize;
; 243  : 	HGLOBAL hGlobal;
; 244  : 	UINT iIndex;
; 245  : 
; 246  : 	hGlobal = ::LoadResource( hInstance, hResource );

  00001	8b 5c 24 08	 mov	 ebx, DWORD PTR _hInstance$[esp]
  00005	57		 push	 edi
  00006	8b 7c 24 10	 mov	 edi, DWORD PTR _hResource$[esp+4]
  0000a	57		 push	 edi
  0000b	53		 push	 ebx
  0000c	ff 15 00 00 00
	00		 call	 DWORD PTR __imp__LoadResource@8

; 247  : 	if( hGlobal == NULL )

  00012	85 c0		 test	 eax, eax
  00014	75 03		 jne	 SHORT $L39520
  00016	5f		 pop	 edi
  00017	5b		 pop	 ebx

; 272  : 	{
; 273  : 		return( NULL );
; 274  : 	}
; 275  : 
; 276  : 	return( pImage );
; 277  : }

  00018	c3		 ret	 0
$L39520:
  00019	56		 push	 esi

; 248  : 	{
; 249  : 		return( NULL );
; 250  : 	}
; 251  : 
; 252  : 	pImage = (const ATLSTRINGRESOURCEIMAGE*)::LockResource( hGlobal );

  0001a	50		 push	 eax
  0001b	ff 15 00 00 00
	00		 call	 DWORD PTR __imp__LockResource@4
  00021	8b f0		 mov	 esi, eax

; 253  : 	if( pImage == NULL )

  00023	85 f6		 test	 esi, esi
  00025	75 06		 jne	 SHORT $L39522
$L206403:
  00027	5e		 pop	 esi
  00028	5f		 pop	 edi

; 254  : 	{
; 255  : 		return( NULL );

  00029	33 c0		 xor	 eax, eax
  0002b	5b		 pop	 ebx

; 272  : 	{
; 273  : 		return( NULL );
; 274  : 	}
; 275  : 
; 276  : 	return( pImage );
; 277  : }

  0002c	c3		 ret	 0
$L39522:

; 256  : 	}
; 257  : 
; 258  : 	nResourceSize = ::SizeofResource( hInstance, hResource );

  0002d	57		 push	 edi
  0002e	53		 push	 ebx
  0002f	ff 15 00 00 00
	00		 call	 DWORD PTR __imp__SizeofResource@8

; 259  : 	pImageEnd = (const ATLSTRINGRESOURCEIMAGE*)(LPBYTE( pImage )+nResourceSize);
; 260  : 	iIndex = id&0x000f;

  00035	8b 4c 24 18	 mov	 ecx, DWORD PTR _id$[esp+8]
  00039	03 c6		 add	 eax, esi
  0003b	83 e1 0f	 and	 ecx, 15			; 0000000fH

; 261  : 
; 262  : 	while( (iIndex > 0) && (pImage < pImageEnd) )

  0003e	76 0e		 jbe	 SHORT $L39526
$L39525:
  00040	3b f0		 cmp	 esi, eax
  00042	73 e3		 jae	 SHORT $L206403

; 263  : 	{
; 264  : 		pImage = (const ATLSTRINGRESOURCEIMAGE*)(LPBYTE( pImage )+(sizeof( ATLSTRINGRESOURCEIMAGE )+(pImage->nLength*sizeof( WCHAR ))));
; 265  : 		iIndex--;

  00044	49		 dec	 ecx
  00045	0f b7 16	 movzx	 edx, WORD PTR [esi]
  00048	8d 74 56 02	 lea	 esi, DWORD PTR [esi+edx*2+2]
  0004c	75 f2		 jne	 SHORT $L39525
$L39526:

; 266  : 	}
; 267  : 	if( pImage >= pImageEnd )

  0004e	3b f0		 cmp	 esi, eax

; 268  : 	{
; 269  : 		return( NULL );

  00050	73 d5		 jae	 SHORT $L206403

; 270  : 	}
; 271  : 	if( pImage->nLength == 0 )

  00052	66 8b 06	 mov	 ax, WORD PTR [esi]
  00055	66 f7 d8	 neg	 ax
  00058	1b c0		 sbb	 eax, eax
  0005a	23 c6		 and	 eax, esi
  0005c	5e		 pop	 esi
  0005d	5f		 pop	 edi
  0005e	5b		 pop	 ebx

; 272  : 	{
; 273  : 		return( NULL );
; 274  : 	}
; 275  : 
; 276  : 	return( pImage );
; 277  : }

  0005f	c3		 ret	 0
?_AtlGetStringResourceImage@ATL@@YAPBUATLSTRINGRESOURCEIMAGE@1@PAUHINSTANCE__@@PAUHRSRC__@@I@Z ENDP ; ATL::_AtlGetStringResourceImage
_TEXT	ENDS
PUBLIC	?AtlGetStringResourceImage@ATL@@YAPBUATLSTRINGRESOURCEIMAGE@1@PAUHINSTANCE__@@I@Z ; ATL::AtlGetStringResourceImage
EXTRN	__imp__FindResourceA@12:NEAR
; Function compile flags: /Ogty
;	COMDAT ?AtlGetStringResourceImage@ATL@@YAPBUATLSTRINGRESOURCEIMAGE@1@PAUHINSTANCE__@@I@Z
_TEXT	SEGMENT
_hInstance$ = 8						; size = 4
_id$ = 12						; size = 4
?AtlGetStringResourceImage@ATL@@YAPBUATLSTRINGRESOURCEIMAGE@1@PAUHINSTANCE__@@I@Z PROC NEAR ; ATL::AtlGetStringResourceImage, COMDAT

; 280  : {

  00000	56		 push	 esi

; 281  : 	HRSRC hResource;
; 282  : 
; 283  : 	hResource = ::FindResource( hInstance, MAKEINTRESOURCE( ((id>>4)+1) ), RT_STRING );

  00001	8b 74 24 0c	 mov	 esi, DWORD PTR _id$[esp]
  00005	8b c6		 mov	 eax, esi
  00007	c1 e8 04	 shr	 eax, 4
  0000a	57		 push	 edi
  0000b	8b 7c 24 0c	 mov	 edi, DWORD PTR _hInstance$[esp+4]
  0000f	40		 inc	 eax
  00010	0f b7 c8	 movzx	 ecx, ax
  00013	6a 06		 push	 6
  00015	51		 push	 ecx
  00016	57		 push	 edi
  00017	ff 15 00 00 00
	00		 call	 DWORD PTR __imp__FindResourceA@12

; 284  : 	if( hResource == NULL )

  0001d	85 c0		 test	 eax, eax
  0001f	75 03		 jne	 SHORT $L39543
  00021	5f		 pop	 edi
  00022	5e		 pop	 esi

; 290  : }

  00023	c3		 ret	 0
$L39543:

; 285  : 	{
; 286  : 		return( NULL );
; 287  : 	}
; 288  : 
; 289  : 	return _AtlGetStringResourceImage( hInstance, hResource, id );

  00024	56		 push	 esi
  00025	50		 push	 eax
  00026	57		 push	 edi
  00027	e8 00 00 00 00	 call	 ?_AtlGetStringResourceImage@ATL@@YAPBUATLSTRINGRESOURCEIMAGE@1@PAUHINSTANCE__@@PAUHRSRC__@@I@Z ; ATL::_AtlGetStringResourceImage
  0002c	83 c4 0c	 add	 esp, 12			; 0000000cH
  0002f	5f		 pop	 edi
  00030	5e		 pop	 esi

; 290  : }

  00031	c3		 ret	 0
?AtlGetStringResourceImage@ATL@@YAPBUATLSTRINGRESOURCEIMAGE@1@PAUHINSTANCE__@@I@Z ENDP ; ATL::AtlGetStringResourceImage
_TEXT	ENDS
EXTRN	?CloseDbHandler@CDbController@@QAEXXZ:NEAR	; CDbController::CloseDbHandler
; Function compile flags: /Ogty
; File c:\documents and settings\test\mes documents\source\virtuos_v17\build\program\databaseserver\tlord.cpp
;	COMDAT ?DestroyColleagues@CTLord@@UAEXXZ
_TEXT	SEGMENT
?DestroyColleagues@CTLord@@UAEXXZ PROC NEAR		; CTLord::DestroyColleagues, COMDAT
; _this$ = ecx

; 54   : {	//   

  00000	56		 push	 esi
  00001	8b f1		 mov	 esi, ecx

; 55   : 	if( m_pController )

  00003	8b 4e 14	 mov	 ecx, DWORD PTR [esi+20]
  00006	57		 push	 edi
  00007	33 ff		 xor	 edi, edi
  00009	3b cf		 cmp	 ecx, edi
  0000b	74 05		 je	 SHORT $L203496

; 56   : 		m_pController->CloseDbHandler();

  0000d	e8 00 00 00 00	 call	 ?CloseDbHandler@CDbController@@QAEXXZ ; CDbController::CloseDbHandler
$L203496:

; 57   : 
; 58   : 	SAFE_DELETE( m_pElection );

  00012	8b 4e 08	 mov	 ecx, DWORD PTR [esi+8]
  00015	3b cf		 cmp	 ecx, edi
  00017	74 09		 je	 SHORT $L203497
  00019	8b 01		 mov	 eax, DWORD PTR [ecx]
  0001b	6a 01		 push	 1
  0001d	ff 10		 call	 DWORD PTR [eax]
  0001f	89 7e 08	 mov	 DWORD PTR [esi+8], edi
$L203497:

; 59   : 	SAFE_DELETE( m_pEvent );

  00022	8b 4e 0c	 mov	 ecx, DWORD PTR [esi+12]
  00025	3b cf		 cmp	 ecx, edi
  00027	74 09		 je	 SHORT $L203501
  00029	8b 11		 mov	 edx, DWORD PTR [ecx]
  0002b	6a 01		 push	 1
  0002d	ff 12		 call	 DWORD PTR [edx]
  0002f	89 7e 0c	 mov	 DWORD PTR [esi+12], edi
$L203501:

; 60   : 	SAFE_DELETE( m_pSkills );

  00032	8b 4e 10	 mov	 ecx, DWORD PTR [esi+16]
  00035	3b cf		 cmp	 ecx, edi
  00037	74 09		 je	 SHORT $L203505
  00039	8b 01		 mov	 eax, DWORD PTR [ecx]
  0003b	6a 01		 push	 1
  0003d	ff 10		 call	 DWORD PTR [eax]
  0003f	89 7e 10	 mov	 DWORD PTR [esi+16], edi
$L203505:

; 61   : 	SAFE_DELETE( m_pController );

  00042	8b 4e 14	 mov	 ecx, DWORD PTR [esi+20]
  00045	3b cf		 cmp	 ecx, edi
  00047	74 09		 je	 SHORT $L203509
  00049	8b 11		 mov	 edx, DWORD PTR [ecx]
  0004b	6a 01		 push	 1
  0004d	ff 12		 call	 DWORD PTR [edx]
  0004f	89 7e 14	 mov	 DWORD PTR [esi+20], edi
$L203509:
  00052	5f		 pop	 edi
  00053	5e		 pop	 esi

; 62   : }

  00054	c3		 ret	 0
?DestroyColleagues@CTLord@@UAEXXZ ENDP			; CTLord::DestroyColleagues
_TEXT	ENDS
PUBLIC	?PostRequest@CTLord@@QAEHHPAEHK@Z		; CTLord::PostRequest
EXTRN	?PostRequest@CDbController@@QAEHHPAEHK@Z:NEAR	; CDbController::PostRequest
; Function compile flags: /Ogty
;	COMDAT ?PostRequest@CTLord@@QAEHHPAEHK@Z
_TEXT	SEGMENT
_nQuery$ = 8						; size = 4
_lpBuf$ = 12						; size = 4
_nBufSize$ = 16						; size = 4
_dwCompletionKey$ = 20					; size = 4
?PostRequest@CTLord@@QAEHHPAEHK@Z PROC NEAR		; CTLord::PostRequest, COMDAT
; _this$ = ecx

; 72   : 	return m_pController->PostRequest( nQuery, lpBuf, nBufSize, dwCompletionKey );

  00000	8b 49 14	 mov	 ecx, DWORD PTR [ecx+20]
  00003	e9 00 00 00 00	 jmp	 ?PostRequest@CDbController@@QAEHHPAEHK@Z ; CDbController::PostRequest
?PostRequest@CTLord@@QAEHHPAEHK@Z ENDP			; CTLord::PostRequest
_TEXT	ENDS
PUBLIC	?Restore@CTLord@@QAEHPAVCQuery@@@Z		; CTLord::Restore
PUBLIC	??_C@_0BC@MCPIBNBK@uspRestoreLord?5?$CFd?$AA@	; `string'
PUBLIC	??_C@_06EHHKCEHL@idLord?$AA@			; `string'
EXTRN	?Execute@CQuery@@QAAHPBDZZ:NEAR			; CQuery::Execute
EXTRN	?Fetch@CQuery@@QAEHXZ:NEAR			; CQuery::Fetch
EXTRN	?GetInt@CQuery@@QAEHPAD@Z:NEAR			; CQuery::GetInt
EXTRN	?g_appInfo@@3UAppInfo@@A:QWORD			; g_appInfo
;	COMDAT ??_C@_0BC@MCPIBNBK@uspRestoreLord?5?$CFd?$AA@
; File c:\documents and settings\test\mes documents\source\virtuos_v17\build\program\_common\lord.h
CONST	SEGMENT
??_C@_0BC@MCPIBNBK@uspRestoreLord?5?$CFd?$AA@ DB 'uspRestoreLord %d', 00H ; `string'
CONST	ENDS
;	COMDAT ??_C@_06EHHKCEHL@idLord?$AA@
CONST	SEGMENT
??_C@_06EHHKCEHL@idLord?$AA@ DB 'idLord', 00H		; `string'
; Function compile flags: /Ogty
; File c:\documents and settings\test\mes documents\source\virtuos_v17\build\program\databaseserver\tlord.cpp
CONST	ENDS
;	COMDAT ?Restore@CTLord@@QAEHPAVCQuery@@@Z
_TEXT	SEGMENT
_pQuery$ = 8						; size = 4
?Restore@CTLord@@QAEHPAVCQuery@@@Z PROC NEAR		; CTLord::Restore, COMDAT
; _this$ = ecx

; 168  : 	if( !pQuery->Execute( "uspRestoreLord %d", g_appInfo.dwSys ) )

  00000	a1 00 00 00 00	 mov	 eax, DWORD PTR ?g_appInfo@@3UAppInfo@@A
  00005	56		 push	 esi
  00006	8b 74 24 08	 mov	 esi, DWORD PTR _pQuery$[esp]
  0000a	57		 push	 edi
  0000b	50		 push	 eax
  0000c	68 00 00 00 00	 push	 OFFSET FLAT:??_C@_0BC@MCPIBNBK@uspRestoreLord?5?$CFd?$AA@
  00011	56		 push	 esi
  00012	8b f9		 mov	 edi, ecx
  00014	e8 00 00 00 00	 call	 ?Execute@CQuery@@QAAHPBDZZ ; CQuery::Execute
  00019	83 c4 0c	 add	 esp, 12			; 0000000cH
  0001c	85 c0		 test	 eax, eax
  0001e	75 05		 jne	 SHORT $L203587
  00020	5f		 pop	 edi
  00021	5e		 pop	 esi

; 173  : }

  00022	c2 04 00	 ret	 4
$L203587:

; 169  : 		return FALSE;
; 170  : 	if( pQuery->Fetch() )

  00025	8b ce		 mov	 ecx, esi
  00027	e8 00 00 00 00	 call	 ?Fetch@CQuery@@QAEHXZ	; CQuery::Fetch
  0002c	85 c0		 test	 eax, eax
  0002e	74 0f		 je	 SHORT $L206431

; 171  : 		Set( pQuery->GetInt( "idLord" ) );

  00030	68 00 00 00 00	 push	 OFFSET FLAT:??_C@_06EHHKCEHL@idLord?$AA@
  00035	8b ce		 mov	 ecx, esi
  00037	e8 00 00 00 00	 call	 ?GetInt@CQuery@@QAEHPAD@Z ; CQuery::GetInt
  0003c	89 47 04	 mov	 DWORD PTR [edi+4], eax
$L206431:
  0003f	5f		 pop	 edi

; 172  : 	return TRUE;

  00040	b8 01 00 00 00	 mov	 eax, 1
  00045	5e		 pop	 esi

; 173  : }

  00046	c2 04 00	 ret	 4
?Restore@CTLord@@QAEHPAVCQuery@@@Z ENDP			; CTLord::Restore
_TEXT	ENDS
PUBLIC	??0CTElection@@QAE@PAVCLord@@@Z			; CTElection::CTElection
PUBLIC	?DoTestBeginCandidacy@CTElection@@MAEHXZ	; CTElection::DoTestBeginCandidacy
PUBLIC	?DoReturnDeposit@CTElection@@MAEXXZ		; CTElection::DoReturnDeposit
PUBLIC	?DoTestBeginVote@CTElection@@MAEHAAH@Z		; CTElection::DoTestBeginVote
PUBLIC	?DoTestEndVote@CTElection@@MAEHK@Z		; CTElection::DoTestEndVote
PUBLIC	?DoTestAddDeposit@CTElection@@MAEHK_JJ@Z	; CTElection::DoTestAddDeposit
PUBLIC	?DoAddDepositComplete@CTElection@@MAEXK_JJ@Z	; CTElection::DoAddDepositComplete
PUBLIC	?DoTestSetPledge@CTElection@@MAEHKPBD@Z		; CTElection::DoTestSetPledge
PUBLIC	?DoTestIncVote@CTElection@@MAEHKK@Z		; CTElection::DoTestIncVote
PUBLIC	??_7CTElection@@6B@				; CTElection::`vftable'
PUBLIC	??_GCTElection@@UAEPAXI@Z			; CTElection::`scalar deleting destructor'
PUBLIC	?DoSetPlegeComplete@IElection@@MAEXXZ		; IElection::DoSetPlegeComplete
PUBLIC	?DoIncVoteComplete@IElection@@MAEXXZ		; IElection::DoIncVoteComplete
PUBLIC	?DoEndVoteComplete@IElection@@MAEXXZ		; IElection::DoEndVoteComplete
EXTRN	??_ECTElection@@UAEPAXI@Z:NEAR			; CTElection::`vector deleting destructor'
EXTRN	??0IElection@@IAE@PAVCLord@@@Z:NEAR		; IElection::IElection
;	COMDAT ??_7CTElection@@6B@
CONST	SEGMENT
??_7CTElection@@6B@ DD FLAT:??_ECTElection@@UAEPAXI@Z	; CTElection::`vftable'
	DD	FLAT:?DoTestBeginCandidacy@CTElection@@MAEHXZ
	DD	FLAT:?DoReturnDeposit@CTElection@@MAEXXZ
	DD	FLAT:?DoTestBeginVote@CTElection@@MAEHAAH@Z
	DD	FLAT:?DoTestEndVote@CTElection@@MAEHK@Z
	DD	FLAT:?DoTestAddDeposit@CTElection@@MAEHK_JJ@Z
	DD	FLAT:?DoAddDepositComplete@CTElection@@MAEXK_JJ@Z
	DD	FLAT:?DoTestSetPledge@CTElection@@MAEHKPBD@Z
	DD	FLAT:?DoSetPlegeComplete@IElection@@MAEXXZ
	DD	FLAT:?DoTestIncVote@CTElection@@MAEHKK@Z
	DD	FLAT:?DoIncVoteComplete@IElection@@MAEXXZ
	DD	FLAT:?DoEndVoteComplete@IElection@@MAEXXZ
; Function compile flags: /Ogty
CONST	ENDS
;	COMDAT ??0CTElection@@QAE@PAVCLord@@@Z
_TEXT	SEGMENT
_pLord$ = 8						; size = 4
??0CTElection@@QAE@PAVCLord@@@Z PROC NEAR		; CTElection::CTElection, COMDAT
; _this$ = ecx

; 185  : {

  00000	8b 44 24 04	 mov	 eax, DWORD PTR _pLord$[esp-4]
  00004	56		 push	 esi
  00005	50		 push	 eax
  00006	8b f1		 mov	 esi, ecx
  00008	e8 00 00 00 00	 call	 ??0IElection@@IAE@PAVCLord@@@Z ; IElection::IElection
  0000d	c7 06 00 00 00
	00		 mov	 DWORD PTR [esi], OFFSET FLAT:??_7CTElection@@6B@
  00013	c7 46 70 01 00
	00 00		 mov	 DWORD PTR [esi+112], 1

; 186  : }

  0001a	8b c6		 mov	 eax, esi
  0001c	5e		 pop	 esi
  0001d	c2 04 00	 ret	 4
??0CTElection@@QAE@PAVCLord@@@Z ENDP			; CTElection::CTElection
; Function compile flags: /Ogty
; File c:\documents and settings\test\mes documents\source\virtuos_v17\build\program\_common\lord.h
_TEXT	ENDS
;	COMDAT ?DoSetPlegeComplete@IElection@@MAEXXZ
_TEXT	SEGMENT
?DoSetPlegeComplete@IElection@@MAEXXZ PROC NEAR		; IElection::DoSetPlegeComplete, COMDAT
; _this$ = ecx

; 90   : 	virtual	void	DoSetPlegeComplete( void )		{}

  00000	c3		 ret	 0
?DoSetPlegeComplete@IElection@@MAEXXZ ENDP		; IElection::DoSetPlegeComplete
; Function compile flags: /Ogty
_TEXT	ENDS
;	COMDAT ?DoIncVoteComplete@IElection@@MAEXXZ
_TEXT	SEGMENT
?DoIncVoteComplete@IElection@@MAEXXZ PROC NEAR		; IElection::DoIncVoteComplete, COMDAT
; _this$ = ecx

; 92   : 	virtual	void	DoIncVoteComplete( void )	{}

  00000	c3		 ret	 0
?DoIncVoteComplete@IElection@@MAEXXZ ENDP		; IElection::DoIncVoteComplete
; Function compile flags: /Ogty
_TEXT	ENDS
;	COMDAT ?DoEndVoteComplete@IElection@@MAEXXZ
_TEXT	SEGMENT
?DoEndVoteComplete@IElection@@MAEXXZ PROC NEAR		; IElection::DoEndVoteComplete, COMDAT
; _this$ = ecx

; 93   : 	virtual	void	DoEndVoteComplete( void )	{}

  00000	c3		 ret	 0
?DoEndVoteComplete@IElection@@MAEXXZ ENDP		; IElection::DoEndVoteComplete
_TEXT	ENDS
PUBLIC	??1CTElection@@UAE@XZ				; CTElection::~CTElection
EXTRN	??1IElection@@UAE@XZ:NEAR			; IElection::~IElection
; Function compile flags: /Ogty
; File c:\documents and settings\test\mes documents\source\virtuos_v17\build\program\databaseserver\tlord.cpp
;	COMDAT ??1CTElection@@UAE@XZ
_TEXT	SEGMENT
??1CTElection@@UAE@XZ PROC NEAR				; CTElection::~CTElection, COMDAT
; _this$ = ecx

; 189  : {

  00000	c7 01 00 00 00
	00		 mov	 DWORD PTR [ecx], OFFSET FLAT:??_7CTElection@@6B@

; 190  : }

  00006	e9 00 00 00 00	 jmp	 ??1IElection@@UAE@XZ	; IElection::~IElection
??1CTElection@@UAE@XZ ENDP				; CTElection::~CTElection
_TEXT	ENDS
PUBLIC	?data@CStringData@ATL@@QAEPAXXZ			; ATL::CStringData::data
; Function compile flags: /Ogty
; File c:\program files\microsoft visual studio .net 2003\vc7\atlmfc\include\atlsimpstr.h
;	COMDAT ?data@CStringData@ATL@@QAEPAXXZ
_TEXT	SEGMENT
?data@CStringData@ATL@@QAEPAXXZ PROC NEAR		; ATL::CStringData::data, COMDAT
; _this$ = ecx

; 66   : 		return (this+1);

  00000	8d 41 10	 lea	 eax, DWORD PTR [ecx+16]

; 67   : 	}

  00003	c3		 ret	 0
?data@CStringData@ATL@@QAEPAXXZ ENDP			; ATL::CStringData::data
_TEXT	ENDS
PUBLIC	?IsLocked@CStringData@ATL@@QBE_NXZ		; ATL::CStringData::IsLocked
; Function compile flags: /Ogty
;	COMDAT ?IsLocked@CStringData@ATL@@QBE_NXZ
_TEXT	SEGMENT
?IsLocked@CStringData@ATL@@QBE_NXZ PROC NEAR		; ATL::CStringData::IsLocked, COMDAT
; _this$ = ecx

; 76   : 		return nRefs < 0;

  00000	8b 51 0c	 mov	 edx, DWORD PTR [ecx+12]
  00003	33 c0		 xor	 eax, eax
  00005	85 d2		 test	 edx, edx
  00007	0f 9c c0	 setl	 al

; 77   : 	}

  0000a	c3		 ret	 0
?IsLocked@CStringData@ATL@@QBE_NXZ ENDP			; ATL::CStringData::IsLocked
_TEXT	ENDS
PUBLIC	?IsShared@CStringData@ATL@@QBE_NXZ		; ATL::CStringData::IsShared
; Function compile flags: /Ogty
;	COMDAT ?IsShared@CStringData@ATL@@QBE_NXZ
_TEXT	SEGMENT
?IsShared@CStringData@ATL@@QBE_NXZ PROC NEAR		; ATL::CStringData::IsShared, COMDAT
; _this$ = ecx

; 80   : 		return( nRefs > 1 ); 

  00000	8b 51 0c	 mov	 edx, DWORD PTR [ecx+12]
  00003	33 c0		 xor	 eax, eax
  00005	83 fa 01	 cmp	 edx, 1
  00008	0f 9f c0	 setg	 al

; 81   : 	}

  0000b	c3		 ret	 0
?IsShared@CStringData@ATL@@QBE_NXZ ENDP			; ATL::CStringData::IsShared
_TEXT	ENDS
PUBLIC	?Release@CStringData@ATL@@QAEXXZ		; ATL::CStringData::Release
; Function compile flags: /Ogty
;	COMDAT ?Release@CStringData@ATL@@QAEXXZ
_TEXT	SEGMENT
?Release@CStringData@ATL@@QAEXXZ PROC NEAR		; ATL::CStringData::Release, COMDAT
; _this$ = ecx

; 93   : 		ATLASSERT( nRefs != 0 );
; 94   : 
; 95   : 		if( _InterlockedDecrement( &nRefs ) <= 0 )

  00000	8d 41 0c	 lea	 eax, DWORD PTR [ecx+12]
  00003	83 ca ff	 or	 edx, -1
  00006	f0 0f c1 10	 lock	  xadd	 DWORD PTR [eax], edx
  0000a	4a		 dec	 edx
  0000b	85 d2		 test	 edx, edx
  0000d	7f 0a		 jg	 SHORT $L39883

; 96   : 		{
; 97   : 			pStringMgr->Free( this );

  0000f	8b 01		 mov	 eax, DWORD PTR [ecx]
  00011	8b 10		 mov	 edx, DWORD PTR [eax]
  00013	51		 push	 ecx
  00014	8b c8		 mov	 ecx, eax
  00016	ff 52 04	 call	 DWORD PTR [edx+4]
$L39883:

; 98   : 		}
; 99   : 	}

  00019	c3		 ret	 0
?Release@CStringData@ATL@@QAEXXZ ENDP			; ATL::CStringData::Release
; Function compile flags: /Ogty
; File c:\documents and settings\test\mes documents\source\virtuos_v17\build\program\databaseserver\tlord.cpp
_TEXT	ENDS
;	COMDAT ?DoAddDepositComplete@CTElection@@MAEXK_JJ@Z
_TEXT	SEGMENT
_idPlayer$ = 8						; size = 4
_iDeposit$ = 12						; size = 8
_tCreate$ = 20						; size = 4
?DoAddDepositComplete@CTElection@@MAEXK_JJ@Z PROC NEAR	; CTElection::DoAddDepositComplete, COMDAT
; _this$ = ecx

; 466  : }

  00000	c2 10 00	 ret	 16			; 00000010H
?DoAddDepositComplete@CTElection@@MAEXK_JJ@Z ENDP	; CTElection::DoAddDepositComplete
_TEXT	ENDS
PUBLIC	?OnTimer@CTElection@@QAEXXZ			; CTElection::OnTimer
EXTRN	?GetPropertyState@IElection@@QAE?AW4ELECTION_STATE@1@XZ:NEAR ; IElection::GetPropertyState
EXTRN	?BeginCandidacy@IElection@@QAEXXZ:NEAR		; IElection::BeginCandidacy
EXTRN	?BeginVote@IElection@@QAEXH@Z:NEAR		; IElection::BeginVote
EXTRN	?EndVote@IElection@@QAEXK@Z:NEAR		; IElection::EndVote
; Function compile flags: /Ogty
;	COMDAT ?OnTimer@CTElection@@QAEXXZ
_TEXT	SEGMENT
?OnTimer@CTElection@@QAEXXZ PROC NEAR			; CTElection::OnTimer, COMDAT
; _this$ = ecx

; 534  : {	//  

  00000	56		 push	 esi
  00001	8b f1		 mov	 esi, ecx

; 535  : 	if( !IsRunable() )		//    

  00003	8b 46 70	 mov	 eax, DWORD PTR [esi+112]
  00006	85 c0		 test	 eax, eax
  00008	74 3b		 je	 SHORT $L204124
  0000a	57		 push	 edi

; 536  : 		return;
; 537  : 	
; 538  : 	//   
; 539  : 	//      
; 540  : 	//    
; 541  : 	if( GetState() != GetPropertyState() )

  0000b	8b 7e 10	 mov	 edi, DWORD PTR [esi+16]
  0000e	e8 00 00 00 00	 call	 ?GetPropertyState@IElection@@QAE?AW4ELECTION_STATE@1@XZ ; IElection::GetPropertyState
  00013	3b f8		 cmp	 edi, eax
  00015	5f		 pop	 edi
  00016	74 2d		 je	 SHORT $L204124

; 542  : 	{
; 543  : 		if( GetState() == eReady )

  00018	8b 46 10	 mov	 eax, DWORD PTR [esi+16]
  0001b	85 c0		 test	 eax, eax
  0001d	75 08		 jne	 SHORT $L204120

; 544  : 			BeginCandidacy();

  0001f	8b ce		 mov	 ecx, esi
  00021	5e		 pop	 esi
  00022	e9 00 00 00 00	 jmp	 ?BeginCandidacy@IElection@@QAEXXZ ; IElection::BeginCandidacy
$L204120:

; 545  : 		else if( GetState() == eCandidacy )

  00027	83 f8 01	 cmp	 eax, 1
  0002a	75 0b		 jne	 SHORT $L204122

; 546  : 			BeginVote( 0 );

  0002c	6a 00		 push	 0
  0002e	8b ce		 mov	 ecx, esi
  00030	e8 00 00 00 00	 call	 ?BeginVote@IElection@@QAEXH@Z ; IElection::BeginVote
  00035	5e		 pop	 esi

; 549  : 	}
; 550  : }

  00036	c3		 ret	 0
$L204122:

; 547  : 		else if( GetState() == eVote )

  00037	83 f8 02	 cmp	 eax, 2
  0003a	75 09		 jne	 SHORT $L204124

; 548  : 			EndVote( 0 );

  0003c	6a 00		 push	 0
  0003e	8b ce		 mov	 ecx, esi
  00040	e8 00 00 00 00	 call	 ?EndVote@IElection@@QAEXK@Z ; IElection::EndVote
$L204124:
  00045	5e		 pop	 esi

; 549  : 	}
; 550  : }

  00046	c3		 ret	 0
?OnTimer@CTElection@@QAEXXZ ENDP			; CTElection::OnTimer
_TEXT	ENDS
PUBLIC	??0CLEvent@@QAE@PAVCLord@@@Z			; CLEvent::CLEvent
PUBLIC	?DoTestAddComponent@CLEvent@@MAEHPAVCLEComponent@@@Z ; CLEvent::DoTestAddComponent
PUBLIC	?DoTestInitialize@CLEvent@@MAEHXZ		; CLEvent::DoTestInitialize
PUBLIC	??_7CLEvent@@6B@				; CLEvent::`vftable'
PUBLIC	??_GCLEvent@@UAEPAXI@Z				; CLEvent::`scalar deleting destructor'
EXTRN	??_ECLEvent@@UAEPAXI@Z:NEAR			; CLEvent::`vector deleting destructor'
EXTRN	??0ILordEvent@@IAE@PAVCLord@@@Z:NEAR		; ILordEvent::ILordEvent
;	COMDAT ??_7CLEvent@@6B@
CONST	SEGMENT
??_7CLEvent@@6B@ DD FLAT:??_ECLEvent@@UAEPAXI@Z		; CLEvent::`vftable'
	DD	FLAT:?DoTestAddComponent@CLEvent@@MAEHPAVCLEComponent@@@Z
	DD	FLAT:?DoTestInitialize@CLEvent@@MAEHXZ
; Function compile flags: /Ogty
CONST	ENDS
;	COMDAT ??0CLEvent@@QAE@PAVCLord@@@Z
_TEXT	SEGMENT
_pLord$ = 8						; size = 4
??0CLEvent@@QAE@PAVCLord@@@Z PROC NEAR			; CLEvent::CLEvent, COMDAT
; _this$ = ecx

; 557  : {

  00000	8b 44 24 04	 mov	 eax, DWORD PTR _pLord$[esp-4]
  00004	56		 push	 esi
  00005	50		 push	 eax
  00006	8b f1		 mov	 esi, ecx
  00008	e8 00 00 00 00	 call	 ??0ILordEvent@@IAE@PAVCLord@@@Z ; ILordEvent::ILordEvent
  0000d	c7 06 00 00 00
	00		 mov	 DWORD PTR [esi], OFFSET FLAT:??_7CLEvent@@6B@

; 558  : }

  00013	8b c6		 mov	 eax, esi
  00015	5e		 pop	 esi
  00016	c2 04 00	 ret	 4
??0CLEvent@@QAE@PAVCLord@@@Z ENDP			; CLEvent::CLEvent
_TEXT	ENDS
PUBLIC	??1CLEvent@@UAE@XZ				; CLEvent::~CLEvent
EXTRN	??1ILordEvent@@UAE@XZ:NEAR			; ILordEvent::~ILordEvent
; Function compile flags: /Ogty
;	COMDAT ??1CLEvent@@UAE@XZ
_TEXT	SEGMENT
??1CLEvent@@UAE@XZ PROC NEAR				; CLEvent::~CLEvent, COMDAT
; _this$ = ecx

; 561  : {

  00000	c7 01 00 00 00
	00		 mov	 DWORD PTR [ecx], OFFSET FLAT:??_7CLEvent@@6B@

; 562  : }

  00006	e9 00 00 00 00	 jmp	 ??1ILordEvent@@UAE@XZ	; ILordEvent::~ILordEvent
??1CLEvent@@UAE@XZ ENDP					; CLEvent::~CLEvent
_TEXT	ENDS
PUBLIC	?Restore@CLEvent@@QAEHPAVCQuery@@@Z		; CLEvent::Restore
PUBLIC	??_C@_0BE@PNIJDBCM@uspRestoreLEvent?5?$CFd?$AA@	; `string'
PUBLIC	??_C@_05DLOGCGOB@nTick?$AA@			; `string'
PUBLIC	??_C@_08NHMMOOHF@fEFactor?$AA@			; `string'
PUBLIC	??_C@_08IAGDPLDK@fIFactor?$AA@			; `string'
PUBLIC	??_C@_08EPHCN@idPlayer?$AA@			; `string'
EXTRN	??2@YAPAXI@Z:NEAR				; operator new
EXTRN	??3@YAXPAX@Z:NEAR				; operator delete
EXTRN	?GetFloat@CQuery@@QAEMPAD@Z:NEAR		; CQuery::GetFloat
EXTRN	__except_list:DWORD
EXTRN	___CxxFrameHandler:NEAR
EXTRN	??0CLEComponent@@QAE@HKMM@Z:NEAR		; CLEComponent::CLEComponent
EXTRN	?AddComponent@ILordEvent@@QAEXPAVCLEComponent@@H@Z:NEAR ; ILordEvent::AddComponent
;	COMDAT xdata$x
xdata$x	SEGMENT
$T206500 DD	0ffffffffH
	DD	FLAT:$L206491
$T206495 DD	019930520H
	DD	01H
	DD	FLAT:$T206500
	DD	2 DUP(00H)
	DD	2 DUP(00H)
xdata$x	ENDS
;	COMDAT ??_C@_0BE@PNIJDBCM@uspRestoreLEvent?5?$CFd?$AA@
CONST	SEGMENT
??_C@_0BE@PNIJDBCM@uspRestoreLEvent?5?$CFd?$AA@ DB 'uspRestoreLEvent %d', 00H ; `string'
CONST	ENDS
;	COMDAT ??_C@_05DLOGCGOB@nTick?$AA@
CONST	SEGMENT
??_C@_05DLOGCGOB@nTick?$AA@ DB 'nTick', 00H		; `string'
CONST	ENDS
;	COMDAT ??_C@_08EPHCN@idPlayer?$AA@
CONST	SEGMENT
??_C@_08EPHCN@idPlayer?$AA@ DB 'idPlayer', 00H		; `string'
CONST	ENDS
;	COMDAT ??_C@_08NHMMOOHF@fEFactor?$AA@
CONST	SEGMENT
??_C@_08NHMMOOHF@fEFactor?$AA@ DB 'fEFactor', 00H	; `string'
CONST	ENDS
;	COMDAT ??_C@_08IAGDPLDK@fIFactor?$AA@
CONST	SEGMENT
??_C@_08IAGDPLDK@fIFactor?$AA@ DB 'fIFactor', 00H	; `string'
; Function compile flags: /Ogty
CONST	ENDS
;	COMDAT ?Restore@CLEvent@@QAEHPAVCQuery@@@Z
_TEXT	SEGMENT
_fEFactor$204148 = -24					; size = 4
_this$ = -20						; size = 4
$T206488 = -16						; size = 4
__$EHRec$ = -12						; size = 12
_fIFactor$204150 = 8					; size = 4
_pQuery$ = 8						; size = 4
?Restore@CLEvent@@QAEHPAVCQuery@@@Z PROC NEAR		; CLEvent::Restore, COMDAT
; _this$ = ecx

; 565  : {	//  

  00000	6a ff		 push	 -1
  00002	68 00 00 00 00	 push	 __ehhandler$?Restore@CLEvent@@QAEHPAVCQuery@@@Z
  00007	64 a1 00 00 00
	00		 mov	 eax, DWORD PTR fs:__except_list
  0000d	50		 push	 eax
  0000e	64 89 25 00 00
	00 00		 mov	 DWORD PTR fs:__except_list, esp
  00015	83 ec 0c	 sub	 esp, 12			; 0000000cH

; 566  : 	if( !pQuery->Execute( "uspRestoreLEvent %d", g_appInfo.dwSys ) )

  00018	a1 00 00 00 00	 mov	 eax, DWORD PTR ?g_appInfo@@3UAppInfo@@A
  0001d	56		 push	 esi
  0001e	8b 74 24 20	 mov	 esi, DWORD PTR _pQuery$[esp+24]
  00022	50		 push	 eax
  00023	68 00 00 00 00	 push	 OFFSET FLAT:??_C@_0BE@PNIJDBCM@uspRestoreLEvent?5?$CFd?$AA@
  00028	56		 push	 esi
  00029	89 4c 24 14	 mov	 DWORD PTR _this$[esp+40], ecx
  0002d	e8 00 00 00 00	 call	 ?Execute@CQuery@@QAAHPBDZZ ; CQuery::Execute
  00032	83 c4 0c	 add	 esp, 12			; 0000000cH
  00035	85 c0		 test	 eax, eax
  00037	75 12		 jne	 SHORT $L206496
  00039	5e		 pop	 esi

; 576  : 	}
; 577  : 	return TRUE;
; 578  : }

  0003a	8b 4c 24 0c	 mov	 ecx, DWORD PTR __$EHRec$[esp+24]
  0003e	64 89 0d 00 00
	00 00		 mov	 DWORD PTR fs:__except_list, ecx
  00045	83 c4 18	 add	 esp, 24			; 00000018H
  00048	c2 04 00	 ret	 4
$L206496:

; 567  : 		return FALSE;
; 568  : 	while( pQuery->Fetch() )

  0004b	8b ce		 mov	 ecx, esi
  0004d	e8 00 00 00 00	 call	 ?Fetch@CQuery@@QAEHXZ	; CQuery::Fetch
  00052	85 c0		 test	 eax, eax
  00054	0f 84 98 00 00
	00		 je	 $L204144
  0005a	53		 push	 ebx
  0005b	57		 push	 edi
  0005c	8d 64 24 00	 npad	 4
$L204143:

; 569  : 	{
; 570  : 		int nTick	= pQuery->GetInt( "nTick" );

  00060	68 00 00 00 00	 push	 OFFSET FLAT:??_C@_05DLOGCGOB@nTick?$AA@
  00065	8b ce		 mov	 ecx, esi
  00067	e8 00 00 00 00	 call	 ?GetInt@CQuery@@QAEHPAD@Z ; CQuery::GetInt

; 571  : 		u_long idPlayer		= pQuery->GetInt( "idPlayer" );

  0006c	68 00 00 00 00	 push	 OFFSET FLAT:??_C@_08EPHCN@idPlayer?$AA@
  00071	8b ce		 mov	 ecx, esi
  00073	8b f8		 mov	 edi, eax
  00075	e8 00 00 00 00	 call	 ?GetInt@CQuery@@QAEHPAD@Z ; CQuery::GetInt

; 572  : 		float fEFactor	= pQuery->GetFloat( "fEFactor" );

  0007a	68 00 00 00 00	 push	 OFFSET FLAT:??_C@_08NHMMOOHF@fEFactor?$AA@
  0007f	8b ce		 mov	 ecx, esi
  00081	8b d8		 mov	 ebx, eax
  00083	e8 00 00 00 00	 call	 ?GetFloat@CQuery@@QAEMPAD@Z ; CQuery::GetFloat
  00088	d9 5c 24 0c	 fstp	 DWORD PTR _fEFactor$204148[esp+36]

; 573  : 		float fIFactor	= pQuery->GetFloat( "fIFactor" );

  0008c	68 00 00 00 00	 push	 OFFSET FLAT:??_C@_08IAGDPLDK@fIFactor?$AA@
  00091	8b ce		 mov	 ecx, esi
  00093	e8 00 00 00 00	 call	 ?GetFloat@CQuery@@QAEMPAD@Z ; CQuery::GetFloat
  00098	d9 5c 24 28	 fstp	 DWORD PTR _fIFactor$204150[esp+32]

; 574  : 		CLEComponent* pComponent	= new CLEComponent( nTick, idPlayer, fEFactor, fIFactor );

  0009c	6a 14		 push	 20			; 00000014H
  0009e	e8 00 00 00 00	 call	 ??2@YAPAXI@Z		; operator new
  000a3	83 c4 04	 add	 esp, 4
  000a6	89 44 24 14	 mov	 DWORD PTR $T206488[esp+36], eax
  000aa	85 c0		 test	 eax, eax
  000ac	c7 44 24 20 00
	00 00 00	 mov	 DWORD PTR __$EHRec$[esp+44], 0
  000b4	74 15		 je	 SHORT $L206489
  000b6	8b 4c 24 28	 mov	 ecx, DWORD PTR _fIFactor$204150[esp+32]
  000ba	8b 54 24 0c	 mov	 edx, DWORD PTR _fEFactor$204148[esp+36]
  000be	51		 push	 ecx
  000bf	52		 push	 edx
  000c0	53		 push	 ebx
  000c1	57		 push	 edi
  000c2	8b c8		 mov	 ecx, eax
  000c4	e8 00 00 00 00	 call	 ??0CLEComponent@@QAE@HKMM@Z ; CLEComponent::CLEComponent
  000c9	eb 02		 jmp	 SHORT $L206490
$L206489:
  000cb	33 c0		 xor	 eax, eax
$L206490:

; 575  : 		AddComponent( pComponent, FALSE );

  000cd	8b 4c 24 10	 mov	 ecx, DWORD PTR _this$[esp+36]
  000d1	6a 00		 push	 0
  000d3	50		 push	 eax
  000d4	c7 44 24 28 ff
	ff ff ff	 mov	 DWORD PTR __$EHRec$[esp+52], -1
  000dc	e8 00 00 00 00	 call	 ?AddComponent@ILordEvent@@QAEXPAVCLEComponent@@H@Z ; ILordEvent::AddComponent
  000e1	8b ce		 mov	 ecx, esi
  000e3	e8 00 00 00 00	 call	 ?Fetch@CQuery@@QAEHXZ	; CQuery::Fetch
  000e8	85 c0		 test	 eax, eax
  000ea	0f 85 70 ff ff
	ff		 jne	 $L204143
  000f0	5f		 pop	 edi
  000f1	5b		 pop	 ebx
$L204144:

; 576  : 	}
; 577  : 	return TRUE;
; 578  : }

  000f2	8b 4c 24 10	 mov	 ecx, DWORD PTR __$EHRec$[esp+28]
  000f6	b8 01 00 00 00	 mov	 eax, 1
  000fb	5e		 pop	 esi
  000fc	64 89 0d 00 00
	00 00		 mov	 DWORD PTR fs:__except_list, ecx
  00103	83 c4 18	 add	 esp, 24			; 00000018H
  00106	c2 04 00	 ret	 4
_TEXT	ENDS
;	COMDAT text$x
text$x	SEGMENT
$L206491:
  00000	8b 45 f0	 mov	 eax, DWORD PTR $T206488[ebp]
  00003	50		 push	 eax
  00004	e8 00 00 00 00	 call	 ??3@YAXPAX@Z		; operator delete
  00009	59		 pop	 ecx
  0000a	c3		 ret	 0
__ehhandler$?Restore@CLEvent@@QAEHPAVCQuery@@@Z:
  0000b	b8 00 00 00 00	 mov	 eax, OFFSET FLAT:$T206495
  00010	e9 00 00 00 00	 jmp	 ___CxxFrameHandler
text$x	ENDS
?Restore@CLEvent@@QAEHPAVCQuery@@@Z ENDP		; CLEvent::Restore
PUBLIC	??0CLController@@QAE@PAVCTLord@@@Z		; CLController::CLController
PUBLIC	?Handler@CLController@@UAEXPAUtagDB_OVERLAPPED_PLUS@@K@Z ; CLController::Handler
PUBLIC	?OnTimer@CLController@@UAEXXZ			; CLController::OnTimer
PUBLIC	??_7CLController@@6B@				; CLController::`vftable'
PUBLIC	??_GCLController@@UAEPAXI@Z			; CLController::`scalar deleting destructor'
EXTRN	??_ECLController@@UAEPAXI@Z:NEAR		; CLController::`vector deleting destructor'
EXTRN	??0CDbController@@QAE@XZ:NEAR			; CDbController::CDbController
;	COMDAT ??_7CLController@@6B@
CONST	SEGMENT
??_7CLController@@6B@ DD FLAT:??_ECLController@@UAEPAXI@Z ; CLController::`vftable'
	DD	FLAT:?Handler@CLController@@UAEXPAUtagDB_OVERLAPPED_PLUS@@K@Z
	DD	FLAT:?OnTimer@CLController@@UAEXXZ
; Function compile flags: /Ogty
CONST	ENDS
;	COMDAT ??0CLController@@QAE@PAVCTLord@@@Z
_TEXT	SEGMENT
_pLord$ = 8						; size = 4
??0CLController@@QAE@PAVCTLord@@@Z PROC NEAR		; CLController::CLController, COMDAT
; _this$ = ecx

; 628  : {

  00000	56		 push	 esi
  00001	8b f1		 mov	 esi, ecx
  00003	e8 00 00 00 00	 call	 ??0CDbController@@QAE@XZ ; CDbController::CDbController
  00008	8b 44 24 08	 mov	 eax, DWORD PTR _pLord$[esp]
  0000c	89 46 14	 mov	 DWORD PTR [esi+20], eax
  0000f	c7 06 00 00 00
	00		 mov	 DWORD PTR [esi], OFFSET FLAT:??_7CLController@@6B@

; 629  : }

  00015	8b c6		 mov	 eax, esi
  00017	5e		 pop	 esi
  00018	c2 04 00	 ret	 4
??0CLController@@QAE@PAVCTLord@@@Z ENDP			; CLController::CLController
_TEXT	ENDS
PUBLIC	??1CLController@@UAE@XZ				; CLController::~CLController
EXTRN	??1CDbController@@UAE@XZ:NEAR			; CDbController::~CDbController
; Function compile flags: /Ogty
;	COMDAT ??1CLController@@UAE@XZ
_TEXT	SEGMENT
??1CLController@@UAE@XZ PROC NEAR			; CLController::~CLController, COMDAT
; _this$ = ecx

; 632  : {

  00000	c7 01 00 00 00
	00		 mov	 DWORD PTR [ecx], OFFSET FLAT:??_7CLController@@6B@

; 633  : }

  00006	e9 00 00 00 00	 jmp	 ??1CDbController@@UAE@XZ ; CDbController::~CDbController
??1CLController@@UAE@XZ ENDP				; CLController::~CLController
_TEXT	ENDS
PUBLIC	??_GCQuery@@QAEPAXI@Z				; CQuery::`scalar deleting destructor'
EXTRN	??1CQuery@@QAE@XZ:NEAR				; CQuery::~CQuery
; Function compile flags: /Ogty
;	COMDAT ??_GCQuery@@QAEPAXI@Z
_TEXT	SEGMENT
___flags$ = 8						; size = 4
??_GCQuery@@QAEPAXI@Z PROC NEAR				; CQuery::`scalar deleting destructor', COMDAT
; _this$ = ecx
  00000	56		 push	 esi
  00001	8b f1		 mov	 esi, ecx
  00003	e8 00 00 00 00	 call	 ??1CQuery@@QAE@XZ	; CQuery::~CQuery
  00008	f6 44 24 08 01	 test	 BYTE PTR ___flags$[esp], 1
  0000d	74 09		 je	 SHORT $L206512
  0000f	56		 push	 esi
  00010	e8 00 00 00 00	 call	 ??3@YAXPAX@Z		; operator delete
  00015	83 c4 04	 add	 esp, 4
$L206512:
  00018	8b c6		 mov	 eax, esi
  0001a	5e		 pop	 esi
  0001b	c2 04 00	 ret	 4
??_GCQuery@@QAEPAXI@Z ENDP				; CQuery::`scalar deleting destructor'
_TEXT	ENDS
PUBLIC	?BeginCandidacy@CLController@@QAEHXZ		; CLController::BeginCandidacy
PUBLIC	??_C@_0CB@IFBIPCGL@uspElectionBeginCandidacy?5?$CFd?0?5?$CFd@ ; `string'
EXTRN	?Exec@CQuery@@QAEHPBD@Z:NEAR			; CQuery::Exec
EXTRN	_sprintf:NEAR
;	COMDAT ??_C@_0CB@IFBIPCGL@uspElectionBeginCandidacy?5?$CFd?0?5?$CFd@
; File c:\documents and settings\test\mes documents\source\virtuos_v17\build\program\databaseserver\dbcontroller.h
CONST	SEGMENT
??_C@_0CB@IFBIPCGL@uspElectionBeginCandidacy?5?$CFd?0?5?$CFd@ DB 'uspElec'
	DB	'tionBeginCandidacy %d, %d', 00H		; `string'
; Function compile flags: /Ogty
; File c:\documents and settings\test\mes documents\source\virtuos_v17\build\program\databaseserver\tlord.cpp
CONST	ENDS
;	COMDAT ?BeginCandidacy@CLController@@QAEHXZ
_TEXT	SEGMENT
_szQuery$ = -264					; size = 255
__$ArrayPad$ = -4					; size = 4
__$ReturnAddr$ = 4					; size = 4
?BeginCandidacy@CLController@@QAEHXZ PROC NEAR		; CLController::BeginCandidacy, COMDAT
; _this$ = ecx

; 665  : {	//    

  00000	55		 push	 ebp
  00001	8b ec		 mov	 ebp, esp
  00003	83 e4 f8	 and	 esp, -8			; fffffff8H
  00006	81 ec 08 01 00
	00		 sub	 esp, 264		; 00000108H
  0000c	a1 00 00 00 00	 mov	 eax, DWORD PTR ___security_cookie
  00011	33 c5		 xor	 eax, ebp
  00013	56		 push	 esi
  00014	57		 push	 edi
  00015	89 84 24 0c 01
	00 00		 mov	 DWORD PTR __$ArrayPad$[esp+272], eax
  0001c	8b f1		 mov	 esi, ecx

; 666  : 	char szQuery[255]	= { 0,};

  0001e	c6 44 24 08 00	 mov	 BYTE PTR _szQuery$[esp+272], 0
  00023	33 c0		 xor	 eax, eax
  00025	b9 3f 00 00 00	 mov	 ecx, 63			; 0000003fH
  0002a	8d 7c 24 09	 lea	 edi, DWORD PTR _szQuery$[esp+273]
  0002e	f3 ab		 rep stosd
  00030	66 ab		 stosw

; 667  : 	IElection* pElection	= m_pLord->GetElection();
; 668  : 	sprintf( szQuery, "uspElectionBeginCandidacy %d, %d", g_appInfo.dwSys, pElection->GetId() );

  00032	8b 46 14	 mov	 eax, DWORD PTR [esi+20]
  00035	8b 48 08	 mov	 ecx, DWORD PTR [eax+8]
  00038	8b 51 08	 mov	 edx, DWORD PTR [ecx+8]
  0003b	a1 00 00 00 00	 mov	 eax, DWORD PTR ?g_appInfo@@3UAppInfo@@A
  00040	52		 push	 edx
  00041	50		 push	 eax
  00042	8d 4c 24 10	 lea	 ecx, DWORD PTR _szQuery$[esp+280]
  00046	68 00 00 00 00	 push	 OFFSET FLAT:??_C@_0CB@IFBIPCGL@uspElectionBeginCandidacy?5?$CFd?0?5?$CFd@
  0004b	51		 push	 ecx
  0004c	e8 00 00 00 00	 call	 _sprintf

; 669  : 	return GetQueryObject()->Exec( szQuery );

  00051	8b 4e 0c	 mov	 ecx, DWORD PTR [esi+12]
  00054	83 c4 10	 add	 esp, 16			; 00000010H
  00057	8d 54 24 08	 lea	 edx, DWORD PTR _szQuery$[esp+272]
  0005b	52		 push	 edx
  0005c	e8 00 00 00 00	 call	 ?Exec@CQuery@@QAEHPBD@Z	; CQuery::Exec

; 670  : }

  00061	8b 8c 24 0c 01
	00 00		 mov	 ecx, DWORD PTR __$ArrayPad$[esp+272]
  00068	5f		 pop	 edi
  00069	33 cd		 xor	 ecx, ebp
  0006b	5e		 pop	 esi
  0006c	e8 00 00 00 00	 call	 @__security_check_cookie@4
  00071	8b e5		 mov	 esp, ebp
  00073	5d		 pop	 ebp
  00074	c3		 ret	 0
?BeginCandidacy@CLController@@QAEHXZ ENDP		; CLController::BeginCandidacy
_TEXT	ENDS
PUBLIC	?BeginVote@CLController@@QAEHXZ			; CLController::BeginVote
PUBLIC	??_C@_0BM@CADCBIMM@uspElectionBeginVote?5?$CFd?0?5?$CFd?$AA@ ; `string'
PUBLIC	??_C@_0N@NOMIPDCI@nRequirement?$AA@		; `string'
;	COMDAT ??_C@_0BM@CADCBIMM@uspElectionBeginVote?5?$CFd?0?5?$CFd?$AA@
; File c:\documents and settings\test\mes documents\source\virtuos_v17\build\program\databaseserver\dbcontroller.h
CONST	SEGMENT
??_C@_0BM@CADCBIMM@uspElectionBeginVote?5?$CFd?0?5?$CFd?$AA@ DB 'uspElect'
	DB	'ionBeginVote %d, %d', 00H			; `string'
CONST	ENDS
;	COMDAT ??_C@_0N@NOMIPDCI@nRequirement?$AA@
CONST	SEGMENT
??_C@_0N@NOMIPDCI@nRequirement?$AA@ DB 'nRequirement', 00H ; `string'
; Function compile flags: /Ogty
; File c:\documents and settings\test\mes documents\source\virtuos_v17\build\program\databaseserver\tlord.cpp
CONST	ENDS
;	COMDAT ?BeginVote@CLController@@QAEHXZ
_TEXT	SEGMENT
_szQuery$ = -264					; size = 255
__$ArrayPad$ = -4					; size = 4
__$ReturnAddr$ = 4					; size = 4
?BeginVote@CLController@@QAEHXZ PROC NEAR		; CLController::BeginVote, COMDAT
; _this$ = ecx

; 673  : {	//    

  00000	55		 push	 ebp
  00001	8b ec		 mov	 ebp, esp
  00003	83 e4 f8	 and	 esp, -8			; fffffff8H
  00006	81 ec 0c 01 00
	00		 sub	 esp, 268		; 0000010cH
  0000c	a1 00 00 00 00	 mov	 eax, DWORD PTR ___security_cookie
  00011	53		 push	 ebx
  00012	33 c5		 xor	 eax, ebp
  00014	56		 push	 esi
  00015	57		 push	 edi
  00016	8b f1		 mov	 esi, ecx
  00018	89 84 24 14 01
	00 00		 mov	 DWORD PTR __$ArrayPad$[esp+280], eax

; 674  : 	int nRequirement	= -1;
; 675  : 	char szQuery[255]	= { 0,};

  0001f	c6 44 24 10 00	 mov	 BYTE PTR _szQuery$[esp+280], 0
  00024	33 c0		 xor	 eax, eax
  00026	b9 3f 00 00 00	 mov	 ecx, 63			; 0000003fH
  0002b	8d 7c 24 11	 lea	 edi, DWORD PTR _szQuery$[esp+281]
  0002f	f3 ab		 rep stosd
  00031	66 ab		 stosw

; 676  : 	IElection* pElection	= m_pLord->GetElection();
; 677  : 	sprintf( szQuery, "uspElectionBeginVote %d, %d", g_appInfo.dwSys, pElection->GetId() );

  00033	8b 46 14	 mov	 eax, DWORD PTR [esi+20]
  00036	8b 48 08	 mov	 ecx, DWORD PTR [eax+8]
  00039	8b 51 08	 mov	 edx, DWORD PTR [ecx+8]
  0003c	a1 00 00 00 00	 mov	 eax, DWORD PTR ?g_appInfo@@3UAppInfo@@A
  00041	52		 push	 edx
  00042	50		 push	 eax
  00043	8d 4c 24 18	 lea	 ecx, DWORD PTR _szQuery$[esp+288]
  00047	68 00 00 00 00	 push	 OFFSET FLAT:??_C@_0BM@CADCBIMM@uspElectionBeginVote?5?$CFd?0?5?$CFd?$AA@
  0004c	51		 push	 ecx
  0004d	83 cb ff	 or	 ebx, -1
  00050	e8 00 00 00 00	 call	 _sprintf

; 678  : 	if( GetQueryObject()->Exec( szQuery ) && GetQueryObject()->Fetch() )

  00055	8b 4e 0c	 mov	 ecx, DWORD PTR [esi+12]
  00058	83 c4 10	 add	 esp, 16			; 00000010H
  0005b	8d 54 24 10	 lea	 edx, DWORD PTR _szQuery$[esp+280]
  0005f	52		 push	 edx
  00060	e8 00 00 00 00	 call	 ?Exec@CQuery@@QAEHPBD@Z	; CQuery::Exec
  00065	85 c0		 test	 eax, eax
  00067	74 2e		 je	 SHORT $L206552
  00069	8b 4e 0c	 mov	 ecx, DWORD PTR [esi+12]
  0006c	e8 00 00 00 00	 call	 ?Fetch@CQuery@@QAEHXZ	; CQuery::Fetch
  00071	85 c0		 test	 eax, eax
  00073	74 22		 je	 SHORT $L206552

; 679  : 		nRequirement	= GetQueryObject()->GetInt( "nRequirement" );

  00075	8b 4e 0c	 mov	 ecx, DWORD PTR [esi+12]
  00078	68 00 00 00 00	 push	 OFFSET FLAT:??_C@_0N@NOMIPDCI@nRequirement?$AA@
  0007d	e8 00 00 00 00	 call	 ?GetInt@CQuery@@QAEHPAD@Z ; CQuery::GetInt

; 680  : 	return nRequirement;
; 681  : }

  00082	5f		 pop	 edi
  00083	5e		 pop	 esi
  00084	5b		 pop	 ebx
  00085	8b 8c 24 08 01
	00 00		 mov	 ecx, DWORD PTR __$ArrayPad$[esp+268]
  0008c	33 cd		 xor	 ecx, ebp
  0008e	e8 00 00 00 00	 call	 @__security_check_cookie@4
  00093	8b e5		 mov	 esp, ebp
  00095	5d		 pop	 ebp
  00096	c3		 ret	 0
$L206552:
  00097	8b 8c 24 14 01
	00 00		 mov	 ecx, DWORD PTR __$ArrayPad$[esp+280]
  0009e	5f		 pop	 edi
  0009f	5e		 pop	 esi
  000a0	8b c3		 mov	 eax, ebx
  000a2	33 cd		 xor	 ecx, ebp
  000a4	5b		 pop	 ebx
  000a5	e8 00 00 00 00	 call	 @__security_check_cookie@4
  000aa	8b e5		 mov	 esp, ebp
  000ac	5d		 pop	 ebp
  000ad	c3		 ret	 0
?BeginVote@CLController@@QAEHXZ ENDP			; CLController::BeginVote
_TEXT	ENDS
PUBLIC	?AddDeposit@CLController@@QAEHK_JJ@Z		; CLController::AddDeposit
PUBLIC	??_C@_0CM@MKKLKFBM@uspElectionAddDeposit?5?$CFd?0?5?$CFd?0?5?$CFd@ ; `string'
;	COMDAT ??_C@_0CM@MKKLKFBM@uspElectionAddDeposit?5?$CFd?0?5?$CFd?0?5?$CFd@
; File c:\documents and settings\test\mes documents\source\virtuos_v17\build\program\databaseserver\dbcontroller.h
CONST	SEGMENT
??_C@_0CM@MKKLKFBM@uspElectionAddDeposit?5?$CFd?0?5?$CFd?0?5?$CFd@ DB 'us'
	DB	'pElectionAddDeposit %d, %d, %d, %I64d, %d', 00H ; `string'
; Function compile flags: /Ogty
; File c:\documents and settings\test\mes documents\source\virtuos_v17\build\program\databaseserver\tlord.cpp
CONST	ENDS
;	COMDAT ?AddDeposit@CLController@@QAEHK_JJ@Z
_TEXT	SEGMENT
_szQuery$ = -264					; size = 255
__$ArrayPad$ = -4					; size = 4
__$ReturnAddr$ = 4					; size = 4
_idPlayer$ = 8						; size = 4
_iDeposit$ = 12						; size = 8
_tCreate$ = 20						; size = 4
?AddDeposit@CLController@@QAEHK_JJ@Z PROC NEAR		; CLController::AddDeposit, COMDAT
; _this$ = ecx

; 691  : {	//   

  00000	55		 push	 ebp
  00001	8b ec		 mov	 ebp, esp
  00003	83 e4 f8	 and	 esp, -8			; fffffff8H
  00006	81 ec 08 01 00
	00		 sub	 esp, 264		; 00000108H
  0000c	a1 00 00 00 00	 mov	 eax, DWORD PTR ___security_cookie

; 692  : 	char szQuery[255]	= { 0,};
; 693  : 	IElection* pElection	= m_pLord->GetElection();
; 694  : 	sprintf( szQuery, "uspElectionAddDeposit %d, %d, %d, %I64d, %d", g_appInfo.dwSys, pElection->GetId(), idPlayer, iDeposit, tCreate );

  00011	8b 55 0c	 mov	 edx, DWORD PTR _iDeposit$[ebp]
  00014	56		 push	 esi
  00015	57		 push	 edi
  00016	33 c5		 xor	 eax, ebp
  00018	89 84 24 0c 01
	00 00		 mov	 DWORD PTR __$ArrayPad$[esp+272], eax
  0001f	8b f1		 mov	 esi, ecx
  00021	33 c0		 xor	 eax, eax
  00023	c6 44 24 08 00	 mov	 BYTE PTR _szQuery$[esp+272], 0
  00028	b9 3f 00 00 00	 mov	 ecx, 63			; 0000003fH
  0002d	8d 7c 24 09	 lea	 edi, DWORD PTR _szQuery$[esp+273]
  00031	f3 ab		 rep stosd
  00033	8b 4d 10	 mov	 ecx, DWORD PTR _iDeposit$[ebp+4]
  00036	66 ab		 stosw
  00038	8b 45 14	 mov	 eax, DWORD PTR _tCreate$[ebp]
  0003b	50		 push	 eax
  0003c	8b 45 08	 mov	 eax, DWORD PTR _idPlayer$[ebp]
  0003f	51		 push	 ecx
  00040	8b 4e 14	 mov	 ecx, DWORD PTR [esi+20]
  00043	52		 push	 edx
  00044	8b 51 08	 mov	 edx, DWORD PTR [ecx+8]
  00047	8b 0d 00 00 00
	00		 mov	 ecx, DWORD PTR ?g_appInfo@@3UAppInfo@@A
  0004d	50		 push	 eax
  0004e	8b 42 08	 mov	 eax, DWORD PTR [edx+8]
  00051	50		 push	 eax
  00052	51		 push	 ecx
  00053	8d 54 24 20	 lea	 edx, DWORD PTR _szQuery$[esp+296]
  00057	68 00 00 00 00	 push	 OFFSET FLAT:??_C@_0CM@MKKLKFBM@uspElectionAddDeposit?5?$CFd?0?5?$CFd?0?5?$CFd@
  0005c	52		 push	 edx
  0005d	e8 00 00 00 00	 call	 _sprintf

; 695  : 	return GetQueryObject()->Exec( szQuery );

  00062	8b 4e 0c	 mov	 ecx, DWORD PTR [esi+12]
  00065	83 c4 20	 add	 esp, 32			; 00000020H
  00068	8d 44 24 08	 lea	 eax, DWORD PTR _szQuery$[esp+272]
  0006c	50		 push	 eax
  0006d	e8 00 00 00 00	 call	 ?Exec@CQuery@@QAEHPBD@Z	; CQuery::Exec

; 696  : }

  00072	8b 8c 24 0c 01
	00 00		 mov	 ecx, DWORD PTR __$ArrayPad$[esp+272]
  00079	5f		 pop	 edi
  0007a	33 cd		 xor	 ecx, ebp
  0007c	5e		 pop	 esi
  0007d	e8 00 00 00 00	 call	 @__security_check_cookie@4
  00082	8b e5		 mov	 esp, ebp
  00084	5d		 pop	 ebp
  00085	c2 10 00	 ret	 16			; 00000010H
?AddDeposit@CLController@@QAEHK_JJ@Z ENDP		; CLController::AddDeposit
_TEXT	ENDS
PUBLIC	?SetPledge@CLController@@QAEHKPBD@Z		; CLController::SetPledge
PUBLIC	??_C@_0CN@DFOIGMEI@?$HLcall?5uspElectionSetPledge?$CI?5?$CFd?0?5@ ; `string'
EXTRN	?BindParameter@CQuery@@QAEHGFFFKFPAXJPAJ@Z:NEAR	; CQuery::BindParameter
;	COMDAT ??_C@_0CN@DFOIGMEI@?$HLcall?5uspElectionSetPledge?$CI?5?$CFd?0?5@
; File c:\documents and settings\test\mes documents\source\virtuos_v17\build\program\databaseserver\dbcontroller.h
CONST	SEGMENT
??_C@_0CN@DFOIGMEI@?$HLcall?5uspElectionSetPledge?$CI?5?$CFd?0?5@ DB '{ca'
	DB	'll uspElectionSetPledge( %d, %d, %d, ? )}', 00H ; `string'
; Function compile flags: /Ogty
; File c:\documents and settings\test\mes documents\source\virtuos_v17\build\program\databaseserver\tlord.cpp
CONST	ENDS
;	COMDAT ?SetPledge@CLController@@QAEHKPBD@Z
_TEXT	SEGMENT
_cbLen$ = -268						; size = 4
_szQuery$ = -264					; size = 255
__$ArrayPad$ = -4					; size = 4
__$ReturnAddr$ = 4					; size = 4
_idPlayer$ = 8						; size = 4
_szPledge$ = 12						; size = 4
?SetPledge@CLController@@QAEHKPBD@Z PROC NEAR		; CLController::SetPledge, COMDAT
; _this$ = ecx

; 699  : {	//   

  00000	55		 push	 ebp
  00001	8b ec		 mov	 ebp, esp
  00003	83 e4 f8	 and	 esp, -8			; fffffff8H
  00006	81 ec 0c 01 00
	00		 sub	 esp, 268		; 0000010cH
  0000c	a1 00 00 00 00	 mov	 eax, DWORD PTR ___security_cookie
  00011	53		 push	 ebx
  00012	8b 5d 0c	 mov	 ebx, DWORD PTR _szPledge$[ebp]
  00015	56		 push	 esi
  00016	33 c5		 xor	 eax, ebp
  00018	57		 push	 edi
  00019	89 84 24 14 01
	00 00		 mov	 DWORD PTR __$ArrayPad$[esp+280], eax
  00020	8b f1		 mov	 esi, ecx

; 700  : 	char szQuery[255]	= { 0,};

  00022	c6 44 24 10 00	 mov	 BYTE PTR _szQuery$[esp+280], 0
  00027	33 c0		 xor	 eax, eax
  00029	b9 3f 00 00 00	 mov	 ecx, 63			; 0000003fH
  0002e	8d 7c 24 11	 lea	 edi, DWORD PTR _szQuery$[esp+281]
  00032	f3 ab		 rep stosd

; 701  : 	IElection* pElection	= m_pLord->GetElection();
; 702  : 	sprintf( szQuery, "{call uspElectionSetPledge( %d, %d, %d, ? )}", g_appInfo.dwSys, pElection->GetId(), idPlayer );

  00034	8b 4e 14	 mov	 ecx, DWORD PTR [esi+20]
  00037	66 ab		 stosw
  00039	8b 51 08	 mov	 edx, DWORD PTR [ecx+8]
  0003c	8b 45 08	 mov	 eax, DWORD PTR _idPlayer$[ebp]
  0003f	8b 0d 00 00 00
	00		 mov	 ecx, DWORD PTR ?g_appInfo@@3UAppInfo@@A
  00045	50		 push	 eax
  00046	8b 42 08	 mov	 eax, DWORD PTR [edx+8]
  00049	50		 push	 eax
  0004a	51		 push	 ecx
  0004b	8d 54 24 1c	 lea	 edx, DWORD PTR _szQuery$[esp+292]
  0004f	68 00 00 00 00	 push	 OFFSET FLAT:??_C@_0CN@DFOIGMEI@?$HLcall?5uspElectionSetPledge?$CI?5?$CFd?0?5@
  00054	52		 push	 edx
  00055	e8 00 00 00 00	 call	 _sprintf

; 703  : 	SQLINTEGER cbLen	= SQL_NTS;
; 704  : 	if( !GetQueryObject()->BindParameter( 1, SQL_PARAM_INPUT, SQL_C_CHAR, SQL_VARCHAR, CCandidate::nMaxPledgeLen, 0, const_cast<char*>( szPledge ), 0, &cbLen ) )

  0005a	8b 4e 0c	 mov	 ecx, DWORD PTR [esi+12]
  0005d	83 c4 14	 add	 esp, 20			; 00000014H
  00060	8d 44 24 0c	 lea	 eax, DWORD PTR _cbLen$[esp+280]
  00064	50		 push	 eax
  00065	6a 00		 push	 0
  00067	53		 push	 ebx
  00068	6a 00		 push	 0
  0006a	68 ff 00 00 00	 push	 255			; 000000ffH
  0006f	6a 0c		 push	 12			; 0000000cH
  00071	6a 01		 push	 1
  00073	6a 01		 push	 1
  00075	6a 01		 push	 1
  00077	c7 44 24 30 fd
	ff ff ff	 mov	 DWORD PTR _cbLen$[esp+316], -3 ; fffffffdH
  0007f	e8 00 00 00 00	 call	 ?BindParameter@CQuery@@QAEHGFFFKFPAXJPAJ@Z ; CQuery::BindParameter
  00084	85 c0		 test	 eax, eax
  00086	75 17		 jne	 SHORT $L204392

; 707  : }

  00088	5f		 pop	 edi
  00089	5e		 pop	 esi
  0008a	5b		 pop	 ebx
  0008b	8b 8c 24 08 01
	00 00		 mov	 ecx, DWORD PTR __$ArrayPad$[esp+268]
  00092	33 cd		 xor	 ecx, ebp
  00094	e8 00 00 00 00	 call	 @__security_check_cookie@4
  00099	8b e5		 mov	 esp, ebp
  0009b	5d		 pop	 ebp
  0009c	c2 08 00	 ret	 8
$L204392:

; 705  : 		return FALSE;
; 706  : 	return GetQueryObject()->Exec( szQuery );

  0009f	8b 4e 0c	 mov	 ecx, DWORD PTR [esi+12]
  000a2	8d 54 24 10	 lea	 edx, DWORD PTR _szQuery$[esp+280]
  000a6	52		 push	 edx
  000a7	e8 00 00 00 00	 call	 ?Exec@CQuery@@QAEHPBD@Z	; CQuery::Exec

; 707  : }

  000ac	8b 8c 24 14 01
	00 00		 mov	 ecx, DWORD PTR __$ArrayPad$[esp+280]
  000b3	5f		 pop	 edi
  000b4	5e		 pop	 esi
  000b5	33 cd		 xor	 ecx, ebp
  000b7	5b		 pop	 ebx
  000b8	e8 00 00 00 00	 call	 @__security_check_cookie@4
  000bd	8b e5		 mov	 esp, ebp
  000bf	5d		 pop	 ebp
  000c0	c2 08 00	 ret	 8
?SetPledge@CLController@@QAEHKPBD@Z ENDP		; CLController::SetPledge
_TEXT	ENDS
PUBLIC	?IncVote@CLController@@QAEHKK@Z			; CLController::IncVote
PUBLIC	??_C@_0CC@MJFIHIPP@uspElectionIncVote?5?$CFd?0?5?$CFd?0?5?$CFd?0?5?$CF@ ; `string'
PUBLIC	??_C@_07MGNKFCA@bResult?$AA@			; `string'
;	COMDAT ??_C@_0CC@MJFIHIPP@uspElectionIncVote?5?$CFd?0?5?$CFd?0?5?$CFd?0?5?$CF@
; File c:\documents and settings\test\mes documents\source\virtuos_v17\build\program\databaseserver\dbcontroller.h
CONST	SEGMENT
??_C@_0CC@MJFIHIPP@uspElectionIncVote?5?$CFd?0?5?$CFd?0?5?$CFd?0?5?$CF@ DB 'u'
	DB	'spElectionIncVote %d, %d, %d, %d', 00H	; `string'
CONST	ENDS
;	COMDAT ??_C@_07MGNKFCA@bResult?$AA@
CONST	SEGMENT
??_C@_07MGNKFCA@bResult?$AA@ DB 'bResult', 00H		; `string'
; Function compile flags: /Ogty
; File c:\documents and settings\test\mes documents\source\virtuos_v17\build\program\databaseserver\tlord.cpp
CONST	ENDS
;	COMDAT ?IncVote@CLController@@QAEHKK@Z
_TEXT	SEGMENT
_szQuery$ = -264					; size = 255
__$ArrayPad$ = -4					; size = 4
__$ReturnAddr$ = 4					; size = 4
_idPlayer$ = 8						; size = 4
_idElector$ = 12					; size = 4
?IncVote@CLController@@QAEHKK@Z PROC NEAR		; CLController::IncVote, COMDAT
; _this$ = ecx

; 710  : {	//  

  00000	55		 push	 ebp
  00001	8b ec		 mov	 ebp, esp
  00003	83 e4 f8	 and	 esp, -8			; fffffff8H
  00006	81 ec 08 01 00
	00		 sub	 esp, 264		; 00000108H
  0000c	a1 00 00 00 00	 mov	 eax, DWORD PTR ___security_cookie
  00011	56		 push	 esi
  00012	33 c5		 xor	 eax, ebp
  00014	57		 push	 edi
  00015	89 84 24 0c 01
	00 00		 mov	 DWORD PTR __$ArrayPad$[esp+272], eax
  0001c	8b f1		 mov	 esi, ecx

; 711  : 	//    FALSE 
; 712  : 	char szQuery[255]	= { 0,};
; 713  : 	IElection* pElection	= m_pLord->GetElection();
; 714  : 	sprintf( szQuery, "uspElectionIncVote %d, %d, %d, %d", g_appInfo.dwSys, pElection->GetId(), idPlayer, idElector );

  0001e	8b 56 14	 mov	 edx, DWORD PTR [esi+20]
  00021	33 c0		 xor	 eax, eax
  00023	c6 44 24 08 00	 mov	 BYTE PTR _szQuery$[esp+272], 0
  00028	b9 3f 00 00 00	 mov	 ecx, 63			; 0000003fH
  0002d	8d 7c 24 09	 lea	 edi, DWORD PTR _szQuery$[esp+273]
  00031	f3 ab		 rep stosd
  00033	8b 4d 08	 mov	 ecx, DWORD PTR _idPlayer$[ebp]
  00036	66 ab		 stosw
  00038	8b 45 0c	 mov	 eax, DWORD PTR _idElector$[ebp]
  0003b	50		 push	 eax
  0003c	8b 42 08	 mov	 eax, DWORD PTR [edx+8]
  0003f	8b 15 00 00 00
	00		 mov	 edx, DWORD PTR ?g_appInfo@@3UAppInfo@@A
  00045	51		 push	 ecx
  00046	8b 48 08	 mov	 ecx, DWORD PTR [eax+8]
  00049	51		 push	 ecx
  0004a	52		 push	 edx
  0004b	8d 44 24 18	 lea	 eax, DWORD PTR _szQuery$[esp+288]
  0004f	68 00 00 00 00	 push	 OFFSET FLAT:??_C@_0CC@MJFIHIPP@uspElectionIncVote?5?$CFd?0?5?$CFd?0?5?$CFd?0?5?$CF@
  00054	50		 push	 eax
  00055	e8 00 00 00 00	 call	 _sprintf

; 715  : 	if( !GetQueryObject()->Exec( szQuery ) )

  0005a	8b 4e 0c	 mov	 ecx, DWORD PTR [esi+12]
  0005d	83 c4 18	 add	 esp, 24			; 00000018H
  00060	8d 54 24 08	 lea	 edx, DWORD PTR _szQuery$[esp+272]
  00064	52		 push	 edx
  00065	e8 00 00 00 00	 call	 ?Exec@CQuery@@QAEHPBD@Z	; CQuery::Exec
  0006a	85 c0		 test	 eax, eax

; 716  : 		return FALSE;

  0006c	74 0c		 je	 SHORT $L206612

; 717  : 	if( !GetQueryObject()->Fetch() )

  0006e	8b 4e 0c	 mov	 ecx, DWORD PTR [esi+12]
  00071	e8 00 00 00 00	 call	 ?Fetch@CQuery@@QAEHXZ	; CQuery::Fetch
  00076	85 c0		 test	 eax, eax
  00078	75 18		 jne	 SHORT $L204402
$L206612:

; 718  : 		return FALSE;

  0007a	33 c0		 xor	 eax, eax

; 720  : }

  0007c	5f		 pop	 edi
  0007d	5e		 pop	 esi
  0007e	8b 8c 24 04 01
	00 00		 mov	 ecx, DWORD PTR __$ArrayPad$[esp+264]
  00085	33 cd		 xor	 ecx, ebp
  00087	e8 00 00 00 00	 call	 @__security_check_cookie@4
  0008c	8b e5		 mov	 esp, ebp
  0008e	5d		 pop	 ebp
  0008f	c2 08 00	 ret	 8
$L204402:

; 719  : 	return static_cast<BOOL>( GetQueryObject()->GetInt( "bResult" ) );

  00092	8b 4e 0c	 mov	 ecx, DWORD PTR [esi+12]
  00095	68 00 00 00 00	 push	 OFFSET FLAT:??_C@_07MGNKFCA@bResult?$AA@
  0009a	e8 00 00 00 00	 call	 ?GetInt@CQuery@@QAEHPAD@Z ; CQuery::GetInt

; 720  : }

  0009f	8b 8c 24 0c 01
	00 00		 mov	 ecx, DWORD PTR __$ArrayPad$[esp+272]
  000a6	5f		 pop	 edi
  000a7	33 cd		 xor	 ecx, ebp
  000a9	5e		 pop	 esi
  000aa	e8 00 00 00 00	 call	 @__security_check_cookie@4
  000af	8b e5		 mov	 esp, ebp
  000b1	5d		 pop	 ebp
  000b2	c2 08 00	 ret	 8
?IncVote@CLController@@QAEHKK@Z ENDP			; CLController::IncVote
_TEXT	ENDS
PUBLIC	?AddLEComponent@CLController@@QAEHPAVCLEComponent@@@Z ; CLController::AddLEComponent
PUBLIC	??_C@_0CL@KGJPMKPI@uspAddLEComponent?5?$CFd?0?5?$CFd?0?5?$CFd?0?5?$CF3@ ; `string'
;	COMDAT ??_C@_0CL@KGJPMKPI@uspAddLEComponent?5?$CFd?0?5?$CFd?0?5?$CFd?0?5?$CF3@
; File c:\documents and settings\test\mes documents\source\virtuos_v17\build\program\databaseserver\dbcontroller.h
CONST	SEGMENT
??_C@_0CL@KGJPMKPI@uspAddLEComponent?5?$CFd?0?5?$CFd?0?5?$CFd?0?5?$CF3@ DB 'u'
	DB	'spAddLEComponent %d, %d, %d, %3.2f, %3.2f', 00H ; `string'
; Function compile flags: /Ogty
; File c:\documents and settings\test\mes documents\source\virtuos_v17\build\program\databaseserver\tlord.cpp
CONST	ENDS
;	COMDAT ?AddLEComponent@CLController@@QAEHPAVCLEComponent@@@Z
_TEXT	SEGMENT
_pComponent$ = 8					; size = 4
?AddLEComponent@CLController@@QAEHPAVCLEComponent@@@Z PROC NEAR ; CLController::AddLEComponent, COMDAT
; _this$ = ecx

; 724  : 	if( GetQueryObject()->Execute( "uspAddLEComponent %d, %d, %d, %3.2f, %3.2f", g_appInfo.dwSys, pComponent->GetIdPlayer(), pComponent->GetTick(), pComponent->GetEFactor(), pComponent->GetIFactor() ) 
; 725  : 		&& GetQueryObject()->Fetch() )

  00000	8b 44 24 04	 mov	 eax, DWORD PTR _pComponent$[esp-4]
  00004	d9 40 10	 fld	 DWORD PTR [eax+16]
  00007	56		 push	 esi
  00008	d9 40 0c	 fld	 DWORD PTR [eax+12]
  0000b	83 ec 10	 sub	 esp, 16			; 00000010H
  0000e	d9 c9		 fxch	 ST(1)
  00010	8b f1		 mov	 esi, ecx
  00012	8b 48 04	 mov	 ecx, DWORD PTR [eax+4]
  00015	dd 5c 24 08	 fstp	 QWORD PTR [esp+8]
  00019	8b 40 08	 mov	 eax, DWORD PTR [eax+8]
  0001c	8b 56 0c	 mov	 edx, DWORD PTR [esi+12]
  0001f	dd 1c 24	 fstp	 QWORD PTR [esp]
  00022	51		 push	 ecx
  00023	50		 push	 eax
  00024	a1 00 00 00 00	 mov	 eax, DWORD PTR ?g_appInfo@@3UAppInfo@@A
  00029	50		 push	 eax
  0002a	68 00 00 00 00	 push	 OFFSET FLAT:??_C@_0CL@KGJPMKPI@uspAddLEComponent?5?$CFd?0?5?$CFd?0?5?$CFd?0?5?$CF3@
  0002f	52		 push	 edx
  00030	e8 00 00 00 00	 call	 ?Execute@CQuery@@QAAHPBDZZ ; CQuery::Execute
  00035	83 c4 24	 add	 esp, 36			; 00000024H
  00038	85 c0		 test	 eax, eax
  0003a	74 1d		 je	 SHORT $L204409
  0003c	8b 4e 0c	 mov	 ecx, DWORD PTR [esi+12]
  0003f	e8 00 00 00 00	 call	 ?Fetch@CQuery@@QAEHXZ	; CQuery::Fetch
  00044	85 c0		 test	 eax, eax
  00046	74 11		 je	 SHORT $L204409

; 726  : 		return static_cast<BOOL>( GetQueryObject()->GetInt( "bResult" ) );

  00048	8b 4e 0c	 mov	 ecx, DWORD PTR [esi+12]
  0004b	5e		 pop	 esi
  0004c	c7 44 24 04 00
	00 00 00	 mov	 DWORD PTR _pComponent$[esp-4], OFFSET FLAT:??_C@_07MGNKFCA@bResult?$AA@
  00054	e9 00 00 00 00	 jmp	 ?GetInt@CQuery@@QAEHPAD@Z ; CQuery::GetInt
$L204409:

; 727  : 	return FALSE;

  00059	33 c0		 xor	 eax, eax
  0005b	5e		 pop	 esi

; 728  : }

  0005c	c2 04 00	 ret	 4
?AddLEComponent@CLController@@QAEHPAVCLEComponent@@@Z ENDP ; CLController::AddLEComponent
_TEXT	ENDS
PUBLIC	?InitializeLEvent@CLController@@QAEHXZ		; CLController::InitializeLEvent
PUBLIC	??_C@_0BH@NILKABO@uspInitializeLEvent?5?$CFd?$AA@ ; `string'
;	COMDAT ??_C@_0BH@NILKABO@uspInitializeLEvent?5?$CFd?$AA@
; File c:\documents and settings\test\mes documents\source\virtuos_v17\build\program\databaseserver\dbcontroller.h
CONST	SEGMENT
??_C@_0BH@NILKABO@uspInitializeLEvent?5?$CFd?$AA@ DB 'uspInitializeLEvent'
	DB	' %d', 00H					; `string'
; Function compile flags: /Ogty
; File c:\documents and settings\test\mes documents\source\virtuos_v17\build\program\databaseserver\tlord.cpp
CONST	ENDS
;	COMDAT ?InitializeLEvent@CLController@@QAEHXZ
_TEXT	SEGMENT
?InitializeLEvent@CLController@@QAEHXZ PROC NEAR	; CLController::InitializeLEvent, COMDAT
; _this$ = ecx

; 732  : 	return GetQueryObject()->Execute( "uspInitializeLEvent %d", g_appInfo.dwSys );

  00000	a1 00 00 00 00	 mov	 eax, DWORD PTR ?g_appInfo@@3UAppInfo@@A
  00005	8b 49 0c	 mov	 ecx, DWORD PTR [ecx+12]
  00008	50		 push	 eax
  00009	68 00 00 00 00	 push	 OFFSET FLAT:??_C@_0BH@NILKABO@uspInitializeLEvent?5?$CFd?$AA@
  0000e	51		 push	 ecx
  0000f	e8 00 00 00 00	 call	 ?Execute@CQuery@@QAAHPBDZZ ; CQuery::Execute
  00014	83 c4 0c	 add	 esp, 12			; 0000000cH

; 733  : }

  00017	c3		 ret	 0
?InitializeLEvent@CLController@@QAEHXZ ENDP		; CLController::InitializeLEvent
_TEXT	ENDS
PUBLIC	?UpdateLordSkillTick@CLController@@QAEHPAVCLordSkillComponent@@H@Z ; CLController::UpdateLordSkillTick
PUBLIC	??_C@_0BM@PHMEBJEL@uspLordSkillTick?5?$CFd?0?5?$CFd?0?5?$CFd?$AA@ ; `string'
;	COMDAT ??_C@_0BM@PHMEBJEL@uspLordSkillTick?5?$CFd?0?5?$CFd?0?5?$CFd?$AA@
; File c:\documents and settings\test\mes documents\source\virtuos_v17\build\program\databaseserver\dbcontroller.h
CONST	SEGMENT
??_C@_0BM@PHMEBJEL@uspLordSkillTick?5?$CFd?0?5?$CFd?0?5?$CFd?$AA@ DB 'usp'
	DB	'LordSkillTick %d, %d, %d', 00H		; `string'
; Function compile flags: /Ogty
; File c:\documents and settings\test\mes documents\source\virtuos_v17\build\program\databaseserver\tlord.cpp
CONST	ENDS
;	COMDAT ?UpdateLordSkillTick@CLController@@QAEHPAVCLordSkillComponent@@H@Z
_TEXT	SEGMENT
_pSkill$ = 8						; size = 4
_nTick$ = 12						; size = 4
?UpdateLordSkillTick@CLController@@QAEHPAVCLordSkillComponent@@H@Z PROC NEAR ; CLController::UpdateLordSkillTick, COMDAT
; _this$ = ecx

; 737  : 	return GetQueryObject()->Execute( "uspLordSkillTick %d, %d, %d", g_appInfo.dwSys, pSkill->GetId(), nTick );

  00000	8b 54 24 08	 mov	 edx, DWORD PTR _nTick$[esp-4]
  00004	8b 44 24 04	 mov	 eax, DWORD PTR _pSkill$[esp-4]
  00008	8b 40 04	 mov	 eax, DWORD PTR [eax+4]
  0000b	8b 49 0c	 mov	 ecx, DWORD PTR [ecx+12]
  0000e	52		 push	 edx
  0000f	50		 push	 eax
  00010	a1 00 00 00 00	 mov	 eax, DWORD PTR ?g_appInfo@@3UAppInfo@@A
  00015	50		 push	 eax
  00016	68 00 00 00 00	 push	 OFFSET FLAT:??_C@_0BM@PHMEBJEL@uspLordSkillTick?5?$CFd?0?5?$CFd?0?5?$CFd?$AA@
  0001b	51		 push	 ecx
  0001c	e8 00 00 00 00	 call	 ?Execute@CQuery@@QAAHPBDZZ ; CQuery::Execute
  00021	83 c4 14	 add	 esp, 20			; 00000014H

; 738  : }

  00024	c2 08 00	 ret	 8
?UpdateLordSkillTick@CLController@@QAEHPAVCLordSkillComponent@@H@Z ENDP ; CLController::UpdateLordSkillTick
_TEXT	ENDS
PUBLIC	?UpdateLordEventTick@CLController@@QAEHPAVCLEComponent@@@Z ; CLController::UpdateLordEventTick
PUBLIC	??_C@_0BM@INGAOOO@uspLordEventTick?5?$CFd?0?5?$CFd?0?5?$CFd?$AA@ ; `string'
;	COMDAT ??_C@_0BM@INGAOOO@uspLordEventTick?5?$CFd?0?5?$CFd?0?5?$CFd?$AA@
; File c:\documents and settings\test\mes documents\source\virtuos_v17\build\program\databaseserver\dbcontroller.h
CONST	SEGMENT
??_C@_0BM@INGAOOO@uspLordEventTick?5?$CFd?0?5?$CFd?0?5?$CFd?$AA@ DB 'uspL'
	DB	'ordEventTick %d, %d, %d', 00H		; `string'
; Function compile flags: /Ogty
; File c:\documents and settings\test\mes documents\source\virtuos_v17\build\program\databaseserver\tlord.cpp
CONST	ENDS
;	COMDAT ?UpdateLordEventTick@CLController@@QAEHPAVCLEComponent@@@Z
_TEXT	SEGMENT
_pComponent$ = 8					; size = 4
?UpdateLordEventTick@CLController@@QAEHPAVCLEComponent@@@Z PROC NEAR ; CLController::UpdateLordEventTick, COMDAT
; _this$ = ecx

; 742  : 	return GetQueryObject()->Execute( "uspLordEventTick %d, %d, %d", g_appInfo.dwSys, pComponent->GetIdPlayer(), pComponent->GetTick() );

  00000	8b 44 24 04	 mov	 eax, DWORD PTR _pComponent$[esp-4]
  00004	8b 50 04	 mov	 edx, DWORD PTR [eax+4]
  00007	8b 40 08	 mov	 eax, DWORD PTR [eax+8]
  0000a	8b 49 0c	 mov	 ecx, DWORD PTR [ecx+12]
  0000d	52		 push	 edx
  0000e	50		 push	 eax
  0000f	a1 00 00 00 00	 mov	 eax, DWORD PTR ?g_appInfo@@3UAppInfo@@A
  00014	50		 push	 eax
  00015	68 00 00 00 00	 push	 OFFSET FLAT:??_C@_0BM@INGAOOO@uspLordEventTick?5?$CFd?0?5?$CFd?0?5?$CFd?$AA@
  0001a	51		 push	 ecx
  0001b	e8 00 00 00 00	 call	 ?Execute@CQuery@@QAAHPBDZZ ; CQuery::Execute
  00020	83 c4 14	 add	 esp, 20			; 00000014H

; 743  : }

  00023	c2 04 00	 ret	 4
?UpdateLordEventTick@CLController@@QAEHPAVCLEComponent@@@Z ENDP ; CLController::UpdateLordEventTick
_TEXT	ENDS
PUBLIC	??0CTLordSkill@@QAE@PAVCLord@@@Z		; CTLordSkill::CTLordSkill
PUBLIC	?CreateSkillComponent@CTLordSkill@@UAEPAVCLordSkillComponentExecutable@@H@Z ; CTLordSkill::CreateSkillComponent
PUBLIC	??_7CTLordSkill@@6B@				; CTLordSkill::`vftable'
PUBLIC	??_GCTLordSkill@@UAEPAXI@Z			; CTLordSkill::`scalar deleting destructor'
EXTRN	??_ECTLordSkill@@UAEPAXI@Z:NEAR			; CTLordSkill::`vector deleting destructor'
EXTRN	??0CLordSkill@@QAE@PAVCLord@@@Z:NEAR		; CLordSkill::CLordSkill
;	COMDAT ??_7CTLordSkill@@6B@
CONST	SEGMENT
??_7CTLordSkill@@6B@ DD FLAT:??_ECTLordSkill@@UAEPAXI@Z	; CTLordSkill::`vftable'
	DD	FLAT:?CreateSkillComponent@CTLordSkill@@UAEPAVCLordSkillComponentExecutable@@H@Z
; Function compile flags: /Ogty
CONST	ENDS
;	COMDAT ??0CTLordSkill@@QAE@PAVCLord@@@Z
_TEXT	SEGMENT
_pLord$ = 8						; size = 4
??0CTLordSkill@@QAE@PAVCLord@@@Z PROC NEAR		; CTLordSkill::CTLordSkill, COMDAT
; _this$ = ecx

; 748  : {

  00000	8b 44 24 04	 mov	 eax, DWORD PTR _pLord$[esp-4]
  00004	56		 push	 esi
  00005	50		 push	 eax
  00006	8b f1		 mov	 esi, ecx
  00008	e8 00 00 00 00	 call	 ??0CLordSkill@@QAE@PAVCLord@@@Z ; CLordSkill::CLordSkill
  0000d	c7 06 00 00 00
	00		 mov	 DWORD PTR [esi], OFFSET FLAT:??_7CTLordSkill@@6B@

; 749  : }

  00013	8b c6		 mov	 eax, esi
  00015	5e		 pop	 esi
  00016	c2 04 00	 ret	 4
??0CTLordSkill@@QAE@PAVCLord@@@Z ENDP			; CTLordSkill::CTLordSkill
_TEXT	ENDS
PUBLIC	??1CTLordSkill@@UAE@XZ				; CTLordSkill::~CTLordSkill
EXTRN	??1CLordSkill@@UAE@XZ:NEAR			; CLordSkill::~CLordSkill
; Function compile flags: /Ogty
;	COMDAT ??1CTLordSkill@@UAE@XZ
_TEXT	SEGMENT
??1CTLordSkill@@UAE@XZ PROC NEAR			; CTLordSkill::~CTLordSkill, COMDAT
; _this$ = ecx

; 752  : {

  00000	c7 01 00 00 00
	00		 mov	 DWORD PTR [ecx], OFFSET FLAT:??_7CTLordSkill@@6B@

; 753  : }

  00006	e9 00 00 00 00	 jmp	 ??1CLordSkill@@UAE@XZ	; CLordSkill::~CLordSkill
??1CTLordSkill@@UAE@XZ ENDP				; CTLordSkill::~CTLordSkill
_TEXT	ENDS
EXTRN	??0CLordSkillComponentODBC@@QAE@XZ:NEAR		; CLordSkillComponentODBC::CLordSkillComponentODBC
;	COMDAT xdata$x
xdata$x	SEGMENT
$T206689 DD	0ffffffffH
	DD	FLAT:$L206685
$T206687 DD	019930520H
	DD	01H
	DD	FLAT:$T206689
	DD	2 DUP(00H)
	DD	2 DUP(00H)
; Function compile flags: /Ogty
xdata$x	ENDS
;	COMDAT ?CreateSkillComponent@CTLordSkill@@UAEPAVCLordSkillComponentExecutable@@H@Z
_TEXT	SEGMENT
$T206682 = -16						; size = 4
__$EHRec$ = -12						; size = 12
_nType$ = 8						; size = 4
?CreateSkillComponent@CTLordSkill@@UAEPAVCLordSkillComponentExecutable@@H@Z PROC NEAR ; CTLordSkill::CreateSkillComponent, COMDAT
; _this$ = ecx

; 756  : {	//     

  00000	6a ff		 push	 -1
  00002	68 00 00 00 00	 push	 __ehhandler$?CreateSkillComponent@CTLordSkill@@UAEPAVCLordSkillComponentExecutable@@H@Z
  00007	64 a1 00 00 00
	00		 mov	 eax, DWORD PTR fs:__except_list
  0000d	50		 push	 eax
  0000e	64 89 25 00 00
	00 00		 mov	 DWORD PTR fs:__except_list, esp
  00015	51		 push	 ecx

; 757  : 	// CLordSkillComponentODBC
; 758  : 	return new CLordSkillComponentODBC;

  00016	68 fc 00 00 00	 push	 252			; 000000fcH
  0001b	e8 00 00 00 00	 call	 ??2@YAPAXI@Z		; operator new
  00020	83 c4 04	 add	 esp, 4
  00023	89 04 24	 mov	 DWORD PTR $T206682[esp+16], eax
  00026	85 c0		 test	 eax, eax
  00028	c7 44 24 0c 00
	00 00 00	 mov	 DWORD PTR __$EHRec$[esp+24], 0
  00030	74 18		 je	 SHORT $L206683
  00032	8b c8		 mov	 ecx, eax
  00034	e8 00 00 00 00	 call	 ??0CLordSkillComponentODBC@@QAE@XZ ; CLordSkillComponentODBC::CLordSkillComponentODBC

; 759  : }

  00039	8b 4c 24 04	 mov	 ecx, DWORD PTR __$EHRec$[esp+16]
  0003d	64 89 0d 00 00
	00 00		 mov	 DWORD PTR fs:__except_list, ecx
  00044	83 c4 10	 add	 esp, 16			; 00000010H
  00047	c2 04 00	 ret	 4
$L206683:
  0004a	8b 4c 24 04	 mov	 ecx, DWORD PTR __$EHRec$[esp+16]
  0004e	33 c0		 xor	 eax, eax
  00050	64 89 0d 00 00
	00 00		 mov	 DWORD PTR fs:__except_list, ecx
  00057	83 c4 10	 add	 esp, 16			; 00000010H
  0005a	c2 04 00	 ret	 4
_TEXT	ENDS
;	COMDAT text$x
text$x	SEGMENT
$L206685:
  00000	8b 45 f0	 mov	 eax, DWORD PTR $T206682[ebp]
  00003	50		 push	 eax
  00004	e8 00 00 00 00	 call	 ??3@YAXPAX@Z		; operator delete
  00009	59		 pop	 ecx
  0000a	c3		 ret	 0
__ehhandler$?CreateSkillComponent@CTLordSkill@@UAEPAVCLordSkillComponentExecutable@@H@Z:
  0000b	b8 00 00 00 00	 mov	 eax, OFFSET FLAT:$T206687
  00010	e9 00 00 00 00	 jmp	 ___CxxFrameHandler
text$x	ENDS
?CreateSkillComponent@CTLordSkill@@UAEPAVCLordSkillComponentExecutable@@H@Z ENDP ; CTLordSkill::CreateSkillComponent
PUBLIC	?Restore@CTLordSkill@@QAEHPAVCQuery@@@Z		; CTLordSkill::Restore
PUBLIC	??_C@_0BH@OCAHAJDB@uspRestoreLordSkill?5?$CFd?$AA@ ; `string'
PUBLIC	??_C@_06BDEJIFFK@nSkill?$AA@			; `string'
EXTRN	?GetSkill@CLordSkill@@QAEPAVCLordSkillComponentExecutable@@H@Z:NEAR ; CLordSkill::GetSkill
;	COMDAT ??_C@_0BH@OCAHAJDB@uspRestoreLordSkill?5?$CFd?$AA@
; File c:\documents and settings\test\mes documents\source\virtuos_v17\build\program\_common\lordskill.h
CONST	SEGMENT
??_C@_0BH@OCAHAJDB@uspRestoreLordSkill?5?$CFd?$AA@ DB 'uspRestoreLordSkil'
	DB	'l %d', 00H					; `string'
CONST	ENDS
;	COMDAT ??_C@_06BDEJIFFK@nSkill?$AA@
CONST	SEGMENT
??_C@_06BDEJIFFK@nSkill?$AA@ DB 'nSkill', 00H		; `string'
; Function compile flags: /Ogty
; File c:\documents and settings\test\mes documents\source\virtuos_v17\build\program\databaseserver\tlord.cpp
CONST	ENDS
;	COMDAT ?Restore@CTLordSkill@@QAEHPAVCQuery@@@Z
_TEXT	SEGMENT
_pQuery$ = 8						; size = 4
?Restore@CTLordSkill@@QAEHPAVCQuery@@@Z PROC NEAR	; CTLordSkill::Restore, COMDAT
; _this$ = ecx

; 763  : 	if( !pQuery->Execute( "uspRestoreLordSkill %d", g_appInfo.dwSys ) )

  00000	a1 00 00 00 00	 mov	 eax, DWORD PTR ?g_appInfo@@3UAppInfo@@A
  00005	53		 push	 ebx
  00006	56		 push	 esi
  00007	8b 74 24 0c	 mov	 esi, DWORD PTR _pQuery$[esp+4]
  0000b	50		 push	 eax
  0000c	68 00 00 00 00	 push	 OFFSET FLAT:??_C@_0BH@OCAHAJDB@uspRestoreLordSkill?5?$CFd?$AA@
  00011	56		 push	 esi
  00012	8b d9		 mov	 ebx, ecx
  00014	e8 00 00 00 00	 call	 ?Execute@CQuery@@QAAHPBDZZ ; CQuery::Execute
  00019	83 c4 0c	 add	 esp, 12			; 0000000cH
  0001c	85 c0		 test	 eax, eax
  0001e	75 05		 jne	 SHORT $L206698
  00020	5e		 pop	 esi
  00021	5b		 pop	 ebx

; 771  : }

  00022	c2 04 00	 ret	 4
$L206698:

; 764  : 		return FALSE;
; 765  : 	while( pQuery->Fetch() )

  00025	8b ce		 mov	 ecx, esi
  00027	e8 00 00 00 00	 call	 ?Fetch@CQuery@@QAEHXZ	; CQuery::Fetch
  0002c	85 c0		 test	 eax, eax
  0002e	74 32		 je	 SHORT $L204455
  00030	57		 push	 edi
$L204454:

; 766  : 	{
; 767  : 			CLordSkillComponent* pComponent	= GetSkill( pQuery->GetInt( "nSkill" ) );

  00031	68 00 00 00 00	 push	 OFFSET FLAT:??_C@_06BDEJIFFK@nSkill?$AA@
  00036	8b ce		 mov	 ecx, esi
  00038	e8 00 00 00 00	 call	 ?GetInt@CQuery@@QAEHPAD@Z ; CQuery::GetInt
  0003d	50		 push	 eax
  0003e	8b cb		 mov	 ecx, ebx
  00040	e8 00 00 00 00	 call	 ?GetSkill@CLordSkill@@QAEPAVCLordSkillComponentExecutable@@H@Z ; CLordSkill::GetSkill

; 768  : 			pComponent->SetTick( pQuery->GetInt( "nTick" ) );

  00045	68 00 00 00 00	 push	 OFFSET FLAT:??_C@_05DLOGCGOB@nTick?$AA@
  0004a	8b ce		 mov	 ecx, esi
  0004c	8b f8		 mov	 edi, eax
  0004e	e8 00 00 00 00	 call	 ?GetInt@CQuery@@QAEHPAD@Z ; CQuery::GetInt
  00053	8b ce		 mov	 ecx, esi
  00055	89 47 0c	 mov	 DWORD PTR [edi+12], eax
  00058	e8 00 00 00 00	 call	 ?Fetch@CQuery@@QAEHXZ	; CQuery::Fetch
  0005d	85 c0		 test	 eax, eax
  0005f	75 d0		 jne	 SHORT $L204454
  00061	5f		 pop	 edi
$L204455:
  00062	5e		 pop	 esi

; 769  : 	}
; 770  : 	return TRUE;

  00063	b8 01 00 00 00	 mov	 eax, 1
  00068	5b		 pop	 ebx

; 771  : }

  00069	c2 04 00	 ret	 4
?Restore@CTLordSkill@@QAEHPAVCQuery@@@Z ENDP		; CTLordSkill::Restore
_TEXT	ENDS
PUBLIC	??0CTime@ATL@@QAE@_J@Z				; ATL::CTime::CTime
; Function compile flags: /Ogty
; File c:\program files\microsoft visual studio .net 2003\vc7\atlmfc\include\atltime.inl
;	COMDAT ??0CTime@ATL@@QAE@_J@Z
_TEXT	SEGMENT
_time$ = 8						; size = 8
??0CTime@ATL@@QAE@_J@Z PROC NEAR			; ATL::CTime::CTime, COMDAT
; _this$ = ecx

; 167  : {

  00000	8b 54 24 08	 mov	 edx, DWORD PTR _time$[esp]
  00004	8b c1		 mov	 eax, ecx
  00006	8b 4c 24 04	 mov	 ecx, DWORD PTR _time$[esp-4]
  0000a	89 08		 mov	 DWORD PTR [eax], ecx
  0000c	89 50 04	 mov	 DWORD PTR [eax+4], edx

; 168  : }

  0000f	c2 08 00	 ret	 8
??0CTime@ATL@@QAE@_J@Z ENDP				; ATL::CTime::CTime
_TEXT	ENDS
PUBLIC	??0CTime@ATL@@QAE@HHHHHHH@Z			; ATL::CTime::CTime
EXTRN	__mktime64:NEAR
; Function compile flags: /Ogty
;	COMDAT ??0CTime@ATL@@QAE@HHHHHHH@Z
_TEXT	SEGMENT
_atm$ = -36						; size = 36
_nYear$ = 8						; size = 4
_nMonth$ = 12						; size = 4
_nDay$ = 16						; size = 4
_nHour$ = 20						; size = 4
_nMin$ = 24						; size = 4
_nSec$ = 28						; size = 4
_nDST$ = 32						; size = 4
??0CTime@ATL@@QAE@HHHHHHH@Z PROC NEAR			; ATL::CTime::CTime, COMDAT
; _this$ = ecx

; 172  : {

  00000	83 ec 24	 sub	 esp, 36			; 00000024H

; 173  : 	struct tm atm;
; 174  : 	atm.tm_sec = nSec;

  00003	8b 44 24 3c	 mov	 eax, DWORD PTR _nSec$[esp+32]

; 175  : 	atm.tm_min = nMin;
; 176  : 	atm.tm_hour = nHour;

  00007	8b 54 24 34	 mov	 edx, DWORD PTR _nHour$[esp+32]
  0000b	56		 push	 esi
  0000c	8b f1		 mov	 esi, ecx
  0000e	8b 4c 24 3c	 mov	 ecx, DWORD PTR _nMin$[esp+36]
  00012	89 4c 24 08	 mov	 DWORD PTR _atm$[esp+44], ecx

; 177  : 	ATLASSERT(nDay >= 1 && nDay <= 31);
; 178  : 	atm.tm_mday = nDay;
; 179  : 	ATLASSERT(nMonth >= 1 && nMonth <= 12);
; 180  : 	atm.tm_mon = nMonth - 1;        // tm_mon is 0 based

  00016	8b 4c 24 30	 mov	 ecx, DWORD PTR _nMonth$[esp+36]
  0001a	89 44 24 04	 mov	 DWORD PTR _atm$[esp+40], eax
  0001e	8b 44 24 34	 mov	 eax, DWORD PTR _nDay$[esp+36]
  00022	49		 dec	 ecx
  00023	89 54 24 0c	 mov	 DWORD PTR _atm$[esp+48], edx

; 181  : 	ATLASSERT(nYear >= 1900);
; 182  : 	atm.tm_year = nYear - 1900;     // tm_year is 1900 based

  00027	8b 54 24 2c	 mov	 edx, DWORD PTR _nYear$[esp+36]
  0002b	89 4c 24 14	 mov	 DWORD PTR _atm$[esp+56], ecx
  0002f	89 44 24 10	 mov	 DWORD PTR _atm$[esp+52], eax

; 183  : 	atm.tm_isdst = nDST;

  00033	8b 44 24 44	 mov	 eax, DWORD PTR _nDST$[esp+36]

; 184  : 	m_time = _mktime64(&atm);

  00037	8d 4c 24 04	 lea	 ecx, DWORD PTR _atm$[esp+40]
  0003b	81 c2 94 f8 ff
	ff		 add	 edx, -1900		; fffff894H
  00041	51		 push	 ecx
  00042	89 54 24 1c	 mov	 DWORD PTR _atm$[esp+64], edx
  00046	89 44 24 28	 mov	 DWORD PTR _atm$[esp+76], eax
  0004a	e8 00 00 00 00	 call	 __mktime64
  0004f	89 56 04	 mov	 DWORD PTR [esi+4], edx

; 185  : 	ATLASSERT(m_time != -1);       // indicates an illegal input time
; 186  : 	
; 187  : 	if(m_time == -1)

  00052	8b 4e 04	 mov	 ecx, DWORD PTR [esi+4]
  00055	8b d0		 mov	 edx, eax
  00057	23 d1		 and	 edx, ecx
  00059	83 c4 04	 add	 esp, 4
  0005c	83 fa ff	 cmp	 edx, -1
  0005f	89 06		 mov	 DWORD PTR [esi], eax
  00061	75 0a		 jne	 SHORT $L42610

; 188  : 		AtlThrow(E_INVALIDARG);

  00063	68 57 00 07 80	 push	 -2147024809		; 80070057H
  00068	e8 00 00 00 00	 call	 ?AtlThrow@ATL@@YGXJ@Z	; ATL::AtlThrow
$L42610:

; 189  : }

  0006d	8b c6		 mov	 eax, esi
  0006f	5e		 pop	 esi
  00070	83 c4 24	 add	 esp, 36			; 00000024H
  00073	c2 1c 00	 ret	 28			; 0000001cH
$L206703:
??0CTime@ATL@@QAE@HHHHHHH@Z ENDP			; ATL::CTime::CTime
_TEXT	ENDS
PUBLIC	?GetTime@CTime@ATL@@QBE_JXZ			; ATL::CTime::GetTime
; Function compile flags: /Ogty
;	COMDAT ?GetTime@CTime@ATL@@QBE_JXZ
_TEXT	SEGMENT
?GetTime@CTime@ATL@@QBE_JXZ PROC NEAR			; ATL::CTime::GetTime, COMDAT
; _this$ = ecx

; 372  : 	return( m_time );

  00000	8b 01		 mov	 eax, DWORD PTR [ecx]
  00002	8b 51 04	 mov	 edx, DWORD PTR [ecx+4]

; 373  : }

  00005	c3		 ret	 0
?GetTime@CTime@ATL@@QBE_JXZ ENDP			; ATL::CTime::GetTime
_TEXT	ENDS
PUBLIC	??C?$shared_ptr@VCCandidate@@@boost@@QBEPAVCCandidate@@XZ ; boost::shared_ptr<CCandidate>::operator->
; Function compile flags: /Ogty
; File c:\documents and settings\test\mes documents\source\virtuos_v17\build\program\boost_sdk\boost\shared_ptr.hpp
;	COMDAT ??C?$shared_ptr@VCCandidate@@@boost@@QBEPAVCCandidate@@XZ
_TEXT	SEGMENT
??C?$shared_ptr@VCCandidate@@@boost@@QBEPAVCCandidate@@XZ PROC NEAR ; boost::shared_ptr<CCandidate>::operator->, COMDAT
; _this$ = ecx

; 315  :         BOOST_ASSERT(px != 0);
; 316  :         return px;

  00000	8b 01		 mov	 eax, DWORD PTR [ecx]

; 317  :     }

  00002	c3		 ret	 0
??C?$shared_ptr@VCCandidate@@@boost@@QBEPAVCCandidate@@XZ ENDP ; boost::shared_ptr<CCandidate>::operator->
_TEXT	ENDS
PUBLIC	??Eiterator@?$vector@HV?$allocator@H@std@@@std@@QAEAAV012@XZ ; std::vector<int,std::allocator<int> >::iterator::operator++
; Function compile flags: /Ogty
; File c:\program files\microsoft visual studio .net 2003\vc7\include\vector
;	COMDAT ??Eiterator@?$vector@HV?$allocator@H@std@@@std@@QAEAAV012@XZ
_TEXT	SEGMENT
??Eiterator@?$vector@HV?$allocator@H@std@@@std@@QAEAAV012@XZ PROC NEAR ; std::vector<int,std::allocator<int> >::iterator::operator++, COMDAT
; _this$ = ecx

; 229  : 			{	// preincrement

  00000	8b c1		 mov	 eax, ecx

; 230  : 			++this->_Myptr;

  00002	83 00 04	 add	 DWORD PTR [eax], 4

; 231  : 			return (*this);
; 232  : 			}

  00005	c3		 ret	 0
??Eiterator@?$vector@HV?$allocator@H@std@@@std@@QAEAAV012@XZ ENDP ; std::vector<int,std::allocator<int> >::iterator::operator++
_TEXT	ENDS
PUBLIC	??Eiterator@?$vector@PAVCLEComponent@@V?$allocator@PAVCLEComponent@@@std@@@std@@QAEAAV012@XZ ; std::vector<CLEComponent *,std::allocator<CLEComponent *> >::iterator::operator++
; Function compile flags: /Ogty
;	COMDAT ??Eiterator@?$vector@PAVCLEComponent@@V?$allocator@PAVCLEComponent@@@std@@@std@@QAEAAV012@XZ
_TEXT	SEGMENT
??Eiterator@?$vector@PAVCLEComponent@@V?$allocator@PAVCLEComponent@@@std@@@std@@QAEAAV012@XZ PROC NEAR ; std::vector<CLEComponent *,std::allocator<CLEComponent *> >::iterator::operator++, COMDAT
; _this$ = ecx

; 229  : 			{	// preincrement

  00000	8b c1		 mov	 eax, ecx

; 230  : 			++this->_Myptr;

  00002	83 00 04	 add	 DWORD PTR [eax], 4

; 231  : 			return (*this);
; 232  : 			}

  00005	c3		 ret	 0
??Eiterator@?$vector@PAVCLEComponent@@V?$allocator@PAVCLEComponent@@@std@@@std@@QAEAAV012@XZ ENDP ; std::vector<CLEComponent *,std::allocator<CLEComponent *> >::iterator::operator++
_TEXT	ENDS
PUBLIC	??Eiterator@?$vector@PAVCLordSkillComponentExecutable@@V?$allocator@PAVCLordSkillComponentExecutable@@@std@@@std@@QAEAAV012@XZ ; std::vector<CLordSkillComponentExecutable *,std::allocator<CLordSkillComponentExecutable *> >::iterator::operator++
; Function compile flags: /Ogty
;	COMDAT ??Eiterator@?$vector@PAVCLordSkillComponentExecutable@@V?$allocator@PAVCLordSkillComponentExecutable@@@std@@@std@@QAEAAV012@XZ
_TEXT	SEGMENT
??Eiterator@?$vector@PAVCLordSkillComponentExecutable@@V?$allocator@PAVCLordSkillComponentExecutable@@@std@@@std@@QAEAAV012@XZ PROC NEAR ; std::vector<CLordSkillComponentExecutable *,std::allocator<CLordSkillComponentExecutable *> >::iterator::operator++, COMDAT
; _this$ = ecx

; 229  : 			{	// preincrement

  00000	8b c1		 mov	 eax, ecx

; 230  : 			++this->_Myptr;

  00002	83 00 04	 add	 DWORD PTR [eax], 4

; 231  : 			return (*this);
; 232  : 			}

  00005	c3		 ret	 0
??Eiterator@?$vector@PAVCLordSkillComponentExecutable@@V?$allocator@PAVCLordSkillComponentExecutable@@@std@@@std@@QAEAAV012@XZ ENDP ; std::vector<CLordSkillComponentExecutable *,std::allocator<CLordSkillComponentExecutable *> >::iterator::operator++
_TEXT	ENDS
PUBLIC	?capacity@?$vector@MV?$allocator@M@std@@@std@@QBEIXZ ; std::vector<float,std::allocator<float> >::capacity
; Function compile flags: /Ogty
;	COMDAT ?capacity@?$vector@MV?$allocator@M@std@@@std@@QBEIXZ
_TEXT	SEGMENT
?capacity@?$vector@MV?$allocator@M@std@@@std@@QBEIXZ PROC NEAR ; std::vector<float,std::allocator<float> >::capacity, COMDAT
; _this$ = ecx

; 458  : 		return (_Myfirst == 0 ? 0 : _Myend - _Myfirst);

  00000	8b 51 04	 mov	 edx, DWORD PTR [ecx+4]
  00003	85 d2		 test	 edx, edx
  00005	75 03		 jne	 SHORT $L206716
  00007	33 c0		 xor	 eax, eax

; 459  : 		}

  00009	c3		 ret	 0
$L206716:

; 458  : 		return (_Myfirst == 0 ? 0 : _Myend - _Myfirst);

  0000a	8b 41 0c	 mov	 eax, DWORD PTR [ecx+12]
  0000d	2b c2		 sub	 eax, edx
  0000f	c1 f8 02	 sar	 eax, 2

; 459  : 		}

  00012	c3		 ret	 0
?capacity@?$vector@MV?$allocator@M@std@@@std@@QBEIXZ ENDP ; std::vector<float,std::allocator<float> >::capacity
_TEXT	ENDS
PUBLIC	?size@?$vector@MV?$allocator@M@std@@@std@@QBEIXZ ; std::vector<float,std::allocator<float> >::size
; Function compile flags: /Ogty
;	COMDAT ?size@?$vector@MV?$allocator@M@std@@@std@@QBEIXZ
_TEXT	SEGMENT
?size@?$vector@MV?$allocator@M@std@@@std@@QBEIXZ PROC NEAR ; std::vector<float,std::allocator<float> >::size, COMDAT
; _this$ = ecx

; 516  : 		return (_Myfirst == 0 ? 0 : _Mylast - _Myfirst);

  00000	8b 51 04	 mov	 edx, DWORD PTR [ecx+4]
  00003	85 d2		 test	 edx, edx
  00005	75 03		 jne	 SHORT $L206720
  00007	33 c0		 xor	 eax, eax

; 517  : 		}

  00009	c3		 ret	 0
$L206720:

; 516  : 		return (_Myfirst == 0 ? 0 : _Mylast - _Myfirst);

  0000a	8b 41 08	 mov	 eax, DWORD PTR [ecx+8]
  0000d	2b c2		 sub	 eax, edx
  0000f	c1 f8 02	 sar	 eax, 2

; 517  : 		}

  00012	c3		 ret	 0
?size@?$vector@MV?$allocator@M@std@@@std@@QBEIXZ ENDP	; std::vector<float,std::allocator<float> >::size
_TEXT	ENDS
PUBLIC	?capacity@?$vector@HV?$allocator@H@std@@@std@@QBEIXZ ; std::vector<int,std::allocator<int> >::capacity
; Function compile flags: /Ogty
;	COMDAT ?capacity@?$vector@HV?$allocator@H@std@@@std@@QBEIXZ
_TEXT	SEGMENT
?capacity@?$vector@HV?$allocator@H@std@@@std@@QBEIXZ PROC NEAR ; std::vector<int,std::allocator<int> >::capacity, COMDAT
; _this$ = ecx

; 458  : 		return (_Myfirst == 0 ? 0 : _Myend - _Myfirst);

  00000	8b 51 04	 mov	 edx, DWORD PTR [ecx+4]
  00003	85 d2		 test	 edx, edx
  00005	75 03		 jne	 SHORT $L206724
  00007	33 c0		 xor	 eax, eax

; 459  : 		}

  00009	c3		 ret	 0
$L206724:

; 458  : 		return (_Myfirst == 0 ? 0 : _Myend - _Myfirst);

  0000a	8b 41 0c	 mov	 eax, DWORD PTR [ecx+12]
  0000d	2b c2		 sub	 eax, edx
  0000f	c1 f8 02	 sar	 eax, 2

; 459  : 		}

  00012	c3		 ret	 0
?capacity@?$vector@HV?$allocator@H@std@@@std@@QBEIXZ ENDP ; std::vector<int,std::allocator<int> >::capacity
_TEXT	ENDS
PUBLIC	?size@?$vector@HV?$allocator@H@std@@@std@@QBEIXZ ; std::vector<int,std::allocator<int> >::size
; Function compile flags: /Ogty
;	COMDAT ?size@?$vector@HV?$allocator@H@std@@@std@@QBEIXZ
_TEXT	SEGMENT
?size@?$vector@HV?$allocator@H@std@@@std@@QBEIXZ PROC NEAR ; std::vector<int,std::allocator<int> >::size, COMDAT
; _this$ = ecx

; 516  : 		return (_Myfirst == 0 ? 0 : _Mylast - _Myfirst);

  00000	8b 51 04	 mov	 edx, DWORD PTR [ecx+4]
  00003	85 d2		 test	 edx, edx
  00005	75 03		 jne	 SHORT $L206728
  00007	33 c0		 xor	 eax, eax

; 517  : 		}

  00009	c3		 ret	 0
$L206728:

; 516  : 		return (_Myfirst == 0 ? 0 : _Mylast - _Myfirst);

  0000a	8b 41 08	 mov	 eax, DWORD PTR [ecx+8]
  0000d	2b c2		 sub	 eax, edx
  0000f	c1 f8 02	 sar	 eax, 2

; 517  : 		}

  00012	c3		 ret	 0
?size@?$vector@HV?$allocator@H@std@@@std@@QBEIXZ ENDP	; std::vector<int,std::allocator<int> >::size
_TEXT	ENDS
PUBLIC	??Yiterator@?$vector@V?$shared_ptr@VCCandidate@@@boost@@V?$allocator@V?$shared_ptr@VCCandidate@@@boost@@@std@@@std@@QAEAAV012@H@Z ; std::vector<boost::shared_ptr<CCandidate>,std::allocator<boost::shared_ptr<CCandidate> > >::iterator::operator+=
; Function compile flags: /Ogty
;	COMDAT ??Yiterator@?$vector@V?$shared_ptr@VCCandidate@@@boost@@V?$allocator@V?$shared_ptr@VCCandidate@@@boost@@@std@@@std@@QAEAAV012@H@Z
_TEXT	SEGMENT
__Off$ = 8						; size = 4
??Yiterator@?$vector@V?$shared_ptr@VCCandidate@@@boost@@V?$allocator@V?$shared_ptr@VCCandidate@@@boost@@@std@@@std@@QAEAAV012@H@Z PROC NEAR ; std::vector<boost::shared_ptr<CCandidate>,std::allocator<boost::shared_ptr<CCandidate> > >::iterator::operator+=, COMDAT
; _this$ = ecx

; 255  : 			{	// increment by integer

  00000	8b c1		 mov	 eax, ecx

; 256  : 			this->_Myptr += _Off;

  00002	8b 4c 24 04	 mov	 ecx, DWORD PTR __Off$[esp-4]
  00006	8d 14 cd 00 00
	00 00		 lea	 edx, DWORD PTR [ecx*8]
  0000d	01 10		 add	 DWORD PTR [eax], edx

; 257  : 			return (*this);
; 258  : 			}

  0000f	c2 04 00	 ret	 4
??Yiterator@?$vector@V?$shared_ptr@VCCandidate@@@boost@@V?$allocator@V?$shared_ptr@VCCandidate@@@boost@@@std@@@std@@QAEAAV012@H@Z ENDP ; std::vector<boost::shared_ptr<CCandidate>,std::allocator<boost::shared_ptr<CCandidate> > >::iterator::operator+=
_TEXT	ENDS
PUBLIC	??Dconst_iterator@?$vector@HV?$allocator@H@std@@@std@@QBEABHXZ ; std::vector<int,std::allocator<int> >::const_iterator::operator*
; Function compile flags: /Ogty
;	COMDAT ??Dconst_iterator@?$vector@HV?$allocator@H@std@@@std@@QBEABHXZ
_TEXT	SEGMENT
??Dconst_iterator@?$vector@HV?$allocator@H@std@@@std@@QBEABHXZ PROC NEAR ; std::vector<int,std::allocator<int> >::const_iterator::operator*, COMDAT
; _this$ = ecx

; 80   : 
; 81   : 
; 82   : 			return (*_Myptr);

  00000	8b 01		 mov	 eax, DWORD PTR [ecx]

; 83   : 			}

  00002	c3		 ret	 0
??Dconst_iterator@?$vector@HV?$allocator@H@std@@@std@@QBEABHXZ ENDP ; std::vector<int,std::allocator<int> >::const_iterator::operator*
_TEXT	ENDS
PUBLIC	??8const_iterator@?$vector@HV?$allocator@H@std@@@std@@QBE_NABV012@@Z ; std::vector<int,std::allocator<int> >::const_iterator::operator==
; Function compile flags: /Ogty
;	COMDAT ??8const_iterator@?$vector@HV?$allocator@H@std@@@std@@QBE_NABV012@@Z
_TEXT	SEGMENT
__Right$ = 8						; size = 4
??8const_iterator@?$vector@HV?$allocator@H@std@@@std@@QBE_NABV012@@Z PROC NEAR ; std::vector<int,std::allocator<int> >::const_iterator::operator==, COMDAT
; _this$ = ecx

; 153  : 
; 154  : 
; 155  : 			return (_Myptr == _Right._Myptr);

  00000	8b 01		 mov	 eax, DWORD PTR [ecx]
  00002	8b 4c 24 04	 mov	 ecx, DWORD PTR __Right$[esp-4]
  00006	2b 01		 sub	 eax, DWORD PTR [ecx]
  00008	f7 d8		 neg	 eax
  0000a	1b c0		 sbb	 eax, eax
  0000c	40		 inc	 eax

; 156  : 			}

  0000d	c2 04 00	 ret	 4
??8const_iterator@?$vector@HV?$allocator@H@std@@@std@@QBE_NABV012@@Z ENDP ; std::vector<int,std::allocator<int> >::const_iterator::operator==
_TEXT	ENDS
PUBLIC	??Dconst_iterator@?$vector@PAVCLEComponent@@V?$allocator@PAVCLEComponent@@@std@@@std@@QBEABQAVCLEComponent@@XZ ; std::vector<CLEComponent *,std::allocator<CLEComponent *> >::const_iterator::operator*
; Function compile flags: /Ogty
;	COMDAT ??Dconst_iterator@?$vector@PAVCLEComponent@@V?$allocator@PAVCLEComponent@@@std@@@std@@QBEABQAVCLEComponent@@XZ
_TEXT	SEGMENT
??Dconst_iterator@?$vector@PAVCLEComponent@@V?$allocator@PAVCLEComponent@@@std@@@std@@QBEABQAVCLEComponent@@XZ PROC NEAR ; std::vector<CLEComponent *,std::allocator<CLEComponent *> >::const_iterator::operator*, COMDAT
; _this$ = ecx

; 80   : 
; 81   : 
; 82   : 			return (*_Myptr);

  00000	8b 01		 mov	 eax, DWORD PTR [ecx]

; 83   : 			}

  00002	c3		 ret	 0
??Dconst_iterator@?$vector@PAVCLEComponent@@V?$allocator@PAVCLEComponent@@@std@@@std@@QBEABQAVCLEComponent@@XZ ENDP ; std::vector<CLEComponent *,std::allocator<CLEComponent *> >::const_iterator::operator*
_TEXT	ENDS
PUBLIC	??8const_iterator@?$vector@PAVCLEComponent@@V?$allocator@PAVCLEComponent@@@std@@@std@@QBE_NABV012@@Z ; std::vector<CLEComponent *,std::allocator<CLEComponent *> >::const_iterator::operator==
; Function compile flags: /Ogty
;	COMDAT ??8const_iterator@?$vector@PAVCLEComponent@@V?$allocator@PAVCLEComponent@@@std@@@std@@QBE_NABV012@@Z
_TEXT	SEGMENT
__Right$ = 8						; size = 4
??8const_iterator@?$vector@PAVCLEComponent@@V?$allocator@PAVCLEComponent@@@std@@@std@@QBE_NABV012@@Z PROC NEAR ; std::vector<CLEComponent *,std::allocator<CLEComponent *> >::const_iterator::operator==, COMDAT
; _this$ = ecx

; 153  : 
; 154  : 
; 155  : 			return (_Myptr == _Right._Myptr);

  00000	8b 01		 mov	 eax, DWORD PTR [ecx]
  00002	8b 4c 24 04	 mov	 ecx, DWORD PTR __Right$[esp-4]
  00006	2b 01		 sub	 eax, DWORD PTR [ecx]
  00008	f7 d8		 neg	 eax
  0000a	1b c0		 sbb	 eax, eax
  0000c	40		 inc	 eax

; 156  : 			}

  0000d	c2 04 00	 ret	 4
??8const_iterator@?$vector@PAVCLEComponent@@V?$allocator@PAVCLEComponent@@@std@@@std@@QBE_NABV012@@Z ENDP ; std::vector<CLEComponent *,std::allocator<CLEComponent *> >::const_iterator::operator==
_TEXT	ENDS
PUBLIC	??Dconst_iterator@?$vector@PAVCLordSkillComponentExecutable@@V?$allocator@PAVCLordSkillComponentExecutable@@@std@@@std@@QBEABQAVCLordSkillComponentExecutable@@XZ ; std::vector<CLordSkillComponentExecutable *,std::allocator<CLordSkillComponentExecutable *> >::const_iterator::operator*
; Function compile flags: /Ogty
;	COMDAT ??Dconst_iterator@?$vector@PAVCLordSkillComponentExecutable@@V?$allocator@PAVCLordSkillComponentExecutable@@@std@@@std@@QBEABQAVCLordSkillComponentExecutable@@XZ
_TEXT	SEGMENT
??Dconst_iterator@?$vector@PAVCLordSkillComponentExecutable@@V?$allocator@PAVCLordSkillComponentExecutable@@@std@@@std@@QBEABQAVCLordSkillComponentExecutable@@XZ PROC NEAR ; std::vector<CLordSkillComponentExecutable *,std::allocator<CLordSkillComponentExecutable *> >::const_iterator::operator*, COMDAT
; _this$ = ecx

; 80   : 
; 81   : 
; 82   : 			return (*_Myptr);

  00000	8b 01		 mov	 eax, DWORD PTR [ecx]

; 83   : 			}

  00002	c3		 ret	 0
??Dconst_iterator@?$vector@PAVCLordSkillComponentExecutable@@V?$allocator@PAVCLordSkillComponentExecutable@@@std@@@std@@QBEABQAVCLordSkillComponentExecutable@@XZ ENDP ; std::vector<CLordSkillComponentExecutable *,std::allocator<CLordSkillComponentExecutable *> >::const_iterator::operator*
_TEXT	ENDS
PUBLIC	??8const_iterator@?$vector@PAVCLordSkillComponentExecutable@@V?$allocator@PAVCLordSkillComponentExecutable@@@std@@@std@@QBE_NABV012@@Z ; std::vector<CLordSkillComponentExecutable *,std::allocator<CLordSkillComponentExecutable *> >::const_iterator::operator==
; Function compile flags: /Ogty
;	COMDAT ??8const_iterator@?$vector@PAVCLordSkillComponentExecutable@@V?$allocator@PAVCLordSkillComponentExecutable@@@std@@@std@@QBE_NABV012@@Z
_TEXT	SEGMENT
__Right$ = 8						; size = 4
??8const_iterator@?$vector@PAVCLordSkillComponentExecutable@@V?$allocator@PAVCLordSkillComponentExecutable@@@std@@@std@@QBE_NABV012@@Z PROC NEAR ; std::vector<CLordSkillComponentExecutable *,std::allocator<CLordSkillComponentExecutable *> >::const_iterator::operator==, COMDAT
; _this$ = ecx

; 153  : 
; 154  : 
; 155  : 			return (_Myptr == _Right._Myptr);

  00000	8b 01		 mov	 eax, DWORD PTR [ecx]
  00002	8b 4c 24 04	 mov	 ecx, DWORD PTR __Right$[esp-4]
  00006	2b 01		 sub	 eax, DWORD PTR [ecx]
  00008	f7 d8		 neg	 eax
  0000a	1b c0		 sbb	 eax, eax
  0000c	40		 inc	 eax

; 156  : 			}

  0000d	c2 04 00	 ret	 4
??8const_iterator@?$vector@PAVCLordSkillComponentExecutable@@V?$allocator@PAVCLordSkillComponentExecutable@@@std@@@std@@QBE_NABV012@@Z ENDP ; std::vector<CLordSkillComponentExecutable *,std::allocator<CLordSkillComponentExecutable *> >::const_iterator::operator==
_TEXT	ENDS
PUBLIC	?StringCompare@?$ChTraitsCRT@D@ATL@@SAHPBD0@Z	; ATL::ChTraitsCRT<char>::StringCompare
EXTRN	__mbscmp:NEAR
; Function compile flags: /Ogty
; File c:\program files\microsoft visual studio .net 2003\vc7\atlmfc\include\cstringt.h
;	COMDAT ?StringCompare@?$ChTraitsCRT@D@ATL@@SAHPBD0@Z
_TEXT	SEGMENT
_pszA$ = 8						; size = 4
_pszB$ = 12						; size = 4
?StringCompare@?$ChTraitsCRT@D@ATL@@SAHPBD0@Z PROC NEAR	; ATL::ChTraitsCRT<char>::StringCompare, COMDAT

; 336  : 		return _mbscmp( reinterpret_cast< const unsigned char* >( pszA ), reinterpret_cast< const unsigned char* >( pszB ) );

  00000	e9 00 00 00 00	 jmp	 __mbscmp
?StringCompare@?$ChTraitsCRT@D@ATL@@SAHPBD0@Z ENDP	; ATL::ChTraitsCRT<char>::StringCompare
_TEXT	ENDS
PUBLIC	?deallocate@?$allocator@H@std@@QAEXPAHI@Z	; std::allocator<int>::deallocate
; Function compile flags: /Ogty
; File c:\program files\microsoft visual studio .net 2003\vc7\include\xmemory
;	COMDAT ?deallocate@?$allocator@H@std@@QAEXPAHI@Z
_TEXT	SEGMENT
__Ptr$ = 8						; size = 4
___formal$ = 12						; size = 4
?deallocate@?$allocator@H@std@@QAEXPAHI@Z PROC NEAR	; std::allocator<int>::deallocate, COMDAT
; _this$ = ecx

; 132  : 		operator delete(_Ptr);

  00000	8b 44 24 04	 mov	 eax, DWORD PTR __Ptr$[esp-4]
  00004	50		 push	 eax
  00005	e8 00 00 00 00	 call	 ??3@YAXPAX@Z		; operator delete
  0000a	59		 pop	 ecx

; 133  : 		}

  0000b	c2 08 00	 ret	 8
?deallocate@?$allocator@H@std@@QAEXPAHI@Z ENDP		; std::allocator<int>::deallocate
_TEXT	ENDS
PUBLIC	?deallocate@?$allocator@M@std@@QAEXPAMI@Z	; std::allocator<float>::deallocate
; Function compile flags: /Ogty
;	COMDAT ?deallocate@?$allocator@M@std@@QAEXPAMI@Z
_TEXT	SEGMENT
__Ptr$ = 8						; size = 4
___formal$ = 12						; size = 4
?deallocate@?$allocator@M@std@@QAEXPAMI@Z PROC NEAR	; std::allocator<float>::deallocate, COMDAT
; _this$ = ecx

; 132  : 		operator delete(_Ptr);

  00000	8b 44 24 04	 mov	 eax, DWORD PTR __Ptr$[esp-4]
  00004	50		 push	 eax
  00005	e8 00 00 00 00	 call	 ??3@YAXPAX@Z		; operator delete
  0000a	59		 pop	 ecx

; 133  : 		}

  0000b	c2 08 00	 ret	 8
?deallocate@?$allocator@M@std@@QAEXPAMI@Z ENDP		; std::allocator<float>::deallocate
_TEXT	ENDS
PUBLIC	??0const_iterator@?$vector@V?$shared_ptr@VCCandidate@@@boost@@V?$allocator@V?$shared_ptr@VCCandidate@@@boost@@@std@@@std@@QAE@PAV?$shared_ptr@VCCandidate@@@boost@@@Z ; std::vector<boost::shared_ptr<CCandidate>,std::allocator<boost::shared_ptr<CCandidate> > >::const_iterator::const_iterator
; Function compile flags: /Ogty
; File c:\program files\microsoft visual studio .net 2003\vc7\include\vector
;	COMDAT ??0const_iterator@?$vector@V?$shared_ptr@VCCandidate@@@boost@@V?$allocator@V?$shared_ptr@VCCandidate@@@boost@@@std@@@std@@QAE@PAV?$shared_ptr@VCCandidate@@@boost@@@Z
_TEXT	SEGMENT
__Ptr$ = 8						; size = 4
??0const_iterator@?$vector@V?$shared_ptr@VCCandidate@@@boost@@V?$allocator@V?$shared_ptr@VCCandidate@@@boost@@@std@@@std@@QAE@PAV?$shared_ptr@VCCandidate@@@boost@@@Z PROC NEAR ; std::vector<boost::shared_ptr<CCandidate>,std::allocator<boost::shared_ptr<CCandidate> > >::const_iterator::const_iterator, COMDAT
; _this$ = ecx

; 73   : 		const_iterator(_Tptr _Ptr)

  00000	8b c1		 mov	 eax, ecx

; 74   : 			{	// construct with pointer _Ptr
; 75   : 			_Myptr = _Ptr;

  00002	8b 4c 24 04	 mov	 ecx, DWORD PTR __Ptr$[esp-4]
  00006	89 08		 mov	 DWORD PTR [eax], ecx

; 76   : 			}

  00008	c2 04 00	 ret	 4
??0const_iterator@?$vector@V?$shared_ptr@VCCandidate@@@boost@@V?$allocator@V?$shared_ptr@VCCandidate@@@boost@@@std@@@std@@QAE@PAV?$shared_ptr@VCCandidate@@@boost@@@Z ENDP ; std::vector<boost::shared_ptr<CCandidate>,std::allocator<boost::shared_ptr<CCandidate> > >::const_iterator::const_iterator
_TEXT	ENDS
PUBLIC	??0const_iterator@?$vector@HV?$allocator@H@std@@@std@@QAE@PAH@Z ; std::vector<int,std::allocator<int> >::const_iterator::const_iterator
; Function compile flags: /Ogty
;	COMDAT ??0const_iterator@?$vector@HV?$allocator@H@std@@@std@@QAE@PAH@Z
_TEXT	SEGMENT
__Ptr$ = 8						; size = 4
??0const_iterator@?$vector@HV?$allocator@H@std@@@std@@QAE@PAH@Z PROC NEAR ; std::vector<int,std::allocator<int> >::const_iterator::const_iterator, COMDAT
; _this$ = ecx

; 73   : 		const_iterator(_Tptr _Ptr)

  00000	8b c1		 mov	 eax, ecx

; 74   : 			{	// construct with pointer _Ptr
; 75   : 			_Myptr = _Ptr;

  00002	8b 4c 24 04	 mov	 ecx, DWORD PTR __Ptr$[esp-4]
  00006	89 08		 mov	 DWORD PTR [eax], ecx

; 76   : 			}

  00008	c2 04 00	 ret	 4
??0const_iterator@?$vector@HV?$allocator@H@std@@@std@@QAE@PAH@Z ENDP ; std::vector<int,std::allocator<int> >::const_iterator::const_iterator
_TEXT	ENDS
PUBLIC	??0const_iterator@?$vector@PAVCLEComponent@@V?$allocator@PAVCLEComponent@@@std@@@std@@QAE@PAPAVCLEComponent@@@Z ; std::vector<CLEComponent *,std::allocator<CLEComponent *> >::const_iterator::const_iterator
; Function compile flags: /Ogty
;	COMDAT ??0const_iterator@?$vector@PAVCLEComponent@@V?$allocator@PAVCLEComponent@@@std@@@std@@QAE@PAPAVCLEComponent@@@Z
_TEXT	SEGMENT
__Ptr$ = 8						; size = 4
??0const_iterator@?$vector@PAVCLEComponent@@V?$allocator@PAVCLEComponent@@@std@@@std@@QAE@PAPAVCLEComponent@@@Z PROC NEAR ; std::vector<CLEComponent *,std::allocator<CLEComponent *> >::const_iterator::const_iterator, COMDAT
; _this$ = ecx

; 73   : 		const_iterator(_Tptr _Ptr)

  00000	8b c1		 mov	 eax, ecx

; 74   : 			{	// construct with pointer _Ptr
; 75   : 			_Myptr = _Ptr;

  00002	8b 4c 24 04	 mov	 ecx, DWORD PTR __Ptr$[esp-4]
  00006	89 08		 mov	 DWORD PTR [eax], ecx

; 76   : 			}

  00008	c2 04 00	 ret	 4
??0const_iterator@?$vector@PAVCLEComponent@@V?$allocator@PAVCLEComponent@@@std@@@std@@QAE@PAPAVCLEComponent@@@Z ENDP ; std::vector<CLEComponent *,std::allocator<CLEComponent *> >::const_iterator::const_iterator
_TEXT	ENDS
PUBLIC	??0const_iterator@?$vector@PAVCLordSkillComponentExecutable@@V?$allocator@PAVCLordSkillComponentExecutable@@@std@@@std@@QAE@PAPAVCLordSkillComponentExecutable@@@Z ; std::vector<CLordSkillComponentExecutable *,std::allocator<CLordSkillComponentExecutable *> >::const_iterator::const_iterator
; Function compile flags: /Ogty
;	COMDAT ??0const_iterator@?$vector@PAVCLordSkillComponentExecutable@@V?$allocator@PAVCLordSkillComponentExecutable@@@std@@@std@@QAE@PAPAVCLordSkillComponentExecutable@@@Z
_TEXT	SEGMENT
__Ptr$ = 8						; size = 4
??0const_iterator@?$vector@PAVCLordSkillComponentExecutable@@V?$allocator@PAVCLordSkillComponentExecutable@@@std@@@std@@QAE@PAPAVCLordSkillComponentExecutable@@@Z PROC NEAR ; std::vector<CLordSkillComponentExecutable *,std::allocator<CLordSkillComponentExecutable *> >::const_iterator::const_iterator, COMDAT
; _this$ = ecx

; 73   : 		const_iterator(_Tptr _Ptr)

  00000	8b c1		 mov	 eax, ecx

; 74   : 			{	// construct with pointer _Ptr
; 75   : 			_Myptr = _Ptr;

  00002	8b 4c 24 04	 mov	 ecx, DWORD PTR __Ptr$[esp-4]
  00006	89 08		 mov	 DWORD PTR [eax], ecx

; 76   : 			}

  00008	c2 04 00	 ret	 4
??0const_iterator@?$vector@PAVCLordSkillComponentExecutable@@V?$allocator@PAVCLordSkillComponentExecutable@@@std@@@std@@QAE@PAPAVCLordSkillComponentExecutable@@@Z ENDP ; std::vector<CLordSkillComponentExecutable *,std::allocator<CLordSkillComponentExecutable *> >::const_iterator::const_iterator
_TEXT	ENDS
PUBLIC	??Yiterator@?$vector@MV?$allocator@M@std@@@std@@QAEAAV012@H@Z ; std::vector<float,std::allocator<float> >::iterator::operator+=
; Function compile flags: /Ogty
;	COMDAT ??Yiterator@?$vector@MV?$allocator@M@std@@@std@@QAEAAV012@H@Z
_TEXT	SEGMENT
__Off$ = 8						; size = 4
??Yiterator@?$vector@MV?$allocator@M@std@@@std@@QAEAAV012@H@Z PROC NEAR ; std::vector<float,std::allocator<float> >::iterator::operator+=, COMDAT
; _this$ = ecx

; 255  : 			{	// increment by integer

  00000	8b c1		 mov	 eax, ecx

; 256  : 			this->_Myptr += _Off;

  00002	8b 4c 24 04	 mov	 ecx, DWORD PTR __Off$[esp-4]
  00006	8d 14 8d 00 00
	00 00		 lea	 edx, DWORD PTR [ecx*4]
  0000d	01 10		 add	 DWORD PTR [eax], edx

; 257  : 			return (*this);
; 258  : 			}

  0000f	c2 04 00	 ret	 4
??Yiterator@?$vector@MV?$allocator@M@std@@@std@@QAEAAV012@H@Z ENDP ; std::vector<float,std::allocator<float> >::iterator::operator+=
_TEXT	ENDS
PUBLIC	??Dconst_iterator@?$vector@MV?$allocator@M@std@@@std@@QBEABMXZ ; std::vector<float,std::allocator<float> >::const_iterator::operator*
; Function compile flags: /Ogty
;	COMDAT ??Dconst_iterator@?$vector@MV?$allocator@M@std@@@std@@QBEABMXZ
_TEXT	SEGMENT
??Dconst_iterator@?$vector@MV?$allocator@M@std@@@std@@QBEABMXZ PROC NEAR ; std::vector<float,std::allocator<float> >::const_iterator::operator*, COMDAT
; _this$ = ecx

; 80   : 
; 81   : 
; 82   : 			return (*_Myptr);

  00000	8b 01		 mov	 eax, DWORD PTR [ecx]

; 83   : 			}

  00002	c3		 ret	 0
??Dconst_iterator@?$vector@MV?$allocator@M@std@@@std@@QBEABMXZ ENDP ; std::vector<float,std::allocator<float> >::const_iterator::operator*
_TEXT	ENDS
PUBLIC	?max_size@?$allocator@H@std@@QBEIXZ		; std::allocator<int>::max_size
; Function compile flags: /Ogty
; File c:\program files\microsoft visual studio .net 2003\vc7\include\xmemory
;	COMDAT ?max_size@?$allocator@H@std@@QBEIXZ
_TEXT	SEGMENT
?max_size@?$allocator@H@std@@QBEIXZ PROC NEAR		; std::allocator<int>::max_size, COMDAT
; _this$ = ecx

; 157  : 		_SIZT _Count = (_SIZT)(-1) / sizeof (_Ty);
; 158  : 		return (0 < _Count ? _Count : 1);

  00000	b8 ff ff ff 3f	 mov	 eax, 1073741823		; 3fffffffH

; 159  : 		}

  00005	c3		 ret	 0
?max_size@?$allocator@H@std@@QBEIXZ ENDP		; std::allocator<int>::max_size
_TEXT	ENDS
PUBLIC	?max_size@?$allocator@M@std@@QBEIXZ		; std::allocator<float>::max_size
; Function compile flags: /Ogty
;	COMDAT ?max_size@?$allocator@M@std@@QBEIXZ
_TEXT	SEGMENT
?max_size@?$allocator@M@std@@QBEIXZ PROC NEAR		; std::allocator<float>::max_size, COMDAT
; _this$ = ecx

; 157  : 		_SIZT _Count = (_SIZT)(-1) / sizeof (_Ty);
; 158  : 		return (0 < _Count ? _Count : 1);

  00000	b8 ff ff ff 3f	 mov	 eax, 1073741823		; 3fffffffH

; 159  : 		}

  00005	c3		 ret	 0
?max_size@?$allocator@M@std@@QBEIXZ ENDP		; std::allocator<float>::max_size
_TEXT	ENDS
PUBLIC	??Yiterator@?$vector@HV?$allocator@H@std@@@std@@QAEAAV012@H@Z ; std::vector<int,std::allocator<int> >::iterator::operator+=
; Function compile flags: /Ogty
; File c:\program files\microsoft visual studio .net 2003\vc7\include\vector
;	COMDAT ??Yiterator@?$vector@HV?$allocator@H@std@@@std@@QAEAAV012@H@Z
_TEXT	SEGMENT
__Off$ = 8						; size = 4
??Yiterator@?$vector@HV?$allocator@H@std@@@std@@QAEAAV012@H@Z PROC NEAR ; std::vector<int,std::allocator<int> >::iterator::operator+=, COMDAT
; _this$ = ecx

; 255  : 			{	// increment by integer

  00000	8b c1		 mov	 eax, ecx

; 256  : 			this->_Myptr += _Off;

  00002	8b 4c 24 04	 mov	 ecx, DWORD PTR __Off$[esp-4]
  00006	8d 14 8d 00 00
	00 00		 lea	 edx, DWORD PTR [ecx*4]
  0000d	01 10		 add	 DWORD PTR [eax], edx

; 257  : 			return (*this);
; 258  : 			}

  0000f	c2 04 00	 ret	 4
??Yiterator@?$vector@HV?$allocator@H@std@@@std@@QAEAAV012@H@Z ENDP ; std::vector<int,std::allocator<int> >::iterator::operator+=
_TEXT	ENDS
PUBLIC	??Gconst_iterator@?$vector@HV?$allocator@H@std@@@std@@QBEHABV012@@Z ; std::vector<int,std::allocator<int> >::const_iterator::operator-
; Function compile flags: /Ogty
;	COMDAT ??Gconst_iterator@?$vector@HV?$allocator@H@std@@@std@@QBEHABV012@@Z
_TEXT	SEGMENT
__Right$ = 8						; size = 4
??Gconst_iterator@?$vector@HV?$allocator@H@std@@@std@@QBEHABV012@@Z PROC NEAR ; std::vector<int,std::allocator<int> >::const_iterator::operator-, COMDAT
; _this$ = ecx

; 141  : 
; 142  : 
; 143  : 			return (_Myptr - _Right._Myptr);

  00000	8b 01		 mov	 eax, DWORD PTR [ecx]
  00002	8b 4c 24 04	 mov	 ecx, DWORD PTR __Right$[esp-4]
  00006	2b 01		 sub	 eax, DWORD PTR [ecx]
  00008	c1 f8 02	 sar	 eax, 2

; 144  : 			}

  0000b	c2 04 00	 ret	 4
??Gconst_iterator@?$vector@HV?$allocator@H@std@@@std@@QBEHABV012@@Z ENDP ; std::vector<int,std::allocator<int> >::const_iterator::operator-
_TEXT	ENDS
PUBLIC	??0const_iterator@?$vector@MV?$allocator@M@std@@@std@@QAE@PAM@Z ; std::vector<float,std::allocator<float> >::const_iterator::const_iterator
; Function compile flags: /Ogty
;	COMDAT ??0const_iterator@?$vector@MV?$allocator@M@std@@@std@@QAE@PAM@Z
_TEXT	SEGMENT
__Ptr$ = 8						; size = 4
??0const_iterator@?$vector@MV?$allocator@M@std@@@std@@QAE@PAM@Z PROC NEAR ; std::vector<float,std::allocator<float> >::const_iterator::const_iterator, COMDAT
; _this$ = ecx

; 73   : 		const_iterator(_Tptr _Ptr)

  00000	8b c1		 mov	 eax, ecx

; 74   : 			{	// construct with pointer _Ptr
; 75   : 			_Myptr = _Ptr;

  00002	8b 4c 24 04	 mov	 ecx, DWORD PTR __Ptr$[esp-4]
  00006	89 08		 mov	 DWORD PTR [eax], ecx

; 76   : 			}

  00008	c2 04 00	 ret	 4
??0const_iterator@?$vector@MV?$allocator@M@std@@@std@@QAE@PAM@Z ENDP ; std::vector<float,std::allocator<float> >::const_iterator::const_iterator
_TEXT	ENDS
PUBLIC	??Gconst_iterator@?$vector@MV?$allocator@M@std@@@std@@QBEHABV012@@Z ; std::vector<float,std::allocator<float> >::const_iterator::operator-
; Function compile flags: /Ogty
;	COMDAT ??Gconst_iterator@?$vector@MV?$allocator@M@std@@@std@@QBEHABV012@@Z
_TEXT	SEGMENT
__Right$ = 8						; size = 4
??Gconst_iterator@?$vector@MV?$allocator@M@std@@@std@@QBEHABV012@@Z PROC NEAR ; std::vector<float,std::allocator<float> >::const_iterator::operator-, COMDAT
; _this$ = ecx

; 141  : 
; 142  : 
; 143  : 			return (_Myptr - _Right._Myptr);

  00000	8b 01		 mov	 eax, DWORD PTR [ecx]
  00002	8b 4c 24 04	 mov	 ecx, DWORD PTR __Right$[esp-4]
  00006	2b 01		 sub	 eax, DWORD PTR [ecx]
  00008	c1 f8 02	 sar	 eax, 2

; 144  : 			}

  0000b	c2 04 00	 ret	 4
??Gconst_iterator@?$vector@MV?$allocator@M@std@@@std@@QBEHABV012@@Z ENDP ; std::vector<float,std::allocator<float> >::const_iterator::operator-
_TEXT	ENDS
PUBLIC	??$_Allocate@H@std@@YAPAHIPAH@Z			; std::_Allocate<int>
; Function compile flags: /Ogty
; File c:\program files\microsoft visual studio .net 2003\vc7\include\xmemory
;	COMDAT ??$_Allocate@H@std@@YAPAHIPAH@Z
_TEXT	SEGMENT
__Count$ = 8						; size = 4
___formal$ = 12						; size = 4
??$_Allocate@H@std@@YAPAHIPAH@Z PROC NEAR		; std::_Allocate<int>, COMDAT

; 34   : 	return ((_Ty _FARQ *)operator new(_Count * sizeof (_Ty)));

  00000	8b 44 24 04	 mov	 eax, DWORD PTR __Count$[esp-4]
  00004	8d 0c 85 00 00
	00 00		 lea	 ecx, DWORD PTR [eax*4]
  0000b	51		 push	 ecx
  0000c	e8 00 00 00 00	 call	 ??2@YAPAXI@Z		; operator new
  00011	83 c4 04	 add	 esp, 4

; 35   : 	}

  00014	c3		 ret	 0
??$_Allocate@H@std@@YAPAHIPAH@Z ENDP			; std::_Allocate<int>
_TEXT	ENDS
PUBLIC	??$fill@PAMM@std@@YAXPAM0ABM@Z			; std::fill<float *,float>
; Function compile flags: /Ogty
; File c:\program files\microsoft visual studio .net 2003\vc7\include\xutility
;	COMDAT ??$fill@PAMM@std@@YAXPAM0ABM@Z
_TEXT	SEGMENT
__First$ = 8						; size = 4
__Last$ = 12						; size = 4
__Val$ = 16						; size = 4
??$fill@PAMM@std@@YAXPAM0ABM@Z PROC NEAR		; std::fill<float *,float>, COMDAT

; 1135 : 	for (; _First != _Last; ++_First)

  00000	8b 44 24 04	 mov	 eax, DWORD PTR __First$[esp-4]
  00004	8b 4c 24 08	 mov	 ecx, DWORD PTR __Last$[esp-4]
  00008	3b c1		 cmp	 eax, ecx
  0000a	74 11		 je	 SHORT $L205571
  0000c	8b 54 24 0c	 mov	 edx, DWORD PTR __Val$[esp-4]
  00010	56		 push	 esi
$L205569:

; 1136 : 		*_First = _Val;

  00011	8b 32		 mov	 esi, DWORD PTR [edx]
  00013	89 30		 mov	 DWORD PTR [eax], esi
  00015	83 c0 04	 add	 eax, 4
  00018	3b c1		 cmp	 eax, ecx
  0001a	75 f5		 jne	 SHORT $L205569
  0001c	5e		 pop	 esi
$L205571:

; 1137 : 	}

  0001d	c3		 ret	 0
??$fill@PAMM@std@@YAXPAM0ABM@Z ENDP			; std::fill<float *,float>
_TEXT	ENDS
PUBLIC	??$_Allocate@M@std@@YAPAMIPAM@Z			; std::_Allocate<float>
; Function compile flags: /Ogty
; File c:\program files\microsoft visual studio .net 2003\vc7\include\xmemory
;	COMDAT ??$_Allocate@M@std@@YAPAMIPAM@Z
_TEXT	SEGMENT
__Count$ = 8						; size = 4
___formal$ = 12						; size = 4
??$_Allocate@M@std@@YAPAMIPAM@Z PROC NEAR		; std::_Allocate<float>, COMDAT

; 34   : 	return ((_Ty _FARQ *)operator new(_Count * sizeof (_Ty)));

  00000	8b 44 24 04	 mov	 eax, DWORD PTR __Count$[esp-4]
  00004	8d 0c 85 00 00
	00 00		 lea	 ecx, DWORD PTR [eax*4]
  0000b	51		 push	 ecx
  0000c	e8 00 00 00 00	 call	 ??2@YAPAXI@Z		; operator new
  00011	83 c4 04	 add	 esp, 4

; 35   : 	}

  00014	c3		 ret	 0
??$_Allocate@M@std@@YAPAMIPAM@Z ENDP			; std::_Allocate<float>
_TEXT	ENDS
PUBLIC	??$fill@PAHH@std@@YAXPAH0ABH@Z			; std::fill<int *,int>
; Function compile flags: /Ogty
; File c:\program files\microsoft visual studio .net 2003\vc7\include\xutility
;	COMDAT ??$fill@PAHH@std@@YAXPAH0ABH@Z
_TEXT	SEGMENT
__First$ = 8						; size = 4
__Last$ = 12						; size = 4
__Val$ = 16						; size = 4
??$fill@PAHH@std@@YAXPAH0ABH@Z PROC NEAR		; std::fill<int *,int>, COMDAT

; 1135 : 	for (; _First != _Last; ++_First)

  00000	8b 44 24 04	 mov	 eax, DWORD PTR __First$[esp-4]
  00004	8b 4c 24 08	 mov	 ecx, DWORD PTR __Last$[esp-4]
  00008	3b c1		 cmp	 eax, ecx
  0000a	74 11		 je	 SHORT $L205625
  0000c	8b 54 24 0c	 mov	 edx, DWORD PTR __Val$[esp-4]
  00010	56		 push	 esi
$L205623:

; 1136 : 		*_First = _Val;

  00011	8b 32		 mov	 esi, DWORD PTR [edx]
  00013	89 30		 mov	 DWORD PTR [eax], esi
  00015	83 c0 04	 add	 eax, 4
  00018	3b c1		 cmp	 eax, ecx
  0001a	75 f5		 jne	 SHORT $L205623
  0001c	5e		 pop	 esi
$L205625:

; 1137 : 	}

  0001d	c3		 ret	 0
??$fill@PAHH@std@@YAXPAH0ABH@Z ENDP			; std::fill<int *,int>
_TEXT	ENDS
PUBLIC	??Eiterator@?$vector@V?$shared_ptr@VCCandidate@@@boost@@V?$allocator@V?$shared_ptr@VCCandidate@@@boost@@@std@@@std@@QAEAAV012@XZ ; std::vector<boost::shared_ptr<CCandidate>,std::allocator<boost::shared_ptr<CCandidate> > >::iterator::operator++
; Function compile flags: /Ogty
; File c:\program files\microsoft visual studio .net 2003\vc7\include\vector
;	COMDAT ??Eiterator@?$vector@V?$shared_ptr@VCCandidate@@@boost@@V?$allocator@V?$shared_ptr@VCCandidate@@@boost@@@std@@@std@@QAEAAV012@XZ
_TEXT	SEGMENT
??Eiterator@?$vector@V?$shared_ptr@VCCandidate@@@boost@@V?$allocator@V?$shared_ptr@VCCandidate@@@boost@@@std@@@std@@QAEAAV012@XZ PROC NEAR ; std::vector<boost::shared_ptr<CCandidate>,std::allocator<boost::shared_ptr<CCandidate> > >::iterator::operator++, COMDAT
; _this$ = ecx

; 229  : 			{	// preincrement

  00000	8b c1		 mov	 eax, ecx

; 230  : 			++this->_Myptr;

  00002	83 00 08	 add	 DWORD PTR [eax], 8

; 231  : 			return (*this);
; 232  : 			}

  00005	c3		 ret	 0
??Eiterator@?$vector@V?$shared_ptr@VCCandidate@@@boost@@V?$allocator@V?$shared_ptr@VCCandidate@@@boost@@@std@@@std@@QAEAAV012@XZ ENDP ; std::vector<boost::shared_ptr<CCandidate>,std::allocator<boost::shared_ptr<CCandidate> > >::iterator::operator++
_TEXT	ENDS
PUBLIC	??Dconst_iterator@?$vector@V?$shared_ptr@VCCandidate@@@boost@@V?$allocator@V?$shared_ptr@VCCandidate@@@boost@@@std@@@std@@QBEABV?$shared_ptr@VCCandidate@@@boost@@XZ ; std::vector<boost::shared_ptr<CCandidate>,std::allocator<boost::shared_ptr<CCandidate> > >::const_iterator::operator*
; Function compile flags: /Ogty
;	COMDAT ??Dconst_iterator@?$vector@V?$shared_ptr@VCCandidate@@@boost@@V?$allocator@V?$shared_ptr@VCCandidate@@@boost@@@std@@@std@@QBEABV?$shared_ptr@VCCandidate@@@boost@@XZ
_TEXT	SEGMENT
??Dconst_iterator@?$vector@V?$shared_ptr@VCCandidate@@@boost@@V?$allocator@V?$shared_ptr@VCCandidate@@@boost@@@std@@@std@@QBEABV?$shared_ptr@VCCandidate@@@boost@@XZ PROC NEAR ; std::vector<boost::shared_ptr<CCandidate>,std::allocator<boost::shared_ptr<CCandidate> > >::const_iterator::operator*, COMDAT
; _this$ = ecx

; 80   : 
; 81   : 
; 82   : 			return (*_Myptr);

  00000	8b 01		 mov	 eax, DWORD PTR [ecx]

; 83   : 			}

  00002	c3		 ret	 0
??Dconst_iterator@?$vector@V?$shared_ptr@VCCandidate@@@boost@@V?$allocator@V?$shared_ptr@VCCandidate@@@boost@@@std@@@std@@QBEABV?$shared_ptr@VCCandidate@@@boost@@XZ ENDP ; std::vector<boost::shared_ptr<CCandidate>,std::allocator<boost::shared_ptr<CCandidate> > >::const_iterator::operator*
_TEXT	ENDS
PUBLIC	??8const_iterator@?$vector@V?$shared_ptr@VCCandidate@@@boost@@V?$allocator@V?$shared_ptr@VCCandidate@@@boost@@@std@@@std@@QBE_NABV012@@Z ; std::vector<boost::shared_ptr<CCandidate>,std::allocator<boost::shared_ptr<CCandidate> > >::const_iterator::operator==
; Function compile flags: /Ogty
;	COMDAT ??8const_iterator@?$vector@V?$shared_ptr@VCCandidate@@@boost@@V?$allocator@V?$shared_ptr@VCCandidate@@@boost@@@std@@@std@@QBE_NABV012@@Z
_TEXT	SEGMENT
__Right$ = 8						; size = 4
??8const_iterator@?$vector@V?$shared_ptr@VCCandidate@@@boost@@V?$allocator@V?$shared_ptr@VCCandidate@@@boost@@@std@@@std@@QBE_NABV012@@Z PROC NEAR ; std::vector<boost::shared_ptr<CCandidate>,std::allocator<boost::shared_ptr<CCandidate> > >::const_iterator::operator==, COMDAT
; _this$ = ecx

; 153  : 
; 154  : 
; 155  : 			return (_Myptr == _Right._Myptr);

  00000	8b 01		 mov	 eax, DWORD PTR [ecx]
  00002	8b 4c 24 04	 mov	 ecx, DWORD PTR __Right$[esp-4]
  00006	2b 01		 sub	 eax, DWORD PTR [ecx]
  00008	f7 d8		 neg	 eax
  0000a	1b c0		 sbb	 eax, eax
  0000c	40		 inc	 eax

; 156  : 			}

  0000d	c2 04 00	 ret	 4
??8const_iterator@?$vector@V?$shared_ptr@VCCandidate@@@boost@@V?$allocator@V?$shared_ptr@VCCandidate@@@boost@@@std@@@std@@QBE_NABV012@@Z ENDP ; std::vector<boost::shared_ptr<CCandidate>,std::allocator<boost::shared_ptr<CCandidate> > >::const_iterator::operator==
_TEXT	ENDS
PUBLIC	??$_Destroy_range@MV?$allocator@M@std@@@std@@YAXPAM0AAV?$allocator@M@0@U_Scalar_ptr_iterator_tag@0@@Z ; std::_Destroy_range<float,std::allocator<float> >
; Function compile flags: /Ogty
; File c:\program files\microsoft visual studio .net 2003\vc7\include\xmemory
;	COMDAT ??$_Destroy_range@MV?$allocator@M@std@@@std@@YAXPAM0AAV?$allocator@M@0@U_Scalar_ptr_iterator_tag@0@@Z
_TEXT	SEGMENT
__First$ = 8						; size = 4
__Last$ = 12						; size = 4
__Al$ = 16						; size = 4
___formal$ = 20						; size = 1
??$_Destroy_range@MV?$allocator@M@std@@@std@@YAXPAM0AAV?$allocator@M@0@U_Scalar_ptr_iterator_tag@0@@Z PROC NEAR ; std::_Destroy_range<float,std::allocator<float> >, COMDAT

; 234  : 	}

  00000	c3		 ret	 0
??$_Destroy_range@MV?$allocator@M@std@@@std@@YAXPAM0AAV?$allocator@M@0@U_Scalar_ptr_iterator_tag@0@@Z ENDP ; std::_Destroy_range<float,std::allocator<float> >
_TEXT	ENDS
PUBLIC	??$_Copy_backward_opt@PAMPAM@std@@YAPAMPAM00U_Scalar_ptr_iterator_tag@0@@Z ; std::_Copy_backward_opt<float *,float *>
EXTRN	_memmove:NEAR
; Function compile flags: /Ogty
; File c:\program files\microsoft visual studio .net 2003\vc7\include\xutility
;	COMDAT ??$_Copy_backward_opt@PAMPAM@std@@YAPAMPAM00U_Scalar_ptr_iterator_tag@0@@Z
_TEXT	SEGMENT
__First$ = 8						; size = 4
__Last$ = 12						; size = 4
__Dest$ = 16						; size = 4
___formal$ = 20						; size = 1
??$_Copy_backward_opt@PAMPAM@std@@YAPAMPAM00U_Scalar_ptr_iterator_tag@0@@Z PROC NEAR ; std::_Copy_backward_opt<float *,float *>, COMDAT

; 1059 : 	ptrdiff_t _Off = _Last - _First;	// NB: non-overlapping move

  00000	8b 4c 24 04	 mov	 ecx, DWORD PTR __First$[esp-4]
  00004	8b 44 24 08	 mov	 eax, DWORD PTR __Last$[esp-4]
  00008	2b c1		 sub	 eax, ecx
  0000a	c1 f8 02	 sar	 eax, 2

; 1060 : 	return ((_OutIt)memmove(&*_Dest - _Off, &*_First,
; 1061 : 		_Off * sizeof (*_First)));

  0000d	c1 e0 02	 shl	 eax, 2
  00010	50		 push	 eax
  00011	51		 push	 ecx
  00012	8b 4c 24 14	 mov	 ecx, DWORD PTR __Dest$[esp+4]
  00016	2b c8		 sub	 ecx, eax
  00018	51		 push	 ecx
  00019	e8 00 00 00 00	 call	 _memmove
  0001e	83 c4 0c	 add	 esp, 12			; 0000000cH

; 1062 : 	}

  00021	c3		 ret	 0
??$_Copy_backward_opt@PAMPAM@std@@YAPAMPAM00U_Scalar_ptr_iterator_tag@0@@Z ENDP ; std::_Copy_backward_opt<float *,float *>
_TEXT	ENDS
PUBLIC	??$_Destroy_range@HV?$allocator@H@std@@@std@@YAXPAH0AAV?$allocator@H@0@U_Scalar_ptr_iterator_tag@0@@Z ; std::_Destroy_range<int,std::allocator<int> >
; Function compile flags: /Ogty
; File c:\program files\microsoft visual studio .net 2003\vc7\include\xmemory
;	COMDAT ??$_Destroy_range@HV?$allocator@H@std@@@std@@YAXPAH0AAV?$allocator@H@0@U_Scalar_ptr_iterator_tag@0@@Z
_TEXT	SEGMENT
__First$ = 8						; size = 4
__Last$ = 12						; size = 4
__Al$ = 16						; size = 4
___formal$ = 20						; size = 1
??$_Destroy_range@HV?$allocator@H@std@@@std@@YAXPAH0AAV?$allocator@H@0@U_Scalar_ptr_iterator_tag@0@@Z PROC NEAR ; std::_Destroy_range<int,std::allocator<int> >, COMDAT

; 234  : 	}

  00000	c3		 ret	 0
??$_Destroy_range@HV?$allocator@H@std@@@std@@YAXPAH0AAV?$allocator@H@0@U_Scalar_ptr_iterator_tag@0@@Z ENDP ; std::_Destroy_range<int,std::allocator<int> >
_TEXT	ENDS
PUBLIC	??$_Copy_backward_opt@PAHPAH@std@@YAPAHPAH00U_Scalar_ptr_iterator_tag@0@@Z ; std::_Copy_backward_opt<int *,int *>
; Function compile flags: /Ogty
; File c:\program files\microsoft visual studio .net 2003\vc7\include\xutility
;	COMDAT ??$_Copy_backward_opt@PAHPAH@std@@YAPAHPAH00U_Scalar_ptr_iterator_tag@0@@Z
_TEXT	SEGMENT
__First$ = 8						; size = 4
__Last$ = 12						; size = 4
__Dest$ = 16						; size = 4
___formal$ = 20						; size = 1
??$_Copy_backward_opt@PAHPAH@std@@YAPAHPAH00U_Scalar_ptr_iterator_tag@0@@Z PROC NEAR ; std::_Copy_backward_opt<int *,int *>, COMDAT

; 1059 : 	ptrdiff_t _Off = _Last - _First;	// NB: non-overlapping move

  00000	8b 4c 24 04	 mov	 ecx, DWORD PTR __First$[esp-4]
  00004	8b 44 24 08	 mov	 eax, DWORD PTR __Last$[esp-4]
  00008	2b c1		 sub	 eax, ecx
  0000a	c1 f8 02	 sar	 eax, 2

; 1060 : 	return ((_OutIt)memmove(&*_Dest - _Off, &*_First,
; 1061 : 		_Off * sizeof (*_First)));

  0000d	c1 e0 02	 shl	 eax, 2
  00010	50		 push	 eax
  00011	51		 push	 ecx
  00012	8b 4c 24 14	 mov	 ecx, DWORD PTR __Dest$[esp+4]
  00016	2b c8		 sub	 ecx, eax
  00018	51		 push	 ecx
  00019	e8 00 00 00 00	 call	 _memmove
  0001e	83 c4 0c	 add	 esp, 12			; 0000000cH

; 1062 : 	}

  00021	c3		 ret	 0
??$_Copy_backward_opt@PAHPAH@std@@YAPAHPAH00U_Scalar_ptr_iterator_tag@0@@Z ENDP ; std::_Copy_backward_opt<int *,int *>
_TEXT	ENDS
PUBLIC	??$fill_n@PAMIM@std@@YAXPAMIABM@Z		; std::fill_n<float *,unsigned int,float>
; Function compile flags: /Ogty
;	COMDAT ??$fill_n@PAMIM@std@@YAXPAMIABM@Z
_TEXT	SEGMENT
__First$ = 8						; size = 4
__Count$ = 12						; size = 4
__Val$ = 16						; size = 4
??$fill_n@PAMIM@std@@YAXPAMIABM@Z PROC NEAR		; std::fill_n<float *,unsigned int,float>, COMDAT

; 1160 : 	for (; 0 < _Count; --_Count, ++_First)

  00000	8b 4c 24 08	 mov	 ecx, DWORD PTR __Count$[esp-4]
  00004	85 c9		 test	 ecx, ecx
  00006	76 14		 jbe	 SHORT $L205783
  00008	8b 54 24 0c	 mov	 edx, DWORD PTR __Val$[esp-4]
  0000c	8b 44 24 04	 mov	 eax, DWORD PTR __First$[esp-4]
  00010	56		 push	 esi
$L205781:

; 1161 : 		*_First = _Val;

  00011	8b 32		 mov	 esi, DWORD PTR [edx]
  00013	89 30		 mov	 DWORD PTR [eax], esi
  00015	83 c0 04	 add	 eax, 4
  00018	49		 dec	 ecx
  00019	75 f6		 jne	 SHORT $L205781
  0001b	5e		 pop	 esi
$L205783:

; 1162 : 	}

  0001c	c3		 ret	 0
??$fill_n@PAMIM@std@@YAXPAMIABM@Z ENDP			; std::fill_n<float *,unsigned int,float>
_TEXT	ENDS
PUBLIC	??$fill_n@PAHIH@std@@YAXPAHIABH@Z		; std::fill_n<int *,unsigned int,int>
; Function compile flags: /Ogty
;	COMDAT ??$fill_n@PAHIH@std@@YAXPAHIABH@Z
_TEXT	SEGMENT
__First$ = 8						; size = 4
__Count$ = 12						; size = 4
__Val$ = 16						; size = 4
??$fill_n@PAHIH@std@@YAXPAHIABH@Z PROC NEAR		; std::fill_n<int *,unsigned int,int>, COMDAT

; 1160 : 	for (; 0 < _Count; --_Count, ++_First)

  00000	8b 4c 24 08	 mov	 ecx, DWORD PTR __Count$[esp-4]
  00004	85 c9		 test	 ecx, ecx
  00006	76 14		 jbe	 SHORT $L205787
  00008	8b 54 24 0c	 mov	 edx, DWORD PTR __Val$[esp-4]
  0000c	8b 44 24 04	 mov	 eax, DWORD PTR __First$[esp-4]
  00010	56		 push	 esi
$L205785:

; 1161 : 		*_First = _Val;

  00011	8b 32		 mov	 esi, DWORD PTR [edx]
  00013	89 30		 mov	 DWORD PTR [eax], esi
  00015	83 c0 04	 add	 eax, 4
  00018	49		 dec	 ecx
  00019	75 f6		 jne	 SHORT $L205785
  0001b	5e		 pop	 esi
$L205787:

; 1162 : 	}

  0001c	c3		 ret	 0
??$fill_n@PAHIH@std@@YAXPAHIABH@Z ENDP			; std::fill_n<int *,unsigned int,int>
_TEXT	ENDS
PUBLIC	??$_Uninit_copy@MM@std@@YAPAMPAM00AAV?$allocator@M@0@U_Scalar_ptr_iterator_tag@0@@Z ; std::_Uninit_copy<float,float>
; Function compile flags: /Ogty
; File c:\program files\microsoft visual studio .net 2003\vc7\include\memory
;	COMDAT ??$_Uninit_copy@MM@std@@YAPAMPAM00AAV?$allocator@M@0@U_Scalar_ptr_iterator_tag@0@@Z
_TEXT	SEGMENT
__First$ = 8						; size = 4
__Last$ = 12						; size = 4
__Dest$ = 16						; size = 4
___formal$ = 20						; size = 4
___formal$ = 24						; size = 1
??$_Uninit_copy@MM@std@@YAPAMPAM00AAV?$allocator@M@0@U_Scalar_ptr_iterator_tag@0@@Z PROC NEAR ; std::_Uninit_copy<float,float>, COMDAT

; 106  : 	size_t _Count = (size_t)(_Last - _First);

  00000	8b 4c 24 04	 mov	 ecx, DWORD PTR __First$[esp-4]
  00004	8b 44 24 08	 mov	 eax, DWORD PTR __Last$[esp-4]
  00008	2b c1		 sub	 eax, ecx
  0000a	56		 push	 esi
  0000b	c1 f8 02	 sar	 eax, 2

; 107  : 	return ((_Ty2 *)memmove(&*_Dest, &*_First,
; 108  : 		_Count * sizeof (*_First)) + _Count);	// NB: non-overlapping move

  0000e	8d 34 85 00 00
	00 00		 lea	 esi, DWORD PTR [eax*4]
  00015	8b 44 24 10	 mov	 eax, DWORD PTR __Dest$[esp]
  00019	56		 push	 esi
  0001a	51		 push	 ecx
  0001b	50		 push	 eax
  0001c	e8 00 00 00 00	 call	 _memmove
  00021	83 c4 0c	 add	 esp, 12			; 0000000cH
  00024	03 c6		 add	 eax, esi
  00026	5e		 pop	 esi

; 109  : 	}

  00027	c3		 ret	 0
??$_Uninit_copy@MM@std@@YAPAMPAM00AAV?$allocator@M@0@U_Scalar_ptr_iterator_tag@0@@Z ENDP ; std::_Uninit_copy<float,float>
_TEXT	ENDS
PUBLIC	??$_Uninit_copy@HH@std@@YAPAHPAH00AAV?$allocator@H@0@U_Scalar_ptr_iterator_tag@0@@Z ; std::_Uninit_copy<int,int>
; Function compile flags: /Ogty
;	COMDAT ??$_Uninit_copy@HH@std@@YAPAHPAH00AAV?$allocator@H@0@U_Scalar_ptr_iterator_tag@0@@Z
_TEXT	SEGMENT
__First$ = 8						; size = 4
__Last$ = 12						; size = 4
__Dest$ = 16						; size = 4
___formal$ = 20						; size = 4
___formal$ = 24						; size = 1
??$_Uninit_copy@HH@std@@YAPAHPAH00AAV?$allocator@H@0@U_Scalar_ptr_iterator_tag@0@@Z PROC NEAR ; std::_Uninit_copy<int,int>, COMDAT

; 106  : 	size_t _Count = (size_t)(_Last - _First);

  00000	8b 4c 24 04	 mov	 ecx, DWORD PTR __First$[esp-4]
  00004	8b 44 24 08	 mov	 eax, DWORD PTR __Last$[esp-4]
  00008	2b c1		 sub	 eax, ecx
  0000a	56		 push	 esi
  0000b	c1 f8 02	 sar	 eax, 2

; 107  : 	return ((_Ty2 *)memmove(&*_Dest, &*_First,
; 108  : 		_Count * sizeof (*_First)) + _Count);	// NB: non-overlapping move

  0000e	8d 34 85 00 00
	00 00		 lea	 esi, DWORD PTR [eax*4]
  00015	8b 44 24 10	 mov	 eax, DWORD PTR __Dest$[esp]
  00019	56		 push	 esi
  0001a	51		 push	 ecx
  0001b	50		 push	 eax
  0001c	e8 00 00 00 00	 call	 _memmove
  00021	83 c4 0c	 add	 esp, 12			; 0000000cH
  00024	03 c6		 add	 eax, esi
  00026	5e		 pop	 esi

; 109  : 	}

  00027	c3		 ret	 0
??$_Uninit_copy@HH@std@@YAPAHPAH00AAV?$allocator@H@0@U_Scalar_ptr_iterator_tag@0@@Z ENDP ; std::_Uninit_copy<int,int>
_TEXT	ENDS
PUBLIC	?assign@?$char_traits@D@std@@SAXAADABD@Z	; std::char_traits<char>::assign
; Function compile flags: /Ogty
; File c:\program files\microsoft visual studio .net 2003\vc7\include\iosfwd
;	COMDAT ?assign@?$char_traits@D@std@@SAXAADABD@Z
_TEXT	SEGMENT
__Left$ = 8						; size = 4
__Right$ = 12						; size = 4
?assign@?$char_traits@D@std@@SAXAADABD@Z PROC NEAR	; std::char_traits<char>::assign, COMDAT

; 331  : 		_Left = _Right;

  00000	8b 44 24 08	 mov	 eax, DWORD PTR __Right$[esp-4]
  00004	8a 08		 mov	 cl, BYTE PTR [eax]
  00006	8b 54 24 04	 mov	 edx, DWORD PTR __Left$[esp-4]
  0000a	88 0a		 mov	 BYTE PTR [edx], cl

; 332  : 		}

  0000c	c3		 ret	 0
?assign@?$char_traits@D@std@@SAXAADABD@Z ENDP		; std::char_traits<char>::assign
_TEXT	ENDS
PUBLIC	?length@?$char_traits@D@std@@SAIPBD@Z		; std::char_traits<char>::length
; Function compile flags: /Ogty
;	COMDAT ?length@?$char_traits@D@std@@SAIPBD@Z
_TEXT	SEGMENT
__First$ = 8						; size = 4
?length@?$char_traits@D@std@@SAIPBD@Z PROC NEAR		; std::char_traits<char>::length, COMDAT

; 352  : 		return (::strlen(_First));

  00000	8b 44 24 04	 mov	 eax, DWORD PTR __First$[esp-4]
  00004	8d 50 01	 lea	 edx, DWORD PTR [eax+1]
$L206821:
  00007	8a 08		 mov	 cl, BYTE PTR [eax]
  00009	40		 inc	 eax
  0000a	84 c9		 test	 cl, cl
  0000c	75 f9		 jne	 SHORT $L206821
  0000e	2b c2		 sub	 eax, edx

; 353  : 		}

  00010	c3		 ret	 0
?length@?$char_traits@D@std@@SAIPBD@Z ENDP		; std::char_traits<char>::length
_TEXT	ENDS
PUBLIC	?copy@?$char_traits@D@std@@SAPADPADPBDI@Z	; std::char_traits<char>::copy
; Function compile flags: /Ogty
;	COMDAT ?copy@?$char_traits@D@std@@SAPADPADPBDI@Z
_TEXT	SEGMENT
__First1$ = 8						; size = 4
__First2$ = 12						; size = 4
__Count$ = 16						; size = 4
?copy@?$char_traits@D@std@@SAPADPADPBDI@Z PROC NEAR	; std::char_traits<char>::copy, COMDAT

; 358  : 		return ((_Elem *)::memcpy(_First1, _First2, _Count));

  00000	8b 4c 24 0c	 mov	 ecx, DWORD PTR __Count$[esp-4]
  00004	56		 push	 esi
  00005	8b 74 24 0c	 mov	 esi, DWORD PTR __First2$[esp]
  00009	57		 push	 edi
  0000a	8b 7c 24 0c	 mov	 edi, DWORD PTR __First1$[esp+4]
  0000e	8b c1		 mov	 eax, ecx
  00010	8b d7		 mov	 edx, edi
  00012	c1 e9 02	 shr	 ecx, 2
  00015	f3 a5		 rep movsd
  00017	8b c8		 mov	 ecx, eax
  00019	83 e1 03	 and	 ecx, 3
  0001c	f3 a4		 rep movsb
  0001e	5f		 pop	 edi
  0001f	8b c2		 mov	 eax, edx
  00021	5e		 pop	 esi

; 359  : 		}

  00022	c3		 ret	 0
?copy@?$char_traits@D@std@@SAPADPADPBDI@Z ENDP		; std::char_traits<char>::copy
_TEXT	ENDS
PUBLIC	?move@?$char_traits@D@std@@SAPADPADPBDI@Z	; std::char_traits<char>::move
; Function compile flags: /Ogty
;	COMDAT ?move@?$char_traits@D@std@@SAPADPADPBDI@Z
_TEXT	SEGMENT
__First1$ = 8						; size = 4
__First2$ = 12						; size = 4
__Count$ = 16						; size = 4
?move@?$char_traits@D@std@@SAPADPADPBDI@Z PROC NEAR	; std::char_traits<char>::move, COMDAT

; 370  : 		return ((_Elem *)::memmove(_First1, _First2, _Count));

  00000	e9 00 00 00 00	 jmp	 _memmove
?move@?$char_traits@D@std@@SAPADPADPBDI@Z ENDP		; std::char_traits<char>::move
_TEXT	ENDS
PUBLIC	?_Ptr_cat@std@@YA?AU_Scalar_ptr_iterator_tag@1@PAH0@Z ; std::_Ptr_cat
; Function compile flags: /Ogty
; File c:\program files\microsoft visual studio .net 2003\vc7\include\xutility
;	COMDAT ?_Ptr_cat@std@@YA?AU_Scalar_ptr_iterator_tag@1@PAH0@Z
_TEXT	SEGMENT
__Cat$ = -1						; size = 1
___formal$ = 8						; size = 4
___formal$ = 12						; size = 4
?_Ptr_cat@std@@YA?AU_Scalar_ptr_iterator_tag@1@PAH0@Z PROC NEAR ; std::_Ptr_cat, COMDAT

; 335  : 	{	// return pointer category from pointer to int arguments

  00000	51		 push	 ecx

; 336  : 	_Scalar_ptr_iterator_tag _Cat;
; 337  : 	return (_Cat);

  00001	8a 44 24 03	 mov	 al, BYTE PTR __Cat$[esp+4]

; 338  : 	}

  00005	59		 pop	 ecx
  00006	c3		 ret	 0
?_Ptr_cat@std@@YA?AU_Scalar_ptr_iterator_tag@1@PAH0@Z ENDP ; std::_Ptr_cat
_TEXT	ENDS
PUBLIC	?_Ptr_cat@std@@YA?AU_Scalar_ptr_iterator_tag@1@PAM0@Z ; std::_Ptr_cat
; Function compile flags: /Ogty
;	COMDAT ?_Ptr_cat@std@@YA?AU_Scalar_ptr_iterator_tag@1@PAM0@Z
_TEXT	SEGMENT
__Cat$ = -1						; size = 1
___formal$ = 8						; size = 4
___formal$ = 12						; size = 4
?_Ptr_cat@std@@YA?AU_Scalar_ptr_iterator_tag@1@PAM0@Z PROC NEAR ; std::_Ptr_cat, COMDAT

; 384  : 	{	// return pointer category from pointer to float arguments

  00000	51		 push	 ecx

; 385  : 	_Scalar_ptr_iterator_tag _Cat;
; 386  : 	return (_Cat);

  00001	8a 44 24 03	 mov	 al, BYTE PTR __Cat$[esp+4]

; 387  : 	}

  00005	59		 pop	 ecx
  00006	c3		 ret	 0
?_Ptr_cat@std@@YA?AU_Scalar_ptr_iterator_tag@1@PAM0@Z ENDP ; std::_Ptr_cat
_TEXT	ENDS
PUBLIC	?Enter@CMclCritSec@@QAEXXZ			; CMclCritSec::Enter
EXTRN	__imp__EnterCriticalSection@4:NEAR
; Function compile flags: /Ogty
; File c:\documents and settings\test\mes documents\source\virtuos_v17\build\program\_network\mcl\include\cmclcritsec.h
;	COMDAT ?Enter@CMclCritSec@@QAEXXZ
_TEXT	SEGMENT
?Enter@CMclCritSec@@QAEXXZ PROC NEAR			; CMclCritSec::Enter, COMDAT
; _this$ = ecx

; 33   : 		::EnterCriticalSection( &m_CritSec );

  00000	83 c1 04	 add	 ecx, 4
  00003	51		 push	 ecx
  00004	ff 15 00 00 00
	00		 call	 DWORD PTR __imp__EnterCriticalSection@4

; 34   : 	}

  0000a	c3		 ret	 0
?Enter@CMclCritSec@@QAEXXZ ENDP				; CMclCritSec::Enter
_TEXT	ENDS
PUBLIC	?Leave@CMclCritSec@@QAEXXZ			; CMclCritSec::Leave
EXTRN	__imp__LeaveCriticalSection@4:NEAR
; Function compile flags: /Ogty
;	COMDAT ?Leave@CMclCritSec@@QAEXXZ
_TEXT	SEGMENT
?Leave@CMclCritSec@@QAEXXZ PROC NEAR			; CMclCritSec::Leave, COMDAT
; _this$ = ecx

; 39   : 		::LeaveCriticalSection( &m_CritSec );

  00000	83 c1 04	 add	 ecx, 4
  00003	51		 push	 ecx
  00004	ff 15 00 00 00
	00		 call	 DWORD PTR __imp__LeaveCriticalSection@4

; 40   : 	}

  0000a	c3		 ret	 0
?Leave@CMclCritSec@@QAEXXZ ENDP				; CMclCritSec::Leave
_TEXT	ENDS
PUBLIC	??0CMclAutoLock@@QAE@AAVCMclCritSec@@@Z		; CMclAutoLock::CMclAutoLock
; Function compile flags: /Ogty
; File c:\documents and settings\test\mes documents\source\virtuos_v17\build\program\_network\mcl\include\cmclautolock.h
;	COMDAT ??0CMclAutoLock@@QAE@AAVCMclCritSec@@@Z
_TEXT	SEGMENT
_rCMclCritSec$ = 8					; size = 4
??0CMclAutoLock@@QAE@AAVCMclCritSec@@@Z PROC NEAR	; CMclAutoLock::CMclAutoLock, COMDAT
; _this$ = ecx

; 20   : 	{
; 21   : 		m_pcCritSec = &rCMclCritSec;

  00000	8b 44 24 04	 mov	 eax, DWORD PTR _rCMclCritSec$[esp-4]
  00004	56		 push	 esi
  00005	8b f1		 mov	 esi, ecx
  00007	89 06		 mov	 DWORD PTR [esi], eax

; 22   : 		m_pcCritSec->Enter();

  00009	83 c0 04	 add	 eax, 4
  0000c	50		 push	 eax
  0000d	ff 15 00 00 00
	00		 call	 DWORD PTR __imp__EnterCriticalSection@4

; 23   : 	}

  00013	8b c6		 mov	 eax, esi
  00015	5e		 pop	 esi
  00016	c2 04 00	 ret	 4
??0CMclAutoLock@@QAE@AAVCMclCritSec@@@Z ENDP		; CMclAutoLock::CMclAutoLock
_TEXT	ENDS
PUBLIC	??1CMclAutoLock@@QAE@XZ				; CMclAutoLock::~CMclAutoLock
; Function compile flags: /Ogty
;	COMDAT ??1CMclAutoLock@@QAE@XZ
_TEXT	SEGMENT
??1CMclAutoLock@@QAE@XZ PROC NEAR			; CMclAutoLock::~CMclAutoLock, COMDAT
; _this$ = ecx

; 28   : 		m_pcCritSec->Leave();

  00000	8b 01		 mov	 eax, DWORD PTR [ecx]
  00002	83 c0 04	 add	 eax, 4
  00005	50		 push	 eax
  00006	ff 15 00 00 00
	00		 call	 DWORD PTR __imp__LeaveCriticalSection@4

; 29   : 	}

  0000c	c3		 ret	 0
??1CMclAutoLock@@QAE@XZ ENDP				; CMclAutoLock::~CMclAutoLock
_TEXT	ENDS
PUBLIC	?time_null@@YAJXZ				; time_null
EXTRN	_time:NEAR
; Function compile flags: /Ogty
; File c:\documents and settings\test\mes documents\source\virtuos_v17\build\program\_network\cmnhdr.h
;	COMDAT ?time_null@@YAJXZ
_TEXT	SEGMENT
?time_null@@YAJXZ PROC NEAR				; time_null, COMDAT

; 702  : #if defined(__WORLDSERVER) || defined(__CLIENT)
; 703  : 	return	g_tCurrent;
; 704  : #else	//
; 705  : 	return time( NULL );

  00000	6a 00		 push	 0
  00002	e8 00 00 00 00	 call	 _time
  00007	83 c4 04	 add	 esp, 4

; 706  : #endif	//
; 707  : }

  0000a	c3		 ret	 0
?time_null@@YAJXZ ENDP					; time_null
_TEXT	ENDS
PUBLIC	?xRand@@YAKXZ					; xRand
EXTRN	?g_next@@3KA:DWORD				; g_next
; Function compile flags: /Ogty
; File c:\documents and settings\test\mes documents\source\virtuos_v17\build\program\_common\xutil.h
;	COMDAT ?xRand@@YAKXZ
_TEXT	SEGMENT
?xRand@@YAKXZ PROC NEAR					; xRand, COMDAT

; 16   : 	g_next = g_next * 1103515245 + 12345;// + nRandomSeed[ i++ ];

  00000	a1 00 00 00 00	 mov	 eax, DWORD PTR ?g_next@@3KA ; g_next
  00005	69 c0 6d 4e c6
	41		 imul	 eax, 1103515245		; 41c64e6dH
  0000b	05 39 30 00 00	 add	 eax, 12345		; 00003039H
  00010	a3 00 00 00 00	 mov	 DWORD PTR ?g_next@@3KA, eax ; g_next

; 17   : 	return g_next;	//   .
; 18   : }

  00015	c3		 ret	 0
?xRand@@YAKXZ ENDP					; xRand
_TEXT	ENDS
PUBLIC	??5CAr@@QAEAAV0@AAK@Z				; CAr::operator>>
; Function compile flags: /Ogty
; File c:\documents and settings\test\mes documents\source\virtuos_v17\build\program\_network\misc\include\ar.h
;	COMDAT ??5CAr@@QAEAAV0@AAK@Z
_TEXT	SEGMENT
_dw$ = 8						; size = 4
??5CAr@@QAEAAV0@AAK@Z PROC NEAR				; CAr::operator>>, COMDAT
; _this$ = ecx

; 146  : 	{	CAR_SAFE_READ( DWORD, dw );	}

  00000	8b c1		 mov	 eax, ecx
  00002	8b 48 08	 mov	 ecx, DWORD PTR [eax+8]
  00005	56		 push	 esi
  00006	8b 70 0c	 mov	 esi, DWORD PTR [eax+12]
  00009	8d 51 04	 lea	 edx, DWORD PTR [ecx+4]
  0000c	3b d6		 cmp	 edx, esi
  0000e	5e		 pop	 esi
  0000f	77 0f		 ja	 SHORT $L162868
  00011	8b 09		 mov	 ecx, DWORD PTR [ecx]
  00013	8b 54 24 04	 mov	 edx, DWORD PTR _dw$[esp-4]
  00017	89 0a		 mov	 DWORD PTR [edx], ecx
  00019	83 40 08 04	 add	 DWORD PTR [eax+8], 4
  0001d	c2 04 00	 ret	 4
$L162868:
  00020	8b 4c 24 04	 mov	 ecx, DWORD PTR _dw$[esp-4]
  00024	c7 01 00 00 00
	00		 mov	 DWORD PTR [ecx], 0
  0002a	8b 50 0c	 mov	 edx, DWORD PTR [eax+12]
  0002d	89 50 08	 mov	 DWORD PTR [eax+8], edx
  00030	c2 04 00	 ret	 4
??5CAr@@QAEAAV0@AAK@Z ENDP				; CAr::operator>>
_TEXT	ENDS
PUBLIC	??5CAr@@QAEAAV0@AAJ@Z				; CAr::operator>>
; Function compile flags: /Ogty
;	COMDAT ??5CAr@@QAEAAV0@AAJ@Z
_TEXT	SEGMENT
_l$ = 8							; size = 4
??5CAr@@QAEAAV0@AAJ@Z PROC NEAR				; CAr::operator>>, COMDAT
; _this$ = ecx

; 152  : 	{	CAR_SAFE_READ( LONG, l );	}

  00000	8b c1		 mov	 eax, ecx
  00002	8b 48 08	 mov	 ecx, DWORD PTR [eax+8]
  00005	56		 push	 esi
  00006	8b 70 0c	 mov	 esi, DWORD PTR [eax+12]
  00009	8d 51 04	 lea	 edx, DWORD PTR [ecx+4]
  0000c	3b d6		 cmp	 edx, esi
  0000e	5e		 pop	 esi
  0000f	77 0f		 ja	 SHORT $L162898
  00011	8b 09		 mov	 ecx, DWORD PTR [ecx]
  00013	8b 54 24 04	 mov	 edx, DWORD PTR _l$[esp-4]
  00017	89 0a		 mov	 DWORD PTR [edx], ecx
  00019	83 40 08 04	 add	 DWORD PTR [eax+8], 4
  0001d	c2 04 00	 ret	 4
$L162898:
  00020	8b 4c 24 04	 mov	 ecx, DWORD PTR _l$[esp-4]
  00024	c7 01 00 00 00
	00		 mov	 DWORD PTR [ecx], 0
  0002a	8b 50 0c	 mov	 edx, DWORD PTR [eax+12]
  0002d	89 50 08	 mov	 DWORD PTR [eax+8], edx
  00030	c2 04 00	 ret	 4
??5CAr@@QAEAAV0@AAJ@Z ENDP				; CAr::operator>>
_TEXT	ENDS
PUBLIC	??5@YAAAVCAr@@AAV0@AA_J@Z			; operator>>
EXTRN	?Read@CAr@@QAEXPAXI@Z:NEAR			; CAr::Read
; Function compile flags: /Ogty
;	COMDAT ??5@YAAAVCAr@@AAV0@AA_J@Z
_TEXT	SEGMENT
_ar$ = 8						; size = 4
_i$ = 12						; size = 4
??5@YAAAVCAr@@AAV0@AA_J@Z PROC NEAR			; operator>>, COMDAT

; 166  : 	{	ar.Read( &i, sizeof(__int64) );	return ar;	}

  00000	8b 44 24 08	 mov	 eax, DWORD PTR _i$[esp-4]
  00004	56		 push	 esi
  00005	8b 74 24 08	 mov	 esi, DWORD PTR _ar$[esp]
  00009	6a 08		 push	 8
  0000b	50		 push	 eax
  0000c	8b ce		 mov	 ecx, esi
  0000e	e8 00 00 00 00	 call	 ?Read@CAr@@QAEXPAXI@Z	; CAr::Read
  00013	8b c6		 mov	 eax, esi
  00015	5e		 pop	 esi
  00016	c3		 ret	 0
??5@YAAAVCAr@@AAV0@AA_J@Z ENDP				; operator>>
_TEXT	ENDS
PUBLIC	?SetSerialNumber@CItemBase@@QAEXK@Z		; CItemBase::SetSerialNumber
; Function compile flags: /Ogty
; File c:\documents and settings\test\mes documents\source\virtuos_v17\build\program\_network\objects\obj.h
;	COMDAT ?SetSerialNumber@CItemBase@@QAEXK@Z
_TEXT	SEGMENT
_liSerialNumber$ = 8					; size = 4
?SetSerialNumber@CItemBase@@QAEXK@Z PROC NEAR		; CItemBase::SetSerialNumber, COMDAT
; _this$ = ecx

; 143  : 	void	SetSerialNumber( SERIALNUMBER liSerialNumber )	{	m_liSerialNumber	= liSerialNumber;	}

  00000	8b 44 24 04	 mov	 eax, DWORD PTR _liSerialNumber$[esp-4]
  00004	89 41 30	 mov	 DWORD PTR [ecx+48], eax
  00007	c2 04 00	 ret	 4
?SetSerialNumber@CItemBase@@QAEXK@Z ENDP		; CItemBase::SetSerialNumber
_TEXT	ENDS
PUBLIC	??B?$CSimpleStringT@D$0A@@ATL@@QBEPBDXZ		; ATL::CSimpleStringT<char,0>::operator char const *
; Function compile flags: /Ogty
; File c:\program files\microsoft visual studio .net 2003\vc7\atlmfc\include\atlsimpstr.h
;	COMDAT ??B?$CSimpleStringT@D$0A@@ATL@@QBEPBDXZ
_TEXT	SEGMENT
??B?$CSimpleStringT@D$0A@@ATL@@QBEPBDXZ PROC NEAR	; ATL::CSimpleStringT<char,0>::operator char const *, COMDAT
; _this$ = ecx

; 379  : 		return( m_pszData );

  00000	8b 01		 mov	 eax, DWORD PTR [ecx]

; 380  : 	}

  00002	c3		 ret	 0
??B?$CSimpleStringT@D$0A@@ATL@@QBEPBDXZ ENDP		; ATL::CSimpleStringT<char,0>::operator char const *
_TEXT	ENDS
PUBLIC	?size@?$basic_string@DU?$char_traits@D@std@@V?$allocator@D@2@@std@@QBEIXZ ; std::basic_string<char,std::char_traits<char>,std::allocator<char> >::size
; Function compile flags: /Ogty
; File c:\program files\microsoft visual studio .net 2003\vc7\include\xstring
;	COMDAT ?size@?$basic_string@DU?$char_traits@D@std@@V?$allocator@D@2@@std@@QBEIXZ
_TEXT	SEGMENT
?size@?$basic_string@DU?$char_traits@D@std@@V?$allocator@D@2@@std@@QBEIXZ PROC NEAR ; std::basic_string<char,std::char_traits<char>,std::allocator<char> >::size, COMDAT
; _this$ = ecx

; 1109 : 		return (_Mysize);

  00000	8b 41 14	 mov	 eax, DWORD PTR [ecx+20]

; 1110 : 		}

  00003	c3		 ret	 0
?size@?$basic_string@DU?$char_traits@D@std@@V?$allocator@D@2@@std@@QBEIXZ ENDP ; std::basic_string<char,std::char_traits<char>,std::allocator<char> >::size
_TEXT	ENDS
PUBLIC	?GetString@?$CSimpleStringT@D$0A@@ATL@@QBEPBDXZ	; ATL::CSimpleStringT<char,0>::GetString
; Function compile flags: /Ogty
; File c:\program files\microsoft visual studio .net 2003\vc7\atlmfc\include\atlsimpstr.h
;	COMDAT ?GetString@?$CSimpleStringT@D$0A@@ATL@@QBEPBDXZ
_TEXT	SEGMENT
?GetString@?$CSimpleStringT@D$0A@@ATL@@QBEPBDXZ PROC NEAR ; ATL::CSimpleStringT<char,0>::GetString, COMDAT
; _this$ = ecx

; 510  : 		return( m_pszData );

  00000	8b 01		 mov	 eax, DWORD PTR [ecx]

; 511  : 	}

  00002	c3		 ret	 0
?GetString@?$CSimpleStringT@D$0A@@ATL@@QBEPBDXZ ENDP	; ATL::CSimpleStringT<char,0>::GetString
_TEXT	ENDS
PUBLIC	?StringLength@?$CSimpleStringT@D$0A@@ATL@@SAHPBD@Z ; ATL::CSimpleStringT<char,0>::StringLength
; Function compile flags: /Ogty
;	COMDAT ?StringLength@?$CSimpleStringT@D$0A@@ATL@@SAHPBD@Z
_TEXT	SEGMENT
_psz$ = 8						; size = 4
?StringLength@?$CSimpleStringT@D$0A@@ATL@@SAHPBD@Z PROC NEAR ; ATL::CSimpleStringT<char,0>::StringLength, COMDAT

; 678  : 		if( psz == NULL )

  00000	8b 44 24 04	 mov	 eax, DWORD PTR _psz$[esp-4]
  00004	85 c0		 test	 eax, eax
  00006	75 01		 jne	 SHORT $L184226

; 683  : 	}

  00008	c3		 ret	 0
$L184226:

; 679  : 		{
; 680  : 			return( 0 );
; 681  : 		}
; 682  : 		return( int( strlen( psz ) ) );

  00009	8d 50 01	 lea	 edx, DWORD PTR [eax+1]
  0000c	8d 64 24 00	 npad	 4
$L206867:
  00010	8a 08		 mov	 cl, BYTE PTR [eax]
  00012	40		 inc	 eax
  00013	84 c9		 test	 cl, cl
  00015	75 f9		 jne	 SHORT $L206867
  00017	2b c2		 sub	 eax, edx

; 683  : 	}

  00019	c3		 ret	 0
?StringLength@?$CSimpleStringT@D$0A@@ATL@@SAHPBD@Z ENDP	; ATL::CSimpleStringT<char,0>::StringLength
_TEXT	ENDS
PUBLIC	?GetData@?$CSimpleStringT@D$0A@@ATL@@ABEPAUCStringData@2@XZ ; ATL::CSimpleStringT<char,0>::GetData
; Function compile flags: /Ogty
;	COMDAT ?GetData@?$CSimpleStringT@D$0A@@ATL@@ABEPAUCStringData@2@XZ
_TEXT	SEGMENT
?GetData@?$CSimpleStringT@D$0A@@ATL@@ABEPAUCStringData@2@XZ PROC NEAR ; ATL::CSimpleStringT<char,0>::GetData, COMDAT
; _this$ = ecx

; 731  : 		return( reinterpret_cast< CStringData* >( m_pszData )-1 );

  00000	8b 01		 mov	 eax, DWORD PTR [ecx]
  00002	83 e8 10	 sub	 eax, 16			; 00000010H

; 732  : 	}

  00005	c3		 ret	 0
?GetData@?$CSimpleStringT@D$0A@@ATL@@ABEPAUCStringData@2@XZ ENDP ; ATL::CSimpleStringT<char,0>::GetData
_TEXT	ENDS
PUBLIC	?SetLength@?$CSimpleStringT@D$0A@@ATL@@AAEXH@Z	; ATL::CSimpleStringT<char,0>::SetLength
; Function compile flags: /Ogty
;	COMDAT ?SetLength@?$CSimpleStringT@D$0A@@ATL@@AAEXH@Z
_TEXT	SEGMENT
_nLength$ = 8						; size = 4
?SetLength@?$CSimpleStringT@D$0A@@ATL@@AAEXH@Z PROC NEAR ; ATL::CSimpleStringT<char,0>::SetLength, COMDAT
; _this$ = ecx

; 790  : 		ATLASSERT( nLength >= 0 );
; 791  : 		ATLASSERT( nLength <= GetData()->nAllocLength );
; 792  : 
; 793  : 		if( nLength < 0 || nLength > GetData()->nAllocLength)

  00000	8b 44 24 04	 mov	 eax, DWORD PTR _nLength$[esp-4]
  00004	85 c0		 test	 eax, eax
  00006	7c 13		 jl	 SHORT $L184241
  00008	8b 11		 mov	 edx, DWORD PTR [ecx]
  0000a	3b 42 f8	 cmp	 eax, DWORD PTR [edx-8]
  0000d	7f 0c		 jg	 SHORT $L184241

; 794  : 			AtlThrow(E_INVALIDARG);
; 795  : 			
; 796  : 		GetData()->nDataLength = nLength;

  0000f	89 42 f4	 mov	 DWORD PTR [edx-12], eax

; 797  : 		m_pszData[nLength] = 0;

  00012	8b 09		 mov	 ecx, DWORD PTR [ecx]
  00014	c6 04 08 00	 mov	 BYTE PTR [eax+ecx], 0

; 798  : 	}

  00018	c2 04 00	 ret	 4
$L184241:
  0001b	68 57 00 07 80	 push	 -2147024809		; 80070057H
  00020	e8 00 00 00 00	 call	 ?AtlThrow@ATL@@YGXJ@Z	; ATL::AtlThrow
$L206878:
  00025	cc		 int	 3
?SetLength@?$CSimpleStringT@D$0A@@ATL@@AAEXH@Z ENDP	; ATL::CSimpleStringT<char,0>::SetLength
_TEXT	ENDS
PUBLIC	?FindStringResourceInstance@?$StrTraitMFC@DV?$ChTraitsCRT@D@ATL@@@@SAPAUHINSTANCE__@@I@Z ; StrTraitMFC<char,ATL::ChTraitsCRT<char> >::FindStringResourceInstance
EXTRN	?AfxFindStringResourceHandle@@YGPAUHINSTANCE__@@I@Z:NEAR ; AfxFindStringResourceHandle
; Function compile flags: /Ogty
; File c:\program files\microsoft visual studio .net 2003\vc7\atlmfc\include\afxstr.h
;	COMDAT ?FindStringResourceInstance@?$StrTraitMFC@DV?$ChTraitsCRT@D@ATL@@@@SAPAUHINSTANCE__@@I@Z
_TEXT	SEGMENT
_nID$ = 8						; size = 4
?FindStringResourceInstance@?$StrTraitMFC@DV?$ChTraitsCRT@D@ATL@@@@SAPAUHINSTANCE__@@I@Z PROC NEAR ; StrTraitMFC<char,ATL::ChTraitsCRT<char> >::FindStringResourceInstance, COMDAT

; 45   : 		return( AfxFindStringResourceHandle( nID ) );

  00000	8b 44 24 04	 mov	 eax, DWORD PTR _nID$[esp-4]
  00004	50		 push	 eax
  00005	e8 00 00 00 00	 call	 ?AfxFindStringResourceHandle@@YGPAUHINSTANCE__@@I@Z ; AfxFindStringResourceHandle

; 46   : 	}

  0000a	c3		 ret	 0
?FindStringResourceInstance@?$StrTraitMFC@DV?$ChTraitsCRT@D@ATL@@@@SAPAUHINSTANCE__@@I@Z ENDP ; StrTraitMFC<char,ATL::ChTraitsCRT<char> >::FindStringResourceInstance
_TEXT	ENDS
PUBLIC	?GetDefaultManager@?$StrTraitMFC@DV?$ChTraitsCRT@D@ATL@@@@SAPAUIAtlStringMgr@ATL@@XZ ; StrTraitMFC<char,ATL::ChTraitsCRT<char> >::GetDefaultManager
EXTRN	?AfxGetStringManager@@YGPAUIAtlStringMgr@ATL@@XZ:NEAR ; AfxGetStringManager
; Function compile flags: /Ogty
;	COMDAT ?GetDefaultManager@?$StrTraitMFC@DV?$ChTraitsCRT@D@ATL@@@@SAPAUIAtlStringMgr@ATL@@XZ
_TEXT	SEGMENT
?GetDefaultManager@?$StrTraitMFC@DV?$ChTraitsCRT@D@ATL@@@@SAPAUIAtlStringMgr@ATL@@XZ PROC NEAR ; StrTraitMFC<char,ATL::ChTraitsCRT<char> >::GetDefaultManager, COMDAT

; 50   : 		return( AfxGetStringManager() );

  00000	e9 00 00 00 00	 jmp	 ?AfxGetStringManager@@YGPAUIAtlStringMgr@ATL@@XZ ; AfxGetStringManager
?GetDefaultManager@?$StrTraitMFC@DV?$ChTraitsCRT@D@ATL@@@@SAPAUIAtlStringMgr@ATL@@XZ ENDP ; StrTraitMFC<char,ATL::ChTraitsCRT<char> >::GetDefaultManager
_TEXT	ENDS
PUBLIC	?_Myptr@?$basic_string@DU?$char_traits@D@std@@V?$allocator@D@2@@std@@QBEPBDXZ ; std::basic_string<char,std::char_traits<char>,std::allocator<char> >::_Myptr
; Function compile flags: /Ogty
; File c:\program files\microsoft visual studio .net 2003\vc7\include\xstring
;	COMDAT ?_Myptr@?$basic_string@DU?$char_traits@D@std@@V?$allocator@D@2@@std@@QBEPBDXZ
_TEXT	SEGMENT
?_Myptr@?$basic_string@DU?$char_traits@D@std@@V?$allocator@D@2@@std@@QBEPBDXZ PROC NEAR ; std::basic_string<char,std::char_traits<char>,std::allocator<char> >::_Myptr, COMDAT
; _this$ = ecx

; 1537 : 		return (_BUF_SIZE <= _Myres ? _Bx._Ptr : _Bx._Buf);

  00000	83 79 18 10	 cmp	 DWORD PTR [ecx+24], 16	; 00000010H
  00004	72 04		 jb	 SHORT $L206886
  00006	8b 41 04	 mov	 eax, DWORD PTR [ecx+4]

; 1538 : 		}

  00009	c3		 ret	 0
$L206886:

; 1537 : 		return (_BUF_SIZE <= _Myres ? _Bx._Ptr : _Bx._Buf);

  0000a	8d 41 04	 lea	 eax, DWORD PTR [ecx+4]

; 1538 : 		}

  0000d	c3		 ret	 0
?_Myptr@?$basic_string@DU?$char_traits@D@std@@V?$allocator@D@2@@std@@QBEPBDXZ ENDP ; std::basic_string<char,std::char_traits<char>,std::allocator<char> >::_Myptr
_TEXT	ENDS
PUBLIC	??0?$allocator@D@std@@QAE@XZ			; std::allocator<char>::allocator<char>
; Function compile flags: /Ogty
; File c:\program files\microsoft visual studio .net 2003\vc7\include\xmemory
;	COMDAT ??0?$allocator@D@std@@QAE@XZ
_TEXT	SEGMENT
??0?$allocator@D@std@@QAE@XZ PROC NEAR			; std::allocator<char>::allocator<char>, COMDAT
; _this$ = ecx

; 111  : 	allocator()

  00000	8b c1		 mov	 eax, ecx

; 112  : 		{	// construct default allocator (do nothing)
; 113  : 		}

  00002	c3		 ret	 0
??0?$allocator@D@std@@QAE@XZ ENDP			; std::allocator<char>::allocator<char>
_TEXT	ENDS
PUBLIC	??0?$allocator@D@std@@QAE@ABV01@@Z		; std::allocator<char>::allocator<char>
; Function compile flags: /Ogty
;	COMDAT ??0?$allocator@D@std@@QAE@ABV01@@Z
_TEXT	SEGMENT
___formal$ = 8						; size = 4
??0?$allocator@D@std@@QAE@ABV01@@Z PROC NEAR		; std::allocator<char>::allocator<char>, COMDAT
; _this$ = ecx

; 115  : 	allocator(const allocator<_Ty>&)

  00000	8b c1		 mov	 eax, ecx

; 116  : 		{	// construct by copying (do nothing)
; 117  : 		}

  00002	c2 04 00	 ret	 4
??0?$allocator@D@std@@QAE@ABV01@@Z ENDP			; std::allocator<char>::allocator<char>
_TEXT	ENDS
PUBLIC	?Attach@?$CSimpleStringT@D$0A@@ATL@@AAEXPAUCStringData@2@@Z ; ATL::CSimpleStringT<char,0>::Attach
; Function compile flags: /Ogty
; File c:\program files\microsoft visual studio .net 2003\vc7\atlmfc\include\atlsimpstr.h
;	COMDAT ?Attach@?$CSimpleStringT@D$0A@@ATL@@AAEXPAUCStringData@2@@Z
_TEXT	SEGMENT
_pData$ = 8						; size = 4
?Attach@?$CSimpleStringT@D$0A@@ATL@@AAEXPAUCStringData@2@@Z PROC NEAR ; ATL::CSimpleStringT<char,0>::Attach, COMDAT
; _this$ = ecx

; 712  : 		m_pszData = static_cast< PXSTR >( pData->data() );

  00000	8b 44 24 04	 mov	 eax, DWORD PTR _pData$[esp-4]
  00004	83 c0 10	 add	 eax, 16			; 00000010H
  00007	89 01		 mov	 DWORD PTR [ecx], eax

; 713  : 	}

  00009	c2 04 00	 ret	 4
?Attach@?$CSimpleStringT@D$0A@@ATL@@AAEXPAUCStringData@2@@Z ENDP ; ATL::CSimpleStringT<char,0>::Attach
_TEXT	ENDS
PUBLIC	?GetBaseTypeLength@?$ChTraitsCRT@D@ATL@@SAHPBGH@Z ; ATL::ChTraitsCRT<char>::GetBaseTypeLength
EXTRN	__imp__WideCharToMultiByte@32:NEAR
; Function compile flags: /Ogty
; File c:\program files\microsoft visual studio .net 2003\vc7\atlmfc\include\cstringt.h
;	COMDAT ?GetBaseTypeLength@?$ChTraitsCRT@D@ATL@@SAHPBGH@Z
_TEXT	SEGMENT
_pszSource$ = 8						; size = 4
_nLength$ = 12						; size = 4
?GetBaseTypeLength@?$ChTraitsCRT@D@ATL@@SAHPBGH@Z PROC NEAR ; ATL::ChTraitsCRT<char>::GetBaseTypeLength, COMDAT

; 437  : 		// Returns required buffer length in XCHARs
; 438  : 		return ::WideCharToMultiByte( _AtlGetConversionACP(), 0, pszSource, nLength, NULL, 0, NULL, NULL );

  00000	ff 15 00 00 00
	00		 call	 DWORD PTR ?g_pfnGetThreadACP@ATL@@3P6GIXZA ; ATL::g_pfnGetThreadACP
  00006	8b 4c 24 08	 mov	 ecx, DWORD PTR _nLength$[esp-4]
  0000a	8b 54 24 04	 mov	 edx, DWORD PTR _pszSource$[esp-4]
  0000e	6a 00		 push	 0
  00010	6a 00		 push	 0
  00012	6a 00		 push	 0
  00014	6a 00		 push	 0
  00016	51		 push	 ecx
  00017	52		 push	 edx
  00018	6a 00		 push	 0
  0001a	50		 push	 eax
  0001b	ff 15 00 00 00
	00		 call	 DWORD PTR __imp__WideCharToMultiByte@32

; 439  : 	}

  00021	c3		 ret	 0
?GetBaseTypeLength@?$ChTraitsCRT@D@ATL@@SAHPBGH@Z ENDP	; ATL::ChTraitsCRT<char>::GetBaseTypeLength
_TEXT	ENDS
PUBLIC	?ConvertToBaseType@?$ChTraitsCRT@D@ATL@@SAXPADHPBGH@Z ; ATL::ChTraitsCRT<char>::ConvertToBaseType
; Function compile flags: /Ogty
;	COMDAT ?ConvertToBaseType@?$ChTraitsCRT@D@ATL@@SAXPADHPBGH@Z
_TEXT	SEGMENT
_pszDest$ = 8						; size = 4
_nDestLength$ = 12					; size = 4
_pszSrc$ = 16						; size = 4
_nSrcLength$ = 20					; size = 4
?ConvertToBaseType@?$ChTraitsCRT@D@ATL@@SAXPADHPBGH@Z PROC NEAR ; ATL::ChTraitsCRT<char>::ConvertToBaseType, COMDAT

; 452  : 		// nLen is in XCHARs
; 453  : 		::WideCharToMultiByte( _AtlGetConversionACP(), 0, pszSrc, nSrcLength, pszDest, nDestLength, NULL, NULL );

  00000	8b 44 24 08	 mov	 eax, DWORD PTR _nDestLength$[esp-4]
  00004	8b 4c 24 04	 mov	 ecx, DWORD PTR _pszDest$[esp-4]
  00008	8b 54 24 10	 mov	 edx, DWORD PTR _nSrcLength$[esp-4]
  0000c	6a 00		 push	 0
  0000e	6a 00		 push	 0
  00010	50		 push	 eax
  00011	8b 44 24 18	 mov	 eax, DWORD PTR _pszSrc$[esp+8]
  00015	51		 push	 ecx
  00016	52		 push	 edx
  00017	50		 push	 eax
  00018	6a 00		 push	 0
  0001a	ff 15 00 00 00
	00		 call	 DWORD PTR ?g_pfnGetThreadACP@ATL@@3P6GIXZA ; ATL::g_pfnGetThreadACP
  00020	50		 push	 eax
  00021	ff 15 00 00 00
	00		 call	 DWORD PTR __imp__WideCharToMultiByte@32

; 454  : 	}

  00027	c3		 ret	 0
?ConvertToBaseType@?$ChTraitsCRT@D@ATL@@SAXPADHPBGH@Z ENDP ; ATL::ChTraitsCRT<char>::ConvertToBaseType
_TEXT	ENDS
PUBLIC	?_Myptr@?$basic_string@DU?$char_traits@D@std@@V?$allocator@D@2@@std@@QAEPADXZ ; std::basic_string<char,std::char_traits<char>,std::allocator<char> >::_Myptr
; Function compile flags: /Ogty
; File c:\program files\microsoft visual studio .net 2003\vc7\include\xstring
;	COMDAT ?_Myptr@?$basic_string@DU?$char_traits@D@std@@V?$allocator@D@2@@std@@QAEPADXZ
_TEXT	SEGMENT
?_Myptr@?$basic_string@DU?$char_traits@D@std@@V?$allocator@D@2@@std@@QAEPADXZ PROC NEAR ; std::basic_string<char,std::char_traits<char>,std::allocator<char> >::_Myptr, COMDAT
; _this$ = ecx

; 1532 : 		return (_BUF_SIZE <= _Myres ? _Bx._Ptr : _Bx._Buf);

  00000	83 79 18 10	 cmp	 DWORD PTR [ecx+24], 16	; 00000010H
  00004	72 04		 jb	 SHORT $L206910
  00006	8b 41 04	 mov	 eax, DWORD PTR [ecx+4]

; 1533 : 		}

  00009	c3		 ret	 0
$L206910:

; 1532 : 		return (_BUF_SIZE <= _Myres ? _Bx._Ptr : _Bx._Buf);

  0000a	8d 41 04	 lea	 eax, DWORD PTR [ecx+4]

; 1533 : 		}

  0000d	c3		 ret	 0
?_Myptr@?$basic_string@DU?$char_traits@D@std@@V?$allocator@D@2@@std@@QAEPADXZ ENDP ; std::basic_string<char,std::char_traits<char>,std::allocator<char> >::_Myptr
_TEXT	ENDS
PUBLIC	?deallocate@?$allocator@D@std@@QAEXPADI@Z	; std::allocator<char>::deallocate
; Function compile flags: /Ogty
; File c:\program files\microsoft visual studio .net 2003\vc7\include\xmemory
;	COMDAT ?deallocate@?$allocator@D@std@@QAEXPADI@Z
_TEXT	SEGMENT
__Ptr$ = 8						; size = 4
___formal$ = 12						; size = 4
?deallocate@?$allocator@D@std@@QAEXPADI@Z PROC NEAR	; std::allocator<char>::deallocate, COMDAT
; _this$ = ecx

; 132  : 		operator delete(_Ptr);

  00000	8b 44 24 04	 mov	 eax, DWORD PTR __Ptr$[esp-4]
  00004	50		 push	 eax
  00005	e8 00 00 00 00	 call	 ??3@YAXPAX@Z		; operator delete
  0000a	59		 pop	 ecx

; 133  : 		}

  0000b	c2 08 00	 ret	 8
?deallocate@?$allocator@D@std@@QAEXPADI@Z ENDP		; std::allocator<char>::deallocate
_TEXT	ENDS
PUBLIC	?CopyChars@?$CSimpleStringT@D$0A@@ATL@@SAXPADPBDH@Z ; ATL::CSimpleStringT<char,0>::CopyChars
; Function compile flags: /Ogty
; File c:\program files\microsoft visual studio .net 2003\vc7\atlmfc\include\atlsimpstr.h
;	COMDAT ?CopyChars@?$CSimpleStringT@D$0A@@ATL@@SAXPADPBDH@Z
_TEXT	SEGMENT
_pchDest$ = 8						; size = 4
_pchSrc$ = 12						; size = 4
_nChars$ = 16						; size = 4
?CopyChars@?$CSimpleStringT@D$0A@@ATL@@SAXPADPBDH@Z PROC NEAR ; ATL::CSimpleStringT<char,0>::CopyChars, COMDAT

; 653  : 		memcpy( pchDest, pchSrc, nChars*sizeof( XCHAR ) );

  00000	8b 4c 24 0c	 mov	 ecx, DWORD PTR _nChars$[esp-4]
  00004	56		 push	 esi
  00005	8b 74 24 0c	 mov	 esi, DWORD PTR _pchSrc$[esp]
  00009	8b c1		 mov	 eax, ecx
  0000b	57		 push	 edi
  0000c	8b 7c 24 0c	 mov	 edi, DWORD PTR _pchDest$[esp+4]
  00010	c1 e9 02	 shr	 ecx, 2
  00013	f3 a5		 rep movsd
  00015	8b c8		 mov	 ecx, eax
  00017	83 e1 03	 and	 ecx, 3
  0001a	f3 a4		 rep movsb
  0001c	5f		 pop	 edi
  0001d	5e		 pop	 esi

; 654  : 	}

  0001e	c3		 ret	 0
?CopyChars@?$CSimpleStringT@D$0A@@ATL@@SAXPADPBDH@Z ENDP ; ATL::CSimpleStringT<char,0>::CopyChars
_TEXT	ENDS
PUBLIC	?CopyCharsOverlapped@?$CSimpleStringT@D$0A@@ATL@@SAXPADPBDH@Z ; ATL::CSimpleStringT<char,0>::CopyCharsOverlapped
; Function compile flags: /Ogty
;	COMDAT ?CopyCharsOverlapped@?$CSimpleStringT@D$0A@@ATL@@SAXPADPBDH@Z
_TEXT	SEGMENT
_pchDest$ = 8						; size = 4
_pchSrc$ = 12						; size = 4
_nChars$ = 16						; size = 4
?CopyCharsOverlapped@?$CSimpleStringT@D$0A@@ATL@@SAXPADPBDH@Z PROC NEAR ; ATL::CSimpleStringT<char,0>::CopyCharsOverlapped, COMDAT

; 657  : 		memmove( pchDest, pchSrc, nChars*sizeof( XCHAR ) );

  00000	e9 00 00 00 00	 jmp	 _memmove
?CopyCharsOverlapped@?$CSimpleStringT@D$0A@@ATL@@SAXPADPBDH@Z ENDP ; ATL::CSimpleStringT<char,0>::CopyCharsOverlapped
_TEXT	ENDS
PUBLIC	?ThrowMemoryException@?$CSimpleStringT@D$0A@@ATL@@KAXXZ ; ATL::CSimpleStringT<char,0>::ThrowMemoryException
; Function compile flags: /Ogty
;	COMDAT ?ThrowMemoryException@?$CSimpleStringT@D$0A@@ATL@@KAXXZ
_TEXT	SEGMENT
?ThrowMemoryException@?$CSimpleStringT@D$0A@@ATL@@KAXXZ PROC NEAR ; ATL::CSimpleStringT<char,0>::ThrowMemoryException, COMDAT

; 705  : 		AtlThrow( E_OUTOFMEMORY );

  00000	68 0e 00 07 80	 push	 -2147024882		; 8007000eH
  00005	e8 00 00 00 00	 call	 ?AtlThrow@ATL@@YGXJ@Z	; ATL::AtlThrow
$L206920:
  0000a	cc		 int	 3
?ThrowMemoryException@?$CSimpleStringT@D$0A@@ATL@@KAXXZ ENDP ; ATL::CSimpleStringT<char,0>::ThrowMemoryException
_TEXT	ENDS
PUBLIC	?Fork@?$CSimpleStringT@D$0A@@ATL@@AAEXH@Z	; ATL::CSimpleStringT<char,0>::Fork
; Function compile flags: /Ogty
;	COMDAT ?Fork@?$CSimpleStringT@D$0A@@ATL@@AAEXH@Z
_TEXT	SEGMENT
_this$ = -4						; size = 4
tv181 = 8						; size = 4
_nLength$ = 8						; size = 4
?Fork@?$CSimpleStringT@D$0A@@ATL@@AAEXH@Z PROC NEAR	; ATL::CSimpleStringT<char,0>::Fork, COMDAT
; _this$ = ecx

; 715  : 	{

  00000	51		 push	 ecx
  00001	53		 push	 ebx

; 716  : 		CStringData* pOldData = GetData();

  00002	8b 19		 mov	 ebx, DWORD PTR [ecx]
  00004	83 eb 10	 sub	 ebx, 16			; 00000010H
  00007	55		 push	 ebp

; 717  : 		int nOldLength = pOldData->nDataLength;

  00008	8b 6b 04	 mov	 ebp, DWORD PTR [ebx+4]
  0000b	89 4c 24 08	 mov	 DWORD PTR _this$[esp+12], ecx

; 718  : 		CStringData* pNewData = pOldData->pStringMgr->Clone()->Allocate( nLength, sizeof( XCHAR ) );

  0000f	8b 0b		 mov	 ecx, DWORD PTR [ebx]
  00011	8b 01		 mov	 eax, DWORD PTR [ecx]
  00013	56		 push	 esi
  00014	ff 50 10	 call	 DWORD PTR [eax+16]
  00017	8b 74 24 14	 mov	 esi, DWORD PTR _nLength$[esp+12]
  0001b	8b 10		 mov	 edx, DWORD PTR [eax]
  0001d	6a 01		 push	 1
  0001f	56		 push	 esi
  00020	8b c8		 mov	 ecx, eax
  00022	ff 12		 call	 DWORD PTR [edx]

; 719  : 		if( pNewData == NULL )

  00024	85 c0		 test	 eax, eax
  00026	75 05		 jne	 SHORT $L185534

; 720  : 		{
; 721  : 			ThrowMemoryException();

  00028	e8 00 00 00 00	 call	 ?ThrowMemoryException@?$CSimpleStringT@D$0A@@ATL@@KAXXZ ; ATL::CSimpleStringT<char,0>::ThrowMemoryException
$L185534:

; 722  : 		}
; 723  : 		int nCharsToCopy = ((nOldLength < nLength) ? nOldLength : nLength)+1;  // Copy '\0'

  0002d	3b ee		 cmp	 ebp, esi
  0002f	7d 02		 jge	 SHORT $L206924
  00031	8b f5		 mov	 esi, ebp
$L206924:
  00033	8d 4e 01	 lea	 ecx, DWORD PTR [esi+1]

; 724  : 		CopyChars( PXSTR( pNewData->data() ), PCXSTR( pOldData->data() ), nCharsToCopy );

  00036	8b d1		 mov	 edx, ecx
  00038	57		 push	 edi
  00039	c1 e9 02	 shr	 ecx, 2
  0003c	8d 78 10	 lea	 edi, DWORD PTR [eax+16]
  0003f	89 7c 24 18	 mov	 DWORD PTR tv181[esp+16], edi
  00043	8d 73 10	 lea	 esi, DWORD PTR [ebx+16]
  00046	f3 a5		 rep movsd
  00048	8b ca		 mov	 ecx, edx
  0004a	83 e1 03	 and	 ecx, 3
  0004d	f3 a4		 rep movsb

; 725  : 		pNewData->nDataLength = nOldLength;

  0004f	89 68 04	 mov	 DWORD PTR [eax+4], ebp

; 726  : 		pOldData->Release();

  00052	8d 43 0c	 lea	 eax, DWORD PTR [ebx+12]
  00055	83 c9 ff	 or	 ecx, -1
  00058	f0 0f c1 08	 lock	  xadd	 DWORD PTR [eax], ecx
  0005c	49		 dec	 ecx
  0005d	85 c9		 test	 ecx, ecx
  0005f	5f		 pop	 edi
  00060	7f 08		 jg	 SHORT $L206940
  00062	8b 0b		 mov	 ecx, DWORD PTR [ebx]
  00064	8b 11		 mov	 edx, DWORD PTR [ecx]
  00066	53		 push	 ebx
  00067	ff 52 04	 call	 DWORD PTR [edx+4]
$L206940:

; 727  : 		Attach( pNewData );

  0006a	8b 44 24 14	 mov	 eax, DWORD PTR tv181[esp+12]
  0006e	8b 4c 24 0c	 mov	 ecx, DWORD PTR _this$[esp+16]
  00072	5e		 pop	 esi
  00073	5d		 pop	 ebp
  00074	89 01		 mov	 DWORD PTR [ecx], eax
  00076	5b		 pop	 ebx

; 728  : 	}

  00077	59		 pop	 ecx
  00078	c2 04 00	 ret	 4
$L206949:
?Fork@?$CSimpleStringT@D$0A@@ATL@@AAEXH@Z ENDP		; ATL::CSimpleStringT<char,0>::Fork
_TEXT	ENDS
PUBLIC	?Reallocate@?$CSimpleStringT@D$0A@@ATL@@AAEXH@Z	; ATL::CSimpleStringT<char,0>::Reallocate
; Function compile flags: /Ogty
;	COMDAT ?Reallocate@?$CSimpleStringT@D$0A@@ATL@@AAEXH@Z
_TEXT	SEGMENT
_nLength$ = 8						; size = 4
?Reallocate@?$CSimpleStringT@D$0A@@ATL@@AAEXH@Z PROC NEAR ; ATL::CSimpleStringT<char,0>::Reallocate, COMDAT
; _this$ = ecx

; 776  : 	{

  00000	56		 push	 esi
  00001	57		 push	 edi

; 777  : 		CStringData* pOldData = GetData();
; 778  : 		ATLASSERT( pOldData->nAllocLength < nLength );
; 779  : 		IAtlStringMgr* pStringMgr = pOldData->pStringMgr;
; 780  : 		CStringData* pNewData = pStringMgr->Reallocate( pOldData, nLength, sizeof( XCHAR ) );

  00002	8b 7c 24 0c	 mov	 edi, DWORD PTR _nLength$[esp+4]
  00006	8b f1		 mov	 esi, ecx
  00008	8b 06		 mov	 eax, DWORD PTR [esi]
  0000a	8b 48 f0	 mov	 ecx, DWORD PTR [eax-16]
  0000d	8b 11		 mov	 edx, DWORD PTR [ecx]
  0000f	83 e8 10	 sub	 eax, 16			; 00000010H
  00012	6a 01		 push	 1
  00014	57		 push	 edi
  00015	50		 push	 eax
  00016	ff 52 08	 call	 DWORD PTR [edx+8]

; 781  : 		if( pNewData == NULL )

  00019	85 c0		 test	 eax, eax
  0001b	75 05		 jne	 SHORT $L185543

; 782  : 		{
; 783  : 			ThrowMemoryException();

  0001d	e8 00 00 00 00	 call	 ?ThrowMemoryException@?$CSimpleStringT@D$0A@@ATL@@KAXXZ ; ATL::CSimpleStringT<char,0>::ThrowMemoryException
$L185543:

; 784  : 		}
; 785  : 		Attach( pNewData );

  00022	83 c0 10	 add	 eax, 16			; 00000010H
  00025	5f		 pop	 edi
  00026	89 06		 mov	 DWORD PTR [esi], eax
  00028	5e		 pop	 esi

; 786  : 	}

  00029	c2 04 00	 ret	 4
$L206963:
?Reallocate@?$CSimpleStringT@D$0A@@ATL@@AAEXH@Z ENDP	; ATL::CSimpleStringT<char,0>::Reallocate
_TEXT	ENDS
PUBLIC	?_Inside@?$basic_string@DU?$char_traits@D@std@@V?$allocator@D@2@@std@@IAE_NPBD@Z ; std::basic_string<char,std::char_traits<char>,std::allocator<char> >::_Inside
; Function compile flags: /Ogty
; File c:\program files\microsoft visual studio .net 2003\vc7\include\xstring
;	COMDAT ?_Inside@?$basic_string@DU?$char_traits@D@std@@V?$allocator@D@2@@std@@IAE_NPBD@Z
_TEXT	SEGMENT
__Ptr$ = 8						; size = 4
?_Inside@?$basic_string@DU?$char_traits@D@std@@V?$allocator@D@2@@std@@IAE_NPBD@Z PROC NEAR ; std::basic_string<char,std::char_traits<char>,std::allocator<char> >::_Inside, COMDAT
; _this$ = ecx

; 1494 : 		{	// test if _Ptr points inside string

  00000	56		 push	 esi

; 1495 : 		if (_Ptr < _Myptr() || _Myptr() + _Mysize <= _Ptr)

  00001	8b 71 18	 mov	 esi, DWORD PTR [ecx+24]
  00004	83 fe 10	 cmp	 esi, 16			; 00000010H
  00007	57		 push	 edi
  00008	8d 41 04	 lea	 eax, DWORD PTR [ecx+4]
  0000b	72 04		 jb	 SHORT $L206970
  0000d	8b 10		 mov	 edx, DWORD PTR [eax]
  0000f	eb 02		 jmp	 SHORT $L206971
$L206970:
  00011	8b d0		 mov	 edx, eax
$L206971:
  00013	8b 7c 24 0c	 mov	 edi, DWORD PTR __Ptr$[esp+4]
  00017	3b fa		 cmp	 edi, edx
  00019	72 17		 jb	 SHORT $L185560
  0001b	83 fe 10	 cmp	 esi, 16			; 00000010H
  0001e	72 02		 jb	 SHORT $L206978
  00020	8b 00		 mov	 eax, DWORD PTR [eax]
$L206978:
  00022	8b 49 14	 mov	 ecx, DWORD PTR [ecx+20]
  00025	03 c8		 add	 ecx, eax
  00027	3b cf		 cmp	 ecx, edi
  00029	76 07		 jbe	 SHORT $L185560
  0002b	5f		 pop	 edi

; 1497 : 		else
; 1498 : 			return (true);

  0002c	b0 01		 mov	 al, 1
  0002e	5e		 pop	 esi

; 1499 : 		}

  0002f	c2 04 00	 ret	 4
$L185560:
  00032	5f		 pop	 edi

; 1496 : 			return (false);	// don't ask

  00033	32 c0		 xor	 al, al
  00035	5e		 pop	 esi

; 1499 : 		}

  00036	c2 04 00	 ret	 4
?_Inside@?$basic_string@DU?$char_traits@D@std@@V?$allocator@D@2@@std@@IAE_NPBD@Z ENDP ; std::basic_string<char,std::char_traits<char>,std::allocator<char> >::_Inside
_TEXT	ENDS
PUBLIC	?max_size@?$allocator@D@std@@QBEIXZ		; std::allocator<char>::max_size
; Function compile flags: /Ogty
; File c:\program files\microsoft visual studio .net 2003\vc7\include\xmemory
;	COMDAT ?max_size@?$allocator@D@std@@QBEIXZ
_TEXT	SEGMENT
?max_size@?$allocator@D@std@@QBEIXZ PROC NEAR		; std::allocator<char>::max_size, COMDAT
; _this$ = ecx

; 157  : 		_SIZT _Count = (_SIZT)(-1) / sizeof (_Ty);
; 158  : 		return (0 < _Count ? _Count : 1);

  00000	83 c8 ff	 or	 eax, -1

; 159  : 		}

  00003	c3		 ret	 0
?max_size@?$allocator@D@std@@QBEIXZ ENDP		; std::allocator<char>::max_size
_TEXT	ENDS
PUBLIC	?GetAt@?$CFixedArray@UtagColorText@@@@QAEPAUtagColorText@@K@Z ; CFixedArray<tagColorText>::GetAt
; Function compile flags: /Ogty
; File c:\documents and settings\test\mes documents\source\virtuos_v17\build\program\_common\data.h
;	COMDAT ?GetAt@?$CFixedArray@UtagColorText@@@@QAEPAUtagColorText@@K@Z
_TEXT	SEGMENT
_dwIndex$ = 8						; size = 4
?GetAt@?$CFixedArray@UtagColorText@@@@QAEPAUtagColorText@@K@Z PROC NEAR ; CFixedArray<tagColorText>::GetAt, COMDAT
; _this$ = ecx

; 270  : 	if( dwIndex >= (DWORD)m_nMaxIndex )

  00000	8b 44 24 04	 mov	 eax, DWORD PTR _dwIndex$[esp-4]
  00004	3b 41 18	 cmp	 eax, DWORD PTR [ecx+24]
  00007	72 05		 jb	 SHORT $L186299

; 271  : 		return NULL;

  00009	33 c0		 xor	 eax, eax

; 273  : }

  0000b	c2 04 00	 ret	 4
$L186299:

; 272  : 	return (T*) m_apOffset[ dwIndex ];

  0000e	8b 49 08	 mov	 ecx, DWORD PTR [ecx+8]
  00011	8b 04 81	 mov	 eax, DWORD PTR [ecx+eax*4]

; 273  : }

  00014	c2 04 00	 ret	 4
?GetAt@?$CFixedArray@UtagColorText@@@@QAEPAUtagColorText@@K@Z ENDP ; CFixedArray<tagColorText>::GetAt
_TEXT	ENDS
PUBLIC	??$_Allocate@D@std@@YAPADIPAD@Z			; std::_Allocate<char>
; Function compile flags: /Ogty
; File c:\program files\microsoft visual studio .net 2003\vc7\include\xmemory
;	COMDAT ??$_Allocate@D@std@@YAPADIPAD@Z
_TEXT	SEGMENT
__Count$ = 8						; size = 4
___formal$ = 12						; size = 4
??$_Allocate@D@std@@YAPADIPAD@Z PROC NEAR		; std::_Allocate<char>, COMDAT

; 34   : 	return ((_Ty _FARQ *)operator new(_Count * sizeof (_Ty)));

  00000	8b 44 24 04	 mov	 eax, DWORD PTR __Count$[esp-4]
  00004	50		 push	 eax
  00005	e8 00 00 00 00	 call	 ??2@YAPAXI@Z		; operator new
  0000a	83 c4 04	 add	 esp, 4

; 35   : 	}

  0000d	c3		 ret	 0
??$_Allocate@D@std@@YAPADIPAD@Z ENDP			; std::_Allocate<char>
; Function compile flags: /Ogty
_TEXT	ENDS
;	COMDAT ??_GCTLord@@UAEPAXI@Z
_TEXT	SEGMENT
___flags$ = 8						; size = 4
??_GCTLord@@UAEPAXI@Z PROC NEAR				; CTLord::`scalar deleting destructor', COMDAT
; _this$ = ecx
  00000	56		 push	 esi
  00001	8b f1		 mov	 esi, ecx
  00003	e8 00 00 00 00	 call	 ??1CTLord@@UAE@XZ	; CTLord::~CTLord
  00008	f6 44 24 08 01	 test	 BYTE PTR ___flags$[esp], 1
  0000d	74 09		 je	 SHORT $L206990
  0000f	56		 push	 esi
  00010	e8 00 00 00 00	 call	 ??3@YAXPAX@Z		; operator delete
  00015	83 c4 04	 add	 esp, 4
$L206990:
  00018	8b c6		 mov	 eax, esi
  0001a	5e		 pop	 esi
  0001b	c2 04 00	 ret	 4
??_GCTLord@@UAEPAXI@Z ENDP				; CTLord::`scalar deleting destructor'
_TEXT	ENDS
PUBLIC	?Instance@CTLord@@SAPAV1@XZ			; CTLord::Instance
EXTRN	_atexit:NEAR
;	COMDAT ?sLord@?1??Instance@CTLord@@SAPAV2@XZ@4V2@A
; File c:\documents and settings\test\mes documents\source\virtuos_v17\build\program\databaseserver\tlord.cpp
_BSS	SEGMENT
?sLord@?1??Instance@CTLord@@SAPAV2@XZ@4V2@A DB 018H DUP (?) ; `CTLord::Instance'::`2'::sLord
_BSS	ENDS
;	COMDAT ?$S1@?1??Instance@CTLord@@SAPAV2@XZ@4IA
_BSS	SEGMENT
?$S1@?1??Instance@CTLord@@SAPAV2@XZ@4IA DD 01H DUP (?)	; `CTLord::Instance'::`2'::$S1
_BSS	ENDS
;	COMDAT xdata$x
xdata$x	SEGMENT
$T207002 DD	0ffffffffH
	DD	FLAT:$L206993
$T206999 DD	019930520H
	DD	01H
	DD	FLAT:$T207002
	DD	2 DUP(00H)
	DD	2 DUP(00H)
; Function compile flags: /Ogty
xdata$x	ENDS
;	COMDAT ?Instance@CTLord@@SAPAV1@XZ
_TEXT	SEGMENT
__$EHRec$ = -12						; size = 12
?Instance@CTLord@@SAPAV1@XZ PROC NEAR			; CTLord::Instance, COMDAT

; 65   : {

  00000	64 a1 00 00 00
	00		 mov	 eax, DWORD PTR fs:__except_list

; 66   : 	static	CTLord	sLord;

  00006	8a 0d 00 00 00
	00		 mov	 cl, BYTE PTR ?$S1@?1??Instance@CTLord@@SAPAV2@XZ@4IA
  0000c	6a ff		 push	 -1
  0000e	68 00 00 00 00	 push	 __ehhandler$?Instance@CTLord@@SAPAV1@XZ
  00013	50		 push	 eax
  00014	b8 01 00 00 00	 mov	 eax, 1
  00019	84 c8		 test	 cl, al
  0001b	64 89 25 00 00
	00 00		 mov	 DWORD PTR fs:__except_list, esp
  00022	75 39		 jne	 SHORT $L207000
  00024	09 05 00 00 00
	00		 or	 DWORD PTR ?$S1@?1??Instance@CTLord@@SAPAV2@XZ@4IA, eax
  0002a	b9 00 00 00 00	 mov	 ecx, OFFSET FLAT:?sLord@?1??Instance@CTLord@@SAPAV2@XZ@4V2@A
  0002f	c7 44 24 08 00
	00 00 00	 mov	 DWORD PTR __$EHRec$[esp+20], 0
  00037	e8 00 00 00 00	 call	 ??0CLord@@IAE@XZ	; CLord::CLord
  0003c	68 00 00 00 00	 push	 OFFSET FLAT:_$E2
  00041	c7 05 00 00 00
	00 00 00 00 00	 mov	 DWORD PTR ?sLord@?1??Instance@CTLord@@SAPAV2@XZ@4V2@A, OFFSET FLAT:??_7CTLord@@6B@
  0004b	c7 05 14 00 00
	00 00 00 00 00	 mov	 DWORD PTR ?sLord@?1??Instance@CTLord@@SAPAV2@XZ@4V2@A+20, 0
  00055	e8 00 00 00 00	 call	 _atexit
  0005a	83 c4 04	 add	 esp, 4
$L207000:

; 67   : 	return &sLord;
; 68   : }

  0005d	8b 0c 24	 mov	 ecx, DWORD PTR __$EHRec$[esp+12]
  00060	b8 00 00 00 00	 mov	 eax, OFFSET FLAT:?sLord@?1??Instance@CTLord@@SAPAV2@XZ@4V2@A
  00065	64 89 0d 00 00
	00 00		 mov	 DWORD PTR fs:__except_list, ecx
  0006c	83 c4 0c	 add	 esp, 12			; 0000000cH
  0006f	c3		 ret	 0
_TEXT	ENDS
;	COMDAT text$x
text$x	SEGMENT
$L206993:
  00000	a1 00 00 00 00	 mov	 eax, DWORD PTR ?$S1@?1??Instance@CTLord@@SAPAV2@XZ@4IA
  00005	83 e0 fe	 and	 eax, -2			; fffffffeH
  00008	a3 00 00 00 00	 mov	 DWORD PTR ?$S1@?1??Instance@CTLord@@SAPAV2@XZ@4IA, eax
  0000d	c3		 ret	 0
__ehhandler$?Instance@CTLord@@SAPAV1@XZ:
  0000e	b8 00 00 00 00	 mov	 eax, OFFSET FLAT:$T206999
  00013	e9 00 00 00 00	 jmp	 ___CxxFrameHandler
text$x	ENDS
?Instance@CTLord@@SAPAV1@XZ ENDP			; CTLord::Instance
; Function compile flags: /Ogty
;	COMDAT ??_GCTElection@@UAEPAXI@Z
_TEXT	SEGMENT
___flags$ = 8						; size = 4
??_GCTElection@@UAEPAXI@Z PROC NEAR			; CTElection::`scalar deleting destructor', COMDAT
; _this$ = ecx
  00000	56		 push	 esi
  00001	8b f1		 mov	 esi, ecx
  00003	e8 00 00 00 00	 call	 ??1CTElection@@UAE@XZ	; CTElection::~CTElection
  00008	f6 44 24 08 01	 test	 BYTE PTR ___flags$[esp], 1
  0000d	74 09		 je	 SHORT $L207007
  0000f	56		 push	 esi
  00010	e8 00 00 00 00	 call	 ??3@YAXPAX@Z		; operator delete
  00015	83 c4 04	 add	 esp, 4
$L207007:
  00018	8b c6		 mov	 eax, esi
  0001a	5e		 pop	 esi
  0001b	c2 04 00	 ret	 4
??_GCTElection@@UAEPAXI@Z ENDP				; CTElection::`scalar deleting destructor'
_TEXT	ENDS
PUBLIC	?stot@CTElection@@SAJPBD@Z			; CTElection::stot
PUBLIC	??_C@_0BE@HLJDCBPH@CTElection?4stot?3?5?$CFs?$AA@ ; `string'
EXTRN	_strncpy:NEAR
EXTRN	?Error@@YAPBDPBDZZ:NEAR				; Error
EXTRN	_atoi:NEAR
;	COMDAT ??_C@_0BE@HLJDCBPH@CTElection?4stot?3?5?$CFs?$AA@
; File c:\program files\microsoft visual studio .net 2003\vc7\atlmfc\include\atltime.inl
CONST	SEGMENT
??_C@_0BE@HLJDCBPH@CTElection?4stot?3?5?$CFs?$AA@ DB 'CTElection.stot: %s'
	DB	00H						; `string'
; Function compile flags: /Ogty
; File c:\documents and settings\test\mes documents\source\virtuos_v17\build\program\databaseserver\tlord.cpp
CONST	ENDS
;	COMDAT ?stot@CTElection@@SAJPBD@Z
_TEXT	SEGMENT
_szDay$ = -40						; size = 3
_szSec$ = -36						; size = 3
_szMonth$ = -32						; size = 3
_szHour$ = -28						; size = 3
_szMin$ = -24						; size = 3
_tm$ = -20						; size = 8
_szYear$ = -12						; size = 5
__$ArrayPad$ = -4					; size = 4
__$ReturnAddr$ = 4					; size = 4
_sz$ = 8						; size = 4
?stot@CTElection@@SAJPBD@Z PROC NEAR			; CTElection::stot, COMDAT

; 267  : {

  00000	83 ec 28	 sub	 esp, 40			; 00000028H
  00003	a1 00 00 00 00	 mov	 eax, DWORD PTR ___security_cookie
  00008	33 c4		 xor	 eax, esp
  0000a	53		 push	 ebx
  0000b	56		 push	 esi
  0000c	8b 74 24 34	 mov	 esi, DWORD PTR _sz$[esp+44]
  00010	89 44 24 2c	 mov	 DWORD PTR __$ArrayPad$[esp+48], eax

; 268  : 	if( strlen( sz ) != 14 )

  00014	8b c6		 mov	 eax, esi
  00016	8d 50 01	 lea	 edx, DWORD PTR [eax+1]
  00019	33 db		 xor	 ebx, ebx
  0001b	eb 03 8d 49 00	 npad	 5
$L207015:
  00020	8a 08		 mov	 cl, BYTE PTR [eax]
  00022	40		 inc	 eax
  00023	3a cb		 cmp	 cl, bl
  00025	75 f9		 jne	 SHORT $L207015
  00027	2b c2		 sub	 eax, edx
  00029	83 f8 0e	 cmp	 eax, 14			; 0000000eH
  0002c	74 0e		 je	 SHORT $L203666

; 269  : 		Error( "CTElection.stot: %s", sz );

  0002e	56		 push	 esi
  0002f	68 00 00 00 00	 push	 OFFSET FLAT:??_C@_0BE@HLJDCBPH@CTElection?4stot?3?5?$CFs?$AA@
  00034	e8 00 00 00 00	 call	 ?Error@@YAPBDPBDZZ	; Error
  00039	83 c4 08	 add	 esp, 8
$L203666:

; 270  : 	char szYear[5]	= { 0,};
; 271  : 	char szMonth[3]	= { 0,};
; 272  : 	char szDay[3]	= { 0,};
; 273  : 	char szHour[3]	= { 0,};
; 274  : 	char szMin[3]	= { 0,};
; 275  : 	char szSec[3]	= { 0, };
; 276  : 	strncpy( szYear, sz, 4 );

  0003c	6a 04		 push	 4
  0003e	8d 44 24 28	 lea	 eax, DWORD PTR _szYear$[esp+52]
  00042	56		 push	 esi
  00043	50		 push	 eax
